; Listing generated by Microsoft (R) Optimizing Compiler Version 19.00.24215.1 

	TITLE	C:\Users\Administrator\Desktop\????? ??\????? ??\Client Source Code\system\AI_Setting.cpp
	.686P
	.XMM
	include listing.inc
	.model	flat

INCLUDELIB MSVCRTD
INCLUDELIB OLDNAMES

PUBLIC	?AI_method@@3PAHA				; AI_method
PUBLIC	?AI_target@@3PAHA				; AI_target
PUBLIC	?AI_limit@@3PAHA				; AI_limit
PUBLIC	?pAIOtherFunctionWnd@@3PAUaction@@A		; pAIOtherFunctionWnd
PUBLIC	?AI_Other_State@@3HA				; AI_Other_State
PUBLIC	?AI_OtherSetting@@3PAHA				; AI_OtherSetting
PUBLIC	?bFirstFlag@@3_NA				; bFirstFlag
PUBLIC	?AI_State@@3HA					; AI_State
PUBLIC	?AI_First@@3HA					; AI_First
PUBLIC	?AI_Choosen@@3PADA				; AI_Choosen
PUBLIC	?pAISettingWnd@@3PAUaction@@A			; pAISettingWnd
PUBLIC	?g_iPSindex@@3HA				; g_iPSindex
PUBLIC	?g_bUsePS@@3_NA					; g_bUsePS
_BSS	SEGMENT
?AI_method@@3PAHA DD 05H DUP (?)			; AI_method
?AI_target@@3PAHA DD 05H DUP (?)			; AI_target
?AI_limit@@3PAHA DD 05H DUP (?)				; AI_limit
?pAIOtherFunctionWnd@@3PAUaction@@A DD 01H DUP (?)	; pAIOtherFunctionWnd
?AI_Other_State@@3HA DD 01H DUP (?)			; AI_Other_State
?AI_OtherSetting@@3PAHA DD 01H DUP (?)			; AI_OtherSetting
?bFirstFlag@@3_NA DB 01H DUP (?)			; bFirstFlag
	ALIGN	4

?AI_State@@3HA DD 01H DUP (?)				; AI_State
?AI_Choosen@@3PADA DD 01H DUP (?)			; AI_Choosen
?AICnt@@3HA DD	01H DUP (?)				; AICnt
?pAISettingWnd@@3PAUaction@@A DD 01H DUP (?)		; pAISettingWnd
?g_bUsePS@@3_NA DB 01H DUP (?)				; g_bUsePS
	ALIGN	4

?x@?1??AI_SettingProc@@YAHXZ@4HA DD 01H DUP (?)		; `AI_SettingProc'::`2'::x
?y@?1??AI_SettingProc@@YAHXZ@4HA DD 01H DUP (?)		; `AI_SettingProc'::`2'::y
_BSS	ENDS
_DATA	SEGMENT
?szFunctionName@?1??AI_OtherProc@@YAXXZ@4PAY0M@DA DB 00H ; `AI_OtherProc'::`2'::szFunctionName
	ORG $+11
	DB	0b0H, 0edH, 0b1H, 0e2H, 0b9H, 0f6H, 0b8H, 0aeH, 0b1H, 0e2H
	DB	00H
	ORG $+1
?szFunctionSwitch@?1??AI_OtherProc@@YAXXZ@4PAY0M@DA DB ' ', 0a3H, 0ceH, ' '
	DB	' ', 0a3H, 0cfH, ' ', 00H			; `AI_OtherProc'::`2'::szFunctionSwitch
	ORG $+3
	DB	' ', 0a3H, 0d9H, 0a3H, 0c5H, 0a3H, 0d3H, ' ', 00H
	ORG $+3
?AI_First@@3HA DD 01H					; AI_First
?g_iPSindex@@3HA DD 0ffffffffH				; g_iPSindex
?Notice@?1??AI_SettingProc@@YAHXZ@4PAY0CA@DA DB 0bcH, 0b3H, 0c1H, 0a4H, 0c0H
	DB	0faH, 0c0H, 0e5H, 00H			; `AI_SettingProc'::`2'::Notice
	ORG $+23
	DB	0bcH, 0b3H, 0c1H, 0a4H, 0c3H, 0ebH, 0bcH, 0d2H, 00H
	ORG $+23
	DB	'??', 0fcH, 0deH, '?', 0efH, 0f1H, '?', 00H
	ORG $+23
	DB	'??', 0fcH, 0deH, '?', 0efH, 0f1H, '?', 00H
	ORG $+23
	DB	'???', 0e0H, 0bbH, '?', 0dfH, 0edH, 00H
	ORG $+23
	DB	'???', 0e0H, 0bbH, '?', 0dfH, 0edH, 00H
	ORG $+23
	DB	0f1H, 0f2H, 0caH, 0a5H, 0d2H, 0b1H, 0ceH, 0f9H, 0d5H, 0f4H
	DB	0ecH, 0dbH, 0e1H, 0f4H, 0d3H, 0f8H, 00H
	ORG $+15
	DB	'?', 0e1H, 0b4H, 0d2H, 0b1H, 0ceH, 0f9H, 0d5H, 0f4H, 0ecH
	DB	0dbH, 0e1H, 0f4H, 0d3H, 0f8H, 00H
	ORG $+16
	DB	0cbH, 0efH, '??', 0efH, 0d2H, 0cdH, 0d4H, 0e9H, 0cdH, 0deH
	DB	0c5H, 0e9H, 0c4H, 0efH, 0f1H, '?', 0e1H, 0b6H, 0e2H, 0cdH, 'MP'
	DB	00H
	ORG $+8
	DB	0cbH, 0efH, '??', 0efH, 0d2H, 0cdH, 0d4H, 0e9H, 0cdH, 0deH
	DB	0c5H, 0e9H, 0c4H, 0efH, 0f1H, '?', 0e1H, 0b6H, 0e2H, 0cdH, 'MP'
	DB	00H
	ORG $+8
	DB	'??', 0e2H, 0cfH, 0f3H, 0adH, 0efH, 0f1H, '?', 00H
	ORG $+22
	DB	'??', 0e2H, 0cfH, 0f3H, 0adH, 0efH, 0f1H, '?', 00H
	ORG $+22
	DB	'??', 0deH, 0c5H, 0e9H, 0c4H, 0d9H, 0cdH, '?', 00H
	ORG $+22
	DB	'??', 0deH, 0c5H, 0e9H, 0c4H, 0d9H, 0cdH, '?', 00H
	ORG $+22
	DB	'????', 0fcH, 0deH, '?', 0dbH, 0b0H, 0e3H, 0d2H, 00H
	ORG $+20
	DB	'????', 0fcH, 0deH, '?', 0dbH, 0b0H, 0e3H, 0d2H, 00H
	ORG $+20
	DB	'??', 0deH, 0c5H, 0e9H, 0c4H, 0d9H, 0cdH, '?', 00H
	ORG $+22
	DB	'??', 0deH, 0c5H, 0e9H, 0c4H, 0d9H, 0cdH, '?', 00H
	ORG $+22
	DB	'??', 0cdH, 0f4H, '?', 0dbH, 0b0H, 0e3H, 0d2H, 00H
	ORG $+22
	DB	'??', 0cdH, 0f4H, '?', 0dbH, 0b0H, 0e3H, 0d2H, 00H
	ORG $+22
	DB	'??', 0deH, 0c5H, 0e9H, 0c4H, 0d9H, 0cdH, '?', 00H
	ORG $+22
	DB	'??', 0deH, 0c5H, 0e9H, 0c4H, 0d9H, 0cdH, '?', 00H
	ORG $+22
	DB	'??', 0fcH, 0deH, '?', 0dbH, 0b0H, 0e3H, 0d2H, 00H
	ORG $+22
	DB	'??', 0fcH, 0deH, '?', 0dbH, 0b0H, 0e3H, 0d2H, 00H
	ORG $+22
?u_offx@?1??AI_SettingProc@@YAHXZ@4PAHA DD 074H		; `AI_SettingProc'::`2'::u_offx
	DD	0cbH
	DD	011eH
?d_offx@?1??AI_SettingProc@@YAHXZ@4PAHA DD 061H		; `AI_SettingProc'::`2'::d_offx
	DD	0b8H
	DD	010bH
?MethodName@?1??AI_SettingProc@@YAHXZ@4PADA DB 0dcH, 0f4H, 0d2H, 0f6H, 0deH
	DB	0c5H, 0e9H, 0c4H, 00H			; `AI_SettingProc'::`2'::MethodName
	ORG $+3
?Ordinal@@3PAHA DD 04H					; Ordinal
	DD	02H
	DD	00H
	DD	01H
	DD	03H
?Ordinal2@@3PAHA DD 013H				; Ordinal2
	DD	011H
	DD	0fH
	DD	010H
	DD	012H
	DD	0eH
	DD	0cH
	DD	0aH
	DD	0bH
	DD	0dH
	DD	09H
	DD	07H
	DD	05H
	DD	06H
	DD	08H
	DD	04H
	DD	02H
	DD	00H
	DD	01H
	DD	03H
_DATA	ENDS
PUBLIC	?strstr@@YAPADQADQBD@Z				; strstr
PUBLIC	___local_stdio_printf_options
PUBLIC	??$__vcrt_va_start_verify_argument_type@QBD@@YAXXZ ; __vcrt_va_start_verify_argument_type<char const * const>
PUBLIC	__vsnprintf_l
PUBLIC	__vsprintf_l
PUBLIC	_sprintf
PUBLIC	?AI_SetUpAttackMethod@@YAXH@Z			; AI_SetUpAttackMethod
PUBLIC	?AI_SetDownAttackMethod@@YAXH@Z			; AI_SetDownAttackMethod
PUBLIC	?AI_Load@@YAHPAD@Z				; AI_Load
PUBLIC	?AI_ReLoad@@YAHXZ				; AI_ReLoad
PUBLIC	?AI_Save@@YAHXZ					; AI_Save
PUBLIC	?AI_CheckSkillSetting@@YAHHHH@Z			; AI_CheckSkillSetting
PUBLIC	?AI_CheckSetting@@YAXXZ				; AI_CheckSetting
PUBLIC	?AI_Init@@YAXXZ					; AI_Init
PUBLIC	?AI_SetUpTarget@@YAXH@Z				; AI_SetUpTarget
PUBLIC	?AI_SetDownTarget@@YAXH@Z			; AI_SetDownTarget
PUBLIC	?AI_SetMethod@@YAXHH@Z				; AI_SetMethod
PUBLIC	?AI_SetUpCureMethod@@YAXH@Z			; AI_SetUpCureMethod
PUBLIC	?AI_SetDownCureMethod@@YAXH@Z			; AI_SetDownCureMethod
PUBLIC	?AI_SetUpFirstMethod@@YAXH@Z			; AI_SetUpFirstMethod
PUBLIC	?AI_SetDownFirstMethod@@YAXH@Z			; AI_SetDownFirstMethod
PUBLIC	?AI_SetUpResurrectMethod@@YAXH@Z		; AI_SetUpResurrectMethod
PUBLIC	?AI_SetDownResurrectMethod@@YAXH@Z		; AI_SetDownResurrectMethod
PUBLIC	?AI_SetUpLimit@@YAXH@Z				; AI_SetUpLimit
PUBLIC	?AI_SetDownLimit@@YAXH@Z			; AI_SetDownLimit
PUBLIC	?AI_SettingProc@@YAHXZ				; AI_SettingProc
PUBLIC	?GetResurrectTarget@@YAHH@Z			; GetResurrectTarget
PUBLIC	?GetFirstTarget@@YAHH@Z				; GetFirstTarget
PUBLIC	?GetCureTarget@@YAHH@Z				; GetCureTarget
PUBLIC	?GetDeadTarget@@YAHXZ				; GetDeadTarget
PUBLIC	?AttackAIProc@@YAHHPAD@Z			; AttackAIProc
PUBLIC	?AI_ChooseAction@@YAXXZ				; AI_ChooseAction
PUBLIC	?AI_CloseWnd@@YAXXZ				; AI_CloseWnd
PUBLIC	?AI_OtherProc@@YAXXZ				; AI_OtherProc
PUBLIC	?_OptionsStorage@?1??__local_stdio_printf_options@@9@4_KA ; `__local_stdio_printf_options'::`2'::_OptionsStorage
PUBLIC	??_C@_03HMFOOINA@r?$CLb?$AA@			; `string'
PUBLIC	??_C@_0BD@PDHJLAOE@data?2AISetting?4dat?$AA@	; `string'
PUBLIC	??_C@_02GMLFBBN@wb?$AA@				; `string'
PUBLIC	??_C@_02JDPG@rb?$AA@				; `string'
PUBLIC	??_C@_06MPLPIMIC@?$LD?$LL?$LB?$LI?$LH?B?$AA@	; `string'
PUBLIC	??_C@_04EEBAFPAH@?$LE?q?$LB?$NL?$AA@		; `string'
PUBLIC	??_C@_04MFANEHND@?$DP?$DP?$DP?$DP?$AA@		; `string'
PUBLIC	??_C@_03MNMCLLPK@?$PM?$NO?$DP?$AA@		; `string'
PUBLIC	??_C@_09BACHGGGK@f?$DLencor1c?$AA@		; `string'
PUBLIC	??_C@_06NJIACOMI@?R?$LB?N?y?U?t?$AA@		; `string'
PUBLIC	??_C@_08GGBOKOHL@?$LB?b?E?$LI?$LB?b?$LE?I?$AA@	; `string'
PUBLIC	??_C@_08LLCHMLBO@?$MA?O?$LJ?$NN?$LA?x?$LA?$NN?$AA@ ; `string'
PUBLIC	??_C@_08OHKEAHAF@?$LM?R?G?$LA?$LM?$LB?E?C?$AA@	; `string'
PUBLIC	??_C@_04OCCKPHIM@?$MA?Z?$LN?E?$AA@		; `string'
PUBLIC	??_C@_04KDDDLIGD@?F?d?F?$KO?$AA@		; `string'
PUBLIC	??_C@_08OGPGECIA@?$LO?F?$LB?$LK?$MA?$PM?C?$LM?$AA@ ; `string'
PUBLIC	??_C@_04LFMEPEEF@?$LL?s?$LE?k?$AA@		; `string'
PUBLIC	??_C@_04MHOBIAIL@?$MA?$PM?C?$LM?$AA@		; `string'
PUBLIC	??_C@_06LAICFDDI@?F?D?F?$LM?$KI?g?$AA@		; `string'
PUBLIC	??_C@_06DHBKEPPH@?F?D?F?$LM?$KI?h?$AA@		; `string'
PUBLIC	??_C@_06COABHOLG@?F?D?F?$LM?$KI?i?$AA@		; `string'
PUBLIC	??_C@_06FCMCNHF@?F?D?F?$LM?$KI?j?$AA@		; `string'
PUBLIC	??_C@_06BMDHBMDE@?F?D?F?$LM?$KI?k?$AA@		; `string'
PUBLIC	??_C@_06CPOHNOLJ@?$MA?$PL?$MA?$PM?C?$LM?$AA@	; `string'
PUBLIC	??_C@_0BH@KAEALDCD@?$LP?$MA?$LH?y?$LI?$KG?5?$MA?g?$LM?$LD?A?$KE?G?O?$LN?J?$LN?C?$LP?$MA?4?$AA@ ; `string'
PUBLIC	??_C@_02IPAINHI@?$KD?$KF?$AA@			; `string'
PUBLIC	??_C@_07NGDMDFPD@P?$HM?$CFX?$HM?$CFX?$AA@	; `string'
PUBLIC	??_C@_04DMFDFHBJ@H?$HM?$CFX?$AA@		; `string'
PUBLIC	??_C@_01NANMIPIL@N?$AA@				; `string'
PUBLIC	??_C@_0P@IOBJGDJM@?C?$LJ?$LJ?x?B?$LA?$LI?$LG?$LJ?$PN?$LL?g?$LP?k?$AA@ ; `string'
PUBLIC	??_C@_07DLEHBIBA@J?$HM?$CFX?$HM?$CFX?$AA@	; `string'
PUBLIC	??_C@_0BI@BOMCDLOB@MP?$NM?t?p?k?Y?i?$NL?v?$NO?E?i?D?b?O?s?$KN?n?$NM?o?q?$DP?$AA@ ; `string'
PUBLIC	??_C@_0BJ@OFNEOCJH@MP?$NM?t?p?k?Y?i?$NL?v?$NO?E?i?D?b?O?s?$KN?n?$NM?P?$PM?R?v?$AA@ ; `string'
PUBLIC	??_C@_09MFBOBGGD@?P?$PM?R?v?S?$NL?$DP?$DP?$DP?$AA@ ; `string'
PUBLIC	??_C@_04KFNLJMFK@?$LA?m?$LB?b?$AA@		; `string'
PUBLIC	??_C@_04FBNBPNKM@?$LB?b?$LH?B?$AA@		; `string'
PUBLIC	??_C@_07LFMIBPPD@I?$HM?$CFX?$HM?$CFX?$AA@	; `string'
PUBLIC	??_C@_0CH@BEFJEOCA@?$LA?m?$LB?b?$LI?$KG?5?$LL?g?$LP?k?G?O?$LP?$KJ?5?$LD?$LL?$LB?$LI?$LH?B?$MA?$LL?5?H?$LI?$LK?$LJ?G?O?$LN@ ; `string'
PUBLIC	??_C@_0BB@PIEHFOMH@?$NO?E?i?D?R?$LB?N?y?U?t?$PM?$NO?$DP?o?q?$DP?$AA@ ; `string'
PUBLIC	??_C@_0BH@FMLKODEL@?Y?i?$NL?v?$NO?E?i?D?R?$LB?N?y?U?t?$PM?$NO?$DP?n?$NM?o?q?$DP?$AA@ ; `string'
PUBLIC	??_C@_0BC@PHAAIPHL@?$NO?E?i?D?R?$LB?N?y?U?t?$PM?$NO?$DP?T?$LD?N?$PN?$AA@ ; `string'
PUBLIC	??_C@_0BD@DBADDAKO@?$DP?j?s?R?$LB?N?y?U?t?$PM?$NO?$DP?n?$NM?T?$LD?N?$PN?$AA@ ; `string'
PUBLIC	??_C@_0BA@NCPBCDLA@?Y?i?$NL?v?$PM?$NO?$DP?R?$LB?N?y?U?t?V?u?$AA@ ; `string'
PUBLIC	??_C@_05ILBJFPGK@?$DP?$DP?$PM?$NO?$DP?$AA@	; `string'
PUBLIC	??_C@_0O@CNGJAGH@?$NO?E?i?D?$DP?$DP?$PM?$NO?$DP?T?$LD?N?$PN?$AA@ ; `string'
PUBLIC	??_C@_0P@OCELKNNC@?$DP?j?s?$DP?$DP?$PM?$NO?$DP?n?$NM?T?$LD?N?$PN?$AA@ ; `string'
PUBLIC	??_C@_0N@CBJMBFJA@?$NO?E?i?D?$DP?$DP?$PM?$NO?$DP?o?q?$DP?$AA@ ; `string'
PUBLIC	??_C@_0BJ@CPFMLNIJ@MP?$NM?t?p?k?Y?i?$NL?v?$NO?E?i?D?$DP?$DP?$PM?$NO?$DP?n?$NM?o?q?$DP?$AA@ ; `string'
PUBLIC	??_C@_0BB@NIHOBAAH@?$DP?j?s?$DP?o?R?$DP?$DP?$PM?$NO?$DP?n?$NM?o?q?$DP?$AA@ ; `string'
PUBLIC	??_C@_01OGPIMHDM@?$DP?$AA@			; `string'
PUBLIC	??_C@_0P@GIILPPGN@?$NO?E?i?D?$PM?$NO?$DP?$DP?U?t?T?$LD?N?$PN?$AA@ ; `string'
PUBLIC	??_C@_0BA@FPPNEEDL@?$DP?j?s?$PM?$NO?$DP?$DP?U?t?n?$NM?T?$LD?N?$PN?$AA@ ; `string'
PUBLIC	??_C@_01DDCIFGEA@E?$AA@				; `string'
PUBLIC	??_C@_08NOADAHE@?$MA?Z?$LF?$LP?$LA?x?$LA?$NN?$AA@ ; `string'
PUBLIC	??_C@_07BDJJCCFL@W?$HMFF?$HMFF?$AA@		; `string'
PUBLIC	??_C@_07NMPJDMOK@W?$HM?$CFX?$HM?$CFX?$AA@	; `string'
EXTRN	___report_rangecheckfailure:PROC
EXTRN	?TimeGetTime@@YAIXZ:PROC			; TimeGetTime
EXTRN	_memcpy:PROC
EXTRN	__imp__strstr:PROC
EXTRN	_strcat:PROC
EXTRN	_strcmp:PROC
EXTRN	_strcpy:PROC
EXTRN	_strlen:PROC
EXTRN	__imp__itoa:PROC
EXTRN	__imp__fclose:PROC
EXTRN	__imp__fopen:PROC
EXTRN	__imp__fread:PROC
EXTRN	__imp__fseek:PROC
EXTRN	__imp__fwrite:PROC
EXTRN	__imp____stdio_common_vsprintf:PROC
EXTRN	?DeathAction@@YAXPAUaction@@@Z:PROC		; DeathAction
EXTRN	?StockDispBuffer@@YAHHHEHH@Z:PROC		; StockDispBuffer
EXTRN	?StockChatBufferLine@@YAXPADEH@Z:PROC		; StockChatBufferLine
EXTRN	?StockFontBuffer@@YAHHHDHPADH@Z:PROC		; StockFontBuffer
EXTRN	?MakeWindowDisp@@YAPAUaction@@HHHHHH@Z:PROC	; MakeWindowDisp
EXTRN	?MakeHitBox@@YAHHHHHH@Z:PROC			; MakeHitBox
EXTRN	?play_se@@YAHHHH@Z:PROC				; play_se
EXTRN	?lssproto_B_send@@YAXHPAD@Z:PROC		; lssproto_B_send
EXTRN	?old_lssproto_B_send@@YAXHPAD@Z:PROC		; old_lssproto_B_send
EXTRN	?ecb_crypt@@YAHPAD0II@Z:PROC			; ecb_crypt
EXTRN	?selFontId@@YAHPAHH@Z:PROC			; selFontId
EXTRN	?GetBattelTarget@@YAHXZ:PROC			; GetBattelTarget
EXTRN	?InitBattleAnimFlag@@YAXXZ:PROC			; InitBattleAnimFlag
EXTRN	@_RTC_CheckStackVars@8:PROC
EXTRN	@__security_check_cookie@4:PROC
EXTRN	__RTC_CheckEsp:PROC
EXTRN	__RTC_InitBase:PROC
EXTRN	__RTC_Shutdown:PROC
EXTRN	__RTC_UninitUse:PROC
EXTRN	?ProcNo@@3IA:DWORD				; ProcNo
EXTRN	?SubProcNo@@3IA:DWORD				; SubProcNo
EXTRN	?joy_trg@@3PAKA:QWORD				; joy_trg
EXTRN	?p_party@@3PAPAUaction@@A:BYTE			; p_party
EXTRN	?mouse@@3UMOUSE@@A:BYTE				; mouse
EXTRN	?HitDispNo@@3HA:DWORD				; HitDispNo
EXTRN	?OneLineInfoStr@@3PADA:BYTE			; OneLineInfoStr
EXTRN	?pc@@3UPC@@A:BYTE				; pc
EXTRN	?magic@@3PAUMAGIC@@A:BYTE			; magic
EXTRN	?pet@@3PAUPET@@A:BYTE				; pet
EXTRN	?petSkill@@3PAY06UPET_SKILL@@A:BYTE		; petSkill
EXTRN	?profession_skill@@3PAUPROFESSION_SKILL@@A:BYTE	; profession_skill
EXTRN	?AI@@3HA:DWORD					; AI
EXTRN	?PauseAI@@3KA:DWORD				; PauseAI
EXTRN	?BattleMyNo@@3HA:DWORD				; BattleMyNo
EXTRN	?BattleBpFlag@@3HA:DWORD			; BattleBpFlag
EXTRN	?sockfd@@3IA:DWORD				; sockfd
EXTRN	?bNewServer@@3HA:DWORD				; bNewServer
EXTRN	?IdEncryptionTbl@@3PAHA:BYTE			; IdEncryptionTbl
EXTRN	?szUser@@3PADA:BYTE				; szUser
EXTRN	?battlePlayerEscFlag@@3HA:DWORD			; battlePlayerEscFlag
EXTRN	?×Ô¶¯µÇÂ½´°¿Ú@@3HA:DWORD			; ×Ô¶¯µÇÂ½´°¿Ú
EXTRN	?p×Ô¶¯µÇÂ½´°¿Ú@@3PAUaction@@A:DWORD		; p×Ô¶¯µÇÂ½´°¿Ú
EXTRN	?·½Ïò¶¯×÷@@3PAUaction@@A:DWORD			; ·½Ïò¶¯×÷
EXTRN	?ÈËÎï¶¯×÷@@3PAUaction@@A:DWORD			; ÈËÎï¶¯×÷
EXTRN	___security_cookie:DWORD
;	COMDAT ?_OptionsStorage@?1??__local_stdio_printf_options@@9@4_KA
_BSS	SEGMENT
?_OptionsStorage@?1??__local_stdio_printf_options@@9@4_KA DQ 01H DUP (?) ; `__local_stdio_printf_options'::`2'::_OptionsStorage
_BSS	ENDS
_BSS	SEGMENT
?dwPressTime@?1??AI_SettingProc@@YAHXZ@4KA DD 01H DUP (?) ; `AI_SettingProc'::`2'::dwPressTime
?btnId@?1??AI_SettingProc@@YAHXZ@4PAHA DD 018H DUP (?)	; `AI_SettingProc'::`2'::btnId
?btnState@?1??AI_SettingProc@@YAHXZ@4PAHA DD 018H DUP (?) ; `AI_SettingProc'::`2'::btnState
?btnId@?1??AI_OtherProc@@YAXXZ@4PAHA DD 02H DUP (?)	; `AI_OtherProc'::`2'::btnId
_BSS	ENDS
;	COMDAT rtc$TMZ
rtc$TMZ	SEGMENT
__RTC_Shutdown.rtc$TMZ DD FLAT:__RTC_Shutdown
rtc$TMZ	ENDS
;	COMDAT rtc$IMZ
rtc$IMZ	SEGMENT
__RTC_InitBase.rtc$IMZ DD FLAT:__RTC_InitBase
rtc$IMZ	ENDS
;	COMDAT ??_C@_07NMPJDMOK@W?$HM?$CFX?$HM?$CFX?$AA@
CONST	SEGMENT
??_C@_07NMPJDMOK@W?$HM?$CFX?$HM?$CFX?$AA@ DB 'W|%X|%X', 00H ; `string'
CONST	ENDS
;	COMDAT ??_C@_07BDJJCCFL@W?$HMFF?$HMFF?$AA@
CONST	SEGMENT
??_C@_07BDJJCCFL@W?$HMFF?$HMFF?$AA@ DB 'W|FF|FF', 00H	; `string'
CONST	ENDS
;	COMDAT ??_C@_08NOADAHE@?$MA?Z?$LF?$LP?$LA?x?$LA?$NN?$AA@
CONST	SEGMENT
??_C@_08NOADAHE@?$MA?Z?$LF?$LP?$LA?x?$LA?$NN?$AA@ DB 0c0H, 0daH, 0b5H, 0bfH
	DB	0b0H, 0f8H, 0b0H, 0ddH, 00H			; `string'
CONST	ENDS
;	COMDAT ??_C@_01DDCIFGEA@E?$AA@
CONST	SEGMENT
??_C@_01DDCIFGEA@E?$AA@ DB 'E', 00H			; `string'
CONST	ENDS
;	COMDAT ??_C@_0BA@FPPNEEDL@?$DP?j?s?$PM?$NO?$DP?$DP?U?t?n?$NM?T?$LD?N?$PN?$AA@
CONST	SEGMENT
??_C@_0BA@FPPNEEDL@?$DP?j?s?$PM?$NO?$DP?$DP?U?t?n?$NM?T?$LD?N?$PN?$AA@ DB '?'
	DB	0eaH, 0f3H, 0fcH, 0deH, '??', 0d5H, 0f4H, 0eeH, 0dcH, 0d4H, 0b3H
	DB	0ceH, 0fdH, 00H				; `string'
CONST	ENDS
;	COMDAT ??_C@_0P@GIILPPGN@?$NO?E?i?D?$PM?$NO?$DP?$DP?U?t?T?$LD?N?$PN?$AA@
CONST	SEGMENT
??_C@_0P@GIILPPGN@?$NO?E?i?D?$PM?$NO?$DP?$DP?U?t?T?$LD?N?$PN?$AA@ DB 0deH
	DB	0c5H, 0e9H, 0c4H, 0fcH, 0deH, '??', 0d5H, 0f4H, 0d4H, 0b3H, 0ceH
	DB	0fdH, 00H					; `string'
CONST	ENDS
;	COMDAT ??_C@_01OGPIMHDM@?$DP?$AA@
CONST	SEGMENT
??_C@_01OGPIMHDM@?$DP?$AA@ DB '?', 00H			; `string'
CONST	ENDS
;	COMDAT ??_C@_0BB@NIHOBAAH@?$DP?j?s?$DP?o?R?$DP?$DP?$PM?$NO?$DP?n?$NM?o?q?$DP?$AA@
CONST	SEGMENT
??_C@_0BB@NIHOBAAH@?$DP?j?s?$DP?o?R?$DP?$DP?$PM?$NO?$DP?n?$NM?o?q?$DP?$AA@ DB '?'
	DB	0eaH, 0f3H, '?', 0efH, 0d2H, '??', 0fcH, 0deH, '?', 0eeH, 0dcH
	DB	0efH, 0f1H, '?', 00H				; `string'
CONST	ENDS
;	COMDAT ??_C@_0BJ@CPFMLNIJ@MP?$NM?t?p?k?Y?i?$NL?v?$NO?E?i?D?$DP?$DP?$PM?$NO?$DP?n?$NM?o?q?$DP?$AA@
CONST	SEGMENT
??_C@_0BJ@CPFMLNIJ@MP?$NM?t?p?k?Y?i?$NL?v?$NO?E?i?D?$DP?$DP?$PM?$NO?$DP?n?$NM?o?q?$DP?$AA@ DB 'M'
	DB	'P', 0dcH, 0f4H, 0f0H, 0ebH, 0d9H, 0e9H, 0dbH, 0f6H, 0deH, 0c5H
	DB	0e9H, 0c4H, '??', 0fcH, 0deH, '?', 0eeH, 0dcH, 0efH, 0f1H, '?', 00H ; `string'
CONST	ENDS
;	COMDAT ??_C@_0N@CBJMBFJA@?$NO?E?i?D?$DP?$DP?$PM?$NO?$DP?o?q?$DP?$AA@
CONST	SEGMENT
??_C@_0N@CBJMBFJA@?$NO?E?i?D?$DP?$DP?$PM?$NO?$DP?o?q?$DP?$AA@ DB 0deH, 0c5H
	DB	0e9H, 0c4H, '??', 0fcH, 0deH, '?', 0efH, 0f1H, '?', 00H ; `string'
CONST	ENDS
;	COMDAT ??_C@_0P@OCELKNNC@?$DP?j?s?$DP?$DP?$PM?$NO?$DP?n?$NM?T?$LD?N?$PN?$AA@
CONST	SEGMENT
??_C@_0P@OCELKNNC@?$DP?j?s?$DP?$DP?$PM?$NO?$DP?n?$NM?T?$LD?N?$PN?$AA@ DB '?'
	DB	0eaH, 0f3H, '??', 0fcH, 0deH, '?', 0eeH, 0dcH, 0d4H, 0b3H, 0ceH
	DB	0fdH, 00H					; `string'
CONST	ENDS
;	COMDAT ??_C@_0O@CNGJAGH@?$NO?E?i?D?$DP?$DP?$PM?$NO?$DP?T?$LD?N?$PN?$AA@
CONST	SEGMENT
??_C@_0O@CNGJAGH@?$NO?E?i?D?$DP?$DP?$PM?$NO?$DP?T?$LD?N?$PN?$AA@ DB 0deH, 0c5H
	DB	0e9H, 0c4H, '??', 0fcH, 0deH, '?', 0d4H, 0b3H, 0ceH, 0fdH, 00H ; `string'
CONST	ENDS
;	COMDAT ??_C@_05ILBJFPGK@?$DP?$DP?$PM?$NO?$DP?$AA@
CONST	SEGMENT
??_C@_05ILBJFPGK@?$DP?$DP?$PM?$NO?$DP?$AA@ DB '??', 0fcH, 0deH, '?', 00H ; `string'
CONST	ENDS
;	COMDAT ??_C@_0BA@NCPBCDLA@?Y?i?$NL?v?$PM?$NO?$DP?R?$LB?N?y?U?t?V?u?$AA@
CONST	SEGMENT
??_C@_0BA@NCPBCDLA@?Y?i?$NL?v?$PM?$NO?$DP?R?$LB?N?y?U?t?V?u?$AA@ DB 0d9H, 0e9H
	DB	0dbH, 0f6H, 0fcH, 0deH, '?', 0d2H, 0b1H, 0ceH, 0f9H, 0d5H, 0f4H
	DB	0d6H, 0f5H, 00H				; `string'
CONST	ENDS
;	COMDAT ??_C@_0BD@DBADDAKO@?$DP?j?s?R?$LB?N?y?U?t?$PM?$NO?$DP?n?$NM?T?$LD?N?$PN?$AA@
CONST	SEGMENT
??_C@_0BD@DBADDAKO@?$DP?j?s?R?$LB?N?y?U?t?$PM?$NO?$DP?n?$NM?T?$LD?N?$PN?$AA@ DB '?'
	DB	0eaH, 0f3H, 0d2H, 0b1H, 0ceH, 0f9H, 0d5H, 0f4H, 0fcH, 0deH, '?'
	DB	0eeH, 0dcH, 0d4H, 0b3H, 0ceH, 0fdH, 00H	; `string'
CONST	ENDS
;	COMDAT ??_C@_0BC@PHAAIPHL@?$NO?E?i?D?R?$LB?N?y?U?t?$PM?$NO?$DP?T?$LD?N?$PN?$AA@
CONST	SEGMENT
??_C@_0BC@PHAAIPHL@?$NO?E?i?D?R?$LB?N?y?U?t?$PM?$NO?$DP?T?$LD?N?$PN?$AA@ DB 0deH
	DB	0c5H, 0e9H, 0c4H, 0d2H, 0b1H, 0ceH, 0f9H, 0d5H, 0f4H, 0fcH, 0deH
	DB	'?', 0d4H, 0b3H, 0ceH, 0fdH, 00H		; `string'
CONST	ENDS
;	COMDAT ??_C@_0BH@FMLKODEL@?Y?i?$NL?v?$NO?E?i?D?R?$LB?N?y?U?t?$PM?$NO?$DP?n?$NM?o?q?$DP?$AA@
CONST	SEGMENT
??_C@_0BH@FMLKODEL@?Y?i?$NL?v?$NO?E?i?D?R?$LB?N?y?U?t?$PM?$NO?$DP?n?$NM?o?q?$DP?$AA@ DB 0d9H
	DB	0e9H, 0dbH, 0f6H, 0deH, 0c5H, 0e9H, 0c4H, 0d2H, 0b1H, 0ceH, 0f9H
	DB	0d5H, 0f4H, 0fcH, 0deH, '?', 0eeH, 0dcH, 0efH, 0f1H, '?', 00H ; `string'
CONST	ENDS
;	COMDAT ??_C@_0BB@PIEHFOMH@?$NO?E?i?D?R?$LB?N?y?U?t?$PM?$NO?$DP?o?q?$DP?$AA@
CONST	SEGMENT
??_C@_0BB@PIEHFOMH@?$NO?E?i?D?R?$LB?N?y?U?t?$PM?$NO?$DP?o?q?$DP?$AA@ DB 0deH
	DB	0c5H, 0e9H, 0c4H, 0d2H, 0b1H, 0ceH, 0f9H, 0d5H, 0f4H, 0fcH, 0deH
	DB	'?', 0efH, 0f1H, '?', 00H			; `string'
CONST	ENDS
;	COMDAT ??_C@_0CH@BEFJEOCA@?$LA?m?$LB?b?$LI?$KG?5?$LL?g?$LP?k?G?O?$LP?$KJ?5?$LD?$LL?$LB?$LI?$LH?B?$MA?$LL?5?H?$LI?$LK?$LJ?G?O?$LN@
CONST	SEGMENT
??_C@_0CH@BEFJEOCA@?$LA?m?$LB?b?$LI?$KG?5?$LL?g?$LP?k?G?O?$LP?$KJ?5?$LD?$LL?$LB?$LI?$LH?B?$MA?$LL?5?H?$LI?$LK?$LJ?G?O?$LN@ DB 0b0H
	DB	0edH, 0b1H, 0e2H, 0b8H, 0a6H, ' ', 0bbH, 0e7H, 0bfH, 0ebH, 0c7H
	DB	0cfH, 0bfH, 0a9H, ' ', 0b3H, 0bbH, 0b1H, 0b8H, 0b7H, 0c2H, 0c0H
	DB	0bbH, ' ', 0c8H, 0b8H, 0baH, 0b9H, 0c7H, 0cfH, 0bdH, 0caH, 0bdH
	DB	0c3H, 0bfH, 0c0H, '.', 00H			; `string'
CONST	ENDS
;	COMDAT ??_C@_07LFMIBPPD@I?$HM?$CFX?$HM?$CFX?$AA@
CONST	SEGMENT
??_C@_07LFMIBPPD@I?$HM?$CFX?$HM?$CFX?$AA@ DB 'I|%X|%X', 00H ; `string'
CONST	ENDS
;	COMDAT ??_C@_04FBNBPNKM@?$LB?b?$LH?B?$AA@
CONST	SEGMENT
??_C@_04FBNBPNKM@?$LB?b?$LH?B?$AA@ DB 0b1H, 0e2H, 0b7H, 0c2H, 00H ; `string'
CONST	ENDS
;	COMDAT ??_C@_04KFNLJMFK@?$LA?m?$LB?b?$AA@
CONST	SEGMENT
??_C@_04KFNLJMFK@?$LA?m?$LB?b?$AA@ DB 0b0H, 0edH, 0b1H, 0e2H, 00H ; `string'
CONST	ENDS
;	COMDAT ??_C@_09MFBOBGGD@?P?$PM?R?v?S?$NL?$DP?$DP?$DP?$AA@
CONST	SEGMENT
??_C@_09MFBOBGGD@?P?$PM?R?v?S?$NL?$DP?$DP?$DP?$AA@ DB 0d0H, 0fcH, 0d2H, 0f6H
	DB	0d3H, 0dbH, '???', 00H			; `string'
CONST	ENDS
;	COMDAT ??_C@_0BJ@OFNEOCJH@MP?$NM?t?p?k?Y?i?$NL?v?$NO?E?i?D?b?O?s?$KN?n?$NM?P?$PM?R?v?$AA@
CONST	SEGMENT
??_C@_0BJ@OFNEOCJH@MP?$NM?t?p?k?Y?i?$NL?v?$NO?E?i?D?b?O?s?$KN?n?$NM?P?$PM?R?v?$AA@ DB 'M'
	DB	'P', 0dcH, 0f4H, 0f0H, 0ebH, 0d9H, 0e9H, 0dbH, 0f6H, 0deH, 0c5H
	DB	0e9H, 0c4H, 0e2H, 0cfH, 0f3H, 0adH, 0eeH, 0dcH, 0d0H, 0fcH, 0d2H
	DB	0f6H, 00H					; `string'
CONST	ENDS
;	COMDAT ??_C@_0BI@BOMCDLOB@MP?$NM?t?p?k?Y?i?$NL?v?$NO?E?i?D?b?O?s?$KN?n?$NM?o?q?$DP?$AA@
CONST	SEGMENT
??_C@_0BI@BOMCDLOB@MP?$NM?t?p?k?Y?i?$NL?v?$NO?E?i?D?b?O?s?$KN?n?$NM?o?q?$DP?$AA@ DB 'M'
	DB	'P', 0dcH, 0f4H, 0f0H, 0ebH, 0d9H, 0e9H, 0dbH, 0f6H, 0deH, 0c5H
	DB	0e9H, 0c4H, 0e2H, 0cfH, 0f3H, 0adH, 0eeH, 0dcH, 0efH, 0f1H, '?'
	DB	00H						; `string'
CONST	ENDS
;	COMDAT ??_C@_07DLEHBIBA@J?$HM?$CFX?$HM?$CFX?$AA@
CONST	SEGMENT
??_C@_07DLEHBIBA@J?$HM?$CFX?$HM?$CFX?$AA@ DB 'J|%X|%X', 00H ; `string'
CONST	ENDS
;	COMDAT ??_C@_0P@IOBJGDJM@?C?$LJ?$LJ?x?B?$LA?$LI?$LG?$LJ?$PN?$LL?g?$LP?k?$AA@
CONST	SEGMENT
??_C@_0P@IOBJGDJM@?C?$LJ?$LJ?x?B?$LA?$LI?$LG?$LJ?$PN?$LL?g?$LP?k?$AA@ DB 0c3H
	DB	0b9H, 0b9H, 0f8H, 0c2H, 0b0H, 0b8H, 0b6H, 0b9H, 0fdH, 0bbH, 0e7H
	DB	0bfH, 0ebH, 00H				; `string'
CONST	ENDS
;	COMDAT ??_C@_01NANMIPIL@N?$AA@
CONST	SEGMENT
??_C@_01NANMIPIL@N?$AA@ DB 'N', 00H			; `string'
CONST	ENDS
;	COMDAT ??_C@_04DMFDFHBJ@H?$HM?$CFX?$AA@
CONST	SEGMENT
??_C@_04DMFDFHBJ@H?$HM?$CFX?$AA@ DB 'H|%X', 00H		; `string'
CONST	ENDS
;	COMDAT ??_C@_07NGDMDFPD@P?$HM?$CFX?$HM?$CFX?$AA@
CONST	SEGMENT
??_C@_07NGDMDFPD@P?$HM?$CFX?$HM?$CFX?$AA@ DB 'P|%X|%X', 00H ; `string'
CONST	ENDS
;	COMDAT ??_C@_02IPAINHI@?$KD?$KF?$AA@
CONST	SEGMENT
??_C@_02IPAINHI@?$KD?$KF?$AA@ DB 0a3H, 0a5H, 00H	; `string'
CONST	ENDS
;	COMDAT ??_C@_0BH@KAEALDCD@?$LP?$MA?$LH?y?$LI?$KG?5?$MA?g?$LM?$LD?A?$KE?G?O?$LN?J?$LN?C?$LP?$MA?4?$AA@
CONST	SEGMENT
??_C@_0BH@KAEALDCD@?$LP?$MA?$LH?y?$LI?$KG?5?$MA?g?$LM?$LD?A?$KE?G?O?$LN?J?$LN?C?$LP?$MA?4?$AA@ DB 0bfH
	DB	0c0H, 0b7H, 0f9H, 0b8H, 0a6H, ' ', 0c0H, 0e7H, 0bcH, 0b3H, 0c1H
	DB	0a4H, 0c7H, 0cfH, 0bdH, 0caH, 0bdH, 0c3H, 0bfH, 0c0H, '.', 00H ; `string'
CONST	ENDS
;	COMDAT ??_C@_06CPOHNOLJ@?$MA?$PL?$MA?$PM?C?$LM?$AA@
CONST	SEGMENT
??_C@_06CPOHNOLJ@?$MA?$PL?$MA?$PM?C?$LM?$AA@ DB 0c0H, 0fbH, 0c0H, 0fcH, 0c3H
	DB	0bcH, 00H					; `string'
CONST	ENDS
;	COMDAT ??_C@_06BMDHBMDE@?F?D?F?$LM?$KI?k?$AA@
CONST	SEGMENT
??_C@_06BMDHBMDE@?F?D?F?$LM?$KI?k?$AA@ DB 0c6H, 0c4H, 0c6H, 0bcH, 0a8H, 0ebH
	DB	00H						; `string'
CONST	ENDS
;	COMDAT ??_C@_06FCMCNHF@?F?D?F?$LM?$KI?j?$AA@
CONST	SEGMENT
??_C@_06FCMCNHF@?F?D?F?$LM?$KI?j?$AA@ DB 0c6H, 0c4H, 0c6H, 0bcH, 0a8H, 0eaH
	DB	00H						; `string'
CONST	ENDS
;	COMDAT ??_C@_06COABHOLG@?F?D?F?$LM?$KI?i?$AA@
CONST	SEGMENT
??_C@_06COABHOLG@?F?D?F?$LM?$KI?i?$AA@ DB 0c6H, 0c4H, 0c6H, 0bcH, 0a8H, 0e9H
	DB	00H						; `string'
CONST	ENDS
;	COMDAT ??_C@_06DHBKEPPH@?F?D?F?$LM?$KI?h?$AA@
CONST	SEGMENT
??_C@_06DHBKEPPH@?F?D?F?$LM?$KI?h?$AA@ DB 0c6H, 0c4H, 0c6H, 0bcH, 0a8H, 0e8H
	DB	00H						; `string'
CONST	ENDS
;	COMDAT ??_C@_06LAICFDDI@?F?D?F?$LM?$KI?g?$AA@
CONST	SEGMENT
??_C@_06LAICFDDI@?F?D?F?$LM?$KI?g?$AA@ DB 0c6H, 0c4H, 0c6H, 0bcH, 0a8H, 0e7H
	DB	00H						; `string'
CONST	ENDS
;	COMDAT ??_C@_04MHOBIAIL@?$MA?$PM?C?$LM?$AA@
CONST	SEGMENT
??_C@_04MHOBIAIL@?$MA?$PM?C?$LM?$AA@ DB 0c0H, 0fcH, 0c3H, 0bcH, 00H ; `string'
CONST	ENDS
;	COMDAT ??_C@_04LFMEPEEF@?$LL?s?$LE?k?$AA@
CONST	SEGMENT
??_C@_04LFMEPEEF@?$LL?s?$LE?k?$AA@ DB 0bbH, 0f3H, 0b4H, 0ebH, 00H ; `string'
CONST	ENDS
;	COMDAT ??_C@_08OGPGECIA@?$LO?F?$LB?$LK?$MA?$PM?C?$LM?$AA@
CONST	SEGMENT
??_C@_08OGPGECIA@?$LO?F?$LB?$LK?$MA?$PM?C?$LM?$AA@ DB 0beH, 0c6H, 0b1H, 0baH
	DB	0c0H, 0fcH, 0c3H, 0bcH, 00H			; `string'
CONST	ENDS
;	COMDAT ??_C@_04KDDDLIGD@?F?d?F?$KO?$AA@
CONST	SEGMENT
??_C@_04KDDDLIGD@?F?d?F?$KO?$AA@ DB 0c6H, 0e4H, 0c6H, 0aeH, 00H ; `string'
CONST	ENDS
;	COMDAT ??_C@_04OCCKPHIM@?$MA?Z?$LN?E?$AA@
CONST	SEGMENT
??_C@_04OCCKPHIM@?$MA?Z?$LN?E?$AA@ DB 0c0H, 0daH, 0bdH, 0c5H, 00H ; `string'
CONST	ENDS
;	COMDAT ??_C@_08OHKEAHAF@?$LM?R?G?$LA?$LM?$LB?E?C?$AA@
CONST	SEGMENT
??_C@_08OHKEAHAF@?$LM?R?G?$LA?$LM?$LB?E?C?$AA@ DB 0bcH, 0d2H, 0c7H, 0b0H, 0bcH
	DB	0b1H, 0c5H, 0c3H, 00H			; `string'
CONST	ENDS
;	COMDAT ??_C@_08LLCHMLBO@?$MA?O?$LJ?$NN?$LA?x?$LA?$NN?$AA@
CONST	SEGMENT
??_C@_08LLCHMLBO@?$MA?O?$LJ?$NN?$LA?x?$LA?$NN?$AA@ DB 0c0H, 0cfH, 0b9H, 0ddH
	DB	0b0H, 0f8H, 0b0H, 0ddH, 00H			; `string'
CONST	ENDS
;	COMDAT ??_C@_08GGBOKOHL@?$LB?b?E?$LI?$LB?b?$LE?I?$AA@
CONST	SEGMENT
??_C@_08GGBOKOHL@?$LB?b?E?$LI?$LB?b?$LE?I?$AA@ DB 0b1H, 0e2H, 0c5H, 0b8H, 0b1H
	DB	0e2H, 0b4H, 0c9H, 00H			; `string'
CONST	ENDS
;	COMDAT ??_C@_06NJIACOMI@?R?$LB?N?y?U?t?$AA@
CONST	SEGMENT
??_C@_06NJIACOMI@?R?$LB?N?y?U?t?$AA@ DB 0d2H, 0b1H, 0ceH, 0f9H, 0d5H, 0f4H
	DB	00H						; `string'
CONST	ENDS
;	COMDAT ??_C@_09BACHGGGK@f?$DLencor1c?$AA@
CONST	SEGMENT
??_C@_09BACHGGGK@f?$DLencor1c?$AA@ DB 'f;encor1c', 00H	; `string'
CONST	ENDS
;	COMDAT ??_C@_03MNMCLLPK@?$PM?$NO?$DP?$AA@
CONST	SEGMENT
??_C@_03MNMCLLPK@?$PM?$NO?$DP?$AA@ DB 0fcH, 0deH, '?', 00H ; `string'
CONST	ENDS
;	COMDAT ??_C@_04MFANEHND@?$DP?$DP?$DP?$DP?$AA@
CONST	SEGMENT
??_C@_04MFANEHND@?$DP?$DP?$DP?$DP?$AA@ DB '????', 00H	; `string'
CONST	ENDS
;	COMDAT ??_C@_04EEBAFPAH@?$LE?q?$LB?$NL?$AA@
CONST	SEGMENT
??_C@_04EEBAFPAH@?$LE?q?$LB?$NL?$AA@ DB 0b4H, 0f1H, 0b1H, 0dbH, 00H ; `string'
CONST	ENDS
;	COMDAT ??_C@_06MPLPIMIC@?$LD?$LL?$LB?$LI?$LH?B?$AA@
CONST	SEGMENT
??_C@_06MPLPIMIC@?$LD?$LL?$LB?$LI?$LH?B?$AA@ DB 0b3H, 0bbH, 0b1H, 0b8H, 0b7H
	DB	0c2H, 00H					; `string'
CONST	ENDS
;	COMDAT ??_C@_02JDPG@rb?$AA@
CONST	SEGMENT
??_C@_02JDPG@rb?$AA@ DB 'rb', 00H			; `string'
CONST	ENDS
;	COMDAT ??_C@_02GMLFBBN@wb?$AA@
CONST	SEGMENT
??_C@_02GMLFBBN@wb?$AA@ DB 'wb', 00H			; `string'
CONST	ENDS
;	COMDAT ??_C@_0BD@PDHJLAOE@data?2AISetting?4dat?$AA@
CONST	SEGMENT
??_C@_0BD@PDHJLAOE@data?2AISetting?4dat?$AA@ DB 'data\AISetting.dat', 00H ; `string'
CONST	ENDS
;	COMDAT ??_C@_03HMFOOINA@r?$CLb?$AA@
CONST	SEGMENT
??_C@_03HMFOOINA@r?$CLb?$AA@ DB 'r+b', 00H		; `string'
CONST	ENDS
; Function compile flags: /Odtp /RTCsu /ZI
; File c:\users\administrator\desktop\????? ??\????? ??\client source code\system\ai_setting.cpp
;	COMDAT ?AI_OtherProc@@YAXXZ
_TEXT	SEGMENT
tv178 = -244						; size = 4
tv172 = -244						; size = 4
tv146 = -244						; size = 4
_id$1 = -44						; size = 4
_i$ = -32						; size = 4
_y$ = -20						; size = 4
_x$ = -8						; size = 4
?AI_OtherProc@@YAXXZ PROC				; AI_OtherProc, COMDAT

; 1982 : void AI_OtherProc(){

  00000	55		 push	 ebp
  00001	8b ec		 mov	 ebp, esp
  00003	81 ec f4 00 00
	00		 sub	 esp, 244		; 000000f4H
  00009	53		 push	 ebx
  0000a	56		 push	 esi
  0000b	57		 push	 edi
  0000c	8d bd 0c ff ff
	ff		 lea	 edi, DWORD PTR [ebp-244]
  00012	b9 3d 00 00 00	 mov	 ecx, 61			; 0000003dH
  00017	b8 cc cc cc cc	 mov	 eax, -858993460		; ccccccccH
  0001c	f3 ab		 rep stosd

; 1983 : 	static int btnId[AI_OTHER_BTN];
; 1984 : 	int x,y,i;
; 1985 : 	static char szFunctionName[AI_OTHER_BTN][12] = {"","ê³ ê¸°ë²„ë¦¬ê¸°"};
; 1986 : 	static char szFunctionSwitch[2][12] = {" ï¼®  ï¼¯ "," ï¼¹ï¼¥ï¼³ "};
; 1987 : 
; 1988 : 	if(pAIOtherFunctionWnd == NULL){

  0001e	83 3d 00 00 00
	00 00		 cmp	 DWORD PTR ?pAIOtherFunctionWnd@@3PAUaction@@A, 0 ; pAIOtherFunctionWnd
  00025	75 4b		 jne	 SHORT $LN7@AI_OtherPr

; 1989 : 		// è‹¥åœ¨æˆ˜æ–—ä¸­
; 1990 : 		if(ProcNo == PROC_BATTLE) pAIOtherFunctionWnd = MakeWindowDisp(413,150,3,2,NULL,1);

  00027	83 3d 00 00 00
	00 0a		 cmp	 DWORD PTR ?ProcNo@@3IA, 10 ; ProcNo, 0000000aH
  0002e	75 21		 jne	 SHORT $LN9@AI_OtherPr
  00030	6a 01		 push	 1
  00032	6a 00		 push	 0
  00034	6a 02		 push	 2
  00036	6a 03		 push	 3
  00038	68 96 00 00 00	 push	 150			; 00000096H
  0003d	68 9d 01 00 00	 push	 413			; 0000019dH
  00042	e8 00 00 00 00	 call	 ?MakeWindowDisp@@YAPAUaction@@HHHHHH@Z ; MakeWindowDisp
  00047	83 c4 18	 add	 esp, 24			; 00000018H
  0004a	a3 00 00 00 00	 mov	 DWORD PTR ?pAIOtherFunctionWnd@@3PAUaction@@A, eax ; pAIOtherFunctionWnd
  0004f	eb 1c		 jmp	 SHORT $LN10@AI_OtherPr
$LN9@AI_OtherPr:

; 1991 : 		else pAIOtherFunctionWnd = MakeWindowDisp(413,0,3,2,NULL,1);

  00051	6a 01		 push	 1
  00053	6a 00		 push	 0
  00055	6a 02		 push	 2
  00057	6a 03		 push	 3
  00059	6a 00		 push	 0
  0005b	68 9d 01 00 00	 push	 413			; 0000019dH
  00060	e8 00 00 00 00	 call	 ?MakeWindowDisp@@YAPAUaction@@HHHHHH@Z ; MakeWindowDisp
  00065	83 c4 18	 add	 esp, 24			; 00000018H
  00068	a3 00 00 00 00	 mov	 DWORD PTR ?pAIOtherFunctionWnd@@3PAUaction@@A, eax ; pAIOtherFunctionWnd
$LN10@AI_OtherPr:

; 1992 : 	}
; 1993 : 	else{

  0006d	e9 ed 01 00 00	 jmp	 $LN1@AI_OtherPr
$LN7@AI_OtherPr:

; 1994 : 		if(pAIOtherFunctionWnd->hp >= 1 ){

  00072	a1 00 00 00 00	 mov	 eax, DWORD PTR ?pAIOtherFunctionWnd@@3PAUaction@@A ; pAIOtherFunctionWnd
  00077	83 78 78 01	 cmp	 DWORD PTR [eax+120], 1
  0007b	0f 8c de 01 00
	00		 jl	 $LN1@AI_OtherPr

; 1995 : 			if(joy_trg[0] & JOY_ESC){

  00081	b8 04 00 00 00	 mov	 eax, 4
  00086	6b c8 00	 imul	 ecx, eax, 0
  00089	8b 91 00 00 00
	00		 mov	 edx, DWORD PTR ?joy_trg@@3PAKA[ecx]
  0008f	81 e2 00 00 00
	80		 and	 edx, -2147483648	; 80000000H
  00095	74 27		 je	 SHORT $LN12@AI_OtherPr

; 1996 : 				DeathAction(pAIOtherFunctionWnd);

  00097	a1 00 00 00 00	 mov	 eax, DWORD PTR ?pAIOtherFunctionWnd@@3PAUaction@@A ; pAIOtherFunctionWnd
  0009c	50		 push	 eax
  0009d	e8 00 00 00 00	 call	 ?DeathAction@@YAXPAUaction@@@Z ; DeathAction
  000a2	83 c4 04	 add	 esp, 4

; 1997 : 				pAIOtherFunctionWnd = NULL;

  000a5	c7 05 00 00 00
	00 00 00 00 00	 mov	 DWORD PTR ?pAIOtherFunctionWnd@@3PAUaction@@A, 0 ; pAIOtherFunctionWnd

; 1998 : 				AI_Other_State = 0;

  000af	c7 05 00 00 00
	00 00 00 00 00	 mov	 DWORD PTR ?AI_Other_State@@3HA, 0 ; AI_Other_State

; 1999 : 				return;

  000b9	e9 a1 01 00 00	 jmp	 $LN1@AI_OtherPr
$LN12@AI_OtherPr:

; 2000 : 			}
; 2001 : 			x = pAIOtherFunctionWnd->x;

  000be	a1 00 00 00 00	 mov	 eax, DWORD PTR ?pAIOtherFunctionWnd@@3PAUaction@@A ; pAIOtherFunctionWnd
  000c3	8b 48 18	 mov	 ecx, DWORD PTR [eax+24]
  000c6	89 4d f8	 mov	 DWORD PTR _x$[ebp], ecx

; 2002 : 			y = pAIOtherFunctionWnd->y;

  000c9	a1 00 00 00 00	 mov	 eax, DWORD PTR ?pAIOtherFunctionWnd@@3PAUaction@@A ; pAIOtherFunctionWnd
  000ce	8b 48 1c	 mov	 ecx, DWORD PTR [eax+28]
  000d1	89 4d ec	 mov	 DWORD PTR _y$[ebp], ecx

; 2003 : 			for(i=1;i<AI_OTHER_BTN;i++){

  000d4	c7 45 e0 01 00
	00 00		 mov	 DWORD PTR _i$[ebp], 1
  000db	eb 09		 jmp	 SHORT $LN4@AI_OtherPr
$LN2@AI_OtherPr:
  000dd	8b 45 e0	 mov	 eax, DWORD PTR _i$[ebp]
  000e0	83 c0 01	 add	 eax, 1
  000e3	89 45 e0	 mov	 DWORD PTR _i$[ebp], eax
$LN4@AI_OtherPr:
  000e6	83 7d e0 02	 cmp	 DWORD PTR _i$[ebp], 2
  000ea	0f 8d 90 00 00
	00		 jge	 $LN3@AI_OtherPr

; 2004 : 				StockFontBuffer(x+25,y+i*20,FONT_PRIO_FRONT,FONT_PAL_WHITE,szFunctionName[i],0);

  000f0	6a 00		 push	 0
  000f2	6b 45 e0 0c	 imul	 eax, DWORD PTR _i$[ebp], 12
  000f6	05 00 00 00 00	 add	 eax, OFFSET ?szFunctionName@?1??AI_OtherProc@@YAXXZ@4PAY0M@DA
  000fb	50		 push	 eax
  000fc	6a 00		 push	 0
  000fe	6a 01		 push	 1
  00100	6b 4d e0 14	 imul	 ecx, DWORD PTR _i$[ebp], 20
  00104	03 4d ec	 add	 ecx, DWORD PTR _y$[ebp]
  00107	51		 push	 ecx
  00108	8b 55 f8	 mov	 edx, DWORD PTR _x$[ebp]
  0010b	83 c2 19	 add	 edx, 25			; 00000019H
  0010e	52		 push	 edx
  0010f	e8 00 00 00 00	 call	 ?StockFontBuffer@@YAHHHDHPADH@Z ; StockFontBuffer
  00114	83 c4 18	 add	 esp, 24			; 00000018H

; 2005 : 				btnId[i] = StockFontBuffer(x+100,y+i*20,FONT_PRIO_FRONT,FONT_PAL_WHITE,

  00117	8b 45 e0	 mov	 eax, DWORD PTR _i$[ebp]
  0011a	83 3c 85 fc ff
	ff ff 00	 cmp	 DWORD PTR ?AI_OtherSetting@@3PAHA[eax*4-4], 0
  00122	74 16		 je	 SHORT $LN17@AI_OtherPr
  00124	b9 0c 00 00 00	 mov	 ecx, 12			; 0000000cH
  00129	c1 e1 00	 shl	 ecx, 0
  0012c	81 c1 00 00 00
	00		 add	 ecx, OFFSET ?szFunctionSwitch@?1??AI_OtherProc@@YAXXZ@4PAY0M@DA
  00132	89 8d 0c ff ff
	ff		 mov	 DWORD PTR tv146[ebp], ecx
  00138	eb 13		 jmp	 SHORT $LN18@AI_OtherPr
$LN17@AI_OtherPr:
  0013a	ba 0c 00 00 00	 mov	 edx, 12			; 0000000cH
  0013f	6b c2 00	 imul	 eax, edx, 0
  00142	05 00 00 00 00	 add	 eax, OFFSET ?szFunctionSwitch@?1??AI_OtherProc@@YAXXZ@4PAY0M@DA
  00147	89 85 0c ff ff
	ff		 mov	 DWORD PTR tv146[ebp], eax
$LN18@AI_OtherPr:
  0014d	6a 02		 push	 2
  0014f	8b 8d 0c ff ff
	ff		 mov	 ecx, DWORD PTR tv146[ebp]
  00155	51		 push	 ecx
  00156	6a 00		 push	 0
  00158	6a 01		 push	 1
  0015a	6b 55 e0 14	 imul	 edx, DWORD PTR _i$[ebp], 20
  0015e	03 55 ec	 add	 edx, DWORD PTR _y$[ebp]
  00161	52		 push	 edx
  00162	8b 45 f8	 mov	 eax, DWORD PTR _x$[ebp]
  00165	83 c0 64	 add	 eax, 100		; 00000064H
  00168	50		 push	 eax
  00169	e8 00 00 00 00	 call	 ?StockFontBuffer@@YAHHHDHPADH@Z ; StockFontBuffer
  0016e	83 c4 18	 add	 esp, 24			; 00000018H
  00171	8b 4d e0	 mov	 ecx, DWORD PTR _i$[ebp]
  00174	89 04 8d 00 00
	00 00		 mov	 DWORD PTR ?btnId@?1??AI_OtherProc@@YAXXZ@4PAHA[ecx*4], eax

; 2006 : 																	 AI_OtherSetting[i-1]?szFunctionSwitch[1]:szFunctionSwitch[0],2);
; 2007 : 			}

  0017b	e9 5d ff ff ff	 jmp	 $LN2@AI_OtherPr
$LN3@AI_OtherPr:

; 2008 : 			btnId[0] = StockDispBuffer(x+100,y+(i+1)*20,DISP_PRIO_IME3,26042,2);

  00180	6a 02		 push	 2
  00182	68 ba 65 00 00	 push	 26042			; 000065baH
  00187	6a 69		 push	 105			; 00000069H
  00189	8b 45 e0	 mov	 eax, DWORD PTR _i$[ebp]
  0018c	83 c0 01	 add	 eax, 1
  0018f	6b c8 14	 imul	 ecx, eax, 20
  00192	03 4d ec	 add	 ecx, DWORD PTR _y$[ebp]
  00195	51		 push	 ecx
  00196	8b 55 f8	 mov	 edx, DWORD PTR _x$[ebp]
  00199	83 c2 64	 add	 edx, 100		; 00000064H
  0019c	52		 push	 edx
  0019d	e8 00 00 00 00	 call	 ?StockDispBuffer@@YAHHHEHH@Z ; StockDispBuffer
  001a2	83 c4 14	 add	 esp, 20			; 00000014H
  001a5	b9 04 00 00 00	 mov	 ecx, 4
  001aa	6b d1 00	 imul	 edx, ecx, 0
  001ad	89 82 00 00 00
	00		 mov	 DWORD PTR ?btnId@?1??AI_OtherProc@@YAXXZ@4PAHA[edx], eax

; 2009 : 
; 2010 : 			if(mouse.onceState & MOUSE_LEFT_CRICK){

  001b3	a1 2c 00 00 00	 mov	 eax, DWORD PTR ?mouse@@3UMOUSE@@A+44
  001b8	83 e0 01	 and	 eax, 1
  001bb	0f 84 9e 00 00
	00		 je	 $LN1@AI_OtherPr

; 2011 : 				int id;
; 2012 : 				id = selFontId(btnId,sizeof(btnId)/sizeof(int));

  001c1	6a 02		 push	 2
  001c3	68 00 00 00 00	 push	 OFFSET ?btnId@?1??AI_OtherProc@@YAXXZ@4PAHA
  001c8	e8 00 00 00 00	 call	 ?selFontId@@YAHPAHH@Z	; selFontId
  001cd	83 c4 08	 add	 esp, 8
  001d0	89 45 d4	 mov	 DWORD PTR _id$1[ebp], eax

; 2013 : 				switch(id){

  001d3	8b 45 d4	 mov	 eax, DWORD PTR _id$1[ebp]
  001d6	89 85 0c ff ff
	ff		 mov	 DWORD PTR tv172[ebp], eax
  001dc	83 bd 0c ff ff
	ff 01		 cmp	 DWORD PTR tv172[ebp], 1
  001e3	74 02		 je	 SHORT $LN14@AI_OtherPr
  001e5	eb 3b		 jmp	 SHORT $LN5@AI_OtherPr
$LN14@AI_OtherPr:

; 2014 : 				// è‡ªåŠ¨ä¸¢è‚‰
; 2015 : 				case 1:
; 2016 : 					AI_OtherSetting[0] = !AI_OtherSetting[0];

  001e7	b8 04 00 00 00	 mov	 eax, 4
  001ec	6b c8 00	 imul	 ecx, eax, 0
  001ef	83 b9 00 00 00
	00 00		 cmp	 DWORD PTR ?AI_OtherSetting@@3PAHA[ecx], 0
  001f6	75 0c		 jne	 SHORT $LN19@AI_OtherPr
  001f8	c7 85 0c ff ff
	ff 01 00 00 00	 mov	 DWORD PTR tv178[ebp], 1
  00202	eb 0a		 jmp	 SHORT $LN20@AI_OtherPr
$LN19@AI_OtherPr:
  00204	c7 85 0c ff ff
	ff 00 00 00 00	 mov	 DWORD PTR tv178[ebp], 0
$LN20@AI_OtherPr:
  0020e	ba 04 00 00 00	 mov	 edx, 4
  00213	6b c2 00	 imul	 eax, edx, 0
  00216	8b 8d 0c ff ff
	ff		 mov	 ecx, DWORD PTR tv178[ebp]
  0021c	89 88 00 00 00
	00		 mov	 DWORD PTR ?AI_OtherSetting@@3PAHA[eax], ecx
$LN5@AI_OtherPr:

; 2017 : 					break;
; 2018 : 				}
; 2019 : 				// å…³é—­
; 2020 : 				if(HitDispNo == btnId[0]){

  00222	b8 04 00 00 00	 mov	 eax, 4
  00227	6b c8 00	 imul	 ecx, eax, 0
  0022a	8b 15 00 00 00
	00		 mov	 edx, DWORD PTR ?HitDispNo@@3HA ; HitDispNo
  00230	3b 91 00 00 00
	00		 cmp	 edx, DWORD PTR ?btnId@?1??AI_OtherProc@@YAXXZ@4PAHA[ecx]
  00236	75 27		 jne	 SHORT $LN1@AI_OtherPr

; 2021 : 					DeathAction(pAIOtherFunctionWnd);

  00238	a1 00 00 00 00	 mov	 eax, DWORD PTR ?pAIOtherFunctionWnd@@3PAUaction@@A ; pAIOtherFunctionWnd
  0023d	50		 push	 eax
  0023e	e8 00 00 00 00	 call	 ?DeathAction@@YAXPAUaction@@@Z ; DeathAction
  00243	83 c4 04	 add	 esp, 4

; 2022 : 					pAIOtherFunctionWnd = NULL;

  00246	c7 05 00 00 00
	00 00 00 00 00	 mov	 DWORD PTR ?pAIOtherFunctionWnd@@3PAUaction@@A, 0 ; pAIOtherFunctionWnd

; 2023 : 					AI_Other_State = 0;

  00250	c7 05 00 00 00
	00 00 00 00 00	 mov	 DWORD PTR ?AI_Other_State@@3HA, 0 ; AI_Other_State

; 2024 : 					AI_Save();

  0025a	e8 00 00 00 00	 call	 ?AI_Save@@YAHXZ		; AI_Save
$LN1@AI_OtherPr:

; 2025 : 				}
; 2026 : 			}
; 2027 : 		}
; 2028 : 	}
; 2029 : }

  0025f	5f		 pop	 edi
  00260	5e		 pop	 esi
  00261	5b		 pop	 ebx
  00262	81 c4 f4 00 00
	00		 add	 esp, 244		; 000000f4H
  00268	3b ec		 cmp	 ebp, esp
  0026a	e8 00 00 00 00	 call	 __RTC_CheckEsp
  0026f	8b e5		 mov	 esp, ebp
  00271	5d		 pop	 ebp
  00272	c3		 ret	 0
?AI_OtherProc@@YAXXZ ENDP				; AI_OtherProc
_TEXT	ENDS
; Function compile flags: /Odtp /RTCsu /ZI
; File c:\users\administrator\desktop\????? ??\????? ??\client source code\system\ai_setting.cpp
;	COMDAT ?AI_CloseWnd@@YAXXZ
_TEXT	SEGMENT
?AI_CloseWnd@@YAXXZ PROC				; AI_CloseWnd, COMDAT

; 1945 : {

  00000	55		 push	 ebp
  00001	8b ec		 mov	 ebp, esp
  00003	81 ec c0 00 00
	00		 sub	 esp, 192		; 000000c0H
  00009	53		 push	 ebx
  0000a	56		 push	 esi
  0000b	57		 push	 edi
  0000c	8d bd 40 ff ff
	ff		 lea	 edi, DWORD PTR [ebp-192]
  00012	b9 30 00 00 00	 mov	 ecx, 48			; 00000030H
  00017	b8 cc cc cc cc	 mov	 eax, -858993460		; ccccccccH
  0001c	f3 ab		 rep stosd

; 1946 : #ifdef _NB_æ–­çº¿è‡ªåŠ¨é‡è¿ž
; 1947 : 	extern BOOL è‡ªåŠ¨ç™»é™†çª—å£;
; 1948 : 	extern ACTION *pè‡ªåŠ¨ç™»é™†çª—å£;
; 1949 : 	extern ACTION *æ–¹å‘åŠ¨ä½œ;
; 1950 : 	extern ACTION *äººç‰©åŠ¨ä½œ;
; 1951 : 	è‡ªåŠ¨ç™»é™†çª—å£=0;

  0001e	c7 05 00 00 00
	00 00 00 00 00	 mov	 DWORD PTR ?×Ô¶¯µÇÂ½´°¿Ú@@3HA, 0 ; ×Ô¶¯µÇÂ½´°¿Ú

; 1952 : 	if(pè‡ªåŠ¨ç™»é™†çª—å£){

  00028	83 3d 00 00 00
	00 00		 cmp	 DWORD PTR ?p×Ô¶¯µÇÂ½´°¿Ú@@3PAUaction@@A, 0 ; p×Ô¶¯µÇÂ½´°¿Ú
  0002f	74 18		 je	 SHORT $LN2@AI_CloseWn

; 1953 : 		DeathAction(pè‡ªåŠ¨ç™»é™†çª—å£);

  00031	a1 00 00 00 00	 mov	 eax, DWORD PTR ?p×Ô¶¯µÇÂ½´°¿Ú@@3PAUaction@@A ; p×Ô¶¯µÇÂ½´°¿Ú
  00036	50		 push	 eax
  00037	e8 00 00 00 00	 call	 ?DeathAction@@YAXPAUaction@@@Z ; DeathAction
  0003c	83 c4 04	 add	 esp, 4

; 1954 : 		pè‡ªåŠ¨ç™»é™†çª—å£=NULL;

  0003f	c7 05 00 00 00
	00 00 00 00 00	 mov	 DWORD PTR ?p×Ô¶¯µÇÂ½´°¿Ú@@3PAUaction@@A, 0 ; p×Ô¶¯µÇÂ½´°¿Ú
$LN2@AI_CloseWn:

; 1955 : 	}
; 1956 : 	if((int)æ–¹å‘åŠ¨ä½œ){

  00049	83 3d 00 00 00
	00 00		 cmp	 DWORD PTR ?·½Ïò¶¯×÷@@3PAUaction@@A, 0 ; ·½Ïò¶¯×÷
  00050	74 48		 je	 SHORT $LN3@AI_CloseWn

; 1957 : 		if((int)æ–¹å‘åŠ¨ä½œ>1000)

  00052	81 3d 00 00 00
	00 e8 03 00 00	 cmp	 DWORD PTR ?·½Ïò¶¯×÷@@3PAUaction@@A, 1000 ; ·½Ïò¶¯×÷, 000003e8H
  0005c	7e 0e		 jle	 SHORT $LN4@AI_CloseWn

; 1958 : 			DeathAction(æ–¹å‘åŠ¨ä½œ);

  0005e	a1 00 00 00 00	 mov	 eax, DWORD PTR ?·½Ïò¶¯×÷@@3PAUaction@@A ; ·½Ïò¶¯×÷
  00063	50		 push	 eax
  00064	e8 00 00 00 00	 call	 ?DeathAction@@YAXPAUaction@@@Z ; DeathAction
  00069	83 c4 04	 add	 esp, 4
$LN4@AI_CloseWn:

; 1959 : 		æ–¹å‘åŠ¨ä½œ=NULL;

  0006c	c7 05 00 00 00
	00 00 00 00 00	 mov	 DWORD PTR ?·½Ïò¶¯×÷@@3PAUaction@@A, 0 ; ·½Ïò¶¯×÷

; 1960 : 		if((int)äººç‰©åŠ¨ä½œ>1000)

  00076	81 3d 00 00 00
	00 e8 03 00 00	 cmp	 DWORD PTR ?ÈËÎï¶¯×÷@@3PAUaction@@A, 1000 ; ÈËÎï¶¯×÷, 000003e8H
  00080	7e 0e		 jle	 SHORT $LN5@AI_CloseWn

; 1961 : 			DeathAction(äººç‰©åŠ¨ä½œ);

  00082	a1 00 00 00 00	 mov	 eax, DWORD PTR ?ÈËÎï¶¯×÷@@3PAUaction@@A ; ÈËÎï¶¯×÷
  00087	50		 push	 eax
  00088	e8 00 00 00 00	 call	 ?DeathAction@@YAXPAUaction@@@Z ; DeathAction
  0008d	83 c4 04	 add	 esp, 4
$LN5@AI_CloseWn:

; 1962 : 		äººç‰©åŠ¨ä½œ=NULL;	

  00090	c7 05 00 00 00
	00 00 00 00 00	 mov	 DWORD PTR ?ÈËÎï¶¯×÷@@3PAUaction@@A, 0 ; ÈËÎï¶¯×÷
$LN3@AI_CloseWn:

; 1963 : 	}
; 1964 : #endif
; 1965 : 
; 1966 : 	AI_State = 0;

  0009a	c7 05 00 00 00
	00 00 00 00 00	 mov	 DWORD PTR ?AI_State@@3HA, 0 ; AI_State

; 1967 : 	if( pAISettingWnd){

  000a4	83 3d 00 00 00
	00 00		 cmp	 DWORD PTR ?pAISettingWnd@@3PAUaction@@A, 0 ; pAISettingWnd
  000ab	74 18		 je	 SHORT $LN6@AI_CloseWn

; 1968 : 		DeathAction( pAISettingWnd );

  000ad	a1 00 00 00 00	 mov	 eax, DWORD PTR ?pAISettingWnd@@3PAUaction@@A ; pAISettingWnd
  000b2	50		 push	 eax
  000b3	e8 00 00 00 00	 call	 ?DeathAction@@YAXPAUaction@@@Z ; DeathAction
  000b8	83 c4 04	 add	 esp, 4

; 1969 : 		pAISettingWnd = NULL;

  000bb	c7 05 00 00 00
	00 00 00 00 00	 mov	 DWORD PTR ?pAISettingWnd@@3PAUaction@@A, 0 ; pAISettingWnd
$LN6@AI_CloseWn:

; 1970 : 	}
; 1971 : #ifdef _AI_OTHER
; 1972 : 	if(pAIOtherFunctionWnd){

  000c5	83 3d 00 00 00
	00 00		 cmp	 DWORD PTR ?pAIOtherFunctionWnd@@3PAUaction@@A, 0 ; pAIOtherFunctionWnd
  000cc	74 22		 je	 SHORT $LN1@AI_CloseWn

; 1973 : 		DeathAction(pAIOtherFunctionWnd);

  000ce	a1 00 00 00 00	 mov	 eax, DWORD PTR ?pAIOtherFunctionWnd@@3PAUaction@@A ; pAIOtherFunctionWnd
  000d3	50		 push	 eax
  000d4	e8 00 00 00 00	 call	 ?DeathAction@@YAXPAUaction@@@Z ; DeathAction
  000d9	83 c4 04	 add	 esp, 4

; 1974 : 		pAIOtherFunctionWnd = NULL;

  000dc	c7 05 00 00 00
	00 00 00 00 00	 mov	 DWORD PTR ?pAIOtherFunctionWnd@@3PAUaction@@A, 0 ; pAIOtherFunctionWnd

; 1975 : 		AI_Other_State = 0;

  000e6	c7 05 00 00 00
	00 00 00 00 00	 mov	 DWORD PTR ?AI_Other_State@@3HA, 0 ; AI_Other_State
$LN1@AI_CloseWn:

; 1976 : 	}
; 1977 : #endif
; 1978 : }

  000f0	5f		 pop	 edi
  000f1	5e		 pop	 esi
  000f2	5b		 pop	 ebx
  000f3	81 c4 c0 00 00
	00		 add	 esp, 192		; 000000c0H
  000f9	3b ec		 cmp	 ebp, esp
  000fb	e8 00 00 00 00	 call	 __RTC_CheckEsp
  00100	8b e5		 mov	 esp, ebp
  00102	5d		 pop	 ebp
  00103	c3		 ret	 0
?AI_CloseWnd@@YAXXZ ENDP				; AI_CloseWnd
_TEXT	ENDS
; Function compile flags: /Odtp /RTCsu /ZI
; File c:\users\administrator\desktop\????? ??\????? ??\client source code\system\ai_setting.cpp
;	COMDAT ?AI_ChooseAction@@YAXXZ
_TEXT	SEGMENT
tv757 = -560						; size = 4
tv436 = -560						; size = 4
tv169 = -560						; size = 4
tv159 = -560						; size = 4
tv148 = -560						; size = 4
_i$1 = -360						; size = 4
_i$2 = -348						; size = 4
_skill_id$3 = -336					; size = 4
_targetNo$4 = -324					; size = 4
_mp_enough$5 = -312					; size = 4
_i$6 = -300						; size = 4
_method$7 = -288					; size = 4
_i$8 = -276						; size = 4
_target$9 = -264					; size = 4
_end$10 = -252						; size = 4
_start$11 = -240					; size = 4
_method$12 = -228					; size = 4
_method$13 = -216					; size = 4
_i$14 = -204						; size = 4
_meat$15 = -192						; size = 4
_target$16 = -180					; size = 4
_item_id$17 = -168					; size = 4
_magic_id$18 = -156					; size = 4
_ret$19 = -144						; size = 4
_mp_enough$20 = -132					; size = 4
_method$21 = -120					; size = 4
_moji$ = -108						; size = 64
_targetNo$ = -36					; size = 4
_done$ = -24						; size = 4
_str$ = -12						; size = 4
__$ArrayPad$ = -4					; size = 4
?AI_ChooseAction@@YAXXZ PROC				; AI_ChooseAction, COMDAT

; 1538 : {

  00000	55		 push	 ebp
  00001	8b ec		 mov	 ebp, esp
  00003	81 ec 30 02 00
	00		 sub	 esp, 560		; 00000230H
  00009	53		 push	 ebx
  0000a	56		 push	 esi
  0000b	57		 push	 edi
  0000c	8d bd d0 fd ff
	ff		 lea	 edi, DWORD PTR [ebp-560]
  00012	b9 8c 00 00 00	 mov	 ecx, 140		; 0000008cH
  00017	b8 cc cc cc cc	 mov	 eax, -858993460		; ccccccccH
  0001c	f3 ab		 rep stosd
  0001e	a1 00 00 00 00	 mov	 eax, DWORD PTR ___security_cookie
  00023	33 c5		 xor	 eax, ebp
  00025	89 45 fc	 mov	 DWORD PTR __$ArrayPad$[ebp], eax

; 1539 : 	char *str;
; 1540 : 	BOOL done = 0;

  00028	c7 45 e8 00 00
	00 00		 mov	 DWORD PTR _done$[ebp], 0

; 1541 : 	int targetNo = -1;

  0002f	c7 45 dc ff ff
	ff ff		 mov	 DWORD PTR _targetNo$[ebp], -1

; 1542 : 	char moji[64];
; 1543 : 	//battlePlayerEscFlag = FALSE;
; 1544 : 	//è§‚æˆ˜ä¸­
; 1545 : 	if( BattleMyNo >= 20 ){

  00036	83 3d 00 00 00
	00 14		 cmp	 DWORD PTR ?BattleMyNo@@3HA, 20 ; BattleMyNo, 00000014H
  0003d	7c 48		 jl	 SHORT $LN30@AI_ChooseA

; 1546 : 		if( bNewServer)

  0003f	83 3d 00 00 00
	00 00		 cmp	 DWORD PTR ?bNewServer@@3HA, 0 ; bNewServer
  00046	74 15		 je	 SHORT $LN31@AI_ChooseA

; 1547 : 			lssproto_B_send( sockfd, "N" );

  00048	68 00 00 00 00	 push	 OFFSET ??_C@_01NANMIPIL@N?$AA@
  0004d	a1 00 00 00 00	 mov	 eax, DWORD PTR ?sockfd@@3IA ; sockfd
  00052	50		 push	 eax
  00053	e8 00 00 00 00	 call	 ?lssproto_B_send@@YAXHPAD@Z ; lssproto_B_send
  00058	83 c4 08	 add	 esp, 8

; 1548 : 		else

  0005b	eb 13		 jmp	 SHORT $LN32@AI_ChooseA
$LN31@AI_ChooseA:

; 1549 : 			old_lssproto_B_send( sockfd, "N" );

  0005d	68 00 00 00 00	 push	 OFFSET ??_C@_01NANMIPIL@N?$AA@
  00062	a1 00 00 00 00	 mov	 eax, DWORD PTR ?sockfd@@3IA ; sockfd
  00067	50		 push	 eax
  00068	e8 00 00 00 00	 call	 ?old_lssproto_B_send@@YAXHPAD@Z ; old_lssproto_B_send
  0006d	83 c4 08	 add	 esp, 8
$LN32@AI_ChooseA:

; 1550 : 		extern void InitBattleAnimFlag();
; 1551 : 		InitBattleAnimFlag();

  00070	e8 00 00 00 00	 call	 ?InitBattleAnimFlag@@YAXXZ ; InitBattleAnimFlag

; 1552 : 		SubProcNo++;

  00075	a1 00 00 00 00	 mov	 eax, DWORD PTR ?SubProcNo@@3IA ; SubProcNo
  0007a	83 c0 01	 add	 eax, 1
  0007d	a3 00 00 00 00	 mov	 DWORD PTR ?SubProcNo@@3IA, eax ; SubProcNo

; 1553 : 		return;

  00082	e9 32 13 00 00	 jmp	 $LN1@AI_ChooseA
$LN30@AI_ChooseA:

; 1554 : 	}
; 1555 : 	if( p_party[ BattleMyNo ]->hp <= 0 ||

  00087	a1 00 00 00 00	 mov	 eax, DWORD PTR ?BattleMyNo@@3HA ; BattleMyNo
  0008c	8b 0c 85 00 00
	00 00		 mov	 ecx, DWORD PTR ?p_party@@3PAPAUaction@@A[eax*4]
  00093	83 79 78 00	 cmp	 DWORD PTR [ecx+120], 0
  00097	7e 0a		 jle	 SHORT $LN35@AI_ChooseA
  00099	a1 00 00 00 00	 mov	 eax, DWORD PTR ?BattleBpFlag@@3HA ; BattleBpFlag
  0009e	83 e0 02	 and	 eax, 2
  000a1	74 40		 je	 SHORT $LN33@AI_ChooseA
$LN35@AI_ChooseA:

; 1556 : 		BattleBpFlag & BATTLE_BP_PLAYER_MENU_NON ){
; 1557 : 		if( BattleBpFlag & BATTLE_BP_PLAYER_MENU_NON ){

  000a3	a1 00 00 00 00	 mov	 eax, DWORD PTR ?BattleBpFlag@@3HA ; BattleBpFlag
  000a8	83 e0 02	 and	 eax, 2
  000ab	74 31		 je	 SHORT $LN36@AI_ChooseA

; 1558 : 			if( bNewServer)

  000ad	83 3d 00 00 00
	00 00		 cmp	 DWORD PTR ?bNewServer@@3HA, 0 ; bNewServer
  000b4	74 15		 je	 SHORT $LN37@AI_ChooseA

; 1559 : 				lssproto_B_send( sockfd, "N" );

  000b6	68 00 00 00 00	 push	 OFFSET ??_C@_01NANMIPIL@N?$AA@
  000bb	a1 00 00 00 00	 mov	 eax, DWORD PTR ?sockfd@@3IA ; sockfd
  000c0	50		 push	 eax
  000c1	e8 00 00 00 00	 call	 ?lssproto_B_send@@YAXHPAD@Z ; lssproto_B_send
  000c6	83 c4 08	 add	 esp, 8

; 1560 : 			else

  000c9	eb 13		 jmp	 SHORT $LN36@AI_ChooseA
$LN37@AI_ChooseA:

; 1561 : 				old_lssproto_B_send( sockfd, "N" );

  000cb	68 00 00 00 00	 push	 OFFSET ??_C@_01NANMIPIL@N?$AA@
  000d0	a1 00 00 00 00	 mov	 eax, DWORD PTR ?sockfd@@3IA ; sockfd
  000d5	50		 push	 eax
  000d6	e8 00 00 00 00	 call	 ?old_lssproto_B_send@@YAXHPAD@Z ; old_lssproto_B_send
  000db	83 c4 08	 add	 esp, 8
$LN36@AI_ChooseA:

; 1562 : 		}
; 1563 : 	}else{

  000de	e9 a4 0f 00 00	 jmp	 $LN34@AI_ChooseA
$LN33@AI_ChooseA:

; 1564 : 		if( AI_First){//ç¬¬ä¸€æ¬¡

  000e3	83 3d 00 00 00
	00 00		 cmp	 DWORD PTR ?AI_First@@3HA, 0 ; AI_First
  000ea	0f 84 f6 02 00
	00		 je	 $LN39@AI_ChooseA

; 1565 : 			AI_First = 0;

  000f0	c7 05 00 00 00
	00 00 00 00 00	 mov	 DWORD PTR ?AI_First@@3HA, 0 ; AI_First

; 1566 : 			int method = AI_method[2];

  000fa	b8 04 00 00 00	 mov	 eax, 4
  000ff	d1 e0		 shl	 eax, 1
  00101	8b 88 00 00 00
	00		 mov	 ecx, DWORD PTR ?AI_method@@3PAHA[eax]
  00107	89 4d 88	 mov	 DWORD PTR _method$21[ebp], ecx

; 1567 : #ifdef _AI_NEW_FIRST
; 1568 : 			if(bFirstFlag == false){

  0010a	0f b6 05 00 00
	00 00		 movzx	 eax, BYTE PTR ?bFirstFlag@@3_NA ; bFirstFlag
  00111	85 c0		 test	 eax, eax
  00113	0f 85 71 02 00
	00		 jne	 $LN40@AI_ChooseA

; 1569 : #endif
; 1570 : 				if( method>-1 && method<MAX_MAGIC && magic[method].useFlag){

  00119	83 7d 88 ff	 cmp	 DWORD PTR _method$21[ebp], -1
  0011d	0f 8e 65 02 00
	00		 jle	 $LN42@AI_ChooseA
  00123	83 7d 88 09	 cmp	 DWORD PTR _method$21[ebp], 9
  00127	0f 8d 5b 02 00
	00		 jge	 $LN42@AI_ChooseA
  0012d	6b 45 88 70	 imul	 eax, DWORD PTR _method$21[ebp], 112
  00131	0f bf 88 00 00
	00 00		 movsx	 ecx, WORD PTR ?magic@@3PAUMAGIC@@A[eax]
  00138	85 c9		 test	 ecx, ecx
  0013a	0f 84 48 02 00
	00		 je	 $LN42@AI_ChooseA

; 1571 : 					BOOL mp_enough = TRUE;

  00140	c7 85 7c ff ff
	ff 01 00 00 00	 mov	 DWORD PTR _mp_enough$20[ebp], 1

; 1572 : 					if( pc.familySprite == 0){

  0014a	83 3d 4c 51 00
	00 00		 cmp	 DWORD PTR ?pc@@3UPC@@A+20812, 0
  00151	75 34		 jne	 SHORT $LN43@AI_ChooseA

; 1573 : 						if( (magic[method].mp*80/100) > p_party[BattleMyNo]->mp )

  00153	6b 45 88 70	 imul	 eax, DWORD PTR _method$21[ebp], 112
  00157	6b 80 04 00 00
	00 50		 imul	 eax, DWORD PTR ?magic@@3PAUMAGIC@@A[eax+4], 80
  0015e	99		 cdq
  0015f	b9 64 00 00 00	 mov	 ecx, 100		; 00000064H
  00164	f7 f9		 idiv	 ecx
  00166	8b 15 00 00 00
	00		 mov	 edx, DWORD PTR ?BattleMyNo@@3HA ; BattleMyNo
  0016c	8b 0c 95 00 00
	00 00		 mov	 ecx, DWORD PTR ?p_party@@3PAPAUaction@@A[edx*4]
  00173	3b 81 84 00 00
	00		 cmp	 eax, DWORD PTR [ecx+132]
  00179	7e 0a		 jle	 SHORT $LN45@AI_ChooseA

; 1574 : 							mp_enough = FALSE;

  0017b	c7 85 7c ff ff
	ff 00 00 00 00	 mov	 DWORD PTR _mp_enough$20[ebp], 0
$LN45@AI_ChooseA:

; 1575 : 					}else{

  00185	eb 29		 jmp	 SHORT $LN44@AI_ChooseA
$LN43@AI_ChooseA:

; 1576 : 						if( magic[method].mp > p_party[BattleMyNo]->mp )

  00187	6b 45 88 70	 imul	 eax, DWORD PTR _method$21[ebp], 112
  0018b	8b 0d 00 00 00
	00		 mov	 ecx, DWORD PTR ?BattleMyNo@@3HA ; BattleMyNo
  00191	8b 14 8d 00 00
	00 00		 mov	 edx, DWORD PTR ?p_party@@3PAPAUaction@@A[ecx*4]
  00198	8b 80 04 00 00
	00		 mov	 eax, DWORD PTR ?magic@@3PAUMAGIC@@A[eax+4]
  0019e	3b 82 84 00 00
	00		 cmp	 eax, DWORD PTR [edx+132]
  001a4	7e 0a		 jle	 SHORT $LN44@AI_ChooseA

; 1577 : 							mp_enough = FALSE;

  001a6	c7 85 7c ff ff
	ff 00 00 00 00	 mov	 DWORD PTR _mp_enough$20[ebp], 0
$LN44@AI_ChooseA:

; 1578 : 					}
; 1579 : 					if( mp_enough){

  001b0	83 bd 7c ff ff
	ff 00		 cmp	 DWORD PTR _mp_enough$20[ebp], 0
  001b7	0f 84 ba 01 00
	00		 je	 $LN47@AI_ChooseA

; 1580 : 						switch( AI_target[2]){

  001bd	b8 04 00 00 00	 mov	 eax, 4
  001c2	d1 e0		 shl	 eax, 1
  001c4	8b 88 00 00 00
	00		 mov	 ecx, DWORD PTR ?AI_target@@3PAHA[eax]
  001ca	89 8d d0 fd ff
	ff		 mov	 DWORD PTR tv148[ebp], ecx
  001d0	8b 95 d0 fd ff
	ff		 mov	 edx, DWORD PTR tv148[ebp]
  001d6	83 ea 01	 sub	 edx, 1
  001d9	89 95 d0 fd ff
	ff		 mov	 DWORD PTR tv148[ebp], edx
  001df	83 bd d0 fd ff
	ff 0b		 cmp	 DWORD PTR tv148[ebp], 11 ; 0000000bH
  001e6	0f 87 52 01 00
	00		 ja	 $LN73@AI_ChooseA
  001ec	8b 85 d0 fd ff
	ff		 mov	 eax, DWORD PTR tv148[ebp]
  001f2	ff 24 85 00 00
	00 00		 jmp	 DWORD PTR $LN186@AI_ChooseA[eax*4]
$LN49@AI_ChooseA:

; 1581 : 						case TARGET_MYSELF:
; 1582 : 							targetNo = BattleMyNo;

  001f9	a1 00 00 00 00	 mov	 eax, DWORD PTR ?BattleMyNo@@3HA ; BattleMyNo
  001fe	89 45 dc	 mov	 DWORD PTR _targetNo$[ebp], eax

; 1583 : 							break;

  00201	e9 3f 01 00 00	 jmp	 $LN2@AI_ChooseA
$LN50@AI_ChooseA:

; 1584 : 						case TARGET_MYPET:
; 1585 : 							if( p_party[BattleMyNo+5]->func)

  00206	a1 00 00 00 00	 mov	 eax, DWORD PTR ?BattleMyNo@@3HA ; BattleMyNo
  0020b	8b 0c 85 14 00
	00 00		 mov	 ecx, DWORD PTR ?p_party@@3PAPAUaction@@A[eax*4+20]
  00212	83 79 08 00	 cmp	 DWORD PTR [ecx+8], 0
  00216	74 0b		 je	 SHORT $LN51@AI_ChooseA

; 1586 : 								targetNo = BattleMyNo + 5;

  00218	a1 00 00 00 00	 mov	 eax, DWORD PTR ?BattleMyNo@@3HA ; BattleMyNo
  0021d	83 c0 05	 add	 eax, 5
  00220	89 45 dc	 mov	 DWORD PTR _targetNo$[ebp], eax
$LN51@AI_ChooseA:

; 1587 : 							break;

  00223	e9 1d 01 00 00	 jmp	 $LN2@AI_ChooseA
$LN52@AI_ChooseA:

; 1588 : 						case TARGET_MYSIDE:
; 1589 : 							switch( magic[method].target){

  00228	6b 45 88 70	 imul	 eax, DWORD PTR _method$21[ebp], 112
  0022c	0f bf 88 0a 00
	00 00		 movsx	 ecx, WORD PTR ?magic@@3PAUMAGIC@@A[eax+10]
  00233	89 8d d0 fd ff
	ff		 mov	 DWORD PTR tv159[ebp], ecx
  00239	83 bd d0 fd ff
	ff 02		 cmp	 DWORD PTR tv159[ebp], 2
  00240	74 26		 je	 SHORT $LN56@AI_ChooseA
  00242	83 bd d0 fd ff
	ff 08		 cmp	 DWORD PTR tv159[ebp], 8
  00249	74 02		 je	 SHORT $LN53@AI_ChooseA
  0024b	eb 34		 jmp	 SHORT $LN4@AI_ChooseA
$LN53@AI_ChooseA:

; 1590 : 							case MAGIC_TARGET_WHOLEOTHERSIDE:
; 1591 : 								if( BattleMyNo < 10 ) targetNo = 20;

  0024d	83 3d 00 00 00
	00 0a		 cmp	 DWORD PTR ?BattleMyNo@@3HA, 10 ; BattleMyNo, 0000000aH
  00254	7d 09		 jge	 SHORT $LN54@AI_ChooseA
  00256	c7 45 dc 14 00
	00 00		 mov	 DWORD PTR _targetNo$[ebp], 20 ; 00000014H
  0025d	eb 07		 jmp	 SHORT $LN55@AI_ChooseA
$LN54@AI_ChooseA:

; 1592 : 								else targetNo = 21;

  0025f	c7 45 dc 15 00
	00 00		 mov	 DWORD PTR _targetNo$[ebp], 21 ; 00000015H
$LN55@AI_ChooseA:

; 1593 : 								break;

  00266	eb 19		 jmp	 SHORT $LN4@AI_ChooseA
$LN56@AI_ChooseA:

; 1594 : 							case MAGIC_TARGET_ALLMYSIDE:
; 1595 : 								if( BattleMyNo < 10 ) targetNo = 20;

  00268	83 3d 00 00 00
	00 0a		 cmp	 DWORD PTR ?BattleMyNo@@3HA, 10 ; BattleMyNo, 0000000aH
  0026f	7d 09		 jge	 SHORT $LN57@AI_ChooseA
  00271	c7 45 dc 14 00
	00 00		 mov	 DWORD PTR _targetNo$[ebp], 20 ; 00000014H
  00278	eb 07		 jmp	 SHORT $LN4@AI_ChooseA
$LN57@AI_ChooseA:

; 1596 : 								else targetNo = 21;

  0027a	c7 45 dc 15 00
	00 00		 mov	 DWORD PTR _targetNo$[ebp], 21 ; 00000015H
$LN4@AI_ChooseA:

; 1597 : 								break;
; 1598 : 							}
; 1599 : 							break;

  00281	e9 bf 00 00 00	 jmp	 $LN2@AI_ChooseA
$LN59@AI_ChooseA:

; 1600 : 							case TARGET_OTHERONE:
; 1601 : 								targetNo = GetBattelTarget();

  00286	e8 00 00 00 00	 call	 ?GetBattelTarget@@YAHXZ	; GetBattelTarget
  0028b	89 45 dc	 mov	 DWORD PTR _targetNo$[ebp], eax

; 1602 : 								break;

  0028e	e9 b2 00 00 00	 jmp	 $LN2@AI_ChooseA
$LN60@AI_ChooseA:

; 1603 : 							case TARGET_OTHERSIDE:
; 1604 : 								switch( magic[method].target){

  00293	6b 45 88 70	 imul	 eax, DWORD PTR _method$21[ebp], 112
  00297	0f bf 88 0a 00
	00 00		 movsx	 ecx, WORD PTR ?magic@@3PAUMAGIC@@A[eax+10]
  0029e	89 8d d0 fd ff
	ff		 mov	 DWORD PTR tv169[ebp], ecx
  002a4	83 bd d0 fd ff
	ff 03		 cmp	 DWORD PTR tv169[ebp], 3
  002ab	74 14		 je	 SHORT $LN61@AI_ChooseA
  002ad	83 bd d0 fd ff
	ff 08		 cmp	 DWORD PTR tv169[ebp], 8
  002b4	74 0b		 je	 SHORT $LN61@AI_ChooseA
  002b6	83 bd d0 fd ff
	ff 0b		 cmp	 DWORD PTR tv169[ebp], 11 ; 0000000bH
  002bd	74 02		 je	 SHORT $LN61@AI_ChooseA
  002bf	eb 19		 jmp	 SHORT $LN6@AI_ChooseA
$LN61@AI_ChooseA:

; 1605 : #ifdef __ATTACK_MAGIC
; 1606 : 								case MAGIC_TARGET_ALL_ROWS:
; 1607 : #endif
; 1608 : 								case MAGIC_TARGET_WHOLEOTHERSIDE:
; 1609 : 								case MAGIC_TARGET_ALLOTHERSIDE:
; 1610 : 									if( BattleMyNo < 10 ) targetNo = 21;

  002c1	83 3d 00 00 00
	00 0a		 cmp	 DWORD PTR ?BattleMyNo@@3HA, 10 ; BattleMyNo, 0000000aH
  002c8	7d 09		 jge	 SHORT $LN62@AI_ChooseA
  002ca	c7 45 dc 15 00
	00 00		 mov	 DWORD PTR _targetNo$[ebp], 21 ; 00000015H
  002d1	eb 07		 jmp	 SHORT $LN6@AI_ChooseA
$LN62@AI_ChooseA:

; 1611 : 									else targetNo = 20;

  002d3	c7 45 dc 14 00
	00 00		 mov	 DWORD PTR _targetNo$[ebp], 20 ; 00000014H
$LN6@AI_ChooseA:

; 1612 : 									break;
; 1613 : 								}
; 1614 : 								break;

  002da	eb 69		 jmp	 SHORT $LN2@AI_ChooseA
$LN64@AI_ChooseA:

; 1615 : 								case TARGET_ALL:
; 1616 : 									targetNo = 22;

  002dc	c7 45 dc 16 00
	00 00		 mov	 DWORD PTR _targetNo$[ebp], 22 ; 00000016H

; 1617 : 									break;

  002e3	eb 60		 jmp	 SHORT $LN2@AI_ChooseA
$LN65@AI_ChooseA:

; 1618 : 								case TARGET_1:
; 1619 : 								case TARGET_2:
; 1620 : 								case TARGET_3:
; 1621 : 								case TARGET_4:
; 1622 : 								case TARGET_5:
; 1623 : 									targetNo = GetFirstTarget( AI_target[2]);

  002e5	b8 04 00 00 00	 mov	 eax, 4
  002ea	d1 e0		 shl	 eax, 1
  002ec	8b 88 00 00 00
	00		 mov	 ecx, DWORD PTR ?AI_target@@3PAHA[eax]
  002f2	51		 push	 ecx
  002f3	e8 00 00 00 00	 call	 ?GetFirstTarget@@YAHH@Z	; GetFirstTarget
  002f8	83 c4 04	 add	 esp, 4
  002fb	89 45 dc	 mov	 DWORD PTR _targetNo$[ebp], eax

; 1624 : 									break;

  002fe	eb 45		 jmp	 SHORT $LN2@AI_ChooseA
$LN66@AI_ChooseA:

; 1625 : #ifdef __ATTACK_MAGIC
; 1626 : 									// 23: å·¦ä¸Šç¬¬ä¸€åˆ— , 24: å·¦ä¸Šç¬¬äºŒåˆ— , 25: å³ä¸‹ç¬¬ä¸€åˆ— , 26: å³ä¸‹ç¬¬äºŒåˆ—
; 1627 : 								case TARGET_ONE_ROW:
; 1628 : 									targetNo = GetBattelTarget();

  00300	e8 00 00 00 00	 call	 ?GetBattelTarget@@YAHXZ	; GetBattelTarget
  00305	89 45 dc	 mov	 DWORD PTR _targetNo$[ebp], eax

; 1629 : 									if( targetNo < 5)

  00308	83 7d dc 05	 cmp	 DWORD PTR _targetNo$[ebp], 5
  0030c	7d 09		 jge	 SHORT $LN67@AI_ChooseA

; 1630 : 										targetNo = 25;

  0030e	c7 45 dc 19 00
	00 00		 mov	 DWORD PTR _targetNo$[ebp], 25 ; 00000019H
  00315	eb 25		 jmp	 SHORT $LN68@AI_ChooseA
$LN67@AI_ChooseA:

; 1631 : 									else if( targetNo < 10)

  00317	83 7d dc 0a	 cmp	 DWORD PTR _targetNo$[ebp], 10 ; 0000000aH
  0031b	7d 09		 jge	 SHORT $LN69@AI_ChooseA

; 1632 : 										targetNo = 26;

  0031d	c7 45 dc 1a 00
	00 00		 mov	 DWORD PTR _targetNo$[ebp], 26 ; 0000001aH
  00324	eb 16		 jmp	 SHORT $LN68@AI_ChooseA
$LN69@AI_ChooseA:

; 1633 : 									else if( targetNo < 15)

  00326	83 7d dc 0f	 cmp	 DWORD PTR _targetNo$[ebp], 15 ; 0000000fH
  0032a	7d 09		 jge	 SHORT $LN71@AI_ChooseA

; 1634 : 										targetNo = 23;

  0032c	c7 45 dc 17 00
	00 00		 mov	 DWORD PTR _targetNo$[ebp], 23 ; 00000017H

; 1635 : 									else

  00333	eb 07		 jmp	 SHORT $LN68@AI_ChooseA
$LN71@AI_ChooseA:

; 1636 : 										targetNo = 24;

  00335	c7 45 dc 18 00
	00 00		 mov	 DWORD PTR _targetNo$[ebp], 24 ; 00000018H
$LN68@AI_ChooseA:

; 1637 : 									break;

  0033c	eb 07		 jmp	 SHORT $LN2@AI_ChooseA
$LN73@AI_ChooseA:

; 1638 : #endif
; 1639 : 								default:
; 1640 : 									targetNo = -1;

  0033e	c7 45 dc ff ff
	ff ff		 mov	 DWORD PTR _targetNo$[ebp], -1
$LN2@AI_ChooseA:

; 1641 : 									break;
; 1642 : 						}
; 1643 : 						if( targetNo > -1){

  00345	83 7d dc ff	 cmp	 DWORD PTR _targetNo$[ebp], -1
  00349	7e 2a		 jle	 SHORT $LN74@AI_ChooseA

; 1644 : 							AI_Choosen = "ì²«ë²ˆì§¸ë§ˆë²•ì‚¬ìš©";

  0034b	c7 05 00 00 00
	00 00 00 00 00	 mov	 DWORD PTR ?AI_Choosen@@3PADA, OFFSET ??_C@_0P@IOBJGDJM@?C?$LJ?$LJ?x?B?$LA?$LI?$LG?$LJ?$PN?$LL?g?$LP?k?$AA@ ; AI_Choosen

; 1645 : 							sprintf( moji, "J|%X|%X", method, targetNo);

  00355	8b 45 dc	 mov	 eax, DWORD PTR _targetNo$[ebp]
  00358	50		 push	 eax
  00359	8b 4d 88	 mov	 ecx, DWORD PTR _method$21[ebp]
  0035c	51		 push	 ecx
  0035d	68 00 00 00 00	 push	 OFFSET ??_C@_07DLEHBIBA@J?$HM?$CFX?$HM?$CFX?$AA@
  00362	8d 55 94	 lea	 edx, DWORD PTR _moji$[ebp]
  00365	52		 push	 edx
  00366	e8 00 00 00 00	 call	 _sprintf
  0036b	83 c4 10	 add	 esp, 16			; 00000010H

; 1646 : 							done = 1;

  0036e	c7 45 e8 01 00
	00 00		 mov	 DWORD PTR _done$[ebp], 1
$LN74@AI_ChooseA:

; 1647 : 						}
; 1648 : 					}else

  00375	eb 11		 jmp	 SHORT $LN42@AI_ChooseA
$LN47@AI_ChooseA:

; 1649 : 						StockChatBufferLine( "MPä¸è¶³æ— æ³•ä½¿ç”¨é¦–æ¬¡çš„ç²¾çµ", FONT_PAL_WHITE);

  00377	6a 00		 push	 0
  00379	6a 00		 push	 0
  0037b	68 00 00 00 00	 push	 OFFSET ??_C@_0BI@BOMCDLOB@MP?$NM?t?p?k?Y?i?$NL?v?$NO?E?i?D?b?O?s?$KN?n?$NM?o?q?$DP?$AA@
  00380	e8 00 00 00 00	 call	 ?StockChatBufferLine@@YAXPADEH@Z ; StockChatBufferLine
  00385	83 c4 0c	 add	 esp, 12			; 0000000cH
$LN42@AI_ChooseA:

; 1650 : 				}
; 1651 : 				//	else
; 1652 : 				//		StockChatBufferLine( "æ²¡æœ‰è®¾å®šé¦–æ¬¡çš„ç²¾çµ", FONT_PAL_WHITE);
; 1653 : #ifdef _AI_NEW_FIRST
; 1654 : 			}
; 1655 : 			else{

  00388	eb 5c		 jmp	 SHORT $LN39@AI_ChooseA
$LN40@AI_ChooseA:

; 1656 : 				int ret;
; 1657 : 				ret = AttackAIProc(2,moji);

  0038a	8d 45 94	 lea	 eax, DWORD PTR _moji$[ebp]
  0038d	50		 push	 eax
  0038e	6a 02		 push	 2
  00390	e8 00 00 00 00	 call	 ?AttackAIProc@@YAHHPAD@Z ; AttackAIProc
  00395	83 c4 08	 add	 esp, 8
  00398	89 85 70 ff ff
	ff		 mov	 DWORD PTR _ret$19[ebp], eax

; 1658 : 				if(ret) done = 1;

  0039e	83 bd 70 ff ff
	ff 00		 cmp	 DWORD PTR _ret$19[ebp], 0
  003a5	74 09		 je	 SHORT $LN75@AI_ChooseA
  003a7	c7 45 e8 01 00
	00 00		 mov	 DWORD PTR _done$[ebp], 1
  003ae	eb 36		 jmp	 SHORT $LN39@AI_ChooseA
$LN75@AI_ChooseA:

; 1659 : 				else if(ret == 0) StockChatBufferLine("MPä¸è¶³æ— æ³•ä½¿ç”¨é¦–æ¬¡çš„æŠ€èƒ½", FONT_PAL_WHITE);

  003b0	83 bd 70 ff ff
	ff 00		 cmp	 DWORD PTR _ret$19[ebp], 0
  003b7	75 13		 jne	 SHORT $LN77@AI_ChooseA
  003b9	6a 00		 push	 0
  003bb	6a 00		 push	 0
  003bd	68 00 00 00 00	 push	 OFFSET ??_C@_0BJ@OFNEOCJH@MP?$NM?t?p?k?Y?i?$NL?v?$NO?E?i?D?b?O?s?$KN?n?$NM?P?$PM?R?v?$AA@
  003c2	e8 00 00 00 00	 call	 ?StockChatBufferLine@@YAXPADEH@Z ; StockChatBufferLine
  003c7	83 c4 0c	 add	 esp, 12			; 0000000cH
  003ca	eb 1a		 jmp	 SHORT $LN39@AI_ChooseA
$LN77@AI_ChooseA:

; 1660 : 				else if(ret == -1) StockChatBufferLine("æŠ€èƒ½ä»£å·é”™è¯¯", FONT_PAL_WHITE);

  003cc	83 bd 70 ff ff
	ff ff		 cmp	 DWORD PTR _ret$19[ebp], -1
  003d3	75 11		 jne	 SHORT $LN39@AI_ChooseA
  003d5	6a 00		 push	 0
  003d7	6a 00		 push	 0
  003d9	68 00 00 00 00	 push	 OFFSET ??_C@_09MFBOBGGD@?P?$PM?R?v?S?$NL?$DP?$DP?$DP?$AA@
  003de	e8 00 00 00 00	 call	 ?StockChatBufferLine@@YAXPADEH@Z ; StockChatBufferLine
  003e3	83 c4 0c	 add	 esp, 12			; 0000000cH
$LN39@AI_ChooseA:

; 1661 : 			}
; 1662 : #endif
; 1663 : 		}
; 1664 : 		if( 0 == done){

  003e6	83 7d e8 00	 cmp	 DWORD PTR _done$[ebp], 0
  003ea	0f 85 66 05 00
	00		 jne	 $LN80@AI_ChooseA

; 1665 : 			int magic_id = -1, item_id = -1, target = -1, meat = -1;

  003f0	c7 85 64 ff ff
	ff ff ff ff ff	 mov	 DWORD PTR _magic_id$18[ebp], -1
  003fa	c7 85 58 ff ff
	ff ff ff ff ff	 mov	 DWORD PTR _item_id$17[ebp], -1
  00404	c7 85 4c ff ff
	ff ff ff ff ff	 mov	 DWORD PTR _target$16[ebp], -1
  0040e	c7 85 40 ff ff
	ff ff ff ff ff	 mov	 DWORD PTR _meat$15[ebp], -1

; 1666 : 			//å…ˆæ‰¾å‡ºæ˜¯å¦æœ‰è€ä¹…åŠ›å›žå¤çš„é“å…·
; 1667 : 			for( int i = 0; i < MAX_ITEM; i++){

  00418	c7 85 34 ff ff
	ff 00 00 00 00	 mov	 DWORD PTR _i$14[ebp], 0
  00422	eb 0f		 jmp	 SHORT $LN10@AI_ChooseA
$LN8@AI_ChooseA:
  00424	8b 85 34 ff ff
	ff		 mov	 eax, DWORD PTR _i$14[ebp]
  0042a	83 c0 01	 add	 eax, 1
  0042d	89 85 34 ff ff
	ff		 mov	 DWORD PTR _i$14[ebp], eax
$LN10@AI_ChooseA:
  00433	83 bd 34 ff ff
	ff 36		 cmp	 DWORD PTR _i$14[ebp], 54 ; 00000036H
  0043a	0f 8d 90 00 00
	00		 jge	 $LN9@AI_ChooseA

; 1668 : 				if( pc.item[i].useFlag && (str=strstr( pc.item[i].memo, "ë‚´êµ¬ë ¥")) && strstr( str, "ëŒ“ê¸€")){

  00440	69 85 34 ff ff
	ff 7c 01 00 00	 imul	 eax, DWORD PTR _i$14[ebp], 380
  0044a	0f bf 88 a0 01
	00 00		 movsx	 ecx, WORD PTR ?pc@@3UPC@@A[eax+416]
  00451	85 c9		 test	 ecx, ecx
  00453	74 76		 je	 SHORT $LN81@AI_ChooseA
  00455	68 00 00 00 00	 push	 OFFSET ??_C@_06MPLPIMIC@?$LD?$LL?$LB?$LI?$LH?B?$AA@
  0045a	69 85 34 ff ff
	ff 7c 01 00 00	 imul	 eax, DWORD PTR _i$14[ebp], 380
  00464	05 d8 01 00 00	 add	 eax, OFFSET ?pc@@3UPC@@A+472
  00469	50		 push	 eax
  0046a	e8 00 00 00 00	 call	 ?strstr@@YAPADQADQBD@Z	; strstr
  0046f	83 c4 08	 add	 esp, 8
  00472	89 45 f4	 mov	 DWORD PTR _str$[ebp], eax
  00475	83 7d f4 00	 cmp	 DWORD PTR _str$[ebp], 0
  00479	74 50		 je	 SHORT $LN81@AI_ChooseA
  0047b	68 00 00 00 00	 push	 OFFSET ??_C@_04EEBAFPAH@?$LE?q?$LB?$NL?$AA@
  00480	8b 45 f4	 mov	 eax, DWORD PTR _str$[ebp]
  00483	50		 push	 eax
  00484	e8 00 00 00 00	 call	 ?strstr@@YAPADQADQBD@Z	; strstr
  00489	83 c4 08	 add	 esp, 8
  0048c	85 c0		 test	 eax, eax
  0048e	74 3b		 je	 SHORT $LN81@AI_ChooseA

; 1669 : 					item_id = i;

  00490	8b 85 34 ff ff
	ff		 mov	 eax, DWORD PTR _i$14[ebp]
  00496	89 85 58 ff ff
	ff		 mov	 DWORD PTR _item_id$17[ebp], eax

; 1670 : 					if( strstr( pc.item[i].name, "ê³ ê¸°")){

  0049c	68 00 00 00 00	 push	 OFFSET ??_C@_04KFNLJMFK@?$LA?m?$LB?b?$AA@
  004a1	69 85 34 ff ff
	ff 7c 01 00 00	 imul	 eax, DWORD PTR _i$14[ebp], 380
  004ab	05 aa 01 00 00	 add	 eax, OFFSET ?pc@@3UPC@@A+426
  004b0	50		 push	 eax
  004b1	e8 00 00 00 00	 call	 ?strstr@@YAPADQADQBD@Z	; strstr
  004b6	83 c4 08	 add	 esp, 8
  004b9	85 c0		 test	 eax, eax
  004bb	74 0e		 je	 SHORT $LN81@AI_ChooseA

; 1671 : 						meat = i;

  004bd	8b 85 34 ff ff
	ff		 mov	 eax, DWORD PTR _i$14[ebp]
  004c3	89 85 40 ff ff
	ff		 mov	 DWORD PTR _meat$15[ebp], eax

; 1672 : 						break;

  004c9	eb 05		 jmp	 SHORT $LN9@AI_ChooseA
$LN81@AI_ChooseA:

; 1673 : 					}
; 1674 : 				}
; 1675 : 			}

  004cb	e9 54 ff ff ff	 jmp	 $LN8@AI_ChooseA
$LN9@AI_ChooseA:

; 1676 : 			//å…ˆæ‰¾å‡ºæ˜¯å¦æœ‰è€ä¹…åŠ›å›žå¤çš„ç²¾çµå’Œmpæ˜¯å¦è¶³å¤Ÿ
; 1677 : 			int method = AI_method[0];

  004d0	b8 04 00 00 00	 mov	 eax, 4
  004d5	6b c8 00	 imul	 ecx, eax, 0
  004d8	8b 91 00 00 00
	00		 mov	 edx, DWORD PTR ?AI_method@@3PAHA[ecx]
  004de	89 95 28 ff ff
	ff		 mov	 DWORD PTR _method$13[ebp], edx

; 1678 : 			if( (method>-1 && method<MAX_MAGIC) && magic[method].useFlag && (str=strstr( magic[method].memo, "ê¸°ë ¥")) && strstr( str, "ëŒ“ê¸€")){

  004e4	83 bd 28 ff ff
	ff ff		 cmp	 DWORD PTR _method$13[ebp], -1
  004eb	0f 8e cf 00 00
	00		 jle	 $LN83@AI_ChooseA
  004f1	83 bd 28 ff ff
	ff 09		 cmp	 DWORD PTR _method$13[ebp], 9
  004f8	0f 8d c2 00 00
	00		 jge	 $LN83@AI_ChooseA
  004fe	6b 85 28 ff ff
	ff 70		 imul	 eax, DWORD PTR _method$13[ebp], 112
  00505	0f bf 88 00 00
	00 00		 movsx	 ecx, WORD PTR ?magic@@3PAUMAGIC@@A[eax]
  0050c	85 c9		 test	 ecx, ecx
  0050e	0f 84 ac 00 00
	00		 je	 $LN83@AI_ChooseA
  00514	68 00 00 00 00	 push	 OFFSET ??_C@_04FBNBPNKM@?$LB?b?$LH?B?$AA@
  00519	6b 85 28 ff ff
	ff 70		 imul	 eax, DWORD PTR _method$13[ebp], 112
  00520	05 27 00 00 00	 add	 eax, OFFSET ?magic@@3PAUMAGIC@@A+39
  00525	50		 push	 eax
  00526	e8 00 00 00 00	 call	 ?strstr@@YAPADQADQBD@Z	; strstr
  0052b	83 c4 08	 add	 esp, 8
  0052e	89 45 f4	 mov	 DWORD PTR _str$[ebp], eax
  00531	83 7d f4 00	 cmp	 DWORD PTR _str$[ebp], 0
  00535	0f 84 85 00 00
	00		 je	 $LN83@AI_ChooseA
  0053b	68 00 00 00 00	 push	 OFFSET ??_C@_04EEBAFPAH@?$LE?q?$LB?$NL?$AA@
  00540	8b 45 f4	 mov	 eax, DWORD PTR _str$[ebp]
  00543	50		 push	 eax
  00544	e8 00 00 00 00	 call	 ?strstr@@YAPADQADQBD@Z	; strstr
  00549	83 c4 08	 add	 esp, 8
  0054c	85 c0		 test	 eax, eax
  0054e	74 70		 je	 SHORT $LN83@AI_ChooseA

; 1679 : 				if( pc.familySprite == 0){

  00550	83 3d 4c 51 00
	00 00		 cmp	 DWORD PTR ?pc@@3UPC@@A+20812, 0
  00557	75 39		 jne	 SHORT $LN84@AI_ChooseA

; 1680 : 					if( (magic[method].mp*80/100) <= p_party[BattleMyNo]->mp )

  00559	6b 85 28 ff ff
	ff 70		 imul	 eax, DWORD PTR _method$13[ebp], 112
  00560	6b 80 04 00 00
	00 50		 imul	 eax, DWORD PTR ?magic@@3PAUMAGIC@@A[eax+4], 80
  00567	99		 cdq
  00568	b9 64 00 00 00	 mov	 ecx, 100		; 00000064H
  0056d	f7 f9		 idiv	 ecx
  0056f	8b 15 00 00 00
	00		 mov	 edx, DWORD PTR ?BattleMyNo@@3HA ; BattleMyNo
  00575	8b 0c 95 00 00
	00 00		 mov	 ecx, DWORD PTR ?p_party@@3PAPAUaction@@A[edx*4]
  0057c	3b 81 84 00 00
	00		 cmp	 eax, DWORD PTR [ecx+132]
  00582	7f 0c		 jg	 SHORT $LN86@AI_ChooseA

; 1681 : 						magic_id = method;

  00584	8b 85 28 ff ff
	ff		 mov	 eax, DWORD PTR _method$13[ebp]
  0058a	89 85 64 ff ff
	ff		 mov	 DWORD PTR _magic_id$18[ebp], eax
$LN86@AI_ChooseA:

; 1682 : 				}else{

  00590	eb 2e		 jmp	 SHORT $LN83@AI_ChooseA
$LN84@AI_ChooseA:

; 1683 : 					if( magic[method].mp <= p_party[BattleMyNo]->mp )

  00592	6b 85 28 ff ff
	ff 70		 imul	 eax, DWORD PTR _method$13[ebp], 112
  00599	8b 0d 00 00 00
	00		 mov	 ecx, DWORD PTR ?BattleMyNo@@3HA ; BattleMyNo
  0059f	8b 14 8d 00 00
	00 00		 mov	 edx, DWORD PTR ?p_party@@3PAPAUaction@@A[ecx*4]
  005a6	8b 80 04 00 00
	00		 mov	 eax, DWORD PTR ?magic@@3PAUMAGIC@@A[eax+4]
  005ac	3b 82 84 00 00
	00		 cmp	 eax, DWORD PTR [edx+132]
  005b2	7f 0c		 jg	 SHORT $LN83@AI_ChooseA

; 1684 : 						magic_id = method;

  005b4	8b 85 28 ff ff
	ff		 mov	 eax, DWORD PTR _method$13[ebp]
  005ba	89 85 64 ff ff
	ff		 mov	 DWORD PTR _magic_id$18[ebp], eax
$LN83@AI_ChooseA:

; 1685 : 				}
; 1686 : 			}
; 1687 : 			//æ‰¾è¡¥è€ä¹…åŠ›çš„ç›®æ ‡
; 1688 : 			if( TARGET_1<=AI_target[0] && AI_target[0]<=TARGET_5){

  005c0	b8 04 00 00 00	 mov	 eax, 4
  005c5	6b c8 00	 imul	 ecx, eax, 0
  005c8	83 b9 00 00 00
	00 07		 cmp	 DWORD PTR ?AI_target@@3PAHA[ecx], 7
  005cf	7c 2e		 jl	 SHORT $LN88@AI_ChooseA
  005d1	b8 04 00 00 00	 mov	 eax, 4
  005d6	6b c8 00	 imul	 ecx, eax, 0
  005d9	83 b9 00 00 00
	00 0b		 cmp	 DWORD PTR ?AI_target@@3PAHA[ecx], 11 ; 0000000bH
  005e0	7f 1d		 jg	 SHORT $LN88@AI_ChooseA

; 1689 : 				target = GetCureTarget( AI_target[0]);

  005e2	b8 04 00 00 00	 mov	 eax, 4
  005e7	6b c8 00	 imul	 ecx, eax, 0
  005ea	8b 91 00 00 00
	00		 mov	 edx, DWORD PTR ?AI_target@@3PAHA[ecx]
  005f0	52		 push	 edx
  005f1	e8 00 00 00 00	 call	 ?GetCureTarget@@YAHH@Z	; GetCureTarget
  005f6	83 c4 04	 add	 esp, 4
  005f9	89 85 4c ff ff
	ff		 mov	 DWORD PTR _target$16[ebp], eax
$LN88@AI_ChooseA:

; 1690 : 			}
; 1691 : 			if( target == -1){

  005ff	83 bd 4c ff ff
	ff ff		 cmp	 DWORD PTR _target$16[ebp], -1
  00606	0f 85 9c 01 00
	00		 jne	 $LN89@AI_ChooseA

; 1692 : 				if( AI_target[0] == TARGET_MYSELF){//å…ˆè¡¥è‡ªå·±è¡€

  0060c	b8 04 00 00 00	 mov	 eax, 4
  00611	6b c8 00	 imul	 ecx, eax, 0
  00614	83 b9 00 00 00
	00 01		 cmp	 DWORD PTR ?AI_target@@3PAHA[ecx], 1
  0061b	0f 85 c6 00 00
	00		 jne	 $LN90@AI_ChooseA

; 1693 : 					if( p_party[BattleMyNo]->maxHp*AI_limit[0]/100 > p_party[BattleMyNo]->hp){

  00621	a1 00 00 00 00	 mov	 eax, DWORD PTR ?BattleMyNo@@3HA ; BattleMyNo
  00626	8b 0c 85 00 00
	00 00		 mov	 ecx, DWORD PTR ?p_party@@3PAPAUaction@@A[eax*4]
  0062d	ba 04 00 00 00	 mov	 edx, 4
  00632	6b c2 00	 imul	 eax, edx, 0
  00635	8b 89 80 00 00
	00		 mov	 ecx, DWORD PTR [ecx+128]
  0063b	0f af 88 00 00
	00 00		 imul	 ecx, DWORD PTR ?AI_limit@@3PAHA[eax]
  00642	8b c1		 mov	 eax, ecx
  00644	99		 cdq
  00645	b9 64 00 00 00	 mov	 ecx, 100		; 00000064H
  0064a	f7 f9		 idiv	 ecx
  0064c	8b 15 00 00 00
	00		 mov	 edx, DWORD PTR ?BattleMyNo@@3HA ; BattleMyNo
  00652	8b 0c 95 00 00
	00 00		 mov	 ecx, DWORD PTR ?p_party@@3PAPAUaction@@A[edx*4]
  00659	3b 41 78	 cmp	 eax, DWORD PTR [ecx+120]
  0065c	7e 0d		 jle	 SHORT $LN92@AI_ChooseA

; 1694 : 						target = BattleMyNo;

  0065e	a1 00 00 00 00	 mov	 eax, DWORD PTR ?BattleMyNo@@3HA ; BattleMyNo
  00663	89 85 4c ff ff
	ff		 mov	 DWORD PTR _target$16[ebp], eax
  00669	eb 77		 jmp	 SHORT $LN93@AI_ChooseA
$LN92@AI_ChooseA:

; 1695 : 					}else if( p_party[BattleMyNo+5]->func && pet[pc.battlePetNo].hp>0 && pet[pc.battlePetNo].maxHp*AI_limit[0]/100>pet[pc.battlePetNo].hp){

  0066b	a1 00 00 00 00	 mov	 eax, DWORD PTR ?BattleMyNo@@3HA ; BattleMyNo
  00670	8b 0c 85 14 00
	00 00		 mov	 ecx, DWORD PTR ?p_party@@3PAPAUaction@@A[eax*4+20]
  00677	83 79 08 00	 cmp	 DWORD PTR [ecx+8], 0
  0067b	74 65		 je	 SHORT $LN93@AI_ChooseA
  0067d	0f bf 05 aa 00
	00 00		 movsx	 eax, WORD PTR ?pc@@3UPC@@A+170
  00684	69 c8 20 0b 00
	00		 imul	 ecx, eax, 2848
  0068a	83 b9 08 00 00
	00 00		 cmp	 DWORD PTR ?pet@@3PAUPET@@A[ecx+8], 0
  00691	7e 4f		 jle	 SHORT $LN93@AI_ChooseA
  00693	0f bf 05 aa 00
	00 00		 movsx	 eax, WORD PTR ?pc@@3UPC@@A+170
  0069a	69 c8 20 0b 00
	00		 imul	 ecx, eax, 2848
  006a0	ba 04 00 00 00	 mov	 edx, 4
  006a5	6b c2 00	 imul	 eax, edx, 0
  006a8	8b 89 0c 00 00
	00		 mov	 ecx, DWORD PTR ?pet@@3PAUPET@@A[ecx+12]
  006ae	0f af 88 00 00
	00 00		 imul	 ecx, DWORD PTR ?AI_limit@@3PAHA[eax]
  006b5	8b c1		 mov	 eax, ecx
  006b7	99		 cdq
  006b8	b9 64 00 00 00	 mov	 ecx, 100		; 00000064H
  006bd	f7 f9		 idiv	 ecx
  006bf	0f bf 15 aa 00
	00 00		 movsx	 edx, WORD PTR ?pc@@3UPC@@A+170
  006c6	69 ca 20 0b 00
	00		 imul	 ecx, edx, 2848
  006cc	3b 81 08 00 00
	00		 cmp	 eax, DWORD PTR ?pet@@3PAUPET@@A[ecx+8]
  006d2	7e 0e		 jle	 SHORT $LN93@AI_ChooseA

; 1696 : 						target = BattleMyNo + 5;

  006d4	a1 00 00 00 00	 mov	 eax, DWORD PTR ?BattleMyNo@@3HA ; BattleMyNo
  006d9	83 c0 05	 add	 eax, 5
  006dc	89 85 4c ff ff
	ff		 mov	 DWORD PTR _target$16[ebp], eax
$LN93@AI_ChooseA:

; 1697 : 					}
; 1698 : 				}else{// if( AI_target[0] == TARGET_MYPET){//å…ˆè¡¥å® ç‰©è¡€

  006e2	e9 c1 00 00 00	 jmp	 $LN89@AI_ChooseA
$LN90@AI_ChooseA:

; 1699 : 					if( p_party[BattleMyNo+5]->func && pet[pc.battlePetNo].hp>0 && pet[pc.battlePetNo].maxHp*AI_limit[0]/100 > pet[pc.battlePetNo].hp){

  006e7	a1 00 00 00 00	 mov	 eax, DWORD PTR ?BattleMyNo@@3HA ; BattleMyNo
  006ec	8b 0c 85 14 00
	00 00		 mov	 ecx, DWORD PTR ?p_party@@3PAPAUaction@@A[eax*4+20]
  006f3	83 79 08 00	 cmp	 DWORD PTR [ecx+8], 0
  006f7	74 67		 je	 SHORT $LN95@AI_ChooseA
  006f9	0f bf 05 aa 00
	00 00		 movsx	 eax, WORD PTR ?pc@@3UPC@@A+170
  00700	69 c8 20 0b 00
	00		 imul	 ecx, eax, 2848
  00706	83 b9 08 00 00
	00 00		 cmp	 DWORD PTR ?pet@@3PAUPET@@A[ecx+8], 0
  0070d	7e 51		 jle	 SHORT $LN95@AI_ChooseA
  0070f	0f bf 05 aa 00
	00 00		 movsx	 eax, WORD PTR ?pc@@3UPC@@A+170
  00716	69 c8 20 0b 00
	00		 imul	 ecx, eax, 2848
  0071c	ba 04 00 00 00	 mov	 edx, 4
  00721	6b c2 00	 imul	 eax, edx, 0
  00724	8b 89 0c 00 00
	00		 mov	 ecx, DWORD PTR ?pet@@3PAUPET@@A[ecx+12]
  0072a	0f af 88 00 00
	00 00		 imul	 ecx, DWORD PTR ?AI_limit@@3PAHA[eax]
  00731	8b c1		 mov	 eax, ecx
  00733	99		 cdq
  00734	b9 64 00 00 00	 mov	 ecx, 100		; 00000064H
  00739	f7 f9		 idiv	 ecx
  0073b	0f bf 15 aa 00
	00 00		 movsx	 edx, WORD PTR ?pc@@3UPC@@A+170
  00742	69 ca 20 0b 00
	00		 imul	 ecx, edx, 2848
  00748	3b 81 08 00 00
	00		 cmp	 eax, DWORD PTR ?pet@@3PAUPET@@A[ecx+8]
  0074e	7e 10		 jle	 SHORT $LN95@AI_ChooseA

; 1700 : 						target = BattleMyNo + 5;

  00750	a1 00 00 00 00	 mov	 eax, DWORD PTR ?BattleMyNo@@3HA ; BattleMyNo
  00755	83 c0 05	 add	 eax, 5
  00758	89 85 4c ff ff
	ff		 mov	 DWORD PTR _target$16[ebp], eax
  0075e	eb 48		 jmp	 SHORT $LN89@AI_ChooseA
$LN95@AI_ChooseA:

; 1701 : 					}else if( p_party[BattleMyNo]->maxHp*AI_limit[0]/100>p_party[BattleMyNo]->hp){

  00760	a1 00 00 00 00	 mov	 eax, DWORD PTR ?BattleMyNo@@3HA ; BattleMyNo
  00765	8b 0c 85 00 00
	00 00		 mov	 ecx, DWORD PTR ?p_party@@3PAPAUaction@@A[eax*4]
  0076c	ba 04 00 00 00	 mov	 edx, 4
  00771	6b c2 00	 imul	 eax, edx, 0
  00774	8b 89 80 00 00
	00		 mov	 ecx, DWORD PTR [ecx+128]
  0077a	0f af 88 00 00
	00 00		 imul	 ecx, DWORD PTR ?AI_limit@@3PAHA[eax]
  00781	8b c1		 mov	 eax, ecx
  00783	99		 cdq
  00784	b9 64 00 00 00	 mov	 ecx, 100		; 00000064H
  00789	f7 f9		 idiv	 ecx
  0078b	8b 15 00 00 00
	00		 mov	 edx, DWORD PTR ?BattleMyNo@@3HA ; BattleMyNo
  00791	8b 0c 95 00 00
	00 00		 mov	 ecx, DWORD PTR ?p_party@@3PAPAUaction@@A[edx*4]
  00798	3b 41 78	 cmp	 eax, DWORD PTR [ecx+120]
  0079b	7e 0b		 jle	 SHORT $LN89@AI_ChooseA

; 1702 : 						target = BattleMyNo;

  0079d	a1 00 00 00 00	 mov	 eax, DWORD PTR ?BattleMyNo@@3HA ; BattleMyNo
  007a2	89 85 4c ff ff
	ff		 mov	 DWORD PTR _target$16[ebp], eax
$LN89@AI_ChooseA:

; 1703 : 					}
; 1704 : 				}
; 1705 : 			}
; 1706 : 			if( target > -1){

  007a8	83 bd 4c ff ff
	ff ff		 cmp	 DWORD PTR _target$16[ebp], -1
  007af	0f 8e a1 01 00
	00		 jle	 $LN80@AI_ChooseA

; 1707 : 				if( item_id>-1 || magic_id>-1){

  007b5	83 bd 58 ff ff
	ff ff		 cmp	 DWORD PTR _item_id$17[ebp], -1
  007bc	7f 0d		 jg	 SHORT $LN101@AI_ChooseA
  007be	83 bd 64 ff ff
	ff ff		 cmp	 DWORD PTR _magic_id$18[ebp], -1
  007c5	0f 8e 7a 01 00
	00		 jle	 $LN99@AI_ChooseA
$LN101@AI_ChooseA:

; 1708 : 					if( meat > -1){//ä½¿ç”¨è‚‰è¡¥è€ä¹…åŠ›

  007cb	83 bd 40 ff ff
	ff ff		 cmp	 DWORD PTR _meat$15[ebp], -1
  007d2	7e 35		 jle	 SHORT $LN102@AI_ChooseA

; 1709 : 						done = 1;

  007d4	c7 45 e8 01 00
	00 00		 mov	 DWORD PTR _done$[ebp], 1

; 1710 : 						sprintf( moji,"I|%X|%X", meat, target);

  007db	8b 85 4c ff ff
	ff		 mov	 eax, DWORD PTR _target$16[ebp]
  007e1	50		 push	 eax
  007e2	8b 8d 40 ff ff
	ff		 mov	 ecx, DWORD PTR _meat$15[ebp]
  007e8	51		 push	 ecx
  007e9	68 00 00 00 00	 push	 OFFSET ??_C@_07LFMIBPPD@I?$HM?$CFX?$HM?$CFX?$AA@
  007ee	8d 55 94	 lea	 edx, DWORD PTR _moji$[ebp]
  007f1	52		 push	 edx
  007f2	e8 00 00 00 00	 call	 _sprintf
  007f7	83 c4 10	 add	 esp, 16			; 00000010H

; 1711 : 						AI_Choosen = "ê³ ê¸°ë¥¼ ì‚¬ìš©í•˜ì—¬ ë‚´êµ¬ë ¥ì„ íšŒë³µí•˜ì‹­ì‹œì˜¤.";

  007fa	c7 05 00 00 00
	00 00 00 00 00	 mov	 DWORD PTR ?AI_Choosen@@3PADA, OFFSET ??_C@_0CH@BEFJEOCA@?$LA?m?$LB?b?$LI?$KG?5?$LL?g?$LP?k?G?O?$LP?$KJ?5?$LD?$LL?$LB?$LI?$LH?B?$MA?$LL?5?H?$LI?$LK?$LJ?G?O?$LN@ ; AI_Choosen

; 1712 : 					}else{

  00804	e9 3a 01 00 00	 jmp	 $LN103@AI_ChooseA
$LN102@AI_ChooseA:

; 1713 : 						if( MAX_MAGIC>AI_method[0] && AI_method[0]>=0){//ä½¿ç”¨ç²¾çµè¡¥è€ä¹…åŠ›

  00809	b8 04 00 00 00	 mov	 eax, 4
  0080e	6b c8 00	 imul	 ecx, eax, 0
  00811	83 b9 00 00 00
	00 09		 cmp	 DWORD PTR ?AI_method@@3PAHA[ecx], 9
  00818	0f 8d d3 00 00
	00		 jge	 $LN104@AI_ChooseA
  0081e	b8 04 00 00 00	 mov	 eax, 4
  00823	6b c8 00	 imul	 ecx, eax, 0
  00826	83 b9 00 00 00
	00 00		 cmp	 DWORD PTR ?AI_method@@3PAHA[ecx], 0
  0082d	0f 8c be 00 00
	00		 jl	 $LN104@AI_ChooseA

; 1714 : 							if( magic[AI_method[0]].target != MAGIC_TARGET_MYSELF || target==BattleMyNo){

  00833	b8 04 00 00 00	 mov	 eax, 4
  00838	6b c8 00	 imul	 ecx, eax, 0
  0083b	6b 91 00 00 00
	00 70		 imul	 edx, DWORD PTR ?AI_method@@3PAHA[ecx], 112
  00842	0f bf 82 0a 00
	00 00		 movsx	 eax, WORD PTR ?magic@@3PAUMAGIC@@A[edx+10]
  00849	85 c0		 test	 eax, eax
  0084b	75 12		 jne	 SHORT $LN106@AI_ChooseA
  0084d	8b 85 4c ff ff
	ff		 mov	 eax, DWORD PTR _target$16[ebp]
  00853	3b 05 00 00 00
	00		 cmp	 eax, DWORD PTR ?BattleMyNo@@3HA ; BattleMyNo
  00859	0f 85 92 00 00
	00		 jne	 $LN104@AI_ChooseA
$LN106@AI_ChooseA:

; 1715 : 								if( magic_id > -1){

  0085f	83 bd 64 ff ff
	ff ff		 cmp	 DWORD PTR _magic_id$18[ebp], -1
  00866	7e 78		 jle	 SHORT $LN107@AI_ChooseA

; 1716 : 									int method = AI_method[0];

  00868	b8 04 00 00 00	 mov	 eax, 4
  0086d	6b c8 00	 imul	 ecx, eax, 0
  00870	8b 91 00 00 00
	00		 mov	 edx, DWORD PTR ?AI_method@@3PAHA[ecx]
  00876	89 95 1c ff ff
	ff		 mov	 DWORD PTR _method$12[ebp], edx

; 1717 : 									if( MAGIC_TARGET_WHOLEOTHERSIDE == magic[method].target){

  0087c	6b 85 1c ff ff
	ff 70		 imul	 eax, DWORD PTR _method$12[ebp], 112
  00883	0f bf 88 0a 00
	00 00		 movsx	 ecx, WORD PTR ?magic@@3PAUMAGIC@@A[eax+10]
  0088a	83 f9 08	 cmp	 ecx, 8
  0088d	75 1f		 jne	 SHORT $LN109@AI_ChooseA

; 1718 : 										if( BattleMyNo < 10 ) target = 20;

  0088f	83 3d 00 00 00
	00 0a		 cmp	 DWORD PTR ?BattleMyNo@@3HA, 10 ; BattleMyNo, 0000000aH
  00896	7d 0c		 jge	 SHORT $LN110@AI_ChooseA
  00898	c7 85 4c ff ff
	ff 14 00 00 00	 mov	 DWORD PTR _target$16[ebp], 20 ; 00000014H
  008a2	eb 0a		 jmp	 SHORT $LN109@AI_ChooseA
$LN110@AI_ChooseA:

; 1719 : 										else target = 21;

  008a4	c7 85 4c ff ff
	ff 15 00 00 00	 mov	 DWORD PTR _target$16[ebp], 21 ; 00000015H
$LN109@AI_ChooseA:

; 1720 : 									}
; 1721 : 									done = 1;

  008ae	c7 45 e8 01 00
	00 00		 mov	 DWORD PTR _done$[ebp], 1

; 1722 : 									AI_Choosen = "ä½¿ç”¨è€ä¹…åŠ›å›žå¤ç²¾çµ";

  008b5	c7 05 00 00 00
	00 00 00 00 00	 mov	 DWORD PTR ?AI_Choosen@@3PADA, OFFSET ??_C@_0BB@PIEHFOMH@?$NO?E?i?D?R?$LB?N?y?U?t?$PM?$NO?$DP?o?q?$DP?$AA@ ; AI_Choosen

; 1723 : 									sprintf( moji,"J|%X|%X", magic_id, target);

  008bf	8b 85 4c ff ff
	ff		 mov	 eax, DWORD PTR _target$16[ebp]
  008c5	50		 push	 eax
  008c6	8b 8d 64 ff ff
	ff		 mov	 ecx, DWORD PTR _magic_id$18[ebp]
  008cc	51		 push	 ecx
  008cd	68 00 00 00 00	 push	 OFFSET ??_C@_07DLEHBIBA@J?$HM?$CFX?$HM?$CFX?$AA@
  008d2	8d 55 94	 lea	 edx, DWORD PTR _moji$[ebp]
  008d5	52		 push	 edx
  008d6	e8 00 00 00 00	 call	 _sprintf
  008db	83 c4 10	 add	 esp, 16			; 00000010H

; 1724 : 								}else{

  008de	eb 11		 jmp	 SHORT $LN104@AI_ChooseA
$LN107@AI_ChooseA:

; 1725 : 									StockChatBufferLine( "æ— æ³•ä½¿ç”¨è€ä¹…åŠ›å›žå¤çš„ç²¾çµ", FONT_PAL_WHITE);

  008e0	6a 00		 push	 0
  008e2	6a 00		 push	 0
  008e4	68 00 00 00 00	 push	 OFFSET ??_C@_0BH@FMLKODEL@?Y?i?$NL?v?$NO?E?i?D?R?$LB?N?y?U?t?$PM?$NO?$DP?n?$NM?o?q?$DP?$AA@
  008e9	e8 00 00 00 00	 call	 ?StockChatBufferLine@@YAXPADEH@Z ; StockChatBufferLine
  008ee	83 c4 0c	 add	 esp, 12			; 0000000cH
$LN104@AI_ChooseA:

; 1726 : 								}
; 1727 : 							}
; 1728 : 						}
; 1729 : 						if( !done){//ä½¿ç”¨é“å…·è¡¥è€ä¹…åŠ›

  008f1	83 7d e8 00	 cmp	 DWORD PTR _done$[ebp], 0
  008f5	75 4c		 jne	 SHORT $LN103@AI_ChooseA

; 1730 : 							if( item_id > -1){

  008f7	83 bd 58 ff ff
	ff ff		 cmp	 DWORD PTR _item_id$17[ebp], -1
  008fe	7e 32		 jle	 SHORT $LN113@AI_ChooseA

; 1731 : 								done = 1;

  00900	c7 45 e8 01 00
	00 00		 mov	 DWORD PTR _done$[ebp], 1

; 1732 : 								sprintf( moji,"I|%X|%X", item_id, target);

  00907	8b 85 4c ff ff
	ff		 mov	 eax, DWORD PTR _target$16[ebp]
  0090d	50		 push	 eax
  0090e	8b 8d 58 ff ff
	ff		 mov	 ecx, DWORD PTR _item_id$17[ebp]
  00914	51		 push	 ecx
  00915	68 00 00 00 00	 push	 OFFSET ??_C@_07LFMIBPPD@I?$HM?$CFX?$HM?$CFX?$AA@
  0091a	8d 55 94	 lea	 edx, DWORD PTR _moji$[ebp]
  0091d	52		 push	 edx
  0091e	e8 00 00 00 00	 call	 _sprintf
  00923	83 c4 10	 add	 esp, 16			; 00000010H

; 1733 : 								AI_Choosen = "ä½¿ç”¨è€ä¹…åŠ›å›žå¤é“å…·";

  00926	c7 05 00 00 00
	00 00 00 00 00	 mov	 DWORD PTR ?AI_Choosen@@3PADA, OFFSET ??_C@_0BC@PHAAIPHL@?$NO?E?i?D?R?$LB?N?y?U?t?$PM?$NO?$DP?T?$LD?N?$PN?$AA@ ; AI_Choosen

; 1734 : 							}else{

  00930	eb 11		 jmp	 SHORT $LN103@AI_ChooseA
$LN113@AI_ChooseA:

; 1735 : 								StockChatBufferLine( "æ²¡æœ‰è€ä¹…åŠ›å›žå¤çš„é“å…·", FONT_PAL_WHITE);

  00932	6a 00		 push	 0
  00934	6a 00		 push	 0
  00936	68 00 00 00 00	 push	 OFFSET ??_C@_0BD@DBADDAKO@?$DP?j?s?R?$LB?N?y?U?t?$PM?$NO?$DP?n?$NM?T?$LD?N?$PN?$AA@
  0093b	e8 00 00 00 00	 call	 ?StockChatBufferLine@@YAXPADEH@Z ; StockChatBufferLine
  00940	83 c4 0c	 add	 esp, 12			; 0000000cH
$LN103@AI_ChooseA:

; 1736 : 							}
; 1737 : 						}
; 1738 : 					}
; 1739 : 				}else

  00943	eb 11		 jmp	 SHORT $LN80@AI_ChooseA
$LN99@AI_ChooseA:

; 1740 : 					StockChatBufferLine( "æ— æ³•å›žå¤è€ä¹…åŠ›äº†", FONT_PAL_WHITE);

  00945	6a 00		 push	 0
  00947	6a 00		 push	 0
  00949	68 00 00 00 00	 push	 OFFSET ??_C@_0BA@NCPBCDLA@?Y?i?$NL?v?$PM?$NO?$DP?R?$LB?N?y?U?t?V?u?$AA@
  0094e	e8 00 00 00 00	 call	 ?StockChatBufferLine@@YAXPADEH@Z ; StockChatBufferLine
  00953	83 c4 0c	 add	 esp, 12			; 0000000cH
$LN80@AI_ChooseA:

; 1741 : 			}
; 1742 : 		}
; 1743 : 		if( 0==done){

  00956	83 7d e8 00	 cmp	 DWORD PTR _done$[ebp], 0
  0095a	0f 85 8d 03 00
	00		 jne	 $LN115@AI_ChooseA

; 1744 : 			int start = 0, end = 10, target = -1;

  00960	c7 85 10 ff ff
	ff 00 00 00 00	 mov	 DWORD PTR _start$11[ebp], 0
  0096a	c7 85 04 ff ff
	ff 0a 00 00 00	 mov	 DWORD PTR _end$10[ebp], 10 ; 0000000aH
  00974	c7 85 f8 fe ff
	ff ff ff ff ff	 mov	 DWORD PTR _target$9[ebp], -1

; 1745 : 			switch( AI_target[3]){

  0097e	b8 04 00 00 00	 mov	 eax, 4
  00983	6b c8 03	 imul	 ecx, eax, 3
  00986	8b 91 00 00 00
	00		 mov	 edx, DWORD PTR ?AI_target@@3PAHA[ecx]
  0098c	89 95 d0 fd ff
	ff		 mov	 DWORD PTR tv436[ebp], edx
  00992	8b 85 d0 fd ff
	ff		 mov	 eax, DWORD PTR tv436[ebp]
  00998	83 e8 02	 sub	 eax, 2
  0099b	89 85 d0 fd ff
	ff		 mov	 DWORD PTR tv436[ebp], eax
  009a1	83 bd d0 fd ff
	ff 09		 cmp	 DWORD PTR tv436[ebp], 9
  009a8	0f 87 3b 01 00
	00		 ja	 $LN11@AI_ChooseA
  009ae	8b 8d d0 fd ff
	ff		 mov	 ecx, DWORD PTR tv436[ebp]
  009b4	0f b6 91 00 00
	00 00		 movzx	 edx, BYTE PTR $LN182@AI_ChooseA[ecx]
  009bb	ff 24 95 00 00
	00 00		 jmp	 DWORD PTR $LN187@AI_ChooseA[edx*4]
$LN116@AI_ChooseA:

; 1746 : 			case TARGET_MYSIDE:
; 1747 : 				if( p_party[BattleMyNo+5]->func && pet[pc.battlePetNo].hp<=0){

  009c2	a1 00 00 00 00	 mov	 eax, DWORD PTR ?BattleMyNo@@3HA ; BattleMyNo
  009c7	8b 0c 85 14 00
	00 00		 mov	 ecx, DWORD PTR ?p_party@@3PAPAUaction@@A[eax*4+20]
  009ce	83 79 08 00	 cmp	 DWORD PTR [ecx+8], 0
  009d2	74 29		 je	 SHORT $LN117@AI_ChooseA
  009d4	0f bf 05 aa 00
	00 00		 movsx	 eax, WORD PTR ?pc@@3UPC@@A+170
  009db	69 c8 20 0b 00
	00		 imul	 ecx, eax, 2848
  009e1	83 b9 08 00 00
	00 00		 cmp	 DWORD PTR ?pet@@3PAUPET@@A[ecx+8], 0
  009e8	7f 13		 jg	 SHORT $LN117@AI_ChooseA

; 1748 : 					target = BattleMyNo+5;

  009ea	a1 00 00 00 00	 mov	 eax, DWORD PTR ?BattleMyNo@@3HA ; BattleMyNo
  009ef	83 c0 05	 add	 eax, 5
  009f2	89 85 f8 fe ff
	ff		 mov	 DWORD PTR _target$9[ebp], eax

; 1749 : 				}else{

  009f8	e9 95 00 00 00	 jmp	 $LN118@AI_ChooseA
$LN117@AI_ChooseA:

; 1750 : 					if( BattleMyNo >= 10){

  009fd	83 3d 00 00 00
	00 0a		 cmp	 DWORD PTR ?BattleMyNo@@3HA, 10 ; BattleMyNo, 0000000aH
  00a04	7c 14		 jl	 SHORT $LN119@AI_ChooseA

; 1751 : 						start = 10;

  00a06	c7 85 10 ff ff
	ff 0a 00 00 00	 mov	 DWORD PTR _start$11[ebp], 10 ; 0000000aH

; 1752 : 						end = 20;

  00a10	c7 85 04 ff ff
	ff 14 00 00 00	 mov	 DWORD PTR _end$10[ebp], 20 ; 00000014H
$LN119@AI_ChooseA:

; 1753 : 					}
; 1754 : 					for( ; start < end; start++){

  00a1a	eb 0f		 jmp	 SHORT $LN15@AI_ChooseA
$LN13@AI_ChooseA:
  00a1c	8b 85 10 ff ff
	ff		 mov	 eax, DWORD PTR _start$11[ebp]
  00a22	83 c0 01	 add	 eax, 1
  00a25	89 85 10 ff ff
	ff		 mov	 DWORD PTR _start$11[ebp], eax
$LN15@AI_ChooseA:
  00a2b	8b 85 10 ff ff
	ff		 mov	 eax, DWORD PTR _start$11[ebp]
  00a31	3b 85 04 ff ff
	ff		 cmp	 eax, DWORD PTR _end$10[ebp]
  00a37	7d 59		 jge	 SHORT $LN118@AI_ChooseA

; 1755 : 						if( BattleMyNo==start || (BattleMyNo+5)==start)

  00a39	a1 00 00 00 00	 mov	 eax, DWORD PTR ?BattleMyNo@@3HA ; BattleMyNo
  00a3e	3b 85 10 ff ff
	ff		 cmp	 eax, DWORD PTR _start$11[ebp]
  00a44	74 10		 je	 SHORT $LN121@AI_ChooseA
  00a46	a1 00 00 00 00	 mov	 eax, DWORD PTR ?BattleMyNo@@3HA ; BattleMyNo
  00a4b	83 c0 05	 add	 eax, 5
  00a4e	3b 85 10 ff ff
	ff		 cmp	 eax, DWORD PTR _start$11[ebp]
  00a54	75 02		 jne	 SHORT $LN120@AI_ChooseA
$LN121@AI_ChooseA:

; 1756 : 							continue;

  00a56	eb c4		 jmp	 SHORT $LN13@AI_ChooseA
$LN120@AI_ChooseA:

; 1757 : 						if( p_party[start]->func == NULL)

  00a58	8b 85 10 ff ff
	ff		 mov	 eax, DWORD PTR _start$11[ebp]
  00a5e	8b 0c 85 00 00
	00 00		 mov	 ecx, DWORD PTR ?p_party@@3PAPAUaction@@A[eax*4]
  00a65	83 79 08 00	 cmp	 DWORD PTR [ecx+8], 0
  00a69	75 02		 jne	 SHORT $LN122@AI_ChooseA

; 1758 : 							continue;

  00a6b	eb af		 jmp	 SHORT $LN13@AI_ChooseA
$LN122@AI_ChooseA:

; 1759 : 						if( p_party[start]->hp>0)

  00a6d	8b 85 10 ff ff
	ff		 mov	 eax, DWORD PTR _start$11[ebp]
  00a73	8b 0c 85 00 00
	00 00		 mov	 ecx, DWORD PTR ?p_party@@3PAPAUaction@@A[eax*4]
  00a7a	83 79 78 00	 cmp	 DWORD PTR [ecx+120], 0
  00a7e	7e 02		 jle	 SHORT $LN123@AI_ChooseA

; 1760 : 							continue;

  00a80	eb 9a		 jmp	 SHORT $LN13@AI_ChooseA
$LN123@AI_ChooseA:

; 1761 : 						target = start;

  00a82	8b 85 10 ff ff
	ff		 mov	 eax, DWORD PTR _start$11[ebp]
  00a88	89 85 f8 fe ff
	ff		 mov	 DWORD PTR _target$9[ebp], eax

; 1762 : 						break;

  00a8e	eb 02		 jmp	 SHORT $LN118@AI_ChooseA

; 1763 : 					}

  00a90	eb 8a		 jmp	 SHORT $LN13@AI_ChooseA
$LN118@AI_ChooseA:

; 1764 : 				}
; 1765 : 				break;

  00a92	eb 55		 jmp	 SHORT $LN11@AI_ChooseA
$LN124@AI_ChooseA:

; 1766 : 			case TARGET_MYPET:
; 1767 : 				if( p_party[BattleMyNo+5]->func && pet[pc.battlePetNo].hp<=0)

  00a94	a1 00 00 00 00	 mov	 eax, DWORD PTR ?BattleMyNo@@3HA ; BattleMyNo
  00a99	8b 0c 85 14 00
	00 00		 mov	 ecx, DWORD PTR ?p_party@@3PAPAUaction@@A[eax*4+20]
  00aa0	83 79 08 00	 cmp	 DWORD PTR [ecx+8], 0
  00aa4	74 24		 je	 SHORT $LN125@AI_ChooseA
  00aa6	0f bf 05 aa 00
	00 00		 movsx	 eax, WORD PTR ?pc@@3UPC@@A+170
  00aad	69 c8 20 0b 00
	00		 imul	 ecx, eax, 2848
  00ab3	83 b9 08 00 00
	00 00		 cmp	 DWORD PTR ?pet@@3PAUPET@@A[ecx+8], 0
  00aba	7f 0e		 jg	 SHORT $LN125@AI_ChooseA

; 1768 : 					target = BattleMyNo+5;

  00abc	a1 00 00 00 00	 mov	 eax, DWORD PTR ?BattleMyNo@@3HA ; BattleMyNo
  00ac1	83 c0 05	 add	 eax, 5
  00ac4	89 85 f8 fe ff
	ff		 mov	 DWORD PTR _target$9[ebp], eax
$LN125@AI_ChooseA:

; 1769 : 				break;

  00aca	eb 1d		 jmp	 SHORT $LN11@AI_ChooseA
$LN126@AI_ChooseA:

; 1770 : 			case TARGET_1:
; 1771 : 			case TARGET_2:
; 1772 : 			case TARGET_3:
; 1773 : 			case TARGET_4:
; 1774 : 			case TARGET_5:
; 1775 : 				target = GetResurrectTarget( AI_target[3]);

  00acc	b8 04 00 00 00	 mov	 eax, 4
  00ad1	6b c8 03	 imul	 ecx, eax, 3
  00ad4	8b 91 00 00 00
	00		 mov	 edx, DWORD PTR ?AI_target@@3PAHA[ecx]
  00ada	52		 push	 edx
  00adb	e8 00 00 00 00	 call	 ?GetResurrectTarget@@YAHH@Z ; GetResurrectTarget
  00ae0	83 c4 04	 add	 esp, 4
  00ae3	89 85 f8 fe ff
	ff		 mov	 DWORD PTR _target$9[ebp], eax
$LN11@AI_ChooseA:

; 1776 : 				break;
; 1777 : 			}
; 1778 : 			if( target > -1){//å® ç‰©æ­»äº†

  00ae9	83 bd f8 fe ff
	ff ff		 cmp	 DWORD PTR _target$9[ebp], -1
  00af0	0f 8e f7 01 00
	00		 jle	 $LN115@AI_ChooseA

; 1779 : 				if( MAX_MAGIC == AI_method[3]){

  00af6	b8 04 00 00 00	 mov	 eax, 4
  00afb	6b c8 03	 imul	 ecx, eax, 3
  00afe	83 b9 00 00 00
	00 09		 cmp	 DWORD PTR ?AI_method@@3PAHA[ecx], 9
  00b05	0f 85 b0 00 00
	00		 jne	 $LN128@AI_ChooseA

; 1780 : 					int i;
; 1781 : 					for( i = 0; i < MAX_ITEM; i++){

  00b0b	c7 85 ec fe ff
	ff 00 00 00 00	 mov	 DWORD PTR _i$8[ebp], 0
  00b15	eb 0f		 jmp	 SHORT $LN18@AI_ChooseA
$LN16@AI_ChooseA:
  00b17	8b 85 ec fe ff
	ff		 mov	 eax, DWORD PTR _i$8[ebp]
  00b1d	83 c0 01	 add	 eax, 1
  00b20	89 85 ec fe ff
	ff		 mov	 DWORD PTR _i$8[ebp], eax
$LN18@AI_ChooseA:
  00b26	83 bd ec fe ff
	ff 36		 cmp	 DWORD PTR _i$8[ebp], 54	; 00000036H
  00b2d	7d 6d		 jge	 SHORT $LN17@AI_ChooseA

; 1782 : 						if( pc.item[i].useFlag && strstr( pc.item[i].memo, "æ°”ç»å›žå¤")){

  00b2f	69 85 ec fe ff
	ff 7c 01 00 00	 imul	 eax, DWORD PTR _i$8[ebp], 380
  00b39	0f bf 88 a0 01
	00 00		 movsx	 ecx, WORD PTR ?pc@@3UPC@@A[eax+416]
  00b40	85 c9		 test	 ecx, ecx
  00b42	74 53		 je	 SHORT $LN130@AI_ChooseA
  00b44	68 00 00 00 00	 push	 OFFSET ??_C@_05ILBJFPGK@?$DP?$DP?$PM?$NO?$DP?$AA@
  00b49	69 85 ec fe ff
	ff 7c 01 00 00	 imul	 eax, DWORD PTR _i$8[ebp], 380
  00b53	05 d8 01 00 00	 add	 eax, OFFSET ?pc@@3UPC@@A+472
  00b58	50		 push	 eax
  00b59	e8 00 00 00 00	 call	 ?strstr@@YAPADQADQBD@Z	; strstr
  00b5e	83 c4 08	 add	 esp, 8
  00b61	85 c0		 test	 eax, eax
  00b63	74 32		 je	 SHORT $LN130@AI_ChooseA

; 1783 : 							AI_Choosen = "ä½¿ç”¨æ°”ç»å›žå¤é“å…·";

  00b65	c7 05 00 00 00
	00 00 00 00 00	 mov	 DWORD PTR ?AI_Choosen@@3PADA, OFFSET ??_C@_0O@CNGJAGH@?$NO?E?i?D?$DP?$DP?$PM?$NO?$DP?T?$LD?N?$PN?$AA@ ; AI_Choosen

; 1784 : 							done = 1;

  00b6f	c7 45 e8 01 00
	00 00		 mov	 DWORD PTR _done$[ebp], 1

; 1785 : 							sprintf( moji,"I|%X|%X", i, target);

  00b76	8b 85 f8 fe ff
	ff		 mov	 eax, DWORD PTR _target$9[ebp]
  00b7c	50		 push	 eax
  00b7d	8b 8d ec fe ff
	ff		 mov	 ecx, DWORD PTR _i$8[ebp]
  00b83	51		 push	 ecx
  00b84	68 00 00 00 00	 push	 OFFSET ??_C@_07LFMIBPPD@I?$HM?$CFX?$HM?$CFX?$AA@
  00b89	8d 55 94	 lea	 edx, DWORD PTR _moji$[ebp]
  00b8c	52		 push	 edx
  00b8d	e8 00 00 00 00	 call	 _sprintf
  00b92	83 c4 10	 add	 esp, 16			; 00000010H

; 1786 : 							break;

  00b95	eb 05		 jmp	 SHORT $LN17@AI_ChooseA
$LN130@AI_ChooseA:

; 1787 : 						}
; 1788 : 					}

  00b97	e9 7b ff ff ff	 jmp	 $LN16@AI_ChooseA
$LN17@AI_ChooseA:

; 1789 : 					if( i >= MAX_ITEM)

  00b9c	83 bd ec fe ff
	ff 36		 cmp	 DWORD PTR _i$8[ebp], 54	; 00000036H
  00ba3	7c 11		 jl	 SHORT $LN131@AI_ChooseA

; 1790 : 						StockChatBufferLine( "æ²¡æœ‰æ°”ç»å›žå¤çš„é“å…·", FONT_PAL_WHITE);

  00ba5	6a 00		 push	 0
  00ba7	6a 00		 push	 0
  00ba9	68 00 00 00 00	 push	 OFFSET ??_C@_0P@OCELKNNC@?$DP?j?s?$DP?$DP?$PM?$NO?$DP?n?$NM?T?$LD?N?$PN?$AA@
  00bae	e8 00 00 00 00	 call	 ?StockChatBufferLine@@YAXPADEH@Z ; StockChatBufferLine
  00bb3	83 c4 0c	 add	 esp, 12			; 0000000cH
$LN131@AI_ChooseA:

; 1791 : 				}else{

  00bb6	e9 32 01 00 00	 jmp	 $LN115@AI_ChooseA
$LN128@AI_ChooseA:

; 1792 : 					int method = AI_method[3];

  00bbb	b8 04 00 00 00	 mov	 eax, 4
  00bc0	6b c8 03	 imul	 ecx, eax, 3
  00bc3	8b 91 00 00 00
	00		 mov	 edx, DWORD PTR ?AI_method@@3PAHA[ecx]
  00bc9	89 95 e0 fe ff
	ff		 mov	 DWORD PTR _method$7[ebp], edx

; 1793 : 					if( method>-1 && magic[method].useFlag && (str=strstr( magic[method].memo, "æ°”ç»çŠ¶æ€")) && strstr( str, "å›žå¤")){

  00bcf	83 bd e0 fe ff
	ff ff		 cmp	 DWORD PTR _method$7[ebp], -1
  00bd6	0f 8e 00 01 00
	00		 jle	 $LN132@AI_ChooseA
  00bdc	6b 85 e0 fe ff
	ff 70		 imul	 eax, DWORD PTR _method$7[ebp], 112
  00be3	0f bf 88 00 00
	00 00		 movsx	 ecx, WORD PTR ?magic@@3PAUMAGIC@@A[eax]
  00bea	85 c9		 test	 ecx, ecx
  00bec	0f 84 ea 00 00
	00		 je	 $LN132@AI_ChooseA
  00bf2	68 00 00 00 00	 push	 OFFSET ??_C@_04MFANEHND@?$DP?$DP?$DP?$DP?$AA@
  00bf7	6b 85 e0 fe ff
	ff 70		 imul	 eax, DWORD PTR _method$7[ebp], 112
  00bfe	05 27 00 00 00	 add	 eax, OFFSET ?magic@@3PAUMAGIC@@A+39
  00c03	50		 push	 eax
  00c04	e8 00 00 00 00	 call	 ?strstr@@YAPADQADQBD@Z	; strstr
  00c09	83 c4 08	 add	 esp, 8
  00c0c	89 45 f4	 mov	 DWORD PTR _str$[ebp], eax
  00c0f	83 7d f4 00	 cmp	 DWORD PTR _str$[ebp], 0
  00c13	0f 84 c3 00 00
	00		 je	 $LN132@AI_ChooseA
  00c19	68 00 00 00 00	 push	 OFFSET ??_C@_03MNMCLLPK@?$PM?$NO?$DP?$AA@
  00c1e	8b 45 f4	 mov	 eax, DWORD PTR _str$[ebp]
  00c21	50		 push	 eax
  00c22	e8 00 00 00 00	 call	 ?strstr@@YAPADQADQBD@Z	; strstr
  00c27	83 c4 08	 add	 esp, 8
  00c2a	85 c0		 test	 eax, eax
  00c2c	0f 84 aa 00 00
	00		 je	 $LN132@AI_ChooseA

; 1794 : 						if( pc.familySprite == 0){

  00c32	83 3d 4c 51 00
	00 00		 cmp	 DWORD PTR ?pc@@3UPC@@A+20812, 0
  00c39	75 34		 jne	 SHORT $LN134@AI_ChooseA

; 1795 : 							if( (magic[method].mp*80/100) <= p_party[BattleMyNo]->mp )

  00c3b	6b 85 e0 fe ff
	ff 70		 imul	 eax, DWORD PTR _method$7[ebp], 112
  00c42	6b 80 04 00 00
	00 50		 imul	 eax, DWORD PTR ?magic@@3PAUMAGIC@@A[eax+4], 80
  00c49	99		 cdq
  00c4a	b9 64 00 00 00	 mov	 ecx, 100		; 00000064H
  00c4f	f7 f9		 idiv	 ecx
  00c51	8b 15 00 00 00
	00		 mov	 edx, DWORD PTR ?BattleMyNo@@3HA ; BattleMyNo
  00c57	8b 0c 95 00 00
	00 00		 mov	 ecx, DWORD PTR ?p_party@@3PAPAUaction@@A[edx*4]
  00c5e	3b 81 84 00 00
	00		 cmp	 eax, DWORD PTR [ecx+132]
  00c64	7f 07		 jg	 SHORT $LN136@AI_ChooseA

; 1796 : 								done = 1;

  00c66	c7 45 e8 01 00
	00 00		 mov	 DWORD PTR _done$[ebp], 1
$LN136@AI_ChooseA:

; 1797 : 						}else{

  00c6d	eb 29		 jmp	 SHORT $LN135@AI_ChooseA
$LN134@AI_ChooseA:

; 1798 : 							if( magic[method].mp <= p_party[BattleMyNo]->mp )

  00c6f	6b 85 e0 fe ff
	ff 70		 imul	 eax, DWORD PTR _method$7[ebp], 112
  00c76	8b 0d 00 00 00
	00		 mov	 ecx, DWORD PTR ?BattleMyNo@@3HA ; BattleMyNo
  00c7c	8b 14 8d 00 00
	00 00		 mov	 edx, DWORD PTR ?p_party@@3PAPAUaction@@A[ecx*4]
  00c83	8b 80 04 00 00
	00		 mov	 eax, DWORD PTR ?magic@@3PAUMAGIC@@A[eax+4]
  00c89	3b 82 84 00 00
	00		 cmp	 eax, DWORD PTR [edx+132]
  00c8f	7f 07		 jg	 SHORT $LN135@AI_ChooseA

; 1799 : 								done = 1;

  00c91	c7 45 e8 01 00
	00 00		 mov	 DWORD PTR _done$[ebp], 1
$LN135@AI_ChooseA:

; 1800 : 						}
; 1801 : 						if( done == 1){

  00c98	83 7d e8 01	 cmp	 DWORD PTR _done$[ebp], 1
  00c9c	75 2b		 jne	 SHORT $LN138@AI_ChooseA

; 1802 : 							AI_Choosen = "ä½¿ç”¨æ°”ç»å›žå¤ç²¾çµ";

  00c9e	c7 05 00 00 00
	00 00 00 00 00	 mov	 DWORD PTR ?AI_Choosen@@3PADA, OFFSET ??_C@_0N@CBJMBFJA@?$NO?E?i?D?$DP?$DP?$PM?$NO?$DP?o?q?$DP?$AA@ ; AI_Choosen

; 1803 : 							sprintf( moji,"J|%X|%X", method, target);

  00ca8	8b 85 f8 fe ff
	ff		 mov	 eax, DWORD PTR _target$9[ebp]
  00cae	50		 push	 eax
  00caf	8b 8d e0 fe ff
	ff		 mov	 ecx, DWORD PTR _method$7[ebp]
  00cb5	51		 push	 ecx
  00cb6	68 00 00 00 00	 push	 OFFSET ??_C@_07DLEHBIBA@J?$HM?$CFX?$HM?$CFX?$AA@
  00cbb	8d 55 94	 lea	 edx, DWORD PTR _moji$[ebp]
  00cbe	52		 push	 edx
  00cbf	e8 00 00 00 00	 call	 _sprintf
  00cc4	83 c4 10	 add	 esp, 16			; 00000010H

; 1804 : 						}
; 1805 : 						else

  00cc7	eb 11		 jmp	 SHORT $LN139@AI_ChooseA
$LN138@AI_ChooseA:

; 1806 : 							StockChatBufferLine( "MPä¸è¶³æ— æ³•ä½¿ç”¨æ°”ç»å›žå¤çš„ç²¾çµ", FONT_PAL_WHITE);

  00cc9	6a 00		 push	 0
  00ccb	6a 00		 push	 0
  00ccd	68 00 00 00 00	 push	 OFFSET ??_C@_0BJ@CPFMLNIJ@MP?$NM?t?p?k?Y?i?$NL?v?$NO?E?i?D?$DP?$DP?$PM?$NO?$DP?n?$NM?o?q?$DP?$AA@
  00cd2	e8 00 00 00 00	 call	 ?StockChatBufferLine@@YAXPADEH@Z ; StockChatBufferLine
  00cd7	83 c4 0c	 add	 esp, 12			; 0000000cH
$LN139@AI_ChooseA:

; 1807 : 					}
; 1808 : 					else

  00cda	eb 11		 jmp	 SHORT $LN115@AI_ChooseA
$LN132@AI_ChooseA:

; 1809 : 						StockChatBufferLine( "æ²¡æœ‰è®¾å®šæ°”ç»å›žå¤çš„ç²¾çµ", FONT_PAL_WHITE);

  00cdc	6a 00		 push	 0
  00cde	6a 00		 push	 0
  00ce0	68 00 00 00 00	 push	 OFFSET ??_C@_0BB@NIHOBAAH@?$DP?j?s?$DP?o?R?$DP?$DP?$PM?$NO?$DP?n?$NM?o?q?$DP?$AA@
  00ce5	e8 00 00 00 00	 call	 ?StockChatBufferLine@@YAXPADEH@Z ; StockChatBufferLine
  00cea	83 c4 0c	 add	 esp, 12			; 0000000cH
$LN115@AI_ChooseA:

; 1810 : 				}
; 1811 : 			}
; 1812 : 		}
; 1813 : #ifndef _ATTACK_AI
; 1814 : 		if( 0==done && (/*p_party[BattleMyNo]->maxMp*/100*AI_limit[1]/100 > p_party[BattleMyNo]->mp) ){//è¡¥æ°”
; 1815 : #else
; 1816 : 		if(0 == done && ((p_party[BattleMyNo]->maxMp * AI_limit[1] / 100) > p_party[BattleMyNo]->mp) ){//è¡¥æ°”

  00ced	83 7d e8 00	 cmp	 DWORD PTR _done$[ebp], 0
  00cf1	0f 85 64 01 00
	00		 jne	 $LN140@AI_ChooseA
  00cf7	a1 00 00 00 00	 mov	 eax, DWORD PTR ?BattleMyNo@@3HA ; BattleMyNo
  00cfc	8b 0c 85 00 00
	00 00		 mov	 ecx, DWORD PTR ?p_party@@3PAPAUaction@@A[eax*4]
  00d03	ba 04 00 00 00	 mov	 edx, 4
  00d08	c1 e2 00	 shl	 edx, 0
  00d0b	8b 81 88 00 00
	00		 mov	 eax, DWORD PTR [ecx+136]
  00d11	0f af 82 00 00
	00 00		 imul	 eax, DWORD PTR ?AI_limit@@3PAHA[edx]
  00d18	99		 cdq
  00d19	b9 64 00 00 00	 mov	 ecx, 100		; 00000064H
  00d1e	f7 f9		 idiv	 ecx
  00d20	8b 15 00 00 00
	00		 mov	 edx, DWORD PTR ?BattleMyNo@@3HA ; BattleMyNo
  00d26	8b 0c 95 00 00
	00 00		 mov	 ecx, DWORD PTR ?p_party@@3PAPAUaction@@A[edx*4]
  00d2d	3b 81 84 00 00
	00		 cmp	 eax, DWORD PTR [ecx+132]
  00d33	0f 8e 22 01 00
	00		 jle	 $LN140@AI_ChooseA

; 1817 : 			if(g_bUsePS && AI_method[1] != -1){

  00d39	0f b6 05 00 00
	00 00		 movzx	 eax, BYTE PTR ?g_bUsePS@@3_NA ; g_bUsePS
  00d40	85 c0		 test	 eax, eax
  00d42	74 4f		 je	 SHORT $LN141@AI_ChooseA
  00d44	b8 04 00 00 00	 mov	 eax, 4
  00d49	c1 e0 00	 shl	 eax, 0
  00d4c	83 b8 00 00 00
	00 ff		 cmp	 DWORD PTR ?AI_method@@3PAHA[eax], -1
  00d53	74 3e		 je	 SHORT $LN141@AI_ChooseA

; 1818 : 				sprintf( moji,"P|%X|%X",g_iPSindex,BattleMyNo);

  00d55	a1 00 00 00 00	 mov	 eax, DWORD PTR ?BattleMyNo@@3HA ; BattleMyNo
  00d5a	50		 push	 eax
  00d5b	8b 0d 00 00 00
	00		 mov	 ecx, DWORD PTR ?g_iPSindex@@3HA ; g_iPSindex
  00d61	51		 push	 ecx
  00d62	68 00 00 00 00	 push	 OFFSET ??_C@_07NGDMDFPD@P?$HM?$CFX?$HM?$CFX?$AA@
  00d67	8d 55 94	 lea	 edx, DWORD PTR _moji$[ebp]
  00d6a	52		 push	 edx
  00d6b	e8 00 00 00 00	 call	 _sprintf
  00d70	83 c4 10	 add	 esp, 16			; 00000010H

; 1819 : 				done = 1;

  00d73	c7 45 e8 01 00
	00 00		 mov	 DWORD PTR _done$[ebp], 1

; 1820 : 				AI_Choosen = profession_skill[g_iPSindex].name;

  00d7a	69 05 00 00 00
	00 c0 00 00 00	 imul	 eax, DWORD PTR ?g_iPSindex@@3HA, 192 ; g_iPSindex
  00d84	05 08 00 00 00	 add	 eax, OFFSET ?profession_skill@@3PAUPROFESSION_SKILL@@A+8
  00d89	a3 00 00 00 00	 mov	 DWORD PTR ?AI_Choosen@@3PADA, eax ; AI_Choosen

; 1821 : 			}
; 1822 : 			else

  00d8e	e9 c8 00 00 00	 jmp	 $LN140@AI_ChooseA
$LN141@AI_ChooseA:

; 1823 : #endif
; 1824 : 			{
; 1825 : 				int i;
; 1826 : 				for( i = 0; i < MAX_ITEM; i++){

  00d93	c7 85 d4 fe ff
	ff 00 00 00 00	 mov	 DWORD PTR _i$6[ebp], 0
  00d9d	eb 0f		 jmp	 SHORT $LN21@AI_ChooseA
$LN19@AI_ChooseA:
  00d9f	8b 85 d4 fe ff
	ff		 mov	 eax, DWORD PTR _i$6[ebp]
  00da5	83 c0 01	 add	 eax, 1
  00da8	89 85 d4 fe ff
	ff		 mov	 DWORD PTR _i$6[ebp], eax
$LN21@AI_ChooseA:
  00dae	83 bd d4 fe ff
	ff 36		 cmp	 DWORD PTR _i$6[ebp], 54	; 00000036H
  00db5	0f 8d 86 00 00
	00		 jge	 $LN20@AI_ChooseA

; 1827 : 					if( pc.item[i].useFlag && (str=strstr( pc.item[i].memo, "æ°”")) && strstr( str, "å›žå¤")){

  00dbb	69 85 d4 fe ff
	ff 7c 01 00 00	 imul	 eax, DWORD PTR _i$6[ebp], 380
  00dc5	0f bf 88 a0 01
	00 00		 movsx	 ecx, WORD PTR ?pc@@3UPC@@A[eax+416]
  00dcc	85 c9		 test	 ecx, ecx
  00dce	74 6c		 je	 SHORT $LN143@AI_ChooseA
  00dd0	68 00 00 00 00	 push	 OFFSET ??_C@_01OGPIMHDM@?$DP?$AA@
  00dd5	69 85 d4 fe ff
	ff 7c 01 00 00	 imul	 eax, DWORD PTR _i$6[ebp], 380
  00ddf	05 d8 01 00 00	 add	 eax, OFFSET ?pc@@3UPC@@A+472
  00de4	50		 push	 eax
  00de5	e8 00 00 00 00	 call	 ?strstr@@YAPADQADQBD@Z	; strstr
  00dea	83 c4 08	 add	 esp, 8
  00ded	89 45 f4	 mov	 DWORD PTR _str$[ebp], eax
  00df0	83 7d f4 00	 cmp	 DWORD PTR _str$[ebp], 0
  00df4	74 46		 je	 SHORT $LN143@AI_ChooseA
  00df6	68 00 00 00 00	 push	 OFFSET ??_C@_03MNMCLLPK@?$PM?$NO?$DP?$AA@
  00dfb	8b 45 f4	 mov	 eax, DWORD PTR _str$[ebp]
  00dfe	50		 push	 eax
  00dff	e8 00 00 00 00	 call	 ?strstr@@YAPADQADQBD@Z	; strstr
  00e04	83 c4 08	 add	 esp, 8
  00e07	85 c0		 test	 eax, eax
  00e09	74 31		 je	 SHORT $LN143@AI_ChooseA

; 1828 : 						AI_Choosen = "ä½¿ç”¨å›žå¤æ°”åŠ›é“å…·";

  00e0b	c7 05 00 00 00
	00 00 00 00 00	 mov	 DWORD PTR ?AI_Choosen@@3PADA, OFFSET ??_C@_0P@GIILPPGN@?$NO?E?i?D?$PM?$NO?$DP?$DP?U?t?T?$LD?N?$PN?$AA@ ; AI_Choosen

; 1829 : 						done = 1;

  00e15	c7 45 e8 01 00
	00 00		 mov	 DWORD PTR _done$[ebp], 1

; 1830 : 						sprintf( moji,"I|%X|%X", i, BattleMyNo);

  00e1c	a1 00 00 00 00	 mov	 eax, DWORD PTR ?BattleMyNo@@3HA ; BattleMyNo
  00e21	50		 push	 eax
  00e22	8b 8d d4 fe ff
	ff		 mov	 ecx, DWORD PTR _i$6[ebp]
  00e28	51		 push	 ecx
  00e29	68 00 00 00 00	 push	 OFFSET ??_C@_07LFMIBPPD@I?$HM?$CFX?$HM?$CFX?$AA@
  00e2e	8d 55 94	 lea	 edx, DWORD PTR _moji$[ebp]
  00e31	52		 push	 edx
  00e32	e8 00 00 00 00	 call	 _sprintf
  00e37	83 c4 10	 add	 esp, 16			; 00000010H

; 1831 : 						break;

  00e3a	eb 05		 jmp	 SHORT $LN20@AI_ChooseA
$LN143@AI_ChooseA:

; 1832 : 					}
; 1833 : 				}

  00e3c	e9 5e ff ff ff	 jmp	 $LN19@AI_ChooseA
$LN20@AI_ChooseA:

; 1834 : 				if( i >= MAX_ITEM){

  00e41	83 bd d4 fe ff
	ff 36		 cmp	 DWORD PTR _i$6[ebp], 54	; 00000036H
  00e48	7c 11		 jl	 SHORT $LN140@AI_ChooseA

; 1835 : #ifdef  _STONDEBUG_
; 1836 : 					extern STR_BUFFER MyChatBuffer;
; 1837 : 					sprintf(MyChatBuffer.buffer,"[additem 6 2400]");
; 1838 : 					MyChatBuffer.cnt = strlen(MyChatBuffer.buffer);
; 1839 : 					KeyboardReturn();
; 1840 : #endif
; 1841 : 					StockChatBufferLine( "æ²¡æœ‰å›žå¤æ°”åŠ›çš„é“å…·", FONT_PAL_WHITE);

  00e4a	6a 00		 push	 0
  00e4c	6a 00		 push	 0
  00e4e	68 00 00 00 00	 push	 OFFSET ??_C@_0BA@FPPNEEDL@?$DP?j?s?$PM?$NO?$DP?$DP?U?t?n?$NM?T?$LD?N?$PN?$AA@
  00e53	e8 00 00 00 00	 call	 ?StockChatBufferLine@@YAXPADEH@Z ; StockChatBufferLine
  00e58	83 c4 0c	 add	 esp, 12			; 0000000cH
$LN140@AI_ChooseA:

; 1842 : 				}
; 1843 : 			}
; 1844 : 		}
; 1845 : 		if( 0 == done){

  00e5b	83 7d e8 00	 cmp	 DWORD PTR _done$[ebp], 0
  00e5f	0f 85 f1 01 00
	00		 jne	 $LN145@AI_ChooseA

; 1846 : //			if( BattleBpFlag & BATTLE_BP_BOOMERANG ){
; 1847 : //			}
; 1848 : 			//å¦‚è‡ªå·±æˆ–å® ç‰©æ²¡æœ‰è¡€ ä¸” æ²¡æœ‰æ°” å°±é€ƒè·‘
; 1849 : 			if( ( (p_party[BattleMyNo]->maxHp*AI_limit[0]/100 > p_party[BattleMyNo]->hp) ||

  00e65	a1 00 00 00 00	 mov	 eax, DWORD PTR ?BattleMyNo@@3HA ; BattleMyNo
  00e6a	8b 0c 85 00 00
	00 00		 mov	 ecx, DWORD PTR ?p_party@@3PAPAUaction@@A[eax*4]
  00e71	ba 04 00 00 00	 mov	 edx, 4
  00e76	6b c2 00	 imul	 eax, edx, 0
  00e79	8b 89 80 00 00
	00		 mov	 ecx, DWORD PTR [ecx+128]
  00e7f	0f af 88 00 00
	00 00		 imul	 ecx, DWORD PTR ?AI_limit@@3PAHA[eax]
  00e86	8b c1		 mov	 eax, ecx
  00e88	99		 cdq
  00e89	b9 64 00 00 00	 mov	 ecx, 100		; 00000064H
  00e8e	f7 f9		 idiv	 ecx
  00e90	8b 15 00 00 00
	00		 mov	 edx, DWORD PTR ?BattleMyNo@@3HA ; BattleMyNo
  00e96	8b 0c 95 00 00
	00 00		 mov	 ecx, DWORD PTR ?p_party@@3PAPAUaction@@A[edx*4]
  00e9d	3b 41 78	 cmp	 eax, DWORD PTR [ecx+120]
  00ea0	0f 8f 87 00 00
	00		 jg	 $LN147@AI_ChooseA
  00ea6	a1 00 00 00 00	 mov	 eax, DWORD PTR ?BattleMyNo@@3HA ; BattleMyNo
  00eab	8b 0c 85 14 00
	00 00		 mov	 ecx, DWORD PTR ?p_party@@3PAPAUaction@@A[eax*4+20]
  00eb2	83 79 08 00	 cmp	 DWORD PTR [ecx+8], 0
  00eb6	0f 84 55 01 00
	00		 je	 $LN146@AI_ChooseA
  00ebc	0f bf 05 aa 00
	00 00		 movsx	 eax, WORD PTR ?pc@@3UPC@@A+170
  00ec3	69 c8 20 0b 00
	00		 imul	 ecx, eax, 2848
  00ec9	83 b9 08 00 00
	00 00		 cmp	 DWORD PTR ?pet@@3PAUPET@@A[ecx+8], 0
  00ed0	7e 41		 jle	 SHORT $LN149@AI_ChooseA
  00ed2	0f bf 05 aa 00
	00 00		 movsx	 eax, WORD PTR ?pc@@3UPC@@A+170
  00ed9	69 c8 20 0b 00
	00		 imul	 ecx, eax, 2848
  00edf	ba 04 00 00 00	 mov	 edx, 4
  00ee4	6b c2 00	 imul	 eax, edx, 0
  00ee7	8b 89 0c 00 00
	00		 mov	 ecx, DWORD PTR ?pet@@3PAUPET@@A[ecx+12]
  00eed	0f af 88 00 00
	00 00		 imul	 ecx, DWORD PTR ?AI_limit@@3PAHA[eax]
  00ef4	8b c1		 mov	 eax, ecx
  00ef6	99		 cdq
  00ef7	b9 64 00 00 00	 mov	 ecx, 100		; 00000064H
  00efc	f7 f9		 idiv	 ecx
  00efe	0f bf 15 aa 00
	00 00		 movsx	 edx, WORD PTR ?pc@@3UPC@@A+170
  00f05	69 ca 20 0b 00
	00		 imul	 ecx, edx, 2848
  00f0b	3b 81 08 00 00
	00		 cmp	 eax, DWORD PTR ?pet@@3PAUPET@@A[ecx+8]
  00f11	7f 1a		 jg	 SHORT $LN147@AI_ChooseA
$LN149@AI_ChooseA:
  00f13	0f bf 05 aa 00
	00 00		 movsx	 eax, WORD PTR ?pc@@3UPC@@A+170
  00f1a	69 c8 20 0b 00
	00		 imul	 ecx, eax, 2848
  00f20	83 b9 08 00 00
	00 00		 cmp	 DWORD PTR ?pet@@3PAUPET@@A[ecx+8], 0
  00f27	0f 8f e4 00 00
	00		 jg	 $LN146@AI_ChooseA
$LN147@AI_ChooseA:

; 1850 : 				(p_party[BattleMyNo+5]->func &&		 
; 1851 : 				( (pet[pc.battlePetNo].hp>0 && pet[pc.battlePetNo].maxHp*AI_limit[0]/100>pet[pc.battlePetNo].hp) ||
; 1852 : 				pet[pc.battlePetNo].hp<=0) ) ) ){
; 1853 : 				int mp_enough = FALSE;

  00f2d	c7 85 c8 fe ff
	ff 00 00 00 00	 mov	 DWORD PTR _mp_enough$5[ebp], 0

; 1854 : 				if( 0<=AI_method[0] && AI_method[0]<MAX_MAGIC){//æœ‰è®¾å®šä½¿ç”¨è¡¥è¡€ç²¾çµ

  00f37	b8 04 00 00 00	 mov	 eax, 4
  00f3c	6b c8 00	 imul	 ecx, eax, 0
  00f3f	83 b9 00 00 00
	00 00		 cmp	 DWORD PTR ?AI_method@@3PAHA[ecx], 0
  00f46	0f 8c 9a 00 00
	00		 jl	 $LN150@AI_ChooseA
  00f4c	b8 04 00 00 00	 mov	 eax, 4
  00f51	6b c8 00	 imul	 ecx, eax, 0
  00f54	83 b9 00 00 00
	00 09		 cmp	 DWORD PTR ?AI_method@@3PAHA[ecx], 9
  00f5b	0f 8d 85 00 00
	00		 jge	 $LN150@AI_ChooseA

; 1855 : 					mp_enough = TRUE;//è®°å½•MPæ˜¯å¦è¶³å¤Ÿ

  00f61	c7 85 c8 fe ff
	ff 01 00 00 00	 mov	 DWORD PTR _mp_enough$5[ebp], 1

; 1856 : 					if( pc.familySprite == 0){

  00f6b	83 3d 4c 51 00
	00 00		 cmp	 DWORD PTR ?pc@@3UPC@@A+20812, 0
  00f72	75 3f		 jne	 SHORT $LN151@AI_ChooseA

; 1857 : 						if( (magic[AI_method[0]].mp*80/100) > p_party[BattleMyNo]->mp )

  00f74	b8 04 00 00 00	 mov	 eax, 4
  00f79	6b c8 00	 imul	 ecx, eax, 0
  00f7c	6b 91 00 00 00
	00 70		 imul	 edx, DWORD PTR ?AI_method@@3PAHA[ecx], 112
  00f83	6b 82 04 00 00
	00 50		 imul	 eax, DWORD PTR ?magic@@3PAUMAGIC@@A[edx+4], 80
  00f8a	99		 cdq
  00f8b	b9 64 00 00 00	 mov	 ecx, 100		; 00000064H
  00f90	f7 f9		 idiv	 ecx
  00f92	8b 15 00 00 00
	00		 mov	 edx, DWORD PTR ?BattleMyNo@@3HA ; BattleMyNo
  00f98	8b 0c 95 00 00
	00 00		 mov	 ecx, DWORD PTR ?p_party@@3PAPAUaction@@A[edx*4]
  00f9f	3b 81 84 00 00
	00		 cmp	 eax, DWORD PTR [ecx+132]
  00fa5	7e 0a		 jle	 SHORT $LN153@AI_ChooseA

; 1858 : 							mp_enough = FALSE;

  00fa7	c7 85 c8 fe ff
	ff 00 00 00 00	 mov	 DWORD PTR _mp_enough$5[ebp], 0
$LN153@AI_ChooseA:

; 1859 : 					}else{

  00fb1	eb 33		 jmp	 SHORT $LN150@AI_ChooseA
$LN151@AI_ChooseA:

; 1860 : 						if( magic[AI_method[0]].mp > p_party[BattleMyNo]->mp )

  00fb3	b8 04 00 00 00	 mov	 eax, 4
  00fb8	6b c8 00	 imul	 ecx, eax, 0
  00fbb	6b 91 00 00 00
	00 70		 imul	 edx, DWORD PTR ?AI_method@@3PAHA[ecx], 112
  00fc2	a1 00 00 00 00	 mov	 eax, DWORD PTR ?BattleMyNo@@3HA ; BattleMyNo
  00fc7	8b 0c 85 00 00
	00 00		 mov	 ecx, DWORD PTR ?p_party@@3PAPAUaction@@A[eax*4]
  00fce	8b 92 04 00 00
	00		 mov	 edx, DWORD PTR ?magic@@3PAUMAGIC@@A[edx+4]
  00fd4	3b 91 84 00 00
	00		 cmp	 edx, DWORD PTR [ecx+132]
  00fda	7e 0a		 jle	 SHORT $LN150@AI_ChooseA

; 1861 : 							mp_enough = FALSE;

  00fdc	c7 85 c8 fe ff
	ff 00 00 00 00	 mov	 DWORD PTR _mp_enough$5[ebp], 0
$LN150@AI_ChooseA:

; 1862 : 					}
; 1863 : 				}
; 1864 : 				if( mp_enough == FALSE){//æ²¡æœ‰è®¾å®šä½¿ç”¨è¡¥è¡€ç²¾çµ æˆ– MPä¸è¶³

  00fe6	83 bd c8 fe ff
	ff 00		 cmp	 DWORD PTR _mp_enough$5[ebp], 0
  00fed	75 22		 jne	 SHORT $LN146@AI_ChooseA

; 1865 : 					battlePlayerEscFlag = TRUE;

  00fef	c7 05 00 00 00
	00 01 00 00 00	 mov	 DWORD PTR ?battlePlayerEscFlag@@3HA, 1 ; battlePlayerEscFlag

; 1866 : 					strcpy( moji, "E");

  00ff9	68 00 00 00 00	 push	 OFFSET ??_C@_01DDCIFGEA@E?$AA@
  00ffe	8d 45 94	 lea	 eax, DWORD PTR _moji$[ebp]
  01001	50		 push	 eax
  01002	e8 00 00 00 00	 call	 _strcpy
  01007	83 c4 08	 add	 esp, 8

; 1867 : 					done = 1;

  0100a	c7 45 e8 01 00
	00 00		 mov	 DWORD PTR _done$[ebp], 1
$LN146@AI_ChooseA:

; 1868 : 				}
; 1869 : 			}
; 1870 : 			if( !done){

  01011	83 7d e8 00	 cmp	 DWORD PTR _done$[ebp], 0
  01015	75 3f		 jne	 SHORT $LN145@AI_ChooseA

; 1871 : 				int targetNo;
; 1872 : #ifdef _ATTACK_AI
; 1873 : 				if(AttackAIProc(4,moji) <= 0)

  01017	8d 45 94	 lea	 eax, DWORD PTR _moji$[ebp]
  0101a	50		 push	 eax
  0101b	6a 04		 push	 4
  0101d	e8 00 00 00 00	 call	 ?AttackAIProc@@YAHHPAD@Z ; AttackAIProc
  01022	83 c4 08	 add	 esp, 8
  01025	85 c0		 test	 eax, eax
  01027	7f 2d		 jg	 SHORT $LN145@AI_ChooseA

; 1874 : #endif
; 1875 : 				{
; 1876 : 					targetNo = GetBattelTarget();

  01029	e8 00 00 00 00	 call	 ?GetBattelTarget@@YAHXZ	; GetBattelTarget
  0102e	89 85 bc fe ff
	ff		 mov	 DWORD PTR _targetNo$4[ebp], eax

; 1877 : 					sprintf( moji, "H|%X", targetNo );

  01034	8b 85 bc fe ff
	ff		 mov	 eax, DWORD PTR _targetNo$4[ebp]
  0103a	50		 push	 eax
  0103b	68 00 00 00 00	 push	 OFFSET ??_C@_04DMFDFHBJ@H?$HM?$CFX?$AA@
  01040	8d 4d 94	 lea	 ecx, DWORD PTR _moji$[ebp]
  01043	51		 push	 ecx
  01044	e8 00 00 00 00	 call	 _sprintf
  01049	83 c4 0c	 add	 esp, 12			; 0000000cH

; 1878 : 					AI_Choosen = "ìžë™ê³µê²©";

  0104c	c7 05 00 00 00
	00 00 00 00 00	 mov	 DWORD PTR ?AI_Choosen@@3PADA, OFFSET ??_C@_08NOADAHE@?$MA?Z?$LF?$LP?$LA?x?$LA?$NN?$AA@ ; AI_Choosen
$LN145@AI_ChooseA:

; 1879 : 				}
; 1880 : 			}
; 1881 : 		}
; 1882 : 		if( bNewServer)

  01056	83 3d 00 00 00
	00 00		 cmp	 DWORD PTR ?bNewServer@@3HA, 0 ; bNewServer
  0105d	74 15		 je	 SHORT $LN158@AI_ChooseA

; 1883 : 			lssproto_B_send( sockfd, moji );

  0105f	8d 45 94	 lea	 eax, DWORD PTR _moji$[ebp]
  01062	50		 push	 eax
  01063	8b 0d 00 00 00
	00		 mov	 ecx, DWORD PTR ?sockfd@@3IA ; sockfd
  01069	51		 push	 ecx
  0106a	e8 00 00 00 00	 call	 ?lssproto_B_send@@YAXHPAD@Z ; lssproto_B_send
  0106f	83 c4 08	 add	 esp, 8

; 1884 : 		else

  01072	eb 13		 jmp	 SHORT $LN34@AI_ChooseA
$LN158@AI_ChooseA:

; 1885 : 			old_lssproto_B_send( sockfd, moji );

  01074	8d 45 94	 lea	 eax, DWORD PTR _moji$[ebp]
  01077	50		 push	 eax
  01078	8b 0d 00 00 00
	00		 mov	 ecx, DWORD PTR ?sockfd@@3IA ; sockfd
  0107e	51		 push	 ecx
  0107f	e8 00 00 00 00	 call	 ?old_lssproto_B_send@@YAXHPAD@Z ; old_lssproto_B_send
  01084	83 c4 08	 add	 esp, 8
$LN34@AI_ChooseA:

; 1886 : 	}
; 1887 : 	done = 0;

  01087	c7 45 e8 00 00
	00 00		 mov	 DWORD PTR _done$[ebp], 0

; 1888 : 	strcpy( moji, "W|FF|FF");

  0108e	68 00 00 00 00	 push	 OFFSET ??_C@_07BDJJCCFL@W?$HMFF?$HMFF?$AA@
  01093	8d 45 94	 lea	 eax, DWORD PTR _moji$[ebp]
  01096	50		 push	 eax
  01097	e8 00 00 00 00	 call	 _strcpy
  0109c	83 c4 08	 add	 esp, 8

; 1889 : 	if( pc.battlePetNo>-1 && p_party[BattleMyNo+5]->hp>0 ){

  0109f	0f bf 05 aa 00
	00 00		 movsx	 eax, WORD PTR ?pc@@3UPC@@A+170
  010a6	83 f8 ff	 cmp	 eax, -1
  010a9	0f 8e 19 02 00
	00		 jle	 $LN160@AI_ChooseA
  010af	a1 00 00 00 00	 mov	 eax, DWORD PTR ?BattleMyNo@@3HA ; BattleMyNo
  010b4	8b 0c 85 14 00
	00 00		 mov	 ecx, DWORD PTR ?p_party@@3PAPAUaction@@A[eax*4+20]
  010bb	83 79 78 00	 cmp	 DWORD PTR [ecx+120], 0
  010bf	0f 8e 03 02 00
	00		 jle	 $LN160@AI_ChooseA

; 1890 : 		if( BattleBpFlag & BATTLE_BP_PET_MENU_NON || p_party[ BattleMyNo ]->hp <= 0 || battlePlayerEscFlag == TRUE){

  010c5	a1 00 00 00 00	 mov	 eax, DWORD PTR ?BattleBpFlag@@3HA ; BattleBpFlag
  010ca	83 e0 08	 and	 eax, 8
  010cd	75 1b		 jne	 SHORT $LN163@AI_ChooseA
  010cf	a1 00 00 00 00	 mov	 eax, DWORD PTR ?BattleMyNo@@3HA ; BattleMyNo
  010d4	8b 0c 85 00 00
	00 00		 mov	 ecx, DWORD PTR ?p_party@@3PAPAUaction@@A[eax*4]
  010db	83 79 78 00	 cmp	 DWORD PTR [ecx+120], 0
  010df	7e 09		 jle	 SHORT $LN163@AI_ChooseA
  010e1	83 3d 00 00 00
	00 01		 cmp	 DWORD PTR ?battlePlayerEscFlag@@3HA, 1 ; battlePlayerEscFlag
  010e8	75 05		 jne	 SHORT $LN161@AI_ChooseA
$LN163@AI_ChooseA:

; 1891 : 		}else{

  010ea	e9 d9 01 00 00	 jmp	 $LN160@AI_ChooseA
$LN161@AI_ChooseA:

; 1892 : 			int skill_id = -1;

  010ef	c7 85 b0 fe ff
	ff ff ff ff ff	 mov	 DWORD PTR _skill_id$3[ebp], -1

; 1893 : 			for( int i = 0; i < pet[pc.battlePetNo].maxSkill; i++){

  010f9	c7 85 a4 fe ff
	ff 00 00 00 00	 mov	 DWORD PTR _i$2[ebp], 0
  01103	eb 0f		 jmp	 SHORT $LN24@AI_ChooseA
$LN22@AI_ChooseA:
  01105	8b 85 a4 fe ff
	ff		 mov	 eax, DWORD PTR _i$2[ebp]
  0110b	83 c0 01	 add	 eax, 1
  0110e	89 85 a4 fe ff
	ff		 mov	 DWORD PTR _i$2[ebp], eax
$LN24@AI_ChooseA:
  01114	0f bf 05 aa 00
	00 00		 movsx	 eax, WORD PTR ?pc@@3UPC@@A+170
  0111b	69 c8 20 0b 00
	00		 imul	 ecx, eax, 2848
  01121	8b 95 a4 fe ff
	ff		 mov	 edx, DWORD PTR _i$2[ebp]
  01127	3b 91 44 00 00
	00		 cmp	 edx, DWORD PTR ?pet@@3PAUPET@@A[ecx+68]
  0112d	0f 8d e0 00 00
	00		 jge	 $LN23@AI_ChooseA

; 1894 : 				if( petSkill[pc.battlePetNo][i].useFlag == TRUE && 

  01133	0f bf 05 aa 00
	00 00		 movsx	 eax, WORD PTR ?pc@@3UPC@@A+170
  0113a	69 c8 e6 02 00
	00		 imul	 ecx, eax, 742
  01140	6b 95 a4 fe ff
	ff 6a		 imul	 edx, DWORD PTR _i$2[ebp], 106
  01147	0f bf 84 11 00
	00 00 00	 movsx	 eax, WORD PTR ?petSkill@@3PAY06UPET_SKILL@@A[ecx+edx]
  0114f	83 f8 01	 cmp	 eax, 1
  01152	0f 85 b6 00 00
	00		 jne	 $LN164@AI_ChooseA
  01158	0f bf 05 aa 00
	00 00		 movsx	 eax, WORD PTR ?pc@@3UPC@@A+170
  0115f	69 c8 e6 02 00
	00		 imul	 ecx, eax, 742
  01165	6b 95 a4 fe ff
	ff 6a		 imul	 edx, DWORD PTR _i$2[ebp], 106
  0116c	0f bf 84 11 04
	00 00 00	 movsx	 eax, WORD PTR ?petSkill@@3PAY06UPET_SKILL@@A[ecx+edx+4]
  01174	83 f8 02	 cmp	 eax, 2
  01177	0f 84 91 00 00
	00		 je	 $LN164@AI_ChooseA

; 1895 : 					petSkill[pc.battlePetNo][i].field != PETSKILL_FIELD_MAP){
; 1896 : 					if( skill_id == -1)

  0117d	83 bd b0 fe ff
	ff ff		 cmp	 DWORD PTR _skill_id$3[ebp], -1
  01184	75 0c		 jne	 SHORT $LN165@AI_ChooseA

; 1897 : 						skill_id = i;

  01186	8b 85 a4 fe ff
	ff		 mov	 eax, DWORD PTR _i$2[ebp]
  0118c	89 85 b0 fe ff
	ff		 mov	 DWORD PTR _skill_id$3[ebp], eax
$LN165@AI_ChooseA:

; 1898 : 					if( petSkill[pc.battlePetNo][i].skillId!=2 && petSkill[pc.battlePetNo][i].skillId!=0)

  01192	0f bf 05 aa 00
	00 00		 movsx	 eax, WORD PTR ?pc@@3UPC@@A+170
  01199	69 c8 e6 02 00
	00		 imul	 ecx, eax, 742
  0119f	6b 95 a4 fe ff
	ff 6a		 imul	 edx, DWORD PTR _i$2[ebp], 106
  011a6	0f bf 84 11 02
	00 00 00	 movsx	 eax, WORD PTR ?petSkill@@3PAY06UPET_SKILL@@A[ecx+edx+2]
  011ae	83 f8 02	 cmp	 eax, 2
  011b1	74 2c		 je	 SHORT $LN166@AI_ChooseA
  011b3	0f bf 05 aa 00
	00 00		 movsx	 eax, WORD PTR ?pc@@3UPC@@A+170
  011ba	69 c8 e6 02 00
	00		 imul	 ecx, eax, 742
  011c0	6b 95 a4 fe ff
	ff 6a		 imul	 edx, DWORD PTR _i$2[ebp], 106
  011c7	0f bf 84 11 02
	00 00 00	 movsx	 eax, WORD PTR ?petSkill@@3PAY06UPET_SKILL@@A[ecx+edx+2]
  011cf	85 c0		 test	 eax, eax
  011d1	74 0c		 je	 SHORT $LN166@AI_ChooseA

; 1899 : 						skill_id = i;

  011d3	8b 85 a4 fe ff
	ff		 mov	 eax, DWORD PTR _i$2[ebp]
  011d9	89 85 b0 fe ff
	ff		 mov	 DWORD PTR _skill_id$3[ebp], eax
$LN166@AI_ChooseA:

; 1900 : 					if( petSkill[pc.battlePetNo][i].skillId == 1){

  011df	0f bf 05 aa 00
	00 00		 movsx	 eax, WORD PTR ?pc@@3UPC@@A+170
  011e6	69 c8 e6 02 00
	00		 imul	 ecx, eax, 742
  011ec	6b 95 a4 fe ff
	ff 6a		 imul	 edx, DWORD PTR _i$2[ebp], 106
  011f3	0f bf 84 11 02
	00 00 00	 movsx	 eax, WORD PTR ?petSkill@@3PAY06UPET_SKILL@@A[ecx+edx+2]
  011fb	83 f8 01	 cmp	 eax, 1
  011fe	75 0e		 jne	 SHORT $LN164@AI_ChooseA

; 1901 : 						skill_id = i;

  01200	8b 85 a4 fe ff
	ff		 mov	 eax, DWORD PTR _i$2[ebp]
  01206	89 85 b0 fe ff
	ff		 mov	 DWORD PTR _skill_id$3[ebp], eax

; 1902 : 						break;

  0120c	eb 05		 jmp	 SHORT $LN23@AI_ChooseA
$LN164@AI_ChooseA:

; 1903 : 					}
; 1904 : 				}
; 1905 : 			}

  0120e	e9 f2 fe ff ff	 jmp	 $LN22@AI_ChooseA
$LN23@AI_ChooseA:

; 1906 : 			if( skill_id > -1){

  01213	83 bd b0 fe ff
	ff ff		 cmp	 DWORD PTR _skill_id$3[ebp], -1
  0121a	0f 8e a8 00 00
	00		 jle	 $LN160@AI_ChooseA

; 1907 : 				switch( petSkill[pc.battlePetNo][skill_id].target){

  01220	0f bf 05 aa 00
	00 00		 movsx	 eax, WORD PTR ?pc@@3UPC@@A+170
  01227	69 c8 e6 02 00
	00		 imul	 ecx, eax, 742
  0122d	6b 95 b0 fe ff
	ff 6a		 imul	 edx, DWORD PTR _skill_id$3[ebp], 106
  01234	0f bf 84 11 06
	00 00 00	 movsx	 eax, WORD PTR ?petSkill@@3PAY06UPET_SKILL@@A[ecx+edx+6]
  0123c	89 85 d0 fd ff
	ff		 mov	 DWORD PTR tv757[ebp], eax
  01242	83 bd d0 fd ff
	ff 06		 cmp	 DWORD PTR tv757[ebp], 6
  01249	77 61		 ja	 SHORT $LN25@AI_ChooseA
  0124b	8b 8d d0 fd ff
	ff		 mov	 ecx, DWORD PTR tv757[ebp]
  01251	ff 24 8d 00 00
	00 00		 jmp	 DWORD PTR $LN188@AI_ChooseA[ecx*4]
$LN169@AI_ChooseA:

; 1908 : 				case PETSKILL_TARGET_MYSELF:
; 1909 : 					targetNo = BattleMyNo + 5;

  01258	a1 00 00 00 00	 mov	 eax, DWORD PTR ?BattleMyNo@@3HA ; BattleMyNo
  0125d	83 c0 05	 add	 eax, 5
  01260	89 45 dc	 mov	 DWORD PTR _targetNo$[ebp], eax

; 1910 : 					break;

  01263	eb 47		 jmp	 SHORT $LN25@AI_ChooseA
$LN170@AI_ChooseA:

; 1911 : 				case PETSKILL_TARGET_OTHER:
; 1912 : 				case PETSKILL_TARGET_OTHERWITHOUTMYSELF:
; 1913 : 					targetNo = GetBattelTarget();

  01265	e8 00 00 00 00	 call	 ?GetBattelTarget@@YAHXZ	; GetBattelTarget
  0126a	89 45 dc	 mov	 DWORD PTR _targetNo$[ebp], eax

; 1914 : 					break;

  0126d	eb 3d		 jmp	 SHORT $LN25@AI_ChooseA
$LN171@AI_ChooseA:

; 1915 : 				case PETSKILL_TARGET_ALLMYSIDE:
; 1916 : 					if( BattleMyNo < 10 ) targetNo = 20;

  0126f	83 3d 00 00 00
	00 0a		 cmp	 DWORD PTR ?BattleMyNo@@3HA, 10 ; BattleMyNo, 0000000aH
  01276	7d 09		 jge	 SHORT $LN172@AI_ChooseA
  01278	c7 45 dc 14 00
	00 00		 mov	 DWORD PTR _targetNo$[ebp], 20 ; 00000014H
  0127f	eb 07		 jmp	 SHORT $LN173@AI_ChooseA
$LN172@AI_ChooseA:

; 1917 : 					else targetNo = 21;

  01281	c7 45 dc 15 00
	00 00		 mov	 DWORD PTR _targetNo$[ebp], 21 ; 00000015H
$LN173@AI_ChooseA:

; 1918 : 					break;

  01288	eb 22		 jmp	 SHORT $LN25@AI_ChooseA
$LN174@AI_ChooseA:

; 1919 : 				case PETSKILL_TARGET_ALLOTHERSIDE:
; 1920 : 					if( BattleMyNo < 10 ) targetNo = 21;

  0128a	83 3d 00 00 00
	00 0a		 cmp	 DWORD PTR ?BattleMyNo@@3HA, 10 ; BattleMyNo, 0000000aH
  01291	7d 09		 jge	 SHORT $LN175@AI_ChooseA
  01293	c7 45 dc 15 00
	00 00		 mov	 DWORD PTR _targetNo$[ebp], 21 ; 00000015H
  0129a	eb 07		 jmp	 SHORT $LN176@AI_ChooseA
$LN175@AI_ChooseA:

; 1921 : 					else targetNo = 20;

  0129c	c7 45 dc 14 00
	00 00		 mov	 DWORD PTR _targetNo$[ebp], 20 ; 00000014H
$LN176@AI_ChooseA:

; 1922 : 					break;

  012a3	eb 07		 jmp	 SHORT $LN25@AI_ChooseA
$LN177@AI_ChooseA:

; 1923 : 				case PETSKILL_TARGET_ALL:
; 1924 : 					targetNo = 22;

  012a5	c7 45 dc 16 00
	00 00		 mov	 DWORD PTR _targetNo$[ebp], 22 ; 00000016H
$LN25@AI_ChooseA:

; 1925 : 					break;
; 1926 : 				}
; 1927 : 				sprintf( moji, "W|%X|%X", skill_id, targetNo);

  012ac	8b 45 dc	 mov	 eax, DWORD PTR _targetNo$[ebp]
  012af	50		 push	 eax
  012b0	8b 8d b0 fe ff
	ff		 mov	 ecx, DWORD PTR _skill_id$3[ebp]
  012b6	51		 push	 ecx
  012b7	68 00 00 00 00	 push	 OFFSET ??_C@_07NMPJDMOK@W?$HM?$CFX?$HM?$CFX?$AA@
  012bc	8d 55 94	 lea	 edx, DWORD PTR _moji$[ebp]
  012bf	52		 push	 edx
  012c0	e8 00 00 00 00	 call	 _sprintf
  012c5	83 c4 10	 add	 esp, 16			; 00000010H
$LN160@AI_ChooseA:

; 1928 : 			}
; 1929 : 		}
; 1930 : 	}
; 1931 : 	if( bNewServer)

  012c8	83 3d 00 00 00
	00 00		 cmp	 DWORD PTR ?bNewServer@@3HA, 0 ; bNewServer
  012cf	74 15		 je	 SHORT $LN178@AI_ChooseA

; 1932 : 		lssproto_B_send( sockfd, moji);

  012d1	8d 45 94	 lea	 eax, DWORD PTR _moji$[ebp]
  012d4	50		 push	 eax
  012d5	8b 0d 00 00 00
	00		 mov	 ecx, DWORD PTR ?sockfd@@3IA ; sockfd
  012db	51		 push	 ecx
  012dc	e8 00 00 00 00	 call	 ?lssproto_B_send@@YAXHPAD@Z ; lssproto_B_send
  012e1	83 c4 08	 add	 esp, 8

; 1933 : 	else

  012e4	eb 13		 jmp	 SHORT $LN179@AI_ChooseA
$LN178@AI_ChooseA:

; 1934 : 		old_lssproto_B_send( sockfd, moji);

  012e6	8d 45 94	 lea	 eax, DWORD PTR _moji$[ebp]
  012e9	50		 push	 eax
  012ea	8b 0d 00 00 00
	00		 mov	 ecx, DWORD PTR ?sockfd@@3IA ; sockfd
  012f0	51		 push	 ecx
  012f1	e8 00 00 00 00	 call	 ?old_lssproto_B_send@@YAXHPAD@Z ; old_lssproto_B_send
  012f6	83 c4 08	 add	 esp, 8
$LN179@AI_ChooseA:

; 1935 : 	for( int i = 0; i < 20; i++){

  012f9	c7 85 98 fe ff
	ff 00 00 00 00	 mov	 DWORD PTR _i$1[ebp], 0
  01303	eb 0f		 jmp	 SHORT $LN29@AI_ChooseA
$LN27@AI_ChooseA:
  01305	8b 85 98 fe ff
	ff		 mov	 eax, DWORD PTR _i$1[ebp]
  0130b	83 c0 01	 add	 eax, 1
  0130e	89 85 98 fe ff
	ff		 mov	 DWORD PTR _i$1[ebp], eax
$LN29@AI_ChooseA:
  01314	83 bd 98 fe ff
	ff 14		 cmp	 DWORD PTR _i$1[ebp], 20	; 00000014H
  0131b	7d 41		 jge	 SHORT $LN28@AI_ChooseA

; 1936 : 		if( 0 == (p_party[i]->atr & p_party[i]->atr) )

  0131d	8b 85 98 fe ff
	ff		 mov	 eax, DWORD PTR _i$1[ebp]
  01323	8b 0c 85 00 00
	00 00		 mov	 ecx, DWORD PTR ?p_party@@3PAPAUaction@@A[eax*4]
  0132a	8b 95 98 fe ff
	ff		 mov	 edx, DWORD PTR _i$1[ebp]
  01330	8b 04 95 00 00
	00 00		 mov	 eax, DWORD PTR ?p_party@@3PAPAUaction@@A[edx*4]
  01337	8b 89 a4 00 00
	00		 mov	 ecx, DWORD PTR [ecx+164]
  0133d	23 88 a4 00 00
	00		 and	 ecx, DWORD PTR [eax+164]
  01343	75 17		 jne	 SHORT $LN180@AI_ChooseA

; 1937 : 			p_party[i]->atr = ACT_ATR_INFO | ACT_ATR_HIT;

  01345	8b 85 98 fe ff
	ff		 mov	 eax, DWORD PTR _i$1[ebp]
  0134b	8b 0c 85 00 00
	00 00		 mov	 ecx, DWORD PTR ?p_party@@3PAPAUaction@@A[eax*4]
  01352	c7 81 a4 00 00
	00 14 00 00 00	 mov	 DWORD PTR [ecx+164], 20	; 00000014H
$LN180@AI_ChooseA:

; 1938 : 	}

  0135c	eb a7		 jmp	 SHORT $LN27@AI_ChooseA
$LN28@AI_ChooseA:

; 1939 : 	p_party[ BattleMyNo ]->atr |= ACT_ATR_BTL_CMD_END;

  0135e	a1 00 00 00 00	 mov	 eax, DWORD PTR ?BattleMyNo@@3HA ; BattleMyNo
  01363	8b 0c 85 00 00
	00 00		 mov	 ecx, DWORD PTR ?p_party@@3PAPAUaction@@A[eax*4]
  0136a	8b 91 a4 00 00
	00		 mov	 edx, DWORD PTR [ecx+164]
  01370	83 ca 40	 or	 edx, 64			; 00000040H
  01373	a1 00 00 00 00	 mov	 eax, DWORD PTR ?BattleMyNo@@3HA ; BattleMyNo
  01378	8b 0c 85 00 00
	00 00		 mov	 ecx, DWORD PTR ?p_party@@3PAPAUaction@@A[eax*4]
  0137f	89 91 a4 00 00
	00		 mov	 DWORD PTR [ecx+164], edx

; 1940 : 	p_party[ BattleMyNo + 5 ]->atr |= ACT_ATR_BTL_CMD_END;

  01385	a1 00 00 00 00	 mov	 eax, DWORD PTR ?BattleMyNo@@3HA ; BattleMyNo
  0138a	8b 0c 85 14 00
	00 00		 mov	 ecx, DWORD PTR ?p_party@@3PAPAUaction@@A[eax*4+20]
  01391	8b 91 a4 00 00
	00		 mov	 edx, DWORD PTR [ecx+164]
  01397	83 ca 40	 or	 edx, 64			; 00000040H
  0139a	a1 00 00 00 00	 mov	 eax, DWORD PTR ?BattleMyNo@@3HA ; BattleMyNo
  0139f	8b 0c 85 14 00
	00 00		 mov	 ecx, DWORD PTR ?p_party@@3PAPAUaction@@A[eax*4+20]
  013a6	89 91 a4 00 00
	00		 mov	 DWORD PTR [ecx+164], edx

; 1941 : 	SubProcNo++;

  013ac	a1 00 00 00 00	 mov	 eax, DWORD PTR ?SubProcNo@@3IA ; SubProcNo
  013b1	83 c0 01	 add	 eax, 1
  013b4	a3 00 00 00 00	 mov	 DWORD PTR ?SubProcNo@@3IA, eax ; SubProcNo
$LN1@AI_ChooseA:

; 1942 : }

  013b9	52		 push	 edx
  013ba	8b cd		 mov	 ecx, ebp
  013bc	50		 push	 eax
  013bd	8d 15 00 00 00
	00		 lea	 edx, DWORD PTR $LN185@AI_ChooseA
  013c3	e8 00 00 00 00	 call	 @_RTC_CheckStackVars@8
  013c8	58		 pop	 eax
  013c9	5a		 pop	 edx
  013ca	5f		 pop	 edi
  013cb	5e		 pop	 esi
  013cc	5b		 pop	 ebx
  013cd	8b 4d fc	 mov	 ecx, DWORD PTR __$ArrayPad$[ebp]
  013d0	33 cd		 xor	 ecx, ebp
  013d2	e8 00 00 00 00	 call	 @__security_check_cookie@4
  013d7	81 c4 30 02 00
	00		 add	 esp, 560		; 00000230H
  013dd	3b ec		 cmp	 ebp, esp
  013df	e8 00 00 00 00	 call	 __RTC_CheckEsp
  013e4	8b e5		 mov	 esp, ebp
  013e6	5d		 pop	 ebp
  013e7	c3		 ret	 0
$LN185@AI_ChooseA:
  013e8	01 00 00 00	 DD	 1
  013ec	00 00 00 00	 DD	 $LN184@AI_ChooseA
$LN184@AI_ChooseA:
  013f0	94 ff ff ff	 DD	 -108			; ffffff94H
  013f4	40 00 00 00	 DD	 64			; 00000040H
  013f8	00 00 00 00	 DD	 $LN183@AI_ChooseA
$LN183@AI_ChooseA:
  013fc	6d		 DB	 109			; 0000006dH
  013fd	6f		 DB	 111			; 0000006fH
  013fe	6a		 DB	 106			; 0000006aH
  013ff	69		 DB	 105			; 00000069H
  01400	00		 DB	 0
  01401	0f 1f 00	 npad	 3
$LN186@AI_ChooseA:
  01404	00 00 00 00	 DD	 $LN49@AI_ChooseA
  01408	00 00 00 00	 DD	 $LN50@AI_ChooseA
  0140c	00 00 00 00	 DD	 $LN52@AI_ChooseA
  01410	00 00 00 00	 DD	 $LN59@AI_ChooseA
  01414	00 00 00 00	 DD	 $LN60@AI_ChooseA
  01418	00 00 00 00	 DD	 $LN64@AI_ChooseA
  0141c	00 00 00 00	 DD	 $LN65@AI_ChooseA
  01420	00 00 00 00	 DD	 $LN65@AI_ChooseA
  01424	00 00 00 00	 DD	 $LN65@AI_ChooseA
  01428	00 00 00 00	 DD	 $LN65@AI_ChooseA
  0142c	00 00 00 00	 DD	 $LN65@AI_ChooseA
  01430	00 00 00 00	 DD	 $LN66@AI_ChooseA
$LN187@AI_ChooseA:
  01434	00 00 00 00	 DD	 $LN124@AI_ChooseA
  01438	00 00 00 00	 DD	 $LN116@AI_ChooseA
  0143c	00 00 00 00	 DD	 $LN126@AI_ChooseA
  01440	00 00 00 00	 DD	 $LN11@AI_ChooseA
$LN182@AI_ChooseA:
  01444	00		 DB	 0
  01445	01		 DB	 1
  01446	03		 DB	 3
  01447	03		 DB	 3
  01448	03		 DB	 3
  01449	02		 DB	 2
  0144a	02		 DB	 2
  0144b	02		 DB	 2
  0144c	02		 DB	 2
  0144d	02		 DB	 2
  0144e	66 90		 npad	 2
$LN188@AI_ChooseA:
  01450	00 00 00 00	 DD	 $LN169@AI_ChooseA
  01454	00 00 00 00	 DD	 $LN170@AI_ChooseA
  01458	00 00 00 00	 DD	 $LN171@AI_ChooseA
  0145c	00 00 00 00	 DD	 $LN174@AI_ChooseA
  01460	00 00 00 00	 DD	 $LN177@AI_ChooseA
  01464	00 00 00 00	 DD	 $LN25@AI_ChooseA
  01468	00 00 00 00	 DD	 $LN170@AI_ChooseA
?AI_ChooseAction@@YAXXZ ENDP				; AI_ChooseAction
_TEXT	ENDS
; Function compile flags: /Odtp /RTCsu /ZI
; File c:\users\administrator\desktop\????? ??\????? ??\client source code\system\ai_setting.cpp
;	COMDAT ?AttackAIProc@@YAHHPAD@Z
_TEXT	SEGMENT
tv80 = -244						; size = 4
$T1 = -233						; size = 1
_no$ = -32						; size = 4
_method$ = -20						; size = 4
_targetNo$ = -8						; size = 4
_which$ = 8						; size = 4
_moji$ = 12						; size = 4
?AttackAIProc@@YAHHPAD@Z PROC				; AttackAIProc, COMDAT

; 1471 : {

  00000	55		 push	 ebp
  00001	8b ec		 mov	 ebp, esp
  00003	81 ec f4 00 00
	00		 sub	 esp, 244		; 000000f4H
  00009	53		 push	 ebx
  0000a	56		 push	 esi
  0000b	57		 push	 edi
  0000c	8d bd 0c ff ff
	ff		 lea	 edi, DWORD PTR [ebp-244]
  00012	b9 3d 00 00 00	 mov	 ecx, 61			; 0000003dH
  00017	b8 cc cc cc cc	 mov	 eax, -858993460		; ccccccccH
  0001c	f3 ab		 rep stosd
  0001e	c6 85 17 ff ff
	ff 00		 mov	 BYTE PTR $T1[ebp], 0

; 1472 : 	int targetNo;
; 1473 : 	int method = AI_method[which];

  00025	8b 45 08	 mov	 eax, DWORD PTR _which$[ebp]
  00028	8b 0c 85 00 00
	00 00		 mov	 ecx, DWORD PTR ?AI_method@@3PAHA[eax*4]
  0002f	89 4d ec	 mov	 DWORD PTR _method$[ebp], ecx

; 1474 : 	int no;
; 1475 : 
; 1476 : 	if(method != MAX_PROFESSION_SKILL){

  00032	83 7d ec 1a	 cmp	 DWORD PTR _method$[ebp], 26 ; 0000001aH
  00036	0f 84 c5 02 00
	00		 je	 $LN4@AttackAIPr

; 1477 : 		if(profession_skill[method].costmp <= p_party[BattleMyNo]->mp){

  0003c	69 45 ec c0 00
	00 00		 imul	 eax, DWORD PTR _method$[ebp], 192
  00043	8b 0d 00 00 00
	00		 mov	 ecx, DWORD PTR ?BattleMyNo@@3HA ; BattleMyNo
  00049	8b 14 8d 00 00
	00 00		 mov	 edx, DWORD PTR ?p_party@@3PAPAUaction@@A[ecx*4]
  00050	8b 80 b8 00 00
	00		 mov	 eax, DWORD PTR ?profession_skill@@3PAUPROFESSION_SKILL@@A[eax+184]
  00056	3b 82 84 00 00
	00		 cmp	 eax, DWORD PTR [edx+132]
  0005c	0f 8f 9b 02 00
	00		 jg	 $LN5@AttackAIPr

; 1478 : 			targetNo = AI_target[which];

  00062	8b 45 08	 mov	 eax, DWORD PTR _which$[ebp]
  00065	8b 0c 85 00 00
	00 00		 mov	 ecx, DWORD PTR ?AI_target@@3PAHA[eax*4]
  0006c	89 4d f8	 mov	 DWORD PTR _targetNo$[ebp], ecx

; 1479 : 			switch(profession_skill[method].target){

  0006f	69 45 ec c0 00
	00 00		 imul	 eax, DWORD PTR _method$[ebp], 192
  00076	0f bf 88 04 00
	00 00		 movsx	 ecx, WORD PTR ?profession_skill@@3PAUPROFESSION_SKILL@@A[eax+4]
  0007d	89 8d 0c ff ff
	ff		 mov	 DWORD PTR tv80[ebp], ecx
  00083	83 bd 0c ff ff
	ff 0b		 cmp	 DWORD PTR tv80[ebp], 11	; 0000000bH
  0008a	0f 87 55 02 00
	00		 ja	 $LN2@AttackAIPr
  00090	8b 95 0c ff ff
	ff		 mov	 edx, DWORD PTR tv80[ebp]
  00096	ff 24 95 00 00
	00 00		 jmp	 DWORD PTR $LN36@AttackAIPr[edx*4]
$LN6@AttackAIPr:

; 1480 : 			case PETSKILL_TARGET_NONE:
; 1481 : 			case PETSKILL_TARGET_MYSELF:
; 1482 : 				sprintf( moji,"P|%X|%X", method,BattleMyNo);

  0009d	a1 00 00 00 00	 mov	 eax, DWORD PTR ?BattleMyNo@@3HA ; BattleMyNo
  000a2	50		 push	 eax
  000a3	8b 4d ec	 mov	 ecx, DWORD PTR _method$[ebp]
  000a6	51		 push	 ecx
  000a7	68 00 00 00 00	 push	 OFFSET ??_C@_07NGDMDFPD@P?$HM?$CFX?$HM?$CFX?$AA@
  000ac	8b 55 0c	 mov	 edx, DWORD PTR _moji$[ebp]
  000af	52		 push	 edx
  000b0	e8 00 00 00 00	 call	 _sprintf
  000b5	83 c4 10	 add	 esp, 16			; 00000010H

; 1483 : 				break;

  000b8	e9 28 02 00 00	 jmp	 $LN2@AttackAIPr
$LN7@AttackAIPr:

; 1484 : 			case PETSKILL_TARGER_DEATH:
; 1485 : 				targetNo = GetDeadTarget();

  000bd	e8 00 00 00 00	 call	 ?GetDeadTarget@@YAHXZ	; GetDeadTarget
  000c2	89 45 f8	 mov	 DWORD PTR _targetNo$[ebp], eax

; 1486 : 				if(targetNo != -1) sprintf(moji,"P|%X|%X",method,targetNo);

  000c5	83 7d f8 ff	 cmp	 DWORD PTR _targetNo$[ebp], -1
  000c9	74 1b		 je	 SHORT $LN8@AttackAIPr
  000cb	8b 45 f8	 mov	 eax, DWORD PTR _targetNo$[ebp]
  000ce	50		 push	 eax
  000cf	8b 4d ec	 mov	 ecx, DWORD PTR _method$[ebp]
  000d2	51		 push	 ecx
  000d3	68 00 00 00 00	 push	 OFFSET ??_C@_07NGDMDFPD@P?$HM?$CFX?$HM?$CFX?$AA@
  000d8	8b 55 0c	 mov	 edx, DWORD PTR _moji$[ebp]
  000db	52		 push	 edx
  000dc	e8 00 00 00 00	 call	 _sprintf
  000e1	83 c4 10	 add	 esp, 16			; 00000010H

; 1487 : 				else{

  000e4	eb 1d		 jmp	 SHORT $LN9@AttackAIPr
$LN8@AttackAIPr:

; 1488 : 					targetNo = GetBattelTarget();

  000e6	e8 00 00 00 00	 call	 ?GetBattelTarget@@YAHXZ	; GetBattelTarget
  000eb	89 45 f8	 mov	 DWORD PTR _targetNo$[ebp], eax

; 1489 : 					sprintf(moji,"H|%X",targetNo);

  000ee	8b 45 f8	 mov	 eax, DWORD PTR _targetNo$[ebp]
  000f1	50		 push	 eax
  000f2	68 00 00 00 00	 push	 OFFSET ??_C@_04DMFDFHBJ@H?$HM?$CFX?$AA@
  000f7	8b 4d 0c	 mov	 ecx, DWORD PTR _moji$[ebp]
  000fa	51		 push	 ecx
  000fb	e8 00 00 00 00	 call	 _sprintf
  00100	83 c4 0c	 add	 esp, 12			; 0000000cH
$LN9@AttackAIPr:

; 1490 : 				}
; 1491 : 				break;

  00103	e9 dd 01 00 00	 jmp	 $LN2@AttackAIPr
$LN10@AttackAIPr:

; 1492 : 			case PETSKILL_TARGET_OTHER:
; 1493 : 			case PETSKILL_TARGET_OTHERWITHOUTMYSELF:
; 1494 : 			case PETSKILL_TARGET_WITHOUTMYSELFANDPET:
; 1495 : 			case PETSKILL_TARGET_ONE_LINE:
; 1496 : 				if(targetNo == TARGET_MYSELF)	targetNo = BattleMyNo;

  00108	83 7d f8 01	 cmp	 DWORD PTR _targetNo$[ebp], 1
  0010c	75 0a		 jne	 SHORT $LN11@AttackAIPr
  0010e	a1 00 00 00 00	 mov	 eax, DWORD PTR ?BattleMyNo@@3HA ; BattleMyNo
  00113	89 45 f8	 mov	 DWORD PTR _targetNo$[ebp], eax
  00116	eb 3e		 jmp	 SHORT $LN12@AttackAIPr
$LN11@AttackAIPr:

; 1497 : 				else if(targetNo == TARGET_MYPET) targetNo = BattleMyNo + 5;

  00118	83 7d f8 02	 cmp	 DWORD PTR _targetNo$[ebp], 2
  0011c	75 0d		 jne	 SHORT $LN13@AttackAIPr
  0011e	a1 00 00 00 00	 mov	 eax, DWORD PTR ?BattleMyNo@@3HA ; BattleMyNo
  00123	83 c0 05	 add	 eax, 5
  00126	89 45 f8	 mov	 DWORD PTR _targetNo$[ebp], eax
  00129	eb 2b		 jmp	 SHORT $LN12@AttackAIPr
$LN13@AttackAIPr:

; 1498 : 				else if(targetNo < TARGET_OTHERONE || targetNo > TARGET_ALL || 

  0012b	83 7d f8 04	 cmp	 DWORD PTR _targetNo$[ebp], 4
  0012f	7c 0c		 jl	 SHORT $LN17@AttackAIPr
  00131	83 7d f8 06	 cmp	 DWORD PTR _targetNo$[ebp], 6
  00135	7f 06		 jg	 SHORT $LN17@AttackAIPr
  00137	83 7d f8 0c	 cmp	 DWORD PTR _targetNo$[ebp], 12 ; 0000000cH
  0013b	75 11		 jne	 SHORT $LN15@AttackAIPr
$LN17@AttackAIPr:

; 1499 : 					targetNo == TARGET_ONE_ROW) targetNo = GetFirstTarget(targetNo);

  0013d	8b 45 f8	 mov	 eax, DWORD PTR _targetNo$[ebp]
  00140	50		 push	 eax
  00141	e8 00 00 00 00	 call	 ?GetFirstTarget@@YAHH@Z	; GetFirstTarget
  00146	83 c4 04	 add	 esp, 4
  00149	89 45 f8	 mov	 DWORD PTR _targetNo$[ebp], eax
  0014c	eb 08		 jmp	 SHORT $LN12@AttackAIPr
$LN15@AttackAIPr:

; 1500 : 				else targetNo = GetBattelTarget();

  0014e	e8 00 00 00 00	 call	 ?GetBattelTarget@@YAHXZ	; GetBattelTarget
  00153	89 45 f8	 mov	 DWORD PTR _targetNo$[ebp], eax
$LN12@AttackAIPr:

; 1501 : 				sprintf( moji,"P|%X|%X", method,targetNo);

  00156	8b 45 f8	 mov	 eax, DWORD PTR _targetNo$[ebp]
  00159	50		 push	 eax
  0015a	8b 4d ec	 mov	 ecx, DWORD PTR _method$[ebp]
  0015d	51		 push	 ecx
  0015e	68 00 00 00 00	 push	 OFFSET ??_C@_07NGDMDFPD@P?$HM?$CFX?$HM?$CFX?$AA@
  00163	8b 55 0c	 mov	 edx, DWORD PTR _moji$[ebp]
  00166	52		 push	 edx
  00167	e8 00 00 00 00	 call	 _sprintf
  0016c	83 c4 10	 add	 esp, 16			; 00000010H

; 1502 : 				break;

  0016f	e9 71 01 00 00	 jmp	 $LN2@AttackAIPr
$LN18@AttackAIPr:

; 1503 : 			case PETSKILL_TARGET_ALLMYSIDE:
; 1504 : 				if( BattleMyNo < 10 ) no = 20;

  00174	83 3d 00 00 00
	00 0a		 cmp	 DWORD PTR ?BattleMyNo@@3HA, 10 ; BattleMyNo, 0000000aH
  0017b	7d 10		 jge	 SHORT $LN19@AttackAIPr
  0017d	c6 85 17 ff ff
	ff 01		 mov	 BYTE PTR $T1[ebp], 1
  00184	c7 45 e0 14 00
	00 00		 mov	 DWORD PTR _no$[ebp], 20	; 00000014H
  0018b	eb 0e		 jmp	 SHORT $LN20@AttackAIPr
$LN19@AttackAIPr:

; 1505 : 				else no = 21;

  0018d	c6 85 17 ff ff
	ff 01		 mov	 BYTE PTR $T1[ebp], 1
  00194	c7 45 e0 15 00
	00 00		 mov	 DWORD PTR _no$[ebp], 21	; 00000015H
$LN20@AttackAIPr:

; 1506 : 				sprintf( moji,"P|%X|%X", method, no );

  0019b	80 bd 17 ff ff
	ff 00		 cmp	 BYTE PTR $T1[ebp], 0
  001a2	75 0d		 jne	 SHORT $LN31@AttackAIPr
  001a4	68 00 00 00 00	 push	 OFFSET $LN32@AttackAIPr
  001a9	e8 00 00 00 00	 call	 __RTC_UninitUse
  001ae	83 c4 04	 add	 esp, 4
$LN31@AttackAIPr:
  001b1	8b 45 e0	 mov	 eax, DWORD PTR _no$[ebp]
  001b4	50		 push	 eax
  001b5	8b 4d ec	 mov	 ecx, DWORD PTR _method$[ebp]
  001b8	51		 push	 ecx
  001b9	68 00 00 00 00	 push	 OFFSET ??_C@_07NGDMDFPD@P?$HM?$CFX?$HM?$CFX?$AA@
  001be	8b 55 0c	 mov	 edx, DWORD PTR _moji$[ebp]
  001c1	52		 push	 edx
  001c2	e8 00 00 00 00	 call	 _sprintf
  001c7	83 c4 10	 add	 esp, 16			; 00000010H

; 1507 : 				break;

  001ca	e9 16 01 00 00	 jmp	 $LN2@AttackAIPr
$LN21@AttackAIPr:

; 1508 : 			case PETSKILL_TARGET_ALLOTHERSIDE:
; 1509 : 				if( BattleMyNo < 10 ) no = 21;

  001cf	83 3d 00 00 00
	00 0a		 cmp	 DWORD PTR ?BattleMyNo@@3HA, 10 ; BattleMyNo, 0000000aH
  001d6	7d 10		 jge	 SHORT $LN22@AttackAIPr
  001d8	c6 85 17 ff ff
	ff 01		 mov	 BYTE PTR $T1[ebp], 1
  001df	c7 45 e0 15 00
	00 00		 mov	 DWORD PTR _no$[ebp], 21	; 00000015H
  001e6	eb 0e		 jmp	 SHORT $LN23@AttackAIPr
$LN22@AttackAIPr:

; 1510 : 				else no = 20;

  001e8	c6 85 17 ff ff
	ff 01		 mov	 BYTE PTR $T1[ebp], 1
  001ef	c7 45 e0 14 00
	00 00		 mov	 DWORD PTR _no$[ebp], 20	; 00000014H
$LN23@AttackAIPr:

; 1511 : 				sprintf( moji,"P|%X|%X", method, no );

  001f6	80 bd 17 ff ff
	ff 00		 cmp	 BYTE PTR $T1[ebp], 0
  001fd	75 0d		 jne	 SHORT $LN33@AttackAIPr
  001ff	68 00 00 00 00	 push	 OFFSET $LN32@AttackAIPr
  00204	e8 00 00 00 00	 call	 __RTC_UninitUse
  00209	83 c4 04	 add	 esp, 4
$LN33@AttackAIPr:
  0020c	8b 45 e0	 mov	 eax, DWORD PTR _no$[ebp]
  0020f	50		 push	 eax
  00210	8b 4d ec	 mov	 ecx, DWORD PTR _method$[ebp]
  00213	51		 push	 ecx
  00214	68 00 00 00 00	 push	 OFFSET ??_C@_07NGDMDFPD@P?$HM?$CFX?$HM?$CFX?$AA@
  00219	8b 55 0c	 mov	 edx, DWORD PTR _moji$[ebp]
  0021c	52		 push	 edx
  0021d	e8 00 00 00 00	 call	 _sprintf
  00222	83 c4 10	 add	 esp, 16			; 00000010H

; 1512 : 				break;

  00225	e9 bb 00 00 00	 jmp	 $LN2@AttackAIPr
$LN24@AttackAIPr:

; 1513 : 			case PETSKILL_TARGET_ALL:
; 1514 : 				sprintf( moji,"P|%X|%X", method, 22 );

  0022a	6a 16		 push	 22			; 00000016H
  0022c	8b 45 ec	 mov	 eax, DWORD PTR _method$[ebp]
  0022f	50		 push	 eax
  00230	68 00 00 00 00	 push	 OFFSET ??_C@_07NGDMDFPD@P?$HM?$CFX?$HM?$CFX?$AA@
  00235	8b 4d 0c	 mov	 ecx, DWORD PTR _moji$[ebp]
  00238	51		 push	 ecx
  00239	e8 00 00 00 00	 call	 _sprintf
  0023e	83 c4 10	 add	 esp, 16			; 00000010H

; 1515 : 				break;

  00241	e9 9f 00 00 00	 jmp	 $LN2@AttackAIPr
$LN25@AttackAIPr:

; 1516 : 			case PETSKILL_TARGET_ONE_ROW:
; 1517 : #ifdef _SKILL_ADDBARRIER
; 1518 : 			case PETSKILL_TARGET_ONE_ROW_ALL:
; 1519 : #endif
; 1520 : 				targetNo = GetBattelTarget();

  00246	e8 00 00 00 00	 call	 ?GetBattelTarget@@YAHXZ	; GetBattelTarget
  0024b	89 45 f8	 mov	 DWORD PTR _targetNo$[ebp], eax

; 1521 : 				if ( targetNo >= 0 && targetNo < 5 ) no = 26 ; 

  0024e	83 7d f8 00	 cmp	 DWORD PTR _targetNo$[ebp], 0
  00252	7c 14		 jl	 SHORT $LN26@AttackAIPr
  00254	83 7d f8 05	 cmp	 DWORD PTR _targetNo$[ebp], 5
  00258	7d 0e		 jge	 SHORT $LN26@AttackAIPr
  0025a	c6 85 17 ff ff
	ff 01		 mov	 BYTE PTR $T1[ebp], 1
  00261	c7 45 e0 1a 00
	00 00		 mov	 DWORD PTR _no$[ebp], 26	; 0000001aH
$LN26@AttackAIPr:

; 1522 : 				if ( targetNo >= 5 && targetNo < 10 ) no = 25 ; 

  00268	83 7d f8 05	 cmp	 DWORD PTR _targetNo$[ebp], 5
  0026c	7c 14		 jl	 SHORT $LN27@AttackAIPr
  0026e	83 7d f8 0a	 cmp	 DWORD PTR _targetNo$[ebp], 10 ; 0000000aH
  00272	7d 0e		 jge	 SHORT $LN27@AttackAIPr
  00274	c6 85 17 ff ff
	ff 01		 mov	 BYTE PTR $T1[ebp], 1
  0027b	c7 45 e0 19 00
	00 00		 mov	 DWORD PTR _no$[ebp], 25	; 00000019H
$LN27@AttackAIPr:

; 1523 : 				if ( targetNo >= 10 && targetNo < 15 ) no = 23 ; 

  00282	83 7d f8 0a	 cmp	 DWORD PTR _targetNo$[ebp], 10 ; 0000000aH
  00286	7c 14		 jl	 SHORT $LN28@AttackAIPr
  00288	83 7d f8 0f	 cmp	 DWORD PTR _targetNo$[ebp], 15 ; 0000000fH
  0028c	7d 0e		 jge	 SHORT $LN28@AttackAIPr
  0028e	c6 85 17 ff ff
	ff 01		 mov	 BYTE PTR $T1[ebp], 1
  00295	c7 45 e0 17 00
	00 00		 mov	 DWORD PTR _no$[ebp], 23	; 00000017H
$LN28@AttackAIPr:

; 1524 : 				if ( targetNo >= 15 && targetNo < 20 ) no = 24 ; 

  0029c	83 7d f8 0f	 cmp	 DWORD PTR _targetNo$[ebp], 15 ; 0000000fH
  002a0	7c 14		 jl	 SHORT $LN29@AttackAIPr
  002a2	83 7d f8 14	 cmp	 DWORD PTR _targetNo$[ebp], 20 ; 00000014H
  002a6	7d 0e		 jge	 SHORT $LN29@AttackAIPr
  002a8	c6 85 17 ff ff
	ff 01		 mov	 BYTE PTR $T1[ebp], 1
  002af	c7 45 e0 18 00
	00 00		 mov	 DWORD PTR _no$[ebp], 24	; 00000018H
$LN29@AttackAIPr:

; 1525 : 				sprintf( moji,"P|%X|%X", method, no );

  002b6	80 bd 17 ff ff
	ff 00		 cmp	 BYTE PTR $T1[ebp], 0
  002bd	75 0d		 jne	 SHORT $LN34@AttackAIPr
  002bf	68 00 00 00 00	 push	 OFFSET $LN32@AttackAIPr
  002c4	e8 00 00 00 00	 call	 __RTC_UninitUse
  002c9	83 c4 04	 add	 esp, 4
$LN34@AttackAIPr:
  002cc	8b 45 e0	 mov	 eax, DWORD PTR _no$[ebp]
  002cf	50		 push	 eax
  002d0	8b 4d ec	 mov	 ecx, DWORD PTR _method$[ebp]
  002d3	51		 push	 ecx
  002d4	68 00 00 00 00	 push	 OFFSET ??_C@_07NGDMDFPD@P?$HM?$CFX?$HM?$CFX?$AA@
  002d9	8b 55 0c	 mov	 edx, DWORD PTR _moji$[ebp]
  002dc	52		 push	 edx
  002dd	e8 00 00 00 00	 call	 _sprintf
  002e2	83 c4 10	 add	 esp, 16			; 00000010H
$LN2@AttackAIPr:

; 1526 : 				break;
; 1527 : 			}
; 1528 : 			AI_Choosen = profession_skill[method].name;

  002e5	69 45 ec c0 00
	00 00		 imul	 eax, DWORD PTR _method$[ebp], 192
  002ec	05 08 00 00 00	 add	 eax, OFFSET ?profession_skill@@3PAUPROFESSION_SKILL@@A+8
  002f1	a3 00 00 00 00	 mov	 DWORD PTR ?AI_Choosen@@3PADA, eax ; AI_Choosen

; 1529 : 			return 1;

  002f6	b8 01 00 00 00	 mov	 eax, 1
  002fb	eb 07		 jmp	 SHORT $LN1@AttackAIPr
$LN5@AttackAIPr:

; 1530 : 		}
; 1531 : 		return 0;

  002fd	33 c0		 xor	 eax, eax
  002ff	eb 03		 jmp	 SHORT $LN1@AttackAIPr
$LN4@AttackAIPr:

; 1532 : 	}
; 1533 : 	return -1;

  00301	83 c8 ff	 or	 eax, -1
$LN1@AttackAIPr:

; 1534 : }

  00304	5f		 pop	 edi
  00305	5e		 pop	 esi
  00306	5b		 pop	 ebx
  00307	81 c4 f4 00 00
	00		 add	 esp, 244		; 000000f4H
  0030d	3b ec		 cmp	 ebp, esp
  0030f	e8 00 00 00 00	 call	 __RTC_CheckEsp
  00314	8b e5		 mov	 esp, ebp
  00316	5d		 pop	 ebp
  00317	c3		 ret	 0
$LN35@AttackAIPr:
$LN32@AttackAIPr:
  00318	6e		 DB	 110			; 0000006eH
  00319	6f		 DB	 111			; 0000006fH
  0031a	00		 DB	 0
  0031b	90		 npad	 1
$LN36@AttackAIPr:
  0031c	00 00 00 00	 DD	 $LN6@AttackAIPr
  00320	00 00 00 00	 DD	 $LN10@AttackAIPr
  00324	00 00 00 00	 DD	 $LN18@AttackAIPr
  00328	00 00 00 00	 DD	 $LN21@AttackAIPr
  0032c	00 00 00 00	 DD	 $LN24@AttackAIPr
  00330	00 00 00 00	 DD	 $LN6@AttackAIPr
  00334	00 00 00 00	 DD	 $LN10@AttackAIPr
  00338	00 00 00 00	 DD	 $LN10@AttackAIPr
  0033c	00 00 00 00	 DD	 $LN25@AttackAIPr
  00340	00 00 00 00	 DD	 $LN10@AttackAIPr
  00344	00 00 00 00	 DD	 $LN7@AttackAIPr
  00348	00 00 00 00	 DD	 $LN25@AttackAIPr
?AttackAIProc@@YAHHPAD@Z ENDP				; AttackAIProc
_TEXT	ENDS
; Function compile flags: /Odtp /RTCsu /ZI
; File c:\users\administrator\desktop\????? ??\????? ??\client source code\system\ai_setting.cpp
;	COMDAT ?GetDeadTarget@@YAHXZ
_TEXT	SEGMENT
_end$ = -32						; size = 4
_index$ = -20						; size = 4
_i$ = -8						; size = 4
?GetDeadTarget@@YAHXZ PROC				; GetDeadTarget, COMDAT

; 1453 : {

  00000	55		 push	 ebp
  00001	8b ec		 mov	 ebp, esp
  00003	81 ec e4 00 00
	00		 sub	 esp, 228		; 000000e4H
  00009	53		 push	 ebx
  0000a	56		 push	 esi
  0000b	57		 push	 edi
  0000c	8d bd 1c ff ff
	ff		 lea	 edi, DWORD PTR [ebp-228]
  00012	b9 39 00 00 00	 mov	 ecx, 57			; 00000039H
  00017	b8 cc cc cc cc	 mov	 eax, -858993460		; ccccccccH
  0001c	f3 ab		 rep stosd

; 1454 : 	int i, index, end;
; 1455 : 	i = 10;

  0001e	c7 45 f8 0a 00
	00 00		 mov	 DWORD PTR _i$[ebp], 10	; 0000000aH

; 1456 : 	end = 20;

  00025	c7 45 e0 14 00
	00 00		 mov	 DWORD PTR _end$[ebp], 20 ; 00000014H

; 1457 : 	if(BattleMyNo < 10){

  0002c	83 3d 00 00 00
	00 0a		 cmp	 DWORD PTR ?BattleMyNo@@3HA, 10 ; BattleMyNo, 0000000aH
  00033	7d 0e		 jge	 SHORT $LN5@GetDeadTar

; 1458 : 		i = 0 ;

  00035	c7 45 f8 00 00
	00 00		 mov	 DWORD PTR _i$[ebp], 0

; 1459 : 		end = 10;

  0003c	c7 45 e0 0a 00
	00 00		 mov	 DWORD PTR _end$[ebp], 10 ; 0000000aH
$LN5@GetDeadTar:

; 1460 : 	}
; 1461 : 	for(;i<end;i++){

  00043	eb 09		 jmp	 SHORT $LN4@GetDeadTar
$LN2@GetDeadTar:
  00045	8b 45 f8	 mov	 eax, DWORD PTR _i$[ebp]
  00048	83 c0 01	 add	 eax, 1
  0004b	89 45 f8	 mov	 DWORD PTR _i$[ebp], eax
$LN4@GetDeadTar:
  0004e	8b 45 f8	 mov	 eax, DWORD PTR _i$[ebp]
  00051	3b 45 e0	 cmp	 eax, DWORD PTR _end$[ebp]
  00054	7d 38		 jge	 SHORT $LN3@GetDeadTar

; 1462 : 		index = Ordinal2[i];

  00056	8b 45 f8	 mov	 eax, DWORD PTR _i$[ebp]
  00059	8b 0c 85 00 00
	00 00		 mov	 ecx, DWORD PTR ?Ordinal2@@3PAHA[eax*4]
  00060	89 4d ec	 mov	 DWORD PTR _index$[ebp], ecx

; 1463 : 		if(p_party[index]->func == NULL ) continue;

  00063	8b 45 ec	 mov	 eax, DWORD PTR _index$[ebp]
  00066	8b 0c 85 00 00
	00 00		 mov	 ecx, DWORD PTR ?p_party@@3PAPAUaction@@A[eax*4]
  0006d	83 79 08 00	 cmp	 DWORD PTR [ecx+8], 0
  00071	75 02		 jne	 SHORT $LN6@GetDeadTar
  00073	eb d0		 jmp	 SHORT $LN2@GetDeadTar
$LN6@GetDeadTar:

; 1464 : 		if(p_party[index]->hp > 0) continue;

  00075	8b 45 ec	 mov	 eax, DWORD PTR _index$[ebp]
  00078	8b 0c 85 00 00
	00 00		 mov	 ecx, DWORD PTR ?p_party@@3PAPAUaction@@A[eax*4]
  0007f	83 79 78 00	 cmp	 DWORD PTR [ecx+120], 0
  00083	7e 02		 jle	 SHORT $LN7@GetDeadTar
  00085	eb be		 jmp	 SHORT $LN2@GetDeadTar
$LN7@GetDeadTar:

; 1465 : 		return index;

  00087	8b 45 ec	 mov	 eax, DWORD PTR _index$[ebp]
  0008a	eb 05		 jmp	 SHORT $LN1@GetDeadTar

; 1466 : 	}

  0008c	eb b7		 jmp	 SHORT $LN2@GetDeadTar
$LN3@GetDeadTar:

; 1467 : 	return -1;

  0008e	83 c8 ff	 or	 eax, -1
$LN1@GetDeadTar:

; 1468 : }

  00091	5f		 pop	 edi
  00092	5e		 pop	 esi
  00093	5b		 pop	 ebx
  00094	8b e5		 mov	 esp, ebp
  00096	5d		 pop	 ebp
  00097	c3		 ret	 0
?GetDeadTarget@@YAHXZ ENDP				; GetDeadTarget
_TEXT	ENDS
; Function compile flags: /Odtp /RTCsu /ZI
; File c:\users\administrator\desktop\????? ??\????? ??\client source code\system\ai_setting.cpp
;	COMDAT ?GetCureTarget@@YAHH@Z
_TEXT	SEGMENT
_i$1 = -32						; size = 4
_start$ = -20						; size = 4
_target$ = -8						; size = 4
_target_flag$ = 8					; size = 4
?GetCureTarget@@YAHH@Z PROC				; GetCureTarget, COMDAT

; 1426 : {

  00000	55		 push	 ebp
  00001	8b ec		 mov	 ebp, esp
  00003	81 ec e4 00 00
	00		 sub	 esp, 228		; 000000e4H
  00009	53		 push	 ebx
  0000a	56		 push	 esi
  0000b	57		 push	 edi
  0000c	8d bd 1c ff ff
	ff		 lea	 edi, DWORD PTR [ebp-228]
  00012	b9 39 00 00 00	 mov	 ecx, 57			; 00000039H
  00017	b8 cc cc cc cc	 mov	 eax, -858993460		; ccccccccH
  0001c	f3 ab		 rep stosd

; 1427 : 	int target = -1, start;

  0001e	c7 45 f8 ff ff
	ff ff		 mov	 DWORD PTR _target$[ebp], -1

; 1428 : 	if( TARGET_1<=target_flag && target_flag<=TARGET_5){

  00025	83 7d 08 07	 cmp	 DWORD PTR _target_flag$[ebp], 7
  00029	0f 8c 9a 00 00
	00		 jl	 $LN5@GetCureTar
  0002f	83 7d 08 0b	 cmp	 DWORD PTR _target_flag$[ebp], 11 ; 0000000bH
  00033	0f 8f 90 00 00
	00		 jg	 $LN5@GetCureTar

; 1429 : 		start = Ordinal[target_flag-TARGET_1];

  00039	8b 45 08	 mov	 eax, DWORD PTR _target_flag$[ebp]
  0003c	8b 0c 85 e4 ff
	ff ff		 mov	 ecx, DWORD PTR ?Ordinal@@3PAHA[eax*4-28]
  00043	89 4d ec	 mov	 DWORD PTR _start$[ebp], ecx

; 1430 : 		for( int i = 0; i < 2; i++, start+=5){

  00046	c7 45 e0 00 00
	00 00		 mov	 DWORD PTR _i$1[ebp], 0
  0004d	eb 12		 jmp	 SHORT $LN4@GetCureTar
$LN2@GetCureTar:
  0004f	8b 45 e0	 mov	 eax, DWORD PTR _i$1[ebp]
  00052	83 c0 01	 add	 eax, 1
  00055	89 45 e0	 mov	 DWORD PTR _i$1[ebp], eax
  00058	8b 4d ec	 mov	 ecx, DWORD PTR _start$[ebp]
  0005b	83 c1 05	 add	 ecx, 5
  0005e	89 4d ec	 mov	 DWORD PTR _start$[ebp], ecx
$LN4@GetCureTar:
  00061	83 7d e0 02	 cmp	 DWORD PTR _i$1[ebp], 2
  00065	7d 62		 jge	 SHORT $LN5@GetCureTar

; 1431 : 			if( p_party[start]->func && p_party[start]->hp>0 && p_party[start]->maxHp*AI_limit[0]/100 > p_party[start]->hp){

  00067	8b 45 ec	 mov	 eax, DWORD PTR _start$[ebp]
  0006a	8b 0c 85 00 00
	00 00		 mov	 ecx, DWORD PTR ?p_party@@3PAPAUaction@@A[eax*4]
  00071	83 79 08 00	 cmp	 DWORD PTR [ecx+8], 0
  00075	74 50		 je	 SHORT $LN6@GetCureTar
  00077	8b 45 ec	 mov	 eax, DWORD PTR _start$[ebp]
  0007a	8b 0c 85 00 00
	00 00		 mov	 ecx, DWORD PTR ?p_party@@3PAPAUaction@@A[eax*4]
  00081	83 79 78 00	 cmp	 DWORD PTR [ecx+120], 0
  00085	7e 40		 jle	 SHORT $LN6@GetCureTar
  00087	8b 45 ec	 mov	 eax, DWORD PTR _start$[ebp]
  0008a	8b 0c 85 00 00
	00 00		 mov	 ecx, DWORD PTR ?p_party@@3PAPAUaction@@A[eax*4]
  00091	ba 04 00 00 00	 mov	 edx, 4
  00096	6b c2 00	 imul	 eax, edx, 0
  00099	8b 89 80 00 00
	00		 mov	 ecx, DWORD PTR [ecx+128]
  0009f	0f af 88 00 00
	00 00		 imul	 ecx, DWORD PTR ?AI_limit@@3PAHA[eax]
  000a6	8b c1		 mov	 eax, ecx
  000a8	99		 cdq
  000a9	b9 64 00 00 00	 mov	 ecx, 100		; 00000064H
  000ae	f7 f9		 idiv	 ecx
  000b0	8b 55 ec	 mov	 edx, DWORD PTR _start$[ebp]
  000b3	8b 0c 95 00 00
	00 00		 mov	 ecx, DWORD PTR ?p_party@@3PAPAUaction@@A[edx*4]
  000ba	3b 41 78	 cmp	 eax, DWORD PTR [ecx+120]
  000bd	7e 08		 jle	 SHORT $LN6@GetCureTar

; 1432 : 				target = start;

  000bf	8b 45 ec	 mov	 eax, DWORD PTR _start$[ebp]
  000c2	89 45 f8	 mov	 DWORD PTR _target$[ebp], eax

; 1433 : 				break;

  000c5	eb 02		 jmp	 SHORT $LN5@GetCureTar
$LN6@GetCureTar:

; 1434 : 			}
; 1435 : 		}

  000c7	eb 86		 jmp	 SHORT $LN2@GetCureTar
$LN5@GetCureTar:

; 1436 : 	}
; 1437 : 	return target;

  000c9	8b 45 f8	 mov	 eax, DWORD PTR _target$[ebp]

; 1438 : }

  000cc	5f		 pop	 edi
  000cd	5e		 pop	 esi
  000ce	5b		 pop	 ebx
  000cf	8b e5		 mov	 esp, ebp
  000d1	5d		 pop	 ebp
  000d2	c3		 ret	 0
?GetCureTarget@@YAHH@Z ENDP				; GetCureTarget
_TEXT	ENDS
; Function compile flags: /Odtp /RTCsu /ZI
; File c:\users\administrator\desktop\????? ??\????? ??\client source code\system\ai_setting.cpp
;	COMDAT ?GetFirstTarget@@YAHH@Z
_TEXT	SEGMENT
_i$1 = -32						; size = 4
_start$ = -20						; size = 4
_target$ = -8						; size = 4
_target_flag$ = 8					; size = 4
?GetFirstTarget@@YAHH@Z PROC				; GetFirstTarget, COMDAT

; 1411 : {

  00000	55		 push	 ebp
  00001	8b ec		 mov	 ebp, esp
  00003	81 ec e4 00 00
	00		 sub	 esp, 228		; 000000e4H
  00009	53		 push	 ebx
  0000a	56		 push	 esi
  0000b	57		 push	 edi
  0000c	8d bd 1c ff ff
	ff		 lea	 edi, DWORD PTR [ebp-228]
  00012	b9 39 00 00 00	 mov	 ecx, 57			; 00000039H
  00017	b8 cc cc cc cc	 mov	 eax, -858993460		; ccccccccH
  0001c	f3 ab		 rep stosd

; 1412 : 	int target = -1, start;

  0001e	c7 45 f8 ff ff
	ff ff		 mov	 DWORD PTR _target$[ebp], -1

; 1413 : 	if( TARGET_1<=target_flag && target_flag<=TARGET_5){

  00025	83 7d 08 07	 cmp	 DWORD PTR _target_flag$[ebp], 7
  00029	7c 4e		 jl	 SHORT $LN5@GetFirstTa
  0002b	83 7d 08 0b	 cmp	 DWORD PTR _target_flag$[ebp], 11 ; 0000000bH
  0002f	7f 48		 jg	 SHORT $LN5@GetFirstTa

; 1414 : 		start = Ordinal[target_flag-TARGET_1];

  00031	8b 45 08	 mov	 eax, DWORD PTR _target_flag$[ebp]
  00034	8b 0c 85 e4 ff
	ff ff		 mov	 ecx, DWORD PTR ?Ordinal@@3PAHA[eax*4-28]
  0003b	89 4d ec	 mov	 DWORD PTR _start$[ebp], ecx

; 1415 : 		for( int i = 0; i < 2; i++, start+=5){

  0003e	c7 45 e0 00 00
	00 00		 mov	 DWORD PTR _i$1[ebp], 0
  00045	eb 12		 jmp	 SHORT $LN4@GetFirstTa
$LN2@GetFirstTa:
  00047	8b 45 e0	 mov	 eax, DWORD PTR _i$1[ebp]
  0004a	83 c0 01	 add	 eax, 1
  0004d	89 45 e0	 mov	 DWORD PTR _i$1[ebp], eax
  00050	8b 4d ec	 mov	 ecx, DWORD PTR _start$[ebp]
  00053	83 c1 05	 add	 ecx, 5
  00056	89 4d ec	 mov	 DWORD PTR _start$[ebp], ecx
$LN4@GetFirstTa:
  00059	83 7d e0 02	 cmp	 DWORD PTR _i$1[ebp], 2
  0005d	7d 1a		 jge	 SHORT $LN5@GetFirstTa

; 1416 : 			if( p_party[start]->func){

  0005f	8b 45 ec	 mov	 eax, DWORD PTR _start$[ebp]
  00062	8b 0c 85 00 00
	00 00		 mov	 ecx, DWORD PTR ?p_party@@3PAPAUaction@@A[eax*4]
  00069	83 79 08 00	 cmp	 DWORD PTR [ecx+8], 0
  0006d	74 08		 je	 SHORT $LN6@GetFirstTa

; 1417 : 				target = start;

  0006f	8b 45 ec	 mov	 eax, DWORD PTR _start$[ebp]
  00072	89 45 f8	 mov	 DWORD PTR _target$[ebp], eax

; 1418 : 				break;

  00075	eb 02		 jmp	 SHORT $LN5@GetFirstTa
$LN6@GetFirstTa:

; 1419 : 			}
; 1420 : 		}

  00077	eb ce		 jmp	 SHORT $LN2@GetFirstTa
$LN5@GetFirstTa:

; 1421 : 	}
; 1422 : 	return target;

  00079	8b 45 f8	 mov	 eax, DWORD PTR _target$[ebp]

; 1423 : }

  0007c	5f		 pop	 edi
  0007d	5e		 pop	 esi
  0007e	5b		 pop	 ebx
  0007f	8b e5		 mov	 esp, ebp
  00081	5d		 pop	 ebp
  00082	c3		 ret	 0
?GetFirstTarget@@YAHH@Z ENDP				; GetFirstTarget
_TEXT	ENDS
; Function compile flags: /Odtp /RTCsu /ZI
; File c:\users\administrator\desktop\????? ??\????? ??\client source code\system\ai_setting.cpp
;	COMDAT ?GetResurrectTarget@@YAHH@Z
_TEXT	SEGMENT
_i$1 = -32						; size = 4
_start$ = -20						; size = 4
_target$ = -8						; size = 4
_target_flag$ = 8					; size = 4
?GetResurrectTarget@@YAHH@Z PROC			; GetResurrectTarget, COMDAT

; 1396 : {

  00000	55		 push	 ebp
  00001	8b ec		 mov	 ebp, esp
  00003	81 ec e4 00 00
	00		 sub	 esp, 228		; 000000e4H
  00009	53		 push	 ebx
  0000a	56		 push	 esi
  0000b	57		 push	 edi
  0000c	8d bd 1c ff ff
	ff		 lea	 edi, DWORD PTR [ebp-228]
  00012	b9 39 00 00 00	 mov	 ecx, 57			; 00000039H
  00017	b8 cc cc cc cc	 mov	 eax, -858993460		; ccccccccH
  0001c	f3 ab		 rep stosd

; 1397 : 	int target = -1, start;

  0001e	c7 45 f8 ff ff
	ff ff		 mov	 DWORD PTR _target$[ebp], -1

; 1398 : 	if( TARGET_1<=target_flag && target_flag<=TARGET_5){

  00025	83 7d 08 07	 cmp	 DWORD PTR _target_flag$[ebp], 7
  00029	7c 5e		 jl	 SHORT $LN5@GetResurre
  0002b	83 7d 08 0b	 cmp	 DWORD PTR _target_flag$[ebp], 11 ; 0000000bH
  0002f	7f 58		 jg	 SHORT $LN5@GetResurre

; 1399 : 		start = Ordinal[target_flag-TARGET_1];

  00031	8b 45 08	 mov	 eax, DWORD PTR _target_flag$[ebp]
  00034	8b 0c 85 e4 ff
	ff ff		 mov	 ecx, DWORD PTR ?Ordinal@@3PAHA[eax*4-28]
  0003b	89 4d ec	 mov	 DWORD PTR _start$[ebp], ecx

; 1400 : 		for( int i = 0; i < 2; i++, start+=5){

  0003e	c7 45 e0 00 00
	00 00		 mov	 DWORD PTR _i$1[ebp], 0
  00045	eb 12		 jmp	 SHORT $LN4@GetResurre
$LN2@GetResurre:
  00047	8b 45 e0	 mov	 eax, DWORD PTR _i$1[ebp]
  0004a	83 c0 01	 add	 eax, 1
  0004d	89 45 e0	 mov	 DWORD PTR _i$1[ebp], eax
  00050	8b 4d ec	 mov	 ecx, DWORD PTR _start$[ebp]
  00053	83 c1 05	 add	 ecx, 5
  00056	89 4d ec	 mov	 DWORD PTR _start$[ebp], ecx
$LN4@GetResurre:
  00059	83 7d e0 02	 cmp	 DWORD PTR _i$1[ebp], 2
  0005d	7d 2a		 jge	 SHORT $LN5@GetResurre

; 1401 : 			if( p_party[start]->func && p_party[start]->hp<=0){

  0005f	8b 45 ec	 mov	 eax, DWORD PTR _start$[ebp]
  00062	8b 0c 85 00 00
	00 00		 mov	 ecx, DWORD PTR ?p_party@@3PAPAUaction@@A[eax*4]
  00069	83 79 08 00	 cmp	 DWORD PTR [ecx+8], 0
  0006d	74 18		 je	 SHORT $LN6@GetResurre
  0006f	8b 45 ec	 mov	 eax, DWORD PTR _start$[ebp]
  00072	8b 0c 85 00 00
	00 00		 mov	 ecx, DWORD PTR ?p_party@@3PAPAUaction@@A[eax*4]
  00079	83 79 78 00	 cmp	 DWORD PTR [ecx+120], 0
  0007d	7f 08		 jg	 SHORT $LN6@GetResurre

; 1402 : 				target = start;

  0007f	8b 45 ec	 mov	 eax, DWORD PTR _start$[ebp]
  00082	89 45 f8	 mov	 DWORD PTR _target$[ebp], eax

; 1403 : 				break;

  00085	eb 02		 jmp	 SHORT $LN5@GetResurre
$LN6@GetResurre:

; 1404 : 			}
; 1405 : 		}

  00087	eb be		 jmp	 SHORT $LN2@GetResurre
$LN5@GetResurre:

; 1406 : 	}
; 1407 : 	return target;

  00089	8b 45 f8	 mov	 eax, DWORD PTR _target$[ebp]

; 1408 : }

  0008c	5f		 pop	 edi
  0008d	5e		 pop	 esi
  0008e	5b		 pop	 ebx
  0008f	8b e5		 mov	 esp, ebp
  00091	5d		 pop	 ebp
  00092	c3		 ret	 0
?GetResurrectTarget@@YAHH@Z ENDP			; GetResurrectTarget
_TEXT	ENDS
; Function compile flags: /Odtp /RTCsu /ZI
; File c:\users\administrator\desktop\????? ??\????? ??\client source code\system\ai_setting.cpp
;	COMDAT ?AI_SettingProc@@YAHXZ
_TEXT	SEGMENT
tv794 = -348						; size = 4
$T1 = -340						; size = 4
_i$2 = -136						; size = 4
_dy$3 = -124						; size = 4
_limit$4 = -112						; size = 8
_i$5 = -96						; size = 4
_i$6 = -84						; size = 4
_i$7 = -72						; size = 4
_i$8 = -60						; size = 4
_i$9 = -48						; size = 4
_i$10 = -36						; size = 4
_i$11 = -24						; size = 4
_str$ = -12						; size = 4
__$ArrayPad$ = -4					; size = 4
?AI_SettingProc@@YAHXZ PROC				; AI_SettingProc, COMDAT

; 1045 : {

  00000	55		 push	 ebp
  00001	8b ec		 mov	 ebp, esp
  00003	81 ec 5c 01 00
	00		 sub	 esp, 348		; 0000015cH
  00009	53		 push	 ebx
  0000a	56		 push	 esi
  0000b	57		 push	 edi
  0000c	8d bd a4 fe ff
	ff		 lea	 edi, DWORD PTR [ebp-348]
  00012	b9 57 00 00 00	 mov	 ecx, 87			; 00000057H
  00017	b8 cc cc cc cc	 mov	 eax, -858993460		; ccccccccH
  0001c	f3 ab		 rep stosd
  0001e	a1 00 00 00 00	 mov	 eax, DWORD PTR ___security_cookie
  00023	33 c5		 xor	 eax, ebp
  00025	89 45 fc	 mov	 DWORD PTR __$ArrayPad$[ebp], eax

; 1046 : 	static char Notice[][32] = { "ì„¤ì •ì €ìž¥", "ì„¤ì •ì·¨ì†Œ",
; 1047 : 		"é€‰æ‹©å›žå¤ç²¾çµ", "é€‰æ‹©å›žå¤ç²¾çµ", "é€‰æ‹©ä¼˜å…ˆé¡ºåº", "é€‰æ‹©ä¼˜å…ˆé¡ºåº", "å¢žåŠ è€ä¹…åŠ›å¿å—åº¦", "å‡å°‘è€ä¹…åŠ›å¿å—åº¦",
; 1048 : 		"å»ºè®®è®¾å®šé«˜äºŽä½¿ç”¨ç²¾çµæ‰€éœ€MP", "å»ºè®®è®¾å®šé«˜äºŽä½¿ç”¨ç²¾çµæ‰€éœ€MP",
; 1049 : 		"é€‰æ‹©é¦–æ¬¡ç²¾çµ", "é€‰æ‹©é¦–æ¬¡ç²¾çµ", "é€‰æ‹©ä½¿ç”¨ç›®æ ‡", "é€‰æ‹©ä½¿ç”¨ç›®æ ‡",
; 1050 : 		"é€‰æ‹©æ°”ç»å›žå¤æ–¹å¼", "é€‰æ‹©æ°”ç»å›žå¤æ–¹å¼", "é€‰æ‹©ä½¿ç”¨ç›®æ ‡", "é€‰æ‹©ä½¿ç”¨ç›®æ ‡"
; 1051 : #ifdef _ATTACK_AI
; 1052 : 		,"é€‰æ‹©æ”»å‡»æ–¹å¼","é€‰æ‹©æ”»å‡»æ–¹å¼","é€‰æ‹©ä½¿ç”¨ç›®æ ‡","é€‰æ‹©ä½¿ç”¨ç›®æ ‡","é€‰æ‹©å›žå¤æ–¹å¼","é€‰æ‹©å›žå¤æ–¹å¼"
; 1053 : #endif
; 1054 : 	};
; 1055 : 	static int x = 0, y = 0;
; 1056 : 	static DWORD dwPressTime;
; 1057 : 	static int btnId[AIBtnNum], btnState[AIBtnNum];
; 1058 : 	static int u_offx[] = { 209-93, 296-93, 379-93};
; 1059 : 	static int d_offx[] = { 209-112, 296-112, 379-112};
; 1060 : 	static char MethodName[] = "ä¸èƒ½ä½¿ç”¨";
; 1061 : 	char *str;
; 1062 : 	//AI_menu_state
; 1063 : 	if( pAISettingWnd == NULL){

  00028	83 3d 00 00 00
	00 00		 cmp	 DWORD PTR ?pAISettingWnd@@3PAUaction@@A, 0 ; pAISettingWnd
  0002f	75 7a		 jne	 SHORT $LN28@AI_Setting

; 1064 : #ifndef _ATTACK_AI
; 1065 : 		pAISettingWnd = MakeWindowDisp( x, y, 413, 302, 26261, -1);
; 1066 : #else
; 1067 : 	#ifdef _READ16BITBMP
; 1068 : 		if(g_bUseAlpha) pAISettingWnd = MakeWindowDisp( x, y, 413, 302, OLD_GRAPHICS_START + 57, -1);
; 1069 : 		else
; 1070 : 	#endif
; 1071 : 		pAISettingWnd = MakeWindowDisp( x, y, 413, 302, 35225, -1);

  00031	6a ff		 push	 -1
  00033	68 99 89 00 00	 push	 35225			; 00008999H
  00038	68 2e 01 00 00	 push	 302			; 0000012eH
  0003d	68 9d 01 00 00	 push	 413			; 0000019dH
  00042	a1 00 00 00 00	 mov	 eax, DWORD PTR ?y@?1??AI_SettingProc@@YAHXZ@4HA
  00047	50		 push	 eax
  00048	8b 0d 00 00 00
	00		 mov	 ecx, DWORD PTR ?x@?1??AI_SettingProc@@YAHXZ@4HA
  0004e	51		 push	 ecx
  0004f	e8 00 00 00 00	 call	 ?MakeWindowDisp@@YAPAUaction@@HHHHHH@Z ; MakeWindowDisp
  00054	83 c4 18	 add	 esp, 24			; 00000018H
  00057	a3 00 00 00 00	 mov	 DWORD PTR ?pAISettingWnd@@3PAUaction@@A, eax ; pAISettingWnd

; 1072 : #endif
; 1073 : 		dwPressTime = 0;

  0005c	c7 05 00 00 00
	00 00 00 00 00	 mov	 DWORD PTR ?dwPressTime@?1??AI_SettingProc@@YAHXZ@4KA, 0

; 1074 : 		AI_ReLoad();

  00066	e8 00 00 00 00	 call	 ?AI_ReLoad@@YAHXZ	; AI_ReLoad

; 1075 : 		AI_CheckSetting();

  0006b	e8 00 00 00 00	 call	 ?AI_CheckSetting@@YAXXZ	; AI_CheckSetting

; 1076 : 		for( int i = 0 ; i < AIBtnNum ; i++){

  00070	c7 45 e8 00 00
	00 00		 mov	 DWORD PTR _i$11[ebp], 0
  00077	eb 09		 jmp	 SHORT $LN4@AI_Setting
$LN2@AI_Setting:
  00079	8b 45 e8	 mov	 eax, DWORD PTR _i$11[ebp]
  0007c	83 c0 01	 add	 eax, 1
  0007f	89 45 e8	 mov	 DWORD PTR _i$11[ebp], eax
$LN4@AI_Setting:
  00082	83 7d e8 18	 cmp	 DWORD PTR _i$11[ebp], 24 ; 00000018H
  00086	7d 1e		 jge	 SHORT $LN3@AI_Setting

; 1077 : 			btnId[i] = -2;

  00088	8b 45 e8	 mov	 eax, DWORD PTR _i$11[ebp]
  0008b	c7 04 85 00 00
	00 00 fe ff ff
	ff		 mov	 DWORD PTR ?btnId@?1??AI_SettingProc@@YAHXZ@4PAHA[eax*4], -2 ; fffffffeH

; 1078 : 			btnState[i] = 0;

  00096	8b 45 e8	 mov	 eax, DWORD PTR _i$11[ebp]
  00099	c7 04 85 00 00
	00 00 00 00 00
	00		 mov	 DWORD PTR ?btnState@?1??AI_SettingProc@@YAHXZ@4PAHA[eax*4], 0

; 1079 : 		}

  000a4	eb d3		 jmp	 SHORT $LN2@AI_Setting
$LN3@AI_Setting:

; 1080 : 	}else{

  000a6	e9 d4 12 00 00	 jmp	 $LN29@AI_Setting
$LN28@AI_Setting:

; 1081 : 		if( pAISettingWnd->hp >= 1){

  000ab	a1 00 00 00 00	 mov	 eax, DWORD PTR ?pAISettingWnd@@3PAUaction@@A ; pAISettingWnd
  000b0	83 78 78 01	 cmp	 DWORD PTR [eax+120], 1
  000b4	0f 8c c5 12 00
	00		 jl	 $LN29@AI_Setting

; 1082 : 			if( joy_trg[ 0 ] & JOY_ESC){

  000ba	b8 04 00 00 00	 mov	 eax, 4
  000bf	6b c8 00	 imul	 ecx, eax, 0
  000c2	8b 91 00 00 00
	00		 mov	 edx, DWORD PTR ?joy_trg@@3PAKA[ecx]
  000c8	81 e2 00 00 00
	80		 and	 edx, -2147483648	; 80000000H
  000ce	74 4d		 je	 SHORT $LN31@AI_Setting

; 1083 : 				DeathAction( pAISettingWnd );

  000d0	a1 00 00 00 00	 mov	 eax, DWORD PTR ?pAISettingWnd@@3PAUaction@@A ; pAISettingWnd
  000d5	50		 push	 eax
  000d6	e8 00 00 00 00	 call	 ?DeathAction@@YAXPAUaction@@@Z ; DeathAction
  000db	83 c4 04	 add	 esp, 4

; 1084 : 				pAISettingWnd = NULL;

  000de	c7 05 00 00 00
	00 00 00 00 00	 mov	 DWORD PTR ?pAISettingWnd@@3PAUaction@@A, 0 ; pAISettingWnd

; 1085 : #ifdef _AI_OTHER
; 1086 : 				if(pAIOtherFunctionWnd){

  000e8	83 3d 00 00 00
	00 00		 cmp	 DWORD PTR ?pAIOtherFunctionWnd@@3PAUaction@@A, 0 ; pAIOtherFunctionWnd
  000ef	74 22		 je	 SHORT $LN32@AI_Setting

; 1087 : 					DeathAction(pAIOtherFunctionWnd);

  000f1	a1 00 00 00 00	 mov	 eax, DWORD PTR ?pAIOtherFunctionWnd@@3PAUaction@@A ; pAIOtherFunctionWnd
  000f6	50		 push	 eax
  000f7	e8 00 00 00 00	 call	 ?DeathAction@@YAXPAUaction@@@Z ; DeathAction
  000fc	83 c4 04	 add	 esp, 4

; 1088 : 					pAIOtherFunctionWnd = NULL;

  000ff	c7 05 00 00 00
	00 00 00 00 00	 mov	 DWORD PTR ?pAIOtherFunctionWnd@@3PAUaction@@A, 0 ; pAIOtherFunctionWnd

; 1089 : 					AI_Other_State = 0;

  00109	c7 05 00 00 00
	00 00 00 00 00	 mov	 DWORD PTR ?AI_Other_State@@3HA, 0 ; AI_Other_State
$LN32@AI_Setting:

; 1090 : 				}
; 1091 : #endif
; 1092 : 				return TRUE;

  00113	b8 01 00 00 00	 mov	 eax, 1
  00118	e9 64 12 00 00	 jmp	 $LN139@AI_Setting
$LN31@AI_Setting:

; 1093 : 			}
; 1094 : 			if( dwPressTime){

  0011d	83 3d 00 00 00
	00 00		 cmp	 DWORD PTR ?dwPressTime@?1??AI_SettingProc@@YAHXZ@4KA, 0
  00124	0f 84 24 09 00
	00		 je	 $LN33@AI_Setting

; 1095 : 				if( TimeGetTime()>(dwPressTime+100)){

  0012a	e8 00 00 00 00	 call	 ?TimeGetTime@@YAIXZ	; TimeGetTime
  0012f	8b 0d 00 00 00
	00		 mov	 ecx, DWORD PTR ?dwPressTime@?1??AI_SettingProc@@YAHXZ@4KA
  00135	83 c1 64	 add	 ecx, 100		; 00000064H
  00138	3b c1		 cmp	 eax, ecx
  0013a	0f 86 09 09 00
	00		 jbe	 $LN35@AI_Setting

; 1096 : 					dwPressTime = 0;

  00140	c7 05 00 00 00
	00 00 00 00 00	 mov	 DWORD PTR ?dwPressTime@?1??AI_SettingProc@@YAHXZ@4KA, 0

; 1097 : 					if( btnState[0] == 1){//æŒ‰ä¸‹"??"

  0014a	b8 04 00 00 00	 mov	 eax, 4
  0014f	6b c8 00	 imul	 ecx, eax, 0
  00152	83 b9 00 00 00
	00 01		 cmp	 DWORD PTR ?btnState@?1??AI_SettingProc@@YAHXZ@4PAHA[ecx], 1
  00159	0f 85 80 00 00
	00		 jne	 $LN36@AI_Setting

; 1098 : 						btnState[0] = 0;

  0015f	b8 04 00 00 00	 mov	 eax, 4
  00164	6b c8 00	 imul	 ecx, eax, 0
  00167	c7 81 00 00 00
	00 00 00 00 00	 mov	 DWORD PTR ?btnState@?1??AI_SettingProc@@YAHXZ@4PAHA[ecx], 0

; 1099 : 						DeathAction( pAISettingWnd );

  00171	a1 00 00 00 00	 mov	 eax, DWORD PTR ?pAISettingWnd@@3PAUaction@@A ; pAISettingWnd
  00176	50		 push	 eax
  00177	e8 00 00 00 00	 call	 ?DeathAction@@YAXPAUaction@@@Z ; DeathAction
  0017c	83 c4 04	 add	 esp, 4

; 1100 : 						pAISettingWnd = NULL;

  0017f	c7 05 00 00 00
	00 00 00 00 00	 mov	 DWORD PTR ?pAISettingWnd@@3PAUaction@@A, 0 ; pAISettingWnd

; 1101 : #ifdef _AI_OTHER
; 1102 : 						if(pAIOtherFunctionWnd){

  00189	83 3d 00 00 00
	00 00		 cmp	 DWORD PTR ?pAIOtherFunctionWnd@@3PAUaction@@A, 0 ; pAIOtherFunctionWnd
  00190	74 22		 je	 SHORT $LN38@AI_Setting

; 1103 : 							DeathAction(pAIOtherFunctionWnd);

  00192	a1 00 00 00 00	 mov	 eax, DWORD PTR ?pAIOtherFunctionWnd@@3PAUaction@@A ; pAIOtherFunctionWnd
  00197	50		 push	 eax
  00198	e8 00 00 00 00	 call	 ?DeathAction@@YAXPAUaction@@@Z ; DeathAction
  0019d	83 c4 04	 add	 esp, 4

; 1104 : 							pAIOtherFunctionWnd = NULL;

  001a0	c7 05 00 00 00
	00 00 00 00 00	 mov	 DWORD PTR ?pAIOtherFunctionWnd@@3PAUaction@@A, 0 ; pAIOtherFunctionWnd

; 1105 : 							AI_Other_State = 0;

  001aa	c7 05 00 00 00
	00 00 00 00 00	 mov	 DWORD PTR ?AI_Other_State@@3HA, 0 ; AI_Other_State
$LN38@AI_Setting:

; 1106 : 						}
; 1107 : #endif
; 1108 : 						play_se( 217, 320, 240 );

  001b4	68 f0 00 00 00	 push	 240			; 000000f0H
  001b9	68 40 01 00 00	 push	 320			; 00000140H
  001be	68 d9 00 00 00	 push	 217			; 000000d9H
  001c3	e8 00 00 00 00	 call	 ?play_se@@YAHHHH@Z	; play_se
  001c8	83 c4 0c	 add	 esp, 12			; 0000000cH

; 1109 : 						AI_Save();

  001cb	e8 00 00 00 00	 call	 ?AI_Save@@YAHXZ		; AI_Save

; 1110 : 						return TRUE;

  001d0	b8 01 00 00 00	 mov	 eax, 1
  001d5	e9 a7 11 00 00	 jmp	 $LN139@AI_Setting
  001da	e9 6a 08 00 00	 jmp	 $LN35@AI_Setting
$LN36@AI_Setting:

; 1111 : 					}else if( btnState[1] == 1){//æŒ‰ä¸‹"??"

  001df	b8 04 00 00 00	 mov	 eax, 4
  001e4	c1 e0 00	 shl	 eax, 0
  001e7	83 b8 00 00 00
	00 01		 cmp	 DWORD PTR ?btnState@?1??AI_SettingProc@@YAHXZ@4PAHA[eax], 1
  001ee	75 7b		 jne	 SHORT $LN39@AI_Setting

; 1112 : 						btnState[1] = 0;

  001f0	b8 04 00 00 00	 mov	 eax, 4
  001f5	c1 e0 00	 shl	 eax, 0
  001f8	c7 80 00 00 00
	00 00 00 00 00	 mov	 DWORD PTR ?btnState@?1??AI_SettingProc@@YAHXZ@4PAHA[eax], 0

; 1113 : 						DeathAction( pAISettingWnd );

  00202	a1 00 00 00 00	 mov	 eax, DWORD PTR ?pAISettingWnd@@3PAUaction@@A ; pAISettingWnd
  00207	50		 push	 eax
  00208	e8 00 00 00 00	 call	 ?DeathAction@@YAXPAUaction@@@Z ; DeathAction
  0020d	83 c4 04	 add	 esp, 4

; 1114 : 						pAISettingWnd = NULL;

  00210	c7 05 00 00 00
	00 00 00 00 00	 mov	 DWORD PTR ?pAISettingWnd@@3PAUaction@@A, 0 ; pAISettingWnd

; 1115 : #ifdef _AI_OTHER
; 1116 : 						if(pAIOtherFunctionWnd){

  0021a	83 3d 00 00 00
	00 00		 cmp	 DWORD PTR ?pAIOtherFunctionWnd@@3PAUaction@@A, 0 ; pAIOtherFunctionWnd
  00221	74 22		 je	 SHORT $LN41@AI_Setting

; 1117 : 							DeathAction(pAIOtherFunctionWnd);

  00223	a1 00 00 00 00	 mov	 eax, DWORD PTR ?pAIOtherFunctionWnd@@3PAUaction@@A ; pAIOtherFunctionWnd
  00228	50		 push	 eax
  00229	e8 00 00 00 00	 call	 ?DeathAction@@YAXPAUaction@@@Z ; DeathAction
  0022e	83 c4 04	 add	 esp, 4

; 1118 : 							pAIOtherFunctionWnd = NULL;

  00231	c7 05 00 00 00
	00 00 00 00 00	 mov	 DWORD PTR ?pAIOtherFunctionWnd@@3PAUaction@@A, 0 ; pAIOtherFunctionWnd

; 1119 : 							AI_Other_State = 0;

  0023b	c7 05 00 00 00
	00 00 00 00 00	 mov	 DWORD PTR ?AI_Other_State@@3HA, 0 ; AI_Other_State
$LN41@AI_Setting:

; 1120 : 						}
; 1121 : #endif
; 1122 : 						play_se( 203, 320, 240 );

  00245	68 f0 00 00 00	 push	 240			; 000000f0H
  0024a	68 40 01 00 00	 push	 320			; 00000140H
  0024f	68 cb 00 00 00	 push	 203			; 000000cbH
  00254	e8 00 00 00 00	 call	 ?play_se@@YAHHHH@Z	; play_se
  00259	83 c4 0c	 add	 esp, 12			; 0000000cH

; 1123 : 						return TRUE;

  0025c	b8 01 00 00 00	 mov	 eax, 1
  00261	e9 1b 11 00 00	 jmp	 $LN139@AI_Setting
  00266	e9 de 07 00 00	 jmp	 $LN35@AI_Setting
$LN39@AI_Setting:

; 1124 : 					}else if( btnState[2] == 1){//æŒ‰ä¸‹è¡¥è¡€çš„ç²¾çµä¸Šä¸€ä¸ª

  0026b	b8 04 00 00 00	 mov	 eax, 4
  00270	d1 e0		 shl	 eax, 1
  00272	83 b8 00 00 00
	00 01		 cmp	 DWORD PTR ?btnState@?1??AI_SettingProc@@YAHXZ@4PAHA[eax], 1
  00279	75 37		 jne	 SHORT $LN42@AI_Setting

; 1125 : 						btnState[2] = 0;

  0027b	b8 04 00 00 00	 mov	 eax, 4
  00280	d1 e0		 shl	 eax, 1
  00282	c7 80 00 00 00
	00 00 00 00 00	 mov	 DWORD PTR ?btnState@?1??AI_SettingProc@@YAHXZ@4PAHA[eax], 0

; 1126 : 						play_se( 217, 320, 240 );

  0028c	68 f0 00 00 00	 push	 240			; 000000f0H
  00291	68 40 01 00 00	 push	 320			; 00000140H
  00296	68 d9 00 00 00	 push	 217			; 000000d9H
  0029b	e8 00 00 00 00	 call	 ?play_se@@YAHHHH@Z	; play_se
  002a0	83 c4 0c	 add	 esp, 12			; 0000000cH

; 1127 : 						AI_SetUpCureMethod( 0);

  002a3	6a 00		 push	 0
  002a5	e8 00 00 00 00	 call	 ?AI_SetUpCureMethod@@YAXH@Z ; AI_SetUpCureMethod
  002aa	83 c4 04	 add	 esp, 4
  002ad	e9 97 07 00 00	 jmp	 $LN35@AI_Setting
$LN42@AI_Setting:

; 1128 : 					}else  if( btnState[3] == 1){//æŒ‰ä¸‹è¡¥è¡€çš„ç²¾çµä¸‹ä¸€ä¸ª

  002b2	b8 04 00 00 00	 mov	 eax, 4
  002b7	6b c8 03	 imul	 ecx, eax, 3
  002ba	83 b9 00 00 00
	00 01		 cmp	 DWORD PTR ?btnState@?1??AI_SettingProc@@YAHXZ@4PAHA[ecx], 1
  002c1	75 38		 jne	 SHORT $LN44@AI_Setting

; 1129 : 						btnState[3] = 0;

  002c3	b8 04 00 00 00	 mov	 eax, 4
  002c8	6b c8 03	 imul	 ecx, eax, 3
  002cb	c7 81 00 00 00
	00 00 00 00 00	 mov	 DWORD PTR ?btnState@?1??AI_SettingProc@@YAHXZ@4PAHA[ecx], 0

; 1130 : 						play_se( 217, 320, 240 );

  002d5	68 f0 00 00 00	 push	 240			; 000000f0H
  002da	68 40 01 00 00	 push	 320			; 00000140H
  002df	68 d9 00 00 00	 push	 217			; 000000d9H
  002e4	e8 00 00 00 00	 call	 ?play_se@@YAHHHH@Z	; play_se
  002e9	83 c4 0c	 add	 esp, 12			; 0000000cH

; 1131 : 						AI_SetDownCureMethod( 0);

  002ec	6a 00		 push	 0
  002ee	e8 00 00 00 00	 call	 ?AI_SetDownCureMethod@@YAXH@Z ; AI_SetDownCureMethod
  002f3	83 c4 04	 add	 esp, 4
  002f6	e9 4e 07 00 00	 jmp	 $LN35@AI_Setting
$LN44@AI_Setting:

; 1132 : 					}else if( btnState[4] == 1){//æŒ‰ä¸‹è¡¥è¡€çš„é¡ºåºä¸Šä¸€ä¸ª

  002fb	b8 04 00 00 00	 mov	 eax, 4
  00300	c1 e0 02	 shl	 eax, 2
  00303	83 b8 00 00 00
	00 01		 cmp	 DWORD PTR ?btnState@?1??AI_SettingProc@@YAHXZ@4PAHA[eax], 1
  0030a	75 38		 jne	 SHORT $LN46@AI_Setting

; 1133 : 						btnState[4] = 0;

  0030c	b8 04 00 00 00	 mov	 eax, 4
  00311	c1 e0 02	 shl	 eax, 2
  00314	c7 80 00 00 00
	00 00 00 00 00	 mov	 DWORD PTR ?btnState@?1??AI_SettingProc@@YAHXZ@4PAHA[eax], 0

; 1134 : 						play_se( 217, 320, 240 );

  0031e	68 f0 00 00 00	 push	 240			; 000000f0H
  00323	68 40 01 00 00	 push	 320			; 00000140H
  00328	68 d9 00 00 00	 push	 217			; 000000d9H
  0032d	e8 00 00 00 00	 call	 ?play_se@@YAHHHH@Z	; play_se
  00332	83 c4 0c	 add	 esp, 12			; 0000000cH

; 1135 : 						AI_SetUpTarget( 0);

  00335	6a 00		 push	 0
  00337	e8 00 00 00 00	 call	 ?AI_SetUpTarget@@YAXH@Z	; AI_SetUpTarget
  0033c	83 c4 04	 add	 esp, 4
  0033f	e9 05 07 00 00	 jmp	 $LN35@AI_Setting
$LN46@AI_Setting:

; 1136 : 					}else if( btnState[5] == 1){//æŒ‰ä¸‹è¡¥è¡€çš„é¡ºåºä¸‹ä¸€ä¸ª

  00344	b8 04 00 00 00	 mov	 eax, 4
  00349	6b c8 05	 imul	 ecx, eax, 5
  0034c	83 b9 00 00 00
	00 01		 cmp	 DWORD PTR ?btnState@?1??AI_SettingProc@@YAHXZ@4PAHA[ecx], 1
  00353	75 38		 jne	 SHORT $LN48@AI_Setting

; 1137 : 						btnState[5] = 0;

  00355	b8 04 00 00 00	 mov	 eax, 4
  0035a	6b c8 05	 imul	 ecx, eax, 5
  0035d	c7 81 00 00 00
	00 00 00 00 00	 mov	 DWORD PTR ?btnState@?1??AI_SettingProc@@YAHXZ@4PAHA[ecx], 0

; 1138 : 						play_se( 217, 320, 240 );

  00367	68 f0 00 00 00	 push	 240			; 000000f0H
  0036c	68 40 01 00 00	 push	 320			; 00000140H
  00371	68 d9 00 00 00	 push	 217			; 000000d9H
  00376	e8 00 00 00 00	 call	 ?play_se@@YAHHHH@Z	; play_se
  0037b	83 c4 0c	 add	 esp, 12			; 0000000cH

; 1139 : 						AI_SetDownTarget( 0);

  0037e	6a 00		 push	 0
  00380	e8 00 00 00 00	 call	 ?AI_SetDownTarget@@YAXH@Z ; AI_SetDownTarget
  00385	83 c4 04	 add	 esp, 4
  00388	e9 bc 06 00 00	 jmp	 $LN35@AI_Setting
$LN48@AI_Setting:

; 1140 : 					}else if( btnState[6] == 1){//æŒ‰ä¸‹è¡¥è¡€çš„æ•°å€¼ä¸Šä¸€ä¸ª

  0038d	b8 04 00 00 00	 mov	 eax, 4
  00392	6b c8 06	 imul	 ecx, eax, 6
  00395	83 b9 00 00 00
	00 01		 cmp	 DWORD PTR ?btnState@?1??AI_SettingProc@@YAHXZ@4PAHA[ecx], 1
  0039c	75 38		 jne	 SHORT $LN50@AI_Setting

; 1141 : 						btnState[6] = 0;

  0039e	b8 04 00 00 00	 mov	 eax, 4
  003a3	6b c8 06	 imul	 ecx, eax, 6
  003a6	c7 81 00 00 00
	00 00 00 00 00	 mov	 DWORD PTR ?btnState@?1??AI_SettingProc@@YAHXZ@4PAHA[ecx], 0

; 1142 : 						play_se( 217, 320, 240 );

  003b0	68 f0 00 00 00	 push	 240			; 000000f0H
  003b5	68 40 01 00 00	 push	 320			; 00000140H
  003ba	68 d9 00 00 00	 push	 217			; 000000d9H
  003bf	e8 00 00 00 00	 call	 ?play_se@@YAHHHH@Z	; play_se
  003c4	83 c4 0c	 add	 esp, 12			; 0000000cH

; 1143 : 						AI_SetUpLimit( 0);

  003c7	6a 00		 push	 0
  003c9	e8 00 00 00 00	 call	 ?AI_SetUpLimit@@YAXH@Z	; AI_SetUpLimit
  003ce	83 c4 04	 add	 esp, 4
  003d1	e9 73 06 00 00	 jmp	 $LN35@AI_Setting
$LN50@AI_Setting:

; 1144 : 					}else  if( btnState[7] == 1){//æŒ‰ä¸‹è¡¥è¡€çš„æ•°å€¼ä¸‹ä¸€ä¸ª

  003d6	b8 04 00 00 00	 mov	 eax, 4
  003db	6b c8 07	 imul	 ecx, eax, 7
  003de	83 b9 00 00 00
	00 01		 cmp	 DWORD PTR ?btnState@?1??AI_SettingProc@@YAHXZ@4PAHA[ecx], 1
  003e5	75 38		 jne	 SHORT $LN52@AI_Setting

; 1145 : 						btnState[7] = 0;

  003e7	b8 04 00 00 00	 mov	 eax, 4
  003ec	6b c8 07	 imul	 ecx, eax, 7
  003ef	c7 81 00 00 00
	00 00 00 00 00	 mov	 DWORD PTR ?btnState@?1??AI_SettingProc@@YAHXZ@4PAHA[ecx], 0

; 1146 : 						play_se( 217, 320, 240 );

  003f9	68 f0 00 00 00	 push	 240			; 000000f0H
  003fe	68 40 01 00 00	 push	 320			; 00000140H
  00403	68 d9 00 00 00	 push	 217			; 000000d9H
  00408	e8 00 00 00 00	 call	 ?play_se@@YAHHHH@Z	; play_se
  0040d	83 c4 0c	 add	 esp, 12			; 0000000cH

; 1147 : 						AI_SetDownLimit( 0);

  00410	6a 00		 push	 0
  00412	e8 00 00 00 00	 call	 ?AI_SetDownLimit@@YAXH@Z ; AI_SetDownLimit
  00417	83 c4 04	 add	 esp, 4
  0041a	e9 2a 06 00 00	 jmp	 $LN35@AI_Setting
$LN52@AI_Setting:

; 1148 : 					}else if( btnState[8] == 1){//æŒ‰ä¸‹è¡¥æ°”çš„æ•°å€¼ä¸Šä¸€ä¸ª

  0041f	b8 04 00 00 00	 mov	 eax, 4
  00424	c1 e0 03	 shl	 eax, 3
  00427	83 b8 00 00 00
	00 01		 cmp	 DWORD PTR ?btnState@?1??AI_SettingProc@@YAHXZ@4PAHA[eax], 1
  0042e	75 38		 jne	 SHORT $LN54@AI_Setting

; 1149 : 						btnState[8] = 0;

  00430	b8 04 00 00 00	 mov	 eax, 4
  00435	c1 e0 03	 shl	 eax, 3
  00438	c7 80 00 00 00
	00 00 00 00 00	 mov	 DWORD PTR ?btnState@?1??AI_SettingProc@@YAHXZ@4PAHA[eax], 0

; 1150 : 						play_se( 217, 320, 240 );

  00442	68 f0 00 00 00	 push	 240			; 000000f0H
  00447	68 40 01 00 00	 push	 320			; 00000140H
  0044c	68 d9 00 00 00	 push	 217			; 000000d9H
  00451	e8 00 00 00 00	 call	 ?play_se@@YAHHHH@Z	; play_se
  00456	83 c4 0c	 add	 esp, 12			; 0000000cH

; 1151 : 						AI_SetUpLimit( 1);

  00459	6a 01		 push	 1
  0045b	e8 00 00 00 00	 call	 ?AI_SetUpLimit@@YAXH@Z	; AI_SetUpLimit
  00460	83 c4 04	 add	 esp, 4
  00463	e9 e1 05 00 00	 jmp	 $LN35@AI_Setting
$LN54@AI_Setting:

; 1152 : 					}else  if( btnState[9] == 1){//æŒ‰ä¸‹è¡¥æ°”çš„æ•°å€¼ä¸‹ä¸€ä¸ª

  00468	b8 04 00 00 00	 mov	 eax, 4
  0046d	6b c8 09	 imul	 ecx, eax, 9
  00470	83 b9 00 00 00
	00 01		 cmp	 DWORD PTR ?btnState@?1??AI_SettingProc@@YAHXZ@4PAHA[ecx], 1
  00477	75 38		 jne	 SHORT $LN56@AI_Setting

; 1153 : 						btnState[9] = 0;

  00479	b8 04 00 00 00	 mov	 eax, 4
  0047e	6b c8 09	 imul	 ecx, eax, 9
  00481	c7 81 00 00 00
	00 00 00 00 00	 mov	 DWORD PTR ?btnState@?1??AI_SettingProc@@YAHXZ@4PAHA[ecx], 0

; 1154 : 						play_se( 217, 320, 240 );

  0048b	68 f0 00 00 00	 push	 240			; 000000f0H
  00490	68 40 01 00 00	 push	 320			; 00000140H
  00495	68 d9 00 00 00	 push	 217			; 000000d9H
  0049a	e8 00 00 00 00	 call	 ?play_se@@YAHHHH@Z	; play_se
  0049f	83 c4 0c	 add	 esp, 12			; 0000000cH

; 1155 : 						AI_SetDownLimit( 1);

  004a2	6a 01		 push	 1
  004a4	e8 00 00 00 00	 call	 ?AI_SetDownLimit@@YAXH@Z ; AI_SetDownLimit
  004a9	83 c4 04	 add	 esp, 4
  004ac	e9 98 05 00 00	 jmp	 $LN35@AI_Setting
$LN56@AI_Setting:

; 1156 : 					}else if( btnState[10] == 1){//æŒ‰ä¸‹é¦–æ¬¡çš„ç²¾çµä¸Šä¸€ä¸ª

  004b1	b8 04 00 00 00	 mov	 eax, 4
  004b6	6b c8 0a	 imul	 ecx, eax, 10
  004b9	83 b9 00 00 00
	00 01		 cmp	 DWORD PTR ?btnState@?1??AI_SettingProc@@YAHXZ@4PAHA[ecx], 1
  004c0	75 38		 jne	 SHORT $LN58@AI_Setting

; 1157 : 						btnState[10] = 0;

  004c2	b8 04 00 00 00	 mov	 eax, 4
  004c7	6b c8 0a	 imul	 ecx, eax, 10
  004ca	c7 81 00 00 00
	00 00 00 00 00	 mov	 DWORD PTR ?btnState@?1??AI_SettingProc@@YAHXZ@4PAHA[ecx], 0

; 1158 : 						play_se( 217, 320, 240 );

  004d4	68 f0 00 00 00	 push	 240			; 000000f0H
  004d9	68 40 01 00 00	 push	 320			; 00000140H
  004de	68 d9 00 00 00	 push	 217			; 000000d9H
  004e3	e8 00 00 00 00	 call	 ?play_se@@YAHHHH@Z	; play_se
  004e8	83 c4 0c	 add	 esp, 12			; 0000000cH

; 1159 : 						AI_SetUpFirstMethod( 2);

  004eb	6a 02		 push	 2
  004ed	e8 00 00 00 00	 call	 ?AI_SetUpFirstMethod@@YAXH@Z ; AI_SetUpFirstMethod
  004f2	83 c4 04	 add	 esp, 4
  004f5	e9 4f 05 00 00	 jmp	 $LN35@AI_Setting
$LN58@AI_Setting:

; 1160 : 					}else  if( btnState[11] == 1){//æŒ‰ä¸‹é¦–æ¬¡çš„ç²¾çµä¸‹ä¸€ä¸ª

  004fa	b8 04 00 00 00	 mov	 eax, 4
  004ff	6b c8 0b	 imul	 ecx, eax, 11
  00502	83 b9 00 00 00
	00 01		 cmp	 DWORD PTR ?btnState@?1??AI_SettingProc@@YAHXZ@4PAHA[ecx], 1
  00509	75 38		 jne	 SHORT $LN60@AI_Setting

; 1161 : 						btnState[11] = 0;

  0050b	b8 04 00 00 00	 mov	 eax, 4
  00510	6b c8 0b	 imul	 ecx, eax, 11
  00513	c7 81 00 00 00
	00 00 00 00 00	 mov	 DWORD PTR ?btnState@?1??AI_SettingProc@@YAHXZ@4PAHA[ecx], 0

; 1162 : 						play_se( 217, 320, 240 );

  0051d	68 f0 00 00 00	 push	 240			; 000000f0H
  00522	68 40 01 00 00	 push	 320			; 00000140H
  00527	68 d9 00 00 00	 push	 217			; 000000d9H
  0052c	e8 00 00 00 00	 call	 ?play_se@@YAHHHH@Z	; play_se
  00531	83 c4 0c	 add	 esp, 12			; 0000000cH

; 1163 : 						AI_SetDownFirstMethod( 2);

  00534	6a 02		 push	 2
  00536	e8 00 00 00 00	 call	 ?AI_SetDownFirstMethod@@YAXH@Z ; AI_SetDownFirstMethod
  0053b	83 c4 04	 add	 esp, 4
  0053e	e9 06 05 00 00	 jmp	 $LN35@AI_Setting
$LN60@AI_Setting:

; 1164 : 					}else if( btnState[12] == 1){//æŒ‰ä¸‹é¦–æ¬¡çš„é¡ºåºä¸Šä¸€ä¸ª

  00543	b8 04 00 00 00	 mov	 eax, 4
  00548	6b c8 0c	 imul	 ecx, eax, 12
  0054b	83 b9 00 00 00
	00 01		 cmp	 DWORD PTR ?btnState@?1??AI_SettingProc@@YAHXZ@4PAHA[ecx], 1
  00552	75 38		 jne	 SHORT $LN62@AI_Setting

; 1165 : 						btnState[12] = 0;

  00554	b8 04 00 00 00	 mov	 eax, 4
  00559	6b c8 0c	 imul	 ecx, eax, 12
  0055c	c7 81 00 00 00
	00 00 00 00 00	 mov	 DWORD PTR ?btnState@?1??AI_SettingProc@@YAHXZ@4PAHA[ecx], 0

; 1166 : 						play_se( 217, 320, 240 );

  00566	68 f0 00 00 00	 push	 240			; 000000f0H
  0056b	68 40 01 00 00	 push	 320			; 00000140H
  00570	68 d9 00 00 00	 push	 217			; 000000d9H
  00575	e8 00 00 00 00	 call	 ?play_se@@YAHHHH@Z	; play_se
  0057a	83 c4 0c	 add	 esp, 12			; 0000000cH

; 1167 : 						AI_SetUpTarget( 2);

  0057d	6a 02		 push	 2
  0057f	e8 00 00 00 00	 call	 ?AI_SetUpTarget@@YAXH@Z	; AI_SetUpTarget
  00584	83 c4 04	 add	 esp, 4
  00587	e9 bd 04 00 00	 jmp	 $LN35@AI_Setting
$LN62@AI_Setting:

; 1168 : 					}else  if( btnState[13] == 1){//æŒ‰ä¸‹é¦–æ¬¡çš„é¡ºåºä¸‹ä¸€ä¸ª

  0058c	b8 04 00 00 00	 mov	 eax, 4
  00591	6b c8 0d	 imul	 ecx, eax, 13
  00594	83 b9 00 00 00
	00 01		 cmp	 DWORD PTR ?btnState@?1??AI_SettingProc@@YAHXZ@4PAHA[ecx], 1
  0059b	75 38		 jne	 SHORT $LN64@AI_Setting

; 1169 : 						btnState[13] = 0;

  0059d	b8 04 00 00 00	 mov	 eax, 4
  005a2	6b c8 0d	 imul	 ecx, eax, 13
  005a5	c7 81 00 00 00
	00 00 00 00 00	 mov	 DWORD PTR ?btnState@?1??AI_SettingProc@@YAHXZ@4PAHA[ecx], 0

; 1170 : 						play_se( 217, 320, 240 );

  005af	68 f0 00 00 00	 push	 240			; 000000f0H
  005b4	68 40 01 00 00	 push	 320			; 00000140H
  005b9	68 d9 00 00 00	 push	 217			; 000000d9H
  005be	e8 00 00 00 00	 call	 ?play_se@@YAHHHH@Z	; play_se
  005c3	83 c4 0c	 add	 esp, 12			; 0000000cH

; 1171 : 						AI_SetDownTarget( 2);

  005c6	6a 02		 push	 2
  005c8	e8 00 00 00 00	 call	 ?AI_SetDownTarget@@YAXH@Z ; AI_SetDownTarget
  005cd	83 c4 04	 add	 esp, 4
  005d0	e9 74 04 00 00	 jmp	 $LN35@AI_Setting
$LN64@AI_Setting:

; 1172 : 					}else if( btnState[14] == 1){//æŒ‰ä¸‹å¤æ´»çš„ç²¾çµä¸Šä¸€ä¸ª

  005d5	b8 04 00 00 00	 mov	 eax, 4
  005da	6b c8 0e	 imul	 ecx, eax, 14
  005dd	83 b9 00 00 00
	00 01		 cmp	 DWORD PTR ?btnState@?1??AI_SettingProc@@YAHXZ@4PAHA[ecx], 1
  005e4	75 38		 jne	 SHORT $LN66@AI_Setting

; 1173 : 						btnState[14] = 0;

  005e6	b8 04 00 00 00	 mov	 eax, 4
  005eb	6b c8 0e	 imul	 ecx, eax, 14
  005ee	c7 81 00 00 00
	00 00 00 00 00	 mov	 DWORD PTR ?btnState@?1??AI_SettingProc@@YAHXZ@4PAHA[ecx], 0

; 1174 : 						play_se( 217, 320, 240 );

  005f8	68 f0 00 00 00	 push	 240			; 000000f0H
  005fd	68 40 01 00 00	 push	 320			; 00000140H
  00602	68 d9 00 00 00	 push	 217			; 000000d9H
  00607	e8 00 00 00 00	 call	 ?play_se@@YAHHHH@Z	; play_se
  0060c	83 c4 0c	 add	 esp, 12			; 0000000cH

; 1175 : 						AI_SetUpResurrectMethod( 3);

  0060f	6a 03		 push	 3
  00611	e8 00 00 00 00	 call	 ?AI_SetUpResurrectMethod@@YAXH@Z ; AI_SetUpResurrectMethod
  00616	83 c4 04	 add	 esp, 4
  00619	e9 2b 04 00 00	 jmp	 $LN35@AI_Setting
$LN66@AI_Setting:

; 1176 : 					}else  if( btnState[15] == 1){//æŒ‰ä¸‹å¤æ´»çš„ç²¾çµä¸‹ä¸€ä¸ª

  0061e	b8 04 00 00 00	 mov	 eax, 4
  00623	6b c8 0f	 imul	 ecx, eax, 15
  00626	83 b9 00 00 00
	00 01		 cmp	 DWORD PTR ?btnState@?1??AI_SettingProc@@YAHXZ@4PAHA[ecx], 1
  0062d	75 38		 jne	 SHORT $LN68@AI_Setting

; 1177 : 						btnState[15] = 0;

  0062f	b8 04 00 00 00	 mov	 eax, 4
  00634	6b c8 0f	 imul	 ecx, eax, 15
  00637	c7 81 00 00 00
	00 00 00 00 00	 mov	 DWORD PTR ?btnState@?1??AI_SettingProc@@YAHXZ@4PAHA[ecx], 0

; 1178 : 						play_se( 217, 320, 240 );

  00641	68 f0 00 00 00	 push	 240			; 000000f0H
  00646	68 40 01 00 00	 push	 320			; 00000140H
  0064b	68 d9 00 00 00	 push	 217			; 000000d9H
  00650	e8 00 00 00 00	 call	 ?play_se@@YAHHHH@Z	; play_se
  00655	83 c4 0c	 add	 esp, 12			; 0000000cH

; 1179 : 						AI_SetDownResurrectMethod( 3);

  00658	6a 03		 push	 3
  0065a	e8 00 00 00 00	 call	 ?AI_SetDownResurrectMethod@@YAXH@Z ; AI_SetDownResurrectMethod
  0065f	83 c4 04	 add	 esp, 4
  00662	e9 e2 03 00 00	 jmp	 $LN35@AI_Setting
$LN68@AI_Setting:

; 1180 : 					}else if( btnState[16] == 1){//æŒ‰ä¸‹å¤æ´»çš„é¡ºåºä¸Šä¸€ä¸ª

  00667	b8 04 00 00 00	 mov	 eax, 4
  0066c	c1 e0 04	 shl	 eax, 4
  0066f	83 b8 00 00 00
	00 01		 cmp	 DWORD PTR ?btnState@?1??AI_SettingProc@@YAHXZ@4PAHA[eax], 1
  00676	0f 85 cb 00 00
	00		 jne	 $LN70@AI_Setting

; 1181 : 						btnState[16] = 0;

  0067c	b8 04 00 00 00	 mov	 eax, 4
  00681	c1 e0 04	 shl	 eax, 4
  00684	c7 80 00 00 00
	00 00 00 00 00	 mov	 DWORD PTR ?btnState@?1??AI_SettingProc@@YAHXZ@4PAHA[eax], 0

; 1182 : 						play_se( 217, 320, 240 );

  0068e	68 f0 00 00 00	 push	 240			; 000000f0H
  00693	68 40 01 00 00	 push	 320			; 00000140H
  00698	68 d9 00 00 00	 push	 217			; 000000d9H
  0069d	e8 00 00 00 00	 call	 ?play_se@@YAHHHH@Z	; play_se
  006a2	83 c4 0c	 add	 esp, 12			; 0000000cH

; 1183 : 						if( TARGET_1<=AI_target[3] && AI_target[3]<=TARGET_5){

  006a5	b8 04 00 00 00	 mov	 eax, 4
  006aa	6b c8 03	 imul	 ecx, eax, 3
  006ad	83 b9 00 00 00
	00 07		 cmp	 DWORD PTR ?AI_target@@3PAHA[ecx], 7
  006b4	7c 55		 jl	 SHORT $LN72@AI_Setting
  006b6	b8 04 00 00 00	 mov	 eax, 4
  006bb	6b c8 03	 imul	 ecx, eax, 3
  006be	83 b9 00 00 00
	00 0b		 cmp	 DWORD PTR ?AI_target@@3PAHA[ecx], 11 ; 0000000bH
  006c5	7f 44		 jg	 SHORT $LN72@AI_Setting

; 1184 : 							AI_target[3]--;

  006c7	b8 04 00 00 00	 mov	 eax, 4
  006cc	6b c8 03	 imul	 ecx, eax, 3
  006cf	8b 91 00 00 00
	00		 mov	 edx, DWORD PTR ?AI_target@@3PAHA[ecx]
  006d5	83 ea 01	 sub	 edx, 1
  006d8	b8 04 00 00 00	 mov	 eax, 4
  006dd	6b c8 03	 imul	 ecx, eax, 3
  006e0	89 91 00 00 00
	00		 mov	 DWORD PTR ?AI_target@@3PAHA[ecx], edx

; 1185 : 							if( AI_target[3] < TARGET_1)

  006e6	b8 04 00 00 00	 mov	 eax, 4
  006eb	6b c8 03	 imul	 ecx, eax, 3
  006ee	83 b9 00 00 00
	00 07		 cmp	 DWORD PTR ?AI_target@@3PAHA[ecx], 7
  006f5	7d 12		 jge	 SHORT $LN74@AI_Setting

; 1186 : 								AI_target[3] = TARGET_MYSIDE;

  006f7	b8 04 00 00 00	 mov	 eax, 4
  006fc	6b c8 03	 imul	 ecx, eax, 3
  006ff	c7 81 00 00 00
	00 03 00 00 00	 mov	 DWORD PTR ?AI_target@@3PAHA[ecx], 3
$LN74@AI_Setting:

; 1187 : 						}else if( AI_target[3] == TARGET_MYPET){

  00709	eb 37		 jmp	 SHORT $LN73@AI_Setting
$LN72@AI_Setting:
  0070b	b8 04 00 00 00	 mov	 eax, 4
  00710	6b c8 03	 imul	 ecx, eax, 3
  00713	83 b9 00 00 00
	00 02		 cmp	 DWORD PTR ?AI_target@@3PAHA[ecx], 2
  0071a	75 14		 jne	 SHORT $LN75@AI_Setting

; 1188 : 							AI_target[3] = TARGET_5;

  0071c	b8 04 00 00 00	 mov	 eax, 4
  00721	6b c8 03	 imul	 ecx, eax, 3
  00724	c7 81 00 00 00
	00 0b 00 00 00	 mov	 DWORD PTR ?AI_target@@3PAHA[ecx], 11 ; 0000000bH

; 1189 : 						}else{

  0072e	eb 12		 jmp	 SHORT $LN73@AI_Setting
$LN75@AI_Setting:

; 1190 : 							AI_target[3] = TARGET_MYPET;

  00730	b8 04 00 00 00	 mov	 eax, 4
  00735	6b c8 03	 imul	 ecx, eax, 3
  00738	c7 81 00 00 00
	00 02 00 00 00	 mov	 DWORD PTR ?AI_target@@3PAHA[ecx], 2
$LN73@AI_Setting:

; 1191 : 						}

  00742	e9 02 03 00 00	 jmp	 $LN35@AI_Setting
$LN70@AI_Setting:

; 1192 : 					}else  if( btnState[17] == 1){//æŒ‰ä¸‹å¤æ´»çš„é¡ºåºä¸‹ä¸€ä¸ª

  00747	b8 04 00 00 00	 mov	 eax, 4
  0074c	6b c8 11	 imul	 ecx, eax, 17
  0074f	83 b9 00 00 00
	00 01		 cmp	 DWORD PTR ?btnState@?1??AI_SettingProc@@YAHXZ@4PAHA[ecx], 1
  00756	0f 85 cb 00 00
	00		 jne	 $LN77@AI_Setting

; 1193 : 						btnState[17] = 0;

  0075c	b8 04 00 00 00	 mov	 eax, 4
  00761	6b c8 11	 imul	 ecx, eax, 17
  00764	c7 81 00 00 00
	00 00 00 00 00	 mov	 DWORD PTR ?btnState@?1??AI_SettingProc@@YAHXZ@4PAHA[ecx], 0

; 1194 : 						play_se( 217, 320, 240 );

  0076e	68 f0 00 00 00	 push	 240			; 000000f0H
  00773	68 40 01 00 00	 push	 320			; 00000140H
  00778	68 d9 00 00 00	 push	 217			; 000000d9H
  0077d	e8 00 00 00 00	 call	 ?play_se@@YAHHHH@Z	; play_se
  00782	83 c4 0c	 add	 esp, 12			; 0000000cH

; 1195 : 						if( TARGET_1<=AI_target[3] && AI_target[3]<=TARGET_5){

  00785	b8 04 00 00 00	 mov	 eax, 4
  0078a	6b c8 03	 imul	 ecx, eax, 3
  0078d	83 b9 00 00 00
	00 07		 cmp	 DWORD PTR ?AI_target@@3PAHA[ecx], 7
  00794	7c 55		 jl	 SHORT $LN79@AI_Setting
  00796	b8 04 00 00 00	 mov	 eax, 4
  0079b	6b c8 03	 imul	 ecx, eax, 3
  0079e	83 b9 00 00 00
	00 0b		 cmp	 DWORD PTR ?AI_target@@3PAHA[ecx], 11 ; 0000000bH
  007a5	7f 44		 jg	 SHORT $LN79@AI_Setting

; 1196 : 							AI_target[3]++;

  007a7	b8 04 00 00 00	 mov	 eax, 4
  007ac	6b c8 03	 imul	 ecx, eax, 3
  007af	8b 91 00 00 00
	00		 mov	 edx, DWORD PTR ?AI_target@@3PAHA[ecx]
  007b5	83 c2 01	 add	 edx, 1
  007b8	b8 04 00 00 00	 mov	 eax, 4
  007bd	6b c8 03	 imul	 ecx, eax, 3
  007c0	89 91 00 00 00
	00		 mov	 DWORD PTR ?AI_target@@3PAHA[ecx], edx

; 1197 : 							if( AI_target[3] > TARGET_5)

  007c6	b8 04 00 00 00	 mov	 eax, 4
  007cb	6b c8 03	 imul	 ecx, eax, 3
  007ce	83 b9 00 00 00
	00 0b		 cmp	 DWORD PTR ?AI_target@@3PAHA[ecx], 11 ; 0000000bH
  007d5	7e 12		 jle	 SHORT $LN81@AI_Setting

; 1198 : 								AI_target[3] = TARGET_MYPET;

  007d7	b8 04 00 00 00	 mov	 eax, 4
  007dc	6b c8 03	 imul	 ecx, eax, 3
  007df	c7 81 00 00 00
	00 02 00 00 00	 mov	 DWORD PTR ?AI_target@@3PAHA[ecx], 2
$LN81@AI_Setting:

; 1199 : 						}else if( AI_target[3] == TARGET_MYPET){

  007e9	eb 37		 jmp	 SHORT $LN80@AI_Setting
$LN79@AI_Setting:
  007eb	b8 04 00 00 00	 mov	 eax, 4
  007f0	6b c8 03	 imul	 ecx, eax, 3
  007f3	83 b9 00 00 00
	00 02		 cmp	 DWORD PTR ?AI_target@@3PAHA[ecx], 2
  007fa	75 14		 jne	 SHORT $LN82@AI_Setting

; 1200 : 							AI_target[3] = TARGET_MYSIDE;

  007fc	b8 04 00 00 00	 mov	 eax, 4
  00801	6b c8 03	 imul	 ecx, eax, 3
  00804	c7 81 00 00 00
	00 03 00 00 00	 mov	 DWORD PTR ?AI_target@@3PAHA[ecx], 3

; 1201 : 						}else{

  0080e	eb 12		 jmp	 SHORT $LN80@AI_Setting
$LN82@AI_Setting:

; 1202 : 							AI_target[3] = TARGET_1;

  00810	b8 04 00 00 00	 mov	 eax, 4
  00815	6b c8 03	 imul	 ecx, eax, 3
  00818	c7 81 00 00 00
	00 07 00 00 00	 mov	 DWORD PTR ?AI_target@@3PAHA[ecx], 7
$LN80@AI_Setting:

; 1203 : 						}

  00822	e9 22 02 00 00	 jmp	 $LN35@AI_Setting
$LN77@AI_Setting:

; 1204 : 					}
; 1205 : #ifdef _ATTACK_AI
; 1206 : 					else if(btnState[18] == 1){// æŒ‰ä¸‹æ”»å‡»åŠŸèƒ½åˆ—çš„ç²¾çµæ çš„ä¸Šä¸€ä¸ª

  00827	b8 04 00 00 00	 mov	 eax, 4
  0082c	6b c8 12	 imul	 ecx, eax, 18
  0082f	83 b9 00 00 00
	00 01		 cmp	 DWORD PTR ?btnState@?1??AI_SettingProc@@YAHXZ@4PAHA[ecx], 1
  00836	75 38		 jne	 SHORT $LN84@AI_Setting

; 1207 : 						btnState[18] = 0;

  00838	b8 04 00 00 00	 mov	 eax, 4
  0083d	6b c8 12	 imul	 ecx, eax, 18
  00840	c7 81 00 00 00
	00 00 00 00 00	 mov	 DWORD PTR ?btnState@?1??AI_SettingProc@@YAHXZ@4PAHA[ecx], 0

; 1208 : 						play_se( 217, 320, 240 );

  0084a	68 f0 00 00 00	 push	 240			; 000000f0H
  0084f	68 40 01 00 00	 push	 320			; 00000140H
  00854	68 d9 00 00 00	 push	 217			; 000000d9H
  00859	e8 00 00 00 00	 call	 ?play_se@@YAHHHH@Z	; play_se
  0085e	83 c4 0c	 add	 esp, 12			; 0000000cH

; 1209 : 						AI_SetUpAttackMethod(4);

  00861	6a 04		 push	 4
  00863	e8 00 00 00 00	 call	 ?AI_SetUpAttackMethod@@YAXH@Z ; AI_SetUpAttackMethod
  00868	83 c4 04	 add	 esp, 4
  0086b	e9 d9 01 00 00	 jmp	 $LN35@AI_Setting
$LN84@AI_Setting:

; 1210 : 					}
; 1211 : 					else if(btnState[19] == 1){// æŒ‰ä¸‹æ”»å‡»åŠŸèƒ½åˆ—çš„ç²¾çµæ çš„ä¸‹ä¸€ä¸ª

  00870	b8 04 00 00 00	 mov	 eax, 4
  00875	6b c8 13	 imul	 ecx, eax, 19
  00878	83 b9 00 00 00
	00 01		 cmp	 DWORD PTR ?btnState@?1??AI_SettingProc@@YAHXZ@4PAHA[ecx], 1
  0087f	75 38		 jne	 SHORT $LN86@AI_Setting

; 1212 : 						btnState[19] = 0;

  00881	b8 04 00 00 00	 mov	 eax, 4
  00886	6b c8 13	 imul	 ecx, eax, 19
  00889	c7 81 00 00 00
	00 00 00 00 00	 mov	 DWORD PTR ?btnState@?1??AI_SettingProc@@YAHXZ@4PAHA[ecx], 0

; 1213 : 						play_se( 217, 320, 240 );

  00893	68 f0 00 00 00	 push	 240			; 000000f0H
  00898	68 40 01 00 00	 push	 320			; 00000140H
  0089d	68 d9 00 00 00	 push	 217			; 000000d9H
  008a2	e8 00 00 00 00	 call	 ?play_se@@YAHHHH@Z	; play_se
  008a7	83 c4 0c	 add	 esp, 12			; 0000000cH

; 1214 : 						AI_SetDownAttackMethod(4);

  008aa	6a 04		 push	 4
  008ac	e8 00 00 00 00	 call	 ?AI_SetDownAttackMethod@@YAXH@Z ; AI_SetDownAttackMethod
  008b1	83 c4 04	 add	 esp, 4
  008b4	e9 90 01 00 00	 jmp	 $LN35@AI_Setting
$LN86@AI_Setting:

; 1215 : 					}
; 1216 : 					else if(btnState[20] == 1){// æŒ‰ä¸‹æ”»å‡»åŠŸèƒ½åˆ—çš„é¡ºåºæ çš„ä¸Šä¸€ä¸ª

  008b9	b8 04 00 00 00	 mov	 eax, 4
  008be	6b c8 14	 imul	 ecx, eax, 20
  008c1	83 b9 00 00 00
	00 01		 cmp	 DWORD PTR ?btnState@?1??AI_SettingProc@@YAHXZ@4PAHA[ecx], 1
  008c8	75 38		 jne	 SHORT $LN88@AI_Setting

; 1217 : 						btnState[20] = 0;

  008ca	b8 04 00 00 00	 mov	 eax, 4
  008cf	6b c8 14	 imul	 ecx, eax, 20
  008d2	c7 81 00 00 00
	00 00 00 00 00	 mov	 DWORD PTR ?btnState@?1??AI_SettingProc@@YAHXZ@4PAHA[ecx], 0

; 1218 : 						play_se( 217, 320, 240 );

  008dc	68 f0 00 00 00	 push	 240			; 000000f0H
  008e1	68 40 01 00 00	 push	 320			; 00000140H
  008e6	68 d9 00 00 00	 push	 217			; 000000d9H
  008eb	e8 00 00 00 00	 call	 ?play_se@@YAHHHH@Z	; play_se
  008f0	83 c4 0c	 add	 esp, 12			; 0000000cH

; 1219 : 						AI_SetUpTarget(4);

  008f3	6a 04		 push	 4
  008f5	e8 00 00 00 00	 call	 ?AI_SetUpTarget@@YAXH@Z	; AI_SetUpTarget
  008fa	83 c4 04	 add	 esp, 4
  008fd	e9 47 01 00 00	 jmp	 $LN35@AI_Setting
$LN88@AI_Setting:

; 1220 : 					}else if(btnState[21] == 1){// æŒ‰ä¸‹æ”»å‡»åŠŸèƒ½åˆ—çš„é¡ºåºæ çš„ä¸‹ä¸€ä¸ª

  00902	b8 04 00 00 00	 mov	 eax, 4
  00907	6b c8 15	 imul	 ecx, eax, 21
  0090a	83 b9 00 00 00
	00 01		 cmp	 DWORD PTR ?btnState@?1??AI_SettingProc@@YAHXZ@4PAHA[ecx], 1
  00911	75 38		 jne	 SHORT $LN90@AI_Setting

; 1221 : 						btnState[21] = 0;

  00913	b8 04 00 00 00	 mov	 eax, 4
  00918	6b c8 15	 imul	 ecx, eax, 21
  0091b	c7 81 00 00 00
	00 00 00 00 00	 mov	 DWORD PTR ?btnState@?1??AI_SettingProc@@YAHXZ@4PAHA[ecx], 0

; 1222 : 						play_se( 217, 320, 240 );

  00925	68 f0 00 00 00	 push	 240			; 000000f0H
  0092a	68 40 01 00 00	 push	 320			; 00000140H
  0092f	68 d9 00 00 00	 push	 217			; 000000d9H
  00934	e8 00 00 00 00	 call	 ?play_se@@YAHHHH@Z	; play_se
  00939	83 c4 0c	 add	 esp, 12			; 0000000cH

; 1223 : 						AI_SetDownTarget(4);

  0093c	6a 04		 push	 4
  0093e	e8 00 00 00 00	 call	 ?AI_SetDownTarget@@YAXH@Z ; AI_SetDownTarget
  00943	83 c4 04	 add	 esp, 4
  00946	e9 fe 00 00 00	 jmp	 $LN35@AI_Setting
$LN90@AI_Setting:

; 1224 : 					}else if( btnState[22] == 1){//æŒ‰ä¸‹è¡¥æ°”çš„ç²¾çµä¸Šä¸€ä¸ª

  0094b	b8 04 00 00 00	 mov	 eax, 4
  00950	6b c8 16	 imul	 ecx, eax, 22
  00953	83 b9 00 00 00
	00 01		 cmp	 DWORD PTR ?btnState@?1??AI_SettingProc@@YAHXZ@4PAHA[ecx], 1
  0095a	75 6f		 jne	 SHORT $LN92@AI_Setting

; 1225 : 						btnState[22] = 0;

  0095c	b8 04 00 00 00	 mov	 eax, 4
  00961	6b c8 16	 imul	 ecx, eax, 22
  00964	c7 81 00 00 00
	00 00 00 00 00	 mov	 DWORD PTR ?btnState@?1??AI_SettingProc@@YAHXZ@4PAHA[ecx], 0

; 1226 : 						play_se( 217, 320, 240 );

  0096e	68 f0 00 00 00	 push	 240			; 000000f0H
  00973	68 40 01 00 00	 push	 320			; 00000140H
  00978	68 d9 00 00 00	 push	 217			; 000000d9H
  0097d	e8 00 00 00 00	 call	 ?play_se@@YAHHHH@Z	; play_se
  00982	83 c4 0c	 add	 esp, 12			; 0000000cH

; 1227 : 						// è‹¥æœ‰è¡¥æ°”æŠ€èƒ½
; 1228 : 						if(g_bUsePS){

  00985	0f b6 05 00 00
	00 00		 movzx	 eax, BYTE PTR ?g_bUsePS@@3_NA ; g_bUsePS
  0098c	85 c0		 test	 eax, eax
  0098e	74 39		 je	 SHORT $LN94@AI_Setting

; 1229 : 							if(AI_method[1] == -1) AI_method[1] = g_iPSindex;

  00990	b8 04 00 00 00	 mov	 eax, 4
  00995	c1 e0 00	 shl	 eax, 0
  00998	83 b8 00 00 00
	00 ff		 cmp	 DWORD PTR ?AI_method@@3PAHA[eax], -1
  0099f	75 16		 jne	 SHORT $LN95@AI_Setting
  009a1	b8 04 00 00 00	 mov	 eax, 4
  009a6	c1 e0 00	 shl	 eax, 0
  009a9	8b 0d 00 00 00
	00		 mov	 ecx, DWORD PTR ?g_iPSindex@@3HA ; g_iPSindex
  009af	89 88 00 00 00
	00		 mov	 DWORD PTR ?AI_method@@3PAHA[eax], ecx
  009b5	eb 12		 jmp	 SHORT $LN94@AI_Setting
$LN95@AI_Setting:

; 1230 : 							else AI_method[1] = -1;

  009b7	b8 04 00 00 00	 mov	 eax, 4
  009bc	c1 e0 00	 shl	 eax, 0
  009bf	c7 80 00 00 00
	00 ff ff ff ff	 mov	 DWORD PTR ?AI_method@@3PAHA[eax], -1
$LN94@AI_Setting:

; 1231 : 						}

  009c9	eb 7e		 jmp	 SHORT $LN35@AI_Setting
$LN92@AI_Setting:

; 1232 : 					}else if( btnState[23] == 1){//æŒ‰ä¸‹è¡¥æ°”çš„ç²¾çµä¸‹ä¸€ä¸ª

  009cb	b8 04 00 00 00	 mov	 eax, 4
  009d0	6b c8 17	 imul	 ecx, eax, 23
  009d3	83 b9 00 00 00
	00 01		 cmp	 DWORD PTR ?btnState@?1??AI_SettingProc@@YAHXZ@4PAHA[ecx], 1
  009da	75 6d		 jne	 SHORT $LN35@AI_Setting

; 1233 : 						btnState[23] = 0;

  009dc	b8 04 00 00 00	 mov	 eax, 4
  009e1	6b c8 17	 imul	 ecx, eax, 23
  009e4	c7 81 00 00 00
	00 00 00 00 00	 mov	 DWORD PTR ?btnState@?1??AI_SettingProc@@YAHXZ@4PAHA[ecx], 0

; 1234 : 						play_se( 217, 320, 240 );

  009ee	68 f0 00 00 00	 push	 240			; 000000f0H
  009f3	68 40 01 00 00	 push	 320			; 00000140H
  009f8	68 d9 00 00 00	 push	 217			; 000000d9H
  009fd	e8 00 00 00 00	 call	 ?play_se@@YAHHHH@Z	; play_se
  00a02	83 c4 0c	 add	 esp, 12			; 0000000cH

; 1235 : 						// è‹¥æœ‰è¡¥æ°”æŠ€èƒ½
; 1236 : 						if(g_bUsePS){

  00a05	0f b6 05 00 00
	00 00		 movzx	 eax, BYTE PTR ?g_bUsePS@@3_NA ; g_bUsePS
  00a0c	85 c0		 test	 eax, eax
  00a0e	74 39		 je	 SHORT $LN35@AI_Setting

; 1237 : 							if(AI_method[1] == -1) AI_method[1] = g_iPSindex;

  00a10	b8 04 00 00 00	 mov	 eax, 4
  00a15	c1 e0 00	 shl	 eax, 0
  00a18	83 b8 00 00 00
	00 ff		 cmp	 DWORD PTR ?AI_method@@3PAHA[eax], -1
  00a1f	75 16		 jne	 SHORT $LN99@AI_Setting
  00a21	b8 04 00 00 00	 mov	 eax, 4
  00a26	c1 e0 00	 shl	 eax, 0
  00a29	8b 0d 00 00 00
	00		 mov	 ecx, DWORD PTR ?g_iPSindex@@3HA ; g_iPSindex
  00a2f	89 88 00 00 00
	00		 mov	 DWORD PTR ?AI_method@@3PAHA[eax], ecx
  00a35	eb 12		 jmp	 SHORT $LN35@AI_Setting
$LN99@AI_Setting:

; 1238 : 							else AI_method[1] = -1;

  00a37	b8 04 00 00 00	 mov	 eax, 4
  00a3c	c1 e0 00	 shl	 eax, 0
  00a3f	c7 80 00 00 00
	00 ff ff ff ff	 mov	 DWORD PTR ?AI_method@@3PAHA[eax], -1
$LN35@AI_Setting:

; 1239 : 						}
; 1240 : 					}
; 1241 : #endif
; 1242 : 				}
; 1243 : 			}else{

  00a49	e9 a2 00 00 00	 jmp	 $LN34@AI_Setting
$LN33@AI_Setting:

; 1244 : 				//æ˜¯å¦æŒ‰ä¸‹æŒ‰é’®
; 1245 : 				for( int i = 0; i < AIBtnNum; i++){

  00a4e	c7 45 dc 00 00
	00 00		 mov	 DWORD PTR _i$10[ebp], 0
  00a55	eb 09		 jmp	 SHORT $LN7@AI_Setting
$LN5@AI_Setting:
  00a57	8b 45 dc	 mov	 eax, DWORD PTR _i$10[ebp]
  00a5a	83 c0 01	 add	 eax, 1
  00a5d	89 45 dc	 mov	 DWORD PTR _i$10[ebp], eax
$LN7@AI_Setting:
  00a60	83 7d dc 18	 cmp	 DWORD PTR _i$10[ebp], 24 ; 00000018H
  00a64	7d 38		 jge	 SHORT $LN6@AI_Setting

; 1246 : 					if( HitDispNo == btnId[i]){

  00a66	8b 45 dc	 mov	 eax, DWORD PTR _i$10[ebp]
  00a69	8b 0d 00 00 00
	00		 mov	 ecx, DWORD PTR ?HitDispNo@@3HA ; HitDispNo
  00a6f	3b 0c 85 00 00
	00 00		 cmp	 ecx, DWORD PTR ?btnId@?1??AI_SettingProc@@YAHXZ@4PAHA[eax*4]
  00a76	75 24		 jne	 SHORT $LN101@AI_Setting

; 1247 : 						if( mouse.onceState & MOUSE_LEFT_CRICK){

  00a78	a1 2c 00 00 00	 mov	 eax, DWORD PTR ?mouse@@3UMOUSE@@A+44
  00a7d	83 e0 01	 and	 eax, 1
  00a80	74 1a		 je	 SHORT $LN101@AI_Setting

; 1248 : 							dwPressTime = TimeGetTime();

  00a82	e8 00 00 00 00	 call	 ?TimeGetTime@@YAIXZ	; TimeGetTime
  00a87	a3 00 00 00 00	 mov	 DWORD PTR ?dwPressTime@?1??AI_SettingProc@@YAHXZ@4KA, eax

; 1249 : 							btnState[i] = 1;

  00a8c	8b 45 dc	 mov	 eax, DWORD PTR _i$10[ebp]
  00a8f	c7 04 85 00 00
	00 00 01 00 00
	00		 mov	 DWORD PTR ?btnState@?1??AI_SettingProc@@YAHXZ@4PAHA[eax*4], 1

; 1250 : 							break;

  00a9a	eb 02		 jmp	 SHORT $LN6@AI_Setting
$LN101@AI_Setting:

; 1251 : 						}
; 1252 : 					}
; 1253 : 				}

  00a9c	eb b9		 jmp	 SHORT $LN5@AI_Setting
$LN6@AI_Setting:

; 1254 : #ifdef _AI_OTHER
; 1255 : 				//æŒ‰ä¸‹å…¶å®ƒ
; 1256 : 				if(MakeHitBox(x+317,y+168,x+386,y+193,DISP_PRIO_BOX2))

  00a9e	6a 6b		 push	 107			; 0000006bH
  00aa0	a1 00 00 00 00	 mov	 eax, DWORD PTR ?y@?1??AI_SettingProc@@YAHXZ@4HA
  00aa5	05 c1 00 00 00	 add	 eax, 193		; 000000c1H
  00aaa	50		 push	 eax
  00aab	8b 0d 00 00 00
	00		 mov	 ecx, DWORD PTR ?x@?1??AI_SettingProc@@YAHXZ@4HA
  00ab1	81 c1 82 01 00
	00		 add	 ecx, 386		; 00000182H
  00ab7	51		 push	 ecx
  00ab8	8b 15 00 00 00
	00		 mov	 edx, DWORD PTR ?y@?1??AI_SettingProc@@YAHXZ@4HA
  00abe	81 c2 a8 00 00
	00		 add	 edx, 168		; 000000a8H
  00ac4	52		 push	 edx
  00ac5	a1 00 00 00 00	 mov	 eax, DWORD PTR ?x@?1??AI_SettingProc@@YAHXZ@4HA
  00aca	05 3d 01 00 00	 add	 eax, 317		; 0000013dH
  00acf	50		 push	 eax
  00ad0	e8 00 00 00 00	 call	 ?MakeHitBox@@YAHHHHHH@Z	; MakeHitBox
  00ad5	83 c4 14	 add	 esp, 20			; 00000014H
  00ad8	85 c0		 test	 eax, eax
  00ada	74 14		 je	 SHORT $LN34@AI_Setting

; 1257 : 					if(mouse.onceState & MOUSE_LEFT_CRICK) AI_Other_State = 1;

  00adc	a1 2c 00 00 00	 mov	 eax, DWORD PTR ?mouse@@3UMOUSE@@A+44
  00ae1	83 e0 01	 and	 eax, 1
  00ae4	74 0a		 je	 SHORT $LN34@AI_Setting
  00ae6	c7 05 00 00 00
	00 01 00 00 00	 mov	 DWORD PTR ?AI_Other_State@@3HA, 1 ; AI_Other_State
$LN34@AI_Setting:

; 1258 : #endif
; 1259 : 			}
; 1260 : 			//è¯´æ˜Žæ–‡å­—
; 1261 : 			for( int i = 0; i < AIBtnNum; i++){

  00af0	c7 45 d0 00 00
	00 00		 mov	 DWORD PTR _i$9[ebp], 0
  00af7	eb 09		 jmp	 SHORT $LN10@AI_Setting
$LN8@AI_Setting:
  00af9	8b 45 d0	 mov	 eax, DWORD PTR _i$9[ebp]
  00afc	83 c0 01	 add	 eax, 1
  00aff	89 45 d0	 mov	 DWORD PTR _i$9[ebp], eax
$LN10@AI_Setting:
  00b02	83 7d d0 18	 cmp	 DWORD PTR _i$9[ebp], 24	; 00000018H
  00b06	7d 2f		 jge	 SHORT $LN9@AI_Setting

; 1262 : 				if( HitDispNo == btnId[i]){

  00b08	8b 45 d0	 mov	 eax, DWORD PTR _i$9[ebp]
  00b0b	8b 0d 00 00 00
	00		 mov	 ecx, DWORD PTR ?HitDispNo@@3HA ; HitDispNo
  00b11	3b 0c 85 00 00
	00 00		 cmp	 ecx, DWORD PTR ?btnId@?1??AI_SettingProc@@YAHXZ@4PAHA[eax*4]
  00b18	75 1b		 jne	 SHORT $LN105@AI_Setting

; 1263 : 					strcpy( OneLineInfoStr, Notice[i]);

  00b1a	8b 45 d0	 mov	 eax, DWORD PTR _i$9[ebp]
  00b1d	c1 e0 05	 shl	 eax, 5
  00b20	05 00 00 00 00	 add	 eax, OFFSET ?Notice@?1??AI_SettingProc@@YAHXZ@4PAY0CA@DA
  00b25	50		 push	 eax
  00b26	68 00 00 00 00	 push	 OFFSET ?OneLineInfoStr@@3PADA ; OneLineInfoStr
  00b2b	e8 00 00 00 00	 call	 _strcpy
  00b30	83 c4 08	 add	 esp, 8

; 1264 : 					break;

  00b33	eb 02		 jmp	 SHORT $LN9@AI_Setting
$LN105@AI_Setting:

; 1265 : 				}
; 1266 : 			}

  00b35	eb c2		 jmp	 SHORT $LN8@AI_Setting
$LN9@AI_Setting:

; 1267 : #ifndef _ATTACK_AI
; 1268 : 			StockDispBuffer( ((WINDOW_DISP *)pAISettingWnd->pYobi)->mx, ((WINDOW_DISP *)pAISettingWnd->pYobi)->my, DISP_PRIO_MENU, 26261, 1);
; 1269 : #else
; 1270 : 	#ifdef _READ16BITBMP
; 1271 : 			if(g_bUseAlpha) StockDispBuffer( ((WINDOW_DISP *)pAISettingWnd->pYobi)->mx, ((WINDOW_DISP *)pAISettingWnd->pYobi)->my, DISP_PRIO_MENU, OLD_GRAPHICS_START + 57, 1);
; 1272 : 			else
; 1273 : 	#endif
; 1274 : 			StockDispBuffer( ((WINDOW_DISP *)pAISettingWnd->pYobi)->mx, ((WINDOW_DISP *)pAISettingWnd->pYobi)->my, DISP_PRIO_MENU, 35225, 1);

  00b37	6a 01		 push	 1
  00b39	68 99 89 00 00	 push	 35225			; 00008999H
  00b3e	6a 68		 push	 104			; 00000068H
  00b40	a1 00 00 00 00	 mov	 eax, DWORD PTR ?pAISettingWnd@@3PAUaction@@A ; pAISettingWnd
  00b45	8b 48 0c	 mov	 ecx, DWORD PTR [eax+12]
  00b48	8b 51 18	 mov	 edx, DWORD PTR [ecx+24]
  00b4b	52		 push	 edx
  00b4c	a1 00 00 00 00	 mov	 eax, DWORD PTR ?pAISettingWnd@@3PAUaction@@A ; pAISettingWnd
  00b51	8b 48 0c	 mov	 ecx, DWORD PTR [eax+12]
  00b54	8b 51 14	 mov	 edx, DWORD PTR [ecx+20]
  00b57	52		 push	 edx
  00b58	e8 00 00 00 00	 call	 ?StockDispBuffer@@YAHHHEHH@Z ; StockDispBuffer
  00b5d	83 c4 14	 add	 esp, 20			; 00000014H

; 1275 : #endif
; 1276 : 			btnId[0] = StockDispBuffer( x+207, y+152, DISP_PRIO_IME3, 26262+btnState[0], 2);

  00b60	6a 02		 push	 2
  00b62	b8 04 00 00 00	 mov	 eax, 4
  00b67	6b c8 00	 imul	 ecx, eax, 0
  00b6a	8b 91 00 00 00
	00		 mov	 edx, DWORD PTR ?btnState@?1??AI_SettingProc@@YAHXZ@4PAHA[ecx]
  00b70	81 c2 96 66 00
	00		 add	 edx, 26262		; 00006696H
  00b76	52		 push	 edx
  00b77	6a 69		 push	 105			; 00000069H
  00b79	a1 00 00 00 00	 mov	 eax, DWORD PTR ?y@?1??AI_SettingProc@@YAHXZ@4HA
  00b7e	05 98 00 00 00	 add	 eax, 152		; 00000098H
  00b83	50		 push	 eax
  00b84	8b 0d 00 00 00
	00		 mov	 ecx, DWORD PTR ?x@?1??AI_SettingProc@@YAHXZ@4HA
  00b8a	81 c1 cf 00 00
	00		 add	 ecx, 207		; 000000cfH
  00b90	51		 push	 ecx
  00b91	e8 00 00 00 00	 call	 ?StockDispBuffer@@YAHHHEHH@Z ; StockDispBuffer
  00b96	83 c4 14	 add	 esp, 20			; 00000014H
  00b99	ba 04 00 00 00	 mov	 edx, 4
  00b9e	6b ca 00	 imul	 ecx, edx, 0
  00ba1	89 81 00 00 00
	00		 mov	 DWORD PTR ?btnId@?1??AI_SettingProc@@YAHXZ@4PAHA[ecx], eax

; 1277 : 			btnId[1] = StockDispBuffer( x+207, y+152, DISP_PRIO_IME3, 26264+btnState[1], 2);

  00ba7	6a 02		 push	 2
  00ba9	b8 04 00 00 00	 mov	 eax, 4
  00bae	c1 e0 00	 shl	 eax, 0
  00bb1	8b 88 00 00 00
	00		 mov	 ecx, DWORD PTR ?btnState@?1??AI_SettingProc@@YAHXZ@4PAHA[eax]
  00bb7	81 c1 98 66 00
	00		 add	 ecx, 26264		; 00006698H
  00bbd	51		 push	 ecx
  00bbe	6a 69		 push	 105			; 00000069H
  00bc0	8b 15 00 00 00
	00		 mov	 edx, DWORD PTR ?y@?1??AI_SettingProc@@YAHXZ@4HA
  00bc6	81 c2 98 00 00
	00		 add	 edx, 152		; 00000098H
  00bcc	52		 push	 edx
  00bcd	a1 00 00 00 00	 mov	 eax, DWORD PTR ?x@?1??AI_SettingProc@@YAHXZ@4HA
  00bd2	05 cf 00 00 00	 add	 eax, 207		; 000000cfH
  00bd7	50		 push	 eax
  00bd8	e8 00 00 00 00	 call	 ?StockDispBuffer@@YAHHHEHH@Z ; StockDispBuffer
  00bdd	83 c4 14	 add	 esp, 20			; 00000014H
  00be0	b9 04 00 00 00	 mov	 ecx, 4
  00be5	c1 e1 00	 shl	 ecx, 0
  00be8	89 81 00 00 00
	00		 mov	 DWORD PTR ?btnId@?1??AI_SettingProc@@YAHXZ@4PAHA[ecx], eax

; 1278 : 			for( int i = 0; i < 3; i++){

  00bee	c7 45 c4 00 00
	00 00		 mov	 DWORD PTR _i$8[ebp], 0
  00bf5	eb 09		 jmp	 SHORT $LN13@AI_Setting
$LN11@AI_Setting:
  00bf7	8b 45 c4	 mov	 eax, DWORD PTR _i$8[ebp]
  00bfa	83 c0 01	 add	 eax, 1
  00bfd	89 45 c4	 mov	 DWORD PTR _i$8[ebp], eax
$LN13@AI_Setting:
  00c00	83 7d c4 03	 cmp	 DWORD PTR _i$8[ebp], 3
  00c04	0f 8d 97 00 00
	00		 jge	 $LN12@AI_Setting

; 1279 : 				btnId[2+i*2] = StockDispBuffer( x+u_offx[i], y+92+105, DISP_PRIO_IME3, 26064+btnState[2+i*2], 2);

  00c0a	6a 02		 push	 2
  00c0c	8b 45 c4	 mov	 eax, DWORD PTR _i$8[ebp]
  00c0f	d1 e0		 shl	 eax, 1
  00c11	8b 0c 85 08 00
	00 00		 mov	 ecx, DWORD PTR ?btnState@?1??AI_SettingProc@@YAHXZ@4PAHA[eax*4+8]
  00c18	81 c1 d0 65 00
	00		 add	 ecx, 26064		; 000065d0H
  00c1e	51		 push	 ecx
  00c1f	6a 69		 push	 105			; 00000069H
  00c21	8b 15 00 00 00
	00		 mov	 edx, DWORD PTR ?y@?1??AI_SettingProc@@YAHXZ@4HA
  00c27	81 c2 c5 00 00
	00		 add	 edx, 197		; 000000c5H
  00c2d	52		 push	 edx
  00c2e	8b 45 c4	 mov	 eax, DWORD PTR _i$8[ebp]
  00c31	8b 0d 00 00 00
	00		 mov	 ecx, DWORD PTR ?x@?1??AI_SettingProc@@YAHXZ@4HA
  00c37	03 0c 85 00 00
	00 00		 add	 ecx, DWORD PTR ?u_offx@?1??AI_SettingProc@@YAHXZ@4PAHA[eax*4]
  00c3e	51		 push	 ecx
  00c3f	e8 00 00 00 00	 call	 ?StockDispBuffer@@YAHHHEHH@Z ; StockDispBuffer
  00c44	83 c4 14	 add	 esp, 20			; 00000014H
  00c47	8b 55 c4	 mov	 edx, DWORD PTR _i$8[ebp]
  00c4a	d1 e2		 shl	 edx, 1
  00c4c	89 04 95 08 00
	00 00		 mov	 DWORD PTR ?btnId@?1??AI_SettingProc@@YAHXZ@4PAHA[edx*4+8], eax

; 1280 : 				btnId[3+i*2] = StockDispBuffer( x+d_offx[i], y+107+106, DISP_PRIO_IME3, 26066+btnState[3+i*2], 2);

  00c53	6a 02		 push	 2
  00c55	8b 45 c4	 mov	 eax, DWORD PTR _i$8[ebp]
  00c58	d1 e0		 shl	 eax, 1
  00c5a	8b 0c 85 0c 00
	00 00		 mov	 ecx, DWORD PTR ?btnState@?1??AI_SettingProc@@YAHXZ@4PAHA[eax*4+12]
  00c61	81 c1 d2 65 00
	00		 add	 ecx, 26066		; 000065d2H
  00c67	51		 push	 ecx
  00c68	6a 69		 push	 105			; 00000069H
  00c6a	8b 15 00 00 00
	00		 mov	 edx, DWORD PTR ?y@?1??AI_SettingProc@@YAHXZ@4HA
  00c70	81 c2 d5 00 00
	00		 add	 edx, 213		; 000000d5H
  00c76	52		 push	 edx
  00c77	8b 45 c4	 mov	 eax, DWORD PTR _i$8[ebp]
  00c7a	8b 0d 00 00 00
	00		 mov	 ecx, DWORD PTR ?x@?1??AI_SettingProc@@YAHXZ@4HA
  00c80	03 0c 85 00 00
	00 00		 add	 ecx, DWORD PTR ?d_offx@?1??AI_SettingProc@@YAHXZ@4PAHA[eax*4]
  00c87	51		 push	 ecx
  00c88	e8 00 00 00 00	 call	 ?StockDispBuffer@@YAHHHEHH@Z ; StockDispBuffer
  00c8d	83 c4 14	 add	 esp, 20			; 00000014H
  00c90	8b 55 c4	 mov	 edx, DWORD PTR _i$8[ebp]
  00c93	d1 e2		 shl	 edx, 1
  00c95	89 04 95 0c 00
	00 00		 mov	 DWORD PTR ?btnId@?1??AI_SettingProc@@YAHXZ@4PAHA[edx*4+12], eax

; 1281 : 			}

  00c9c	e9 56 ff ff ff	 jmp	 $LN11@AI_Setting
$LN12@AI_Setting:

; 1282 : 			btnId[8] = StockDispBuffer( x+u_offx[2], y+128+105, DISP_PRIO_IME3, 26064+btnState[8], 2);

  00ca1	6a 02		 push	 2
  00ca3	b8 04 00 00 00	 mov	 eax, 4
  00ca8	c1 e0 03	 shl	 eax, 3
  00cab	8b 88 00 00 00
	00		 mov	 ecx, DWORD PTR ?btnState@?1??AI_SettingProc@@YAHXZ@4PAHA[eax]
  00cb1	81 c1 d0 65 00
	00		 add	 ecx, 26064		; 000065d0H
  00cb7	51		 push	 ecx
  00cb8	6a 69		 push	 105			; 00000069H
  00cba	8b 15 00 00 00
	00		 mov	 edx, DWORD PTR ?y@?1??AI_SettingProc@@YAHXZ@4HA
  00cc0	81 c2 e9 00 00
	00		 add	 edx, 233		; 000000e9H
  00cc6	52		 push	 edx
  00cc7	b8 04 00 00 00	 mov	 eax, 4
  00ccc	d1 e0		 shl	 eax, 1
  00cce	8b 0d 00 00 00
	00		 mov	 ecx, DWORD PTR ?x@?1??AI_SettingProc@@YAHXZ@4HA
  00cd4	03 88 00 00 00
	00		 add	 ecx, DWORD PTR ?u_offx@?1??AI_SettingProc@@YAHXZ@4PAHA[eax]
  00cda	51		 push	 ecx
  00cdb	e8 00 00 00 00	 call	 ?StockDispBuffer@@YAHHHEHH@Z ; StockDispBuffer
  00ce0	83 c4 14	 add	 esp, 20			; 00000014H
  00ce3	ba 04 00 00 00	 mov	 edx, 4
  00ce8	c1 e2 03	 shl	 edx, 3
  00ceb	89 82 00 00 00
	00		 mov	 DWORD PTR ?btnId@?1??AI_SettingProc@@YAHXZ@4PAHA[edx], eax

; 1283 : 			btnId[9] = StockDispBuffer( x+d_offx[2], y+143+106, DISP_PRIO_IME3, 26066+btnState[9], 2);

  00cf1	6a 02		 push	 2
  00cf3	b8 04 00 00 00	 mov	 eax, 4
  00cf8	6b c8 09	 imul	 ecx, eax, 9
  00cfb	8b 91 00 00 00
	00		 mov	 edx, DWORD PTR ?btnState@?1??AI_SettingProc@@YAHXZ@4PAHA[ecx]
  00d01	81 c2 d2 65 00
	00		 add	 edx, 26066		; 000065d2H
  00d07	52		 push	 edx
  00d08	6a 69		 push	 105			; 00000069H
  00d0a	a1 00 00 00 00	 mov	 eax, DWORD PTR ?y@?1??AI_SettingProc@@YAHXZ@4HA
  00d0f	05 f9 00 00 00	 add	 eax, 249		; 000000f9H
  00d14	50		 push	 eax
  00d15	b9 04 00 00 00	 mov	 ecx, 4
  00d1a	d1 e1		 shl	 ecx, 1
  00d1c	8b 15 00 00 00
	00		 mov	 edx, DWORD PTR ?x@?1??AI_SettingProc@@YAHXZ@4HA
  00d22	03 91 00 00 00
	00		 add	 edx, DWORD PTR ?d_offx@?1??AI_SettingProc@@YAHXZ@4PAHA[ecx]
  00d28	52		 push	 edx
  00d29	e8 00 00 00 00	 call	 ?StockDispBuffer@@YAHHHEHH@Z ; StockDispBuffer
  00d2e	83 c4 14	 add	 esp, 20			; 00000014H
  00d31	b9 04 00 00 00	 mov	 ecx, 4
  00d36	6b d1 09	 imul	 edx, ecx, 9
  00d39	89 82 00 00 00
	00		 mov	 DWORD PTR ?btnId@?1??AI_SettingProc@@YAHXZ@4PAHA[edx], eax

; 1284 : 			for( int i = 0; i < 2; i++){

  00d3f	c7 45 b8 00 00
	00 00		 mov	 DWORD PTR _i$7[ebp], 0
  00d46	eb 09		 jmp	 SHORT $LN16@AI_Setting
$LN14@AI_Setting:
  00d48	8b 45 b8	 mov	 eax, DWORD PTR _i$7[ebp]
  00d4b	83 c0 01	 add	 eax, 1
  00d4e	89 45 b8	 mov	 DWORD PTR _i$7[ebp], eax
$LN16@AI_Setting:
  00d51	83 7d b8 02	 cmp	 DWORD PTR _i$7[ebp], 2
  00d55	0f 8d 97 00 00
	00		 jge	 $LN15@AI_Setting

; 1285 : 				btnId[10+i*2] = StockDispBuffer( x+u_offx[i], y+164+105, DISP_PRIO_IME3, 26064+btnState[10+i*2], 2);

  00d5b	6a 02		 push	 2
  00d5d	8b 45 b8	 mov	 eax, DWORD PTR _i$7[ebp]
  00d60	d1 e0		 shl	 eax, 1
  00d62	8b 0c 85 28 00
	00 00		 mov	 ecx, DWORD PTR ?btnState@?1??AI_SettingProc@@YAHXZ@4PAHA[eax*4+40]
  00d69	81 c1 d0 65 00
	00		 add	 ecx, 26064		; 000065d0H
  00d6f	51		 push	 ecx
  00d70	6a 69		 push	 105			; 00000069H
  00d72	8b 15 00 00 00
	00		 mov	 edx, DWORD PTR ?y@?1??AI_SettingProc@@YAHXZ@4HA
  00d78	81 c2 0d 01 00
	00		 add	 edx, 269		; 0000010dH
  00d7e	52		 push	 edx
  00d7f	8b 45 b8	 mov	 eax, DWORD PTR _i$7[ebp]
  00d82	8b 0d 00 00 00
	00		 mov	 ecx, DWORD PTR ?x@?1??AI_SettingProc@@YAHXZ@4HA
  00d88	03 0c 85 00 00
	00 00		 add	 ecx, DWORD PTR ?u_offx@?1??AI_SettingProc@@YAHXZ@4PAHA[eax*4]
  00d8f	51		 push	 ecx
  00d90	e8 00 00 00 00	 call	 ?StockDispBuffer@@YAHHHEHH@Z ; StockDispBuffer
  00d95	83 c4 14	 add	 esp, 20			; 00000014H
  00d98	8b 55 b8	 mov	 edx, DWORD PTR _i$7[ebp]
  00d9b	d1 e2		 shl	 edx, 1
  00d9d	89 04 95 28 00
	00 00		 mov	 DWORD PTR ?btnId@?1??AI_SettingProc@@YAHXZ@4PAHA[edx*4+40], eax

; 1286 : 				btnId[11+i*2] = StockDispBuffer( x+d_offx[i], y+179+106, DISP_PRIO_IME3, 26066+btnState[11+i*2], 2);

  00da4	6a 02		 push	 2
  00da6	8b 45 b8	 mov	 eax, DWORD PTR _i$7[ebp]
  00da9	d1 e0		 shl	 eax, 1
  00dab	8b 0c 85 2c 00
	00 00		 mov	 ecx, DWORD PTR ?btnState@?1??AI_SettingProc@@YAHXZ@4PAHA[eax*4+44]
  00db2	81 c1 d2 65 00
	00		 add	 ecx, 26066		; 000065d2H
  00db8	51		 push	 ecx
  00db9	6a 69		 push	 105			; 00000069H
  00dbb	8b 15 00 00 00
	00		 mov	 edx, DWORD PTR ?y@?1??AI_SettingProc@@YAHXZ@4HA
  00dc1	81 c2 1d 01 00
	00		 add	 edx, 285		; 0000011dH
  00dc7	52		 push	 edx
  00dc8	8b 45 b8	 mov	 eax, DWORD PTR _i$7[ebp]
  00dcb	8b 0d 00 00 00
	00		 mov	 ecx, DWORD PTR ?x@?1??AI_SettingProc@@YAHXZ@4HA
  00dd1	03 0c 85 00 00
	00 00		 add	 ecx, DWORD PTR ?d_offx@?1??AI_SettingProc@@YAHXZ@4PAHA[eax*4]
  00dd8	51		 push	 ecx
  00dd9	e8 00 00 00 00	 call	 ?StockDispBuffer@@YAHHHEHH@Z ; StockDispBuffer
  00dde	83 c4 14	 add	 esp, 20			; 00000014H
  00de1	8b 55 b8	 mov	 edx, DWORD PTR _i$7[ebp]
  00de4	d1 e2		 shl	 edx, 1
  00de6	89 04 95 2c 00
	00 00		 mov	 DWORD PTR ?btnId@?1??AI_SettingProc@@YAHXZ@4PAHA[edx*4+44], eax

; 1287 : 			}

  00ded	e9 56 ff ff ff	 jmp	 $LN14@AI_Setting
$LN15@AI_Setting:

; 1288 : 			for( int i = 0; i < 2; i++){

  00df2	c7 45 ac 00 00
	00 00		 mov	 DWORD PTR _i$6[ebp], 0
  00df9	eb 09		 jmp	 SHORT $LN19@AI_Setting
$LN17@AI_Setting:
  00dfb	8b 45 ac	 mov	 eax, DWORD PTR _i$6[ebp]
  00dfe	83 c0 01	 add	 eax, 1
  00e01	89 45 ac	 mov	 DWORD PTR _i$6[ebp], eax
$LN19@AI_Setting:
  00e04	83 7d ac 02	 cmp	 DWORD PTR _i$6[ebp], 2
  00e08	0f 8d 97 00 00
	00		 jge	 $LN18@AI_Setting

; 1289 : 				btnId[14+i*2] = StockDispBuffer( x+u_offx[i], y+200+105, DISP_PRIO_IME3, 26064+btnState[14+i*2], 2);

  00e0e	6a 02		 push	 2
  00e10	8b 45 ac	 mov	 eax, DWORD PTR _i$6[ebp]
  00e13	d1 e0		 shl	 eax, 1
  00e15	8b 0c 85 38 00
	00 00		 mov	 ecx, DWORD PTR ?btnState@?1??AI_SettingProc@@YAHXZ@4PAHA[eax*4+56]
  00e1c	81 c1 d0 65 00
	00		 add	 ecx, 26064		; 000065d0H
  00e22	51		 push	 ecx
  00e23	6a 69		 push	 105			; 00000069H
  00e25	8b 15 00 00 00
	00		 mov	 edx, DWORD PTR ?y@?1??AI_SettingProc@@YAHXZ@4HA
  00e2b	81 c2 31 01 00
	00		 add	 edx, 305		; 00000131H
  00e31	52		 push	 edx
  00e32	8b 45 ac	 mov	 eax, DWORD PTR _i$6[ebp]
  00e35	8b 0d 00 00 00
	00		 mov	 ecx, DWORD PTR ?x@?1??AI_SettingProc@@YAHXZ@4HA
  00e3b	03 0c 85 00 00
	00 00		 add	 ecx, DWORD PTR ?u_offx@?1??AI_SettingProc@@YAHXZ@4PAHA[eax*4]
  00e42	51		 push	 ecx
  00e43	e8 00 00 00 00	 call	 ?StockDispBuffer@@YAHHHEHH@Z ; StockDispBuffer
  00e48	83 c4 14	 add	 esp, 20			; 00000014H
  00e4b	8b 55 ac	 mov	 edx, DWORD PTR _i$6[ebp]
  00e4e	d1 e2		 shl	 edx, 1
  00e50	89 04 95 38 00
	00 00		 mov	 DWORD PTR ?btnId@?1??AI_SettingProc@@YAHXZ@4PAHA[edx*4+56], eax

; 1290 : 				btnId[15+i*2] = StockDispBuffer( x+d_offx[i], y+215+106, DISP_PRIO_IME3, 26066+btnState[15+i*2], 2);

  00e57	6a 02		 push	 2
  00e59	8b 45 ac	 mov	 eax, DWORD PTR _i$6[ebp]
  00e5c	d1 e0		 shl	 eax, 1
  00e5e	8b 0c 85 3c 00
	00 00		 mov	 ecx, DWORD PTR ?btnState@?1??AI_SettingProc@@YAHXZ@4PAHA[eax*4+60]
  00e65	81 c1 d2 65 00
	00		 add	 ecx, 26066		; 000065d2H
  00e6b	51		 push	 ecx
  00e6c	6a 69		 push	 105			; 00000069H
  00e6e	8b 15 00 00 00
	00		 mov	 edx, DWORD PTR ?y@?1??AI_SettingProc@@YAHXZ@4HA
  00e74	81 c2 41 01 00
	00		 add	 edx, 321		; 00000141H
  00e7a	52		 push	 edx
  00e7b	8b 45 ac	 mov	 eax, DWORD PTR _i$6[ebp]
  00e7e	8b 0d 00 00 00
	00		 mov	 ecx, DWORD PTR ?x@?1??AI_SettingProc@@YAHXZ@4HA
  00e84	03 0c 85 00 00
	00 00		 add	 ecx, DWORD PTR ?d_offx@?1??AI_SettingProc@@YAHXZ@4PAHA[eax*4]
  00e8b	51		 push	 ecx
  00e8c	e8 00 00 00 00	 call	 ?StockDispBuffer@@YAHHHEHH@Z ; StockDispBuffer
  00e91	83 c4 14	 add	 esp, 20			; 00000014H
  00e94	8b 55 ac	 mov	 edx, DWORD PTR _i$6[ebp]
  00e97	d1 e2		 shl	 edx, 1
  00e99	89 04 95 3c 00
	00 00		 mov	 DWORD PTR ?btnId@?1??AI_SettingProc@@YAHXZ@4PAHA[edx*4+60], eax

; 1291 : 			}

  00ea0	e9 56 ff ff ff	 jmp	 $LN17@AI_Setting
$LN18@AI_Setting:

; 1292 : #ifdef _ATTACK_AI
; 1293 : 			for( int i = 0; i < 2; i++){

  00ea5	c7 45 a0 00 00
	00 00		 mov	 DWORD PTR _i$5[ebp], 0
  00eac	eb 09		 jmp	 SHORT $LN22@AI_Setting
$LN20@AI_Setting:
  00eae	8b 45 a0	 mov	 eax, DWORD PTR _i$5[ebp]
  00eb1	83 c0 01	 add	 eax, 1
  00eb4	89 45 a0	 mov	 DWORD PTR _i$5[ebp], eax
$LN22@AI_Setting:
  00eb7	83 7d a0 02	 cmp	 DWORD PTR _i$5[ebp], 2
  00ebb	0f 8d 97 00 00
	00		 jge	 $LN21@AI_Setting

; 1294 : 				btnId[18+i*2] = StockDispBuffer( x+u_offx[i], y+236+105, DISP_PRIO_IME3, 26064+btnState[18+i*2], 2);

  00ec1	6a 02		 push	 2
  00ec3	8b 45 a0	 mov	 eax, DWORD PTR _i$5[ebp]
  00ec6	d1 e0		 shl	 eax, 1
  00ec8	8b 0c 85 48 00
	00 00		 mov	 ecx, DWORD PTR ?btnState@?1??AI_SettingProc@@YAHXZ@4PAHA[eax*4+72]
  00ecf	81 c1 d0 65 00
	00		 add	 ecx, 26064		; 000065d0H
  00ed5	51		 push	 ecx
  00ed6	6a 69		 push	 105			; 00000069H
  00ed8	8b 15 00 00 00
	00		 mov	 edx, DWORD PTR ?y@?1??AI_SettingProc@@YAHXZ@4HA
  00ede	81 c2 55 01 00
	00		 add	 edx, 341		; 00000155H
  00ee4	52		 push	 edx
  00ee5	8b 45 a0	 mov	 eax, DWORD PTR _i$5[ebp]
  00ee8	8b 0d 00 00 00
	00		 mov	 ecx, DWORD PTR ?x@?1??AI_SettingProc@@YAHXZ@4HA
  00eee	03 0c 85 00 00
	00 00		 add	 ecx, DWORD PTR ?u_offx@?1??AI_SettingProc@@YAHXZ@4PAHA[eax*4]
  00ef5	51		 push	 ecx
  00ef6	e8 00 00 00 00	 call	 ?StockDispBuffer@@YAHHHEHH@Z ; StockDispBuffer
  00efb	83 c4 14	 add	 esp, 20			; 00000014H
  00efe	8b 55 a0	 mov	 edx, DWORD PTR _i$5[ebp]
  00f01	d1 e2		 shl	 edx, 1
  00f03	89 04 95 48 00
	00 00		 mov	 DWORD PTR ?btnId@?1??AI_SettingProc@@YAHXZ@4PAHA[edx*4+72], eax

; 1295 : 				btnId[19+i*2] = StockDispBuffer( x+d_offx[i], y+251+106, DISP_PRIO_IME3, 26066+btnState[19+i*2], 2);

  00f0a	6a 02		 push	 2
  00f0c	8b 45 a0	 mov	 eax, DWORD PTR _i$5[ebp]
  00f0f	d1 e0		 shl	 eax, 1
  00f11	8b 0c 85 4c 00
	00 00		 mov	 ecx, DWORD PTR ?btnState@?1??AI_SettingProc@@YAHXZ@4PAHA[eax*4+76]
  00f18	81 c1 d2 65 00
	00		 add	 ecx, 26066		; 000065d2H
  00f1e	51		 push	 ecx
  00f1f	6a 69		 push	 105			; 00000069H
  00f21	8b 15 00 00 00
	00		 mov	 edx, DWORD PTR ?y@?1??AI_SettingProc@@YAHXZ@4HA
  00f27	81 c2 65 01 00
	00		 add	 edx, 357		; 00000165H
  00f2d	52		 push	 edx
  00f2e	8b 45 a0	 mov	 eax, DWORD PTR _i$5[ebp]
  00f31	8b 0d 00 00 00
	00		 mov	 ecx, DWORD PTR ?x@?1??AI_SettingProc@@YAHXZ@4HA
  00f37	03 0c 85 00 00
	00 00		 add	 ecx, DWORD PTR ?d_offx@?1??AI_SettingProc@@YAHXZ@4PAHA[eax*4]
  00f3e	51		 push	 ecx
  00f3f	e8 00 00 00 00	 call	 ?StockDispBuffer@@YAHHHEHH@Z ; StockDispBuffer
  00f44	83 c4 14	 add	 esp, 20			; 00000014H
  00f47	8b 55 a0	 mov	 edx, DWORD PTR _i$5[ebp]
  00f4a	d1 e2		 shl	 edx, 1
  00f4c	89 04 95 4c 00
	00 00		 mov	 DWORD PTR ?btnId@?1??AI_SettingProc@@YAHXZ@4PAHA[edx*4+76], eax

; 1296 : 			}

  00f53	e9 56 ff ff ff	 jmp	 $LN20@AI_Setting
$LN21@AI_Setting:

; 1297 : 			btnId[22] = StockDispBuffer( x+u_offx[0], y+128+105, DISP_PRIO_IME3, 26064+btnState[22], 2);

  00f58	6a 02		 push	 2
  00f5a	b8 04 00 00 00	 mov	 eax, 4
  00f5f	6b c8 16	 imul	 ecx, eax, 22
  00f62	8b 91 00 00 00
	00		 mov	 edx, DWORD PTR ?btnState@?1??AI_SettingProc@@YAHXZ@4PAHA[ecx]
  00f68	81 c2 d0 65 00
	00		 add	 edx, 26064		; 000065d0H
  00f6e	52		 push	 edx
  00f6f	6a 69		 push	 105			; 00000069H
  00f71	a1 00 00 00 00	 mov	 eax, DWORD PTR ?y@?1??AI_SettingProc@@YAHXZ@4HA
  00f76	05 e9 00 00 00	 add	 eax, 233		; 000000e9H
  00f7b	50		 push	 eax
  00f7c	b9 04 00 00 00	 mov	 ecx, 4
  00f81	6b d1 00	 imul	 edx, ecx, 0
  00f84	a1 00 00 00 00	 mov	 eax, DWORD PTR ?x@?1??AI_SettingProc@@YAHXZ@4HA
  00f89	03 82 00 00 00
	00		 add	 eax, DWORD PTR ?u_offx@?1??AI_SettingProc@@YAHXZ@4PAHA[edx]
  00f8f	50		 push	 eax
  00f90	e8 00 00 00 00	 call	 ?StockDispBuffer@@YAHHHEHH@Z ; StockDispBuffer
  00f95	83 c4 14	 add	 esp, 20			; 00000014H
  00f98	b9 04 00 00 00	 mov	 ecx, 4
  00f9d	6b d1 16	 imul	 edx, ecx, 22
  00fa0	89 82 00 00 00
	00		 mov	 DWORD PTR ?btnId@?1??AI_SettingProc@@YAHXZ@4PAHA[edx], eax

; 1298 : 			btnId[23] = StockDispBuffer( x+d_offx[0], y+143+106, DISP_PRIO_IME3, 26066+btnState[23], 2);

  00fa6	6a 02		 push	 2
  00fa8	b8 04 00 00 00	 mov	 eax, 4
  00fad	6b c8 17	 imul	 ecx, eax, 23
  00fb0	8b 91 00 00 00
	00		 mov	 edx, DWORD PTR ?btnState@?1??AI_SettingProc@@YAHXZ@4PAHA[ecx]
  00fb6	81 c2 d2 65 00
	00		 add	 edx, 26066		; 000065d2H
  00fbc	52		 push	 edx
  00fbd	6a 69		 push	 105			; 00000069H
  00fbf	a1 00 00 00 00	 mov	 eax, DWORD PTR ?y@?1??AI_SettingProc@@YAHXZ@4HA
  00fc4	05 f9 00 00 00	 add	 eax, 249		; 000000f9H
  00fc9	50		 push	 eax
  00fca	b9 04 00 00 00	 mov	 ecx, 4
  00fcf	6b d1 00	 imul	 edx, ecx, 0
  00fd2	a1 00 00 00 00	 mov	 eax, DWORD PTR ?x@?1??AI_SettingProc@@YAHXZ@4HA
  00fd7	03 82 00 00 00
	00		 add	 eax, DWORD PTR ?d_offx@?1??AI_SettingProc@@YAHXZ@4PAHA[edx]
  00fdd	50		 push	 eax
  00fde	e8 00 00 00 00	 call	 ?StockDispBuffer@@YAHHHEHH@Z ; StockDispBuffer
  00fe3	83 c4 14	 add	 esp, 20			; 00000014H
  00fe6	b9 04 00 00 00	 mov	 ecx, 4
  00feb	6b d1 17	 imul	 edx, ecx, 23
  00fee	89 82 00 00 00
	00		 mov	 DWORD PTR ?btnId@?1??AI_SettingProc@@YAHXZ@4PAHA[edx], eax

; 1299 : #endif
; 1300 : #ifdef _AI_OTHER
; 1301 : 			StockFontBuffer(x + 322,y + 173,FONT_PRIO_FRONT,FONT_PAL_WHITE,"ê¸°íƒ€ê¸°ëŠ¥",0);

  00ff4	6a 00		 push	 0
  00ff6	68 00 00 00 00	 push	 OFFSET ??_C@_08GGBOKOHL@?$LB?b?E?$LI?$LB?b?$LE?I?$AA@
  00ffb	6a 00		 push	 0
  00ffd	6a 01		 push	 1
  00fff	a1 00 00 00 00	 mov	 eax, DWORD PTR ?y@?1??AI_SettingProc@@YAHXZ@4HA
  01004	05 ad 00 00 00	 add	 eax, 173		; 000000adH
  01009	50		 push	 eax
  0100a	8b 0d 00 00 00
	00		 mov	 ecx, DWORD PTR ?x@?1??AI_SettingProc@@YAHXZ@4HA
  01010	81 c1 42 01 00
	00		 add	 ecx, 322		; 00000142H
  01016	51		 push	 ecx
  01017	e8 00 00 00 00	 call	 ?StockFontBuffer@@YAHHHDHPADH@Z ; StockFontBuffer
  0101c	83 c4 18	 add	 esp, 24			; 00000018H

; 1302 : #endif
; 1303 : 			char limit[8];
; 1304 : 			int dy = 102;

  0101f	c7 45 84 66 00
	00 00		 mov	 DWORD PTR _dy$3[ebp], 102 ; 00000066H

; 1305 : #ifndef _ATTACK_AI
; 1306 : 			for( int i = 0; i < 4; i++, dy+=36){
; 1307 : #else
; 1308 : 			for( int i = 0; i < 5; i++, dy+=36){

  01026	c7 85 78 ff ff
	ff 00 00 00 00	 mov	 DWORD PTR _i$2[ebp], 0
  01030	eb 18		 jmp	 SHORT $LN25@AI_Setting
$LN23@AI_Setting:
  01032	8b 85 78 ff ff
	ff		 mov	 eax, DWORD PTR _i$2[ebp]
  01038	83 c0 01	 add	 eax, 1
  0103b	89 85 78 ff ff
	ff		 mov	 DWORD PTR _i$2[ebp], eax
  01041	8b 4d 84	 mov	 ecx, DWORD PTR _dy$3[ebp]
  01044	83 c1 24	 add	 ecx, 36			; 00000024H
  01047	89 4d 84	 mov	 DWORD PTR _dy$3[ebp], ecx
$LN25@AI_Setting:
  0104a	83 bd 78 ff ff
	ff 05		 cmp	 DWORD PTR _i$2[ebp], 5
  01051	0f 8d 28 03 00
	00		 jge	 $LN29@AI_Setting

; 1309 : #endif
; 1310 : 				str = MethodName;

  01057	c7 45 f4 00 00
	00 00		 mov	 DWORD PTR _str$[ebp], OFFSET ?MethodName@?1??AI_SettingProc@@YAHXZ@4PADA

; 1311 : #ifdef _ATTACK_AI
; 1312 : 				if(i == 4){

  0105e	83 bd 78 ff ff
	ff 04		 cmp	 DWORD PTR _i$2[ebp], 4
  01065	75 58		 jne	 SHORT $LN106@AI_Setting

; 1313 : 					if(MAX_PROFESSION_SKILL > AI_method[i] && AI_method[i] >= 0) str = profession_skill[AI_method[i]].name;

  01067	8b 85 78 ff ff
	ff		 mov	 eax, DWORD PTR _i$2[ebp]
  0106d	83 3c 85 00 00
	00 00 1a	 cmp	 DWORD PTR ?AI_method@@3PAHA[eax*4], 26 ; 0000001aH
  01075	7d 2c		 jge	 SHORT $LN108@AI_Setting
  01077	8b 85 78 ff ff
	ff		 mov	 eax, DWORD PTR _i$2[ebp]
  0107d	83 3c 85 00 00
	00 00 00	 cmp	 DWORD PTR ?AI_method@@3PAHA[eax*4], 0
  01085	7c 1c		 jl	 SHORT $LN108@AI_Setting
  01087	8b 85 78 ff ff
	ff		 mov	 eax, DWORD PTR _i$2[ebp]
  0108d	69 0c 85 00 00
	00 00 c0 00 00
	00		 imul	 ecx, DWORD PTR ?AI_method@@3PAHA[eax*4], 192
  01098	81 c1 08 00 00
	00		 add	 ecx, OFFSET ?profession_skill@@3PAUPROFESSION_SKILL@@A+8
  0109e	89 4d f4	 mov	 DWORD PTR _str$[ebp], ecx
  010a1	eb 17		 jmp	 SHORT $LN109@AI_Setting
$LN108@AI_Setting:

; 1314 : 					else if(AI_method[i] == MAX_PROFESSION_SKILL)

  010a3	8b 85 78 ff ff
	ff		 mov	 eax, DWORD PTR _i$2[ebp]
  010a9	83 3c 85 00 00
	00 00 1a	 cmp	 DWORD PTR ?AI_method@@3PAHA[eax*4], 26 ; 0000001aH
  010b1	75 07		 jne	 SHORT $LN109@AI_Setting

; 1315 : 						str = "ì¼ë°˜ê³µê²©";

  010b3	c7 45 f4 00 00
	00 00		 mov	 DWORD PTR _str$[ebp], OFFSET ??_C@_08LLCHMLBO@?$MA?O?$LJ?$NN?$LA?x?$LA?$NN?$AA@
$LN109@AI_Setting:

; 1316 : 				}

  010ba	e9 22 01 00 00	 jmp	 $LN107@AI_Setting
$LN106@AI_Setting:

; 1317 : 				else if(i == 1){

  010bf	83 bd 78 ff ff
	ff 01		 cmp	 DWORD PTR _i$2[ebp], 1
  010c6	75 3c		 jne	 SHORT $LN111@AI_Setting

; 1318 : 					if(g_bUsePS && AI_method[1] != -1) str = profession_skill[g_iPSindex].name;

  010c8	0f b6 05 00 00
	00 00		 movzx	 eax, BYTE PTR ?g_bUsePS@@3_NA ; g_bUsePS
  010cf	85 c0		 test	 eax, eax
  010d1	74 25		 je	 SHORT $LN113@AI_Setting
  010d3	b8 04 00 00 00	 mov	 eax, 4
  010d8	c1 e0 00	 shl	 eax, 0
  010db	83 b8 00 00 00
	00 ff		 cmp	 DWORD PTR ?AI_method@@3PAHA[eax], -1
  010e2	74 14		 je	 SHORT $LN113@AI_Setting
  010e4	69 05 00 00 00
	00 c0 00 00 00	 imul	 eax, DWORD PTR ?g_iPSindex@@3HA, 192 ; g_iPSindex
  010ee	05 08 00 00 00	 add	 eax, OFFSET ?profession_skill@@3PAUPROFESSION_SKILL@@A+8
  010f3	89 45 f4	 mov	 DWORD PTR _str$[ebp], eax
  010f6	eb 07		 jmp	 SHORT $LN114@AI_Setting
$LN113@AI_Setting:

; 1319 : 					else str = "ì†Œí’ˆì„ íƒ";

  010f8	c7 45 f4 00 00
	00 00		 mov	 DWORD PTR _str$[ebp], OFFSET ??_C@_08OHKEAHAF@?$LM?R?G?$LA?$LM?$LB?E?C?$AA@
$LN114@AI_Setting:

; 1320 : 				}else

  010ff	e9 dd 00 00 00	 jmp	 $LN107@AI_Setting
$LN111@AI_Setting:

; 1321 : #endif
; 1322 : #ifdef _AI_NEW_FIRST
; 1323 : 				if(i == 2){

  01104	83 bd 78 ff ff
	ff 02		 cmp	 DWORD PTR _i$2[ebp], 2
  0110b	0f 85 80 00 00
	00		 jne	 $LN115@AI_Setting

; 1324 : 					if(bFirstFlag){

  01111	0f b6 05 00 00
	00 00		 movzx	 eax, BYTE PTR ?bFirstFlag@@3_NA ; bFirstFlag
  01118	85 c0		 test	 eax, eax
  0111a	74 3c		 je	 SHORT $LN117@AI_Setting

; 1325 : 						if(MAX_PROFESSION_SKILL > AI_method[i] && AI_method[i] >= 0) str = profession_skill[AI_method[i]].name;

  0111c	8b 85 78 ff ff
	ff		 mov	 eax, DWORD PTR _i$2[ebp]
  01122	83 3c 85 00 00
	00 00 1a	 cmp	 DWORD PTR ?AI_method@@3PAHA[eax*4], 26 ; 0000001aH
  0112a	7d 2a		 jge	 SHORT $LN119@AI_Setting
  0112c	8b 85 78 ff ff
	ff		 mov	 eax, DWORD PTR _i$2[ebp]
  01132	83 3c 85 00 00
	00 00 00	 cmp	 DWORD PTR ?AI_method@@3PAHA[eax*4], 0
  0113a	7c 1a		 jl	 SHORT $LN119@AI_Setting
  0113c	8b 85 78 ff ff
	ff		 mov	 eax, DWORD PTR _i$2[ebp]
  01142	69 0c 85 00 00
	00 00 c0 00 00
	00		 imul	 ecx, DWORD PTR ?AI_method@@3PAHA[eax*4], 192
  0114d	81 c1 08 00 00
	00		 add	 ecx, OFFSET ?profession_skill@@3PAUPROFESSION_SKILL@@A+8
  01153	89 4d f4	 mov	 DWORD PTR _str$[ebp], ecx
$LN119@AI_Setting:

; 1326 : 					}

  01156	eb 37		 jmp	 SHORT $LN118@AI_Setting
$LN117@AI_Setting:

; 1327 : 					else if(MAX_MAGIC > AI_method[i] && AI_method[i] >= 0) str = magic[AI_method[i]].name;

  01158	8b 85 78 ff ff
	ff		 mov	 eax, DWORD PTR _i$2[ebp]
  0115e	83 3c 85 00 00
	00 00 09	 cmp	 DWORD PTR ?AI_method@@3PAHA[eax*4], 9
  01166	7d 27		 jge	 SHORT $LN118@AI_Setting
  01168	8b 85 78 ff ff
	ff		 mov	 eax, DWORD PTR _i$2[ebp]
  0116e	83 3c 85 00 00
	00 00 00	 cmp	 DWORD PTR ?AI_method@@3PAHA[eax*4], 0
  01176	7c 17		 jl	 SHORT $LN118@AI_Setting
  01178	8b 85 78 ff ff
	ff		 mov	 eax, DWORD PTR _i$2[ebp]
  0117e	6b 0c 85 00 00
	00 00 70	 imul	 ecx, DWORD PTR ?AI_method@@3PAHA[eax*4], 112
  01186	81 c1 0e 00 00
	00		 add	 ecx, OFFSET ?magic@@3PAUMAGIC@@A+14
  0118c	89 4d f4	 mov	 DWORD PTR _str$[ebp], ecx
$LN118@AI_Setting:

; 1328 : 				}else

  0118f	eb 50		 jmp	 SHORT $LN107@AI_Setting
$LN115@AI_Setting:

; 1329 : #endif
; 1330 : 				{
; 1331 : 					if( MAX_MAGIC>AI_method[i] && AI_method[i]>=0)

  01191	8b 85 78 ff ff
	ff		 mov	 eax, DWORD PTR _i$2[ebp]
  01197	83 3c 85 00 00
	00 00 09	 cmp	 DWORD PTR ?AI_method@@3PAHA[eax*4], 9
  0119f	7d 29		 jge	 SHORT $LN121@AI_Setting
  011a1	8b 85 78 ff ff
	ff		 mov	 eax, DWORD PTR _i$2[ebp]
  011a7	83 3c 85 00 00
	00 00 00	 cmp	 DWORD PTR ?AI_method@@3PAHA[eax*4], 0
  011af	7c 19		 jl	 SHORT $LN121@AI_Setting

; 1332 : 						str = magic[AI_method[i]].name;

  011b1	8b 85 78 ff ff
	ff		 mov	 eax, DWORD PTR _i$2[ebp]
  011b7	6b 0c 85 00 00
	00 00 70	 imul	 ecx, DWORD PTR ?AI_method@@3PAHA[eax*4], 112
  011bf	81 c1 0e 00 00
	00		 add	 ecx, OFFSET ?magic@@3PAUMAGIC@@A+14
  011c5	89 4d f4	 mov	 DWORD PTR _str$[ebp], ecx
  011c8	eb 17		 jmp	 SHORT $LN107@AI_Setting
$LN121@AI_Setting:

; 1333 : 					else if( AI_method[i] == MAX_MAGIC)

  011ca	8b 85 78 ff ff
	ff		 mov	 eax, DWORD PTR _i$2[ebp]
  011d0	83 3c 85 00 00
	00 00 09	 cmp	 DWORD PTR ?AI_method@@3PAHA[eax*4], 9
  011d8	75 07		 jne	 SHORT $LN107@AI_Setting

; 1334 : 						str = "ì†Œí’ˆì„ íƒ";

  011da	c7 45 f4 00 00
	00 00		 mov	 DWORD PTR _str$[ebp], OFFSET ??_C@_08OHKEAHAF@?$LM?R?G?$LA?$LM?$LB?E?C?$AA@
$LN107@AI_Setting:

; 1335 : 				}
; 1336 : 				StockFontBuffer( x+85, y+dy, FONT_PRIO_FRONT, FONT_PAL_YELLOW, str, 0 );

  011e1	6a 00		 push	 0
  011e3	8b 45 f4	 mov	 eax, DWORD PTR _str$[ebp]
  011e6	50		 push	 eax
  011e7	6a 04		 push	 4
  011e9	6a 01		 push	 1
  011eb	8b 0d 00 00 00
	00		 mov	 ecx, DWORD PTR ?y@?1??AI_SettingProc@@YAHXZ@4HA
  011f1	03 4d 84	 add	 ecx, DWORD PTR _dy$3[ebp]
  011f4	51		 push	 ecx
  011f5	8b 15 00 00 00
	00		 mov	 edx, DWORD PTR ?x@?1??AI_SettingProc@@YAHXZ@4HA
  011fb	83 c2 55	 add	 edx, 85			; 00000055H
  011fe	52		 push	 edx
  011ff	e8 00 00 00 00	 call	 ?StockFontBuffer@@YAHHHDHPADH@Z ; StockFontBuffer
  01204	83 c4 18	 add	 esp, 24			; 00000018H

; 1337 : 				limit[0] = 0;

  01207	b8 01 00 00 00	 mov	 eax, 1
  0120c	6b c8 00	 imul	 ecx, eax, 0
  0120f	89 8d ac fe ff
	ff		 mov	 DWORD PTR $T1[ebp], ecx
  01215	83 bd ac fe ff
	ff 08		 cmp	 DWORD PTR $T1[ebp], 8
  0121c	73 02		 jae	 SHORT $LN140@AI_Setting
  0121e	eb 05		 jmp	 SHORT $LN141@AI_Setting
$LN140@AI_Setting:
  01220	e8 00 00 00 00	 call	 ___report_rangecheckfailure
$LN141@AI_Setting:
  01225	8b 95 ac fe ff
	ff		 mov	 edx, DWORD PTR $T1[ebp]
  0122b	c6 44 15 90 00	 mov	 BYTE PTR _limit$4[ebp+edx], 0

; 1338 : 				if( str != MethodName){

  01230	81 7d f4 00 00
	00 00		 cmp	 DWORD PTR _str$[ebp], OFFSET ?MethodName@?1??AI_SettingProc@@YAHXZ@4PADA
  01237	0f 84 e2 00 00
	00		 je	 $LN124@AI_Setting

; 1339 : 					switch( AI_target[i]){

  0123d	8b 85 78 ff ff
	ff		 mov	 eax, DWORD PTR _i$2[ebp]
  01243	8b 0c 85 00 00
	00 00		 mov	 ecx, DWORD PTR ?AI_target@@3PAHA[eax*4]
  0124a	89 8d a4 fe ff
	ff		 mov	 DWORD PTR tv794[ebp], ecx
  01250	8b 95 a4 fe ff
	ff		 mov	 edx, DWORD PTR tv794[ebp]
  01256	83 ea 01	 sub	 edx, 1
  01259	89 95 a4 fe ff
	ff		 mov	 DWORD PTR tv794[ebp], edx
  0125f	83 bd a4 fe ff
	ff 0b		 cmp	 DWORD PTR tv794[ebp], 11 ; 0000000bH
  01266	77 79		 ja	 SHORT $LN137@AI_Setting
  01268	8b 85 a4 fe ff
	ff		 mov	 eax, DWORD PTR tv794[ebp]
  0126e	ff 24 85 00 00
	00 00		 jmp	 DWORD PTR $LN145@AI_Setting[eax*4]
$LN125@AI_Setting:

; 1340 : 					case TARGET_MYSELF:
; 1341 : 						str = "ìžì‹ ";

  01275	c7 45 f4 00 00
	00 00		 mov	 DWORD PTR _str$[ebp], OFFSET ??_C@_04OCCKPHIM@?$MA?Z?$LN?E?$AA@

; 1342 : 						break;

  0127c	eb 6a		 jmp	 SHORT $LN26@AI_Setting
$LN126@AI_Setting:

; 1343 : 					case TARGET_MYPET:
; 1344 : 						str = "íŽ˜íŠ¸";

  0127e	c7 45 f4 00 00
	00 00		 mov	 DWORD PTR _str$[ebp], OFFSET ??_C@_04KDDDLIGD@?F?d?F?$KO?$AA@

; 1345 : 						break;

  01285	eb 61		 jmp	 SHORT $LN26@AI_Setting
$LN127@AI_Setting:

; 1346 : 					case TARGET_MYSIDE:
; 1347 : 						str = "ì•„êµ°ì „ì²´";

  01287	c7 45 f4 00 00
	00 00		 mov	 DWORD PTR _str$[ebp], OFFSET ??_C@_08OGPGECIA@?$LO?F?$LB?$LK?$MA?$PM?C?$LM?$AA@

; 1348 : 						break;

  0128e	eb 58		 jmp	 SHORT $LN26@AI_Setting
$LN128@AI_Setting:

; 1349 : 					case TARGET_OTHERONE:
; 1350 : 						str = "ìƒëŒ€";

  01290	c7 45 f4 00 00
	00 00		 mov	 DWORD PTR _str$[ebp], OFFSET ??_C@_04LFMEPEEF@?$LL?s?$LE?k?$AA@

; 1351 : 						break;

  01297	eb 4f		 jmp	 SHORT $LN26@AI_Setting
$LN129@AI_Setting:

; 1352 : 					case TARGET_OTHERSIDE:
; 1353 : 						str = "ì•„êµ°ì „ì²´";

  01299	c7 45 f4 00 00
	00 00		 mov	 DWORD PTR _str$[ebp], OFFSET ??_C@_08OGPGECIA@?$LO?F?$LB?$LK?$MA?$PM?C?$LM?$AA@

; 1354 : 						break;

  012a0	eb 46		 jmp	 SHORT $LN26@AI_Setting
$LN130@AI_Setting:

; 1355 : 					case TARGET_ALL:
; 1356 : 						str = "ì „ì²´";

  012a2	c7 45 f4 00 00
	00 00		 mov	 DWORD PTR _str$[ebp], OFFSET ??_C@_04MHOBIAIL@?$MA?$PM?C?$LM?$AA@

; 1357 : 						break;

  012a9	eb 3d		 jmp	 SHORT $LN26@AI_Setting
$LN131@AI_Setting:

; 1358 : 					case TARGET_1:
; 1359 : 						str = "íŒŒí‹°â‘ ";

  012ab	c7 45 f4 00 00
	00 00		 mov	 DWORD PTR _str$[ebp], OFFSET ??_C@_06LAICFDDI@?F?D?F?$LM?$KI?g?$AA@

; 1360 : 						break;

  012b2	eb 34		 jmp	 SHORT $LN26@AI_Setting
$LN132@AI_Setting:

; 1361 : 					case TARGET_2:
; 1362 : 						str = "íŒŒí‹°â‘¡";

  012b4	c7 45 f4 00 00
	00 00		 mov	 DWORD PTR _str$[ebp], OFFSET ??_C@_06DHBKEPPH@?F?D?F?$LM?$KI?h?$AA@

; 1363 : 						break;

  012bb	eb 2b		 jmp	 SHORT $LN26@AI_Setting
$LN133@AI_Setting:

; 1364 : 					case TARGET_3:
; 1365 : 						str = "íŒŒí‹°â‘¢";

  012bd	c7 45 f4 00 00
	00 00		 mov	 DWORD PTR _str$[ebp], OFFSET ??_C@_06COABHOLG@?F?D?F?$LM?$KI?i?$AA@

; 1366 : 						break;

  012c4	eb 22		 jmp	 SHORT $LN26@AI_Setting
$LN134@AI_Setting:

; 1367 : 					case TARGET_4:
; 1368 : 						str = "íŒŒí‹°â‘£";

  012c6	c7 45 f4 00 00
	00 00		 mov	 DWORD PTR _str$[ebp], OFFSET ??_C@_06FCMCNHF@?F?D?F?$LM?$KI?j?$AA@

; 1369 : 						break;

  012cd	eb 19		 jmp	 SHORT $LN26@AI_Setting
$LN135@AI_Setting:

; 1370 : 					case TARGET_5:
; 1371 : 						str = "íŒŒí‹°â‘¤";

  012cf	c7 45 f4 00 00
	00 00		 mov	 DWORD PTR _str$[ebp], OFFSET ??_C@_06BMDHBMDE@?F?D?F?$LM?$KI?k?$AA@

; 1372 : 						break;

  012d6	eb 10		 jmp	 SHORT $LN26@AI_Setting
$LN136@AI_Setting:

; 1373 : #ifdef __ATTACK_MAGIC
; 1374 : 					case TARGET_ONE_ROW:
; 1375 : 						str = "ì ì „ì²´";

  012d8	c7 45 f4 00 00
	00 00		 mov	 DWORD PTR _str$[ebp], OFFSET ??_C@_06CPOHNOLJ@?$MA?$PL?$MA?$PM?C?$LM?$AA@

; 1376 : 						break;

  012df	eb 07		 jmp	 SHORT $LN26@AI_Setting
$LN137@AI_Setting:

; 1377 : #endif
; 1378 : 					default:
; 1379 : 						str = "ì˜¤ë¥˜ë¥¼ ìž¬ì„¤ì •í•˜ì‹­ì‹œì˜¤.";

  012e1	c7 45 f4 00 00
	00 00		 mov	 DWORD PTR _str$[ebp], OFFSET ??_C@_0BH@KAEALDCD@?$LP?$MA?$LH?y?$LI?$KG?5?$MA?g?$LM?$LD?A?$KE?G?O?$LN?J?$LN?C?$LP?$MA?4?$AA@
$LN26@AI_Setting:

; 1380 : 						break;
; 1381 : 					}
; 1382 : 					itoa( AI_limit[i], limit, 10);

  012e8	8b f4		 mov	 esi, esp
  012ea	6a 0a		 push	 10			; 0000000aH
  012ec	8d 45 90	 lea	 eax, DWORD PTR _limit$4[ebp]
  012ef	50		 push	 eax
  012f0	8b 8d 78 ff ff
	ff		 mov	 ecx, DWORD PTR _i$2[ebp]
  012f6	8b 14 8d 00 00
	00 00		 mov	 edx, DWORD PTR ?AI_limit@@3PAHA[ecx*4]
  012fd	52		 push	 edx
  012fe	ff 15 00 00 00
	00		 call	 DWORD PTR __imp__itoa
  01304	83 c4 0c	 add	 esp, 12			; 0000000cH
  01307	3b f4		 cmp	 esi, esp
  01309	e8 00 00 00 00	 call	 __RTC_CheckEsp

; 1383 : 					strcat( limit, "ï¼…");

  0130e	68 00 00 00 00	 push	 OFFSET ??_C@_02IPAINHI@?$KD?$KF?$AA@
  01313	8d 45 90	 lea	 eax, DWORD PTR _limit$4[ebp]
  01316	50		 push	 eax
  01317	e8 00 00 00 00	 call	 _strcat
  0131c	83 c4 08	 add	 esp, 8
$LN124@AI_Setting:

; 1384 : 				}
; 1385 : 				StockFontBuffer( x+236, y+dy, FONT_PRIO_FRONT, FONT_PAL_YELLOW, str, 0 );

  0131f	6a 00		 push	 0
  01321	8b 45 f4	 mov	 eax, DWORD PTR _str$[ebp]
  01324	50		 push	 eax
  01325	6a 04		 push	 4
  01327	6a 01		 push	 1
  01329	8b 0d 00 00 00
	00		 mov	 ecx, DWORD PTR ?y@?1??AI_SettingProc@@YAHXZ@4HA
  0132f	03 4d 84	 add	 ecx, DWORD PTR _dy$3[ebp]
  01332	51		 push	 ecx
  01333	8b 15 00 00 00
	00		 mov	 edx, DWORD PTR ?x@?1??AI_SettingProc@@YAHXZ@4HA
  01339	81 c2 ec 00 00
	00		 add	 edx, 236		; 000000ecH
  0133f	52		 push	 edx
  01340	e8 00 00 00 00	 call	 ?StockFontBuffer@@YAHHHDHPADH@Z ; StockFontBuffer
  01345	83 c4 18	 add	 esp, 24			; 00000018H

; 1386 : 				if( i < 2)

  01348	83 bd 78 ff ff
	ff 02		 cmp	 DWORD PTR _i$2[ebp], 2
  0134f	7d 29		 jge	 SHORT $LN138@AI_Setting

; 1387 : 					StockFontBuffer( x+336, y+dy, FONT_PRIO_FRONT, FONT_PAL_YELLOW, limit, 0 );

  01351	6a 00		 push	 0
  01353	8d 45 90	 lea	 eax, DWORD PTR _limit$4[ebp]
  01356	50		 push	 eax
  01357	6a 04		 push	 4
  01359	6a 01		 push	 1
  0135b	8b 0d 00 00 00
	00		 mov	 ecx, DWORD PTR ?y@?1??AI_SettingProc@@YAHXZ@4HA
  01361	03 4d 84	 add	 ecx, DWORD PTR _dy$3[ebp]
  01364	51		 push	 ecx
  01365	8b 15 00 00 00
	00		 mov	 edx, DWORD PTR ?x@?1??AI_SettingProc@@YAHXZ@4HA
  0136b	81 c2 50 01 00
	00		 add	 edx, 336		; 00000150H
  01371	52		 push	 edx
  01372	e8 00 00 00 00	 call	 ?StockFontBuffer@@YAHHHDHPADH@Z ; StockFontBuffer
  01377	83 c4 18	 add	 esp, 24			; 00000018H
$LN138@AI_Setting:

; 1388 : 			}

  0137a	e9 b3 fc ff ff	 jmp	 $LN23@AI_Setting
$LN29@AI_Setting:

; 1389 : 		}
; 1390 : 	}
; 1391 : 	return FALSE;

  0137f	33 c0		 xor	 eax, eax
$LN139@AI_Setting:

; 1392 : }

  01381	52		 push	 edx
  01382	8b cd		 mov	 ecx, ebp
  01384	50		 push	 eax
  01385	8d 15 00 00 00
	00		 lea	 edx, DWORD PTR $LN144@AI_Setting
  0138b	e8 00 00 00 00	 call	 @_RTC_CheckStackVars@8
  01390	58		 pop	 eax
  01391	5a		 pop	 edx
  01392	5f		 pop	 edi
  01393	5e		 pop	 esi
  01394	5b		 pop	 ebx
  01395	8b 4d fc	 mov	 ecx, DWORD PTR __$ArrayPad$[ebp]
  01398	33 cd		 xor	 ecx, ebp
  0139a	e8 00 00 00 00	 call	 @__security_check_cookie@4
  0139f	81 c4 5c 01 00
	00		 add	 esp, 348		; 0000015cH
  013a5	3b ec		 cmp	 ebp, esp
  013a7	e8 00 00 00 00	 call	 __RTC_CheckEsp
  013ac	8b e5		 mov	 esp, ebp
  013ae	5d		 pop	 ebp
  013af	c3		 ret	 0
$LN144@AI_Setting:
  013b0	01 00 00 00	 DD	 1
  013b4	00 00 00 00	 DD	 $LN143@AI_Setting
$LN143@AI_Setting:
  013b8	90 ff ff ff	 DD	 -112			; ffffff90H
  013bc	08 00 00 00	 DD	 8
  013c0	00 00 00 00	 DD	 $LN142@AI_Setting
$LN142@AI_Setting:
  013c4	6c		 DB	 108			; 0000006cH
  013c5	69		 DB	 105			; 00000069H
  013c6	6d		 DB	 109			; 0000006dH
  013c7	69		 DB	 105			; 00000069H
  013c8	74		 DB	 116			; 00000074H
  013c9	00		 DB	 0
  013ca	66 90		 npad	 2
$LN145@AI_Setting:
  013cc	00 00 00 00	 DD	 $LN125@AI_Setting
  013d0	00 00 00 00	 DD	 $LN126@AI_Setting
  013d4	00 00 00 00	 DD	 $LN127@AI_Setting
  013d8	00 00 00 00	 DD	 $LN128@AI_Setting
  013dc	00 00 00 00	 DD	 $LN129@AI_Setting
  013e0	00 00 00 00	 DD	 $LN130@AI_Setting
  013e4	00 00 00 00	 DD	 $LN131@AI_Setting
  013e8	00 00 00 00	 DD	 $LN132@AI_Setting
  013ec	00 00 00 00	 DD	 $LN133@AI_Setting
  013f0	00 00 00 00	 DD	 $LN134@AI_Setting
  013f4	00 00 00 00	 DD	 $LN135@AI_Setting
  013f8	00 00 00 00	 DD	 $LN136@AI_Setting
?AI_SettingProc@@YAHXZ ENDP				; AI_SettingProc
_TEXT	ENDS
; Function compile flags: /Odtp /RTCsu /ZI
; File c:\users\administrator\desktop\????? ??\????? ??\client source code\system\ai_setting.cpp
;	COMDAT ?AI_SetDownLimit@@YAXH@Z
_TEXT	SEGMENT
_which$ = 8						; size = 4
?AI_SetDownLimit@@YAXH@Z PROC				; AI_SetDownLimit, COMDAT

; 996  : {

  00000	55		 push	 ebp
  00001	8b ec		 mov	 ebp, esp
  00003	81 ec c0 00 00
	00		 sub	 esp, 192		; 000000c0H
  00009	53		 push	 ebx
  0000a	56		 push	 esi
  0000b	57		 push	 edi
  0000c	8d bd 40 ff ff
	ff		 lea	 edi, DWORD PTR [ebp-192]
  00012	b9 30 00 00 00	 mov	 ecx, 48			; 00000030H
  00017	b8 cc cc cc cc	 mov	 eax, -858993460		; ccccccccH
  0001c	f3 ab		 rep stosd

; 997  : 	AI_limit[which] -= 5;

  0001e	8b 45 08	 mov	 eax, DWORD PTR _which$[ebp]
  00021	8b 0c 85 00 00
	00 00		 mov	 ecx, DWORD PTR ?AI_limit@@3PAHA[eax*4]
  00028	83 e9 05	 sub	 ecx, 5
  0002b	8b 55 08	 mov	 edx, DWORD PTR _which$[ebp]
  0002e	89 0c 95 00 00
	00 00		 mov	 DWORD PTR ?AI_limit@@3PAHA[edx*4], ecx

; 998  : 	if( AI_limit[which] < 0)

  00035	8b 45 08	 mov	 eax, DWORD PTR _which$[ebp]
  00038	83 3c 85 00 00
	00 00 00	 cmp	 DWORD PTR ?AI_limit@@3PAHA[eax*4], 0
  00040	7d 0e		 jge	 SHORT $LN1@AI_SetDown

; 999  : 		AI_limit[which] = 0;

  00042	8b 45 08	 mov	 eax, DWORD PTR _which$[ebp]
  00045	c7 04 85 00 00
	00 00 00 00 00
	00		 mov	 DWORD PTR ?AI_limit@@3PAHA[eax*4], 0
$LN1@AI_SetDown:

; 1000 : }

  00050	5f		 pop	 edi
  00051	5e		 pop	 esi
  00052	5b		 pop	 ebx
  00053	8b e5		 mov	 esp, ebp
  00055	5d		 pop	 ebp
  00056	c3		 ret	 0
?AI_SetDownLimit@@YAXH@Z ENDP				; AI_SetDownLimit
_TEXT	ENDS
; Function compile flags: /Odtp /RTCsu /ZI
; File c:\users\administrator\desktop\????? ??\????? ??\client source code\system\ai_setting.cpp
;	COMDAT ?AI_SetUpLimit@@YAXH@Z
_TEXT	SEGMENT
_which$ = 8						; size = 4
?AI_SetUpLimit@@YAXH@Z PROC				; AI_SetUpLimit, COMDAT

; 989  : {

  00000	55		 push	 ebp
  00001	8b ec		 mov	 ebp, esp
  00003	81 ec c0 00 00
	00		 sub	 esp, 192		; 000000c0H
  00009	53		 push	 ebx
  0000a	56		 push	 esi
  0000b	57		 push	 edi
  0000c	8d bd 40 ff ff
	ff		 lea	 edi, DWORD PTR [ebp-192]
  00012	b9 30 00 00 00	 mov	 ecx, 48			; 00000030H
  00017	b8 cc cc cc cc	 mov	 eax, -858993460		; ccccccccH
  0001c	f3 ab		 rep stosd

; 990  : 	AI_limit[which] += 5;

  0001e	8b 45 08	 mov	 eax, DWORD PTR _which$[ebp]
  00021	8b 0c 85 00 00
	00 00		 mov	 ecx, DWORD PTR ?AI_limit@@3PAHA[eax*4]
  00028	83 c1 05	 add	 ecx, 5
  0002b	8b 55 08	 mov	 edx, DWORD PTR _which$[ebp]
  0002e	89 0c 95 00 00
	00 00		 mov	 DWORD PTR ?AI_limit@@3PAHA[edx*4], ecx

; 991  : 	if( AI_limit[which] > 100)

  00035	8b 45 08	 mov	 eax, DWORD PTR _which$[ebp]
  00038	83 3c 85 00 00
	00 00 64	 cmp	 DWORD PTR ?AI_limit@@3PAHA[eax*4], 100 ; 00000064H
  00040	7e 0e		 jle	 SHORT $LN1@AI_SetUpLi

; 992  : 		AI_limit[which] = 100;

  00042	8b 45 08	 mov	 eax, DWORD PTR _which$[ebp]
  00045	c7 04 85 00 00
	00 00 64 00 00
	00		 mov	 DWORD PTR ?AI_limit@@3PAHA[eax*4], 100 ; 00000064H
$LN1@AI_SetUpLi:

; 993  : }

  00050	5f		 pop	 edi
  00051	5e		 pop	 esi
  00052	5b		 pop	 ebx
  00053	8b e5		 mov	 esp, ebp
  00055	5d		 pop	 ebp
  00056	c3		 ret	 0
?AI_SetUpLimit@@YAXH@Z ENDP				; AI_SetUpLimit
_TEXT	ENDS
; Function compile flags: /Odtp /RTCsu /ZI
; File c:\users\administrator\desktop\????? ??\????? ??\client source code\system\ai_setting.cpp
;	COMDAT ?AI_SetDownResurrectMethod@@YAXH@Z
_TEXT	SEGMENT
_i$1 = -32						; size = 4
_method$ = -20						; size = 4
_str$ = -8						; size = 4
_which$ = 8						; size = 4
?AI_SetDownResurrectMethod@@YAXH@Z PROC			; AI_SetDownResurrectMethod, COMDAT

; 973  : {

  00000	55		 push	 ebp
  00001	8b ec		 mov	 ebp, esp
  00003	81 ec e4 00 00
	00		 sub	 esp, 228		; 000000e4H
  00009	53		 push	 ebx
  0000a	56		 push	 esi
  0000b	57		 push	 edi
  0000c	8d bd 1c ff ff
	ff		 lea	 edi, DWORD PTR [ebp-228]
  00012	b9 39 00 00 00	 mov	 ecx, 57			; 00000039H
  00017	b8 cc cc cc cc	 mov	 eax, -858993460		; ccccccccH
  0001c	f3 ab		 rep stosd

; 974  : 	char *str;
; 975  : 	int method = AI_method[which];

  0001e	8b 45 08	 mov	 eax, DWORD PTR _which$[ebp]
  00021	8b 0c 85 00 00
	00 00		 mov	 ecx, DWORD PTR ?AI_method@@3PAHA[eax*4]
  00028	89 4d ec	 mov	 DWORD PTR _method$[ebp], ecx

; 976  : 	if( method < 0)

  0002b	83 7d ec 00	 cmp	 DWORD PTR _method$[ebp], 0
  0002f	7d 07		 jge	 SHORT $LN5@AI_SetDown

; 977  : 		method = MAX_MAGIC;

  00031	c7 45 ec 09 00
	00 00		 mov	 DWORD PTR _method$[ebp], 9
$LN5@AI_SetDown:

; 978  : 	AI_method[which] = MAX_MAGIC;

  00038	8b 45 08	 mov	 eax, DWORD PTR _which$[ebp]
  0003b	c7 04 85 00 00
	00 00 09 00 00
	00		 mov	 DWORD PTR ?AI_method@@3PAHA[eax*4], 9

; 979  : 	AI_target[which] = TARGET_MYPET;

  00046	8b 45 08	 mov	 eax, DWORD PTR _which$[ebp]
  00049	c7 04 85 00 00
	00 00 02 00 00
	00		 mov	 DWORD PTR ?AI_target@@3PAHA[eax*4], 2

; 980  : 	for( int i = (method-1); i >= 0; i--){

  00054	8b 45 ec	 mov	 eax, DWORD PTR _method$[ebp]
  00057	83 e8 01	 sub	 eax, 1
  0005a	89 45 e0	 mov	 DWORD PTR _i$1[ebp], eax
  0005d	eb 09		 jmp	 SHORT $LN4@AI_SetDown
$LN2@AI_SetDown:
  0005f	8b 45 e0	 mov	 eax, DWORD PTR _i$1[ebp]
  00062	83 e8 01	 sub	 eax, 1
  00065	89 45 e0	 mov	 DWORD PTR _i$1[ebp], eax
$LN4@AI_SetDown:
  00068	83 7d e0 00	 cmp	 DWORD PTR _i$1[ebp], 0
  0006c	7c 55		 jl	 SHORT $LN1@AI_SetDown

; 981  : 		if( magic[i].useFlag && (str=strstr( magic[i].memo, "æ°”ç»çŠ¶æ€")) && strstr( str, "å›žå¤")){

  0006e	6b 45 e0 70	 imul	 eax, DWORD PTR _i$1[ebp], 112
  00072	0f bf 88 00 00
	00 00		 movsx	 ecx, WORD PTR ?magic@@3PAUMAGIC@@A[eax]
  00079	85 c9		 test	 ecx, ecx
  0007b	74 44		 je	 SHORT $LN6@AI_SetDown
  0007d	68 00 00 00 00	 push	 OFFSET ??_C@_04MFANEHND@?$DP?$DP?$DP?$DP?$AA@
  00082	6b 45 e0 70	 imul	 eax, DWORD PTR _i$1[ebp], 112
  00086	05 27 00 00 00	 add	 eax, OFFSET ?magic@@3PAUMAGIC@@A+39
  0008b	50		 push	 eax
  0008c	e8 00 00 00 00	 call	 ?strstr@@YAPADQADQBD@Z	; strstr
  00091	83 c4 08	 add	 esp, 8
  00094	89 45 f8	 mov	 DWORD PTR _str$[ebp], eax
  00097	83 7d f8 00	 cmp	 DWORD PTR _str$[ebp], 0
  0009b	74 24		 je	 SHORT $LN6@AI_SetDown
  0009d	68 00 00 00 00	 push	 OFFSET ??_C@_03MNMCLLPK@?$PM?$NO?$DP?$AA@
  000a2	8b 45 f8	 mov	 eax, DWORD PTR _str$[ebp]
  000a5	50		 push	 eax
  000a6	e8 00 00 00 00	 call	 ?strstr@@YAPADQADQBD@Z	; strstr
  000ab	83 c4 08	 add	 esp, 8
  000ae	85 c0		 test	 eax, eax
  000b0	74 0f		 je	 SHORT $LN6@AI_SetDown

; 982  : 			AI_method[which] = i;

  000b2	8b 45 08	 mov	 eax, DWORD PTR _which$[ebp]
  000b5	8b 4d e0	 mov	 ecx, DWORD PTR _i$1[ebp]
  000b8	89 0c 85 00 00
	00 00		 mov	 DWORD PTR ?AI_method@@3PAHA[eax*4], ecx

; 983  : 			break;

  000bf	eb 02		 jmp	 SHORT $LN1@AI_SetDown
$LN6@AI_SetDown:

; 984  : 		}
; 985  : 	}

  000c1	eb 9c		 jmp	 SHORT $LN2@AI_SetDown
$LN1@AI_SetDown:

; 986  : }

  000c3	5f		 pop	 edi
  000c4	5e		 pop	 esi
  000c5	5b		 pop	 ebx
  000c6	81 c4 e4 00 00
	00		 add	 esp, 228		; 000000e4H
  000cc	3b ec		 cmp	 ebp, esp
  000ce	e8 00 00 00 00	 call	 __RTC_CheckEsp
  000d3	8b e5		 mov	 esp, ebp
  000d5	5d		 pop	 ebp
  000d6	c3		 ret	 0
?AI_SetDownResurrectMethod@@YAXH@Z ENDP			; AI_SetDownResurrectMethod
_TEXT	ENDS
; Function compile flags: /Odtp /RTCsu /ZI
; File c:\users\administrator\desktop\????? ??\????? ??\client source code\system\ai_setting.cpp
;	COMDAT ?AI_SetUpResurrectMethod@@YAXH@Z
_TEXT	SEGMENT
_i$1 = -32						; size = 4
_method$ = -20						; size = 4
_str$ = -8						; size = 4
_which$ = 8						; size = 4
?AI_SetUpResurrectMethod@@YAXH@Z PROC			; AI_SetUpResurrectMethod, COMDAT

; 957  : {

  00000	55		 push	 ebp
  00001	8b ec		 mov	 ebp, esp
  00003	81 ec e4 00 00
	00		 sub	 esp, 228		; 000000e4H
  00009	53		 push	 ebx
  0000a	56		 push	 esi
  0000b	57		 push	 edi
  0000c	8d bd 1c ff ff
	ff		 lea	 edi, DWORD PTR [ebp-228]
  00012	b9 39 00 00 00	 mov	 ecx, 57			; 00000039H
  00017	b8 cc cc cc cc	 mov	 eax, -858993460		; ccccccccH
  0001c	f3 ab		 rep stosd

; 958  : 	char *str;
; 959  : 	int method = AI_method[which]+1;

  0001e	8b 45 08	 mov	 eax, DWORD PTR _which$[ebp]
  00021	8b 0c 85 00 00
	00 00		 mov	 ecx, DWORD PTR ?AI_method@@3PAHA[eax*4]
  00028	83 c1 01	 add	 ecx, 1
  0002b	89 4d ec	 mov	 DWORD PTR _method$[ebp], ecx

; 960  : 	if( method > MAX_MAGIC)

  0002e	83 7d ec 09	 cmp	 DWORD PTR _method$[ebp], 9
  00032	7e 07		 jle	 SHORT $LN5@AI_SetUpRe

; 961  : 		method = 0;

  00034	c7 45 ec 00 00
	00 00		 mov	 DWORD PTR _method$[ebp], 0
$LN5@AI_SetUpRe:

; 962  : 	AI_method[which] = MAX_MAGIC;

  0003b	8b 45 08	 mov	 eax, DWORD PTR _which$[ebp]
  0003e	c7 04 85 00 00
	00 00 09 00 00
	00		 mov	 DWORD PTR ?AI_method@@3PAHA[eax*4], 9

; 963  : 	AI_target[which] = TARGET_MYPET;

  00049	8b 45 08	 mov	 eax, DWORD PTR _which$[ebp]
  0004c	c7 04 85 00 00
	00 00 02 00 00
	00		 mov	 DWORD PTR ?AI_target@@3PAHA[eax*4], 2

; 964  : 	for( int i = method; i < MAX_MAGIC; i++){

  00057	8b 45 ec	 mov	 eax, DWORD PTR _method$[ebp]
  0005a	89 45 e0	 mov	 DWORD PTR _i$1[ebp], eax
  0005d	eb 09		 jmp	 SHORT $LN4@AI_SetUpRe
$LN2@AI_SetUpRe:
  0005f	8b 45 e0	 mov	 eax, DWORD PTR _i$1[ebp]
  00062	83 c0 01	 add	 eax, 1
  00065	89 45 e0	 mov	 DWORD PTR _i$1[ebp], eax
$LN4@AI_SetUpRe:
  00068	83 7d e0 09	 cmp	 DWORD PTR _i$1[ebp], 9
  0006c	7d 55		 jge	 SHORT $LN1@AI_SetUpRe

; 965  : 		if( magic[i].useFlag && (str=strstr( magic[i].memo, "æ°”ç»çŠ¶æ€")) && strstr( str, "å›žå¤")){

  0006e	6b 45 e0 70	 imul	 eax, DWORD PTR _i$1[ebp], 112
  00072	0f bf 88 00 00
	00 00		 movsx	 ecx, WORD PTR ?magic@@3PAUMAGIC@@A[eax]
  00079	85 c9		 test	 ecx, ecx
  0007b	74 44		 je	 SHORT $LN6@AI_SetUpRe
  0007d	68 00 00 00 00	 push	 OFFSET ??_C@_04MFANEHND@?$DP?$DP?$DP?$DP?$AA@
  00082	6b 45 e0 70	 imul	 eax, DWORD PTR _i$1[ebp], 112
  00086	05 27 00 00 00	 add	 eax, OFFSET ?magic@@3PAUMAGIC@@A+39
  0008b	50		 push	 eax
  0008c	e8 00 00 00 00	 call	 ?strstr@@YAPADQADQBD@Z	; strstr
  00091	83 c4 08	 add	 esp, 8
  00094	89 45 f8	 mov	 DWORD PTR _str$[ebp], eax
  00097	83 7d f8 00	 cmp	 DWORD PTR _str$[ebp], 0
  0009b	74 24		 je	 SHORT $LN6@AI_SetUpRe
  0009d	68 00 00 00 00	 push	 OFFSET ??_C@_03MNMCLLPK@?$PM?$NO?$DP?$AA@
  000a2	8b 45 f8	 mov	 eax, DWORD PTR _str$[ebp]
  000a5	50		 push	 eax
  000a6	e8 00 00 00 00	 call	 ?strstr@@YAPADQADQBD@Z	; strstr
  000ab	83 c4 08	 add	 esp, 8
  000ae	85 c0		 test	 eax, eax
  000b0	74 0f		 je	 SHORT $LN6@AI_SetUpRe

; 966  : 			AI_method[which] = i;

  000b2	8b 45 08	 mov	 eax, DWORD PTR _which$[ebp]
  000b5	8b 4d e0	 mov	 ecx, DWORD PTR _i$1[ebp]
  000b8	89 0c 85 00 00
	00 00		 mov	 DWORD PTR ?AI_method@@3PAHA[eax*4], ecx

; 967  : 			break;

  000bf	eb 02		 jmp	 SHORT $LN1@AI_SetUpRe
$LN6@AI_SetUpRe:

; 968  : 		}
; 969  : 	}

  000c1	eb 9c		 jmp	 SHORT $LN2@AI_SetUpRe
$LN1@AI_SetUpRe:

; 970  : }

  000c3	5f		 pop	 edi
  000c4	5e		 pop	 esi
  000c5	5b		 pop	 ebx
  000c6	81 c4 e4 00 00
	00		 add	 esp, 228		; 000000e4H
  000cc	3b ec		 cmp	 ebp, esp
  000ce	e8 00 00 00 00	 call	 __RTC_CheckEsp
  000d3	8b e5		 mov	 esp, ebp
  000d5	5d		 pop	 ebp
  000d6	c3		 ret	 0
?AI_SetUpResurrectMethod@@YAXH@Z ENDP			; AI_SetUpResurrectMethod
_TEXT	ENDS
; Function compile flags: /Odtp /RTCsu /ZI
; File c:\users\administrator\desktop\????? ??\????? ??\client source code\system\ai_setting.cpp
;	COMDAT ?AI_SetDownFirstMethod@@YAXH@Z
_TEXT	SEGMENT
_i$1 = -20						; size = 4
_method$ = -8						; size = 4
_which$ = 8						; size = 4
?AI_SetDownFirstMethod@@YAXH@Z PROC			; AI_SetDownFirstMethod, COMDAT

; 909  : {

  00000	55		 push	 ebp
  00001	8b ec		 mov	 ebp, esp
  00003	81 ec d8 00 00
	00		 sub	 esp, 216		; 000000d8H
  00009	53		 push	 ebx
  0000a	56		 push	 esi
  0000b	57		 push	 edi
  0000c	8d bd 28 ff ff
	ff		 lea	 edi, DWORD PTR [ebp-216]
  00012	b9 36 00 00 00	 mov	 ecx, 54			; 00000036H
  00017	b8 cc cc cc cc	 mov	 eax, -858993460		; ccccccccH
  0001c	f3 ab		 rep stosd

; 910  : 	int method = AI_method[which];

  0001e	8b 45 08	 mov	 eax, DWORD PTR _which$[ebp]
  00021	8b 0c 85 00 00
	00 00		 mov	 ecx, DWORD PTR ?AI_method@@3PAHA[eax*4]
  00028	89 4d f8	 mov	 DWORD PTR _method$[ebp], ecx

; 911  : #ifndef _AI_NEW_FIRST
; 912  : 	if( method < 0)	method = MAX_MAGIC;
; 913  : 	AI_method[which] = -1;
; 914  : 	for( int i = (method-1); i >= 0; i--){
; 915  : 		if( magic[i].useFlag){
; 916  : 			AI_method[which] = i;
; 917  : 			AI_SetMethod( magic[i].target, which);
; 918  : 			break;
; 919  : 		}
; 920  : 	}
; 921  : #else
; 922  : 	// é¦–æ¬¡ç”¨ç²¾çµ
; 923  : 	if(bFirstFlag == false){

  0002b	0f b6 05 00 00
	00 00		 movzx	 eax, BYTE PTR ?bFirstFlag@@3_NA ; bFirstFlag
  00032	85 c0		 test	 eax, eax
  00034	75 40		 jne	 SHORT $LN5@AI_SetDown

; 924  : 		if(method < 0){

  00036	83 7d f8 00	 cmp	 DWORD PTR _method$[ebp], 0
  0003a	7d 38		 jge	 SHORT $LN7@AI_SetDown

; 925  : 			if(pc.profession_class != 0){ // æœ‰èŒä¸š

  0003c	83 3d 84 a1 00
	00 00		 cmp	 DWORD PTR ?pc@@3UPC@@A+41348, 0
  00043	74 28		 je	 SHORT $LN8@AI_SetDown

; 926  : 				AI_method[which] = MAX_PROFESSION_SKILL;

  00045	8b 45 08	 mov	 eax, DWORD PTR _which$[ebp]
  00048	c7 04 85 00 00
	00 00 1a 00 00
	00		 mov	 DWORD PTR ?AI_method@@3PAHA[eax*4], 26 ; 0000001aH

; 927  : 				AI_SetUpAttackMethod(which);

  00053	8b 45 08	 mov	 eax, DWORD PTR _which$[ebp]
  00056	50		 push	 eax
  00057	e8 00 00 00 00	 call	 ?AI_SetUpAttackMethod@@YAXH@Z ; AI_SetUpAttackMethod
  0005c	83 c4 04	 add	 esp, 4

; 928  : 				// è®¾å®šä¸ºç”¨æŠ€èƒ½
; 929  : 				bFirstFlag = true;

  0005f	c6 05 00 00 00
	00 01		 mov	 BYTE PTR ?bFirstFlag@@3_NA, 1 ; bFirstFlag

; 930  : 				return;

  00066	e9 9d 00 00 00	 jmp	 $LN1@AI_SetDown
  0006b	eb 07		 jmp	 SHORT $LN7@AI_SetDown
$LN8@AI_SetDown:

; 931  : 			}
; 932  : 			else method = MAX_MAGIC;

  0006d	c7 45 f8 09 00
	00 00		 mov	 DWORD PTR _method$[ebp], 9
$LN7@AI_SetDown:

; 933  : 		}
; 934  : 	}
; 935  : 	// é¦–æ¬¡ç”¨æŠ€èƒ½
; 936  : 	else{

  00074	eb 27		 jmp	 SHORT $LN6@AI_SetDown
$LN5@AI_SetDown:

; 937  : 		AI_SetUpAttackMethod(which);

  00076	8b 45 08	 mov	 eax, DWORD PTR _which$[ebp]
  00079	50		 push	 eax
  0007a	e8 00 00 00 00	 call	 ?AI_SetUpAttackMethod@@YAXH@Z ; AI_SetUpAttackMethod
  0007f	83 c4 04	 add	 esp, 4

; 938  : 		if(AI_method[which] == -1){

  00082	8b 45 08	 mov	 eax, DWORD PTR _which$[ebp]
  00085	83 3c 85 00 00
	00 00 ff	 cmp	 DWORD PTR ?AI_method@@3PAHA[eax*4], -1
  0008d	75 0e		 jne	 SHORT $LN6@AI_SetDown

; 939  : 			method = MAX_MAGIC;

  0008f	c7 45 f8 09 00
	00 00		 mov	 DWORD PTR _method$[ebp], 9

; 940  : 			bFirstFlag = false;

  00096	c6 05 00 00 00
	00 00		 mov	 BYTE PTR ?bFirstFlag@@3_NA, 0 ; bFirstFlag
$LN6@AI_SetDown:

; 941  : 		}
; 942  : 	}
; 943  : 	if(bFirstFlag == false){

  0009d	0f b6 05 00 00
	00 00		 movzx	 eax, BYTE PTR ?bFirstFlag@@3_NA ; bFirstFlag
  000a4	85 c0		 test	 eax, eax
  000a6	75 60		 jne	 SHORT $LN1@AI_SetDown

; 944  : 		AI_method[which] = -1;

  000a8	8b 45 08	 mov	 eax, DWORD PTR _which$[ebp]
  000ab	c7 04 85 00 00
	00 00 ff ff ff
	ff		 mov	 DWORD PTR ?AI_method@@3PAHA[eax*4], -1

; 945  : 		for( int i = (method-1); i >= 0; i--){

  000b6	8b 45 f8	 mov	 eax, DWORD PTR _method$[ebp]
  000b9	83 e8 01	 sub	 eax, 1
  000bc	89 45 ec	 mov	 DWORD PTR _i$1[ebp], eax
  000bf	eb 09		 jmp	 SHORT $LN4@AI_SetDown
$LN2@AI_SetDown:
  000c1	8b 45 ec	 mov	 eax, DWORD PTR _i$1[ebp]
  000c4	83 e8 01	 sub	 eax, 1
  000c7	89 45 ec	 mov	 DWORD PTR _i$1[ebp], eax
$LN4@AI_SetDown:
  000ca	83 7d ec 00	 cmp	 DWORD PTR _i$1[ebp], 0
  000ce	7c 38		 jl	 SHORT $LN1@AI_SetDown

; 946  : 			if( magic[i].useFlag){

  000d0	6b 45 ec 70	 imul	 eax, DWORD PTR _i$1[ebp], 112
  000d4	0f bf 88 00 00
	00 00		 movsx	 ecx, WORD PTR ?magic@@3PAUMAGIC@@A[eax]
  000db	85 c9		 test	 ecx, ecx
  000dd	74 27		 je	 SHORT $LN12@AI_SetDown

; 947  : 				AI_method[which] = i;

  000df	8b 45 08	 mov	 eax, DWORD PTR _which$[ebp]
  000e2	8b 4d ec	 mov	 ecx, DWORD PTR _i$1[ebp]
  000e5	89 0c 85 00 00
	00 00		 mov	 DWORD PTR ?AI_method@@3PAHA[eax*4], ecx

; 948  : 				AI_SetMethod( magic[i].target, which);

  000ec	8b 45 08	 mov	 eax, DWORD PTR _which$[ebp]
  000ef	50		 push	 eax
  000f0	6b 4d ec 70	 imul	 ecx, DWORD PTR _i$1[ebp], 112
  000f4	0f bf 91 0a 00
	00 00		 movsx	 edx, WORD PTR ?magic@@3PAUMAGIC@@A[ecx+10]
  000fb	52		 push	 edx
  000fc	e8 00 00 00 00	 call	 ?AI_SetMethod@@YAXHH@Z	; AI_SetMethod
  00101	83 c4 08	 add	 esp, 8

; 949  : 				break;

  00104	eb 02		 jmp	 SHORT $LN1@AI_SetDown
$LN12@AI_SetDown:

; 950  : 			}
; 951  : 		}

  00106	eb b9		 jmp	 SHORT $LN2@AI_SetDown
$LN1@AI_SetDown:

; 952  : 	}
; 953  : #endif
; 954  : }

  00108	5f		 pop	 edi
  00109	5e		 pop	 esi
  0010a	5b		 pop	 ebx
  0010b	81 c4 d8 00 00
	00		 add	 esp, 216		; 000000d8H
  00111	3b ec		 cmp	 ebp, esp
  00113	e8 00 00 00 00	 call	 __RTC_CheckEsp
  00118	8b e5		 mov	 esp, ebp
  0011a	5d		 pop	 ebp
  0011b	c3		 ret	 0
?AI_SetDownFirstMethod@@YAXH@Z ENDP			; AI_SetDownFirstMethod
_TEXT	ENDS
; Function compile flags: /Odtp /RTCsu /ZI
; File c:\users\administrator\desktop\????? ??\????? ??\client source code\system\ai_setting.cpp
;	COMDAT ?AI_SetUpFirstMethod@@YAXH@Z
_TEXT	SEGMENT
_i$1 = -20						; size = 4
_method$ = -8						; size = 4
_which$ = 8						; size = 4
?AI_SetUpFirstMethod@@YAXH@Z PROC			; AI_SetUpFirstMethod, COMDAT

; 854  : {

  00000	55		 push	 ebp
  00001	8b ec		 mov	 ebp, esp
  00003	81 ec d8 00 00
	00		 sub	 esp, 216		; 000000d8H
  00009	53		 push	 ebx
  0000a	56		 push	 esi
  0000b	57		 push	 edi
  0000c	8d bd 28 ff ff
	ff		 lea	 edi, DWORD PTR [ebp-216]
  00012	b9 36 00 00 00	 mov	 ecx, 54			; 00000036H
  00017	b8 cc cc cc cc	 mov	 eax, -858993460		; ccccccccH
  0001c	f3 ab		 rep stosd

; 855  : 	int method = AI_method[which]+1;

  0001e	8b 45 08	 mov	 eax, DWORD PTR _which$[ebp]
  00021	8b 0c 85 00 00
