; Listing generated by Microsoft (R) Optimizing Compiler Version 19.00.24215.1 

	TITLE	C:\Users\Administrator\Desktop\????? ??\????? ??\Client Source Code\system\battleMenu.cpp
	.686P
	.XMM
	include listing.inc
	.model	flat

INCLUDELIB MSVCRTD
INCLUDELIB OLDNAMES

PUBLIC	?AI@@3HA					; AI
PUBLIC	?PauseAI@@3KA					; PauseAI
PUBLIC	?BattleCmd@@3PADA				; BattleCmd
PUBLIC	?BattleCmdBak@@3PAY0BAAA@DA			; BattleCmdBak
PUBLIC	?BattleCmdReadPointer@@3HA			; BattleCmdReadPointer
PUBLIC	?BattleCmdWritePointer@@3HA			; BattleCmdWritePointer
PUBLIC	?BattleStatus@@3PADA				; BattleStatus
PUBLIC	?BattleStatusBak@@3PAY0BAAA@DA			; BattleStatusBak
PUBLIC	?BattleStatusReadPointer@@3HA			; BattleStatusReadPointer
PUBLIC	?BattleStatusWritePointer@@3HA			; BattleStatusWritePointer
PUBLIC	?battleMenuFlag2@@3HA				; battleMenuFlag2
PUBLIC	?BattleMyNo@@3HA				; BattleMyNo
PUBLIC	?BattleMyMp@@3HA				; BattleMyMp
PUBLIC	?BattleEscFlag@@3HA				; BattleEscFlag
PUBLIC	?BattlePetStMenCnt@@3HA				; BattlePetStMenCnt
PUBLIC	?battlePetNoBak@@3HA				; battlePetNoBak
PUBLIC	?battlePetNoBak2@@3HA				; battlePetNoBak2
PUBLIC	?BattleBpFlag@@3HA				; BattleBpFlag
PUBLIC	?BattleAnimFlag@@3HA				; BattleAnimFlag
PUBLIC	?BattleTurnReceiveFlag@@3HA			; BattleTurnReceiveFlag
PUBLIC	?BattleCliTurnNo@@3HA				; BattleCliTurnNo
PUBLIC	?BattleSvTurnNo@@3HA				; BattleSvTurnNo
PUBLIC	?BattleResultWndFlag@@3HA			; BattleResultWndFlag
PUBLIC	?BattleCmdNo@@3HA				; BattleCmdNo
PUBLIC	?BattleJujutuNo@@3HA				; BattleJujutuNo
PUBLIC	?BattleWazaNo@@3HA				; BattleWazaNo
PUBLIC	?BattleItemNo@@3HA				; BattleItemNo
PUBLIC	?battlePlayerEscFlag@@3HA			; battlePlayerEscFlag
PUBLIC	?BattleCntDown@@3KA				; BattleCntDown
PUBLIC	?BattleIntervalCnt@@3KA				; BattleIntervalCnt
PUBLIC	?BattleCntDownFlag@@3HA				; BattleCntDownFlag
PUBLIC	?battleMenuFlag@@3HA				; battleMenuFlag
PUBLIC	?battlePetButtonFlag@@3HA			; battlePetButtonFlag
PUBLIC	?battleButtonBak@@3HA				; battleButtonBak
PUBLIC	?battleWazaTargetBak@@3HA			; battleWazaTargetBak
PUBLIC	?wonflag@@3HA					; wonflag
PUBLIC	?prouseskill@@3HA				; prouseskill
PUBLIC	?SkillWnd2@@3HA					; SkillWnd2
_BSS	SEGMENT
?AI@@3HA DD	01H DUP (?)				; AI
?PauseAI@@3KA DD 01H DUP (?)				; PauseAI
?BattleCmd@@3PADA DB 01000H DUP (?)			; BattleCmd
?BattleCmdBak@@3PAY0BAAA@DA DB 04020H DUP (?)		; BattleCmdBak
?BattleCmdReadPointer@@3HA DD 01H DUP (?)		; BattleCmdReadPointer
?BattleCmdWritePointer@@3HA DD 01H DUP (?)		; BattleCmdWritePointer
?BattleStatus@@3PADA DB 01000H DUP (?)			; BattleStatus
?BattleStatusBak@@3PAY0BAAA@DA DB 04020H DUP (?)	; BattleStatusBak
?BattleStatusReadPointer@@3HA DD 01H DUP (?)		; BattleStatusReadPointer
?BattleStatusWritePointer@@3HA DD 01H DUP (?)		; BattleStatusWritePointer
?battleMenuFlag2@@3HA DD 01H DUP (?)			; battleMenuFlag2
?BattleMyNo@@3HA DD 01H DUP (?)				; BattleMyNo
?BattleMyMp@@3HA DD 01H DUP (?)				; BattleMyMp
?BattleEscFlag@@3HA DD 01H DUP (?)			; BattleEscFlag
?BattlePetStMenCnt@@3HA DD 01H DUP (?)			; BattlePetStMenCnt
?BattleBpFlag@@3HA DD 01H DUP (?)			; BattleBpFlag
?BattleAnimFlag@@3HA DD 01H DUP (?)			; BattleAnimFlag
?BattleTurnReceiveFlag@@3HA DD 01H DUP (?)		; BattleTurnReceiveFlag
?BattleCliTurnNo@@3HA DD 01H DUP (?)			; BattleCliTurnNo
?BattleSvTurnNo@@3HA DD 01H DUP (?)			; BattleSvTurnNo
?BattleResultWndFlag@@3HA DD 01H DUP (?)		; BattleResultWndFlag
?BattleJujutuNo@@3HA DD 01H DUP (?)			; BattleJujutuNo
?BattleWazaNo@@3HA DD 01H DUP (?)			; BattleWazaNo
?BattleItemNo@@3HA DD 01H DUP (?)			; BattleItemNo
?battlePlayerEscFlag@@3HA DD 01H DUP (?)		; battlePlayerEscFlag
?BattleCntDown@@3KA DD 01H DUP (?)			; BattleCntDown
?BattleIntervalCnt@@3KA DD 01H DUP (?)			; BattleIntervalCnt
?BattleCntDownFlag@@3HA DD 01H DUP (?)			; BattleCntDownFlag
?battleMenuFlag@@3HA DD 01H DUP (?)			; battleMenuFlag
?battleMenuReturn@@3HA DD 01H DUP (?)			; battleMenuReturn
?battlePetMenuFlag@@3HA DD 01H DUP (?)			; battlePetMenuFlag
?battlePetButtonFlag@@3HA DD 01H DUP (?)		; battlePetButtonFlag
?battleTimeUpFlag@@3HA DD 01H DUP (?)			; battleTimeUpFlag
?battleTargetSelectFlag@@3HA DD 01H DUP (?)		; battleTargetSelectFlag
?pActWnd@@3PAUaction@@A DD 01H DUP (?)			; pActWnd
?wonflag@@3HA DD 01H DUP (?)				; wonflag
?SkillWnd2@@3HA DD 01H DUP (?)				; SkillWnd2
_BSS	ENDS
_DATA	SEGMENT
?ridePetTable@@3PAUtagRidePetTable@@A DD 018a88H	; ridePetTable
	DD	0186a0H
	DD	018800H
	DD	00H
	DD	018a89H
	DD	0186a5H
	DD	018800H
	DD	00H
	DD	018a8aH
	DD	0186aaH
	DD	018800H
	DD	00H
	DD	018a8bH
	DD	0186afH
	DD	018800H
	DD	00H
	DD	018a8cH
	DD	0186a0H
	DD	0187e9H
	DD	00H
	DD	018a8dH
	DD	0186a5H
	DD	0187e7H
	DD	00H
	DD	018a8eH
	DD	0186aaH
	DD	0187eaH
	DD	00H
	DD	018a8fH
	DD	0186afH
	DD	0187e8H
	DD	00H
	DD	018a90H
	DD	01895cH
	DD	018814H
	DD	00H
	DD	018a91H
	DD	018961H
	DD	018815H
	DD	00H
	DD	018e65H
	DD	018961H
	DD	018cc8H
	DD	00H
	DD	018e5aH
	DD	018961H
	DD	018c9cH
	DD	00H
	DD	018a92H
	DD	0186b4H
	DD	01882cH
	DD	00H
	DD	018a93H
	DD	0186b9H
	DD	01882cH
	DD	00H
	DD	018a94H
	DD	0186beH
	DD	01882cH
	DD	00H
	DD	018a95H
	DD	0186c3H
	DD	01882cH
	DD	00H
	DD	018a96H
	DD	0186b4H
	DD	0187e8H
	DD	00H
	DD	018a97H
	DD	0186b9H
	DD	0187e9H
	DD	00H
	DD	018a98H
	DD	0186beH
	DD	0187e7H
	DD	00H
	DD	018a99H
	DD	0186c3H
	DD	0187eaH
	DD	00H
	DD	018a9aH
	DD	018966H
	DD	018814H
	DD	00H
	DD	018a9bH
	DD	01896bH
	DD	018815H
	DD	00H
	DD	018e64H
	DD	01896bH
	DD	018cc8H
	DD	00H
	DD	018e62H
	DD	01896bH
	DD	018c9cH
	DD	00H
	DD	018a9cH
	DD	0186c8H
	DD	0187ffH
	DD	00H
	DD	018a9dH
	DD	0186cdH
	DD	0187ffH
	DD	00H
	DD	018a9eH
	DD	0186d2H
	DD	0187ffH
	DD	00H
	DD	018a9fH
	DD	0186d7H
	DD	0187ffH
	DD	00H
	DD	018aa0H
	DD	0186c8H
	DD	0187e8H
	DD	00H
	DD	018aa1H
	DD	0186cdH
	DD	0187eaH
	DD	00H
	DD	018aa2H
	DD	0186d2H
	DD	0187e7H
	DD	00H
	DD	018aa3H
	DD	0186d7H
	DD	0187e9H
	DD	00H
	DD	018aa4H
	DD	018970H
	DD	018814H
	DD	00H
	DD	018aa5H
	DD	018975H
	DD	018815H
	DD	00H
	DD	018e4dH
	DD	018975H
	DD	018cc8H
	DD	00H
	DD	018e57H
	DD	018975H
	DD	018c9cH
	DD	00H
	DD	018aa6H
	DD	0186dcH
	DD	018801H
	DD	00H
	DD	018aa7H
	DD	0186e1H
	DD	018801H
	DD	00H
	DD	018aa8H
	DD	0186e6H
	DD	018801H
	DD	00H
	DD	018aa9H
	DD	0186ebH
	DD	018801H
	DD	00H
	DD	018aaaH
	DD	0186dcH
	DD	0187e9H
	DD	00H
	DD	018aabH
	DD	0186e1H
	DD	0187e7H
	DD	00H
	DD	018aacH
	DD	0186e6H
	DD	0187eaH
	DD	00H
	DD	018aadH
	DD	0186ebH
	DD	0187e8H
	DD	00H
	DD	018aaeH
	DD	01897aH
	DD	018814H
	DD	00H
	DD	018aafH
	DD	01897fH
	DD	018815H
	DD	00H
	DD	018e4eH
	DD	01897fH
	DD	018cc8H
	DD	00H
	DD	018e58H
	DD	01897fH
	DD	018c9cH
	DD	00H
	DD	018ab0H
	DD	0186f0H
	DD	01882cH
	DD	00H
	DD	018ab1H
	DD	0186f5H
	DD	01882cH
	DD	00H
	DD	018ab2H
	DD	0186faH
	DD	01882cH
	DD	00H
	DD	018ab3H
	DD	0186ffH
	DD	01882cH
	DD	00H
	DD	018ab4H
	DD	0186f0H
	DD	0187e8H
	DD	00H
	DD	018ab5H
	DD	0186f5H
	DD	0187e7H
	DD	00H
	DD	018ab6H
	DD	0186faH
	DD	0187eaH
	DD	00H
	DD	018ab7H
	DD	0186ffH
	DD	0187e9H
	DD	00H
	DD	018ab8H
	DD	018984H
	DD	018814H
	DD	00H
	DD	018ab9H
	DD	018989H
	DD	018815H
	DD	00H
	DD	018e55H
	DD	018989H
	DD	018cc8H
	DD	00H
	DD	018e60H
	DD	018989H
	DD	018c9cH
	DD	00H
	DD	018abaH
	DD	018704H
	DD	018801H
	DD	00H
	DD	018abbH
	DD	018709H
	DD	018801H
	DD	00H
	DD	018abcH
	DD	01870eH
	DD	018801H
	DD	00H
	DD	018abdH
	DD	018713H
	DD	018801H
	DD	00H
	DD	018abeH
	DD	018704H
	DD	0187e9H
	DD	00H
	DD	018abfH
	DD	018709H
	DD	0187e8H
	DD	00H
	DD	018ac0H
	DD	01870eH
	DD	0187eaH
	DD	00H
	DD	018ac1H
	DD	018713H
	DD	0187e7H
	DD	00H
	DD	018ac2H
	DD	01898eH
	DD	018814H
	DD	00H
	DD	018ac3H
	DD	018993H
	DD	018815H
	DD	00H
	DD	018e56H
	DD	018993H
	DD	018cc8H
	DD	00H
	DD	018e61H
	DD	018993H
	DD	018c9cH
	DD	00H
	DD	018ac4H
	DD	018718H
	DD	018802H
	DD	00H
	DD	018ac5H
	DD	01871dH
	DD	018802H
	DD	00H
	DD	018ac6H
	DD	018722H
	DD	018802H
	DD	00H
	DD	018ac7H
	DD	018727H
	DD	018802H
	DD	00H
	DD	018ac8H
	DD	018718H
	DD	0187e7H
	DD	00H
	DD	018ac9H
	DD	01871dH
	DD	0187eaH
	DD	00H
	DD	018acaH
	DD	018722H
	DD	0187e8H
	DD	00H
	DD	018acbH
	DD	018727H
	DD	0187e9H
	DD	00H
	DD	018accH
	DD	018998H
	DD	018814H
	DD	00H
	DD	018acdH
	DD	01899dH
	DD	018815H
	DD	00H
	DD	018e4fH
	DD	01899dH
	DD	018cc8H
	DD	00H
	DD	018e59H
	DD	01899dH
	DD	018c9cH
	DD	00H
	DD	018aceH
	DD	01872cH
	DD	018802H
	DD	00H
	DD	018acfH
	DD	018731H
	DD	018802H
	DD	00H
	DD	018ad0H
	DD	018736H
	DD	018802H
	DD	00H
	DD	018ad1H
	DD	01873bH
	DD	018802H
	DD	00H
	DD	018ad2H
	DD	01872cH
	DD	0187e7H
	DD	00H
	DD	018ad3H
	DD	018731H
	DD	0187e9H
	DD	00H
	DD	018ad4H
	DD	018736H
	DD	0187eaH
	DD	00H
	DD	018ad5H
	DD	01873bH
	DD	0187e8H
	DD	00H
	DD	018ad6H
	DD	0189a2H
	DD	018814H
	DD	00H
	DD	018ad7H
	DD	0189a7H
	DD	018815H
	DD	00H
	DD	018e50H
	DD	0189a7H
	DD	018cc8H
	DD	00H
	DD	018e5bH
	DD	0189a7H
	DD	018c9cH
	DD	00H
	DD	018ad8H
	DD	018740H
	DD	018800H
	DD	00H
	DD	018ad9H
	DD	018745H
	DD	018800H
	DD	00H
	DD	018adaH
	DD	01874aH
	DD	018800H
	DD	00H
	DD	018adbH
	DD	01874fH
	DD	018800H
	DD	00H
	DD	018adcH
	DD	018740H
	DD	0187eaH
	DD	00H
	DD	018addH
	DD	018745H
	DD	0187e9H
	DD	00H
	DD	018adeH
	DD	01874aH
	DD	0187e7H
	DD	00H
	DD	018adfH
	DD	01874fH
	DD	0187e8H
	DD	00H
	DD	018ae0H
	DD	0189acH
	DD	018814H
	DD	00H
	DD	018ae1H
	DD	0189b1H
	DD	018815H
	DD	00H
	DD	018e52H
	DD	0189b1H
	DD	018cc8H
	DD	00H
	DD	018e5dH
	DD	0189b1H
	DD	018c9cH
	DD	00H
	DD	018ae2H
	DD	018754H
	DD	0187ffH
	DD	00H
	DD	018ae3H
	DD	018759H
	DD	0187ffH
	DD	00H
	DD	018ae4H
	DD	01875eH
	DD	0187ffH
	DD	00H
	DD	018ae5H
	DD	018763H
	DD	0187ffH
	DD	00H
	DD	018ae6H
	DD	018754H
	DD	0187e8H
	DD	00H
	DD	018ae7H
	DD	018759H
	DD	0187eaH
	DD	00H
	DD	018ae8H
	DD	01875eH
	DD	0187e9H
	DD	00H
	DD	018ae9H
	DD	018763H
	DD	0187e7H
	DD	00H
	DD	018aeaH
	DD	0189b6H
	DD	018814H
	DD	00H
	DD	018aebH
	DD	0189bbH
	DD	018815H
	DD	00H
	DD	018e51H
	DD	0189bbH
	DD	018cc8H
	DD	00H
	DD	018e5cH
	DD	0189bbH
	DD	018c9cH
	DD	00H
	DD	018aecH
	DD	018768H
	DD	018801H
	DD	00H
	DD	018aedH
	DD	01876dH
	DD	018801H
	DD	00H
	DD	018aeeH
	DD	018772H
	DD	018801H
	DD	00H
	DD	018aefH
	DD	018777H
	DD	018801H
	DD	00H
	DD	018af0H
	DD	018768H
	DD	0187e9H
	DD	00H
	DD	018af1H
	DD	01876dH
	DD	0187e8H
	DD	00H
	DD	018af2H
	DD	018772H
	DD	0187e7H
	DD	00H
	DD	018af3H
	DD	018777H
	DD	0187eaH
	DD	00H
	DD	018af4H
	DD	0189c0H
	DD	018814H
	DD	00H
	DD	018af5H
	DD	0189c5H
	DD	018815H
	DD	00H
	DD	018e54H
	DD	0189c5H
	DD	018cc8H
	DD	00H
	DD	018e5fH
	DD	0189c5H
	DD	018c9cH
	DD	00H
	DD	018af6H
	DD	01877cH
	DD	01882cH
	DD	00H
	DD	018af7H
	DD	018781H
	DD	01882cH
	DD	00H
	DD	018af8H
	DD	018786H
	DD	01882cH
	DD	00H
	DD	018af9H
	DD	01878bH
	DD	01882cH
	DD	00H
	DD	018afaH
	DD	01877cH
	DD	0187eaH
	DD	00H
	DD	018afbH
	DD	018781H
	DD	0187e7H
	DD	00H
	DD	018afcH
	DD	018786H
	DD	0187e9H
	DD	00H
	DD	018afdH
	DD	01878bH
	DD	0187e8H
	DD	00H
	DD	018afeH
	DD	0189caH
	DD	018814H
	DD	00H
	DD	018affH
	DD	0189cfH
	DD	018815H
	DD	00H
	DD	018e53H
	DD	0189cfH
	DD	018cc8H
	DD	00H
	DD	018e5eH
	DD	0189cfH
	DD	018c9cH
	DD	00H
	DD	018b3bH
	DD	018b39H
	DD	018b3aH
	DD	00H
	DD	018b3bH
	DD	018b3aH
	DD	018b39H
	DD	00H
?RideCodeMode@@3PAUtagRideCodeMode@@A DD 018816H	; RideCodeMode
	DD	01H
	DD	018806H
	DD	02H
	DD	01880aH
	DD	04H
	DD	0187b7H
	DD	08H
	DD	0187c0H
	DD	010H
	DD	0187bbH
	DD	020H
	DD	0187faH
	DD	040H
	DD	0187d6H
	DD	080H
	DD	018814H
	DD	0100H
	DD	018815H
	DD	0200H
	DD	018c9cH
	DD	0800H
	DD	018cc8H
	DD	0400H
	DD	018812H
	DD	01000H
	DD	018811H
	DD	02000H
	DD	018a28H
	DD	04000H
	DD	018a2bH
	DD	08000H
	DD	018f30H
	DD	010000H
	DD	018f31H
	DD	020000H
	DD	018f68H
	DD	040000H
	DD	0187fcH
	DD	080000H
	DD	0187d3H
	DD	0100000H
	DD	018fa9H
	DD	0200000H
	DD	018faaH
	DD	0400000H
	DD	018a09H
	DD	0800000H
	DD	018a0aH
	DD	01000000H
	DD	019394H
	DD	02000000H
	DD	0187b2H
	DD	04000000H
?RideNoList@@3PAUtagRideNoList@@A DD 018bb9H		; RideNoList
	DD	018bbaH
	DD	018bbbH
	DD	018bbcH
	DD	018bbdH
	DD	018bbeH
	DD	018bbfH
	DD	018bc0H
	DD	018a90H
	DD	018a91H
	DD	018e5aH
	DD	018e65H
	DD	018849H
	DD	018844H
	DD	01885dH
	DD	018ee5H
	DD	018f0dH
	DD	018f19H
	DD	018f76H
	ORG $+32
	DD	018bc1H
	DD	018bc2H
	DD	018bc3H
	DD	018bc4H
	DD	018bc5H
	DD	018bc6H
	DD	018bc7H
	DD	018bc8H
	DD	018a9aH
	DD	018a9bH
	DD	018e62H
	DD	018e64H
	DD	018849H
	DD	018844H
	DD	01885dH
	DD	018ee6H
	DD	018f0eH
	DD	018f1aH
	DD	018f77H
	ORG $+32
	DD	018bc9H
	DD	018bcaH
	DD	018bcbH
	DD	018bccH
	DD	018bcdH
	DD	018bceH
	DD	018bcfH
	DD	018bd0H
	DD	018aa4H
	DD	018aa5H
	DD	018e57H
	DD	018e4dH
	DD	018849H
	DD	018844H
	DD	01885dH
	DD	018ee7H
	DD	018f0fH
	DD	018f1bH
	DD	018f78H
	ORG $+32
	DD	018bd1H
	DD	018bd2H
	DD	018bd3H
	DD	018bd4H
	DD	018bd5H
	DD	018bd6H
	DD	018bd7H
	DD	018bd8H
	DD	018aaeH
	DD	018aafH
	DD	018e58H
	DD	018e4eH
	DD	018849H
	DD	018844H
	DD	01885dH
	DD	018ee8H
	DD	018f10H
	DD	018f1cH
	DD	018f79H
	ORG $+32
	DD	018bd9H
	DD	018bdaH
	DD	018bdbH
	DD	018bdcH
	DD	018bddH
	DD	018bdeH
	DD	018bdfH
	DD	018be0H
	DD	018ab8H
	DD	018ab9H
	DD	018e60H
	DD	018e55H
	DD	018849H
	DD	018844H
	DD	01885dH
	DD	018ee9H
	DD	018f11H
	DD	018f1dH
	DD	018f7aH
	ORG $+32
	DD	018be1H
	DD	018be2H
	DD	018be3H
	DD	018be4H
	DD	018be5H
	DD	018be6H
	DD	018be7H
	DD	018be8H
	DD	018ac2H
	DD	018ac3H
	DD	018e61H
	DD	018e56H
	DD	018849H
	DD	018844H
	DD	01885dH
	DD	018eeaH
	DD	018f12H
	DD	018f1eH
	DD	018f7bH
	ORG $+32
	DD	018be9H
	DD	018beaH
	DD	018bebH
	DD	018becH
	DD	018bedH
	DD	018beeH
	DD	018befH
	DD	018bf0H
	DD	018accH
	DD	018acdH
	DD	018e59H
	DD	018e4fH
	DD	018849H
	DD	018844H
	DD	01885dH
	DD	018eebH
	DD	018f13H
	DD	018f1fH
	DD	018f7cH
	ORG $+32
	DD	018bf1H
	DD	018bf2H
	DD	018bf3H
	DD	018bf4H
	DD	018bf5H
	DD	018bf6H
	DD	018bf7H
	DD	018bf8H
	DD	018ad6H
	DD	018ad7H
	DD	018e5bH
	DD	018e50H
	DD	018849H
	DD	018844H
	DD	01885dH
	DD	018eecH
	DD	018f14H
	DD	018f20H
	DD	018f7dH
	ORG $+32
	DD	018bf9H
	DD	018bfaH
	DD	018bfbH
	DD	018bfcH
	DD	018bfdH
	DD	018bfeH
	DD	018bffH
	DD	018c00H
	DD	018ae0H
	DD	018ae1H
	DD	018e5dH
	DD	018e52H
	DD	018849H
	DD	018844H
	DD	01885dH
	DD	018eedH
	DD	018f15H
	DD	018f21H
	DD	018f7eH
	ORG $+32
	DD	018c01H
	DD	018c02H
	DD	018c03H
	DD	018c04H
	DD	018c05H
	DD	018c06H
	DD	018c07H
	DD	018c08H
	DD	018aeaH
	DD	018aebH
	DD	018e5cH
	DD	018e51H
	DD	018849H
	DD	018844H
	DD	01885dH
	DD	018eeeH
	DD	018f16H
	DD	018f22H
	DD	018f7fH
	ORG $+32
	DD	018c09H
	DD	018c0aH
	DD	018c0bH
	DD	018c0cH
	DD	018c0dH
	DD	018c0eH
	DD	018c0fH
	DD	018c10H
	DD	018af4H
	DD	018af5H
	DD	018e5fH
	DD	018e54H
	DD	018849H
	DD	018844H
	DD	01885dH
	DD	018eefH
	DD	018f17H
	DD	018f23H
	DD	018f80H
	ORG $+32
	DD	018c11H
	DD	018c12H
	DD	018c13H
	DD	018c14H
	DD	018c15H
	DD	018c16H
	DD	018c17H
	DD	018c18H
	DD	018afeH
	DD	018affH
	DD	018e5eH
	DD	018e53H
	DD	018849H
	DD	018844H
	DD	01885dH
	DD	018ef0H
	DD	018f18H
	DD	018f24H
	DD	018f81H
	ORG $+32
?RPlistMode@@3PAUtagRidePetList@@A DD 0186a0H		; RPlistMode
	DD	00H
	DD	0186a5H
	DD	00H
	DD	0186aaH
	DD	00H
	DD	0186afH
	DD	00H
	DD	0186b4H
	DD	01H
	DD	0186b9H
	DD	01H
	DD	0186beH
	DD	01H
	DD	0186c3H
	DD	01H
	DD	0186c8H
	DD	02H
	DD	0186cdH
	DD	02H
	DD	0186d2H
	DD	02H
	DD	0186d7H
	DD	02H
	DD	0186dcH
	DD	03H
	DD	0186e1H
	DD	03H
	DD	0186e6H
	DD	03H
	DD	0186ebH
	DD	03H
	DD	0186f0H
	DD	04H
	DD	0186f5H
	DD	04H
	DD	0186faH
	DD	04H
	DD	0186ffH
	DD	04H
	DD	018704H
	DD	05H
	DD	018709H
	DD	05H
	DD	01870eH
	DD	05H
	DD	018713H
	DD	05H
	DD	018718H
	DD	06H
	DD	01871dH
	DD	06H
	DD	018722H
	DD	06H
	DD	018727H
	DD	06H
	DD	01872cH
	DD	07H
	DD	018731H
	DD	07H
	DD	018736H
	DD	07H
	DD	01873bH
	DD	07H
	DD	018740H
	DD	08H
	DD	018745H
	DD	08H
	DD	01874aH
	DD	08H
	DD	01874fH
	DD	08H
	DD	018754H
	DD	09H
	DD	018759H
	DD	09H
	DD	01875eH
	DD	09H
	DD	018763H
	DD	09H
	DD	018768H
	DD	0aH
	DD	01876dH
	DD	0aH
	DD	018772H
	DD	0aH
	DD	018777H
	DD	0aH
	DD	01877cH
	DD	0bH
	DD	018781H
	DD	0bH
	DD	018786H
	DD	0bH
	DD	01878bH
	DD	0bH
?battlePetNoBak@@3HA DD 0fffffffeH			; battlePetNoBak
?battlePetNoBak2@@3HA DD 0fffffffeH			; battlePetNoBak2
?BattleCmdNo@@3HA DD 0ffffffffH				; BattleCmdNo
?battleButtonBak@@3HA DD 0ffffffffH			; battleButtonBak
?battleButtonBak2@@3HA DD 0ffffffffH			; battleButtonBak2
?battleWazaTargetBak@@3HA DD 0ffffffffH			; battleWazaTargetBak
?prouseskill@@3HA DD 0ffffffffH				; prouseskill
	ORG $+4
?Ordinal@@3PAHA DD 013H					; Ordinal
	DD	011H
	DD	0fH
	DD	010H
	DD	012H
	DD	0eH
	DD	0cH
	DD	0aH
	DD	0bH
	DD	0dH
	DD	09H
	DD	07H
	DD	05H
	DD	06H
	DD	08H
	DD	04H
	DD	02H
	DD	00H
	DD	01H
	DD	03H
_DATA	ENDS
PUBLIC	___local_stdio_printf_options
PUBLIC	??$__vcrt_va_start_verify_argument_type@QBD@@YAXXZ ; __vcrt_va_start_verify_argument_type<char const * const>
PUBLIC	__vsnprintf_l
PUBLIC	__vsprintf_l
PUBLIC	__vsprintf_s_l
PUBLIC	_vsprintf_s
PUBLIC	_sprintf
PUBLIC	?BattleMenuProc@@YAXXZ				; BattleMenuProc
PUBLIC	?ClearBattleButton@@YAXXZ			; ClearBattleButton
PUBLIC	?InitBattleMenu@@YAXXZ				; InitBattleMenu
PUBLIC	?CheckBattleAnimFlag@@YAXXZ			; CheckBattleAnimFlag
PUBLIC	?CheckBattle1P2P@@YAHXZ				; CheckBattle1P2P
PUBLIC	?HpMeterDisp@@YAXH@Z				; HpMeterDisp
PUBLIC	?BattleNameDisp@@YAXXZ				; BattleNameDisp
PUBLIC	?BattleSetWazaHitBox@@YAXHH@Z			; BattleSetWazaHitBox
PUBLIC	?InitBattleAnimFlag@@YAXXZ			; InitBattleAnimFlag
PUBLIC	?CheckPetSuu@@YAHXZ				; CheckPetSuu
PUBLIC	?ClearBoxFlag@@YAXXZ				; ClearBoxFlag
PUBLIC	?CheckBattelTarget@@YAHXZ			; CheckBattelTarget
PUBLIC	?BattleButtonOff@@YAXXZ				; BattleButtonOff
PUBLIC	?InitItem2@@YAXHH@Z				; InitItem2
PUBLIC	??$sprintf_s@$0BAA@@@YAHAAY0BAA@DPBDZZ		; sprintf_s<256>
PUBLIC	?BattleButtonAttack@@YAXXZ			; BattleButtonAttack
PUBLIC	?BattleButtonJujutsu@@YAXXZ			; BattleButtonJujutsu
PUBLIC	?BattleButtonCapture@@YAXXZ			; BattleButtonCapture
PUBLIC	?BattleButtonHelp@@YAXXZ			; BattleButtonHelp
PUBLIC	?BattleButtonGuard@@YAXXZ			; BattleButtonGuard
PUBLIC	?BattleButtonItem@@YAXXZ			; BattleButtonItem
PUBLIC	?BattleButtonPet@@YAXXZ				; BattleButtonPet
PUBLIC	?BattleButtonPPLSKILL@@YAXXZ			; BattleButtonPPLSKILL
PUBLIC	?BattleButtonEscape@@YAXXZ			; BattleButtonEscape
PUBLIC	?BattleButtonWaza@@YAXXZ			; BattleButtonWaza
PUBLIC	?BattleTargetSelect@@YAXXZ			; BattleTargetSelect
PUBLIC	?GetBattelTarget@@YAHXZ				; GetBattelTarget
PUBLIC	?BattleCntDownDisp@@YAXXZ			; BattleCntDownDisp
PUBLIC	?CloseInfoWnd@@YAXXZ				; CloseInfoWnd
PUBLIC	??$__vcrt_va_start_verify_argument_type@PBD@@YAXXZ ; __vcrt_va_start_verify_argument_type<char const *>
PUBLIC	?_OptionsStorage@?1??__local_stdio_printf_options@@9@4_KA ; `__local_stdio_printf_options'::`2'::_OptionsStorage
PUBLIC	??_C@_08JCHLGOEH@?$CFs?5Lv?3?$CFd?$AA@		; `string'
PUBLIC	??_C@_08NJBMJDFM@HP?3?$CFd?1?$CFd?$AA@		; `string'
PUBLIC	??_C@_0L@BHJLNCHD@?$LA?x?$LA?$NN?G?O?$LE?Y?$KB?$KD?$AA@ ; `string'
PUBLIC	??_C@_0BC@GBLBFMBP@?A?V?$LM?z?$MA?$LL?5?$LL?g?$LP?k?G?O?$LE?Y?$KB?$KD?$AA@ ; `string'
PUBLIC	??_C@_0CJ@HJBAPDHB@?D?$KH?$LJ?$KM?$LL?s?E?B?$LP?$KB?$LM?$KN?$LE?B?5?A?V?$LM?z?$MA?$LL?5?$LL?g?$LP?k?G?R?$LM?v?$LO?x@ ; `string'
PUBLIC	??_C@_07HFNBMNBH@?$CF2d?1?$CF2d?$AA@		; `string'
PUBLIC	??_C@_0BA@BODGMCMN@?A?V?$LM?z?$MA?L?5?$LO?x?$LN?$MA?$LE?O?$LE?Y?$AA@ ; `string'
PUBLIC	??_C@_0CK@LMOADLH@?F?d?F?$KO?C?$KC?$MA?L?5?$LC?K?5?B?w?$LM?$KN?5?$LE?u?$MA?L?$LL?s?5?F?w?H?$LJ?G?R?$LM?v@ ; `string'
PUBLIC	??_C@_0L@OPNNNOMC@?F?w?H?$LJ?G?O?$LE?Y?$KB?$KD?$AA@ ; `string'
PUBLIC	??_C@_06EBHMOCNH@HELP?$KB?$KD?$AA@		; `string'
PUBLIC	??_C@_01BBODEMC@G?$AA@				; `string'
PUBLIC	??_C@_06NDKEIKGO@?$LJ?f?$LO?n?$KB?$KD?$AA@	; `string'
PUBLIC	??_C@_08CJOHOOE@?$LO?F?$MA?L?E?$NL?$KB?$KD?$AA@	; `string'
PUBLIC	??_C@_0CA@ELBOPCEK@?$MA?$PM?E?u?5?A?$NP?5?$LO?V?$LP?O?$LF?$LP?$LJ?$LA?5?$MA?e?$LK?q?5?$LB?$LD?C?$LM?5?$LK?R?$LA?$KB?$AA@ ; `string'
PUBLIC	??_C@_0L@CJKKBEMM@?F?d?F?$KO?$LB?$LD?C?$LM?$KB?$KD?$AA@ ; `string'
PUBLIC	??_C@_04FIJAIIHF@S?$HM?$CFd?$AA@		; `string'
PUBLIC	??_C@_04JBEPHANM@S?$HM?91?$AA@			; `string'
PUBLIC	??_C@_06ELKFHEJ@?C?f?3?$CF3d?$AA@		; `string'
PUBLIC	??_C@_0BH@KGEJIJPJ@?$CF?93d?5?5?5?5?5?5?5?5?5?$CF5d?5?5?5?$CF5d?$AA@ ; `string'
PUBLIC	??_C@_0BF@FCDGFJJJ@?G?C?$LH?$LJ?$MA?L?$LO?n?$LA?$KB?5?$LO?x?$LE?B?5?F?d?F?$KO?$AA@ ; `string'
PUBLIC	??_C@_00CNPNBAHC@?$AA@				; `string'
PUBLIC	??_C@_08LCIHGOIJ@?A?w?$LO?w?$LB?b?$LE?I?$AA@	; `string'
PUBLIC	??_C@_03GHDNOBPC@?$CF8s?$AA@			; `string'
PUBLIC	??_C@_02DKCKIIND@?$CFs?$AA@			; `string'
PUBLIC	??_C@_06BPKJHHJO@?5?5?$CFd?$KD?$KF?$AA@		; `string'
PUBLIC	??_C@_0BA@OEIEMLKK@?$CI?$LM?R?$LK?q?G?O?$LE?YMP?3?$CFd?$CJ?$AA@ ; `string'
PUBLIC	??_C@_01DDCIFGEA@E?$AA@				; `string'
PUBLIC	??_C@_06DOILANO@?E?$LL?C?b?$KB?$KD?$AA@		; `string'
PUBLIC	??_C@_07NGDMDFPD@P?$HM?$CFX?$HM?$CFX?$AA@	; `string'
PUBLIC	??_C@_07NMPJDMOK@W?$HM?$CFX?$HM?$CFX?$AA@	; `string'
PUBLIC	??_C@_0BC@EMOKBAPI@?$LB?b?$LE?I?$MA?$LL?5?$LL?g?$LP?k?G?O?$LE?Y?$KB?$KD?$AA@ ; `string'
PUBLIC	??_C@_07BDJJCCFL@W?$HMFF?$HMFF?$AA@		; `string'
PUBLIC	??_C@_0N@DBNACIMP@?5?5?5?5?5?5?5?$CF?922s?$AA@	; `string'
PUBLIC	??_C@_0BF@NNNOOJBA@?$LI?q?G?$KF?$LI?$KG?5?$LM?$LB?E?C?5?G?X?A?V?$LM?$LM?$LP?d?$AA@ ; `string'
PUBLIC	??_C@_04DMFDFHBJ@H?$HM?$CFX?$AA@		; `string'
PUBLIC	??_C@_04JJEDCNJK@T?$HM?$CFX?$AA@		; `string'
PUBLIC	??_C@_07DLEHBIBA@J?$HM?$CFX?$HM?$CFX?$AA@	; `string'
PUBLIC	??_C@_07LFMIBPPD@I?$HM?$CFX?$HM?$CFX?$AA@	; `string'
PUBLIC	??_C@_01NANMIPIL@N?$AA@				; `string'
PUBLIC	??_C@_03GPCJOALC@?$CF2d?$AA@			; `string'
PUBLIC	??_C@_05FNFPHGDP@?$CF?924s?$AA@			; `string'
PUBLIC	__real@4044000000000000
EXTRN	___report_rangecheckfailure:PROC
EXTRN	?TimeGetTime@@YAIXZ:PROC			; TimeGetTime
EXTRN	_memset:PROC
EXTRN	_strcpy:PROC
EXTRN	_strlen:PROC
EXTRN	__imp__strncpy:PROC
EXTRN	__imp____stdio_common_vsprintf:PROC
EXTRN	__imp____stdio_common_vsprintf_s:PROC
EXTRN	?DeathAction@@YAXPAUaction@@@Z:PROC		; DeathAction
EXTRN	?StockDispBuffer@@YAHHHEHH@Z:PROC		; StockDispBuffer
EXTRN	?StockBoxDispBuffer@@YAXHHHHEHH@Z:PROC		; StockBoxDispBuffer
EXTRN	?StockChatBufferLine@@YAXPADEH@Z:PROC		; StockChatBufferLine
EXTRN	?GetStrLastByte@@YAHPAD@Z:PROC			; GetStrLastByte
EXTRN	?GetStrWidth@@YAHPAD@Z:PROC			; GetStrWidth
EXTRN	?StockFontBuffer@@YAHHHDHPADH@Z:PROC		; StockFontBuffer
EXTRN	?lssproto_B_send@@YAXHPAD@Z:PROC		; lssproto_B_send
EXTRN	?lssproto_ID_send@@YAXHHHHH@Z:PROC		; lssproto_ID_send
EXTRN	?lssproto_HL_send@@YAXHH@Z:PROC			; lssproto_HL_send
EXTRN	?old_lssproto_B_send@@YAXHPAD@Z:PROC		; old_lssproto_B_send
EXTRN	?old_lssproto_ID_send@@YAXHHHHH@Z:PROC		; old_lssproto_ID_send
EXTRN	?old_lssproto_HL_send@@YAXHH@Z:PROC		; old_lssproto_HL_send
EXTRN	?play_se@@YAHHHH@Z:PROC				; play_se
EXTRN	?MakeWindowDisp@@YAPAUaction@@HHHHHH@Z:PROC	; MakeWindowDisp
EXTRN	?MakeHitBox@@YAHHHHHH@Z:PROC			; MakeHitBox
EXTRN	?CenteringStr@@YAXPAD0H@Z:PROC			; CenteringStr
EXTRN	@_RTC_CheckStackVars@8:PROC
EXTRN	@__security_check_cookie@4:PROC
EXTRN	__RTC_CheckEsp:PROC
EXTRN	__RTC_InitBase:PROC
EXTRN	__RTC_Shutdown:PROC
EXTRN	_memset:PROC
EXTRN	?DISPLACEMENT_X@@3HA:DWORD			; DISPLACEMENT_X
EXTRN	?DISPLACEMENT_Y@@3HA:DWORD			; DISPLACEMENT_Y
EXTRN	?SubProcNo@@3IA:DWORD				; SubProcNo
EXTRN	?p_party@@3PAPAUaction@@A:BYTE			; p_party
EXTRN	?mouse@@3UMOUSE@@A:BYTE				; mouse
EXTRN	?HitFontNo@@3HA:DWORD				; HitFontNo
EXTRN	?HitDispNo@@3HA:DWORD				; HitDispNo
EXTRN	?OneLineInfoStr@@3PADA:BYTE			; OneLineInfoStr
EXTRN	?bNewServer@@3HA:DWORD				; bNewServer
EXTRN	?sockfd@@3IA:DWORD				; sockfd
EXTRN	?pc@@3UPC@@A:BYTE				; pc
EXTRN	?helpFlag@@3FA:WORD				; helpFlag
EXTRN	?magic@@3PAUMAGIC@@A:BYTE			; magic
EXTRN	?pet@@3PAUPET@@A:BYTE				; pet
EXTRN	?petSkill@@3PAY06UPET_SKILL@@A:BYTE		; petSkill
EXTRN	?profession_skill@@3PAUPROFESSION_SKILL@@A:BYTE	; profession_skill
EXTRN	?CG_BATTTLE_SKILLCHOICE@@3HA:DWORD		; CG_BATTTLE_SKILLCHOICE
EXTRN	?CG_BTL_PET_CHANGE_WND@@3HA:DWORD		; CG_BTL_PET_CHANGE_WND
EXTRN	?CG_ITEM_WND_1@@3HA:DWORD			; CG_ITEM_WND_1
EXTRN	?CG_JUJUTU_WND@@3HA:DWORD			; CG_JUJUTU_WND
EXTRN	?CG_PET_WAZA_WND@@3HA:DWORD			; CG_PET_WAZA_WND
EXTRN	?NoHelpFlag@@3HA:DWORD				; NoHelpFlag
EXTRN	?NoCastFlag@@3HA:DWORD				; NoCastFlag
EXTRN	?MenuToggleFlag@@3IA:DWORD			; MenuToggleFlag
EXTRN	?ItemBuffer@@3PAUITEM_BUFFER@@A:BYTE		; ItemBuffer
EXTRN	?nowFloor@@3HA:DWORD				; nowFloor
EXTRN	?nowGx@@3HA:DWORD				; nowGx
EXTRN	?nowGy@@3HA:DWORD				; nowGy
EXTRN	?menuBtn@@3FA:WORD				; menuBtn
EXTRN	?nameOverTheHeadFlag@@3FA:WORD			; nameOverTheHeadFlag
EXTRN	?AI_First@@3HA:DWORD				; AI_First
EXTRN	?BattleSkill@@3PAHA:BYTE			; BattleSkill
EXTRN	?AssitSkill@@3PAHA:BYTE				; AssitSkill
EXTRN	?AdvanceSkill@@3PAHA:BYTE			; AdvanceSkill
EXTRN	___security_cookie:DWORD
EXTRN	__fltused:DWORD
;	COMDAT ?_OptionsStorage@?1??__local_stdio_printf_options@@9@4_KA
_BSS	SEGMENT
?_OptionsStorage@?1??__local_stdio_printf_options@@9@4_KA DQ 01H DUP (?) ; `__local_stdio_printf_options'::`2'::_OptionsStorage
_BSS	ENDS
_BSS	SEGMENT
?battleButtonFlag@@3PAHA DD 0aH DUP (?)			; battleButtonFlag
?battleButtonDispNo@@3PAHA DD 0aH DUP (?)		; battleButtonDispNo
?battleMenuJujutsuFontNo@@3PAHA DD 06H DUP (?)		; battleMenuJujutsuFontNo
?battleMenuItemFontNo@@3PAHA DD 06H DUP (?)		; battleMenuItemFontNo
?battleMenuPetFontNo@@3PAHA DD 07H DUP (?)		; battleMenuPetFontNo
?battleMenuWazaFontNo@@3PAHA DD 09H DUP (?)		; battleMenuWazaFontNo
?pActInfoWnd@@3PAUaction@@A DD 01H DUP (?)		; pActInfoWnd
?buttonX@@3HA DD 01H DUP (?)				; buttonX
?buttonY@@3HA DD 01H DUP (?)				; buttonY
?buttonA@@3HA DD 01H DUP (?)				; buttonA
?AdvanceSkillBtn@@3PAHA DD 01aH DUP (?)			; AdvanceSkillBtn
?AssitSkillBtn@@3PAHA DD 01aH DUP (?)			; AssitSkillBtn
?BattleSkillBtn@@3PAHA DD 01aH DUP (?)			; BattleSkillBtn
_BSS	ENDS
;	COMDAT __real@4044000000000000
CONST	SEGMENT
__real@4044000000000000 DQ 04044000000000000r	; 40
CONST	ENDS
;	COMDAT rtc$TMZ
rtc$TMZ	SEGMENT
__RTC_Shutdown.rtc$TMZ DD FLAT:__RTC_Shutdown
rtc$TMZ	ENDS
;	COMDAT rtc$IMZ
rtc$IMZ	SEGMENT
__RTC_InitBase.rtc$IMZ DD FLAT:__RTC_InitBase
rtc$IMZ	ENDS
;	COMDAT ??_C@_05FNFPHGDP@?$CF?924s?$AA@
CONST	SEGMENT
??_C@_05FNFPHGDP@?$CF?924s?$AA@ DB '%-24s', 00H		; `string'
CONST	ENDS
;	COMDAT ??_C@_03GPCJOALC@?$CF2d?$AA@
CONST	SEGMENT
??_C@_03GPCJOALC@?$CF2d?$AA@ DB '%2d', 00H		; `string'
CONST	ENDS
;	COMDAT ??_C@_01NANMIPIL@N?$AA@
CONST	SEGMENT
??_C@_01NANMIPIL@N?$AA@ DB 'N', 00H			; `string'
CONST	ENDS
;	COMDAT ??_C@_07LFMIBPPD@I?$HM?$CFX?$HM?$CFX?$AA@
CONST	SEGMENT
??_C@_07LFMIBPPD@I?$HM?$CFX?$HM?$CFX?$AA@ DB 'I|%X|%X', 00H ; `string'
CONST	ENDS
;	COMDAT ??_C@_07DLEHBIBA@J?$HM?$CFX?$HM?$CFX?$AA@
CONST	SEGMENT
??_C@_07DLEHBIBA@J?$HM?$CFX?$HM?$CFX?$AA@ DB 'J|%X|%X', 00H ; `string'
CONST	ENDS
;	COMDAT ??_C@_04JJEDCNJK@T?$HM?$CFX?$AA@
CONST	SEGMENT
??_C@_04JJEDCNJK@T?$HM?$CFX?$AA@ DB 'T|%X', 00H		; `string'
CONST	ENDS
;	COMDAT ??_C@_04DMFDFHBJ@H?$HM?$CFX?$AA@
CONST	SEGMENT
??_C@_04DMFDFHBJ@H?$HM?$CFX?$AA@ DB 'H|%X', 00H		; `string'
CONST	ENDS
;	COMDAT ??_C@_0BF@NNNOOJBA@?$LI?q?G?$KF?$LI?$KG?5?$LM?$LB?E?C?5?G?X?A?V?$LM?$LM?$LP?d?$AA@
CONST	SEGMENT
??_C@_0BF@NNNOOJBA@?$LI?q?G?$KF?$LI?$KG?5?$LM?$LB?E?C?5?G?X?A?V?$LM?$LM?$LP?d?$AA@ DB 0b8H
	DB	0f1H, 0c7H, 0a5H, 0b8H, 0a6H, ' ', 0bcH, 0b1H, 0c5H, 0c3H, ' ', 0c7H
	DB	0d8H, 0c1H, 0d6H, 0bcH, 0bcH, 0bfH, 0e4H, 00H ; `string'
CONST	ENDS
;	COMDAT ??_C@_0N@DBNACIMP@?5?5?5?5?5?5?5?$CF?922s?$AA@
CONST	SEGMENT
??_C@_0N@DBNACIMP@?5?5?5?5?5?5?5?$CF?922s?$AA@ DB '       %-22s', 00H ; `string'
CONST	ENDS
;	COMDAT ??_C@_07BDJJCCFL@W?$HMFF?$HMFF?$AA@
CONST	SEGMENT
??_C@_07BDJJCCFL@W?$HMFF?$HMFF?$AA@ DB 'W|FF|FF', 00H	; `string'
CONST	ENDS
;	COMDAT ??_C@_0BC@EMOKBAPI@?$LB?b?$LE?I?$MA?$LL?5?$LL?g?$LP?k?G?O?$LE?Y?$KB?$KD?$AA@
CONST	SEGMENT
??_C@_0BC@EMOKBAPI@?$LB?b?$LE?I?$MA?$LL?5?$LL?g?$LP?k?G?O?$LE?Y?$KB?$KD?$AA@ DB 0b1H
	DB	0e2H, 0b4H, 0c9H, 0c0H, 0bbH, ' ', 0bbH, 0e7H, 0bfH, 0ebH, 0c7H
	DB	0cfH, 0b4H, 0d9H, 0a1H, 0a3H, 00H		; `string'
CONST	ENDS
;	COMDAT ??_C@_07NMPJDMOK@W?$HM?$CFX?$HM?$CFX?$AA@
CONST	SEGMENT
??_C@_07NMPJDMOK@W?$HM?$CFX?$HM?$CFX?$AA@ DB 'W|%X|%X', 00H ; `string'
CONST	ENDS
;	COMDAT ??_C@_07NGDMDFPD@P?$HM?$CFX?$HM?$CFX?$AA@
CONST	SEGMENT
??_C@_07NGDMDFPD@P?$HM?$CFX?$HM?$CFX?$AA@ DB 'P|%X|%X', 00H ; `string'
CONST	ENDS
;	COMDAT ??_C@_06DOILANO@?E?$LL?C?b?$KB?$KD?$AA@
CONST	SEGMENT
??_C@_06DOILANO@?E?$LL?C?b?$KB?$KD?$AA@ DB 0c5H, 0bbH, 0c3H, 0e2H, 0a1H, 0a3H
	DB	00H						; `string'
CONST	ENDS
;	COMDAT ??_C@_01DDCIFGEA@E?$AA@
CONST	SEGMENT
??_C@_01DDCIFGEA@E?$AA@ DB 'E', 00H			; `string'
CONST	ENDS
;	COMDAT ??_C@_0BA@OEIEMLKK@?$CI?$LM?R?$LK?q?G?O?$LE?YMP?3?$CFd?$CJ?$AA@
CONST	SEGMENT
??_C@_0BA@OEIEMLKK@?$CI?$LM?R?$LK?q?G?O?$LE?YMP?3?$CFd?$CJ?$AA@ DB '(', 0bcH
	DB	0d2H, 0baH, 0f1H, 0c7H, 0cfH, 0b4H, 0d9H, 'MP:%d)', 00H ; `string'
CONST	ENDS
;	COMDAT ??_C@_06BPKJHHJO@?5?5?$CFd?$KD?$KF?$AA@
CONST	SEGMENT
??_C@_06BPKJHHJO@?5?5?$CFd?$KD?$KF?$AA@ DB '  %d', 0a3H, 0a5H, 00H ; `string'
CONST	ENDS
;	COMDAT ??_C@_02DKCKIIND@?$CFs?$AA@
CONST	SEGMENT
??_C@_02DKCKIIND@?$CFs?$AA@ DB '%s', 00H		; `string'
CONST	ENDS
;	COMDAT ??_C@_03GHDNOBPC@?$CF8s?$AA@
CONST	SEGMENT
??_C@_03GHDNOBPC@?$CF8s?$AA@ DB '%8s', 00H		; `string'
CONST	ENDS
;	COMDAT ??_C@_08LCIHGOIJ@?A?w?$LO?w?$LB?b?$LE?I?$AA@
CONST	SEGMENT
??_C@_08LCIHGOIJ@?A?w?$LO?w?$LB?b?$LE?I?$AA@ DB 0c1H, 0f7H, 0beH, 0f7H, 0b1H
	DB	0e2H, 0b4H, 0c9H, 00H			; `string'
CONST	ENDS
;	COMDAT ??_C@_00CNPNBAHC@?$AA@
CONST	SEGMENT
??_C@_00CNPNBAHC@?$AA@ DB 00H				; `string'
CONST	ENDS
;	COMDAT ??_C@_0BF@FCDGFJJJ@?G?C?$LH?$LJ?$MA?L?$LO?n?$LA?$KB?5?$LO?x?$LE?B?5?F?d?F?$KO?$AA@
CONST	SEGMENT
??_C@_0BF@FCDGFJJJ@?G?C?$LH?$LJ?$MA?L?$LO?n?$LA?$KB?5?$LO?x?$LE?B?5?F?d?F?$KO?$AA@ DB 0c7H
	DB	0c3H, 0b7H, 0b9H, 0c0H, 0ccH, 0beH, 0eeH, 0b0H, 0a1H, ' ', 0beH
	DB	0f8H, 0b4H, 0c2H, ' ', 0c6H, 0e4H, 0c6H, 0aeH, 00H ; `string'
CONST	ENDS
;	COMDAT ??_C@_0BH@KGEJIJPJ@?$CF?93d?5?5?5?5?5?5?5?5?5?$CF5d?5?5?5?$CF5d?$AA@
CONST	SEGMENT
??_C@_0BH@KGEJIJPJ@?$CF?93d?5?5?5?5?5?5?5?5?5?$CF5d?5?5?5?$CF5d?$AA@ DB '%'
	DB	'-3d         %5d   %5d', 00H			; `string'
CONST	ENDS
;	COMDAT ??_C@_06ELKFHEJ@?C?f?3?$CF3d?$AA@
CONST	SEGMENT
??_C@_06ELKFHEJ@?C?f?3?$CF3d?$AA@ DB 0c3H, 0e6H, ':%3d', 00H ; `string'
CONST	ENDS
;	COMDAT ??_C@_04JBEPHANM@S?$HM?91?$AA@
CONST	SEGMENT
??_C@_04JBEPHANM@S?$HM?91?$AA@ DB 'S|-1', 00H		; `string'
CONST	ENDS
;	COMDAT ??_C@_04FIJAIIHF@S?$HM?$CFd?$AA@
CONST	SEGMENT
??_C@_04FIJAIIHF@S?$HM?$CFd?$AA@ DB 'S|%d', 00H		; `string'
CONST	ENDS
;	COMDAT ??_C@_0L@CJKKBEMM@?F?d?F?$KO?$LB?$LD?C?$LM?$KB?$KD?$AA@
CONST	SEGMENT
??_C@_0L@CJKKBEMM@?F?d?F?$KO?$LB?$LD?C?$LM?$KB?$KD?$AA@ DB 0c6H, 0e4H, 0c6H
	DB	0aeH, 0b1H, 0b3H, 0c3H, 0bcH, 0a1H, 0a3H, 00H ; `string'
CONST	ENDS
;	COMDAT ??_C@_0CA@ELBOPCEK@?$MA?$PM?E?u?5?A?$NP?5?$LO?V?$LP?O?$LF?$LP?$LJ?$LA?5?$MA?e?$LK?q?5?$LB?$LD?C?$LM?5?$LK?R?$LA?$KB?$AA@
CONST	SEGMENT
??_C@_0CA@ELBOPCEK@?$MA?$PM?E?u?5?A?$NP?5?$LO?V?$LP?O?$LF?$LP?$LJ?$LA?5?$MA?e?$LK?q?5?$LB?$LD?C?$LM?5?$LK?R?$LA?$KB?$AA@ DB 0c0H
	DB	0fcH, 0c5H, 0f5H, ' ', 0c1H, 0dfH, ' ', 0beH, 0d6H, 0bfH, 0cfH
	DB	0b5H, 0bfH, 0b9H, 0b0H, ' ', 0c0H, 0e5H, 0baH, 0f1H, ' ', 0b1H
	DB	0b3H, 0c3H, 0bcH, ' ', 0baH, 0d2H, 0b0H, 0a1H, 00H ; `string'
CONST	ENDS
;	COMDAT ??_C@_08CJOHOOE@?$LO?F?$MA?L?E?$NL?$KB?$KD?$AA@
CONST	SEGMENT
??_C@_08CJOHOOE@?$LO?F?$MA?L?E?$NL?$KB?$KD?$AA@ DB 0beH, 0c6H, 0c0H, 0ccH
	DB	0c5H, 0dbH, 0a1H, 0a3H, 00H			; `string'
CONST	ENDS
;	COMDAT ??_C@_06NDKEIKGO@?$LJ?f?$LO?n?$KB?$KD?$AA@
CONST	SEGMENT
??_C@_06NDKEIKGO@?$LJ?f?$LO?n?$KB?$KD?$AA@ DB 0b9H, 0e6H, 0beH, 0eeH, 0a1H
	DB	0a3H, 00H					; `string'
CONST	ENDS
;	COMDAT ??_C@_01BBODEMC@G?$AA@
CONST	SEGMENT
??_C@_01BBODEMC@G?$AA@ DB 'G', 00H			; `string'
CONST	ENDS
;	COMDAT ??_C@_06EBHMOCNH@HELP?$KB?$KD?$AA@
CONST	SEGMENT
??_C@_06EBHMOCNH@HELP?$KB?$KD?$AA@ DB 'HELP', 0a1H, 0a3H, 00H ; `string'
CONST	ENDS
;	COMDAT ??_C@_0L@OPNNNOMC@?F?w?H?$LJ?G?O?$LE?Y?$KB?$KD?$AA@
CONST	SEGMENT
??_C@_0L@OPNNNOMC@?F?w?H?$LJ?G?O?$LE?Y?$KB?$KD?$AA@ DB 0c6H, 0f7H, 0c8H, 0b9H
	DB	0c7H, 0cfH, 0b4H, 0d9H, 0a1H, 0a3H, 00H	; `string'
CONST	ENDS
;	COMDAT ??_C@_0CK@LMOADLH@?F?d?F?$KO?C?$KC?$MA?L?5?$LC?K?5?B?w?$LM?$KN?5?$LE?u?$MA?L?$LL?s?5?F?w?H?$LJ?G?R?$LM?v@
CONST	SEGMENT
??_C@_0CK@LMOADLH@?F?d?F?$KO?C?$KC?$MA?L?5?$LC?K?5?B?w?$LM?$KN?5?$LE?u?$MA?L?$LL?s?5?F?w?H?$LJ?G?R?$LM?v@ DB 0c6H
	DB	0e4H, 0c6H, 0aeH, 0c3H, 0a2H, 0c0H, 0ccH, ' ', 0b2H, 0cbH, ' ', 0c2H
	DB	0f7H, 0bcH, 0adH, ' ', 0b4H, 0f5H, 0c0H, 0ccH, 0bbH, 0f3H, ' ', 0c6H
	DB	0f7H, 0c8H, 0b9H, 0c7H, 0d2H, 0bcH, 0f6H, ' ', 0beH, 0f8H, 0beH
	DB	0eeH, 0bfH, 0e4H, 0a1H, 0a3H, 00H		; `string'
CONST	ENDS
;	COMDAT ??_C@_0BA@BODGMCMN@?A?V?$LM?z?$MA?L?5?$LO?x?$LN?$MA?$LE?O?$LE?Y?$AA@
CONST	SEGMENT
??_C@_0BA@BODGMCMN@?A?V?$LM?z?$MA?L?5?$LO?x?$LN?$MA?$LE?O?$LE?Y?$AA@ DB 0c1H
	DB	0d6H, 0bcH, 0faH, 0c0H, 0ccH, ' ', 0beH, 0f8H, 0bdH, 0c0H, 0b4H
	DB	0cfH, 0b4H, 0d9H, 00H			; `string'
CONST	ENDS
;	COMDAT ??_C@_07HFNBMNBH@?$CF2d?1?$CF2d?$AA@
CONST	SEGMENT
??_C@_07HFNBMNBH@?$CF2d?1?$CF2d?$AA@ DB '%2d/%2d', 00H	; `string'
CONST	ENDS
;	COMDAT ??_C@_0CJ@HJBAPDHB@?D?$KH?$LJ?$KM?$LL?s?E?B?$LP?$KB?$LM?$KN?$LE?B?5?A?V?$LM?z?$MA?$LL?5?$LL?g?$LP?k?G?R?$LM?v?$LO?x@
CONST	SEGMENT
??_C@_0CJ@HJBAPDHB@?D?$KH?$LJ?$KM?$LL?s?E?B?$LP?$KB?$LM?$KN?$LE?B?5?A?V?$LM?z?$MA?$LL?5?$LL?g?$LP?k?G?R?$LM?v?$LO?x@ DB 0c4H
	DB	0a7H, 0b9H, 0acH, 0bbH, 0f3H, 0c5H, 0c2H, 0bfH, 0a1H, 0bcH, 0adH
	DB	0b4H, 0c2H, ' ', 0c1H, 0d6H, 0bcH, 0faH, 0c0H, 0bbH, ' ', 0bbH
	DB	0e7H, 0bfH, 0ebH, 0c7H, 0d2H, 0bcH, 0f6H, 0beH, 0f8H, 0bdH, 0c0H
	DB	0b4H, 0cfH, 0b4H, 0d9H, 0a1H, 0a3H, 00H	; `string'
CONST	ENDS
;	COMDAT ??_C@_0BC@GBLBFMBP@?A?V?$LM?z?$MA?$LL?5?$LL?g?$LP?k?G?O?$LE?Y?$KB?$KD?$AA@
CONST	SEGMENT
??_C@_0BC@GBLBFMBP@?A?V?$LM?z?$MA?$LL?5?$LL?g?$LP?k?G?O?$LE?Y?$KB?$KD?$AA@ DB 0c1H
	DB	0d6H, 0bcH, 0faH, 0c0H, 0bbH, ' ', 0bbH, 0e7H, 0bfH, 0ebH, 0c7H
	DB	0cfH, 0b4H, 0d9H, 0a1H, 0a3H, 00H		; `string'
CONST	ENDS
;	COMDAT ??_C@_0L@BHJLNCHD@?$LA?x?$LA?$NN?G?O?$LE?Y?$KB?$KD?$AA@
CONST	SEGMENT
??_C@_0L@BHJLNCHD@?$LA?x?$LA?$NN?G?O?$LE?Y?$KB?$KD?$AA@ DB 0b0H, 0f8H, 0b0H
	DB	0ddH, 0c7H, 0cfH, 0b4H, 0d9H, 0a1H, 0a3H, 00H ; `string'
CONST	ENDS
;	COMDAT ??_C@_08NJBMJDFM@HP?3?$CFd?1?$CFd?$AA@
CONST	SEGMENT
??_C@_08NJBMJDFM@HP?3?$CFd?1?$CFd?$AA@ DB 'HP:%d/%d', 00H ; `string'
CONST	ENDS
;	COMDAT ??_C@_08JCHLGOEH@?$CFs?5Lv?3?$CFd?$AA@
CONST	SEGMENT
??_C@_08JCHLGOEH@?$CFs?5Lv?3?$CFd?$AA@ DB '%s Lv:%d', 00H ; `string'
CONST	ENDS
; Function compile flags: /Odtp /RTCsu /ZI
; File c:\program files (x86)\microsoft visual studio 14.0\vc\include\vadefs.h
;	COMDAT ??$__vcrt_va_start_verify_argument_type@PBD@@YAXXZ
_TEXT	SEGMENT
??$__vcrt_va_start_verify_argument_type@PBD@@YAXXZ PROC	; __vcrt_va_start_verify_argument_type<char const *>, COMDAT

; 144  :         {

  00000	55		 push	 ebp
  00001	8b ec		 mov	 ebp, esp
  00003	81 ec c0 00 00
	00		 sub	 esp, 192		; 000000c0H
  00009	53		 push	 ebx
  0000a	56		 push	 esi
  0000b	57		 push	 edi
  0000c	8d bd 40 ff ff
	ff		 lea	 edi, DWORD PTR [ebp-192]
  00012	b9 30 00 00 00	 mov	 ecx, 48			; 00000030H
  00017	b8 cc cc cc cc	 mov	 eax, -858993460		; ccccccccH
  0001c	f3 ab		 rep stosd

; 145  :             static_assert(!__vcrt_va_list_is_reference<_Ty>::__the_value, "va_start argument must not have reference type and must not be parenthesized");
; 146  :         }

  0001e	5f		 pop	 edi
  0001f	5e		 pop	 esi
  00020	5b		 pop	 ebx
  00021	8b e5		 mov	 esp, ebp
  00023	5d		 pop	 ebp
  00024	c3		 ret	 0
??$__vcrt_va_start_verify_argument_type@PBD@@YAXXZ ENDP	; __vcrt_va_start_verify_argument_type<char const *>
_TEXT	ENDS
; Function compile flags: /Odtp /RTCsu /ZI
; File c:\users\administrator\desktop\????? ??\????? ??\client source code\system\battlemenu.cpp
;	COMDAT ?CloseInfoWnd@@YAXXZ
_TEXT	SEGMENT
?CloseInfoWnd@@YAXXZ PROC				; CloseInfoWnd, COMDAT

; 3766 : {

  00000	55		 push	 ebp
  00001	8b ec		 mov	 ebp, esp
  00003	81 ec c0 00 00
	00		 sub	 esp, 192		; 000000c0H
  00009	53		 push	 ebx
  0000a	56		 push	 esi
  0000b	57		 push	 edi
  0000c	8d bd 40 ff ff
	ff		 lea	 edi, DWORD PTR [ebp-192]
  00012	b9 30 00 00 00	 mov	 ecx, 48			; 00000030H
  00017	b8 cc cc cc cc	 mov	 eax, -858993460		; ccccccccH
  0001c	f3 ab		 rep stosd

; 3767 : 	if( pActInfoWnd){

  0001e	83 3d 00 00 00
	00 00		 cmp	 DWORD PTR ?pActInfoWnd@@3PAUaction@@A, 0
  00025	74 18		 je	 SHORT $LN1@CloseInfoW

; 3768 : 		DeathAction( pActInfoWnd);

  00027	a1 00 00 00 00	 mov	 eax, DWORD PTR ?pActInfoWnd@@3PAUaction@@A
  0002c	50		 push	 eax
  0002d	e8 00 00 00 00	 call	 ?DeathAction@@YAXPAUaction@@@Z ; DeathAction
  00032	83 c4 04	 add	 esp, 4

; 3769 : 		pActInfoWnd = NULL;

  00035	c7 05 00 00 00
	00 00 00 00 00	 mov	 DWORD PTR ?pActInfoWnd@@3PAUaction@@A, 0
$LN1@CloseInfoW:

; 3770 : 	}
; 3771 : }

  0003f	5f		 pop	 edi
  00040	5e		 pop	 esi
  00041	5b		 pop	 ebx
  00042	81 c4 c0 00 00
	00		 add	 esp, 192		; 000000c0H
  00048	3b ec		 cmp	 ebp, esp
  0004a	e8 00 00 00 00	 call	 __RTC_CheckEsp
  0004f	8b e5		 mov	 esp, ebp
  00051	5d		 pop	 ebp
  00052	c3		 ret	 0
?CloseInfoWnd@@YAXXZ ENDP				; CloseInfoWnd
_TEXT	ENDS
; Function compile flags: /Odtp /RTCsu /ZI
; File c:\users\administrator\desktop\????? ??\????? ??\client source code\system\battlemenu.cpp
;	COMDAT ?BattleCntDownDisp@@YAXXZ
_TEXT	SEGMENT
_BattleCntDownRest$ = -84				; size = 4
_i$ = -72						; size = 4
_y$ = -60						; size = 4
_x$ = -48						; size = 4
_work$ = -36						; size = 4
_moji$ = -24						; size = 16
__$ArrayPad$ = -4					; size = 4
?BattleCntDownDisp@@YAXXZ PROC				; BattleCntDownDisp, COMDAT

; 3232 : {

  00000	55		 push	 ebp
  00001	8b ec		 mov	 ebp, esp
  00003	81 ec 18 01 00
	00		 sub	 esp, 280		; 00000118H
  00009	53		 push	 ebx
  0000a	56		 push	 esi
  0000b	57		 push	 edi
  0000c	8d bd e8 fe ff
	ff		 lea	 edi, DWORD PTR [ebp-280]
  00012	b9 46 00 00 00	 mov	 ecx, 70			; 00000046H
  00017	b8 cc cc cc cc	 mov	 eax, -858993460		; ccccccccH
  0001c	f3 ab		 rep stosd
  0001e	a1 00 00 00 00	 mov	 eax, DWORD PTR ___security_cookie
  00023	33 c5		 xor	 eax, ebp
  00025	89 45 fc	 mov	 DWORD PTR __$ArrayPad$[ebp], eax

; 3233 : 	char moji[ 16 ];
; 3234 : 	char *work = moji;

  00028	8d 45 e8	 lea	 eax, DWORD PTR _moji$[ebp]
  0002b	89 45 dc	 mov	 DWORD PTR _work$[ebp], eax

; 3235 : 	int x = 320 - 16 + DISPLACEMENT_X / 2;

  0002e	a1 00 00 00 00	 mov	 eax, DWORD PTR ?DISPLACEMENT_X@@3HA ; DISPLACEMENT_X
  00033	99		 cdq
  00034	2b c2		 sub	 eax, edx
  00036	d1 f8		 sar	 eax, 1
  00038	05 30 01 00 00	 add	 eax, 304		; 00000130H
  0003d	89 45 d0	 mov	 DWORD PTR _x$[ebp], eax

; 3236 : 	int y = 240 + DISPLACEMENT_Y / 2;

  00040	a1 00 00 00 00	 mov	 eax, DWORD PTR ?DISPLACEMENT_Y@@3HA ; DISPLACEMENT_Y
  00045	99		 cdq
  00046	2b c2		 sub	 eax, edx
  00048	d1 f8		 sar	 eax, 1
  0004a	05 f0 00 00 00	 add	 eax, 240		; 000000f0H
  0004f	89 45 c4	 mov	 DWORD PTR _y$[ebp], eax

; 3237 : 	int i;
; 3238 : 	// ???
; 3239 : 
; 3240 : 	int BattleCntDownRest = BattleCntDown - TimeGetTime();

  00052	e8 00 00 00 00	 call	 ?TimeGetTime@@YAIXZ	; TimeGetTime
  00057	8b 0d 00 00 00
	00		 mov	 ecx, DWORD PTR ?BattleCntDown@@3KA ; BattleCntDown
  0005d	2b c8		 sub	 ecx, eax
  0005f	89 4d ac	 mov	 DWORD PTR _BattleCntDownRest$[ebp], ecx

; 3241 : 	// ???????
; 3242 : 	if( BattleCntDownFlag == FALSE ) return;

  00062	83 3d 00 00 00
	00 00		 cmp	 DWORD PTR ?BattleCntDownFlag@@3HA, 0 ; BattleCntDownFlag
  00069	75 05		 jne	 SHORT $LN5@BattleCntD
  0006b	e9 0f 02 00 00	 jmp	 $LN1@BattleCntD
$LN5@BattleCntD:

; 3243 : 
; 3244 : 	// ?????????
; 3245 : /*//人物ai
; 3246 : #ifndef __AI
; 3247 : 	//cary 自动战斗
; 3248 : 	if( AI!=AI_NONE && !PauseAI){
; 3249 : 		if( battleMenuFlag&BATTLE_MENU && battleTargetSelectFlag){
; 3250 : 			if( (BattleIntervalCnt==0 && BattleCntDownRest<=28000) || (BattleIntervalCnt!=0 && BattleIntervalCnt<TimeGetTime())){
; 3251 : 				BattleIntervalCnt = TimeGetTime()+500;
; 3252 : 				// ??????
; 3253 : 				int targetNo = GetBattelTarget();
; 3254 : 				char moji[256];
; 3255 : 				sprintf( moji, "H|%X", targetNo );
; 3256 : 				// ??
; 3257 : 				if( bNewServer)
; 3258 : 					lssproto_B_send( sockfd, moji );
; 3259 : 				else
; 3260 : 					old_lssproto_B_send( sockfd, moji );
; 3261 : 				battleTargetSelectFlag = FALSE;
; 3262 : 				battleMenuReturn = TRUE;
; 3263 : 				// ????????
; 3264 : 				play_se( 203, 320, 240 );
; 3265 : 				// ????????
; 3266 : 				battleButtonBak = battleButtonBak2;
; 3267 : 				// ???????????????
; 3268 : 				if( pActInfoWnd){
; 3269 : 					DeathAction( pActInfoWnd );
; 3270 : 					pActInfoWnd = NULL;
; 3271 : 				}
; 3272 : 			}
; 3273 : 		}else if( battleMenuFlag&BATTLE_MENU_PET && battleTargetSelectFlag){
; 3274 : 			if( (BattleIntervalCnt==0 && BattleCntDownRest<=28000) || BattleIntervalCnt<TimeGetTime()){
; 3275 : 				int no;
; 3276 : 				int targetNo = GetBattelTarget();
; 3277 : 				char moji[256];
; 3278 : 				switch( petSkill[ battlePetNoBak ][ BattleWazaNo ].target ){
; 3279 : 				case PETSKILL_TARGET_MYSELF:				// ??
; 3280 : 				case PETSKILL_TARGET_OTHER:					// ????)
; 3281 : 				case PETSKILL_TARGET_OTHERWITHOUTMYSELF:	// ??????) 
; 3282 : 				case PETSKILL_TARGET_WITHOUTMYSELFANDPET:	// ??????
; 3283 : 					// ???
; 3284 : 					sprintf( moji,"W|%X|%X", BattleWazaNo, targetNo );
; 3285 : 					// ??
; 3286 : 					if( bNewServer)
; 3287 : 						lssproto_B_send( sockfd, moji );
; 3288 : 					else
; 3289 : 						old_lssproto_B_send( sockfd, moji );
; 3290 : 					// ?????
; 3291 : 					play_se( 217, 320, 240 );
; 3292 : 					break;
; 3293 : 					
; 3294 : 				case PETSKILL_TARGET_ALLMYSIDE:	// 
; 3295 : 					// ????????
; 3296 : 					if( BattleMyNo < 10 ) no = 20;
; 3297 : 					else no = 21;
; 3298 : 					// ???
; 3299 : 					sprintf( moji,"W|%X|%X", BattleWazaNo, no );
; 3300 : 					// ??
; 3301 : 					if( bNewServer)
; 3302 : 						lssproto_B_send( sockfd, moji );
; 3303 : 					else
; 3304 : 						old_lssproto_B_send( sockfd, moji );
; 3305 : 					// ?????
; 3306 : 					play_se( 217, 320, 240 );
; 3307 : 					break;
; 3308 : 					
; 3309 : 				case PETSKILL_TARGET_ALLOTHERSIDE:	// ?
; 3310 : 					// ????????
; 3311 : 					if( BattleMyNo < 10 ) no = 21;
; 3312 : 					else no = 20;
; 3313 : 					// ???
; 3314 : 					sprintf( moji,"W|%X|%X", BattleWazaNo, no );
; 3315 : 					// ??
; 3316 : 					if( bNewServer)
; 3317 : 						lssproto_B_send( sockfd, moji );
; 3318 : 					else
; 3319 : 						old_lssproto_B_send( sockfd, moji );
; 3320 : 					// ?????
; 3321 : 					play_se( 217, 320, 240 );
; 3322 : 					break;
; 3323 : 					
; 3324 : 				case PETSKILL_TARGET_ALL:	// ?
; 3325 : 					// ???
; 3326 : 					sprintf( moji,"W|%X|%X", BattleWazaNo, 22 );
; 3327 : 					// ??
; 3328 : 					if( bNewServer)
; 3329 : 						lssproto_B_send( sockfd, moji );
; 3330 : 					else
; 3331 : 						old_lssproto_B_send( sockfd, moji );
; 3332 : 					// ?????
; 3333 : 					play_se( 217, 320, 240 );
; 3334 : 					break;
; 3335 : 				}
; 3336 : 				// ??????
; 3337 : 				battleTargetSelectFlag = FALSE;
; 3338 : 				battleMenuReturn = TRUE;
; 3339 : 				// ????????
; 3340 : 				play_se( 203, 320, 240 );
; 3341 : 				// ????????
; 3342 : 				battleButtonBak = battleButtonBak2;
; 3343 : 				// ???????????????
; 3344 : 				if( pActInfoWnd){
; 3345 : 					DeathAction( pActInfoWnd );
; 3346 : 					pActInfoWnd = NULL;
; 3347 : 				}
; 3348 : 			}
; 3349 : 		}
; 3350 : 	}
; 3351 : #endif
; 3352 : */
; 3353 : 
; 3354 : 	if( BattleCntDownRest <= 0 ){

  00070	83 7d ac 00	 cmp	 DWORD PTR _BattleCntDownRest$[ebp], 0
  00074	0f 8f 90 01 00
	00		 jg	 $LN6@BattleCntD

; 3355 : 		// ??????
; 3356 : 		BattleCntDownFlag = FALSE;

  0007a	c7 05 00 00 00
	00 00 00 00 00	 mov	 DWORD PTR ?BattleCntDownFlag@@3HA, 0 ; BattleCntDownFlag

; 3357 : 		BattleCntDownRest = 0;

  00084	c7 45 ac 00 00
	00 00		 mov	 DWORD PTR _BattleCntDownRest$[ebp], 0

; 3358 : 		// ????????
; 3359 : 		ClearBoxFlag();

  0008b	e8 00 00 00 00	 call	 ?ClearBoxFlag@@YAXXZ	; ClearBoxFlag

; 3360 : 		// ???????????
; 3361 : 		DeathAction( pActWnd );

  00090	a1 00 00 00 00	 mov	 eax, DWORD PTR ?pActWnd@@3PAUaction@@A
  00095	50		 push	 eax
  00096	e8 00 00 00 00	 call	 ?DeathAction@@YAXPAUaction@@@Z ; DeathAction
  0009b	83 c4 04	 add	 esp, 4

; 3362 : 		// ????????????
; 3363 : 		pActWnd = NULL;				

  0009e	c7 05 00 00 00
	00 00 00 00 00	 mov	 DWORD PTR ?pActWnd@@3PAUaction@@A, 0

; 3364 : 		// ?????????
; 3365 : 		ClearBattleButton();

  000a8	e8 00 00 00 00	 call	 ?ClearBattleButton@@YAXXZ ; ClearBattleButton

; 3366 : 		// ?????????????????
; 3367 : 
; 3368 : 		if( battleMenuFlag & BATTLE_MENU && battleMenuReturn == FALSE ){

  000ad	a1 00 00 00 00	 mov	 eax, DWORD PTR ?battleMenuFlag@@3HA ; battleMenuFlag
  000b2	83 e0 01	 and	 eax, 1
  000b5	0f 84 8e 00 00
	00		 je	 $LN7@BattleCntD
  000bb	83 3d 00 00 00
	00 00		 cmp	 DWORD PTR ?battleMenuReturn@@3HA, 0
  000c2	0f 85 81 00 00
	00		 jne	 $LN7@BattleCntD

; 3369 : 			// ???????????
; 3370 : 			if( bNewServer)

  000c8	83 3d 00 00 00
	00 00		 cmp	 DWORD PTR ?bNewServer@@3HA, 0 ; bNewServer
  000cf	74 15		 je	 SHORT $LN9@BattleCntD

; 3371 : 				lssproto_B_send( sockfd, "N" );

  000d1	68 00 00 00 00	 push	 OFFSET ??_C@_01NANMIPIL@N?$AA@
  000d6	a1 00 00 00 00	 mov	 eax, DWORD PTR ?sockfd@@3IA ; sockfd
  000db	50		 push	 eax
  000dc	e8 00 00 00 00	 call	 ?lssproto_B_send@@YAXHPAD@Z ; lssproto_B_send
  000e1	83 c4 08	 add	 esp, 8

; 3372 : 			else

  000e4	eb 13		 jmp	 SHORT $LN10@BattleCntD
$LN9@BattleCntD:

; 3373 : 				old_lssproto_B_send( sockfd, "N" );

  000e6	68 00 00 00 00	 push	 OFFSET ??_C@_01NANMIPIL@N?$AA@
  000eb	a1 00 00 00 00	 mov	 eax, DWORD PTR ?sockfd@@3IA ; sockfd
  000f0	50		 push	 eax
  000f1	e8 00 00 00 00	 call	 ?old_lssproto_B_send@@YAXHPAD@Z ; old_lssproto_B_send
  000f6	83 c4 08	 add	 esp, 8
$LN10@BattleCntD:

; 3374 : 			// ?????????????????
; 3375 : 			if( battlePetNoBak == -1 || 

  000f9	83 3d 00 00 00
	00 ff		 cmp	 DWORD PTR ?battlePetNoBak@@3HA, -1 ; battlePetNoBak
  00100	74 12		 je	 SHORT $LN13@BattleCntD
  00102	a1 00 00 00 00	 mov	 eax, DWORD PTR ?BattleMyNo@@3HA ; BattleMyNo
  00107	8b 0c 85 14 00
	00 00		 mov	 ecx, DWORD PTR ?p_party@@3PAPAUaction@@A[eax*4+20]
  0010e	83 79 78 00	 cmp	 DWORD PTR [ecx+120], 0
  00112	7f 02		 jg	 SHORT $LN11@BattleCntD
$LN13@BattleCntD:

; 3376 : 				p_party[ BattleMyNo + 5 ]->hp <= 0 ){
; 3377 : 				// ??????
; 3378 : 			}else{

  00114	eb 31		 jmp	 SHORT $LN12@BattleCntD
$LN11@BattleCntD:

; 3379 : 				// ??????????
; 3380 : 				if( bNewServer)

  00116	83 3d 00 00 00
	00 00		 cmp	 DWORD PTR ?bNewServer@@3HA, 0 ; bNewServer
  0011d	74 15		 je	 SHORT $LN14@BattleCntD

; 3381 : 					lssproto_B_send( sockfd, "W|FF|FF" );

  0011f	68 00 00 00 00	 push	 OFFSET ??_C@_07BDJJCCFL@W?$HMFF?$HMFF?$AA@
  00124	a1 00 00 00 00	 mov	 eax, DWORD PTR ?sockfd@@3IA ; sockfd
  00129	50		 push	 eax
  0012a	e8 00 00 00 00	 call	 ?lssproto_B_send@@YAXHPAD@Z ; lssproto_B_send
  0012f	83 c4 08	 add	 esp, 8

; 3382 : 				else

  00132	eb 13		 jmp	 SHORT $LN12@BattleCntD
$LN14@BattleCntD:

; 3383 : 					old_lssproto_B_send( sockfd, "W|FF|FF" );

  00134	68 00 00 00 00	 push	 OFFSET ??_C@_07BDJJCCFL@W?$HMFF?$HMFF?$AA@
  00139	a1 00 00 00 00	 mov	 eax, DWORD PTR ?sockfd@@3IA ; sockfd
  0013e	50		 push	 eax
  0013f	e8 00 00 00 00	 call	 ?old_lssproto_B_send@@YAXHPAD@Z ; old_lssproto_B_send
  00144	83 c4 08	 add	 esp, 8
$LN12@BattleCntD:

; 3384 : 			}
; 3385 : 		}else{

  00147	eb 74		 jmp	 SHORT $LN8@BattleCntD
$LN7@BattleCntD:

; 3386 : 			// ????????
; 3387 : 			if( ( battleMenuFlag & BATTLE_MENU && battleMenuReturn == TRUE ) ||

  00149	a1 00 00 00 00	 mov	 eax, DWORD PTR ?battleMenuFlag@@3HA ; battleMenuFlag
  0014e	83 e0 01	 and	 eax, 1
  00151	74 09		 je	 SHORT $LN18@BattleCntD
  00153	83 3d 00 00 00
	00 01		 cmp	 DWORD PTR ?battleMenuReturn@@3HA, 1
  0015a	74 13		 je	 SHORT $LN17@BattleCntD
$LN18@BattleCntD:
  0015c	a1 00 00 00 00	 mov	 eax, DWORD PTR ?battleMenuFlag@@3HA ; battleMenuFlag
  00161	83 e0 02	 and	 eax, 2
  00164	74 57		 je	 SHORT $LN8@BattleCntD
  00166	83 3d 00 00 00
	00 00		 cmp	 DWORD PTR ?battleMenuReturn@@3HA, 0
  0016d	75 4e		 jne	 SHORT $LN8@BattleCntD
$LN17@BattleCntD:

; 3388 : 				( battleMenuFlag & BATTLE_MENU_PET && battleMenuReturn == FALSE ) ){ 
; 3389 : 				// ?????????????????
; 3390 : 				if( battlePetNoBak == -1 || 

  0016f	83 3d 00 00 00
	00 ff		 cmp	 DWORD PTR ?battlePetNoBak@@3HA, -1 ; battlePetNoBak
  00176	74 12		 je	 SHORT $LN21@BattleCntD
  00178	a1 00 00 00 00	 mov	 eax, DWORD PTR ?BattleMyNo@@3HA ; BattleMyNo
  0017d	8b 0c 85 14 00
	00 00		 mov	 ecx, DWORD PTR ?p_party@@3PAPAUaction@@A[eax*4+20]
  00184	83 79 78 00	 cmp	 DWORD PTR [ecx+120], 0
  00188	7f 02		 jg	 SHORT $LN19@BattleCntD
$LN21@BattleCntD:

; 3391 : 					p_party[ BattleMyNo + 5 ]->hp <= 0 ){
; 3392 : 					// ??????
; 3393 : 				}else{

  0018a	eb 31		 jmp	 SHORT $LN8@BattleCntD
$LN19@BattleCntD:

; 3394 : 					// ??????????
; 3395 : 					if( bNewServer)

  0018c	83 3d 00 00 00
	00 00		 cmp	 DWORD PTR ?bNewServer@@3HA, 0 ; bNewServer
  00193	74 15		 je	 SHORT $LN22@BattleCntD

; 3396 : 						lssproto_B_send( sockfd, "W|FF|FF" );

  00195	68 00 00 00 00	 push	 OFFSET ??_C@_07BDJJCCFL@W?$HMFF?$HMFF?$AA@
  0019a	a1 00 00 00 00	 mov	 eax, DWORD PTR ?sockfd@@3IA ; sockfd
  0019f	50		 push	 eax
  001a0	e8 00 00 00 00	 call	 ?lssproto_B_send@@YAXHPAD@Z ; lssproto_B_send
  001a5	83 c4 08	 add	 esp, 8

; 3397 : 					else

  001a8	eb 13		 jmp	 SHORT $LN8@BattleCntD
$LN22@BattleCntD:

; 3398 : 						old_lssproto_B_send( sockfd, "W|FF|FF" );

  001aa	68 00 00 00 00	 push	 OFFSET ??_C@_07BDJJCCFL@W?$HMFF?$HMFF?$AA@
  001af	a1 00 00 00 00	 mov	 eax, DWORD PTR ?sockfd@@3IA ; sockfd
  001b4	50		 push	 eax
  001b5	e8 00 00 00 00	 call	 ?old_lssproto_B_send@@YAXHPAD@Z ; old_lssproto_B_send
  001ba	83 c4 08	 add	 esp, 8
$LN8@BattleCntD:

; 3399 : 				}
; 3400 : 			}
; 3401 : 		}
; 3402 : 		// ??????
; 3403 : 		battleTargetSelectFlag = FALSE;

  001bd	c7 05 00 00 00
	00 00 00 00 00	 mov	 DWORD PTR ?battleTargetSelectFlag@@3HA, 0

; 3404 : 		battleMenuReturn = TRUE;

  001c7	c7 05 00 00 00
	00 01 00 00 00	 mov	 DWORD PTR ?battleMenuReturn@@3HA, 1

; 3405 : 		// ????????
; 3406 : 		play_se( 203, 320, 240 );

  001d1	68 f0 00 00 00	 push	 240			; 000000f0H
  001d6	68 40 01 00 00	 push	 320			; 00000140H
  001db	68 cb 00 00 00	 push	 203			; 000000cbH
  001e0	e8 00 00 00 00	 call	 ?play_se@@YAHHHH@Z	; play_se
  001e5	83 c4 0c	 add	 esp, 12			; 0000000cH

; 3407 : 		// ????????
; 3408 : 		battleButtonBak = battleButtonBak2;

  001e8	a1 00 00 00 00	 mov	 eax, DWORD PTR ?battleButtonBak2@@3HA
  001ed	a3 00 00 00 00	 mov	 DWORD PTR ?battleButtonBak@@3HA, eax ; battleButtonBak

; 3409 : 		// ???????????????
; 3410 : 		DeathAction( pActInfoWnd );

  001f2	a1 00 00 00 00	 mov	 eax, DWORD PTR ?pActInfoWnd@@3PAUaction@@A
  001f7	50		 push	 eax
  001f8	e8 00 00 00 00	 call	 ?DeathAction@@YAXPAUaction@@@Z ; DeathAction
  001fd	83 c4 04	 add	 esp, 4

; 3411 : 		pActInfoWnd = NULL;

  00200	c7 05 00 00 00
	00 00 00 00 00	 mov	 DWORD PTR ?pActInfoWnd@@3PAUaction@@A, 0
$LN6@BattleCntD:

; 3412 : 	}
; 3413 : 
; 3414 : 	sprintf( moji, "%2d", BattleCntDownRest / 1000 );

  0020a	8b 45 ac	 mov	 eax, DWORD PTR _BattleCntDownRest$[ebp]
  0020d	99		 cdq
  0020e	b9 e8 03 00 00	 mov	 ecx, 1000		; 000003e8H
  00213	f7 f9		 idiv	 ecx
  00215	50		 push	 eax
  00216	68 00 00 00 00	 push	 OFFSET ??_C@_03GPCJOALC@?$CF2d?$AA@
  0021b	8d 55 e8	 lea	 edx, DWORD PTR _moji$[ebp]
  0021e	52		 push	 edx
  0021f	e8 00 00 00 00	 call	 _sprintf
  00224	83 c4 0c	 add	 esp, 12			; 0000000cH

; 3415 : 
; 3416 : 	//JL 2016.9.16 战斗时间3位数显示
; 3417 : //	for (i = 0; i < 3; i++){
; 3418 : 	for( i = 0; i < 2; i++){

  00227	c7 45 b8 00 00
	00 00		 mov	 DWORD PTR _i$[ebp], 0
  0022e	eb 09		 jmp	 SHORT $LN4@BattleCntD
$LN2@BattleCntD:
  00230	8b 45 b8	 mov	 eax, DWORD PTR _i$[ebp]
  00233	83 c0 01	 add	 eax, 1
  00236	89 45 b8	 mov	 DWORD PTR _i$[ebp], eax
$LN4@BattleCntD:
  00239	83 7d b8 02	 cmp	 DWORD PTR _i$[ebp], 2
  0023d	7d 40		 jge	 SHORT $LN1@BattleCntD

; 3419 : 		if( *work != 0x20 ){

  0023f	8b 45 dc	 mov	 eax, DWORD PTR _work$[ebp]
  00242	0f be 08	 movsx	 ecx, BYTE PTR [eax]
  00245	83 f9 20	 cmp	 ecx, 32			; 00000020H
  00248	74 21		 je	 SHORT $LN24@BattleCntD

; 3420 : 			StockDispBuffer( x, y, DISP_PRIO_IME1, *work - '0' + CG_CNT_DOWN_0, 0 );

  0024a	6a 00		 push	 0
  0024c	8b 45 dc	 mov	 eax, DWORD PTR _work$[ebp]
  0024f	0f be 08	 movsx	 ecx, BYTE PTR [eax]
  00252	81 c1 fc 64 00
	00		 add	 ecx, 25852		; 000064fcH
  00258	51		 push	 ecx
  00259	6a 66		 push	 102			; 00000066H
  0025b	8b 55 c4	 mov	 edx, DWORD PTR _y$[ebp]
  0025e	52		 push	 edx
  0025f	8b 45 d0	 mov	 eax, DWORD PTR _x$[ebp]
  00262	50		 push	 eax
  00263	e8 00 00 00 00	 call	 ?StockDispBuffer@@YAHHHEHH@Z ; StockDispBuffer
  00268	83 c4 14	 add	 esp, 20			; 00000014H
$LN24@BattleCntD:

; 3421 : 		}
; 3422 : 
; 3423 : 		x += 32;

  0026b	8b 45 d0	 mov	 eax, DWORD PTR _x$[ebp]
  0026e	83 c0 20	 add	 eax, 32			; 00000020H
  00271	89 45 d0	 mov	 DWORD PTR _x$[ebp], eax

; 3424 : 		work++;

  00274	8b 45 dc	 mov	 eax, DWORD PTR _work$[ebp]
  00277	83 c0 01	 add	 eax, 1
  0027a	89 45 dc	 mov	 DWORD PTR _work$[ebp], eax

; 3425 : 	}

  0027d	eb b1		 jmp	 SHORT $LN2@BattleCntD
$LN1@BattleCntD:

; 3426 : 
; 3427 : }

  0027f	52		 push	 edx
  00280	8b cd		 mov	 ecx, ebp
  00282	50		 push	 eax
  00283	8d 15 00 00 00
	00		 lea	 edx, DWORD PTR $LN28@BattleCntD
  00289	e8 00 00 00 00	 call	 @_RTC_CheckStackVars@8
  0028e	58		 pop	 eax
  0028f	5a		 pop	 edx
  00290	5f		 pop	 edi
  00291	5e		 pop	 esi
  00292	5b		 pop	 ebx
  00293	8b 4d fc	 mov	 ecx, DWORD PTR __$ArrayPad$[ebp]
  00296	33 cd		 xor	 ecx, ebp
  00298	e8 00 00 00 00	 call	 @__security_check_cookie@4
  0029d	81 c4 18 01 00
	00		 add	 esp, 280		; 00000118H
  002a3	3b ec		 cmp	 ebp, esp
  002a5	e8 00 00 00 00	 call	 __RTC_CheckEsp
  002aa	8b e5		 mov	 esp, ebp
  002ac	5d		 pop	 ebp
  002ad	c3		 ret	 0
  002ae	66 90		 npad	 2
$LN28@BattleCntD:
  002b0	01 00 00 00	 DD	 1
  002b4	00 00 00 00	 DD	 $LN27@BattleCntD
$LN27@BattleCntD:
  002b8	e8 ff ff ff	 DD	 -24			; ffffffe8H
  002bc	10 00 00 00	 DD	 16			; 00000010H
  002c0	00 00 00 00	 DD	 $LN26@BattleCntD
$LN26@BattleCntD:
  002c4	6d		 DB	 109			; 0000006dH
  002c5	6f		 DB	 111			; 0000006fH
  002c6	6a		 DB	 106			; 0000006aH
  002c7	69		 DB	 105			; 00000069H
  002c8	00		 DB	 0
?BattleCntDownDisp@@YAXXZ ENDP				; BattleCntDownDisp
_TEXT	ENDS
; Function compile flags: /Odtp /RTCsu /ZI
; File c:\users\administrator\desktop\????? ??\????? ??\client source code\system\battlemenu.cpp
;	COMDAT ?GetBattelTarget@@YAHXZ
_TEXT	SEGMENT
_end$ = -32						; size = 4
_index$ = -20						; size = 4
_i$ = -8						; size = 4
?GetBattelTarget@@YAHXZ PROC				; GetBattelTarget, COMDAT

; 3165 : {

  00000	55		 push	 ebp
  00001	8b ec		 mov	 ebp, esp
  00003	81 ec e4 00 00
	00		 sub	 esp, 228		; 000000e4H
  00009	53		 push	 ebx
  0000a	56		 push	 esi
  0000b	57		 push	 edi
  0000c	8d bd 1c ff ff
	ff		 lea	 edi, DWORD PTR [ebp-228]
  00012	b9 39 00 00 00	 mov	 ecx, 57			; 00000039H
  00017	b8 cc cc cc cc	 mov	 eax, -858993460		; ccccccccH
  0001c	f3 ab		 rep stosd

; 3166 : 	int i, index, end;
; 3167 : 	i = 10;

  0001e	c7 45 f8 0a 00
	00 00		 mov	 DWORD PTR _i$[ebp], 10	; 0000000aH

; 3168 : 	end = 20;

  00025	c7 45 e0 14 00
	00 00		 mov	 DWORD PTR _end$[ebp], 20 ; 00000014H

; 3169 : 	if( BattleMyNo < 10){

  0002c	83 3d 00 00 00
	00 0a		 cmp	 DWORD PTR ?BattleMyNo@@3HA, 10 ; BattleMyNo, 0000000aH
  00033	7d 0e		 jge	 SHORT $LN5@GetBattelT

; 3170 : 		i = 0 ;

  00035	c7 45 f8 00 00
	00 00		 mov	 DWORD PTR _i$[ebp], 0

; 3171 : 		end = 10;

  0003c	c7 45 e0 0a 00
	00 00		 mov	 DWORD PTR _end$[ebp], 10 ; 0000000aH
$LN5@GetBattelT:

; 3172 : 	}
; 3173 : #ifdef __AI
; 3174 : 	for( ; i < end ; i++ ){

  00043	eb 09		 jmp	 SHORT $LN4@GetBattelT
$LN2@GetBattelT:
  00045	8b 45 f8	 mov	 eax, DWORD PTR _i$[ebp]
  00048	83 c0 01	 add	 eax, 1
  0004b	89 45 f8	 mov	 DWORD PTR _i$[ebp], eax
$LN4@GetBattelT:
  0004e	8b 45 f8	 mov	 eax, DWORD PTR _i$[ebp]
  00051	3b 45 e0	 cmp	 eax, DWORD PTR _end$[ebp]
  00054	7d 50		 jge	 SHORT $LN3@GetBattelT

; 3175 : 		index = Ordinal[i];

  00056	8b 45 f8	 mov	 eax, DWORD PTR _i$[ebp]
  00059	8b 0c 85 00 00
	00 00		 mov	 ecx, DWORD PTR ?Ordinal@@3PAHA[eax*4]
  00060	89 4d ec	 mov	 DWORD PTR _index$[ebp], ecx

; 3176 : 		if( p_party[ index ]->func == NULL ) continue;

  00063	8b 45 ec	 mov	 eax, DWORD PTR _index$[ebp]
  00066	8b 0c 85 00 00
	00 00		 mov	 ecx, DWORD PTR ?p_party@@3PAPAUaction@@A[eax*4]
  0006d	83 79 08 00	 cmp	 DWORD PTR [ecx+8], 0
  00071	75 02		 jne	 SHORT $LN6@GetBattelT
  00073	eb d0		 jmp	 SHORT $LN2@GetBattelT
$LN6@GetBattelT:

; 3177 : 		if( p_party[index]->hp<=0 || index==BattleMyNo || index==5+BattleMyNo)

  00075	8b 45 ec	 mov	 eax, DWORD PTR _index$[ebp]
  00078	8b 0c 85 00 00
	00 00		 mov	 ecx, DWORD PTR ?p_party@@3PAPAUaction@@A[eax*4]
  0007f	83 79 78 00	 cmp	 DWORD PTR [ecx+120], 0
  00083	7e 18		 jle	 SHORT $LN8@GetBattelT
  00085	8b 45 ec	 mov	 eax, DWORD PTR _index$[ebp]
  00088	3b 05 00 00 00
	00		 cmp	 eax, DWORD PTR ?BattleMyNo@@3HA ; BattleMyNo
  0008e	74 0d		 je	 SHORT $LN8@GetBattelT
  00090	a1 00 00 00 00	 mov	 eax, DWORD PTR ?BattleMyNo@@3HA ; BattleMyNo
  00095	83 c0 05	 add	 eax, 5
  00098	39 45 ec	 cmp	 DWORD PTR _index$[ebp], eax
  0009b	75 02		 jne	 SHORT $LN7@GetBattelT
$LN8@GetBattelT:

; 3178 : 			continue;

  0009d	eb a6		 jmp	 SHORT $LN2@GetBattelT
$LN7@GetBattelT:

; 3179 : 		return index;

  0009f	8b 45 ec	 mov	 eax, DWORD PTR _index$[ebp]
  000a2	eb 05		 jmp	 SHORT $LN1@GetBattelT

; 3180 : 	}

  000a4	eb 9f		 jmp	 SHORT $LN2@GetBattelT
$LN3@GetBattelT:

; 3181 : #else
; 3182 : 	for( ; i < end ; i++ ){
; 3183 : 		index = Ordinal[i];
; 3184 : 		if( p_party[ index ]->func == NULL ) continue;
; 3185 : 		if( index==BattleMyNo || index==5+BattleMyNo)
; 3186 : 			continue;
; 3187 : 
; 3188 : #ifdef __ATTACK_MAGIC
; 3189 : #ifdef _SKILL_ADDBARRIER
; 3190 : 		if( ( p_party[ index ]->atr & ACT_ATR_HIT_BOX ) ||
; 3191 : 			( p_party[ index ]->atr & ACT_ATR_HIT_BOX_COL1 ) ||
; 3192 : 			( p_party[ index ]->atr & ACT_ATR_HIT_BOX_COL2 ) ||
; 3193 : 			( p_party[ index ]->atr & ACT_ATR_HIT_BOX_COL3 ) ||
; 3194 : 			( p_party[ index ]->atr & ACT_ATR_HIT_BOX_COL4 ) ||
; 3195 : 			( p_party[ index ]->atr & ACT_ATR_HIT_BOX_ALL1 ) ||
; 3196 : 			( p_party[ index ]->atr & ACT_ATR_HIT_BOX_ALL2 ) ||
; 3197 : 			( p_party[ index ]->atr & ACT_ATR_HIT_BOX_ALL3 )
; 3198 : 
; 3199 : 
; 3200 : 			 || ( p_party[ index ]->atr & ACT_ATR_HIT_BOX_ALL5 ) ||
; 3201 : 			( p_party[ index ]->atr & ACT_ATR_HIT_BOX_ALL6 ) ||
; 3202 : 			( p_party[ index ]->atr & ACT_ATR_HIT_BOX_ALL7 ) || 
; 3203 : 			( p_party[ index ]->atr & ACT_ATR_HIT_BOX_ALL8 ) 
; 3204 : 			)
; 3205 : 			return index;
; 3206 : #else
; 3207 : 		if( ( p_party[ index ]->atr & ACT_ATR_HIT_BOX ) ||
; 3208 : 			( p_party[ index ]->atr & ACT_ATR_HIT_BOX_COL1 ) ||
; 3209 : 			( p_party[ index ]->atr & ACT_ATR_HIT_BOX_COL2 ) ||
; 3210 : 			( p_party[ index ]->atr & ACT_ATR_HIT_BOX_COL3 ) ||
; 3211 : 			( p_party[ index ]->atr & ACT_ATR_HIT_BOX_COL4 ) ||
; 3212 : 			( p_party[ index ]->atr & ACT_ATR_HIT_BOX_ALL1 ) ||
; 3213 : 			( p_party[ index ]->atr & ACT_ATR_HIT_BOX_ALL2 ) ||
; 3214 : 			( p_party[ index ]->atr & ACT_ATR_HIT_BOX_ALL3 ) )
; 3215 : 			return index;
; 3216 : #endif
; 3217 : #else
; 3218 : 		if( ( p_party[ index ]->atr & ACT_ATR_HIT_BOX ) ||
; 3219 : 			( p_party[ index ]->atr & ACT_ATR_HIT_BOX_ALL1 ) ||
; 3220 : 			( p_party[ index ]->atr & ACT_ATR_HIT_BOX_ALL2 ) ||
; 3221 : 			( p_party[ index ]->atr & ACT_ATR_HIT_BOX_ALL3 ) )
; 3222 : 			return index;
; 3223 : #endif
; 3224 : 
; 3225 : 	}
; 3226 : #endif
; 3227 : 	return -1;

  000a6	83 c8 ff	 or	 eax, -1
$LN1@GetBattelT:

; 3228 : }

  000a9	5f		 pop	 edi
  000aa	5e		 pop	 esi
  000ab	5b		 pop	 ebx
  000ac	8b e5		 mov	 esp, ebp
  000ae	5d		 pop	 ebp
  000af	c3		 ret	 0
?GetBattelTarget@@YAHXZ ENDP				; GetBattelTarget
_TEXT	ENDS
; Function compile flags: /Odtp /RTCsu /ZI
; File c:\users\administrator\desktop\????? ??\????? ??\client source code\system\battlemenu.cpp
;	COMDAT ?BattleTargetSelect@@YAXXZ
_TEXT	SEGMENT
tv422 = -488						; size = 4
tv335 = -488						; size = 4
tv277 = -488						; size = 4
tv196 = -488						; size = 4
tv162 = -488						; size = 4
tv141 = -488						; size = 4
_no$ = -288						; size = 4
_targetNo$ = -276					; size = 4
_moji$ = -264						; size = 256
__$ArrayPad$ = -4					; size = 4
?BattleTargetSelect@@YAXXZ PROC				; BattleTargetSelect, COMDAT

; 2767 : {

  00000	55		 push	 ebp
  00001	8b ec		 mov	 ebp, esp
  00003	81 ec e8 01 00
	00		 sub	 esp, 488		; 000001e8H
  00009	53		 push	 ebx
  0000a	56		 push	 esi
  0000b	57		 push	 edi
  0000c	8d bd 18 fe ff
	ff		 lea	 edi, DWORD PTR [ebp-488]
  00012	b9 7a 00 00 00	 mov	 ecx, 122		; 0000007aH
  00017	b8 cc cc cc cc	 mov	 eax, -858993460		; ccccccccH
  0001c	f3 ab		 rep stosd
  0001e	a1 00 00 00 00	 mov	 eax, DWORD PTR ___security_cookie
  00023	33 c5		 xor	 eax, ebp
  00025	89 45 fc	 mov	 DWORD PTR __$ArrayPad$[ebp], eax

; 2768 : 	char moji[ 256 ];
; 2769 : 	int targetNo;
; 2770 : 	int no;
; 2771 : 
; 2772 : 	if( !( MenuToggleFlag & JOY_ESC ) && !( MenuToggleFlag & JOY_CTRL_E ) && !( MenuToggleFlag & JOY_CTRL_A ) && !( menuBtn == 1 ) ){

  00028	a1 00 00 00 00	 mov	 eax, DWORD PTR ?MenuToggleFlag@@3IA ; MenuToggleFlag
  0002d	25 00 00 00 80	 and	 eax, -2147483648	; 80000000H
  00032	0f 85 ed 00 00
	00		 jne	 $LN12@BattleTarg
  00038	a1 00 00 00 00	 mov	 eax, DWORD PTR ?MenuToggleFlag@@3IA ; MenuToggleFlag
  0003d	25 00 00 00 04	 and	 eax, 67108864		; 04000000H
  00042	0f 85 dd 00 00
	00		 jne	 $LN12@BattleTarg
  00048	a1 00 00 00 00	 mov	 eax, DWORD PTR ?MenuToggleFlag@@3IA ; MenuToggleFlag
  0004d	25 00 00 00 02	 and	 eax, 33554432		; 02000000H
  00052	0f 85 cd 00 00
	00		 jne	 $LN12@BattleTarg
  00058	0f bf 05 00 00
	00 00		 movsx	 eax, WORD PTR ?menuBtn@@3FA ; menuBtn
  0005f	83 f8 01	 cmp	 eax, 1
  00062	0f 84 bd 00 00
	00		 je	 $LN12@BattleTarg

; 2773 : 
; 2774 : 		if( pActInfoWnd == NULL ){

  00068	83 3d 00 00 00
	00 00		 cmp	 DWORD PTR ?pActInfoWnd@@3PAUaction@@A, 0
  0006f	75 4b		 jne	 SHORT $LN14@BattleTarg

; 2775 : 
; 2776 : 			if( mouse.nowPoint.y < 228 ){ 

  00071	81 3d 04 00 00
	00 e4 00 00 00	 cmp	 DWORD PTR ?mouse@@3UMOUSE@@A+4, 228 ; 000000e4H
  0007b	7d 21		 jge	 SHORT $LN16@BattleTarg

; 2777 : 				pActInfoWnd = MakeWindowDisp( 225, 400, 3, 2, 0, 1 );

  0007d	6a 01		 push	 1
  0007f	6a 00		 push	 0
  00081	6a 02		 push	 2
  00083	6a 03		 push	 3
  00085	68 90 01 00 00	 push	 400			; 00000190H
  0008a	68 e1 00 00 00	 push	 225			; 000000e1H
  0008f	e8 00 00 00 00	 call	 ?MakeWindowDisp@@YAPAUaction@@HHHHHH@Z ; MakeWindowDisp
  00094	83 c4 18	 add	 esp, 24			; 00000018H
  00097	a3 00 00 00 00	 mov	 DWORD PTR ?pActInfoWnd@@3PAUaction@@A, eax

; 2778 : 			}else{ 

  0009c	eb 1c		 jmp	 SHORT $LN17@BattleTarg
$LN16@BattleTarg:

; 2779 : 				pActInfoWnd = MakeWindowDisp( 225, 60, 3, 2, 0, 1 );

  0009e	6a 01		 push	 1
  000a0	6a 00		 push	 0
  000a2	6a 02		 push	 2
  000a4	6a 03		 push	 3
  000a6	6a 3c		 push	 60			; 0000003cH
  000a8	68 e1 00 00 00	 push	 225			; 000000e1H
  000ad	e8 00 00 00 00	 call	 ?MakeWindowDisp@@YAPAUaction@@HHHHHH@Z ; MakeWindowDisp
  000b2	83 c4 18	 add	 esp, 24			; 00000018H
  000b5	a3 00 00 00 00	 mov	 DWORD PTR ?pActInfoWnd@@3PAUaction@@A, eax
$LN17@BattleTarg:

; 2780 : 			}
; 2781 : 		}else{	

  000ba	eb 67		 jmp	 SHORT $LN15@BattleTarg
$LN14@BattleTarg:

; 2782 : 
; 2783 : 			if( pActInfoWnd->hp > 0 ){

  000bc	a1 00 00 00 00	 mov	 eax, DWORD PTR ?pActInfoWnd@@3PAUaction@@A
  000c1	83 78 78 00	 cmp	 DWORD PTR [eax+120], 0
  000c5	7e 2c		 jle	 SHORT $LN18@BattleTarg

; 2784 : 				StockFontBuffer( pActInfoWnd->x + 30, pActInfoWnd->y + 40, FONT_PRIO_FRONT, FONT_PAL_YELLOW, 	"목표를 선택 해주세요", 0 );

  000c7	6a 00		 push	 0
  000c9	68 00 00 00 00	 push	 OFFSET ??_C@_0BF@NNNOOJBA@?$LI?q?G?$KF?$LI?$KG?5?$LM?$LB?E?C?5?G?X?A?V?$LM?$LM?$LP?d?$AA@
  000ce	6a 04		 push	 4
  000d0	6a 01		 push	 1
  000d2	a1 00 00 00 00	 mov	 eax, DWORD PTR ?pActInfoWnd@@3PAUaction@@A
  000d7	8b 48 1c	 mov	 ecx, DWORD PTR [eax+28]
  000da	83 c1 28	 add	 ecx, 40			; 00000028H
  000dd	51		 push	 ecx
  000de	8b 15 00 00 00
	00		 mov	 edx, DWORD PTR ?pActInfoWnd@@3PAUaction@@A
  000e4	8b 42 18	 mov	 eax, DWORD PTR [edx+24]
  000e7	83 c0 1e	 add	 eax, 30			; 0000001eH
  000ea	50		 push	 eax
  000eb	e8 00 00 00 00	 call	 ?StockFontBuffer@@YAHHHDHPADH@Z ; StockFontBuffer
  000f0	83 c4 18	 add	 esp, 24			; 00000018H
$LN18@BattleTarg:

; 2785 : 			}
; 2786 : 
; 2787 : 			if( mouse.nowPoint.y > 300 ) pActInfoWnd->y = 60;

  000f3	81 3d 04 00 00
	00 2c 01 00 00	 cmp	 DWORD PTR ?mouse@@3UMOUSE@@A+4, 300 ; 0000012cH
  000fd	7e 0c		 jle	 SHORT $LN19@BattleTarg
  000ff	a1 00 00 00 00	 mov	 eax, DWORD PTR ?pActInfoWnd@@3PAUaction@@A
  00104	c7 40 1c 3c 00
	00 00		 mov	 DWORD PTR [eax+28], 60	; 0000003cH
$LN19@BattleTarg:

; 2788 : 			if( mouse.nowPoint.y < 156 ) pActInfoWnd->y = 400;

  0010b	81 3d 04 00 00
	00 9c 00 00 00	 cmp	 DWORD PTR ?mouse@@3UMOUSE@@A+4, 156 ; 0000009cH
  00115	7d 0c		 jge	 SHORT $LN15@BattleTarg
  00117	a1 00 00 00 00	 mov	 eax, DWORD PTR ?pActInfoWnd@@3PAUaction@@A
  0011c	c7 40 1c 90 01
	00 00		 mov	 DWORD PTR [eax+28], 400	; 00000190H
$LN15@BattleTarg:

; 2789 : 		}
; 2790 : 	}else{

  00123	eb 18		 jmp	 SHORT $LN13@BattleTarg
$LN12@BattleTarg:

; 2791 : 		DeathAction( pActInfoWnd );

  00125	a1 00 00 00 00	 mov	 eax, DWORD PTR ?pActInfoWnd@@3PAUaction@@A
  0012a	50		 push	 eax
  0012b	e8 00 00 00 00	 call	 ?DeathAction@@YAXPAUaction@@@Z ; DeathAction
  00130	83 c4 04	 add	 esp, 4

; 2792 : 		pActInfoWnd = NULL;

  00133	c7 05 00 00 00
	00 00 00 00 00	 mov	 DWORD PTR ?pActInfoWnd@@3PAUaction@@A, 0
$LN13@BattleTarg:

; 2793 : 	}
; 2794 : 
; 2795 : 	//cary 自动攻击
; 2796 : 	if( mouse.onceState & MOUSE_LEFT_CRICK ){

  0013d	a1 2c 00 00 00	 mov	 eax, DWORD PTR ?mouse@@3UMOUSE@@A+44
  00142	83 e0 01	 and	 eax, 1
  00145	0f 84 6e 0e 00
	00		 je	 $LN1@BattleTarg

; 2797 : 
; 2798 : 		if( ( targetNo = CheckBattelTarget() ) != -1 ){

  0014b	e8 00 00 00 00	 call	 ?CheckBattelTarget@@YAHXZ ; CheckBattelTarget
  00150	89 85 ec fe ff
	ff		 mov	 DWORD PTR _targetNo$[ebp], eax
  00156	83 bd ec fe ff
	ff ff		 cmp	 DWORD PTR _targetNo$[ebp], -1
  0015d	0f 84 56 0e 00
	00		 je	 $LN1@BattleTarg

; 2799 : 
; 2800 : 			switch( BattleCmdNo ){

  00163	a1 00 00 00 00	 mov	 eax, DWORD PTR ?BattleCmdNo@@3HA ; BattleCmdNo
  00168	89 85 18 fe ff
	ff		 mov	 DWORD PTR tv141[ebp], eax
  0016e	83 bd 18 fe ff
	ff 05		 cmp	 DWORD PTR tv141[ebp], 5
  00175	0f 87 fb 0d 00
	00		 ja	 $LN2@BattleTarg
  0017b	8b 8d 18 fe ff
	ff		 mov	 ecx, DWORD PTR tv141[ebp]
  00181	ff 24 8d 00 00
	00 00		 jmp	 DWORD PTR $LN133@BattleTarg[ecx*4]
$LN23@BattleTarg:

; 2801 : 			case BATTLE_ATTACK:
; 2802 : 				sprintf( moji, "H|%X", targetNo );

  00188	8b 85 ec fe ff
	ff		 mov	 eax, DWORD PTR _targetNo$[ebp]
  0018e	50		 push	 eax
  0018f	68 00 00 00 00	 push	 OFFSET ??_C@_04DMFDFHBJ@H?$HM?$CFX?$AA@
  00194	8d 8d f8 fe ff
	ff		 lea	 ecx, DWORD PTR _moji$[ebp]
  0019a	51		 push	 ecx
  0019b	e8 00 00 00 00	 call	 _sprintf
  001a0	83 c4 0c	 add	 esp, 12			; 0000000cH

; 2803 : 				if( bNewServer)

  001a3	83 3d 00 00 00
	00 00		 cmp	 DWORD PTR ?bNewServer@@3HA, 0 ; bNewServer
  001aa	74 18		 je	 SHORT $LN24@BattleTarg

; 2804 : 					lssproto_B_send( sockfd, moji );

  001ac	8d 85 f8 fe ff
	ff		 lea	 eax, DWORD PTR _moji$[ebp]
  001b2	50		 push	 eax
  001b3	8b 0d 00 00 00
	00		 mov	 ecx, DWORD PTR ?sockfd@@3IA ; sockfd
  001b9	51		 push	 ecx
  001ba	e8 00 00 00 00	 call	 ?lssproto_B_send@@YAXHPAD@Z ; lssproto_B_send
  001bf	83 c4 08	 add	 esp, 8

; 2805 : 				else

  001c2	eb 16		 jmp	 SHORT $LN25@BattleTarg
$LN24@BattleTarg:

; 2806 : 					old_lssproto_B_send( sockfd, moji );

  001c4	8d 85 f8 fe ff
	ff		 lea	 eax, DWORD PTR _moji$[ebp]
  001ca	50		 push	 eax
  001cb	8b 0d 00 00 00
	00		 mov	 ecx, DWORD PTR ?sockfd@@3IA ; sockfd
  001d1	51		 push	 ecx
  001d2	e8 00 00 00 00	 call	 ?old_lssproto_B_send@@YAXHPAD@Z ; old_lssproto_B_send
  001d7	83 c4 08	 add	 esp, 8
$LN25@BattleTarg:

; 2807 : 				break;

  001da	e9 97 0d 00 00	 jmp	 $LN2@BattleTarg
$LN26@BattleTarg:

; 2808 : 			
; 2809 : 			case BATTLE_CAPTURE:
; 2810 : 				sprintf( moji, "T|%X", targetNo );

  001df	8b 85 ec fe ff
	ff		 mov	 eax, DWORD PTR _targetNo$[ebp]
  001e5	50		 push	 eax
  001e6	68 00 00 00 00	 push	 OFFSET ??_C@_04JJEDCNJK@T?$HM?$CFX?$AA@
  001eb	8d 8d f8 fe ff
	ff		 lea	 ecx, DWORD PTR _moji$[ebp]
  001f1	51		 push	 ecx
  001f2	e8 00 00 00 00	 call	 _sprintf
  001f7	83 c4 0c	 add	 esp, 12			; 0000000cH

; 2811 : 				if( bNewServer)

  001fa	83 3d 00 00 00
	00 00		 cmp	 DWORD PTR ?bNewServer@@3HA, 0 ; bNewServer
  00201	74 18		 je	 SHORT $LN27@BattleTarg

; 2812 : 					lssproto_B_send( sockfd, moji );

  00203	8d 85 f8 fe ff
	ff		 lea	 eax, DWORD PTR _moji$[ebp]
  00209	50		 push	 eax
  0020a	8b 0d 00 00 00
	00		 mov	 ecx, DWORD PTR ?sockfd@@3IA ; sockfd
  00210	51		 push	 ecx
  00211	e8 00 00 00 00	 call	 ?lssproto_B_send@@YAXHPAD@Z ; lssproto_B_send
  00216	83 c4 08	 add	 esp, 8

; 2813 : 				else

  00219	eb 16		 jmp	 SHORT $LN28@BattleTarg
$LN27@BattleTarg:

; 2814 : 					old_lssproto_B_send( sockfd, moji );

  0021b	8d 85 f8 fe ff
	ff		 lea	 eax, DWORD PTR _moji$[ebp]
  00221	50		 push	 eax
  00222	8b 0d 00 00 00
	00		 mov	 ecx, DWORD PTR ?sockfd@@3IA ; sockfd
  00228	51		 push	 ecx
  00229	e8 00 00 00 00	 call	 ?old_lssproto_B_send@@YAXHPAD@Z ; old_lssproto_B_send
  0022e	83 c4 08	 add	 esp, 8
$LN28@BattleTarg:

; 2815 : 				break;

  00231	e9 40 0d 00 00	 jmp	 $LN2@BattleTarg
$LN29@BattleTarg:

; 2816 : 				
; 2817 : 			case BATTLE_JUJUTU:
; 2818 : 				//cary*
; 2819 : 				switch( magic[ BattleJujutuNo ].target ){

  00236	6b 05 00 00 00
	00 70		 imul	 eax, DWORD PTR ?BattleJujutuNo@@3HA, 112 ; BattleJujutuNo
  0023d	0f bf 88 0a 00
	00 00		 movsx	 ecx, WORD PTR ?magic@@3PAUMAGIC@@A[eax+10]
  00244	89 8d 18 fe ff
	ff		 mov	 DWORD PTR tv162[ebp], ecx
  0024a	83 bd 18 fe ff
	ff 0b		 cmp	 DWORD PTR tv162[ebp], 11 ; 0000000bH
  00251	0f 87 b4 04 00
	00		 ja	 $LN4@BattleTarg
  00257	8b 95 18 fe ff
	ff		 mov	 edx, DWORD PTR tv162[ebp]
  0025d	ff 24 95 00 00
	00 00		 jmp	 DWORD PTR $LN134@BattleTarg[edx*4]
$LN30@BattleTarg:

; 2820 : 
; 2821 : 				#ifdef __ATTACK_MAGIC
; 2822 : 
; 2823 : 				// 敌军某一人
; 2824 : 				case MAGIC_TARGET_SINGLE:
; 2825 : 
; 2826 : 					sprintf( moji , "J|%X|%X" , BattleJujutuNo , targetNo );

  00264	8b 85 ec fe ff
	ff		 mov	 eax, DWORD PTR _targetNo$[ebp]
  0026a	50		 push	 eax
  0026b	8b 0d 00 00 00
	00		 mov	 ecx, DWORD PTR ?BattleJujutuNo@@3HA ; BattleJujutuNo
  00271	51		 push	 ecx
  00272	68 00 00 00 00	 push	 OFFSET ??_C@_07DLEHBIBA@J?$HM?$CFX?$HM?$CFX?$AA@
  00277	8d 95 f8 fe ff
	ff		 lea	 edx, DWORD PTR _moji$[ebp]
  0027d	52		 push	 edx
  0027e	e8 00 00 00 00	 call	 _sprintf
  00283	83 c4 10	 add	 esp, 16			; 00000010H

; 2827 : 					if( bNewServer)

  00286	83 3d 00 00 00
	00 00		 cmp	 DWORD PTR ?bNewServer@@3HA, 0 ; bNewServer
  0028d	74 18		 je	 SHORT $LN31@BattleTarg

; 2828 : 						lssproto_B_send( sockfd , moji );

  0028f	8d 85 f8 fe ff
	ff		 lea	 eax, DWORD PTR _moji$[ebp]
  00295	50		 push	 eax
  00296	8b 0d 00 00 00
	00		 mov	 ecx, DWORD PTR ?sockfd@@3IA ; sockfd
  0029c	51		 push	 ecx
  0029d	e8 00 00 00 00	 call	 ?lssproto_B_send@@YAXHPAD@Z ; lssproto_B_send
  002a2	83 c4 08	 add	 esp, 8

; 2829 : 					else

  002a5	eb 16		 jmp	 SHORT $LN32@BattleTarg
$LN31@BattleTarg:

; 2830 : 						old_lssproto_B_send( sockfd , moji );

  002a7	8d 85 f8 fe ff
	ff		 lea	 eax, DWORD PTR _moji$[ebp]
  002ad	50		 push	 eax
  002ae	8b 0d 00 00 00
	00		 mov	 ecx, DWORD PTR ?sockfd@@3IA ; sockfd
  002b4	51		 push	 ecx
  002b5	e8 00 00 00 00	 call	 ?old_lssproto_B_send@@YAXHPAD@Z ; old_lssproto_B_send
  002ba	83 c4 08	 add	 esp, 8
$LN32@BattleTarg:

; 2831 : 					play_se( 217 , 320 , 240 );

  002bd	68 f0 00 00 00	 push	 240			; 000000f0H
  002c2	68 40 01 00 00	 push	 320			; 00000140H
  002c7	68 d9 00 00 00	 push	 217			; 000000d9H
  002cc	e8 00 00 00 00	 call	 ?play_se@@YAHHHH@Z	; play_se
  002d1	83 c4 0c	 add	 esp, 12			; 0000000cH

; 2832 : 
; 2833 : 					break;

  002d4	e9 32 04 00 00	 jmp	 $LN4@BattleTarg
$LN33@BattleTarg:

; 2834 : 
; 2835 : 				// 敌军一整排
; 2836 : 				case MAGIC_TARGET_ONE_ROW:
; 2837 : 
; 2838 : 					// 23: 左上第一列 , 24: 左上第二列 , 25: 右下第一列 , 26: 右下第二列
; 2839 : 					if( targetNo >= 0 && targetNo < 5 )

  002d9	83 bd ec fe ff
	ff 00		 cmp	 DWORD PTR _targetNo$[ebp], 0
  002e0	7c 15		 jl	 SHORT $LN34@BattleTarg
  002e2	83 bd ec fe ff
	ff 05		 cmp	 DWORD PTR _targetNo$[ebp], 5
  002e9	7d 0c		 jge	 SHORT $LN34@BattleTarg

; 2840 : 						no = 26;

  002eb	c7 85 e0 fe ff
	ff 1a 00 00 00	 mov	 DWORD PTR _no$[ebp], 26	; 0000001aH
  002f5	eb 58		 jmp	 SHORT $LN35@BattleTarg
$LN34@BattleTarg:

; 2841 : 					else if( targetNo >= 5 && targetNo < 10 )

  002f7	83 bd ec fe ff
	ff 05		 cmp	 DWORD PTR _targetNo$[ebp], 5
  002fe	7c 15		 jl	 SHORT $LN36@BattleTarg
  00300	83 bd ec fe ff
	ff 0a		 cmp	 DWORD PTR _targetNo$[ebp], 10 ; 0000000aH
  00307	7d 0c		 jge	 SHORT $LN36@BattleTarg

; 2842 : 						no = 25;

  00309	c7 85 e0 fe ff
	ff 19 00 00 00	 mov	 DWORD PTR _no$[ebp], 25	; 00000019H
  00313	eb 3a		 jmp	 SHORT $LN35@BattleTarg
$LN36@BattleTarg:

; 2843 : 					else if( targetNo >= 10 && targetNo < 15 )

  00315	83 bd ec fe ff
	ff 0a		 cmp	 DWORD PTR _targetNo$[ebp], 10 ; 0000000aH
  0031c	7c 15		 jl	 SHORT $LN38@BattleTarg
  0031e	83 bd ec fe ff
	ff 0f		 cmp	 DWORD PTR _targetNo$[ebp], 15 ; 0000000fH
  00325	7d 0c		 jge	 SHORT $LN38@BattleTarg

; 2844 : 						no = 23;

  00327	c7 85 e0 fe ff
	ff 17 00 00 00	 mov	 DWORD PTR _no$[ebp], 23	; 00000017H
  00331	eb 1c		 jmp	 SHORT $LN35@BattleTarg
$LN38@BattleTarg:

; 2845 : 					else if( targetNo >= 15 && targetNo < 20 )

  00333	83 bd ec fe ff
	ff 0f		 cmp	 DWORD PTR _targetNo$[ebp], 15 ; 0000000fH
  0033a	7c 13		 jl	 SHORT $LN35@BattleTarg
  0033c	83 bd ec fe ff
	ff 14		 cmp	 DWORD PTR _targetNo$[ebp], 20 ; 00000014H
  00343	7d 0a		 jge	 SHORT $LN35@BattleTarg

; 2846 : 						no = 24;

  00345	c7 85 e0 fe ff
	ff 18 00 00 00	 mov	 DWORD PTR _no$[ebp], 24	; 00000018H
$LN35@BattleTarg:

; 2847 : 
; 2848 : 					sprintf( moji , "J|%X|%X" , BattleJujutuNo , no );

  0034f	8b 85 e0 fe ff
	ff		 mov	 eax, DWORD PTR _no$[ebp]
  00355	50		 push	 eax
  00356	8b 0d 00 00 00
	00		 mov	 ecx, DWORD PTR ?BattleJujutuNo@@3HA ; BattleJujutuNo
  0035c	51		 push	 ecx
  0035d	68 00 00 00 00	 push	 OFFSET ??_C@_07DLEHBIBA@J?$HM?$CFX?$HM?$CFX?$AA@
  00362	8d 95 f8 fe ff
	ff		 lea	 edx, DWORD PTR _moji$[ebp]
  00368	52		 push	 edx
  00369	e8 00 00 00 00	 call	 _sprintf
  0036e	83 c4 10	 add	 esp, 16			; 00000010H

; 2849 : 					if( bNewServer)

  00371	83 3d 00 00 00
	00 00		 cmp	 DWORD PTR ?bNewServer@@3HA, 0 ; bNewServer
  00378	74 18		 je	 SHORT $LN41@BattleTarg

; 2850 : 						lssproto_B_send( sockfd , moji );

  0037a	8d 85 f8 fe ff
	ff		 lea	 eax, DWORD PTR _moji$[ebp]
  00380	50		 push	 eax
  00381	8b 0d 00 00 00
	00		 mov	 ecx, DWORD PTR ?sockfd@@3IA ; sockfd
  00387	51		 push	 ecx
  00388	e8 00 00 00 00	 call	 ?lssproto_B_send@@YAXHPAD@Z ; lssproto_B_send
  0038d	83 c4 08	 add	 esp, 8

; 2851 : 					else

  00390	eb 16		 jmp	 SHORT $LN42@BattleTarg
$LN41@BattleTarg:

; 2852 : 						old_lssproto_B_send( sockfd , moji );

  00392	8d 85 f8 fe ff
	ff		 lea	 eax, DWORD PTR _moji$[ebp]
  00398	50		 push	 eax
  00399	8b 0d 00 00 00
	00		 mov	 ecx, DWORD PTR ?sockfd@@3IA ; sockfd
  0039f	51		 push	 ecx
  003a0	e8 00 00 00 00	 call	 ?old_lssproto_B_send@@YAXHPAD@Z ; old_lssproto_B_send
  003a5	83 c4 08	 add	 esp, 8
$LN42@BattleTarg:

; 2853 : 					play_se( 217 , 320 , 240 );

  003a8	68 f0 00 00 00	 push	 240			; 000000f0H
  003ad	68 40 01 00 00	 push	 320			; 00000140H
  003b2	68 d9 00 00 00	 push	 217			; 000000d9H
  003b7	e8 00 00 00 00	 call	 ?play_se@@YAHHHH@Z	; play_se
  003bc	83 c4 0c	 add	 esp, 12			; 0000000cH

; 2854 : 
; 2855 : 					break;

  003bf	e9 47 03 00 00	 jmp	 $LN4@BattleTarg
$LN43@BattleTarg:

; 2856 : 
; 2857 : 				// 敌军全体
; 2858 : 				case MAGIC_TARGET_ALL_ROWS:
; 2859 : 
; 2860 : 					( BattleMyNo < 10 )? no = 21 : no = 20;

  003c4	83 3d 00 00 00
	00 0a		 cmp	 DWORD PTR ?BattleMyNo@@3HA, 10 ; BattleMyNo, 0000000aH
  003cb	7d 18		 jge	 SHORT $LN126@BattleTarg
  003cd	c7 85 e0 fe ff
	ff 15 00 00 00	 mov	 DWORD PTR _no$[ebp], 21	; 00000015H
  003d7	8b 85 e0 fe ff
	ff		 mov	 eax, DWORD PTR _no$[ebp]
  003dd	89 85 18 fe ff
	ff		 mov	 DWORD PTR tv196[ebp], eax
  003e3	eb 16		 jmp	 SHORT $LN127@BattleTarg
$LN126@BattleTarg:
  003e5	c7 85 e0 fe ff
	ff 14 00 00 00	 mov	 DWORD PTR _no$[ebp], 20	; 00000014H
  003ef	8b 8d e0 fe ff
	ff		 mov	 ecx, DWORD PTR _no$[ebp]
  003f5	89 8d 18 fe ff
	ff		 mov	 DWORD PTR tv196[ebp], ecx
$LN127@BattleTarg:

; 2861 : 					sprintf( moji , "J|%X|%X" , BattleJujutuNo , no );

  003fb	8b 85 e0 fe ff
	ff		 mov	 eax, DWORD PTR _no$[ebp]
  00401	50		 push	 eax
  00402	8b 0d 00 00 00
	00		 mov	 ecx, DWORD PTR ?BattleJujutuNo@@3HA ; BattleJujutuNo
  00408	51		 push	 ecx
  00409	68 00 00 00 00	 push	 OFFSET ??_C@_07DLEHBIBA@J?$HM?$CFX?$HM?$CFX?$AA@
  0040e	8d 95 f8 fe ff
	ff		 lea	 edx, DWORD PTR _moji$[ebp]
  00414	52		 push	 edx
  00415	e8 00 00 00 00	 call	 _sprintf
  0041a	83 c4 10	 add	 esp, 16			; 00000010H

; 2862 : 					if( bNewServer)

  0041d	83 3d 00 00 00
	00 00		 cmp	 DWORD PTR ?bNewServer@@3HA, 0 ; bNewServer
  00424	74 18		 je	 SHORT $LN44@BattleTarg

; 2863 : 						lssproto_B_send( sockfd , moji );

  00426	8d 85 f8 fe ff
	ff		 lea	 eax, DWORD PTR _moji$[ebp]
  0042c	50		 push	 eax
  0042d	8b 0d 00 00 00
	00		 mov	 ecx, DWORD PTR ?sockfd@@3IA ; sockfd
  00433	51		 push	 ecx
  00434	e8 00 00 00 00	 call	 ?lssproto_B_send@@YAXHPAD@Z ; lssproto_B_send
  00439	83 c4 08	 add	 esp, 8

; 2864 : 					else

  0043c	eb 16		 jmp	 SHORT $LN45@BattleTarg
$LN44@BattleTarg:

; 2865 : 						old_lssproto_B_send( sockfd , moji );

  0043e	8d 85 f8 fe ff
	ff		 lea	 eax, DWORD PTR _moji$[ebp]
  00444	50		 push	 eax
  00445	8b 0d 00 00 00
	00		 mov	 ecx, DWORD PTR ?sockfd@@3IA ; sockfd
  0044b	51		 push	 ecx
  0044c	e8 00 00 00 00	 call	 ?old_lssproto_B_send@@YAXHPAD@Z ; old_lssproto_B_send
  00451	83 c4 08	 add	 esp, 8
$LN45@BattleTarg:

; 2866 : 					play_se( 217 , 320 , 240 );

  00454	68 f0 00 00 00	 push	 240			; 000000f0H
  00459	68 40 01 00 00	 push	 320			; 00000140H
  0045e	68 d9 00 00 00	 push	 217			; 000000d9H
  00463	e8 00 00 00 00	 call	 ?play_se@@YAHHHH@Z	; play_se
  00468	83 c4 0c	 add	 esp, 12			; 0000000cH

; 2867 : 
; 2868 : 					break;

  0046b	e9 9b 02 00 00	 jmp	 $LN4@BattleTarg
$LN46@BattleTarg:

; 2869 : 
; 2870 : 				#endif
; 2871 : 
; 2872 : 				case MAGIC_TARGET_MYSELF:
; 2873 : 				case MAGIC_TARGET_OTHER:
; 2874 : 					sprintf( moji,"J|%X|%X", BattleJujutuNo, targetNo );

  00470	8b 85 ec fe ff
	ff		 mov	 eax, DWORD PTR _targetNo$[ebp]
  00476	50		 push	 eax
  00477	8b 0d 00 00 00
	00		 mov	 ecx, DWORD PTR ?BattleJujutuNo@@3HA ; BattleJujutuNo
  0047d	51		 push	 ecx
  0047e	68 00 00 00 00	 push	 OFFSET ??_C@_07DLEHBIBA@J?$HM?$CFX?$HM?$CFX?$AA@
  00483	8d 95 f8 fe ff
	ff		 lea	 edx, DWORD PTR _moji$[ebp]
  00489	52		 push	 edx
  0048a	e8 00 00 00 00	 call	 _sprintf
  0048f	83 c4 10	 add	 esp, 16			; 00000010H

; 2875 : 					if( bNewServer)

  00492	83 3d 00 00 00
	00 00		 cmp	 DWORD PTR ?bNewServer@@3HA, 0 ; bNewServer
  00499	74 18		 je	 SHORT $LN47@BattleTarg

; 2876 : 						lssproto_B_send( sockfd, moji );

  0049b	8d 85 f8 fe ff
	ff		 lea	 eax, DWORD PTR _moji$[ebp]
  004a1	50		 push	 eax
  004a2	8b 0d 00 00 00
	00		 mov	 ecx, DWORD PTR ?sockfd@@3IA ; sockfd
  004a8	51		 push	 ecx
  004a9	e8 00 00 00 00	 call	 ?lssproto_B_send@@YAXHPAD@Z ; lssproto_B_send
  004ae	83 c4 08	 add	 esp, 8

; 2877 : 					else

  004b1	eb 16		 jmp	 SHORT $LN48@BattleTarg
$LN47@BattleTarg:

; 2878 : 						old_lssproto_B_send( sockfd, moji );

  004b3	8d 85 f8 fe ff
	ff		 lea	 eax, DWORD PTR _moji$[ebp]
  004b9	50		 push	 eax
  004ba	8b 0d 00 00 00
	00		 mov	 ecx, DWORD PTR ?sockfd@@3IA ; sockfd
  004c0	51		 push	 ecx
  004c1	e8 00 00 00 00	 call	 ?old_lssproto_B_send@@YAXHPAD@Z ; old_lssproto_B_send
  004c6	83 c4 08	 add	 esp, 8
$LN48@BattleTarg:

; 2879 : 					play_se( 217, 320, 240 );

  004c9	68 f0 00 00 00	 push	 240			; 000000f0H
  004ce	68 40 01 00 00	 push	 320			; 00000140H
  004d3	68 d9 00 00 00	 push	 217			; 000000d9H
  004d8	e8 00 00 00 00	 call	 ?play_se@@YAHHHH@Z	; play_se
  004dd	83 c4 0c	 add	 esp, 12			; 0000000cH

; 2880 : 					break;

  004e0	e9 26 02 00 00	 jmp	 $LN4@BattleTarg
$LN49@BattleTarg:

; 2881 : 					
; 2882 : 				case MAGIC_TARGET_ALLMYSIDE:
; 2883 : 					if( BattleMyNo < 10 ) no = 20;

  004e5	83 3d 00 00 00
	00 0a		 cmp	 DWORD PTR ?BattleMyNo@@3HA, 10 ; BattleMyNo, 0000000aH
  004ec	7d 0c		 jge	 SHORT $LN50@BattleTarg
  004ee	c7 85 e0 fe ff
	ff 14 00 00 00	 mov	 DWORD PTR _no$[ebp], 20	; 00000014H
  004f8	eb 0a		 jmp	 SHORT $LN51@BattleTarg
$LN50@BattleTarg:

; 2884 : 					else no = 21;

  004fa	c7 85 e0 fe ff
	ff 15 00 00 00	 mov	 DWORD PTR _no$[ebp], 21	; 00000015H
$LN51@BattleTarg:

; 2885 : 					sprintf( moji,"J|%X|%X", BattleJujutuNo, no );

  00504	8b 85 e0 fe ff
	ff		 mov	 eax, DWORD PTR _no$[ebp]
  0050a	50		 push	 eax
  0050b	8b 0d 00 00 00
	00		 mov	 ecx, DWORD PTR ?BattleJujutuNo@@3HA ; BattleJujutuNo
  00511	51		 push	 ecx
  00512	68 00 00 00 00	 push	 OFFSET ??_C@_07DLEHBIBA@J?$HM?$CFX?$HM?$CFX?$AA@
  00517	8d 95 f8 fe ff
	ff		 lea	 edx, DWORD PTR _moji$[ebp]
  0051d	52		 push	 edx
  0051e	e8 00 00 00 00	 call	 _sprintf
  00523	83 c4 10	 add	 esp, 16			; 00000010H

; 2886 : 
; 2887 : 					if( bNewServer)

  00526	83 3d 00 00 00
	00 00		 cmp	 DWORD PTR ?bNewServer@@3HA, 0 ; bNewServer
  0052d	74 18		 je	 SHORT $LN52@BattleTarg

; 2888 : 						lssproto_B_send( sockfd, moji );

  0052f	8d 85 f8 fe ff
	ff		 lea	 eax, DWORD PTR _moji$[ebp]
  00535	50		 push	 eax
  00536	8b 0d 00 00 00
	00		 mov	 ecx, DWORD PTR ?sockfd@@3IA ; sockfd
  0053c	51		 push	 ecx
  0053d	e8 00 00 00 00	 call	 ?lssproto_B_send@@YAXHPAD@Z ; lssproto_B_send
  00542	83 c4 08	 add	 esp, 8

; 2889 : 					else

  00545	eb 16		 jmp	 SHORT $LN53@BattleTarg
$LN52@BattleTarg:

; 2890 : 						old_lssproto_B_send( sockfd, moji );

  00547	8d 85 f8 fe ff
	ff		 lea	 eax, DWORD PTR _moji$[ebp]
  0054d	50		 push	 eax
  0054e	8b 0d 00 00 00
	00		 mov	 ecx, DWORD PTR ?sockfd@@3IA ; sockfd
  00554	51		 push	 ecx
  00555	e8 00 00 00 00	 call	 ?old_lssproto_B_send@@YAXHPAD@Z ; old_lssproto_B_send
  0055a	83 c4 08	 add	 esp, 8
$LN53@BattleTarg:

; 2891 : 
; 2892 : 					play_se( 217, 320, 240 );

  0055d	68 f0 00 00 00	 push	 240			; 000000f0H
  00562	68 40 01 00 00	 push	 320			; 00000140H
  00567	68 d9 00 00 00	 push	 217			; 000000d9H
  0056c	e8 00 00 00 00	 call	 ?play_se@@YAHHHH@Z	; play_se
  00571	83 c4 0c	 add	 esp, 12			; 0000000cH

; 2893 : 					break;

  00574	e9 92 01 00 00	 jmp	 $LN4@BattleTarg
$LN54@BattleTarg:

; 2894 : 					
; 2895 : 				case MAGIC_TARGET_ALLOTHERSIDE:
; 2896 : 					if( BattleMyNo < 10 ) no = 21;

  00579	83 3d 00 00 00
	00 0a		 cmp	 DWORD PTR ?BattleMyNo@@3HA, 10 ; BattleMyNo, 0000000aH
  00580	7d 0c		 jge	 SHORT $LN55@BattleTarg
  00582	c7 85 e0 fe ff
	ff 15 00 00 00	 mov	 DWORD PTR _no$[ebp], 21	; 00000015H
  0058c	eb 0a		 jmp	 SHORT $LN56@BattleTarg
$LN55@BattleTarg:

; 2897 : 					else no = 20;

  0058e	c7 85 e0 fe ff
	ff 14 00 00 00	 mov	 DWORD PTR _no$[ebp], 20	; 00000014H
$LN56@BattleTarg:

; 2898 : 
; 2899 : 					sprintf( moji,"J|%X|%X", BattleJujutuNo, no );

  00598	8b 85 e0 fe ff
	ff		 mov	 eax, DWORD PTR _no$[ebp]
  0059e	50		 push	 eax
  0059f	8b 0d 00 00 00
	00		 mov	 ecx, DWORD PTR ?BattleJujutuNo@@3HA ; BattleJujutuNo
  005a5	51		 push	 ecx
  005a6	68 00 00 00 00	 push	 OFFSET ??_C@_07DLEHBIBA@J?$HM?$CFX?$HM?$CFX?$AA@
  005ab	8d 95 f8 fe ff
	ff		 lea	 edx, DWORD PTR _moji$[ebp]
  005b1	52		 push	 edx
  005b2	e8 00 00 00 00	 call	 _sprintf
  005b7	83 c4 10	 add	 esp, 16			; 00000010H

; 2900 : 
; 2901 : 					if( bNewServer)

  005ba	83 3d 00 00 00
	00 00		 cmp	 DWORD PTR ?bNewServer@@3HA, 0 ; bNewServer
  005c1	74 18		 je	 SHORT $LN57@BattleTarg

; 2902 : 						lssproto_B_send( sockfd, moji );

  005c3	8d 85 f8 fe ff
	ff		 lea	 eax, DWORD PTR _moji$[ebp]
  005c9	50		 push	 eax
  005ca	8b 0d 00 00 00
	00		 mov	 ecx, DWORD PTR ?sockfd@@3IA ; sockfd
  005d0	51		 push	 ecx
  005d1	e8 00 00 00 00	 call	 ?lssproto_B_send@@YAXHPAD@Z ; lssproto_B_send
  005d6	83 c4 08	 add	 esp, 8

; 2903 : 					else

  005d9	eb 16		 jmp	 SHORT $LN58@BattleTarg
$LN57@BattleTarg:

; 2904 : 						old_lssproto_B_send( sockfd, moji );

  005db	8d 85 f8 fe ff
	ff		 lea	 eax, DWORD PTR _moji$[ebp]
  005e1	50		 push	 eax
  005e2	8b 0d 00 00 00
	00		 mov	 ecx, DWORD PTR ?sockfd@@3IA ; sockfd
  005e8	51		 push	 ecx
  005e9	e8 00 00 00 00	 call	 ?old_lssproto_B_send@@YAXHPAD@Z ; old_lssproto_B_send
  005ee	83 c4 08	 add	 esp, 8
$LN58@BattleTarg:

; 2905 : 
; 2906 : 					play_se( 217, 320, 240 );

  005f1	68 f0 00 00 00	 push	 240			; 000000f0H
  005f6	68 40 01 00 00	 push	 320			; 00000140H
  005fb	68 d9 00 00 00	 push	 217			; 000000d9H
  00600	e8 00 00 00 00	 call	 ?play_se@@YAHHHH@Z	; play_se
  00605	83 c4 0c	 add	 esp, 12			; 0000000cH

; 2907 : 					break;

  00608	e9 fe 00 00 00	 jmp	 $LN4@BattleTarg
$LN59@BattleTarg:

; 2908 : 					
; 2909 : 				case MAGIC_TARGET_ALL:
; 2910 : 
; 2911 : 					sprintf( moji,"J|%X|%X", BattleJujutuNo, 22 );

  0060d	6a 16		 push	 22			; 00000016H
  0060f	a1 00 00 00 00	 mov	 eax, DWORD PTR ?BattleJujutuNo@@3HA ; BattleJujutuNo
  00614	50		 push	 eax
  00615	68 00 00 00 00	 push	 OFFSET ??_C@_07DLEHBIBA@J?$HM?$CFX?$HM?$CFX?$AA@
  0061a	8d 8d f8 fe ff
	ff		 lea	 ecx, DWORD PTR _moji$[ebp]
  00620	51		 push	 ecx
  00621	e8 00 00 00 00	 call	 _sprintf
  00626	83 c4 10	 add	 esp, 16			; 00000010H

; 2912 : 
; 2913 : 					if( bNewServer)

  00629	83 3d 00 00 00
	00 00		 cmp	 DWORD PTR ?bNewServer@@3HA, 0 ; bNewServer
  00630	74 18		 je	 SHORT $LN60@BattleTarg

; 2914 : 						lssproto_B_send( sockfd, moji );

  00632	8d 85 f8 fe ff
	ff		 lea	 eax, DWORD PTR _moji$[ebp]
  00638	50		 push	 eax
  00639	8b 0d 00 00 00
	00		 mov	 ecx, DWORD PTR ?sockfd@@3IA ; sockfd
  0063f	51		 push	 ecx
  00640	e8 00 00 00 00	 call	 ?lssproto_B_send@@YAXHPAD@Z ; lssproto_B_send
  00645	83 c4 08	 add	 esp, 8

; 2915 : 					else

  00648	eb 16		 jmp	 SHORT $LN61@BattleTarg
$LN60@BattleTarg:

; 2916 : 						old_lssproto_B_send( sockfd, moji );

  0064a	8d 85 f8 fe ff
	ff		 lea	 eax, DWORD PTR _moji$[ebp]
  00650	50		 push	 eax
  00651	8b 0d 00 00 00
	00		 mov	 ecx, DWORD PTR ?sockfd@@3IA ; sockfd
  00657	51		 push	 ecx
  00658	e8 00 00 00 00	 call	 ?old_lssproto_B_send@@YAXHPAD@Z ; old_lssproto_B_send
  0065d	83 c4 08	 add	 esp, 8
$LN61@BattleTarg:

; 2917 : 
; 2918 : 					play_se( 217, 320, 240 );

  00660	68 f0 00 00 00	 push	 240			; 000000f0H
  00665	68 40 01 00 00	 push	 320			; 00000140H
  0066a	68 d9 00 00 00	 push	 217			; 000000d9H
  0066f	e8 00 00 00 00	 call	 ?play_se@@YAHHHH@Z	; play_se
  00674	83 c4 0c	 add	 esp, 12			; 0000000cH

; 2919 : 					break;

  00677	e9 8f 00 00 00	 jmp	 $LN4@BattleTarg
$LN62@BattleTarg:

; 2920 : 					
; 2921 : 				case MAGIC_TARGET_WHOLEOTHERSIDE:
; 2922 : 
; 2923 : 					if( targetNo < 10 ) no = 20;

  0067c	83 bd ec fe ff
	ff 0a		 cmp	 DWORD PTR _targetNo$[ebp], 10 ; 0000000aH
  00683	7d 0c		 jge	 SHORT $LN63@BattleTarg
  00685	c7 85 e0 fe ff
	ff 14 00 00 00	 mov	 DWORD PTR _no$[ebp], 20	; 00000014H
  0068f	eb 0a		 jmp	 SHORT $LN64@BattleTarg
$LN63@BattleTarg:

; 2924 : 					else no = 21;

  00691	c7 85 e0 fe ff
	ff 15 00 00 00	 mov	 DWORD PTR _no$[ebp], 21	; 00000015H
$LN64@BattleTarg:

; 2925 : 
; 2926 : 					sprintf( moji,"J|%X|%X", BattleJujutuNo, no );

  0069b	8b 85 e0 fe ff
	ff		 mov	 eax, DWORD PTR _no$[ebp]
  006a1	50		 push	 eax
  006a2	8b 0d 00 00 00
	00		 mov	 ecx, DWORD PTR ?BattleJujutuNo@@3HA ; BattleJujutuNo
  006a8	51		 push	 ecx
  006a9	68 00 00 00 00	 push	 OFFSET ??_C@_07DLEHBIBA@J?$HM?$CFX?$HM?$CFX?$AA@
  006ae	8d 95 f8 fe ff
	ff		 lea	 edx, DWORD PTR _moji$[ebp]
  006b4	52		 push	 edx
  006b5	e8 00 00 00 00	 call	 _sprintf
  006ba	83 c4 10	 add	 esp, 16			; 00000010H

; 2927 : 
; 2928 : 					if( bNewServer)

  006bd	83 3d 00 00 00
	00 00		 cmp	 DWORD PTR ?bNewServer@@3HA, 0 ; bNewServer
  006c4	74 18		 je	 SHORT $LN65@BattleTarg

; 2929 : 						lssproto_B_send( sockfd, moji );

  006c6	8d 85 f8 fe ff
	ff		 lea	 eax, DWORD PTR _moji$[ebp]
  006cc	50		 push	 eax
  006cd	8b 0d 00 00 00
	00		 mov	 ecx, DWORD PTR ?sockfd@@3IA ; sockfd
  006d3	51		 push	 ecx
  006d4	e8 00 00 00 00	 call	 ?lssproto_B_send@@YAXHPAD@Z ; lssproto_B_send
  006d9	83 c4 08	 add	 esp, 8

; 2930 : 					else

  006dc	eb 16		 jmp	 SHORT $LN66@BattleTarg
$LN65@BattleTarg:

; 2931 : 						old_lssproto_B_send( sockfd, moji );

  006de	8d 85 f8 fe ff
	ff		 lea	 eax, DWORD PTR _moji$[ebp]
  006e4	50		 push	 eax
  006e5	8b 0d 00 00 00
	00		 mov	 ecx, DWORD PTR ?sockfd@@3IA ; sockfd
  006eb	51		 push	 ecx
  006ec	e8 00 00 00 00	 call	 ?old_lssproto_B_send@@YAXHPAD@Z ; old_lssproto_B_send
  006f1	83 c4 08	 add	 esp, 8
$LN66@BattleTarg:

; 2932 : 
; 2933 : 					play_se( 217, 320, 240 );

  006f4	68 f0 00 00 00	 push	 240			; 000000f0H
  006f9	68 40 01 00 00	 push	 320			; 00000140H
  006fe	68 d9 00 00 00	 push	 217			; 000000d9H
  00703	e8 00 00 00 00	 call	 ?play_se@@YAHHHH@Z	; play_se
  00708	83 c4 0c	 add	 esp, 12			; 0000000cH
$LN4@BattleTarg:

; 2934 : 					break;
; 2935 : 				}
; 2936 : 				break;

  0070b	e9 66 08 00 00	 jmp	 $LN2@BattleTarg
$LN67@BattleTarg:

; 2937 : 				
; 2938 : 				//Change note 道具选择对象后送出封包
; 2939 : 			case BATTLE_ITEM:
; 2940 : 				//cary*
; 2941 : 				switch( pc.item[ BattleItemNo ].target ){

  00710	69 05 00 00 00
	00 7c 01 00 00	 imul	 eax, DWORD PTR ?BattleItemNo@@3HA, 380 ; BattleItemNo
  0071a	0f bf 88 a4 01
	00 00		 movsx	 ecx, WORD PTR ?pc@@3UPC@@A[eax+420]
  00721	89 8d 18 fe ff
	ff		 mov	 DWORD PTR tv277[ebp], ecx
  00727	83 bd 18 fe ff
	ff 07		 cmp	 DWORD PTR tv277[ebp], 7
  0072e	0f 87 11 02 00
	00		 ja	 $LN6@BattleTarg
  00734	8b 95 18 fe ff
	ff		 mov	 edx, DWORD PTR tv277[ebp]
  0073a	ff 24 95 00 00
	00 00		 jmp	 DWORD PTR $LN135@BattleTarg[edx*4]
$LN68@BattleTarg:

; 2942 : 				case ITEM_TARGET_MYSELF:
; 2943 : 				case ITEM_TARGET_OTHER:
; 2944 : 				case ITEM_TARGET_OTHERWITHOUTMYSELF:
; 2945 : 				case ITEM_TARGET_WITHOUTMYSELFANDPET:
; 2946 : 					sprintf( moji,"I|%X|%X", BattleItemNo, targetNo );

  00741	8b 85 ec fe ff
	ff		 mov	 eax, DWORD PTR _targetNo$[ebp]
  00747	50		 push	 eax
  00748	8b 0d 00 00 00
	00		 mov	 ecx, DWORD PTR ?BattleItemNo@@3HA ; BattleItemNo
  0074e	51		 push	 ecx
  0074f	68 00 00 00 00	 push	 OFFSET ??_C@_07LFMIBPPD@I?$HM?$CFX?$HM?$CFX?$AA@
  00754	8d 95 f8 fe ff
	ff		 lea	 edx, DWORD PTR _moji$[ebp]
  0075a	52		 push	 edx
  0075b	e8 00 00 00 00	 call	 _sprintf
  00760	83 c4 10	 add	 esp, 16			; 00000010H

; 2947 : 
; 2948 : 					if( bNewServer)

  00763	83 3d 00 00 00
	00 00		 cmp	 DWORD PTR ?bNewServer@@3HA, 0 ; bNewServer
  0076a	74 18		 je	 SHORT $LN69@BattleTarg

; 2949 : 						lssproto_B_send( sockfd, moji );

  0076c	8d 85 f8 fe ff
	ff		 lea	 eax, DWORD PTR _moji$[ebp]
  00772	50		 push	 eax
  00773	8b 0d 00 00 00
	00		 mov	 ecx, DWORD PTR ?sockfd@@3IA ; sockfd
  00779	51		 push	 ecx
  0077a	e8 00 00 00 00	 call	 ?lssproto_B_send@@YAXHPAD@Z ; lssproto_B_send
  0077f	83 c4 08	 add	 esp, 8

; 2950 : 					else

  00782	eb 16		 jmp	 SHORT $LN70@BattleTarg
$LN69@BattleTarg:

; 2951 : 						old_lssproto_B_send( sockfd, moji );

  00784	8d 85 f8 fe ff
	ff		 lea	 eax, DWORD PTR _moji$[ebp]
  0078a	50		 push	 eax
  0078b	8b 0d 00 00 00
	00		 mov	 ecx, DWORD PTR ?sockfd@@3IA ; sockfd
  00791	51		 push	 ecx
  00792	e8 00 00 00 00	 call	 ?old_lssproto_B_send@@YAXHPAD@Z ; old_lssproto_B_send
  00797	83 c4 08	 add	 esp, 8
$LN70@BattleTarg:

; 2952 : 
; 2953 : 					play_se( 217, 320, 240 );

  0079a	68 f0 00 00 00	 push	 240			; 000000f0H
  0079f	68 40 01 00 00	 push	 320			; 00000140H
  007a4	68 d9 00 00 00	 push	 217			; 000000d9H
  007a9	e8 00 00 00 00	 call	 ?play_se@@YAHHHH@Z	; play_se
  007ae	83 c4 0c	 add	 esp, 12			; 0000000cH

; 2954 : 					break;

  007b1	e9 8f 01 00 00	 jmp	 $LN6@BattleTarg
$LN71@BattleTarg:

; 2955 : 					
; 2956 : 				case ITEM_TARGET_ALLMYSIDE:
; 2957 : 
; 2958 : 					if( BattleMyNo < 10 ) no = 20;

  007b6	83 3d 00 00 00
	00 0a		 cmp	 DWORD PTR ?BattleMyNo@@3HA, 10 ; BattleMyNo, 0000000aH
  007bd	7d 0c		 jge	 SHORT $LN72@BattleTarg
  007bf	c7 85 e0 fe ff
	ff 14 00 00 00	 mov	 DWORD PTR _no$[ebp], 20	; 00000014H
  007c9	eb 0a		 jmp	 SHORT $LN73@BattleTarg
$LN72@BattleTarg:

; 2959 : 					else no = 21;

  007cb	c7 85 e0 fe ff
	ff 15 00 00 00	 mov	 DWORD PTR _no$[ebp], 21	; 00000015H
$LN73@BattleTarg:

; 2960 : 
; 2961 : 					sprintf( moji,"I|%X|%X", BattleItemNo, no );

  007d5	8b 85 e0 fe ff
	ff		 mov	 eax, DWORD PTR _no$[ebp]
  007db	50		 push	 eax
  007dc	8b 0d 00 00 00
	00		 mov	 ecx, DWORD PTR ?BattleItemNo@@3HA ; BattleItemNo
  007e2	51		 push	 ecx
  007e3	68 00 00 00 00	 push	 OFFSET ??_C@_07LFMIBPPD@I?$HM?$CFX?$HM?$CFX?$AA@
  007e8	8d 95 f8 fe ff
	ff		 lea	 edx, DWORD PTR _moji$[ebp]
  007ee	52		 push	 edx
  007ef	e8 00 00 00 00	 call	 _sprintf
  007f4	83 c4 10	 add	 esp, 16			; 00000010H

; 2962 : 
; 2963 : 					if( bNewServer)

  007f7	83 3d 00 00 00
	00 00		 cmp	 DWORD PTR ?bNewServer@@3HA, 0 ; bNewServer
  007fe	74 18		 je	 SHORT $LN74@BattleTarg

; 2964 : 						lssproto_B_send( sockfd, moji );

  00800	8d 85 f8 fe ff
	ff		 lea	 eax, DWORD PTR _moji$[ebp]
  00806	50		 push	 eax
  00807	8b 0d 00 00 00
	00		 mov	 ecx, DWORD PTR ?sockfd@@3IA ; sockfd
  0080d	51		 push	 ecx
  0080e	e8 00 00 00 00	 call	 ?lssproto_B_send@@YAXHPAD@Z ; lssproto_B_send
  00813	83 c4 08	 add	 esp, 8

; 2965 : 					else

  00816	eb 16		 jmp	 SHORT $LN75@BattleTarg
$LN74@BattleTarg:

; 2966 : 						old_lssproto_B_send( sockfd, moji );

  00818	8d 85 f8 fe ff
	ff		 lea	 eax, DWORD PTR _moji$[ebp]
  0081e	50		 push	 eax
  0081f	8b 0d 00 00 00
	00		 mov	 ecx, DWORD PTR ?sockfd@@3IA ; sockfd
  00825	51		 push	 ecx
  00826	e8 00 00 00 00	 call	 ?old_lssproto_B_send@@YAXHPAD@Z ; old_lssproto_B_send
  0082b	83 c4 08	 add	 esp, 8
$LN75@BattleTarg:

; 2967 : 
; 2968 : 					play_se( 217, 320, 240 );

  0082e	68 f0 00 00 00	 push	 240			; 000000f0H
  00833	68 40 01 00 00	 push	 320			; 00000140H
  00838	68 d9 00 00 00	 push	 217			; 000000d9H
  0083d	e8 00 00 00 00	 call	 ?play_se@@YAHHHH@Z	; play_se
  00842	83 c4 0c	 add	 esp, 12			; 0000000cH

; 2969 : 					break;

  00845	e9 fb 00 00 00	 jmp	 $LN6@BattleTarg
$LN76@BattleTarg:

; 2970 : 					
; 2971 : 				case ITEM_TARGET_ALLOTHERSIDE:
; 2972 : 
; 2973 : 					if( BattleMyNo < 10 ) no = 21;

  0084a	83 3d 00 00 00
	00 0a		 cmp	 DWORD PTR ?BattleMyNo@@3HA, 10 ; BattleMyNo, 0000000aH
  00851	7d 0c		 jge	 SHORT $LN77@BattleTarg
  00853	c7 85 e0 fe ff
	ff 15 00 00 00	 mov	 DWORD PTR _no$[ebp], 21	; 00000015H
  0085d	eb 0a		 jmp	 SHORT $LN78@BattleTarg
$LN77@BattleTarg:

; 2974 : 					else no = 20;

  0085f	c7 85 e0 fe ff
	ff 14 00 00 00	 mov	 DWORD PTR _no$[ebp], 20	; 00000014H
$LN78@BattleTarg:

; 2975 : 
; 2976 : 					sprintf( moji,"I|%X|%X", BattleItemNo, no );

  00869	8b 85 e0 fe ff
	ff		 mov	 eax, DWORD PTR _no$[ebp]
  0086f	50		 push	 eax
  00870	8b 0d 00 00 00
	00		 mov	 ecx, DWORD PTR ?BattleItemNo@@3HA ; BattleItemNo
  00876	51		 push	 ecx
  00877	68 00 00 00 00	 push	 OFFSET ??_C@_07LFMIBPPD@I?$HM?$CFX?$HM?$CFX?$AA@
  0087c	8d 95 f8 fe ff
	ff		 lea	 edx, DWORD PTR _moji$[ebp]
  00882	52		 push	 edx
  00883	e8 00 00 00 00	 call	 _sprintf
  00888	83 c4 10	 add	 esp, 16			; 00000010H

; 2977 : 
; 2978 : 					if( bNewServer)

  0088b	83 3d 00 00 00
	00 00		 cmp	 DWORD PTR ?bNewServer@@3HA, 0 ; bNewServer
  00892	74 18		 je	 SHORT $LN79@BattleTarg

; 2979 : 						lssproto_B_send( sockfd, moji );

  00894	8d 85 f8 fe ff
	ff		 lea	 eax, DWORD PTR _moji$[ebp]
  0089a	50		 push	 eax
  0089b	8b 0d 00 00 00
	00		 mov	 ecx, DWORD PTR ?sockfd@@3IA ; sockfd
  008a1	51		 push	 ecx
  008a2	e8 00 00 00 00	 call	 ?lssproto_B_send@@YAXHPAD@Z ; lssproto_B_send
  008a7	83 c4 08	 add	 esp, 8

; 2980 : 					else

  008aa	eb 16		 jmp	 SHORT $LN80@BattleTarg
$LN79@BattleTarg:

; 2981 : 						old_lssproto_B_send( sockfd, moji );

  008ac	8d 85 f8 fe ff
	ff		 lea	 eax, DWORD PTR _moji$[ebp]
  008b2	50		 push	 eax
  008b3	8b 0d 00 00 00
	00		 mov	 ecx, DWORD PTR ?sockfd@@3IA ; sockfd
  008b9	51		 push	 ecx
  008ba	e8 00 00 00 00	 call	 ?old_lssproto_B_send@@YAXHPAD@Z ; old_lssproto_B_send
  008bf	83 c4 08	 add	 esp, 8
$LN80@BattleTarg:

; 2982 : 
; 2983 : 					play_se( 217, 320, 240 );

  008c2	68 f0 00 00 00	 push	 240			; 000000f0H
  008c7	68 40 01 00 00	 push	 320			; 00000140H
  008cc	68 d9 00 00 00	 push	 217			; 000000d9H
  008d1	e8 00 00 00 00	 call	 ?play_se@@YAHHHH@Z	; play_se
  008d6	83 c4 0c	 add	 esp, 12			; 0000000cH

; 2984 : 					break;

  008d9	eb 6a		 jmp	 SHORT $LN6@BattleTarg
$LN81@BattleTarg:

; 2985 : 					
; 2986 : 				case ITEM_TARGET_ALL:
; 2987 : 
; 2988 : 					sprintf( moji,"I|%X|%X", BattleItemNo, 22 );

  008db	6a 16		 push	 22			; 00000016H
  008dd	a1 00 00 00 00	 mov	 eax, DWORD PTR ?BattleItemNo@@3HA ; BattleItemNo
  008e2	50		 push	 eax
  008e3	68 00 00 00 00	 push	 OFFSET ??_C@_07LFMIBPPD@I?$HM?$CFX?$HM?$CFX?$AA@
  008e8	8d 8d f8 fe ff
	ff		 lea	 ecx, DWORD PTR _moji$[ebp]
  008ee	51		 push	 ecx
  008ef	e8 00 00 00 00	 call	 _sprintf
  008f4	83 c4 10	 add	 esp, 16			; 00000010H

; 2989 : 
; 2990 : 					if( bNewServer)

  008f7	83 3d 00 00 00
	00 00		 cmp	 DWORD PTR ?bNewServer@@3HA, 0 ; bNewServer
  008fe	74 18		 je	 SHORT $LN82@BattleTarg

; 2991 : 						lssproto_B_send( sockfd, moji );

  00900	8d 85 f8 fe ff
	ff		 lea	 eax, DWORD PTR _moji$[ebp]
  00906	50		 push	 eax
  00907	8b 0d 00 00 00
	00		 mov	 ecx, DWORD PTR ?sockfd@@3IA ; sockfd
  0090d	51		 push	 ecx
  0090e	e8 00 00 00 00	 call	 ?lssproto_B_send@@YAXHPAD@Z ; lssproto_B_send
  00913	83 c4 08	 add	 esp, 8

; 2992 : 					else

  00916	eb 16		 jmp	 SHORT $LN83@BattleTarg
$LN82@BattleTarg:

; 2993 : 						old_lssproto_B_send( sockfd, moji );

  00918	8d 85 f8 fe ff
	ff		 lea	 eax, DWORD PTR _moji$[ebp]
  0091e	50		 push	 eax
  0091f	8b 0d 00 00 00
	00		 mov	 ecx, DWORD PTR ?sockfd@@3IA ; sockfd
  00925	51		 push	 ecx
  00926	e8 00 00 00 00	 call	 ?old_lssproto_B_send@@YAXHPAD@Z ; old_lssproto_B_send
  0092b	83 c4 08	 add	 esp, 8
$LN83@BattleTarg:

; 2994 : 
; 2995 : 					play_se( 217, 320, 240 );

  0092e	68 f0 00 00 00	 push	 240			; 000000f0H
  00933	68 40 01 00 00	 push	 320			; 00000140H
  00938	68 d9 00 00 00	 push	 217			; 000000d9H
  0093d	e8 00 00 00 00	 call	 ?play_se@@YAHHHH@Z	; play_se
  00942	83 c4 0c	 add	 esp, 12			; 0000000cH
$LN6@BattleTarg:

; 2996 : 					break;
; 2997 : 				}
; 2998 : 				break;

  00945	e9 2c 06 00 00	 jmp	 $LN2@BattleTarg
$LN84@BattleTarg:

; 2999 : 
; 3000 : 				//Change note 宠技选择对象后送出封包
; 3001 : 			case BATTLE_WAZA:
; 3002 : 				switch( petSkill[ battlePetNoBak ][ BattleWazaNo ].target ){

  0094a	69 05 00 00 00
	00 e6 02 00 00	 imul	 eax, DWORD PTR ?battlePetNoBak@@3HA, 742 ; battlePetNoBak
  00954	6b 0d 00 00 00
	00 6a		 imul	 ecx, DWORD PTR ?BattleWazaNo@@3HA, 106 ; BattleWazaNo
  0095b	0f bf 94 08 06
	00 00 00	 movsx	 edx, WORD PTR ?petSkill@@3PAY06UPET_SKILL@@A[eax+ecx+6]
  00963	89 95 18 fe ff
	ff		 mov	 DWORD PTR tv335[ebp], edx
  00969	83 bd 18 fe ff
	ff 0c		 cmp	 DWORD PTR tv335[ebp], 12 ; 0000000cH
  00970	0f 87 7c 03 00
	00		 ja	 $LN8@BattleTarg
  00976	8b 85 18 fe ff
	ff		 mov	 eax, DWORD PTR tv335[ebp]
  0097c	0f b6 88 00 00
	00 00		 movzx	 ecx, BYTE PTR $LN128@BattleTarg[eax]
  00983	ff 24 8d 00 00
	00 00		 jmp	 DWORD PTR $LN136@BattleTarg[ecx*4]
$LN85@BattleTarg:

; 3003 : 				case PETSKILL_TARGET_MYSELF:
; 3004 : 				case PETSKILL_TARGET_OTHER:
; 3005 : 				case PETSKILL_TARGET_OTHERWITHOUTMYSELF:
; 3006 : 				case PETSKILL_TARGET_WITHOUTMYSELFANDPET:
; 3007 : #ifdef _BATTLESKILL
; 3008 : 				case PETSKILL_TARGER_DEATH:
; 3009 : #endif
; 3010 : 					sprintf( moji,"W|%X|%X", BattleWazaNo, targetNo );

  0098a	8b 85 ec fe ff
	ff		 mov	 eax, DWORD PTR _targetNo$[ebp]
  00990	50		 push	 eax
  00991	8b 0d 00 00 00
	00		 mov	 ecx, DWORD PTR ?BattleWazaNo@@3HA ; BattleWazaNo
  00997	51		 push	 ecx
  00998	68 00 00 00 00	 push	 OFFSET ??_C@_07NMPJDMOK@W?$HM?$CFX?$HM?$CFX?$AA@
  0099d	8d 95 f8 fe ff
	ff		 lea	 edx, DWORD PTR _moji$[ebp]
  009a3	52		 push	 edx
  009a4	e8 00 00 00 00	 call	 _sprintf
  009a9	83 c4 10	 add	 esp, 16			; 00000010H

; 3011 : 
; 3012 : 					if( bNewServer)

  009ac	83 3d 00 00 00
	00 00		 cmp	 DWORD PTR ?bNewServer@@3HA, 0 ; bNewServer
  009b3	74 18		 je	 SHORT $LN86@BattleTarg

; 3013 : 						lssproto_B_send( sockfd, moji );

  009b5	8d 85 f8 fe ff
	ff		 lea	 eax, DWORD PTR _moji$[ebp]
  009bb	50		 push	 eax
  009bc	8b 0d 00 00 00
	00		 mov	 ecx, DWORD PTR ?sockfd@@3IA ; sockfd
  009c2	51		 push	 ecx
  009c3	e8 00 00 00 00	 call	 ?lssproto_B_send@@YAXHPAD@Z ; lssproto_B_send
  009c8	83 c4 08	 add	 esp, 8

; 3014 : 					else

  009cb	eb 16		 jmp	 SHORT $LN87@BattleTarg
$LN86@BattleTarg:

; 3015 : 						old_lssproto_B_send( sockfd, moji );

  009cd	8d 85 f8 fe ff
	ff		 lea	 eax, DWORD PTR _moji$[ebp]
  009d3	50		 push	 eax
  009d4	8b 0d 00 00 00
	00		 mov	 ecx, DWORD PTR ?sockfd@@3IA ; sockfd
  009da	51		 push	 ecx
  009db	e8 00 00 00 00	 call	 ?old_lssproto_B_send@@YAXHPAD@Z ; old_lssproto_B_send
  009e0	83 c4 08	 add	 esp, 8
$LN87@BattleTarg:

; 3016 : 
; 3017 : 					play_se( 217, 320, 240 );

  009e3	68 f0 00 00 00	 push	 240			; 000000f0H
  009e8	68 40 01 00 00	 push	 320			; 00000140H
  009ed	68 d9 00 00 00	 push	 217			; 000000d9H
  009f2	e8 00 00 00 00	 call	 ?play_se@@YAHHHH@Z	; play_se
  009f7	83 c4 0c	 add	 esp, 12			; 0000000cH

; 3018 : 					break;

  009fa	e9 f3 02 00 00	 jmp	 $LN8@BattleTarg
$LN88@BattleTarg:

; 3019 : 					
; 3020 : 				case PETSKILL_TARGET_ALLMYSIDE:
; 3021 : 
; 3022 : 					if( BattleMyNo < 10 ) no = 20;

  009ff	83 3d 00 00 00
	00 0a		 cmp	 DWORD PTR ?BattleMyNo@@3HA, 10 ; BattleMyNo, 0000000aH
  00a06	7d 0c		 jge	 SHORT $LN89@BattleTarg
  00a08	c7 85 e0 fe ff
	ff 14 00 00 00	 mov	 DWORD PTR _no$[ebp], 20	; 00000014H
  00a12	eb 0a		 jmp	 SHORT $LN90@BattleTarg
$LN89@BattleTarg:

; 3023 : 					else no = 21;

  00a14	c7 85 e0 fe ff
	ff 15 00 00 00	 mov	 DWORD PTR _no$[ebp], 21	; 00000015H
$LN90@BattleTarg:

; 3024 : 
; 3025 : 					sprintf( moji,"W|%X|%X", BattleWazaNo, no );

  00a1e	8b 85 e0 fe ff
	ff		 mov	 eax, DWORD PTR _no$[ebp]
  00a24	50		 push	 eax
  00a25	8b 0d 00 00 00
	00		 mov	 ecx, DWORD PTR ?BattleWazaNo@@3HA ; BattleWazaNo
  00a2b	51		 push	 ecx
  00a2c	68 00 00 00 00	 push	 OFFSET ??_C@_07NMPJDMOK@W?$HM?$CFX?$HM?$CFX?$AA@
  00a31	8d 95 f8 fe ff
	ff		 lea	 edx, DWORD PTR _moji$[ebp]
  00a37	52		 push	 edx
  00a38	e8 00 00 00 00	 call	 _sprintf
  00a3d	83 c4 10	 add	 esp, 16			; 00000010H

; 3026 : 
; 3027 : 					if( bNewServer)

  00a40	83 3d 00 00 00
	00 00		 cmp	 DWORD PTR ?bNewServer@@3HA, 0 ; bNewServer
  00a47	74 18		 je	 SHORT $LN91@BattleTarg

; 3028 : 						lssproto_B_send( sockfd, moji );

  00a49	8d 85 f8 fe ff
	ff		 lea	 eax, DWORD PTR _moji$[ebp]
  00a4f	50		 push	 eax
  00a50	8b 0d 00 00 00
	00		 mov	 ecx, DWORD PTR ?sockfd@@3IA ; sockfd
  00a56	51		 push	 ecx
  00a57	e8 00 00 00 00	 call	 ?lssproto_B_send@@YAXHPAD@Z ; lssproto_B_send
  00a5c	83 c4 08	 add	 esp, 8

; 3029 : 					else

  00a5f	eb 16		 jmp	 SHORT $LN92@BattleTarg
$LN91@BattleTarg:

; 3030 : 						old_lssproto_B_send( sockfd, moji );

  00a61	8d 85 f8 fe ff
	ff		 lea	 eax, DWORD PTR _moji$[ebp]
  00a67	50		 push	 eax
  00a68	8b 0d 00 00 00
	00		 mov	 ecx, DWORD PTR ?sockfd@@3IA ; sockfd
  00a6e	51		 push	 ecx
  00a6f	e8 00 00 00 00	 call	 ?old_lssproto_B_send@@YAXHPAD@Z ; old_lssproto_B_send
  00a74	83 c4 08	 add	 esp, 8
$LN92@BattleTarg:

; 3031 : 
; 3032 : 					play_se( 217, 320, 240 );

  00a77	68 f0 00 00 00	 push	 240			; 000000f0H
  00a7c	68 40 01 00 00	 push	 320			; 00000140H
  00a81	68 d9 00 00 00	 push	 217			; 000000d9H
  00a86	e8 00 00 00 00	 call	 ?play_se@@YAHHHH@Z	; play_se
  00a8b	83 c4 0c	 add	 esp, 12			; 0000000cH

; 3033 : 					break;

  00a8e	e9 5f 02 00 00	 jmp	 $LN8@BattleTarg
$LN93@BattleTarg:

; 3034 : 					
; 3035 : 				case PETSKILL_TARGET_ALLOTHERSIDE:
; 3036 : 				
; 3037 : 					if( BattleMyNo < 10 ) no = 21;

  00a93	83 3d 00 00 00
	00 0a		 cmp	 DWORD PTR ?BattleMyNo@@3HA, 10 ; BattleMyNo, 0000000aH
  00a9a	7d 0c		 jge	 SHORT $LN94@BattleTarg
  00a9c	c7 85 e0 fe ff
	ff 15 00 00 00	 mov	 DWORD PTR _no$[ebp], 21	; 00000015H
  00aa6	eb 0a		 jmp	 SHORT $LN95@BattleTarg
$LN94@BattleTarg:

; 3038 : 					else no = 20;

  00aa8	c7 85 e0 fe ff
	ff 14 00 00 00	 mov	 DWORD PTR _no$[ebp], 20	; 00000014H
$LN95@BattleTarg:

; 3039 : 
; 3040 : 					sprintf( moji,"W|%X|%X", BattleWazaNo, no );

  00ab2	8b 85 e0 fe ff
	ff		 mov	 eax, DWORD PTR _no$[ebp]
  00ab8	50		 push	 eax
  00ab9	8b 0d 00 00 00
	00		 mov	 ecx, DWORD PTR ?BattleWazaNo@@3HA ; BattleWazaNo
  00abf	51		 push	 ecx
  00ac0	68 00 00 00 00	 push	 OFFSET ??_C@_07NMPJDMOK@W?$HM?$CFX?$HM?$CFX?$AA@
  00ac5	8d 95 f8 fe ff
	ff		 lea	 edx, DWORD PTR _moji$[ebp]
  00acb	52		 push	 edx
  00acc	e8 00 00 00 00	 call	 _sprintf
  00ad1	83 c4 10	 add	 esp, 16			; 00000010H

; 3041 : 
; 3042 : 					if( bNewServer)

  00ad4	83 3d 00 00 00
	00 00		 cmp	 DWORD PTR ?bNewServer@@3HA, 0 ; bNewServer
  00adb	74 18		 je	 SHORT $LN96@BattleTarg

; 3043 : 						lssproto_B_send( sockfd, moji );

  00add	8d 85 f8 fe ff
	ff		 lea	 eax, DWORD PTR _moji$[ebp]
  00ae3	50		 push	 eax
  00ae4	8b 0d 00 00 00
	00		 mov	 ecx, DWORD PTR ?sockfd@@3IA ; sockfd
  00aea	51		 push	 ecx
  00aeb	e8 00 00 00 00	 call	 ?lssproto_B_send@@YAXHPAD@Z ; lssproto_B_send
  00af0	83 c4 08	 add	 esp, 8

; 3044 : 					else

  00af3	eb 16		 jmp	 SHORT $LN97@BattleTarg
$LN96@BattleTarg:

; 3045 : 						old_lssproto_B_send( sockfd, moji );

  00af5	8d 85 f8 fe ff
	ff		 lea	 eax, DWORD PTR _moji$[ebp]
  00afb	50		 push	 eax
  00afc	8b 0d 00 00 00
	00		 mov	 ecx, DWORD PTR ?sockfd@@3IA ; sockfd
  00b02	51		 push	 ecx
  00b03	e8 00 00 00 00	 call	 ?old_lssproto_B_send@@YAXHPAD@Z ; old_lssproto_B_send
  00b08	83 c4 08	 add	 esp, 8
$LN97@BattleTarg:

; 3046 : 
; 3047 : 					play_se( 217, 320, 240 );

  00b0b	68 f0 00 00 00	 push	 240			; 000000f0H
  00b10	68 40 01 00 00	 push	 320			; 00000140H
  00b15	68 d9 00 00 00	 push	 217			; 000000d9H
  00b1a	e8 00 00 00 00	 call	 ?play_se@@YAHHHH@Z	; play_se
  00b1f	83 c4 0c	 add	 esp, 12			; 0000000cH

; 3048 : 					break;

  00b22	e9 cb 01 00 00	 jmp	 $LN8@BattleTarg
$LN98@BattleTarg:

; 3049 : 					
; 3050 : 				case PETSKILL_TARGET_ALL:
; 3051 : 
; 3052 : 					sprintf( moji,"W|%X|%X", BattleWazaNo, 22 );

  00b27	6a 16		 push	 22			; 00000016H
  00b29	a1 00 00 00 00	 mov	 eax, DWORD PTR ?BattleWazaNo@@3HA ; BattleWazaNo
  00b2e	50		 push	 eax
  00b2f	68 00 00 00 00	 push	 OFFSET ??_C@_07NMPJDMOK@W?$HM?$CFX?$HM?$CFX?$AA@
  00b34	8d 8d f8 fe ff
	ff		 lea	 ecx, DWORD PTR _moji$[ebp]
  00b3a	51		 push	 ecx
  00b3b	e8 00 00 00 00	 call	 _sprintf
  00b40	83 c4 10	 add	 esp, 16			; 00000010H

; 3053 : 
; 3054 : 					if( bNewServer)

  00b43	83 3d 00 00 00
	00 00		 cmp	 DWORD PTR ?bNewServer@@3HA, 0 ; bNewServer
  00b4a	74 18		 je	 SHORT $LN99@BattleTarg

; 3055 : 						lssproto_B_send( sockfd, moji );

  00b4c	8d 85 f8 fe ff
	ff		 lea	 eax, DWORD PTR _moji$[ebp]
  00b52	50		 push	 eax
  00b53	8b 0d 00 00 00
	00		 mov	 ecx, DWORD PTR ?sockfd@@3IA ; sockfd
  00b59	51		 push	 ecx
  00b5a	e8 00 00 00 00	 call	 ?lssproto_B_send@@YAXHPAD@Z ; lssproto_B_send
  00b5f	83 c4 08	 add	 esp, 8

; 3056 : 					else

  00b62	eb 16		 jmp	 SHORT $LN100@BattleTarg
$LN99@BattleTarg:

; 3057 : 						old_lssproto_B_send( sockfd, moji );

  00b64	8d 85 f8 fe ff
	ff		 lea	 eax, DWORD PTR _moji$[ebp]
  00b6a	50		 push	 eax
  00b6b	8b 0d 00 00 00
	00		 mov	 ecx, DWORD PTR ?sockfd@@3IA ; sockfd
  00b71	51		 push	 ecx
  00b72	e8 00 00 00 00	 call	 ?old_lssproto_B_send@@YAXHPAD@Z ; old_lssproto_B_send
  00b77	83 c4 08	 add	 esp, 8
$LN100@BattleTarg:

; 3058 : 
; 3059 : 					play_se( 217, 320, 240 );

  00b7a	68 f0 00 00 00	 push	 240			; 000000f0H
  00b7f	68 40 01 00 00	 push	 320			; 00000140H
  00b84	68 d9 00 00 00	 push	 217			; 000000d9H
  00b89	e8 00 00 00 00	 call	 ?play_se@@YAHHHH@Z	; play_se
  00b8e	83 c4 0c	 add	 esp, 12			; 0000000cH

; 3060 : 					break;

  00b91	e9 5c 01 00 00	 jmp	 $LN8@BattleTarg
$LN101@BattleTarg:

; 3061 : #ifdef _BATTLESKILL
; 3062 : 				case PETSKILL_TARGET_ONE_ROW:
; 3063 : #endif
; 3064 : #ifdef _SKILL_ADDBARRIER
; 3065 : 				case PETSKILL_TARGET_ONE_ROW_ALL:
; 3066 : #endif
; 3067 : 					if ( targetNo >= 0 && targetNo < 5 ) no = 26 ; 

  00b96	83 bd ec fe ff
	ff 00		 cmp	 DWORD PTR _targetNo$[ebp], 0
  00b9d	7c 13		 jl	 SHORT $LN102@BattleTarg
  00b9f	83 bd ec fe ff
	ff 05		 cmp	 DWORD PTR _targetNo$[ebp], 5
  00ba6	7d 0a		 jge	 SHORT $LN102@BattleTarg
  00ba8	c7 85 e0 fe ff
	ff 1a 00 00 00	 mov	 DWORD PTR _no$[ebp], 26	; 0000001aH
$LN102@BattleTarg:

; 3068 : 					if ( targetNo >= 5 && targetNo < 10 ) no = 25 ; 

  00bb2	83 bd ec fe ff
	ff 05		 cmp	 DWORD PTR _targetNo$[ebp], 5
  00bb9	7c 13		 jl	 SHORT $LN103@BattleTarg
  00bbb	83 bd ec fe ff
	ff 0a		 cmp	 DWORD PTR _targetNo$[ebp], 10 ; 0000000aH
  00bc2	7d 0a		 jge	 SHORT $LN103@BattleTarg
  00bc4	c7 85 e0 fe ff
	ff 19 00 00 00	 mov	 DWORD PTR _no$[ebp], 25	; 00000019H
$LN103@BattleTarg:

; 3069 : 					if ( targetNo >= 10 && targetNo < 15 ) no = 23 ; 

  00bce	83 bd ec fe ff
	ff 0a		 cmp	 DWORD PTR _targetNo$[ebp], 10 ; 0000000aH
  00bd5	7c 13		 jl	 SHORT $LN104@BattleTarg
  00bd7	83 bd ec fe ff
	ff 0f		 cmp	 DWORD PTR _targetNo$[ebp], 15 ; 0000000fH
  00bde	7d 0a		 jge	 SHORT $LN104@BattleTarg
  00be0	c7 85 e0 fe ff
	ff 17 00 00 00	 mov	 DWORD PTR _no$[ebp], 23	; 00000017H
$LN104@BattleTarg:

; 3070 : 					if ( targetNo >= 15 && targetNo < 20 ) no = 24 ; 

  00bea	83 bd ec fe ff
	ff 0f		 cmp	 DWORD PTR _targetNo$[ebp], 15 ; 0000000fH
  00bf1	7c 13		 jl	 SHORT $LN105@BattleTarg
  00bf3	83 bd ec fe ff
	ff 14		 cmp	 DWORD PTR _targetNo$[ebp], 20 ; 00000014H
  00bfa	7d 0a		 jge	 SHORT $LN105@BattleTarg
  00bfc	c7 85 e0 fe ff
	ff 18 00 00 00	 mov	 DWORD PTR _no$[ebp], 24	; 00000018H
$LN105@BattleTarg:

; 3071 : 					sprintf( moji,"W|%X|%X", BattleWazaNo, no );

  00c06	8b 85 e0 fe ff
	ff		 mov	 eax, DWORD PTR _no$[ebp]
  00c0c	50		 push	 eax
  00c0d	8b 0d 00 00 00
	00		 mov	 ecx, DWORD PTR ?BattleWazaNo@@3HA ; BattleWazaNo
  00c13	51		 push	 ecx
  00c14	68 00 00 00 00	 push	 OFFSET ??_C@_07NMPJDMOK@W?$HM?$CFX?$HM?$CFX?$AA@
  00c19	8d 95 f8 fe ff
	ff		 lea	 edx, DWORD PTR _moji$[ebp]
  00c1f	52		 push	 edx
  00c20	e8 00 00 00 00	 call	 _sprintf
  00c25	83 c4 10	 add	 esp, 16			; 00000010H

; 3072 : 					lssproto_B_send( sockfd, moji );

  00c28	8d 85 f8 fe ff
	ff		 lea	 eax, DWORD PTR _moji$[ebp]
  00c2e	50		 push	 eax
  00c2f	8b 0d 00 00 00
	00		 mov	 ecx, DWORD PTR ?sockfd@@3IA ; sockfd
  00c35	51		 push	 ecx
  00c36	e8 00 00 00 00	 call	 ?lssproto_B_send@@YAXHPAD@Z ; lssproto_B_send
  00c3b	83 c4 08	 add	 esp, 8

; 3073 : 					play_se( 217, 320, 240 );

  00c3e	68 f0 00 00 00	 push	 240			; 000000f0H
  00c43	68 40 01 00 00	 push	 320			; 00000140H
  00c48	68 d9 00 00 00	 push	 217			; 000000d9H
  00c4d	e8 00 00 00 00	 call	 ?play_se@@YAHHHH@Z	; play_se
  00c52	83 c4 0c	 add	 esp, 12			; 0000000cH

; 3074 : 					break;

  00c55	e9 98 00 00 00	 jmp	 $LN8@BattleTarg
$LN106@BattleTarg:

; 3075 : 				case PETSKILL_TARGET_WHOLEOTHERSIDE:
; 3076 : 					if (targetNo >= 0 && targetNo < 10)

  00c5a	83 bd ec fe ff
	ff 00		 cmp	 DWORD PTR _targetNo$[ebp], 0
  00c61	7c 15		 jl	 SHORT $LN107@BattleTarg
  00c63	83 bd ec fe ff
	ff 0a		 cmp	 DWORD PTR _targetNo$[ebp], 10 ; 0000000aH
  00c6a	7d 0c		 jge	 SHORT $LN107@BattleTarg

; 3077 : 						no = 20;

  00c6c	c7 85 e0 fe ff
	ff 14 00 00 00	 mov	 DWORD PTR _no$[ebp], 20	; 00000014H

; 3078 : 					else

  00c76	eb 0a		 jmp	 SHORT $LN108@BattleTarg
$LN107@BattleTarg:

; 3079 : 						no = 21;

  00c78	c7 85 e0 fe ff
	ff 15 00 00 00	 mov	 DWORD PTR _no$[ebp], 21	; 00000015H
$LN108@BattleTarg:

; 3080 : 					sprintf(moji, "W|%X|%X", BattleWazaNo, no);

  00c82	8b 85 e0 fe ff
	ff		 mov	 eax, DWORD PTR _no$[ebp]
  00c88	50		 push	 eax
  00c89	8b 0d 00 00 00
	00		 mov	 ecx, DWORD PTR ?BattleWazaNo@@3HA ; BattleWazaNo
  00c8f	51		 push	 ecx
  00c90	68 00 00 00 00	 push	 OFFSET ??_C@_07NMPJDMOK@W?$HM?$CFX?$HM?$CFX?$AA@
  00c95	8d 95 f8 fe ff
	ff		 lea	 edx, DWORD PTR _moji$[ebp]
  00c9b	52		 push	 edx
  00c9c	e8 00 00 00 00	 call	 _sprintf
  00ca1	83 c4 10	 add	 esp, 16			; 00000010H

; 3081 : 
; 3082 : 					if (bNewServer)

  00ca4	83 3d 00 00 00
	00 00		 cmp	 DWORD PTR ?bNewServer@@3HA, 0 ; bNewServer
  00cab	74 18		 je	 SHORT $LN109@BattleTarg

; 3083 : 						lssproto_B_send(sockfd, moji);

  00cad	8d 85 f8 fe ff
	ff		 lea	 eax, DWORD PTR _moji$[ebp]
  00cb3	50		 push	 eax
  00cb4	8b 0d 00 00 00
	00		 mov	 ecx, DWORD PTR ?sockfd@@3IA ; sockfd
  00cba	51		 push	 ecx
  00cbb	e8 00 00 00 00	 call	 ?lssproto_B_send@@YAXHPAD@Z ; lssproto_B_send
  00cc0	83 c4 08	 add	 esp, 8

; 3084 : 					else

  00cc3	eb 16		 jmp	 SHORT $LN110@BattleTarg
$LN109@BattleTarg:

; 3085 : 						old_lssproto_B_send(sockfd, moji);

  00cc5	8d 85 f8 fe ff
	ff		 lea	 eax, DWORD PTR _moji$[ebp]
  00ccb	50		 push	 eax
  00ccc	8b 0d 00 00 00
	00		 mov	 ecx, DWORD PTR ?sockfd@@3IA ; sockfd
  00cd2	51		 push	 ecx
  00cd3	e8 00 00 00 00	 call	 ?old_lssproto_B_send@@YAXHPAD@Z ; old_lssproto_B_send
  00cd8	83 c4 08	 add	 esp, 8
$LN110@BattleTarg:

; 3086 : 
; 3087 : 					play_se(217, 320, 240);

  00cdb	68 f0 00 00 00	 push	 240			; 000000f0H
  00ce0	68 40 01 00 00	 push	 320			; 00000140H
  00ce5	68 d9 00 00 00	 push	 217			; 000000d9H
  00cea	e8 00 00 00 00	 call	 ?play_se@@YAHHHH@Z	; play_se
  00cef	83 c4 0c	 add	 esp, 12			; 0000000cH
$LN8@BattleTarg:

; 3088 : 					break;
; 3089 : 
; 3090 : 				}			
; 3091 : 
; 3092 : 			
; 3093 : 				break;

  00cf2	e9 7f 02 00 00	 jmp	 $LN2@BattleTarg
$LN111@BattleTarg:

; 3094 : 				
; 3095 : #ifdef _BATTLESKILL				// (不可开) Syu ADD 战斗技能介面
; 3096 : 				//Change note 职业技能选择对象后送出封包
; 3097 : 			case BATTLE_PROWAZA:
; 3098 : 				switch( profession_skill[prouseskill].target ){

  00cf7	69 05 00 00 00
	00 c0 00 00 00	 imul	 eax, DWORD PTR ?prouseskill@@3HA, 192 ; prouseskill
  00d01	0f bf 88 04 00
	00 00		 movsx	 ecx, WORD PTR ?profession_skill@@3PAUPROFESSION_SKILL@@A[eax+4]
  00d08	89 8d 18 fe ff
	ff		 mov	 DWORD PTR tv422[ebp], ecx
  00d0e	83 bd 18 fe ff
	ff 0b		 cmp	 DWORD PTR tv422[ebp], 11 ; 0000000bH
  00d15	0f 87 5b 02 00
	00		 ja	 $LN2@BattleTarg
  00d1b	8b 95 18 fe ff
	ff		 mov	 edx, DWORD PTR tv422[ebp]
  00d21	0f b6 82 00 00
	00 00		 movzx	 eax, BYTE PTR $LN129@BattleTarg[edx]
  00d28	ff 24 85 00 00
	00 00		 jmp	 DWORD PTR $LN137@BattleTarg[eax*4]
$LN112@BattleTarg:

; 3099 : 				case PETSKILL_TARGET_MYSELF:
; 3100 : 				case PETSKILL_TARGET_OTHER:
; 3101 : 				case PETSKILL_TARGET_OTHERWITHOUTMYSELF:
; 3102 : 				case PETSKILL_TARGET_WITHOUTMYSELFANDPET:
; 3103 : 				case PETSKILL_TARGET_ONE_LINE:
; 3104 : #ifdef _BATTLESKILL
; 3105 : 				case PETSKILL_TARGER_DEATH:
; 3106 : #endif
; 3107 : 					sprintf( moji,"P|%X|%X", prouseskill, targetNo );

  00d2f	8b 85 ec fe ff
	ff		 mov	 eax, DWORD PTR _targetNo$[ebp]
  00d35	50		 push	 eax
  00d36	8b 0d 00 00 00
	00		 mov	 ecx, DWORD PTR ?prouseskill@@3HA ; prouseskill
  00d3c	51		 push	 ecx
  00d3d	68 00 00 00 00	 push	 OFFSET ??_C@_07NGDMDFPD@P?$HM?$CFX?$HM?$CFX?$AA@
  00d42	8d 95 f8 fe ff
	ff		 lea	 edx, DWORD PTR _moji$[ebp]
  00d48	52		 push	 edx
  00d49	e8 00 00 00 00	 call	 _sprintf
  00d4e	83 c4 10	 add	 esp, 16			; 00000010H

; 3108 : 					lssproto_B_send( sockfd, moji );

  00d51	8d 85 f8 fe ff
	ff		 lea	 eax, DWORD PTR _moji$[ebp]
  00d57	50		 push	 eax
  00d58	8b 0d 00 00 00
	00		 mov	 ecx, DWORD PTR ?sockfd@@3IA ; sockfd
  00d5e	51		 push	 ecx
  00d5f	e8 00 00 00 00	 call	 ?lssproto_B_send@@YAXHPAD@Z ; lssproto_B_send
  00d64	83 c4 08	 add	 esp, 8

; 3109 : 					play_se( 217, 320, 240 );

  00d67	68 f0 00 00 00	 push	 240			; 000000f0H
  00d6c	68 40 01 00 00	 push	 320			; 00000140H
  00d71	68 d9 00 00 00	 push	 217			; 000000d9H
  00d76	e8 00 00 00 00	 call	 ?play_se@@YAHHHH@Z	; play_se
  00d7b	83 c4 0c	 add	 esp, 12			; 0000000cH

; 3110 : 					break;

  00d7e	e9 f3 01 00 00	 jmp	 $LN2@BattleTarg
$LN113@BattleTarg:

; 3111 : 				case PETSKILL_TARGET_ALLMYSIDE:
; 3112 : 					if( BattleMyNo < 10 ) no = 20;

  00d83	83 3d 00 00 00
	00 0a		 cmp	 DWORD PTR ?BattleMyNo@@3HA, 10 ; BattleMyNo, 0000000aH
  00d8a	7d 0c		 jge	 SHORT $LN114@BattleTarg
  00d8c	c7 85 e0 fe ff
	ff 14 00 00 00	 mov	 DWORD PTR _no$[ebp], 20	; 00000014H
  00d96	eb 0a		 jmp	 SHORT $LN115@BattleTarg
$LN114@BattleTarg:

; 3113 : 					else no = 21;

  00d98	c7 85 e0 fe ff
	ff 15 00 00 00	 mov	 DWORD PTR _no$[ebp], 21	; 00000015H
$LN115@BattleTarg:

; 3114 : 					sprintf( moji,"P|%X|%X", prouseskill, no );

  00da2	8b 85 e0 fe ff
	ff		 mov	 eax, DWORD PTR _no$[ebp]
  00da8	50		 push	 eax
  00da9	8b 0d 00 00 00
	00		 mov	 ecx, DWORD PTR ?prouseskill@@3HA ; prouseskill
  00daf	51		 push	 ecx
  00db0	68 00 00 00 00	 push	 OFFSET ??_C@_07NGDMDFPD@P?$HM?$CFX?$HM?$CFX?$AA@
  00db5	8d 95 f8 fe ff
	ff		 lea	 edx, DWORD PTR _moji$[ebp]
  00dbb	52		 push	 edx
  00dbc	e8 00 00 00 00	 call	 _sprintf
  00dc1	83 c4 10	 add	 esp, 16			; 00000010H

; 3115 : 					lssproto_B_send( sockfd, moji );

  00dc4	8d 85 f8 fe ff
	ff		 lea	 eax, DWORD PTR _moji$[ebp]
  00dca	50		 push	 eax
  00dcb	8b 0d 00 00 00
	00		 mov	 ecx, DWORD PTR ?sockfd@@3IA ; sockfd
  00dd1	51		 push	 ecx
  00dd2	e8 00 00 00 00	 call	 ?lssproto_B_send@@YAXHPAD@Z ; lssproto_B_send
  00dd7	83 c4 08	 add	 esp, 8

; 3116 : 					play_se( 217, 320, 240 );

  00dda	68 f0 00 00 00	 push	 240			; 000000f0H
  00ddf	68 40 01 00 00	 push	 320			; 00000140H
  00de4	68 d9 00 00 00	 push	 217			; 000000d9H
  00de9	e8 00 00 00 00	 call	 ?play_se@@YAHHHH@Z	; play_se
  00dee	83 c4 0c	 add	 esp, 12			; 0000000cH

; 3117 : 					break;

  00df1	e9 80 01 00 00	 jmp	 $LN2@BattleTarg
$LN116@BattleTarg:

; 3118 : 				case PETSKILL_TARGET_ALLOTHERSIDE:
; 3119 : 					if( BattleMyNo < 10 ) no = 21;

  00df6	83 3d 00 00 00
	00 0a		 cmp	 DWORD PTR ?BattleMyNo@@3HA, 10 ; BattleMyNo, 0000000aH
  00dfd	7d 0c		 jge	 SHORT $LN117@BattleTarg
  00dff	c7 85 e0 fe ff
	ff 15 00 00 00	 mov	 DWORD PTR _no$[ebp], 21	; 00000015H
  00e09	eb 0a		 jmp	 SHORT $LN118@BattleTarg
$LN117@BattleTarg:

; 3120 : 					else no = 20;

  00e0b	c7 85 e0 fe ff
	ff 14 00 00 00	 mov	 DWORD PTR _no$[ebp], 20	; 00000014H
$LN118@BattleTarg:

; 3121 : 					sprintf( moji,"P|%X|%X", prouseskill, no );

  00e15	8b 85 e0 fe ff
	ff		 mov	 eax, DWORD PTR _no$[ebp]
  00e1b	50		 push	 eax
  00e1c	8b 0d 00 00 00
	00		 mov	 ecx, DWORD PTR ?prouseskill@@3HA ; prouseskill
  00e22	51		 push	 ecx
  00e23	68 00 00 00 00	 push	 OFFSET ??_C@_07NGDMDFPD@P?$HM?$CFX?$HM?$CFX?$AA@
  00e28	8d 95 f8 fe ff
	ff		 lea	 edx, DWORD PTR _moji$[ebp]
  00e2e	52		 push	 edx
  00e2f	e8 00 00 00 00	 call	 _sprintf
  00e34	83 c4 10	 add	 esp, 16			; 00000010H

; 3122 : 					lssproto_B_send( sockfd, moji );

  00e37	8d 85 f8 fe ff
	ff		 lea	 eax, DWORD PTR _moji$[ebp]
  00e3d	50		 push	 eax
  00e3e	8b 0d 00 00 00
	00		 mov	 ecx, DWORD PTR ?sockfd@@3IA ; sockfd
  00e44	51		 push	 ecx
  00e45	e8 00 00 00 00	 call	 ?lssproto_B_send@@YAXHPAD@Z ; lssproto_B_send
  00e4a	83 c4 08	 add	 esp, 8

; 3123 : 					play_se( 217, 320, 240 );

  00e4d	68 f0 00 00 00	 push	 240			; 000000f0H
  00e52	68 40 01 00 00	 push	 320			; 00000140H
  00e57	68 d9 00 00 00	 push	 217			; 000000d9H
  00e5c	e8 00 00 00 00	 call	 ?play_se@@YAHHHH@Z	; play_se
  00e61	83 c4 0c	 add	 esp, 12			; 0000000cH

; 3124 : 					break;

  00e64	e9 0d 01 00 00	 jmp	 $LN2@BattleTarg
$LN119@BattleTarg:

; 3125 : 				case PETSKILL_TARGET_ALL:
; 3126 : 					sprintf( moji,"P|%X|%X", prouseskill, 22 );

  00e69	6a 16		 push	 22			; 00000016H
  00e6b	a1 00 00 00 00	 mov	 eax, DWORD PTR ?prouseskill@@3HA ; prouseskill
  00e70	50		 push	 eax
  00e71	68 00 00 00 00	 push	 OFFSET ??_C@_07NGDMDFPD@P?$HM?$CFX?$HM?$CFX?$AA@
  00e76	8d 8d f8 fe ff
	ff		 lea	 ecx, DWORD PTR _moji$[ebp]
  00e7c	51		 push	 ecx
  00e7d	e8 00 00 00 00	 call	 _sprintf
  00e82	83 c4 10	 add	 esp, 16			; 00000010H

; 3127 : 					lssproto_B_send( sockfd, moji );

  00e85	8d 85 f8 fe ff
	ff		 lea	 eax, DWORD PTR _moji$[ebp]
  00e8b	50		 push	 eax
  00e8c	8b 0d 00 00 00
	00		 mov	 ecx, DWORD PTR ?sockfd@@3IA ; sockfd
  00e92	51		 push	 ecx
  00e93	e8 00 00 00 00	 call	 ?lssproto_B_send@@YAXHPAD@Z ; lssproto_B_send
  00e98	83 c4 08	 add	 esp, 8

; 3128 : 					play_se( 217, 320, 240 );

  00e9b	68 f0 00 00 00	 push	 240			; 000000f0H
  00ea0	68 40 01 00 00	 push	 320			; 00000140H
  00ea5	68 d9 00 00 00	 push	 217			; 000000d9H
  00eaa	e8 00 00 00 00	 call	 ?play_se@@YAHHHH@Z	; play_se
  00eaf	83 c4 0c	 add	 esp, 12			; 0000000cH

; 3129 : 					break;

  00eb2	e9 bf 00 00 00	 jmp	 $LN2@BattleTarg
$LN120@BattleTarg:

; 3130 : 				case PETSKILL_TARGET_ONE_ROW:
; 3131 : #ifdef _SKILL_ADDBARRIER
; 3132 : 				case PETSKILL_TARGET_ONE_ROW_ALL:
; 3133 : #endif
; 3134 : 					if ( targetNo >= 0 && targetNo < 5 ) no = 26 ; 

  00eb7	83 bd ec fe ff
	ff 00		 cmp	 DWORD PTR _targetNo$[ebp], 0
  00ebe	7c 13		 jl	 SHORT $LN121@BattleTarg
  00ec0	83 bd ec fe ff
	ff 05		 cmp	 DWORD PTR _targetNo$[ebp], 5
  00ec7	7d 0a		 jge	 SHORT $LN121@BattleTarg
  00ec9	c7 85 e0 fe ff
	ff 1a 00 00 00	 mov	 DWORD PTR _no$[ebp], 26	; 0000001aH
$LN121@BattleTarg:

; 3135 : 					if ( targetNo >= 5 && targetNo < 10 ) no = 25 ; 

  00ed3	83 bd ec fe ff
	ff 05		 cmp	 DWORD PTR _targetNo$[ebp], 5
  00eda	7c 13		 jl	 SHORT $LN122@BattleTarg
  00edc	83 bd ec fe ff
	ff 0a		 cmp	 DWORD PTR _targetNo$[ebp], 10 ; 0000000aH
  00ee3	7d 0a		 jge	 SHORT $LN122@BattleTarg
  00ee5	c7 85 e0 fe ff
	ff 19 00 00 00	 mov	 DWORD PTR _no$[ebp], 25	; 00000019H
$LN122@BattleTarg:

; 3136 : 					if ( targetNo >= 10 && targetNo < 15 ) no = 23 ; 

  00eef	83 bd ec fe ff
	ff 0a		 cmp	 DWORD PTR _targetNo$[ebp], 10 ; 0000000aH
  00ef6	7c 13		 jl	 SHORT $LN123@BattleTarg
  00ef8	83 bd ec fe ff
	ff 0f		 cmp	 DWORD PTR _targetNo$[ebp], 15 ; 0000000fH
  00eff	7d 0a		 jge	 SHORT $LN123@BattleTarg
  00f01	c7 85 e0 fe ff
	ff 17 00 00 00	 mov	 DWORD PTR _no$[ebp], 23	; 00000017H
$LN123@BattleTarg:

; 3137 : 					if ( targetNo >= 15 && targetNo < 20 ) no = 24 ; 

  00f0b	83 bd ec fe ff
	ff 0f		 cmp	 DWORD PTR _targetNo$[ebp], 15 ; 0000000fH
  00f12	7c 13		 jl	 SHORT $LN124@BattleTarg
  00f14	83 bd ec fe ff
	ff 14		 cmp	 DWORD PTR _targetNo$[ebp], 20 ; 00000014H
  00f1b	7d 0a		 jge	 SHORT $LN124@BattleTarg
  00f1d	c7 85 e0 fe ff
	ff 18 00 00 00	 mov	 DWORD PTR _no$[ebp], 24	; 00000018H
$LN124@BattleTarg:

; 3138 : 					sprintf( moji,"P|%X|%X", prouseskill, no );

  00f27	8b 85 e0 fe ff
	ff		 mov	 eax, DWORD PTR _no$[ebp]
  00f2d	50		 push	 eax
  00f2e	8b 0d 00 00 00
	00		 mov	 ecx, DWORD PTR ?prouseskill@@3HA ; prouseskill
  00f34	51		 push	 ecx
  00f35	68 00 00 00 00	 push	 OFFSET ??_C@_07NGDMDFPD@P?$HM?$CFX?$HM?$CFX?$AA@
  00f3a	8d 95 f8 fe ff
	ff		 lea	 edx, DWORD PTR _moji$[ebp]
  00f40	52		 push	 edx
  00f41	e8 00 00 00 00	 call	 _sprintf
  00f46	83 c4 10	 add	 esp, 16			; 00000010H

; 3139 : 					lssproto_B_send( sockfd, moji );

  00f49	8d 85 f8 fe ff
	ff		 lea	 eax, DWORD PTR _moji$[ebp]
  00f4f	50		 push	 eax
  00f50	8b 0d 00 00 00
	00		 mov	 ecx, DWORD PTR ?sockfd@@3IA ; sockfd
  00f56	51		 push	 ecx
  00f57	e8 00 00 00 00	 call	 ?lssproto_B_send@@YAXHPAD@Z ; lssproto_B_send
  00f5c	83 c4 08	 add	 esp, 8

; 3140 : 					play_se( 217, 320, 240 );

  00f5f	68 f0 00 00 00	 push	 240			; 000000f0H
  00f64	68 40 01 00 00	 push	 320			; 00000140H
  00f69	68 d9 00 00 00	 push	 217			; 000000d9H
  00f6e	e8 00 00 00 00	 call	 ?play_se@@YAHHHH@Z	; play_se
  00f73	83 c4 0c	 add	 esp, 12			; 0000000cH
$LN2@BattleTarg:

; 3141 : 					break;
; 3142 : 				}
; 3143 : 
; 3144 : #endif
; 3145 : 			}
; 3146 : 
; 3147 : 			play_se( 203, 320, 240 );

  00f76	68 f0 00 00 00	 push	 240			; 000000f0H
  00f7b	68 40 01 00 00	 push	 320			; 00000140H
  00f80	68 cb 00 00 00	 push	 203			; 000000cbH
  00f85	e8 00 00 00 00	 call	 ?play_se@@YAHHHH@Z	; play_se
  00f8a	83 c4 0c	 add	 esp, 12			; 0000000cH

; 3148 : 
; 3149 : 			battleTargetSelectFlag = FALSE;

  00f8d	c7 05 00 00 00
	00 00 00 00 00	 mov	 DWORD PTR ?battleTargetSelectFlag@@3HA, 0

; 3150 : 
; 3151 : 			battleMenuReturn = TRUE;

  00f97	c7 05 00 00 00
	00 01 00 00 00	 mov	 DWORD PTR ?battleMenuReturn@@3HA, 1

; 3152 : 
; 3153 : 			DeathAction( pActInfoWnd );

  00fa1	a1 00 00 00 00	 mov	 eax, DWORD PTR ?pActInfoWnd@@3PAUaction@@A
  00fa6	50		 push	 eax
  00fa7	e8 00 00 00 00	 call	 ?DeathAction@@YAXPAUaction@@@Z ; DeathAction
  00fac	83 c4 04	 add	 esp, 4

; 3154 : 			pActInfoWnd = NULL;

  00faf	c7 05 00 00 00
	00 00 00 00 00	 mov	 DWORD PTR ?pActInfoWnd@@3PAUaction@@A, 0
$LN1@BattleTarg:

; 3155 : 		}
; 3156 : 	}
; 3157 : }

  00fb9	52		 push	 edx
  00fba	8b cd		 mov	 ecx, ebp
  00fbc	50		 push	 eax
  00fbd	8d 15 00 00 00
	00		 lea	 edx, DWORD PTR $LN132@BattleTarg
  00fc3	e8 00 00 00 00	 call	 @_RTC_CheckStackVars@8
  00fc8	58		 pop	 eax
  00fc9	5a		 pop	 edx
  00fca	5f		 pop	 edi
  00fcb	5e		 pop	 esi
  00fcc	5b		 pop	 ebx
  00fcd	8b 4d fc	 mov	 ecx, DWORD PTR __$ArrayPad$[ebp]
  00fd0	33 cd		 xor	 ecx, ebp
  00fd2	e8 00 00 00 00	 call	 @__security_check_cookie@4
  00fd7	81 c4 e8 01 00
	00		 add	 esp, 488		; 000001e8H
  00fdd	3b ec		 cmp	 ebp, esp
  00fdf	e8 00 00 00 00	 call	 __RTC_CheckEsp
  00fe4	8b e5		 mov	 esp, ebp
  00fe6	5d		 pop	 ebp
  00fe7	c3		 ret	 0
$LN132@BattleTarg:
  00fe8	01 00 00 00	 DD	 1
  00fec	00 00 00 00	 DD	 $LN131@BattleTarg
$LN131@BattleTarg:
  00ff0	f8 fe ff ff	 DD	 -264			; fffffef8H
  00ff4	00 01 00 00	 DD	 256			; 00000100H
  00ff8	00 00 00 00	 DD	 $LN130@BattleTarg
$LN130@BattleTarg:
  00ffc	6d		 DB	 109			; 0000006dH
  00ffd	6f		 DB	 111			; 0000006fH
  00ffe	6a		 DB	 106			; 0000006aH
  00fff	69		 DB	 105			; 00000069H
  01000	00		 DB	 0
  01001	0f 1f 00	 npad	 3
$LN133@BattleTarg:
  01004	00 00 00 00	 DD	 $LN23@BattleTarg
  01008	00 00 00 00	 DD	 $LN29@BattleTarg
  0100c	00 00 00 00	 DD	 $LN26@BattleTarg
  01010	00 00 00 00	 DD	 $LN67@BattleTarg
  01014	00 00 00 00	 DD	 $LN84@BattleTarg
  01018	00 00 00 00	 DD	 $LN111@BattleTarg
$LN134@BattleTarg:
  0101c	00 00 00 00	 DD	 $LN46@BattleTarg
  01020	00 00 00 00	 DD	 $LN46@BattleTarg
  01024	00 00 00 00	 DD	 $LN49@BattleTarg
  01028	00 00 00 00	 DD	 $LN54@BattleTarg
  0102c	00 00 00 00	 DD	 $LN59@BattleTarg
  01030	00 00 00 00	 DD	 $LN4@BattleTarg
  01034	00 00 00 00	 DD	 $LN4@BattleTarg
  01038	00 00 00 00	 DD	 $LN4@BattleTarg
  0103c	00 00 00 00	 DD	 $LN62@BattleTarg
  01040	00 00 00 00	 DD	 $LN30@BattleTarg
  01044	00 00 00 00	 DD	 $LN33@BattleTarg
  01048	00 00 00 00	 DD	 $LN43@BattleTarg
$LN135@BattleTarg:
  0104c	00 00 00 00	 DD	 $LN68@BattleTarg
  01050	00 00 00 00	 DD	 $LN68@BattleTarg
  01054	00 00 00 00	 DD	 $LN71@BattleTarg
  01058	00 00 00 00	 DD	 $LN76@BattleTarg
  0105c	00 00 00 00	 DD	 $LN81@BattleTarg
  01060	00 00 00 00	 DD	 $LN6@BattleTarg
  01064	00 00 00 00	 DD	 $LN68@BattleTarg
  01068	00 00 00 00	 DD	 $LN68@BattleTarg
$LN136@BattleTarg:
  0106c	00 00 00 00	 DD	 $LN85@BattleTarg
  01070	00 00 00 00	 DD	 $LN88@BattleTarg
  01074	00 00 00 00	 DD	 $LN93@BattleTarg
  01078	00 00 00 00	 DD	 $LN98@BattleTarg
  0107c	00 00 00 00	 DD	 $LN101@BattleTarg
  01080	00 00 00 00	 DD	 $LN106@BattleTarg
  01084	00 00 00 00	 DD	 $LN8@BattleTarg
$LN128@BattleTarg:
  01088	00		 DB	 0
  01089	00		 DB	 0
  0108a	01		 DB	 1
  0108b	02		 DB	 2
  0108c	03		 DB	 3
  0108d	06		 DB	 6
  0108e	00		 DB	 0
  0108f	00		 DB	 0
  01090	04		 DB	 4
  01091	06		 DB	 6
  01092	00		 DB	 0
  01093	04		 DB	 4
  01094	05		 DB	 5
  01095	0f 1f 00	 npad	 3
$LN137@BattleTarg:
  01098	00 00 00 00	 DD	 $LN112@BattleTarg
  0109c	00 00 00 00	 DD	 $LN113@BattleTarg
  010a0	00 00 00 00	 DD	 $LN116@BattleTarg
  010a4	00 00 00 00	 DD	 $LN119@BattleTarg
  010a8	00 00 00 00	 DD	 $LN120@BattleTarg
  010ac	00 00 00 00	 DD	 $LN2@BattleTarg
$LN129@BattleTarg:
  010b0	00		 DB	 0
  010b1	00		 DB	 0
  010b2	01		 DB	 1
  010b3	02		 DB	 2
  010b4	03		 DB	 3
  010b5	05		 DB	 5
  010b6	00		 DB	 0
  010b7	00		 DB	 0
  010b8	04		 DB	 4
  010b9	00		 DB	 0
  010ba	00		 DB	 0
  010bb	04		 DB	 4
?BattleTargetSelect@@YAXXZ ENDP				; BattleTargetSelect
_TEXT	ENDS
; Function compile flags: /Odtp /RTCsu /ZI
; File c:\users\administrator\desktop\????? ??\????? ??\client source code\system\battlemenu.cpp
;	COMDAT ?BattleButtonWaza@@YAXXZ
_TEXT	SEGMENT
$T1 = -588						; size = 4
$T2 = -576						; size = 4
$T3 = -564						; size = 4
_color$4 = -360						; size = 4
_j$5 = -348						; size = 4
_flag$6 = -336						; size = 4
_splitPoint$7 = -324					; size = 4
_moji$ = -312						; size = 256
_y$ = -48						; size = 4
_x$ = -36						; size = 4
_bak$ = -24						; size = 4
_i$ = -12						; size = 4
__$ArrayPad$ = -4					; size = 4
?BattleButtonWaza@@YAXXZ PROC				; BattleButtonWaza, COMDAT

; 2522 : {

  00000	55		 push	 ebp
  00001	8b ec		 mov	 ebp, esp
  00003	81 ec 50 02 00
	00		 sub	 esp, 592		; 00000250H
  00009	53		 push	 ebx
  0000a	56		 push	 esi
  0000b	57		 push	 edi
  0000c	8d bd b0 fd ff
	ff		 lea	 edi, DWORD PTR [ebp-592]
  00012	b9 94 00 00 00	 mov	 ecx, 148		; 00000094H
  00017	b8 cc cc cc cc	 mov	 eax, -858993460		; ccccccccH
  0001c	f3 ab		 rep stosd
  0001e	a1 00 00 00 00	 mov	 eax, DWORD PTR ___security_cookie
  00023	33 c5		 xor	 eax, ebp
  00025	89 45 fc	 mov	 DWORD PTR __$ArrayPad$[ebp], eax

; 2523 : 	int i, bak;
; 2524 : 	int x, y;
; 2525 : 	char moji[ 256 ];
; 2526 : 	if( HitDispNo == battleButtonDispNo[ 8 ] || battlePetButtonFlag == TRUE ){

  00028	b8 04 00 00 00	 mov	 eax, 4
  0002d	c1 e0 03	 shl	 eax, 3
  00030	8b 0d 00 00 00
	00		 mov	 ecx, DWORD PTR ?HitDispNo@@3HA ; HitDispNo
  00036	3b 88 00 00 00
	00		 cmp	 ecx, DWORD PTR ?battleButtonDispNo@@3PAHA[eax]
  0003c	74 0d		 je	 SHORT $LN20@BattleButt
  0003e	83 3d 00 00 00
	00 01		 cmp	 DWORD PTR ?battlePetButtonFlag@@3HA, 1 ; battlePetButtonFlag
  00045	0f 85 b5 00 00
	00		 jne	 $LN19@BattleButt
$LN20@BattleButt:

; 2527 : 		// ?????????
; 2528 : 		if( mouse.onceState & MOUSE_LEFT_CRICK || battlePetButtonFlag == TRUE ){

  0004b	a1 2c 00 00 00	 mov	 eax, DWORD PTR ?mouse@@3UMOUSE@@A+44
  00050	83 e0 01	 and	 eax, 1
  00053	75 0d		 jne	 SHORT $LN22@BattleButt
  00055	83 3d 00 00 00
	00 01		 cmp	 DWORD PTR ?battlePetButtonFlag@@3HA, 1 ; battlePetButtonFlag
  0005c	0f 85 82 00 00
	00		 jne	 $LN21@BattleButt
$LN22@BattleButt:

; 2529 : 			bak = battleButtonFlag[ 8 ];	// ??????

  00062	b8 04 00 00 00	 mov	 eax, 4
  00067	c1 e0 03	 shl	 eax, 3
  0006a	8b 88 00 00 00
	00		 mov	 ecx, DWORD PTR ?battleButtonFlag@@3PAHA[eax]
  00070	89 4d e8	 mov	 DWORD PTR _bak$[ebp], ecx

; 2530 : 			BattleButtonOff();				// ????????????

  00073	e8 00 00 00 00	 call	 ?BattleButtonOff@@YAXXZ	; BattleButtonOff

; 2531 : 			// ?????????
; 2532 : 			if( bak == FALSE ){

  00078	83 7d e8 00	 cmp	 DWORD PTR _bak$[ebp], 0
  0007c	75 66		 jne	 SHORT $LN21@BattleButt

; 2533 : 				// ?????????
; 2534 : 				battleButtonFlag[ 8 ] = TRUE; //打开技能选项盒

  0007e	b8 04 00 00 00	 mov	 eax, 4
  00083	c1 e0 03	 shl	 eax, 3
  00086	c7 80 00 00 00
	00 01 00 00 00	 mov	 DWORD PTR ?battleButtonFlag@@3PAHA[eax], 1

; 2535 : 				// ?????????
; 2536 : 				battleWazaTargetBak = -1;

  00090	c7 05 00 00 00
	00 ff ff ff ff	 mov	 DWORD PTR ?battleWazaTargetBak@@3HA, -1 ; battleWazaTargetBak

; 2537 : 				// ?????
; 2538 : 				//BattleCmdNo = BATTLE_WAZA;
; 2539 : 				// ????????
; 2540 : 				for( i = 0 ; i < BATTLE_MENU_WAZA_FONTS ; i++ ) battleMenuWazaFontNo[ i ] = -2;

  0009a	c7 45 f4 00 00
	00 00		 mov	 DWORD PTR _i$[ebp], 0
  000a1	eb 09		 jmp	 SHORT $LN4@BattleButt
$LN2@BattleButt:
  000a3	8b 45 f4	 mov	 eax, DWORD PTR _i$[ebp]
  000a6	83 c0 01	 add	 eax, 1
  000a9	89 45 f4	 mov	 DWORD PTR _i$[ebp], eax
$LN4@BattleButt:
  000ac	83 7d f4 09	 cmp	 DWORD PTR _i$[ebp], 9
  000b0	7d 10		 jge	 SHORT $LN3@BattleButt
  000b2	8b 45 f4	 mov	 eax, DWORD PTR _i$[ebp]
  000b5	c7 04 85 00 00
	00 00 fe ff ff
	ff		 mov	 DWORD PTR ?battleMenuWazaFontNo@@3PAHA[eax*4], -2 ; fffffffeH
  000c0	eb e1		 jmp	 SHORT $LN2@BattleButt
$LN3@BattleButt:

; 2541 : 				// ?????????
; 2542 : 				pActWnd = MakeWindowDisp( 364, 96, 272, 348, 0, -1 );

  000c2	6a ff		 push	 -1
  000c4	6a 00		 push	 0
  000c6	68 5c 01 00 00	 push	 348			; 0000015cH
  000cb	68 10 01 00 00	 push	 272			; 00000110H
  000d0	6a 60		 push	 96			; 00000060H
  000d2	68 6c 01 00 00	 push	 364			; 0000016cH
  000d7	e8 00 00 00 00	 call	 ?MakeWindowDisp@@YAPAUaction@@HHHHHH@Z ; MakeWindowDisp
  000dc	83 c4 18	 add	 esp, 24			; 00000018H
  000df	a3 00 00 00 00	 mov	 DWORD PTR ?pActWnd@@3PAUaction@@A, eax
$LN21@BattleButt:

; 2543 : 			}
; 2544 : 		}
; 2545 : 		// ?????????
; 2546 : 		battlePetButtonFlag = FALSE;

  000e4	c7 05 00 00 00
	00 00 00 00 00	 mov	 DWORD PTR ?battlePetButtonFlag@@3HA, 0 ; battlePetButtonFlag

; 2547 : 		// ??????				 
; 2548 : 		strcpy( OneLineInfoStr, "기능을 사용하다。");

  000ee	68 00 00 00 00	 push	 OFFSET ??_C@_0BC@EMOKBAPI@?$LB?b?$LE?I?$MA?$LL?5?$LL?g?$LP?k?G?O?$LE?Y?$KB?$KD?$AA@
  000f3	68 00 00 00 00	 push	 OFFSET ?OneLineInfoStr@@3PADA ; OneLineInfoStr
  000f8	e8 00 00 00 00	 call	 _strcpy
  000fd	83 c4 08	 add	 esp, 8
$LN19@BattleButt:

; 2549 : 	}
; 2550 : 	// ????????
; 2551 : 	if( battleButtonFlag[ 8 ] == TRUE ){

  00100	b8 04 00 00 00	 mov	 eax, 4
  00105	c1 e0 03	 shl	 eax, 3
  00108	83 b8 00 00 00
	00 01		 cmp	 DWORD PTR ?battleButtonFlag@@3PAHA[eax], 1
  0010f	0f 85 71 06 00
	00		 jne	 $LN54@BattleButt

; 2552 : 		// ?????????
; 2553 : 		if( pActWnd != NULL ){

  00115	83 3d 00 00 00
	00 00		 cmp	 DWORD PTR ?pActWnd@@3PAUaction@@A, 0
  0011c	0f 84 64 06 00
	00		 je	 $LN54@BattleButt

; 2554 : 			// ??????????????
; 2555 : 			if( pActWnd->hp > 0 ){

  00122	a1 00 00 00 00	 mov	 eax, DWORD PTR ?pActWnd@@3PAUaction@@A
  00127	83 78 78 00	 cmp	 DWORD PTR [eax+120], 0
  0012b	0f 8e 55 06 00
	00		 jle	 $LN54@BattleButt

; 2556 : 				// ?????????
; 2557 : 				StockDispBuffer( ( ( WINDOW_DISP *)pActWnd->pYobi )->mx, ( ( WINDOW_DISP *)pActWnd->pYobi )->my, DISP_PRIO_MENU, CG_PET_WAZA_WND, 1 );

  00131	6a 01		 push	 1
  00133	a1 00 00 00 00	 mov	 eax, DWORD PTR ?CG_PET_WAZA_WND@@3HA ; CG_PET_WAZA_WND
  00138	50		 push	 eax
  00139	6a 68		 push	 104			; 00000068H
  0013b	8b 0d 00 00 00
	00		 mov	 ecx, DWORD PTR ?pActWnd@@3PAUaction@@A
  00141	8b 51 0c	 mov	 edx, DWORD PTR [ecx+12]
  00144	8b 42 18	 mov	 eax, DWORD PTR [edx+24]
  00147	50		 push	 eax
  00148	8b 0d 00 00 00
	00		 mov	 ecx, DWORD PTR ?pActWnd@@3PAUaction@@A
  0014e	8b 51 0c	 mov	 edx, DWORD PTR [ecx+12]
  00151	8b 42 14	 mov	 eax, DWORD PTR [edx+20]
  00154	50		 push	 eax
  00155	e8 00 00 00 00	 call	 ?StockDispBuffer@@YAHHHEHH@Z ; StockDispBuffer
  0015a	83 c4 14	 add	 esp, 20			; 00000014H

; 2558 : 				// ?????????
; 2559 : 				for( i = 0 ; i < pet[ battlePetNoBak ].maxSkill ; i++ ){

  0015d	c7 45 f4 00 00
	00 00		 mov	 DWORD PTR _i$[ebp], 0
  00164	eb 09		 jmp	 SHORT $LN7@BattleButt
$LN5@BattleButt:
  00166	8b 45 f4	 mov	 eax, DWORD PTR _i$[ebp]
  00169	83 c0 01	 add	 eax, 1
  0016c	89 45 f4	 mov	 DWORD PTR _i$[ebp], eax
$LN7@BattleButt:
  0016f	69 05 00 00 00
	00 20 0b 00 00	 imul	 eax, DWORD PTR ?battlePetNoBak@@3HA, 2848 ; battlePetNoBak
  00179	8b 4d f4	 mov	 ecx, DWORD PTR _i$[ebp]
  0017c	3b 88 44 00 00
	00		 cmp	 ecx, DWORD PTR ?pet@@3PAUPET@@A[eax+68]
  00182	7d 31		 jge	 SHORT $LN6@BattleButt

; 2560 : 					// ?????
; 2561 : 					StockDispBuffer( ( ( WINDOW_DISP *)pActWnd->pYobi )->mx, ( ( WINDOW_DISP *)pActWnd->pYobi )->my, DISP_PRIO_IME3, CG_PET_WAZA_BAR_1 + i, 1 );

  00184	6a 01		 push	 1
  00186	8b 45 f4	 mov	 eax, DWORD PTR _i$[ebp]
  00189	05 13 66 00 00	 add	 eax, 26131		; 00006613H
  0018e	50		 push	 eax
  0018f	6a 69		 push	 105			; 00000069H
  00191	8b 0d 00 00 00
	00		 mov	 ecx, DWORD PTR ?pActWnd@@3PAUaction@@A
  00197	8b 51 0c	 mov	 edx, DWORD PTR [ecx+12]
  0019a	8b 42 18	 mov	 eax, DWORD PTR [edx+24]
  0019d	50		 push	 eax
  0019e	8b 0d 00 00 00
	00		 mov	 ecx, DWORD PTR ?pActWnd@@3PAUaction@@A
  001a4	8b 51 0c	 mov	 edx, DWORD PTR [ecx+12]
  001a7	8b 42 14	 mov	 eax, DWORD PTR [edx+20]
  001aa	50		 push	 eax
  001ab	e8 00 00 00 00	 call	 ?StockDispBuffer@@YAHHHEHH@Z ; StockDispBuffer
  001b0	83 c4 14	 add	 esp, 20			; 00000014H

; 2562 : 				}

  001b3	eb b1		 jmp	 SHORT $LN5@BattleButt
$LN6@BattleButt:

; 2563 : 				// ????????
; 2564 : 				if( mouse.onceState & MOUSE_LEFT_CRICK ){

  001b5	a1 2c 00 00 00	 mov	 eax, DWORD PTR ?mouse@@3UMOUSE@@A+44
  001ba	83 e0 01	 and	 eax, 1
  001bd	74 1b		 je	 SHORT $LN27@BattleButt

; 2565 : 					// ????????
; 2566 : 					if( HitDispNo == battleMenuWazaFontNo[ 7 ] ){

  001bf	b8 04 00 00 00	 mov	 eax, 4
  001c4	6b c8 07	 imul	 ecx, eax, 7
  001c7	8b 15 00 00 00
	00		 mov	 edx, DWORD PTR ?HitDispNo@@3HA ; HitDispNo
  001cd	3b 91 00 00 00
	00		 cmp	 edx, DWORD PTR ?battleMenuWazaFontNo@@3PAHA[ecx]
  001d3	75 05		 jne	 SHORT $LN27@BattleButt

; 2567 : 						// ????????????
; 2568 : 						BattleButtonOff();				

  001d5	e8 00 00 00 00	 call	 ?BattleButtonOff@@YAXXZ	; BattleButtonOff
$LN27@BattleButt:

; 2569 : 					}
; 2570 : 				}
; 2571 : 				// ????????
; 2572 : 				if( pActWnd != NULL ){

  001da	83 3d 00 00 00
	00 00		 cmp	 DWORD PTR ?pActWnd@@3PAUaction@@A, 0
  001e1	0f 84 9f 05 00
	00		 je	 $LN54@BattleButt

; 2573 : 					// ?
; 2574 : 					x = pActWnd->x + 32;

  001e7	a1 00 00 00 00	 mov	 eax, DWORD PTR ?pActWnd@@3PAUaction@@A
  001ec	8b 48 18	 mov	 ecx, DWORD PTR [eax+24]
  001ef	83 c1 20	 add	 ecx, 32			; 00000020H
  001f2	89 4d dc	 mov	 DWORD PTR _x$[ebp], ecx

; 2575 : 					y = pActWnd->y + 252;

  001f5	a1 00 00 00 00	 mov	 eax, DWORD PTR ?pActWnd@@3PAUaction@@A
  001fa	8b 48 1c	 mov	 ecx, DWORD PTR [eax+28]
  001fd	81 c1 fc 00 00
	00		 add	 ecx, 252		; 000000fcH
  00203	89 4d d0	 mov	 DWORD PTR _y$[ebp], ecx

; 2576 : 					// ?
; 2577 : 					for( i = 0 ; i < pet[ battlePetNoBak ].maxSkill ; i++ ){

  00206	c7 45 f4 00 00
	00 00		 mov	 DWORD PTR _i$[ebp], 0
  0020d	eb 09		 jmp	 SHORT $LN10@BattleButt
$LN8@BattleButt:
  0020f	8b 45 f4	 mov	 eax, DWORD PTR _i$[ebp]
  00212	83 c0 01	 add	 eax, 1
  00215	89 45 f4	 mov	 DWORD PTR _i$[ebp], eax
$LN10@BattleButt:
  00218	69 05 00 00 00
	00 20 0b 00 00	 imul	 eax, DWORD PTR ?battlePetNoBak@@3HA, 2848 ; battlePetNoBak
  00222	8b 4d f4	 mov	 ecx, DWORD PTR _i$[ebp]
  00225	3b 88 44 00 00
	00		 cmp	 ecx, DWORD PTR ?pet@@3PAUPET@@A[eax+68]
  0022b	0f 8d 41 03 00
	00		 jge	 $LN9@BattleButt

; 2578 : 						// ????????
; 2579 : 						if( petSkill[ battlePetNoBak ][ i ].useFlag == TRUE ){

  00231	69 05 00 00 00
	00 e6 02 00 00	 imul	 eax, DWORD PTR ?battlePetNoBak@@3HA, 742 ; battlePetNoBak
  0023b	6b 4d f4 6a	 imul	 ecx, DWORD PTR _i$[ebp], 106
  0023f	0f bf 94 08 00
	00 00 00	 movsx	 edx, WORD PTR ?petSkill@@3PAY06UPET_SKILL@@A[eax+ecx]
  00247	83 fa 01	 cmp	 edx, 1
  0024a	0f 85 1d 03 00
	00		 jne	 $LN30@BattleButt

; 2580 : 							if( HitFontNo == battleMenuWazaFontNo[ i ] ){

  00250	8b 45 f4	 mov	 eax, DWORD PTR _i$[ebp]
  00253	8b 0d 00 00 00
	00		 mov	 ecx, DWORD PTR ?HitFontNo@@3HA ; HitFontNo
  00259	3b 0c 85 00 00
	00 00		 cmp	 ecx, DWORD PTR ?battleMenuWazaFontNo@@3PAHA[eax*4]
  00260	0f 85 07 03 00
	00		 jne	 $LN30@BattleButt

; 2581 : 								// ??????
; 2582 : 								char *splitPoint = petSkill[ battlePetNoBak ][ i ].memo;

  00266	69 05 00 00 00
	00 e6 02 00 00	 imul	 eax, DWORD PTR ?battlePetNoBak@@3HA, 742 ; battlePetNoBak
  00270	6b 4d f4 6a	 imul	 ecx, DWORD PTR _i$[ebp], 106
  00274	8d 94 08 21 00
	00 00		 lea	 edx, DWORD PTR ?petSkill@@3PAY06UPET_SKILL@@A[eax+ecx+33]
  0027b	89 95 bc fe ff
	ff		 mov	 DWORD PTR _splitPoint$7[ebp], edx
$LN11@BattleButt:

; 2583 : 								// ?????
; 2584 : 								while( 1 ){

  00281	b8 01 00 00 00	 mov	 eax, 1
  00286	85 c0		 test	 eax, eax
  00288	0f 84 5d 01 00
	00		 je	 $LN12@BattleButt

; 2585 : 									// ?????????
; 2586 : 									if( strlen( splitPoint ) > 24 ){

  0028e	8b 85 bc fe ff
	ff		 mov	 eax, DWORD PTR _splitPoint$7[ebp]
  00294	50		 push	 eax
  00295	e8 00 00 00 00	 call	 _strlen
  0029a	83 c4 04	 add	 esp, 4
  0029d	83 f8 18	 cmp	 eax, 24			; 00000018H
  002a0	0f 86 0b 01 00
	00		 jbe	 $LN32@BattleButt

; 2587 : 										strncpy( moji, splitPoint, 24 );

  002a6	8b f4		 mov	 esi, esp
  002a8	6a 18		 push	 24			; 00000018H
  002aa	8b 85 bc fe ff
	ff		 mov	 eax, DWORD PTR _splitPoint$7[ebp]
  002b0	50		 push	 eax
  002b1	8d 8d c8 fe ff
	ff		 lea	 ecx, DWORD PTR _moji$[ebp]
  002b7	51		 push	 ecx
  002b8	ff 15 00 00 00
	00		 call	 DWORD PTR __imp__strncpy
  002be	83 c4 0c	 add	 esp, 12			; 0000000cH
  002c1	3b f4		 cmp	 esi, esp
  002c3	e8 00 00 00 00	 call	 __RTC_CheckEsp

; 2588 : 										moji[ 24 ] = NULL;	// ??????

  002c8	b8 01 00 00 00	 mov	 eax, 1
  002cd	6b c8 18	 imul	 ecx, eax, 24
  002d0	89 8d cc fd ff
	ff		 mov	 DWORD PTR $T3[ebp], ecx
  002d6	81 bd cc fd ff
	ff 00 01 00 00	 cmp	 DWORD PTR $T3[ebp], 256	; 00000100H
  002e0	73 02		 jae	 SHORT $LN55@BattleButt
  002e2	eb 05		 jmp	 SHORT $LN56@BattleButt
$LN55@BattleButt:
  002e4	e8 00 00 00 00	 call	 ___report_rangecheckfailure
$LN56@BattleButt:
  002e9	8b 95 cc fd ff
	ff		 mov	 edx, DWORD PTR $T3[ebp]
  002ef	c6 84 15 c8 fe
	ff ff 00	 mov	 BYTE PTR _moji$[ebp+edx], 0

; 2589 : 										// ??????
; 2590 : 										if( GetStrLastByte( moji ) == 3 ){

  002f7	8d 85 c8 fe ff
	ff		 lea	 eax, DWORD PTR _moji$[ebp]
  002fd	50		 push	 eax
  002fe	e8 00 00 00 00	 call	 ?GetStrLastByte@@YAHPAD@Z ; GetStrLastByte
  00303	83 c4 04	 add	 esp, 4
  00306	83 f8 03	 cmp	 eax, 3
  00309	75 40		 jne	 SHORT $LN34@BattleButt

; 2591 : 											moji[ 23 ] = NULL;

  0030b	b8 01 00 00 00	 mov	 eax, 1
  00310	6b c8 17	 imul	 ecx, eax, 23
  00313	89 8d c0 fd ff
	ff		 mov	 DWORD PTR $T2[ebp], ecx
  00319	81 bd c0 fd ff
	ff 00 01 00 00	 cmp	 DWORD PTR $T2[ebp], 256	; 00000100H
  00323	73 02		 jae	 SHORT $LN57@BattleButt
  00325	eb 05		 jmp	 SHORT $LN58@BattleButt
$LN57@BattleButt:
  00327	e8 00 00 00 00	 call	 ___report_rangecheckfailure
$LN58@BattleButt:
  0032c	8b 95 c0 fd ff
	ff		 mov	 edx, DWORD PTR $T2[ebp]
  00332	c6 84 15 c8 fe
	ff ff 00	 mov	 BYTE PTR _moji$[ebp+edx], 0

; 2592 : 											splitPoint += 23;

  0033a	8b 85 bc fe ff
	ff		 mov	 eax, DWORD PTR _splitPoint$7[ebp]
  00340	83 c0 17	 add	 eax, 23			; 00000017H
  00343	89 85 bc fe ff
	ff		 mov	 DWORD PTR _splitPoint$7[ebp], eax

; 2593 : 										}else{

  00349	eb 3e		 jmp	 SHORT $LN35@BattleButt
$LN34@BattleButt:

; 2594 : 											moji[ 24 ] = NULL;

  0034b	b8 01 00 00 00	 mov	 eax, 1
  00350	6b c8 18	 imul	 ecx, eax, 24
  00353	89 8d b4 fd ff
	ff		 mov	 DWORD PTR $T1[ebp], ecx
  00359	81 bd b4 fd ff
	ff 00 01 00 00	 cmp	 DWORD PTR $T1[ebp], 256	; 00000100H
  00363	73 02		 jae	 SHORT $LN59@BattleButt
  00365	eb 05		 jmp	 SHORT $LN60@BattleButt
$LN59@BattleButt:
  00367	e8 00 00 00 00	 call	 ___report_rangecheckfailure
$LN60@BattleButt:
  0036c	8b 95 b4 fd ff
	ff		 mov	 edx, DWORD PTR $T1[ebp]
  00372	c6 84 15 c8 fe
	ff ff 00	 mov	 BYTE PTR _moji$[ebp+edx], 0

; 2595 : 											splitPoint += 24;

  0037a	8b 85 bc fe ff
	ff		 mov	 eax, DWORD PTR _splitPoint$7[ebp]
  00380	83 c0 18	 add	 eax, 24			; 00000018H
  00383	89 85 bc fe ff
	ff		 mov	 DWORD PTR _splitPoint$7[ebp], eax
$LN35@BattleButt:

; 2596 : 										}
; 2597 : 										StockFontBuffer( x, y, FONT_PRIO_FRONT, 0, moji, 0 ); y += 20;

  00389	6a 00		 push	 0
  0038b	8d 85 c8 fe ff
	ff		 lea	 eax, DWORD PTR _moji$[ebp]
  00391	50		 push	 eax
  00392	6a 00		 push	 0
  00394	6a 01		 push	 1
  00396	8b 4d d0	 mov	 ecx, DWORD PTR _y$[ebp]
  00399	51		 push	 ecx
  0039a	8b 55 dc	 mov	 edx, DWORD PTR _x$[ebp]
  0039d	52		 push	 edx
  0039e	e8 00 00 00 00	 call	 ?StockFontBuffer@@YAHHHDHPADH@Z ; StockFontBuffer
  003a3	83 c4 18	 add	 esp, 24			; 00000018H
  003a6	8b 45 d0	 mov	 eax, DWORD PTR _y$[ebp]
  003a9	83 c0 14	 add	 eax, 20			; 00000014H
  003ac	89 45 d0	 mov	 DWORD PTR _y$[ebp], eax

; 2598 : 									}else{

  003af	eb 35		 jmp	 SHORT $LN33@BattleButt
$LN32@BattleButt:

; 2599 : 										strcpy( moji, splitPoint );

  003b1	8b 85 bc fe ff
	ff		 mov	 eax, DWORD PTR _splitPoint$7[ebp]
  003b7	50		 push	 eax
  003b8	8d 8d c8 fe ff
	ff		 lea	 ecx, DWORD PTR _moji$[ebp]
  003be	51		 push	 ecx
  003bf	e8 00 00 00 00	 call	 _strcpy
  003c4	83 c4 08	 add	 esp, 8

; 2600 : 										StockFontBuffer( x, y, FONT_PRIO_FRONT, 0, moji, 0 );

  003c7	6a 00		 push	 0
  003c9	8d 85 c8 fe ff
	ff		 lea	 eax, DWORD PTR _moji$[ebp]
  003cf	50		 push	 eax
  003d0	6a 00		 push	 0
  003d2	6a 01		 push	 1
  003d4	8b 4d d0	 mov	 ecx, DWORD PTR _y$[ebp]
  003d7	51		 push	 ecx
  003d8	8b 55 dc	 mov	 edx, DWORD PTR _x$[ebp]
  003db	52		 push	 edx
  003dc	e8 00 00 00 00	 call	 ?StockFontBuffer@@YAHHHDHPADH@Z ; StockFontBuffer
  003e1	83 c4 18	 add	 esp, 24			; 00000018H

; 2601 : 										break;

  003e4	eb 05		 jmp	 SHORT $LN12@BattleButt
$LN33@BattleButt:

; 2602 : 									}
; 2603 : 								}

  003e6	e9 96 fe ff ff	 jmp	 $LN11@BattleButt
$LN12@BattleButt:

; 2604 : 								// ????????
; 2605 : 								if( mouse.onceState & MOUSE_LEFT_CRICK ){

  003eb	a1 2c 00 00 00	 mov	 eax, DWORD PTR ?mouse@@3UMOUSE@@A+44
  003f0	83 e0 01	 and	 eax, 1
  003f3	0f 84 74 01 00
	00		 je	 $LN30@BattleButt

; 2606 : 									// ????
; 2607 : 									if(	petSkill[ battlePetNoBak ][ i ].field != PETSKILL_FIELD_MAP ){

  003f9	69 05 00 00 00
	00 e6 02 00 00	 imul	 eax, DWORD PTR ?battlePetNoBak@@3HA, 742 ; battlePetNoBak
  00403	6b 4d f4 6a	 imul	 ecx, DWORD PTR _i$[ebp], 106
  00407	0f bf 94 08 04
	00 00 00	 movsx	 edx, WORD PTR ?petSkill@@3PAY06UPET_SKILL@@A[eax+ecx+4]
  0040f	83 fa 02	 cmp	 edx, 2
  00412	74 47		 je	 SHORT $LN37@BattleButt

; 2608 : #ifdef _VARY_WOLF
; 2609 : 										if(!((pet[battlePetNoBak].graNo==101428)&&(petSkill[battlePetNoBak][i].skillId==600))

  00414	69 05 00 00 00
	00 20 0b 00 00	 imul	 eax, DWORD PTR ?battlePetNoBak@@3HA, 2848 ; battlePetNoBak
  0041e	81 b8 04 00 00
	00 34 8c 01 00	 cmp	 DWORD PTR ?pet@@3PAUPET@@A[eax+4], 101428 ; 00018c34H
  00428	75 1e		 jne	 SHORT $LN40@BattleButt
  0042a	69 05 00 00 00
	00 e6 02 00 00	 imul	 eax, DWORD PTR ?battlePetNoBak@@3HA, 742 ; battlePetNoBak
  00434	6b 4d f4 6a	 imul	 ecx, DWORD PTR _i$[ebp], 106
  00438	0f bf 94 08 02
	00 00 00	 movsx	 edx, WORD PTR ?petSkill@@3PAY06UPET_SKILL@@A[eax+ecx+2]
  00440	81 fa 58 02 00
	00		 cmp	 edx, 600		; 00000258H
  00446	74 0e		 je	 SHORT $LN39@BattleButt
$LN40@BattleButt:

; 2610 : 											)
; 2611 : #endif
; 2612 : 											// ??????????????
; 2613 : #ifdef _BATTLESKILL				// (不可开) Syu ADD 战斗技能介面
; 2614 : 											BattleSetWazaHitBox( i , 0 ) ; 

  00448	6a 00		 push	 0
  0044a	8b 45 f4	 mov	 eax, DWORD PTR _i$[ebp]
  0044d	50		 push	 eax
  0044e	e8 00 00 00 00	 call	 ?BattleSetWazaHitBox@@YAXHH@Z ; BattleSetWazaHitBox
  00453	83 c4 08	 add	 esp, 8
$LN39@BattleButt:

; 2615 : #else
; 2616 : 										BattleSetWazaHitBox( i );
; 2617 : #endif
; 2618 : 									}else{

  00456	e9 12 01 00 00	 jmp	 $LN30@BattleButt
$LN37@BattleButt:

; 2619 : 										int flag = 0;

  0045b	c7 85 b0 fe ff
	ff 00 00 00 00	 mov	 DWORD PTR _flag$6[ebp], 0

; 2620 : 										int j;
; 2621 : 										// ?????????????????
; 2622 : 										for( j = 0 ; j < pet[ battlePetNoBak ].maxSkill ; j++ ){

  00465	c7 85 a4 fe ff
	ff 00 00 00 00	 mov	 DWORD PTR _j$5[ebp], 0
  0046f	eb 0f		 jmp	 SHORT $LN15@BattleButt
$LN13@BattleButt:
  00471	8b 85 a4 fe ff
	ff		 mov	 eax, DWORD PTR _j$5[ebp]
  00477	83 c0 01	 add	 eax, 1
  0047a	89 85 a4 fe ff
	ff		 mov	 DWORD PTR _j$5[ebp], eax
$LN15@BattleButt:
  00480	69 05 00 00 00
	00 20 0b 00 00	 imul	 eax, DWORD PTR ?battlePetNoBak@@3HA, 2848 ; battlePetNoBak
  0048a	8b 8d a4 fe ff
	ff		 mov	 ecx, DWORD PTR _j$5[ebp]
  00490	3b 88 44 00 00
	00		 cmp	 ecx, DWORD PTR ?pet@@3PAUPET@@A[eax+68]
  00496	7d 4d		 jge	 SHORT $LN14@BattleButt

; 2623 : 											// ????????
; 2624 : 											if( petSkill[ battlePetNoBak ][ j ].useFlag == TRUE ){

  00498	69 05 00 00 00
	00 e6 02 00 00	 imul	 eax, DWORD PTR ?battlePetNoBak@@3HA, 742 ; battlePetNoBak
  004a2	6b 8d a4 fe ff
	ff 6a		 imul	 ecx, DWORD PTR _j$5[ebp], 106
  004a9	0f bf 94 08 00
	00 00 00	 movsx	 edx, WORD PTR ?petSkill@@3PAY06UPET_SKILL@@A[eax+ecx]
  004b1	83 fa 01	 cmp	 edx, 1
  004b4	75 2d		 jne	 SHORT $LN41@BattleButt

; 2625 : 												// ????
; 2626 : 												if(	petSkill[ battlePetNoBak ][ j ].field != PETSKILL_FIELD_MAP ) flag++;

  004b6	69 05 00 00 00
	00 e6 02 00 00	 imul	 eax, DWORD PTR ?battlePetNoBak@@3HA, 742 ; battlePetNoBak
  004c0	6b 8d a4 fe ff
	ff 6a		 imul	 ecx, DWORD PTR _j$5[ebp], 106
  004c7	0f bf 94 08 04
	00 00 00	 movsx	 edx, WORD PTR ?petSkill@@3PAY06UPET_SKILL@@A[eax+ecx+4]
  004cf	83 fa 02	 cmp	 edx, 2
  004d2	74 0f		 je	 SHORT $LN41@BattleButt
  004d4	8b 85 b0 fe ff
	ff		 mov	 eax, DWORD PTR _flag$6[ebp]
  004da	83 c0 01	 add	 eax, 1
  004dd	89 85 b0 fe ff
	ff		 mov	 DWORD PTR _flag$6[ebp], eax
$LN41@BattleButt:

; 2627 : 											}
; 2628 : 										}

  004e3	eb 8c		 jmp	 SHORT $LN13@BattleButt
$LN14@BattleButt:

; 2629 : 										// ??????????
; 2630 : 										if( flag > 0 ){

  004e5	83 bd b0 fe ff
	ff 00		 cmp	 DWORD PTR _flag$6[ebp], 0
  004ec	7e 19		 jle	 SHORT $LN43@BattleButt

; 2631 : 											// ???
; 2632 : 											play_se( 220, 320, 240 );

  004ee	68 f0 00 00 00	 push	 240			; 000000f0H
  004f3	68 40 01 00 00	 push	 320			; 00000140H
  004f8	68 dc 00 00 00	 push	 220			; 000000dcH
  004fd	e8 00 00 00 00	 call	 ?play_se@@YAHHHH@Z	; play_se
  00502	83 c4 0c	 add	 esp, 12			; 0000000cH

; 2633 : 										}
; 2634 : 										// ??????
; 2635 : 										else{

  00505	eb 66		 jmp	 SHORT $LN30@BattleButt
$LN43@BattleButt:

; 2636 : 											BattleButtonOff(); // ????????????

  00507	e8 00 00 00 00	 call	 ?BattleButtonOff@@YAXXZ	; BattleButtonOff

; 2637 : 											//battleMenuReturn = TRUE;
; 2638 : 											ClearBoxFlag();

  0050c	e8 00 00 00 00	 call	 ?ClearBoxFlag@@YAXXZ	; ClearBoxFlag

; 2639 : 											// ???????????
; 2640 : 											if( bNewServer)

  00511	83 3d 00 00 00
	00 00		 cmp	 DWORD PTR ?bNewServer@@3HA, 0 ; bNewServer
  00518	74 15		 je	 SHORT $LN45@BattleButt

; 2641 : 												lssproto_B_send( sockfd, "W|FF|FF" );

  0051a	68 00 00 00 00	 push	 OFFSET ??_C@_07BDJJCCFL@W?$HMFF?$HMFF?$AA@
  0051f	a1 00 00 00 00	 mov	 eax, DWORD PTR ?sockfd@@3IA ; sockfd
  00524	50		 push	 eax
  00525	e8 00 00 00 00	 call	 ?lssproto_B_send@@YAXHPAD@Z ; lssproto_B_send
  0052a	83 c4 08	 add	 esp, 8

; 2642 : 											else

  0052d	eb 13		 jmp	 SHORT $LN46@BattleButt
$LN45@BattleButt:

; 2643 : 												old_lssproto_B_send( sockfd, "W|FF|FF" );

  0052f	68 00 00 00 00	 push	 OFFSET ??_C@_07BDJJCCFL@W?$HMFF?$HMFF?$AA@
  00534	a1 00 00 00 00	 mov	 eax, DWORD PTR ?sockfd@@3IA ; sockfd
  00539	50		 push	 eax
  0053a	e8 00 00 00 00	 call	 ?old_lssproto_B_send@@YAXHPAD@Z ; old_lssproto_B_send
  0053f	83 c4 08	 add	 esp, 8
$LN46@BattleButt:

; 2644 : 											// ????????
; 2645 : 											play_se( 203, 320, 240 );

  00542	68 f0 00 00 00	 push	 240			; 000000f0H
  00547	68 40 01 00 00	 push	 320			; 00000140H
  0054c	68 cb 00 00 00	 push	 203			; 000000cbH
  00551	e8 00 00 00 00	 call	 ?play_se@@YAHHHH@Z	; play_se
  00556	83 c4 0c	 add	 esp, 12			; 0000000cH

; 2646 : 											// ????????
; 2647 : 											battleWazaTargetBak = -1;

  00559	c7 05 00 00 00
	00 ff ff ff ff	 mov	 DWORD PTR ?battleWazaTargetBak@@3HA, -1 ; battleWazaTargetBak

; 2648 : 											// ??????????????
; 2649 : 											battleTargetSelectFlag = FALSE;

  00563	c7 05 00 00 00
	00 00 00 00 00	 mov	 DWORD PTR ?battleTargetSelectFlag@@3HA, 0
$LN30@BattleButt:

; 2650 : 										}
; 2651 : 									}
; 2652 : 								}
; 2653 : 							}
; 2654 : 						}
; 2655 : 					}

  0056d	e9 9d fc ff ff	 jmp	 $LN8@BattleButt
$LN9@BattleButt:

; 2656 : /*
; 2657 : #ifndef __AI
; 2658 : 					//cary 宠物的自动战斗
; 2659 : 					if( !PauseAI && AI!=AI_NONE && FALSE==battleTargetSelectFlag){
; 2660 : 						if( (BattleIntervalCnt==0 && (BattleCntDown-TimeGetTime())<=29000) || BattleIntervalCnt<TimeGetTime()){
; 2661 : 							BattleIntervalCnt = TimeGetTime()+500;
; 2662 : 							int first = -1;
; 2663 : 							int firstattack = -1;
; 2664 : 							DWORD ai = AI;
; 2665 : 							if( ai == AI_SELECT){
; 2666 : 								if( pet[ battlePetNoBak ].maxHp*3/10 > pet[ battlePetNoBak ].hp)
; 2667 : 									ai = AI_GUARD;
; 2668 : 								else
; 2669 : 									ai = AI_ATTACK;
; 2670 : 							}
; 2671 : 							for( i = 0 ; i < pet[ battlePetNoBak ].maxSkill ; i++ ){
; 2672 : 								if( petSkill[ battlePetNoBak ][ i ].useFlag == TRUE && 
; 2673 : 									petSkill[ battlePetNoBak ][ i ].field != PETSKILL_FIELD_MAP ){
; 2674 : 									if( first == -1)
; 2675 : 										first = i;
; 2676 : 									if( ai == AI_ATTACK){
; 2677 : 										if( petSkill[ battlePetNoBak ][ i ].skillId!=2 && firstattack==-1)
; 2678 : 											firstattack = i;
; 2679 : 										if( petSkill[ battlePetNoBak ][ i ].skillId == 1){
; 2680 : #ifdef _BATTLESKILL				// (不可开) Syu ADD 战斗技能介面
; 2681 : 											BattleSetWazaHitBox( i , 0 );
; 2682 : 
; 2683 : #else
; 2684 : 											BattleSetWazaHitBox( i );
; 2685 : #endif
; 2686 : 											break;
; 2687 : 										}
; 2688 : 									}else if( ai == AI_GUARD){
; 2689 : 										if( petSkill[ battlePetNoBak ][ i ].skillId == 2){
; 2690 : #ifdef _BATTLESKILL				// (不可开) Syu ADD 战斗技能介面
; 2691 : 											BattleSetWazaHitBox( i , 0 );
; 2692 : #else
; 2693 : 											BattleSetWazaHitBox( i );
; 2694 : #endif
; 2695 : 											break;
; 2696 : 										}
; 2697 : 									}
; 2698 : 								}
; 2699 : 							}
; 2700 : 							if( i==pet[ battlePetNoBak ].maxSkill){
; 2701 : 								if( ai==AI_ATTACK && firstattack!=-1)
; 2702 : 									first = firstattack;
; 2703 : 								if( first == -1){
; 2704 : 									// ??????????????
; 2705 : 									battleTargetSelectFlag = TRUE;
; 2706 : 									// ???????????
; 2707 : 									DeathAction( pActWnd );
; 2708 : 									pActWnd = NULL;
; 2709 : 									// ?????????
; 2710 : 									ClearBattleButton();
; 2711 : 									// ?????
; 2712 : 									//play_se( 217, 320, 240 );
; 2713 : 								}else
; 2714 : #ifdef _BATTLESKILL				// (不可开) Syu ADD 战斗技能介面
; 2715 : 									BattleSetWazaHitBox( first , 0 );
; 2716 : #else
; 2717 : 									BattleSetWazaHitBox( first );
; 2718 : #endif
; 2719 : 							}
; 2720 : 						}
; 2721 : 					}
; 2722 : #endif
; 2723 : */
; 2724 : 					// ?????????
; 2725 : 					if( pActWnd != NULL ){

  00572	83 3d 00 00 00
	00 00		 cmp	 DWORD PTR ?pActWnd@@3PAUaction@@A, 0
  00579	0f 84 07 02 00
	00		 je	 $LN54@BattleButt

; 2726 : 						// ?
; 2727 : 						x = pActWnd->x + 40;

  0057f	a1 00 00 00 00	 mov	 eax, DWORD PTR ?pActWnd@@3PAUaction@@A
  00584	8b 48 18	 mov	 ecx, DWORD PTR [eax+24]
  00587	83 c1 28	 add	 ecx, 40			; 00000028H
  0058a	89 4d dc	 mov	 DWORD PTR _x$[ebp], ecx

; 2728 : 						y = pActWnd->y + 32;

  0058d	a1 00 00 00 00	 mov	 eax, DWORD PTR ?pActWnd@@3PAUaction@@A
  00592	8b 48 1c	 mov	 ecx, DWORD PTR [eax+28]
  00595	83 c1 20	 add	 ecx, 32			; 00000020H
  00598	89 4d d0	 mov	 DWORD PTR _y$[ebp], ecx

; 2729 : 						// ??????
; 2730 : 						if( pet[ battlePetNoBak ].freeName[ 0 ] != NULL )

  0059b	69 05 00 00 00
	00 20 0b 00 00	 imul	 eax, DWORD PTR ?battlePetNoBak@@3HA, 2848 ; battlePetNoBak
  005a5	b9 01 00 00 00	 mov	 ecx, 1
  005aa	6b d1 00	 imul	 edx, ecx, 0
  005ad	0f be 84 10 65
	00 00 00	 movsx	 eax, BYTE PTR ?pet@@3PAUPET@@A[eax+edx+101]
  005b5	85 c0		 test	 eax, eax
  005b7	74 24		 je	 SHORT $LN48@BattleButt

; 2731 : 							CenteringStr( pet[ battlePetNoBak ].freeName, moji, PET_NAME_LEN );

  005b9	6a 10		 push	 16			; 00000010H
  005bb	8d 85 c8 fe ff
	ff		 lea	 eax, DWORD PTR _moji$[ebp]
  005c1	50		 push	 eax
  005c2	69 0d 00 00 00
	00 20 0b 00 00	 imul	 ecx, DWORD PTR ?battlePetNoBak@@3HA, 2848 ; battlePetNoBak
  005cc	81 c1 65 00 00
	00		 add	 ecx, OFFSET ?pet@@3PAUPET@@A+101
  005d2	51		 push	 ecx
  005d3	e8 00 00 00 00	 call	 ?CenteringStr@@YAXPAD0H@Z ; CenteringStr
  005d8	83 c4 0c	 add	 esp, 12			; 0000000cH

; 2732 : 						else

  005db	eb 22		 jmp	 SHORT $LN49@BattleButt
$LN48@BattleButt:

; 2733 : 							CenteringStr( pet[ battlePetNoBak ].name, moji, PET_NAME_LEN );

  005dd	6a 10		 push	 16			; 00000010H
  005df	8d 85 c8 fe ff
	ff		 lea	 eax, DWORD PTR _moji$[ebp]
  005e5	50		 push	 eax
  005e6	69 0d 00 00 00
	00 20 0b 00 00	 imul	 ecx, DWORD PTR ?battlePetNoBak@@3HA, 2848 ; battlePetNoBak
  005f0	81 c1 54 00 00
	00		 add	 ecx, OFFSET ?pet@@3PAUPET@@A+84
  005f6	51		 push	 ecx
  005f7	e8 00 00 00 00	 call	 ?CenteringStr@@YAXPAD0H@Z ; CenteringStr
  005fc	83 c4 0c	 add	 esp, 12			; 0000000cH
$LN49@BattleButt:

; 2734 : 							StockFontBuffer( x - 28, y, FONT_PRIO_FRONT, 0, moji, 0 ); y += 26; x += 18;

  005ff	6a 00		 push	 0
  00601	8d 85 c8 fe ff
	ff		 lea	 eax, DWORD PTR _moji$[ebp]
  00607	50		 push	 eax
  00608	6a 00		 push	 0
  0060a	6a 01		 push	 1
  0060c	8b 4d d0	 mov	 ecx, DWORD PTR _y$[ebp]
  0060f	51		 push	 ecx
  00610	8b 55 dc	 mov	 edx, DWORD PTR _x$[ebp]
  00613	83 ea 1c	 sub	 edx, 28			; 0000001cH
  00616	52		 push	 edx
  00617	e8 00 00 00 00	 call	 ?StockFontBuffer@@YAHHHDHPADH@Z ; StockFontBuffer
  0061c	83 c4 18	 add	 esp, 24			; 00000018H
  0061f	8b 45 d0	 mov	 eax, DWORD PTR _y$[ebp]
  00622	83 c0 1a	 add	 eax, 26			; 0000001aH
  00625	89 45 d0	 mov	 DWORD PTR _y$[ebp], eax
  00628	8b 45 dc	 mov	 eax, DWORD PTR _x$[ebp]
  0062b	83 c0 12	 add	 eax, 18			; 00000012H
  0062e	89 45 dc	 mov	 DWORD PTR _x$[ebp], eax

; 2735 : 						// ?
; 2736 : 						for( i = 0 ; i < pet[ battlePetNoBak ].maxSkill ; i++ ){

  00631	c7 45 f4 00 00
	00 00		 mov	 DWORD PTR _i$[ebp], 0
  00638	eb 09		 jmp	 SHORT $LN18@BattleButt
$LN16@BattleButt:
  0063a	8b 45 f4	 mov	 eax, DWORD PTR _i$[ebp]
  0063d	83 c0 01	 add	 eax, 1
  00640	89 45 f4	 mov	 DWORD PTR _i$[ebp], eax
$LN18@BattleButt:
  00643	69 05 00 00 00
	00 20 0b 00 00	 imul	 eax, DWORD PTR ?battlePetNoBak@@3HA, 2848 ; battlePetNoBak
  0064d	8b 4d f4	 mov	 ecx, DWORD PTR _i$[ebp]
  00650	3b 88 44 00 00
	00		 cmp	 ecx, DWORD PTR ?pet@@3PAUPET@@A[eax+68]
  00656	0f 8d e9 00 00
	00		 jge	 $LN17@BattleButt

; 2737 : 							// ????????
; 2738 : 							if( petSkill[ battlePetNoBak ][ i ].useFlag == TRUE ){

  0065c	69 05 00 00 00
	00 e6 02 00 00	 imul	 eax, DWORD PTR ?battlePetNoBak@@3HA, 742 ; battlePetNoBak
  00666	6b 4d f4 6a	 imul	 ecx, DWORD PTR _i$[ebp], 106
  0066a	0f bf 94 08 00
	00 00 00	 movsx	 edx, WORD PTR ?petSkill@@3PAY06UPET_SKILL@@A[eax+ecx]
  00672	83 fa 01	 cmp	 edx, 1
  00675	0f 85 bc 00 00
	00		 jne	 $LN50@BattleButt

; 2739 : 								int color = FONT_PAL_GRAY;

  0067b	c7 85 98 fe ff
	ff 07 00 00 00	 mov	 DWORD PTR _color$4[ebp], 7

; 2740 : 								//cary
; 2741 : 								sprintf( moji,"       %-22s",petSkill[ battlePetNoBak ][ i ].name );

  00685	69 05 00 00 00
	00 e6 02 00 00	 imul	 eax, DWORD PTR ?battlePetNoBak@@3HA, 742 ; battlePetNoBak
  0068f	6b 4d f4 6a	 imul	 ecx, DWORD PTR _i$[ebp], 106
  00693	8d 94 08 08 00
	00 00		 lea	 edx, DWORD PTR ?petSkill@@3PAY06UPET_SKILL@@A[eax+ecx+8]
  0069a	52		 push	 edx
  0069b	68 00 00 00 00	 push	 OFFSET ??_C@_0N@DBNACIMP@?5?5?5?5?5?5?5?$CF?922s?$AA@
  006a0	8d 85 c8 fe ff
	ff		 lea	 eax, DWORD PTR _moji$[ebp]
  006a6	50		 push	 eax
  006a7	e8 00 00 00 00	 call	 _sprintf
  006ac	83 c4 0c	 add	 esp, 12			; 0000000cH

; 2742 : 								//end
; 2743 : 								// ????
; 2744 : 								if(	petSkill[ battlePetNoBak ][ i ].field != PETSKILL_FIELD_MAP ){

  006af	69 05 00 00 00
	00 e6 02 00 00	 imul	 eax, DWORD PTR ?battlePetNoBak@@3HA, 742 ; battlePetNoBak
  006b9	6b 4d f4 6a	 imul	 ecx, DWORD PTR _i$[ebp], 106
  006bd	0f bf 94 08 04
	00 00 00	 movsx	 edx, WORD PTR ?petSkill@@3PAY06UPET_SKILL@@A[eax+ecx+4]
  006c5	83 fa 02	 cmp	 edx, 2
  006c8	74 3e		 je	 SHORT $LN51@BattleButt

; 2745 : #ifdef _VARY_WOLF
; 2746 : 									if(!((pet[battlePetNoBak].graNo==101428)&&(petSkill[battlePetNoBak][i].skillId==600))

  006ca	69 05 00 00 00
	00 20 0b 00 00	 imul	 eax, DWORD PTR ?battlePetNoBak@@3HA, 2848 ; battlePetNoBak
  006d4	81 b8 04 00 00
	00 34 8c 01 00	 cmp	 DWORD PTR ?pet@@3PAUPET@@A[eax+4], 101428 ; 00018c34H
  006de	75 1e		 jne	 SHORT $LN53@BattleButt
  006e0	69 05 00 00 00
	00 e6 02 00 00	 imul	 eax, DWORD PTR ?battlePetNoBak@@3HA, 742 ; battlePetNoBak
  006ea	6b 4d f4 6a	 imul	 ecx, DWORD PTR _i$[ebp], 106
  006ee	0f bf 94 08 02
	00 00 00	 movsx	 edx, WORD PTR ?petSkill@@3PAY06UPET_SKILL@@A[eax+ecx+2]
  006f6	81 fa 58 02 00
	00		 cmp	 edx, 600		; 00000258H
  006fc	74 0a		 je	 SHORT $LN51@BattleButt
$LN53@BattleButt:

; 2747 : 										)
; 2748 : #endif
; 2749 : 										color = FONT_PAL_WHITE;

  006fe	c7 85 98 fe ff
	ff 00 00 00 00	 mov	 DWORD PTR _color$4[ebp], 0
$LN51@BattleButt:

; 2750 : 								}
; 2751 : 								battleMenuWazaFontNo[ i ] = StockFontBuffer( x - 43, y, FONT_PRIO_FRONT, color, moji, 2 );

  00708	6a 02		 push	 2
  0070a	8d 85 c8 fe ff
	ff		 lea	 eax, DWORD PTR _moji$[ebp]
  00710	50		 push	 eax
  00711	8b 8d 98 fe ff
	ff		 mov	 ecx, DWORD PTR _color$4[ebp]
  00717	51		 push	 ecx
  00718	6a 01		 push	 1
  0071a	8b 55 d0	 mov	 edx, DWORD PTR _y$[ebp]
  0071d	52		 push	 edx
  0071e	8b 45 dc	 mov	 eax, DWORD PTR _x$[ebp]
  00721	83 e8 2b	 sub	 eax, 43			; 0000002bH
  00724	50		 push	 eax
  00725	e8 00 00 00 00	 call	 ?StockFontBuffer@@YAHHHDHPADH@Z ; StockFontBuffer
  0072a	83 c4 18	 add	 esp, 24			; 00000018H
  0072d	8b 4d f4	 mov	 ecx, DWORD PTR _i$[ebp]
  00730	89 04 8d 00 00
	00 00		 mov	 DWORD PTR ?battleMenuWazaFontNo@@3PAHA[ecx*4], eax
$LN50@BattleButt:

; 2752 : 							}
; 2753 : 							y += 25;

  00737	8b 45 d0	 mov	 eax, DWORD PTR _y$[ebp]
  0073a	83 c0 19	 add	 eax, 25			; 00000019H
  0073d	89 45 d0	 mov	 DWORD PTR _y$[ebp], eax

; 2754 : 						}

  00740	e9 f5 fe ff ff	 jmp	 $LN16@BattleButt
$LN17@BattleButt:

; 2755 : 						// ?
; 2756 : 						y = pActWnd->y + 330;

  00745	a1 00 00 00 00	 mov	 eax, DWORD PTR ?pActWnd@@3PAUaction@@A
  0074a	8b 48 1c	 mov	 ecx, DWORD PTR [eax+28]
  0074d	81 c1 4a 01 00
	00		 add	 ecx, 330		; 0000014aH
  00753	89 4d d0	 mov	 DWORD PTR _y$[ebp], ecx

; 2757 : 						// ?????????
; 2758 : 						battleMenuWazaFontNo[ 7 ] = StockDispBuffer( ( ( WINDOW_DISP *)pActWnd->pYobi )->mx, y, DISP_PRIO_IME3, CG_CLOSE_BTN, 2 );

  00756	6a 02		 push	 2
  00758	68 ba 65 00 00	 push	 26042			; 000065baH
  0075d	6a 69		 push	 105			; 00000069H
  0075f	8b 45 d0	 mov	 eax, DWORD PTR _y$[ebp]
  00762	50		 push	 eax
  00763	8b 0d 00 00 00
	00		 mov	 ecx, DWORD PTR ?pActWnd@@3PAUaction@@A
  00769	8b 51 0c	 mov	 edx, DWORD PTR [ecx+12]
  0076c	8b 42 14	 mov	 eax, DWORD PTR [edx+20]
  0076f	50		 push	 eax
  00770	e8 00 00 00 00	 call	 ?StockDispBuffer@@YAHHHEHH@Z ; StockDispBuffer
  00775	83 c4 14	 add	 esp, 20			; 00000014H
  00778	b9 04 00 00 00	 mov	 ecx, 4
  0077d	6b d1 07	 imul	 edx, ecx, 7
  00780	89 82 00 00 00
	00		 mov	 DWORD PTR ?battleMenuWazaFontNo@@3PAHA[edx], eax
$LN54@BattleButt:

; 2759 : 					}
; 2760 : 				}
; 2761 : 			}
; 2762 : 		}
; 2763 : 	}
; 2764 : }

  00786	52		 push	 edx
  00787	8b cd		 mov	 ecx, ebp
  00789	50		 push	 eax
  0078a	8d 15 00 00 00
	00		 lea	 edx, DWORD PTR $LN63@BattleButt
  00790	e8 00 00 00 00	 call	 @_RTC_CheckStackVars@8
  00795	58		 pop	 eax
  00796	5a		 pop	 edx
  00797	5f		 pop	 edi
  00798	5e		 pop	 esi
  00799	5b		 pop	 ebx
  0079a	8b 4d fc	 mov	 ecx, DWORD PTR __$ArrayPad$[ebp]
  0079d	33 cd		 xor	 ecx, ebp
  0079f	e8 00 00 00 00	 call	 @__security_check_cookie@4
  007a4	81 c4 50 02 00
	00		 add	 esp, 592		; 00000250H
  007aa	3b ec		 cmp	 ebp, esp
  007ac	e8 00 00 00 00	 call	 __RTC_CheckEsp
  007b1	8b e5		 mov	 esp, ebp
  007b3	5d		 pop	 ebp
  007b4	c3		 ret	 0
  007b5	0f 1f 00	 npad	 3
$LN63@BattleButt:
  007b8	01 00 00 00	 DD	 1
  007bc	00 00 00 00	 DD	 $LN62@BattleButt
$LN62@BattleButt:
  007c0	c8 fe ff ff	 DD	 -312			; fffffec8H
  007c4	00 01 00 00	 DD	 256			; 00000100H
  007c8	00 00 00 00	 DD	 $LN61@BattleButt
$LN61@BattleButt:
  007cc	6d		 DB	 109			; 0000006dH
  007cd	6f		 DB	 111			; 0000006fH
  007ce	6a		 DB	 106			; 0000006aH
  007cf	69		 DB	 105			; 00000069H
  007d0	00		 DB	 0
?BattleButtonWaza@@YAXXZ ENDP				; BattleButtonWaza
_TEXT	ENDS
; Function compile flags: /Odtp /RTCsu /ZI
; File c:\users\administrator\desktop\????? ??\????? ??\client source code\system\battlemenu.cpp
;	COMDAT ?BattleButtonEscape@@YAXXZ
_TEXT	SEGMENT
?BattleButtonEscape@@YAXXZ PROC				; BattleButtonEscape, COMDAT

; 2002 : {

  00000	55		 push	 ebp
  00001	8b ec		 mov	 ebp, esp
  00003	81 ec c0 00 00
	00		 sub	 esp, 192		; 000000c0H
  00009	53		 push	 ebx
  0000a	56		 push	 esi
  0000b	57		 push	 edi
  0000c	8d bd 40 ff ff
	ff		 lea	 edi, DWORD PTR [ebp-192]
  00012	b9 30 00 00 00	 mov	 ecx, 48			; 00000030H
  00017	b8 cc cc cc cc	 mov	 eax, -858993460		; ccccccccH
  0001c	f3 ab		 rep stosd

; 2003 : 	if( HitDispNo == battleButtonDispNo[ 7 ] && battleButtonFlag[ 7 ] == FALSE ){

  0001e	b8 04 00 00 00	 mov	 eax, 4
  00023	6b c8 07	 imul	 ecx, eax, 7
  00026	8b 15 00 00 00
	00		 mov	 edx, DWORD PTR ?HitDispNo@@3HA ; HitDispNo
  0002c	3b 91 00 00 00
	00		 cmp	 edx, DWORD PTR ?battleButtonDispNo@@3PAHA[ecx]
  00032	0f 85 bc 00 00
	00		 jne	 $LN1@BattleButt
  00038	b8 04 00 00 00	 mov	 eax, 4
  0003d	6b c8 07	 imul	 ecx, eax, 7
  00040	83 b9 00 00 00
	00 00		 cmp	 DWORD PTR ?battleButtonFlag@@3PAHA[ecx], 0
  00047	0f 85 a7 00 00
	00		 jne	 $LN1@BattleButt

; 2004 : 
; 2005 : 		if( mouse.onceState & MOUSE_LEFT_CRICK ){

  0004d	a1 2c 00 00 00	 mov	 eax, DWORD PTR ?mouse@@3UMOUSE@@A+44
  00052	83 e0 01	 and	 eax, 1
  00055	0f 84 87 00 00
	00		 je	 $LN3@BattleButt

; 2006 : 			BattleButtonOff();

  0005b	e8 00 00 00 00	 call	 ?BattleButtonOff@@YAXXZ	; BattleButtonOff

; 2007 : 			battleButtonFlag[ 7 ] = TRUE;

  00060	b8 04 00 00 00	 mov	 eax, 4
  00065	6b c8 07	 imul	 ecx, eax, 7
  00068	c7 81 00 00 00
	00 01 00 00 00	 mov	 DWORD PTR ?battleButtonFlag@@3PAHA[ecx], 1

; 2008 : 			// ??
; 2009 : 			if( bNewServer)

  00072	83 3d 00 00 00
	00 00		 cmp	 DWORD PTR ?bNewServer@@3HA, 0 ; bNewServer
  00079	74 15		 je	 SHORT $LN4@BattleButt

; 2010 : 				lssproto_B_send( sockfd, "E" );

  0007b	68 00 00 00 00	 push	 OFFSET ??_C@_01DDCIFGEA@E?$AA@
  00080	a1 00 00 00 00	 mov	 eax, DWORD PTR ?sockfd@@3IA ; sockfd
  00085	50		 push	 eax
  00086	e8 00 00 00 00	 call	 ?lssproto_B_send@@YAXHPAD@Z ; lssproto_B_send
  0008b	83 c4 08	 add	 esp, 8

; 2011 : 			else

  0008e	eb 13		 jmp	 SHORT $LN5@BattleButt
$LN4@BattleButt:

; 2012 : 				old_lssproto_B_send( sockfd, "E" );

  00090	68 00 00 00 00	 push	 OFFSET ??_C@_01DDCIFGEA@E?$AA@
  00095	a1 00 00 00 00	 mov	 eax, DWORD PTR ?sockfd@@3IA ; sockfd
  0009a	50		 push	 eax
  0009b	e8 00 00 00 00	 call	 ?old_lssproto_B_send@@YAXHPAD@Z ; old_lssproto_B_send
  000a0	83 c4 08	 add	 esp, 8
$LN5@BattleButt:

; 2013 : 			// ??????????
; 2014 : 			battlePlayerEscFlag = TRUE;

  000a3	c7 05 00 00 00
	00 01 00 00 00	 mov	 DWORD PTR ?battlePlayerEscFlag@@3HA, 1 ; battlePlayerEscFlag

; 2015 : 			// ??????
; 2016 : 			battleMenuReturn = TRUE;

  000ad	c7 05 00 00 00
	00 01 00 00 00	 mov	 DWORD PTR ?battleMenuReturn@@3HA, 1

; 2017 : 			// ????????
; 2018 : 			battleButtonBak = -1;

  000b7	c7 05 00 00 00
	00 ff ff ff ff	 mov	 DWORD PTR ?battleButtonBak@@3HA, -1 ; battleButtonBak

; 2019 : 			// ????????
; 2020 : 			battleButtonBak2 = -1;

  000c1	c7 05 00 00 00
	00 ff ff ff ff	 mov	 DWORD PTR ?battleButtonBak2@@3HA, -1

; 2021 : 			// ????????
; 2022 : 			play_se( 203, 320, 240 );

  000cb	68 f0 00 00 00	 push	 240			; 000000f0H
  000d0	68 40 01 00 00	 push	 320			; 00000140H
  000d5	68 cb 00 00 00	 push	 203			; 000000cbH
  000da	e8 00 00 00 00	 call	 ?play_se@@YAHHHH@Z	; play_se
  000df	83 c4 0c	 add	 esp, 12			; 0000000cH
$LN3@BattleButt:

; 2023 : 		}
; 2024 : 		// ??????
; 2025 : 		strcpy( OneLineInfoStr, "탈출。");

  000e2	68 00 00 00 00	 push	 OFFSET ??_C@_06DOILANO@?E?$LL?C?b?$KB?$KD?$AA@
  000e7	68 00 00 00 00	 push	 OFFSET ?OneLineInfoStr@@3PADA ; OneLineInfoStr
  000ec	e8 00 00 00 00	 call	 _strcpy
  000f1	83 c4 08	 add	 esp, 8
$LN1@BattleButt:

; 2026 : 	}
; 2027 : }

  000f4	5f		 pop	 edi
  000f5	5e		 pop	 esi
  000f6	5b		 pop	 ebx
  000f7	81 c4 c0 00 00
	00		 add	 esp, 192		; 000000c0H
  000fd	3b ec		 cmp	 ebp, esp
  000ff	e8 00 00 00 00	 call	 __RTC_CheckEsp
  00104	8b e5		 mov	 esp, ebp
  00106	5d		 pop	 ebp
  00107	c3		 ret	 0
?BattleButtonEscape@@YAXXZ ENDP				; BattleButtonEscape
_TEXT	ENDS
; Function compile flags: /Odtp /RTCsu /ZI
; File c:\users\administrator\desktop\????? ??\????? ??\client source code\system\battlemenu.cpp
;	COMDAT ?BattleButtonPPLSKILL@@YAXXZ
_TEXT	SEGMENT
tv151 = -1400						; size = 4
tv88 = -1400						; size = 4
$T1 = -1392						; size = 4
$T2 = -1380						; size = 4
$T3 = -1368						; size = 4
_splitPoint$4 = -972					; size = 4
_use_color$5 = -960					; size = 4
_j$6 = -948						; size = 4
_i$7 = -936						; size = 4
_use_color$8 = -924					; size = 4
_j$9 = -912						; size = 4
_i$10 = -900						; size = 4
_use_color$11 = -888					; size = 4
_j$12 = -876						; size = 4
_i$13 = -864						; size = 4
_j$14 = -852						; size = 4
_i$15 = -840						; size = 4
_y$16 = -828						; size = 4
_x$17 = -816						; size = 4
_i$18 = -804						; size = 4
_msg2$ = -792						; size = 256
_buf$ = -528						; size = 256
_msg$ = -264						; size = 256
__$ArrayPad$ = -4					; size = 4
?BattleButtonPPLSKILL@@YAXXZ PROC			; BattleButtonPPLSKILL, COMDAT

; 1748 : {

  00000	55		 push	 ebp
  00001	8b ec		 mov	 ebp, esp
  00003	81 ec 78 05 00
	00		 sub	 esp, 1400		; 00000578H
  00009	53		 push	 ebx
  0000a	56		 push	 esi
  0000b	57		 push	 edi
  0000c	8d bd 88 fa ff
	ff		 lea	 edi, DWORD PTR [ebp-1400]
  00012	b9 5e 01 00 00	 mov	 ecx, 350		; 0000015eH
  00017	b8 cc cc cc cc	 mov	 eax, -858993460		; ccccccccH
  0001c	f3 ab		 rep stosd
  0001e	a1 00 00 00 00	 mov	 eax, DWORD PTR ___security_cookie
  00023	33 c5		 xor	 eax, ebp
  00025	89 45 fc	 mov	 DWORD PTR __$ArrayPad$[ebp], eax

; 1749 : 	if ( MenuToggleFlag & JOY_ESC || MenuToggleFlag & JOY_CTRL_E || MenuToggleFlag & JOY_CTRL_A) {

  00028	a1 00 00 00 00	 mov	 eax, DWORD PTR ?MenuToggleFlag@@3IA ; MenuToggleFlag
  0002d	25 00 00 00 80	 and	 eax, -2147483648	; 80000000H
  00032	75 18		 jne	 SHORT $LN34@BattleButt
  00034	a1 00 00 00 00	 mov	 eax, DWORD PTR ?MenuToggleFlag@@3IA ; MenuToggleFlag
  00039	25 00 00 00 04	 and	 eax, 67108864		; 04000000H
  0003e	75 0c		 jne	 SHORT $LN34@BattleButt
  00040	a1 00 00 00 00	 mov	 eax, DWORD PTR ?MenuToggleFlag@@3IA ; MenuToggleFlag
  00045	25 00 00 00 02	 and	 eax, 33554432		; 02000000H
  0004a	74 05		 je	 SHORT $LN33@BattleButt
$LN34@BattleButt:

; 1750 : 		//play_se( 220, 320, 240 );
; 1751 : 		return; 

  0004c	e9 01 13 00 00	 jmp	 $LN78@BattleButt
$LN33@BattleButt:

; 1752 : 	}
; 1753 : 	char msg[256] = "";

  00051	a0 00 00 00 00	 mov	 al, BYTE PTR ??_C@_00CNPNBAHC@?$AA@
  00056	88 85 f8 fe ff
	ff		 mov	 BYTE PTR _msg$[ebp], al
  0005c	68 ff 00 00 00	 push	 255			; 000000ffH
  00061	6a 00		 push	 0
  00063	8d 85 f9 fe ff
	ff		 lea	 eax, DWORD PTR _msg$[ebp+1]
  00069	50		 push	 eax
  0006a	e8 00 00 00 00	 call	 _memset
  0006f	83 c4 0c	 add	 esp, 12			; 0000000cH

; 1754 : 	char buf[256];
; 1755 : 	char msg2[256];
; 1756 : 	if( HitDispNo == battleButtonDispNo[ 9 ] ){

  00072	b8 04 00 00 00	 mov	 eax, 4
  00077	6b c8 09	 imul	 ecx, eax, 9
  0007a	8b 15 00 00 00
	00		 mov	 edx, DWORD PTR ?HitDispNo@@3HA ; HitDispNo
  00080	3b 91 00 00 00
	00		 cmp	 edx, DWORD PTR ?battleButtonDispNo@@3PAHA[ecx]
  00086	0f 85 a3 00 00
	00		 jne	 $LN35@BattleButt

; 1757 : 		if( mouse.onceState & MOUSE_LEFT_CRICK ){

  0008c	a1 2c 00 00 00	 mov	 eax, DWORD PTR ?mouse@@3UMOUSE@@A+44
  00091	83 e0 01	 and	 eax, 1
  00094	0f 84 83 00 00
	00		 je	 $LN36@BattleButt

; 1758 : 			play_se( 217, 320, 240 );

  0009a	68 f0 00 00 00	 push	 240			; 000000f0H
  0009f	68 40 01 00 00	 push	 320			; 00000140H
  000a4	68 d9 00 00 00	 push	 217			; 000000d9H
  000a9	e8 00 00 00 00	 call	 ?play_se@@YAHHHH@Z	; play_se
  000ae	83 c4 0c	 add	 esp, 12			; 0000000cH

; 1759 : 			DeathAction( pActWnd );

  000b1	a1 00 00 00 00	 mov	 eax, DWORD PTR ?pActWnd@@3PAUaction@@A
  000b6	50		 push	 eax
  000b7	e8 00 00 00 00	 call	 ?DeathAction@@YAXPAUaction@@@Z ; DeathAction
  000bc	83 c4 04	 add	 esp, 4

; 1760 : 			pActWnd = NULL;

  000bf	c7 05 00 00 00
	00 00 00 00 00	 mov	 DWORD PTR ?pActWnd@@3PAUaction@@A, 0

; 1761 : 			battleTargetSelectFlag = FALSE;

  000c9	c7 05 00 00 00
	00 00 00 00 00	 mov	 DWORD PTR ?battleTargetSelectFlag@@3HA, 0

; 1762 : 			BattleCmdNo = -1;

  000d3	c7 05 00 00 00
	00 ff ff ff ff	 mov	 DWORD PTR ?BattleCmdNo@@3HA, -1 ; BattleCmdNo

; 1763 : 			ClearBattleButton();

  000dd	e8 00 00 00 00	 call	 ?ClearBattleButton@@YAXXZ ; ClearBattleButton

; 1764 : 			ClearBoxFlag();

  000e2	e8 00 00 00 00	 call	 ?ClearBoxFlag@@YAXXZ	; ClearBoxFlag

; 1765 : 			//MenuToggleFlag &= ~JOY_CTRL_E;
; 1766 : 			//MenuToggleFlag &= ~JOY_CTRL_A;
; 1767 : 			( wonflag == 0 ) ? wonflag = 1 : wonflag = 0  ; 

  000e7	83 3d 00 00 00
	00 00		 cmp	 DWORD PTR ?wonflag@@3HA, 0 ; wonflag
  000ee	75 17		 jne	 SHORT $LN79@BattleButt
  000f0	c7 05 00 00 00
	00 01 00 00 00	 mov	 DWORD PTR ?wonflag@@3HA, 1 ; wonflag
  000fa	a1 00 00 00 00	 mov	 eax, DWORD PTR ?wonflag@@3HA ; wonflag
  000ff	89 85 88 fa ff
	ff		 mov	 DWORD PTR tv88[ebp], eax
  00105	eb 16		 jmp	 SHORT $LN36@BattleButt
$LN79@BattleButt:
  00107	c7 05 00 00 00
	00 00 00 00 00	 mov	 DWORD PTR ?wonflag@@3HA, 0 ; wonflag
  00111	8b 0d 00 00 00
	00		 mov	 ecx, DWORD PTR ?wonflag@@3HA ; wonflag
  00117	89 8d 88 fa ff
	ff		 mov	 DWORD PTR tv88[ebp], ecx
$LN36@BattleButt:

; 1768 : 		}
; 1769 : 		strcpy( OneLineInfoStr, "직업기능");

  0011d	68 00 00 00 00	 push	 OFFSET ??_C@_08LCIHGOIJ@?A?w?$LO?w?$LB?b?$LE?I?$AA@
  00122	68 00 00 00 00	 push	 OFFSET ?OneLineInfoStr@@3PADA ; OneLineInfoStr
  00127	e8 00 00 00 00	 call	 _strcpy
  0012c	83 c4 08	 add	 esp, 8
$LN35@BattleButt:

; 1770 : 	}
; 1771 : 	if ( wonflag == 1 ) {

  0012f	83 3d 00 00 00
	00 01		 cmp	 DWORD PTR ?wonflag@@3HA, 1 ; wonflag
  00136	0f 85 16 12 00
	00		 jne	 $LN78@BattleButt

; 1772 : 		for ( int i = 0 ; i < 3 ; i ++ ) {

  0013c	c7 85 dc fc ff
	ff 00 00 00 00	 mov	 DWORD PTR _i$18[ebp], 0
  00146	eb 0f		 jmp	 SHORT $LN4@BattleButt
$LN2@BattleButt:
  00148	8b 85 dc fc ff
	ff		 mov	 eax, DWORD PTR _i$18[ebp]
  0014e	83 c0 01	 add	 eax, 1
  00151	89 85 dc fc ff
	ff		 mov	 DWORD PTR _i$18[ebp], eax
$LN4@BattleButt:
  00157	83 bd dc fc ff
	ff 03		 cmp	 DWORD PTR _i$18[ebp], 3
  0015e	7d 5f		 jge	 SHORT $LN3@BattleButt

; 1773 : #ifdef _READ16BITBMP
; 1774 : 			if(g_bUseAlpha){
; 1775 : 				if( MakeHitBox(  278 , 11 + i	 * 78, 308  , 89 + i * 78 , DISP_PRIO_IME3 ) == TRUE ) {
; 1776 : 					if( mouse.onceState & MOUSE_LEFT_CRICK ) {
; 1777 : 						SkillWnd2 = i ; 
; 1778 : 						play_se( 217, 320, 240 );
; 1779 : 						break;
; 1780 : 					}
; 1781 : 				}
; 1782 : 			}
; 1783 : 			else
; 1784 : #endif
; 1785 : 			if( MakeHitBox(  276 , 10 + i * 79, 306  , 88 + i * 79 , DISP_PRIO_IME3 ) == TRUE ) {

  00160	6a 69		 push	 105			; 00000069H
  00162	6b 85 dc fc ff
	ff 4f		 imul	 eax, DWORD PTR _i$18[ebp], 79
  00169	83 c0 58	 add	 eax, 88			; 00000058H
  0016c	50		 push	 eax
  0016d	68 32 01 00 00	 push	 306			; 00000132H
  00172	6b 8d dc fc ff
	ff 4f		 imul	 ecx, DWORD PTR _i$18[ebp], 79
  00179	83 c1 0a	 add	 ecx, 10			; 0000000aH
  0017c	51		 push	 ecx
  0017d	68 14 01 00 00	 push	 276			; 00000114H
  00182	e8 00 00 00 00	 call	 ?MakeHitBox@@YAHHHHHH@Z	; MakeHitBox
  00187	83 c4 14	 add	 esp, 20			; 00000014H
  0018a	83 f8 01	 cmp	 eax, 1
  0018d	75 2e		 jne	 SHORT $LN38@BattleButt

; 1786 : 				if( mouse.onceState & MOUSE_LEFT_CRICK ) {

  0018f	a1 2c 00 00 00	 mov	 eax, DWORD PTR ?mouse@@3UMOUSE@@A+44
  00194	83 e0 01	 and	 eax, 1
  00197	74 24		 je	 SHORT $LN38@BattleButt

; 1787 : 					SkillWnd2 = i ; 

  00199	8b 85 dc fc ff
	ff		 mov	 eax, DWORD PTR _i$18[ebp]
  0019f	a3 00 00 00 00	 mov	 DWORD PTR ?SkillWnd2@@3HA, eax ; SkillWnd2

; 1788 : 					play_se( 217, 320, 240 );

  001a4	68 f0 00 00 00	 push	 240			; 000000f0H
  001a9	68 40 01 00 00	 push	 320			; 00000140H
  001ae	68 d9 00 00 00	 push	 217			; 000000d9H
  001b3	e8 00 00 00 00	 call	 ?play_se@@YAHHHH@Z	; play_se
  001b8	83 c4 0c	 add	 esp, 12			; 0000000cH

; 1789 : 					break;

  001bb	eb 02		 jmp	 SHORT $LN3@BattleButt
$LN38@BattleButt:

; 1790 : 				}
; 1791 : 			}
; 1792 : 		}

  001bd	eb 89		 jmp	 SHORT $LN2@BattleButt
$LN3@BattleButt:

; 1793 : 		StockDispBuffer( 159, 225 , DISP_PRIO_MENU, CG_BATTTLE_SKILLCHOICE, 1 );

  001bf	6a 01		 push	 1
  001c1	a1 00 00 00 00	 mov	 eax, DWORD PTR ?CG_BATTTLE_SKILLCHOICE@@3HA ; CG_BATTTLE_SKILLCHOICE
  001c6	50		 push	 eax
  001c7	6a 68		 push	 104			; 00000068H
  001c9	68 e1 00 00 00	 push	 225			; 000000e1H
  001ce	68 9f 00 00 00	 push	 159			; 0000009fH
  001d3	e8 00 00 00 00	 call	 ?StockDispBuffer@@YAHHHEHH@Z ; StockDispBuffer
  001d8	83 c4 14	 add	 esp, 20			; 00000014H

; 1794 : 		extern int BattleSkill[20];
; 1795 : 		extern int AssitSkill[20];
; 1796 : 		extern int AdvanceSkill[20];
; 1797 : 		int x = 26 , y = 5 ; 

  001db	c7 85 d0 fc ff
	ff 1a 00 00 00	 mov	 DWORD PTR _x$17[ebp], 26 ; 0000001aH
  001e5	c7 85 c4 fc ff
	ff 05 00 00 00	 mov	 DWORD PTR _y$16[ebp], 5

; 1798 : 			for ( int i = 0 ; i < 4 ; i ++ ) {

  001ef	c7 85 b8 fc ff
	ff 00 00 00 00	 mov	 DWORD PTR _i$15[ebp], 0
  001f9	eb 0f		 jmp	 SHORT $LN7@BattleButt
$LN5@BattleButt:
  001fb	8b 85 b8 fc ff
	ff		 mov	 eax, DWORD PTR _i$15[ebp]
  00201	83 c0 01	 add	 eax, 1
  00204	89 85 b8 fc ff
	ff		 mov	 DWORD PTR _i$15[ebp], eax
$LN7@BattleButt:
  0020a	83 bd b8 fc ff
	ff 04		 cmp	 DWORD PTR _i$15[ebp], 4
  00211	7d 28		 jge	 SHORT $LN6@BattleButt

; 1799 : 				for ( int j = 0 ; j < 4 ; j ++ ) {

  00213	c7 85 ac fc ff
	ff 00 00 00 00	 mov	 DWORD PTR _j$14[ebp], 0
  0021d	eb 0f		 jmp	 SHORT $LN10@BattleButt
$LN8@BattleButt:
  0021f	8b 85 ac fc ff
	ff		 mov	 eax, DWORD PTR _j$14[ebp]
  00225	83 c0 01	 add	 eax, 1
  00228	89 85 ac fc ff
	ff		 mov	 DWORD PTR _j$14[ebp], eax
$LN10@BattleButt:
  0022e	83 bd ac fc ff
	ff 04		 cmp	 DWORD PTR _j$14[ebp], 4
  00235	7d 02		 jge	 SHORT $LN9@BattleButt

; 1800 : //					StockDispBuffer( x + 138 + j * 60 , y + 228 + i * 72 , DISP_PRIO_IME3, CG_FIELD_SKILL_TILE , 2 );
; 1801 : 				}

  00237	eb e6		 jmp	 SHORT $LN8@BattleButt
$LN9@BattleButt:

; 1802 : 			}

  00239	eb c0		 jmp	 SHORT $LN5@BattleButt
$LN6@BattleButt:

; 1803 : 
; 1804 : 		switch ( SkillWnd2 ) {

  0023b	a1 00 00 00 00	 mov	 eax, DWORD PTR ?SkillWnd2@@3HA ; SkillWnd2
  00240	89 85 88 fa ff
	ff		 mov	 DWORD PTR tv151[ebp], eax
  00246	83 bd 88 fa ff
	ff 00		 cmp	 DWORD PTR tv151[ebp], 0
  0024d	74 1f		 je	 SHORT $LN40@BattleButt
  0024f	83 bd 88 fa ff
	ff 01		 cmp	 DWORD PTR tv151[ebp], 1
  00256	0f 84 73 05 00
	00		 je	 $LN52@BattleButt
  0025c	83 bd 88 fa ff
	ff 02		 cmp	 DWORD PTR tv151[ebp], 2
  00263	0f 84 a5 0a 00
	00		 je	 $LN64@BattleButt
  00269	e9 2d 0f 00 00	 jmp	 $LN11@BattleButt
$LN40@BattleButt:

; 1805 : 		case 0 :
; 1806 : #ifdef _READ16BITBMP
; 1807 : 			if(g_bUseAlpha) StockDispBuffer( 168, 223, DISP_PRIO_IME3, CG_FIELD_SKILL_ASSIT , 0 );
; 1808 : 			else
; 1809 : #endif
; 1810 : 			StockDispBuffer( 165, 221, DISP_PRIO_IME3, CG_FIELD_SKILL_ASSIT , 0 );

  0026e	6a 00		 push	 0
  00270	68 f4 66 00 00	 push	 26356			; 000066f4H
  00275	6a 69		 push	 105			; 00000069H
  00277	68 dd 00 00 00	 push	 221			; 000000ddH
  0027c	68 a5 00 00 00	 push	 165			; 000000a5H
  00281	e8 00 00 00 00	 call	 ?StockDispBuffer@@YAHHHEHH@Z ; StockDispBuffer
  00286	83 c4 14	 add	 esp, 20			; 00000014H

; 1811 : 			for ( int i = 0 ; i < 4 ; i ++ ) {

  00289	c7 85 a0 fc ff
	ff 00 00 00 00	 mov	 DWORD PTR _i$13[ebp], 0
  00293	eb 0f		 jmp	 SHORT $LN15@BattleButt
$LN13@BattleButt:
  00295	8b 85 a0 fc ff
	ff		 mov	 eax, DWORD PTR _i$13[ebp]
  0029b	83 c0 01	 add	 eax, 1
  0029e	89 85 a0 fc ff
	ff		 mov	 DWORD PTR _i$13[ebp], eax
$LN15@BattleButt:
  002a4	83 bd a0 fc ff
	ff 04		 cmp	 DWORD PTR _i$13[ebp], 4
  002ab	0f 8d 19 05 00
	00		 jge	 $LN14@BattleButt

; 1812 : 				for ( int j = 0 ; j < 4 ; j ++ ) {

  002b1	c7 85 94 fc ff
	ff 00 00 00 00	 mov	 DWORD PTR _j$12[ebp], 0
  002bb	eb 0f		 jmp	 SHORT $LN18@BattleButt
$LN16@BattleButt:
  002bd	8b 85 94 fc ff
	ff		 mov	 eax, DWORD PTR _j$12[ebp]
  002c3	83 c0 01	 add	 eax, 1
  002c6	89 85 94 fc ff
	ff		 mov	 DWORD PTR _j$12[ebp], eax
$LN18@BattleButt:
  002cc	83 bd 94 fc ff
	ff 04		 cmp	 DWORD PTR _j$12[ebp], 4
  002d3	0f 8d ec 04 00
	00		 jge	 $LN17@BattleButt

; 1813 : 					if ( AssitSkill [ j + i * 4 ] == -1 ) 

  002d9	8b 85 a0 fc ff
	ff		 mov	 eax, DWORD PTR _i$13[ebp]
  002df	8b 8d 94 fc ff
	ff		 mov	 ecx, DWORD PTR _j$12[ebp]
  002e5	8d 14 81	 lea	 edx, DWORD PTR [ecx+eax*4]
  002e8	83 3c 95 00 00
	00 00 ff	 cmp	 DWORD PTR ?AssitSkill@@3PAHA[edx*4], -1
  002f0	75 05		 jne	 SHORT $LN41@BattleButt

; 1814 : 						break;

  002f2	e9 ce 04 00 00	 jmp	 $LN17@BattleButt
$LN41@BattleButt:

; 1815 : 					if ( profession_skill[ AssitSkill [ j + i * 4 ] ].useFlag == 0 )

  002f7	8b 85 a0 fc ff
	ff		 mov	 eax, DWORD PTR _i$13[ebp]
  002fd	8b 8d 94 fc ff
	ff		 mov	 ecx, DWORD PTR _j$12[ebp]
  00303	8d 14 81	 lea	 edx, DWORD PTR [ecx+eax*4]
  00306	69 04 95 00 00
	00 00 c0 00 00
	00		 imul	 eax, DWORD PTR ?AssitSkill@@3PAHA[edx*4], 192
  00311	0f bf 88 00 00
	00 00		 movsx	 ecx, WORD PTR ?profession_skill@@3PAUPROFESSION_SKILL@@A[eax]
  00318	85 c9		 test	 ecx, ecx
  0031a	75 35		 jne	 SHORT $LN42@BattleButt

; 1816 : 						StockDispBuffer ( x + 24 + j * 60 , y + 98 + i * 57 , DISP_PRIO_IME3 + 1 , CG_BTL_BUTTON_CROSS , 0 ) ;

  0031c	6a 00		 push	 0
  0031e	68 1d 62 00 00	 push	 25117			; 0000621dH
  00323	6a 6a		 push	 106			; 0000006aH
  00325	6b 85 a0 fc ff
	ff 39		 imul	 eax, DWORD PTR _i$13[ebp], 57
  0032c	8b 8d c4 fc ff
	ff		 mov	 ecx, DWORD PTR _y$16[ebp]
  00332	8d 54 01 62	 lea	 edx, DWORD PTR [ecx+eax+98]
  00336	52		 push	 edx
  00337	6b 85 94 fc ff
	ff 3c		 imul	 eax, DWORD PTR _j$12[ebp], 60
  0033e	8b 8d d0 fc ff
	ff		 mov	 ecx, DWORD PTR _x$17[ebp]
  00344	8d 54 01 18	 lea	 edx, DWORD PTR [ecx+eax+24]
  00348	52		 push	 edx
  00349	e8 00 00 00 00	 call	 ?StockDispBuffer@@YAHHHEHH@Z ; StockDispBuffer
  0034e	83 c4 14	 add	 esp, 20			; 00000014H
$LN42@BattleButt:

; 1817 : 					//StockDispBuffer( x + 138 + j * 48 , y + 228 + i * 52 , DISP_PRIO_IME3, CG_FIELD_SKILL_TILE , 0 );
; 1818 : 					AssitSkillBtn [ j + i * 4 ] = StockDispBuffer( x + 24 + j * 60 , y + 98 + i * 57 , DISP_PRIO_IME3 + 1 , profession_skill[ AssitSkill [ j + i * 4 ] ].icon  , 2 );

  00351	6a 02		 push	 2
  00353	8b 85 a0 fc ff
	ff		 mov	 eax, DWORD PTR _i$13[ebp]
  00359	8b 8d 94 fc ff
	ff		 mov	 ecx, DWORD PTR _j$12[ebp]
  0035f	8d 14 81	 lea	 edx, DWORD PTR [ecx+eax*4]
  00362	69 04 95 00 00
	00 00 c0 00 00
	00		 imul	 eax, DWORD PTR ?AssitSkill@@3PAHA[edx*4], 192
  0036d	8b 88 b4 00 00
	00		 mov	 ecx, DWORD PTR ?profession_skill@@3PAUPROFESSION_SKILL@@A[eax+180]
  00373	51		 push	 ecx
  00374	6a 6a		 push	 106			; 0000006aH
  00376	6b 95 a0 fc ff
	ff 39		 imul	 edx, DWORD PTR _i$13[ebp], 57
  0037d	8b 85 c4 fc ff
	ff		 mov	 eax, DWORD PTR _y$16[ebp]
  00383	8d 4c 10 62	 lea	 ecx, DWORD PTR [eax+edx+98]
  00387	51		 push	 ecx
  00388	6b 95 94 fc ff
	ff 3c		 imul	 edx, DWORD PTR _j$12[ebp], 60
  0038f	8b 85 d0 fc ff
	ff		 mov	 eax, DWORD PTR _x$17[ebp]
  00395	8d 4c 10 18	 lea	 ecx, DWORD PTR [eax+edx+24]
  00399	51		 push	 ecx
  0039a	e8 00 00 00 00	 call	 ?StockDispBuffer@@YAHHHEHH@Z ; StockDispBuffer
  0039f	83 c4 14	 add	 esp, 20			; 00000014H
  003a2	8b 95 a0 fc ff
	ff		 mov	 edx, DWORD PTR _i$13[ebp]
  003a8	8b 8d 94 fc ff
	ff		 mov	 ecx, DWORD PTR _j$12[ebp]
  003ae	8d 14 91	 lea	 edx, DWORD PTR [ecx+edx*4]
  003b1	89 04 95 00 00
	00 00		 mov	 DWORD PTR ?AssitSkillBtn@@3PAHA[edx*4], eax

; 1819 : 					sprintf ( msg2 , "%8s" , profession_skill[AssitSkill [ j + i * 4 ]].name );

  003b8	8b 85 a0 fc ff
	ff		 mov	 eax, DWORD PTR _i$13[ebp]
  003be	8b 8d 94 fc ff
	ff		 mov	 ecx, DWORD PTR _j$12[ebp]
  003c4	8d 14 81	 lea	 edx, DWORD PTR [ecx+eax*4]
  003c7	69 04 95 00 00
	00 00 c0 00 00
	00		 imul	 eax, DWORD PTR ?AssitSkill@@3PAHA[edx*4], 192
  003d2	05 08 00 00 00	 add	 eax, OFFSET ?profession_skill@@3PAUPROFESSION_SKILL@@A+8
  003d7	50		 push	 eax
  003d8	68 00 00 00 00	 push	 OFFSET ??_C@_03GHDNOBPC@?$CF8s?$AA@
  003dd	8d 8d e8 fc ff
	ff		 lea	 ecx, DWORD PTR _msg2$[ebp]
  003e3	51		 push	 ecx
  003e4	e8 00 00 00 00	 call	 _sprintf
  003e9	83 c4 0c	 add	 esp, 12			; 0000000cH

; 1820 : 					StockFontBuffer( x + j * 60 , y + 110 + i * 57 , FONT_PRIO_FRONT, FONT_PAL_WHITE, msg2, 0 );

  003ec	6a 00		 push	 0
  003ee	8d 85 e8 fc ff
	ff		 lea	 eax, DWORD PTR _msg2$[ebp]
  003f4	50		 push	 eax
  003f5	6a 00		 push	 0
  003f7	6a 01		 push	 1
  003f9	6b 8d a0 fc ff
	ff 39		 imul	 ecx, DWORD PTR _i$13[ebp], 57
  00400	8b 95 c4 fc ff
	ff		 mov	 edx, DWORD PTR _y$16[ebp]
  00406	8d 44 0a 6e	 lea	 eax, DWORD PTR [edx+ecx+110]
  0040a	50		 push	 eax
  0040b	6b 8d 94 fc ff
	ff 3c		 imul	 ecx, DWORD PTR _j$12[ebp], 60
  00412	03 8d d0 fc ff
	ff		 add	 ecx, DWORD PTR _x$17[ebp]
  00418	51		 push	 ecx
  00419	e8 00 00 00 00	 call	 ?StockFontBuffer@@YAHHHDHPADH@Z ; StockFontBuffer
  0041e	83 c4 18	 add	 esp, 24			; 00000018H

; 1821 : 					if ( HitDispNo == AssitSkillBtn [ j + i * 4 ] ){

  00421	8b 85 a0 fc ff
	ff		 mov	 eax, DWORD PTR _i$13[ebp]
  00427	8b 8d 94 fc ff
	ff		 mov	 ecx, DWORD PTR _j$12[ebp]
  0042d	8d 14 81	 lea	 edx, DWORD PTR [ecx+eax*4]
  00430	a1 00 00 00 00	 mov	 eax, DWORD PTR ?HitDispNo@@3HA ; HitDispNo
  00435	3b 04 95 00 00
	00 00		 cmp	 eax, DWORD PTR ?AssitSkillBtn@@3PAHA[edx*4]
  0043c	0f 85 df 01 00
	00		 jne	 $LN43@BattleButt

; 1822 : 						int use_color=0;

  00442	c7 85 88 fc ff
	ff 00 00 00 00	 mov	 DWORD PTR _use_color$11[ebp], 0

; 1823 : 						if( p_party[ BattleMyNo ]->mp >= profession_skill[AssitSkill [ j + i * 4 ]].costmp && profession_skill[AssitSkill [ j + i * 4 ]].costmp != 0 ){

  0044c	a1 00 00 00 00	 mov	 eax, DWORD PTR ?BattleMyNo@@3HA ; BattleMyNo
  00451	8b 0c 85 00 00
	00 00		 mov	 ecx, DWORD PTR ?p_party@@3PAPAUaction@@A[eax*4]
  00458	8b 95 a0 fc ff
	ff		 mov	 edx, DWORD PTR _i$13[ebp]
  0045e	8b 85 94 fc ff
	ff		 mov	 eax, DWORD PTR _j$12[ebp]
  00464	8d 14 90	 lea	 edx, DWORD PTR [eax+edx*4]
  00467	69 04 95 00 00
	00 00 c0 00 00
	00		 imul	 eax, DWORD PTR ?AssitSkill@@3PAHA[edx*4], 192
  00472	8b 89 84 00 00
	00		 mov	 ecx, DWORD PTR [ecx+132]
  00478	3b 88 b8 00 00
	00		 cmp	 ecx, DWORD PTR ?profession_skill@@3PAUPROFESSION_SKILL@@A[eax+184]
  0047e	7c 2f		 jl	 SHORT $LN44@BattleButt
  00480	8b 85 a0 fc ff
	ff		 mov	 eax, DWORD PTR _i$13[ebp]
  00486	8b 8d 94 fc ff
	ff		 mov	 ecx, DWORD PTR _j$12[ebp]
  0048c	8d 14 81	 lea	 edx, DWORD PTR [ecx+eax*4]
  0048f	69 04 95 00 00
	00 00 c0 00 00
	00		 imul	 eax, DWORD PTR ?AssitSkill@@3PAHA[edx*4], 192
  0049a	83 b8 b8 00 00
	00 00		 cmp	 DWORD PTR ?profession_skill@@3PAUPROFESSION_SKILL@@A[eax+184], 0
  004a1	74 0c		 je	 SHORT $LN44@BattleButt

; 1824 : 							use_color = FONT_PAL_WHITE;

  004a3	c7 85 88 fc ff
	ff 00 00 00 00	 mov	 DWORD PTR _use_color$11[ebp], 0

; 1825 : 						}else{

  004ad	eb 0a		 jmp	 SHORT $LN45@BattleButt
$LN44@BattleButt:

; 1826 : 							use_color = FONT_PAL_GRAY;									

  004af	c7 85 88 fc ff
	ff 07 00 00 00	 mov	 DWORD PTR _use_color$11[ebp], 7
$LN45@BattleButt:

; 1827 : 						}
; 1828 : 						if ( profession_skill[ AssitSkill [ j + i * 4 ] ].skillId == 11	)

  004b9	8b 85 a0 fc ff
	ff		 mov	 eax, DWORD PTR _i$13[ebp]
  004bf	8b 8d 94 fc ff
	ff		 mov	 ecx, DWORD PTR _j$12[ebp]
  004c5	8d 14 81	 lea	 edx, DWORD PTR [ecx+eax*4]
  004c8	69 04 95 00 00
	00 00 c0 00 00
	00		 imul	 eax, DWORD PTR ?AssitSkill@@3PAHA[edx*4], 192
  004d3	0f bf 88 02 00
	00 00		 movsx	 ecx, WORD PTR ?profession_skill@@3PAUPROFESSION_SKILL@@A[eax+2]
  004da	83 f9 0b	 cmp	 ecx, 11			; 0000000bH
  004dd	75 0a		 jne	 SHORT $LN46@BattleButt

; 1829 : 							use_color = FONT_PAL_WHITE; //嗜血成性不做mp限制

  004df	c7 85 88 fc ff
	ff 00 00 00 00	 mov	 DWORD PTR _use_color$11[ebp], 0
$LN46@BattleButt:

; 1830 : 						sprintf ( msg2 , "%s" , profession_skill[AssitSkill [ j + i * 4 ]].name );

  004e9	8b 85 a0 fc ff
	ff		 mov	 eax, DWORD PTR _i$13[ebp]
  004ef	8b 8d 94 fc ff
	ff		 mov	 ecx, DWORD PTR _j$12[ebp]
  004f5	8d 14 81	 lea	 edx, DWORD PTR [ecx+eax*4]
  004f8	69 04 95 00 00
	00 00 c0 00 00
	00		 imul	 eax, DWORD PTR ?AssitSkill@@3PAHA[edx*4], 192
  00503	05 08 00 00 00	 add	 eax, OFFSET ?profession_skill@@3PAUPROFESSION_SKILL@@A+8
  00508	50		 push	 eax
  00509	68 00 00 00 00	 push	 OFFSET ??_C@_02DKCKIIND@?$CFs?$AA@
  0050e	8d 8d e8 fc ff
	ff		 lea	 ecx, DWORD PTR _msg2$[ebp]
  00514	51		 push	 ecx
  00515	e8 00 00 00 00	 call	 _sprintf
  0051a	83 c4 0c	 add	 esp, 12			; 0000000cH

; 1831 : 						StockFontBuffer( 20, 312, FONT_PRIO_FRONT, use_color, msg2, 0 );

  0051d	6a 00		 push	 0
  0051f	8d 85 e8 fc ff
	ff		 lea	 eax, DWORD PTR _msg2$[ebp]
  00525	50		 push	 eax
  00526	8b 8d 88 fc ff
	ff		 mov	 ecx, DWORD PTR _use_color$11[ebp]
  0052c	51		 push	 ecx
  0052d	6a 01		 push	 1
  0052f	68 38 01 00 00	 push	 312			; 00000138H
  00534	6a 14		 push	 20			; 00000014H
  00536	e8 00 00 00 00	 call	 ?StockFontBuffer@@YAHHHDHPADH@Z ; StockFontBuffer
  0053b	83 c4 18	 add	 esp, 24			; 00000018H

; 1832 : 
; 1833 : 						sprintf( msg , "  %d％", profession_skill[AssitSkill [ j + i * 4 ]].skill_level ) ; 

  0053e	8b 85 a0 fc ff
	ff		 mov	 eax, DWORD PTR _i$13[ebp]
  00544	8b 8d 94 fc ff
	ff		 mov	 ecx, DWORD PTR _j$12[ebp]
  0054a	8d 14 81	 lea	 edx, DWORD PTR [ecx+eax*4]
  0054d	69 04 95 00 00
	00 00 c0 00 00
	00		 imul	 eax, DWORD PTR ?AssitSkill@@3PAHA[edx*4], 192
  00558	8b 88 bc 00 00
	00		 mov	 ecx, DWORD PTR ?profession_skill@@3PAUPROFESSION_SKILL@@A[eax+188]
  0055e	51		 push	 ecx
  0055f	68 00 00 00 00	 push	 OFFSET ??_C@_06BPKJHHJO@?5?5?$CFd?$KD?$KF?$AA@
  00564	8d 95 f8 fe ff
	ff		 lea	 edx, DWORD PTR _msg$[ebp]
  0056a	52		 push	 edx
  0056b	e8 00 00 00 00	 call	 _sprintf
  00570	83 c4 0c	 add	 esp, 12			; 0000000cH

; 1834 : 						StockFontBuffer( 85, 310, FONT_PRIO_FRONT, use_color, msg, 0 );

  00573	6a 00		 push	 0
  00575	8d 85 f8 fe ff
	ff		 lea	 eax, DWORD PTR _msg$[ebp]
  0057b	50		 push	 eax
  0057c	8b 8d 88 fc ff
	ff		 mov	 ecx, DWORD PTR _use_color$11[ebp]
  00582	51		 push	 ecx
  00583	6a 01		 push	 1
  00585	68 36 01 00 00	 push	 310			; 00000136H
  0058a	6a 55		 push	 85			; 00000055H
  0058c	e8 00 00 00 00	 call	 ?StockFontBuffer@@YAHHHDHPADH@Z ; StockFontBuffer
  00591	83 c4 18	 add	 esp, 24			; 00000018H

; 1835 : 				
; 1836 : 						sprintf ( msg2 , "(소비하다MP:%d)" , profession_skill[AssitSkill [ j + i * 4 ]].costmp );

  00594	8b 85 a0 fc ff
	ff		 mov	 eax, DWORD PTR _i$13[ebp]
  0059a	8b 8d 94 fc ff
	ff		 mov	 ecx, DWORD PTR _j$12[ebp]
  005a0	8d 14 81	 lea	 edx, DWORD PTR [ecx+eax*4]
  005a3	69 04 95 00 00
	00 00 c0 00 00
	00		 imul	 eax, DWORD PTR ?AssitSkill@@3PAHA[edx*4], 192
  005ae	8b 88 b8 00 00
	00		 mov	 ecx, DWORD PTR ?profession_skill@@3PAUPROFESSION_SKILL@@A[eax+184]
  005b4	51		 push	 ecx
  005b5	68 00 00 00 00	 push	 OFFSET ??_C@_0BA@OEIEMLKK@?$CI?$LM?R?$LK?q?G?O?$LE?YMP?3?$CFd?$CJ?$AA@
  005ba	8d 95 e8 fc ff
	ff		 lea	 edx, DWORD PTR _msg2$[ebp]
  005c0	52		 push	 edx
  005c1	e8 00 00 00 00	 call	 _sprintf
  005c6	83 c4 0c	 add	 esp, 12			; 0000000cH

; 1837 : 						StockFontBuffer( 170, 312, FONT_PRIO_FRONT, use_color, msg2, 0 );				

  005c9	6a 00		 push	 0
  005cb	8d 85 e8 fc ff
	ff		 lea	 eax, DWORD PTR _msg2$[ebp]
  005d1	50		 push	 eax
  005d2	8b 8d 88 fc ff
	ff		 mov	 ecx, DWORD PTR _use_color$11[ebp]
  005d8	51		 push	 ecx
  005d9	6a 01		 push	 1
  005db	68 38 01 00 00	 push	 312			; 00000138H
  005e0	68 aa 00 00 00	 push	 170			; 000000aaH
  005e5	e8 00 00 00 00	 call	 ?StockFontBuffer@@YAHHHDHPADH@Z ; StockFontBuffer
  005ea	83 c4 18	 add	 esp, 24			; 00000018H

; 1838 : 
; 1839 : 						sprintf( msg , "%s" ,	 profession_skill[AssitSkill [ j + i * 4 ]].memo ) ; 

  005ed	8b 85 a0 fc ff
	ff		 mov	 eax, DWORD PTR _i$13[ebp]
  005f3	8b 8d 94 fc ff
	ff		 mov	 ecx, DWORD PTR _j$12[ebp]
  005f9	8d 14 81	 lea	 edx, DWORD PTR [ecx+eax*4]
  005fc	69 04 95 00 00
	00 00 c0 00 00
	00		 imul	 eax, DWORD PTR ?AssitSkill@@3PAHA[edx*4], 192
  00607	05 5d 00 00 00	 add	 eax, OFFSET ?profession_skill@@3PAUPROFESSION_SKILL@@A+93
  0060c	50		 push	 eax
  0060d	68 00 00 00 00	 push	 OFFSET ??_C@_02DKCKIIND@?$CFs?$AA@
  00612	8d 8d f8 fe ff
	ff		 lea	 ecx, DWORD PTR _msg$[ebp]
  00618	51		 push	 ecx
  00619	e8 00 00 00 00	 call	 _sprintf
  0061e	83 c4 0c	 add	 esp, 12			; 0000000cH
$LN43@BattleButt:

; 1840 : 					}
; 1841 : 					if( mouse.onceState & MOUSE_LEFT_CRICK_UP ) {

  00621	a1 2c 00 00 00	 mov	 eax, DWORD PTR ?mouse@@3UMOUSE@@A+44
  00626	83 e0 04	 and	 eax, 4
  00629	0f 84 91 01 00
	00		 je	 $LN47@BattleButt

; 1842 : 						if ( HitDispNo == AssitSkillBtn [ j + i * 4 ]  && profession_skill[ AssitSkill [ j + i * 4 ] ].useFlag != 0) {

  0062f	8b 85 a0 fc ff
	ff		 mov	 eax, DWORD PTR _i$13[ebp]
  00635	8b 8d 94 fc ff
	ff		 mov	 ecx, DWORD PTR _j$12[ebp]
  0063b	8d 14 81	 lea	 edx, DWORD PTR [ecx+eax*4]
  0063e	a1 00 00 00 00	 mov	 eax, DWORD PTR ?HitDispNo@@3HA ; HitDispNo
  00643	3b 04 95 00 00
	00 00		 cmp	 eax, DWORD PTR ?AssitSkillBtn@@3PAHA[edx*4]
  0064a	0f 85 70 01 00
	00		 jne	 $LN47@BattleButt
  00650	8b 85 a0 fc ff
	ff		 mov	 eax, DWORD PTR _i$13[ebp]
  00656	8b 8d 94 fc ff
	ff		 mov	 ecx, DWORD PTR _j$12[ebp]
  0065c	8d 14 81	 lea	 edx, DWORD PTR [ecx+eax*4]
  0065f	69 04 95 00 00
	00 00 c0 00 00
	00		 imul	 eax, DWORD PTR ?AssitSkill@@3PAHA[edx*4], 192
  0066a	0f bf 88 00 00
	00 00		 movsx	 ecx, WORD PTR ?profession_skill@@3PAUPROFESSION_SKILL@@A[eax]
  00671	85 c9		 test	 ecx, ecx
  00673	0f 84 47 01 00
	00		 je	 $LN47@BattleButt

; 1843 : 							if( p_party[ BattleMyNo ]->mp >= profession_skill[AssitSkill [ j + i * 4 ]].costmp && profession_skill[AssitSkill [ j + i * 4 ]].costmp != 0 ) {

  00679	a1 00 00 00 00	 mov	 eax, DWORD PTR ?BattleMyNo@@3HA ; BattleMyNo
  0067e	8b 0c 85 00 00
	00 00		 mov	 ecx, DWORD PTR ?p_party@@3PAPAUaction@@A[eax*4]
  00685	8b 95 a0 fc ff
	ff		 mov	 edx, DWORD PTR _i$13[ebp]
  0068b	8b 85 94 fc ff
	ff		 mov	 eax, DWORD PTR _j$12[ebp]
  00691	8d 14 90	 lea	 edx, DWORD PTR [eax+edx*4]
  00694	69 04 95 00 00
	00 00 c0 00 00
	00		 imul	 eax, DWORD PTR ?AssitSkill@@3PAHA[edx*4], 192
  0069f	8b 89 84 00 00
	00		 mov	 ecx, DWORD PTR [ecx+132]
  006a5	3b 88 b8 00 00
	00		 cmp	 ecx, DWORD PTR ?profession_skill@@3PAUPROFESSION_SKILL@@A[eax+184]
  006ab	7c 79		 jl	 SHORT $LN49@BattleButt
  006ad	8b 85 a0 fc ff
	ff		 mov	 eax, DWORD PTR _i$13[ebp]
  006b3	8b 8d 94 fc ff
	ff		 mov	 ecx, DWORD PTR _j$12[ebp]
  006b9	8d 14 81	 lea	 edx, DWORD PTR [ecx+eax*4]
  006bc	69 04 95 00 00
	00 00 c0 00 00
	00		 imul	 eax, DWORD PTR ?AssitSkill@@3PAHA[edx*4], 192
  006c7	83 b8 b8 00 00
	00 00		 cmp	 DWORD PTR ?profession_skill@@3PAUPROFESSION_SKILL@@A[eax+184], 0
  006ce	74 56		 je	 SHORT $LN49@BattleButt

; 1844 : 								wonflag = 0 ; 

  006d0	c7 05 00 00 00
	00 00 00 00 00	 mov	 DWORD PTR ?wonflag@@3HA, 0 ; wonflag

; 1845 : 								prouseskill = AssitSkill [ j + i * 4 ] ; 

  006da	8b 85 a0 fc ff
	ff		 mov	 eax, DWORD PTR _i$13[ebp]
  006e0	8b 8d 94 fc ff
	ff		 mov	 ecx, DWORD PTR _j$12[ebp]
  006e6	8d 14 81	 lea	 edx, DWORD PTR [ecx+eax*4]
  006e9	8b 04 95 00 00
	00 00		 mov	 eax, DWORD PTR ?AssitSkill@@3PAHA[edx*4]
  006f0	a3 00 00 00 00	 mov	 DWORD PTR ?prouseskill@@3HA, eax ; prouseskill

; 1846 : 								BattleSetWazaHitBox( profession_skill[AssitSkill [ j + i * 4 ] ].target , 1) ; 

  006f5	6a 01		 push	 1
  006f7	8b 85 a0 fc ff
	ff		 mov	 eax, DWORD PTR _i$13[ebp]
  006fd	8b 8d 94 fc ff
	ff		 mov	 ecx, DWORD PTR _j$12[ebp]
  00703	8d 14 81	 lea	 edx, DWORD PTR [ecx+eax*4]
  00706	69 04 95 00 00
	00 00 c0 00 00
	00		 imul	 eax, DWORD PTR ?AssitSkill@@3PAHA[edx*4], 192
  00711	0f bf 88 04 00
	00 00		 movsx	 ecx, WORD PTR ?profession_skill@@3PAUPROFESSION_SKILL@@A[eax+4]
  00718	51		 push	 ecx
  00719	e8 00 00 00 00	 call	 ?BattleSetWazaHitBox@@YAXHH@Z ; BattleSetWazaHitBox
  0071e	83 c4 08	 add	 esp, 8
  00721	e9 9a 00 00 00	 jmp	 $LN47@BattleButt
$LN49@BattleButt:

; 1847 : 							}
; 1848 : 							else if ( profession_skill[ AssitSkill [ j + i * 4 ] ].skillId == 11 && profession_skill[AssitSkill [ j + i * 4 ]].costmp == 0 ) { //嗜血成性不做mp限制

  00726	8b 85 a0 fc ff
	ff		 mov	 eax, DWORD PTR _i$13[ebp]
  0072c	8b 8d 94 fc ff
	ff		 mov	 ecx, DWORD PTR _j$12[ebp]
  00732	8d 14 81	 lea	 edx, DWORD PTR [ecx+eax*4]
  00735	69 04 95 00 00
	00 00 c0 00 00
	00		 imul	 eax, DWORD PTR ?AssitSkill@@3PAHA[edx*4], 192
  00740	0f bf 88 02 00
	00 00		 movsx	 ecx, WORD PTR ?profession_skill@@3PAUPROFESSION_SKILL@@A[eax+2]
  00747	83 f9 0b	 cmp	 ecx, 11			; 0000000bH
  0074a	75 74		 jne	 SHORT $LN47@BattleButt
  0074c	8b 85 a0 fc ff
	ff		 mov	 eax, DWORD PTR _i$13[ebp]
  00752	8b 8d 94 fc ff
	ff		 mov	 ecx, DWORD PTR _j$12[ebp]
  00758	8d 14 81	 lea	 edx, DWORD PTR [ecx+eax*4]
  0075b	69 04 95 00 00
	00 00 c0 00 00
	00		 imul	 eax, DWORD PTR ?AssitSkill@@3PAHA[edx*4], 192
  00766	83 b8 b8 00 00
	00 00		 cmp	 DWORD PTR ?profession_skill@@3PAUPROFESSION_SKILL@@A[eax+184], 0
  0076d	75 51		 jne	 SHORT $LN47@BattleButt

; 1849 : 								wonflag = 0 ; 

  0076f	c7 05 00 00 00
	00 00 00 00 00	 mov	 DWORD PTR ?wonflag@@3HA, 0 ; wonflag

; 1850 : 								prouseskill = AssitSkill [ j + i * 4 ] ; 

  00779	8b 85 a0 fc ff
	ff		 mov	 eax, DWORD PTR _i$13[ebp]
  0077f	8b 8d 94 fc ff
	ff		 mov	 ecx, DWORD PTR _j$12[ebp]
  00785	8d 14 81	 lea	 edx, DWORD PTR [ecx+eax*4]
  00788	8b 04 95 00 00
	00 00		 mov	 eax, DWORD PTR ?AssitSkill@@3PAHA[edx*4]
  0078f	a3 00 00 00 00	 mov	 DWORD PTR ?prouseskill@@3HA, eax ; prouseskill

; 1851 : 								BattleSetWazaHitBox( profession_skill[AssitSkill [ j + i * 4 ] ].target , 1) ; 

  00794	6a 01		 push	 1
  00796	8b 85 a0 fc ff
	ff		 mov	 eax, DWORD PTR _i$13[ebp]
  0079c	8b 8d 94 fc ff
	ff		 mov	 ecx, DWORD PTR _j$12[ebp]
  007a2	8d 14 81	 lea	 edx, DWORD PTR [ecx+eax*4]
  007a5	69 04 95 00 00
	00 00 c0 00 00
	00		 imul	 eax, DWORD PTR ?AssitSkill@@3PAHA[edx*4], 192
  007b0	0f bf 88 04 00
	00 00		 movsx	 ecx, WORD PTR ?profession_skill@@3PAUPROFESSION_SKILL@@A[eax+4]
  007b7	51		 push	 ecx
  007b8	e8 00 00 00 00	 call	 ?BattleSetWazaHitBox@@YAXHH@Z ; BattleSetWazaHitBox
  007bd	83 c4 08	 add	 esp, 8
$LN47@BattleButt:

; 1852 : 							}
; 1853 : 						}
; 1854 : 					}
; 1855 : 				}

  007c0	e9 f8 fa ff ff	 jmp	 $LN16@BattleButt
$LN17@BattleButt:

; 1856 : 			}

  007c5	e9 cb fa ff ff	 jmp	 $LN13@BattleButt
$LN14@BattleButt:

; 1857 : 			break;

  007ca	e9 cc 09 00 00	 jmp	 $LN11@BattleButt
$LN52@BattleButt:

; 1858 : 		case 1 :
; 1859 : #ifdef _READ16BITBMP
; 1860 : 			if(g_bUseAlpha) StockDispBuffer( 168, 223, DISP_PRIO_IME3, CG_FIELD_SKILL_BATTLE , 0 );
; 1861 : 			else
; 1862 : #endif
; 1863 : 			StockDispBuffer( 165, 221, DISP_PRIO_IME3, CG_FIELD_SKILL_BATTLE , 0 );

  007cf	6a 00		 push	 0
  007d1	68 f5 66 00 00	 push	 26357			; 000066f5H
  007d6	6a 69		 push	 105			; 00000069H
  007d8	68 dd 00 00 00	 push	 221			; 000000ddH
  007dd	68 a5 00 00 00	 push	 165			; 000000a5H
  007e2	e8 00 00 00 00	 call	 ?StockDispBuffer@@YAHHHEHH@Z ; StockDispBuffer
  007e7	83 c4 14	 add	 esp, 20			; 00000014H

; 1864 : 			for ( int i = 0 ; i < 4 ; i ++ ) {

  007ea	c7 85 7c fc ff
	ff 00 00 00 00	 mov	 DWORD PTR _i$10[ebp], 0
  007f4	eb 0f		 jmp	 SHORT $LN21@BattleButt
$LN19@BattleButt:
  007f6	8b 85 7c fc ff
	ff		 mov	 eax, DWORD PTR _i$10[ebp]
  007fc	83 c0 01	 add	 eax, 1
  007ff	89 85 7c fc ff
	ff		 mov	 DWORD PTR _i$10[ebp], eax
$LN21@BattleButt:
  00805	83 bd 7c fc ff
	ff 04		 cmp	 DWORD PTR _i$10[ebp], 4
  0080c	0f 8d f7 04 00
	00		 jge	 $LN20@BattleButt

; 1865 : 				for ( int j = 0 ; j < 4 ; j ++ ) {

  00812	c7 85 70 fc ff
	ff 00 00 00 00	 mov	 DWORD PTR _j$9[ebp], 0
  0081c	eb 0f		 jmp	 SHORT $LN24@BattleButt
$LN22@BattleButt:
  0081e	8b 85 70 fc ff
	ff		 mov	 eax, DWORD PTR _j$9[ebp]
  00824	83 c0 01	 add	 eax, 1
  00827	89 85 70 fc ff
	ff		 mov	 DWORD PTR _j$9[ebp], eax
$LN24@BattleButt:
  0082d	83 bd 70 fc ff
	ff 04		 cmp	 DWORD PTR _j$9[ebp], 4
  00834	0f 8d ca 04 00
	00		 jge	 $LN23@BattleButt

; 1866 : 					if ( BattleSkill [ j + i * 4 ] == -1 ) 

  0083a	8b 85 7c fc ff
	ff		 mov	 eax, DWORD PTR _i$10[ebp]
  00840	8b 8d 70 fc ff
	ff		 mov	 ecx, DWORD PTR _j$9[ebp]
  00846	8d 14 81	 lea	 edx, DWORD PTR [ecx+eax*4]
  00849	83 3c 95 00 00
	00 00 ff	 cmp	 DWORD PTR ?BattleSkill@@3PAHA[edx*4], -1
  00851	75 05		 jne	 SHORT $LN53@BattleButt

; 1867 : 						break;

  00853	e9 ac 04 00 00	 jmp	 $LN23@BattleButt
$LN53@BattleButt:

; 1868 : 					if ( profession_skill[ BattleSkill [ j + i * 4 ] ].useFlag == 0 )

  00858	8b 85 7c fc ff
	ff		 mov	 eax, DWORD PTR _i$10[ebp]
  0085e	8b 8d 70 fc ff
	ff		 mov	 ecx, DWORD PTR _j$9[ebp]
  00864	8d 14 81	 lea	 edx, DWORD PTR [ecx+eax*4]
  00867	69 04 95 00 00
	00 00 c0 00 00
	00		 imul	 eax, DWORD PTR ?BattleSkill@@3PAHA[edx*4], 192
  00872	0f bf 88 00 00
	00 00		 movsx	 ecx, WORD PTR ?profession_skill@@3PAUPROFESSION_SKILL@@A[eax]
  00879	85 c9		 test	 ecx, ecx
  0087b	75 35		 jne	 SHORT $LN54@BattleButt

; 1869 : 						StockDispBuffer ( x + 24 + j * 60 , y + 98 + i * 57 , DISP_PRIO_IME3 + 1 , CG_BTL_BUTTON_CROSS , 0 ) ;

  0087d	6a 00		 push	 0
  0087f	68 1d 62 00 00	 push	 25117			; 0000621dH
  00884	6a 6a		 push	 106			; 0000006aH
  00886	6b 85 7c fc ff
	ff 39		 imul	 eax, DWORD PTR _i$10[ebp], 57
  0088d	8b 8d c4 fc ff
	ff		 mov	 ecx, DWORD PTR _y$16[ebp]
  00893	8d 54 01 62	 lea	 edx, DWORD PTR [ecx+eax+98]
  00897	52		 push	 edx
  00898	6b 85 70 fc ff
	ff 3c		 imul	 eax, DWORD PTR _j$9[ebp], 60
  0089f	8b 8d d0 fc ff
	ff		 mov	 ecx, DWORD PTR _x$17[ebp]
  008a5	8d 54 01 18	 lea	 edx, DWORD PTR [ecx+eax+24]
  008a9	52		 push	 edx
  008aa	e8 00 00 00 00	 call	 ?StockDispBuffer@@YAHHHEHH@Z ; StockDispBuffer
  008af	83 c4 14	 add	 esp, 20			; 00000014H
$LN54@BattleButt:

; 1870 : 					if ( profession_skill[ BattleSkill [ j + i * 4 ] ].skillId == 40 && p_party[ BattleMyNo ]->hp <= 10 )

  008b2	8b 85 7c fc ff
	ff		 mov	 eax, DWORD PTR _i$10[ebp]
  008b8	8b 8d 70 fc ff
	ff		 mov	 ecx, DWORD PTR _j$9[ebp]
  008be	8d 14 81	 lea	 edx, DWORD PTR [ecx+eax*4]
  008c1	69 04 95 00 00
	00 00 c0 00 00
	00		 imul	 eax, DWORD PTR ?BattleSkill@@3PAHA[edx*4], 192
  008cc	0f bf 88 02 00
	00 00		 movsx	 ecx, WORD PTR ?profession_skill@@3PAUPROFESSION_SKILL@@A[eax+2]
  008d3	83 f9 28	 cmp	 ecx, 40			; 00000028H
  008d6	75 47		 jne	 SHORT $LN55@BattleButt
  008d8	a1 00 00 00 00	 mov	 eax, DWORD PTR ?BattleMyNo@@3HA ; BattleMyNo
  008dd	8b 0c 85 00 00
	00 00		 mov	 ecx, DWORD PTR ?p_party@@3PAPAUaction@@A[eax*4]
  008e4	83 79 78 0a	 cmp	 DWORD PTR [ecx+120], 10	; 0000000aH
  008e8	7f 35		 jg	 SHORT $LN55@BattleButt

; 1871 : 						StockDispBuffer ( x + 24 + j * 60 , y + 98 + i * 57 , DISP_PRIO_IME3 + 1 , CG_BTL_BUTTON_CROSS , 0 ) ;

  008ea	6a 00		 push	 0
  008ec	68 1d 62 00 00	 push	 25117			; 0000621dH
  008f1	6a 6a		 push	 106			; 0000006aH
  008f3	6b 85 7c fc ff
	ff 39		 imul	 eax, DWORD PTR _i$10[ebp], 57
  008fa	8b 8d c4 fc ff
	ff		 mov	 ecx, DWORD PTR _y$16[ebp]
  00900	8d 54 01 62	 lea	 edx, DWORD PTR [ecx+eax+98]
  00904	52		 push	 edx
  00905	6b 85 70 fc ff
	ff 3c		 imul	 eax, DWORD PTR _j$9[ebp], 60
  0090c	8b 8d d0 fc ff
	ff		 mov	 ecx, DWORD PTR _x$17[ebp]
  00912	8d 54 01 18	 lea	 edx, DWORD PTR [ecx+eax+24]
  00916	52		 push	 edx
  00917	e8 00 00 00 00	 call	 ?StockDispBuffer@@YAHHHEHH@Z ; StockDispBuffer
  0091c	83 c4 14	 add	 esp, 20			; 00000014H
$LN55@BattleButt:

; 1872 : 					//StockDispBuffer( x + 138 + j * 48 , y + 228 + i * 52 , DISP_PRIO_IME3, CG_FIELD_SKILL_TILE , 0 );
; 1873 : 					BattleSkillBtn [ j + i * 4 ] = StockDispBuffer( x + 24 + j * 60 , y + 98 + i * 57 , DISP_PRIO_IME3 + 1 , profession_skill[ BattleSkill [ j + i * 4 ] ].icon  , 2 );

  0091f	6a 02		 push	 2
  00921	8b 85 7c fc ff
	ff		 mov	 eax, DWORD PTR _i$10[ebp]
  00927	8b 8d 70 fc ff
	ff		 mov	 ecx, DWORD PTR _j$9[ebp]
  0092d	8d 14 81	 lea	 edx, DWORD PTR [ecx+eax*4]
  00930	69 04 95 00 00
	00 00 c0 00 00
	00		 imul	 eax, DWORD PTR ?BattleSkill@@3PAHA[edx*4], 192
  0093b	8b 88 b4 00 00
	00		 mov	 ecx, DWORD PTR ?profession_skill@@3PAUPROFESSION_SKILL@@A[eax+180]
  00941	51		 push	 ecx
  00942	6a 6a		 push	 106			; 0000006aH
  00944	6b 95 7c fc ff
	ff 39		 imul	 edx, DWORD PTR _i$10[ebp], 57
  0094b	8b 85 c4 fc ff
	ff		 mov	 eax, DWORD PTR _y$16[ebp]
  00951	8d 4c 10 62	 lea	 ecx, DWORD PTR [eax+edx+98]
  00955	51		 push	 ecx
  00956	6b 95 70 fc ff
	ff 3c		 imul	 edx, DWORD PTR _j$9[ebp], 60
  0095d	8b 85 d0 fc ff
	ff		 mov	 eax, DWORD PTR _x$17[ebp]
  00963	8d 4c 10 18	 lea	 ecx, DWORD PTR [eax+edx+24]
  00967	51		 push	 ecx
  00968	e8 00 00 00 00	 call	 ?StockDispBuffer@@YAHHHEHH@Z ; StockDispBuffer
  0096d	83 c4 14	 add	 esp, 20			; 00000014H
  00970	8b 95 7c fc ff
	ff		 mov	 edx, DWORD PTR _i$10[ebp]
  00976	8b 8d 70 fc ff
	ff		 mov	 ecx, DWORD PTR _j$9[ebp]
  0097c	8d 14 91	 lea	 edx, DWORD PTR [ecx+edx*4]
  0097f	89 04 95 00 00
	00 00		 mov	 DWORD PTR ?BattleSkillBtn@@3PAHA[edx*4], eax

; 1874 : 					sprintf ( msg2 , "%8s" , profession_skill[BattleSkill [ j + i * 4 ]].name );

  00986	8b 85 7c fc ff
	ff		 mov	 eax, DWORD PTR _i$10[ebp]
  0098c	8b 8d 70 fc ff
	ff		 mov	 ecx, DWORD PTR _j$9[ebp]
  00992	8d 14 81	 lea	 edx, DWORD PTR [ecx+eax*4]
  00995	69 04 95 00 00
	00 00 c0 00 00
	00		 imul	 eax, DWORD PTR ?BattleSkill@@3PAHA[edx*4], 192
  009a0	05 08 00 00 00	 add	 eax, OFFSET ?profession_skill@@3PAUPROFESSION_SKILL@@A+8
  009a5	50		 push	 eax
  009a6	68 00 00 00 00	 push	 OFFSET ??_C@_03GHDNOBPC@?$CF8s?$AA@
  009ab	8d 8d e8 fc ff
	ff		 lea	 ecx, DWORD PTR _msg2$[ebp]
  009b1	51		 push	 ecx
  009b2	e8 00 00 00 00	 call	 _sprintf
  009b7	83 c4 0c	 add	 esp, 12			; 0000000cH

; 1875 : 					StockFontBuffer( x + j * 60 , y + 110 + i * 57 , FONT_PRIO_FRONT, FONT_PAL_WHITE, msg2, 0 );

  009ba	6a 00		 push	 0
  009bc	8d 85 e8 fc ff
	ff		 lea	 eax, DWORD PTR _msg2$[ebp]
  009c2	50		 push	 eax
  009c3	6a 00		 push	 0
  009c5	6a 01		 push	 1
  009c7	6b 8d 7c fc ff
	ff 39		 imul	 ecx, DWORD PTR _i$10[ebp], 57
  009ce	8b 95 c4 fc ff
	ff		 mov	 edx, DWORD PTR _y$16[ebp]
  009d4	8d 44 0a 6e	 lea	 eax, DWORD PTR [edx+ecx+110]
  009d8	50		 push	 eax
  009d9	6b 8d 70 fc ff
	ff 3c		 imul	 ecx, DWORD PTR _j$9[ebp], 60
  009e0	03 8d d0 fc ff
	ff		 add	 ecx, DWORD PTR _x$17[ebp]
  009e6	51		 push	 ecx
  009e7	e8 00 00 00 00	 call	 ?StockFontBuffer@@YAHHHDHPADH@Z ; StockFontBuffer
  009ec	83 c4 18	 add	 esp, 24			; 00000018H

; 1876 : 					if ( HitDispNo == BattleSkillBtn [ j + i * 4 ] ){ 

  009ef	8b 85 7c fc ff
	ff		 mov	 eax, DWORD PTR _i$10[ebp]
  009f5	8b 8d 70 fc ff
	ff		 mov	 ecx, DWORD PTR _j$9[ebp]
  009fb	8d 14 81	 lea	 edx, DWORD PTR [ecx+eax*4]
  009fe	a1 00 00 00 00	 mov	 eax, DWORD PTR ?HitDispNo@@3HA ; HitDispNo
  00a03	3b 04 95 00 00
	00 00		 cmp	 eax, DWORD PTR ?BattleSkillBtn@@3PAHA[edx*4]
  00a0a	0f 85 af 01 00
	00		 jne	 $LN56@BattleButt

; 1877 : 
; 1878 : 						int use_color=0;

  00a10	c7 85 64 fc ff
	ff 00 00 00 00	 mov	 DWORD PTR _use_color$8[ebp], 0

; 1879 : 						if( p_party[ BattleMyNo ]->mp >= profession_skill[BattleSkill [ j + i * 4 ]].costmp && profession_skill[BattleSkill [ j + i * 4 ]].costmp != 0 ) {

  00a1a	a1 00 00 00 00	 mov	 eax, DWORD PTR ?BattleMyNo@@3HA ; BattleMyNo
  00a1f	8b 0c 85 00 00
	00 00		 mov	 ecx, DWORD PTR ?p_party@@3PAPAUaction@@A[eax*4]
  00a26	8b 95 7c fc ff
	ff		 mov	 edx, DWORD PTR _i$10[ebp]
  00a2c	8b 85 70 fc ff
	ff		 mov	 eax, DWORD PTR _j$9[ebp]
  00a32	8d 14 90	 lea	 edx, DWORD PTR [eax+edx*4]
  00a35	69 04 95 00 00
	00 00 c0 00 00
	00		 imul	 eax, DWORD PTR ?BattleSkill@@3PAHA[edx*4], 192
  00a40	8b 89 84 00 00
	00		 mov	 ecx, DWORD PTR [ecx+132]
  00a46	3b 88 b8 00 00
	00		 cmp	 ecx, DWORD PTR ?profession_skill@@3PAUPROFESSION_SKILL@@A[eax+184]
  00a4c	7c 2f		 jl	 SHORT $LN57@BattleButt
  00a4e	8b 85 7c fc ff
	ff		 mov	 eax, DWORD PTR _i$10[ebp]
  00a54	8b 8d 70 fc ff
	ff		 mov	 ecx, DWORD PTR _j$9[ebp]
  00a5a	8d 14 81	 lea	 edx, DWORD PTR [ecx+eax*4]
  00a5d	69 04 95 00 00
	00 00 c0 00 00
	00		 imul	 eax, DWORD PTR ?BattleSkill@@3PAHA[edx*4], 192
  00a68	83 b8 b8 00 00
	00 00		 cmp	 DWORD PTR ?profession_skill@@3PAUPROFESSION_SKILL@@A[eax+184], 0
  00a6f	74 0c		 je	 SHORT $LN57@BattleButt

; 1880 : 							use_color = FONT_PAL_WHITE;

  00a71	c7 85 64 fc ff
	ff 00 00 00 00	 mov	 DWORD PTR _use_color$8[ebp], 0

; 1881 : 						}else{

  00a7b	eb 0a		 jmp	 SHORT $LN58@BattleButt
$LN57@BattleButt:

; 1882 : 							use_color = FONT_PAL_GRAY;									

  00a7d	c7 85 64 fc ff
	ff 07 00 00 00	 mov	 DWORD PTR _use_color$8[ebp], 7
$LN58@BattleButt:

; 1883 : 						}
; 1884 : 
; 1885 : 						sprintf ( msg2 , "%s" , profession_skill[BattleSkill [ j + i * 4 ]].name );

  00a87	8b 85 7c fc ff
	ff		 mov	 eax, DWORD PTR _i$10[ebp]
  00a8d	8b 8d 70 fc ff
	ff		 mov	 ecx, DWORD PTR _j$9[ebp]
  00a93	8d 14 81	 lea	 edx, DWORD PTR [ecx+eax*4]
  00a96	69 04 95 00 00
	00 00 c0 00 00
	00		 imul	 eax, DWORD PTR ?BattleSkill@@3PAHA[edx*4], 192
  00aa1	05 08 00 00 00	 add	 eax, OFFSET ?profession_skill@@3PAUPROFESSION_SKILL@@A+8
  00aa6	50		 push	 eax
  00aa7	68 00 00 00 00	 push	 OFFSET ??_C@_02DKCKIIND@?$CFs?$AA@
  00aac	8d 8d e8 fc ff
	ff		 lea	 ecx, DWORD PTR _msg2$[ebp]
  00ab2	51		 push	 ecx
  00ab3	e8 00 00 00 00	 call	 _sprintf
  00ab8	83 c4 0c	 add	 esp, 12			; 0000000cH

; 1886 : 						StockFontBuffer( 20, 312, FONT_PRIO_FRONT, use_color, msg2, 0 );

  00abb	6a 00		 push	 0
  00abd	8d 85 e8 fc ff
	ff		 lea	 eax, DWORD PTR _msg2$[ebp]
  00ac3	50		 push	 eax
  00ac4	8b 8d 64 fc ff
	ff		 mov	 ecx, DWORD PTR _use_color$8[ebp]
  00aca	51		 push	 ecx
  00acb	6a 01		 push	 1
  00acd	68 38 01 00 00	 push	 312			; 00000138H
  00ad2	6a 14		 push	 20			; 00000014H
  00ad4	e8 00 00 00 00	 call	 ?StockFontBuffer@@YAHHHDHPADH@Z ; StockFontBuffer
  00ad9	83 c4 18	 add	 esp, 24			; 00000018H

; 1887 : 						
; 1888 : 						sprintf( msg , "  %d％", profession_skill[BattleSkill [ j + i * 4 ]].skill_level ) ; 

  00adc	8b 85 7c fc ff
	ff		 mov	 eax, DWORD PTR _i$10[ebp]
  00ae2	8b 8d 70 fc ff
	ff		 mov	 ecx, DWORD PTR _j$9[ebp]
  00ae8	8d 14 81	 lea	 edx, DWORD PTR [ecx+eax*4]
  00aeb	69 04 95 00 00
	00 00 c0 00 00
	00		 imul	 eax, DWORD PTR ?BattleSkill@@3PAHA[edx*4], 192
  00af6	8b 88 bc 00 00
	00		 mov	 ecx, DWORD PTR ?profession_skill@@3PAUPROFESSION_SKILL@@A[eax+188]
  00afc	51		 push	 ecx
  00afd	68 00 00 00 00	 push	 OFFSET ??_C@_06BPKJHHJO@?5?5?$CFd?$KD?$KF?$AA@
  00b02	8d 95 f8 fe ff
	ff		 lea	 edx, DWORD PTR _msg$[ebp]
  00b08	52		 push	 edx
  00b09	e8 00 00 00 00	 call	 _sprintf
  00b0e	83 c4 0c	 add	 esp, 12			; 0000000cH

; 1889 : 						StockFontBuffer( 85, 310, FONT_PRIO_FRONT, use_color, msg, 0 );

  00b11	6a 00		 push	 0
  00b13	8d 85 f8 fe ff
	ff		 lea	 eax, DWORD PTR _msg$[ebp]
  00b19	50		 push	 eax
  00b1a	8b 8d 64 fc ff
	ff		 mov	 ecx, DWORD PTR _use_color$8[ebp]
  00b20	51		 push	 ecx
  00b21	6a 01		 push	 1
  00b23	68 36 01 00 00	 push	 310			; 00000136H
  00b28	6a 55		 push	 85			; 00000055H
  00b2a	e8 00 00 00 00	 call	 ?StockFontBuffer@@YAHHHDHPADH@Z ; StockFontBuffer
  00b2f	83 c4 18	 add	 esp, 24			; 00000018H

; 1890 : 
; 1891 : 						sprintf ( msg2 , "(소비하다MP:%d)" , profession_skill[BattleSkill [ j + i * 4 ]].costmp );

  00b32	8b 85 7c fc ff
	ff		 mov	 eax, DWORD PTR _i$10[ebp]
  00b38	8b 8d 70 fc ff
	ff		 mov	 ecx, DWORD PTR _j$9[ebp]
  00b3e	8d 14 81	 lea	 edx, DWORD PTR [ecx+eax*4]
  00b41	69 04 95 00 00
	00 00 c0 00 00
	00		 imul	 eax, DWORD PTR ?BattleSkill@@3PAHA[edx*4], 192
  00b4c	8b 88 b8 00 00
	00		 mov	 ecx, DWORD PTR ?profession_skill@@3PAUPROFESSION_SKILL@@A[eax+184]
  00b52	51		 push	 ecx
  00b53	68 00 00 00 00	 push	 OFFSET ??_C@_0BA@OEIEMLKK@?$CI?$LM?R?$LK?q?G?O?$LE?YMP?3?$CFd?$CJ?$AA@
  00b58	8d 95 e8 fc ff
	ff		 lea	 edx, DWORD PTR _msg2$[ebp]
  00b5e	52		 push	 edx
  00b5f	e8 00 00 00 00	 call	 _sprintf
  00b64	83 c4 0c	 add	 esp, 12			; 0000000cH

; 1892 : 						StockFontBuffer( 170, 312, FONT_PRIO_FRONT, use_color, msg2, 0 );

  00b67	6a 00		 push	 0
  00b69	8d 85 e8 fc ff
	ff		 lea	 eax, DWORD PTR _msg2$[ebp]
  00b6f	50		 push	 eax
  00b70	8b 8d 64 fc ff
	ff		 mov	 ecx, DWORD PTR _use_color$8[ebp]
  00b76	51		 push	 ecx
  00b77	6a 01		 push	 1
  00b79	68 38 01 00 00	 push	 312			; 00000138H
  00b7e	68 aa 00 00 00	 push	 170			; 000000aaH
  00b83	e8 00 00 00 00	 call	 ?StockFontBuffer@@YAHHHDHPADH@Z ; StockFontBuffer
  00b88	83 c4 18	 add	 esp, 24			; 00000018H

; 1893 : 
; 1894 : 						sprintf( msg , "%s" , profession_skill[BattleSkill [ j + i * 4 ]].memo ) ; 

  00b8b	8b 85 7c fc ff
	ff		 mov	 eax, DWORD PTR _i$10[ebp]
  00b91	8b 8d 70 fc ff
	ff		 mov	 ecx, DWORD PTR _j$9[ebp]
  00b97	8d 14 81	 lea	 edx, DWORD PTR [ecx+eax*4]
  00b9a	69 04 95 00 00
	00 00 c0 00 00
	00		 imul	 eax, DWORD PTR ?BattleSkill@@3PAHA[edx*4], 192
  00ba5	05 5d 00 00 00	 add	 eax, OFFSET ?profession_skill@@3PAUPROFESSION_SKILL@@A+93
  00baa	50		 push	 eax
  00bab	68 00 00 00 00	 push	 OFFSET ??_C@_02DKCKIIND@?$CFs?$AA@
  00bb0	8d 8d f8 fe ff
	ff		 lea	 ecx, DWORD PTR _msg$[ebp]
  00bb6	51		 push	 ecx
  00bb7	e8 00 00 00 00	 call	 _sprintf
  00bbc	83 c4 0c	 add	 esp, 12			; 0000000cH
$LN56@BattleButt:

; 1895 : 					}
; 1896 : 					if( mouse.onceState & MOUSE_LEFT_CRICK_UP ) {

  00bbf	a1 2c 00 00 00	 mov	 eax, DWORD PTR ?mouse@@3UMOUSE@@A+44
  00bc4	83 e0 04	 and	 eax, 4
  00bc7	0f 84 32 01 00
	00		 je	 $LN59@BattleButt

; 1897 : 						if ( HitDispNo == BattleSkillBtn [ j + i * 4 ] && profession_skill[ BattleSkill [ j + i * 4 ] ].useFlag != 0) {

  00bcd	8b 85 7c fc ff
	ff		 mov	 eax, DWORD PTR _i$10[ebp]
  00bd3	8b 8d 70 fc ff
	ff		 mov	 ecx, DWORD PTR _j$9[ebp]
  00bd9	8d 14 81	 lea	 edx, DWORD PTR [ecx+eax*4]
  00bdc	a1 00 00 00 00	 mov	 eax, DWORD PTR ?HitDispNo@@3HA ; HitDispNo
  00be1	3b 04 95 00 00
	00 00		 cmp	 eax, DWORD PTR ?BattleSkillBtn@@3PAHA[edx*4]
  00be8	0f 85 11 01 00
	00		 jne	 $LN59@BattleButt
  00bee	8b 85 7c fc ff
	ff		 mov	 eax, DWORD PTR _i$10[ebp]
  00bf4	8b 8d 70 fc ff
	ff		 mov	 ecx, DWORD PTR _j$9[ebp]
  00bfa	8d 14 81	 lea	 edx, DWORD PTR [ecx+eax*4]
  00bfd	69 04 95 00 00
	00 00 c0 00 00
	00		 imul	 eax, DWORD PTR ?BattleSkill@@3PAHA[edx*4], 192
  00c08	0f bf 88 00 00
	00 00		 movsx	 ecx, WORD PTR ?profession_skill@@3PAUPROFESSION_SKILL@@A[eax]
  00c0f	85 c9		 test	 ecx, ecx
  00c11	0f 84 e8 00 00
	00		 je	 $LN59@BattleButt

; 1898 : 							if( p_party[ BattleMyNo ]->mp >= profession_skill[BattleSkill [ j + i * 4 ]].costmp && profession_skill[BattleSkill [ j + i * 4 ]].costmp != 0  ) {

  00c17	a1 00 00 00 00	 mov	 eax, DWORD PTR ?BattleMyNo@@3HA ; BattleMyNo
  00c1c	8b 0c 85 00 00
	00 00		 mov	 ecx, DWORD PTR ?p_party@@3PAPAUaction@@A[eax*4]
  00c23	8b 95 7c fc ff
	ff		 mov	 edx, DWORD PTR _i$10[ebp]
  00c29	8b 85 70 fc ff
	ff		 mov	 eax, DWORD PTR _j$9[ebp]
  00c2f	8d 14 90	 lea	 edx, DWORD PTR [eax+edx*4]
  00c32	69 04 95 00 00
	00 00 c0 00 00
	00		 imul	 eax, DWORD PTR ?BattleSkill@@3PAHA[edx*4], 192
  00c3d	8b 89 84 00 00
	00		 mov	 ecx, DWORD PTR [ecx+132]
  00c43	3b 88 b8 00 00
	00		 cmp	 ecx, DWORD PTR ?profession_skill@@3PAUPROFESSION_SKILL@@A[eax+184]
  00c49	0f 8c b0 00 00
	00		 jl	 $LN59@BattleButt
  00c4f	8b 85 7c fc ff
	ff		 mov	 eax, DWORD PTR _i$10[ebp]
  00c55	8b 8d 70 fc ff
	ff		 mov	 ecx, DWORD PTR _j$9[ebp]
  00c5b	8d 14 81	 lea	 edx, DWORD PTR [ecx+eax*4]
  00c5e	69 04 95 00 00
	00 00 c0 00 00
	00		 imul	 eax, DWORD PTR ?BattleSkill@@3PAHA[edx*4], 192
  00c69	83 b8 b8 00 00
	00 00		 cmp	 DWORD PTR ?profession_skill@@3PAUPROFESSION_SKILL@@A[eax+184], 0
  00c70	0f 84 89 00 00
	00		 je	 $LN59@BattleButt

; 1899 : 								if ( !(profession_skill[ BattleSkill [ j + i * 4 ] ].skillId == 40 && p_party[ BattleMyNo ]->hp <= 10) ) { //濒死攻击限制

  00c76	8b 85 7c fc ff
	ff		 mov	 eax, DWORD PTR _i$10[ebp]
  00c7c	8b 8d 70 fc ff
	ff		 mov	 ecx, DWORD PTR _j$9[ebp]
  00c82	8d 14 81	 lea	 edx, DWORD PTR [ecx+eax*4]
  00c85	69 04 95 00 00
	00 00 c0 00 00
	00		 imul	 eax, DWORD PTR ?BattleSkill@@3PAHA[edx*4], 192
  00c90	0f bf 88 02 00
	00 00		 movsx	 ecx, WORD PTR ?profession_skill@@3PAUPROFESSION_SKILL@@A[eax+2]
  00c97	83 f9 28	 cmp	 ecx, 40			; 00000028H
  00c9a	75 12		 jne	 SHORT $LN63@BattleButt
  00c9c	a1 00 00 00 00	 mov	 eax, DWORD PTR ?BattleMyNo@@3HA ; BattleMyNo
  00ca1	8b 0c 85 00 00
	00 00		 mov	 ecx, DWORD PTR ?p_party@@3PAPAUaction@@A[eax*4]
  00ca8	83 79 78 0a	 cmp	 DWORD PTR [ecx+120], 10	; 0000000aH
  00cac	7e 51		 jle	 SHORT $LN59@BattleButt
$LN63@BattleButt:

; 1900 : 									wonflag = 0 ; 

  00cae	c7 05 00 00 00
	00 00 00 00 00	 mov	 DWORD PTR ?wonflag@@3HA, 0 ; wonflag

; 1901 : 									prouseskill = BattleSkill [ j + i * 4 ] ; 

  00cb8	8b 85 7c fc ff
	ff		 mov	 eax, DWORD PTR _i$10[ebp]
  00cbe	8b 8d 70 fc ff
	ff		 mov	 ecx, DWORD PTR _j$9[ebp]
  00cc4	8d 14 81	 lea	 edx, DWORD PTR [ecx+eax*4]
  00cc7	8b 04 95 00 00
	00 00		 mov	 eax, DWORD PTR ?BattleSkill@@3PAHA[edx*4]
  00cce	a3 00 00 00 00	 mov	 DWORD PTR ?prouseskill@@3HA, eax ; prouseskill

; 1902 : 									BattleSetWazaHitBox( profession_skill[BattleSkill [ j + i * 4 ] ].target , 1) ; 

  00cd3	6a 01		 push	 1
  00cd5	8b 85 7c fc ff
	ff		 mov	 eax, DWORD PTR _i$10[ebp]
  00cdb	8b 8d 70 fc ff
	ff		 mov	 ecx, DWORD PTR _j$9[ebp]
  00ce1	8d 14 81	 lea	 edx, DWORD PTR [ecx+eax*4]
  00ce4	69 04 95 00 00
	00 00 c0 00 00
	00		 imul	 eax, DWORD PTR ?BattleSkill@@3PAHA[edx*4], 192
  00cef	0f bf 88 04 00
	00 00		 movsx	 ecx, WORD PTR ?profession_skill@@3PAUPROFESSION_SKILL@@A[eax+4]
  00cf6	51		 push	 ecx
  00cf7	e8 00 00 00 00	 call	 ?BattleSetWazaHitBox@@YAXHH@Z ; BattleSetWazaHitBox
  00cfc	83 c4 08	 add	 esp, 8
$LN59@BattleButt:

; 1903 : 								}
; 1904 : 							}
; 1905 : 						}
; 1906 : 					}
; 1907 : 				}

  00cff	e9 1a fb ff ff	 jmp	 $LN22@BattleButt
$LN23@BattleButt:

; 1908 : 			}

  00d04	e9 ed fa ff ff	 jmp	 $LN19@BattleButt
$LN20@BattleButt:

; 1909 : 			break;

  00d09	e9 8d 04 00 00	 jmp	 $LN11@BattleButt
$LN64@BattleButt:

; 1910 : 		case 2:
; 1911 : #ifdef _READ16BITBMP
; 1912 : 			if(g_bUseAlpha) StockDispBuffer( 168, 223, DISP_PRIO_IME3, CG_FIELD_SKILL_ADVSK , 0 );
; 1913 : 			else
; 1914 : #endif
; 1915 : 			StockDispBuffer( 165, 221, DISP_PRIO_IME3, CG_FIELD_SKILL_ADVSK , 0 );

  00d0e	6a 00		 push	 0
  00d10	68 f3 66 00 00	 push	 26355			; 000066f3H
  00d15	6a 69		 push	 105			; 00000069H
  00d17	68 dd 00 00 00	 push	 221			; 000000ddH
  00d1c	68 a5 00 00 00	 push	 165			; 000000a5H
  00d21	e8 00 00 00 00	 call	 ?StockDispBuffer@@YAHHHEHH@Z ; StockDispBuffer
  00d26	83 c4 14	 add	 esp, 20			; 00000014H

; 1916 : 			for ( int i = 0 ; i < 4 ; i ++ ) {

  00d29	c7 85 58 fc ff
	ff 00 00 00 00	 mov	 DWORD PTR _i$7[ebp], 0
  00d33	eb 0f		 jmp	 SHORT $LN27@BattleButt
$LN25@BattleButt:
  00d35	8b 85 58 fc ff
	ff		 mov	 eax, DWORD PTR _i$7[ebp]
  00d3b	83 c0 01	 add	 eax, 1
  00d3e	89 85 58 fc ff
	ff		 mov	 DWORD PTR _i$7[ebp], eax
$LN27@BattleButt:
  00d44	83 bd 58 fc ff
	ff 04		 cmp	 DWORD PTR _i$7[ebp], 4
  00d4b	0f 8d 4a 04 00
	00		 jge	 $LN11@BattleButt

; 1917 : 				for ( int j = 0 ; j < 4 ; j ++ ) {

  00d51	c7 85 4c fc ff
	ff 00 00 00 00	 mov	 DWORD PTR _j$6[ebp], 0
  00d5b	eb 0f		 jmp	 SHORT $LN30@BattleButt
$LN28@BattleButt:
  00d5d	8b 85 4c fc ff
	ff		 mov	 eax, DWORD PTR _j$6[ebp]
  00d63	83 c0 01	 add	 eax, 1
  00d66	89 85 4c fc ff
	ff		 mov	 DWORD PTR _j$6[ebp], eax
$LN30@BattleButt:
  00d6c	83 bd 4c fc ff
	ff 04		 cmp	 DWORD PTR _j$6[ebp], 4
  00d73	0f 8d 1d 04 00
	00		 jge	 $LN29@BattleButt

; 1918 : 					if ( AdvanceSkill [ j + i * 4 ] == -1 ) 

  00d79	8b 85 58 fc ff
	ff		 mov	 eax, DWORD PTR _i$7[ebp]
  00d7f	8b 8d 4c fc ff
	ff		 mov	 ecx, DWORD PTR _j$6[ebp]
  00d85	8d 14 81	 lea	 edx, DWORD PTR [ecx+eax*4]
  00d88	83 3c 95 00 00
	00 00 ff	 cmp	 DWORD PTR ?AdvanceSkill@@3PAHA[edx*4], -1
  00d90	75 05		 jne	 SHORT $LN65@BattleButt

; 1919 : 						break;

  00d92	e9 ff 03 00 00	 jmp	 $LN29@BattleButt
$LN65@BattleButt:

; 1920 : 					if ( profession_skill[ AdvanceSkill [ j + i * 4 ] ].useFlag == 0 )

  00d97	8b 85 58 fc ff
	ff		 mov	 eax, DWORD PTR _i$7[ebp]
  00d9d	8b 8d 4c fc ff
	ff		 mov	 ecx, DWORD PTR _j$6[ebp]
  00da3	8d 14 81	 lea	 edx, DWORD PTR [ecx+eax*4]
  00da6	69 04 95 00 00
	00 00 c0 00 00
	00		 imul	 eax, DWORD PTR ?AdvanceSkill@@3PAHA[edx*4], 192
  00db1	0f bf 88 00 00
	00 00		 movsx	 ecx, WORD PTR ?profession_skill@@3PAUPROFESSION_SKILL@@A[eax]
  00db8	85 c9		 test	 ecx, ecx
  00dba	75 35		 jne	 SHORT $LN66@BattleButt

; 1921 : 						StockDispBuffer ( x + 24 + j * 60 , y + 98 + i * 57 , DISP_PRIO_IME3 + 1 , CG_BTL_BUTTON_CROSS , 0 ) ;

  00dbc	6a 00		 push	 0
  00dbe	68 1d 62 00 00	 push	 25117			; 0000621dH
  00dc3	6a 6a		 push	 106			; 0000006aH
  00dc5	6b 85 58 fc ff
	ff 39		 imul	 eax, DWORD PTR _i$7[ebp], 57
  00dcc	8b 8d c4 fc ff
	ff		 mov	 ecx, DWORD PTR _y$16[ebp]
  00dd2	8d 54 01 62	 lea	 edx, DWORD PTR [ecx+eax+98]
  00dd6	52		 push	 edx
  00dd7	6b 85 4c fc ff
	ff 3c		 imul	 eax, DWORD PTR _j$6[ebp], 60
  00dde	8b 8d d0 fc ff
	ff		 mov	 ecx, DWORD PTR _x$17[ebp]
  00de4	8d 54 01 18	 lea	 edx, DWORD PTR [ecx+eax+24]
  00de8	52		 push	 edx
  00de9	e8 00 00 00 00	 call	 ?StockDispBuffer@@YAHHHEHH@Z ; StockDispBuffer
  00dee	83 c4 14	 add	 esp, 20			; 00000014H
$LN66@BattleButt:

; 1922 : 					//StockDispBuffer( x + 138 + j * 48 , y + 228 + i * 52 , DISP_PRIO_IME3, CG_FIELD_SKILL_TILE , 0 );
; 1923 : 					AdvanceSkillBtn [ j + i * 4 ] = StockDispBuffer( x + 24 + j * 60 , y + 98 + i * 57 , DISP_PRIO_IME3 + 1 , profession_skill[ AdvanceSkill [ j + i * 4 ] ].icon  , 2 );

  00df1	6a 02		 push	 2
  00df3	8b 85 58 fc ff
	ff		 mov	 eax, DWORD PTR _i$7[ebp]
  00df9	8b 8d 4c fc ff
	ff		 mov	 ecx, DWORD PTR _j$6[ebp]
  00dff	8d 14 81	 lea	 edx, DWORD PTR [ecx+eax*4]
  00e02	69 04 95 00 00
	00 00 c0 00 00
	00		 imul	 eax, DWORD PTR ?AdvanceSkill@@3PAHA[edx*4], 192
  00e0d	8b 88 b4 00 00
	00		 mov	 ecx, DWORD PTR ?profession_skill@@3PAUPROFESSION_SKILL@@A[eax+180]
  00e13	51		 push	 ecx
  00e14	6a 6a		 push	 106			; 0000006aH
  00e16	6b 95 58 fc ff
	ff 39		 imul	 edx, DWORD PTR _i$7[ebp], 57
  00e1d	8b 85 c4 fc ff
	ff		 mov	 eax, DWORD PTR _y$16[ebp]
  00e23	8d 4c 10 62	 lea	 ecx, DWORD PTR [eax+edx+98]
  00e27	51		 push	 ecx
  00e28	6b 95 4c fc ff
	ff 3c		 imul	 edx, DWORD PTR _j$6[ebp], 60
  00e2f	8b 85 d0 fc ff
	ff		 mov	 eax, DWORD PTR _x$17[ebp]
  00e35	8d 4c 10 18	 lea	 ecx, DWORD PTR [eax+edx+24]
  00e39	51		 push	 ecx
  00e3a	e8 00 00 00 00	 call	 ?StockDispBuffer@@YAHHHEHH@Z ; StockDispBuffer
  00e3f	83 c4 14	 add	 esp, 20			; 00000014H
  00e42	8b 95 58 fc ff
	ff		 mov	 edx, DWORD PTR _i$7[ebp]
  00e48	8b 8d 4c fc ff
	ff		 mov	 ecx, DWORD PTR _j$6[ebp]
  00e4e	8d 14 91	 lea	 edx, DWORD PTR [ecx+edx*4]
  00e51	89 04 95 00 00
	00 00		 mov	 DWORD PTR ?AdvanceSkillBtn@@3PAHA[edx*4], eax

; 1924 : 					sprintf ( msg2 , "%8s" , profession_skill[AdvanceSkill [ j + i * 4 ]].name );

  00e58	8b 85 58 fc ff
	ff		 mov	 eax, DWORD PTR _i$7[ebp]
  00e5e	8b 8d 4c fc ff
	ff		 mov	 ecx, DWORD PTR _j$6[ebp]
  00e64	8d 14 81	 lea	 edx, DWORD PTR [ecx+eax*4]
  00e67	69 04 95 00 00
	00 00 c0 00 00
	00		 imul	 eax, DWORD PTR ?AdvanceSkill@@3PAHA[edx*4], 192
  00e72	05 08 00 00 00	 add	 eax, OFFSET ?profession_skill@@3PAUPROFESSION_SKILL@@A+8
  00e77	50		 push	 eax
  00e78	68 00 00 00 00	 push	 OFFSET ??_C@_03GHDNOBPC@?$CF8s?$AA@
  00e7d	8d 8d e8 fc ff
	ff		 lea	 ecx, DWORD PTR _msg2$[ebp]
  00e83	51		 push	 ecx
  00e84	e8 00 00 00 00	 call	 _sprintf
  00e89	83 c4 0c	 add	 esp, 12			; 0000000cH

; 1925 : 					StockFontBuffer( x + j * 60 , y + 110 + i * 57 , FONT_PRIO_FRONT, FONT_PAL_WHITE, msg2, 0 );

  00e8c	6a 00		 push	 0
  00e8e	8d 85 e8 fc ff
	ff		 lea	 eax, DWORD PTR _msg2$[ebp]
  00e94	50		 push	 eax
  00e95	6a 00		 push	 0
  00e97	6a 01		 push	 1
  00e99	6b 8d 58 fc ff
	ff 39		 imul	 ecx, DWORD PTR _i$7[ebp], 57
  00ea0	8b 95 c4 fc ff
	ff		 mov	 edx, DWORD PTR _y$16[ebp]
  00ea6	8d 44 0a 6e	 lea	 eax, DWORD PTR [edx+ecx+110]
  00eaa	50		 push	 eax
  00eab	6b 8d 4c fc ff
	ff 3c		 imul	 ecx, DWORD PTR _j$6[ebp], 60
  00eb2	03 8d d0 fc ff
	ff		 add	 ecx, DWORD PTR _x$17[ebp]
  00eb8	51		 push	 ecx
  00eb9	e8 00 00 00 00	 call	 ?StockFontBuffer@@YAHHHDHPADH@Z ; StockFontBuffer
  00ebe	83 c4 18	 add	 esp, 24			; 00000018H

; 1926 : 					if ( HitDispNo == AdvanceSkillBtn [ j + i * 4 ] ){ 

  00ec1	8b 85 58 fc ff
	ff		 mov	 eax, DWORD PTR _i$7[ebp]
  00ec7	8b 8d 4c fc ff
	ff		 mov	 ecx, DWORD PTR _j$6[ebp]
  00ecd	8d 14 81	 lea	 edx, DWORD PTR [ecx+eax*4]
  00ed0	a1 00 00 00 00	 mov	 eax, DWORD PTR ?HitDispNo@@3HA ; HitDispNo
  00ed5	3b 04 95 00 00
	00 00		 cmp	 eax, DWORD PTR ?AdvanceSkillBtn@@3PAHA[edx*4]
  00edc	0f 85 af 01 00
	00		 jne	 $LN67@BattleButt

; 1927 : 						
; 1928 : 						int use_color = 0;

  00ee2	c7 85 40 fc ff
	ff 00 00 00 00	 mov	 DWORD PTR _use_color$5[ebp], 0

; 1929 : 						if( p_party[ BattleMyNo ]->mp >= profession_skill[AdvanceSkill [ j + i * 4 ]].costmp && profession_skill[AdvanceSkill [ j + i * 4 ]].costmp != 0 

  00eec	a1 00 00 00 00	 mov	 eax, DWORD PTR ?BattleMyNo@@3HA ; BattleMyNo
  00ef1	8b 0c 85 00 00
	00 00		 mov	 ecx, DWORD PTR ?p_party@@3PAPAUaction@@A[eax*4]
  00ef8	8b 95 58 fc ff
	ff		 mov	 edx, DWORD PTR _i$7[ebp]
  00efe	8b 85 4c fc ff
	ff		 mov	 eax, DWORD PTR _j$6[ebp]
  00f04	8d 14 90	 lea	 edx, DWORD PTR [eax+edx*4]
  00f07	69 04 95 00 00
	00 00 c0 00 00
	00		 imul	 eax, DWORD PTR ?AdvanceSkill@@3PAHA[edx*4], 192
  00f12	8b 89 84 00 00
	00		 mov	 ecx, DWORD PTR [ecx+132]
  00f18	3b 88 b8 00 00
	00		 cmp	 ecx, DWORD PTR ?profession_skill@@3PAUPROFESSION_SKILL@@A[eax+184]
  00f1e	7c 2f		 jl	 SHORT $LN68@BattleButt
  00f20	8b 85 58 fc ff
	ff		 mov	 eax, DWORD PTR _i$7[ebp]
  00f26	8b 8d 4c fc ff
	ff		 mov	 ecx, DWORD PTR _j$6[ebp]
  00f2c	8d 14 81	 lea	 edx, DWORD PTR [ecx+eax*4]
  00f2f	69 04 95 00 00
	00 00 c0 00 00
	00		 imul	 eax, DWORD PTR ?AdvanceSkill@@3PAHA[edx*4], 192
  00f3a	83 b8 b8 00 00
	00 00		 cmp	 DWORD PTR ?profession_skill@@3PAUPROFESSION_SKILL@@A[eax+184], 0
  00f41	74 0c		 je	 SHORT $LN68@BattleButt

; 1930 : 							){
; 1931 : 							use_color = FONT_PAL_WHITE;

  00f43	c7 85 40 fc ff
	ff 00 00 00 00	 mov	 DWORD PTR _use_color$5[ebp], 0

; 1932 : 						}else{

  00f4d	eb 0a		 jmp	 SHORT $LN69@BattleButt
$LN68@BattleButt:

; 1933 : 							use_color = FONT_PAL_GRAY;									

  00f4f	c7 85 40 fc ff
	ff 07 00 00 00	 mov	 DWORD PTR _use_color$5[ebp], 7
$LN69@BattleButt:

; 1934 : 						}
; 1935 : #ifdef _PROFESSION_ADDSKILL
; 1936 : 					//	if ( profession_skill[ AdvanceSkill [ j + i * 4 ] ].skillId == 2 )
; 1937 : 					//		use_color = FONT_PAL_WHITE; //针针相对不做mp限制
; 1938 : #endif			
; 1939 : 						sprintf ( msg2 , "%s" , profession_skill[AdvanceSkill [ j + i * 4 ]].name );

  00f59	8b 85 58 fc ff
	ff		 mov	 eax, DWORD PTR _i$7[ebp]
  00f5f	8b 8d 4c fc ff
	ff		 mov	 ecx, DWORD PTR _j$6[ebp]
  00f65	8d 14 81	 lea	 edx, DWORD PTR [ecx+eax*4]
  00f68	69 04 95 00 00
	00 00 c0 00 00
	00		 imul	 eax, DWORD PTR ?AdvanceSkill@@3PAHA[edx*4], 192
  00f73	05 08 00 00 00	 add	 eax, OFFSET ?profession_skill@@3PAUPROFESSION_SKILL@@A+8
  00f78	50		 push	 eax
  00f79	68 00 00 00 00	 push	 OFFSET ??_C@_02DKCKIIND@?$CFs?$AA@
  00f7e	8d 8d e8 fc ff
	ff		 lea	 ecx, DWORD PTR _msg2$[ebp]
  00f84	51		 push	 ecx
  00f85	e8 00 00 00 00	 call	 _sprintf
  00f8a	83 c4 0c	 add	 esp, 12			; 0000000cH

; 1940 : 						StockFontBuffer( 20, 312, FONT_PRIO_FRONT, use_color, msg2, 0 );

  00f8d	6a 00		 push	 0
  00f8f	8d 85 e8 fc ff
	ff		 lea	 eax, DWORD PTR _msg2$[ebp]
  00f95	50		 push	 eax
  00f96	8b 8d 40 fc ff
	ff		 mov	 ecx, DWORD PTR _use_color$5[ebp]
  00f9c	51		 push	 ecx
  00f9d	6a 01		 push	 1
  00f9f	68 38 01 00 00	 push	 312			; 00000138H
  00fa4	6a 14		 push	 20			; 00000014H
  00fa6	e8 00 00 00 00	 call	 ?StockFontBuffer@@YAHHHDHPADH@Z ; StockFontBuffer
  00fab	83 c4 18	 add	 esp, 24			; 00000018H

; 1941 : 
; 1942 : 						sprintf( msg , "  %d％", profession_skill[AdvanceSkill [ j + i * 4 ]].skill_level ) ; 

  00fae	8b 85 58 fc ff
	ff		 mov	 eax, DWORD PTR _i$7[ebp]
  00fb4	8b 8d 4c fc ff
	ff		 mov	 ecx, DWORD PTR _j$6[ebp]
  00fba	8d 14 81	 lea	 edx, DWORD PTR [ecx+eax*4]
  00fbd	69 04 95 00 00
	00 00 c0 00 00
	00		 imul	 eax, DWORD PTR ?AdvanceSkill@@3PAHA[edx*4], 192
  00fc8	8b 88 bc 00 00
	00		 mov	 ecx, DWORD PTR ?profession_skill@@3PAUPROFESSION_SKILL@@A[eax+188]
  00fce	51		 push	 ecx
  00fcf	68 00 00 00 00	 push	 OFFSET ??_C@_06BPKJHHJO@?5?5?$CFd?$KD?$KF?$AA@
  00fd4	8d 95 f8 fe ff
	ff		 lea	 edx, DWORD PTR _msg$[ebp]
  00fda	52		 push	 edx
  00fdb	e8 00 00 00 00	 call	 _sprintf
  00fe0	83 c4 0c	 add	 esp, 12			; 0000000cH

; 1943 : 						StockFontBuffer( 85, 310, FONT_PRIO_FRONT, use_color, msg, 0 );

  00fe3	6a 00		 push	 0
  00fe5	8d 85 f8 fe ff
	ff		 lea	 eax, DWORD PTR _msg$[ebp]
  00feb	50		 push	 eax
  00fec	8b 8d 40 fc ff
	ff		 mov	 ecx, DWORD PTR _use_color$5[ebp]
  00ff2	51		 push	 ecx
  00ff3	6a 01		 push	 1
  00ff5	68 36 01 00 00	 push	 310			; 00000136H
  00ffa	6a 55		 push	 85			; 00000055H
  00ffc	e8 00 00 00 00	 call	 ?StockFontBuffer@@YAHHHDHPADH@Z ; StockFontBuffer
  01001	83 c4 18	 add	 esp, 24			; 00000018H

; 1944 : 						
; 1945 : 						sprintf ( msg2 , "(소비하다MP:%d)" , profession_skill[AdvanceSkill [ j + i * 4 ]].costmp );

  01004	8b 85 58 fc ff
	ff		 mov	 eax, DWORD PTR _i$7[ebp]
  0100a	8b 8d 4c fc ff
	ff		 mov	 ecx, DWORD PTR _j$6[ebp]
  01010	8d 14 81	 lea	 edx, DWORD PTR [ecx+eax*4]
  01013	69 04 95 00 00
	00 00 c0 00 00
	00		 imul	 eax, DWORD PTR ?AdvanceSkill@@3PAHA[edx*4], 192
  0101e	8b 88 b8 00 00
	00		 mov	 ecx, DWORD PTR ?profession_skill@@3PAUPROFESSION_SKILL@@A[eax+184]
  01024	51		 push	 ecx
  01025	68 00 00 00 00	 push	 OFFSET ??_C@_0BA@OEIEMLKK@?$CI?$LM?R?$LK?q?G?O?$LE?YMP?3?$CFd?$CJ?$AA@
  0102a	8d 95 e8 fc ff
	ff		 lea	 edx, DWORD PTR _msg2$[ebp]
  01030	52		 push	 edx
  01031	e8 00 00 00 00	 call	 _sprintf
  01036	83 c4 0c	 add	 esp, 12			; 0000000cH

; 1946 : 						StockFontBuffer( 170, 312, FONT_PRIO_FRONT, use_color, msg2, 0 );

  01039	6a 00		 push	 0
  0103b	8d 85 e8 fc ff
	ff		 lea	 eax, DWORD PTR _msg2$[ebp]
  01041	50		 push	 eax
  01042	8b 8d 40 fc ff
	ff		 mov	 ecx, DWORD PTR _use_color$5[ebp]
  01048	51		 push	 ecx
  01049	6a 01		 push	 1
  0104b	68 38 01 00 00	 push	 312			; 00000138H
  01050	68 aa 00 00 00	 push	 170			; 000000aaH
  01055	e8 00 00 00 00	 call	 ?StockFontBuffer@@YAHHHDHPADH@Z ; StockFontBuffer
  0105a	83 c4 18	 add	 esp, 24			; 00000018H

; 1947 : 
; 1948 : 						sprintf( msg , "%s" , profession_skill[AdvanceSkill [ j + i * 4 ]].memo ) ; 

  0105d	8b 85 58 fc ff
	ff		 mov	 eax, DWORD PTR _i$7[ebp]
  01063	8b 8d 4c fc ff
	ff		 mov	 ecx, DWORD PTR _j$6[ebp]
  01069	8d 14 81	 lea	 edx, DWORD PTR [ecx+eax*4]
  0106c	69 04 95 00 00
	00 00 c0 00 00
	00		 imul	 eax, DWORD PTR ?AdvanceSkill@@3PAHA[edx*4], 192
  01077	05 5d 00 00 00	 add	 eax, OFFSET ?profession_skill@@3PAUPROFESSION_SKILL@@A+93
  0107c	50		 push	 eax
  0107d	68 00 00 00 00	 push	 OFFSET ??_C@_02DKCKIIND@?$CFs?$AA@
  01082	8d 8d f8 fe ff
	ff		 lea	 ecx, DWORD PTR _msg$[ebp]
  01088	51		 push	 ecx
  01089	e8 00 00 00 00	 call	 _sprintf
  0108e	83 c4 0c	 add	 esp, 12			; 0000000cH
$LN67@BattleButt:

; 1949 : 					}
; 1950 : 					if( mouse.onceState & MOUSE_LEFT_CRICK_UP ) {

  01091	a1 2c 00 00 00	 mov	 eax, DWORD PTR ?mouse@@3UMOUSE@@A+44
  01096	83 e0 04	 and	 eax, 4
  01099	0f 84 f2 00 00
	00		 je	 $LN70@BattleButt

; 1951 : 						if ( HitDispNo == AdvanceSkillBtn [ j + i * 4 ] && profession_skill[ AdvanceSkill [ j + i * 4 ] ].useFlag != 0 ) {

  0109f	8b 85 58 fc ff
	ff		 mov	 eax, DWORD PTR _i$7[ebp]
  010a5	8b 8d 4c fc ff
	ff		 mov	 ecx, DWORD PTR _j$6[ebp]
  010ab	8d 14 81	 lea	 edx, DWORD PTR [ecx+eax*4]
  010ae	a1 00 00 00 00	 mov	 eax, DWORD PTR ?HitDispNo@@3HA ; HitDispNo
  010b3	3b 04 95 00 00
	00 00		 cmp	 eax, DWORD PTR ?AdvanceSkillBtn@@3PAHA[edx*4]
  010ba	0f 85 d1 00 00
	00		 jne	 $LN70@BattleButt
  010c0	8b 85 58 fc ff
	ff		 mov	 eax, DWORD PTR _i$7[ebp]
  010c6	8b 8d 4c fc ff
	ff		 mov	 ecx, DWORD PTR _j$6[ebp]
  010cc	8d 14 81	 lea	 edx, DWORD PTR [ecx+eax*4]
  010cf	69 04 95 00 00
	00 00 c0 00 00
	00		 imul	 eax, DWORD PTR ?AdvanceSkill@@3PAHA[edx*4], 192
  010da	0f bf 88 00 00
	00 00		 movsx	 ecx, WORD PTR ?profession_skill@@3PAUPROFESSION_SKILL@@A[eax]
  010e1	85 c9		 test	 ecx, ecx
  010e3	0f 84 a8 00 00
	00		 je	 $LN70@BattleButt

; 1952 : 							if( p_party[ BattleMyNo ]->mp >= profession_skill[AdvanceSkill [ j + i * 4 ]].costmp && profession_skill[AdvanceSkill [ j + i * 4 ]].costmp != 0 

  010e9	a1 00 00 00 00	 mov	 eax, DWORD PTR ?BattleMyNo@@3HA ; BattleMyNo
  010ee	8b 0c 85 00 00
	00 00		 mov	 ecx, DWORD PTR ?p_party@@3PAPAUaction@@A[eax*4]
  010f5	8b 95 58 fc ff
	ff		 mov	 edx, DWORD PTR _i$7[ebp]
  010fb	8b 85 4c fc ff
	ff		 mov	 eax, DWORD PTR _j$6[ebp]
  01101	8d 14 90	 lea	 edx, DWORD PTR [eax+edx*4]
  01104	69 04 95 00 00
	00 00 c0 00 00
	00		 imul	 eax, DWORD PTR ?AdvanceSkill@@3PAHA[edx*4], 192
  0110f	8b 89 84 00 00
	00		 mov	 ecx, DWORD PTR [ecx+132]
  01115	3b 88 b8 00 00
	00		 cmp	 ecx, DWORD PTR ?profession_skill@@3PAUPROFESSION_SKILL@@A[eax+184]
  0111b	7c 74		 jl	 SHORT $LN70@BattleButt
  0111d	8b 85 58 fc ff
	ff		 mov	 eax, DWORD PTR _i$7[ebp]
  01123	8b 8d 4c fc ff
	ff		 mov	 ecx, DWORD PTR _j$6[ebp]
  01129	8d 14 81	 lea	 edx, DWORD PTR [ecx+eax*4]
  0112c	69 04 95 00 00
	00 00 c0 00 00
	00		 imul	 eax, DWORD PTR ?AdvanceSkill@@3PAHA[edx*4], 192
  01137	83 b8 b8 00 00
	00 00		 cmp	 DWORD PTR ?profession_skill@@3PAUPROFESSION_SKILL@@A[eax+184], 0
  0113e	74 51		 je	 SHORT $LN70@BattleButt

; 1953 : 								){																					
; 1954 : 								wonflag = 0 ; 

  01140	c7 05 00 00 00
	00 00 00 00 00	 mov	 DWORD PTR ?wonflag@@3HA, 0 ; wonflag

; 1955 : 								prouseskill = AdvanceSkill [ j + i * 4  ]; 

  0114a	8b 85 58 fc ff
	ff		 mov	 eax, DWORD PTR _i$7[ebp]
  01150	8b 8d 4c fc ff
	ff		 mov	 ecx, DWORD PTR _j$6[ebp]
  01156	8d 14 81	 lea	 edx, DWORD PTR [ecx+eax*4]
  01159	8b 04 95 00 00
	00 00		 mov	 eax, DWORD PTR ?AdvanceSkill@@3PAHA[edx*4]
  01160	a3 00 00 00 00	 mov	 DWORD PTR ?prouseskill@@3HA, eax ; prouseskill

; 1956 : 								BattleSetWazaHitBox( profession_skill[AdvanceSkill [ j + i * 4 ] ].target , 1) ; 

  01165	6a 01		 push	 1
  01167	8b 85 58 fc ff
	ff		 mov	 eax, DWORD PTR _i$7[ebp]
  0116d	8b 8d 4c fc ff
	ff		 mov	 ecx, DWORD PTR _j$6[ebp]
  01173	8d 14 81	 lea	 edx, DWORD PTR [ecx+eax*4]
  01176	69 04 95 00 00
	00 00 c0 00 00
	00		 imul	 eax, DWORD PTR ?AdvanceSkill@@3PAHA[edx*4], 192
  01181	0f bf 88 04 00
	00 00		 movsx	 ecx, WORD PTR ?profession_skill@@3PAUPROFESSION_SKILL@@A[eax+4]
  01188	51		 push	 ecx
  01189	e8 00 00 00 00	 call	 ?BattleSetWazaHitBox@@YAXHH@Z ; BattleSetWazaHitBox
  0118e	83 c4 08	 add	 esp, 8
$LN70@BattleButt:

; 1957 : 							}
; 1958 : #ifdef _PROFESSION_ADDSKILL
; 1959 : 					//		else if ( profession_skill[ AdvanceSkill [ j + i * 4 ] ].skillId == 2 && profession_skill[AdvanceSkill [ j + i * 4 ]].costmp == 0 ) { //针针相对不做mp限制
; 1960 : 					//			wonflag = 0 ; 
; 1961 : 					//			BattleSetWazaHitBox( profession_skill[AdvanceSkill [ j + i * 4 ] ].target , 1) ; 
; 1962 : 					//			prouseskill = AdvanceSkill [ j + i * 4  ];  
; 1963 : 					//		}
; 1964 : #endif
; 1965 : 						}
; 1966 : 					}
; 1967 : 				}

  01191	e9 c7 fb ff ff	 jmp	 $LN28@BattleButt
$LN29@BattleButt:

; 1968 : 			}

  01196	e9 9a fb ff ff	 jmp	 $LN25@BattleButt
$LN11@BattleButt:

; 1969 : 			break;
; 1970 : 		default:
; 1971 : 			break;
; 1972 : 		}
; 1973 : 		char *splitPoint =  msg  ; 

  0119b	8d 85 f8 fe ff
	ff		 lea	 eax, DWORD PTR _msg$[ebp]
  011a1	89 85 34 fc ff
	ff		 mov	 DWORD PTR _splitPoint$4[ebp], eax

; 1974 : 		sprintf( buf , "%s" , msg ) ; 

  011a7	8d 85 f8 fe ff
	ff		 lea	 eax, DWORD PTR _msg$[ebp]
  011ad	50		 push	 eax
  011ae	68 00 00 00 00	 push	 OFFSET ??_C@_02DKCKIIND@?$CFs?$AA@
  011b3	8d 8d f0 fd ff
	ff		 lea	 ecx, DWORD PTR _buf$[ebp]
  011b9	51		 push	 ecx
  011ba	e8 00 00 00 00	 call	 _sprintf
  011bf	83 c4 0c	 add	 esp, 12			; 0000000cH

; 1975 : 		x = 18 ; 

  011c2	c7 85 d0 fc ff
	ff 12 00 00 00	 mov	 DWORD PTR _x$17[ebp], 18 ; 00000012H

; 1976 : 		y = 340 ; 

  011cc	c7 85 c4 fc ff
	ff 54 01 00 00	 mov	 DWORD PTR _y$16[ebp], 340 ; 00000154H
$LN31@BattleButt:

; 1977 : 		while( 1 ){

  011d6	b8 01 00 00 00	 mov	 eax, 1
  011db	85 c0		 test	 eax, eax
  011dd	0f 84 6f 01 00
	00		 je	 $LN78@BattleButt

; 1978 : 			if( strlen( splitPoint ) > 34 ) {

  011e3	8b 85 34 fc ff
	ff		 mov	 eax, DWORD PTR _splitPoint$4[ebp]
  011e9	50		 push	 eax
  011ea	e8 00 00 00 00	 call	 _strlen
  011ef	83 c4 04	 add	 esp, 4
  011f2	83 f8 22	 cmp	 eax, 34			; 00000022H
  011f5	0f 86 17 01 00
	00		 jbe	 $LN74@BattleButt

; 1979 : 				strncpy( msg, splitPoint, 34 );

  011fb	8b f4		 mov	 esi, esp
  011fd	6a 22		 push	 34			; 00000022H
  011ff	8b 85 34 fc ff
	ff		 mov	 eax, DWORD PTR _splitPoint$4[ebp]
  01205	50		 push	 eax
  01206	8d 8d f8 fe ff
	ff		 lea	 ecx, DWORD PTR _msg$[ebp]
  0120c	51		 push	 ecx
  0120d	ff 15 00 00 00
	00		 call	 DWORD PTR __imp__strncpy
  01213	83 c4 0c	 add	 esp, 12			; 0000000cH
  01216	3b f4		 cmp	 esi, esp
  01218	e8 00 00 00 00	 call	 __RTC_CheckEsp

; 1980 : 				buf[ 34 ] = NULL;

  0121d	b8 01 00 00 00	 mov	 eax, 1
  01222	6b c8 22	 imul	 ecx, eax, 34
  01225	89 8d a8 fa ff
	ff		 mov	 DWORD PTR $T3[ebp], ecx
  0122b	81 bd a8 fa ff
	ff 00 01 00 00	 cmp	 DWORD PTR $T3[ebp], 256	; 00000100H
  01235	73 02		 jae	 SHORT $LN81@BattleButt
  01237	eb 05		 jmp	 SHORT $LN82@BattleButt
$LN81@BattleButt:
  01239	e8 00 00 00 00	 call	 ___report_rangecheckfailure
$LN82@BattleButt:
  0123e	8b 95 a8 fa ff
	ff		 mov	 edx, DWORD PTR $T3[ebp]
  01244	c6 84 15 f0 fd
	ff ff 00	 mov	 BYTE PTR _buf$[ebp+edx], 0

; 1981 : 				if( GetStrLastByte( buf ) == 3 ){

  0124c	8d 85 f0 fd ff
	ff		 lea	 eax, DWORD PTR _buf$[ebp]
  01252	50		 push	 eax
  01253	e8 00 00 00 00	 call	 ?GetStrLastByte@@YAHPAD@Z ; GetStrLastByte
  01258	83 c4 04	 add	 esp, 4
  0125b	83 f8 03	 cmp	 eax, 3
  0125e	75 40		 jne	 SHORT $LN76@BattleButt

; 1982 : 					buf[ 33 ] = NULL;

  01260	b8 01 00 00 00	 mov	 eax, 1
  01265	6b c8 21	 imul	 ecx, eax, 33
  01268	89 8d 9c fa ff
	ff		 mov	 DWORD PTR $T2[ebp], ecx
  0126e	81 bd 9c fa ff
	ff 00 01 00 00	 cmp	 DWORD PTR $T2[ebp], 256	; 00000100H
  01278	73 02		 jae	 SHORT $LN83@BattleButt
  0127a	eb 05		 jmp	 SHORT $LN84@BattleButt
$LN83@BattleButt:
  0127c	e8 00 00 00 00	 call	 ___report_rangecheckfailure
$LN84@BattleButt:
  01281	8b 95 9c fa ff
	ff		 mov	 edx, DWORD PTR $T2[ebp]
  01287	c6 84 15 f0 fd
	ff ff 00	 mov	 BYTE PTR _buf$[ebp+edx], 0

; 1983 : 					splitPoint += 33;

  0128f	8b 85 34 fc ff
	ff		 mov	 eax, DWORD PTR _splitPoint$4[ebp]
  01295	83 c0 21	 add	 eax, 33			; 00000021H
  01298	89 85 34 fc ff
	ff		 mov	 DWORD PTR _splitPoint$4[ebp], eax

; 1984 : 				}else{

  0129e	eb 3e		 jmp	 SHORT $LN77@BattleButt
$LN76@BattleButt:

; 1985 : 					buf[ 34 ] = NULL;

  012a0	b8 01 00 00 00	 mov	 eax, 1
  012a5	6b c8 22	 imul	 ecx, eax, 34
  012a8	89 8d 90 fa ff
	ff		 mov	 DWORD PTR $T1[ebp], ecx
  012ae	81 bd 90 fa ff
	ff 00 01 00 00	 cmp	 DWORD PTR $T1[ebp], 256	; 00000100H
  012b8	73 02		 jae	 SHORT $LN85@BattleButt
  012ba	eb 05		 jmp	 SHORT $LN86@BattleButt
$LN85@BattleButt:
  012bc	e8 00 00 00 00	 call	 ___report_rangecheckfailure
$LN86@BattleButt:
  012c1	8b 95 90 fa ff
	ff		 mov	 edx, DWORD PTR $T1[ebp]
  012c7	c6 84 15 f0 fd
	ff ff 00	 mov	 BYTE PTR _buf$[ebp+edx], 0

; 1986 : 					splitPoint += 34;

  012cf	8b 85 34 fc ff
	ff		 mov	 eax, DWORD PTR _splitPoint$4[ebp]
  012d5	83 c0 22	 add	 eax, 34			; 00000022H
  012d8	89 85 34 fc ff
	ff		 mov	 DWORD PTR _splitPoint$4[ebp], eax
$LN77@BattleButt:

; 1987 : 				}
; 1988 : 				StockFontBuffer( x, y , FONT_PRIO_FRONT, 0, buf, 0 ); y += 24;

  012de	6a 00		 push	 0
  012e0	8d 85 f0 fd ff
	ff		 lea	 eax, DWORD PTR _buf$[ebp]
  012e6	50		 push	 eax
  012e7	6a 00		 push	 0
  012e9	6a 01		 push	 1
  012eb	8b 8d c4 fc ff
	ff		 mov	 ecx, DWORD PTR _y$16[ebp]
  012f1	51		 push	 ecx
  012f2	8b 95 d0 fc ff
	ff		 mov	 edx, DWORD PTR _x$17[ebp]
  012f8	52		 push	 edx
  012f9	e8 00 00 00 00	 call	 ?StockFontBuffer@@YAHHHDHPADH@Z ; StockFontBuffer
  012fe	83 c4 18	 add	 esp, 24			; 00000018H
  01301	8b 85 c4 fc ff
	ff		 mov	 eax, DWORD PTR _y$16[ebp]
  01307	83 c0 18	 add	 eax, 24			; 00000018H
  0130a	89 85 c4 fc ff
	ff		 mov	 DWORD PTR _y$16[ebp], eax

; 1989 : 			}else{

  01310	eb 3b		 jmp	 SHORT $LN75@BattleButt
$LN74@BattleButt:

; 1990 : 				strcpy( buf, splitPoint );

  01312	8b 85 34 fc ff
	ff		 mov	 eax, DWORD PTR _splitPoint$4[ebp]
  01318	50		 push	 eax
  01319	8d 8d f0 fd ff
	ff		 lea	 ecx, DWORD PTR _buf$[ebp]
  0131f	51		 push	 ecx
  01320	e8 00 00 00 00	 call	 _strcpy
  01325	83 c4 08	 add	 esp, 8

; 1991 : 				StockFontBuffer( x, y, FONT_PRIO_FRONT, 0, buf, 0 );

  01328	6a 00		 push	 0
  0132a	8d 85 f0 fd ff
	ff		 lea	 eax, DWORD PTR _buf$[ebp]
  01330	50		 push	 eax
  01331	6a 00		 push	 0
  01333	6a 01		 push	 1
  01335	8b 8d c4 fc ff
	ff		 mov	 ecx, DWORD PTR _y$16[ebp]
  0133b	51		 push	 ecx
  0133c	8b 95 d0 fc ff
	ff		 mov	 edx, DWORD PTR _x$17[ebp]
  01342	52		 push	 edx
  01343	e8 00 00 00 00	 call	 ?StockFontBuffer@@YAHHHDHPADH@Z ; StockFontBuffer
  01348	83 c4 18	 add	 esp, 24			; 00000018H

; 1992 : 				break;

  0134b	eb 05		 jmp	 SHORT $LN78@BattleButt
$LN75@BattleButt:

; 1993 : 			}
; 1994 : 		}

  0134d	e9 84 fe ff ff	 jmp	 $LN31@BattleButt
$LN78@BattleButt:

; 1995 : //	StockFontBuffer ( 300 , 400 , FONT_PRIO_FRONT , FONT_PAL_WHITE , msg , 0 ) ; 
; 1996 : 	}
; 1997 : }

  01352	52		 push	 edx
  01353	8b cd		 mov	 ecx, ebp
  01355	50		 push	 eax
  01356	8d 15 00 00 00
	00		 lea	 edx, DWORD PTR $LN91@BattleButt
  0135c	e8 00 00 00 00	 call	 @_RTC_CheckStackVars@8
  01361	58		 pop	 eax
  01362	5a		 pop	 edx
  01363	5f		 pop	 edi
  01364	5e		 pop	 esi
  01365	5b		 pop	 ebx
  01366	8b 4d fc	 mov	 ecx, DWORD PTR __$ArrayPad$[ebp]
  01369	33 cd		 xor	 ecx, ebp
  0136b	e8 00 00 00 00	 call	 @__security_check_cookie@4
  01370	81 c4 78 05 00
	00		 add	 esp, 1400		; 00000578H
  01376	3b ec		 cmp	 ebp, esp
  01378	e8 00 00 00 00	 call	 __RTC_CheckEsp
  0137d	8b e5		 mov	 esp, ebp
  0137f	5d		 pop	 ebp
  01380	c3		 ret	 0
  01381	0f 1f 00	 npad	 3
$LN91@BattleButt:
  01384	03 00 00 00	 DD	 3
  01388	00 00 00 00	 DD	 $LN90@BattleButt
$LN90@BattleButt:
  0138c	f8 fe ff ff	 DD	 -264			; fffffef8H
  01390	00 01 00 00	 DD	 256			; 00000100H
  01394	00 00 00 00	 DD	 $LN87@BattleButt
  01398	f0 fd ff ff	 DD	 -528			; fffffdf0H
  0139c	00 01 00 00	 DD	 256			; 00000100H
  013a0	00 00 00 00	 DD	 $LN88@BattleButt
  013a4	e8 fc ff ff	 DD	 -792			; fffffce8H
  013a8	00 01 00 00	 DD	 256			; 00000100H
  013ac	00 00 00 00	 DD	 $LN89@BattleButt
$LN89@BattleButt:
  013b0	6d		 DB	 109			; 0000006dH
  013b1	73		 DB	 115			; 00000073H
  013b2	67		 DB	 103			; 00000067H
  013b3	32		 DB	 50			; 00000032H
  013b4	00		 DB	 0
$LN88@BattleButt:
  013b5	62		 DB	 98			; 00000062H
  013b6	75		 DB	 117			; 00000075H
  013b7	66		 DB	 102			; 00000066H
  013b8	00		 DB	 0
$LN87@BattleButt:
  013b9	6d		 DB	 109			; 0000006dH
  013ba	73		 DB	 115			; 00000073H
  013bb	67		 DB	 103			; 00000067H
  013bc	00		 DB	 0
?BattleButtonPPLSKILL@@YAXXZ ENDP			; BattleButtonPPLSKILL
_TEXT	ENDS
; Function compile flags: /Odtp /RTCsu /ZI
; File c:\users\administrator\desktop\????? ??\????? ??\client source code\system\battlemenu.cpp
;	COMDAT ?BattleButtonPet@@YAXXZ
_TEXT	SEGMENT
_ٻoffsetY$1 = -444					; size = 4
_ٻoffsetX$2 = -432					; size = 4
_offsetY$3 = -420					; size = 4
_offsetX$4 = -408					; size = 4
_y$5 = -396						; size = 4
_x$6 = -384						; size = 4
_color$ = -372						; size = 4
_atrGraNo$ = -360					; size = 16
_atrFlag$ = -336					; size = 4
_flag$ = -324						; size = 4
_moji$ = -288						; size = 256
_bak$ = -24						; size = 4
_i$ = -12						; size = 4
__$ArrayPad$ = -4					; size = 4
?BattleButtonPet@@YAXXZ PROC				; BattleButtonPet, COMDAT

; 1550 : {

  00000	55		 push	 ebp
  00001	8b ec		 mov	 ebp, esp
  00003	81 ec 80 02 00
	00		 sub	 esp, 640		; 00000280H
  00009	53		 push	 ebx
  0000a	56		 push	 esi
  0000b	57		 push	 edi
  0000c	8d bd 80 fd ff
	ff		 lea	 edi, DWORD PTR [ebp-640]
  00012	b9 a0 00 00 00	 mov	 ecx, 160		; 000000a0H
  00017	b8 cc cc cc cc	 mov	 eax, -858993460		; ccccccccH
  0001c	f3 ab		 rep stosd
  0001e	a1 00 00 00 00	 mov	 eax, DWORD PTR ___security_cookie
  00023	33 c5		 xor	 eax, ebp
  00025	89 45 fc	 mov	 DWORD PTR __$ArrayPad$[ebp], eax

; 1551 : 	int i, bak;
; 1552 : 	char moji[ 256 ];
; 1553 : 	int x, y;
; 1554 : 	int flag = FALSE;

  00028	c7 85 bc fe ff
	ff 00 00 00 00	 mov	 DWORD PTR _flag$[ebp], 0

; 1555 : 	int atrFlag = FALSE;

  00032	c7 85 b0 fe ff
	ff 00 00 00 00	 mov	 DWORD PTR _atrFlag$[ebp], 0

; 1556 : 	int atrGraNo[ 4 ];
; 1557 : 	int color;
; 1558 : 	if( HitDispNo == battleButtonDispNo[ 6 ] || battleButtonBak2 == 6 ){

  0003c	b8 04 00 00 00	 mov	 eax, 4
  00041	6b c8 06	 imul	 ecx, eax, 6
  00044	8b 15 00 00 00
	00		 mov	 edx, DWORD PTR ?HitDispNo@@3HA ; HitDispNo
  0004a	3b 91 00 00 00
	00		 cmp	 edx, DWORD PTR ?battleButtonDispNo@@3PAHA[ecx]
  00050	74 0d		 je	 SHORT $LN12@BattleButt
  00052	83 3d 00 00 00
	00 06		 cmp	 DWORD PTR ?battleButtonBak2@@3HA, 6
  00059	0f 85 b8 00 00
	00		 jne	 $LN11@BattleButt
$LN12@BattleButt:

; 1559 : 
; 1560 : 		if( mouse.onceState & MOUSE_LEFT_CRICK || battleButtonBak2 == 6 ){

  0005f	a1 2c 00 00 00	 mov	 eax, DWORD PTR ?mouse@@3UMOUSE@@A+44
  00064	83 e0 01	 and	 eax, 1
  00067	75 0d		 jne	 SHORT $LN14@BattleButt
  00069	83 3d 00 00 00
	00 06		 cmp	 DWORD PTR ?battleButtonBak2@@3HA, 6
  00070	0f 85 8f 00 00
	00		 jne	 $LN13@BattleButt
$LN14@BattleButt:

; 1561 : 			bak = battleButtonFlag[ 6 ];

  00076	b8 04 00 00 00	 mov	 eax, 4
  0007b	6b c8 06	 imul	 ecx, eax, 6
  0007e	8b 91 00 00 00
	00		 mov	 edx, DWORD PTR ?battleButtonFlag@@3PAHA[ecx]
  00084	89 55 e8	 mov	 DWORD PTR _bak$[ebp], edx

; 1562 : 			BattleButtonOff();

  00087	e8 00 00 00 00	 call	 ?BattleButtonOff@@YAXXZ	; BattleButtonOff

; 1563 : 
; 1564 : 			if( bak == FALSE ){

  0008c	83 7d e8 00	 cmp	 DWORD PTR _bak$[ebp], 0
  00090	75 73		 jne	 SHORT $LN13@BattleButt

; 1565 : 
; 1566 : 				battleButtonFlag[ 6 ] = TRUE;

  00092	b8 04 00 00 00	 mov	 eax, 4
  00097	6b c8 06	 imul	 ecx, eax, 6
  0009a	c7 81 00 00 00
	00 01 00 00 00	 mov	 DWORD PTR ?battleButtonFlag@@3PAHA[ecx], 1

; 1567 : 
; 1568 : 				for( i = 0 ; i < BATTLE_MENU_PET_FONTS ; i++ ) battleMenuPetFontNo[ i ] = -2;

  000a4	c7 45 f4 00 00
	00 00		 mov	 DWORD PTR _i$[ebp], 0
  000ab	eb 09		 jmp	 SHORT $LN4@BattleButt
$LN2@BattleButt:
  000ad	8b 45 f4	 mov	 eax, DWORD PTR _i$[ebp]
  000b0	83 c0 01	 add	 eax, 1
  000b3	89 45 f4	 mov	 DWORD PTR _i$[ebp], eax
$LN4@BattleButt:
  000b6	83 7d f4 07	 cmp	 DWORD PTR _i$[ebp], 7
  000ba	7d 10		 jge	 SHORT $LN3@BattleButt
  000bc	8b 45 f4	 mov	 eax, DWORD PTR _i$[ebp]
  000bf	c7 04 85 00 00
	00 00 fe ff ff
	ff		 mov	 DWORD PTR ?battleMenuPetFontNo@@3PAHA[eax*4], -2 ; fffffffeH
  000ca	eb e1		 jmp	 SHORT $LN2@BattleButt
$LN3@BattleButt:

; 1569 : 
; 1570 : 				pActWnd = MakeWindowDisp( 376, 132, 256, 320, 0, -1 );

  000cc	6a ff		 push	 -1
  000ce	6a 00		 push	 0
  000d0	68 40 01 00 00	 push	 320			; 00000140H
  000d5	68 00 01 00 00	 push	 256			; 00000100H
  000da	68 84 00 00 00	 push	 132			; 00000084H
  000df	68 78 01 00 00	 push	 376			; 00000178H
  000e4	e8 00 00 00 00	 call	 ?MakeWindowDisp@@YAPAUaction@@HHHHHH@Z ; MakeWindowDisp
  000e9	83 c4 18	 add	 esp, 24			; 00000018H
  000ec	a3 00 00 00 00	 mov	 DWORD PTR ?pActWnd@@3PAUaction@@A, eax

; 1571 : 
; 1572 : 				battleButtonBak = 6;

  000f1	c7 05 00 00 00
	00 06 00 00 00	 mov	 DWORD PTR ?battleButtonBak@@3HA, 6 ; battleButtonBak

; 1573 : 
; 1574 : 				battleButtonBak2 = -1;

  000fb	c7 05 00 00 00
	00 ff ff ff ff	 mov	 DWORD PTR ?battleButtonBak2@@3HA, -1
$LN13@BattleButt:

; 1575 : 			}	
; 1576 : 		}
; 1577 : 
; 1578 : 		strcpy( OneLineInfoStr, "페트교체。");

  00105	68 00 00 00 00	 push	 OFFSET ??_C@_0L@CJKKBEMM@?F?d?F?$KO?$LB?$LD?C?$LM?$KB?$KD?$AA@
  0010a	68 00 00 00 00	 push	 OFFSET ?OneLineInfoStr@@3PADA ; OneLineInfoStr
  0010f	e8 00 00 00 00	 call	 _strcpy
  00114	83 c4 08	 add	 esp, 8
$LN11@BattleButt:

; 1579 : 	}
; 1580 : 
; 1581 : 	if( battleButtonFlag[ 6 ] == TRUE ){

  00117	b8 04 00 00 00	 mov	 eax, 4
  0011c	6b c8 06	 imul	 ecx, eax, 6
  0011f	83 b9 00 00 00
	00 01		 cmp	 DWORD PTR ?battleButtonFlag@@3PAHA[ecx], 1
  00126	0f 85 79 08 00
	00		 jne	 $LN1@BattleButt

; 1582 : 		if( pActWnd != NULL ){

  0012c	83 3d 00 00 00
	00 00		 cmp	 DWORD PTR ?pActWnd@@3PAUaction@@A, 0
  00133	0f 84 6c 08 00
	00		 je	 $LN1@BattleButt

; 1583 : 			if( pActWnd->hp > 0 ){

  00139	a1 00 00 00 00	 mov	 eax, DWORD PTR ?pActWnd@@3PAUaction@@A
  0013e	83 78 78 00	 cmp	 DWORD PTR [eax+120], 0
  00142	0f 8e 5d 08 00
	00		 jle	 $LN1@BattleButt

; 1584 : 				int x = ((WINDOW_DISP*)pActWnd->pYobi)->mx;

  00148	a1 00 00 00 00	 mov	 eax, DWORD PTR ?pActWnd@@3PAUaction@@A
  0014d	8b 48 0c	 mov	 ecx, DWORD PTR [eax+12]
  00150	8b 51 14	 mov	 edx, DWORD PTR [ecx+20]
  00153	89 95 80 fe ff
	ff		 mov	 DWORD PTR _x$6[ebp], edx

; 1585 : 				int y = ((WINDOW_DISP*)pActWnd->pYobi)->my;

  00159	a1 00 00 00 00	 mov	 eax, DWORD PTR ?pActWnd@@3PAUaction@@A
  0015e	8b 48 0c	 mov	 ecx, DWORD PTR [eax+12]
  00161	8b 51 18	 mov	 edx, DWORD PTR [ecx+24]
  00164	89 95 74 fe ff
	ff		 mov	 DWORD PTR _y$5[ebp], edx

; 1586 : 				int offsetX = 0, offsetY = 0;

  0016a	c7 85 68 fe ff
	ff 00 00 00 00	 mov	 DWORD PTR _offsetX$4[ebp], 0
  00174	c7 85 5c fe ff
	ff 00 00 00 00	 mov	 DWORD PTR _offsetY$3[ebp], 0

; 1587 : 				int 召回offsetX = 0, 召回offsetY = 0;

  0017e	c7 85 50 fe ff
	ff 00 00 00 00	 mov	 DWORD PTR _ٻoffsetX$2[ebp], 0
  00188	c7 85 44 fe ff
	ff 00 00 00 00	 mov	 DWORD PTR _ٻoffsetY$1[ebp], 0

; 1588 : #ifdef 战斗5宠
; 1589 : 				offsetX = 230;

  00192	c7 85 68 fe ff
	ff e6 00 00 00	 mov	 DWORD PTR _offsetX$4[ebp], 230 ; 000000e6H

; 1590 : 				offsetY = 80;

  0019c	c7 85 5c fe ff
	ff 50 00 00 00	 mov	 DWORD PTR _offsetY$3[ebp], 80 ; 00000050H

; 1591 : 				召回offsetY = offsetY + 35;

  001a6	8b 85 5c fe ff
	ff		 mov	 eax, DWORD PTR _offsetY$3[ebp]
  001ac	83 c0 23	 add	 eax, 35			; 00000023H
  001af	89 85 44 fe ff
	ff		 mov	 DWORD PTR _ٻoffsetY$1[ebp], eax

; 1592 : #endif // 战斗5宠
; 1593 : 
; 1594 : 				StockDispBuffer(x - offsetX, y - offsetY-36, DISP_PRIO_MENU, CG_BTL_PET_CHANGE_WND, 1);//画背景图

  001b5	6a 01		 push	 1
  001b7	a1 00 00 00 00	 mov	 eax, DWORD PTR ?CG_BTL_PET_CHANGE_WND@@3HA ; CG_BTL_PET_CHANGE_WND
  001bc	50		 push	 eax
  001bd	6a 68		 push	 104			; 00000068H
  001bf	8b 8d 74 fe ff
	ff		 mov	 ecx, DWORD PTR _y$5[ebp]
  001c5	2b 8d 5c fe ff
	ff		 sub	 ecx, DWORD PTR _offsetY$3[ebp]
  001cb	83 e9 24	 sub	 ecx, 36			; 00000024H
  001ce	51		 push	 ecx
  001cf	8b 95 80 fe ff
	ff		 mov	 edx, DWORD PTR _x$6[ebp]
  001d5	2b 95 68 fe ff
	ff		 sub	 edx, DWORD PTR _offsetX$4[ebp]
  001db	52		 push	 edx
  001dc	e8 00 00 00 00	 call	 ?StockDispBuffer@@YAHHHEHH@Z ; StockDispBuffer
  001e1	83 c4 14	 add	 esp, 20			; 00000014H

; 1595 : 				if( mouse.onceState & MOUSE_LEFT_CRICK ){

  001e4	a1 2c 00 00 00	 mov	 eax, DWORD PTR ?mouse@@3UMOUSE@@A+44
