; Listing generated by Microsoft (R) Optimizing Compiler Version 19.00.24215.1 

	TITLE	C:\Users\Administrator\Desktop\????? ??\????? ??\Client Source Code\system\battleMap.cpp
	.686P
	.XMM
	include listing.inc
	.model	flat

INCLUDELIB MSVCRTD
INCLUDELIB OLDNAMES

PUBLIC	?RandBattleBg@@3HA				; RandBattleBg
PUBLIC	?BattleMapAdvance@@3HA				; BattleMapAdvance
PUBLIC	?BattleMapFile@@3PAPADA				; BattleMapFile
PUBLIC	??_C@_0BO@KHLNAKBP@data?2battleMap?2battle00?4sabex?$AA@ ; `string'
PUBLIC	??_C@_0BO@GLBHAKIB@data?2battleMap?2battle01?4sabex?$AA@ ; `string'
PUBLIC	??_C@_0BO@OFJIANGC@data?2battleMap?2battle02?4sabex?$AA@ ; `string'
PUBLIC	??_C@_0BO@CJDCANPM@data?2battleMap?2battle03?4sabex?$AA@ ; `string'
PUBLIC	??_C@_0BO@CDPHAEOF@data?2battleMap?2battle04?4sabex?$AA@ ; `string'
PUBLIC	??_C@_0BO@OPFNAEHL@data?2battleMap?2battle05?4sabex?$AA@ ; `string'
PUBLIC	??_C@_0BO@GBNCADJI@data?2battleMap?2battle06?4sabex?$AA@ ; `string'
PUBLIC	??_C@_0BO@KNHIADAG@data?2battleMap?2battle07?4sabex?$AA@ ; `string'
PUBLIC	??_C@_0BO@HEFIBBKK@data?2battleMap?2battle08?4sabex?$AA@ ; `string'
PUBLIC	??_C@_0BO@LIPCBBDE@data?2battleMap?2battle09?4sabex?$AA@ ; `string'
PUBLIC	??_C@_0BO@LAMGBOFM@data?2battleMap?2battle10?4sabex?$AA@ ; `string'
PUBLIC	??_C@_0BO@HMGMBOMC@data?2battleMap?2battle11?4sabex?$AA@ ; `string'
PUBLIC	??_C@_0BO@PCODBJCB@data?2battleMap?2battle12?4sabex?$AA@ ; `string'
PUBLIC	??_C@_0BO@DOEJBJLP@data?2battleMap?2battle13?4sabex?$AA@ ; `string'
PUBLIC	??_C@_0BO@DEIMBAKG@data?2battleMap?2battle14?4sabex?$AA@ ; `string'
PUBLIC	??_C@_0BO@PICGBADI@data?2battleMap?2battle15?4sabex?$AA@ ; `string'
PUBLIC	??_C@_0BO@HGKJBHNL@data?2battleMap?2battle16?4sabex?$AA@ ; `string'
PUBLIC	??_C@_0BO@LKADBHEF@data?2battleMap?2battle17?4sabex?$AA@ ; `string'
PUBLIC	??_C@_0BO@GDCDAFOJ@data?2battleMap?2battle18?4sabex?$AA@ ; `string'
PUBLIC	??_C@_0BO@KPIJAFHH@data?2battleMap?2battle19?4sabex?$AA@ ; `string'
PUBLIC	??_C@_0BO@IJELCCJJ@data?2battleMap?2battle20?4sabex?$AA@ ; `string'
PUBLIC	??_C@_0BO@EFOBCCAH@data?2battleMap?2battle21?4sabex?$AA@ ; `string'
PUBLIC	??_C@_0BO@MLGOCFOE@data?2battleMap?2battle22?4sabex?$AA@ ; `string'
PUBLIC	??_C@_0BO@HMECFHK@data?2battleMap?2battle23?4sabex?$AA@ ; `string'
PUBLIC	??_C@_0BO@NABCMGD@data?2battleMap?2battle24?4sabex?$AA@ ; `string'
PUBLIC	??_C@_0BO@MBKLCMPN@data?2battleMap?2battle25?4sabex?$AA@ ; `string'
PUBLIC	??_C@_0BO@EPCECLBO@data?2battleMap?2battle26?4sabex?$AA@ ; `string'
PUBLIC	??_C@_0BO@IDIOCLIA@data?2battleMap?2battle27?4sabex?$AA@ ; `string'
PUBLIC	??_C@_0BO@FKKODJCM@data?2battleMap?2battle28?4sabex?$AA@ ; `string'
PUBLIC	??_C@_0BO@JGAEDJLC@data?2battleMap?2battle29?4sabex?$AA@ ; `string'
PUBLIC	??_C@_0BO@JODADGNK@data?2battleMap?2battle30?4sabex?$AA@ ; `string'
PUBLIC	??_C@_0BO@FCJKDGEE@data?2battleMap?2battle31?4sabex?$AA@ ; `string'
PUBLIC	??_C@_0BO@NMBFDBKH@data?2battleMap?2battle32?4sabex?$AA@ ; `string'
PUBLIC	??_C@_0BO@BALPDBDJ@data?2battleMap?2battle33?4sabex?$AA@ ; `string'
PUBLIC	??_C@_0BO@BKHKDICA@data?2battleMap?2battle34?4sabex?$AA@ ; `string'
PUBLIC	??_C@_0BO@NGNADILO@data?2battleMap?2battle35?4sabex?$AA@ ; `string'
PUBLIC	??_C@_0BO@FIFPDPFN@data?2battleMap?2battle36?4sabex?$AA@ ; `string'
PUBLIC	??_C@_0BO@JEPFDPMD@data?2battleMap?2battle37?4sabex?$AA@ ; `string'
PUBLIC	??_C@_0BO@ENNFCNGP@data?2battleMap?2battle38?4sabex?$AA@ ; `string'
PUBLIC	??_C@_0BO@IBHPCNPB@data?2battleMap?2battle39?4sabex?$AA@ ; `string'
PUBLIC	??_C@_0BO@PKFBFLBD@data?2battleMap?2battle40?4sabex?$AA@ ; `string'
PUBLIC	??_C@_0BO@DGPLFLIN@data?2battleMap?2battle41?4sabex?$AA@ ; `string'
PUBLIC	??_C@_0BO@LIHEFMGO@data?2battleMap?2battle42?4sabex?$AA@ ; `string'
PUBLIC	??_C@_0BO@HENOFMPA@data?2battleMap?2battle43?4sabex?$AA@ ; `string'
PUBLIC	??_C@_0BO@HOBLFFOJ@data?2battleMap?2battle44?4sabex?$AA@ ; `string'
PUBLIC	??_C@_0BO@LCLBFFHH@data?2battleMap?2battle45?4sabex?$AA@ ; `string'
PUBLIC	??_C@_0BO@DMDOFCJE@data?2battleMap?2battle46?4sabex?$AA@ ; `string'
PUBLIC	??_C@_0BO@PAJEFCAK@data?2battleMap?2battle47?4sabex?$AA@ ; `string'
PUBLIC	??_C@_0BO@CJLEEAKG@data?2battleMap?2battle48?4sabex?$AA@ ; `string'
PUBLIC	??_C@_0BO@OFBOEADI@data?2battleMap?2battle49?4sabex?$AA@ ; `string'
PUBLIC	??_C@_0BO@ONCKEPFA@data?2battleMap?2battle50?4sabex?$AA@ ; `string'
PUBLIC	??_C@_0BO@CBIAEPMO@data?2battleMap?2battle51?4sabex?$AA@ ; `string'
PUBLIC	??_C@_0BO@KPAPEICN@data?2battleMap?2battle52?4sabex?$AA@ ; `string'
PUBLIC	??_C@_0BO@GDKFEILD@data?2battleMap?2battle53?4sabex?$AA@ ; `string'
PUBLIC	??_C@_0BO@GJGAEBKK@data?2battleMap?2battle54?4sabex?$AA@ ; `string'
PUBLIC	??_C@_0BO@KFMKEBDE@data?2battleMap?2battle55?4sabex?$AA@ ; `string'
PUBLIC	??_C@_0BO@CLEFEGNH@data?2battleMap?2battle56?4sabex?$AA@ ; `string'
PUBLIC	??_C@_0BO@OHOPEGEJ@data?2battleMap?2battle57?4sabex?$AA@ ; `string'
PUBLIC	??_C@_0BO@DOMPFEOF@data?2battleMap?2battle58?4sabex?$AA@ ; `string'
PUBLIC	??_C@_0BO@PCGFFEHL@data?2battleMap?2battle59?4sabex?$AA@ ; `string'
PUBLIC	??_C@_0BO@NEKHHDJF@data?2battleMap?2battle60?4sabex?$AA@ ; `string'
PUBLIC	??_C@_0BO@BIANHDAL@data?2battleMap?2battle61?4sabex?$AA@ ; `string'
PUBLIC	??_C@_0BO@JGICHEOI@data?2battleMap?2battle62?4sabex?$AA@ ; `string'
PUBLIC	??_C@_0BO@FKCIHEHG@data?2battleMap?2battle63?4sabex?$AA@ ; `string'
PUBLIC	??_C@_0BO@FAONHNGP@data?2battleMap?2battle64?4sabex?$AA@ ; `string'
PUBLIC	??_C@_0BO@JMEHHNPB@data?2battleMap?2battle65?4sabex?$AA@ ; `string'
PUBLIC	??_C@_0BO@BCMIHKBC@data?2battleMap?2battle66?4sabex?$AA@ ; `string'
PUBLIC	??_C@_0BO@NOGCHKIM@data?2battleMap?2battle67?4sabex?$AA@ ; `string'
PUBLIC	??_C@_0BO@HECGICA@data?2battleMap?2battle68?4sabex?$AA@ ; `string'
PUBLIC	??_C@_0BO@MLOIGILO@data?2battleMap?2battle69?4sabex?$AA@ ; `string'
PUBLIC	??_C@_0BO@MDNMGHNG@data?2battleMap?2battle70?4sabex?$AA@ ; `string'
PUBLIC	??_C@_0BO@PHGGHEI@data?2battleMap?2battle71?4sabex?$AA@ ; `string'
PUBLIC	??_C@_0BO@IBPJGAKL@data?2battleMap?2battle72?4sabex?$AA@ ; `string'
PUBLIC	??_C@_0BO@ENFDGADF@data?2battleMap?2battle73?4sabex?$AA@ ; `string'
PUBLIC	??_C@_0BO@EHJGGJCM@data?2battleMap?2battle74?4sabex?$AA@ ; `string'
PUBLIC	??_C@_0BO@ILDMGJLC@data?2battleMap?2battle75?4sabex?$AA@ ; `string'
PUBLIC	??_C@_0BO@FLDGOFB@data?2battleMap?2battle76?4sabex?$AA@ ; `string'
PUBLIC	??_C@_0BO@MJBJGOMP@data?2battleMap?2battle77?4sabex?$AA@ ; `string'
PUBLIC	??_C@_0BO@BADJHMGD@data?2battleMap?2battle78?4sabex?$AA@ ; `string'
PUBLIC	??_C@_0BO@NMJDHMPN@data?2battleMap?2battle79?4sabex?$AA@ ; `string'
PUBLIC	??_C@_0BO@BMGFKIAH@data?2battleMap?2battle80?4sabex?$AA@ ; `string'
PUBLIC	??_C@_0BO@NAMPKIJJ@data?2battleMap?2battle81?4sabex?$AA@ ; `string'
PUBLIC	??_C@_0BO@FOEAKPHK@data?2battleMap?2battle82?4sabex?$AA@ ; `string'
PUBLIC	??_C@_0BO@JCOKKPOE@data?2battleMap?2battle83?4sabex?$AA@ ; `string'
PUBLIC	??_C@_0BO@JICPKGPN@data?2battleMap?2battle84?4sabex?$AA@ ; `string'
PUBLIC	??_C@_0BO@FEIFKGGD@data?2battleMap?2battle85?4sabex?$AA@ ; `string'
PUBLIC	??_C@_0BO@NKAKKBIA@data?2battleMap?2battle86?4sabex?$AA@ ; `string'
PUBLIC	??_C@_0BO@BGKAKBBO@data?2battleMap?2battle87?4sabex?$AA@ ; `string'
PUBLIC	??_C@_0BO@MPIALDLC@data?2battleMap?2battle88?4sabex?$AA@ ; `string'
PUBLIC	??_C@_0BO@DCKLDCM@data?2battleMap?2battle89?4sabex?$AA@ ; `string'
PUBLIC	??_C@_0BO@LBOLMEE@data?2battleMap?2battle90?4sabex?$AA@ ; `string'
PUBLIC	??_C@_0BO@MHLELMNK@data?2battleMap?2battle91?4sabex?$AA@ ; `string'
PUBLIC	??_C@_0BO@EJDLLLDJ@data?2battleMap?2battle92?4sabex?$AA@ ; `string'
PUBLIC	??_C@_0BO@IFJBLLKH@data?2battleMap?2battle93?4sabex?$AA@ ; `string'
PUBLIC	??_C@_0BO@IPFELCLO@data?2battleMap?2battle94?4sabex?$AA@ ; `string'
PUBLIC	??_C@_0BO@EDPOLCCA@data?2battleMap?2battle95?4sabex?$AA@ ; `string'
PUBLIC	??_C@_0BO@MNHBLFMD@data?2battleMap?2battle96?4sabex?$AA@ ; `string'
PUBLIC	??_C@_0BO@BNLLFFN@data?2battleMap?2battle97?4sabex?$AA@ ; `string'
PUBLIC	??_C@_0BO@NIPLKHPB@data?2battleMap?2battle98?4sabex?$AA@ ; `string'
PUBLIC	??_C@_0BO@BEFBKHGP@data?2battleMap?2battle99?4sabex?$AA@ ; `string'
PUBLIC	??_C@_0BP@COCPFCIL@data?2battleMap?2battle100?4sabex?$AA@ ; `string'
PUBLIC	??_C@_0BP@OCIFFCBF@data?2battleMap?2battle101?4sabex?$AA@ ; `string'
PUBLIC	??_C@_0BP@GMAKFFPG@data?2battleMap?2battle102?4sabex?$AA@ ; `string'
PUBLIC	??_C@_0BP@KAKAFFGI@data?2battleMap?2battle103?4sabex?$AA@ ; `string'
PUBLIC	??_C@_0BP@KKGFFMHB@data?2battleMap?2battle104?4sabex?$AA@ ; `string'
PUBLIC	??_C@_0BP@GGMPFMOP@data?2battleMap?2battle105?4sabex?$AA@ ; `string'
PUBLIC	??_C@_0BP@OIEAFLAM@data?2battleMap?2battle106?4sabex?$AA@ ; `string'
PUBLIC	??_C@_0BP@CEOKFLJC@data?2battleMap?2battle107?4sabex?$AA@ ; `string'
PUBLIC	??_C@_0BP@PNMKEJDO@data?2battleMap?2battle108?4sabex?$AA@ ; `string'
PUBLIC	??_C@_0BP@DBGAEJKA@data?2battleMap?2battle109?4sabex?$AA@ ; `string'
PUBLIC	??_C@_0BP@DJFEEGMI@data?2battleMap?2battle110?4sabex?$AA@ ; `string'
PUBLIC	??_C@_0BP@PFPOEGFG@data?2battleMap?2battle111?4sabex?$AA@ ; `string'
PUBLIC	??_C@_0BP@HLHBEBLF@data?2battleMap?2battle112?4sabex?$AA@ ; `string'
PUBLIC	??_C@_0BP@LHNLEBCL@data?2battleMap?2battle113?4sabex?$AA@ ; `string'
PUBLIC	??_C@_0BP@LNBOEIDC@data?2battleMap?2battle114?4sabex?$AA@ ; `string'
PUBLIC	??_C@_0BP@HBLEEIKM@data?2battleMap?2battle115?4sabex?$AA@ ; `string'
PUBLIC	??_C@_0BP@PPDLEPEP@data?2battleMap?2battle116?4sabex?$AA@ ; `string'
PUBLIC	??_C@_0BP@DDJBEPNB@data?2battleMap?2battle117?4sabex?$AA@ ; `string'
PUBLIC	??_C@_0BP@OKLBFNHN@data?2battleMap?2battle118?4sabex?$AA@ ; `string'
PUBLIC	??_C@_0BP@CGBLFNOD@data?2battleMap?2battle119?4sabex?$AA@ ; `string'
PUBLIC	??_C@_0BP@NJHKAN@data?2battleMap?2battle120?4sabex?$AA@ ; `string'
PUBLIC	??_C@_0BP@MMHDHKJD@data?2battleMap?2battle121?4sabex?$AA@ ; `string'
PUBLIC	??_C@_0BP@ECPMHNHA@data?2battleMap?2battle122?4sabex?$AA@ ; `string'
PUBLIC	??_C@_0BP@IOFGHNOO@data?2battleMap?2battle123?4sabex?$AA@ ; `string'
PUBLIC	??_C@_0BP@IEJDHEPH@data?2battleMap?2battle124?4sabex?$AA@ ; `string'
PUBLIC	??_C@_0BP@EIDJHEGJ@data?2battleMap?2battle125?4sabex?$AA@ ; `string'
PUBLIC	??_C@_0BP@MGLGHDIK@data?2battleMap?2battle126?4sabex?$AA@ ; `string'
PUBLIC	??_C@_0BP@KBMHDBE@data?2battleMap?2battle127?4sabex?$AA@ ; `string'
PUBLIC	??_C@_0BP@NDDMGBLI@data?2battleMap?2battle128?4sabex?$AA@ ; `string'
PUBLIC	??_C@_0BP@BPJGGBCG@data?2battleMap?2battle129?4sabex?$AA@ ; `string'
PUBLIC	??_C@_0BP@BHKCGOEO@data?2battleMap?2battle130?4sabex?$AA@ ; `string'
PUBLIC	??_C@_0BP@NLAIGONA@data?2battleMap?2battle131?4sabex?$AA@ ; `string'
PUBLIC	??_C@_0BP@FFIHGJDD@data?2battleMap?2battle132?4sabex?$AA@ ; `string'
PUBLIC	??_C@_0BP@JJCNGJKN@data?2battleMap?2battle133?4sabex?$AA@ ; `string'
PUBLIC	??_C@_0BP@JDOIGALE@data?2battleMap?2battle134?4sabex?$AA@ ; `string'
PUBLIC	??_C@_0BP@FPECGACK@data?2battleMap?2battle135?4sabex?$AA@ ; `string'
PUBLIC	??_C@_0BP@NBMNGHMJ@data?2battleMap?2battle136?4sabex?$AA@ ; `string'
PUBLIC	??_C@_0BP@BNGHGHFH@data?2battleMap?2battle137?4sabex?$AA@ ; `string'
PUBLIC	??_C@_0BP@MEEHHFPL@data?2battleMap?2battle138?4sabex?$AA@ ; `string'
PUBLIC	??_C@_0BP@IONHFGF@data?2battleMap?2battle139?4sabex?$AA@ ; `string'
PUBLIC	??_C@_0BP@HDMDADIH@data?2battleMap?2battle140?4sabex?$AA@ ; `string'
PUBLIC	??_C@_0BP@LPGJADBJ@data?2battleMap?2battle141?4sabex?$AA@ ; `string'
PUBLIC	??_C@_0BP@DBOGAEPK@data?2battleMap?2battle142?4sabex?$AA@ ; `string'
PUBLIC	??_C@_0BP@PNEMAEGE@data?2battleMap?2battle143?4sabex?$AA@ ; `string'
PUBLIC	??_C@_0BP@PHIJANHN@data?2battleMap?2battle144?4sabex?$AA@ ; `string'
PUBLIC	??_C@_0BP@DLCDANOD@data?2battleMap?2battle145?4sabex?$AA@ ; `string'
PUBLIC	??_C@_0BP@LFKMAKAA@data?2battleMap?2battle146?4sabex?$AA@ ; `string'
PUBLIC	??_C@_0BP@HJAGAKJO@data?2battleMap?2battle147?4sabex?$AA@ ; `string'
PUBLIC	??_C@_0BP@KACGBIDC@data?2battleMap?2battle148?4sabex?$AA@ ; `string'
PUBLIC	??_C@_0BP@GMIMBIKM@data?2battleMap?2battle149?4sabex?$AA@ ; `string'
PUBLIC	??_C@_0BP@GELIBHME@data?2battleMap?2battle150?4sabex?$AA@ ; `string'
PUBLIC	??_C@_0BP@KIBCBHFK@data?2battleMap?2battle151?4sabex?$AA@ ; `string'
PUBLIC	??_C@_0BP@CGJNBALJ@data?2battleMap?2battle152?4sabex?$AA@ ; `string'
PUBLIC	??_C@_0BP@OKDHBACH@data?2battleMap?2battle153?4sabex?$AA@ ; `string'
PUBLIC	??_C@_0BP@OAPCBJDO@data?2battleMap?2battle154?4sabex?$AA@ ; `string'
PUBLIC	??_C@_0BP@CMFIBJKA@data?2battleMap?2battle155?4sabex?$AA@ ; `string'
PUBLIC	??_C@_0BP@KCNHBOED@data?2battleMap?2battle156?4sabex?$AA@ ; `string'
PUBLIC	??_C@_0BP@GOHNBONN@data?2battleMap?2battle157?4sabex?$AA@ ; `string'
PUBLIC	??_C@_0BP@LHFNAMHB@data?2battleMap?2battle158?4sabex?$AA@ ; `string'
PUBLIC	??_C@_0BP@HLPHAMOP@data?2battleMap?2battle159?4sabex?$AA@ ; `string'
PUBLIC	??_C@_0BP@FNDFCLAB@data?2battleMap?2battle160?4sabex?$AA@ ; `string'
PUBLIC	??_C@_0BP@JBJPCLJP@data?2battleMap?2battle161?4sabex?$AA@ ; `string'
PUBLIC	??_C@_0BP@BPBACMHM@data?2battleMap?2battle162?4sabex?$AA@ ; `string'
PUBLIC	??_C@_0BP@NDLKCMOC@data?2battleMap?2battle163?4sabex?$AA@ ; `string'
PUBLIC	??_C@_0BP@NJHPCFPL@data?2battleMap?2battle164?4sabex?$AA@ ; `string'
PUBLIC	??_C@_0BP@BFNFCFGF@data?2battleMap?2battle165?4sabex?$AA@ ; `string'
PUBLIC	??_C@_0BP@JLFKCCIG@data?2battleMap?2battle166?4sabex?$AA@ ; `string'
PUBLIC	??_C@_0BP@FHPACCBI@data?2battleMap?2battle167?4sabex?$AA@ ; `string'
PUBLIC	??_C@_0BP@IONADALE@data?2battleMap?2battle168?4sabex?$AA@ ; `string'
PUBLIC	??_C@_0BP@ECHKDACK@data?2battleMap?2battle169?4sabex?$AA@ ; `string'
PUBLIC	??_C@_0BP@EKEODPEC@data?2battleMap?2battle170?4sabex?$AA@ ; `string'
PUBLIC	??_C@_0BP@IGOEDPNM@data?2battleMap?2battle171?4sabex?$AA@ ; `string'
PUBLIC	??_C@_0BP@IGLDIDP@data?2battleMap?2battle172?4sabex?$AA@ ; `string'
PUBLIC	??_C@_0BP@MEMBDIKB@data?2battleMap?2battle173?4sabex?$AA@ ; `string'
PUBLIC	??_C@_0BP@MOAEDBLI@data?2battleMap?2battle174?4sabex?$AA@ ; `string'
PUBLIC	??_C@_0BP@CKODBCG@data?2battleMap?2battle175?4sabex?$AA@ ; `string'
PUBLIC	??_C@_0BP@IMCBDGMF@data?2battleMap?2battle176?4sabex?$AA@ ; `string'
PUBLIC	??_C@_0BP@EAILDGFL@data?2battleMap?2battle177?4sabex?$AA@ ; `string'
PUBLIC	??_C@_0BP@JJKLCEPH@data?2battleMap?2battle178?4sabex?$AA@ ; `string'
PUBLIC	??_C@_0BP@FFABCEGJ@data?2battleMap?2battle179?4sabex?$AA@ ; `string'
PUBLIC	??_C@_0BP@JFPHPAJD@data?2battleMap?2battle180?4sabex?$AA@ ; `string'
PUBLIC	??_C@_0BP@FJFNPAAN@data?2battleMap?2battle181?4sabex?$AA@ ; `string'
PUBLIC	??_C@_0BP@NHNCPHOO@data?2battleMap?2battle182?4sabex?$AA@ ; `string'
PUBLIC	??_C@_0BP@BLHIPHHA@data?2battleMap?2battle183?4sabex?$AA@ ; `string'
PUBLIC	??_C@_0BP@BBLNPOGJ@data?2battleMap?2battle184?4sabex?$AA@ ; `string'
PUBLIC	??_C@_0BP@NNBHPOPH@data?2battleMap?2battle185?4sabex?$AA@ ; `string'
PUBLIC	??_C@_0BP@FDJIPJBE@data?2battleMap?2battle186?4sabex?$AA@ ; `string'
PUBLIC	??_C@_0BP@JPDCPJIK@data?2battleMap?2battle187?4sabex?$AA@ ; `string'
PUBLIC	??_C@_0BP@EGBCOLCG@data?2battleMap?2battle188?4sabex?$AA@ ; `string'
PUBLIC	??_C@_0BP@IKLIOLLI@data?2battleMap?2battle189?4sabex?$AA@ ; `string'
PUBLIC	??_C@_0BP@ICIMOENA@data?2battleMap?2battle190?4sabex?$AA@ ; `string'
PUBLIC	??_C@_0BP@EOCGOEEO@data?2battleMap?2battle191?4sabex?$AA@ ; `string'
PUBLIC	??_C@_0BP@MAKJODKN@data?2battleMap?2battle192?4sabex?$AA@ ; `string'
PUBLIC	??_C@_0BP@MADODDD@data?2battleMap?2battle193?4sabex?$AA@ ; `string'
PUBLIC	??_C@_0BP@GMGOKCK@data?2battleMap?2battle194?4sabex?$AA@ ; `string'
PUBLIC	??_C@_0BP@MKGMOKLE@data?2battleMap?2battle195?4sabex?$AA@ ; `string'
PUBLIC	??_C@_0BP@EEODONFH@data?2battleMap?2battle196?4sabex?$AA@ ; `string'
PUBLIC	??_C@_0BP@IIEJONMJ@data?2battleMap?2battle197?4sabex?$AA@ ; `string'
PUBLIC	??_C@_0BP@FBGJPPGF@data?2battleMap?2battle198?4sabex?$AA@ ; `string'
PUBLIC	??_C@_0BP@JNMDPPPL@data?2battleMap?2battle199?4sabex?$AA@ ; `string'
PUBLIC	??_C@_0BP@MFBIOJII@data?2battleMap?2battle200?4sabex?$AA@ ; `string'
PUBLIC	??_C@_0BP@JLCOJBG@data?2battleMap?2battle201?4sabex?$AA@ ; `string'
PUBLIC	??_C@_0BP@IHDNOOPF@data?2battleMap?2battle202?4sabex?$AA@ ; `string'
PUBLIC	??_C@_0BP@ELJHOOGL@data?2battleMap?2battle203?4sabex?$AA@ ; `string'
PUBLIC	??_C@_0BP@EBFCOHHC@data?2battleMap?2battle204?4sabex?$AA@ ; `string'
PUBLIC	??_C@_0BP@INPIOHOM@data?2battleMap?2battle205?4sabex?$AA@ ; `string'
PUBLIC	??_C@_0BP@DHHOAAP@data?2battleMap?2battle206?4sabex?$AA@ ; `string'
PUBLIC	??_C@_0BP@MPNNOAJB@data?2battleMap?2battle207?4sabex?$AA@ ; `string'
PUBLIC	??_C@_0BP@BGPNPCDN@data?2battleMap?2battle208?4sabex?$AA@ ; `string'
PUBLIC	??_C@_0BP@NKFHPCKD@data?2battleMap?2battle209?4sabex?$AA@ ; `string'
PUBLIC	??_C@_0BP@NCGDPNML@data?2battleMap?2battle210?4sabex?$AA@ ; `string'
PUBLIC	??_C@_0BP@BOMJPNFF@data?2battleMap?2battle211?4sabex?$AA@ ; `string'
PUBLIC	??_C@_0BP@JAEGPKLG@data?2battleMap?2battle212?4sabex?$AA@ ; `string'
PUBLIC	??_C@_0BP@FMOMPKCI@data?2battleMap?2battle213?4sabex?$AA@ ; `string'
PUBLIC	??_C@_0BP@FGCJPDDB@data?2battleMap?2battle214?4sabex?$AA@ ; `string'
PUBLIC	??_C@_0BP@JKIDPDKP@data?2battleMap?2battle215?4sabex?$AA@ ; `string'
PUBLIC	??_C@_0BP@BEAMPEEM@data?2battleMap?2battle216?4sabex?$AA@ ; `string'
PUBLIC	??_C@_0BP@NIKGPENC@data?2battleMap?2battle217?4sabex?$AA@ ; `string'
PUBLIC	??_C@_0BP@BIGOGHO@data?2battleMap?2battle218?4sabex?$AA@ ; `string'
PUBLIC	??_C@_0BP@MNCMOGOA@data?2battleMap?2battle219?4sabex?$AA@ ; `string'
PUBLIC	?BattleMapNo@@3HA				; BattleMapNo
PUBLIC	?piyo_tbl@@3PAHA				; piyo_tbl
PUBLIC	?piyo_point@@3HA				; piyo_point
_BSS	SEGMENT
?RandBattleBg@@3HA DD 01H DUP (?)			; RandBattleBg
?BattleMapAdvance@@3HA DD 01H DUP (?)			; BattleMapAdvance
?BattleMapNo@@3HA DD 01H DUP (?)			; BattleMapNo
?piyo_point@@3HA DD 01H DUP (?)				; piyo_point
_BSS	ENDS
;	COMDAT ??_C@_0BP@MNCMOGOA@data?2battleMap?2battle219?4sabex?$AA@
CONST	SEGMENT
??_C@_0BP@MNCMOGOA@data?2battleMap?2battle219?4sabex?$AA@ DB 'data\battle'
	DB	'Map\battle219.sabex', 00H			; `string'
CONST	ENDS
;	COMDAT ??_C@_0BP@BIGOGHO@data?2battleMap?2battle218?4sabex?$AA@
CONST	SEGMENT
??_C@_0BP@BIGOGHO@data?2battleMap?2battle218?4sabex?$AA@ DB 'data\battleM'
	DB	'ap\battle218.sabex', 00H			; `string'
CONST	ENDS
;	COMDAT ??_C@_0BP@NIKGPENC@data?2battleMap?2battle217?4sabex?$AA@
CONST	SEGMENT
??_C@_0BP@NIKGPENC@data?2battleMap?2battle217?4sabex?$AA@ DB 'data\battle'
	DB	'Map\battle217.sabex', 00H			; `string'
CONST	ENDS
;	COMDAT ??_C@_0BP@BEAMPEEM@data?2battleMap?2battle216?4sabex?$AA@
CONST	SEGMENT
??_C@_0BP@BEAMPEEM@data?2battleMap?2battle216?4sabex?$AA@ DB 'data\battle'
	DB	'Map\battle216.sabex', 00H			; `string'
CONST	ENDS
;	COMDAT ??_C@_0BP@JKIDPDKP@data?2battleMap?2battle215?4sabex?$AA@
CONST	SEGMENT
??_C@_0BP@JKIDPDKP@data?2battleMap?2battle215?4sabex?$AA@ DB 'data\battle'
	DB	'Map\battle215.sabex', 00H			; `string'
CONST	ENDS
;	COMDAT ??_C@_0BP@FGCJPDDB@data?2battleMap?2battle214?4sabex?$AA@
CONST	SEGMENT
??_C@_0BP@FGCJPDDB@data?2battleMap?2battle214?4sabex?$AA@ DB 'data\battle'
	DB	'Map\battle214.sabex', 00H			; `string'
CONST	ENDS
;	COMDAT ??_C@_0BP@FMOMPKCI@data?2battleMap?2battle213?4sabex?$AA@
CONST	SEGMENT
??_C@_0BP@FMOMPKCI@data?2battleMap?2battle213?4sabex?$AA@ DB 'data\battle'
	DB	'Map\battle213.sabex', 00H			; `string'
CONST	ENDS
;	COMDAT ??_C@_0BP@JAEGPKLG@data?2battleMap?2battle212?4sabex?$AA@
CONST	SEGMENT
??_C@_0BP@JAEGPKLG@data?2battleMap?2battle212?4sabex?$AA@ DB 'data\battle'
	DB	'Map\battle212.sabex', 00H			; `string'
CONST	ENDS
;	COMDAT ??_C@_0BP@BOMJPNFF@data?2battleMap?2battle211?4sabex?$AA@
CONST	SEGMENT
??_C@_0BP@BOMJPNFF@data?2battleMap?2battle211?4sabex?$AA@ DB 'data\battle'
	DB	'Map\battle211.sabex', 00H			; `string'
CONST	ENDS
;	COMDAT ??_C@_0BP@NCGDPNML@data?2battleMap?2battle210?4sabex?$AA@
CONST	SEGMENT
??_C@_0BP@NCGDPNML@data?2battleMap?2battle210?4sabex?$AA@ DB 'data\battle'
	DB	'Map\battle210.sabex', 00H			; `string'
CONST	ENDS
;	COMDAT ??_C@_0BP@NKFHPCKD@data?2battleMap?2battle209?4sabex?$AA@
CONST	SEGMENT
??_C@_0BP@NKFHPCKD@data?2battleMap?2battle209?4sabex?$AA@ DB 'data\battle'
	DB	'Map\battle209.sabex', 00H			; `string'
CONST	ENDS
;	COMDAT ??_C@_0BP@BGPNPCDN@data?2battleMap?2battle208?4sabex?$AA@
CONST	SEGMENT
??_C@_0BP@BGPNPCDN@data?2battleMap?2battle208?4sabex?$AA@ DB 'data\battle'
	DB	'Map\battle208.sabex', 00H			; `string'
CONST	ENDS
;	COMDAT ??_C@_0BP@MPNNOAJB@data?2battleMap?2battle207?4sabex?$AA@
CONST	SEGMENT
??_C@_0BP@MPNNOAJB@data?2battleMap?2battle207?4sabex?$AA@ DB 'data\battle'
	DB	'Map\battle207.sabex', 00H			; `string'
CONST	ENDS
;	COMDAT ??_C@_0BP@DHHOAAP@data?2battleMap?2battle206?4sabex?$AA@
CONST	SEGMENT
??_C@_0BP@DHHOAAP@data?2battleMap?2battle206?4sabex?$AA@ DB 'data\battleM'
	DB	'ap\battle206.sabex', 00H			; `string'
CONST	ENDS
;	COMDAT ??_C@_0BP@INPIOHOM@data?2battleMap?2battle205?4sabex?$AA@
CONST	SEGMENT
??_C@_0BP@INPIOHOM@data?2battleMap?2battle205?4sabex?$AA@ DB 'data\battle'
	DB	'Map\battle205.sabex', 00H			; `string'
CONST	ENDS
;	COMDAT ??_C@_0BP@EBFCOHHC@data?2battleMap?2battle204?4sabex?$AA@
CONST	SEGMENT
??_C@_0BP@EBFCOHHC@data?2battleMap?2battle204?4sabex?$AA@ DB 'data\battle'
	DB	'Map\battle204.sabex', 00H			; `string'
CONST	ENDS
;	COMDAT ??_C@_0BP@ELJHOOGL@data?2battleMap?2battle203?4sabex?$AA@
CONST	SEGMENT
??_C@_0BP@ELJHOOGL@data?2battleMap?2battle203?4sabex?$AA@ DB 'data\battle'
	DB	'Map\battle203.sabex', 00H			; `string'
CONST	ENDS
;	COMDAT ??_C@_0BP@IHDNOOPF@data?2battleMap?2battle202?4sabex?$AA@
CONST	SEGMENT
??_C@_0BP@IHDNOOPF@data?2battleMap?2battle202?4sabex?$AA@ DB 'data\battle'
	DB	'Map\battle202.sabex', 00H			; `string'
CONST	ENDS
;	COMDAT ??_C@_0BP@JLCOJBG@data?2battleMap?2battle201?4sabex?$AA@
CONST	SEGMENT
??_C@_0BP@JLCOJBG@data?2battleMap?2battle201?4sabex?$AA@ DB 'data\battleM'
	DB	'ap\battle201.sabex', 00H			; `string'
CONST	ENDS
;	COMDAT ??_C@_0BP@MFBIOJII@data?2battleMap?2battle200?4sabex?$AA@
CONST	SEGMENT
??_C@_0BP@MFBIOJII@data?2battleMap?2battle200?4sabex?$AA@ DB 'data\battle'
	DB	'Map\battle200.sabex', 00H			; `string'
CONST	ENDS
;	COMDAT ??_C@_0BP@JNMDPPPL@data?2battleMap?2battle199?4sabex?$AA@
CONST	SEGMENT
??_C@_0BP@JNMDPPPL@data?2battleMap?2battle199?4sabex?$AA@ DB 'data\battle'
	DB	'Map\battle199.sabex', 00H			; `string'
CONST	ENDS
;	COMDAT ??_C@_0BP@FBGJPPGF@data?2battleMap?2battle198?4sabex?$AA@
CONST	SEGMENT
??_C@_0BP@FBGJPPGF@data?2battleMap?2battle198?4sabex?$AA@ DB 'data\battle'
	DB	'Map\battle198.sabex', 00H			; `string'
CONST	ENDS
;	COMDAT ??_C@_0BP@IIEJONMJ@data?2battleMap?2battle197?4sabex?$AA@
CONST	SEGMENT
??_C@_0BP@IIEJONMJ@data?2battleMap?2battle197?4sabex?$AA@ DB 'data\battle'
	DB	'Map\battle197.sabex', 00H			; `string'
CONST	ENDS
;	COMDAT ??_C@_0BP@EEODONFH@data?2battleMap?2battle196?4sabex?$AA@
CONST	SEGMENT
??_C@_0BP@EEODONFH@data?2battleMap?2battle196?4sabex?$AA@ DB 'data\battle'
	DB	'Map\battle196.sabex', 00H			; `string'
CONST	ENDS
;	COMDAT ??_C@_0BP@MKGMOKLE@data?2battleMap?2battle195?4sabex?$AA@
CONST	SEGMENT
??_C@_0BP@MKGMOKLE@data?2battleMap?2battle195?4sabex?$AA@ DB 'data\battle'
	DB	'Map\battle195.sabex', 00H			; `string'
CONST	ENDS
;	COMDAT ??_C@_0BP@GMGOKCK@data?2battleMap?2battle194?4sabex?$AA@
CONST	SEGMENT
??_C@_0BP@GMGOKCK@data?2battleMap?2battle194?4sabex?$AA@ DB 'data\battleM'
	DB	'ap\battle194.sabex', 00H			; `string'
CONST	ENDS
;	COMDAT ??_C@_0BP@MADODDD@data?2battleMap?2battle193?4sabex?$AA@
CONST	SEGMENT
??_C@_0BP@MADODDD@data?2battleMap?2battle193?4sabex?$AA@ DB 'data\battleM'
	DB	'ap\battle193.sabex', 00H			; `string'
CONST	ENDS
;	COMDAT ??_C@_0BP@MAKJODKN@data?2battleMap?2battle192?4sabex?$AA@
CONST	SEGMENT
??_C@_0BP@MAKJODKN@data?2battleMap?2battle192?4sabex?$AA@ DB 'data\battle'
	DB	'Map\battle192.sabex', 00H			; `string'
CONST	ENDS
;	COMDAT ??_C@_0BP@EOCGOEEO@data?2battleMap?2battle191?4sabex?$AA@
CONST	SEGMENT
??_C@_0BP@EOCGOEEO@data?2battleMap?2battle191?4sabex?$AA@ DB 'data\battle'
	DB	'Map\battle191.sabex', 00H			; `string'
CONST	ENDS
;	COMDAT ??_C@_0BP@ICIMOENA@data?2battleMap?2battle190?4sabex?$AA@
CONST	SEGMENT
??_C@_0BP@ICIMOENA@data?2battleMap?2battle190?4sabex?$AA@ DB 'data\battle'
	DB	'Map\battle190.sabex', 00H			; `string'
CONST	ENDS
;	COMDAT ??_C@_0BP@IKLIOLLI@data?2battleMap?2battle189?4sabex?$AA@
CONST	SEGMENT
??_C@_0BP@IKLIOLLI@data?2battleMap?2battle189?4sabex?$AA@ DB 'data\battle'
	DB	'Map\battle189.sabex', 00H			; `string'
CONST	ENDS
;	COMDAT ??_C@_0BP@EGBCOLCG@data?2battleMap?2battle188?4sabex?$AA@
CONST	SEGMENT
??_C@_0BP@EGBCOLCG@data?2battleMap?2battle188?4sabex?$AA@ DB 'data\battle'
	DB	'Map\battle188.sabex', 00H			; `string'
CONST	ENDS
;	COMDAT ??_C@_0BP@JPDCPJIK@data?2battleMap?2battle187?4sabex?$AA@
CONST	SEGMENT
??_C@_0BP@JPDCPJIK@data?2battleMap?2battle187?4sabex?$AA@ DB 'data\battle'
	DB	'Map\battle187.sabex', 00H			; `string'
CONST	ENDS
;	COMDAT ??_C@_0BP@FDJIPJBE@data?2battleMap?2battle186?4sabex?$AA@
CONST	SEGMENT
??_C@_0BP@FDJIPJBE@data?2battleMap?2battle186?4sabex?$AA@ DB 'data\battle'
	DB	'Map\battle186.sabex', 00H			; `string'
CONST	ENDS
;	COMDAT ??_C@_0BP@NNBHPOPH@data?2battleMap?2battle185?4sabex?$AA@
CONST	SEGMENT
??_C@_0BP@NNBHPOPH@data?2battleMap?2battle185?4sabex?$AA@ DB 'data\battle'
	DB	'Map\battle185.sabex', 00H			; `string'
CONST	ENDS
;	COMDAT ??_C@_0BP@BBLNPOGJ@data?2battleMap?2battle184?4sabex?$AA@
CONST	SEGMENT
??_C@_0BP@BBLNPOGJ@data?2battleMap?2battle184?4sabex?$AA@ DB 'data\battle'
	DB	'Map\battle184.sabex', 00H			; `string'
CONST	ENDS
;	COMDAT ??_C@_0BP@BLHIPHHA@data?2battleMap?2battle183?4sabex?$AA@
CONST	SEGMENT
??_C@_0BP@BLHIPHHA@data?2battleMap?2battle183?4sabex?$AA@ DB 'data\battle'
	DB	'Map\battle183.sabex', 00H			; `string'
CONST	ENDS
;	COMDAT ??_C@_0BP@NHNCPHOO@data?2battleMap?2battle182?4sabex?$AA@
CONST	SEGMENT
??_C@_0BP@NHNCPHOO@data?2battleMap?2battle182?4sabex?$AA@ DB 'data\battle'
	DB	'Map\battle182.sabex', 00H			; `string'
CONST	ENDS
;	COMDAT ??_C@_0BP@FJFNPAAN@data?2battleMap?2battle181?4sabex?$AA@
CONST	SEGMENT
??_C@_0BP@FJFNPAAN@data?2battleMap?2battle181?4sabex?$AA@ DB 'data\battle'
	DB	'Map\battle181.sabex', 00H			; `string'
CONST	ENDS
;	COMDAT ??_C@_0BP@JFPHPAJD@data?2battleMap?2battle180?4sabex?$AA@
CONST	SEGMENT
??_C@_0BP@JFPHPAJD@data?2battleMap?2battle180?4sabex?$AA@ DB 'data\battle'
	DB	'Map\battle180.sabex', 00H			; `string'
CONST	ENDS
;	COMDAT ??_C@_0BP@FFABCEGJ@data?2battleMap?2battle179?4sabex?$AA@
CONST	SEGMENT
??_C@_0BP@FFABCEGJ@data?2battleMap?2battle179?4sabex?$AA@ DB 'data\battle'
	DB	'Map\battle179.sabex', 00H			; `string'
CONST	ENDS
;	COMDAT ??_C@_0BP@JJKLCEPH@data?2battleMap?2battle178?4sabex?$AA@
CONST	SEGMENT
??_C@_0BP@JJKLCEPH@data?2battleMap?2battle178?4sabex?$AA@ DB 'data\battle'
	DB	'Map\battle178.sabex', 00H			; `string'
CONST	ENDS
;	COMDAT ??_C@_0BP@EAILDGFL@data?2battleMap?2battle177?4sabex?$AA@
CONST	SEGMENT
??_C@_0BP@EAILDGFL@data?2battleMap?2battle177?4sabex?$AA@ DB 'data\battle'
	DB	'Map\battle177.sabex', 00H			; `string'
CONST	ENDS
;	COMDAT ??_C@_0BP@IMCBDGMF@data?2battleMap?2battle176?4sabex?$AA@
CONST	SEGMENT
??_C@_0BP@IMCBDGMF@data?2battleMap?2battle176?4sabex?$AA@ DB 'data\battle'
	DB	'Map\battle176.sabex', 00H			; `string'
CONST	ENDS
;	COMDAT ??_C@_0BP@CKODBCG@data?2battleMap?2battle175?4sabex?$AA@
CONST	SEGMENT
??_C@_0BP@CKODBCG@data?2battleMap?2battle175?4sabex?$AA@ DB 'data\battleM'
	DB	'ap\battle175.sabex', 00H			; `string'
CONST	ENDS
;	COMDAT ??_C@_0BP@MOAEDBLI@data?2battleMap?2battle174?4sabex?$AA@
CONST	SEGMENT
??_C@_0BP@MOAEDBLI@data?2battleMap?2battle174?4sabex?$AA@ DB 'data\battle'
	DB	'Map\battle174.sabex', 00H			; `string'
CONST	ENDS
;	COMDAT ??_C@_0BP@MEMBDIKB@data?2battleMap?2battle173?4sabex?$AA@
CONST	SEGMENT
??_C@_0BP@MEMBDIKB@data?2battleMap?2battle173?4sabex?$AA@ DB 'data\battle'
	DB	'Map\battle173.sabex', 00H			; `string'
CONST	ENDS
;	COMDAT ??_C@_0BP@IGLDIDP@data?2battleMap?2battle172?4sabex?$AA@
CONST	SEGMENT
??_C@_0BP@IGLDIDP@data?2battleMap?2battle172?4sabex?$AA@ DB 'data\battleM'
	DB	'ap\battle172.sabex', 00H			; `string'
CONST	ENDS
;	COMDAT ??_C@_0BP@IGOEDPNM@data?2battleMap?2battle171?4sabex?$AA@
CONST	SEGMENT
??_C@_0BP@IGOEDPNM@data?2battleMap?2battle171?4sabex?$AA@ DB 'data\battle'
	DB	'Map\battle171.sabex', 00H			; `string'
CONST	ENDS
;	COMDAT ??_C@_0BP@EKEODPEC@data?2battleMap?2battle170?4sabex?$AA@
CONST	SEGMENT
??_C@_0BP@EKEODPEC@data?2battleMap?2battle170?4sabex?$AA@ DB 'data\battle'
	DB	'Map\battle170.sabex', 00H			; `string'
CONST	ENDS
;	COMDAT ??_C@_0BP@ECHKDACK@data?2battleMap?2battle169?4sabex?$AA@
CONST	SEGMENT
??_C@_0BP@ECHKDACK@data?2battleMap?2battle169?4sabex?$AA@ DB 'data\battle'
	DB	'Map\battle169.sabex', 00H			; `string'
CONST	ENDS
;	COMDAT ??_C@_0BP@IONADALE@data?2battleMap?2battle168?4sabex?$AA@
CONST	SEGMENT
??_C@_0BP@IONADALE@data?2battleMap?2battle168?4sabex?$AA@ DB 'data\battle'
	DB	'Map\battle168.sabex', 00H			; `string'
CONST	ENDS
;	COMDAT ??_C@_0BP@FHPACCBI@data?2battleMap?2battle167?4sabex?$AA@
CONST	SEGMENT
??_C@_0BP@FHPACCBI@data?2battleMap?2battle167?4sabex?$AA@ DB 'data\battle'
	DB	'Map\battle167.sabex', 00H			; `string'
CONST	ENDS
;	COMDAT ??_C@_0BP@JLFKCCIG@data?2battleMap?2battle166?4sabex?$AA@
CONST	SEGMENT
??_C@_0BP@JLFKCCIG@data?2battleMap?2battle166?4sabex?$AA@ DB 'data\battle'
	DB	'Map\battle166.sabex', 00H			; `string'
CONST	ENDS
;	COMDAT ??_C@_0BP@BFNFCFGF@data?2battleMap?2battle165?4sabex?$AA@
CONST	SEGMENT
??_C@_0BP@BFNFCFGF@data?2battleMap?2battle165?4sabex?$AA@ DB 'data\battle'
	DB	'Map\battle165.sabex', 00H			; `string'
CONST	ENDS
;	COMDAT ??_C@_0BP@NJHPCFPL@data?2battleMap?2battle164?4sabex?$AA@
CONST	SEGMENT
??_C@_0BP@NJHPCFPL@data?2battleMap?2battle164?4sabex?$AA@ DB 'data\battle'
	DB	'Map\battle164.sabex', 00H			; `string'
CONST	ENDS
;	COMDAT ??_C@_0BP@NDLKCMOC@data?2battleMap?2battle163?4sabex?$AA@
CONST	SEGMENT
??_C@_0BP@NDLKCMOC@data?2battleMap?2battle163?4sabex?$AA@ DB 'data\battle'
	DB	'Map\battle163.sabex', 00H			; `string'
CONST	ENDS
;	COMDAT ??_C@_0BP@BPBACMHM@data?2battleMap?2battle162?4sabex?$AA@
CONST	SEGMENT
??_C@_0BP@BPBACMHM@data?2battleMap?2battle162?4sabex?$AA@ DB 'data\battle'
	DB	'Map\battle162.sabex', 00H			; `string'
CONST	ENDS
;	COMDAT ??_C@_0BP@JBJPCLJP@data?2battleMap?2battle161?4sabex?$AA@
CONST	SEGMENT
??_C@_0BP@JBJPCLJP@data?2battleMap?2battle161?4sabex?$AA@ DB 'data\battle'
	DB	'Map\battle161.sabex', 00H			; `string'
CONST	ENDS
;	COMDAT ??_C@_0BP@FNDFCLAB@data?2battleMap?2battle160?4sabex?$AA@
CONST	SEGMENT
??_C@_0BP@FNDFCLAB@data?2battleMap?2battle160?4sabex?$AA@ DB 'data\battle'
	DB	'Map\battle160.sabex', 00H			; `string'
CONST	ENDS
;	COMDAT ??_C@_0BP@HLPHAMOP@data?2battleMap?2battle159?4sabex?$AA@
CONST	SEGMENT
??_C@_0BP@HLPHAMOP@data?2battleMap?2battle159?4sabex?$AA@ DB 'data\battle'
	DB	'Map\battle159.sabex', 00H			; `string'
CONST	ENDS
;	COMDAT ??_C@_0BP@LHFNAMHB@data?2battleMap?2battle158?4sabex?$AA@
CONST	SEGMENT
??_C@_0BP@LHFNAMHB@data?2battleMap?2battle158?4sabex?$AA@ DB 'data\battle'
	DB	'Map\battle158.sabex', 00H			; `string'
CONST	ENDS
;	COMDAT ??_C@_0BP@GOHNBONN@data?2battleMap?2battle157?4sabex?$AA@
CONST	SEGMENT
??_C@_0BP@GOHNBONN@data?2battleMap?2battle157?4sabex?$AA@ DB 'data\battle'
	DB	'Map\battle157.sabex', 00H			; `string'
CONST	ENDS
;	COMDAT ??_C@_0BP@KCNHBOED@data?2battleMap?2battle156?4sabex?$AA@
CONST	SEGMENT
??_C@_0BP@KCNHBOED@data?2battleMap?2battle156?4sabex?$AA@ DB 'data\battle'
	DB	'Map\battle156.sabex', 00H			; `string'
CONST	ENDS
;	COMDAT ??_C@_0BP@CMFIBJKA@data?2battleMap?2battle155?4sabex?$AA@
CONST	SEGMENT
??_C@_0BP@CMFIBJKA@data?2battleMap?2battle155?4sabex?$AA@ DB 'data\battle'
	DB	'Map\battle155.sabex', 00H			; `string'
CONST	ENDS
;	COMDAT ??_C@_0BP@OAPCBJDO@data?2battleMap?2battle154?4sabex?$AA@
CONST	SEGMENT
??_C@_0BP@OAPCBJDO@data?2battleMap?2battle154?4sabex?$AA@ DB 'data\battle'
	DB	'Map\battle154.sabex', 00H			; `string'
CONST	ENDS
;	COMDAT ??_C@_0BP@OKDHBACH@data?2battleMap?2battle153?4sabex?$AA@
CONST	SEGMENT
??_C@_0BP@OKDHBACH@data?2battleMap?2battle153?4sabex?$AA@ DB 'data\battle'
	DB	'Map\battle153.sabex', 00H			; `string'
CONST	ENDS
;	COMDAT ??_C@_0BP@CGJNBALJ@data?2battleMap?2battle152?4sabex?$AA@
CONST	SEGMENT
??_C@_0BP@CGJNBALJ@data?2battleMap?2battle152?4sabex?$AA@ DB 'data\battle'
	DB	'Map\battle152.sabex', 00H			; `string'
CONST	ENDS
;	COMDAT ??_C@_0BP@KIBCBHFK@data?2battleMap?2battle151?4sabex?$AA@
CONST	SEGMENT
??_C@_0BP@KIBCBHFK@data?2battleMap?2battle151?4sabex?$AA@ DB 'data\battle'
	DB	'Map\battle151.sabex', 00H			; `string'
CONST	ENDS
;	COMDAT ??_C@_0BP@GELIBHME@data?2battleMap?2battle150?4sabex?$AA@
CONST	SEGMENT
??_C@_0BP@GELIBHME@data?2battleMap?2battle150?4sabex?$AA@ DB 'data\battle'
	DB	'Map\battle150.sabex', 00H			; `string'
CONST	ENDS
;	COMDAT ??_C@_0BP@GMIMBIKM@data?2battleMap?2battle149?4sabex?$AA@
CONST	SEGMENT
??_C@_0BP@GMIMBIKM@data?2battleMap?2battle149?4sabex?$AA@ DB 'data\battle'
	DB	'Map\battle149.sabex', 00H			; `string'
CONST	ENDS
;	COMDAT ??_C@_0BP@KACGBIDC@data?2battleMap?2battle148?4sabex?$AA@
CONST	SEGMENT
??_C@_0BP@KACGBIDC@data?2battleMap?2battle148?4sabex?$AA@ DB 'data\battle'
	DB	'Map\battle148.sabex', 00H			; `string'
CONST	ENDS
;	COMDAT ??_C@_0BP@HJAGAKJO@data?2battleMap?2battle147?4sabex?$AA@
CONST	SEGMENT
??_C@_0BP@HJAGAKJO@data?2battleMap?2battle147?4sabex?$AA@ DB 'data\battle'
	DB	'Map\battle147.sabex', 00H			; `string'
CONST	ENDS
;	COMDAT ??_C@_0BP@LFKMAKAA@data?2battleMap?2battle146?4sabex?$AA@
CONST	SEGMENT
??_C@_0BP@LFKMAKAA@data?2battleMap?2battle146?4sabex?$AA@ DB 'data\battle'
	DB	'Map\battle146.sabex', 00H			; `string'
CONST	ENDS
;	COMDAT ??_C@_0BP@DLCDANOD@data?2battleMap?2battle145?4sabex?$AA@
CONST	SEGMENT
??_C@_0BP@DLCDANOD@data?2battleMap?2battle145?4sabex?$AA@ DB 'data\battle'
	DB	'Map\battle145.sabex', 00H			; `string'
CONST	ENDS
;	COMDAT ??_C@_0BP@PHIJANHN@data?2battleMap?2battle144?4sabex?$AA@
CONST	SEGMENT
??_C@_0BP@PHIJANHN@data?2battleMap?2battle144?4sabex?$AA@ DB 'data\battle'
	DB	'Map\battle144.sabex', 00H			; `string'
CONST	ENDS
;	COMDAT ??_C@_0BP@PNEMAEGE@data?2battleMap?2battle143?4sabex?$AA@
CONST	SEGMENT
??_C@_0BP@PNEMAEGE@data?2battleMap?2battle143?4sabex?$AA@ DB 'data\battle'
	DB	'Map\battle143.sabex', 00H			; `string'
CONST	ENDS
;	COMDAT ??_C@_0BP@DBOGAEPK@data?2battleMap?2battle142?4sabex?$AA@
CONST	SEGMENT
??_C@_0BP@DBOGAEPK@data?2battleMap?2battle142?4sabex?$AA@ DB 'data\battle'
	DB	'Map\battle142.sabex', 00H			; `string'
CONST	ENDS
;	COMDAT ??_C@_0BP@LPGJADBJ@data?2battleMap?2battle141?4sabex?$AA@
CONST	SEGMENT
??_C@_0BP@LPGJADBJ@data?2battleMap?2battle141?4sabex?$AA@ DB 'data\battle'
	DB	'Map\battle141.sabex', 00H			; `string'
CONST	ENDS
;	COMDAT ??_C@_0BP@HDMDADIH@data?2battleMap?2battle140?4sabex?$AA@
CONST	SEGMENT
??_C@_0BP@HDMDADIH@data?2battleMap?2battle140?4sabex?$AA@ DB 'data\battle'
	DB	'Map\battle140.sabex', 00H			; `string'
CONST	ENDS
;	COMDAT ??_C@_0BP@IONHFGF@data?2battleMap?2battle139?4sabex?$AA@
CONST	SEGMENT
??_C@_0BP@IONHFGF@data?2battleMap?2battle139?4sabex?$AA@ DB 'data\battleM'
	DB	'ap\battle139.sabex', 00H			; `string'
CONST	ENDS
;	COMDAT ??_C@_0BP@MEEHHFPL@data?2battleMap?2battle138?4sabex?$AA@
CONST	SEGMENT
??_C@_0BP@MEEHHFPL@data?2battleMap?2battle138?4sabex?$AA@ DB 'data\battle'
	DB	'Map\battle138.sabex', 00H			; `string'
CONST	ENDS
;	COMDAT ??_C@_0BP@BNGHGHFH@data?2battleMap?2battle137?4sabex?$AA@
CONST	SEGMENT
??_C@_0BP@BNGHGHFH@data?2battleMap?2battle137?4sabex?$AA@ DB 'data\battle'
	DB	'Map\battle137.sabex', 00H			; `string'
CONST	ENDS
;	COMDAT ??_C@_0BP@NBMNGHMJ@data?2battleMap?2battle136?4sabex?$AA@
CONST	SEGMENT
??_C@_0BP@NBMNGHMJ@data?2battleMap?2battle136?4sabex?$AA@ DB 'data\battle'
	DB	'Map\battle136.sabex', 00H			; `string'
CONST	ENDS
;	COMDAT ??_C@_0BP@FPECGACK@data?2battleMap?2battle135?4sabex?$AA@
CONST	SEGMENT
??_C@_0BP@FPECGACK@data?2battleMap?2battle135?4sabex?$AA@ DB 'data\battle'
	DB	'Map\battle135.sabex', 00H			; `string'
CONST	ENDS
;	COMDAT ??_C@_0BP@JDOIGALE@data?2battleMap?2battle134?4sabex?$AA@
CONST	SEGMENT
??_C@_0BP@JDOIGALE@data?2battleMap?2battle134?4sabex?$AA@ DB 'data\battle'
	DB	'Map\battle134.sabex', 00H			; `string'
CONST	ENDS
;	COMDAT ??_C@_0BP@JJCNGJKN@data?2battleMap?2battle133?4sabex?$AA@
CONST	SEGMENT
??_C@_0BP@JJCNGJKN@data?2battleMap?2battle133?4sabex?$AA@ DB 'data\battle'
	DB	'Map\battle133.sabex', 00H			; `string'
CONST	ENDS
;	COMDAT ??_C@_0BP@FFIHGJDD@data?2battleMap?2battle132?4sabex?$AA@
CONST	SEGMENT
??_C@_0BP@FFIHGJDD@data?2battleMap?2battle132?4sabex?$AA@ DB 'data\battle'
	DB	'Map\battle132.sabex', 00H			; `string'
CONST	ENDS
;	COMDAT ??_C@_0BP@NLAIGONA@data?2battleMap?2battle131?4sabex?$AA@
CONST	SEGMENT
??_C@_0BP@NLAIGONA@data?2battleMap?2battle131?4sabex?$AA@ DB 'data\battle'
	DB	'Map\battle131.sabex', 00H			; `string'
CONST	ENDS
;	COMDAT ??_C@_0BP@BHKCGOEO@data?2battleMap?2battle130?4sabex?$AA@
CONST	SEGMENT
??_C@_0BP@BHKCGOEO@data?2battleMap?2battle130?4sabex?$AA@ DB 'data\battle'
	DB	'Map\battle130.sabex', 00H			; `string'
CONST	ENDS
;	COMDAT ??_C@_0BP@BPJGGBCG@data?2battleMap?2battle129?4sabex?$AA@
CONST	SEGMENT
??_C@_0BP@BPJGGBCG@data?2battleMap?2battle129?4sabex?$AA@ DB 'data\battle'
	DB	'Map\battle129.sabex', 00H			; `string'
CONST	ENDS
;	COMDAT ??_C@_0BP@NDDMGBLI@data?2battleMap?2battle128?4sabex?$AA@
CONST	SEGMENT
??_C@_0BP@NDDMGBLI@data?2battleMap?2battle128?4sabex?$AA@ DB 'data\battle'
	DB	'Map\battle128.sabex', 00H			; `string'
CONST	ENDS
;	COMDAT ??_C@_0BP@KBMHDBE@data?2battleMap?2battle127?4sabex?$AA@
CONST	SEGMENT
??_C@_0BP@KBMHDBE@data?2battleMap?2battle127?4sabex?$AA@ DB 'data\battleM'
	DB	'ap\battle127.sabex', 00H			; `string'
CONST	ENDS
;	COMDAT ??_C@_0BP@MGLGHDIK@data?2battleMap?2battle126?4sabex?$AA@
CONST	SEGMENT
??_C@_0BP@MGLGHDIK@data?2battleMap?2battle126?4sabex?$AA@ DB 'data\battle'
	DB	'Map\battle126.sabex', 00H			; `string'
CONST	ENDS
;	COMDAT ??_C@_0BP@EIDJHEGJ@data?2battleMap?2battle125?4sabex?$AA@
CONST	SEGMENT
??_C@_0BP@EIDJHEGJ@data?2battleMap?2battle125?4sabex?$AA@ DB 'data\battle'
	DB	'Map\battle125.sabex', 00H			; `string'
CONST	ENDS
;	COMDAT ??_C@_0BP@IEJDHEPH@data?2battleMap?2battle124?4sabex?$AA@
CONST	SEGMENT
??_C@_0BP@IEJDHEPH@data?2battleMap?2battle124?4sabex?$AA@ DB 'data\battle'
	DB	'Map\battle124.sabex', 00H			; `string'
CONST	ENDS
;	COMDAT ??_C@_0BP@IOFGHNOO@data?2battleMap?2battle123?4sabex?$AA@
CONST	SEGMENT
??_C@_0BP@IOFGHNOO@data?2battleMap?2battle123?4sabex?$AA@ DB 'data\battle'
	DB	'Map\battle123.sabex', 00H			; `string'
CONST	ENDS
;	COMDAT ??_C@_0BP@ECPMHNHA@data?2battleMap?2battle122?4sabex?$AA@
CONST	SEGMENT
??_C@_0BP@ECPMHNHA@data?2battleMap?2battle122?4sabex?$AA@ DB 'data\battle'
	DB	'Map\battle122.sabex', 00H			; `string'
CONST	ENDS
;	COMDAT ??_C@_0BP@MMHDHKJD@data?2battleMap?2battle121?4sabex?$AA@
CONST	SEGMENT
??_C@_0BP@MMHDHKJD@data?2battleMap?2battle121?4sabex?$AA@ DB 'data\battle'
	DB	'Map\battle121.sabex', 00H			; `string'
CONST	ENDS
;	COMDAT ??_C@_0BP@NJHKAN@data?2battleMap?2battle120?4sabex?$AA@
CONST	SEGMENT
??_C@_0BP@NJHKAN@data?2battleMap?2battle120?4sabex?$AA@ DB 'data\battleMa'
	DB	'p\battle120.sabex', 00H			; `string'
CONST	ENDS
;	COMDAT ??_C@_0BP@CGBLFNOD@data?2battleMap?2battle119?4sabex?$AA@
CONST	SEGMENT
??_C@_0BP@CGBLFNOD@data?2battleMap?2battle119?4sabex?$AA@ DB 'data\battle'
	DB	'Map\battle119.sabex', 00H			; `string'
CONST	ENDS
;	COMDAT ??_C@_0BP@OKLBFNHN@data?2battleMap?2battle118?4sabex?$AA@
CONST	SEGMENT
??_C@_0BP@OKLBFNHN@data?2battleMap?2battle118?4sabex?$AA@ DB 'data\battle'
	DB	'Map\battle118.sabex', 00H			; `string'
CONST	ENDS
;	COMDAT ??_C@_0BP@DDJBEPNB@data?2battleMap?2battle117?4sabex?$AA@
CONST	SEGMENT
??_C@_0BP@DDJBEPNB@data?2battleMap?2battle117?4sabex?$AA@ DB 'data\battle'
	DB	'Map\battle117.sabex', 00H			; `string'
CONST	ENDS
;	COMDAT ??_C@_0BP@PPDLEPEP@data?2battleMap?2battle116?4sabex?$AA@
CONST	SEGMENT
??_C@_0BP@PPDLEPEP@data?2battleMap?2battle116?4sabex?$AA@ DB 'data\battle'
	DB	'Map\battle116.sabex', 00H			; `string'
CONST	ENDS
;	COMDAT ??_C@_0BP@HBLEEIKM@data?2battleMap?2battle115?4sabex?$AA@
CONST	SEGMENT
??_C@_0BP@HBLEEIKM@data?2battleMap?2battle115?4sabex?$AA@ DB 'data\battle'
	DB	'Map\battle115.sabex', 00H			; `string'
CONST	ENDS
;	COMDAT ??_C@_0BP@LNBOEIDC@data?2battleMap?2battle114?4sabex?$AA@
CONST	SEGMENT
??_C@_0BP@LNBOEIDC@data?2battleMap?2battle114?4sabex?$AA@ DB 'data\battle'
	DB	'Map\battle114.sabex', 00H			; `string'
CONST	ENDS
;	COMDAT ??_C@_0BP@LHNLEBCL@data?2battleMap?2battle113?4sabex?$AA@
CONST	SEGMENT
??_C@_0BP@LHNLEBCL@data?2battleMap?2battle113?4sabex?$AA@ DB 'data\battle'
	DB	'Map\battle113.sabex', 00H			; `string'
CONST	ENDS
;	COMDAT ??_C@_0BP@HLHBEBLF@data?2battleMap?2battle112?4sabex?$AA@
CONST	SEGMENT
??_C@_0BP@HLHBEBLF@data?2battleMap?2battle112?4sabex?$AA@ DB 'data\battle'
	DB	'Map\battle112.sabex', 00H			; `string'
CONST	ENDS
;	COMDAT ??_C@_0BP@PFPOEGFG@data?2battleMap?2battle111?4sabex?$AA@
CONST	SEGMENT
??_C@_0BP@PFPOEGFG@data?2battleMap?2battle111?4sabex?$AA@ DB 'data\battle'
	DB	'Map\battle111.sabex', 00H			; `string'
CONST	ENDS
;	COMDAT ??_C@_0BP@DJFEEGMI@data?2battleMap?2battle110?4sabex?$AA@
CONST	SEGMENT
??_C@_0BP@DJFEEGMI@data?2battleMap?2battle110?4sabex?$AA@ DB 'data\battle'
	DB	'Map\battle110.sabex', 00H			; `string'
CONST	ENDS
;	COMDAT ??_C@_0BP@DBGAEJKA@data?2battleMap?2battle109?4sabex?$AA@
CONST	SEGMENT
??_C@_0BP@DBGAEJKA@data?2battleMap?2battle109?4sabex?$AA@ DB 'data\battle'
	DB	'Map\battle109.sabex', 00H			; `string'
CONST	ENDS
;	COMDAT ??_C@_0BP@PNMKEJDO@data?2battleMap?2battle108?4sabex?$AA@
CONST	SEGMENT
??_C@_0BP@PNMKEJDO@data?2battleMap?2battle108?4sabex?$AA@ DB 'data\battle'
	DB	'Map\battle108.sabex', 00H			; `string'
CONST	ENDS
;	COMDAT ??_C@_0BP@CEOKFLJC@data?2battleMap?2battle107?4sabex?$AA@
CONST	SEGMENT
??_C@_0BP@CEOKFLJC@data?2battleMap?2battle107?4sabex?$AA@ DB 'data\battle'
	DB	'Map\battle107.sabex', 00H			; `string'
CONST	ENDS
;	COMDAT ??_C@_0BP@OIEAFLAM@data?2battleMap?2battle106?4sabex?$AA@
CONST	SEGMENT
??_C@_0BP@OIEAFLAM@data?2battleMap?2battle106?4sabex?$AA@ DB 'data\battle'
	DB	'Map\battle106.sabex', 00H			; `string'
CONST	ENDS
;	COMDAT ??_C@_0BP@GGMPFMOP@data?2battleMap?2battle105?4sabex?$AA@
CONST	SEGMENT
??_C@_0BP@GGMPFMOP@data?2battleMap?2battle105?4sabex?$AA@ DB 'data\battle'
	DB	'Map\battle105.sabex', 00H			; `string'
CONST	ENDS
;	COMDAT ??_C@_0BP@KKGFFMHB@data?2battleMap?2battle104?4sabex?$AA@
CONST	SEGMENT
??_C@_0BP@KKGFFMHB@data?2battleMap?2battle104?4sabex?$AA@ DB 'data\battle'
	DB	'Map\battle104.sabex', 00H			; `string'
CONST	ENDS
;	COMDAT ??_C@_0BP@KAKAFFGI@data?2battleMap?2battle103?4sabex?$AA@
CONST	SEGMENT
??_C@_0BP@KAKAFFGI@data?2battleMap?2battle103?4sabex?$AA@ DB 'data\battle'
	DB	'Map\battle103.sabex', 00H			; `string'
CONST	ENDS
;	COMDAT ??_C@_0BP@GMAKFFPG@data?2battleMap?2battle102?4sabex?$AA@
CONST	SEGMENT
??_C@_0BP@GMAKFFPG@data?2battleMap?2battle102?4sabex?$AA@ DB 'data\battle'
	DB	'Map\battle102.sabex', 00H			; `string'
CONST	ENDS
;	COMDAT ??_C@_0BP@OCIFFCBF@data?2battleMap?2battle101?4sabex?$AA@
CONST	SEGMENT
??_C@_0BP@OCIFFCBF@data?2battleMap?2battle101?4sabex?$AA@ DB 'data\battle'
	DB	'Map\battle101.sabex', 00H			; `string'
CONST	ENDS
;	COMDAT ??_C@_0BP@COCPFCIL@data?2battleMap?2battle100?4sabex?$AA@
CONST	SEGMENT
??_C@_0BP@COCPFCIL@data?2battleMap?2battle100?4sabex?$AA@ DB 'data\battle'
	DB	'Map\battle100.sabex', 00H			; `string'
CONST	ENDS
;	COMDAT ??_C@_0BO@BEFBKHGP@data?2battleMap?2battle99?4sabex?$AA@
CONST	SEGMENT
??_C@_0BO@BEFBKHGP@data?2battleMap?2battle99?4sabex?$AA@ DB 'data\battleM'
	DB	'ap\battle99.sabex', 00H			; `string'
CONST	ENDS
;	COMDAT ??_C@_0BO@NIPLKHPB@data?2battleMap?2battle98?4sabex?$AA@
CONST	SEGMENT
??_C@_0BO@NIPLKHPB@data?2battleMap?2battle98?4sabex?$AA@ DB 'data\battleM'
	DB	'ap\battle98.sabex', 00H			; `string'
CONST	ENDS
;	COMDAT ??_C@_0BO@BNLLFFN@data?2battleMap?2battle97?4sabex?$AA@
CONST	SEGMENT
??_C@_0BO@BNLLFFN@data?2battleMap?2battle97?4sabex?$AA@ DB 'data\battleMa'
	DB	'p\battle97.sabex', 00H			; `string'
CONST	ENDS
;	COMDAT ??_C@_0BO@MNHBLFMD@data?2battleMap?2battle96?4sabex?$AA@
CONST	SEGMENT
??_C@_0BO@MNHBLFMD@data?2battleMap?2battle96?4sabex?$AA@ DB 'data\battleM'
	DB	'ap\battle96.sabex', 00H			; `string'
CONST	ENDS
;	COMDAT ??_C@_0BO@EDPOLCCA@data?2battleMap?2battle95?4sabex?$AA@
CONST	SEGMENT
??_C@_0BO@EDPOLCCA@data?2battleMap?2battle95?4sabex?$AA@ DB 'data\battleM'
	DB	'ap\battle95.sabex', 00H			; `string'
CONST	ENDS
;	COMDAT ??_C@_0BO@IPFELCLO@data?2battleMap?2battle94?4sabex?$AA@
CONST	SEGMENT
??_C@_0BO@IPFELCLO@data?2battleMap?2battle94?4sabex?$AA@ DB 'data\battleM'
	DB	'ap\battle94.sabex', 00H			; `string'
CONST	ENDS
;	COMDAT ??_C@_0BO@IFJBLLKH@data?2battleMap?2battle93?4sabex?$AA@
CONST	SEGMENT
??_C@_0BO@IFJBLLKH@data?2battleMap?2battle93?4sabex?$AA@ DB 'data\battleM'
	DB	'ap\battle93.sabex', 00H			; `string'
CONST	ENDS
;	COMDAT ??_C@_0BO@EJDLLLDJ@data?2battleMap?2battle92?4sabex?$AA@
CONST	SEGMENT
??_C@_0BO@EJDLLLDJ@data?2battleMap?2battle92?4sabex?$AA@ DB 'data\battleM'
	DB	'ap\battle92.sabex', 00H			; `string'
CONST	ENDS
;	COMDAT ??_C@_0BO@MHLELMNK@data?2battleMap?2battle91?4sabex?$AA@
CONST	SEGMENT
??_C@_0BO@MHLELMNK@data?2battleMap?2battle91?4sabex?$AA@ DB 'data\battleM'
	DB	'ap\battle91.sabex', 00H			; `string'
CONST	ENDS
;	COMDAT ??_C@_0BO@LBOLMEE@data?2battleMap?2battle90?4sabex?$AA@
CONST	SEGMENT
??_C@_0BO@LBOLMEE@data?2battleMap?2battle90?4sabex?$AA@ DB 'data\battleMa'
	DB	'p\battle90.sabex', 00H			; `string'
CONST	ENDS
;	COMDAT ??_C@_0BO@DCKLDCM@data?2battleMap?2battle89?4sabex?$AA@
CONST	SEGMENT
??_C@_0BO@DCKLDCM@data?2battleMap?2battle89?4sabex?$AA@ DB 'data\battleMa'
	DB	'p\battle89.sabex', 00H			; `string'
CONST	ENDS
;	COMDAT ??_C@_0BO@MPIALDLC@data?2battleMap?2battle88?4sabex?$AA@
CONST	SEGMENT
??_C@_0BO@MPIALDLC@data?2battleMap?2battle88?4sabex?$AA@ DB 'data\battleM'
	DB	'ap\battle88.sabex', 00H			; `string'
CONST	ENDS
;	COMDAT ??_C@_0BO@BGKAKBBO@data?2battleMap?2battle87?4sabex?$AA@
CONST	SEGMENT
??_C@_0BO@BGKAKBBO@data?2battleMap?2battle87?4sabex?$AA@ DB 'data\battleM'
	DB	'ap\battle87.sabex', 00H			; `string'
CONST	ENDS
;	COMDAT ??_C@_0BO@NKAKKBIA@data?2battleMap?2battle86?4sabex?$AA@
CONST	SEGMENT
??_C@_0BO@NKAKKBIA@data?2battleMap?2battle86?4sabex?$AA@ DB 'data\battleM'
	DB	'ap\battle86.sabex', 00H			; `string'
CONST	ENDS
;	COMDAT ??_C@_0BO@FEIFKGGD@data?2battleMap?2battle85?4sabex?$AA@
CONST	SEGMENT
??_C@_0BO@FEIFKGGD@data?2battleMap?2battle85?4sabex?$AA@ DB 'data\battleM'
	DB	'ap\battle85.sabex', 00H			; `string'
CONST	ENDS
;	COMDAT ??_C@_0BO@JICPKGPN@data?2battleMap?2battle84?4sabex?$AA@
CONST	SEGMENT
??_C@_0BO@JICPKGPN@data?2battleMap?2battle84?4sabex?$AA@ DB 'data\battleM'
	DB	'ap\battle84.sabex', 00H			; `string'
CONST	ENDS
;	COMDAT ??_C@_0BO@JCOKKPOE@data?2battleMap?2battle83?4sabex?$AA@
CONST	SEGMENT
??_C@_0BO@JCOKKPOE@data?2battleMap?2battle83?4sabex?$AA@ DB 'data\battleM'
	DB	'ap\battle83.sabex', 00H			; `string'
CONST	ENDS
;	COMDAT ??_C@_0BO@FOEAKPHK@data?2battleMap?2battle82?4sabex?$AA@
CONST	SEGMENT
??_C@_0BO@FOEAKPHK@data?2battleMap?2battle82?4sabex?$AA@ DB 'data\battleM'
	DB	'ap\battle82.sabex', 00H			; `string'
CONST	ENDS
;	COMDAT ??_C@_0BO@NAMPKIJJ@data?2battleMap?2battle81?4sabex?$AA@
CONST	SEGMENT
??_C@_0BO@NAMPKIJJ@data?2battleMap?2battle81?4sabex?$AA@ DB 'data\battleM'
	DB	'ap\battle81.sabex', 00H			; `string'
CONST	ENDS
;	COMDAT ??_C@_0BO@BMGFKIAH@data?2battleMap?2battle80?4sabex?$AA@
CONST	SEGMENT
??_C@_0BO@BMGFKIAH@data?2battleMap?2battle80?4sabex?$AA@ DB 'data\battleM'
	DB	'ap\battle80.sabex', 00H			; `string'
CONST	ENDS
;	COMDAT ??_C@_0BO@NMJDHMPN@data?2battleMap?2battle79?4sabex?$AA@
CONST	SEGMENT
??_C@_0BO@NMJDHMPN@data?2battleMap?2battle79?4sabex?$AA@ DB 'data\battleM'
	DB	'ap\battle79.sabex', 00H			; `string'
CONST	ENDS
;	COMDAT ??_C@_0BO@BADJHMGD@data?2battleMap?2battle78?4sabex?$AA@
CONST	SEGMENT
??_C@_0BO@BADJHMGD@data?2battleMap?2battle78?4sabex?$AA@ DB 'data\battleM'
	DB	'ap\battle78.sabex', 00H			; `string'
CONST	ENDS
;	COMDAT ??_C@_0BO@MJBJGOMP@data?2battleMap?2battle77?4sabex?$AA@
CONST	SEGMENT
??_C@_0BO@MJBJGOMP@data?2battleMap?2battle77?4sabex?$AA@ DB 'data\battleM'
	DB	'ap\battle77.sabex', 00H			; `string'
CONST	ENDS
;	COMDAT ??_C@_0BO@FLDGOFB@data?2battleMap?2battle76?4sabex?$AA@
CONST	SEGMENT
??_C@_0BO@FLDGOFB@data?2battleMap?2battle76?4sabex?$AA@ DB 'data\battleMa'
	DB	'p\battle76.sabex', 00H			; `string'
CONST	ENDS
;	COMDAT ??_C@_0BO@ILDMGJLC@data?2battleMap?2battle75?4sabex?$AA@
CONST	SEGMENT
??_C@_0BO@ILDMGJLC@data?2battleMap?2battle75?4sabex?$AA@ DB 'data\battleM'
	DB	'ap\battle75.sabex', 00H			; `string'
CONST	ENDS
;	COMDAT ??_C@_0BO@EHJGGJCM@data?2battleMap?2battle74?4sabex?$AA@
CONST	SEGMENT
??_C@_0BO@EHJGGJCM@data?2battleMap?2battle74?4sabex?$AA@ DB 'data\battleM'
	DB	'ap\battle74.sabex', 00H			; `string'
CONST	ENDS
;	COMDAT ??_C@_0BO@ENFDGADF@data?2battleMap?2battle73?4sabex?$AA@
CONST	SEGMENT
??_C@_0BO@ENFDGADF@data?2battleMap?2battle73?4sabex?$AA@ DB 'data\battleM'
	DB	'ap\battle73.sabex', 00H			; `string'
CONST	ENDS
;	COMDAT ??_C@_0BO@IBPJGAKL@data?2battleMap?2battle72?4sabex?$AA@
CONST	SEGMENT
??_C@_0BO@IBPJGAKL@data?2battleMap?2battle72?4sabex?$AA@ DB 'data\battleM'
	DB	'ap\battle72.sabex', 00H			; `string'
CONST	ENDS
;	COMDAT ??_C@_0BO@PHGGHEI@data?2battleMap?2battle71?4sabex?$AA@
CONST	SEGMENT
??_C@_0BO@PHGGHEI@data?2battleMap?2battle71?4sabex?$AA@ DB 'data\battleMa'
	DB	'p\battle71.sabex', 00H			; `string'
CONST	ENDS
;	COMDAT ??_C@_0BO@MDNMGHNG@data?2battleMap?2battle70?4sabex?$AA@
CONST	SEGMENT
??_C@_0BO@MDNMGHNG@data?2battleMap?2battle70?4sabex?$AA@ DB 'data\battleM'
	DB	'ap\battle70.sabex', 00H			; `string'
CONST	ENDS
;	COMDAT ??_C@_0BO@MLOIGILO@data?2battleMap?2battle69?4sabex?$AA@
CONST	SEGMENT
??_C@_0BO@MLOIGILO@data?2battleMap?2battle69?4sabex?$AA@ DB 'data\battleM'
	DB	'ap\battle69.sabex', 00H			; `string'
CONST	ENDS
;	COMDAT ??_C@_0BO@HECGICA@data?2battleMap?2battle68?4sabex?$AA@
CONST	SEGMENT
??_C@_0BO@HECGICA@data?2battleMap?2battle68?4sabex?$AA@ DB 'data\battleMa'
	DB	'p\battle68.sabex', 00H			; `string'
CONST	ENDS
;	COMDAT ??_C@_0BO@NOGCHKIM@data?2battleMap?2battle67?4sabex?$AA@
CONST	SEGMENT
??_C@_0BO@NOGCHKIM@data?2battleMap?2battle67?4sabex?$AA@ DB 'data\battleM'
	DB	'ap\battle67.sabex', 00H			; `string'
CONST	ENDS
;	COMDAT ??_C@_0BO@BCMIHKBC@data?2battleMap?2battle66?4sabex?$AA@
CONST	SEGMENT
??_C@_0BO@BCMIHKBC@data?2battleMap?2battle66?4sabex?$AA@ DB 'data\battleM'
	DB	'ap\battle66.sabex', 00H			; `string'
CONST	ENDS
;	COMDAT ??_C@_0BO@JMEHHNPB@data?2battleMap?2battle65?4sabex?$AA@
CONST	SEGMENT
??_C@_0BO@JMEHHNPB@data?2battleMap?2battle65?4sabex?$AA@ DB 'data\battleM'
	DB	'ap\battle65.sabex', 00H			; `string'
CONST	ENDS
;	COMDAT ??_C@_0BO@FAONHNGP@data?2battleMap?2battle64?4sabex?$AA@
CONST	SEGMENT
??_C@_0BO@FAONHNGP@data?2battleMap?2battle64?4sabex?$AA@ DB 'data\battleM'
	DB	'ap\battle64.sabex', 00H			; `string'
CONST	ENDS
;	COMDAT ??_C@_0BO@FKCIHEHG@data?2battleMap?2battle63?4sabex?$AA@
CONST	SEGMENT
??_C@_0BO@FKCIHEHG@data?2battleMap?2battle63?4sabex?$AA@ DB 'data\battleM'
	DB	'ap\battle63.sabex', 00H			; `string'
CONST	ENDS
;	COMDAT ??_C@_0BO@JGICHEOI@data?2battleMap?2battle62?4sabex?$AA@
CONST	SEGMENT
??_C@_0BO@JGICHEOI@data?2battleMap?2battle62?4sabex?$AA@ DB 'data\battleM'
	DB	'ap\battle62.sabex', 00H			; `string'
CONST	ENDS
;	COMDAT ??_C@_0BO@BIANHDAL@data?2battleMap?2battle61?4sabex?$AA@
CONST	SEGMENT
??_C@_0BO@BIANHDAL@data?2battleMap?2battle61?4sabex?$AA@ DB 'data\battleM'
	DB	'ap\battle61.sabex', 00H			; `string'
CONST	ENDS
;	COMDAT ??_C@_0BO@NEKHHDJF@data?2battleMap?2battle60?4sabex?$AA@
CONST	SEGMENT
??_C@_0BO@NEKHHDJF@data?2battleMap?2battle60?4sabex?$AA@ DB 'data\battleM'
	DB	'ap\battle60.sabex', 00H			; `string'
CONST	ENDS
;	COMDAT ??_C@_0BO@PCGFFEHL@data?2battleMap?2battle59?4sabex?$AA@
CONST	SEGMENT
??_C@_0BO@PCGFFEHL@data?2battleMap?2battle59?4sabex?$AA@ DB 'data\battleM'
	DB	'ap\battle59.sabex', 00H			; `string'
CONST	ENDS
;	COMDAT ??_C@_0BO@DOMPFEOF@data?2battleMap?2battle58?4sabex?$AA@
CONST	SEGMENT
??_C@_0BO@DOMPFEOF@data?2battleMap?2battle58?4sabex?$AA@ DB 'data\battleM'
	DB	'ap\battle58.sabex', 00H			; `string'
CONST	ENDS
;	COMDAT ??_C@_0BO@OHOPEGEJ@data?2battleMap?2battle57?4sabex?$AA@
CONST	SEGMENT
??_C@_0BO@OHOPEGEJ@data?2battleMap?2battle57?4sabex?$AA@ DB 'data\battleM'
	DB	'ap\battle57.sabex', 00H			; `string'
CONST	ENDS
;	COMDAT ??_C@_0BO@CLEFEGNH@data?2battleMap?2battle56?4sabex?$AA@
CONST	SEGMENT
??_C@_0BO@CLEFEGNH@data?2battleMap?2battle56?4sabex?$AA@ DB 'data\battleM'
	DB	'ap\battle56.sabex', 00H			; `string'
CONST	ENDS
;	COMDAT ??_C@_0BO@KFMKEBDE@data?2battleMap?2battle55?4sabex?$AA@
CONST	SEGMENT
??_C@_0BO@KFMKEBDE@data?2battleMap?2battle55?4sabex?$AA@ DB 'data\battleM'
	DB	'ap\battle55.sabex', 00H			; `string'
CONST	ENDS
;	COMDAT ??_C@_0BO@GJGAEBKK@data?2battleMap?2battle54?4sabex?$AA@
CONST	SEGMENT
??_C@_0BO@GJGAEBKK@data?2battleMap?2battle54?4sabex?$AA@ DB 'data\battleM'
	DB	'ap\battle54.sabex', 00H			; `string'
CONST	ENDS
;	COMDAT ??_C@_0BO@GDKFEILD@data?2battleMap?2battle53?4sabex?$AA@
CONST	SEGMENT
??_C@_0BO@GDKFEILD@data?2battleMap?2battle53?4sabex?$AA@ DB 'data\battleM'
	DB	'ap\battle53.sabex', 00H			; `string'
CONST	ENDS
;	COMDAT ??_C@_0BO@KPAPEICN@data?2battleMap?2battle52?4sabex?$AA@
CONST	SEGMENT
??_C@_0BO@KPAPEICN@data?2battleMap?2battle52?4sabex?$AA@ DB 'data\battleM'
	DB	'ap\battle52.sabex', 00H			; `string'
CONST	ENDS
;	COMDAT ??_C@_0BO@CBIAEPMO@data?2battleMap?2battle51?4sabex?$AA@
CONST	SEGMENT
??_C@_0BO@CBIAEPMO@data?2battleMap?2battle51?4sabex?$AA@ DB 'data\battleM'
	DB	'ap\battle51.sabex', 00H			; `string'
CONST	ENDS
;	COMDAT ??_C@_0BO@ONCKEPFA@data?2battleMap?2battle50?4sabex?$AA@
CONST	SEGMENT
??_C@_0BO@ONCKEPFA@data?2battleMap?2battle50?4sabex?$AA@ DB 'data\battleM'
	DB	'ap\battle50.sabex', 00H			; `string'
CONST	ENDS
;	COMDAT ??_C@_0BO@OFBOEADI@data?2battleMap?2battle49?4sabex?$AA@
CONST	SEGMENT
??_C@_0BO@OFBOEADI@data?2battleMap?2battle49?4sabex?$AA@ DB 'data\battleM'
	DB	'ap\battle49.sabex', 00H			; `string'
CONST	ENDS
;	COMDAT ??_C@_0BO@CJLEEAKG@data?2battleMap?2battle48?4sabex?$AA@
CONST	SEGMENT
??_C@_0BO@CJLEEAKG@data?2battleMap?2battle48?4sabex?$AA@ DB 'data\battleM'
	DB	'ap\battle48.sabex', 00H			; `string'
CONST	ENDS
;	COMDAT ??_C@_0BO@PAJEFCAK@data?2battleMap?2battle47?4sabex?$AA@
CONST	SEGMENT
??_C@_0BO@PAJEFCAK@data?2battleMap?2battle47?4sabex?$AA@ DB 'data\battleM'
	DB	'ap\battle47.sabex', 00H			; `string'
CONST	ENDS
;	COMDAT ??_C@_0BO@DMDOFCJE@data?2battleMap?2battle46?4sabex?$AA@
CONST	SEGMENT
??_C@_0BO@DMDOFCJE@data?2battleMap?2battle46?4sabex?$AA@ DB 'data\battleM'
	DB	'ap\battle46.sabex', 00H			; `string'
CONST	ENDS
;	COMDAT ??_C@_0BO@LCLBFFHH@data?2battleMap?2battle45?4sabex?$AA@
CONST	SEGMENT
??_C@_0BO@LCLBFFHH@data?2battleMap?2battle45?4sabex?$AA@ DB 'data\battleM'
	DB	'ap\battle45.sabex', 00H			; `string'
CONST	ENDS
;	COMDAT ??_C@_0BO@HOBLFFOJ@data?2battleMap?2battle44?4sabex?$AA@
CONST	SEGMENT
??_C@_0BO@HOBLFFOJ@data?2battleMap?2battle44?4sabex?$AA@ DB 'data\battleM'
	DB	'ap\battle44.sabex', 00H			; `string'
CONST	ENDS
;	COMDAT ??_C@_0BO@HENOFMPA@data?2battleMap?2battle43?4sabex?$AA@
CONST	SEGMENT
??_C@_0BO@HENOFMPA@data?2battleMap?2battle43?4sabex?$AA@ DB 'data\battleM'
	DB	'ap\battle43.sabex', 00H			; `string'
CONST	ENDS
;	COMDAT ??_C@_0BO@LIHEFMGO@data?2battleMap?2battle42?4sabex?$AA@
CONST	SEGMENT
??_C@_0BO@LIHEFMGO@data?2battleMap?2battle42?4sabex?$AA@ DB 'data\battleM'
	DB	'ap\battle42.sabex', 00H			; `string'
CONST	ENDS
;	COMDAT ??_C@_0BO@DGPLFLIN@data?2battleMap?2battle41?4sabex?$AA@
CONST	SEGMENT
??_C@_0BO@DGPLFLIN@data?2battleMap?2battle41?4sabex?$AA@ DB 'data\battleM'
	DB	'ap\battle41.sabex', 00H			; `string'
CONST	ENDS
;	COMDAT ??_C@_0BO@PKFBFLBD@data?2battleMap?2battle40?4sabex?$AA@
CONST	SEGMENT
??_C@_0BO@PKFBFLBD@data?2battleMap?2battle40?4sabex?$AA@ DB 'data\battleM'
	DB	'ap\battle40.sabex', 00H			; `string'
CONST	ENDS
;	COMDAT ??_C@_0BO@IBHPCNPB@data?2battleMap?2battle39?4sabex?$AA@
CONST	SEGMENT
??_C@_0BO@IBHPCNPB@data?2battleMap?2battle39?4sabex?$AA@ DB 'data\battleM'
	DB	'ap\battle39.sabex', 00H			; `string'
CONST	ENDS
;	COMDAT ??_C@_0BO@ENNFCNGP@data?2battleMap?2battle38?4sabex?$AA@
CONST	SEGMENT
??_C@_0BO@ENNFCNGP@data?2battleMap?2battle38?4sabex?$AA@ DB 'data\battleM'
	DB	'ap\battle38.sabex', 00H			; `string'
CONST	ENDS
;	COMDAT ??_C@_0BO@JEPFDPMD@data?2battleMap?2battle37?4sabex?$AA@
CONST	SEGMENT
??_C@_0BO@JEPFDPMD@data?2battleMap?2battle37?4sabex?$AA@ DB 'data\battleM'
	DB	'ap\battle37.sabex', 00H			; `string'
CONST	ENDS
;	COMDAT ??_C@_0BO@FIFPDPFN@data?2battleMap?2battle36?4sabex?$AA@
CONST	SEGMENT
??_C@_0BO@FIFPDPFN@data?2battleMap?2battle36?4sabex?$AA@ DB 'data\battleM'
	DB	'ap\battle36.sabex', 00H			; `string'
CONST	ENDS
;	COMDAT ??_C@_0BO@NGNADILO@data?2battleMap?2battle35?4sabex?$AA@
CONST	SEGMENT
??_C@_0BO@NGNADILO@data?2battleMap?2battle35?4sabex?$AA@ DB 'data\battleM'
	DB	'ap\battle35.sabex', 00H			; `string'
CONST	ENDS
;	COMDAT ??_C@_0BO@BKHKDICA@data?2battleMap?2battle34?4sabex?$AA@
CONST	SEGMENT
??_C@_0BO@BKHKDICA@data?2battleMap?2battle34?4sabex?$AA@ DB 'data\battleM'
	DB	'ap\battle34.sabex', 00H			; `string'
CONST	ENDS
;	COMDAT ??_C@_0BO@BALPDBDJ@data?2battleMap?2battle33?4sabex?$AA@
CONST	SEGMENT
??_C@_0BO@BALPDBDJ@data?2battleMap?2battle33?4sabex?$AA@ DB 'data\battleM'
	DB	'ap\battle33.sabex', 00H			; `string'
CONST	ENDS
;	COMDAT ??_C@_0BO@NMBFDBKH@data?2battleMap?2battle32?4sabex?$AA@
CONST	SEGMENT
??_C@_0BO@NMBFDBKH@data?2battleMap?2battle32?4sabex?$AA@ DB 'data\battleM'
	DB	'ap\battle32.sabex', 00H			; `string'
CONST	ENDS
;	COMDAT ??_C@_0BO@FCJKDGEE@data?2battleMap?2battle31?4sabex?$AA@
CONST	SEGMENT
??_C@_0BO@FCJKDGEE@data?2battleMap?2battle31?4sabex?$AA@ DB 'data\battleM'
	DB	'ap\battle31.sabex', 00H			; `string'
CONST	ENDS
;	COMDAT ??_C@_0BO@JODADGNK@data?2battleMap?2battle30?4sabex?$AA@
CONST	SEGMENT
??_C@_0BO@JODADGNK@data?2battleMap?2battle30?4sabex?$AA@ DB 'data\battleM'
	DB	'ap\battle30.sabex', 00H			; `string'
CONST	ENDS
;	COMDAT ??_C@_0BO@JGAEDJLC@data?2battleMap?2battle29?4sabex?$AA@
CONST	SEGMENT
??_C@_0BO@JGAEDJLC@data?2battleMap?2battle29?4sabex?$AA@ DB 'data\battleM'
	DB	'ap\battle29.sabex', 00H			; `string'
CONST	ENDS
;	COMDAT ??_C@_0BO@FKKODJCM@data?2battleMap?2battle28?4sabex?$AA@
CONST	SEGMENT
??_C@_0BO@FKKODJCM@data?2battleMap?2battle28?4sabex?$AA@ DB 'data\battleM'
	DB	'ap\battle28.sabex', 00H			; `string'
CONST	ENDS
;	COMDAT ??_C@_0BO@IDIOCLIA@data?2battleMap?2battle27?4sabex?$AA@
CONST	SEGMENT
??_C@_0BO@IDIOCLIA@data?2battleMap?2battle27?4sabex?$AA@ DB 'data\battleM'
	DB	'ap\battle27.sabex', 00H			; `string'
CONST	ENDS
;	COMDAT ??_C@_0BO@EPCECLBO@data?2battleMap?2battle26?4sabex?$AA@
CONST	SEGMENT
??_C@_0BO@EPCECLBO@data?2battleMap?2battle26?4sabex?$AA@ DB 'data\battleM'
	DB	'ap\battle26.sabex', 00H			; `string'
CONST	ENDS
;	COMDAT ??_C@_0BO@MBKLCMPN@data?2battleMap?2battle25?4sabex?$AA@
CONST	SEGMENT
??_C@_0BO@MBKLCMPN@data?2battleMap?2battle25?4sabex?$AA@ DB 'data\battleM'
	DB	'ap\battle25.sabex', 00H			; `string'
CONST	ENDS
;	COMDAT ??_C@_0BO@NABCMGD@data?2battleMap?2battle24?4sabex?$AA@
CONST	SEGMENT
??_C@_0BO@NABCMGD@data?2battleMap?2battle24?4sabex?$AA@ DB 'data\battleMa'
	DB	'p\battle24.sabex', 00H			; `string'
CONST	ENDS
;	COMDAT ??_C@_0BO@HMECFHK@data?2battleMap?2battle23?4sabex?$AA@
CONST	SEGMENT
??_C@_0BO@HMECFHK@data?2battleMap?2battle23?4sabex?$AA@ DB 'data\battleMa'
	DB	'p\battle23.sabex', 00H			; `string'
CONST	ENDS
;	COMDAT ??_C@_0BO@MLGOCFOE@data?2battleMap?2battle22?4sabex?$AA@
CONST	SEGMENT
??_C@_0BO@MLGOCFOE@data?2battleMap?2battle22?4sabex?$AA@ DB 'data\battleM'
	DB	'ap\battle22.sabex', 00H			; `string'
CONST	ENDS
;	COMDAT ??_C@_0BO@EFOBCCAH@data?2battleMap?2battle21?4sabex?$AA@
CONST	SEGMENT
??_C@_0BO@EFOBCCAH@data?2battleMap?2battle21?4sabex?$AA@ DB 'data\battleM'
	DB	'ap\battle21.sabex', 00H			; `string'
CONST	ENDS
;	COMDAT ??_C@_0BO@IJELCCJJ@data?2battleMap?2battle20?4sabex?$AA@
CONST	SEGMENT
??_C@_0BO@IJELCCJJ@data?2battleMap?2battle20?4sabex?$AA@ DB 'data\battleM'
	DB	'ap\battle20.sabex', 00H			; `string'
CONST	ENDS
;	COMDAT ??_C@_0BO@KPIJAFHH@data?2battleMap?2battle19?4sabex?$AA@
CONST	SEGMENT
??_C@_0BO@KPIJAFHH@data?2battleMap?2battle19?4sabex?$AA@ DB 'data\battleM'
	DB	'ap\battle19.sabex', 00H			; `string'
CONST	ENDS
;	COMDAT ??_C@_0BO@GDCDAFOJ@data?2battleMap?2battle18?4sabex?$AA@
CONST	SEGMENT
??_C@_0BO@GDCDAFOJ@data?2battleMap?2battle18?4sabex?$AA@ DB 'data\battleM'
	DB	'ap\battle18.sabex', 00H			; `string'
CONST	ENDS
;	COMDAT ??_C@_0BO@LKADBHEF@data?2battleMap?2battle17?4sabex?$AA@
CONST	SEGMENT
??_C@_0BO@LKADBHEF@data?2battleMap?2battle17?4sabex?$AA@ DB 'data\battleM'
	DB	'ap\battle17.sabex', 00H			; `string'
CONST	ENDS
;	COMDAT ??_C@_0BO@HGKJBHNL@data?2battleMap?2battle16?4sabex?$AA@
CONST	SEGMENT
??_C@_0BO@HGKJBHNL@data?2battleMap?2battle16?4sabex?$AA@ DB 'data\battleM'
	DB	'ap\battle16.sabex', 00H			; `string'
CONST	ENDS
;	COMDAT ??_C@_0BO@PICGBADI@data?2battleMap?2battle15?4sabex?$AA@
CONST	SEGMENT
??_C@_0BO@PICGBADI@data?2battleMap?2battle15?4sabex?$AA@ DB 'data\battleM'
	DB	'ap\battle15.sabex', 00H			; `string'
CONST	ENDS
;	COMDAT ??_C@_0BO@DEIMBAKG@data?2battleMap?2battle14?4sabex?$AA@
CONST	SEGMENT
??_C@_0BO@DEIMBAKG@data?2battleMap?2battle14?4sabex?$AA@ DB 'data\battleM'
	DB	'ap\battle14.sabex', 00H			; `string'
CONST	ENDS
;	COMDAT ??_C@_0BO@DOEJBJLP@data?2battleMap?2battle13?4sabex?$AA@
CONST	SEGMENT
??_C@_0BO@DOEJBJLP@data?2battleMap?2battle13?4sabex?$AA@ DB 'data\battleM'
	DB	'ap\battle13.sabex', 00H			; `string'
CONST	ENDS
;	COMDAT ??_C@_0BO@PCODBJCB@data?2battleMap?2battle12?4sabex?$AA@
CONST	SEGMENT
??_C@_0BO@PCODBJCB@data?2battleMap?2battle12?4sabex?$AA@ DB 'data\battleM'
	DB	'ap\battle12.sabex', 00H			; `string'
CONST	ENDS
;	COMDAT ??_C@_0BO@HMGMBOMC@data?2battleMap?2battle11?4sabex?$AA@
CONST	SEGMENT
??_C@_0BO@HMGMBOMC@data?2battleMap?2battle11?4sabex?$AA@ DB 'data\battleM'
	DB	'ap\battle11.sabex', 00H			; `string'
CONST	ENDS
;	COMDAT ??_C@_0BO@LAMGBOFM@data?2battleMap?2battle10?4sabex?$AA@
CONST	SEGMENT
??_C@_0BO@LAMGBOFM@data?2battleMap?2battle10?4sabex?$AA@ DB 'data\battleM'
	DB	'ap\battle10.sabex', 00H			; `string'
CONST	ENDS
;	COMDAT ??_C@_0BO@LIPCBBDE@data?2battleMap?2battle09?4sabex?$AA@
CONST	SEGMENT
??_C@_0BO@LIPCBBDE@data?2battleMap?2battle09?4sabex?$AA@ DB 'data\battleM'
	DB	'ap\battle09.sabex', 00H			; `string'
CONST	ENDS
;	COMDAT ??_C@_0BO@HEFIBBKK@data?2battleMap?2battle08?4sabex?$AA@
CONST	SEGMENT
??_C@_0BO@HEFIBBKK@data?2battleMap?2battle08?4sabex?$AA@ DB 'data\battleM'
	DB	'ap\battle08.sabex', 00H			; `string'
CONST	ENDS
;	COMDAT ??_C@_0BO@KNHIADAG@data?2battleMap?2battle07?4sabex?$AA@
CONST	SEGMENT
??_C@_0BO@KNHIADAG@data?2battleMap?2battle07?4sabex?$AA@ DB 'data\battleM'
	DB	'ap\battle07.sabex', 00H			; `string'
CONST	ENDS
;	COMDAT ??_C@_0BO@GBNCADJI@data?2battleMap?2battle06?4sabex?$AA@
CONST	SEGMENT
??_C@_0BO@GBNCADJI@data?2battleMap?2battle06?4sabex?$AA@ DB 'data\battleM'
	DB	'ap\battle06.sabex', 00H			; `string'
CONST	ENDS
;	COMDAT ??_C@_0BO@OPFNAEHL@data?2battleMap?2battle05?4sabex?$AA@
CONST	SEGMENT
??_C@_0BO@OPFNAEHL@data?2battleMap?2battle05?4sabex?$AA@ DB 'data\battleM'
	DB	'ap\battle05.sabex', 00H			; `string'
CONST	ENDS
;	COMDAT ??_C@_0BO@CDPHAEOF@data?2battleMap?2battle04?4sabex?$AA@
CONST	SEGMENT
??_C@_0BO@CDPHAEOF@data?2battleMap?2battle04?4sabex?$AA@ DB 'data\battleM'
	DB	'ap\battle04.sabex', 00H			; `string'
CONST	ENDS
;	COMDAT ??_C@_0BO@CJDCANPM@data?2battleMap?2battle03?4sabex?$AA@
CONST	SEGMENT
??_C@_0BO@CJDCANPM@data?2battleMap?2battle03?4sabex?$AA@ DB 'data\battleM'
	DB	'ap\battle03.sabex', 00H			; `string'
CONST	ENDS
;	COMDAT ??_C@_0BO@OFJIANGC@data?2battleMap?2battle02?4sabex?$AA@
CONST	SEGMENT
??_C@_0BO@OFJIANGC@data?2battleMap?2battle02?4sabex?$AA@ DB 'data\battleM'
	DB	'ap\battle02.sabex', 00H			; `string'
CONST	ENDS
;	COMDAT ??_C@_0BO@GLBHAKIB@data?2battleMap?2battle01?4sabex?$AA@
CONST	SEGMENT
??_C@_0BO@GLBHAKIB@data?2battleMap?2battle01?4sabex?$AA@ DB 'data\battleM'
	DB	'ap\battle01.sabex', 00H			; `string'
CONST	ENDS
;	COMDAT ??_C@_0BO@KHLNAKBP@data?2battleMap?2battle00?4sabex?$AA@
CONST	SEGMENT
??_C@_0BO@KHLNAKBP@data?2battleMap?2battle00?4sabex?$AA@ DB 'data\battleM'
	DB	'ap\battle00.sabex', 00H			; `string'
CONST	ENDS
_DATA	SEGMENT
?BattleMapFile@@3PAPADA DD FLAT:??_C@_0BO@KHLNAKBP@data?2battleMap?2battle00?4sabex?$AA@ ; BattleMapFile
	DD	FLAT:??_C@_0BO@GLBHAKIB@data?2battleMap?2battle01?4sabex?$AA@
	DD	FLAT:??_C@_0BO@OFJIANGC@data?2battleMap?2battle02?4sabex?$AA@
	DD	FLAT:??_C@_0BO@CJDCANPM@data?2battleMap?2battle03?4sabex?$AA@
	DD	FLAT:??_C@_0BO@CDPHAEOF@data?2battleMap?2battle04?4sabex?$AA@
	DD	FLAT:??_C@_0BO@OPFNAEHL@data?2battleMap?2battle05?4sabex?$AA@
	DD	FLAT:??_C@_0BO@GBNCADJI@data?2battleMap?2battle06?4sabex?$AA@
	DD	FLAT:??_C@_0BO@KNHIADAG@data?2battleMap?2battle07?4sabex?$AA@
	DD	FLAT:??_C@_0BO@HEFIBBKK@data?2battleMap?2battle08?4sabex?$AA@
	DD	FLAT:??_C@_0BO@LIPCBBDE@data?2battleMap?2battle09?4sabex?$AA@
	DD	FLAT:??_C@_0BO@LAMGBOFM@data?2battleMap?2battle10?4sabex?$AA@
	DD	FLAT:??_C@_0BO@HMGMBOMC@data?2battleMap?2battle11?4sabex?$AA@
	DD	FLAT:??_C@_0BO@PCODBJCB@data?2battleMap?2battle12?4sabex?$AA@
	DD	FLAT:??_C@_0BO@DOEJBJLP@data?2battleMap?2battle13?4sabex?$AA@
	DD	FLAT:??_C@_0BO@DEIMBAKG@data?2battleMap?2battle14?4sabex?$AA@
	DD	FLAT:??_C@_0BO@PICGBADI@data?2battleMap?2battle15?4sabex?$AA@
	DD	FLAT:??_C@_0BO@HGKJBHNL@data?2battleMap?2battle16?4sabex?$AA@
	DD	FLAT:??_C@_0BO@LKADBHEF@data?2battleMap?2battle17?4sabex?$AA@
	DD	FLAT:??_C@_0BO@GDCDAFOJ@data?2battleMap?2battle18?4sabex?$AA@
	DD	FLAT:??_C@_0BO@KPIJAFHH@data?2battleMap?2battle19?4sabex?$AA@
	DD	FLAT:??_C@_0BO@IJELCCJJ@data?2battleMap?2battle20?4sabex?$AA@
	DD	FLAT:??_C@_0BO@EFOBCCAH@data?2battleMap?2battle21?4sabex?$AA@
	DD	FLAT:??_C@_0BO@MLGOCFOE@data?2battleMap?2battle22?4sabex?$AA@
	DD	FLAT:??_C@_0BO@HMECFHK@data?2battleMap?2battle23?4sabex?$AA@
	DD	FLAT:??_C@_0BO@NABCMGD@data?2battleMap?2battle24?4sabex?$AA@
	DD	FLAT:??_C@_0BO@MBKLCMPN@data?2battleMap?2battle25?4sabex?$AA@
	DD	FLAT:??_C@_0BO@EPCECLBO@data?2battleMap?2battle26?4sabex?$AA@
	DD	FLAT:??_C@_0BO@IDIOCLIA@data?2battleMap?2battle27?4sabex?$AA@
	DD	FLAT:??_C@_0BO@FKKODJCM@data?2battleMap?2battle28?4sabex?$AA@
	DD	FLAT:??_C@_0BO@JGAEDJLC@data?2battleMap?2battle29?4sabex?$AA@
	DD	FLAT:??_C@_0BO@JODADGNK@data?2battleMap?2battle30?4sabex?$AA@
	DD	FLAT:??_C@_0BO@FCJKDGEE@data?2battleMap?2battle31?4sabex?$AA@
	DD	FLAT:??_C@_0BO@NMBFDBKH@data?2battleMap?2battle32?4sabex?$AA@
	DD	FLAT:??_C@_0BO@BALPDBDJ@data?2battleMap?2battle33?4sabex?$AA@
	DD	FLAT:??_C@_0BO@BKHKDICA@data?2battleMap?2battle34?4sabex?$AA@
	DD	FLAT:??_C@_0BO@NGNADILO@data?2battleMap?2battle35?4sabex?$AA@
	DD	FLAT:??_C@_0BO@FIFPDPFN@data?2battleMap?2battle36?4sabex?$AA@
	DD	FLAT:??_C@_0BO@JEPFDPMD@data?2battleMap?2battle37?4sabex?$AA@
	DD	FLAT:??_C@_0BO@ENNFCNGP@data?2battleMap?2battle38?4sabex?$AA@
	DD	FLAT:??_C@_0BO@IBHPCNPB@data?2battleMap?2battle39?4sabex?$AA@
	DD	FLAT:??_C@_0BO@PKFBFLBD@data?2battleMap?2battle40?4sabex?$AA@
	DD	FLAT:??_C@_0BO@DGPLFLIN@data?2battleMap?2battle41?4sabex?$AA@
	DD	FLAT:??_C@_0BO@LIHEFMGO@data?2battleMap?2battle42?4sabex?$AA@
	DD	FLAT:??_C@_0BO@HENOFMPA@data?2battleMap?2battle43?4sabex?$AA@
	DD	FLAT:??_C@_0BO@HOBLFFOJ@data?2battleMap?2battle44?4sabex?$AA@
	DD	FLAT:??_C@_0BO@LCLBFFHH@data?2battleMap?2battle45?4sabex?$AA@
	DD	FLAT:??_C@_0BO@DMDOFCJE@data?2battleMap?2battle46?4sabex?$AA@
	DD	FLAT:??_C@_0BO@PAJEFCAK@data?2battleMap?2battle47?4sabex?$AA@
	DD	FLAT:??_C@_0BO@CJLEEAKG@data?2battleMap?2battle48?4sabex?$AA@
	DD	FLAT:??_C@_0BO@OFBOEADI@data?2battleMap?2battle49?4sabex?$AA@
	DD	FLAT:??_C@_0BO@ONCKEPFA@data?2battleMap?2battle50?4sabex?$AA@
	DD	FLAT:??_C@_0BO@CBIAEPMO@data?2battleMap?2battle51?4sabex?$AA@
	DD	FLAT:??_C@_0BO@KPAPEICN@data?2battleMap?2battle52?4sabex?$AA@
	DD	FLAT:??_C@_0BO@GDKFEILD@data?2battleMap?2battle53?4sabex?$AA@
	DD	FLAT:??_C@_0BO@GJGAEBKK@data?2battleMap?2battle54?4sabex?$AA@
	DD	FLAT:??_C@_0BO@KFMKEBDE@data?2battleMap?2battle55?4sabex?$AA@
	DD	FLAT:??_C@_0BO@CLEFEGNH@data?2battleMap?2battle56?4sabex?$AA@
	DD	FLAT:??_C@_0BO@OHOPEGEJ@data?2battleMap?2battle57?4sabex?$AA@
	DD	FLAT:??_C@_0BO@DOMPFEOF@data?2battleMap?2battle58?4sabex?$AA@
	DD	FLAT:??_C@_0BO@PCGFFEHL@data?2battleMap?2battle59?4sabex?$AA@
	DD	FLAT:??_C@_0BO@NEKHHDJF@data?2battleMap?2battle60?4sabex?$AA@
	DD	FLAT:??_C@_0BO@BIANHDAL@data?2battleMap?2battle61?4sabex?$AA@
	DD	FLAT:??_C@_0BO@JGICHEOI@data?2battleMap?2battle62?4sabex?$AA@
	DD	FLAT:??_C@_0BO@FKCIHEHG@data?2battleMap?2battle63?4sabex?$AA@
	DD	FLAT:??_C@_0BO@FAONHNGP@data?2battleMap?2battle64?4sabex?$AA@
	DD	FLAT:??_C@_0BO@JMEHHNPB@data?2battleMap?2battle65?4sabex?$AA@
	DD	FLAT:??_C@_0BO@BCMIHKBC@data?2battleMap?2battle66?4sabex?$AA@
	DD	FLAT:??_C@_0BO@NOGCHKIM@data?2battleMap?2battle67?4sabex?$AA@
	DD	FLAT:??_C@_0BO@HECGICA@data?2battleMap?2battle68?4sabex?$AA@
	DD	FLAT:??_C@_0BO@MLOIGILO@data?2battleMap?2battle69?4sabex?$AA@
	DD	FLAT:??_C@_0BO@MDNMGHNG@data?2battleMap?2battle70?4sabex?$AA@
	DD	FLAT:??_C@_0BO@PHGGHEI@data?2battleMap?2battle71?4sabex?$AA@
	DD	FLAT:??_C@_0BO@IBPJGAKL@data?2battleMap?2battle72?4sabex?$AA@
	DD	FLAT:??_C@_0BO@ENFDGADF@data?2battleMap?2battle73?4sabex?$AA@
	DD	FLAT:??_C@_0BO@EHJGGJCM@data?2battleMap?2battle74?4sabex?$AA@
	DD	FLAT:??_C@_0BO@ILDMGJLC@data?2battleMap?2battle75?4sabex?$AA@
	DD	FLAT:??_C@_0BO@FLDGOFB@data?2battleMap?2battle76?4sabex?$AA@
	DD	FLAT:??_C@_0BO@MJBJGOMP@data?2battleMap?2battle77?4sabex?$AA@
	DD	FLAT:??_C@_0BO@BADJHMGD@data?2battleMap?2battle78?4sabex?$AA@
	DD	FLAT:??_C@_0BO@NMJDHMPN@data?2battleMap?2battle79?4sabex?$AA@
	DD	FLAT:??_C@_0BO@BMGFKIAH@data?2battleMap?2battle80?4sabex?$AA@
	DD	FLAT:??_C@_0BO@NAMPKIJJ@data?2battleMap?2battle81?4sabex?$AA@
	DD	FLAT:??_C@_0BO@FOEAKPHK@data?2battleMap?2battle82?4sabex?$AA@
	DD	FLAT:??_C@_0BO@JCOKKPOE@data?2battleMap?2battle83?4sabex?$AA@
	DD	FLAT:??_C@_0BO@JICPKGPN@data?2battleMap?2battle84?4sabex?$AA@
	DD	FLAT:??_C@_0BO@FEIFKGGD@data?2battleMap?2battle85?4sabex?$AA@
	DD	FLAT:??_C@_0BO@NKAKKBIA@data?2battleMap?2battle86?4sabex?$AA@
	DD	FLAT:??_C@_0BO@BGKAKBBO@data?2battleMap?2battle87?4sabex?$AA@
	DD	FLAT:??_C@_0BO@MPIALDLC@data?2battleMap?2battle88?4sabex?$AA@
	DD	FLAT:??_C@_0BO@DCKLDCM@data?2battleMap?2battle89?4sabex?$AA@
	DD	FLAT:??_C@_0BO@LBOLMEE@data?2battleMap?2battle90?4sabex?$AA@
	DD	FLAT:??_C@_0BO@MHLELMNK@data?2battleMap?2battle91?4sabex?$AA@
	DD	FLAT:??_C@_0BO@EJDLLLDJ@data?2battleMap?2battle92?4sabex?$AA@
	DD	FLAT:??_C@_0BO@IFJBLLKH@data?2battleMap?2battle93?4sabex?$AA@
	DD	FLAT:??_C@_0BO@IPFELCLO@data?2battleMap?2battle94?4sabex?$AA@
	DD	FLAT:??_C@_0BO@EDPOLCCA@data?2battleMap?2battle95?4sabex?$AA@
	DD	FLAT:??_C@_0BO@MNHBLFMD@data?2battleMap?2battle96?4sabex?$AA@
	DD	FLAT:??_C@_0BO@BNLLFFN@data?2battleMap?2battle97?4sabex?$AA@
	DD	FLAT:??_C@_0BO@NIPLKHPB@data?2battleMap?2battle98?4sabex?$AA@
	DD	FLAT:??_C@_0BO@BEFBKHGP@data?2battleMap?2battle99?4sabex?$AA@
	DD	FLAT:??_C@_0BP@COCPFCIL@data?2battleMap?2battle100?4sabex?$AA@
	DD	FLAT:??_C@_0BP@OCIFFCBF@data?2battleMap?2battle101?4sabex?$AA@
	DD	FLAT:??_C@_0BP@GMAKFFPG@data?2battleMap?2battle102?4sabex?$AA@
	DD	FLAT:??_C@_0BP@KAKAFFGI@data?2battleMap?2battle103?4sabex?$AA@
	DD	FLAT:??_C@_0BP@KKGFFMHB@data?2battleMap?2battle104?4sabex?$AA@
	DD	FLAT:??_C@_0BP@GGMPFMOP@data?2battleMap?2battle105?4sabex?$AA@
	DD	FLAT:??_C@_0BP@OIEAFLAM@data?2battleMap?2battle106?4sabex?$AA@
	DD	FLAT:??_C@_0BP@CEOKFLJC@data?2battleMap?2battle107?4sabex?$AA@
	DD	FLAT:??_C@_0BP@PNMKEJDO@data?2battleMap?2battle108?4sabex?$AA@
	DD	FLAT:??_C@_0BP@DBGAEJKA@data?2battleMap?2battle109?4sabex?$AA@
	DD	FLAT:??_C@_0BP@DJFEEGMI@data?2battleMap?2battle110?4sabex?$AA@
	DD	FLAT:??_C@_0BP@PFPOEGFG@data?2battleMap?2battle111?4sabex?$AA@
	DD	FLAT:??_C@_0BP@HLHBEBLF@data?2battleMap?2battle112?4sabex?$AA@
	DD	FLAT:??_C@_0BP@LHNLEBCL@data?2battleMap?2battle113?4sabex?$AA@
	DD	FLAT:??_C@_0BP@LNBOEIDC@data?2battleMap?2battle114?4sabex?$AA@
	DD	FLAT:??_C@_0BP@HBLEEIKM@data?2battleMap?2battle115?4sabex?$AA@
	DD	FLAT:??_C@_0BP@PPDLEPEP@data?2battleMap?2battle116?4sabex?$AA@
	DD	FLAT:??_C@_0BP@DDJBEPNB@data?2battleMap?2battle117?4sabex?$AA@
	DD	FLAT:??_C@_0BP@OKLBFNHN@data?2battleMap?2battle118?4sabex?$AA@
	DD	FLAT:??_C@_0BP@CGBLFNOD@data?2battleMap?2battle119?4sabex?$AA@
	DD	FLAT:??_C@_0BP@NJHKAN@data?2battleMap?2battle120?4sabex?$AA@
	DD	FLAT:??_C@_0BP@MMHDHKJD@data?2battleMap?2battle121?4sabex?$AA@
	DD	FLAT:??_C@_0BP@ECPMHNHA@data?2battleMap?2battle122?4sabex?$AA@
	DD	FLAT:??_C@_0BP@IOFGHNOO@data?2battleMap?2battle123?4sabex?$AA@
	DD	FLAT:??_C@_0BP@IEJDHEPH@data?2battleMap?2battle124?4sabex?$AA@
	DD	FLAT:??_C@_0BP@EIDJHEGJ@data?2battleMap?2battle125?4sabex?$AA@
	DD	FLAT:??_C@_0BP@MGLGHDIK@data?2battleMap?2battle126?4sabex?$AA@
	DD	FLAT:??_C@_0BP@KBMHDBE@data?2battleMap?2battle127?4sabex?$AA@
	DD	FLAT:??_C@_0BP@NDDMGBLI@data?2battleMap?2battle128?4sabex?$AA@
	DD	FLAT:??_C@_0BP@BPJGGBCG@data?2battleMap?2battle129?4sabex?$AA@
	DD	FLAT:??_C@_0BP@BHKCGOEO@data?2battleMap?2battle130?4sabex?$AA@
	DD	FLAT:??_C@_0BP@NLAIGONA@data?2battleMap?2battle131?4sabex?$AA@
	DD	FLAT:??_C@_0BP@FFIHGJDD@data?2battleMap?2battle132?4sabex?$AA@
	DD	FLAT:??_C@_0BP@JJCNGJKN@data?2battleMap?2battle133?4sabex?$AA@
	DD	FLAT:??_C@_0BP@JDOIGALE@data?2battleMap?2battle134?4sabex?$AA@
	DD	FLAT:??_C@_0BP@FPECGACK@data?2battleMap?2battle135?4sabex?$AA@
	DD	FLAT:??_C@_0BP@NBMNGHMJ@data?2battleMap?2battle136?4sabex?$AA@
	DD	FLAT:??_C@_0BP@BNGHGHFH@data?2battleMap?2battle137?4sabex?$AA@
	DD	FLAT:??_C@_0BP@MEEHHFPL@data?2battleMap?2battle138?4sabex?$AA@
	DD	FLAT:??_C@_0BP@IONHFGF@data?2battleMap?2battle139?4sabex?$AA@
	DD	FLAT:??_C@_0BP@HDMDADIH@data?2battleMap?2battle140?4sabex?$AA@
	DD	FLAT:??_C@_0BP@LPGJADBJ@data?2battleMap?2battle141?4sabex?$AA@
	DD	FLAT:??_C@_0BP@DBOGAEPK@data?2battleMap?2battle142?4sabex?$AA@
	DD	FLAT:??_C@_0BP@PNEMAEGE@data?2battleMap?2battle143?4sabex?$AA@
	DD	FLAT:??_C@_0BP@PHIJANHN@data?2battleMap?2battle144?4sabex?$AA@
	DD	FLAT:??_C@_0BP@DLCDANOD@data?2battleMap?2battle145?4sabex?$AA@
	DD	FLAT:??_C@_0BP@LFKMAKAA@data?2battleMap?2battle146?4sabex?$AA@
	DD	FLAT:??_C@_0BP@HJAGAKJO@data?2battleMap?2battle147?4sabex?$AA@
	DD	FLAT:??_C@_0BP@KACGBIDC@data?2battleMap?2battle148?4sabex?$AA@
	DD	FLAT:??_C@_0BP@GMIMBIKM@data?2battleMap?2battle149?4sabex?$AA@
	DD	FLAT:??_C@_0BP@GELIBHME@data?2battleMap?2battle150?4sabex?$AA@
	DD	FLAT:??_C@_0BP@KIBCBHFK@data?2battleMap?2battle151?4sabex?$AA@
	DD	FLAT:??_C@_0BP@CGJNBALJ@data?2battleMap?2battle152?4sabex?$AA@
	DD	FLAT:??_C@_0BP@OKDHBACH@data?2battleMap?2battle153?4sabex?$AA@
	DD	FLAT:??_C@_0BP@OAPCBJDO@data?2battleMap?2battle154?4sabex?$AA@
	DD	FLAT:??_C@_0BP@CMFIBJKA@data?2battleMap?2battle155?4sabex?$AA@
	DD	FLAT:??_C@_0BP@KCNHBOED@data?2battleMap?2battle156?4sabex?$AA@
	DD	FLAT:??_C@_0BP@GOHNBONN@data?2battleMap?2battle157?4sabex?$AA@
	DD	FLAT:??_C@_0BP@LHFNAMHB@data?2battleMap?2battle158?4sabex?$AA@
	DD	FLAT:??_C@_0BP@HLPHAMOP@data?2battleMap?2battle159?4sabex?$AA@
	DD	FLAT:??_C@_0BP@FNDFCLAB@data?2battleMap?2battle160?4sabex?$AA@
	DD	FLAT:??_C@_0BP@JBJPCLJP@data?2battleMap?2battle161?4sabex?$AA@
	DD	FLAT:??_C@_0BP@BPBACMHM@data?2battleMap?2battle162?4sabex?$AA@
	DD	FLAT:??_C@_0BP@NDLKCMOC@data?2battleMap?2battle163?4sabex?$AA@
	DD	FLAT:??_C@_0BP@NJHPCFPL@data?2battleMap?2battle164?4sabex?$AA@
	DD	FLAT:??_C@_0BP@BFNFCFGF@data?2battleMap?2battle165?4sabex?$AA@
	DD	FLAT:??_C@_0BP@JLFKCCIG@data?2battleMap?2battle166?4sabex?$AA@
	DD	FLAT:??_C@_0BP@FHPACCBI@data?2battleMap?2battle167?4sabex?$AA@
	DD	FLAT:??_C@_0BP@IONADALE@data?2battleMap?2battle168?4sabex?$AA@
	DD	FLAT:??_C@_0BP@ECHKDACK@data?2battleMap?2battle169?4sabex?$AA@
	DD	FLAT:??_C@_0BP@EKEODPEC@data?2battleMap?2battle170?4sabex?$AA@
	DD	FLAT:??_C@_0BP@IGOEDPNM@data?2battleMap?2battle171?4sabex?$AA@
	DD	FLAT:??_C@_0BP@IGLDIDP@data?2battleMap?2battle172?4sabex?$AA@
	DD	FLAT:??_C@_0BP@MEMBDIKB@data?2battleMap?2battle173?4sabex?$AA@
	DD	FLAT:??_C@_0BP@MOAEDBLI@data?2battleMap?2battle174?4sabex?$AA@
	DD	FLAT:??_C@_0BP@CKODBCG@data?2battleMap?2battle175?4sabex?$AA@
	DD	FLAT:??_C@_0BP@IMCBDGMF@data?2battleMap?2battle176?4sabex?$AA@
	DD	FLAT:??_C@_0BP@EAILDGFL@data?2battleMap?2battle177?4sabex?$AA@
	DD	FLAT:??_C@_0BP@JJKLCEPH@data?2battleMap?2battle178?4sabex?$AA@
	DD	FLAT:??_C@_0BP@FFABCEGJ@data?2battleMap?2battle179?4sabex?$AA@
	DD	FLAT:??_C@_0BP@JFPHPAJD@data?2battleMap?2battle180?4sabex?$AA@
	DD	FLAT:??_C@_0BP@FJFNPAAN@data?2battleMap?2battle181?4sabex?$AA@
	DD	FLAT:??_C@_0BP@NHNCPHOO@data?2battleMap?2battle182?4sabex?$AA@
	DD	FLAT:??_C@_0BP@BLHIPHHA@data?2battleMap?2battle183?4sabex?$AA@
	DD	FLAT:??_C@_0BP@BBLNPOGJ@data?2battleMap?2battle184?4sabex?$AA@
	DD	FLAT:??_C@_0BP@NNBHPOPH@data?2battleMap?2battle185?4sabex?$AA@
	DD	FLAT:??_C@_0BP@FDJIPJBE@data?2battleMap?2battle186?4sabex?$AA@
	DD	FLAT:??_C@_0BP@JPDCPJIK@data?2battleMap?2battle187?4sabex?$AA@
	DD	FLAT:??_C@_0BP@EGBCOLCG@data?2battleMap?2battle188?4sabex?$AA@
	DD	FLAT:??_C@_0BP@IKLIOLLI@data?2battleMap?2battle189?4sabex?$AA@
	DD	FLAT:??_C@_0BP@ICIMOENA@data?2battleMap?2battle190?4sabex?$AA@
	DD	FLAT:??_C@_0BP@EOCGOEEO@data?2battleMap?2battle191?4sabex?$AA@
	DD	FLAT:??_C@_0BP@MAKJODKN@data?2battleMap?2battle192?4sabex?$AA@
	DD	FLAT:??_C@_0BP@MADODDD@data?2battleMap?2battle193?4sabex?$AA@
	DD	FLAT:??_C@_0BP@GMGOKCK@data?2battleMap?2battle194?4sabex?$AA@
	DD	FLAT:??_C@_0BP@MKGMOKLE@data?2battleMap?2battle195?4sabex?$AA@
	DD	FLAT:??_C@_0BP@EEODONFH@data?2battleMap?2battle196?4sabex?$AA@
	DD	FLAT:??_C@_0BP@IIEJONMJ@data?2battleMap?2battle197?4sabex?$AA@
	DD	FLAT:??_C@_0BP@FBGJPPGF@data?2battleMap?2battle198?4sabex?$AA@
	DD	FLAT:??_C@_0BP@JNMDPPPL@data?2battleMap?2battle199?4sabex?$AA@
	DD	FLAT:??_C@_0BP@MFBIOJII@data?2battleMap?2battle200?4sabex?$AA@
	DD	FLAT:??_C@_0BP@JLCOJBG@data?2battleMap?2battle201?4sabex?$AA@
	DD	FLAT:??_C@_0BP@IHDNOOPF@data?2battleMap?2battle202?4sabex?$AA@
	DD	FLAT:??_C@_0BP@ELJHOOGL@data?2battleMap?2battle203?4sabex?$AA@
	DD	FLAT:??_C@_0BP@EBFCOHHC@data?2battleMap?2battle204?4sabex?$AA@
	DD	FLAT:??_C@_0BP@INPIOHOM@data?2battleMap?2battle205?4sabex?$AA@
	DD	FLAT:??_C@_0BP@DHHOAAP@data?2battleMap?2battle206?4sabex?$AA@
	DD	FLAT:??_C@_0BP@MPNNOAJB@data?2battleMap?2battle207?4sabex?$AA@
	DD	FLAT:??_C@_0BP@BGPNPCDN@data?2battleMap?2battle208?4sabex?$AA@
	DD	FLAT:??_C@_0BP@NKFHPCKD@data?2battleMap?2battle209?4sabex?$AA@
	DD	FLAT:??_C@_0BP@NCGDPNML@data?2battleMap?2battle210?4sabex?$AA@
	DD	FLAT:??_C@_0BP@BOMJPNFF@data?2battleMap?2battle211?4sabex?$AA@
	DD	FLAT:??_C@_0BP@JAEGPKLG@data?2battleMap?2battle212?4sabex?$AA@
	DD	FLAT:??_C@_0BP@FMOMPKCI@data?2battleMap?2battle213?4sabex?$AA@
	DD	FLAT:??_C@_0BP@FGCJPDDB@data?2battleMap?2battle214?4sabex?$AA@
	DD	FLAT:??_C@_0BP@JKIDPDKP@data?2battleMap?2battle215?4sabex?$AA@
	DD	FLAT:??_C@_0BP@BEAMPEEM@data?2battleMap?2battle216?4sabex?$AA@
	DD	FLAT:??_C@_0BP@NIKGPENC@data?2battleMap?2battle217?4sabex?$AA@
	DD	FLAT:??_C@_0BP@BIGOGHO@data?2battleMap?2battle218?4sabex?$AA@
	DD	FLAT:??_C@_0BP@MNCMOGOA@data?2battleMap?2battle219?4sabex?$AA@
?iCrystalBattleMap@@3PAY02HA DD 07184H			; iCrystalBattleMap
	DD	07185H
	DD	07186H
	DD	07182H
	DD	07183H
	DD	0718aH
	DD	07187H
	DD	07188H
	DD	07189H
	DD	07181H
	DD	0718bH
	DD	0718cH
?piyo_tbl@@3PAHA DD 00H					; piyo_tbl
	DD	01H
	DD	02H
	DD	03H
	DD	04H
	DD	05H
	DD	06H
	DD	07H
	DD	08H
	DD	09H
	DD	0aH
	DD	0aH
	DD	0bH
	DD	0bH
	DD	0bH
	DD	0cH
	DD	0cH
	DD	0cH
	DD	0bH
	DD	0bH
	DD	0bH
	DD	0aH
	DD	09H
	DD	09H
	DD	08H
	DD	07H
	DD	06H
	DD	05H
	DD	04H
	DD	03H
	DD	02H
	DD	01H
	DD	00H
	DD	0ffffffffH
	DD	0fffffffeH
	DD	0fffffffdH
	DD	0fffffffcH
	DD	0fffffffbH
	DD	0fffffffaH
	DD	0fffffff9H
	DD	0fffffff8H
	DD	0fffffff7H
	DD	0fffffff6H
	DD	0fffffff6H
	DD	0fffffff5H
	DD	0fffffff5H
	DD	0fffffff5H
	DD	0fffffff4H
	DD	0fffffff4H
	DD	0fffffff4H
	DD	0fffffff5H
	DD	0fffffff5H
	DD	0fffffff5H
	DD	0fffffff6H
	DD	0fffffff7H
	DD	0fffffff7H
	DD	0fffffff8H
	DD	0fffffff9H
	DD	0fffffffaH
	DD	0fffffffbH
	DD	0fffffffcH
	DD	0fffffffdH
	DD	0fffffffeH
	DD	0ffffffffH
_DATA	ENDS
PUBLIC	?strstr@@YAPADQADQBD@Z				; strstr
PUBLIC	___local_stdio_printf_options
PUBLIC	??$__vcrt_va_start_verify_argument_type@QBD@@YAXXZ ; __vcrt_va_start_verify_argument_type<char const * const>
PUBLIC	__vsnprintf_l
PUBLIC	__vsprintf_l
PUBLIC	_sprintf
PUBLIC	?ReadBattleMap@@YAHH@Z				; ReadBattleMap
PUBLIC	?DrawBattleMap@@YAXXZ				; DrawBattleMap
PUBLIC	?_OptionsStorage@?1??__local_stdio_printf_options@@9@4_KA ; `__local_stdio_printf_options'::`2'::_OptionsStorage
PUBLIC	??_C@_02JDPG@rb?$AA@				; `string'
PUBLIC	??_C@_0L@PJGJFGHP@?$CFs?$DP?v?$KC?c?w?$DP?$KB?$KD?$AA@ ; `string'
PUBLIC	??_C@_07BFAHKAHO@?$DP?$DP?r?$KC?$DP?$DP?$DP?$AA@ ; `string'
PUBLIC	??_C@_03LEBEEKNP@SAB?$AA@			; `string'
PUBLIC	??_C@_0O@FAJIIGGH@SAB?5?$DP?d?P?$NM?t?p?m?n?$KE?$AA@ ; `string'
PUBLIC	__real@4008000000000000
PUBLIC	__real@4010000000000000
PUBLIC	__real@4014000000000000
PUBLIC	__real@40e0000000000000
EXTRN	___report_rangecheckfailure:PROC
EXTRN	__imp__strstr:PROC
EXTRN	__imp__MessageBoxA@16:PROC
EXTRN	__imp__rand:PROC
EXTRN	__imp__fclose:PROC
EXTRN	__imp__fgetc:PROC
EXTRN	__imp__fopen:PROC
EXTRN	__imp__fread:PROC
EXTRN	__imp____stdio_common_vsprintf:PROC
EXTRN	?StockDispBuffer@@YAHHHEHH@Z:PROC		; StockDispBuffer
EXTRN	?FreeGetBattleMap@@YAHH@Z:PROC			; FreeGetBattleMap
EXTRN	@_RTC_CheckStackVars@8:PROC
EXTRN	@__security_check_cookie@4:PROC
EXTRN	__RTC_CheckEsp:PROC
EXTRN	__RTC_InitBase:PROC
EXTRN	__RTC_Shutdown:PROC
EXTRN	?DISPLACEMENT_X@@3HA:DWORD			; DISPLACEMENT_X
EXTRN	?DISPLACEMENT_Y@@3HA:DWORD			; DISPLACEMENT_Y
EXTRN	?lpBattleSurface@@3PAUIDirectDrawSurface@@A:DWORD ; lpBattleSurface
EXTRN	?lpDraw@@3PAUDIRECT_DRAW@@A:DWORD		; lpDraw
EXTRN	?DEF_APPSIZEX@@3HA:DWORD			; DEF_APPSIZEX
EXTRN	?DEF_APPSIZEY@@3HA:DWORD			; DEF_APPSIZEY
EXTRN	?hWnd@@3PAUHWND__@@A:DWORD			; hWnd
EXTRN	?ResoMode@@3HA:DWORD				; ResoMode
EXTRN	?g_iRunEarthQuake@@3HA:DWORD			; g_iRunEarthQuake
EXTRN	?g_iCurRunEarthQuake@@3HA:DWORD			; g_iCurRunEarthQuake
EXTRN	?nowFloor@@3HA:DWORD				; nowFloor
EXTRN	?nowFloor@@3HA:DWORD				; nowFloor
EXTRN	___security_cookie:DWORD
EXTRN	__fltused:DWORD
;	COMDAT ?_OptionsStorage@?1??__local_stdio_printf_options@@9@4_KA
_BSS	SEGMENT
?_OptionsStorage@?1??__local_stdio_printf_options@@9@4_KA DQ 01H DUP (?) ; `__local_stdio_printf_options'::`2'::_OptionsStorage
_BSS	ENDS
;	COMDAT __real@40e0000000000000
CONST	SEGMENT
__real@40e0000000000000 DQ 040e0000000000000r	; 32768
CONST	ENDS
;	COMDAT __real@4014000000000000
CONST	SEGMENT
__real@4014000000000000 DQ 04014000000000000r	; 5
CONST	ENDS
;	COMDAT __real@4010000000000000
CONST	SEGMENT
__real@4010000000000000 DQ 04010000000000000r	; 4
CONST	ENDS
;	COMDAT __real@4008000000000000
CONST	SEGMENT
__real@4008000000000000 DQ 04008000000000000r	; 3
CONST	ENDS
;	COMDAT rtc$TMZ
rtc$TMZ	SEGMENT
__RTC_Shutdown.rtc$TMZ DD FLAT:__RTC_Shutdown
rtc$TMZ	ENDS
;	COMDAT rtc$IMZ
rtc$IMZ	SEGMENT
__RTC_InitBase.rtc$IMZ DD FLAT:__RTC_InitBase
rtc$IMZ	ENDS
;	COMDAT ??_C@_0O@FAJIIGGH@SAB?5?$DP?d?P?$NM?t?p?m?n?$KE?$AA@
CONST	SEGMENT
??_C@_0O@FAJIIGGH@SAB?5?$DP?d?P?$NM?t?p?m?n?$KE?$AA@ DB 'SAB ?', 0e4H, 0d0H
	DB	0dcH, 0f4H, 0f0H, 0edH, 0eeH, 0a4H, 00H	; `string'
CONST	ENDS
;	COMDAT ??_C@_03LEBEEKNP@SAB?$AA@
CONST	SEGMENT
??_C@_03LEBEEKNP@SAB?$AA@ DB 'SAB', 00H			; `string'
CONST	ENDS
;	COMDAT ??_C@_07BFAHKAHO@?$DP?$DP?r?$KC?$DP?$DP?$DP?$AA@
CONST	SEGMENT
??_C@_07BFAHKAHO@?$DP?$DP?r?$KC?$DP?$DP?$DP?$AA@ DB '??', 0f2H, 0a2H, '??'
	DB	'?', 00H					; `string'
CONST	ENDS
;	COMDAT ??_C@_0L@PJGJFGHP@?$CFs?$DP?v?$KC?c?w?$DP?$KB?$KD?$AA@
CONST	SEGMENT
??_C@_0L@PJGJFGHP@?$CFs?$DP?v?$KC?c?w?$DP?$KB?$KD?$AA@ DB '%s?', 0f6H, 0a2H
	DB	0e3H, 0f7H, '?', 0a1H, 0a3H, 00H		; `string'
CONST	ENDS
;	COMDAT ??_C@_02JDPG@rb?$AA@
CONST	SEGMENT
??_C@_02JDPG@rb?$AA@ DB 'rb', 00H			; `string'
CONST	ENDS
; Function compile flags: /Odtp /RTCsu /ZI
; File c:\users\administrator\desktop\????? ??\????? ??\client source code\system\battlemap.cpp
;	COMDAT ?DrawBattleMap@@YAXXZ
_TEXT	SEGMENT
tv77 = -356						; size = 4
_h$1 = -156						; size = 4
_w$2 = -144						; size = 4
_y0$3 = -132						; size = 2
_x0$4 = -120						; size = 2
_by$ = -108						; size = 2
_bx$ = -96						; size = 2
_value$ = -84						; size = 4
_d7$ = -72						; size = 4
_d6$ = -60						; size = 4
_d1$ = -48						; size = 4
_d0$ = -36						; size = 4
_rect$ = -24						; size = 16
__$ArrayPad$ = -4					; size = 4
?DrawBattleMap@@YAXXZ PROC				; DrawBattleMap, COMDAT

; 250  : {

  00000	55		 push	 ebp
  00001	8b ec		 mov	 ebp, esp
  00003	81 ec 64 01 00
	00		 sub	 esp, 356		; 00000164H
  00009	53		 push	 ebx
  0000a	56		 push	 esi
  0000b	57		 push	 edi
  0000c	8d bd 9c fe ff
	ff		 lea	 edi, DWORD PTR [ebp-356]
  00012	b9 59 00 00 00	 mov	 ecx, 89			; 00000059H
  00017	b8 cc cc cc cc	 mov	 eax, -858993460		; ccccccccH
  0001c	f3 ab		 rep stosd
  0001e	a1 00 00 00 00	 mov	 eax, DWORD PTR ___security_cookie
  00023	33 c5		 xor	 eax, ebp
  00025	89 45 fc	 mov	 DWORD PTR __$ArrayPad$[ebp], eax

; 251  : 	RECT rect = { 0, 0, DEF_APPSIZEX, DEF_APPSIZEY };

  00028	c7 45 e8 00 00
	00 00		 mov	 DWORD PTR _rect$[ebp], 0
  0002f	c7 45 ec 00 00
	00 00		 mov	 DWORD PTR _rect$[ebp+4], 0
  00036	a1 00 00 00 00	 mov	 eax, DWORD PTR ?DEF_APPSIZEX@@3HA ; DEF_APPSIZEX
  0003b	89 45 f0	 mov	 DWORD PTR _rect$[ebp+8], eax
  0003e	a1 00 00 00 00	 mov	 eax, DWORD PTR ?DEF_APPSIZEY@@3HA ; DEF_APPSIZEY
  00043	89 45 f4	 mov	 DWORD PTR _rect$[ebp+12], eax

; 252  : 	int d0,d1,d6,d7,value;
; 253  : 	short bx , by;
; 254  : 	
; 255  : #ifdef __ATTACK_MAGIC
; 256  : 	// 
; 257  : #ifdef _NEWDRAWBATTLEMAP		   // Syu ADD BattleMap
; 258  : 	extern int nowFloor;
; 259  : 	if( ( BattleMapNo >= 148 && BattleMapNo <= 150 ) || 2 == g_iRunEarthQuake || 
; 260  : 		nowFloor == 817 || nowFloor == 8007 || nowFloor == 8101 || nowFloor == 8100 || 
; 261  : 		nowFloor == 8027 || nowFloor == 8028 || nowFloor == 8029 || nowFloor == 8015 || nowFloor == 8113 || nowFloor == 8114 ){

  00046	81 3d 00 00 00
	00 94 00 00 00	 cmp	 DWORD PTR ?BattleMapNo@@3HA, 148 ; BattleMapNo, 00000094H
  00050	7c 10		 jl	 SHORT $LN13@DrawBattle
  00052	81 3d 00 00 00
	00 96 00 00 00	 cmp	 DWORD PTR ?BattleMapNo@@3HA, 150 ; BattleMapNo, 00000096H
  0005c	0f 8e 81 00 00
	00		 jle	 $LN12@DrawBattle
$LN13@DrawBattle:
  00062	83 3d 00 00 00
	00 02		 cmp	 DWORD PTR ?g_iRunEarthQuake@@3HA, 2 ; g_iRunEarthQuake
  00069	74 78		 je	 SHORT $LN12@DrawBattle
  0006b	81 3d 00 00 00
	00 31 03 00 00	 cmp	 DWORD PTR ?nowFloor@@3HA, 817 ; nowFloor, 00000331H
  00075	74 6c		 je	 SHORT $LN12@DrawBattle
  00077	81 3d 00 00 00
	00 47 1f 00 00	 cmp	 DWORD PTR ?nowFloor@@3HA, 8007 ; nowFloor, 00001f47H
  00081	74 60		 je	 SHORT $LN12@DrawBattle
  00083	81 3d 00 00 00
	00 a5 1f 00 00	 cmp	 DWORD PTR ?nowFloor@@3HA, 8101 ; nowFloor, 00001fa5H
  0008d	74 54		 je	 SHORT $LN12@DrawBattle
  0008f	81 3d 00 00 00
	00 a4 1f 00 00	 cmp	 DWORD PTR ?nowFloor@@3HA, 8100 ; nowFloor, 00001fa4H
  00099	74 48		 je	 SHORT $LN12@DrawBattle
  0009b	81 3d 00 00 00
	00 5b 1f 00 00	 cmp	 DWORD PTR ?nowFloor@@3HA, 8027 ; nowFloor, 00001f5bH
  000a5	74 3c		 je	 SHORT $LN12@DrawBattle
  000a7	81 3d 00 00 00
	00 5c 1f 00 00	 cmp	 DWORD PTR ?nowFloor@@3HA, 8028 ; nowFloor, 00001f5cH
  000b1	74 30		 je	 SHORT $LN12@DrawBattle
  000b3	81 3d 00 00 00
	00 5d 1f 00 00	 cmp	 DWORD PTR ?nowFloor@@3HA, 8029 ; nowFloor, 00001f5dH
  000bd	74 24		 je	 SHORT $LN12@DrawBattle
  000bf	81 3d 00 00 00
	00 4f 1f 00 00	 cmp	 DWORD PTR ?nowFloor@@3HA, 8015 ; nowFloor, 00001f4fH
  000c9	74 18		 je	 SHORT $LN12@DrawBattle
  000cb	81 3d 00 00 00
	00 b1 1f 00 00	 cmp	 DWORD PTR ?nowFloor@@3HA, 8113 ; nowFloor, 00001fb1H
  000d5	74 0c		 je	 SHORT $LN12@DrawBattle
  000d7	81 3d 00 00 00
	00 b2 1f 00 00	 cmp	 DWORD PTR ?nowFloor@@3HA, 8114 ; nowFloor, 00001fb2H
  000e1	75 09		 jne	 SHORT $LN10@DrawBattle
$LN12@DrawBattle:

; 262  : #else
; 263  : 	if( ( BattleMapNo >= 148 && BattleMapNo <= 150 ) || 2 == g_iRunEarthQuake ){
; 264  : #endif
; 265  : #else
; 266  : 	if(BattleMapNo >= 148 && BattleMapNo <= 150){		//???????????
; 267  : #endif
; 268  : 
; 269  : 		d1 = 1;

  000e3	c7 45 d0 01 00
	00 00		 mov	 DWORD PTR _d1$[ebp], 1

; 270  : 	} else {

  000ea	eb 07		 jmp	 SHORT $LN11@DrawBattle
$LN10@DrawBattle:

; 271  : 		d1 = 0;

  000ec	c7 45 d0 00 00
	00 00		 mov	 DWORD PTR _d1$[ebp], 0
$LN11@DrawBattle:

; 272  : 	}
; 273  : 
; 274  : 	switch( d1 ){

  000f3	8b 45 d0	 mov	 eax, DWORD PTR _d1$[ebp]
  000f6	89 85 9c fe ff
	ff		 mov	 DWORD PTR tv77[ebp], eax
  000fc	83 bd 9c fe ff
	ff 00		 cmp	 DWORD PTR tv77[ebp], 0
  00103	74 1f		 je	 SHORT $LN14@DrawBattle
  00105	83 bd 9c fe ff
	ff 01		 cmp	 DWORD PTR tv77[ebp], 1
  0010c	0f 84 72 01 00
	00		 je	 $LN21@DrawBattle
  00112	83 bd 9c fe ff
	ff 02		 cmp	 DWORD PTR tv77[ebp], 2
  00119	0f 84 1d 02 00
	00		 je	 $LN22@DrawBattle
  0011f	e9 f0 02 00 00	 jmp	 $LN1@DrawBattle
$LN14@DrawBattle:

; 275  : 	case 0:
; 276  : 		bx = 0;

  00124	33 c0		 xor	 eax, eax
  00126	66 89 45 a0	 mov	 WORD PTR _bx$[ebp], ax

; 277  : 		by = 0;

  0012a	33 c0		 xor	 eax, eax
  0012c	66 89 45 94	 mov	 WORD PTR _by$[ebp], ax

; 278  : 		short x0, y0;
; 279  : 		long w, h;
; 280  : 		// ???????
; 281  : 		x0 = bx;

  00130	66 8b 45 a0	 mov	 ax, WORD PTR _bx$[ebp]
  00134	66 89 45 88	 mov	 WORD PTR _x0$4[ebp], ax

; 282  : 		y0 = by;

  00138	66 8b 45 94	 mov	 ax, WORD PTR _by$[ebp]
  0013c	66 89 85 7c ff
	ff ff		 mov	 WORD PTR _y0$3[ebp], ax

; 283  : 		w = rect.right - rect.left;

  00143	8b 45 f0	 mov	 eax, DWORD PTR _rect$[ebp+8]
  00146	2b 45 e8	 sub	 eax, DWORD PTR _rect$[ebp]
  00149	89 85 70 ff ff
	ff		 mov	 DWORD PTR _w$2[ebp], eax

; 284  : 		h = rect.bottom - rect.top;

  0014f	8b 45 f4	 mov	 eax, DWORD PTR _rect$[ebp+12]
  00152	2b 45 ec	 sub	 eax, DWORD PTR _rect$[ebp+4]
  00155	89 85 64 ff ff
	ff		 mov	 DWORD PTR _h$1[ebp], eax

; 285  : 		// ????????
; 286  : 		//   ????? RECT ??????????????
; 287  : 
; 288  : 		// u??????????
; 289  : 		if( bx >= lpDraw->xSize || bx + w <= 0 || by >= lpDraw->ySize || by + h <= 0 ){

  0015b	0f bf 45 a0	 movsx	 eax, WORD PTR _bx$[ebp]
  0015f	8b 0d 00 00 00
	00		 mov	 ecx, DWORD PTR ?lpDraw@@3PAUDIRECT_DRAW@@A ; lpDraw
  00165	3b 81 84 00 00
	00		 cmp	 eax, DWORD PTR [ecx+132]
  0016b	7d 2e		 jge	 SHORT $LN16@DrawBattle
  0016d	0f bf 45 a0	 movsx	 eax, WORD PTR _bx$[ebp]
  00171	03 85 70 ff ff
	ff		 add	 eax, DWORD PTR _w$2[ebp]
  00177	85 c0		 test	 eax, eax
  00179	7e 20		 jle	 SHORT $LN16@DrawBattle
  0017b	0f bf 45 94	 movsx	 eax, WORD PTR _by$[ebp]
  0017f	8b 0d 00 00 00
	00		 mov	 ecx, DWORD PTR ?lpDraw@@3PAUDIRECT_DRAW@@A ; lpDraw
  00185	3b 81 88 00 00
	00		 cmp	 eax, DWORD PTR [ecx+136]
  0018b	7d 0e		 jge	 SHORT $LN16@DrawBattle
  0018d	0f bf 45 94	 movsx	 eax, WORD PTR _by$[ebp]
  00191	03 85 64 ff ff
	ff		 add	 eax, DWORD PTR _h$1[ebp]
  00197	85 c0		 test	 eax, eax
  00199	7f 05		 jg	 SHORT $LN15@DrawBattle
$LN16@DrawBattle:

; 290  : 			return;

  0019b	e9 74 02 00 00	 jmp	 $LN1@DrawBattle
$LN15@DrawBattle:

; 291  : 		}
; 292  : 		// ?Z?????
; 293  : 		if( bx < 0 ){

  001a0	0f bf 45 a0	 movsx	 eax, WORD PTR _bx$[ebp]
  001a4	85 c0		 test	 eax, eax
  001a6	7d 12		 jge	 SHORT $LN17@DrawBattle

; 294  : 			rect.left -= bx;

  001a8	0f bf 45 a0	 movsx	 eax, WORD PTR _bx$[ebp]
  001ac	8b 4d e8	 mov	 ecx, DWORD PTR _rect$[ebp]
  001af	2b c8		 sub	 ecx, eax
  001b1	89 4d e8	 mov	 DWORD PTR _rect$[ebp], ecx

; 295  : 			x0 = 0;

  001b4	33 c0		 xor	 eax, eax
  001b6	66 89 45 88	 mov	 WORD PTR _x0$4[ebp], ax
$LN17@DrawBattle:

; 296  : 		}
; 297  : 		// ?Z?????
; 298  : 		if( bx + w > lpDraw->xSize ){

  001ba	0f bf 45 a0	 movsx	 eax, WORD PTR _bx$[ebp]
  001be	03 85 70 ff ff
	ff		 add	 eax, DWORD PTR _w$2[ebp]
  001c4	8b 0d 00 00 00
	00		 mov	 ecx, DWORD PTR ?lpDraw@@3PAUDIRECT_DRAW@@A ; lpDraw
  001ca	3b 81 84 00 00
	00		 cmp	 eax, DWORD PTR [ecx+132]
  001d0	7e 1e		 jle	 SHORT $LN18@DrawBattle

; 299  : 			rect.right -= bx + w - lpDraw->xSize;

  001d2	0f bf 45 a0	 movsx	 eax, WORD PTR _bx$[ebp]
  001d6	03 85 70 ff ff
	ff		 add	 eax, DWORD PTR _w$2[ebp]
  001dc	8b 0d 00 00 00
	00		 mov	 ecx, DWORD PTR ?lpDraw@@3PAUDIRECT_DRAW@@A ; lpDraw
  001e2	2b 81 84 00 00
	00		 sub	 eax, DWORD PTR [ecx+132]
  001e8	8b 55 f0	 mov	 edx, DWORD PTR _rect$[ebp+8]
  001eb	2b d0		 sub	 edx, eax
  001ed	89 55 f0	 mov	 DWORD PTR _rect$[ebp+8], edx
$LN18@DrawBattle:

; 300  : 		}
; 301  : 		// Z?????
; 302  : 		if( by < 0 ){

  001f0	0f bf 45 94	 movsx	 eax, WORD PTR _by$[ebp]
  001f4	85 c0		 test	 eax, eax
  001f6	7d 15		 jge	 SHORT $LN19@DrawBattle

; 303  : 			rect.top -= by;

  001f8	0f bf 45 94	 movsx	 eax, WORD PTR _by$[ebp]
  001fc	8b 4d ec	 mov	 ecx, DWORD PTR _rect$[ebp+4]
  001ff	2b c8		 sub	 ecx, eax
  00201	89 4d ec	 mov	 DWORD PTR _rect$[ebp+4], ecx

; 304  : 			y0 = 0;

  00204	33 c0		 xor	 eax, eax
  00206	66 89 85 7c ff
	ff ff		 mov	 WORD PTR _y0$3[ebp], ax
$LN19@DrawBattle:

; 305  : 		}
; 306  : 		// ?Z?????
; 307  : 		if( by + h > lpDraw->ySize ){

  0020d	0f bf 45 94	 movsx	 eax, WORD PTR _by$[ebp]
  00211	03 85 64 ff ff
	ff		 add	 eax, DWORD PTR _h$1[ebp]
  00217	8b 0d 00 00 00
	00		 mov	 ecx, DWORD PTR ?lpDraw@@3PAUDIRECT_DRAW@@A ; lpDraw
  0021d	3b 81 88 00 00
	00		 cmp	 eax, DWORD PTR [ecx+136]
  00223	7e 1e		 jle	 SHORT $LN20@DrawBattle

; 308  : 			rect.bottom -= by + h - lpDraw->ySize;

  00225	0f bf 45 94	 movsx	 eax, WORD PTR _by$[ebp]
  00229	03 85 64 ff ff
	ff		 add	 eax, DWORD PTR _h$1[ebp]
  0022f	8b 0d 00 00 00
	00		 mov	 ecx, DWORD PTR ?lpDraw@@3PAUDIRECT_DRAW@@A ; lpDraw
  00235	2b 81 88 00 00
	00		 sub	 eax, DWORD PTR [ecx+136]
  0023b	8b 55 f4	 mov	 edx, DWORD PTR _rect$[ebp+12]
  0023e	2b d0		 sub	 edx, eax
  00240	89 55 f4	 mov	 DWORD PTR _rect$[ebp+12], edx
$LN20@DrawBattle:

; 309  : 		}
; 310  : 		
; 311  : #ifdef _STONDEBUG_		
; 312  : 		// ?????????????????
; 313  : 		SurfaceDispCnt++;
; 314  : #endif
; 315  : 		// ??????????L?
; 316  : 		lpDraw->lpBACKBUFFER->BltFast( x0, y0, lpBattleSurface, &rect, DDBLTFAST_WAIT );

  00243	8b f4		 mov	 esi, esp
  00245	6a 10		 push	 16			; 00000010H
  00247	8d 45 e8	 lea	 eax, DWORD PTR _rect$[ebp]
  0024a	50		 push	 eax
  0024b	8b 0d 00 00 00
	00		 mov	 ecx, DWORD PTR ?lpBattleSurface@@3PAUIDirectDrawSurface@@A ; lpBattleSurface
  00251	51		 push	 ecx
  00252	0f bf 95 7c ff
	ff ff		 movsx	 edx, WORD PTR _y0$3[ebp]
  00259	52		 push	 edx
  0025a	0f bf 45 88	 movsx	 eax, WORD PTR _x0$4[ebp]
  0025e	50		 push	 eax
  0025f	8b 0d 00 00 00
	00		 mov	 ecx, DWORD PTR ?lpDraw@@3PAUDIRECT_DRAW@@A ; lpDraw
  00265	8b 51 0c	 mov	 edx, DWORD PTR [ecx+12]
  00268	a1 00 00 00 00	 mov	 eax, DWORD PTR ?lpDraw@@3PAUDIRECT_DRAW@@A ; lpDraw
  0026d	8b 48 0c	 mov	 ecx, DWORD PTR [eax+12]
  00270	8b 12		 mov	 edx, DWORD PTR [edx]
  00272	51		 push	 ecx
  00273	8b 42 1c	 mov	 eax, DWORD PTR [edx+28]
  00276	ff d0		 call	 eax
  00278	3b f4		 cmp	 esi, esp
  0027a	e8 00 00 00 00	 call	 __RTC_CheckEsp

; 317  : #ifdef _READ16BITBMP
; 318  : 		if(g_bUseAlpha) lpDraw->lpBACKBUFFERSYS->BltFast(x0,y0,lpBattleSurfaceSys,&rect,DDBLTFAST_WAIT);
; 319  : #endif
; 320  : 		break;

  0027f	e9 90 01 00 00	 jmp	 $LN1@DrawBattle
$LN21@DrawBattle:

; 321  : 	case 1:
; 322  : 
; 323  : 		value		 = piyo_point;

  00284	a1 00 00 00 00	 mov	 eax, DWORD PTR ?piyo_point@@3HA ; piyo_point
  00289	89 45 ac	 mov	 DWORD PTR _value$[ebp], eax

; 324  : 		d6			 = 0;

  0028c	c7 45 c4 00 00
	00 00		 mov	 DWORD PTR _d6$[ebp], 0

; 325  : 
; 326  : #ifdef __ATTACK_MAGIC
; 327  : 
; 328  : 		value		+= g_iCurRunEarthQuake;

  00293	8b 45 ac	 mov	 eax, DWORD PTR _value$[ebp]
  00296	03 05 00 00 00
	00		 add	 eax, DWORD PTR ?g_iCurRunEarthQuake@@3HA ; g_iCurRunEarthQuake
  0029c	89 45 ac	 mov	 DWORD PTR _value$[ebp], eax

; 329  : 
; 330  : #endif
; 331  : 
; 332  : 		rect.left = 0;		//?Z

  0029f	c7 45 e8 00 00
	00 00		 mov	 DWORD PTR _rect$[ebp], 0

; 333  : 		rect.right = 640 + DISPLACEMENT_X;		//?Z

  002a6	a1 00 00 00 00	 mov	 eax, DWORD PTR ?DISPLACEMENT_X@@3HA ; DISPLACEMENT_X
  002ab	05 80 02 00 00	 add	 eax, 640		; 00000280H
  002b0	89 45 f0	 mov	 DWORD PTR _rect$[ebp+8], eax

; 334  : 	/*	if(BattleMapAdvance < 10){
; 335  : 			BattleMapAdvance ++;
; 336  : 			return;
; 337  : 		}
; 338  : 		else
; 339  : 			BattleMapAdvance =0;*/
; 340  : 
; 341  : 		for(d7=0; d7 < 480 + DISPLACEMENT_Y; d7+=RASTER_CLEARANCE){

  002b3	c7 45 b8 00 00
	00 00		 mov	 DWORD PTR _d7$[ebp], 0
  002ba	eb 09		 jmp	 SHORT $LN6@DrawBattle
$LN4@DrawBattle:
  002bc	8b 45 b8	 mov	 eax, DWORD PTR _d7$[ebp]
  002bf	83 c0 08	 add	 eax, 8
  002c2	89 45 b8	 mov	 DWORD PTR _d7$[ebp], eax
$LN6@DrawBattle:
  002c5	a1 00 00 00 00	 mov	 eax, DWORD PTR ?DISPLACEMENT_Y@@3HA ; DISPLACEMENT_Y
  002ca	05 e0 01 00 00	 add	 eax, 480		; 000001e0H
  002cf	39 45 b8	 cmp	 DWORD PTR _d7$[ebp], eax
  002d2	7d 63		 jge	 SHORT $LN5@DrawBattle

; 342  : 			rect.top = d7 + piyo_tbl[(d6+value) & 63] + 12;		//Z

  002d4	8b 45 c4	 mov	 eax, DWORD PTR _d6$[ebp]
  002d7	03 45 ac	 add	 eax, DWORD PTR _value$[ebp]
  002da	83 e0 3f	 and	 eax, 63			; 0000003fH
  002dd	8b 0c 85 00 00
	00 00		 mov	 ecx, DWORD PTR ?piyo_tbl@@3PAHA[eax*4]
  002e4	8b 55 b8	 mov	 edx, DWORD PTR _d7$[ebp]
  002e7	8d 44 0a 0c	 lea	 eax, DWORD PTR [edx+ecx+12]
  002eb	89 45 ec	 mov	 DWORD PTR _rect$[ebp+4], eax

; 343  : 			rect.bottom = rect.top + RASTER_CLEARANCE;		//?Z

  002ee	8b 45 ec	 mov	 eax, DWORD PTR _rect$[ebp+4]
  002f1	83 c0 08	 add	 eax, 8
  002f4	89 45 f4	 mov	 DWORD PTR _rect$[ebp+12], eax

; 344  : 			// ??????????L?
; 345  : 			lpDraw->lpBACKBUFFER->BltFast( 0, d7, lpBattleSurface, &rect, DDBLTFAST_WAIT );

  002f7	8b f4		 mov	 esi, esp
  002f9	6a 10		 push	 16			; 00000010H
  002fb	8d 45 e8	 lea	 eax, DWORD PTR _rect$[ebp]
  002fe	50		 push	 eax
  002ff	8b 0d 00 00 00
	00		 mov	 ecx, DWORD PTR ?lpBattleSurface@@3PAUIDirectDrawSurface@@A ; lpBattleSurface
  00305	51		 push	 ecx
  00306	8b 55 b8	 mov	 edx, DWORD PTR _d7$[ebp]
  00309	52		 push	 edx
  0030a	6a 00		 push	 0
  0030c	a1 00 00 00 00	 mov	 eax, DWORD PTR ?lpDraw@@3PAUDIRECT_DRAW@@A ; lpDraw
  00311	8b 48 0c	 mov	 ecx, DWORD PTR [eax+12]
  00314	8b 15 00 00 00
	00		 mov	 edx, DWORD PTR ?lpDraw@@3PAUDIRECT_DRAW@@A ; lpDraw
  0031a	8b 42 0c	 mov	 eax, DWORD PTR [edx+12]
  0031d	8b 09		 mov	 ecx, DWORD PTR [ecx]
  0031f	50		 push	 eax
  00320	8b 51 1c	 mov	 edx, DWORD PTR [ecx+28]
  00323	ff d2		 call	 edx
  00325	3b f4		 cmp	 esi, esp
  00327	e8 00 00 00 00	 call	 __RTC_CheckEsp

; 346  : #ifdef _READ16BITBMP
; 347  : 			if(g_bUseAlpha) lpDraw->lpBACKBUFFERSYS->BltFast(0,d7,lpBattleSurfaceSys,&rect,DDBLTFAST_WAIT);
; 348  : #endif
; 349  : 			d6++;

  0032c	8b 45 c4	 mov	 eax, DWORD PTR _d6$[ebp]
  0032f	83 c0 01	 add	 eax, 1
  00332	89 45 c4	 mov	 DWORD PTR _d6$[ebp], eax

; 350  : 		}

  00335	eb 85		 jmp	 SHORT $LN4@DrawBattle
$LN5@DrawBattle:

; 351  : 		break;

  00337	e9 d8 00 00 00	 jmp	 $LN1@DrawBattle
$LN22@DrawBattle:

; 352  : 	case 2:
; 353  : 		d6 = 0;

  0033c	c7 45 c4 00 00
	00 00		 mov	 DWORD PTR _d6$[ebp], 0

; 354  : 		for(d7=0; d7<480 + DISPLACEMENT_Y; d7+=RASTER_CLEARANCE/2){

  00343	c7 45 b8 00 00
	00 00		 mov	 DWORD PTR _d7$[ebp], 0
  0034a	eb 09		 jmp	 SHORT $LN9@DrawBattle
$LN7@DrawBattle:
  0034c	8b 45 b8	 mov	 eax, DWORD PTR _d7$[ebp]
  0034f	83 c0 04	 add	 eax, 4
  00352	89 45 b8	 mov	 DWORD PTR _d7$[ebp], eax
$LN9@DrawBattle:
  00355	a1 00 00 00 00	 mov	 eax, DWORD PTR ?DISPLACEMENT_Y@@3HA ; DISPLACEMENT_Y
  0035a	05 e0 01 00 00	 add	 eax, 480		; 000001e0H
  0035f	39 45 b8	 cmp	 DWORD PTR _d7$[ebp], eax
  00362	0f 8d ac 00 00
	00		 jge	 $LN1@DrawBattle

; 355  : 
; 356  : 			rect.top = d7;		//Z

  00368	8b 45 b8	 mov	 eax, DWORD PTR _d7$[ebp]
  0036b	89 45 ec	 mov	 DWORD PTR _rect$[ebp+4], eax

; 357  : 			rect.bottom = rect.top + RASTER_CLEARANCE;		//?Z

  0036e	8b 45 ec	 mov	 eax, DWORD PTR _rect$[ebp+4]
  00371	83 c0 08	 add	 eax, 8
  00374	89 45 f4	 mov	 DWORD PTR _rect$[ebp+12], eax

; 358  : 
; 359  : 			d0 = piyo_tbl[(d6+piyo_point) & 63] / 2;		//?Z

  00377	8b 45 c4	 mov	 eax, DWORD PTR _d6$[ebp]
  0037a	03 05 00 00 00
	00		 add	 eax, DWORD PTR ?piyo_point@@3HA ; piyo_point
  00380	83 e0 3f	 and	 eax, 63			; 0000003fH
  00383	8b 04 85 00 00
	00 00		 mov	 eax, DWORD PTR ?piyo_tbl@@3PAHA[eax*4]
  0038a	99		 cdq
  0038b	2b c2		 sub	 eax, edx
  0038d	d1 f8		 sar	 eax, 1
  0038f	89 45 dc	 mov	 DWORD PTR _d0$[ebp], eax

; 360  : 			if(d0 < 0){		//??????

  00392	79 24		 jns	 SHORT $LN23@DrawBattle

; 361  : 				rect.left = 0 - d0;

  00394	33 c0		 xor	 eax, eax
  00396	2b 45 dc	 sub	 eax, DWORD PTR _d0$[ebp]
  00399	89 45 e8	 mov	 DWORD PTR _rect$[ebp], eax

; 362  : 				rect.right = 640 + DISPLACEMENT_X+ d0;		//?Z

  0039c	8b 45 dc	 mov	 eax, DWORD PTR _d0$[ebp]
  0039f	8b 0d 00 00 00
	00		 mov	 ecx, DWORD PTR ?DISPLACEMENT_X@@3HA ; DISPLACEMENT_X
  003a5	8d 94 01 80 02
	00 00		 lea	 edx, DWORD PTR [ecx+eax+640]
  003ac	89 55 f0	 mov	 DWORD PTR _rect$[ebp+8], edx

; 363  : 				d0 = 0;

  003af	c7 45 dc 00 00
	00 00		 mov	 DWORD PTR _d0$[ebp], 0

; 364  : 			} else {

  003b6	eb 17		 jmp	 SHORT $LN24@DrawBattle
$LN23@DrawBattle:

; 365  : 				rect.left = 0;

  003b8	c7 45 e8 00 00
	00 00		 mov	 DWORD PTR _rect$[ebp], 0

; 366  : 				rect.right = 640 + DISPLACEMENT_X- d0;		//?Z

  003bf	a1 00 00 00 00	 mov	 eax, DWORD PTR ?DISPLACEMENT_X@@3HA ; DISPLACEMENT_X
  003c4	05 80 02 00 00	 add	 eax, 640		; 00000280H
  003c9	2b 45 dc	 sub	 eax, DWORD PTR _d0$[ebp]
  003cc	89 45 f0	 mov	 DWORD PTR _rect$[ebp+8], eax
$LN24@DrawBattle:

; 367  : 			}
; 368  : 			// ??????????L?
; 369  : 			lpDraw->lpBACKBUFFER->BltFast( d0, d7, lpBattleSurface, &rect, DDBLTFAST_WAIT );

  003cf	8b f4		 mov	 esi, esp
  003d1	6a 10		 push	 16			; 00000010H
  003d3	8d 45 e8	 lea	 eax, DWORD PTR _rect$[ebp]
  003d6	50		 push	 eax
  003d7	8b 0d 00 00 00
	00		 mov	 ecx, DWORD PTR ?lpBattleSurface@@3PAUIDirectDrawSurface@@A ; lpBattleSurface
  003dd	51		 push	 ecx
  003de	8b 55 b8	 mov	 edx, DWORD PTR _d7$[ebp]
  003e1	52		 push	 edx
  003e2	8b 45 dc	 mov	 eax, DWORD PTR _d0$[ebp]
  003e5	50		 push	 eax
  003e6	8b 0d 00 00 00
	00		 mov	 ecx, DWORD PTR ?lpDraw@@3PAUDIRECT_DRAW@@A ; lpDraw
  003ec	8b 51 0c	 mov	 edx, DWORD PTR [ecx+12]
  003ef	a1 00 00 00 00	 mov	 eax, DWORD PTR ?lpDraw@@3PAUDIRECT_DRAW@@A ; lpDraw
  003f4	8b 48 0c	 mov	 ecx, DWORD PTR [eax+12]
  003f7	8b 12		 mov	 edx, DWORD PTR [edx]
  003f9	51		 push	 ecx
  003fa	8b 42 1c	 mov	 eax, DWORD PTR [edx+28]
  003fd	ff d0		 call	 eax
  003ff	3b f4		 cmp	 esi, esp
  00401	e8 00 00 00 00	 call	 __RTC_CheckEsp

; 370  : #ifdef _READ16BITBMP
; 371  : 			if(g_bUseAlpha) lpDraw->lpBACKBUFFERSYS->BltFast(d0,d7,lpBattleSurfaceSys,&rect,DDBLTFAST_WAIT);
; 372  : #endif
; 373  : 			d6++;

  00406	8b 45 c4	 mov	 eax, DWORD PTR _d6$[ebp]
  00409	83 c0 01	 add	 eax, 1
  0040c	89 45 c4	 mov	 DWORD PTR _d6$[ebp], eax

; 374  : 		}

  0040f	e9 38 ff ff ff	 jmp	 $LN7@DrawBattle
$LN1@DrawBattle:

; 375  : 		break;
; 376  : 	}
; 377  : }

  00414	52		 push	 edx
  00415	8b cd		 mov	 ecx, ebp
  00417	50		 push	 eax
  00418	8d 15 00 00 00
	00		 lea	 edx, DWORD PTR $LN28@DrawBattle
  0041e	e8 00 00 00 00	 call	 @_RTC_CheckStackVars@8
  00423	58		 pop	 eax
  00424	5a		 pop	 edx
  00425	5f		 pop	 edi
  00426	5e		 pop	 esi
  00427	5b		 pop	 ebx
  00428	8b 4d fc	 mov	 ecx, DWORD PTR __$ArrayPad$[ebp]
  0042b	33 cd		 xor	 ecx, ebp
  0042d	e8 00 00 00 00	 call	 @__security_check_cookie@4
  00432	81 c4 64 01 00
	00		 add	 esp, 356		; 00000164H
  00438	3b ec		 cmp	 ebp, esp
  0043a	e8 00 00 00 00	 call	 __RTC_CheckEsp
  0043f	8b e5		 mov	 esp, ebp
  00441	5d		 pop	 ebp
  00442	c3		 ret	 0
  00443	90		 npad	 1
$LN28@DrawBattle:
  00444	01 00 00 00	 DD	 1
  00448	00 00 00 00	 DD	 $LN27@DrawBattle
$LN27@DrawBattle:
  0044c	e8 ff ff ff	 DD	 -24			; ffffffe8H
  00450	10 00 00 00	 DD	 16			; 00000010H
  00454	00 00 00 00	 DD	 $LN26@DrawBattle
$LN26@DrawBattle:
  00458	72		 DB	 114			; 00000072H
  00459	65		 DB	 101			; 00000065H
  0045a	63		 DB	 99			; 00000063H
  0045b	74		 DB	 116			; 00000074H
  0045c	00		 DB	 0
?DrawBattleMap@@YAXXZ ENDP				; DrawBattleMap
_TEXT	ENDS
; Function compile flags: /Odtp /RTCsu /ZI
; File c:\users\administrator\desktop\????? ??\????? ??\client source code\system\battlemap.cpp
;	COMDAT ?ReadBattleMap@@YAHH@Z
_TEXT	SEGMENT
tv332 = -3760						; size = 4
tv142 = -3760						; size = 4
$T1 = -3752						; size = 4
_c2$ = -2588						; size = 2
_c1$ = -2576						; size = 2
_posY$ = -2564						; size = 4
_posX$ = -2552						; size = 4
_y$ = -2540						; size = 4
_x$ = -2528						; size = 4
_j$ = -2516						; size = 4
_i$ = -2504						; size = 4
_cnt$ = -2492						; size = 4
_tile$ = -2480						; size = 2178
_header$ = -292						; size = 5
_fp$ = -276						; size = 4
_msg$ = -264						; size = 256
__$ArrayPad$ = -4					; size = 4
_no$ = 8						; size = 4
?ReadBattleMap@@YAHH@Z PROC				; ReadBattleMap, COMDAT

; 54   : {

  00000	55		 push	 ebp
  00001	8b ec		 mov	 ebp, esp
  00003	81 ec b0 0e 00
	00		 sub	 esp, 3760		; 00000eb0H
  00009	53		 push	 ebx
  0000a	56		 push	 esi
  0000b	57		 push	 edi
  0000c	8d bd 50 f1 ff
	ff		 lea	 edi, DWORD PTR [ebp-3760]
  00012	b9 ac 03 00 00	 mov	 ecx, 940		; 000003acH
  00017	b8 cc cc cc cc	 mov	 eax, -858993460		; ccccccccH
  0001c	f3 ab		 rep stosd
  0001e	a1 00 00 00 00	 mov	 eax, DWORD PTR ___security_cookie
  00023	33 c5		 xor	 eax, ebp
  00025	89 45 fc	 mov	 DWORD PTR __$ArrayPad$[ebp], eax

; 55   : 
; 56   : 	//#ifdef _NEWDRAWBATTLEMAP_FIX		   // ()ROG ADD 
; 57   : 	//	ddrawBattleMap();
; 58   : 	//#else
; 59   : #ifndef _NB_
; 60   : 	if (ResoMode){	//JL fix 
; 61   : 		ddrawBattleMap();
; 62   : 	}else{
; 63   : #endif
; 64   : 		char msg[256];
; 65   : 		FILE *fp;
; 66   : 		char header[5];
; 67   : #ifdef _NB_
; 68   : 		unsigned short tile[1089];
; 69   : #else
; 70   : 		unsigned short tile[BATTLE_MAP_SIZE];
; 71   : #endif
; 72   : 		int cnt = 0;

  00028	c7 85 44 f6 ff
	ff 00 00 00 00	 mov	 DWORD PTR _cnt$[ebp], 0

; 73   : 		int i, j, x = 0, y = 0, posX, posY;

  00032	c7 85 20 f6 ff
	ff 00 00 00 00	 mov	 DWORD PTR _x$[ebp], 0
  0003c	c7 85 14 f6 ff
	ff 00 00 00 00	 mov	 DWORD PTR _y$[ebp], 0

; 74   : 		unsigned short c1, c2;
; 75   : 		// ????????
; 76   : 		if (no >= BATTLE_MAP_FILES)

  00046	81 7d 08 dc 00
	00 00		 cmp	 DWORD PTR _no$[ebp], 220 ; 000000dcH
  0004d	7c 07		 jl	 SHORT $LN13@ReadBattle

; 77   : 			no = 0;

  0004f	c7 45 08 00 00
	00 00		 mov	 DWORD PTR _no$[ebp], 0
$LN13@ReadBattle:

; 78   : 		// ??????k???
; 79   : 		BattleMapNo = no;

  00056	8b 45 08	 mov	 eax, DWORD PTR _no$[ebp]
  00059	a3 00 00 00 00	 mov	 DWORD PTR ?BattleMapNo@@3HA, eax ; BattleMapNo

; 80   : 		// ??????????????
; 81   : 		if ((fp = fopen(BattleMapFile[no], "rb")) == NULL) {

  0005e	8b f4		 mov	 esi, esp
  00060	68 00 00 00 00	 push	 OFFSET ??_C@_02JDPG@rb?$AA@
  00065	8b 45 08	 mov	 eax, DWORD PTR _no$[ebp]
  00068	8b 0c 85 00 00
	00 00		 mov	 ecx, DWORD PTR ?BattleMapFile@@3PAPADA[eax*4]
  0006f	51		 push	 ecx
  00070	ff 15 00 00 00
	00		 call	 DWORD PTR __imp__fopen
  00076	83 c4 08	 add	 esp, 8
  00079	3b f4		 cmp	 esi, esp
  0007b	e8 00 00 00 00	 call	 __RTC_CheckEsp
  00080	89 85 ec fe ff
	ff		 mov	 DWORD PTR _fp$[ebp], eax
  00086	83 bd ec fe ff
	ff 00		 cmp	 DWORD PTR _fp$[ebp], 0
  0008d	75 4a		 jne	 SHORT $LN14@ReadBattle

; 82   : 			sprintf(msg, "%s", BattleMapFile[no]);

  0008f	8b 45 08	 mov	 eax, DWORD PTR _no$[ebp]
  00092	8b 0c 85 00 00
	00 00		 mov	 ecx, DWORD PTR ?BattleMapFile@@3PAPADA[eax*4]
  00099	51		 push	 ecx
  0009a	68 00 00 00 00	 push	 OFFSET ??_C@_0L@PJGJFGHP@?$CFs?$DP?v?$KC?c?w?$DP?$KB?$KD?$AA@
  0009f	8d 95 f8 fe ff
	ff		 lea	 edx, DWORD PTR _msg$[ebp]
  000a5	52		 push	 edx
  000a6	e8 00 00 00 00	 call	 _sprintf
  000ab	83 c4 0c	 add	 esp, 12			; 0000000cH

; 83   : 			MessageBox(hWnd, msg, "", MB_OK | MB_ICONSTOP);

  000ae	8b f4		 mov	 esi, esp
  000b0	6a 10		 push	 16			; 00000010H
  000b2	68 00 00 00 00	 push	 OFFSET ??_C@_07BFAHKAHO@?$DP?$DP?r?$KC?$DP?$DP?$DP?$AA@
  000b7	8d 85 f8 fe ff
	ff		 lea	 eax, DWORD PTR _msg$[ebp]
  000bd	50		 push	 eax
  000be	8b 0d 00 00 00
	00		 mov	 ecx, DWORD PTR ?hWnd@@3PAUHWND__@@A ; hWnd
  000c4	51		 push	 ecx
  000c5	ff 15 00 00 00
	00		 call	 DWORD PTR __imp__MessageBoxA@16
  000cb	3b f4		 cmp	 esi, esp
  000cd	e8 00 00 00 00	 call	 __RTC_CheckEsp

; 84   : 			return FALSE;

  000d2	33 c0		 xor	 eax, eax
  000d4	e9 3a 09 00 00	 jmp	 $LN1@ReadBattle
$LN14@ReadBattle:

; 85   : 		}
; 86   : 		fread(header, sizeof(char), 4, fp);

  000d9	8b f4		 mov	 esi, esp
  000db	8b 85 ec fe ff
	ff		 mov	 eax, DWORD PTR _fp$[ebp]
  000e1	50		 push	 eax
  000e2	6a 04		 push	 4
  000e4	6a 01		 push	 1
  000e6	8d 8d dc fe ff
	ff		 lea	 ecx, DWORD PTR _header$[ebp]
  000ec	51		 push	 ecx
  000ed	ff 15 00 00 00
	00		 call	 DWORD PTR __imp__fread
  000f3	83 c4 10	 add	 esp, 16			; 00000010H
  000f6	3b f4		 cmp	 esi, esp
  000f8	e8 00 00 00 00	 call	 __RTC_CheckEsp

; 87   : 		header[4] = '\0';

  000fd	b8 01 00 00 00	 mov	 eax, 1
  00102	c1 e0 02	 shl	 eax, 2
  00105	89 85 58 f1 ff
	ff		 mov	 DWORD PTR $T1[ebp], eax
  0010b	83 bd 58 f1 ff
	ff 05		 cmp	 DWORD PTR $T1[ebp], 5
  00112	73 02		 jae	 SHORT $LN66@ReadBattle
  00114	eb 05		 jmp	 SHORT $LN67@ReadBattle
$LN66@ReadBattle:
  00116	e8 00 00 00 00	 call	 ___report_rangecheckfailure
$LN67@ReadBattle:
  0011b	8b 8d 58 f1 ff
	ff		 mov	 ecx, DWORD PTR $T1[ebp]
  00121	c6 84 0d dc fe
	ff ff 00	 mov	 BYTE PTR _header$[ebp+ecx], 0

; 88   : 		if (!(strstr(header, "SAB")))

  00129	68 00 00 00 00	 push	 OFFSET ??_C@_03LEBEEKNP@SAB?$AA@
  0012e	8d 85 dc fe ff
	ff		 lea	 eax, DWORD PTR _header$[ebp]
  00134	50		 push	 eax
  00135	e8 00 00 00 00	 call	 ?strstr@@YAPADQADQBD@Z	; strstr
  0013a	83 c4 08	 add	 esp, 8
  0013d	85 c0		 test	 eax, eax
  0013f	75 21		 jne	 SHORT $LN15@ReadBattle

; 89   : 			MessageBox(hWnd, "SAB ", "", MB_OK | MB_ICONSTOP);

  00141	8b f4		 mov	 esi, esp
  00143	6a 10		 push	 16			; 00000010H
  00145	68 00 00 00 00	 push	 OFFSET ??_C@_07BFAHKAHO@?$DP?$DP?r?$KC?$DP?$DP?$DP?$AA@
  0014a	68 00 00 00 00	 push	 OFFSET ??_C@_0O@FAJIIGGH@SAB?5?$DP?d?P?$NM?t?p?m?n?$KE?$AA@
  0014f	a1 00 00 00 00	 mov	 eax, DWORD PTR ?hWnd@@3PAUHWND__@@A ; hWnd
  00154	50		 push	 eax
  00155	ff 15 00 00 00
	00		 call	 DWORD PTR __imp__MessageBoxA@16
  0015b	3b f4		 cmp	 esi, esp
  0015d	e8 00 00 00 00	 call	 __RTC_CheckEsp
$LN15@ReadBattle:

; 90   : #ifdef _NB_
; 91   : 		for (i = 0; i < 1089; i++) {

  00162	c7 85 38 f6 ff
	ff 00 00 00 00	 mov	 DWORD PTR _i$[ebp], 0
  0016c	eb 0f		 jmp	 SHORT $LN4@ReadBattle
$LN2@ReadBattle:
  0016e	8b 85 38 f6 ff
	ff		 mov	 eax, DWORD PTR _i$[ebp]
  00174	83 c0 01	 add	 eax, 1
  00177	89 85 38 f6 ff
	ff		 mov	 DWORD PTR _i$[ebp], eax
$LN4@ReadBattle:
  0017d	81 bd 38 f6 ff
	ff 41 04 00 00	 cmp	 DWORD PTR _i$[ebp], 1089 ; 00000441H
  00187	7d 63		 jge	 SHORT $LN3@ReadBattle

; 92   : #else
; 93   : 		for (i = 0; i < BATTLE_MAP_SIZE; i++) {
; 94   : #endif
; 95   : 			c1 = fgetc(fp);

  00189	8b f4		 mov	 esi, esp
  0018b	8b 85 ec fe ff
	ff		 mov	 eax, DWORD PTR _fp$[ebp]
  00191	50		 push	 eax
  00192	ff 15 00 00 00
	00		 call	 DWORD PTR __imp__fgetc
  00198	83 c4 04	 add	 esp, 4
  0019b	3b f4		 cmp	 esi, esp
  0019d	e8 00 00 00 00	 call	 __RTC_CheckEsp
  001a2	66 89 85 f0 f5
	ff ff		 mov	 WORD PTR _c1$[ebp], ax

; 96   : 			c2 = fgetc(fp);

  001a9	8b f4		 mov	 esi, esp
  001ab	8b 85 ec fe ff
	ff		 mov	 eax, DWORD PTR _fp$[ebp]
  001b1	50		 push	 eax
  001b2	ff 15 00 00 00
	00		 call	 DWORD PTR __imp__fgetc
  001b8	83 c4 04	 add	 esp, 4
  001bb	3b f4		 cmp	 esi, esp
  001bd	e8 00 00 00 00	 call	 __RTC_CheckEsp
  001c2	66 89 85 e4 f5
	ff ff		 mov	 WORD PTR _c2$[ebp], ax

; 97   : 			tile[i] = (c1 << 8) | c2;

  001c9	0f b7 85 f0 f5
	ff ff		 movzx	 eax, WORD PTR _c1$[ebp]
  001d0	c1 e0 08	 shl	 eax, 8
  001d3	0f b7 8d e4 f5
	ff ff		 movzx	 ecx, WORD PTR _c2$[ebp]
  001da	0b c1		 or	 eax, ecx
  001dc	8b 95 38 f6 ff
	ff		 mov	 edx, DWORD PTR _i$[ebp]
  001e2	66 89 84 55 50
	f6 ff ff	 mov	 WORD PTR _tile$[ebp+edx*2], ax

; 98   : 		}

  001ea	eb 82		 jmp	 SHORT $LN2@ReadBattle
$LN3@ReadBattle:

; 99   : 		fclose(fp);

  001ec	8b f4		 mov	 esi, esp
  001ee	8b 85 ec fe ff
	ff		 mov	 eax, DWORD PTR _fp$[ebp]
  001f4	50		 push	 eax
  001f5	ff 15 00 00 00
	00		 call	 DWORD PTR __imp__fclose
  001fb	83 c4 04	 add	 esp, 4
  001fe	3b f4		 cmp	 esi, esp
  00200	e8 00 00 00 00	 call	 __RTC_CheckEsp

; 100  : 		//ROG FIX 
; 101  : 		
; 102  : #ifdef _NB_
; 103  : 		switch (ResoMode)

  00205	a1 00 00 00 00	 mov	 eax, DWORD PTR ?ResoMode@@3HA ; ResoMode
  0020a	89 85 50 f1 ff
	ff		 mov	 DWORD PTR tv142[ebp], eax
  00210	83 bd 50 f1 ff
	ff 03		 cmp	 DWORD PTR tv142[ebp], 3
  00217	74 21		 je	 SHORT $LN17@ReadBattle
  00219	83 bd 50 f1 ff
	ff 04		 cmp	 DWORD PTR tv142[ebp], 4
  00220	74 02		 je	 SHORT $LN16@ReadBattle
  00222	eb 2c		 jmp	 SHORT $LN18@ReadBattle
$LN16@ReadBattle:

; 104  : 		{
; 105  : 		case ::mode1024:
; 106  : 			posX = -512;

  00224	c7 85 08 f6 ff
	ff 00 fe ff ff	 mov	 DWORD PTR _posX$[ebp], -512 ; fffffe00H

; 107  : 			posY = 384;

  0022e	c7 85 fc f5 ff
	ff 80 01 00 00	 mov	 DWORD PTR _posY$[ebp], 384 ; 00000180H

; 108  : 			break;

  00238	eb 3a		 jmp	 SHORT $LN5@ReadBattle
$LN17@ReadBattle:

; 109  : 		case  ::mode800:
; 110  : 			posX = -416;

  0023a	c7 85 08 f6 ff
	ff 60 fe ff ff	 mov	 DWORD PTR _posX$[ebp], -416 ; fffffe60H

; 111  : 			posY = 272;

  00244	c7 85 fc f5 ff
	ff 10 01 00 00	 mov	 DWORD PTR _posY$[ebp], 272 ; 00000110H

; 112  : 			break;

  0024e	eb 24		 jmp	 SHORT $LN5@ReadBattle
$LN18@ReadBattle:

; 113  : 		default:
; 114  : 			posX = 32 * (-9) + (DISPLACEMENT_X >> 1);

  00250	a1 00 00 00 00	 mov	 eax, DWORD PTR ?DISPLACEMENT_X@@3HA ; DISPLACEMENT_X
  00255	d1 f8		 sar	 eax, 1
  00257	2d 20 01 00 00	 sub	 eax, 288		; 00000120H
  0025c	89 85 08 f6 ff
	ff		 mov	 DWORD PTR _posX$[ebp], eax

; 115  : 			posY = 24 * 10 + (DISPLACEMENT_Y >> 1);

  00262	a1 00 00 00 00	 mov	 eax, DWORD PTR ?DISPLACEMENT_Y@@3HA ; DISPLACEMENT_Y
  00267	d1 f8		 sar	 eax, 1
  00269	05 f0 00 00 00	 add	 eax, 240		; 000000f0H
  0026e	89 85 fc f5 ff
	ff		 mov	 DWORD PTR _posY$[ebp], eax
$LN5@ReadBattle:

; 116  : 			break;
; 117  : 		}
; 118  : 		
; 119  : #else
; 120  : 		posX = 32 * (-9) + (DISPLACEMENT_X >> 1);
; 121  : 		posY = 24 * 10 + (DISPLACEMENT_Y >> 1);
; 122  : #endif
; 123  : #ifdef _NEWDRAWBATTLEMAP		   // Syu ADD BattleMap
; 124  : 		extern int nowFloor;
; 125  : 
; 126  : 		if (((nowFloor == 817) || (nowFloor == 8007) || (nowFloor == 8101) || (nowFloor == 8100) ||
; 127  : 			(nowFloor == 8027) || (nowFloor == 8028) || (nowFloor == 8029) || (nowFloor == 8015) ||
; 128  : 			(nowFloor == 151) || (nowFloor == 160) || (nowFloor == 161) || (nowFloor >= 30022 && nowFloor <= 30025) || nowFloor == 8113 || nowFloor == 8114
; 129  : #ifdef _8BATTLEMAP
; 130  : 			|| (nowFloor >= 78 && nowFloor <= 99) || nowFloor == 8107 || (nowFloor >= 8108 && nowFloor <= 8112) || (nowFloor >= 8116 && nowFloor <= 8120) || (nowFloor >= 8124 && nowFloor <= 8126) || nowFloor == 7500 || nowFloor == 7530 || nowFloor == 7600
; 131  : #endif
; 132  : 			)
; 133  : 			&& (RandBattleBg == 0))

  00274	81 3d 00 00 00
	00 31 03 00 00	 cmp	 DWORD PTR ?nowFloor@@3HA, 817 ; nowFloor, 00000331H
  0027e	0f 84 6a 01 00
	00		 je	 $LN21@ReadBattle
  00284	81 3d 00 00 00
	00 47 1f 00 00	 cmp	 DWORD PTR ?nowFloor@@3HA, 8007 ; nowFloor, 00001f47H
  0028e	0f 84 5a 01 00
	00		 je	 $LN21@ReadBattle
  00294	81 3d 00 00 00
	00 a5 1f 00 00	 cmp	 DWORD PTR ?nowFloor@@3HA, 8101 ; nowFloor, 00001fa5H
  0029e	0f 84 4a 01 00
	00		 je	 $LN21@ReadBattle
  002a4	81 3d 00 00 00
	00 a4 1f 00 00	 cmp	 DWORD PTR ?nowFloor@@3HA, 8100 ; nowFloor, 00001fa4H
  002ae	0f 84 3a 01 00
	00		 je	 $LN21@ReadBattle
  002b4	81 3d 00 00 00
	00 5b 1f 00 00	 cmp	 DWORD PTR ?nowFloor@@3HA, 8027 ; nowFloor, 00001f5bH
  002be	0f 84 2a 01 00
	00		 je	 $LN21@ReadBattle
  002c4	81 3d 00 00 00
	00 5c 1f 00 00	 cmp	 DWORD PTR ?nowFloor@@3HA, 8028 ; nowFloor, 00001f5cH
  002ce	0f 84 1a 01 00
	00		 je	 $LN21@ReadBattle
  002d4	81 3d 00 00 00
	00 5d 1f 00 00	 cmp	 DWORD PTR ?nowFloor@@3HA, 8029 ; nowFloor, 00001f5dH
  002de	0f 84 0a 01 00
	00		 je	 $LN21@ReadBattle
  002e4	81 3d 00 00 00
	00 4f 1f 00 00	 cmp	 DWORD PTR ?nowFloor@@3HA, 8015 ; nowFloor, 00001f4fH
  002ee	0f 84 fa 00 00
	00		 je	 $LN21@ReadBattle
  002f4	81 3d 00 00 00
	00 97 00 00 00	 cmp	 DWORD PTR ?nowFloor@@3HA, 151 ; nowFloor, 00000097H
  002fe	0f 84 ea 00 00
	00		 je	 $LN21@ReadBattle
  00304	81 3d 00 00 00
	00 a0 00 00 00	 cmp	 DWORD PTR ?nowFloor@@3HA, 160 ; nowFloor, 000000a0H
  0030e	0f 84 da 00 00
	00		 je	 $LN21@ReadBattle
  00314	81 3d 00 00 00
	00 a1 00 00 00	 cmp	 DWORD PTR ?nowFloor@@3HA, 161 ; nowFloor, 000000a1H
  0031e	0f 84 ca 00 00
	00		 je	 $LN21@ReadBattle
  00324	81 3d 00 00 00
	00 46 75 00 00	 cmp	 DWORD PTR ?nowFloor@@3HA, 30022 ; nowFloor, 00007546H
  0032e	7c 10		 jl	 SHORT $LN22@ReadBattle
  00330	81 3d 00 00 00
	00 49 75 00 00	 cmp	 DWORD PTR ?nowFloor@@3HA, 30025 ; nowFloor, 00007549H
  0033a	0f 8e ae 00 00
	00		 jle	 $LN21@ReadBattle
$LN22@ReadBattle:
  00340	81 3d 00 00 00
	00 b1 1f 00 00	 cmp	 DWORD PTR ?nowFloor@@3HA, 8113 ; nowFloor, 00001fb1H
  0034a	0f 84 9e 00 00
	00		 je	 $LN21@ReadBattle
  00350	81 3d 00 00 00
	00 b2 1f 00 00	 cmp	 DWORD PTR ?nowFloor@@3HA, 8114 ; nowFloor, 00001fb2H
  0035a	0f 84 8e 00 00
	00		 je	 $LN21@ReadBattle
  00360	83 3d 00 00 00
	00 4e		 cmp	 DWORD PTR ?nowFloor@@3HA, 78 ; nowFloor, 0000004eH
  00367	7c 09		 jl	 SHORT $LN23@ReadBattle
  00369	83 3d 00 00 00
	00 63		 cmp	 DWORD PTR ?nowFloor@@3HA, 99 ; nowFloor, 00000063H
  00370	7e 7c		 jle	 SHORT $LN21@ReadBattle
$LN23@ReadBattle:
  00372	81 3d 00 00 00
	00 ab 1f 00 00	 cmp	 DWORD PTR ?nowFloor@@3HA, 8107 ; nowFloor, 00001fabH
  0037c	74 70		 je	 SHORT $LN21@ReadBattle
  0037e	81 3d 00 00 00
	00 ac 1f 00 00	 cmp	 DWORD PTR ?nowFloor@@3HA, 8108 ; nowFloor, 00001facH
  00388	7c 0c		 jl	 SHORT $LN24@ReadBattle
  0038a	81 3d 00 00 00
	00 b0 1f 00 00	 cmp	 DWORD PTR ?nowFloor@@3HA, 8112 ; nowFloor, 00001fb0H
  00394	7e 58		 jle	 SHORT $LN21@ReadBattle
$LN24@ReadBattle:
  00396	81 3d 00 00 00
	00 b4 1f 00 00	 cmp	 DWORD PTR ?nowFloor@@3HA, 8116 ; nowFloor, 00001fb4H
  003a0	7c 0c		 jl	 SHORT $LN25@ReadBattle
  003a2	81 3d 00 00 00
	00 b8 1f 00 00	 cmp	 DWORD PTR ?nowFloor@@3HA, 8120 ; nowFloor, 00001fb8H
  003ac	7e 40		 jle	 SHORT $LN21@ReadBattle
$LN25@ReadBattle:
  003ae	81 3d 00 00 00
	00 bc 1f 00 00	 cmp	 DWORD PTR ?nowFloor@@3HA, 8124 ; nowFloor, 00001fbcH
  003b8	7c 0c		 jl	 SHORT $LN26@ReadBattle
  003ba	81 3d 00 00 00
	00 be 1f 00 00	 cmp	 DWORD PTR ?nowFloor@@3HA, 8126 ; nowFloor, 00001fbeH
  003c4	7e 28		 jle	 SHORT $LN21@ReadBattle
$LN26@ReadBattle:
  003c6	81 3d 00 00 00
	00 4c 1d 00 00	 cmp	 DWORD PTR ?nowFloor@@3HA, 7500 ; nowFloor, 00001d4cH
  003d0	74 1c		 je	 SHORT $LN21@ReadBattle
  003d2	81 3d 00 00 00
	00 6a 1d 00 00	 cmp	 DWORD PTR ?nowFloor@@3HA, 7530 ; nowFloor, 00001d6aH
  003dc	74 10		 je	 SHORT $LN21@ReadBattle
  003de	81 3d 00 00 00
	00 b0 1d 00 00	 cmp	 DWORD PTR ?nowFloor@@3HA, 7600 ; nowFloor, 00001db0H
  003e8	0f 85 16 03 00
	00		 jne	 $LN19@ReadBattle
$LN21@ReadBattle:
  003ee	83 3d 00 00 00
	00 00		 cmp	 DWORD PTR ?RandBattleBg@@3HA, 0 ; RandBattleBg
  003f5	0f 85 09 03 00
	00		 jne	 $LN19@ReadBattle

; 134  : 		{
; 135  : 			RandBattleBg = RAND(0, 4);

  003fb	8b f4		 mov	 esi, esp
  003fd	ff 15 00 00 00
	00		 call	 DWORD PTR __imp__rand
  00403	3b f4		 cmp	 esi, esp
  00405	e8 00 00 00 00	 call	 __RTC_CheckEsp
  0040a	f2 0f 2a c0	 cvtsi2sd xmm0, eax
  0040e	f2 0f 59 05 00
	00 00 00	 mulsd	 xmm0, QWORD PTR __real@4014000000000000
  00416	f2 0f 5e 05 00
	00 00 00	 divsd	 xmm0, QWORD PTR __real@40e0000000000000
  0041e	f2 0f 2c c0	 cvttsd2si eax, xmm0
  00422	a3 00 00 00 00	 mov	 DWORD PTR ?RandBattleBg@@3HA, eax ; RandBattleBg

; 136  : 			if (RandBattleBg == 0) RandBattleBg = 29001;

  00427	83 3d 00 00 00
	00 00		 cmp	 DWORD PTR ?RandBattleBg@@3HA, 0 ; RandBattleBg
  0042e	75 0c		 jne	 SHORT $LN27@ReadBattle
  00430	c7 05 00 00 00
	00 49 71 00 00	 mov	 DWORD PTR ?RandBattleBg@@3HA, 29001 ; RandBattleBg, 00007149H
  0043a	eb 52		 jmp	 SHORT $LN35@ReadBattle
$LN27@ReadBattle:

; 137  : 			else if (RandBattleBg == 1) RandBattleBg = 29020;

  0043c	83 3d 00 00 00
	00 01		 cmp	 DWORD PTR ?RandBattleBg@@3HA, 1 ; RandBattleBg
  00443	75 0c		 jne	 SHORT $LN29@ReadBattle
  00445	c7 05 00 00 00
	00 5c 71 00 00	 mov	 DWORD PTR ?RandBattleBg@@3HA, 29020 ; RandBattleBg, 0000715cH
  0044f	eb 3d		 jmp	 SHORT $LN35@ReadBattle
$LN29@ReadBattle:

; 138  : 			else if (RandBattleBg == 2) RandBattleBg = 29019;

  00451	83 3d 00 00 00
	00 02		 cmp	 DWORD PTR ?RandBattleBg@@3HA, 2 ; RandBattleBg
  00458	75 0c		 jne	 SHORT $LN31@ReadBattle
  0045a	c7 05 00 00 00
	00 5b 71 00 00	 mov	 DWORD PTR ?RandBattleBg@@3HA, 29019 ; RandBattleBg, 0000715bH
  00464	eb 28		 jmp	 SHORT $LN35@ReadBattle
$LN31@ReadBattle:

; 139  : 			else if (RandBattleBg == 3) RandBattleBg = 29024;

  00466	83 3d 00 00 00
	00 03		 cmp	 DWORD PTR ?RandBattleBg@@3HA, 3 ; RandBattleBg
  0046d	75 0c		 jne	 SHORT $LN33@ReadBattle
  0046f	c7 05 00 00 00
	00 60 71 00 00	 mov	 DWORD PTR ?RandBattleBg@@3HA, 29024 ; RandBattleBg, 00007160H
  00479	eb 13		 jmp	 SHORT $LN35@ReadBattle
$LN33@ReadBattle:

; 140  : 			else if (RandBattleBg == 4) RandBattleBg = 29025;

  0047b	83 3d 00 00 00
	00 04		 cmp	 DWORD PTR ?RandBattleBg@@3HA, 4 ; RandBattleBg
  00482	75 0a		 jne	 SHORT $LN35@ReadBattle
  00484	c7 05 00 00 00
	00 61 71 00 00	 mov	 DWORD PTR ?RandBattleBg@@3HA, 29025 ; RandBattleBg, 00007161H
$LN35@ReadBattle:

; 141  : 
; 142  : 			RandBattleBg = RAND(29047, 29049);

  0048e	8b f4		 mov	 esi, esp
  00490	ff 15 00 00 00
	00		 call	 DWORD PTR __imp__rand
  00496	3b f4		 cmp	 esi, esp
  00498	e8 00 00 00 00	 call	 __RTC_CheckEsp
  0049d	f2 0f 2a c0	 cvtsi2sd xmm0, eax
  004a1	f2 0f 59 05 00
	00 00 00	 mulsd	 xmm0, QWORD PTR __real@4008000000000000
  004a9	f2 0f 5e 05 00
	00 00 00	 divsd	 xmm0, QWORD PTR __real@40e0000000000000
  004b1	f2 0f 2c c0	 cvttsd2si eax, xmm0
  004b5	05 77 71 00 00	 add	 eax, 29047		; 00007177H
  004ba	a3 00 00 00 00	 mov	 DWORD PTR ?RandBattleBg@@3HA, eax ; RandBattleBg

; 143  : 			// 
; 144  : 			if (nowFloor == 30022) RandBattleBg = iCrystalBattleMap[0][RAND(0, 2)];

  004bf	81 3d 00 00 00
	00 46 75 00 00	 cmp	 DWORD PTR ?nowFloor@@3HA, 30022 ; nowFloor, 00007546H
  004c9	75 41		 jne	 SHORT $LN36@ReadBattle
  004cb	b8 0c 00 00 00	 mov	 eax, 12			; 0000000cH
  004d0	6b f0 00	 imul	 esi, eax, 0
  004d3	8b fc		 mov	 edi, esp
  004d5	ff 15 00 00 00
	00		 call	 DWORD PTR __imp__rand
  004db	3b fc		 cmp	 edi, esp
  004dd	e8 00 00 00 00	 call	 __RTC_CheckEsp
  004e2	f2 0f 2a c0	 cvtsi2sd xmm0, eax
  004e6	f2 0f 59 05 00
	00 00 00	 mulsd	 xmm0, QWORD PTR __real@4008000000000000
  004ee	f2 0f 5e 05 00
	00 00 00	 divsd	 xmm0, QWORD PTR __real@40e0000000000000
  004f6	f2 0f 2c c8	 cvttsd2si ecx, xmm0
  004fa	8b 94 8e 00 00
	00 00		 mov	 edx, DWORD PTR ?iCrystalBattleMap@@3PAY02HA[esi+ecx*4]
  00501	89 15 00 00 00
	00		 mov	 DWORD PTR ?RandBattleBg@@3HA, edx ; RandBattleBg
  00507	e9 d7 01 00 00	 jmp	 $LN48@ReadBattle
$LN36@ReadBattle:

; 145  : 			else if (nowFloor == 30023) RandBattleBg = iCrystalBattleMap[1][RAND(0, 2)];

  0050c	81 3d 00 00 00
	00 47 75 00 00	 cmp	 DWORD PTR ?nowFloor@@3HA, 30023 ; nowFloor, 00007547H
  00516	75 41		 jne	 SHORT $LN38@ReadBattle
  00518	be 0c 00 00 00	 mov	 esi, 12			; 0000000cH
  0051d	c1 e6 00	 shl	 esi, 0
  00520	8b fc		 mov	 edi, esp
  00522	ff 15 00 00 00
	00		 call	 DWORD PTR __imp__rand
  00528	3b fc		 cmp	 edi, esp
  0052a	e8 00 00 00 00	 call	 __RTC_CheckEsp
  0052f	f2 0f 2a c0	 cvtsi2sd xmm0, eax
  00533	f2 0f 59 05 00
	00 00 00	 mulsd	 xmm0, QWORD PTR __real@4008000000000000
  0053b	f2 0f 5e 05 00
	00 00 00	 divsd	 xmm0, QWORD PTR __real@40e0000000000000
  00543	f2 0f 2c c0	 cvttsd2si eax, xmm0
  00547	8b 8c 86 00 00
	00 00		 mov	 ecx, DWORD PTR ?iCrystalBattleMap@@3PAY02HA[esi+eax*4]
  0054e	89 0d 00 00 00
	00		 mov	 DWORD PTR ?RandBattleBg@@3HA, ecx ; RandBattleBg
  00554	e9 8a 01 00 00	 jmp	 $LN48@ReadBattle
$LN38@ReadBattle:

; 146  : 			else if (nowFloor == 30024) RandBattleBg = iCrystalBattleMap[2][RAND(0, 2)];

  00559	81 3d 00 00 00
	00 48 75 00 00	 cmp	 DWORD PTR ?nowFloor@@3HA, 30024 ; nowFloor, 00007548H
  00563	75 40		 jne	 SHORT $LN40@ReadBattle
  00565	be 0c 00 00 00	 mov	 esi, 12			; 0000000cH
  0056a	d1 e6		 shl	 esi, 1
  0056c	8b fc		 mov	 edi, esp
  0056e	ff 15 00 00 00
	00		 call	 DWORD PTR __imp__rand
  00574	3b fc		 cmp	 edi, esp
  00576	e8 00 00 00 00	 call	 __RTC_CheckEsp
  0057b	f2 0f 2a c0	 cvtsi2sd xmm0, eax
  0057f	f2 0f 59 05 00
	00 00 00	 mulsd	 xmm0, QWORD PTR __real@4008000000000000
  00587	f2 0f 5e 05 00
	00 00 00	 divsd	 xmm0, QWORD PTR __real@40e0000000000000
  0058f	f2 0f 2c c0	 cvttsd2si eax, xmm0
  00593	8b 8c 86 00 00
	00 00		 mov	 ecx, DWORD PTR ?iCrystalBattleMap@@3PAY02HA[esi+eax*4]
  0059a	89 0d 00 00 00
	00		 mov	 DWORD PTR ?RandBattleBg@@3HA, ecx ; RandBattleBg
  005a0	e9 3e 01 00 00	 jmp	 $LN48@ReadBattle
$LN40@ReadBattle:

; 147  : 			else if (nowFloor == 30025) RandBattleBg = iCrystalBattleMap[3][RAND(0, 2)];

  005a5	81 3d 00 00 00
	00 49 75 00 00	 cmp	 DWORD PTR ?nowFloor@@3HA, 30025 ; nowFloor, 00007549H
  005af	75 41		 jne	 SHORT $LN42@ReadBattle
  005b1	b8 0c 00 00 00	 mov	 eax, 12			; 0000000cH
  005b6	6b f0 03	 imul	 esi, eax, 3
  005b9	8b fc		 mov	 edi, esp
  005bb	ff 15 00 00 00
	00		 call	 DWORD PTR __imp__rand
  005c1	3b fc		 cmp	 edi, esp
  005c3	e8 00 00 00 00	 call	 __RTC_CheckEsp
  005c8	f2 0f 2a c0	 cvtsi2sd xmm0, eax
  005cc	f2 0f 59 05 00
	00 00 00	 mulsd	 xmm0, QWORD PTR __real@4008000000000000
  005d4	f2 0f 5e 05 00
	00 00 00	 divsd	 xmm0, QWORD PTR __real@40e0000000000000
  005dc	f2 0f 2c c8	 cvttsd2si ecx, xmm0
  005e0	8b 94 8e 00 00
	00 00		 mov	 edx, DWORD PTR ?iCrystalBattleMap@@3PAY02HA[esi+ecx*4]
  005e7	89 15 00 00 00
	00		 mov	 DWORD PTR ?RandBattleBg@@3HA, edx ; RandBattleBg
  005ed	e9 f1 00 00 00	 jmp	 $LN48@ReadBattle
$LN42@ReadBattle:

; 148  : #ifdef _8BATTLEMAP
; 149  : 			else if ((nowFloor >= 78 && nowFloor <= 99) || nowFloor == 8107) RandBattleBg = 29074 + RAND(0, 2);

  005f2	83 3d 00 00 00
	00 4e		 cmp	 DWORD PTR ?nowFloor@@3HA, 78 ; nowFloor, 0000004eH
  005f9	7c 09		 jl	 SHORT $LN47@ReadBattle
  005fb	83 3d 00 00 00
	00 63		 cmp	 DWORD PTR ?nowFloor@@3HA, 99 ; nowFloor, 00000063H
  00602	7e 0c		 jle	 SHORT $LN46@ReadBattle
$LN47@ReadBattle:
  00604	81 3d 00 00 00
	00 ab 1f 00 00	 cmp	 DWORD PTR ?nowFloor@@3HA, 8107 ; nowFloor, 00001fabH
  0060e	75 36		 jne	 SHORT $LN44@ReadBattle
$LN46@ReadBattle:
  00610	8b f4		 mov	 esi, esp
  00612	ff 15 00 00 00
	00		 call	 DWORD PTR __imp__rand
  00618	3b f4		 cmp	 esi, esp
  0061a	e8 00 00 00 00	 call	 __RTC_CheckEsp
  0061f	f2 0f 2a c0	 cvtsi2sd xmm0, eax
  00623	f2 0f 59 05 00
	00 00 00	 mulsd	 xmm0, QWORD PTR __real@4008000000000000
  0062b	f2 0f 5e 05 00
	00 00 00	 divsd	 xmm0, QWORD PTR __real@40e0000000000000
  00633	f2 0f 2c c0	 cvttsd2si eax, xmm0
  00637	05 92 71 00 00	 add	 eax, 29074		; 00007192H
  0063c	a3 00 00 00 00	 mov	 DWORD PTR ?RandBattleBg@@3HA, eax ; RandBattleBg
  00641	e9 9d 00 00 00	 jmp	 $LN48@ReadBattle
$LN44@ReadBattle:

; 150  : 			else if ((nowFloor >= 8108 && nowFloor <= 8112) || (nowFloor >= 8116 && nowFloor <= 8120) || (nowFloor >= 8124 && nowFloor <= 8126) || nowFloor == 7500 || nowFloor == 7530 || nowFloor == 7600) RandBattleBg = 29070 + RAND(0, 3);

  00646	81 3d 00 00 00
	00 ac 1f 00 00	 cmp	 DWORD PTR ?nowFloor@@3HA, 8108 ; nowFloor, 00001facH
  00650	7c 0c		 jl	 SHORT $LN50@ReadBattle
  00652	81 3d 00 00 00
	00 b0 1f 00 00	 cmp	 DWORD PTR ?nowFloor@@3HA, 8112 ; nowFloor, 00001fb0H
  0065c	7e 54		 jle	 SHORT $LN49@ReadBattle
$LN50@ReadBattle:
  0065e	81 3d 00 00 00
	00 b4 1f 00 00	 cmp	 DWORD PTR ?nowFloor@@3HA, 8116 ; nowFloor, 00001fb4H
  00668	7c 0c		 jl	 SHORT $LN51@ReadBattle
  0066a	81 3d 00 00 00
	00 b8 1f 00 00	 cmp	 DWORD PTR ?nowFloor@@3HA, 8120 ; nowFloor, 00001fb8H
  00674	7e 3c		 jle	 SHORT $LN49@ReadBattle
$LN51@ReadBattle:
  00676	81 3d 00 00 00
	00 bc 1f 00 00	 cmp	 DWORD PTR ?nowFloor@@3HA, 8124 ; nowFloor, 00001fbcH
  00680	7c 0c		 jl	 SHORT $LN52@ReadBattle
  00682	81 3d 00 00 00
	00 be 1f 00 00	 cmp	 DWORD PTR ?nowFloor@@3HA, 8126 ; nowFloor, 00001fbeH
  0068c	7e 24		 jle	 SHORT $LN49@ReadBattle
$LN52@ReadBattle:
  0068e	81 3d 00 00 00
	00 4c 1d 00 00	 cmp	 DWORD PTR ?nowFloor@@3HA, 7500 ; nowFloor, 00001d4cH
  00698	74 18		 je	 SHORT $LN49@ReadBattle
  0069a	81 3d 00 00 00
	00 6a 1d 00 00	 cmp	 DWORD PTR ?nowFloor@@3HA, 7530 ; nowFloor, 00001d6aH
  006a4	74 0c		 je	 SHORT $LN49@ReadBattle
  006a6	81 3d 00 00 00
	00 b0 1d 00 00	 cmp	 DWORD PTR ?nowFloor@@3HA, 7600 ; nowFloor, 00001db0H
  006b0	75 31		 jne	 SHORT $LN48@ReadBattle
$LN49@ReadBattle:
  006b2	8b f4		 mov	 esi, esp
  006b4	ff 15 00 00 00
	00		 call	 DWORD PTR __imp__rand
  006ba	3b f4		 cmp	 esi, esp
  006bc	e8 00 00 00 00	 call	 __RTC_CheckEsp
  006c1	f2 0f 2a c0	 cvtsi2sd xmm0, eax
  006c5	f2 0f 59 05 00
	00 00 00	 mulsd	 xmm0, QWORD PTR __real@4010000000000000
  006cd	f2 0f 5e 05 00
	00 00 00	 divsd	 xmm0, QWORD PTR __real@40e0000000000000
  006d5	f2 0f 2c c0	 cvttsd2si eax, xmm0
  006d9	05 8e 71 00 00	 add	 eax, 29070		; 0000718eH
  006de	a3 00 00 00 00	 mov	 DWORD PTR ?RandBattleBg@@3HA, eax ; RandBattleBg
$LN48@ReadBattle:

; 151  : #endif
; 152  : 			StockDispBuffer(320, 240, DISP_PRIO_TILE, RandBattleBg, 0);

  006e3	6a 00		 push	 0
  006e5	a1 00 00 00 00	 mov	 eax, DWORD PTR ?RandBattleBg@@3HA ; RandBattleBg
  006ea	50		 push	 eax
  006eb	6a 01		 push	 1
  006ed	68 f0 00 00 00	 push	 240			; 000000f0H
  006f2	68 40 01 00 00	 push	 320			; 00000140H
  006f7	e8 00 00 00 00	 call	 ?StockDispBuffer@@YAHHHEHH@Z ; StockDispBuffer
  006fc	83 c4 14	 add	 esp, 20			; 00000014H

; 153  : 		}
; 154  : 		else if (((nowFloor == 817) || (nowFloor == 8007) || (nowFloor == 8101) || (nowFloor == 8100)

  006ff	e9 0a 03 00 00	 jmp	 $LN8@ReadBattle
$LN19@ReadBattle:

; 155  : 			|| (nowFloor == 8027) || (nowFloor == 8028) || (nowFloor == 8029) || (nowFloor == 8015) || (nowFloor == 151)
; 156  : 			|| (nowFloor == 160) || (nowFloor == 161) || (nowFloor >= 30022 && nowFloor <= 30025) || nowFloor == 8113 || nowFloor == 8114
; 157  : #ifdef _8BATTLEMAP
; 158  : 			|| (nowFloor >= 78 && nowFloor <= 99) || nowFloor == 8107 || (nowFloor >= 8108 && nowFloor <= 8112) || (nowFloor >= 8116 && nowFloor <= 8120) || (nowFloor >= 8124 && nowFloor <= 8126) || nowFloor == 7500 || nowFloor == 7530 || nowFloor == 7600
; 159  : #endif
; 160  : 			)
; 161  : 			&& (RandBattleBg != 0))

  00704	81 3d 00 00 00
	00 31 03 00 00	 cmp	 DWORD PTR ?nowFloor@@3HA, 817 ; nowFloor, 00000331H
  0070e	0f 84 66 01 00
	00		 je	 $LN55@ReadBattle
  00714	81 3d 00 00 00
	00 47 1f 00 00	 cmp	 DWORD PTR ?nowFloor@@3HA, 8007 ; nowFloor, 00001f47H
  0071e	0f 84 56 01 00
	00		 je	 $LN55@ReadBattle
  00724	81 3d 00 00 00
	00 a5 1f 00 00	 cmp	 DWORD PTR ?nowFloor@@3HA, 8101 ; nowFloor, 00001fa5H
  0072e	0f 84 46 01 00
	00		 je	 $LN55@ReadBattle
  00734	81 3d 00 00 00
	00 a4 1f 00 00	 cmp	 DWORD PTR ?nowFloor@@3HA, 8100 ; nowFloor, 00001fa4H
  0073e	0f 84 36 01 00
	00		 je	 $LN55@ReadBattle
  00744	81 3d 00 00 00
	00 5b 1f 00 00	 cmp	 DWORD PTR ?nowFloor@@3HA, 8027 ; nowFloor, 00001f5bH
  0074e	0f 84 26 01 00
	00		 je	 $LN55@ReadBattle
  00754	81 3d 00 00 00
	00 5c 1f 00 00	 cmp	 DWORD PTR ?nowFloor@@3HA, 8028 ; nowFloor, 00001f5cH
  0075e	0f 84 16 01 00
	00		 je	 $LN55@ReadBattle
  00764	81 3d 00 00 00
	00 5d 1f 00 00	 cmp	 DWORD PTR ?nowFloor@@3HA, 8029 ; nowFloor, 00001f5dH
  0076e	0f 84 06 01 00
	00		 je	 $LN55@ReadBattle
  00774	81 3d 00 00 00
	00 4f 1f 00 00	 cmp	 DWORD PTR ?nowFloor@@3HA, 8015 ; nowFloor, 00001f4fH
  0077e	0f 84 f6 00 00
	00		 je	 $LN55@ReadBattle
  00784	81 3d 00 00 00
	00 97 00 00 00	 cmp	 DWORD PTR ?nowFloor@@3HA, 151 ; nowFloor, 00000097H
  0078e	0f 84 e6 00 00
	00		 je	 $LN55@ReadBattle
  00794	81 3d 00 00 00
	00 a0 00 00 00	 cmp	 DWORD PTR ?nowFloor@@3HA, 160 ; nowFloor, 000000a0H
  0079e	0f 84 d6 00 00
	00		 je	 $LN55@ReadBattle
  007a4	81 3d 00 00 00
	00 a1 00 00 00	 cmp	 DWORD PTR ?nowFloor@@3HA, 161 ; nowFloor, 000000a1H
  007ae	0f 84 c6 00 00
	00		 je	 $LN55@ReadBattle
  007b4	81 3d 00 00 00
	00 46 75 00 00	 cmp	 DWORD PTR ?nowFloor@@3HA, 30022 ; nowFloor, 00007546H
  007be	7c 10		 jl	 SHORT $LN56@ReadBattle
  007c0	81 3d 00 00 00
	00 49 75 00 00	 cmp	 DWORD PTR ?nowFloor@@3HA, 30025 ; nowFloor, 00007549H
  007ca	0f 8e aa 00 00
	00		 jle	 $LN55@ReadBattle
$LN56@ReadBattle:
  007d0	81 3d 00 00 00
	00 b1 1f 00 00	 cmp	 DWORD PTR ?nowFloor@@3HA, 8113 ; nowFloor, 00001fb1H
  007da	0f 84 9a 00 00
	00		 je	 $LN55@ReadBattle
  007e0	81 3d 00 00 00
	00 b2 1f 00 00	 cmp	 DWORD PTR ?nowFloor@@3HA, 8114 ; nowFloor, 00001fb2H
  007ea	0f 84 8a 00 00
	00		 je	 $LN55@ReadBattle
  007f0	83 3d 00 00 00
	00 4e		 cmp	 DWORD PTR ?nowFloor@@3HA, 78 ; nowFloor, 0000004eH
  007f7	7c 09		 jl	 SHORT $LN57@ReadBattle
  007f9	83 3d 00 00 00
	00 63		 cmp	 DWORD PTR ?nowFloor@@3HA, 99 ; nowFloor, 00000063H
  00800	7e 78		 jle	 SHORT $LN55@ReadBattle
$LN57@ReadBattle:
  00802	81 3d 00 00 00
	00 ab 1f 00 00	 cmp	 DWORD PTR ?nowFloor@@3HA, 8107 ; nowFloor, 00001fabH
  0080c	74 6c		 je	 SHORT $LN55@ReadBattle
  0080e	81 3d 00 00 00
	00 ac 1f 00 00	 cmp	 DWORD PTR ?nowFloor@@3HA, 8108 ; nowFloor, 00001facH
  00818	7c 0c		 jl	 SHORT $LN58@ReadBattle
  0081a	81 3d 00 00 00
	00 b0 1f 00 00	 cmp	 DWORD PTR ?nowFloor@@3HA, 8112 ; nowFloor, 00001fb0H
  00824	7e 54		 jle	 SHORT $LN55@ReadBattle
$LN58@ReadBattle:
  00826	81 3d 00 00 00
	00 b4 1f 00 00	 cmp	 DWORD PTR ?nowFloor@@3HA, 8116 ; nowFloor, 00001fb4H
  00830	7c 0c		 jl	 SHORT $LN59@ReadBattle
  00832	81 3d 00 00 00
	00 b8 1f 00 00	 cmp	 DWORD PTR ?nowFloor@@3HA, 8120 ; nowFloor, 00001fb8H
  0083c	7e 3c		 jle	 SHORT $LN55@ReadBattle
$LN59@ReadBattle:
  0083e	81 3d 00 00 00
	00 bc 1f 00 00	 cmp	 DWORD PTR ?nowFloor@@3HA, 8124 ; nowFloor, 00001fbcH
  00848	7c 0c		 jl	 SHORT $LN60@ReadBattle
  0084a	81 3d 00 00 00
	00 be 1f 00 00	 cmp	 DWORD PTR ?nowFloor@@3HA, 8126 ; nowFloor, 00001fbeH
  00854	7e 24		 jle	 SHORT $LN55@ReadBattle
$LN60@ReadBattle:
  00856	81 3d 00 00 00
	00 4c 1d 00 00	 cmp	 DWORD PTR ?nowFloor@@3HA, 7500 ; nowFloor, 00001d4cH
  00860	74 18		 je	 SHORT $LN55@ReadBattle
  00862	81 3d 00 00 00
	00 6a 1d 00 00	 cmp	 DWORD PTR ?nowFloor@@3HA, 7530 ; nowFloor, 00001d6aH
  0086c	74 0c		 je	 SHORT $LN55@ReadBattle
  0086e	81 3d 00 00 00
	00 b0 1d 00 00	 cmp	 DWORD PTR ?nowFloor@@3HA, 7600 ; nowFloor, 00001db0H
  00878	75 2a		 jne	 SHORT $LN53@ReadBattle
$LN55@ReadBattle:
  0087a	83 3d 00 00 00
	00 00		 cmp	 DWORD PTR ?RandBattleBg@@3HA, 0 ; RandBattleBg
  00881	74 21		 je	 SHORT $LN53@ReadBattle

; 162  : 			StockDispBuffer(320, 240, DISP_PRIO_TILE, RandBattleBg, 0);

  00883	6a 00		 push	 0
  00885	a1 00 00 00 00	 mov	 eax, DWORD PTR ?RandBattleBg@@3HA ; RandBattleBg
  0088a	50		 push	 eax
  0088b	6a 01		 push	 1
  0088d	68 f0 00 00 00	 push	 240			; 000000f0H
  00892	68 40 01 00 00	 push	 320			; 00000140H
  00897	e8 00 00 00 00	 call	 ?StockDispBuffer@@YAHHHEHH@Z ; StockDispBuffer
  0089c	83 c4 14	 add	 esp, 20			; 00000014H
  0089f	e9 6a 01 00 00	 jmp	 $LN8@ReadBattle
$LN53@ReadBattle:

; 163  : #ifdef _SYUTEST2
; 164  : 		else {
; 165  : 			RandBattleBg = 29050;
; 166  : 			StockDispBuffer(320, 240, DISP_PRIO_TILE, RandBattleBg, 0);
; 167  : 		}
; 168  : #else
; 169  : 		else if (nowFloor == 8519) {

  008a4	81 3d 00 00 00
	00 47 21 00 00	 cmp	 DWORD PTR ?nowFloor@@3HA, 8519 ; nowFloor, 00002147H
  008ae	75 2b		 jne	 SHORT $LN61@ReadBattle

; 170  : 			RandBattleBg = 29069;

  008b0	c7 05 00 00 00
	00 8d 71 00 00	 mov	 DWORD PTR ?RandBattleBg@@3HA, 29069 ; RandBattleBg, 0000718dH

; 171  : 			StockDispBuffer(320, 240, DISP_PRIO_TILE, RandBattleBg, 0);

  008ba	6a 00		 push	 0
  008bc	a1 00 00 00 00	 mov	 eax, DWORD PTR ?RandBattleBg@@3HA ; RandBattleBg
  008c1	50		 push	 eax
  008c2	6a 01		 push	 1
  008c4	68 f0 00 00 00	 push	 240			; 000000f0H
  008c9	68 40 01 00 00	 push	 320			; 00000140H
  008ce	e8 00 00 00 00	 call	 ?StockDispBuffer@@YAHHHEHH@Z ; StockDispBuffer
  008d3	83 c4 14	 add	 esp, 20			; 00000014H

; 172  : 		}
; 173  : 		else

  008d6	e9 33 01 00 00	 jmp	 $LN8@ReadBattle
$LN61@ReadBattle:

; 174  : 		{
; 175  : 
; 176  : 			//CC ADD Client Lua Support +4
; 177  : 			if ((RandBattleBg = FreeGetBattleMap(nowFloor))) {

  008db	a1 00 00 00 00	 mov	 eax, DWORD PTR ?nowFloor@@3HA ; nowFloor
  008e0	50		 push	 eax
  008e1	e8 00 00 00 00	 call	 ?FreeGetBattleMap@@YAHH@Z ; FreeGetBattleMap
  008e6	83 c4 04	 add	 esp, 4
  008e9	a3 00 00 00 00	 mov	 DWORD PTR ?RandBattleBg@@3HA, eax ; RandBattleBg
  008ee	83 3d 00 00 00
	00 00		 cmp	 DWORD PTR ?RandBattleBg@@3HA, 0 ; RandBattleBg
  008f5	74 21		 je	 SHORT $LN63@ReadBattle

; 178  : 				StockDispBuffer(400, 300, DISP_PRIO_TILE, RandBattleBg, 0);

  008f7	6a 00		 push	 0
  008f9	a1 00 00 00 00	 mov	 eax, DWORD PTR ?RandBattleBg@@3HA ; RandBattleBg
  008fe	50		 push	 eax
  008ff	6a 01		 push	 1
  00901	68 2c 01 00 00	 push	 300			; 0000012cH
  00906	68 90 01 00 00	 push	 400			; 00000190H
  0090b	e8 00 00 00 00	 call	 ?StockDispBuffer@@YAHHHEHH@Z ; StockDispBuffer
  00910	83 c4 14	 add	 esp, 20			; 00000014H

; 179  : 			}
; 180  : 			else {

  00913	e9 f6 00 00 00	 jmp	 $LN8@ReadBattle
$LN63@ReadBattle:

; 181  : #ifdef _NB_
; 182  : 				for (i = 0; i < 33; i++)

  00918	c7 85 38 f6 ff
	ff 00 00 00 00	 mov	 DWORD PTR _i$[ebp], 0
  00922	eb 0f		 jmp	 SHORT $LN9@ReadBattle
$LN7@ReadBattle:
  00924	8b 85 38 f6 ff
	ff		 mov	 eax, DWORD PTR _i$[ebp]
  0092a	83 c0 01	 add	 eax, 1
  0092d	89 85 38 f6 ff
	ff		 mov	 DWORD PTR _i$[ebp], eax
$LN9@ReadBattle:
  00933	83 bd 38 f6 ff
	ff 21		 cmp	 DWORD PTR _i$[ebp], 33	; 00000021H
  0093a	0f 8d ce 00 00
	00		 jge	 $LN8@ReadBattle

; 183  : #else
; 184  : 				for (i = 0; i < 20; i++)
; 185  : #endif
; 186  : 				{
; 187  : 					x = 0;

  00940	c7 85 20 f6 ff
	ff 00 00 00 00	 mov	 DWORD PTR _x$[ebp], 0

; 188  : 					y = 0;

  0094a	c7 85 14 f6 ff
	ff 00 00 00 00	 mov	 DWORD PTR _y$[ebp], 0

; 189  : #ifdef _NB_
; 190  : 					for (j = 0; j < 33; j++)

  00954	c7 85 2c f6 ff
	ff 00 00 00 00	 mov	 DWORD PTR _j$[ebp], 0
  0095e	eb 0f		 jmp	 SHORT $LN12@ReadBattle
$LN10@ReadBattle:
  00960	8b 85 2c f6 ff
	ff		 mov	 eax, DWORD PTR _j$[ebp]
  00966	83 c0 01	 add	 eax, 1
  00969	89 85 2c f6 ff
	ff		 mov	 DWORD PTR _j$[ebp], eax
$LN12@ReadBattle:
  0096f	83 bd 2c f6 ff
	ff 21		 cmp	 DWORD PTR _j$[ebp], 33	; 00000021H
  00976	7d 73		 jge	 SHORT $LN11@ReadBattle

; 191  : #else
; 192  : 					for (j = 0; j < 20; j++)
; 193  : #endif
; 194  : 					{
; 195  : 						StockDispBuffer(posX + x, posY + y, DISP_PRIO_TILE, tile[cnt++], 0);

  00978	8b 85 44 f6 ff
	ff		 mov	 eax, DWORD PTR _cnt$[ebp]
  0097e	0f b7 8c 45 50
	f6 ff ff	 movzx	 ecx, WORD PTR _tile$[ebp+eax*2]
  00986	89 8d 50 f1 ff
	ff		 mov	 DWORD PTR tv332[ebp], ecx
  0098c	8b 95 44 f6 ff
	ff		 mov	 edx, DWORD PTR _cnt$[ebp]
  00992	83 c2 01	 add	 edx, 1
  00995	89 95 44 f6 ff
	ff		 mov	 DWORD PTR _cnt$[ebp], edx
  0099b	6a 00		 push	 0
  0099d	8b 85 50 f1 ff
	ff		 mov	 eax, DWORD PTR tv332[ebp]
  009a3	50		 push	 eax
  009a4	6a 01		 push	 1
  009a6	8b 8d fc f5 ff
	ff		 mov	 ecx, DWORD PTR _posY$[ebp]
  009ac	03 8d 14 f6 ff
	ff		 add	 ecx, DWORD PTR _y$[ebp]
  009b2	51		 push	 ecx
  009b3	8b 95 08 f6 ff
	ff		 mov	 edx, DWORD PTR _posX$[ebp]
  009b9	03 95 20 f6 ff
	ff		 add	 edx, DWORD PTR _x$[ebp]
  009bf	52		 push	 edx
  009c0	e8 00 00 00 00	 call	 ?StockDispBuffer@@YAHHHEHH@Z ; StockDispBuffer
  009c5	83 c4 14	 add	 esp, 20			; 00000014H

; 196  : 						x += 32;

  009c8	8b 85 20 f6 ff
	ff		 mov	 eax, DWORD PTR _x$[ebp]
  009ce	83 c0 20	 add	 eax, 32			; 00000020H
  009d1	89 85 20 f6 ff
	ff		 mov	 DWORD PTR _x$[ebp], eax

; 197  : 						y -= 24;

  009d7	8b 85 14 f6 ff
	ff		 mov	 eax, DWORD PTR _y$[ebp]
  009dd	83 e8 18	 sub	 eax, 24			; 00000018H
  009e0	89 85 14 f6 ff
	ff		 mov	 DWORD PTR _y$[ebp], eax

; 198  : 					}

  009e6	e9 75 ff ff ff	 jmp	 $LN10@ReadBattle
$LN11@ReadBattle:

; 199  : 					posX += 32;

  009eb	8b 85 08 f6 ff
	ff		 mov	 eax, DWORD PTR _posX$[ebp]
  009f1	83 c0 20	 add	 eax, 32			; 00000020H
  009f4	89 85 08 f6 ff
	ff		 mov	 DWORD PTR _posX$[ebp], eax

; 200  : 					posY += 24;

  009fa	8b 85 fc f5 ff
	ff		 mov	 eax, DWORD PTR _posY$[ebp]
  00a00	83 c0 18	 add	 eax, 24			; 00000018H
  00a03	89 85 fc f5 ff
	ff		 mov	 DWORD PTR _posY$[ebp], eax

; 201  : 				}

  00a09	e9 16 ff ff ff	 jmp	 $LN7@ReadBattle
$LN8@ReadBattle:

; 202  : 
; 203  : 			//CC ADD Client Lua Support +1
; 204  : 			}
; 205  : 		}
; 206  : #endif
; 207  : 
; 208  : 		//	extern void ddrawBattleMap();
; 209  : 		//	ddrawBattleMap();
; 210  : 
; 211  : #else
; 212  : 		// ??????
; 213  : 
; 214  : 		for (i = 0; i < 20; i++) {
; 215  : 			x = 0;
; 216  : 			y = 0;
; 217  : 			for (j = 0; j < 20; j++) {
; 218  : 				// ???????????
; 219  : 				StockDispBuffer(posX + x, posY + y, DISP_PRIO_TILE, tile[cnt++], 0);
; 220  : 				x += 32;
; 221  : 				y -= 24;
; 222  : 			}
; 223  : 			posX += 32;
; 224  : 			posY += 24;
; 225  : 		}
; 226  : #endif
; 227  : 		//#endif
; 228  : #ifndef _NB_
; 229  : 	}
; 230  : #endif
; 231  : 	return TRUE;

  00a0e	b8 01 00 00 00	 mov	 eax, 1
$LN1@ReadBattle:

; 232  : 
; 233  : }	

  00a13	52		 push	 edx
  00a14	8b cd		 mov	 ecx, ebp
  00a16	50		 push	 eax
  00a17	8d 15 00 00 00
	00		 lea	 edx, DWORD PTR $LN72@ReadBattle
  00a1d	e8 00 00 00 00	 call	 @_RTC_CheckStackVars@8
  00a22	58		 pop	 eax
  00a23	5a		 pop	 edx
  00a24	5f		 pop	 edi
  00a25	5e		 pop	 esi
  00a26	5b		 pop	 ebx
  00a27	8b 4d fc	 mov	 ecx, DWORD PTR __$ArrayPad$[ebp]
  00a2a	33 cd		 xor	 ecx, ebp
  00a2c	e8 00 00 00 00	 call	 @__security_check_cookie@4
  00a31	81 c4 b0 0e 00
	00		 add	 esp, 3760		; 00000eb0H
  00a37	3b ec		 cmp	 ebp, esp
  00a39	e8 00 00 00 00	 call	 __RTC_CheckEsp
  00a3e	8b e5		 mov	 esp, ebp
  00a40	5d		 pop	 ebp
  00a41	c3		 ret	 0
  00a42	66 90		 npad	 2
$LN72@ReadBattle:
  00a44	03 00 00 00	 DD	 3
  00a48	00 00 00 00	 DD	 $LN71@ReadBattle
$LN71@ReadBattle:
  00a4c	f8 fe ff ff	 DD	 -264			; fffffef8H
  00a50	00 01 00 00	 DD	 256			; 00000100H
  00a54	00 00 00 00	 DD	 $LN68@ReadBattle
  00a58	dc fe ff ff	 DD	 -292			; fffffedcH
  00a5c	05 00 00 00	 DD	 5
  00a60	00 00 00 00	 DD	 $LN69@ReadBattle
  00a64	50 f6 ff ff	 DD	 -2480			; fffff650H
  00a68	82 08 00 00	 DD	 2178			; 00000882H
  00a6c	00 00 00 00	 DD	 $LN70@ReadBattle
$LN70@ReadBattle:
  00a70	74		 DB	 116			; 00000074H
  00a71	69		 DB	 105			; 00000069H
  00a72	6c		 DB	 108			; 0000006cH
  00a73	65		 DB	 101			; 00000065H
  00a74	00		 DB	 0
$LN69@ReadBattle:
  00a75	68		 DB	 104			; 00000068H
  00a76	65		 DB	 101			; 00000065H
  00a77	61		 DB	 97			; 00000061H
  00a78	64		 DB	 100			; 00000064H
  00a79	65		 DB	 101			; 00000065H
  00a7a	72		 DB	 114			; 00000072H
  00a7b	00		 DB	 0
$LN68@ReadBattle:
  00a7c	6d		 DB	 109			; 0000006dH
  00a7d	73		 DB	 115			; 00000073H
  00a7e	67		 DB	 103			; 00000067H
  00a7f	00		 DB	 0
?ReadBattleMap@@YAHH@Z ENDP				; ReadBattleMap
_TEXT	ENDS
; Function compile flags: /Odtp /RTCsu /ZI
; File c:\program files (x86)\windows kits\10\include\10.0.10240.0\ucrt\stdio.h
;	COMDAT _sprintf
_TEXT	SEGMENT
__ArgList$ = -20					; size = 4
__Result$ = -8						; size = 4
__Buffer$ = 8						; size = 4
__Format$ = 12						; size = 4
_sprintf PROC						; COMDAT

; 1776 : {

  00000	55		 push	 ebp
  00001	8b ec		 mov	 ebp, esp
  00003	81 ec d8 00 00
	00		 sub	 esp, 216		; 000000d8H
  00009	53		 push	 ebx
  0000a	56		 push	 esi
  0000b	57		 push	 edi
  0000c	8d bd 28 ff ff
	ff		 lea	 edi, DWORD PTR [ebp-216]
  00012	b9 36 00 00 00	 mov	 ecx, 54			; 00000036H
  00017	b8 cc cc cc cc	 mov	 eax, -858993460		; ccccccccH
  0001c	f3 ab		 rep stosd

; 1777 :     int _Result;
; 1778 :     va_list _ArgList;
; 1779 :     __crt_va_start(_ArgList, _Format);

  0001e	e8 00 00 00 00	 call	 ??$__vcrt_va_start_verify_argument_type@QBD@@YAXXZ ; __vcrt_va_start_verify_argument_type<char const * const>
  00023	8d 45 10	 lea	 eax, DWORD PTR __Format$[ebp+4]
  00026	89 45 ec	 mov	 DWORD PTR __ArgList$[ebp], eax

; 1780 : 
; 1781 :     #pragma warning(push)
; 1782 :     #pragma warning(disable: 4996) // Deprecation
; 1783 :     _Result = _vsprintf_l(_Buffer, _Format, NULL, _ArgList);

  00029	8b 45 ec	 mov	 eax, DWORD PTR __ArgList$[ebp]
  0002c	50		 push	 eax
  0002d	6a 00		 push	 0
  0002f	8b 4d 0c	 mov	 ecx, DWORD PTR __Format$[ebp]
  00032	51		 push	 ecx
  00033	8b 55 08	 mov	 edx, DWORD PTR __Buffer$[ebp]
  00036	52		 push	 edx
  00037	e8 00 00 00 00	 call	 __vsprintf_l
  0003c	83 c4 10	 add	 esp, 16			; 00000010H
  0003f	89 45 f8	 mov	 DWORD PTR __Result$[ebp], eax

; 1784 :     #pragma warning(pop)
; 1785 : 
; 1786 :     __crt_va_end(_ArgList);

  00042	c7 45 ec 00 00
	00 00		 mov	 DWORD PTR __ArgList$[ebp], 0

; 1787 :     return _Result;

  00049	8b 45 f8	 mov	 eax, DWORD PTR __Result$[ebp]

; 1788 : }

  0004c	5f		 pop	 edi
  0004d	5e		 pop	 esi
  0004e	5b		 pop	 ebx
  0004f	81 c4 d8 00 00
	00		 add	 esp, 216		; 000000d8H
  00055	3b ec		 cmp	 ebp, esp
  00057	e8 00 00 00 00	 call	 __RTC_CheckEsp
  0005c	8b e5		 mov	 esp, ebp
  0005e	5d		 pop	 ebp
  0005f	c3		 ret	 0
_sprintf ENDP
_TEXT	ENDS
; Function compile flags: /Odtp /RTCsu /ZI
; File c:\program files (x86)\windows kits\10\include\10.0.10240.0\ucrt\stdio.h
;	COMDAT __vsprintf_l
_TEXT	SEGMENT
__Buffer$ = 8						; size = 4
__Format$ = 12						; size = 4
__Locale$ = 16						; size = 4
__ArgList$ = 20						; size = 4
__vsprintf_l PROC					; COMDAT

; 1455 : {

  00000	55		 push	 ebp
  00001	8b ec		 mov	 ebp, esp
  00003	81 ec c0 00 00
	00		 sub	 esp, 192		; 000000c0H
  00009	53		 push	 ebx
  0000a	56		 push	 esi
  0000b	57		 push	 edi
  0000c	8d bd 40 ff ff
	ff		 lea	 edi, DWORD PTR [ebp-192]
  00012	b9 30 00 00 00	 mov	 ecx, 48			; 00000030H
  00017	b8 cc cc cc cc	 mov	 eax, -858993460		; ccccccccH
  0001c	f3 ab		 rep stosd

; 1456 :     #pragma warning(push)
; 1457 :     #pragma warning(disable: 4996) // Deprecation
; 1458 :     return _vsnprintf_l(_Buffer, (size_t)-1, _Format, _Locale, _ArgList);

  0001e	8b 45 14	 mov	 eax, DWORD PTR __ArgList$[ebp]
  00021	50		 push	 eax
  00022	8b 4d 10	 mov	 ecx, DWORD PTR __Locale$[ebp]
  00025	51		 push	 ecx
  00026	8b 55 0c	 mov	 edx, DWORD PTR __Format$[ebp]
  00029	52		 push	 edx
  0002a	6a ff		 push	 -1
  0002c	8b 45 08	 mov	 eax, DWORD PTR __Buffer$[ebp]
  0002f	50		 push	 eax
  00030	e8 00 00 00 00	 call	 __vsnprintf_l
  00035	83 c4 14	 add	 esp, 20			; 00000014H

; 1459 :     #pragma warning(pop)
; 1460 : }

  00038	5f		 pop	 edi
  00039	5e		 pop	 esi
  0003a	5b		 pop	 ebx
  0003b	81 c4 c0 00 00
	00		 add	 esp, 192		; 000000c0H
  00041	3b ec		 cmp	 ebp, esp
  00043	e8 00 00 00 00	 call	 __RTC_CheckEsp
  00048	8b e5		 mov	 esp, ebp
  0004a	5d		 pop	 ebp
  0004b	c3		 ret	 0
__vsprintf_l ENDP
_TEXT	ENDS
; Function compile flags: /Odtp /RTCsu /ZI
; File c:\program files (x86)\windows kits\10\include\10.0.10240.0\ucrt\stdio.h
;	COMDAT __vsnprintf_l
_TEXT	SEGMENT
tv74 = -208						; size = 4
__Result$ = -8						; size = 4
__Buffer$ = 8						; size = 4
__BufferCount$ = 12					; size = 4
__Format$ = 16						; size = 4
__Locale$ = 20						; size = 4
__ArgList$ = 24						; size = 4
__vsnprintf_l PROC					; COMDAT

; 1385 : {

  00000	55		 push	 ebp
  00001	8b ec		 mov	 ebp, esp
  00003	81 ec d0 00 00
	00		 sub	 esp, 208		; 000000d0H
  00009	53		 push	 ebx
  0000a	56		 push	 esi
  0000b	57		 push	 edi
  0000c	8d bd 30 ff ff
	ff		 lea	 edi, DWORD PTR [ebp-208]
  00012	b9 34 00 00 00	 mov	 ecx, 52			; 00000034H
  00017	b8 cc cc cc cc	 mov	 eax, -858993460		; ccccccccH
  0001c	f3 ab		 rep stosd

; 1386 :     int const _Result = __stdio_common_vsprintf(

  0001e	8b f4		 mov	 esi, esp
  00020	8b 45 18	 mov	 eax, DWORD PTR __ArgList$[ebp]
  00023	50		 push	 eax
  00024	8b 4d 14	 mov	 ecx, DWORD PTR __Locale$[ebp]
  00027	51		 push	 ecx
  00028	8b 55 10	 mov	 edx, DWORD PTR __Format$[ebp]
  0002b	52		 push	 edx
  0002c	8b 45 0c	 mov	 eax, DWORD PTR __BufferCount$[ebp]
  0002f	50		 push	 eax
  00030	8b 4d 08	 mov	 ecx, DWORD PTR __Buffer$[ebp]
  00033	51		 push	 ecx
  00034	e8 00 00 00 00	 call	 ___local_stdio_printf_options
  00039	8b 10		 mov	 edx, DWORD PTR [eax]
  0003b	83 ca 01	 or	 edx, 1
  0003e	8b 40 04	 mov	 eax, DWORD PTR [eax+4]
  00041	50		 push	 eax
  00042	52		 push	 edx
  00043	ff 15 00 00 00
	00		 call	 DWORD PTR __imp____stdio_common_vsprintf
  00049	83 c4 1c	 add	 esp, 28			; 0000001cH
  0004c	3b f4		 cmp	 esi, esp
  0004e	e8 00 00 00 00	 call	 __RTC_CheckEsp
  00053	89 45 f8	 mov	 DWORD PTR __Result$[ebp], eax

; 1387 :         _CRT_INTERNAL_LOCAL_PRINTF_OPTIONS | _CRT_INTERNAL_PRINTF_LEGACY_VSPRINTF_NULL_TERMINATION,
; 1388 :         _Buffer, _BufferCount, _Format, _Locale, _ArgList);
; 1389 : 
; 1390 :     return _Result < 0 ? -1 : _Result;

  00056	83 7d f8 00	 cmp	 DWORD PTR __Result$[ebp], 0
  0005a	7d 0c		 jge	 SHORT $LN3@vsnprintf_
  0005c	c7 85 30 ff ff
	ff ff ff ff ff	 mov	 DWORD PTR tv74[ebp], -1
  00066	eb 09		 jmp	 SHORT $LN4@vsnprintf_
$LN3@vsnprintf_:
  00068	8b 45 f8	 mov	 eax, DWORD PTR __Result$[ebp]
  0006b	89 85 30 ff ff
	ff		 mov	 DWORD PTR tv74[ebp], eax
$LN4@vsnprintf_:
  00071	8b 85 30 ff ff
	ff		 mov	 eax, DWORD PTR tv74[ebp]

; 1391 : }

  00077	5f		 pop	 edi
  00078	5e		 pop	 esi
  00079	5b		 pop	 ebx
  0007a	81 c4 d0 00 00
	00		 add	 esp, 208		; 000000d0H
  00080	3b ec		 cmp	 ebp, esp
  00082	e8 00 00 00 00	 call	 __RTC_CheckEsp
  00087	8b e5		 mov	 esp, ebp
  00089	5d		 pop	 ebp
  0008a	c3		 ret	 0
__vsnprintf_l ENDP
_TEXT	ENDS
; Function compile flags: /Odtp /RTCsu /ZI
; File c:\program files (x86)\microsoft visual studio 14.0\vc\include\vadefs.h
;	COMDAT ??$__vcrt_va_start_verify_argument_type@QBD@@YAXXZ
_TEXT	SEGMENT
??$__vcrt_va_start_verify_argument_type@QBD@@YAXXZ PROC	; __vcrt_va_start_verify_argument_type<char const * const>, COMDAT

; 144  :         {

  00000	55		 push	 ebp
  00001	8b ec		 mov	 ebp, esp
  00003	81 ec c0 00 00
	00		 sub	 esp, 192		; 000000c0H
  00009	53		 push	 ebx
  0000a	56		 push	 esi
  0000b	57		 push	 edi
  0000c	8d bd 40 ff ff
	ff		 lea	 edi, DWORD PTR [ebp-192]
  00012	b9 30 00 00 00	 mov	 ecx, 48			; 00000030H
  00017	b8 cc cc cc cc	 mov	 eax, -858993460		; ccccccccH
  0001c	f3 ab		 rep stosd

; 145  :             static_assert(!__vcrt_va_list_is_reference<_Ty>::__the_value, "va_start argument must not have reference type and must not be parenthesized");
; 146  :         }

  0001e	5f		 pop	 edi
  0001f	5e		 pop	 esi
  00020	5b		 pop	 ebx
  00021	8b e5		 mov	 esp, ebp
  00023	5d		 pop	 ebp
  00024	c3		 ret	 0
??$__vcrt_va_start_verify_argument_type@QBD@@YAXXZ ENDP	; __vcrt_va_start_verify_argument_type<char const * const>
_TEXT	ENDS
; Function compile flags: /Odtp /RTCsu /ZI
; File c:\program files (x86)\windows kits\10\include\10.0.10240.0\ucrt\corecrt_stdio_config.h
;	COMDAT ___local_stdio_printf_options
_TEXT	SEGMENT
___local_stdio_printf_options PROC			; COMDAT

; 73   : {

  00000	55		 push	 ebp
  00001	8b ec		 mov	 ebp, esp
  00003	81 ec c0 00 00
	00		 sub	 esp, 192		; 000000c0H
  00009	53		 push	 ebx
  0000a	56		 push	 esi
  0000b	57		 push	 edi
  0000c	8d bd 40 ff ff
	ff		 lea	 edi, DWORD PTR [ebp-192]
  00012	b9 30 00 00 00	 mov	 ecx, 48			; 00000030H
  00017	b8 cc cc cc cc	 mov	 eax, -858993460		; ccccccccH
  0001c	f3 ab		 rep stosd

; 74   :     static unsigned __int64 _OptionsStorage;
; 75   :     return &_OptionsStorage;

  0001e	b8 00 00 00 00	 mov	 eax, OFFSET ?_OptionsStorage@?1??__local_stdio_printf_options@@9@4_KA ; `__local_stdio_printf_options'::`2'::_OptionsStorage

; 76   : }

  00023	5f		 pop	 edi
  00024	5e		 pop	 esi
  00025	5b		 pop	 ebx
  00026	8b e5		 mov	 esp, ebp
  00028	5d		 pop	 ebp
  00029	c3		 ret	 0
___local_stdio_printf_options ENDP
_TEXT	ENDS
; Function compile flags: /Odtp /RTCsu /ZI
; File c:\program files (x86)\windows kits\10\include\10.0.10240.0\ucrt\string.h
;	COMDAT ?strstr@@YAPADQADQBD@Z
_TEXT	SEGMENT
__String$ = 8						; size = 4
__SubString$ = 12					; size = 4
?strstr@@YAPADQADQBD@Z PROC				; strstr, COMDAT

; 536  :     {

  00000	55		 push	 ebp
  00001	8b ec		 mov	 ebp, esp
  00003	81 ec c0 00 00
	00		 sub	 esp, 192		; 000000c0H
  00009	53		 push	 ebx
  0000a	56		 push	 esi
  0000b	57		 push	 edi
  0000c	8d bd 40 ff ff
	ff		 lea	 edi, DWORD PTR [ebp-192]
  00012	b9 30 00 00 00	 mov	 ecx, 48			; 00000030H
  00017	b8 cc cc cc cc	 mov	 eax, -858993460		; ccccccccH
  0001c	f3 ab		 rep stosd

; 537  :         return const_cast<char*>(strstr(static_cast<char const*>(_String), _SubString));

  0001e	8b f4		 mov	 esi, esp
  00020	8b 45 0c	 mov	 eax, DWORD PTR __SubString$[ebp]
  00023	50		 push	 eax
  00024	8b 4d 08	 mov	 ecx, DWORD PTR __String$[ebp]
  00027	51		 push	 ecx
  00028	ff 15 00 00 00
	00		 call	 DWORD PTR __imp__strstr
  0002e	83 c4 08	 add	 esp, 8
  00031	3b f4		 cmp	 esi, esp
  00033	e8 00 00 00 00	 call	 __RTC_CheckEsp

; 538  :     }

  00038	5f		 pop	 edi
  00039	5e		 pop	 esi
  0003a	5b		 pop	 ebx
  0003b	81 c4 c0 00 00
	00		 add	 esp, 192		; 000000c0H
  00041	3b ec		 cmp	 ebp, esp
  00043	e8 00 00 00 00	 call	 __RTC_CheckEsp
  00048	8b e5		 mov	 esp, ebp
  0004a	5d		 pop	 ebp
  0004b	c3		 ret	 0
?strstr@@YAPADQADQBD@Z ENDP				; strstr
_TEXT	ENDS
END
