; Listing generated by Microsoft (R) Optimizing Compiler Version 19.00.24215.1 

	TITLE	C:\Users\Administrator\Desktop\????? ??\????? ??\Client Source Code\system\battleMenu.cpp
	.686P
	.XMM
	include listing.inc
	.model	flat

INCLUDELIB MSVCRTD
INCLUDELIB OLDNAMES

PUBLIC	?AI@@3HA					; AI
PUBLIC	?PauseAI@@3KA					; PauseAI
PUBLIC	?BattleCmd@@3PADA				; BattleCmd
PUBLIC	?BattleCmdBak@@3PAY0BAAA@DA			; BattleCmdBak
PUBLIC	?BattleCmdReadPointer@@3HA			; BattleCmdReadPointer
PUBLIC	?BattleCmdWritePointer@@3HA			; BattleCmdWritePointer
PUBLIC	?BattleStatus@@3PADA				; BattleStatus
PUBLIC	?BattleStatusBak@@3PAY0BAAA@DA			; BattleStatusBak
PUBLIC	?BattleStatusReadPointer@@3HA			; BattleStatusReadPointer
PUBLIC	?BattleStatusWritePointer@@3HA			; BattleStatusWritePointer
PUBLIC	?battleMenuFlag2@@3HA				; battleMenuFlag2
PUBLIC	?BattleMyNo@@3HA				; BattleMyNo
PUBLIC	?BattleMyMp@@3HA				; BattleMyMp
PUBLIC	?BattleEscFlag@@3HA				; BattleEscFlag
PUBLIC	?BattlePetStMenCnt@@3HA				; BattlePetStMenCnt
PUBLIC	?battlePetNoBak@@3HA				; battlePetNoBak
PUBLIC	?battlePetNoBak2@@3HA				; battlePetNoBak2
PUBLIC	?BattleBpFlag@@3HA				; BattleBpFlag
PUBLIC	?BattleAnimFlag@@3HA				; BattleAnimFlag
PUBLIC	?BattleTurnReceiveFlag@@3HA			; BattleTurnReceiveFlag
PUBLIC	?BattleCliTurnNo@@3HA				; BattleCliTurnNo
PUBLIC	?BattleSvTurnNo@@3HA				; BattleSvTurnNo
PUBLIC	?BattleResultWndFlag@@3HA			; BattleResultWndFlag
PUBLIC	?BattleCmdNo@@3HA				; BattleCmdNo
PUBLIC	?BattleJujutuNo@@3HA				; BattleJujutuNo
PUBLIC	?BattleWazaNo@@3HA				; BattleWazaNo
PUBLIC	?BattleItemNo@@3HA				; BattleItemNo
PUBLIC	?battlePlayerEscFlag@@3HA			; battlePlayerEscFlag
PUBLIC	?BattleCntDown@@3KA				; BattleCntDown
PUBLIC	?BattleIntervalCnt@@3KA				; BattleIntervalCnt
PUBLIC	?BattleCntDownFlag@@3HA				; BattleCntDownFlag
PUBLIC	?battleMenuFlag@@3HA				; battleMenuFlag
PUBLIC	?battlePetButtonFlag@@3HA			; battlePetButtonFlag
PUBLIC	?battleButtonBak@@3HA				; battleButtonBak
PUBLIC	?battleWazaTargetBak@@3HA			; battleWazaTargetBak
PUBLIC	?wonflag@@3HA					; wonflag
PUBLIC	?prouseskill@@3HA				; prouseskill
PUBLIC	?SkillWnd2@@3HA					; SkillWnd2
_BSS	SEGMENT
?AI@@3HA DD	01H DUP (?)				; AI
?PauseAI@@3KA DD 01H DUP (?)				; PauseAI
?BattleCmd@@3PADA DB 01000H DUP (?)			; BattleCmd
?BattleCmdBak@@3PAY0BAAA@DA DB 04020H DUP (?)		; BattleCmdBak
?BattleCmdReadPointer@@3HA DD 01H DUP (?)		; BattleCmdReadPointer
?BattleCmdWritePointer@@3HA DD 01H DUP (?)		; BattleCmdWritePointer
?BattleStatus@@3PADA DB 01000H DUP (?)			; BattleStatus
?BattleStatusBak@@3PAY0BAAA@DA DB 04020H DUP (?)	; BattleStatusBak
?BattleStatusReadPointer@@3HA DD 01H DUP (?)		; BattleStatusReadPointer
?BattleStatusWritePointer@@3HA DD 01H DUP (?)		; BattleStatusWritePointer
?battleMenuFlag2@@3HA DD 01H DUP (?)			; battleMenuFlag2
?BattleMyNo@@3HA DD 01H DUP (?)				; BattleMyNo
?BattleMyMp@@3HA DD 01H DUP (?)				; BattleMyMp
?BattleEscFlag@@3HA DD 01H DUP (?)			; BattleEscFlag
?BattlePetStMenCnt@@3HA DD 01H DUP (?)			; BattlePetStMenCnt
?BattleBpFlag@@3HA DD 01H DUP (?)			; BattleBpFlag
?BattleAnimFlag@@3HA DD 01H DUP (?)			; BattleAnimFlag
?BattleTurnReceiveFlag@@3HA DD 01H DUP (?)		; BattleTurnReceiveFlag
?BattleCliTurnNo@@3HA DD 01H DUP (?)			; BattleCliTurnNo
?BattleSvTurnNo@@3HA DD 01H DUP (?)			; BattleSvTurnNo
?BattleResultWndFlag@@3HA DD 01H DUP (?)		; BattleResultWndFlag
?BattleJujutuNo@@3HA DD 01H DUP (?)			; BattleJujutuNo
?BattleWazaNo@@3HA DD 01H DUP (?)			; BattleWazaNo
?BattleItemNo@@3HA DD 01H DUP (?)			; BattleItemNo
?battlePlayerEscFlag@@3HA DD 01H DUP (?)		; battlePlayerEscFlag
?BattleCntDown@@3KA DD 01H DUP (?)			; BattleCntDown
?BattleIntervalCnt@@3KA DD 01H DUP (?)			; BattleIntervalCnt
?BattleCntDownFlag@@3HA DD 01H DUP (?)			; BattleCntDownFlag
?battleMenuFlag@@3HA DD 01H DUP (?)			; battleMenuFlag
?battleMenuReturn@@3HA DD 01H DUP (?)			; battleMenuReturn
?battlePetMenuFlag@@3HA DD 01H DUP (?)			; battlePetMenuFlag
?battlePetButtonFlag@@3HA DD 01H DUP (?)		; battlePetButtonFlag
?battleTimeUpFlag@@3HA DD 01H DUP (?)			; battleTimeUpFlag
?battleTargetSelectFlag@@3HA DD 01H DUP (?)		; battleTargetSelectFlag
?pActWnd@@3PAUaction@@A DD 01H DUP (?)			; pActWnd
?wonflag@@3HA DD 01H DUP (?)				; wonflag
?SkillWnd2@@3HA DD 01H DUP (?)				; SkillWnd2
_BSS	ENDS
_DATA	SEGMENT
?ridePetTable@@3PAUtagRidePetTable@@A DD 018a88H	; ridePetTable
	DD	0186a0H
	DD	018800H
	DD	00H
	DD	018a89H
	DD	0186a5H
	DD	018800H
	DD	00H
	DD	018a8aH
	DD	0186aaH
	DD	018800H
	DD	00H
	DD	018a8bH
	DD	0186afH
	DD	018800H
	DD	00H
	DD	018a8cH
	DD	0186a0H
	DD	0187e9H
	DD	00H
	DD	018a8dH
	DD	0186a5H
	DD	0187e7H
	DD	00H
	DD	018a8eH
	DD	0186aaH
	DD	0187eaH
	DD	00H
	DD	018a8fH
	DD	0186afH
	DD	0187e8H
	DD	00H
	DD	018a90H
	DD	01895cH
	DD	018814H
	DD	00H
	DD	018a91H
	DD	018961H
	DD	018815H
	DD	00H
	DD	018e65H
	DD	018961H
	DD	018cc8H
	DD	00H
	DD	018e5aH
	DD	018961H
	DD	018c9cH
	DD	00H
	DD	018a92H
	DD	0186b4H
	DD	01882cH
	DD	00H
	DD	018a93H
	DD	0186b9H
	DD	01882cH
	DD	00H
	DD	018a94H
	DD	0186beH
	DD	01882cH
	DD	00H
	DD	018a95H
	DD	0186c3H
	DD	01882cH
	DD	00H
	DD	018a96H
	DD	0186b4H
	DD	0187e8H
	DD	00H
	DD	018a97H
	DD	0186b9H
	DD	0187e9H
	DD	00H
	DD	018a98H
	DD	0186beH
	DD	0187e7H
	DD	00H
	DD	018a99H
	DD	0186c3H
	DD	0187eaH
	DD	00H
	DD	018a9aH
	DD	018966H
	DD	018814H
	DD	00H
	DD	018a9bH
	DD	01896bH
	DD	018815H
	DD	00H
	DD	018e64H
	DD	01896bH
	DD	018cc8H
	DD	00H
	DD	018e62H
	DD	01896bH
	DD	018c9cH
	DD	00H
	DD	018a9cH
	DD	0186c8H
	DD	0187ffH
	DD	00H
	DD	018a9dH
	DD	0186cdH
	DD	0187ffH
	DD	00H
	DD	018a9eH
	DD	0186d2H
	DD	0187ffH
	DD	00H
	DD	018a9fH
	DD	0186d7H
	DD	0187ffH
	DD	00H
	DD	018aa0H
	DD	0186c8H
	DD	0187e8H
	DD	00H
	DD	018aa1H
	DD	0186cdH
	DD	0187eaH
	DD	00H
	DD	018aa2H
	DD	0186d2H
	DD	0187e7H
	DD	00H
	DD	018aa3H
	DD	0186d7H
	DD	0187e9H
	DD	00H
	DD	018aa4H
	DD	018970H
	DD	018814H
	DD	00H
	DD	018aa5H
	DD	018975H
	DD	018815H
	DD	00H
	DD	018e4dH
	DD	018975H
	DD	018cc8H
	DD	00H
	DD	018e57H
	DD	018975H
	DD	018c9cH
	DD	00H
	DD	018aa6H
	DD	0186dcH
	DD	018801H
	DD	00H
	DD	018aa7H
	DD	0186e1H
	DD	018801H
	DD	00H
	DD	018aa8H
	DD	0186e6H
	DD	018801H
	DD	00H
	DD	018aa9H
	DD	0186ebH
	DD	018801H
	DD	00H
	DD	018aaaH
	DD	0186dcH
	DD	0187e9H
	DD	00H
	DD	018aabH
	DD	0186e1H
	DD	0187e7H
	DD	00H
	DD	018aacH
	DD	0186e6H
	DD	0187eaH
	DD	00H
	DD	018aadH
	DD	0186ebH
	DD	0187e8H
	DD	00H
	DD	018aaeH
	DD	01897aH
	DD	018814H
	DD	00H
	DD	018aafH
	DD	01897fH
	DD	018815H
	DD	00H
	DD	018e4eH
	DD	01897fH
	DD	018cc8H
	DD	00H
	DD	018e58H
	DD	01897fH
	DD	018c9cH
	DD	00H
	DD	018ab0H
	DD	0186f0H
	DD	01882cH
	DD	00H
	DD	018ab1H
	DD	0186f5H
	DD	01882cH
	DD	00H
	DD	018ab2H
	DD	0186faH
	DD	01882cH
	DD	00H
	DD	018ab3H
	DD	0186ffH
	DD	01882cH
	DD	00H
	DD	018ab4H
	DD	0186f0H
	DD	0187e8H
	DD	00H
	DD	018ab5H
	DD	0186f5H
	DD	0187e7H
	DD	00H
	DD	018ab6H
	DD	0186faH
	DD	0187eaH
	DD	00H
	DD	018ab7H
	DD	0186ffH
	DD	0187e9H
	DD	00H
	DD	018ab8H
	DD	018984H
	DD	018814H
	DD	00H
	DD	018ab9H
	DD	018989H
	DD	018815H
	DD	00H
	DD	018e55H
	DD	018989H
	DD	018cc8H
	DD	00H
	DD	018e60H
	DD	018989H
	DD	018c9cH
	DD	00H
	DD	018abaH
	DD	018704H
	DD	018801H
	DD	00H
	DD	018abbH
	DD	018709H
	DD	018801H
	DD	00H
	DD	018abcH
	DD	01870eH
	DD	018801H
	DD	00H
	DD	018abdH
	DD	018713H
	DD	018801H
	DD	00H
	DD	018abeH
	DD	018704H
	DD	0187e9H
	DD	00H
	DD	018abfH
	DD	018709H
	DD	0187e8H
	DD	00H
	DD	018ac0H
	DD	01870eH
	DD	0187eaH
	DD	00H
	DD	018ac1H
	DD	018713H
	DD	0187e7H
	DD	00H
	DD	018ac2H
	DD	01898eH
	DD	018814H
	DD	00H
	DD	018ac3H
	DD	018993H
	DD	018815H
	DD	00H
	DD	018e56H
	DD	018993H
	DD	018cc8H
	DD	00H
	DD	018e61H
	DD	018993H
	DD	018c9cH
	DD	00H
	DD	018ac4H
	DD	018718H
	DD	018802H
	DD	00H
	DD	018ac5H
	DD	01871dH
	DD	018802H
	DD	00H
	DD	018ac6H
	DD	018722H
	DD	018802H
	DD	00H
	DD	018ac7H
	DD	018727H
	DD	018802H
	DD	00H
	DD	018ac8H
	DD	018718H
	DD	0187e7H
	DD	00H
	DD	018ac9H
	DD	01871dH
	DD	0187eaH
	DD	00H
	DD	018acaH
	DD	018722H
	DD	0187e8H
	DD	00H
	DD	018acbH
	DD	018727H
	DD	0187e9H
	DD	00H
	DD	018accH
	DD	018998H
	DD	018814H
	DD	00H
	DD	018acdH
	DD	01899dH
	DD	018815H
	DD	00H
	DD	018e4fH
	DD	01899dH
	DD	018cc8H
	DD	00H
	DD	018e59H
	DD	01899dH
	DD	018c9cH
	DD	00H
	DD	018aceH
	DD	01872cH
	DD	018802H
	DD	00H
	DD	018acfH
	DD	018731H
	DD	018802H
	DD	00H
	DD	018ad0H
	DD	018736H
	DD	018802H
	DD	00H
	DD	018ad1H
	DD	01873bH
	DD	018802H
	DD	00H
	DD	018ad2H
	DD	01872cH
	DD	0187e7H
	DD	00H
	DD	018ad3H
	DD	018731H
	DD	0187e9H
	DD	00H
	DD	018ad4H
	DD	018736H
	DD	0187eaH
	DD	00H
	DD	018ad5H
	DD	01873bH
	DD	0187e8H
	DD	00H
	DD	018ad6H
	DD	0189a2H
	DD	018814H
	DD	00H
	DD	018ad7H
	DD	0189a7H
	DD	018815H
	DD	00H
	DD	018e50H
	DD	0189a7H
	DD	018cc8H
	DD	00H
	DD	018e5bH
	DD	0189a7H
	DD	018c9cH
	DD	00H
	DD	018ad8H
	DD	018740H
	DD	018800H
	DD	00H
	DD	018ad9H
	DD	018745H
	DD	018800H
	DD	00H
	DD	018adaH
	DD	01874aH
	DD	018800H
	DD	00H
	DD	018adbH
	DD	01874fH
	DD	018800H
	DD	00H
	DD	018adcH
	DD	018740H
	DD	0187eaH
	DD	00H
	DD	018addH
	DD	018745H
	DD	0187e9H
	DD	00H
	DD	018adeH
	DD	01874aH
	DD	0187e7H
	DD	00H
	DD	018adfH
	DD	01874fH
	DD	0187e8H
	DD	00H
	DD	018ae0H
	DD	0189acH
	DD	018814H
	DD	00H
	DD	018ae1H
	DD	0189b1H
	DD	018815H
	DD	00H
	DD	018e52H
	DD	0189b1H
	DD	018cc8H
	DD	00H
	DD	018e5dH
	DD	0189b1H
	DD	018c9cH
	DD	00H
	DD	018ae2H
	DD	018754H
	DD	0187ffH
	DD	00H
	DD	018ae3H
	DD	018759H
	DD	0187ffH
	DD	00H
	DD	018ae4H
	DD	01875eH
	DD	0187ffH
	DD	00H
	DD	018ae5H
	DD	018763H
	DD	0187ffH
	DD	00H
	DD	018ae6H
	DD	018754H
	DD	0187e8H
	DD	00H
	DD	018ae7H
	DD	018759H
	DD	0187eaH
	DD	00H
	DD	018ae8H
	DD	01875eH
	DD	0187e9H
	DD	00H
	DD	018ae9H
	DD	018763H
	DD	0187e7H
	DD	00H
	DD	018aeaH
	DD	0189b6H
	DD	018814H
	DD	00H
	DD	018aebH
	DD	0189bbH
	DD	018815H
	DD	00H
	DD	018e51H
	DD	0189bbH
	DD	018cc8H
	DD	00H
	DD	018e5cH
	DD	0189bbH
	DD	018c9cH
	DD	00H
	DD	018aecH
	DD	018768H
	DD	018801H
	DD	00H
	DD	018aedH
	DD	01876dH
	DD	018801H
	DD	00H
	DD	018aeeH
	DD	018772H
	DD	018801H
	DD	00H
	DD	018aefH
	DD	018777H
	DD	018801H
	DD	00H
	DD	018af0H
	DD	018768H
	DD	0187e9H
	DD	00H
	DD	018af1H
	DD	01876dH
	DD	0187e8H
	DD	00H
	DD	018af2H
	DD	018772H
	DD	0187e7H
	DD	00H
	DD	018af3H
	DD	018777H
	DD	0187eaH
	DD	00H
	DD	018af4H
	DD	0189c0H
	DD	018814H
	DD	00H
	DD	018af5H
	DD	0189c5H
	DD	018815H
	DD	00H
	DD	018e54H
	DD	0189c5H
	DD	018cc8H
	DD	00H
	DD	018e5fH
	DD	0189c5H
	DD	018c9cH
	DD	00H
	DD	018af6H
	DD	01877cH
	DD	01882cH
	DD	00H
	DD	018af7H
	DD	018781H
	DD	01882cH
	DD	00H
	DD	018af8H
	DD	018786H
	DD	01882cH
	DD	00H
	DD	018af9H
	DD	01878bH
	DD	01882cH
	DD	00H
	DD	018afaH
	DD	01877cH
	DD	0187eaH
	DD	00H
	DD	018afbH
	DD	018781H
	DD	0187e7H
	DD	00H
	DD	018afcH
	DD	018786H
	DD	0187e9H
	DD	00H
	DD	018afdH
	DD	01878bH
	DD	0187e8H
	DD	00H
	DD	018afeH
	DD	0189caH
	DD	018814H
	DD	00H
	DD	018affH
	DD	0189cfH
	DD	018815H
	DD	00H
	DD	018e53H
	DD	0189cfH
	DD	018cc8H
	DD	00H
	DD	018e5eH
	DD	0189cfH
	DD	018c9cH
	DD	00H
	DD	018b3bH
	DD	018b39H
	DD	018b3aH
	DD	00H
	DD	018b3bH
	DD	018b3aH
	DD	018b39H
	DD	00H
?RideCodeMode@@3PAUtagRideCodeMode@@A DD 018816H	; RideCodeMode
	DD	01H
	DD	018806H
	DD	02H
	DD	01880aH
	DD	04H
	DD	0187b7H
	DD	08H
	DD	0187c0H
	DD	010H
	DD	0187bbH
	DD	020H
	DD	0187faH
	DD	040H
	DD	0187d6H
	DD	080H
	DD	018814H
	DD	0100H
	DD	018815H
	DD	0200H
	DD	018c9cH
	DD	0800H
	DD	018cc8H
	DD	0400H
	DD	018812H
	DD	01000H
	DD	018811H
	DD	02000H
	DD	018a28H
	DD	04000H
	DD	018a2bH
	DD	08000H
	DD	018f30H
	DD	010000H
	DD	018f31H
	DD	020000H
	DD	018f68H
	DD	040000H
	DD	0187fcH
	DD	080000H
	DD	0187d3H
	DD	0100000H
	DD	018fa9H
	DD	0200000H
	DD	018faaH
	DD	0400000H
	DD	018a09H
	DD	0800000H
	DD	018a0aH
	DD	01000000H
	DD	019394H
	DD	02000000H
	DD	0187b2H
	DD	04000000H
?RideNoList@@3PAUtagRideNoList@@A DD 018bb9H		; RideNoList
	DD	018bbaH
	DD	018bbbH
	DD	018bbcH
	DD	018bbdH
	DD	018bbeH
	DD	018bbfH
	DD	018bc0H
	DD	018a90H
	DD	018a91H
	DD	018e5aH
	DD	018e65H
	DD	018849H
	DD	018844H
	DD	01885dH
	DD	018ee5H
	DD	018f0dH
	DD	018f19H
	DD	018f76H
	ORG $+32
	DD	018bc1H
	DD	018bc2H
	DD	018bc3H
	DD	018bc4H
	DD	018bc5H
	DD	018bc6H
	DD	018bc7H
	DD	018bc8H
	DD	018a9aH
	DD	018a9bH
	DD	018e62H
	DD	018e64H
	DD	018849H
	DD	018844H
	DD	01885dH
	DD	018ee6H
	DD	018f0eH
	DD	018f1aH
	DD	018f77H
	ORG $+32
	DD	018bc9H
	DD	018bcaH
	DD	018bcbH
	DD	018bccH
	DD	018bcdH
	DD	018bceH
	DD	018bcfH
	DD	018bd0H
	DD	018aa4H
	DD	018aa5H
	DD	018e57H
	DD	018e4dH
	DD	018849H
	DD	018844H
	DD	01885dH
	DD	018ee7H
	DD	018f0fH
	DD	018f1bH
	DD	018f78H
	ORG $+32
	DD	018bd1H
	DD	018bd2H
	DD	018bd3H
	DD	018bd4H
	DD	018bd5H
	DD	018bd6H
	DD	018bd7H
	DD	018bd8H
	DD	018aaeH
	DD	018aafH
	DD	018e58H
	DD	018e4eH
	DD	018849H
	DD	018844H
	DD	01885dH
	DD	018ee8H
	DD	018f10H
	DD	018f1cH
	DD	018f79H
	ORG $+32
	DD	018bd9H
	DD	018bdaH
	DD	018bdbH
	DD	018bdcH
	DD	018bddH
	DD	018bdeH
	DD	018bdfH
	DD	018be0H
	DD	018ab8H
	DD	018ab9H
	DD	018e60H
	DD	018e55H
	DD	018849H
	DD	018844H
	DD	01885dH
	DD	018ee9H
	DD	018f11H
	DD	018f1dH
	DD	018f7aH
	ORG $+32
	DD	018be1H
	DD	018be2H
	DD	018be3H
	DD	018be4H
	DD	018be5H
	DD	018be6H
	DD	018be7H
	DD	018be8H
	DD	018ac2H
	DD	018ac3H
	DD	018e61H
	DD	018e56H
	DD	018849H
	DD	018844H
	DD	01885dH
	DD	018eeaH
	DD	018f12H
	DD	018f1eH
	DD	018f7bH
	ORG $+32
	DD	018be9H
	DD	018beaH
	DD	018bebH
	DD	018becH
	DD	018bedH
	DD	018beeH
	DD	018befH
	DD	018bf0H
	DD	018accH
	DD	018acdH
	DD	018e59H
	DD	018e4fH
	DD	018849H
	DD	018844H
	DD	01885dH
	DD	018eebH
	DD	018f13H
	DD	018f1fH
	DD	018f7cH
	ORG $+32
	DD	018bf1H
	DD	018bf2H
	DD	018bf3H
	DD	018bf4H
	DD	018bf5H
	DD	018bf6H
	DD	018bf7H
	DD	018bf8H
	DD	018ad6H
	DD	018ad7H
	DD	018e5bH
	DD	018e50H
	DD	018849H
	DD	018844H
	DD	01885dH
	DD	018eecH
	DD	018f14H
	DD	018f20H
	DD	018f7dH
	ORG $+32
	DD	018bf9H
	DD	018bfaH
	DD	018bfbH
	DD	018bfcH
	DD	018bfdH
	DD	018bfeH
	DD	018bffH
	DD	018c00H
	DD	018ae0H
	DD	018ae1H
	DD	018e5dH
	DD	018e52H
	DD	018849H
	DD	018844H
	DD	01885dH
	DD	018eedH
	DD	018f15H
	DD	018f21H
	DD	018f7eH
	ORG $+32
	DD	018c01H
	DD	018c02H
	DD	018c03H
	DD	018c04H
	DD	018c05H
	DD	018c06H
	DD	018c07H
	DD	018c08H
	DD	018aeaH
	DD	018aebH
	DD	018e5cH
	DD	018e51H
	DD	018849H
	DD	018844H
	DD	01885dH
	DD	018eeeH
	DD	018f16H
	DD	018f22H
	DD	018f7fH
	ORG $+32
	DD	018c09H
	DD	018c0aH
	DD	018c0bH
	DD	018c0cH
	DD	018c0dH
	DD	018c0eH
	DD	018c0fH
	DD	018c10H
	DD	018af4H
	DD	018af5H
	DD	018e5fH
	DD	018e54H
	DD	018849H
	DD	018844H
	DD	01885dH
	DD	018eefH
	DD	018f17H
	DD	018f23H
	DD	018f80H
	ORG $+32
	DD	018c11H
	DD	018c12H
	DD	018c13H
	DD	018c14H
	DD	018c15H
	DD	018c16H
	DD	018c17H
	DD	018c18H
	DD	018afeH
	DD	018affH
	DD	018e5eH
	DD	018e53H
	DD	018849H
	DD	018844H
	DD	01885dH
	DD	018ef0H
	DD	018f18H
	DD	018f24H
	DD	018f81H
	ORG $+32
?RPlistMode@@3PAUtagRidePetList@@A DD 0186a0H		; RPlistMode
	DD	00H
	DD	0186a5H
	DD	00H
	DD	0186aaH
	DD	00H
	DD	0186afH
	DD	00H
	DD	0186b4H
	DD	01H
	DD	0186b9H
	DD	01H
	DD	0186beH
	DD	01H
	DD	0186c3H
	DD	01H
	DD	0186c8H
	DD	02H
	DD	0186cdH
	DD	02H
	DD	0186d2H
	DD	02H
	DD	0186d7H
	DD	02H
	DD	0186dcH
	DD	03H
	DD	0186e1H
	DD	03H
	DD	0186e6H
	DD	03H
	DD	0186ebH
	DD	03H
	DD	0186f0H
	DD	04H
	DD	0186f5H
	DD	04H
	DD	0186faH
	DD	04H
	DD	0186ffH
	DD	04H
	DD	018704H
	DD	05H
	DD	018709H
	DD	05H
	DD	01870eH
	DD	05H
	DD	018713H
	DD	05H
	DD	018718H
	DD	06H
	DD	01871dH
	DD	06H
	DD	018722H
	DD	06H
	DD	018727H
	DD	06H
	DD	01872cH
	DD	07H
	DD	018731H
	DD	07H
	DD	018736H
	DD	07H
	DD	01873bH
	DD	07H
	DD	018740H
	DD	08H
	DD	018745H
	DD	08H
	DD	01874aH
	DD	08H
	DD	01874fH
	DD	08H
	DD	018754H
	DD	09H
	DD	018759H
	DD	09H
	DD	01875eH
	DD	09H
	DD	018763H
	DD	09H
	DD	018768H
	DD	0aH
	DD	01876dH
	DD	0aH
	DD	018772H
	DD	0aH
	DD	018777H
	DD	0aH
	DD	01877cH
	DD	0bH
	DD	018781H
	DD	0bH
	DD	018786H
	DD	0bH
	DD	01878bH
	DD	0bH
?battlePetNoBak@@3HA DD 0fffffffeH			; battlePetNoBak
?battlePetNoBak2@@3HA DD 0fffffffeH			; battlePetNoBak2
?BattleCmdNo@@3HA DD 0ffffffffH				; BattleCmdNo
?battleButtonBak@@3HA DD 0ffffffffH			; battleButtonBak
?battleButtonBak2@@3HA DD 0ffffffffH			; battleButtonBak2
?battleWazaTargetBak@@3HA DD 0ffffffffH			; battleWazaTargetBak
?prouseskill@@3HA DD 0ffffffffH				; prouseskill
	ORG $+4
?Ordinal@@3PAHA DD 013H					; Ordinal
	DD	011H
	DD	0fH
	DD	010H
	DD	012H
	DD	0eH
	DD	0cH
	DD	0aH
	DD	0bH
	DD	0dH
	DD	09H
	DD	07H
	DD	05H
	DD	06H
	DD	08H
	DD	04H
	DD	02H
	DD	00H
	DD	01H
	DD	03H
_DATA	ENDS
PUBLIC	___local_stdio_printf_options
PUBLIC	??$__vcrt_va_start_verify_argument_type@QBD@@YAXXZ ; __vcrt_va_start_verify_argument_type<char const * const>
PUBLIC	__vsnprintf_l
PUBLIC	__vsprintf_l
PUBLIC	__vsprintf_s_l
PUBLIC	_vsprintf_s
PUBLIC	_sprintf
PUBLIC	?BattleMenuProc@@YAXXZ				; BattleMenuProc
PUBLIC	?ClearBattleButton@@YAXXZ			; ClearBattleButton
PUBLIC	?InitBattleMenu@@YAXXZ				; InitBattleMenu
PUBLIC	?CheckBattleAnimFlag@@YAXXZ			; CheckBattleAnimFlag
PUBLIC	?CheckBattle1P2P@@YAHXZ				; CheckBattle1P2P
PUBLIC	?HpMeterDisp@@YAXH@Z				; HpMeterDisp
PUBLIC	?BattleNameDisp@@YAXXZ				; BattleNameDisp
PUBLIC	?BattleSetWazaHitBox@@YAXHH@Z			; BattleSetWazaHitBox
PUBLIC	?InitBattleAnimFlag@@YAXXZ			; InitBattleAnimFlag
PUBLIC	?CheckPetSuu@@YAHXZ				; CheckPetSuu
PUBLIC	?ClearBoxFlag@@YAXXZ				; ClearBoxFlag
PUBLIC	?CheckBattelTarget@@YAHXZ			; CheckBattelTarget
PUBLIC	?BattleButtonOff@@YAXXZ				; BattleButtonOff
PUBLIC	?InitItem2@@YAXHH@Z				; InitItem2
PUBLIC	??$sprintf_s@$0BAA@@@YAHAAY0BAA@DPBDZZ		; sprintf_s<256>
PUBLIC	?BattleButtonAttack@@YAXXZ			; BattleButtonAttack
PUBLIC	?BattleButtonJujutsu@@YAXXZ			; BattleButtonJujutsu
PUBLIC	?BattleButtonCapture@@YAXXZ			; BattleButtonCapture
PUBLIC	?BattleButtonHelp@@YAXXZ			; BattleButtonHelp
PUBLIC	?BattleButtonGuard@@YAXXZ			; BattleButtonGuard
PUBLIC	?BattleButtonItem@@YAXXZ			; BattleButtonItem
PUBLIC	?BattleButtonPet@@YAXXZ				; BattleButtonPet
PUBLIC	?BattleButtonPPLSKILL@@YAXXZ			; BattleButtonPPLSKILL
PUBLIC	?BattleButtonEscape@@YAXXZ			; BattleButtonEscape
PUBLIC	?BattleButtonWaza@@YAXXZ			; BattleButtonWaza
PUBLIC	?BattleTargetSelect@@YAXXZ			; BattleTargetSelect
PUBLIC	?GetBattelTarget@@YAHXZ				; GetBattelTarget
PUBLIC	?BattleCntDownDisp@@YAXXZ			; BattleCntDownDisp
PUBLIC	?CloseInfoWnd@@YAXXZ				; CloseInfoWnd
PUBLIC	??$__vcrt_va_start_verify_argument_type@PBD@@YAXXZ ; __vcrt_va_start_verify_argument_type<char const *>
PUBLIC	?_OptionsStorage@?1??__local_stdio_printf_options@@9@4_KA ; `__local_stdio_printf_options'::`2'::_OptionsStorage
PUBLIC	??_C@_08JCHLGOEH@?$CFs?5Lv?3?$CFd?$AA@		; `string'
PUBLIC	??_C@_08NJBMJDFM@HP?3?$CFd?1?$CFd?$AA@		; `string'
PUBLIC	??_C@_0L@BHJLNCHD@?$LA?x?$LA?$NN?G?O?$LE?Y?$KB?$KD?$AA@ ; `string'
PUBLIC	??_C@_0BC@GBLBFMBP@?A?V?$LM?z?$MA?$LL?5?$LL?g?$LP?k?G?O?$LE?Y?$KB?$KD?$AA@ ; `string'
PUBLIC	??_C@_0CJ@HJBAPDHB@?D?$KH?$LJ?$KM?$LL?s?E?B?$LP?$KB?$LM?$KN?$LE?B?5?A?V?$LM?z?$MA?$LL?5?$LL?g?$LP?k?G?R?$LM?v?$LO?x@ ; `string'
PUBLIC	??_C@_07HFNBMNBH@?$CF2d?1?$CF2d?$AA@		; `string'
PUBLIC	??_C@_0BA@BODGMCMN@?A?V?$LM?z?$MA?L?5?$LO?x?$LN?$MA?$LE?O?$LE?Y?$AA@ ; `string'
PUBLIC	??_C@_0CK@LMOADLH@?F?d?F?$KO?C?$KC?$MA?L?5?$LC?K?5?B?w?$LM?$KN?5?$LE?u?$MA?L?$LL?s?5?F?w?H?$LJ?G?R?$LM?v@ ; `string'
PUBLIC	??_C@_0L@OPNNNOMC@?F?w?H?$LJ?G?O?$LE?Y?$KB?$KD?$AA@ ; `string'
PUBLIC	??_C@_06EBHMOCNH@HELP?$KB?$KD?$AA@		; `string'
PUBLIC	??_C@_01BBODEMC@G?$AA@				; `string'
PUBLIC	??_C@_06NDKEIKGO@?$LJ?f?$LO?n?$KB?$KD?$AA@	; `string'
PUBLIC	??_C@_08CJOHOOE@?$LO?F?$MA?L?E?$NL?$KB?$KD?$AA@	; `string'
PUBLIC	??_C@_0CA@ELBOPCEK@?$MA?$PM?E?u?5?A?$NP?5?$LO?V?$LP?O?$LF?$LP?$LJ?$LA?5?$MA?e?$LK?q?5?$LB?$LD?C?$LM?5?$LK?R?$LA?$KB?$AA@ ; `string'
PUBLIC	??_C@_0L@CJKKBEMM@?F?d?F?$KO?$LB?$LD?C?$LM?$KB?$KD?$AA@ ; `string'
PUBLIC	??_C@_04FIJAIIHF@S?$HM?$CFd?$AA@		; `string'
PUBLIC	??_C@_04JBEPHANM@S?$HM?91?$AA@			; `string'
PUBLIC	??_C@_06ELKFHEJ@?C?f?3?$CF3d?$AA@		; `string'
PUBLIC	??_C@_0BH@KGEJIJPJ@?$CF?93d?5?5?5?5?5?5?5?5?5?$CF5d?5?5?5?$CF5d?$AA@ ; `string'
PUBLIC	??_C@_0BF@FCDGFJJJ@?G?C?$LH?$LJ?$MA?L?$LO?n?$LA?$KB?5?$LO?x?$LE?B?5?F?d?F?$KO?$AA@ ; `string'
PUBLIC	??_C@_00CNPNBAHC@?$AA@				; `string'
PUBLIC	??_C@_08LCIHGOIJ@?A?w?$LO?w?$LB?b?$LE?I?$AA@	; `string'
PUBLIC	??_C@_03GHDNOBPC@?$CF8s?$AA@			; `string'
PUBLIC	??_C@_02DKCKIIND@?$CFs?$AA@			; `string'
PUBLIC	??_C@_06BPKJHHJO@?5?5?$CFd?$KD?$KF?$AA@		; `string'
PUBLIC	??_C@_0BA@OEIEMLKK@?$CI?$LM?R?$LK?q?G?O?$LE?YMP?3?$CFd?$CJ?$AA@ ; `string'
PUBLIC	??_C@_01DDCIFGEA@E?$AA@				; `string'
PUBLIC	??_C@_06DOILANO@?E?$LL?C?b?$KB?$KD?$AA@		; `string'
PUBLIC	??_C@_07NGDMDFPD@P?$HM?$CFX?$HM?$CFX?$AA@	; `string'
PUBLIC	??_C@_07NMPJDMOK@W?$HM?$CFX?$HM?$CFX?$AA@	; `string'
PUBLIC	??_C@_0BC@EMOKBAPI@?$LB?b?$LE?I?$MA?$LL?5?$LL?g?$LP?k?G?O?$LE?Y?$KB?$KD?$AA@ ; `string'
PUBLIC	??_C@_07BDJJCCFL@W?$HMFF?$HMFF?$AA@		; `string'
PUBLIC	??_C@_0N@DBNACIMP@?5?5?5?5?5?5?5?$CF?922s?$AA@	; `string'
PUBLIC	??_C@_0BF@NNNOOJBA@?$LI?q?G?$KF?$LI?$KG?5?$LM?$LB?E?C?5?G?X?A?V?$LM?$LM?$LP?d?$AA@ ; `string'
PUBLIC	??_C@_04DMFDFHBJ@H?$HM?$CFX?$AA@		; `string'
PUBLIC	??_C@_04JJEDCNJK@T?$HM?$CFX?$AA@		; `string'
PUBLIC	??_C@_07DLEHBIBA@J?$HM?$CFX?$HM?$CFX?$AA@	; `string'
PUBLIC	??_C@_07LFMIBPPD@I?$HM?$CFX?$HM?$CFX?$AA@	; `string'
PUBLIC	??_C@_01NANMIPIL@N?$AA@				; `string'
PUBLIC	??_C@_03GPCJOALC@?$CF2d?$AA@			; `string'
PUBLIC	??_C@_05FNFPHGDP@?$CF?924s?$AA@			; `string'
PUBLIC	__real@4044000000000000
EXTRN	___report_rangecheckfailure:PROC
EXTRN	?TimeGetTime@@YAIXZ:PROC			; TimeGetTime
EXTRN	_memset:PROC
EXTRN	_strcpy:PROC
EXTRN	_strlen:PROC
EXTRN	__imp__strncpy:PROC
EXTRN	__imp____stdio_common_vsprintf:PROC
EXTRN	__imp____stdio_common_vsprintf_s:PROC
EXTRN	?DeathAction@@YAXPAUaction@@@Z:PROC		; DeathAction
EXTRN	?StockDispBuffer@@YAHHHEHH@Z:PROC		; StockDispBuffer
EXTRN	?StockBoxDispBuffer@@YAXHHHHEHH@Z:PROC		; StockBoxDispBuffer
EXTRN	?StockChatBufferLine@@YAXPADEH@Z:PROC		; StockChatBufferLine
EXTRN	?GetStrLastByte@@YAHPAD@Z:PROC			; GetStrLastByte
EXTRN	?GetStrWidth@@YAHPAD@Z:PROC			; GetStrWidth
EXTRN	?StockFontBuffer@@YAHHHDHPADH@Z:PROC		; StockFontBuffer
EXTRN	?lssproto_B_send@@YAXHPAD@Z:PROC		; lssproto_B_send
EXTRN	?lssproto_ID_send@@YAXHHHHH@Z:PROC		; lssproto_ID_send
EXTRN	?lssproto_HL_send@@YAXHH@Z:PROC			; lssproto_HL_send
EXTRN	?old_lssproto_B_send@@YAXHPAD@Z:PROC		; old_lssproto_B_send
EXTRN	?old_lssproto_ID_send@@YAXHHHHH@Z:PROC		; old_lssproto_ID_send
EXTRN	?old_lssproto_HL_send@@YAXHH@Z:PROC		; old_lssproto_HL_send
EXTRN	?play_se@@YAHHHH@Z:PROC				; play_se
EXTRN	?MakeWindowDisp@@YAPAUaction@@HHHHHH@Z:PROC	; MakeWindowDisp
EXTRN	?MakeHitBox@@YAHHHHHH@Z:PROC			; MakeHitBox
EXTRN	?CenteringStr@@YAXPAD0H@Z:PROC			; CenteringStr
EXTRN	@_RTC_CheckStackVars@8:PROC
EXTRN	@__security_check_cookie@4:PROC
EXTRN	__RTC_CheckEsp:PROC
EXTRN	__RTC_InitBase:PROC
EXTRN	__RTC_Shutdown:PROC
EXTRN	_memset:PROC
EXTRN	?DISPLACEMENT_X@@3HA:DWORD			; DISPLACEMENT_X
EXTRN	?DISPLACEMENT_Y@@3HA:DWORD			; DISPLACEMENT_Y
EXTRN	?SubProcNo@@3IA:DWORD				; SubProcNo
EXTRN	?p_party@@3PAPAUaction@@A:BYTE			; p_party
EXTRN	?mouse@@3UMOUSE@@A:BYTE				; mouse
EXTRN	?HitFontNo@@3HA:DWORD				; HitFontNo
EXTRN	?HitDispNo@@3HA:DWORD				; HitDispNo
EXTRN	?OneLineInfoStr@@3PADA:BYTE			; OneLineInfoStr
EXTRN	?bNewServer@@3HA:DWORD				; bNewServer
EXTRN	?sockfd@@3IA:DWORD				; sockfd
EXTRN	?pc@@3UPC@@A:BYTE				; pc
EXTRN	?helpFlag@@3FA:WORD				; helpFlag
EXTRN	?magic@@3PAUMAGIC@@A:BYTE			; magic
EXTRN	?pet@@3PAUPET@@A:BYTE				; pet
EXTRN	?petSkill@@3PAY06UPET_SKILL@@A:BYTE		; petSkill
EXTRN	?profession_skill@@3PAUPROFESSION_SKILL@@A:BYTE	; profession_skill
EXTRN	?CG_BATTTLE_SKILLCHOICE@@3HA:DWORD		; CG_BATTTLE_SKILLCHOICE
EXTRN	?CG_BTL_PET_CHANGE_WND@@3HA:DWORD		; CG_BTL_PET_CHANGE_WND
EXTRN	?CG_ITEM_WND_1@@3HA:DWORD			; CG_ITEM_WND_1
EXTRN	?CG_JUJUTU_WND@@3HA:DWORD			; CG_JUJUTU_WND
EXTRN	?CG_PET_WAZA_WND@@3HA:DWORD			; CG_PET_WAZA_WND
EXTRN	?NoHelpFlag@@3HA:DWORD				; NoHelpFlag
EXTRN	?NoCastFlag@@3HA:DWORD				; NoCastFlag
EXTRN	?MenuToggleFlag@@3IA:DWORD			; MenuToggleFlag
EXTRN	?ItemBuffer@@3PAUITEM_BUFFER@@A:BYTE		; ItemBuffer
EXTRN	?nowFloor@@3HA:DWORD				; nowFloor
EXTRN	?nowGx@@3HA:DWORD				; nowGx
EXTRN	?nowGy@@3HA:DWORD				; nowGy
EXTRN	?menuBtn@@3FA:WORD				; menuBtn
EXTRN	?nameOverTheHeadFlag@@3FA:WORD			; nameOverTheHeadFlag
EXTRN	?AI_First@@3HA:DWORD				; AI_First
EXTRN	?BattleSkill@@3PAHA:BYTE			; BattleSkill
EXTRN	?AssitSkill@@3PAHA:BYTE				; AssitSkill
EXTRN	?AdvanceSkill@@3PAHA:BYTE			; AdvanceSkill
EXTRN	___security_cookie:DWORD
EXTRN	__fltused:DWORD
;	COMDAT ?_OptionsStorage@?1??__local_stdio_printf_options@@9@4_KA
_BSS	SEGMENT
?_OptionsStorage@?1??__local_stdio_printf_options@@9@4_KA DQ 01H DUP (?) ; `__local_stdio_printf_options'::`2'::_OptionsStorage
_BSS	ENDS
_BSS	SEGMENT
?battleButtonFlag@@3PAHA DD 0aH DUP (?)			; battleButtonFlag
?battleButtonDispNo@@3PAHA DD 0aH DUP (?)		; battleButtonDispNo
?battleMenuJujutsuFontNo@@3PAHA DD 06H DUP (?)		; battleMenuJujutsuFontNo
?battleMenuItemFontNo@@3PAHA DD 06H DUP (?)		; battleMenuItemFontNo
?battleMenuPetFontNo@@3PAHA DD 07H DUP (?)		; battleMenuPetFontNo
?battleMenuWazaFontNo@@3PAHA DD 09H DUP (?)		; battleMenuWazaFontNo
?pActInfoWnd@@3PAUaction@@A DD 01H DUP (?)		; pActInfoWnd
?buttonX@@3HA DD 01H DUP (?)				; buttonX
?buttonY@@3HA DD 01H DUP (?)				; buttonY
?buttonA@@3HA DD 01H DUP (?)				; buttonA
?AdvanceSkillBtn@@3PAHA DD 01aH DUP (?)			; AdvanceSkillBtn
?AssitSkillBtn@@3PAHA DD 01aH DUP (?)			; AssitSkillBtn
?BattleSkillBtn@@3PAHA DD 01aH DUP (?)			; BattleSkillBtn
_BSS	ENDS
;	COMDAT __real@4044000000000000
CONST	SEGMENT
__real@4044000000000000 DQ 04044000000000000r	; 40
CONST	ENDS
;	COMDAT rtc$TMZ
rtc$TMZ	SEGMENT
__RTC_Shutdown.rtc$TMZ DD FLAT:__RTC_Shutdown
rtc$TMZ	ENDS
;	COMDAT rtc$IMZ
rtc$IMZ	SEGMENT
__RTC_InitBase.rtc$IMZ DD FLAT:__RTC_InitBase
rtc$IMZ	ENDS
;	COMDAT ??_C@_05FNFPHGDP@?$CF?924s?$AA@
CONST	SEGMENT
??_C@_05FNFPHGDP@?$CF?924s?$AA@ DB '%-24s', 00H		; `string'
CONST	ENDS
;	COMDAT ??_C@_03GPCJOALC@?$CF2d?$AA@
CONST	SEGMENT
??_C@_03GPCJOALC@?$CF2d?$AA@ DB '%2d', 00H		; `string'
CONST	ENDS
;	COMDAT ??_C@_01NANMIPIL@N?$AA@
CONST	SEGMENT
??_C@_01NANMIPIL@N?$AA@ DB 'N', 00H			; `string'
CONST	ENDS
;	COMDAT ??_C@_07LFMIBPPD@I?$HM?$CFX?$HM?$CFX?$AA@
CONST	SEGMENT
??_C@_07LFMIBPPD@I?$HM?$CFX?$HM?$CFX?$AA@ DB 'I|%X|%X', 00H ; `string'
CONST	ENDS
;	COMDAT ??_C@_07DLEHBIBA@J?$HM?$CFX?$HM?$CFX?$AA@
CONST	SEGMENT
??_C@_07DLEHBIBA@J?$HM?$CFX?$HM?$CFX?$AA@ DB 'J|%X|%X', 00H ; `string'
CONST	ENDS
;	COMDAT ??_C@_04JJEDCNJK@T?$HM?$CFX?$AA@
CONST	SEGMENT
??_C@_04JJEDCNJK@T?$HM?$CFX?$AA@ DB 'T|%X', 00H		; `string'
CONST	ENDS
;	COMDAT ??_C@_04DMFDFHBJ@H?$HM?$CFX?$AA@
CONST	SEGMENT
??_C@_04DMFDFHBJ@H?$HM?$CFX?$AA@ DB 'H|%X', 00H		; `string'
CONST	ENDS
;	COMDAT ??_C@_0BF@NNNOOJBA@?$LI?q?G?$KF?$LI?$KG?5?$LM?$LB?E?C?5?G?X?A?V?$LM?$LM?$LP?d?$AA@
CONST	SEGMENT
??_C@_0BF@NNNOOJBA@?$LI?q?G?$KF?$LI?$KG?5?$LM?$LB?E?C?5?G?X?A?V?$LM?$LM?$LP?d?$AA@ DB 0b8H
	DB	0f1H, 0c7H, 0a5H, 0b8H, 0a6H, ' ', 0bcH, 0b1H, 0c5H, 0c3H, ' ', 0c7H
	DB	0d8H, 0c1H, 0d6H, 0bcH, 0bcH, 0bfH, 0e4H, 00H ; `string'
CONST	ENDS
;	COMDAT ??_C@_0N@DBNACIMP@?5?5?5?5?5?5?5?$CF?922s?$AA@
CONST	SEGMENT
??_C@_0N@DBNACIMP@?5?5?5?5?5?5?5?$CF?922s?$AA@ DB '       %-22s', 00H ; `string'
CONST	ENDS
;	COMDAT ??_C@_07BDJJCCFL@W?$HMFF?$HMFF?$AA@
CONST	SEGMENT
??_C@_07BDJJCCFL@W?$HMFF?$HMFF?$AA@ DB 'W|FF|FF', 00H	; `string'
CONST	ENDS
;	COMDAT ??_C@_0BC@EMOKBAPI@?$LB?b?$LE?I?$MA?$LL?5?$LL?g?$LP?k?G?O?$LE?Y?$KB?$KD?$AA@
CONST	SEGMENT
??_C@_0BC@EMOKBAPI@?$LB?b?$LE?I?$MA?$LL?5?$LL?g?$LP?k?G?O?$LE?Y?$KB?$KD?$AA@ DB 0b1H
	DB	0e2H, 0b4H, 0c9H, 0c0H, 0bbH, ' ', 0bbH, 0e7H, 0bfH, 0ebH, 0c7H
	DB	0cfH, 0b4H, 0d9H, 0a1H, 0a3H, 00H		; `string'
CONST	ENDS
;	COMDAT ??_C@_07NMPJDMOK@W?$HM?$CFX?$HM?$CFX?$AA@
CONST	SEGMENT
??_C@_07NMPJDMOK@W?$HM?$CFX?$HM?$CFX?$AA@ DB 'W|%X|%X', 00H ; `string'
CONST	ENDS
;	COMDAT ??_C@_07NGDMDFPD@P?$HM?$CFX?$HM?$CFX?$AA@
CONST	SEGMENT
??_C@_07NGDMDFPD@P?$HM?$CFX?$HM?$CFX?$AA@ DB 'P|%X|%X', 00H ; `string'
CONST	ENDS
;	COMDAT ??_C@_06DOILANO@?E?$LL?C?b?$KB?$KD?$AA@
CONST	SEGMENT
??_C@_06DOILANO@?E?$LL?C?b?$KB?$KD?$AA@ DB 0c5H, 0bbH, 0c3H, 0e2H, 0a1H, 0a3H
	DB	00H						; `string'
CONST	ENDS
;	COMDAT ??_C@_01DDCIFGEA@E?$AA@
CONST	SEGMENT
??_C@_01DDCIFGEA@E?$AA@ DB 'E', 00H			; `string'
CONST	ENDS
;	COMDAT ??_C@_0BA@OEIEMLKK@?$CI?$LM?R?$LK?q?G?O?$LE?YMP?3?$CFd?$CJ?$AA@
CONST	SEGMENT
??_C@_0BA@OEIEMLKK@?$CI?$LM?R?$LK?q?G?O?$LE?YMP?3?$CFd?$CJ?$AA@ DB '(', 0bcH
	DB	0d2H, 0baH, 0f1H, 0c7H, 0cfH, 0b4H, 0d9H, 'MP:%d)', 00H ; `string'
CONST	ENDS
;	COMDAT ??_C@_06BPKJHHJO@?5?5?$CFd?$KD?$KF?$AA@
CONST	SEGMENT
??_C@_06BPKJHHJO@?5?5?$CFd?$KD?$KF?$AA@ DB '  %d', 0a3H, 0a5H, 00H ; `string'
CONST	ENDS
;	COMDAT ??_C@_02DKCKIIND@?$CFs?$AA@
CONST	SEGMENT
??_C@_02DKCKIIND@?$CFs?$AA@ DB '%s', 00H		; `string'
CONST	ENDS
;	COMDAT ??_C@_03GHDNOBPC@?$CF8s?$AA@
CONST	SEGMENT
??_C@_03GHDNOBPC@?$CF8s?$AA@ DB '%8s', 00H		; `string'
CONST	ENDS
;	COMDAT ??_C@_08LCIHGOIJ@?A?w?$LO?w?$LB?b?$LE?I?$AA@
CONST	SEGMENT
??_C@_08LCIHGOIJ@?A?w?$LO?w?$LB?b?$LE?I?$AA@ DB 0c1H, 0f7H, 0beH, 0f7H, 0b1H
	DB	0e2H, 0b4H, 0c9H, 00H			; `string'
CONST	ENDS
;	COMDAT ??_C@_00CNPNBAHC@?$AA@
CONST	SEGMENT
??_C@_00CNPNBAHC@?$AA@ DB 00H				; `string'
CONST	ENDS
;	COMDAT ??_C@_0BF@FCDGFJJJ@?G?C?$LH?$LJ?$MA?L?$LO?n?$LA?$KB?5?$LO?x?$LE?B?5?F?d?F?$KO?$AA@
CONST	SEGMENT
??_C@_0BF@FCDGFJJJ@?G?C?$LH?$LJ?$MA?L?$LO?n?$LA?$KB?5?$LO?x?$LE?B?5?F?d?F?$KO?$AA@ DB 0c7H
	DB	0c3H, 0b7H, 0b9H, 0c0H, 0ccH, 0beH, 0eeH, 0b0H, 0a1H, ' ', 0beH
	DB	0f8H, 0b4H, 0c2H, ' ', 0c6H, 0e4H, 0c6H, 0aeH, 00H ; `string'
CONST	ENDS
;	COMDAT ??_C@_0BH@KGEJIJPJ@?$CF?93d?5?5?5?5?5?5?5?5?5?$CF5d?5?5?5?$CF5d?$AA@
CONST	SEGMENT
??_C@_0BH@KGEJIJPJ@?$CF?93d?5?5?5?5?5?5?5?5?5?$CF5d?5?5?5?$CF5d?$AA@ DB '%'
	DB	'-3d         %5d   %5d', 00H			; `string'
CONST	ENDS
;	COMDAT ??_C@_06ELKFHEJ@?C?f?3?$CF3d?$AA@
CONST	SEGMENT
??_C@_06ELKFHEJ@?C?f?3?$CF3d?$AA@ DB 0c3H, 0e6H, ':%3d', 00H ; `string'
CONST	ENDS
;	COMDAT ??_C@_04JBEPHANM@S?$HM?91?$AA@
CONST	SEGMENT
??_C@_04JBEPHANM@S?$HM?91?$AA@ DB 'S|-1', 00H		; `string'
CONST	ENDS
;	COMDAT ??_C@_04FIJAIIHF@S?$HM?$CFd?$AA@
CONST	SEGMENT
??_C@_04FIJAIIHF@S?$HM?$CFd?$AA@ DB 'S|%d', 00H		; `string'
CONST	ENDS
;	COMDAT ??_C@_0L@CJKKBEMM@?F?d?F?$KO?$LB?$LD?C?$LM?$KB?$KD?$AA@
CONST	SEGMENT
??_C@_0L@CJKKBEMM@?F?d?F?$KO?$LB?$LD?C?$LM?$KB?$KD?$AA@ DB 0c6H, 0e4H, 0c6H
	DB	0aeH, 0b1H, 0b3H, 0c3H, 0bcH, 0a1H, 0a3H, 00H ; `string'
CONST	ENDS
;	COMDAT ??_C@_0CA@ELBOPCEK@?$MA?$PM?E?u?5?A?$NP?5?$LO?V?$LP?O?$LF?$LP?$LJ?$LA?5?$MA?e?$LK?q?5?$LB?$LD?C?$LM?5?$LK?R?$LA?$KB?$AA@
CONST	SEGMENT
??_C@_0CA@ELBOPCEK@?$MA?$PM?E?u?5?A?$NP?5?$LO?V?$LP?O?$LF?$LP?$LJ?$LA?5?$MA?e?$LK?q?5?$LB?$LD?C?$LM?5?$LK?R?$LA?$KB?$AA@ DB 0c0H
	DB	0fcH, 0c5H, 0f5H, ' ', 0c1H, 0dfH, ' ', 0beH, 0d6H, 0bfH, 0cfH
	DB	0b5H, 0bfH, 0b9H, 0b0H, ' ', 0c0H, 0e5H, 0baH, 0f1H, ' ', 0b1H
	DB	0b3H, 0c3H, 0bcH, ' ', 0baH, 0d2H, 0b0H, 0a1H, 00H ; `string'
CONST	ENDS
;	COMDAT ??_C@_08CJOHOOE@?$LO?F?$MA?L?E?$NL?$KB?$KD?$AA@
CONST	SEGMENT
??_C@_08CJOHOOE@?$LO?F?$MA?L?E?$NL?$KB?$KD?$AA@ DB 0beH, 0c6H, 0c0H, 0ccH
	DB	0c5H, 0dbH, 0a1H, 0a3H, 00H			; `string'
CONST	ENDS
;	COMDAT ??_C@_06NDKEIKGO@?$LJ?f?$LO?n?$KB?$KD?$AA@
CONST	SEGMENT
??_C@_06NDKEIKGO@?$LJ?f?$LO?n?$KB?$KD?$AA@ DB 0b9H, 0e6H, 0beH, 0eeH, 0a1H
	DB	0a3H, 00H					; `string'
CONST	ENDS
;	COMDAT ??_C@_01BBODEMC@G?$AA@
CONST	SEGMENT
??_C@_01BBODEMC@G?$AA@ DB 'G', 00H			; `string'
CONST	ENDS
;	COMDAT ??_C@_06EBHMOCNH@HELP?$KB?$KD?$AA@
CONST	SEGMENT
??_C@_06EBHMOCNH@HELP?$KB?$KD?$AA@ DB 'HELP', 0a1H, 0a3H, 00H ; `string'
CONST	ENDS
;	COMDAT ??_C@_0L@OPNNNOMC@?F?w?H?$LJ?G?O?$LE?Y?$KB?$KD?$AA@
CONST	SEGMENT
??_C@_0L@OPNNNOMC@?F?w?H?$LJ?G?O?$LE?Y?$KB?$KD?$AA@ DB 0c6H, 0f7H, 0c8H, 0b9H
	DB	0c7H, 0cfH, 0b4H, 0d9H, 0a1H, 0a3H, 00H	; `string'
CONST	ENDS
;	COMDAT ??_C@_0CK@LMOADLH@?F?d?F?$KO?C?$KC?$MA?L?5?$LC?K?5?B?w?$LM?$KN?5?$LE?u?$MA?L?$LL?s?5?F?w?H?$LJ?G?R?$LM?v@
CONST	SEGMENT
??_C@_0CK@LMOADLH@?F?d?F?$KO?C?$KC?$MA?L?5?$LC?K?5?B?w?$LM?$KN?5?$LE?u?$MA?L?$LL?s?5?F?w?H?$LJ?G?R?$LM?v@ DB 0c6H
	DB	0e4H, 0c6H, 0aeH, 0c3H, 0a2H, 0c0H, 0ccH, ' ', 0b2H, 0cbH, ' ', 0c2H
	DB	0f7H, 0bcH, 0adH, ' ', 0b4H, 0f5H, 0c0H, 0ccH, 0bbH, 0f3H, ' ', 0c6H
	DB	0f7H, 0c8H, 0b9H, 0c7H, 0d2H, 0bcH, 0f6H, ' ', 0beH, 0f8H, 0beH
	DB	0eeH, 0bfH, 0e4H, 0a1H, 0a3H, 00H		; `string'
CONST	ENDS
;	COMDAT ??_C@_0BA@BODGMCMN@?A?V?$LM?z?$MA?L?5?$LO?x?$LN?$MA?$LE?O?$LE?Y?$AA@
CONST	SEGMENT
??_C@_0BA@BODGMCMN@?A?V?$LM?z?$MA?L?5?$LO?x?$LN?$MA?$LE?O?$LE?Y?$AA@ DB 0c1H
	DB	0d6H, 0bcH, 0faH, 0c0H, 0ccH, ' ', 0beH, 0f8H, 0bdH, 0c0H, 0b4H
	DB	0cfH, 0b4H, 0d9H, 00H			; `string'
CONST	ENDS
;	COMDAT ??_C@_07HFNBMNBH@?$CF2d?1?$CF2d?$AA@
CONST	SEGMENT
??_C@_07HFNBMNBH@?$CF2d?1?$CF2d?$AA@ DB '%2d/%2d', 00H	; `string'
CONST	ENDS
;	COMDAT ??_C@_0CJ@HJBAPDHB@?D?$KH?$LJ?$KM?$LL?s?E?B?$LP?$KB?$LM?$KN?$LE?B?5?A?V?$LM?z?$MA?$LL?5?$LL?g?$LP?k?G?R?$LM?v?$LO?x@
CONST	SEGMENT
??_C@_0CJ@HJBAPDHB@?D?$KH?$LJ?$KM?$LL?s?E?B?$LP?$KB?$LM?$KN?$LE?B?5?A?V?$LM?z?$MA?$LL?5?$LL?g?$LP?k?G?R?$LM?v?$LO?x@ DB 0c4H
	DB	0a7H, 0b9H, 0acH, 0bbH, 0f3H, 0c5H, 0c2H, 0bfH, 0a1H, 0bcH, 0adH
	DB	0b4H, 0c2H, ' ', 0c1H, 0d6H, 0bcH, 0faH, 0c0H, 0bbH, ' ', 0bbH
	DB	0e7H, 0bfH, 0ebH, 0c7H, 0d2H, 0bcH, 0f6H, 0beH, 0f8H, 0bdH, 0c0H
	DB	0b4H, 0cfH, 0b4H, 0d9H, 0a1H, 0a3H, 00H	; `string'
CONST	ENDS
;	COMDAT ??_C@_0BC@GBLBFMBP@?A?V?$LM?z?$MA?$LL?5?$LL?g?$LP?k?G?O?$LE?Y?$KB?$KD?$AA@
CONST	SEGMENT
??_C@_0BC@GBLBFMBP@?A?V?$LM?z?$MA?$LL?5?$LL?g?$LP?k?G?O?$LE?Y?$KB?$KD?$AA@ DB 0c1H
	DB	0d6H, 0bcH, 0faH, 0c0H, 0bbH, ' ', 0bbH, 0e7H, 0bfH, 0ebH, 0c7H
	DB	0cfH, 0b4H, 0d9H, 0a1H, 0a3H, 00H		; `string'
CONST	ENDS
;	COMDAT ??_C@_0L@BHJLNCHD@?$LA?x?$LA?$NN?G?O?$LE?Y?$KB?$KD?$AA@
CONST	SEGMENT
??_C@_0L@BHJLNCHD@?$LA?x?$LA?$NN?G?O?$LE?Y?$KB?$KD?$AA@ DB 0b0H, 0f8H, 0b0H
	DB	0ddH, 0c7H, 0cfH, 0b4H, 0d9H, 0a1H, 0a3H, 00H ; `string'
CONST	ENDS
;	COMDAT ??_C@_08NJBMJDFM@HP?3?$CFd?1?$CFd?$AA@
CONST	SEGMENT
??_C@_08NJBMJDFM@HP?3?$CFd?1?$CFd?$AA@ DB 'HP:%d/%d', 00H ; `string'
CONST	ENDS
;	COMDAT ??_C@_08JCHLGOEH@?$CFs?5Lv?3?$CFd?$AA@
CONST	SEGMENT
??_C@_08JCHLGOEH@?$CFs?5Lv?3?$CFd?$AA@ DB '%s Lv:%d', 00H ; `string'
CONST	ENDS
; Function compile flags: /Odtp /RTCsu /ZI
; File c:\program files (x86)\microsoft visual studio 14.0\vc\include\vadefs.h
;	COMDAT ??$__vcrt_va_start_verify_argument_type@PBD@@YAXXZ
_TEXT	SEGMENT
??$__vcrt_va_start_verify_argument_type@PBD@@YAXXZ PROC	; __vcrt_va_start_verify_argument_type<char const *>, COMDAT

; 144  :         {

  00000	55		 push	 ebp
  00001	8b ec		 mov	 ebp, esp
  00003	81 ec c0 00 00
	00		 sub	 esp, 192		; 000000c0H
  00009	53		 push	 ebx
  0000a	56		 push	 esi
  0000b	57		 push	 edi
  0000c	8d bd 40 ff ff
	ff		 lea	 edi, DWORD PTR [ebp-192]
  00012	b9 30 00 00 00	 mov	 ecx, 48			; 00000030H
  00017	b8 cc cc cc cc	 mov	 eax, -858993460		; ccccccccH
  0001c	f3 ab		 rep stosd

; 145  :             static_assert(!__vcrt_va_list_is_reference<_Ty>::__the_value, "va_start argument must not have reference type and must not be parenthesized");
; 146  :         }

  0001e	5f		 pop	 edi
  0001f	5e		 pop	 esi
  00020	5b		 pop	 ebx
  00021	8b e5		 mov	 esp, ebp
  00023	5d		 pop	 ebp
  00024	c3		 ret	 0
??$__vcrt_va_start_verify_argument_type@PBD@@YAXXZ ENDP	; __vcrt_va_start_verify_argument_type<char const *>
_TEXT	ENDS
; Function compile flags: /Odtp /RTCsu /ZI
; File c:\users\administrator\desktop\????? ??\????? ??\client source code\system\battlemenu.cpp
;	COMDAT ?CloseInfoWnd@@YAXXZ
_TEXT	SEGMENT
?CloseInfoWnd@@YAXXZ PROC				; CloseInfoWnd, COMDAT

; 3766 : {

  00000	55		 push	 ebp
  00001	8b ec		 mov	 ebp, esp
  00003	81 ec c0 00 00
	00		 sub	 esp, 192		; 000000c0H
  00009	53		 push	 ebx
  0000a	56		 push	 esi
  0000b	57		 push	 edi
  0000c	8d bd 40 ff ff
	ff		 lea	 edi, DWORD PTR [ebp-192]
  00012	b9 30 00 00 00	 mov	 ecx, 48			; 00000030H
  00017	b8 cc cc cc cc	 mov	 eax, -858993460		; ccccccccH
  0001c	f3 ab		 rep stosd

; 3767 : 	if( pActInfoWnd){

  0001e	83 3d 00 00 00
	00 00		 cmp	 DWORD PTR ?pActInfoWnd@@3PAUaction@@A, 0
  00025	74 18		 je	 SHORT $LN1@CloseInfoW

; 3768 : 		DeathAction( pActInfoWnd);

  00027	a1 00 00 00 00	 mov	 eax, DWORD PTR ?pActInfoWnd@@3PAUaction@@A
  0002c	50		 push	 eax
  0002d	e8 00 00 00 00	 call	 ?DeathAction@@YAXPAUaction@@@Z ; DeathAction
  00032	83 c4 04	 add	 esp, 4

; 3769 : 		pActInfoWnd = NULL;

  00035	c7 05 00 00 00
	00 00 00 00 00	 mov	 DWORD PTR ?pActInfoWnd@@3PAUaction@@A, 0
$LN1@CloseInfoW:

; 3770 : 	}
; 3771 : }

  0003f	5f		 pop	 edi
  00040	5e		 pop	 esi
  00041	5b		 pop	 ebx
  00042	81 c4 c0 00 00
	00		 add	 esp, 192		; 000000c0H
  00048	3b ec		 cmp	 ebp, esp
  0004a	e8 00 00 00 00	 call	 __RTC_CheckEsp
  0004f	8b e5		 mov	 esp, ebp
  00051	5d		 pop	 ebp
  00052	c3		 ret	 0
?CloseInfoWnd@@YAXXZ ENDP				; CloseInfoWnd
_TEXT	ENDS
; Function compile flags: /Odtp /RTCsu /ZI
; File c:\users\administrator\desktop\????? ??\????? ??\client source code\system\battlemenu.cpp
;	COMDAT ?BattleCntDownDisp@@YAXXZ
_TEXT	SEGMENT
_BattleCntDownRest$ = -84				; size = 4
_i$ = -72						; size = 4
_y$ = -60						; size = 4
_x$ = -48						; size = 4
_work$ = -36						; size = 4
_moji$ = -24						; size = 16
__$ArrayPad$ = -4					; size = 4
?BattleCntDownDisp@@YAXXZ PROC				; BattleCntDownDisp, COMDAT

; 3232 : {

  00000	55		 push	 ebp
  00001	8b ec		 mov	 ebp, esp
  00003	81 ec 18 01 00
	00		 sub	 esp, 280		; 00000118H
  00009	53		 push	 ebx
  0000a	56		 push	 esi
  0000b	57		 push	 edi
  0000c	8d bd e8 fe ff
	ff		 lea	 edi, DWORD PTR [ebp-280]
  00012	b9 46 00 00 00	 mov	 ecx, 70			; 00000046H
  00017	b8 cc cc cc cc	 mov	 eax, -858993460		; ccccccccH
  0001c	f3 ab		 rep stosd
  0001e	a1 00 00 00 00	 mov	 eax, DWORD PTR ___security_cookie
  00023	33 c5		 xor	 eax, ebp
  00025	89 45 fc	 mov	 DWORD PTR __$ArrayPad$[ebp], eax

; 3233 : 	char moji[ 16 ];
; 3234 : 	char *work = moji;

  00028	8d 45 e8	 lea	 eax, DWORD PTR _moji$[ebp]
  0002b	89 45 dc	 mov	 DWORD PTR _work$[ebp], eax

; 3235 : 	int x = 320 - 16 + DISPLACEMENT_X / 2;

  0002e	a1 00 00 00 00	 mov	 eax, DWORD PTR ?DISPLACEMENT_X@@3HA ; DISPLACEMENT_X
  00033	99		 cdq
  00034	2b c2		 sub	 eax, edx
  00036	d1 f8		 sar	 eax, 1
  00038	05 30 01 00 00	 add	 eax, 304		; 00000130H
  0003d	89 45 d0	 mov	 DWORD PTR _x$[ebp], eax

; 3236 : 	int y = 240 + DISPLACEMENT_Y / 2;

  00040	a1 00 00 00 00	 mov	 eax, DWORD PTR ?DISPLACEMENT_Y@@3HA ; DISPLACEMENT_Y
  00045	99		 cdq
  00046	2b c2		 sub	 eax, edx
  00048	d1 f8		 sar	 eax, 1
  0004a	05 f0 00 00 00	 add	 eax, 240		; 000000f0H
  0004f	89 45 c4	 mov	 DWORD PTR _y$[ebp], eax

; 3237 : 	int i;
; 3238 : 	// ???
; 3239 : 
; 3240 : 	int BattleCntDownRest = BattleCntDown - TimeGetTime();

  00052	e8 00 00 00 00	 call	 ?TimeGetTime@@YAIXZ	; TimeGetTime
  00057	8b 0d 00 00 00
	00		 mov	 ecx, DWORD PTR ?BattleCntDown@@3KA ; BattleCntDown
  0005d	2b c8		 sub	 ecx, eax
  0005f	89 4d ac	 mov	 DWORD PTR _BattleCntDownRest$[ebp], ecx

; 3241 : 	// ???????
; 3242 : 	if( BattleCntDownFlag == FALSE ) return;

  00062	83 3d 00 00 00
	00 00		 cmp	 DWORD PTR ?BattleCntDownFlag@@3HA, 0 ; BattleCntDownFlag
  00069	75 05		 jne	 SHORT $LN5@BattleCntD
  0006b	e9 0f 02 00 00	 jmp	 $LN1@BattleCntD
$LN5@BattleCntD:

; 3243 : 
; 3244 : 	// ?????????
; 3245 : /*//人物ai
; 3246 : #ifndef __AI
; 3247 : 	//cary 自动战斗
; 3248 : 	if( AI!=AI_NONE && !PauseAI){
; 3249 : 		if( battleMenuFlag&BATTLE_MENU && battleTargetSelectFlag){
; 3250 : 			if( (BattleIntervalCnt==0 && BattleCntDownRest<=28000) || (BattleIntervalCnt!=0 && BattleIntervalCnt<TimeGetTime())){
; 3251 : 				BattleIntervalCnt = TimeGetTime()+500;
; 3252 : 				// ??????
; 3253 : 				int targetNo = GetBattelTarget();
; 3254 : 				char moji[256];
; 3255 : 				sprintf( moji, "H|%X", targetNo );
; 3256 : 				// ??
; 3257 : 				if( bNewServer)
; 3258 : 					lssproto_B_send( sockfd, moji );
; 3259 : 				else
; 3260 : 					old_lssproto_B_send( sockfd, moji );
; 3261 : 				battleTargetSelectFlag = FALSE;
; 3262 : 				battleMenuReturn = TRUE;
; 3263 : 				// ????????
; 3264 : 				play_se( 203, 320, 240 );
; 3265 : 				// ????????
; 3266 : 				battleButtonBak = battleButtonBak2;
; 3267 : 				// ???????????????
; 3268 : 				if( pActInfoWnd){
; 3269 : 					DeathAction( pActInfoWnd );
; 3270 : 					pActInfoWnd = NULL;
; 3271 : 				}
; 3272 : 			}
; 3273 : 		}else if( battleMenuFlag&BATTLE_MENU_PET && battleTargetSelectFlag){
; 3274 : 			if( (BattleIntervalCnt==0 && BattleCntDownRest<=28000) || BattleIntervalCnt<TimeGetTime()){
; 3275 : 				int no;
; 3276 : 				int targetNo = GetBattelTarget();
; 3277 : 				char moji[256];
; 3278 : 				switch( petSkill[ battlePetNoBak ][ BattleWazaNo ].target ){
; 3279 : 				case PETSKILL_TARGET_MYSELF:				// ??
; 3280 : 				case PETSKILL_TARGET_OTHER:					// ????)
; 3281 : 				case PETSKILL_TARGET_OTHERWITHOUTMYSELF:	// ??????) 
; 3282 : 				case PETSKILL_TARGET_WITHOUTMYSELFANDPET:	// ??????
; 3283 : 					// ???
; 3284 : 					sprintf( moji,"W|%X|%X", BattleWazaNo, targetNo );
; 3285 : 					// ??
; 3286 : 					if( bNewServer)
; 3287 : 						lssproto_B_send( sockfd, moji );
; 3288 : 					else
; 3289 : 						old_lssproto_B_send( sockfd, moji );
; 3290 : 					// ?????
; 3291 : 					play_se( 217, 320, 240 );
; 3292 : 					break;
; 3293 : 					
; 3294 : 				case PETSKILL_TARGET_ALLMYSIDE:	// 
; 3295 : 					// ????????
; 3296 : 					if( BattleMyNo < 10 ) no = 20;
; 3297 : 					else no = 21;
; 3298 : 					// ???
; 3299 : 					sprintf( moji,"W|%X|%X", BattleWazaNo, no );
; 3300 : 					// ??
; 3301 : 					if( bNewServer)
; 3302 : 						lssproto_B_send( sockfd, moji );
; 3303 : 					else
; 3304 : 						old_lssproto_B_send( sockfd, moji );
; 3305 : 					// ?????
; 3306 : 					play_se( 217, 320, 240 );
; 3307 : 					break;
; 3308 : 					
; 3309 : 				case PETSKILL_TARGET_ALLOTHERSIDE:	// ?
; 3310 : 					// ????????
; 3311 : 					if( BattleMyNo < 10 ) no = 21;
; 3312 : 					else no = 20;
; 3313 : 					// ???
; 3314 : 					sprintf( moji,"W|%X|%X", BattleWazaNo, no );
; 3315 : 					// ??
; 3316 : 					if( bNewServer)
; 3317 : 						lssproto_B_send( sockfd, moji );
; 3318 : 					else
; 3319 : 						old_lssproto_B_send( sockfd, moji );
; 3320 : 					// ?????
; 3321 : 					play_se( 217, 320, 240 );
; 3322 : 					break;
; 3323 : 					
; 3324 : 				case PETSKILL_TARGET_ALL:	// ?
; 3325 : 					// ???
; 3326 : 					sprintf( moji,"W|%X|%X", BattleWazaNo, 22 );
; 3327 : 					// ??
; 3328 : 					if( bNewServer)
; 3329 : 						lssproto_B_send( sockfd, moji );
; 3330 : 					else
; 3331 : 						old_lssproto_B_send( sockfd, moji );
; 3332 : 					// ?????
; 3333 : 					play_se( 217, 320, 240 );
; 3334 : 					break;
; 3335 : 				}
; 3336 : 				// ??????
; 3337 : 				battleTargetSelectFlag = FALSE;
; 3338 : 				battleMenuReturn = TRUE;
; 3339 : 				// ????????
; 3340 : 				play_se( 203, 320, 240 );
; 3341 : 				// ????????
; 3342 : 				battleButtonBak = battleButtonBak2;
; 3343 : 				// ???????????????
; 3344 : 				if( pActInfoWnd){
; 3345 : 					DeathAction( pActInfoWnd );
; 3346 : 					pActInfoWnd = NULL;
; 3347 : 				}
; 3348 : 			}
; 3349 : 		}
; 3350 : 	}
; 3351 : #endif
; 3352 : */
; 3353 : 
; 3354 : 	if( BattleCntDownRest <= 0 ){

  00070	83 7d ac 00	 cmp	 DWORD PTR _BattleCntDownRest$[ebp], 0
  00074	0f 8f 90 01 00
	00		 jg	 $LN6@BattleCntD

; 3355 : 		// ??????
; 3356 : 		BattleCntDownFlag = FALSE;

  0007a	c7 05 00 00 00
	00 00 00 00 00	 mov	 DWORD PTR ?BattleCntDownFlag@@3HA, 0 ; BattleCntDownFlag

; 3357 : 		BattleCntDownRest = 0;

  00084	c7 45 ac 00 00
	00 00		 mov	 DWORD PTR _BattleCntDownRest$[ebp], 0

; 3358 : 		// ????????
; 3359 : 		ClearBoxFlag();

  0008b	e8 00 00 00 00	 call	 ?ClearBoxFlag@@YAXXZ	; ClearBoxFlag

; 3360 : 		// ???????????
; 3361 : 		DeathAction( pActWnd );

  00090	a1 00 00 00 00	 mov	 eax, DWORD PTR ?pActWnd@@3PAUaction@@A
  00095	50		 push	 eax
  00096	e8 00 00 00 00	 call	 ?DeathAction@@YAXPAUaction@@@Z ; DeathAction
  0009b	83 c4 04	 add	 esp, 4

; 3362 : 		// ????????????
; 3363 : 		pActWnd = NULL;				

  0009e	c7 05 00 00 00
	00 00 00 00 00	 mov	 DWORD PTR ?pActWnd@@3PAUaction@@A, 0

; 3364 : 		// ?????????
; 3365 : 		ClearBattleButton();

  000a8	e8 00 00 00 00	 call	 ?ClearBattleButton@@YAXXZ ; ClearBattleButton

; 3366 : 		// ?????????????????
; 3367 : 
; 3368 : 		if( battleMenuFlag & BATTLE_MENU && battleMenuReturn == FALSE ){

  000ad	a1 00 00 00 00	 mov	 eax, DWORD PTR ?battleMenuFlag@@3HA ; battleMenuFlag
  000b2	83 e0 01	 and	 eax, 1
  000b5	0f 84 8e 00 00
	00		 je	 $LN7@BattleCntD
  000bb	83 3d 00 00 00
	00 00		 cmp	 DWORD PTR ?battleMenuReturn@@3HA, 0
  000c2	0f 85 81 00 00
	00		 jne	 $LN7@BattleCntD

; 3369 : 			// ???????????
; 3370 : 			if( bNewServer)

  000c8	83 3d 00 00 00
	00 00		 cmp	 DWORD PTR ?bNewServer@@3HA, 0 ; bNewServer
  000cf	74 15		 je	 SHORT $LN9@BattleCntD

; 3371 : 				lssproto_B_send( sockfd, "N" );

  000d1	68 00 00 00 00	 push	 OFFSET ??_C@_01NANMIPIL@N?$AA@
  000d6	a1 00 00 00 00	 mov	 eax, DWORD PTR ?sockfd@@3IA ; sockfd
  000db	50		 push	 eax
  000dc	e8 00 00 00 00	 call	 ?lssproto_B_send@@YAXHPAD@Z ; lssproto_B_send
  000e1	83 c4 08	 add	 esp, 8

; 3372 : 			else

  000e4	eb 13		 jmp	 SHORT $LN10@BattleCntD
$LN9@BattleCntD:

; 3373 : 				old_lssproto_B_send( sockfd, "N" );

  000e6	68 00 00 00 00	 push	 OFFSET ??_C@_01NANMIPIL@N?$AA@
  000eb	a1 00 00 00 00	 mov	 eax, DWORD PTR ?sockfd@@3IA ; sockfd
  000f0	50		 push	 eax
  000f1	e8 00 00 00 00	 call	 ?old_lssproto_B_send@@YAXHPAD@Z ; old_lssproto_B_send
  000f6	83 c4 08	 add	 esp, 8
$LN10@BattleCntD:

; 3374 : 			// ?????????????????
; 3375 : 			if( battlePetNoBak == -1 || 

  000f9	83 3d 00 00 00
	00 ff		 cmp	 DWORD PTR ?battlePetNoBak@@3HA, -1 ; battlePetNoBak
  00100	74 12		 je	 SHORT $LN13@BattleCntD
  00102	a1 00 00 00 00	 mov	 eax, DWORD PTR ?BattleMyNo@@3HA ; BattleMyNo
  00107	8b 0c 85 14 00
	00 00		 mov	 ecx, DWORD PTR ?p_party@@3PAPAUaction@@A[eax*4+20]
  0010e	83 79 78 00	 cmp	 DWORD PTR [ecx+120], 0
  00112	7f 02		 jg	 SHORT $LN11@BattleCntD
$LN13@BattleCntD:

; 3376 : 				p_party[ BattleMyNo + 5 ]->hp <= 0 ){
; 3377 : 				// ??????
; 3378 : 			}else{

  00114	eb 31		 jmp	 SHORT $LN12@BattleCntD
$LN11@BattleCntD:

; 3379 : 				// ??????????
; 3380 : 				if( bNewServer)

  00116	83 3d 00 00 00
	00 00		 cmp	 DWORD PTR ?bNewServer@@3HA, 0 ; bNewServer
  0011d	74 15		 je	 SHORT $LN14@BattleCntD

; 3381 : 					lssproto_B_send( sockfd, "W|FF|FF" );

  0011f	68 00 00 00 00	 push	 OFFSET ??_C@_07BDJJCCFL@W?$HMFF?$HMFF?$AA@
  00124	a1 00 00 00 00	 mov	 eax, DWORD PTR ?sockfd@@3IA ; sockfd
  00129	50		 push	 eax
  0012a	e8 00 00 00 00	 call	 ?lssproto_B_send@@YAXHPAD@Z ; lssproto_B_send
  0012f	83 c4 08	 add	 esp, 8

; 3382 : 				else

  00132	eb 13		 jmp	 SHORT $LN12@BattleCntD
$LN14@BattleCntD:

; 3383 : 					old_lssproto_B_send( sockfd, "W|FF|FF" );

  00134	68 00 00 00 00	 push	 OFFSET ??_C@_07BDJJCCFL@W?$HMFF?$HMFF?$AA@
  00139	a1 00 00 00 00	 mov	 eax, DWORD PTR ?sockfd@@3IA ; sockfd
  0013e	50		 push	 eax
  0013f	e8 00 00 00 00	 call	 ?old_lssproto_B_send@@YAXHPAD@Z ; old_lssproto_B_send
  00144	83 c4 08	 add	 esp, 8
$LN12@BattleCntD:

; 3384 : 			}
; 3385 : 		}else{

  00147	eb 74		 jmp	 SHORT $LN8@BattleCntD
$LN7@BattleCntD:

; 3386 : 			// ????????
; 3387 : 			if( ( battleMenuFlag & BATTLE_MENU && battleMenuReturn == TRUE ) ||

  00149	a1 00 00 00 00	 mov	 eax, DWORD PTR ?battleMenuFlag@@3HA ; battleMenuFlag
  0014e	83 e0 01	 and	 eax, 1
  00151	74 09		 je	 SHORT $LN18@BattleCntD
  00153	83 3d 00 00 00
	00 01		 cmp	 DWORD PTR ?battleMenuReturn@@3HA, 1
  0015a	74 13		 je	 SHORT $LN17@BattleCntD
$LN18@BattleCntD:
  0015c	a1 00 00 00 00	 mov	 eax, DWORD PTR ?battleMenuFlag@@3HA ; battleMenuFlag
  00161	83 e0 02	 and	 eax, 2
  00164	74 57		 je	 SHORT $LN8@BattleCntD
  00166	83 3d 00 00 00
	00 00		 cmp	 DWORD PTR ?battleMenuReturn@@3HA, 0
  0016d	75 4e		 jne	 SHORT $LN8@BattleCntD
$LN17@BattleCntD:

; 3388 : 				( battleMenuFlag & BATTLE_MENU_PET && battleMenuReturn == FALSE ) ){ 
; 3389 : 				// ?????????????????
; 3390 : 				if( battlePetNoBak == -1 || 

  0016f	83 3d 00 00 00
	00 ff		 cmp	 DWORD PTR ?battlePetNoBak@@3HA, -1 ; battlePetNoBak
  00176	74 12		 je	 SHORT $LN21@BattleCntD
  00178	a1 00 00 00 00	 mov	 eax, DWORD PTR ?BattleMyNo@@3HA ; BattleMyNo
  0017d	8b 0c 85 14 00
	00 00		 mov	 ecx, DWORD PTR ?p_party@@3PAPAUaction@@A[eax*4+20]
  00184	83 79 78 00	 cmp	 DWORD PTR [ecx+120], 0
  00188	7f 02		 jg	 SHORT $LN19@BattleCntD
$LN21@BattleCntD:

; 3391 : 					p_party[ BattleMyNo + 5 ]->hp <= 0 ){
; 3392 : 					// ??????
; 3393 : 				}else{

  0018a	eb 31		 jmp	 SHORT $LN8@BattleCntD
$LN19@BattleCntD:

; 3394 : 					// ??????????
; 3395 : 					if( bNewServer)

  0018c	83 3d 00 00 00
	00 00		 cmp	 DWORD PTR ?bNewServer@@3HA, 0 ; bNewServer
  00193	74 15		 je	 SHORT $LN22@BattleCntD

; 3396 : 						lssproto_B_send( sockfd, "W|FF|FF" );

  00195	68 00 00 00 00	 push	 OFFSET ??_C@_07BDJJCCFL@W?$HMFF?$HMFF?$AA@
  0019a	a1 00 00 00 00	 mov	 eax, DWORD PTR ?sockfd@@3IA ; sockfd
  0019f	50		 push	 eax
  001a0	e8 00 00 00 00	 call	 ?lssproto_B_send@@YAXHPAD@Z ; lssproto_B_send
  001a5	83 c4 08	 add	 esp, 8

; 3397 : 					else

  001a8	eb 13		 jmp	 SHORT $LN8@BattleCntD
$LN22@BattleCntD:

; 3398 : 						old_lssproto_B_send( sockfd, "W|FF|FF" );

  001aa	68 00 00 00 00	 push	 OFFSET ??_C@_07BDJJCCFL@W?$HMFF?$HMFF?$AA@
  001af	a1 00 00 00 00	 mov	 eax, DWORD PTR ?sockfd@@3IA ; sockfd
  001b4	50		 push	 eax
  001b5	e8 00 00 00 00	 call	 ?old_lssproto_B_send@@YAXHPAD@Z ; old_lssproto_B_send
  001ba	83 c4 08	 add	 esp, 8
$LN8@BattleCntD:

; 3399 : 				}
; 3400 : 			}
; 3401 : 		}
; 3402 : 		// ??????
; 3403 : 		battleTargetSelectFlag = FALSE;

  001bd	c7 05 00 00 00
	00 00 00 00 00	 mov	 DWORD PTR ?battleTargetSelectFlag@@3HA, 0

; 3404 : 		battleMenuReturn = TRUE;

  001c7	c7 05 00 00 00
	00 01 00 00 00	 mov	 DWORD PTR ?battleMenuReturn@@3HA, 1

; 3405 : 		// ????????
; 3406 : 		play_se( 203, 320, 240 );

  001d1	68 f0 00 00 00	 push	 240			; 000000f0H
  001d6	68 40 01 00 00	 push	 320			; 00000140H
  001db	68 cb 00 00 00	 push	 203			; 000000cbH
  001e0	e8 00 00 00 00	 call	 ?play_se@@YAHHHH@Z	; play_se
  001e5	83 c4 0c	 add	 esp, 12			; 0000000cH

; 3407 : 		// ????????
; 3408 : 		battleButtonBak = battleButtonBak2;

  001e8	a1 00 00 00 00	 mov	 eax, DWORD PTR ?battleButtonBak2@@3HA
  001ed	a3 00 00 00 00	 mov	 DWORD PTR ?battleButtonBak@@3HA, eax ; battleButtonBak

; 3409 : 		// ???????????????
; 3410 : 		DeathAction( pActInfoWnd );

  001f2	a1 00 00 00 00	 mov	 eax, DWORD PTR ?pActInfoWnd@@3PAUaction@@A
  001f7	50		 push	 eax
  001f8	e8 00 00 00 00	 call	 ?DeathAction@@YAXPAUaction@@@Z ; DeathAction
  001fd	83 c4 04	 add	 esp, 4

; 3411 : 		pActInfoWnd = NULL;

  00200	c7 05 00 00 00
	00 00 00 00 00	 mov	 DWORD PTR ?pActInfoWnd@@3PAUaction@@A, 0
$LN6@BattleCntD:

; 3412 : 	}
; 3413 : 
; 3414 : 	sprintf( moji, "%2d", BattleCntDownRest / 1000 );

  0020a	8b 45 ac	 mov	 eax, DWORD PTR _BattleCntDownRest$[ebp]
  0020d	99		 cdq
  0020e	b9 e8 03 00 00	 mov	 ecx, 1000		; 000003e8H
  00213	f7 f9		 idiv	 ecx
  00215	50		 push	 eax
  00216	68 00 00 00 00	 push	 OFFSET ??_C@_03GPCJOALC@?$CF2d?$AA@
  0021b	8d 55 e8	 lea	 edx, DWORD PTR _moji$[ebp]
  0021e	52		 push	 edx
  0021f	e8 00 00 00 00	 call	 _sprintf
  00224	83 c4 0c	 add	 esp, 12			; 0000000cH

; 3415 : 
; 3416 : 	//JL 2016.9.16 战斗时间3位数显示
; 3417 : //	for (i = 0; i < 3; i++){
; 3418 : 	for( i = 0; i < 2; i++){

  00227	c7 45 b8 00 00
	00 00		 mov	 DWORD PTR _i$[ebp], 0
  0022e	eb 09		 jmp	 SHORT $LN4@BattleCntD
$LN2@BattleCntD:
  00230	8b 45 b8	 mov	 eax, DWORD PTR _i$[ebp]
  00233	83 c0 01	 add	 eax, 1
  00236	89 45 b8	 mov	 DWORD PTR _i$[ebp], eax
$LN4@BattleCntD:
  00239	83 7d b8 02	 cmp	 DWORD PTR _i$[ebp], 2
  0023d	7d 40		 jge	 SHORT $LN1@BattleCntD

; 3419 : 		if( *work != 0x20 ){

  0023f	8b 45 dc	 mov	 eax, DWORD PTR _work$[ebp]
  00242	0f be 08	 movsx	 ecx, BYTE PTR [eax]
  00245	83 f9 20	 cmp	 ecx, 32			; 00000020H
  00248	74 21		 je	 SHORT $LN24@BattleCntD

; 3420 : 			StockDispBuffer( x, y, DISP_PRIO_IME1, *work - '0' + CG_CNT_DOWN_0, 0 );

  0024a	6a 00		 push	 0
  0024c	8b 45 dc	 mov	 eax, DWORD PTR _work$[ebp]
  0024f	0f be 08	 movsx	 ecx, BYTE PTR [eax]
  00252	81 c1 fc 64 00
	00		 add	 ecx, 25852		; 000064fcH
  00258	51		 push	 ecx
  00259	6a 66		 push	 102			; 00000066H
  0025b	8b 55 c4	 mov	 edx, DWORD PTR _y$[ebp]
  0025e	52		 push	 edx
  0025f	8b 45 d0	 mov	 eax, DWORD PTR _x$[ebp]
  00262	50		 push	 eax
  00263	e8 00 00 00 00	 call	 ?StockDispBuffer@@YAHHHEHH@Z ; StockDispBuffer
  00268	83 c4 14	 add	 esp, 20			; 00000014H
$LN24@BattleCntD:

; 3421 : 		}
; 3422 : 
; 3423 : 		x += 32;

  0026b	8b 45 d0	 mov	 eax, DWORD PTR _x$[ebp]
  0026e	83 c0 20	 add	 eax, 32			; 00000020H
  00271	89 45 d0	 mov	 DWORD PTR _x$[ebp], eax

; 3424 : 		work++;

  00274	8b 45 dc	 mov	 eax, DWORD PTR _work$[ebp]
  00277	83 c0 01	 add	 eax, 1
  0027a	89 45 dc	 mov	 DWORD PTR _work$[ebp], eax

; 3425 : 	}

  0027d	eb b1		 jmp	 SHORT $LN2@BattleCntD
$LN1@BattleCntD:

; 3426 : 
; 3427 : }

  0027f	52		 push	 edx
  00280	8b cd		 mov	 ecx, ebp
  00282	50		 push	 eax
  00283	8d 15 00 00 00
	00		 lea	 edx, DWORD PTR $LN28@BattleCntD
  00289	e8 00 00 00 00	 call	 @_RTC_CheckStackVars@8
  0028e	58		 pop	 eax
  0028f	5a		 pop	 edx
  00290	5f		 pop	 edi
  00291	5e		 pop	 esi
  00292	5b		 pop	 ebx
  00293	8b 4d fc	 mov	 ecx, DWORD PTR __$ArrayPad$[ebp]
  00296	33 cd		 xor	 ecx, ebp
  00298	e8 00 00 00 00	 call	 @__security_check_cookie@4
  0029d	81 c4 18 01 00
	00		 add	 esp, 280		; 00000118H
  002a3	3b ec		 cmp	 ebp, esp
  002a5	e8 00 00 00 00	 call	 __RTC_CheckEsp
  002aa	8b e5		 mov	 esp, ebp
  002ac	5d		 pop	 ebp
  002ad	c3		 ret	 0
  002ae	66 90		 npad	 2
$LN28@BattleCntD:
  002b0	01 00 00 00	 DD	 1
  002b4	00 00 00 00	 DD	 $LN27@BattleCntD
$LN27@BattleCntD:
  002b8	e8 ff ff ff	 DD	 -24			; ffffffe8H
  002bc	10 00 00 00	 DD	 16			; 00000010H
  002c0	00 00 00 00	 DD	 $LN26@BattleCntD
$LN26@BattleCntD:
  002c4	6d		 DB	 109			; 0000006dH
  002c5	6f		 DB	 111			; 0000006fH
  002c6	6a		 DB	 106			; 0000006aH
  002c7	69		 DB	 105			; 00000069H
  002c8	00		 DB	 0
?BattleCntDownDisp@@YAXXZ ENDP				; BattleCntDownDisp
_TEXT	ENDS
; Function compile flags: /Odtp /RTCsu /ZI
; File c:\users\administrator\desktop\????? ??\????? ??\client source code\system\battlemenu.cpp
;	COMDAT ?GetBattelTarget@@YAHXZ
_TEXT	SEGMENT
_end$ = -32						; size = 4
_index$ = -20						; size = 4
_i$ = -8						; size = 4
?GetBattelTarget@@YAHXZ PROC				; GetBattelTarget, COMDAT

; 3165 : {

  00000	55		 push	 ebp
  00001	8b ec		 mov	 ebp, esp
  00003	81 ec e4 00 00
	00		 sub	 esp, 228		; 000000e4H
  00009	53		 push	 ebx
  0000a	56		 push	 esi
  0000b	57		 push	 edi
  0000c	8d bd 1c ff ff
	ff		 lea	 edi, DWORD PTR [ebp-228]
  00012	b9 39 00 00 00	 mov	 ecx, 57			; 00000039H
  00017	b8 cc cc cc cc	 mov	 eax, -858993460		; ccccccccH
  0001c	f3 ab		 rep stosd

; 3166 : 	int i, index, end;
; 3167 : 	i = 10;

  0001e	c7 45 f8 0a 00
	00 00		 mov	 DWORD PTR _i$[ebp], 10	; 0000000aH

; 3168 : 	end = 20;

  00025	c7 45 e0 14 00
	00 00		 mov	 DWORD PTR _end$[ebp], 20 ; 00000014H

; 3169 : 	if( BattleMyNo < 10){

  0002c	83 3d 00 00 00
	00 0a		 cmp	 DWORD PTR ?BattleMyNo@@3HA, 10 ; BattleMyNo, 0000000aH
  00033	7d 0e		 jge	 SHORT $LN5@GetBattelT

; 3170 : 		i = 0 ;

  00035	c7 45 f8 00 00
	00 00		 mov	 DWORD PTR _i$[ebp], 0

; 3171 : 		end = 10;

  0003c	c7 45 e0 0a 00
	00 00		 mov	 DWORD PTR _end$[ebp], 10 ; 0000000aH
$LN5@GetBattelT:

; 3172 : 	}
; 3173 : #ifdef __AI
; 3174 : 	for( ; i < end ; i++ ){

  00043	eb 09		 jmp	 SHORT $LN4@GetBattelT
$LN2@GetBattelT:
  00045	8b 45 f8	 mov	 eax, DWORD PTR _i$[ebp]
  00048	83 c0 01	 add	 eax, 1
  0004b	89 45 f8	 mov	 DWORD PTR _i$[ebp], eax
$LN4@GetBattelT:
  0004e	8b 45 f8	 mov	 eax, DWORD PTR _i$[ebp]
  00051	3b 45 e0	 cmp	 eax, DWORD PTR _end$[ebp]
  00054	7d 50		 jge	 SHORT $LN3@GetBattelT

; 3175 : 		index = Ordinal[i];

  00056	8b 45 f8	 mov	 eax, DWORD PTR _i$[ebp]
  00059	8b 0c 85 00 00
	00 00		 mov	 ecx, DWORD PTR ?Ordinal@@3PAHA[eax*4]
  00060	89 4d ec	 mov	 DWORD PTR _index$[ebp], ecx

; 3176 : 		if( p_party[ index ]->func == NULL ) continue;

  00063	8b 45 ec	 mov	 eax, DWORD PTR _index$[ebp]
  00066	8b 0c 85 00 00
	00 00		 mov	 ecx, DWORD PTR ?p_party@@3PAPAUaction@@A[eax*4]
  0006d	83 79 08 00	 cmp	 DWORD PTR [ecx+8], 0
  00071	75 02		 jne	 SHORT $LN6@GetBattelT
  00073	eb d0		 jmp	 SHORT $LN2@GetBattelT
$LN6@GetBattelT:

; 3177 : 		if( p_party[index]->hp<=0 || index==BattleMyNo || index==5+BattleMyNo)

  00075	8b 45 ec	 mov	 eax, DWORD PTR _index$[ebp]
  00078	8b 0c 85 00 00
	00 00		 mov	 ecx, DWORD PTR ?p_party@@3PAPAUaction@@A[eax*4]
  0007f	83 79 78 00	 cmp	 DWORD PTR [ecx+120], 0
  00083	7e 18		 jle	 SHORT $LN8@GetBattelT
  00085	8b 45 ec	 mov	 eax, DWORD PTR _index$[ebp]
  00088	3b 05 00 00 00
	00		 cmp	 eax, DWORD PTR ?BattleMyNo@@3HA ; BattleMyNo
  0008e	74 0d		 je	 SHORT $LN8@GetBattelT
  00090	a1 00 00 00 00	 mov	 eax, DWORD PTR ?BattleMyNo@@3HA ; BattleMyNo
  00095	83 c0 05	 add	 eax, 5
  00098	39 45 ec	 cmp	 DWORD PTR _index$[ebp], eax
  0009b	75 02		 jne	 SHORT $LN7@GetBattelT
$LN8@GetBattelT:

; 3178 : 			continue;

  0009d	eb a6		 jmp	 SHORT $LN2@GetBattelT
$LN7@GetBattelT:

; 3179 : 		return index;

  0009f	8b 45 ec	 mov	 eax, DWORD PTR _index$[ebp]
  000a2	eb 05		 jmp	 SHORT $LN1@GetBattelT

; 3180 : 	}

  000a4	eb 9f		 jmp	 SHORT $LN2@GetBattelT
$LN3@GetBattelT:

; 3181 : #else
; 3182 : 	for( ; i < end ; i++ ){
; 3183 : 		index = Ordinal[i];
; 3184 : 		if( p_party[ index ]->func == NULL ) continue;
; 3185 : 		if( index==BattleMyNo || index==5+BattleMyNo)
; 3186 : 			continue;
; 3187 : 
; 3188 : #ifdef __ATTACK_MAGIC
; 3189 : #ifdef _SKILL_ADDBARRIER
; 3190 : 		if( ( p_party[ index ]->atr & ACT_ATR_HIT_BOX ) ||
; 3191 : 			( p_party[ index ]->atr & ACT_ATR_HIT_BOX_COL1 ) ||
; 3192 : 			( p_party[ index ]->atr & ACT_ATR_HIT_BOX_COL2 ) ||
; 3193 : 			( p_party[ index ]->atr & ACT_ATR_HIT_BOX_COL3 ) ||
; 3194 : 			( p_party[ index ]->atr & ACT_ATR_HIT_BOX_COL4 ) ||
; 3195 : 			( p_party[ index ]->atr & ACT_ATR_HIT_BOX_ALL1 ) ||
; 3196 : 			( p_party[ index ]->atr & ACT_ATR_HIT_BOX_ALL2 ) ||
; 3197 : 			( p_party[ index ]->atr & ACT_ATR_HIT_BOX_ALL3 )
; 3198 : 
; 3199 : 
; 3200 : 			 || ( p_party[ index ]->atr & ACT_ATR_HIT_BOX_ALL5 ) ||
; 3201 : 			( p_party[ index ]->atr & ACT_ATR_HIT_BOX_ALL6 ) ||
; 3202 : 			( p_party[ index ]->atr & ACT_ATR_HIT_BOX_ALL7 ) || 
; 3203 : 			( p_party[ index ]->atr & ACT_ATR_HIT_BOX_ALL8 ) 
; 3204 : 			)
; 3205 : 			return index;
; 3206 : #else
; 3207 : 		if( ( p_party[ index ]->atr & ACT_ATR_HIT_BOX ) ||
; 3208 : 			( p_party[ index ]->atr & ACT_ATR_HIT_BOX_COL1 ) ||
; 3209 : 			( p_party[ index ]->atr & ACT_ATR_HIT_BOX_COL2 ) ||
; 3210 : 			( p_party[ index ]->atr & ACT_ATR_HIT_BOX_COL3 ) ||
; 3211 : 			( p_party[ index ]->atr & ACT_ATR_HIT_BOX_COL4 ) ||
; 3212 : 			( p_party[ index ]->atr & ACT_ATR_HIT_BOX_ALL1 ) ||
; 3213 : 			( p_party[ index ]->atr & ACT_ATR_HIT_BOX_ALL2 ) ||
; 3214 : 			( p_party[ index ]->atr & ACT_ATR_HIT_BOX_ALL3 ) )
; 3215 : 			return index;
; 3216 : #endif
; 3217 : #else
; 3218 : 		if( ( p_party[ index ]->atr & ACT_ATR_HIT_BOX ) ||
; 3219 : 			( p_party[ index ]->atr & ACT_ATR_HIT_BOX_ALL1 ) ||
; 3220 : 			( p_party[ index ]->atr & ACT_ATR_HIT_BOX_ALL2 ) ||
; 3221 : 			( p_party[ index ]->atr & ACT_ATR_HIT_BOX_ALL3 ) )
; 3222 : 			return index;
; 3223 : #endif
; 3224 : 
; 3225 : 	}
; 3226 : #endif
; 3227 : 	return -1;

  000a6	83 c8 ff	 or	 eax, -1
$LN1@GetBattelT:

; 3228 : }

  000a9	5f		 pop	 edi
  000aa	5e		 pop	 esi
  000ab	5b		 pop	 ebx
  000ac	8b e5		 mov	 esp, ebp
  000ae	5d		 pop	 ebp
  000af	c3		 ret	 0
?GetBattelTarget@@YAHXZ ENDP				; GetBattelTarget
_TEXT	ENDS
; Function compile flags: /Odtp /RTCsu /ZI
; File c:\users\administrator\desktop\????? ??\????? ??\client source code\system\battlemenu.cpp
;	COMDAT ?BattleTargetSelect@@YAXXZ
_TEXT	SEGMENT
tv422 = -488						; size = 4
tv335 = -488						; size = 4
tv277 = -488						; size = 4
tv196 = -488						; size = 4
tv162 = -488						; size = 4
tv141 = -488						; size = 4
_no$ = -288						; size = 4
_targetNo$ = -276					; size = 4
_moji$ = -264						; size = 256
__$ArrayPad$ = -4					; size = 4
?BattleTargetSelect@@YAXXZ PROC				; BattleTargetSelect, COMDAT

; 2767 : {

  00000	55		 push	 ebp
  00001	8b ec		 mov	 ebp, esp
  00003	81 ec e8 01 00
	00		 sub	 esp, 488		; 000001e8H
  00009	53		 push	 ebx
  0000a	56		 push	 esi
  0000b	57		 push	 edi
  0000c	8d bd 18 fe ff
	ff		 lea	 edi, DWORD PTR [ebp-488]
  00012	b9 7a 00 00 00	 mov	 ecx, 122		; 0000007aH
  00017	b8 cc cc cc cc	 mov	 eax, -858993460		; ccccccccH
  0001c	f3 ab		 rep stosd
  0001e	a1 00 00 00 00	 mov	 eax, DWORD PTR ___security_cookie
  00023	33 c5		 xor	 eax, ebp
  00025	89 45 fc	 mov	 DWORD PTR __$ArrayPad$[ebp], eax

; 2768 : 	char moji[ 256 ];
; 2769 : 	int targetNo;
; 2770 : 	int no;
; 2771 : 
; 2772 : 	if( !( MenuToggleFlag & JOY_ESC ) && !( MenuToggleFlag & JOY_CTRL_E ) && !( MenuToggleFlag & JOY_CTRL_A ) && !( menuBtn == 1 ) ){

  00028	a1 00 00 00 00	 mov	 eax, DWORD PTR ?MenuToggleFlag@@3IA ; MenuToggleFlag
  0002d	25 00 00 00 80	 and	 eax, -2147483648	; 80000000H
  00032	0f 85 ed 00 00
	00		 jne	 $LN12@BattleTarg
  00038	a1 00 00 00 00	 mov	 eax, DWORD PTR ?MenuToggleFlag@@3IA ; MenuToggleFlag
  0003d	25 00 00 00 04	 and	 eax, 67108864		; 04000000H
  00042	0f 85 dd 00 00
	00		 jne	 $LN12@BattleTarg
  00048	a1 00 00 00 00	 mov	 eax, DWORD PTR ?MenuToggleFlag@@3IA ; MenuToggleFlag
  0004d	25 00 00 00 02	 and	 eax, 33554432		; 02000000H
  00052	0f 85 cd 00 00
	00		 jne	 $LN12@BattleTarg
  00058	0f bf 05 00 00
	00 00		 movsx	 eax, WORD PTR ?menuBtn@@3FA ; menuBtn
  0005f	83 f8 01	 cmp	 eax, 1
  00062	0f 84 bd 00 00
	00		 je	 $LN12@BattleTarg

; 2773 : 
; 2774 : 		if( pActInfoWnd == NULL ){

  00068	83 3d 00 00 00
	00 00		 cmp	 DWORD PTR ?pActInfoWnd@@3PAUaction@@A, 0
  0006f	75 4b		 jne	 SHORT $LN14@BattleTarg

; 2775 : 
; 2776 : 			if( mouse.nowPoint.y < 228 ){ 

  00071	81 3d 04 00 00
	00 e4 00 00 00	 cmp	 DWORD PTR ?mouse@@3UMOUSE@@A+4, 228 ; 000000e4H
  0007b	7d 21		 jge	 SHORT $LN16@BattleTarg

; 2777 : 				pActInfoWnd = MakeWindowDisp( 225, 400, 3, 2, 0, 1 );

  0007d	6a 01		 push	 1
  0007f	6a 00		 push	 0
  00081	6a 02		 push	 2
  00083	6a 03		 push	 3
  00085	68 90 01 00 00	 push	 400			; 00000190H
  0008a	68 e1 00 00 00	 push	 225			; 000000e1H
  0008f	e8 00 00 00 00	 call	 ?MakeWindowDisp@@YAPAUaction@@HHHHHH@Z ; MakeWindowDisp
  00094	83 c4 18	 add	 esp, 24			; 00000018H
  00097	a3 00 00 00 00	 mov	 DWORD PTR ?pActInfoWnd@@3PAUaction@@A, eax

; 2778 : 			}else{ 

  0009c	eb 1c		 jmp	 SHORT $LN17@BattleTarg
$LN16@BattleTarg:

; 2779 : 				pActInfoWnd = MakeWindowDisp( 225, 60, 3, 2, 0, 1 );

  0009e	6a 01		 push	 1
  000a0	6a 00		 push	 0
  000a2	6a 02		 push	 2
  000a4	6a 03		 push	 3
  000a6	6a 3c		 push	 60			; 0000003cH
  000a8	68 e1 00 00 00	 push	 225			; 000000e1H
  000ad	e8 00 00 00 00	 call	 ?MakeWindowDisp@@YAPAUaction@@HHHHHH@Z ; MakeWindowDisp
  000b2	83 c4 18	 add	 esp, 24			; 00000018H
  000b5	a3 00 00 00 00	 mov	 DWORD PTR ?pActInfoWnd@@3PAUaction@@A, eax
$LN17@BattleTarg:

; 2780 : 			}
; 2781 : 		}else{	

  000ba	eb 67		 jmp	 SHORT $LN15@BattleTarg
$LN14@BattleTarg:

; 2782 : 
; 2783 : 			if( pActInfoWnd->hp > 0 ){

  000bc	a1 00 00 00 00	 mov	 eax, DWORD PTR ?pActInfoWnd@@3PAUaction@@A
  000c1	83 78 78 00	 cmp	 DWORD PTR [eax+120], 0
  000c5	7e 2c		 jle	 SHORT $LN18@BattleTarg

; 2784 : 				StockFontBuffer( pActInfoWnd->x + 30, pActInfoWnd->y + 40, FONT_PRIO_FRONT, FONT_PAL_YELLOW, 	"목표를 선택 해주세요", 0 );

  000c7	6a 00		 push	 0
  000c9	68 00 00 00 00	 push	 OFFSET ??_C@_0BF@NNNOOJBA@?$LI?q?G?$KF?$LI?$KG?5?$LM?$LB?E?C?5?G?X?A?V?$LM?$LM?$LP?d?$AA@
  000ce	6a 04		 push	 4
  000d0	6a 01		 push	 1
  000d2	a1 00 00 00 00	 mov	 eax, DWORD PTR ?pActInfoWnd@@3PAUaction@@A
  000d7	8b 48 1c	 mov	 ecx, DWORD PTR [eax+28]
  000da	83 c1 28	 add	 ecx, 40			; 00000028H
  000dd	51		 push	 ecx
  000de	8b 15 00 00 00
	00		 mov	 edx, DWORD PTR ?pActInfoWnd@@3PAUaction@@A
  000e4	8b 42 18	 mov	 eax, DWORD PTR [edx+24]
  000e7	83 c0 1e	 add	 eax, 30			; 0000001eH
  000ea	50		 push	 eax
  000eb	e8 00 00 00 00	 call	 ?StockFontBuffer@@YAHHHDHPADH@Z ; StockFontBuffer
  000f0	83 c4 18	 add	 esp, 24			; 00000018H
$LN18@BattleTarg:

; 2785 : 			}
; 2786 : 
; 2787 : 			if( mouse.nowPoint.y > 300 ) pActInfoWnd->y = 60;

  000f3	81 3d 04 00 00
	00 2c 01 00 00	 cmp	 DWORD PTR ?mouse@@3UMOUSE@@A+4, 300 ; 0000012cH
  000fd	7e 0c		 jle	 SHORT $LN19@BattleTarg
  000ff	a1 00 00 00 00	 mov	 eax, DWORD PTR ?pActInfoWnd@@3PAUaction@@A
  00104	c7 40 1c 3c 00
	00 00		 mov	 DWORD PTR [eax+28], 60	; 0000003cH
$LN19@BattleTarg:

; 2788 : 			if( mouse.nowPoint.y < 156 ) pActInfoWnd->y = 400;

  0010b	81 3d 04 00 00
	00 9c 00 00 00	 cmp	 DWORD PTR ?mouse@@3UMOUSE@@A+4, 156 ; 0000009cH
  00115	7d 0c		 jge	 SHORT $LN15@BattleTarg
  00117	a1 00 00 00 00	 mov	 eax, DWORD PTR ?pActInfoWnd@@3PAUaction@@A
  0011c	c7 40 1c 90 01
	00 00		 mov	 DWORD PTR [eax+28], 400	; 00000190H
$LN15@BattleTarg:

; 2789 : 		}
; 2790 : 	}else{

  00123	eb 18		 jmp	 SHORT $LN13@BattleTarg
$LN12@BattleTarg:

; 2791 : 		DeathAction( pActInfoWnd );

  00125	a1 00 00 00 00	 mov	 eax, DWORD PTR ?pActInfoWnd@@3PAUaction@@A
  0012a	50		 push	 eax
  0012b	e8 00 00 00 00	 call	 ?DeathAction@@YAXPAUaction@@@Z ; DeathAction
  00130	83 c4 04	 add	 esp, 4

; 2792 : 		pActInfoWnd = NULL;

  00133	c7 05 00 00 00
	00 00 00 00 00	 mov	 DWORD PTR ?pActInfoWnd@@3PAUaction@@A, 0
$LN13@BattleTarg:

; 2793 : 	}
; 2794 : 
; 2795 : 	//cary 自动攻击
; 2796 : 	if( mouse.onceState & MOUSE_LEFT_CRICK ){

  0013d	a1 2c 00 00 00	 mov	 eax, DWORD PTR ?mouse@@3UMOUSE@@A+44
  00142	83 e0 01	 and	 eax, 1
  00145	0f 84 6e 0e 00
	00		 je	 $LN1@BattleTarg

; 2797 : 
; 2798 : 		if( ( targetNo = CheckBattelTarget() ) != -1 ){

  0014b	e8 00 00 00 00	 call	 ?CheckBattelTarget@@YAHXZ ; CheckBattelTarget
  00150	89 85 ec fe ff
	ff		 mov	 DWORD PTR _targetNo$[ebp], eax
  00156	83 bd ec fe ff
	ff ff		 cmp	 DWORD PTR _targetNo$[ebp], -1
  0015d	0f 84 56 0e 00
	00		 je	 $LN1@BattleTarg

; 2799 : 
; 2800 : 			switch( BattleCmdNo ){

  00163	a1 00 00 00 00	 mov	 eax, DWORD PTR ?BattleCmdNo@@3HA ; BattleCmdNo
  00168	89 85 18 fe ff
	ff		 mov	 DWORD PTR tv141[ebp], eax
  0016e	83 bd 18 fe ff
	ff 05		 cmp	 DWORD PTR tv141[ebp], 5
  00175	0f 87 fb 0d 00
	00		 ja	 $LN2@BattleTarg
  0017b	8b 8d 18 fe ff
	ff		 mov	 ecx, DWORD PTR tv141[ebp]
  00181	ff 24 8d 00 00
	00 00		 jmp	 DWORD PTR $LN133@BattleTarg[ecx*4]
$LN23@BattleTarg:

; 2801 : 			case BATTLE_ATTACK:
; 2802 : 				sprintf( moji, "H|%X", targetNo );

  00188	8b 85 ec fe ff
	ff		 mov	 eax, DWORD PTR _targetNo$[ebp]
  0018e	50		 push	 eax
  0018f	68 00 00 00 00	 push	 OFFSET ??_C@_04DMFDFHBJ@H?$HM?$CFX?$AA@
  00194	8d 8d f8 fe ff
	ff		 lea	 ecx, DWORD PTR _moji$[ebp]
  0019a	51		 push	 ecx
  0019b	e8 00 00 00 00	 call	 _sprintf
  001a0	83 c4 0c	 add	 esp, 12			; 0000000cH

; 2803 : 				if( bNewServer)

  001a3	83 3d 00 00 00
	00 00		 cmp	 DWORD PTR ?bNewServer@@3HA, 0 ; bNewServer
  001aa	74 18		 je	 SHORT $LN24@BattleTarg

; 2804 : 					lssproto_B_send( sockfd, moji );

  001ac	8d 85 f8 fe ff
	ff		 lea	 eax, DWORD PTR _moji$[ebp]
  001b2	50		 push	 eax
  001b3	8b 0d 00 00 00
	00		 mov	 ecx, DWORD PTR ?sockfd@@3IA ; sockfd
  001b9	51		 push	 ecx
  001ba	e8 00 00 00 00	 call	 ?lssproto_B_send@@YAXHPAD@Z ; lssproto_B_send
  001bf	83 c4 08	 add	 esp, 8

; 2805 : 				else

  001c2	eb 16		 jmp	 SHORT $LN25@BattleTarg
$LN24@BattleTarg:

; 2806 : 					old_lssproto_B_send( sockfd, moji );

  001c4	8d 85 f8 fe ff
	ff		 lea	 eax, DWORD PTR _moji$[ebp]
  001ca	50		 push	 eax
  001cb	8b 0d 00 00 00
	00		 mov	 ecx, DWORD PTR ?sockfd@@3IA ; sockfd
  001d1	51		 push	 ecx
  001d2	e8 00 00 00 00	 call	 ?old_lssproto_B_send@@YAXHPAD@Z ; old_lssproto_B_send
  001d7	83 c4 08	 add	 esp, 8
$LN25@BattleTarg:

; 2807 : 				break;

  001da	e9 97 0d 00 00	 jmp	 $LN2@BattleTarg
$LN26@BattleTarg:

; 2808 : 			
; 2809 : 			case BATTLE_CAPTURE:
; 2810 : 				sprintf( moji, "T|%X", targetNo );

  001df	8b 85 ec fe ff
	ff		 mov	 eax, DWORD PTR _targetNo$[ebp]
  001e5	50		 push	 eax
  001e6	68 00 00 00 00	 push	 OFFSET ??_C@_04JJEDCNJK@T?$HM?$CFX?$AA@
  001eb	8d 8d f8 fe ff
	ff		 lea	 ecx, DWORD PTR _moji$[ebp]
  001f1	51		 push	 ecx
  001f2	e8 00 00 00 00	 call	 _sprintf
  001f7	83 c4 0c	 add	 esp, 12			; 0000000cH

; 2811 : 				if( bNewServer)

  001fa	83 3d 00 00 00
	00 00		 cmp	 DWORD PTR ?bNewServer@@3HA, 0 ; bNewServer
  00201	74 18		 je	 SHORT $LN27@BattleTarg

; 2812 : 					lssproto_B_send( sockfd, moji );

  00203	8d 85 f8 fe ff
	ff		 lea	 eax, DWORD PTR _moji$[ebp]
  00209	50		 push	 eax
  0020a	8b 0d 00 00 00
	00		 mov	 ecx, DWORD PTR ?sockfd@@3IA ; sockfd
  00210	51		 push	 ecx
  00211	e8 00 00 00 00	 call	 ?lssproto_B_send@@YAXHPAD@Z ; lssproto_B_send
  00216	83 c4 08	 add	 esp, 8

; 2813 : 				else

  00219	eb 16		 jmp	 SHORT $LN28@BattleTarg
$LN27@BattleTarg:

; 2814 : 					old_lssproto_B_send( sockfd, moji );

  0021b	8d 85 f8 fe ff
	ff		 lea	 eax, DWORD PTR _moji$[ebp]
  00221	50		 push	 eax
  00222	8b 0d 00 00 00
	00		 mov	 ecx, DWORD PTR ?sockfd@@3IA ; sockfd
  00228	51		 push	 ecx
  00229	e8 00 00 00 00	 call	 ?old_lssproto_B_send@@YAXHPAD@Z ; old_lssproto_B_send
  0022e	83 c4 08	 add	 esp, 8
$LN28@BattleTarg:

; 2815 : 				break;

  00231	e9 40 0d 00 00	 jmp	 $LN2@BattleTarg
$LN29@BattleTarg:

; 2816 : 				
; 2817 : 			case BATTLE_JUJUTU:
; 2818 : 				//cary*
; 2819 : 				switch( magic[ BattleJujutuNo ].target ){

  00236	6b 05 00 00 00
	00 70		 imul	 eax, DWORD PTR ?BattleJujutuNo@@3HA, 112 ; BattleJujutuNo
  0023d	0f bf 88 0a 00
	00 00		 movsx	 ecx, WORD PTR ?magic@@3PAUMAGIC@@A[eax+10]
  00244	89 8d 18 fe ff
	ff		 mov	 DWORD PTR tv162[ebp], ecx
  0024a	83 bd 18 fe ff
	ff 0b		 cmp	 DWORD PTR tv162[ebp], 11 ; 0000000bH
  00251	0f 87 b4 04 00
	00		 ja	 $LN4@BattleTarg
  00257	8b 95 18 fe ff
	ff		 mov	 edx, DWORD PTR tv162[ebp]
  0025d	ff 24 95 00 00
	00 00		 jmp	 DWORD PTR $LN134@BattleTarg[edx*4]
$LN30@BattleTarg:

; 2820 : 
; 2821 : 				#ifdef __ATTACK_MAGIC
; 2822 : 
; 2823 : 				// 敌军某一人
; 2824 : 				case MAGIC_TARGET_SINGLE:
; 2825 : 
; 2826 : 					sprintf( moji , "J|%X|%X" , BattleJujutuNo , targetNo );

  00264	8b 85 ec fe ff
	ff		 mov	 eax, DWORD PTR _targetNo$[ebp]
  0026a	50		 push	 eax
  0026b	8b 0d 00 00 00
	00		 mov	 ecx, DWORD PTR ?BattleJujutuNo@@3HA ; BattleJujutuNo
  00271	51		 push	 ecx
  00272	68 00 00 00 00	 push	 OFFSET ??_C@_07DLEHBIBA@J?$HM?$CFX?$HM?$CFX?$AA@
  00277	8d 95 f8 fe ff
	ff		 lea	 edx, DWORD PTR _moji$[ebp]
  0027d	52		 push	 edx
  0027e	e8 00 00 00 00	 call	 _sprintf
  00283	83 c4 10	 add	 esp, 16			; 00000010H

; 2827 : 					if( bNewServer)

  00286	83 3d 00 00 00
	00 00		 cmp	 DWORD PTR ?bNewServer@@3HA, 0 ; bNewServer
  0028d	74 18		 je	 SHORT $LN31@BattleTarg

; 2828 : 						lssproto_B_send( sockfd , moji );

  0028f	8d 85 f8 fe ff
	ff		 lea	 eax, DWORD PTR _moji$[ebp]
  00295	50		 push	 eax
  00296	8b 0d 00 00 00
	00		 mov	 ecx, DWORD PTR ?sockfd@@3IA ; sockfd
  0029c	51		 push	 ecx
  0029d	e8 00 00 00 00	 call	 ?lssproto_B_send@@YAXHPAD@Z ; lssproto_B_send
  002a2	83 c4 08	 add	 esp, 8

; 2829 : 					else

  002a5	eb 16		 jmp	 SHORT $LN32@BattleTarg
$LN31@BattleTarg:

; 2830 : 						old_lssproto_B_send( sockfd , moji );

  002a7	8d 85 f8 fe ff
	ff		 lea	 eax, DWORD PTR _moji$[ebp]
  002ad	50		 push	 eax
  002ae	8b 0d 00 00 00
	00		 mov	 ecx, DWORD PTR ?sockfd@@3IA ; sockfd
  002b4	51		 push	 ecx
  002b5	e8 00 00 00 00	 call	 ?old_lssproto_B_send@@YAXHPAD@Z ; old_lssproto_B_send
  002ba	83 c4 08	 add	 esp, 8
$LN32@BattleTarg:

; 2831 : 					play_se( 217 , 320 , 240 );

  002bd	68 f0 00 00 00	 push	 240			; 000000f0H
  002c2	68 40 01 00 00	 push	 320			; 00000140H
  002c7	68 d9 00 00 00	 push	 217			; 000000d9H
  002cc	e8 00 00 00 00	 call	 ?play_se@@YAHHHH@Z	; play_se
  002d1	83 c4 0c	 add	 esp, 12			; 0000000cH

; 2832 : 
; 2833 : 					break;

  002d4	e9 32 04 00 00	 jmp	 $LN4@BattleTarg
$LN33@BattleTarg:

; 2834 : 
; 2835 : 				// 敌军一整排
; 2836 : 				case MAGIC_TARGET_ONE_ROW:
; 2837 : 
; 2838 : 					// 23: 左上第一列 , 24: 左上第二列 , 25: 右下第一列 , 26: 右下第二列
; 2839 : 					if( targetNo >= 0 && targetNo < 5 )

  002d9	83 bd ec fe ff
	ff 00		 cmp	 DWORD PTR _targetNo$[ebp], 0
  002e0	7c 15		 jl	 SHORT $LN34@BattleTarg
  002e2	83 bd ec fe ff
	ff 05		 cmp	 DWORD PTR _targetNo$[ebp], 5
  002e9	7d 0c		 jge	 SHORT $LN34@BattleTarg

; 2840 : 						no = 26;

  002eb	c7 85 e0 fe ff
	ff 1a 00 00 00	 mov	 DWORD PTR _no$[ebp], 26	; 0000001aH
  002f5	eb 58		 jmp	 SHORT $LN35@BattleTarg
$LN34@BattleTarg:

; 2841 : 					else if( targetNo >= 5 && targetNo < 10 )

  002f7	83 bd ec fe ff
	ff 05		 cmp	 DWORD PTR _targetNo$[ebp], 5
  002fe	7c 15		 jl	 SHORT $LN36@BattleTarg
  00300	83 bd ec fe ff
	ff 0a		 cmp	 DWORD PTR _targetNo$[ebp], 10 ; 0000000aH
  00307	7d 0c		 jge	 SHORT $LN36@BattleTarg

; 2842 : 						no = 25;

  00309	c7 85 e0 fe ff
	ff 19 00 00 00	 mov	 DWORD PTR _no$[ebp], 25	; 00000019H
  00313	eb 3a		 jmp	 SHORT $LN35@BattleTarg
$LN36@BattleTarg:

; 2843 : 					else if( targetNo >= 10 && targetNo < 15 )

  00315	83 bd ec fe ff
	ff 0a		 cmp	 DWORD PTR _targetNo$[ebp], 10 ; 0000000aH
  0031c	7c 15		 jl	 SHORT $LN38@BattleTarg
  0031e	83 bd ec fe ff
	ff 0f		 cmp	 DWORD PTR _targetNo$[ebp], 15 ; 0000000fH
  00325	7d 0c		 jge	 SHORT $LN38@BattleTarg

; 2844 : 						no = 23;

  00327	c7 85 e0 fe ff
	ff 17 00 00 00	 mov	 DWORD PTR _no$[ebp], 23	; 00000017H
  00331	eb 1c		 jmp	 SHORT $LN35@BattleTarg
$LN38@BattleTarg:

; 2845 : 					else if( targetNo >= 15 && targetNo < 20 )

  00333	83 bd ec fe ff
	ff 0f		 cmp	 DWORD PTR _targetNo$[ebp], 15 ; 0000000fH
  0033a	7c 13		 jl	 SHORT $LN35@BattleTarg
  0033c	83 bd ec fe ff
	ff 14		 cmp	 DWORD PTR _targetNo$[ebp], 20 ; 00000014H
  00343	7d 0a		 jge	 SHORT $LN35@BattleTarg

; 2846 : 						no = 24;

  00345	c7 85 e0 fe ff
	ff 18 00 00 00	 mov	 DWORD PTR _no$[ebp], 24	; 00000018H
$LN35@BattleTarg:

; 2847 : 
; 2848 : 					sprintf( moji , "J|%X|%X" , BattleJujutuNo , no );

  0034f	8b 85 e0 fe ff
	ff		 mov	 eax, DWORD PTR _no$[ebp]
  00355	50		 push	 eax
  00356	8b 0d 00 00 00
	00		 mov	 ecx, DWORD PTR ?BattleJujutuNo@@3HA ; BattleJujutuNo
  0035c	51		 push	 ecx
  0035d	68 00 00 00 00	 push	 OFFSET ??_C@_07DLEHBIBA@J?$HM?$CFX?$HM?$CFX?$AA@
  00362	8d 95 f8 fe ff
	ff		 lea	 edx, DWORD PTR _moji$[ebp]
  00368	52		 push	 edx
  00369	e8 00 00 00 00	 call	 _sprintf
  0036e	83 c4 10	 add	 esp, 16			; 00000010H

; 2849 : 					if( bNewServer)

  00371	83 3d 00 00 00
	00 00		 cmp	 DWORD PTR ?bNewServer@@3HA, 0 ; bNewServer
  00378	74 18		 je	 SHORT $LN41@BattleTarg

; 2850 : 						lssproto_B_send( sockfd , moji );

  0037a	8d 85 f8 fe ff
	ff		 lea	 eax, DWORD PTR _moji$[ebp]
  00380	50		 push	 eax
  00381	8b 0d 00 00 00
	00		 mov	 ecx, DWORD PTR ?sockfd@@3IA ; sockfd
  00387	51		 push	 ecx
  00388	e8 00 00 00 00	 call	 ?lssproto_B_send@@YAXHPAD@Z ; lssproto_B_send
  0038d	83 c4 08	 add	 esp, 8

; 2851 : 					else

  00390	eb 16		 jmp	 SHORT $LN42@BattleTarg
$LN41@BattleTarg:

; 2852 : 						old_lssproto_B_send( sockfd , moji );

  00392	8d 85 f8 fe ff
	ff		 lea	 eax, DWORD PTR _moji$[ebp]
  00398	50		 push	 eax
  00399	8b 0d 00 00 00
	00		 mov	 ecx, DWORD PTR ?sockfd@@3IA ; sockfd
  0039f	51		 push	 ecx
  003a0	e8 00 00 00 00	 call	 ?old_lssproto_B_send@@YAXHPAD@Z ; old_lssproto_B_send
  003a5	83 c4 08	 add	 esp, 8
$LN42@BattleTarg:

; 2853 : 					play_se( 217 , 320 , 240 );

  003a8	68 f0 00 00 00	 push	 240			; 000000f0H
  003ad	68 40 01 00 00	 push	 320			; 00000140H
  003b2	68 d9 00 00 00	 push	 217			; 000000d9H
  003b7	e8 00 00 00 00	 call	 ?play_se@@YAHHHH@Z	; play_se
  003bc	83 c4 0c	 add	 esp, 12			; 0000000cH

; 2854 : 
; 2855 : 					break;

  003bf	e9 47 03 00 00	 jmp	 $LN4@BattleTarg
$LN43@BattleTarg:

; 2856 : 
; 2857 : 				// 敌军全体
; 2858 : 				case MAGIC_TARGET_ALL_ROWS:
; 2859 : 
; 2860 : 					( BattleMyNo < 10 )? no = 21 : no = 20;

  003c4	83 3d 00 00 00
	00 0a		 cmp	 DWORD PTR ?BattleMyNo@@3HA, 10 ; BattleMyNo, 0000000aH
  003cb	7d 18		 jge	 SHORT $LN126@BattleTarg
  003cd	c7 85 e0 fe ff
	ff 15 00 00 00	 mov	 DWORD PTR _no$[ebp], 21	; 00000015H
  003d7	8b 85 e0 fe ff
	ff		 mov	 eax, DWORD PTR _no$[ebp]
  003dd	89 85 18 fe ff
	ff		 mov	 DWORD PTR tv196[ebp], eax
  003e3	eb 16		 jmp	 SHORT $LN127@BattleTarg
$LN126@BattleTarg:
  003e5	c7 85 e0 fe ff
	ff 14 00 00 00	 mov	 DWORD PTR _no$[ebp], 20	; 00000014H
  003ef	8b 8d e0 fe ff
	ff		 mov	 ecx, DWORD PTR _no$[ebp]
  003f5	89 8d 18 fe ff
	ff		 mov	 DWORD PTR tv196[ebp], ecx
$LN127@BattleTarg:

; 2861 : 					sprintf( moji , "J|%X|%X" , BattleJujutuNo , no );

  003fb	8b 85 e0 fe ff
	ff		 mov	 eax, DWORD PTR _no$[ebp]
  00401	50		 push	 eax
  00402	8b 0d 00 00 00
	00		 mov	 ecx, DWORD PTR ?BattleJujutuNo@@3HA ; BattleJujutuNo
  00408	51		 push	 ecx
  00409	68 00 00 00 00	 push	 OFFSET ??_C@_07DLEHBIBA@J?$HM?$CFX?$HM?$CFX?$AA@
  0040e	8d 95 f8 fe ff
	ff		 lea	 edx, DWORD PTR _moji$[ebp]
  00414	52		 push	 edx
  00415	e8 00 00 00 00	 call	 _sprintf
  0041a	83 c4 10	 add	 esp, 16			; 00000010H

; 2862 : 					if( bNewServer)

  0041d	83 3d 00 00 00
	00 00		 cmp	 DWORD PTR ?bNewServer@@3HA, 0 ; bNewServer
  00424	74 18		 je	 SHORT $LN44@BattleTarg

; 2863 : 						lssproto_B_send( sockfd , moji );

  00426	8d 85 f8 fe ff
	ff		 lea	 eax, DWORD PTR _moji$[ebp]
  0042c	50		 push	 eax
  0042d	8b 0d 00 00 00
	00		 mov	 ecx, DWORD PTR ?sockfd@@3IA ; sockfd
  00433	51		 push	 ecx
  00434	e8 00 00 00 00	 call	 ?lssproto_B_send@@YAXHPAD@Z ; lssproto_B_send
  00439	83 c4 08	 add	 esp, 8

; 2864 : 					else

  0043c	eb 16		 jmp	 SHORT $LN45@BattleTarg
$LN44@BattleTarg:

; 2865 : 						old_lssproto_B_send( sockfd , moji );

  0043e	8d 85 f8 fe ff
	ff		 lea	 eax, DWORD PTR _moji$[ebp]
  00444	50		 push	 eax
  00445	8b 0d 00 00 00
	00		 mov	 ecx, DWORD PTR ?sockfd@@3IA ; sockfd
  0044b	51		 push	 ecx
  0044c	e8 00 00 00 00	 call	 ?old_lssproto_B_send@@YAXHPAD@Z ; old_lssproto_B_send
  00451	83 c4 08	 add	 esp, 8
$LN45@BattleTarg:

; 2866 : 					play_se( 217 , 320 , 240 );

  00454	68 f0 00 00 00	 push	 240			; 000000f0H
  00459	68 40 01 00 00	 push	 320			; 00000140H
  0045e	68 d9 00 00 00	 push	 217			; 000000d9H
  00463	e8 00 00 00 00	 call	 ?play_se@@YAHHHH@Z	; play_se
  00468	83 c4 0c	 add	 esp, 12			; 0000000cH

; 2867 : 
; 2868 : 					break;

  0046b	e9 9b 02 00 00	 jmp	 $LN4@BattleTarg
$LN46@BattleTarg:

; 2869 : 
; 2870 : 				#endif
; 2871 : 
; 2872 : 				case MAGIC_TARGET_MYSELF:
; 2873 : 				case MAGIC_TARGET_OTHER:
; 2874 : 					sprintf( moji,"J|%X|%X", BattleJujutuNo, targetNo );

  00470	8b 85 ec fe ff
	ff		 mov	 eax, DWORD PTR _targetNo$[ebp]
  00476	50		 push	 eax
  00477	8b 0d 00 00 00
	00		 mov	 ecx, DWORD PTR ?BattleJujutuNo@@3HA ; BattleJujutuNo
  0047d	51		 push	 ecx
  0047e	68 00 00 00 00	 push	 OFFSET ??_C@_07DLEHBIBA@J?$HM?$CFX?$HM?$CFX?$AA@
  00483	8d 95 f8 fe ff
	ff		 lea	 edx, DWORD PTR _moji$[ebp]
  00489	52		 push	 edx
  0048a	e8 00 00 00 00	 call	 _sprintf
  0048f	83 c4 10	 add	 esp, 16			; 00000010H

; 2875 : 					if( bNewServer)

  00492	83 3d 00 00 00
	00 00		 cmp	 DWORD PTR ?bNewServer@@3HA, 0 ; bNewServer
  00499	74 18		 je	 SHORT $LN47@BattleTarg

; 2876 : 						lssproto_B_send( sockfd, moji );

  0049b	8d 85 f8 fe ff
	ff		 lea	 eax, DWORD PTR _moji$[ebp]
  004a1	50		 push	 eax
  004a2	8b 0d 00 00 00
	00		 mov	 ecx, DWORD PTR ?sockfd@@3IA ; sockfd
  004a8	51		 push	 ecx
  004a9	e8 00 00 00 00	 call	 ?lssproto_B_send@@YAXHPAD@Z ; lssproto_B_send
  004ae	83 c4 08	 add	 esp, 8

; 2877 : 					else

  004b1	eb 16		 jmp	 SHORT $LN48@BattleTarg
$LN47@BattleTarg:

; 2878 : 						old_lssproto_B_send( sockfd, moji );

  004b3	8d 85 f8 fe ff
	ff		 lea	 eax, DWORD PTR _moji$[ebp]
  004b9	50		 push	 eax
  004ba	8b 0d 00 00 00
	00		 mov	 ecx, DWORD PTR ?sockfd@@3IA ; sockfd
  004c0	51		 push	 ecx
  004c1	e8 00 00 00 00	 call	 ?old_lssproto_B_send@@YAXHPAD@Z ; old_lssproto_B_send
  004c6	83 c4 08	 add	 esp, 8
$LN48@BattleTarg:

; 2879 : 					play_se( 217, 320, 240 );

  004c9	68 f0 00 00 00	 push	 240			; 000000f0H
  004ce	68 40 01 00 00	 push	 320			; 00000140H
  004d3	68 d9 00 00 00	 push	 217			; 000000d9H
  004d8	e8 00 00 00 00	 call	 ?play_se@@YAHHHH@Z	; play_se
  004dd	83 c4 0c	 add	 esp, 12			; 0000000cH

; 2880 : 					break;

  004e0	e9 26 02 00 00	 jmp	 $LN4@BattleTarg
$LN49@BattleTarg:

; 2881 : 					
; 2882 : 				case MAGIC_TARGET_ALLMYSIDE:
; 2883 : 					if( BattleMyNo < 10 ) no = 20;

  004e5	83 3d 00 00 00
	00 0a		 cmp	 DWORD PTR ?BattleMyNo@@3HA, 10 ; BattleMyNo, 0000000aH
  004ec	7d 0c		 jge	 SHORT $LN50@BattleTarg
  004ee	c7 85 e0 fe ff
	ff 14 00 00 00	 mov	 DWORD PTR _no$[ebp], 20	; 00000014H
  004f8	eb 0a		 jmp	 SHORT $LN51@BattleTarg
$LN50@BattleTarg:

; 2884 : 					else no = 21;

  004fa	c7 85 e0 fe ff
	ff 15 00 00 00	 mov	 DWORD PTR _no$[ebp], 21	; 00000015H
$LN51@BattleTarg:

; 2885 : 					sprintf( moji,"J|%X|%X", BattleJujutuNo, no );

  00504	8b 85 e0 fe ff
	ff		 mov	 eax, DWORD PTR _no$[ebp]
  0050a	50		 push	 eax
  0050b	8b 0d 00 00 00
	00		 mov	 ecx, DWORD PTR ?BattleJujutuNo@@3HA ; BattleJujutuNo
  00511	51		 push	 ecx
  00512	68 00 00 00 00	 push	 OFFSET ??_C@_07DLEHBIBA@J?$HM?$CFX?$HM?$CFX?$AA@
  00517	8d 95 f8 fe ff
	ff		 lea	 edx, DWORD PTR _moji$[ebp]
  0051d	52		 push	 edx
  0051e	e8 00 00 00 00	 call	 _sprintf
  00523	83 c4 10	 add	 esp, 16			; 00000010H

; 2886 : 
; 2887 : 					if( bNewServer)

  00526	83 3d 00 00 00
	00 00		 cmp	 DWORD PTR ?bNewServer@@3HA, 0 ; bNewServer
  0052d	74 18		 je	 SHORT $LN52@BattleTarg

; 2888 : 						lssproto_B_send( sockfd, moji );

  0052f	8d 85 f8 fe ff
	ff		 lea	 eax, DWORD PTR _moji$[ebp]
  00535	50		 push	 eax
  00536	8b 0d 00 00 00
	00		 mov	 ecx, DWORD PTR ?sockfd@@3IA ; sockfd
  0053c	51		 push	 ecx
  0053d	e8 00 00 00 00	 call	 ?lssproto_B_send@@YAXHPAD@Z ; lssproto_B_send
  00542	83 c4 08	 add	 esp, 8

; 2889 : 					else

  00545	eb 16		 jmp	 SHORT $LN53@BattleTarg
$LN52@BattleTarg:

; 2890 : 						old_lssproto_B_send( sockfd, moji );

  00547	8d 85 f8 fe ff
	ff		 lea	 eax, DWORD PTR _moji$[ebp]
  0054d	50		 push	 eax
  0054e	8b 0d 00 00 00
	00		 mov	 ecx, DWORD PTR ?sockfd@@3IA ; sockfd
  00554	51		 push	 ecx
  00555	e8 00 00 00 00	 call	 ?old_lssproto_B_send@@YAXHPAD@Z ; old_lssproto_B_send
  0055a	83 c4 08	 add	 esp, 8
$LN53@BattleTarg:

; 2891 : 
; 2892 : 					play_se( 217, 320, 240 );

  0055d	68 f0 00 00 00	 push	 240			; 000000f0H
  00562	68 40 01 00 00	 push	 320			; 00000140H
  00567	68 d9 00 00 00	 push	 217			; 000000d9H
  0056c	e8 00 00 00 00	 call	 ?play_se@@YAHHHH@Z	; play_se
  00571	83 c4 0c	 add	 esp, 12			; 0000000cH

; 2893 : 					break;

  00574	e9 92 01 00 00	 jmp	 $LN4@BattleTarg
$LN54@BattleTarg:

; 2894 : 					
; 2895 : 				case MAGIC_TARGET_ALLOTHERSIDE:
; 2896 : 					if( BattleMyNo < 10 ) no = 21;

  00579	83 3d 00 00 00
	00 0a		 cmp	 DWORD PTR ?BattleMyNo@@3HA, 10 ; BattleMyNo, 0000000aH
  00580	7d 0c		 jge	 SHORT $LN55@BattleTarg
  00582	c7 85 e0 fe ff
	ff 15 00 00 00	 mov	 DWORD PTR _no$[ebp], 21	; 00000015H
  0058c	eb 0a		 jmp	 SHORT $LN56@BattleTarg
$LN55@BattleTarg:

; 2897 : 					else no = 20;

  0058e	c7 85 e0 fe ff
	ff 14 00 00 00	 mov	 DWORD PTR _no$[ebp], 20	; 00000014H
$LN56@BattleTarg:

; 2898 : 
; 2899 : 					sprintf( moji,"J|%X|%X", BattleJujutuNo, no );

  00598	8b 85 e0 fe ff
	ff		 mov	 eax, DWORD PTR _no$[ebp]
  0059e	50		 push	 eax
  0059f	8b 0d 00 00 00
	00		 mov	 ecx, DWORD PTR ?BattleJujutuNo@@3HA ; BattleJujutuNo
  005a5	51		 push	 ecx
  005a6	68 00 00 00 00	 push	 OFFSET ??_C@_07DLEHBIBA@J?$HM?$CFX?$HM?$CFX?$AA@
  005ab	8d 95 f8 fe ff
	ff		 lea	 edx, DWORD PTR _moji$[ebp]
  005b1	52		 push	 edx
  005b2	e8 00 00 00 00	 call	 _sprintf
  005b7	83 c4 10	 add	 esp, 16			; 00000010H

; 2900 : 
; 2901 : 					if( bNewServer)

  005ba	83 3d 00 00 00
	00 00		 cmp	 DWORD PTR ?bNewServer@@3HA, 0 ; bNewServer
  005c1	74 18		 je	 SHORT $LN57@BattleTarg

; 2902 : 						lssproto_B_send( sockfd, moji );

  005c3	8d 85 f8 fe ff
	ff		 lea	 eax, DWORD PTR _moji$[ebp]
  005c9	50		 push	 eax
  005ca	8b 0d 00 00 00
	00		 mov	 ecx, DWORD PTR ?sockfd@@3IA ; sockfd
  005d0	51		 push	 ecx
  005d1	e8 00 00 00 00	 call	 ?lssproto_B_send@@YAXHPAD@Z ; lssproto_B_send
  005d6	83 c4 08	 add	 esp, 8

; 2903 : 					else

  005d9	eb 16		 jmp	 SHORT $LN58@BattleTarg
$LN57@BattleTarg:

; 2904 : 						old_lssproto_B_send( sockfd, moji );

  005db	8d 85 f8 fe ff
	ff		 lea	 eax, DWORD PTR _moji$[ebp]
  005e1	50		 push	 eax
  005e2	8b 0d 00 00 00
	00		 mov	 ecx, DWORD PTR ?sockfd@@3IA ; sockfd
  005e8	51		 push	 ecx
  005e9	e8 00 00 00 00	 call	 ?old_lssproto_B_send@@YAXHPAD@Z ; old_lssproto_B_send
  005ee	83 c4 08	 add	 esp, 8
$LN58@BattleTarg:

; 2905 : 
; 2906 : 					play_se( 217, 320, 240 );

  005f1	68 f0 00 00 00	 push	 240			; 000000f0H
  005f6	68 40 01 00 00	 push	 320			; 00000140H
  005fb	68 d9 00 00 00	 push	 217			; 000000d9H
  00600	e8 00 00 00 00	 call	 ?play_se@@YAHHHH@Z	; play_se
  00605	83 c4 0c	 add	 esp, 12			; 0000000cH

; 2907 : 					break;

  00608	e9 fe 00 00 00	 jmp	 $LN4@BattleTarg
$LN59@BattleTarg:

; 2908 : 					
; 2909 : 				case MAGIC_TARGET_ALL:
; 2910 : 
; 2911 : 					sprintf( moji,"J|%X|%X", BattleJujutuNo, 22 );

  0060d	6a 16		 push	 22			; 00000016H
  0060f	a1 00 00 00 00	 mov	 eax, DWORD PTR ?BattleJujutuNo@@3HA ; BattleJujutuNo
  00614	50		 push	 eax
  00615	68 00 00 00 00	 push	 OFFSET ??_C@_07DLEHBIBA@J?$HM?$CFX?$HM?$CFX?$AA@
  0061a	8d 8d f8 fe ff
	ff		 lea	 ecx, DWORD PTR _moji$[ebp]
  00620	51		 push	 ecx
  00621	e8 00 00 00 00	 call	 _sprintf
  00626	83 c4 10	 add	 esp, 16			; 00000010H

; 2912 : 
; 2913 : 					if( bNewServer)

  00629	83 3d 00 00 00
	00 00		 cmp	 DWORD PTR ?bNewServer@@3HA, 0 ; bNewServer
  00630	74 18		 je	 SHORT $LN60@BattleTarg

; 2914 : 						lssproto_B_send( sockfd, moji );

  00632	8d 85 f8 fe ff
	ff		 lea	 eax, DWORD PTR _moji$[ebp]
  00638	50		 push	 eax
  00639	8b 0d 00 00 00
	00		 mov	 ecx, DWORD PTR ?sockfd@@3IA ; sockfd
  0063f	51		 push	 ecx
  00640	e8 00 00 00 00	 call	 ?lssproto_B_send@@YAXHPAD@Z ; lssproto_B_send
  00645	83 c4 08	 add	 esp, 8

; 2915 : 					else

  00648	eb 16		 jmp	 SHORT $LN61@BattleTarg
$LN60@BattleTarg:

; 2916 : 						old_lssproto_B_send( sockfd, moji );

  0064a	8d 85 f8 fe ff
	ff		 lea	 eax, DWORD PTR _moji$[ebp]
  00650	50		 push	 eax
  00651	8b 0d 00 00 00
	00		 mov	 ecx, DWORD PTR ?sockfd@@3IA ; sockfd
  00657	51		 push	 ecx
  00658	e8 00 00 00 00	 call	 ?old_lssproto_B_send@@YAXHPAD@Z ; old_lssproto_B_send
  0065d	83 c4 08	 add	 esp, 8
$LN61@BattleTarg:

; 2917 : 
; 2918 : 					play_se( 217, 320, 240 );

  00660	68 f0 00 00 00	 push	 240			; 000000f0H
  00665	68 40 01 00 00	 push	 320			; 00000140H
  0066a	68 d9 00 00 00	 push	 217			; 000000d9H
  0066f	e8 00 00 00 00	 call	 ?play_se@@YAHHHH@Z	; play_se
  00674	83 c4 0c	 add	 esp, 12			; 0000000cH

; 2919 : 					break;

  00677	e9 8f 00 00 00	 jmp	 $LN4@BattleTarg
$LN62@BattleTarg:

; 2920 : 					
; 2921 : 				case MAGIC_TARGET_WHOLEOTHERSIDE:
; 2922 : 
; 2923 : 					if( targetNo < 10 ) no = 20;

  0067c	83 bd ec fe ff
	ff 0a		 cmp	 DWORD PTR _targetNo$[ebp], 10 ; 0000000aH
  00683	7d 0c		 jge	 SHORT $LN63@BattleTarg
  00685	c7 85 e0 fe ff
	ff 14 00 00 00	 mov	 DWORD PTR _no$[ebp], 20	; 00000014H
  0068f	eb 0a		 jmp	 SHORT $LN64@BattleTarg
$LN63@BattleTarg:

; 2924 : 					else no = 21;

  00691	c7 85 e0 fe ff
	ff 15 00 00 00	 mov	 DWORD PTR _no$[ebp], 21	; 00000015H
$LN64@BattleTarg:

; 2925 : 
; 2926 : 					sprintf( moji,"J|%X|%X", BattleJujutuNo, no );

  0069b	8b 85 e0 fe ff
	ff		 mov	 eax, DWORD PTR _no$[ebp]
  006a1	50		 push	 eax
  006a2	8b 0d 00 00 00
	00		 mov	 ecx, DWORD PTR ?BattleJujutuNo@@3HA ; BattleJujutuNo
  006a8	51		 push	 ecx
  006a9	68 00 00 00 00	 push	 OFFSET ??_C@_07DLEHBIBA@J?$HM?$CFX?$HM?$CFX?$AA@
  006ae	8d 95 f8 fe ff
	ff		 lea	 edx, DWORD PTR _moji$[ebp]
  006b4	52		 push	 edx
  006b5	e8 00 00 00 00	 call	 _sprintf
  006ba	83 c4 10	 add	 esp, 16			; 00000010H

; 2927 : 
; 2928 : 					if( bNewServer)

  006bd	83 3d 00 00 00
	00 00		 cmp	 DWORD PTR ?bNewServer@@3HA, 0 ; bNewServer
  006c4	74 18		 je	 SHORT $LN65@BattleTarg

; 2929 : 						lssproto_B_send( sockfd, moji );

  006c6	8d 85 f8 fe ff
	ff		 lea	 eax, DWORD PTR _moji$[ebp]
  006cc	50		 push	 eax
  006cd	8b 0d 00 00 00
	00		 mov	 ecx, DWORD PTR ?sockfd@@3IA ; sockfd
  006d3	51		 push	 ecx
  006d4	e8 00 00 00 00	 call	 ?lssproto_B_send@@YAXHPAD@Z ; lssproto_B_send
  006d9	83 c4 08	 add	 esp, 8

; 2930 : 					else

  006dc	eb 16		 jmp	 SHORT $LN66@BattleTarg
$LN65@BattleTarg:

; 2931 : 						old_lssproto_B_send( sockfd, moji );

  006de	8d 85 f8 fe ff
	ff		 lea	 eax, DWORD PTR _moji$[ebp]
  006e4	50		 push	 eax
  006e5	8b 0d 00 00 00
	00		 mov	 ecx, DWORD PTR ?sockfd@@3IA ; sockfd
  006eb	51		 push	 ecx
  006ec	e8 00 00 00 00	 call	 ?old_lssproto_B_send@@YAXHPAD@Z ; old_lssproto_B_send
  006f1	83 c4 08	 add	 esp, 8
$LN66@BattleTarg:

; 2932 : 
; 2933 : 					play_se( 217, 320, 240 );

  006f4	68 f0 00 00 00	 push	 240			; 000000f0H
  006f9	68 40 01 00 00	 push	 320			; 00000140H
  006fe	68 d9 00 00 00	 push	 217			; 000000d9H
  00703	e8 00 00 00 00	 call	 ?play_se@@YAHHHH@Z	; play_se
  00708	83 c4 0c	 add	 esp, 12			; 0000000cH
$LN4@BattleTarg:

; 2934 : 					break;
; 2935 : 				}
; 2936 : 				break;

  0070b	e9 66 08 00 00	 jmp	 $LN2@BattleTarg
$LN67@BattleTarg:

; 2937 : 				
; 2938 : 				//Change note 道具选择对象后送出封包
; 2939 : 			case BATTLE_ITEM:
; 2940 : 				//cary*
; 2941 : 				switch( pc.item[ BattleItemNo ].target ){

  00710	69 05 00 00 00
	00 7c 01 00 00	 imul	 eax, DWORD PTR ?BattleItemNo@@3HA, 380 ; BattleItemNo
  0071a	0f bf 88 a4 01
	00 00		 movsx	 ecx, WORD PTR ?pc@@3UPC@@A[eax+420]
  00721	89 8d 18 fe ff
	ff		 mov	 DWORD PTR tv277[ebp], ecx
  00727	83 bd 18 fe ff
	ff 07		 cmp	 DWORD PTR tv277[ebp], 7
  0072e	0f 87 11 02 00
	00		 ja	 $LN6@BattleTarg
  00734	8b 95 18 fe ff
	ff		 mov	 edx, DWORD PTR tv277[ebp]
  0073a	ff 24 95 00 00
	00 00		 jmp	 DWORD PTR $LN135@BattleTarg[edx*4]
$LN68@BattleTarg:

; 2942 : 				case ITEM_TARGET_MYSELF:
; 2943 : 				case ITEM_TARGET_OTHER:
; 2944 : 				case ITEM_TARGET_OTHERWITHOUTMYSELF:
; 2945 : 				case ITEM_TARGET_WITHOUTMYSELFANDPET:
; 2946 : 					sprintf( moji,"I|%X|%X", BattleItemNo, targetNo );

  00741	8b 85 ec fe ff
	ff		 mov	 eax, DWORD PTR _targetNo$[ebp]
  00747	50		 push	 eax
  00748	8b 0d 00 00 00
	00		 mov	 ecx, DWORD PTR ?BattleItemNo@@3HA ; BattleItemNo
  0074e	51		 push	 ecx
  0074f	68 00 00 00 00	 push	 OFFSET ??_C@_07LFMIBPPD@I?$HM?$CFX?$HM?$CFX?$AA@
  00754	8d 95 f8 fe ff
	ff		 lea	 edx, DWORD PTR _moji$[ebp]
  0075a	52		 push	 edx
  0075b	e8 00 00 00 00	 call	 _sprintf
  00760	83 c4 10	 add	 esp, 16			; 00000010H

; 2947 : 
; 2948 : 					if( bNewServer)

  00763	83 3d 00 00 00
	00 00		 cmp	 DWORD PTR ?bNewServer@@3HA, 0 ; bNewServer
  0076a	74 18		 je	 SHORT $LN69@BattleTarg

; 2949 : 						lssproto_B_send( sockfd, moji );

  0076c	8d 85 f8 fe ff
	ff		 lea	 eax, DWORD PTR _moji$[ebp]
  00772	50		 push	 eax
  00773	8b 0d 00 00 00
	00		 mov	 ecx, DWORD PTR ?sockfd@@3IA ; sockfd
  00779	51		 push	 ecx
  0077a	e8 00 00 00 00	 call	 ?lssproto_B_send@@YAXHPAD@Z ; lssproto_B_send
  0077f	83 c4 08	 add	 esp, 8

; 2950 : 					else

  00782	eb 16		 jmp	 SHORT $LN70@BattleTarg
$LN69@BattleTarg:

; 2951 : 						old_lssproto_B_send( sockfd, moji );

  00784	8d 85 f8 fe ff
	ff		 lea	 eax, DWORD PTR _moji$[ebp]
  0078a	50		 push	 eax
  0078b	8b 0d 00 00 00
	00		 mov	 ecx, DWORD PTR ?sockfd@@3IA ; sockfd
  00791	51		 push	 ecx
  00792	e8 00 00 00 00	 call	 ?old_lssproto_B_send@@YAXHPAD@Z ; old_lssproto_B_send
  00797	83 c4 08	 add	 esp, 8
$LN70@BattleTarg:

; 2952 : 
; 2953 : 					play_se( 217, 320, 240 );

  0079a	68 f0 00 00 00	 push	 240			; 000000f0H
  0079f	68 40 01 00 00	 push	 320			; 00000140H
  007a4	68 d9 00 00 00	 push	 217			; 000000d9H
  007a9	e8 00 00 00 00	 call	 ?play_se@@YAHHHH@Z	; play_se
  007ae	83 c4 0c	 add	 esp, 12			; 0000000cH

; 2954 : 					break;

  007b1	e9 8f 01 00 00	 jmp	 $LN6@BattleTarg
$LN71@BattleTarg:

; 2955 : 					
; 2956 : 				case ITEM_TARGET_ALLMYSIDE:
; 2957 : 
; 2958 : 					if( BattleMyNo < 10 ) no = 20;

  007b6	83 3d 00 00 00
	00 0a		 cmp	 DWORD PTR ?BattleMyNo@@3HA, 10 ; BattleMyNo, 0000000aH
  007bd	7d 0c		 jge	 SHORT $LN72@BattleTarg
  007bf	c7 85 e0 fe ff
	ff 14 00 00 00	 mov	 DWORD PTR _no$[ebp], 20	; 00000014H
  007c9	eb 0a		 jmp	 SHORT $LN73@BattleTarg
$LN72@BattleTarg:

; 2959 : 					else no = 21;

  007cb	c7 85 e0 fe ff
	ff 15 00 00 00	 mov	 DWORD PTR _no$[ebp], 21	; 00000015H
$LN73@BattleTarg:

; 2960 : 
; 2961 : 					sprintf( moji,"I|%X|%X", BattleItemNo, no );

  007d5	8b 85 e0 fe ff
	ff		 mov	 eax, DWORD PTR _no$[ebp]
  007db	50		 push	 eax
  007dc	8b 0d 00 00 00
	00		 mov	 ecx, DWORD PTR ?BattleItemNo@@3HA ; BattleItemNo
  007e2	51		 push	 ecx
  007e3	68 00 00 00 00	 push	 OFFSET ??_C@_07LFMIBPPD@I?$HM?$CFX?$HM?$CFX?$AA@
  007e8	8d 95 f8 fe ff
	ff		 lea	 edx, DWORD PTR _moji$[ebp]
  007ee	52		 push	 edx
  007ef	e8 00 00 00 00	 call	 _sprintf
  007f4	83 c4 10	 add	 esp, 16			; 00000010H

; 2962 : 
; 2963 : 					if( bNewServer)

  007f7	83 3d 00 00 00
	00 00		 cmp	 DWORD PTR ?bNewServer@@3HA, 0 ; bNewServer
  007fe	74 18		 je	 SHORT $LN74@BattleTarg

; 2964 : 						lssproto_B_send( sockfd, moji );

  00800	8d 85 f8 fe ff
	ff		 lea	 eax, DWORD PTR _moji$[ebp]
  00806	50		 push	 eax
  00807	8b 0d 00 00 00
	00		 mov	 ecx, DWORD PTR ?sockfd@@3IA ; sockfd
  0080d	51		 push	 ecx
  0080e	e8 00 00 00 00	 call	 ?lssproto_B_send@@YAXHPAD@Z ; lssproto_B_send
  00813	83 c4 08	 add	 esp, 8

; 2965 : 					else

  00816	eb 16		 jmp	 SHORT $LN75@BattleTarg
$LN74@BattleTarg:

; 2966 : 						old_lssproto_B_send( sockfd, moji );

  00818	8d 85 f8 fe ff
	ff		 lea	 eax, DWORD PTR _moji$[ebp]
  0081e	50		 push	 eax
  0081f	8b 0d 00 00 00
	00		 mov	 ecx, DWORD PTR ?sockfd@@3IA ; sockfd
  00825	51		 push	 ecx
  00826	e8 00 00 00 00	 call	 ?old_lssproto_B_send@@YAXHPAD@Z ; old_lssproto_B_send
  0082b	83 c4 08	 add	 esp, 8
$LN75@BattleTarg:

; 2967 : 
; 2968 : 					play_se( 217, 320, 240 );

  0082e	68 f0 00 00 00	 push	 240			; 000000f0H
  00833	68 40 01 00 00	 push	 320			; 00000140H
  00838	68 d9 00 00 00	 push	 217			; 000000d9H
  0083d	e8 00 00 00 00	 call	 ?play_se@@YAHHHH@Z	; play_se
  00842	83 c4 0c	 add	 esp, 12			; 0000000cH

; 2969 : 					break;

  00845	e9 fb 00 00 00	 jmp	 $LN6@BattleTarg
$LN76@BattleTarg:

; 2970 : 					
; 2971 : 				case ITEM_TARGET_ALLOTHERSIDE:
; 2972 : 
; 2973 : 					if( BattleMyNo < 10 ) no = 21;

  0084a	83 3d 00 00 00
	00 0a		 cmp	 DWORD PTR ?BattleMyNo@@3HA, 10 ; BattleMyNo, 0000000aH
  00851	7d 0c		 jge	 SHORT $LN77@BattleTarg
  00853	c7 85 e0 fe ff
	ff 15 00 00 00	 mov	 DWORD PTR _no$[ebp], 21	; 00000015H
  0085d	eb 0a		 jmp	 SHORT $LN78@BattleTarg
$LN77@BattleTarg:

; 2974 : 					else no = 20;

  0085f	c7 85 e0 fe ff
	ff 14 00 00 00	 mov	 DWORD PTR _no$[ebp], 20	; 00000014H
$LN78@BattleTarg:

; 2975 : 
; 2976 : 					sprintf( moji,"I|%X|%X", BattleItemNo, no );

  00869	8b 85 e0 fe ff
	ff		 mov	 eax, DWORD PTR _no$[ebp]
  0086f	50		 push	 eax
  00870	8b 0d 00 00 00
	00		 mov	 ecx, DWORD PTR ?BattleItemNo@@3HA ; BattleItemNo
  00876	51		 push	 ecx
  00877	68 00 00 00 00	 push	 OFFSET ??_C@_07LFMIBPPD@I?$HM?$CFX?$HM?$CFX?$AA@
  0087c	8d 95 f8 fe ff
	ff		 lea	 edx, DWORD PTR _moji$[ebp]
  00882	52		 push	 edx
  00883	e8 00 00 00 00	 call	 _sprintf
  00888	83 c4 10	 add	 esp, 16			; 00000010H

; 2977 : 
; 2978 : 					if( bNewServer)

  0088b	83 3d 00 00 00
	00 00		 cmp	 DWORD PTR ?bNewServer@@3HA, 0 ; bNewServer
  00892	74 18		 je	 SHORT $LN79@BattleTarg

; 2979 : 						lssproto_B_send( sockfd, moji );

  00894	8d 85 f8 fe ff
	ff		 lea	 eax, DWORD PTR _moji$[ebp]
  0089a	50		 push	 eax
  0089b	8b 0d 00 00 00
	00		 mov	 ecx, DWORD PTR ?sockfd@@3IA ; sockfd
  008a1	51		 push	 ecx
  008a2	e8 00 00 00 00	 call	 ?lssproto_B_send@@YAXHPAD@Z ; lssproto_B_send
  008a7	83 c4 08	 add	 esp, 8

; 2980 : 					else

  008aa	eb 16		 jmp	 SHORT $LN80@BattleTarg
$LN79@BattleTarg:

; 2981 : 						old_lssproto_B_send( sockfd, moji );

  008ac	8d 85 f8 fe ff
	ff		 lea	 eax, DWORD PTR _moji$[ebp]
  008b2	50		 push	 eax
  008b3	8b 0d 00 00 00
	00		 mov	 ecx, DWORD PTR ?sockfd@@3IA ; sockfd
  008b9	51		 push	 ecx
  008ba	e8 00 00 00 00	 call	 ?old_lssproto_B_send@@YAXHPAD@Z ; old_lssproto_B_send
  008bf	83 c4 08	 add	 esp, 8
$LN80@BattleTarg:

; 2982 : 
; 2983 : 					play_se( 217, 320, 240 );

  008c2	68 f0 00 00 00	 push	 240			; 000000f0H
  008c7	68 40 01 00 00	 push	 320			; 00000140H
  008cc	68 d9 00 00 00	 push	 217			; 000000d9H
  008d1	e8 00 00 00 00	 call	 ?play_se@@YAHHHH@Z	; play_se
  008d6	83 c4 0c	 add	 esp, 12			; 0000000cH

; 2984 : 					break;

  008d9	eb 6a		 jmp	 SHORT $LN6@BattleTarg
$LN81@BattleTarg:

; 2985 : 					
; 2986 : 				case ITEM_TARGET_ALL:
; 2987 : 
; 2988 : 					sprintf( moji,"I|%X|%X", BattleItemNo, 22 );

  008db	6a 16		 push	 22			; 00000016H
  008dd	a1 00 00 00 00	 mov	 eax, DWORD PTR ?BattleItemNo@@3HA ; BattleItemNo
  008e2	50		 push	 eax
  008e3	68 00 00 00 00	 push	 OFFSET ??_C@_07LFMIBPPD@I?$HM?$CFX?$HM?$CFX?$AA@
  008e8	8d 8d f8 fe ff
	ff		 lea	 ecx, DWORD PTR _moji$[ebp]
  008ee	51		 push	 ecx
  008ef	e8 00 00 00 00	 call	 _sprintf
  008f4	83 c4 10	 add	 esp, 16			; 00000010H

; 2989 : 
; 2990 : 					if( bNewServer)

  008f7	83 3d 00 00 00
	00 00		 cmp	 DWORD PTR ?bNewServer@@3HA, 0 ; bNewServer
  008fe	74 18		 je	 SHORT $LN82@BattleTarg

; 2991 : 						lssproto_B_send( sockfd, moji );

  00900	8d 85 f8 fe ff
	ff		 lea	 eax, DWORD PTR _moji$[ebp]
  00906	50		 push	 eax
  00907	8b 0d 00 00 00
	00		 mov	 ecx, DWORD PTR ?sockfd@@3IA ; sockfd
  0090d	51		 push	 ecx
  0090e	e8 00 00 00 00	 call	 ?lssproto_B_send@@YAXHPAD@Z ; lssproto_B_send
  00913	83 c4 08	 add	 esp, 8

; 2992 : 					else

  00916	eb 16		 jmp	 SHORT $LN83@BattleTarg
$LN82@BattleTarg:

; 2993 : 						old_lssproto_B_send( sockfd, moji );

  00918	8d 85 f8 fe ff
	ff		 lea	 eax, DWORD PTR _moji$[ebp]
  0091e	50		 push	 eax
  0091f	8b 0d 00 00 00
	00		 mov	 ecx, DWORD PTR ?sockfd@@3IA ; sockfd
  00925	51		 push	 ecx
  00926	e8 00 00 00 00	 call	 ?old_lssproto_B_send@@YAXHPAD@Z ; old_lssproto_B_send
  0092b	83 c4 08	 add	 esp, 8
$LN83@BattleTarg:

; 2994 : 
; 2995 : 					play_se( 217, 320, 240 );

  0092e	68 f0 00 00 00	 push	 240			; 000000f0H
  00933	68 40 01 00 00	 push	 320			; 00000140H
  00938	68 d9 00 00 00	 push	 217			; 000000d9H
  0093d	e8 00 00 00 00	 call	 ?play_se@@YAHHHH@Z	; play_se
  00942	83 c4 0c	 add	 esp, 12			; 0000000cH
$LN6@BattleTarg:

; 2996 : 					break;
; 2997 : 				}
; 2998 : 				break;

  00945	e9 2c 06 00 00	 jmp	 $LN2@BattleTarg
$LN84@BattleTarg:

; 2999 : 
; 3000 : 				//Change note 宠技选择对象后送出封包
; 3001 : 			case BATTLE_WAZA:
; 3002 : 				switch( petSkill[ battlePetNoBak ][ BattleWazaNo ].target ){

  0094a	69 05 00 00 00
	00 e6 02 00 00	 imul	 eax, DWORD PTR ?battlePetNoBak@@3HA, 742 ; battlePetNoBak
  00954	6b 0d 00 00 00
	00 6a		 imul	 ecx, DWORD PTR ?BattleWazaNo@@3HA, 106 ; BattleWazaNo
  0095b	0f bf 94 08 06
	00 00 00	 movsx	 edx, WORD PTR ?petSkill@@3PAY06UPET_SKILL@@A[eax+ecx+6]
  00963	89 95 18 fe ff
	ff		 mov	 DWORD PTR tv335[ebp], edx
  00969	83 bd 18 fe ff
	ff 0c		 cmp	 DWORD PTR tv335[ebp], 12 ; 0000000cH
  00970	0f 87 7c 03 00
	00		 ja	 $LN8@BattleTarg
  00976	8b 85 18 fe ff
	ff		 mov	 eax, DWORD PTR tv335[ebp]
  0097c	0f b6 88 00 00
	00 00		 movzx	 ecx, BYTE PTR $LN128@BattleTarg[eax]
  00983	ff 24 8d 00 00
	00 00		 jmp	 DWORD PTR $LN136@BattleTarg[ecx*4]
$LN85@BattleTarg:

; 3003 : 				case PETSKILL_TARGET_MYSELF:
; 3004 : 				case PETSKILL_TARGET_OTHER:
; 3005 : 				case PETSKILL_TARGET_OTHERWITHOUTMYSELF:
; 3006 : 				case PETSKILL_TARGET_WITHOUTMYSELFANDPET:
; 3007 : #ifdef _BATTLESKILL
; 3008 : 				case PETSKILL_TARGER_DEATH:
; 3009 : #endif
; 3010 : 					sprintf( moji,"W|%X|%X", BattleWazaNo, targetNo );

  0098a	8b 85 ec fe ff
	ff		 mov	 eax, DWORD PTR _targetNo$[ebp]
  00990	50		 push	 eax
  00991	8b 0d 00 00 00
	00		 mov	 ecx, DWORD PTR ?BattleWazaNo@@3HA ; BattleWazaNo
  00997	51		 push	 ecx
  00998	68 00 00 00 00	 push	 OFFSET ??_C@_07NMPJDMOK@W?$HM?$CFX?$HM?$CFX?$AA@
  0099d	8d 95 f8 fe ff
	ff		 lea	 edx, DWORD PTR _moji$[ebp]
  009a3	52		 push	 edx
  009a4	e8 00 00 00 00	 call	 _sprintf
  009a9	83 c4 10	 add	 esp, 16			; 00000010H

; 3011 : 
; 3012 : 					if( bNewServer)

  009ac	83 3d 00 00 00
	00 00		 cmp	 DWORD PTR ?bNewServer@@3HA, 0 ; bNewServer
  009b3	74 18		 je	 SHORT $LN86@BattleTarg

; 3013 : 						lssproto_B_send( sockfd, moji );

  009b5	8d 85 f8 fe ff
	ff		 lea	 eax, DWORD PTR _moji$[ebp]
  009bb	50		 push	 eax
  009bc	8b 0d 00 00 00
	00		 mov	 ecx, DWORD PTR ?sockfd@@3IA ; sockfd
  009c2	51		 push	 ecx
  009c3	e8 00 00 00 00	 call	 ?lssproto_B_send@@YAXHPAD@Z ; lssproto_B_send
  009c8	83 c4 08	 add	 esp, 8

; 3014 : 					else

  009cb	eb 16		 jmp	 SHORT $LN87@BattleTarg
$LN86@BattleTarg:

; 3015 : 						old_lssproto_B_send( sockfd, moji );

  009cd	8d 85 f8 fe ff
	ff		 lea	 eax, DWORD PTR _moji$[ebp]
  009d3	50		 push	 eax
  009d4	8b 0d 00 00 00
	00		 mov	 ecx, DWORD PTR ?sockfd@@3IA ; sockfd
  009da	51		 push	 ecx
  009db	e8 00 00 00 00	 call	 ?old_lssproto_B_send@@YAXHPAD@Z ; old_lssproto_B_send
  009e0	83 c4 08	 add	 esp, 8
$LN87@BattleTarg:

; 3016 : 
; 3017 : 					play_se( 217, 320, 240 );

  009e3	68 f0 00 00 00	 push	 240			; 000000f0H
  009e8	68 40 01 00 00	 push	 320			; 00000140H
  009ed	68 d9 00 00 00	 push	 217			; 000000d9H
  009f2	e8 00 00 00 00	 call	 ?play_se@@YAHHHH@Z	; play_se
  009f7	83 c4 0c	 add	 esp, 12			; 0000000cH

; 3018 : 					break;

  009fa	e9 f3 02 00 00	 jmp	 $LN8@BattleTarg
$LN88@BattleTarg:

; 3019 : 					
; 3020 : 				case PETSKILL_TARGET_ALLMYSIDE:
; 3021 : 
; 3022 : 					if( BattleMyNo < 10 ) no = 20;

  009ff	83 3d 00 00 00
	00 0a		 cmp	 DWORD PTR ?BattleMyNo@@3HA, 10 ; BattleMyNo, 0000000aH
  00a06	7d 0c		 jge	 SHORT $LN89@BattleTarg
  00a08	c7 85 e0 fe ff
	ff 14 00 00 00	 mov	 DWORD PTR _no$[ebp], 20	; 00000014H
  00a12	eb 0a		 jmp	 SHORT $LN90@BattleTarg
$LN89@BattleTarg:

; 3023 : 					else no = 21;

  00a14	c7 85 e0 fe ff
	ff 15 00 00 00	 mov	 DWORD PTR _no$[ebp], 21	; 00000015H
$LN90@BattleTarg:

; 3024 : 
; 3025 : 					sprintf( moji,"W|%X|%X", BattleWazaNo, no );

  00a1e	8b 85 e0 fe ff
	ff		 mov	 eax, DWORD PTR _no$[ebp]
  00a24	50		 push	 eax
  00a25	8b 0d 00 00 00
	00		 mov	 ecx, DWORD PTR ?BattleWazaNo@@3HA ; BattleWazaNo
  00a2b	51		 push	 ecx
  00a2c	68 00 00 00 00	 push	 OFFSET ??_C@_07NMPJDMOK@W?$HM?$CFX?$HM?$CFX?$AA@
  00a31	8d 95 f8 fe ff
	ff		 lea	 edx, DWORD PTR _moji$[ebp]
  00a37	52		 push	 edx
  00a38	e8 00 00 00 00	 call	 _sprintf
  00a3d	83 c4 10	 add	 esp, 16			; 00000010H

; 3026 : 
; 3027 : 					if( bNewServer)

  00a40	83 3d 00 00 00
	00 00		 cmp	 DWORD PTR ?bNewServer@@3HA, 0 ; bNewServer
  00a47	74 18		 je	 SHORT $LN91@BattleTarg

; 3028 : 						lssproto_B_send( sockfd, moji );

  00a49	8d 85 f8 fe ff
	ff		 lea	 eax, DWORD PTR _moji$[ebp]
  00a4f	50		 push	 eax
  00a50	8b 0d 00 00 00
	00		 mov	 ecx, DWORD PTR ?sockfd@@3IA ; sockfd
  00a56	51		 push	 ecx
  00a57	e8 00 00 00 00	 call	 ?lssproto_B_send@@YAXHPAD@Z ; lssproto_B_send
  00a5c	83 c4 08	 add	 esp, 8

; 3029 : 					else

  00a5f	eb 16		 jmp	 SHORT $LN92@BattleTarg
$LN91@BattleTarg:

; 3030 : 						old_lssproto_B_send( sockfd, moji );

  00a61	8d 85 f8 fe ff
	ff		 lea	 eax, DWORD PTR _moji$[ebp]
  00a67	50		 push	 eax
  00a68	8b 0d 00 00 00
	00		 mov	 ecx, DWORD PTR ?sockfd@@3IA ; sockfd
  00a6e	51		 push	 ecx
  00a6f	e8 00 00 00 00	 call	 ?old_lssproto_B_send@@YAXHPAD@Z ; old_lssproto_B_send
  00a74	83 c4 08	 add	 esp, 8
$LN92@BattleTarg:

; 3031 : 
; 3032 : 					play_se( 217, 320, 240 );

  00a77	68 f0 00 00 00	 push	 240			; 000000f0H
  00a7c	68 40 01 00 00	 push	 320			; 00000140H
  00a81	68 d9 00 00 00	 push	 217			; 000000d9H
  00a86	e8 00 00 00 00	 call	 ?play_se@@YAHHHH@Z	; play_se
  00a8b	83 c4 0c	 add	 esp, 12			; 0000000cH

; 3033 : 					break;

  00a8e	e9 5f 02 00 00	 jmp	 $LN8@BattleTarg
$LN93@BattleTarg:

; 3034 : 					
; 3035 : 				case PETSKILL_TARGET_ALLOTHERSIDE:
; 3036 : 				
; 3037 : 					if( BattleMyNo < 10 ) no = 21;

  00a93	83 3d 00 00 00
	00 0a		 cmp	 DWORD PTR ?BattleMyNo@@3HA, 10 ; BattleMyNo, 0000000aH
  00a9a	7d 0c		 jge	 SHORT $LN94@BattleTarg
  00a9c	c7 85 e0 fe ff
	ff 15 00 00 00	 mov	 DWORD PTR _no$[ebp], 21	; 00000015H
  00aa6	eb 0a		 jmp	 SHORT $LN95@BattleTarg
$LN94@BattleTarg:

; 3038 : 					else no = 20;

  00aa8	c7 85 e0 fe ff
	ff 14 00 00 00	 mov	 DWORD PTR _no$[ebp], 20	; 00000014H
$LN95@BattleTarg:

; 3039 : 
; 3040 : 					sprintf( moji,"W|%X|%X", BattleWazaNo, no );

  00ab2	8b 85 e0 fe ff
	ff		 mov	 eax, DWORD PTR _no$[ebp]
  00ab8	50		 push	 eax
  00ab9	8b 0d 00 00 00
	00		 mov	 ecx, DWORD PTR ?BattleWazaNo@@3HA ; BattleWazaNo
  00abf	51		 push	 ecx
  00ac0	68 00 00 00 00	 push	 OFFSET ??_C@_07NMPJDMOK@W?$HM?$CFX?$HM?$CFX?$AA@
  00ac5	8d 95 f8 fe ff
	ff		 lea	 edx, DWORD PTR _moji$[ebp]
  00acb	52		 push	 edx
  00acc	e8 00 00 00 00	 call	 _sprintf
  00ad1	83 c4 10	 add	 esp, 16			; 00000010H

; 3041 : 
; 3042 : 					if( bNewServer)

  00ad4	83 3d 00 00 00
	00 00		 cmp	 DWORD PTR ?bNewServer@@3HA, 0 ; bNewServer
  00adb	74 18		 je	 SHORT $LN96@BattleTarg

; 3043 : 						lssproto_B_send( sockfd, moji );

  00add	8d 85 f8 fe ff
	ff		 lea	 eax, DWORD PTR _moji$[ebp]
  00ae3	50		 push	 eax
  00ae4	8b 0d 00 00 00
	00		 mov	 ecx, DWORD PTR ?sockfd@@3IA ; sockfd
  00aea	51		 push	 ecx
  00aeb	e8 00 00 00 00	 call	 ?lssproto_B_send@@YAXHPAD@Z ; lssproto_B_send
  00af0	83 c4 08	 add	 esp, 8

; 3044 : 					else

  00af3	eb 16		 jmp	 SHORT $LN97@BattleTarg
$LN96@BattleTarg:

; 3045 : 						old_lssproto_B_send( sockfd, moji );

  00af5	8d 85 f8 fe ff
	ff		 lea	 eax, DWORD PTR _moji$[ebp]
  00afb	50		 push	 eax
  00afc	8b 0d 00 00 00
	00		 mov	 ecx, DWORD PTR ?sockfd@@3IA ; sockfd
  00b02	51		 push	 ecx
  00b03	e8 00 00 00 00	 call	 ?old_lssproto_B_send@@YAXHPAD@Z ; old_lssproto_B_send
  00b08	83 c4 08	 add	 esp, 8
$LN97@BattleTarg:

; 3046 : 
; 3047 : 					play_se( 217, 320, 240 );

  00b0b	68 f0 00 00 00	 push	 240			; 000000f0H
  00b10	68 40 01 00 00	 push	 320			; 00000140H
  00b15	68 d9 00 00 00	 push	 217			; 000000d9H
  00b1a	e8 00 00 00 00	 call	 ?play_se@@YAHHHH@Z	; play_se
  00b1f	83 c4 0c	 add	 esp, 12			; 0000000cH

; 3048 : 					break;

  00b22	e9 cb 01 00 00	 jmp	 $LN8@BattleTarg
$LN98@BattleTarg:

; 3049 : 					
; 3050 : 				case PETSKILL_TARGET_ALL:
; 3051 : 
; 3052 : 					sprintf( moji,"W|%X|%X", BattleWazaNo, 22 );

  00b27	6a 16		 push	 22			; 00000016H
  00b29	a1 00 00 00 00	 mov	 eax, DWORD PTR ?BattleWazaNo@@3HA ; BattleWazaNo
  00b2e	50		 push	 eax
  00b2f	68 00 00 00 00	 push	 OFFSET ??_C@_07NMPJDMOK@W?$HM?$CFX?$HM?$CFX?$AA@
  00b34	8d 8d f8 fe ff
	ff		 lea	 ecx, DWORD PTR _moji$[ebp]
  00b3a	51		 push	 ecx
  00b3b	e8 00 00 00 00	 call	 _sprintf
  00b40	83 c4 10	 add	 esp, 16			; 00000010H

; 3053 : 
; 3054 : 					if( bNewServer)

  00b43	83 3d 00 00 00
	00 00		 cmp	 DWORD PTR ?bNewServer@@3HA, 0 ; bNewServer
  00b4a	74 18		 je	 SHORT $LN99@BattleTarg

; 3055 : 						lssproto_B_send( sockfd, moji );

  00b4c	8d 85 f8 fe ff
	ff		 lea	 eax, DWORD PTR _moji$[ebp]
  00b52	50		 push	 eax
  00b53	8b 0d 00 00 00
	00		 mov	 ecx, DWORD PTR ?sockfd@@3IA ; sockfd
  00b59	51		 push	 ecx
  00b5a	e8 00 00 00 00	 call	 ?lssproto_B_send@@YAXHPAD@Z ; lssproto_B_send
  00b5f	83 c4 08	 add	 esp, 8

; 3056 : 					else

  00b62	eb 16		 jmp	 SHORT $LN100@BattleTarg
$LN99@BattleTarg:

; 3057 : 						old_lssproto_B_send( sockfd, moji );

  00b64	8d 85 f8 fe ff
	ff		 lea	 eax, DWORD PTR _moji$[ebp]
  00b6a	50		 push	 eax
  00b6b	8b 0d 00 00 00
	00		 mov	 ecx, DWORD PTR ?sockfd@@3IA ; sockfd
  00b71	51		 push	 ecx
  00b72	e8 00 00 00 00	 call	 ?old_lssproto_B_send@@YAXHPAD@Z ; old_lssproto_B_send
  00b77	83 c4 08	 add	 esp, 8
$LN100@BattleTarg:

; 3058 : 
; 3059 : 					play_se( 217, 320, 240 );

  00b7a	68 f0 00 00 00	 push	 240			; 000000f0H
  00b7f	68 40 01 00 00	 push	 320			; 00000140H
  00b84	68 d9 00 00 00	 push	 217			; 000000d9H
  00b89	e8 00 00 00 00	 call	 ?play_se@@YAHHHH@Z	; play_se
  00b8e	83 c4 0c	 add	 esp, 12			; 0000000cH

; 3060 : 					break;

  00b91	e9 5c 01 00 00	 jmp	 $LN8@BattleTarg
$LN101@BattleTarg:

; 3061 : #ifdef _BATTLESKILL
; 3062 : 				case PETSKILL_TARGET_ONE_ROW:
; 3063 : #endif
; 3064 : #ifdef _SKILL_ADDBARRIER
; 3065 : 				case PETSKILL_TARGET_ONE_ROW_ALL:
; 3066 : #endif
; 3067 : 					if ( targetNo >= 0 && targetNo < 5 ) no = 26 ; 

  00b96	83 bd ec fe ff
	ff 00		 cmp	 DWORD PTR _targetNo$[ebp], 0
  00b9d	7c 13		 jl	 SHORT $LN102@BattleTarg
  00b9f	83 bd ec fe ff
	ff 05		 cmp	 DWORD PTR _targetNo$[ebp], 5
  00ba6	7d 0a		 jge	 SHORT $LN102@BattleTarg
  00ba8	c7 85 e0 fe ff
	ff 1a 00 00 00	 mov	 DWORD PTR _no$[ebp], 26	; 0000001aH
$LN102@BattleTarg:

; 3068 : 					if ( targetNo >= 5 && targetNo < 10 ) no = 25 ; 

  00bb2	83 bd ec fe ff
	ff 05		 cmp	 DWORD PTR _targetNo$[ebp], 5
  00bb9	7c 13		 jl	 SHORT $LN103@BattleTarg
  00bbb	83 bd ec fe ff
	ff 0a		 cmp	 DWORD PTR _targetNo$[ebp], 10 ; 0000000aH
  00bc2	7d 0a		 jge	 SHORT $LN103@BattleTarg
  00bc4	c7 85 e0 fe ff
	ff 19 00 00 00	 mov	 DWORD PTR _no$[ebp], 25	; 00000019H
$LN103@BattleTarg:

; 3069 : 					if ( targetNo >= 10 && targetNo < 15 ) no = 23 ; 

  00bce	83 bd ec fe ff
	ff 0a		 cmp	 DWORD PTR _targetNo$[ebp], 10 ; 0000000aH
  00bd5	7c 13		 jl	 SHORT $LN104@BattleTarg
  00bd7	83 bd ec fe ff
	ff 0f		 cmp	 DWORD PTR _targetNo$[ebp], 15 ; 0000000fH
  00bde	7d 0a		 jge	 SHORT $LN104@BattleTarg
  00be0	c7 85 e0 fe ff
	ff 17 00 00 00	 mov	 DWORD PTR _no$[ebp], 23	; 00000017H
$LN104@BattleTarg:

; 3070 : 					if ( targetNo >= 15 && targetNo < 20 ) no = 24 ; 

  00bea	83 bd ec fe ff
	ff 0f		 cmp	 DWORD PTR _targetNo$[ebp], 15 ; 0000000fH
  00bf1	7c 13		 jl	 SHORT $LN105@BattleTarg
  00bf3	83 bd ec fe ff
	ff 14		 cmp	 DWORD PTR _targetNo$[ebp], 20 ; 00000014H
  00bfa	7d 0a		 jge	 SHORT $LN105@BattleTarg
  00bfc	c7 85 e0 fe ff
	ff 18 00 00 00	 mov	 DWORD PTR _no$[ebp], 24	; 00000018H
$LN105@BattleTarg:

; 3071 : 					sprintf( moji,"W|%X|%X", BattleWazaNo, no );

  00c06	8b 85 e0 fe ff
	ff		 mov	 eax, DWORD PTR _no$[ebp]
  00c0c	50		 push	 eax
  00c0d	8b 0d 00 00 00
	00		 mov	 ecx, DWORD PTR ?BattleWazaNo@@3HA ; BattleWazaNo
  00c13	51		 push	 ecx
  00c14	68 00 00 00 00	 push	 OFFSET ??_C@_07NMPJDMOK@W?$HM?$CFX?$HM?$CFX?$AA@
  00c19	8d 95 f8 fe ff
	ff		 lea	 edx, DWORD PTR _moji$[ebp]
  00c1f	52		 push	 edx
  00c20	e8 00 00 00 00	 call	 _sprintf
  00c25	83 c4 10	 add	 esp, 16			; 00000010H

; 3072 : 					lssproto_B_send( sockfd, moji );

  00c28	8d 85 f8 fe ff
	ff		 lea	 eax, DWORD PTR _moji$[ebp]
  00c2e	50		 push	 eax
  00c2f	8b 0d 00 00 00
	00		 mov	 ecx, DWORD PTR ?sockfd@@3IA ; sockfd
  00c35	51		 push	 ecx
  00c36	e8 00 00 00 00	 call	 ?lssproto_B_send@@YAXHPAD@Z ; lssproto_B_send
  00c3b	83 c4 08	 add	 esp, 8

; 3073 : 					play_se( 217, 320, 240 );

  00c3e	68 f0 00 00 00	 push	 240			; 000000f0H
  00c43	68 40 01 00 00	 push	 320			; 00000140H
  00c48	68 d9 00 00 00	 push	 217			; 000000d9H
  00c4d	e8 00 00 00 00	 call	 ?play_se@@YAHHHH@Z	; play_se
  00c52	83 c4 0c	 add	 esp, 12			; 0000000cH

; 3074 : 					break;

  00c55	e9 98 00 00 00	 jmp	 $LN8@BattleTarg
$LN106@BattleTarg:

; 3075 : 				case PETSKILL_TARGET_WHOLEOTHERSIDE:
; 3076 : 					if (targetNo >= 0 && targetNo < 10)

  00c5a	83 bd ec fe ff
	ff 00		 cmp	 DWORD PTR _targetNo$[ebp], 0
  00c61	7c 15		 jl	 SHORT $LN107@BattleTarg
  00c63	83 bd ec fe ff
	ff 0a		 cmp	 DWORD PTR _targetNo$[ebp], 10 ; 0000000aH
  00c6a	7d 0c		 jge	 SHORT $LN107@BattleTarg

; 3077 : 						no = 20;

  00c6c	c7 85 e0 fe ff
	ff 14 00 00 00	 mov	 DWORD PTR _no$[ebp], 20	; 00000014H

; 3078 : 					else

  00c76	eb 0a		 jmp	 SHORT $LN108@BattleTarg
$LN107@BattleTarg:

; 3079 : 						no = 21;

  00c78	c7 85 e0 fe ff
	ff 15 00 00 00	 mov	 DWORD PTR _no$[ebp], 21	; 00000015H
$LN108@BattleTarg:

; 3080 : 					sprintf(moji, "W|%X|%X", BattleWazaNo, no);

  00c82	8b 85 e0 fe ff
	ff		 mov	 eax, DWORD PTR _no$[ebp]
  00c88	50		 push	 eax
  00c89	8b 0d 00 00 00
	00		 mov	 ecx, DWORD PTR ?BattleWazaNo@@3HA ; BattleWazaNo
  00c8f	51		 push	 ecx
  00c90	68 00 00 00 00	 push	 OFFSET ??_C@_07NMPJDMOK@W?$HM?$CFX?$HM?$CFX?$AA@
  00c95	8d 95 f8 fe ff
	ff		 lea	 edx, DWORD PTR _moji$[ebp]
  00c9b	52		 push	 edx
  00c9c	e8 00 00 00 00	 call	 _sprintf
  00ca1	83 c4 10	 add	 esp, 16			; 00000010H

; 3081 : 
; 3082 : 					if (bNewServer)

  00ca4	83 3d 00 00 00
	00 00		 cmp	 DWORD PTR ?bNewServer@@3HA, 0 ; bNewServer
  00cab	74 18		 je	 SHORT $LN109@BattleTarg

; 3083 : 						lssproto_B_send(sockfd, moji);

  00cad	8d 85 f8 fe ff
	ff		 lea	 eax, DWORD PTR _moji$[ebp]
  00cb3	50		 push	 eax
  00cb4	8b 0d 00 00 00
	00		 mov	 ecx, DWORD PTR ?sockfd@@3IA ; sockfd
  00cba	51		 push	 ecx
  00cbb	e8 00 00 00 00	 call	 ?lssproto_B_send@@YAXHPAD@Z ; lssproto_B_send
  00cc0	83 c4 08	 add	 esp, 8

; 3084 : 					else

  00cc3	eb 16		 jmp	 SHORT $LN110@BattleTarg
$LN109@BattleTarg:

; 3085 : 						old_lssproto_B_send(sockfd, moji);

  00cc5	8d 85 f8 fe ff
	ff		 lea	 eax, DWORD PTR _moji$[ebp]
  00ccb	50		 push	 eax
  00ccc	8b 0d 00 00 00
	00		 mov	 ecx, DWORD PTR ?sockfd@@3IA ; sockfd
  00cd2	51		 push	 ecx
  00cd3	e8 00 00 00 00	 call	 ?old_lssproto_B_send@@YAXHPAD@Z ; old_lssproto_B_send
  00cd8	83 c4 08	 add	 esp, 8
$LN110@BattleTarg:

; 3086 : 
; 3087 : 					play_se(217, 320, 240);

  00cdb	68 f0 00 00 00	 push	 240			; 000000f0H
  00ce0	68 40 01 00 00	 push	 320			; 00000140H
  00ce5	68 d9 00 00 00	 push	 217			; 000000d9H
  00cea	e8 00 00 00 00	 call	 ?play_se@@YAHHHH@Z	; play_se
  00cef	83 c4 0c	 add	 esp, 12			; 0000000cH
$LN8@BattleTarg:

; 3088 : 					break;
; 3089 : 
; 3090 : 				}			
; 3091 : 
; 3092 : 			
; 3093 : 				break;

  00cf2	e9 7f 02 00 00	 jmp	 $LN2@BattleTarg
$LN111@BattleTarg:

; 3094 : 				
; 3095 : #ifdef _BATTLESKILL				// (不可开) Syu ADD 战斗技能介面
; 3096 : 				//Change note 职业技能选择对象后送出封包
; 3097 : 			case BATTLE_PROWAZA:
; 3098 : 				switch( profession_skill[prouseskill].target ){

  00cf7	69 05 00 00 00
	00 c0 00 00 00	 imul	 eax, DWORD PTR ?prouseskill@@3HA, 192 ; prouseskill
  00d01	0f bf 88 04 00
	00 00		 movsx	 ecx, WORD PTR ?profession_skill@@3PAUPROFESSION_SKILL@@A[eax+4]
  00d08	89 8d 18 fe ff
	ff		 mov	 DWORD PTR tv422[ebp], ecx
  00d0e	83 bd 18 fe ff
	ff 0b		 cmp	 DWORD PTR tv422[ebp], 11 ; 0000000bH
  00d15	0f 87 5b 02 00
	00		 ja	 $LN2@BattleTarg
  00d1b	8b 95 18 fe ff
	ff		 mov	 edx, DWORD PTR tv422[ebp]
  00d21	0f b6 82 00 00
	00 00		 movzx	 eax, BYTE PTR $LN129@BattleTarg[edx]
  00d28	ff 24 85 00 00
	00 00		 jmp	 DWORD PTR $LN137@BattleTarg[eax*4]
$LN112@BattleTarg:

; 3099 : 				case PETSKILL_TARGET_MYSELF:
; 3100 : 				case PETSKILL_TARGET_OTHER:
; 3101 : 				case PETSKILL_TARGET_OTHERWITHOUTMYSELF:
; 3102 : 				case PETSKILL_TARGET_WITHOUTMYSELFANDPET:
; 3103 : 				case PETSKILL_TARGET_ONE_LINE:
; 3104 : #ifdef _BATTLESKILL
; 3105 : 				case PETSKILL_TARGER_DEATH:
; 3106 : #endif
; 3107 : 					sprintf( moji,"P|%X|%X", prouseskill, targetNo );

  00d2f	8b 85 ec fe ff
	ff		 mov	 eax, DWORD PTR _targetNo$[ebp]
  00d35	50		 push	 eax
  00d36	8b 0d 00 00 00
	00		 mov	 ecx, DWORD PTR ?prouseskill@@3HA ; prouseskill
  00d3c	51		 push	 ecx
  00d3d	68 00 00 00 00	 push	 OFFSET ??_C@_07NGDMDFPD@P?$HM?$CFX?$HM?$CFX?$AA@
  00d42	8d 95 f8 fe ff
	ff		 lea	 edx, DWORD PTR _moji$[ebp]
  00d48	52		 push	 edx
  00d49	e8 00 00 00 00	 call	 _sprintf
  00d4e	83 c4 10	 add	 esp, 16			; 00000010H

; 3108 : 					lssproto_B_send( sockfd, moji );

  00d51	8d 85 f8 fe ff
	ff		 lea	 eax, DWORD PTR _moji$[ebp]
  00d57	50		 push	 eax
  00d58	8b 0d 00 00 00
	00		 mov	 ecx, DWORD PTR ?sockfd@@3IA ; sockfd
  00d5e	51		 push	 ecx
  00d5f	e8 00 00 00 00	 call	 ?lssproto_B_send@@YAXHPAD@Z ; lssproto_B_send
  00d64	83 c4 08	 add	 esp, 8

; 3109 : 					play_se( 217, 320, 240 );

  00d67	68 f0 00 00 00	 push	 240			; 000000f0H
  00d6c	68 40 01 00 00	 push	 320			; 00000140H
  00d71	68 d9 00 00 00	 push	 217			; 000000d9H
  00d76	e8 00 00 00 00	 call	 ?play_se@@YAHHHH@Z	; play_se
  00d7b	83 c4 0c	 add	 esp, 12			; 0000000cH

; 3110 : 					break;

  00d7e	e9 f3 01 00 00	 jmp	 $LN2@BattleTarg
$LN113@BattleTarg:

; 3111 : 				case PETSKILL_TARGET_ALLMYSIDE:
; 3112 : 					if( BattleMyNo < 10 ) no = 20;

  00d83	83 3d 00 00 00
	00 0a		 cmp	 DWORD PTR ?BattleMyNo@@3HA, 10 ; BattleMyNo, 0000000aH
  00d8a	7d 0c		 jge	 SHORT $LN114@BattleTarg
  00d8c	c7 85 e0 fe ff
	ff 14 00 00 00	 mov	 DWORD PTR _no$[ebp], 20	; 00000014H
  00d96	eb 0a		 jmp	 SHORT $LN115@BattleTarg
$LN114@BattleTarg:

; 3113 : 					else no = 21;

  00d98	c7 85 e0 fe ff
	ff 15 00 00 00	 mov	 DWORD PTR _no$[ebp], 21	; 00000015H
$LN115@BattleTarg:

; 3114 : 					sprintf( moji,"P|%X|%X", prouseskill, no );

  00da2	8b 85 e0 fe ff
	ff		 mov	 eax, DWORD PTR _no$[ebp]
  00da8	50		 push	 eax
  00da9	8b 0d 00 00 00
	00		 mov	 ecx, DWORD PTR ?prouseskill@@3HA ; prouseskill
  00daf	51		 push	 ecx
  00db0	68 00 00 00 00	 push	 OFFSET ??_C@_07NGDMDFPD@P?$HM?$CFX?$HM?$CFX?$AA@
  00db5	8d 95 f8 fe ff
	ff		 lea	 edx, DWORD PTR _moji$[ebp]
  00dbb	52		 push	 edx
  00dbc	e8 00 00 00 00	 call	 _sprintf
  00dc1	83 c4 10	 add	 esp, 16			; 00000010H

; 3115 : 					lssproto_B_send( sockfd, moji );

  00dc4	8d 85 f8 fe ff
	ff		 lea	 eax, DWORD PTR _moji$[ebp]
  00dca	50		 push	 eax
  00dcb	8b 0d 00 00 00
	00		 mov	 ecx, DWORD PTR ?sockfd@@3IA ; sockfd
  00dd1	51		 push	 ecx
  00dd2	e8 00 00 00 00	 call	 ?lssproto_B_send@@YAXHPAD@Z ; lssproto_B_send
  00dd7	83 c4 08	 add	 esp, 8

; 3116 : 					play_se( 217, 320, 240 );

  00dda	68 f0 00 00 00	 push	 240			; 000000f0H
  00ddf	68 40 01 00 00	 push	 320			; 00000140H
  00de4	68 d9 00 00 00	 push	 217			; 000000d9H
  00de9	e8 00 00 00 00	 call	 ?play_se@@YAHHHH@Z	; play_se
  00dee	83 c4 0c	 add	 esp, 12			; 0000000cH

; 3117 : 					break;

  00df1	e9 80 01 00 00	 jmp	 $LN2@BattleTarg
$LN116@BattleTarg:

; 3118 : 				case PETSKILL_TARGET_ALLOTHERSIDE:
; 3119 : 					if( BattleMyNo < 10 ) no = 21;

  00df6	83 3d 00 00 00
	00 0a		 cmp	 DWORD PTR ?BattleMyNo@@3HA, 10 ; BattleMyNo, 0000000aH
  00dfd	7d 0c		 jge	 SHORT $LN117@BattleTarg
  00dff	c7 85 e0 fe ff
	ff 15 00 00 00	 mov	 DWORD PTR _no$[ebp], 21	; 00000015H
  00e09	eb 0a		 jmp	 SHORT $LN118@BattleTarg
$LN117@BattleTarg:

; 3120 : 					else no = 20;

  00e0b	c7 85 e0 fe ff
	ff 14 00 00 00	 mov	 DWORD PTR _no$[ebp], 20	; 00000014H
$LN118@BattleTarg:

; 3121 : 					sprintf( moji,"P|%X|%X", prouseskill, no );

  00e15	8b 85 e0 fe ff
	ff		 mov	 eax, DWORD PTR _no$[ebp]
  00e1b	50		 push	 eax
  00e1c	8b 0d 00 00 00
	00		 mov	 ecx, DWORD PTR ?prouseskill@@3HA ; prouseskill
  00e22	51		 push	 ecx
  00e23	68 00 00 00 00	 push	 OFFSET ??_C@_07NGDMDFPD@P?$HM?$CFX?$HM?$CFX?$AA@
  00e28	8d 95 f8 fe ff
	ff		 lea	 edx, DWORD PTR _moji$[ebp]
  00e2e	52		 push	 edx
  00e2f	e8 00 00 00 00	 call	 _sprintf
  00e34	83 c4 10	 add	 esp, 16			; 00000010H

; 3122 : 					lssproto_B_send( sockfd, moji );

  00e37	8d 85 f8 fe ff
	ff		 lea	 eax, DWORD PTR _moji$[ebp]
  00e3d	50		 push	 eax
  00e3e	8b 0d 00 00 00
	00		 mov	 ecx, DWORD PTR ?sockfd@@3IA ; sockfd
  00e44	51		 push	 ecx
  00e45	e8 00 00 00 00	 call	 ?lssproto_B_send@@YAXHPAD@Z ; lssproto_B_send
  00e4a	83 c4 08	 add	 esp, 8

; 3123 : 					play_se( 217, 320, 240 );

  00e4d	68 f0 00 00 00	 push	 240			; 000000f0H
  00e52	68 40 01 00 00	 push	 320			; 00000140H
  00e57	68 d9 00 00 00	 push	 217			; 000000d9H
  00e5c	e8 00 00 00 00	 call	 ?play_se@@YAHHHH@Z	; play_se
  00e61	83 c4 0c	 add	 esp, 12			; 0000000cH

; 3124 : 					break;

  00e64	e9 0d 01 00 00	 jmp	 $LN2@BattleTarg
$LN119@BattleTarg:

; 3125 : 				case PETSKILL_TARGET_ALL:
; 3126 : 					sprintf( moji,"P|%X|%X", prouseskill, 22 );

  00e69	6a 16		 push	 22			; 00000016H
  00e6b	a1 00 00 00 00	 mov	 eax, DWORD PTR ?prouseskill@@3HA ; prouseskill
  00e70	50		 push	 eax
  00e71	68 00 00 00 00	 push	 OFFSET ??_C@_07NGDMDFPD@P?$HM?$CFX?$HM?$CFX?$AA@
  00e76	8d 8d f8 fe ff
	ff		 lea	 ecx, DWORD PTR _moji$[ebp]
  00e7c	51		 push	 ecx
  00e7d	e8 00 00 00 00	 call	 _sprintf
  00e82	83 c4 10	 add	 esp, 16			; 00000010H

; 3127 : 					lssproto_B_send( sockfd, moji );

  00e85	8d 85 f8 fe ff
	ff		 lea	 eax, DWORD PTR _moji$[ebp]
  00e8b	50		 push	 eax
  00e8c	8b 0d 00 00 00
	00		 mov	 ecx, DWORD PTR ?sockfd@@3IA ; sockfd
  00e92	51		 push	 ecx
  00e93	e8 00 00 00 00	 call	 ?lssproto_B_send@@YAXHPAD@Z ; lssproto_B_send
  00e98	83 c4 08	 add	 esp, 8

; 3128 : 					play_se( 217, 320, 240 );

  00e9b	68 f0 00 00 00	 push	 240			; 000000f0H
  00ea0	68 40 01 00 00	 push	 320			; 00000140H
  00ea5	68 d9 00 00 00	 push	 217			; 000000d9H
  00eaa	e8 00 00 00 00	 call	 ?play_se@@YAHHHH@Z	; play_se
  00eaf	83 c4 0c	 add	 esp, 12			; 0000000cH

; 3129 : 					break;

  00eb2	e9 bf 00 00 00	 jmp	 $LN2@BattleTarg
$LN120@BattleTarg:

; 3130 : 				case PETSKILL_TARGET_ONE_ROW:
; 3131 : #ifdef _SKILL_ADDBARRIER
; 3132 : 				case PETSKILL_TARGET_ONE_ROW_ALL:
; 3133 : #endif
; 3134 : 					if ( targetNo >= 0 && targetNo < 5 ) no = 26 ; 

  00eb7	83 bd ec fe ff
	ff 00		 cmp	 DWORD PTR _targetNo$[ebp], 0
  00ebe	7c 13		 jl	 SHORT $LN121@BattleTarg
  00ec0	83 bd ec fe ff
	ff 05		 cmp	 DWORD PTR _targetNo$[ebp], 5
  00ec7	7d 0a		 jge	 SHORT $LN121@BattleTarg
  00ec9	c7 85 e0 fe ff
	ff 1a 00 00 00	 mov	 DWORD PTR _no$[ebp], 26	; 0000001aH
$LN121@BattleTarg:

; 3135 : 					if ( targetNo >= 5 && targetNo < 10 ) no = 25 ; 

  00ed3	83 bd ec fe ff
	ff 05		 cmp	 DWORD PTR _targetNo$[ebp], 5
  00eda	7c 13		 jl	 SHORT $LN122@BattleTarg
  00edc	83 bd ec fe ff
	ff 0a		 cmp	 DWORD PTR _targetNo$[ebp], 10 ; 0000000aH
  00ee3	7d 0a		 jge	 SHORT $LN122@BattleTarg
  00ee5	c7 85 e0 fe ff
	ff 19 00 00 00	 mov	 DWORD PTR _no$[ebp], 25	; 00000019H
$LN122@BattleTarg:

; 3136 : 					if ( targetNo >= 10 && targetNo < 15 ) no = 23 ; 

  00eef	83 bd ec fe ff
	ff 0a		 cmp	 DWORD PTR _targetNo$[ebp], 10 ; 0000000aH
  00ef6	7c 13		 jl	 SHORT $LN123@BattleTarg
  00ef8	83 bd ec fe ff
	ff 0f		 cmp	 DWORD PTR _targetNo$[ebp], 15 ; 0000000fH
  00eff	7d 0a		 jge	 SHORT $LN123@BattleTarg
  00f01	c7 85 e0 fe ff
	ff 17 00 00 00	 mov	 DWORD PTR _no$[ebp], 23	; 00000017H
$LN123@BattleTarg:

; 3137 : 					if ( targetNo >= 15 && targetNo < 20 ) no = 24 ; 

  00f0b	83 bd ec fe ff
	ff 0f		 cmp	 DWORD PTR _targetNo$[ebp], 15 ; 0000000fH
  00f12	7c 13		 jl	 SHORT $LN124@BattleTarg
  00f14	83 bd ec fe ff
	ff 14		 cmp	 DWORD PTR _targetNo$[ebp], 20 ; 00000014H
  00f1b	7d 0a		 jge	 SHORT $LN124@BattleTarg
  00f1d	c7 85 e0 fe ff
	ff 18 00 00 00	 mov	 DWORD PTR _no$[ebp], 24	; 00000018H
$LN124@BattleTarg:

; 3138 : 					sprintf( moji,"P|%X|%X", prouseskill, no );

  00f27	8b 85 e0 fe ff
	ff		 mov	 eax, DWORD PTR _no$[ebp]
  00f2d	50		 push	 eax
  00f2e	8b 0d 00 00 00
	00		 mov	 ecx, DWORD PTR ?prouseskill@@3HA ; prouseskill
  00f34	51		 push	 ecx
  00f35	68 00 00 00 00	 push	 OFFSET ??_C@_07NGDMDFPD@P?$HM?$CFX?$HM?$CFX?$AA@
  00f3a	8d 95 f8 fe ff
	ff		 lea	 edx, DWORD PTR _moji$[ebp]
  00f40	52		 push	 edx
  00f41	e8 00 00 00 00	 call	 _sprintf
  00f46	83 c4 10	 add	 esp, 16			; 00000010H

; 3139 : 					lssproto_B_send( sockfd, moji );

  00f49	8d 85 f8 fe ff
	ff		 lea	 eax, DWORD PTR _moji$[ebp]
  00f4f	50		 push	 eax
  00f50	8b 0d 00 00 00
	00		 mov	 ecx, DWORD PTR ?sockfd@@3IA ; sockfd
  00f56	51		 push	 ecx
  00f57	e8 00 00 00 00	 call	 ?lssproto_B_send@@YAXHPAD@Z ; lssproto_B_send
  00f5c	83 c4 08	 add	 esp, 8

; 3140 : 					play_se( 217, 320, 240 );

  00f5f	68 f0 00 00 00	 push	 240			; 000000f0H
  00f64	68 40 01 00 00	 push	 320			; 00000140H
  00f69	68 d9 00 00 00	 push	 217			; 000000d9H
  00f6e	e8 00 00 00 00	 call	 ?play_se@@YAHHHH@Z	; play_se
  00f73	83 c4 0c	 add	 esp, 12			; 0000000cH
$LN2@BattleTarg:

; 3141 : 					break;
; 3142 : 				}
; 3143 : 
; 3144 : #endif
; 3145 : 			}
; 3146 : 
; 3147 : 			play_se( 203, 320, 240 );

  00f76	68 f0 00 00 00	 push	 240			; 000000f0H
  00f7b	68 40 01 00 00	 push	 320			; 00000140H
  00f80	68 cb 00 00 00	 push	 203			; 000000cbH
  00f85	e8 00 00 00 00	 call	 ?play_se@@YAHHHH@Z	; play_se
  00f8a	83 c4 0c	 add	 esp, 12			; 0000000cH

; 3148 : 
; 3149 : 			battleTargetSelectFlag = FALSE;

  00f8d	c7 05 00 00 00
	00 00 00 00 00	 mov	 DWORD PTR ?battleTargetSelectFlag@@3HA, 0

; 3150 : 
; 3151 : 			battleMenuReturn = TRUE;

  00f97	c7 05 00 00 00
	00 01 00 00 00	 mov	 DWORD PTR ?battleMenuReturn@@3HA, 1

; 3152 : 
; 3153 : 			DeathAction( pActInfoWnd );

  00fa1	a1 00 00 00 00	 mov	 eax, DWORD PTR ?pActInfoWnd@@3PAUaction@@A
  00fa6	50		 push	 eax
  00fa7	e8 00 00 00 00	 call	 ?DeathAction@@YAXPAUaction@@@Z ; DeathAction
  00fac	83 c4 04	 add	 esp, 4

; 3154 : 			pActInfoWnd = NULL;

  00faf	c7 05 00 00 00
	00 00 00 00 00	 mov	 DWORD PTR ?pActInfoWnd@@3PAUaction@@A, 0
$LN1@BattleTarg:

; 3155 : 		}
; 3156 : 	}
; 3157 : }

  00fb9	52		 push	 edx
  00fba	8b cd		 mov	 ecx, ebp
  00fbc	50		 push	 eax
  00fbd	8d 15 00 00 00
	00		 lea	 edx, DWORD PTR $LN132@BattleTarg
  00fc3	e8 00 00 00 00	 call	 @_RTC_CheckStackVars@8
  00fc8	58		 pop	 eax
  00fc9	5a		 pop	 edx
  00fca	5f		 pop	 edi
  00fcb	5e		 pop	 esi
  00fcc	5b		 pop	 ebx
  00fcd	8b 4d fc	 mov	 ecx, DWORD PTR __$ArrayPad$[ebp]
  00fd0	33 cd		 xor	 ecx, ebp
  00fd2	e8 00 00 00 00	 call	 @__security_check_cookie@4
  00fd7	81 c4 e8 01 00
	00		 add	 esp, 488		; 000001e8H
  00fdd	3b ec		 cmp	 ebp, esp
  00fdf	e8 00 00 00 00	 call	 __RTC_CheckEsp
  00fe4	8b e5		 mov	 esp, ebp
  00fe6	5d		 pop	 ebp
  00fe7	c3		 ret	 0
$LN132@BattleTarg:
  00fe8	01 00 00 00	 DD	 1
  00fec	00 00 00 00	 DD	 $LN131@BattleTarg
$LN131@BattleTarg:
  00ff0	f8 fe ff ff	 DD	 -264			; fffffef8H
  00ff4	00 01 00 00	 DD	 256			; 00000100H
  00ff8	00 00 00 00	 DD	 $LN130@BattleTarg
$LN130@BattleTarg:
  00ffc	6d		 DB	 109			; 0000006dH
  00ffd	6f		 DB	 111			; 0000006fH
  00ffe	6a		 DB	 106			; 0000006aH
  00fff	69		 DB	 105			; 00000069H
  01000	00		 DB	 0
  01001	0f 1f 00	 npad	 3
$LN133@BattleTarg:
  01004	00 00 00 00	 DD	 $LN23@BattleTarg
  01008	00 00 00 00	 DD	 $LN29@BattleTarg
  0100c	00 00 00 00	 DD	 $LN26@BattleTarg
  01010	00 00 00 00	 DD	 $LN67@BattleTarg
  01014	00 00 00 00	 DD	 $LN84@BattleTarg
  01018	00 00 00 00	 DD	 $LN111@BattleTarg
$LN134@BattleTarg:
  0101c	00 00 00 00	 DD	 $LN46@BattleTarg
  01020	00 00 00 00	 DD	 $LN46@BattleTarg
  01024	00 00 00 00	 DD	 $LN49@BattleTarg
  01028	00 00 00 00	 DD	 $LN54@BattleTarg
  0102c	00 00 00 00	 DD	 $LN59@BattleTarg
  01030	00 00 00 00	 DD	 $LN4@BattleTarg
  01034	00 00 00 00	 DD	 $LN4@BattleTarg
  01038	00 00 00 00	 DD	 $LN4@BattleTarg
  0103c	00 00 00 00	 DD	 $LN62@BattleTarg
  01040	00 00 00 00	 DD	 $LN30@BattleTarg
  01044	00 00 00 00	 DD	 $LN33@BattleTarg
  01048	00 00 00 00	 DD	 $LN43@BattleTarg
$LN135@BattleTarg:
  0104c	00 00 00 00	 DD	 $LN68@BattleTarg
  01050	00 00 00 00	 DD	 $LN68@BattleTarg
  01054	00 00 00 00	 DD	 $LN71@BattleTarg
  01058	00 00 00 00	 DD	 $LN76@BattleTarg
  0105c	00 00 00 00	 DD	 $LN81@BattleTarg
  01060	00 00 00 00	 DD	 $LN6@BattleTarg
  01064	00 00 00 00	 DD	 $LN68@BattleTarg
  01068	00 00 00 00	 DD	 $LN68@BattleTarg
$LN136@BattleTarg:
  0106c	00 00 00 00	 DD	 $LN85@BattleTarg
  01070	00 00 00 00	 DD	 $LN88@BattleTarg
  01074	00 00 00 00	 DD	 $LN93@BattleTarg
  01078	00 00 00 00	 DD	 $LN98@BattleTarg
  0107c	00 00 00 00	 DD	 $LN101@BattleTarg
  01080	00 00 00 00	 DD	 $LN106@BattleTarg
  01084	00 00 00 00	 DD	 $LN8@BattleTarg
$LN128@BattleTarg:
  01088	00		 DB	 0
  01089	00		 DB	 0
  0108a	01		 DB	 1
  0108b	02		 DB	 2
  0108c	03		 DB	 3
  0108d	06		 DB	 6
  0108e	00		 DB	 0
  0108f	00		 DB	 0
  01090	04		 DB	 4
  01091	06		 DB	 6
  01092	00		 DB	 0
  01093	04		 DB	 4
  01094	05		 DB	 5
  01095	0f 1f 00	 npad	 3
$LN137@BattleTarg:
  01098	00 00 00 00	 DD	 $LN112@BattleTarg
  0109c	00 00 00 00	 DD	 $LN113@BattleTarg
  010a0	00 00 00 00	 DD	 $LN116@BattleTarg
  010a4	00 00 00 00	 DD	 $LN119@BattleTarg
  010a8	00 00 00 00	 DD	 $LN120@BattleTarg
  010ac	00 00 00 00	 DD	 $LN2@BattleTarg
$LN129@BattleTarg:
  010b0	00		 DB	 0
  010b1	00		 DB	 0
  010b2	01		 DB	 1
  010b3	02		 DB	 2
  010b4	03		 DB	 3
  010b5	05		 DB	 5
  010b6	00		 DB	 0
  010b7	00		 DB	 0
  010b8	04		 DB	 4
  010b9	00		 DB	 0
  010ba	00		 DB	 0
  010bb	04		 DB	 4
?BattleTargetSelect@@YAXXZ ENDP				; BattleTargetSelect
_TEXT	ENDS
; Function compile flags: /Odtp /RTCsu /ZI
; File c:\users\administrator\desktop\????? ??\????? ??\client source code\system\battlemenu.cpp
;	COMDAT ?BattleButtonWaza@@YAXXZ
_TEXT	SEGMENT
$T1 = -588						; size = 4
$T2 = -576						; size = 4
$T3 = -564						; size = 4
_color$4 = -360						; size = 4
_j$5 = -348						; size = 4
_flag$6 = -336						; size = 4
_splitPoint$7 = -324					; size = 4
_moji$ = -312						; size = 256
_y$ = -48						; size = 4
_x$ = -36						; size = 4
_bak$ = -24						; size = 4
_i$ = -12						; size = 4
__$ArrayPad$ = -4					; size = 4
?BattleButtonWaza@@YAXXZ PROC				; BattleButtonWaza, COMDAT

; 2522 : {

  00000	55		 push	 ebp
  00001	8b ec		 mov	 ebp, esp
  00003	81 ec 50 02 00
	00		 sub	 esp, 592		; 00000250H
  00009	53		 push	 ebx
  0000a	56		 push	 esi
  0000b	57		 push	 edi
  0000c	8d bd b0 fd ff
	ff		 lea	 edi, DWORD PTR [ebp-592]
  00012	b9 94 00 00 00	 mov	 ecx, 148		; 00000094H
  00017	b8 cc cc cc cc	 mov	 eax, -858993460		; ccccccccH
  0001c	f3 ab		 rep stosd
  0001e	a1 00 00 00 00	 mov	 eax, DWORD PTR ___security_cookie
  00023	33 c5		 xor	 eax, ebp
  00025	89 45 fc	 mov	 DWORD PTR __$ArrayPad$[ebp], eax

; 2523 : 	int i, bak;
; 2524 : 	int x, y;
; 2525 : 	char moji[ 256 ];
; 2526 : 	if( HitDispNo == battleButtonDispNo[ 8 ] || battlePetButtonFlag == TRUE ){

  00028	b8 04 00 00 00	 mov	 eax, 4
  0002d	c1 e0 03	 shl	 eax, 3
  00030	8b 0d 00 00 00
	00		 mov	 ecx, DWORD PTR ?HitDispNo@@3HA ; HitDispNo
  00036	3b 88 00 00 00
	00		 cmp	 ecx, DWORD PTR ?battleButtonDispNo@@3PAHA[eax]
  0003c	74 0d		 je	 SHORT $LN20@BattleButt
  0003e	83 3d 00 00 00
	00 01		 cmp	 DWORD PTR ?battlePetButtonFlag@@3HA, 1 ; battlePetButtonFlag
  00045	0f 85 b5 00 00
	00		 jne	 $LN19@BattleButt
$LN20@BattleButt:

; 2527 : 		// ?????????
; 2528 : 		if( mouse.onceState & MOUSE_LEFT_CRICK || battlePetButtonFlag == TRUE ){

  0004b	a1 2c 00 00 00	 mov	 eax, DWORD PTR ?mouse@@3UMOUSE@@A+44
  00050	83 e0 01	 and	 eax, 1
  00053	75 0d		 jne	 SHORT $LN22@BattleButt
  00055	83 3d 00 00 00
	00 01		 cmp	 DWORD PTR ?battlePetButtonFlag@@3HA, 1 ; battlePetButtonFlag
  0005c	0f 85 82 00 00
	00		 jne	 $LN21@BattleButt
$LN22@BattleButt:

; 2529 : 			bak = battleButtonFlag[ 8 ];	// ??????

  00062	b8 04 00 00 00	 mov	 eax, 4
  00067	c1 e0 03	 shl	 eax, 3
  0006a	8b 88 00 00 00
	00		 mov	 ecx, DWORD PTR ?battleButtonFlag@@3PAHA[eax]
  00070	89 4d e8	 mov	 DWORD PTR _bak$[ebp], ecx

; 2530 : 			BattleButtonOff();				// ????????????

  00073	e8 00 00 00 00	 call	 ?BattleButtonOff@@YAXXZ	; BattleButtonOff

; 2531 : 			// ?????????
; 2532 : 			if( bak == FALSE ){

  00078	83 7d e8 00	 cmp	 DWORD PTR _bak$[ebp], 0
  0007c	75 66		 jne	 SHORT $LN21@BattleButt

; 2533 : 				// ?????????
; 2534 : 				battleButtonFlag[ 8 ] = TRUE; //打开技能选项盒

  0007e	b8 04 00 00 00	 mov	 eax, 4
  00083	c1 e0 03	 shl	 eax, 3
  00086	c7 80 00 00 00
	00 01 00 00 00	 mov	 DWORD PTR ?battleButtonFlag@@3PAHA[eax], 1

; 2535 : 				// ?????????
; 2536 : 				battleWazaTargetBak = -1;

  00090	c7 05 00 00 00
	00 ff ff ff ff	 mov	 DWORD PTR ?battleWazaTargetBak@@3HA, -1 ; battleWazaTargetBak

; 2537 : 				// ?????
; 2538 : 				//BattleCmdNo = BATTLE_WAZA;
; 2539 : 				// ????????
; 2540 : 				for( i = 0 ; i < BATTLE_MENU_WAZA_FONTS ; i++ ) battleMenuWazaFontNo[ i ] = -2;

  0009a	c7 45 f4 00 00
	00 00		 mov	 DWORD PTR _i$[ebp], 0
  000a1	eb 09		 jmp	 SHORT $LN4@BattleButt
$LN2@BattleButt:
  000a3	8b 45 f4	 mov	 eax, DWORD PTR _i$[ebp]
  000a6	83 c0 01	 add	 eax, 1
  000a9	89 45 f4	 mov	 DWORD PTR _i$[ebp], eax
$LN4@BattleButt:
  000ac	83 7d f4 09	 cmp	 DWORD PTR _i$[ebp], 9
  000b0	7d 10		 jge	 SHORT $LN3@BattleButt
  000b2	8b 45 f4	 mov	 eax, DWORD PTR _i$[ebp]
  000b5	c7 04 85 00 00
	00 00 fe ff ff
	ff		 mov	 DWORD PTR ?battleMenuWazaFontNo@@3PAHA[eax*4], -2 ; fffffffeH
  000c0	eb e1		 jmp	 SHORT $LN2@BattleButt
$LN3@BattleButt:

; 2541 : 				// ?????????
; 2542 : 				pActWnd = MakeWindowDisp( 364, 96, 272, 348, 0, -1 );

  000c2	6a ff		 push	 -1
  000c4	6a 00		 push	 0
  000c6	68 5c 01 00 00	 push	 348			; 0000015cH
  000cb	68 10 01 00 00	 push	 272			; 00000110H
  000d0	6a 60		 push	 96			; 00000060H
  000d2	68 6c 01 00 00	 push	 364			; 0000016cH
  000d7	e8 00 00 00 00	 call	 ?MakeWindowDisp@@YAPAUaction@@HHHHHH@Z ; MakeWindowDisp
  000dc	83 c4 18	 add	 esp, 24			; 00000018H
  000df	a3 00 00 00 00	 mov	 DWORD PTR ?pActWnd@@3PAUaction@@A, eax
$LN21@BattleButt:

; 2543 : 			}
; 2544 : 		}
; 2545 : 		// ?????????
; 2546 : 		battlePetButtonFlag = FALSE;

  000e4	c7 05 00 00 00
	00 00 00 00 00	 mov	 DWORD PTR ?battlePetButtonFlag@@3HA, 0 ; battlePetButtonFlag

; 2547 : 		// ??????				 
; 2548 : 		strcpy( OneLineInfoStr, "기능을 사용하다。");

  000ee	68 00 00 00 00	 push	 OFFSET ??_C@_0BC@EMOKBAPI@?$LB?b?$LE?I?$MA?$LL?5?$LL?g?$LP?k?G?O?$LE?Y?$KB?$KD?$AA@
  000f3	68 00 00 00 00	 push	 OFFSET ?OneLineInfoStr@@3PADA ; OneLineInfoStr
  000f8	e8 00 00 00 00	 call	 _strcpy
  000fd	83 c4 08	 add	 esp, 8
$LN19@BattleButt:

; 2549 : 	}
; 2550 : 	// ????????
; 2551 : 	if( battleButtonFlag[ 8 ] == TRUE ){

  00100	b8 04 00 00 00	 mov	 eax, 4
  00105	c1 e0 03	 shl	 eax, 3
  00108	83 b8 00 00 00
	00 01		 cmp	 DWORD PTR ?battleButtonFlag@@3PAHA[eax], 1
  0010f	0f 85 71 06 00
	00		 jne	 $LN54@BattleButt

; 2552 : 		// ?????????
; 2553 : 		if( pActWnd != NULL ){

  00115	83 3d 00 00 00
	00 00		 cmp	 DWORD PTR ?pActWnd@@3PAUaction@@A, 0
  0011c	0f 84 64 06 00
	00		 je	 $LN54@BattleButt

; 2554 : 			// ??????????????
; 2555 : 			if( pActWnd->hp > 0 ){

  00122	a1 00 00 00 00	 mov	 eax, DWORD PTR ?pActWnd@@3PAUaction@@A
  00127	83 78 78 00	 cmp	 DWORD PTR [eax+120], 0
  0012b	0f 8e 55 06 00
	00		 jle	 $LN54@BattleButt

; 2556 : 				// ?????????
; 2557 : 				StockDispBuffer( ( ( WINDOW_DISP *)pActWnd->pYobi )->mx, ( ( WINDOW_DISP *)pActWnd->pYobi )->my, DISP_PRIO_MENU, CG_PET_WAZA_WND, 1 );

  00131	6a 01		 push	 1
  00133	a1 00 00 00 00	 mov	 eax, DWORD PTR ?CG_PET_WAZA_WND@@3HA ; CG_PET_WAZA_WND
  00138	50		 push	 eax
  00139	6a 68		 push	 104			; 00000068H
  0013b	8b 0d 00 00 00
	00		 mov	 ecx, DWORD PTR ?pActWnd@@3PAUaction@@A
  00141	8b 51 0c	 mov	 edx, DWORD PTR [ecx+12]
  00144	8b 42 18	 mov	 eax, DWORD PTR [edx+24]
  00147	50		 push	 eax
  00148	8b 0d 00 00 00
	00		 mov	 ecx, DWORD PTR ?pActWnd@@3PAUaction@@A
  0014e	8b 51 0c	 mov	 edx, DWORD PTR [ecx+12]
  00151	8b 42 14	 mov	 eax, DWORD PTR [edx+20]
  00154	50		 push	 eax
  00155	e8 00 00 00 00	 call	 ?StockDispBuffer@@YAHHHEHH@Z ; StockDispBuffer
  0015a	83 c4 14	 add	 esp, 20			; 00000014H

; 2558 : 				// ?????????
; 2559 : 				for( i = 0 ; i < pet[ battlePetNoBak ].maxSkill ; i++ ){

  0015d	c7 45 f4 00 00
	00 00		 mov	 DWORD PTR _i$[ebp], 0
  00164	eb 09		 jmp	 SHORT $LN7@BattleButt
$LN5@BattleButt:
  00166	8b 45 f4	 mov	 eax, DWORD PTR _i$[ebp]
  00169	83 c0 01	 add	 eax, 1
  0016c	89 45 f4	 mov	 DWORD PTR _i$[ebp], eax
$LN7@BattleButt:
  0016f	69 05 00 00 00
	00 20 0b 00 00	 imul	 eax, DWORD PTR ?battlePetNoBak@@3HA, 2848 ; battlePetNoBak
  00179	8b 4d f4	 mov	 ecx, DWORD PTR _i$[ebp]
  0017c	3b 88 44 00 00
	00		 cmp	 ecx, DWORD PTR ?pet@@3PAUPET@@A[eax+68]
  00182	7d 31		 jge	 SHORT $LN6@BattleButt

; 2560 : 					// ?????
; 2561 : 					StockDispBuffer( ( ( WINDOW_DISP *)pActWnd->pYobi )->mx, ( ( WINDOW_DISP *)pActWnd->pYobi )->my, DISP_PRIO_IME3, CG_PET_WAZA_BAR_1 + i, 1 );

  00184	6a 01		 push	 1
  00186	8b 45 f4	 mov	 eax, DWORD PTR _i$[ebp]
  00189	05 13 66 00 00	 add	 eax, 26131		; 00006613H
  0018e	50		 push	 eax
  0018f	6a 69		 push	 105			; 00000069H
  00191	8b 0d 00 00 00
	00		 mov	 ecx, DWORD PTR ?pActWnd@@3PAUaction@@A
  00197	8b 51 0c	 mov	 edx, DWORD PTR [ecx+12]
  0019a	8b 42 18	 mov	 eax, DWORD PTR [edx+24]
  0019d	50		 push	 eax
  0019e	8b 0d 00 00 00
	00		 mov	 ecx, DWORD PTR ?pActWnd@@3PAUaction@@A
  001a4	8b 51 0c	 mov	 edx, DWORD PTR [ecx+12]
  001a7	8b 42 14	 mov	 eax, DWORD PTR [edx+20]
  001aa	50		 push	 eax
  001ab	e8 00 00 00 00	 call	 ?StockDispBuffer@@YAHHHEHH@Z ; StockDispBuffer
  001b0	83 c4 14	 add	 esp, 20			; 00000014H

; 2562 : 				}

  001b3	eb b1		 jmp	 SHORT $LN5@BattleButt
$LN6@BattleButt:

; 2563 : 				// ????????
; 2564 : 				if( mouse.onceState & MOUSE_LEFT_CRICK ){

  001b5	a1 2c 00 00 00	 mov	 eax, DWORD PTR ?mouse@@3UMOUSE@@A+44
  001ba	83 e0 01	 and	 eax, 1
  001bd	74 1b		 je	 SHORT $LN27@BattleButt

; 2565 : 					// ????????
; 2566 : 					if( HitDispNo == battleMenuWazaFontNo[ 7 ] ){

  001bf	b8 04 00 00 00	 mov	 eax, 4
  001c4	6b c8 07	 imul	 ecx, eax, 7
  001c7	8b 15 00 00 00
	00		 mov	 edx, DWORD PTR ?HitDispNo@@3HA ; HitDispNo
  001cd	3b 91 00 00 00
	00		 cmp	 edx, DWORD PTR ?battleMenuWazaFontNo@@3PAHA[ecx]
  001d3	75 05		 jne	 SHORT $LN27@BattleButt

; 2567 : 						// ????????????
; 2568 : 						BattleButtonOff();				

  001d5	e8 00 00 00 00	 call	 ?BattleButtonOff@@YAXXZ	; BattleButtonOff
$LN27@BattleButt:

; 2569 : 					}
; 2570 : 				}
; 2571 : 				// ????????
; 2572 : 				if( pActWnd != NULL ){

  001da	83 3d 00 00 00
	00 00		 cmp	 DWORD PTR ?pActWnd@@3PAUaction@@A, 0
  001e1	0f 84 9f 05 00
	00		 je	 $LN54@BattleButt

; 2573 : 					// ?
; 2574 : 					x = pActWnd->x + 32;

  001e7	a1 00 00 00 00	 mov	 eax, DWORD PTR ?pActWnd@@3PAUaction@@A
  001ec	8b 48 18	 mov	 ecx, DWORD PTR [eax+24]
  001ef	83 c1 20	 add	 ecx, 32			; 00000020H
  001f2	89 4d dc	 mov	 DWORD PTR _x$[ebp], ecx

; 2575 : 					y = pActWnd->y + 252;

  001f5	a1 00 00 00 00	 mov	 eax, DWORD PTR ?pActWnd@@3PAUaction@@A
  001fa	8b 48 1c	 mov	 ecx, DWORD PTR [eax+28]
  001fd	81 c1 fc 00 00
	00		 add	 ecx, 252		; 000000fcH
  00203	89 4d d0	 mov	 DWORD PTR _y$[ebp], ecx

; 2576 : 					// ?
; 2577 : 					for( i = 0 ; i < pet[ battlePetNoBak ].maxSkill ; i++ ){

  00206	c7 45 f4 00 00
	00 00		 mov	 DWORD PTR _i$[ebp], 0
  0020d	eb 09		 jmp	 SHORT $LN10@BattleButt
$LN8@BattleButt:
  0020f	8b 45 f4	 mov	 eax, DWORD PTR _i$[ebp]
  00212	83 c0 01	 add	 eax, 1
  00215	89 45 f4	 mov	 DWORD PTR _i$[ebp], eax
$LN10@BattleButt:
  00218	69 05 00 00 00
	00 20 0b 00 00	 imul	 eax, DWORD PTR ?battlePetNoBak@@3HA, 2848 ; battlePetNoBak
  00222	8b 4d f4	 mov	 ecx, DWORD PTR _i$[ebp]
  00225	3b 88 44 00 00
	00		 cmp	 ecx, DWORD PTR ?pet@@3PAUPET@@A[eax+68]
  0022b	0f 8d 41 03 00
	00		 jge	 $LN9@BattleButt

; 2578 : 						// ????????
; 2579 : 						if( petSkill[ battlePetNoBak ][ i ].useFlag == TRUE ){

  00231	69 05 00 00 00
	00 e6 02 00 00	 imul	 eax, DWORD PTR ?battlePetNoBak@@3HA, 742 ; battlePetNoBak
  0023b	6b 4d f4 6a	 imul	 ecx, DWORD PTR _i$[ebp], 106
  0023f	0f bf 94 08 00
	00 00 00	 movsx	 edx, WORD PTR ?petSkill@@3PAY06UPET_SKILL@@A[eax+ecx]
  00247	83 fa 01	 cmp	 edx, 1
  0024a	0f 85 1d 03 00
	00		 jne	 $LN30@BattleButt

; 2580 : 							if( HitFontNo == battleMenuWazaFontNo[ i ] ){

  00250	8b 45 f4	 mov	 eax, DWORD PTR _i$[ebp]
  00253	8b 0d 00 00 00
	00		 mov	 ecx, DWORD PTR ?HitFontNo@@3HA ; HitFontNo
  00259	3b 0c 85 00 00
	00 00		 cmp	 ecx, DWORD PTR ?battleMenuWazaFontNo@@3PAHA[eax*4]
  00260	0f 85 07 03 00
	00		 jne	 $LN30@BattleButt

; 2581 : 								// ??????
; 2582 : 								char *splitPoint = petSkill[ battlePetNoBak ][ i ].memo;

  00266	69 05 00 00 00
	00 e6 02 00 00	 imul	 eax, DWORD PTR ?battlePetNoBak@@3HA, 742 ; battlePetNoBak
  00270	6b 4d f4 6a	 imul	 ecx, DWORD PTR _i$[ebp], 106
  00274	8d 94 08 21 00
	00 00		 lea	 edx, DWORD PTR ?petSkill@@3PAY06UPET_SKILL@@A[eax+ecx+33]
  0027b	89 95 bc fe ff
	ff		 mov	 DWORD PTR _splitPoint$7[ebp], edx
$LN11@BattleButt:

; 2583 : 								// ?????
; 2584 : 								while( 1 ){

  00281	b8 01 00 00 00	 mov	 eax, 1
  00286	85 c0		 test	 eax, eax
  00288	0f 84 5d 01 00
	00		 je	 $LN12@BattleButt

; 2585 : 									// ?????????
; 2586 : 									if( strlen( splitPoint ) > 24 ){

  0028e	8b 85 bc fe ff
	ff		 mov	 eax, DWORD PTR _splitPoint$7[ebp]
  00294	50		 push	 eax
  00295	e8 00 00 00 00	 call	 _strlen
  0029a	83 c4 04	 add	 esp, 4
  0029d	83 f8 18	 cmp	 eax, 24			; 00000018H
  002a0	0f 86 0b 01 00
	00		 jbe	 $LN32@BattleButt

; 2587 : 										strncpy( moji, splitPoint, 24 );

  002a6	8b f4		 mov	 esi, esp
  002a8	6a 18		 push	 24			; 00000018H
  002aa	8b 85 bc fe ff
	ff		 mov	 eax, DWORD PTR _splitPoint$7[ebp]
  002b0	50		 push	 eax
  002b1	8d 8d c8 fe ff
	ff		 lea	 ecx, DWORD PTR _moji$[ebp]
  002b7	51		 push	 ecx
  002b8	ff 15 00 00 00
	00		 call	 DWORD PTR __imp__strncpy
  002be	83 c4 0c	 add	 esp, 12			; 0000000cH
  002c1	3b f4		 cmp	 esi, esp
  002c3	e8 00 00 00 00	 call	 __RTC_CheckEsp

; 2588 : 										moji[ 24 ] = NULL;	// ??????

  002c8	b8 01 00 00 00	 mov	 eax, 1
  002cd	6b c8 18	 imul	 ecx, eax, 24
  002d0	89 8d cc fd ff
	ff		 mov	 DWORD PTR $T3[ebp], ecx
  002d6	81 bd cc fd ff
	ff 00 01 00 00	 cmp	 DWORD PTR $T3[ebp], 256	; 00000100H
  002e0	73 02		 jae	 SHORT $LN55@BattleButt
  002e2	eb 05		 jmp	 SHORT $LN56@BattleButt
$LN55@BattleButt:
  002e4	e8 00 00 00 00	 call	 ___report_rangecheckfailure
$LN56@BattleButt:
  002e9	8b 95 cc fd ff
	ff		 mov	 edx, DWORD PTR $T3[ebp]
  002ef	c6 84 15 c8 fe
	ff ff 00	 mov	 BYTE PTR _moji$[ebp+edx], 0

; 2589 : 										// ??????
; 2590 : 										if( GetStrLastByte( moji ) == 3 ){

  002f7	8d 85 c8 fe ff
	ff		 lea	 eax, DWORD PTR _moji$[ebp]
  002fd	50		 push	 eax
  002fe	e8 00 00 00 00	 call	 ?GetStrLastByte@@YAHPAD@Z ; GetStrLastByte
  00303	83 c4 04	 add	 esp, 4
  00306	83 f8 03	 cmp	 eax, 3
  00309	75 40		 jne	 SHORT $LN34@BattleButt

; 2591 : 											moji[ 23 ] = NULL;

  0030b	b8 01 00 00 00	 mov	 eax, 1
  00310	6b c8 17	 imul	 ecx, eax, 23
  00313	89 8d c0 fd ff
	ff		 mov	 DWORD PTR $T2[ebp], ecx
  00319	81 bd c0 fd ff
	ff 00 01 00 00	 cmp	 DWORD PTR $T2[ebp], 256	; 00000100H
  00323	73 02		 jae	 SHORT $LN57@BattleButt
  00325	eb 05		 jmp	 SHORT $LN58@BattleButt
$LN57@BattleButt:
  00327	e8 00 00 00 00	 call	 ___report_rangecheckfailure
$LN58@BattleButt:
  0032c	8b 95 c0 fd ff
	ff		 mov	 edx, DWORD PTR $T2[ebp]
  00332	c6 84 15 c8 fe
	ff ff 00	 mov	 BYTE PTR _moji$[ebp+edx], 0

; 2592 : 											splitPoint += 23;

  0033a	8b 85 bc fe ff
	ff		 mov	 eax, DWORD PTR _splitPoint$7[ebp]
  00340	83 c0 17	 add	 eax, 23			; 00000017H
  00343	89 85 bc fe ff
	ff		 mov	 DWORD PTR _splitPoint$7[ebp], eax

; 2593 : 										}else{

  00349	eb 3e		 jmp	 SHORT $LN35@BattleButt
$LN34@BattleButt:

; 2594 : 											moji[ 24 ] = NULL;

  0034b	b8 01 00 00 00	 mov	 eax, 1
  00350	6b c8 18	 imul	 ecx, eax, 24
  00353	89 8d b4 fd ff
	ff		 mov	 DWORD PTR $T1[ebp], ecx
  00359	81 bd b4 fd ff
	ff 00 01 00 00	 cmp	 DWORD PTR $T1[ebp], 256	; 00000100H
  00363	73 02		 jae	 SHORT $LN59@BattleButt
  00365	eb 05		 jmp	 SHORT $LN60@BattleButt
$LN59@BattleButt:
  00367	e8 00 00 00 00	 call	 ___report_rangecheckfailure
$LN60@BattleButt:
  0036c	8b 95 b4 fd ff
	ff		 mov	 edx, DWORD PTR $T1[ebp]
  00372	c6 84 15 c8 fe
	ff ff 00	 mov	 BYTE PTR _moji$[ebp+edx], 0

; 2595 : 											splitPoint += 24;

  0037a	8b 85 bc fe ff
	ff		 mov	 eax, DWORD PTR _splitPoint$7[ebp]
  00380	83 c0 18	 add	 eax, 24			; 00000018H
  00383	89 85 bc fe ff
	ff		 mov	 DWORD PTR _splitPoint$7[ebp], eax
$LN35@BattleButt:

; 2596 : 										}
; 2597 : 										StockFontBuffer( x, y, FONT_PRIO_FRONT, 0, moji, 0 ); y += 20;

  00389	6a 00		 push	 0
  0038b	8d 85 c8 fe ff
	ff		 lea	 eax, DWORD PTR _moji$[ebp]
  00391	50		 push	 eax
  00392	6a 00		 push	 0
  00394	6a 01		 push	 1
  00396	8b 4d d0	 mov	 ecx, DWORD PTR _y$[ebp]
  00399	51		 push	 ecx
  0039a	8b 55 dc	 mov	 edx, DWORD PTR _x$[ebp]
  0039d	52		 push	 edx
  0039e	e8 00 00 00 00	 call	 ?StockFontBuffer@@YAHHHDHPADH@Z ; StockFontBuffer
  003a3	83 c4 18	 add	 esp, 24			; 00000018H
  003a6	8b 45 d0	 mov	 eax, DWORD PTR _y$[ebp]
  003a9	83 c0 14	 add	 eax, 20			; 00000014H
  003ac	89 45 d0	 mov	 DWORD PTR _y$[ebp], eax

; 2598 : 									}else{

  003af	eb 35		 jmp	 SHORT $LN33@BattleButt
$LN32@BattleButt:

; 2599 : 										strcpy( moji, splitPoint );

  003b1	8b 85 bc fe ff
	ff		 mov	 eax, DWORD PTR _splitPoint$7[ebp]
  003b7	50		 push	 eax
  003b8	8d 8d c8 fe ff
	ff		 lea	 ecx, DWORD PTR _moji$[ebp]
  003be	51		 push	 ecx
  003bf	e8 00 00 00 00	 call	 _strcpy
  003c4	83 c4 08	 add	 esp, 8

; 2600 : 										StockFontBuffer( x, y, FONT_PRIO_FRONT, 0, moji, 0 );

  003c7	6a 00		 push	 0
  003c9	8d 85 c8 fe ff
	ff		 lea	 eax, DWORD PTR _moji$[ebp]
  003cf	50		 push	 eax
  003d0	6a 00		 push	 0
  003d2	6a 01		 push	 1
  003d4	8b 4d d0	 mov	 ecx, DWORD PTR _y$[ebp]
  003d7	51		 push	 ecx
  003d8	8b 55 dc	 mov	 edx, DWORD PTR _x$[ebp]
  003db	52		 push	 edx
  003dc	e8 00 00 00 00	 call	 ?StockFontBuffer@@YAHHHDHPADH@Z ; StockFontBuffer
  003e1	83 c4 18	 add	 esp, 24			; 00000018H

; 2601 : 										break;

  003e4	eb 05		 jmp	 SHORT $LN12@BattleButt
$LN33@BattleButt:

; 2602 : 									}
; 2603 : 								}

  003e6	e9 96 fe ff ff	 jmp	 $LN11@BattleButt
$LN12@BattleButt:

; 2604 : 								// ????????
; 2605 : 								if( mouse.onceState & MOUSE_LEFT_CRICK ){

  003eb	a1 2c 00 00 00	 mov	 eax, DWORD PTR ?mouse@@3UMOUSE@@A+44
  003f0	83 e0 01	 and	 eax, 1
  003f3	0f 84 74 01 00
	00		 je	 $LN30@BattleButt

; 2606 : 									// ????
; 2607 : 									if(	petSkill[ battlePetNoBak ][ i ].field != PETSKILL_FIELD_MAP ){

  003f9	69 05 00 00 00
	00 e6 02 00 00	 imul	 eax, DWORD PTR ?battlePetNoBak@@3HA, 742 ; battlePetNoBak
  00403	6b 4d f4 6a	 imul	 ecx, DWORD PTR _i$[ebp], 106
  00407	0f bf 94 08 04
	00 00 00	 movsx	 edx, WORD PTR ?petSkill@@3PAY06UPET_SKILL@@A[eax+ecx+4]
  0040f	83 fa 02	 cmp	 edx, 2
  00412	74 47		 je	 SHORT $LN37@BattleButt

; 2608 : #ifdef _VARY_WOLF
; 2609 : 										if(!((pet[battlePetNoBak].graNo==101428)&&(petSkill[battlePetNoBak][i].skillId==600))

  00414	69 05 00 00 00
	00 20 0b 00 00	 imul	 eax, DWORD PTR ?battlePetNoBak@@3HA, 2848 ; battlePetNoBak
  0041e	81 b8 04 00 00
	00 34 8c 01 00	 cmp	 DWORD PTR ?pet@@3PAUPET@@A[eax+4], 101428 ; 00018c34H
  00428	75 1e		 jne	 SHORT $LN40@BattleButt
  0042a	69 05 00 00 00
	00 e6 02 00 00	 imul	 eax, DWORD PTR ?battlePetNoBak@@3HA, 742 ; battlePetNoBak
  00434	6b 4d f4 6a	 imul	 ecx, DWORD PTR _i$[ebp], 106
  00438	0f bf 94 08 02
	00 00 00	 movsx	 edx, WORD PTR ?petSkill@@3PAY06UPET_SKILL@@A[eax+ecx+2]
  00440	81 fa 58 02 00
	00		 cmp	 edx, 600		; 00000258H
  00446	74 0e		 je	 SHORT $LN39@BattleButt
$LN40@BattleButt:

; 2610 : 											)
; 2611 : #endif
; 2612 : 											// ??????????????
; 2613 : #ifdef _BATTLESKILL				// (不可开) Syu ADD 战斗技能介面
; 2614 : 											BattleSetWazaHitBox( i , 0 ) ; 

  00448	6a 00		 push	 0
  0044a	8b 45 f4	 mov	 eax, DWORD PTR _i$[ebp]
  0044d	50		 push	 eax
  0044e	e8 00 00 00 00	 call	 ?BattleSetWazaHitBox@@YAXHH@Z ; BattleSetWazaHitBox
  00453	83 c4 08	 add	 esp, 8
$LN39@BattleButt:

; 2615 : #else
; 2616 : 										BattleSetWazaHitBox( i );
; 2617 : #endif
; 2618 : 									}else{

  00456	e9 12 01 00 00	 jmp	 $LN30@BattleButt
$LN37@BattleButt:

; 2619 : 										int flag = 0;

  0045b	c7 85 b0 fe ff
	ff 00 00 00 00	 mov	 DWORD PTR _flag$6[ebp], 0

; 2620 : 										int j;
; 2621 : 										// ?????????????????
; 2622 : 										for( j = 0 ; j < pet[ battlePetNoBak ].maxSkill ; j++ ){

  00465	c7 85 a4 fe ff
	ff 00 00 00 00	 mov	 DWORD PTR _j$5[ebp], 0
  0046f	eb 0f		 jmp	 SHORT $LN15@BattleButt
$LN13@BattleButt:
  00471	8b 85 a4 fe ff
	ff		 mov	 eax, DWORD PTR _j$5[ebp]
  00477	83 c0 01	 add	 eax, 1
  0047a	89 85 a4 fe ff
	ff		 mov	 DWORD PTR _j$5[ebp], eax
$LN15@BattleButt:
  00480	69 05 00 00 00
	00 20 0b 00 00	 imul	 eax, DWORD PTR ?battlePetNoBak@@3HA, 2848 ; battlePetNoBak
  0048a	8b 8d a4 fe ff
	ff		 mov	 ecx, DWORD PTR _j$5[ebp]
  00490	3b 88 44 00 00
	00		 cmp	 ecx, DWORD PTR ?pet@@3PAUPET@@A[eax+68]
  00496	7d 4d		 jge	 SHORT $LN14@BattleButt

; 2623 : 											// ????????
; 2624 : 											if( petSkill[ battlePetNoBak ][ j ].useFlag == TRUE ){

  00498	69 05 00 00 00
	00 e6 02 00 00	 imul	 eax, DWORD PTR ?battlePetNoBak@@3HA, 742 ; battlePetNoBak
  004a2	6b 8d a4 fe ff
	ff 6a		 imul	 ecx, DWORD PTR _j$5[ebp], 106
  004a9	0f bf 94 08 00
	00 00 00	 movsx	 edx, WORD PTR ?petSkill@@3PAY06UPET_SKILL@@A[eax+ecx]
  004b1	83 fa 01	 cmp	 edx, 1
  004b4	75 2d		 jne	 SHORT $LN41@BattleButt

; 2625 : 												// ????
; 2626 : 												if(	petSkill[ battlePetNoBak ][ j ].field != PETSKILL_FIELD_MAP ) flag++;

  004b6	69 05 00 00 00
	00 e6 02 00 00	 imul	 eax, DWORD PTR ?battlePetNoBak@@3HA, 742 ; battlePetNoBak
  004c0	6b 8d a4 fe ff
	ff 6a		 imul	 ecx, DWORD PTR _j$5[ebp], 106
  004c7	0f bf 94 08 04
	00 00 00	 movsx	 edx, WORD PTR ?petSkill@@3PAY06UPET_SKILL@@A[eax+ecx+4]
  004cf	83 fa 02	 cmp	 edx, 2
  004d2	74 0f		 je	 SHORT $LN41@BattleButt
  004d4	8b 85 b0 fe ff
	ff		 mov	 eax, DWORD PTR _flag$6[ebp]
  004da	83 c0 01	 add	 eax, 1
  004dd	89 85 b0 fe ff
	ff		 mov	 DWORD PTR _flag$6[ebp], eax
$LN41@BattleButt:

; 2627 : 											}
; 2628 : 										}

  004e3	eb 8c		 jmp	 SHORT $LN13@BattleButt
$LN14@BattleButt:

; 2629 : 										// ??????????
; 2630 : 										if( flag > 0 ){

  004e5	83 bd b0 fe ff
	ff 00		 cmp	 DWORD PTR _flag$6[ebp], 0
  004ec	7e 19		 jle	 SHORT $LN43@BattleButt

; 2631 : 											// ???
; 2632 : 											play_se( 220, 320, 240 );

  004ee	68 f0 00 00 00	 push	 240			; 000000f0H
  004f3	68 40 01 00 00	 push	 320			; 00000140H
  004f8	68 dc 00 00 00	 push	 220			; 000000dcH
  004fd	e8 00 00 00 00	 call	 ?play_se@@YAHHHH@Z	; play_se
  00502	83 c4 0c	 add	 esp, 12			; 0000000cH

; 2633 : 										}
; 2634 : 										// ??????
; 2635 : 										else{

  00505	eb 66		 jmp	 SHORT $LN30@BattleButt
$LN43@BattleButt:

; 2636 : 											BattleButtonOff(); // ????????????

  00507	e8 00 00 00 00	 call	 ?BattleButtonOff@@YAXXZ	; BattleButtonOff

; 2637 : 											//battleMenuReturn = TRUE;
; 2638 : 											ClearBoxFlag();

  0050c	e8 00 00 00 00	 call	 ?ClearBoxFlag@@YAXXZ	; ClearBoxFlag

; 2639 : 											// ???????????
; 2640 : 											if( bNewServer)

  00511	83 3d 00 00 00
	00 00		 cmp	 DWORD PTR ?bNewServer@@3HA, 0 ; bNewServer
  00518	74 15		 je	 SHORT $LN45@BattleButt

; 2641 : 												lssproto_B_send( sockfd, "W|FF|FF" );

  0051a	68 00 00 00 00	 push	 OFFSET ??_C@_07BDJJCCFL@W?$HMFF?$HMFF?$AA@
  0051f	a1 00 00 00 00	 mov	 eax, DWORD PTR ?sockfd@@3IA ; sockfd
  00524	50		 push	 eax
  00525	e8 00 00 00 00	 call	 ?lssproto_B_send@@YAXHPAD@Z ; lssproto_B_send
  0052a	83 c4 08	 add	 esp, 8

; 2642 : 											else

  0052d	eb 13		 jmp	 SHORT $LN46@BattleButt
$LN45@BattleButt:

; 2643 : 												old_lssproto_B_send( sockfd, "W|FF|FF" );

  0052f	68 00 00 00 00	 push	 OFFSET ??_C@_07BDJJCCFL@W?$HMFF?$HMFF?$AA@
  00534	a1 00 00 00 00	 mov	 eax, DWORD PTR ?sockfd@@3IA ; sockfd
  00539	50		 push	 eax
  0053a	e8 00 00 00 00	 call	 ?old_lssproto_B_send@@YAXHPAD@Z ; old_lssproto_B_send
  0053f	83 c4 08	 add	 esp, 8
$LN46@BattleButt:

; 2644 : 											// ????????
; 2645 : 											play_se( 203, 320, 240 );

  00542	68 f0 00 00 00	 push	 240			; 000000f0H
  00547	68 40 01 00 00	 push	 320			; 00000140H
  0054c	68 cb 00 00 00	 push	 203			; 000000cbH
  00551	e8 00 00 00 00	 call	 ?play_se@@YAHHHH@Z	; play_se
  00556	83 c4 0c	 add	 esp, 12			; 0000000cH

; 2646 : 											// ????????
; 2647 : 											battleWazaTargetBak = -1;

  00559	c7 05 00 00 00
	00 ff ff ff ff	 mov	 DWORD PTR ?battleWazaTargetBak@@3HA, -1 ; battleWazaTargetBak

; 2648 : 											// ??????????????
; 2649 : 											battleTargetSelectFlag = FALSE;

  00563	c7 05 00 00 00
	00 00 00 00 00	 mov	 DWORD PTR ?battleTargetSelectFlag@@3HA, 0
$LN30@BattleButt:

; 2650 : 										}
; 2651 : 									}
; 2652 : 								}
; 2653 : 							}
; 2654 : 						}
; 2655 : 					}

  0056d	e9 9d fc ff ff	 jmp	 $LN8@BattleButt
$LN9@BattleButt:

; 2656 : /*
; 2657 : #ifndef __AI
; 2658 : 					//cary 宠物的自动战斗
; 2659 : 					if( !PauseAI && AI!=AI_NONE && FALSE==battleTargetSelectFlag){
; 2660 : 						if( (BattleIntervalCnt==0 && (BattleCntDown-TimeGetTime())<=29000) || BattleIntervalCnt<TimeGetTime()){
; 2661 : 							BattleIntervalCnt = TimeGetTime()+500;
; 2662 : 							int first = -1;
; 2663 : 							int firstattack = -1;
; 2664 : 							DWORD ai = AI;
; 2665 : 							if( ai == AI_SELECT){
; 2666 : 								if( pet[ battlePetNoBak ].maxHp*3/10 > pet[ battlePetNoBak ].hp)
; 2667 : 									ai = AI_GUARD;
; 2668 : 								else
; 2669 : 									ai = AI_ATTACK;
; 2670 : 							}
; 2671 : 							for( i = 0 ; i < pet[ battlePetNoBak ].maxSkill ; i++ ){
; 2672 : 								if( petSkill[ battlePetNoBak ][ i ].useFlag == TRUE && 
; 2673 : 									petSkill[ battlePetNoBak ][ i ].field != PETSKILL_FIELD_MAP ){
; 2674 : 									if( first == -1)
; 2675 : 										first = i;
; 2676 : 									if( ai == AI_ATTACK){
; 2677 : 										if( petSkill[ battlePetNoBak ][ i ].skillId!=2 && firstattack==-1)
; 2678 : 											firstattack = i;
; 2679 : 										if( petSkill[ battlePetNoBak ][ i ].skillId == 1){
; 2680 : #ifdef _BATTLESKILL				// (不可开) Syu ADD 战斗技能介面
; 2681 : 											BattleSetWazaHitBox( i , 0 );
; 2682 : 
; 2683 : #else
; 2684 : 											BattleSetWazaHitBox( i );
; 2685 : #endif
; 2686 : 											break;
; 2687 : 										}
; 2688 : 									}else if( ai == AI_GUARD){
; 2689 : 										if( petSkill[ battlePetNoBak ][ i ].skillId == 2){
; 2690 : #ifdef _BATTLESKILL				// (不可开) Syu ADD 战斗技能介面
; 2691 : 											BattleSetWazaHitBox( i , 0 );
; 2692 : #else
; 2693 : 											BattleSetWazaHitBox( i );
; 2694 : #endif
; 2695 : 											break;
; 2696 : 										}
; 2697 : 									}
; 2698 : 								}
; 2699 : 							}
; 2700 : 							if( i==pet[ battlePetNoBak ].maxSkill){
; 2701 : 								if( ai==AI_ATTACK && firstattack!=-1)
; 2702 : 									first = firstattack;
; 2703 : 								if( first == -1){
; 2704 : 									// ??????????????
; 2705 : 									battleTargetSelectFlag = TRUE;
; 2706 : 									// ???????????
; 2707 : 									DeathAction( pActWnd );
; 2708 : 									pActWnd = NULL;
; 2709 : 									// ?????????
; 2710 : 									ClearBattleButton();
; 2711 : 									// ?????
; 2712 : 									//play_se( 217, 320, 240 );
; 2713 : 								}else
; 2714 : #ifdef _BATTLESKILL				// (不可开) Syu ADD 战斗技能介面
; 2715 : 									BattleSetWazaHitBox( first , 0 );
; 2716 : #else
; 2717 : 									BattleSetWazaHitBox( first );
; 2718 : #endif
; 2719 : 							}
; 2720 : 						}
; 2721 : 					}
; 2722 : #endif
; 2723 : */
; 2724 : 					// ?????????
; 2725 : 					if( pActWnd != NULL ){

  00572	83 3d 00 00 00
	00 00		 cmp	 DWORD PTR ?pActWnd@@3PAUaction@@A, 0
  00579	0f 84 07 02 00
	00		 je	 $LN54@BattleButt

; 2726 : 						// ?
; 2727 : 						x = pActWnd->x + 40;

  0057f	a1 00 00 00 00	 mov	 eax, DWORD PTR ?pActWnd@@3PAUaction@@A
  00584	8b 48 18	 mov	 ecx, DWORD PTR [eax+24]
  00587	83 c1 28	 add	 ecx, 40			; 00000028H
  0058a	89 4d dc	 mov	 DWORD PTR _x$[ebp], ecx

; 2728 : 						y = pActWnd->y + 32;

  0058d	a1 00 00 00 00	 mov	 eax, DWORD PTR ?pActWnd@@3PAUaction@@A
  00592	8b 48 1c	 mov	 ecx, DWORD PTR [eax+28]
  00595	83 c1 20	 add	 ecx, 32			; 00000020H
  00598	89 4d d0	 mov	 DWORD PTR _y$[ebp], ecx

; 2729 : 						// ??????
; 2730 : 						if( pet[ battlePetNoBak ].freeName[ 0 ] != NULL )

  0059b	69 05 00 00 00
	00 20 0b 00 00	 imul	 eax, DWORD PTR ?battlePetNoBak@@3HA, 2848 ; battlePetNoBak
  005a5	b9 01 00 00 00	 mov	 ecx, 1
  005aa	6b d1 00	 imul	 edx, ecx, 0
  005ad	0f be 84 10 65
	00 00 00	 movsx	 eax, BYTE PTR ?pet@@3PAUPET@@A[eax+edx+101]
  005b5	85 c0		 test	 eax, eax
  005b7	74 24		 je	 SHORT $LN48@BattleButt

; 2731 : 							CenteringStr( pet[ battlePetNoBak ].freeName, moji, PET_NAME_LEN );

  005b9	6a 10		 push	 16			; 00000010H
  005bb	8d 85 c8 fe ff
	ff		 lea	 eax, DWORD PTR _moji$[ebp]
  005c1	50		 push	 eax
  005c2	69 0d 00 00 00
	00 20 0b 00 00	 imul	 ecx, DWORD PTR ?battlePetNoBak@@3HA, 2848 ; battlePetNoBak
  005cc	81 c1 65 00 00
	00		 add	 ecx, OFFSET ?pet@@3PAUPET@@A+101
  005d2	51		 push	 ecx
  005d3	e8 00 00 00 00	 call	 ?CenteringStr@@YAXPAD0H@Z ; CenteringStr
  005d8	83 c4 0c	 add	 esp, 12			; 0000000cH

; 2732 : 						else

  005db	eb 22		 jmp	 SHORT $LN49@BattleButt
$LN48@BattleButt:

; 2733 : 							CenteringStr( pet[ battlePetNoBak ].name, moji, PET_NAME_LEN );

  005dd	6a 10		 push	 16			; 00000010H
  005df	8d 85 c8 fe ff
	ff		 lea	 eax, DWORD PTR _moji$[ebp]
  005e5	50		 push	 eax
  005e6	69 0d 00 00 00
	00 20 0b 00 00	 imul	 ecx, DWORD PTR ?battlePetNoBak@@3HA, 2848 ; battlePetNoBak
  005f0	81 c1 54 00 00
	00		 add	 ecx, OFFSET ?pet@@3PAUPET@@A+84
  005f6	51		 push	 ecx
  005f7	e8 00 00 00 00	 call	 ?CenteringStr@@YAXPAD0H@Z ; CenteringStr
  005fc	83 c4 0c	 add	 esp, 12			; 0000000cH
$LN49@BattleButt:

; 2734 : 							StockFontBuffer( x - 28, y, FONT_PRIO_FRONT, 0, moji, 0 ); y += 26; x += 18;

  005ff	6a 00		 push	 0
  00601	8d 85 c8 fe ff
	ff		 lea	 eax, DWORD PTR _moji$[ebp]
  00607	50		 push	 eax
  00608	6a 00		 push	 0
  0060a	6a 01		 push	 1
  0060c	8b 4d d0	 mov	 ecx, DWORD PTR _y$[ebp]
  0060f	51		 push	 ecx
  00610	8b 55 dc	 mov	 edx, DWORD PTR _x$[ebp]
  00613	83 ea 1c	 sub	 edx, 28			; 0000001cH
  00616	52		 push	 edx
  00617	e8 00 00 00 00	 call	 ?StockFontBuffer@@YAHHHDHPADH@Z ; StockFontBuffer
  0061c	83 c4 18	 add	 esp, 24			; 00000018H
  0061f	8b 45 d0	 mov	 eax, DWORD PTR _y$[ebp]
  00622	83 c0 1a	 add	 eax, 26			; 0000001aH
  00625	89 45 d0	 mov	 DWORD PTR _y$[ebp], eax
  00628	8b 45 dc	 mov	 eax, DWORD PTR _x$[ebp]
  0062b	83 c0 12	 add	 eax, 18			; 00000012H
  0062e	89 45 dc	 mov	 DWORD PTR _x$[ebp], eax

; 2735 : 						// ?
; 2736 : 						for( i = 0 ; i < pet[ battlePetNoBak ].maxSkill ; i++ ){

  00631	c7 45 f4 00 00
	00 00		 mov	 DWORD PTR _i$[ebp], 0
  00638	eb 09		 jmp	 SHORT $LN18@BattleButt
$LN16@BattleButt:
  0063a	8b 45 f4	 mov	 eax, DWORD PTR _i$[ebp]
  0063d	83 c0 01	 add	 eax, 1
  00640	89 45 f4	 mov	 DWORD PTR _i$[ebp], eax
$LN18@BattleButt:
  00643	69 05 00 00 00
	00 20 0b 00 00	 imul	 eax, DWORD PTR ?battlePetNoBak@@3HA, 2848 ; battlePetNoBak
  0064d	8b 4d f4	 mov	 ecx, DWORD PTR _i$[ebp]
  00650	3b 88 44 00 00
	00		 cmp	 ecx, DWORD PTR ?pet@@3PAUPET@@A[eax+68]
  00656	0f 8d e9 00 00
	00		 jge	 $LN17@BattleButt

; 2737 : 							// ????????
; 2738 : 							if( petSkill[ battlePetNoBak ][ i ].useFlag == TRUE ){

  0065c	69 05 00 00 00
	00 e6 02 00 00	 imul	 eax, DWORD PTR ?battlePetNoBak@@3HA, 742 ; battlePetNoBak
  00666	6b 4d f4 6a	 imul	 ecx, DWORD PTR _i$[ebp], 106
  0066a	0f bf 94 08 00
	00 00 00	 movsx	 edx, WORD PTR ?petSkill@@3PAY06UPET_SKILL@@A[eax+ecx]
  00672	83 fa 01	 cmp	 edx, 1
  00675	0f 85 bc 00 00
	00		 jne	 $LN50@BattleButt

; 2739 : 								int color = FONT_PAL_GRAY;

  0067b	c7 85 98 fe ff
	ff 07 00 00 00	 mov	 DWORD PTR _color$4[ebp], 7

; 2740 : 								//cary
; 2741 : 								sprintf( moji,"       %-22s",petSkill[ battlePetNoBak ][ i ].name );

  00685	69 05 00 00 00
	00 e6 02 00 00	 imul	 eax, DWORD PTR ?battlePetNoBak@@3HA, 742 ; battlePetNoBak
  0068f	6b 4d f4 6a	 imul	 ecx, DWORD PTR _i$[ebp], 106
  00693	8d 94 08 08 00
	00 00		 lea	 edx, DWORD PTR ?petSkill@@3PAY06UPET_SKILL@@A[eax+ecx+8]
  0069a	52		 push	 edx
  0069b	68 00 00 00 00	 push	 OFFSET ??_C@_0N@DBNACIMP@?5?5?5?5?5?5?5?$CF?922s?$AA@
  006a0	8d 85 c8 fe ff
	ff		 lea	 eax, DWORD PTR _moji$[ebp]
  006a6	50		 push	 eax
  006a7	e8 00 00 00 00	 call	 _sprintf
  006ac	83 c4 0c	 add	 esp, 12			; 0000000cH

; 2742 : 								//end
; 2743 : 								// ????
; 2744 : 								if(	petSkill[ battlePetNoBak ][ i ].field != PETSKILL_FIELD_MAP ){

  006af	69 05 00 00 00
	00 e6 02 00 00	 imul	 eax, DWORD PTR ?battlePetNoBak@@3HA, 742 ; battlePetNoBak
  006b9	6b 4d f4 6a	 imul	 ecx, DWORD PTR _i$[ebp], 106
  006bd	0f bf 94 08 04
	00 00 00	 movsx	 edx, WORD PTR ?petSkill@@3PAY06UPET_SKILL@@A[eax+ecx+4]
  006c5	83 fa 02	 cmp	 edx, 2
  006c8	74 3e		 je	 SHORT $LN51@BattleButt

; 2745 : #ifdef _VARY_WOLF
; 2746 : 									if(!((pet[battlePetNoBak].graNo==101428)&&(petSkill[battlePetNoBak][i].skillId==600))

  006ca	69 05 00 00 00
	00 20 0b 00 00	 imul	 eax, DWORD PTR ?battlePetNoBak@@3HA, 2848 ; battlePetNoBak
  006d4	81 b8 04 00 00
	00 34 8c 01 00	 cmp	 DWORD PTR ?pet@@3PAUPET@@A[eax+4], 101428 ; 00018c34H
  006de	75 1e		 jne	 SHORT $LN53@BattleButt
  006e0	69 05 00 00 00
	00 e6 02 00 00	 imul	 eax, DWORD PTR ?battlePetNoBak@@3HA, 742 ; battlePetNoBak
  006ea	6b 4d f4 6a	 imul	 ecx, DWORD PTR _i$[ebp], 106
  006ee	0f bf 94 08 02
	00 00 00	 movsx	 edx, WORD PTR ?petSkill@@3PAY06UPET_SKILL@@A[eax+ecx+2]
  006f6	81 fa 58 02 00
	00		 cmp	 edx, 600		; 00000258H
  006fc	74 0a		 je	 SHORT $LN51@BattleButt
$LN53@BattleButt:

; 2747 : 										)
; 2748 : #endif
; 2749 : 										color = FONT_PAL_WHITE;

  006fe	c7 85 98 fe ff
	ff 00 00 00 00	 mov	 DWORD PTR _color$4[ebp], 0
$LN51@BattleButt:

; 2750 : 								}
; 2751 : 								battleMenuWazaFontNo[ i ] = StockFontBuffer( x - 43, y, FONT_PRIO_FRONT, color, moji, 2 );

  00708	6a 02		 push	 2
  0070a	8d 85 c8 fe ff
	ff		 lea	 eax, DWORD PTR _moji$[ebp]
  00710	50		 push	 eax
  00711	8b 8d 98 fe ff
	ff		 mov	 ecx, DWORD PTR _color$4[ebp]
  00717	51		 push	 ecx
  00718	6a 01		 push	 1
  0071a	8b 55 d0	 mov	 edx, DWORD PTR _y$[ebp]
  0071d	52		 push	 edx
  0071e	8b 45 dc	 mov	 eax, DWORD PTR _x$[ebp]
  00721	83 e8 2b	 sub	 eax, 43			; 0000002bH
  00724	50		 push	 eax
  00725	e8 00 00 00 00	 call	 ?StockFontBuffer@@YAHHHDHPADH@Z ; StockFontBuffer
  0072a	83 c4 18	 add	 esp, 24			; 00000018H
  0072d	8b 4d f4	 mov	 ecx, DWORD PTR _i$[ebp]
  00730	89 04 8d 00 00
	00 00		 mov	 DWORD PTR ?battleMenuWazaFontNo@@3PAHA[ecx*4], eax
$LN50@BattleButt:

; 2752 : 							}
; 2753 : 							y += 25;

  00737	8b 45 d0	 mov	 eax, DWORD PTR _y$[ebp]
  0073a	83 c0 19	 add	 eax, 25			; 00000019H
  0073d	89 45 d0	 mov	 DWORD PTR _y$[ebp], eax

; 2754 : 						}

  00740	e9 f5 fe ff ff	 jmp	 $LN16@BattleButt
$LN17@BattleButt:

; 2755 : 						// ?
; 2756 : 						y = pActWnd->y + 330;

  00745	a1 00 00 00 00	 mov	 eax, DWORD PTR ?pActWnd@@3PAUaction@@A
  0074a	8b 48 1c	 mov	 ecx, DWORD PTR [eax+28]
  0074d	81 c1 4a 01 00
	00		 add	 ecx, 330		; 0000014aH
  00753	89 4d d0	 mov	 DWORD PTR _y$[ebp], ecx

; 2757 : 						// ?????????
; 2758 : 						battleMenuWazaFontNo[ 7 ] = StockDispBuffer( ( ( WINDOW_DISP *)pActWnd->pYobi )->mx, y, DISP_PRIO_IME3, CG_CLOSE_BTN, 2 );

  00756	6a 02		 push	 2
  00758	68 ba 65 00 00	 push	 26042			; 000065baH
  0075d	6a 69		 push	 105			; 00000069H
  0075f	8b 45 d0	 mov	 eax, DWORD PTR _y$[ebp]
  00762	50		 push	 eax
  00763	8b 0d 00 00 00
	00		 mov	 ecx, DWORD PTR ?pActWnd@@3PAUaction@@A
  00769	8b 51 0c	 mov	 edx, DWORD PTR [ecx+12]
  0076c	8b 42 14	 mov	 eax, DWORD PTR [edx+20]
  0076f	50		 push	 eax
  00770	e8 00 00 00 00	 call	 ?StockDispBuffer@@YAHHHEHH@Z ; StockDispBuffer
  00775	83 c4 14	 add	 esp, 20			; 00000014H
  00778	b9 04 00 00 00	 mov	 ecx, 4
  0077d	6b d1 07	 imul	 edx, ecx, 7
  00780	89 82 00 00 00
	00		 mov	 DWORD PTR ?battleMenuWazaFontNo@@3PAHA[edx], eax
$LN54@BattleButt:

; 2759 : 					}
; 2760 : 				}
; 2761 : 			}
; 2762 : 		}
; 2763 : 	}
; 2764 : }

  00786	52		 push	 edx
  00787	8b cd		 mov	 ecx, ebp
  00789	50		 push	 eax
  0078a	8d 15 00 00 00
	00		 lea	 edx, DWORD PTR $LN63@BattleButt
  00790	e8 00 00 00 00	 call	 @_RTC_CheckStackVars@8
  00795	58		 pop	 eax
  00796	5a		 pop	 edx
  00797	5f		 pop	 edi
  00798	5e		 pop	 esi
  00799	5b		 pop	 ebx
  0079a	8b 4d fc	 mov	 ecx, DWORD PTR __$ArrayPad$[ebp]
  0079d	33 cd		 xor	 ecx, ebp
  0079f	e8 00 00 00 00	 call	 @__security_check_cookie@4
  007a4	81 c4 50 02 00
	00		 add	 esp, 592		; 00000250H
  007aa	3b ec		 cmp	 ebp, esp
  007ac	e8 00 00 00 00	 call	 __RTC_CheckEsp
  007b1	8b e5		 mov	 esp, ebp
  007b3	5d		 pop	 ebp
  007b4	c3		 ret	 0
  007b5	0f 1f 00	 npad	 3
$LN63@BattleButt:
  007b8	01 00 00 00	 DD	 1
  007bc	00 00 00 00	 DD	 $LN62@BattleButt
$LN62@BattleButt:
  007c0	c8 fe ff ff	 DD	 -312			; fffffec8H
  007c4	00 01 00 00	 DD	 256			; 00000100H
  007c8	00 00 00 00	 DD	 $LN61@BattleButt
$LN61@BattleButt:
  007cc	6d		 DB	 109			; 0000006dH
  007cd	6f		 DB	 111			; 0000006fH
  007ce	6a		 DB	 106			; 0000006aH
  007cf	69		 DB	 105			; 00000069H
  007d0	00		 DB	 0
?BattleButtonWaza@@YAXXZ ENDP				; BattleButtonWaza
_TEXT	ENDS
; Function compile flags: /Odtp /RTCsu /ZI
; File c:\users\administrator\desktop\????? ??\????? ??\client source code\system\battlemenu.cpp
;	COMDAT ?BattleButtonEscape@@YAXXZ
_TEXT	SEGMENT
?BattleButtonEscape@@YAXXZ PROC				; BattleButtonEscape, COMDAT

; 2002 : {

  00000	55		 push	 ebp
  00001	8b ec		 mov	 ebp, esp
  00003	81 ec c0 00 00
	00		 sub	 esp, 192		; 000000c0H
  00009	53		 push	 ebx
  0000a	56		 push	 esi
  0000b	57		 push	 edi
  0000c	8d bd 40 ff ff
	ff		 lea	 edi, DWORD PTR [ebp-192]
  00012	b9 30 00 00 00	 mov	 ecx, 48			; 00000030H
  00017	b8 cc cc cc cc	 mov	 eax, -858993460		; ccccccccH
  0001c	f3 ab		 rep stosd

; 2003 : 	if( HitDispNo == battleButtonDispNo[ 7 ] && battleButtonFlag[ 7 ] == FALSE ){

  0001e	b8 04 00 00 00	 mov	 eax, 4
  00023	6b c8 07	 imul	 ecx, eax, 7
  00026	8b 15 00 00 00
	00		 mov	 edx, DWORD PTR ?HitDispNo@@3HA ; HitDispNo
  0002c	3b 91 00 00 00
	00		 cmp	 edx, DWORD PTR ?battleButtonDispNo@@3PAHA[ecx]
  00032	0f 85 bc 00 00
	00		 jne	 $LN1@BattleButt
  00038	b8 04 00 00 00	 mov	 eax, 4
  0003d	6b c8 07	 imul	 ecx, eax, 7
  00040	83 b9 00 00 00
	00 00		 cmp	 DWORD PTR ?battleButtonFlag@@3PAHA[ecx], 0
  00047	0f 85 a7 00 00
	00		 jne	 $LN1@BattleButt

; 2004 : 
; 2005 : 		if( mouse.onceState & MOUSE_LEFT_CRICK ){

  0004d	a1 2c 00 00 00	 mov	 eax, DWORD PTR ?mouse@@3UMOUSE@@A+44
  00052	83 e0 01	 and	 eax, 1
  00055	0f 84 87 00 00
	00		 je	 $LN3@BattleButt

; 2006 : 			BattleButtonOff();

  0005b	e8 00 00 00 00	 call	 ?BattleButtonOff@@YAXXZ	; BattleButtonOff

; 2007 : 			battleButtonFlag[ 7 ] = TRUE;

  00060	b8 04 00 00 00	 mov	 eax, 4
  00065	6b c8 07	 imul	 ecx, eax, 7
  00068	c7 81 00 00 00
	00 01 00 00 00	 mov	 DWORD PTR ?battleButtonFlag@@3PAHA[ecx], 1

; 2008 : 			// ??
; 2009 : 			if( bNewServer)

  00072	83 3d 00 00 00
	00 00		 cmp	 DWORD PTR ?bNewServer@@3HA, 0 ; bNewServer
  00079	74 15		 je	 SHORT $LN4@BattleButt

; 2010 : 				lssproto_B_send( sockfd, "E" );

  0007b	68 00 00 00 00	 push	 OFFSET ??_C@_01DDCIFGEA@E?$AA@
  00080	a1 00 00 00 00	 mov	 eax, DWORD PTR ?sockfd@@3IA ; sockfd
  00085	50		 push	 eax
  00086	e8 00 00 00 00	 call	 ?lssproto_B_send@@YAXHPAD@Z ; lssproto_B_send
  0008b	83 c4 08	 add	 esp, 8

; 2011 : 			else

  0008e	eb 13		 jmp	 SHORT $LN5@BattleButt
$LN4@BattleButt:

; 2012 : 				old_lssproto_B_send( sockfd, "E" );

  00090	68 00 00 00 00	 push	 OFFSET ??_C@_01DDCIFGEA@E?$AA@
  00095	a1 00 00 00 00	 mov	 eax, DWORD PTR ?sockfd@@3IA ; sockfd
  0009a	50		 push	 eax
  0009b	e8 00 00 00 00	 call	 ?old_lssproto_B_send@@YAXHPAD@Z ; old_lssproto_B_send
  000a0	83 c4 08	 add	 esp, 8
$LN5@BattleButt:

; 2013 : 			// ??????????
; 2014 : 			battlePlayerEscFlag = TRUE;

  000a3	c7 05 00 00 00
	00 01 00 00 00	 mov	 DWORD PTR ?battlePlayerEscFlag@@3HA, 1 ; battlePlayerEscFlag

; 2015 : 			// ??????
; 2016 : 			battleMenuReturn = TRUE;

  000ad	c7 05 00 00 00
	00 01 00 00 00	 mov	 DWORD PTR ?battleMenuReturn@@3HA, 1

; 2017 : 			// ????????
; 2018 : 			battleButtonBak = -1;

  000b7	c7 05 00 00 00
	00 ff ff ff ff	 mov	 DWORD PTR ?battleButtonBak@@3HA, -1 ; battleButtonBak

; 2019 : 			// ????????
; 2020 : 			battleButtonBak2 = -1;

  000c1	c7 05 00 00 00
	00 ff ff ff ff	 mov	 DWORD PTR ?battleButtonBak2@@3HA, -1

; 2021 : 			// ????????
; 2022 : 			play_se( 203, 320, 240 );

  000cb	68 f0 00 00 00	 push	 240			; 000000f0H
  000d0	68 40 01 00 00	 push	 320			; 00000140H
  000d5	68 cb 00 00 00	 push	 203			; 000000cbH
  000da	e8 00 00 00 00	 call	 ?play_se@@YAHHHH@Z	; play_se
  000df	83 c4 0c	 add	 esp, 12			; 0000000cH
$LN3@BattleButt:

; 2023 : 		}
; 2024 : 		// ??????
; 2025 : 		strcpy( OneLineInfoStr, "탈출。");

  000e2	68 00 00 00 00	 push	 OFFSET ??_C@_06DOILANO@?E?$LL?C?b?$KB?$KD?$AA@
  000e7	68 00 00 00 00	 push	 OFFSET ?OneLineInfoStr@@3PADA ; OneLineInfoStr
  000ec	e8 00 00 00 00	 call	 _strcpy
  000f1	83 c4 08	 add	 esp, 8
$LN1@BattleButt:

; 2026 : 	}
; 2027 : }

  000f4	5f		 pop	 edi
  000f5	5e		 pop	 esi
  000f6	5b		 pop	 ebx
  000f7	81 c4 c0 00 00
	00		 add	 esp, 192		; 000000c0H
  000fd	3b ec		 cmp	 ebp, esp
  000ff	e8 00 00 00 00	 call	 __RTC_CheckEsp
  00104	8b e5		 mov	 esp, ebp
  00106	5d		 pop	 ebp
  00107	c3		 ret	 0
?BattleButtonEscape@@YAXXZ ENDP				; BattleButtonEscape
_TEXT	ENDS
; Function compile flags: /Odtp /RTCsu /ZI
; File c:\users\administrator\desktop\????? ??\????? ??\client source code\system\battlemenu.cpp
;	COMDAT ?BattleButtonPPLSKILL@@YAXXZ
_TEXT	SEGMENT
tv151 = -1400						; size = 4
tv88 = -1400						; size = 4
$T1 = -1392						; size = 4
$T2 = -1380						; size = 4
$T3 = -1368						; size = 4
_splitPoint$4 = -972					; size = 4
_use_color$5 = -960					; size = 4
_j$6 = -948						; size = 4
_i$7 = -936						; size = 4
_use_color$8 = -924					; size = 4
_j$9 = -912						; size = 4
_i$10 = -900						; size = 4
_use_color$11 = -888					; size = 4
_j$12 = -876						; size = 4
_i$13 = -864						; size = 4
_j$14 = -852						; size = 4
_i$15 = -840						; size = 4
_y$16 = -828						; size = 4
_x$17 = -816						; size = 4
_i$18 = -804						; size = 4
_msg2$ = -792						; size = 256
_buf$ = -528						; size = 256
_msg$ = -264						; size = 256
__$ArrayPad$ = -4					; size = 4
?BattleButtonPPLSKILL@@YAXXZ PROC			; BattleButtonPPLSKILL, COMDAT

; 1748 : {

  00000	55		 push	 ebp
  00001	8b ec		 mov	 ebp, esp
  00003	81 ec 78 05 00
	00		 sub	 esp, 1400		; 00000578H
  00009	53		 push	 ebx
  0000a	56		 push	 esi
  0000b	57		 push	 edi
  0000c	8d bd 88 fa ff
	ff		 lea	 edi, DWORD PTR [ebp-1400]
  00012	b9 5e 01 00 00	 mov	 ecx, 350		; 0000015eH
  00017	b8 cc cc cc cc	 mov	 eax, -858993460		; ccccccccH
  0001c	f3 ab		 rep stosd
  0001e	a1 00 00 00 00	 mov	 eax, DWORD PTR ___security_cookie
  00023	33 c5		 xor	 eax, ebp
  00025	89 45 fc	 mov	 DWORD PTR __$ArrayPad$[ebp], eax

; 1749 : 	if ( MenuToggleFlag & JOY_ESC || MenuToggleFlag & JOY_CTRL_E || MenuToggleFlag & JOY_CTRL_A) {

  00028	a1 00 00 00 00	 mov	 eax, DWORD PTR ?MenuToggleFlag@@3IA ; MenuToggleFlag
  0002d	25 00 00 00 80	 and	 eax, -2147483648	; 80000000H
  00032	75 18		 jne	 SHORT $LN34@BattleButt
  00034	a1 00 00 00 00	 mov	 eax, DWORD PTR ?MenuToggleFlag@@3IA ; MenuToggleFlag
  00039	25 00 00 00 04	 and	 eax, 67108864		; 04000000H
  0003e	75 0c		 jne	 SHORT $LN34@BattleButt
  00040	a1 00 00 00 00	 mov	 eax, DWORD PTR ?MenuToggleFlag@@3IA ; MenuToggleFlag
  00045	25 00 00 00 02	 and	 eax, 33554432		; 02000000H
  0004a	74 05		 je	 SHORT $LN33@BattleButt
$LN34@BattleButt:

; 1750 : 		//play_se( 220, 320, 240 );
; 1751 : 		return; 

  0004c	e9 01 13 00 00	 jmp	 $LN78@BattleButt
$LN33@BattleButt:

; 1752 : 	}
; 1753 : 	char msg[256] = "";

  00051	a0 00 00 00 00	 mov	 al, BYTE PTR ??_C@_00CNPNBAHC@?$AA@
  00056	88 85 f8 fe ff
	ff		 mov	 BYTE PTR _msg$[ebp], al
  0005c	68 ff 00 00 00	 push	 255			; 000000ffH
  00061	6a 00		 push	 0
  00063	8d 85 f9 fe ff
	ff		 lea	 eax, DWORD PTR _msg$[ebp+1]
  00069	50		 push	 eax
  0006a	e8 00 00 00 00	 call	 _memset
  0006f	83 c4 0c	 add	 esp, 12			; 0000000cH

; 1754 : 	char buf[256];
; 1755 : 	char msg2[256];
; 1756 : 	if( HitDispNo == battleButtonDispNo[ 9 ] ){

  00072	b8 04 00 00 00	 mov	 eax, 4
  00077	6b c8 09	 imul	 ecx, eax, 9
  0007a	8b 15 00 00 00
	00		 mov	 edx, DWORD PTR ?HitDispNo@@3HA ; HitDispNo
  00080	3b 91 00 00 00
	00		 cmp	 edx, DWORD PTR ?battleButtonDispNo@@3PAHA[ecx]
  00086	0f 85 a3 00 00
	00		 jne	 $LN35@BattleButt

; 1757 : 		if( mouse.onceState & MOUSE_LEFT_CRICK ){

  0008c	a1 2c 00 00 00	 mov	 eax, DWORD PTR ?mouse@@3UMOUSE@@A+44
  00091	83 e0 01	 and	 eax, 1
  00094	0f 84 83 00 00
	00		 je	 $LN36@BattleButt

; 1758 : 			play_se( 217, 320, 240 );

  0009a	68 f0 00 00 00	 push	 240			; 000000f0H
  0009f	68 40 01 00 00	 push	 320			; 00000140H
  000a4	68 d9 00 00 00	 push	 217			; 000000d9H
  000a9	e8 00 00 00 00	 call	 ?play_se@@YAHHHH@Z	; play_se
  000ae	83 c4 0c	 add	 esp, 12			; 0000000cH

; 1759 : 			DeathAction( pActWnd );

  000b1	a1 00 00 00 00	 mov	 eax, DWORD PTR ?pActWnd@@3PAUaction@@A
  000b6	50		 push	 eax
  000b7	e8 00 00 00 00	 call	 ?DeathAction@@YAXPAUaction@@@Z ; DeathAction
  000bc	83 c4 04	 add	 esp, 4

; 1760 : 			pActWnd = NULL;

  000bf	c7 05 00 00 00
	00 00 00 00 00	 mov	 DWORD PTR ?pActWnd@@3PAUaction@@A, 0

; 1761 : 			battleTargetSelectFlag = FALSE;

  000c9	c7 05 00 00 00
	00 00 00 00 00	 mov	 DWORD PTR ?battleTargetSelectFlag@@3HA, 0

; 1762 : 			BattleCmdNo = -1;

  000d3	c7 05 00 00 00
	00 ff ff ff ff	 mov	 DWORD PTR ?BattleCmdNo@@3HA, -1 ; BattleCmdNo

; 1763 : 			ClearBattleButton();

  000dd	e8 00 00 00 00	 call	 ?ClearBattleButton@@YAXXZ ; ClearBattleButton

; 1764 : 			ClearBoxFlag();

  000e2	e8 00 00 00 00	 call	 ?ClearBoxFlag@@YAXXZ	; ClearBoxFlag

; 1765 : 			//MenuToggleFlag &= ~JOY_CTRL_E;
; 1766 : 			//MenuToggleFlag &= ~JOY_CTRL_A;
; 1767 : 			( wonflag == 0 ) ? wonflag = 1 : wonflag = 0  ; 

  000e7	83 3d 00 00 00
	00 00		 cmp	 DWORD PTR ?wonflag@@3HA, 0 ; wonflag
  000ee	75 17		 jne	 SHORT $LN79@BattleButt
  000f0	c7 05 00 00 00
	00 01 00 00 00	 mov	 DWORD PTR ?wonflag@@3HA, 1 ; wonflag
  000fa	a1 00 00 00 00	 mov	 eax, DWORD PTR ?wonflag@@3HA ; wonflag
  000ff	89 85 88 fa ff
	ff		 mov	 DWORD PTR tv88[ebp], eax
  00105	eb 16		 jmp	 SHORT $LN36@BattleButt
$LN79@BattleButt:
  00107	c7 05 00 00 00
	00 00 00 00 00	 mov	 DWORD PTR ?wonflag@@3HA, 0 ; wonflag
  00111	8b 0d 00 00 00
	00		 mov	 ecx, DWORD PTR ?wonflag@@3HA ; wonflag
  00117	89 8d 88 fa ff
	ff		 mov	 DWORD PTR tv88[ebp], ecx
$LN36@BattleButt:

; 1768 : 		}
; 1769 : 		strcpy( OneLineInfoStr, "직업기능");

  0011d	68 00 00 00 00	 push	 OFFSET ??_C@_08LCIHGOIJ@?A?w?$LO?w?$LB?b?$LE?I?$AA@
  00122	68 00 00 00 00	 push	 OFFSET ?OneLineInfoStr@@3PADA ; OneLineInfoStr
  00127	e8 00 00 00 00	 call	 _strcpy
  0012c	83 c4 08	 add	 esp, 8
$LN35@BattleButt:

; 1770 : 	}
; 1771 : 	if ( wonflag == 1 ) {

  0012f	83 3d 00 00 00
	00 01		 cmp	 DWORD PTR ?wonflag@@3HA, 1 ; wonflag
  00136	0f 85 16 12 00
	00		 jne	 $LN78@BattleButt

; 1772 : 		for ( int i = 0 ; i < 3 ; i ++ ) {

  0013c	c7 85 dc fc ff
	ff 00 00 00 00	 mov	 DWORD PTR _i$18[ebp], 0
  00146	eb 0f		 jmp	 SHORT $LN4@BattleButt
$LN2@BattleButt:
  00148	8b 85 dc fc ff
	ff		 mov	 eax, DWORD PTR _i$18[ebp]
  0014e	83 c0 01	 add	 eax, 1
  00151	89 85 dc fc ff
	ff		 mov	 DWORD PTR _i$18[ebp], eax
$LN4@BattleButt:
  00157	83 bd dc fc ff
	ff 03		 cmp	 DWORD PTR _i$18[ebp], 3
  0015e	7d 5f		 jge	 SHORT $LN3@BattleButt

; 1773 : #ifdef _READ16BITBMP
; 1774 : 			if(g_bUseAlpha){
; 1775 : 				if( MakeHitBox(  278 , 11 + i	 * 78, 308  , 89 + i * 78 , DISP_PRIO_IME3 ) == TRUE ) {
; 1776 : 					if( mouse.onceState & MOUSE_LEFT_CRICK ) {
; 1777 : 						SkillWnd2 = i ; 
; 1778 : 						play_se( 217, 320, 240 );
; 1779 : 						break;
; 1780 : 					}
; 1781 : 				}
; 1782 : 			}
; 1783 : 			else
; 1784 : #endif
; 1785 : 			if( MakeHitBox(  276 , 10 + i * 79, 306  , 88 + i * 79 , DISP_PRIO_IME3 ) == TRUE ) {

  00160	6a 69		 push	 105			; 00000069H
  00162	6b 85 dc fc ff
	ff 4f		 imul	 eax, DWORD PTR _i$18[ebp], 79
  00169	83 c0 58	 add	 eax, 88			; 00000058H
  0016c	50		 push	 eax
  0016d	68 32 01 00 00	 push	 306			; 00000132H
  00172	6b 8d dc fc ff
	ff 4f		 imul	 ecx, DWORD PTR _i$18[ebp], 79
  00179	83 c1 0a	 add	 ecx, 10			; 0000000aH
  0017c	51		 push	 ecx
  0017d	68 14 01 00 00	 push	 276			; 00000114H
  00182	e8 00 00 00 00	 call	 ?MakeHitBox@@YAHHHHHH@Z	; MakeHitBox
  00187	83 c4 14	 add	 esp, 20			; 00000014H
  0018a	83 f8 01	 cmp	 eax, 1
  0018d	75 2e		 jne	 SHORT $LN38@BattleButt

; 1786 : 				if( mouse.onceState & MOUSE_LEFT_CRICK ) {

  0018f	a1 2c 00 00 00	 mov	 eax, DWORD PTR ?mouse@@3UMOUSE@@A+44
  00194	83 e0 01	 and	 eax, 1
  00197	74 24		 je	 SHORT $LN38@BattleButt

; 1787 : 					SkillWnd2 = i ; 

  00199	8b 85 dc fc ff
	ff		 mov	 eax, DWORD PTR _i$18[ebp]
  0019f	a3 00 00 00 00	 mov	 DWORD PTR ?SkillWnd2@@3HA, eax ; SkillWnd2

; 1788 : 					play_se( 217, 320, 240 );

  001a4	68 f0 00 00 00	 push	 240			; 000000f0H
  001a9	68 40 01 00 00	 push	 320			; 00000140H
  001ae	68 d9 00 00 00	 push	 217			; 000000d9H
  001b3	e8 00 00 00 00	 call	 ?play_se@@YAHHHH@Z	; play_se
  001b8	83 c4 0c	 add	 esp, 12			; 0000000cH

; 1789 : 					break;

  001bb	eb 02		 jmp	 SHORT $LN3@BattleButt
$LN38@BattleButt:

; 1790 : 				}
; 1791 : 			}
; 1792 : 		}

  001bd	eb 89		 jmp	 SHORT $LN2@BattleButt
$LN3@BattleButt:

; 1793 : 		StockDispBuffer( 159, 225 , DISP_PRIO_MENU, CG_BATTTLE_SKILLCHOICE, 1 );

  001bf	6a 01		 push	 1
  001c1	a1 00 00 00 00	 mov	 eax, DWORD PTR ?CG_BATTTLE_SKILLCHOICE@@3HA ; CG_BATTTLE_SKILLCHOICE
  001c6	50		 push	 eax
  001c7	6a 68		 push	 104			; 00000068H
  001c9	68 e1 00 00 00	 push	 225			; 000000e1H
  001ce	68 9f 00 00 00	 push	 159			; 0000009fH
  001d3	e8 00 00 00 00	 call	 ?StockDispBuffer@@YAHHHEHH@Z ; StockDispBuffer
  001d8	83 c4 14	 add	 esp, 20			; 00000014H

; 1794 : 		extern int BattleSkill[20];
; 1795 : 		extern int AssitSkill[20];
; 1796 : 		extern int AdvanceSkill[20];
; 1797 : 		int x = 26 , y = 5 ; 

  001db	c7 85 d0 fc ff
	ff 1a 00 00 00	 mov	 DWORD PTR _x$17[ebp], 26 ; 0000001aH
  001e5	c7 85 c4 fc ff
	ff 05 00 00 00	 mov	 DWORD PTR _y$16[ebp], 5

; 1798 : 			for ( int i = 0 ; i < 4 ; i ++ ) {

  001ef	c7 85 b8 fc ff
	ff 00 00 00 00	 mov	 DWORD PTR _i$15[ebp], 0
  001f9	eb 0f		 jmp	 SHORT $LN7@BattleButt
$LN5@BattleButt:
  001fb	8b 85 b8 fc ff
	ff		 mov	 eax, DWORD PTR _i$15[ebp]
  00201	83 c0 01	 add	 eax, 1
  00204	89 85 b8 fc ff
	ff		 mov	 DWORD PTR _i$15[ebp], eax
$LN7@BattleButt:
  0020a	83 bd b8 fc ff
	ff 04		 cmp	 DWORD PTR _i$15[ebp], 4
  00211	7d 28		 jge	 SHORT $LN6@BattleButt

; 1799 : 				for ( int j = 0 ; j < 4 ; j ++ ) {

  00213	c7 85 ac fc ff
	ff 00 00 00 00	 mov	 DWORD PTR _j$14[ebp], 0
  0021d	eb 0f		 jmp	 SHORT $LN10@BattleButt
$LN8@BattleButt:
  0021f	8b 85 ac fc ff
	ff		 mov	 eax, DWORD PTR _j$14[ebp]
  00225	83 c0 01	 add	 eax, 1
  00228	89 85 ac fc ff
	ff		 mov	 DWORD PTR _j$14[ebp], eax
$LN10@BattleButt:
  0022e	83 bd ac fc ff
	ff 04		 cmp	 DWORD PTR _j$14[ebp], 4
  00235	7d 02		 jge	 SHORT $LN9@BattleButt

; 1800 : //					StockDispBuffer( x + 138 + j * 60 , y + 228 + i * 72 , DISP_PRIO_IME3, CG_FIELD_SKILL_TILE , 2 );
; 1801 : 				}

  00237	eb e6		 jmp	 SHORT $LN8@BattleButt
$LN9@BattleButt:

; 1802 : 			}

  00239	eb c0		 jmp	 SHORT $LN5@BattleButt
$LN6@BattleButt:

; 1803 : 
; 1804 : 		switch ( SkillWnd2 ) {

  0023b	a1 00 00 00 00	 mov	 eax, DWORD PTR ?SkillWnd2@@3HA ; SkillWnd2
  00240	89 85 88 fa ff
	ff		 mov	 DWORD PTR tv151[ebp], eax
  00246	83 bd 88 fa ff
	ff 00		 cmp	 DWORD PTR tv151[ebp], 0
  0024d	74 1f		 je	 SHORT $LN40@BattleButt
  0024f	83 bd 88 fa ff
	ff 01		 cmp	 DWORD PTR tv151[ebp], 1
  00256	0f 84 73 05 00
	00		 je	 $LN52@BattleButt
  0025c	83 bd 88 fa ff
	ff 02		 cmp	 DWORD PTR tv151[ebp], 2
  00263	0f 84 a5 0a 00
	00		 je	 $LN64@BattleButt
  00269	e9 2d 0f 00 00	 jmp	 $LN11@BattleButt
$LN40@BattleButt:

; 1805 : 		case 0 :
; 1806 : #ifdef _READ16BITBMP
; 1807 : 			if(g_bUseAlpha) StockDispBuffer( 168, 223, DISP_PRIO_IME3, CG_FIELD_SKILL_ASSIT , 0 );
; 1808 : 			else
; 1809 : #endif
; 1810 : 			StockDispBuffer( 165, 221, DISP_PRIO_IME3, CG_FIELD_SKILL_ASSIT , 0 );

  0026e	6a 00		 push	 0
  00270	68 f4 66 00 00	 push	 26356			; 000066f4H
  00275	6a 69		 push	 105			; 00000069H
  00277	68 dd 00 00 00	 push	 221			; 000000ddH
  0027c	68 a5 00 00 00	 push	 165			; 000000a5H
  00281	e8 00 00 00 00	 call	 ?StockDispBuffer@@YAHHHEHH@Z ; StockDispBuffer
  00286	83 c4 14	 add	 esp, 20			; 00000014H

; 1811 : 			for ( int i = 0 ; i < 4 ; i ++ ) {

  00289	c7 85 a0 fc ff
	ff 00 00 00 00	 mov	 DWORD PTR _i$13[ebp], 0
  00293	eb 0f		 jmp	 SHORT $LN15@BattleButt
$LN13@BattleButt:
  00295	8b 85 a0 fc ff
	ff		 mov	 eax, DWORD PTR _i$13[ebp]
  0029b	83 c0 01	 add	 eax, 1
  0029e	89 85 a0 fc ff
	ff		 mov	 DWORD PTR _i$13[ebp], eax
$LN15@BattleButt:
  002a4	83 bd a0 fc ff
	ff 04		 cmp	 DWORD PTR _i$13[ebp], 4
  002ab	0f 8d 19 05 00
	00		 jge	 $LN14@BattleButt

; 1812 : 				for ( int j = 0 ; j < 4 ; j ++ ) {

  002b1	c7 85 94 fc ff
	ff 00 00 00 00	 mov	 DWORD PTR _j$12[ebp], 0
  002bb	eb 0f		 jmp	 SHORT $LN18@BattleButt
$LN16@BattleButt:
  002bd	8b 85 94 fc ff
	ff		 mov	 eax, DWORD PTR _j$12[ebp]
  002c3	83 c0 01	 add	 eax, 1
  002c6	89 85 94 fc ff
	ff		 mov	 DWORD PTR _j$12[ebp], eax
$LN18@BattleButt:
  002cc	83 bd 94 fc ff
	ff 04		 cmp	 DWORD PTR _j$12[ebp], 4
  002d3	0f 8d ec 04 00
	00		 jge	 $LN17@BattleButt

; 1813 : 					if ( AssitSkill [ j + i * 4 ] == -1 ) 

  002d9	8b 85 a0 fc ff
	ff		 mov	 eax, DWORD PTR _i$13[ebp]
  002df	8b 8d 94 fc ff
	ff		 mov	 ecx, DWORD PTR _j$12[ebp]
  002e5	8d 14 81	 lea	 edx, DWORD PTR [ecx+eax*4]
  002e8	83 3c 95 00 00
	00 00 ff	 cmp	 DWORD PTR ?AssitSkill@@3PAHA[edx*4], -1
  002f0	75 05		 jne	 SHORT $LN41@BattleButt

; 1814 : 						break;

  002f2	e9 ce 04 00 00	 jmp	 $LN17@BattleButt
$LN41@BattleButt:

; 1815 : 					if ( profession_skill[ AssitSkill [ j + i * 4 ] ].useFlag == 0 )

  002f7	8b 85 a0 fc ff
	ff		 mov	 eax, DWORD PTR _i$13[ebp]
  002fd	8b 8d 94 fc ff
	ff		 mov	 ecx, DWORD PTR _j$12[ebp]
  00303	8d 14 81	 lea	 edx, DWORD PTR [ecx+eax*4]
  00306	69 04 95 00 00
	00 00 c0 00 00
	00		 imul	 eax, DWORD PTR ?AssitSkill@@3PAHA[edx*4], 192
  00311	0f bf 88 00 00
	00 00		 movsx	 ecx, WORD PTR ?profession_skill@@3PAUPROFESSION_SKILL@@A[eax]
  00318	85 c9		 test	 ecx, ecx
  0031a	75 35		 jne	 SHORT $LN42@BattleButt

; 1816 : 						StockDispBuffer ( x + 24 + j * 60 , y + 98 + i * 57 , DISP_PRIO_IME3 + 1 , CG_BTL_BUTTON_CROSS , 0 ) ;

  0031c	6a 00		 push	 0
  0031e	68 1d 62 00 00	 push	 25117			; 0000621dH
  00323	6a 6a		 push	 106			; 0000006aH
  00325	6b 85 a0 fc ff
	ff 39		 imul	 eax, DWORD PTR _i$13[ebp], 57
  0032c	8b 8d c4 fc ff
	ff		 mov	 ecx, DWORD PTR _y$16[ebp]
  00332	8d 54 01 62	 lea	 edx, DWORD PTR [ecx+eax+98]
  00336	52		 push	 edx
  00337	6b 85 94 fc ff
	ff 3c		 imul	 eax, DWORD PTR _j$12[ebp], 60
  0033e	8b 8d d0 fc ff
	ff		 mov	 ecx, DWORD PTR _x$17[ebp]
  00344	8d 54 01 18	 lea	 edx, DWORD PTR [ecx+eax+24]
  00348	52		 push	 edx
  00349	e8 00 00 00 00	 call	 ?StockDispBuffer@@YAHHHEHH@Z ; StockDispBuffer
  0034e	83 c4 14	 add	 esp, 20			; 00000014H
$LN42@BattleButt:

; 1817 : 					//StockDispBuffer( x + 138 + j * 48 , y + 228 + i * 52 , DISP_PRIO_IME3, CG_FIELD_SKILL_TILE , 0 );
; 1818 : 					AssitSkillBtn [ j + i * 4 ] = StockDispBuffer( x + 24 + j * 60 , y + 98 + i * 57 , DISP_PRIO_IME3 + 1 , profession_skill[ AssitSkill [ j + i * 4 ] ].icon  , 2 );

  00351	6a 02		 push	 2
  00353	8b 85 a0 fc ff
	ff		 mov	 eax, DWORD PTR _i$13[ebp]
  00359	8b 8d 94 fc ff
	ff		 mov	 ecx, DWORD PTR _j$12[ebp]
  0035f	8d 14 81	 lea	 edx, DWORD PTR [ecx+eax*4]
  00362	69 04 95 00 00
	00 00 c0 00 00
	00		 imul	 eax, DWORD PTR ?AssitSkill@@3PAHA[edx*4], 192
  0036d	8b 88 b4 00 00
	00		 mov	 ecx, DWORD PTR ?profession_skill@@3PAUPROFESSION_SKILL@@A[eax+180]
  00373	51		 push	 ecx
  00374	6a 6a		 push	 106			; 0000006aH
  00376	6b 95 a0 fc ff
	ff 39		 imul	 edx, DWORD PTR _i$13[ebp], 57
  0037d	8b 85 c4 fc ff
	ff		 mov	 eax, DWORD PTR _y$16[ebp]
  00383	8d 4c 10 62	 lea	 ecx, DWORD PTR [eax+edx+98]
  00387	51		 push	 ecx
  00388	6b 95 94 fc ff
	ff 3c		 imul	 edx, DWORD PTR _j$12[ebp], 60
  0038f	8b 85 d0 fc ff
	ff		 mov	 eax, DWORD PTR _x$17[ebp]
  00395	8d 4c 10 18	 lea	 ecx, DWORD PTR [eax+edx+24]
  00399	51		 push	 ecx
  0039a	e8 00 00 00 00	 call	 ?StockDispBuffer@@YAHHHEHH@Z ; StockDispBuffer
  0039f	83 c4 14	 add	 esp, 20			; 00000014H
  003a2	8b 95 a0 fc ff
	ff		 mov	 edx, DWORD PTR _i$13[ebp]
  003a8	8b 8d 94 fc ff
	ff		 mov	 ecx, DWORD PTR _j$12[ebp]
  003ae	8d 14 91	 lea	 edx, DWORD PTR [ecx+edx*4]
  003b1	89 04 95 00 00
	00 00		 mov	 DWORD PTR ?AssitSkillBtn@@3PAHA[edx*4], eax

; 1819 : 					sprintf ( msg2 , "%8s" , profession_skill[AssitSkill [ j + i * 4 ]].name );

  003b8	8b 85 a0 fc ff
	ff		 mov	 eax, DWORD PTR _i$13[ebp]
  003be	8b 8d 94 fc ff
	ff		 mov	 ecx, DWORD PTR _j$12[ebp]
  003c4	8d 14 81	 lea	 edx, DWORD PTR [ecx+eax*4]
  003c7	69 04 95 00 00
	00 00 c0 00 00
	00		 imul	 eax, DWORD PTR ?AssitSkill@@3PAHA[edx*4], 192
  003d2	05 08 00 00 00	 add	 eax, OFFSET ?profession_skill@@3PAUPROFESSION_SKILL@@A+8
  003d7	50		 push	 eax
  003d8	68 00 00 00 00	 push	 OFFSET ??_C@_03GHDNOBPC@?$CF8s?$AA@
  003dd	8d 8d e8 fc ff
	ff		 lea	 ecx, DWORD PTR _msg2$[ebp]
  003e3	51		 push	 ecx
  003e4	e8 00 00 00 00	 call	 _sprintf
  003e9	83 c4 0c	 add	 esp, 12			; 0000000cH

; 1820 : 					StockFontBuffer( x + j * 60 , y + 110 + i * 57 , FONT_PRIO_FRONT, FONT_PAL_WHITE, msg2, 0 );

  003ec	6a 00		 push	 0
  003ee	8d 85 e8 fc ff
	ff		 lea	 eax, DWORD PTR _msg2$[ebp]
  003f4	50		 push	 eax
  003f5	6a 00		 push	 0
  003f7	6a 01		 push	 1
  003f9	6b 8d a0 fc ff
	ff 39		 imul	 ecx, DWORD PTR _i$13[ebp], 57
  00400	8b 95 c4 fc ff
	ff		 mov	 edx, DWORD PTR _y$16[ebp]
  00406	8d 44 0a 6e	 lea	 eax, DWORD PTR [edx+ecx+110]
  0040a	50		 push	 eax
  0040b	6b 8d 94 fc ff
	ff 3c		 imul	 ecx, DWORD PTR _j$12[ebp], 60
  00412	03 8d d0 fc ff
	ff		 add	 ecx, DWORD PTR _x$17[ebp]
  00418	51		 push	 ecx
  00419	e8 00 00 00 00	 call	 ?StockFontBuffer@@YAHHHDHPADH@Z ; StockFontBuffer
  0041e	83 c4 18	 add	 esp, 24			; 00000018H

; 1821 : 					if ( HitDispNo == AssitSkillBtn [ j + i * 4 ] ){

  00421	8b 85 a0 fc ff
	ff		 mov	 eax, DWORD PTR _i$13[ebp]
  00427	8b 8d 94 fc ff
	ff		 mov	 ecx, DWORD PTR _j$12[ebp]
  0042d	8d 14 81	 lea	 edx, DWORD PTR [ecx+eax*4]
  00430	a1 00 00 00 00	 mov	 eax, DWORD PTR ?HitDispNo@@3HA ; HitDispNo
  00435	3b 04 95 00 00
	00 00		 cmp	 eax, DWORD PTR ?AssitSkillBtn@@3PAHA[edx*4]
  0043c	0f 85 df 01 00
	00		 jne	 $LN43@BattleButt

; 1822 : 						int use_color=0;

  00442	c7 85 88 fc ff
	ff 00 00 00 00	 mov	 DWORD PTR _use_color$11[ebp], 0

; 1823 : 						if( p_party[ BattleMyNo ]->mp >= profession_skill[AssitSkill [ j + i * 4 ]].costmp && profession_skill[AssitSkill [ j + i * 4 ]].costmp != 0 ){

  0044c	a1 00 00 00 00	 mov	 eax, DWORD PTR ?BattleMyNo@@3HA ; BattleMyNo
  00451	8b 0c 85 00 00
	00 00		 mov	 ecx, DWORD PTR ?p_party@@3PAPAUaction@@A[eax*4]
  00458	8b 95 a0 fc ff
	ff		 mov	 edx, DWORD PTR _i$13[ebp]
  0045e	8b 85 94 fc ff
	ff		 mov	 eax, DWORD PTR _j$12[ebp]
  00464	8d 14 90	 lea	 edx, DWORD PTR [eax+edx*4]
  00467	69 04 95 00 00
	00 00 c0 00 00
	00		 imul	 eax, DWORD PTR ?AssitSkill@@3PAHA[edx*4], 192
  00472	8b 89 84 00 00
	00		 mov	 ecx, DWORD PTR [ecx+132]
  00478	3b 88 b8 00 00
	00		 cmp	 ecx, DWORD PTR ?profession_skill@@3PAUPROFESSION_SKILL@@A[eax+184]
  0047e	7c 2f		 jl	 SHORT $LN44@BattleButt
  00480	8b 85 a0 fc ff
	ff		 mov	 eax, DWORD PTR _i$13[ebp]
  00486	8b 8d 94 fc ff
	ff		 mov	 ecx, DWORD PTR _j$12[ebp]
  0048c	8d 14 81	 lea	 edx, DWORD PTR [ecx+eax*4]
  0048f	69 04 95 00 00
	00 00 c0 00 00
	00		 imul	 eax, DWORD PTR ?AssitSkill@@3PAHA[edx*4], 192
  0049a	83 b8 b8 00 00
	00 00		 cmp	 DWORD PTR ?profession_skill@@3PAUPROFESSION_SKILL@@A[eax+184], 0
  004a1	74 0c		 je	 SHORT $LN44@BattleButt

; 1824 : 							use_color = FONT_PAL_WHITE;

  004a3	c7 85 88 fc ff
	ff 00 00 00 00	 mov	 DWORD PTR _use_color$11[ebp], 0

; 1825 : 						}else{

  004ad	eb 0a		 jmp	 SHORT $LN45@BattleButt
$LN44@BattleButt:

; 1826 : 							use_color = FONT_PAL_GRAY;									

  004af	c7 85 88 fc ff
	ff 07 00 00 00	 mov	 DWORD PTR _use_color$11[ebp], 7
$LN45@BattleButt:

; 1827 : 						}
; 1828 : 						if ( profession_skill[ AssitSkill [ j + i * 4 ] ].skillId == 11	)

  004b9	8b 85 a0 fc ff
	ff		 mov	 eax, DWORD PTR _i$13[ebp]
  004bf	8b 8d 94 fc ff
	ff		 mov	 ecx, DWORD PTR _j$12[ebp]
  004c5	8d 14 81	 lea	 edx, DWORD PTR [ecx+eax*4]
  004c8	69 04 95 00 00
	00 00 c0 00 00
	00		 imul	 eax, DWORD PTR ?AssitSkill@@3PAHA[edx*4], 192
  004d3	0f bf 88 02 00
	00 00		 movsx	 ecx, WORD PTR ?profession_skill@@3PAUPROFESSION_SKILL@@A[eax+2]
  004da	83 f9 0b	 cmp	 ecx, 11			; 0000000bH
  004dd	75 0a		 jne	 SHORT $LN46@BattleButt

; 1829 : 							use_color = FONT_PAL_WHITE; //嗜血成性不做mp限制

  004df	c7 85 88 fc ff
	ff 00 00 00 00	 mov	 DWORD PTR _use_color$11[ebp], 0
$LN46@BattleButt:

; 1830 : 						sprintf ( msg2 , "%s" , profession_skill[AssitSkill [ j + i * 4 ]].name );

  004e9	8b 85 a0 fc ff
	ff		 mov	 eax, DWORD PTR _i$13[ebp]
  004ef	8b 8d 94 fc ff
	ff		 mov	 ecx, DWORD PTR _j$12[ebp]
  004f5	8d 14 81	 lea	 edx, DWORD PTR [ecx+eax*4]
  004f8	69 04 95 00 00
	00 00 c0 00 00
	00		 imul	 eax, DWORD PTR ?AssitSkill@@3PAHA[edx*4], 192
  00503	05 08 00 00 00	 add	 eax, OFFSET ?profession_skill@@3PAUPROFESSION_SKILL@@A+8
  00508	50		 push	 eax
  00509	68 00 00 00 00	 push	 OFFSET ??_C@_02DKCKIIND@?$CFs?$AA@
  0050e	8d 8d e8 fc ff
	ff		 lea	 ecx, DWORD PTR _msg2$[ebp]
  00514	51		 push	 ecx
  00515	e8 00 00 00 00	 call	 _sprintf
  0051a	83 c4 0c	 add	 esp, 12			; 0000000cH

; 1831 : 						StockFontBuffer( 20, 312, FONT_PRIO_FRONT, use_color, msg2, 0 );

  0051d	6a 00		 push	 0
  0051f	8d 85 e8 fc ff
	ff		 lea	 eax, DWORD PTR _msg2$[ebp]
  00525	50		 push	 eax
  00526	8b 8d 88 fc ff
	ff		 mov	 ecx, DWORD PTR _use_color$11[ebp]
  0052c	51		 push	 ecx
  0052d	6a 01		 push	 1
  0052f	68 38 01 00 00	 push	 312			; 00000138H
  00534	6a 14		 push	 20			; 00000014H
  00536	e8 00 00 00 00	 call	 ?StockFontBuffer@@YAHHHDHPADH@Z ; StockFontBuffer
  0053b	83 c4 18	 add	 esp, 24			; 00000018H

; 1832 : 
; 1833 : 						sprintf( msg , "  %d％", profession_skill[AssitSkill [ j + i * 4 ]].skill_level ) ; 

  0053e	8b 85 a0 fc ff
	ff		 mov	 eax, DWORD PTR _i$13[ebp]
  00544	8b 8d 94 fc ff
	ff		 mov	 ecx, DWORD PTR _j$12[ebp]
  0054a	8d 14 81	 lea	 edx, DWORD PTR [ecx+eax*4]
  0054d	69 04 95 00 00
	00 00 c0 00 00
	00		 imul	 eax, DWORD PTR ?AssitSkill@@3PAHA[edx*4], 192
  00558	8b 88 bc 00 00
	00		 mov	 ecx, DWORD PTR ?profession_skill@@3PAUPROFESSION_SKILL@@A[eax+188]
  0055e	51		 push	 ecx
  0055f	68 00 00 00 00	 push	 OFFSET ??_C@_06BPKJHHJO@?5?5?$CFd?$KD?$KF?$AA@
  00564	8d 95 f8 fe ff
	ff		 lea	 edx, DWORD PTR _msg$[ebp]
  0056a	52		 push	 edx
  0056b	e8 00 00 00 00	 call	 _sprintf
  00570	83 c4 0c	 add	 esp, 12			; 0000000cH

; 1834 : 						StockFontBuffer( 85, 310, FONT_PRIO_FRONT, use_color, msg, 0 );

  00573	6a 00		 push	 0
  00575	8d 85 f8 fe ff
	ff		 lea	 eax, DWORD PTR _msg$[ebp]
  0057b	50		 push	 eax
  0057c	8b 8d 88 fc ff
	ff		 mov	 ecx, DWORD PTR _use_color$11[ebp]
  00582	51		 push	 ecx
  00583	6a 01		 push	 1
  00585	68 36 01 00 00	 push	 310			; 00000136H
  0058a	6a 55		 push	 85			; 00000055H
  0058c	e8 00 00 00 00	 call	 ?StockFontBuffer@@YAHHHDHPADH@Z ; StockFontBuffer
  00591	83 c4 18	 add	 esp, 24			; 00000018H

; 1835 : 				
; 1836 : 						sprintf ( msg2 , "(소비하다MP:%d)" , profession_skill[AssitSkill [ j + i * 4 ]].costmp );

  00594	8b 85 a0 fc ff
	ff		 mov	 eax, DWORD PTR _i$13[ebp]
  0059a	8b 8d 94 fc ff
	ff		 mov	 ecx, DWORD PTR _j$12[ebp]
  005a0	8d 14 81	 lea	 edx, DWORD PTR [ecx+eax*4]
  005a3	69 04 95 00 00
	00 00 c0 00 00
	00		 imul	 eax, DWORD PTR ?AssitSkill@@3PAHA[edx*4], 192
  005ae	8b 88 b8 00 00
	00		 mov	 ecx, DWORD PTR ?profession_skill@@3PAUPROFESSION_SKILL@@A[eax+184]
  005b4	51		 push	 ecx
  005b5	68 00 00 00 00	 push	 OFFSET ??_C@_0BA@OEIEMLKK@?$CI?$LM?R?$LK?q?G?O?$LE?YMP?3?$CFd?$CJ?$AA@
  005ba	8d 95 e8 fc ff
	ff		 lea	 edx, DWORD PTR _msg2$[ebp]
  005c0	52		 push	 edx
  005c1	e8 00 00 00 00	 call	 _sprintf
  005c6	83 c4 0c	 add	 esp, 12			; 0000000cH

; 1837 : 						StockFontBuffer( 170, 312, FONT_PRIO_FRONT, use_color, msg2, 0 );				

  005c9	6a 00		 push	 0
  005cb	8d 85 e8 fc ff
	ff		 lea	 eax, DWORD PTR _msg2$[ebp]
  005d1	50		 push	 eax
  005d2	8b 8d 88 fc ff
	ff		 mov	 ecx, DWORD PTR _use_color$11[ebp]
  005d8	51		 push	 ecx
  005d9	6a 01		 push	 1
  005db	68 38 01 00 00	 push	 312			; 00000138H
  005e0	68 aa 00 00 00	 push	 170			; 000000aaH
  005e5	e8 00 00 00 00	 call	 ?StockFontBuffer@@YAHHHDHPADH@Z ; StockFontBuffer
  005ea	83 c4 18	 add	 esp, 24			; 00000018H

; 1838 : 
; 1839 : 						sprintf( msg , "%s" ,	 profession_skill[AssitSkill [ j + i * 4 ]].memo ) ; 

  005ed	8b 85 a0 fc ff
	ff		 mov	 eax, DWORD PTR _i$13[ebp]
  005f3	8b 8d 94 fc ff
	ff		 mov	 ecx, DWORD PTR _j$12[ebp]
  005f9	8d 14 81	 lea	 edx, DWORD PTR [ecx+eax*4]
  005fc	69 04 95 00 00
	00 00 c0 00 00
	00		 imul	 eax, DWORD PTR ?AssitSkill@@3PAHA[edx*4], 192
  00607	05 5d 00 00 00	 add	 eax, OFFSET ?profession_skill@@3PAUPROFESSION_SKILL@@A+93
  0060c	50		 push	 eax
  0060d	68 00 00 00 00	 push	 OFFSET ??_C@_02DKCKIIND@?$CFs?$AA@
  00612	8d 8d f8 fe ff
	ff		 lea	 ecx, DWORD PTR _msg$[ebp]
  00618	51		 push	 ecx
  00619	e8 00 00 00 00	 call	 _sprintf
  0061e	83 c4 0c	 add	 esp, 12			; 0000000cH
$LN43@BattleButt:

; 1840 : 					}
; 1841 : 					if( mouse.onceState & MOUSE_LEFT_CRICK_UP ) {

  00621	a1 2c 00 00 00	 mov	 eax, DWORD PTR ?mouse@@3UMOUSE@@A+44
  00626	83 e0 04	 and	 eax, 4
  00629	0f 84 91 01 00
	00		 je	 $LN47@BattleButt

; 1842 : 						if ( HitDispNo == AssitSkillBtn [ j + i * 4 ]  && profession_skill[ AssitSkill [ j + i * 4 ] ].useFlag != 0) {

  0062f	8b 85 a0 fc ff
	ff		 mov	 eax, DWORD PTR _i$13[ebp]
  00635	8b 8d 94 fc ff
	ff		 mov	 ecx, DWORD PTR _j$12[ebp]
  0063b	8d 14 81	 lea	 edx, DWORD PTR [ecx+eax*4]
  0063e	a1 00 00 00 00	 mov	 eax, DWORD PTR ?HitDispNo@@3HA ; HitDispNo
  00643	3b 04 95 00 00
	00 00		 cmp	 eax, DWORD PTR ?AssitSkillBtn@@3PAHA[edx*4]
  0064a	0f 85 70 01 00
	00		 jne	 $LN47@BattleButt
  00650	8b 85 a0 fc ff
	ff		 mov	 eax, DWORD PTR _i$13[ebp]
  00656	8b 8d 94 fc ff
	ff		 mov	 ecx, DWORD PTR _j$12[ebp]
  0065c	8d 14 81	 lea	 edx, DWORD PTR [ecx+eax*4]
  0065f	69 04 95 00 00
	00 00 c0 00 00
	00		 imul	 eax, DWORD PTR ?AssitSkill@@3PAHA[edx*4], 192
  0066a	0f bf 88 00 00
	00 00		 movsx	 ecx, WORD PTR ?profession_skill@@3PAUPROFESSION_SKILL@@A[eax]
  00671	85 c9		 test	 ecx, ecx
  00673	0f 84 47 01 00
	00		 je	 $LN47@BattleButt

; 1843 : 							if( p_party[ BattleMyNo ]->mp >= profession_skill[AssitSkill [ j + i * 4 ]].costmp && profession_skill[AssitSkill [ j + i * 4 ]].costmp != 0 ) {

  00679	a1 00 00 00 00	 mov	 eax, DWORD PTR ?BattleMyNo@@3HA ; BattleMyNo
  0067e	8b 0c 85 00 00
	00 00		 mov	 ecx, DWORD PTR ?p_party@@3PAPAUaction@@A[eax*4]
  00685	8b 95 a0 fc ff
	ff		 mov	 edx, DWORD PTR _i$13[ebp]
  0068b	8b 85 94 fc ff
	ff		 mov	 eax, DWORD PTR _j$12[ebp]
  00691	8d 14 90	 lea	 edx, DWORD PTR [eax+edx*4]
  00694	69 04 95 00 00
	00 00 c0 00 00
	00		 imul	 eax, DWORD PTR ?AssitSkill@@3PAHA[edx*4], 192
  0069f	8b 89 84 00 00
	00		 mov	 ecx, DWORD PTR [ecx+132]
  006a5	3b 88 b8 00 00
	00		 cmp	 ecx, DWORD PTR ?profession_skill@@3PAUPROFESSION_SKILL@@A[eax+184]
  006ab	7c 79		 jl	 SHORT $LN49@BattleButt
  006ad	8b 85 a0 fc ff
	ff		 mov	 eax, DWORD PTR _i$13[ebp]
  006b3	8b 8d 94 fc ff
	ff		 mov	 ecx, DWORD PTR _j$12[ebp]
  006b9	8d 14 81	 lea	 edx, DWORD PTR [ecx+eax*4]
  006bc	69 04 95 00 00
	00 00 c0 00 00
	00		 imul	 eax, DWORD PTR ?AssitSkill@@3PAHA[edx*4], 192
  006c7	83 b8 b8 00 00
	00 00		 cmp	 DWORD PTR ?profession_skill@@3PAUPROFESSION_SKILL@@A[eax+184], 0
  006ce	74 56		 je	 SHORT $LN49@BattleButt

; 1844 : 								wonflag = 0 ; 

  006d0	c7 05 00 00 00
	00 00 00 00 00	 mov	 DWORD PTR ?wonflag@@3HA, 0 ; wonflag

; 1845 : 								prouseskill = AssitSkill [ j + i * 4 ] ; 

  006da	8b 85 a0 fc ff
	ff		 mov	 eax, DWORD PTR _i$13[ebp]
  006e0	8b 8d 94 fc ff
	ff		 mov	 ecx, DWORD PTR _j$12[ebp]
  006e6	8d 14 81	 lea	 edx, DWORD PTR [ecx+eax*4]
  006e9	8b 04 95 00 00
	00 00		 mov	 eax, DWORD PTR ?AssitSkill@@3PAHA[edx*4]
  006f0	a3 00 00 00 00	 mov	 DWORD PTR ?prouseskill@@3HA, eax ; prouseskill

; 1846 : 								BattleSetWazaHitBox( profession_skill[AssitSkill [ j + i * 4 ] ].target , 1) ; 

  006f5	6a 01		 push	 1
  006f7	8b 85 a0 fc ff
	ff		 mov	 eax, DWORD PTR _i$13[ebp]
  006fd	8b 8d 94 fc ff
	ff		 mov	 ecx, DWORD PTR _j$12[ebp]
  00703	8d 14 81	 lea	 edx, DWORD PTR [ecx+eax*4]
  00706	69 04 95 00 00
	00 00 c0 00 00
	00		 imul	 eax, DWORD PTR ?AssitSkill@@3PAHA[edx*4], 192
  00711	0f bf 88 04 00
	00 00		 movsx	 ecx, WORD PTR ?profession_skill@@3PAUPROFESSION_SKILL@@A[eax+4]
  00718	51		 push	 ecx
  00719	e8 00 00 00 00	 call	 ?BattleSetWazaHitBox@@YAXHH@Z ; BattleSetWazaHitBox
  0071e	83 c4 08	 add	 esp, 8
  00721	e9 9a 00 00 00	 jmp	 $LN47@BattleButt
$LN49@BattleButt:

; 1847 : 							}
; 1848 : 							else if ( profession_skill[ AssitSkill [ j + i * 4 ] ].skillId == 11 && profession_skill[AssitSkill [ j + i * 4 ]].costmp == 0 ) { //嗜血成性不做mp限制

  00726	8b 85 a0 fc ff
	ff		 mov	 eax, DWORD PTR _i$13[ebp]
  0072c	8b 8d 94 fc ff
	ff		 mov	 ecx, DWORD PTR _j$12[ebp]
  00732	8d 14 81	 lea	 edx, DWORD PTR [ecx+eax*4]
  00735	69 04 95 00 00
	00 00 c0 00 00
	00		 imul	 eax, DWORD PTR ?AssitSkill@@3PAHA[edx*4], 192
  00740	0f bf 88 02 00
	00 00		 movsx	 ecx, WORD PTR ?profession_skill@@3PAUPROFESSION_SKILL@@A[eax+2]
  00747	83 f9 0b	 cmp	 ecx, 11			; 0000000bH
  0074a	75 74		 jne	 SHORT $LN47@BattleButt
  0074c	8b 85 a0 fc ff
	ff		 mov	 eax, DWORD PTR _i$13[ebp]
  00752	8b 8d 94 fc ff
	ff		 mov	 ecx, DWORD PTR _j$12[ebp]
  00758	8d 14 81	 lea	 edx, DWORD PTR [ecx+eax*4]
  0075b	69 04 95 00 00
	00 00 c0 00 00
	00		 imul	 eax, DWORD PTR ?AssitSkill@@3PAHA[edx*4], 192
  00766	83 b8 b8 00 00
	00 00		 cmp	 DWORD PTR ?profession_skill@@3PAUPROFESSION_SKILL@@A[eax+184], 0
  0076d	75 51		 jne	 SHORT $LN47@BattleButt

; 1849 : 								wonflag = 0 ; 

  0076f	c7 05 00 00 00
	00 00 00 00 00	 mov	 DWORD PTR ?wonflag@@3HA, 0 ; wonflag

; 1850 : 								prouseskill = AssitSkill [ j + i * 4 ] ; 

  00779	8b 85 a0 fc ff
	ff		 mov	 eax, DWORD PTR _i$13[ebp]
  0077f	8b 8d 94 fc ff
	ff		 mov	 ecx, DWORD PTR _j$12[ebp]
  00785	8d 14 81	 lea	 edx, DWORD PTR [ecx+eax*4]
  00788	8b 04 95 00 00
	00 00		 mov	 eax, DWORD PTR ?AssitSkill@@3PAHA[edx*4]
  0078f	a3 00 00 00 00	 mov	 DWORD PTR ?prouseskill@@3HA, eax ; prouseskill

; 1851 : 								BattleSetWazaHitBox( profession_skill[AssitSkill [ j + i * 4 ] ].target , 1) ; 

  00794	6a 01		 push	 1
  00796	8b 85 a0 fc ff
	ff		 mov	 eax, DWORD PTR _i$13[ebp]
  0079c	8b 8d 94 fc ff
	ff		 mov	 ecx, DWORD PTR _j$12[ebp]
  007a2	8d 14 81	 lea	 edx, DWORD PTR [ecx+eax*4]
  007a5	69 04 95 00 00
	00 00 c0 00 00
	00		 imul	 eax, DWORD PTR ?AssitSkill@@3PAHA[edx*4], 192
  007b0	0f bf 88 04 00
	00 00		 movsx	 ecx, WORD PTR ?profession_skill@@3PAUPROFESSION_SKILL@@A[eax+4]
  007b7	51		 push	 ecx
  007b8	e8 00 00 00 00	 call	 ?BattleSetWazaHitBox@@YAXHH@Z ; BattleSetWazaHitBox
  007bd	83 c4 08	 add	 esp, 8
$LN47@BattleButt:

; 1852 : 							}
; 1853 : 						}
; 1854 : 					}
; 1855 : 				}

  007c0	e9 f8 fa ff ff	 jmp	 $LN16@BattleButt
$LN17@BattleButt:

; 1856 : 			}

  007c5	e9 cb fa ff ff	 jmp	 $LN13@BattleButt
$LN14@BattleButt:

; 1857 : 			break;

  007ca	e9 cc 09 00 00	 jmp	 $LN11@BattleButt
$LN52@BattleButt:

; 1858 : 		case 1 :
; 1859 : #ifdef _READ16BITBMP
; 1860 : 			if(g_bUseAlpha) StockDispBuffer( 168, 223, DISP_PRIO_IME3, CG_FIELD_SKILL_BATTLE , 0 );
; 1861 : 			else
; 1862 : #endif
; 1863 : 			StockDispBuffer( 165, 221, DISP_PRIO_IME3, CG_FIELD_SKILL_BATTLE , 0 );

  007cf	6a 00		 push	 0
  007d1	68 f5 66 00 00	 push	 26357			; 000066f5H
  007d6	6a 69		 push	 105			; 00000069H
  007d8	68 dd 00 00 00	 push	 221			; 000000ddH
  007dd	68 a5 00 00 00	 push	 165			; 000000a5H
  007e2	e8 00 00 00 00	 call	 ?StockDispBuffer@@YAHHHEHH@Z ; StockDispBuffer
  007e7	83 c4 14	 add	 esp, 20			; 00000014H

; 1864 : 			for ( int i = 0 ; i < 4 ; i ++ ) {

  007ea	c7 85 7c fc ff
	ff 00 00 00 00	 mov	 DWORD PTR _i$10[ebp], 0
  007f4	eb 0f		 jmp	 SHORT $LN21@BattleButt
$LN19@BattleButt:
  007f6	8b 85 7c fc ff
	ff		 mov	 eax, DWORD PTR _i$10[ebp]
  007fc	83 c0 01	 add	 eax, 1
  007ff	89 85 7c fc ff
	ff		 mov	 DWORD PTR _i$10[ebp], eax
$LN21@BattleButt:
  00805	83 bd 7c fc ff
	ff 04		 cmp	 DWORD PTR _i$10[ebp], 4
  0080c	0f 8d f7 04 00
	00		 jge	 $LN20@BattleButt

; 1865 : 				for ( int j = 0 ; j < 4 ; j ++ ) {

  00812	c7 85 70 fc ff
	ff 00 00 00 00	 mov	 DWORD PTR _j$9[ebp], 0
  0081c	eb 0f		 jmp	 SHORT $LN24@BattleButt
$LN22@BattleButt:
  0081e	8b 85 70 fc ff
	ff		 mov	 eax, DWORD PTR _j$9[ebp]
  00824	83 c0 01	 add	 eax, 1
  00827	89 85 70 fc ff
	ff		 mov	 DWORD PTR _j$9[ebp], eax
$LN24@BattleButt:
  0082d	83 bd 70 fc ff
	ff 04		 cmp	 DWORD PTR _j$9[ebp], 4
  00834	0f 8d ca 04 00
	00		 jge	 $LN23@BattleButt

; 1866 : 					if ( BattleSkill [ j + i * 4 ] == -1 ) 

  0083a	8b 85 7c fc ff
	ff		 mov	 eax, DWORD PTR _i$10[ebp]
  00840	8b 8d 70 fc ff
	ff		 mov	 ecx, DWORD PTR _j$9[ebp]
  00846	8d 14 81	 lea	 edx, DWORD PTR [ecx+eax*4]
  00849	83 3c 95 00 00
	00 00 ff	 cmp	 DWORD PTR ?BattleSkill@@3PAHA[edx*4], -1
  00851	75 05		 jne	 SHORT $LN53@BattleButt

; 1867 : 						break;

  00853	e9 ac 04 00 00	 jmp	 $LN23@BattleButt
$LN53@BattleButt:

; 1868 : 					if ( profession_skill[ BattleSkill [ j + i * 4 ] ].useFlag == 0 )

  00858	8b 85 7c fc ff
	ff		 mov	 eax, DWORD PTR _i$10[ebp]
  0085e	8b 8d 70 fc ff
	ff		 mov	 ecx, DWORD PTR _j$9[ebp]
  00864	8d 14 81	 lea	 edx, DWORD PTR [ecx+eax*4]
  00867	69 04 95 00 00
	00 00 c0 00 00
	00		 imul	 eax, DWORD PTR ?BattleSkill@@3PAHA[edx*4], 192
  00872	0f bf 88 00 00
	00 00		 movsx	 ecx, WORD PTR ?profession_skill@@3PAUPROFESSION_SKILL@@A[eax]
  00879	85 c9		 test	 ecx, ecx
  0087b	75 35		 jne	 SHORT $LN54@BattleButt

; 1869 : 						StockDispBuffer ( x + 24 + j * 60 , y + 98 + i * 57 , DISP_PRIO_IME3 + 1 , CG_BTL_BUTTON_CROSS , 0 ) ;

  0087d	6a 00		 push	 0
  0087f	68 1d 62 00 00	 push	 25117			; 0000621dH
  00884	6a 6a		 push	 106			; 0000006aH
  00886	6b 85 7c fc ff
	ff 39		 imul	 eax, DWORD PTR _i$10[ebp], 57
  0088d	8b 8d c4 fc ff
	ff		 mov	 ecx, DWORD PTR _y$16[ebp]
  00893	8d 54 01 62	 lea	 edx, DWORD PTR [ecx+eax+98]
  00897	52		 push	 edx
  00898	6b 85 70 fc ff
	ff 3c		 imul	 eax, DWORD PTR _j$9[ebp], 60
  0089f	8b 8d d0 fc ff
	ff		 mov	 ecx, DWORD PTR _x$17[ebp]
  008a5	8d 54 01 18	 lea	 edx, DWORD PTR [ecx+eax+24]
  008a9	52		 push	 edx
  008aa	e8 00 00 00 00	 call	 ?StockDispBuffer@@YAHHHEHH@Z ; StockDispBuffer
  008af	83 c4 14	 add	 esp, 20			; 00000014H
$LN54@BattleButt:

; 1870 : 					if ( profession_skill[ BattleSkill [ j + i * 4 ] ].skillId == 40 && p_party[ BattleMyNo ]->hp <= 10 )

  008b2	8b 85 7c fc ff
	ff		 mov	 eax, DWORD PTR _i$10[ebp]
  008b8	8b 8d 70 fc ff
	ff		 mov	 ecx, DWORD PTR _j$9[ebp]
  008be	8d 14 81	 lea	 edx, DWORD PTR [ecx+eax*4]
  008c1	69 04 95 00 00
	00 00 c0 00 00
	00		 imul	 eax, DWORD PTR ?BattleSkill@@3PAHA[edx*4], 192
  008cc	0f bf 88 02 00
	00 00		 movsx	 ecx, WORD PTR ?profession_skill@@3PAUPROFESSION_SKILL@@A[eax+2]
  008d3	83 f9 28	 cmp	 ecx, 40			; 00000028H
  008d6	75 47		 jne	 SHORT $LN55@BattleButt
  008d8	a1 00 00 00 00	 mov	 eax, DWORD PTR ?BattleMyNo@@3HA ; BattleMyNo
  008dd	8b 0c 85 00 00
	00 00		 mov	 ecx, DWORD PTR ?p_party@@3PAPAUaction@@A[eax*4]
  008e4	83 79 78 0a	 cmp	 DWORD PTR [ecx+120], 10	; 0000000aH
  008e8	7f 35		 jg	 SHORT $LN55@BattleButt

; 1871 : 						StockDispBuffer ( x + 24 + j * 60 , y + 98 + i * 57 , DISP_PRIO_IME3 + 1 , CG_BTL_BUTTON_CROSS , 0 ) ;

  008ea	6a 00		 push	 0
  008ec	68 1d 62 00 00	 push	 25117			; 0000621dH
  008f1	6a 6a		 push	 106			; 0000006aH
  008f3	6b 85 7c fc ff
	ff 39		 imul	 eax, DWORD PTR _i$10[ebp], 57
  008fa	8b 8d c4 fc ff
	ff		 mov	 ecx, DWORD PTR _y$16[ebp]
  00900	8d 54 01 62	 lea	 edx, DWORD PTR [ecx+eax+98]
  00904	52		 push	 edx
  00905	6b 85 70 fc ff
	ff 3c		 imul	 eax, DWORD PTR _j$9[ebp], 60
  0090c	8b 8d d0 fc ff
	ff		 mov	 ecx, DWORD PTR _x$17[ebp]
  00912	8d 54 01 18	 lea	 edx, DWORD PTR [ecx+eax+24]
  00916	52		 push	 edx
  00917	e8 00 00 00 00	 call	 ?StockDispBuffer@@YAHHHEHH@Z ; StockDispBuffer
  0091c	83 c4 14	 add	 esp, 20			; 00000014H
$LN55@BattleButt:

; 1872 : 					//StockDispBuffer( x + 138 + j * 48 , y + 228 + i * 52 , DISP_PRIO_IME3, CG_FIELD_SKILL_TILE , 0 );
; 1873 : 					BattleSkillBtn [ j + i * 4 ] = StockDispBuffer( x + 24 + j * 60 , y + 98 + i * 57 , DISP_PRIO_IME3 + 1 , profession_skill[ BattleSkill [ j + i * 4 ] ].icon  , 2 );

  0091f	6a 02		 push	 2
  00921	8b 85 7c fc ff
	ff		 mov	 eax, DWORD PTR _i$10[ebp]
  00927	8b 8d 70 fc ff
	ff		 mov	 ecx, DWORD PTR _j$9[ebp]
  0092d	8d 14 81	 lea	 edx, DWORD PTR [ecx+eax*4]
  00930	69 04 95 00 00
	00 00 c0 00 00
	00		 imul	 eax, DWORD PTR ?BattleSkill@@3PAHA[edx*4], 192
  0093b	8b 88 b4 00 00
	00		 mov	 ecx, DWORD PTR ?profession_skill@@3PAUPROFESSION_SKILL@@A[eax+180]
  00941	51		 push	 ecx
  00942	6a 6a		 push	 106			; 0000006aH
  00944	6b 95 7c fc ff
	ff 39		 imul	 edx, DWORD PTR _i$10[ebp], 57
  0094b	8b 85 c4 fc ff
	ff		 mov	 eax, DWORD PTR _y$16[ebp]
  00951	8d 4c 10 62	 lea	 ecx, DWORD PTR [eax+edx+98]
  00955	51		 push	 ecx
  00956	6b 95 70 fc ff
	ff 3c		 imul	 edx, DWORD PTR _j$9[ebp], 60
  0095d	8b 85 d0 fc ff
	ff		 mov	 eax, DWORD PTR _x$17[ebp]
  00963	8d 4c 10 18	 lea	 ecx, DWORD PTR [eax+edx+24]
  00967	51		 push	 ecx
  00968	e8 00 00 00 00	 call	 ?StockDispBuffer@@YAHHHEHH@Z ; StockDispBuffer
  0096d	83 c4 14	 add	 esp, 20			; 00000014H
  00970	8b 95 7c fc ff
	ff		 mov	 edx, DWORD PTR _i$10[ebp]
  00976	8b 8d 70 fc ff
	ff		 mov	 ecx, DWORD PTR _j$9[ebp]
  0097c	8d 14 91	 lea	 edx, DWORD PTR [ecx+edx*4]
  0097f	89 04 95 00 00
	00 00		 mov	 DWORD PTR ?BattleSkillBtn@@3PAHA[edx*4], eax

; 1874 : 					sprintf ( msg2 , "%8s" , profession_skill[BattleSkill [ j + i * 4 ]].name );

  00986	8b 85 7c fc ff
	ff		 mov	 eax, DWORD PTR _i$10[ebp]
  0098c	8b 8d 70 fc ff
	ff		 mov	 ecx, DWORD PTR _j$9[ebp]
  00992	8d 14 81	 lea	 edx, DWORD PTR [ecx+eax*4]
  00995	69 04 95 00 00
	00 00 c0 00 00
	00		 imul	 eax, DWORD PTR ?BattleSkill@@3PAHA[edx*4], 192
  009a0	05 08 00 00 00	 add	 eax, OFFSET ?profession_skill@@3PAUPROFESSION_SKILL@@A+8
  009a5	50		 push	 eax
  009a6	68 00 00 00 00	 push	 OFFSET ??_C@_03GHDNOBPC@?$CF8s?$AA@
  009ab	8d 8d e8 fc ff
	ff		 lea	 ecx, DWORD PTR _msg2$[ebp]
  009b1	51		 push	 ecx
  009b2	e8 00 00 00 00	 call	 _sprintf
  009b7	83 c4 0c	 add	 esp, 12			; 0000000cH

; 1875 : 					StockFontBuffer( x + j * 60 , y + 110 + i * 57 , FONT_PRIO_FRONT, FONT_PAL_WHITE, msg2, 0 );

  009ba	6a 00		 push	 0
  009bc	8d 85 e8 fc ff
	ff		 lea	 eax, DWORD PTR _msg2$[ebp]
  009c2	50		 push	 eax
  009c3	6a 00		 push	 0
  009c5	6a 01		 push	 1
  009c7	6b 8d 7c fc ff
	ff 39		 imul	 ecx, DWORD PTR _i$10[ebp], 57
  009ce	8b 95 c4 fc ff
	ff		 mov	 edx, DWORD PTR _y$16[ebp]
  009d4	8d 44 0a 6e	 lea	 eax, DWORD PTR [edx+ecx+110]
  009d8	50		 push	 eax
  009d9	6b 8d 70 fc ff
	ff 3c		 imul	 ecx, DWORD PTR _j$9[ebp], 60
  009e0	03 8d d0 fc ff
	ff		 add	 ecx, DWORD PTR _x$17[ebp]
  009e6	51		 push	 ecx
  009e7	e8 00 00 00 00	 call	 ?StockFontBuffer@@YAHHHDHPADH@Z ; StockFontBuffer
  009ec	83 c4 18	 add	 esp, 24			; 00000018H

; 1876 : 					if ( HitDispNo == BattleSkillBtn [ j + i * 4 ] ){ 

  009ef	8b 85 7c fc ff
	ff		 mov	 eax, DWORD PTR _i$10[ebp]
  009f5	8b 8d 70 fc ff
	ff		 mov	 ecx, DWORD PTR _j$9[ebp]
  009fb	8d 14 81	 lea	 edx, DWORD PTR [ecx+eax*4]
  009fe	a1 00 00 00 00	 mov	 eax, DWORD PTR ?HitDispNo@@3HA ; HitDispNo
  00a03	3b 04 95 00 00
	00 00		 cmp	 eax, DWORD PTR ?BattleSkillBtn@@3PAHA[edx*4]
  00a0a	0f 85 af 01 00
	00		 jne	 $LN56@BattleButt

; 1877 : 
; 1878 : 						int use_color=0;

  00a10	c7 85 64 fc ff
	ff 00 00 00 00	 mov	 DWORD PTR _use_color$8[ebp], 0

; 1879 : 						if( p_party[ BattleMyNo ]->mp >= profession_skill[BattleSkill [ j + i * 4 ]].costmp && profession_skill[BattleSkill [ j + i * 4 ]].costmp != 0 ) {

  00a1a	a1 00 00 00 00	 mov	 eax, DWORD PTR ?BattleMyNo@@3HA ; BattleMyNo
  00a1f	8b 0c 85 00 00
	00 00		 mov	 ecx, DWORD PTR ?p_party@@3PAPAUaction@@A[eax*4]
  00a26	8b 95 7c fc ff
	ff		 mov	 edx, DWORD PTR _i$10[ebp]
  00a2c	8b 85 70 fc ff
	ff		 mov	 eax, DWORD PTR _j$9[ebp]
  00a32	8d 14 90	 lea	 edx, DWORD PTR [eax+edx*4]
  00a35	69 04 95 00 00
	00 00 c0 00 00
	00		 imul	 eax, DWORD PTR ?BattleSkill@@3PAHA[edx*4], 192
  00a40	8b 89 84 00 00
	00		 mov	 ecx, DWORD PTR [ecx+132]
  00a46	3b 88 b8 00 00
	00		 cmp	 ecx, DWORD PTR ?profession_skill@@3PAUPROFESSION_SKILL@@A[eax+184]
  00a4c	7c 2f		 jl	 SHORT $LN57@BattleButt
  00a4e	8b 85 7c fc ff
	ff		 mov	 eax, DWORD PTR _i$10[ebp]
  00a54	8b 8d 70 fc ff
	ff		 mov	 ecx, DWORD PTR _j$9[ebp]
  00a5a	8d 14 81	 lea	 edx, DWORD PTR [ecx+eax*4]
  00a5d	69 04 95 00 00
	00 00 c0 00 00
	00		 imul	 eax, DWORD PTR ?BattleSkill@@3PAHA[edx*4], 192
  00a68	83 b8 b8 00 00
	00 00		 cmp	 DWORD PTR ?profession_skill@@3PAUPROFESSION_SKILL@@A[eax+184], 0
  00a6f	74 0c		 je	 SHORT $LN57@BattleButt

; 1880 : 							use_color = FONT_PAL_WHITE;

  00a71	c7 85 64 fc ff
	ff 00 00 00 00	 mov	 DWORD PTR _use_color$8[ebp], 0

; 1881 : 						}else{

  00a7b	eb 0a		 jmp	 SHORT $LN58@BattleButt
$LN57@BattleButt:

; 1882 : 							use_color = FONT_PAL_GRAY;									

  00a7d	c7 85 64 fc ff
	ff 07 00 00 00	 mov	 DWORD PTR _use_color$8[ebp], 7
$LN58@BattleButt:

; 1883 : 						}
; 1884 : 
; 1885 : 						sprintf ( msg2 , "%s" , profession_skill[BattleSkill [ j + i * 4 ]].name );

  00a87	8b 85 7c fc ff
	ff		 mov	 eax, DWORD PTR _i$10[ebp]
  00a8d	8b 8d 70 fc ff
	ff		 mov	 ecx, DWORD PTR _j$9[ebp]
  00a93	8d 14 81	 lea	 edx, DWORD PTR [ecx+eax*4]
  00a96	69 04 95 00 00
	00 00 c0 00 00
	00		 imul	 eax, DWORD PTR ?BattleSkill@@3PAHA[edx*4], 192
  00aa1	05 08 00 00 00	 add	 eax, OFFSET ?profession_skill@@3PAUPROFESSION_SKILL@@A+8
  00aa6	50		 push	 eax
  00aa7	68 00 00 00 00	 push	 OFFSET ??_C@_02DKCKIIND@?$CFs?$AA@
  00aac	8d 8d e8 fc ff
	ff		 lea	 ecx, DWORD PTR _msg2$[ebp]
  00ab2	51		 push	 ecx
  00ab3	e8 00 00 00 00	 call	 _sprintf
  00ab8	83 c4 0c	 add	 esp, 12			; 0000000cH

; 1886 : 						StockFontBuffer( 20, 312, FONT_PRIO_FRONT, use_color, msg2, 0 );

  00abb	6a 00		 push	 0
  00abd	8d 85 e8 fc ff
	ff		 lea	 eax, DWORD PTR _msg2$[ebp]
  00ac3	50		 push	 eax
  00ac4	8b 8d 64 fc ff
	ff		 mov	 ecx, DWORD PTR _use_color$8[ebp]
  00aca	51		 push	 ecx
  00acb	6a 01		 push	 1
  00acd	68 38 01 00 00	 push	 312			; 00000138H
  00ad2	6a 14		 push	 20			; 00000014H
  00ad4	e8 00 00 00 00	 call	 ?StockFontBuffer@@YAHHHDHPADH@Z ; StockFontBuffer
  00ad9	83 c4 18	 add	 esp, 24			; 00000018H

; 1887 : 						
; 1888 : 						sprintf( msg , "  %d％", profession_skill[BattleSkill [ j + i * 4 ]].skill_level ) ; 

  00adc	8b 85 7c fc ff
	ff		 mov	 eax, DWORD PTR _i$10[ebp]
  00ae2	8b 8d 70 fc ff
	ff		 mov	 ecx, DWORD PTR _j$9[ebp]
  00ae8	8d 14 81	 lea	 edx, DWORD PTR [ecx+eax*4]
  00aeb	69 04 95 00 00
	00 00 c0 00 00
	00		 imul	 eax, DWORD PTR ?BattleSkill@@3PAHA[edx*4], 192
  00af6	8b 88 bc 00 00
	00		 mov	 ecx, DWORD PTR ?profession_skill@@3PAUPROFESSION_SKILL@@A[eax+188]
  00afc	51		 push	 ecx
  00afd	68 00 00 00 00	 push	 OFFSET ??_C@_06BPKJHHJO@?5?5?$CFd?$KD?$KF?$AA@
  00b02	8d 95 f8 fe ff
	ff		 lea	 edx, DWORD PTR _msg$[ebp]
  00b08	52		 push	 edx
  00b09	e8 00 00 00 00	 call	 _sprintf
  00b0e	83 c4 0c	 add	 esp, 12			; 0000000cH

; 1889 : 						StockFontBuffer( 85, 310, FONT_PRIO_FRONT, use_color, msg, 0 );

  00b11	6a 00		 push	 0
  00b13	8d 85 f8 fe ff
	ff		 lea	 eax, DWORD PTR _msg$[ebp]
  00b19	50		 push	 eax
  00b1a	8b 8d 64 fc ff
	ff		 mov	 ecx, DWORD PTR _use_color$8[ebp]
  00b20	51		 push	 ecx
  00b21	6a 01		 push	 1
  00b23	68 36 01 00 00	 push	 310			; 00000136H
  00b28	6a 55		 push	 85			; 00000055H
  00b2a	e8 00 00 00 00	 call	 ?StockFontBuffer@@YAHHHDHPADH@Z ; StockFontBuffer
  00b2f	83 c4 18	 add	 esp, 24			; 00000018H

; 1890 : 
; 1891 : 						sprintf ( msg2 , "(소비하다MP:%d)" , profession_skill[BattleSkill [ j + i * 4 ]].costmp );

  00b32	8b 85 7c fc ff
	ff		 mov	 eax, DWORD PTR _i$10[ebp]
  00b38	8b 8d 70 fc ff
	ff		 mov	 ecx, DWORD PTR _j$9[ebp]
  00b3e	8d 14 81	 lea	 edx, DWORD PTR [ecx+eax*4]
  00b41	69 04 95 00 00
	00 00 c0 00 00
	00		 imul	 eax, DWORD PTR ?BattleSkill@@3PAHA[edx*4], 192
  00b4c	8b 88 b8 00 00
	00		 mov	 ecx, DWORD PTR ?profession_skill@@3PAUPROFESSION_SKILL@@A[eax+184]
  00b52	51		 push	 ecx
  00b53	68 00 00 00 00	 push	 OFFSET ??_C@_0BA@OEIEMLKK@?$CI?$LM?R?$LK?q?G?O?$LE?YMP?3?$CFd?$CJ?$AA@
  00b58	8d 95 e8 fc ff
	ff		 lea	 edx, DWORD PTR _msg2$[ebp]
  00b5e	52		 push	 edx
  00b5f	e8 00 00 00 00	 call	 _sprintf
  00b64	83 c4 0c	 add	 esp, 12			; 0000000cH

; 1892 : 						StockFontBuffer( 170, 312, FONT_PRIO_FRONT, use_color, msg2, 0 );

  00b67	6a 00		 push	 0
  00b69	8d 85 e8 fc ff
	ff		 lea	 eax, DWORD PTR _msg2$[ebp]
  00b6f	50		 push	 eax
  00b70	8b 8d 64 fc ff
	ff		 mov	 ecx, DWORD PTR _use_color$8[ebp]
  00b76	51		 push	 ecx
  00b77	6a 01		 push	 1
  00b79	68 38 01 00 00	 push	 312			; 00000138H
  00b7e	68 aa 00 00 00	 push	 170			; 000000aaH
  00b83	e8 00 00 00 00	 call	 ?StockFontBuffer@@YAHHHDHPADH@Z ; StockFontBuffer
  00b88	83 c4 18	 add	 esp, 24			; 00000018H

; 1893 : 
; 1894 : 						sprintf( msg , "%s" , profession_skill[BattleSkill [ j + i * 4 ]].memo ) ; 

  00b8b	8b 85 7c fc ff
	ff		 mov	 eax, DWORD PTR _i$10[ebp]
  00b91	8b 8d 70 fc ff
	ff		 mov	 ecx, DWORD PTR _j$9[ebp]
  00b97	8d 14 81	 lea	 edx, DWORD PTR [ecx+eax*4]
  00b9a	69 04 95 00 00
	00 00 c0 00 00
	00		 imul	 eax, DWORD PTR ?BattleSkill@@3PAHA[edx*4], 192
  00ba5	05 5d 00 00 00	 add	 eax, OFFSET ?profession_skill@@3PAUPROFESSION_SKILL@@A+93
  00baa	50		 push	 eax
  00bab	68 00 00 00 00	 push	 OFFSET ??_C@_02DKCKIIND@?$CFs?$AA@
  00bb0	8d 8d f8 fe ff
	ff		 lea	 ecx, DWORD PTR _msg$[ebp]
  00bb6	51		 push	 ecx
  00bb7	e8 00 00 00 00	 call	 _sprintf
  00bbc	83 c4 0c	 add	 esp, 12			; 0000000cH
$LN56@BattleButt:

; 1895 : 					}
; 1896 : 					if( mouse.onceState & MOUSE_LEFT_CRICK_UP ) {

  00bbf	a1 2c 00 00 00	 mov	 eax, DWORD PTR ?mouse@@3UMOUSE@@A+44
  00bc4	83 e0 04	 and	 eax, 4
  00bc7	0f 84 32 01 00
	00		 je	 $LN59@BattleButt

; 1897 : 						if ( HitDispNo == BattleSkillBtn [ j + i * 4 ] && profession_skill[ BattleSkill [ j + i * 4 ] ].useFlag != 0) {

  00bcd	8b 85 7c fc ff
	ff		 mov	 eax, DWORD PTR _i$10[ebp]
  00bd3	8b 8d 70 fc ff
	ff		 mov	 ecx, DWORD PTR _j$9[ebp]
  00bd9	8d 14 81	 lea	 edx, DWORD PTR [ecx+eax*4]
  00bdc	a1 00 00 00 00	 mov	 eax, DWORD PTR ?HitDispNo@@3HA ; HitDispNo
  00be1	3b 04 95 00 00
	00 00		 cmp	 eax, DWORD PTR ?BattleSkillBtn@@3PAHA[edx*4]
  00be8	0f 85 11 01 00
	00		 jne	 $LN59@BattleButt
  00bee	8b 85 7c fc ff
	ff		 mov	 eax, DWORD PTR _i$10[ebp]
  00bf4	8b 8d 70 fc ff
	ff		 mov	 ecx, DWORD PTR _j$9[ebp]
  00bfa	8d 14 81	 lea	 edx, DWORD PTR [ecx+eax*4]
  00bfd	69 04 95 00 00
	00 00 c0 00 00
	00		 imul	 eax, DWORD PTR ?BattleSkill@@3PAHA[edx*4], 192
  00c08	0f bf 88 00 00
	00 00		 movsx	 ecx, WORD PTR ?profession_skill@@3PAUPROFESSION_SKILL@@A[eax]
  00c0f	85 c9		 test	 ecx, ecx
  00c11	0f 84 e8 00 00
	00		 je	 $LN59@BattleButt

; 1898 : 							if( p_party[ BattleMyNo ]->mp >= profession_skill[BattleSkill [ j + i * 4 ]].costmp && profession_skill[BattleSkill [ j + i * 4 ]].costmp != 0  ) {

  00c17	a1 00 00 00 00	 mov	 eax, DWORD PTR ?BattleMyNo@@3HA ; BattleMyNo
  00c1c	8b 0c 85 00 00
	00 00		 mov	 ecx, DWORD PTR ?p_party@@3PAPAUaction@@A[eax*4]
  00c23	8b 95 7c fc ff
	ff		 mov	 edx, DWORD PTR _i$10[ebp]
  00c29	8b 85 70 fc ff
	ff		 mov	 eax, DWORD PTR _j$9[ebp]
  00c2f	8d 14 90	 lea	 edx, DWORD PTR [eax+edx*4]
  00c32	69 04 95 00 00
	00 00 c0 00 00
	00		 imul	 eax, DWORD PTR ?BattleSkill@@3PAHA[edx*4], 192
  00c3d	8b 89 84 00 00
	00		 mov	 ecx, DWORD PTR [ecx+132]
  00c43	3b 88 b8 00 00
	00		 cmp	 ecx, DWORD PTR ?profession_skill@@3PAUPROFESSION_SKILL@@A[eax+184]
  00c49	0f 8c b0 00 00
	00		 jl	 $LN59@BattleButt
  00c4f	8b 85 7c fc ff
	ff		 mov	 eax, DWORD PTR _i$10[ebp]
  00c55	8b 8d 70 fc ff
	ff		 mov	 ecx, DWORD PTR _j$9[ebp]
  00c5b	8d 14 81	 lea	 edx, DWORD PTR [ecx+eax*4]
  00c5e	69 04 95 00 00
	00 00 c0 00 00
	00		 imul	 eax, DWORD PTR ?BattleSkill@@3PAHA[edx*4], 192
  00c69	83 b8 b8 00 00
	00 00		 cmp	 DWORD PTR ?profession_skill@@3PAUPROFESSION_SKILL@@A[eax+184], 0
  00c70	0f 84 89 00 00
	00		 je	 $LN59@BattleButt

; 1899 : 								if ( !(profession_skill[ BattleSkill [ j + i * 4 ] ].skillId == 40 && p_party[ BattleMyNo ]->hp <= 10) ) { //濒死攻击限制

  00c76	8b 85 7c fc ff
	ff		 mov	 eax, DWORD PTR _i$10[ebp]
  00c7c	8b 8d 70 fc ff
	ff		 mov	 ecx, DWORD PTR _j$9[ebp]
  00c82	8d 14 81	 lea	 edx, DWORD PTR [ecx+eax*4]
  00c85	69 04 95 00 00
	00 00 c0 00 00
	00		 imul	 eax, DWORD PTR ?BattleSkill@@3PAHA[edx*4], 192
  00c90	0f bf 88 02 00
	00 00		 movsx	 ecx, WORD PTR ?profession_skill@@3PAUPROFESSION_SKILL@@A[eax+2]
  00c97	83 f9 28	 cmp	 ecx, 40			; 00000028H
  00c9a	75 12		 jne	 SHORT $LN63@BattleButt
  00c9c	a1 00 00 00 00	 mov	 eax, DWORD PTR ?BattleMyNo@@3HA ; BattleMyNo
  00ca1	8b 0c 85 00 00
	00 00		 mov	 ecx, DWORD PTR ?p_party@@3PAPAUaction@@A[eax*4]
  00ca8	83 79 78 0a	 cmp	 DWORD PTR [ecx+120], 10	; 0000000aH
  00cac	7e 51		 jle	 SHORT $LN59@BattleButt
$LN63@BattleButt:

; 1900 : 									wonflag = 0 ; 

  00cae	c7 05 00 00 00
	00 00 00 00 00	 mov	 DWORD PTR ?wonflag@@3HA, 0 ; wonflag

; 1901 : 									prouseskill = BattleSkill [ j + i * 4 ] ; 

  00cb8	8b 85 7c fc ff
	ff		 mov	 eax, DWORD PTR _i$10[ebp]
  00cbe	8b 8d 70 fc ff
	ff		 mov	 ecx, DWORD PTR _j$9[ebp]
  00cc4	8d 14 81	 lea	 edx, DWORD PTR [ecx+eax*4]
  00cc7	8b 04 95 00 00
	00 00		 mov	 eax, DWORD PTR ?BattleSkill@@3PAHA[edx*4]
  00cce	a3 00 00 00 00	 mov	 DWORD PTR ?prouseskill@@3HA, eax ; prouseskill

; 1902 : 									BattleSetWazaHitBox( profession_skill[BattleSkill [ j + i * 4 ] ].target , 1) ; 

  00cd3	6a 01		 push	 1
  00cd5	8b 85 7c fc ff
	ff		 mov	 eax, DWORD PTR _i$10[ebp]
  00cdb	8b 8d 70 fc ff
	ff		 mov	 ecx, DWORD PTR _j$9[ebp]
  00ce1	8d 14 81	 lea	 edx, DWORD PTR [ecx+eax*4]
  00ce4	69 04 95 00 00
	00 00 c0 00 00
	00		 imul	 eax, DWORD PTR ?BattleSkill@@3PAHA[edx*4], 192
  00cef	0f bf 88 04 00
	00 00		 movsx	 ecx, WORD PTR ?profession_skill@@3PAUPROFESSION_SKILL@@A[eax+4]
  00cf6	51		 push	 ecx
  00cf7	e8 00 00 00 00	 call	 ?BattleSetWazaHitBox@@YAXHH@Z ; BattleSetWazaHitBox
  00cfc	83 c4 08	 add	 esp, 8
$LN59@BattleButt:

; 1903 : 								}
; 1904 : 							}
; 1905 : 						}
; 1906 : 					}
; 1907 : 				}

  00cff	e9 1a fb ff ff	 jmp	 $LN22@BattleButt
$LN23@BattleButt:

; 1908 : 			}

  00d04	e9 ed fa ff ff	 jmp	 $LN19@BattleButt
$LN20@BattleButt:

; 1909 : 			break;

  00d09	e9 8d 04 00 00	 jmp	 $LN11@BattleButt
$LN64@BattleButt:

; 1910 : 		case 2:
; 1911 : #ifdef _READ16BITBMP
; 1912 : 			if(g_bUseAlpha) StockDispBuffer( 168, 223, DISP_PRIO_IME3, CG_FIELD_SKILL_ADVSK , 0 );
; 1913 : 			else
; 1914 : #endif
; 1915 : 			StockDispBuffer( 165, 221, DISP_PRIO_IME3, CG_FIELD_SKILL_ADVSK , 0 );

  00d0e	6a 00		 push	 0
  00d10	68 f3 66 00 00	 push	 26355			; 000066f3H
  00d15	6a 69		 push	 105			; 00000069H
  00d17	68 dd 00 00 00	 push	 221			; 000000ddH
  00d1c	68 a5 00 00 00	 push	 165			; 000000a5H
  00d21	e8 00 00 00 00	 call	 ?StockDispBuffer@@YAHHHEHH@Z ; StockDispBuffer
  00d26	83 c4 14	 add	 esp, 20			; 00000014H

; 1916 : 			for ( int i = 0 ; i < 4 ; i ++ ) {

  00d29	c7 85 58 fc ff
	ff 00 00 00 00	 mov	 DWORD PTR _i$7[ebp], 0
  00d33	eb 0f		 jmp	 SHORT $LN27@BattleButt
$LN25@BattleButt:
  00d35	8b 85 58 fc ff
	ff		 mov	 eax, DWORD PTR _i$7[ebp]
  00d3b	83 c0 01	 add	 eax, 1
  00d3e	89 85 58 fc ff
	ff		 mov	 DWORD PTR _i$7[ebp], eax
$LN27@BattleButt:
  00d44	83 bd 58 fc ff
	ff 04		 cmp	 DWORD PTR _i$7[ebp], 4
  00d4b	0f 8d 4a 04 00
	00		 jge	 $LN11@BattleButt

; 1917 : 				for ( int j = 0 ; j < 4 ; j ++ ) {

  00d51	c7 85 4c fc ff
	ff 00 00 00 00	 mov	 DWORD PTR _j$6[ebp], 0
  00d5b	eb 0f		 jmp	 SHORT $LN30@BattleButt
$LN28@BattleButt:
  00d5d	8b 85 4c fc ff
	ff		 mov	 eax, DWORD PTR _j$6[ebp]
  00d63	83 c0 01	 add	 eax, 1
  00d66	89 85 4c fc ff
	ff		 mov	 DWORD PTR _j$6[ebp], eax
$LN30@BattleButt:
  00d6c	83 bd 4c fc ff
	ff 04		 cmp	 DWORD PTR _j$6[ebp], 4
  00d73	0f 8d 1d 04 00
	00		 jge	 $LN29@BattleButt

; 1918 : 					if ( AdvanceSkill [ j + i * 4 ] == -1 ) 

  00d79	8b 85 58 fc ff
	ff		 mov	 eax, DWORD PTR _i$7[ebp]
  00d7f	8b 8d 4c fc ff
	ff		 mov	 ecx, DWORD PTR _j$6[ebp]
  00d85	8d 14 81	 lea	 edx, DWORD PTR [ecx+eax*4]
  00d88	83 3c 95 00 00
	00 00 ff	 cmp	 DWORD PTR ?AdvanceSkill@@3PAHA[edx*4], -1
  00d90	75 05		 jne	 SHORT $LN65@BattleButt

; 1919 : 						break;

  00d92	e9 ff 03 00 00	 jmp	 $LN29@BattleButt
$LN65@BattleButt:

; 1920 : 					if ( profession_skill[ AdvanceSkill [ j + i * 4 ] ].useFlag == 0 )

  00d97	8b 85 58 fc ff
	ff		 mov	 eax, DWORD PTR _i$7[ebp]
  00d9d	8b 8d 4c fc ff
	ff		 mov	 ecx, DWORD PTR _j$6[ebp]
  00da3	8d 14 81	 lea	 edx, DWORD PTR [ecx+eax*4]
  00da6	69 04 95 00 00
	00 00 c0 00 00
	00		 imul	 eax, DWORD PTR ?AdvanceSkill@@3PAHA[edx*4], 192
  00db1	0f bf 88 00 00
	00 00		 movsx	 ecx, WORD PTR ?profession_skill@@3PAUPROFESSION_SKILL@@A[eax]
  00db8	85 c9		 test	 ecx, ecx
  00dba	75 35		 jne	 SHORT $LN66@BattleButt

; 1921 : 						StockDispBuffer ( x + 24 + j * 60 , y + 98 + i * 57 , DISP_PRIO_IME3 + 1 , CG_BTL_BUTTON_CROSS , 0 ) ;

  00dbc	6a 00		 push	 0
  00dbe	68 1d 62 00 00	 push	 25117			; 0000621dH
  00dc3	6a 6a		 push	 106			; 0000006aH
  00dc5	6b 85 58 fc ff
	ff 39		 imul	 eax, DWORD PTR _i$7[ebp], 57
  00dcc	8b 8d c4 fc ff
	ff		 mov	 ecx, DWORD PTR _y$16[ebp]
  00dd2	8d 54 01 62	 lea	 edx, DWORD PTR [ecx+eax+98]
  00dd6	52		 push	 edx
  00dd7	6b 85 4c fc ff
	ff 3c		 imul	 eax, DWORD PTR _j$6[ebp], 60
  00dde	8b 8d d0 fc ff
	ff		 mov	 ecx, DWORD PTR _x$17[ebp]
  00de4	8d 54 01 18	 lea	 edx, DWORD PTR [ecx+eax+24]
  00de8	52		 push	 edx
  00de9	e8 00 00 00 00	 call	 ?StockDispBuffer@@YAHHHEHH@Z ; StockDispBuffer
  00dee	83 c4 14	 add	 esp, 20			; 00000014H
$LN66@BattleButt:

; 1922 : 					//StockDispBuffer( x + 138 + j * 48 , y + 228 + i * 52 , DISP_PRIO_IME3, CG_FIELD_SKILL_TILE , 0 );
; 1923 : 					AdvanceSkillBtn [ j + i * 4 ] = StockDispBuffer( x + 24 + j * 60 , y + 98 + i * 57 , DISP_PRIO_IME3 + 1 , profession_skill[ AdvanceSkill [ j + i * 4 ] ].icon  , 2 );

  00df1	6a 02		 push	 2
  00df3	8b 85 58 fc ff
	ff		 mov	 eax, DWORD PTR _i$7[ebp]
  00df9	8b 8d 4c fc ff
	ff		 mov	 ecx, DWORD PTR _j$6[ebp]
  00dff	8d 14 81	 lea	 edx, DWORD PTR [ecx+eax*4]
  00e02	69 04 95 00 00
	00 00 c0 00 00
	00		 imul	 eax, DWORD PTR ?AdvanceSkill@@3PAHA[edx*4], 192
  00e0d	8b 88 b4 00 00
	00		 mov	 ecx, DWORD PTR ?profession_skill@@3PAUPROFESSION_SKILL@@A[eax+180]
  00e13	51		 push	 ecx
  00e14	6a 6a		 push	 106			; 0000006aH
  00e16	6b 95 58 fc ff
	ff 39		 imul	 edx, DWORD PTR _i$7[ebp], 57
  00e1d	8b 85 c4 fc ff
	ff		 mov	 eax, DWORD PTR _y$16[ebp]
  00e23	8d 4c 10 62	 lea	 ecx, DWORD PTR [eax+edx+98]
  00e27	51		 push	 ecx
  00e28	6b 95 4c fc ff
	ff 3c		 imul	 edx, DWORD PTR _j$6[ebp], 60
  00e2f	8b 85 d0 fc ff
	ff		 mov	 eax, DWORD PTR _x$17[ebp]
  00e35	8d 4c 10 18	 lea	 ecx, DWORD PTR [eax+edx+24]
  00e39	51		 push	 ecx
  00e3a	e8 00 00 00 00	 call	 ?StockDispBuffer@@YAHHHEHH@Z ; StockDispBuffer
  00e3f	83 c4 14	 add	 esp, 20			; 00000014H
  00e42	8b 95 58 fc ff
	ff		 mov	 edx, DWORD PTR _i$7[ebp]
  00e48	8b 8d 4c fc ff
	ff		 mov	 ecx, DWORD PTR _j$6[ebp]
  00e4e	8d 14 91	 lea	 edx, DWORD PTR [ecx+edx*4]
  00e51	89 04 95 00 00
	00 00		 mov	 DWORD PTR ?AdvanceSkillBtn@@3PAHA[edx*4], eax

; 1924 : 					sprintf ( msg2 , "%8s" , profession_skill[AdvanceSkill [ j + i * 4 ]].name );

  00e58	8b 85 58 fc ff
	ff		 mov	 eax, DWORD PTR _i$7[ebp]
  00e5e	8b 8d 4c fc ff
	ff		 mov	 ecx, DWORD PTR _j$6[ebp]
  00e64	8d 14 81	 lea	 edx, DWORD PTR [ecx+eax*4]
  00e67	69 04 95 00 00
	00 00 c0 00 00
	00		 imul	 eax, DWORD PTR ?AdvanceSkill@@3PAHA[edx*4], 192
  00e72	05 08 00 00 00	 add	 eax, OFFSET ?profession_skill@@3PAUPROFESSION_SKILL@@A+8
  00e77	50		 push	 eax
  00e78	68 00 00 00 00	 push	 OFFSET ??_C@_03GHDNOBPC@?$CF8s?$AA@
  00e7d	8d 8d e8 fc ff
	ff		 lea	 ecx, DWORD PTR _msg2$[ebp]
  00e83	51		 push	 ecx
  00e84	e8 00 00 00 00	 call	 _sprintf
  00e89	83 c4 0c	 add	 esp, 12			; 0000000cH

; 1925 : 					StockFontBuffer( x + j * 60 , y + 110 + i * 57 , FONT_PRIO_FRONT, FONT_PAL_WHITE, msg2, 0 );

  00e8c	6a 00		 push	 0
  00e8e	8d 85 e8 fc ff
	ff		 lea	 eax, DWORD PTR _msg2$[ebp]
  00e94	50		 push	 eax
  00e95	6a 00		 push	 0
  00e97	6a 01		 push	 1
  00e99	6b 8d 58 fc ff
	ff 39		 imul	 ecx, DWORD PTR _i$7[ebp], 57
  00ea0	8b 95 c4 fc ff
	ff		 mov	 edx, DWORD PTR _y$16[ebp]
  00ea6	8d 44 0a 6e	 lea	 eax, DWORD PTR [edx+ecx+110]
  00eaa	50		 push	 eax
  00eab	6b 8d 4c fc ff
	ff 3c		 imul	 ecx, DWORD PTR _j$6[ebp], 60
  00eb2	03 8d d0 fc ff
	ff		 add	 ecx, DWORD PTR _x$17[ebp]
  00eb8	51		 push	 ecx
  00eb9	e8 00 00 00 00	 call	 ?StockFontBuffer@@YAHHHDHPADH@Z ; StockFontBuffer
  00ebe	83 c4 18	 add	 esp, 24			; 00000018H

; 1926 : 					if ( HitDispNo == AdvanceSkillBtn [ j + i * 4 ] ){ 

  00ec1	8b 85 58 fc ff
	ff		 mov	 eax, DWORD PTR _i$7[ebp]
  00ec7	8b 8d 4c fc ff
	ff		 mov	 ecx, DWORD PTR _j$6[ebp]
  00ecd	8d 14 81	 lea	 edx, DWORD PTR [ecx+eax*4]
  00ed0	a1 00 00 00 00	 mov	 eax, DWORD PTR ?HitDispNo@@3HA ; HitDispNo
  00ed5	3b 04 95 00 00
	00 00		 cmp	 eax, DWORD PTR ?AdvanceSkillBtn@@3PAHA[edx*4]
  00edc	0f 85 af 01 00
	00		 jne	 $LN67@BattleButt

; 1927 : 						
; 1928 : 						int use_color = 0;

  00ee2	c7 85 40 fc ff
	ff 00 00 00 00	 mov	 DWORD PTR _use_color$5[ebp], 0

; 1929 : 						if( p_party[ BattleMyNo ]->mp >= profession_skill[AdvanceSkill [ j + i * 4 ]].costmp && profession_skill[AdvanceSkill [ j + i * 4 ]].costmp != 0 

  00eec	a1 00 00 00 00	 mov	 eax, DWORD PTR ?BattleMyNo@@3HA ; BattleMyNo
  00ef1	8b 0c 85 00 00
	00 00		 mov	 ecx, DWORD PTR ?p_party@@3PAPAUaction@@A[eax*4]
  00ef8	8b 95 58 fc ff
	ff		 mov	 edx, DWORD PTR _i$7[ebp]
  00efe	8b 85 4c fc ff
	ff		 mov	 eax, DWORD PTR _j$6[ebp]
  00f04	8d 14 90	 lea	 edx, DWORD PTR [eax+edx*4]
  00f07	69 04 95 00 00
	00 00 c0 00 00
	00		 imul	 eax, DWORD PTR ?AdvanceSkill@@3PAHA[edx*4], 192
  00f12	8b 89 84 00 00
	00		 mov	 ecx, DWORD PTR [ecx+132]
  00f18	3b 88 b8 00 00
	00		 cmp	 ecx, DWORD PTR ?profession_skill@@3PAUPROFESSION_SKILL@@A[eax+184]
  00f1e	7c 2f		 jl	 SHORT $LN68@BattleButt
  00f20	8b 85 58 fc ff
	ff		 mov	 eax, DWORD PTR _i$7[ebp]
  00f26	8b 8d 4c fc ff
	ff		 mov	 ecx, DWORD PTR _j$6[ebp]
  00f2c	8d 14 81	 lea	 edx, DWORD PTR [ecx+eax*4]
  00f2f	69 04 95 00 00
	00 00 c0 00 00
	00		 imul	 eax, DWORD PTR ?AdvanceSkill@@3PAHA[edx*4], 192
  00f3a	83 b8 b8 00 00
	00 00		 cmp	 DWORD PTR ?profession_skill@@3PAUPROFESSION_SKILL@@A[eax+184], 0
  00f41	74 0c		 je	 SHORT $LN68@BattleButt

; 1930 : 							){
; 1931 : 							use_color = FONT_PAL_WHITE;

  00f43	c7 85 40 fc ff
	ff 00 00 00 00	 mov	 DWORD PTR _use_color$5[ebp], 0

; 1932 : 						}else{

  00f4d	eb 0a		 jmp	 SHORT $LN69@BattleButt
$LN68@BattleButt:

; 1933 : 							use_color = FONT_PAL_GRAY;									

  00f4f	c7 85 40 fc ff
	ff 07 00 00 00	 mov	 DWORD PTR _use_color$5[ebp], 7
$LN69@BattleButt:

; 1934 : 						}
; 1935 : #ifdef _PROFESSION_ADDSKILL
; 1936 : 					//	if ( profession_skill[ AdvanceSkill [ j + i * 4 ] ].skillId == 2 )
; 1937 : 					//		use_color = FONT_PAL_WHITE; //针针相对不做mp限制
; 1938 : #endif			
; 1939 : 						sprintf ( msg2 , "%s" , profession_skill[AdvanceSkill [ j + i * 4 ]].name );

  00f59	8b 85 58 fc ff
	ff		 mov	 eax, DWORD PTR _i$7[ebp]
  00f5f	8b 8d 4c fc ff
	ff		 mov	 ecx, DWORD PTR _j$6[ebp]
  00f65	8d 14 81	 lea	 edx, DWORD PTR [ecx+eax*4]
  00f68	69 04 95 00 00
	00 00 c0 00 00
	00		 imul	 eax, DWORD PTR ?AdvanceSkill@@3PAHA[edx*4], 192
  00f73	05 08 00 00 00	 add	 eax, OFFSET ?profession_skill@@3PAUPROFESSION_SKILL@@A+8
  00f78	50		 push	 eax
  00f79	68 00 00 00 00	 push	 OFFSET ??_C@_02DKCKIIND@?$CFs?$AA@
  00f7e	8d 8d e8 fc ff
	ff		 lea	 ecx, DWORD PTR _msg2$[ebp]
  00f84	51		 push	 ecx
  00f85	e8 00 00 00 00	 call	 _sprintf
  00f8a	83 c4 0c	 add	 esp, 12			; 0000000cH

; 1940 : 						StockFontBuffer( 20, 312, FONT_PRIO_FRONT, use_color, msg2, 0 );

  00f8d	6a 00		 push	 0
  00f8f	8d 85 e8 fc ff
	ff		 lea	 eax, DWORD PTR _msg2$[ebp]
  00f95	50		 push	 eax
  00f96	8b 8d 40 fc ff
	ff		 mov	 ecx, DWORD PTR _use_color$5[ebp]
  00f9c	51		 push	 ecx
  00f9d	6a 01		 push	 1
  00f9f	68 38 01 00 00	 push	 312			; 00000138H
  00fa4	6a 14		 push	 20			; 00000014H
  00fa6	e8 00 00 00 00	 call	 ?StockFontBuffer@@YAHHHDHPADH@Z ; StockFontBuffer
  00fab	83 c4 18	 add	 esp, 24			; 00000018H

; 1941 : 
; 1942 : 						sprintf( msg , "  %d％", profession_skill[AdvanceSkill [ j + i * 4 ]].skill_level ) ; 

  00fae	8b 85 58 fc ff
	ff		 mov	 eax, DWORD PTR _i$7[ebp]
  00fb4	8b 8d 4c fc ff
	ff		 mov	 ecx, DWORD PTR _j$6[ebp]
  00fba	8d 14 81	 lea	 edx, DWORD PTR [ecx+eax*4]
  00fbd	69 04 95 00 00
	00 00 c0 00 00
	00		 imul	 eax, DWORD PTR ?AdvanceSkill@@3PAHA[edx*4], 192
  00fc8	8b 88 bc 00 00
	00		 mov	 ecx, DWORD PTR ?profession_skill@@3PAUPROFESSION_SKILL@@A[eax+188]
  00fce	51		 push	 ecx
  00fcf	68 00 00 00 00	 push	 OFFSET ??_C@_06BPKJHHJO@?5?5?$CFd?$KD?$KF?$AA@
  00fd4	8d 95 f8 fe ff
	ff		 lea	 edx, DWORD PTR _msg$[ebp]
  00fda	52		 push	 edx
  00fdb	e8 00 00 00 00	 call	 _sprintf
  00fe0	83 c4 0c	 add	 esp, 12			; 0000000cH

; 1943 : 						StockFontBuffer( 85, 310, FONT_PRIO_FRONT, use_color, msg, 0 );

  00fe3	6a 00		 push	 0
  00fe5	8d 85 f8 fe ff
	ff		 lea	 eax, DWORD PTR _msg$[ebp]
  00feb	50		 push	 eax
  00fec	8b 8d 40 fc ff
	ff		 mov	 ecx, DWORD PTR _use_color$5[ebp]
  00ff2	51		 push	 ecx
  00ff3	6a 01		 push	 1
  00ff5	68 36 01 00 00	 push	 310			; 00000136H
  00ffa	6a 55		 push	 85			; 00000055H
  00ffc	e8 00 00 00 00	 call	 ?StockFontBuffer@@YAHHHDHPADH@Z ; StockFontBuffer
  01001	83 c4 18	 add	 esp, 24			; 00000018H

; 1944 : 						
; 1945 : 						sprintf ( msg2 , "(소비하다MP:%d)" , profession_skill[AdvanceSkill [ j + i * 4 ]].costmp );

  01004	8b 85 58 fc ff
	ff		 mov	 eax, DWORD PTR _i$7[ebp]
  0100a	8b 8d 4c fc ff
	ff		 mov	 ecx, DWORD PTR _j$6[ebp]
  01010	8d 14 81	 lea	 edx, DWORD PTR [ecx+eax*4]
  01013	69 04 95 00 00
	00 00 c0 00 00
	00		 imul	 eax, DWORD PTR ?AdvanceSkill@@3PAHA[edx*4], 192
  0101e	8b 88 b8 00 00
	00		 mov	 ecx, DWORD PTR ?profession_skill@@3PAUPROFESSION_SKILL@@A[eax+184]
  01024	51		 push	 ecx
  01025	68 00 00 00 00	 push	 OFFSET ??_C@_0BA@OEIEMLKK@?$CI?$LM?R?$LK?q?G?O?$LE?YMP?3?$CFd?$CJ?$AA@
  0102a	8d 95 e8 fc ff
	ff		 lea	 edx, DWORD PTR _msg2$[ebp]
  01030	52		 push	 edx
  01031	e8 00 00 00 00	 call	 _sprintf
  01036	83 c4 0c	 add	 esp, 12			; 0000000cH

; 1946 : 						StockFontBuffer( 170, 312, FONT_PRIO_FRONT, use_color, msg2, 0 );

  01039	6a 00		 push	 0
  0103b	8d 85 e8 fc ff
	ff		 lea	 eax, DWORD PTR _msg2$[ebp]
  01041	50		 push	 eax
  01042	8b 8d 40 fc ff
	ff		 mov	 ecx, DWORD PTR _use_color$5[ebp]
  01048	51		 push	 ecx
  01049	6a 01		 push	 1
  0104b	68 38 01 00 00	 push	 312			; 00000138H
  01050	68 aa 00 00 00	 push	 170			; 000000aaH
  01055	e8 00 00 00 00	 call	 ?StockFontBuffer@@YAHHHDHPADH@Z ; StockFontBuffer
  0105a	83 c4 18	 add	 esp, 24			; 00000018H

; 1947 : 
; 1948 : 						sprintf( msg , "%s" , profession_skill[AdvanceSkill [ j + i * 4 ]].memo ) ; 

  0105d	8b 85 58 fc ff
	ff		 mov	 eax, DWORD PTR _i$7[ebp]
  01063	8b 8d 4c fc ff
	ff		 mov	 ecx, DWORD PTR _j$6[ebp]
  01069	8d 14 81	 lea	 edx, DWORD PTR [ecx+eax*4]
  0106c	69 04 95 00 00
	00 00 c0 00 00
	00		 imul	 eax, DWORD PTR ?AdvanceSkill@@3PAHA[edx*4], 192
  01077	05 5d 00 00 00	 add	 eax, OFFSET ?profession_skill@@3PAUPROFESSION_SKILL@@A+93
  0107c	50		 push	 eax
  0107d	68 00 00 00 00	 push	 OFFSET ??_C@_02DKCKIIND@?$CFs?$AA@
  01082	8d 8d f8 fe ff
	ff		 lea	 ecx, DWORD PTR _msg$[ebp]
  01088	51		 push	 ecx
  01089	e8 00 00 00 00	 call	 _sprintf
  0108e	83 c4 0c	 add	 esp, 12			; 0000000cH
$LN67@BattleButt:

; 1949 : 					}
; 1950 : 					if( mouse.onceState & MOUSE_LEFT_CRICK_UP ) {

  01091	a1 2c 00 00 00	 mov	 eax, DWORD PTR ?mouse@@3UMOUSE@@A+44
  01096	83 e0 04	 and	 eax, 4
  01099	0f 84 f2 00 00
	00		 je	 $LN70@BattleButt

; 1951 : 						if ( HitDispNo == AdvanceSkillBtn [ j + i * 4 ] && profession_skill[ AdvanceSkill [ j + i * 4 ] ].useFlag != 0 ) {

  0109f	8b 85 58 fc ff
	ff		 mov	 eax, DWORD PTR _i$7[ebp]
  010a5	8b 8d 4c fc ff
	ff		 mov	 ecx, DWORD PTR _j$6[ebp]
  010ab	8d 14 81	 lea	 edx, DWORD PTR [ecx+eax*4]
  010ae	a1 00 00 00 00	 mov	 eax, DWORD PTR ?HitDispNo@@3HA ; HitDispNo
  010b3	3b 04 95 00 00
	00 00		 cmp	 eax, DWORD PTR ?AdvanceSkillBtn@@3PAHA[edx*4]
  010ba	0f 85 d1 00 00
	00		 jne	 $LN70@BattleButt
  010c0	8b 85 58 fc ff
	ff		 mov	 eax, DWORD PTR _i$7[ebp]
  010c6	8b 8d 4c fc ff
	ff		 mov	 ecx, DWORD PTR _j$6[ebp]
  010cc	8d 14 81	 lea	 edx, DWORD PTR [ecx+eax*4]
  010cf	69 04 95 00 00
	00 00 c0 00 00
	00		 imul	 eax, DWORD PTR ?AdvanceSkill@@3PAHA[edx*4], 192
  010da	0f bf 88 00 00
	00 00		 movsx	 ecx, WORD PTR ?profession_skill@@3PAUPROFESSION_SKILL@@A[eax]
  010e1	85 c9		 test	 ecx, ecx
  010e3	0f 84 a8 00 00
	00		 je	 $LN70@BattleButt

; 1952 : 							if( p_party[ BattleMyNo ]->mp >= profession_skill[AdvanceSkill [ j + i * 4 ]].costmp && profession_skill[AdvanceSkill [ j + i * 4 ]].costmp != 0 

  010e9	a1 00 00 00 00	 mov	 eax, DWORD PTR ?BattleMyNo@@3HA ; BattleMyNo
  010ee	8b 0c 85 00 00
	00 00		 mov	 ecx, DWORD PTR ?p_party@@3PAPAUaction@@A[eax*4]
  010f5	8b 95 58 fc ff
	ff		 mov	 edx, DWORD PTR _i$7[ebp]
  010fb	8b 85 4c fc ff
	ff		 mov	 eax, DWORD PTR _j$6[ebp]
  01101	8d 14 90	 lea	 edx, DWORD PTR [eax+edx*4]
  01104	69 04 95 00 00
	00 00 c0 00 00
	00		 imul	 eax, DWORD PTR ?AdvanceSkill@@3PAHA[edx*4], 192
  0110f	8b 89 84 00 00
	00		 mov	 ecx, DWORD PTR [ecx+132]
  01115	3b 88 b8 00 00
	00		 cmp	 ecx, DWORD PTR ?profession_skill@@3PAUPROFESSION_SKILL@@A[eax+184]
  0111b	7c 74		 jl	 SHORT $LN70@BattleButt
  0111d	8b 85 58 fc ff
	ff		 mov	 eax, DWORD PTR _i$7[ebp]
  01123	8b 8d 4c fc ff
	ff		 mov	 ecx, DWORD PTR _j$6[ebp]
  01129	8d 14 81	 lea	 edx, DWORD PTR [ecx+eax*4]
  0112c	69 04 95 00 00
	00 00 c0 00 00
	00		 imul	 eax, DWORD PTR ?AdvanceSkill@@3PAHA[edx*4], 192
  01137	83 b8 b8 00 00
	00 00		 cmp	 DWORD PTR ?profession_skill@@3PAUPROFESSION_SKILL@@A[eax+184], 0
  0113e	74 51		 je	 SHORT $LN70@BattleButt

; 1953 : 								){																					
; 1954 : 								wonflag = 0 ; 

  01140	c7 05 00 00 00
	00 00 00 00 00	 mov	 DWORD PTR ?wonflag@@3HA, 0 ; wonflag

; 1955 : 								prouseskill = AdvanceSkill [ j + i * 4  ]; 

  0114a	8b 85 58 fc ff
	ff		 mov	 eax, DWORD PTR _i$7[ebp]
  01150	8b 8d 4c fc ff
	ff		 mov	 ecx, DWORD PTR _j$6[ebp]
  01156	8d 14 81	 lea	 edx, DWORD PTR [ecx+eax*4]
  01159	8b 04 95 00 00
	00 00		 mov	 eax, DWORD PTR ?AdvanceSkill@@3PAHA[edx*4]
  01160	a3 00 00 00 00	 mov	 DWORD PTR ?prouseskill@@3HA, eax ; prouseskill

; 1956 : 								BattleSetWazaHitBox( profession_skill[AdvanceSkill [ j + i * 4 ] ].target , 1) ; 

  01165	6a 01		 push	 1
  01167	8b 85 58 fc ff
	ff		 mov	 eax, DWORD PTR _i$7[ebp]
  0116d	8b 8d 4c fc ff
	ff		 mov	 ecx, DWORD PTR _j$6[ebp]
  01173	8d 14 81	 lea	 edx, DWORD PTR [ecx+eax*4]
  01176	69 04 95 00 00
	00 00 c0 00 00
	00		 imul	 eax, DWORD PTR ?AdvanceSkill@@3PAHA[edx*4], 192
  01181	0f bf 88 04 00
	00 00		 movsx	 ecx, WORD PTR ?profession_skill@@3PAUPROFESSION_SKILL@@A[eax+4]
  01188	51		 push	 ecx
  01189	e8 00 00 00 00	 call	 ?BattleSetWazaHitBox@@YAXHH@Z ; BattleSetWazaHitBox
  0118e	83 c4 08	 add	 esp, 8
$LN70@BattleButt:

; 1957 : 							}
; 1958 : #ifdef _PROFESSION_ADDSKILL
; 1959 : 					//		else if ( profession_skill[ AdvanceSkill [ j + i * 4 ] ].skillId == 2 && profession_skill[AdvanceSkill [ j + i * 4 ]].costmp == 0 ) { //针针相对不做mp限制
; 1960 : 					//			wonflag = 0 ; 
; 1961 : 					//			BattleSetWazaHitBox( profession_skill[AdvanceSkill [ j + i * 4 ] ].target , 1) ; 
; 1962 : 					//			prouseskill = AdvanceSkill [ j + i * 4  ];  
; 1963 : 					//		}
; 1964 : #endif
; 1965 : 						}
; 1966 : 					}
; 1967 : 				}

  01191	e9 c7 fb ff ff	 jmp	 $LN28@BattleButt
$LN29@BattleButt:

; 1968 : 			}

  01196	e9 9a fb ff ff	 jmp	 $LN25@BattleButt
$LN11@BattleButt:

; 1969 : 			break;
; 1970 : 		default:
; 1971 : 			break;
; 1972 : 		}
; 1973 : 		char *splitPoint =  msg  ; 

  0119b	8d 85 f8 fe ff
	ff		 lea	 eax, DWORD PTR _msg$[ebp]
  011a1	89 85 34 fc ff
	ff		 mov	 DWORD PTR _splitPoint$4[ebp], eax

; 1974 : 		sprintf( buf , "%s" , msg ) ; 

  011a7	8d 85 f8 fe ff
	ff		 lea	 eax, DWORD PTR _msg$[ebp]
  011ad	50		 push	 eax
  011ae	68 00 00 00 00	 push	 OFFSET ??_C@_02DKCKIIND@?$CFs?$AA@
  011b3	8d 8d f0 fd ff
	ff		 lea	 ecx, DWORD PTR _buf$[ebp]
  011b9	51		 push	 ecx
  011ba	e8 00 00 00 00	 call	 _sprintf
  011bf	83 c4 0c	 add	 esp, 12			; 0000000cH

; 1975 : 		x = 18 ; 

  011c2	c7 85 d0 fc ff
	ff 12 00 00 00	 mov	 DWORD PTR _x$17[ebp], 18 ; 00000012H

; 1976 : 		y = 340 ; 

  011cc	c7 85 c4 fc ff
	ff 54 01 00 00	 mov	 DWORD PTR _y$16[ebp], 340 ; 00000154H
$LN31@BattleButt:

; 1977 : 		while( 1 ){

  011d6	b8 01 00 00 00	 mov	 eax, 1
  011db	85 c0		 test	 eax, eax
  011dd	0f 84 6f 01 00
	00		 je	 $LN78@BattleButt

; 1978 : 			if( strlen( splitPoint ) > 34 ) {

  011e3	8b 85 34 fc ff
	ff		 mov	 eax, DWORD PTR _splitPoint$4[ebp]
  011e9	50		 push	 eax
  011ea	e8 00 00 00 00	 call	 _strlen
  011ef	83 c4 04	 add	 esp, 4
  011f2	83 f8 22	 cmp	 eax, 34			; 00000022H
  011f5	0f 86 17 01 00
	00		 jbe	 $LN74@BattleButt

; 1979 : 				strncpy( msg, splitPoint, 34 );

  011fb	8b f4		 mov	 esi, esp
  011fd	6a 22		 push	 34			; 00000022H
  011ff	8b 85 34 fc ff
	ff		 mov	 eax, DWORD PTR _splitPoint$4[ebp]
  01205	50		 push	 eax
  01206	8d 8d f8 fe ff
	ff		 lea	 ecx, DWORD PTR _msg$[ebp]
  0120c	51		 push	 ecx
  0120d	ff 15 00 00 00
	00		 call	 DWORD PTR __imp__strncpy
  01213	83 c4 0c	 add	 esp, 12			; 0000000cH
  01216	3b f4		 cmp	 esi, esp
  01218	e8 00 00 00 00	 call	 __RTC_CheckEsp

; 1980 : 				buf[ 34 ] = NULL;

  0121d	b8 01 00 00 00	 mov	 eax, 1
  01222	6b c8 22	 imul	 ecx, eax, 34
  01225	89 8d a8 fa ff
	ff		 mov	 DWORD PTR $T3[ebp], ecx
  0122b	81 bd a8 fa ff
	ff 00 01 00 00	 cmp	 DWORD PTR $T3[ebp], 256	; 00000100H
  01235	73 02		 jae	 SHORT $LN81@BattleButt
  01237	eb 05		 jmp	 SHORT $LN82@BattleButt
$LN81@BattleButt:
  01239	e8 00 00 00 00	 call	 ___report_rangecheckfailure
$LN82@BattleButt:
  0123e	8b 95 a8 fa ff
	ff		 mov	 edx, DWORD PTR $T3[ebp]
  01244	c6 84 15 f0 fd
	ff ff 00	 mov	 BYTE PTR _buf$[ebp+edx], 0

; 1981 : 				if( GetStrLastByte( buf ) == 3 ){

  0124c	8d 85 f0 fd ff
	ff		 lea	 eax, DWORD PTR _buf$[ebp]
  01252	50		 push	 eax
  01253	e8 00 00 00 00	 call	 ?GetStrLastByte@@YAHPAD@Z ; GetStrLastByte
  01258	83 c4 04	 add	 esp, 4
  0125b	83 f8 03	 cmp	 eax, 3
  0125e	75 40		 jne	 SHORT $LN76@BattleButt

; 1982 : 					buf[ 33 ] = NULL;

  01260	b8 01 00 00 00	 mov	 eax, 1
  01265	6b c8 21	 imul	 ecx, eax, 33
  01268	89 8d 9c fa ff
	ff		 mov	 DWORD PTR $T2[ebp], ecx
  0126e	81 bd 9c fa ff
	ff 00 01 00 00	 cmp	 DWORD PTR $T2[ebp], 256	; 00000100H
  01278	73 02		 jae	 SHORT $LN83@BattleButt
  0127a	eb 05		 jmp	 SHORT $LN84@BattleButt
$LN83@BattleButt:
  0127c	e8 00 00 00 00	 call	 ___report_rangecheckfailure
$LN84@BattleButt:
  01281	8b 95 9c fa ff
	ff		 mov	 edx, DWORD PTR $T2[ebp]
  01287	c6 84 15 f0 fd
	ff ff 00	 mov	 BYTE PTR _buf$[ebp+edx], 0

; 1983 : 					splitPoint += 33;

  0128f	8b 85 34 fc ff
	ff		 mov	 eax, DWORD PTR _splitPoint$4[ebp]
  01295	83 c0 21	 add	 eax, 33			; 00000021H
  01298	89 85 34 fc ff
	ff		 mov	 DWORD PTR _splitPoint$4[ebp], eax

; 1984 : 				}else{

  0129e	eb 3e		 jmp	 SHORT $LN77@BattleButt
$LN76@BattleButt:

; 1985 : 					buf[ 34 ] = NULL;

  012a0	b8 01 00 00 00	 mov	 eax, 1
  012a5	6b c8 22	 imul	 ecx, eax, 34
  012a8	89 8d 90 fa ff
	ff		 mov	 DWORD PTR $T1[ebp], ecx
  012ae	81 bd 90 fa ff
	ff 00 01 00 00	 cmp	 DWORD PTR $T1[ebp], 256	; 00000100H
  012b8	73 02		 jae	 SHORT $LN85@BattleButt
  012ba	eb 05		 jmp	 SHORT $LN86@BattleButt
$LN85@BattleButt:
  012bc	e8 00 00 00 00	 call	 ___report_rangecheckfailure
$LN86@BattleButt:
  012c1	8b 95 90 fa ff
	ff		 mov	 edx, DWORD PTR $T1[ebp]
  012c7	c6 84 15 f0 fd
	ff ff 00	 mov	 BYTE PTR _buf$[ebp+edx], 0

; 1986 : 					splitPoint += 34;

  012cf	8b 85 34 fc ff
	ff		 mov	 eax, DWORD PTR _splitPoint$4[ebp]
  012d5	83 c0 22	 add	 eax, 34			; 00000022H
  012d8	89 85 34 fc ff
	ff		 mov	 DWORD PTR _splitPoint$4[ebp], eax
$LN77@BattleButt:

; 1987 : 				}
; 1988 : 				StockFontBuffer( x, y , FONT_PRIO_FRONT, 0, buf, 0 ); y += 24;

  012de	6a 00		 push	 0
  012e0	8d 85 f0 fd ff
	ff		 lea	 eax, DWORD PTR _buf$[ebp]
  012e6	50		 push	 eax
  012e7	6a 00		 push	 0
  012e9	6a 01		 push	 1
  012eb	8b 8d c4 fc ff
	ff		 mov	 ecx, DWORD PTR _y$16[ebp]
  012f1	51		 push	 ecx
  012f2	8b 95 d0 fc ff
	ff		 mov	 edx, DWORD PTR _x$17[ebp]
  012f8	52		 push	 edx
  012f9	e8 00 00 00 00	 call	 ?StockFontBuffer@@YAHHHDHPADH@Z ; StockFontBuffer
  012fe	83 c4 18	 add	 esp, 24			; 00000018H
  01301	8b 85 c4 fc ff
	ff		 mov	 eax, DWORD PTR _y$16[ebp]
  01307	83 c0 18	 add	 eax, 24			; 00000018H
  0130a	89 85 c4 fc ff
	ff		 mov	 DWORD PTR _y$16[ebp], eax

; 1989 : 			}else{

  01310	eb 3b		 jmp	 SHORT $LN75@BattleButt
$LN74@BattleButt:

; 1990 : 				strcpy( buf, splitPoint );

  01312	8b 85 34 fc ff
	ff		 mov	 eax, DWORD PTR _splitPoint$4[ebp]
  01318	50		 push	 eax
  01319	8d 8d f0 fd ff
	ff		 lea	 ecx, DWORD PTR _buf$[ebp]
  0131f	51		 push	 ecx
  01320	e8 00 00 00 00	 call	 _strcpy
  01325	83 c4 08	 add	 esp, 8

; 1991 : 				StockFontBuffer( x, y, FONT_PRIO_FRONT, 0, buf, 0 );

  01328	6a 00		 push	 0
  0132a	8d 85 f0 fd ff
	ff		 lea	 eax, DWORD PTR _buf$[ebp]
  01330	50		 push	 eax
  01331	6a 00		 push	 0
  01333	6a 01		 push	 1
  01335	8b 8d c4 fc ff
	ff		 mov	 ecx, DWORD PTR _y$16[ebp]
  0133b	51		 push	 ecx
  0133c	8b 95 d0 fc ff
	ff		 mov	 edx, DWORD PTR _x$17[ebp]
  01342	52		 push	 edx
  01343	e8 00 00 00 00	 call	 ?StockFontBuffer@@YAHHHDHPADH@Z ; StockFontBuffer
  01348	83 c4 18	 add	 esp, 24			; 00000018H

; 1992 : 				break;

  0134b	eb 05		 jmp	 SHORT $LN78@BattleButt
$LN75@BattleButt:

; 1993 : 			}
; 1994 : 		}

  0134d	e9 84 fe ff ff	 jmp	 $LN31@BattleButt
$LN78@BattleButt:

; 1995 : //	StockFontBuffer ( 300 , 400 , FONT_PRIO_FRONT , FONT_PAL_WHITE , msg , 0 ) ; 
; 1996 : 	}
; 1997 : }

  01352	52		 push	 edx
  01353	8b cd		 mov	 ecx, ebp
  01355	50		 push	 eax
  01356	8d 15 00 00 00
	00		 lea	 edx, DWORD PTR $LN91@BattleButt
  0135c	e8 00 00 00 00	 call	 @_RTC_CheckStackVars@8
  01361	58		 pop	 eax
  01362	5a		 pop	 edx
  01363	5f		 pop	 edi
  01364	5e		 pop	 esi
  01365	5b		 pop	 ebx
  01366	8b 4d fc	 mov	 ecx, DWORD PTR __$ArrayPad$[ebp]
  01369	33 cd		 xor	 ecx, ebp
  0136b	e8 00 00 00 00	 call	 @__security_check_cookie@4
  01370	81 c4 78 05 00
	00		 add	 esp, 1400		; 00000578H
  01376	3b ec		 cmp	 ebp, esp
  01378	e8 00 00 00 00	 call	 __RTC_CheckEsp
  0137d	8b e5		 mov	 esp, ebp
  0137f	5d		 pop	 ebp
  01380	c3		 ret	 0
  01381	0f 1f 00	 npad	 3
$LN91@BattleButt:
  01384	03 00 00 00	 DD	 3
  01388	00 00 00 00	 DD	 $LN90@BattleButt
$LN90@BattleButt:
  0138c	f8 fe ff ff	 DD	 -264			; fffffef8H
  01390	00 01 00 00	 DD	 256			; 00000100H
  01394	00 00 00 00	 DD	 $LN87@BattleButt
  01398	f0 fd ff ff	 DD	 -528			; fffffdf0H
  0139c	00 01 00 00	 DD	 256			; 00000100H
  013a0	00 00 00 00	 DD	 $LN88@BattleButt
  013a4	e8 fc ff ff	 DD	 -792			; fffffce8H
  013a8	00 01 00 00	 DD	 256			; 00000100H
  013ac	00 00 00 00	 DD	 $LN89@BattleButt
$LN89@BattleButt:
  013b0	6d		 DB	 109			; 0000006dH
  013b1	73		 DB	 115			; 00000073H
  013b2	67		 DB	 103			; 00000067H
  013b3	32		 DB	 50			; 00000032H
  013b4	00		 DB	 0
$LN88@BattleButt:
  013b5	62		 DB	 98			; 00000062H
  013b6	75		 DB	 117			; 00000075H
  013b7	66		 DB	 102			; 00000066H
  013b8	00		 DB	 0
$LN87@BattleButt:
  013b9	6d		 DB	 109			; 0000006dH
  013ba	73		 DB	 115			; 00000073H
  013bb	67		 DB	 103			; 00000067H
  013bc	00		 DB	 0
?BattleButtonPPLSKILL@@YAXXZ ENDP			; BattleButtonPPLSKILL
_TEXT	ENDS
; Function compile flags: /Odtp /RTCsu /ZI
; File c:\users\administrator\desktop\????? ??\????? ??\client source code\system\battlemenu.cpp
;	COMDAT ?BattleButtonPet@@YAXXZ
_TEXT	SEGMENT
_ٻoffsetY$1 = -444					; size = 4
_ٻoffsetX$2 = -432					; size = 4
_offsetY$3 = -420					; size = 4
_offsetX$4 = -408					; size = 4
_y$5 = -396						; size = 4
_x$6 = -384						; size = 4
_color$ = -372						; size = 4
_atrGraNo$ = -360					; size = 16
_atrFlag$ = -336					; size = 4
_flag$ = -324						; size = 4
_moji$ = -288						; size = 256
_bak$ = -24						; size = 4
_i$ = -12						; size = 4
__$ArrayPad$ = -4					; size = 4
?BattleButtonPet@@YAXXZ PROC				; BattleButtonPet, COMDAT

; 1550 : {

  00000	55		 push	 ebp
  00001	8b ec		 mov	 ebp, esp
  00003	81 ec 80 02 00
	00		 sub	 esp, 640		; 00000280H
  00009	53		 push	 ebx
  0000a	56		 push	 esi
  0000b	57		 push	 edi
  0000c	8d bd 80 fd ff
	ff		 lea	 edi, DWORD PTR [ebp-640]
  00012	b9 a0 00 00 00	 mov	 ecx, 160		; 000000a0H
  00017	b8 cc cc cc cc	 mov	 eax, -858993460		; ccccccccH
  0001c	f3 ab		 rep stosd
  0001e	a1 00 00 00 00	 mov	 eax, DWORD PTR ___security_cookie
  00023	33 c5		 xor	 eax, ebp
  00025	89 45 fc	 mov	 DWORD PTR __$ArrayPad$[ebp], eax

; 1551 : 	int i, bak;
; 1552 : 	char moji[ 256 ];
; 1553 : 	int x, y;
; 1554 : 	int flag = FALSE;

  00028	c7 85 bc fe ff
	ff 00 00 00 00	 mov	 DWORD PTR _flag$[ebp], 0

; 1555 : 	int atrFlag = FALSE;

  00032	c7 85 b0 fe ff
	ff 00 00 00 00	 mov	 DWORD PTR _atrFlag$[ebp], 0

; 1556 : 	int atrGraNo[ 4 ];
; 1557 : 	int color;
; 1558 : 	if( HitDispNo == battleButtonDispNo[ 6 ] || battleButtonBak2 == 6 ){

  0003c	b8 04 00 00 00	 mov	 eax, 4
  00041	6b c8 06	 imul	 ecx, eax, 6
  00044	8b 15 00 00 00
	00		 mov	 edx, DWORD PTR ?HitDispNo@@3HA ; HitDispNo
  0004a	3b 91 00 00 00
	00		 cmp	 edx, DWORD PTR ?battleButtonDispNo@@3PAHA[ecx]
  00050	74 0d		 je	 SHORT $LN12@BattleButt
  00052	83 3d 00 00 00
	00 06		 cmp	 DWORD PTR ?battleButtonBak2@@3HA, 6
  00059	0f 85 b8 00 00
	00		 jne	 $LN11@BattleButt
$LN12@BattleButt:

; 1559 : 
; 1560 : 		if( mouse.onceState & MOUSE_LEFT_CRICK || battleButtonBak2 == 6 ){

  0005f	a1 2c 00 00 00	 mov	 eax, DWORD PTR ?mouse@@3UMOUSE@@A+44
  00064	83 e0 01	 and	 eax, 1
  00067	75 0d		 jne	 SHORT $LN14@BattleButt
  00069	83 3d 00 00 00
	00 06		 cmp	 DWORD PTR ?battleButtonBak2@@3HA, 6
  00070	0f 85 8f 00 00
	00		 jne	 $LN13@BattleButt
$LN14@BattleButt:

; 1561 : 			bak = battleButtonFlag[ 6 ];

  00076	b8 04 00 00 00	 mov	 eax, 4
  0007b	6b c8 06	 imul	 ecx, eax, 6
  0007e	8b 91 00 00 00
	00		 mov	 edx, DWORD PTR ?battleButtonFlag@@3PAHA[ecx]
  00084	89 55 e8	 mov	 DWORD PTR _bak$[ebp], edx

; 1562 : 			BattleButtonOff();

  00087	e8 00 00 00 00	 call	 ?BattleButtonOff@@YAXXZ	; BattleButtonOff

; 1563 : 
; 1564 : 			if( bak == FALSE ){

  0008c	83 7d e8 00	 cmp	 DWORD PTR _bak$[ebp], 0
  00090	75 73		 jne	 SHORT $LN13@BattleButt

; 1565 : 
; 1566 : 				battleButtonFlag[ 6 ] = TRUE;

  00092	b8 04 00 00 00	 mov	 eax, 4
  00097	6b c8 06	 imul	 ecx, eax, 6
  0009a	c7 81 00 00 00
	00 01 00 00 00	 mov	 DWORD PTR ?battleButtonFlag@@3PAHA[ecx], 1

; 1567 : 
; 1568 : 				for( i = 0 ; i < BATTLE_MENU_PET_FONTS ; i++ ) battleMenuPetFontNo[ i ] = -2;

  000a4	c7 45 f4 00 00
	00 00		 mov	 DWORD PTR _i$[ebp], 0
  000ab	eb 09		 jmp	 SHORT $LN4@BattleButt
$LN2@BattleButt:
  000ad	8b 45 f4	 mov	 eax, DWORD PTR _i$[ebp]
  000b0	83 c0 01	 add	 eax, 1
  000b3	89 45 f4	 mov	 DWORD PTR _i$[ebp], eax
$LN4@BattleButt:
  000b6	83 7d f4 07	 cmp	 DWORD PTR _i$[ebp], 7
  000ba	7d 10		 jge	 SHORT $LN3@BattleButt
  000bc	8b 45 f4	 mov	 eax, DWORD PTR _i$[ebp]
  000bf	c7 04 85 00 00
	00 00 fe ff ff
	ff		 mov	 DWORD PTR ?battleMenuPetFontNo@@3PAHA[eax*4], -2 ; fffffffeH
  000ca	eb e1		 jmp	 SHORT $LN2@BattleButt
$LN3@BattleButt:

; 1569 : 
; 1570 : 				pActWnd = MakeWindowDisp( 376, 132, 256, 320, 0, -1 );

  000cc	6a ff		 push	 -1
  000ce	6a 00		 push	 0
  000d0	68 40 01 00 00	 push	 320			; 00000140H
  000d5	68 00 01 00 00	 push	 256			; 00000100H
  000da	68 84 00 00 00	 push	 132			; 00000084H
  000df	68 78 01 00 00	 push	 376			; 00000178H
  000e4	e8 00 00 00 00	 call	 ?MakeWindowDisp@@YAPAUaction@@HHHHHH@Z ; MakeWindowDisp
  000e9	83 c4 18	 add	 esp, 24			; 00000018H
  000ec	a3 00 00 00 00	 mov	 DWORD PTR ?pActWnd@@3PAUaction@@A, eax

; 1571 : 
; 1572 : 				battleButtonBak = 6;

  000f1	c7 05 00 00 00
	00 06 00 00 00	 mov	 DWORD PTR ?battleButtonBak@@3HA, 6 ; battleButtonBak

; 1573 : 
; 1574 : 				battleButtonBak2 = -1;

  000fb	c7 05 00 00 00
	00 ff ff ff ff	 mov	 DWORD PTR ?battleButtonBak2@@3HA, -1
$LN13@BattleButt:

; 1575 : 			}	
; 1576 : 		}
; 1577 : 
; 1578 : 		strcpy( OneLineInfoStr, "페트교체。");

  00105	68 00 00 00 00	 push	 OFFSET ??_C@_0L@CJKKBEMM@?F?d?F?$KO?$LB?$LD?C?$LM?$KB?$KD?$AA@
  0010a	68 00 00 00 00	 push	 OFFSET ?OneLineInfoStr@@3PADA ; OneLineInfoStr
  0010f	e8 00 00 00 00	 call	 _strcpy
  00114	83 c4 08	 add	 esp, 8
$LN11@BattleButt:

; 1579 : 	}
; 1580 : 
; 1581 : 	if( battleButtonFlag[ 6 ] == TRUE ){

  00117	b8 04 00 00 00	 mov	 eax, 4
  0011c	6b c8 06	 imul	 ecx, eax, 6
  0011f	83 b9 00 00 00
	00 01		 cmp	 DWORD PTR ?battleButtonFlag@@3PAHA[ecx], 1
  00126	0f 85 79 08 00
	00		 jne	 $LN1@BattleButt

; 1582 : 		if( pActWnd != NULL ){

  0012c	83 3d 00 00 00
	00 00		 cmp	 DWORD PTR ?pActWnd@@3PAUaction@@A, 0
  00133	0f 84 6c 08 00
	00		 je	 $LN1@BattleButt

; 1583 : 			if( pActWnd->hp > 0 ){

  00139	a1 00 00 00 00	 mov	 eax, DWORD PTR ?pActWnd@@3PAUaction@@A
  0013e	83 78 78 00	 cmp	 DWORD PTR [eax+120], 0
  00142	0f 8e 5d 08 00
	00		 jle	 $LN1@BattleButt

; 1584 : 				int x = ((WINDOW_DISP*)pActWnd->pYobi)->mx;

  00148	a1 00 00 00 00	 mov	 eax, DWORD PTR ?pActWnd@@3PAUaction@@A
  0014d	8b 48 0c	 mov	 ecx, DWORD PTR [eax+12]
  00150	8b 51 14	 mov	 edx, DWORD PTR [ecx+20]
  00153	89 95 80 fe ff
	ff		 mov	 DWORD PTR _x$6[ebp], edx

; 1585 : 				int y = ((WINDOW_DISP*)pActWnd->pYobi)->my;

  00159	a1 00 00 00 00	 mov	 eax, DWORD PTR ?pActWnd@@3PAUaction@@A
  0015e	8b 48 0c	 mov	 ecx, DWORD PTR [eax+12]
  00161	8b 51 18	 mov	 edx, DWORD PTR [ecx+24]
  00164	89 95 74 fe ff
	ff		 mov	 DWORD PTR _y$5[ebp], edx

; 1586 : 				int offsetX = 0, offsetY = 0;

  0016a	c7 85 68 fe ff
	ff 00 00 00 00	 mov	 DWORD PTR _offsetX$4[ebp], 0
  00174	c7 85 5c fe ff
	ff 00 00 00 00	 mov	 DWORD PTR _offsetY$3[ebp], 0

; 1587 : 				int 召回offsetX = 0, 召回offsetY = 0;

  0017e	c7 85 50 fe ff
	ff 00 00 00 00	 mov	 DWORD PTR _ٻoffsetX$2[ebp], 0
  00188	c7 85 44 fe ff
	ff 00 00 00 00	 mov	 DWORD PTR _ٻoffsetY$1[ebp], 0

; 1588 : #ifdef 战斗5宠
; 1589 : 				offsetX = 230;

  00192	c7 85 68 fe ff
	ff e6 00 00 00	 mov	 DWORD PTR _offsetX$4[ebp], 230 ; 000000e6H

; 1590 : 				offsetY = 80;

  0019c	c7 85 5c fe ff
	ff 50 00 00 00	 mov	 DWORD PTR _offsetY$3[ebp], 80 ; 00000050H

; 1591 : 				召回offsetY = offsetY + 35;

  001a6	8b 85 5c fe ff
	ff		 mov	 eax, DWORD PTR _offsetY$3[ebp]
  001ac	83 c0 23	 add	 eax, 35			; 00000023H
  001af	89 85 44 fe ff
	ff		 mov	 DWORD PTR _ٻoffsetY$1[ebp], eax

; 1592 : #endif // 战斗5宠
; 1593 : 
; 1594 : 				StockDispBuffer(x - offsetX, y - offsetY-36, DISP_PRIO_MENU, CG_BTL_PET_CHANGE_WND, 1);//画背景图

  001b5	6a 01		 push	 1
  001b7	a1 00 00 00 00	 mov	 eax, DWORD PTR ?CG_BTL_PET_CHANGE_WND@@3HA ; CG_BTL_PET_CHANGE_WND
  001bc	50		 push	 eax
  001bd	6a 68		 push	 104			; 00000068H
  001bf	8b 8d 74 fe ff
	ff		 mov	 ecx, DWORD PTR _y$5[ebp]
  001c5	2b 8d 5c fe ff
	ff		 sub	 ecx, DWORD PTR _offsetY$3[ebp]
  001cb	83 e9 24	 sub	 ecx, 36			; 00000024H
  001ce	51		 push	 ecx
  001cf	8b 95 80 fe ff
	ff		 mov	 edx, DWORD PTR _x$6[ebp]
  001d5	2b 95 68 fe ff
	ff		 sub	 edx, DWORD PTR _offsetX$4[ebp]
  001db	52		 push	 edx
  001dc	e8 00 00 00 00	 call	 ?StockDispBuffer@@YAHHHEHH@Z ; StockDispBuffer
  001e1	83 c4 14	 add	 esp, 20			; 00000014H

; 1595 : 				if( mouse.onceState & MOUSE_LEFT_CRICK ){

  001e4	a1 2c 00 00 00	 mov	 eax, DWORD PTR ?mouse@@3UMOUSE@@A+44
  001e9	83 e0 01	 and	 eax, 1
  001ec	0f 84 e6 01 00
	00		 je	 $LN19@BattleButt

; 1596 : 					for( i = 0 ; i < 5 ; i++ ){

  001f2	c7 45 f4 00 00
	00 00		 mov	 DWORD PTR _i$[ebp], 0
  001f9	eb 09		 jmp	 SHORT $LN7@BattleButt
$LN5@BattleButt:
  001fb	8b 45 f4	 mov	 eax, DWORD PTR _i$[ebp]
  001fe	83 c0 01	 add	 eax, 1
  00201	89 45 f4	 mov	 DWORD PTR _i$[ebp], eax
$LN7@BattleButt:
  00204	83 7d f4 05	 cmp	 DWORD PTR _i$[ebp], 5
  00208	0f 8d 0b 01 00
	00		 jge	 $LN6@BattleButt

; 1597 : 						if( pet[ i ].useFlag == TRUE /*&& pc.selectPetNo[ i ] == TRUE*/ ){

  0020e	69 45 f4 20 0b
	00 00		 imul	 eax, DWORD PTR _i$[ebp], 2848
  00215	0f bf 88 76 00
	00 00		 movsx	 ecx, WORD PTR ?pet@@3PAUPET@@A[eax+118]
  0021c	83 f9 01	 cmp	 ecx, 1
  0021f	0f 85 ef 00 00
	00		 jne	 $LN20@BattleButt

; 1598 : 					//	if (pet[i].useFlag == TRUE && pc.selectPetNo[ i ] == TRUE){
; 1599 : 							if( HitFontNo == battleMenuPetFontNo[ i ] ){

  00225	8b 45 f4	 mov	 eax, DWORD PTR _i$[ebp]
  00228	8b 0d 00 00 00
	00		 mov	 ecx, DWORD PTR ?HitFontNo@@3HA ; HitFontNo
  0022e	3b 0c 85 00 00
	00 00		 cmp	 ecx, DWORD PTR ?battleMenuPetFontNo@@3PAHA[eax*4]
  00235	0f 85 d9 00 00
	00		 jne	 $LN20@BattleButt

; 1600 : 								if( pet[ i ].hp > 0 && i != pc.battlePetNo ){

  0023b	69 45 f4 20 0b
	00 00		 imul	 eax, DWORD PTR _i$[ebp], 2848
  00242	83 b8 08 00 00
	00 00		 cmp	 DWORD PTR ?pet@@3PAUPET@@A[eax+8], 0
  00249	0f 8e ae 00 00
	00		 jle	 $LN22@BattleButt
  0024f	0f bf 05 aa 00
	00 00		 movsx	 eax, WORD PTR ?pc@@3UPC@@A+170
  00256	39 45 f4	 cmp	 DWORD PTR _i$[ebp], eax
  00259	0f 84 9e 00 00
	00		 je	 $LN22@BattleButt

; 1601 : 									sprintf( moji, "S|%d", i );

  0025f	8b 45 f4	 mov	 eax, DWORD PTR _i$[ebp]
  00262	50		 push	 eax
  00263	68 00 00 00 00	 push	 OFFSET ??_C@_04FIJAIIHF@S?$HM?$CFd?$AA@
  00268	8d 8d e0 fe ff
	ff		 lea	 ecx, DWORD PTR _moji$[ebp]
  0026e	51		 push	 ecx
  0026f	e8 00 00 00 00	 call	 _sprintf
  00274	83 c4 0c	 add	 esp, 12			; 0000000cH

; 1602 : 									if( bNewServer)

  00277	83 3d 00 00 00
	00 00		 cmp	 DWORD PTR ?bNewServer@@3HA, 0 ; bNewServer
  0027e	74 18		 je	 SHORT $LN24@BattleButt

; 1603 : 										lssproto_B_send( sockfd, moji );

  00280	8d 85 e0 fe ff
	ff		 lea	 eax, DWORD PTR _moji$[ebp]
  00286	50		 push	 eax
  00287	8b 0d 00 00 00
	00		 mov	 ecx, DWORD PTR ?sockfd@@3IA ; sockfd
  0028d	51		 push	 ecx
  0028e	e8 00 00 00 00	 call	 ?lssproto_B_send@@YAXHPAD@Z ; lssproto_B_send
  00293	83 c4 08	 add	 esp, 8

; 1604 : 									else

  00296	eb 16		 jmp	 SHORT $LN25@BattleButt
$LN24@BattleButt:

; 1605 : 										old_lssproto_B_send( sockfd, moji );

  00298	8d 85 e0 fe ff
	ff		 lea	 eax, DWORD PTR _moji$[ebp]
  0029e	50		 push	 eax
  0029f	8b 0d 00 00 00
	00		 mov	 ecx, DWORD PTR ?sockfd@@3IA ; sockfd
  002a5	51		 push	 ecx
  002a6	e8 00 00 00 00	 call	 ?old_lssproto_B_send@@YAXHPAD@Z ; old_lssproto_B_send
  002ab	83 c4 08	 add	 esp, 8
$LN25@BattleButt:

; 1606 : 
; 1607 : 									play_se( 203, 320, 240 );

  002ae	68 f0 00 00 00	 push	 240			; 000000f0H
  002b3	68 40 01 00 00	 push	 320			; 00000140H
  002b8	68 cb 00 00 00	 push	 203			; 000000cbH
  002bd	e8 00 00 00 00	 call	 ?play_se@@YAHHHH@Z	; play_se
  002c2	83 c4 0c	 add	 esp, 12			; 0000000cH

; 1608 : 
; 1609 : 									DeathAction( pActWnd );

  002c5	a1 00 00 00 00	 mov	 eax, DWORD PTR ?pActWnd@@3PAUaction@@A
  002ca	50		 push	 eax
  002cb	e8 00 00 00 00	 call	 ?DeathAction@@YAXPAUaction@@@Z ; DeathAction
  002d0	83 c4 04	 add	 esp, 4

; 1610 : 
; 1611 : 									pActWnd = NULL;

  002d3	c7 05 00 00 00
	00 00 00 00 00	 mov	 DWORD PTR ?pActWnd@@3PAUaction@@A, 0

; 1612 : 
; 1613 : 									battleMenuReturn = TRUE;

  002dd	c7 05 00 00 00
	00 01 00 00 00	 mov	 DWORD PTR ?battleMenuReturn@@3HA, 1

; 1614 : 
; 1615 : 									battleButtonBak = -1;

  002e7	c7 05 00 00 00
	00 ff ff ff ff	 mov	 DWORD PTR ?battleButtonBak@@3HA, -1 ; battleButtonBak

; 1616 : 
; 1617 : 									battleButtonBak2 = -1;

  002f1	c7 05 00 00 00
	00 ff ff ff ff	 mov	 DWORD PTR ?battleButtonBak2@@3HA, -1

; 1618 : 								}else{

  002fb	eb 17		 jmp	 SHORT $LN20@BattleButt
$LN22@BattleButt:

; 1619 : 									play_se( 220, 320, 240 );

  002fd	68 f0 00 00 00	 push	 240			; 000000f0H
  00302	68 40 01 00 00	 push	 320			; 00000140H
  00307	68 dc 00 00 00	 push	 220			; 000000dcH
  0030c	e8 00 00 00 00	 call	 ?play_se@@YAHHHH@Z	; play_se
  00311	83 c4 0c	 add	 esp, 12			; 0000000cH
$LN20@BattleButt:

; 1620 : 								}
; 1621 : 							}
; 1622 : 						}
; 1623 : 					}

  00314	e9 e2 fe ff ff	 jmp	 $LN5@BattleButt
$LN6@BattleButt:

; 1624 : 
; 1625 : 					if( HitDispNo == battleMenuPetFontNo[ 5 ] && pc.battlePetNo != -1 ){

  00319	b8 04 00 00 00	 mov	 eax, 4
  0031e	6b c8 05	 imul	 ecx, eax, 5
  00321	8b 15 00 00 00
	00		 mov	 edx, DWORD PTR ?HitDispNo@@3HA ; HitDispNo
  00327	3b 91 00 00 00
	00		 cmp	 edx, DWORD PTR ?battleMenuPetFontNo@@3PAHA[ecx]
  0032d	0f 85 8a 00 00
	00		 jne	 $LN26@BattleButt
  00333	0f bf 05 aa 00
	00 00		 movsx	 eax, WORD PTR ?pc@@3UPC@@A+170
  0033a	83 f8 ff	 cmp	 eax, -1
  0033d	74 7e		 je	 SHORT $LN26@BattleButt

; 1626 : 
; 1627 : 						if( bNewServer)

  0033f	83 3d 00 00 00
	00 00		 cmp	 DWORD PTR ?bNewServer@@3HA, 0 ; bNewServer
  00346	74 15		 je	 SHORT $LN27@BattleButt

; 1628 : 							lssproto_B_send( sockfd, "S|-1" );

  00348	68 00 00 00 00	 push	 OFFSET ??_C@_04JBEPHANM@S?$HM?91?$AA@
  0034d	a1 00 00 00 00	 mov	 eax, DWORD PTR ?sockfd@@3IA ; sockfd
  00352	50		 push	 eax
  00353	e8 00 00 00 00	 call	 ?lssproto_B_send@@YAXHPAD@Z ; lssproto_B_send
  00358	83 c4 08	 add	 esp, 8

; 1629 : 						else

  0035b	eb 13		 jmp	 SHORT $LN28@BattleButt
$LN27@BattleButt:

; 1630 : 							old_lssproto_B_send( sockfd, "S|-1" );

  0035d	68 00 00 00 00	 push	 OFFSET ??_C@_04JBEPHANM@S?$HM?91?$AA@
  00362	a1 00 00 00 00	 mov	 eax, DWORD PTR ?sockfd@@3IA ; sockfd
  00367	50		 push	 eax
  00368	e8 00 00 00 00	 call	 ?old_lssproto_B_send@@YAXHPAD@Z ; old_lssproto_B_send
  0036d	83 c4 08	 add	 esp, 8
$LN28@BattleButt:

; 1631 : 
; 1632 : 						play_se( 203, 320, 240 );

  00370	68 f0 00 00 00	 push	 240			; 000000f0H
  00375	68 40 01 00 00	 push	 320			; 00000140H
  0037a	68 cb 00 00 00	 push	 203			; 000000cbH
  0037f	e8 00 00 00 00	 call	 ?play_se@@YAHHHH@Z	; play_se
  00384	83 c4 0c	 add	 esp, 12			; 0000000cH

; 1633 : 
; 1634 : 						DeathAction( pActWnd );

  00387	a1 00 00 00 00	 mov	 eax, DWORD PTR ?pActWnd@@3PAUaction@@A
  0038c	50		 push	 eax
  0038d	e8 00 00 00 00	 call	 ?DeathAction@@YAXPAUaction@@@Z ; DeathAction
  00392	83 c4 04	 add	 esp, 4

; 1635 : 
; 1636 : 						pActWnd = NULL;

  00395	c7 05 00 00 00
	00 00 00 00 00	 mov	 DWORD PTR ?pActWnd@@3PAUaction@@A, 0

; 1637 : 
; 1638 : 						battleMenuReturn = TRUE;

  0039f	c7 05 00 00 00
	00 01 00 00 00	 mov	 DWORD PTR ?battleMenuReturn@@3HA, 1

; 1639 : 
; 1640 : 						battleButtonBak = -1;

  003a9	c7 05 00 00 00
	00 ff ff ff ff	 mov	 DWORD PTR ?battleButtonBak@@3HA, -1 ; battleButtonBak

; 1641 : 
; 1642 : 						battleButtonBak2 = -1;

  003b3	c7 05 00 00 00
	00 ff ff ff ff	 mov	 DWORD PTR ?battleButtonBak2@@3HA, -1
$LN26@BattleButt:

; 1643 : 					}
; 1644 : 
; 1645 : 					if( HitDispNo == battleMenuPetFontNo[ 6 ] ){

  003bd	b8 04 00 00 00	 mov	 eax, 4
  003c2	6b c8 06	 imul	 ecx, eax, 6
  003c5	8b 15 00 00 00
	00		 mov	 edx, DWORD PTR ?HitDispNo@@3HA ; HitDispNo
  003cb	3b 91 00 00 00
	00		 cmp	 edx, DWORD PTR ?battleMenuPetFontNo@@3PAHA[ecx]
  003d1	75 05		 jne	 SHORT $LN19@BattleButt

; 1646 : 						BattleButtonOff();				

  003d3	e8 00 00 00 00	 call	 ?BattleButtonOff@@YAXXZ	; BattleButtonOff
$LN19@BattleButt:

; 1647 : 					}
; 1648 : 				}
; 1649 : 
; 1650 : 				if( pActWnd != NULL ){

  003d8	83 3d 00 00 00
	00 00		 cmp	 DWORD PTR ?pActWnd@@3PAUaction@@A, 0
  003df	0f 84 c0 05 00
	00		 je	 $LN1@BattleButt

; 1651 : 					x = pActWnd->x + 17, y = pActWnd->y + 33;

  003e5	a1 00 00 00 00	 mov	 eax, DWORD PTR ?pActWnd@@3PAUaction@@A
  003ea	8b 48 18	 mov	 ecx, DWORD PTR [eax+24]
  003ed	83 c1 11	 add	 ecx, 17			; 00000011H
  003f0	89 8d 80 fe ff
	ff		 mov	 DWORD PTR _x$6[ebp], ecx
  003f6	8b 15 00 00 00
	00		 mov	 edx, DWORD PTR ?pActWnd@@3PAUaction@@A
  003fc	8b 42 1c	 mov	 eax, DWORD PTR [edx+28]
  003ff	83 c0 21	 add	 eax, 33			; 00000021H
  00402	89 85 74 fe ff
	ff		 mov	 DWORD PTR _y$5[ebp], eax

; 1652 : 
; 1653 : 					for( i = 0 ; i < 5 ; i++ ){

  00408	c7 45 f4 00 00
	00 00		 mov	 DWORD PTR _i$[ebp], 0
  0040f	eb 09		 jmp	 SHORT $LN10@BattleButt
$LN8@BattleButt:
  00411	8b 45 f4	 mov	 eax, DWORD PTR _i$[ebp]
  00414	83 c0 01	 add	 eax, 1
  00417	89 45 f4	 mov	 DWORD PTR _i$[ebp], eax
$LN10@BattleButt:
  0041a	83 7d f4 05	 cmp	 DWORD PTR _i$[ebp], 5
  0041e	0f 8d 0f 04 00
	00		 jge	 $LN9@BattleButt

; 1654 : 						//JL 2017.7.12 pc.selectPetNo[ i ] == TRUE 加上后修复休息宠可以唤出的问题
; 1655 : 						if( pet[ i ].useFlag == TRUE && pc.selectPetNo[ i ] == TRUE  && pc.ridePetNo != i  && pc.battlePetNo != i ){

  00424	69 45 f4 20 0b
	00 00		 imul	 eax, DWORD PTR _i$[ebp], 2848
  0042b	0f bf 88 76 00
	00 00		 movsx	 ecx, WORD PTR ?pet@@3PAUPET@@A[eax+118]
  00432	83 f9 01	 cmp	 ecx, 1
  00435	0f 85 f3 03 00
	00		 jne	 $LN31@BattleButt
  0043b	8b 45 f4	 mov	 eax, DWORD PTR _i$[ebp]
  0043e	0f bf 0c 45 ac
	00 00 00	 movsx	 ecx, WORD PTR ?pc@@3UPC@@A[eax*2+172]
  00446	83 f9 01	 cmp	 ecx, 1
  00449	0f 85 df 03 00
	00		 jne	 $LN31@BattleButt
  0044f	a1 18 51 00 00	 mov	 eax, DWORD PTR ?pc@@3UPC@@A+20760
  00454	3b 45 f4	 cmp	 eax, DWORD PTR _i$[ebp]
  00457	0f 84 d1 03 00
	00		 je	 $LN31@BattleButt
  0045d	0f bf 05 aa 00
	00 00		 movsx	 eax, WORD PTR ?pc@@3UPC@@A+170
  00464	3b 45 f4	 cmp	 eax, DWORD PTR _i$[ebp]
  00467	0f 84 c1 03 00
	00		 je	 $LN31@BattleButt

; 1656 : 							atrFlag = FALSE;

  0046d	c7 85 b0 fe ff
	ff 00 00 00 00	 mov	 DWORD PTR _atrFlag$[ebp], 0

; 1657 : 							color = FONT_PAL_AQUA;

  00477	c7 85 8c fe ff
	ff 01 00 00 00	 mov	 DWORD PTR _color$[ebp], 1

; 1658 : 							if( pet[ i ].hp <= 0 ) color = FONT_PAL_RED;

  00481	69 45 f4 20 0b
	00 00		 imul	 eax, DWORD PTR _i$[ebp], 2848
  00488	83 b8 08 00 00
	00 00		 cmp	 DWORD PTR ?pet@@3PAUPET@@A[eax+8], 0
  0048f	7f 0a		 jg	 SHORT $LN32@BattleButt
  00491	c7 85 8c fe ff
	ff 06 00 00 00	 mov	 DWORD PTR _color$[ebp], 6
$LN32@BattleButt:

; 1659 : 							if( i == pc.battlePetNo ) color = FONT_PAL_YELLOW;

  0049b	0f bf 05 aa 00
	00 00		 movsx	 eax, WORD PTR ?pc@@3UPC@@A+170
  004a2	39 45 f4	 cmp	 DWORD PTR _i$[ebp], eax
  004a5	75 0a		 jne	 SHORT $LN33@BattleButt
  004a7	c7 85 8c fe ff
	ff 04 00 00 00	 mov	 DWORD PTR _color$[ebp], 4
$LN33@BattleButt:

; 1660 : 
; 1661 : 							if( pet[ i ].freeName[ 0 ] != NULL )

  004b1	69 45 f4 20 0b
	00 00		 imul	 eax, DWORD PTR _i$[ebp], 2848
  004b8	b9 01 00 00 00	 mov	 ecx, 1
  004bd	6b d1 00	 imul	 edx, ecx, 0
  004c0	0f be 84 10 65
	00 00 00	 movsx	 eax, BYTE PTR ?pet@@3PAUPET@@A[eax+edx+101]
  004c8	85 c0		 test	 eax, eax
  004ca	74 21		 je	 SHORT $LN34@BattleButt

; 1662 : 								CenteringStr( pet[ i ].freeName, moji, PET_NAME_LEN );

  004cc	6a 10		 push	 16			; 00000010H
  004ce	8d 85 e0 fe ff
	ff		 lea	 eax, DWORD PTR _moji$[ebp]
  004d4	50		 push	 eax
  004d5	69 4d f4 20 0b
	00 00		 imul	 ecx, DWORD PTR _i$[ebp], 2848
  004dc	81 c1 65 00 00
	00		 add	 ecx, OFFSET ?pet@@3PAUPET@@A+101
  004e2	51		 push	 ecx
  004e3	e8 00 00 00 00	 call	 ?CenteringStr@@YAXPAD0H@Z ; CenteringStr
  004e8	83 c4 0c	 add	 esp, 12			; 0000000cH

; 1663 : 							else

  004eb	eb 1f		 jmp	 SHORT $LN35@BattleButt
$LN34@BattleButt:

; 1664 : 								CenteringStr( pet[ i ].name, moji, PET_NAME_LEN );

  004ed	6a 10		 push	 16			; 00000010H
  004ef	8d 85 e0 fe ff
	ff		 lea	 eax, DWORD PTR _moji$[ebp]
  004f5	50		 push	 eax
  004f6	69 4d f4 20 0b
	00 00		 imul	 ecx, DWORD PTR _i$[ebp], 2848
  004fd	81 c1 54 00 00
	00		 add	 ecx, OFFSET ?pet@@3PAUPET@@A+84
  00503	51		 push	 ecx
  00504	e8 00 00 00 00	 call	 ?CenteringStr@@YAXPAD0H@Z ; CenteringStr
  00509	83 c4 0c	 add	 esp, 12			; 0000000cH
$LN35@BattleButt:

; 1665 : #ifdef 战斗5宠
; 1666 : 							battleMenuPetFontNo[i] = StockFontBuffer(x - offsetX, y - offsetY - 35, FONT_PRIO_FRONT, color, moji, 2);//打印名字

  0050c	6a 02		 push	 2
  0050e	8d 85 e0 fe ff
	ff		 lea	 eax, DWORD PTR _moji$[ebp]
  00514	50		 push	 eax
  00515	8b 8d 8c fe ff
	ff		 mov	 ecx, DWORD PTR _color$[ebp]
  0051b	51		 push	 ecx
  0051c	6a 01		 push	 1
  0051e	8b 95 74 fe ff
	ff		 mov	 edx, DWORD PTR _y$5[ebp]
  00524	2b 95 5c fe ff
	ff		 sub	 edx, DWORD PTR _offsetY$3[ebp]
  0052a	83 ea 23	 sub	 edx, 35			; 00000023H
  0052d	52		 push	 edx
  0052e	8b 85 80 fe ff
	ff		 mov	 eax, DWORD PTR _x$6[ebp]
  00534	2b 85 68 fe ff
	ff		 sub	 eax, DWORD PTR _offsetX$4[ebp]
  0053a	50		 push	 eax
  0053b	e8 00 00 00 00	 call	 ?StockFontBuffer@@YAHHHDHPADH@Z ; StockFontBuffer
  00540	83 c4 18	 add	 esp, 24			; 00000018H
  00543	8b 4d f4	 mov	 ecx, DWORD PTR _i$[ebp]
  00546	89 04 8d 00 00
	00 00		 mov	 DWORD PTR ?battleMenuPetFontNo@@3PAHA[ecx*4], eax

; 1667 : #else
; 1668 : 							battleMenuPetFontNo[i] = StockFontBuffer(x - offsetX, y - offsetY - 35, FONT_PRIO_FRONT, color, moji, 2);
; 1669 : #endif // 战斗5宠
; 1670 : 
; 1671 : 							sprintf(moji,"충:%3d",pet[i].ai);

  0054d	69 45 f4 20 0b
	00 00		 imul	 eax, DWORD PTR _i$[ebp], 2848
  00554	8b 88 30 00 00
	00		 mov	 ecx, DWORD PTR ?pet@@3PAUPET@@A[eax+48]
  0055a	51		 push	 ecx
  0055b	68 00 00 00 00	 push	 OFFSET ??_C@_06ELKFHEJ@?C?f?3?$CF3d?$AA@
  00560	8d 95 e0 fe ff
	ff		 lea	 edx, DWORD PTR _moji$[ebp]
  00566	52		 push	 edx
  00567	e8 00 00 00 00	 call	 _sprintf
  0056c	83 c4 0c	 add	 esp, 12			; 0000000cH

; 1672 : 						    StockFontBuffer(x - offsetX+140, y - offsetY - 35, FONT_PRIO_FRONT, 5, moji, 0);

  0056f	6a 00		 push	 0
  00571	8d 85 e0 fe ff
	ff		 lea	 eax, DWORD PTR _moji$[ebp]
  00577	50		 push	 eax
  00578	6a 05		 push	 5
  0057a	6a 01		 push	 1
  0057c	8b 8d 74 fe ff
	ff		 mov	 ecx, DWORD PTR _y$5[ebp]
  00582	2b 8d 5c fe ff
	ff		 sub	 ecx, DWORD PTR _offsetY$3[ebp]
  00588	83 e9 23	 sub	 ecx, 35			; 00000023H
  0058b	51		 push	 ecx
  0058c	8b 95 80 fe ff
	ff		 mov	 edx, DWORD PTR _x$6[ebp]
  00592	2b 95 68 fe ff
	ff		 sub	 edx, DWORD PTR _offsetX$4[ebp]
  00598	81 c2 8c 00 00
	00		 add	 edx, 140		; 0000008cH
  0059e	52		 push	 edx
  0059f	e8 00 00 00 00	 call	 ?StockFontBuffer@@YAHHHDHPADH@Z ; StockFontBuffer
  005a4	83 c4 18	 add	 esp, 24			; 00000018H

; 1673 : 
; 1674 : 
; 1675 : 							if( pet[ i ].earth > 0 ){

  005a7	69 45 f4 20 0b
	00 00		 imul	 eax, DWORD PTR _i$[ebp], 2848
  005ae	83 b8 34 00 00
	00 00		 cmp	 DWORD PTR ?pet@@3PAUPET@@A[eax+52], 0
  005b5	7e 43		 jle	 SHORT $LN36@BattleButt

; 1676 : 								if( pet[ i ].earth > 50 ) atrGraNo[ atrFlag ] = CG_ATR_ICON_EARTH_BIG;

  005b7	69 45 f4 20 0b
	00 00		 imul	 eax, DWORD PTR _i$[ebp], 2848
  005be	83 b8 34 00 00
	00 32		 cmp	 DWORD PTR ?pet@@3PAUPET@@A[eax+52], 50 ; 00000032H
  005c5	7e 13		 jle	 SHORT $LN37@BattleButt
  005c7	8b 85 b0 fe ff
	ff		 mov	 eax, DWORD PTR _atrFlag$[ebp]
  005cd	c7 84 85 98 fe
	ff ff 20 62 00
	00		 mov	 DWORD PTR _atrGraNo$[ebp+eax*4], 25120 ; 00006220H
  005d8	eb 11		 jmp	 SHORT $LN38@BattleButt
$LN37@BattleButt:

; 1677 : 								else atrGraNo[ atrFlag ] = CG_ATR_ICON_EARTH_SML;

  005da	8b 85 b0 fe ff
	ff		 mov	 eax, DWORD PTR _atrFlag$[ebp]
  005e0	c7 84 85 98 fe
	ff ff 22 62 00
	00		 mov	 DWORD PTR _atrGraNo$[ebp+eax*4], 25122 ; 00006222H
$LN38@BattleButt:

; 1678 : 								atrFlag++; 

  005eb	8b 85 b0 fe ff
	ff		 mov	 eax, DWORD PTR _atrFlag$[ebp]
  005f1	83 c0 01	 add	 eax, 1
  005f4	89 85 b0 fe ff
	ff		 mov	 DWORD PTR _atrFlag$[ebp], eax
$LN36@BattleButt:

; 1679 : 							}
; 1680 : 							if( pet[ i ].water > 0 ){

  005fa	69 45 f4 20 0b
	00 00		 imul	 eax, DWORD PTR _i$[ebp], 2848
  00601	83 b8 38 00 00
	00 00		 cmp	 DWORD PTR ?pet@@3PAUPET@@A[eax+56], 0
  00608	7e 43		 jle	 SHORT $LN39@BattleButt

; 1681 : 								if( pet[ i ].water > 50 ) atrGraNo[ atrFlag ] = CG_ATR_ICON_WATER_BIG;

  0060a	69 45 f4 20 0b
	00 00		 imul	 eax, DWORD PTR _i$[ebp], 2848
  00611	83 b8 38 00 00
	00 32		 cmp	 DWORD PTR ?pet@@3PAUPET@@A[eax+56], 50 ; 00000032H
  00618	7e 13		 jle	 SHORT $LN40@BattleButt
  0061a	8b 85 b0 fe ff
	ff		 mov	 eax, DWORD PTR _atrFlag$[ebp]
  00620	c7 84 85 98 fe
	ff ff 23 62 00
	00		 mov	 DWORD PTR _atrGraNo$[ebp+eax*4], 25123 ; 00006223H
  0062b	eb 11		 jmp	 SHORT $LN41@BattleButt
$LN40@BattleButt:

; 1682 : 								else atrGraNo[ atrFlag ] = CG_ATR_ICON_WATER_SML;

  0062d	8b 85 b0 fe ff
	ff		 mov	 eax, DWORD PTR _atrFlag$[ebp]
  00633	c7 84 85 98 fe
	ff ff 25 62 00
	00		 mov	 DWORD PTR _atrGraNo$[ebp+eax*4], 25125 ; 00006225H
$LN41@BattleButt:

; 1683 : 								atrFlag++;

  0063e	8b 85 b0 fe ff
	ff		 mov	 eax, DWORD PTR _atrFlag$[ebp]
  00644	83 c0 01	 add	 eax, 1
  00647	89 85 b0 fe ff
	ff		 mov	 DWORD PTR _atrFlag$[ebp], eax
$LN39@BattleButt:

; 1684 : 							}
; 1685 : 							if( pet[ i ].fire > 0 ){

  0064d	69 45 f4 20 0b
	00 00		 imul	 eax, DWORD PTR _i$[ebp], 2848
  00654	83 b8 3c 00 00
	00 00		 cmp	 DWORD PTR ?pet@@3PAUPET@@A[eax+60], 0
  0065b	7e 43		 jle	 SHORT $LN42@BattleButt

; 1686 : 								if( pet[ i ].fire > 50 ) atrGraNo[ atrFlag ] = CG_ATR_ICON_FIRE_BIG;

  0065d	69 45 f4 20 0b
	00 00		 imul	 eax, DWORD PTR _i$[ebp], 2848
  00664	83 b8 3c 00 00
	00 32		 cmp	 DWORD PTR ?pet@@3PAUPET@@A[eax+60], 50 ; 00000032H
  0066b	7e 13		 jle	 SHORT $LN43@BattleButt
  0066d	8b 85 b0 fe ff
	ff		 mov	 eax, DWORD PTR _atrFlag$[ebp]
  00673	c7 84 85 98 fe
	ff ff 26 62 00
	00		 mov	 DWORD PTR _atrGraNo$[ebp+eax*4], 25126 ; 00006226H
  0067e	eb 11		 jmp	 SHORT $LN44@BattleButt
$LN43@BattleButt:

; 1687 : 								else atrGraNo[ atrFlag ] = CG_ATR_ICON_FIRE_SML;

  00680	8b 85 b0 fe ff
	ff		 mov	 eax, DWORD PTR _atrFlag$[ebp]
  00686	c7 84 85 98 fe
	ff ff 28 62 00
	00		 mov	 DWORD PTR _atrGraNo$[ebp+eax*4], 25128 ; 00006228H
$LN44@BattleButt:

; 1688 : 								atrFlag++;

  00691	8b 85 b0 fe ff
	ff		 mov	 eax, DWORD PTR _atrFlag$[ebp]
  00697	83 c0 01	 add	 eax, 1
  0069a	89 85 b0 fe ff
	ff		 mov	 DWORD PTR _atrFlag$[ebp], eax
$LN42@BattleButt:

; 1689 : 							}
; 1690 : 							if( pet[ i ].wind > 0 ){

  006a0	69 45 f4 20 0b
	00 00		 imul	 eax, DWORD PTR _i$[ebp], 2848
  006a7	83 b8 40 00 00
	00 00		 cmp	 DWORD PTR ?pet@@3PAUPET@@A[eax+64], 0
  006ae	7e 43		 jle	 SHORT $LN45@BattleButt

; 1691 : 								if( pet[ i ].wind > 50 ) atrGraNo[ atrFlag ] = CG_ATR_ICON_WIND_BIG;

  006b0	69 45 f4 20 0b
	00 00		 imul	 eax, DWORD PTR _i$[ebp], 2848
  006b7	83 b8 40 00 00
	00 32		 cmp	 DWORD PTR ?pet@@3PAUPET@@A[eax+64], 50 ; 00000032H
  006be	7e 13		 jle	 SHORT $LN46@BattleButt
  006c0	8b 85 b0 fe ff
	ff		 mov	 eax, DWORD PTR _atrFlag$[ebp]
  006c6	c7 84 85 98 fe
	ff ff 29 62 00
	00		 mov	 DWORD PTR _atrGraNo$[ebp+eax*4], 25129 ; 00006229H
  006d1	eb 11		 jmp	 SHORT $LN47@BattleButt
$LN46@BattleButt:

; 1692 : 								else atrGraNo[ atrFlag ] = CG_ATR_ICON_WIND_SML;

  006d3	8b 85 b0 fe ff
	ff		 mov	 eax, DWORD PTR _atrFlag$[ebp]
  006d9	c7 84 85 98 fe
	ff ff 2b 62 00
	00		 mov	 DWORD PTR _atrGraNo$[ebp+eax*4], 25131 ; 0000622bH
$LN47@BattleButt:

; 1693 : 								atrFlag++; 

  006e4	8b 85 b0 fe ff
	ff		 mov	 eax, DWORD PTR _atrFlag$[ebp]
  006ea	83 c0 01	 add	 eax, 1
  006ed	89 85 b0 fe ff
	ff		 mov	 DWORD PTR _atrFlag$[ebp], eax
$LN45@BattleButt:

; 1694 : 							}
; 1695 : 
; 1696 : 
; 1697 : #ifdef 战斗5宠
; 1698 : 							if (atrFlag > 0) StockDispBuffer(pActWnd->x + 214 - offsetX, y + 8 - offsetY - 35, DISP_PRIO_IME3, atrGraNo[0], 0);

  006f3	83 bd b0 fe ff
	ff 00		 cmp	 DWORD PTR _atrFlag$[ebp], 0
  006fa	7e 45		 jle	 SHORT $LN48@BattleButt
  006fc	6a 00		 push	 0
  006fe	b8 04 00 00 00	 mov	 eax, 4
  00703	6b c8 00	 imul	 ecx, eax, 0
  00706	8b 94 0d 98 fe
	ff ff		 mov	 edx, DWORD PTR _atrGraNo$[ebp+ecx]
  0070d	52		 push	 edx
  0070e	6a 69		 push	 105			; 00000069H
  00710	8b 85 74 fe ff
	ff		 mov	 eax, DWORD PTR _y$5[ebp]
  00716	83 c0 08	 add	 eax, 8
  00719	2b 85 5c fe ff
	ff		 sub	 eax, DWORD PTR _offsetY$3[ebp]
  0071f	83 e8 23	 sub	 eax, 35			; 00000023H
  00722	50		 push	 eax
  00723	8b 0d 00 00 00
	00		 mov	 ecx, DWORD PTR ?pActWnd@@3PAUaction@@A
  00729	8b 51 18	 mov	 edx, DWORD PTR [ecx+24]
  0072c	81 c2 d6 00 00
	00		 add	 edx, 214		; 000000d6H
  00732	2b 95 68 fe ff
	ff		 sub	 edx, DWORD PTR _offsetX$4[ebp]
  00738	52		 push	 edx
  00739	e8 00 00 00 00	 call	 ?StockDispBuffer@@YAHHHEHH@Z ; StockDispBuffer
  0073e	83 c4 14	 add	 esp, 20			; 00000014H
$LN48@BattleButt:

; 1699 : 
; 1700 : 							if (atrFlag > 1) StockDispBuffer(pActWnd->x + 214 + 16 - offsetX, y + 8 - offsetY - 35, DISP_PRIO_IME3, atrGraNo[1], 0);

  00741	83 bd b0 fe ff
	ff 01		 cmp	 DWORD PTR _atrFlag$[ebp], 1
  00748	7e 44		 jle	 SHORT $LN49@BattleButt
  0074a	6a 00		 push	 0
  0074c	b8 04 00 00 00	 mov	 eax, 4
  00751	c1 e0 00	 shl	 eax, 0
  00754	8b 8c 05 98 fe
	ff ff		 mov	 ecx, DWORD PTR _atrGraNo$[ebp+eax]
  0075b	51		 push	 ecx
  0075c	6a 69		 push	 105			; 00000069H
  0075e	8b 95 74 fe ff
	ff		 mov	 edx, DWORD PTR _y$5[ebp]
  00764	83 c2 08	 add	 edx, 8
  00767	2b 95 5c fe ff
	ff		 sub	 edx, DWORD PTR _offsetY$3[ebp]
  0076d	83 ea 23	 sub	 edx, 35			; 00000023H
  00770	52		 push	 edx
  00771	a1 00 00 00 00	 mov	 eax, DWORD PTR ?pActWnd@@3PAUaction@@A
  00776	8b 48 18	 mov	 ecx, DWORD PTR [eax+24]
  00779	81 c1 e6 00 00
	00		 add	 ecx, 230		; 000000e6H
  0077f	2b 8d 68 fe ff
	ff		 sub	 ecx, DWORD PTR _offsetX$4[ebp]
  00785	51		 push	 ecx
  00786	e8 00 00 00 00	 call	 ?StockDispBuffer@@YAHHHEHH@Z ; StockDispBuffer
  0078b	83 c4 14	 add	 esp, 20			; 00000014H
$LN49@BattleButt:

; 1701 : 							y += 25;

  0078e	8b 85 74 fe ff
	ff		 mov	 eax, DWORD PTR _y$5[ebp]
  00794	83 c0 19	 add	 eax, 25			; 00000019H
  00797	89 85 74 fe ff
	ff		 mov	 DWORD PTR _y$5[ebp], eax

; 1702 : 
; 1703 : 							 sprintf(moji, "%-3d         %5d   %5d", pet[i].level, pet[i].hp, pet[i].maxHp);

  0079d	69 45 f4 20 0b
	00 00		 imul	 eax, DWORD PTR _i$[ebp], 2848
  007a4	8b 88 0c 00 00
	00		 mov	 ecx, DWORD PTR ?pet@@3PAUPET@@A[eax+12]
  007aa	51		 push	 ecx
  007ab	69 55 f4 20 0b
	00 00		 imul	 edx, DWORD PTR _i$[ebp], 2848
  007b2	8b 82 08 00 00
	00		 mov	 eax, DWORD PTR ?pet@@3PAUPET@@A[edx+8]
  007b8	50		 push	 eax
  007b9	69 4d f4 20 0b
	00 00		 imul	 ecx, DWORD PTR _i$[ebp], 2848
  007c0	8b 91 20 00 00
	00		 mov	 edx, DWORD PTR ?pet@@3PAUPET@@A[ecx+32]
  007c6	52		 push	 edx
  007c7	68 00 00 00 00	 push	 OFFSET ??_C@_0BH@KGEJIJPJ@?$CF?93d?5?5?5?5?5?5?5?5?5?$CF5d?5?5?5?$CF5d?$AA@
  007cc	8d 85 e0 fe ff
	ff		 lea	 eax, DWORD PTR _moji$[ebp]
  007d2	50		 push	 eax
  007d3	e8 00 00 00 00	 call	 _sprintf
  007d8	83 c4 14	 add	 esp, 20			; 00000014H

; 1704 : 							 StockFontBuffer(x + 27 - offsetX, y - offsetY - 35, FONT_PRIO_FRONT, color, moji, 0); y += 41;

  007db	6a 00		 push	 0
  007dd	8d 85 e0 fe ff
	ff		 lea	 eax, DWORD PTR _moji$[ebp]
  007e3	50		 push	 eax
  007e4	8b 8d 8c fe ff
	ff		 mov	 ecx, DWORD PTR _color$[ebp]
  007ea	51		 push	 ecx
  007eb	6a 01		 push	 1
  007ed	8b 95 74 fe ff
	ff		 mov	 edx, DWORD PTR _y$5[ebp]
  007f3	2b 95 5c fe ff
	ff		 sub	 edx, DWORD PTR _offsetY$3[ebp]
  007f9	83 ea 23	 sub	 edx, 35			; 00000023H
  007fc	52		 push	 edx
  007fd	8b 85 80 fe ff
	ff		 mov	 eax, DWORD PTR _x$6[ebp]
  00803	83 c0 1b	 add	 eax, 27			; 0000001bH
  00806	2b 85 68 fe ff
	ff		 sub	 eax, DWORD PTR _offsetX$4[ebp]
  0080c	50		 push	 eax
  0080d	e8 00 00 00 00	 call	 ?StockFontBuffer@@YAHHHDHPADH@Z ; StockFontBuffer
  00812	83 c4 18	 add	 esp, 24			; 00000018H
  00815	8b 85 74 fe ff
	ff		 mov	 eax, DWORD PTR _y$5[ebp]
  0081b	83 c0 29	 add	 eax, 41			; 00000029H
  0081e	89 85 74 fe ff
	ff		 mov	 DWORD PTR _y$5[ebp], eax

; 1705 : 
; 1706 : #else
; 1707 : 							if (atrFlag > 0) StockDispBuffer(pActWnd->x + 214, y + 8, DISP_PRIO_IME3, atrGraNo[0], 0);
; 1708 : 
; 1709 : 							if (atrFlag > 1) StockDispBuffer(pActWnd->x + 214 + 16, y + 8, DISP_PRIO_IME3, atrGraNo[1], 0);
; 1710 : 							y += 26;
; 1711 : 
; 1712 : 							 sprintf(moji, "%3d          %4d   %4d", pet[i].level, pet[i].hp, pet[i].maxHp);
; 1713 : 							 StockFontBuffer(x + 27, y, FONT_PRIO_FRONT, color, moji, 0); y += 25;
; 1714 : 
; 1715 : 							 sprintf(moji, "%3d", pet[i].ai);
; 1716 : 							 StockFontBuffer(x + 60, y, FONT_PRIO_FRONT, color, moji, 0); y += 36;
; 1717 : #endif // 战斗5宠
; 1718 : 
; 1719 : 
; 1720 : 							flag = TRUE;

  00824	c7 85 bc fe ff
	ff 01 00 00 00	 mov	 DWORD PTR _flag$[ebp], 1
$LN31@BattleButt:

; 1721 : 						}
; 1722 : 					}

  0082e	e9 de fb ff ff	 jmp	 $LN8@BattleButt
$LN9@BattleButt:

; 1723 : 
; 1724 : 					if( flag == TRUE ){ 

  00833	83 bd bc fe ff
	ff 01		 cmp	 DWORD PTR _flag$[ebp], 1
  0083a	0f 85 eb 00 00
	00		 jne	 $LN50@BattleButt

; 1725 : 
; 1726 : 						if( pc.battlePetNo != -1 ){ 

  00840	0f bf 05 aa 00
	00 00		 movsx	 eax, WORD PTR ?pc@@3UPC@@A+170
  00847	83 f8 ff	 cmp	 eax, -1
  0084a	0f 84 92 00 00
	00		 je	 $LN52@BattleButt

; 1727 : 							battleMenuPetFontNo[ 5 ] = StockDispBuffer( pActWnd->x + 70 - offsetX, pActWnd->y + 299 - 召回offsetY, DISP_PRIO_IME3, CG_BTL_PET_RETURN_BTN, 2 );

  00850	6a 02		 push	 2
  00852	68 b9 65 00 00	 push	 26041			; 000065b9H
  00857	6a 69		 push	 105			; 00000069H
  00859	a1 00 00 00 00	 mov	 eax, DWORD PTR ?pActWnd@@3PAUaction@@A
  0085e	8b 48 1c	 mov	 ecx, DWORD PTR [eax+28]
  00861	81 c1 2b 01 00
	00		 add	 ecx, 299		; 0000012bH
  00867	2b 8d 44 fe ff
	ff		 sub	 ecx, DWORD PTR _ٻoffsetY$1[ebp]
  0086d	51		 push	 ecx
  0086e	8b 15 00 00 00
	00		 mov	 edx, DWORD PTR ?pActWnd@@3PAUaction@@A
  00874	8b 42 18	 mov	 eax, DWORD PTR [edx+24]
  00877	83 c0 46	 add	 eax, 70			; 00000046H
  0087a	2b 85 68 fe ff
	ff		 sub	 eax, DWORD PTR _offsetX$4[ebp]
  00880	50		 push	 eax
  00881	e8 00 00 00 00	 call	 ?StockDispBuffer@@YAHHHEHH@Z ; StockDispBuffer
  00886	83 c4 14	 add	 esp, 20			; 00000014H
  00889	b9 04 00 00 00	 mov	 ecx, 4
  0088e	6b d1 05	 imul	 edx, ecx, 5
  00891	89 82 00 00 00
	00		 mov	 DWORD PTR ?battleMenuPetFontNo@@3PAHA[edx], eax

; 1728 : 							battleMenuPetFontNo[ 6 ] = StockDispBuffer( pActWnd->x + 187- offsetX, pActWnd->y + 299 - 召回offsetY, DISP_PRIO_IME3, CG_CLOSE_BTN, 2 );

  00897	6a 02		 push	 2
  00899	68 ba 65 00 00	 push	 26042			; 000065baH
  0089e	6a 69		 push	 105			; 00000069H
  008a0	a1 00 00 00 00	 mov	 eax, DWORD PTR ?pActWnd@@3PAUaction@@A
  008a5	8b 48 1c	 mov	 ecx, DWORD PTR [eax+28]
  008a8	81 c1 2b 01 00
	00		 add	 ecx, 299		; 0000012bH
  008ae	2b 8d 44 fe ff
	ff		 sub	 ecx, DWORD PTR _ٻoffsetY$1[ebp]
  008b4	51		 push	 ecx
  008b5	8b 15 00 00 00
	00		 mov	 edx, DWORD PTR ?pActWnd@@3PAUaction@@A
  008bb	8b 42 18	 mov	 eax, DWORD PTR [edx+24]
  008be	05 bb 00 00 00	 add	 eax, 187		; 000000bbH
  008c3	2b 85 68 fe ff
	ff		 sub	 eax, DWORD PTR _offsetX$4[ebp]
  008c9	50		 push	 eax
  008ca	e8 00 00 00 00	 call	 ?StockDispBuffer@@YAHHHEHH@Z ; StockDispBuffer
  008cf	83 c4 14	 add	 esp, 20			; 00000014H
  008d2	b9 04 00 00 00	 mov	 ecx, 4
  008d7	6b d1 06	 imul	 edx, ecx, 6
  008da	89 82 00 00 00
	00		 mov	 DWORD PTR ?battleMenuPetFontNo@@3PAHA[edx], eax

; 1729 : 						}else{

  008e0	eb 47		 jmp	 SHORT $LN53@BattleButt
$LN52@BattleButt:

; 1730 : 							battleMenuPetFontNo[ 6 ] = StockDispBuffer( ( ( WINDOW_DISP *)pActWnd->pYobi )->mx - offsetX, pActWnd->y + 299 - 召回offsetY, DISP_PRIO_IME3, CG_CLOSE_BTN, 2 );

  008e2	6a 02		 push	 2
  008e4	68 ba 65 00 00	 push	 26042			; 000065baH
  008e9	6a 69		 push	 105			; 00000069H
  008eb	a1 00 00 00 00	 mov	 eax, DWORD PTR ?pActWnd@@3PAUaction@@A
  008f0	8b 48 1c	 mov	 ecx, DWORD PTR [eax+28]
  008f3	81 c1 2b 01 00
	00		 add	 ecx, 299		; 0000012bH
  008f9	2b 8d 44 fe ff
	ff		 sub	 ecx, DWORD PTR _ٻoffsetY$1[ebp]
  008ff	51		 push	 ecx
  00900	8b 15 00 00 00
	00		 mov	 edx, DWORD PTR ?pActWnd@@3PAUaction@@A
  00906	8b 42 0c	 mov	 eax, DWORD PTR [edx+12]
  00909	8b 48 14	 mov	 ecx, DWORD PTR [eax+20]
  0090c	2b 8d 68 fe ff
	ff		 sub	 ecx, DWORD PTR _offsetX$4[ebp]
  00912	51		 push	 ecx
  00913	e8 00 00 00 00	 call	 ?StockDispBuffer@@YAHHHEHH@Z ; StockDispBuffer
  00918	83 c4 14	 add	 esp, 20			; 00000014H
  0091b	ba 04 00 00 00	 mov	 edx, 4
  00920	6b ca 06	 imul	 ecx, edx, 6
  00923	89 81 00 00 00
	00		 mov	 DWORD PTR ?battleMenuPetFontNo@@3PAHA[ecx], eax
$LN53@BattleButt:

; 1731 : 						}
; 1732 : 					}else{

  00929	eb 7a		 jmp	 SHORT $LN1@BattleButt
$LN50@BattleButt:

; 1733 : #ifdef 战斗5宠
; 1734 : 						StockFontBuffer(x + 11 - offsetX, y - 召回offsetY - 70, FONT_PRIO_FRONT, 0, "플레이어가 없는 페트", 0);

  0092b	6a 00		 push	 0
  0092d	68 00 00 00 00	 push	 OFFSET ??_C@_0BF@FCDGFJJJ@?G?C?$LH?$LJ?$MA?L?$LO?n?$LA?$KB?5?$LO?x?$LE?B?5?F?d?F?$KO?$AA@
  00932	6a 00		 push	 0
  00934	6a 01		 push	 1
  00936	8b 85 74 fe ff
	ff		 mov	 eax, DWORD PTR _y$5[ebp]
  0093c	2b 85 44 fe ff
	ff		 sub	 eax, DWORD PTR _ٻoffsetY$1[ebp]
  00942	83 e8 46	 sub	 eax, 70			; 00000046H
  00945	50		 push	 eax
  00946	8b 8d 80 fe ff
	ff		 mov	 ecx, DWORD PTR _x$6[ebp]
  0094c	83 c1 0b	 add	 ecx, 11			; 0000000bH
  0094f	2b 8d 68 fe ff
	ff		 sub	 ecx, DWORD PTR _offsetX$4[ebp]
  00955	51		 push	 ecx
  00956	e8 00 00 00 00	 call	 ?StockFontBuffer@@YAHHHDHPADH@Z ; StockFontBuffer
  0095b	83 c4 18	 add	 esp, 24			; 00000018H

; 1735 : #else
; 1736 : 						StockFontBuffer(x + 11, y , FONT_PRIO_FRONT, 0, "没有参战的宠物", 0);
; 1737 : #endif
; 1738 : 						
; 1739 : 						battleMenuPetFontNo[ 6 ] = StockDispBuffer( ( ( WINDOW_DISP *)pActWnd->pYobi )->mx - offsetX, pActWnd->y + 299 - 召回offsetY, DISP_PRIO_IME3, CG_CLOSE_BTN, 2 );

  0095e	6a 02		 push	 2
  00960	68 ba 65 00 00	 push	 26042			; 000065baH
  00965	6a 69		 push	 105			; 00000069H
  00967	a1 00 00 00 00	 mov	 eax, DWORD PTR ?pActWnd@@3PAUaction@@A
  0096c	8b 48 1c	 mov	 ecx, DWORD PTR [eax+28]
  0096f	81 c1 2b 01 00
	00		 add	 ecx, 299		; 0000012bH
  00975	2b 8d 44 fe ff
	ff		 sub	 ecx, DWORD PTR _ٻoffsetY$1[ebp]
  0097b	51		 push	 ecx
  0097c	8b 15 00 00 00
	00		 mov	 edx, DWORD PTR ?pActWnd@@3PAUaction@@A
  00982	8b 42 0c	 mov	 eax, DWORD PTR [edx+12]
  00985	8b 48 14	 mov	 ecx, DWORD PTR [eax+20]
  00988	2b 8d 68 fe ff
	ff		 sub	 ecx, DWORD PTR _offsetX$4[ebp]
  0098e	51		 push	 ecx
  0098f	e8 00 00 00 00	 call	 ?StockDispBuffer@@YAHHHEHH@Z ; StockDispBuffer
  00994	83 c4 14	 add	 esp, 20			; 00000014H
  00997	ba 04 00 00 00	 mov	 edx, 4
  0099c	6b ca 06	 imul	 ecx, edx, 6
  0099f	89 81 00 00 00
	00		 mov	 DWORD PTR ?battleMenuPetFontNo@@3PAHA[ecx], eax
$LN1@BattleButt:

; 1740 : 					}
; 1741 : 				}			
; 1742 : 			}
; 1743 : 		}
; 1744 : 	}
; 1745 : }

  009a5	52		 push	 edx
  009a6	8b cd		 mov	 ecx, ebp
  009a8	50		 push	 eax
  009a9	8d 15 00 00 00
	00		 lea	 edx, DWORD PTR $LN58@BattleButt
  009af	e8 00 00 00 00	 call	 @_RTC_CheckStackVars@8
  009b4	58		 pop	 eax
  009b5	5a		 pop	 edx
  009b6	5f		 pop	 edi
  009b7	5e		 pop	 esi
  009b8	5b		 pop	 ebx
  009b9	8b 4d fc	 mov	 ecx, DWORD PTR __$ArrayPad$[ebp]
  009bc	33 cd		 xor	 ecx, ebp
  009be	e8 00 00 00 00	 call	 @__security_check_cookie@4
  009c3	81 c4 80 02 00
	00		 add	 esp, 640		; 00000280H
  009c9	3b ec		 cmp	 ebp, esp
  009cb	e8 00 00 00 00	 call	 __RTC_CheckEsp
  009d0	8b e5		 mov	 esp, ebp
  009d2	5d		 pop	 ebp
  009d3	c3		 ret	 0
$LN58@BattleButt:
  009d4	02 00 00 00	 DD	 2
  009d8	00 00 00 00	 DD	 $LN57@BattleButt
$LN57@BattleButt:
  009dc	e0 fe ff ff	 DD	 -288			; fffffee0H
  009e0	00 01 00 00	 DD	 256			; 00000100H
  009e4	00 00 00 00	 DD	 $LN55@BattleButt
  009e8	98 fe ff ff	 DD	 -360			; fffffe98H
  009ec	10 00 00 00	 DD	 16			; 00000010H
  009f0	00 00 00 00	 DD	 $LN56@BattleButt
$LN56@BattleButt:
  009f4	61		 DB	 97			; 00000061H
  009f5	74		 DB	 116			; 00000074H
  009f6	72		 DB	 114			; 00000072H
  009f7	47		 DB	 71			; 00000047H
  009f8	72		 DB	 114			; 00000072H
  009f9	61		 DB	 97			; 00000061H
  009fa	4e		 DB	 78			; 0000004eH
  009fb	6f		 DB	 111			; 0000006fH
  009fc	00		 DB	 0
$LN55@BattleButt:
  009fd	6d		 DB	 109			; 0000006dH
  009fe	6f		 DB	 111			; 0000006fH
  009ff	6a		 DB	 106			; 0000006aH
  00a00	69		 DB	 105			; 00000069H
  00a01	00		 DB	 0
?BattleButtonPet@@YAXXZ ENDP				; BattleButtonPet
_TEXT	ENDS
; Function compile flags: /Odtp /RTCsu /ZI
; File c:\users\administrator\desktop\????? ??\????? ??\client source code\system\battlemenu.cpp
;	COMDAT ?BattleButtonItem@@YAXXZ
_TEXT	SEGMENT
tv280 = -572						; size = 4
$T1 = -564						; size = 4
$T2 = -552						; size = 4
$T3 = -540						; size = 4
_splitPoint$4 = -336					; size = 4
_color$5 = -324						; size = 4
_y$ = -312						; size = 4
_x$ = -300						; size = 4
_moji$ = -288						; size = 256
_bak$ = -24						; size = 4
_i$ = -12						; size = 4
__$ArrayPad$ = -4					; size = 4
?BattleButtonItem@@YAXXZ PROC				; BattleButtonItem, COMDAT

; 1216 : {

  00000	55		 push	 ebp
  00001	8b ec		 mov	 ebp, esp
  00003	81 ec 3c 02 00
	00		 sub	 esp, 572		; 0000023cH
  00009	53		 push	 ebx
  0000a	56		 push	 esi
  0000b	57		 push	 edi
  0000c	8d bd c4 fd ff
	ff		 lea	 edi, DWORD PTR [ebp-572]
  00012	b9 8f 00 00 00	 mov	 ecx, 143		; 0000008fH
  00017	b8 cc cc cc cc	 mov	 eax, -858993460		; ccccccccH
  0001c	f3 ab		 rep stosd
  0001e	a1 00 00 00 00	 mov	 eax, DWORD PTR ___security_cookie
  00023	33 c5		 xor	 eax, ebp
  00025	89 45 fc	 mov	 DWORD PTR __$ArrayPad$[ebp], eax

; 1217 : 	int i, bak;
; 1218 : 	char moji[ 256 ];
; 1219 : 	int x, y;
; 1220 : 
; 1221 : 	if( HitDispNo == battleButtonDispNo[ 5 ] || battleButtonBak2 == 5 ){

  00028	b8 04 00 00 00	 mov	 eax, 4
  0002d	6b c8 05	 imul	 ecx, eax, 5
  00030	8b 15 00 00 00
	00		 mov	 edx, DWORD PTR ?HitDispNo@@3HA ; HitDispNo
  00036	3b 91 00 00 00
	00		 cmp	 edx, DWORD PTR ?battleButtonDispNo@@3PAHA[ecx]
  0003c	74 0d		 je	 SHORT $LN37@BattleButt
  0003e	83 3d 00 00 00
	00 05		 cmp	 DWORD PTR ?battleButtonBak2@@3HA, 5
  00045	0f 85 e1 00 00
	00		 jne	 $LN36@BattleButt
$LN37@BattleButt:

; 1222 : 		if( mouse.onceState & MOUSE_LEFT_CRICK || battleButtonBak2 == 5 ){

  0004b	a1 2c 00 00 00	 mov	 eax, DWORD PTR ?mouse@@3UMOUSE@@A+44
  00050	83 e0 01	 and	 eax, 1
  00053	75 0d		 jne	 SHORT $LN39@BattleButt
  00055	83 3d 00 00 00
	00 05		 cmp	 DWORD PTR ?battleButtonBak2@@3HA, 5
  0005c	0f 85 b8 00 00
	00		 jne	 $LN38@BattleButt
$LN39@BattleButt:

; 1223 : 			bak = battleButtonFlag[ 5 ];

  00062	b8 04 00 00 00	 mov	 eax, 4
  00067	6b c8 05	 imul	 ecx, eax, 5
  0006a	8b 91 00 00 00
	00		 mov	 edx, DWORD PTR ?battleButtonFlag@@3PAHA[ecx]
  00070	89 55 e8	 mov	 DWORD PTR _bak$[ebp], edx

; 1224 : 			BattleButtonOff();

  00073	e8 00 00 00 00	 call	 ?BattleButtonOff@@YAXXZ	; BattleButtonOff

; 1225 : 
; 1226 : 			if( bak == FALSE ){

  00078	83 7d e8 00	 cmp	 DWORD PTR _bak$[ebp], 0
  0007c	0f 85 98 00 00
	00		 jne	 $LN38@BattleButt

; 1227 : 
; 1228 : 				battleButtonFlag[ 5 ] = TRUE;

  00082	b8 04 00 00 00	 mov	 eax, 4
  00087	6b c8 05	 imul	 ecx, eax, 5
  0008a	c7 81 00 00 00
	00 01 00 00 00	 mov	 DWORD PTR ?battleButtonFlag@@3PAHA[ecx], 1

; 1229 : 
; 1230 : 				BattleCmdNo = BATTLE_ITEM;

  00094	c7 05 00 00 00
	00 03 00 00 00	 mov	 DWORD PTR ?BattleCmdNo@@3HA, 3 ; BattleCmdNo

; 1231 : 
; 1232 : 				for( i = 0 ; i < BATTLE_MENU_ITEM_FONTS ; i++ ) battleMenuItemFontNo[ i ] = -2;

  0009e	c7 45 f4 00 00
	00 00		 mov	 DWORD PTR _i$[ebp], 0
  000a5	eb 09		 jmp	 SHORT $LN4@BattleButt
$LN2@BattleButt:
  000a7	8b 45 f4	 mov	 eax, DWORD PTR _i$[ebp]
  000aa	83 c0 01	 add	 eax, 1
  000ad	89 45 f4	 mov	 DWORD PTR _i$[ebp], eax
$LN4@BattleButt:
  000b0	83 7d f4 06	 cmp	 DWORD PTR _i$[ebp], 6
  000b4	7d 10		 jge	 SHORT $LN3@BattleButt
  000b6	8b 45 f4	 mov	 eax, DWORD PTR _i$[ebp]
  000b9	c7 04 85 00 00
	00 00 fe ff ff
	ff		 mov	 DWORD PTR ?battleMenuItemFontNo@@3PAHA[eax*4], -2 ; fffffffeH
  000c4	eb e1		 jmp	 SHORT $LN2@BattleButt
$LN3@BattleButt:

; 1233 : 
; 1234 : 				pActWnd = MakeWindowDisp( 361, 160, 271, 281, 0, -1 );

  000c6	6a ff		 push	 -1
  000c8	6a 00		 push	 0
  000ca	68 19 01 00 00	 push	 281			; 00000119H
  000cf	68 0f 01 00 00	 push	 271			; 0000010fH
  000d4	68 a0 00 00 00	 push	 160			; 000000a0H
  000d9	68 69 01 00 00	 push	 361			; 00000169H
  000de	e8 00 00 00 00	 call	 ?MakeWindowDisp@@YAPAUaction@@HHHHHH@Z ; MakeWindowDisp
  000e3	83 c4 18	 add	 esp, 24			; 00000018H
  000e6	a3 00 00 00 00	 mov	 DWORD PTR ?pActWnd@@3PAUaction@@A, eax

; 1235 : 
; 1236 : 				InitItem2( pActWnd->x, pActWnd->y );

  000eb	a1 00 00 00 00	 mov	 eax, DWORD PTR ?pActWnd@@3PAUaction@@A
  000f0	8b 48 1c	 mov	 ecx, DWORD PTR [eax+28]
  000f3	51		 push	 ecx
  000f4	8b 15 00 00 00
	00		 mov	 edx, DWORD PTR ?pActWnd@@3PAUaction@@A
  000fa	8b 42 18	 mov	 eax, DWORD PTR [edx+24]
  000fd	50		 push	 eax
  000fe	e8 00 00 00 00	 call	 ?InitItem2@@YAXHH@Z	; InitItem2
  00103	83 c4 08	 add	 esp, 8

; 1237 : 
; 1238 : 				battleButtonBak = 5;

  00106	c7 05 00 00 00
	00 05 00 00 00	 mov	 DWORD PTR ?battleButtonBak@@3HA, 5 ; battleButtonBak

; 1239 : 
; 1240 : 				battleButtonBak2 = -1;

  00110	c7 05 00 00 00
	00 ff ff ff ff	 mov	 DWORD PTR ?battleButtonBak2@@3HA, -1
$LN38@BattleButt:

; 1241 : 			}
; 1242 : 		}
; 1243 : 
; 1244 : 		strcpy( OneLineInfoStr, "아이템。");

  0011a	68 00 00 00 00	 push	 OFFSET ??_C@_08CJOHOOE@?$LO?F?$MA?L?E?$NL?$KB?$KD?$AA@
  0011f	68 00 00 00 00	 push	 OFFSET ?OneLineInfoStr@@3PADA ; OneLineInfoStr
  00124	e8 00 00 00 00	 call	 _strcpy
  00129	83 c4 08	 add	 esp, 8
$LN36@BattleButt:

; 1245 : 	}
; 1246 : 
; 1247 : 	if( battleButtonFlag[ 5 ] == TRUE ){

  0012c	b8 04 00 00 00	 mov	 eax, 4
  00131	6b c8 05	 imul	 ecx, eax, 5
  00134	83 b9 00 00 00
	00 01		 cmp	 DWORD PTR ?battleButtonFlag@@3PAHA[ecx], 1
  0013b	0f 85 83 0b 00
	00		 jne	 $LN104@BattleButt

; 1248 : 
; 1249 : 		if( pActWnd != NULL ){

  00141	83 3d 00 00 00
	00 00		 cmp	 DWORD PTR ?pActWnd@@3PAUaction@@A, 0
  00148	0f 84 76 0b 00
	00		 je	 $LN104@BattleButt

; 1250 : 
; 1251 : 			if( pActWnd->hp > 0 ){

  0014e	a1 00 00 00 00	 mov	 eax, DWORD PTR ?pActWnd@@3PAUaction@@A
  00153	83 78 78 00	 cmp	 DWORD PTR [eax+120], 0
  00157	0f 8e 67 0b 00
	00		 jle	 $LN104@BattleButt

; 1252 : #ifdef _READ16BITBMP
; 1253 : 				if(g_bUseAlpha) StockDispBuffer( ( ( WINDOW_DISP *)pActWnd->pYobi )->mx, ( ( WINDOW_DISP *)pActWnd->pYobi )->my, DISP_PRIO_MENU, CG_ITEM_WND_1, 1 );
; 1254 : 				else
; 1255 : #endif
; 1256 : 				StockDispBuffer( ( ( WINDOW_DISP *)pActWnd->pYobi )->mx, ( ( WINDOW_DISP *)pActWnd->pYobi )->my, DISP_PRIO_MENU, CG_ITEM_WND_1, 1 );

  0015d	6a 01		 push	 1
  0015f	a1 00 00 00 00	 mov	 eax, DWORD PTR ?CG_ITEM_WND_1@@3HA ; CG_ITEM_WND_1
  00164	50		 push	 eax
  00165	6a 68		 push	 104			; 00000068H
  00167	8b 0d 00 00 00
	00		 mov	 ecx, DWORD PTR ?pActWnd@@3PAUaction@@A
  0016d	8b 51 0c	 mov	 edx, DWORD PTR [ecx+12]
  00170	8b 42 18	 mov	 eax, DWORD PTR [edx+24]
  00173	50		 push	 eax
  00174	8b 0d 00 00 00
	00		 mov	 ecx, DWORD PTR ?pActWnd@@3PAUaction@@A
  0017a	8b 51 0c	 mov	 edx, DWORD PTR [ecx+12]
  0017d	8b 42 14	 mov	 eax, DWORD PTR [edx+20]
  00180	50		 push	 eax
  00181	e8 00 00 00 00	 call	 ?StockDispBuffer@@YAHHHEHH@Z ; StockDispBuffer
  00186	83 c4 14	 add	 esp, 20			; 00000014H

; 1257 : 
; 1258 : 				StockDispBuffer( ( ( WINDOW_DISP *)pActWnd->pYobi )->mx, ( ( WINDOW_DISP *)pActWnd->pYobi )->my - 80, DISP_PRIO_MENU, CG_BTL_ITEM_WND_TITLE, 1 );

  00189	6a 01		 push	 1
  0018b	68 d8 65 00 00	 push	 26072			; 000065d8H
  00190	6a 68		 push	 104			; 00000068H
  00192	a1 00 00 00 00	 mov	 eax, DWORD PTR ?pActWnd@@3PAUaction@@A
  00197	8b 48 0c	 mov	 ecx, DWORD PTR [eax+12]
  0019a	8b 51 18	 mov	 edx, DWORD PTR [ecx+24]
  0019d	83 ea 50	 sub	 edx, 80			; 00000050H
  001a0	52		 push	 edx
  001a1	a1 00 00 00 00	 mov	 eax, DWORD PTR ?pActWnd@@3PAUaction@@A
  001a6	8b 48 0c	 mov	 ecx, DWORD PTR [eax+12]
  001a9	8b 51 14	 mov	 edx, DWORD PTR [ecx+20]
  001ac	52		 push	 edx
  001ad	e8 00 00 00 00	 call	 ?StockDispBuffer@@YAHHHEHH@Z ; StockDispBuffer
  001b2	83 c4 14	 add	 esp, 20			; 00000014H

; 1259 : 
; 1260 : 				if( mouse.onceState & MOUSE_LEFT_CRICK ){

  001b5	a1 2c 00 00 00	 mov	 eax, DWORD PTR ?mouse@@3UMOUSE@@A+44
  001ba	83 e0 01	 and	 eax, 1
  001bd	74 1b		 je	 SHORT $LN44@BattleButt

; 1261 : 
; 1262 : 					if( HitDispNo == battleMenuItemFontNo[ 0 ] ){

  001bf	b8 04 00 00 00	 mov	 eax, 4
  001c4	6b c8 00	 imul	 ecx, eax, 0
  001c7	8b 15 00 00 00
	00		 mov	 edx, DWORD PTR ?HitDispNo@@3HA ; HitDispNo
  001cd	3b 91 00 00 00
	00		 cmp	 edx, DWORD PTR ?battleMenuItemFontNo@@3PAHA[ecx]
  001d3	75 05		 jne	 SHORT $LN44@BattleButt

; 1263 : 						BattleButtonOff();				

  001d5	e8 00 00 00 00	 call	 ?BattleButtonOff@@YAXXZ	; BattleButtonOff
$LN44@BattleButt:

; 1264 : 					}
; 1265 : 				}
; 1266 : 
; 1267 : 				if( pActWnd != NULL ){

  001da	83 3d 00 00 00
	00 00		 cmp	 DWORD PTR ?pActWnd@@3PAUaction@@A, 0
  001e1	0f 84 dd 0a 00
	00		 je	 $LN104@BattleButt

; 1268 : 
; 1269 : 					x = pActWnd->x + 16;

  001e7	a1 00 00 00 00	 mov	 eax, DWORD PTR ?pActWnd@@3PAUaction@@A
  001ec	8b 48 18	 mov	 ecx, DWORD PTR [eax+24]
  001ef	83 c1 10	 add	 ecx, 16			; 00000010H
  001f2	89 8d d4 fe ff
	ff		 mov	 DWORD PTR _x$[ebp], ecx

; 1270 : 					y = pActWnd->y + 191 + 7;

  001f8	a1 00 00 00 00	 mov	 eax, DWORD PTR ?pActWnd@@3PAUaction@@A
  001fd	8b 48 1c	 mov	 ecx, DWORD PTR [eax+28]
  00200	81 c1 c6 00 00
	00		 add	 ecx, 198		; 000000c6H
  00206	89 8d c8 fe ff
	ff		 mov	 DWORD PTR _y$[ebp], ecx

; 1271 : 
; 1272 : 					for(  i = MAX_ITEM -1 ; i >= MAX_ITEMSTART ; i-- ){

  0020c	c7 45 f4 35 00
	00 00		 mov	 DWORD PTR _i$[ebp], 53	; 00000035H
  00213	eb 09		 jmp	 SHORT $LN7@BattleButt
$LN5@BattleButt:
  00215	8b 45 f4	 mov	 eax, DWORD PTR _i$[ebp]
  00218	83 e8 01	 sub	 eax, 1
  0021b	89 45 f4	 mov	 DWORD PTR _i$[ebp], eax
$LN7@BattleButt:
  0021e	83 7d f4 09	 cmp	 DWORD PTR _i$[ebp], 9
  00222	0f 8c 58 0a 00
	00		 jl	 $LN6@BattleButt

; 1273 : 
; 1274 : 						if( MakeHitBox( ItemBuffer[ i ].defX - 24, ItemBuffer[ i ].defY - 24, 
; 1275 : 										ItemBuffer[ i ].defX + 25, ItemBuffer[ i ].defY + 23, DISP_PRIO_IME3 ) == TRUE ){

  00228	6a 69		 push	 105			; 00000069H
  0022a	8b 45 f4	 mov	 eax, DWORD PTR _i$[ebp]
  0022d	c1 e0 05	 shl	 eax, 5
  00230	8b 88 0c 00 00
	00		 mov	 ecx, DWORD PTR ?ItemBuffer@@3PAUITEM_BUFFER@@A[eax+12]
  00236	83 c1 17	 add	 ecx, 23			; 00000017H
  00239	51		 push	 ecx
  0023a	8b 55 f4	 mov	 edx, DWORD PTR _i$[ebp]
  0023d	c1 e2 05	 shl	 edx, 5
  00240	8b 82 08 00 00
	00		 mov	 eax, DWORD PTR ?ItemBuffer@@3PAUITEM_BUFFER@@A[edx+8]
  00246	83 c0 19	 add	 eax, 25			; 00000019H
  00249	50		 push	 eax
  0024a	8b 4d f4	 mov	 ecx, DWORD PTR _i$[ebp]
  0024d	c1 e1 05	 shl	 ecx, 5
  00250	8b 91 0c 00 00
	00		 mov	 edx, DWORD PTR ?ItemBuffer@@3PAUITEM_BUFFER@@A[ecx+12]
  00256	83 ea 18	 sub	 edx, 24			; 00000018H
  00259	52		 push	 edx
  0025a	8b 45 f4	 mov	 eax, DWORD PTR _i$[ebp]
  0025d	c1 e0 05	 shl	 eax, 5
  00260	8b 88 08 00 00
	00		 mov	 ecx, DWORD PTR ?ItemBuffer@@3PAUITEM_BUFFER@@A[eax+8]
  00266	83 e9 18	 sub	 ecx, 24			; 00000018H
  00269	51		 push	 ecx
  0026a	e8 00 00 00 00	 call	 ?MakeHitBox@@YAHHHHHH@Z	; MakeHitBox
  0026f	83 c4 14	 add	 esp, 20			; 00000014H
  00272	83 f8 01	 cmp	 eax, 1
  00275	0f 85 ad 09 00
	00		 jne	 $LN47@BattleButt

; 1276 : 
; 1277 : 							if( pc.item[ i ].useFlag == TRUE ){ 

  0027b	69 45 f4 7c 01
	00 00		 imul	 eax, DWORD PTR _i$[ebp], 380
  00282	0f bf 88 a0 01
	00 00		 movsx	 ecx, WORD PTR ?pc@@3UPC@@A[eax+416]
  00289	83 f9 01	 cmp	 ecx, 1
  0028c	0f 85 fe 01 00
	00		 jne	 $LN48@BattleButt

; 1278 : 								int color = FONT_PAL_WHITE;

  00292	c7 85 bc fe ff
	ff 00 00 00 00	 mov	 DWORD PTR _color$5[ebp], 0

; 1279 : 
; 1280 : 								char *splitPoint = pc.item[ i ].memo;

  0029c	69 45 f4 7c 01
	00 00		 imul	 eax, DWORD PTR _i$[ebp], 380
  002a3	05 d8 01 00 00	 add	 eax, OFFSET ?pc@@3UPC@@A+472
  002a8	89 85 b0 fe ff
	ff		 mov	 DWORD PTR _splitPoint$4[ebp], eax

; 1281 : 
; 1282 : 								if( pc.transmigration == 0 && pc.level < pc.item[ i ].level ) color = FONT_PAL_RED;

  002ae	0f bf 05 f4 50
	00 00		 movsx	 eax, WORD PTR ?pc@@3UPC@@A+20724
  002b5	85 c0		 test	 eax, eax
  002b7	75 1f		 jne	 SHORT $LN49@BattleButt
  002b9	69 45 f4 7c 01
	00 00		 imul	 eax, DWORD PTR _i$[ebp], 380
  002c0	8b 0d 38 00 00
	00		 mov	 ecx, DWORD PTR ?pc@@3UPC@@A+56
  002c6	3b 88 cc 00 00
	00		 cmp	 ecx, DWORD PTR ?pc@@3UPC@@A[eax+204]
  002cc	7d 0a		 jge	 SHORT $LN49@BattleButt
  002ce	c7 85 bc fe ff
	ff 06 00 00 00	 mov	 DWORD PTR _color$5[ebp], 6
$LN49@BattleButt:

; 1283 : 
; 1284 : 								StockFontBuffer( pActWnd->x + 16, pActWnd->y + 332 - 160, FONT_PRIO_FRONT, color, pc.item[ i ].name, 0 );	

  002d8	6a 00		 push	 0
  002da	69 45 f4 7c 01
	00 00		 imul	 eax, DWORD PTR _i$[ebp], 380
  002e1	05 aa 01 00 00	 add	 eax, OFFSET ?pc@@3UPC@@A+426
  002e6	50		 push	 eax
  002e7	8b 8d bc fe ff
	ff		 mov	 ecx, DWORD PTR _color$5[ebp]
  002ed	51		 push	 ecx
  002ee	6a 01		 push	 1
  002f0	8b 15 00 00 00
	00		 mov	 edx, DWORD PTR ?pActWnd@@3PAUaction@@A
  002f6	8b 42 1c	 mov	 eax, DWORD PTR [edx+28]
  002f9	05 ac 00 00 00	 add	 eax, 172		; 000000acH
  002fe	50		 push	 eax
  002ff	8b 0d 00 00 00
	00		 mov	 ecx, DWORD PTR ?pActWnd@@3PAUaction@@A
  00305	8b 51 18	 mov	 edx, DWORD PTR [ecx+24]
  00308	83 c2 10	 add	 edx, 16			; 00000010H
  0030b	52		 push	 edx
  0030c	e8 00 00 00 00	 call	 ?StockFontBuffer@@YAHHHDHPADH@Z ; StockFontBuffer
  00311	83 c4 18	 add	 esp, 24			; 00000018H
$LN8@BattleButt:

; 1285 : 
; 1286 : 								while( 1 ){

  00314	b8 01 00 00 00	 mov	 eax, 1
  00319	85 c0		 test	 eax, eax
  0031b	0f 84 6f 01 00
	00		 je	 $LN48@BattleButt

; 1287 : 
; 1288 : 									if( strlen( splitPoint ) > 28 ){

  00321	8b 85 b0 fe ff
	ff		 mov	 eax, DWORD PTR _splitPoint$4[ebp]
  00327	50		 push	 eax
  00328	e8 00 00 00 00	 call	 _strlen
  0032d	83 c4 04	 add	 esp, 4
  00330	83 f8 1c	 cmp	 eax, 28			; 0000001cH
  00333	0f 86 17 01 00
	00		 jbe	 $LN50@BattleButt

; 1289 : 										strncpy( moji, splitPoint, 28 );

  00339	8b f4		 mov	 esi, esp
  0033b	6a 1c		 push	 28			; 0000001cH
  0033d	8b 85 b0 fe ff
	ff		 mov	 eax, DWORD PTR _splitPoint$4[ebp]
  00343	50		 push	 eax
  00344	8d 8d e0 fe ff
	ff		 lea	 ecx, DWORD PTR _moji$[ebp]
  0034a	51		 push	 ecx
  0034b	ff 15 00 00 00
	00		 call	 DWORD PTR __imp__strncpy
  00351	83 c4 0c	 add	 esp, 12			; 0000000cH
  00354	3b f4		 cmp	 esi, esp
  00356	e8 00 00 00 00	 call	 __RTC_CheckEsp

; 1290 : 										moji[ 28 ] = NULL;

  0035b	b8 01 00 00 00	 mov	 eax, 1
  00360	6b c8 1c	 imul	 ecx, eax, 28
  00363	89 8d e4 fd ff
	ff		 mov	 DWORD PTR $T3[ebp], ecx
  00369	81 bd e4 fd ff
	ff 00 01 00 00	 cmp	 DWORD PTR $T3[ebp], 256	; 00000100H
  00373	73 02		 jae	 SHORT $LN105@BattleButt
  00375	eb 05		 jmp	 SHORT $LN106@BattleButt
$LN105@BattleButt:
  00377	e8 00 00 00 00	 call	 ___report_rangecheckfailure
$LN106@BattleButt:
  0037c	8b 95 e4 fd ff
	ff		 mov	 edx, DWORD PTR $T3[ebp]
  00382	c6 84 15 e0 fe
	ff ff 00	 mov	 BYTE PTR _moji$[ebp+edx], 0

; 1291 : 
; 1292 : 										if( GetStrLastByte( moji ) == 3 ){

  0038a	8d 85 e0 fe ff
	ff		 lea	 eax, DWORD PTR _moji$[ebp]
  00390	50		 push	 eax
  00391	e8 00 00 00 00	 call	 ?GetStrLastByte@@YAHPAD@Z ; GetStrLastByte
  00396	83 c4 04	 add	 esp, 4
  00399	83 f8 03	 cmp	 eax, 3
  0039c	75 40		 jne	 SHORT $LN52@BattleButt

; 1293 : 											moji[ 27 ] = NULL;

  0039e	b8 01 00 00 00	 mov	 eax, 1
  003a3	6b c8 1b	 imul	 ecx, eax, 27
  003a6	89 8d d8 fd ff
	ff		 mov	 DWORD PTR $T2[ebp], ecx
  003ac	81 bd d8 fd ff
	ff 00 01 00 00	 cmp	 DWORD PTR $T2[ebp], 256	; 00000100H
  003b6	73 02		 jae	 SHORT $LN107@BattleButt
  003b8	eb 05		 jmp	 SHORT $LN108@BattleButt
$LN107@BattleButt:
  003ba	e8 00 00 00 00	 call	 ___report_rangecheckfailure
$LN108@BattleButt:
  003bf	8b 95 d8 fd ff
	ff		 mov	 edx, DWORD PTR $T2[ebp]
  003c5	c6 84 15 e0 fe
	ff ff 00	 mov	 BYTE PTR _moji$[ebp+edx], 0

; 1294 : 											splitPoint += 27;

  003cd	8b 85 b0 fe ff
	ff		 mov	 eax, DWORD PTR _splitPoint$4[ebp]
  003d3	83 c0 1b	 add	 eax, 27			; 0000001bH
  003d6	89 85 b0 fe ff
	ff		 mov	 DWORD PTR _splitPoint$4[ebp], eax

; 1295 : 										}else{

  003dc	eb 3e		 jmp	 SHORT $LN53@BattleButt
$LN52@BattleButt:

; 1296 : 											moji[ 28 ] = NULL;

  003de	b8 01 00 00 00	 mov	 eax, 1
  003e3	6b c8 1c	 imul	 ecx, eax, 28
  003e6	89 8d cc fd ff
	ff		 mov	 DWORD PTR $T1[ebp], ecx
  003ec	81 bd cc fd ff
	ff 00 01 00 00	 cmp	 DWORD PTR $T1[ebp], 256	; 00000100H
  003f6	73 02		 jae	 SHORT $LN109@BattleButt
  003f8	eb 05		 jmp	 SHORT $LN110@BattleButt
$LN109@BattleButt:
  003fa	e8 00 00 00 00	 call	 ___report_rangecheckfailure
$LN110@BattleButt:
  003ff	8b 95 cc fd ff
	ff		 mov	 edx, DWORD PTR $T1[ebp]
  00405	c6 84 15 e0 fe
	ff ff 00	 mov	 BYTE PTR _moji$[ebp+edx], 0

; 1297 : 											splitPoint += 28;

  0040d	8b 85 b0 fe ff
	ff		 mov	 eax, DWORD PTR _splitPoint$4[ebp]
  00413	83 c0 1c	 add	 eax, 28			; 0000001cH
  00416	89 85 b0 fe ff
	ff		 mov	 DWORD PTR _splitPoint$4[ebp], eax
$LN53@BattleButt:

; 1298 : 										}
; 1299 : 										StockFontBuffer( x, y, FONT_PRIO_FRONT, 0, moji, 0 ); y += 24;

  0041c	6a 00		 push	 0
  0041e	8d 85 e0 fe ff
	ff		 lea	 eax, DWORD PTR _moji$[ebp]
  00424	50		 push	 eax
  00425	6a 00		 push	 0
  00427	6a 01		 push	 1
  00429	8b 8d c8 fe ff
	ff		 mov	 ecx, DWORD PTR _y$[ebp]
  0042f	51		 push	 ecx
  00430	8b 95 d4 fe ff
	ff		 mov	 edx, DWORD PTR _x$[ebp]
  00436	52		 push	 edx
  00437	e8 00 00 00 00	 call	 ?StockFontBuffer@@YAHHHDHPADH@Z ; StockFontBuffer
  0043c	83 c4 18	 add	 esp, 24			; 00000018H
  0043f	8b 85 c8 fe ff
	ff		 mov	 eax, DWORD PTR _y$[ebp]
  00445	83 c0 18	 add	 eax, 24			; 00000018H
  00448	89 85 c8 fe ff
	ff		 mov	 DWORD PTR _y$[ebp], eax

; 1300 : 									}else{

  0044e	eb 3b		 jmp	 SHORT $LN51@BattleButt
$LN50@BattleButt:

; 1301 : 										strcpy( moji, splitPoint );

  00450	8b 85 b0 fe ff
	ff		 mov	 eax, DWORD PTR _splitPoint$4[ebp]
  00456	50		 push	 eax
  00457	8d 8d e0 fe ff
	ff		 lea	 ecx, DWORD PTR _moji$[ebp]
  0045d	51		 push	 ecx
  0045e	e8 00 00 00 00	 call	 _strcpy
  00463	83 c4 08	 add	 esp, 8

; 1302 : 										StockFontBuffer( x, y, FONT_PRIO_FRONT, 0, moji, 0 );

  00466	6a 00		 push	 0
  00468	8d 85 e0 fe ff
	ff		 lea	 eax, DWORD PTR _moji$[ebp]
  0046e	50		 push	 eax
  0046f	6a 00		 push	 0
  00471	6a 01		 push	 1
  00473	8b 8d c8 fe ff
	ff		 mov	 ecx, DWORD PTR _y$[ebp]
  00479	51		 push	 ecx
  0047a	8b 95 d4 fe ff
	ff		 mov	 edx, DWORD PTR _x$[ebp]
  00480	52		 push	 edx
  00481	e8 00 00 00 00	 call	 ?StockFontBuffer@@YAHHHDHPADH@Z ; StockFontBuffer
  00486	83 c4 18	 add	 esp, 24			; 00000018H

; 1303 : 										break;

  00489	eb 05		 jmp	 SHORT $LN48@BattleButt
$LN51@BattleButt:

; 1304 : 									}
; 1305 : 								}

  0048b	e9 84 fe ff ff	 jmp	 $LN8@BattleButt
$LN48@BattleButt:

; 1306 : 							}
; 1307 : 
; 1308 : 							if( mouse.onceState & MOUSE_LEFT_DBL_CRICK ){

  00490	a1 2c 00 00 00	 mov	 eax, DWORD PTR ?mouse@@3UMOUSE@@A+44
  00495	83 e0 10	 and	 eax, 16			; 00000010H
  00498	0f 84 8a 07 00
	00		 je	 $LN47@BattleButt

; 1309 : 
; 1310 : 								if( pc.item[ i ].useFlag == TRUE ){

  0049e	69 45 f4 7c 01
	00 00		 imul	 eax, DWORD PTR _i$[ebp], 380
  004a5	0f bf 88 a0 01
	00 00		 movsx	 ecx, WORD PTR ?pc@@3UPC@@A[eax+416]
  004ac	83 f9 01	 cmp	 ecx, 1
  004af	0f 85 73 07 00
	00		 jne	 $LN47@BattleButt

; 1311 : 
; 1312 : 									if( pc.item[ i ].useFlag != TRUE || pc.item[ i ].field == ITEM_FIELD_MAP ||  pc.transmigration == 0 && pc.level < pc.item[ i ].level ){

  004b5	69 45 f4 7c 01
	00 00		 imul	 eax, DWORD PTR _i$[ebp], 380
  004bc	0f bf 88 a0 01
	00 00		 movsx	 ecx, WORD PTR ?pc@@3UPC@@A[eax+416]
  004c3	83 f9 01	 cmp	 ecx, 1
  004c6	75 33		 jne	 SHORT $LN58@BattleButt
  004c8	69 45 f4 7c 01
	00 00		 imul	 eax, DWORD PTR _i$[ebp], 380
  004cf	0f bf 88 a2 01
	00 00		 movsx	 ecx, WORD PTR ?pc@@3UPC@@A[eax+418]
  004d6	83 f9 02	 cmp	 ecx, 2
  004d9	74 20		 je	 SHORT $LN58@BattleButt
  004db	0f bf 05 f4 50
	00 00		 movsx	 eax, WORD PTR ?pc@@3UPC@@A+20724
  004e2	85 c0		 test	 eax, eax
  004e4	75 35		 jne	 SHORT $_aa$115
  004e6	69 45 f4 7c 01
	00 00		 imul	 eax, DWORD PTR _i$[ebp], 380
  004ed	8b 0d 38 00 00
	00		 mov	 ecx, DWORD PTR ?pc@@3UPC@@A+56
  004f3	3b 88 cc 00 00
	00		 cmp	 ecx, DWORD PTR ?pc@@3UPC@@A[eax+204]
  004f9	7d 20		 jge	 SHORT $_aa$115
$LN58@BattleButt:

; 1313 : 										//JL fix 战斗换装备  服务端不支持，不修了
; 1314 : 										goto _aa;

  004fb	eb 1e		 jmp	 SHORT $_aa$115
  004fd	eb 1c		 jmp	 SHORT $_aa$115

; 1315 : 										play_se( 220, 320, 240 );

  004ff	68 f0 00 00 00	 push	 240			; 000000f0H
  00504	68 40 01 00 00	 push	 320			; 00000140H
  00509	68 dc 00 00 00	 push	 220			; 000000dcH
  0050e	e8 00 00 00 00	 call	 ?play_se@@YAHHHH@Z	; play_se
  00513	83 c4 0c	 add	 esp, 12			; 0000000cH

; 1316 : 									}else{

  00516	e9 0d 07 00 00	 jmp	 $LN47@BattleButt
$_aa$115:

; 1317 : 										_aa:
; 1318 : 										BattleItemNo = i;

  0051b	8b 45 f4	 mov	 eax, DWORD PTR _i$[ebp]
  0051e	a3 00 00 00 00	 mov	 DWORD PTR ?BattleItemNo@@3HA, eax ; BattleItemNo

; 1319 : 
; 1320 : 										switch( pc.item[ i ].target ){

  00523	69 45 f4 7c 01
	00 00		 imul	 eax, DWORD PTR _i$[ebp], 380
  0052a	0f bf 88 a4 01
	00 00		 movsx	 ecx, WORD PTR ?pc@@3UPC@@A[eax+420]
  00531	89 8d c4 fd ff
	ff		 mov	 DWORD PTR tv280[ebp], ecx
  00537	83 bd c4 fd ff
	ff 08		 cmp	 DWORD PTR tv280[ebp], 8
  0053e	0f 87 e2 06 00
	00		 ja	 $LN10@BattleButt
  00544	8b 95 c4 fd ff
	ff		 mov	 edx, DWORD PTR tv280[ebp]
  0054a	ff 24 95 00 00
	00 00		 jmp	 DWORD PTR $LN114@BattleButt[edx*4]
$LN60@BattleButt:

; 1321 : 										case ITEM_TARGET_MYSELF:
; 1322 : 
; 1323 : 											p_party[ BattleMyNo ]->atr |= ACT_ATR_HIT_BOX;

  00551	a1 00 00 00 00	 mov	 eax, DWORD PTR ?BattleMyNo@@3HA ; BattleMyNo
  00556	8b 0c 85 00 00
	00 00		 mov	 ecx, DWORD PTR ?p_party@@3PAPAUaction@@A[eax*4]
  0055d	8b 91 a4 00 00
	00		 mov	 edx, DWORD PTR [ecx+164]
  00563	83 ca 08	 or	 edx, 8
  00566	a1 00 00 00 00	 mov	 eax, DWORD PTR ?BattleMyNo@@3HA ; BattleMyNo
  0056b	8b 0c 85 00 00
	00 00		 mov	 ecx, DWORD PTR ?p_party@@3PAPAUaction@@A[eax*4]
  00572	89 91 a4 00 00
	00		 mov	 DWORD PTR [ecx+164], edx

; 1324 : 
; 1325 : 											battleTargetSelectFlag = TRUE;

  00578	c7 05 00 00 00
	00 01 00 00 00	 mov	 DWORD PTR ?battleTargetSelectFlag@@3HA, 1

; 1326 : 
; 1327 : 											DeathAction( pActWnd );

  00582	a1 00 00 00 00	 mov	 eax, DWORD PTR ?pActWnd@@3PAUaction@@A
  00587	50		 push	 eax
  00588	e8 00 00 00 00	 call	 ?DeathAction@@YAXPAUaction@@@Z ; DeathAction
  0058d	83 c4 04	 add	 esp, 4

; 1328 : 											pActWnd = NULL;

  00590	c7 05 00 00 00
	00 00 00 00 00	 mov	 DWORD PTR ?pActWnd@@3PAUaction@@A, 0

; 1329 : 
; 1330 : 											ClearBattleButton();

  0059a	e8 00 00 00 00	 call	 ?ClearBattleButton@@YAXXZ ; ClearBattleButton

; 1331 : 
; 1332 : 											BattleCmdNo = BATTLE_ITEM;

  0059f	c7 05 00 00 00
	00 03 00 00 00	 mov	 DWORD PTR ?BattleCmdNo@@3HA, 3 ; BattleCmdNo

; 1333 : 
; 1334 : 											play_se( 217, 320, 240 );

  005a9	68 f0 00 00 00	 push	 240			; 000000f0H
  005ae	68 40 01 00 00	 push	 320			; 00000140H
  005b3	68 d9 00 00 00	 push	 217			; 000000d9H
  005b8	e8 00 00 00 00	 call	 ?play_se@@YAHHHH@Z	; play_se
  005bd	83 c4 0c	 add	 esp, 12			; 0000000cH

; 1335 : 											break;

  005c0	e9 61 06 00 00	 jmp	 $LN10@BattleButt
$LN61@BattleButt:

; 1336 : 											
; 1337 : 										case ITEM_TARGET_OTHER:
; 1338 : 
; 1339 : 											for( i = 0 ; i < 20 ; i++ ){

  005c5	c7 45 f4 00 00
	00 00		 mov	 DWORD PTR _i$[ebp], 0
  005cc	eb 09		 jmp	 SHORT $LN14@BattleButt
$LN12@BattleButt:
  005ce	8b 45 f4	 mov	 eax, DWORD PTR _i$[ebp]
  005d1	83 c0 01	 add	 eax, 1
  005d4	89 45 f4	 mov	 DWORD PTR _i$[ebp], eax
$LN14@BattleButt:
  005d7	83 7d f4 14	 cmp	 DWORD PTR _i$[ebp], 20	; 00000014H
  005db	7d 5e		 jge	 SHORT $LN13@BattleButt

; 1340 : 
; 1341 : 												if( p_party[ i ]->func == NULL ) continue;

  005dd	8b 45 f4	 mov	 eax, DWORD PTR _i$[ebp]
  005e0	8b 0c 85 00 00
	00 00		 mov	 ecx, DWORD PTR ?p_party@@3PAPAUaction@@A[eax*4]
  005e7	83 79 08 00	 cmp	 DWORD PTR [ecx+8], 0
  005eb	75 02		 jne	 SHORT $LN62@BattleButt
  005ed	eb df		 jmp	 SHORT $LN12@BattleButt
$LN62@BattleButt:

; 1342 : 
; 1343 : 												if( pc.item[ BattleItemNo ].deadTargetFlag == FALSE ) if( p_party[ i ]->hp <= 0 ) continue;

  005ef	69 05 00 00 00
	00 7c 01 00 00	 imul	 eax, DWORD PTR ?BattleItemNo@@3HA, 380 ; BattleItemNo
  005f9	0f bf 88 a6 01
	00 00		 movsx	 ecx, WORD PTR ?pc@@3UPC@@A[eax+422]
  00600	85 c9		 test	 ecx, ecx
  00602	75 12		 jne	 SHORT $LN63@BattleButt
  00604	8b 45 f4	 mov	 eax, DWORD PTR _i$[ebp]
  00607	8b 0c 85 00 00
	00 00		 mov	 ecx, DWORD PTR ?p_party@@3PAPAUaction@@A[eax*4]
  0060e	83 79 78 00	 cmp	 DWORD PTR [ecx+120], 0
  00612	7f 02		 jg	 SHORT $LN63@BattleButt
  00614	eb b8		 jmp	 SHORT $LN12@BattleButt
$LN63@BattleButt:

; 1344 : 
; 1345 : 												p_party[ i ]->atr |= ACT_ATR_HIT_BOX;

  00616	8b 45 f4	 mov	 eax, DWORD PTR _i$[ebp]
  00619	8b 0c 85 00 00
	00 00		 mov	 ecx, DWORD PTR ?p_party@@3PAPAUaction@@A[eax*4]
  00620	8b 91 a4 00 00
	00		 mov	 edx, DWORD PTR [ecx+164]
  00626	83 ca 08	 or	 edx, 8
  00629	8b 45 f4	 mov	 eax, DWORD PTR _i$[ebp]
  0062c	8b 0c 85 00 00
	00 00		 mov	 ecx, DWORD PTR ?p_party@@3PAPAUaction@@A[eax*4]
  00633	89 91 a4 00 00
	00		 mov	 DWORD PTR [ecx+164], edx

; 1346 : 											}

  00639	eb 93		 jmp	 SHORT $LN12@BattleButt
$LN13@BattleButt:

; 1347 : 
; 1348 : 											battleTargetSelectFlag = TRUE;

  0063b	c7 05 00 00 00
	00 01 00 00 00	 mov	 DWORD PTR ?battleTargetSelectFlag@@3HA, 1

; 1349 : 
; 1350 : 											DeathAction( pActWnd );

  00645	a1 00 00 00 00	 mov	 eax, DWORD PTR ?pActWnd@@3PAUaction@@A
  0064a	50		 push	 eax
  0064b	e8 00 00 00 00	 call	 ?DeathAction@@YAXPAUaction@@@Z ; DeathAction
  00650	83 c4 04	 add	 esp, 4

; 1351 : 											pActWnd = NULL;

  00653	c7 05 00 00 00
	00 00 00 00 00	 mov	 DWORD PTR ?pActWnd@@3PAUaction@@A, 0

; 1352 : 
; 1353 : 											ClearBattleButton();

  0065d	e8 00 00 00 00	 call	 ?ClearBattleButton@@YAXXZ ; ClearBattleButton

; 1354 : 
; 1355 : 											BattleCmdNo = BATTLE_ITEM;

  00662	c7 05 00 00 00
	00 03 00 00 00	 mov	 DWORD PTR ?BattleCmdNo@@3HA, 3 ; BattleCmdNo

; 1356 : 
; 1357 : 											play_se( 217, 320, 240 );

  0066c	68 f0 00 00 00	 push	 240			; 000000f0H
  00671	68 40 01 00 00	 push	 320			; 00000140H
  00676	68 d9 00 00 00	 push	 217			; 000000d9H
  0067b	e8 00 00 00 00	 call	 ?play_se@@YAHHHH@Z	; play_se
  00680	83 c4 0c	 add	 esp, 12			; 0000000cH

; 1358 : 											break;

  00683	e9 9e 05 00 00	 jmp	 $LN10@BattleButt
$LN65@BattleButt:

; 1359 : 											
; 1360 : 										case ITEM_TARGET_ALLMYSIDE:
; 1361 : 
; 1362 : 											if( BattleMyNo < 10 ){

  00688	83 3d 00 00 00
	00 0a		 cmp	 DWORD PTR ?BattleMyNo@@3HA, 10 ; BattleMyNo, 0000000aH
  0068f	7d 7b		 jge	 SHORT $LN66@BattleButt

; 1363 : 
; 1364 : 												for( i = 0 ; i < 10 ; i++ ){

  00691	c7 45 f4 00 00
	00 00		 mov	 DWORD PTR _i$[ebp], 0
  00698	eb 09		 jmp	 SHORT $LN17@BattleButt
$LN15@BattleButt:
  0069a	8b 45 f4	 mov	 eax, DWORD PTR _i$[ebp]
  0069d	83 c0 01	 add	 eax, 1
  006a0	89 45 f4	 mov	 DWORD PTR _i$[ebp], eax
$LN17@BattleButt:
  006a3	83 7d f4 0a	 cmp	 DWORD PTR _i$[ebp], 10	; 0000000aH
  006a7	7d 61		 jge	 SHORT $LN16@BattleButt

; 1365 : 
; 1366 : 													if( p_party[ i ]->func == NULL ) continue;

  006a9	8b 45 f4	 mov	 eax, DWORD PTR _i$[ebp]
  006ac	8b 0c 85 00 00
	00 00		 mov	 ecx, DWORD PTR ?p_party@@3PAPAUaction@@A[eax*4]
  006b3	83 79 08 00	 cmp	 DWORD PTR [ecx+8], 0
  006b7	75 02		 jne	 SHORT $LN68@BattleButt
  006b9	eb df		 jmp	 SHORT $LN15@BattleButt
$LN68@BattleButt:

; 1367 : 
; 1368 : 													if( pc.item[ BattleItemNo ].deadTargetFlag == FALSE ) if( p_party[ i ]->hp <= 0 ) continue;

  006bb	69 05 00 00 00
	00 7c 01 00 00	 imul	 eax, DWORD PTR ?BattleItemNo@@3HA, 380 ; BattleItemNo
  006c5	0f bf 88 a6 01
	00 00		 movsx	 ecx, WORD PTR ?pc@@3UPC@@A[eax+422]
  006cc	85 c9		 test	 ecx, ecx
  006ce	75 12		 jne	 SHORT $LN69@BattleButt
  006d0	8b 45 f4	 mov	 eax, DWORD PTR _i$[ebp]
  006d3	8b 0c 85 00 00
	00 00		 mov	 ecx, DWORD PTR ?p_party@@3PAPAUaction@@A[eax*4]
  006da	83 79 78 00	 cmp	 DWORD PTR [ecx+120], 0
  006de	7f 02		 jg	 SHORT $LN69@BattleButt
  006e0	eb b8		 jmp	 SHORT $LN15@BattleButt
$LN69@BattleButt:

; 1369 : 
; 1370 : 													p_party[ i ]->atr |= ACT_ATR_HIT_BOX_ALL1;

  006e2	8b 45 f4	 mov	 eax, DWORD PTR _i$[ebp]
  006e5	8b 0c 85 00 00
	00 00		 mov	 ecx, DWORD PTR ?p_party@@3PAPAUaction@@A[eax*4]
  006ec	8b 91 a4 00 00
	00		 mov	 edx, DWORD PTR [ecx+164]
  006f2	81 ca 00 20 00
	00		 or	 edx, 8192		; 00002000H
  006f8	8b 45 f4	 mov	 eax, DWORD PTR _i$[ebp]
  006fb	8b 0c 85 00 00
	00 00		 mov	 ecx, DWORD PTR ?p_party@@3PAPAUaction@@A[eax*4]
  00702	89 91 a4 00 00
	00		 mov	 DWORD PTR [ecx+164], edx

; 1371 : 												}

  00708	eb 90		 jmp	 SHORT $LN15@BattleButt
$LN16@BattleButt:

; 1372 : 											}
; 1373 : 
; 1374 : 											else{

  0070a	eb 79		 jmp	 SHORT $LN67@BattleButt
$LN66@BattleButt:

; 1375 : 
; 1376 : 												for( i = 10 ; i < 20 ; i++ ){

  0070c	c7 45 f4 0a 00
	00 00		 mov	 DWORD PTR _i$[ebp], 10	; 0000000aH
  00713	eb 09		 jmp	 SHORT $LN20@BattleButt
$LN18@BattleButt:
  00715	8b 45 f4	 mov	 eax, DWORD PTR _i$[ebp]
  00718	83 c0 01	 add	 eax, 1
  0071b	89 45 f4	 mov	 DWORD PTR _i$[ebp], eax
$LN20@BattleButt:
  0071e	83 7d f4 14	 cmp	 DWORD PTR _i$[ebp], 20	; 00000014H
  00722	7d 61		 jge	 SHORT $LN67@BattleButt

; 1377 : 
; 1378 : 													if( p_party[ i ]->func == NULL ) continue;

  00724	8b 45 f4	 mov	 eax, DWORD PTR _i$[ebp]
  00727	8b 0c 85 00 00
	00 00		 mov	 ecx, DWORD PTR ?p_party@@3PAPAUaction@@A[eax*4]
  0072e	83 79 08 00	 cmp	 DWORD PTR [ecx+8], 0
  00732	75 02		 jne	 SHORT $LN71@BattleButt
  00734	eb df		 jmp	 SHORT $LN18@BattleButt
$LN71@BattleButt:

; 1379 : 
; 1380 : 													if( pc.item[ BattleItemNo ].deadTargetFlag == FALSE ) if( p_party[ i ]->hp <= 0 ) continue;

  00736	69 05 00 00 00
	00 7c 01 00 00	 imul	 eax, DWORD PTR ?BattleItemNo@@3HA, 380 ; BattleItemNo
  00740	0f bf 88 a6 01
	00 00		 movsx	 ecx, WORD PTR ?pc@@3UPC@@A[eax+422]
  00747	85 c9		 test	 ecx, ecx
  00749	75 12		 jne	 SHORT $LN72@BattleButt
  0074b	8b 45 f4	 mov	 eax, DWORD PTR _i$[ebp]
  0074e	8b 0c 85 00 00
	00 00		 mov	 ecx, DWORD PTR ?p_party@@3PAPAUaction@@A[eax*4]
  00755	83 79 78 00	 cmp	 DWORD PTR [ecx+120], 0
  00759	7f 02		 jg	 SHORT $LN72@BattleButt
  0075b	eb b8		 jmp	 SHORT $LN18@BattleButt
$LN72@BattleButt:

; 1381 : 
; 1382 : 													p_party[ i ]->atr |= ACT_ATR_HIT_BOX_ALL2;

  0075d	8b 45 f4	 mov	 eax, DWORD PTR _i$[ebp]
  00760	8b 0c 85 00 00
	00 00		 mov	 ecx, DWORD PTR ?p_party@@3PAPAUaction@@A[eax*4]
  00767	8b 91 a4 00 00
	00		 mov	 edx, DWORD PTR [ecx+164]
  0076d	81 ca 00 40 00
	00		 or	 edx, 16384		; 00004000H
  00773	8b 45 f4	 mov	 eax, DWORD PTR _i$[ebp]
  00776	8b 0c 85 00 00
	00 00		 mov	 ecx, DWORD PTR ?p_party@@3PAPAUaction@@A[eax*4]
  0077d	89 91 a4 00 00
	00		 mov	 DWORD PTR [ecx+164], edx

; 1383 : 												}

  00783	eb 90		 jmp	 SHORT $LN18@BattleButt
$LN67@BattleButt:

; 1384 : 											}
; 1385 : 
; 1386 : 											battleTargetSelectFlag = TRUE;

  00785	c7 05 00 00 00
	00 01 00 00 00	 mov	 DWORD PTR ?battleTargetSelectFlag@@3HA, 1

; 1387 : 
; 1388 : 											DeathAction( pActWnd );

  0078f	a1 00 00 00 00	 mov	 eax, DWORD PTR ?pActWnd@@3PAUaction@@A
  00794	50		 push	 eax
  00795	e8 00 00 00 00	 call	 ?DeathAction@@YAXPAUaction@@@Z ; DeathAction
  0079a	83 c4 04	 add	 esp, 4

; 1389 : 											pActWnd = NULL;

  0079d	c7 05 00 00 00
	00 00 00 00 00	 mov	 DWORD PTR ?pActWnd@@3PAUaction@@A, 0

; 1390 : 
; 1391 : 											ClearBattleButton();

  007a7	e8 00 00 00 00	 call	 ?ClearBattleButton@@YAXXZ ; ClearBattleButton

; 1392 : 
; 1393 : 											BattleCmdNo = BATTLE_ITEM;

  007ac	c7 05 00 00 00
	00 03 00 00 00	 mov	 DWORD PTR ?BattleCmdNo@@3HA, 3 ; BattleCmdNo

; 1394 : 
; 1395 : 											play_se( 217, 320, 240 );

  007b6	68 f0 00 00 00	 push	 240			; 000000f0H
  007bb	68 40 01 00 00	 push	 320			; 00000140H
  007c0	68 d9 00 00 00	 push	 217			; 000000d9H
  007c5	e8 00 00 00 00	 call	 ?play_se@@YAHHHH@Z	; play_se
  007ca	83 c4 0c	 add	 esp, 12			; 0000000cH

; 1396 : 											break;

  007cd	e9 54 04 00 00	 jmp	 $LN10@BattleButt
$LN74@BattleButt:

; 1397 : 											
; 1398 : 										case ITEM_TARGET_ALLOTHERSIDE:
; 1399 : 
; 1400 : 											if( BattleMyNo >= 10 ){

  007d2	83 3d 00 00 00
	00 0a		 cmp	 DWORD PTR ?BattleMyNo@@3HA, 10 ; BattleMyNo, 0000000aH
  007d9	7c 7b		 jl	 SHORT $LN75@BattleButt

; 1401 : 
; 1402 : 												for( i = 0 ; i < 10 ; i++ ){

  007db	c7 45 f4 00 00
	00 00		 mov	 DWORD PTR _i$[ebp], 0
  007e2	eb 09		 jmp	 SHORT $LN23@BattleButt
$LN21@BattleButt:
  007e4	8b 45 f4	 mov	 eax, DWORD PTR _i$[ebp]
  007e7	83 c0 01	 add	 eax, 1
  007ea	89 45 f4	 mov	 DWORD PTR _i$[ebp], eax
$LN23@BattleButt:
  007ed	83 7d f4 0a	 cmp	 DWORD PTR _i$[ebp], 10	; 0000000aH
  007f1	7d 61		 jge	 SHORT $LN22@BattleButt

; 1403 : 
; 1404 : 													if( p_party[ i ]->func == NULL ) continue;

  007f3	8b 45 f4	 mov	 eax, DWORD PTR _i$[ebp]
  007f6	8b 0c 85 00 00
	00 00		 mov	 ecx, DWORD PTR ?p_party@@3PAPAUaction@@A[eax*4]
  007fd	83 79 08 00	 cmp	 DWORD PTR [ecx+8], 0
  00801	75 02		 jne	 SHORT $LN77@BattleButt
  00803	eb df		 jmp	 SHORT $LN21@BattleButt
$LN77@BattleButt:

; 1405 : 
; 1406 : 													if( pc.item[ BattleItemNo ].deadTargetFlag == FALSE ) if( p_party[ i ]->hp <= 0 ) continue;

  00805	69 05 00 00 00
	00 7c 01 00 00	 imul	 eax, DWORD PTR ?BattleItemNo@@3HA, 380 ; BattleItemNo
  0080f	0f bf 88 a6 01
	00 00		 movsx	 ecx, WORD PTR ?pc@@3UPC@@A[eax+422]
  00816	85 c9		 test	 ecx, ecx
  00818	75 12		 jne	 SHORT $LN78@BattleButt
  0081a	8b 45 f4	 mov	 eax, DWORD PTR _i$[ebp]
  0081d	8b 0c 85 00 00
	00 00		 mov	 ecx, DWORD PTR ?p_party@@3PAPAUaction@@A[eax*4]
  00824	83 79 78 00	 cmp	 DWORD PTR [ecx+120], 0
  00828	7f 02		 jg	 SHORT $LN78@BattleButt
  0082a	eb b8		 jmp	 SHORT $LN21@BattleButt
$LN78@BattleButt:

; 1407 : 
; 1408 : 													p_party[ i ]->atr |= ACT_ATR_HIT_BOX_ALL1;

  0082c	8b 45 f4	 mov	 eax, DWORD PTR _i$[ebp]
  0082f	8b 0c 85 00 00
	00 00		 mov	 ecx, DWORD PTR ?p_party@@3PAPAUaction@@A[eax*4]
  00836	8b 91 a4 00 00
	00		 mov	 edx, DWORD PTR [ecx+164]
  0083c	81 ca 00 20 00
	00		 or	 edx, 8192		; 00002000H
  00842	8b 45 f4	 mov	 eax, DWORD PTR _i$[ebp]
  00845	8b 0c 85 00 00
	00 00		 mov	 ecx, DWORD PTR ?p_party@@3PAPAUaction@@A[eax*4]
  0084c	89 91 a4 00 00
	00		 mov	 DWORD PTR [ecx+164], edx

; 1409 : 												}

  00852	eb 90		 jmp	 SHORT $LN21@BattleButt
$LN22@BattleButt:

; 1410 : 											}else{

  00854	eb 79		 jmp	 SHORT $LN76@BattleButt
$LN75@BattleButt:

; 1411 : 
; 1412 : 												for( i = 10 ; i < 20 ; i++ ){

  00856	c7 45 f4 0a 00
	00 00		 mov	 DWORD PTR _i$[ebp], 10	; 0000000aH
  0085d	eb 09		 jmp	 SHORT $LN26@BattleButt
$LN24@BattleButt:
  0085f	8b 45 f4	 mov	 eax, DWORD PTR _i$[ebp]
  00862	83 c0 01	 add	 eax, 1
  00865	89 45 f4	 mov	 DWORD PTR _i$[ebp], eax
$LN26@BattleButt:
  00868	83 7d f4 14	 cmp	 DWORD PTR _i$[ebp], 20	; 00000014H
  0086c	7d 61		 jge	 SHORT $LN76@BattleButt

; 1413 : 
; 1414 : 													if( p_party[ i ]->func == NULL ) continue;

  0086e	8b 45 f4	 mov	 eax, DWORD PTR _i$[ebp]
  00871	8b 0c 85 00 00
	00 00		 mov	 ecx, DWORD PTR ?p_party@@3PAPAUaction@@A[eax*4]
  00878	83 79 08 00	 cmp	 DWORD PTR [ecx+8], 0
  0087c	75 02		 jne	 SHORT $LN80@BattleButt
  0087e	eb df		 jmp	 SHORT $LN24@BattleButt
$LN80@BattleButt:

; 1415 : 
; 1416 : 													if( pc.item[ BattleItemNo ].deadTargetFlag == FALSE ) if( p_party[ i ]->hp <= 0 ) continue;

  00880	69 05 00 00 00
	00 7c 01 00 00	 imul	 eax, DWORD PTR ?BattleItemNo@@3HA, 380 ; BattleItemNo
  0088a	0f bf 88 a6 01
	00 00		 movsx	 ecx, WORD PTR ?pc@@3UPC@@A[eax+422]
  00891	85 c9		 test	 ecx, ecx
  00893	75 12		 jne	 SHORT $LN81@BattleButt
  00895	8b 45 f4	 mov	 eax, DWORD PTR _i$[ebp]
  00898	8b 0c 85 00 00
	00 00		 mov	 ecx, DWORD PTR ?p_party@@3PAPAUaction@@A[eax*4]
  0089f	83 79 78 00	 cmp	 DWORD PTR [ecx+120], 0
  008a3	7f 02		 jg	 SHORT $LN81@BattleButt
  008a5	eb b8		 jmp	 SHORT $LN24@BattleButt
$LN81@BattleButt:

; 1417 : 
; 1418 : 													p_party[ i ]->atr |= ACT_ATR_HIT_BOX_ALL2;

  008a7	8b 45 f4	 mov	 eax, DWORD PTR _i$[ebp]
  008aa	8b 0c 85 00 00
	00 00		 mov	 ecx, DWORD PTR ?p_party@@3PAPAUaction@@A[eax*4]
  008b1	8b 91 a4 00 00
	00		 mov	 edx, DWORD PTR [ecx+164]
  008b7	81 ca 00 40 00
	00		 or	 edx, 16384		; 00004000H
  008bd	8b 45 f4	 mov	 eax, DWORD PTR _i$[ebp]
  008c0	8b 0c 85 00 00
	00 00		 mov	 ecx, DWORD PTR ?p_party@@3PAPAUaction@@A[eax*4]
  008c7	89 91 a4 00 00
	00		 mov	 DWORD PTR [ecx+164], edx

; 1419 : 												}

  008cd	eb 90		 jmp	 SHORT $LN24@BattleButt
$LN76@BattleButt:

; 1420 : 											}
; 1421 : 
; 1422 : 											battleTargetSelectFlag = TRUE;

  008cf	c7 05 00 00 00
	00 01 00 00 00	 mov	 DWORD PTR ?battleTargetSelectFlag@@3HA, 1

; 1423 : 
; 1424 : 											DeathAction( pActWnd );

  008d9	a1 00 00 00 00	 mov	 eax, DWORD PTR ?pActWnd@@3PAUaction@@A
  008de	50		 push	 eax
  008df	e8 00 00 00 00	 call	 ?DeathAction@@YAXPAUaction@@@Z ; DeathAction
  008e4	83 c4 04	 add	 esp, 4

; 1425 : 											pActWnd = NULL;

  008e7	c7 05 00 00 00
	00 00 00 00 00	 mov	 DWORD PTR ?pActWnd@@3PAUaction@@A, 0

; 1426 : 
; 1427 : 											ClearBattleButton();

  008f1	e8 00 00 00 00	 call	 ?ClearBattleButton@@YAXXZ ; ClearBattleButton

; 1428 : 
; 1429 : 											BattleCmdNo = BATTLE_ITEM;

  008f6	c7 05 00 00 00
	00 03 00 00 00	 mov	 DWORD PTR ?BattleCmdNo@@3HA, 3 ; BattleCmdNo

; 1430 : 
; 1431 : 											play_se( 217, 320, 240 );

  00900	68 f0 00 00 00	 push	 240			; 000000f0H
  00905	68 40 01 00 00	 push	 320			; 00000140H
  0090a	68 d9 00 00 00	 push	 217			; 000000d9H
  0090f	e8 00 00 00 00	 call	 ?play_se@@YAHHHH@Z	; play_se
  00914	83 c4 0c	 add	 esp, 12			; 0000000cH

; 1432 : 											break;

  00917	e9 0a 03 00 00	 jmp	 $LN10@BattleButt
$LN83@BattleButt:

; 1433 : 										
; 1434 : 										case ITEM_TARGET_ALL:
; 1435 : 
; 1436 : 											for( i = 0 ; i < 20 ; i++ ){

  0091c	c7 45 f4 00 00
	00 00		 mov	 DWORD PTR _i$[ebp], 0
  00923	eb 09		 jmp	 SHORT $LN29@BattleButt
$LN27@BattleButt:
  00925	8b 45 f4	 mov	 eax, DWORD PTR _i$[ebp]
  00928	83 c0 01	 add	 eax, 1
  0092b	89 45 f4	 mov	 DWORD PTR _i$[ebp], eax
$LN29@BattleButt:
  0092e	83 7d f4 14	 cmp	 DWORD PTR _i$[ebp], 20	; 00000014H
  00932	7d 61		 jge	 SHORT $LN28@BattleButt

; 1437 : 
; 1438 : 												if( p_party[ i ]->func == NULL ) continue;

  00934	8b 45 f4	 mov	 eax, DWORD PTR _i$[ebp]
  00937	8b 0c 85 00 00
	00 00		 mov	 ecx, DWORD PTR ?p_party@@3PAPAUaction@@A[eax*4]
  0093e	83 79 08 00	 cmp	 DWORD PTR [ecx+8], 0
  00942	75 02		 jne	 SHORT $LN84@BattleButt
  00944	eb df		 jmp	 SHORT $LN27@BattleButt
$LN84@BattleButt:

; 1439 : 
; 1440 : 												if( pc.item[ BattleItemNo ].deadTargetFlag == FALSE ) if( p_party[ i ]->hp <= 0 ) continue;

  00946	69 05 00 00 00
	00 7c 01 00 00	 imul	 eax, DWORD PTR ?BattleItemNo@@3HA, 380 ; BattleItemNo
  00950	0f bf 88 a6 01
	00 00		 movsx	 ecx, WORD PTR ?pc@@3UPC@@A[eax+422]
  00957	85 c9		 test	 ecx, ecx
  00959	75 12		 jne	 SHORT $LN85@BattleButt
  0095b	8b 45 f4	 mov	 eax, DWORD PTR _i$[ebp]
  0095e	8b 0c 85 00 00
	00 00		 mov	 ecx, DWORD PTR ?p_party@@3PAPAUaction@@A[eax*4]
  00965	83 79 78 00	 cmp	 DWORD PTR [ecx+120], 0
  00969	7f 02		 jg	 SHORT $LN85@BattleButt
  0096b	eb b8		 jmp	 SHORT $LN27@BattleButt
$LN85@BattleButt:

; 1441 : 
; 1442 : 												p_party[ i ]->atr |= ACT_ATR_HIT_BOX_ALL1;

  0096d	8b 45 f4	 mov	 eax, DWORD PTR _i$[ebp]
  00970	8b 0c 85 00 00
	00 00		 mov	 ecx, DWORD PTR ?p_party@@3PAPAUaction@@A[eax*4]
  00977	8b 91 a4 00 00
	00		 mov	 edx, DWORD PTR [ecx+164]
  0097d	81 ca 00 20 00
	00		 or	 edx, 8192		; 00002000H
  00983	8b 45 f4	 mov	 eax, DWORD PTR _i$[ebp]
  00986	8b 0c 85 00 00
	00 00		 mov	 ecx, DWORD PTR ?p_party@@3PAPAUaction@@A[eax*4]
  0098d	89 91 a4 00 00
	00		 mov	 DWORD PTR [ecx+164], edx

; 1443 : 											}

  00993	eb 90		 jmp	 SHORT $LN27@BattleButt
$LN28@BattleButt:

; 1444 : 
; 1445 : 											battleTargetSelectFlag = TRUE;

  00995	c7 05 00 00 00
	00 01 00 00 00	 mov	 DWORD PTR ?battleTargetSelectFlag@@3HA, 1

; 1446 : 
; 1447 : 											DeathAction( pActWnd );

  0099f	a1 00 00 00 00	 mov	 eax, DWORD PTR ?pActWnd@@3PAUaction@@A
  009a4	50		 push	 eax
  009a5	e8 00 00 00 00	 call	 ?DeathAction@@YAXPAUaction@@@Z ; DeathAction
  009aa	83 c4 04	 add	 esp, 4

; 1448 : 											pActWnd = NULL;

  009ad	c7 05 00 00 00
	00 00 00 00 00	 mov	 DWORD PTR ?pActWnd@@3PAUaction@@A, 0

; 1449 : 
; 1450 : 											ClearBattleButton();

  009b7	e8 00 00 00 00	 call	 ?ClearBattleButton@@YAXXZ ; ClearBattleButton

; 1451 : 
; 1452 : 											BattleCmdNo = BATTLE_ITEM;

  009bc	c7 05 00 00 00
	00 03 00 00 00	 mov	 DWORD PTR ?BattleCmdNo@@3HA, 3 ; BattleCmdNo

; 1453 : 
; 1454 : 											play_se( 217, 320, 240 );

  009c6	68 f0 00 00 00	 push	 240			; 000000f0H
  009cb	68 40 01 00 00	 push	 320			; 00000140H
  009d0	68 d9 00 00 00	 push	 217			; 000000d9H
  009d5	e8 00 00 00 00	 call	 ?play_se@@YAHHHH@Z	; play_se
  009da	83 c4 0c	 add	 esp, 12			; 0000000cH

; 1455 : 											break;

  009dd	e9 44 02 00 00	 jmp	 $LN10@BattleButt
$LN87@BattleButt:

; 1456 : 											
; 1457 : 										case ITEM_TARGET_NONE:
; 1458 : 
; 1459 : 											BattleButtonOff();

  009e2	e8 00 00 00 00	 call	 ?BattleButtonOff@@YAXXZ	; BattleButtonOff

; 1460 : 											battleMenuReturn = TRUE;

  009e7	c7 05 00 00 00
	00 01 00 00 00	 mov	 DWORD PTR ?battleMenuReturn@@3HA, 1

; 1461 : 
; 1462 : 											if( bNewServer)

  009f1	83 3d 00 00 00
	00 00		 cmp	 DWORD PTR ?bNewServer@@3HA, 0 ; bNewServer
  009f8	74 24		 je	 SHORT $LN88@BattleButt

; 1463 : 												lssproto_ID_send( sockfd, nowGx, nowGy, i, 0 );

  009fa	6a 00		 push	 0
  009fc	8b 45 f4	 mov	 eax, DWORD PTR _i$[ebp]
  009ff	50		 push	 eax
  00a00	8b 0d 00 00 00
	00		 mov	 ecx, DWORD PTR ?nowGy@@3HA ; nowGy
  00a06	51		 push	 ecx
  00a07	8b 15 00 00 00
	00		 mov	 edx, DWORD PTR ?nowGx@@3HA ; nowGx
  00a0d	52		 push	 edx
  00a0e	a1 00 00 00 00	 mov	 eax, DWORD PTR ?sockfd@@3IA ; sockfd
  00a13	50		 push	 eax
  00a14	e8 00 00 00 00	 call	 ?lssproto_ID_send@@YAXHHHHH@Z ; lssproto_ID_send
  00a19	83 c4 14	 add	 esp, 20			; 00000014H

; 1464 : 											else

  00a1c	eb 22		 jmp	 SHORT $LN89@BattleButt
$LN88@BattleButt:

; 1465 : 												old_lssproto_ID_send( sockfd, nowGx, nowGy, i, 0 );

  00a1e	6a 00		 push	 0
  00a20	8b 45 f4	 mov	 eax, DWORD PTR _i$[ebp]
  00a23	50		 push	 eax
  00a24	8b 0d 00 00 00
	00		 mov	 ecx, DWORD PTR ?nowGy@@3HA ; nowGy
  00a2a	51		 push	 ecx
  00a2b	8b 15 00 00 00
	00		 mov	 edx, DWORD PTR ?nowGx@@3HA ; nowGx
  00a31	52		 push	 edx
  00a32	a1 00 00 00 00	 mov	 eax, DWORD PTR ?sockfd@@3IA ; sockfd
  00a37	50		 push	 eax
  00a38	e8 00 00 00 00	 call	 ?old_lssproto_ID_send@@YAXHHHHH@Z ; old_lssproto_ID_send
  00a3d	83 c4 14	 add	 esp, 20			; 00000014H
$LN89@BattleButt:

; 1466 : 
; 1467 : 											play_se( 203, 320, 240 );

  00a40	68 f0 00 00 00	 push	 240			; 000000f0H
  00a45	68 40 01 00 00	 push	 320			; 00000140H
  00a4a	68 cb 00 00 00	 push	 203			; 000000cbH
  00a4f	e8 00 00 00 00	 call	 ?play_se@@YAHHHH@Z	; play_se
  00a54	83 c4 0c	 add	 esp, 12			; 0000000cH

; 1468 : 
; 1469 : 											battleTargetSelectFlag = FALSE;

  00a57	c7 05 00 00 00
	00 00 00 00 00	 mov	 DWORD PTR ?battleTargetSelectFlag@@3HA, 0

; 1470 : 											break;

  00a61	e9 c0 01 00 00	 jmp	 $LN10@BattleButt
$LN90@BattleButt:

; 1471 : 											
; 1472 : 										case ITEM_TARGET_OTHERWITHOUTMYSELF:
; 1473 : 
; 1474 : 											for( i = 0 ; i < 20 ; i++ ){

  00a66	c7 45 f4 00 00
	00 00		 mov	 DWORD PTR _i$[ebp], 0
  00a6d	eb 09		 jmp	 SHORT $LN32@BattleButt
$LN30@BattleButt:
  00a6f	8b 45 f4	 mov	 eax, DWORD PTR _i$[ebp]
  00a72	83 c0 01	 add	 eax, 1
  00a75	89 45 f4	 mov	 DWORD PTR _i$[ebp], eax
$LN32@BattleButt:
  00a78	83 7d f4 14	 cmp	 DWORD PTR _i$[ebp], 20	; 00000014H
  00a7c	7d 6b		 jge	 SHORT $LN31@BattleButt

; 1475 : 
; 1476 : 												if( p_party[ i ]->func == NULL ) continue;

  00a7e	8b 45 f4	 mov	 eax, DWORD PTR _i$[ebp]
  00a81	8b 0c 85 00 00
	00 00		 mov	 ecx, DWORD PTR ?p_party@@3PAPAUaction@@A[eax*4]
  00a88	83 79 08 00	 cmp	 DWORD PTR [ecx+8], 0
  00a8c	75 02		 jne	 SHORT $LN91@BattleButt
  00a8e	eb df		 jmp	 SHORT $LN30@BattleButt
$LN91@BattleButt:

; 1477 : 
; 1478 : 												if( i == BattleMyNo ) continue;

  00a90	8b 45 f4	 mov	 eax, DWORD PTR _i$[ebp]
  00a93	3b 05 00 00 00
	00		 cmp	 eax, DWORD PTR ?BattleMyNo@@3HA ; BattleMyNo
  00a99	75 02		 jne	 SHORT $LN92@BattleButt
  00a9b	eb d2		 jmp	 SHORT $LN30@BattleButt
$LN92@BattleButt:

; 1479 : 
; 1480 : 												if( pc.item[ BattleItemNo ].deadTargetFlag == FALSE ) if( p_party[ i ]->hp <= 0 ) continue;

  00a9d	69 05 00 00 00
	00 7c 01 00 00	 imul	 eax, DWORD PTR ?BattleItemNo@@3HA, 380 ; BattleItemNo
  00aa7	0f bf 88 a6 01
	00 00		 movsx	 ecx, WORD PTR ?pc@@3UPC@@A[eax+422]
  00aae	85 c9		 test	 ecx, ecx
  00ab0	75 12		 jne	 SHORT $LN93@BattleButt
  00ab2	8b 45 f4	 mov	 eax, DWORD PTR _i$[ebp]
  00ab5	8b 0c 85 00 00
	00 00		 mov	 ecx, DWORD PTR ?p_party@@3PAPAUaction@@A[eax*4]
  00abc	83 79 78 00	 cmp	 DWORD PTR [ecx+120], 0
  00ac0	7f 02		 jg	 SHORT $LN93@BattleButt
  00ac2	eb ab		 jmp	 SHORT $LN30@BattleButt
$LN93@BattleButt:

; 1481 : 
; 1482 : 												p_party[ i ]->atr |= ACT_ATR_HIT_BOX;

  00ac4	8b 45 f4	 mov	 eax, DWORD PTR _i$[ebp]
  00ac7	8b 0c 85 00 00
	00 00		 mov	 ecx, DWORD PTR ?p_party@@3PAPAUaction@@A[eax*4]
  00ace	8b 91 a4 00 00
	00		 mov	 edx, DWORD PTR [ecx+164]
  00ad4	83 ca 08	 or	 edx, 8
  00ad7	8b 45 f4	 mov	 eax, DWORD PTR _i$[ebp]
  00ada	8b 0c 85 00 00
	00 00		 mov	 ecx, DWORD PTR ?p_party@@3PAPAUaction@@A[eax*4]
  00ae1	89 91 a4 00 00
	00		 mov	 DWORD PTR [ecx+164], edx

; 1483 : 											}

  00ae7	eb 86		 jmp	 SHORT $LN30@BattleButt
$LN31@BattleButt:

; 1484 : 
; 1485 : 											battleTargetSelectFlag = TRUE;

  00ae9	c7 05 00 00 00
	00 01 00 00 00	 mov	 DWORD PTR ?battleTargetSelectFlag@@3HA, 1

; 1486 : 
; 1487 : 											DeathAction( pActWnd );

  00af3	a1 00 00 00 00	 mov	 eax, DWORD PTR ?pActWnd@@3PAUaction@@A
  00af8	50		 push	 eax
  00af9	e8 00 00 00 00	 call	 ?DeathAction@@YAXPAUaction@@@Z ; DeathAction
  00afe	83 c4 04	 add	 esp, 4

; 1488 : 											pActWnd = NULL;

  00b01	c7 05 00 00 00
	00 00 00 00 00	 mov	 DWORD PTR ?pActWnd@@3PAUaction@@A, 0

; 1489 : 	
; 1490 : 											ClearBattleButton();

  00b0b	e8 00 00 00 00	 call	 ?ClearBattleButton@@YAXXZ ; ClearBattleButton

; 1491 : 
; 1492 : 											BattleCmdNo = BATTLE_ITEM;

  00b10	c7 05 00 00 00
	00 03 00 00 00	 mov	 DWORD PTR ?BattleCmdNo@@3HA, 3 ; BattleCmdNo

; 1493 : 
; 1494 : 											play_se( 217, 320, 240 );

  00b1a	68 f0 00 00 00	 push	 240			; 000000f0H
  00b1f	68 40 01 00 00	 push	 320			; 00000140H
  00b24	68 d9 00 00 00	 push	 217			; 000000d9H
  00b29	e8 00 00 00 00	 call	 ?play_se@@YAHHHH@Z	; play_se
  00b2e	83 c4 0c	 add	 esp, 12			; 0000000cH

; 1495 : 											break;

  00b31	e9 f0 00 00 00	 jmp	 $LN10@BattleButt
$LN95@BattleButt:

; 1496 : 											
; 1497 : 										case ITEM_TARGET_WITHOUTMYSELFANDPET:
; 1498 : 
; 1499 : 											for( i = 0 ; i < 20 ; i++ ){

  00b36	c7 45 f4 00 00
	00 00		 mov	 DWORD PTR _i$[ebp], 0
  00b3d	eb 09		 jmp	 SHORT $LN35@BattleButt
$LN33@BattleButt:
  00b3f	8b 45 f4	 mov	 eax, DWORD PTR _i$[ebp]
  00b42	83 c0 01	 add	 eax, 1
  00b45	89 45 f4	 mov	 DWORD PTR _i$[ebp], eax
$LN35@BattleButt:
  00b48	83 7d f4 14	 cmp	 DWORD PTR _i$[ebp], 20	; 00000014H
  00b4c	7d 7d		 jge	 SHORT $LN34@BattleButt

; 1500 : 
; 1501 : 												if( p_party[ i ]->func == NULL ) continue;

  00b4e	8b 45 f4	 mov	 eax, DWORD PTR _i$[ebp]
  00b51	8b 0c 85 00 00
	00 00		 mov	 ecx, DWORD PTR ?p_party@@3PAPAUaction@@A[eax*4]
  00b58	83 79 08 00	 cmp	 DWORD PTR [ecx+8], 0
  00b5c	75 02		 jne	 SHORT $LN96@BattleButt
  00b5e	eb df		 jmp	 SHORT $LN33@BattleButt
$LN96@BattleButt:

; 1502 : 
; 1503 : 												if( i == BattleMyNo + 5 ) continue;

  00b60	a1 00 00 00 00	 mov	 eax, DWORD PTR ?BattleMyNo@@3HA ; BattleMyNo
  00b65	83 c0 05	 add	 eax, 5
  00b68	39 45 f4	 cmp	 DWORD PTR _i$[ebp], eax
  00b6b	75 02		 jne	 SHORT $LN97@BattleButt
  00b6d	eb d0		 jmp	 SHORT $LN33@BattleButt
$LN97@BattleButt:

; 1504 : 
; 1505 : 												if( i == BattleMyNo ) continue;

  00b6f	8b 45 f4	 mov	 eax, DWORD PTR _i$[ebp]
  00b72	3b 05 00 00 00
	00		 cmp	 eax, DWORD PTR ?BattleMyNo@@3HA ; BattleMyNo
  00b78	75 02		 jne	 SHORT $LN98@BattleButt
  00b7a	eb c3		 jmp	 SHORT $LN33@BattleButt
$LN98@BattleButt:

; 1506 : 
; 1507 : 												if( pc.item[ BattleItemNo ].deadTargetFlag == FALSE ) if( p_party[ i ]->hp <= 0 ) continue;

  00b7c	69 05 00 00 00
	00 7c 01 00 00	 imul	 eax, DWORD PTR ?BattleItemNo@@3HA, 380 ; BattleItemNo
  00b86	0f bf 88 a6 01
	00 00		 movsx	 ecx, WORD PTR ?pc@@3UPC@@A[eax+422]
  00b8d	85 c9		 test	 ecx, ecx
  00b8f	75 12		 jne	 SHORT $LN99@BattleButt
  00b91	8b 45 f4	 mov	 eax, DWORD PTR _i$[ebp]
  00b94	8b 0c 85 00 00
	00 00		 mov	 ecx, DWORD PTR ?p_party@@3PAPAUaction@@A[eax*4]
  00b9b	83 79 78 00	 cmp	 DWORD PTR [ecx+120], 0
  00b9f	7f 02		 jg	 SHORT $LN99@BattleButt
  00ba1	eb 9c		 jmp	 SHORT $LN33@BattleButt
$LN99@BattleButt:

; 1508 : 
; 1509 : 												p_party[ i ]->atr |= ACT_ATR_HIT_BOX;

  00ba3	8b 45 f4	 mov	 eax, DWORD PTR _i$[ebp]
  00ba6	8b 0c 85 00 00
	00 00		 mov	 ecx, DWORD PTR ?p_party@@3PAPAUaction@@A[eax*4]
  00bad	8b 91 a4 00 00
	00		 mov	 edx, DWORD PTR [ecx+164]
  00bb3	83 ca 08	 or	 edx, 8
  00bb6	8b 45 f4	 mov	 eax, DWORD PTR _i$[ebp]
  00bb9	8b 0c 85 00 00
	00 00		 mov	 ecx, DWORD PTR ?p_party@@3PAPAUaction@@A[eax*4]
  00bc0	89 91 a4 00 00
	00		 mov	 DWORD PTR [ecx+164], edx

; 1510 : 											}

  00bc6	e9 74 ff ff ff	 jmp	 $LN33@BattleButt
$LN34@BattleButt:

; 1511 : 
; 1512 : 											battleTargetSelectFlag = TRUE;

  00bcb	c7 05 00 00 00
	00 01 00 00 00	 mov	 DWORD PTR ?battleTargetSelectFlag@@3HA, 1

; 1513 : 
; 1514 : 											DeathAction( pActWnd );

  00bd5	a1 00 00 00 00	 mov	 eax, DWORD PTR ?pActWnd@@3PAUaction@@A
  00bda	50		 push	 eax
  00bdb	e8 00 00 00 00	 call	 ?DeathAction@@YAXPAUaction@@@Z ; DeathAction
  00be0	83 c4 04	 add	 esp, 4

; 1515 : 											pActWnd = NULL;

  00be3	c7 05 00 00 00
	00 00 00 00 00	 mov	 DWORD PTR ?pActWnd@@3PAUaction@@A, 0

; 1516 : 
; 1517 : 											ClearBattleButton();

  00bed	e8 00 00 00 00	 call	 ?ClearBattleButton@@YAXXZ ; ClearBattleButton

; 1518 : 
; 1519 : 											BattleCmdNo = BATTLE_ITEM;

  00bf2	c7 05 00 00 00
	00 03 00 00 00	 mov	 DWORD PTR ?BattleCmdNo@@3HA, 3 ; BattleCmdNo

; 1520 : 
; 1521 : 											play_se( 217, 320, 240 );

  00bfc	68 f0 00 00 00	 push	 240			; 000000f0H
  00c01	68 40 01 00 00	 push	 320			; 00000140H
  00c06	68 d9 00 00 00	 push	 217			; 000000d9H
  00c0b	e8 00 00 00 00	 call	 ?play_se@@YAHHHH@Z	; play_se
  00c10	83 c4 0c	 add	 esp, 12			; 0000000cH

; 1522 : 											break;

  00c13	eb 11		 jmp	 SHORT $LN10@BattleButt
$LN101@BattleButt:

; 1523 : #ifdef _PET_ITEM
; 1524 : 										case ITEM_TARGET_PET:	// 战斗中不可更换宠物装备
; 1525 : 											StockChatBufferLine("전투 중 애완동물 장비 교체 불가",FONT_PAL_RED);

  00c15	6a 00		 push	 0
  00c17	6a 06		 push	 6
  00c19	68 00 00 00 00	 push	 OFFSET ??_C@_0CA@ELBOPCEK@?$MA?$PM?E?u?5?A?$NP?5?$LO?V?$LP?O?$LF?$LP?$LJ?$LA?5?$MA?e?$LK?q?5?$LB?$LD?C?$LM?5?$LK?R?$LA?$KB?$AA@
  00c1e	e8 00 00 00 00	 call	 ?StockChatBufferLine@@YAXPADEH@Z ; StockChatBufferLine
  00c23	83 c4 0c	 add	 esp, 12			; 0000000cH
$LN10@BattleButt:

; 1526 : 											break;
; 1527 : #endif
; 1528 : 										}
; 1529 : 										break;

  00c26	eb 58		 jmp	 SHORT $LN6@BattleButt
$LN47@BattleButt:

; 1530 : 									}
; 1531 : 								}
; 1532 : 							}
; 1533 : 						}
; 1534 : 						if( pc.item[ i ].useFlag == TRUE ){

  00c28	69 45 f4 7c 01
	00 00		 imul	 eax, DWORD PTR _i$[ebp], 380
  00c2f	0f bf 88 a0 01
	00 00		 movsx	 ecx, WORD PTR ?pc@@3UPC@@A[eax+416]
  00c36	83 f9 01	 cmp	 ecx, 1
  00c39	75 40		 jne	 SHORT $LN102@BattleButt

; 1535 : 							StockDispBuffer( ItemBuffer[ i ].defX, ItemBuffer[ i ].defY, ItemBuffer[ i ].dispPrio, pc.item[ i ].graNo, 0 );

  00c3b	6a 00		 push	 0
  00c3d	69 45 f4 7c 01
	00 00		 imul	 eax, DWORD PTR _i$[ebp], 380
  00c44	8b 88 c8 00 00
	00		 mov	 ecx, DWORD PTR ?pc@@3UPC@@A[eax+200]
  00c4a	51		 push	 ecx
  00c4b	8b 55 f4	 mov	 edx, DWORD PTR _i$[ebp]
  00c4e	c1 e2 05	 shl	 edx, 5
  00c51	0f b6 82 14 00
	00 00		 movzx	 eax, BYTE PTR ?ItemBuffer@@3PAUITEM_BUFFER@@A[edx+20]
  00c58	50		 push	 eax
  00c59	8b 4d f4	 mov	 ecx, DWORD PTR _i$[ebp]
  00c5c	c1 e1 05	 shl	 ecx, 5
  00c5f	8b 91 0c 00 00
	00		 mov	 edx, DWORD PTR ?ItemBuffer@@3PAUITEM_BUFFER@@A[ecx+12]
  00c65	52		 push	 edx
  00c66	8b 45 f4	 mov	 eax, DWORD PTR _i$[ebp]
  00c69	c1 e0 05	 shl	 eax, 5
  00c6c	8b 88 08 00 00
	00		 mov	 ecx, DWORD PTR ?ItemBuffer@@3PAUITEM_BUFFER@@A[eax+8]
  00c72	51		 push	 ecx
  00c73	e8 00 00 00 00	 call	 ?StockDispBuffer@@YAHHHEHH@Z ; StockDispBuffer
  00c78	83 c4 14	 add	 esp, 20			; 00000014H
$LN102@BattleButt:

; 1536 : 						}
; 1537 : 					}

  00c7b	e9 95 f5 ff ff	 jmp	 $LN5@BattleButt
$LN6@BattleButt:

; 1538 : 
; 1539 : 					if( pActWnd != NULL ){

  00c80	83 3d 00 00 00
	00 00		 cmp	 DWORD PTR ?pActWnd@@3PAUaction@@A, 0
  00c87	74 3b		 je	 SHORT $LN104@BattleButt

; 1540 : 						battleMenuItemFontNo[ 0 ] = StockDispBuffer( ( ( WINDOW_DISP *)pActWnd->pYobi )->mx, pActWnd->y + 262, DISP_PRIO_IME3, CG_CLOSE_BTN, 2 );

  00c89	6a 02		 push	 2
  00c8b	68 ba 65 00 00	 push	 26042			; 000065baH
  00c90	6a 69		 push	 105			; 00000069H
  00c92	a1 00 00 00 00	 mov	 eax, DWORD PTR ?pActWnd@@3PAUaction@@A
  00c97	8b 48 1c	 mov	 ecx, DWORD PTR [eax+28]
  00c9a	81 c1 06 01 00
	00		 add	 ecx, 262		; 00000106H
  00ca0	51		 push	 ecx
  00ca1	8b 15 00 00 00
	00		 mov	 edx, DWORD PTR ?pActWnd@@3PAUaction@@A
  00ca7	8b 42 0c	 mov	 eax, DWORD PTR [edx+12]
  00caa	8b 48 14	 mov	 ecx, DWORD PTR [eax+20]
  00cad	51		 push	 ecx
  00cae	e8 00 00 00 00	 call	 ?StockDispBuffer@@YAHHHEHH@Z ; StockDispBuffer
  00cb3	83 c4 14	 add	 esp, 20			; 00000014H
  00cb6	ba 04 00 00 00	 mov	 edx, 4
  00cbb	6b ca 00	 imul	 ecx, edx, 0
  00cbe	89 81 00 00 00
	00		 mov	 DWORD PTR ?battleMenuItemFontNo@@3PAHA[ecx], eax
$LN104@BattleButt:

; 1541 : 					}
; 1542 : 				}
; 1543 : 			}  
; 1544 : 		} 
; 1545 : 	} 
; 1546 : }

  00cc4	52		 push	 edx
  00cc5	8b cd		 mov	 ecx, ebp
  00cc7	50		 push	 eax
  00cc8	8d 15 00 00 00
	00		 lea	 edx, DWORD PTR $LN113@BattleButt
  00cce	e8 00 00 00 00	 call	 @_RTC_CheckStackVars@8
  00cd3	58		 pop	 eax
  00cd4	5a		 pop	 edx
  00cd5	5f		 pop	 edi
  00cd6	5e		 pop	 esi
  00cd7	5b		 pop	 ebx
  00cd8	8b 4d fc	 mov	 ecx, DWORD PTR __$ArrayPad$[ebp]
  00cdb	33 cd		 xor	 ecx, ebp
  00cdd	e8 00 00 00 00	 call	 @__security_check_cookie@4
  00ce2	81 c4 3c 02 00
	00		 add	 esp, 572		; 0000023cH
  00ce8	3b ec		 cmp	 ebp, esp
  00cea	e8 00 00 00 00	 call	 __RTC_CheckEsp
  00cef	8b e5		 mov	 esp, ebp
  00cf1	5d		 pop	 ebp
  00cf2	c3		 ret	 0
  00cf3	90		 npad	 1
$LN113@BattleButt:
  00cf4	01 00 00 00	 DD	 1
  00cf8	00 00 00 00	 DD	 $LN112@BattleButt
$LN112@BattleButt:
  00cfc	e0 fe ff ff	 DD	 -288			; fffffee0H
  00d00	00 01 00 00	 DD	 256			; 00000100H
  00d04	00 00 00 00	 DD	 $LN111@BattleButt
$LN111@BattleButt:
  00d08	6d		 DB	 109			; 0000006dH
  00d09	6f		 DB	 111			; 0000006fH
  00d0a	6a		 DB	 106			; 0000006aH
  00d0b	69		 DB	 105			; 00000069H
  00d0c	00		 DB	 0
  00d0d	0f 1f 00	 npad	 3
$LN114@BattleButt:
  00d10	00 00 00 00	 DD	 $LN60@BattleButt
  00d14	00 00 00 00	 DD	 $LN61@BattleButt
  00d18	00 00 00 00	 DD	 $LN65@BattleButt
  00d1c	00 00 00 00	 DD	 $LN74@BattleButt
  00d20	00 00 00 00	 DD	 $LN83@BattleButt
  00d24	00 00 00 00	 DD	 $LN87@BattleButt
  00d28	00 00 00 00	 DD	 $LN90@BattleButt
  00d2c	00 00 00 00	 DD	 $LN95@BattleButt
  00d30	00 00 00 00	 DD	 $LN101@BattleButt
?BattleButtonItem@@YAXXZ ENDP				; BattleButtonItem
_TEXT	ENDS
; Function compile flags: /Odtp /RTCsu /ZI
; File c:\users\administrator\desktop\????? ??\????? ??\client source code\system\battlemenu.cpp
;	COMDAT ?BattleButtonGuard@@YAXXZ
_TEXT	SEGMENT
?BattleButtonGuard@@YAXXZ PROC				; BattleButtonGuard, COMDAT

; 1188 : {

  00000	55		 push	 ebp
  00001	8b ec		 mov	 ebp, esp
  00003	81 ec c0 00 00
	00		 sub	 esp, 192		; 000000c0H
  00009	53		 push	 ebx
  0000a	56		 push	 esi
  0000b	57		 push	 edi
  0000c	8d bd 40 ff ff
	ff		 lea	 edi, DWORD PTR [ebp-192]
  00012	b9 30 00 00 00	 mov	 ecx, 48			; 00000030H
  00017	b8 cc cc cc cc	 mov	 eax, -858993460		; ccccccccH
  0001c	f3 ab		 rep stosd

; 1189 : 	if( HitDispNo == battleButtonDispNo[ 4 ] && battleButtonFlag[ 4 ] == FALSE ){

  0001e	b8 04 00 00 00	 mov	 eax, 4
  00023	c1 e0 02	 shl	 eax, 2
  00026	8b 0d 00 00 00
	00		 mov	 ecx, DWORD PTR ?HitDispNo@@3HA ; HitDispNo
  0002c	3b 88 00 00 00
	00		 cmp	 ecx, DWORD PTR ?battleButtonDispNo@@3PAHA[eax]
  00032	0f 85 ae 00 00
	00		 jne	 $LN1@BattleButt
  00038	b8 04 00 00 00	 mov	 eax, 4
  0003d	c1 e0 02	 shl	 eax, 2
  00040	83 b8 00 00 00
	00 00		 cmp	 DWORD PTR ?battleButtonFlag@@3PAHA[eax], 0
  00047	0f 85 99 00 00
	00		 jne	 $LN1@BattleButt

; 1190 : 
; 1191 : 		if( mouse.onceState & MOUSE_LEFT_CRICK ){

  0004d	a1 2c 00 00 00	 mov	 eax, DWORD PTR ?mouse@@3UMOUSE@@A+44
  00052	83 e0 01	 and	 eax, 1
  00055	74 7d		 je	 SHORT $LN3@BattleButt

; 1192 : 			BattleButtonOff();

  00057	e8 00 00 00 00	 call	 ?BattleButtonOff@@YAXXZ	; BattleButtonOff

; 1193 : 
; 1194 : 			battleButtonFlag[ 4 ] = TRUE;

  0005c	b8 04 00 00 00	 mov	 eax, 4
  00061	c1 e0 02	 shl	 eax, 2
  00064	c7 80 00 00 00
	00 01 00 00 00	 mov	 DWORD PTR ?battleButtonFlag@@3PAHA[eax], 1

; 1195 : 
; 1196 : 			if( bNewServer)

  0006e	83 3d 00 00 00
	00 00		 cmp	 DWORD PTR ?bNewServer@@3HA, 0 ; bNewServer
  00075	74 15		 je	 SHORT $LN4@BattleButt

; 1197 : 				lssproto_B_send( sockfd, "G" );

  00077	68 00 00 00 00	 push	 OFFSET ??_C@_01BBODEMC@G?$AA@
  0007c	a1 00 00 00 00	 mov	 eax, DWORD PTR ?sockfd@@3IA ; sockfd
  00081	50		 push	 eax
  00082	e8 00 00 00 00	 call	 ?lssproto_B_send@@YAXHPAD@Z ; lssproto_B_send
  00087	83 c4 08	 add	 esp, 8

; 1198 : 			else

  0008a	eb 13		 jmp	 SHORT $LN5@BattleButt
$LN4@BattleButt:

; 1199 : 				old_lssproto_B_send( sockfd, "G" );

  0008c	68 00 00 00 00	 push	 OFFSET ??_C@_01BBODEMC@G?$AA@
  00091	a1 00 00 00 00	 mov	 eax, DWORD PTR ?sockfd@@3IA ; sockfd
  00096	50		 push	 eax
  00097	e8 00 00 00 00	 call	 ?old_lssproto_B_send@@YAXHPAD@Z ; old_lssproto_B_send
  0009c	83 c4 08	 add	 esp, 8
$LN5@BattleButt:

; 1200 : 
; 1201 : 			battleMenuReturn = TRUE;

  0009f	c7 05 00 00 00
	00 01 00 00 00	 mov	 DWORD PTR ?battleMenuReturn@@3HA, 1

; 1202 : 
; 1203 : 			battleButtonBak = -1;

  000a9	c7 05 00 00 00
	00 ff ff ff ff	 mov	 DWORD PTR ?battleButtonBak@@3HA, -1 ; battleButtonBak

; 1204 : 
; 1205 : 			battleButtonBak2 = -1;

  000b3	c7 05 00 00 00
	00 ff ff ff ff	 mov	 DWORD PTR ?battleButtonBak2@@3HA, -1

; 1206 : 
; 1207 : 			play_se( 203, 320, 240 );

  000bd	68 f0 00 00 00	 push	 240			; 000000f0H
  000c2	68 40 01 00 00	 push	 320			; 00000140H
  000c7	68 cb 00 00 00	 push	 203			; 000000cbH
  000cc	e8 00 00 00 00	 call	 ?play_se@@YAHHHH@Z	; play_se
  000d1	83 c4 0c	 add	 esp, 12			; 0000000cH
$LN3@BattleButt:

; 1208 : 		}
; 1209 : 
; 1210 : 		strcpy( OneLineInfoStr, "방어。");

  000d4	68 00 00 00 00	 push	 OFFSET ??_C@_06NDKEIKGO@?$LJ?f?$LO?n?$KB?$KD?$AA@
  000d9	68 00 00 00 00	 push	 OFFSET ?OneLineInfoStr@@3PADA ; OneLineInfoStr
  000de	e8 00 00 00 00	 call	 _strcpy
  000e3	83 c4 08	 add	 esp, 8
$LN1@BattleButt:

; 1211 : 	}
; 1212 : }

  000e6	5f		 pop	 edi
  000e7	5e		 pop	 esi
  000e8	5b		 pop	 ebx
  000e9	81 c4 c0 00 00
	00		 add	 esp, 192		; 000000c0H
  000ef	3b ec		 cmp	 ebp, esp
  000f1	e8 00 00 00 00	 call	 __RTC_CheckEsp
  000f6	8b e5		 mov	 esp, ebp
  000f8	5d		 pop	 ebp
  000f9	c3		 ret	 0
?BattleButtonGuard@@YAXXZ ENDP				; BattleButtonGuard
_TEXT	ENDS
; Function compile flags: /Odtp /RTCsu /ZI
; File c:\users\administrator\desktop\????? ??\????? ??\client source code\system\battlemenu.cpp
;	COMDAT ?BattleButtonHelp@@YAXXZ
_TEXT	SEGMENT
?BattleButtonHelp@@YAXXZ PROC				; BattleButtonHelp, COMDAT

; 1158 : {

  00000	55		 push	 ebp
  00001	8b ec		 mov	 ebp, esp
  00003	81 ec c0 00 00
	00		 sub	 esp, 192		; 000000c0H
  00009	53		 push	 ebx
  0000a	56		 push	 esi
  0000b	57		 push	 edi
  0000c	8d bd 40 ff ff
	ff		 lea	 edi, DWORD PTR [ebp-192]
  00012	b9 30 00 00 00	 mov	 ecx, 48			; 00000030H
  00017	b8 cc cc cc cc	 mov	 eax, -858993460		; ccccccccH
  0001c	f3 ab		 rep stosd

; 1159 : 	if( HitDispNo == battleButtonDispNo[ 3 ] && battleButtonFlag[ 3 ] == FALSE ){

  0001e	b8 04 00 00 00	 mov	 eax, 4
  00023	6b c8 03	 imul	 ecx, eax, 3
  00026	8b 15 00 00 00
	00		 mov	 edx, DWORD PTR ?HitDispNo@@3HA ; HitDispNo
  0002c	3b 91 00 00 00
	00		 cmp	 edx, DWORD PTR ?battleButtonDispNo@@3PAHA[ecx]
  00032	0f 85 c8 00 00
	00		 jne	 $LN1@BattleButt
  00038	b8 04 00 00 00	 mov	 eax, 4
  0003d	6b c8 03	 imul	 ecx, eax, 3
  00040	83 b9 00 00 00
	00 00		 cmp	 DWORD PTR ?battleButtonFlag@@3PAHA[ecx], 0
  00047	0f 85 b3 00 00
	00		 jne	 $LN1@BattleButt

; 1160 : 
; 1161 : 		strcpy( OneLineInfoStr, "HELP。");

  0004d	68 00 00 00 00	 push	 OFFSET ??_C@_06EBHMOCNH@HELP?$KB?$KD?$AA@
  00052	68 00 00 00 00	 push	 OFFSET ?OneLineInfoStr@@3PADA ; OneLineInfoStr
  00057	e8 00 00 00 00	 call	 _strcpy
  0005c	83 c4 08	 add	 esp, 8

; 1162 : 		if( mouse.onceState & MOUSE_LEFT_CRICK ){

  0005f	a1 2c 00 00 00	 mov	 eax, DWORD PTR ?mouse@@3UMOUSE@@A+44
  00064	83 e0 01	 and	 eax, 1
  00067	0f 84 93 00 00
	00		 je	 $LN1@BattleButt

; 1163 : 
; 1164 : 			if( NoHelpFlag == TRUE ){

  0006d	83 3d 00 00 00
	00 01		 cmp	 DWORD PTR ?NoHelpFlag@@3HA, 1 ; NoHelpFlag
  00074	75 19		 jne	 SHORT $LN4@BattleButt

; 1165 : 
; 1166 : 				play_se( 220, 320, 240 );

  00076	68 f0 00 00 00	 push	 240			; 000000f0H
  0007b	68 40 01 00 00	 push	 320			; 00000140H
  00080	68 dc 00 00 00	 push	 220			; 000000dcH
  00085	e8 00 00 00 00	 call	 ?play_se@@YAHHHH@Z	; play_se
  0008a	83 c4 0c	 add	 esp, 12			; 0000000cH

; 1167 : 			}else{

  0008d	eb 71		 jmp	 SHORT $LN1@BattleButt
$LN4@BattleButt:

; 1168 : 
; 1169 : 				if( helpFlag == TRUE ){

  0008f	0f bf 05 00 00
	00 00		 movsx	 eax, WORD PTR ?helpFlag@@3FA ; helpFlag
  00096	83 f8 01	 cmp	 eax, 1
  00099	75 0a		 jne	 SHORT $LN6@BattleButt

; 1170 : 					helpFlag = FALSE;

  0009b	33 c0		 xor	 eax, eax
  0009d	66 a3 00 00 00
	00		 mov	 WORD PTR ?helpFlag@@3FA, ax ; helpFlag

; 1171 : 				}else{

  000a3	eb 0b		 jmp	 SHORT $LN7@BattleButt
$LN6@BattleButt:

; 1172 : 					helpFlag = TRUE;

  000a5	b8 01 00 00 00	 mov	 eax, 1
  000aa	66 a3 00 00 00
	00		 mov	 WORD PTR ?helpFlag@@3FA, ax ; helpFlag
$LN7@BattleButt:

; 1173 : 				}
; 1174 : 
; 1175 : 				if( bNewServer)

  000b0	83 3d 00 00 00
	00 00		 cmp	 DWORD PTR ?bNewServer@@3HA, 0 ; bNewServer
  000b7	74 19		 je	 SHORT $LN8@BattleButt

; 1176 : 					lssproto_HL_send( sockfd, helpFlag );

  000b9	0f bf 05 00 00
	00 00		 movsx	 eax, WORD PTR ?helpFlag@@3FA ; helpFlag
  000c0	50		 push	 eax
  000c1	8b 0d 00 00 00
	00		 mov	 ecx, DWORD PTR ?sockfd@@3IA ; sockfd
  000c7	51		 push	 ecx
  000c8	e8 00 00 00 00	 call	 ?lssproto_HL_send@@YAXHH@Z ; lssproto_HL_send
  000cd	83 c4 08	 add	 esp, 8

; 1177 : 				else

  000d0	eb 17		 jmp	 SHORT $LN9@BattleButt
$LN8@BattleButt:

; 1178 : 					old_lssproto_HL_send( sockfd, helpFlag );

  000d2	0f bf 05 00 00
	00 00		 movsx	 eax, WORD PTR ?helpFlag@@3FA ; helpFlag
  000d9	50		 push	 eax
  000da	8b 0d 00 00 00
	00		 mov	 ecx, DWORD PTR ?sockfd@@3IA ; sockfd
  000e0	51		 push	 ecx
  000e1	e8 00 00 00 00	 call	 ?old_lssproto_HL_send@@YAXHH@Z ; old_lssproto_HL_send
  000e6	83 c4 08	 add	 esp, 8
$LN9@BattleButt:

; 1179 : 
; 1180 : 				play_se( 217, 320, 240 );

  000e9	68 f0 00 00 00	 push	 240			; 000000f0H
  000ee	68 40 01 00 00	 push	 320			; 00000140H
  000f3	68 d9 00 00 00	 push	 217			; 000000d9H
  000f8	e8 00 00 00 00	 call	 ?play_se@@YAHHHH@Z	; play_se
  000fd	83 c4 0c	 add	 esp, 12			; 0000000cH
$LN1@BattleButt:

; 1181 : 			}
; 1182 : 		}
; 1183 : 	}
; 1184 : }

  00100	5f		 pop	 edi
  00101	5e		 pop	 esi
  00102	5b		 pop	 ebx
  00103	81 c4 c0 00 00
	00		 add	 esp, 192		; 000000c0H
  00109	3b ec		 cmp	 ebp, esp
  0010b	e8 00 00 00 00	 call	 __RTC_CheckEsp
  00110	8b e5		 mov	 esp, ebp
  00112	5d		 pop	 ebp
  00113	c3		 ret	 0
?BattleButtonHelp@@YAXXZ ENDP				; BattleButtonHelp
_TEXT	ENDS
; Function compile flags: /Odtp /RTCsu /ZI
; File c:\users\administrator\desktop\????? ??\????? ??\client source code\system\battlemenu.cpp
;	COMDAT ?BattleButtonCapture@@YAXXZ
_TEXT	SEGMENT
_bak$ = -20						; size = 4
_i$ = -8						; size = 4
?BattleButtonCapture@@YAXXZ PROC			; BattleButtonCapture, COMDAT

; 1104 : {

  00000	55		 push	 ebp
  00001	8b ec		 mov	 ebp, esp
  00003	81 ec d8 00 00
	00		 sub	 esp, 216		; 000000d8H
  00009	53		 push	 ebx
  0000a	56		 push	 esi
  0000b	57		 push	 edi
  0000c	8d bd 28 ff ff
	ff		 lea	 edi, DWORD PTR [ebp-216]
  00012	b9 36 00 00 00	 mov	 ecx, 54			; 00000036H
  00017	b8 cc cc cc cc	 mov	 eax, -858993460		; ccccccccH
  0001c	f3 ab		 rep stosd

; 1105 : 	int i, bak;
; 1106 : 	if( HitDispNo == battleButtonDispNo[ 2 ] || battleButtonBak2 == 2 ){

  0001e	b8 04 00 00 00	 mov	 eax, 4
  00023	d1 e0		 shl	 eax, 1
  00025	8b 0d 00 00 00
	00		 mov	 ecx, DWORD PTR ?HitDispNo@@3HA ; HitDispNo
  0002b	3b 88 00 00 00
	00		 cmp	 ecx, DWORD PTR ?battleButtonDispNo@@3PAHA[eax]
  00031	74 0d		 je	 SHORT $LN6@BattleButt
  00033	83 3d 00 00 00
	00 02		 cmp	 DWORD PTR ?battleButtonBak2@@3HA, 2
  0003a	0f 85 6d 01 00
	00		 jne	 $LN1@BattleButt
$LN6@BattleButt:

; 1107 : 		// ?????????
; 1108 : 		if( CheckPetSuu() >= 5 ){

  00040	e8 00 00 00 00	 call	 ?CheckPetSuu@@YAHXZ	; CheckPetSuu
  00045	83 f8 05	 cmp	 eax, 5
  00048	7c 42		 jl	 SHORT $LN7@BattleButt

; 1109 : 			// ??????
; 1110 : 			strcpy( OneLineInfoStr, "페트창이 꽉 차서 더이상 포획할수 없어요。");

  0004a	68 00 00 00 00	 push	 OFFSET ??_C@_0CK@LMOADLH@?F?d?F?$KO?C?$KC?$MA?L?5?$LC?K?5?B?w?$LM?$KN?5?$LE?u?$MA?L?$LL?s?5?F?w?H?$LJ?G?R?$LM?v@
  0004f	68 00 00 00 00	 push	 OFFSET ?OneLineInfoStr@@3PADA ; OneLineInfoStr
  00054	e8 00 00 00 00	 call	 _strcpy
  00059	83 c4 08	 add	 esp, 8

; 1111 : 			// ?????????
; 1112 : 			if( mouse.onceState & MOUSE_LEFT_CRICK ){

  0005c	a1 2c 00 00 00	 mov	 eax, DWORD PTR ?mouse@@3UMOUSE@@A+44
  00061	83 e0 01	 and	 eax, 1
  00064	74 17		 je	 SHORT $LN9@BattleButt

; 1113 : 				// ???
; 1114 : 				play_se( 220, 320, 240 );

  00066	68 f0 00 00 00	 push	 240			; 000000f0H
  0006b	68 40 01 00 00	 push	 320			; 00000140H
  00070	68 dc 00 00 00	 push	 220			; 000000dcH
  00075	e8 00 00 00 00	 call	 ?play_se@@YAHHHH@Z	; play_se
  0007a	83 c4 0c	 add	 esp, 12			; 0000000cH
$LN9@BattleButt:

; 1115 : 			}
; 1116 : 			// ????????
; 1117 : 			battleButtonBak2 = -1;

  0007d	c7 05 00 00 00
	00 ff ff ff ff	 mov	 DWORD PTR ?battleButtonBak2@@3HA, -1

; 1118 : 		}else{

  00087	e9 21 01 00 00	 jmp	 $LN1@BattleButt
$LN7@BattleButt:

; 1119 : 			// ??????
; 1120 : 			strcpy( OneLineInfoStr, "포획하다。");

  0008c	68 00 00 00 00	 push	 OFFSET ??_C@_0L@OPNNNOMC@?F?w?H?$LJ?G?O?$LE?Y?$KB?$KD?$AA@
  00091	68 00 00 00 00	 push	 OFFSET ?OneLineInfoStr@@3PADA ; OneLineInfoStr
  00096	e8 00 00 00 00	 call	 _strcpy
  0009b	83 c4 08	 add	 esp, 8

; 1121 : 			// ?????????
; 1122 : 			if( mouse.onceState & MOUSE_LEFT_CRICK || battleButtonBak2 == 2 ){

  0009e	a1 2c 00 00 00	 mov	 eax, DWORD PTR ?mouse@@3UMOUSE@@A+44
  000a3	83 e0 01	 and	 eax, 1
  000a6	75 0d		 jne	 SHORT $LN11@BattleButt
  000a8	83 3d 00 00 00
	00 02		 cmp	 DWORD PTR ?battleButtonBak2@@3HA, 2
  000af	0f 85 f8 00 00
	00		 jne	 $LN1@BattleButt
$LN11@BattleButt:

; 1123 : 				bak = battleButtonFlag[ 2 ];	// ??????

  000b5	b8 04 00 00 00	 mov	 eax, 4
  000ba	d1 e0		 shl	 eax, 1
  000bc	8b 88 00 00 00
	00		 mov	 ecx, DWORD PTR ?battleButtonFlag@@3PAHA[eax]
  000c2	89 4d ec	 mov	 DWORD PTR _bak$[ebp], ecx

; 1124 : 				BattleButtonOff();				// ????????????

  000c5	e8 00 00 00 00	 call	 ?BattleButtonOff@@YAXXZ	; BattleButtonOff

; 1125 : 				// ?????????
; 1126 : 				if( bak == FALSE ){

  000ca	83 7d ec 00	 cmp	 DWORD PTR _bak$[ebp], 0
  000ce	0f 85 d9 00 00
	00		 jne	 $LN1@BattleButt

; 1127 : 					// ??????????????
; 1128 : 					battleTargetSelectFlag = TRUE;

  000d4	c7 05 00 00 00
	00 01 00 00 00	 mov	 DWORD PTR ?battleTargetSelectFlag@@3HA, 1

; 1129 : 					// ?????
; 1130 : 					BattleCmdNo = BATTLE_CAPTURE;

  000de	c7 05 00 00 00
	00 02 00 00 00	 mov	 DWORD PTR ?BattleCmdNo@@3HA, 2 ; BattleCmdNo

; 1131 : 					// ?????????
; 1132 : 					battleButtonFlag[ 2 ] = TRUE;

  000e8	b8 04 00 00 00	 mov	 eax, 4
  000ed	d1 e0		 shl	 eax, 1
  000ef	c7 80 00 00 00
	00 01 00 00 00	 mov	 DWORD PTR ?battleButtonFlag@@3PAHA[eax], 1

; 1133 : 					// ????????
; 1134 : 					battleButtonBak = 2;

  000f9	c7 05 00 00 00
	00 02 00 00 00	 mov	 DWORD PTR ?battleButtonBak@@3HA, 2 ; battleButtonBak

; 1135 : 					// ????????
; 1136 : 					battleButtonBak2 = -1;

  00103	c7 05 00 00 00
	00 ff ff ff ff	 mov	 DWORD PTR ?battleButtonBak2@@3HA, -1

; 1137 : 					// ???????
; 1138 : 					for( i = 0 ; i < 20 ; i++ ){

  0010d	c7 45 f8 00 00
	00 00		 mov	 DWORD PTR _i$[ebp], 0
  00114	eb 09		 jmp	 SHORT $LN4@BattleButt
$LN2@BattleButt:
  00116	8b 45 f8	 mov	 eax, DWORD PTR _i$[ebp]
  00119	83 c0 01	 add	 eax, 1
  0011c	89 45 f8	 mov	 DWORD PTR _i$[ebp], eax
$LN4@BattleButt:
  0011f	83 7d f8 14	 cmp	 DWORD PTR _i$[ebp], 20	; 00000014H
  00123	0f 8d 84 00 00
	00		 jge	 $LN1@BattleButt

; 1139 : 						// ??????????
; 1140 : 						if( p_party[ i ]->func == NULL ) continue;

  00129	8b 45 f8	 mov	 eax, DWORD PTR _i$[ebp]
  0012c	8b 0c 85 00 00
	00 00		 mov	 ecx, DWORD PTR ?p_party@@3PAPAUaction@@A[eax*4]
  00133	83 79 08 00	 cmp	 DWORD PTR [ecx+8], 0
  00137	75 02		 jne	 SHORT $LN13@BattleButt
  00139	eb db		 jmp	 SHORT $LN2@BattleButt
$LN13@BattleButt:

; 1141 : 						// ????
; 1142 : 						if( ( (ATR_EQU *)p_party[ i ]->pYobi )->group_flg == ( (ATR_EQU *)p_party[ BattleMyNo ]->pYobi )->group_flg ) continue;

  0013b	8b 45 f8	 mov	 eax, DWORD PTR _i$[ebp]
  0013e	8b 0c 85 00 00
	00 00		 mov	 ecx, DWORD PTR ?p_party@@3PAPAUaction@@A[eax*4]
  00145	8b 51 0c	 mov	 edx, DWORD PTR [ecx+12]
  00148	0f b6 42 5e	 movzx	 eax, BYTE PTR [edx+94]
  0014c	8b 0d 00 00 00
	00		 mov	 ecx, DWORD PTR ?BattleMyNo@@3HA ; BattleMyNo
  00152	8b 14 8d 00 00
	00 00		 mov	 edx, DWORD PTR ?p_party@@3PAPAUaction@@A[ecx*4]
  00159	8b 4a 0c	 mov	 ecx, DWORD PTR [edx+12]
  0015c	0f b6 51 5e	 movzx	 edx, BYTE PTR [ecx+94]
  00160	3b c2		 cmp	 eax, edx
  00162	75 02		 jne	 SHORT $LN14@BattleButt
  00164	eb b0		 jmp	 SHORT $LN2@BattleButt
$LN14@BattleButt:

; 1143 : 						// ????
; 1144 : 						if( i == BattleMyNo ) continue;

  00166	8b 45 f8	 mov	 eax, DWORD PTR _i$[ebp]
  00169	3b 05 00 00 00
	00		 cmp	 eax, DWORD PTR ?BattleMyNo@@3HA ; BattleMyNo
  0016f	75 02		 jne	 SHORT $LN15@BattleButt
  00171	eb a3		 jmp	 SHORT $LN2@BattleButt
$LN15@BattleButt:

; 1145 : 						// ??????
; 1146 : 						if( p_party[ i ]->hp <= 0 ) continue;

  00173	8b 45 f8	 mov	 eax, DWORD PTR _i$[ebp]
  00176	8b 0c 85 00 00
	00 00		 mov	 ecx, DWORD PTR ?p_party@@3PAPAUaction@@A[eax*4]
  0017d	83 79 78 00	 cmp	 DWORD PTR [ecx+120], 0
  00181	7f 02		 jg	 SHORT $LN16@BattleButt
  00183	eb 91		 jmp	 SHORT $LN2@BattleButt
$LN16@BattleButt:

; 1147 : 						// ????????????
; 1148 : 						p_party[ i ]->atr |= ACT_ATR_HIT_BOX;

  00185	8b 45 f8	 mov	 eax, DWORD PTR _i$[ebp]
  00188	8b 0c 85 00 00
	00 00		 mov	 ecx, DWORD PTR ?p_party@@3PAPAUaction@@A[eax*4]
  0018f	8b 91 a4 00 00
	00		 mov	 edx, DWORD PTR [ecx+164]
  00195	83 ca 08	 or	 edx, 8
  00198	8b 45 f8	 mov	 eax, DWORD PTR _i$[ebp]
  0019b	8b 0c 85 00 00
	00 00		 mov	 ecx, DWORD PTR ?p_party@@3PAPAUaction@@A[eax*4]
  001a2	89 91 a4 00 00
	00		 mov	 DWORD PTR [ecx+164], edx

; 1149 : 					}

  001a8	e9 69 ff ff ff	 jmp	 $LN2@BattleButt
$LN1@BattleButt:

; 1150 : 				}
; 1151 : 			}
; 1152 : 		}
; 1153 : 	}
; 1154 : }

  001ad	5f		 pop	 edi
  001ae	5e		 pop	 esi
  001af	5b		 pop	 ebx
  001b0	81 c4 d8 00 00
	00		 add	 esp, 216		; 000000d8H
  001b6	3b ec		 cmp	 ebp, esp
  001b8	e8 00 00 00 00	 call	 __RTC_CheckEsp
  001bd	8b e5		 mov	 esp, ebp
  001bf	5d		 pop	 ebp
  001c0	c3		 ret	 0
?BattleButtonCapture@@YAXXZ ENDP			; BattleButtonCapture
_TEXT	ENDS
; Function compile flags: /Odtp /RTCsu /ZI
; File c:\users\administrator\desktop\????? ??\????? ??\client source code\system\battlemenu.cpp
;	COMDAT ?BattleButtonJujutsu@@YAXXZ
_TEXT	SEGMENT
tv250 = -584						; size = 4
$T1 = -576						; size = 4
$T2 = -564						; size = 4
$T3 = -552						; size = 4
_col$4 = -348						; size = 4
_flag$5 = -336						; size = 4
_splitPoint$6 = -324					; size = 4
_moji$ = -312						; size = 256
_bak$ = -48						; size = 4
_y$ = -36						; size = 4
_x$ = -24						; size = 4
_i$ = -12						; size = 4
__$ArrayPad$ = -4					; size = 4
?BattleButtonJujutsu@@YAXXZ PROC			; BattleButtonJujutsu, COMDAT

; 617  : {

  00000	55		 push	 ebp
  00001	8b ec		 mov	 ebp, esp
  00003	81 ec 48 02 00
	00		 sub	 esp, 584		; 00000248H
  00009	53		 push	 ebx
  0000a	56		 push	 esi
  0000b	57		 push	 edi
  0000c	8d bd b8 fd ff
	ff		 lea	 edi, DWORD PTR [ebp-584]
  00012	b9 92 00 00 00	 mov	 ecx, 146		; 00000092H
  00017	b8 cc cc cc cc	 mov	 eax, -858993460		; ccccccccH
  0001c	f3 ab		 rep stosd
  0001e	a1 00 00 00 00	 mov	 eax, DWORD PTR ___security_cookie
  00023	33 c5		 xor	 eax, ebp
  00025	89 45 fc	 mov	 DWORD PTR __$ArrayPad$[ebp], eax

; 618  : 	int i, x, y, bak;
; 619  : 	char moji[ 256 ];
; 620  : 	if( HitDispNo == battleButtonDispNo[ 1 ] || battleButtonBak2 == 1 ){

  00028	b8 04 00 00 00	 mov	 eax, 4
  0002d	c1 e0 00	 shl	 eax, 0
  00030	8b 0d 00 00 00
	00		 mov	 ecx, DWORD PTR ?HitDispNo@@3HA ; HitDispNo
  00036	3b 88 00 00 00
	00		 cmp	 ecx, DWORD PTR ?battleButtonDispNo@@3PAHA[eax]
  0003c	74 0d		 je	 SHORT $LN64@BattleButt
  0003e	83 3d 00 00 00
	00 01		 cmp	 DWORD PTR ?battleButtonBak2@@3HA, 1
  00045	0f 85 e3 00 00
	00		 jne	 $LN63@BattleButt
$LN64@BattleButt:

; 621  : #ifdef _MAGIC_NOCAST
; 622  :       if( NoCastFlag == FALSE )

  0004b	83 3d 00 00 00
	00 00		 cmp	 DWORD PTR ?NoCastFlag@@3HA, 0 ; NoCastFlag
  00052	0f 85 c4 00 00
	00		 jne	 $LN65@BattleButt

; 623  : 	  {
; 624  : #endif
; 625  : 
; 626  : 		if( mouse.onceState & MOUSE_LEFT_CRICK || battleButtonBak2 == 1 ){

  00058	a1 2c 00 00 00	 mov	 eax, DWORD PTR ?mouse@@3UMOUSE@@A+44
  0005d	83 e0 01	 and	 eax, 1
  00060	75 0d		 jne	 SHORT $LN68@BattleButt
  00062	83 3d 00 00 00
	00 01		 cmp	 DWORD PTR ?battleButtonBak2@@3HA, 1
  00069	0f 85 99 00 00
	00		 jne	 $LN67@BattleButt
$LN68@BattleButt:

; 627  : 			bak = battleButtonFlag[ 1 ];

  0006f	b8 04 00 00 00	 mov	 eax, 4
  00074	c1 e0 00	 shl	 eax, 0
  00077	8b 88 00 00 00
	00		 mov	 ecx, DWORD PTR ?battleButtonFlag@@3PAHA[eax]
  0007d	89 4d d0	 mov	 DWORD PTR _bak$[ebp], ecx

; 628  : 			BattleButtonOff();

  00080	e8 00 00 00 00	 call	 ?BattleButtonOff@@YAXXZ	; BattleButtonOff

; 629  : 
; 630  : 			if( bak == FALSE ){

  00085	83 7d d0 00	 cmp	 DWORD PTR _bak$[ebp], 0
  00089	75 7d		 jne	 SHORT $LN67@BattleButt

; 631  : 
; 632  : 				battleButtonFlag[ 1 ] = TRUE;

  0008b	b8 04 00 00 00	 mov	 eax, 4
  00090	c1 e0 00	 shl	 eax, 0
  00093	c7 80 00 00 00
	00 01 00 00 00	 mov	 DWORD PTR ?battleButtonFlag@@3PAHA[eax], 1

; 633  : 
; 634  : 				BattleCmdNo = BATTLE_JUJUTU;

  0009d	c7 05 00 00 00
	00 01 00 00 00	 mov	 DWORD PTR ?BattleCmdNo@@3HA, 1 ; BattleCmdNo

; 635  : 
; 636  : 				for( i = 0 ; i < BATTLE_MENU_JUJUTSU_FONTS ; i++ ) battleMenuJujutsuFontNo[ i ] = -2;

  000a7	c7 45 f4 00 00
	00 00		 mov	 DWORD PTR _i$[ebp], 0
  000ae	eb 09		 jmp	 SHORT $LN4@BattleButt
$LN2@BattleButt:
  000b0	8b 45 f4	 mov	 eax, DWORD PTR _i$[ebp]
  000b3	83 c0 01	 add	 eax, 1
  000b6	89 45 f4	 mov	 DWORD PTR _i$[ebp], eax
$LN4@BattleButt:
  000b9	83 7d f4 06	 cmp	 DWORD PTR _i$[ebp], 6
  000bd	7d 10		 jge	 SHORT $LN3@BattleButt
  000bf	8b 45 f4	 mov	 eax, DWORD PTR _i$[ebp]
  000c2	c7 04 85 00 00
	00 00 fe ff ff
	ff		 mov	 DWORD PTR ?battleMenuJujutsuFontNo@@3PAHA[eax*4], -2 ; fffffffeH
  000cd	eb e1		 jmp	 SHORT $LN2@BattleButt
$LN3@BattleButt:

; 637  : 
; 638  : 				pActWnd = MakeWindowDisp( 361, 144, 271, 281, 0, -1 );

  000cf	6a ff		 push	 -1
  000d1	6a 00		 push	 0
  000d3	68 19 01 00 00	 push	 281			; 00000119H
  000d8	68 0f 01 00 00	 push	 271			; 0000010fH
  000dd	68 90 00 00 00	 push	 144			; 00000090H
  000e2	68 69 01 00 00	 push	 361			; 00000169H
  000e7	e8 00 00 00 00	 call	 ?MakeWindowDisp@@YAPAUaction@@HHHHHH@Z ; MakeWindowDisp
  000ec	83 c4 18	 add	 esp, 24			; 00000018H
  000ef	a3 00 00 00 00	 mov	 DWORD PTR ?pActWnd@@3PAUaction@@A, eax

; 639  : 
; 640  : 				battleButtonBak = 1;

  000f4	c7 05 00 00 00
	00 01 00 00 00	 mov	 DWORD PTR ?battleButtonBak@@3HA, 1 ; battleButtonBak

; 641  : 
; 642  : 				battleButtonBak2 = -1;

  000fe	c7 05 00 00 00
	00 ff ff ff ff	 mov	 DWORD PTR ?battleButtonBak2@@3HA, -1
$LN67@BattleButt:

; 643  : 			}
; 644  : 		}
; 645  : 
; 646  : 		strcpy( OneLineInfoStr, "주술을 사용하다。");

  00108	68 00 00 00 00	 push	 OFFSET ??_C@_0BC@GBLBFMBP@?A?V?$LM?z?$MA?$LL?5?$LL?g?$LP?k?G?O?$LE?Y?$KB?$KD?$AA@
  0010d	68 00 00 00 00	 push	 OFFSET ?OneLineInfoStr@@3PADA ; OneLineInfoStr
  00112	e8 00 00 00 00	 call	 _strcpy
  00117	83 c4 08	 add	 esp, 8

; 647  : #ifdef _MAGIC_NOCAST
; 648  : 	  }
; 649  : 	  else

  0011a	eb 12		 jmp	 SHORT $LN63@BattleButt
$LN65@BattleButt:

; 650  : 	  {
; 651  :         strcpy( OneLineInfoStr, "침묵상태에서는 주술을 사용할수없습니다。");

  0011c	68 00 00 00 00	 push	 OFFSET ??_C@_0CJ@HJBAPDHB@?D?$KH?$LJ?$KM?$LL?s?E?B?$LP?$KB?$LM?$KN?$LE?B?5?A?V?$LM?z?$MA?$LL?5?$LL?g?$LP?k?G?R?$LM?v?$LO?x@
  00121	68 00 00 00 00	 push	 OFFSET ?OneLineInfoStr@@3PADA ; OneLineInfoStr
  00126	e8 00 00 00 00	 call	 _strcpy
  0012b	83 c4 08	 add	 esp, 8
$LN63@BattleButt:

; 652  : 	  }
; 653  : #endif
; 654  : 	}
; 655  : #ifdef _MAGIC_NOCAST
; 656  : 					if(!( NoCastFlag == FALSE )){

  0012e	83 3d 00 00 00
	00 00		 cmp	 DWORD PTR ?NoCastFlag@@3HA, 0 ; NoCastFlag
  00135	74 12		 je	 SHORT $LN70@BattleButt

; 657  : 			            battleButtonFlag[ 1 ] = FALSE;

  00137	b8 04 00 00 00	 mov	 eax, 4
  0013c	c1 e0 00	 shl	 eax, 0
  0013f	c7 80 00 00 00
	00 00 00 00 00	 mov	 DWORD PTR ?battleButtonFlag@@3PAHA[eax], 0
$LN70@BattleButt:

; 658  : 					}
; 659  : #endif
; 660  : 
; 661  : 	if( battleButtonFlag[ 1 ] == TRUE ){

  00149	b8 04 00 00 00	 mov	 eax, 4
  0014e	c1 e0 00	 shl	 eax, 0
  00151	83 b8 00 00 00
	00 01		 cmp	 DWORD PTR ?battleButtonFlag@@3PAHA[eax], 1
  00158	0f 85 dc 10 00
	00		 jne	 $LN168@BattleButt

; 662  : 
; 663  : 		if( pActWnd != NULL ){

  0015e	83 3d 00 00 00
	00 00		 cmp	 DWORD PTR ?pActWnd@@3PAUaction@@A, 0
  00165	0f 84 cf 10 00
	00		 je	 $LN168@BattleButt

; 664  : 
; 665  : 			if( pActWnd->hp > 0 ){

  0016b	a1 00 00 00 00	 mov	 eax, DWORD PTR ?pActWnd@@3PAUaction@@A
  00170	83 78 78 00	 cmp	 DWORD PTR [eax+120], 0
  00174	0f 8e c0 10 00
	00		 jle	 $LN168@BattleButt

; 666  : 				x = pActWnd->x + 74;

  0017a	a1 00 00 00 00	 mov	 eax, DWORD PTR ?pActWnd@@3PAUaction@@A
  0017f	8b 48 18	 mov	 ecx, DWORD PTR [eax+24]
  00182	83 c1 4a	 add	 ecx, 74			; 0000004aH
  00185	89 4d e8	 mov	 DWORD PTR _x$[ebp], ecx

; 667  : 				y = pActWnd->y + 208;

  00188	a1 00 00 00 00	 mov	 eax, DWORD PTR ?pActWnd@@3PAUaction@@A
  0018d	8b 48 1c	 mov	 ecx, DWORD PTR [eax+28]
  00190	81 c1 d0 00 00
	00		 add	 ecx, 208		; 000000d0H
  00196	89 4d dc	 mov	 DWORD PTR _y$[ebp], ecx

; 668  : 
; 669  : #ifdef _READ16BITBMP
; 670  : 				if(g_bUseAlpha) StockDispBuffer( ( ( WINDOW_DISP *)pActWnd->pYobi )->mx, ( ( WINDOW_DISP *)pActWnd->pYobi )->my + 7, DISP_PRIO_MENU, CG_JUJUTU_WND, 1 );
; 671  : 				else
; 672  : #endif
; 673  : 				StockDispBuffer( ( ( WINDOW_DISP *)pActWnd->pYobi )->mx, ( ( WINDOW_DISP *)pActWnd->pYobi )->my + 10, DISP_PRIO_MENU, CG_JUJUTU_WND, 1 );

  00199	6a 01		 push	 1
  0019b	a1 00 00 00 00	 mov	 eax, DWORD PTR ?CG_JUJUTU_WND@@3HA ; CG_JUJUTU_WND
  001a0	50		 push	 eax
  001a1	6a 68		 push	 104			; 00000068H
  001a3	8b 0d 00 00 00
	00		 mov	 ecx, DWORD PTR ?pActWnd@@3PAUaction@@A
  001a9	8b 51 0c	 mov	 edx, DWORD PTR [ecx+12]
  001ac	8b 42 18	 mov	 eax, DWORD PTR [edx+24]
  001af	83 c0 0a	 add	 eax, 10			; 0000000aH
  001b2	50		 push	 eax
  001b3	8b 0d 00 00 00
	00		 mov	 ecx, DWORD PTR ?pActWnd@@3PAUaction@@A
  001b9	8b 51 0c	 mov	 edx, DWORD PTR [ecx+12]
  001bc	8b 42 14	 mov	 eax, DWORD PTR [edx+20]
  001bf	50		 push	 eax
  001c0	e8 00 00 00 00	 call	 ?StockDispBuffer@@YAHHHEHH@Z ; StockDispBuffer
  001c5	83 c4 14	 add	 esp, 20			; 00000014H

; 674  : 
; 675  : 				for( i = 0 ; i < 5 ; i++ ){

  001c8	c7 45 f4 00 00
	00 00		 mov	 DWORD PTR _i$[ebp], 0
  001cf	eb 09		 jmp	 SHORT $LN7@BattleButt
$LN5@BattleButt:
  001d1	8b 45 f4	 mov	 eax, DWORD PTR _i$[ebp]
  001d4	83 c0 01	 add	 eax, 1
  001d7	89 45 f4	 mov	 DWORD PTR _i$[ebp], eax
$LN7@BattleButt:
  001da	83 7d f4 05	 cmp	 DWORD PTR _i$[ebp], 5
  001de	0f 8d c2 0e 00
	00		 jge	 $LN6@BattleButt

; 676  : 
; 677  : 					if( HitFontNo == battleMenuJujutsuFontNo[ i ] && magic[ i ].useFlag == TRUE ){

  001e4	8b 45 f4	 mov	 eax, DWORD PTR _i$[ebp]
  001e7	8b 0d 00 00 00
	00		 mov	 ecx, DWORD PTR ?HitFontNo@@3HA ; HitFontNo
  001ed	3b 0c 85 00 00
	00 00		 cmp	 ecx, DWORD PTR ?battleMenuJujutsuFontNo@@3PAHA[eax*4]
  001f4	0f 85 a7 0e 00
	00		 jne	 $LN74@BattleButt
  001fa	6b 45 f4 70	 imul	 eax, DWORD PTR _i$[ebp], 112
  001fe	0f bf 88 00 00
	00 00		 movsx	 ecx, WORD PTR ?magic@@3PAUMAGIC@@A[eax]
  00205	83 f9 01	 cmp	 ecx, 1
  00208	0f 85 93 0e 00
	00		 jne	 $LN74@BattleButt

; 678  : 
; 679  : 						char *splitPoint = magic[ i ].memo;

  0020e	6b 45 f4 70	 imul	 eax, DWORD PTR _i$[ebp], 112
  00212	05 27 00 00 00	 add	 eax, OFFSET ?magic@@3PAUMAGIC@@A+39
  00217	89 85 bc fe ff
	ff		 mov	 DWORD PTR _splitPoint$6[ebp], eax

; 680  : 
; 681  : 						sprintf( moji,"%2d/%2d", magic[ i ].mp, p_party[ BattleMyNo ]->mp );

  0021d	a1 00 00 00 00	 mov	 eax, DWORD PTR ?BattleMyNo@@3HA ; BattleMyNo
  00222	8b 0c 85 00 00
	00 00		 mov	 ecx, DWORD PTR ?p_party@@3PAPAUaction@@A[eax*4]
  00229	8b 91 84 00 00
	00		 mov	 edx, DWORD PTR [ecx+132]
  0022f	52		 push	 edx
  00230	6b 45 f4 70	 imul	 eax, DWORD PTR _i$[ebp], 112
  00234	8b 88 04 00 00
	00		 mov	 ecx, DWORD PTR ?magic@@3PAUMAGIC@@A[eax+4]
  0023a	51		 push	 ecx
  0023b	68 00 00 00 00	 push	 OFFSET ??_C@_07HFNBMNBH@?$CF2d?1?$CF2d?$AA@
  00240	8d 95 c8 fe ff
	ff		 lea	 edx, DWORD PTR _moji$[ebp]
  00246	52		 push	 edx
  00247	e8 00 00 00 00	 call	 _sprintf
  0024c	83 c4 10	 add	 esp, 16			; 00000010H

; 682  : 						StockFontBuffer( pActWnd->x + 74 + 81, pActWnd->y + 183, FONT_PRIO_FRONT, 0, moji, 0 );

  0024f	6a 00		 push	 0
  00251	8d 85 c8 fe ff
	ff		 lea	 eax, DWORD PTR _moji$[ebp]
  00257	50		 push	 eax
  00258	6a 00		 push	 0
  0025a	6a 01		 push	 1
  0025c	8b 0d 00 00 00
	00		 mov	 ecx, DWORD PTR ?pActWnd@@3PAUaction@@A
  00262	8b 51 1c	 mov	 edx, DWORD PTR [ecx+28]
  00265	81 c2 b7 00 00
	00		 add	 edx, 183		; 000000b7H
  0026b	52		 push	 edx
  0026c	a1 00 00 00 00	 mov	 eax, DWORD PTR ?pActWnd@@3PAUaction@@A
  00271	8b 48 18	 mov	 ecx, DWORD PTR [eax+24]
  00274	81 c1 9b 00 00
	00		 add	 ecx, 155		; 0000009bH
  0027a	51		 push	 ecx
  0027b	e8 00 00 00 00	 call	 ?StockFontBuffer@@YAHHHDHPADH@Z ; StockFontBuffer
  00280	83 c4 18	 add	 esp, 24			; 00000018H
$LN8@BattleButt:

; 683  : 
; 684  : 						while( 1 ){

  00283	b8 01 00 00 00	 mov	 eax, 1
  00288	85 c0		 test	 eax, eax
  0028a	0f 84 5d 01 00
	00		 je	 $LN9@BattleButt

; 685  : 
; 686  : 							if( strlen( splitPoint ) > 22 ){

  00290	8b 85 bc fe ff
	ff		 mov	 eax, DWORD PTR _splitPoint$6[ebp]
  00296	50		 push	 eax
  00297	e8 00 00 00 00	 call	 _strlen
  0029c	83 c4 04	 add	 esp, 4
  0029f	83 f8 16	 cmp	 eax, 22			; 00000016H
  002a2	0f 86 0b 01 00
	00		 jbe	 $LN75@BattleButt

; 687  : 								strncpy( moji, splitPoint, 22 );

  002a8	8b f4		 mov	 esi, esp
  002aa	6a 16		 push	 22			; 00000016H
  002ac	8b 85 bc fe ff
	ff		 mov	 eax, DWORD PTR _splitPoint$6[ebp]
  002b2	50		 push	 eax
  002b3	8d 8d c8 fe ff
	ff		 lea	 ecx, DWORD PTR _moji$[ebp]
  002b9	51		 push	 ecx
  002ba	ff 15 00 00 00
	00		 call	 DWORD PTR __imp__strncpy
  002c0	83 c4 0c	 add	 esp, 12			; 0000000cH
  002c3	3b f4		 cmp	 esi, esp
  002c5	e8 00 00 00 00	 call	 __RTC_CheckEsp

; 688  : 								moji[ 22 ] = NULL;

  002ca	b8 01 00 00 00	 mov	 eax, 1
  002cf	6b c8 16	 imul	 ecx, eax, 22
  002d2	89 8d d8 fd ff
	ff		 mov	 DWORD PTR $T3[ebp], ecx
  002d8	81 bd d8 fd ff
	ff 00 01 00 00	 cmp	 DWORD PTR $T3[ebp], 256	; 00000100H
  002e2	73 02		 jae	 SHORT $LN169@BattleButt
  002e4	eb 05		 jmp	 SHORT $LN170@BattleButt
$LN169@BattleButt:
  002e6	e8 00 00 00 00	 call	 ___report_rangecheckfailure
$LN170@BattleButt:
  002eb	8b 95 d8 fd ff
	ff		 mov	 edx, DWORD PTR $T3[ebp]
  002f1	c6 84 15 c8 fe
	ff ff 00	 mov	 BYTE PTR _moji$[ebp+edx], 0

; 689  : 
; 690  : 								if( GetStrLastByte( moji ) == 3 ){

  002f9	8d 85 c8 fe ff
	ff		 lea	 eax, DWORD PTR _moji$[ebp]
  002ff	50		 push	 eax
  00300	e8 00 00 00 00	 call	 ?GetStrLastByte@@YAHPAD@Z ; GetStrLastByte
  00305	83 c4 04	 add	 esp, 4
  00308	83 f8 03	 cmp	 eax, 3
  0030b	75 40		 jne	 SHORT $LN77@BattleButt

; 691  : 									moji[ 21 ] = NULL;

  0030d	b8 01 00 00 00	 mov	 eax, 1
  00312	6b c8 15	 imul	 ecx, eax, 21
  00315	89 8d cc fd ff
	ff		 mov	 DWORD PTR $T2[ebp], ecx
  0031b	81 bd cc fd ff
	ff 00 01 00 00	 cmp	 DWORD PTR $T2[ebp], 256	; 00000100H
  00325	73 02		 jae	 SHORT $LN171@BattleButt
  00327	eb 05		 jmp	 SHORT $LN172@BattleButt
$LN171@BattleButt:
  00329	e8 00 00 00 00	 call	 ___report_rangecheckfailure
$LN172@BattleButt:
  0032e	8b 95 cc fd ff
	ff		 mov	 edx, DWORD PTR $T2[ebp]
  00334	c6 84 15 c8 fe
	ff ff 00	 mov	 BYTE PTR _moji$[ebp+edx], 0

; 692  : 									splitPoint += 21;

  0033c	8b 85 bc fe ff
	ff		 mov	 eax, DWORD PTR _splitPoint$6[ebp]
  00342	83 c0 15	 add	 eax, 21			; 00000015H
  00345	89 85 bc fe ff
	ff		 mov	 DWORD PTR _splitPoint$6[ebp], eax

; 693  : 								}else{

  0034b	eb 3e		 jmp	 SHORT $LN78@BattleButt
$LN77@BattleButt:

; 694  : 									moji[ 22 ] = NULL;

  0034d	b8 01 00 00 00	 mov	 eax, 1
  00352	6b c8 16	 imul	 ecx, eax, 22
  00355	89 8d c0 fd ff
	ff		 mov	 DWORD PTR $T1[ebp], ecx
  0035b	81 bd c0 fd ff
	ff 00 01 00 00	 cmp	 DWORD PTR $T1[ebp], 256	; 00000100H
  00365	73 02		 jae	 SHORT $LN173@BattleButt
  00367	eb 05		 jmp	 SHORT $LN174@BattleButt
$LN173@BattleButt:
  00369	e8 00 00 00 00	 call	 ___report_rangecheckfailure
$LN174@BattleButt:
  0036e	8b 95 c0 fd ff
	ff		 mov	 edx, DWORD PTR $T1[ebp]
  00374	c6 84 15 c8 fe
	ff ff 00	 mov	 BYTE PTR _moji$[ebp+edx], 0

; 695  : 									splitPoint += 22;

  0037c	8b 85 bc fe ff
	ff		 mov	 eax, DWORD PTR _splitPoint$6[ebp]
  00382	83 c0 16	 add	 eax, 22			; 00000016H
  00385	89 85 bc fe ff
	ff		 mov	 DWORD PTR _splitPoint$6[ebp], eax
$LN78@BattleButt:

; 696  : 								}
; 697  : 								StockFontBuffer( x, y, FONT_PRIO_FRONT, 0, moji, 0 ); y += 24;

  0038b	6a 00		 push	 0
  0038d	8d 85 c8 fe ff
	ff		 lea	 eax, DWORD PTR _moji$[ebp]
  00393	50		 push	 eax
  00394	6a 00		 push	 0
  00396	6a 01		 push	 1
  00398	8b 4d dc	 mov	 ecx, DWORD PTR _y$[ebp]
  0039b	51		 push	 ecx
  0039c	8b 55 e8	 mov	 edx, DWORD PTR _x$[ebp]
  0039f	52		 push	 edx
  003a0	e8 00 00 00 00	 call	 ?StockFontBuffer@@YAHHHDHPADH@Z ; StockFontBuffer
  003a5	83 c4 18	 add	 esp, 24			; 00000018H
  003a8	8b 45 dc	 mov	 eax, DWORD PTR _y$[ebp]
  003ab	83 c0 18	 add	 eax, 24			; 00000018H
  003ae	89 45 dc	 mov	 DWORD PTR _y$[ebp], eax

; 698  : 							}else{

  003b1	eb 35		 jmp	 SHORT $LN76@BattleButt
$LN75@BattleButt:

; 699  : 								strcpy( moji, splitPoint );

  003b3	8b 85 bc fe ff
	ff		 mov	 eax, DWORD PTR _splitPoint$6[ebp]
  003b9	50		 push	 eax
  003ba	8d 8d c8 fe ff
	ff		 lea	 ecx, DWORD PTR _moji$[ebp]
  003c0	51		 push	 ecx
  003c1	e8 00 00 00 00	 call	 _strcpy
  003c6	83 c4 08	 add	 esp, 8

; 700  : 								StockFontBuffer( x, y, FONT_PRIO_FRONT, 0, moji, 0 );

  003c9	6a 00		 push	 0
  003cb	8d 85 c8 fe ff
	ff		 lea	 eax, DWORD PTR _moji$[ebp]
  003d1	50		 push	 eax
  003d2	6a 00		 push	 0
  003d4	6a 01		 push	 1
  003d6	8b 4d dc	 mov	 ecx, DWORD PTR _y$[ebp]
  003d9	51		 push	 ecx
  003da	8b 55 e8	 mov	 edx, DWORD PTR _x$[ebp]
  003dd	52		 push	 edx
  003de	e8 00 00 00 00	 call	 ?StockFontBuffer@@YAHHHDHPADH@Z ; StockFontBuffer
  003e3	83 c4 18	 add	 esp, 24			; 00000018H

; 701  : 								break;

  003e6	eb 05		 jmp	 SHORT $LN9@BattleButt
$LN76@BattleButt:

; 702  : 							}
; 703  : 						}

  003e8	e9 96 fe ff ff	 jmp	 $LN8@BattleButt
$LN9@BattleButt:

; 704  : 
; 705  : 						StockDispBuffer( pActWnd->x + 37, pActWnd->y + 220, DISP_PRIO_ITEM, pc.item[ i ].graNo, 0 );

  003ed	6a 00		 push	 0
  003ef	69 45 f4 7c 01
	00 00		 imul	 eax, DWORD PTR _i$[ebp], 380
  003f6	8b 88 c8 00 00
	00		 mov	 ecx, DWORD PTR ?pc@@3UPC@@A[eax+200]
  003fc	51		 push	 ecx
  003fd	6a 6c		 push	 108			; 0000006cH
  003ff	8b 15 00 00 00
	00		 mov	 edx, DWORD PTR ?pActWnd@@3PAUaction@@A
  00405	8b 42 1c	 mov	 eax, DWORD PTR [edx+28]
  00408	05 dc 00 00 00	 add	 eax, 220		; 000000dcH
  0040d	50		 push	 eax
  0040e	8b 0d 00 00 00
	00		 mov	 ecx, DWORD PTR ?pActWnd@@3PAUaction@@A
  00414	8b 51 18	 mov	 edx, DWORD PTR [ecx+24]
  00417	83 c2 25	 add	 edx, 37			; 00000025H
  0041a	52		 push	 edx
  0041b	e8 00 00 00 00	 call	 ?StockDispBuffer@@YAHHHEHH@Z ; StockDispBuffer
  00420	83 c4 14	 add	 esp, 20			; 00000014H

; 706  : 
; 707  : 						if( mouse.onceState & MOUSE_LEFT_CRICK ){

  00423	a1 2c 00 00 00	 mov	 eax, DWORD PTR ?mouse@@3UMOUSE@@A+44
  00428	83 e0 01	 and	 eax, 1
  0042b	0f 84 70 0c 00
	00		 je	 $LN74@BattleButt

; 708  : 
; 709  : 							if( magic[ i ].field == MAGIC_FIELD_MAP || magic[ i ].mp > p_party[ BattleMyNo ]->mp ){

  00431	6b 45 f4 70	 imul	 eax, DWORD PTR _i$[ebp], 112
  00435	0f bf 88 08 00
	00 00		 movsx	 ecx, WORD PTR ?magic@@3PAUMAGIC@@A[eax+8]
  0043c	83 f9 02	 cmp	 ecx, 2
  0043f	74 1f		 je	 SHORT $LN82@BattleButt
  00441	6b 45 f4 70	 imul	 eax, DWORD PTR _i$[ebp], 112
  00445	8b 0d 00 00 00
	00		 mov	 ecx, DWORD PTR ?BattleMyNo@@3HA ; BattleMyNo
  0044b	8b 14 8d 00 00
	00 00		 mov	 edx, DWORD PTR ?p_party@@3PAPAUaction@@A[ecx*4]
  00452	8b 80 04 00 00
	00		 mov	 eax, DWORD PTR ?magic@@3PAUMAGIC@@A[eax+4]
  00458	3b 82 84 00 00
	00		 cmp	 eax, DWORD PTR [edx+132]
  0045e	7e 1c		 jle	 SHORT $LN80@BattleButt
$LN82@BattleButt:

; 710  : 								play_se( 220, 320, 240 );

  00460	68 f0 00 00 00	 push	 240			; 000000f0H
  00465	68 40 01 00 00	 push	 320			; 00000140H
  0046a	68 dc 00 00 00	 push	 220			; 000000dcH
  0046f	e8 00 00 00 00	 call	 ?play_se@@YAHHHH@Z	; play_se
  00474	83 c4 0c	 add	 esp, 12			; 0000000cH

; 711  : 							}else{ 

  00477	e9 25 0c 00 00	 jmp	 $LN74@BattleButt
$LN80@BattleButt:

; 712  : 								BattleJujutuNo = i;

  0047c	8b 45 f4	 mov	 eax, DWORD PTR _i$[ebp]
  0047f	a3 00 00 00 00	 mov	 DWORD PTR ?BattleJujutuNo@@3HA, eax ; BattleJujutuNo

; 713  : 
; 714  : 								battleTargetSelectFlag = TRUE;

  00484	c7 05 00 00 00
	00 01 00 00 00	 mov	 DWORD PTR ?battleTargetSelectFlag@@3HA, 1

; 715  : 
; 716  : 								switch( magic[ i ].target ){

  0048e	6b 45 f4 70	 imul	 eax, DWORD PTR _i$[ebp], 112
  00492	0f bf 88 0a 00
	00 00		 movsx	 ecx, WORD PTR ?magic@@3PAUMAGIC@@A[eax+10]
  00499	89 8d b8 fd ff
	ff		 mov	 DWORD PTR tv250[ebp], ecx
  0049f	83 bd b8 fd ff
	ff 0b		 cmp	 DWORD PTR tv250[ebp], 11 ; 0000000bH
  004a6	0f 87 f5 0b 00
	00		 ja	 $LN74@BattleButt
  004ac	8b 95 b8 fd ff
	ff		 mov	 edx, DWORD PTR tv250[ebp]
  004b2	ff 24 95 00 00
	00 00		 jmp	 DWORD PTR $LN178@BattleButt[edx*4]
$LN83@BattleButt:

; 717  : 								case MAGIC_TARGET_MYSELF:
; 718  : 
; 719  : 									p_party[ BattleMyNo ]->atr |= ACT_ATR_HIT_BOX;

  004b9	a1 00 00 00 00	 mov	 eax, DWORD PTR ?BattleMyNo@@3HA ; BattleMyNo
  004be	8b 0c 85 00 00
	00 00		 mov	 ecx, DWORD PTR ?p_party@@3PAPAUaction@@A[eax*4]
  004c5	8b 91 a4 00 00
	00		 mov	 edx, DWORD PTR [ecx+164]
  004cb	83 ca 08	 or	 edx, 8
  004ce	a1 00 00 00 00	 mov	 eax, DWORD PTR ?BattleMyNo@@3HA ; BattleMyNo
  004d3	8b 0c 85 00 00
	00 00		 mov	 ecx, DWORD PTR ?p_party@@3PAPAUaction@@A[eax*4]
  004da	89 91 a4 00 00
	00		 mov	 DWORD PTR [ecx+164], edx

; 720  : 
; 721  : 									battleTargetSelectFlag = TRUE;

  004e0	c7 05 00 00 00
	00 01 00 00 00	 mov	 DWORD PTR ?battleTargetSelectFlag@@3HA, 1

; 722  : 									DeathAction( pActWnd );

  004ea	a1 00 00 00 00	 mov	 eax, DWORD PTR ?pActWnd@@3PAUaction@@A
  004ef	50		 push	 eax
  004f0	e8 00 00 00 00	 call	 ?DeathAction@@YAXPAUaction@@@Z ; DeathAction
  004f5	83 c4 04	 add	 esp, 4

; 723  : 									pActWnd = NULL;

  004f8	c7 05 00 00 00
	00 00 00 00 00	 mov	 DWORD PTR ?pActWnd@@3PAUaction@@A, 0

; 724  : 
; 725  : 									ClearBattleButton();

  00502	e8 00 00 00 00	 call	 ?ClearBattleButton@@YAXXZ ; ClearBattleButton

; 726  : 
; 727  : 									BattleCmdNo = BATTLE_JUJUTU;

  00507	c7 05 00 00 00
	00 01 00 00 00	 mov	 DWORD PTR ?BattleCmdNo@@3HA, 1 ; BattleCmdNo

; 728  : 
; 729  : 									play_se( 217, 320, 240 );

  00511	68 f0 00 00 00	 push	 240			; 000000f0H
  00516	68 40 01 00 00	 push	 320			; 00000140H
  0051b	68 d9 00 00 00	 push	 217			; 000000d9H
  00520	e8 00 00 00 00	 call	 ?play_se@@YAHHHH@Z	; play_se
  00525	83 c4 0c	 add	 esp, 12			; 0000000cH

; 730  : 									break;

  00528	e9 74 0b 00 00	 jmp	 $LN74@BattleButt
$LN84@BattleButt:

; 731  : 									
; 732  : 								case MAGIC_TARGET_OTHER:
; 733  : 
; 734  : 									for( i = 0 ; i < 20 ; i++ ){

  0052d	c7 45 f4 00 00
	00 00		 mov	 DWORD PTR _i$[ebp], 0
  00534	eb 09		 jmp	 SHORT $LN14@BattleButt
$LN12@BattleButt:
  00536	8b 45 f4	 mov	 eax, DWORD PTR _i$[ebp]
  00539	83 c0 01	 add	 eax, 1
  0053c	89 45 f4	 mov	 DWORD PTR _i$[ebp], eax
$LN14@BattleButt:
  0053f	83 7d f4 14	 cmp	 DWORD PTR _i$[ebp], 20	; 00000014H
  00543	7d 5b		 jge	 SHORT $LN13@BattleButt

; 735  : 
; 736  : 										if( p_party[ i ]->func == NULL ) continue;

  00545	8b 45 f4	 mov	 eax, DWORD PTR _i$[ebp]
  00548	8b 0c 85 00 00
	00 00		 mov	 ecx, DWORD PTR ?p_party@@3PAPAUaction@@A[eax*4]
  0054f	83 79 08 00	 cmp	 DWORD PTR [ecx+8], 0
  00553	75 02		 jne	 SHORT $LN85@BattleButt
  00555	eb df		 jmp	 SHORT $LN12@BattleButt
$LN85@BattleButt:

; 737  : 
; 738  : 										if( magic[ BattleJujutuNo ].deadTargetFlag == FALSE )

  00557	6b 05 00 00 00
	00 70		 imul	 eax, DWORD PTR ?BattleJujutuNo@@3HA, 112 ; BattleJujutuNo
  0055e	0f bf 88 0c 00
	00 00		 movsx	 ecx, WORD PTR ?magic@@3PAUMAGIC@@A[eax+12]
  00565	85 c9		 test	 ecx, ecx
  00567	75 12		 jne	 SHORT $LN86@BattleButt

; 739  : 											if( p_party[ i ]->hp <= 0 ) continue;

  00569	8b 45 f4	 mov	 eax, DWORD PTR _i$[ebp]
  0056c	8b 0c 85 00 00
	00 00		 mov	 ecx, DWORD PTR ?p_party@@3PAPAUaction@@A[eax*4]
  00573	83 79 78 00	 cmp	 DWORD PTR [ecx+120], 0
  00577	7f 02		 jg	 SHORT $LN86@BattleButt
  00579	eb bb		 jmp	 SHORT $LN12@BattleButt
$LN86@BattleButt:

; 740  : 
; 741  : 										p_party[ i ]->atr |= ACT_ATR_HIT_BOX;

  0057b	8b 45 f4	 mov	 eax, DWORD PTR _i$[ebp]
  0057e	8b 0c 85 00 00
	00 00		 mov	 ecx, DWORD PTR ?p_party@@3PAPAUaction@@A[eax*4]
  00585	8b 91 a4 00 00
	00		 mov	 edx, DWORD PTR [ecx+164]
  0058b	83 ca 08	 or	 edx, 8
  0058e	8b 45 f4	 mov	 eax, DWORD PTR _i$[ebp]
  00591	8b 0c 85 00 00
	00 00		 mov	 ecx, DWORD PTR ?p_party@@3PAPAUaction@@A[eax*4]
  00598	89 91 a4 00 00
	00		 mov	 DWORD PTR [ecx+164], edx

; 742  : 									}

  0059e	eb 96		 jmp	 SHORT $LN12@BattleButt
$LN13@BattleButt:

; 743  : 
; 744  : 									battleTargetSelectFlag = TRUE;

  005a0	c7 05 00 00 00
	00 01 00 00 00	 mov	 DWORD PTR ?battleTargetSelectFlag@@3HA, 1

; 745  : 
; 746  : 									DeathAction( pActWnd );

  005aa	a1 00 00 00 00	 mov	 eax, DWORD PTR ?pActWnd@@3PAUaction@@A
  005af	50		 push	 eax
  005b0	e8 00 00 00 00	 call	 ?DeathAction@@YAXPAUaction@@@Z ; DeathAction
  005b5	83 c4 04	 add	 esp, 4

; 747  : 									pActWnd = NULL;

  005b8	c7 05 00 00 00
	00 00 00 00 00	 mov	 DWORD PTR ?pActWnd@@3PAUaction@@A, 0

; 748  : 
; 749  : 									ClearBattleButton();

  005c2	e8 00 00 00 00	 call	 ?ClearBattleButton@@YAXXZ ; ClearBattleButton

; 750  : 
; 751  : 									BattleCmdNo = BATTLE_JUJUTU;

  005c7	c7 05 00 00 00
	00 01 00 00 00	 mov	 DWORD PTR ?BattleCmdNo@@3HA, 1 ; BattleCmdNo

; 752  : 
; 753  : 									play_se( 217, 320, 240 );

  005d1	68 f0 00 00 00	 push	 240			; 000000f0H
  005d6	68 40 01 00 00	 push	 320			; 00000140H
  005db	68 d9 00 00 00	 push	 217			; 000000d9H
  005e0	e8 00 00 00 00	 call	 ?play_se@@YAHHHH@Z	; play_se
  005e5	83 c4 0c	 add	 esp, 12			; 0000000cH

; 754  : 									break;

  005e8	e9 b4 0a 00 00	 jmp	 $LN74@BattleButt
$LN88@BattleButt:

; 755  : 
; 756  : 								#ifdef  __ATTACK_MAGIC
; 757  : 
; 758  : 								case MAGIC_TARGET_SINGLE:
; 759  : 
; 760  : 									if( BattleMyNo < 10 )

  005ed	83 3d 00 00 00
	00 0a		 cmp	 DWORD PTR ?BattleMyNo@@3HA, 10 ; BattleMyNo, 0000000aH
  005f4	7d 75		 jge	 SHORT $LN89@BattleButt

; 761  : 									{
; 762  : 										for( i = 10 ; i < 20 ; i++ )

  005f6	c7 45 f4 0a 00
	00 00		 mov	 DWORD PTR _i$[ebp], 10	; 0000000aH
  005fd	eb 09		 jmp	 SHORT $LN17@BattleButt
$LN15@BattleButt:
  005ff	8b 45 f4	 mov	 eax, DWORD PTR _i$[ebp]
  00602	83 c0 01	 add	 eax, 1
  00605	89 45 f4	 mov	 DWORD PTR _i$[ebp], eax
$LN17@BattleButt:
  00608	83 7d f4 14	 cmp	 DWORD PTR _i$[ebp], 20	; 00000014H
  0060c	7d 5b		 jge	 SHORT $LN16@BattleButt

; 763  : 										{
; 764  : 											if( p_party[i]->func == NULL )

  0060e	8b 45 f4	 mov	 eax, DWORD PTR _i$[ebp]
  00611	8b 0c 85 00 00
	00 00		 mov	 ecx, DWORD PTR ?p_party@@3PAPAUaction@@A[eax*4]
  00618	83 79 08 00	 cmp	 DWORD PTR [ecx+8], 0
  0061c	75 02		 jne	 SHORT $LN91@BattleButt

; 765  : 												continue;

  0061e	eb df		 jmp	 SHORT $LN15@BattleButt
$LN91@BattleButt:

; 766  : 
; 767  : 											if( FALSE == magic[ BattleJujutuNo ].deadTargetFlag )

  00620	6b 05 00 00 00
	00 70		 imul	 eax, DWORD PTR ?BattleJujutuNo@@3HA, 112 ; BattleJujutuNo
  00627	0f bf 88 0c 00
	00 00		 movsx	 ecx, WORD PTR ?magic@@3PAUMAGIC@@A[eax+12]
  0062e	85 c9		 test	 ecx, ecx
  00630	75 12		 jne	 SHORT $LN92@BattleButt

; 768  : 												if( p_party[ i ]->hp <= 0 )

  00632	8b 45 f4	 mov	 eax, DWORD PTR _i$[ebp]
  00635	8b 0c 85 00 00
	00 00		 mov	 ecx, DWORD PTR ?p_party@@3PAPAUaction@@A[eax*4]
  0063c	83 79 78 00	 cmp	 DWORD PTR [ecx+120], 0
  00640	7f 02		 jg	 SHORT $LN92@BattleButt

; 769  : 													continue;

  00642	eb bb		 jmp	 SHORT $LN15@BattleButt
$LN92@BattleButt:

; 770  : 
; 771  : 											p_party[ i ]->atr |= ACT_ATR_HIT_BOX;

  00644	8b 45 f4	 mov	 eax, DWORD PTR _i$[ebp]
  00647	8b 0c 85 00 00
	00 00		 mov	 ecx, DWORD PTR ?p_party@@3PAPAUaction@@A[eax*4]
  0064e	8b 91 a4 00 00
	00		 mov	 edx, DWORD PTR [ecx+164]
  00654	83 ca 08	 or	 edx, 8
  00657	8b 45 f4	 mov	 eax, DWORD PTR _i$[ebp]
  0065a	8b 0c 85 00 00
	00 00		 mov	 ecx, DWORD PTR ?p_party@@3PAPAUaction@@A[eax*4]
  00661	89 91 a4 00 00
	00		 mov	 DWORD PTR [ecx+164], edx

; 772  : 										}

  00667	eb 96		 jmp	 SHORT $LN15@BattleButt
$LN16@BattleButt:

; 773  : 									}
; 774  : 									else

  00669	eb 73		 jmp	 SHORT $LN90@BattleButt
$LN89@BattleButt:

; 775  : 									{
; 776  : 										for( i = 0 ; i < 10 ; i++ )

  0066b	c7 45 f4 00 00
	00 00		 mov	 DWORD PTR _i$[ebp], 0
  00672	eb 09		 jmp	 SHORT $LN20@BattleButt
$LN18@BattleButt:
  00674	8b 45 f4	 mov	 eax, DWORD PTR _i$[ebp]
  00677	83 c0 01	 add	 eax, 1
  0067a	89 45 f4	 mov	 DWORD PTR _i$[ebp], eax
$LN20@BattleButt:
  0067d	83 7d f4 0a	 cmp	 DWORD PTR _i$[ebp], 10	; 0000000aH
  00681	7d 5b		 jge	 SHORT $LN90@BattleButt

; 777  : 										{
; 778  : 											if( p_party[i]->func == NULL )

  00683	8b 45 f4	 mov	 eax, DWORD PTR _i$[ebp]
  00686	8b 0c 85 00 00
	00 00		 mov	 ecx, DWORD PTR ?p_party@@3PAPAUaction@@A[eax*4]
  0068d	83 79 08 00	 cmp	 DWORD PTR [ecx+8], 0
  00691	75 02		 jne	 SHORT $LN94@BattleButt

; 779  : 												continue;

  00693	eb df		 jmp	 SHORT $LN18@BattleButt
$LN94@BattleButt:

; 780  : 
; 781  : 											if( FALSE == magic[ BattleJujutuNo ].deadTargetFlag )

  00695	6b 05 00 00 00
	00 70		 imul	 eax, DWORD PTR ?BattleJujutuNo@@3HA, 112 ; BattleJujutuNo
  0069c	0f bf 88 0c 00
	00 00		 movsx	 ecx, WORD PTR ?magic@@3PAUMAGIC@@A[eax+12]
  006a3	85 c9		 test	 ecx, ecx
  006a5	75 12		 jne	 SHORT $LN95@BattleButt

; 782  : 												if( p_party[ i ]->hp <= 0 )

  006a7	8b 45 f4	 mov	 eax, DWORD PTR _i$[ebp]
  006aa	8b 0c 85 00 00
	00 00		 mov	 ecx, DWORD PTR ?p_party@@3PAPAUaction@@A[eax*4]
  006b1	83 79 78 00	 cmp	 DWORD PTR [ecx+120], 0
  006b5	7f 02		 jg	 SHORT $LN95@BattleButt

; 783  : 													continue;

  006b7	eb bb		 jmp	 SHORT $LN18@BattleButt
$LN95@BattleButt:

; 784  : 
; 785  : 											p_party[ i ]->atr |= ACT_ATR_HIT_BOX;

  006b9	8b 45 f4	 mov	 eax, DWORD PTR _i$[ebp]
  006bc	8b 0c 85 00 00
	00 00		 mov	 ecx, DWORD PTR ?p_party@@3PAPAUaction@@A[eax*4]
  006c3	8b 91 a4 00 00
	00		 mov	 edx, DWORD PTR [ecx+164]
  006c9	83 ca 08	 or	 edx, 8
  006cc	8b 45 f4	 mov	 eax, DWORD PTR _i$[ebp]
  006cf	8b 0c 85 00 00
	00 00		 mov	 ecx, DWORD PTR ?p_party@@3PAPAUaction@@A[eax*4]
  006d6	89 91 a4 00 00
	00		 mov	 DWORD PTR [ecx+164], edx

; 786  : 										}

  006dc	eb 96		 jmp	 SHORT $LN18@BattleButt
$LN90@BattleButt:

; 787  : 									}
; 788  : 
; 789  : 									battleTargetSelectFlag = TRUE;

  006de	c7 05 00 00 00
	00 01 00 00 00	 mov	 DWORD PTR ?battleTargetSelectFlag@@3HA, 1

; 790  : 									DeathAction( pActWnd );

  006e8	a1 00 00 00 00	 mov	 eax, DWORD PTR ?pActWnd@@3PAUaction@@A
  006ed	50		 push	 eax
  006ee	e8 00 00 00 00	 call	 ?DeathAction@@YAXPAUaction@@@Z ; DeathAction
  006f3	83 c4 04	 add	 esp, 4

; 791  : 									pActWnd	= NULL;

  006f6	c7 05 00 00 00
	00 00 00 00 00	 mov	 DWORD PTR ?pActWnd@@3PAUaction@@A, 0

; 792  : 									ClearBattleButton();

  00700	e8 00 00 00 00	 call	 ?ClearBattleButton@@YAXXZ ; ClearBattleButton

; 793  : 									BattleCmdNo = BATTLE_JUJUTU;

  00705	c7 05 00 00 00
	00 01 00 00 00	 mov	 DWORD PTR ?BattleCmdNo@@3HA, 1 ; BattleCmdNo

; 794  : 									play_se( 217 , 320 , 240 );

  0070f	68 f0 00 00 00	 push	 240			; 000000f0H
  00714	68 40 01 00 00	 push	 320			; 00000140H
  00719	68 d9 00 00 00	 push	 217			; 000000d9H
  0071e	e8 00 00 00 00	 call	 ?play_se@@YAHHHH@Z	; play_se
  00723	83 c4 0c	 add	 esp, 12			; 0000000cH

; 795  : 
; 796  : 									break;

  00726	e9 76 09 00 00	 jmp	 $LN74@BattleButt
$LN97@BattleButt:

; 797  : 
; 798  : 								case MAGIC_TARGET_ONE_ROW:
; 799  : 
; 800  : 									for( i = 0 ; i < 5 ; i++ )

  0072b	c7 45 f4 00 00
	00 00		 mov	 DWORD PTR _i$[ebp], 0
  00732	eb 09		 jmp	 SHORT $LN23@BattleButt
$LN21@BattleButt:
  00734	8b 45 f4	 mov	 eax, DWORD PTR _i$[ebp]
  00737	83 c0 01	 add	 eax, 1
  0073a	89 45 f4	 mov	 DWORD PTR _i$[ebp], eax
$LN23@BattleButt:
  0073d	83 7d f4 05	 cmp	 DWORD PTR _i$[ebp], 5
  00741	7d 7b		 jge	 SHORT $LN22@BattleButt

; 801  : 									{
; 802  : 										if( p_party[i]->func == NULL )

  00743	8b 45 f4	 mov	 eax, DWORD PTR _i$[ebp]
  00746	8b 0c 85 00 00
	00 00		 mov	 ecx, DWORD PTR ?p_party@@3PAPAUaction@@A[eax*4]
  0074d	83 79 08 00	 cmp	 DWORD PTR [ecx+8], 0
  00751	75 02		 jne	 SHORT $LN98@BattleButt

; 803  : 											continue;

  00753	eb df		 jmp	 SHORT $LN21@BattleButt
$LN98@BattleButt:

; 804  : 
; 805  : 										if( FALSE == magic[BattleJujutuNo].deadTargetFlag )

  00755	6b 05 00 00 00
	00 70		 imul	 eax, DWORD PTR ?BattleJujutuNo@@3HA, 112 ; BattleJujutuNo
  0075c	0f bf 88 0c 00
	00 00		 movsx	 ecx, WORD PTR ?magic@@3PAUMAGIC@@A[eax+12]
  00763	85 c9		 test	 ecx, ecx
  00765	75 12		 jne	 SHORT $LN99@BattleButt

; 806  : 											if( p_party[i]->hp <= 0 )

  00767	8b 45 f4	 mov	 eax, DWORD PTR _i$[ebp]
  0076a	8b 0c 85 00 00
	00 00		 mov	 ecx, DWORD PTR ?p_party@@3PAPAUaction@@A[eax*4]
  00771	83 79 78 00	 cmp	 DWORD PTR [ecx+120], 0
  00775	7f 02		 jg	 SHORT $LN99@BattleButt

; 807  : 												continue;

  00777	eb bb		 jmp	 SHORT $LN21@BattleButt
$LN99@BattleButt:

; 808  : 
; 809  : 										if( p_party[i]->atr & ACT_ATR_TRAVEL )

  00779	8b 45 f4	 mov	 eax, DWORD PTR _i$[ebp]
  0077c	8b 0c 85 00 00
	00 00		 mov	 ecx, DWORD PTR ?p_party@@3PAPAUaction@@A[eax*4]
  00783	8b 91 a4 00 00
	00		 mov	 edx, DWORD PTR [ecx+164]
  00789	81 e2 00 00 02
	00		 and	 edx, 131072		; 00020000H
  0078f	74 02		 je	 SHORT $LN101@BattleButt

; 810  : 											continue;

  00791	eb a1		 jmp	 SHORT $LN21@BattleButt
$LN101@BattleButt:

; 811  : 
; 812  : 										// 右下第二列
; 813  : 										p_party[i]->atr |= ACT_ATR_HIT_BOX_COL4;

  00793	8b 45 f4	 mov	 eax, DWORD PTR _i$[ebp]
  00796	8b 0c 85 00 00
	00 00		 mov	 ecx, DWORD PTR ?p_party@@3PAPAUaction@@A[eax*4]
  0079d	8b 91 a4 00 00
	00		 mov	 edx, DWORD PTR [ecx+164]
  007a3	81 ca 00 00 20
	00		 or	 edx, 2097152		; 00200000H
  007a9	8b 45 f4	 mov	 eax, DWORD PTR _i$[ebp]
  007ac	8b 0c 85 00 00
	00 00		 mov	 ecx, DWORD PTR ?p_party@@3PAPAUaction@@A[eax*4]
  007b3	89 91 a4 00 00
	00		 mov	 DWORD PTR [ecx+164], edx

; 814  : 									}

  007b9	e9 76 ff ff ff	 jmp	 $LN21@BattleButt
$LN22@BattleButt:

; 815  : 
; 816  : 									for( i = 5 ; i < 10 ; i++ )

  007be	c7 45 f4 05 00
	00 00		 mov	 DWORD PTR _i$[ebp], 5
  007c5	eb 09		 jmp	 SHORT $LN26@BattleButt
$LN24@BattleButt:
  007c7	8b 45 f4	 mov	 eax, DWORD PTR _i$[ebp]
  007ca	83 c0 01	 add	 eax, 1
  007cd	89 45 f4	 mov	 DWORD PTR _i$[ebp], eax
$LN26@BattleButt:
  007d0	83 7d f4 0a	 cmp	 DWORD PTR _i$[ebp], 10	; 0000000aH
  007d4	7d 7b		 jge	 SHORT $LN25@BattleButt

; 817  : 									{
; 818  : 										if( p_party[i]->func == NULL )

  007d6	8b 45 f4	 mov	 eax, DWORD PTR _i$[ebp]
  007d9	8b 0c 85 00 00
	00 00		 mov	 ecx, DWORD PTR ?p_party@@3PAPAUaction@@A[eax*4]
  007e0	83 79 08 00	 cmp	 DWORD PTR [ecx+8], 0
  007e4	75 02		 jne	 SHORT $LN102@BattleButt

; 819  : 											continue;

  007e6	eb df		 jmp	 SHORT $LN24@BattleButt
$LN102@BattleButt:

; 820  : 
; 821  : 										if( FALSE == magic[BattleJujutuNo].deadTargetFlag )

  007e8	6b 05 00 00 00
	00 70		 imul	 eax, DWORD PTR ?BattleJujutuNo@@3HA, 112 ; BattleJujutuNo
  007ef	0f bf 88 0c 00
	00 00		 movsx	 ecx, WORD PTR ?magic@@3PAUMAGIC@@A[eax+12]
  007f6	85 c9		 test	 ecx, ecx
  007f8	75 12		 jne	 SHORT $LN103@BattleButt

; 822  : 											if( p_party[i]->hp <= 0 )

  007fa	8b 45 f4	 mov	 eax, DWORD PTR _i$[ebp]
  007fd	8b 0c 85 00 00
	00 00		 mov	 ecx, DWORD PTR ?p_party@@3PAPAUaction@@A[eax*4]
  00804	83 79 78 00	 cmp	 DWORD PTR [ecx+120], 0
  00808	7f 02		 jg	 SHORT $LN103@BattleButt

; 823  : 												continue;

  0080a	eb bb		 jmp	 SHORT $LN24@BattleButt
$LN103@BattleButt:

; 824  : 
; 825  : 										if( p_party[i]->atr & ACT_ATR_TRAVEL )

  0080c	8b 45 f4	 mov	 eax, DWORD PTR _i$[ebp]
  0080f	8b 0c 85 00 00
	00 00		 mov	 ecx, DWORD PTR ?p_party@@3PAPAUaction@@A[eax*4]
  00816	8b 91 a4 00 00
	00		 mov	 edx, DWORD PTR [ecx+164]
  0081c	81 e2 00 00 02
	00		 and	 edx, 131072		; 00020000H
  00822	74 02		 je	 SHORT $LN105@BattleButt

; 826  : 											continue;

  00824	eb a1		 jmp	 SHORT $LN24@BattleButt
$LN105@BattleButt:

; 827  : 
; 828  : 										// 右下第一列
; 829  : 										p_party[i]->atr |= ACT_ATR_HIT_BOX_COL3;

  00826	8b 45 f4	 mov	 eax, DWORD PTR _i$[ebp]
  00829	8b 0c 85 00 00
	00 00		 mov	 ecx, DWORD PTR ?p_party@@3PAPAUaction@@A[eax*4]
  00830	8b 91 a4 00 00
	00		 mov	 edx, DWORD PTR [ecx+164]
  00836	81 ca 00 00 10
	00		 or	 edx, 1048576		; 00100000H
  0083c	8b 45 f4	 mov	 eax, DWORD PTR _i$[ebp]
  0083f	8b 0c 85 00 00
	00 00		 mov	 ecx, DWORD PTR ?p_party@@3PAPAUaction@@A[eax*4]
  00846	89 91 a4 00 00
	00		 mov	 DWORD PTR [ecx+164], edx

; 830  : 									}

  0084c	e9 76 ff ff ff	 jmp	 $LN24@BattleButt
$LN25@BattleButt:

; 831  : 
; 832  : 									for( i = 10 ; i < 15 ; i++ )

  00851	c7 45 f4 0a 00
	00 00		 mov	 DWORD PTR _i$[ebp], 10	; 0000000aH
  00858	eb 09		 jmp	 SHORT $LN29@BattleButt
$LN27@BattleButt:
  0085a	8b 45 f4	 mov	 eax, DWORD PTR _i$[ebp]
  0085d	83 c0 01	 add	 eax, 1
  00860	89 45 f4	 mov	 DWORD PTR _i$[ebp], eax
$LN29@BattleButt:
  00863	83 7d f4 0f	 cmp	 DWORD PTR _i$[ebp], 15	; 0000000fH
  00867	7d 7b		 jge	 SHORT $LN28@BattleButt

; 833  : 									{
; 834  : 										if( p_party[i]->func == NULL )

  00869	8b 45 f4	 mov	 eax, DWORD PTR _i$[ebp]
  0086c	8b 0c 85 00 00
	00 00		 mov	 ecx, DWORD PTR ?p_party@@3PAPAUaction@@A[eax*4]
  00873	83 79 08 00	 cmp	 DWORD PTR [ecx+8], 0
  00877	75 02		 jne	 SHORT $LN106@BattleButt

; 835  : 											continue;

  00879	eb df		 jmp	 SHORT $LN27@BattleButt
$LN106@BattleButt:

; 836  : 
; 837  : 										if( FALSE == magic[BattleJujutuNo].deadTargetFlag )

  0087b	6b 05 00 00 00
	00 70		 imul	 eax, DWORD PTR ?BattleJujutuNo@@3HA, 112 ; BattleJujutuNo
  00882	0f bf 88 0c 00
	00 00		 movsx	 ecx, WORD PTR ?magic@@3PAUMAGIC@@A[eax+12]
  00889	85 c9		 test	 ecx, ecx
  0088b	75 12		 jne	 SHORT $LN107@BattleButt

; 838  : 											if( p_party[i]->hp <= 0 )

  0088d	8b 45 f4	 mov	 eax, DWORD PTR _i$[ebp]
  00890	8b 0c 85 00 00
	00 00		 mov	 ecx, DWORD PTR ?p_party@@3PAPAUaction@@A[eax*4]
  00897	83 79 78 00	 cmp	 DWORD PTR [ecx+120], 0
  0089b	7f 02		 jg	 SHORT $LN107@BattleButt

; 839  : 												continue;

  0089d	eb bb		 jmp	 SHORT $LN27@BattleButt
$LN107@BattleButt:

; 840  : 
; 841  : 										if( p_party[i]->atr & ACT_ATR_TRAVEL )

  0089f	8b 45 f4	 mov	 eax, DWORD PTR _i$[ebp]
  008a2	8b 0c 85 00 00
	00 00		 mov	 ecx, DWORD PTR ?p_party@@3PAPAUaction@@A[eax*4]
  008a9	8b 91 a4 00 00
	00		 mov	 edx, DWORD PTR [ecx+164]
  008af	81 e2 00 00 02
	00		 and	 edx, 131072		; 00020000H
  008b5	74 02		 je	 SHORT $LN109@BattleButt

; 842  : 											continue;

  008b7	eb a1		 jmp	 SHORT $LN27@BattleButt
$LN109@BattleButt:

; 843  : 
; 844  : 										// 左上第一列
; 845  : 										p_party[i]->atr |= ACT_ATR_HIT_BOX_COL1;

  008b9	8b 45 f4	 mov	 eax, DWORD PTR _i$[ebp]
  008bc	8b 0c 85 00 00
	00 00		 mov	 ecx, DWORD PTR ?p_party@@3PAPAUaction@@A[eax*4]
  008c3	8b 91 a4 00 00
	00		 mov	 edx, DWORD PTR [ecx+164]
  008c9	81 ca 00 00 04
	00		 or	 edx, 262144		; 00040000H
  008cf	8b 45 f4	 mov	 eax, DWORD PTR _i$[ebp]
  008d2	8b 0c 85 00 00
	00 00		 mov	 ecx, DWORD PTR ?p_party@@3PAPAUaction@@A[eax*4]
  008d9	89 91 a4 00 00
	00		 mov	 DWORD PTR [ecx+164], edx

; 846  : 									}

  008df	e9 76 ff ff ff	 jmp	 $LN27@BattleButt
$LN28@BattleButt:

; 847  : 
; 848  : 									for( i = 15 ; i < 20 ; i++ )

  008e4	c7 45 f4 0f 00
	00 00		 mov	 DWORD PTR _i$[ebp], 15	; 0000000fH
  008eb	eb 09		 jmp	 SHORT $LN32@BattleButt
$LN30@BattleButt:
  008ed	8b 45 f4	 mov	 eax, DWORD PTR _i$[ebp]
  008f0	83 c0 01	 add	 eax, 1
  008f3	89 45 f4	 mov	 DWORD PTR _i$[ebp], eax
$LN32@BattleButt:
  008f6	83 7d f4 14	 cmp	 DWORD PTR _i$[ebp], 20	; 00000014H
  008fa	7d 7b		 jge	 SHORT $LN31@BattleButt

; 849  : 									{
; 850  : 										if( p_party[i]->func == NULL )

  008fc	8b 45 f4	 mov	 eax, DWORD PTR _i$[ebp]
  008ff	8b 0c 85 00 00
	00 00		 mov	 ecx, DWORD PTR ?p_party@@3PAPAUaction@@A[eax*4]
  00906	83 79 08 00	 cmp	 DWORD PTR [ecx+8], 0
  0090a	75 02		 jne	 SHORT $LN110@BattleButt

; 851  : 											continue;

  0090c	eb df		 jmp	 SHORT $LN30@BattleButt
$LN110@BattleButt:

; 852  : 
; 853  : 										if( FALSE == magic[BattleJujutuNo].deadTargetFlag )

  0090e	6b 05 00 00 00
	00 70		 imul	 eax, DWORD PTR ?BattleJujutuNo@@3HA, 112 ; BattleJujutuNo
  00915	0f bf 88 0c 00
	00 00		 movsx	 ecx, WORD PTR ?magic@@3PAUMAGIC@@A[eax+12]
  0091c	85 c9		 test	 ecx, ecx
  0091e	75 12		 jne	 SHORT $LN111@BattleButt

; 854  : 											if( p_party[i]->hp <= 0 )

  00920	8b 45 f4	 mov	 eax, DWORD PTR _i$[ebp]
  00923	8b 0c 85 00 00
	00 00		 mov	 ecx, DWORD PTR ?p_party@@3PAPAUaction@@A[eax*4]
  0092a	83 79 78 00	 cmp	 DWORD PTR [ecx+120], 0
  0092e	7f 02		 jg	 SHORT $LN111@BattleButt

; 855  : 												continue;

  00930	eb bb		 jmp	 SHORT $LN30@BattleButt
$LN111@BattleButt:

; 856  : 
; 857  : 										if( p_party[i]->atr & ACT_ATR_TRAVEL )

  00932	8b 45 f4	 mov	 eax, DWORD PTR _i$[ebp]
  00935	8b 0c 85 00 00
	00 00		 mov	 ecx, DWORD PTR ?p_party@@3PAPAUaction@@A[eax*4]
  0093c	8b 91 a4 00 00
	00		 mov	 edx, DWORD PTR [ecx+164]
  00942	81 e2 00 00 02
	00		 and	 edx, 131072		; 00020000H
  00948	74 02		 je	 SHORT $LN113@BattleButt

; 858  : 											continue;

  0094a	eb a1		 jmp	 SHORT $LN30@BattleButt
$LN113@BattleButt:

; 859  : 
; 860  : 										// 左上第二列
; 861  : 										p_party[i]->atr |= ACT_ATR_HIT_BOX_COL2;

  0094c	8b 45 f4	 mov	 eax, DWORD PTR _i$[ebp]
  0094f	8b 0c 85 00 00
	00 00		 mov	 ecx, DWORD PTR ?p_party@@3PAPAUaction@@A[eax*4]
  00956	8b 91 a4 00 00
	00		 mov	 edx, DWORD PTR [ecx+164]
  0095c	81 ca 00 00 08
	00		 or	 edx, 524288		; 00080000H
  00962	8b 45 f4	 mov	 eax, DWORD PTR _i$[ebp]
  00965	8b 0c 85 00 00
	00 00		 mov	 ecx, DWORD PTR ?p_party@@3PAPAUaction@@A[eax*4]
  0096c	89 91 a4 00 00
	00		 mov	 DWORD PTR [ecx+164], edx

; 862  : 									}

  00972	e9 76 ff ff ff	 jmp	 $LN30@BattleButt
$LN31@BattleButt:

; 863  : 
; 864  : 									battleTargetSelectFlag = TRUE;

  00977	c7 05 00 00 00
	00 01 00 00 00	 mov	 DWORD PTR ?battleTargetSelectFlag@@3HA, 1

; 865  : 									DeathAction( pActWnd );

  00981	a1 00 00 00 00	 mov	 eax, DWORD PTR ?pActWnd@@3PAUaction@@A
  00986	50		 push	 eax
  00987	e8 00 00 00 00	 call	 ?DeathAction@@YAXPAUaction@@@Z ; DeathAction
  0098c	83 c4 04	 add	 esp, 4

; 866  : 									pActWnd = NULL;

  0098f	c7 05 00 00 00
	00 00 00 00 00	 mov	 DWORD PTR ?pActWnd@@3PAUaction@@A, 0

; 867  : 									ClearBattleButton();

  00999	e8 00 00 00 00	 call	 ?ClearBattleButton@@YAXXZ ; ClearBattleButton

; 868  : 									BattleCmdNo = BATTLE_JUJUTU;

  0099e	c7 05 00 00 00
	00 01 00 00 00	 mov	 DWORD PTR ?BattleCmdNo@@3HA, 1 ; BattleCmdNo

; 869  : 									play_se( 217 , 320 , 240 );

  009a8	68 f0 00 00 00	 push	 240			; 000000f0H
  009ad	68 40 01 00 00	 push	 320			; 00000140H
  009b2	68 d9 00 00 00	 push	 217			; 000000d9H
  009b7	e8 00 00 00 00	 call	 ?play_se@@YAHHHH@Z	; play_se
  009bc	83 c4 0c	 add	 esp, 12			; 0000000cH

; 870  : 
; 871  : 									break;

  009bf	e9 dd 06 00 00	 jmp	 $LN74@BattleButt
$LN114@BattleButt:

; 872  : 								
; 873  : 								case MAGIC_TARGET_ALL_ROWS:
; 874  : 
; 875  : 									if( BattleMyNo >= 10 )

  009c4	83 3d 00 00 00
	00 0a		 cmp	 DWORD PTR ?BattleMyNo@@3HA, 10 ; BattleMyNo, 0000000aH
  009cb	0f 8c 98 00 00
	00		 jl	 $LN115@BattleButt

; 876  : 									{
; 877  : 										for( i = 0 ; i < 10 ; i++ )

  009d1	c7 45 f4 00 00
	00 00		 mov	 DWORD PTR _i$[ebp], 0
  009d8	eb 09		 jmp	 SHORT $LN35@BattleButt
$LN33@BattleButt:
  009da	8b 45 f4	 mov	 eax, DWORD PTR _i$[ebp]
  009dd	83 c0 01	 add	 eax, 1
  009e0	89 45 f4	 mov	 DWORD PTR _i$[ebp], eax
$LN35@BattleButt:
  009e3	83 7d f4 0a	 cmp	 DWORD PTR _i$[ebp], 10	; 0000000aH
  009e7	7d 7b		 jge	 SHORT $LN34@BattleButt

; 878  : 										{
; 879  : 											if( p_party[ i ]->func == NULL )

  009e9	8b 45 f4	 mov	 eax, DWORD PTR _i$[ebp]
  009ec	8b 0c 85 00 00
	00 00		 mov	 ecx, DWORD PTR ?p_party@@3PAPAUaction@@A[eax*4]
  009f3	83 79 08 00	 cmp	 DWORD PTR [ecx+8], 0
  009f7	75 02		 jne	 SHORT $LN117@BattleButt

; 880  : 												continue;

  009f9	eb df		 jmp	 SHORT $LN33@BattleButt
$LN117@BattleButt:

; 881  : 
; 882  : 											if( FALSE == magic[ BattleJujutuNo ].deadTargetFlag )

  009fb	6b 05 00 00 00
	00 70		 imul	 eax, DWORD PTR ?BattleJujutuNo@@3HA, 112 ; BattleJujutuNo
  00a02	0f bf 88 0c 00
	00 00		 movsx	 ecx, WORD PTR ?magic@@3PAUMAGIC@@A[eax+12]
  00a09	85 c9		 test	 ecx, ecx
  00a0b	75 12		 jne	 SHORT $LN118@BattleButt

; 883  : 												if( p_party[ i ]->hp <= 0 )

  00a0d	8b 45 f4	 mov	 eax, DWORD PTR _i$[ebp]
  00a10	8b 0c 85 00 00
	00 00		 mov	 ecx, DWORD PTR ?p_party@@3PAPAUaction@@A[eax*4]
  00a17	83 79 78 00	 cmp	 DWORD PTR [ecx+120], 0
  00a1b	7f 02		 jg	 SHORT $LN118@BattleButt

; 884  : 													continue;

  00a1d	eb bb		 jmp	 SHORT $LN33@BattleButt
$LN118@BattleButt:

; 885  : 
; 886  : 											if( p_party[ i ]->atr & ACT_ATR_TRAVEL )

  00a1f	8b 45 f4	 mov	 eax, DWORD PTR _i$[ebp]
  00a22	8b 0c 85 00 00
	00 00		 mov	 ecx, DWORD PTR ?p_party@@3PAPAUaction@@A[eax*4]
  00a29	8b 91 a4 00 00
	00		 mov	 edx, DWORD PTR [ecx+164]
  00a2f	81 e2 00 00 02
	00		 and	 edx, 131072		; 00020000H
  00a35	74 02		 je	 SHORT $LN120@BattleButt

; 887  : 												continue;

  00a37	eb a1		 jmp	 SHORT $LN33@BattleButt
$LN120@BattleButt:

; 888  : 
; 889  : 											p_party[ i ]->atr |= ACT_ATR_HIT_BOX_ALL1;

  00a39	8b 45 f4	 mov	 eax, DWORD PTR _i$[ebp]
  00a3c	8b 0c 85 00 00
	00 00		 mov	 ecx, DWORD PTR ?p_party@@3PAPAUaction@@A[eax*4]
  00a43	8b 91 a4 00 00
	00		 mov	 edx, DWORD PTR [ecx+164]
  00a49	81 ca 00 20 00
	00		 or	 edx, 8192		; 00002000H
  00a4f	8b 45 f4	 mov	 eax, DWORD PTR _i$[ebp]
  00a52	8b 0c 85 00 00
	00 00		 mov	 ecx, DWORD PTR ?p_party@@3PAPAUaction@@A[eax*4]
  00a59	89 91 a4 00 00
	00		 mov	 DWORD PTR [ecx+164], edx

; 890  : 										}

  00a5f	e9 76 ff ff ff	 jmp	 $LN33@BattleButt
$LN34@BattleButt:

; 891  : 									}
; 892  : 									else

  00a64	e9 93 00 00 00	 jmp	 $LN116@BattleButt
$LN115@BattleButt:

; 893  : 									{
; 894  : 										for( i = 10 ; i < 20 ; i++ )

  00a69	c7 45 f4 0a 00
	00 00		 mov	 DWORD PTR _i$[ebp], 10	; 0000000aH
  00a70	eb 09		 jmp	 SHORT $LN38@BattleButt
$LN36@BattleButt:
  00a72	8b 45 f4	 mov	 eax, DWORD PTR _i$[ebp]
  00a75	83 c0 01	 add	 eax, 1
  00a78	89 45 f4	 mov	 DWORD PTR _i$[ebp], eax
$LN38@BattleButt:
  00a7b	83 7d f4 14	 cmp	 DWORD PTR _i$[ebp], 20	; 00000014H
  00a7f	7d 7b		 jge	 SHORT $LN116@BattleButt

; 895  : 										{
; 896  : 											if( p_party[ i ]->func == NULL )

  00a81	8b 45 f4	 mov	 eax, DWORD PTR _i$[ebp]
  00a84	8b 0c 85 00 00
	00 00		 mov	 ecx, DWORD PTR ?p_party@@3PAPAUaction@@A[eax*4]
  00a8b	83 79 08 00	 cmp	 DWORD PTR [ecx+8], 0
  00a8f	75 02		 jne	 SHORT $LN121@BattleButt

; 897  : 												continue;

  00a91	eb df		 jmp	 SHORT $LN36@BattleButt
$LN121@BattleButt:

; 898  : 
; 899  : 											if( FALSE == magic[ BattleJujutuNo ].deadTargetFlag )

  00a93	6b 05 00 00 00
	00 70		 imul	 eax, DWORD PTR ?BattleJujutuNo@@3HA, 112 ; BattleJujutuNo
  00a9a	0f bf 88 0c 00
	00 00		 movsx	 ecx, WORD PTR ?magic@@3PAUMAGIC@@A[eax+12]
  00aa1	85 c9		 test	 ecx, ecx
  00aa3	75 12		 jne	 SHORT $LN122@BattleButt

; 900  : 												if( p_party[ i ]->hp <= 0 )

  00aa5	8b 45 f4	 mov	 eax, DWORD PTR _i$[ebp]
  00aa8	8b 0c 85 00 00
	00 00		 mov	 ecx, DWORD PTR ?p_party@@3PAPAUaction@@A[eax*4]
  00aaf	83 79 78 00	 cmp	 DWORD PTR [ecx+120], 0
  00ab3	7f 02		 jg	 SHORT $LN122@BattleButt

; 901  : 													continue;

  00ab5	eb bb		 jmp	 SHORT $LN36@BattleButt
$LN122@BattleButt:

; 902  : 
; 903  : 											if( p_party[ i ]->atr & ACT_ATR_TRAVEL )

  00ab7	8b 45 f4	 mov	 eax, DWORD PTR _i$[ebp]
  00aba	8b 0c 85 00 00
	00 00		 mov	 ecx, DWORD PTR ?p_party@@3PAPAUaction@@A[eax*4]
  00ac1	8b 91 a4 00 00
	00		 mov	 edx, DWORD PTR [ecx+164]
  00ac7	81 e2 00 00 02
	00		 and	 edx, 131072		; 00020000H
  00acd	74 02		 je	 SHORT $LN124@BattleButt

; 904  : 												continue;

  00acf	eb a1		 jmp	 SHORT $LN36@BattleButt
$LN124@BattleButt:

; 905  : 
; 906  : 											p_party[ i ]->atr |= ACT_ATR_HIT_BOX_ALL2;

  00ad1	8b 45 f4	 mov	 eax, DWORD PTR _i$[ebp]
  00ad4	8b 0c 85 00 00
	00 00		 mov	 ecx, DWORD PTR ?p_party@@3PAPAUaction@@A[eax*4]
  00adb	8b 91 a4 00 00
	00		 mov	 edx, DWORD PTR [ecx+164]
  00ae1	81 ca 00 40 00
	00		 or	 edx, 16384		; 00004000H
  00ae7	8b 45 f4	 mov	 eax, DWORD PTR _i$[ebp]
  00aea	8b 0c 85 00 00
	00 00		 mov	 ecx, DWORD PTR ?p_party@@3PAPAUaction@@A[eax*4]
  00af1	89 91 a4 00 00
	00		 mov	 DWORD PTR [ecx+164], edx

; 907  : 										}

  00af7	e9 76 ff ff ff	 jmp	 $LN36@BattleButt
$LN116@BattleButt:

; 908  : 									}
; 909  : 
; 910  : 									battleTargetSelectFlag = TRUE;

  00afc	c7 05 00 00 00
	00 01 00 00 00	 mov	 DWORD PTR ?battleTargetSelectFlag@@3HA, 1

; 911  : 									DeathAction( pActWnd );

  00b06	a1 00 00 00 00	 mov	 eax, DWORD PTR ?pActWnd@@3PAUaction@@A
  00b0b	50		 push	 eax
  00b0c	e8 00 00 00 00	 call	 ?DeathAction@@YAXPAUaction@@@Z ; DeathAction
  00b11	83 c4 04	 add	 esp, 4

; 912  : 									pActWnd = NULL;

  00b14	c7 05 00 00 00
	00 00 00 00 00	 mov	 DWORD PTR ?pActWnd@@3PAUaction@@A, 0

; 913  : 									ClearBattleButton();

  00b1e	e8 00 00 00 00	 call	 ?ClearBattleButton@@YAXXZ ; ClearBattleButton

; 914  : 									BattleCmdNo = BATTLE_JUJUTU;

  00b23	c7 05 00 00 00
	00 01 00 00 00	 mov	 DWORD PTR ?BattleCmdNo@@3HA, 1 ; BattleCmdNo

; 915  : 									play_se( 217 , 320 , 240 );

  00b2d	68 f0 00 00 00	 push	 240			; 000000f0H
  00b32	68 40 01 00 00	 push	 320			; 00000140H
  00b37	68 d9 00 00 00	 push	 217			; 000000d9H
  00b3c	e8 00 00 00 00	 call	 ?play_se@@YAHHHH@Z	; play_se
  00b41	83 c4 0c	 add	 esp, 12			; 0000000cH

; 916  : 
; 917  : 									break;

  00b44	e9 58 05 00 00	 jmp	 $LN74@BattleButt
$LN125@BattleButt:

; 918  : 
; 919  : 								#endif
; 920  : 
; 921  : 								case MAGIC_TARGET_ALLMYSIDE:
; 922  : 
; 923  : 									if( BattleMyNo < 10 ){

  00b49	83 3d 00 00 00
	00 0a		 cmp	 DWORD PTR ?BattleMyNo@@3HA, 10 ; BattleMyNo, 0000000aH
  00b50	0f 8d 98 00 00
	00		 jge	 $LN126@BattleButt

; 924  : 
; 925  : 										for( i = 0 ; i < 10 ; i++ ){

  00b56	c7 45 f4 00 00
	00 00		 mov	 DWORD PTR _i$[ebp], 0
  00b5d	eb 09		 jmp	 SHORT $LN41@BattleButt
$LN39@BattleButt:
  00b5f	8b 45 f4	 mov	 eax, DWORD PTR _i$[ebp]
  00b62	83 c0 01	 add	 eax, 1
  00b65	89 45 f4	 mov	 DWORD PTR _i$[ebp], eax
$LN41@BattleButt:
  00b68	83 7d f4 0a	 cmp	 DWORD PTR _i$[ebp], 10	; 0000000aH
  00b6c	7d 7b		 jge	 SHORT $LN40@BattleButt

; 926  : 
; 927  : 											if( p_party[ i ]->func == NULL ) continue;

  00b6e	8b 45 f4	 mov	 eax, DWORD PTR _i$[ebp]
  00b71	8b 0c 85 00 00
	00 00		 mov	 ecx, DWORD PTR ?p_party@@3PAPAUaction@@A[eax*4]
  00b78	83 79 08 00	 cmp	 DWORD PTR [ecx+8], 0
  00b7c	75 02		 jne	 SHORT $LN128@BattleButt
  00b7e	eb df		 jmp	 SHORT $LN39@BattleButt
$LN128@BattleButt:

; 928  : 
; 929  : 											if( magic[ BattleJujutuNo ].deadTargetFlag == FALSE ) if( p_party[ i ]->hp <= 0 ) continue;

  00b80	6b 05 00 00 00
	00 70		 imul	 eax, DWORD PTR ?BattleJujutuNo@@3HA, 112 ; BattleJujutuNo
  00b87	0f bf 88 0c 00
	00 00		 movsx	 ecx, WORD PTR ?magic@@3PAUMAGIC@@A[eax+12]
  00b8e	85 c9		 test	 ecx, ecx
  00b90	75 12		 jne	 SHORT $LN129@BattleButt
  00b92	8b 45 f4	 mov	 eax, DWORD PTR _i$[ebp]
  00b95	8b 0c 85 00 00
	00 00		 mov	 ecx, DWORD PTR ?p_party@@3PAPAUaction@@A[eax*4]
  00b9c	83 79 78 00	 cmp	 DWORD PTR [ecx+120], 0
  00ba0	7f 02		 jg	 SHORT $LN129@BattleButt
  00ba2	eb bb		 jmp	 SHORT $LN39@BattleButt
$LN129@BattleButt:

; 930  : 
; 931  : 											if( p_party[ i ]->atr & ACT_ATR_TRAVEL ) continue;

  00ba4	8b 45 f4	 mov	 eax, DWORD PTR _i$[ebp]
  00ba7	8b 0c 85 00 00
	00 00		 mov	 ecx, DWORD PTR ?p_party@@3PAPAUaction@@A[eax*4]
  00bae	8b 91 a4 00 00
	00		 mov	 edx, DWORD PTR [ecx+164]
  00bb4	81 e2 00 00 02
	00		 and	 edx, 131072		; 00020000H
  00bba	74 02		 je	 SHORT $LN131@BattleButt
  00bbc	eb a1		 jmp	 SHORT $LN39@BattleButt
$LN131@BattleButt:

; 932  : 
; 933  : 											p_party[ i ]->atr |= ACT_ATR_HIT_BOX_ALL1;

  00bbe	8b 45 f4	 mov	 eax, DWORD PTR _i$[ebp]
  00bc1	8b 0c 85 00 00
	00 00		 mov	 ecx, DWORD PTR ?p_party@@3PAPAUaction@@A[eax*4]
  00bc8	8b 91 a4 00 00
	00		 mov	 edx, DWORD PTR [ecx+164]
  00bce	81 ca 00 20 00
	00		 or	 edx, 8192		; 00002000H
  00bd4	8b 45 f4	 mov	 eax, DWORD PTR _i$[ebp]
  00bd7	8b 0c 85 00 00
	00 00		 mov	 ecx, DWORD PTR ?p_party@@3PAPAUaction@@A[eax*4]
  00bde	89 91 a4 00 00
	00		 mov	 DWORD PTR [ecx+164], edx

; 934  : 										}

  00be4	e9 76 ff ff ff	 jmp	 $LN39@BattleButt
$LN40@BattleButt:

; 935  : 									}else{

  00be9	e9 93 00 00 00	 jmp	 $LN127@BattleButt
$LN126@BattleButt:

; 936  : 
; 937  : 										for( i = 10 ; i < 20 ; i++ ){

  00bee	c7 45 f4 0a 00
	00 00		 mov	 DWORD PTR _i$[ebp], 10	; 0000000aH
  00bf5	eb 09		 jmp	 SHORT $LN44@BattleButt
$LN42@BattleButt:
  00bf7	8b 45 f4	 mov	 eax, DWORD PTR _i$[ebp]
  00bfa	83 c0 01	 add	 eax, 1
  00bfd	89 45 f4	 mov	 DWORD PTR _i$[ebp], eax
$LN44@BattleButt:
  00c00	83 7d f4 14	 cmp	 DWORD PTR _i$[ebp], 20	; 00000014H
  00c04	7d 7b		 jge	 SHORT $LN127@BattleButt

; 938  : 
; 939  : 											if( p_party[ i ]->func == NULL ) continue;

  00c06	8b 45 f4	 mov	 eax, DWORD PTR _i$[ebp]
  00c09	8b 0c 85 00 00
	00 00		 mov	 ecx, DWORD PTR ?p_party@@3PAPAUaction@@A[eax*4]
  00c10	83 79 08 00	 cmp	 DWORD PTR [ecx+8], 0
  00c14	75 02		 jne	 SHORT $LN132@BattleButt
  00c16	eb df		 jmp	 SHORT $LN42@BattleButt
$LN132@BattleButt:

; 940  : 
; 941  : 											if( magic[ BattleJujutuNo ].deadTargetFlag == FALSE ) if( p_party[ i ]->hp <= 0 ) continue;

  00c18	6b 05 00 00 00
	00 70		 imul	 eax, DWORD PTR ?BattleJujutuNo@@3HA, 112 ; BattleJujutuNo
  00c1f	0f bf 88 0c 00
	00 00		 movsx	 ecx, WORD PTR ?magic@@3PAUMAGIC@@A[eax+12]
  00c26	85 c9		 test	 ecx, ecx
  00c28	75 12		 jne	 SHORT $LN133@BattleButt
  00c2a	8b 45 f4	 mov	 eax, DWORD PTR _i$[ebp]
  00c2d	8b 0c 85 00 00
	00 00		 mov	 ecx, DWORD PTR ?p_party@@3PAPAUaction@@A[eax*4]
  00c34	83 79 78 00	 cmp	 DWORD PTR [ecx+120], 0
  00c38	7f 02		 jg	 SHORT $LN133@BattleButt
  00c3a	eb bb		 jmp	 SHORT $LN42@BattleButt
$LN133@BattleButt:

; 942  : 
; 943  : 											if( p_party[ i ]->atr & ACT_ATR_TRAVEL ) continue;

  00c3c	8b 45 f4	 mov	 eax, DWORD PTR _i$[ebp]
  00c3f	8b 0c 85 00 00
	00 00		 mov	 ecx, DWORD PTR ?p_party@@3PAPAUaction@@A[eax*4]
  00c46	8b 91 a4 00 00
	00		 mov	 edx, DWORD PTR [ecx+164]
  00c4c	81 e2 00 00 02
	00		 and	 edx, 131072		; 00020000H
  00c52	74 02		 je	 SHORT $LN135@BattleButt
  00c54	eb a1		 jmp	 SHORT $LN42@BattleButt
$LN135@BattleButt:

; 944  : 
; 945  : 											p_party[ i ]->atr |= ACT_ATR_HIT_BOX_ALL2;

  00c56	8b 45 f4	 mov	 eax, DWORD PTR _i$[ebp]
  00c59	8b 0c 85 00 00
	00 00		 mov	 ecx, DWORD PTR ?p_party@@3PAPAUaction@@A[eax*4]
  00c60	8b 91 a4 00 00
	00		 mov	 edx, DWORD PTR [ecx+164]
  00c66	81 ca 00 40 00
	00		 or	 edx, 16384		; 00004000H
  00c6c	8b 45 f4	 mov	 eax, DWORD PTR _i$[ebp]
  00c6f	8b 0c 85 00 00
	00 00		 mov	 ecx, DWORD PTR ?p_party@@3PAPAUaction@@A[eax*4]
  00c76	89 91 a4 00 00
	00		 mov	 DWORD PTR [ecx+164], edx

; 946  : 										}

  00c7c	e9 76 ff ff ff	 jmp	 $LN42@BattleButt
$LN127@BattleButt:

; 947  : 									}
; 948  : 
; 949  : 									battleTargetSelectFlag = TRUE;

  00c81	c7 05 00 00 00
	00 01 00 00 00	 mov	 DWORD PTR ?battleTargetSelectFlag@@3HA, 1

; 950  : 
; 951  : 									DeathAction( pActWnd );

  00c8b	a1 00 00 00 00	 mov	 eax, DWORD PTR ?pActWnd@@3PAUaction@@A
  00c90	50		 push	 eax
  00c91	e8 00 00 00 00	 call	 ?DeathAction@@YAXPAUaction@@@Z ; DeathAction
  00c96	83 c4 04	 add	 esp, 4

; 952  : 									pActWnd = NULL;

  00c99	c7 05 00 00 00
	00 00 00 00 00	 mov	 DWORD PTR ?pActWnd@@3PAUaction@@A, 0

; 953  : 
; 954  : 									ClearBattleButton();

  00ca3	e8 00 00 00 00	 call	 ?ClearBattleButton@@YAXXZ ; ClearBattleButton

; 955  : 
; 956  : 									BattleCmdNo = BATTLE_JUJUTU;

  00ca8	c7 05 00 00 00
	00 01 00 00 00	 mov	 DWORD PTR ?BattleCmdNo@@3HA, 1 ; BattleCmdNo

; 957  : 
; 958  : 									play_se( 217, 320, 240 );

  00cb2	68 f0 00 00 00	 push	 240			; 000000f0H
  00cb7	68 40 01 00 00	 push	 320			; 00000140H
  00cbc	68 d9 00 00 00	 push	 217			; 000000d9H
  00cc1	e8 00 00 00 00	 call	 ?play_se@@YAHHHH@Z	; play_se
  00cc6	83 c4 0c	 add	 esp, 12			; 0000000cH

; 959  : 									break;

  00cc9	e9 d3 03 00 00	 jmp	 $LN74@BattleButt
$LN136@BattleButt:

; 960  : 									
; 961  : 								case MAGIC_TARGET_ALLOTHERSIDE:
; 962  : 
; 963  : 									if( BattleMyNo >= 10 ){

  00cce	83 3d 00 00 00
	00 0a		 cmp	 DWORD PTR ?BattleMyNo@@3HA, 10 ; BattleMyNo, 0000000aH
  00cd5	0f 8c 98 00 00
	00		 jl	 $LN137@BattleButt

; 964  : 
; 965  : 										for( i = 0 ; i < 10 ; i++ ){

  00cdb	c7 45 f4 00 00
	00 00		 mov	 DWORD PTR _i$[ebp], 0
  00ce2	eb 09		 jmp	 SHORT $LN47@BattleButt
$LN45@BattleButt:
  00ce4	8b 45 f4	 mov	 eax, DWORD PTR _i$[ebp]
  00ce7	83 c0 01	 add	 eax, 1
  00cea	89 45 f4	 mov	 DWORD PTR _i$[ebp], eax
$LN47@BattleButt:
  00ced	83 7d f4 0a	 cmp	 DWORD PTR _i$[ebp], 10	; 0000000aH
  00cf1	7d 7b		 jge	 SHORT $LN46@BattleButt

; 966  : 
; 967  : 											if( p_party[ i ]->func == NULL ) continue;

  00cf3	8b 45 f4	 mov	 eax, DWORD PTR _i$[ebp]
  00cf6	8b 0c 85 00 00
	00 00		 mov	 ecx, DWORD PTR ?p_party@@3PAPAUaction@@A[eax*4]
  00cfd	83 79 08 00	 cmp	 DWORD PTR [ecx+8], 0
  00d01	75 02		 jne	 SHORT $LN139@BattleButt
  00d03	eb df		 jmp	 SHORT $LN45@BattleButt
$LN139@BattleButt:

; 968  : 
; 969  : 											if( magic[ BattleJujutuNo ].deadTargetFlag == FALSE ) if( p_party[ i ]->hp <= 0 ) continue;

  00d05	6b 05 00 00 00
	00 70		 imul	 eax, DWORD PTR ?BattleJujutuNo@@3HA, 112 ; BattleJujutuNo
  00d0c	0f bf 88 0c 00
	00 00		 movsx	 ecx, WORD PTR ?magic@@3PAUMAGIC@@A[eax+12]
  00d13	85 c9		 test	 ecx, ecx
  00d15	75 12		 jne	 SHORT $LN140@BattleButt
  00d17	8b 45 f4	 mov	 eax, DWORD PTR _i$[ebp]
  00d1a	8b 0c 85 00 00
	00 00		 mov	 ecx, DWORD PTR ?p_party@@3PAPAUaction@@A[eax*4]
  00d21	83 79 78 00	 cmp	 DWORD PTR [ecx+120], 0
  00d25	7f 02		 jg	 SHORT $LN140@BattleButt
  00d27	eb bb		 jmp	 SHORT $LN45@BattleButt
$LN140@BattleButt:

; 970  : 
; 971  : 											if( p_party[ i ]->atr & ACT_ATR_TRAVEL ) continue;

  00d29	8b 45 f4	 mov	 eax, DWORD PTR _i$[ebp]
  00d2c	8b 0c 85 00 00
	00 00		 mov	 ecx, DWORD PTR ?p_party@@3PAPAUaction@@A[eax*4]
  00d33	8b 91 a4 00 00
	00		 mov	 edx, DWORD PTR [ecx+164]
  00d39	81 e2 00 00 02
	00		 and	 edx, 131072		; 00020000H
  00d3f	74 02		 je	 SHORT $LN142@BattleButt
  00d41	eb a1		 jmp	 SHORT $LN45@BattleButt
$LN142@BattleButt:

; 972  : 
; 973  : 											p_party[ i ]->atr |= ACT_ATR_HIT_BOX_ALL1;

  00d43	8b 45 f4	 mov	 eax, DWORD PTR _i$[ebp]
  00d46	8b 0c 85 00 00
	00 00		 mov	 ecx, DWORD PTR ?p_party@@3PAPAUaction@@A[eax*4]
  00d4d	8b 91 a4 00 00
	00		 mov	 edx, DWORD PTR [ecx+164]
  00d53	81 ca 00 20 00
	00		 or	 edx, 8192		; 00002000H
  00d59	8b 45 f4	 mov	 eax, DWORD PTR _i$[ebp]
  00d5c	8b 0c 85 00 00
	00 00		 mov	 ecx, DWORD PTR ?p_party@@3PAPAUaction@@A[eax*4]
  00d63	89 91 a4 00 00
	00		 mov	 DWORD PTR [ecx+164], edx

; 974  : 										}

  00d69	e9 76 ff ff ff	 jmp	 $LN45@BattleButt
$LN46@BattleButt:

; 975  : 									}else{

  00d6e	e9 93 00 00 00	 jmp	 $LN138@BattleButt
$LN137@BattleButt:

; 976  : 
; 977  : 										for( i = 10 ; i < 20 ; i++ ){

  00d73	c7 45 f4 0a 00
	00 00		 mov	 DWORD PTR _i$[ebp], 10	; 0000000aH
  00d7a	eb 09		 jmp	 SHORT $LN50@BattleButt
$LN48@BattleButt:
  00d7c	8b 45 f4	 mov	 eax, DWORD PTR _i$[ebp]
  00d7f	83 c0 01	 add	 eax, 1
  00d82	89 45 f4	 mov	 DWORD PTR _i$[ebp], eax
$LN50@BattleButt:
  00d85	83 7d f4 14	 cmp	 DWORD PTR _i$[ebp], 20	; 00000014H
  00d89	7d 7b		 jge	 SHORT $LN138@BattleButt

; 978  : 
; 979  : 											if( p_party[ i ]->func == NULL ) continue;

  00d8b	8b 45 f4	 mov	 eax, DWORD PTR _i$[ebp]
  00d8e	8b 0c 85 00 00
	00 00		 mov	 ecx, DWORD PTR ?p_party@@3PAPAUaction@@A[eax*4]
  00d95	83 79 08 00	 cmp	 DWORD PTR [ecx+8], 0
  00d99	75 02		 jne	 SHORT $LN143@BattleButt
  00d9b	eb df		 jmp	 SHORT $LN48@BattleButt
$LN143@BattleButt:

; 980  : 
; 981  : 											if( magic[ BattleJujutuNo ].deadTargetFlag == FALSE ) if( p_party[ i ]->hp <= 0 ) continue;

  00d9d	6b 05 00 00 00
	00 70		 imul	 eax, DWORD PTR ?BattleJujutuNo@@3HA, 112 ; BattleJujutuNo
  00da4	0f bf 88 0c 00
	00 00		 movsx	 ecx, WORD PTR ?magic@@3PAUMAGIC@@A[eax+12]
  00dab	85 c9		 test	 ecx, ecx
  00dad	75 12		 jne	 SHORT $LN144@BattleButt
  00daf	8b 45 f4	 mov	 eax, DWORD PTR _i$[ebp]
  00db2	8b 0c 85 00 00
	00 00		 mov	 ecx, DWORD PTR ?p_party@@3PAPAUaction@@A[eax*4]
  00db9	83 79 78 00	 cmp	 DWORD PTR [ecx+120], 0
  00dbd	7f 02		 jg	 SHORT $LN144@BattleButt
  00dbf	eb bb		 jmp	 SHORT $LN48@BattleButt
$LN144@BattleButt:

; 982  : 
; 983  : 											if( p_party[ i ]->atr & ACT_ATR_TRAVEL ) continue;

  00dc1	8b 45 f4	 mov	 eax, DWORD PTR _i$[ebp]
  00dc4	8b 0c 85 00 00
	00 00		 mov	 ecx, DWORD PTR ?p_party@@3PAPAUaction@@A[eax*4]
  00dcb	8b 91 a4 00 00
	00		 mov	 edx, DWORD PTR [ecx+164]
  00dd1	81 e2 00 00 02
	00		 and	 edx, 131072		; 00020000H
  00dd7	74 02		 je	 SHORT $LN146@BattleButt
  00dd9	eb a1		 jmp	 SHORT $LN48@BattleButt
$LN146@BattleButt:

; 984  : 
; 985  : 											p_party[ i ]->atr |= ACT_ATR_HIT_BOX_ALL2;

  00ddb	8b 45 f4	 mov	 eax, DWORD PTR _i$[ebp]
  00dde	8b 0c 85 00 00
	00 00		 mov	 ecx, DWORD PTR ?p_party@@3PAPAUaction@@A[eax*4]
  00de5	8b 91 a4 00 00
	00		 mov	 edx, DWORD PTR [ecx+164]
  00deb	81 ca 00 40 00
	00		 or	 edx, 16384		; 00004000H
  00df1	8b 45 f4	 mov	 eax, DWORD PTR _i$[ebp]
  00df4	8b 0c 85 00 00
	00 00		 mov	 ecx, DWORD PTR ?p_party@@3PAPAUaction@@A[eax*4]
  00dfb	89 91 a4 00 00
	00		 mov	 DWORD PTR [ecx+164], edx

; 986  : 										}

  00e01	e9 76 ff ff ff	 jmp	 $LN48@BattleButt
$LN138@BattleButt:

; 987  : 									}
; 988  : 
; 989  : 									battleTargetSelectFlag = TRUE;

  00e06	c7 05 00 00 00
	00 01 00 00 00	 mov	 DWORD PTR ?battleTargetSelectFlag@@3HA, 1

; 990  : 
; 991  : 									DeathAction( pActWnd );

  00e10	a1 00 00 00 00	 mov	 eax, DWORD PTR ?pActWnd@@3PAUaction@@A
  00e15	50		 push	 eax
  00e16	e8 00 00 00 00	 call	 ?DeathAction@@YAXPAUaction@@@Z ; DeathAction
  00e1b	83 c4 04	 add	 esp, 4

; 992  : 									pActWnd = NULL;

  00e1e	c7 05 00 00 00
	00 00 00 00 00	 mov	 DWORD PTR ?pActWnd@@3PAUaction@@A, 0

; 993  : 
; 994  : 									ClearBattleButton();

  00e28	e8 00 00 00 00	 call	 ?ClearBattleButton@@YAXXZ ; ClearBattleButton

; 995  : 
; 996  : 									BattleCmdNo = BATTLE_JUJUTU;

  00e2d	c7 05 00 00 00
	00 01 00 00 00	 mov	 DWORD PTR ?BattleCmdNo@@3HA, 1 ; BattleCmdNo

; 997  : 
; 998  : 									play_se( 217, 320, 240 );

  00e37	68 f0 00 00 00	 push	 240			; 000000f0H
  00e3c	68 40 01 00 00	 push	 320			; 00000140H
  00e41	68 d9 00 00 00	 push	 217			; 000000d9H
  00e46	e8 00 00 00 00	 call	 ?play_se@@YAHHHH@Z	; play_se
  00e4b	83 c4 0c	 add	 esp, 12			; 0000000cH

; 999  : 									break;

  00e4e	e9 4e 02 00 00	 jmp	 $LN74@BattleButt
$LN147@BattleButt:

; 1000 : 									
; 1001 : 								case MAGIC_TARGET_ALL:
; 1002 : 
; 1003 : 									for( i = 0 ; i < 20 ; i++ ){

  00e53	c7 45 f4 00 00
	00 00		 mov	 DWORD PTR _i$[ebp], 0
  00e5a	eb 09		 jmp	 SHORT $LN53@BattleButt
$LN51@BattleButt:
  00e5c	8b 45 f4	 mov	 eax, DWORD PTR _i$[ebp]
  00e5f	83 c0 01	 add	 eax, 1
  00e62	89 45 f4	 mov	 DWORD PTR _i$[ebp], eax
$LN53@BattleButt:
  00e65	83 7d f4 14	 cmp	 DWORD PTR _i$[ebp], 20	; 00000014H
  00e69	7d 7b		 jge	 SHORT $LN52@BattleButt

; 1004 : 
; 1005 : 										if( p_party[ i ]->func == NULL ) continue;

  00e6b	8b 45 f4	 mov	 eax, DWORD PTR _i$[ebp]
  00e6e	8b 0c 85 00 00
	00 00		 mov	 ecx, DWORD PTR ?p_party@@3PAPAUaction@@A[eax*4]
  00e75	83 79 08 00	 cmp	 DWORD PTR [ecx+8], 0
  00e79	75 02		 jne	 SHORT $LN148@BattleButt
  00e7b	eb df		 jmp	 SHORT $LN51@BattleButt
$LN148@BattleButt:

; 1006 : 
; 1007 : 										if( magic[ BattleJujutuNo ].deadTargetFlag == FALSE ) if( p_party[ i ]->hp <= 0 ) continue;

  00e7d	6b 05 00 00 00
	00 70		 imul	 eax, DWORD PTR ?BattleJujutuNo@@3HA, 112 ; BattleJujutuNo
  00e84	0f bf 88 0c 00
	00 00		 movsx	 ecx, WORD PTR ?magic@@3PAUMAGIC@@A[eax+12]
  00e8b	85 c9		 test	 ecx, ecx
  00e8d	75 12		 jne	 SHORT $LN149@BattleButt
  00e8f	8b 45 f4	 mov	 eax, DWORD PTR _i$[ebp]
  00e92	8b 0c 85 00 00
	00 00		 mov	 ecx, DWORD PTR ?p_party@@3PAPAUaction@@A[eax*4]
  00e99	83 79 78 00	 cmp	 DWORD PTR [ecx+120], 0
  00e9d	7f 02		 jg	 SHORT $LN149@BattleButt
  00e9f	eb bb		 jmp	 SHORT $LN51@BattleButt
$LN149@BattleButt:

; 1008 : 
; 1009 : 										if( p_party[ i ]->atr & ACT_ATR_TRAVEL ) continue;

  00ea1	8b 45 f4	 mov	 eax, DWORD PTR _i$[ebp]
  00ea4	8b 0c 85 00 00
	00 00		 mov	 ecx, DWORD PTR ?p_party@@3PAPAUaction@@A[eax*4]
  00eab	8b 91 a4 00 00
	00		 mov	 edx, DWORD PTR [ecx+164]
  00eb1	81 e2 00 00 02
	00		 and	 edx, 131072		; 00020000H
  00eb7	74 02		 je	 SHORT $LN151@BattleButt
  00eb9	eb a1		 jmp	 SHORT $LN51@BattleButt
$LN151@BattleButt:

; 1010 : 
; 1011 : 										p_party[ i ]->atr |= ACT_ATR_HIT_BOX_ALL1;

  00ebb	8b 45 f4	 mov	 eax, DWORD PTR _i$[ebp]
  00ebe	8b 0c 85 00 00
	00 00		 mov	 ecx, DWORD PTR ?p_party@@3PAPAUaction@@A[eax*4]
  00ec5	8b 91 a4 00 00
	00		 mov	 edx, DWORD PTR [ecx+164]
  00ecb	81 ca 00 20 00
	00		 or	 edx, 8192		; 00002000H
  00ed1	8b 45 f4	 mov	 eax, DWORD PTR _i$[ebp]
  00ed4	8b 0c 85 00 00
	00 00		 mov	 ecx, DWORD PTR ?p_party@@3PAPAUaction@@A[eax*4]
  00edb	89 91 a4 00 00
	00		 mov	 DWORD PTR [ecx+164], edx

; 1012 : 									}

  00ee1	e9 76 ff ff ff	 jmp	 $LN51@BattleButt
$LN52@BattleButt:

; 1013 : 
; 1014 : 									battleTargetSelectFlag = TRUE;

  00ee6	c7 05 00 00 00
	00 01 00 00 00	 mov	 DWORD PTR ?battleTargetSelectFlag@@3HA, 1

; 1015 : 
; 1016 : 									DeathAction( pActWnd );

  00ef0	a1 00 00 00 00	 mov	 eax, DWORD PTR ?pActWnd@@3PAUaction@@A
  00ef5	50		 push	 eax
  00ef6	e8 00 00 00 00	 call	 ?DeathAction@@YAXPAUaction@@@Z ; DeathAction
  00efb	83 c4 04	 add	 esp, 4

; 1017 : 									pActWnd = NULL;

  00efe	c7 05 00 00 00
	00 00 00 00 00	 mov	 DWORD PTR ?pActWnd@@3PAUaction@@A, 0

; 1018 : 
; 1019 : 									ClearBattleButton();

  00f08	e8 00 00 00 00	 call	 ?ClearBattleButton@@YAXXZ ; ClearBattleButton

; 1020 : 
; 1021 : 									BattleCmdNo = BATTLE_JUJUTU;

  00f0d	c7 05 00 00 00
	00 01 00 00 00	 mov	 DWORD PTR ?BattleCmdNo@@3HA, 1 ; BattleCmdNo

; 1022 : 
; 1023 : 									play_se( 217, 320, 240 );

  00f17	68 f0 00 00 00	 push	 240			; 000000f0H
  00f1c	68 40 01 00 00	 push	 320			; 00000140H
  00f21	68 d9 00 00 00	 push	 217			; 000000d9H
  00f26	e8 00 00 00 00	 call	 ?play_se@@YAHHHH@Z	; play_se
  00f2b	83 c4 0c	 add	 esp, 12			; 0000000cH

; 1024 : 									break;

  00f2e	e9 6e 01 00 00	 jmp	 $LN74@BattleButt
$LN152@BattleButt:

; 1025 : 									
; 1026 : 								case MAGIC_TARGET_WHOLEOTHERSIDE:
; 1027 : 
; 1028 : 									for( i = 0 ; i < 10 ; i++ ){

  00f33	c7 45 f4 00 00
	00 00		 mov	 DWORD PTR _i$[ebp], 0
  00f3a	eb 09		 jmp	 SHORT $LN56@BattleButt
$LN54@BattleButt:
  00f3c	8b 45 f4	 mov	 eax, DWORD PTR _i$[ebp]
  00f3f	83 c0 01	 add	 eax, 1
  00f42	89 45 f4	 mov	 DWORD PTR _i$[ebp], eax
$LN56@BattleButt:
  00f45	83 7d f4 0a	 cmp	 DWORD PTR _i$[ebp], 10	; 0000000aH
  00f49	7d 7b		 jge	 SHORT $LN55@BattleButt

; 1029 : 
; 1030 : 										if( p_party[ i ]->func == NULL ) continue;

  00f4b	8b 45 f4	 mov	 eax, DWORD PTR _i$[ebp]
  00f4e	8b 0c 85 00 00
	00 00		 mov	 ecx, DWORD PTR ?p_party@@3PAPAUaction@@A[eax*4]
  00f55	83 79 08 00	 cmp	 DWORD PTR [ecx+8], 0
  00f59	75 02		 jne	 SHORT $LN153@BattleButt
  00f5b	eb df		 jmp	 SHORT $LN54@BattleButt
$LN153@BattleButt:

; 1031 : 
; 1032 : 										if( magic[ BattleJujutuNo ].deadTargetFlag == FALSE ) if( p_party[ i ]->hp <= 0 ) continue;

  00f5d	6b 05 00 00 00
	00 70		 imul	 eax, DWORD PTR ?BattleJujutuNo@@3HA, 112 ; BattleJujutuNo
  00f64	0f bf 88 0c 00
	00 00		 movsx	 ecx, WORD PTR ?magic@@3PAUMAGIC@@A[eax+12]
  00f6b	85 c9		 test	 ecx, ecx
  00f6d	75 12		 jne	 SHORT $LN154@BattleButt
  00f6f	8b 45 f4	 mov	 eax, DWORD PTR _i$[ebp]
  00f72	8b 0c 85 00 00
	00 00		 mov	 ecx, DWORD PTR ?p_party@@3PAPAUaction@@A[eax*4]
  00f79	83 79 78 00	 cmp	 DWORD PTR [ecx+120], 0
  00f7d	7f 02		 jg	 SHORT $LN154@BattleButt
  00f7f	eb bb		 jmp	 SHORT $LN54@BattleButt
$LN154@BattleButt:

; 1033 : 
; 1034 : 										if( p_party[ i ]->atr & ACT_ATR_TRAVEL ) continue;

  00f81	8b 45 f4	 mov	 eax, DWORD PTR _i$[ebp]
  00f84	8b 0c 85 00 00
	00 00		 mov	 ecx, DWORD PTR ?p_party@@3PAPAUaction@@A[eax*4]
  00f8b	8b 91 a4 00 00
	00		 mov	 edx, DWORD PTR [ecx+164]
  00f91	81 e2 00 00 02
	00		 and	 edx, 131072		; 00020000H
  00f97	74 02		 je	 SHORT $LN156@BattleButt
  00f99	eb a1		 jmp	 SHORT $LN54@BattleButt
$LN156@BattleButt:

; 1035 : 
; 1036 : 										p_party[ i ]->atr |= ACT_ATR_HIT_BOX_ALL1;

  00f9b	8b 45 f4	 mov	 eax, DWORD PTR _i$[ebp]
  00f9e	8b 0c 85 00 00
	00 00		 mov	 ecx, DWORD PTR ?p_party@@3PAPAUaction@@A[eax*4]
  00fa5	8b 91 a4 00 00
	00		 mov	 edx, DWORD PTR [ecx+164]
  00fab	81 ca 00 20 00
	00		 or	 edx, 8192		; 00002000H
  00fb1	8b 45 f4	 mov	 eax, DWORD PTR _i$[ebp]
  00fb4	8b 0c 85 00 00
	00 00		 mov	 ecx, DWORD PTR ?p_party@@3PAPAUaction@@A[eax*4]
  00fbb	89 91 a4 00 00
	00		 mov	 DWORD PTR [ecx+164], edx

; 1037 : 									}

  00fc1	e9 76 ff ff ff	 jmp	 $LN54@BattleButt
$LN55@BattleButt:

; 1038 : 
; 1039 : 									for( i = 10 ; i < 20 ; i++ ){

  00fc6	c7 45 f4 0a 00
	00 00		 mov	 DWORD PTR _i$[ebp], 10	; 0000000aH
  00fcd	eb 09		 jmp	 SHORT $LN59@BattleButt
$LN57@BattleButt:
  00fcf	8b 45 f4	 mov	 eax, DWORD PTR _i$[ebp]
  00fd2	83 c0 01	 add	 eax, 1
  00fd5	89 45 f4	 mov	 DWORD PTR _i$[ebp], eax
$LN59@BattleButt:
  00fd8	83 7d f4 14	 cmp	 DWORD PTR _i$[ebp], 20	; 00000014H
  00fdc	7d 7b		 jge	 SHORT $LN58@BattleButt

; 1040 : 
; 1041 : 										if( p_party[ i ]->func == NULL ) continue;

  00fde	8b 45 f4	 mov	 eax, DWORD PTR _i$[ebp]
  00fe1	8b 0c 85 00 00
	00 00		 mov	 ecx, DWORD PTR ?p_party@@3PAPAUaction@@A[eax*4]
  00fe8	83 79 08 00	 cmp	 DWORD PTR [ecx+8], 0
  00fec	75 02		 jne	 SHORT $LN157@BattleButt
  00fee	eb df		 jmp	 SHORT $LN57@BattleButt
$LN157@BattleButt:

; 1042 : 
; 1043 : 										if( magic[ BattleJujutuNo ].deadTargetFlag == FALSE ) if( p_party[ i ]->hp <= 0 ) continue;

  00ff0	6b 05 00 00 00
	00 70		 imul	 eax, DWORD PTR ?BattleJujutuNo@@3HA, 112 ; BattleJujutuNo
  00ff7	0f bf 88 0c 00
	00 00		 movsx	 ecx, WORD PTR ?magic@@3PAUMAGIC@@A[eax+12]
  00ffe	85 c9		 test	 ecx, ecx
  01000	75 12		 jne	 SHORT $LN158@BattleButt
  01002	8b 45 f4	 mov	 eax, DWORD PTR _i$[ebp]
  01005	8b 0c 85 00 00
	00 00		 mov	 ecx, DWORD PTR ?p_party@@3PAPAUaction@@A[eax*4]
  0100c	83 79 78 00	 cmp	 DWORD PTR [ecx+120], 0
  01010	7f 02		 jg	 SHORT $LN158@BattleButt
  01012	eb bb		 jmp	 SHORT $LN57@BattleButt
$LN158@BattleButt:

; 1044 : 
; 1045 : 										if( p_party[ i ]->atr & ACT_ATR_TRAVEL ) continue;

  01014	8b 45 f4	 mov	 eax, DWORD PTR _i$[ebp]
  01017	8b 0c 85 00 00
	00 00		 mov	 ecx, DWORD PTR ?p_party@@3PAPAUaction@@A[eax*4]
  0101e	8b 91 a4 00 00
	00		 mov	 edx, DWORD PTR [ecx+164]
  01024	81 e2 00 00 02
	00		 and	 edx, 131072		; 00020000H
  0102a	74 02		 je	 SHORT $LN160@BattleButt
  0102c	eb a1		 jmp	 SHORT $LN57@BattleButt
$LN160@BattleButt:

; 1046 : 
; 1047 : 										p_party[ i ]->atr |= ACT_ATR_HIT_BOX_ALL2;

  0102e	8b 45 f4	 mov	 eax, DWORD PTR _i$[ebp]
  01031	8b 0c 85 00 00
	00 00		 mov	 ecx, DWORD PTR ?p_party@@3PAPAUaction@@A[eax*4]
  01038	8b 91 a4 00 00
	00		 mov	 edx, DWORD PTR [ecx+164]
  0103e	81 ca 00 40 00
	00		 or	 edx, 16384		; 00004000H
  01044	8b 45 f4	 mov	 eax, DWORD PTR _i$[ebp]
  01047	8b 0c 85 00 00
	00 00		 mov	 ecx, DWORD PTR ?p_party@@3PAPAUaction@@A[eax*4]
  0104e	89 91 a4 00 00
	00		 mov	 DWORD PTR [ecx+164], edx

; 1048 : 									}

  01054	e9 76 ff ff ff	 jmp	 $LN57@BattleButt
$LN58@BattleButt:

; 1049 : 
; 1050 : 									battleTargetSelectFlag = TRUE;

  01059	c7 05 00 00 00
	00 01 00 00 00	 mov	 DWORD PTR ?battleTargetSelectFlag@@3HA, 1

; 1051 : 
; 1052 : 									DeathAction( pActWnd );

  01063	a1 00 00 00 00	 mov	 eax, DWORD PTR ?pActWnd@@3PAUaction@@A
  01068	50		 push	 eax
  01069	e8 00 00 00 00	 call	 ?DeathAction@@YAXPAUaction@@@Z ; DeathAction
  0106e	83 c4 04	 add	 esp, 4

; 1053 : 									pActWnd = NULL;

  01071	c7 05 00 00 00
	00 00 00 00 00	 mov	 DWORD PTR ?pActWnd@@3PAUaction@@A, 0

; 1054 : 
; 1055 : 									ClearBattleButton();

  0107b	e8 00 00 00 00	 call	 ?ClearBattleButton@@YAXXZ ; ClearBattleButton

; 1056 : 
; 1057 : 									BattleCmdNo = BATTLE_JUJUTU;

  01080	c7 05 00 00 00
	00 01 00 00 00	 mov	 DWORD PTR ?BattleCmdNo@@3HA, 1 ; BattleCmdNo

; 1058 : 
; 1059 : 									play_se( 217, 320, 240 );

  0108a	68 f0 00 00 00	 push	 240			; 000000f0H
  0108f	68 40 01 00 00	 push	 320			; 00000140H
  01094	68 d9 00 00 00	 push	 217			; 000000d9H
  01099	e8 00 00 00 00	 call	 ?play_se@@YAHHHH@Z	; play_se
  0109e	83 c4 0c	 add	 esp, 12			; 0000000cH
$LN74@BattleButt:

; 1060 : 									break;
; 1061 : 								}
; 1062 : 							}
; 1063 : 						}
; 1064 : 					}
; 1065 : 				}

  010a1	e9 2b f1 ff ff	 jmp	 $LN5@BattleButt
$LN6@BattleButt:

; 1066 : 
; 1067 : 				if( mouse.onceState & MOUSE_LEFT_CRICK ){

  010a6	a1 2c 00 00 00	 mov	 eax, DWORD PTR ?mouse@@3UMOUSE@@A+44
  010ab	83 e0 01	 and	 eax, 1
  010ae	74 1b		 je	 SHORT $LN161@BattleButt

; 1068 : 
; 1069 : 					if( HitDispNo == battleMenuJujutsuFontNo[ 5 ] ){

  010b0	b8 04 00 00 00	 mov	 eax, 4
  010b5	6b c8 05	 imul	 ecx, eax, 5
  010b8	8b 15 00 00 00
	00		 mov	 edx, DWORD PTR ?HitDispNo@@3HA ; HitDispNo
  010be	3b 91 00 00 00
	00		 cmp	 edx, DWORD PTR ?battleMenuJujutsuFontNo@@3PAHA[ecx]
  010c4	75 05		 jne	 SHORT $LN161@BattleButt

; 1070 : 						BattleButtonOff();				

  010c6	e8 00 00 00 00	 call	 ?BattleButtonOff@@YAXXZ	; BattleButtonOff
$LN161@BattleButt:

; 1071 : 					}
; 1072 : 				}
; 1073 : 
; 1074 : 				if( pActWnd != NULL ){

  010cb	83 3d 00 00 00
	00 00		 cmp	 DWORD PTR ?pActWnd@@3PAUaction@@A, 0
  010d2	0f 84 62 01 00
	00		 je	 $LN168@BattleButt

; 1075 : 					int flag = FALSE;

  010d8	c7 85 b0 fe ff
	ff 00 00 00 00	 mov	 DWORD PTR _flag$5[ebp], 0

; 1076 : 					int col;
; 1077 : 
; 1078 : 					x = pActWnd->x + 30;

  010e2	a1 00 00 00 00	 mov	 eax, DWORD PTR ?pActWnd@@3PAUaction@@A
  010e7	8b 48 18	 mov	 ecx, DWORD PTR [eax+24]
  010ea	83 c1 1e	 add	 ecx, 30			; 0000001eH
  010ed	89 4d e8	 mov	 DWORD PTR _x$[ebp], ecx

; 1079 : 					y = pActWnd->y + 35;

  010f0	a1 00 00 00 00	 mov	 eax, DWORD PTR ?pActWnd@@3PAUaction@@A
  010f5	8b 48 1c	 mov	 ecx, DWORD PTR [eax+28]
  010f8	83 c1 23	 add	 ecx, 35			; 00000023H
  010fb	89 4d dc	 mov	 DWORD PTR _y$[ebp], ecx

; 1080 : 
; 1081 : 					for( i = 0 ; i < 5 ; i++ ){

  010fe	c7 45 f4 00 00
	00 00		 mov	 DWORD PTR _i$[ebp], 0
  01105	eb 09		 jmp	 SHORT $LN62@BattleButt
$LN60@BattleButt:
  01107	8b 45 f4	 mov	 eax, DWORD PTR _i$[ebp]
  0110a	83 c0 01	 add	 eax, 1
  0110d	89 45 f4	 mov	 DWORD PTR _i$[ebp], eax
$LN62@BattleButt:
  01110	83 7d f4 05	 cmp	 DWORD PTR _i$[ebp], 5
  01114	0f 8d c1 00 00
	00		 jge	 $LN61@BattleButt

; 1082 : 
; 1083 : 						if( magic[ i ].useFlag == TRUE ){

  0111a	6b 45 f4 70	 imul	 eax, DWORD PTR _i$[ebp], 112
  0111e	0f bf 88 00 00
	00 00		 movsx	 ecx, WORD PTR ?magic@@3PAUMAGIC@@A[eax]
  01125	83 f9 01	 cmp	 ecx, 1
  01128	0f 85 a8 00 00
	00		 jne	 $LN164@BattleButt

; 1084 : 							col = FONT_PAL_WHITE;

  0112e	c7 85 a4 fe ff
	ff 00 00 00 00	 mov	 DWORD PTR _col$4[ebp], 0

; 1085 : 							if( magic[ i ].mp > p_party[ BattleMyNo ]->mp ) col = FONT_PAL_RED;	// ????

  01138	6b 45 f4 70	 imul	 eax, DWORD PTR _i$[ebp], 112
  0113c	8b 0d 00 00 00
	00		 mov	 ecx, DWORD PTR ?BattleMyNo@@3HA ; BattleMyNo
  01142	8b 14 8d 00 00
	00 00		 mov	 edx, DWORD PTR ?p_party@@3PAPAUaction@@A[ecx*4]
  01149	8b 80 04 00 00
	00		 mov	 eax, DWORD PTR ?magic@@3PAUMAGIC@@A[eax+4]
  0114f	3b 82 84 00 00
	00		 cmp	 eax, DWORD PTR [edx+132]
  01155	7e 0a		 jle	 SHORT $LN165@BattleButt
  01157	c7 85 a4 fe ff
	ff 06 00 00 00	 mov	 DWORD PTR _col$4[ebp], 6
$LN165@BattleButt:

; 1086 : 							if( magic[ i ].field == MAGIC_FIELD_MAP ) col = FONT_PAL_GRAY;	// ?????

  01161	6b 45 f4 70	 imul	 eax, DWORD PTR _i$[ebp], 112
  01165	0f bf 88 08 00
	00 00		 movsx	 ecx, WORD PTR ?magic@@3PAUMAGIC@@A[eax+8]
  0116c	83 f9 02	 cmp	 ecx, 2
  0116f	75 0a		 jne	 SHORT $LN166@BattleButt
  01171	c7 85 a4 fe ff
	ff 07 00 00 00	 mov	 DWORD PTR _col$4[ebp], 7
$LN166@BattleButt:

; 1087 : 
; 1088 : 							CenteringStr( magic[ i ].name, moji, MAGIC_NAME_LEN );

  0117b	6a 18		 push	 24			; 00000018H
  0117d	8d 85 c8 fe ff
	ff		 lea	 eax, DWORD PTR _moji$[ebp]
  01183	50		 push	 eax
  01184	6b 4d f4 70	 imul	 ecx, DWORD PTR _i$[ebp], 112
  01188	81 c1 0e 00 00
	00		 add	 ecx, OFFSET ?magic@@3PAUMAGIC@@A+14
  0118e	51		 push	 ecx
  0118f	e8 00 00 00 00	 call	 ?CenteringStr@@YAXPAD0H@Z ; CenteringStr
  01194	83 c4 0c	 add	 esp, 12			; 0000000cH

; 1089 : 							battleMenuJujutsuFontNo[ i ] = StockFontBuffer( x, y, FONT_PRIO_FRONT, col, moji, 2 ); y += 28;

  01197	6a 02		 push	 2
  01199	8d 85 c8 fe ff
	ff		 lea	 eax, DWORD PTR _moji$[ebp]
  0119f	50		 push	 eax
  011a0	8b 8d a4 fe ff
	ff		 mov	 ecx, DWORD PTR _col$4[ebp]
  011a6	51		 push	 ecx
  011a7	6a 01		 push	 1
  011a9	8b 55 dc	 mov	 edx, DWORD PTR _y$[ebp]
  011ac	52		 push	 edx
  011ad	8b 45 e8	 mov	 eax, DWORD PTR _x$[ebp]
  011b0	50		 push	 eax
  011b1	e8 00 00 00 00	 call	 ?StockFontBuffer@@YAHHHDHPADH@Z ; StockFontBuffer
  011b6	83 c4 18	 add	 esp, 24			; 00000018H
  011b9	8b 4d f4	 mov	 ecx, DWORD PTR _i$[ebp]
  011bc	89 04 8d 00 00
	00 00		 mov	 DWORD PTR ?battleMenuJujutsuFontNo@@3PAHA[ecx*4], eax
  011c3	8b 45 dc	 mov	 eax, DWORD PTR _y$[ebp]
  011c6	83 c0 1c	 add	 eax, 28			; 0000001cH
  011c9	89 45 dc	 mov	 DWORD PTR _y$[ebp], eax

; 1090 : 							flag = TRUE;

  011cc	c7 85 b0 fe ff
	ff 01 00 00 00	 mov	 DWORD PTR _flag$5[ebp], 1
$LN164@BattleButt:

; 1091 : 						}
; 1092 : 					}

  011d6	e9 2c ff ff ff	 jmp	 $LN60@BattleButt
$LN61@BattleButt:

; 1093 : 					if( flag == FALSE ) StockFontBuffer( x, y, FONT_PRIO_FRONT, 0, "주술이 없습니다", 0 );

  011db	83 bd b0 fe ff
	ff 00		 cmp	 DWORD PTR _flag$5[ebp], 0
  011e2	75 1b		 jne	 SHORT $LN167@BattleButt
  011e4	6a 00		 push	 0
  011e6	68 00 00 00 00	 push	 OFFSET ??_C@_0BA@BODGMCMN@?A?V?$LM?z?$MA?L?5?$LO?x?$LN?$MA?$LE?O?$LE?Y?$AA@
  011eb	6a 00		 push	 0
  011ed	6a 01		 push	 1
  011ef	8b 45 dc	 mov	 eax, DWORD PTR _y$[ebp]
  011f2	50		 push	 eax
  011f3	8b 4d e8	 mov	 ecx, DWORD PTR _x$[ebp]
  011f6	51		 push	 ecx
  011f7	e8 00 00 00 00	 call	 ?StockFontBuffer@@YAHHHDHPADH@Z ; StockFontBuffer
  011fc	83 c4 18	 add	 esp, 24			; 00000018H
$LN167@BattleButt:

; 1094 : 
; 1095 : 					battleMenuJujutsuFontNo[ 5 ] = StockDispBuffer( ( ( WINDOW_DISP *)pActWnd->pYobi )->mx, pActWnd->y + 262 + 10, DISP_PRIO_IME3, CG_CLOSE_BTN, 2 );

  011ff	6a 02		 push	 2
  01201	68 ba 65 00 00	 push	 26042			; 000065baH
  01206	6a 69		 push	 105			; 00000069H
  01208	a1 00 00 00 00	 mov	 eax, DWORD PTR ?pActWnd@@3PAUaction@@A
  0120d	8b 48 1c	 mov	 ecx, DWORD PTR [eax+28]
  01210	81 c1 10 01 00
	00		 add	 ecx, 272		; 00000110H
  01216	51		 push	 ecx
  01217	8b 15 00 00 00
	00		 mov	 edx, DWORD PTR ?pActWnd@@3PAUaction@@A
  0121d	8b 42 0c	 mov	 eax, DWORD PTR [edx+12]
  01220	8b 48 14	 mov	 ecx, DWORD PTR [eax+20]
  01223	51		 push	 ecx
  01224	e8 00 00 00 00	 call	 ?StockDispBuffer@@YAHHHEHH@Z ; StockDispBuffer
  01229	83 c4 14	 add	 esp, 20			; 00000014H
  0122c	ba 04 00 00 00	 mov	 edx, 4
  01231	6b ca 05	 imul	 ecx, edx, 5
  01234	89 81 00 00 00
	00		 mov	 DWORD PTR ?battleMenuJujutsuFontNo@@3PAHA[ecx], eax
$LN168@BattleButt:

; 1096 : 				}
; 1097 : 			}
; 1098 : 		}
; 1099 : 	}
; 1100 : }

  0123a	52		 push	 edx
  0123b	8b cd		 mov	 ecx, ebp
  0123d	50		 push	 eax
  0123e	8d 15 00 00 00
	00		 lea	 edx, DWORD PTR $LN177@BattleButt
  01244	e8 00 00 00 00	 call	 @_RTC_CheckStackVars@8
  01249	58		 pop	 eax
  0124a	5a		 pop	 edx
  0124b	5f		 pop	 edi
  0124c	5e		 pop	 esi
  0124d	5b		 pop	 ebx
  0124e	8b 4d fc	 mov	 ecx, DWORD PTR __$ArrayPad$[ebp]
  01251	33 cd		 xor	 ecx, ebp
  01253	e8 00 00 00 00	 call	 @__security_check_cookie@4
  01258	81 c4 48 02 00
	00		 add	 esp, 584		; 00000248H
  0125e	3b ec		 cmp	 ebp, esp
  01260	e8 00 00 00 00	 call	 __RTC_CheckEsp
  01265	8b e5		 mov	 esp, ebp
  01267	5d		 pop	 ebp
  01268	c3		 ret	 0
  01269	0f 1f 00	 npad	 3
$LN177@BattleButt:
  0126c	01 00 00 00	 DD	 1
  01270	00 00 00 00	 DD	 $LN176@BattleButt
$LN176@BattleButt:
  01274	c8 fe ff ff	 DD	 -312			; fffffec8H
  01278	00 01 00 00	 DD	 256			; 00000100H
  0127c	00 00 00 00	 DD	 $LN175@BattleButt
$LN175@BattleButt:
  01280	6d		 DB	 109			; 0000006dH
  01281	6f		 DB	 111			; 0000006fH
  01282	6a		 DB	 106			; 0000006aH
  01283	69		 DB	 105			; 00000069H
  01284	00		 DB	 0
  01285	0f 1f 00	 npad	 3
$LN178@BattleButt:
  01288	00 00 00 00	 DD	 $LN83@BattleButt
  0128c	00 00 00 00	 DD	 $LN84@BattleButt
  01290	00 00 00 00	 DD	 $LN125@BattleButt
  01294	00 00 00 00	 DD	 $LN136@BattleButt
  01298	00 00 00 00	 DD	 $LN147@BattleButt
  0129c	00 00 00 00	 DD	 $LN74@BattleButt
  012a0	00 00 00 00	 DD	 $LN74@BattleButt
  012a4	00 00 00 00	 DD	 $LN74@BattleButt
  012a8	00 00 00 00	 DD	 $LN152@BattleButt
  012ac	00 00 00 00	 DD	 $LN88@BattleButt
  012b0	00 00 00 00	 DD	 $LN97@BattleButt
  012b4	00 00 00 00	 DD	 $LN114@BattleButt
?BattleButtonJujutsu@@YAXXZ ENDP			; BattleButtonJujutsu
_TEXT	ENDS
; Function compile flags: /Odtp /RTCsu /ZI
; File c:\users\administrator\desktop\????? ??\????? ??\client source code\system\battlemenu.cpp
;	COMDAT ?BattleButtonAttack@@YAXXZ
_TEXT	SEGMENT
_hitBoxAll$ = -56					; size = 4
_bak$ = -44						; size = 4
_k$ = -32						; size = 4
_j$ = -20						; size = 4
_i$ = -8						; size = 4
?BattleButtonAttack@@YAXXZ PROC				; BattleButtonAttack, COMDAT

; 552  : {

  00000	55		 push	 ebp
  00001	8b ec		 mov	 ebp, esp
  00003	81 ec fc 00 00
	00		 sub	 esp, 252		; 000000fcH
  00009	53		 push	 ebx
  0000a	56		 push	 esi
  0000b	57		 push	 edi
  0000c	8d bd 04 ff ff
	ff		 lea	 edi, DWORD PTR [ebp-252]
  00012	b9 3f 00 00 00	 mov	 ecx, 63			; 0000003fH
  00017	b8 cc cc cc cc	 mov	 eax, -858993460		; ccccccccH
  0001c	f3 ab		 rep stosd

; 553  : 	int i, j, k, bak, hitBoxAll;
; 554  : 	if( HitDispNo == battleButtonDispNo[ 0 ] || battleButtonBak2 == 0 ){

  0001e	b8 04 00 00 00	 mov	 eax, 4
  00023	6b c8 00	 imul	 ecx, eax, 0
  00026	8b 15 00 00 00
	00		 mov	 edx, DWORD PTR ?HitDispNo@@3HA ; HitDispNo
  0002c	3b 91 00 00 00
	00		 cmp	 edx, DWORD PTR ?battleButtonDispNo@@3PAHA[ecx]
  00032	74 0d		 je	 SHORT $LN12@BattleButt
  00034	83 3d 00 00 00
	00 00		 cmp	 DWORD PTR ?battleButtonBak2@@3HA, 0
  0003b	0f 85 dd 01 00
	00		 jne	 $LN1@BattleButt
$LN12@BattleButt:

; 555  : 
; 556  : 		if( mouse.onceState & MOUSE_LEFT_CRICK || battleButtonBak2 == 0 ){

  00041	a1 2c 00 00 00	 mov	 eax, DWORD PTR ?mouse@@3UMOUSE@@A+44
  00046	83 e0 01	 and	 eax, 1
  00049	75 0d		 jne	 SHORT $LN14@BattleButt
  0004b	83 3d 00 00 00
	00 00		 cmp	 DWORD PTR ?battleButtonBak2@@3HA, 0
  00052	0f 85 b4 01 00
	00		 jne	 $LN13@BattleButt
$LN14@BattleButt:

; 557  : 			bak = battleButtonFlag[ 0 ];

  00058	b8 04 00 00 00	 mov	 eax, 4
  0005d	6b c8 00	 imul	 ecx, eax, 0
  00060	8b 91 00 00 00
	00		 mov	 edx, DWORD PTR ?battleButtonFlag@@3PAHA[ecx]
  00066	89 55 d4	 mov	 DWORD PTR _bak$[ebp], edx

; 558  : 			BattleButtonOff();

  00069	e8 00 00 00 00	 call	 ?BattleButtonOff@@YAXXZ	; BattleButtonOff

; 559  : 
; 560  : 			if( bak == FALSE ){

  0006e	83 7d d4 00	 cmp	 DWORD PTR _bak$[ebp], 0
  00072	0f 85 94 01 00
	00		 jne	 $LN13@BattleButt

; 561  : 
; 562  : 				battleTargetSelectFlag = TRUE;

  00078	c7 05 00 00 00
	00 01 00 00 00	 mov	 DWORD PTR ?battleTargetSelectFlag@@3HA, 1

; 563  : 
; 564  : 				BattleCmdNo = BATTLE_ATTACK;

  00082	c7 05 00 00 00
	00 00 00 00 00	 mov	 DWORD PTR ?BattleCmdNo@@3HA, 0 ; BattleCmdNo

; 565  : 
; 566  : 				battleButtonFlag[ 0 ] = TRUE;

  0008c	b8 04 00 00 00	 mov	 eax, 4
  00091	6b c8 00	 imul	 ecx, eax, 0
  00094	c7 81 00 00 00
	00 01 00 00 00	 mov	 DWORD PTR ?battleButtonFlag@@3PAHA[ecx], 1

; 567  : 
; 568  : 				battleButtonBak = 0;

  0009e	c7 05 00 00 00
	00 00 00 00 00	 mov	 DWORD PTR ?battleButtonBak@@3HA, 0 ; battleButtonBak

; 569  : 
; 570  : 				battleButtonBak2 = -1;

  000a8	c7 05 00 00 00
	00 ff ff ff ff	 mov	 DWORD PTR ?battleButtonBak2@@3HA, -1

; 571  : 
; 572  : 				if( BattleBpFlag & BATTLE_BP_BOOMERANG ){

  000b2	a1 00 00 00 00	 mov	 eax, DWORD PTR ?BattleBpFlag@@3HA ; BattleBpFlag
  000b7	83 e0 04	 and	 eax, 4
  000ba	0f 84 de 00 00
	00		 je	 $LN16@BattleButt

; 573  : 
; 574  : 					hitBoxAll = ACT_ATR_HIT_BOX_ALL1;

  000c0	c7 45 c8 00 20
	00 00		 mov	 DWORD PTR _hitBoxAll$[ebp], 8192 ; 00002000H

; 575  : 					j = 0;

  000c7	c7 45 ec 00 00
	00 00		 mov	 DWORD PTR _j$[ebp], 0

; 576  : 
; 577  : 					for( i = 0 ; i < 4 ; i++ ){

  000ce	c7 45 f8 00 00
	00 00		 mov	 DWORD PTR _i$[ebp], 0
  000d5	eb 09		 jmp	 SHORT $LN4@BattleButt
$LN2@BattleButt:
  000d7	8b 45 f8	 mov	 eax, DWORD PTR _i$[ebp]
  000da	83 c0 01	 add	 eax, 1
  000dd	89 45 f8	 mov	 DWORD PTR _i$[ebp], eax
$LN4@BattleButt:
  000e0	83 7d f8 04	 cmp	 DWORD PTR _i$[ebp], 4
  000e4	0f 8d b2 00 00
	00		 jge	 $LN3@BattleButt

; 578  : 
; 579  : 						if( !( j <= BattleMyNo && BattleMyNo < j + 5 ) ){

  000ea	8b 45 ec	 mov	 eax, DWORD PTR _j$[ebp]
  000ed	3b 05 00 00 00
	00		 cmp	 eax, DWORD PTR ?BattleMyNo@@3HA ; BattleMyNo
  000f3	7f 12		 jg	 SHORT $LN19@BattleButt
  000f5	8b 45 ec	 mov	 eax, DWORD PTR _j$[ebp]
  000f8	83 c0 05	 add	 eax, 5
  000fb	39 05 00 00 00
	00		 cmp	 DWORD PTR ?BattleMyNo@@3HA, eax ; BattleMyNo
  00101	0f 8c 87 00 00
	00		 jl	 $LN18@BattleButt
$LN19@BattleButt:

; 580  : 
; 581  : 							for( k = j ; k < j + 5 ; k++ ){

  00107	8b 45 ec	 mov	 eax, DWORD PTR _j$[ebp]
  0010a	89 45 e0	 mov	 DWORD PTR _k$[ebp], eax
  0010d	eb 09		 jmp	 SHORT $LN7@BattleButt
$LN5@BattleButt:
  0010f	8b 45 e0	 mov	 eax, DWORD PTR _k$[ebp]
  00112	83 c0 01	 add	 eax, 1
  00115	89 45 e0	 mov	 DWORD PTR _k$[ebp], eax
$LN7@BattleButt:
  00118	8b 45 ec	 mov	 eax, DWORD PTR _j$[ebp]
  0011b	83 c0 05	 add	 eax, 5
  0011e	39 45 e0	 cmp	 DWORD PTR _k$[ebp], eax
  00121	7d 63		 jge	 SHORT $LN6@BattleButt

; 582  : 
; 583  : 								if( p_party[ k ]->func == NULL ) continue;

  00123	8b 45 e0	 mov	 eax, DWORD PTR _k$[ebp]
  00126	8b 0c 85 00 00
	00 00		 mov	 ecx, DWORD PTR ?p_party@@3PAPAUaction@@A[eax*4]
  0012d	83 79 08 00	 cmp	 DWORD PTR [ecx+8], 0
  00131	75 02		 jne	 SHORT $LN20@BattleButt
  00133	eb da		 jmp	 SHORT $LN5@BattleButt
$LN20@BattleButt:

; 584  : 
; 585  : 								if( p_party[ k ]->hp <= 0 ) continue;

  00135	8b 45 e0	 mov	 eax, DWORD PTR _k$[ebp]
  00138	8b 0c 85 00 00
	00 00		 mov	 ecx, DWORD PTR ?p_party@@3PAPAUaction@@A[eax*4]
  0013f	83 79 78 00	 cmp	 DWORD PTR [ecx+120], 0
  00143	7f 02		 jg	 SHORT $LN21@BattleButt
  00145	eb c8		 jmp	 SHORT $LN5@BattleButt
$LN21@BattleButt:

; 586  : 
; 587  : 								if( p_party[ k ]->atr & ACT_ATR_TRAVEL ) continue;

  00147	8b 45 e0	 mov	 eax, DWORD PTR _k$[ebp]
  0014a	8b 0c 85 00 00
	00 00		 mov	 ecx, DWORD PTR ?p_party@@3PAPAUaction@@A[eax*4]
  00151	8b 91 a4 00 00
	00		 mov	 edx, DWORD PTR [ecx+164]
  00157	81 e2 00 00 02
	00		 and	 edx, 131072		; 00020000H
  0015d	74 02		 je	 SHORT $LN22@BattleButt
  0015f	eb ae		 jmp	 SHORT $LN5@BattleButt
$LN22@BattleButt:

; 588  : 
; 589  : 								p_party[ k ]->atr |= hitBoxAll;

  00161	8b 45 e0	 mov	 eax, DWORD PTR _k$[ebp]
  00164	8b 0c 85 00 00
	00 00		 mov	 ecx, DWORD PTR ?p_party@@3PAPAUaction@@A[eax*4]
  0016b	8b 91 a4 00 00
	00		 mov	 edx, DWORD PTR [ecx+164]
  00171	0b 55 c8	 or	 edx, DWORD PTR _hitBoxAll$[ebp]
  00174	8b 45 e0	 mov	 eax, DWORD PTR _k$[ebp]
  00177	8b 0c 85 00 00
	00 00		 mov	 ecx, DWORD PTR ?p_party@@3PAPAUaction@@A[eax*4]
  0017e	89 91 a4 00 00
	00		 mov	 DWORD PTR [ecx+164], edx

; 590  : 							}

  00184	eb 89		 jmp	 SHORT $LN5@BattleButt
$LN6@BattleButt:

; 591  : 
; 592  : 							hitBoxAll <<= 1;

  00186	8b 45 c8	 mov	 eax, DWORD PTR _hitBoxAll$[ebp]
  00189	d1 e0		 shl	 eax, 1
  0018b	89 45 c8	 mov	 DWORD PTR _hitBoxAll$[ebp], eax
$LN18@BattleButt:

; 593  : 						}
; 594  : 						j += 5;

  0018e	8b 45 ec	 mov	 eax, DWORD PTR _j$[ebp]
  00191	83 c0 05	 add	 eax, 5
  00194	89 45 ec	 mov	 DWORD PTR _j$[ebp], eax

; 595  : 					}

  00197	e9 3b ff ff ff	 jmp	 $LN2@BattleButt
$LN3@BattleButt:

; 596  : 				}else{

  0019c	eb 6e		 jmp	 SHORT $LN13@BattleButt
$LN16@BattleButt:

; 597  : 
; 598  : 					for( i = 0 ; i < 20 ; i++ ){

  0019e	c7 45 f8 00 00
	00 00		 mov	 DWORD PTR _i$[ebp], 0
  001a5	eb 09		 jmp	 SHORT $LN10@BattleButt
$LN8@BattleButt:
  001a7	8b 45 f8	 mov	 eax, DWORD PTR _i$[ebp]
  001aa	83 c0 01	 add	 eax, 1
  001ad	89 45 f8	 mov	 DWORD PTR _i$[ebp], eax
$LN10@BattleButt:
  001b0	83 7d f8 14	 cmp	 DWORD PTR _i$[ebp], 20	; 00000014H
  001b4	7d 56		 jge	 SHORT $LN13@BattleButt

; 599  : 
; 600  : 						if( i == BattleMyNo ) continue;

  001b6	8b 45 f8	 mov	 eax, DWORD PTR _i$[ebp]
  001b9	3b 05 00 00 00
	00		 cmp	 eax, DWORD PTR ?BattleMyNo@@3HA ; BattleMyNo
  001bf	75 02		 jne	 SHORT $LN23@BattleButt
  001c1	eb e4		 jmp	 SHORT $LN8@BattleButt
$LN23@BattleButt:

; 601  : 
; 602  : 						if( p_party[ i ]->func == NULL ) continue;

  001c3	8b 45 f8	 mov	 eax, DWORD PTR _i$[ebp]
  001c6	8b 0c 85 00 00
	00 00		 mov	 ecx, DWORD PTR ?p_party@@3PAPAUaction@@A[eax*4]
  001cd	83 79 08 00	 cmp	 DWORD PTR [ecx+8], 0
  001d1	75 02		 jne	 SHORT $LN24@BattleButt
  001d3	eb d2		 jmp	 SHORT $LN8@BattleButt
$LN24@BattleButt:

; 603  : 
; 604  : 						if( p_party[ i ]->hp <= 0 ) continue;

  001d5	8b 45 f8	 mov	 eax, DWORD PTR _i$[ebp]
  001d8	8b 0c 85 00 00
	00 00		 mov	 ecx, DWORD PTR ?p_party@@3PAPAUaction@@A[eax*4]
  001df	83 79 78 00	 cmp	 DWORD PTR [ecx+120], 0
  001e3	7f 02		 jg	 SHORT $LN25@BattleButt
  001e5	eb c0		 jmp	 SHORT $LN8@BattleButt
$LN25@BattleButt:

; 605  : 
; 606  : 						p_party[ i ]->atr |= ACT_ATR_HIT_BOX;

  001e7	8b 45 f8	 mov	 eax, DWORD PTR _i$[ebp]
  001ea	8b 0c 85 00 00
	00 00		 mov	 ecx, DWORD PTR ?p_party@@3PAPAUaction@@A[eax*4]
  001f1	8b 91 a4 00 00
	00		 mov	 edx, DWORD PTR [ecx+164]
  001f7	83 ca 08	 or	 edx, 8
  001fa	8b 45 f8	 mov	 eax, DWORD PTR _i$[ebp]
  001fd	8b 0c 85 00 00
	00 00		 mov	 ecx, DWORD PTR ?p_party@@3PAPAUaction@@A[eax*4]
  00204	89 91 a4 00 00
	00		 mov	 DWORD PTR [ecx+164], edx

; 607  : 					}

  0020a	eb 9b		 jmp	 SHORT $LN8@BattleButt
$LN13@BattleButt:

; 608  : 				}
; 609  : 			}
; 610  : 		}
; 611  : 		strcpy( OneLineInfoStr,"공격하다。");

  0020c	68 00 00 00 00	 push	 OFFSET ??_C@_0L@BHJLNCHD@?$LA?x?$LA?$NN?G?O?$LE?Y?$KB?$KD?$AA@
  00211	68 00 00 00 00	 push	 OFFSET ?OneLineInfoStr@@3PADA ; OneLineInfoStr
  00216	e8 00 00 00 00	 call	 _strcpy
  0021b	83 c4 08	 add	 esp, 8
$LN1@BattleButt:

; 612  : 	}
; 613  : }

  0021e	5f		 pop	 edi
  0021f	5e		 pop	 esi
  00220	5b		 pop	 ebx
  00221	81 c4 fc 00 00
	00		 add	 esp, 252		; 000000fcH
  00227	3b ec		 cmp	 ebp, esp
  00229	e8 00 00 00 00	 call	 __RTC_CheckEsp
  0022e	8b e5		 mov	 esp, ebp
  00230	5d		 pop	 ebp
  00231	c3		 ret	 0
?BattleButtonAttack@@YAXXZ ENDP				; BattleButtonAttack
_TEXT	ENDS
; Function compile flags: /Odtp /RTCsu /ZI
; File c:\program files (x86)\windows kits\10\include\10.0.10240.0\ucrt\stdio.h
;	COMDAT ??$sprintf_s@$0BAA@@@YAHAAY0BAA@DPBDZZ
_TEXT	SEGMENT
__ArgList$ = -8						; size = 4
__Buffer$ = 8						; size = 4
__Format$ = 12						; size = 4
??$sprintf_s@$0BAA@@@YAHAAY0BAA@DPBDZZ PROC		; sprintf_s<256>, COMDAT

; 1850 :     )

  00000	55		 push	 ebp
  00001	8b ec		 mov	 ebp, esp
  00003	81 ec cc 00 00
	00		 sub	 esp, 204		; 000000ccH
  00009	53		 push	 ebx
  0000a	56		 push	 esi
  0000b	57		 push	 edi
  0000c	8d bd 34 ff ff
	ff		 lea	 edi, DWORD PTR [ebp-204]
  00012	b9 33 00 00 00	 mov	 ecx, 51			; 00000033H
  00017	b8 cc cc cc cc	 mov	 eax, -858993460		; ccccccccH
  0001c	f3 ab		 rep stosd

; 1846 : __DEFINE_CPP_OVERLOAD_SECURE_FUNC_0_1_ARGLIST(

  0001e	e8 00 00 00 00	 call	 ??$__vcrt_va_start_verify_argument_type@PBD@@YAXXZ ; __vcrt_va_start_verify_argument_type<char const *>
  00023	8d 45 10	 lea	 eax, DWORD PTR __Format$[ebp+4]
  00026	89 45 f8	 mov	 DWORD PTR __ArgList$[ebp], eax
  00029	8b 45 f8	 mov	 eax, DWORD PTR __ArgList$[ebp]
  0002c	50		 push	 eax
  0002d	8b 4d 0c	 mov	 ecx, DWORD PTR __Format$[ebp]
  00030	51		 push	 ecx
  00031	68 00 01 00 00	 push	 256			; 00000100H
  00036	8b 55 08	 mov	 edx, DWORD PTR __Buffer$[ebp]
  00039	52		 push	 edx
  0003a	e8 00 00 00 00	 call	 _vsprintf_s
  0003f	83 c4 10	 add	 esp, 16			; 00000010H
  00042	5f		 pop	 edi
  00043	5e		 pop	 esi
  00044	5b		 pop	 ebx
  00045	81 c4 cc 00 00
	00		 add	 esp, 204		; 000000ccH
  0004b	3b ec		 cmp	 ebp, esp
  0004d	e8 00 00 00 00	 call	 __RTC_CheckEsp
  00052	8b e5		 mov	 esp, ebp
  00054	5d		 pop	 ebp
  00055	c3		 ret	 0
??$sprintf_s@$0BAA@@@YAHAAY0BAA@DPBDZZ ENDP		; sprintf_s<256>
_TEXT	ENDS
; Function compile flags: /Odtp /RTCsu /ZI
; File c:\users\administrator\desktop\????? ??\????? ??\client source code\system\battlemenu.cpp
;	COMDAT ?InitItem2@@YAXHH@Z
_TEXT	SEGMENT
_k$ = -32						; size = 4
_j$ = -20						; size = 4
_i$ = -8						; size = 4
_x$ = 8							; size = 4
_y$ = 12						; size = 4
?InitItem2@@YAXHH@Z PROC				; InitItem2, COMDAT

; 364  : void InitItem2( int x, int y ){

  00000	55		 push	 ebp
  00001	8b ec		 mov	 ebp, esp
  00003	81 ec e4 00 00
	00		 sub	 esp, 228		; 000000e4H
  00009	53		 push	 ebx
  0000a	56		 push	 esi
  0000b	57		 push	 edi
  0000c	8d bd 1c ff ff
	ff		 lea	 edi, DWORD PTR [ebp-228]
  00012	b9 39 00 00 00	 mov	 ecx, 57			; 00000039H
  00017	b8 cc cc cc cc	 mov	 eax, -858993460		; ccccccccH
  0001c	f3 ab		 rep stosd

; 365  : 	int i, j = 0, k = 0;

  0001e	c7 45 ec 00 00
	00 00		 mov	 DWORD PTR _j$[ebp], 0
  00025	c7 45 e0 00 00
	00 00		 mov	 DWORD PTR _k$[ebp], 0

; 366  : 	for( i = MAX_ITEMSTART ; i < MAX_ITEM ; i++ ){

  0002c	c7 45 f8 09 00
	00 00		 mov	 DWORD PTR _i$[ebp], 9
  00033	eb 09		 jmp	 SHORT $LN4@InitItem2
$LN2@InitItem2:
  00035	8b 45 f8	 mov	 eax, DWORD PTR _i$[ebp]
  00038	83 c0 01	 add	 eax, 1
  0003b	89 45 f8	 mov	 DWORD PTR _i$[ebp], eax
$LN4@InitItem2:
  0003e	83 7d f8 36	 cmp	 DWORD PTR _i$[ebp], 54	; 00000036H
  00042	0f 8d af 00 00
	00		 jge	 $LN1@InitItem2

; 367  : 		ItemBuffer[ i ].defX = x + 32 + j;

  00048	8b 45 ec	 mov	 eax, DWORD PTR _j$[ebp]
  0004b	8b 4d 08	 mov	 ecx, DWORD PTR _x$[ebp]
  0004e	8d 54 01 20	 lea	 edx, DWORD PTR [ecx+eax+32]
  00052	8b 45 f8	 mov	 eax, DWORD PTR _i$[ebp]
  00055	c1 e0 05	 shl	 eax, 5
  00058	89 90 08 00 00
	00		 mov	 DWORD PTR ?ItemBuffer@@3PAUITEM_BUFFER@@A[eax+8], edx

; 368  : 		ItemBuffer[ i ].defY = y + 56 + 48 + 48 + 48 -160 + k;

  0005e	8b 45 e0	 mov	 eax, DWORD PTR _k$[ebp]
  00061	8b 4d 0c	 mov	 ecx, DWORD PTR _y$[ebp]
  00064	8d 54 01 28	 lea	 edx, DWORD PTR [ecx+eax+40]
  00068	8b 45 f8	 mov	 eax, DWORD PTR _i$[ebp]
  0006b	c1 e0 05	 shl	 eax, 5
  0006e	89 90 0c 00 00
	00		 mov	 DWORD PTR ?ItemBuffer@@3PAUITEM_BUFFER@@A[eax+12], edx

; 369  : 		ItemBuffer[ i ].x = ItemBuffer[ i ].defX;

  00074	8b 45 f8	 mov	 eax, DWORD PTR _i$[ebp]
  00077	c1 e0 05	 shl	 eax, 5
  0007a	8b 4d f8	 mov	 ecx, DWORD PTR _i$[ebp]
  0007d	c1 e1 05	 shl	 ecx, 5
  00080	8b 90 08 00 00
	00		 mov	 edx, DWORD PTR ?ItemBuffer@@3PAUITEM_BUFFER@@A[eax+8]
  00086	89 91 00 00 00
	00		 mov	 DWORD PTR ?ItemBuffer@@3PAUITEM_BUFFER@@A[ecx], edx

; 370  : 		ItemBuffer[ i ].y = ItemBuffer[ i ].defY;

  0008c	8b 45 f8	 mov	 eax, DWORD PTR _i$[ebp]
  0008f	c1 e0 05	 shl	 eax, 5
  00092	8b 4d f8	 mov	 ecx, DWORD PTR _i$[ebp]
  00095	c1 e1 05	 shl	 ecx, 5
  00098	8b 90 0c 00 00
	00		 mov	 edx, DWORD PTR ?ItemBuffer@@3PAUITEM_BUFFER@@A[eax+12]
  0009e	89 91 04 00 00
	00		 mov	 DWORD PTR ?ItemBuffer@@3PAUITEM_BUFFER@@A[ecx+4], edx

; 371  : 		ItemBuffer[ i ].bmpNo = 20000 + j / 48;

  000a4	8b 45 ec	 mov	 eax, DWORD PTR _j$[ebp]
  000a7	99		 cdq
  000a8	b9 30 00 00 00	 mov	 ecx, 48			; 00000030H
  000ad	f7 f9		 idiv	 ecx
  000af	05 20 4e 00 00	 add	 eax, 20000		; 00004e20H
  000b4	8b 55 f8	 mov	 edx, DWORD PTR _i$[ebp]
  000b7	c1 e2 05	 shl	 edx, 5
  000ba	89 82 10 00 00
	00		 mov	 DWORD PTR ?ItemBuffer@@3PAUITEM_BUFFER@@A[edx+16], eax

; 372  : 		ItemBuffer[ i ].dispPrio = DISP_PRIO_ITEM;

  000c0	8b 45 f8	 mov	 eax, DWORD PTR _i$[ebp]
  000c3	c1 e0 05	 shl	 eax, 5
  000c6	c7 80 14 00 00
	00 6c 00 00 00	 mov	 DWORD PTR ?ItemBuffer@@3PAUITEM_BUFFER@@A[eax+20], 108 ; 0000006cH

; 373  : 		j += 51;

  000d0	8b 45 ec	 mov	 eax, DWORD PTR _j$[ebp]
  000d3	83 c0 33	 add	 eax, 51			; 00000033H
  000d6	89 45 ec	 mov	 DWORD PTR _j$[ebp], eax

; 374  : 		if( j >= 48 * 5 ){

  000d9	81 7d ec f0 00
	00 00		 cmp	 DWORD PTR _j$[ebp], 240	; 000000f0H
  000e0	7c 10		 jl	 SHORT $LN5@InitItem2

; 375  : 			j = 0;

  000e2	c7 45 ec 00 00
	00 00		 mov	 DWORD PTR _j$[ebp], 0

; 376  : 			k += 48;

  000e9	8b 45 e0	 mov	 eax, DWORD PTR _k$[ebp]
  000ec	83 c0 30	 add	 eax, 48			; 00000030H
  000ef	89 45 e0	 mov	 DWORD PTR _k$[ebp], eax
$LN5@InitItem2:

; 377  : 		}
; 378  : 	}

  000f2	e9 3e ff ff ff	 jmp	 $LN2@InitItem2
$LN1@InitItem2:

; 379  : }

  000f7	5f		 pop	 edi
  000f8	5e		 pop	 esi
  000f9	5b		 pop	 ebx
  000fa	8b e5		 mov	 esp, ebp
  000fc	5d		 pop	 ebp
  000fd	c3		 ret	 0
?InitItem2@@YAXHH@Z ENDP				; InitItem2
_TEXT	ENDS
; Function compile flags: /Odtp /RTCsu /ZI
; File c:\users\administrator\desktop\????? ??\????? ??\client source code\system\battlemenu.cpp
;	COMDAT ?BattleButtonOff@@YAXXZ
_TEXT	SEGMENT
?BattleButtonOff@@YAXXZ PROC				; BattleButtonOff, COMDAT

; 349  : void BattleButtonOff( void ){

  00000	55		 push	 ebp
  00001	8b ec		 mov	 ebp, esp
  00003	81 ec c0 00 00
	00		 sub	 esp, 192		; 000000c0H
  00009	53		 push	 ebx
  0000a	56		 push	 esi
  0000b	57		 push	 edi
  0000c	8d bd 40 ff ff
	ff		 lea	 edi, DWORD PTR [ebp-192]
  00012	b9 30 00 00 00	 mov	 ecx, 48			; 00000030H
  00017	b8 cc cc cc cc	 mov	 eax, -858993460		; ccccccccH
  0001c	f3 ab		 rep stosd

; 350  : 	play_se( 217, 320, 240 );

  0001e	68 f0 00 00 00	 push	 240			; 000000f0H
  00023	68 40 01 00 00	 push	 320			; 00000140H
  00028	68 d9 00 00 00	 push	 217			; 000000d9H
  0002d	e8 00 00 00 00	 call	 ?play_se@@YAHHHH@Z	; play_se
  00032	83 c4 0c	 add	 esp, 12			; 0000000cH

; 351  : 	DeathAction( pActWnd );

  00035	a1 00 00 00 00	 mov	 eax, DWORD PTR ?pActWnd@@3PAUaction@@A
  0003a	50		 push	 eax
  0003b	e8 00 00 00 00	 call	 ?DeathAction@@YAXPAUaction@@@Z ; DeathAction
  00040	83 c4 04	 add	 esp, 4

; 352  : 	pActWnd = NULL;

  00043	c7 05 00 00 00
	00 00 00 00 00	 mov	 DWORD PTR ?pActWnd@@3PAUaction@@A, 0

; 353  : 	battleTargetSelectFlag = FALSE;

  0004d	c7 05 00 00 00
	00 00 00 00 00	 mov	 DWORD PTR ?battleTargetSelectFlag@@3HA, 0

; 354  : 	BattleCmdNo = -1;

  00057	c7 05 00 00 00
	00 ff ff ff ff	 mov	 DWORD PTR ?BattleCmdNo@@3HA, -1 ; BattleCmdNo

; 355  : 
; 356  : #ifdef _BATTLESKILL				// (不可开) Syu ADD 战斗技能介面
; 357  : 	wonflag = 0 ; 

  00061	c7 05 00 00 00
	00 00 00 00 00	 mov	 DWORD PTR ?wonflag@@3HA, 0 ; wonflag

; 358  : #endif
; 359  : 	ClearBattleButton();

  0006b	e8 00 00 00 00	 call	 ?ClearBattleButton@@YAXXZ ; ClearBattleButton

; 360  : 	ClearBoxFlag();

  00070	e8 00 00 00 00	 call	 ?ClearBoxFlag@@YAXXZ	; ClearBoxFlag

; 361  : }

  00075	5f		 pop	 edi
  00076	5e		 pop	 esi
  00077	5b		 pop	 ebx
  00078	81 c4 c0 00 00
	00		 add	 esp, 192		; 000000c0H
  0007e	3b ec		 cmp	 ebp, esp
  00080	e8 00 00 00 00	 call	 __RTC_CheckEsp
  00085	8b e5		 mov	 esp, ebp
  00087	5d		 pop	 ebp
  00088	c3		 ret	 0
?BattleButtonOff@@YAXXZ ENDP				; BattleButtonOff
_TEXT	ENDS
; Function compile flags: /Odtp /RTCsu /ZI
; File c:\users\administrator\desktop\????? ??\????? ??\client source code\system\battlemenu.cpp
;	COMDAT ?CheckBattelTarget@@YAHXZ
_TEXT	SEGMENT
_i$ = -8						; size = 4
?CheckBattelTarget@@YAHXZ PROC				; CheckBattelTarget, COMDAT

; 290  : {

  00000	55		 push	 ebp
  00001	8b ec		 mov	 ebp, esp
  00003	81 ec cc 00 00
	00		 sub	 esp, 204		; 000000ccH
  00009	53		 push	 ebx
  0000a	56		 push	 esi
  0000b	57		 push	 edi
  0000c	8d bd 34 ff ff
	ff		 lea	 edi, DWORD PTR [ebp-204]
  00012	b9 33 00 00 00	 mov	 ecx, 51			; 00000033H
  00017	b8 cc cc cc cc	 mov	 eax, -858993460		; ccccccccH
  0001c	f3 ab		 rep stosd

; 291  : 	int i;
; 292  : 	// ?????????????
; 293  : 	for( i = 0 ; i < 20 ; i++ ){

  0001e	c7 45 f8 00 00
	00 00		 mov	 DWORD PTR _i$[ebp], 0
  00025	eb 09		 jmp	 SHORT $LN4@CheckBatte
$LN2@CheckBatte:
  00027	8b 45 f8	 mov	 eax, DWORD PTR _i$[ebp]
  0002a	83 c0 01	 add	 eax, 1
  0002d	89 45 f8	 mov	 DWORD PTR _i$[ebp], eax
$LN4@CheckBatte:
  00030	83 7d f8 14	 cmp	 DWORD PTR _i$[ebp], 20	; 00000014H
  00034	0f 8d 6b 01 00
	00		 jge	 $LN3@CheckBatte

; 294  : 		// ??????????
; 295  : 		if( p_party[ i ]->func == NULL ) continue;

  0003a	8b 45 f8	 mov	 eax, DWORD PTR _i$[ebp]
  0003d	8b 0c 85 00 00
	00 00		 mov	 ecx, DWORD PTR ?p_party@@3PAPAUaction@@A[eax*4]
  00044	83 79 08 00	 cmp	 DWORD PTR [ecx+8], 0
  00048	75 02		 jne	 SHORT $LN5@CheckBatte
  0004a	eb db		 jmp	 SHORT $LN2@CheckBatte
$LN5@CheckBatte:

; 296  : 		// ??????
; 297  : 
; 298  : #ifdef __ATTACK_MAGIC
; 299  : #ifdef _SKILL_ADDBARRIER
; 300  : 		if( !( p_party[i]->atr & ACT_ATR_HIT_BOX ) &&
; 301  : 			!( p_party[i]->atr & ACT_ATR_HIT_BOX_ALL1 ) &&
; 302  : 			!( p_party[i]->atr & ACT_ATR_HIT_BOX_ALL2 ) &&
; 303  : 			!( p_party[i]->atr & ACT_ATR_HIT_BOX_ALL3 ) && 
; 304  : 			!( p_party[i]->atr & ACT_ATR_HIT_BOX_COL1 ) &&
; 305  : 			!( p_party[i]->atr & ACT_ATR_HIT_BOX_COL2 ) && 
; 306  : 			!( p_party[i]->atr & ACT_ATR_HIT_BOX_COL3 ) &&
; 307  : 			!( p_party[i]->atr & ACT_ATR_HIT_BOX_COL4 ) &&
; 308  : 			!( p_party[i]->atr & ACT_ATR_HIT_BOX_COL5 ) &&
; 309  : 			!( p_party[i]->atr & ACT_ATR_HIT_BOX_COL6 ) &&
; 310  : 			!( p_party[i]->atr & ACT_ATR_HIT_BOX_COL7 ) &&

  0004c	8b 45 f8	 mov	 eax, DWORD PTR _i$[ebp]
  0004f	8b 0c 85 00 00
	00 00		 mov	 ecx, DWORD PTR ?p_party@@3PAPAUaction@@A[eax*4]
  00056	8b 91 a4 00 00
	00		 mov	 edx, DWORD PTR [ecx+164]
  0005c	83 e2 08	 and	 edx, 8
  0005f	0f 85 21 01 00
	00		 jne	 $LN6@CheckBatte
  00065	8b 45 f8	 mov	 eax, DWORD PTR _i$[ebp]
  00068	8b 0c 85 00 00
	00 00		 mov	 ecx, DWORD PTR ?p_party@@3PAPAUaction@@A[eax*4]
  0006f	8b 91 a4 00 00
	00		 mov	 edx, DWORD PTR [ecx+164]
  00075	81 e2 00 20 00
	00		 and	 edx, 8192		; 00002000H
  0007b	0f 85 05 01 00
	00		 jne	 $LN6@CheckBatte
  00081	8b 45 f8	 mov	 eax, DWORD PTR _i$[ebp]
  00084	8b 0c 85 00 00
	00 00		 mov	 ecx, DWORD PTR ?p_party@@3PAPAUaction@@A[eax*4]
  0008b	8b 91 a4 00 00
	00		 mov	 edx, DWORD PTR [ecx+164]
  00091	81 e2 00 40 00
	00		 and	 edx, 16384		; 00004000H
  00097	0f 85 e9 00 00
	00		 jne	 $LN6@CheckBatte
  0009d	8b 45 f8	 mov	 eax, DWORD PTR _i$[ebp]
  000a0	8b 0c 85 00 00
	00 00		 mov	 ecx, DWORD PTR ?p_party@@3PAPAUaction@@A[eax*4]
  000a7	8b 91 a4 00 00
	00		 mov	 edx, DWORD PTR [ecx+164]
  000ad	81 e2 00 80 00
	00		 and	 edx, 32768		; 00008000H
  000b3	0f 85 cd 00 00
	00		 jne	 $LN6@CheckBatte
  000b9	8b 45 f8	 mov	 eax, DWORD PTR _i$[ebp]
  000bc	8b 0c 85 00 00
	00 00		 mov	 ecx, DWORD PTR ?p_party@@3PAPAUaction@@A[eax*4]
  000c3	8b 91 a4 00 00
	00		 mov	 edx, DWORD PTR [ecx+164]
  000c9	81 e2 00 00 04
	00		 and	 edx, 262144		; 00040000H
  000cf	0f 85 b1 00 00
	00		 jne	 $LN6@CheckBatte
  000d5	8b 45 f8	 mov	 eax, DWORD PTR _i$[ebp]
  000d8	8b 0c 85 00 00
	00 00		 mov	 ecx, DWORD PTR ?p_party@@3PAPAUaction@@A[eax*4]
  000df	8b 91 a4 00 00
	00		 mov	 edx, DWORD PTR [ecx+164]
  000e5	81 e2 00 00 08
	00		 and	 edx, 524288		; 00080000H
  000eb	0f 85 95 00 00
	00		 jne	 $LN6@CheckBatte
  000f1	8b 45 f8	 mov	 eax, DWORD PTR _i$[ebp]
  000f4	8b 0c 85 00 00
	00 00		 mov	 ecx, DWORD PTR ?p_party@@3PAPAUaction@@A[eax*4]
  000fb	8b 91 a4 00 00
	00		 mov	 edx, DWORD PTR [ecx+164]
  00101	81 e2 00 00 10
	00		 and	 edx, 1048576		; 00100000H
  00107	75 7d		 jne	 SHORT $LN6@CheckBatte
  00109	8b 45 f8	 mov	 eax, DWORD PTR _i$[ebp]
  0010c	8b 0c 85 00 00
	00 00		 mov	 ecx, DWORD PTR ?p_party@@3PAPAUaction@@A[eax*4]
  00113	8b 91 a4 00 00
	00		 mov	 edx, DWORD PTR [ecx+164]
  00119	81 e2 00 00 20
	00		 and	 edx, 2097152		; 00200000H
  0011f	75 65		 jne	 SHORT $LN6@CheckBatte
  00121	8b 45 f8	 mov	 eax, DWORD PTR _i$[ebp]
  00124	8b 0c 85 00 00
	00 00		 mov	 ecx, DWORD PTR ?p_party@@3PAPAUaction@@A[eax*4]
  0012b	8b 91 a4 00 00
	00		 mov	 edx, DWORD PTR [ecx+164]
  00131	81 e2 00 00 40
	00		 and	 edx, 4194304		; 00400000H
  00137	75 4d		 jne	 SHORT $LN6@CheckBatte
  00139	8b 45 f8	 mov	 eax, DWORD PTR _i$[ebp]
  0013c	8b 0c 85 00 00
	00 00		 mov	 ecx, DWORD PTR ?p_party@@3PAPAUaction@@A[eax*4]
  00143	8b 91 a4 00 00
	00		 mov	 edx, DWORD PTR [ecx+164]
  00149	81 e2 00 00 80
	00		 and	 edx, 8388608		; 00800000H
  0014f	75 35		 jne	 SHORT $LN6@CheckBatte
  00151	8b 45 f8	 mov	 eax, DWORD PTR _i$[ebp]
  00154	8b 0c 85 00 00
	00 00		 mov	 ecx, DWORD PTR ?p_party@@3PAPAUaction@@A[eax*4]
  0015b	8b 91 a4 00 00
	00		 mov	 edx, DWORD PTR [ecx+164]
  00161	81 e2 00 00 00
	01		 and	 edx, 16777216		; 01000000H
  00167	75 1d		 jne	 SHORT $LN6@CheckBatte
  00169	8b 45 f8	 mov	 eax, DWORD PTR _i$[ebp]
  0016c	8b 0c 85 00 00
	00 00		 mov	 ecx, DWORD PTR ?p_party@@3PAPAUaction@@A[eax*4]
  00173	8b 91 a4 00 00
	00		 mov	 edx, DWORD PTR [ecx+164]
  00179	81 e2 00 00 00
	02		 and	 edx, 33554432		; 02000000H
  0017f	75 05		 jne	 SHORT $LN6@CheckBatte

; 311  : 			!( p_party[i]->atr & ACT_ATR_HIT_BOX_COL8 )) continue;

  00181	e9 a1 fe ff ff	 jmp	 $LN2@CheckBatte
$LN6@CheckBatte:

; 312  : #else
; 313  : 		if( !( p_party[i]->atr & ACT_ATR_HIT_BOX ) &&
; 314  : 			!( p_party[i]->atr & ACT_ATR_HIT_BOX_ALL1 ) &&
; 315  : 			!( p_party[i]->atr & ACT_ATR_HIT_BOX_ALL2 ) &&
; 316  : 			!( p_party[i]->atr & ACT_ATR_HIT_BOX_ALL3 ) && 
; 317  : 			!( p_party[i]->atr & ACT_ATR_HIT_BOX_COL1 ) &&
; 318  : 			!( p_party[i]->atr & ACT_ATR_HIT_BOX_COL2 ) && 
; 319  : 			!( p_party[i]->atr & ACT_ATR_HIT_BOX_COL3 ) &&
; 320  : 			!( p_party[i]->atr & ACT_ATR_HIT_BOX_COL4 ) ) continue;
; 321  : #endif
; 322  : #else
; 323  : 		if( !( p_party[ i ]->atr & ACT_ATR_HIT_BOX ) &&
; 324  : 			!( p_party[ i ]->atr & ACT_ATR_HIT_BOX_ALL1 ) &&
; 325  : 			!( p_party[ i ]->atr & ACT_ATR_HIT_BOX_ALL2 ) &&
; 326  : 			!( p_party[ i ]->atr & ACT_ATR_HIT_BOX_ALL3 ) ) continue;
; 327  : 
; 328  : #endif
; 329  : 
; 330  : #ifdef _CANT_ATK
; 331  : 		if( !((pc.sideNo*10) <= i && ((pc.sideNo+1)*10) > i) )
; 332  : #endif
; 333  : 		// ???????
; 334  : 		if( p_party[ i ]->hitDispNo == HitDispNo )

  00186	8b 45 f8	 mov	 eax, DWORD PTR _i$[ebp]
  00189	8b 0c 85 00 00
	00 00		 mov	 ecx, DWORD PTR ?p_party@@3PAPAUaction@@A[eax*4]
  00190	8b 51 20	 mov	 edx, DWORD PTR [ecx+32]
  00193	3b 15 00 00 00
	00		 cmp	 edx, DWORD PTR ?HitDispNo@@3HA ; HitDispNo
  00199	75 05		 jne	 SHORT $LN7@CheckBatte

; 335  : 			return i;

  0019b	8b 45 f8	 mov	 eax, DWORD PTR _i$[ebp]
  0019e	eb 08		 jmp	 SHORT $LN1@CheckBatte
$LN7@CheckBatte:

; 336  : 	}	

  001a0	e9 82 fe ff ff	 jmp	 $LN2@CheckBatte
$LN3@CheckBatte:

; 337  : 	// ????????
; 338  : 	return -1;

  001a5	83 c8 ff	 or	 eax, -1
$LN1@CheckBatte:

; 339  : }

  001a8	5f		 pop	 edi
  001a9	5e		 pop	 esi
  001aa	5b		 pop	 ebx
  001ab	8b e5		 mov	 esp, ebp
  001ad	5d		 pop	 ebp
  001ae	c3		 ret	 0
?CheckBattelTarget@@YAHXZ ENDP				; CheckBattelTarget
_TEXT	ENDS
; Function compile flags: /Odtp /RTCsu /ZI
; File c:\users\administrator\desktop\????? ??\????? ??\client source code\system\battlemenu.cpp
;	COMDAT ?ClearBoxFlag@@YAXXZ
_TEXT	SEGMENT
_i$ = -8						; size = 4
?ClearBoxFlag@@YAXXZ PROC				; ClearBoxFlag, COMDAT

; 256  : {

  00000	55		 push	 ebp
  00001	8b ec		 mov	 ebp, esp
  00003	81 ec cc 00 00
	00		 sub	 esp, 204		; 000000ccH
  00009	53		 push	 ebx
  0000a	56		 push	 esi
  0000b	57		 push	 edi
  0000c	8d bd 34 ff ff
	ff		 lea	 edi, DWORD PTR [ebp-204]
  00012	b9 33 00 00 00	 mov	 ecx, 51			; 00000033H
  00017	b8 cc cc cc cc	 mov	 eax, -858993460		; ccccccccH
  0001c	f3 ab		 rep stosd

; 257  : 	int i;
; 258  : 	// ????????
; 259  : 	for( i = 0 ; i < 20 ; i++ ){

  0001e	c7 45 f8 00 00
	00 00		 mov	 DWORD PTR _i$[ebp], 0
  00025	eb 09		 jmp	 SHORT $LN4@ClearBoxFl
$LN2@ClearBoxFl:
  00027	8b 45 f8	 mov	 eax, DWORD PTR _i$[ebp]
  0002a	83 c0 01	 add	 eax, 1
  0002d	89 45 f8	 mov	 DWORD PTR _i$[ebp], eax
$LN4@ClearBoxFl:
  00030	83 7d f8 14	 cmp	 DWORD PTR _i$[ebp], 20	; 00000014H
  00034	0f 8d 10 02 00
	00		 jge	 $LN1@ClearBoxFl

; 260  : 		// ??????????
; 261  : 		if( p_party[ i ]->func == NULL ) continue;

  0003a	8b 45 f8	 mov	 eax, DWORD PTR _i$[ebp]
  0003d	8b 0c 85 00 00
	00 00		 mov	 ecx, DWORD PTR ?p_party@@3PAPAUaction@@A[eax*4]
  00044	83 79 08 00	 cmp	 DWORD PTR [ecx+8], 0
  00048	75 02		 jne	 SHORT $LN5@ClearBoxFl
  0004a	eb db		 jmp	 SHORT $LN2@ClearBoxFl
$LN5@ClearBoxFl:

; 262  : 		// ?????????????
; 263  : 
; 264  : #ifdef __ATTACK_MAGIC
; 265  : 		p_party[i]->atr &= ~ACT_ATR_HIT_BOX_COL1;

  0004c	8b 45 f8	 mov	 eax, DWORD PTR _i$[ebp]
  0004f	8b 0c 85 00 00
	00 00		 mov	 ecx, DWORD PTR ?p_party@@3PAPAUaction@@A[eax*4]
  00056	8b 91 a4 00 00
	00		 mov	 edx, DWORD PTR [ecx+164]
  0005c	81 e2 ff ff fb
	ff		 and	 edx, -262145		; fffbffffH
  00062	8b 45 f8	 mov	 eax, DWORD PTR _i$[ebp]
  00065	8b 0c 85 00 00
	00 00		 mov	 ecx, DWORD PTR ?p_party@@3PAPAUaction@@A[eax*4]
  0006c	89 91 a4 00 00
	00		 mov	 DWORD PTR [ecx+164], edx

; 266  : 		p_party[i]->atr &= ~ACT_ATR_HIT_BOX_COL2;

  00072	8b 45 f8	 mov	 eax, DWORD PTR _i$[ebp]
  00075	8b 0c 85 00 00
	00 00		 mov	 ecx, DWORD PTR ?p_party@@3PAPAUaction@@A[eax*4]
  0007c	8b 91 a4 00 00
	00		 mov	 edx, DWORD PTR [ecx+164]
  00082	81 e2 ff ff f7
	ff		 and	 edx, -524289		; fff7ffffH
  00088	8b 45 f8	 mov	 eax, DWORD PTR _i$[ebp]
  0008b	8b 0c 85 00 00
	00 00		 mov	 ecx, DWORD PTR ?p_party@@3PAPAUaction@@A[eax*4]
  00092	89 91 a4 00 00
	00		 mov	 DWORD PTR [ecx+164], edx

; 267  : 		p_party[i]->atr &= ~ACT_ATR_HIT_BOX_COL3;

  00098	8b 45 f8	 mov	 eax, DWORD PTR _i$[ebp]
  0009b	8b 0c 85 00 00
	00 00		 mov	 ecx, DWORD PTR ?p_party@@3PAPAUaction@@A[eax*4]
  000a2	8b 91 a4 00 00
	00		 mov	 edx, DWORD PTR [ecx+164]
  000a8	81 e2 ff ff ef
	ff		 and	 edx, -1048577		; ffefffffH
  000ae	8b 45 f8	 mov	 eax, DWORD PTR _i$[ebp]
  000b1	8b 0c 85 00 00
	00 00		 mov	 ecx, DWORD PTR ?p_party@@3PAPAUaction@@A[eax*4]
  000b8	89 91 a4 00 00
	00		 mov	 DWORD PTR [ecx+164], edx

; 268  : 		p_party[i]->atr &= ~ACT_ATR_HIT_BOX_COL4;

  000be	8b 45 f8	 mov	 eax, DWORD PTR _i$[ebp]
  000c1	8b 0c 85 00 00
	00 00		 mov	 ecx, DWORD PTR ?p_party@@3PAPAUaction@@A[eax*4]
  000c8	8b 91 a4 00 00
	00		 mov	 edx, DWORD PTR [ecx+164]
  000ce	81 e2 ff ff df
	ff		 and	 edx, -2097153		; ffdfffffH
  000d4	8b 45 f8	 mov	 eax, DWORD PTR _i$[ebp]
  000d7	8b 0c 85 00 00
	00 00		 mov	 ecx, DWORD PTR ?p_party@@3PAPAUaction@@A[eax*4]
  000de	89 91 a4 00 00
	00		 mov	 DWORD PTR [ecx+164], edx

; 269  : #endif
; 270  : #ifdef _SKILL_ADDBARRIER
; 271  : 		p_party[i]->atr &= ~ACT_ATR_HIT_BOX_COL5;

  000e4	8b 45 f8	 mov	 eax, DWORD PTR _i$[ebp]
  000e7	8b 0c 85 00 00
	00 00		 mov	 ecx, DWORD PTR ?p_party@@3PAPAUaction@@A[eax*4]
  000ee	8b 91 a4 00 00
	00		 mov	 edx, DWORD PTR [ecx+164]
  000f4	81 e2 ff ff bf
	ff		 and	 edx, -4194305		; ffbfffffH
  000fa	8b 45 f8	 mov	 eax, DWORD PTR _i$[ebp]
  000fd	8b 0c 85 00 00
	00 00		 mov	 ecx, DWORD PTR ?p_party@@3PAPAUaction@@A[eax*4]
  00104	89 91 a4 00 00
	00		 mov	 DWORD PTR [ecx+164], edx

; 272  : 		p_party[i]->atr &= ~ACT_ATR_HIT_BOX_COL6;

  0010a	8b 45 f8	 mov	 eax, DWORD PTR _i$[ebp]
  0010d	8b 0c 85 00 00
	00 00		 mov	 ecx, DWORD PTR ?p_party@@3PAPAUaction@@A[eax*4]
  00114	8b 91 a4 00 00
	00		 mov	 edx, DWORD PTR [ecx+164]
  0011a	81 e2 ff ff 7f
	ff		 and	 edx, -8388609		; ff7fffffH
  00120	8b 45 f8	 mov	 eax, DWORD PTR _i$[ebp]
  00123	8b 0c 85 00 00
	00 00		 mov	 ecx, DWORD PTR ?p_party@@3PAPAUaction@@A[eax*4]
  0012a	89 91 a4 00 00
	00		 mov	 DWORD PTR [ecx+164], edx

; 273  : 		p_party[i]->atr &= ~ACT_ATR_HIT_BOX_COL7;

  00130	8b 45 f8	 mov	 eax, DWORD PTR _i$[ebp]
  00133	8b 0c 85 00 00
	00 00		 mov	 ecx, DWORD PTR ?p_party@@3PAPAUaction@@A[eax*4]
  0013a	8b 91 a4 00 00
	00		 mov	 edx, DWORD PTR [ecx+164]
  00140	81 e2 ff ff ff
	fe		 and	 edx, -16777217		; feffffffH
  00146	8b 45 f8	 mov	 eax, DWORD PTR _i$[ebp]
  00149	8b 0c 85 00 00
	00 00		 mov	 ecx, DWORD PTR ?p_party@@3PAPAUaction@@A[eax*4]
  00150	89 91 a4 00 00
	00		 mov	 DWORD PTR [ecx+164], edx

; 274  : 		p_party[i]->atr &= ~ACT_ATR_HIT_BOX_COL8;

  00156	8b 45 f8	 mov	 eax, DWORD PTR _i$[ebp]
  00159	8b 0c 85 00 00
	00 00		 mov	 ecx, DWORD PTR ?p_party@@3PAPAUaction@@A[eax*4]
  00160	8b 91 a4 00 00
	00		 mov	 edx, DWORD PTR [ecx+164]
  00166	81 e2 ff ff ff
	fd		 and	 edx, -33554433		; fdffffffH
  0016c	8b 45 f8	 mov	 eax, DWORD PTR _i$[ebp]
  0016f	8b 0c 85 00 00
	00 00		 mov	 ecx, DWORD PTR ?p_party@@3PAPAUaction@@A[eax*4]
  00176	89 91 a4 00 00
	00		 mov	 DWORD PTR [ecx+164], edx

; 275  : #endif
; 276  : 
; 277  : 
; 278  : 		p_party[ i ]->atr &= ~ACT_ATR_HIT_BOX;

  0017c	8b 45 f8	 mov	 eax, DWORD PTR _i$[ebp]
  0017f	8b 0c 85 00 00
	00 00		 mov	 ecx, DWORD PTR ?p_party@@3PAPAUaction@@A[eax*4]
  00186	8b 91 a4 00 00
	00		 mov	 edx, DWORD PTR [ecx+164]
  0018c	83 e2 f7	 and	 edx, -9			; fffffff7H
  0018f	8b 45 f8	 mov	 eax, DWORD PTR _i$[ebp]
  00192	8b 0c 85 00 00
	00 00		 mov	 ecx, DWORD PTR ?p_party@@3PAPAUaction@@A[eax*4]
  00199	89 91 a4 00 00
	00		 mov	 DWORD PTR [ecx+164], edx

; 279  : 		p_party[ i ]->atr &= ~ACT_ATR_HIT_BOX_ALL1;

  0019f	8b 45 f8	 mov	 eax, DWORD PTR _i$[ebp]
  001a2	8b 0c 85 00 00
	00 00		 mov	 ecx, DWORD PTR ?p_party@@3PAPAUaction@@A[eax*4]
  001a9	8b 91 a4 00 00
	00		 mov	 edx, DWORD PTR [ecx+164]
  001af	81 e2 ff df ff
	ff		 and	 edx, -8193		; ffffdfffH
  001b5	8b 45 f8	 mov	 eax, DWORD PTR _i$[ebp]
  001b8	8b 0c 85 00 00
	00 00		 mov	 ecx, DWORD PTR ?p_party@@3PAPAUaction@@A[eax*4]
  001bf	89 91 a4 00 00
	00		 mov	 DWORD PTR [ecx+164], edx

; 280  : 		p_party[ i ]->atr &= ~ACT_ATR_HIT_BOX_ALL2;

  001c5	8b 45 f8	 mov	 eax, DWORD PTR _i$[ebp]
  001c8	8b 0c 85 00 00
	00 00		 mov	 ecx, DWORD PTR ?p_party@@3PAPAUaction@@A[eax*4]
  001cf	8b 91 a4 00 00
	00		 mov	 edx, DWORD PTR [ecx+164]
  001d5	81 e2 ff bf ff
	ff		 and	 edx, -16385		; ffffbfffH
  001db	8b 45 f8	 mov	 eax, DWORD PTR _i$[ebp]
  001de	8b 0c 85 00 00
	00 00		 mov	 ecx, DWORD PTR ?p_party@@3PAPAUaction@@A[eax*4]
  001e5	89 91 a4 00 00
	00		 mov	 DWORD PTR [ecx+164], edx

; 281  : 		p_party[ i ]->atr &= ~ACT_ATR_HIT_BOX_ALL3;

  001eb	8b 45 f8	 mov	 eax, DWORD PTR _i$[ebp]
  001ee	8b 0c 85 00 00
	00 00		 mov	 ecx, DWORD PTR ?p_party@@3PAPAUaction@@A[eax*4]
  001f5	8b 91 a4 00 00
	00		 mov	 edx, DWORD PTR [ecx+164]
  001fb	81 e2 ff 7f ff
	ff		 and	 edx, -32769		; ffff7fffH
  00201	8b 45 f8	 mov	 eax, DWORD PTR _i$[ebp]
  00204	8b 0c 85 00 00
	00 00		 mov	 ecx, DWORD PTR ?p_party@@3PAPAUaction@@A[eax*4]
  0020b	89 91 a4 00 00
	00		 mov	 DWORD PTR [ecx+164], edx

; 282  : 		p_party[ i ]->atr |= ACT_ATR_HIT;

  00211	8b 45 f8	 mov	 eax, DWORD PTR _i$[ebp]
  00214	8b 0c 85 00 00
	00 00		 mov	 ecx, DWORD PTR ?p_party@@3PAPAUaction@@A[eax*4]
  0021b	8b 91 a4 00 00
	00		 mov	 edx, DWORD PTR [ecx+164]
  00221	83 ca 04	 or	 edx, 4
  00224	8b 45 f8	 mov	 eax, DWORD PTR _i$[ebp]
  00227	8b 0c 85 00 00
	00 00		 mov	 ecx, DWORD PTR ?p_party@@3PAPAUaction@@A[eax*4]
  0022e	89 91 a4 00 00
	00		 mov	 DWORD PTR [ecx+164], edx

; 283  : 		// ???????
; 284  : 		p_party[ i ]->hitDispNo = -2;

  00234	8b 45 f8	 mov	 eax, DWORD PTR _i$[ebp]
  00237	8b 0c 85 00 00
	00 00		 mov	 ecx, DWORD PTR ?p_party@@3PAPAUaction@@A[eax*4]
  0023e	c7 41 20 fe ff
	ff ff		 mov	 DWORD PTR [ecx+32], -2	; fffffffeH

; 285  : 	}

  00245	e9 dd fd ff ff	 jmp	 $LN2@ClearBoxFl
$LN1@ClearBoxFl:

; 286  : }

  0024a	5f		 pop	 edi
  0024b	5e		 pop	 esi
  0024c	5b		 pop	 ebx
  0024d	8b e5		 mov	 esp, ebp
  0024f	5d		 pop	 ebp
  00250	c3		 ret	 0
?ClearBoxFlag@@YAXXZ ENDP				; ClearBoxFlag
_TEXT	ENDS
; Function compile flags: /Odtp /RTCsu /ZI
; File c:\users\administrator\desktop\????? ??\????? ??\client source code\system\battlemenu.cpp
;	COMDAT ?CheckPetSuu@@YAHXZ
_TEXT	SEGMENT
_cnt$ = -20						; size = 4
_i$ = -8						; size = 4
?CheckPetSuu@@YAHXZ PROC				; CheckPetSuu, COMDAT

; 246  : {

  00000	55		 push	 ebp
  00001	8b ec		 mov	 ebp, esp
  00003	81 ec d8 00 00
	00		 sub	 esp, 216		; 000000d8H
  00009	53		 push	 ebx
  0000a	56		 push	 esi
  0000b	57		 push	 edi
  0000c	8d bd 28 ff ff
	ff		 lea	 edi, DWORD PTR [ebp-216]
  00012	b9 36 00 00 00	 mov	 ecx, 54			; 00000036H
  00017	b8 cc cc cc cc	 mov	 eax, -858993460		; ccccccccH
  0001c	f3 ab		 rep stosd

; 247  : 	int i,cnt = 0;

  0001e	c7 45 ec 00 00
	00 00		 mov	 DWORD PTR _cnt$[ebp], 0

; 248  : 	for( i = 0 ; i < 5 ; i++ ){

  00025	c7 45 f8 00 00
	00 00		 mov	 DWORD PTR _i$[ebp], 0
  0002c	eb 09		 jmp	 SHORT $LN4@CheckPetSu
$LN2@CheckPetSu:
  0002e	8b 45 f8	 mov	 eax, DWORD PTR _i$[ebp]
  00031	83 c0 01	 add	 eax, 1
  00034	89 45 f8	 mov	 DWORD PTR _i$[ebp], eax
$LN4@CheckPetSu:
  00037	83 7d f8 05	 cmp	 DWORD PTR _i$[ebp], 5
  0003b	7d 1e		 jge	 SHORT $LN3@CheckPetSu

; 249  : 		if( pet[ i ].useFlag == TRUE ) cnt++;

  0003d	69 45 f8 20 0b
	00 00		 imul	 eax, DWORD PTR _i$[ebp], 2848
  00044	0f bf 88 76 00
	00 00		 movsx	 ecx, WORD PTR ?pet@@3PAUPET@@A[eax+118]
  0004b	83 f9 01	 cmp	 ecx, 1
  0004e	75 09		 jne	 SHORT $LN5@CheckPetSu
  00050	8b 45 ec	 mov	 eax, DWORD PTR _cnt$[ebp]
  00053	83 c0 01	 add	 eax, 1
  00056	89 45 ec	 mov	 DWORD PTR _cnt$[ebp], eax
$LN5@CheckPetSu:

; 250  : 	}

  00059	eb d3		 jmp	 SHORT $LN2@CheckPetSu
$LN3@CheckPetSu:

; 251  : 	return cnt;

  0005b	8b 45 ec	 mov	 eax, DWORD PTR _cnt$[ebp]

; 252  : }

  0005e	5f		 pop	 edi
  0005f	5e		 pop	 esi
  00060	5b		 pop	 ebx
  00061	8b e5		 mov	 esp, ebp
  00063	5d		 pop	 ebp
  00064	c3		 ret	 0
?CheckPetSuu@@YAHXZ ENDP				; CheckPetSuu
_TEXT	ENDS
; Function compile flags: /Odtp /RTCsu /ZI
; File c:\users\administrator\desktop\????? ??\????? ??\client source code\system\battlemenu.cpp
;	COMDAT ?InitBattleAnimFlag@@YAXXZ
_TEXT	SEGMENT
_i$ = -8						; size = 4
?InitBattleAnimFlag@@YAXXZ PROC				; InitBattleAnimFlag, COMDAT

; 235  : {

  00000	55		 push	 ebp
  00001	8b ec		 mov	 ebp, esp
  00003	81 ec cc 00 00
	00		 sub	 esp, 204		; 000000ccH
  00009	53		 push	 ebx
  0000a	56		 push	 esi
  0000b	57		 push	 edi
  0000c	8d bd 34 ff ff
	ff		 lea	 edi, DWORD PTR [ebp-204]
  00012	b9 33 00 00 00	 mov	 ecx, 51			; 00000033H
  00017	b8 cc cc cc cc	 mov	 eax, -858993460		; ccccccccH
  0001c	f3 ab		 rep stosd

; 236  : 	int i;
; 237  : 	// ?????
; 238  : 	for( i = 0 ; i < 20 ; i++ ){

  0001e	c7 45 f8 00 00
	00 00		 mov	 DWORD PTR _i$[ebp], 0
  00025	eb 09		 jmp	 SHORT $LN4@InitBattle
$LN2@InitBattle:
  00027	8b 45 f8	 mov	 eax, DWORD PTR _i$[ebp]
  0002a	83 c0 01	 add	 eax, 1
  0002d	89 45 f8	 mov	 DWORD PTR _i$[ebp], eax
$LN4@InitBattle:
  00030	83 7d f8 14	 cmp	 DWORD PTR _i$[ebp], 20	; 00000014H
  00034	7d 25		 jge	 SHORT $LN1@InitBattle

; 239  : 		// ???????
; 240  : 		p_party[ i ]->atr &= ~ACT_ATR_BTL_CMD_END;

  00036	8b 45 f8	 mov	 eax, DWORD PTR _i$[ebp]
  00039	8b 0c 85 00 00
	00 00		 mov	 ecx, DWORD PTR ?p_party@@3PAPAUaction@@A[eax*4]
  00040	8b 91 a4 00 00
	00		 mov	 edx, DWORD PTR [ecx+164]
  00046	83 e2 bf	 and	 edx, -65		; ffffffbfH
  00049	8b 45 f8	 mov	 eax, DWORD PTR _i$[ebp]
  0004c	8b 0c 85 00 00
	00 00		 mov	 ecx, DWORD PTR ?p_party@@3PAPAUaction@@A[eax*4]
  00053	89 91 a4 00 00
	00		 mov	 DWORD PTR [ecx+164], edx

; 241  : 	}

  00059	eb cc		 jmp	 SHORT $LN2@InitBattle
$LN1@InitBattle:

; 242  : }

  0005b	5f		 pop	 edi
  0005c	5e		 pop	 esi
  0005d	5b		 pop	 ebx
  0005e	8b e5		 mov	 esp, ebp
  00060	5d		 pop	 ebp
  00061	c3		 ret	 0
?InitBattleAnimFlag@@YAXXZ ENDP				; InitBattleAnimFlag
_TEXT	ENDS
; Function compile flags: /Odtp /RTCsu /ZI
; File c:\users\administrator\desktop\????? ??\????? ??\client source code\system\battlemenu.cpp
;	COMDAT ?BattleSetWazaHitBox@@YAXHH@Z
_TEXT	SEGMENT
tv71 = -488						; size = 4
_switchnum$ = -288					; size = 4
_i$ = -276						; size = 4
_moji$ = -264						; size = 256
__$ArrayPad$ = -4					; size = 4
_no$ = 8						; size = 4
_typeflag$ = 12						; size = 4
?BattleSetWazaHitBox@@YAXHH@Z PROC			; BattleSetWazaHitBox, COMDAT

; 2035 : {

  00000	55		 push	 ebp
  00001	8b ec		 mov	 ebp, esp
  00003	81 ec e8 01 00
	00		 sub	 esp, 488		; 000001e8H
  00009	53		 push	 ebx
  0000a	56		 push	 esi
  0000b	57		 push	 edi
  0000c	8d bd 18 fe ff
	ff		 lea	 edi, DWORD PTR [ebp-488]
  00012	b9 7a 00 00 00	 mov	 ecx, 122		; 0000007aH
  00017	b8 cc cc cc cc	 mov	 eax, -858993460		; ccccccccH
  0001c	f3 ab		 rep stosd
  0001e	a1 00 00 00 00	 mov	 eax, DWORD PTR ___security_cookie
  00023	33 c5		 xor	 eax, ebp
  00025	89 45 fc	 mov	 DWORD PTR __$ArrayPad$[ebp], eax

; 2036 : 	char moji[ 256 ];
; 2037 : 	int i;
; 2038 : 
; 2039 : #ifdef _BATTLESKILL				// (不可开) Syu ADD 战斗技能介面
; 2040 : 	int switchnum = 0 ;

  00028	c7 85 e0 fe ff
	ff 00 00 00 00	 mov	 DWORD PTR _switchnum$[ebp], 0

; 2041 : 
; 2042 : 	if ( typeflag == 0 ){

  00032	83 7d 0c 00	 cmp	 DWORD PTR _typeflag$[ebp], 0
  00036	75 26		 jne	 SHORT $LN73@BattleSetW

; 2043 : 		BattleWazaNo = no;

  00038	8b 45 08	 mov	 eax, DWORD PTR _no$[ebp]
  0003b	a3 00 00 00 00	 mov	 DWORD PTR ?BattleWazaNo@@3HA, eax ; BattleWazaNo

; 2044 : 		switchnum = petSkill[ battlePetNoBak ][ no ].target;

  00040	69 05 00 00 00
	00 e6 02 00 00	 imul	 eax, DWORD PTR ?battlePetNoBak@@3HA, 742 ; battlePetNoBak
  0004a	6b 4d 08 6a	 imul	 ecx, DWORD PTR _no$[ebp], 106
  0004e	0f bf 94 08 06
	00 00 00	 movsx	 edx, WORD PTR ?petSkill@@3PAY06UPET_SKILL@@A[eax+ecx+6]
  00056	89 95 e0 fe ff
	ff		 mov	 DWORD PTR _switchnum$[ebp], edx

; 2045 : 	}else{

  0005c	eb 09		 jmp	 SHORT $LN74@BattleSetW
$LN73@BattleSetW:

; 2046 : 		switchnum = no ; 

  0005e	8b 45 08	 mov	 eax, DWORD PTR _no$[ebp]
  00061	89 85 e0 fe ff
	ff		 mov	 DWORD PTR _switchnum$[ebp], eax
$LN74@BattleSetW:

; 2047 : 	}
; 2048 : 	battleTargetSelectFlag = TRUE;

  00067	c7 05 00 00 00
	00 01 00 00 00	 mov	 DWORD PTR ?battleTargetSelectFlag@@3HA, 1

; 2049 : 	switch( switchnum ) {

  00071	8b 85 e0 fe ff
	ff		 mov	 eax, DWORD PTR _switchnum$[ebp]
  00077	89 85 18 fe ff
	ff		 mov	 DWORD PTR tv71[ebp], eax
  0007d	83 bd 18 fe ff
	ff 0c		 cmp	 DWORD PTR tv71[ebp], 12	; 0000000cH
  00084	0f 87 9d 13 00
	00		 ja	 $LN1@BattleSetW
  0008a	8b 8d 18 fe ff
	ff		 mov	 ecx, DWORD PTR tv71[ebp]
  00090	ff 24 8d 00 00
	00 00		 jmp	 DWORD PTR $LN193@BattleSetW[ecx*4]
$LN75@BattleSetW:

; 2050 : #else
; 2051 : 	BattleWazaNo = no;
; 2052 : 	battleTargetSelectFlag = TRUE;
; 2053 : 	switch( petSkill[ battlePetNoBak ][ no ].target ) {
; 2054 : #endif
; 2055 : 
; 2056 : 	case PETSKILL_TARGET_MYSELF:	// ?????
; 2057 : 		// ????????????
; 2058 : #ifdef _BATTLESKILL				// (不可开) Syu ADD 战斗技能介面
; 2059 : 		if ( typeflag == 1 ) 

  00097	83 7d 0c 01	 cmp	 DWORD PTR _typeflag$[ebp], 1
  0009b	75 29		 jne	 SHORT $LN76@BattleSetW

; 2060 : 			p_party[ BattleMyNo ]->atr |= ACT_ATR_HIT_BOX;

  0009d	a1 00 00 00 00	 mov	 eax, DWORD PTR ?BattleMyNo@@3HA ; BattleMyNo
  000a2	8b 0c 85 00 00
	00 00		 mov	 ecx, DWORD PTR ?p_party@@3PAPAUaction@@A[eax*4]
  000a9	8b 91 a4 00 00
	00		 mov	 edx, DWORD PTR [ecx+164]
  000af	83 ca 08	 or	 edx, 8
  000b2	a1 00 00 00 00	 mov	 eax, DWORD PTR ?BattleMyNo@@3HA ; BattleMyNo
  000b7	8b 0c 85 00 00
	00 00		 mov	 ecx, DWORD PTR ?p_party@@3PAPAUaction@@A[eax*4]
  000be	89 91 a4 00 00
	00		 mov	 DWORD PTR [ecx+164], edx

; 2061 : 		else

  000c4	eb 27		 jmp	 SHORT $LN77@BattleSetW
$LN76@BattleSetW:

; 2062 : 			p_party[ BattleMyNo + 5 ]->atr |= ACT_ATR_HIT_BOX;

  000c6	a1 00 00 00 00	 mov	 eax, DWORD PTR ?BattleMyNo@@3HA ; BattleMyNo
  000cb	8b 0c 85 14 00
	00 00		 mov	 ecx, DWORD PTR ?p_party@@3PAPAUaction@@A[eax*4+20]
  000d2	8b 91 a4 00 00
	00		 mov	 edx, DWORD PTR [ecx+164]
  000d8	83 ca 08	 or	 edx, 8
  000db	a1 00 00 00 00	 mov	 eax, DWORD PTR ?BattleMyNo@@3HA ; BattleMyNo
  000e0	8b 0c 85 14 00
	00 00		 mov	 ecx, DWORD PTR ?p_party@@3PAPAUaction@@A[eax*4+20]
  000e7	89 91 a4 00 00
	00		 mov	 DWORD PTR [ecx+164], edx
$LN77@BattleSetW:

; 2063 : #else
; 2064 : 		p_party[ BattleMyNo + 5 ]->atr |= ACT_ATR_HIT_BOX;
; 2065 : #endif
; 2066 : //		if( typeflag == 0 )
; 2067 : 			battleTargetSelectFlag = TRUE;

  000ed	c7 05 00 00 00
	00 01 00 00 00	 mov	 DWORD PTR ?battleTargetSelectFlag@@3HA, 1

; 2068 : 		DeathAction( pActWnd );

  000f7	a1 00 00 00 00	 mov	 eax, DWORD PTR ?pActWnd@@3PAUaction@@A
  000fc	50		 push	 eax
  000fd	e8 00 00 00 00	 call	 ?DeathAction@@YAXPAUaction@@@Z ; DeathAction
  00102	83 c4 04	 add	 esp, 4

; 2069 : 		pActWnd = NULL;

  00105	c7 05 00 00 00
	00 00 00 00 00	 mov	 DWORD PTR ?pActWnd@@3PAUaction@@A, 0

; 2070 : 		ClearBattleButton();

  0010f	e8 00 00 00 00	 call	 ?ClearBattleButton@@YAXXZ ; ClearBattleButton

; 2071 : #ifdef _BATTLESKILL				// (不可开) Syu ADD 战斗技能介面
; 2072 : 		if ( typeflag == 1 )

  00114	83 7d 0c 01	 cmp	 DWORD PTR _typeflag$[ebp], 1
  00118	75 0c		 jne	 SHORT $LN78@BattleSetW

; 2073 : 			BattleCmdNo = BATTLE_PROWAZA;

  0011a	c7 05 00 00 00
	00 05 00 00 00	 mov	 DWORD PTR ?BattleCmdNo@@3HA, 5 ; BattleCmdNo

; 2074 : 		else

  00124	eb 0a		 jmp	 SHORT $LN79@BattleSetW
$LN78@BattleSetW:

; 2075 : #endif
; 2076 : 		BattleCmdNo = BATTLE_WAZA;

  00126	c7 05 00 00 00
	00 04 00 00 00	 mov	 DWORD PTR ?BattleCmdNo@@3HA, 4 ; BattleCmdNo
$LN79@BattleSetW:

; 2077 : 		// ?????
; 2078 : 		play_se( 217, 320, 240 );

  00130	68 f0 00 00 00	 push	 240			; 000000f0H
  00135	68 40 01 00 00	 push	 320			; 00000140H
  0013a	68 d9 00 00 00	 push	 217			; 000000d9H
  0013f	e8 00 00 00 00	 call	 ?play_se@@YAHHHH@Z	; play_se
  00144	83 c4 0c	 add	 esp, 12			; 0000000cH

; 2079 : 		// ????????
; 2080 : 		battleWazaTargetBak = no;

  00147	8b 45 08	 mov	 eax, DWORD PTR _no$[ebp]
  0014a	a3 00 00 00 00	 mov	 DWORD PTR ?battleWazaTargetBak@@3HA, eax ; battleWazaTargetBak

; 2081 : 		break;

  0014f	e9 d3 12 00 00	 jmp	 $LN1@BattleSetW
$LN80@BattleSetW:

; 2082 : 		
; 2083 : 	case PETSKILL_TARGET_OTHER:	// ????)
; 2084 : 		for( i = 0 ; i < 20 ; i++ ){

  00154	c7 85 ec fe ff
	ff 00 00 00 00	 mov	 DWORD PTR _i$[ebp], 0
  0015e	eb 0f		 jmp	 SHORT $LN6@BattleSetW
$LN4@BattleSetW:
  00160	8b 85 ec fe ff
	ff		 mov	 eax, DWORD PTR _i$[ebp]
  00166	83 c0 01	 add	 eax, 1
  00169	89 85 ec fe ff
	ff		 mov	 DWORD PTR _i$[ebp], eax
$LN6@BattleSetW:
  0016f	83 bd ec fe ff
	ff 14		 cmp	 DWORD PTR _i$[ebp], 20	; 00000014H
  00176	7d 55		 jge	 SHORT $LN5@BattleSetW

; 2085 : 			if( p_party[ i ]->func == NULL ) continue;

  00178	8b 85 ec fe ff
	ff		 mov	 eax, DWORD PTR _i$[ebp]
  0017e	8b 0c 85 00 00
	00 00		 mov	 ecx, DWORD PTR ?p_party@@3PAPAUaction@@A[eax*4]
  00185	83 79 08 00	 cmp	 DWORD PTR [ecx+8], 0
  00189	75 02		 jne	 SHORT $LN81@BattleSetW
  0018b	eb d3		 jmp	 SHORT $LN4@BattleSetW
$LN81@BattleSetW:

; 2086 : 			if( p_party[ i ]->hp <= 0 ) continue;

  0018d	8b 85 ec fe ff
	ff		 mov	 eax, DWORD PTR _i$[ebp]
  00193	8b 0c 85 00 00
	00 00		 mov	 ecx, DWORD PTR ?p_party@@3PAPAUaction@@A[eax*4]
  0019a	83 79 78 00	 cmp	 DWORD PTR [ecx+120], 0
  0019e	7f 02		 jg	 SHORT $LN82@BattleSetW
  001a0	eb be		 jmp	 SHORT $LN4@BattleSetW
$LN82@BattleSetW:

; 2087 : 			p_party[ i ]->atr |= ACT_ATR_HIT_BOX;

  001a2	8b 85 ec fe ff
	ff		 mov	 eax, DWORD PTR _i$[ebp]
  001a8	8b 0c 85 00 00
	00 00		 mov	 ecx, DWORD PTR ?p_party@@3PAPAUaction@@A[eax*4]
  001af	8b 91 a4 00 00
	00		 mov	 edx, DWORD PTR [ecx+164]
  001b5	83 ca 08	 or	 edx, 8
  001b8	8b 85 ec fe ff
	ff		 mov	 eax, DWORD PTR _i$[ebp]
  001be	8b 0c 85 00 00
	00 00		 mov	 ecx, DWORD PTR ?p_party@@3PAPAUaction@@A[eax*4]
  001c5	89 91 a4 00 00
	00		 mov	 DWORD PTR [ecx+164], edx

; 2088 : 		}

  001cb	eb 93		 jmp	 SHORT $LN4@BattleSetW
$LN5@BattleSetW:

; 2089 : ///		if ( typeflag == 0 )
; 2090 : 			battleTargetSelectFlag = TRUE;

  001cd	c7 05 00 00 00
	00 01 00 00 00	 mov	 DWORD PTR ?battleTargetSelectFlag@@3HA, 1

; 2091 : 		DeathAction( pActWnd );

  001d7	a1 00 00 00 00	 mov	 eax, DWORD PTR ?pActWnd@@3PAUaction@@A
  001dc	50		 push	 eax
  001dd	e8 00 00 00 00	 call	 ?DeathAction@@YAXPAUaction@@@Z ; DeathAction
  001e2	83 c4 04	 add	 esp, 4

; 2092 : 		pActWnd = NULL;

  001e5	c7 05 00 00 00
	00 00 00 00 00	 mov	 DWORD PTR ?pActWnd@@3PAUaction@@A, 0

; 2093 : 		ClearBattleButton();

  001ef	e8 00 00 00 00	 call	 ?ClearBattleButton@@YAXXZ ; ClearBattleButton

; 2094 : #ifdef _BATTLESKILL				// (不可开) Syu ADD 战斗技能介面
; 2095 : 		if ( typeflag == 1 )

  001f4	83 7d 0c 01	 cmp	 DWORD PTR _typeflag$[ebp], 1
  001f8	75 0c		 jne	 SHORT $LN83@BattleSetW

; 2096 : 			BattleCmdNo = BATTLE_PROWAZA;

  001fa	c7 05 00 00 00
	00 05 00 00 00	 mov	 DWORD PTR ?BattleCmdNo@@3HA, 5 ; BattleCmdNo

; 2097 : 		else

  00204	eb 0a		 jmp	 SHORT $LN84@BattleSetW
$LN83@BattleSetW:

; 2098 : #endif
; 2099 : 		BattleCmdNo = BATTLE_WAZA;

  00206	c7 05 00 00 00
	00 04 00 00 00	 mov	 DWORD PTR ?BattleCmdNo@@3HA, 4 ; BattleCmdNo
$LN84@BattleSetW:

; 2100 : 		play_se( 217, 320, 240 );

  00210	68 f0 00 00 00	 push	 240			; 000000f0H
  00215	68 40 01 00 00	 push	 320			; 00000140H
  0021a	68 d9 00 00 00	 push	 217			; 000000d9H
  0021f	e8 00 00 00 00	 call	 ?play_se@@YAHHHH@Z	; play_se
  00224	83 c4 0c	 add	 esp, 12			; 0000000cH

; 2101 : #ifdef _BATTLESKILL				// (不可开) Syu ADD 战斗技能介面
; 2102 : 		if ( typeflag != 1 )

  00227	83 7d 0c 01	 cmp	 DWORD PTR _typeflag$[ebp], 1
  0022b	74 08		 je	 SHORT $LN85@BattleSetW

; 2103 : #endif
; 2104 : 			battleWazaTargetBak = no;

  0022d	8b 45 08	 mov	 eax, DWORD PTR _no$[ebp]
  00230	a3 00 00 00 00	 mov	 DWORD PTR ?battleWazaTargetBak@@3HA, eax ; battleWazaTargetBak
$LN85@BattleSetW:

; 2105 : 		break;

  00235	e9 ed 11 00 00	 jmp	 $LN1@BattleSetW
$LN86@BattleSetW:

; 2106 : 		
; 2107 : 	case PETSKILL_TARGET_ALLMYSIDE:	// 
; 2108 : 		// ????????
; 2109 : 		if( BattleMyNo < 10 ){

  0023a	83 3d 00 00 00
	00 0a		 cmp	 DWORD PTR ?BattleMyNo@@3HA, 10 ; BattleMyNo, 0000000aH
  00241	7d 7e		 jge	 SHORT $LN87@BattleSetW

; 2110 : 			// ???????
; 2111 : 			for( i = 0 ; i < 10 ; i++ ){

  00243	c7 85 ec fe ff
	ff 00 00 00 00	 mov	 DWORD PTR _i$[ebp], 0
  0024d	eb 0f		 jmp	 SHORT $LN9@BattleSetW
$LN7@BattleSetW:
  0024f	8b 85 ec fe ff
	ff		 mov	 eax, DWORD PTR _i$[ebp]
  00255	83 c0 01	 add	 eax, 1
  00258	89 85 ec fe ff
	ff		 mov	 DWORD PTR _i$[ebp], eax
$LN9@BattleSetW:
  0025e	83 bd ec fe ff
	ff 0a		 cmp	 DWORD PTR _i$[ebp], 10	; 0000000aH
  00265	7d 58		 jge	 SHORT $LN8@BattleSetW

; 2112 : 				// ??????????
; 2113 : 				if( p_party[ i ]->func == NULL ) continue;

  00267	8b 85 ec fe ff
	ff		 mov	 eax, DWORD PTR _i$[ebp]
  0026d	8b 0c 85 00 00
	00 00		 mov	 ecx, DWORD PTR ?p_party@@3PAPAUaction@@A[eax*4]
  00274	83 79 08 00	 cmp	 DWORD PTR [ecx+8], 0
  00278	75 02		 jne	 SHORT $LN89@BattleSetW
  0027a	eb d3		 jmp	 SHORT $LN7@BattleSetW
$LN89@BattleSetW:

; 2114 : 				// ??????
; 2115 : 				if( p_party[ i ]->hp <= 0 ) continue;

  0027c	8b 85 ec fe ff
	ff		 mov	 eax, DWORD PTR _i$[ebp]
  00282	8b 0c 85 00 00
	00 00		 mov	 ecx, DWORD PTR ?p_party@@3PAPAUaction@@A[eax*4]
  00289	83 79 78 00	 cmp	 DWORD PTR [ecx+120], 0
  0028d	7f 02		 jg	 SHORT $LN90@BattleSetW
  0028f	eb be		 jmp	 SHORT $LN7@BattleSetW
$LN90@BattleSetW:

; 2116 : 				// ?????????
; 2117 : 				p_party[ i ]->atr |= ACT_ATR_HIT_BOX_ALL1;

  00291	8b 85 ec fe ff
	ff		 mov	 eax, DWORD PTR _i$[ebp]
  00297	8b 0c 85 00 00
	00 00		 mov	 ecx, DWORD PTR ?p_party@@3PAPAUaction@@A[eax*4]
  0029e	8b 91 a4 00 00
	00		 mov	 edx, DWORD PTR [ecx+164]
  002a4	81 ca 00 20 00
	00		 or	 edx, 8192		; 00002000H
  002aa	8b 85 ec fe ff
	ff		 mov	 eax, DWORD PTR _i$[ebp]
  002b0	8b 0c 85 00 00
	00 00		 mov	 ecx, DWORD PTR ?p_party@@3PAPAUaction@@A[eax*4]
  002b7	89 91 a4 00 00
	00		 mov	 DWORD PTR [ecx+164], edx

; 2118 : 			}

  002bd	eb 90		 jmp	 SHORT $LN7@BattleSetW
$LN8@BattleSetW:

; 2119 : 		}
; 2120 : 		// ????????
; 2121 : 		else{

  002bf	eb 7c		 jmp	 SHORT $LN88@BattleSetW
$LN87@BattleSetW:

; 2122 : 			// ???????
; 2123 : 			for( i = 10 ; i < 20 ; i++ ){

  002c1	c7 85 ec fe ff
	ff 0a 00 00 00	 mov	 DWORD PTR _i$[ebp], 10	; 0000000aH
  002cb	eb 0f		 jmp	 SHORT $LN12@BattleSetW
$LN10@BattleSetW:
  002cd	8b 85 ec fe ff
	ff		 mov	 eax, DWORD PTR _i$[ebp]
  002d3	83 c0 01	 add	 eax, 1
  002d6	89 85 ec fe ff
	ff		 mov	 DWORD PTR _i$[ebp], eax
$LN12@BattleSetW:
  002dc	83 bd ec fe ff
	ff 14		 cmp	 DWORD PTR _i$[ebp], 20	; 00000014H
  002e3	7d 58		 jge	 SHORT $LN88@BattleSetW

; 2124 : 				// ??????????
; 2125 : 				if( p_party[ i ]->func == NULL ) continue;

  002e5	8b 85 ec fe ff
	ff		 mov	 eax, DWORD PTR _i$[ebp]
  002eb	8b 0c 85 00 00
	00 00		 mov	 ecx, DWORD PTR ?p_party@@3PAPAUaction@@A[eax*4]
  002f2	83 79 08 00	 cmp	 DWORD PTR [ecx+8], 0
  002f6	75 02		 jne	 SHORT $LN91@BattleSetW
  002f8	eb d3		 jmp	 SHORT $LN10@BattleSetW
$LN91@BattleSetW:

; 2126 : 				// ??????
; 2127 : 				if( p_party[ i ]->hp <= 0 ) continue;

  002fa	8b 85 ec fe ff
	ff		 mov	 eax, DWORD PTR _i$[ebp]
  00300	8b 0c 85 00 00
	00 00		 mov	 ecx, DWORD PTR ?p_party@@3PAPAUaction@@A[eax*4]
  00307	83 79 78 00	 cmp	 DWORD PTR [ecx+120], 0
  0030b	7f 02		 jg	 SHORT $LN92@BattleSetW
  0030d	eb be		 jmp	 SHORT $LN10@BattleSetW
$LN92@BattleSetW:

; 2128 : 				// ?????????
; 2129 : 				p_party[ i ]->atr |= ACT_ATR_HIT_BOX_ALL2;

  0030f	8b 85 ec fe ff
	ff		 mov	 eax, DWORD PTR _i$[ebp]
  00315	8b 0c 85 00 00
	00 00		 mov	 ecx, DWORD PTR ?p_party@@3PAPAUaction@@A[eax*4]
  0031c	8b 91 a4 00 00
	00		 mov	 edx, DWORD PTR [ecx+164]
  00322	81 ca 00 40 00
	00		 or	 edx, 16384		; 00004000H
  00328	8b 85 ec fe ff
	ff		 mov	 eax, DWORD PTR _i$[ebp]
  0032e	8b 0c 85 00 00
	00 00		 mov	 ecx, DWORD PTR ?p_party@@3PAPAUaction@@A[eax*4]
  00335	89 91 a4 00 00
	00		 mov	 DWORD PTR [ecx+164], edx

; 2130 : 			}

  0033b	eb 90		 jmp	 SHORT $LN10@BattleSetW
$LN88@BattleSetW:

; 2131 : 		}
; 2132 : //		if ( typeflag == 0 )
; 2133 : 			battleTargetSelectFlag = TRUE;

  0033d	c7 05 00 00 00
	00 01 00 00 00	 mov	 DWORD PTR ?battleTargetSelectFlag@@3HA, 1

; 2134 : 		DeathAction( pActWnd );

  00347	a1 00 00 00 00	 mov	 eax, DWORD PTR ?pActWnd@@3PAUaction@@A
  0034c	50		 push	 eax
  0034d	e8 00 00 00 00	 call	 ?DeathAction@@YAXPAUaction@@@Z ; DeathAction
  00352	83 c4 04	 add	 esp, 4

; 2135 : 		pActWnd = NULL;

  00355	c7 05 00 00 00
	00 00 00 00 00	 mov	 DWORD PTR ?pActWnd@@3PAUaction@@A, 0

; 2136 : 		ClearBattleButton();

  0035f	e8 00 00 00 00	 call	 ?ClearBattleButton@@YAXXZ ; ClearBattleButton

; 2137 : #ifdef _BATTLESKILL				// (不可开) Syu ADD 战斗技能介面
; 2138 : 		if ( typeflag == 1 )

  00364	83 7d 0c 01	 cmp	 DWORD PTR _typeflag$[ebp], 1
  00368	75 0c		 jne	 SHORT $LN93@BattleSetW

; 2139 : 			BattleCmdNo = BATTLE_PROWAZA;

  0036a	c7 05 00 00 00
	00 05 00 00 00	 mov	 DWORD PTR ?BattleCmdNo@@3HA, 5 ; BattleCmdNo

; 2140 : 		else

  00374	eb 0a		 jmp	 SHORT $LN94@BattleSetW
$LN93@BattleSetW:

; 2141 : #endif
; 2142 : 		BattleCmdNo = BATTLE_WAZA;

  00376	c7 05 00 00 00
	00 04 00 00 00	 mov	 DWORD PTR ?BattleCmdNo@@3HA, 4 ; BattleCmdNo
$LN94@BattleSetW:

; 2143 : 		play_se( 217, 320, 240 );

  00380	68 f0 00 00 00	 push	 240			; 000000f0H
  00385	68 40 01 00 00	 push	 320			; 00000140H
  0038a	68 d9 00 00 00	 push	 217			; 000000d9H
  0038f	e8 00 00 00 00	 call	 ?play_se@@YAHHHH@Z	; play_se
  00394	83 c4 0c	 add	 esp, 12			; 0000000cH

; 2144 : 		battleWazaTargetBak = no;

  00397	8b 45 08	 mov	 eax, DWORD PTR _no$[ebp]
  0039a	a3 00 00 00 00	 mov	 DWORD PTR ?battleWazaTargetBak@@3HA, eax ; battleWazaTargetBak

; 2145 : 		break;

  0039f	e9 83 10 00 00	 jmp	 $LN1@BattleSetW
$LN95@BattleSetW:

; 2146 : 		
; 2147 : 	case PETSKILL_TARGET_ALLOTHERSIDE:	// ?
; 2148 : 		// ????????
; 2149 : 		if( BattleMyNo >= 10 ){

  003a4	83 3d 00 00 00
	00 0a		 cmp	 DWORD PTR ?BattleMyNo@@3HA, 10 ; BattleMyNo, 0000000aH
  003ab	7c 7e		 jl	 SHORT $LN96@BattleSetW

; 2150 : 			// ???????
; 2151 : 			for( i = 0 ; i < 10 ; i++ ){

  003ad	c7 85 ec fe ff
	ff 00 00 00 00	 mov	 DWORD PTR _i$[ebp], 0
  003b7	eb 0f		 jmp	 SHORT $LN15@BattleSetW
$LN13@BattleSetW:
  003b9	8b 85 ec fe ff
	ff		 mov	 eax, DWORD PTR _i$[ebp]
  003bf	83 c0 01	 add	 eax, 1
  003c2	89 85 ec fe ff
	ff		 mov	 DWORD PTR _i$[ebp], eax
$LN15@BattleSetW:
  003c8	83 bd ec fe ff
	ff 0a		 cmp	 DWORD PTR _i$[ebp], 10	; 0000000aH
  003cf	7d 58		 jge	 SHORT $LN14@BattleSetW

; 2152 : 				// ??????????
; 2153 : 				if( p_party[ i ]->func == NULL ) continue;

  003d1	8b 85 ec fe ff
	ff		 mov	 eax, DWORD PTR _i$[ebp]
  003d7	8b 0c 85 00 00
	00 00		 mov	 ecx, DWORD PTR ?p_party@@3PAPAUaction@@A[eax*4]
  003de	83 79 08 00	 cmp	 DWORD PTR [ecx+8], 0
  003e2	75 02		 jne	 SHORT $LN98@BattleSetW
  003e4	eb d3		 jmp	 SHORT $LN13@BattleSetW
$LN98@BattleSetW:

; 2154 : 				// ??????
; 2155 : 				if( p_party[ i ]->hp <= 0 ) continue;

  003e6	8b 85 ec fe ff
	ff		 mov	 eax, DWORD PTR _i$[ebp]
  003ec	8b 0c 85 00 00
	00 00		 mov	 ecx, DWORD PTR ?p_party@@3PAPAUaction@@A[eax*4]
  003f3	83 79 78 00	 cmp	 DWORD PTR [ecx+120], 0
  003f7	7f 02		 jg	 SHORT $LN99@BattleSetW
  003f9	eb be		 jmp	 SHORT $LN13@BattleSetW
$LN99@BattleSetW:

; 2156 : 				// ?????????
; 2157 : 				p_party[ i ]->atr |= ACT_ATR_HIT_BOX_ALL1;

  003fb	8b 85 ec fe ff
	ff		 mov	 eax, DWORD PTR _i$[ebp]
  00401	8b 0c 85 00 00
	00 00		 mov	 ecx, DWORD PTR ?p_party@@3PAPAUaction@@A[eax*4]
  00408	8b 91 a4 00 00
	00		 mov	 edx, DWORD PTR [ecx+164]
  0040e	81 ca 00 20 00
	00		 or	 edx, 8192		; 00002000H
  00414	8b 85 ec fe ff
	ff		 mov	 eax, DWORD PTR _i$[ebp]
  0041a	8b 0c 85 00 00
	00 00		 mov	 ecx, DWORD PTR ?p_party@@3PAPAUaction@@A[eax*4]
  00421	89 91 a4 00 00
	00		 mov	 DWORD PTR [ecx+164], edx

; 2158 : 			}

  00427	eb 90		 jmp	 SHORT $LN13@BattleSetW
$LN14@BattleSetW:

; 2159 : 		}
; 2160 : 		// ????????
; 2161 : 		else{

  00429	eb 7c		 jmp	 SHORT $LN97@BattleSetW
$LN96@BattleSetW:

; 2162 : 			// ???????
; 2163 : 			for( i = 10 ; i < 20 ; i++ ){

  0042b	c7 85 ec fe ff
	ff 0a 00 00 00	 mov	 DWORD PTR _i$[ebp], 10	; 0000000aH
  00435	eb 0f		 jmp	 SHORT $LN18@BattleSetW
$LN16@BattleSetW:
  00437	8b 85 ec fe ff
	ff		 mov	 eax, DWORD PTR _i$[ebp]
  0043d	83 c0 01	 add	 eax, 1
  00440	89 85 ec fe ff
	ff		 mov	 DWORD PTR _i$[ebp], eax
$LN18@BattleSetW:
  00446	83 bd ec fe ff
	ff 14		 cmp	 DWORD PTR _i$[ebp], 20	; 00000014H
  0044d	7d 58		 jge	 SHORT $LN97@BattleSetW

; 2164 : 				// ??????????
; 2165 : 				if( p_party[ i ]->func == NULL ) continue;

  0044f	8b 85 ec fe ff
	ff		 mov	 eax, DWORD PTR _i$[ebp]
  00455	8b 0c 85 00 00
	00 00		 mov	 ecx, DWORD PTR ?p_party@@3PAPAUaction@@A[eax*4]
  0045c	83 79 08 00	 cmp	 DWORD PTR [ecx+8], 0
  00460	75 02		 jne	 SHORT $LN100@BattleSetW
  00462	eb d3		 jmp	 SHORT $LN16@BattleSetW
$LN100@BattleSetW:

; 2166 : 				// ??????
; 2167 : 				if( p_party[ i ]->hp <= 0 ) continue;

  00464	8b 85 ec fe ff
	ff		 mov	 eax, DWORD PTR _i$[ebp]
  0046a	8b 0c 85 00 00
	00 00		 mov	 ecx, DWORD PTR ?p_party@@3PAPAUaction@@A[eax*4]
  00471	83 79 78 00	 cmp	 DWORD PTR [ecx+120], 0
  00475	7f 02		 jg	 SHORT $LN101@BattleSetW
  00477	eb be		 jmp	 SHORT $LN16@BattleSetW
$LN101@BattleSetW:

; 2168 : 				// ?????????
; 2169 : 				p_party[ i ]->atr |= ACT_ATR_HIT_BOX_ALL2;

  00479	8b 85 ec fe ff
	ff		 mov	 eax, DWORD PTR _i$[ebp]
  0047f	8b 0c 85 00 00
	00 00		 mov	 ecx, DWORD PTR ?p_party@@3PAPAUaction@@A[eax*4]
  00486	8b 91 a4 00 00
	00		 mov	 edx, DWORD PTR [ecx+164]
  0048c	81 ca 00 40 00
	00		 or	 edx, 16384		; 00004000H
  00492	8b 85 ec fe ff
	ff		 mov	 eax, DWORD PTR _i$[ebp]
  00498	8b 0c 85 00 00
	00 00		 mov	 ecx, DWORD PTR ?p_party@@3PAPAUaction@@A[eax*4]
  0049f	89 91 a4 00 00
	00		 mov	 DWORD PTR [ecx+164], edx

; 2170 : 			}

  004a5	eb 90		 jmp	 SHORT $LN16@BattleSetW
$LN97@BattleSetW:

; 2171 : 		}
; 2172 : //		if ( typeflag == 0 )
; 2173 : 			battleTargetSelectFlag = TRUE;

  004a7	c7 05 00 00 00
	00 01 00 00 00	 mov	 DWORD PTR ?battleTargetSelectFlag@@3HA, 1

; 2174 : 		// ???????????
; 2175 : 		DeathAction( pActWnd );

  004b1	a1 00 00 00 00	 mov	 eax, DWORD PTR ?pActWnd@@3PAUaction@@A
  004b6	50		 push	 eax
  004b7	e8 00 00 00 00	 call	 ?DeathAction@@YAXPAUaction@@@Z ; DeathAction
  004bc	83 c4 04	 add	 esp, 4

; 2176 : 		pActWnd = NULL;

  004bf	c7 05 00 00 00
	00 00 00 00 00	 mov	 DWORD PTR ?pActWnd@@3PAUaction@@A, 0

; 2177 : 		// ?????????
; 2178 : 		ClearBattleButton();

  004c9	e8 00 00 00 00	 call	 ?ClearBattleButton@@YAXXZ ; ClearBattleButton

; 2179 : 		// ?????
; 2180 : #ifdef _BATTLESKILL				// (不可开) Syu ADD 战斗技能介面
; 2181 : 		if ( typeflag == 1 )

  004ce	83 7d 0c 01	 cmp	 DWORD PTR _typeflag$[ebp], 1
  004d2	75 0c		 jne	 SHORT $LN102@BattleSetW

; 2182 : 			BattleCmdNo = BATTLE_PROWAZA;

  004d4	c7 05 00 00 00
	00 05 00 00 00	 mov	 DWORD PTR ?BattleCmdNo@@3HA, 5 ; BattleCmdNo

; 2183 : 		else

  004de	eb 0a		 jmp	 SHORT $LN103@BattleSetW
$LN102@BattleSetW:

; 2184 : #endif
; 2185 : 
; 2186 : 		BattleCmdNo = BATTLE_WAZA;

  004e0	c7 05 00 00 00
	00 04 00 00 00	 mov	 DWORD PTR ?BattleCmdNo@@3HA, 4 ; BattleCmdNo
$LN103@BattleSetW:

; 2187 : 		// ?????
; 2188 : 		play_se( 217, 320, 240 );

  004ea	68 f0 00 00 00	 push	 240			; 000000f0H
  004ef	68 40 01 00 00	 push	 320			; 00000140H
  004f4	68 d9 00 00 00	 push	 217			; 000000d9H
  004f9	e8 00 00 00 00	 call	 ?play_se@@YAHHHH@Z	; play_se
  004fe	83 c4 0c	 add	 esp, 12			; 0000000cH

; 2189 : 		// ????????
; 2190 : 		battleWazaTargetBak = no;

  00501	8b 45 08	 mov	 eax, DWORD PTR _no$[ebp]
  00504	a3 00 00 00 00	 mov	 DWORD PTR ?battleWazaTargetBak@@3HA, eax ; battleWazaTargetBak

; 2191 : 		break;

  00509	e9 19 0f 00 00	 jmp	 $LN1@BattleSetW
$LN104@BattleSetW:

; 2192 : 		
; 2193 : 	case PETSKILL_TARGET_ALL:	// ?
; 2194 : 		// ???????
; 2195 : 		for( i = 0 ; i < 20 ; i++ ){

  0050e	c7 85 ec fe ff
	ff 00 00 00 00	 mov	 DWORD PTR _i$[ebp], 0
  00518	eb 0f		 jmp	 SHORT $LN21@BattleSetW
$LN19@BattleSetW:
  0051a	8b 85 ec fe ff
	ff		 mov	 eax, DWORD PTR _i$[ebp]
  00520	83 c0 01	 add	 eax, 1
  00523	89 85 ec fe ff
	ff		 mov	 DWORD PTR _i$[ebp], eax
$LN21@BattleSetW:
  00529	83 bd ec fe ff
	ff 14		 cmp	 DWORD PTR _i$[ebp], 20	; 00000014H
  00530	7d 58		 jge	 SHORT $LN20@BattleSetW

; 2196 : 			// ??????????
; 2197 : 			if( p_party[ i ]->func == NULL ) continue;

  00532	8b 85 ec fe ff
	ff		 mov	 eax, DWORD PTR _i$[ebp]
  00538	8b 0c 85 00 00
	00 00		 mov	 ecx, DWORD PTR ?p_party@@3PAPAUaction@@A[eax*4]
  0053f	83 79 08 00	 cmp	 DWORD PTR [ecx+8], 0
  00543	75 02		 jne	 SHORT $LN105@BattleSetW
  00545	eb d3		 jmp	 SHORT $LN19@BattleSetW
$LN105@BattleSetW:

; 2198 : 			// ??????
; 2199 : 			if( p_party[ i ]->hp <= 0 ) continue;

  00547	8b 85 ec fe ff
	ff		 mov	 eax, DWORD PTR _i$[ebp]
  0054d	8b 0c 85 00 00
	00 00		 mov	 ecx, DWORD PTR ?p_party@@3PAPAUaction@@A[eax*4]
  00554	83 79 78 00	 cmp	 DWORD PTR [ecx+120], 0
  00558	7f 02		 jg	 SHORT $LN106@BattleSetW
  0055a	eb be		 jmp	 SHORT $LN19@BattleSetW
$LN106@BattleSetW:

; 2200 : 			// ?????????
; 2201 : 			p_party[ i ]->atr |= ACT_ATR_HIT_BOX_ALL1;

  0055c	8b 85 ec fe ff
	ff		 mov	 eax, DWORD PTR _i$[ebp]
  00562	8b 0c 85 00 00
	00 00		 mov	 ecx, DWORD PTR ?p_party@@3PAPAUaction@@A[eax*4]
  00569	8b 91 a4 00 00
	00		 mov	 edx, DWORD PTR [ecx+164]
  0056f	81 ca 00 20 00
	00		 or	 edx, 8192		; 00002000H
  00575	8b 85 ec fe ff
	ff		 mov	 eax, DWORD PTR _i$[ebp]
  0057b	8b 0c 85 00 00
	00 00		 mov	 ecx, DWORD PTR ?p_party@@3PAPAUaction@@A[eax*4]
  00582	89 91 a4 00 00
	00		 mov	 DWORD PTR [ecx+164], edx

; 2202 : 		}

  00588	eb 90		 jmp	 SHORT $LN19@BattleSetW
$LN20@BattleSetW:

; 2203 : //		if ( typeflag == 0 )
; 2204 : 			battleTargetSelectFlag = TRUE;

  0058a	c7 05 00 00 00
	00 01 00 00 00	 mov	 DWORD PTR ?battleTargetSelectFlag@@3HA, 1

; 2205 : 		DeathAction( pActWnd );

  00594	a1 00 00 00 00	 mov	 eax, DWORD PTR ?pActWnd@@3PAUaction@@A
  00599	50		 push	 eax
  0059a	e8 00 00 00 00	 call	 ?DeathAction@@YAXPAUaction@@@Z ; DeathAction
  0059f	83 c4 04	 add	 esp, 4

; 2206 : 		pActWnd = NULL;

  005a2	c7 05 00 00 00
	00 00 00 00 00	 mov	 DWORD PTR ?pActWnd@@3PAUaction@@A, 0

; 2207 : 		// ?????????
; 2208 : 		ClearBattleButton();

  005ac	e8 00 00 00 00	 call	 ?ClearBattleButton@@YAXXZ ; ClearBattleButton

; 2209 : 		// ?????
; 2210 : #ifdef _BATTLESKILL				// (不可开) Syu ADD 战斗技能介面
; 2211 : 		if ( typeflag == 1 )

  005b1	83 7d 0c 01	 cmp	 DWORD PTR _typeflag$[ebp], 1
  005b5	75 0c		 jne	 SHORT $LN107@BattleSetW

; 2212 : 			BattleCmdNo = BATTLE_PROWAZA;

  005b7	c7 05 00 00 00
	00 05 00 00 00	 mov	 DWORD PTR ?BattleCmdNo@@3HA, 5 ; BattleCmdNo

; 2213 : 		else

  005c1	eb 0a		 jmp	 SHORT $LN108@BattleSetW
$LN107@BattleSetW:

; 2214 : #endif
; 2215 : 
; 2216 : 		BattleCmdNo = BATTLE_WAZA;

  005c3	c7 05 00 00 00
	00 04 00 00 00	 mov	 DWORD PTR ?BattleCmdNo@@3HA, 4 ; BattleCmdNo
$LN108@BattleSetW:

; 2217 : 		// ?????
; 2218 : 		play_se( 217, 320, 240 );

  005cd	68 f0 00 00 00	 push	 240			; 000000f0H
  005d2	68 40 01 00 00	 push	 320			; 00000140H
  005d7	68 d9 00 00 00	 push	 217			; 000000d9H
  005dc	e8 00 00 00 00	 call	 ?play_se@@YAHHHH@Z	; play_se
  005e1	83 c4 0c	 add	 esp, 12			; 0000000cH

; 2219 : 		// ????????
; 2220 : 		battleWazaTargetBak = no;

  005e4	8b 45 08	 mov	 eax, DWORD PTR _no$[ebp]
  005e7	a3 00 00 00 00	 mov	 DWORD PTR ?battleWazaTargetBak@@3HA, eax ; battleWazaTargetBak

; 2221 : 		break;

  005ec	e9 36 0e 00 00	 jmp	 $LN1@BattleSetW
$LN109@BattleSetW:

; 2222 : 		
; 2223 : 	case PETSKILL_TARGET_NONE:	// ?????????
; 2224 : 		BattleButtonOff(); // ????????????

  005f1	e8 00 00 00 00	 call	 ?BattleButtonOff@@YAXXZ	; BattleButtonOff

; 2225 : 		battleMenuReturn = TRUE;

  005f6	c7 05 00 00 00
	00 01 00 00 00	 mov	 DWORD PTR ?battleMenuReturn@@3HA, 1

; 2226 : 		// ???
; 2227 : #ifdef _BATTLESKILL				// (不可开) Syu ADD 战斗技能介面
; 2228 : 		if ( typeflag == 1 ) 

  00600	83 7d 0c 01	 cmp	 DWORD PTR _typeflag$[ebp], 1
  00604	75 23		 jne	 SHORT $LN110@BattleSetW

; 2229 : 			sprintf( moji,"P|%X|%X", prouseskill, BattleMyNo );

  00606	a1 00 00 00 00	 mov	 eax, DWORD PTR ?BattleMyNo@@3HA ; BattleMyNo
  0060b	50		 push	 eax
  0060c	8b 0d 00 00 00
	00		 mov	 ecx, DWORD PTR ?prouseskill@@3HA ; prouseskill
  00612	51		 push	 ecx
  00613	68 00 00 00 00	 push	 OFFSET ??_C@_07NGDMDFPD@P?$HM?$CFX?$HM?$CFX?$AA@
  00618	8d 95 f8 fe ff
	ff		 lea	 edx, DWORD PTR _moji$[ebp]
  0061e	52		 push	 edx
  0061f	e8 00 00 00 00	 call	 _sprintf
  00624	83 c4 10	 add	 esp, 16			; 00000010H

; 2230 : 		else

  00627	eb 24		 jmp	 SHORT $LN111@BattleSetW
$LN110@BattleSetW:

; 2231 : #endif
; 2232 : 		sprintf( moji,"W|%X|%X", BattleWazaNo, BattleMyNo + 5 );

  00629	a1 00 00 00 00	 mov	 eax, DWORD PTR ?BattleMyNo@@3HA ; BattleMyNo
  0062e	83 c0 05	 add	 eax, 5
  00631	50		 push	 eax
  00632	8b 0d 00 00 00
	00		 mov	 ecx, DWORD PTR ?BattleWazaNo@@3HA ; BattleWazaNo
  00638	51		 push	 ecx
  00639	68 00 00 00 00	 push	 OFFSET ??_C@_07NMPJDMOK@W?$HM?$CFX?$HM?$CFX?$AA@
  0063e	8d 95 f8 fe ff
	ff		 lea	 edx, DWORD PTR _moji$[ebp]
  00644	52		 push	 edx
  00645	e8 00 00 00 00	 call	 _sprintf
  0064a	83 c4 10	 add	 esp, 16			; 00000010H
$LN111@BattleSetW:

; 2233 : 		// ??
; 2234 : 		lssproto_B_send( sockfd, moji );

  0064d	8d 85 f8 fe ff
	ff		 lea	 eax, DWORD PTR _moji$[ebp]
  00653	50		 push	 eax
  00654	8b 0d 00 00 00
	00		 mov	 ecx, DWORD PTR ?sockfd@@3IA ; sockfd
  0065a	51		 push	 ecx
  0065b	e8 00 00 00 00	 call	 ?lssproto_B_send@@YAXHPAD@Z ; lssproto_B_send
  00660	83 c4 08	 add	 esp, 8

; 2235 : 
; 2236 : 		// ????????
; 2237 : 		play_se( 203, 320, 240 );

  00663	68 f0 00 00 00	 push	 240			; 000000f0H
  00668	68 40 01 00 00	 push	 320			; 00000140H
  0066d	68 cb 00 00 00	 push	 203			; 000000cbH
  00672	e8 00 00 00 00	 call	 ?play_se@@YAHHHH@Z	; play_se
  00677	83 c4 0c	 add	 esp, 12			; 0000000cH

; 2238 : 		//andy_add
; 2239 : #ifdef _BATTLESKILL				// (不可开) Syu ADD 战斗技能介面
; 2240 : 		if ( typeflag == 0 ){

  0067a	83 7d 0c 00	 cmp	 DWORD PTR _typeflag$[ebp], 0
  0067e	75 14		 jne	 SHORT $LN112@BattleSetW

; 2241 : 			battleWazaTargetBak = -1;

  00680	c7 05 00 00 00
	00 ff ff ff ff	 mov	 DWORD PTR ?battleWazaTargetBak@@3HA, -1 ; battleWazaTargetBak

; 2242 : 			battleTargetSelectFlag = FALSE;

  0068a	c7 05 00 00 00
	00 00 00 00 00	 mov	 DWORD PTR ?battleTargetSelectFlag@@3HA, 0
$LN112@BattleSetW:

; 2243 : 		}
; 2244 : #endif
; 2245 : 		break;

  00694	e9 8e 0d 00 00	 jmp	 $LN1@BattleSetW
$LN113@BattleSetW:

; 2246 : 		
; 2247 : 	case PETSKILL_TARGET_OTHERWITHOUTMYSELF:	// ??????) 
; 2248 : 		// ???????
; 2249 : 		for( i = 0 ; i < 20 ; i++ ){

  00699	c7 85 ec fe ff
	ff 00 00 00 00	 mov	 DWORD PTR _i$[ebp], 0
  006a3	eb 0f		 jmp	 SHORT $LN24@BattleSetW
$LN22@BattleSetW:
  006a5	8b 85 ec fe ff
	ff		 mov	 eax, DWORD PTR _i$[ebp]
  006ab	83 c0 01	 add	 eax, 1
  006ae	89 85 ec fe ff
	ff		 mov	 DWORD PTR _i$[ebp], eax
$LN24@BattleSetW:
  006b4	83 bd ec fe ff
	ff 14		 cmp	 DWORD PTR _i$[ebp], 20	; 00000014H
  006bb	7d 67		 jge	 SHORT $LN23@BattleSetW

; 2250 : 			// ??????????
; 2251 : 			if( p_party[ i ]->func == NULL ) continue;

  006bd	8b 85 ec fe ff
	ff		 mov	 eax, DWORD PTR _i$[ebp]
  006c3	8b 0c 85 00 00
	00 00		 mov	 ecx, DWORD PTR ?p_party@@3PAPAUaction@@A[eax*4]
  006ca	83 79 08 00	 cmp	 DWORD PTR [ecx+8], 0
  006ce	75 02		 jne	 SHORT $LN114@BattleSetW
  006d0	eb d3		 jmp	 SHORT $LN22@BattleSetW
$LN114@BattleSetW:

; 2252 : 			// ????????
; 2253 : 			if( i == BattleMyNo + 5 ) continue;

  006d2	a1 00 00 00 00	 mov	 eax, DWORD PTR ?BattleMyNo@@3HA ; BattleMyNo
  006d7	83 c0 05	 add	 eax, 5
  006da	39 85 ec fe ff
	ff		 cmp	 DWORD PTR _i$[ebp], eax
  006e0	75 02		 jne	 SHORT $LN115@BattleSetW
  006e2	eb c1		 jmp	 SHORT $LN22@BattleSetW
$LN115@BattleSetW:

; 2254 : 			// ??????
; 2255 : 			if( p_party[ i ]->hp <= 0 ) continue;

  006e4	8b 85 ec fe ff
	ff		 mov	 eax, DWORD PTR _i$[ebp]
  006ea	8b 0c 85 00 00
	00 00		 mov	 ecx, DWORD PTR ?p_party@@3PAPAUaction@@A[eax*4]
  006f1	83 79 78 00	 cmp	 DWORD PTR [ecx+120], 0
  006f5	7f 02		 jg	 SHORT $LN116@BattleSetW
  006f7	eb ac		 jmp	 SHORT $LN22@BattleSetW
$LN116@BattleSetW:

; 2256 : 			// ?????????
; 2257 : 			p_party[ i ]->atr |= ACT_ATR_HIT_BOX;

  006f9	8b 85 ec fe ff
	ff		 mov	 eax, DWORD PTR _i$[ebp]
  006ff	8b 0c 85 00 00
	00 00		 mov	 ecx, DWORD PTR ?p_party@@3PAPAUaction@@A[eax*4]
  00706	8b 91 a4 00 00
	00		 mov	 edx, DWORD PTR [ecx+164]
  0070c	83 ca 08	 or	 edx, 8
  0070f	8b 85 ec fe ff
	ff		 mov	 eax, DWORD PTR _i$[ebp]
  00715	8b 0c 85 00 00
	00 00		 mov	 ecx, DWORD PTR ?p_party@@3PAPAUaction@@A[eax*4]
  0071c	89 91 a4 00 00
	00		 mov	 DWORD PTR [ecx+164], edx

; 2258 : 		}

  00722	eb 81		 jmp	 SHORT $LN22@BattleSetW
$LN23@BattleSetW:

; 2259 : //		if ( typeflag == 0 )
; 2260 : 			battleTargetSelectFlag = TRUE;

  00724	c7 05 00 00 00
	00 01 00 00 00	 mov	 DWORD PTR ?battleTargetSelectFlag@@3HA, 1

; 2261 : 		DeathAction( pActWnd );

  0072e	a1 00 00 00 00	 mov	 eax, DWORD PTR ?pActWnd@@3PAUaction@@A
  00733	50		 push	 eax
  00734	e8 00 00 00 00	 call	 ?DeathAction@@YAXPAUaction@@@Z ; DeathAction
  00739	83 c4 04	 add	 esp, 4

; 2262 : 		pActWnd = NULL;

  0073c	c7 05 00 00 00
	00 00 00 00 00	 mov	 DWORD PTR ?pActWnd@@3PAUaction@@A, 0

; 2263 : 		ClearBattleButton();

  00746	e8 00 00 00 00	 call	 ?ClearBattleButton@@YAXXZ ; ClearBattleButton

; 2264 : #ifdef _BATTLESKILL				// (不可开) Syu ADD 战斗技能介面
; 2265 : 		if ( typeflag == 1 )

  0074b	83 7d 0c 01	 cmp	 DWORD PTR _typeflag$[ebp], 1
  0074f	75 0c		 jne	 SHORT $LN117@BattleSetW

; 2266 : 			BattleCmdNo = BATTLE_PROWAZA;

  00751	c7 05 00 00 00
	00 05 00 00 00	 mov	 DWORD PTR ?BattleCmdNo@@3HA, 5 ; BattleCmdNo

; 2267 : 		else

  0075b	eb 0a		 jmp	 SHORT $LN118@BattleSetW
$LN117@BattleSetW:

; 2268 : #endif
; 2269 : 
; 2270 : 		BattleCmdNo = BATTLE_WAZA;

  0075d	c7 05 00 00 00
	00 04 00 00 00	 mov	 DWORD PTR ?BattleCmdNo@@3HA, 4 ; BattleCmdNo
$LN118@BattleSetW:

; 2271 : 		// ?????
; 2272 : 		play_se( 217, 320, 240 );

  00767	68 f0 00 00 00	 push	 240			; 000000f0H
  0076c	68 40 01 00 00	 push	 320			; 00000140H
  00771	68 d9 00 00 00	 push	 217			; 000000d9H
  00776	e8 00 00 00 00	 call	 ?play_se@@YAHHHH@Z	; play_se
  0077b	83 c4 0c	 add	 esp, 12			; 0000000cH

; 2273 : 		// ????????
; 2274 : 		battleWazaTargetBak = no;

  0077e	8b 45 08	 mov	 eax, DWORD PTR _no$[ebp]
  00781	a3 00 00 00 00	 mov	 DWORD PTR ?battleWazaTargetBak@@3HA, eax ; battleWazaTargetBak

; 2275 : 		break;

  00786	e9 9c 0c 00 00	 jmp	 $LN1@BattleSetW
$LN119@BattleSetW:

; 2276 : 		
; 2277 : 	case PETSKILL_TARGET_WITHOUTMYSELFANDPET:	// ?????? 
; 2278 : 		// ???????
; 2279 : 		for( i = 0 ; i < 20 ; i++ ){

  0078b	c7 85 ec fe ff
	ff 00 00 00 00	 mov	 DWORD PTR _i$[ebp], 0
  00795	eb 0f		 jmp	 SHORT $LN27@BattleSetW
$LN25@BattleSetW:
  00797	8b 85 ec fe ff
	ff		 mov	 eax, DWORD PTR _i$[ebp]
  0079d	83 c0 01	 add	 eax, 1
  007a0	89 85 ec fe ff
	ff		 mov	 DWORD PTR _i$[ebp], eax
$LN27@BattleSetW:
  007a6	83 bd ec fe ff
	ff 14		 cmp	 DWORD PTR _i$[ebp], 20	; 00000014H
  007ad	7d 7a		 jge	 SHORT $LN26@BattleSetW

; 2280 : 			// ??????????
; 2281 : 			if( p_party[ i ]->func == NULL ) continue;

  007af	8b 85 ec fe ff
	ff		 mov	 eax, DWORD PTR _i$[ebp]
  007b5	8b 0c 85 00 00
	00 00		 mov	 ecx, DWORD PTR ?p_party@@3PAPAUaction@@A[eax*4]
  007bc	83 79 08 00	 cmp	 DWORD PTR [ecx+8], 0
  007c0	75 02		 jne	 SHORT $LN120@BattleSetW
  007c2	eb d3		 jmp	 SHORT $LN25@BattleSetW
$LN120@BattleSetW:

; 2282 : 			// ????????
; 2283 : 			if( i == BattleMyNo + 5 ) continue;

  007c4	a1 00 00 00 00	 mov	 eax, DWORD PTR ?BattleMyNo@@3HA ; BattleMyNo
  007c9	83 c0 05	 add	 eax, 5
  007cc	39 85 ec fe ff
	ff		 cmp	 DWORD PTR _i$[ebp], eax
  007d2	75 02		 jne	 SHORT $LN121@BattleSetW
  007d4	eb c1		 jmp	 SHORT $LN25@BattleSetW
$LN121@BattleSetW:

; 2284 : 			// ????
; 2285 : 			if( i == BattleMyNo ) continue;

  007d6	8b 85 ec fe ff
	ff		 mov	 eax, DWORD PTR _i$[ebp]
  007dc	3b 05 00 00 00
	00		 cmp	 eax, DWORD PTR ?BattleMyNo@@3HA ; BattleMyNo
  007e2	75 02		 jne	 SHORT $LN122@BattleSetW
  007e4	eb b1		 jmp	 SHORT $LN25@BattleSetW
$LN122@BattleSetW:

; 2286 : 			// ??????
; 2287 : 			if( p_party[ i ]->hp <= 0 ) continue;

  007e6	8b 85 ec fe ff
	ff		 mov	 eax, DWORD PTR _i$[ebp]
  007ec	8b 0c 85 00 00
	00 00		 mov	 ecx, DWORD PTR ?p_party@@3PAPAUaction@@A[eax*4]
  007f3	83 79 78 00	 cmp	 DWORD PTR [ecx+120], 0
  007f7	7f 02		 jg	 SHORT $LN123@BattleSetW
  007f9	eb 9c		 jmp	 SHORT $LN25@BattleSetW
$LN123@BattleSetW:

; 2288 : 			// ?????????
; 2289 : 			p_party[ i ]->atr |= ACT_ATR_HIT_BOX;

  007fb	8b 85 ec fe ff
	ff		 mov	 eax, DWORD PTR _i$[ebp]
  00801	8b 0c 85 00 00
	00 00		 mov	 ecx, DWORD PTR ?p_party@@3PAPAUaction@@A[eax*4]
  00808	8b 91 a4 00 00
	00		 mov	 edx, DWORD PTR [ecx+164]
  0080e	83 ca 08	 or	 edx, 8
  00811	8b 85 ec fe ff
	ff		 mov	 eax, DWORD PTR _i$[ebp]
  00817	8b 0c 85 00 00
	00 00		 mov	 ecx, DWORD PTR ?p_party@@3PAPAUaction@@A[eax*4]
  0081e	89 91 a4 00 00
	00		 mov	 DWORD PTR [ecx+164], edx

; 2290 : 		}

  00824	e9 6e ff ff ff	 jmp	 $LN25@BattleSetW
$LN26@BattleSetW:

; 2291 : //		if ( typeflag == 0 )
; 2292 : 			battleTargetSelectFlag = TRUE;

  00829	c7 05 00 00 00
	00 01 00 00 00	 mov	 DWORD PTR ?battleTargetSelectFlag@@3HA, 1

; 2293 : 		// ???????????
; 2294 : 		DeathAction( pActWnd );

  00833	a1 00 00 00 00	 mov	 eax, DWORD PTR ?pActWnd@@3PAUaction@@A
  00838	50		 push	 eax
  00839	e8 00 00 00 00	 call	 ?DeathAction@@YAXPAUaction@@@Z ; DeathAction
  0083e	83 c4 04	 add	 esp, 4

; 2295 : 		pActWnd = NULL;

  00841	c7 05 00 00 00
	00 00 00 00 00	 mov	 DWORD PTR ?pActWnd@@3PAUaction@@A, 0

; 2296 : 		// ?????????
; 2297 : 		ClearBattleButton();

  0084b	e8 00 00 00 00	 call	 ?ClearBattleButton@@YAXXZ ; ClearBattleButton

; 2298 : 		// ?????
; 2299 : #ifdef _BATTLESKILL				// (不可开) Syu ADD 战斗技能介面
; 2300 : 		if ( typeflag == 1 )

  00850	83 7d 0c 01	 cmp	 DWORD PTR _typeflag$[ebp], 1
  00854	75 0c		 jne	 SHORT $LN124@BattleSetW

; 2301 : 			BattleCmdNo = BATTLE_PROWAZA;

  00856	c7 05 00 00 00
	00 05 00 00 00	 mov	 DWORD PTR ?BattleCmdNo@@3HA, 5 ; BattleCmdNo

; 2302 : 		else

  00860	eb 0a		 jmp	 SHORT $LN125@BattleSetW
$LN124@BattleSetW:

; 2303 : #endif
; 2304 : 		BattleCmdNo = BATTLE_WAZA;

  00862	c7 05 00 00 00
	00 04 00 00 00	 mov	 DWORD PTR ?BattleCmdNo@@3HA, 4 ; BattleCmdNo
$LN125@BattleSetW:

; 2305 : 		// ?????
; 2306 : 		play_se( 217, 320, 240 );

  0086c	68 f0 00 00 00	 push	 240			; 000000f0H
  00871	68 40 01 00 00	 push	 320			; 00000140H
  00876	68 d9 00 00 00	 push	 217			; 000000d9H
  0087b	e8 00 00 00 00	 call	 ?play_se@@YAHHHH@Z	; play_se
  00880	83 c4 0c	 add	 esp, 12			; 0000000cH

; 2307 : 		// ????????
; 2308 : 		battleWazaTargetBak = no;

  00883	8b 45 08	 mov	 eax, DWORD PTR _no$[ebp]
  00886	a3 00 00 00 00	 mov	 DWORD PTR ?battleWazaTargetBak@@3HA, eax ; battleWazaTargetBak

; 2309 : 		break;

  0088b	e9 97 0b 00 00	 jmp	 $LN1@BattleSetW
$LN126@BattleSetW:

; 2310 : #ifdef _BATTLESKILL				// (不可开) Syu ADD 战斗技能介面
; 2311 : 	case PETSKILL_TARGET_ONE_ROW:
; 2312 : 		for( i = 0 ; i < 5 ; i++ )	{

  00890	c7 85 ec fe ff
	ff 00 00 00 00	 mov	 DWORD PTR _i$[ebp], 0
  0089a	eb 0f		 jmp	 SHORT $LN30@BattleSetW
$LN28@BattleSetW:
  0089c	8b 85 ec fe ff
	ff		 mov	 eax, DWORD PTR _i$[ebp]
  008a2	83 c0 01	 add	 eax, 1
  008a5	89 85 ec fe ff
	ff		 mov	 DWORD PTR _i$[ebp], eax
$LN30@BattleSetW:
  008ab	83 bd ec fe ff
	ff 05		 cmp	 DWORD PTR _i$[ebp], 5
  008b2	7d 78		 jge	 SHORT $LN29@BattleSetW

; 2313 : 			if( p_party[i]->func == NULL )	continue;

  008b4	8b 85 ec fe ff
	ff		 mov	 eax, DWORD PTR _i$[ebp]
  008ba	8b 0c 85 00 00
	00 00		 mov	 ecx, DWORD PTR ?p_party@@3PAPAUaction@@A[eax*4]
  008c1	83 79 08 00	 cmp	 DWORD PTR [ecx+8], 0
  008c5	75 02		 jne	 SHORT $LN127@BattleSetW
  008c7	eb d3		 jmp	 SHORT $LN28@BattleSetW
$LN127@BattleSetW:

; 2314 : 			//if( FALSE == magic[BattleJujutuNo].deadTargetFlag )
; 2315 : 			if( p_party[i]->hp <= 0 ) continue;

  008c9	8b 85 ec fe ff
	ff		 mov	 eax, DWORD PTR _i$[ebp]
  008cf	8b 0c 85 00 00
	00 00		 mov	 ecx, DWORD PTR ?p_party@@3PAPAUaction@@A[eax*4]
  008d6	83 79 78 00	 cmp	 DWORD PTR [ecx+120], 0
  008da	7f 02		 jg	 SHORT $LN128@BattleSetW
  008dc	eb be		 jmp	 SHORT $LN28@BattleSetW
$LN128@BattleSetW:

; 2316 : 			if( p_party[i]->atr & ACT_ATR_TRAVEL )	continue;

  008de	8b 85 ec fe ff
	ff		 mov	 eax, DWORD PTR _i$[ebp]
  008e4	8b 0c 85 00 00
	00 00		 mov	 ecx, DWORD PTR ?p_party@@3PAPAUaction@@A[eax*4]
  008eb	8b 91 a4 00 00
	00		 mov	 edx, DWORD PTR [ecx+164]
  008f1	81 e2 00 00 02
	00		 and	 edx, 131072		; 00020000H
  008f7	74 02		 je	 SHORT $LN129@BattleSetW
  008f9	eb a1		 jmp	 SHORT $LN28@BattleSetW
$LN129@BattleSetW:

; 2317 : 			// 右下第二列
; 2318 : 			p_party[i]->atr |= ACT_ATR_HIT_BOX_COL4;

  008fb	8b 85 ec fe ff
	ff		 mov	 eax, DWORD PTR _i$[ebp]
  00901	8b 0c 85 00 00
	00 00		 mov	 ecx, DWORD PTR ?p_party@@3PAPAUaction@@A[eax*4]
  00908	8b 91 a4 00 00
	00		 mov	 edx, DWORD PTR [ecx+164]
  0090e	81 ca 00 00 20
	00		 or	 edx, 2097152		; 00200000H
  00914	8b 85 ec fe ff
	ff		 mov	 eax, DWORD PTR _i$[ebp]
  0091a	8b 0c 85 00 00
	00 00		 mov	 ecx, DWORD PTR ?p_party@@3PAPAUaction@@A[eax*4]
  00921	89 91 a4 00 00
	00		 mov	 DWORD PTR [ecx+164], edx

; 2319 : 		}

  00927	e9 70 ff ff ff	 jmp	 $LN28@BattleSetW
$LN29@BattleSetW:

; 2320 : 		for( i = 5 ; i < 10 ; i++ )	{

  0092c	c7 85 ec fe ff
	ff 05 00 00 00	 mov	 DWORD PTR _i$[ebp], 5
  00936	eb 0f		 jmp	 SHORT $LN33@BattleSetW
$LN31@BattleSetW:
  00938	8b 85 ec fe ff
	ff		 mov	 eax, DWORD PTR _i$[ebp]
  0093e	83 c0 01	 add	 eax, 1
  00941	89 85 ec fe ff
	ff		 mov	 DWORD PTR _i$[ebp], eax
$LN33@BattleSetW:
  00947	83 bd ec fe ff
	ff 0a		 cmp	 DWORD PTR _i$[ebp], 10	; 0000000aH
  0094e	7d 78		 jge	 SHORT $LN32@BattleSetW

; 2321 : 			if( p_party[i]->func == NULL )	continue;

  00950	8b 85 ec fe ff
	ff		 mov	 eax, DWORD PTR _i$[ebp]
  00956	8b 0c 85 00 00
	00 00		 mov	 ecx, DWORD PTR ?p_party@@3PAPAUaction@@A[eax*4]
  0095d	83 79 08 00	 cmp	 DWORD PTR [ecx+8], 0
  00961	75 02		 jne	 SHORT $LN130@BattleSetW
  00963	eb d3		 jmp	 SHORT $LN31@BattleSetW
$LN130@BattleSetW:

; 2322 : 			//if( FALSE == magic[BattleJujutuNo].deadTargetFlag )
; 2323 : 			if( p_party[i]->hp <= 0 ) continue;

  00965	8b 85 ec fe ff
	ff		 mov	 eax, DWORD PTR _i$[ebp]
  0096b	8b 0c 85 00 00
	00 00		 mov	 ecx, DWORD PTR ?p_party@@3PAPAUaction@@A[eax*4]
  00972	83 79 78 00	 cmp	 DWORD PTR [ecx+120], 0
  00976	7f 02		 jg	 SHORT $LN131@BattleSetW
  00978	eb be		 jmp	 SHORT $LN31@BattleSetW
$LN131@BattleSetW:

; 2324 : 			if( p_party[i]->atr & ACT_ATR_TRAVEL )	continue;

  0097a	8b 85 ec fe ff
	ff		 mov	 eax, DWORD PTR _i$[ebp]
  00980	8b 0c 85 00 00
	00 00		 mov	 ecx, DWORD PTR ?p_party@@3PAPAUaction@@A[eax*4]
  00987	8b 91 a4 00 00
	00		 mov	 edx, DWORD PTR [ecx+164]
  0098d	81 e2 00 00 02
	00		 and	 edx, 131072		; 00020000H
  00993	74 02		 je	 SHORT $LN132@BattleSetW
  00995	eb a1		 jmp	 SHORT $LN31@BattleSetW
$LN132@BattleSetW:

; 2325 : 			// 右下第一列
; 2326 : 			p_party[i]->atr |= ACT_ATR_HIT_BOX_COL3;

  00997	8b 85 ec fe ff
	ff		 mov	 eax, DWORD PTR _i$[ebp]
  0099d	8b 0c 85 00 00
	00 00		 mov	 ecx, DWORD PTR ?p_party@@3PAPAUaction@@A[eax*4]
  009a4	8b 91 a4 00 00
	00		 mov	 edx, DWORD PTR [ecx+164]
  009aa	81 ca 00 00 10
	00		 or	 edx, 1048576		; 00100000H
  009b0	8b 85 ec fe ff
	ff		 mov	 eax, DWORD PTR _i$[ebp]
  009b6	8b 0c 85 00 00
	00 00		 mov	 ecx, DWORD PTR ?p_party@@3PAPAUaction@@A[eax*4]
  009bd	89 91 a4 00 00
	00		 mov	 DWORD PTR [ecx+164], edx

; 2327 : 		}

  009c3	e9 70 ff ff ff	 jmp	 $LN31@BattleSetW
$LN32@BattleSetW:

; 2328 : 		for( i = 10 ; i < 15 ; i++ ) {

  009c8	c7 85 ec fe ff
	ff 0a 00 00 00	 mov	 DWORD PTR _i$[ebp], 10	; 0000000aH
  009d2	eb 0f		 jmp	 SHORT $LN36@BattleSetW
$LN34@BattleSetW:
  009d4	8b 85 ec fe ff
	ff		 mov	 eax, DWORD PTR _i$[ebp]
  009da	83 c0 01	 add	 eax, 1
  009dd	89 85 ec fe ff
	ff		 mov	 DWORD PTR _i$[ebp], eax
$LN36@BattleSetW:
  009e3	83 bd ec fe ff
	ff 0f		 cmp	 DWORD PTR _i$[ebp], 15	; 0000000fH
  009ea	7d 78		 jge	 SHORT $LN35@BattleSetW

; 2329 : 			if( p_party[i]->func == NULL )	continue;

  009ec	8b 85 ec fe ff
	ff		 mov	 eax, DWORD PTR _i$[ebp]
  009f2	8b 0c 85 00 00
	00 00		 mov	 ecx, DWORD PTR ?p_party@@3PAPAUaction@@A[eax*4]
  009f9	83 79 08 00	 cmp	 DWORD PTR [ecx+8], 0
  009fd	75 02		 jne	 SHORT $LN133@BattleSetW
  009ff	eb d3		 jmp	 SHORT $LN34@BattleSetW
$LN133@BattleSetW:

; 2330 : 			//if( FALSE == magic[BattleJujutuNo].deadTargetFlag )
; 2331 : 			if( p_party[i]->hp <= 0 ) continue;

  00a01	8b 85 ec fe ff
	ff		 mov	 eax, DWORD PTR _i$[ebp]
  00a07	8b 0c 85 00 00
	00 00		 mov	 ecx, DWORD PTR ?p_party@@3PAPAUaction@@A[eax*4]
  00a0e	83 79 78 00	 cmp	 DWORD PTR [ecx+120], 0
  00a12	7f 02		 jg	 SHORT $LN134@BattleSetW
  00a14	eb be		 jmp	 SHORT $LN34@BattleSetW
$LN134@BattleSetW:

; 2332 : 			if( p_party[i]->atr & ACT_ATR_TRAVEL ) continue;

  00a16	8b 85 ec fe ff
	ff		 mov	 eax, DWORD PTR _i$[ebp]
  00a1c	8b 0c 85 00 00
	00 00		 mov	 ecx, DWORD PTR ?p_party@@3PAPAUaction@@A[eax*4]
  00a23	8b 91 a4 00 00
	00		 mov	 edx, DWORD PTR [ecx+164]
  00a29	81 e2 00 00 02
	00		 and	 edx, 131072		; 00020000H
  00a2f	74 02		 je	 SHORT $LN135@BattleSetW
  00a31	eb a1		 jmp	 SHORT $LN34@BattleSetW
$LN135@BattleSetW:

; 2333 : 			// 左上第一列
; 2334 : 			p_party[i]->atr |= ACT_ATR_HIT_BOX_COL1;

  00a33	8b 85 ec fe ff
	ff		 mov	 eax, DWORD PTR _i$[ebp]
  00a39	8b 0c 85 00 00
	00 00		 mov	 ecx, DWORD PTR ?p_party@@3PAPAUaction@@A[eax*4]
  00a40	8b 91 a4 00 00
	00		 mov	 edx, DWORD PTR [ecx+164]
  00a46	81 ca 00 00 04
	00		 or	 edx, 262144		; 00040000H
  00a4c	8b 85 ec fe ff
	ff		 mov	 eax, DWORD PTR _i$[ebp]
  00a52	8b 0c 85 00 00
	00 00		 mov	 ecx, DWORD PTR ?p_party@@3PAPAUaction@@A[eax*4]
  00a59	89 91 a4 00 00
	00		 mov	 DWORD PTR [ecx+164], edx

; 2335 : 		}

  00a5f	e9 70 ff ff ff	 jmp	 $LN34@BattleSetW
$LN35@BattleSetW:

; 2336 : 		for( i = 15 ; i < 20 ; i++ ) {

  00a64	c7 85 ec fe ff
	ff 0f 00 00 00	 mov	 DWORD PTR _i$[ebp], 15	; 0000000fH
  00a6e	eb 0f		 jmp	 SHORT $LN39@BattleSetW
$LN37@BattleSetW:
  00a70	8b 85 ec fe ff
	ff		 mov	 eax, DWORD PTR _i$[ebp]
  00a76	83 c0 01	 add	 eax, 1
  00a79	89 85 ec fe ff
	ff		 mov	 DWORD PTR _i$[ebp], eax
$LN39@BattleSetW:
  00a7f	83 bd ec fe ff
	ff 14		 cmp	 DWORD PTR _i$[ebp], 20	; 00000014H
  00a86	7d 78		 jge	 SHORT $LN38@BattleSetW

; 2337 : 			if( p_party[i]->func == NULL ) continue;

  00a88	8b 85 ec fe ff
	ff		 mov	 eax, DWORD PTR _i$[ebp]
  00a8e	8b 0c 85 00 00
	00 00		 mov	 ecx, DWORD PTR ?p_party@@3PAPAUaction@@A[eax*4]
  00a95	83 79 08 00	 cmp	 DWORD PTR [ecx+8], 0
  00a99	75 02		 jne	 SHORT $LN136@BattleSetW
  00a9b	eb d3		 jmp	 SHORT $LN37@BattleSetW
$LN136@BattleSetW:

; 2338 : 			//if( FALSE == magic[BattleJujutuNo].deadTargetFlag )
; 2339 : 			if( p_party[i]->hp <= 0 ) continue;

  00a9d	8b 85 ec fe ff
	ff		 mov	 eax, DWORD PTR _i$[ebp]
  00aa3	8b 0c 85 00 00
	00 00		 mov	 ecx, DWORD PTR ?p_party@@3PAPAUaction@@A[eax*4]
  00aaa	83 79 78 00	 cmp	 DWORD PTR [ecx+120], 0
  00aae	7f 02		 jg	 SHORT $LN137@BattleSetW
  00ab0	eb be		 jmp	 SHORT $LN37@BattleSetW
$LN137@BattleSetW:

; 2340 : 			if( p_party[i]->atr & ACT_ATR_TRAVEL )	continue;

  00ab2	8b 85 ec fe ff
	ff		 mov	 eax, DWORD PTR _i$[ebp]
  00ab8	8b 0c 85 00 00
	00 00		 mov	 ecx, DWORD PTR ?p_party@@3PAPAUaction@@A[eax*4]
  00abf	8b 91 a4 00 00
	00		 mov	 edx, DWORD PTR [ecx+164]
  00ac5	81 e2 00 00 02
	00		 and	 edx, 131072		; 00020000H
  00acb	74 02		 je	 SHORT $LN138@BattleSetW
  00acd	eb a1		 jmp	 SHORT $LN37@BattleSetW
$LN138@BattleSetW:

; 2341 : 			// 左上第二列
; 2342 : 			p_party[i]->atr |= ACT_ATR_HIT_BOX_COL2;

  00acf	8b 85 ec fe ff
	ff		 mov	 eax, DWORD PTR _i$[ebp]
  00ad5	8b 0c 85 00 00
	00 00		 mov	 ecx, DWORD PTR ?p_party@@3PAPAUaction@@A[eax*4]
  00adc	8b 91 a4 00 00
	00		 mov	 edx, DWORD PTR [ecx+164]
  00ae2	81 ca 00 00 08
	00		 or	 edx, 524288		; 00080000H
  00ae8	8b 85 ec fe ff
	ff		 mov	 eax, DWORD PTR _i$[ebp]
  00aee	8b 0c 85 00 00
	00 00		 mov	 ecx, DWORD PTR ?p_party@@3PAPAUaction@@A[eax*4]
  00af5	89 91 a4 00 00
	00		 mov	 DWORD PTR [ecx+164], edx

; 2343 : 		}

  00afb	e9 70 ff ff ff	 jmp	 $LN37@BattleSetW
$LN38@BattleSetW:

; 2344 : //		if ( typeflag == 0 )
; 2345 : 			battleTargetSelectFlag = TRUE;

  00b00	c7 05 00 00 00
	00 01 00 00 00	 mov	 DWORD PTR ?battleTargetSelectFlag@@3HA, 1

; 2346 : 
; 2347 : 		DeathAction( pActWnd );

  00b0a	a1 00 00 00 00	 mov	 eax, DWORD PTR ?pActWnd@@3PAUaction@@A
  00b0f	50		 push	 eax
  00b10	e8 00 00 00 00	 call	 ?DeathAction@@YAXPAUaction@@@Z ; DeathAction
  00b15	83 c4 04	 add	 esp, 4

; 2348 : 		pActWnd = NULL;

  00b18	c7 05 00 00 00
	00 00 00 00 00	 mov	 DWORD PTR ?pActWnd@@3PAUaction@@A, 0

; 2349 : 
; 2350 : 		ClearBattleButton();

  00b22	e8 00 00 00 00	 call	 ?ClearBattleButton@@YAXXZ ; ClearBattleButton

; 2351 : 
; 2352 : 		if ( typeflag == 1 )

  00b27	83 7d 0c 01	 cmp	 DWORD PTR _typeflag$[ebp], 1
  00b2b	75 0c		 jne	 SHORT $LN139@BattleSetW

; 2353 : 			BattleCmdNo = BATTLE_PROWAZA;

  00b2d	c7 05 00 00 00
	00 05 00 00 00	 mov	 DWORD PTR ?BattleCmdNo@@3HA, 5 ; BattleCmdNo

; 2354 : 		else

  00b37	eb 0a		 jmp	 SHORT $LN140@BattleSetW
$LN139@BattleSetW:

; 2355 : 			BattleCmdNo = BATTLE_WAZA;

  00b39	c7 05 00 00 00
	00 04 00 00 00	 mov	 DWORD PTR ?BattleCmdNo@@3HA, 4 ; BattleCmdNo
$LN140@BattleSetW:

; 2356 : 		
; 2357 : 		play_se( 217, 320, 240 );

  00b43	68 f0 00 00 00	 push	 240			; 000000f0H
  00b48	68 40 01 00 00	 push	 320			; 00000140H
  00b4d	68 d9 00 00 00	 push	 217			; 000000d9H
  00b52	e8 00 00 00 00	 call	 ?play_se@@YAHHHH@Z	; play_se
  00b57	83 c4 0c	 add	 esp, 12			; 0000000cH

; 2358 : 
; 2359 : 		if ( typeflag != 1 )

  00b5a	83 7d 0c 01	 cmp	 DWORD PTR _typeflag$[ebp], 1
  00b5e	74 08		 je	 SHORT $LN141@BattleSetW

; 2360 : 			battleWazaTargetBak = no;

  00b60	8b 45 08	 mov	 eax, DWORD PTR _no$[ebp]
  00b63	a3 00 00 00 00	 mov	 DWORD PTR ?battleWazaTargetBak@@3HA, eax ; battleWazaTargetBak
$LN141@BattleSetW:

; 2361 : 
; 2362 : 		break;

  00b68	e9 ba 08 00 00	 jmp	 $LN1@BattleSetW
$LN142@BattleSetW:

; 2363 : #ifdef _SKILL_ADDBARRIER
; 2364 : 	case PETSKILL_TARGET_ONE_ROW_ALL:
; 2365 : 		for( i = 0 ; i < 5 ; i++ )	{

  00b6d	c7 85 ec fe ff
	ff 00 00 00 00	 mov	 DWORD PTR _i$[ebp], 0
  00b77	eb 0f		 jmp	 SHORT $LN42@BattleSetW
$LN40@BattleSetW:
  00b79	8b 85 ec fe ff
	ff		 mov	 eax, DWORD PTR _i$[ebp]
  00b7f	83 c0 01	 add	 eax, 1
  00b82	89 85 ec fe ff
	ff		 mov	 DWORD PTR _i$[ebp], eax
$LN42@BattleSetW:
  00b88	83 bd ec fe ff
	ff 05		 cmp	 DWORD PTR _i$[ebp], 5
  00b8f	7d 78		 jge	 SHORT $LN41@BattleSetW

; 2366 : 			if( p_party[i]->func == NULL )	continue;

  00b91	8b 85 ec fe ff
	ff		 mov	 eax, DWORD PTR _i$[ebp]
  00b97	8b 0c 85 00 00
	00 00		 mov	 ecx, DWORD PTR ?p_party@@3PAPAUaction@@A[eax*4]
  00b9e	83 79 08 00	 cmp	 DWORD PTR [ecx+8], 0
  00ba2	75 02		 jne	 SHORT $LN143@BattleSetW
  00ba4	eb d3		 jmp	 SHORT $LN40@BattleSetW
$LN143@BattleSetW:

; 2367 : 			//if( FALSE == magic[BattleJujutuNo].deadTargetFlag )
; 2368 : 			if( p_party[i]->hp <= 0 ) continue;

  00ba6	8b 85 ec fe ff
	ff		 mov	 eax, DWORD PTR _i$[ebp]
  00bac	8b 0c 85 00 00
	00 00		 mov	 ecx, DWORD PTR ?p_party@@3PAPAUaction@@A[eax*4]
  00bb3	83 79 78 00	 cmp	 DWORD PTR [ecx+120], 0
  00bb7	7f 02		 jg	 SHORT $LN144@BattleSetW
  00bb9	eb be		 jmp	 SHORT $LN40@BattleSetW
$LN144@BattleSetW:

; 2369 : 			if( p_party[i]->atr & ACT_ATR_TRAVEL )	continue;

  00bbb	8b 85 ec fe ff
	ff		 mov	 eax, DWORD PTR _i$[ebp]
  00bc1	8b 0c 85 00 00
	00 00		 mov	 ecx, DWORD PTR ?p_party@@3PAPAUaction@@A[eax*4]
  00bc8	8b 91 a4 00 00
	00		 mov	 edx, DWORD PTR [ecx+164]
  00bce	81 e2 00 00 02
	00		 and	 edx, 131072		; 00020000H
  00bd4	74 02		 je	 SHORT $LN145@BattleSetW
  00bd6	eb a1		 jmp	 SHORT $LN40@BattleSetW
$LN145@BattleSetW:

; 2370 : 			// 右下第二列
; 2371 : 			p_party[i]->atr |= ACT_ATR_HIT_BOX_COL8;

  00bd8	8b 85 ec fe ff
	ff		 mov	 eax, DWORD PTR _i$[ebp]
  00bde	8b 0c 85 00 00
	00 00		 mov	 ecx, DWORD PTR ?p_party@@3PAPAUaction@@A[eax*4]
  00be5	8b 91 a4 00 00
	00		 mov	 edx, DWORD PTR [ecx+164]
  00beb	81 ca 00 00 00
	02		 or	 edx, 33554432		; 02000000H
  00bf1	8b 85 ec fe ff
	ff		 mov	 eax, DWORD PTR _i$[ebp]
  00bf7	8b 0c 85 00 00
	00 00		 mov	 ecx, DWORD PTR ?p_party@@3PAPAUaction@@A[eax*4]
  00bfe	89 91 a4 00 00
	00		 mov	 DWORD PTR [ecx+164], edx

; 2372 : 		}

  00c04	e9 70 ff ff ff	 jmp	 $LN40@BattleSetW
$LN41@BattleSetW:

; 2373 : 		for( i = 5 ; i < 10 ; i++ )	{

  00c09	c7 85 ec fe ff
	ff 05 00 00 00	 mov	 DWORD PTR _i$[ebp], 5
  00c13	eb 0f		 jmp	 SHORT $LN45@BattleSetW
$LN43@BattleSetW:
  00c15	8b 85 ec fe ff
	ff		 mov	 eax, DWORD PTR _i$[ebp]
  00c1b	83 c0 01	 add	 eax, 1
  00c1e	89 85 ec fe ff
	ff		 mov	 DWORD PTR _i$[ebp], eax
$LN45@BattleSetW:
  00c24	83 bd ec fe ff
	ff 0a		 cmp	 DWORD PTR _i$[ebp], 10	; 0000000aH
  00c2b	7d 78		 jge	 SHORT $LN44@BattleSetW

; 2374 : 			if( p_party[i]->func == NULL )	continue;

  00c2d	8b 85 ec fe ff
	ff		 mov	 eax, DWORD PTR _i$[ebp]
  00c33	8b 0c 85 00 00
	00 00		 mov	 ecx, DWORD PTR ?p_party@@3PAPAUaction@@A[eax*4]
  00c3a	83 79 08 00	 cmp	 DWORD PTR [ecx+8], 0
  00c3e	75 02		 jne	 SHORT $LN146@BattleSetW
  00c40	eb d3		 jmp	 SHORT $LN43@BattleSetW
$LN146@BattleSetW:

; 2375 : 			//if( FALSE == magic[BattleJujutuNo].deadTargetFlag )
; 2376 : 			if( p_party[i]->hp <= 0 ) continue;

  00c42	8b 85 ec fe ff
	ff		 mov	 eax, DWORD PTR _i$[ebp]
  00c48	8b 0c 85 00 00
	00 00		 mov	 ecx, DWORD PTR ?p_party@@3PAPAUaction@@A[eax*4]
  00c4f	83 79 78 00	 cmp	 DWORD PTR [ecx+120], 0
  00c53	7f 02		 jg	 SHORT $LN147@BattleSetW
  00c55	eb be		 jmp	 SHORT $LN43@BattleSetW
$LN147@BattleSetW:

; 2377 : 			if( p_party[i]->atr & ACT_ATR_TRAVEL )	continue;

  00c57	8b 85 ec fe ff
	ff		 mov	 eax, DWORD PTR _i$[ebp]
  00c5d	8b 0c 85 00 00
	00 00		 mov	 ecx, DWORD PTR ?p_party@@3PAPAUaction@@A[eax*4]
  00c64	8b 91 a4 00 00
	00		 mov	 edx, DWORD PTR [ecx+164]
  00c6a	81 e2 00 00 02
	00		 and	 edx, 131072		; 00020000H
  00c70	74 02		 je	 SHORT $LN148@BattleSetW
  00c72	eb a1		 jmp	 SHORT $LN43@BattleSetW
$LN148@BattleSetW:

; 2378 : 			// 右下第一列
; 2379 : 			p_party[i]->atr |= ACT_ATR_HIT_BOX_COL7;

  00c74	8b 85 ec fe ff
	ff		 mov	 eax, DWORD PTR _i$[ebp]
  00c7a	8b 0c 85 00 00
	00 00		 mov	 ecx, DWORD PTR ?p_party@@3PAPAUaction@@A[eax*4]
  00c81	8b 91 a4 00 00
	00		 mov	 edx, DWORD PTR [ecx+164]
  00c87	81 ca 00 00 00
	01		 or	 edx, 16777216		; 01000000H
  00c8d	8b 85 ec fe ff
	ff		 mov	 eax, DWORD PTR _i$[ebp]
  00c93	8b 0c 85 00 00
	00 00		 mov	 ecx, DWORD PTR ?p_party@@3PAPAUaction@@A[eax*4]
  00c9a	89 91 a4 00 00
	00		 mov	 DWORD PTR [ecx+164], edx

; 2380 : 		}

  00ca0	e9 70 ff ff ff	 jmp	 $LN43@BattleSetW
$LN44@BattleSetW:

; 2381 : 		for( i = 10 ; i < 15 ; i++ ) {

  00ca5	c7 85 ec fe ff
	ff 0a 00 00 00	 mov	 DWORD PTR _i$[ebp], 10	; 0000000aH
  00caf	eb 0f		 jmp	 SHORT $LN48@BattleSetW
$LN46@BattleSetW:
  00cb1	8b 85 ec fe ff
	ff		 mov	 eax, DWORD PTR _i$[ebp]
  00cb7	83 c0 01	 add	 eax, 1
  00cba	89 85 ec fe ff
	ff		 mov	 DWORD PTR _i$[ebp], eax
$LN48@BattleSetW:
  00cc0	83 bd ec fe ff
	ff 0f		 cmp	 DWORD PTR _i$[ebp], 15	; 0000000fH
  00cc7	7d 78		 jge	 SHORT $LN47@BattleSetW

; 2382 : 			if( p_party[i]->func == NULL )	continue;

  00cc9	8b 85 ec fe ff
	ff		 mov	 eax, DWORD PTR _i$[ebp]
  00ccf	8b 0c 85 00 00
	00 00		 mov	 ecx, DWORD PTR ?p_party@@3PAPAUaction@@A[eax*4]
  00cd6	83 79 08 00	 cmp	 DWORD PTR [ecx+8], 0
  00cda	75 02		 jne	 SHORT $LN149@BattleSetW
  00cdc	eb d3		 jmp	 SHORT $LN46@BattleSetW
$LN149@BattleSetW:

; 2383 : 			//if( FALSE == magic[BattleJujutuNo].deadTargetFlag )
; 2384 : 			if( p_party[i]->hp <= 0 ) continue;

  00cde	8b 85 ec fe ff
	ff		 mov	 eax, DWORD PTR _i$[ebp]
  00ce4	8b 0c 85 00 00
	00 00		 mov	 ecx, DWORD PTR ?p_party@@3PAPAUaction@@A[eax*4]
  00ceb	83 79 78 00	 cmp	 DWORD PTR [ecx+120], 0
  00cef	7f 02		 jg	 SHORT $LN150@BattleSetW
  00cf1	eb be		 jmp	 SHORT $LN46@BattleSetW
$LN150@BattleSetW:

; 2385 : 			if( p_party[i]->atr & ACT_ATR_TRAVEL ) continue;

  00cf3	8b 85 ec fe ff
	ff		 mov	 eax, DWORD PTR _i$[ebp]
  00cf9	8b 0c 85 00 00
	00 00		 mov	 ecx, DWORD PTR ?p_party@@3PAPAUaction@@A[eax*4]
  00d00	8b 91 a4 00 00
	00		 mov	 edx, DWORD PTR [ecx+164]
  00d06	81 e2 00 00 02
	00		 and	 edx, 131072		; 00020000H
  00d0c	74 02		 je	 SHORT $LN151@BattleSetW
  00d0e	eb a1		 jmp	 SHORT $LN46@BattleSetW
$LN151@BattleSetW:

; 2386 : 			// 左上第一列
; 2387 : 			p_party[i]->atr |= ACT_ATR_HIT_BOX_COL5;

  00d10	8b 85 ec fe ff
	ff		 mov	 eax, DWORD PTR _i$[ebp]
  00d16	8b 0c 85 00 00
	00 00		 mov	 ecx, DWORD PTR ?p_party@@3PAPAUaction@@A[eax*4]
  00d1d	8b 91 a4 00 00
	00		 mov	 edx, DWORD PTR [ecx+164]
  00d23	81 ca 00 00 40
	00		 or	 edx, 4194304		; 00400000H
  00d29	8b 85 ec fe ff
	ff		 mov	 eax, DWORD PTR _i$[ebp]
  00d2f	8b 0c 85 00 00
	00 00		 mov	 ecx, DWORD PTR ?p_party@@3PAPAUaction@@A[eax*4]
  00d36	89 91 a4 00 00
	00		 mov	 DWORD PTR [ecx+164], edx

; 2388 : 		}

  00d3c	e9 70 ff ff ff	 jmp	 $LN46@BattleSetW
$LN47@BattleSetW:

; 2389 : 		for( i = 15 ; i < 20 ; i++ ) {

  00d41	c7 85 ec fe ff
	ff 0f 00 00 00	 mov	 DWORD PTR _i$[ebp], 15	; 0000000fH
  00d4b	eb 0f		 jmp	 SHORT $LN51@BattleSetW
$LN49@BattleSetW:
  00d4d	8b 85 ec fe ff
	ff		 mov	 eax, DWORD PTR _i$[ebp]
  00d53	83 c0 01	 add	 eax, 1
  00d56	89 85 ec fe ff
	ff		 mov	 DWORD PTR _i$[ebp], eax
$LN51@BattleSetW:
  00d5c	83 bd ec fe ff
	ff 14		 cmp	 DWORD PTR _i$[ebp], 20	; 00000014H
  00d63	7d 78		 jge	 SHORT $LN50@BattleSetW

; 2390 : 			if( p_party[i]->func == NULL ) continue;

  00d65	8b 85 ec fe ff
	ff		 mov	 eax, DWORD PTR _i$[ebp]
  00d6b	8b 0c 85 00 00
	00 00		 mov	 ecx, DWORD PTR ?p_party@@3PAPAUaction@@A[eax*4]
  00d72	83 79 08 00	 cmp	 DWORD PTR [ecx+8], 0
  00d76	75 02		 jne	 SHORT $LN152@BattleSetW
  00d78	eb d3		 jmp	 SHORT $LN49@BattleSetW
$LN152@BattleSetW:

; 2391 : 			//if( FALSE == magic[BattleJujutuNo].deadTargetFlag )
; 2392 : 			if( p_party[i]->hp <= 0 ) continue;

  00d7a	8b 85 ec fe ff
	ff		 mov	 eax, DWORD PTR _i$[ebp]
  00d80	8b 0c 85 00 00
	00 00		 mov	 ecx, DWORD PTR ?p_party@@3PAPAUaction@@A[eax*4]
  00d87	83 79 78 00	 cmp	 DWORD PTR [ecx+120], 0
  00d8b	7f 02		 jg	 SHORT $LN153@BattleSetW
  00d8d	eb be		 jmp	 SHORT $LN49@BattleSetW
$LN153@BattleSetW:

; 2393 : 			if( p_party[i]->atr & ACT_ATR_TRAVEL )	continue;

  00d8f	8b 85 ec fe ff
	ff		 mov	 eax, DWORD PTR _i$[ebp]
  00d95	8b 0c 85 00 00
	00 00		 mov	 ecx, DWORD PTR ?p_party@@3PAPAUaction@@A[eax*4]
  00d9c	8b 91 a4 00 00
	00		 mov	 edx, DWORD PTR [ecx+164]
  00da2	81 e2 00 00 02
	00		 and	 edx, 131072		; 00020000H
  00da8	74 02		 je	 SHORT $LN154@BattleSetW
  00daa	eb a1		 jmp	 SHORT $LN49@BattleSetW
$LN154@BattleSetW:

; 2394 : 			// 左上第二列
; 2395 : 			p_party[i]->atr |= ACT_ATR_HIT_BOX_COL6;

  00dac	8b 85 ec fe ff
	ff		 mov	 eax, DWORD PTR _i$[ebp]
  00db2	8b 0c 85 00 00
	00 00		 mov	 ecx, DWORD PTR ?p_party@@3PAPAUaction@@A[eax*4]
  00db9	8b 91 a4 00 00
	00		 mov	 edx, DWORD PTR [ecx+164]
  00dbf	81 ca 00 00 80
	00		 or	 edx, 8388608		; 00800000H
  00dc5	8b 85 ec fe ff
	ff		 mov	 eax, DWORD PTR _i$[ebp]
  00dcb	8b 0c 85 00 00
	00 00		 mov	 ecx, DWORD PTR ?p_party@@3PAPAUaction@@A[eax*4]
  00dd2	89 91 a4 00 00
	00		 mov	 DWORD PTR [ecx+164], edx

; 2396 : 		}

  00dd8	e9 70 ff ff ff	 jmp	 $LN49@BattleSetW
$LN50@BattleSetW:

; 2397 : //		if ( typeflag == 0 )
; 2398 : 			battleTargetSelectFlag = TRUE;

  00ddd	c7 05 00 00 00
	00 01 00 00 00	 mov	 DWORD PTR ?battleTargetSelectFlag@@3HA, 1

; 2399 : 		DeathAction( pActWnd );

  00de7	a1 00 00 00 00	 mov	 eax, DWORD PTR ?pActWnd@@3PAUaction@@A
  00dec	50		 push	 eax
  00ded	e8 00 00 00 00	 call	 ?DeathAction@@YAXPAUaction@@@Z ; DeathAction
  00df2	83 c4 04	 add	 esp, 4

; 2400 : 		pActWnd = NULL;

  00df5	c7 05 00 00 00
	00 00 00 00 00	 mov	 DWORD PTR ?pActWnd@@3PAUaction@@A, 0

; 2401 : 		ClearBattleButton();

  00dff	e8 00 00 00 00	 call	 ?ClearBattleButton@@YAXXZ ; ClearBattleButton

; 2402 : 		if ( typeflag == 1 )

  00e04	83 7d 0c 01	 cmp	 DWORD PTR _typeflag$[ebp], 1
  00e08	75 0c		 jne	 SHORT $LN155@BattleSetW

; 2403 : 			BattleCmdNo = BATTLE_PROWAZA;

  00e0a	c7 05 00 00 00
	00 05 00 00 00	 mov	 DWORD PTR ?BattleCmdNo@@3HA, 5 ; BattleCmdNo

; 2404 : 		else

  00e14	eb 0a		 jmp	 SHORT $LN156@BattleSetW
$LN155@BattleSetW:

; 2405 : 			BattleCmdNo = BATTLE_WAZA;

  00e16	c7 05 00 00 00
	00 04 00 00 00	 mov	 DWORD PTR ?BattleCmdNo@@3HA, 4 ; BattleCmdNo
$LN156@BattleSetW:

; 2406 : 		play_se( 217, 320, 240 );

  00e20	68 f0 00 00 00	 push	 240			; 000000f0H
  00e25	68 40 01 00 00	 push	 320			; 00000140H
  00e2a	68 d9 00 00 00	 push	 217			; 000000d9H
  00e2f	e8 00 00 00 00	 call	 ?play_se@@YAHHHH@Z	; play_se
  00e34	83 c4 0c	 add	 esp, 12			; 0000000cH

; 2407 : 		if ( typeflag != 1 )

  00e37	83 7d 0c 01	 cmp	 DWORD PTR _typeflag$[ebp], 1
  00e3b	74 08		 je	 SHORT $LN157@BattleSetW

; 2408 : 			battleWazaTargetBak = no;

  00e3d	8b 45 08	 mov	 eax, DWORD PTR _no$[ebp]
  00e40	a3 00 00 00 00	 mov	 DWORD PTR ?battleWazaTargetBak@@3HA, eax ; battleWazaTargetBak
$LN157@BattleSetW:

; 2409 : 		break;

  00e45	e9 dd 05 00 00	 jmp	 $LN1@BattleSetW
$LN158@BattleSetW:

; 2410 : #endif
; 2411 : 	case PETSKILL_TARGET_ONE_LINE:
; 2412 : 		for( i = 0 ; i < 5 ; i++ )	{

  00e4a	c7 85 ec fe ff
	ff 00 00 00 00	 mov	 DWORD PTR _i$[ebp], 0
  00e54	eb 0f		 jmp	 SHORT $LN54@BattleSetW
$LN52@BattleSetW:
  00e56	8b 85 ec fe ff
	ff		 mov	 eax, DWORD PTR _i$[ebp]
  00e5c	83 c0 01	 add	 eax, 1
  00e5f	89 85 ec fe ff
	ff		 mov	 DWORD PTR _i$[ebp], eax
$LN54@BattleSetW:
  00e65	83 bd ec fe ff
	ff 05		 cmp	 DWORD PTR _i$[ebp], 5
  00e6c	0f 8d 9e 00 00
	00		 jge	 $LN53@BattleSetW

; 2413 : 			if( p_party[i]->func == NULL )	continue;

  00e72	8b 85 ec fe ff
	ff		 mov	 eax, DWORD PTR _i$[ebp]
  00e78	8b 0c 85 00 00
	00 00		 mov	 ecx, DWORD PTR ?p_party@@3PAPAUaction@@A[eax*4]
  00e7f	83 79 08 00	 cmp	 DWORD PTR [ecx+8], 0
  00e83	75 02		 jne	 SHORT $LN159@BattleSetW
  00e85	eb cf		 jmp	 SHORT $LN52@BattleSetW
$LN159@BattleSetW:

; 2414 : 			if( p_party[i]->hp <= 0 ) continue;

  00e87	8b 85 ec fe ff
	ff		 mov	 eax, DWORD PTR _i$[ebp]
  00e8d	8b 0c 85 00 00
	00 00		 mov	 ecx, DWORD PTR ?p_party@@3PAPAUaction@@A[eax*4]
  00e94	83 79 78 00	 cmp	 DWORD PTR [ecx+120], 0
  00e98	7f 02		 jg	 SHORT $LN160@BattleSetW
  00e9a	eb ba		 jmp	 SHORT $LN52@BattleSetW
$LN160@BattleSetW:

; 2415 : 			if( p_party[i]->atr & ACT_ATR_TRAVEL )	continue;

  00e9c	8b 85 ec fe ff
	ff		 mov	 eax, DWORD PTR _i$[ebp]
  00ea2	8b 0c 85 00 00
	00 00		 mov	 ecx, DWORD PTR ?p_party@@3PAPAUaction@@A[eax*4]
  00ea9	8b 91 a4 00 00
	00		 mov	 edx, DWORD PTR [ecx+164]
  00eaf	81 e2 00 00 02
	00		 and	 edx, 131072		; 00020000H
  00eb5	74 02		 je	 SHORT $LN161@BattleSetW
  00eb7	eb 9d		 jmp	 SHORT $LN52@BattleSetW
$LN161@BattleSetW:

; 2416 : 			// 右下第二列
; 2417 : 			p_party[i]->atr |= ACT_ATR_HIT_BOX;

  00eb9	8b 85 ec fe ff
	ff		 mov	 eax, DWORD PTR _i$[ebp]
  00ebf	8b 0c 85 00 00
	00 00		 mov	 ecx, DWORD PTR ?p_party@@3PAPAUaction@@A[eax*4]
  00ec6	8b 91 a4 00 00
	00		 mov	 edx, DWORD PTR [ecx+164]
  00ecc	83 ca 08	 or	 edx, 8
  00ecf	8b 85 ec fe ff
	ff		 mov	 eax, DWORD PTR _i$[ebp]
  00ed5	8b 0c 85 00 00
	00 00		 mov	 ecx, DWORD PTR ?p_party@@3PAPAUaction@@A[eax*4]
  00edc	89 91 a4 00 00
	00		 mov	 DWORD PTR [ecx+164], edx

; 2418 : 			p_party[i+5]->atr |= ACT_ATR_HIT_BOX;

  00ee2	8b 85 ec fe ff
	ff		 mov	 eax, DWORD PTR _i$[ebp]
  00ee8	8b 0c 85 14 00
	00 00		 mov	 ecx, DWORD PTR ?p_party@@3PAPAUaction@@A[eax*4+20]
  00eef	8b 91 a4 00 00
	00		 mov	 edx, DWORD PTR [ecx+164]
  00ef5	83 ca 08	 or	 edx, 8
  00ef8	8b 85 ec fe ff
	ff		 mov	 eax, DWORD PTR _i$[ebp]
  00efe	8b 0c 85 14 00
	00 00		 mov	 ecx, DWORD PTR ?p_party@@3PAPAUaction@@A[eax*4+20]
  00f05	89 91 a4 00 00
	00		 mov	 DWORD PTR [ecx+164], edx

; 2419 : 		}

  00f0b	e9 46 ff ff ff	 jmp	 $LN52@BattleSetW
$LN53@BattleSetW:

; 2420 : 		for( i = 5 ; i < 10 ; i++ )	{

  00f10	c7 85 ec fe ff
	ff 05 00 00 00	 mov	 DWORD PTR _i$[ebp], 5
  00f1a	eb 0f		 jmp	 SHORT $LN57@BattleSetW
$LN55@BattleSetW:
  00f1c	8b 85 ec fe ff
	ff		 mov	 eax, DWORD PTR _i$[ebp]
  00f22	83 c0 01	 add	 eax, 1
  00f25	89 85 ec fe ff
	ff		 mov	 DWORD PTR _i$[ebp], eax
$LN57@BattleSetW:
  00f2b	83 bd ec fe ff
	ff 0a		 cmp	 DWORD PTR _i$[ebp], 10	; 0000000aH
  00f32	0f 8d 9e 00 00
	00		 jge	 $LN56@BattleSetW

; 2421 : 			if( p_party[i]->func == NULL )	continue;

  00f38	8b 85 ec fe ff
	ff		 mov	 eax, DWORD PTR _i$[ebp]
  00f3e	8b 0c 85 00 00
	00 00		 mov	 ecx, DWORD PTR ?p_party@@3PAPAUaction@@A[eax*4]
  00f45	83 79 08 00	 cmp	 DWORD PTR [ecx+8], 0
  00f49	75 02		 jne	 SHORT $LN162@BattleSetW
  00f4b	eb cf		 jmp	 SHORT $LN55@BattleSetW
$LN162@BattleSetW:

; 2422 : 			//if( FALSE == magic[BattleJujutuNo].deadTargetFlag )
; 2423 : 			if( p_party[i]->hp <= 0 ) continue;

  00f4d	8b 85 ec fe ff
	ff		 mov	 eax, DWORD PTR _i$[ebp]
  00f53	8b 0c 85 00 00
	00 00		 mov	 ecx, DWORD PTR ?p_party@@3PAPAUaction@@A[eax*4]
  00f5a	83 79 78 00	 cmp	 DWORD PTR [ecx+120], 0
  00f5e	7f 02		 jg	 SHORT $LN163@BattleSetW
  00f60	eb ba		 jmp	 SHORT $LN55@BattleSetW
$LN163@BattleSetW:

; 2424 : 			if( p_party[i]->atr & ACT_ATR_TRAVEL )	continue;

  00f62	8b 85 ec fe ff
	ff		 mov	 eax, DWORD PTR _i$[ebp]
  00f68	8b 0c 85 00 00
	00 00		 mov	 ecx, DWORD PTR ?p_party@@3PAPAUaction@@A[eax*4]
  00f6f	8b 91 a4 00 00
	00		 mov	 edx, DWORD PTR [ecx+164]
  00f75	81 e2 00 00 02
	00		 and	 edx, 131072		; 00020000H
  00f7b	74 02		 je	 SHORT $LN164@BattleSetW
  00f7d	eb 9d		 jmp	 SHORT $LN55@BattleSetW
$LN164@BattleSetW:

; 2425 : 			// 右下第一列
; 2426 : 			p_party[i]->atr |= ACT_ATR_HIT_BOX;

  00f7f	8b 85 ec fe ff
	ff		 mov	 eax, DWORD PTR _i$[ebp]
  00f85	8b 0c 85 00 00
	00 00		 mov	 ecx, DWORD PTR ?p_party@@3PAPAUaction@@A[eax*4]
  00f8c	8b 91 a4 00 00
	00		 mov	 edx, DWORD PTR [ecx+164]
  00f92	83 ca 08	 or	 edx, 8
  00f95	8b 85 ec fe ff
	ff		 mov	 eax, DWORD PTR _i$[ebp]
  00f9b	8b 0c 85 00 00
	00 00		 mov	 ecx, DWORD PTR ?p_party@@3PAPAUaction@@A[eax*4]
  00fa2	89 91 a4 00 00
	00		 mov	 DWORD PTR [ecx+164], edx

; 2427 : 			p_party[i-5]->atr |= ACT_ATR_HIT_BOX;

  00fa8	8b 85 ec fe ff
	ff		 mov	 eax, DWORD PTR _i$[ebp]
  00fae	8b 0c 85 ec ff
	ff ff		 mov	 ecx, DWORD PTR ?p_party@@3PAPAUaction@@A[eax*4-20]
  00fb5	8b 91 a4 00 00
	00		 mov	 edx, DWORD PTR [ecx+164]
  00fbb	83 ca 08	 or	 edx, 8
  00fbe	8b 85 ec fe ff
	ff		 mov	 eax, DWORD PTR _i$[ebp]
  00fc4	8b 0c 85 ec ff
	ff ff		 mov	 ecx, DWORD PTR ?p_party@@3PAPAUaction@@A[eax*4-20]
  00fcb	89 91 a4 00 00
	00		 mov	 DWORD PTR [ecx+164], edx

; 2428 : 
; 2429 : 		}

  00fd1	e9 46 ff ff ff	 jmp	 $LN55@BattleSetW
$LN56@BattleSetW:

; 2430 : 		for( i = 10 ; i < 15 ; i++ ) {

  00fd6	c7 85 ec fe ff
	ff 0a 00 00 00	 mov	 DWORD PTR _i$[ebp], 10	; 0000000aH
  00fe0	eb 0f		 jmp	 SHORT $LN60@BattleSetW
$LN58@BattleSetW:
  00fe2	8b 85 ec fe ff
	ff		 mov	 eax, DWORD PTR _i$[ebp]
  00fe8	83 c0 01	 add	 eax, 1
  00feb	89 85 ec fe ff
	ff		 mov	 DWORD PTR _i$[ebp], eax
$LN60@BattleSetW:
  00ff1	83 bd ec fe ff
	ff 0f		 cmp	 DWORD PTR _i$[ebp], 15	; 0000000fH
  00ff8	0f 8d 9e 00 00
	00		 jge	 $LN59@BattleSetW

; 2431 : 			if( p_party[i]->func == NULL )	continue;

  00ffe	8b 85 ec fe ff
	ff		 mov	 eax, DWORD PTR _i$[ebp]
  01004	8b 0c 85 00 00
	00 00		 mov	 ecx, DWORD PTR ?p_party@@3PAPAUaction@@A[eax*4]
  0100b	83 79 08 00	 cmp	 DWORD PTR [ecx+8], 0
  0100f	75 02		 jne	 SHORT $LN165@BattleSetW
  01011	eb cf		 jmp	 SHORT $LN58@BattleSetW
$LN165@BattleSetW:

; 2432 : 			//if( FALSE == magic[BattleJujutuNo].deadTargetFlag )
; 2433 : 			if( p_party[i]->hp <= 0 ) continue;

  01013	8b 85 ec fe ff
	ff		 mov	 eax, DWORD PTR _i$[ebp]
  01019	8b 0c 85 00 00
	00 00		 mov	 ecx, DWORD PTR ?p_party@@3PAPAUaction@@A[eax*4]
  01020	83 79 78 00	 cmp	 DWORD PTR [ecx+120], 0
  01024	7f 02		 jg	 SHORT $LN166@BattleSetW
  01026	eb ba		 jmp	 SHORT $LN58@BattleSetW
$LN166@BattleSetW:

; 2434 : 			if( p_party[i]->atr & ACT_ATR_TRAVEL ) continue;

  01028	8b 85 ec fe ff
	ff		 mov	 eax, DWORD PTR _i$[ebp]
  0102e	8b 0c 85 00 00
	00 00		 mov	 ecx, DWORD PTR ?p_party@@3PAPAUaction@@A[eax*4]
  01035	8b 91 a4 00 00
	00		 mov	 edx, DWORD PTR [ecx+164]
  0103b	81 e2 00 00 02
	00		 and	 edx, 131072		; 00020000H
  01041	74 02		 je	 SHORT $LN167@BattleSetW
  01043	eb 9d		 jmp	 SHORT $LN58@BattleSetW
$LN167@BattleSetW:

; 2435 : 			// 左上第一列
; 2436 : 			p_party[i]->atr |= ACT_ATR_HIT_BOX;

  01045	8b 85 ec fe ff
	ff		 mov	 eax, DWORD PTR _i$[ebp]
  0104b	8b 0c 85 00 00
	00 00		 mov	 ecx, DWORD PTR ?p_party@@3PAPAUaction@@A[eax*4]
  01052	8b 91 a4 00 00
	00		 mov	 edx, DWORD PTR [ecx+164]
  01058	83 ca 08	 or	 edx, 8
  0105b	8b 85 ec fe ff
	ff		 mov	 eax, DWORD PTR _i$[ebp]
  01061	8b 0c 85 00 00
	00 00		 mov	 ecx, DWORD PTR ?p_party@@3PAPAUaction@@A[eax*4]
  01068	89 91 a4 00 00
	00		 mov	 DWORD PTR [ecx+164], edx

; 2437 : 			p_party[i+5]->atr |= ACT_ATR_HIT_BOX;

  0106e	8b 85 ec fe ff
	ff		 mov	 eax, DWORD PTR _i$[ebp]
  01074	8b 0c 85 14 00
	00 00		 mov	 ecx, DWORD PTR ?p_party@@3PAPAUaction@@A[eax*4+20]
  0107b	8b 91 a4 00 00
	00		 mov	 edx, DWORD PTR [ecx+164]
  01081	83 ca 08	 or	 edx, 8
  01084	8b 85 ec fe ff
	ff		 mov	 eax, DWORD PTR _i$[ebp]
  0108a	8b 0c 85 14 00
	00 00		 mov	 ecx, DWORD PTR ?p_party@@3PAPAUaction@@A[eax*4+20]
  01091	89 91 a4 00 00
	00		 mov	 DWORD PTR [ecx+164], edx

; 2438 : 
; 2439 : 		}

  01097	e9 46 ff ff ff	 jmp	 $LN58@BattleSetW
$LN59@BattleSetW:

; 2440 : 		for( i = 15 ; i < 20 ; i++ ) {

  0109c	c7 85 ec fe ff
	ff 0f 00 00 00	 mov	 DWORD PTR _i$[ebp], 15	; 0000000fH
  010a6	eb 0f		 jmp	 SHORT $LN63@BattleSetW
$LN61@BattleSetW:
  010a8	8b 85 ec fe ff
	ff		 mov	 eax, DWORD PTR _i$[ebp]
  010ae	83 c0 01	 add	 eax, 1
  010b1	89 85 ec fe ff
	ff		 mov	 DWORD PTR _i$[ebp], eax
$LN63@BattleSetW:
  010b7	83 bd ec fe ff
	ff 14		 cmp	 DWORD PTR _i$[ebp], 20	; 00000014H
  010be	7d 7a		 jge	 SHORT $LN62@BattleSetW

; 2441 : 			if( p_party[i]->func == NULL ) continue;

  010c0	8b 85 ec fe ff
	ff		 mov	 eax, DWORD PTR _i$[ebp]
  010c6	8b 0c 85 00 00
	00 00		 mov	 ecx, DWORD PTR ?p_party@@3PAPAUaction@@A[eax*4]
  010cd	83 79 08 00	 cmp	 DWORD PTR [ecx+8], 0
  010d1	75 02		 jne	 SHORT $LN168@BattleSetW
  010d3	eb d3		 jmp	 SHORT $LN61@BattleSetW
$LN168@BattleSetW:

; 2442 : 			//if( FALSE == magic[BattleJujutuNo].deadTargetFlag )
; 2443 : 			if( p_party[i]->hp <= 0 ) continue;

  010d5	8b 85 ec fe ff
	ff		 mov	 eax, DWORD PTR _i$[ebp]
  010db	8b 0c 85 00 00
	00 00		 mov	 ecx, DWORD PTR ?p_party@@3PAPAUaction@@A[eax*4]
  010e2	83 79 78 00	 cmp	 DWORD PTR [ecx+120], 0
  010e6	7f 02		 jg	 SHORT $LN169@BattleSetW
  010e8	eb be		 jmp	 SHORT $LN61@BattleSetW
$LN169@BattleSetW:

; 2444 : 			if( p_party[i]->atr & ACT_ATR_TRAVEL )	continue;

  010ea	8b 85 ec fe ff
	ff		 mov	 eax, DWORD PTR _i$[ebp]
  010f0	8b 0c 85 00 00
	00 00		 mov	 ecx, DWORD PTR ?p_party@@3PAPAUaction@@A[eax*4]
  010f7	8b 91 a4 00 00
	00		 mov	 edx, DWORD PTR [ecx+164]
  010fd	81 e2 00 00 02
	00		 and	 edx, 131072		; 00020000H
  01103	74 02		 je	 SHORT $LN170@BattleSetW
  01105	eb a1		 jmp	 SHORT $LN61@BattleSetW
$LN170@BattleSetW:

; 2445 : 			// 左上第二列
; 2446 : 			p_party[i]->atr = ACT_ATR_HIT_BOX;

  01107	8b 85 ec fe ff
	ff		 mov	 eax, DWORD PTR _i$[ebp]
  0110d	8b 0c 85 00 00
	00 00		 mov	 ecx, DWORD PTR ?p_party@@3PAPAUaction@@A[eax*4]
  01114	c7 81 a4 00 00
	00 08 00 00 00	 mov	 DWORD PTR [ecx+164], 8

; 2447 : 			p_party[i-5]->atr = ACT_ATR_HIT_BOX;

  0111e	8b 85 ec fe ff
	ff		 mov	 eax, DWORD PTR _i$[ebp]
  01124	8b 0c 85 ec ff
	ff ff		 mov	 ecx, DWORD PTR ?p_party@@3PAPAUaction@@A[eax*4-20]
  0112b	c7 81 a4 00 00
	00 08 00 00 00	 mov	 DWORD PTR [ecx+164], 8

; 2448 : 
; 2449 : 		}

  01135	e9 6e ff ff ff	 jmp	 $LN61@BattleSetW
$LN62@BattleSetW:

; 2450 : //		if ( typeflag == 0 )
; 2451 : 			battleTargetSelectFlag = TRUE;

  0113a	c7 05 00 00 00
	00 01 00 00 00	 mov	 DWORD PTR ?battleTargetSelectFlag@@3HA, 1

; 2452 : 		DeathAction( pActWnd );

  01144	a1 00 00 00 00	 mov	 eax, DWORD PTR ?pActWnd@@3PAUaction@@A
  01149	50		 push	 eax
  0114a	e8 00 00 00 00	 call	 ?DeathAction@@YAXPAUaction@@@Z ; DeathAction
  0114f	83 c4 04	 add	 esp, 4

; 2453 : 		pActWnd = NULL;

  01152	c7 05 00 00 00
	00 00 00 00 00	 mov	 DWORD PTR ?pActWnd@@3PAUaction@@A, 0

; 2454 : 		ClearBattleButton();

  0115c	e8 00 00 00 00	 call	 ?ClearBattleButton@@YAXXZ ; ClearBattleButton

; 2455 : 		if ( typeflag == 1 )

  01161	83 7d 0c 01	 cmp	 DWORD PTR _typeflag$[ebp], 1
  01165	75 0c		 jne	 SHORT $LN171@BattleSetW

; 2456 : 			BattleCmdNo = BATTLE_PROWAZA;

  01167	c7 05 00 00 00
	00 05 00 00 00	 mov	 DWORD PTR ?BattleCmdNo@@3HA, 5 ; BattleCmdNo

; 2457 : 		else

  01171	eb 0a		 jmp	 SHORT $LN172@BattleSetW
$LN171@BattleSetW:

; 2458 : 			BattleCmdNo = BATTLE_WAZA;

  01173	c7 05 00 00 00
	00 04 00 00 00	 mov	 DWORD PTR ?BattleCmdNo@@3HA, 4 ; BattleCmdNo
$LN172@BattleSetW:

; 2459 : 		play_se( 217, 320, 240 );

  0117d	68 f0 00 00 00	 push	 240			; 000000f0H
  01182	68 40 01 00 00	 push	 320			; 00000140H
  01187	68 d9 00 00 00	 push	 217			; 000000d9H
  0118c	e8 00 00 00 00	 call	 ?play_se@@YAHHHH@Z	; play_se
  01191	83 c4 0c	 add	 esp, 12			; 0000000cH

; 2460 : 		battleWazaTargetBak = no;

  01194	8b 45 08	 mov	 eax, DWORD PTR _no$[ebp]
  01197	a3 00 00 00 00	 mov	 DWORD PTR ?battleWazaTargetBak@@3HA, eax ; battleWazaTargetBak

; 2461 : 		break;

  0119c	e9 86 02 00 00	 jmp	 $LN1@BattleSetW
$LN173@BattleSetW:

; 2462 : 	case PETSKILL_TARGER_DEATH:
; 2463 : 		for( i = 0 ; i < 20 ; i++ ){

  011a1	c7 85 ec fe ff
	ff 00 00 00 00	 mov	 DWORD PTR _i$[ebp], 0
  011ab	eb 0f		 jmp	 SHORT $LN66@BattleSetW
$LN64@BattleSetW:
  011ad	8b 85 ec fe ff
	ff		 mov	 eax, DWORD PTR _i$[ebp]
  011b3	83 c0 01	 add	 eax, 1
  011b6	89 85 ec fe ff
	ff		 mov	 DWORD PTR _i$[ebp], eax
$LN66@BattleSetW:
  011bc	83 bd ec fe ff
	ff 14		 cmp	 DWORD PTR _i$[ebp], 20	; 00000014H
  011c3	7d 55		 jge	 SHORT $LN65@BattleSetW

; 2464 : 			if( p_party[ i ]->func == NULL ) continue;

  011c5	8b 85 ec fe ff
	ff		 mov	 eax, DWORD PTR _i$[ebp]
  011cb	8b 0c 85 00 00
	00 00		 mov	 ecx, DWORD PTR ?p_party@@3PAPAUaction@@A[eax*4]
  011d2	83 79 08 00	 cmp	 DWORD PTR [ecx+8], 0
  011d6	75 02		 jne	 SHORT $LN174@BattleSetW
  011d8	eb d3		 jmp	 SHORT $LN64@BattleSetW
$LN174@BattleSetW:

; 2465 : 			if( p_party[ i ]->hp > 0 ) continue;

  011da	8b 85 ec fe ff
	ff		 mov	 eax, DWORD PTR _i$[ebp]
  011e0	8b 0c 85 00 00
	00 00		 mov	 ecx, DWORD PTR ?p_party@@3PAPAUaction@@A[eax*4]
  011e7	83 79 78 00	 cmp	 DWORD PTR [ecx+120], 0
  011eb	7e 02		 jle	 SHORT $LN175@BattleSetW
  011ed	eb be		 jmp	 SHORT $LN64@BattleSetW
$LN175@BattleSetW:

; 2466 : 			p_party[ i ]->atr |= ACT_ATR_HIT_BOX;

  011ef	8b 85 ec fe ff
	ff		 mov	 eax, DWORD PTR _i$[ebp]
  011f5	8b 0c 85 00 00
	00 00		 mov	 ecx, DWORD PTR ?p_party@@3PAPAUaction@@A[eax*4]
  011fc	8b 91 a4 00 00
	00		 mov	 edx, DWORD PTR [ecx+164]
  01202	83 ca 08	 or	 edx, 8
  01205	8b 85 ec fe ff
	ff		 mov	 eax, DWORD PTR _i$[ebp]
  0120b	8b 0c 85 00 00
	00 00		 mov	 ecx, DWORD PTR ?p_party@@3PAPAUaction@@A[eax*4]
  01212	89 91 a4 00 00
	00		 mov	 DWORD PTR [ecx+164], edx

; 2467 : 		}

  01218	eb 93		 jmp	 SHORT $LN64@BattleSetW
$LN65@BattleSetW:

; 2468 : //		if ( typeflag == 0 )
; 2469 : 			battleTargetSelectFlag = TRUE;

  0121a	c7 05 00 00 00
	00 01 00 00 00	 mov	 DWORD PTR ?battleTargetSelectFlag@@3HA, 1

; 2470 : 
; 2471 : 		DeathAction( pActWnd );

  01224	a1 00 00 00 00	 mov	 eax, DWORD PTR ?pActWnd@@3PAUaction@@A
  01229	50		 push	 eax
  0122a	e8 00 00 00 00	 call	 ?DeathAction@@YAXPAUaction@@@Z ; DeathAction
  0122f	83 c4 04	 add	 esp, 4

; 2472 : 		pActWnd = NULL;

  01232	c7 05 00 00 00
	00 00 00 00 00	 mov	 DWORD PTR ?pActWnd@@3PAUaction@@A, 0

; 2473 : 
; 2474 : 		ClearBattleButton();

  0123c	e8 00 00 00 00	 call	 ?ClearBattleButton@@YAXXZ ; ClearBattleButton

; 2475 : 
; 2476 : 		if ( typeflag == 1 )

  01241	83 7d 0c 01	 cmp	 DWORD PTR _typeflag$[ebp], 1
  01245	75 0c		 jne	 SHORT $LN176@BattleSetW

; 2477 : 			BattleCmdNo = BATTLE_PROWAZA;

  01247	c7 05 00 00 00
	00 05 00 00 00	 mov	 DWORD PTR ?BattleCmdNo@@3HA, 5 ; BattleCmdNo

; 2478 : 		else

  01251	eb 0a		 jmp	 SHORT $LN177@BattleSetW
$LN176@BattleSetW:

; 2479 : 			BattleCmdNo = BATTLE_WAZA;

  01253	c7 05 00 00 00
	00 04 00 00 00	 mov	 DWORD PTR ?BattleCmdNo@@3HA, 4 ; BattleCmdNo
$LN177@BattleSetW:

; 2480 : 
; 2481 : 		play_se( 217, 320, 240 );

  0125d	68 f0 00 00 00	 push	 240			; 000000f0H
  01262	68 40 01 00 00	 push	 320			; 00000140H
  01267	68 d9 00 00 00	 push	 217			; 000000d9H
  0126c	e8 00 00 00 00	 call	 ?play_se@@YAHHHH@Z	; play_se
  01271	83 c4 0c	 add	 esp, 12			; 0000000cH

; 2482 : 
; 2483 : 		if ( typeflag != 1 )

  01274	83 7d 0c 01	 cmp	 DWORD PTR _typeflag$[ebp], 1
  01278	74 08		 je	 SHORT $LN178@BattleSetW

; 2484 : 			battleWazaTargetBak = no;

  0127a	8b 45 08	 mov	 eax, DWORD PTR _no$[ebp]
  0127d	a3 00 00 00 00	 mov	 DWORD PTR ?battleWazaTargetBak@@3HA, eax ; battleWazaTargetBak
$LN178@BattleSetW:

; 2485 : 
; 2486 : 		break;

  01282	e9 a0 01 00 00	 jmp	 $LN1@BattleSetW
$LN179@BattleSetW:

; 2487 : 	case PETSKILL_TARGET_WHOLEOTHERSIDE:	//我方全部 或 对方全部
; 2488 : 		for (i = 0; i < 10; i++) {

  01287	c7 85 ec fe ff
	ff 00 00 00 00	 mov	 DWORD PTR _i$[ebp], 0
  01291	eb 0f		 jmp	 SHORT $LN69@BattleSetW
$LN67@BattleSetW:
  01293	8b 85 ec fe ff
	ff		 mov	 eax, DWORD PTR _i$[ebp]
  01299	83 c0 01	 add	 eax, 1
  0129c	89 85 ec fe ff
	ff		 mov	 DWORD PTR _i$[ebp], eax
$LN69@BattleSetW:
  012a2	83 bd ec fe ff
	ff 0a		 cmp	 DWORD PTR _i$[ebp], 10	; 0000000aH
  012a9	7d 78		 jge	 SHORT $LN68@BattleSetW

; 2489 : 
; 2490 : 			if (p_party[i]->func == NULL) continue;

  012ab	8b 85 ec fe ff
	ff		 mov	 eax, DWORD PTR _i$[ebp]
  012b1	8b 0c 85 00 00
	00 00		 mov	 ecx, DWORD PTR ?p_party@@3PAPAUaction@@A[eax*4]
  012b8	83 79 08 00	 cmp	 DWORD PTR [ecx+8], 0
  012bc	75 02		 jne	 SHORT $LN180@BattleSetW
  012be	eb d3		 jmp	 SHORT $LN67@BattleSetW
$LN180@BattleSetW:

; 2491 : 			if (p_party[i]->hp <= 0) continue;

  012c0	8b 85 ec fe ff
	ff		 mov	 eax, DWORD PTR _i$[ebp]
  012c6	8b 0c 85 00 00
	00 00		 mov	 ecx, DWORD PTR ?p_party@@3PAPAUaction@@A[eax*4]
  012cd	83 79 78 00	 cmp	 DWORD PTR [ecx+120], 0
  012d1	7f 02		 jg	 SHORT $LN181@BattleSetW
  012d3	eb be		 jmp	 SHORT $LN67@BattleSetW
$LN181@BattleSetW:

; 2492 : 			if (p_party[i]->atr & ACT_ATR_TRAVEL) continue;

  012d5	8b 85 ec fe ff
	ff		 mov	 eax, DWORD PTR _i$[ebp]
  012db	8b 0c 85 00 00
	00 00		 mov	 ecx, DWORD PTR ?p_party@@3PAPAUaction@@A[eax*4]
  012e2	8b 91 a4 00 00
	00		 mov	 edx, DWORD PTR [ecx+164]
  012e8	81 e2 00 00 02
	00		 and	 edx, 131072		; 00020000H
  012ee	74 02		 je	 SHORT $LN182@BattleSetW
  012f0	eb a1		 jmp	 SHORT $LN67@BattleSetW
$LN182@BattleSetW:

; 2493 : 			p_party[i]->atr |= ACT_ATR_HIT_BOX_ALL1;

  012f2	8b 85 ec fe ff
	ff		 mov	 eax, DWORD PTR _i$[ebp]
  012f8	8b 0c 85 00 00
	00 00		 mov	 ecx, DWORD PTR ?p_party@@3PAPAUaction@@A[eax*4]
  012ff	8b 91 a4 00 00
	00		 mov	 edx, DWORD PTR [ecx+164]
  01305	81 ca 00 20 00
	00		 or	 edx, 8192		; 00002000H
  0130b	8b 85 ec fe ff
	ff		 mov	 eax, DWORD PTR _i$[ebp]
  01311	8b 0c 85 00 00
	00 00		 mov	 ecx, DWORD PTR ?p_party@@3PAPAUaction@@A[eax*4]
  01318	89 91 a4 00 00
	00		 mov	 DWORD PTR [ecx+164], edx

; 2494 : 		}

  0131e	e9 70 ff ff ff	 jmp	 $LN67@BattleSetW
$LN68@BattleSetW:

; 2495 : 
; 2496 : 		for (i = 10; i < 20; i++) {

  01323	c7 85 ec fe ff
	ff 0a 00 00 00	 mov	 DWORD PTR _i$[ebp], 10	; 0000000aH
  0132d	eb 0f		 jmp	 SHORT $LN72@BattleSetW
$LN70@BattleSetW:
  0132f	8b 85 ec fe ff
	ff		 mov	 eax, DWORD PTR _i$[ebp]
  01335	83 c0 01	 add	 eax, 1
  01338	89 85 ec fe ff
	ff		 mov	 DWORD PTR _i$[ebp], eax
$LN72@BattleSetW:
  0133e	83 bd ec fe ff
	ff 14		 cmp	 DWORD PTR _i$[ebp], 20	; 00000014H
  01345	7d 78		 jge	 SHORT $LN71@BattleSetW

; 2497 : 
; 2498 : 			if (p_party[i]->func == NULL) continue;

  01347	8b 85 ec fe ff
	ff		 mov	 eax, DWORD PTR _i$[ebp]
  0134d	8b 0c 85 00 00
	00 00		 mov	 ecx, DWORD PTR ?p_party@@3PAPAUaction@@A[eax*4]
  01354	83 79 08 00	 cmp	 DWORD PTR [ecx+8], 0
  01358	75 02		 jne	 SHORT $LN183@BattleSetW
  0135a	eb d3		 jmp	 SHORT $LN70@BattleSetW
$LN183@BattleSetW:

; 2499 : 			if (p_party[i]->hp <= 0) continue;

  0135c	8b 85 ec fe ff
	ff		 mov	 eax, DWORD PTR _i$[ebp]
  01362	8b 0c 85 00 00
	00 00		 mov	 ecx, DWORD PTR ?p_party@@3PAPAUaction@@A[eax*4]
  01369	83 79 78 00	 cmp	 DWORD PTR [ecx+120], 0
  0136d	7f 02		 jg	 SHORT $LN184@BattleSetW
  0136f	eb be		 jmp	 SHORT $LN70@BattleSetW
$LN184@BattleSetW:

; 2500 : 			if (p_party[i]->atr & ACT_ATR_TRAVEL) continue;

  01371	8b 85 ec fe ff
	ff		 mov	 eax, DWORD PTR _i$[ebp]
  01377	8b 0c 85 00 00
	00 00		 mov	 ecx, DWORD PTR ?p_party@@3PAPAUaction@@A[eax*4]
  0137e	8b 91 a4 00 00
	00		 mov	 edx, DWORD PTR [ecx+164]
  01384	81 e2 00 00 02
	00		 and	 edx, 131072		; 00020000H
  0138a	74 02		 je	 SHORT $LN185@BattleSetW
  0138c	eb a1		 jmp	 SHORT $LN70@BattleSetW
$LN185@BattleSetW:

; 2501 : 			p_party[i]->atr |= ACT_ATR_HIT_BOX_ALL2;

  0138e	8b 85 ec fe ff
	ff		 mov	 eax, DWORD PTR _i$[ebp]
  01394	8b 0c 85 00 00
	00 00		 mov	 ecx, DWORD PTR ?p_party@@3PAPAUaction@@A[eax*4]
  0139b	8b 91 a4 00 00
	00		 mov	 edx, DWORD PTR [ecx+164]
  013a1	81 ca 00 40 00
	00		 or	 edx, 16384		; 00004000H
  013a7	8b 85 ec fe ff
	ff		 mov	 eax, DWORD PTR _i$[ebp]
  013ad	8b 0c 85 00 00
	00 00		 mov	 ecx, DWORD PTR ?p_party@@3PAPAUaction@@A[eax*4]
  013b4	89 91 a4 00 00
	00		 mov	 DWORD PTR [ecx+164], edx

; 2502 : 		}

  013ba	e9 70 ff ff ff	 jmp	 $LN70@BattleSetW
$LN71@BattleSetW:

; 2503 : 
; 2504 : 		battleTargetSelectFlag = TRUE;

  013bf	c7 05 00 00 00
	00 01 00 00 00	 mov	 DWORD PTR ?battleTargetSelectFlag@@3HA, 1

; 2505 : 		DeathAction(pActWnd);

  013c9	a1 00 00 00 00	 mov	 eax, DWORD PTR ?pActWnd@@3PAUaction@@A
  013ce	50		 push	 eax
  013cf	e8 00 00 00 00	 call	 ?DeathAction@@YAXPAUaction@@@Z ; DeathAction
  013d4	83 c4 04	 add	 esp, 4

; 2506 : 		pActWnd = NULL;

  013d7	c7 05 00 00 00
	00 00 00 00 00	 mov	 DWORD PTR ?pActWnd@@3PAUaction@@A, 0

; 2507 : 		ClearBattleButton();

  013e1	e8 00 00 00 00	 call	 ?ClearBattleButton@@YAXXZ ; ClearBattleButton

; 2508 : 		if (typeflag == 1)

  013e6	83 7d 0c 01	 cmp	 DWORD PTR _typeflag$[ebp], 1
  013ea	75 0c		 jne	 SHORT $LN186@BattleSetW

; 2509 : 			BattleCmdNo = BATTLE_PROWAZA;

  013ec	c7 05 00 00 00
	00 05 00 00 00	 mov	 DWORD PTR ?BattleCmdNo@@3HA, 5 ; BattleCmdNo

; 2510 : 		else

  013f6	eb 0a		 jmp	 SHORT $LN187@BattleSetW
$LN186@BattleSetW:

; 2511 : 			BattleCmdNo = BATTLE_WAZA;

  013f8	c7 05 00 00 00
	00 04 00 00 00	 mov	 DWORD PTR ?BattleCmdNo@@3HA, 4 ; BattleCmdNo
$LN187@BattleSetW:

; 2512 : 		play_se(217, 320, 240);

  01402	68 f0 00 00 00	 push	 240			; 000000f0H
  01407	68 40 01 00 00	 push	 320			; 00000140H
  0140c	68 d9 00 00 00	 push	 217			; 000000d9H
  01411	e8 00 00 00 00	 call	 ?play_se@@YAHHHH@Z	; play_se
  01416	83 c4 0c	 add	 esp, 12			; 0000000cH

; 2513 : 		if (typeflag != 1)

  01419	83 7d 0c 01	 cmp	 DWORD PTR _typeflag$[ebp], 1
  0141d	74 08		 je	 SHORT $LN1@BattleSetW

; 2514 : 			battleWazaTargetBak = no;

  0141f	8b 45 08	 mov	 eax, DWORD PTR _no$[ebp]
  01422	a3 00 00 00 00	 mov	 DWORD PTR ?battleWazaTargetBak@@3HA, eax ; battleWazaTargetBak
$LN1@BattleSetW:

; 2515 : 		break;
; 2516 : #endif
; 2517 : 	}
; 2518 : }

  01427	52		 push	 edx
  01428	8b cd		 mov	 ecx, ebp
  0142a	50		 push	 eax
  0142b	8d 15 00 00 00
	00		 lea	 edx, DWORD PTR $LN192@BattleSetW
  01431	e8 00 00 00 00	 call	 @_RTC_CheckStackVars@8
  01436	58		 pop	 eax
  01437	5a		 pop	 edx
  01438	5f		 pop	 edi
  01439	5e		 pop	 esi
  0143a	5b		 pop	 ebx
  0143b	8b 4d fc	 mov	 ecx, DWORD PTR __$ArrayPad$[ebp]
  0143e	33 cd		 xor	 ecx, ebp
  01440	e8 00 00 00 00	 call	 @__security_check_cookie@4
  01445	81 c4 e8 01 00
	00		 add	 esp, 488		; 000001e8H
  0144b	3b ec		 cmp	 ebp, esp
  0144d	e8 00 00 00 00	 call	 __RTC_CheckEsp
  01452	8b e5		 mov	 esp, ebp
  01454	5d		 pop	 ebp
  01455	c3		 ret	 0
  01456	66 90		 npad	 2
$LN192@BattleSetW:
  01458	01 00 00 00	 DD	 1
  0145c	00 00 00 00	 DD	 $LN191@BattleSetW
$LN191@BattleSetW:
  01460	f8 fe ff ff	 DD	 -264			; fffffef8H
  01464	00 01 00 00	 DD	 256			; 00000100H
  01468	00 00 00 00	 DD	 $LN190@BattleSetW
$LN190@BattleSetW:
  0146c	6d		 DB	 109			; 0000006dH
  0146d	6f		 DB	 111			; 0000006fH
  0146e	6a		 DB	 106			; 0000006aH
  0146f	69		 DB	 105			; 00000069H
  01470	00		 DB	 0
  01471	0f 1f 00	 npad	 3
$LN193@BattleSetW:
  01474	00 00 00 00	 DD	 $LN75@BattleSetW
  01478	00 00 00 00	 DD	 $LN80@BattleSetW
  0147c	00 00 00 00	 DD	 $LN86@BattleSetW
  01480	00 00 00 00	 DD	 $LN95@BattleSetW
  01484	00 00 00 00	 DD	 $LN104@BattleSetW
  01488	00 00 00 00	 DD	 $LN109@BattleSetW
  0148c	00 00 00 00	 DD	 $LN113@BattleSetW
  01490	00 00 00 00	 DD	 $LN119@BattleSetW
  01494	00 00 00 00	 DD	 $LN126@BattleSetW
  01498	00 00 00 00	 DD	 $LN158@BattleSetW
  0149c	00 00 00 00	 DD	 $LN173@BattleSetW
  014a0	00 00 00 00	 DD	 $LN142@BattleSetW
  014a4	00 00 00 00	 DD	 $LN179@BattleSetW
?BattleSetWazaHitBox@@YAXHH@Z ENDP			; BattleSetWazaHitBox
_TEXT	ENDS
; Function compile flags: /Odtp /RTCsu /ZI
; File c:\users\administrator\desktop\????? ??\????? ??\client source code\system\battlemenu.cpp
;	COMDAT ?BattleNameDisp@@YAXXZ
_TEXT	SEGMENT
_token$1 = -288						; size = 256
_color$ = -24						; size = 4
_i$ = -12						; size = 4
__$ArrayPad$ = -4					; size = 4
?BattleNameDisp@@YAXXZ PROC				; BattleNameDisp, COMDAT

; 489  : {

  00000	55		 push	 ebp
  00001	8b ec		 mov	 ebp, esp
  00003	81 ec e4 01 00
	00		 sub	 esp, 484		; 000001e4H
  00009	53		 push	 ebx
  0000a	56		 push	 esi
  0000b	57		 push	 edi
  0000c	8d bd 1c fe ff
	ff		 lea	 edi, DWORD PTR [ebp-484]
  00012	b9 79 00 00 00	 mov	 ecx, 121		; 00000079H
  00017	b8 cc cc cc cc	 mov	 eax, -858993460		; ccccccccH
  0001c	f3 ab		 rep stosd
  0001e	a1 00 00 00 00	 mov	 eax, DWORD PTR ___security_cookie
  00023	33 c5		 xor	 eax, ebp
  00025	89 45 fc	 mov	 DWORD PTR __$ArrayPad$[ebp], eax

; 490  : 	int i;
; 491  : 	int color = FONT_PAL_WHITE;

  00028	c7 45 e8 00 00
	00 00		 mov	 DWORD PTR _color$[ebp], 0

; 492  : 	if( nameOverTheHeadFlag != TRUE ) return;

  0002f	0f bf 05 00 00
	00 00		 movsx	 eax, WORD PTR ?nameOverTheHeadFlag@@3FA ; nameOverTheHeadFlag
  00036	83 f8 01	 cmp	 eax, 1
  00039	74 05		 je	 SHORT $LN5@BattleName
  0003b	e9 59 01 00 00	 jmp	 $LN1@BattleName
$LN5@BattleName:

; 493  : 	for( i = 0 ; i < 20 ; i++ ){

  00040	c7 45 f4 00 00
	00 00		 mov	 DWORD PTR _i$[ebp], 0
  00047	eb 09		 jmp	 SHORT $LN4@BattleName
$LN2@BattleName:
  00049	8b 45 f4	 mov	 eax, DWORD PTR _i$[ebp]
  0004c	83 c0 01	 add	 eax, 1
  0004f	89 45 f4	 mov	 DWORD PTR _i$[ebp], eax
$LN4@BattleName:
  00052	83 7d f4 14	 cmp	 DWORD PTR _i$[ebp], 20	; 00000014H
  00056	0f 8d 3d 01 00
	00		 jge	 $LN1@BattleName

; 494  : 		if( p_party[ i ]->func == NULL ) continue;

  0005c	8b 45 f4	 mov	 eax, DWORD PTR _i$[ebp]
  0005f	8b 0c 85 00 00
	00 00		 mov	 ecx, DWORD PTR ?p_party@@3PAPAUaction@@A[eax*4]
  00066	83 79 08 00	 cmp	 DWORD PTR [ecx+8], 0
  0006a	75 02		 jne	 SHORT $LN6@BattleName
  0006c	eb db		 jmp	 SHORT $LN2@BattleName
$LN6@BattleName:

; 495  : 		if( i == BattleMyNo || i == ( BattleMyNo + 5 ) )

  0006e	8b 45 f4	 mov	 eax, DWORD PTR _i$[ebp]
  00071	3b 05 00 00 00
	00		 cmp	 eax, DWORD PTR ?BattleMyNo@@3HA ; BattleMyNo
  00077	74 0d		 je	 SHORT $LN9@BattleName
  00079	a1 00 00 00 00	 mov	 eax, DWORD PTR ?BattleMyNo@@3HA ; BattleMyNo
  0007e	83 c0 05	 add	 eax, 5
  00081	39 45 f4	 cmp	 DWORD PTR _i$[ebp], eax
  00084	75 09		 jne	 SHORT $LN7@BattleName
$LN9@BattleName:

; 496  : 			color = FONT_PAL_YELLOW;

  00086	c7 45 e8 04 00
	00 00		 mov	 DWORD PTR _color$[ebp], 4

; 497  : 		else

  0008d	eb 07		 jmp	 SHORT $LN8@BattleName
$LN7@BattleName:

; 498  : 			color = FONT_PAL_WHITE;

  0008f	c7 45 e8 00 00
	00 00		 mov	 DWORD PTR _color$[ebp], 0
$LN8@BattleName:

; 499  : 	
; 500  : //		StockFontBuffer( p_party[ i ]->x - GetStrWidth( p_party[ i ]->name )/2, p_party[ i ]->y - 10, FONT_PRIO_BACK, color, p_party[ i ]->name, 0 );
; 501  : 
; 502  : 
; 503  : 		char token[256];
; 504  : 		sprintf_s(token,"%s Lv:%d",p_party[ i ]->name,p_party[ i ]->level);

  00096	8b 45 f4	 mov	 eax, DWORD PTR _i$[ebp]
  00099	8b 0c 85 00 00
	00 00		 mov	 ecx, DWORD PTR ?p_party@@3PAPAUaction@@A[eax*4]
  000a0	8b 91 8c 00 00
	00		 mov	 edx, DWORD PTR [ecx+140]
  000a6	52		 push	 edx
  000a7	8b 45 f4	 mov	 eax, DWORD PTR _i$[ebp]
  000aa	8b 0c 85 00 00
	00 00		 mov	 ecx, DWORD PTR ?p_party@@3PAPAUaction@@A[eax*4]
  000b1	83 c1 38	 add	 ecx, 56			; 00000038H
  000b4	51		 push	 ecx
  000b5	68 00 00 00 00	 push	 OFFSET ??_C@_08JCHLGOEH@?$CFs?5Lv?3?$CFd?$AA@
  000ba	8d 95 e0 fe ff
	ff		 lea	 edx, DWORD PTR _token$1[ebp]
  000c0	52		 push	 edx
  000c1	e8 00 00 00 00	 call	 ??$sprintf_s@$0BAA@@@YAHAAY0BAA@DPBDZZ ; sprintf_s<256>
  000c6	83 c4 10	 add	 esp, 16			; 00000010H

; 505  : 		StockFontBuffer( p_party[ i ]->x - GetStrWidth( token )/2, p_party[ i ]->y - 10, FONT_PRIO_BACK, color, token, 0 );

  000c9	6a 00		 push	 0
  000cb	8d 85 e0 fe ff
	ff		 lea	 eax, DWORD PTR _token$1[ebp]
  000d1	50		 push	 eax
  000d2	8b 4d e8	 mov	 ecx, DWORD PTR _color$[ebp]
  000d5	51		 push	 ecx
  000d6	6a 00		 push	 0
  000d8	8b 55 f4	 mov	 edx, DWORD PTR _i$[ebp]
  000db	8b 04 95 00 00
	00 00		 mov	 eax, DWORD PTR ?p_party@@3PAPAUaction@@A[edx*4]
  000e2	8b 48 1c	 mov	 ecx, DWORD PTR [eax+28]
  000e5	83 e9 0a	 sub	 ecx, 10			; 0000000aH
  000e8	51		 push	 ecx
  000e9	8b 55 f4	 mov	 edx, DWORD PTR _i$[ebp]
  000ec	8b 34 95 00 00
	00 00		 mov	 esi, DWORD PTR ?p_party@@3PAPAUaction@@A[edx*4]
  000f3	8d 85 e0 fe ff
	ff		 lea	 eax, DWORD PTR _token$1[ebp]
  000f9	50		 push	 eax
  000fa	e8 00 00 00 00	 call	 ?GetStrWidth@@YAHPAD@Z	; GetStrWidth
  000ff	83 c4 04	 add	 esp, 4
  00102	99		 cdq
  00103	2b c2		 sub	 eax, edx
  00105	d1 f8		 sar	 eax, 1
  00107	8b 4e 18	 mov	 ecx, DWORD PTR [esi+24]
  0010a	2b c8		 sub	 ecx, eax
  0010c	51		 push	 ecx
  0010d	e8 00 00 00 00	 call	 ?StockFontBuffer@@YAHHHDHPADH@Z ; StockFontBuffer
  00112	83 c4 18	 add	 esp, 24			; 00000018H

; 506  : 		
; 507  : 		sprintf_s(token,"HP:%d/%d",p_party[ i ]->hp,p_party[ i ]->maxHp);

  00115	8b 45 f4	 mov	 eax, DWORD PTR _i$[ebp]
  00118	8b 0c 85 00 00
	00 00		 mov	 ecx, DWORD PTR ?p_party@@3PAPAUaction@@A[eax*4]
  0011f	8b 91 80 00 00
	00		 mov	 edx, DWORD PTR [ecx+128]
  00125	52		 push	 edx
  00126	8b 45 f4	 mov	 eax, DWORD PTR _i$[ebp]
  00129	8b 0c 85 00 00
	00 00		 mov	 ecx, DWORD PTR ?p_party@@3PAPAUaction@@A[eax*4]
  00130	8b 51 78	 mov	 edx, DWORD PTR [ecx+120]
  00133	52		 push	 edx
  00134	68 00 00 00 00	 push	 OFFSET ??_C@_08NJBMJDFM@HP?3?$CFd?1?$CFd?$AA@
  00139	8d 85 e0 fe ff
	ff		 lea	 eax, DWORD PTR _token$1[ebp]
  0013f	50		 push	 eax
  00140	e8 00 00 00 00	 call	 ??$sprintf_s@$0BAA@@@YAHAAY0BAA@DPBDZZ ; sprintf_s<256>
  00145	83 c4 10	 add	 esp, 16			; 00000010H

; 508  : 		StockFontBuffer( p_party[ i ]->x - GetStrWidth( token )/2, p_party[ i ]->y + 10, FONT_PRIO_BACK, color, token, 0 );

  00148	6a 00		 push	 0
  0014a	8d 85 e0 fe ff
	ff		 lea	 eax, DWORD PTR _token$1[ebp]
  00150	50		 push	 eax
  00151	8b 4d e8	 mov	 ecx, DWORD PTR _color$[ebp]
  00154	51		 push	 ecx
  00155	6a 00		 push	 0
  00157	8b 55 f4	 mov	 edx, DWORD PTR _i$[ebp]
  0015a	8b 04 95 00 00
	00 00		 mov	 eax, DWORD PTR ?p_party@@3PAPAUaction@@A[edx*4]
  00161	8b 48 1c	 mov	 ecx, DWORD PTR [eax+28]
  00164	83 c1 0a	 add	 ecx, 10			; 0000000aH
  00167	51		 push	 ecx
  00168	8b 55 f4	 mov	 edx, DWORD PTR _i$[ebp]
  0016b	8b 34 95 00 00
	00 00		 mov	 esi, DWORD PTR ?p_party@@3PAPAUaction@@A[edx*4]
  00172	8d 85 e0 fe ff
	ff		 lea	 eax, DWORD PTR _token$1[ebp]
  00178	50		 push	 eax
  00179	e8 00 00 00 00	 call	 ?GetStrWidth@@YAHPAD@Z	; GetStrWidth
  0017e	83 c4 04	 add	 esp, 4
  00181	99		 cdq
  00182	2b c2		 sub	 eax, edx
  00184	d1 f8		 sar	 eax, 1
  00186	8b 4e 18	 mov	 ecx, DWORD PTR [esi+24]
  00189	2b c8		 sub	 ecx, eax
  0018b	51		 push	 ecx
  0018c	e8 00 00 00 00	 call	 ?StockFontBuffer@@YAHHHDHPADH@Z ; StockFontBuffer
  00191	83 c4 18	 add	 esp, 24			; 00000018H

; 509  : 		
; 510  : 		/*
; 511  : 		char buf[100];
; 512  : 		wsprintfA(buf, "%d", p_party[i]->hp);
; 513  : 		int meterX = p_party[i]->x;
; 514  : 		int meterY = p_party[i]->y - 80;
; 515  : 		StockFontBuffer(meterX - 13, meterY - 17, FONT_PRIO_BACK, FONT_PAL_WHITE, buf, 0);
; 516  : 
; 517  : 		if (p_party[i]->onRide > 0){
; 518  : 			meterY += 25;
; 519  : 			meterX += 20;
; 520  : 			wsprintfA(buf, "%d", p_party[i]->hp);
; 521  : 			StockFontBuffer(meterX - 13, meterY - 17, FONT_PRIO_BACK, FONT_PAL_WHITE, buf, 0);
; 522  : 		}*/
; 523  : 
; 524  : 		//JL add 2017.10.5 战斗F11显血
; 525  : 		//char buf[100];
; 526  : 		//if (p_party[i]->onRide > 0)
; 527  : 		//{
; 528  : 		//	wsprintfA(buf, "HP:%d,骑:%d", p_party[i]->hp, p_party[i]->petHp);
; 529  : 		//	StockFontBuffer(p_party[i]->x - GetStrWidth(buf) / 2, p_party[i]->y + 4, FONT_PRIO_BACK, color, buf, 0);
; 530  : 		//}
; 531  : 		//else
; 532  : 		//{
; 533  : 		//	wsprintfA(buf, "HP:%d", p_party[i]->hp);
; 534  : 		//	StockFontBuffer(p_party[i]->x - GetStrWidth(buf) / 2, p_party[i]->y + 4, FONT_PRIO_BACK, color, buf, 0);
; 535  : 		//}
; 536  : 
; 537  : 		//char buf[100];
; 538  : 		//wsprintfA(buf, "%d/%d", p_party[i]->hp, p_party[i]->maxHp);
; 539  : 		//StockFontBuffer(p_party[i]->x - GetStrWidth(buf) / 2, p_party[i]->y+4, FONT_PRIO_BACK, color, buf, 0);
; 540  : 
; 541  : 		//if (p_party[i]->petHp)
; 542  : 		//{
; 543  : 		//	wsprintfA(buf, "%d/%d", p_party[i]->petHp, p_party[i]->petMaxHp);
; 544  : 		//	StockFontBuffer(p_party[i]->x - GetStrWidth(buf) / 2, p_party[i]->y + 18, FONT_PRIO_BACK, color, buf, 0);
; 545  : 		//}
; 546  : 
; 547  : 	}	

  00194	e9 b0 fe ff ff	 jmp	 $LN2@BattleName
$LN1@BattleName:

; 548  : }

  00199	52		 push	 edx
  0019a	8b cd		 mov	 ecx, ebp
  0019c	50		 push	 eax
  0019d	8d 15 00 00 00
	00		 lea	 edx, DWORD PTR $LN13@BattleName
  001a3	e8 00 00 00 00	 call	 @_RTC_CheckStackVars@8
  001a8	58		 pop	 eax
  001a9	5a		 pop	 edx
  001aa	5f		 pop	 edi
  001ab	5e		 pop	 esi
  001ac	5b		 pop	 ebx
  001ad	8b 4d fc	 mov	 ecx, DWORD PTR __$ArrayPad$[ebp]
  001b0	33 cd		 xor	 ecx, ebp
  001b2	e8 00 00 00 00	 call	 @__security_check_cookie@4
  001b7	81 c4 e4 01 00
	00		 add	 esp, 484		; 000001e4H
  001bd	3b ec		 cmp	 ebp, esp
  001bf	e8 00 00 00 00	 call	 __RTC_CheckEsp
  001c4	8b e5		 mov	 esp, ebp
  001c6	5d		 pop	 ebp
  001c7	c3		 ret	 0
$LN13@BattleName:
  001c8	01 00 00 00	 DD	 1
  001cc	00 00 00 00	 DD	 $LN12@BattleName
$LN12@BattleName:
  001d0	e0 fe ff ff	 DD	 -288			; fffffee0H
  001d4	00 01 00 00	 DD	 256			; 00000100H
  001d8	00 00 00 00	 DD	 $LN11@BattleName
$LN11@BattleName:
  001dc	74		 DB	 116			; 00000074H
  001dd	6f		 DB	 111			; 0000006fH
  001de	6b		 DB	 107			; 0000006bH
  001df	65		 DB	 101			; 00000065H
  001e0	6e		 DB	 110			; 0000006eH
  001e1	00		 DB	 0
?BattleNameDisp@@YAXXZ ENDP				; BattleNameDisp
_TEXT	ENDS
; Function compile flags: /Odtp /RTCsu /ZI
; File c:\users\administrator\desktop\????? ??\????? ??\client source code\system\battlemenu.cpp
;	COMDAT ?HpMeterDisp@@YAXH@Z
_TEXT	SEGMENT
_graNo$ = -32						; size = 4
_meterY$ = -20						; size = 4
_meterX$ = -8						; size = 4
_no$ = 8						; size = 4
?HpMeterDisp@@YAXH@Z PROC				; HpMeterDisp, COMDAT

; 382  : void HpMeterDisp( int no ){

  00000	55		 push	 ebp
  00001	8b ec		 mov	 ebp, esp
  00003	81 ec e4 00 00
	00		 sub	 esp, 228		; 000000e4H
  00009	53		 push	 ebx
  0000a	56		 push	 esi
  0000b	57		 push	 edi
  0000c	8d bd 1c ff ff
	ff		 lea	 edi, DWORD PTR [ebp-228]
  00012	b9 39 00 00 00	 mov	 ecx, 57			; 00000039H
  00017	b8 cc cc cc cc	 mov	 eax, -858993460		; ccccccccH
  0001c	f3 ab		 rep stosd

; 383  : 	int meterX = p_party[ no ]->x;

  0001e	8b 45 08	 mov	 eax, DWORD PTR _no$[ebp]
  00021	8b 0c 85 00 00
	00 00		 mov	 ecx, DWORD PTR ?p_party@@3PAPAUaction@@A[eax*4]
  00028	8b 51 18	 mov	 edx, DWORD PTR [ecx+24]
  0002b	89 55 f8	 mov	 DWORD PTR _meterX$[ebp], edx

; 384  : 	int meterY = p_party[ no ]->y - 80;

  0002e	8b 45 08	 mov	 eax, DWORD PTR _no$[ebp]
  00031	8b 0c 85 00 00
	00 00		 mov	 ecx, DWORD PTR ?p_party@@3PAPAUaction@@A[eax*4]
  00038	8b 51 1c	 mov	 edx, DWORD PTR [ecx+28]
  0003b	83 ea 50	 sub	 edx, 80			; 00000050H
  0003e	89 55 ec	 mov	 DWORD PTR _meterY$[ebp], edx

; 385  : 	int graNo;
; 386  : 	// ??????????????
; 387  : 	if( p_party[ no ]->func == NULL || p_party[ no ]->hp <= 0 ) return;

  00041	8b 45 08	 mov	 eax, DWORD PTR _no$[ebp]
  00044	8b 0c 85 00 00
	00 00		 mov	 ecx, DWORD PTR ?p_party@@3PAPAUaction@@A[eax*4]
  0004b	83 79 08 00	 cmp	 DWORD PTR [ecx+8], 0
  0004f	74 10		 je	 SHORT $LN3@HpMeterDis
  00051	8b 45 08	 mov	 eax, DWORD PTR _no$[ebp]
  00054	8b 0c 85 00 00
	00 00		 mov	 ecx, DWORD PTR ?p_party@@3PAPAUaction@@A[eax*4]
  0005b	83 79 78 00	 cmp	 DWORD PTR [ecx+120], 0
  0005f	7f 05		 jg	 SHORT $LN2@HpMeterDis
$LN3@HpMeterDis:
  00061	e9 d9 04 00 00	 jmp	 $LN1@HpMeterDis
$LN2@HpMeterDis:

; 388  : 	// ?????
; 389  : 	if( p_party[ no ]->atr & ACT_ATR_TRAVEL ) return;

  00066	8b 45 08	 mov	 eax, DWORD PTR _no$[ebp]
  00069	8b 0c 85 00 00
	00 00		 mov	 ecx, DWORD PTR ?p_party@@3PAPAUaction@@A[eax*4]
  00070	8b 91 a4 00 00
	00		 mov	 edx, DWORD PTR [ecx+164]
  00076	81 e2 00 00 02
	00		 and	 edx, 131072		; 00020000H
  0007c	74 05		 je	 SHORT $LN4@HpMeterDis
  0007e	e9 bc 04 00 00	 jmp	 $LN1@HpMeterDis
$LN4@HpMeterDis:

; 390  : 	// ??
; 391  : 	if( no == BattleMyNo ){

  00083	8b 45 08	 mov	 eax, DWORD PTR _no$[ebp]
  00086	3b 05 00 00 00
	00		 cmp	 eax, DWORD PTR ?BattleMyNo@@3HA ; BattleMyNo
  0008c	0f 85 c0 02 00
	00		 jne	 $LN5@HpMeterDis

; 392  : 		// ?
; 393  : 		StockDispBuffer( meterX, meterY, DISP_PRIO_IME1, CG_BATTLE_BAR_PLAYER_2, 0 );

  00092	6a 00		 push	 0
  00094	68 a3 65 00 00	 push	 26019			; 000065a3H
  00099	6a 66		 push	 102			; 00000066H
  0009b	8b 45 ec	 mov	 eax, DWORD PTR _meterY$[ebp]
  0009e	50		 push	 eax
  0009f	8b 4d f8	 mov	 ecx, DWORD PTR _meterX$[ebp]
  000a2	51		 push	 ecx
  000a3	e8 00 00 00 00	 call	 ?StockDispBuffer@@YAHHHEHH@Z ; StockDispBuffer
  000a8	83 c4 14	 add	 esp, 20			; 00000014H

; 394  : 		// ??
; 395  : 		StockBoxDispBuffer( meterX - 21,

  000ab	6a 02		 push	 2
  000ad	68 fa 00 00 00	 push	 250			; 000000faH
  000b2	6a 67		 push	 103			; 00000067H
  000b4	8b 45 ec	 mov	 eax, DWORD PTR _meterY$[ebp]
  000b7	83 e8 03	 sub	 eax, 3
  000ba	50		 push	 eax
  000bb	8b 0d 00 00 00
	00		 mov	 ecx, DWORD PTR ?BattleMyNo@@3HA ; BattleMyNo
  000c1	8b 14 8d 00 00
	00 00		 mov	 edx, DWORD PTR ?p_party@@3PAPAUaction@@A[ecx*4]
  000c8	f2 0f 2a 42 78	 cvtsi2sd xmm0, DWORD PTR [edx+120]
  000cd	a1 00 00 00 00	 mov	 eax, DWORD PTR ?BattleMyNo@@3HA ; BattleMyNo
  000d2	8b 0c 85 00 00
	00 00		 mov	 ecx, DWORD PTR ?p_party@@3PAPAUaction@@A[eax*4]
  000d9	f2 0f 2a 89 80
	00 00 00	 cvtsi2sd xmm1, DWORD PTR [ecx+128]
  000e1	f2 0f 5e c1	 divsd	 xmm0, xmm1
  000e5	f2 0f 59 05 00
	00 00 00	 mulsd	 xmm0, QWORD PTR __real@4044000000000000
  000ed	f2 0f 2c d0	 cvttsd2si edx, xmm0
  000f1	8b 45 f8	 mov	 eax, DWORD PTR _meterX$[ebp]
  000f4	8d 4c 10 eb	 lea	 ecx, DWORD PTR [eax+edx-21]
  000f8	51		 push	 ecx
  000f9	8b 55 ec	 mov	 edx, DWORD PTR _meterY$[ebp]
  000fc	83 ea 03	 sub	 edx, 3
  000ff	52		 push	 edx
  00100	8b 45 f8	 mov	 eax, DWORD PTR _meterX$[ebp]
  00103	83 e8 15	 sub	 eax, 21			; 00000015H
  00106	50		 push	 eax
  00107	e8 00 00 00 00	 call	 ?StockBoxDispBuffer@@YAXHHHHEHH@Z ; StockBoxDispBuffer
  0010c	83 c4 1c	 add	 esp, 28			; 0000001cH

; 396  : 							meterY - 3,
; 397  : 							meterX - 21 + (int)( ( (double)p_party[ BattleMyNo ]->hp / (double)p_party[ BattleMyNo ]->maxHp ) * 40.0 ),
; 398  : 							meterY - 3,
; 399  : 							DISP_PRIO_IME2, SYSTEM_PAL_GREEN, 2 );
; 400  : 		StockBoxDispBuffer( meterX - 21,

  0010f	6a 02		 push	 2
  00111	68 fa 00 00 00	 push	 250			; 000000faH
  00116	6a 67		 push	 103			; 00000067H
  00118	8b 45 ec	 mov	 eax, DWORD PTR _meterY$[ebp]
  0011b	83 e8 02	 sub	 eax, 2
  0011e	50		 push	 eax
  0011f	8b 0d 00 00 00
	00		 mov	 ecx, DWORD PTR ?BattleMyNo@@3HA ; BattleMyNo
  00125	8b 14 8d 00 00
	00 00		 mov	 edx, DWORD PTR ?p_party@@3PAPAUaction@@A[ecx*4]
  0012c	f2 0f 2a 42 78	 cvtsi2sd xmm0, DWORD PTR [edx+120]
  00131	a1 00 00 00 00	 mov	 eax, DWORD PTR ?BattleMyNo@@3HA ; BattleMyNo
  00136	8b 0c 85 00 00
	00 00		 mov	 ecx, DWORD PTR ?p_party@@3PAPAUaction@@A[eax*4]
  0013d	f2 0f 2a 89 80
	00 00 00	 cvtsi2sd xmm1, DWORD PTR [ecx+128]
  00145	f2 0f 5e c1	 divsd	 xmm0, xmm1
  00149	f2 0f 59 05 00
	00 00 00	 mulsd	 xmm0, QWORD PTR __real@4044000000000000
  00151	f2 0f 2c d0	 cvttsd2si edx, xmm0
  00155	8b 45 f8	 mov	 eax, DWORD PTR _meterX$[ebp]
  00158	8d 4c 10 eb	 lea	 ecx, DWORD PTR [eax+edx-21]
  0015c	51		 push	 ecx
  0015d	8b 55 ec	 mov	 edx, DWORD PTR _meterY$[ebp]
  00160	83 ea 02	 sub	 edx, 2
  00163	52		 push	 edx
  00164	8b 45 f8	 mov	 eax, DWORD PTR _meterX$[ebp]
  00167	83 e8 15	 sub	 eax, 21			; 00000015H
  0016a	50		 push	 eax
  0016b	e8 00 00 00 00	 call	 ?StockBoxDispBuffer@@YAXHHHHEHH@Z ; StockBoxDispBuffer
  00170	83 c4 1c	 add	 esp, 28			; 0000001cH

; 401  : 							meterY - 2,
; 402  : 							meterX - 21 + (int)( ( (double)p_party[ BattleMyNo ]->hp / (double)p_party[ BattleMyNo ]->maxHp ) * 40.0 ),
; 403  : 							meterY - 2,
; 404  : 							DISP_PRIO_IME2, SYSTEM_PAL_GREEN, 2 );
; 405  : 		// ??
; 406  : #ifdef _BATTLESKILL				// (不可开) Syu ADD 战斗技能介面
; 407  : 		StockBoxDispBuffer( meterX - 21,

  00173	6a 02		 push	 2
  00175	68 fb 00 00 00	 push	 251			; 000000fbH
  0017a	6a 67		 push	 103			; 00000067H
  0017c	8b 45 ec	 mov	 eax, DWORD PTR _meterY$[ebp]
  0017f	83 c0 01	 add	 eax, 1
  00182	50		 push	 eax
  00183	8b 0d 00 00 00
	00		 mov	 ecx, DWORD PTR ?BattleMyNo@@3HA ; BattleMyNo
  00189	8b 14 8d 00 00
	00 00		 mov	 edx, DWORD PTR ?p_party@@3PAPAUaction@@A[ecx*4]
  00190	f2 0f 2a 82 84
	00 00 00	 cvtsi2sd xmm0, DWORD PTR [edx+132]
  00198	a1 00 00 00 00	 mov	 eax, DWORD PTR ?BattleMyNo@@3HA ; BattleMyNo
  0019d	8b 0c 85 00 00
	00 00		 mov	 ecx, DWORD PTR ?p_party@@3PAPAUaction@@A[eax*4]
  001a4	f2 0f 2a 89 88
	00 00 00	 cvtsi2sd xmm1, DWORD PTR [ecx+136]
  001ac	f2 0f 5e c1	 divsd	 xmm0, xmm1
  001b0	f2 0f 59 05 00
	00 00 00	 mulsd	 xmm0, QWORD PTR __real@4044000000000000
  001b8	f2 0f 2c d0	 cvttsd2si edx, xmm0
  001bc	8b 45 f8	 mov	 eax, DWORD PTR _meterX$[ebp]
  001bf	8d 4c 10 eb	 lea	 ecx, DWORD PTR [eax+edx-21]
  001c3	51		 push	 ecx
  001c4	8b 55 ec	 mov	 edx, DWORD PTR _meterY$[ebp]
  001c7	83 c2 01	 add	 edx, 1
  001ca	52		 push	 edx
  001cb	8b 45 f8	 mov	 eax, DWORD PTR _meterX$[ebp]
  001ce	83 e8 15	 sub	 eax, 21			; 00000015H
  001d1	50		 push	 eax
  001d2	e8 00 00 00 00	 call	 ?StockBoxDispBuffer@@YAXHHHHEHH@Z ; StockBoxDispBuffer
  001d7	83 c4 1c	 add	 esp, 28			; 0000001cH

; 408  : 							meterY + 1,
; 409  : 							meterX - 21 + (int)( ( (double)p_party[ BattleMyNo ]->mp / (double)p_party[ BattleMyNo ]->maxMp ) * 40.0 ),
; 410  : 							meterY + 1,
; 411  : 							DISP_PRIO_IME2, SYSTEM_PAL_YELLOW, 2 );
; 412  : 		StockBoxDispBuffer( meterX - 21,

  001da	6a 02		 push	 2
  001dc	68 fb 00 00 00	 push	 251			; 000000fbH
  001e1	6a 67		 push	 103			; 00000067H
  001e3	8b 45 ec	 mov	 eax, DWORD PTR _meterY$[ebp]
  001e6	83 c0 02	 add	 eax, 2
  001e9	50		 push	 eax
  001ea	8b 0d 00 00 00
	00		 mov	 ecx, DWORD PTR ?BattleMyNo@@3HA ; BattleMyNo
  001f0	8b 14 8d 00 00
	00 00		 mov	 edx, DWORD PTR ?p_party@@3PAPAUaction@@A[ecx*4]
  001f7	f2 0f 2a 82 84
	00 00 00	 cvtsi2sd xmm0, DWORD PTR [edx+132]
  001ff	a1 00 00 00 00	 mov	 eax, DWORD PTR ?BattleMyNo@@3HA ; BattleMyNo
  00204	8b 0c 85 00 00
	00 00		 mov	 ecx, DWORD PTR ?p_party@@3PAPAUaction@@A[eax*4]
  0020b	f2 0f 2a 89 88
	00 00 00	 cvtsi2sd xmm1, DWORD PTR [ecx+136]
  00213	f2 0f 5e c1	 divsd	 xmm0, xmm1
  00217	f2 0f 59 05 00
	00 00 00	 mulsd	 xmm0, QWORD PTR __real@4044000000000000
  0021f	f2 0f 2c d0	 cvttsd2si edx, xmm0
  00223	8b 45 f8	 mov	 eax, DWORD PTR _meterX$[ebp]
  00226	8d 4c 10 eb	 lea	 ecx, DWORD PTR [eax+edx-21]
  0022a	51		 push	 ecx
  0022b	8b 55 ec	 mov	 edx, DWORD PTR _meterY$[ebp]
  0022e	83 c2 02	 add	 edx, 2
  00231	52		 push	 edx
  00232	8b 45 f8	 mov	 eax, DWORD PTR _meterX$[ebp]
  00235	83 e8 15	 sub	 eax, 21			; 00000015H
  00238	50		 push	 eax
  00239	e8 00 00 00 00	 call	 ?StockBoxDispBuffer@@YAXHHHHEHH@Z ; StockBoxDispBuffer
  0023e	83 c4 1c	 add	 esp, 28			; 0000001cH

; 413  : 							meterY + 2,
; 414  : 							meterX - 21 + (int)( ( (double)p_party[ BattleMyNo ]->mp / (double)p_party[ BattleMyNo ]->maxMp ) * 40.0 ),
; 415  : 							meterY + 2,
; 416  : 							DISP_PRIO_IME2, SYSTEM_PAL_YELLOW, 2 );
; 417  : #else
; 418  : 		StockBoxDispBuffer( meterX - 21,
; 419  : 							meterY + 1,
; 420  : 							meterX - 21 + (int)( ( (double)p_party[ BattleMyNo ]->mp / 100.0 ) * 40.0 ),
; 421  : 							meterY + 1,
; 422  : 							DISP_PRIO_IME2, SYSTEM_PAL_YELLOW, 2 );
; 423  : 		StockBoxDispBuffer( meterX - 21,
; 424  : 							meterY + 2,
; 425  : 							meterX - 21 + (int)( ( (double)p_party[ BattleMyNo ]->mp / 100.0 ) * 40.0 ),
; 426  : 							meterY + 2,
; 427  : 							DISP_PRIO_IME2, SYSTEM_PAL_YELLOW, 2 );
; 428  : #endif
; 429  : 		//cary 秀出骑宠的宠物血量 
; 430  : 		if( p_party[ BattleMyNo ]->onRide > 0 ){

  00241	a1 00 00 00 00	 mov	 eax, DWORD PTR ?BattleMyNo@@3HA ; BattleMyNo
  00246	8b 0c 85 00 00
	00 00		 mov	 ecx, DWORD PTR ?p_party@@3PAPAUaction@@A[eax*4]
  0024d	83 b9 94 01 00
	00 00		 cmp	 DWORD PTR [ecx+404], 0
  00254	0f 8e f3 00 00
	00		 jle	 $LN7@HpMeterDis

; 431  : 			meterY += 25;

  0025a	8b 45 ec	 mov	 eax, DWORD PTR _meterY$[ebp]
  0025d	83 c0 19	 add	 eax, 25			; 00000019H
  00260	89 45 ec	 mov	 DWORD PTR _meterY$[ebp], eax

; 432  : 			meterX += 20;

  00263	8b 45 f8	 mov	 eax, DWORD PTR _meterX$[ebp]
  00266	83 c0 14	 add	 eax, 20			; 00000014H
  00269	89 45 f8	 mov	 DWORD PTR _meterX$[ebp], eax

; 433  : 			// ?
; 434  : 			StockDispBuffer( meterX , meterY, DISP_PRIO_IME1, CG_BATTLE_BAR_PET_2, 0 );

  0026c	6a 00		 push	 0
  0026e	68 a4 65 00 00	 push	 26020			; 000065a4H
  00273	6a 66		 push	 102			; 00000066H
  00275	8b 45 ec	 mov	 eax, DWORD PTR _meterY$[ebp]
  00278	50		 push	 eax
  00279	8b 4d f8	 mov	 ecx, DWORD PTR _meterX$[ebp]
  0027c	51		 push	 ecx
  0027d	e8 00 00 00 00	 call	 ?StockDispBuffer@@YAHHHEHH@Z ; StockDispBuffer
  00282	83 c4 14	 add	 esp, 20			; 00000014H

; 435  : 			// ?????????
; 436  : 			StockBoxDispBuffer( meterX - 21,

  00285	6a 02		 push	 2
  00287	68 fa 00 00 00	 push	 250			; 000000faH
  0028c	6a 67		 push	 103			; 00000067H
  0028e	8b 45 ec	 mov	 eax, DWORD PTR _meterY$[ebp]
  00291	83 e8 01	 sub	 eax, 1
  00294	50		 push	 eax
  00295	8b 0d 00 00 00
	00		 mov	 ecx, DWORD PTR ?BattleMyNo@@3HA ; BattleMyNo
  0029b	8b 14 8d 00 00
	00 00		 mov	 edx, DWORD PTR ?p_party@@3PAPAUaction@@A[ecx*4]
  002a2	f2 0f 2a 82 b0
	01 00 00	 cvtsi2sd xmm0, DWORD PTR [edx+432]
  002aa	a1 00 00 00 00	 mov	 eax, DWORD PTR ?BattleMyNo@@3HA ; BattleMyNo
  002af	8b 0c 85 00 00
	00 00		 mov	 ecx, DWORD PTR ?p_party@@3PAPAUaction@@A[eax*4]
  002b6	f2 0f 2a 89 b4
	01 00 00	 cvtsi2sd xmm1, DWORD PTR [ecx+436]
  002be	f2 0f 5e c1	 divsd	 xmm0, xmm1
  002c2	f2 0f 59 05 00
	00 00 00	 mulsd	 xmm0, QWORD PTR __real@4044000000000000
  002ca	f2 0f 2c d0	 cvttsd2si edx, xmm0
  002ce	8b 45 f8	 mov	 eax, DWORD PTR _meterX$[ebp]
  002d1	8d 4c 10 eb	 lea	 ecx, DWORD PTR [eax+edx-21]
  002d5	51		 push	 ecx
  002d6	8b 55 ec	 mov	 edx, DWORD PTR _meterY$[ebp]
  002d9	83 ea 01	 sub	 edx, 1
  002dc	52		 push	 edx
  002dd	8b 45 f8	 mov	 eax, DWORD PTR _meterX$[ebp]
  002e0	83 e8 15	 sub	 eax, 21			; 00000015H
  002e3	50		 push	 eax
  002e4	e8 00 00 00 00	 call	 ?StockBoxDispBuffer@@YAXHHHHEHH@Z ; StockBoxDispBuffer
  002e9	83 c4 1c	 add	 esp, 28			; 0000001cH

; 437  : 								meterY - 1,
; 438  : 								meterX - 21 + (int)( ( (double)p_party[ BattleMyNo ]->petHp / (double)p_party[ BattleMyNo ]->petMaxHp ) * 40.0 ),
; 439  : 								meterY - 1,
; 440  : 								DISP_PRIO_IME2, SYSTEM_PAL_GREEN, 2 );
; 441  : 			// ?????????
; 442  : 			StockBoxDispBuffer( meterX - 21,

  002ec	6a 02		 push	 2
  002ee	68 fa 00 00 00	 push	 250			; 000000faH
  002f3	6a 67		 push	 103			; 00000067H
  002f5	8b 45 ec	 mov	 eax, DWORD PTR _meterY$[ebp]
  002f8	50		 push	 eax
  002f9	8b 0d 00 00 00
	00		 mov	 ecx, DWORD PTR ?BattleMyNo@@3HA ; BattleMyNo
  002ff	8b 14 8d 00 00
	00 00		 mov	 edx, DWORD PTR ?p_party@@3PAPAUaction@@A[ecx*4]
  00306	f2 0f 2a 82 b0
	01 00 00	 cvtsi2sd xmm0, DWORD PTR [edx+432]
  0030e	a1 00 00 00 00	 mov	 eax, DWORD PTR ?BattleMyNo@@3HA ; BattleMyNo
  00313	8b 0c 85 00 00
	00 00		 mov	 ecx, DWORD PTR ?p_party@@3PAPAUaction@@A[eax*4]
  0031a	f2 0f 2a 89 b4
	01 00 00	 cvtsi2sd xmm1, DWORD PTR [ecx+436]
  00322	f2 0f 5e c1	 divsd	 xmm0, xmm1
  00326	f2 0f 59 05 00
	00 00 00	 mulsd	 xmm0, QWORD PTR __real@4044000000000000
  0032e	f2 0f 2c d0	 cvttsd2si edx, xmm0
  00332	8b 45 f8	 mov	 eax, DWORD PTR _meterX$[ebp]
  00335	8d 4c 10 eb	 lea	 ecx, DWORD PTR [eax+edx-21]
  00339	51		 push	 ecx
  0033a	8b 55 ec	 mov	 edx, DWORD PTR _meterY$[ebp]
  0033d	52		 push	 edx
  0033e	8b 45 f8	 mov	 eax, DWORD PTR _meterX$[ebp]
  00341	83 e8 15	 sub	 eax, 21			; 00000015H
  00344	50		 push	 eax
  00345	e8 00 00 00 00	 call	 ?StockBoxDispBuffer@@YAXHHHHEHH@Z ; StockBoxDispBuffer
  0034a	83 c4 1c	 add	 esp, 28			; 0000001cH
$LN7@HpMeterDis:

; 443  : 								meterY + 0,
; 444  : 								meterX - 21 + (int)( ( (double)p_party[ BattleMyNo ]->petHp / (double)p_party[ BattleMyNo ]->petMaxHp ) * 40.0 ),
; 445  : 								meterY + 0,
; 446  : 								DISP_PRIO_IME2, SYSTEM_PAL_GREEN, 2 );
; 447  : 		}
; 448  : 	}else{	// ????

  0034d	e9 ed 01 00 00	 jmp	 $LN10@HpMeterDis
$LN5@HpMeterDis:

; 449  : 		if( no == BattleMyNo + 5 ) graNo = CG_BATTLE_BAR_PET_2;

  00352	a1 00 00 00 00	 mov	 eax, DWORD PTR ?BattleMyNo@@3HA ; BattleMyNo
  00357	83 c0 05	 add	 eax, 5
  0035a	39 45 08	 cmp	 DWORD PTR _no$[ebp], eax
  0035d	75 09		 jne	 SHORT $LN8@HpMeterDis
  0035f	c7 45 e0 a4 65
	00 00		 mov	 DWORD PTR _graNo$[ebp], 26020 ; 000065a4H
  00366	eb 07		 jmp	 SHORT $LN9@HpMeterDis
$LN8@HpMeterDis:

; 450  : 		else graNo = CG_BATTLE_BAR_PET;

  00368	c7 45 e0 9e 65
	00 00		 mov	 DWORD PTR _graNo$[ebp], 26014 ; 0000659eH
$LN9@HpMeterDis:

; 451  : 		// ?
; 452  : 		StockDispBuffer( meterX , meterY, DISP_PRIO_IME1, graNo, 0 );

  0036f	6a 00		 push	 0
  00371	8b 45 e0	 mov	 eax, DWORD PTR _graNo$[ebp]
  00374	50		 push	 eax
  00375	6a 66		 push	 102			; 00000066H
  00377	8b 4d ec	 mov	 ecx, DWORD PTR _meterY$[ebp]
  0037a	51		 push	 ecx
  0037b	8b 55 f8	 mov	 edx, DWORD PTR _meterX$[ebp]
  0037e	52		 push	 edx
  0037f	e8 00 00 00 00	 call	 ?StockDispBuffer@@YAHHHEHH@Z ; StockDispBuffer
  00384	83 c4 14	 add	 esp, 20			; 00000014H

; 453  : 		// ?????????
; 454  : 		StockBoxDispBuffer( meterX - 21,

  00387	6a 02		 push	 2
  00389	68 fa 00 00 00	 push	 250			; 000000faH
  0038e	6a 67		 push	 103			; 00000067H
  00390	8b 45 ec	 mov	 eax, DWORD PTR _meterY$[ebp]
  00393	83 e8 01	 sub	 eax, 1
  00396	50		 push	 eax
  00397	8b 4d 08	 mov	 ecx, DWORD PTR _no$[ebp]
  0039a	8b 14 8d 00 00
	00 00		 mov	 edx, DWORD PTR ?p_party@@3PAPAUaction@@A[ecx*4]
  003a1	f2 0f 2a 42 78	 cvtsi2sd xmm0, DWORD PTR [edx+120]
  003a6	8b 45 08	 mov	 eax, DWORD PTR _no$[ebp]
  003a9	8b 0c 85 00 00
	00 00		 mov	 ecx, DWORD PTR ?p_party@@3PAPAUaction@@A[eax*4]
  003b0	f2 0f 2a 89 80
	00 00 00	 cvtsi2sd xmm1, DWORD PTR [ecx+128]
  003b8	f2 0f 5e c1	 divsd	 xmm0, xmm1
  003bc	f2 0f 59 05 00
	00 00 00	 mulsd	 xmm0, QWORD PTR __real@4044000000000000
  003c4	f2 0f 2c d0	 cvttsd2si edx, xmm0
  003c8	8b 45 f8	 mov	 eax, DWORD PTR _meterX$[ebp]
  003cb	8d 4c 10 eb	 lea	 ecx, DWORD PTR [eax+edx-21]
  003cf	51		 push	 ecx
  003d0	8b 55 ec	 mov	 edx, DWORD PTR _meterY$[ebp]
  003d3	83 ea 01	 sub	 edx, 1
  003d6	52		 push	 edx
  003d7	8b 45 f8	 mov	 eax, DWORD PTR _meterX$[ebp]
  003da	83 e8 15	 sub	 eax, 21			; 00000015H
  003dd	50		 push	 eax
  003de	e8 00 00 00 00	 call	 ?StockBoxDispBuffer@@YAXHHHHEHH@Z ; StockBoxDispBuffer
  003e3	83 c4 1c	 add	 esp, 28			; 0000001cH

; 455  : 							meterY - 1,
; 456  : 							meterX - 21 + (int)( ( (double)p_party[ no ]->hp / (double)p_party[ no ]->maxHp ) * 40.0 ),
; 457  : 							meterY - 1,
; 458  : 							DISP_PRIO_IME2, SYSTEM_PAL_GREEN, 2 );
; 459  : 
; 460  : 		StockBoxDispBuffer( meterX - 21,

  003e6	6a 02		 push	 2
  003e8	68 fa 00 00 00	 push	 250			; 000000faH
  003ed	6a 67		 push	 103			; 00000067H
  003ef	8b 45 ec	 mov	 eax, DWORD PTR _meterY$[ebp]
  003f2	50		 push	 eax
  003f3	8b 4d 08	 mov	 ecx, DWORD PTR _no$[ebp]
  003f6	8b 14 8d 00 00
	00 00		 mov	 edx, DWORD PTR ?p_party@@3PAPAUaction@@A[ecx*4]
  003fd	f2 0f 2a 42 78	 cvtsi2sd xmm0, DWORD PTR [edx+120]
  00402	8b 45 08	 mov	 eax, DWORD PTR _no$[ebp]
  00405	8b 0c 85 00 00
	00 00		 mov	 ecx, DWORD PTR ?p_party@@3PAPAUaction@@A[eax*4]
  0040c	f2 0f 2a 89 80
	00 00 00	 cvtsi2sd xmm1, DWORD PTR [ecx+128]
  00414	f2 0f 5e c1	 divsd	 xmm0, xmm1
  00418	f2 0f 59 05 00
	00 00 00	 mulsd	 xmm0, QWORD PTR __real@4044000000000000
  00420	f2 0f 2c d0	 cvttsd2si edx, xmm0
  00424	8b 45 f8	 mov	 eax, DWORD PTR _meterX$[ebp]
  00427	8d 4c 10 eb	 lea	 ecx, DWORD PTR [eax+edx-21]
  0042b	51		 push	 ecx
  0042c	8b 55 ec	 mov	 edx, DWORD PTR _meterY$[ebp]
  0042f	52		 push	 edx
  00430	8b 45 f8	 mov	 eax, DWORD PTR _meterX$[ebp]
  00433	83 e8 15	 sub	 eax, 21			; 00000015H
  00436	50		 push	 eax
  00437	e8 00 00 00 00	 call	 ?StockBoxDispBuffer@@YAXHHHHEHH@Z ; StockBoxDispBuffer
  0043c	83 c4 1c	 add	 esp, 28			; 0000001cH

; 461  : 							meterY + 0,
; 462  : 							meterX - 21 + (int)( ( (double)p_party[ no ]->hp / (double)p_party[ no ]->maxHp ) * 40.0 ),
; 463  : 							meterY + 0,
; 464  : 							DISP_PRIO_IME2, SYSTEM_PAL_GREEN, 2 );
; 465  : 		//cary 秀出骑宠的宠物血量 
; 466  : 		if( p_party[ no ]->onRide > 0 ){

  0043f	8b 45 08	 mov	 eax, DWORD PTR _no$[ebp]
  00442	8b 0c 85 00 00
	00 00		 mov	 ecx, DWORD PTR ?p_party@@3PAPAUaction@@A[eax*4]
  00449	83 b9 94 01 00
	00 00		 cmp	 DWORD PTR [ecx+404], 0
  00450	0f 8e e9 00 00
	00		 jle	 $LN10@HpMeterDis

; 467  : 			meterY += 25;

  00456	8b 45 ec	 mov	 eax, DWORD PTR _meterY$[ebp]
  00459	83 c0 19	 add	 eax, 25			; 00000019H
  0045c	89 45 ec	 mov	 DWORD PTR _meterY$[ebp], eax

; 468  : 			meterX += 20;

  0045f	8b 45 f8	 mov	 eax, DWORD PTR _meterX$[ebp]
  00462	83 c0 14	 add	 eax, 20			; 00000014H
  00465	89 45 f8	 mov	 DWORD PTR _meterX$[ebp], eax

; 469  : 			// ?
; 470  : 			StockDispBuffer( meterX , meterY, DISP_PRIO_IME1, CG_BATTLE_BAR_PET, 0 );

  00468	6a 00		 push	 0
  0046a	68 9e 65 00 00	 push	 26014			; 0000659eH
  0046f	6a 66		 push	 102			; 00000066H
  00471	8b 45 ec	 mov	 eax, DWORD PTR _meterY$[ebp]
  00474	50		 push	 eax
  00475	8b 4d f8	 mov	 ecx, DWORD PTR _meterX$[ebp]
  00478	51		 push	 ecx
  00479	e8 00 00 00 00	 call	 ?StockDispBuffer@@YAHHHEHH@Z ; StockDispBuffer
  0047e	83 c4 14	 add	 esp, 20			; 00000014H

; 471  : 			// ?????????
; 472  : 			StockBoxDispBuffer( meterX - 21,

  00481	6a 02		 push	 2
  00483	68 fa 00 00 00	 push	 250			; 000000faH
  00488	6a 67		 push	 103			; 00000067H
  0048a	8b 45 ec	 mov	 eax, DWORD PTR _meterY$[ebp]
  0048d	83 e8 01	 sub	 eax, 1
  00490	50		 push	 eax
  00491	8b 4d 08	 mov	 ecx, DWORD PTR _no$[ebp]
  00494	8b 14 8d 00 00
	00 00		 mov	 edx, DWORD PTR ?p_party@@3PAPAUaction@@A[ecx*4]
  0049b	f2 0f 2a 82 b0
	01 00 00	 cvtsi2sd xmm0, DWORD PTR [edx+432]
  004a3	8b 45 08	 mov	 eax, DWORD PTR _no$[ebp]
  004a6	8b 0c 85 00 00
	00 00		 mov	 ecx, DWORD PTR ?p_party@@3PAPAUaction@@A[eax*4]
  004ad	f2 0f 2a 89 b4
	01 00 00	 cvtsi2sd xmm1, DWORD PTR [ecx+436]
  004b5	f2 0f 5e c1	 divsd	 xmm0, xmm1
  004b9	f2 0f 59 05 00
	00 00 00	 mulsd	 xmm0, QWORD PTR __real@4044000000000000
  004c1	f2 0f 2c d0	 cvttsd2si edx, xmm0
  004c5	8b 45 f8	 mov	 eax, DWORD PTR _meterX$[ebp]
  004c8	8d 4c 10 eb	 lea	 ecx, DWORD PTR [eax+edx-21]
  004cc	51		 push	 ecx
  004cd	8b 55 ec	 mov	 edx, DWORD PTR _meterY$[ebp]
  004d0	83 ea 01	 sub	 edx, 1
  004d3	52		 push	 edx
  004d4	8b 45 f8	 mov	 eax, DWORD PTR _meterX$[ebp]
  004d7	83 e8 15	 sub	 eax, 21			; 00000015H
  004da	50		 push	 eax
  004db	e8 00 00 00 00	 call	 ?StockBoxDispBuffer@@YAXHHHHEHH@Z ; StockBoxDispBuffer
  004e0	83 c4 1c	 add	 esp, 28			; 0000001cH

; 473  : 								meterY - 1,
; 474  : 								meterX - 21 + (int)( ( (double)p_party[ no ]->petHp / (double)p_party[ no ]->petMaxHp ) * 40.0 ),
; 475  : 								meterY - 1,
; 476  : 								DISP_PRIO_IME2, SYSTEM_PAL_GREEN, 2 );
; 477  : 			// ?????????
; 478  : 			StockBoxDispBuffer( meterX - 21,

  004e3	6a 02		 push	 2
  004e5	68 fa 00 00 00	 push	 250			; 000000faH
  004ea	6a 67		 push	 103			; 00000067H
  004ec	8b 45 ec	 mov	 eax, DWORD PTR _meterY$[ebp]
  004ef	50		 push	 eax
  004f0	8b 4d 08	 mov	 ecx, DWORD PTR _no$[ebp]
  004f3	8b 14 8d 00 00
	00 00		 mov	 edx, DWORD PTR ?p_party@@3PAPAUaction@@A[ecx*4]
  004fa	f2 0f 2a 82 b0
	01 00 00	 cvtsi2sd xmm0, DWORD PTR [edx+432]
  00502	8b 45 08	 mov	 eax, DWORD PTR _no$[ebp]
  00505	8b 0c 85 00 00
	00 00		 mov	 ecx, DWORD PTR ?p_party@@3PAPAUaction@@A[eax*4]
  0050c	f2 0f 2a 89 b4
	01 00 00	 cvtsi2sd xmm1, DWORD PTR [ecx+436]
  00514	f2 0f 5e c1	 divsd	 xmm0, xmm1
  00518	f2 0f 59 05 00
	00 00 00	 mulsd	 xmm0, QWORD PTR __real@4044000000000000
  00520	f2 0f 2c d0	 cvttsd2si edx, xmm0
  00524	8b 45 f8	 mov	 eax, DWORD PTR _meterX$[ebp]
  00527	8d 4c 10 eb	 lea	 ecx, DWORD PTR [eax+edx-21]
  0052b	51		 push	 ecx
  0052c	8b 55 ec	 mov	 edx, DWORD PTR _meterY$[ebp]
  0052f	52		 push	 edx
  00530	8b 45 f8	 mov	 eax, DWORD PTR _meterX$[ebp]
  00533	83 e8 15	 sub	 eax, 21			; 00000015H
  00536	50		 push	 eax
  00537	e8 00 00 00 00	 call	 ?StockBoxDispBuffer@@YAXHHHHEHH@Z ; StockBoxDispBuffer
  0053c	83 c4 1c	 add	 esp, 28			; 0000001cH
$LN10@HpMeterDis:
$LN1@HpMeterDis:

; 479  : 								meterY + 0,
; 480  : 								meterX - 21 + (int)( ( (double)p_party[ no ]->petHp / (double)p_party[ no ]->petMaxHp ) * 40.0 ),
; 481  : 								meterY + 0,
; 482  : 								DISP_PRIO_IME2, SYSTEM_PAL_GREEN, 2 );
; 483  : 		}
; 484  : 	}
; 485  : }

  0053f	5f		 pop	 edi
  00540	5e		 pop	 esi
  00541	5b		 pop	 ebx
  00542	81 c4 e4 00 00
	00		 add	 esp, 228		; 000000e4H
  00548	3b ec		 cmp	 ebp, esp
  0054a	e8 00 00 00 00	 call	 __RTC_CheckEsp
  0054f	8b e5		 mov	 esp, ebp
  00551	5d		 pop	 ebp
  00552	c3		 ret	 0
?HpMeterDisp@@YAXH@Z ENDP				; HpMeterDisp
_TEXT	ENDS
; Function compile flags: /Odtp /RTCsu /ZI
; File c:\users\administrator\desktop\????? ??\????? ??\client source code\system\battlemenu.cpp
;	COMDAT ?CheckBattle1P2P@@YAHXZ
_TEXT	SEGMENT
_cnt$ = -20						; size = 4
_i$ = -8						; size = 4
?CheckBattle1P2P@@YAHXZ PROC				; CheckBattle1P2P, COMDAT

; 199  : {

  00000	55		 push	 ebp
  00001	8b ec		 mov	 ebp, esp
  00003	81 ec d8 00 00
	00		 sub	 esp, 216		; 000000d8H
  00009	53		 push	 ebx
  0000a	56		 push	 esi
  0000b	57		 push	 edi
  0000c	8d bd 28 ff ff
	ff		 lea	 edi, DWORD PTR [ebp-216]
  00012	b9 36 00 00 00	 mov	 ecx, 54			; 00000036H
  00017	b8 cc cc cc cc	 mov	 eax, -858993460		; ccccccccH
  0001c	f3 ab		 rep stosd

; 200  : 	int i, cnt = 0;

  0001e	c7 45 ec 00 00
	00 00		 mov	 DWORD PTR _cnt$[ebp], 0

; 201  : 	// ?????
; 202  : 	for( i = 0 ; i < 20 ; i++ ){

  00025	c7 45 f8 00 00
	00 00		 mov	 DWORD PTR _i$[ebp], 0
  0002c	eb 09		 jmp	 SHORT $LN4@CheckBattl
$LN2@CheckBattl:
  0002e	8b 45 f8	 mov	 eax, DWORD PTR _i$[ebp]
  00031	83 c0 01	 add	 eax, 1
  00034	89 45 f8	 mov	 DWORD PTR _i$[ebp], eax
$LN4@CheckBattl:
  00037	83 7d f8 14	 cmp	 DWORD PTR _i$[ebp], 20	; 00000014H
  0003b	7d 36		 jge	 SHORT $LN3@CheckBattl

; 203  : 		// ??????????
; 204  : 		if( p_party[ i ]->func == NULL ) continue;

  0003d	8b 45 f8	 mov	 eax, DWORD PTR _i$[ebp]
  00040	8b 0c 85 00 00
	00 00		 mov	 ecx, DWORD PTR ?p_party@@3PAPAUaction@@A[eax*4]
  00047	83 79 08 00	 cmp	 DWORD PTR [ecx+8], 0
  0004b	75 02		 jne	 SHORT $LN5@CheckBattl
  0004d	eb df		 jmp	 SHORT $LN2@CheckBattl
$LN5@CheckBattl:

; 205  : 		// ???????
; 206  : 		if( ( (ATR_EQU *)p_party[ i ]->pYobi )->pet_ok == TRUE ) cnt++;

  0004f	8b 45 f8	 mov	 eax, DWORD PTR _i$[ebp]
  00052	8b 0c 85 00 00
	00 00		 mov	 ecx, DWORD PTR ?p_party@@3PAPAUaction@@A[eax*4]
  00059	8b 51 0c	 mov	 edx, DWORD PTR [ecx+12]
  0005c	0f b6 82 20 01
	00 00		 movzx	 eax, BYTE PTR [edx+288]
  00063	83 f8 01	 cmp	 eax, 1
  00066	75 09		 jne	 SHORT $LN6@CheckBattl
  00068	8b 45 ec	 mov	 eax, DWORD PTR _cnt$[ebp]
  0006b	83 c0 01	 add	 eax, 1
  0006e	89 45 ec	 mov	 DWORD PTR _cnt$[ebp], eax
$LN6@CheckBattl:

; 207  : 	}

  00071	eb bb		 jmp	 SHORT $LN2@CheckBattl
$LN3@CheckBattl:

; 208  : 	if( cnt >= 2 ) return 2;

  00073	83 7d ec 02	 cmp	 DWORD PTR _cnt$[ebp], 2
  00077	7c 09		 jl	 SHORT $LN7@CheckBattl
  00079	b8 02 00 00 00	 mov	 eax, 2
  0007e	eb 07		 jmp	 SHORT $LN1@CheckBattl
  00080	eb 05		 jmp	 SHORT $LN1@CheckBattl
$LN7@CheckBattl:

; 209  : 	else return 1;

  00082	b8 01 00 00 00	 mov	 eax, 1
$LN1@CheckBattl:

; 210  : }

  00087	5f		 pop	 edi
  00088	5e		 pop	 esi
  00089	5b		 pop	 ebx
  0008a	8b e5		 mov	 esp, ebp
  0008c	5d		 pop	 ebp
  0008d	c3		 ret	 0
?CheckBattle1P2P@@YAHXZ ENDP				; CheckBattle1P2P
_TEXT	ENDS
; Function compile flags: /Odtp /RTCsu /ZI
; File c:\users\administrator\desktop\????? ??\????? ??\client source code\system\battlemenu.cpp
;	COMDAT ?CheckBattleAnimFlag@@YAXXZ
_TEXT	SEGMENT
_i$ = -8						; size = 4
?CheckBattleAnimFlag@@YAXXZ PROC			; CheckBattleAnimFlag, COMDAT

; 214  : {

  00000	55		 push	 ebp
  00001	8b ec		 mov	 ebp, esp
  00003	81 ec cc 00 00
	00		 sub	 esp, 204		; 000000ccH
  00009	53		 push	 ebx
  0000a	56		 push	 esi
  0000b	57		 push	 edi
  0000c	8d bd 34 ff ff
	ff		 lea	 edi, DWORD PTR [ebp-204]
  00012	b9 33 00 00 00	 mov	 ecx, 51			; 00000033H
  00017	b8 cc cc cc cc	 mov	 eax, -858993460		; ccccccccH
  0001c	f3 ab		 rep stosd

; 215  : 	int i;
; 216  : 	// ????????????????????????????
; 217  : 	if( BattleCliTurnNo != BattleSvTurnNo ){ 

  0001e	a1 00 00 00 00	 mov	 eax, DWORD PTR ?BattleCliTurnNo@@3HA ; BattleCliTurnNo
  00023	3b 05 00 00 00
	00		 cmp	 eax, DWORD PTR ?BattleSvTurnNo@@3HA ; BattleSvTurnNo
  00029	74 3f		 je	 SHORT $LN8@CheckBattl

; 218  : 		// ?????
; 219  : 		for( i = 0 ; i < 20 ; i++ ){

  0002b	c7 45 f8 00 00
	00 00		 mov	 DWORD PTR _i$[ebp], 0
  00032	eb 09		 jmp	 SHORT $LN4@CheckBattl
$LN2@CheckBattl:
  00034	8b 45 f8	 mov	 eax, DWORD PTR _i$[ebp]
  00037	83 c0 01	 add	 eax, 1
  0003a	89 45 f8	 mov	 DWORD PTR _i$[ebp], eax
$LN4@CheckBattl:
  0003d	83 7d f8 14	 cmp	 DWORD PTR _i$[ebp], 20	; 00000014H
  00041	7d 25		 jge	 SHORT $LN3@CheckBattl

; 220  : 			// ???????
; 221  : 			p_party[ i ]->atr |= ACT_ATR_BTL_CMD_END;

  00043	8b 45 f8	 mov	 eax, DWORD PTR _i$[ebp]
  00046	8b 0c 85 00 00
	00 00		 mov	 ecx, DWORD PTR ?p_party@@3PAPAUaction@@A[eax*4]
  0004d	8b 91 a4 00 00
	00		 mov	 edx, DWORD PTR [ecx+164]
  00053	83 ca 40	 or	 edx, 64			; 00000040H
  00056	8b 45 f8	 mov	 eax, DWORD PTR _i$[ebp]
  00059	8b 0c 85 00 00
	00 00		 mov	 ecx, DWORD PTR ?p_party@@3PAPAUaction@@A[eax*4]
  00060	89 91 a4 00 00
	00		 mov	 DWORD PTR [ecx+164], edx

; 222  : 		}

  00066	eb cc		 jmp	 SHORT $LN2@CheckBattl
$LN3@CheckBattl:

; 223  : 		return;

  00068	eb 4c		 jmp	 SHORT $LN1@CheckBattl
$LN8@CheckBattl:

; 224  : 	}
; 225  : 	// ?????
; 226  : 	for( i = 0 ; i < 20 ; i++ ){

  0006a	c7 45 f8 00 00
	00 00		 mov	 DWORD PTR _i$[ebp], 0
  00071	eb 09		 jmp	 SHORT $LN7@CheckBattl
$LN5@CheckBattl:
  00073	8b 45 f8	 mov	 eax, DWORD PTR _i$[ebp]
  00076	83 c0 01	 add	 eax, 1
  00079	89 45 f8	 mov	 DWORD PTR _i$[ebp], eax
$LN7@CheckBattl:
  0007c	83 7d f8 14	 cmp	 DWORD PTR _i$[ebp], 20	; 00000014H
  00080	7d 34		 jge	 SHORT $LN1@CheckBattl

; 227  : 		// ???????
; 228  : 		if( ( BattleAnimFlag >> i ) & 0x00000001 )

  00082	a1 00 00 00 00	 mov	 eax, DWORD PTR ?BattleAnimFlag@@3HA ; BattleAnimFlag
  00087	8b 4d f8	 mov	 ecx, DWORD PTR _i$[ebp]
  0008a	d3 f8		 sar	 eax, cl
  0008c	83 e0 01	 and	 eax, 1
  0008f	74 23		 je	 SHORT $LN9@CheckBattl

; 229  : 			p_party[ i ]->atr |= ACT_ATR_BTL_CMD_END;

  00091	8b 45 f8	 mov	 eax, DWORD PTR _i$[ebp]
  00094	8b 0c 85 00 00
	00 00		 mov	 ecx, DWORD PTR ?p_party@@3PAPAUaction@@A[eax*4]
  0009b	8b 91 a4 00 00
	00		 mov	 edx, DWORD PTR [ecx+164]
  000a1	83 ca 40	 or	 edx, 64			; 00000040H
  000a4	8b 45 f8	 mov	 eax, DWORD PTR _i$[ebp]
  000a7	8b 0c 85 00 00
	00 00		 mov	 ecx, DWORD PTR ?p_party@@3PAPAUaction@@A[eax*4]
  000ae	89 91 a4 00 00
	00		 mov	 DWORD PTR [ecx+164], edx
$LN9@CheckBattl:

; 230  : 	}

  000b4	eb bd		 jmp	 SHORT $LN5@CheckBattl
$LN1@CheckBattl:

; 231  : }

  000b6	5f		 pop	 edi
  000b7	5e		 pop	 esi
  000b8	5b		 pop	 ebx
  000b9	8b e5		 mov	 esp, ebp
  000bb	5d		 pop	 ebp
  000bc	c3		 ret	 0
?CheckBattleAnimFlag@@YAXXZ ENDP			; CheckBattleAnimFlag
_TEXT	ENDS
; Function compile flags: /Odtp /RTCsu /ZI
; File c:\users\administrator\desktop\????? ??\????? ??\client source code\system\battlemenu.cpp
;	COMDAT ?InitBattleMenu@@YAXXZ
_TEXT	SEGMENT
_i$ = -8						; size = 4
?InitBattleMenu@@YAXXZ PROC				; InitBattleMenu, COMDAT

; 155  : {

  00000	55		 push	 ebp
  00001	8b ec		 mov	 ebp, esp
  00003	81 ec cc 00 00
	00		 sub	 esp, 204		; 000000ccH
  00009	53		 push	 ebx
  0000a	56		 push	 esi
  0000b	57		 push	 edi
  0000c	8d bd 34 ff ff
	ff		 lea	 edi, DWORD PTR [ebp-204]
  00012	b9 33 00 00 00	 mov	 ecx, 51			; 00000033H
  00017	b8 cc cc cc cc	 mov	 eax, -858993460		; ccccccccH
  0001c	f3 ab		 rep stosd

; 156  : 	int i;
; 157  : 	// ???
; 158  : 	for( i = 0 ; i < BATTLE_BUTTON_SUU ; i++ ) battleButtonDispNo[ i ] = -2;

  0001e	c7 45 f8 00 00
	00 00		 mov	 DWORD PTR _i$[ebp], 0
  00025	eb 09		 jmp	 SHORT $LN4@InitBattle
$LN2@InitBattle:
  00027	8b 45 f8	 mov	 eax, DWORD PTR _i$[ebp]
  0002a	83 c0 01	 add	 eax, 1
  0002d	89 45 f8	 mov	 DWORD PTR _i$[ebp], eax
$LN4@InitBattle:
  00030	83 7d f8 0a	 cmp	 DWORD PTR _i$[ebp], 10	; 0000000aH
  00034	7d 10		 jge	 SHORT $LN3@InitBattle
  00036	8b 45 f8	 mov	 eax, DWORD PTR _i$[ebp]
  00039	c7 04 85 00 00
	00 00 fe ff ff
	ff		 mov	 DWORD PTR ?battleButtonDispNo@@3PAHA[eax*4], -2 ; fffffffeH
  00044	eb e1		 jmp	 SHORT $LN2@InitBattle
$LN3@InitBattle:

; 159  : 	// 
; 160  : 	for( i = 0 ; i < BATTLE_MENU_JUJUTSU_FONTS ; i++ ) battleMenuJujutsuFontNo[ i ] = -2;

  00046	c7 45 f8 00 00
	00 00		 mov	 DWORD PTR _i$[ebp], 0
  0004d	eb 09		 jmp	 SHORT $LN7@InitBattle
$LN5@InitBattle:
  0004f	8b 45 f8	 mov	 eax, DWORD PTR _i$[ebp]
  00052	83 c0 01	 add	 eax, 1
  00055	89 45 f8	 mov	 DWORD PTR _i$[ebp], eax
$LN7@InitBattle:
  00058	83 7d f8 06	 cmp	 DWORD PTR _i$[ebp], 6
  0005c	7d 10		 jge	 SHORT $LN6@InitBattle
  0005e	8b 45 f8	 mov	 eax, DWORD PTR _i$[ebp]
  00061	c7 04 85 00 00
	00 00 fe ff ff
	ff		 mov	 DWORD PTR ?battleMenuJujutsuFontNo@@3PAHA[eax*4], -2 ; fffffffeH
  0006c	eb e1		 jmp	 SHORT $LN5@InitBattle
$LN6@InitBattle:

; 161  : 	// ????
; 162  : 	for( i = 0 ; i < BATTLE_MENU_ITEM_FONTS ; i++ ) battleMenuItemFontNo[ i ] = -2;

  0006e	c7 45 f8 00 00
	00 00		 mov	 DWORD PTR _i$[ebp], 0
  00075	eb 09		 jmp	 SHORT $LN10@InitBattle
$LN8@InitBattle:
  00077	8b 45 f8	 mov	 eax, DWORD PTR _i$[ebp]
  0007a	83 c0 01	 add	 eax, 1
  0007d	89 45 f8	 mov	 DWORD PTR _i$[ebp], eax
$LN10@InitBattle:
  00080	83 7d f8 06	 cmp	 DWORD PTR _i$[ebp], 6
  00084	7d 10		 jge	 SHORT $LN9@InitBattle
  00086	8b 45 f8	 mov	 eax, DWORD PTR _i$[ebp]
  00089	c7 04 85 00 00
	00 00 fe ff ff
	ff		 mov	 DWORD PTR ?battleMenuItemFontNo@@3PAHA[eax*4], -2 ; fffffffeH
  00094	eb e1		 jmp	 SHORT $LN8@InitBattle
$LN9@InitBattle:

; 163  : 	// ???
; 164  : 	for( i = 0 ; i < BATTLE_MENU_PET_FONTS ; i++ ) battleMenuPetFontNo[ i ] = -2;

  00096	c7 45 f8 00 00
	00 00		 mov	 DWORD PTR _i$[ebp], 0
  0009d	eb 09		 jmp	 SHORT $LN13@InitBattle
$LN11@InitBattle:
  0009f	8b 45 f8	 mov	 eax, DWORD PTR _i$[ebp]
  000a2	83 c0 01	 add	 eax, 1
  000a5	89 45 f8	 mov	 DWORD PTR _i$[ebp], eax
$LN13@InitBattle:
  000a8	83 7d f8 07	 cmp	 DWORD PTR _i$[ebp], 7
  000ac	7d 10		 jge	 SHORT $LN12@InitBattle
  000ae	8b 45 f8	 mov	 eax, DWORD PTR _i$[ebp]
  000b1	c7 04 85 00 00
	00 00 fe ff ff
	ff		 mov	 DWORD PTR ?battleMenuPetFontNo@@3PAHA[eax*4], -2 ; fffffffeH
  000bc	eb e1		 jmp	 SHORT $LN11@InitBattle
$LN12@InitBattle:

; 165  : 	// ?
; 166  : 	for( i = 0 ; i < BATTLE_MENU_WAZA_FONTS ; i++ ) battleMenuWazaFontNo[ i ] = -2;

  000be	c7 45 f8 00 00
	00 00		 mov	 DWORD PTR _i$[ebp], 0
  000c5	eb 09		 jmp	 SHORT $LN16@InitBattle
$LN14@InitBattle:
  000c7	8b 45 f8	 mov	 eax, DWORD PTR _i$[ebp]
  000ca	83 c0 01	 add	 eax, 1
  000cd	89 45 f8	 mov	 DWORD PTR _i$[ebp], eax
$LN16@InitBattle:
  000d0	83 7d f8 09	 cmp	 DWORD PTR _i$[ebp], 9
  000d4	7d 10		 jge	 SHORT $LN15@InitBattle
  000d6	8b 45 f8	 mov	 eax, DWORD PTR _i$[ebp]
  000d9	c7 04 85 00 00
	00 00 fe ff ff
	ff		 mov	 DWORD PTR ?battleMenuWazaFontNo@@3PAHA[eax*4], -2 ; fffffffeH
  000e4	eb e1		 jmp	 SHORT $LN14@InitBattle
$LN15@InitBattle:

; 167  : 
; 168  : 	battleMenuFlag = FALSE;				// ??????????

  000e6	c7 05 00 00 00
	00 00 00 00 00	 mov	 DWORD PTR ?battleMenuFlag@@3HA, 0 ; battleMenuFlag

; 169  : 	battleMenuReturn = TRUE;			// ????????????

  000f0	c7 05 00 00 00
	00 01 00 00 00	 mov	 DWORD PTR ?battleMenuReturn@@3HA, 1

; 170  : //	battleButtonBak = -1;				// ???????
; 171  : 	battleButtonBak2 = -1;				// ????????

  000fa	c7 05 00 00 00
	00 ff ff ff ff	 mov	 DWORD PTR ?battleButtonBak2@@3HA, -1

; 172  : 	BattleEscFlag = FALSE;				// ????????

  00104	c7 05 00 00 00
	00 00 00 00 00	 mov	 DWORD PTR ?BattleEscFlag@@3HA, 0 ; BattleEscFlag

; 173  : 	// ??????????
; 174  : 	BattleResultWndFlag = FALSE;

  0010e	c7 05 00 00 00
	00 00 00 00 00	 mov	 DWORD PTR ?BattleResultWndFlag@@3HA, 0 ; BattleResultWndFlag

; 175  : 	// ?????????
; 176  : 	ClearBattleButton();

  00118	e8 00 00 00 00	 call	 ?ClearBattleButton@@YAXXZ ; ClearBattleButton

; 177  : 	// ?????????????
; 178  : 	battleButtonBak = 0;

  0011d	c7 05 00 00 00
	00 00 00 00 00	 mov	 DWORD PTR ?battleButtonBak@@3HA, 0 ; battleButtonBak

; 179  : #ifdef __AI
; 180  : 	extern int AI_First;
; 181  : 	AI_First = 1;

  00127	c7 05 00 00 00
	00 01 00 00 00	 mov	 DWORD PTR ?AI_First@@3HA, 1 ; AI_First

; 182  : #else
; 183  : 	if( AI != AI_NONE)
; 184  : 		battleButtonBak = -1;
; 185  : #endif
; 186  : 	pActWnd = NULL;				// ????????????

  00131	c7 05 00 00 00
	00 00 00 00 00	 mov	 DWORD PTR ?pActWnd@@3PAUaction@@A, 0

; 187  : 	pActInfoWnd = NULL;

  0013b	c7 05 00 00 00
	00 00 00 00 00	 mov	 DWORD PTR ?pActInfoWnd@@3PAUaction@@A, 0

; 188  : 	// ?????????????
; 189  : 	if( battlePetNoBak != -2 ){

  00145	83 3d 00 00 00
	00 fe		 cmp	 DWORD PTR ?battlePetNoBak@@3HA, -2 ; battlePetNoBak, fffffffeH
  0014c	74 0c		 je	 SHORT $LN17@InitBattle

; 190  : 		battlePetButtonFlag = FALSE;			// ????????

  0014e	c7 05 00 00 00
	00 00 00 00 00	 mov	 DWORD PTR ?battlePetButtonFlag@@3HA, 0 ; battlePetButtonFlag

; 191  : 	}else{

  00158	eb 0a		 jmp	 SHORT $LN1@InitBattle
$LN17@InitBattle:

; 192  : 		battlePetButtonFlag = TRUE;			// ????????

  0015a	c7 05 00 00 00
	00 01 00 00 00	 mov	 DWORD PTR ?battlePetButtonFlag@@3HA, 1 ; battlePetButtonFlag
$LN1@InitBattle:

; 193  : 	}
; 194  : 
; 195  : }

  00164	5f		 pop	 edi
  00165	5e		 pop	 esi
  00166	5b		 pop	 ebx
  00167	81 c4 cc 00 00
	00		 add	 esp, 204		; 000000ccH
  0016d	3b ec		 cmp	 ebp, esp
  0016f	e8 00 00 00 00	 call	 __RTC_CheckEsp
  00174	8b e5		 mov	 esp, ebp
  00176	5d		 pop	 ebp
  00177	c3		 ret	 0
?InitBattleMenu@@YAXXZ ENDP				; InitBattleMenu
_TEXT	ENDS
; Function compile flags: /Odtp /RTCsu /ZI
; File c:\users\administrator\desktop\????? ??\????? ??\client source code\system\battlemenu.cpp
;	COMDAT ?ClearBattleButton@@YAXXZ
_TEXT	SEGMENT
?ClearBattleButton@@YAXXZ PROC				; ClearBattleButton, COMDAT

; 343  : {

  00000	55		 push	 ebp
  00001	8b ec		 mov	 ebp, esp
  00003	81 ec c0 00 00
	00		 sub	 esp, 192		; 000000c0H
  00009	53		 push	 ebx
  0000a	56		 push	 esi
  0000b	57		 push	 edi
  0000c	8d bd 40 ff ff
	ff		 lea	 edi, DWORD PTR [ebp-192]
  00012	b9 30 00 00 00	 mov	 ecx, 48			; 00000030H
  00017	b8 cc cc cc cc	 mov	 eax, -858993460		; ccccccccH
  0001c	f3 ab		 rep stosd

; 344  : 	// ????
; 345  : 	memset( battleButtonFlag, 0, sizeof( battleButtonFlag ) );

  0001e	6a 28		 push	 40			; 00000028H
  00020	6a 00		 push	 0
  00022	68 00 00 00 00	 push	 OFFSET ?battleButtonFlag@@3PAHA
  00027	e8 00 00 00 00	 call	 _memset
  0002c	83 c4 0c	 add	 esp, 12			; 0000000cH

; 346  : }

  0002f	5f		 pop	 edi
  00030	5e		 pop	 esi
  00031	5b		 pop	 ebx
  00032	81 c4 c0 00 00
	00		 add	 esp, 192		; 000000c0H
  00038	3b ec		 cmp	 ebp, esp
  0003a	e8 00 00 00 00	 call	 __RTC_CheckEsp
  0003f	8b e5		 mov	 esp, ebp
  00041	5d		 pop	 ebp
  00042	c3		 ret	 0
?ClearBattleButton@@YAXXZ ENDP				; ClearBattleButton
_TEXT	ENDS
; Function compile flags: /Odtp /RTCsu /ZI
; File c:\users\administrator\desktop\????? ??\????? ??\client source code\system\battlemenu.cpp
;	COMDAT ?BattleMenuProc@@YAXXZ
_TEXT	SEGMENT
_i$ = -276						; size = 4
_moji$ = -264						; size = 256
__$ArrayPad$ = -4					; size = 4
?BattleMenuProc@@YAXXZ PROC				; BattleMenuProc, COMDAT

; 3430 : {

  00000	55		 push	 ebp
  00001	8b ec		 mov	 ebp, esp
  00003	81 ec d8 01 00
	00		 sub	 esp, 472		; 000001d8H
  00009	53		 push	 ebx
  0000a	56		 push	 esi
  0000b	57		 push	 edi
  0000c	8d bd 28 fe ff
	ff		 lea	 edi, DWORD PTR [ebp-472]
  00012	b9 76 00 00 00	 mov	 ecx, 118		; 00000076H
  00017	b8 cc cc cc cc	 mov	 eax, -858993460		; ccccccccH
  0001c	f3 ab		 rep stosd
  0001e	a1 00 00 00 00	 mov	 eax, DWORD PTR ___security_cookie
  00023	33 c5		 xor	 eax, ebp
  00025	89 45 fc	 mov	 DWORD PTR __$ArrayPad$[ebp], eax

; 3431 : 	char moji[ 256 ];
; 3432 : 	int i;
; 3433 : 
; 3434 : 	if( BattleMyNo >= 20 ){

  00028	83 3d 00 00 00
	00 14		 cmp	 DWORD PTR ?BattleMyNo@@3HA, 20 ; BattleMyNo, 00000014H
  0002f	7c 48		 jl	 SHORT $LN11@BattleMenu

; 3435 : 
; 3436 : 		if( bNewServer)

  00031	83 3d 00 00 00
	00 00		 cmp	 DWORD PTR ?bNewServer@@3HA, 0 ; bNewServer
  00038	74 15		 je	 SHORT $LN12@BattleMenu

; 3437 : 			lssproto_B_send( sockfd, "N" );

  0003a	68 00 00 00 00	 push	 OFFSET ??_C@_01NANMIPIL@N?$AA@
  0003f	a1 00 00 00 00	 mov	 eax, DWORD PTR ?sockfd@@3IA ; sockfd
  00044	50		 push	 eax
  00045	e8 00 00 00 00	 call	 ?lssproto_B_send@@YAXHPAD@Z ; lssproto_B_send
  0004a	83 c4 08	 add	 esp, 8

; 3438 : 		else

  0004d	eb 13		 jmp	 SHORT $LN13@BattleMenu
$LN12@BattleMenu:

; 3439 : 			old_lssproto_B_send( sockfd, "N" );

  0004f	68 00 00 00 00	 push	 OFFSET ??_C@_01NANMIPIL@N?$AA@
  00054	a1 00 00 00 00	 mov	 eax, DWORD PTR ?sockfd@@3IA ; sockfd
  00059	50		 push	 eax
  0005a	e8 00 00 00 00	 call	 ?old_lssproto_B_send@@YAXHPAD@Z ; old_lssproto_B_send
  0005f	83 c4 08	 add	 esp, 8
$LN13@BattleMenu:

; 3440 : 
; 3441 : 		InitBattleAnimFlag();

  00062	e8 00 00 00 00	 call	 ?InitBattleAnimFlag@@YAXXZ ; InitBattleAnimFlag

; 3442 : 
; 3443 : 		SubProcNo++;

  00067	a1 00 00 00 00	 mov	 eax, DWORD PTR ?SubProcNo@@3IA ; SubProcNo
  0006c	83 c0 01	 add	 eax, 1
  0006f	a3 00 00 00 00	 mov	 DWORD PTR ?SubProcNo@@3IA, eax ; SubProcNo

; 3444 : 		return;

  00074	e9 ef 09 00 00	 jmp	 $LN1@BattleMenu
$LN11@BattleMenu:

; 3445 : 	}
; 3446 : 
; 3447 : 	if( BattleMyNo < 10 ){

  00079	83 3d 00 00 00
	00 0a		 cmp	 DWORD PTR ?BattleMyNo@@3HA, 10 ; BattleMyNo, 0000000aH
  00080	7d 37		 jge	 SHORT $LN14@BattleMenu

; 3448 : 		//for( i  = 0 ; i < 10 ; i++ ) HpMeterDisp( i ); // ??????
; 3449 : 		for (i = 0; i < 20; i++) HpMeterDisp(i); // ??????

  00082	c7 85 ec fe ff
	ff 00 00 00 00	 mov	 DWORD PTR _i$[ebp], 0
  0008c	eb 0f		 jmp	 SHORT $LN4@BattleMenu
$LN2@BattleMenu:
  0008e	8b 85 ec fe ff
	ff		 mov	 eax, DWORD PTR _i$[ebp]
  00094	83 c0 01	 add	 eax, 1
  00097	89 85 ec fe ff
	ff		 mov	 DWORD PTR _i$[ebp], eax
$LN4@BattleMenu:
  0009d	83 bd ec fe ff
	ff 14		 cmp	 DWORD PTR _i$[ebp], 20	; 00000014H
  000a4	7d 11		 jge	 SHORT $LN3@BattleMenu
  000a6	8b 85 ec fe ff
	ff		 mov	 eax, DWORD PTR _i$[ebp]
  000ac	50		 push	 eax
  000ad	e8 00 00 00 00	 call	 ?HpMeterDisp@@YAXH@Z	; HpMeterDisp
  000b2	83 c4 04	 add	 esp, 4
  000b5	eb d7		 jmp	 SHORT $LN2@BattleMenu
$LN3@BattleMenu:

; 3450 : 	}else 

  000b7	eb 3e		 jmp	 SHORT $LN15@BattleMenu
$LN14@BattleMenu:

; 3451 : 
; 3452 : 	if( BattleMyNo >= 10 ){ 

  000b9	83 3d 00 00 00
	00 0a		 cmp	 DWORD PTR ?BattleMyNo@@3HA, 10 ; BattleMyNo, 0000000aH
  000c0	7c 35		 jl	 SHORT $LN15@BattleMenu

; 3453 : 		//for( i = 10 ; i < 20 ; i++ ) HpMeterDisp( i ); // ??????
; 3454 : 		for (i = 0; i < 20; i++) HpMeterDisp(i); // ??????

  000c2	c7 85 ec fe ff
	ff 00 00 00 00	 mov	 DWORD PTR _i$[ebp], 0
  000cc	eb 0f		 jmp	 SHORT $LN7@BattleMenu
$LN5@BattleMenu:
  000ce	8b 85 ec fe ff
	ff		 mov	 eax, DWORD PTR _i$[ebp]
  000d4	83 c0 01	 add	 eax, 1
  000d7	89 85 ec fe ff
	ff		 mov	 DWORD PTR _i$[ebp], eax
$LN7@BattleMenu:
  000dd	83 bd ec fe ff
	ff 14		 cmp	 DWORD PTR _i$[ebp], 20	; 00000014H
  000e4	7d 11		 jge	 SHORT $LN15@BattleMenu
  000e6	8b 85 ec fe ff
	ff		 mov	 eax, DWORD PTR _i$[ebp]
  000ec	50		 push	 eax
  000ed	e8 00 00 00 00	 call	 ?HpMeterDisp@@YAXH@Z	; HpMeterDisp
  000f2	83 c4 04	 add	 esp, 4
  000f5	eb d7		 jmp	 SHORT $LN5@BattleMenu
$LN15@BattleMenu:

; 3455 : 	}
; 3456 : 
; 3457 : 	if( p_party[ BattleMyNo ]->hp > 0 && 

  000f7	a1 00 00 00 00	 mov	 eax, DWORD PTR ?BattleMyNo@@3HA ; BattleMyNo
  000fc	8b 0c 85 00 00
	00 00		 mov	 ecx, DWORD PTR ?p_party@@3PAPAUaction@@A[eax*4]
  00103	83 79 78 00	 cmp	 DWORD PTR [ecx+120], 0
  00107	7e 3c		 jle	 SHORT $LN17@BattleMenu
  00109	a1 00 00 00 00	 mov	 eax, DWORD PTR ?BattleBpFlag@@3HA ; BattleBpFlag
  0010e	83 e0 02	 and	 eax, 2
  00111	74 0a		 je	 SHORT $LN18@BattleMenu
  00113	a1 00 00 00 00	 mov	 eax, DWORD PTR ?BattleBpFlag@@3HA ; BattleBpFlag
  00118	83 e0 08	 and	 eax, 8
  0011b	75 28		 jne	 SHORT $LN17@BattleMenu
$LN18@BattleMenu:

; 3458 : 		!( BattleBpFlag & BATTLE_BP_PLAYER_MENU_NON && BattleBpFlag & BATTLE_BP_PET_MENU_NON ) ){
; 3459 : 
; 3460 : 		if( battleTargetSelectFlag ){ 

  0011d	83 3d 00 00 00
	00 00		 cmp	 DWORD PTR ?battleTargetSelectFlag@@3HA, 0
  00124	74 07		 je	 SHORT $LN19@BattleMenu

; 3461 : 			BattleTargetSelect();

  00126	e8 00 00 00 00	 call	 ?BattleTargetSelect@@YAXXZ ; BattleTargetSelect

; 3462 : 		}else{

  0012b	eb 18		 jmp	 SHORT $LN17@BattleMenu
$LN19@BattleMenu:

; 3463 : 
; 3464 : 			DeathAction( pActInfoWnd );

  0012d	a1 00 00 00 00	 mov	 eax, DWORD PTR ?pActInfoWnd@@3PAUaction@@A
  00132	50		 push	 eax
  00133	e8 00 00 00 00	 call	 ?DeathAction@@YAXPAUaction@@@Z ; DeathAction
  00138	83 c4 04	 add	 esp, 4

; 3465 : 			pActInfoWnd = NULL;

  0013b	c7 05 00 00 00
	00 00 00 00 00	 mov	 DWORD PTR ?pActInfoWnd@@3PAUaction@@A, 0
$LN17@BattleMenu:

; 3466 : 		}
; 3467 : 	}
; 3468 : 
; 3469 : 	if( battleMenuFlag2 == TRUE ){

  00145	83 3d 00 00 00
	00 01		 cmp	 DWORD PTR ?battleMenuFlag2@@3HA, 1 ; battleMenuFlag2
  0014c	0f 85 d0 01 00
	00		 jne	 $LN21@BattleMenu

; 3470 : 		buttonX = 815 + DISPLACEMENT_X;

  00152	a1 00 00 00 00	 mov	 eax, DWORD PTR ?DISPLACEMENT_X@@3HA ; DISPLACEMENT_X
  00157	05 2f 03 00 00	 add	 eax, 815		; 0000032fH
  0015c	a3 00 00 00 00	 mov	 DWORD PTR ?buttonX@@3HA, eax

; 3471 : 		buttonY = 65 ;

  00161	c7 05 00 00 00
	00 41 00 00 00	 mov	 DWORD PTR ?buttonY@@3HA, 65 ; 00000041H

; 3472 : 		buttonA = 25;

  0016b	c7 05 00 00 00
	00 19 00 00 00	 mov	 DWORD PTR ?buttonA@@3HA, 25 ; 00000019H

; 3473 : 
; 3474 : 		InitBattleAnimFlag();

  00175	e8 00 00 00 00	 call	 ?InitBattleAnimFlag@@YAXXZ ; InitBattleAnimFlag

; 3475 : 
; 3476 : 		battlePlayerEscFlag = FALSE;

  0017a	c7 05 00 00 00
	00 00 00 00 00	 mov	 DWORD PTR ?battlePlayerEscFlag@@3HA, 0 ; battlePlayerEscFlag

; 3477 : 
; 3478 : 		BattleCntDownFlag = TRUE;

  00184	c7 05 00 00 00
	00 01 00 00 00	 mov	 DWORD PTR ?BattleCntDownFlag@@3HA, 1 ; BattleCntDownFlag

; 3479 : 
; 3480 : 		//JL 2016.9.16 战斗时间120秒
; 3481 : //		BattleCntDown = TimeGetTime() + 120999;
; 3482 : 		BattleCntDown = TimeGetTime() + 99999;

  0018e	e8 00 00 00 00	 call	 ?TimeGetTime@@YAIXZ	; TimeGetTime
  00193	05 9f 86 01 00	 add	 eax, 99999		; 0001869fH
  00198	a3 00 00 00 00	 mov	 DWORD PTR ?BattleCntDown@@3KA, eax ; BattleCntDown

; 3483 : 
; 3484 : 		BattleIntervalCnt = 0;

  0019d	c7 05 00 00 00
	00 00 00 00 00	 mov	 DWORD PTR ?BattleIntervalCnt@@3KA, 0 ; BattleIntervalCnt

; 3485 : 
; 3486 : 		if( pc.battlePetNo == battlePetNoBak ){

  001a7	0f bf 05 aa 00
	00 00		 movsx	 eax, WORD PTR ?pc@@3UPC@@A+170
  001ae	3b 05 00 00 00
	00		 cmp	 eax, DWORD PTR ?battlePetNoBak@@3HA ; battlePetNoBak
  001b4	75 21		 jne	 SHORT $LN22@BattleMenu

; 3487 : 
; 3488 : 			if( battleWazaTargetBak != -1 ){

  001b6	83 3d 00 00 00
	00 ff		 cmp	 DWORD PTR ?battleWazaTargetBak@@3HA, -1 ; battleWazaTargetBak
  001bd	74 0c		 je	 SHORT $LN24@BattleMenu

; 3489 : 				battlePetButtonFlag = FALSE;

  001bf	c7 05 00 00 00
	00 00 00 00 00	 mov	 DWORD PTR ?battlePetButtonFlag@@3HA, 0 ; battlePetButtonFlag

; 3490 : 			}else{

  001c9	eb 0a		 jmp	 SHORT $LN25@BattleMenu
$LN24@BattleMenu:

; 3491 : 				battlePetButtonFlag = TRUE;

  001cb	c7 05 00 00 00
	00 01 00 00 00	 mov	 DWORD PTR ?battlePetButtonFlag@@3HA, 1 ; battlePetButtonFlag
$LN25@BattleMenu:

; 3492 : 			}
; 3493 : 		}else{

  001d5	eb 14		 jmp	 SHORT $LN23@BattleMenu
$LN22@BattleMenu:

; 3494 : 			battlePetButtonFlag = TRUE;

  001d7	c7 05 00 00 00
	00 01 00 00 00	 mov	 DWORD PTR ?battlePetButtonFlag@@3HA, 1 ; battlePetButtonFlag

; 3495 : 			battleWazaTargetBak = -1;

  001e1	c7 05 00 00 00
	00 ff ff ff ff	 mov	 DWORD PTR ?battleWazaTargetBak@@3HA, -1 ; battleWazaTargetBak
$LN23@BattleMenu:

; 3496 : 		}
; 3497 : 
; 3498 : 		if( p_party[ BattleMyNo ]->hp <= 0 ||

  001eb	a1 00 00 00 00	 mov	 eax, DWORD PTR ?BattleMyNo@@3HA ; BattleMyNo
  001f0	8b 0c 85 00 00
	00 00		 mov	 ecx, DWORD PTR ?p_party@@3PAPAUaction@@A[eax*4]
  001f7	83 79 78 00	 cmp	 DWORD PTR [ecx+120], 0
  001fb	7e 0a		 jle	 SHORT $LN28@BattleMenu
  001fd	a1 00 00 00 00	 mov	 eax, DWORD PTR ?BattleBpFlag@@3HA ; BattleBpFlag
  00202	83 e0 02	 and	 eax, 2
  00205	74 6e		 je	 SHORT $LN26@BattleMenu
$LN28@BattleMenu:

; 3499 : 
; 3500 : 			BattleBpFlag & BATTLE_BP_PLAYER_MENU_NON ){ 
; 3501 : 
; 3502 : 			if( BattleBpFlag & BATTLE_BP_PLAYER_MENU_NON ){ 

  00207	a1 00 00 00 00	 mov	 eax, DWORD PTR ?BattleBpFlag@@3HA ; BattleBpFlag
  0020c	83 e0 02	 and	 eax, 2
  0020f	74 31		 je	 SHORT $LN29@BattleMenu

; 3503 : 				if( bNewServer)

  00211	83 3d 00 00 00
	00 00		 cmp	 DWORD PTR ?bNewServer@@3HA, 0 ; bNewServer
  00218	74 15		 je	 SHORT $LN30@BattleMenu

; 3504 : 					lssproto_B_send( sockfd, "N" );

  0021a	68 00 00 00 00	 push	 OFFSET ??_C@_01NANMIPIL@N?$AA@
  0021f	a1 00 00 00 00	 mov	 eax, DWORD PTR ?sockfd@@3IA ; sockfd
  00224	50		 push	 eax
  00225	e8 00 00 00 00	 call	 ?lssproto_B_send@@YAXHPAD@Z ; lssproto_B_send
  0022a	83 c4 08	 add	 esp, 8

; 3505 : 				else

  0022d	eb 13		 jmp	 SHORT $LN29@BattleMenu
$LN30@BattleMenu:

; 3506 : 					old_lssproto_B_send( sockfd, "N" );

  0022f	68 00 00 00 00	 push	 OFFSET ??_C@_01NANMIPIL@N?$AA@
  00234	a1 00 00 00 00	 mov	 eax, DWORD PTR ?sockfd@@3IA ; sockfd
  00239	50		 push	 eax
  0023a	e8 00 00 00 00	 call	 ?old_lssproto_B_send@@YAXHPAD@Z ; old_lssproto_B_send
  0023f	83 c4 08	 add	 esp, 8
$LN29@BattleMenu:

; 3507 : 			}
; 3508 : 
; 3509 : 			p_party[ BattleMyNo ]->atr |= ACT_ATR_BTL_CMD_END;

  00242	a1 00 00 00 00	 mov	 eax, DWORD PTR ?BattleMyNo@@3HA ; BattleMyNo
  00247	8b 0c 85 00 00
	00 00		 mov	 ecx, DWORD PTR ?p_party@@3PAPAUaction@@A[eax*4]
  0024e	8b 91 a4 00 00
	00		 mov	 edx, DWORD PTR [ecx+164]
  00254	83 ca 40	 or	 edx, 64			; 00000040H
  00257	a1 00 00 00 00	 mov	 eax, DWORD PTR ?BattleMyNo@@3HA ; BattleMyNo
  0025c	8b 0c 85 00 00
	00 00		 mov	 ecx, DWORD PTR ?p_party@@3PAPAUaction@@A[eax*4]
  00263	89 91 a4 00 00
	00		 mov	 DWORD PTR [ecx+164], edx

; 3510 : 
; 3511 : 			battlePetMenuFlag = TRUE;

  00269	c7 05 00 00 00
	00 01 00 00 00	 mov	 DWORD PTR ?battlePetMenuFlag@@3HA, 1

; 3512 : 		}else{

  00273	eb 7e		 jmp	 SHORT $LN27@BattleMenu
$LN26@BattleMenu:

; 3513 : 
; 3514 : 			battleMenuFlag |= BATTLE_MENU; 

  00275	a1 00 00 00 00	 mov	 eax, DWORD PTR ?battleMenuFlag@@3HA ; battleMenuFlag
  0027a	83 c8 01	 or	 eax, 1
  0027d	a3 00 00 00 00	 mov	 DWORD PTR ?battleMenuFlag@@3HA, eax ; battleMenuFlag

; 3515 : 
; 3516 : 			battleMenuReturn = FALSE; 

  00282	c7 05 00 00 00
	00 00 00 00 00	 mov	 DWORD PTR ?battleMenuReturn@@3HA, 0

; 3517 : 
; 3518 : 			battleTimeUpFlag = FALSE;

  0028c	c7 05 00 00 00
	00 00 00 00 00	 mov	 DWORD PTR ?battleTimeUpFlag@@3HA, 0

; 3519 : 
; 3520 : 			play_se( 202, 320, 240 );

  00296	68 f0 00 00 00	 push	 240			; 000000f0H
  0029b	68 40 01 00 00	 push	 320			; 00000140H
  002a0	68 ca 00 00 00	 push	 202			; 000000caH
  002a5	e8 00 00 00 00	 call	 ?play_se@@YAHHHH@Z	; play_se
  002aa	83 c4 0c	 add	 esp, 12			; 0000000cH

; 3521 : 
; 3522 : 			for( i = 0 ; i < BATTLE_BUTTON_SUU ; i++ ) battleButtonDispNo[ i ] = -2;

  002ad	c7 85 ec fe ff
	ff 00 00 00 00	 mov	 DWORD PTR _i$[ebp], 0
  002b7	eb 0f		 jmp	 SHORT $LN10@BattleMenu
$LN8@BattleMenu:
  002b9	8b 85 ec fe ff
	ff		 mov	 eax, DWORD PTR _i$[ebp]
  002bf	83 c0 01	 add	 eax, 1
  002c2	89 85 ec fe ff
	ff		 mov	 DWORD PTR _i$[ebp], eax
$LN10@BattleMenu:
  002c8	83 bd ec fe ff
	ff 0a		 cmp	 DWORD PTR _i$[ebp], 10	; 0000000aH
  002cf	7d 13		 jge	 SHORT $LN9@BattleMenu
  002d1	8b 85 ec fe ff
	ff		 mov	 eax, DWORD PTR _i$[ebp]
  002d7	c7 04 85 00 00
	00 00 fe ff ff
	ff		 mov	 DWORD PTR ?battleButtonDispNo@@3PAHA[eax*4], -2 ; fffffffeH
  002e2	eb d5		 jmp	 SHORT $LN8@BattleMenu
$LN9@BattleMenu:

; 3523 : 
; 3524 : 			ClearBoxFlag();

  002e4	e8 00 00 00 00	 call	 ?ClearBoxFlag@@YAXXZ	; ClearBoxFlag

; 3525 : 
; 3526 : 			battleButtonBak2 = battleButtonBak;

  002e9	a1 00 00 00 00	 mov	 eax, DWORD PTR ?battleButtonBak@@3HA ; battleButtonBak
  002ee	a3 00 00 00 00	 mov	 DWORD PTR ?battleButtonBak2@@3HA, eax
$LN27@BattleMenu:

; 3527 : 		}
; 3528 : 
; 3529 : 		battlePetNoBak = pc.battlePetNo;

  002f3	0f bf 05 aa 00
	00 00		 movsx	 eax, WORD PTR ?pc@@3UPC@@A+170
  002fa	a3 00 00 00 00	 mov	 DWORD PTR ?battlePetNoBak@@3HA, eax ; battlePetNoBak

; 3530 : 		battlePetNoBak2 = pc.battlePetNo;

  002ff	0f bf 05 aa 00
	00 00		 movsx	 eax, WORD PTR ?pc@@3UPC@@A+170
  00306	a3 00 00 00 00	 mov	 DWORD PTR ?battlePetNoBak2@@3HA, eax ; battlePetNoBak2

; 3531 : 
; 3532 : 		battleMenuFlag2 = FALSE;

  0030b	c7 05 00 00 00
	00 00 00 00 00	 mov	 DWORD PTR ?battleMenuFlag2@@3HA, 0 ; battleMenuFlag2

; 3533 : 
; 3534 : 		BattleBpFlag &= ~BATTLE_BP_PLAYER_MENU_NON;

  00315	a1 00 00 00 00	 mov	 eax, DWORD PTR ?BattleBpFlag@@3HA ; BattleBpFlag
  0031a	83 e0 fd	 and	 eax, -3			; fffffffdH
  0031d	a3 00 00 00 00	 mov	 DWORD PTR ?BattleBpFlag@@3HA, eax ; BattleBpFlag
$LN21@BattleMenu:

; 3535 : 	}
; 3536 : 
; 3537 : 	if( battleMenuFlag & BATTLE_MENU ){ 

  00322	a1 00 00 00 00	 mov	 eax, DWORD PTR ?battleMenuFlag@@3HA ; battleMenuFlag
  00327	83 e0 01	 and	 eax, 1
  0032a	0f 84 c6 03 00
	00		 je	 $LN32@BattleMenu

; 3538 : 
; 3539 : 		if( battleMenuReturn == FALSE ){

  00330	83 3d 00 00 00
	00 00		 cmp	 DWORD PTR ?battleMenuReturn@@3HA, 0
  00337	75 64		 jne	 SHORT $LN33@BattleMenu

; 3540 : 			if( buttonA > 0 ){

  00339	83 3d 00 00 00
	00 00		 cmp	 DWORD PTR ?buttonA@@3HA, 0
  00340	7e 1d		 jle	 SHORT $LN35@BattleMenu

; 3541 : 				buttonA--;

  00342	a1 00 00 00 00	 mov	 eax, DWORD PTR ?buttonA@@3HA
  00347	83 e8 01	 sub	 eax, 1
  0034a	a3 00 00 00 00	 mov	 DWORD PTR ?buttonA@@3HA, eax

; 3542 : 				buttonX -= buttonA;

  0034f	a1 00 00 00 00	 mov	 eax, DWORD PTR ?buttonX@@3HA
  00354	2b 05 00 00 00
	00		 sub	 eax, DWORD PTR ?buttonA@@3HA
  0035a	a3 00 00 00 00	 mov	 DWORD PTR ?buttonX@@3HA, eax
$LN35@BattleMenu:

; 3543 : 			}
; 3544 : /*
; 3545 : #ifndef __AI
; 3546 : 			if( !PauseAI && AI!=AI_NONE && battleButtonBak==-1 && (BattleCntDown-TimeGetTime())<=29500){
; 3547 : 				DWORD ai = AI;
; 3548 : 				if( ai == AI_SELECT){
; 3549 : 					if( p_party[ BattleMyNo ]->maxHp*3/10 < p_party[ BattleMyNo ]->hp)
; 3550 : 						ai = AI_ATTACK;
; 3551 : 					else if( p_party[ BattleMyNo ]->maxHp*15/100 < p_party[ BattleMyNo ]->hp)
; 3552 : 						ai = AI_GUARD;
; 3553 : 					else
; 3554 : 						ai = AI_ESCAPE;
; 3555 : 				}
; 3556 : 				BattleIntervalCnt = TimeGetTime() + 500;
; 3557 : 				if( ai==AI_ATTACK && battleButtonDispNo[ 0 ]!=-2){
; 3558 : 					mouse.onceState = MOUSE_LEFT_CRICK;
; 3559 : 					HitDispNo = battleButtonDispNo[ 0 ];
; 3560 : 				}else if( ai==AI_GUARD && battleButtonDispNo[ 4 ]!=-2){
; 3561 : 					mouse.onceState = MOUSE_LEFT_CRICK;
; 3562 : 					HitDispNo = battleButtonDispNo[ 4 ];
; 3563 : 				}else if( ai==AI_ESCAPE && battleButtonDispNo[ 7 ]!=-2){
; 3564 : 					mouse.onceState = MOUSE_LEFT_CRICK;
; 3565 : 					HitDispNo = battleButtonDispNo[ 7 ];
; 3566 : 				}
; 3567 : 			}
; 3568 : #endif
; 3569 : */
; 3570 : 
; 3571 : 			BattleButtonAttack();

  0035f	e8 00 00 00 00	 call	 ?BattleButtonAttack@@YAXXZ ; BattleButtonAttack

; 3572 : 			BattleButtonJujutsu();

  00364	e8 00 00 00 00	 call	 ?BattleButtonJujutsu@@YAXXZ ; BattleButtonJujutsu

; 3573 : 			BattleButtonCapture();

  00369	e8 00 00 00 00	 call	 ?BattleButtonCapture@@YAXXZ ; BattleButtonCapture

; 3574 : 			BattleButtonHelp();

  0036e	e8 00 00 00 00	 call	 ?BattleButtonHelp@@YAXXZ ; BattleButtonHelp

; 3575 : 			BattleButtonGuard();

  00373	e8 00 00 00 00	 call	 ?BattleButtonGuard@@YAXXZ ; BattleButtonGuard

; 3576 : 			BattleButtonItem();

  00378	e8 00 00 00 00	 call	 ?BattleButtonItem@@YAXXZ ; BattleButtonItem

; 3577 : 			BattleButtonPet();

  0037d	e8 00 00 00 00	 call	 ?BattleButtonPet@@YAXXZ	; BattleButtonPet

; 3578 : 			BattleButtonEscape();

  00382	e8 00 00 00 00	 call	 ?BattleButtonEscape@@YAXXZ ; BattleButtonEscape

; 3579 : #ifdef _BATTLESKILL				// (不可开) Syu ADD 战斗技能介面
; 3580 : 			BattleButtonPPLSKILL();

  00387	e8 00 00 00 00	 call	 ?BattleButtonPPLSKILL@@YAXXZ ; BattleButtonPPLSKILL

; 3581 : #endif
; 3582 : 
; 3583 : 			if( mouse.onceState & MOUSE_RIGHT_CRICK ) BattleButtonOff();

  0038c	a1 2c 00 00 00	 mov	 eax, DWORD PTR ?mouse@@3UMOUSE@@A+44
  00391	83 e0 02	 and	 eax, 2
  00394	74 05		 je	 SHORT $LN36@BattleMenu
  00396	e8 00 00 00 00	 call	 ?BattleButtonOff@@YAXXZ	; BattleButtonOff
$LN36@BattleMenu:

; 3584 : 		}else{

  0039b	eb 72		 jmp	 SHORT $LN34@BattleMenu
$LN33@BattleMenu:

; 3585 : 			if( buttonA <= 25 ){

  0039d	83 3d 00 00 00
	00 19		 cmp	 DWORD PTR ?buttonA@@3HA, 25 ; 00000019H
  003a4	7f 1f		 jg	 SHORT $LN37@BattleMenu

; 3586 : 				buttonA++;

  003a6	a1 00 00 00 00	 mov	 eax, DWORD PTR ?buttonA@@3HA
  003ab	83 c0 01	 add	 eax, 1
  003ae	a3 00 00 00 00	 mov	 DWORD PTR ?buttonA@@3HA, eax

; 3587 : 				buttonX += buttonA;

  003b3	a1 00 00 00 00	 mov	 eax, DWORD PTR ?buttonX@@3HA
  003b8	03 05 00 00 00
	00		 add	 eax, DWORD PTR ?buttonA@@3HA
  003be	a3 00 00 00 00	 mov	 DWORD PTR ?buttonX@@3HA, eax

; 3588 : 			}else{

  003c3	eb 4a		 jmp	 SHORT $LN34@BattleMenu
$LN37@BattleMenu:

; 3589 : 
; 3590 : 				ClearBoxFlag();

  003c5	e8 00 00 00 00	 call	 ?ClearBoxFlag@@YAXXZ	; ClearBoxFlag

; 3591 : 
; 3592 : 				battleTargetSelectFlag = FALSE;

  003ca	c7 05 00 00 00
	00 00 00 00 00	 mov	 DWORD PTR ?battleTargetSelectFlag@@3HA, 0

; 3593 : 				battleMenuFlag = FALSE;

  003d4	c7 05 00 00 00
	00 00 00 00 00	 mov	 DWORD PTR ?battleMenuFlag@@3HA, 0 ; battleMenuFlag

; 3594 : 
; 3595 : 				if( BattleCntDownFlag == TRUE ){

  003de	83 3d 00 00 00
	00 01		 cmp	 DWORD PTR ?BattleCntDownFlag@@3HA, 1 ; BattleCntDownFlag
  003e5	75 0c		 jne	 SHORT $LN39@BattleMenu

; 3596 : 					battlePetMenuFlag = TRUE;

  003e7	c7 05 00 00 00
	00 01 00 00 00	 mov	 DWORD PTR ?battlePetMenuFlag@@3HA, 1

; 3597 : 				}else{

  003f1	eb 0d		 jmp	 SHORT $LN40@BattleMenu
$LN39@BattleMenu:

; 3598 : 					SubProcNo++;

  003f3	a1 00 00 00 00	 mov	 eax, DWORD PTR ?SubProcNo@@3IA ; SubProcNo
  003f8	83 c0 01	 add	 eax, 1
  003fb	a3 00 00 00 00	 mov	 DWORD PTR ?SubProcNo@@3IA, eax ; SubProcNo
$LN40@BattleMenu:

; 3599 : 				}
; 3600 : 
; 3601 : 				BattleCmdNo = -1;

  00400	c7 05 00 00 00
	00 ff ff ff ff	 mov	 DWORD PTR ?BattleCmdNo@@3HA, -1 ; BattleCmdNo

; 3602 : 
; 3603 : 				ClearBattleButton();

  0040a	e8 00 00 00 00	 call	 ?ClearBattleButton@@YAXXZ ; ClearBattleButton
$LN34@BattleMenu:

; 3604 : 			}
; 3605 : 		}
; 3606 : 
; 3607 : 			battleButtonDispNo[ 0 ] = StockDispBuffer( buttonX-74, buttonY-22, DISP_PRIO_IME3, CG_BTL_BUTTON_ATTACK_UP 	+ battleButtonFlag[ 0 ], 2 );

  0040f	6a 02		 push	 2
  00411	b8 04 00 00 00	 mov	 eax, 4
  00416	6b c8 00	 imul	 ecx, eax, 0
  00419	8b 91 00 00 00
	00		 mov	 edx, DWORD PTR ?battleButtonFlag@@3PAHA[ecx]
  0041f	81 c2 0c 62 00
	00		 add	 edx, 25100		; 0000620cH
  00425	52		 push	 edx
  00426	6a 69		 push	 105			; 00000069H
  00428	a1 00 00 00 00	 mov	 eax, DWORD PTR ?buttonY@@3HA
  0042d	83 e8 16	 sub	 eax, 22			; 00000016H
  00430	50		 push	 eax
  00431	8b 0d 00 00 00
	00		 mov	 ecx, DWORD PTR ?buttonX@@3HA
  00437	83 e9 4a	 sub	 ecx, 74			; 0000004aH
  0043a	51		 push	 ecx
  0043b	e8 00 00 00 00	 call	 ?StockDispBuffer@@YAHHHEHH@Z ; StockDispBuffer
  00440	83 c4 14	 add	 esp, 20			; 00000014H
  00443	ba 04 00 00 00	 mov	 edx, 4
  00448	6b ca 00	 imul	 ecx, edx, 0
  0044b	89 81 00 00 00
	00		 mov	 DWORD PTR ?battleButtonDispNo@@3PAHA[ecx], eax

; 3608 : 			battleButtonDispNo[ 1 ] = StockDispBuffer( buttonX-24, buttonY-22, DISP_PRIO_IME3, CG_BTL_BUTTON_JUJUTU_UP 	+ battleButtonFlag[ 1 ], 2 );

  00451	6a 02		 push	 2
  00453	b8 04 00 00 00	 mov	 eax, 4
  00458	c1 e0 00	 shl	 eax, 0
  0045b	8b 88 00 00 00
	00		 mov	 ecx, DWORD PTR ?battleButtonFlag@@3PAHA[eax]
  00461	81 c1 0e 62 00
	00		 add	 ecx, 25102		; 0000620eH
  00467	51		 push	 ecx
  00468	6a 69		 push	 105			; 00000069H
  0046a	8b 15 00 00 00
	00		 mov	 edx, DWORD PTR ?buttonY@@3HA
  00470	83 ea 16	 sub	 edx, 22			; 00000016H
  00473	52		 push	 edx
  00474	a1 00 00 00 00	 mov	 eax, DWORD PTR ?buttonX@@3HA
  00479	83 e8 18	 sub	 eax, 24			; 00000018H
  0047c	50		 push	 eax
  0047d	e8 00 00 00 00	 call	 ?StockDispBuffer@@YAHHHEHH@Z ; StockDispBuffer
  00482	83 c4 14	 add	 esp, 20			; 00000014H
  00485	b9 04 00 00 00	 mov	 ecx, 4
  0048a	c1 e1 00	 shl	 ecx, 0
  0048d	89 81 00 00 00
	00		 mov	 DWORD PTR ?battleButtonDispNo@@3PAHA[ecx], eax

; 3609 : 			battleButtonDispNo[ 2 ] = StockDispBuffer( buttonX+26, buttonY-22, DISP_PRIO_IME3, CG_BTL_BUTTON_CAPTURE_UP 	+ battleButtonFlag[ 2 ], 2 );

  00493	6a 02		 push	 2
  00495	b8 04 00 00 00	 mov	 eax, 4
  0049a	d1 e0		 shl	 eax, 1
  0049c	8b 88 00 00 00
	00		 mov	 ecx, DWORD PTR ?battleButtonFlag@@3PAHA[eax]
  004a2	81 c1 10 62 00
	00		 add	 ecx, 25104		; 00006210H
  004a8	51		 push	 ecx
  004a9	6a 69		 push	 105			; 00000069H
  004ab	8b 15 00 00 00
	00		 mov	 edx, DWORD PTR ?buttonY@@3HA
  004b1	83 ea 16	 sub	 edx, 22			; 00000016H
  004b4	52		 push	 edx
  004b5	a1 00 00 00 00	 mov	 eax, DWORD PTR ?buttonX@@3HA
  004ba	83 c0 1a	 add	 eax, 26			; 0000001aH
  004bd	50		 push	 eax
  004be	e8 00 00 00 00	 call	 ?StockDispBuffer@@YAHHHEHH@Z ; StockDispBuffer
  004c3	83 c4 14	 add	 esp, 20			; 00000014H
  004c6	b9 04 00 00 00	 mov	 ecx, 4
  004cb	d1 e1		 shl	 ecx, 1
  004cd	89 81 00 00 00
	00		 mov	 DWORD PTR ?battleButtonDispNo@@3PAHA[ecx], eax

; 3610 : 			battleButtonDispNo[ 3 ] = StockDispBuffer( buttonX+76, buttonY-22, DISP_PRIO_IME3, CG_BTL_BUTTON_HELP_UP 		+ helpFlag, 2 );

  004d3	6a 02		 push	 2
  004d5	0f bf 05 00 00
	00 00		 movsx	 eax, WORD PTR ?helpFlag@@3FA ; helpFlag
  004dc	05 12 62 00 00	 add	 eax, 25106		; 00006212H
  004e1	50		 push	 eax
  004e2	6a 69		 push	 105			; 00000069H
  004e4	8b 0d 00 00 00
	00		 mov	 ecx, DWORD PTR ?buttonY@@3HA
  004ea	83 e9 16	 sub	 ecx, 22			; 00000016H
  004ed	51		 push	 ecx
  004ee	8b 15 00 00 00
	00		 mov	 edx, DWORD PTR ?buttonX@@3HA
  004f4	83 c2 4c	 add	 edx, 76			; 0000004cH
  004f7	52		 push	 edx
  004f8	e8 00 00 00 00	 call	 ?StockDispBuffer@@YAHHHEHH@Z ; StockDispBuffer
  004fd	83 c4 14	 add	 esp, 20			; 00000014H
  00500	b9 04 00 00 00	 mov	 ecx, 4
  00505	6b d1 03	 imul	 edx, ecx, 3
  00508	89 82 00 00 00
	00		 mov	 DWORD PTR ?battleButtonDispNo@@3PAHA[edx], eax

; 3611 : 			battleButtonDispNo[ 4 ] = StockDispBuffer( buttonX-74, buttonY+28, DISP_PRIO_IME3, CG_BTL_BUTTON_GUARD_UP 	+ battleButtonFlag[ 4 ], 2 );

  0050e	6a 02		 push	 2
  00510	b8 04 00 00 00	 mov	 eax, 4
  00515	c1 e0 02	 shl	 eax, 2
  00518	8b 88 00 00 00
	00		 mov	 ecx, DWORD PTR ?battleButtonFlag@@3PAHA[eax]
  0051e	81 c1 14 62 00
	00		 add	 ecx, 25108		; 00006214H
  00524	51		 push	 ecx
  00525	6a 69		 push	 105			; 00000069H
  00527	8b 15 00 00 00
	00		 mov	 edx, DWORD PTR ?buttonY@@3HA
  0052d	83 c2 1c	 add	 edx, 28			; 0000001cH
  00530	52		 push	 edx
  00531	a1 00 00 00 00	 mov	 eax, DWORD PTR ?buttonX@@3HA
  00536	83 e8 4a	 sub	 eax, 74			; 0000004aH
  00539	50		 push	 eax
  0053a	e8 00 00 00 00	 call	 ?StockDispBuffer@@YAHHHEHH@Z ; StockDispBuffer
  0053f	83 c4 14	 add	 esp, 20			; 00000014H
  00542	b9 04 00 00 00	 mov	 ecx, 4
  00547	c1 e1 02	 shl	 ecx, 2
  0054a	89 81 00 00 00
	00		 mov	 DWORD PTR ?battleButtonDispNo@@3PAHA[ecx], eax

; 3612 : 			battleButtonDispNo[ 5 ] = StockDispBuffer( buttonX-24, buttonY+28, DISP_PRIO_IME3, CG_BTL_BUTTON_ITEM_UP 		+ battleButtonFlag[ 5 ], 2 );

  00550	6a 02		 push	 2
  00552	b8 04 00 00 00	 mov	 eax, 4
  00557	6b c8 05	 imul	 ecx, eax, 5
  0055a	8b 91 00 00 00
	00		 mov	 edx, DWORD PTR ?battleButtonFlag@@3PAHA[ecx]
  00560	81 c2 16 62 00
	00		 add	 edx, 25110		; 00006216H
  00566	52		 push	 edx
  00567	6a 69		 push	 105			; 00000069H
  00569	a1 00 00 00 00	 mov	 eax, DWORD PTR ?buttonY@@3HA
  0056e	83 c0 1c	 add	 eax, 28			; 0000001cH
  00571	50		 push	 eax
  00572	8b 0d 00 00 00
	00		 mov	 ecx, DWORD PTR ?buttonX@@3HA
  00578	83 e9 18	 sub	 ecx, 24			; 00000018H
  0057b	51		 push	 ecx
  0057c	e8 00 00 00 00	 call	 ?StockDispBuffer@@YAHHHEHH@Z ; StockDispBuffer
  00581	83 c4 14	 add	 esp, 20			; 00000014H
  00584	ba 04 00 00 00	 mov	 edx, 4
  00589	6b ca 05	 imul	 ecx, edx, 5
  0058c	89 81 00 00 00
	00		 mov	 DWORD PTR ?battleButtonDispNo@@3PAHA[ecx], eax

; 3613 : 			battleButtonDispNo[ 6 ] = StockDispBuffer( buttonX+26, buttonY+28, DISP_PRIO_IME3, CG_BTL_BUTTON_PET_UP 		+ battleButtonFlag[ 6 ], 2 );

  00592	6a 02		 push	 2
  00594	b8 04 00 00 00	 mov	 eax, 4
  00599	6b c8 06	 imul	 ecx, eax, 6
  0059c	8b 91 00 00 00
	00		 mov	 edx, DWORD PTR ?battleButtonFlag@@3PAHA[ecx]
  005a2	81 c2 18 62 00
	00		 add	 edx, 25112		; 00006218H
  005a8	52		 push	 edx
  005a9	6a 69		 push	 105			; 00000069H
  005ab	a1 00 00 00 00	 mov	 eax, DWORD PTR ?buttonY@@3HA
  005b0	83 c0 1c	 add	 eax, 28			; 0000001cH
  005b3	50		 push	 eax
  005b4	8b 0d 00 00 00
	00		 mov	 ecx, DWORD PTR ?buttonX@@3HA
  005ba	83 c1 1a	 add	 ecx, 26			; 0000001aH
  005bd	51		 push	 ecx
  005be	e8 00 00 00 00	 call	 ?StockDispBuffer@@YAHHHEHH@Z ; StockDispBuffer
  005c3	83 c4 14	 add	 esp, 20			; 00000014H
  005c6	ba 04 00 00 00	 mov	 edx, 4
  005cb	6b ca 06	 imul	 ecx, edx, 6
  005ce	89 81 00 00 00
	00		 mov	 DWORD PTR ?battleButtonDispNo@@3PAHA[ecx], eax

; 3614 : 			battleButtonDispNo[ 7 ] = StockDispBuffer( buttonX+76, buttonY+28, DISP_PRIO_IME3, CG_BTL_BUTTON_ESCAPE_UP 	+ battleButtonFlag[ 7 ], 2 );

  005d4	6a 02		 push	 2
  005d6	b8 04 00 00 00	 mov	 eax, 4
  005db	6b c8 07	 imul	 ecx, eax, 7
  005de	8b 91 00 00 00
	00		 mov	 edx, DWORD PTR ?battleButtonFlag@@3PAHA[ecx]
  005e4	81 c2 1a 62 00
	00		 add	 edx, 25114		; 0000621aH
  005ea	52		 push	 edx
  005eb	6a 69		 push	 105			; 00000069H
  005ed	a1 00 00 00 00	 mov	 eax, DWORD PTR ?buttonY@@3HA
  005f2	83 c0 1c	 add	 eax, 28			; 0000001cH
  005f5	50		 push	 eax
  005f6	8b 0d 00 00 00
	00		 mov	 ecx, DWORD PTR ?buttonX@@3HA
  005fc	83 c1 4c	 add	 ecx, 76			; 0000004cH
  005ff	51		 push	 ecx
  00600	e8 00 00 00 00	 call	 ?StockDispBuffer@@YAHHHEHH@Z ; StockDispBuffer
  00605	83 c4 14	 add	 esp, 20			; 00000014H
  00608	ba 04 00 00 00	 mov	 edx, 4
  0060d	6b ca 07	 imul	 ecx, edx, 7
  00610	89 81 00 00 00
	00		 mov	 DWORD PTR ?battleButtonDispNo@@3PAHA[ecx], eax

; 3615 : 			StockDispBuffer( buttonX, buttonY, DISP_PRIO_MENU, CG_BTL_BUTTON_BASE, 0 );

  00616	6a 00		 push	 0
  00618	68 1c 62 00 00	 push	 25116			; 0000621cH
  0061d	6a 68		 push	 104			; 00000068H
  0061f	a1 00 00 00 00	 mov	 eax, DWORD PTR ?buttonY@@3HA
  00624	50		 push	 eax
  00625	8b 0d 00 00 00
	00		 mov	 ecx, DWORD PTR ?buttonX@@3HA
  0062b	51		 push	 ecx
  0062c	e8 00 00 00 00	 call	 ?StockDispBuffer@@YAHHHEHH@Z ; StockDispBuffer
  00631	83 c4 14	 add	 esp, 20			; 00000014H

; 3616 : 
; 3617 : 
; 3618 : 
; 3619 : 
; 3620 : 		if( CheckPetSuu() >= 5 ){//抓宠物的X

  00634	e8 00 00 00 00	 call	 ?CheckPetSuu@@YAHXZ	; CheckPetSuu
  00639	83 f8 05	 cmp	 eax, 5
  0063c	7c 24		 jl	 SHORT $LN41@BattleMenu

; 3621 : #ifdef _BATTLESKILL				// (不可开) Syu ADD 战斗技能介面
; 3622 : 
; 3623 : 			StockDispBuffer( buttonX + 26, buttonY - 20, DISP_PRIO_IME4, CG_BTL_BUTTON_CROSS, 0 );

  0063e	6a 00		 push	 0
  00640	68 1d 62 00 00	 push	 25117			; 0000621dH
  00645	6a 6a		 push	 106			; 0000006aH
  00647	a1 00 00 00 00	 mov	 eax, DWORD PTR ?buttonY@@3HA
  0064c	83 e8 14	 sub	 eax, 20			; 00000014H
  0064f	50		 push	 eax
  00650	8b 0d 00 00 00
	00		 mov	 ecx, DWORD PTR ?buttonX@@3HA
  00656	83 c1 1a	 add	 ecx, 26			; 0000001aH
  00659	51		 push	 ecx
  0065a	e8 00 00 00 00	 call	 ?StockDispBuffer@@YAHHHEHH@Z ; StockDispBuffer
  0065f	83 c4 14	 add	 esp, 20			; 00000014H
$LN41@BattleMenu:

; 3624 : 
; 3625 : #else
; 3626 : 			StockDispBuffer( buttonX + 28, buttonY - 18, DISP_PRIO_IME4, CG_BTL_BUTTON_CROSS, 0 );
; 3627 : #endif
; 3628 : 		}
; 3629 : #ifdef _LOCKHELP_OK				// (不可开) Syu ADD 锁定不可加入战斗
; 3630 : 		extern int nowFloor;
; 3631 : 		if((nowFloor <= 8213 && nowFloor >= 8200) ||

  00662	81 3d 00 00 00
	00 15 20 00 00	 cmp	 DWORD PTR ?nowFloor@@3HA, 8213 ; nowFloor, 00002015H
  0066c	7f 0c		 jg	 SHORT $LN44@BattleMenu
  0066e	81 3d 00 00 00
	00 08 20 00 00	 cmp	 DWORD PTR ?nowFloor@@3HA, 8200 ; nowFloor, 00002008H
  00678	7d 18		 jge	 SHORT $LN43@BattleMenu
$LN44@BattleMenu:
  0067a	81 3d 00 00 00
	00 41 75 00 00	 cmp	 DWORD PTR ?nowFloor@@3HA, 30017 ; nowFloor, 00007541H
  00684	7c 16		 jl	 SHORT $LN42@BattleMenu
  00686	81 3d 00 00 00
	00 45 75 00 00	 cmp	 DWORD PTR ?nowFloor@@3HA, 30021 ; nowFloor, 00007545H
  00690	7f 0a		 jg	 SHORT $LN42@BattleMenu
$LN43@BattleMenu:

; 3632 : 			 (nowFloor >= 30017 && nowFloor <= 30021)
; 3633 : 		)	NoHelpFlag = TRUE ; 

  00692	c7 05 00 00 00
	00 01 00 00 00	 mov	 DWORD PTR ?NoHelpFlag@@3HA, 1 ; NoHelpFlag
$LN42@BattleMenu:

; 3634 : #endif
; 3635 : 		if( NoHelpFlag == TRUE ){//不可帮助

  0069c	83 3d 00 00 00
	00 01		 cmp	 DWORD PTR ?NoHelpFlag@@3HA, 1 ; NoHelpFlag
  006a3	75 24		 jne	 SHORT $LN45@BattleMenu

; 3636 : #ifdef _BATTLESKILL				// (不可开) Syu ADD 战斗技能介面
; 3637 : 
; 3638 : 			
; 3639 : 				StockDispBuffer( buttonX + 26 + 54, buttonY - 20 , DISP_PRIO_IME4, CG_BTL_BUTTON_CROSS, 0 );

  006a5	6a 00		 push	 0
  006a7	68 1d 62 00 00	 push	 25117			; 0000621dH
  006ac	6a 6a		 push	 106			; 0000006aH
  006ae	a1 00 00 00 00	 mov	 eax, DWORD PTR ?buttonY@@3HA
  006b3	83 e8 14	 sub	 eax, 20			; 00000014H
  006b6	50		 push	 eax
  006b7	8b 0d 00 00 00
	00		 mov	 ecx, DWORD PTR ?buttonX@@3HA
  006bd	83 c1 50	 add	 ecx, 80			; 00000050H
  006c0	51		 push	 ecx
  006c1	e8 00 00 00 00	 call	 ?StockDispBuffer@@YAHHHEHH@Z ; StockDispBuffer
  006c6	83 c4 14	 add	 esp, 20			; 00000014H
$LN45@BattleMenu:

; 3640 : 
; 3641 : 
; 3642 : #else
; 3643 : 			StockDispBuffer( buttonX + 28 + 54, buttonY - 18, DISP_PRIO_IME4, CG_BTL_BUTTON_CROSS, 0 );
; 3644 : #endif
; 3645 : 		}
; 3646 : #ifdef _MAGIC_NOCAST
; 3647 : 		if( NoCastFlag == TRUE ){

  006c9	83 3d 00 00 00
	00 01		 cmp	 DWORD PTR ?NoCastFlag@@3HA, 1 ; NoCastFlag
  006d0	75 24		 jne	 SHORT $LN32@BattleMenu

; 3648 : #ifdef _BATTLESKILL				// (不可开) Syu ADD 战斗技能介面
; 3649 : 
; 3650 : 
; 3651 : 				StockDispBuffer( buttonX + 26 -54 - 14, buttonY - 20, DISP_PRIO_IME4, CG_BTL_BUTTON_CROSS, 0 );

  006d2	6a 00		 push	 0
  006d4	68 1d 62 00 00	 push	 25117			; 0000621dH
  006d9	6a 6a		 push	 106			; 0000006aH
  006db	a1 00 00 00 00	 mov	 eax, DWORD PTR ?buttonY@@3HA
  006e0	83 e8 14	 sub	 eax, 20			; 00000014H
  006e3	50		 push	 eax
  006e4	8b 0d 00 00 00
	00		 mov	 ecx, DWORD PTR ?buttonX@@3HA
  006ea	83 e9 2a	 sub	 ecx, 42			; 0000002aH
  006ed	51		 push	 ecx
  006ee	e8 00 00 00 00	 call	 ?StockDispBuffer@@YAHHHEHH@Z ; StockDispBuffer
  006f3	83 c4 14	 add	 esp, 20			; 00000014H
$LN32@BattleMenu:

; 3652 : 			
; 3653 : 
; 3654 : #else
; 3655 : 			StockDispBuffer( buttonX + 28 -54, buttonY - 18, DISP_PRIO_IME4, CG_BTL_BUTTON_CROSS, 0 );
; 3656 : #endif
; 3657 : 		}
; 3658 : #endif
; 3659 : 	}
; 3660 : 
; 3661 : 	if( battlePetMenuFlag == TRUE ){

  006f6	83 3d 00 00 00
	00 01		 cmp	 DWORD PTR ?battlePetMenuFlag@@3HA, 1
  006fd	0f 85 9e 01 00
	00		 jne	 $LN47@BattleMenu

; 3662 : 		buttonX = 815 + DISPLACEMENT_X;

  00703	a1 00 00 00 00	 mov	 eax, DWORD PTR ?DISPLACEMENT_X@@3HA ; DISPLACEMENT_X
  00708	05 2f 03 00 00	 add	 eax, 815		; 0000032fH
  0070d	a3 00 00 00 00	 mov	 DWORD PTR ?buttonX@@3HA, eax

; 3663 : 		buttonY = 48;

  00712	c7 05 00 00 00
	00 30 00 00 00	 mov	 DWORD PTR ?buttonY@@3HA, 48 ; 00000030H

; 3664 : 		buttonA = 25;

  0071c	c7 05 00 00 00
	00 19 00 00 00	 mov	 DWORD PTR ?buttonA@@3HA, 25 ; 00000019H

; 3665 : 
; 3666 : 		if( battlePetNoBak <= -1 || p_party[ BattleMyNo + 5 ]->hp <= 0 ){

  00726	83 3d 00 00 00
	00 ff		 cmp	 DWORD PTR ?battlePetNoBak@@3HA, -1 ; battlePetNoBak
  0072d	7e 12		 jle	 SHORT $LN50@BattleMenu
  0072f	a1 00 00 00 00	 mov	 eax, DWORD PTR ?BattleMyNo@@3HA ; BattleMyNo
  00734	8b 0c 85 14 00
	00 00		 mov	 ecx, DWORD PTR ?p_party@@3PAPAUaction@@A[eax*4+20]
  0073b	83 79 78 00	 cmp	 DWORD PTR [ecx+120], 0
  0073f	7f 1c		 jg	 SHORT $LN48@BattleMenu
$LN50@BattleMenu:

; 3667 : 			BattleCntDownFlag = FALSE;

  00741	c7 05 00 00 00
	00 00 00 00 00	 mov	 DWORD PTR ?BattleCntDownFlag@@3HA, 0 ; BattleCntDownFlag

; 3668 : 			SubProcNo++;

  0074b	a1 00 00 00 00	 mov	 eax, DWORD PTR ?SubProcNo@@3IA ; SubProcNo
  00750	83 c0 01	 add	 eax, 1
  00753	a3 00 00 00 00	 mov	 DWORD PTR ?SubProcNo@@3IA, eax ; SubProcNo
  00758	e9 2d 01 00 00	 jmp	 $LN49@BattleMenu
$LN48@BattleMenu:

; 3669 : 		}else if( BattleBpFlag & BATTLE_BP_PET_MENU_NON || p_party[ BattleMyNo ]->hp <= 0 || battlePlayerEscFlag == TRUE ){

  0075d	a1 00 00 00 00	 mov	 eax, DWORD PTR ?BattleBpFlag@@3HA ; BattleBpFlag
  00762	83 e0 08	 and	 eax, 8
  00765	75 1b		 jne	 SHORT $LN53@BattleMenu
  00767	a1 00 00 00 00	 mov	 eax, DWORD PTR ?BattleMyNo@@3HA ; BattleMyNo
  0076c	8b 0c 85 00 00
	00 00		 mov	 ecx, DWORD PTR ?p_party@@3PAPAUaction@@A[eax*4]
  00773	83 79 78 00	 cmp	 DWORD PTR [ecx+120], 0
  00777	7e 09		 jle	 SHORT $LN53@BattleMenu
  00779	83 3d 00 00 00
	00 01		 cmp	 DWORD PTR ?battlePlayerEscFlag@@3HA, 1 ; battlePlayerEscFlag
  00780	75 4d		 jne	 SHORT $LN51@BattleMenu
$LN53@BattleMenu:

; 3670 : 			if( bNewServer)

  00782	83 3d 00 00 00
	00 00		 cmp	 DWORD PTR ?bNewServer@@3HA, 0 ; bNewServer
  00789	74 15		 je	 SHORT $LN54@BattleMenu

; 3671 : 				lssproto_B_send( sockfd, "W|FF|FF" );

  0078b	68 00 00 00 00	 push	 OFFSET ??_C@_07BDJJCCFL@W?$HMFF?$HMFF?$AA@
  00790	a1 00 00 00 00	 mov	 eax, DWORD PTR ?sockfd@@3IA ; sockfd
  00795	50		 push	 eax
  00796	e8 00 00 00 00	 call	 ?lssproto_B_send@@YAXHPAD@Z ; lssproto_B_send
  0079b	83 c4 08	 add	 esp, 8

; 3672 : 			else

  0079e	eb 13		 jmp	 SHORT $LN55@BattleMenu
$LN54@BattleMenu:

; 3673 : 				old_lssproto_B_send( sockfd, "W|FF|FF" );

  007a0	68 00 00 00 00	 push	 OFFSET ??_C@_07BDJJCCFL@W?$HMFF?$HMFF?$AA@
  007a5	a1 00 00 00 00	 mov	 eax, DWORD PTR ?sockfd@@3IA ; sockfd
  007aa	50		 push	 eax
  007ab	e8 00 00 00 00	 call	 ?old_lssproto_B_send@@YAXHPAD@Z ; old_lssproto_B_send
  007b0	83 c4 08	 add	 esp, 8
$LN55@BattleMenu:

; 3674 : 
; 3675 : 			BattleCntDownFlag = FALSE;

  007b3	c7 05 00 00 00
	00 00 00 00 00	 mov	 DWORD PTR ?BattleCntDownFlag@@3HA, 0 ; BattleCntDownFlag

; 3676 : 			SubProcNo++;

  007bd	a1 00 00 00 00	 mov	 eax, DWORD PTR ?SubProcNo@@3IA ; SubProcNo
  007c2	83 c0 01	 add	 eax, 1
  007c5	a3 00 00 00 00	 mov	 DWORD PTR ?SubProcNo@@3IA, eax ; SubProcNo

; 3677 : 		}else{

  007ca	e9 bb 00 00 00	 jmp	 $LN49@BattleMenu
$LN51@BattleMenu:

; 3678 : 			battleMenuFlag |= BATTLE_MENU_PET;

  007cf	a1 00 00 00 00	 mov	 eax, DWORD PTR ?battleMenuFlag@@3HA ; battleMenuFlag
  007d4	83 c8 02	 or	 eax, 2
  007d7	a3 00 00 00 00	 mov	 DWORD PTR ?battleMenuFlag@@3HA, eax ; battleMenuFlag

; 3679 : 
; 3680 : 			battleMenuReturn = FALSE; 

  007dc	c7 05 00 00 00
	00 00 00 00 00	 mov	 DWORD PTR ?battleMenuReturn@@3HA, 0

; 3681 : 
; 3682 : 			play_se( 202, 320, 240 );

  007e6	68 f0 00 00 00	 push	 240			; 000000f0H
  007eb	68 40 01 00 00	 push	 320			; 00000140H
  007f0	68 ca 00 00 00	 push	 202			; 000000caH
  007f5	e8 00 00 00 00	 call	 ?play_se@@YAHHHH@Z	; play_se
  007fa	83 c4 0c	 add	 esp, 12			; 0000000cH

; 3683 : 
; 3684 : 			ClearBoxFlag();

  007fd	e8 00 00 00 00	 call	 ?ClearBoxFlag@@YAXXZ	; ClearBoxFlag

; 3685 : 
; 3686 : #ifdef _PETSKILL_DAMAGETOHP	  // 宠技:浴血狂狼(嗜血技的变体) 
; 3687 : 			if( battleWazaTargetBak != -1 ){//上一回合的技能编号

  00802	83 3d 00 00 00
	00 ff		 cmp	 DWORD PTR ?battleWazaTargetBak@@3HA, -1 ; battleWazaTargetBak
  00809	74 7f		 je	 SHORT $LN49@BattleMenu

; 3688 : 				//为了避免当这个技能不可使用时,却被当成已选择,所以再让使用者再选一次
; 3689 : 				if( petSkill[battlePetNoBak][battleWazaTargetBak].field == 2 //被标示为不可选
; 3690 : 					|| petSkill[battlePetNoBak][battleWazaTargetBak].skillId == 0 //Change fix 人物使用针针相对或暴风雨时,若宠接着选防守或待机,则接下来宠物的选单不会出来,这里强制让选单出现
; 3691 : 					|| petSkill[battlePetNoBak][battleWazaTargetBak].skillId == 2 ){ 

  0080b	69 05 00 00 00
	00 e6 02 00 00	 imul	 eax, DWORD PTR ?battlePetNoBak@@3HA, 742 ; battlePetNoBak
  00815	6b 0d 00 00 00
	00 6a		 imul	 ecx, DWORD PTR ?battleWazaTargetBak@@3HA, 106 ; battleWazaTargetBak
  0081c	0f bf 94 08 04
	00 00 00	 movsx	 edx, WORD PTR ?petSkill@@3PAY06UPET_SKILL@@A[eax+ecx+4]
  00824	83 fa 02	 cmp	 edx, 2
  00827	74 3b		 je	 SHORT $LN59@BattleMenu
  00829	69 05 00 00 00
	00 e6 02 00 00	 imul	 eax, DWORD PTR ?battlePetNoBak@@3HA, 742 ; battlePetNoBak
  00833	6b 0d 00 00 00
	00 6a		 imul	 ecx, DWORD PTR ?battleWazaTargetBak@@3HA, 106 ; battleWazaTargetBak
  0083a	0f bf 94 08 02
	00 00 00	 movsx	 edx, WORD PTR ?petSkill@@3PAY06UPET_SKILL@@A[eax+ecx+2]
  00842	85 d2		 test	 edx, edx
  00844	74 1e		 je	 SHORT $LN59@BattleMenu
  00846	69 05 00 00 00
	00 e6 02 00 00	 imul	 eax, DWORD PTR ?battlePetNoBak@@3HA, 742 ; battlePetNoBak
  00850	6b 0d 00 00 00
	00 6a		 imul	 ecx, DWORD PTR ?battleWazaTargetBak@@3HA, 106 ; battleWazaTargetBak
  00857	0f bf 94 08 02
	00 00 00	 movsx	 edx, WORD PTR ?petSkill@@3PAY06UPET_SKILL@@A[eax+ecx+2]
  0085f	83 fa 02	 cmp	 edx, 2
  00862	75 16		 jne	 SHORT $LN57@BattleMenu
$LN59@BattleMenu:

; 3692 : 				//if( petSkill[battlePetNoBak][battleWazaTargetBak].skillId == 623 ){ //623:在petskill2.txt内的技能编号
; 3693 : 				    battleWazaTargetBak = -1;

  00864	c7 05 00 00 00
	00 ff ff ff ff	 mov	 DWORD PTR ?battleWazaTargetBak@@3HA, -1 ; battleWazaTargetBak

; 3694 : 				    battlePetButtonFlag = TRUE;

  0086e	c7 05 00 00 00
	00 01 00 00 00	 mov	 DWORD PTR ?battlePetButtonFlag@@3HA, 1 ; battlePetButtonFlag

; 3695 : 				}
; 3696 : 				else{

  00878	eb 10		 jmp	 SHORT $LN49@BattleMenu
$LN57@BattleMenu:

; 3697 : 					
; 3698 : #ifdef _BATTLESKILL              // (不可开) Syu ADD 战斗技能介面
; 3699 : //					BattleWazaNo = battlePetNoBak;
; 3700 : 					BattleSetWazaHitBox( BattleWazaNo , 0 );

  0087a	6a 00		 push	 0
  0087c	a1 00 00 00 00	 mov	 eax, DWORD PTR ?BattleWazaNo@@3HA ; BattleWazaNo
  00881	50		 push	 eax
  00882	e8 00 00 00 00	 call	 ?BattleSetWazaHitBox@@YAXHH@Z ; BattleSetWazaHitBox
  00887	83 c4 08	 add	 esp, 8
$LN49@BattleMenu:

; 3701 : #else
; 3702 : 					BattleSetWazaHitBox( BattleWazaNo );
; 3703 : #endif
; 3704 : 				}
; 3705 : 			}
; 3706 : #else
; 3707 : 			if( battleWazaTargetBak != -1  ){ //上一回合的技能编号
; 3708 : #ifdef _BATTLESKILL				// (不可开) Syu ADD 战斗技能介面
; 3709 : //				BattleWazaNo = battlePetNoBak;
; 3710 : 				BattleSetWazaHitBox( BattleWazaNo , 0 );
; 3711 : #else
; 3712 : 				BattleSetWazaHitBox( BattleWazaNo );
; 3713 : #endif
; 3714 : 			}
; 3715 : #endif
; 3716 : 
; 3717 : 		}
; 3718 : 		BattleBpFlag &= ~BATTLE_BP_PET_MENU_NON;

  0088a	a1 00 00 00 00	 mov	 eax, DWORD PTR ?BattleBpFlag@@3HA ; BattleBpFlag
  0088f	83 e0 f7	 and	 eax, -9			; fffffff7H
  00892	a3 00 00 00 00	 mov	 DWORD PTR ?BattleBpFlag@@3HA, eax ; BattleBpFlag

; 3719 : 		battlePetMenuFlag = FALSE;

  00897	c7 05 00 00 00
	00 00 00 00 00	 mov	 DWORD PTR ?battlePetMenuFlag@@3HA, 0
$LN47@BattleMenu:

; 3720 : 	}
; 3721 : 	
; 3722 : 	if( battleMenuFlag & BATTLE_MENU_PET ){ 

  008a1	a1 00 00 00 00	 mov	 eax, DWORD PTR ?battleMenuFlag@@3HA ; battleMenuFlag
  008a6	83 e0 02	 and	 eax, 2
  008a9	0f 84 b4 01 00
	00		 je	 $LN60@BattleMenu

; 3723 : 		
; 3724 : 		if( battleMenuReturn == FALSE ){

  008af	83 3d 00 00 00
	00 00		 cmp	 DWORD PTR ?battleMenuReturn@@3HA, 0
  008b6	75 4b		 jne	 SHORT $LN61@BattleMenu

; 3725 : 			
; 3726 : 			if( buttonA > 0 ){

  008b8	83 3d 00 00 00
	00 00		 cmp	 DWORD PTR ?buttonA@@3HA, 0
  008bf	7e 1d		 jle	 SHORT $LN63@BattleMenu

; 3727 : 				buttonA--;

  008c1	a1 00 00 00 00	 mov	 eax, DWORD PTR ?buttonA@@3HA
  008c6	83 e8 01	 sub	 eax, 1
  008c9	a3 00 00 00 00	 mov	 DWORD PTR ?buttonA@@3HA, eax

; 3728 : 				buttonX -= buttonA;

  008ce	a1 00 00 00 00	 mov	 eax, DWORD PTR ?buttonX@@3HA
  008d3	2b 05 00 00 00
	00		 sub	 eax, DWORD PTR ?buttonA@@3HA
  008d9	a3 00 00 00 00	 mov	 DWORD PTR ?buttonX@@3HA, eax
$LN63@BattleMenu:

; 3729 : 			}
; 3730 : 			
; 3731 : 			BattleButtonWaza();

  008de	e8 00 00 00 00	 call	 ?BattleButtonWaza@@YAXXZ ; BattleButtonWaza

; 3732 : 			
; 3733 : 			if( mouse.onceState & MOUSE_RIGHT_CRICK ){ 

  008e3	a1 2c 00 00 00	 mov	 eax, DWORD PTR ?mouse@@3UMOUSE@@A+44
  008e8	83 e0 02	 and	 eax, 2
  008eb	74 14		 je	 SHORT $LN64@BattleMenu

; 3734 : 				battlePetButtonFlag = TRUE;

  008ed	c7 05 00 00 00
	00 01 00 00 00	 mov	 DWORD PTR ?battlePetButtonFlag@@3HA, 1 ; battlePetButtonFlag

; 3735 : 				battleWazaTargetBak = -1;

  008f7	c7 05 00 00 00
	00 ff ff ff ff	 mov	 DWORD PTR ?battleWazaTargetBak@@3HA, -1 ; battleWazaTargetBak
$LN64@BattleMenu:

; 3736 : 			}
; 3737 : 		}else{

  00901	eb 75		 jmp	 SHORT $LN62@BattleMenu
$LN61@BattleMenu:

; 3738 : 			if( buttonA <= 25 ){

  00903	83 3d 00 00 00
	00 19		 cmp	 DWORD PTR ?buttonA@@3HA, 25 ; 00000019H
  0090a	7f 1f		 jg	 SHORT $LN65@BattleMenu

; 3739 : 				buttonA++;

  0090c	a1 00 00 00 00	 mov	 eax, DWORD PTR ?buttonA@@3HA
  00911	83 c0 01	 add	 eax, 1
  00914	a3 00 00 00 00	 mov	 DWORD PTR ?buttonA@@3HA, eax

; 3740 : 				buttonX += buttonA;

  00919	a1 00 00 00 00	 mov	 eax, DWORD PTR ?buttonX@@3HA
  0091e	03 05 00 00 00
	00		 add	 eax, DWORD PTR ?buttonA@@3HA
  00924	a3 00 00 00 00	 mov	 DWORD PTR ?buttonX@@3HA, eax

; 3741 : 			}else{

  00929	eb 4d		 jmp	 SHORT $LN62@BattleMenu
$LN65@BattleMenu:

; 3742 : 				ClearBoxFlag();

  0092b	e8 00 00 00 00	 call	 ?ClearBoxFlag@@YAXXZ	; ClearBoxFlag

; 3743 : 				battleTargetSelectFlag = FALSE;

  00930	c7 05 00 00 00
	00 00 00 00 00	 mov	 DWORD PTR ?battleTargetSelectFlag@@3HA, 0

; 3744 : 				battleMenuFlag = FALSE;

  0093a	c7 05 00 00 00
	00 00 00 00 00	 mov	 DWORD PTR ?battleMenuFlag@@3HA, 0 ; battleMenuFlag

; 3745 : 				p_party[ BattleMyNo + 5 ]->atr |= ACT_ATR_BTL_CMD_END;

  00944	a1 00 00 00 00	 mov	 eax, DWORD PTR ?BattleMyNo@@3HA ; BattleMyNo
  00949	8b 0c 85 14 00
	00 00		 mov	 ecx, DWORD PTR ?p_party@@3PAPAUaction@@A[eax*4+20]
  00950	8b 91 a4 00 00
	00		 mov	 edx, DWORD PTR [ecx+164]
  00956	83 ca 40	 or	 edx, 64			; 00000040H
  00959	a1 00 00 00 00	 mov	 eax, DWORD PTR ?BattleMyNo@@3HA ; BattleMyNo
  0095e	8b 0c 85 14 00
	00 00		 mov	 ecx, DWORD PTR ?p_party@@3PAPAUaction@@A[eax*4+20]
  00965	89 91 a4 00 00
	00		 mov	 DWORD PTR [ecx+164], edx

; 3746 : 				SubProcNo++;

  0096b	a1 00 00 00 00	 mov	 eax, DWORD PTR ?SubProcNo@@3IA ; SubProcNo
  00970	83 c0 01	 add	 eax, 1
  00973	a3 00 00 00 00	 mov	 DWORD PTR ?SubProcNo@@3IA, eax ; SubProcNo
$LN62@BattleMenu:

; 3747 : 			}
; 3748 : 		}
; 3749 : 		
; 3750 : 		if( battleWazaTargetBak != -1 ){

  00978	83 3d 00 00 00
	00 ff		 cmp	 DWORD PTR ?battleWazaTargetBak@@3HA, -1 ; battleWazaTargetBak
  0097f	0f 84 84 00 00
	00		 je	 $LN67@BattleMenu

; 3751 : 			sprintf( moji,"%-24s",petSkill[ battlePetNoBak ][ BattleWazaNo ].name );

  00985	69 05 00 00 00
	00 e6 02 00 00	 imul	 eax, DWORD PTR ?battlePetNoBak@@3HA, 742 ; battlePetNoBak
  0098f	6b 0d 00 00 00
	00 6a		 imul	 ecx, DWORD PTR ?BattleWazaNo@@3HA, 106 ; BattleWazaNo
  00996	8d 94 08 08 00
	00 00		 lea	 edx, DWORD PTR ?petSkill@@3PAY06UPET_SKILL@@A[eax+ecx+8]
  0099d	52		 push	 edx
  0099e	68 00 00 00 00	 push	 OFFSET ??_C@_05FNFPHGDP@?$CF?924s?$AA@
  009a3	8d 85 f8 fe ff
	ff		 lea	 eax, DWORD PTR _moji$[ebp]
  009a9	50		 push	 eax
  009aa	e8 00 00 00 00	 call	 _sprintf
  009af	83 c4 0c	 add	 esp, 12			; 0000000cH

; 3752 : 			StockFontBuffer( buttonX - 100, buttonY - 7, FONT_PRIO_FRONT, 0, moji, 0 );

  009b2	6a 00		 push	 0
  009b4	8d 85 f8 fe ff
	ff		 lea	 eax, DWORD PTR _moji$[ebp]
  009ba	50		 push	 eax
  009bb	6a 00		 push	 0
  009bd	6a 01		 push	 1
  009bf	8b 0d 00 00 00
	00		 mov	 ecx, DWORD PTR ?buttonY@@3HA
  009c5	83 e9 07	 sub	 ecx, 7
  009c8	51		 push	 ecx
  009c9	8b 15 00 00 00
	00		 mov	 edx, DWORD PTR ?buttonX@@3HA
  009cf	83 ea 64	 sub	 edx, 100		; 00000064H
  009d2	52		 push	 edx
  009d3	e8 00 00 00 00	 call	 ?StockFontBuffer@@YAHHHDHPADH@Z ; StockFontBuffer
  009d8	83 c4 18	 add	 esp, 24			; 00000018H

; 3753 : 			battleButtonDispNo[ 8 ] = StockDispBuffer( buttonX, buttonY, DISP_PRIO_IME3, CG_PET_BTL_BUTTON_CANCEL_UP, 2 );

  009db	6a 02		 push	 2
  009dd	68 37 62 00 00	 push	 25143			; 00006237H
  009e2	6a 69		 push	 105			; 00000069H
  009e4	a1 00 00 00 00	 mov	 eax, DWORD PTR ?buttonY@@3HA
  009e9	50		 push	 eax
  009ea	8b 0d 00 00 00
	00		 mov	 ecx, DWORD PTR ?buttonX@@3HA
  009f0	51		 push	 ecx
  009f1	e8 00 00 00 00	 call	 ?StockDispBuffer@@YAHHHEHH@Z ; StockDispBuffer
  009f6	83 c4 14	 add	 esp, 20			; 00000014H
  009f9	ba 04 00 00 00	 mov	 edx, 4
  009fe	c1 e2 03	 shl	 edx, 3
  00a01	89 82 00 00 00
	00		 mov	 DWORD PTR ?battleButtonDispNo@@3PAHA[edx], eax

; 3754 : 
; 3755 : 		}else{

  00a07	eb 3c		 jmp	 SHORT $LN68@BattleMenu
$LN67@BattleMenu:

; 3756 : 			battleButtonDispNo[ 8 ] = StockDispBuffer( buttonX, buttonY, DISP_PRIO_IME3, CG_PET_BTL_BUTTON_WAZA_UP + battleButtonFlag[ 8 ], 2 );

  00a09	6a 02		 push	 2
  00a0b	b8 04 00 00 00	 mov	 eax, 4
  00a10	c1 e0 03	 shl	 eax, 3
  00a13	8b 88 00 00 00
	00		 mov	 ecx, DWORD PTR ?battleButtonFlag@@3PAHA[eax]
  00a19	81 c1 35 62 00
	00		 add	 ecx, 25141		; 00006235H
  00a1f	51		 push	 ecx
  00a20	6a 69		 push	 105			; 00000069H
  00a22	8b 15 00 00 00
	00		 mov	 edx, DWORD PTR ?buttonY@@3HA
  00a28	52		 push	 edx
  00a29	a1 00 00 00 00	 mov	 eax, DWORD PTR ?buttonX@@3HA
  00a2e	50		 push	 eax
  00a2f	e8 00 00 00 00	 call	 ?StockDispBuffer@@YAHHHEHH@Z ; StockDispBuffer
  00a34	83 c4 14	 add	 esp, 20			; 00000014H
  00a37	b9 04 00 00 00	 mov	 ecx, 4
  00a3c	c1 e1 03	 shl	 ecx, 3
  00a3f	89 81 00 00 00
	00		 mov	 DWORD PTR ?battleButtonDispNo@@3PAHA[ecx], eax
$LN68@BattleMenu:

; 3757 : 		}
; 3758 : 		StockDispBuffer( buttonX, buttonY, DISP_PRIO_MENU, CG_PET_BTL_BUTTON_BASE, 0 );

  00a45	6a 00		 push	 0
  00a47	68 34 62 00 00	 push	 25140			; 00006234H
  00a4c	6a 68		 push	 104			; 00000068H
  00a4e	a1 00 00 00 00	 mov	 eax, DWORD PTR ?buttonY@@3HA
  00a53	50		 push	 eax
  00a54	8b 0d 00 00 00
	00		 mov	 ecx, DWORD PTR ?buttonX@@3HA
  00a5a	51		 push	 ecx
  00a5b	e8 00 00 00 00	 call	 ?StockDispBuffer@@YAHHHEHH@Z ; StockDispBuffer
  00a60	83 c4 14	 add	 esp, 20			; 00000014H
$LN60@BattleMenu:

; 3759 : 	}
; 3760 : 
; 3761 : 	BattleCntDownDisp();

  00a63	e8 00 00 00 00	 call	 ?BattleCntDownDisp@@YAXXZ ; BattleCntDownDisp
$LN1@BattleMenu:

; 3762 : }

  00a68	52		 push	 edx
  00a69	8b cd		 mov	 ecx, ebp
  00a6b	50		 push	 eax
  00a6c	8d 15 00 00 00
	00		 lea	 edx, DWORD PTR $LN72@BattleMenu
  00a72	e8 00 00 00 00	 call	 @_RTC_CheckStackVars@8
  00a77	58		 pop	 eax
  00a78	5a		 pop	 edx
  00a79	5f		 pop	 edi
  00a7a	5e		 pop	 esi
  00a7b	5b		 pop	 ebx
  00a7c	8b 4d fc	 mov	 ecx, DWORD PTR __$ArrayPad$[ebp]
  00a7f	33 cd		 xor	 ecx, ebp
  00a81	e8 00 00 00 00	 call	 @__security_check_cookie@4
  00a86	81 c4 d8 01 00
	00		 add	 esp, 472		; 000001d8H
  00a8c	3b ec		 cmp	 ebp, esp
  00a8e	e8 00 00 00 00	 call	 __RTC_CheckEsp
  00a93	8b e5		 mov	 esp, ebp
  00a95	5d		 pop	 ebp
  00a96	c3		 ret	 0
  00a97	90		 npad	 1
$LN72@BattleMenu:
  00a98	01 00 00 00	 DD	 1
  00a9c	00 00 00 00	 DD	 $LN71@BattleMenu
$LN71@BattleMenu:
  00aa0	f8 fe ff ff	 DD	 -264			; fffffef8H
  00aa4	00 01 00 00	 DD	 256			; 00000100H
  00aa8	00 00 00 00	 DD	 $LN70@BattleMenu
$LN70@BattleMenu:
  00aac	6d		 DB	 109			; 0000006dH
  00aad	6f		 DB	 111			; 0000006fH
  00aae	6a		 DB	 106			; 0000006aH
  00aaf	69		 DB	 105			; 00000069H
  00ab0	00		 DB	 0
?BattleMenuProc@@YAXXZ ENDP				; BattleMenuProc
_TEXT	ENDS
; Function compile flags: /Odtp /RTCsu /ZI
; File c:\program files (x86)\windows kits\10\include\10.0.10240.0\ucrt\stdio.h
;	COMDAT _sprintf
_TEXT	SEGMENT
__ArgList$ = -20					; size = 4
__Result$ = -8						; size = 4
__Buffer$ = 8						; size = 4
__Format$ = 12						; size = 4
_sprintf PROC						; COMDAT

; 1776 : {

  00000	55		 push	 ebp
  00001	8b ec		 mov	 ebp, esp
  00003	81 ec d8 00 00
	00		 sub	 esp, 216		; 000000d8H
  00009	53		 push	 ebx
  0000a	56		 push	 esi
  0000b	57		 push	 edi
  0000c	8d bd 28 ff ff
	ff		 lea	 edi, DWORD PTR [ebp-216]
  00012	b9 36 00 00 00	 mov	 ecx, 54			; 00000036H
  00017	b8 cc cc cc cc	 mov	 eax, -858993460		; ccccccccH
  0001c	f3 ab		 rep stosd

; 1777 :     int _Result;
; 1778 :     va_list _ArgList;
; 1779 :     __crt_va_start(_ArgList, _Format);

  0001e	e8 00 00 00 00	 call	 ??$__vcrt_va_start_verify_argument_type@QBD@@YAXXZ ; __vcrt_va_start_verify_argument_type<char const * const>
  00023	8d 45 10	 lea	 eax, DWORD PTR __Format$[ebp+4]
  00026	89 45 ec	 mov	 DWORD PTR __ArgList$[ebp], eax

; 1780 : 
; 1781 :     #pragma warning(push)
; 1782 :     #pragma warning(disable: 4996) // Deprecation
; 1783 :     _Result = _vsprintf_l(_Buffer, _Format, NULL, _ArgList);

  00029	8b 45 ec	 mov	 eax, DWORD PTR __ArgList$[ebp]
  0002c	50		 push	 eax
  0002d	6a 00		 push	 0
  0002f	8b 4d 0c	 mov	 ecx, DWORD PTR __Format$[ebp]
  00032	51		 push	 ecx
  00033	8b 55 08	 mov	 edx, DWORD PTR __Buffer$[ebp]
  00036	52		 push	 edx
  00037	e8 00 00 00 00	 call	 __vsprintf_l
  0003c	83 c4 10	 add	 esp, 16			; 00000010H
  0003f	89 45 f8	 mov	 DWORD PTR __Result$[ebp], eax

; 1784 :     #pragma warning(pop)
; 1785 : 
; 1786 :     __crt_va_end(_ArgList);

  00042	c7 45 ec 00 00
	00 00		 mov	 DWORD PTR __ArgList$[ebp], 0

; 1787 :     return _Result;

  00049	8b 45 f8	 mov	 eax, DWORD PTR __Result$[ebp]

; 1788 : }

  0004c	5f		 pop	 edi
  0004d	5e		 pop	 esi
  0004e	5b		 pop	 ebx
  0004f	81 c4 d8 00 00
	00		 add	 esp, 216		; 000000d8H
  00055	3b ec		 cmp	 ebp, esp
  00057	e8 00 00 00 00	 call	 __RTC_CheckEsp
  0005c	8b e5		 mov	 esp, ebp
  0005e	5d		 pop	 ebp
  0005f	c3		 ret	 0
_sprintf ENDP
_TEXT	ENDS
; Function compile flags: /Odtp /RTCsu /ZI
; File c:\program files (x86)\windows kits\10\include\10.0.10240.0\ucrt\stdio.h
;	COMDAT _vsprintf_s
_TEXT	SEGMENT
__Buffer$ = 8						; size = 4
__BufferCount$ = 12					; size = 4
__Format$ = 16						; size = 4
__ArgList$ = 20						; size = 4
_vsprintf_s PROC					; COMDAT

; 1515 :     {

  00000	55		 push	 ebp
  00001	8b ec		 mov	 ebp, esp
  00003	81 ec c0 00 00
	00		 sub	 esp, 192		; 000000c0H
  00009	53		 push	 ebx
  0000a	56		 push	 esi
  0000b	57		 push	 edi
  0000c	8d bd 40 ff ff
	ff		 lea	 edi, DWORD PTR [ebp-192]
  00012	b9 30 00 00 00	 mov	 ecx, 48			; 00000030H
  00017	b8 cc cc cc cc	 mov	 eax, -858993460		; ccccccccH
  0001c	f3 ab		 rep stosd

; 1516 :         return _vsprintf_s_l(_Buffer, _BufferCount, _Format, NULL, _ArgList);

  0001e	8b 45 14	 mov	 eax, DWORD PTR __ArgList$[ebp]
  00021	50		 push	 eax
  00022	6a 00		 push	 0
  00024	8b 4d 10	 mov	 ecx, DWORD PTR __Format$[ebp]
  00027	51		 push	 ecx
  00028	8b 55 0c	 mov	 edx, DWORD PTR __BufferCount$[ebp]
  0002b	52		 push	 edx
  0002c	8b 45 08	 mov	 eax, DWORD PTR __Buffer$[ebp]
  0002f	50		 push	 eax
  00030	e8 00 00 00 00	 call	 __vsprintf_s_l
  00035	83 c4 14	 add	 esp, 20			; 00000014H

; 1517 :     }

  00038	5f		 pop	 edi
  00039	5e		 pop	 esi
  0003a	5b		 pop	 ebx
  0003b	81 c4 c0 00 00
	00		 add	 esp, 192		; 000000c0H
  00041	3b ec		 cmp	 ebp, esp
  00043	e8 00 00 00 00	 call	 __RTC_CheckEsp
  00048	8b e5		 mov	 esp, ebp
  0004a	5d		 pop	 ebp
  0004b	c3		 ret	 0
_vsprintf_s ENDP
_TEXT	ENDS
; Function compile flags: /Odtp /RTCsu /ZI
; File c:\program files (x86)\windows kits\10\include\10.0.10240.0\ucrt\stdio.h
;	COMDAT __vsprintf_s_l
_TEXT	SEGMENT
tv73 = -208						; size = 4
__Result$ = -8						; size = 4
__Buffer$ = 8						; size = 4
__BufferCount$ = 12					; size = 4
__Format$ = 16						; size = 4
__Locale$ = 20						; size = 4
__ArgList$ = 24						; size = 4
__vsprintf_s_l PROC					; COMDAT

; 1493 : {

  00000	55		 push	 ebp
  00001	8b ec		 mov	 ebp, esp
  00003	81 ec d0 00 00
	00		 sub	 esp, 208		; 000000d0H
  00009	53		 push	 ebx
  0000a	56		 push	 esi
  0000b	57		 push	 edi
  0000c	8d bd 30 ff ff
	ff		 lea	 edi, DWORD PTR [ebp-208]
  00012	b9 34 00 00 00	 mov	 ecx, 52			; 00000034H
  00017	b8 cc cc cc cc	 mov	 eax, -858993460		; ccccccccH
  0001c	f3 ab		 rep stosd

; 1494 :     int const _Result = __stdio_common_vsprintf_s(

  0001e	8b f4		 mov	 esi, esp
  00020	8b 45 18	 mov	 eax, DWORD PTR __ArgList$[ebp]
  00023	50		 push	 eax
  00024	8b 4d 14	 mov	 ecx, DWORD PTR __Locale$[ebp]
  00027	51		 push	 ecx
  00028	8b 55 10	 mov	 edx, DWORD PTR __Format$[ebp]
  0002b	52		 push	 edx
  0002c	8b 45 0c	 mov	 eax, DWORD PTR __BufferCount$[ebp]
  0002f	50		 push	 eax
  00030	8b 4d 08	 mov	 ecx, DWORD PTR __Buffer$[ebp]
  00033	51		 push	 ecx
  00034	e8 00 00 00 00	 call	 ___local_stdio_printf_options
  00039	8b 50 04	 mov	 edx, DWORD PTR [eax+4]
  0003c	52		 push	 edx
  0003d	8b 00		 mov	 eax, DWORD PTR [eax]
  0003f	50		 push	 eax
  00040	ff 15 00 00 00
	00		 call	 DWORD PTR __imp____stdio_common_vsprintf_s
  00046	83 c4 1c	 add	 esp, 28			; 0000001cH
  00049	3b f4		 cmp	 esi, esp
  0004b	e8 00 00 00 00	 call	 __RTC_CheckEsp
  00050	89 45 f8	 mov	 DWORD PTR __Result$[ebp], eax

; 1495 :         _CRT_INTERNAL_LOCAL_PRINTF_OPTIONS,
; 1496 :         _Buffer, _BufferCount, _Format, _Locale, _ArgList);
; 1497 : 
; 1498 :     return _Result < 0 ? -1 : _Result;

  00053	83 7d f8 00	 cmp	 DWORD PTR __Result$[ebp], 0
  00057	7d 0c		 jge	 SHORT $LN3@vsprintf_s
  00059	c7 85 30 ff ff
	ff ff ff ff ff	 mov	 DWORD PTR tv73[ebp], -1
  00063	eb 09		 jmp	 SHORT $LN4@vsprintf_s
$LN3@vsprintf_s:
  00065	8b 45 f8	 mov	 eax, DWORD PTR __Result$[ebp]
  00068	89 85 30 ff ff
	ff		 mov	 DWORD PTR tv73[ebp], eax
$LN4@vsprintf_s:
  0006e	8b 85 30 ff ff
	ff		 mov	 eax, DWORD PTR tv73[ebp]

; 1499 : }

  00074	5f		 pop	 edi
  00075	5e		 pop	 esi
  00076	5b		 pop	 ebx
  00077	81 c4 d0 00 00
	00		 add	 esp, 208		; 000000d0H
  0007d	3b ec		 cmp	 ebp, esp
  0007f	e8 00 00 00 00	 call	 __RTC_CheckEsp
  00084	8b e5		 mov	 esp, ebp
  00086	5d		 pop	 ebp
  00087	c3		 ret	 0
__vsprintf_s_l ENDP
_TEXT	ENDS
; Function compile flags: /Odtp /RTCsu /ZI
; File c:\program files (x86)\windows kits\10\include\10.0.10240.0\ucrt\stdio.h
;	COMDAT __vsprintf_l
_TEXT	SEGMENT
__Buffer$ = 8						; size = 4
__Format$ = 12						; size = 4
__Locale$ = 16						; size = 4
__ArgList$ = 20						; size = 4
__vsprintf_l PROC					; COMDAT

; 1455 : {

  00000	55		 push	 ebp
  00001	8b ec		 mov	 ebp, esp
  00003	81 ec c0 00 00
	00		 sub	 esp, 192		; 000000c0H
  00009	53		 push	 ebx
  0000a	56		 push	 esi
  0000b	57		 push	 edi
  0000c	8d bd 40 ff ff
	ff		 lea	 edi, DWORD PTR [ebp-192]
  00012	b9 30 00 00 00	 mov	 ecx, 48			; 00000030H
  00017	b8 cc cc cc cc	 mov	 eax, -858993460		; ccccccccH
  0001c	f3 ab		 rep stosd

; 1456 :     #pragma warning(push)
; 1457 :     #pragma warning(disable: 4996) // Deprecation
; 1458 :     return _vsnprintf_l(_Buffer, (size_t)-1, _Format, _Locale, _ArgList);

  0001e	8b 45 14	 mov	 eax, DWORD PTR __ArgList$[ebp]
  00021	50		 push	 eax
  00022	8b 4d 10	 mov	 ecx, DWORD PTR __Locale$[ebp]
  00025	51		 push	 ecx
  00026	8b 55 0c	 mov	 edx, DWORD PTR __Format$[ebp]
  00029	52		 push	 edx
  0002a	6a ff		 push	 -1
  0002c	8b 45 08	 mov	 eax, DWORD PTR __Buffer$[ebp]
  0002f	50		 push	 eax
  00030	e8 00 00 00 00	 call	 __vsnprintf_l
  00035	83 c4 14	 add	 esp, 20			; 00000014H

; 1459 :     #pragma warning(pop)
; 1460 : }

  00038	5f		 pop	 edi
  00039	5e		 pop	 esi
  0003a	5b		 pop	 ebx
  0003b	81 c4 c0 00 00
	00		 add	 esp, 192		; 000000c0H
  00041	3b ec		 cmp	 ebp, esp
  00043	e8 00 00 00 00	 call	 __RTC_CheckEsp
  00048	8b e5		 mov	 esp, ebp
  0004a	5d		 pop	 ebp
  0004b	c3		 ret	 0
__vsprintf_l ENDP
_TEXT	ENDS
; Function compile flags: /Odtp /RTCsu /ZI
; File c:\program files (x86)\windows kits\10\include\10.0.10240.0\ucrt\stdio.h
;	COMDAT __vsnprintf_l
_TEXT	SEGMENT
tv74 = -208						; size = 4
__Result$ = -8						; size = 4
__Buffer$ = 8						; size = 4
__BufferCount$ = 12					; size = 4
__Format$ = 16						; size = 4
__Locale$ = 20						; size = 4
__ArgList$ = 24						; size = 4
__vsnprintf_l PROC					; COMDAT

; 1385 : {

  00000	55		 push	 ebp
  00001	8b ec		 mov	 ebp, esp
  00003	81 ec d0 00 00
	00		 sub	 esp, 208		; 000000d0H
  00009	53		 push	 ebx
  0000a	56		 push	 esi
  0000b	57		 push	 edi
  0000c	8d bd 30 ff ff
	ff		 lea	 edi, DWORD PTR [ebp-208]
  00012	b9 34 00 00 00	 mov	 ecx, 52			; 00000034H
  00017	b8 cc cc cc cc	 mov	 eax, -858993460		; ccccccccH
  0001c	f3 ab		 rep stosd

; 1386 :     int const _Result = __stdio_common_vsprintf(

  0001e	8b f4		 mov	 esi, esp
  00020	8b 45 18	 mov	 eax, DWORD PTR __ArgList$[ebp]
  00023	50		 push	 eax
  00024	8b 4d 14	 mov	 ecx, DWORD PTR __Locale$[ebp]
  00027	51		 push	 ecx
  00028	8b 55 10	 mov	 edx, DWORD PTR __Format$[ebp]
  0002b	52		 push	 edx
  0002c	8b 45 0c	 mov	 eax, DWORD PTR __BufferCount$[ebp]
  0002f	50		 push	 eax
  00030	8b 4d 08	 mov	 ecx, DWORD PTR __Buffer$[ebp]
  00033	51		 push	 ecx
  00034	e8 00 00 00 00	 call	 ___local_stdio_printf_options
  00039	8b 10		 mov	 edx, DWORD PTR [eax]
  0003b	83 ca 01	 or	 edx, 1
  0003e	8b 40 04	 mov	 eax, DWORD PTR [eax+4]
  00041	50		 push	 eax
  00042	52		 push	 edx
  00043	ff 15 00 00 00
	00		 call	 DWORD PTR __imp____stdio_common_vsprintf
  00049	83 c4 1c	 add	 esp, 28			; 0000001cH
  0004c	3b f4		 cmp	 esi, esp
  0004e	e8 00 00 00 00	 call	 __RTC_CheckEsp
  00053	89 45 f8	 mov	 DWORD PTR __Result$[ebp], eax

; 1387 :         _CRT_INTERNAL_LOCAL_PRINTF_OPTIONS | _CRT_INTERNAL_PRINTF_LEGACY_VSPRINTF_NULL_TERMINATION,
; 1388 :         _Buffer, _BufferCount, _Format, _Locale, _ArgList);
; 1389 : 
; 1390 :     return _Result < 0 ? -1 : _Result;

  00056	83 7d f8 00	 cmp	 DWORD PTR __Result$[ebp], 0
  0005a	7d 0c		 jge	 SHORT $LN3@vsnprintf_
  0005c	c7 85 30 ff ff
	ff ff ff ff ff	 mov	 DWORD PTR tv74[ebp], -1
  00066	eb 09		 jmp	 SHORT $LN4@vsnprintf_
$LN3@vsnprintf_:
  00068	8b 45 f8	 mov	 eax, DWORD PTR __Result$[ebp]
  0006b	89 85 30 ff ff
	ff		 mov	 DWORD PTR tv74[ebp], eax
$LN4@vsnprintf_:
  00071	8b 85 30 ff ff
	ff		 mov	 eax, DWORD PTR tv74[ebp]

; 1391 : }

  00077	5f		 pop	 edi
  00078	5e		 pop	 esi
  00079	5b		 pop	 ebx
  0007a	81 c4 d0 00 00
	00		 add	 esp, 208		; 000000d0H
  00080	3b ec		 cmp	 ebp, esp
  00082	e8 00 00 00 00	 call	 __RTC_CheckEsp
  00087	8b e5		 mov	 esp, ebp
  00089	5d		 pop	 ebp
  0008a	c3		 ret	 0
__vsnprintf_l ENDP
_TEXT	ENDS
; Function compile flags: /Odtp /RTCsu /ZI
; File c:\program files (x86)\microsoft visual studio 14.0\vc\include\vadefs.h
;	COMDAT ??$__vcrt_va_start_verify_argument_type@QBD@@YAXXZ
_TEXT	SEGMENT
??$__vcrt_va_start_verify_argument_type@QBD@@YAXXZ PROC	; __vcrt_va_start_verify_argument_type<char const * const>, COMDAT

; 144  :         {

  00000	55		 push	 ebp
  00001	8b ec		 mov	 ebp, esp
  00003	81 ec c0 00 00
	00		 sub	 esp, 192		; 000000c0H
  00009	53		 push	 ebx
  0000a	56		 push	 esi
  0000b	57		 push	 edi
  0000c	8d bd 40 ff ff
	ff		 lea	 edi, DWORD PTR [ebp-192]
  00012	b9 30 00 00 00	 mov	 ecx, 48			; 00000030H
  00017	b8 cc cc cc cc	 mov	 eax, -858993460		; ccccccccH
  0001c	f3 ab		 rep stosd

; 145  :             static_assert(!__vcrt_va_list_is_reference<_Ty>::__the_value, "va_start argument must not have reference type and must not be parenthesized");
; 146  :         }

  0001e	5f		 pop	 edi
  0001f	5e		 pop	 esi
  00020	5b		 pop	 ebx
  00021	8b e5		 mov	 esp, ebp
  00023	5d		 pop	 ebp
  00024	c3		 ret	 0
??$__vcrt_va_start_verify_argument_type@QBD@@YAXXZ ENDP	; __vcrt_va_start_verify_argument_type<char const * const>
_TEXT	ENDS
; Function compile flags: /Odtp /RTCsu /ZI
; File c:\program files (x86)\windows kits\10\include\10.0.10240.0\ucrt\corecrt_stdio_config.h
;	COMDAT ___local_stdio_printf_options
_TEXT	SEGMENT
___local_stdio_printf_options PROC			; COMDAT

; 73   : {

  00000	55		 push	 ebp
  00001	8b ec		 mov	 ebp, esp
  00003	81 ec c0 00 00
	00		 sub	 esp, 192		; 000000c0H
  00009	53		 push	 ebx
  0000a	56		 push	 esi
  0000b	57		 push	 edi
  0000c	8d bd 40 ff ff
	ff		 lea	 edi, DWORD PTR [ebp-192]
  00012	b9 30 00 00 00	 mov	 ecx, 48			; 00000030H
  00017	b8 cc cc cc cc	 mov	 eax, -858993460		; ccccccccH
  0001c	f3 ab		 rep stosd

; 74   :     static unsigned __int64 _OptionsStorage;
; 75   :     return &_OptionsStorage;

  0001e	b8 00 00 00 00	 mov	 eax, OFFSET ?_OptionsStorage@?1??__local_stdio_printf_options@@9@4_KA ; `__local_stdio_printf_options'::`2'::_OptionsStorage

; 76   : }

  00023	5f		 pop	 edi
  00024	5e		 pop	 esi
  00025	5b		 pop	 ebx
  00026	8b e5		 mov	 esp, ebp
  00028	5d		 pop	 ebp
  00029	c3		 ret	 0
___local_stdio_printf_options ENDP
_TEXT	ENDS
END
