; Listing generated by Microsoft (R) Optimizing Compiler Version 19.00.24215.1 

	TITLE	C:\Users\Administrator\Desktop\????? ??\????? ??\Client Source Code\system\character.cpp
	.686P
	.XMM
	include listing.inc
	.model	flat

INCLUDELIB MSVCRTD
INCLUDELIB OLDNAMES

PUBLIC	?nameOverTheHeadFlag@@3FA			; nameOverTheHeadFlag
PUBLIC	?charObj@@3PAUCHAROBJ@@A			; charObj
PUBLIC	?maxCharObj@@3HA				; maxCharObj
PUBLIC	?tailCharObj@@3HA				; tailCharObj
PUBLIC	?freeCharObj@@3HA				; freeCharObj
PUBLIC	?searchCharObj@@3HA				; searchCharObj
PUBLIC	?popflag@@3_NA					; popflag
PUBLIC	?waittimeflag@@3_NA				; waittimeflag
PUBLIC	?waittime@@3HA					; waittime
PUBLIC	?charIconOffsetY@@3PAHA				; charIconOffsetY
PUBLIC	?battleIconTbl@@3PAY01HA			; battleIconTbl
PUBLIC	?itemOverlapTbl@@3PAUITEM_OVERLAP_CHECK@@A	; itemOverlapTbl
PUBLIC	?itemOverlapCheckCnt@@3HA			; itemOverlapCheckCnt
_BSS	SEGMENT
?charObj@@3PAUCHAROBJ@@A DB 062250H DUP (?)		; charObj
?maxCharObj@@3HA DD 01H DUP (?)				; maxCharObj
?tailCharObj@@3HA DD 01H DUP (?)			; tailCharObj
?freeCharObj@@3HA DD 01H DUP (?)			; freeCharObj
?searchCharObj@@3HA DD 01H DUP (?)			; searchCharObj
?popflag@@3_NA DB 01H DUP (?)				; popflag
	ALIGN	4

?waittimeflag@@3_NA DB 01H DUP (?)			; waittimeflag
	ALIGN	4

?waittime@@3HA DD 01H DUP (?)				; waittime
?itemOverlapTbl@@3PAUITEM_OVERLAP_CHECK@@A DB 04b0H DUP (?) ; itemOverlapTbl
?itemOverlapCheckCnt@@3HA DD 01H DUP (?)		; itemOverlapCheckCnt
_BSS	ENDS
_DATA	SEGMENT
?nameOverTheHeadFlag@@3FA DW 01H			; nameOverTheHeadFlag
	ORG $+6
?ridePetTable@@3PAUtagRidePetTable@@A DD 018a88H	; ridePetTable
	DD	0186a0H
	DD	018800H
	DD	00H
	DD	018a89H
	DD	0186a5H
	DD	018800H
	DD	00H
	DD	018a8aH
	DD	0186aaH
	DD	018800H
	DD	00H
	DD	018a8bH
	DD	0186afH
	DD	018800H
	DD	00H
	DD	018a8cH
	DD	0186a0H
	DD	0187e9H
	DD	00H
	DD	018a8dH
	DD	0186a5H
	DD	0187e7H
	DD	00H
	DD	018a8eH
	DD	0186aaH
	DD	0187eaH
	DD	00H
	DD	018a8fH
	DD	0186afH
	DD	0187e8H
	DD	00H
	DD	018a90H
	DD	01895cH
	DD	018814H
	DD	00H
	DD	018a91H
	DD	018961H
	DD	018815H
	DD	00H
	DD	018e65H
	DD	018961H
	DD	018cc8H
	DD	00H
	DD	018e5aH
	DD	018961H
	DD	018c9cH
	DD	00H
	DD	018a92H
	DD	0186b4H
	DD	01882cH
	DD	00H
	DD	018a93H
	DD	0186b9H
	DD	01882cH
	DD	00H
	DD	018a94H
	DD	0186beH
	DD	01882cH
	DD	00H
	DD	018a95H
	DD	0186c3H
	DD	01882cH
	DD	00H
	DD	018a96H
	DD	0186b4H
	DD	0187e8H
	DD	00H
	DD	018a97H
	DD	0186b9H
	DD	0187e9H
	DD	00H
	DD	018a98H
	DD	0186beH
	DD	0187e7H
	DD	00H
	DD	018a99H
	DD	0186c3H
	DD	0187eaH
	DD	00H
	DD	018a9aH
	DD	018966H
	DD	018814H
	DD	00H
	DD	018a9bH
	DD	01896bH
	DD	018815H
	DD	00H
	DD	018e64H
	DD	01896bH
	DD	018cc8H
	DD	00H
	DD	018e62H
	DD	01896bH
	DD	018c9cH
	DD	00H
	DD	018a9cH
	DD	0186c8H
	DD	0187ffH
	DD	00H
	DD	018a9dH
	DD	0186cdH
	DD	0187ffH
	DD	00H
	DD	018a9eH
	DD	0186d2H
	DD	0187ffH
	DD	00H
	DD	018a9fH
	DD	0186d7H
	DD	0187ffH
	DD	00H
	DD	018aa0H
	DD	0186c8H
	DD	0187e8H
	DD	00H
	DD	018aa1H
	DD	0186cdH
	DD	0187eaH
	DD	00H
	DD	018aa2H
	DD	0186d2H
	DD	0187e7H
	DD	00H
	DD	018aa3H
	DD	0186d7H
	DD	0187e9H
	DD	00H
	DD	018aa4H
	DD	018970H
	DD	018814H
	DD	00H
	DD	018aa5H
	DD	018975H
	DD	018815H
	DD	00H
	DD	018e4dH
	DD	018975H
	DD	018cc8H
	DD	00H
	DD	018e57H
	DD	018975H
	DD	018c9cH
	DD	00H
	DD	018aa6H
	DD	0186dcH
	DD	018801H
	DD	00H
	DD	018aa7H
	DD	0186e1H
	DD	018801H
	DD	00H
	DD	018aa8H
	DD	0186e6H
	DD	018801H
	DD	00H
	DD	018aa9H
	DD	0186ebH
	DD	018801H
	DD	00H
	DD	018aaaH
	DD	0186dcH
	DD	0187e9H
	DD	00H
	DD	018aabH
	DD	0186e1H
	DD	0187e7H
	DD	00H
	DD	018aacH
	DD	0186e6H
	DD	0187eaH
	DD	00H
	DD	018aadH
	DD	0186ebH
	DD	0187e8H
	DD	00H
	DD	018aaeH
	DD	01897aH
	DD	018814H
	DD	00H
	DD	018aafH
	DD	01897fH
	DD	018815H
	DD	00H
	DD	018e4eH
	DD	01897fH
	DD	018cc8H
	DD	00H
	DD	018e58H
	DD	01897fH
	DD	018c9cH
	DD	00H
	DD	018ab0H
	DD	0186f0H
	DD	01882cH
	DD	00H
	DD	018ab1H
	DD	0186f5H
	DD	01882cH
	DD	00H
	DD	018ab2H
	DD	0186faH
	DD	01882cH
	DD	00H
	DD	018ab3H
	DD	0186ffH
	DD	01882cH
	DD	00H
	DD	018ab4H
	DD	0186f0H
	DD	0187e8H
	DD	00H
	DD	018ab5H
	DD	0186f5H
	DD	0187e7H
	DD	00H
	DD	018ab6H
	DD	0186faH
	DD	0187eaH
	DD	00H
	DD	018ab7H
	DD	0186ffH
	DD	0187e9H
	DD	00H
	DD	018ab8H
	DD	018984H
	DD	018814H
	DD	00H
	DD	018ab9H
	DD	018989H
	DD	018815H
	DD	00H
	DD	018e55H
	DD	018989H
	DD	018cc8H
	DD	00H
	DD	018e60H
	DD	018989H
	DD	018c9cH
	DD	00H
	DD	018abaH
	DD	018704H
	DD	018801H
	DD	00H
	DD	018abbH
	DD	018709H
	DD	018801H
	DD	00H
	DD	018abcH
	DD	01870eH
	DD	018801H
	DD	00H
	DD	018abdH
	DD	018713H
	DD	018801H
	DD	00H
	DD	018abeH
	DD	018704H
	DD	0187e9H
	DD	00H
	DD	018abfH
	DD	018709H
	DD	0187e8H
	DD	00H
	DD	018ac0H
	DD	01870eH
	DD	0187eaH
	DD	00H
	DD	018ac1H
	DD	018713H
	DD	0187e7H
	DD	00H
	DD	018ac2H
	DD	01898eH
	DD	018814H
	DD	00H
	DD	018ac3H
	DD	018993H
	DD	018815H
	DD	00H
	DD	018e56H
	DD	018993H
	DD	018cc8H
	DD	00H
	DD	018e61H
	DD	018993H
	DD	018c9cH
	DD	00H
	DD	018ac4H
	DD	018718H
	DD	018802H
	DD	00H
	DD	018ac5H
	DD	01871dH
	DD	018802H
	DD	00H
	DD	018ac6H
	DD	018722H
	DD	018802H
	DD	00H
	DD	018ac7H
	DD	018727H
	DD	018802H
	DD	00H
	DD	018ac8H
	DD	018718H
	DD	0187e7H
	DD	00H
	DD	018ac9H
	DD	01871dH
	DD	0187eaH
	DD	00H
	DD	018acaH
	DD	018722H
	DD	0187e8H
	DD	00H
	DD	018acbH
	DD	018727H
	DD	0187e9H
	DD	00H
	DD	018accH
	DD	018998H
	DD	018814H
	DD	00H
	DD	018acdH
	DD	01899dH
	DD	018815H
	DD	00H
	DD	018e4fH
	DD	01899dH
	DD	018cc8H
	DD	00H
	DD	018e59H
	DD	01899dH
	DD	018c9cH
	DD	00H
	DD	018aceH
	DD	01872cH
	DD	018802H
	DD	00H
	DD	018acfH
	DD	018731H
	DD	018802H
	DD	00H
	DD	018ad0H
	DD	018736H
	DD	018802H
	DD	00H
	DD	018ad1H
	DD	01873bH
	DD	018802H
	DD	00H
	DD	018ad2H
	DD	01872cH
	DD	0187e7H
	DD	00H
	DD	018ad3H
	DD	018731H
	DD	0187e9H
	DD	00H
	DD	018ad4H
	DD	018736H
	DD	0187eaH
	DD	00H
	DD	018ad5H
	DD	01873bH
	DD	0187e8H
	DD	00H
	DD	018ad6H
	DD	0189a2H
	DD	018814H
	DD	00H
	DD	018ad7H
	DD	0189a7H
	DD	018815H
	DD	00H
	DD	018e50H
	DD	0189a7H
	DD	018cc8H
	DD	00H
	DD	018e5bH
	DD	0189a7H
	DD	018c9cH
	DD	00H
	DD	018ad8H
	DD	018740H
	DD	018800H
	DD	00H
	DD	018ad9H
	DD	018745H
	DD	018800H
	DD	00H
	DD	018adaH
	DD	01874aH
	DD	018800H
	DD	00H
	DD	018adbH
	DD	01874fH
	DD	018800H
	DD	00H
	DD	018adcH
	DD	018740H
	DD	0187eaH
	DD	00H
	DD	018addH
	DD	018745H
	DD	0187e9H
	DD	00H
	DD	018adeH
	DD	01874aH
	DD	0187e7H
	DD	00H
	DD	018adfH
	DD	01874fH
	DD	0187e8H
	DD	00H
	DD	018ae0H
	DD	0189acH
	DD	018814H
	DD	00H
	DD	018ae1H
	DD	0189b1H
	DD	018815H
	DD	00H
	DD	018e52H
	DD	0189b1H
	DD	018cc8H
	DD	00H
	DD	018e5dH
	DD	0189b1H
	DD	018c9cH
	DD	00H
	DD	018ae2H
	DD	018754H
	DD	0187ffH
	DD	00H
	DD	018ae3H
	DD	018759H
	DD	0187ffH
	DD	00H
	DD	018ae4H
	DD	01875eH
	DD	0187ffH
	DD	00H
	DD	018ae5H
	DD	018763H
	DD	0187ffH
	DD	00H
	DD	018ae6H
	DD	018754H
	DD	0187e8H
	DD	00H
	DD	018ae7H
	DD	018759H
	DD	0187eaH
	DD	00H
	DD	018ae8H
	DD	01875eH
	DD	0187e9H
	DD	00H
	DD	018ae9H
	DD	018763H
	DD	0187e7H
	DD	00H
	DD	018aeaH
	DD	0189b6H
	DD	018814H
	DD	00H
	DD	018aebH
	DD	0189bbH
	DD	018815H
	DD	00H
	DD	018e51H
	DD	0189bbH
	DD	018cc8H
	DD	00H
	DD	018e5cH
	DD	0189bbH
	DD	018c9cH
	DD	00H
	DD	018aecH
	DD	018768H
	DD	018801H
	DD	00H
	DD	018aedH
	DD	01876dH
	DD	018801H
	DD	00H
	DD	018aeeH
	DD	018772H
	DD	018801H
	DD	00H
	DD	018aefH
	DD	018777H
	DD	018801H
	DD	00H
	DD	018af0H
	DD	018768H
	DD	0187e9H
	DD	00H
	DD	018af1H
	DD	01876dH
	DD	0187e8H
	DD	00H
	DD	018af2H
	DD	018772H
	DD	0187e7H
	DD	00H
	DD	018af3H
	DD	018777H
	DD	0187eaH
	DD	00H
	DD	018af4H
	DD	0189c0H
	DD	018814H
	DD	00H
	DD	018af5H
	DD	0189c5H
	DD	018815H
	DD	00H
	DD	018e54H
	DD	0189c5H
	DD	018cc8H
	DD	00H
	DD	018e5fH
	DD	0189c5H
	DD	018c9cH
	DD	00H
	DD	018af6H
	DD	01877cH
	DD	01882cH
	DD	00H
	DD	018af7H
	DD	018781H
	DD	01882cH
	DD	00H
	DD	018af8H
	DD	018786H
	DD	01882cH
	DD	00H
	DD	018af9H
	DD	01878bH
	DD	01882cH
	DD	00H
	DD	018afaH
	DD	01877cH
	DD	0187eaH
	DD	00H
	DD	018afbH
	DD	018781H
	DD	0187e7H
	DD	00H
	DD	018afcH
	DD	018786H
	DD	0187e9H
	DD	00H
	DD	018afdH
	DD	01878bH
	DD	0187e8H
	DD	00H
	DD	018afeH
	DD	0189caH
	DD	018814H
	DD	00H
	DD	018affH
	DD	0189cfH
	DD	018815H
	DD	00H
	DD	018e53H
	DD	0189cfH
	DD	018cc8H
	DD	00H
	DD	018e5eH
	DD	0189cfH
	DD	018c9cH
	DD	00H
	DD	018b3bH
	DD	018b39H
	DD	018b3aH
	DD	00H
	DD	018b3bH
	DD	018b3aH
	DD	018b39H
	DD	00H
?FontPal@@3PAKA DD 0ffffffH				; FontPal
	DD	0ffff00H
	DD	0ff00ffH
	DD	0ff0000H
	DD	0ffffH
	DD	0ff00H
	DD	0ffH
	DD	0a4a0a0H
	DD	0f0caa6H
	DD	0c0dcc0H
	DD	08cffH
	DD	0247fffH
?RideCodeMode@@3PAUtagRideCodeMode@@A DD 018816H	; RideCodeMode
	DD	01H
	DD	018806H
	DD	02H
	DD	01880aH
	DD	04H
	DD	0187b7H
	DD	08H
	DD	0187c0H
	DD	010H
	DD	0187bbH
	DD	020H
	DD	0187faH
	DD	040H
	DD	0187d6H
	DD	080H
	DD	018814H
	DD	0100H
	DD	018815H
	DD	0200H
	DD	018c9cH
	DD	0800H
	DD	018cc8H
	DD	0400H
	DD	018812H
	DD	01000H
	DD	018811H
	DD	02000H
	DD	018a28H
	DD	04000H
	DD	018a2bH
	DD	08000H
	DD	018f30H
	DD	010000H
	DD	018f31H
	DD	020000H
	DD	018f68H
	DD	040000H
	DD	0187fcH
	DD	080000H
	DD	0187d3H
	DD	0100000H
	DD	018fa9H
	DD	0200000H
	DD	018faaH
	DD	0400000H
	DD	018a09H
	DD	0800000H
	DD	018a0aH
	DD	01000000H
	DD	019394H
	DD	02000000H
	DD	0187b2H
	DD	04000000H
?RideNoList@@3PAUtagRideNoList@@A DD 018bb9H		; RideNoList
	DD	018bbaH
	DD	018bbbH
	DD	018bbcH
	DD	018bbdH
	DD	018bbeH
	DD	018bbfH
	DD	018bc0H
	DD	018a90H
	DD	018a91H
	DD	018e5aH
	DD	018e65H
	DD	018849H
	DD	018844H
	DD	01885dH
	DD	018ee5H
	DD	018f0dH
	DD	018f19H
	DD	018f76H
	ORG $+32
	DD	018bc1H
	DD	018bc2H
	DD	018bc3H
	DD	018bc4H
	DD	018bc5H
	DD	018bc6H
	DD	018bc7H
	DD	018bc8H
	DD	018a9aH
	DD	018a9bH
	DD	018e62H
	DD	018e64H
	DD	018849H
	DD	018844H
	DD	01885dH
	DD	018ee6H
	DD	018f0eH
	DD	018f1aH
	DD	018f77H
	ORG $+32
	DD	018bc9H
	DD	018bcaH
	DD	018bcbH
	DD	018bccH
	DD	018bcdH
	DD	018bceH
	DD	018bcfH
	DD	018bd0H
	DD	018aa4H
	DD	018aa5H
	DD	018e57H
	DD	018e4dH
	DD	018849H
	DD	018844H
	DD	01885dH
	DD	018ee7H
	DD	018f0fH
	DD	018f1bH
	DD	018f78H
	ORG $+32
	DD	018bd1H
	DD	018bd2H
	DD	018bd3H
	DD	018bd4H
	DD	018bd5H
	DD	018bd6H
	DD	018bd7H
	DD	018bd8H
	DD	018aaeH
	DD	018aafH
	DD	018e58H
	DD	018e4eH
	DD	018849H
	DD	018844H
	DD	01885dH
	DD	018ee8H
	DD	018f10H
	DD	018f1cH
	DD	018f79H
	ORG $+32
	DD	018bd9H
	DD	018bdaH
	DD	018bdbH
	DD	018bdcH
	DD	018bddH
	DD	018bdeH
	DD	018bdfH
	DD	018be0H
	DD	018ab8H
	DD	018ab9H
	DD	018e60H
	DD	018e55H
	DD	018849H
	DD	018844H
	DD	01885dH
	DD	018ee9H
	DD	018f11H
	DD	018f1dH
	DD	018f7aH
	ORG $+32
	DD	018be1H
	DD	018be2H
	DD	018be3H
	DD	018be4H
	DD	018be5H
	DD	018be6H
	DD	018be7H
	DD	018be8H
	DD	018ac2H
	DD	018ac3H
	DD	018e61H
	DD	018e56H
	DD	018849H
	DD	018844H
	DD	01885dH
	DD	018eeaH
	DD	018f12H
	DD	018f1eH
	DD	018f7bH
	ORG $+32
	DD	018be9H
	DD	018beaH
	DD	018bebH
	DD	018becH
	DD	018bedH
	DD	018beeH
	DD	018befH
	DD	018bf0H
	DD	018accH
	DD	018acdH
	DD	018e59H
	DD	018e4fH
	DD	018849H
	DD	018844H
	DD	01885dH
	DD	018eebH
	DD	018f13H
	DD	018f1fH
	DD	018f7cH
	ORG $+32
	DD	018bf1H
	DD	018bf2H
	DD	018bf3H
	DD	018bf4H
	DD	018bf5H
	DD	018bf6H
	DD	018bf7H
	DD	018bf8H
	DD	018ad6H
	DD	018ad7H
	DD	018e5bH
	DD	018e50H
	DD	018849H
	DD	018844H
	DD	01885dH
	DD	018eecH
	DD	018f14H
	DD	018f20H
	DD	018f7dH
	ORG $+32
	DD	018bf9H
	DD	018bfaH
	DD	018bfbH
	DD	018bfcH
	DD	018bfdH
	DD	018bfeH
	DD	018bffH
	DD	018c00H
	DD	018ae0H
	DD	018ae1H
	DD	018e5dH
	DD	018e52H
	DD	018849H
	DD	018844H
	DD	01885dH
	DD	018eedH
	DD	018f15H
	DD	018f21H
	DD	018f7eH
	ORG $+32
	DD	018c01H
	DD	018c02H
	DD	018c03H
	DD	018c04H
	DD	018c05H
	DD	018c06H
	DD	018c07H
	DD	018c08H
	DD	018aeaH
	DD	018aebH
	DD	018e5cH
	DD	018e51H
	DD	018849H
	DD	018844H
	DD	01885dH
	DD	018eeeH
	DD	018f16H
	DD	018f22H
	DD	018f7fH
	ORG $+32
	DD	018c09H
	DD	018c0aH
	DD	018c0bH
	DD	018c0cH
	DD	018c0dH
	DD	018c0eH
	DD	018c0fH
	DD	018c10H
	DD	018af4H
	DD	018af5H
	DD	018e5fH
	DD	018e54H
	DD	018849H
	DD	018844H
	DD	01885dH
	DD	018eefH
	DD	018f17H
	DD	018f23H
	DD	018f80H
	ORG $+32
	DD	018c11H
	DD	018c12H
	DD	018c13H
	DD	018c14H
	DD	018c15H
	DD	018c16H
	DD	018c17H
	DD	018c18H
	DD	018afeH
	DD	018affH
	DD	018e5eH
	DD	018e53H
	DD	018849H
	DD	018844H
	DD	01885dH
	DD	018ef0H
	DD	018f18H
	DD	018f24H
	DD	018f81H
	ORG $+32
?RPlistMode@@3PAUtagRidePetList@@A DD 0186a0H		; RPlistMode
	DD	00H
	DD	0186a5H
	DD	00H
	DD	0186aaH
	DD	00H
	DD	0186afH
	DD	00H
	DD	0186b4H
	DD	01H
	DD	0186b9H
	DD	01H
	DD	0186beH
	DD	01H
	DD	0186c3H
	DD	01H
	DD	0186c8H
	DD	02H
	DD	0186cdH
	DD	02H
	DD	0186d2H
	DD	02H
	DD	0186d7H
	DD	02H
	DD	0186dcH
	DD	03H
	DD	0186e1H
	DD	03H
	DD	0186e6H
	DD	03H
	DD	0186ebH
	DD	03H
	DD	0186f0H
	DD	04H
	DD	0186f5H
	DD	04H
	DD	0186faH
	DD	04H
	DD	0186ffH
	DD	04H
	DD	018704H
	DD	05H
	DD	018709H
	DD	05H
	DD	01870eH
	DD	05H
	DD	018713H
	DD	05H
	DD	018718H
	DD	06H
	DD	01871dH
	DD	06H
	DD	018722H
	DD	06H
	DD	018727H
	DD	06H
	DD	01872cH
	DD	07H
	DD	018731H
	DD	07H
	DD	018736H
	DD	07H
	DD	01873bH
	DD	07H
	DD	018740H
	DD	08H
	DD	018745H
	DD	08H
	DD	01874aH
	DD	08H
	DD	01874fH
	DD	08H
	DD	018754H
	DD	09H
	DD	018759H
	DD	09H
	DD	01875eH
	DD	09H
	DD	018763H
	DD	09H
	DD	018768H
	DD	0aH
	DD	01876dH
	DD	0aH
	DD	018772H
	DD	0aH
	DD	018777H
	DD	0aH
	DD	01877cH
	DD	0bH
	DD	018781H
	DD	0bH
	DD	018786H
	DD	0bH
	DD	01878bH
	DD	0bH
?charIconOffsetY@@3PAHA DD 0ffffffb9H			; charIconOffsetY
	DD	0ffffffa8H
	DD	0ffffffacH
	DD	0ffffffa8H
	DD	0ffffffa0H
	DD	0ffffff9aH
	DD	0ffffffa8H
	DD	0ffffffa8H
	DD	0ffffffa8H
	DD	0ffffffabH
	DD	0ffffffabH
	DD	0ffffffa8H
?battleIconTbl@@3PAY01HA DD 0640aH			; battleIconTbl
	DD	0640bH
	DD	0640cH
	DD	0640dH
	DD	0640eH
	DD	0640fH
	DD	06410H
	DD	06411H
	DD	06412H
	DD	06413H
	DD	06414H
	DD	06415H
	DD	06416H
	DD	06417H
	DD	06418H
	DD	06419H
	DD	0641aH
	DD	0641bH
	DD	0641cH
	DD	0641dH
_DATA	ENDS
PUBLIC	___local_stdio_printf_options
PUBLIC	??$__vcrt_va_start_verify_argument_type@QBD@@YAXXZ ; __vcrt_va_start_verify_argument_type<char const * const>
PUBLIC	__vsnprintf_l
PUBLIC	__vsprintf_l
PUBLIC	_sprintf
PUBLIC	?strstr@@YAPADQADQBD@Z				; strstr
PUBLIC	?setCharmManor@@YAXPAUaction@@H@Z		; setCharmManor
PUBLIC	?delCharmManor@@YAXPAUaction@@@Z		; delCharmManor
PUBLIC	?setCharmTitle@@YAXPAUaction@@H@Z		; setCharmTitle
PUBLIC	?delCharmTitle@@YAXPAUaction@@@Z		; delCharmTitle
PUBLIC	?setNpcNotice@@YAXPAUaction@@H@Z		; setNpcNotice
PUBLIC	?delNpcNotice@@YAXPAUaction@@@Z			; delNpcNotice
PUBLIC	?charMove@@YAXPAUaction@@@Z			; charMove
PUBLIC	?charMove2@@YAXPAUaction@@@Z			; charMove2
PUBLIC	?_charMove@@YAXPAUaction@@@Z			; _charMove
PUBLIC	?shiftBufCount@@YAXPAUaction@@@Z		; shiftBufCount
PUBLIC	?createCharAction@@YAPAUaction@@HHHH@Z		; createCharAction
PUBLIC	?createWaterAnimation@@YAPAUaction@@HHHH@Z	; createWaterAnimation
PUBLIC	?stockCharMovePoint@@YAXPAUaction@@HH@Z		; stockCharMovePoint
PUBLIC	?correctCharMovePoint@@YAXPAUaction@@HH@Z	; correctCharMovePoint
PUBLIC	?setCharMovePoint@@YAXPAUaction@@HH@Z		; setCharMovePoint
PUBLIC	?_setCharMovePoint@@YAXPAUaction@@HH@Z		; _setCharMovePoint
PUBLIC	?setCharWarpPoint@@YAXPAUaction@@HH@Z		; setCharWarpPoint
PUBLIC	?setCharStatus@@YAXPAGPAD@Z			; setCharStatus
PUBLIC	?createCommmonEffectAction@@YAPAUaction@@HHHHHH@Z ; createCommmonEffectAction
PUBLIC	?createCommmonEffectNoLoop@@YAPAUaction@@HHHHHH@Z ; createCommmonEffectNoLoop
PUBLIC	?drawCharStatus@@YAXPAUaction@@@Z		; drawCharStatus
PUBLIC	?changeCharAct@@YAXPAUaction@@HHHHHHH@Z		; changeCharAct
PUBLIC	?setCharLeader@@YAXPAUaction@@@Z		; setCharLeader
PUBLIC	?delCharLeader@@YAXPAUaction@@@Z		; delCharLeader
PUBLIC	?setCharParty@@YAXPAUaction@@@Z			; setCharParty
PUBLIC	?delCharParty@@YAXPAUaction@@@Z			; delCharParty
PUBLIC	?setCharWatch@@YAXPAUaction@@@Z			; setCharWatch
PUBLIC	?delCharWatch@@YAXPAUaction@@@Z			; delCharWatch
PUBLIC	?setCharBattle@@YAXPAUaction@@HFF@Z		; setCharBattle
PUBLIC	?delCharBattle@@YAXPAUaction@@@Z		; delCharBattle
PUBLIC	?setCharTrade@@YAXPAUaction@@H@Z		; setCharTrade
PUBLIC	?delCharTrade@@YAXPAUaction@@@Z			; delCharTrade
PUBLIC	?setCharUseMagic@@YAXPAUaction@@@Z		; setCharUseMagic
PUBLIC	?delCharUseMagic@@YAXPAUaction@@@Z		; delCharUseMagic
PUBLIC	?setCharAngel@@YAXPAUaction@@@Z			; setCharAngel
PUBLIC	?delCharAngel@@YAXPAUaction@@@Z			; delCharAngel
PUBLIC	?setCharMind@@YAXPAUaction@@H@Z			; setCharMind
PUBLIC	?delCharMind@@YAXPAUaction@@@Z			; delCharMind
PUBLIC	?setCharFukidashi@@YAXPAUaction@@I@Z		; setCharFukidashi
PUBLIC	?setCharNameColor@@YAXPAUaction@@H@Z		; setCharNameColor
PUBLIC	?checkCharObjPoint@@YAHHHF@Z			; checkCharObjPoint
PUBLIC	?checkCharObjPointStatus@@YAHHHFI@Z		; checkCharObjPointStatus
PUBLIC	?checkCharObjPointNotStatus@@YAHHHFI@Z		; checkCharObjPointNotStatus
PUBLIC	?setNpcCharObj@@YAXHHHHHPAD00H0HHHHHHHH@Z	; setNpcCharObj
PUBLIC	?setReturnPetObj@@YAHHHHHHPAD0HHHHH@Z		; setReturnPetObj
PUBLIC	?setItemCharObj@@YAXHHHHHHPAD@Z			; setItemCharObj
PUBLIC	?setMoneyCharObj@@YAXHHHHHHPAD@Z		; setMoneyCharObj
PUBLIC	?getAtrCharType@@YAHH@Z				; getAtrCharType
PUBLIC	?getAtrCharObjType@@YAHH@Z			; getAtrCharObjType
PUBLIC	?delCharObj@@YAXH@Z				; delCharObj
PUBLIC	?initCharObj@@YAXXZ				; initCharObj
PUBLIC	?resetCharObj@@YAXXZ				; resetCharObj
PUBLIC	?clearPtActCharObj@@YAXXZ			; clearPtActCharObj
PUBLIC	?restorePtActCharObjAll@@YAXXZ			; restorePtActCharObjAll
PUBLIC	?restorePtActCharObj@@YAXH@Z			; restorePtActCharObj
PUBLIC	?setMovePointCharObj@@YAXHHH@Z			; setMovePointCharObj
PUBLIC	?getCharObjAct@@YAPAUaction@@H@Z		; getCharObjAct
PUBLIC	?getCharObjBuf@@YAHXZ				; getCharObjBuf
PUBLIC	?initItemOverlapCheck@@YAXXZ			; initItemOverlapCheck
PUBLIC	?itemOverlapCheck@@YAHIHH@Z			; itemOverlapCheck
PUBLIC	?createPetAction@@YAPAUaction@@HHHHHHH@Z	; createPetAction
PUBLIC	?ajustClientDir@@YAXPAF@Z			; ajustClientDir
PUBLIC	?charProc@@YAXPAUaction@@@Z			; charProc
PUBLIC	?waterAniProc@@YAXPAUaction@@@Z			; waterAniProc
PUBLIC	?CharbubbleRelease@@YAXXZ			; CharbubbleRelease
PUBLIC	?commmonEffectNoLoop@@YAXPAUaction@@@Z		; commmonEffectNoLoop
PUBLIC	?searchCharObjId@@YAHH@Z			; searchCharObjId
PUBLIC	?limitCantClientDir@@YAXPAF@Z			; limitCantClientDir
PUBLIC	?getPetRoute@@YAXPAUaction@@@Z			; getPetRoute
PUBLIC	?petMoveProc@@YAHPAUaction@@@Z			; petMoveProc
PUBLIC	?uprisePetProc@@YAHPAUaction@@@Z		; uprisePetProc
PUBLIC	?petCircleOutProc@@YAHPAUaction@@@Z		; petCircleOutProc
PUBLIC	?petCircleInProc@@YAHPAUaction@@@Z		; petCircleInProc
PUBLIC	?petProc@@YAXPAUaction@@@Z			; petProc
PUBLIC	?getCharType@@YAHPAUaction@@@Z			; getCharType
PUBLIC	?_OptionsStorage@?1??__local_stdio_printf_options@@9@4_KA ; `__local_stdio_printf_options'::`2'::_OptionsStorage
PUBLIC	??_C@_01EJNLAFE@P?$AA@				; `string'
PUBLIC	??_C@_01NANMIPIL@N?$AA@				; `string'
PUBLIC	??_C@_01BNIGIBBF@Q?$AA@				; `string'
PUBLIC	??_C@_01CPLAODJH@S?$AA@				; `string'
PUBLIC	??_C@_01CKDDGHAB@D?$AA@				; `string'
PUBLIC	??_C@_01GFHCPBMG@C?$AA@				; `string'
PUBLIC	??_C@_02DKCKIIND@?$CFs?$AA@			; `string'
PUBLIC	??_C@_00CNPNBAHC@?$AA@				; `string'
PUBLIC	??_C@_08BFELEGJK@?$NL?$NM?U?I?i?$LI?$NO?M?$AA@	; `string'
PUBLIC	??_C@_06HDNHFODD@?d?a?$DP?$NL?v?$DP?$AA@	; `string'
PUBLIC	??_C@_05NPHPFMDI@?u?Z?$DP?m?$LK?$AA@		; `string'
PUBLIC	??_C@_01CLKCMJKC@?5?$AA@			; `string'
PUBLIC	??_C@_03BBKEAIF@?$DP?$DP?$DP?$AA@		; `string'
PUBLIC	__real@00000000
PUBLIC	__real@3f800000
PUBLIC	__real@3f99999a
PUBLIC	__real@3fcccccd
PUBLIC	__real@3fe0000000000000
PUBLIC	__real@40000000
PUBLIC	__real@4000000000000000
PUBLIC	__real@40800000
PUBLIC	__real@40c00000
PUBLIC	__real@40e0000000000000
PUBLIC	__real@41b40000
PUBLIC	__real@42340000
PUBLIC	__real@42800000
PUBLIC	__real@42f00000
EXTRN	__imp____stdio_common_vsprintf:PROC
EXTRN	__imp__rand:PROC
EXTRN	__imp__strstr:PROC
EXTRN	_strcmp:PROC
EXTRN	_strcpy:PROC
EXTRN	_strlen:PROC
EXTRN	_sqrt:PROC
EXTRN	?TimeGetTime@@YAIXZ:PROC			; TimeGetTime
EXTRN	?GetAction@@YAPAUaction@@EI@Z:PROC		; GetAction
EXTRN	?DeathAction@@YAXPAUaction@@@Z:PROC		; DeathAction
EXTRN	?StockDispBuffer@@YAHHHEHH@Z:PROC		; StockDispBuffer
EXTRN	?StockDispBuffer2@@YAHHHEHH@Z:PROC		; StockDispBuffer2
EXTRN	?获取动画尺寸@@YAHPAUaction@@PAF1@Z:PROC	; 获取动画尺寸
EXTRN	?AdjustDir@@YAXPAM@Z:PROC			; AdjustDir
EXTRN	?SinT@@YAMM@Z:PROC				; SinT
EXTRN	?CosT@@YAMM@Z:PROC				; CosT
EXTRN	?Atan@@YAMMM@Z:PROC				; Atan
EXTRN	?pointLen2@@YAMMMMM@Z:PROC			; pointLen2
EXTRN	?GetStrWidth@@YAHPAD@Z:PROC			; GetStrWidth
EXTRN	?StockFontBuffer@@YAHHHDHPADH@Z:PROC		; StockFontBuffer
EXTRN	?pattern@@YAHPAUaction@@HH@Z:PROC		; pattern
EXTRN	?getRouteData@@YAXHPAH0@Z:PROC			; getRouteData
EXTRN	?setPartsPrio@@YAXHHHHHMMH@Z:PROC		; setPartsPrio
EXTRN	?setCharPrio@@YAXHHHHHMM@Z:PROC			; setCharPrio
EXTRN	?checkHitMap@@YAHHH@Z:PROC			; checkHitMap
EXTRN	?camMapToGamen@@YAXMMPAM0@Z:PROC		; camMapToGamen
EXTRN	?realGetPos@@YAHKPAF0@Z:PROC			; realGetPos
EXTRN	?realGetWH@@YAHKPAF0@Z:PROC			; realGetWH
EXTRN	?realGetNo@@YAHKPAK@Z:PROC			; realGetNo
EXTRN	?resetPc@@YAXXZ:PROC				; resetPc
EXTRN	?setPcWarpPoint@@YAXHH@Z:PROC			; setPcWarpPoint
EXTRN	?delPcUseMagic@@YAXXZ:PROC			; delPcUseMagic
EXTRN	?CheckNewPet@@YAXH@Z:PROC			; CheckNewPet
EXTRN	@_RTC_CheckStackVars@8:PROC
EXTRN	@__security_check_cookie@4:PROC
EXTRN	__RTC_CheckEsp:PROC
EXTRN	__RTC_InitBase:PROC
EXTRN	__RTC_Shutdown:PROC
EXTRN	__RTC_UninitUse:PROC
EXTRN	?DEF_APPSIZEX@@3HA:DWORD			; DEF_APPSIZEX
EXTRN	?DEF_APPSIZEY@@3HA:DWORD			; DEF_APPSIZEY
EXTRN	?ProcNo@@3IA:DWORD				; ProcNo
EXTRN	?MyChatBuffer@@3USTR_BUFFER@@A:BYTE		; MyChatBuffer
EXTRN	?nowFloor@@3HA:DWORD				; nowFloor
EXTRN	?nowGx@@3HA:DWORD				; nowGx
EXTRN	?nowGy@@3HA:DWORD				; nowGy
EXTRN	?nowSpdRate@@3MA:DWORD				; nowSpdRate
EXTRN	?oldGx@@3HA:DWORD				; oldGx
EXTRN	?oldGy@@3HA:DWORD				; oldGy
EXTRN	?warpEffectStart@@3HA:DWORD			; warpEffectStart
EXTRN	?SpriteData@@3PAUSPRITEDATA@@A:BYTE		; SpriteData
EXTRN	?pc@@3UPC@@A:BYTE				; pc
EXTRN	?party@@3PAUPARTY@@A:BYTE			; party
EXTRN	?g_bUseAlpha@@3HA:DWORD				; g_bUseAlpha
EXTRN	?人物屏蔽开关@@3HA:DWORD			; 人物屏蔽开关
EXTRN	___security_cookie:DWORD
EXTRN	__fltused:DWORD
;	COMDAT ?_OptionsStorage@?1??__local_stdio_printf_options@@9@4_KA
_BSS	SEGMENT
?_OptionsStorage@?1??__local_stdio_printf_options@@9@4_KA DQ 01H DUP (?) ; `__local_stdio_printf_options'::`2'::_OptionsStorage
_BSS	ENDS
_BSS	SEGMENT
?popAct@@3PAUaction@@A DD 01H DUP (?)			; popAct
_BSS	ENDS
;	COMDAT __real@42f00000
CONST	SEGMENT
__real@42f00000 DD 042f00000r			; 120
CONST	ENDS
;	COMDAT __real@42800000
CONST	SEGMENT
__real@42800000 DD 042800000r			; 64
CONST	ENDS
;	COMDAT __real@42340000
CONST	SEGMENT
__real@42340000 DD 042340000r			; 45
CONST	ENDS
;	COMDAT __real@41b40000
CONST	SEGMENT
__real@41b40000 DD 041b40000r			; 22.5
CONST	ENDS
;	COMDAT __real@40e0000000000000
CONST	SEGMENT
__real@40e0000000000000 DQ 040e0000000000000r	; 32768
CONST	ENDS
;	COMDAT __real@40c00000
CONST	SEGMENT
__real@40c00000 DD 040c00000r			; 6
CONST	ENDS
;	COMDAT __real@40800000
CONST	SEGMENT
__real@40800000 DD 040800000r			; 4
CONST	ENDS
;	COMDAT __real@4000000000000000
CONST	SEGMENT
__real@4000000000000000 DQ 04000000000000000r	; 2
CONST	ENDS
;	COMDAT __real@40000000
CONST	SEGMENT
__real@40000000 DD 040000000r			; 2
CONST	ENDS
;	COMDAT __real@3fe0000000000000
CONST	SEGMENT
__real@3fe0000000000000 DQ 03fe0000000000000r	; 0.5
CONST	ENDS
;	COMDAT __real@3fcccccd
CONST	SEGMENT
__real@3fcccccd DD 03fcccccdr			; 1.6
CONST	ENDS
;	COMDAT __real@3f99999a
CONST	SEGMENT
__real@3f99999a DD 03f99999ar			; 1.2
CONST	ENDS
;	COMDAT __real@3f800000
CONST	SEGMENT
__real@3f800000 DD 03f800000r			; 1
CONST	ENDS
;	COMDAT __real@00000000
CONST	SEGMENT
__real@00000000 DD 000000000r			; 0
CONST	ENDS
;	COMDAT rtc$TMZ
rtc$TMZ	SEGMENT
__RTC_Shutdown.rtc$TMZ DD FLAT:__RTC_Shutdown
rtc$TMZ	ENDS
;	COMDAT rtc$IMZ
rtc$IMZ	SEGMENT
__RTC_InitBase.rtc$IMZ DD FLAT:__RTC_InitBase
rtc$IMZ	ENDS
;	COMDAT ??_C@_03BBKEAIF@?$DP?$DP?$DP?$AA@
CONST	SEGMENT
??_C@_03BBKEAIF@?$DP?$DP?$DP?$AA@ DB '???', 00H		; `string'
CONST	ENDS
;	COMDAT ??_C@_01CLKCMJKC@?5?$AA@
CONST	SEGMENT
??_C@_01CLKCMJKC@?5?$AA@ DB ' ', 00H			; `string'
CONST	ENDS
;	COMDAT ??_C@_05NPHPFMDI@?u?Z?$DP?m?$LK?$AA@
CONST	SEGMENT
??_C@_05NPHPFMDI@?u?Z?$DP?m?$LK?$AA@ DB 0f5H, 0daH, '?', 0edH, 0baH, 00H ; `string'
CONST	ENDS
;	COMDAT ??_C@_06HDNHFODD@?d?a?$DP?$NL?v?$DP?$AA@
CONST	SEGMENT
??_C@_06HDNHFODD@?d?a?$DP?$NL?v?$DP?$AA@ DB 0e4H, 0e1H, '?', 0dbH, 0f6H, '?'
	DB	00H						; `string'
CONST	ENDS
;	COMDAT ??_C@_08BFELEGJK@?$NL?$NM?U?I?i?$LI?$NO?M?$AA@
CONST	SEGMENT
??_C@_08BFELEGJK@?$NL?$NM?U?I?i?$LI?$NO?M?$AA@ DB 0dbH, 0dcH, 0d5H, 0c9H, 0e9H
	DB	0b8H, 0deH, 0cdH, 00H			; `string'
CONST	ENDS
;	COMDAT ??_C@_00CNPNBAHC@?$AA@
CONST	SEGMENT
??_C@_00CNPNBAHC@?$AA@ DB 00H				; `string'
CONST	ENDS
;	COMDAT ??_C@_02DKCKIIND@?$CFs?$AA@
CONST	SEGMENT
??_C@_02DKCKIIND@?$CFs?$AA@ DB '%s', 00H		; `string'
CONST	ENDS
;	COMDAT ??_C@_01GFHCPBMG@C?$AA@
CONST	SEGMENT
??_C@_01GFHCPBMG@C?$AA@ DB 'C', 00H			; `string'
CONST	ENDS
;	COMDAT ??_C@_01CKDDGHAB@D?$AA@
CONST	SEGMENT
??_C@_01CKDDGHAB@D?$AA@ DB 'D', 00H			; `string'
CONST	ENDS
;	COMDAT ??_C@_01CPLAODJH@S?$AA@
CONST	SEGMENT
??_C@_01CPLAODJH@S?$AA@ DB 'S', 00H			; `string'
CONST	ENDS
;	COMDAT ??_C@_01BNIGIBBF@Q?$AA@
CONST	SEGMENT
??_C@_01BNIGIBBF@Q?$AA@ DB 'Q', 00H			; `string'
CONST	ENDS
;	COMDAT ??_C@_01NANMIPIL@N?$AA@
CONST	SEGMENT
??_C@_01NANMIPIL@N?$AA@ DB 'N', 00H			; `string'
CONST	ENDS
;	COMDAT ??_C@_01EJNLAFE@P?$AA@
CONST	SEGMENT
??_C@_01EJNLAFE@P?$AA@ DB 'P', 00H			; `string'
CONST	ENDS
; Function compile flags: /Odtp /RTCsu /ZI
; File c:\users\administrator\desktop\????? ??\????? ??\client source code\system\character.cpp
;	COMDAT ?getCharType@@YAHPAUaction@@@Z
_TEXT	SEGMENT
_no$ = -20						; size = 4
_ext$ = -8						; size = 4
_ptAct$ = 8						; size = 4
?getCharType@@YAHPAUaction@@@Z PROC			; getCharType, COMDAT

; 3334 : {

  00000	55		 push	 ebp
  00001	8b ec		 mov	 ebp, esp
  00003	81 ec d8 00 00
	00		 sub	 esp, 216		; 000000d8H
  00009	53		 push	 ebx
  0000a	56		 push	 esi
  0000b	57		 push	 edi
  0000c	8d bd 28 ff ff
	ff		 lea	 edi, DWORD PTR [ebp-216]
  00012	b9 36 00 00 00	 mov	 ecx, 54			; 00000036H
  00017	b8 cc cc cc cc	 mov	 eax, -858993460		; ccccccccH
  0001c	f3 ab		 rep stosd

; 3335 : 	extern int 人物屏蔽开关;
; 3336 : 	if (ProcNo != PROC_GAME) return 0;

  0001e	83 3d 00 00 00
	00 09		 cmp	 DWORD PTR ?ProcNo@@3IA, 9 ; ProcNo
  00025	74 04		 je	 SHORT $LN2@getCharTyp
  00027	33 c0		 xor	 eax, eax
  00029	eb 77		 jmp	 SHORT $LN1@getCharTyp
$LN2@getCharTyp:

; 3337 : 	if (!人物屏蔽开关) return 0;

  0002b	83 3d 00 00 00
	00 00		 cmp	 DWORD PTR ?人物屏蔽开关@@3HA, 0 ; 人物屏蔽开关
  00032	75 04		 jne	 SHORT $LN3@getCharTyp
  00034	33 c0		 xor	 eax, eax
  00036	eb 6a		 jmp	 SHORT $LN1@getCharTyp
$LN3@getCharTyp:

; 3338 : 	CHAREXTRA *ext;
; 3339 : 	int no;
; 3340 : 	if (ptAct == NULL)

  00038	83 7d 08 00	 cmp	 DWORD PTR _ptAct$[ebp], 0
  0003c	75 04		 jne	 SHORT $LN4@getCharTyp

; 3341 : 		return 0;

  0003e	33 c0		 xor	 eax, eax
  00040	eb 60		 jmp	 SHORT $LN1@getCharTyp
$LN4@getCharTyp:

; 3342 : 	ext = (CHAREXTRA *)ptAct->pYobi;

  00042	8b 45 08	 mov	 eax, DWORD PTR _ptAct$[ebp]
  00045	8b 48 0c	 mov	 ecx, DWORD PTR [eax+12]
  00048	89 4d f8	 mov	 DWORD PTR _ext$[ebp], ecx

; 3343 : 	if (ext) {

  0004b	83 7d f8 00	 cmp	 DWORD PTR _ext$[ebp], 0
  0004f	74 4f		 je	 SHORT $LN5@getCharTyp

; 3344 : 		no = ext->charObjTblId;

  00051	8b 45 f8	 mov	 eax, DWORD PTR _ext$[ebp]
  00054	8b 08		 mov	 ecx, DWORD PTR [eax]
  00056	89 4d ec	 mov	 DWORD PTR _no$[ebp], ecx

; 3345 : 		if (no >= 1500) return 0;

  00059	81 7d ec dc 05
	00 00		 cmp	 DWORD PTR _no$[ebp], 1500 ; 000005dcH
  00060	7c 04		 jl	 SHORT $LN6@getCharTyp
  00062	33 c0		 xor	 eax, eax
  00064	eb 3c		 jmp	 SHORT $LN1@getCharTyp
$LN6@getCharTyp:

; 3346 : 		if (strcmp(ptAct->name, charObj[no].name) == 0)

  00066	69 45 ec 0c 01
	00 00		 imul	 eax, DWORD PTR _no$[ebp], 268
  0006d	05 38 00 00 00	 add	 eax, OFFSET ?charObj@@3PAUCHAROBJ@@A+56
  00072	50		 push	 eax
  00073	8b 4d 08	 mov	 ecx, DWORD PTR _ptAct$[ebp]
  00076	83 c1 38	 add	 ecx, 56			; 00000038H
  00079	51		 push	 ecx
  0007a	e8 00 00 00 00	 call	 _strcmp
  0007f	83 c4 08	 add	 esp, 8
  00082	85 c0		 test	 eax, eax
  00084	75 1a		 jne	 SHORT $LN5@getCharTyp

; 3347 : 			if (charObj[no].charType == 256) {

  00086	69 45 ec 0c 01
	00 00		 imul	 eax, DWORD PTR _no$[ebp], 268
  0008d	81 b8 b4 00 00
	00 00 01 00 00	 cmp	 DWORD PTR ?charObj@@3PAUCHAROBJ@@A[eax+180], 256 ; 00000100H
  00097	75 07		 jne	 SHORT $LN5@getCharTyp

; 3348 : 				return 1;

  00099	b8 01 00 00 00	 mov	 eax, 1
  0009e	eb 02		 jmp	 SHORT $LN1@getCharTyp
$LN5@getCharTyp:

; 3349 : 			}
; 3350 : 	}
; 3351 : 	return 0;

  000a0	33 c0		 xor	 eax, eax
$LN1@getCharTyp:

; 3352 : }

  000a2	5f		 pop	 edi
  000a3	5e		 pop	 esi
  000a4	5b		 pop	 ebx
  000a5	81 c4 d8 00 00
	00		 add	 esp, 216		; 000000d8H
  000ab	3b ec		 cmp	 ebp, esp
  000ad	e8 00 00 00 00	 call	 __RTC_CheckEsp
  000b2	8b e5		 mov	 esp, ebp
  000b4	5d		 pop	 ebp
  000b5	c3		 ret	 0
?getCharType@@YAHPAUaction@@@Z ENDP			; getCharType
_TEXT	ENDS
; Function compile flags: /Odtp /RTCsu /ZI
; File c:\users\administrator\desktop\????? ??\????? ??\client source code\system\character.cpp
;	COMDAT ?petProc@@YAXPAUaction@@@Z
_TEXT	SEGMENT
tv67 = -244						; size = 4
_pe$ = -44						; size = 4
_animLoop$ = -32					; size = 4
_my$ = -20						; size = 4
_mx$ = -8						; size = 4
_ptAct$ = 8						; size = 4
?petProc@@YAXPAUaction@@@Z PROC				; petProc, COMDAT

; 3136 : {

  00000	55		 push	 ebp
  00001	8b ec		 mov	 ebp, esp
  00003	81 ec f4 00 00
	00		 sub	 esp, 244		; 000000f4H
  00009	53		 push	 ebx
  0000a	56		 push	 esi
  0000b	57		 push	 edi
  0000c	8d bd 0c ff ff
	ff		 lea	 edi, DWORD PTR [ebp-244]
  00012	b9 3d 00 00 00	 mov	 ecx, 61			; 0000003dH
  00017	b8 cc cc cc cc	 mov	 eax, -858993460		; ccccccccH
  0001c	f3 ab		 rep stosd

; 3137 : 	float mx, my;
; 3138 : 	int animLoop;
; 3139 : 	PETEXTRA *pe = (PETEXTRA *)ptAct->pYobi;

  0001e	8b 45 08	 mov	 eax, DWORD PTR _ptAct$[ebp]
  00021	8b 48 0c	 mov	 ecx, DWORD PTR [eax+12]
  00024	89 4d d4	 mov	 DWORD PTR _pe$[ebp], ecx

; 3140 : 
; 3141 : 	switch( pe->mode )

  00027	8b 45 d4	 mov	 eax, DWORD PTR _pe$[ebp]
  0002a	0f bf 08	 movsx	 ecx, WORD PTR [eax]
  0002d	89 8d 0c ff ff
	ff		 mov	 DWORD PTR tv67[ebp], ecx
  00033	83 bd 0c ff ff
	ff 03		 cmp	 DWORD PTR tv67[ebp], 3
  0003a	77 67		 ja	 SHORT $LN2@petProc
  0003c	8b 95 0c ff ff
	ff		 mov	 edx, DWORD PTR tv67[ebp]
  00042	ff 24 95 00 00
	00 00		 jmp	 DWORD PTR $LN20@petProc[edx*4]
$LN4@petProc:

; 3142 : 	{
; 3143 : 		// ?????：?????
; 3144 : 		case 0:
; 3145 : 			if( !petMoveProc( ptAct ) )

  00049	8b 45 08	 mov	 eax, DWORD PTR _ptAct$[ebp]
  0004c	50		 push	 eax
  0004d	e8 00 00 00 00	 call	 ?petMoveProc@@YAHPAUaction@@@Z ; petMoveProc
  00052	83 c4 04	 add	 esp, 4
  00055	85 c0		 test	 eax, eax
  00057	75 05		 jne	 SHORT $LN5@petProc

; 3146 : 			{
; 3147 : 				return;

  00059	e9 61 01 00 00	 jmp	 $LN1@petProc
$LN5@petProc:

; 3148 : 			}
; 3149 : 			break;

  0005e	eb 43		 jmp	 SHORT $LN2@petProc
$LN6@petProc:

; 3150 : 
; 3151 : 		// ?????：
; 3152 : 		// ???????????：?
; 3153 : 		case 1:
; 3154 : 			if( !uprisePetProc( ptAct ) )

  00060	8b 45 08	 mov	 eax, DWORD PTR _ptAct$[ebp]
  00063	50		 push	 eax
  00064	e8 00 00 00 00	 call	 ?uprisePetProc@@YAHPAUaction@@@Z ; uprisePetProc
  00069	83 c4 04	 add	 esp, 4
  0006c	85 c0		 test	 eax, eax
  0006e	75 05		 jne	 SHORT $LN7@petProc

; 3155 : 			{
; 3156 : 				return;

  00070	e9 4a 01 00 00	 jmp	 $LN1@petProc
$LN7@petProc:

; 3157 : 			}
; 3158 : 			break;

  00075	eb 2c		 jmp	 SHORT $LN2@petProc
$LN8@petProc:

; 3159 : 
; 3160 : 		// ?????：掐?????
; 3161 : 		case 2:
; 3162 : 			if( !petCircleOutProc( ptAct ) )

  00077	8b 45 08	 mov	 eax, DWORD PTR _ptAct$[ebp]
  0007a	50		 push	 eax
  0007b	e8 00 00 00 00	 call	 ?petCircleOutProc@@YAHPAUaction@@@Z ; petCircleOutProc
  00080	83 c4 04	 add	 esp, 4
  00083	85 c0		 test	 eax, eax
  00085	75 05		 jne	 SHORT $LN9@petProc

; 3163 : 			{
; 3164 : 				return;

  00087	e9 33 01 00 00	 jmp	 $LN1@petProc
$LN9@petProc:

; 3165 : 			}
; 3166 : 			break;

  0008c	eb 15		 jmp	 SHORT $LN2@petProc
$LN10@petProc:

; 3167 : 
; 3168 : 		// ???觚?：掐??????
; 3169 : 		case 3:
; 3170 : 			if( !petCircleInProc( ptAct ) )

  0008e	8b 45 08	 mov	 eax, DWORD PTR _ptAct$[ebp]
  00091	50		 push	 eax
  00092	e8 00 00 00 00	 call	 ?petCircleInProc@@YAHPAUaction@@@Z ; petCircleInProc
  00097	83 c4 04	 add	 esp, 4
  0009a	85 c0		 test	 eax, eax
  0009c	75 05		 jne	 SHORT $LN11@petProc

; 3171 : 			{
; 3172 : 				return;

  0009e	e9 1c 01 00 00	 jmp	 $LN1@petProc
$LN11@petProc:
$LN2@petProc:

; 3173 : 			}
; 3174 : 			break;
; 3175 : 	}
; 3176 : 
; 3177 : 	// ??t
; 3178 : 	camMapToGamen( ptAct->mx, ptAct->my, &mx, &my );

  000a3	8d 45 ec	 lea	 eax, DWORD PTR _my$[ebp]
  000a6	50		 push	 eax
  000a7	8d 4d f8	 lea	 ecx, DWORD PTR _mx$[ebp]
  000aa	51		 push	 ecx
  000ab	8b 55 08	 mov	 edx, DWORD PTR _ptAct$[ebp]
  000ae	51		 push	 ecx
  000af	f3 0f 10 82 1c
	01 00 00	 movss	 xmm0, DWORD PTR [edx+284]
  000b7	f3 0f 11 04 24	 movss	 DWORD PTR [esp], xmm0
  000bc	8b 45 08	 mov	 eax, DWORD PTR _ptAct$[ebp]
  000bf	51		 push	 ecx
  000c0	f3 0f 10 80 18
	01 00 00	 movss	 xmm0, DWORD PTR [eax+280]
  000c8	f3 0f 11 04 24	 movss	 DWORD PTR [esp], xmm0
  000cd	e8 00 00 00 00	 call	 ?camMapToGamen@@YAXMMPAM0@Z ; camMapToGamen
  000d2	83 c4 10	 add	 esp, 16			; 00000010H

; 3179 : 	ptAct->x = (int)(mx+.5);

  000d5	f3 0f 5a 45 f8	 cvtss2sd xmm0, DWORD PTR _mx$[ebp]
  000da	f2 0f 58 05 00
	00 00 00	 addsd	 xmm0, QWORD PTR __real@3fe0000000000000
  000e2	f2 0f 2c c0	 cvttsd2si eax, xmm0
  000e6	8b 4d 08	 mov	 ecx, DWORD PTR _ptAct$[ebp]
  000e9	89 41 18	 mov	 DWORD PTR [ecx+24], eax

; 3180 : 	ptAct->y = (int)(my+.5);

  000ec	f3 0f 5a 45 ec	 cvtss2sd xmm0, DWORD PTR _my$[ebp]
  000f1	f2 0f 58 05 00
	00 00 00	 addsd	 xmm0, QWORD PTR __real@3fe0000000000000
  000f9	f2 0f 2c c0	 cvttsd2si eax, xmm0
  000fd	8b 4d 08	 mov	 ecx, DWORD PTR _ptAct$[ebp]
  00100	89 41 1c	 mov	 DWORD PTR [ecx+28], eax

; 3181 : 
; 3182 : 	// ?????????
; 3183 : 	if( ptAct->anim_no == ANIM_HAND
; 3184 : 	 || ptAct->anim_no == ANIM_HAPPY
; 3185 : 	 || ptAct->anim_no == ANIM_ANGRY
; 3186 : 	 || ptAct->anim_no == ANIM_SAD
; 3187 : 	 || ptAct->anim_no == ANIM_WALK
; 3188 : 	 || ptAct->anim_no == ANIM_STAND
; 3189 : 	 || ptAct->anim_no == ANIM_NOD )

  00103	8b 45 08	 mov	 eax, DWORD PTR _ptAct$[ebp]
  00106	83 b8 4c 01 00
	00 06		 cmp	 DWORD PTR [eax+332], 6
  0010d	74 48		 je	 SHORT $LN14@petProc
  0010f	8b 45 08	 mov	 eax, DWORD PTR _ptAct$[ebp]
  00112	83 b8 4c 01 00
	00 07		 cmp	 DWORD PTR [eax+332], 7
  00119	74 3c		 je	 SHORT $LN14@petProc
  0011b	8b 45 08	 mov	 eax, DWORD PTR _ptAct$[ebp]
  0011e	83 b8 4c 01 00
	00 08		 cmp	 DWORD PTR [eax+332], 8
  00125	74 30		 je	 SHORT $LN14@petProc
  00127	8b 45 08	 mov	 eax, DWORD PTR _ptAct$[ebp]
  0012a	83 b8 4c 01 00
	00 09		 cmp	 DWORD PTR [eax+332], 9
  00131	74 24		 je	 SHORT $LN14@petProc
  00133	8b 45 08	 mov	 eax, DWORD PTR _ptAct$[ebp]
  00136	83 b8 4c 01 00
	00 04		 cmp	 DWORD PTR [eax+332], 4
  0013d	74 18		 je	 SHORT $LN14@petProc
  0013f	8b 45 08	 mov	 eax, DWORD PTR _ptAct$[ebp]
  00142	83 b8 4c 01 00
	00 03		 cmp	 DWORD PTR [eax+332], 3
  00149	74 0c		 je	 SHORT $LN14@petProc
  0014b	8b 45 08	 mov	 eax, DWORD PTR _ptAct$[ebp]
  0014e	83 b8 4c 01 00
	00 0b		 cmp	 DWORD PTR [eax+332], 11	; 0000000bH
  00155	75 09		 jne	 SHORT $LN12@petProc
$LN14@petProc:

; 3190 : 	{
; 3191 : 		animLoop = ANM_LOOP;

  00157	c7 45 e0 00 00
	00 00		 mov	 DWORD PTR _animLoop$[ebp], 0

; 3192 : 	}
; 3193 : 	else

  0015e	eb 07		 jmp	 SHORT $LN13@petProc
$LN12@petProc:

; 3194 : 	{
; 3195 : 		animLoop = ANM_NO_LOOP;

  00160	c7 45 e0 01 00
	00 00		 mov	 DWORD PTR _animLoop$[ebp], 1
$LN13@petProc:

; 3196 : 	}
; 3197 : 	pattern( ptAct, ANM_NOMAL_SPD, animLoop );

  00167	8b 45 e0	 mov	 eax, DWORD PTR _animLoop$[ebp]
  0016a	50		 push	 eax
  0016b	6a 00		 push	 0
  0016d	8b 4d 08	 mov	 ecx, DWORD PTR _ptAct$[ebp]
  00170	51		 push	 ecx
  00171	e8 00 00 00 00	 call	 ?pattern@@YAHPAUaction@@HH@Z ; pattern
  00176	83 c4 0c	 add	 esp, 12			; 0000000cH

; 3198 : 
; 3199 : 	// ??????????????
; 3200 : 	setCharPrio( ptAct->bmpNo, ptAct->x, ptAct->y, 0, 0, ptAct->mx, ptAct->my );

  00179	8b 45 08	 mov	 eax, DWORD PTR _ptAct$[ebp]
  0017c	51		 push	 ecx
  0017d	f3 0f 10 80 1c
	01 00 00	 movss	 xmm0, DWORD PTR [eax+284]
  00185	f3 0f 11 04 24	 movss	 DWORD PTR [esp], xmm0
  0018a	8b 4d 08	 mov	 ecx, DWORD PTR _ptAct$[ebp]
  0018d	51		 push	 ecx
  0018e	f3 0f 10 81 18
	01 00 00	 movss	 xmm0, DWORD PTR [ecx+280]
  00196	f3 0f 11 04 24	 movss	 DWORD PTR [esp], xmm0
  0019b	6a 00		 push	 0
  0019d	6a 00		 push	 0
  0019f	8b 55 08	 mov	 edx, DWORD PTR _ptAct$[ebp]
  001a2	8b 42 1c	 mov	 eax, DWORD PTR [edx+28]
  001a5	50		 push	 eax
  001a6	8b 4d 08	 mov	 ecx, DWORD PTR _ptAct$[ebp]
  001a9	8b 51 18	 mov	 edx, DWORD PTR [ecx+24]
  001ac	52		 push	 edx
  001ad	8b 45 08	 mov	 eax, DWORD PTR _ptAct$[ebp]
  001b0	8b 88 9c 00 00
	00		 mov	 ecx, DWORD PTR [eax+156]
  001b6	51		 push	 ecx
  001b7	e8 00 00 00 00	 call	 ?setCharPrio@@YAXHHHHHMM@Z ; setCharPrio
  001bc	83 c4 1c	 add	 esp, 28			; 0000001cH
$LN1@petProc:

; 3201 : }

  001bf	52		 push	 edx
  001c0	8b cd		 mov	 ecx, ebp
  001c2	50		 push	 eax
  001c3	8d 15 00 00 00
	00		 lea	 edx, DWORD PTR $LN19@petProc
  001c9	e8 00 00 00 00	 call	 @_RTC_CheckStackVars@8
  001ce	58		 pop	 eax
  001cf	5a		 pop	 edx
  001d0	5f		 pop	 edi
  001d1	5e		 pop	 esi
  001d2	5b		 pop	 ebx
  001d3	81 c4 f4 00 00
	00		 add	 esp, 244		; 000000f4H
  001d9	3b ec		 cmp	 ebp, esp
  001db	e8 00 00 00 00	 call	 __RTC_CheckEsp
  001e0	8b e5		 mov	 esp, ebp
  001e2	5d		 pop	 ebp
  001e3	c3		 ret	 0
$LN19@petProc:
  001e4	02 00 00 00	 DD	 2
  001e8	00 00 00 00	 DD	 $LN18@petProc
$LN18@petProc:
  001ec	f8 ff ff ff	 DD	 -8			; fffffff8H
  001f0	04 00 00 00	 DD	 4
  001f4	00 00 00 00	 DD	 $LN16@petProc
  001f8	ec ff ff ff	 DD	 -20			; ffffffecH
  001fc	04 00 00 00	 DD	 4
  00200	00 00 00 00	 DD	 $LN17@petProc
$LN17@petProc:
  00204	6d		 DB	 109			; 0000006dH
  00205	79		 DB	 121			; 00000079H
  00206	00		 DB	 0
$LN16@petProc:
  00207	6d		 DB	 109			; 0000006dH
  00208	78		 DB	 120			; 00000078H
  00209	00		 DB	 0
  0020a	66 90		 npad	 2
$LN20@petProc:
  0020c	00 00 00 00	 DD	 $LN4@petProc
  00210	00 00 00 00	 DD	 $LN6@petProc
  00214	00 00 00 00	 DD	 $LN8@petProc
  00218	00 00 00 00	 DD	 $LN10@petProc
?petProc@@YAXPAUaction@@@Z ENDP				; petProc
_TEXT	ENDS
; Function compile flags: /Odtp /RTCsu /ZI
; File c:\users\administrator\desktop\????? ??\????? ??\client source code\system\character.cpp
;	COMDAT ?petCircleInProc@@YAHPAUaction@@@Z
_TEXT	SEGMENT
tv232 = -284						; size = 4
tv225 = -284						; size = 4
tv262 = -280						; size = 4
tv260 = -280						; size = 4
_i$ = -80						; size = 4
_angle$ = -68						; size = 4
_dy$ = -56						; size = 4
_dx$ = -44						; size = 4
_my$ = -32						; size = 4
_mx$ = -20						; size = 4
_pe$ = -8						; size = 4
_ptAct$ = 8						; size = 4
?petCircleInProc@@YAHPAUaction@@@Z PROC			; petCircleInProc, COMDAT

; 3073 : {

  00000	55		 push	 ebp
  00001	8b ec		 mov	 ebp, esp
  00003	81 ec 1c 01 00
	00		 sub	 esp, 284		; 0000011cH
  00009	53		 push	 ebx
  0000a	56		 push	 esi
  0000b	57		 push	 edi
  0000c	8d bd e4 fe ff
	ff		 lea	 edi, DWORD PTR [ebp-284]
  00012	b9 47 00 00 00	 mov	 ecx, 71			; 00000047H
  00017	b8 cc cc cc cc	 mov	 eax, -858993460		; ccccccccH
  0001c	f3 ab		 rep stosd

; 3074 : 	PETEXTRA *pe = (PETEXTRA *)ptAct->pYobi;

  0001e	8b 45 08	 mov	 eax, DWORD PTR _ptAct$[ebp]
  00021	8b 48 0c	 mov	 ecx, DWORD PTR [eax+12]
  00024	89 4d f8	 mov	 DWORD PTR _pe$[ebp], ecx

; 3075 : 	float mx, my;
; 3076 : 	float dx, dy;
; 3077 : 	float angle;
; 3078 : 	int i;
; 3079 : 
; 3080 : 	if( pe->ptAct == NULL )

  00027	8b 45 f8	 mov	 eax, DWORD PTR _pe$[ebp]
  0002a	83 78 18 00	 cmp	 DWORD PTR [eax+24], 0
  0002e	75 2b		 jne	 SHORT $LN5@petCircleI

; 3081 : 	{
; 3082 : 		pe->ptAct  = (ACTION *)1;

  00030	8b 45 f8	 mov	 eax, DWORD PTR _pe$[ebp]
  00033	c7 40 18 01 00
	00 00		 mov	 DWORD PTR [eax+24], 1

; 3083 : 		pe->ptAct2 = (ACTION *)NULL;

  0003a	8b 45 f8	 mov	 eax, DWORD PTR _pe$[ebp]
  0003d	c7 40 1c 00 00
	00 00		 mov	 DWORD PTR [eax+28], 0

; 3084 : 		pe->angle = 0.0F;

  00044	8b 45 f8	 mov	 eax, DWORD PTR _pe$[ebp]
  00047	0f 57 c0	 xorps	 xmm0, xmm0
  0004a	f3 0f 11 40 20	 movss	 DWORD PTR [eax+32], xmm0

; 3085 : 		pe->r = 800;

  0004f	8b 45 f8	 mov	 eax, DWORD PTR _pe$[ebp]
  00052	c7 40 24 20 03
	00 00		 mov	 DWORD PTR [eax+36], 800	; 00000320H

; 3086 : 	}
; 3087 : 	else

  00059	eb 35		 jmp	 SHORT $LN7@petCircleI
$LN5@petCircleI:

; 3088 : 	{
; 3089 : 		if( pe->r <= 0 )

  0005b	8b 45 f8	 mov	 eax, DWORD PTR _pe$[ebp]
  0005e	83 78 24 00	 cmp	 DWORD PTR [eax+36], 0
  00062	7f 2c		 jg	 SHORT $LN7@petCircleI

; 3090 : 		{
; 3091 : 			restorePtActCharObj( pe->id );

  00064	8b 45 f8	 mov	 eax, DWORD PTR _pe$[ebp]
  00067	8b 48 28	 mov	 ecx, DWORD PTR [eax+40]
  0006a	51		 push	 ecx
  0006b	e8 00 00 00 00	 call	 ?restorePtActCharObj@@YAXH@Z ; restorePtActCharObj
  00070	83 c4 04	 add	 esp, 4

; 3092 : 			DeathAction( ptAct );

  00073	8b 45 08	 mov	 eax, DWORD PTR _ptAct$[ebp]
  00076	50		 push	 eax
  00077	e8 00 00 00 00	 call	 ?DeathAction@@YAXPAUaction@@@Z ; DeathAction
  0007c	83 c4 04	 add	 esp, 4

; 3093 : 			ptAct = NULL;

  0007f	c7 45 08 00 00
	00 00		 mov	 DWORD PTR _ptAct$[ebp], 0

; 3094 : 			return TRUE;

  00086	b8 01 00 00 00	 mov	 eax, 1
  0008b	e9 19 02 00 00	 jmp	 $LN1@petCircleI
$LN7@petCircleI:

; 3095 : 		}
; 3096 : 	}
; 3097 : 
; 3098 : 	if( pe->ptAct != NULL )

  00090	8b 45 f8	 mov	 eax, DWORD PTR _pe$[ebp]
  00093	83 78 18 00	 cmp	 DWORD PTR [eax+24], 0
  00097	0f 84 0a 02 00
	00		 je	 $LN3@petCircleI

; 3099 : 	{
; 3100 : 		if( pe->ptAct2 == NULL && pe->createTime+2300 < TimeGetTime() )

  0009d	8b 45 f8	 mov	 eax, DWORD PTR _pe$[ebp]
  000a0	83 78 1c 00	 cmp	 DWORD PTR [eax+28], 0
  000a4	75 48		 jne	 SHORT $LN9@petCircleI
  000a6	8b 45 f8	 mov	 eax, DWORD PTR _pe$[ebp]
  000a9	8b 70 14	 mov	 esi, DWORD PTR [eax+20]
  000ac	81 c6 fc 08 00
	00		 add	 esi, 2300		; 000008fcH
  000b2	e8 00 00 00 00	 call	 ?TimeGetTime@@YAIXZ	; TimeGetTime
  000b7	3b f0		 cmp	 esi, eax
  000b9	73 33		 jae	 SHORT $LN9@petCircleI

; 3101 : 		{
; 3102 : 			pe->ptAct2 = createCommmonEffectNoLoop( SPR_hoshi, ptAct->gx, ptAct->gy,

  000bb	8b 45 08	 mov	 eax, DWORD PTR _ptAct$[ebp]
  000be	0f b6 48 15	 movzx	 ecx, BYTE PTR [eax+21]
  000c2	51		 push	 ecx
  000c3	6a 00		 push	 0
  000c5	6a 00		 push	 0
  000c7	8b 55 08	 mov	 edx, DWORD PTR _ptAct$[ebp]
  000ca	8b 82 b8 00 00
	00		 mov	 eax, DWORD PTR [edx+184]
  000d0	50		 push	 eax
  000d1	8b 4d 08	 mov	 ecx, DWORD PTR _ptAct$[ebp]
  000d4	8b 91 b4 00 00
	00		 mov	 edx, DWORD PTR [ecx+180]
  000da	52		 push	 edx
  000db	68 fd 88 01 00	 push	 100605			; 000188fdH
  000e0	e8 00 00 00 00	 call	 ?createCommmonEffectNoLoop@@YAPAUaction@@HHHHHH@Z ; createCommmonEffectNoLoop
  000e5	83 c4 18	 add	 esp, 24			; 00000018H
  000e8	8b 4d f8	 mov	 ecx, DWORD PTR _pe$[ebp]
  000eb	89 41 1c	 mov	 DWORD PTR [ecx+28], eax
$LN9@petCircleI:

; 3103 : 				0, 0, ptAct->dispPrio );
; 3104 : 		}
; 3105 : 
; 3106 : 		pe->r -= 4;

  000ee	8b 45 f8	 mov	 eax, DWORD PTR _pe$[ebp]
  000f1	8b 48 24	 mov	 ecx, DWORD PTR [eax+36]
  000f4	83 e9 04	 sub	 ecx, 4
  000f7	8b 55 f8	 mov	 edx, DWORD PTR _pe$[ebp]
  000fa	89 4a 24	 mov	 DWORD PTR [edx+36], ecx

; 3107 : 		pe->angle += 6.0F;

  000fd	8b 45 f8	 mov	 eax, DWORD PTR _pe$[ebp]
  00100	f3 0f 10 40 20	 movss	 xmm0, DWORD PTR [eax+32]
  00105	f3 0f 58 05 00
	00 00 00	 addss	 xmm0, DWORD PTR __real@40c00000
  0010d	8b 4d f8	 mov	 ecx, DWORD PTR _pe$[ebp]
  00110	f3 0f 11 41 20	 movss	 DWORD PTR [ecx+32], xmm0

; 3108 : 
; 3109 : 		angle = pe->angle;

  00115	8b 45 f8	 mov	 eax, DWORD PTR _pe$[ebp]
  00118	f3 0f 10 40 20	 movss	 xmm0, DWORD PTR [eax+32]
  0011d	f3 0f 11 45 bc	 movss	 DWORD PTR _angle$[ebp], xmm0

; 3110 : 		for( i = 0; i < 3; i++ )

  00122	c7 45 b0 00 00
	00 00		 mov	 DWORD PTR _i$[ebp], 0
  00129	eb 09		 jmp	 SHORT $LN4@petCircleI
$LN2@petCircleI:
  0012b	8b 45 b0	 mov	 eax, DWORD PTR _i$[ebp]
  0012e	83 c0 01	 add	 eax, 1
  00131	89 45 b0	 mov	 DWORD PTR _i$[ebp], eax
$LN4@petCircleI:
  00134	83 7d b0 03	 cmp	 DWORD PTR _i$[ebp], 3
  00138	0f 8d 69 01 00
	00		 jge	 $LN3@petCircleI

; 3111 : 		{
; 3112 : 			dx = (float)pe->r * CosT( angle );

  0013e	8b 45 f8	 mov	 eax, DWORD PTR _pe$[ebp]
  00141	f3 0f 2a 40 24	 cvtsi2ss xmm0, DWORD PTR [eax+36]
  00146	51		 push	 ecx
  00147	f3 0f 10 4d bc	 movss	 xmm1, DWORD PTR _angle$[ebp]
  0014c	f3 0f 11 0c 24	 movss	 DWORD PTR [esp], xmm1
  00151	f3 0f 11 85 e8
	fe ff ff	 movss	 DWORD PTR tv260[ebp], xmm0
  00159	e8 00 00 00 00	 call	 ?CosT@@YAMM@Z		; CosT
  0015e	83 c4 04	 add	 esp, 4
  00161	d9 9d e4 fe ff
	ff		 fstp	 DWORD PTR tv225[ebp]
  00167	f3 0f 10 85 e8
	fe ff ff	 movss	 xmm0, DWORD PTR tv260[ebp]
  0016f	f3 0f 59 85 e4
	fe ff ff	 mulss	 xmm0, DWORD PTR tv225[ebp]
  00177	f3 0f 11 45 d4	 movss	 DWORD PTR _dx$[ebp], xmm0

; 3113 : 			dy = (float)pe->r * SinT( angle );

  0017c	8b 45 f8	 mov	 eax, DWORD PTR _pe$[ebp]
  0017f	f3 0f 2a 40 24	 cvtsi2ss xmm0, DWORD PTR [eax+36]
  00184	51		 push	 ecx
  00185	f3 0f 10 4d bc	 movss	 xmm1, DWORD PTR _angle$[ebp]
  0018a	f3 0f 11 0c 24	 movss	 DWORD PTR [esp], xmm1
  0018f	f3 0f 11 85 e8
	fe ff ff	 movss	 DWORD PTR tv262[ebp], xmm0
  00197	e8 00 00 00 00	 call	 ?SinT@@YAMM@Z		; SinT
  0019c	83 c4 04	 add	 esp, 4
  0019f	d9 9d e4 fe ff
	ff		 fstp	 DWORD PTR tv232[ebp]
  001a5	f3 0f 10 85 e8
	fe ff ff	 movss	 xmm0, DWORD PTR tv262[ebp]
  001ad	f3 0f 59 85 e4
	fe ff ff	 mulss	 xmm0, DWORD PTR tv232[ebp]
  001b5	f3 0f 11 45 c8	 movss	 DWORD PTR _dy$[ebp], xmm0

; 3114 : 
; 3115 : 			// ??t
; 3116 : 			camMapToGamen( ptAct->mx+dx, ptAct->my+dy, &mx, &my );

  001ba	8d 45 e0	 lea	 eax, DWORD PTR _my$[ebp]
  001bd	50		 push	 eax
  001be	8d 4d ec	 lea	 ecx, DWORD PTR _mx$[ebp]
  001c1	51		 push	 ecx
  001c2	8b 55 08	 mov	 edx, DWORD PTR _ptAct$[ebp]
  001c5	f3 0f 10 82 1c
	01 00 00	 movss	 xmm0, DWORD PTR [edx+284]
  001cd	f3 0f 58 45 c8	 addss	 xmm0, DWORD PTR _dy$[ebp]
  001d2	51		 push	 ecx
  001d3	f3 0f 11 04 24	 movss	 DWORD PTR [esp], xmm0
  001d8	8b 45 08	 mov	 eax, DWORD PTR _ptAct$[ebp]
  001db	f3 0f 10 80 18
	01 00 00	 movss	 xmm0, DWORD PTR [eax+280]
  001e3	f3 0f 58 45 d4	 addss	 xmm0, DWORD PTR _dx$[ebp]
  001e8	51		 push	 ecx
  001e9	f3 0f 11 04 24	 movss	 DWORD PTR [esp], xmm0
  001ee	e8 00 00 00 00	 call	 ?camMapToGamen@@YAXMMPAM0@Z ; camMapToGamen
  001f3	83 c4 10	 add	 esp, 16			; 00000010H

; 3117 : 			ptAct->x = (int)(mx+.5);

  001f6	f3 0f 5a 45 ec	 cvtss2sd xmm0, DWORD PTR _mx$[ebp]
  001fb	f2 0f 58 05 00
	00 00 00	 addsd	 xmm0, QWORD PTR __real@3fe0000000000000
  00203	f2 0f 2c c0	 cvttsd2si eax, xmm0
  00207	8b 4d 08	 mov	 ecx, DWORD PTR _ptAct$[ebp]
  0020a	89 41 18	 mov	 DWORD PTR [ecx+24], eax

; 3118 : 			ptAct->y = (int)(my+.5);

  0020d	f3 0f 5a 45 e0	 cvtss2sd xmm0, DWORD PTR _my$[ebp]
  00212	f2 0f 58 05 00
	00 00 00	 addsd	 xmm0, QWORD PTR __real@3fe0000000000000
  0021a	f2 0f 2c c0	 cvttsd2si eax, xmm0
  0021e	8b 4d 08	 mov	 ecx, DWORD PTR _ptAct$[ebp]
  00221	89 41 1c	 mov	 DWORD PTR [ecx+28], eax

; 3119 : 
; 3120 : 			// ?????????
; 3121 : 			pattern( ptAct, ANM_NOMAL_SPD, ANM_LOOP );

  00224	6a 00		 push	 0
  00226	6a 00		 push	 0
  00228	8b 45 08	 mov	 eax, DWORD PTR _ptAct$[ebp]
  0022b	50		 push	 eax
  0022c	e8 00 00 00 00	 call	 ?pattern@@YAHPAUaction@@HH@Z ; pattern
  00231	83 c4 0c	 add	 esp, 12			; 0000000cH

; 3122 : 
; 3123 : 			// ??????????????
; 3124 : 			setCharPrio( ptAct->bmpNo, ptAct->x, ptAct->y, 0, 0, ptAct->mx+dx, ptAct->my+dy );

  00234	8b 45 08	 mov	 eax, DWORD PTR _ptAct$[ebp]
  00237	f3 0f 10 80 1c
	01 00 00	 movss	 xmm0, DWORD PTR [eax+284]
  0023f	f3 0f 58 45 c8	 addss	 xmm0, DWORD PTR _dy$[ebp]
  00244	51		 push	 ecx
  00245	f3 0f 11 04 24	 movss	 DWORD PTR [esp], xmm0
  0024a	8b 4d 08	 mov	 ecx, DWORD PTR _ptAct$[ebp]
  0024d	f3 0f 10 81 18
	01 00 00	 movss	 xmm0, DWORD PTR [ecx+280]
  00255	f3 0f 58 45 d4	 addss	 xmm0, DWORD PTR _dx$[ebp]
  0025a	51		 push	 ecx
  0025b	f3 0f 11 04 24	 movss	 DWORD PTR [esp], xmm0
  00260	6a 00		 push	 0
  00262	6a 00		 push	 0
  00264	8b 55 08	 mov	 edx, DWORD PTR _ptAct$[ebp]
  00267	8b 42 1c	 mov	 eax, DWORD PTR [edx+28]
  0026a	50		 push	 eax
  0026b	8b 4d 08	 mov	 ecx, DWORD PTR _ptAct$[ebp]
  0026e	8b 51 18	 mov	 edx, DWORD PTR [ecx+24]
  00271	52		 push	 edx
  00272	8b 45 08	 mov	 eax, DWORD PTR _ptAct$[ebp]
  00275	8b 88 9c 00 00
	00		 mov	 ecx, DWORD PTR [eax+156]
  0027b	51		 push	 ecx
  0027c	e8 00 00 00 00	 call	 ?setCharPrio@@YAXHHHHHMM@Z ; setCharPrio
  00281	83 c4 1c	 add	 esp, 28			; 0000001cH

; 3125 : 			angle += 120;

  00284	f3 0f 10 45 bc	 movss	 xmm0, DWORD PTR _angle$[ebp]
  00289	f3 0f 58 05 00
	00 00 00	 addss	 xmm0, DWORD PTR __real@42f00000
  00291	f3 0f 11 45 bc	 movss	 DWORD PTR _angle$[ebp], xmm0

; 3126 : 			AdjustDir( &angle );

  00296	8d 45 bc	 lea	 eax, DWORD PTR _angle$[ebp]
  00299	50		 push	 eax
  0029a	e8 00 00 00 00	 call	 ?AdjustDir@@YAXPAM@Z	; AdjustDir
  0029f	83 c4 04	 add	 esp, 4

; 3127 : 		}

  002a2	e9 84 fe ff ff	 jmp	 $LN2@petCircleI
$LN3@petCircleI:

; 3128 : 	}
; 3129 : 
; 3130 : 	return FALSE;

  002a7	33 c0		 xor	 eax, eax
$LN1@petCircleI:

; 3131 : }

  002a9	52		 push	 edx
  002aa	8b cd		 mov	 ecx, ebp
  002ac	50		 push	 eax
  002ad	8d 15 00 00 00
	00		 lea	 edx, DWORD PTR $LN15@petCircleI
  002b3	e8 00 00 00 00	 call	 @_RTC_CheckStackVars@8
  002b8	58		 pop	 eax
  002b9	5a		 pop	 edx
  002ba	5f		 pop	 edi
  002bb	5e		 pop	 esi
  002bc	5b		 pop	 ebx
  002bd	81 c4 1c 01 00
	00		 add	 esp, 284		; 0000011cH
  002c3	3b ec		 cmp	 ebp, esp
  002c5	e8 00 00 00 00	 call	 __RTC_CheckEsp
  002ca	8b e5		 mov	 esp, ebp
  002cc	5d		 pop	 ebp
  002cd	c3		 ret	 0
  002ce	66 90		 npad	 2
$LN15@petCircleI:
  002d0	03 00 00 00	 DD	 3
  002d4	00 00 00 00	 DD	 $LN14@petCircleI
$LN14@petCircleI:
  002d8	ec ff ff ff	 DD	 -20			; ffffffecH
  002dc	04 00 00 00	 DD	 4
  002e0	00 00 00 00	 DD	 $LN11@petCircleI
  002e4	e0 ff ff ff	 DD	 -32			; ffffffe0H
  002e8	04 00 00 00	 DD	 4
  002ec	00 00 00 00	 DD	 $LN12@petCircleI
  002f0	bc ff ff ff	 DD	 -68			; ffffffbcH
  002f4	04 00 00 00	 DD	 4
  002f8	00 00 00 00	 DD	 $LN13@petCircleI
$LN13@petCircleI:
  002fc	61		 DB	 97			; 00000061H
  002fd	6e		 DB	 110			; 0000006eH
  002fe	67		 DB	 103			; 00000067H
  002ff	6c		 DB	 108			; 0000006cH
  00300	65		 DB	 101			; 00000065H
  00301	00		 DB	 0
$LN12@petCircleI:
  00302	6d		 DB	 109			; 0000006dH
  00303	79		 DB	 121			; 00000079H
  00304	00		 DB	 0
$LN11@petCircleI:
  00305	6d		 DB	 109			; 0000006dH
  00306	78		 DB	 120			; 00000078H
  00307	00		 DB	 0
?petCircleInProc@@YAHPAUaction@@@Z ENDP			; petCircleInProc
_TEXT	ENDS
; Function compile flags: /Odtp /RTCsu /ZI
; File c:\users\administrator\desktop\????? ??\????? ??\client source code\system\character.cpp
;	COMDAT ?petCircleOutProc@@YAHPAUaction@@@Z
_TEXT	SEGMENT
tv223 = -284						; size = 4
tv216 = -284						; size = 4
tv253 = -280						; size = 4
tv251 = -280						; size = 4
_i$ = -80						; size = 4
_angle$ = -68						; size = 4
_dy$ = -56						; size = 4
_dx$ = -44						; size = 4
_my$ = -32						; size = 4
_mx$ = -20						; size = 4
_pe$ = -8						; size = 4
_ptAct$ = 8						; size = 4
?petCircleOutProc@@YAHPAUaction@@@Z PROC		; petCircleOutProc, COMDAT

; 3017 : {

  00000	55		 push	 ebp
  00001	8b ec		 mov	 ebp, esp
  00003	81 ec 1c 01 00
	00		 sub	 esp, 284		; 0000011cH
  00009	53		 push	 ebx
  0000a	56		 push	 esi
  0000b	57		 push	 edi
  0000c	8d bd e4 fe ff
	ff		 lea	 edi, DWORD PTR [ebp-284]
  00012	b9 47 00 00 00	 mov	 ecx, 71			; 00000047H
  00017	b8 cc cc cc cc	 mov	 eax, -858993460		; ccccccccH
  0001c	f3 ab		 rep stosd

; 3018 : 	PETEXTRA *pe = (PETEXTRA *)ptAct->pYobi;

  0001e	8b 45 08	 mov	 eax, DWORD PTR _ptAct$[ebp]
  00021	8b 48 0c	 mov	 ecx, DWORD PTR [eax+12]
  00024	89 4d f8	 mov	 DWORD PTR _pe$[ebp], ecx

; 3019 : 	float mx, my;
; 3020 : 	float dx, dy;
; 3021 : 	float angle;
; 3022 : 	int i;
; 3023 : 
; 3024 : 	if( pe->ptAct == NULL )

  00027	8b 45 f8	 mov	 eax, DWORD PTR _pe$[ebp]
  0002a	83 78 18 00	 cmp	 DWORD PTR [eax+24], 0
  0002e	75 4c		 jne	 SHORT $LN5@petCircleO

; 3025 : 	{
; 3026 : 		pe->ptAct = (ACTION *)1;

  00030	8b 45 f8	 mov	 eax, DWORD PTR _pe$[ebp]
  00033	c7 40 18 01 00
	00 00		 mov	 DWORD PTR [eax+24], 1

; 3027 : 		pe->angle = 0.0F;

  0003a	8b 45 f8	 mov	 eax, DWORD PTR _pe$[ebp]
  0003d	0f 57 c0	 xorps	 xmm0, xmm0
  00040	f3 0f 11 40 20	 movss	 DWORD PTR [eax+32], xmm0

; 3028 : 		pe->r = 0;

  00045	8b 45 f8	 mov	 eax, DWORD PTR _pe$[ebp]
  00048	c7 40 24 00 00
	00 00		 mov	 DWORD PTR [eax+36], 0

; 3029 : 		createCommmonEffectNoLoop( SPR_hoshi, ptAct->gx, ptAct->gy,

  0004f	8b 45 08	 mov	 eax, DWORD PTR _ptAct$[ebp]
  00052	0f b6 48 15	 movzx	 ecx, BYTE PTR [eax+21]
  00056	51		 push	 ecx
  00057	6a 00		 push	 0
  00059	6a 00		 push	 0
  0005b	8b 55 08	 mov	 edx, DWORD PTR _ptAct$[ebp]
  0005e	8b 82 b8 00 00
	00		 mov	 eax, DWORD PTR [edx+184]
  00064	50		 push	 eax
  00065	8b 4d 08	 mov	 ecx, DWORD PTR _ptAct$[ebp]
  00068	8b 91 b4 00 00
	00		 mov	 edx, DWORD PTR [ecx+180]
  0006e	52		 push	 edx
  0006f	68 fd 88 01 00	 push	 100605			; 000188fdH
  00074	e8 00 00 00 00	 call	 ?createCommmonEffectNoLoop@@YAPAUaction@@HHHHHH@Z ; createCommmonEffectNoLoop
  00079	83 c4 18	 add	 esp, 24			; 00000018H
$LN5@petCircleO:

; 3030 : 			0, 0, ptAct->dispPrio );
; 3031 : 	}
; 3032 : 
; 3033 : 	if( pe->r > 800 )

  0007c	8b 45 f8	 mov	 eax, DWORD PTR _pe$[ebp]
  0007f	81 78 24 20 03
	00 00		 cmp	 DWORD PTR [eax+36], 800	; 00000320H
  00086	7e 29		 jle	 SHORT $LN6@petCircleO

; 3034 : 	{
; 3035 : 		restorePtActCharObj( pe->id );

  00088	8b 45 f8	 mov	 eax, DWORD PTR _pe$[ebp]
  0008b	8b 48 28	 mov	 ecx, DWORD PTR [eax+40]
  0008e	51		 push	 ecx
  0008f	e8 00 00 00 00	 call	 ?restorePtActCharObj@@YAXH@Z ; restorePtActCharObj
  00094	83 c4 04	 add	 esp, 4

; 3036 : 		DeathAction( ptAct );

  00097	8b 45 08	 mov	 eax, DWORD PTR _ptAct$[ebp]
  0009a	50		 push	 eax
  0009b	e8 00 00 00 00	 call	 ?DeathAction@@YAXPAUaction@@@Z ; DeathAction
  000a0	83 c4 04	 add	 esp, 4

; 3037 : 		ptAct = NULL;

  000a3	c7 45 08 00 00
	00 00		 mov	 DWORD PTR _ptAct$[ebp], 0

; 3038 : 		return FALSE;

  000aa	33 c0		 xor	 eax, eax
  000ac	e9 d9 01 00 00	 jmp	 $LN1@petCircleO
$LN6@petCircleO:

; 3039 : 	}
; 3040 : 
; 3041 : 	if( pe->ptAct != NULL && pe->createTime+1000 < TimeGetTime() )

  000b1	8b 45 f8	 mov	 eax, DWORD PTR _pe$[ebp]
  000b4	83 78 18 00	 cmp	 DWORD PTR [eax+24], 0
  000b8	74 3c		 je	 SHORT $LN7@petCircleO
  000ba	8b 45 f8	 mov	 eax, DWORD PTR _pe$[ebp]
  000bd	8b 70 14	 mov	 esi, DWORD PTR [eax+20]
  000c0	81 c6 e8 03 00
	00		 add	 esi, 1000		; 000003e8H
  000c6	e8 00 00 00 00	 call	 ?TimeGetTime@@YAIXZ	; TimeGetTime
  000cb	3b f0		 cmp	 esi, eax
  000cd	73 27		 jae	 SHORT $LN7@petCircleO

; 3042 : 	{
; 3043 : 		pe->r += 4;

  000cf	8b 45 f8	 mov	 eax, DWORD PTR _pe$[ebp]
  000d2	8b 48 24	 mov	 ecx, DWORD PTR [eax+36]
  000d5	83 c1 04	 add	 ecx, 4
  000d8	8b 55 f8	 mov	 edx, DWORD PTR _pe$[ebp]
  000db	89 4a 24	 mov	 DWORD PTR [edx+36], ecx

; 3044 : 		pe->angle += 6.0F;

  000de	8b 45 f8	 mov	 eax, DWORD PTR _pe$[ebp]
  000e1	f3 0f 10 40 20	 movss	 xmm0, DWORD PTR [eax+32]
  000e6	f3 0f 58 05 00
	00 00 00	 addss	 xmm0, DWORD PTR __real@40c00000
  000ee	8b 4d f8	 mov	 ecx, DWORD PTR _pe$[ebp]
  000f1	f3 0f 11 41 20	 movss	 DWORD PTR [ecx+32], xmm0
$LN7@petCircleO:

; 3045 : 	}
; 3046 : 
; 3047 : 	angle = pe->angle;

  000f6	8b 45 f8	 mov	 eax, DWORD PTR _pe$[ebp]
  000f9	f3 0f 10 40 20	 movss	 xmm0, DWORD PTR [eax+32]
  000fe	f3 0f 11 45 bc	 movss	 DWORD PTR _angle$[ebp], xmm0

; 3048 : 	for( i = 0; i < 3; i++ )

  00103	c7 45 b0 00 00
	00 00		 mov	 DWORD PTR _i$[ebp], 0
  0010a	eb 09		 jmp	 SHORT $LN4@petCircleO
$LN2@petCircleO:
  0010c	8b 45 b0	 mov	 eax, DWORD PTR _i$[ebp]
  0010f	83 c0 01	 add	 eax, 1
  00112	89 45 b0	 mov	 DWORD PTR _i$[ebp], eax
$LN4@petCircleO:
  00115	83 7d b0 03	 cmp	 DWORD PTR _i$[ebp], 3
  00119	0f 8d 69 01 00
	00		 jge	 $LN3@petCircleO

; 3049 : 	{
; 3050 : 		dx = (float)pe->r * CosT( angle );

  0011f	8b 45 f8	 mov	 eax, DWORD PTR _pe$[ebp]
  00122	f3 0f 2a 40 24	 cvtsi2ss xmm0, DWORD PTR [eax+36]
  00127	51		 push	 ecx
  00128	f3 0f 10 4d bc	 movss	 xmm1, DWORD PTR _angle$[ebp]
  0012d	f3 0f 11 0c 24	 movss	 DWORD PTR [esp], xmm1
  00132	f3 0f 11 85 e8
	fe ff ff	 movss	 DWORD PTR tv251[ebp], xmm0
  0013a	e8 00 00 00 00	 call	 ?CosT@@YAMM@Z		; CosT
  0013f	83 c4 04	 add	 esp, 4
  00142	d9 9d e4 fe ff
	ff		 fstp	 DWORD PTR tv216[ebp]
  00148	f3 0f 10 85 e8
	fe ff ff	 movss	 xmm0, DWORD PTR tv251[ebp]
  00150	f3 0f 59 85 e4
	fe ff ff	 mulss	 xmm0, DWORD PTR tv216[ebp]
  00158	f3 0f 11 45 d4	 movss	 DWORD PTR _dx$[ebp], xmm0

; 3051 : 		dy = (float)pe->r * SinT( angle );

  0015d	8b 45 f8	 mov	 eax, DWORD PTR _pe$[ebp]
  00160	f3 0f 2a 40 24	 cvtsi2ss xmm0, DWORD PTR [eax+36]
  00165	51		 push	 ecx
  00166	f3 0f 10 4d bc	 movss	 xmm1, DWORD PTR _angle$[ebp]
  0016b	f3 0f 11 0c 24	 movss	 DWORD PTR [esp], xmm1
  00170	f3 0f 11 85 e8
	fe ff ff	 movss	 DWORD PTR tv253[ebp], xmm0
  00178	e8 00 00 00 00	 call	 ?SinT@@YAMM@Z		; SinT
  0017d	83 c4 04	 add	 esp, 4
  00180	d9 9d e4 fe ff
	ff		 fstp	 DWORD PTR tv223[ebp]
  00186	f3 0f 10 85 e8
	fe ff ff	 movss	 xmm0, DWORD PTR tv253[ebp]
  0018e	f3 0f 59 85 e4
	fe ff ff	 mulss	 xmm0, DWORD PTR tv223[ebp]
  00196	f3 0f 11 45 c8	 movss	 DWORD PTR _dy$[ebp], xmm0

; 3052 : 
; 3053 : 		// ??t
; 3054 : 		camMapToGamen( ptAct->mx+dx, ptAct->my+dy, &mx, &my );

  0019b	8d 45 e0	 lea	 eax, DWORD PTR _my$[ebp]
  0019e	50		 push	 eax
  0019f	8d 4d ec	 lea	 ecx, DWORD PTR _mx$[ebp]
  001a2	51		 push	 ecx
  001a3	8b 55 08	 mov	 edx, DWORD PTR _ptAct$[ebp]
  001a6	f3 0f 10 82 1c
	01 00 00	 movss	 xmm0, DWORD PTR [edx+284]
  001ae	f3 0f 58 45 c8	 addss	 xmm0, DWORD PTR _dy$[ebp]
  001b3	51		 push	 ecx
  001b4	f3 0f 11 04 24	 movss	 DWORD PTR [esp], xmm0
  001b9	8b 45 08	 mov	 eax, DWORD PTR _ptAct$[ebp]
  001bc	f3 0f 10 80 18
	01 00 00	 movss	 xmm0, DWORD PTR [eax+280]
  001c4	f3 0f 58 45 d4	 addss	 xmm0, DWORD PTR _dx$[ebp]
  001c9	51		 push	 ecx
  001ca	f3 0f 11 04 24	 movss	 DWORD PTR [esp], xmm0
  001cf	e8 00 00 00 00	 call	 ?camMapToGamen@@YAXMMPAM0@Z ; camMapToGamen
  001d4	83 c4 10	 add	 esp, 16			; 00000010H

; 3055 : 		ptAct->x = (int)(mx+.5);

  001d7	f3 0f 5a 45 ec	 cvtss2sd xmm0, DWORD PTR _mx$[ebp]
  001dc	f2 0f 58 05 00
	00 00 00	 addsd	 xmm0, QWORD PTR __real@3fe0000000000000
  001e4	f2 0f 2c c0	 cvttsd2si eax, xmm0
  001e8	8b 4d 08	 mov	 ecx, DWORD PTR _ptAct$[ebp]
  001eb	89 41 18	 mov	 DWORD PTR [ecx+24], eax

; 3056 : 		ptAct->y = (int)(my+.5);

  001ee	f3 0f 5a 45 e0	 cvtss2sd xmm0, DWORD PTR _my$[ebp]
  001f3	f2 0f 58 05 00
	00 00 00	 addsd	 xmm0, QWORD PTR __real@3fe0000000000000
  001fb	f2 0f 2c c0	 cvttsd2si eax, xmm0
  001ff	8b 4d 08	 mov	 ecx, DWORD PTR _ptAct$[ebp]
  00202	89 41 1c	 mov	 DWORD PTR [ecx+28], eax

; 3057 : 
; 3058 : 		// ?????????
; 3059 : 		pattern( ptAct, ANM_NOMAL_SPD, ANM_LOOP );

  00205	6a 00		 push	 0
  00207	6a 00		 push	 0
  00209	8b 45 08	 mov	 eax, DWORD PTR _ptAct$[ebp]
  0020c	50		 push	 eax
  0020d	e8 00 00 00 00	 call	 ?pattern@@YAHPAUaction@@HH@Z ; pattern
  00212	83 c4 0c	 add	 esp, 12			; 0000000cH

; 3060 : 
; 3061 : 		// ??????????????
; 3062 : 		setCharPrio( ptAct->bmpNo, ptAct->x, ptAct->y, 0, 0, ptAct->mx+dx, ptAct->my+dy );

  00215	8b 45 08	 mov	 eax, DWORD PTR _ptAct$[ebp]
  00218	f3 0f 10 80 1c
	01 00 00	 movss	 xmm0, DWORD PTR [eax+284]
  00220	f3 0f 58 45 c8	 addss	 xmm0, DWORD PTR _dy$[ebp]
  00225	51		 push	 ecx
  00226	f3 0f 11 04 24	 movss	 DWORD PTR [esp], xmm0
  0022b	8b 4d 08	 mov	 ecx, DWORD PTR _ptAct$[ebp]
  0022e	f3 0f 10 81 18
	01 00 00	 movss	 xmm0, DWORD PTR [ecx+280]
  00236	f3 0f 58 45 d4	 addss	 xmm0, DWORD PTR _dx$[ebp]
  0023b	51		 push	 ecx
  0023c	f3 0f 11 04 24	 movss	 DWORD PTR [esp], xmm0
  00241	6a 00		 push	 0
  00243	6a 00		 push	 0
  00245	8b 55 08	 mov	 edx, DWORD PTR _ptAct$[ebp]
  00248	8b 42 1c	 mov	 eax, DWORD PTR [edx+28]
  0024b	50		 push	 eax
  0024c	8b 4d 08	 mov	 ecx, DWORD PTR _ptAct$[ebp]
  0024f	8b 51 18	 mov	 edx, DWORD PTR [ecx+24]
  00252	52		 push	 edx
  00253	8b 45 08	 mov	 eax, DWORD PTR _ptAct$[ebp]
  00256	8b 88 9c 00 00
	00		 mov	 ecx, DWORD PTR [eax+156]
  0025c	51		 push	 ecx
  0025d	e8 00 00 00 00	 call	 ?setCharPrio@@YAXHHHHHMM@Z ; setCharPrio
  00262	83 c4 1c	 add	 esp, 28			; 0000001cH

; 3063 : 		angle += 120;

  00265	f3 0f 10 45 bc	 movss	 xmm0, DWORD PTR _angle$[ebp]
  0026a	f3 0f 58 05 00
	00 00 00	 addss	 xmm0, DWORD PTR __real@42f00000
  00272	f3 0f 11 45 bc	 movss	 DWORD PTR _angle$[ebp], xmm0

; 3064 : 		AdjustDir( &angle );

  00277	8d 45 bc	 lea	 eax, DWORD PTR _angle$[ebp]
  0027a	50		 push	 eax
  0027b	e8 00 00 00 00	 call	 ?AdjustDir@@YAXPAM@Z	; AdjustDir
  00280	83 c4 04	 add	 esp, 4

; 3065 : 	}

  00283	e9 84 fe ff ff	 jmp	 $LN2@petCircleO
$LN3@petCircleO:

; 3066 : 
; 3067 : 	return FALSE;

  00288	33 c0		 xor	 eax, eax
$LN1@petCircleO:

; 3068 : }

  0028a	52		 push	 edx
  0028b	8b cd		 mov	 ecx, ebp
  0028d	50		 push	 eax
  0028e	8d 15 00 00 00
	00		 lea	 edx, DWORD PTR $LN13@petCircleO
  00294	e8 00 00 00 00	 call	 @_RTC_CheckStackVars@8
  00299	58		 pop	 eax
  0029a	5a		 pop	 edx
  0029b	5f		 pop	 edi
  0029c	5e		 pop	 esi
  0029d	5b		 pop	 ebx
  0029e	81 c4 1c 01 00
	00		 add	 esp, 284		; 0000011cH
  002a4	3b ec		 cmp	 ebp, esp
  002a6	e8 00 00 00 00	 call	 __RTC_CheckEsp
  002ab	8b e5		 mov	 esp, ebp
  002ad	5d		 pop	 ebp
  002ae	c3		 ret	 0
  002af	90		 npad	 1
$LN13@petCircleO:
  002b0	03 00 00 00	 DD	 3
  002b4	00 00 00 00	 DD	 $LN12@petCircleO
$LN12@petCircleO:
  002b8	ec ff ff ff	 DD	 -20			; ffffffecH
  002bc	04 00 00 00	 DD	 4
  002c0	00 00 00 00	 DD	 $LN9@petCircleO
  002c4	e0 ff ff ff	 DD	 -32			; ffffffe0H
  002c8	04 00 00 00	 DD	 4
  002cc	00 00 00 00	 DD	 $LN10@petCircleO
  002d0	bc ff ff ff	 DD	 -68			; ffffffbcH
  002d4	04 00 00 00	 DD	 4
  002d8	00 00 00 00	 DD	 $LN11@petCircleO
$LN11@petCircleO:
  002dc	61		 DB	 97			; 00000061H
  002dd	6e		 DB	 110			; 0000006eH
  002de	67		 DB	 103			; 00000067H
  002df	6c		 DB	 108			; 0000006cH
  002e0	65		 DB	 101			; 00000065H
  002e1	00		 DB	 0
$LN10@petCircleO:
  002e2	6d		 DB	 109			; 0000006dH
  002e3	79		 DB	 121			; 00000079H
  002e4	00		 DB	 0
$LN9@petCircleO:
  002e5	6d		 DB	 109			; 0000006dH
  002e6	78		 DB	 120			; 00000078H
  002e7	00		 DB	 0
?petCircleOutProc@@YAHPAUaction@@@Z ENDP		; petCircleOutProc
_TEXT	ENDS
; Function compile flags: /Odtp /RTCsu /ZI
; File c:\users\administrator\desktop\????? ??\????? ??\client source code\system\character.cpp
;	COMDAT ?uprisePetProc@@YAHPAUaction@@@Z
_TEXT	SEGMENT
_pe$ = -8						; size = 4
_ptAct$ = 8						; size = 4
?uprisePetProc@@YAHPAUaction@@@Z PROC			; uprisePetProc, COMDAT

; 2989 : {

  00000	55		 push	 ebp
  00001	8b ec		 mov	 ebp, esp
  00003	81 ec cc 00 00
	00		 sub	 esp, 204		; 000000ccH
  00009	53		 push	 ebx
  0000a	56		 push	 esi
  0000b	57		 push	 edi
  0000c	8d bd 34 ff ff
	ff		 lea	 edi, DWORD PTR [ebp-204]
  00012	b9 33 00 00 00	 mov	 ecx, 51			; 00000033H
  00017	b8 cc cc cc cc	 mov	 eax, -858993460		; ccccccccH
  0001c	f3 ab		 rep stosd

; 2990 : 	PETEXTRA *pe = (PETEXTRA *)ptAct->pYobi;

  0001e	8b 45 08	 mov	 eax, DWORD PTR _ptAct$[ebp]
  00021	8b 48 0c	 mov	 ecx, DWORD PTR [eax+12]
  00024	89 4d f8	 mov	 DWORD PTR _pe$[ebp], ecx

; 2991 : 
; 2992 : 	if( pe->ptAct == NULL && pe->createTime < TimeGetTime() )

  00027	8b 45 f8	 mov	 eax, DWORD PTR _pe$[ebp]
  0002a	83 78 18 00	 cmp	 DWORD PTR [eax+24], 0
  0002e	75 40		 jne	 SHORT $LN2@uprisePetP
  00030	e8 00 00 00 00	 call	 ?TimeGetTime@@YAIXZ	; TimeGetTime
  00035	8b 4d f8	 mov	 ecx, DWORD PTR _pe$[ebp]
  00038	39 41 14	 cmp	 DWORD PTR [ecx+20], eax
  0003b	73 33		 jae	 SHORT $LN2@uprisePetP

; 2993 : 	{
; 2994 : 		pe->ptAct = createCommmonEffectNoLoop( SPR_difence, ptAct->gx, ptAct->gy,

  0003d	8b 45 08	 mov	 eax, DWORD PTR _ptAct$[ebp]
  00040	0f b6 48 15	 movzx	 ecx, BYTE PTR [eax+21]
  00044	51		 push	 ecx
  00045	6a 00		 push	 0
  00047	6a 00		 push	 0
  00049	8b 55 08	 mov	 edx, DWORD PTR _ptAct$[ebp]
  0004c	8b 82 b8 00 00
	00		 mov	 eax, DWORD PTR [edx+184]
  00052	50		 push	 eax
  00053	8b 4d 08	 mov	 ecx, DWORD PTR _ptAct$[ebp]
  00056	8b 91 b4 00 00
	00		 mov	 edx, DWORD PTR [ecx+180]
  0005c	52		 push	 edx
  0005d	68 02 89 01 00	 push	 100610			; 00018902H
  00062	e8 00 00 00 00	 call	 ?createCommmonEffectNoLoop@@YAPAUaction@@HHHHHH@Z ; createCommmonEffectNoLoop
  00067	83 c4 18	 add	 esp, 24			; 00000018H
  0006a	8b 4d f8	 mov	 ecx, DWORD PTR _pe$[ebp]
  0006d	89 41 18	 mov	 DWORD PTR [ecx+24], eax
$LN2@uprisePetP:

; 2995 : 			0, 0, ptAct->dispPrio );
; 2996 : 	}
; 2997 : 	if( pe->ptAct2 == NULL && pe->createTime+500 < TimeGetTime() )

  00070	8b 45 f8	 mov	 eax, DWORD PTR _pe$[ebp]
  00073	83 78 1c 00	 cmp	 DWORD PTR [eax+28], 0
  00077	75 48		 jne	 SHORT $LN3@uprisePetP
  00079	8b 45 f8	 mov	 eax, DWORD PTR _pe$[ebp]
  0007c	8b 70 14	 mov	 esi, DWORD PTR [eax+20]
  0007f	81 c6 f4 01 00
	00		 add	 esi, 500		; 000001f4H
  00085	e8 00 00 00 00	 call	 ?TimeGetTime@@YAIXZ	; TimeGetTime
  0008a	3b f0		 cmp	 esi, eax
  0008c	73 33		 jae	 SHORT $LN3@uprisePetP

; 2998 : 	{
; 2999 : 		pe->ptAct2 = createCommmonEffectNoLoop( SPR_difence, ptAct->gx, ptAct->gy,

  0008e	8b 45 08	 mov	 eax, DWORD PTR _ptAct$[ebp]
  00091	0f b6 48 15	 movzx	 ecx, BYTE PTR [eax+21]
  00095	51		 push	 ecx
  00096	6a 00		 push	 0
  00098	6a 00		 push	 0
  0009a	8b 55 08	 mov	 edx, DWORD PTR _ptAct$[ebp]
  0009d	8b 82 b8 00 00
	00		 mov	 eax, DWORD PTR [edx+184]
  000a3	50		 push	 eax
  000a4	8b 4d 08	 mov	 ecx, DWORD PTR _ptAct$[ebp]
  000a7	8b 91 b4 00 00
	00		 mov	 edx, DWORD PTR [ecx+180]
  000ad	52		 push	 edx
  000ae	68 02 89 01 00	 push	 100610			; 00018902H
  000b3	e8 00 00 00 00	 call	 ?createCommmonEffectNoLoop@@YAPAUaction@@HHHHHH@Z ; createCommmonEffectNoLoop
  000b8	83 c4 18	 add	 esp, 24			; 00000018H
  000bb	8b 4d f8	 mov	 ecx, DWORD PTR _pe$[ebp]
  000be	89 41 1c	 mov	 DWORD PTR [ecx+28], eax
$LN3@uprisePetP:

; 3000 : 			0, 0, ptAct->dispPrio );
; 3001 : 	}
; 3002 : 
; 3003 : 	// ???????????
; 3004 : 	if( pe->createTime+1200 < TimeGetTime() )

  000c1	8b 45 f8	 mov	 eax, DWORD PTR _pe$[ebp]
  000c4	8b 70 14	 mov	 esi, DWORD PTR [eax+20]
  000c7	81 c6 b0 04 00
	00		 add	 esi, 1200		; 000004b0H
  000cd	e8 00 00 00 00	 call	 ?TimeGetTime@@YAIXZ	; TimeGetTime
  000d2	3b f0		 cmp	 esi, eax
  000d4	73 22		 jae	 SHORT $LN4@uprisePetP

; 3005 : 	{
; 3006 : 		restorePtActCharObj( pe->id );

  000d6	8b 45 f8	 mov	 eax, DWORD PTR _pe$[ebp]
  000d9	8b 48 28	 mov	 ecx, DWORD PTR [eax+40]
  000dc	51		 push	 ecx
  000dd	e8 00 00 00 00	 call	 ?restorePtActCharObj@@YAXH@Z ; restorePtActCharObj
  000e2	83 c4 04	 add	 esp, 4

; 3007 : 		DeathAction( ptAct );

  000e5	8b 45 08	 mov	 eax, DWORD PTR _ptAct$[ebp]
  000e8	50		 push	 eax
  000e9	e8 00 00 00 00	 call	 ?DeathAction@@YAXPAUaction@@@Z ; DeathAction
  000ee	83 c4 04	 add	 esp, 4

; 3008 : 		ptAct = NULL;

  000f1	c7 45 08 00 00
	00 00		 mov	 DWORD PTR _ptAct$[ebp], 0
$LN4@uprisePetP:

; 3009 : 	}
; 3010 : 
; 3011 : 	return FALSE;

  000f8	33 c0		 xor	 eax, eax

; 3012 : }

  000fa	5f		 pop	 edi
  000fb	5e		 pop	 esi
  000fc	5b		 pop	 ebx
  000fd	81 c4 cc 00 00
	00		 add	 esp, 204		; 000000ccH
  00103	3b ec		 cmp	 ebp, esp
  00105	e8 00 00 00 00	 call	 __RTC_CheckEsp
  0010a	8b e5		 mov	 esp, ebp
  0010c	5d		 pop	 ebp
  0010d	c3		 ret	 0
?uprisePetProc@@YAHPAUaction@@@Z ENDP			; uprisePetProc
_TEXT	ENDS
; Function compile flags: /Odtp /RTCsu /ZI
; File c:\users\administrator\desktop\????? ??\????? ??\client source code\system\character.cpp
;	COMDAT ?petMoveProc@@YAHPAUaction@@@Z
_TEXT	SEGMENT
tv83 = -208						; size = 4
tv73 = -208						; size = 4
_pe$ = -8						; size = 4
_ptAct$ = 8						; size = 4
?petMoveProc@@YAHPAUaction@@@Z PROC			; petMoveProc, COMDAT

; 2938 : {

  00000	55		 push	 ebp
  00001	8b ec		 mov	 ebp, esp
  00003	81 ec d0 00 00
	00		 sub	 esp, 208		; 000000d0H
  00009	53		 push	 ebx
  0000a	56		 push	 esi
  0000b	57		 push	 edi
  0000c	8d bd 30 ff ff
	ff		 lea	 edi, DWORD PTR [ebp-208]
  00012	b9 34 00 00 00	 mov	 ecx, 52			; 00000034H
  00017	b8 cc cc cc cc	 mov	 eax, -858993460		; ccccccccH
  0001c	f3 ab		 rep stosd

; 2939 : 	PETEXTRA *pe = (PETEXTRA *)ptAct->pYobi;

  0001e	8b 45 08	 mov	 eax, DWORD PTR _ptAct$[ebp]
  00021	8b 48 0c	 mov	 ecx, DWORD PTR [eax+12]
  00024	89 4d f8	 mov	 DWORD PTR _pe$[ebp], ecx

; 2940 : 
; 2941 : 	// d??????????
; 2942 : 	// ???8??????
; 2943 : 	if( ABS( ptAct->gx - nowGx ) >= 13
; 2944 : 	 || ABS( ptAct->gy - nowGy ) >= 13
; 2945 : 	 || (pe->createTime+8000 < TimeGetTime() && ptAct->vx == 0 && ptAct->vy == 0) )

  00027	8b 45 08	 mov	 eax, DWORD PTR _ptAct$[ebp]
  0002a	8b 88 b4 00 00
	00		 mov	 ecx, DWORD PTR [eax+180]
  00030	2b 0d 00 00 00
	00		 sub	 ecx, DWORD PTR ?nowGx@@3HA ; nowGx
  00036	79 19		 jns	 SHORT $LN10@petMovePro
  00038	8b 55 08	 mov	 edx, DWORD PTR _ptAct$[ebp]
  0003b	8b 82 b4 00 00
	00		 mov	 eax, DWORD PTR [edx+180]
  00041	2b 05 00 00 00
	00		 sub	 eax, DWORD PTR ?nowGx@@3HA ; nowGx
  00047	f7 d8		 neg	 eax
  00049	89 85 30 ff ff
	ff		 mov	 DWORD PTR tv73[ebp], eax
  0004f	eb 15		 jmp	 SHORT $LN11@petMovePro
$LN10@petMovePro:
  00051	8b 4d 08	 mov	 ecx, DWORD PTR _ptAct$[ebp]
  00054	8b 91 b4 00 00
	00		 mov	 edx, DWORD PTR [ecx+180]
  0005a	2b 15 00 00 00
	00		 sub	 edx, DWORD PTR ?nowGx@@3HA ; nowGx
  00060	89 95 30 ff ff
	ff		 mov	 DWORD PTR tv73[ebp], edx
$LN11@petMovePro:
  00066	83 bd 30 ff ff
	ff 0d		 cmp	 DWORD PTR tv73[ebp], 13	; 0000000dH
  0006d	0f 8d 8d 00 00
	00		 jge	 $LN3@petMovePro
  00073	8b 45 08	 mov	 eax, DWORD PTR _ptAct$[ebp]
  00076	8b 88 b8 00 00
	00		 mov	 ecx, DWORD PTR [eax+184]
  0007c	2b 0d 00 00 00
	00		 sub	 ecx, DWORD PTR ?nowGy@@3HA ; nowGy
  00082	79 19		 jns	 SHORT $LN12@petMovePro
  00084	8b 55 08	 mov	 edx, DWORD PTR _ptAct$[ebp]
  00087	8b 82 b8 00 00
	00		 mov	 eax, DWORD PTR [edx+184]
  0008d	2b 05 00 00 00
	00		 sub	 eax, DWORD PTR ?nowGy@@3HA ; nowGy
  00093	f7 d8		 neg	 eax
  00095	89 85 30 ff ff
	ff		 mov	 DWORD PTR tv83[ebp], eax
  0009b	eb 15		 jmp	 SHORT $LN13@petMovePro
$LN12@petMovePro:
  0009d	8b 4d 08	 mov	 ecx, DWORD PTR _ptAct$[ebp]
  000a0	8b 91 b8 00 00
	00		 mov	 edx, DWORD PTR [ecx+184]
  000a6	2b 15 00 00 00
	00		 sub	 edx, DWORD PTR ?nowGy@@3HA ; nowGy
  000ac	89 95 30 ff ff
	ff		 mov	 DWORD PTR tv83[ebp], edx
$LN13@petMovePro:
  000b2	83 bd 30 ff ff
	ff 0d		 cmp	 DWORD PTR tv83[ebp], 13	; 0000000dH
  000b9	7d 45		 jge	 SHORT $LN3@petMovePro
  000bb	8b 45 f8	 mov	 eax, DWORD PTR _pe$[ebp]
  000be	8b 70 14	 mov	 esi, DWORD PTR [eax+20]
  000c1	81 c6 40 1f 00
	00		 add	 esi, 8000		; 00001f40H
  000c7	e8 00 00 00 00	 call	 ?TimeGetTime@@YAIXZ	; TimeGetTime
  000cc	3b f0		 cmp	 esi, eax
  000ce	73 59		 jae	 SHORT $LN2@petMovePro
  000d0	8b 45 08	 mov	 eax, DWORD PTR _ptAct$[ebp]
  000d3	f3 0f 10 80 20
	01 00 00	 movss	 xmm0, DWORD PTR [eax+288]
  000db	0f 2e 05 00 00
	00 00		 ucomiss xmm0, DWORD PTR __real@00000000
  000e2	9f		 lahf
  000e3	f6 c4 44	 test	 ah, 68			; 00000044H
  000e6	7a 41		 jp	 SHORT $LN2@petMovePro
  000e8	8b 45 08	 mov	 eax, DWORD PTR _ptAct$[ebp]
  000eb	f3 0f 10 80 24
	01 00 00	 movss	 xmm0, DWORD PTR [eax+292]
  000f3	0f 2e 05 00 00
	00 00		 ucomiss xmm0, DWORD PTR __real@00000000
  000fa	9f		 lahf
  000fb	f6 c4 44	 test	 ah, 68			; 00000044H
  000fe	7a 29		 jp	 SHORT $LN2@petMovePro
$LN3@petMovePro:

; 2946 : 	{
; 2947 : 		restorePtActCharObj( pe->id );

  00100	8b 45 f8	 mov	 eax, DWORD PTR _pe$[ebp]
  00103	8b 48 28	 mov	 ecx, DWORD PTR [eax+40]
  00106	51		 push	 ecx
  00107	e8 00 00 00 00	 call	 ?restorePtActCharObj@@YAXH@Z ; restorePtActCharObj
  0010c	83 c4 04	 add	 esp, 4

; 2948 : 		DeathAction( ptAct );

  0010f	8b 45 08	 mov	 eax, DWORD PTR _ptAct$[ebp]
  00112	50		 push	 eax
  00113	e8 00 00 00 00	 call	 ?DeathAction@@YAXPAUaction@@@Z ; DeathAction
  00118	83 c4 04	 add	 esp, 4

; 2949 : 		ptAct = NULL;

  0011b	c7 45 08 00 00
	00 00		 mov	 DWORD PTR _ptAct$[ebp], 0

; 2950 : 		return FALSE;

  00122	33 c0		 xor	 eax, eax
  00124	e9 55 01 00 00	 jmp	 $LN1@petMovePro
$LN2@petMovePro:

; 2951 : 	}
; 2952 : 
; 2953 : 	if( pe->ptAct == NULL && pe->createTime+7200 < TimeGetTime() )

  00129	8b 45 f8	 mov	 eax, DWORD PTR _pe$[ebp]
  0012c	83 78 18 00	 cmp	 DWORD PTR [eax+24], 0
  00130	75 48		 jne	 SHORT $LN4@petMovePro
  00132	8b 45 f8	 mov	 eax, DWORD PTR _pe$[ebp]
  00135	8b 70 14	 mov	 esi, DWORD PTR [eax+20]
  00138	81 c6 20 1c 00
	00		 add	 esi, 7200		; 00001c20H
  0013e	e8 00 00 00 00	 call	 ?TimeGetTime@@YAIXZ	; TimeGetTime
  00143	3b f0		 cmp	 esi, eax
  00145	73 33		 jae	 SHORT $LN4@petMovePro

; 2954 : 	{
; 2955 : 		pe->ptAct = createCommmonEffectNoLoop( SPR_difence, ptAct->gx, ptAct->gy,

  00147	8b 45 08	 mov	 eax, DWORD PTR _ptAct$[ebp]
  0014a	0f b6 48 15	 movzx	 ecx, BYTE PTR [eax+21]
  0014e	51		 push	 ecx
  0014f	6a 00		 push	 0
  00151	6a 00		 push	 0
  00153	8b 55 08	 mov	 edx, DWORD PTR _ptAct$[ebp]
  00156	8b 82 b8 00 00
	00		 mov	 eax, DWORD PTR [edx+184]
  0015c	50		 push	 eax
  0015d	8b 4d 08	 mov	 ecx, DWORD PTR _ptAct$[ebp]
  00160	8b 91 b4 00 00
	00		 mov	 edx, DWORD PTR [ecx+180]
  00166	52		 push	 edx
  00167	68 02 89 01 00	 push	 100610			; 00018902H
  0016c	e8 00 00 00 00	 call	 ?createCommmonEffectNoLoop@@YAPAUaction@@HHHHHH@Z ; createCommmonEffectNoLoop
  00171	83 c4 18	 add	 esp, 24			; 00000018H
  00174	8b 4d f8	 mov	 ecx, DWORD PTR _pe$[ebp]
  00177	89 41 18	 mov	 DWORD PTR [ecx+24], eax
$LN4@petMovePro:

; 2956 : 			0, 0, ptAct->dispPrio );
; 2957 : 	}
; 2958 : 	if( pe->ptAct2 == NULL && pe->createTime+7500 < TimeGetTime() )

  0017a	8b 45 f8	 mov	 eax, DWORD PTR _pe$[ebp]
  0017d	83 78 1c 00	 cmp	 DWORD PTR [eax+28], 0
  00181	75 48		 jne	 SHORT $LN5@petMovePro
  00183	8b 45 f8	 mov	 eax, DWORD PTR _pe$[ebp]
  00186	8b 70 14	 mov	 esi, DWORD PTR [eax+20]
  00189	81 c6 4c 1d 00
	00		 add	 esi, 7500		; 00001d4cH
  0018f	e8 00 00 00 00	 call	 ?TimeGetTime@@YAIXZ	; TimeGetTime
  00194	3b f0		 cmp	 esi, eax
  00196	73 33		 jae	 SHORT $LN5@petMovePro

; 2959 : 	{
; 2960 : 		pe->ptAct2 = createCommmonEffectNoLoop( SPR_difence, ptAct->gx, ptAct->gy,

  00198	8b 45 08	 mov	 eax, DWORD PTR _ptAct$[ebp]
  0019b	0f b6 48 15	 movzx	 ecx, BYTE PTR [eax+21]
  0019f	51		 push	 ecx
  001a0	6a 00		 push	 0
  001a2	6a 00		 push	 0
  001a4	8b 55 08	 mov	 edx, DWORD PTR _ptAct$[ebp]
  001a7	8b 82 b8 00 00
	00		 mov	 eax, DWORD PTR [edx+184]
  001ad	50		 push	 eax
  001ae	8b 4d 08	 mov	 ecx, DWORD PTR _ptAct$[ebp]
  001b1	8b 91 b4 00 00
	00		 mov	 edx, DWORD PTR [ecx+180]
  001b7	52		 push	 edx
  001b8	68 02 89 01 00	 push	 100610			; 00018902H
  001bd	e8 00 00 00 00	 call	 ?createCommmonEffectNoLoop@@YAPAUaction@@HHHHHH@Z ; createCommmonEffectNoLoop
  001c2	83 c4 18	 add	 esp, 24			; 00000018H
  001c5	8b 4d f8	 mov	 ecx, DWORD PTR _pe$[ebp]
  001c8	89 41 1c	 mov	 DWORD PTR [ecx+28], eax
$LN5@petMovePro:

; 2961 : 			0, 0, ptAct->dispPrio );
; 2962 : 	}
; 2963 : 
; 2964 : 
; 2965 : 	if( ptAct->vx == 0 && ptAct->vy == 0 )

  001cb	8b 45 08	 mov	 eax, DWORD PTR _ptAct$[ebp]
  001ce	f3 0f 10 80 20
	01 00 00	 movss	 xmm0, DWORD PTR [eax+288]
  001d6	0f 2e 05 00 00
	00 00		 ucomiss xmm0, DWORD PTR __real@00000000
  001dd	9f		 lahf
  001de	f6 c4 44	 test	 ah, 68			; 00000044H
  001e1	7a 24		 jp	 SHORT $LN6@petMovePro
  001e3	8b 45 08	 mov	 eax, DWORD PTR _ptAct$[ebp]
  001e6	f3 0f 10 80 24
	01 00 00	 movss	 xmm0, DWORD PTR [eax+292]
  001ee	0f 2e 05 00 00
	00 00		 ucomiss xmm0, DWORD PTR __real@00000000
  001f5	9f		 lahf
  001f6	f6 c4 44	 test	 ah, 68			; 00000044H
  001f9	7a 0c		 jp	 SHORT $LN6@petMovePro

; 2966 : 	{
; 2967 : 		// ?h????????t???
; 2968 : 		getPetRoute( ptAct );

  001fb	8b 45 08	 mov	 eax, DWORD PTR _ptAct$[ebp]
  001fe	50		 push	 eax
  001ff	e8 00 00 00 00	 call	 ?getPetRoute@@YAXPAUaction@@@Z ; getPetRoute
  00204	83 c4 04	 add	 esp, 4
$LN6@petMovePro:

; 2969 : 	}
; 2970 : 	charMove( ptAct );

  00207	8b 45 08	 mov	 eax, DWORD PTR _ptAct$[ebp]
  0020a	50		 push	 eax
  0020b	e8 00 00 00 00	 call	 ?charMove@@YAXPAUaction@@@Z ; charMove
  00210	83 c4 04	 add	 esp, 4

; 2971 : 
; 2972 : 	if( pe->ptAct != NULL )

  00213	8b 45 f8	 mov	 eax, DWORD PTR _pe$[ebp]
  00216	83 78 18 00	 cmp	 DWORD PTR [eax+24], 0
  0021a	74 2a		 je	 SHORT $LN7@petMovePro

; 2973 : 	{
; 2974 : 		pe->ptAct->mx = ptAct->mx;

  0021c	8b 45 f8	 mov	 eax, DWORD PTR _pe$[ebp]
  0021f	8b 48 18	 mov	 ecx, DWORD PTR [eax+24]
  00222	8b 55 08	 mov	 edx, DWORD PTR _ptAct$[ebp]
  00225	8b 82 18 01 00
	00		 mov	 eax, DWORD PTR [edx+280]
  0022b	89 81 18 01 00
	00		 mov	 DWORD PTR [ecx+280], eax

; 2975 : 		pe->ptAct->my = ptAct->my;

  00231	8b 45 f8	 mov	 eax, DWORD PTR _pe$[ebp]
  00234	8b 48 18	 mov	 ecx, DWORD PTR [eax+24]
  00237	8b 55 08	 mov	 edx, DWORD PTR _ptAct$[ebp]
  0023a	8b 82 1c 01 00
	00		 mov	 eax, DWORD PTR [edx+284]
  00240	89 81 1c 01 00
	00		 mov	 DWORD PTR [ecx+284], eax
$LN7@petMovePro:

; 2976 : 	}
; 2977 : 	if( pe->ptAct2 != NULL )

  00246	8b 45 f8	 mov	 eax, DWORD PTR _pe$[ebp]
  00249	83 78 1c 00	 cmp	 DWORD PTR [eax+28], 0
  0024d	74 2a		 je	 SHORT $LN8@petMovePro

; 2978 : 	{
; 2979 : 		pe->ptAct2->mx = ptAct->mx;

  0024f	8b 45 f8	 mov	 eax, DWORD PTR _pe$[ebp]
  00252	8b 48 1c	 mov	 ecx, DWORD PTR [eax+28]
  00255	8b 55 08	 mov	 edx, DWORD PTR _ptAct$[ebp]
  00258	8b 82 18 01 00
	00		 mov	 eax, DWORD PTR [edx+280]
  0025e	89 81 18 01 00
	00		 mov	 DWORD PTR [ecx+280], eax

; 2980 : 		pe->ptAct2->my = ptAct->my;

  00264	8b 45 f8	 mov	 eax, DWORD PTR _pe$[ebp]
  00267	8b 48 1c	 mov	 ecx, DWORD PTR [eax+28]
  0026a	8b 55 08	 mov	 edx, DWORD PTR _ptAct$[ebp]
  0026d	8b 82 1c 01 00
	00		 mov	 eax, DWORD PTR [edx+284]
  00273	89 81 1c 01 00
	00		 mov	 DWORD PTR [ecx+284], eax
$LN8@petMovePro:

; 2981 : 	}
; 2982 : 
; 2983 : 	return TRUE;

  00279	b8 01 00 00 00	 mov	 eax, 1
$LN1@petMovePro:

; 2984 : }

  0027e	5f		 pop	 edi
  0027f	5e		 pop	 esi
  00280	5b		 pop	 ebx
  00281	81 c4 d0 00 00
	00		 add	 esp, 208		; 000000d0H
  00287	3b ec		 cmp	 ebp, esp
  00289	e8 00 00 00 00	 call	 __RTC_CheckEsp
  0028e	8b e5		 mov	 esp, ebp
  00290	5d		 pop	 ebp
  00291	c3		 ret	 0
?petMoveProc@@YAHPAUaction@@@Z ENDP			; petMoveProc
_TEXT	ENDS
; Function compile flags: /Odtp /RTCsu /ZI
; File c:\users\administrator\desktop\????? ??\????? ??\client source code\system\character.cpp
;	COMDAT ?getPetRoute@@YAXPAUaction@@@Z
_TEXT	SEGMENT
_pe$ = -80						; size = 4
_gy$ = -68						; size = 4
_gx$ = -56						; size = 4
_dy$ = -44						; size = 4
_dx$ = -32						; size = 4
_i$ = -20						; size = 4
_dir$ = -8						; size = 2
_ptAct$ = 8						; size = 4
?getPetRoute@@YAXPAUaction@@@Z PROC			; getPetRoute, COMDAT

; 2866 : {

  00000	55		 push	 ebp
  00001	8b ec		 mov	 ebp, esp
  00003	81 ec 14 01 00
	00		 sub	 esp, 276		; 00000114H
  00009	53		 push	 ebx
  0000a	56		 push	 esi
  0000b	57		 push	 edi
  0000c	8d bd ec fe ff
	ff		 lea	 edi, DWORD PTR [ebp-276]
  00012	b9 45 00 00 00	 mov	 ecx, 69			; 00000045H
  00017	b8 cc cc cc cc	 mov	 eax, -858993460		; ccccccccH
  0001c	f3 ab		 rep stosd

; 2867 : 	short dir;
; 2868 : 	int i;
; 2869 : 	int dx, dy;
; 2870 : 	int gx, gy;
; 2871 : 	PETEXTRA *pe;
; 2872 : 
; 2873 : 	if( ptAct->bufCount > 0 )

  0001e	8b 45 08	 mov	 eax, DWORD PTR _ptAct$[ebp]
  00021	0f bf 88 14 01
	00 00		 movsx	 ecx, WORD PTR [eax+276]
  00028	85 c9		 test	 ecx, ecx
  0002a	7e 05		 jle	 SHORT $LN5@getPetRout

; 2874 : 		return;

  0002c	e9 d9 01 00 00	 jmp	 $LN1@getPetRout
$LN5@getPetRout:

; 2875 : 
; 2876 : 	// ???Re?????????
; 2877 : 	if( nowGx != oldGx || nowGy != oldGy )

  00031	a1 00 00 00 00	 mov	 eax, DWORD PTR ?nowGx@@3HA ; nowGx
  00036	3b 05 00 00 00
	00		 cmp	 eax, DWORD PTR ?oldGx@@3HA ; oldGx
  0003c	75 0d		 jne	 SHORT $LN7@getPetRout
  0003e	a1 00 00 00 00	 mov	 eax, DWORD PTR ?nowGy@@3HA ; nowGy
  00043	3b 05 00 00 00
	00		 cmp	 eax, DWORD PTR ?oldGy@@3HA ; oldGy
  00049	74 05		 je	 SHORT $LN6@getPetRout
$LN7@getPetRout:

; 2878 : 		return;

  0004b	e9 ba 01 00 00	 jmp	 $LN1@getPetRout
$LN6@getPetRout:

; 2879 : 
; 2880 : 	pe = (PETEXTRA *)ptAct->pYobi;

  00050	8b 45 08	 mov	 eax, DWORD PTR _ptAct$[ebp]
  00053	8b 48 0c	 mov	 ecx, DWORD PTR [eax+12]
  00056	89 4d b0	 mov	 DWORD PTR _pe$[ebp], ecx

; 2881 : 
; 2882 : 	dir = pe->moveDir;

  00059	8b 45 b0	 mov	 eax, DWORD PTR _pe$[ebp]
  0005c	66 8b 48 02	 mov	 cx, WORD PTR [eax+2]
  00060	66 89 4d f8	 mov	 WORD PTR _dir$[ebp], cx

; 2883 : 
; 2884 : 	for( i = 0; i < 4; i++ )

  00064	c7 45 ec 00 00
	00 00		 mov	 DWORD PTR _i$[ebp], 0
  0006b	eb 09		 jmp	 SHORT $LN4@getPetRout
$LN2@getPetRout:
  0006d	8b 45 ec	 mov	 eax, DWORD PTR _i$[ebp]
  00070	83 c0 01	 add	 eax, 1
  00073	89 45 ec	 mov	 DWORD PTR _i$[ebp], eax
$LN4@getPetRout:
  00076	83 7d ec 04	 cmp	 DWORD PTR _i$[ebp], 4
  0007a	7d 7f		 jge	 SHORT $LN3@getPetRout

; 2885 : 	{
; 2886 : 		getRouteData( dir, &dx, &dy );

  0007c	8d 45 d4	 lea	 eax, DWORD PTR _dy$[ebp]
  0007f	50		 push	 eax
  00080	8d 4d e0	 lea	 ecx, DWORD PTR _dx$[ebp]
  00083	51		 push	 ecx
  00084	0f bf 55 f8	 movsx	 edx, WORD PTR _dir$[ebp]
  00088	52		 push	 edx
  00089	e8 00 00 00 00	 call	 ?getRouteData@@YAXHPAH0@Z ; getRouteData
  0008e	83 c4 0c	 add	 esp, 12			; 0000000cH

; 2887 : 		gx = ptAct->gx+dx;

  00091	8b 45 08	 mov	 eax, DWORD PTR _ptAct$[ebp]
  00094	8b 88 b4 00 00
	00		 mov	 ecx, DWORD PTR [eax+180]
  0009a	03 4d e0	 add	 ecx, DWORD PTR _dx$[ebp]
  0009d	89 4d c8	 mov	 DWORD PTR _gx$[ebp], ecx

; 2888 : 		gy = ptAct->gy+dy;

  000a0	8b 45 08	 mov	 eax, DWORD PTR _ptAct$[ebp]
  000a3	8b 88 b8 00 00
	00		 mov	 ecx, DWORD PTR [eax+184]
  000a9	03 4d d4	 add	 ecx, DWORD PTR _dy$[ebp]
  000ac	89 4d bc	 mov	 DWORD PTR _gy$[ebp], ecx

; 2889 : 		if( (gx != pe->preGx || gy != pe->preGy)
; 2890 : 		 && checkHitMap( gx, gy ) == FALSE )

  000af	8b 45 b0	 mov	 eax, DWORD PTR _pe$[ebp]
  000b2	8b 4d c8	 mov	 ecx, DWORD PTR _gx$[ebp]
  000b5	3b 48 08	 cmp	 ecx, DWORD PTR [eax+8]
  000b8	75 0b		 jne	 SHORT $LN9@getPetRout
  000ba	8b 45 b0	 mov	 eax, DWORD PTR _pe$[ebp]
  000bd	8b 4d bc	 mov	 ecx, DWORD PTR _gy$[ebp]
  000c0	3b 48 0c	 cmp	 ecx, DWORD PTR [eax+12]
  000c3	74 16		 je	 SHORT $LN8@getPetRout
$LN9@getPetRout:
  000c5	8b 45 bc	 mov	 eax, DWORD PTR _gy$[ebp]
  000c8	50		 push	 eax
  000c9	8b 4d c8	 mov	 ecx, DWORD PTR _gx$[ebp]
  000cc	51		 push	 ecx
  000cd	e8 00 00 00 00	 call	 ?checkHitMap@@YAHHH@Z	; checkHitMap
  000d2	83 c4 08	 add	 esp, 8
  000d5	85 c0		 test	 eax, eax
  000d7	75 02		 jne	 SHORT $LN8@getPetRout

; 2891 : 		{
; 2892 : 			break;

  000d9	eb 20		 jmp	 SHORT $LN3@getPetRout
$LN8@getPetRout:

; 2893 : 		}
; 2894 : 		dir += (2*(i+1));

  000db	0f bf 45 f8	 movsx	 eax, WORD PTR _dir$[ebp]
  000df	8b 4d ec	 mov	 ecx, DWORD PTR _i$[ebp]
  000e2	8d 54 48 02	 lea	 edx, DWORD PTR [eax+ecx*2+2]
  000e6	66 89 55 f8	 mov	 WORD PTR _dir$[ebp], dx

; 2895 : 		ajustClientDir( &dir );

  000ea	8d 45 f8	 lea	 eax, DWORD PTR _dir$[ebp]
  000ed	50		 push	 eax
  000ee	e8 00 00 00 00	 call	 ?ajustClientDir@@YAXPAF@Z ; ajustClientDir
  000f3	83 c4 04	 add	 esp, 4

; 2896 : 	}

  000f6	e9 72 ff ff ff	 jmp	 $LN2@getPetRout
$LN3@getPetRout:

; 2897 : 
; 2898 : 	if( i >= 4 )

  000fb	83 7d ec 04	 cmp	 DWORD PTR _i$[ebp], 4
  000ff	7c 39		 jl	 SHORT $LN10@getPetRout

; 2899 : 	{
; 2900 : 		pe->preGx = -1;

  00101	8b 45 b0	 mov	 eax, DWORD PTR _pe$[ebp]
  00104	c7 40 08 ff ff
	ff ff		 mov	 DWORD PTR [eax+8], -1

; 2901 : 		pe->preGy = -1;

  0010b	8b 45 b0	 mov	 eax, DWORD PTR _pe$[ebp]
  0010e	c7 40 0c ff ff
	ff ff		 mov	 DWORD PTR [eax+12], -1

; 2902 : 		pe->moveDir -= 2;

  00115	8b 45 b0	 mov	 eax, DWORD PTR _pe$[ebp]
  00118	0f bf 48 02	 movsx	 ecx, WORD PTR [eax+2]
  0011c	83 e9 02	 sub	 ecx, 2
  0011f	8b 55 b0	 mov	 edx, DWORD PTR _pe$[ebp]
  00122	66 89 4a 02	 mov	 WORD PTR [edx+2], cx

; 2903 : 		ajustClientDir( &pe->moveDir );

  00126	8b 45 b0	 mov	 eax, DWORD PTR _pe$[ebp]
  00129	83 c0 02	 add	 eax, 2
  0012c	50		 push	 eax
  0012d	e8 00 00 00 00	 call	 ?ajustClientDir@@YAXPAF@Z ; ajustClientDir
  00132	83 c4 04	 add	 esp, 4

; 2904 : 		return;

  00135	e9 d0 00 00 00	 jmp	 $LN1@getPetRout
$LN10@getPetRout:

; 2905 : 	}
; 2906 : 
; 2907 : 	if( pe->dirCnt >= 2 )

  0013a	8b 45 b0	 mov	 eax, DWORD PTR _pe$[ebp]
  0013d	0f bf 48 06	 movsx	 ecx, WORD PTR [eax+6]
  00141	83 f9 02	 cmp	 ecx, 2
  00144	7c 29		 jl	 SHORT $LN11@getPetRout

; 2908 : 	{
; 2909 : 		pe->dirCnt = 0;

  00146	33 c0		 xor	 eax, eax
  00148	8b 4d b0	 mov	 ecx, DWORD PTR _pe$[ebp]
  0014b	66 89 41 06	 mov	 WORD PTR [ecx+6], ax

; 2910 : 		pe->moveDir -= 6;

  0014f	8b 45 b0	 mov	 eax, DWORD PTR _pe$[ebp]
  00152	0f bf 48 02	 movsx	 ecx, WORD PTR [eax+2]
  00156	83 e9 06	 sub	 ecx, 6
  00159	8b 55 b0	 mov	 edx, DWORD PTR _pe$[ebp]
  0015c	66 89 4a 02	 mov	 WORD PTR [edx+2], cx

; 2911 : 		ajustClientDir( &pe->moveDir );

  00160	8b 45 b0	 mov	 eax, DWORD PTR _pe$[ebp]
  00163	83 c0 02	 add	 eax, 2
  00166	50		 push	 eax
  00167	e8 00 00 00 00	 call	 ?ajustClientDir@@YAXPAF@Z ; ajustClientDir
  0016c	83 c4 04	 add	 esp, 4
$LN11@getPetRout:

; 2912 : 	}
; 2913 : 
; 2914 : 	if( dir != pe->preDir )

  0016f	0f bf 45 f8	 movsx	 eax, WORD PTR _dir$[ebp]
  00173	8b 4d b0	 mov	 ecx, DWORD PTR _pe$[ebp]
  00176	0f bf 51 04	 movsx	 edx, WORD PTR [ecx+4]
  0017a	3b c2		 cmp	 eax, edx
  0017c	74 14		 je	 SHORT $LN12@getPetRout

; 2915 : 	{
; 2916 : 		pe->dirCnt++;

  0017e	8b 45 b0	 mov	 eax, DWORD PTR _pe$[ebp]
  00181	66 8b 48 06	 mov	 cx, WORD PTR [eax+6]
  00185	66 83 c1 01	 add	 cx, 1
  00189	8b 55 b0	 mov	 edx, DWORD PTR _pe$[ebp]
  0018c	66 89 4a 06	 mov	 WORD PTR [edx+6], cx

; 2917 : 	}
; 2918 : 	else

  00190	eb 09		 jmp	 SHORT $LN13@getPetRout
$LN12@getPetRout:

; 2919 : 	{
; 2920 : 		pe->dirCnt = 0;

  00192	33 c0		 xor	 eax, eax
  00194	8b 4d b0	 mov	 ecx, DWORD PTR _pe$[ebp]
  00197	66 89 41 06	 mov	 WORD PTR [ecx+6], ax
$LN13@getPetRout:

; 2921 : 	}
; 2922 : 
; 2923 : 	pe->preDir = dir;

  0019b	8b 45 b0	 mov	 eax, DWORD PTR _pe$[ebp]
  0019e	66 8b 4d f8	 mov	 cx, WORD PTR _dir$[ebp]
  001a2	66 89 48 04	 mov	 WORD PTR [eax+4], cx

; 2924 : 
; 2925 : 	ptAct->bufGx[ptAct->bufCount] = gx;

  001a6	8b 45 08	 mov	 eax, DWORD PTR _ptAct$[ebp]
  001a9	0f bf 88 14 01
	00 00		 movsx	 ecx, WORD PTR [eax+276]
  001b0	8b 55 08	 mov	 edx, DWORD PTR _ptAct$[ebp]
  001b3	8b 45 c8	 mov	 eax, DWORD PTR _gx$[ebp]
  001b6	89 84 8a c4 00
	00 00		 mov	 DWORD PTR [edx+ecx*4+196], eax

; 2926 : 	ptAct->bufGy[ptAct->bufCount] = gy;

  001bd	8b 45 08	 mov	 eax, DWORD PTR _ptAct$[ebp]
  001c0	0f bf 88 14 01
	00 00		 movsx	 ecx, WORD PTR [eax+276]
  001c7	8b 55 08	 mov	 edx, DWORD PTR _ptAct$[ebp]
  001ca	8b 45 bc	 mov	 eax, DWORD PTR _gy$[ebp]
  001cd	89 84 8a ec 00
	00 00		 mov	 DWORD PTR [edx+ecx*4+236], eax

; 2927 : 	ptAct->bufCount++;

  001d4	8b 45 08	 mov	 eax, DWORD PTR _ptAct$[ebp]
  001d7	66 8b 88 14 01
	00 00		 mov	 cx, WORD PTR [eax+276]
  001de	66 83 c1 01	 add	 cx, 1
  001e2	8b 55 08	 mov	 edx, DWORD PTR _ptAct$[ebp]
  001e5	66 89 8a 14 01
	00 00		 mov	 WORD PTR [edx+276], cx

; 2928 : 
; 2929 : 	pe->preGx = ptAct->gx;

  001ec	8b 45 b0	 mov	 eax, DWORD PTR _pe$[ebp]
  001ef	8b 4d 08	 mov	 ecx, DWORD PTR _ptAct$[ebp]
  001f2	8b 91 b4 00 00
	00		 mov	 edx, DWORD PTR [ecx+180]
  001f8	89 50 08	 mov	 DWORD PTR [eax+8], edx

; 2930 : 	pe->preGy = ptAct->gy;

  001fb	8b 45 b0	 mov	 eax, DWORD PTR _pe$[ebp]
  001fe	8b 4d 08	 mov	 ecx, DWORD PTR _ptAct$[ebp]
  00201	8b 91 b8 00 00
	00		 mov	 edx, DWORD PTR [ecx+184]
  00207	89 50 0c	 mov	 DWORD PTR [eax+12], edx
$LN1@getPetRout:

; 2931 : 
; 2932 : 	return;
; 2933 : }

  0020a	52		 push	 edx
  0020b	8b cd		 mov	 ecx, ebp
  0020d	50		 push	 eax
  0020e	8d 15 00 00 00
	00		 lea	 edx, DWORD PTR $LN19@getPetRout
  00214	e8 00 00 00 00	 call	 @_RTC_CheckStackVars@8
  00219	58		 pop	 eax
  0021a	5a		 pop	 edx
  0021b	5f		 pop	 edi
  0021c	5e		 pop	 esi
  0021d	5b		 pop	 ebx
  0021e	81 c4 14 01 00
	00		 add	 esp, 276		; 00000114H
  00224	3b ec		 cmp	 ebp, esp
  00226	e8 00 00 00 00	 call	 __RTC_CheckEsp
  0022b	8b e5		 mov	 esp, ebp
  0022d	5d		 pop	 ebp
  0022e	c3		 ret	 0
  0022f	90		 npad	 1
$LN19@getPetRout:
  00230	03 00 00 00	 DD	 3
  00234	00 00 00 00	 DD	 $LN18@getPetRout
$LN18@getPetRout:
  00238	f8 ff ff ff	 DD	 -8			; fffffff8H
  0023c	02 00 00 00	 DD	 2
  00240	00 00 00 00	 DD	 $LN15@getPetRout
  00244	e0 ff ff ff	 DD	 -32			; ffffffe0H
  00248	04 00 00 00	 DD	 4
  0024c	00 00 00 00	 DD	 $LN16@getPetRout
  00250	d4 ff ff ff	 DD	 -44			; ffffffd4H
  00254	04 00 00 00	 DD	 4
  00258	00 00 00 00	 DD	 $LN17@getPetRout
$LN17@getPetRout:
  0025c	64		 DB	 100			; 00000064H
  0025d	79		 DB	 121			; 00000079H
  0025e	00		 DB	 0
$LN16@getPetRout:
  0025f	64		 DB	 100			; 00000064H
  00260	78		 DB	 120			; 00000078H
  00261	00		 DB	 0
$LN15@getPetRout:
  00262	64		 DB	 100			; 00000064H
  00263	69		 DB	 105			; 00000069H
  00264	72		 DB	 114			; 00000072H
  00265	00		 DB	 0
?getPetRoute@@YAXPAUaction@@@Z ENDP			; getPetRoute
_TEXT	ENDS
; Function compile flags: /Odtp /RTCsu /ZI
; File c:\users\administrator\desktop\????? ??\????? ??\client source code\system\character.cpp
;	COMDAT ?limitCantClientDir@@YAXPAF@Z
_TEXT	SEGMENT
_dir$ = 8						; size = 4
?limitCantClientDir@@YAXPAF@Z PROC			; limitCantClientDir, COMDAT

; 2836 : {

  00000	55		 push	 ebp
  00001	8b ec		 mov	 ebp, esp
  00003	81 ec c0 00 00
	00		 sub	 esp, 192		; 000000c0H
  00009	53		 push	 ebx
  0000a	56		 push	 esi
  0000b	57		 push	 edi
  0000c	8d bd 40 ff ff
	ff		 lea	 edi, DWORD PTR [ebp-192]
  00012	b9 30 00 00 00	 mov	 ecx, 48			; 00000030H
  00017	b8 cc cc cc cc	 mov	 eax, -858993460		; ccccccccH
  0001c	f3 ab		 rep stosd

; 2837 : 	// dir??????????????
; 2838 : 	if( ((*dir) % 2) == 0 )

  0001e	8b 45 08	 mov	 eax, DWORD PTR _dir$[ebp]
  00021	0f bf 08	 movsx	 ecx, WORD PTR [eax]
  00024	81 e1 01 00 00
	80		 and	 ecx, -2147483647	; 80000001H
  0002a	79 05		 jns	 SHORT $LN4@limitCantC
  0002c	49		 dec	 ecx
  0002d	83 c9 fe	 or	 ecx, -2			; fffffffeH
  00030	41		 inc	 ecx
$LN4@limitCantC:
  00031	85 c9		 test	 ecx, ecx
  00033	75 10		 jne	 SHORT $LN1@limitCantC

; 2839 : 	{
; 2840 : 		(*dir)++;

  00035	8b 45 08	 mov	 eax, DWORD PTR _dir$[ebp]
  00038	66 8b 08	 mov	 cx, WORD PTR [eax]
  0003b	66 83 c1 01	 add	 cx, 1
  0003f	8b 55 08	 mov	 edx, DWORD PTR _dir$[ebp]
  00042	66 89 0a	 mov	 WORD PTR [edx], cx
$LN1@limitCantC:

; 2841 : 	}
; 2842 : }

  00045	5f		 pop	 edi
  00046	5e		 pop	 esi
  00047	5b		 pop	 ebx
  00048	8b e5		 mov	 esp, ebp
  0004a	5d		 pop	 ebp
  0004b	c3		 ret	 0
?limitCantClientDir@@YAXPAF@Z ENDP			; limitCantClientDir
_TEXT	ENDS
; Function compile flags: /Odtp /RTCsu /ZI
; File c:\users\administrator\desktop\????? ??\????? ??\client source code\system\character.cpp
;	COMDAT ?searchCharObjId@@YAHH@Z
_TEXT	SEGMENT
_no$ = -20						; size = 4
_i$ = -8						; size = 4
_id$ = 8						; size = 4
?searchCharObjId@@YAHH@Z PROC				; searchCharObjId, COMDAT

; 1972 : {

  00000	55		 push	 ebp
  00001	8b ec		 mov	 ebp, esp
  00003	81 ec d8 00 00
	00		 sub	 esp, 216		; 000000d8H
  00009	53		 push	 ebx
  0000a	56		 push	 esi
  0000b	57		 push	 edi
  0000c	8d bd 28 ff ff
	ff		 lea	 edi, DWORD PTR [ebp-216]
  00012	b9 36 00 00 00	 mov	 ecx, 54			; 00000036H
  00017	b8 cc cc cc cc	 mov	 eax, -858993460		; ccccccccH
  0001c	f3 ab		 rep stosd

; 1973 : 	int i;
; 1974 : 	int no = -1;

  0001e	c7 45 ec ff ff
	ff ff		 mov	 DWORD PTR _no$[ebp], -1

; 1975 : 	for( i = searchCharObj; i < tailCharObj; i++ ){

  00025	a1 00 00 00 00	 mov	 eax, DWORD PTR ?searchCharObj@@3HA ; searchCharObj
  0002a	89 45 f8	 mov	 DWORD PTR _i$[ebp], eax
  0002d	eb 09		 jmp	 SHORT $LN4@searchChar
$LN2@searchChar:
  0002f	8b 45 f8	 mov	 eax, DWORD PTR _i$[ebp]
  00032	83 c0 01	 add	 eax, 1
  00035	89 45 f8	 mov	 DWORD PTR _i$[ebp], eax
$LN4@searchChar:
  00038	8b 45 f8	 mov	 eax, DWORD PTR _i$[ebp]
  0003b	3b 05 00 00 00
	00		 cmp	 eax, DWORD PTR ?tailCharObj@@3HA ; tailCharObj
  00041	7d 36		 jge	 SHORT $LN3@searchChar

; 1976 : 		if( charObj[i].use != CHAROBJ_USE_FREE && charObj[i].id == id ){

  00043	69 45 f8 0c 01
	00 00		 imul	 eax, DWORD PTR _i$[ebp], 268
  0004a	0f bf 88 00 00
	00 00		 movsx	 ecx, WORD PTR ?charObj@@3PAUCHAROBJ@@A[eax]
  00051	85 c9		 test	 ecx, ecx
  00053	74 22		 je	 SHORT $LN8@searchChar
  00055	69 45 f8 0c 01
	00 00		 imul	 eax, DWORD PTR _i$[ebp], 268
  0005c	8b 88 04 00 00
	00		 mov	 ecx, DWORD PTR ?charObj@@3PAUCHAROBJ@@A[eax+4]
  00062	3b 4d 08	 cmp	 ecx, DWORD PTR _id$[ebp]
  00065	75 10		 jne	 SHORT $LN8@searchChar

; 1977 : 			no = i;

  00067	8b 45 f8	 mov	 eax, DWORD PTR _i$[ebp]
  0006a	89 45 ec	 mov	 DWORD PTR _no$[ebp], eax

; 1978 : 			searchCharObj = i;

  0006d	8b 45 f8	 mov	 eax, DWORD PTR _i$[ebp]
  00070	a3 00 00 00 00	 mov	 DWORD PTR ?searchCharObj@@3HA, eax ; searchCharObj

; 1979 : 			break;

  00075	eb 02		 jmp	 SHORT $LN3@searchChar
$LN8@searchChar:

; 1980 : 		}
; 1981 : 	}

  00077	eb b6		 jmp	 SHORT $LN2@searchChar
$LN3@searchChar:

; 1982 : 	if( no < 0 && searchCharObj > 0 ){

  00079	83 7d ec 00	 cmp	 DWORD PTR _no$[ebp], 0
  0007d	7d 5c		 jge	 SHORT $LN9@searchChar
  0007f	83 3d 00 00 00
	00 00		 cmp	 DWORD PTR ?searchCharObj@@3HA, 0 ; searchCharObj
  00086	7e 53		 jle	 SHORT $LN9@searchChar

; 1983 : 		for( i = 0; i < searchCharObj; i++ ){

  00088	c7 45 f8 00 00
	00 00		 mov	 DWORD PTR _i$[ebp], 0
  0008f	eb 09		 jmp	 SHORT $LN7@searchChar
$LN5@searchChar:
  00091	8b 45 f8	 mov	 eax, DWORD PTR _i$[ebp]
  00094	83 c0 01	 add	 eax, 1
  00097	89 45 f8	 mov	 DWORD PTR _i$[ebp], eax
$LN7@searchChar:
  0009a	8b 45 f8	 mov	 eax, DWORD PTR _i$[ebp]
  0009d	3b 05 00 00 00
	00		 cmp	 eax, DWORD PTR ?searchCharObj@@3HA ; searchCharObj
  000a3	7d 36		 jge	 SHORT $LN9@searchChar

; 1984 : 			if( charObj[i].use != CHAROBJ_USE_FREE && charObj[i].id == id ){

  000a5	69 45 f8 0c 01
	00 00		 imul	 eax, DWORD PTR _i$[ebp], 268
  000ac	0f bf 88 00 00
	00 00		 movsx	 ecx, WORD PTR ?charObj@@3PAUCHAROBJ@@A[eax]
  000b3	85 c9		 test	 ecx, ecx
  000b5	74 22		 je	 SHORT $LN10@searchChar
  000b7	69 45 f8 0c 01
	00 00		 imul	 eax, DWORD PTR _i$[ebp], 268
  000be	8b 88 04 00 00
	00		 mov	 ecx, DWORD PTR ?charObj@@3PAUCHAROBJ@@A[eax+4]
  000c4	3b 4d 08	 cmp	 ecx, DWORD PTR _id$[ebp]
  000c7	75 10		 jne	 SHORT $LN10@searchChar

; 1985 : 				no = i;

  000c9	8b 45 f8	 mov	 eax, DWORD PTR _i$[ebp]
  000cc	89 45 ec	 mov	 DWORD PTR _no$[ebp], eax

; 1986 : 				searchCharObj = i;

  000cf	8b 45 f8	 mov	 eax, DWORD PTR _i$[ebp]
  000d2	a3 00 00 00 00	 mov	 DWORD PTR ?searchCharObj@@3HA, eax ; searchCharObj

; 1987 : 				break;

  000d7	eb 02		 jmp	 SHORT $LN9@searchChar
$LN10@searchChar:

; 1988 : 			}
; 1989 : 		}

  000d9	eb b6		 jmp	 SHORT $LN5@searchChar
$LN9@searchChar:

; 1990 : 	}
; 1991 : 	return no;

  000db	8b 45 ec	 mov	 eax, DWORD PTR _no$[ebp]

; 1992 : }

  000de	5f		 pop	 edi
  000df	5e		 pop	 esi
  000e0	5b		 pop	 ebx
  000e1	8b e5		 mov	 esp, ebp
  000e3	5d		 pop	 ebp
  000e4	c3		 ret	 0
?searchCharObjId@@YAHH@Z ENDP				; searchCharObjId
_TEXT	ENDS
; Function compile flags: /Odtp /RTCsu /ZI
; File c:\users\administrator\desktop\????? ??\????? ??\client source code\system\character.cpp
;	COMDAT ?commmonEffectNoLoop@@YAXPAUaction@@@Z
_TEXT	SEGMENT
_my$ = -20						; size = 4
_mx$ = -8						; size = 4
_ptAct$ = 8						; size = 4
?commmonEffectNoLoop@@YAXPAUaction@@@Z PROC		; commmonEffectNoLoop, COMDAT

; 1616 : {

  00000	55		 push	 ebp
  00001	8b ec		 mov	 ebp, esp
  00003	81 ec d8 00 00
	00		 sub	 esp, 216		; 000000d8H
  00009	53		 push	 ebx
  0000a	56		 push	 esi
  0000b	57		 push	 edi
  0000c	8d bd 28 ff ff
	ff		 lea	 edi, DWORD PTR [ebp-216]
  00012	b9 36 00 00 00	 mov	 ecx, 54			; 00000036H
  00017	b8 cc cc cc cc	 mov	 eax, -858993460		; ccccccccH
  0001c	f3 ab		 rep stosd

; 1617 : 	float mx, my;
; 1618 : 	// ??t
; 1619 : 	camMapToGamen( ptAct->mx, ptAct->my, &mx, &my );

  0001e	8d 45 ec	 lea	 eax, DWORD PTR _my$[ebp]
  00021	50		 push	 eax
  00022	8d 4d f8	 lea	 ecx, DWORD PTR _mx$[ebp]
  00025	51		 push	 ecx
  00026	8b 55 08	 mov	 edx, DWORD PTR _ptAct$[ebp]
  00029	51		 push	 ecx
  0002a	f3 0f 10 82 1c
	01 00 00	 movss	 xmm0, DWORD PTR [edx+284]
  00032	f3 0f 11 04 24	 movss	 DWORD PTR [esp], xmm0
  00037	8b 45 08	 mov	 eax, DWORD PTR _ptAct$[ebp]
  0003a	51		 push	 ecx
  0003b	f3 0f 10 80 18
	01 00 00	 movss	 xmm0, DWORD PTR [eax+280]
  00043	f3 0f 11 04 24	 movss	 DWORD PTR [esp], xmm0
  00048	e8 00 00 00 00	 call	 ?camMapToGamen@@YAXMMPAM0@Z ; camMapToGamen
  0004d	83 c4 10	 add	 esp, 16			; 00000010H

; 1620 : 	ptAct->x = (int)(mx+.5);

  00050	f3 0f 5a 45 f8	 cvtss2sd xmm0, DWORD PTR _mx$[ebp]
  00055	f2 0f 58 05 00
	00 00 00	 addsd	 xmm0, QWORD PTR __real@3fe0000000000000
  0005d	f2 0f 2c c0	 cvttsd2si eax, xmm0
  00061	8b 4d 08	 mov	 ecx, DWORD PTR _ptAct$[ebp]
  00064	89 41 18	 mov	 DWORD PTR [ecx+24], eax

; 1621 : 	ptAct->y = (int)(my+.5);

  00067	f3 0f 5a 45 ec	 cvtss2sd xmm0, DWORD PTR _my$[ebp]
  0006c	f2 0f 58 05 00
	00 00 00	 addsd	 xmm0, QWORD PTR __real@3fe0000000000000
  00074	f2 0f 2c c0	 cvttsd2si eax, xmm0
  00078	8b 4d 08	 mov	 ecx, DWORD PTR _ptAct$[ebp]
  0007b	89 41 1c	 mov	 DWORD PTR [ecx+28], eax

; 1622 : 	// ?????????
; 1623 : 	if( pattern( ptAct, ANM_NOMAL_SPD, ANM_NO_LOOP ) == 0 )

  0007e	6a 01		 push	 1
  00080	6a 00		 push	 0
  00082	8b 45 08	 mov	 eax, DWORD PTR _ptAct$[ebp]
  00085	50		 push	 eax
  00086	e8 00 00 00 00	 call	 ?pattern@@YAHPAUaction@@HH@Z ; pattern
  0008b	83 c4 0c	 add	 esp, 12			; 0000000cH
  0008e	85 c0		 test	 eax, eax
  00090	75 4b		 jne	 SHORT $LN2@commmonEff

; 1624 : 		// ??????????????
; 1625 : 		setCharPrio( ptAct->bmpNo, ptAct->x, ptAct->y+1, 0, 0, ptAct->mx, ptAct->my );

  00092	8b 45 08	 mov	 eax, DWORD PTR _ptAct$[ebp]
  00095	51		 push	 ecx
  00096	f3 0f 10 80 1c
	01 00 00	 movss	 xmm0, DWORD PTR [eax+284]
  0009e	f3 0f 11 04 24	 movss	 DWORD PTR [esp], xmm0
  000a3	8b 4d 08	 mov	 ecx, DWORD PTR _ptAct$[ebp]
  000a6	51		 push	 ecx
  000a7	f3 0f 10 81 18
	01 00 00	 movss	 xmm0, DWORD PTR [ecx+280]
  000af	f3 0f 11 04 24	 movss	 DWORD PTR [esp], xmm0
  000b4	6a 00		 push	 0
  000b6	6a 00		 push	 0
  000b8	8b 55 08	 mov	 edx, DWORD PTR _ptAct$[ebp]
  000bb	8b 42 1c	 mov	 eax, DWORD PTR [edx+28]
  000be	83 c0 01	 add	 eax, 1
  000c1	50		 push	 eax
  000c2	8b 4d 08	 mov	 ecx, DWORD PTR _ptAct$[ebp]
  000c5	8b 51 18	 mov	 edx, DWORD PTR [ecx+24]
  000c8	52		 push	 edx
  000c9	8b 45 08	 mov	 eax, DWORD PTR _ptAct$[ebp]
  000cc	8b 88 9c 00 00
	00		 mov	 ecx, DWORD PTR [eax+156]
  000d2	51		 push	 ecx
  000d3	e8 00 00 00 00	 call	 ?setCharPrio@@YAXHHHHHMM@Z ; setCharPrio
  000d8	83 c4 1c	 add	 esp, 28			; 0000001cH

; 1626 : 	else{

  000db	eb 13		 jmp	 SHORT $LN3@commmonEff
$LN2@commmonEff:

; 1627 : 		// ???????????????????
; 1628 : 		DeathAction( ptAct );

  000dd	8b 45 08	 mov	 eax, DWORD PTR _ptAct$[ebp]
  000e0	50		 push	 eax
  000e1	e8 00 00 00 00	 call	 ?DeathAction@@YAXPAUaction@@@Z ; DeathAction
  000e6	83 c4 04	 add	 esp, 4

; 1629 : 		ptAct = NULL;

  000e9	c7 45 08 00 00
	00 00		 mov	 DWORD PTR _ptAct$[ebp], 0
$LN3@commmonEff:

; 1630 : 	}
; 1631 : }

  000f0	52		 push	 edx
  000f1	8b cd		 mov	 ecx, ebp
  000f3	50		 push	 eax
  000f4	8d 15 00 00 00
	00		 lea	 edx, DWORD PTR $LN8@commmonEff
  000fa	e8 00 00 00 00	 call	 @_RTC_CheckStackVars@8
  000ff	58		 pop	 eax
  00100	5a		 pop	 edx
  00101	5f		 pop	 edi
  00102	5e		 pop	 esi
  00103	5b		 pop	 ebx
  00104	81 c4 d8 00 00
	00		 add	 esp, 216		; 000000d8H
  0010a	3b ec		 cmp	 ebp, esp
  0010c	e8 00 00 00 00	 call	 __RTC_CheckEsp
  00111	8b e5		 mov	 esp, ebp
  00113	5d		 pop	 ebp
  00114	c3		 ret	 0
  00115	0f 1f 00	 npad	 3
$LN8@commmonEff:
  00118	02 00 00 00	 DD	 2
  0011c	00 00 00 00	 DD	 $LN7@commmonEff
$LN7@commmonEff:
  00120	f8 ff ff ff	 DD	 -8			; fffffff8H
  00124	04 00 00 00	 DD	 4
  00128	00 00 00 00	 DD	 $LN5@commmonEff
  0012c	ec ff ff ff	 DD	 -20			; ffffffecH
  00130	04 00 00 00	 DD	 4
  00134	00 00 00 00	 DD	 $LN6@commmonEff
$LN6@commmonEff:
  00138	6d		 DB	 109			; 0000006dH
  00139	79		 DB	 121			; 00000079H
  0013a	00		 DB	 0
$LN5@commmonEff:
  0013b	6d		 DB	 109			; 0000006dH
  0013c	78		 DB	 120			; 00000078H
  0013d	00		 DB	 0
?commmonEffectNoLoop@@YAXPAUaction@@@Z ENDP		; commmonEffectNoLoop
_TEXT	ENDS
; Function compile flags: /Odtp /RTCsu /ZI
; File c:\users\administrator\desktop\????? ??\????? ??\client source code\system\character.cpp
;	COMDAT ?CharbubbleRelease@@YAXXZ
_TEXT	SEGMENT
?CharbubbleRelease@@YAXXZ PROC				; CharbubbleRelease, COMDAT

; 1555 : {

  00000	55		 push	 ebp
  00001	8b ec		 mov	 ebp, esp
  00003	81 ec c0 00 00
	00		 sub	 esp, 192		; 000000c0H
  00009	53		 push	 ebx
  0000a	56		 push	 esi
  0000b	57		 push	 edi
  0000c	8d bd 40 ff ff
	ff		 lea	 edi, DWORD PTR [ebp-192]
  00012	b9 30 00 00 00	 mov	 ecx, 48			; 00000030H
  00017	b8 cc cc cc cc	 mov	 eax, -858993460		; ccccccccH
  0001c	f3 ab		 rep stosd

; 1556 : 	if ( popAct != NULL )

  0001e	83 3d 00 00 00
	00 00		 cmp	 DWORD PTR ?popAct@@3PAUaction@@A, 0
  00025	74 18		 je	 SHORT $LN2@Charbubble

; 1557 : 	{
; 1558 : 		DeathAction(popAct);

  00027	a1 00 00 00 00	 mov	 eax, DWORD PTR ?popAct@@3PAUaction@@A
  0002c	50		 push	 eax
  0002d	e8 00 00 00 00	 call	 ?DeathAction@@YAXPAUaction@@@Z ; DeathAction
  00032	83 c4 04	 add	 esp, 4

; 1559 : 		popAct = NULL;

  00035	c7 05 00 00 00
	00 00 00 00 00	 mov	 DWORD PTR ?popAct@@3PAUaction@@A, 0
$LN2@Charbubble:

; 1560 : 	}
; 1561 : 	popflag = false;

  0003f	c6 05 00 00 00
	00 00		 mov	 BYTE PTR ?popflag@@3_NA, 0 ; popflag

; 1562 : 	waittimeflag = false;  

  00046	c6 05 00 00 00
	00 00		 mov	 BYTE PTR ?waittimeflag@@3_NA, 0 ; waittimeflag

; 1563 : }

  0004d	5f		 pop	 edi
  0004e	5e		 pop	 esi
  0004f	5b		 pop	 ebx
  00050	81 c4 c0 00 00
	00		 add	 esp, 192		; 000000c0H
  00056	3b ec		 cmp	 ebp, esp
  00058	e8 00 00 00 00	 call	 __RTC_CheckEsp
  0005d	8b e5		 mov	 esp, ebp
  0005f	5d		 pop	 ebp
  00060	c3		 ret	 0
?CharbubbleRelease@@YAXXZ ENDP				; CharbubbleRelease
_TEXT	ENDS
; Function compile flags: /Odtp /RTCsu /ZI
; File c:\users\administrator\desktop\????? ??\????? ??\client source code\system\character.cpp
;	COMDAT ?waterAniProc@@YAXPAUaction@@@Z
_TEXT	SEGMENT
$T1 = -317						; size = 1
_hh$2 = -116						; size = 2
_ww$3 = -104						; size = 2
_yy$4 = -92						; size = 2
_xx$5 = -80						; size = 2
_pFlag$ = -68						; size = 4
_ext$ = -56						; size = 4
_no$ = -44						; size = 4
_animLoop$ = -32					; size = 4
_my$ = -20						; size = 4
_mx$ = -8						; size = 4
_ptAct$ = 8						; size = 4
?waterAniProc@@YAXPAUaction@@@Z PROC			; waterAniProc, COMDAT

; 202  : {

  00000	55		 push	 ebp
  00001	8b ec		 mov	 ebp, esp
  00003	81 ec 44 01 00
	00		 sub	 esp, 324		; 00000144H
  00009	53		 push	 ebx
  0000a	56		 push	 esi
  0000b	57		 push	 edi
  0000c	8d bd bc fe ff
	ff		 lea	 edi, DWORD PTR [ebp-324]
  00012	b9 51 00 00 00	 mov	 ecx, 81			; 00000051H
  00017	b8 cc cc cc cc	 mov	 eax, -858993460		; ccccccccH
  0001c	f3 ab		 rep stosd
  0001e	c6 85 c3 fe ff
	ff 00		 mov	 BYTE PTR $T1[ebp], 0

; 203  : 	float mx, my;
; 204  : 	int animLoop;
; 205  : 	int no;
; 206  : 	CHAREXTRA *ext;
; 207  : 	int pFlag = 0;

  00025	c7 45 bc 00 00
	00 00		 mov	 DWORD PTR _pFlag$[ebp], 0

; 208  : 	// ?h??
; 209  : 	// PC???????q??h??
; 210  : 	// PC?????h????V???????h??
; 211  : 	if( pc.ptAct != ptAct ){

  0002c	a1 ec 50 00 00	 mov	 eax, DWORD PTR ?pc@@3UPC@@A+20716
  00031	3b 45 08	 cmp	 eax, DWORD PTR _ptAct$[ebp]
  00034	0f 84 c6 01 00
	00		 je	 $LN5@waterAniPr

; 212  : 		ext = (CHAREXTRA *)ptAct->pYobi;

  0003a	8b 45 08	 mov	 eax, DWORD PTR _ptAct$[ebp]
  0003d	8b 48 0c	 mov	 ecx, DWORD PTR [eax+12]
  00040	89 4d c8	 mov	 DWORD PTR _ext$[ebp], ecx

; 213  : 		no = ext->charObjTblId;

  00043	c6 85 c3 fe ff
	ff 01		 mov	 BYTE PTR $T1[ebp], 1
  0004a	8b 45 c8	 mov	 eax, DWORD PTR _ext$[ebp]
  0004d	8b 08		 mov	 ecx, DWORD PTR [eax]
  0004f	89 4d d4	 mov	 DWORD PTR _no$[ebp], ecx

; 214  : 		// ?????V??????????????
; 215  : 		if( (charObj[no].status & CHR_STATUS_PARTY) == 0 ){

  00052	80 bd c3 fe ff
	ff 00		 cmp	 BYTE PTR $T1[ebp], 0
  00059	75 0d		 jne	 SHORT $LN26@waterAniPr
  0005b	68 00 00 00 00	 push	 OFFSET $LN27@waterAniPr
  00060	e8 00 00 00 00	 call	 __RTC_UninitUse
  00065	83 c4 04	 add	 esp, 4
$LN26@waterAniPr:
  00068	69 45 d4 0c 01
	00 00		 imul	 eax, DWORD PTR _no$[ebp], 268
  0006f	8b 88 2c 00 00
	00		 mov	 ecx, DWORD PTR ?charObj@@3PAUCHAROBJ@@A[eax+44]
  00075	81 e1 00 02 00
	00		 and	 ecx, 512		; 00000200H
  0007b	75 15		 jne	 SHORT $LN3@waterAniPr

; 216  : 			charMove( ptAct );

  0007d	8b 45 08	 mov	 eax, DWORD PTR _ptAct$[ebp]
  00080	50		 push	 eax
  00081	e8 00 00 00 00	 call	 ?charMove@@YAXPAUaction@@@Z ; charMove
  00086	83 c4 04	 add	 esp, 4

; 217  : 			pFlag = 0;

  00089	c7 45 bc 00 00
	00 00		 mov	 DWORD PTR _pFlag$[ebp], 0

; 218  : 		}else

  00090	eb 07		 jmp	 SHORT $LN4@waterAniPr
$LN3@waterAniPr:

; 219  : 			pFlag = 1;

  00092	c7 45 bc 01 00
	00 00		 mov	 DWORD PTR _pFlag$[ebp], 1
$LN4@waterAniPr:

; 220  : 		if( ptAct->vx == 0 && ptAct->vy == 0 && charObj[no].stockDir != -1
; 221  : 		 && charObj[no].stockDirX == ptAct->gx && charObj[no].stockDirY == ptAct->gy ){

  00099	8b 45 08	 mov	 eax, DWORD PTR _ptAct$[ebp]
  0009c	f3 0f 10 80 20
	01 00 00	 movss	 xmm0, DWORD PTR [eax+288]
  000a4	0f 2e 05 00 00
	00 00		 ucomiss xmm0, DWORD PTR __real@00000000
  000ab	9f		 lahf
  000ac	f6 c4 44	 test	 ah, 68			; 00000044H
  000af	0f 8a 4b 01 00
	00		 jp	 $LN5@waterAniPr
  000b5	8b 45 08	 mov	 eax, DWORD PTR _ptAct$[ebp]
  000b8	f3 0f 10 80 24
	01 00 00	 movss	 xmm0, DWORD PTR [eax+292]
  000c0	0f 2e 05 00 00
	00 00		 ucomiss xmm0, DWORD PTR __real@00000000
  000c7	9f		 lahf
  000c8	f6 c4 44	 test	 ah, 68			; 00000044H
  000cb	0f 8a 2f 01 00
	00		 jp	 $LN5@waterAniPr
  000d1	80 bd c3 fe ff
	ff 00		 cmp	 BYTE PTR $T1[ebp], 0
  000d8	75 0d		 jne	 SHORT $LN28@waterAniPr
  000da	68 00 00 00 00	 push	 OFFSET $LN27@waterAniPr
  000df	e8 00 00 00 00	 call	 __RTC_UninitUse
  000e4	83 c4 04	 add	 esp, 4
$LN28@waterAniPr:
  000e7	69 45 d4 0c 01
	00 00		 imul	 eax, DWORD PTR _no$[ebp], 268
  000ee	83 b8 1c 00 00
	00 ff		 cmp	 DWORD PTR ?charObj@@3PAUCHAROBJ@@A[eax+28], -1
  000f5	0f 84 05 01 00
	00		 je	 $LN5@waterAniPr
  000fb	80 bd c3 fe ff
	ff 00		 cmp	 BYTE PTR $T1[ebp], 0
  00102	75 0d		 jne	 SHORT $LN29@waterAniPr
  00104	68 00 00 00 00	 push	 OFFSET $LN27@waterAniPr
  00109	e8 00 00 00 00	 call	 __RTC_UninitUse
  0010e	83 c4 04	 add	 esp, 4
$LN29@waterAniPr:
  00111	69 45 d4 0c 01
	00 00		 imul	 eax, DWORD PTR _no$[ebp], 268
  00118	8b 4d 08	 mov	 ecx, DWORD PTR _ptAct$[ebp]
  0011b	8b 90 20 00 00
	00		 mov	 edx, DWORD PTR ?charObj@@3PAUCHAROBJ@@A[eax+32]
  00121	3b 91 b4 00 00
	00		 cmp	 edx, DWORD PTR [ecx+180]
  00127	0f 85 d3 00 00
	00		 jne	 $LN5@waterAniPr
  0012d	80 bd c3 fe ff
	ff 00		 cmp	 BYTE PTR $T1[ebp], 0
  00134	75 0d		 jne	 SHORT $LN30@waterAniPr
  00136	68 00 00 00 00	 push	 OFFSET $LN27@waterAniPr
  0013b	e8 00 00 00 00	 call	 __RTC_UninitUse
  00140	83 c4 04	 add	 esp, 4
$LN30@waterAniPr:
  00143	69 45 d4 0c 01
	00 00		 imul	 eax, DWORD PTR _no$[ebp], 268
  0014a	8b 4d 08	 mov	 ecx, DWORD PTR _ptAct$[ebp]
  0014d	8b 90 24 00 00
	00		 mov	 edx, DWORD PTR ?charObj@@3PAUCHAROBJ@@A[eax+36]
  00153	3b 91 b8 00 00
	00		 cmp	 edx, DWORD PTR [ecx+184]
  00159	0f 85 a1 00 00
	00		 jne	 $LN5@waterAniPr

; 222  : 			ptAct->anim_ang = charObj[no].stockDir;

  0015f	80 bd c3 fe ff
	ff 00		 cmp	 BYTE PTR $T1[ebp], 0
  00166	75 0d		 jne	 SHORT $LN31@waterAniPr
  00168	68 00 00 00 00	 push	 OFFSET $LN27@waterAniPr
  0016d	e8 00 00 00 00	 call	 __RTC_UninitUse
  00172	83 c4 04	 add	 esp, 4
$LN31@waterAniPr:
  00175	69 45 d4 0c 01
	00 00		 imul	 eax, DWORD PTR _no$[ebp], 268
  0017c	8b 4d 08	 mov	 ecx, DWORD PTR _ptAct$[ebp]
  0017f	8b 90 1c 00 00
	00		 mov	 edx, DWORD PTR ?charObj@@3PAUCHAROBJ@@A[eax+28]
  00185	89 91 54 01 00
	00		 mov	 DWORD PTR [ecx+340], edx

; 223  : 			charObj[no].stockDir = -1;

  0018b	80 bd c3 fe ff
	ff 00		 cmp	 BYTE PTR $T1[ebp], 0
  00192	75 0d		 jne	 SHORT $LN32@waterAniPr
  00194	68 00 00 00 00	 push	 OFFSET $LN27@waterAniPr
  00199	e8 00 00 00 00	 call	 __RTC_UninitUse
  0019e	83 c4 04	 add	 esp, 4
$LN32@waterAniPr:
  001a1	69 45 d4 0c 01
	00 00		 imul	 eax, DWORD PTR _no$[ebp], 268
  001a8	c7 80 1c 00 00
	00 ff ff ff ff	 mov	 DWORD PTR ?charObj@@3PAUCHAROBJ@@A[eax+28], -1

; 224  : 			charObj[no].stockDirX = 0;

  001b2	80 bd c3 fe ff
	ff 00		 cmp	 BYTE PTR $T1[ebp], 0
  001b9	75 0d		 jne	 SHORT $LN33@waterAniPr
  001bb	68 00 00 00 00	 push	 OFFSET $LN27@waterAniPr
  001c0	e8 00 00 00 00	 call	 __RTC_UninitUse
  001c5	83 c4 04	 add	 esp, 4
$LN33@waterAniPr:
  001c8	69 45 d4 0c 01
	00 00		 imul	 eax, DWORD PTR _no$[ebp], 268
  001cf	c7 80 20 00 00
	00 00 00 00 00	 mov	 DWORD PTR ?charObj@@3PAUCHAROBJ@@A[eax+32], 0

; 225  : 			charObj[no].stockDirY = 0;

  001d9	80 bd c3 fe ff
	ff 00		 cmp	 BYTE PTR $T1[ebp], 0
  001e0	75 0d		 jne	 SHORT $LN34@waterAniPr
  001e2	68 00 00 00 00	 push	 OFFSET $LN27@waterAniPr
  001e7	e8 00 00 00 00	 call	 __RTC_UninitUse
  001ec	83 c4 04	 add	 esp, 4
$LN34@waterAniPr:
  001ef	69 45 d4 0c 01
	00 00		 imul	 eax, DWORD PTR _no$[ebp], 268
  001f6	c7 80 24 00 00
	00 00 00 00 00	 mov	 DWORD PTR ?charObj@@3PAUCHAROBJ@@A[eax+36], 0
$LN5@waterAniPr:

; 226  : 		}
; 227  : 	}
; 228  : 	// ??t
; 229  : 	camMapToGamen( ptAct->mx, ptAct->my, &mx, &my );

  00200	8d 45 ec	 lea	 eax, DWORD PTR _my$[ebp]
  00203	50		 push	 eax
  00204	8d 4d f8	 lea	 ecx, DWORD PTR _mx$[ebp]
  00207	51		 push	 ecx
  00208	8b 55 08	 mov	 edx, DWORD PTR _ptAct$[ebp]
  0020b	51		 push	 ecx
  0020c	f3 0f 10 82 1c
	01 00 00	 movss	 xmm0, DWORD PTR [edx+284]
  00214	f3 0f 11 04 24	 movss	 DWORD PTR [esp], xmm0
  00219	8b 45 08	 mov	 eax, DWORD PTR _ptAct$[ebp]
  0021c	51		 push	 ecx
  0021d	f3 0f 10 80 18
	01 00 00	 movss	 xmm0, DWORD PTR [eax+280]
  00225	f3 0f 11 04 24	 movss	 DWORD PTR [esp], xmm0
  0022a	e8 00 00 00 00	 call	 ?camMapToGamen@@YAXMMPAM0@Z ; camMapToGamen
  0022f	83 c4 10	 add	 esp, 16			; 00000010H

; 230  : 	ptAct->x = (int)(mx+.5);

  00232	f3 0f 5a 45 f8	 cvtss2sd xmm0, DWORD PTR _mx$[ebp]
  00237	f2 0f 58 05 00
	00 00 00	 addsd	 xmm0, QWORD PTR __real@3fe0000000000000
  0023f	f2 0f 2c c0	 cvttsd2si eax, xmm0
  00243	8b 4d 08	 mov	 ecx, DWORD PTR _ptAct$[ebp]
  00246	89 41 18	 mov	 DWORD PTR [ecx+24], eax

; 231  : 	ptAct->y = (int)(my+.5);

  00249	f3 0f 5a 45 ec	 cvtss2sd xmm0, DWORD PTR _my$[ebp]
  0024e	f2 0f 58 05 00
	00 00 00	 addsd	 xmm0, QWORD PTR __real@3fe0000000000000
  00256	f2 0f 2c c0	 cvttsd2si eax, xmm0
  0025a	8b 4d 08	 mov	 ecx, DWORD PTR _ptAct$[ebp]
  0025d	89 41 1c	 mov	 DWORD PTR [ecx+28], eax

; 232  : 	// ??????????
; 233  : 	//  不??掉人物状态会被复制到其他ACTION
; 234  : 	//	drawCharStatus( ptAct );
; 235  : 	// ?????????
; 236  : 	if( ptAct->anim_no == ANIM_HAND
; 237  : 	 || ptAct->anim_no == ANIM_HAPPY
; 238  : 	 || ptAct->anim_no == ANIM_ANGRY
; 239  : 	 || ptAct->anim_no == ANIM_SAD
; 240  : 	 || ptAct->anim_no == ANIM_WALK
; 241  : 	 || ptAct->anim_no == ANIM_STAND
; 242  : 	 || ptAct->anim_no == ANIM_NOD )

  00260	8b 45 08	 mov	 eax, DWORD PTR _ptAct$[ebp]
  00263	83 b8 4c 01 00
	00 06		 cmp	 DWORD PTR [eax+332], 6
  0026a	74 48		 je	 SHORT $LN8@waterAniPr
  0026c	8b 45 08	 mov	 eax, DWORD PTR _ptAct$[ebp]
  0026f	83 b8 4c 01 00
	00 07		 cmp	 DWORD PTR [eax+332], 7
  00276	74 3c		 je	 SHORT $LN8@waterAniPr
  00278	8b 45 08	 mov	 eax, DWORD PTR _ptAct$[ebp]
  0027b	83 b8 4c 01 00
	00 08		 cmp	 DWORD PTR [eax+332], 8
  00282	74 30		 je	 SHORT $LN8@waterAniPr
  00284	8b 45 08	 mov	 eax, DWORD PTR _ptAct$[ebp]
  00287	83 b8 4c 01 00
	00 09		 cmp	 DWORD PTR [eax+332], 9
  0028e	74 24		 je	 SHORT $LN8@waterAniPr
  00290	8b 45 08	 mov	 eax, DWORD PTR _ptAct$[ebp]
  00293	83 b8 4c 01 00
	00 04		 cmp	 DWORD PTR [eax+332], 4
  0029a	74 18		 je	 SHORT $LN8@waterAniPr
  0029c	8b 45 08	 mov	 eax, DWORD PTR _ptAct$[ebp]
  0029f	83 b8 4c 01 00
	00 03		 cmp	 DWORD PTR [eax+332], 3
  002a6	74 0c		 je	 SHORT $LN8@waterAniPr
  002a8	8b 45 08	 mov	 eax, DWORD PTR _ptAct$[ebp]
  002ab	83 b8 4c 01 00
	00 0b		 cmp	 DWORD PTR [eax+332], 11	; 0000000bH
  002b2	75 09		 jne	 SHORT $LN6@waterAniPr
$LN8@waterAniPr:

; 243  : 		animLoop = ANM_LOOP;

  002b4	c7 45 e0 00 00
	00 00		 mov	 DWORD PTR _animLoop$[ebp], 0

; 244  : 	else

  002bb	eb 07		 jmp	 SHORT $LN7@waterAniPr
$LN6@waterAniPr:

; 245  : 		animLoop = ANM_NO_LOOP;

  002bd	c7 45 e0 01 00
	00 00		 mov	 DWORD PTR _animLoop$[ebp], 1
$LN7@waterAniPr:

; 246  : 	pattern( ptAct, ANM_NOMAL_SPD, animLoop );

  002c4	8b 45 e0	 mov	 eax, DWORD PTR _animLoop$[ebp]
  002c7	50		 push	 eax
  002c8	6a 00		 push	 0
  002ca	8b 4d 08	 mov	 ecx, DWORD PTR _ptAct$[ebp]
  002cd	51		 push	 ecx
  002ce	e8 00 00 00 00	 call	 ?pattern@@YAHPAUaction@@HH@Z ; pattern
  002d3	83 c4 0c	 add	 esp, 12			; 0000000cH

; 247  : 	if( pFlag ){

  002d6	83 7d bc 00	 cmp	 DWORD PTR _pFlag$[ebp], 0
  002da	74 48		 je	 SHORT $LN9@waterAniPr

; 248  : 		if( nowSpdRate >= 1.2F )

  002dc	f3 0f 10 05 00
	00 00 00	 movss	 xmm0, DWORD PTR ?nowSpdRate@@3MA
  002e4	0f 2f 05 00 00
	00 00		 comiss	 xmm0, DWORD PTR __real@3f99999a
  002eb	72 12		 jb	 SHORT $LN11@waterAniPr

; 249  : 			pattern( ptAct, ANM_NOMAL_SPD, animLoop );

  002ed	8b 45 e0	 mov	 eax, DWORD PTR _animLoop$[ebp]
  002f0	50		 push	 eax
  002f1	6a 00		 push	 0
  002f3	8b 4d 08	 mov	 ecx, DWORD PTR _ptAct$[ebp]
  002f6	51		 push	 ecx
  002f7	e8 00 00 00 00	 call	 ?pattern@@YAHPAUaction@@HH@Z ; pattern
  002fc	83 c4 0c	 add	 esp, 12			; 0000000cH
$LN11@waterAniPr:

; 250  : 		if( nowSpdRate >= 1.6F )

  002ff	f3 0f 10 05 00
	00 00 00	 movss	 xmm0, DWORD PTR ?nowSpdRate@@3MA
  00307	0f 2f 05 00 00
	00 00		 comiss	 xmm0, DWORD PTR __real@3fcccccd
  0030e	72 12		 jb	 SHORT $LN12@waterAniPr

; 251  : 			pattern( ptAct, ANM_NOMAL_SPD, animLoop );

  00310	8b 45 e0	 mov	 eax, DWORD PTR _animLoop$[ebp]
  00313	50		 push	 eax
  00314	6a 00		 push	 0
  00316	8b 4d 08	 mov	 ecx, DWORD PTR _ptAct$[ebp]
  00319	51		 push	 ecx
  0031a	e8 00 00 00 00	 call	 ?pattern@@YAHPAUaction@@HH@Z ; pattern
  0031f	83 c4 0c	 add	 esp, 12			; 0000000cH
$LN12@waterAniPr:

; 252  : 	}else{

  00322	eb 42		 jmp	 SHORT $LN14@waterAniPr
$LN9@waterAniPr:

; 253  : 		if( ptAct->bufCount >= 2 )

  00324	8b 45 08	 mov	 eax, DWORD PTR _ptAct$[ebp]
  00327	0f bf 88 14 01
	00 00		 movsx	 ecx, WORD PTR [eax+276]
  0032e	83 f9 02	 cmp	 ecx, 2
  00331	7c 12		 jl	 SHORT $LN13@waterAniPr

; 254  : 			pattern( ptAct, ANM_NOMAL_SPD, animLoop );

  00333	8b 45 e0	 mov	 eax, DWORD PTR _animLoop$[ebp]
  00336	50		 push	 eax
  00337	6a 00		 push	 0
  00339	8b 4d 08	 mov	 ecx, DWORD PTR _ptAct$[ebp]
  0033c	51		 push	 ecx
  0033d	e8 00 00 00 00	 call	 ?pattern@@YAHPAUaction@@HH@Z ; pattern
  00342	83 c4 0c	 add	 esp, 12			; 0000000cH
$LN13@waterAniPr:

; 255  : 		if( ptAct->bufCount >= 4 )

  00345	8b 45 08	 mov	 eax, DWORD PTR _ptAct$[ebp]
  00348	0f bf 88 14 01
	00 00		 movsx	 ecx, WORD PTR [eax+276]
  0034f	83 f9 04	 cmp	 ecx, 4
  00352	7c 12		 jl	 SHORT $LN14@waterAniPr

; 256  : 			pattern( ptAct, ANM_NOMAL_SPD, animLoop );

  00354	8b 45 e0	 mov	 eax, DWORD PTR _animLoop$[ebp]
  00357	50		 push	 eax
  00358	6a 00		 push	 0
  0035a	8b 4d 08	 mov	 ecx, DWORD PTR _ptAct$[ebp]
  0035d	51		 push	 ecx
  0035e	e8 00 00 00 00	 call	 ?pattern@@YAHPAUaction@@HH@Z ; pattern
  00363	83 c4 0c	 add	 esp, 12			; 0000000cH
$LN14@waterAniPr:

; 257  : 	}
; 258  : 	if( pc.ptAct != ptAct ){

  00366	a1 ec 50 00 00	 mov	 eax, DWORD PTR ?pc@@3UPC@@A+20716
  0036b	3b 45 08	 cmp	 eax, DWORD PTR _ptAct$[ebp]
  0036e	0f 84 e8 00 00
	00		 je	 $LN17@waterAniPr

; 259  : 		if( charObj[no].newFoundFlag ){

  00374	80 bd c3 fe ff
	ff 00		 cmp	 BYTE PTR $T1[ebp], 0
  0037b	75 0d		 jne	 SHORT $LN35@waterAniPr
  0037d	68 00 00 00 00	 push	 OFFSET $LN27@waterAniPr
  00382	e8 00 00 00 00	 call	 __RTC_UninitUse
  00387	83 c4 04	 add	 esp, 4
$LN35@waterAniPr:
  0038a	69 45 d4 0c 01
	00 00		 imul	 eax, DWORD PTR _no$[ebp], 268
  00391	0f bf 88 b8 00
	00 00		 movsx	 ecx, WORD PTR ?charObj@@3PAUCHAROBJ@@A[eax+184]
  00398	85 c9		 test	 ecx, ecx
  0039a	0f 84 bc 00 00
	00		 je	 $LN17@waterAniPr

; 260  : 			S2 xx, yy, ww, hh;
; 261  : 			// ???????
; 262  : 			realGetPos( ptAct->bmpNo, &xx, &yy );

  003a0	8d 45 a4	 lea	 eax, DWORD PTR _yy$4[ebp]
  003a3	50		 push	 eax
  003a4	8d 4d b0	 lea	 ecx, DWORD PTR _xx$5[ebp]
  003a7	51		 push	 ecx
  003a8	8b 55 08	 mov	 edx, DWORD PTR _ptAct$[ebp]
  003ab	8b 82 9c 00 00
	00		 mov	 eax, DWORD PTR [edx+156]
  003b1	50		 push	 eax
  003b2	e8 00 00 00 00	 call	 ?realGetPos@@YAHKPAF0@Z	; realGetPos
  003b7	83 c4 0c	 add	 esp, 12			; 0000000cH

; 263  : 			realGetWH( ptAct->bmpNo, &ww, &hh );

  003ba	8d 45 8c	 lea	 eax, DWORD PTR _hh$2[ebp]
  003bd	50		 push	 eax
  003be	8d 4d 98	 lea	 ecx, DWORD PTR _ww$3[ebp]
  003c1	51		 push	 ecx
  003c2	8b 55 08	 mov	 edx, DWORD PTR _ptAct$[ebp]
  003c5	8b 82 9c 00 00
	00		 mov	 eax, DWORD PTR [edx+156]
  003cb	50		 push	 eax
  003cc	e8 00 00 00 00	 call	 ?realGetWH@@YAHKPAF0@Z	; realGetWH
  003d1	83 c4 0c	 add	 esp, 12			; 0000000cH

; 264  : 			xx += ptAct->x;

  003d4	0f bf 45 b0	 movsx	 eax, WORD PTR _xx$5[ebp]
  003d8	8b 4d 08	 mov	 ecx, DWORD PTR _ptAct$[ebp]
  003db	03 41 18	 add	 eax, DWORD PTR [ecx+24]
  003de	66 89 45 b0	 mov	 WORD PTR _xx$5[ebp], ax

; 265  : 			yy += ptAct->y;

  003e2	0f bf 45 a4	 movsx	 eax, WORD PTR _yy$4[ebp]
  003e6	8b 4d 08	 mov	 ecx, DWORD PTR _ptAct$[ebp]
  003e9	03 41 1c	 add	 eax, DWORD PTR [ecx+28]
  003ec	66 89 45 a4	 mov	 WORD PTR _yy$4[ebp], ax

; 266  : 			if( 0 <= xx && xx+ww <= DEF_APPSIZEX
; 267  : 			 && 0 <= yy && yy+hh <= DEF_APPSIZEY ){

  003f0	0f bf 45 b0	 movsx	 eax, WORD PTR _xx$5[ebp]
  003f4	85 c0		 test	 eax, eax
  003f6	7c 64		 jl	 SHORT $LN17@waterAniPr
  003f8	0f bf 45 b0	 movsx	 eax, WORD PTR _xx$5[ebp]
  003fc	0f bf 4d 98	 movsx	 ecx, WORD PTR _ww$3[ebp]
  00400	03 c1		 add	 eax, ecx
  00402	3b 05 00 00 00
	00		 cmp	 eax, DWORD PTR ?DEF_APPSIZEX@@3HA ; DEF_APPSIZEX
  00408	7f 52		 jg	 SHORT $LN17@waterAniPr
  0040a	0f bf 45 a4	 movsx	 eax, WORD PTR _yy$4[ebp]
  0040e	85 c0		 test	 eax, eax
  00410	7c 4a		 jl	 SHORT $LN17@waterAniPr
  00412	0f bf 45 a4	 movsx	 eax, WORD PTR _yy$4[ebp]
  00416	0f bf 4d 8c	 movsx	 ecx, WORD PTR _hh$2[ebp]
  0041a	03 c1		 add	 eax, ecx
  0041c	3b 05 00 00 00
	00		 cmp	 eax, DWORD PTR ?DEF_APPSIZEY@@3HA ; DEF_APPSIZEY
  00422	7f 38		 jg	 SHORT $LN17@waterAniPr

; 268  : 				CheckNewPet( ptAct->anim_chr_no );

  00424	8b 45 08	 mov	 eax, DWORD PTR _ptAct$[ebp]
  00427	8b 88 44 01 00
	00		 mov	 ecx, DWORD PTR [eax+324]
  0042d	51		 push	 ecx
  0042e	e8 00 00 00 00	 call	 ?CheckNewPet@@YAXH@Z	; CheckNewPet
  00433	83 c4 04	 add	 esp, 4

; 269  : 				charObj[no].newFoundFlag = 0;

  00436	80 bd c3 fe ff
	ff 00		 cmp	 BYTE PTR $T1[ebp], 0
  0043d	75 0d		 jne	 SHORT $LN36@waterAniPr
  0043f	68 00 00 00 00	 push	 OFFSET $LN27@waterAniPr
  00444	e8 00 00 00 00	 call	 __RTC_UninitUse
  00449	83 c4 04	 add	 esp, 4
$LN36@waterAniPr:
  0044c	69 45 d4 0c 01
	00 00		 imul	 eax, DWORD PTR _no$[ebp], 268
  00453	33 c9		 xor	 ecx, ecx
  00455	66 89 88 b8 00
	00 00		 mov	 WORD PTR ?charObj@@3PAUCHAROBJ@@A[eax+184], cx
$LN17@waterAniPr:

; 270  : 			}
; 271  : 		}
; 272  : 	}
; 273  : 	if( 20000 <= ptAct->anim_chr_no && ptAct->anim_chr_no <= 24999 ){

  0045c	8b 45 08	 mov	 eax, DWORD PTR _ptAct$[ebp]
  0045f	81 b8 44 01 00
	00 20 4e 00 00	 cmp	 DWORD PTR [eax+324], 20000 ; 00004e20H
  00469	0f 8c 40 01 00
	00		 jl	 $LN18@waterAniPr
  0046f	8b 45 08	 mov	 eax, DWORD PTR _ptAct$[ebp]
  00472	81 b8 44 01 00
	00 a7 61 00 00	 cmp	 DWORD PTR [eax+324], 24999 ; 000061a7H
  0047c	0f 8f 2d 01 00
	00		 jg	 $LN18@waterAniPr

; 274  : 		// ????
; 275  : 		if( pc.ptAct != ptAct ){

  00482	a1 ec 50 00 00	 mov	 eax, DWORD PTR ?pc@@3UPC@@A+20716
  00487	3b 45 08	 cmp	 eax, DWORD PTR _ptAct$[ebp]
  0048a	74 7d		 je	 SHORT $LN21@waterAniPr

; 276  : 			// d??????????
; 277  : 			if( ptAct->gx < nowGx-16 || nowGx+16 < ptAct->gx
; 278  : 			 || ptAct->gy < nowGy-16 || nowGy+16 < ptAct->gy ){

  0048c	a1 00 00 00 00	 mov	 eax, DWORD PTR ?nowGx@@3HA ; nowGx
  00491	83 e8 10	 sub	 eax, 16			; 00000010H
  00494	8b 4d 08	 mov	 ecx, DWORD PTR _ptAct$[ebp]
  00497	39 81 b4 00 00
	00		 cmp	 DWORD PTR [ecx+180], eax
  0049d	7c 39		 jl	 SHORT $LN22@waterAniPr
  0049f	a1 00 00 00 00	 mov	 eax, DWORD PTR ?nowGx@@3HA ; nowGx
  004a4	83 c0 10	 add	 eax, 16			; 00000010H
  004a7	8b 4d 08	 mov	 ecx, DWORD PTR _ptAct$[ebp]
  004aa	3b 81 b4 00 00
	00		 cmp	 eax, DWORD PTR [ecx+180]
  004b0	7c 26		 jl	 SHORT $LN22@waterAniPr
  004b2	a1 00 00 00 00	 mov	 eax, DWORD PTR ?nowGy@@3HA ; nowGy
  004b7	83 e8 10	 sub	 eax, 16			; 00000010H
  004ba	8b 4d 08	 mov	 ecx, DWORD PTR _ptAct$[ebp]
  004bd	39 81 b8 00 00
	00		 cmp	 DWORD PTR [ecx+184], eax
  004c3	7c 13		 jl	 SHORT $LN22@waterAniPr
  004c5	a1 00 00 00 00	 mov	 eax, DWORD PTR ?nowGy@@3HA ; nowGy
  004ca	83 c0 10	 add	 eax, 16			; 00000010H
  004cd	8b 4d 08	 mov	 ecx, DWORD PTR _ptAct$[ebp]
  004d0	3b 81 b8 00 00
	00		 cmp	 eax, DWORD PTR [ecx+184]
  004d6	7d 31		 jge	 SHORT $LN21@waterAniPr
$LN22@waterAniPr:

; 279  : 				delCharObj( charObj[no].id );

  004d8	80 bd c3 fe ff
	ff 00		 cmp	 BYTE PTR $T1[ebp], 0
  004df	75 0d		 jne	 SHORT $LN37@waterAniPr
  004e1	68 00 00 00 00	 push	 OFFSET $LN27@waterAniPr
  004e6	e8 00 00 00 00	 call	 __RTC_UninitUse
  004eb	83 c4 04	 add	 esp, 4
$LN37@waterAniPr:
  004ee	69 45 d4 0c 01
	00 00		 imul	 eax, DWORD PTR _no$[ebp], 268
  004f5	8b 88 04 00 00
	00		 mov	 ecx, DWORD PTR ?charObj@@3PAUCHAROBJ@@A[eax+4]
  004fb	51		 push	 ecx
  004fc	e8 00 00 00 00	 call	 ?delCharObj@@YAXH@Z	; delCharObj
  00501	83 c4 04	 add	 esp, 4

; 280  : 				return;

  00504	e9 f4 00 00 00	 jmp	 $LN1@waterAniPr
$LN21@waterAniPr:

; 281  : 			}
; 282  : 		}
; 283  : 		// i??t????????
; 284  : 		if( !itemOverlapCheck( ptAct->bmpNo, ptAct->gx, ptAct->gy ) ){

  00509	8b 45 08	 mov	 eax, DWORD PTR _ptAct$[ebp]
  0050c	8b 88 b8 00 00
	00		 mov	 ecx, DWORD PTR [eax+184]
  00512	51		 push	 ecx
  00513	8b 55 08	 mov	 edx, DWORD PTR _ptAct$[ebp]
  00516	8b 82 b4 00 00
	00		 mov	 eax, DWORD PTR [edx+180]
  0051c	50		 push	 eax
  0051d	8b 4d 08	 mov	 ecx, DWORD PTR _ptAct$[ebp]
  00520	8b 91 9c 00 00
	00		 mov	 edx, DWORD PTR [ecx+156]
  00526	52		 push	 edx
  00527	e8 00 00 00 00	 call	 ?itemOverlapCheck@@YAHIHH@Z ; itemOverlapCheck
  0052c	83 c4 0c	 add	 esp, 12			; 0000000cH
  0052f	85 c0		 test	 eax, eax
  00531	75 65		 jne	 SHORT $LN23@waterAniPr

; 285  : 			// ??????????????
; 286  : #ifdef _SPECIALSPACEANIM_FIX  //ROG ADD 修改图层
; 287  : 			setPartsPrio( ptAct->bmpNo, ptAct->x, ptAct->y, 0, 0, ptAct->mx, ptAct->my,ptAct->dispPrio);

  00533	8b 45 08	 mov	 eax, DWORD PTR _ptAct$[ebp]
  00536	0f b6 48 15	 movzx	 ecx, BYTE PTR [eax+21]
  0053a	51		 push	 ecx
  0053b	8b 55 08	 mov	 edx, DWORD PTR _ptAct$[ebp]
  0053e	51		 push	 ecx
  0053f	f3 0f 10 82 1c
	01 00 00	 movss	 xmm0, DWORD PTR [edx+284]
  00547	f3 0f 11 04 24	 movss	 DWORD PTR [esp], xmm0
  0054c	8b 45 08	 mov	 eax, DWORD PTR _ptAct$[ebp]
  0054f	51		 push	 ecx
  00550	f3 0f 10 80 18
	01 00 00	 movss	 xmm0, DWORD PTR [eax+280]
  00558	f3 0f 11 04 24	 movss	 DWORD PTR [esp], xmm0
  0055d	6a 00		 push	 0
  0055f	6a 00		 push	 0
  00561	8b 4d 08	 mov	 ecx, DWORD PTR _ptAct$[ebp]
  00564	8b 51 1c	 mov	 edx, DWORD PTR [ecx+28]
  00567	52		 push	 edx
  00568	8b 45 08	 mov	 eax, DWORD PTR _ptAct$[ebp]
  0056b	8b 48 18	 mov	 ecx, DWORD PTR [eax+24]
  0056e	51		 push	 ecx
  0056f	8b 55 08	 mov	 edx, DWORD PTR _ptAct$[ebp]
  00572	8b 82 9c 00 00
	00		 mov	 eax, DWORD PTR [edx+156]
  00578	50		 push	 eax
  00579	e8 00 00 00 00	 call	 ?setPartsPrio@@YAXHHHHHMMH@Z ; setPartsPrio
  0057e	83 c4 20	 add	 esp, 32			; 00000020H

; 288  : #else
; 289  : 			setCharPrio( ptAct->bmpNo, ptAct->x, ptAct->y, 0, 0, ptAct->mx, ptAct->my );
; 290  : #endif
; 291  : 			ptAct->atr &= (~ACT_ATR_HIDE);

  00581	8b 45 08	 mov	 eax, DWORD PTR _ptAct$[ebp]
  00584	8b 88 a4 00 00
	00		 mov	 ecx, DWORD PTR [eax+164]
  0058a	83 e1 fd	 and	 ecx, -3			; fffffffdH
  0058d	8b 55 08	 mov	 edx, DWORD PTR _ptAct$[ebp]
  00590	89 8a a4 00 00
	00		 mov	 DWORD PTR [edx+164], ecx

; 292  : 		}else

  00596	eb 15		 jmp	 SHORT $LN24@waterAniPr
$LN23@waterAniPr:

; 293  : 			ptAct->atr |= ACT_ATR_HIDE;

  00598	8b 45 08	 mov	 eax, DWORD PTR _ptAct$[ebp]
  0059b	8b 88 a4 00 00
	00		 mov	 ecx, DWORD PTR [eax+164]
  005a1	83 c9 02	 or	 ecx, 2
  005a4	8b 55 08	 mov	 edx, DWORD PTR _ptAct$[ebp]
  005a7	89 8a a4 00 00
	00		 mov	 DWORD PTR [edx+164], ecx
$LN24@waterAniPr:

; 294  : 	}else{

  005ad	eb 4e		 jmp	 SHORT $LN19@waterAniPr
$LN18@waterAniPr:

; 295  : 		// ????????
; 296  : 		// ??????????????
; 297  : #ifdef _SPECIALSPACEANIM_FIX  //ROG ADD 修改图层
; 298  : 		setPartsPrio( ptAct->bmpNo, ptAct->x, ptAct->y, 0, 0, ptAct->mx, ptAct->my,ptAct->dispPrio);

  005af	8b 45 08	 mov	 eax, DWORD PTR _ptAct$[ebp]
  005b2	0f b6 48 15	 movzx	 ecx, BYTE PTR [eax+21]
  005b6	51		 push	 ecx
  005b7	8b 55 08	 mov	 edx, DWORD PTR _ptAct$[ebp]
  005ba	51		 push	 ecx
  005bb	f3 0f 10 82 1c
	01 00 00	 movss	 xmm0, DWORD PTR [edx+284]
  005c3	f3 0f 11 04 24	 movss	 DWORD PTR [esp], xmm0
  005c8	8b 45 08	 mov	 eax, DWORD PTR _ptAct$[ebp]
  005cb	51		 push	 ecx
  005cc	f3 0f 10 80 18
	01 00 00	 movss	 xmm0, DWORD PTR [eax+280]
  005d4	f3 0f 11 04 24	 movss	 DWORD PTR [esp], xmm0
  005d9	6a 00		 push	 0
  005db	6a 00		 push	 0
  005dd	8b 4d 08	 mov	 ecx, DWORD PTR _ptAct$[ebp]
  005e0	8b 51 1c	 mov	 edx, DWORD PTR [ecx+28]
  005e3	52		 push	 edx
  005e4	8b 45 08	 mov	 eax, DWORD PTR _ptAct$[ebp]
  005e7	8b 48 18	 mov	 ecx, DWORD PTR [eax+24]
  005ea	51		 push	 ecx
  005eb	8b 55 08	 mov	 edx, DWORD PTR _ptAct$[ebp]
  005ee	8b 82 9c 00 00
	00		 mov	 eax, DWORD PTR [edx+156]
  005f4	50		 push	 eax
  005f5	e8 00 00 00 00	 call	 ?setPartsPrio@@YAXHHHHHMMH@Z ; setPartsPrio
  005fa	83 c4 20	 add	 esp, 32			; 00000020H
$LN19@waterAniPr:
$LN1@waterAniPr:

; 299  : #else
; 300  : 		setCharPrio( ptAct->bmpNo, ptAct->x, ptAct->y, 0, 0, ptAct->mx, ptAct->my );
; 301  : #endif
; 302  : 	}
; 303  : }

  005fd	52		 push	 edx
  005fe	8b cd		 mov	 ecx, ebp
  00600	50		 push	 eax
  00601	8d 15 00 00 00
	00		 lea	 edx, DWORD PTR $LN45@waterAniPr
  00607	e8 00 00 00 00	 call	 @_RTC_CheckStackVars@8
  0060c	58		 pop	 eax
  0060d	5a		 pop	 edx
  0060e	5f		 pop	 edi
  0060f	5e		 pop	 esi
  00610	5b		 pop	 ebx
  00611	81 c4 44 01 00
	00		 add	 esp, 324		; 00000144H
  00617	3b ec		 cmp	 ebp, esp
  00619	e8 00 00 00 00	 call	 __RTC_CheckEsp
  0061e	8b e5		 mov	 esp, ebp
  00620	5d		 pop	 ebp
  00621	c3		 ret	 0
  00622	66 90		 npad	 2
$LN45@waterAniPr:
  00624	06 00 00 00	 DD	 6
  00628	00 00 00 00	 DD	 $LN44@waterAniPr
$LN44@waterAniPr:
  0062c	f8 ff ff ff	 DD	 -8			; fffffff8H
  00630	04 00 00 00	 DD	 4
  00634	00 00 00 00	 DD	 $LN38@waterAniPr
  00638	ec ff ff ff	 DD	 -20			; ffffffecH
  0063c	04 00 00 00	 DD	 4
  00640	00 00 00 00	 DD	 $LN39@waterAniPr
  00644	b0 ff ff ff	 DD	 -80			; ffffffb0H
  00648	02 00 00 00	 DD	 2
  0064c	00 00 00 00	 DD	 $LN40@waterAniPr
  00650	a4 ff ff ff	 DD	 -92			; ffffffa4H
  00654	02 00 00 00	 DD	 2
  00658	00 00 00 00	 DD	 $LN41@waterAniPr
  0065c	98 ff ff ff	 DD	 -104			; ffffff98H
  00660	02 00 00 00	 DD	 2
  00664	00 00 00 00	 DD	 $LN42@waterAniPr
  00668	8c ff ff ff	 DD	 -116			; ffffff8cH
  0066c	02 00 00 00	 DD	 2
  00670	00 00 00 00	 DD	 $LN43@waterAniPr
$LN43@waterAniPr:
  00674	68		 DB	 104			; 00000068H
  00675	68		 DB	 104			; 00000068H
  00676	00		 DB	 0
$LN42@waterAniPr:
  00677	77		 DB	 119			; 00000077H
  00678	77		 DB	 119			; 00000077H
  00679	00		 DB	 0
$LN41@waterAniPr:
  0067a	79		 DB	 121			; 00000079H
  0067b	79		 DB	 121			; 00000079H
  0067c	00		 DB	 0
$LN40@waterAniPr:
  0067d	78		 DB	 120			; 00000078H
  0067e	78		 DB	 120			; 00000078H
  0067f	00		 DB	 0
$LN39@waterAniPr:
  00680	6d		 DB	 109			; 0000006dH
  00681	79		 DB	 121			; 00000079H
  00682	00		 DB	 0
$LN38@waterAniPr:
  00683	6d		 DB	 109			; 0000006dH
  00684	78		 DB	 120			; 00000078H
  00685	00		 DB	 0
$LN27@waterAniPr:
  00686	6e		 DB	 110			; 0000006eH
  00687	6f		 DB	 111			; 0000006fH
  00688	00		 DB	 0
?waterAniProc@@YAXPAUaction@@@Z ENDP			; waterAniProc
_TEXT	ENDS
; Function compile flags: /Odtp /RTCsu /ZI
; File c:\users\administrator\desktop\????? ??\????? ??\client source code\system\character.cpp
;	COMDAT ?charProc@@YAXPAUaction@@@Z
_TEXT	SEGMENT
$T1 = -317						; size = 1
_hh$2 = -116						; size = 2
_ww$3 = -104						; size = 2
_yy$4 = -92						; size = 2
_xx$5 = -80						; size = 2
_pFlag$ = -68						; size = 4
_ext$ = -56						; size = 4
_no$ = -44						; size = 4
_animLoop$ = -32					; size = 4
_my$ = -20						; size = 4
_mx$ = -8						; size = 4
_ptAct$ = 8						; size = 4
?charProc@@YAXPAUaction@@@Z PROC			; charProc, COMDAT

; 93   : {

  00000	55		 push	 ebp
  00001	8b ec		 mov	 ebp, esp
  00003	81 ec 44 01 00
	00		 sub	 esp, 324		; 00000144H
  00009	53		 push	 ebx
  0000a	56		 push	 esi
  0000b	57		 push	 edi
  0000c	8d bd bc fe ff
	ff		 lea	 edi, DWORD PTR [ebp-324]
  00012	b9 51 00 00 00	 mov	 ecx, 81			; 00000051H
  00017	b8 cc cc cc cc	 mov	 eax, -858993460		; ccccccccH
  0001c	f3 ab		 rep stosd
  0001e	c6 85 c3 fe ff
	ff 00		 mov	 BYTE PTR $T1[ebp], 0

; 94   : #ifdef _SHOW_ALL_ID
; 95   : 	char *lssproto_cnv10to62(int a, char *out, int outlen);
; 96   : 	char c62[20];
; 97   : 	char buf[20];
; 98   : 	lssproto_cnv10to62(ptAct->objIndex, c62, 20);
; 99   : 	wsprintfA(buf, "%s(%d)", c62, ptAct->objIndex);
; 100  : 	StockFontBuffer(ptAct->x-5, ptAct->y+10, 0, 4, buf, 0);
; 101  : #endif // _SHOW_ALL_ID
; 102  : 
; 103  : 
; 104  : 
; 105  : 	float mx, my;
; 106  : 	int animLoop;
; 107  : 	int no;
; 108  : 	CHAREXTRA *ext;
; 109  : 	int pFlag = 0;

  00025	c7 45 bc 00 00
	00 00		 mov	 DWORD PTR _pFlag$[ebp], 0

; 110  : 	// ?h??
; 111  : 	// PC???????q??h??
; 112  : 	// PC?????h????V???????h??
; 113  : 	if( pc.ptAct != ptAct ){

  0002c	a1 ec 50 00 00	 mov	 eax, DWORD PTR ?pc@@3UPC@@A+20716
  00031	3b 45 08	 cmp	 eax, DWORD PTR _ptAct$[ebp]
  00034	0f 84 c6 01 00
	00		 je	 $LN5@charProc

; 114  : 		ext = (CHAREXTRA *)ptAct->pYobi;

  0003a	8b 45 08	 mov	 eax, DWORD PTR _ptAct$[ebp]
  0003d	8b 48 0c	 mov	 ecx, DWORD PTR [eax+12]
  00040	89 4d c8	 mov	 DWORD PTR _ext$[ebp], ecx

; 115  : 		no = ext->charObjTblId;

  00043	c6 85 c3 fe ff
	ff 01		 mov	 BYTE PTR $T1[ebp], 1
  0004a	8b 45 c8	 mov	 eax, DWORD PTR _ext$[ebp]
  0004d	8b 08		 mov	 ecx, DWORD PTR [eax]
  0004f	89 4d d4	 mov	 DWORD PTR _no$[ebp], ecx

; 116  : 		// ?????V??????????????
; 117  : 		if( (charObj[no].status & CHR_STATUS_PARTY) == 0 ){

  00052	80 bd c3 fe ff
	ff 00		 cmp	 BYTE PTR $T1[ebp], 0
  00059	75 0d		 jne	 SHORT $LN26@charProc
  0005b	68 00 00 00 00	 push	 OFFSET $LN27@charProc
  00060	e8 00 00 00 00	 call	 __RTC_UninitUse
  00065	83 c4 04	 add	 esp, 4
$LN26@charProc:
  00068	69 45 d4 0c 01
	00 00		 imul	 eax, DWORD PTR _no$[ebp], 268
  0006f	8b 88 2c 00 00
	00		 mov	 ecx, DWORD PTR ?charObj@@3PAUCHAROBJ@@A[eax+44]
  00075	81 e1 00 02 00
	00		 and	 ecx, 512		; 00000200H
  0007b	75 15		 jne	 SHORT $LN3@charProc

; 118  : 			charMove( ptAct );

  0007d	8b 45 08	 mov	 eax, DWORD PTR _ptAct$[ebp]
  00080	50		 push	 eax
  00081	e8 00 00 00 00	 call	 ?charMove@@YAXPAUaction@@@Z ; charMove
  00086	83 c4 04	 add	 esp, 4

; 119  : 			pFlag = 0;

  00089	c7 45 bc 00 00
	00 00		 mov	 DWORD PTR _pFlag$[ebp], 0

; 120  : 		}else

  00090	eb 07		 jmp	 SHORT $LN4@charProc
$LN3@charProc:

; 121  : 			pFlag = 1;

  00092	c7 45 bc 01 00
	00 00		 mov	 DWORD PTR _pFlag$[ebp], 1
$LN4@charProc:

; 122  : 		if( ptAct->vx == 0 && ptAct->vy == 0 && charObj[no].stockDir != -1
; 123  : 		 && charObj[no].stockDirX == ptAct->gx && charObj[no].stockDirY == ptAct->gy ){

  00099	8b 45 08	 mov	 eax, DWORD PTR _ptAct$[ebp]
  0009c	f3 0f 10 80 20
	01 00 00	 movss	 xmm0, DWORD PTR [eax+288]
  000a4	0f 2e 05 00 00
	00 00		 ucomiss xmm0, DWORD PTR __real@00000000
  000ab	9f		 lahf
  000ac	f6 c4 44	 test	 ah, 68			; 00000044H
  000af	0f 8a 4b 01 00
	00		 jp	 $LN5@charProc
  000b5	8b 45 08	 mov	 eax, DWORD PTR _ptAct$[ebp]
  000b8	f3 0f 10 80 24
	01 00 00	 movss	 xmm0, DWORD PTR [eax+292]
  000c0	0f 2e 05 00 00
	00 00		 ucomiss xmm0, DWORD PTR __real@00000000
  000c7	9f		 lahf
  000c8	f6 c4 44	 test	 ah, 68			; 00000044H
  000cb	0f 8a 2f 01 00
	00		 jp	 $LN5@charProc
  000d1	80 bd c3 fe ff
	ff 00		 cmp	 BYTE PTR $T1[ebp], 0
  000d8	75 0d		 jne	 SHORT $LN28@charProc
  000da	68 00 00 00 00	 push	 OFFSET $LN27@charProc
  000df	e8 00 00 00 00	 call	 __RTC_UninitUse
  000e4	83 c4 04	 add	 esp, 4
$LN28@charProc:
  000e7	69 45 d4 0c 01
	00 00		 imul	 eax, DWORD PTR _no$[ebp], 268
  000ee	83 b8 1c 00 00
	00 ff		 cmp	 DWORD PTR ?charObj@@3PAUCHAROBJ@@A[eax+28], -1
  000f5	0f 84 05 01 00
	00		 je	 $LN5@charProc
  000fb	80 bd c3 fe ff
	ff 00		 cmp	 BYTE PTR $T1[ebp], 0
  00102	75 0d		 jne	 SHORT $LN29@charProc
  00104	68 00 00 00 00	 push	 OFFSET $LN27@charProc
  00109	e8 00 00 00 00	 call	 __RTC_UninitUse
  0010e	83 c4 04	 add	 esp, 4
$LN29@charProc:
  00111	69 45 d4 0c 01
	00 00		 imul	 eax, DWORD PTR _no$[ebp], 268
  00118	8b 4d 08	 mov	 ecx, DWORD PTR _ptAct$[ebp]
  0011b	8b 90 20 00 00
	00		 mov	 edx, DWORD PTR ?charObj@@3PAUCHAROBJ@@A[eax+32]
  00121	3b 91 b4 00 00
	00		 cmp	 edx, DWORD PTR [ecx+180]
  00127	0f 85 d3 00 00
	00		 jne	 $LN5@charProc
  0012d	80 bd c3 fe ff
	ff 00		 cmp	 BYTE PTR $T1[ebp], 0
  00134	75 0d		 jne	 SHORT $LN30@charProc
  00136	68 00 00 00 00	 push	 OFFSET $LN27@charProc
  0013b	e8 00 00 00 00	 call	 __RTC_UninitUse
  00140	83 c4 04	 add	 esp, 4
$LN30@charProc:
  00143	69 45 d4 0c 01
	00 00		 imul	 eax, DWORD PTR _no$[ebp], 268
  0014a	8b 4d 08	 mov	 ecx, DWORD PTR _ptAct$[ebp]
  0014d	8b 90 24 00 00
	00		 mov	 edx, DWORD PTR ?charObj@@3PAUCHAROBJ@@A[eax+36]
  00153	3b 91 b8 00 00
	00		 cmp	 edx, DWORD PTR [ecx+184]
  00159	0f 85 a1 00 00
	00		 jne	 $LN5@charProc

; 124  : 			ptAct->anim_ang = charObj[no].stockDir;

  0015f	80 bd c3 fe ff
	ff 00		 cmp	 BYTE PTR $T1[ebp], 0
  00166	75 0d		 jne	 SHORT $LN31@charProc
  00168	68 00 00 00 00	 push	 OFFSET $LN27@charProc
  0016d	e8 00 00 00 00	 call	 __RTC_UninitUse
  00172	83 c4 04	 add	 esp, 4
$LN31@charProc:
  00175	69 45 d4 0c 01
	00 00		 imul	 eax, DWORD PTR _no$[ebp], 268
  0017c	8b 4d 08	 mov	 ecx, DWORD PTR _ptAct$[ebp]
  0017f	8b 90 1c 00 00
	00		 mov	 edx, DWORD PTR ?charObj@@3PAUCHAROBJ@@A[eax+28]
  00185	89 91 54 01 00
	00		 mov	 DWORD PTR [ecx+340], edx

; 125  : 			charObj[no].stockDir = -1;

  0018b	80 bd c3 fe ff
	ff 00		 cmp	 BYTE PTR $T1[ebp], 0
  00192	75 0d		 jne	 SHORT $LN32@charProc
  00194	68 00 00 00 00	 push	 OFFSET $LN27@charProc
  00199	e8 00 00 00 00	 call	 __RTC_UninitUse
  0019e	83 c4 04	 add	 esp, 4
$LN32@charProc:
  001a1	69 45 d4 0c 01
	00 00		 imul	 eax, DWORD PTR _no$[ebp], 268
  001a8	c7 80 1c 00 00
	00 ff ff ff ff	 mov	 DWORD PTR ?charObj@@3PAUCHAROBJ@@A[eax+28], -1

; 126  : 			charObj[no].stockDirX = 0;

  001b2	80 bd c3 fe ff
	ff 00		 cmp	 BYTE PTR $T1[ebp], 0
  001b9	75 0d		 jne	 SHORT $LN33@charProc
  001bb	68 00 00 00 00	 push	 OFFSET $LN27@charProc
  001c0	e8 00 00 00 00	 call	 __RTC_UninitUse
  001c5	83 c4 04	 add	 esp, 4
$LN33@charProc:
  001c8	69 45 d4 0c 01
	00 00		 imul	 eax, DWORD PTR _no$[ebp], 268
  001cf	c7 80 20 00 00
	00 00 00 00 00	 mov	 DWORD PTR ?charObj@@3PAUCHAROBJ@@A[eax+32], 0

; 127  : 			charObj[no].stockDirY = 0;

  001d9	80 bd c3 fe ff
	ff 00		 cmp	 BYTE PTR $T1[ebp], 0
  001e0	75 0d		 jne	 SHORT $LN34@charProc
  001e2	68 00 00 00 00	 push	 OFFSET $LN27@charProc
  001e7	e8 00 00 00 00	 call	 __RTC_UninitUse
  001ec	83 c4 04	 add	 esp, 4
$LN34@charProc:
  001ef	69 45 d4 0c 01
	00 00		 imul	 eax, DWORD PTR _no$[ebp], 268
  001f6	c7 80 24 00 00
	00 00 00 00 00	 mov	 DWORD PTR ?charObj@@3PAUCHAROBJ@@A[eax+36], 0
$LN5@charProc:

; 128  : 		}
; 129  : 	}
; 130  : 	camMapToGamen( ptAct->mx, ptAct->my, &mx, &my );

  00200	8d 45 ec	 lea	 eax, DWORD PTR _my$[ebp]
  00203	50		 push	 eax
  00204	8d 4d f8	 lea	 ecx, DWORD PTR _mx$[ebp]
  00207	51		 push	 ecx
  00208	8b 55 08	 mov	 edx, DWORD PTR _ptAct$[ebp]
  0020b	51		 push	 ecx
  0020c	f3 0f 10 82 1c
	01 00 00	 movss	 xmm0, DWORD PTR [edx+284]
  00214	f3 0f 11 04 24	 movss	 DWORD PTR [esp], xmm0
  00219	8b 45 08	 mov	 eax, DWORD PTR _ptAct$[ebp]
  0021c	51		 push	 ecx
  0021d	f3 0f 10 80 18
	01 00 00	 movss	 xmm0, DWORD PTR [eax+280]
  00225	f3 0f 11 04 24	 movss	 DWORD PTR [esp], xmm0
  0022a	e8 00 00 00 00	 call	 ?camMapToGamen@@YAXMMPAM0@Z ; camMapToGamen
  0022f	83 c4 10	 add	 esp, 16			; 00000010H

; 131  : 	
; 132  : 	ptAct->x = (int)(mx+.5);

  00232	f3 0f 5a 45 f8	 cvtss2sd xmm0, DWORD PTR _mx$[ebp]
  00237	f2 0f 58 05 00
	00 00 00	 addsd	 xmm0, QWORD PTR __real@3fe0000000000000
  0023f	f2 0f 2c c0	 cvttsd2si eax, xmm0
  00243	8b 4d 08	 mov	 ecx, DWORD PTR _ptAct$[ebp]
  00246	89 41 18	 mov	 DWORD PTR [ecx+24], eax

; 133  : 	ptAct->y = (int)(my+.5);

  00249	f3 0f 5a 45 ec	 cvtss2sd xmm0, DWORD PTR _my$[ebp]
  0024e	f2 0f 58 05 00
	00 00 00	 addsd	 xmm0, QWORD PTR __real@3fe0000000000000
  00256	f2 0f 2c c0	 cvttsd2si eax, xmm0
  0025a	8b 4d 08	 mov	 ecx, DWORD PTR _ptAct$[ebp]
  0025d	89 41 1c	 mov	 DWORD PTR [ecx+28], eax

; 134  : 
; 135  : #ifdef _NPC_PICTURE
; 136  : #endif
; 137  : 	drawCharStatus( ptAct );

  00260	8b 45 08	 mov	 eax, DWORD PTR _ptAct$[ebp]
  00263	50		 push	 eax
  00264	e8 00 00 00 00	 call	 ?drawCharStatus@@YAXPAUaction@@@Z ; drawCharStatus
  00269	83 c4 04	 add	 esp, 4

; 138  : 	// ?????????
; 139  : 	if( ptAct->anim_no == ANIM_HAND
; 140  : 	 || ptAct->anim_no == ANIM_HAPPY
; 141  : 	 || ptAct->anim_no == ANIM_ANGRY
; 142  : 	 || ptAct->anim_no == ANIM_SAD
; 143  : 	 || ptAct->anim_no == ANIM_WALK
; 144  : 	 || ptAct->anim_no == ANIM_STAND
; 145  : 	 || ptAct->anim_no == ANIM_NOD )

  0026c	8b 45 08	 mov	 eax, DWORD PTR _ptAct$[ebp]
  0026f	83 b8 4c 01 00
	00 06		 cmp	 DWORD PTR [eax+332], 6
  00276	74 48		 je	 SHORT $LN8@charProc
  00278	8b 45 08	 mov	 eax, DWORD PTR _ptAct$[ebp]
  0027b	83 b8 4c 01 00
	00 07		 cmp	 DWORD PTR [eax+332], 7
  00282	74 3c		 je	 SHORT $LN8@charProc
  00284	8b 45 08	 mov	 eax, DWORD PTR _ptAct$[ebp]
  00287	83 b8 4c 01 00
	00 08		 cmp	 DWORD PTR [eax+332], 8
  0028e	74 30		 je	 SHORT $LN8@charProc
  00290	8b 45 08	 mov	 eax, DWORD PTR _ptAct$[ebp]
  00293	83 b8 4c 01 00
	00 09		 cmp	 DWORD PTR [eax+332], 9
  0029a	74 24		 je	 SHORT $LN8@charProc
  0029c	8b 45 08	 mov	 eax, DWORD PTR _ptAct$[ebp]
  0029f	83 b8 4c 01 00
	00 04		 cmp	 DWORD PTR [eax+332], 4
  002a6	74 18		 je	 SHORT $LN8@charProc
  002a8	8b 45 08	 mov	 eax, DWORD PTR _ptAct$[ebp]
  002ab	83 b8 4c 01 00
	00 03		 cmp	 DWORD PTR [eax+332], 3
  002b2	74 0c		 je	 SHORT $LN8@charProc
  002b4	8b 45 08	 mov	 eax, DWORD PTR _ptAct$[ebp]
  002b7	83 b8 4c 01 00
	00 0b		 cmp	 DWORD PTR [eax+332], 11	; 0000000bH
  002be	75 09		 jne	 SHORT $LN6@charProc
$LN8@charProc:

; 146  : 		animLoop = ANM_LOOP;

  002c0	c7 45 e0 00 00
	00 00		 mov	 DWORD PTR _animLoop$[ebp], 0

; 147  : 	else

  002c7	eb 07		 jmp	 SHORT $LN7@charProc
$LN6@charProc:

; 148  : 		animLoop = ANM_NO_LOOP;

  002c9	c7 45 e0 01 00
	00 00		 mov	 DWORD PTR _animLoop$[ebp], 1
$LN7@charProc:

; 149  : 	pattern( ptAct, ANM_NOMAL_SPD, animLoop );

  002d0	8b 45 e0	 mov	 eax, DWORD PTR _animLoop$[ebp]
  002d3	50		 push	 eax
  002d4	6a 00		 push	 0
  002d6	8b 4d 08	 mov	 ecx, DWORD PTR _ptAct$[ebp]
  002d9	51		 push	 ecx
  002da	e8 00 00 00 00	 call	 ?pattern@@YAHPAUaction@@HH@Z ; pattern
  002df	83 c4 0c	 add	 esp, 12			; 0000000cH

; 150  : 	if( pFlag ){

  002e2	83 7d bc 00	 cmp	 DWORD PTR _pFlag$[ebp], 0
  002e6	74 48		 je	 SHORT $LN9@charProc

; 151  : 		if( nowSpdRate >= 1.2F )

  002e8	f3 0f 10 05 00
	00 00 00	 movss	 xmm0, DWORD PTR ?nowSpdRate@@3MA
  002f0	0f 2f 05 00 00
	00 00		 comiss	 xmm0, DWORD PTR __real@3f99999a
  002f7	72 12		 jb	 SHORT $LN11@charProc

; 152  : 			pattern( ptAct, ANM_NOMAL_SPD, animLoop );

  002f9	8b 45 e0	 mov	 eax, DWORD PTR _animLoop$[ebp]
  002fc	50		 push	 eax
  002fd	6a 00		 push	 0
  002ff	8b 4d 08	 mov	 ecx, DWORD PTR _ptAct$[ebp]
  00302	51		 push	 ecx
  00303	e8 00 00 00 00	 call	 ?pattern@@YAHPAUaction@@HH@Z ; pattern
  00308	83 c4 0c	 add	 esp, 12			; 0000000cH
$LN11@charProc:

; 153  : 		if( nowSpdRate >= 1.6F )

  0030b	f3 0f 10 05 00
	00 00 00	 movss	 xmm0, DWORD PTR ?nowSpdRate@@3MA
  00313	0f 2f 05 00 00
	00 00		 comiss	 xmm0, DWORD PTR __real@3fcccccd
  0031a	72 12		 jb	 SHORT $LN12@charProc

; 154  : 			pattern( ptAct, ANM_NOMAL_SPD, animLoop );

  0031c	8b 45 e0	 mov	 eax, DWORD PTR _animLoop$[ebp]
  0031f	50		 push	 eax
  00320	6a 00		 push	 0
  00322	8b 4d 08	 mov	 ecx, DWORD PTR _ptAct$[ebp]
  00325	51		 push	 ecx
  00326	e8 00 00 00 00	 call	 ?pattern@@YAHPAUaction@@HH@Z ; pattern
  0032b	83 c4 0c	 add	 esp, 12			; 0000000cH
$LN12@charProc:

; 155  : 	}else{

  0032e	eb 42		 jmp	 SHORT $LN14@charProc
$LN9@charProc:

; 156  : 		if( ptAct->bufCount >= 2 )

  00330	8b 45 08	 mov	 eax, DWORD PTR _ptAct$[ebp]
  00333	0f bf 88 14 01
	00 00		 movsx	 ecx, WORD PTR [eax+276]
  0033a	83 f9 02	 cmp	 ecx, 2
  0033d	7c 12		 jl	 SHORT $LN13@charProc

; 157  : 			pattern( ptAct, ANM_NOMAL_SPD, animLoop );

  0033f	8b 45 e0	 mov	 eax, DWORD PTR _animLoop$[ebp]
  00342	50		 push	 eax
  00343	6a 00		 push	 0
  00345	8b 4d 08	 mov	 ecx, DWORD PTR _ptAct$[ebp]
  00348	51		 push	 ecx
  00349	e8 00 00 00 00	 call	 ?pattern@@YAHPAUaction@@HH@Z ; pattern
  0034e	83 c4 0c	 add	 esp, 12			; 0000000cH
$LN13@charProc:

; 158  : 		if( ptAct->bufCount >= 4 )

  00351	8b 45 08	 mov	 eax, DWORD PTR _ptAct$[ebp]
  00354	0f bf 88 14 01
	00 00		 movsx	 ecx, WORD PTR [eax+276]
  0035b	83 f9 04	 cmp	 ecx, 4
  0035e	7c 12		 jl	 SHORT $LN14@charProc

; 159  : 			pattern( ptAct, ANM_NOMAL_SPD, animLoop );

  00360	8b 45 e0	 mov	 eax, DWORD PTR _animLoop$[ebp]
  00363	50		 push	 eax
  00364	6a 00		 push	 0
  00366	8b 4d 08	 mov	 ecx, DWORD PTR _ptAct$[ebp]
  00369	51		 push	 ecx
  0036a	e8 00 00 00 00	 call	 ?pattern@@YAHPAUaction@@HH@Z ; pattern
  0036f	83 c4 0c	 add	 esp, 12			; 0000000cH
$LN14@charProc:

; 160  : 	}
; 161  : 	if( pc.ptAct != ptAct ){

  00372	a1 ec 50 00 00	 mov	 eax, DWORD PTR ?pc@@3UPC@@A+20716
  00377	3b 45 08	 cmp	 eax, DWORD PTR _ptAct$[ebp]
  0037a	0f 84 e8 00 00
	00		 je	 $LN17@charProc

; 162  : 		if( charObj[no].newFoundFlag ){

  00380	80 bd c3 fe ff
	ff 00		 cmp	 BYTE PTR $T1[ebp], 0
  00387	75 0d		 jne	 SHORT $LN35@charProc
  00389	68 00 00 00 00	 push	 OFFSET $LN27@charProc
  0038e	e8 00 00 00 00	 call	 __RTC_UninitUse
  00393	83 c4 04	 add	 esp, 4
$LN35@charProc:
  00396	69 45 d4 0c 01
	00 00		 imul	 eax, DWORD PTR _no$[ebp], 268
  0039d	0f bf 88 b8 00
	00 00		 movsx	 ecx, WORD PTR ?charObj@@3PAUCHAROBJ@@A[eax+184]
  003a4	85 c9		 test	 ecx, ecx
  003a6	0f 84 bc 00 00
	00		 je	 $LN17@charProc

; 163  : 			S2 xx, yy, ww, hh;
; 164  : 			// ???????
; 165  : 			realGetPos( ptAct->bmpNo, &xx, &yy );

  003ac	8d 45 a4	 lea	 eax, DWORD PTR _yy$4[ebp]
  003af	50		 push	 eax
  003b0	8d 4d b0	 lea	 ecx, DWORD PTR _xx$5[ebp]
  003b3	51		 push	 ecx
  003b4	8b 55 08	 mov	 edx, DWORD PTR _ptAct$[ebp]
  003b7	8b 82 9c 00 00
	00		 mov	 eax, DWORD PTR [edx+156]
  003bd	50		 push	 eax
  003be	e8 00 00 00 00	 call	 ?realGetPos@@YAHKPAF0@Z	; realGetPos
  003c3	83 c4 0c	 add	 esp, 12			; 0000000cH

; 166  : 			realGetWH( ptAct->bmpNo, &ww, &hh );

  003c6	8d 45 8c	 lea	 eax, DWORD PTR _hh$2[ebp]
  003c9	50		 push	 eax
  003ca	8d 4d 98	 lea	 ecx, DWORD PTR _ww$3[ebp]
  003cd	51		 push	 ecx
  003ce	8b 55 08	 mov	 edx, DWORD PTR _ptAct$[ebp]
  003d1	8b 82 9c 00 00
	00		 mov	 eax, DWORD PTR [edx+156]
  003d7	50		 push	 eax
  003d8	e8 00 00 00 00	 call	 ?realGetWH@@YAHKPAF0@Z	; realGetWH
  003dd	83 c4 0c	 add	 esp, 12			; 0000000cH

; 167  : 			xx += ptAct->x;

  003e0	0f bf 45 b0	 movsx	 eax, WORD PTR _xx$5[ebp]
  003e4	8b 4d 08	 mov	 ecx, DWORD PTR _ptAct$[ebp]
  003e7	03 41 18	 add	 eax, DWORD PTR [ecx+24]
  003ea	66 89 45 b0	 mov	 WORD PTR _xx$5[ebp], ax

; 168  : 			yy += ptAct->y;

  003ee	0f bf 45 a4	 movsx	 eax, WORD PTR _yy$4[ebp]
  003f2	8b 4d 08	 mov	 ecx, DWORD PTR _ptAct$[ebp]
  003f5	03 41 1c	 add	 eax, DWORD PTR [ecx+28]
  003f8	66 89 45 a4	 mov	 WORD PTR _yy$4[ebp], ax

; 169  : 			if( 0 <= xx && xx+ww <= DEF_APPSIZEX
; 170  : 			 && 0 <= yy && yy+hh <= DEF_APPSIZEY ){

  003fc	0f bf 45 b0	 movsx	 eax, WORD PTR _xx$5[ebp]
  00400	85 c0		 test	 eax, eax
  00402	7c 64		 jl	 SHORT $LN17@charProc
  00404	0f bf 45 b0	 movsx	 eax, WORD PTR _xx$5[ebp]
  00408	0f bf 4d 98	 movsx	 ecx, WORD PTR _ww$3[ebp]
  0040c	03 c1		 add	 eax, ecx
  0040e	3b 05 00 00 00
	00		 cmp	 eax, DWORD PTR ?DEF_APPSIZEX@@3HA ; DEF_APPSIZEX
  00414	7f 52		 jg	 SHORT $LN17@charProc
  00416	0f bf 45 a4	 movsx	 eax, WORD PTR _yy$4[ebp]
  0041a	85 c0		 test	 eax, eax
  0041c	7c 4a		 jl	 SHORT $LN17@charProc
  0041e	0f bf 45 a4	 movsx	 eax, WORD PTR _yy$4[ebp]
  00422	0f bf 4d 8c	 movsx	 ecx, WORD PTR _hh$2[ebp]
  00426	03 c1		 add	 eax, ecx
  00428	3b 05 00 00 00
	00		 cmp	 eax, DWORD PTR ?DEF_APPSIZEY@@3HA ; DEF_APPSIZEY
  0042e	7f 38		 jg	 SHORT $LN17@charProc

; 171  : 				CheckNewPet( ptAct->anim_chr_no );

  00430	8b 45 08	 mov	 eax, DWORD PTR _ptAct$[ebp]
  00433	8b 88 44 01 00
	00		 mov	 ecx, DWORD PTR [eax+324]
  00439	51		 push	 ecx
  0043a	e8 00 00 00 00	 call	 ?CheckNewPet@@YAXH@Z	; CheckNewPet
  0043f	83 c4 04	 add	 esp, 4

; 172  : 				charObj[no].newFoundFlag = 0;

  00442	80 bd c3 fe ff
	ff 00		 cmp	 BYTE PTR $T1[ebp], 0
  00449	75 0d		 jne	 SHORT $LN36@charProc
  0044b	68 00 00 00 00	 push	 OFFSET $LN27@charProc
  00450	e8 00 00 00 00	 call	 __RTC_UninitUse
  00455	83 c4 04	 add	 esp, 4
$LN36@charProc:
  00458	69 45 d4 0c 01
	00 00		 imul	 eax, DWORD PTR _no$[ebp], 268
  0045f	33 c9		 xor	 ecx, ecx
  00461	66 89 88 b8 00
	00 00		 mov	 WORD PTR ?charObj@@3PAUCHAROBJ@@A[eax+184], cx
$LN17@charProc:

; 173  : 			}
; 174  : 		}
; 175  : 	}
; 176  : 	if( 20000 <= ptAct->anim_chr_no && ptAct->anim_chr_no <= 24999 ){

  00468	8b 45 08	 mov	 eax, DWORD PTR _ptAct$[ebp]
  0046b	81 b8 44 01 00
	00 20 4e 00 00	 cmp	 DWORD PTR [eax+324], 20000 ; 00004e20H
  00475	0f 8c 38 01 00
	00		 jl	 $LN18@charProc
  0047b	8b 45 08	 mov	 eax, DWORD PTR _ptAct$[ebp]
  0047e	81 b8 44 01 00
	00 a7 61 00 00	 cmp	 DWORD PTR [eax+324], 24999 ; 000061a7H
  00488	0f 8f 25 01 00
	00		 jg	 $LN18@charProc

; 177  : 		// ????
; 178  : 		if( pc.ptAct != ptAct ){

  0048e	a1 ec 50 00 00	 mov	 eax, DWORD PTR ?pc@@3UPC@@A+20716
  00493	3b 45 08	 cmp	 eax, DWORD PTR _ptAct$[ebp]
  00496	74 7d		 je	 SHORT $LN21@charProc

; 179  : 			// d??????????
; 180  : 			if( ptAct->gx < nowGx-16 || nowGx+16 < ptAct->gx
; 181  : 			 || ptAct->gy < nowGy-16 || nowGy+16 < ptAct->gy ){

  00498	a1 00 00 00 00	 mov	 eax, DWORD PTR ?nowGx@@3HA ; nowGx
  0049d	83 e8 10	 sub	 eax, 16			; 00000010H
  004a0	8b 4d 08	 mov	 ecx, DWORD PTR _ptAct$[ebp]
  004a3	39 81 b4 00 00
	00		 cmp	 DWORD PTR [ecx+180], eax
  004a9	7c 39		 jl	 SHORT $LN22@charProc
  004ab	a1 00 00 00 00	 mov	 eax, DWORD PTR ?nowGx@@3HA ; nowGx
  004b0	83 c0 10	 add	 eax, 16			; 00000010H
  004b3	8b 4d 08	 mov	 ecx, DWORD PTR _ptAct$[ebp]
  004b6	3b 81 b4 00 00
	00		 cmp	 eax, DWORD PTR [ecx+180]
  004bc	7c 26		 jl	 SHORT $LN22@charProc
  004be	a1 00 00 00 00	 mov	 eax, DWORD PTR ?nowGy@@3HA ; nowGy
  004c3	83 e8 10	 sub	 eax, 16			; 00000010H
  004c6	8b 4d 08	 mov	 ecx, DWORD PTR _ptAct$[ebp]
  004c9	39 81 b8 00 00
	00		 cmp	 DWORD PTR [ecx+184], eax
  004cf	7c 13		 jl	 SHORT $LN22@charProc
  004d1	a1 00 00 00 00	 mov	 eax, DWORD PTR ?nowGy@@3HA ; nowGy
  004d6	83 c0 10	 add	 eax, 16			; 00000010H
  004d9	8b 4d 08	 mov	 ecx, DWORD PTR _ptAct$[ebp]
  004dc	3b 81 b8 00 00
	00		 cmp	 eax, DWORD PTR [ecx+184]
  004e2	7d 31		 jge	 SHORT $LN21@charProc
$LN22@charProc:

; 182  : 				delCharObj( charObj[no].id );

  004e4	80 bd c3 fe ff
	ff 00		 cmp	 BYTE PTR $T1[ebp], 0
  004eb	75 0d		 jne	 SHORT $LN37@charProc
  004ed	68 00 00 00 00	 push	 OFFSET $LN27@charProc
  004f2	e8 00 00 00 00	 call	 __RTC_UninitUse
  004f7	83 c4 04	 add	 esp, 4
$LN37@charProc:
  004fa	69 45 d4 0c 01
	00 00		 imul	 eax, DWORD PTR _no$[ebp], 268
  00501	8b 88 04 00 00
	00		 mov	 ecx, DWORD PTR ?charObj@@3PAUCHAROBJ@@A[eax+4]
  00507	51		 push	 ecx
  00508	e8 00 00 00 00	 call	 ?delCharObj@@YAXH@Z	; delCharObj
  0050d	83 c4 04	 add	 esp, 4

; 183  : 				return;

  00510	e9 e4 00 00 00	 jmp	 $LN1@charProc
$LN21@charProc:

; 184  : 			}
; 185  : 		}
; 186  : 		// i??t????????
; 187  : 		if( !itemOverlapCheck( ptAct->bmpNo, ptAct->gx, ptAct->gy ) ){

  00515	8b 45 08	 mov	 eax, DWORD PTR _ptAct$[ebp]
  00518	8b 88 b8 00 00
	00		 mov	 ecx, DWORD PTR [eax+184]
  0051e	51		 push	 ecx
  0051f	8b 55 08	 mov	 edx, DWORD PTR _ptAct$[ebp]
  00522	8b 82 b4 00 00
	00		 mov	 eax, DWORD PTR [edx+180]
  00528	50		 push	 eax
  00529	8b 4d 08	 mov	 ecx, DWORD PTR _ptAct$[ebp]
  0052c	8b 91 9c 00 00
	00		 mov	 edx, DWORD PTR [ecx+156]
  00532	52		 push	 edx
  00533	e8 00 00 00 00	 call	 ?itemOverlapCheck@@YAHIHH@Z ; itemOverlapCheck
  00538	83 c4 0c	 add	 esp, 12			; 0000000cH
  0053b	85 c0		 test	 eax, eax
  0053d	75 5d		 jne	 SHORT $LN23@charProc

; 188  : 			// ??????????????
; 189  : 			setCharPrio( ptAct->bmpNo, ptAct->x, ptAct->y, 0, 0, ptAct->mx, ptAct->my );

  0053f	8b 45 08	 mov	 eax, DWORD PTR _ptAct$[ebp]
  00542	51		 push	 ecx
  00543	f3 0f 10 80 1c
	01 00 00	 movss	 xmm0, DWORD PTR [eax+284]
  0054b	f3 0f 11 04 24	 movss	 DWORD PTR [esp], xmm0
  00550	8b 4d 08	 mov	 ecx, DWORD PTR _ptAct$[ebp]
  00553	51		 push	 ecx
  00554	f3 0f 10 81 18
	01 00 00	 movss	 xmm0, DWORD PTR [ecx+280]
  0055c	f3 0f 11 04 24	 movss	 DWORD PTR [esp], xmm0
  00561	6a 00		 push	 0
  00563	6a 00		 push	 0
  00565	8b 55 08	 mov	 edx, DWORD PTR _ptAct$[ebp]
  00568	8b 42 1c	 mov	 eax, DWORD PTR [edx+28]
  0056b	50		 push	 eax
  0056c	8b 4d 08	 mov	 ecx, DWORD PTR _ptAct$[ebp]
  0056f	8b 51 18	 mov	 edx, DWORD PTR [ecx+24]
  00572	52		 push	 edx
  00573	8b 45 08	 mov	 eax, DWORD PTR _ptAct$[ebp]
  00576	8b 88 9c 00 00
	00		 mov	 ecx, DWORD PTR [eax+156]
  0057c	51		 push	 ecx
  0057d	e8 00 00 00 00	 call	 ?setCharPrio@@YAXHHHHHMM@Z ; setCharPrio
  00582	83 c4 1c	 add	 esp, 28			; 0000001cH

; 190  : 			ptAct->atr &= (~ACT_ATR_HIDE);

  00585	8b 45 08	 mov	 eax, DWORD PTR _ptAct$[ebp]
  00588	8b 88 a4 00 00
	00		 mov	 ecx, DWORD PTR [eax+164]
  0058e	83 e1 fd	 and	 ecx, -3			; fffffffdH
  00591	8b 55 08	 mov	 edx, DWORD PTR _ptAct$[ebp]
  00594	89 8a a4 00 00
	00		 mov	 DWORD PTR [edx+164], ecx

; 191  : 		}else

  0059a	eb 15		 jmp	 SHORT $LN24@charProc
$LN23@charProc:

; 192  : 			ptAct->atr |= ACT_ATR_HIDE;

  0059c	8b 45 08	 mov	 eax, DWORD PTR _ptAct$[ebp]
  0059f	8b 88 a4 00 00
	00		 mov	 ecx, DWORD PTR [eax+164]
  005a5	83 c9 02	 or	 ecx, 2
  005a8	8b 55 08	 mov	 edx, DWORD PTR _ptAct$[ebp]
  005ab	89 8a a4 00 00
	00		 mov	 DWORD PTR [edx+164], ecx
$LN24@charProc:

; 193  : 	}else{

  005b1	eb 46		 jmp	 SHORT $LN19@charProc
$LN18@charProc:

; 194  : 		// ????????
; 195  : 		// ??????????????
; 196  : 		setCharPrio( ptAct->bmpNo, ptAct->x, ptAct->y, 0, 0, ptAct->mx, ptAct->my );

  005b3	8b 45 08	 mov	 eax, DWORD PTR _ptAct$[ebp]
  005b6	51		 push	 ecx
  005b7	f3 0f 10 80 1c
	01 00 00	 movss	 xmm0, DWORD PTR [eax+284]
  005bf	f3 0f 11 04 24	 movss	 DWORD PTR [esp], xmm0
  005c4	8b 4d 08	 mov	 ecx, DWORD PTR _ptAct$[ebp]
  005c7	51		 push	 ecx
  005c8	f3 0f 10 81 18
	01 00 00	 movss	 xmm0, DWORD PTR [ecx+280]
  005d0	f3 0f 11 04 24	 movss	 DWORD PTR [esp], xmm0
  005d5	6a 00		 push	 0
  005d7	6a 00		 push	 0
  005d9	8b 55 08	 mov	 edx, DWORD PTR _ptAct$[ebp]
  005dc	8b 42 1c	 mov	 eax, DWORD PTR [edx+28]
  005df	50		 push	 eax
  005e0	8b 4d 08	 mov	 ecx, DWORD PTR _ptAct$[ebp]
  005e3	8b 51 18	 mov	 edx, DWORD PTR [ecx+24]
  005e6	52		 push	 edx
  005e7	8b 45 08	 mov	 eax, DWORD PTR _ptAct$[ebp]
  005ea	8b 88 9c 00 00
	00		 mov	 ecx, DWORD PTR [eax+156]
  005f0	51		 push	 ecx
  005f1	e8 00 00 00 00	 call	 ?setCharPrio@@YAXHHHHHMM@Z ; setCharPrio
  005f6	83 c4 1c	 add	 esp, 28			; 0000001cH
$LN19@charProc:
$LN1@charProc:

; 197  : 	}
; 198  : }

  005f9	52		 push	 edx
  005fa	8b cd		 mov	 ecx, ebp
  005fc	50		 push	 eax
  005fd	8d 15 00 00 00
	00		 lea	 edx, DWORD PTR $LN45@charProc
  00603	e8 00 00 00 00	 call	 @_RTC_CheckStackVars@8
  00608	58		 pop	 eax
  00609	5a		 pop	 edx
  0060a	5f		 pop	 edi
  0060b	5e		 pop	 esi
  0060c	5b		 pop	 ebx
  0060d	81 c4 44 01 00
	00		 add	 esp, 324		; 00000144H
  00613	3b ec		 cmp	 ebp, esp
  00615	e8 00 00 00 00	 call	 __RTC_CheckEsp
  0061a	8b e5		 mov	 esp, ebp
  0061c	5d		 pop	 ebp
  0061d	c3		 ret	 0
  0061e	66 90		 npad	 2
$LN45@charProc:
  00620	06 00 00 00	 DD	 6
  00624	00 00 00 00	 DD	 $LN44@charProc
$LN44@charProc:
  00628	f8 ff ff ff	 DD	 -8			; fffffff8H
  0062c	04 00 00 00	 DD	 4
  00630	00 00 00 00	 DD	 $LN38@charProc
  00634	ec ff ff ff	 DD	 -20			; ffffffecH
  00638	04 00 00 00	 DD	 4
  0063c	00 00 00 00	 DD	 $LN39@charProc
  00640	b0 ff ff ff	 DD	 -80			; ffffffb0H
  00644	02 00 00 00	 DD	 2
  00648	00 00 00 00	 DD	 $LN40@charProc
  0064c	a4 ff ff ff	 DD	 -92			; ffffffa4H
  00650	02 00 00 00	 DD	 2
  00654	00 00 00 00	 DD	 $LN41@charProc
  00658	98 ff ff ff	 DD	 -104			; ffffff98H
  0065c	02 00 00 00	 DD	 2
  00660	00 00 00 00	 DD	 $LN42@charProc
  00664	8c ff ff ff	 DD	 -116			; ffffff8cH
  00668	02 00 00 00	 DD	 2
  0066c	00 00 00 00	 DD	 $LN43@charProc
$LN43@charProc:
  00670	68		 DB	 104			; 00000068H
  00671	68		 DB	 104			; 00000068H
  00672	00		 DB	 0
$LN42@charProc:
  00673	77		 DB	 119			; 00000077H
  00674	77		 DB	 119			; 00000077H
  00675	00		 DB	 0
$LN41@charProc:
  00676	79		 DB	 121			; 00000079H
  00677	79		 DB	 121			; 00000079H
  00678	00		 DB	 0
$LN40@charProc:
  00679	78		 DB	 120			; 00000078H
  0067a	78		 DB	 120			; 00000078H
  0067b	00		 DB	 0
$LN39@charProc:
  0067c	6d		 DB	 109			; 0000006dH
  0067d	79		 DB	 121			; 00000079H
  0067e	00		 DB	 0
$LN38@charProc:
  0067f	6d		 DB	 109			; 0000006dH
  00680	78		 DB	 120			; 00000078H
  00681	00		 DB	 0
$LN27@charProc:
  00682	6e		 DB	 110			; 0000006eH
  00683	6f		 DB	 111			; 0000006fH
  00684	00		 DB	 0
?charProc@@YAXPAUaction@@@Z ENDP			; charProc
_TEXT	ENDS
; Function compile flags: /Odtp /RTCsu /ZI
; File c:\users\administrator\desktop\????? ??\????? ??\client source code\system\character.cpp
;	COMDAT ?ajustClientDir@@YAXPAF@Z
_TEXT	SEGMENT
_dir$ = 8						; size = 4
?ajustClientDir@@YAXPAF@Z PROC				; ajustClientDir, COMDAT

; 2846 : {

  00000	55		 push	 ebp
  00001	8b ec		 mov	 ebp, esp
  00003	81 ec c0 00 00
	00		 sub	 esp, 192		; 000000c0H
  00009	53		 push	 ebx
  0000a	56		 push	 esi
  0000b	57		 push	 edi
  0000c	8d bd 40 ff ff
	ff		 lea	 edi, DWORD PTR [ebp-192]
  00012	b9 30 00 00 00	 mov	 ecx, 48			; 00000030H
  00017	b8 cc cc cc cc	 mov	 eax, -858993460		; ccccccccH
  0001c	f3 ab		 rep stosd

; 2847 : 	if( *dir < 0 )

  0001e	8b 45 08	 mov	 eax, DWORD PTR _dir$[ebp]
  00021	0f bf 08	 movsx	 ecx, WORD PTR [eax]
  00024	85 c9		 test	 ecx, ecx
  00026	7d 1b		 jge	 SHORT $LN8@ajustClien
$LN4@ajustClien:

; 2848 : 	{
; 2849 : 		do
; 2850 : 		{
; 2851 : 			(*dir) += 8;

  00028	8b 45 08	 mov	 eax, DWORD PTR _dir$[ebp]
  0002b	0f bf 08	 movsx	 ecx, WORD PTR [eax]
  0002e	83 c1 08	 add	 ecx, 8
  00031	8b 55 08	 mov	 edx, DWORD PTR _dir$[ebp]
  00034	66 89 0a	 mov	 WORD PTR [edx], cx

; 2852 : 		} while( *dir < 0 );

  00037	8b 45 08	 mov	 eax, DWORD PTR _dir$[ebp]
  0003a	0f bf 08	 movsx	 ecx, WORD PTR [eax]
  0003d	85 c9		 test	 ecx, ecx
  0003f	7c e7		 jl	 SHORT $LN4@ajustClien

; 2853 : 	}
; 2854 : 	else

  00041	eb 25		 jmp	 SHORT $LN1@ajustClien
$LN8@ajustClien:

; 2855 : 	if( *dir > 7 )

  00043	8b 45 08	 mov	 eax, DWORD PTR _dir$[ebp]
  00046	0f bf 08	 movsx	 ecx, WORD PTR [eax]
  00049	83 f9 07	 cmp	 ecx, 7
  0004c	7e 1a		 jle	 SHORT $LN1@ajustClien
$LN7@ajustClien:

; 2856 : 	{
; 2857 : 		do
; 2858 : 		{
; 2859 : 			(*dir) -= 8;

  0004e	8b 45 08	 mov	 eax, DWORD PTR _dir$[ebp]
  00051	0f bf 08	 movsx	 ecx, WORD PTR [eax]
  00054	83 e9 08	 sub	 ecx, 8
  00057	8b 55 08	 mov	 edx, DWORD PTR _dir$[ebp]
  0005a	66 89 0a	 mov	 WORD PTR [edx], cx

; 2860 : 		} while( *dir > 7 );

  0005d	8b 45 08	 mov	 eax, DWORD PTR _dir$[ebp]
  00060	0f bf 08	 movsx	 ecx, WORD PTR [eax]
  00063	83 f9 07	 cmp	 ecx, 7
  00066	7f e6		 jg	 SHORT $LN7@ajustClien
$LN1@ajustClien:

; 2861 : 	}
; 2862 : }

  00068	5f		 pop	 edi
  00069	5e		 pop	 esi
  0006a	5b		 pop	 ebx
  0006b	8b e5		 mov	 esp, ebp
  0006d	5d		 pop	 ebp
  0006e	c3		 ret	 0
?ajustClientDir@@YAXPAF@Z ENDP				; ajustClientDir
_TEXT	ENDS
; Function compile flags: /Odtp /RTCsu /ZI
; File c:\users\administrator\desktop\????? ??\????? ??\client source code\system\character.cpp
;	COMDAT ?createPetAction@@YAPAUaction@@HHHHHHH@Z
_TEXT	SEGMENT
_pe$ = -44						; size = 4
_my$ = -32						; size = 4
_mx$ = -20						; size = 4
_ptAct$ = -8						; size = 4
_graNo$ = 8						; size = 4
_gx$ = 12						; size = 4
_gy$ = 16						; size = 4
_dir$ = 20						; size = 4
_mode$ = 24						; size = 4
_moveDir$ = 28						; size = 4
_id$ = 32						; size = 4
?createPetAction@@YAPAUaction@@HHHHHHH@Z PROC		; createPetAction, COMDAT

; 3207 : {

  00000	55		 push	 ebp
  00001	8b ec		 mov	 ebp, esp
  00003	81 ec f0 00 00
	00		 sub	 esp, 240		; 000000f0H
  00009	53		 push	 ebx
  0000a	56		 push	 esi
  0000b	57		 push	 edi
  0000c	8d bd 10 ff ff
	ff		 lea	 edi, DWORD PTR [ebp-240]
  00012	b9 3c 00 00 00	 mov	 ecx, 60			; 0000003cH
  00017	b8 cc cc cc cc	 mov	 eax, -858993460		; ccccccccH
  0001c	f3 ab		 rep stosd

; 3208 : 	ACTION *ptAct;
; 3209 : 	float mx, my;
; 3210 : 	PETEXTRA *pe;
; 3211 : 
; 3212 : 	/* ?????????K? */
; 3213 : 	ptAct = GetAction( PRIO_CHR, sizeof( PETEXTRA ) );

  0001e	6a 2c		 push	 44			; 0000002cH
  00020	6a 01		 push	 1
  00022	e8 00 00 00 00	 call	 ?GetAction@@YAPAUaction@@EI@Z ; GetAction
  00027	83 c4 08	 add	 esp, 8
  0002a	89 45 f8	 mov	 DWORD PTR _ptAct$[ebp], eax

; 3214 : 	if( ptAct == NULL )

  0002d	83 7d f8 00	 cmp	 DWORD PTR _ptAct$[ebp], 0
  00031	75 07		 jne	 SHORT $LN2@createPetA

; 3215 : 		return NULL;

  00033	33 c0		 xor	 eax, eax
  00035	e9 cb 01 00 00	 jmp	 $LN1@createPetA
$LN2@createPetA:

; 3216 : 
; 3217 : 	// ???
; 3218 : 	ptAct->func = petProc;

  0003a	8b 45 f8	 mov	 eax, DWORD PTR _ptAct$[ebp]
  0003d	c7 40 08 00 00
	00 00		 mov	 DWORD PTR [eax+8], OFFSET ?petProc@@YAXPAUaction@@@Z ; petProc

; 3219 : 	// ???????k?
; 3220 : 	ptAct->anim_chr_no = graNo;

  00044	8b 45 f8	 mov	 eax, DWORD PTR _ptAct$[ebp]
  00047	8b 4d 08	 mov	 ecx, DWORD PTR _graNo$[ebp]
  0004a	89 88 44 01 00
	00		 mov	 DWORD PTR [eax+324], ecx

; 3221 : 	// h?k?
; 3222 : 	ptAct->anim_no = ANIM_STAND;

  00050	8b 45 f8	 mov	 eax, DWORD PTR _ptAct$[ebp]
  00053	c7 80 4c 01 00
	00 03 00 00 00	 mov	 DWORD PTR [eax+332], 3

; 3223 : 	// ?????????( ??? )( ??????? )
; 3224 : 	ptAct->anim_ang = dir;

  0005d	8b 45 f8	 mov	 eax, DWORD PTR _ptAct$[ebp]
  00060	8b 4d 14	 mov	 ecx, DWORD PTR _dir$[ebp]
  00063	89 88 54 01 00
	00		 mov	 DWORD PTR [eax+340], ecx

; 3225 : 	// ?IT
; 3226 : 	ptAct->dispPrio = DISP_PRIO_CHAR;

  00069	8b 45 f8	 mov	 eax, DWORD PTR _ptAct$[ebp]
  0006c	c6 40 15 0a	 mov	 BYTE PTR [eax+21], 10	; 0000000aH

; 3227 : 	// 1????????
; 3228 : 	ptAct->atr = ACT_ATR_INFO |	ACT_ATR_HIT | ACT_ATR_HIDE2;

  00070	8b 45 f8	 mov	 eax, DWORD PTR _ptAct$[ebp]
  00073	c7 80 a4 00 00
	00 34 00 00 00	 mov	 DWORD PTR [eax+164], 52	; 00000034H

; 3229 : 	// ???t
; 3230 : 	ptAct->nextGx = gx;					// ??????????hI?

  0007d	8b 45 f8	 mov	 eax, DWORD PTR _ptAct$[ebp]
  00080	8b 4d 0c	 mov	 ecx, DWORD PTR _gx$[ebp]
  00083	89 88 bc 00 00
	00		 mov	 DWORD PTR [eax+188], ecx

; 3231 : 	ptAct->nextGy = gy;

  00089	8b 45 f8	 mov	 eax, DWORD PTR _ptAct$[ebp]
  0008c	8b 4d 10	 mov	 ecx, DWORD PTR _gy$[ebp]
  0008f	89 88 c0 00 00
	00		 mov	 DWORD PTR [eax+192], ecx

; 3232 : 	ptAct->bufCount = 0;

  00095	33 c0		 xor	 eax, eax
  00097	8b 4d f8	 mov	 ecx, DWORD PTR _ptAct$[ebp]
  0009a	66 89 81 14 01
	00 00		 mov	 WORD PTR [ecx+276], ax

; 3233 : 	ptAct->gx = gx;						// ????????????

  000a1	8b 45 f8	 mov	 eax, DWORD PTR _ptAct$[ebp]
  000a4	8b 4d 0c	 mov	 ecx, DWORD PTR _gx$[ebp]
  000a7	89 88 b4 00 00
	00		 mov	 DWORD PTR [eax+180], ecx

; 3234 : 	ptAct->gy = gy;

  000ad	8b 45 f8	 mov	 eax, DWORD PTR _ptAct$[ebp]
  000b0	8b 4d 10	 mov	 ecx, DWORD PTR _gy$[ebp]
  000b3	89 88 b8 00 00
	00		 mov	 DWORD PTR [eax+184], ecx

; 3235 : 	ptAct->mx = (float)gx * GRID_SIZE;	// ????

  000b9	f3 0f 2a 45 0c	 cvtsi2ss xmm0, DWORD PTR _gx$[ebp]
  000be	f3 0f 59 05 00
	00 00 00	 mulss	 xmm0, DWORD PTR __real@42800000
  000c6	8b 45 f8	 mov	 eax, DWORD PTR _ptAct$[ebp]
  000c9	f3 0f 11 80 18
	01 00 00	 movss	 DWORD PTR [eax+280], xmm0

; 3236 : 	ptAct->my = (float)gy * GRID_SIZE;

  000d1	f3 0f 2a 45 10	 cvtsi2ss xmm0, DWORD PTR _gy$[ebp]
  000d6	f3 0f 59 05 00
	00 00 00	 mulss	 xmm0, DWORD PTR __real@42800000
  000de	8b 45 f8	 mov	 eax, DWORD PTR _ptAct$[ebp]
  000e1	f3 0f 11 80 1c
	01 00 00	 movss	 DWORD PTR [eax+284], xmm0

; 3237 : 	ptAct->vx = 0;						// ?h?

  000e9	8b 45 f8	 mov	 eax, DWORD PTR _ptAct$[ebp]
  000ec	0f 57 c0	 xorps	 xmm0, xmm0
  000ef	f3 0f 11 80 20
	01 00 00	 movss	 DWORD PTR [eax+288], xmm0

; 3238 : 	ptAct->vy = 0;

  000f7	8b 45 f8	 mov	 eax, DWORD PTR _ptAct$[ebp]
  000fa	0f 57 c0	 xorps	 xmm0, xmm0
  000fd	f3 0f 11 80 24
	01 00 00	 movss	 DWORD PTR [eax+292], xmm0

; 3239 : 
; 3240 : 	// ??t
; 3241 : 	camMapToGamen( ptAct->mx, ptAct->my, &mx, &my );

  00105	8d 45 e0	 lea	 eax, DWORD PTR _my$[ebp]
  00108	50		 push	 eax
  00109	8d 4d ec	 lea	 ecx, DWORD PTR _mx$[ebp]
  0010c	51		 push	 ecx
  0010d	8b 55 f8	 mov	 edx, DWORD PTR _ptAct$[ebp]
  00110	51		 push	 ecx
  00111	f3 0f 10 82 1c
	01 00 00	 movss	 xmm0, DWORD PTR [edx+284]
  00119	f3 0f 11 04 24	 movss	 DWORD PTR [esp], xmm0
  0011e	8b 45 f8	 mov	 eax, DWORD PTR _ptAct$[ebp]
  00121	51		 push	 ecx
  00122	f3 0f 10 80 18
	01 00 00	 movss	 xmm0, DWORD PTR [eax+280]
  0012a	f3 0f 11 04 24	 movss	 DWORD PTR [esp], xmm0
  0012f	e8 00 00 00 00	 call	 ?camMapToGamen@@YAXMMPAM0@Z ; camMapToGamen
  00134	83 c4 10	 add	 esp, 16			; 00000010H

; 3242 : 	ptAct->x = (int)(mx+.5);

  00137	f3 0f 5a 45 ec	 cvtss2sd xmm0, DWORD PTR _mx$[ebp]
  0013c	f2 0f 58 05 00
	00 00 00	 addsd	 xmm0, QWORD PTR __real@3fe0000000000000
  00144	f2 0f 2c c0	 cvttsd2si eax, xmm0
  00148	8b 4d f8	 mov	 ecx, DWORD PTR _ptAct$[ebp]
  0014b	89 41 18	 mov	 DWORD PTR [ecx+24], eax

; 3243 : 	ptAct->y = (int)(my+.5);

  0014e	f3 0f 5a 45 e0	 cvtss2sd xmm0, DWORD PTR _my$[ebp]
  00153	f2 0f 58 05 00
	00 00 00	 addsd	 xmm0, QWORD PTR __real@3fe0000000000000
  0015b	f2 0f 2c c0	 cvttsd2si eax, xmm0
  0015f	8b 4d f8	 mov	 ecx, DWORD PTR _ptAct$[ebp]
  00162	89 41 1c	 mov	 DWORD PTR [ecx+28], eax

; 3244 : 
; 3245 : 	pe = (PETEXTRA *)ptAct->pYobi;

  00165	8b 45 f8	 mov	 eax, DWORD PTR _ptAct$[ebp]
  00168	8b 48 0c	 mov	 ecx, DWORD PTR [eax+12]
  0016b	89 4d d4	 mov	 DWORD PTR _pe$[ebp], ecx

; 3246 : 	pe->mode = mode;

  0016e	8b 45 d4	 mov	 eax, DWORD PTR _pe$[ebp]
  00171	66 8b 4d 18	 mov	 cx, WORD PTR _mode$[ebp]
  00175	66 89 08	 mov	 WORD PTR [eax], cx

; 3247 : 	pe->moveDir = moveDir;

  00178	8b 45 d4	 mov	 eax, DWORD PTR _pe$[ebp]
  0017b	66 8b 4d 1c	 mov	 cx, WORD PTR _moveDir$[ebp]
  0017f	66 89 48 02	 mov	 WORD PTR [eax+2], cx

; 3248 : 	limitCantClientDir( &pe->moveDir );

  00183	8b 45 d4	 mov	 eax, DWORD PTR _pe$[ebp]
  00186	83 c0 02	 add	 eax, 2
  00189	50		 push	 eax
  0018a	e8 00 00 00 00	 call	 ?limitCantClientDir@@YAXPAF@Z ; limitCantClientDir
  0018f	83 c4 04	 add	 esp, 4

; 3249 : 	pe->preDir = pe->moveDir;

  00192	8b 45 d4	 mov	 eax, DWORD PTR _pe$[ebp]
  00195	8b 4d d4	 mov	 ecx, DWORD PTR _pe$[ebp]
  00198	66 8b 51 02	 mov	 dx, WORD PTR [ecx+2]
  0019c	66 89 50 04	 mov	 WORD PTR [eax+4], dx

; 3250 : 	pe->dirCnt = 0;

  001a0	33 c0		 xor	 eax, eax
  001a2	8b 4d d4	 mov	 ecx, DWORD PTR _pe$[ebp]
  001a5	66 89 41 06	 mov	 WORD PTR [ecx+6], ax

; 3251 : 	pe->preGx = gx;

  001a9	8b 45 d4	 mov	 eax, DWORD PTR _pe$[ebp]
  001ac	8b 4d 0c	 mov	 ecx, DWORD PTR _gx$[ebp]
  001af	89 48 08	 mov	 DWORD PTR [eax+8], ecx

; 3252 : 	pe->preGy = gy;

  001b2	8b 45 d4	 mov	 eax, DWORD PTR _pe$[ebp]
  001b5	8b 4d 10	 mov	 ecx, DWORD PTR _gy$[ebp]
  001b8	89 48 0c	 mov	 DWORD PTR [eax+12], ecx

; 3253 : 	pe->walkCnt = 0;

  001bb	8b 45 d4	 mov	 eax, DWORD PTR _pe$[ebp]
  001be	c7 40 10 00 00
	00 00		 mov	 DWORD PTR [eax+16], 0

; 3254 : 	pe->createTime = TimeGetTime();

  001c5	e8 00 00 00 00	 call	 ?TimeGetTime@@YAIXZ	; TimeGetTime
  001ca	8b 4d d4	 mov	 ecx, DWORD PTR _pe$[ebp]
  001cd	89 41 14	 mov	 DWORD PTR [ecx+20], eax

; 3255 : 	pe->ptAct  = NULL;

  001d0	8b 45 d4	 mov	 eax, DWORD PTR _pe$[ebp]
  001d3	c7 40 18 00 00
	00 00		 mov	 DWORD PTR [eax+24], 0

; 3256 : 	pe->ptAct2 = NULL;

  001da	8b 45 d4	 mov	 eax, DWORD PTR _pe$[ebp]
  001dd	c7 40 1c 00 00
	00 00		 mov	 DWORD PTR [eax+28], 0

; 3257 : 	pe->angle = 0.0F;

  001e4	8b 45 d4	 mov	 eax, DWORD PTR _pe$[ebp]
  001e7	0f 57 c0	 xorps	 xmm0, xmm0
  001ea	f3 0f 11 40 20	 movss	 DWORD PTR [eax+32], xmm0

; 3258 : 	pe->r = 0;

  001ef	8b 45 d4	 mov	 eax, DWORD PTR _pe$[ebp]
  001f2	c7 40 24 00 00
	00 00		 mov	 DWORD PTR [eax+36], 0

; 3259 : 
; 3260 : 	pe->id = id;

  001f9	8b 45 d4	 mov	 eax, DWORD PTR _pe$[ebp]
  001fc	8b 4d 20	 mov	 ecx, DWORD PTR _id$[ebp]
  001ff	89 48 28	 mov	 DWORD PTR [eax+40], ecx

; 3261 : 
; 3262 : 	return ptAct;

  00202	8b 45 f8	 mov	 eax, DWORD PTR _ptAct$[ebp]
$LN1@createPetA:

; 3263 : }

  00205	52		 push	 edx
  00206	8b cd		 mov	 ecx, ebp
  00208	50		 push	 eax
  00209	8d 15 00 00 00
	00		 lea	 edx, DWORD PTR $LN7@createPetA
  0020f	e8 00 00 00 00	 call	 @_RTC_CheckStackVars@8
  00214	58		 pop	 eax
  00215	5a		 pop	 edx
  00216	5f		 pop	 edi
  00217	5e		 pop	 esi
  00218	5b		 pop	 ebx
  00219	81 c4 f0 00 00
	00		 add	 esp, 240		; 000000f0H
  0021f	3b ec		 cmp	 ebp, esp
  00221	e8 00 00 00 00	 call	 __RTC_CheckEsp
  00226	8b e5		 mov	 esp, ebp
  00228	5d		 pop	 ebp
  00229	c3		 ret	 0
  0022a	66 90		 npad	 2
$LN7@createPetA:
  0022c	02 00 00 00	 DD	 2
  00230	00 00 00 00	 DD	 $LN6@createPetA
$LN6@createPetA:
  00234	ec ff ff ff	 DD	 -20			; ffffffecH
  00238	04 00 00 00	 DD	 4
  0023c	00 00 00 00	 DD	 $LN4@createPetA
  00240	e0 ff ff ff	 DD	 -32			; ffffffe0H
  00244	04 00 00 00	 DD	 4
  00248	00 00 00 00	 DD	 $LN5@createPetA
$LN5@createPetA:
  0024c	6d		 DB	 109			; 0000006dH
  0024d	79		 DB	 121			; 00000079H
  0024e	00		 DB	 0
$LN4@createPetA:
  0024f	6d		 DB	 109			; 0000006dH
  00250	78		 DB	 120			; 00000078H
  00251	00		 DB	 0
?createPetAction@@YAPAUaction@@HHHHHHH@Z ENDP		; createPetAction
_TEXT	ENDS
; Function compile flags: /Odtp /RTCsu /ZI
; File c:\users\administrator\desktop\????? ??\????? ??\client source code\system\character.cpp
;	COMDAT ?itemOverlapCheck@@YAHIHH@Z
_TEXT	SEGMENT
_flag$ = -20						; size = 4
_i$ = -8						; size = 4
_bmpNo$ = 8						; size = 4
_gx$ = 12						; size = 4
_gy$ = 16						; size = 4
?itemOverlapCheck@@YAHIHH@Z PROC			; itemOverlapCheck, COMDAT

; 2803 : {

  00000	55		 push	 ebp
  00001	8b ec		 mov	 ebp, esp
  00003	81 ec d8 00 00
	00		 sub	 esp, 216		; 000000d8H
  00009	53		 push	 ebx
  0000a	56		 push	 esi
  0000b	57		 push	 edi
  0000c	8d bd 28 ff ff
	ff		 lea	 edi, DWORD PTR [ebp-216]
  00012	b9 36 00 00 00	 mov	 ecx, 54			; 00000036H
  00017	b8 cc cc cc cc	 mov	 eax, -858993460		; ccccccccH
  0001c	f3 ab		 rep stosd

; 2804 : 	int i;
; 2805 : 	BOOL flag = FALSE;

  0001e	c7 45 ec 00 00
	00 00		 mov	 DWORD PTR _flag$[ebp], 0

; 2806 : 	for( i = 0; i < itemOverlapCheckCnt; i++ ){

  00025	c7 45 f8 00 00
	00 00		 mov	 DWORD PTR _i$[ebp], 0
  0002c	eb 09		 jmp	 SHORT $LN4@itemOverla
$LN2@itemOverla:
  0002e	8b 45 f8	 mov	 eax, DWORD PTR _i$[ebp]
  00031	83 c0 01	 add	 eax, 1
  00034	89 45 f8	 mov	 DWORD PTR _i$[ebp], eax
$LN4@itemOverla:
  00037	8b 45 f8	 mov	 eax, DWORD PTR _i$[ebp]
  0003a	3b 05 00 00 00
	00		 cmp	 eax, DWORD PTR ?itemOverlapCheckCnt@@3HA ; itemOverlapCheckCnt
  00040	7d 38		 jge	 SHORT $LN3@itemOverla

; 2807 : 		if( itemOverlapTbl[i].bmpNo == bmpNo
; 2808 : 		 && itemOverlapTbl[i].gx == gx
; 2809 : 		 && itemOverlapTbl[i].gy == gy ){

  00042	6b 45 f8 0c	 imul	 eax, DWORD PTR _i$[ebp], 12
  00046	8b 88 00 00 00
	00		 mov	 ecx, DWORD PTR ?itemOverlapTbl@@3PAUITEM_OVERLAP_CHECK@@A[eax]
  0004c	3b 4d 08	 cmp	 ecx, DWORD PTR _bmpNo$[ebp]
  0004f	75 27		 jne	 SHORT $LN5@itemOverla
  00051	6b 45 f8 0c	 imul	 eax, DWORD PTR _i$[ebp], 12
  00055	8b 88 04 00 00
	00		 mov	 ecx, DWORD PTR ?itemOverlapTbl@@3PAUITEM_OVERLAP_CHECK@@A[eax+4]
  0005b	3b 4d 0c	 cmp	 ecx, DWORD PTR _gx$[ebp]
  0005e	75 18		 jne	 SHORT $LN5@itemOverla
  00060	6b 45 f8 0c	 imul	 eax, DWORD PTR _i$[ebp], 12
  00064	8b 88 08 00 00
	00		 mov	 ecx, DWORD PTR ?itemOverlapTbl@@3PAUITEM_OVERLAP_CHECK@@A[eax+8]
  0006a	3b 4d 10	 cmp	 ecx, DWORD PTR _gy$[ebp]
  0006d	75 09		 jne	 SHORT $LN5@itemOverla

; 2810 : 			flag = TRUE;

  0006f	c7 45 ec 01 00
	00 00		 mov	 DWORD PTR _flag$[ebp], 1

; 2811 : 			break;

  00076	eb 02		 jmp	 SHORT $LN3@itemOverla
$LN5@itemOverla:

; 2812 : 		}
; 2813 : 	}

  00078	eb b4		 jmp	 SHORT $LN2@itemOverla
$LN3@itemOverla:

; 2814 : 	if( !flag ){

  0007a	83 7d ec 00	 cmp	 DWORD PTR _flag$[ebp], 0
  0007e	75 46		 jne	 SHORT $LN6@itemOverla

; 2815 : 		if( itemOverlapCheckCnt < MAX_ITEM_OVERLAP ){

  00080	83 3d 00 00 00
	00 64		 cmp	 DWORD PTR ?itemOverlapCheckCnt@@3HA, 100 ; itemOverlapCheckCnt, 00000064H
  00087	7d 3d		 jge	 SHORT $LN6@itemOverla

; 2816 : 			itemOverlapTbl[itemOverlapCheckCnt].bmpNo = bmpNo;

  00089	6b 05 00 00 00
	00 0c		 imul	 eax, DWORD PTR ?itemOverlapCheckCnt@@3HA, 12 ; itemOverlapCheckCnt
  00090	8b 4d 08	 mov	 ecx, DWORD PTR _bmpNo$[ebp]
  00093	89 88 00 00 00
	00		 mov	 DWORD PTR ?itemOverlapTbl@@3PAUITEM_OVERLAP_CHECK@@A[eax], ecx

; 2817 : 			itemOverlapTbl[itemOverlapCheckCnt].gx    = gx;

  00099	6b 05 00 00 00
	00 0c		 imul	 eax, DWORD PTR ?itemOverlapCheckCnt@@3HA, 12 ; itemOverlapCheckCnt
  000a0	8b 4d 0c	 mov	 ecx, DWORD PTR _gx$[ebp]
  000a3	89 88 04 00 00
	00		 mov	 DWORD PTR ?itemOverlapTbl@@3PAUITEM_OVERLAP_CHECK@@A[eax+4], ecx

; 2818 : 			itemOverlapTbl[itemOverlapCheckCnt].gy    = gy;

  000a9	6b 05 00 00 00
	00 0c		 imul	 eax, DWORD PTR ?itemOverlapCheckCnt@@3HA, 12 ; itemOverlapCheckCnt
  000b0	8b 4d 10	 mov	 ecx, DWORD PTR _gy$[ebp]
  000b3	89 88 08 00 00
	00		 mov	 DWORD PTR ?itemOverlapTbl@@3PAUITEM_OVERLAP_CHECK@@A[eax+8], ecx

; 2819 : 			itemOverlapCheckCnt++;

  000b9	a1 00 00 00 00	 mov	 eax, DWORD PTR ?itemOverlapCheckCnt@@3HA ; itemOverlapCheckCnt
  000be	83 c0 01	 add	 eax, 1
  000c1	a3 00 00 00 00	 mov	 DWORD PTR ?itemOverlapCheckCnt@@3HA, eax ; itemOverlapCheckCnt
$LN6@itemOverla:

; 2820 : 		}
; 2821 : 	}
; 2822 : 	return flag;

  000c6	8b 45 ec	 mov	 eax, DWORD PTR _flag$[ebp]

; 2823 : }

  000c9	5f		 pop	 edi
  000ca	5e		 pop	 esi
  000cb	5b		 pop	 ebx
  000cc	8b e5		 mov	 esp, ebp
  000ce	5d		 pop	 ebp
  000cf	c3		 ret	 0
?itemOverlapCheck@@YAHIHH@Z ENDP			; itemOverlapCheck
_TEXT	ENDS
; Function compile flags: /Odtp /RTCsu /ZI
; File c:\users\administrator\desktop\????? ??\????? ??\client source code\system\character.cpp
;	COMDAT ?initItemOverlapCheck@@YAXXZ
_TEXT	SEGMENT
?initItemOverlapCheck@@YAXXZ PROC			; initItemOverlapCheck, COMDAT

; 2795 : {

  00000	55		 push	 ebp
  00001	8b ec		 mov	 ebp, esp
  00003	81 ec c0 00 00
	00		 sub	 esp, 192		; 000000c0H
  00009	53		 push	 ebx
  0000a	56		 push	 esi
  0000b	57		 push	 edi
  0000c	8d bd 40 ff ff
	ff		 lea	 edi, DWORD PTR [ebp-192]
  00012	b9 30 00 00 00	 mov	 ecx, 48			; 00000030H
  00017	b8 cc cc cc cc	 mov	 eax, -858993460		; ccccccccH
  0001c	f3 ab		 rep stosd

; 2796 : 	itemOverlapCheckCnt = 0;

  0001e	c7 05 00 00 00
	00 00 00 00 00	 mov	 DWORD PTR ?itemOverlapCheckCnt@@3HA, 0 ; itemOverlapCheckCnt

; 2797 : }

  00028	5f		 pop	 edi
  00029	5e		 pop	 esi
  0002a	5b		 pop	 ebx
  0002b	8b e5		 mov	 esp, ebp
  0002d	5d		 pop	 ebp
  0002e	c3		 ret	 0
?initItemOverlapCheck@@YAXXZ ENDP			; initItemOverlapCheck
_TEXT	ENDS
; Function compile flags: /Odtp /RTCsu /ZI
; File c:\users\administrator\desktop\????? ??\????? ??\client source code\system\character.cpp
;	COMDAT ?getCharObjBuf@@YAHXZ
_TEXT	SEGMENT
_ret$ = -20						; size = 4
_i$ = -8						; size = 4
?getCharObjBuf@@YAHXZ PROC				; getCharObjBuf, COMDAT

; 2346 : {

  00000	55		 push	 ebp
  00001	8b ec		 mov	 ebp, esp
  00003	81 ec d8 00 00
	00		 sub	 esp, 216		; 000000d8H
  00009	53		 push	 ebx
  0000a	56		 push	 esi
  0000b	57		 push	 edi
  0000c	8d bd 28 ff ff
	ff		 lea	 edi, DWORD PTR [ebp-216]
  00012	b9 36 00 00 00	 mov	 ecx, 54			; 00000036H
  00017	b8 cc cc cc cc	 mov	 eax, -858993460		; ccccccccH
  0001c	f3 ab		 rep stosd

; 2347 : 	int i;
; 2348 : 	int ret;
; 2349 : 	// ????????????
; 2350 : 	if( maxCharObj >= MAX_CHAROBJ )

  0001e	81 3d 00 00 00
	00 dc 05 00 00	 cmp	 DWORD PTR ?maxCharObj@@3HA, 1500 ; maxCharObj, 000005dcH
  00028	7c 08		 jl	 SHORT $LN8@getCharObj

; 2351 : 		return -1;

  0002a	83 c8 ff	 or	 eax, -1
  0002d	e9 bf 00 00 00	 jmp	 $LN1@getCharObj
$LN8@getCharObj:

; 2352 : 	ret = freeCharObj;

  00032	a1 00 00 00 00	 mov	 eax, DWORD PTR ?freeCharObj@@3HA ; freeCharObj
  00037	89 45 ec	 mov	 DWORD PTR _ret$[ebp], eax

; 2353 : 	// D?????k?
; 2354 : 	maxCharObj++;

  0003a	a1 00 00 00 00	 mov	 eax, DWORD PTR ?maxCharObj@@3HA ; maxCharObj
  0003f	83 c0 01	 add	 eax, 1
  00042	a3 00 00 00 00	 mov	 DWORD PTR ?maxCharObj@@3HA, eax ; maxCharObj

; 2355 : 	// ???K??t
; 2356 : 	if( freeCharObj+1 > tailCharObj )

  00047	a1 00 00 00 00	 mov	 eax, DWORD PTR ?freeCharObj@@3HA ; freeCharObj
  0004c	83 c0 01	 add	 eax, 1
  0004f	3b 05 00 00 00
	00		 cmp	 eax, DWORD PTR ?tailCharObj@@3HA ; tailCharObj
  00055	7e 0d		 jle	 SHORT $LN9@getCharObj

; 2357 : 		tailCharObj = freeCharObj+1;

  00057	a1 00 00 00 00	 mov	 eax, DWORD PTR ?freeCharObj@@3HA ; freeCharObj
  0005c	83 c0 01	 add	 eax, 1
  0005f	a3 00 00 00 00	 mov	 DWORD PTR ?tailCharObj@@3HA, eax ; tailCharObj
$LN9@getCharObj:

; 2358 : 	// ???????????
; 2359 : 	for( i = freeCharObj+1; i < MAX_CHAROBJ; i++ ){

  00064	a1 00 00 00 00	 mov	 eax, DWORD PTR ?freeCharObj@@3HA ; freeCharObj
  00069	83 c0 01	 add	 eax, 1
  0006c	89 45 f8	 mov	 DWORD PTR _i$[ebp], eax
  0006f	eb 09		 jmp	 SHORT $LN4@getCharObj
$LN2@getCharObj:
  00071	8b 45 f8	 mov	 eax, DWORD PTR _i$[ebp]
  00074	83 c0 01	 add	 eax, 1
  00077	89 45 f8	 mov	 DWORD PTR _i$[ebp], eax
$LN4@getCharObj:
  0007a	81 7d f8 dc 05
	00 00		 cmp	 DWORD PTR _i$[ebp], 1500 ; 000005dcH
  00081	7d 1e		 jge	 SHORT $LN3@getCharObj

; 2360 : 		if( charObj[i].use == CHAROBJ_USE_FREE ){

  00083	69 45 f8 0c 01
	00 00		 imul	 eax, DWORD PTR _i$[ebp], 268
  0008a	0f bf 88 00 00
	00 00		 movsx	 ecx, WORD PTR ?charObj@@3PAUCHAROBJ@@A[eax]
  00091	85 c9		 test	 ecx, ecx
  00093	75 0a		 jne	 SHORT $LN10@getCharObj

; 2361 : 			freeCharObj = i;

  00095	8b 45 f8	 mov	 eax, DWORD PTR _i$[ebp]
  00098	a3 00 00 00 00	 mov	 DWORD PTR ?freeCharObj@@3HA, eax ; freeCharObj

; 2362 : 			break;

  0009d	eb 02		 jmp	 SHORT $LN3@getCharObj
$LN10@getCharObj:

; 2363 : 		}
; 2364 : 	}

  0009f	eb d0		 jmp	 SHORT $LN2@getCharObj
$LN3@getCharObj:

; 2365 : 	if( freeCharObj > 0 && i >= MAX_CHAROBJ ){

  000a1	83 3d 00 00 00
	00 00		 cmp	 DWORD PTR ?freeCharObj@@3HA, 0 ; freeCharObj
  000a8	7e 44		 jle	 SHORT $LN11@getCharObj
  000aa	81 7d f8 dc 05
	00 00		 cmp	 DWORD PTR _i$[ebp], 1500 ; 000005dcH
  000b1	7c 3b		 jl	 SHORT $LN11@getCharObj

; 2366 : 		for( i = 0; i < freeCharObj; i++ ){

  000b3	c7 45 f8 00 00
	00 00		 mov	 DWORD PTR _i$[ebp], 0
  000ba	eb 09		 jmp	 SHORT $LN7@getCharObj
$LN5@getCharObj:
  000bc	8b 45 f8	 mov	 eax, DWORD PTR _i$[ebp]
  000bf	83 c0 01	 add	 eax, 1
  000c2	89 45 f8	 mov	 DWORD PTR _i$[ebp], eax
$LN7@getCharObj:
  000c5	8b 45 f8	 mov	 eax, DWORD PTR _i$[ebp]
  000c8	3b 05 00 00 00
	00		 cmp	 eax, DWORD PTR ?freeCharObj@@3HA ; freeCharObj
  000ce	7d 1e		 jge	 SHORT $LN11@getCharObj

; 2367 : 			if( charObj[i].use == CHAROBJ_USE_FREE ){

  000d0	69 45 f8 0c 01
	00 00		 imul	 eax, DWORD PTR _i$[ebp], 268
  000d7	0f bf 88 00 00
	00 00		 movsx	 ecx, WORD PTR ?charObj@@3PAUCHAROBJ@@A[eax]
  000de	85 c9		 test	 ecx, ecx
  000e0	75 0a		 jne	 SHORT $LN12@getCharObj

; 2368 : 				freeCharObj = i;

  000e2	8b 45 f8	 mov	 eax, DWORD PTR _i$[ebp]
  000e5	a3 00 00 00 00	 mov	 DWORD PTR ?freeCharObj@@3HA, eax ; freeCharObj

; 2369 : 				break;

  000ea	eb 02		 jmp	 SHORT $LN11@getCharObj
$LN12@getCharObj:

; 2370 : 			}
; 2371 : 		}

  000ec	eb ce		 jmp	 SHORT $LN5@getCharObj
$LN11@getCharObj:

; 2372 : 	}
; 2373 : 	return ret;

  000ee	8b 45 ec	 mov	 eax, DWORD PTR _ret$[ebp]
$LN1@getCharObj:

; 2374 : }

  000f1	5f		 pop	 edi
  000f2	5e		 pop	 esi
  000f3	5b		 pop	 ebx
  000f4	8b e5		 mov	 esp, ebp
  000f6	5d		 pop	 ebp
  000f7	c3		 ret	 0
?getCharObjBuf@@YAHXZ ENDP				; getCharObjBuf
_TEXT	ENDS
; Function compile flags: /Odtp /RTCsu /ZI
; File c:\users\administrator\desktop\????? ??\????? ??\client source code\system\character.cpp
;	COMDAT ?getCharObjAct@@YAPAUaction@@H@Z
_TEXT	SEGMENT
_no$ = -8						; size = 4
_id$ = 8						; size = 4
?getCharObjAct@@YAPAUaction@@H@Z PROC			; getCharObjAct, COMDAT

; 2424 : {

  00000	55		 push	 ebp
  00001	8b ec		 mov	 ebp, esp
  00003	81 ec cc 00 00
	00		 sub	 esp, 204		; 000000ccH
  00009	53		 push	 ebx
  0000a	56		 push	 esi
  0000b	57		 push	 edi
  0000c	8d bd 34 ff ff
	ff		 lea	 edi, DWORD PTR [ebp-204]
  00012	b9 33 00 00 00	 mov	 ecx, 51			; 00000033H
  00017	b8 cc cc cc cc	 mov	 eax, -858993460		; ccccccccH
  0001c	f3 ab		 rep stosd

; 2425 : 	int no;
; 2426 : 	if( (no = searchCharObjId( id )) < 0 )

  0001e	8b 45 08	 mov	 eax, DWORD PTR _id$[ebp]
  00021	50		 push	 eax
  00022	e8 00 00 00 00	 call	 ?searchCharObjId@@YAHH@Z ; searchCharObjId
  00027	83 c4 04	 add	 esp, 4
  0002a	89 45 f8	 mov	 DWORD PTR _no$[ebp], eax
  0002d	83 7d f8 00	 cmp	 DWORD PTR _no$[ebp], 0
  00031	7d 04		 jge	 SHORT $LN2@getCharObj

; 2427 : 		return NULL;

  00033	33 c0		 xor	 eax, eax
  00035	eb 21		 jmp	 SHORT $LN1@getCharObj
$LN2@getCharObj:

; 2428 : 	if( charObj[no].ptAct == NULL )

  00037	69 45 f8 0c 01
	00 00		 imul	 eax, DWORD PTR _no$[ebp], 268
  0003e	83 b8 bc 00 00
	00 00		 cmp	 DWORD PTR ?charObj@@3PAUCHAROBJ@@A[eax+188], 0
  00045	75 04		 jne	 SHORT $LN3@getCharObj

; 2429 : 		return NULL;

  00047	33 c0		 xor	 eax, eax
  00049	eb 0d		 jmp	 SHORT $LN1@getCharObj
$LN3@getCharObj:

; 2430 : 	return charObj[no].ptAct;

  0004b	69 45 f8 0c 01
	00 00		 imul	 eax, DWORD PTR _no$[ebp], 268
  00052	8b 80 bc 00 00
	00		 mov	 eax, DWORD PTR ?charObj@@3PAUCHAROBJ@@A[eax+188]
$LN1@getCharObj:

; 2431 : }

  00058	5f		 pop	 edi
  00059	5e		 pop	 esi
  0005a	5b		 pop	 ebx
  0005b	81 c4 cc 00 00
	00		 add	 esp, 204		; 000000ccH
  00061	3b ec		 cmp	 ebp, esp
  00063	e8 00 00 00 00	 call	 __RTC_CheckEsp
  00068	8b e5		 mov	 esp, ebp
  0006a	5d		 pop	 ebp
  0006b	c3		 ret	 0
?getCharObjAct@@YAPAUaction@@H@Z ENDP			; getCharObjAct
_TEXT	ENDS
; Function compile flags: /Odtp /RTCsu /ZI
; File c:\users\administrator\desktop\????? ??\????? ??\client source code\system\character.cpp
;	COMDAT ?setMovePointCharObj@@YAXHHH@Z
_TEXT	SEGMENT
_no$ = -8						; size = 4
_id$ = 8						; size = 4
_nextGx$ = 12						; size = 4
_nextGy$ = 16						; size = 4
?setMovePointCharObj@@YAXHHH@Z PROC			; setMovePointCharObj, COMDAT

; 2767 : {

  00000	55		 push	 ebp
  00001	8b ec		 mov	 ebp, esp
  00003	81 ec cc 00 00
	00		 sub	 esp, 204		; 000000ccH
  00009	53		 push	 ebx
  0000a	56		 push	 esi
  0000b	57		 push	 edi
  0000c	8d bd 34 ff ff
	ff		 lea	 edi, DWORD PTR [ebp-204]
  00012	b9 33 00 00 00	 mov	 ecx, 51			; 00000033H
  00017	b8 cc cc cc cc	 mov	 eax, -858993460		; ccccccccH
  0001c	f3 ab		 rep stosd

; 2768 : 	int no;
; 2769 : 
; 2770 : 	no = searchCharObjId( id );

  0001e	8b 45 08	 mov	 eax, DWORD PTR _id$[ebp]
  00021	50		 push	 eax
  00022	e8 00 00 00 00	 call	 ?searchCharObjId@@YAHH@Z ; searchCharObjId
  00027	83 c4 04	 add	 esp, 4
  0002a	89 45 f8	 mov	 DWORD PTR _no$[ebp], eax

; 2771 : 	if( no >= 0 )

  0002d	83 7d f8 00	 cmp	 DWORD PTR _no$[ebp], 0
  00031	7c 1e		 jl	 SHORT $LN1@setMovePoi

; 2772 : 	{
; 2773 : 		stockCharMovePoint( charObj[no].ptAct, nextGx, nextGy );

  00033	8b 45 10	 mov	 eax, DWORD PTR _nextGy$[ebp]
  00036	50		 push	 eax
  00037	8b 4d 0c	 mov	 ecx, DWORD PTR _nextGx$[ebp]
  0003a	51		 push	 ecx
  0003b	69 55 f8 0c 01
	00 00		 imul	 edx, DWORD PTR _no$[ebp], 268
  00042	8b 82 bc 00 00
	00		 mov	 eax, DWORD PTR ?charObj@@3PAUCHAROBJ@@A[edx+188]
  00048	50		 push	 eax
  00049	e8 00 00 00 00	 call	 ?stockCharMovePoint@@YAXPAUaction@@HH@Z ; stockCharMovePoint
  0004e	83 c4 0c	 add	 esp, 12			; 0000000cH
$LN1@setMovePoi:

; 2774 : 	}
; 2775 : }

  00051	5f		 pop	 edi
  00052	5e		 pop	 esi
  00053	5b		 pop	 ebx
  00054	81 c4 cc 00 00
	00		 add	 esp, 204		; 000000ccH
  0005a	3b ec		 cmp	 ebp, esp
  0005c	e8 00 00 00 00	 call	 __RTC_CheckEsp
  00061	8b e5		 mov	 esp, ebp
  00063	5d		 pop	 ebp
  00064	c3		 ret	 0
?setMovePointCharObj@@YAXHHH@Z ENDP			; setMovePointCharObj
_TEXT	ENDS
; Function compile flags: /Odtp /RTCsu /ZI
; File c:\users\administrator\desktop\????? ??\????? ??\client source code\system\character.cpp
;	COMDAT ?restorePtActCharObj@@YAXH@Z
_TEXT	SEGMENT
_ext$ = -20						; size = 4
_no$ = -8						; size = 4
_id$ = 8						; size = 4
?restorePtActCharObj@@YAXH@Z PROC			; restorePtActCharObj, COMDAT

; 2728 : {

  00000	55		 push	 ebp
  00001	8b ec		 mov	 ebp, esp
  00003	81 ec d8 00 00
	00		 sub	 esp, 216		; 000000d8H
  00009	53		 push	 ebx
  0000a	56		 push	 esi
  0000b	57		 push	 edi
  0000c	8d bd 28 ff ff
	ff		 lea	 edi, DWORD PTR [ebp-216]
  00012	b9 36 00 00 00	 mov	 ecx, 54			; 00000036H
  00017	b8 cc cc cc cc	 mov	 eax, -858993460		; ccccccccH
  0001c	f3 ab		 rep stosd

; 2729 : 	int no;
; 2730 : 	CHAREXTRA *ext;
; 2731 : 
; 2732 : 	if( id < 0 )

  0001e	83 7d 08 00	 cmp	 DWORD PTR _id$[ebp], 0
  00022	7d 05		 jge	 SHORT $LN2@restorePtA

; 2733 : 		return;

  00024	e9 4d 01 00 00	 jmp	 $LN1@restorePtA
$LN2@restorePtA:

; 2734 : 
; 2735 : 	// K???????????
; 2736 : 	if( (no = searchCharObjId( id )) < 0 )

  00029	8b 45 08	 mov	 eax, DWORD PTR _id$[ebp]
  0002c	50		 push	 eax
  0002d	e8 00 00 00 00	 call	 ?searchCharObjId@@YAHH@Z ; searchCharObjId
  00032	83 c4 04	 add	 esp, 4
  00035	89 45 f8	 mov	 DWORD PTR _no$[ebp], eax
  00038	83 7d f8 00	 cmp	 DWORD PTR _no$[ebp], 0
  0003c	7d 05		 jge	 SHORT $LN3@restorePtA

; 2737 : 	{
; 2738 : 		// ??????
; 2739 : 		return;

  0003e	e9 33 01 00 00	 jmp	 $LN1@restorePtA
$LN3@restorePtA:

; 2740 : 	}
; 2741 : 
; 2742 : 	if( charObj[no].use != CHAROBJ_USE_FREE
; 2743 : 	 && charObj[no].ptAct == NULL )

  00043	69 45 f8 0c 01
	00 00		 imul	 eax, DWORD PTR _no$[ebp], 268
  0004a	0f bf 88 00 00
	00 00		 movsx	 ecx, WORD PTR ?charObj@@3PAUCHAROBJ@@A[eax]
  00051	85 c9		 test	 ecx, ecx
  00053	0f 84 1d 01 00
	00		 je	 $LN1@restorePtA
  00059	69 45 f8 0c 01
	00 00		 imul	 eax, DWORD PTR _no$[ebp], 268
  00060	83 b8 bc 00 00
	00 00		 cmp	 DWORD PTR ?charObj@@3PAUCHAROBJ@@A[eax+188], 0
  00067	0f 85 09 01 00
	00		 jne	 $LN1@restorePtA

; 2744 : 	{
; 2745 : 		charObj[no].ptAct =

  0006d	69 45 f8 0c 01
	00 00		 imul	 eax, DWORD PTR _no$[ebp], 268
  00074	8b 88 18 00 00
	00		 mov	 ecx, DWORD PTR ?charObj@@3PAUCHAROBJ@@A[eax+24]
  0007a	51		 push	 ecx
  0007b	69 55 f8 0c 01
	00 00		 imul	 edx, DWORD PTR _no$[ebp], 268
  00082	8b 82 10 00 00
	00		 mov	 eax, DWORD PTR ?charObj@@3PAUCHAROBJ@@A[edx+16]
  00088	50		 push	 eax
  00089	69 4d f8 0c 01
	00 00		 imul	 ecx, DWORD PTR _no$[ebp], 268
  00090	8b 91 0c 00 00
	00		 mov	 edx, DWORD PTR ?charObj@@3PAUCHAROBJ@@A[ecx+12]
  00096	52		 push	 edx
  00097	69 45 f8 0c 01
	00 00		 imul	 eax, DWORD PTR _no$[ebp], 268
  0009e	8b 88 08 00 00
	00		 mov	 ecx, DWORD PTR ?charObj@@3PAUCHAROBJ@@A[eax+8]
  000a4	51		 push	 ecx
  000a5	e8 00 00 00 00	 call	 ?createCharAction@@YAPAUaction@@HHHH@Z ; createCharAction
  000aa	83 c4 10	 add	 esp, 16			; 00000010H
  000ad	69 55 f8 0c 01
	00 00		 imul	 edx, DWORD PTR _no$[ebp], 268
  000b4	89 82 bc 00 00
	00		 mov	 DWORD PTR ?charObj@@3PAUCHAROBJ@@A[edx+188], eax

; 2746 : 			createCharAction( charObj[no].graNo, charObj[no].gx, charObj[no].gy, charObj[no].dir );
; 2747 : 		if( charObj[no].ptAct == NULL )

  000ba	69 45 f8 0c 01
	00 00		 imul	 eax, DWORD PTR _no$[ebp], 268
  000c1	83 b8 bc 00 00
	00 00		 cmp	 DWORD PTR ?charObj@@3PAUCHAROBJ@@A[eax+188], 0
  000c8	75 05		 jne	 SHORT $LN5@restorePtA

; 2748 : 		{
; 2749 : 			// ???????????????
; 2750 : 			return;

  000ca	e9 a7 00 00 00	 jmp	 $LN1@restorePtA
$LN5@restorePtA:

; 2751 : 		}
; 2752 : 
; 2753 : 		charObj[no].use = CHAROBJ_USE_VIEW;

  000cf	69 45 f8 0c 01
	00 00		 imul	 eax, DWORD PTR _no$[ebp], 268
  000d6	b9 02 00 00 00	 mov	 ecx, 2
  000db	66 89 88 00 00
	00 00		 mov	 WORD PTR ?charObj@@3PAUCHAROBJ@@A[eax], cx

; 2754 : 
; 2755 : 		ext = (CHAREXTRA *)charObj[no].ptAct->pYobi;

  000e2	69 45 f8 0c 01
	00 00		 imul	 eax, DWORD PTR _no$[ebp], 268
  000e9	8b 88 bc 00 00
	00		 mov	 ecx, DWORD PTR ?charObj@@3PAUCHAROBJ@@A[eax+188]
  000ef	8b 51 0c	 mov	 edx, DWORD PTR [ecx+12]
  000f2	89 55 ec	 mov	 DWORD PTR _ext$[ebp], edx

; 2756 : 		ext->charObjTblId = no;

  000f5	8b 45 ec	 mov	 eax, DWORD PTR _ext$[ebp]
  000f8	8b 4d f8	 mov	 ecx, DWORD PTR _no$[ebp]
  000fb	89 08		 mov	 DWORD PTR [eax], ecx

; 2757 : 
; 2758 : 		charObj[no].ptAct->level = charObj[no].level;

  000fd	69 45 f8 0c 01
	00 00		 imul	 eax, DWORD PTR _no$[ebp], 268
  00104	69 4d f8 0c 01
	00 00		 imul	 ecx, DWORD PTR _no$[ebp], 268
  0010b	8b 91 bc 00 00
	00		 mov	 edx, DWORD PTR ?charObj@@3PAUCHAROBJ@@A[ecx+188]
  00111	8b 80 14 00 00
	00		 mov	 eax, DWORD PTR ?charObj@@3PAUCHAROBJ@@A[eax+20]
  00117	89 82 8c 00 00
	00		 mov	 DWORD PTR [edx+140], eax

; 2759 : 		strcpy( charObj[no].ptAct->name, charObj[no].name );

  0011d	69 45 f8 0c 01
	00 00		 imul	 eax, DWORD PTR _no$[ebp], 268
  00124	05 38 00 00 00	 add	 eax, OFFSET ?charObj@@3PAUCHAROBJ@@A+56
  00129	50		 push	 eax
  0012a	69 4d f8 0c 01
	00 00		 imul	 ecx, DWORD PTR _no$[ebp], 268
  00131	8b 91 bc 00 00
	00		 mov	 edx, DWORD PTR ?charObj@@3PAUCHAROBJ@@A[ecx+188]
  00137	83 c2 38	 add	 edx, 56			; 00000038H
  0013a	52		 push	 edx
  0013b	e8 00 00 00 00	 call	 _strcpy
  00140	83 c4 08	 add	 esp, 8

; 2760 : 		charObj[no].ptAct->atr |= charObj[no].charType;

  00143	69 45 f8 0c 01
	00 00		 imul	 eax, DWORD PTR _no$[ebp], 268
  0014a	8b 88 bc 00 00
	00		 mov	 ecx, DWORD PTR ?charObj@@3PAUCHAROBJ@@A[eax+188]
  00150	69 55 f8 0c 01
	00 00		 imul	 edx, DWORD PTR _no$[ebp], 268
  00157	8b 81 a4 00 00
	00		 mov	 eax, DWORD PTR [ecx+164]
  0015d	0b 82 b4 00 00
	00		 or	 eax, DWORD PTR ?charObj@@3PAUCHAROBJ@@A[edx+180]
  00163	69 4d f8 0c 01
	00 00		 imul	 ecx, DWORD PTR _no$[ebp], 268
  0016a	8b 91 bc 00 00
	00		 mov	 edx, DWORD PTR ?charObj@@3PAUCHAROBJ@@A[ecx+188]
  00170	89 82 a4 00 00
	00		 mov	 DWORD PTR [edx+164], eax
$LN1@restorePtA:

; 2761 : 	}
; 2762 : }

  00176	5f		 pop	 edi
  00177	5e		 pop	 esi
  00178	5b		 pop	 ebx
  00179	81 c4 d8 00 00
	00		 add	 esp, 216		; 000000d8H
  0017f	3b ec		 cmp	 ebp, esp
  00181	e8 00 00 00 00	 call	 __RTC_CheckEsp
  00186	8b e5		 mov	 esp, ebp
  00188	5d		 pop	 ebp
  00189	c3		 ret	 0
?restorePtActCharObj@@YAXH@Z ENDP			; restorePtActCharObj
_TEXT	ENDS
; Function compile flags: /Odtp /RTCsu /ZI
; File c:\users\administrator\desktop\????? ??\????? ??\client source code\system\character.cpp
;	COMDAT ?restorePtActCharObjAll@@YAXXZ
_TEXT	SEGMENT
_ext$ = -20						; size = 4
_i$ = -8						; size = 4
?restorePtActCharObjAll@@YAXXZ PROC			; restorePtActCharObjAll, COMDAT

; 2660 : {

  00000	55		 push	 ebp
  00001	8b ec		 mov	 ebp, esp
  00003	81 ec d8 00 00
	00		 sub	 esp, 216		; 000000d8H
  00009	53		 push	 ebx
  0000a	56		 push	 esi
  0000b	57		 push	 edi
  0000c	8d bd 28 ff ff
	ff		 lea	 edi, DWORD PTR [ebp-216]
  00012	b9 36 00 00 00	 mov	 ecx, 54			; 00000036H
  00017	b8 cc cc cc cc	 mov	 eax, -858993460		; ccccccccH
  0001c	f3 ab		 rep stosd

; 2661 : 	int i;
; 2662 : 	CHAREXTRA *ext;
; 2663 : 
; 2664 : 	for( i = 0; i < MAX_CHAROBJ; i++ )

  0001e	c7 45 f8 00 00
	00 00		 mov	 DWORD PTR _i$[ebp], 0
  00025	eb 09		 jmp	 SHORT $LN4@restorePtA
$LN2@restorePtA:
  00027	8b 45 f8	 mov	 eax, DWORD PTR _i$[ebp]
  0002a	83 c0 01	 add	 eax, 1
  0002d	89 45 f8	 mov	 DWORD PTR _i$[ebp], eax
$LN4@restorePtA:
  00030	81 7d f8 dc 05
	00 00		 cmp	 DWORD PTR _i$[ebp], 1500 ; 000005dcH
  00037	0f 8d bc 02 00
	00		 jge	 $LN1@restorePtA

; 2665 : 	{
; 2666 : 		if( charObj[i].use != CHAROBJ_USE_FREE
; 2667 : 		 && charObj[i].ptAct == NULL )

  0003d	69 45 f8 0c 01
	00 00		 imul	 eax, DWORD PTR _i$[ebp], 268
  00044	0f bf 88 00 00
	00 00		 movsx	 ecx, WORD PTR ?charObj@@3PAUCHAROBJ@@A[eax]
  0004b	85 c9		 test	 ecx, ecx
  0004d	0f 84 a1 02 00
	00		 je	 $LN5@restorePtA
  00053	69 45 f8 0c 01
	00 00		 imul	 eax, DWORD PTR _i$[ebp], 268
  0005a	83 b8 bc 00 00
	00 00		 cmp	 DWORD PTR ?charObj@@3PAUCHAROBJ@@A[eax+188], 0
  00061	0f 85 8d 02 00
	00		 jne	 $LN5@restorePtA

; 2668 : 		{
; 2669 : 			charObj[i].ptAct =

  00067	69 45 f8 0c 01
	00 00		 imul	 eax, DWORD PTR _i$[ebp], 268
  0006e	8b 88 18 00 00
	00		 mov	 ecx, DWORD PTR ?charObj@@3PAUCHAROBJ@@A[eax+24]
  00074	51		 push	 ecx
  00075	69 55 f8 0c 01
	00 00		 imul	 edx, DWORD PTR _i$[ebp], 268
  0007c	8b 82 10 00 00
	00		 mov	 eax, DWORD PTR ?charObj@@3PAUCHAROBJ@@A[edx+16]
  00082	50		 push	 eax
  00083	69 4d f8 0c 01
	00 00		 imul	 ecx, DWORD PTR _i$[ebp], 268
  0008a	8b 91 0c 00 00
	00		 mov	 edx, DWORD PTR ?charObj@@3PAUCHAROBJ@@A[ecx+12]
  00090	52		 push	 edx
  00091	69 45 f8 0c 01
	00 00		 imul	 eax, DWORD PTR _i$[ebp], 268
  00098	8b 88 08 00 00
	00		 mov	 ecx, DWORD PTR ?charObj@@3PAUCHAROBJ@@A[eax+8]
  0009e	51		 push	 ecx
  0009f	e8 00 00 00 00	 call	 ?createCharAction@@YAPAUaction@@HHHH@Z ; createCharAction
  000a4	83 c4 10	 add	 esp, 16			; 00000010H
  000a7	69 55 f8 0c 01
	00 00		 imul	 edx, DWORD PTR _i$[ebp], 268
  000ae	89 82 bc 00 00
	00		 mov	 DWORD PTR ?charObj@@3PAUCHAROBJ@@A[edx+188], eax

; 2670 : 				createCharAction( charObj[i].graNo, charObj[i].gx, charObj[i].gy, charObj[i].dir );
; 2671 : 			if( charObj[i].ptAct == NULL )

  000b4	69 45 f8 0c 01
	00 00		 imul	 eax, DWORD PTR _i$[ebp], 268
  000bb	83 b8 bc 00 00
	00 00		 cmp	 DWORD PTR ?charObj@@3PAUCHAROBJ@@A[eax+188], 0
  000c2	75 05		 jne	 SHORT $LN6@restorePtA

; 2672 : 			{
; 2673 : 				continue;

  000c4	e9 5e ff ff ff	 jmp	 $LN2@restorePtA
$LN6@restorePtA:

; 2674 : 			}
; 2675 : 
; 2676 : 			charObj[i].use = CHAROBJ_USE_VIEW;

  000c9	69 45 f8 0c 01
	00 00		 imul	 eax, DWORD PTR _i$[ebp], 268
  000d0	b9 02 00 00 00	 mov	 ecx, 2
  000d5	66 89 88 00 00
	00 00		 mov	 WORD PTR ?charObj@@3PAUCHAROBJ@@A[eax], cx

; 2677 : 
; 2678 : 			ext = (CHAREXTRA *)charObj[i].ptAct->pYobi;

  000dc	69 45 f8 0c 01
	00 00		 imul	 eax, DWORD PTR _i$[ebp], 268
  000e3	8b 88 bc 00 00
	00		 mov	 ecx, DWORD PTR ?charObj@@3PAUCHAROBJ@@A[eax+188]
  000e9	8b 51 0c	 mov	 edx, DWORD PTR [ecx+12]
  000ec	89 55 ec	 mov	 DWORD PTR _ext$[ebp], edx

; 2679 : 			ext->charObjTblId = i;

  000ef	8b 45 ec	 mov	 eax, DWORD PTR _ext$[ebp]
  000f2	8b 4d f8	 mov	 ecx, DWORD PTR _i$[ebp]
  000f5	89 08		 mov	 DWORD PTR [eax], ecx

; 2680 : 
; 2681 : 			// NPC????????
; 2682 : 			// \?PC????????
; 2683 : 			// ?Y
; 2684 : 			if( charObj[i].type == CHAROBJ_TYPE_NPC
; 2685 : 			 || charObj[i].type == CHAROBJ_TYPE_USER_NPC )

  000f7	69 45 f8 0c 01
	00 00		 imul	 eax, DWORD PTR _i$[ebp], 268
  000fe	0f bf 88 02 00
	00 00		 movsx	 ecx, WORD PTR ?charObj@@3PAUCHAROBJ@@A[eax+2]
  00105	83 f9 01	 cmp	 ecx, 1
  00108	74 13		 je	 SHORT $LN9@restorePtA
  0010a	69 45 f8 0c 01
	00 00		 imul	 eax, DWORD PTR _i$[ebp], 268
  00111	0f bf 88 02 00
	00 00		 movsx	 ecx, WORD PTR ?charObj@@3PAUCHAROBJ@@A[eax+2]
  00118	83 f9 08	 cmp	 ecx, 8
  0011b	75 7e		 jne	 SHORT $LN7@restorePtA
$LN9@restorePtA:

; 2686 : 			{
; 2687 : 				charObj[i].ptAct->level = charObj[i].level;

  0011d	69 45 f8 0c 01
	00 00		 imul	 eax, DWORD PTR _i$[ebp], 268
  00124	69 4d f8 0c 01
	00 00		 imul	 ecx, DWORD PTR _i$[ebp], 268
  0012b	8b 91 bc 00 00
	00		 mov	 edx, DWORD PTR ?charObj@@3PAUCHAROBJ@@A[ecx+188]
  00131	8b 80 14 00 00
	00		 mov	 eax, DWORD PTR ?charObj@@3PAUCHAROBJ@@A[eax+20]
  00137	89 82 8c 00 00
	00		 mov	 DWORD PTR [edx+140], eax

; 2688 : 				strcpy( charObj[i].ptAct->name, charObj[i].name );

  0013d	69 45 f8 0c 01
	00 00		 imul	 eax, DWORD PTR _i$[ebp], 268
  00144	05 38 00 00 00	 add	 eax, OFFSET ?charObj@@3PAUCHAROBJ@@A+56
  00149	50		 push	 eax
  0014a	69 4d f8 0c 01
	00 00		 imul	 ecx, DWORD PTR _i$[ebp], 268
  00151	8b 91 bc 00 00
	00		 mov	 edx, DWORD PTR ?charObj@@3PAUCHAROBJ@@A[ecx+188]
  00157	83 c2 38	 add	 edx, 56			; 00000038H
  0015a	52		 push	 edx
  0015b	e8 00 00 00 00	 call	 _strcpy
  00160	83 c4 08	 add	 esp, 8

; 2689 : 				charObj[i].ptAct->atr |= charObj[i].charType;

  00163	69 45 f8 0c 01
	00 00		 imul	 eax, DWORD PTR _i$[ebp], 268
  0016a	8b 88 bc 00 00
	00		 mov	 ecx, DWORD PTR ?charObj@@3PAUCHAROBJ@@A[eax+188]
  00170	69 55 f8 0c 01
	00 00		 imul	 edx, DWORD PTR _i$[ebp], 268
  00177	8b 81 a4 00 00
	00		 mov	 eax, DWORD PTR [ecx+164]
  0017d	0b 82 b4 00 00
	00		 or	 eax, DWORD PTR ?charObj@@3PAUCHAROBJ@@A[edx+180]
  00183	69 4d f8 0c 01
	00 00		 imul	 ecx, DWORD PTR _i$[ebp], 268
  0018a	8b 91 bc 00 00
	00		 mov	 edx, DWORD PTR ?charObj@@3PAUCHAROBJ@@A[ecx+188]
  00190	89 82 a4 00 00
	00		 mov	 DWORD PTR [edx+164], eax

; 2690 : 			}
; 2691 : 			else

  00196	e9 59 01 00 00	 jmp	 $LN5@restorePtA
$LN7@restorePtA:

; 2692 : 			// Item????????
; 2693 : 			if( charObj[i].type == CHAROBJ_TYPE_ITEM )

  0019b	69 45 f8 0c 01
	00 00		 imul	 eax, DWORD PTR _i$[ebp], 268
  001a2	0f bf 88 02 00
	00 00		 movsx	 ecx, WORD PTR ?charObj@@3PAUCHAROBJ@@A[eax+2]
  001a9	83 f9 02	 cmp	 ecx, 2
  001ac	0f 85 98 00 00
	00		 jne	 $LN10@restorePtA

; 2694 : 			{
; 2695 : 				// 1??????????name?V??
; 2696 : 				if( strlen( charObj[i].info ) <= ITEM_NAME_LEN )

  001b2	69 45 f8 0c 01
	00 00		 imul	 eax, DWORD PTR _i$[ebp], 268
  001b9	05 6a 00 00 00	 add	 eax, OFFSET ?charObj@@3PAUCHAROBJ@@A+106
  001be	50		 push	 eax
  001bf	e8 00 00 00 00	 call	 _strlen
  001c4	83 c4 04	 add	 esp, 4
  001c7	83 f8 1c	 cmp	 eax, 28			; 0000001cH
  001ca	77 28		 ja	 SHORT $LN12@restorePtA

; 2697 : 				{
; 2698 : 					strcpy( charObj[i].ptAct->name, charObj[i].info );

  001cc	69 45 f8 0c 01
	00 00		 imul	 eax, DWORD PTR _i$[ebp], 268
  001d3	05 6a 00 00 00	 add	 eax, OFFSET ?charObj@@3PAUCHAROBJ@@A+106
  001d8	50		 push	 eax
  001d9	69 4d f8 0c 01
	00 00		 imul	 ecx, DWORD PTR _i$[ebp], 268
  001e0	8b 91 bc 00 00
	00		 mov	 edx, DWORD PTR ?charObj@@3PAUCHAROBJ@@A[ecx+188]
  001e6	83 c2 38	 add	 edx, 56			; 00000038H
  001e9	52		 push	 edx
  001ea	e8 00 00 00 00	 call	 _strcpy
  001ef	83 c4 08	 add	 esp, 8

; 2699 : 				}
; 2700 : 				else

  001f2	eb 1e		 jmp	 SHORT $LN13@restorePtA
$LN12@restorePtA:

; 2701 : 				{
; 2702 : 					strcpy( charObj[i].ptAct->name, "???" );

  001f4	68 00 00 00 00	 push	 OFFSET ??_C@_03BBKEAIF@?$DP?$DP?$DP?$AA@
  001f9	69 45 f8 0c 01
	00 00		 imul	 eax, DWORD PTR _i$[ebp], 268
  00200	8b 88 bc 00 00
	00		 mov	 ecx, DWORD PTR ?charObj@@3PAUCHAROBJ@@A[eax+188]
  00206	83 c1 38	 add	 ecx, 56			; 00000038H
  00209	51		 push	 ecx
  0020a	e8 00 00 00 00	 call	 _strcpy
  0020f	83 c4 08	 add	 esp, 8
$LN13@restorePtA:

; 2703 : 				}
; 2704 : 				charObj[i].ptAct->atr |= charObj[i].charType;

  00212	69 45 f8 0c 01
	00 00		 imul	 eax, DWORD PTR _i$[ebp], 268
  00219	8b 88 bc 00 00
	00		 mov	 ecx, DWORD PTR ?charObj@@3PAUCHAROBJ@@A[eax+188]
  0021f	69 55 f8 0c 01
	00 00		 imul	 edx, DWORD PTR _i$[ebp], 268
  00226	8b 81 a4 00 00
	00		 mov	 eax, DWORD PTR [ecx+164]
  0022c	0b 82 b4 00 00
	00		 or	 eax, DWORD PTR ?charObj@@3PAUCHAROBJ@@A[edx+180]
  00232	69 4d f8 0c 01
	00 00		 imul	 ecx, DWORD PTR _i$[ebp], 268
  00239	8b 91 bc 00 00
	00		 mov	 edx, DWORD PTR ?charObj@@3PAUCHAROBJ@@A[ecx+188]
  0023f	89 82 a4 00 00
	00		 mov	 DWORD PTR [edx+164], eax

; 2705 : 			}
; 2706 : 			else

  00245	e9 aa 00 00 00	 jmp	 $LN5@restorePtA
$LN10@restorePtA:

; 2707 : 			// ??????????
; 2708 : 			if( charObj[i].type == CHAROBJ_TYPE_MONEY )

  0024a	69 45 f8 0c 01
	00 00		 imul	 eax, DWORD PTR _i$[ebp], 268
  00251	0f bf 88 02 00
	00 00		 movsx	 ecx, WORD PTR ?charObj@@3PAUCHAROBJ@@A[eax+2]
  00258	83 f9 04	 cmp	 ecx, 4
  0025b	0f 85 93 00 00
	00		 jne	 $LN5@restorePtA

; 2709 : 			{
; 2710 : 				// 1??????????name?V??
; 2711 : 				if( strlen( charObj[i].info ) <= CHAR_NAME_LEN )

  00261	69 45 f8 0c 01
	00 00		 imul	 eax, DWORD PTR _i$[ebp], 268
  00268	05 6a 00 00 00	 add	 eax, OFFSET ?charObj@@3PAUCHAROBJ@@A+106
  0026d	50		 push	 eax
  0026e	e8 00 00 00 00	 call	 _strlen
  00273	83 c4 04	 add	 esp, 4
  00276	83 f8 10	 cmp	 eax, 16			; 00000010H
  00279	77 28		 ja	 SHORT $LN15@restorePtA

; 2712 : 				{
; 2713 : 					strcpy( charObj[i].ptAct->name, charObj[i].info );

  0027b	69 45 f8 0c 01
	00 00		 imul	 eax, DWORD PTR _i$[ebp], 268
  00282	05 6a 00 00 00	 add	 eax, OFFSET ?charObj@@3PAUCHAROBJ@@A+106
  00287	50		 push	 eax
  00288	69 4d f8 0c 01
	00 00		 imul	 ecx, DWORD PTR _i$[ebp], 268
  0028f	8b 91 bc 00 00
	00		 mov	 edx, DWORD PTR ?charObj@@3PAUCHAROBJ@@A[ecx+188]
  00295	83 c2 38	 add	 edx, 56			; 00000038H
  00298	52		 push	 edx
  00299	e8 00 00 00 00	 call	 _strcpy
  0029e	83 c4 08	 add	 esp, 8

; 2714 : 				}
; 2715 : 				else

  002a1	eb 1e		 jmp	 SHORT $LN16@restorePtA
$LN15@restorePtA:

; 2716 : 				{
; 2717 : 					strcpy( charObj[i].ptAct->name, "???" );

  002a3	68 00 00 00 00	 push	 OFFSET ??_C@_03BBKEAIF@?$DP?$DP?$DP?$AA@
  002a8	69 45 f8 0c 01
	00 00		 imul	 eax, DWORD PTR _i$[ebp], 268
  002af	8b 88 bc 00 00
	00		 mov	 ecx, DWORD PTR ?charObj@@3PAUCHAROBJ@@A[eax+188]
  002b5	83 c1 38	 add	 ecx, 56			; 00000038H
  002b8	51		 push	 ecx
  002b9	e8 00 00 00 00	 call	 _strcpy
  002be	83 c4 08	 add	 esp, 8
$LN16@restorePtA:

; 2718 : 				}
; 2719 : 				charObj[i].ptAct->atr |= charObj[i].charType;

  002c1	69 45 f8 0c 01
	00 00		 imul	 eax, DWORD PTR _i$[ebp], 268
  002c8	8b 88 bc 00 00
	00		 mov	 ecx, DWORD PTR ?charObj@@3PAUCHAROBJ@@A[eax+188]
  002ce	69 55 f8 0c 01
	00 00		 imul	 edx, DWORD PTR _i$[ebp], 268
  002d5	8b 81 a4 00 00
	00		 mov	 eax, DWORD PTR [ecx+164]
  002db	0b 82 b4 00 00
	00		 or	 eax, DWORD PTR ?charObj@@3PAUCHAROBJ@@A[edx+180]
  002e1	69 4d f8 0c 01
	00 00		 imul	 ecx, DWORD PTR _i$[ebp], 268
  002e8	8b 91 bc 00 00
	00		 mov	 edx, DWORD PTR ?charObj@@3PAUCHAROBJ@@A[ecx+188]
  002ee	89 82 a4 00 00
	00		 mov	 DWORD PTR [edx+164], eax
$LN5@restorePtA:

; 2720 : 			}
; 2721 : 		}
; 2722 : 	}

  002f4	e9 2e fd ff ff	 jmp	 $LN2@restorePtA
$LN1@restorePtA:

; 2723 : }

  002f9	5f		 pop	 edi
  002fa	5e		 pop	 esi
  002fb	5b		 pop	 ebx
  002fc	81 c4 d8 00 00
	00		 add	 esp, 216		; 000000d8H
  00302	3b ec		 cmp	 ebp, esp
  00304	e8 00 00 00 00	 call	 __RTC_CheckEsp
  00309	8b e5		 mov	 esp, ebp
  0030b	5d		 pop	 ebp
  0030c	c3		 ret	 0
?restorePtActCharObjAll@@YAXXZ ENDP			; restorePtActCharObjAll
_TEXT	ENDS
; Function compile flags: /Odtp /RTCsu /ZI
; File c:\users\administrator\desktop\????? ??\????? ??\client source code\system\character.cpp
;	COMDAT ?clearPtActCharObj@@YAXXZ
_TEXT	SEGMENT
_i$ = -8						; size = 4
?clearPtActCharObj@@YAXXZ PROC				; clearPtActCharObj, COMDAT

; 2644 : {

  00000	55		 push	 ebp
  00001	8b ec		 mov	 ebp, esp
  00003	81 ec cc 00 00
	00		 sub	 esp, 204		; 000000ccH
  00009	53		 push	 ebx
  0000a	56		 push	 esi
  0000b	57		 push	 edi
  0000c	8d bd 34 ff ff
	ff		 lea	 edi, DWORD PTR [ebp-204]
  00012	b9 33 00 00 00	 mov	 ecx, 51			; 00000033H
  00017	b8 cc cc cc cc	 mov	 eax, -858993460		; ccccccccH
  0001c	f3 ab		 rep stosd

; 2645 : 	int i;
; 2646 : 
; 2647 : 	for( i = 0; i < MAX_CHAROBJ; i++ )

  0001e	c7 45 f8 00 00
	00 00		 mov	 DWORD PTR _i$[ebp], 0
  00025	eb 09		 jmp	 SHORT $LN4@clearPtAct
$LN2@clearPtAct:
  00027	8b 45 f8	 mov	 eax, DWORD PTR _i$[ebp]
  0002a	83 c0 01	 add	 eax, 1
  0002d	89 45 f8	 mov	 DWORD PTR _i$[ebp], eax
$LN4@clearPtAct:
  00030	81 7d f8 dc 05
	00 00		 cmp	 DWORD PTR _i$[ebp], 1500 ; 000005dcH
  00037	7d 36		 jge	 SHORT $LN1@clearPtAct

; 2648 : 	{
; 2649 : 		if( charObj[i].use != CHAROBJ_USE_FREE )

  00039	69 45 f8 0c 01
	00 00		 imul	 eax, DWORD PTR _i$[ebp], 268
  00040	0f bf 88 00 00
	00 00		 movsx	 ecx, WORD PTR ?charObj@@3PAUCHAROBJ@@A[eax]
  00047	85 c9		 test	 ecx, ecx
  00049	74 22		 je	 SHORT $LN5@clearPtAct

; 2650 : 		{
; 2651 : 			charObj[i].ptAct = NULL;

  0004b	69 45 f8 0c 01
	00 00		 imul	 eax, DWORD PTR _i$[ebp], 268
  00052	c7 80 bc 00 00
	00 00 00 00 00	 mov	 DWORD PTR ?charObj@@3PAUCHAROBJ@@A[eax+188], 0

; 2652 : 			charObj[i].stockDir = -1;

  0005c	69 45 f8 0c 01
	00 00		 imul	 eax, DWORD PTR _i$[ebp], 268
  00063	c7 80 1c 00 00
	00 ff ff ff ff	 mov	 DWORD PTR ?charObj@@3PAUCHAROBJ@@A[eax+28], -1
$LN5@clearPtAct:

; 2653 : 		}
; 2654 : 	}

  0006d	eb b8		 jmp	 SHORT $LN2@clearPtAct
$LN1@clearPtAct:

; 2655 : }

  0006f	5f		 pop	 edi
  00070	5e		 pop	 esi
  00071	5b		 pop	 ebx
  00072	8b e5		 mov	 esp, ebp
  00074	5d		 pop	 ebp
  00075	c3		 ret	 0
?clearPtActCharObj@@YAXXZ ENDP				; clearPtActCharObj
_TEXT	ENDS
; Function compile flags: /Odtp /RTCsu /ZI
; File c:\users\administrator\desktop\????? ??\????? ??\client source code\system\character.cpp
;	COMDAT ?resetCharObj@@YAXXZ
_TEXT	SEGMENT
_ext$ = -20						; size = 4
_i$ = -8						; size = 4
?resetCharObj@@YAXXZ PROC				; resetCharObj, COMDAT

; 2556 : {

  00000	55		 push	 ebp
  00001	8b ec		 mov	 ebp, esp
  00003	81 ec d8 00 00
	00		 sub	 esp, 216		; 000000d8H
  00009	53		 push	 ebx
  0000a	56		 push	 esi
  0000b	57		 push	 edi
  0000c	8d bd 28 ff ff
	ff		 lea	 edi, DWORD PTR [ebp-216]
  00012	b9 36 00 00 00	 mov	 ecx, 54			; 00000036H
  00017	b8 cc cc cc cc	 mov	 eax, -858993460		; ccccccccH
  0001c	f3 ab		 rep stosd

; 2557 : 	int i;
; 2558 : 	CHAREXTRA *ext;
; 2559 : 
; 2560 : 	maxCharObj = 0;

  0001e	c7 05 00 00 00
	00 00 00 00 00	 mov	 DWORD PTR ?maxCharObj@@3HA, 0 ; maxCharObj

; 2561 : 	tailCharObj = 0;

  00028	c7 05 00 00 00
	00 00 00 00 00	 mov	 DWORD PTR ?tailCharObj@@3HA, 0 ; tailCharObj

; 2562 : 	freeCharObj = 0;

  00032	c7 05 00 00 00
	00 00 00 00 00	 mov	 DWORD PTR ?freeCharObj@@3HA, 0 ; freeCharObj

; 2563 : 	for( i = 0; i < MAX_CHAROBJ; i++ )

  0003c	c7 45 f8 00 00
	00 00		 mov	 DWORD PTR _i$[ebp], 0
  00043	eb 09		 jmp	 SHORT $LN4@resetCharO
$LN2@resetCharO:
  00045	8b 45 f8	 mov	 eax, DWORD PTR _i$[ebp]
  00048	83 c0 01	 add	 eax, 1
  0004b	89 45 f8	 mov	 DWORD PTR _i$[ebp], eax
$LN4@resetCharO:
  0004e	81 7d f8 dc 05
	00 00		 cmp	 DWORD PTR _i$[ebp], 1500 ; 000005dcH
  00055	0f 8d 1b 02 00
	00		 jge	 $LN3@resetCharO

; 2564 : 	{
; 2565 : 		if( charObj[i].use != CHAROBJ_USE_FREE )

  0005b	69 45 f8 0c 01
	00 00		 imul	 eax, DWORD PTR _i$[ebp], 268
  00062	0f bf 88 00 00
	00 00		 movsx	 ecx, WORD PTR ?charObj@@3PAUCHAROBJ@@A[eax]
  00069	85 c9		 test	 ecx, ecx
  0006b	0f 84 00 02 00
	00		 je	 $LN5@resetCharO

; 2566 : 		{
; 2567 : 			if( charObj[i].ptAct != NULL )

  00071	69 45 f8 0c 01
	00 00		 imul	 eax, DWORD PTR _i$[ebp], 268
  00078	83 b8 bc 00 00
	00 00		 cmp	 DWORD PTR ?charObj@@3PAUCHAROBJ@@A[eax+188], 0
  0007f	0f 84 a9 01 00
	00		 je	 $LN6@resetCharO

; 2568 : 			{
; 2569 : 				ext = (CHAREXTRA *)charObj[i].ptAct->pYobi;

  00085	69 45 f8 0c 01
	00 00		 imul	 eax, DWORD PTR _i$[ebp], 268
  0008c	8b 88 bc 00 00
	00		 mov	 ecx, DWORD PTR ?charObj@@3PAUCHAROBJ@@A[eax+188]
  00092	8b 51 0c	 mov	 edx, DWORD PTR [ecx+12]
  00095	89 55 ec	 mov	 DWORD PTR _ext$[ebp], edx

; 2570 : 				if ((int)ext==0xdddddddd)

  00098	81 7d ec dd dd
	dd dd		 cmp	 DWORD PTR _ext$[ebp], -572662307 ; ddddddddH
  0009f	75 16		 jne	 SHORT $LN7@resetCharO

; 2571 : 				{
; 2572 : 					charObj[i].ptAct = NULL;

  000a1	69 45 f8 0c 01
	00 00		 imul	 eax, DWORD PTR _i$[ebp], 268
  000a8	c7 80 bc 00 00
	00 00 00 00 00	 mov	 DWORD PTR ?charObj@@3PAUCHAROBJ@@A[eax+188], 0

; 2573 : 					return;

  000b2	e9 c9 01 00 00	 jmp	 $LN1@resetCharO
$LN7@resetCharO:

; 2574 : 				}
; 2575 : 
; 2576 : 				if( ext != NULL )

  000b7	83 7d ec 00	 cmp	 DWORD PTR _ext$[ebp], 0
  000bb	0f 84 46 01 00
	00		 je	 $LN8@resetCharO

; 2577 : 				{
; 2578 : 					if( ext->ptActLeaderMark != NULL )

  000c1	8b 45 ec	 mov	 eax, DWORD PTR _ext$[ebp]
  000c4	83 78 08 00	 cmp	 DWORD PTR [eax+8], 0
  000c8	74 19		 je	 SHORT $LN9@resetCharO

; 2579 : 					{
; 2580 : 						DeathAction( ext->ptActLeaderMark );

  000ca	8b 45 ec	 mov	 eax, DWORD PTR _ext$[ebp]
  000cd	8b 48 08	 mov	 ecx, DWORD PTR [eax+8]
  000d0	51		 push	 ecx
  000d1	e8 00 00 00 00	 call	 ?DeathAction@@YAXPAUaction@@@Z ; DeathAction
  000d6	83 c4 04	 add	 esp, 4

; 2581 : 						ext->ptActLeaderMark = NULL;

  000d9	8b 45 ec	 mov	 eax, DWORD PTR _ext$[ebp]
  000dc	c7 40 08 00 00
	00 00		 mov	 DWORD PTR [eax+8], 0
$LN9@resetCharO:

; 2582 : 					}
; 2583 : 					if( ext->ptActMagicEffect != NULL )

  000e3	8b 45 ec	 mov	 eax, DWORD PTR _ext$[ebp]
  000e6	83 78 0c 00	 cmp	 DWORD PTR [eax+12], 0
  000ea	74 19		 je	 SHORT $LN10@resetCharO

; 2584 : 					{
; 2585 : 						DeathAction( ext->ptActMagicEffect );

  000ec	8b 45 ec	 mov	 eax, DWORD PTR _ext$[ebp]
  000ef	8b 48 0c	 mov	 ecx, DWORD PTR [eax+12]
  000f2	51		 push	 ecx
  000f3	e8 00 00 00 00	 call	 ?DeathAction@@YAXPAUaction@@@Z ; DeathAction
  000f8	83 c4 04	 add	 esp, 4

; 2586 : 						ext->ptActMagicEffect = NULL;

  000fb	8b 45 ec	 mov	 eax, DWORD PTR _ext$[ebp]
  000fe	c7 40 0c 00 00
	00 00		 mov	 DWORD PTR [eax+12], 0
$LN10@resetCharO:

; 2587 : 					}
; 2588 : #ifdef __EMOTION
; 2589 : 					if( ext->ptActEmotion != NULL ){
; 2590 : 						DeathAction( ext->ptActEmotion );
; 2591 : 						ext->ptActEmotion = NULL;
; 2592 : 					}
; 2593 : #endif
; 2594 : #ifdef _STREET_VENDOR
; 2595 : 					if(ext->ptStreetVendor != NULL){

  00105	8b 45 ec	 mov	 eax, DWORD PTR _ext$[ebp]
  00108	83 78 1c 00	 cmp	 DWORD PTR [eax+28], 0
  0010c	74 19		 je	 SHORT $LN11@resetCharO

; 2596 : 						DeathAction(ext->ptStreetVendor);

  0010e	8b 45 ec	 mov	 eax, DWORD PTR _ext$[ebp]
  00111	8b 48 1c	 mov	 ecx, DWORD PTR [eax+28]
  00114	51		 push	 ecx
  00115	e8 00 00 00 00	 call	 ?DeathAction@@YAXPAUaction@@@Z ; DeathAction
  0011a	83 c4 04	 add	 esp, 4

; 2597 : 						ext->ptStreetVendor = NULL;

  0011d	8b 45 ec	 mov	 eax, DWORD PTR _ext$[ebp]
  00120	c7 40 1c 00 00
	00 00		 mov	 DWORD PTR [eax+28], 0
$LN11@resetCharO:

; 2598 : 					}
; 2599 : #endif
; 2600 : #ifdef _MIND_ICON
; 2601 :     				if( ext->ptMindIcon != NULL ){

  00127	8b 45 ec	 mov	 eax, DWORD PTR _ext$[ebp]
  0012a	83 78 10 00	 cmp	 DWORD PTR [eax+16], 0
  0012e	74 19		 je	 SHORT $LN12@resetCharO

; 2602 : 	    				DeathAction( ext->ptMindIcon );

  00130	8b 45 ec	 mov	 eax, DWORD PTR _ext$[ebp]
  00133	8b 48 10	 mov	 ecx, DWORD PTR [eax+16]
  00136	51		 push	 ecx
  00137	e8 00 00 00 00	 call	 ?DeathAction@@YAXPAUaction@@@Z ; DeathAction
  0013c	83 c4 04	 add	 esp, 4

; 2603 : 		   			    ext->ptMindIcon = NULL;

  0013f	8b 45 ec	 mov	 eax, DWORD PTR _ext$[ebp]
  00142	c7 40 10 00 00
	00 00		 mov	 DWORD PTR [eax+16], 0
$LN12@resetCharO:

; 2604 : 					}
; 2605 : #endif
; 2606 : #ifdef 人物光环
; 2607 : 					if (ext->ptmManorIcon != NULL) {

  00149	8b 45 ec	 mov	 eax, DWORD PTR _ext$[ebp]
  0014c	83 78 14 00	 cmp	 DWORD PTR [eax+20], 0
  00150	74 19		 je	 SHORT $LN13@resetCharO

; 2608 : 						DeathAction(ext->ptmManorIcon);

  00152	8b 45 ec	 mov	 eax, DWORD PTR _ext$[ebp]
  00155	8b 48 14	 mov	 ecx, DWORD PTR [eax+20]
  00158	51		 push	 ecx
  00159	e8 00 00 00 00	 call	 ?DeathAction@@YAXPAUaction@@@Z ; DeathAction
  0015e	83 c4 04	 add	 esp, 4

; 2609 : 						ext->ptmManorIcon = NULL;

  00161	8b 45 ec	 mov	 eax, DWORD PTR _ext$[ebp]
  00164	c7 40 14 00 00
	00 00		 mov	 DWORD PTR [eax+20], 0
$LN13@resetCharO:

; 2610 : 					}
; 2611 : #endif
; 2612 : #ifdef 人物称号
; 2613 : 					if (ext->ptTitleIcon != NULL) {

  0016b	8b 45 ec	 mov	 eax, DWORD PTR _ext$[ebp]
  0016e	83 78 18 00	 cmp	 DWORD PTR [eax+24], 0
  00172	74 19		 je	 SHORT $LN14@resetCharO

; 2614 : 						DeathAction(ext->ptTitleIcon);

  00174	8b 45 ec	 mov	 eax, DWORD PTR _ext$[ebp]
  00177	8b 48 18	 mov	 ecx, DWORD PTR [eax+24]
  0017a	51		 push	 ecx
  0017b	e8 00 00 00 00	 call	 ?DeathAction@@YAXPAUaction@@@Z ; DeathAction
  00180	83 c4 04	 add	 esp, 4

; 2615 : 						ext->ptTitleIcon = NULL;

  00183	8b 45 ec	 mov	 eax, DWORD PTR _ext$[ebp]
  00186	c7 40 18 00 00
	00 00		 mov	 DWORD PTR [eax+24], 0
$LN14@resetCharO:

; 2616 : 					}
; 2617 : #endif
; 2618 : #ifdef _ITEM_FIREWORK
; 2619 : 					if (ext->pActFirework[0] != NULL)

  0018d	b8 04 00 00 00	 mov	 eax, 4
  00192	6b c8 00	 imul	 ecx, eax, 0
  00195	8b 55 ec	 mov	 edx, DWORD PTR _ext$[ebp]
  00198	83 7c 0a 24 00	 cmp	 DWORD PTR [edx+ecx+36], 0
  0019d	74 18		 je	 SHORT $LN15@resetCharO

; 2620 : 						DeathAction(ext->pActFirework[0]);

  0019f	b8 04 00 00 00	 mov	 eax, 4
  001a4	6b c8 00	 imul	 ecx, eax, 0
  001a7	8b 55 ec	 mov	 edx, DWORD PTR _ext$[ebp]
  001aa	8b 44 0a 24	 mov	 eax, DWORD PTR [edx+ecx+36]
  001ae	50		 push	 eax
  001af	e8 00 00 00 00	 call	 ?DeathAction@@YAXPAUaction@@@Z ; DeathAction
  001b4	83 c4 04	 add	 esp, 4
$LN15@resetCharO:

; 2621 : 					if (ext->pActFirework[1] != NULL)

  001b7	b8 04 00 00 00	 mov	 eax, 4
  001bc	c1 e0 00	 shl	 eax, 0
  001bf	8b 4d ec	 mov	 ecx, DWORD PTR _ext$[ebp]
  001c2	83 7c 01 24 00	 cmp	 DWORD PTR [ecx+eax+36], 0
  001c7	74 18		 je	 SHORT $LN16@resetCharO

; 2622 : 						DeathAction(ext->pActFirework[1]);

  001c9	b8 04 00 00 00	 mov	 eax, 4
  001ce	c1 e0 00	 shl	 eax, 0
  001d1	8b 4d ec	 mov	 ecx, DWORD PTR _ext$[ebp]
  001d4	8b 54 01 24	 mov	 edx, DWORD PTR [ecx+eax+36]
  001d8	52		 push	 edx
  001d9	e8 00 00 00 00	 call	 ?DeathAction@@YAXPAUaction@@@Z ; DeathAction
  001de	83 c4 04	 add	 esp, 4
$LN16@resetCharO:

; 2623 : 					ext->pActFirework[0] = NULL;

  001e1	b8 04 00 00 00	 mov	 eax, 4
  001e6	6b c8 00	 imul	 ecx, eax, 0
  001e9	8b 55 ec	 mov	 edx, DWORD PTR _ext$[ebp]
  001ec	c7 44 0a 24 00
	00 00 00	 mov	 DWORD PTR [edx+ecx+36], 0

; 2624 : 					ext->pActFirework[1] = NULL;

  001f4	b8 04 00 00 00	 mov	 eax, 4
  001f9	c1 e0 00	 shl	 eax, 0
  001fc	8b 4d ec	 mov	 ecx, DWORD PTR _ext$[ebp]
  001ff	c7 44 01 24 00
	00 00 00	 mov	 DWORD PTR [ecx+eax+36], 0
$LN8@resetCharO:

; 2625 : 
; 2626 : #endif
; 2627 : 				}
; 2628 : 				DeathAction( charObj[i].ptAct );

  00207	69 45 f8 0c 01
	00 00		 imul	 eax, DWORD PTR _i$[ebp], 268
  0020e	8b 88 bc 00 00
	00		 mov	 ecx, DWORD PTR ?charObj@@3PAUCHAROBJ@@A[eax+188]
  00214	51		 push	 ecx
  00215	e8 00 00 00 00	 call	 ?DeathAction@@YAXPAUaction@@@Z ; DeathAction
  0021a	83 c4 04	 add	 esp, 4

; 2629 : 				charObj[i].ptAct = NULL;

  0021d	69 45 f8 0c 01
	00 00		 imul	 eax, DWORD PTR _i$[ebp], 268
  00224	c7 80 bc 00 00
	00 00 00 00 00	 mov	 DWORD PTR ?charObj@@3PAUCHAROBJ@@A[eax+188], 0
$LN6@resetCharO:

; 2630 : 			}
; 2631 : 			charObj[i].use = CHAROBJ_USE_FREE;

  0022e	69 45 f8 0c 01
	00 00		 imul	 eax, DWORD PTR _i$[ebp], 268
  00235	33 c9		 xor	 ecx, ecx
  00237	66 89 88 00 00
	00 00		 mov	 WORD PTR ?charObj@@3PAUCHAROBJ@@A[eax], cx

; 2632 : 			charObj[i].status = 0;

  0023e	69 45 f8 0c 01
	00 00		 imul	 eax, DWORD PTR _i$[ebp], 268
  00245	c7 80 2c 00 00
	00 00 00 00 00	 mov	 DWORD PTR ?charObj@@3PAUCHAROBJ@@A[eax+44], 0

; 2633 : 			charObj[i].id = 0;

  0024f	69 45 f8 0c 01
	00 00		 imul	 eax, DWORD PTR _i$[ebp], 268
  00256	c7 80 04 00 00
	00 00 00 00 00	 mov	 DWORD PTR ?charObj@@3PAUCHAROBJ@@A[eax+4], 0

; 2634 : 			charObj[i].stockDir = -1;

  00260	69 45 f8 0c 01
	00 00		 imul	 eax, DWORD PTR _i$[ebp], 268
  00267	c7 80 1c 00 00
	00 ff ff ff ff	 mov	 DWORD PTR ?charObj@@3PAUCHAROBJ@@A[eax+28], -1
$LN5@resetCharO:

; 2635 : 		}
; 2636 : 	}

  00271	e9 cf fd ff ff	 jmp	 $LN2@resetCharO
$LN3@resetCharO:

; 2637 : 
; 2638 : 	searchCharObj = 0;

  00276	c7 05 00 00 00
	00 00 00 00 00	 mov	 DWORD PTR ?searchCharObj@@3HA, 0 ; searchCharObj
$LN1@resetCharO:

; 2639 : }

  00280	5f		 pop	 edi
  00281	5e		 pop	 esi
  00282	5b		 pop	 ebx
  00283	81 c4 d8 00 00
	00		 add	 esp, 216		; 000000d8H
  00289	3b ec		 cmp	 ebp, esp
  0028b	e8 00 00 00 00	 call	 __RTC_CheckEsp
  00290	8b e5		 mov	 esp, ebp
  00292	5d		 pop	 ebp
  00293	c3		 ret	 0
?resetCharObj@@YAXXZ ENDP				; resetCharObj
_TEXT	ENDS
; Function compile flags: /Odtp /RTCsu /ZI
; File c:\users\administrator\desktop\????? ??\????? ??\client source code\system\character.cpp
;	COMDAT ?initCharObj@@YAXXZ
_TEXT	SEGMENT
_i$ = -8						; size = 4
?initCharObj@@YAXXZ PROC				; initCharObj, COMDAT

; 2534 : {

  00000	55		 push	 ebp
  00001	8b ec		 mov	 ebp, esp
  00003	81 ec cc 00 00
	00		 sub	 esp, 204		; 000000ccH
  00009	53		 push	 ebx
  0000a	56		 push	 esi
  0000b	57		 push	 edi
  0000c	8d bd 34 ff ff
	ff		 lea	 edi, DWORD PTR [ebp-204]
  00012	b9 33 00 00 00	 mov	 ecx, 51			; 00000033H
  00017	b8 cc cc cc cc	 mov	 eax, -858993460		; ccccccccH
  0001c	f3 ab		 rep stosd

; 2535 : 	int i;
; 2536 : 
; 2537 : 	maxCharObj = 0;

  0001e	c7 05 00 00 00
	00 00 00 00 00	 mov	 DWORD PTR ?maxCharObj@@3HA, 0 ; maxCharObj

; 2538 : 	tailCharObj = 0;

  00028	c7 05 00 00 00
	00 00 00 00 00	 mov	 DWORD PTR ?tailCharObj@@3HA, 0 ; tailCharObj

; 2539 : 	freeCharObj = 0;

  00032	c7 05 00 00 00
	00 00 00 00 00	 mov	 DWORD PTR ?freeCharObj@@3HA, 0 ; freeCharObj

; 2540 : 	for( i = 0; i < MAX_CHAROBJ; i++ )

  0003c	c7 45 f8 00 00
	00 00		 mov	 DWORD PTR _i$[ebp], 0
  00043	eb 09		 jmp	 SHORT $LN4@initCharOb
$LN2@initCharOb:
  00045	8b 45 f8	 mov	 eax, DWORD PTR _i$[ebp]
  00048	83 c0 01	 add	 eax, 1
  0004b	89 45 f8	 mov	 DWORD PTR _i$[ebp], eax
$LN4@initCharOb:
  0004e	81 7d f8 dc 05
	00 00		 cmp	 DWORD PTR _i$[ebp], 1500 ; 000005dcH
  00055	7d 6d		 jge	 SHORT $LN3@initCharOb

; 2541 : 	{
; 2542 : 		charObj[i].use = CHAROBJ_USE_FREE;

  00057	69 45 f8 0c 01
	00 00		 imul	 eax, DWORD PTR _i$[ebp], 268
  0005e	33 c9		 xor	 ecx, ecx
  00060	66 89 88 00 00
	00 00		 mov	 WORD PTR ?charObj@@3PAUCHAROBJ@@A[eax], cx

; 2543 : 		charObj[i].ptAct = NULL;

  00067	69 45 f8 0c 01
	00 00		 imul	 eax, DWORD PTR _i$[ebp], 268
  0006e	c7 80 bc 00 00
	00 00 00 00 00	 mov	 DWORD PTR ?charObj@@3PAUCHAROBJ@@A[eax+188], 0

; 2544 : 		charObj[i].status = 0;

  00078	69 45 f8 0c 01
	00 00		 imul	 eax, DWORD PTR _i$[ebp], 268
  0007f	c7 80 2c 00 00
	00 00 00 00 00	 mov	 DWORD PTR ?charObj@@3PAUCHAROBJ@@A[eax+44], 0

; 2545 : 		charObj[i].id = 0;

  00089	69 45 f8 0c 01
	00 00		 imul	 eax, DWORD PTR _i$[ebp], 268
  00090	c7 80 04 00 00
	00 00 00 00 00	 mov	 DWORD PTR ?charObj@@3PAUCHAROBJ@@A[eax+4], 0

; 2546 : 		charObj[i].stockDir = -1;

  0009a	69 45 f8 0c 01
	00 00		 imul	 eax, DWORD PTR _i$[ebp], 268
  000a1	c7 80 1c 00 00
	00 ff ff ff ff	 mov	 DWORD PTR ?charObj@@3PAUCHAROBJ@@A[eax+28], -1

; 2547 : 		charObj[i].name[0] = '\0';

  000ab	69 45 f8 0c 01
	00 00		 imul	 eax, DWORD PTR _i$[ebp], 268
  000b2	b9 01 00 00 00	 mov	 ecx, 1
  000b7	6b d1 00	 imul	 edx, ecx, 0
  000ba	c6 84 10 38 00
	00 00 00	 mov	 BYTE PTR ?charObj@@3PAUCHAROBJ@@A[eax+edx+56], 0

; 2548 : 	}

  000c2	eb 81		 jmp	 SHORT $LN2@initCharOb
$LN3@initCharOb:

; 2549 : 
; 2550 : 	searchCharObj = 0;

  000c4	c7 05 00 00 00
	00 00 00 00 00	 mov	 DWORD PTR ?searchCharObj@@3HA, 0 ; searchCharObj

; 2551 : }

  000ce	5f		 pop	 edi
  000cf	5e		 pop	 esi
  000d0	5b		 pop	 ebx
  000d1	8b e5		 mov	 esp, ebp
  000d3	5d		 pop	 ebp
  000d4	c3		 ret	 0
?initCharObj@@YAXXZ ENDP				; initCharObj
_TEXT	ENDS
; Function compile flags: /Odtp /RTCsu /ZI
; File c:\users\administrator\desktop\????? ??\????? ??\client source code\system\character.cpp
;	COMDAT ?delCharObj@@YAXH@Z
_TEXT	SEGMENT
_ext$ = -32						; size = 4
_no$ = -20						; size = 4
_i$ = -8						; size = 4
_id$ = 8						; size = 4
?delCharObj@@YAXH@Z PROC				; delCharObj, COMDAT

; 2436 : {

  00000	55		 push	 ebp
  00001	8b ec		 mov	 ebp, esp
  00003	81 ec e4 00 00
	00		 sub	 esp, 228		; 000000e4H
  00009	53		 push	 ebx
  0000a	56		 push	 esi
  0000b	57		 push	 edi
  0000c	8d bd 1c ff ff
	ff		 lea	 edi, DWORD PTR [ebp-228]
  00012	b9 39 00 00 00	 mov	 ecx, 57			; 00000039H
  00017	b8 cc cc cc cc	 mov	 eax, -858993460		; ccccccccH
  0001c	f3 ab		 rep stosd

; 2437 : 	int i;
; 2438 : 	int no;
; 2439 : 	CHAREXTRA *ext;
; 2440 : 
; 2441 : 	if( pc.id == id ){

  0001e	a1 08 00 00 00	 mov	 eax, DWORD PTR ?pc@@3UPC@@A+8
  00023	3b 45 08	 cmp	 eax, DWORD PTR _id$[ebp]
  00026	75 0a		 jne	 SHORT $LN5@delCharObj

; 2442 : 		resetPc();

  00028	e8 00 00 00 00	 call	 ?resetPc@@YAXXZ		; resetPc

; 2443 : 		return;

  0002d	e9 8e 02 00 00	 jmp	 $LN1@delCharObj
$LN5@delCharObj:

; 2444 : 	}
; 2445 : 	no = searchCharObjId( id );

  00032	8b 45 08	 mov	 eax, DWORD PTR _id$[ebp]
  00035	50		 push	 eax
  00036	e8 00 00 00 00	 call	 ?searchCharObjId@@YAHH@Z ; searchCharObjId
  0003b	83 c4 04	 add	 esp, 4
  0003e	89 45 ec	 mov	 DWORD PTR _no$[ebp], eax

; 2446 : 	// ID???????
; 2447 : 	if( no >= 0 ){

  00041	83 7d ec 00	 cmp	 DWORD PTR _no$[ebp], 0
  00045	0f 8c 75 02 00
	00		 jl	 $LN1@delCharObj

; 2448 : 		if( charObj[no].ptAct != NULL ){

  0004b	69 45 ec 0c 01
	00 00		 imul	 eax, DWORD PTR _no$[ebp], 268
  00052	83 b8 bc 00 00
	00 00		 cmp	 DWORD PTR ?charObj@@3PAUCHAROBJ@@A[eax+188], 0
  00059	0f 84 cb 01 00
	00		 je	 $LN7@delCharObj

; 2449 : 			ext = (CHAREXTRA *)charObj[no].ptAct->pYobi;

  0005f	69 45 ec 0c 01
	00 00		 imul	 eax, DWORD PTR _no$[ebp], 268
  00066	8b 88 bc 00 00
	00		 mov	 ecx, DWORD PTR ?charObj@@3PAUCHAROBJ@@A[eax+188]
  0006c	8b 51 0c	 mov	 edx, DWORD PTR [ecx+12]
  0006f	89 55 e0	 mov	 DWORD PTR _ext$[ebp], edx

; 2450 : 			if ((int)ext == 0xdddddddd)

  00072	81 7d e0 dd dd
	dd dd		 cmp	 DWORD PTR _ext$[ebp], -572662307 ; ddddddddH
  00079	75 16		 jne	 SHORT $LN8@delCharObj

; 2451 : 			{
; 2452 : 				charObj[no].ptAct = NULL;

  0007b	69 45 ec 0c 01
	00 00		 imul	 eax, DWORD PTR _no$[ebp], 268
  00082	c7 80 bc 00 00
	00 00 00 00 00	 mov	 DWORD PTR ?charObj@@3PAUCHAROBJ@@A[eax+188], 0

; 2453 : 				return;

  0008c	e9 2f 02 00 00	 jmp	 $LN1@delCharObj
$LN8@delCharObj:

; 2454 : 			}
; 2455 : 			if( ext != NULL ){

  00091	83 7d e0 00	 cmp	 DWORD PTR _ext$[ebp], 0
  00095	0f 84 68 01 00
	00		 je	 $LN9@delCharObj

; 2456 : 				if( ext->ptActLeaderMark != NULL ){

  0009b	8b 45 e0	 mov	 eax, DWORD PTR _ext$[ebp]
  0009e	83 78 08 00	 cmp	 DWORD PTR [eax+8], 0
  000a2	74 19		 je	 SHORT $LN10@delCharObj

; 2457 : 					DeathAction( ext->ptActLeaderMark );

  000a4	8b 45 e0	 mov	 eax, DWORD PTR _ext$[ebp]
  000a7	8b 48 08	 mov	 ecx, DWORD PTR [eax+8]
  000aa	51		 push	 ecx
  000ab	e8 00 00 00 00	 call	 ?DeathAction@@YAXPAUaction@@@Z ; DeathAction
  000b0	83 c4 04	 add	 esp, 4

; 2458 : 					ext->ptActLeaderMark = NULL;

  000b3	8b 45 e0	 mov	 eax, DWORD PTR _ext$[ebp]
  000b6	c7 40 08 00 00
	00 00		 mov	 DWORD PTR [eax+8], 0
$LN10@delCharObj:

; 2459 : 				}
; 2460 : 				if( ext->ptActMagicEffect != NULL ){

  000bd	8b 45 e0	 mov	 eax, DWORD PTR _ext$[ebp]
  000c0	83 78 0c 00	 cmp	 DWORD PTR [eax+12], 0
  000c4	74 19		 je	 SHORT $LN11@delCharObj

; 2461 : 					DeathAction( ext->ptActMagicEffect );

  000c6	8b 45 e0	 mov	 eax, DWORD PTR _ext$[ebp]
  000c9	8b 48 0c	 mov	 ecx, DWORD PTR [eax+12]
  000cc	51		 push	 ecx
  000cd	e8 00 00 00 00	 call	 ?DeathAction@@YAXPAUaction@@@Z ; DeathAction
  000d2	83 c4 04	 add	 esp, 4

; 2462 : 					ext->ptActMagicEffect = NULL;

  000d5	8b 45 e0	 mov	 eax, DWORD PTR _ext$[ebp]
  000d8	c7 40 0c 00 00
	00 00		 mov	 DWORD PTR [eax+12], 0
$LN11@delCharObj:

; 2463 : 				}
; 2464 : #ifdef __EMOTION
; 2465 : 				if( ext->ptActEmotion != NULL ){
; 2466 : 					DeathAction( ext->ptActEmotion );
; 2467 : 					ext->ptActEmotion = NULL;
; 2468 : 				}
; 2469 : #endif
; 2470 : #ifdef _STREET_VENDOR
; 2471 : 				if(ext->ptStreetVendor != NULL){

  000df	8b 45 e0	 mov	 eax, DWORD PTR _ext$[ebp]
  000e2	83 78 1c 00	 cmp	 DWORD PTR [eax+28], 0
  000e6	74 19		 je	 SHORT $LN12@delCharObj

; 2472 : 					DeathAction(ext->ptStreetVendor);

  000e8	8b 45 e0	 mov	 eax, DWORD PTR _ext$[ebp]
  000eb	8b 48 1c	 mov	 ecx, DWORD PTR [eax+28]
  000ee	51		 push	 ecx
  000ef	e8 00 00 00 00	 call	 ?DeathAction@@YAXPAUaction@@@Z ; DeathAction
  000f4	83 c4 04	 add	 esp, 4

; 2473 : 					ext->ptStreetVendor = NULL;

  000f7	8b 45 e0	 mov	 eax, DWORD PTR _ext$[ebp]
  000fa	c7 40 1c 00 00
	00 00		 mov	 DWORD PTR [eax+28], 0
$LN12@delCharObj:

; 2474 : 				}
; 2475 : #endif
; 2476 : #ifdef _MIND_ICON
; 2477 : 				if( ext->ptMindIcon != NULL ){

  00101	8b 45 e0	 mov	 eax, DWORD PTR _ext$[ebp]
  00104	83 78 10 00	 cmp	 DWORD PTR [eax+16], 0
  00108	74 19		 je	 SHORT $LN13@delCharObj

; 2478 : 					DeathAction( ext->ptMindIcon );

  0010a	8b 45 e0	 mov	 eax, DWORD PTR _ext$[ebp]
  0010d	8b 48 10	 mov	 ecx, DWORD PTR [eax+16]
  00110	51		 push	 ecx
  00111	e8 00 00 00 00	 call	 ?DeathAction@@YAXPAUaction@@@Z ; DeathAction
  00116	83 c4 04	 add	 esp, 4

; 2479 : 					ext->ptMindIcon = NULL;

  00119	8b 45 e0	 mov	 eax, DWORD PTR _ext$[ebp]
  0011c	c7 40 10 00 00
	00 00		 mov	 DWORD PTR [eax+16], 0
$LN13@delCharObj:

; 2480 : 				}
; 2481 : #endif
; 2482 : #ifdef 人物光环
; 2483 : 				if (ext->ptmManorIcon != NULL) {

  00123	8b 45 e0	 mov	 eax, DWORD PTR _ext$[ebp]
  00126	83 78 14 00	 cmp	 DWORD PTR [eax+20], 0
  0012a	74 19		 je	 SHORT $LN14@delCharObj

; 2484 : 					DeathAction(ext->ptmManorIcon);

  0012c	8b 45 e0	 mov	 eax, DWORD PTR _ext$[ebp]
  0012f	8b 48 14	 mov	 ecx, DWORD PTR [eax+20]
  00132	51		 push	 ecx
  00133	e8 00 00 00 00	 call	 ?DeathAction@@YAXPAUaction@@@Z ; DeathAction
  00138	83 c4 04	 add	 esp, 4

; 2485 : 					ext->ptmManorIcon = NULL;

  0013b	8b 45 e0	 mov	 eax, DWORD PTR _ext$[ebp]
  0013e	c7 40 14 00 00
	00 00		 mov	 DWORD PTR [eax+20], 0
$LN14@delCharObj:

; 2486 : 				}
; 2487 : #endif
; 2488 : #ifdef 人物称号
; 2489 : 				if (ext->ptTitleIcon != NULL) {

  00145	8b 45 e0	 mov	 eax, DWORD PTR _ext$[ebp]
  00148	83 78 18 00	 cmp	 DWORD PTR [eax+24], 0
  0014c	74 19		 je	 SHORT $LN15@delCharObj

; 2490 : 					DeathAction(ext->ptTitleIcon);

  0014e	8b 45 e0	 mov	 eax, DWORD PTR _ext$[ebp]
  00151	8b 48 18	 mov	 ecx, DWORD PTR [eax+24]
  00154	51		 push	 ecx
  00155	e8 00 00 00 00	 call	 ?DeathAction@@YAXPAUaction@@@Z ; DeathAction
  0015a	83 c4 04	 add	 esp, 4

; 2491 : 					ext->ptTitleIcon = NULL;

  0015d	8b 45 e0	 mov	 eax, DWORD PTR _ext$[ebp]
  00160	c7 40 18 00 00
	00 00		 mov	 DWORD PTR [eax+24], 0
$LN15@delCharObj:

; 2492 : 				}
; 2493 : #endif
; 2494 : #ifdef _NB_任务指引
; 2495 : 				if( ext->ptNoticeIcon != NULL ){

  00167	8b 45 e0	 mov	 eax, DWORD PTR _ext$[ebp]
  0016a	83 78 30 00	 cmp	 DWORD PTR [eax+48], 0
  0016e	74 19		 je	 SHORT $LN16@delCharObj

; 2496 : 					DeathAction( ext->ptNoticeIcon );

  00170	8b 45 e0	 mov	 eax, DWORD PTR _ext$[ebp]
  00173	8b 48 30	 mov	 ecx, DWORD PTR [eax+48]
  00176	51		 push	 ecx
  00177	e8 00 00 00 00	 call	 ?DeathAction@@YAXPAUaction@@@Z ; DeathAction
  0017c	83 c4 04	 add	 esp, 4

; 2497 : 					ext->ptNoticeIcon = NULL;

  0017f	8b 45 e0	 mov	 eax, DWORD PTR _ext$[ebp]
  00182	c7 40 30 00 00
	00 00		 mov	 DWORD PTR [eax+48], 0
$LN16@delCharObj:

; 2498 : 				}
; 2499 : #endif
; 2500 : #ifdef _ITEM_FIREWORK
; 2501 : 				if (ext->pActFirework[0] != NULL)

  00189	b8 04 00 00 00	 mov	 eax, 4
  0018e	6b c8 00	 imul	 ecx, eax, 0
  00191	8b 55 e0	 mov	 edx, DWORD PTR _ext$[ebp]
  00194	83 7c 0a 24 00	 cmp	 DWORD PTR [edx+ecx+36], 0
  00199	74 18		 je	 SHORT $LN17@delCharObj

; 2502 : 					DeathAction(ext->pActFirework[0]);

  0019b	b8 04 00 00 00	 mov	 eax, 4
  001a0	6b c8 00	 imul	 ecx, eax, 0
  001a3	8b 55 e0	 mov	 edx, DWORD PTR _ext$[ebp]
  001a6	8b 44 0a 24	 mov	 eax, DWORD PTR [edx+ecx+36]
  001aa	50		 push	 eax
  001ab	e8 00 00 00 00	 call	 ?DeathAction@@YAXPAUaction@@@Z ; DeathAction
  001b0	83 c4 04	 add	 esp, 4
$LN17@delCharObj:

; 2503 : 				if (ext->pActFirework[1] != NULL)

  001b3	b8 04 00 00 00	 mov	 eax, 4
  001b8	c1 e0 00	 shl	 eax, 0
  001bb	8b 4d e0	 mov	 ecx, DWORD PTR _ext$[ebp]
  001be	83 7c 01 24 00	 cmp	 DWORD PTR [ecx+eax+36], 0
  001c3	74 18		 je	 SHORT $LN18@delCharObj

; 2504 : 					DeathAction(ext->pActFirework[1]);

  001c5	b8 04 00 00 00	 mov	 eax, 4
  001ca	c1 e0 00	 shl	 eax, 0
  001cd	8b 4d e0	 mov	 ecx, DWORD PTR _ext$[ebp]
  001d0	8b 54 01 24	 mov	 edx, DWORD PTR [ecx+eax+36]
  001d4	52		 push	 edx
  001d5	e8 00 00 00 00	 call	 ?DeathAction@@YAXPAUaction@@@Z ; DeathAction
  001da	83 c4 04	 add	 esp, 4
$LN18@delCharObj:

; 2505 : 				ext->pActFirework[0] = NULL;

  001dd	b8 04 00 00 00	 mov	 eax, 4
  001e2	6b c8 00	 imul	 ecx, eax, 0
  001e5	8b 55 e0	 mov	 edx, DWORD PTR _ext$[ebp]
  001e8	c7 44 0a 24 00
	00 00 00	 mov	 DWORD PTR [edx+ecx+36], 0

; 2506 : 				ext->pActFirework[1] = NULL;

  001f0	b8 04 00 00 00	 mov	 eax, 4
  001f5	c1 e0 00	 shl	 eax, 0
  001f8	8b 4d e0	 mov	 ecx, DWORD PTR _ext$[ebp]
  001fb	c7 44 01 24 00
	00 00 00	 mov	 DWORD PTR [ecx+eax+36], 0
$LN9@delCharObj:

; 2507 : #endif
; 2508 : 			}
; 2509 : 			DeathAction( charObj[no].ptAct );

  00203	69 45 ec 0c 01
	00 00		 imul	 eax, DWORD PTR _no$[ebp], 268
  0020a	8b 88 bc 00 00
	00		 mov	 ecx, DWORD PTR ?charObj@@3PAUCHAROBJ@@A[eax+188]
  00210	51		 push	 ecx
  00211	e8 00 00 00 00	 call	 ?DeathAction@@YAXPAUaction@@@Z ; DeathAction
  00216	83 c4 04	 add	 esp, 4

; 2510 : 			charObj[no].ptAct = NULL;

  00219	69 45 ec 0c 01
	00 00		 imul	 eax, DWORD PTR _no$[ebp], 268
  00220	c7 80 bc 00 00
	00 00 00 00 00	 mov	 DWORD PTR ?charObj@@3PAUCHAROBJ@@A[eax+188], 0
$LN7@delCharObj:

; 2511 : 		}
; 2512 : 		charObj[no].use = CHAROBJ_USE_FREE;

  0022a	69 45 ec 0c 01
	00 00		 imul	 eax, DWORD PTR _no$[ebp], 268
  00231	33 c9		 xor	 ecx, ecx
  00233	66 89 88 00 00
	00 00		 mov	 WORD PTR ?charObj@@3PAUCHAROBJ@@A[eax], cx

; 2513 : 		charObj[no].status = 0;

  0023a	69 45 ec 0c 01
	00 00		 imul	 eax, DWORD PTR _no$[ebp], 268
  00241	c7 80 2c 00 00
	00 00 00 00 00	 mov	 DWORD PTR ?charObj@@3PAUCHAROBJ@@A[eax+44], 0

; 2514 : 		charObj[no].stockDir = -1;

  0024b	69 45 ec 0c 01
	00 00		 imul	 eax, DWORD PTR _no$[ebp], 268
  00252	c7 80 1c 00 00
	00 ff ff ff ff	 mov	 DWORD PTR ?charObj@@3PAUCHAROBJ@@A[eax+28], -1

; 2515 : 		// K???
; 2516 : 		if( maxCharObj > 0 )

  0025c	83 3d 00 00 00
	00 00		 cmp	 DWORD PTR ?maxCharObj@@3HA, 0 ; maxCharObj
  00263	7e 0d		 jle	 SHORT $LN19@delCharObj

; 2517 : 			maxCharObj--;

  00265	a1 00 00 00 00	 mov	 eax, DWORD PTR ?maxCharObj@@3HA ; maxCharObj
  0026a	83 e8 01	 sub	 eax, 1
  0026d	a3 00 00 00 00	 mov	 DWORD PTR ?maxCharObj@@3HA, eax ; maxCharObj
$LN19@delCharObj:

; 2518 : 		// ?????t??q??????????t???
; 2519 : 		if( freeCharObj > no )

  00272	a1 00 00 00 00	 mov	 eax, DWORD PTR ?freeCharObj@@3HA ; freeCharObj
  00277	3b 45 ec	 cmp	 eax, DWORD PTR _no$[ebp]
  0027a	7e 08		 jle	 SHORT $LN20@delCharObj

; 2520 : 			freeCharObj = no;

  0027c	8b 45 ec	 mov	 eax, DWORD PTR _no$[ebp]
  0027f	a3 00 00 00 00	 mov	 DWORD PTR ?freeCharObj@@3HA, eax ; freeCharObj
$LN20@delCharObj:

; 2521 : 		// K?????????S?
; 2522 : 		for( i = tailCharObj; i > 0; i-- ){

  00284	a1 00 00 00 00	 mov	 eax, DWORD PTR ?tailCharObj@@3HA ; tailCharObj
  00289	89 45 f8	 mov	 DWORD PTR _i$[ebp], eax
  0028c	eb 09		 jmp	 SHORT $LN4@delCharObj
$LN2@delCharObj:
  0028e	8b 45 f8	 mov	 eax, DWORD PTR _i$[ebp]
  00291	83 e8 01	 sub	 eax, 1
  00294	89 45 f8	 mov	 DWORD PTR _i$[ebp], eax
$LN4@delCharObj:
  00297	83 7d f8 00	 cmp	 DWORD PTR _i$[ebp], 0
  0029b	7e 23		 jle	 SHORT $LN1@delCharObj

; 2523 : 			if( charObj[i-1].use != CHAROBJ_USE_FREE ){

  0029d	8b 45 f8	 mov	 eax, DWORD PTR _i$[ebp]
  002a0	83 e8 01	 sub	 eax, 1
  002a3	69 c8 0c 01 00
	00		 imul	 ecx, eax, 268
  002a9	0f bf 91 00 00
	00 00		 movsx	 edx, WORD PTR ?charObj@@3PAUCHAROBJ@@A[ecx]
  002b0	85 d2		 test	 edx, edx
  002b2	74 0a		 je	 SHORT $LN21@delCharObj

; 2524 : 				tailCharObj = i;

  002b4	8b 45 f8	 mov	 eax, DWORD PTR _i$[ebp]
  002b7	a3 00 00 00 00	 mov	 DWORD PTR ?tailCharObj@@3HA, eax ; tailCharObj

; 2525 : 				break;

  002bc	eb 02		 jmp	 SHORT $LN1@delCharObj
$LN21@delCharObj:

; 2526 : 			}
; 2527 : 		}

  002be	eb ce		 jmp	 SHORT $LN2@delCharObj
$LN1@delCharObj:

; 2528 : 	}
; 2529 : }

  002c0	5f		 pop	 edi
  002c1	5e		 pop	 esi
  002c2	5b		 pop	 ebx
  002c3	81 c4 e4 00 00
	00		 add	 esp, 228		; 000000e4H
  002c9	3b ec		 cmp	 ebp, esp
  002cb	e8 00 00 00 00	 call	 __RTC_CheckEsp
  002d0	8b e5		 mov	 esp, ebp
  002d2	5d		 pop	 ebp
  002d3	c3		 ret	 0
?delCharObj@@YAXH@Z ENDP				; delCharObj
_TEXT	ENDS
; Function compile flags: /Odtp /RTCsu /ZI
; File c:\users\administrator\desktop\????? ??\????? ??\client source code\system\character.cpp
;	COMDAT ?getAtrCharObjType@@YAHH@Z
_TEXT	SEGMENT
tv64 = -208						; size = 4
_ret$ = -8						; size = 4
_type$ = 8						; size = 4
?getAtrCharObjType@@YAHH@Z PROC				; getAtrCharObjType, COMDAT

; 2400 : {

  00000	55		 push	 ebp
  00001	8b ec		 mov	 ebp, esp
  00003	81 ec d0 00 00
	00		 sub	 esp, 208		; 000000d0H
  00009	53		 push	 ebx
  0000a	56		 push	 esi
  0000b	57		 push	 edi
  0000c	8d bd 30 ff ff
	ff		 lea	 edi, DWORD PTR [ebp-208]
  00012	b9 34 00 00 00	 mov	 ecx, 52			; 00000034H
  00017	b8 cc cc cc cc	 mov	 eax, -858993460		; ccccccccH
  0001c	f3 ab		 rep stosd

; 2401 : 	int ret;
; 2402 : 	switch( type ){

  0001e	8b 45 08	 mov	 eax, DWORD PTR _type$[ebp]
  00021	89 85 30 ff ff
	ff		 mov	 DWORD PTR tv64[ebp], eax
  00027	8b 8d 30 ff ff
	ff		 mov	 ecx, DWORD PTR tv64[ebp]
  0002d	83 e9 01	 sub	 ecx, 1
  00030	89 8d 30 ff ff
	ff		 mov	 DWORD PTR tv64[ebp], ecx
  00036	83 bd 30 ff ff
	ff 1f		 cmp	 DWORD PTR tv64[ebp], 31	; 0000001fH
  0003d	77 2f		 ja	 SHORT $LN7@getAtrChar
  0003f	8b 95 30 ff ff
	ff		 mov	 edx, DWORD PTR tv64[ebp]
  00045	0f b6 82 00 00
	00 00		 movzx	 eax, BYTE PTR $LN9@getAtrChar[edx]
  0004c	ff 24 85 00 00
	00 00		 jmp	 DWORD PTR $LN10@getAtrChar[eax*4]
$LN4@getAtrChar:

; 2403 : 		case CHAR_TYPEPLAYER:
; 2404 : 			ret = CHAROBJ_TYPE_USER_NPC;

  00053	c7 45 f8 08 00
	00 00		 mov	 DWORD PTR _ret$[ebp], 8

; 2405 : 			break;

  0005a	eb 19		 jmp	 SHORT $LN2@getAtrChar
$LN5@getAtrChar:

; 2406 : 		case CHAR_TYPEDENGON:
; 2407 : 		case CHAR_TYPEDUELRANKING:
; 2408 : 		case CHAR_TYPEMSG:
; 2409 : 			ret = CHAROBJ_TYPE_NPC | CHAROBJ_TYPE_LOOKAT;

  0005c	c7 45 f8 11 00
	00 00		 mov	 DWORD PTR _ret$[ebp], 17 ; 00000011H

; 2410 : 			break;

  00063	eb 10		 jmp	 SHORT $LN2@getAtrChar
$LN6@getAtrChar:

; 2411 : 		case CHAR_TYPEBUS:
; 2412 : 			ret = CHAROBJ_TYPE_NPC | CHAROBJ_TYPE_PARTY_OK;

  00065	c7 45 f8 21 00
	00 00		 mov	 DWORD PTR _ret$[ebp], 33 ; 00000021H

; 2413 : 			break;

  0006c	eb 07		 jmp	 SHORT $LN2@getAtrChar
$LN7@getAtrChar:

; 2414 : 		default:
; 2415 : 			ret = CHAROBJ_TYPE_NPC;

  0006e	c7 45 f8 01 00
	00 00		 mov	 DWORD PTR _ret$[ebp], 1
$LN2@getAtrChar:

; 2416 : 			break;
; 2417 : 	}
; 2418 : 	return ret;

  00075	8b 45 f8	 mov	 eax, DWORD PTR _ret$[ebp]

; 2419 : }

  00078	5f		 pop	 edi
  00079	5e		 pop	 esi
  0007a	5b		 pop	 ebx
  0007b	8b e5		 mov	 esp, ebp
  0007d	5d		 pop	 ebp
  0007e	c3		 ret	 0
  0007f	90		 npad	 1
$LN10@getAtrChar:
  00080	00 00 00 00	 DD	 $LN4@getAtrChar
  00084	00 00 00 00	 DD	 $LN5@getAtrChar
  00088	00 00 00 00	 DD	 $LN6@getAtrChar
  0008c	00 00 00 00	 DD	 $LN7@getAtrChar
$LN9@getAtrChar:
  00090	00		 DB	 0
  00091	03		 DB	 3
  00092	03		 DB	 3
  00093	03		 DB	 3
  00094	03		 DB	 3
  00095	01		 DB	 1
  00096	03		 DB	 3
  00097	03		 DB	 3
  00098	03		 DB	 3
  00099	03		 DB	 3
  0009a	03		 DB	 3
  0009b	03		 DB	 3
  0009c	01		 DB	 1
  0009d	03		 DB	 3
  0009e	03		 DB	 3
  0009f	03		 DB	 3
  000a0	03		 DB	 3
  000a1	03		 DB	 3
  000a2	03		 DB	 3
  000a3	03		 DB	 3
  000a4	03		 DB	 3
  000a5	03		 DB	 3
  000a6	03		 DB	 3
  000a7	03		 DB	 3
  000a8	03		 DB	 3
  000a9	03		 DB	 3
  000aa	01		 DB	 1
  000ab	03		 DB	 3
  000ac	03		 DB	 3
  000ad	03		 DB	 3
  000ae	03		 DB	 3
  000af	02		 DB	 2
?getAtrCharObjType@@YAHH@Z ENDP				; getAtrCharObjType
_TEXT	ENDS
; Function compile flags: /Odtp /RTCsu /ZI
; File c:\users\administrator\desktop\????? ??\????? ??\client source code\system\character.cpp
;	COMDAT ?getAtrCharType@@YAHH@Z
_TEXT	SEGMENT
tv64 = -196						; size = 4
_type$ = 8						; size = 4
?getAtrCharType@@YAHH@Z PROC				; getAtrCharType, COMDAT

; 2380 : {

  00000	55		 push	 ebp
  00001	8b ec		 mov	 ebp, esp
  00003	81 ec c4 00 00
	00		 sub	 esp, 196		; 000000c4H
  00009	53		 push	 ebx
  0000a	56		 push	 esi
  0000b	57		 push	 edi
  0000c	8d bd 3c ff ff
	ff		 lea	 edi, DWORD PTR [ebp-196]
  00012	b9 31 00 00 00	 mov	 ecx, 49			; 00000031H
  00017	b8 cc cc cc cc	 mov	 eax, -858993460		; ccccccccH
  0001c	f3 ab		 rep stosd

; 2381 : 	switch( type ){

  0001e	8b 45 08	 mov	 eax, DWORD PTR _type$[ebp]
  00021	89 85 3c ff ff
	ff		 mov	 DWORD PTR tv64[ebp], eax
  00027	83 bd 3c ff ff
	ff 01		 cmp	 DWORD PTR tv64[ebp], 1
  0002e	74 14		 je	 SHORT $LN4@getAtrChar
  00030	83 bd 3c ff ff
	ff 03		 cmp	 DWORD PTR tv64[ebp], 3
  00037	74 12		 je	 SHORT $LN5@getAtrChar
  00039	83 bd 3c ff ff
	ff 20		 cmp	 DWORD PTR tv64[ebp], 32	; 00000020H
  00040	74 02		 je	 SHORT $LN4@getAtrChar
  00042	eb 0e		 jmp	 SHORT $LN6@getAtrChar
$LN4@getAtrChar:

; 2382 : 		// ???
; 2383 : 		case CHAR_TYPEPLAYER:
; 2384 : 		case CHAR_TYPEBUS:
; 2385 : 			return ACT_ATR_TYPE_OTHER_PC;

  00044	b8 00 01 00 00	 mov	 eax, 256		; 00000100H
  00049	eb 10		 jmp	 SHORT $LN1@getAtrChar
$LN5@getAtrChar:

; 2386 : 		// ???
; 2387 : 		case CHAR_TYPEPET:
; 2388 : 			return ACT_ATR_TYPE_PET;

  0004b	b8 00 02 00 00	 mov	 eax, 512		; 00000200H
  00050	eb 09		 jmp	 SHORT $LN1@getAtrChar
$LN6@getAtrChar:

; 2389 : 		// ??\
; 2390 : 		default:
; 2391 : 			return ACT_ATR_TYPE_OTHER;

  00052	b8 00 10 00 00	 mov	 eax, 4096		; 00001000H
  00057	eb 02		 jmp	 SHORT $LN1@getAtrChar

; 2392 : 	}
; 2393 : 	return 0;

  00059	33 c0		 xor	 eax, eax
$LN1@getAtrChar:

; 2394 : }

  0005b	5f		 pop	 edi
  0005c	5e		 pop	 esi
  0005d	5b		 pop	 ebx
  0005e	8b e5		 mov	 esp, ebp
  00060	5d		 pop	 ebp
  00061	c3		 ret	 0
?getAtrCharType@@YAHH@Z ENDP				; getAtrCharType
_TEXT	ENDS
; Function compile flags: /Odtp /RTCsu /ZI
; File c:\users\administrator\desktop\????? ??\????? ??\client source code\system\character.cpp
;	COMDAT ?setMoneyCharObj@@YAXHHHHHHPAD@Z
_TEXT	SEGMENT
_ext$ = -32						; size = 4
_existFlag$ = -20					; size = 4
_no$ = -8						; size = 4
_id$ = 8						; size = 4
_graNo$ = 12						; size = 4
_gx$ = 16						; size = 4
_gy$ = 20						; size = 4
_dir$ = 24						; size = 4
_money$ = 28						; size = 4
_info$ = 32						; size = 4
?setMoneyCharObj@@YAXHHHHHHPAD@Z PROC			; setMoneyCharObj, COMDAT

; 2298 : {

  00000	55		 push	 ebp
  00001	8b ec		 mov	 ebp, esp
  00003	81 ec e4 00 00
	00		 sub	 esp, 228		; 000000e4H
  00009	53		 push	 ebx
  0000a	56		 push	 esi
  0000b	57		 push	 edi
  0000c	8d bd 1c ff ff
	ff		 lea	 edi, DWORD PTR [ebp-228]
  00012	b9 39 00 00 00	 mov	 ecx, 57			; 00000039H
  00017	b8 cc cc cc cc	 mov	 eax, -858993460		; ccccccccH
  0001c	f3 ab		 rep stosd

; 2299 : 	int no;
; 2300 : 	BOOL existFlag = FALSE;

  0001e	c7 45 ec 00 00
	00 00		 mov	 DWORD PTR _existFlag$[ebp], 0

; 2301 : 	CHAREXTRA *ext;
; 2302 : 	// K???????????
; 2303 : 	if( (no = searchCharObjId( id )) >= 0 )

  00025	8b 45 08	 mov	 eax, DWORD PTR _id$[ebp]
  00028	50		 push	 eax
  00029	e8 00 00 00 00	 call	 ?searchCharObjId@@YAHH@Z ; searchCharObjId
  0002e	83 c4 04	 add	 esp, 4
  00031	89 45 f8	 mov	 DWORD PTR _no$[ebp], eax
  00034	83 7d f8 00	 cmp	 DWORD PTR _no$[ebp], 0
  00038	7c 07		 jl	 SHORT $LN2@setMoneyCh

; 2304 : 		existFlag = TRUE;

  0003a	c7 45 ec 01 00
	00 00		 mov	 DWORD PTR _existFlag$[ebp], 1
$LN2@setMoneyCh:

; 2305 : 	// ??K?????????K?
; 2306 : 	if( !existFlag ){

  00041	83 7d ec 00	 cmp	 DWORD PTR _existFlag$[ebp], 0
  00045	0f 85 af 00 00
	00		 jne	 $LN3@setMoneyCh

; 2307 : 		no = getCharObjBuf();

  0004b	e8 00 00 00 00	 call	 ?getCharObjBuf@@YAHXZ	; getCharObjBuf
  00050	89 45 f8	 mov	 DWORD PTR _no$[ebp], eax

; 2308 : 		if( no < 0 )

  00053	83 7d f8 00	 cmp	 DWORD PTR _no$[ebp], 0
  00057	7d 05		 jge	 SHORT $LN4@setMoneyCh

; 2309 : 			return;	// ????????????

  00059	e9 dd 01 00 00	 jmp	 $LN1@setMoneyCh
$LN4@setMoneyCh:

; 2310 : 		charObj[no].ptAct = createCharAction( graNo, gx, gy, dir );

  0005e	8b 45 18	 mov	 eax, DWORD PTR _dir$[ebp]
  00061	50		 push	 eax
  00062	8b 4d 14	 mov	 ecx, DWORD PTR _gy$[ebp]
  00065	51		 push	 ecx
  00066	8b 55 10	 mov	 edx, DWORD PTR _gx$[ebp]
  00069	52		 push	 edx
  0006a	8b 45 0c	 mov	 eax, DWORD PTR _graNo$[ebp]
  0006d	50		 push	 eax
  0006e	e8 00 00 00 00	 call	 ?createCharAction@@YAPAUaction@@HHHH@Z ; createCharAction
  00073	83 c4 10	 add	 esp, 16			; 00000010H
  00076	69 4d f8 0c 01
	00 00		 imul	 ecx, DWORD PTR _no$[ebp], 268
  0007d	89 81 bc 00 00
	00		 mov	 DWORD PTR ?charObj@@3PAUCHAROBJ@@A[ecx+188], eax

; 2311 : 		if( charObj[no].ptAct == NULL )

  00083	69 45 f8 0c 01
	00 00		 imul	 eax, DWORD PTR _no$[ebp], 268
  0008a	83 b8 bc 00 00
	00 00		 cmp	 DWORD PTR ?charObj@@3PAUCHAROBJ@@A[eax+188], 0
  00091	75 05		 jne	 SHORT $LN5@setMoneyCh

; 2312 : 			// K??????????o???????????
; 2313 : 			return;

  00093	e9 a3 01 00 00	 jmp	 $LN1@setMoneyCh
$LN5@setMoneyCh:

; 2314 : 		charObj[no].use = CHAROBJ_USE_VIEW;

  00098	69 45 f8 0c 01
	00 00		 imul	 eax, DWORD PTR _no$[ebp], 268
  0009f	b9 02 00 00 00	 mov	 ecx, 2
  000a4	66 89 88 00 00
	00 00		 mov	 WORD PTR ?charObj@@3PAUCHAROBJ@@A[eax], cx

; 2315 : 		ext = (CHAREXTRA *)charObj[no].ptAct->pYobi;

  000ab	69 45 f8 0c 01
	00 00		 imul	 eax, DWORD PTR _no$[ebp], 268
  000b2	8b 88 bc 00 00
	00		 mov	 ecx, DWORD PTR ?charObj@@3PAUCHAROBJ@@A[eax+188]
  000b8	8b 51 0c	 mov	 edx, DWORD PTR [ecx+12]
  000bb	89 55 e0	 mov	 DWORD PTR _ext$[ebp], edx

; 2316 : 		ext->charObjTblId = no;

  000be	8b 45 e0	 mov	 eax, DWORD PTR _ext$[ebp]
  000c1	8b 4d f8	 mov	 ecx, DWORD PTR _no$[ebp]
  000c4	89 08		 mov	 DWORD PTR [eax], ecx

; 2317 : 		charObj[no].type      = CHAROBJ_TYPE_MONEY;

  000c6	69 45 f8 0c 01
	00 00		 imul	 eax, DWORD PTR _no$[ebp], 268
  000cd	b9 04 00 00 00	 mov	 ecx, 4
  000d2	66 89 88 02 00
	00 00		 mov	 WORD PTR ?charObj@@3PAUCHAROBJ@@A[eax+2], cx

; 2318 : 		charObj[no].id        = id;

  000d9	69 45 f8 0c 01
	00 00		 imul	 eax, DWORD PTR _no$[ebp], 268
  000e0	8b 4d 08	 mov	 ecx, DWORD PTR _id$[ebp]
  000e3	89 88 04 00 00
	00		 mov	 DWORD PTR ?charObj@@3PAUCHAROBJ@@A[eax+4], ecx

; 2319 : 		charObj[no].stockDir  = -1;

  000e9	69 45 f8 0c 01
	00 00		 imul	 eax, DWORD PTR _no$[ebp], 268
  000f0	c7 80 1c 00 00
	00 ff ff ff ff	 mov	 DWORD PTR ?charObj@@3PAUCHAROBJ@@A[eax+28], -1
$LN3@setMoneyCh:

; 2320 : 	}
; 2321 : 	charObj[no].graNo = graNo;

  000fa	69 45 f8 0c 01
	00 00		 imul	 eax, DWORD PTR _no$[ebp], 268
  00101	8b 4d 0c	 mov	 ecx, DWORD PTR _graNo$[ebp]
  00104	89 88 08 00 00
	00		 mov	 DWORD PTR ?charObj@@3PAUCHAROBJ@@A[eax+8], ecx

; 2322 : 	charObj[no].money = money;

  0010a	69 45 f8 0c 01
	00 00		 imul	 eax, DWORD PTR _no$[ebp], 268
  00111	8b 4d 1c	 mov	 ecx, DWORD PTR _money$[ebp]
  00114	89 88 34 00 00
	00		 mov	 DWORD PTR ?charObj@@3PAUCHAROBJ@@A[eax+52], ecx

; 2323 : 	charObj[no].gx = gx;

  0011a	69 45 f8 0c 01
	00 00		 imul	 eax, DWORD PTR _no$[ebp], 268
  00121	8b 4d 10	 mov	 ecx, DWORD PTR _gx$[ebp]
  00124	89 88 0c 00 00
	00		 mov	 DWORD PTR ?charObj@@3PAUCHAROBJ@@A[eax+12], ecx

; 2324 : 	charObj[no].gy = gy;

  0012a	69 45 f8 0c 01
	00 00		 imul	 eax, DWORD PTR _no$[ebp], 268
  00131	8b 4d 14	 mov	 ecx, DWORD PTR _gy$[ebp]
  00134	89 88 10 00 00
	00		 mov	 DWORD PTR ?charObj@@3PAUCHAROBJ@@A[eax+16], ecx

; 2325 : 	charObj[no].dir = dir;

  0013a	69 45 f8 0c 01
	00 00		 imul	 eax, DWORD PTR _no$[ebp], 268
  00141	8b 4d 18	 mov	 ecx, DWORD PTR _dir$[ebp]
  00144	89 88 18 00 00
	00		 mov	 DWORD PTR ?charObj@@3PAUCHAROBJ@@A[eax+24], ecx

; 2326 : 	if( strlen( info ) <= 60 )

  0014a	8b 45 20	 mov	 eax, DWORD PTR _info$[ebp]
  0014d	50		 push	 eax
  0014e	e8 00 00 00 00	 call	 _strlen
  00153	83 c4 04	 add	 esp, 4
  00156	83 f8 3c	 cmp	 eax, 60			; 0000003cH
  00159	77 1a		 ja	 SHORT $LN6@setMoneyCh

; 2327 : 		strcpy( charObj[no].info, info );

  0015b	8b 45 20	 mov	 eax, DWORD PTR _info$[ebp]
  0015e	50		 push	 eax
  0015f	69 4d f8 0c 01
	00 00		 imul	 ecx, DWORD PTR _no$[ebp], 268
  00166	81 c1 6a 00 00
	00		 add	 ecx, OFFSET ?charObj@@3PAUCHAROBJ@@A+106
  0016c	51		 push	 ecx
  0016d	e8 00 00 00 00	 call	 _strcpy
  00172	83 c4 08	 add	 esp, 8
$LN6@setMoneyCh:

; 2328 : 	charObj[no].charType = ACT_ATR_TYPE_GOLD;

  00175	69 45 f8 0c 01
	00 00		 imul	 eax, DWORD PTR _no$[ebp], 268
  0017c	c7 80 b4 00 00
	00 00 08 00 00	 mov	 DWORD PTR ?charObj@@3PAUCHAROBJ@@A[eax+180], 2048 ; 00000800H

; 2329 : 	charObj[no].newFoundFlag = 0;	// D?????????

  00186	69 45 f8 0c 01
	00 00		 imul	 eax, DWORD PTR _no$[ebp], 268
  0018d	33 c9		 xor	 ecx, ecx
  0018f	66 89 88 b8 00
	00 00		 mov	 WORD PTR ?charObj@@3PAUCHAROBJ@@A[eax+184], cx

; 2330 : 	// ???????????k?V??
; 2331 : 	if( charObj[no].ptAct == NULL )

  00196	69 45 f8 0c 01
	00 00		 imul	 eax, DWORD PTR _no$[ebp], 268
  0019d	83 b8 bc 00 00
	00 00		 cmp	 DWORD PTR ?charObj@@3PAUCHAROBJ@@A[eax+188], 0
  001a4	75 05		 jne	 SHORT $LN7@setMoneyCh

; 2332 : 		return;

  001a6	e9 90 00 00 00	 jmp	 $LN1@setMoneyCh
$LN7@setMoneyCh:

; 2333 : 	charObj[no].ptAct->anim_chr_no = graNo;

  001ab	69 45 f8 0c 01
	00 00		 imul	 eax, DWORD PTR _no$[ebp], 268
  001b2	8b 88 bc 00 00
	00		 mov	 ecx, DWORD PTR ?charObj@@3PAUCHAROBJ@@A[eax+188]
  001b8	8b 55 0c	 mov	 edx, DWORD PTR _graNo$[ebp]
  001bb	89 91 44 01 00
	00		 mov	 DWORD PTR [ecx+324], edx

; 2334 : 	// 1??????????name?V??
; 2335 : 	if( strlen( info ) <= CHAR_NAME_LEN )

  001c1	8b 45 20	 mov	 eax, DWORD PTR _info$[ebp]
  001c4	50		 push	 eax
  001c5	e8 00 00 00 00	 call	 _strlen
  001ca	83 c4 04	 add	 esp, 4
  001cd	83 f8 10	 cmp	 eax, 16			; 00000010H
  001d0	77 1f		 ja	 SHORT $LN8@setMoneyCh

; 2336 : 		strcpy( charObj[no].ptAct->name, info );

  001d2	8b 45 20	 mov	 eax, DWORD PTR _info$[ebp]
  001d5	50		 push	 eax
  001d6	69 4d f8 0c 01
	00 00		 imul	 ecx, DWORD PTR _no$[ebp], 268
  001dd	8b 91 bc 00 00
	00		 mov	 edx, DWORD PTR ?charObj@@3PAUCHAROBJ@@A[ecx+188]
  001e3	83 c2 38	 add	 edx, 56			; 00000038H
  001e6	52		 push	 edx
  001e7	e8 00 00 00 00	 call	 _strcpy
  001ec	83 c4 08	 add	 esp, 8

; 2337 : 	else

  001ef	eb 1e		 jmp	 SHORT $LN9@setMoneyCh
$LN8@setMoneyCh:

; 2338 : 		strcpy( charObj[no].ptAct->name, "???" );

  001f1	68 00 00 00 00	 push	 OFFSET ??_C@_03BBKEAIF@?$DP?$DP?$DP?$AA@
  001f6	69 45 f8 0c 01
	00 00		 imul	 eax, DWORD PTR _no$[ebp], 268
  001fd	8b 88 bc 00 00
	00		 mov	 ecx, DWORD PTR ?charObj@@3PAUCHAROBJ@@A[eax+188]
  00203	83 c1 38	 add	 ecx, 56			; 00000038H
  00206	51		 push	 ecx
  00207	e8 00 00 00 00	 call	 _strcpy
  0020c	83 c4 08	 add	 esp, 8
$LN9@setMoneyCh:

; 2339 : 	charObj[no].ptAct->atr |= ACT_ATR_TYPE_GOLD;

  0020f	69 45 f8 0c 01
	00 00		 imul	 eax, DWORD PTR _no$[ebp], 268
  00216	8b 88 bc 00 00
	00		 mov	 ecx, DWORD PTR ?charObj@@3PAUCHAROBJ@@A[eax+188]
  0021c	8b 91 a4 00 00
	00		 mov	 edx, DWORD PTR [ecx+164]
  00222	81 ca 00 08 00
	00		 or	 edx, 2048		; 00000800H
  00228	69 45 f8 0c 01
	00 00		 imul	 eax, DWORD PTR _no$[ebp], 268
  0022f	8b 88 bc 00 00
	00		 mov	 ecx, DWORD PTR ?charObj@@3PAUCHAROBJ@@A[eax+188]
  00235	89 91 a4 00 00
	00		 mov	 DWORD PTR [ecx+164], edx
$LN1@setMoneyCh:

; 2340 : }

  0023b	5f		 pop	 edi
  0023c	5e		 pop	 esi
  0023d	5b		 pop	 ebx
  0023e	81 c4 e4 00 00
	00		 add	 esp, 228		; 000000e4H
  00244	3b ec		 cmp	 ebp, esp
  00246	e8 00 00 00 00	 call	 __RTC_CheckEsp
  0024b	8b e5		 mov	 esp, ebp
  0024d	5d		 pop	 ebp
  0024e	c3		 ret	 0
?setMoneyCharObj@@YAXHHHHHHPAD@Z ENDP			; setMoneyCharObj
_TEXT	ENDS
; Function compile flags: /Odtp /RTCsu /ZI
; File c:\users\administrator\desktop\????? ??\????? ??\client source code\system\character.cpp
;	COMDAT ?setItemCharObj@@YAXHHHHHHPAD@Z
_TEXT	SEGMENT
_ext$ = -32						; size = 4
_existFlag$ = -20					; size = 4
_no$ = -8						; size = 4
_id$ = 8						; size = 4
_graNo$ = 12						; size = 4
_gx$ = 16						; size = 4
_gy$ = 20						; size = 4
_dir$ = 24						; size = 4
_classNo$ = 28						; size = 4
_info$ = 32						; size = 4
?setItemCharObj@@YAXHHHHHHPAD@Z PROC			; setItemCharObj, COMDAT

; 2249 : {

  00000	55		 push	 ebp
  00001	8b ec		 mov	 ebp, esp
  00003	81 ec e4 00 00
	00		 sub	 esp, 228		; 000000e4H
  00009	53		 push	 ebx
  0000a	56		 push	 esi
  0000b	57		 push	 edi
  0000c	8d bd 1c ff ff
	ff		 lea	 edi, DWORD PTR [ebp-228]
  00012	b9 39 00 00 00	 mov	 ecx, 57			; 00000039H
  00017	b8 cc cc cc cc	 mov	 eax, -858993460		; ccccccccH
  0001c	f3 ab		 rep stosd

; 2250 : 	int no;
; 2251 : 	BOOL existFlag = FALSE;

  0001e	c7 45 ec 00 00
	00 00		 mov	 DWORD PTR _existFlag$[ebp], 0

; 2252 : 	CHAREXTRA *ext;
; 2253 : 	// K???????????
; 2254 : 	if( (no = searchCharObjId( id )) >= 0 )

  00025	8b 45 08	 mov	 eax, DWORD PTR _id$[ebp]
  00028	50		 push	 eax
  00029	e8 00 00 00 00	 call	 ?searchCharObjId@@YAHH@Z ; searchCharObjId
  0002e	83 c4 04	 add	 esp, 4
  00031	89 45 f8	 mov	 DWORD PTR _no$[ebp], eax
  00034	83 7d f8 00	 cmp	 DWORD PTR _no$[ebp], 0
  00038	7c 07		 jl	 SHORT $LN2@setItemCha

; 2255 : 		existFlag = TRUE;

  0003a	c7 45 ec 01 00
	00 00		 mov	 DWORD PTR _existFlag$[ebp], 1
$LN2@setItemCha:

; 2256 : 	// ??K?????????K?
; 2257 : 	if( !existFlag ){

  00041	83 7d ec 00	 cmp	 DWORD PTR _existFlag$[ebp], 0
  00045	0f 85 af 00 00
	00		 jne	 $LN3@setItemCha

; 2258 : 		no = getCharObjBuf();

  0004b	e8 00 00 00 00	 call	 ?getCharObjBuf@@YAHXZ	; getCharObjBuf
  00050	89 45 f8	 mov	 DWORD PTR _no$[ebp], eax

; 2259 : 		if( no < 0 )

  00053	83 7d f8 00	 cmp	 DWORD PTR _no$[ebp], 0
  00057	7d 05		 jge	 SHORT $LN4@setItemCha

; 2260 : 			return;	// ????????????

  00059	e9 f3 01 00 00	 jmp	 $LN1@setItemCha
$LN4@setItemCha:

; 2261 : 		charObj[no].ptAct = createCharAction( graNo, gx, gy, dir );

  0005e	8b 45 18	 mov	 eax, DWORD PTR _dir$[ebp]
  00061	50		 push	 eax
  00062	8b 4d 14	 mov	 ecx, DWORD PTR _gy$[ebp]
  00065	51		 push	 ecx
  00066	8b 55 10	 mov	 edx, DWORD PTR _gx$[ebp]
  00069	52		 push	 edx
  0006a	8b 45 0c	 mov	 eax, DWORD PTR _graNo$[ebp]
  0006d	50		 push	 eax
  0006e	e8 00 00 00 00	 call	 ?createCharAction@@YAPAUaction@@HHHH@Z ; createCharAction
  00073	83 c4 10	 add	 esp, 16			; 00000010H
  00076	69 4d f8 0c 01
	00 00		 imul	 ecx, DWORD PTR _no$[ebp], 268
  0007d	89 81 bc 00 00
	00		 mov	 DWORD PTR ?charObj@@3PAUCHAROBJ@@A[ecx+188], eax

; 2262 : 		if( charObj[no].ptAct == NULL )

  00083	69 45 f8 0c 01
	00 00		 imul	 eax, DWORD PTR _no$[ebp], 268
  0008a	83 b8 bc 00 00
	00 00		 cmp	 DWORD PTR ?charObj@@3PAUCHAROBJ@@A[eax+188], 0
  00091	75 05		 jne	 SHORT $LN5@setItemCha

; 2263 : 			// K??????????o???????????
; 2264 : 			return;

  00093	e9 b9 01 00 00	 jmp	 $LN1@setItemCha
$LN5@setItemCha:

; 2265 : 		charObj[no].use = CHAROBJ_USE_VIEW;

  00098	69 45 f8 0c 01
	00 00		 imul	 eax, DWORD PTR _no$[ebp], 268
  0009f	b9 02 00 00 00	 mov	 ecx, 2
  000a4	66 89 88 00 00
	00 00		 mov	 WORD PTR ?charObj@@3PAUCHAROBJ@@A[eax], cx

; 2266 : 		ext = (CHAREXTRA *)charObj[no].ptAct->pYobi;

  000ab	69 45 f8 0c 01
	00 00		 imul	 eax, DWORD PTR _no$[ebp], 268
  000b2	8b 88 bc 00 00
	00		 mov	 ecx, DWORD PTR ?charObj@@3PAUCHAROBJ@@A[eax+188]
  000b8	8b 51 0c	 mov	 edx, DWORD PTR [ecx+12]
  000bb	89 55 e0	 mov	 DWORD PTR _ext$[ebp], edx

; 2267 : 		ext->charObjTblId = no;

  000be	8b 45 e0	 mov	 eax, DWORD PTR _ext$[ebp]
  000c1	8b 4d f8	 mov	 ecx, DWORD PTR _no$[ebp]
  000c4	89 08		 mov	 DWORD PTR [eax], ecx

; 2268 : 		charObj[no].type      = CHAROBJ_TYPE_ITEM;

  000c6	69 45 f8 0c 01
	00 00		 imul	 eax, DWORD PTR _no$[ebp], 268
  000cd	b9 02 00 00 00	 mov	 ecx, 2
  000d2	66 89 88 02 00
	00 00		 mov	 WORD PTR ?charObj@@3PAUCHAROBJ@@A[eax+2], cx

; 2269 : 		charObj[no].id        = id;

  000d9	69 45 f8 0c 01
	00 00		 imul	 eax, DWORD PTR _no$[ebp], 268
  000e0	8b 4d 08	 mov	 ecx, DWORD PTR _id$[ebp]
  000e3	89 88 04 00 00
	00		 mov	 DWORD PTR ?charObj@@3PAUCHAROBJ@@A[eax+4], ecx

; 2270 : 		charObj[no].stockDir  = -1;

  000e9	69 45 f8 0c 01
	00 00		 imul	 eax, DWORD PTR _no$[ebp], 268
  000f0	c7 80 1c 00 00
	00 ff ff ff ff	 mov	 DWORD PTR ?charObj@@3PAUCHAROBJ@@A[eax+28], -1
$LN3@setItemCha:

; 2271 : 	}
; 2272 : 	charObj[no].graNo   = graNo;

  000fa	69 45 f8 0c 01
	00 00		 imul	 eax, DWORD PTR _no$[ebp], 268
  00101	8b 4d 0c	 mov	 ecx, DWORD PTR _graNo$[ebp]
  00104	89 88 08 00 00
	00		 mov	 DWORD PTR ?charObj@@3PAUCHAROBJ@@A[eax+8], ecx

; 2273 : 	charObj[no].classNo = classNo;

  0010a	69 45 f8 0c 01
	00 00		 imul	 eax, DWORD PTR _no$[ebp], 268
  00111	8b 4d 1c	 mov	 ecx, DWORD PTR _classNo$[ebp]
  00114	89 88 30 00 00
	00		 mov	 DWORD PTR ?charObj@@3PAUCHAROBJ@@A[eax+48], ecx

; 2274 : 	charObj[no].gx = gx;

  0011a	69 45 f8 0c 01
	00 00		 imul	 eax, DWORD PTR _no$[ebp], 268
  00121	8b 4d 10	 mov	 ecx, DWORD PTR _gx$[ebp]
  00124	89 88 0c 00 00
	00		 mov	 DWORD PTR ?charObj@@3PAUCHAROBJ@@A[eax+12], ecx

; 2275 : 	charObj[no].gy = gy;

  0012a	69 45 f8 0c 01
	00 00		 imul	 eax, DWORD PTR _no$[ebp], 268
  00131	8b 4d 14	 mov	 ecx, DWORD PTR _gy$[ebp]
  00134	89 88 10 00 00
	00		 mov	 DWORD PTR ?charObj@@3PAUCHAROBJ@@A[eax+16], ecx

; 2276 : 	charObj[no].dir = dir;

  0013a	69 45 f8 0c 01
	00 00		 imul	 eax, DWORD PTR _no$[ebp], 268
  00141	8b 4d 18	 mov	 ecx, DWORD PTR _dir$[ebp]
  00144	89 88 18 00 00
	00		 mov	 DWORD PTR ?charObj@@3PAUCHAROBJ@@A[eax+24], ecx

; 2277 : 	if( strlen( info ) <= 60 )

  0014a	8b 45 20	 mov	 eax, DWORD PTR _info$[ebp]
  0014d	50		 push	 eax
  0014e	e8 00 00 00 00	 call	 _strlen
  00153	83 c4 04	 add	 esp, 4
  00156	83 f8 3c	 cmp	 eax, 60			; 0000003cH
  00159	77 1a		 ja	 SHORT $LN6@setItemCha

; 2278 : 		strcpy( charObj[no].info, info );

  0015b	8b 45 20	 mov	 eax, DWORD PTR _info$[ebp]
  0015e	50		 push	 eax
  0015f	69 4d f8 0c 01
	00 00		 imul	 ecx, DWORD PTR _no$[ebp], 268
  00166	81 c1 6a 00 00
	00		 add	 ecx, OFFSET ?charObj@@3PAUCHAROBJ@@A+106
  0016c	51		 push	 ecx
  0016d	e8 00 00 00 00	 call	 _strcpy
  00172	83 c4 08	 add	 esp, 8
$LN6@setItemCha:

; 2279 : 	charObj[no].charType = ACT_ATR_TYPE_ITEM;

  00175	69 45 f8 0c 01
	00 00		 imul	 eax, DWORD PTR _no$[ebp], 268
  0017c	c7 80 b4 00 00
	00 00 04 00 00	 mov	 DWORD PTR ?charObj@@3PAUCHAROBJ@@A[eax+180], 1024 ; 00000400H

; 2280 : 	charObj[no].newFoundFlag = 0;	// D?????????

  00186	69 45 f8 0c 01
	00 00		 imul	 eax, DWORD PTR _no$[ebp], 268
  0018d	33 c9		 xor	 ecx, ecx
  0018f	66 89 88 b8 00
	00 00		 mov	 WORD PTR ?charObj@@3PAUCHAROBJ@@A[eax+184], cx

; 2281 : 	// ???????????k?V??
; 2282 : 	if( charObj[no].ptAct == NULL )

  00196	69 45 f8 0c 01
	00 00		 imul	 eax, DWORD PTR _no$[ebp], 268
  0019d	83 b8 bc 00 00
	00 00		 cmp	 DWORD PTR ?charObj@@3PAUCHAROBJ@@A[eax+188], 0
  001a4	75 05		 jne	 SHORT $LN7@setItemCha

; 2283 : 		return;

  001a6	e9 a6 00 00 00	 jmp	 $LN1@setItemCha
$LN7@setItemCha:

; 2284 : 	charObj[no].ptAct->anim_chr_no = graNo;

  001ab	69 45 f8 0c 01
	00 00		 imul	 eax, DWORD PTR _no$[ebp], 268
  001b2	8b 88 bc 00 00
	00		 mov	 ecx, DWORD PTR ?charObj@@3PAUCHAROBJ@@A[eax+188]
  001b8	8b 55 0c	 mov	 edx, DWORD PTR _graNo$[ebp]
  001bb	89 91 44 01 00
	00		 mov	 DWORD PTR [ecx+324], edx

; 2285 : 	// 1??????????name?V??
; 2286 : 	if( strlen( info ) <= ITEM_NAME_LEN )

  001c1	8b 45 20	 mov	 eax, DWORD PTR _info$[ebp]
  001c4	50		 push	 eax
  001c5	e8 00 00 00 00	 call	 _strlen
  001ca	83 c4 04	 add	 esp, 4
  001cd	83 f8 1c	 cmp	 eax, 28			; 0000001cH
  001d0	77 1f		 ja	 SHORT $LN8@setItemCha

; 2287 : 		strcpy( charObj[no].ptAct->name, info );

  001d2	8b 45 20	 mov	 eax, DWORD PTR _info$[ebp]
  001d5	50		 push	 eax
  001d6	69 4d f8 0c 01
	00 00		 imul	 ecx, DWORD PTR _no$[ebp], 268
  001dd	8b 91 bc 00 00
	00		 mov	 edx, DWORD PTR ?charObj@@3PAUCHAROBJ@@A[ecx+188]
  001e3	83 c2 38	 add	 edx, 56			; 00000038H
  001e6	52		 push	 edx
  001e7	e8 00 00 00 00	 call	 _strcpy
  001ec	83 c4 08	 add	 esp, 8

; 2288 : 	else

  001ef	eb 1e		 jmp	 SHORT $LN9@setItemCha
$LN8@setItemCha:

; 2289 : 		strcpy( charObj[no].ptAct->name, "???" );

  001f1	68 00 00 00 00	 push	 OFFSET ??_C@_03BBKEAIF@?$DP?$DP?$DP?$AA@
  001f6	69 45 f8 0c 01
	00 00		 imul	 eax, DWORD PTR _no$[ebp], 268
  001fd	8b 88 bc 00 00
	00		 mov	 ecx, DWORD PTR ?charObj@@3PAUCHAROBJ@@A[eax+188]
  00203	83 c1 38	 add	 ecx, 56			; 00000038H
  00206	51		 push	 ecx
  00207	e8 00 00 00 00	 call	 _strcpy
  0020c	83 c4 08	 add	 esp, 8
$LN9@setItemCha:

; 2290 : 	charObj[no].ptAct->atr |= ACT_ATR_TYPE_ITEM;

  0020f	69 45 f8 0c 01
	00 00		 imul	 eax, DWORD PTR _no$[ebp], 268
  00216	8b 88 bc 00 00
	00		 mov	 ecx, DWORD PTR ?charObj@@3PAUCHAROBJ@@A[eax+188]
  0021c	8b 91 a4 00 00
	00		 mov	 edx, DWORD PTR [ecx+164]
  00222	81 ca 00 04 00
	00		 or	 edx, 1024		; 00000400H
  00228	69 45 f8 0c 01
	00 00		 imul	 eax, DWORD PTR _no$[ebp], 268
  0022f	8b 88 bc 00 00
	00		 mov	 ecx, DWORD PTR ?charObj@@3PAUCHAROBJ@@A[eax+188]
  00235	89 91 a4 00 00
	00		 mov	 DWORD PTR [ecx+164], edx

; 2291 : 	charObj[no].ptAct->itemNameColor = classNo;

  0023b	69 45 f8 0c 01
	00 00		 imul	 eax, DWORD PTR _no$[ebp], 268
  00242	8b 88 bc 00 00
	00		 mov	 ecx, DWORD PTR ?charObj@@3PAUCHAROBJ@@A[eax+188]
  00248	8b 55 1c	 mov	 edx, DWORD PTR _classNo$[ebp]
  0024b	89 91 94 00 00
	00		 mov	 DWORD PTR [ecx+148], edx
$LN1@setItemCha:

; 2292 : }

  00251	5f		 pop	 edi
  00252	5e		 pop	 esi
  00253	5b		 pop	 ebx
  00254	81 c4 e4 00 00
	00		 add	 esp, 228		; 000000e4H
  0025a	3b ec		 cmp	 ebp, esp
  0025c	e8 00 00 00 00	 call	 __RTC_CheckEsp
  00261	8b e5		 mov	 esp, ebp
  00263	5d		 pop	 ebp
  00264	c3		 ret	 0
?setItemCharObj@@YAXHHHHHHPAD@Z ENDP			; setItemCharObj
_TEXT	ENDS
; Function compile flags: /Odtp /RTCsu /ZI
; File c:\users\administrator\desktop\????? ??\????? ??\client source code\system\character.cpp
;	COMDAT ?setReturnPetObj@@YAHHHHHHPAD0HHHHH@Z
_TEXT	SEGMENT
_no$ = -8						; size = 4
_id$ = 8						; size = 4
_graNo$ = 12						; size = 4
_gx$ = 16						; size = 4
_gy$ = 20						; size = 4
_dir$ = 24						; size = 4
_name$ = 28						; size = 4
_freeName$ = 32						; size = 4
_level$ = 36						; size = 4
_nameColor$ = 40					; size = 4
_walk$ = 44						; size = 4
_height$ = 48						; size = 4
_charType$ = 52						; size = 4
?setReturnPetObj@@YAHHHHHHPAD0HHHHH@Z PROC		; setReturnPetObj, COMDAT

; 2213 : {

  00000	55		 push	 ebp
  00001	8b ec		 mov	 ebp, esp
  00003	81 ec cc 00 00
	00		 sub	 esp, 204		; 000000ccH
  00009	53		 push	 ebx
  0000a	56		 push	 esi
  0000b	57		 push	 edi
  0000c	8d bd 34 ff ff
	ff		 lea	 edi, DWORD PTR [ebp-204]
  00012	b9 33 00 00 00	 mov	 ecx, 51			; 00000033H
  00017	b8 cc cc cc cc	 mov	 eax, -858993460		; ccccccccH
  0001c	f3 ab		 rep stosd

; 2214 : 	int no;
; 2215 : 	// K???????????
; 2216 : 	if( (no = searchCharObjId( id )) >= 0 )

  0001e	8b 45 08	 mov	 eax, DWORD PTR _id$[ebp]
  00021	50		 push	 eax
  00022	e8 00 00 00 00	 call	 ?searchCharObjId@@YAHH@Z ; searchCharObjId
  00027	83 c4 04	 add	 esp, 4
  0002a	89 45 f8	 mov	 DWORD PTR _no$[ebp], eax
  0002d	83 7d f8 00	 cmp	 DWORD PTR _no$[ebp], 0
  00031	7c 07		 jl	 SHORT $LN2@setReturnP

; 2217 : 		// ?????
; 2218 : 		return FALSE;

  00033	33 c0		 xor	 eax, eax
  00035	e9 82 01 00 00	 jmp	 $LN1@setReturnP
$LN2@setReturnP:

; 2219 : 	// ??K?????????K?
; 2220 : 	no = getCharObjBuf();

  0003a	e8 00 00 00 00	 call	 ?getCharObjBuf@@YAHXZ	; getCharObjBuf
  0003f	89 45 f8	 mov	 DWORD PTR _no$[ebp], eax

; 2221 : 	if( no < 0 )

  00042	83 7d f8 00	 cmp	 DWORD PTR _no$[ebp], 0
  00046	7d 07		 jge	 SHORT $LN3@setReturnP

; 2222 : 		return FALSE;	// ????????????

  00048	33 c0		 xor	 eax, eax
  0004a	e9 6d 01 00 00	 jmp	 $LN1@setReturnP
$LN3@setReturnP:

; 2223 : 	charObj[no].ptAct = NULL;

  0004f	69 45 f8 0c 01
	00 00		 imul	 eax, DWORD PTR _no$[ebp], 268
  00056	c7 80 bc 00 00
	00 00 00 00 00	 mov	 DWORD PTR ?charObj@@3PAUCHAROBJ@@A[eax+188], 0

; 2224 : 	charObj[no].use = CHAROBJ_USE_VIEW;

  00060	69 45 f8 0c 01
	00 00		 imul	 eax, DWORD PTR _no$[ebp], 268
  00067	b9 02 00 00 00	 mov	 ecx, 2
  0006c	66 89 88 00 00
	00 00		 mov	 WORD PTR ?charObj@@3PAUCHAROBJ@@A[eax], cx

; 2225 : 	charObj[no].type      = getAtrCharObjType( charType );

  00073	8b 45 34	 mov	 eax, DWORD PTR _charType$[ebp]
  00076	50		 push	 eax
  00077	e8 00 00 00 00	 call	 ?getAtrCharObjType@@YAHH@Z ; getAtrCharObjType
  0007c	83 c4 04	 add	 esp, 4
  0007f	69 4d f8 0c 01
	00 00		 imul	 ecx, DWORD PTR _no$[ebp], 268
  00086	66 89 81 02 00
	00 00		 mov	 WORD PTR ?charObj@@3PAUCHAROBJ@@A[ecx+2], ax

; 2226 : 	charObj[no].id        = id;

  0008d	69 45 f8 0c 01
	00 00		 imul	 eax, DWORD PTR _no$[ebp], 268
  00094	8b 4d 08	 mov	 ecx, DWORD PTR _id$[ebp]
  00097	89 88 04 00 00
	00		 mov	 DWORD PTR ?charObj@@3PAUCHAROBJ@@A[eax+4], ecx

; 2227 : 	charObj[no].graNo     = graNo;

  0009d	69 45 f8 0c 01
	00 00		 imul	 eax, DWORD PTR _no$[ebp], 268
  000a4	8b 4d 0c	 mov	 ecx, DWORD PTR _graNo$[ebp]
  000a7	89 88 08 00 00
	00		 mov	 DWORD PTR ?charObj@@3PAUCHAROBJ@@A[eax+8], ecx

; 2228 : 	charObj[no].nameColor = nameColor;

  000ad	69 45 f8 0c 01
	00 00		 imul	 eax, DWORD PTR _no$[ebp], 268
  000b4	66 8b 4d 28	 mov	 cx, WORD PTR _nameColor$[ebp]
  000b8	66 89 88 28 00
	00 00		 mov	 WORD PTR ?charObj@@3PAUCHAROBJ@@A[eax+40], cx

; 2229 : 	charObj[no].level     = level;

  000bf	69 45 f8 0c 01
	00 00		 imul	 eax, DWORD PTR _no$[ebp], 268
  000c6	8b 4d 24	 mov	 ecx, DWORD PTR _level$[ebp]
  000c9	89 88 14 00 00
	00		 mov	 DWORD PTR ?charObj@@3PAUCHAROBJ@@A[eax+20], ecx

; 2230 : 	charObj[no].gx = gx;

  000cf	69 45 f8 0c 01
	00 00		 imul	 eax, DWORD PTR _no$[ebp], 268
  000d6	8b 4d 10	 mov	 ecx, DWORD PTR _gx$[ebp]
  000d9	89 88 0c 00 00
	00		 mov	 DWORD PTR ?charObj@@3PAUCHAROBJ@@A[eax+12], ecx

; 2231 : 	charObj[no].gy = gy;

  000df	69 45 f8 0c 01
	00 00		 imul	 eax, DWORD PTR _no$[ebp], 268
  000e6	8b 4d 14	 mov	 ecx, DWORD PTR _gy$[ebp]
  000e9	89 88 10 00 00
	00		 mov	 DWORD PTR ?charObj@@3PAUCHAROBJ@@A[eax+16], ecx

; 2232 : 	charObj[no].dir = dir;

  000ef	69 45 f8 0c 01
	00 00		 imul	 eax, DWORD PTR _no$[ebp], 268
  000f6	8b 4d 18	 mov	 ecx, DWORD PTR _dir$[ebp]
  000f9	89 88 18 00 00
	00		 mov	 DWORD PTR ?charObj@@3PAUCHAROBJ@@A[eax+24], ecx

; 2233 : 	if( walk != 0 )

  000ff	83 7d 2c 00	 cmp	 DWORD PTR _walk$[ebp], 0
  00103	74 1d		 je	 SHORT $LN4@setReturnP

; 2234 : 		charObj[no].status |= CHR_STATUS_W;

  00105	69 45 f8 0c 01
	00 00		 imul	 eax, DWORD PTR _no$[ebp], 268
  0010c	8b 88 2c 00 00
	00		 mov	 ecx, DWORD PTR ?charObj@@3PAUCHAROBJ@@A[eax+44]
  00112	83 c9 40	 or	 ecx, 64			; 00000040H
  00115	69 55 f8 0c 01
	00 00		 imul	 edx, DWORD PTR _no$[ebp], 268
  0011c	89 8a 2c 00 00
	00		 mov	 DWORD PTR ?charObj@@3PAUCHAROBJ@@A[edx+44], ecx
$LN4@setReturnP:

; 2235 : 	if( height != 0 )

  00122	83 7d 30 00	 cmp	 DWORD PTR _height$[ebp], 0
  00126	74 20		 je	 SHORT $LN5@setReturnP

; 2236 : 		charObj[no].status |= CHR_STATUS_H;

  00128	69 45 f8 0c 01
	00 00		 imul	 eax, DWORD PTR _no$[ebp], 268
  0012f	8b 88 2c 00 00
	00		 mov	 ecx, DWORD PTR ?charObj@@3PAUCHAROBJ@@A[eax+44]
  00135	81 c9 80 00 00
	00		 or	 ecx, 128		; 00000080H
  0013b	69 55 f8 0c 01
	00 00		 imul	 edx, DWORD PTR _no$[ebp], 268
  00142	89 8a 2c 00 00
	00		 mov	 DWORD PTR ?charObj@@3PAUCHAROBJ@@A[edx+44], ecx
$LN5@setReturnP:

; 2237 : 	if( strlen( name ) <= CHAR_NAME_LEN )

  00148	8b 45 1c	 mov	 eax, DWORD PTR _name$[ebp]
  0014b	50		 push	 eax
  0014c	e8 00 00 00 00	 call	 _strlen
  00151	83 c4 04	 add	 esp, 4
  00154	83 f8 10	 cmp	 eax, 16			; 00000010H
  00157	77 1a		 ja	 SHORT $LN6@setReturnP

; 2238 : 		strcpy( charObj[no].name, name );

  00159	8b 45 1c	 mov	 eax, DWORD PTR _name$[ebp]
  0015c	50		 push	 eax
  0015d	69 4d f8 0c 01
	00 00		 imul	 ecx, DWORD PTR _no$[ebp], 268
  00164	81 c1 38 00 00
	00		 add	 ecx, OFFSET ?charObj@@3PAUCHAROBJ@@A+56
  0016a	51		 push	 ecx
  0016b	e8 00 00 00 00	 call	 _strcpy
  00170	83 c4 08	 add	 esp, 8
$LN6@setReturnP:

; 2239 : 	if( strlen( freeName ) <= PET_FREENAME_LEN )

  00173	8b 45 20	 mov	 eax, DWORD PTR _freeName$[ebp]
  00176	50		 push	 eax
  00177	e8 00 00 00 00	 call	 _strlen
  0017c	83 c4 04	 add	 esp, 4
  0017f	83 f8 20	 cmp	 eax, 32			; 00000020H
  00182	77 1a		 ja	 SHORT $LN7@setReturnP

; 2240 : 		strcpy( charObj[no].freeName, freeName );

  00184	8b 45 20	 mov	 eax, DWORD PTR _freeName$[ebp]
  00187	50		 push	 eax
  00188	69 4d f8 0c 01
	00 00		 imul	 ecx, DWORD PTR _no$[ebp], 268
  0018f	81 c1 49 00 00
	00		 add	 ecx, OFFSET ?charObj@@3PAUCHAROBJ@@A+73
  00195	51		 push	 ecx
  00196	e8 00 00 00 00	 call	 _strcpy
  0019b	83 c4 08	 add	 esp, 8
$LN7@setReturnP:

; 2241 : 	charObj[no].charType = getAtrCharType( charType );

  0019e	8b 45 34	 mov	 eax, DWORD PTR _charType$[ebp]
  001a1	50		 push	 eax
  001a2	e8 00 00 00 00	 call	 ?getAtrCharType@@YAHH@Z	; getAtrCharType
  001a7	83 c4 04	 add	 esp, 4
  001aa	69 4d f8 0c 01
	00 00		 imul	 ecx, DWORD PTR _no$[ebp], 268
  001b1	89 81 b4 00 00
	00		 mov	 DWORD PTR ?charObj@@3PAUCHAROBJ@@A[ecx+180], eax

; 2242 : 	return TRUE;

  001b7	b8 01 00 00 00	 mov	 eax, 1
$LN1@setReturnP:

; 2243 : }

  001bc	5f		 pop	 edi
  001bd	5e		 pop	 esi
  001be	5b		 pop	 ebx
  001bf	81 c4 cc 00 00
	00		 add	 esp, 204		; 000000ccH
  001c5	3b ec		 cmp	 ebp, esp
  001c7	e8 00 00 00 00	 call	 __RTC_CheckEsp
  001cc	8b e5		 mov	 esp, ebp
  001ce	5d		 pop	 ebp
  001cf	c3		 ret	 0
?setReturnPetObj@@YAHHHHHHPAD0HHHHH@Z ENDP		; setReturnPetObj
_TEXT	ENDS
; Function compile flags: /Odtp /RTCsu /ZI
; File c:\users\administrator\desktop\????? ??\????? ??\client source code\system\character.cpp
;	COMDAT ?setNpcCharObj@@YAXHHHHHPAD00H0HHHHHHHH@Z
_TEXT	SEGMENT
_原有称号$ = -68					; size = 4
_原有光环$ = -56					; size = 4
_angelMode$ = -44					; size = 4
_ext$ = -32						; size = 4
_existFlag$ = -20					; size = 4
_no$ = -8						; size = 4
_id$ = 8						; size = 4
_graNo$ = 12						; size = 4
_gx$ = 16						; size = 4
_gy$ = 20						; size = 4
_dir$ = 24						; size = 4
_fmname$ = 28						; size = 4
_name$ = 32						; size = 4
_freeName$ = 36						; size = 4
_level$ = 40						; size = 4
_petname$ = 44						; size = 4
_petlevel$ = 48						; size = 4
_nameColor$ = 52					; size = 4
_walk$ = 56						; size = 4
_height$ = 60						; size = 4
_charType$ = 64						; size = 4
_profession_class$ = 68					; size = 4
_picture$ = 72						; size = 4
_noticeNo$ = 76						; size = 4
?setNpcCharObj@@YAXHHHHHPAD00H0HHHHHHHH@Z PROC		; setNpcCharObj, COMDAT

; 2066 : {

  00000	55		 push	 ebp
  00001	8b ec		 mov	 ebp, esp
  00003	81 ec 08 01 00
	00		 sub	 esp, 264		; 00000108H
  00009	53		 push	 ebx
  0000a	56		 push	 esi
  0000b	57		 push	 edi
  0000c	8d bd f8 fe ff
	ff		 lea	 edi, DWORD PTR [ebp-264]
  00012	b9 42 00 00 00	 mov	 ecx, 66			; 00000042H
  00017	b8 cc cc cc cc	 mov	 eax, -858993460		; ccccccccH
  0001c	f3 ab		 rep stosd

; 2067 : 	int no;
; 2068 : 	BOOL existFlag = FALSE;

  0001e	c7 45 ec 00 00
	00 00		 mov	 DWORD PTR _existFlag$[ebp], 0

; 2069 : 	CHAREXTRA *ext;
; 2070 : #ifdef _ANGEL_SUMMON
; 2071 : 	unsigned angelMode =0;

  00025	c7 45 d4 00 00
	00 00		 mov	 DWORD PTR _angelMode$[ebp], 0

; 2072 : #endif
; 2073 : 
; 2074 : 	int 原有光环 = 0;

  0002c	c7 45 c8 00 00
	00 00		 mov	 DWORD PTR _原有光环$[ebp], 0

; 2075 : 	int 原有称号 = 0;

  00033	c7 45 bc 00 00
	00 00		 mov	 DWORD PTR _原有称号$[ebp], 0

; 2076 : 
; 2077 : 
; 2078 : 	//TODO 要修光环消失
; 2079 : 	if( (no = searchCharObjId( id )) >= 0 ) {

  0003a	8b 45 08	 mov	 eax, DWORD PTR _id$[ebp]
  0003d	50		 push	 eax
  0003e	e8 00 00 00 00	 call	 ?searchCharObjId@@YAHH@Z ; searchCharObjId
  00043	83 c4 04	 add	 esp, 4
  00046	89 45 f8	 mov	 DWORD PTR _no$[ebp], eax
  00049	83 7d f8 00	 cmp	 DWORD PTR _no$[ebp], 0
  0004d	7c 5e		 jl	 SHORT $__out1$29

; 2080 : #ifdef _ANGEL_SUMMON
; 2081 : 		angelMode = charObj[no].status & CHR_STATUS_ANGEL;

  0004f	69 45 f8 0c 01
	00 00		 imul	 eax, DWORD PTR _no$[ebp], 268
  00056	8b 88 2c 00 00
	00		 mov	 ecx, DWORD PTR ?charObj@@3PAUCHAROBJ@@A[eax+44]
  0005c	81 e1 00 00 01
	00		 and	 ecx, 65536		; 00010000H
  00062	89 4d d4	 mov	 DWORD PTR _angelMode$[ebp], ecx

; 2082 : #endif
; 2083 : 
; 2084 : 		////JL fix 不删id的内存
; 2085 : 		//existFlag = true;
; 2086 : 		//goto __out1;
; 2087 : 		if (charObj[no].ptAct != NULL)

  00065	69 45 f8 0c 01
	00 00		 imul	 eax, DWORD PTR _no$[ebp], 268
  0006c	83 b8 bc 00 00
	00 00		 cmp	 DWORD PTR ?charObj@@3PAUCHAROBJ@@A[eax+188], 0
  00073	74 2c		 je	 SHORT $LN3@setNpcChar

; 2088 : 		{
; 2089 : 			原有光环 = charObj[no].ptAct->光环图档编号;

  00075	69 45 f8 0c 01
	00 00		 imul	 eax, DWORD PTR _no$[ebp], 268
  0007c	8b 88 bc 00 00
	00		 mov	 ecx, DWORD PTR ?charObj@@3PAUCHAROBJ@@A[eax+188]
  00082	8b 91 c4 01 00
	00		 mov	 edx, DWORD PTR [ecx+452]
  00088	89 55 c8	 mov	 DWORD PTR _原有光环$[ebp], edx

; 2090 : 			原有称号 = charObj[no].ptAct->称号图档编号;

  0008b	69 45 f8 0c 01
	00 00		 imul	 eax, DWORD PTR _no$[ebp], 268
  00092	8b 88 bc 00 00
	00		 mov	 ecx, DWORD PTR ?charObj@@3PAUCHAROBJ@@A[eax+188]
  00098	8b 91 c8 01 00
	00		 mov	 edx, DWORD PTR [ecx+456]
  0009e	89 55 bc	 mov	 DWORD PTR _原有称号$[ebp], edx
$LN3@setNpcChar:

; 2091 : 		}
; 2092 : 
; 2093 : 		delCharObj( id);

  000a1	8b 45 08	 mov	 eax, DWORD PTR _id$[ebp]
  000a4	50		 push	 eax
  000a5	e8 00 00 00 00	 call	 ?delCharObj@@YAXH@Z	; delCharObj
  000aa	83 c4 04	 add	 esp, 4
$__out1$29:

; 2094 : 	}
; 2095 : __out1:;
; 2096 : 
; 2097 : 	if( !existFlag ){

  000ad	83 7d ec 00	 cmp	 DWORD PTR _existFlag$[ebp], 0
  000b1	0f 85 b6 00 00
	00		 jne	 $LN4@setNpcChar

; 2098 : 		no = getCharObjBuf();

  000b7	e8 00 00 00 00	 call	 ?getCharObjBuf@@YAHXZ	; getCharObjBuf
  000bc	89 45 f8	 mov	 DWORD PTR _no$[ebp], eax

; 2099 : 		if( no < 0 )

  000bf	83 7d f8 00	 cmp	 DWORD PTR _no$[ebp], 0
  000c3	7d 05		 jge	 SHORT $LN5@setNpcChar

; 2100 : 			return;

  000c5	e9 e8 04 00 00	 jmp	 $LN1@setNpcChar
$LN5@setNpcChar:

; 2101 : 		charObj[no].ptAct = createCharAction( graNo, gx, gy, dir );

  000ca	8b 45 18	 mov	 eax, DWORD PTR _dir$[ebp]
  000cd	50		 push	 eax
  000ce	8b 4d 14	 mov	 ecx, DWORD PTR _gy$[ebp]
  000d1	51		 push	 ecx
  000d2	8b 55 10	 mov	 edx, DWORD PTR _gx$[ebp]
  000d5	52		 push	 edx
  000d6	8b 45 0c	 mov	 eax, DWORD PTR _graNo$[ebp]
  000d9	50		 push	 eax
  000da	e8 00 00 00 00	 call	 ?createCharAction@@YAPAUaction@@HHHH@Z ; createCharAction
  000df	83 c4 10	 add	 esp, 16			; 00000010H
  000e2	69 4d f8 0c 01
	00 00		 imul	 ecx, DWORD PTR _no$[ebp], 268
  000e9	89 81 bc 00 00
	00		 mov	 DWORD PTR ?charObj@@3PAUCHAROBJ@@A[ecx+188], eax

; 2102 : 		if( charObj[no].ptAct == NULL )

  000ef	69 45 f8 0c 01
	00 00		 imul	 eax, DWORD PTR _no$[ebp], 268
  000f6	83 b8 bc 00 00
	00 00		 cmp	 DWORD PTR ?charObj@@3PAUCHAROBJ@@A[eax+188], 0
  000fd	75 05		 jne	 SHORT $LN6@setNpcChar

; 2103 : 			return;

  000ff	e9 ae 04 00 00	 jmp	 $LN1@setNpcChar
$LN6@setNpcChar:

; 2104 : 
; 2105 : 		charObj[no].use = CHAROBJ_USE_VIEW;

  00104	69 45 f8 0c 01
	00 00		 imul	 eax, DWORD PTR _no$[ebp], 268
  0010b	b9 02 00 00 00	 mov	 ecx, 2
  00110	66 89 88 00 00
	00 00		 mov	 WORD PTR ?charObj@@3PAUCHAROBJ@@A[eax], cx

; 2106 : 		ext = (CHAREXTRA *)charObj[no].ptAct->pYobi;

  00117	69 45 f8 0c 01
	00 00		 imul	 eax, DWORD PTR _no$[ebp], 268
  0011e	8b 88 bc 00 00
	00		 mov	 ecx, DWORD PTR ?charObj@@3PAUCHAROBJ@@A[eax+188]
  00124	8b 51 0c	 mov	 edx, DWORD PTR [ecx+12]
  00127	89 55 e0	 mov	 DWORD PTR _ext$[ebp], edx

; 2107 : 		ext->charObjTblId = no;

  0012a	8b 45 e0	 mov	 eax, DWORD PTR _ext$[ebp]
  0012d	8b 4d f8	 mov	 ecx, DWORD PTR _no$[ebp]
  00130	89 08		 mov	 DWORD PTR [eax], ecx

; 2108 : 		charObj[no].type      = getAtrCharObjType( charType );

  00132	8b 45 40	 mov	 eax, DWORD PTR _charType$[ebp]
  00135	50		 push	 eax
  00136	e8 00 00 00 00	 call	 ?getAtrCharObjType@@YAHH@Z ; getAtrCharObjType
  0013b	83 c4 04	 add	 esp, 4
  0013e	69 4d f8 0c 01
	00 00		 imul	 ecx, DWORD PTR _no$[ebp], 268
  00145	66 89 81 02 00
	00 00		 mov	 WORD PTR ?charObj@@3PAUCHAROBJ@@A[ecx+2], ax

; 2109 : 		charObj[no].id        = id;

  0014c	69 45 f8 0c 01
	00 00		 imul	 eax, DWORD PTR _no$[ebp], 268
  00153	8b 4d 08	 mov	 ecx, DWORD PTR _id$[ebp]
  00156	89 88 04 00 00
	00		 mov	 DWORD PTR ?charObj@@3PAUCHAROBJ@@A[eax+4], ecx

; 2110 : 		charObj[no].stockDir  = -1;

  0015c	69 45 f8 0c 01
	00 00		 imul	 eax, DWORD PTR _no$[ebp], 268
  00163	c7 80 1c 00 00
	00 ff ff ff ff	 mov	 DWORD PTR ?charObj@@3PAUCHAROBJ@@A[eax+28], -1
$LN4@setNpcChar:

; 2111 : 	}
; 2112 : 	charObj[no].graNo     = graNo;

  0016d	69 45 f8 0c 01
	00 00		 imul	 eax, DWORD PTR _no$[ebp], 268
  00174	8b 4d 0c	 mov	 ecx, DWORD PTR _graNo$[ebp]
  00177	89 88 08 00 00
	00		 mov	 DWORD PTR ?charObj@@3PAUCHAROBJ@@A[eax+8], ecx

; 2113 : 	charObj[no].nameColor = nameColor;

  0017d	69 45 f8 0c 01
	00 00		 imul	 eax, DWORD PTR _no$[ebp], 268
  00184	66 8b 4d 34	 mov	 cx, WORD PTR _nameColor$[ebp]
  00188	66 89 88 28 00
	00 00		 mov	 WORD PTR ?charObj@@3PAUCHAROBJ@@A[eax+40], cx

; 2114 : 	charObj[no].level     = level;

  0018f	69 45 f8 0c 01
	00 00		 imul	 eax, DWORD PTR _no$[ebp], 268
  00196	8b 4d 28	 mov	 ecx, DWORD PTR _level$[ebp]
  00199	89 88 14 00 00
	00		 mov	 DWORD PTR ?charObj@@3PAUCHAROBJ@@A[eax+20], ecx

; 2115 : 	charObj[no].gx = gx;

  0019f	69 45 f8 0c 01
	00 00		 imul	 eax, DWORD PTR _no$[ebp], 268
  001a6	8b 4d 10	 mov	 ecx, DWORD PTR _gx$[ebp]
  001a9	89 88 0c 00 00
	00		 mov	 DWORD PTR ?charObj@@3PAUCHAROBJ@@A[eax+12], ecx

; 2116 : 	charObj[no].gy = gy;

  001af	69 45 f8 0c 01
	00 00		 imul	 eax, DWORD PTR _no$[ebp], 268
  001b6	8b 4d 14	 mov	 ecx, DWORD PTR _gy$[ebp]
  001b9	89 88 10 00 00
	00		 mov	 DWORD PTR ?charObj@@3PAUCHAROBJ@@A[eax+16], ecx

; 2117 : 	charObj[no].dir = dir;

  001bf	69 45 f8 0c 01
	00 00		 imul	 eax, DWORD PTR _no$[ebp], 268
  001c6	8b 4d 18	 mov	 ecx, DWORD PTR _dir$[ebp]
  001c9	89 88 18 00 00
	00		 mov	 DWORD PTR ?charObj@@3PAUCHAROBJ@@A[eax+24], ecx

; 2118 : 	if( walk != 0 )

  001cf	83 7d 38 00	 cmp	 DWORD PTR _walk$[ebp], 0
  001d3	74 1d		 je	 SHORT $LN7@setNpcChar

; 2119 : 		charObj[no].status |= CHR_STATUS_W;

  001d5	69 45 f8 0c 01
	00 00		 imul	 eax, DWORD PTR _no$[ebp], 268
  001dc	8b 88 2c 00 00
	00		 mov	 ecx, DWORD PTR ?charObj@@3PAUCHAROBJ@@A[eax+44]
  001e2	83 c9 40	 or	 ecx, 64			; 00000040H
  001e5	69 55 f8 0c 01
	00 00		 imul	 edx, DWORD PTR _no$[ebp], 268
  001ec	89 8a 2c 00 00
	00		 mov	 DWORD PTR ?charObj@@3PAUCHAROBJ@@A[edx+44], ecx
$LN7@setNpcChar:

; 2120 : 	if( height != 0 )

  001f2	83 7d 3c 00	 cmp	 DWORD PTR _height$[ebp], 0
  001f6	74 20		 je	 SHORT $LN8@setNpcChar

; 2121 : 		charObj[no].status |= CHR_STATUS_H;

  001f8	69 45 f8 0c 01
	00 00		 imul	 eax, DWORD PTR _no$[ebp], 268
  001ff	8b 88 2c 00 00
	00		 mov	 ecx, DWORD PTR ?charObj@@3PAUCHAROBJ@@A[eax+44]
  00205	81 c9 80 00 00
	00		 or	 ecx, 128		; 00000080H
  0020b	69 55 f8 0c 01
	00 00		 imul	 edx, DWORD PTR _no$[ebp], 268
  00212	89 8a 2c 00 00
	00		 mov	 DWORD PTR ?charObj@@3PAUCHAROBJ@@A[edx+44], ecx
$LN8@setNpcChar:

; 2122 : 	if( strlen( name ) <= CHAR_NAME_LEN )

  00218	8b 45 20	 mov	 eax, DWORD PTR _name$[ebp]
  0021b	50		 push	 eax
  0021c	e8 00 00 00 00	 call	 _strlen
  00221	83 c4 04	 add	 esp, 4
  00224	83 f8 10	 cmp	 eax, 16			; 00000010H
  00227	77 1a		 ja	 SHORT $LN9@setNpcChar

; 2123 : 		strcpy( charObj[no].name, name );		

  00229	8b 45 20	 mov	 eax, DWORD PTR _name$[ebp]
  0022c	50		 push	 eax
  0022d	69 4d f8 0c 01
	00 00		 imul	 ecx, DWORD PTR _no$[ebp], 268
  00234	81 c1 38 00 00
	00		 add	 ecx, OFFSET ?charObj@@3PAUCHAROBJ@@A+56
  0023a	51		 push	 ecx
  0023b	e8 00 00 00 00	 call	 _strcpy
  00240	83 c4 08	 add	 esp, 8
$LN9@setNpcChar:

; 2124 : 	// shan add code
; 2125 :     if( strlen( fmname ) <= CHAR_FMNAME_LEN )

  00243	8b 45 1c	 mov	 eax, DWORD PTR _fmname$[ebp]
  00246	50		 push	 eax
  00247	e8 00 00 00 00	 call	 _strlen
  0024c	83 c4 04	 add	 esp, 4
  0024f	83 f8 21	 cmp	 eax, 33			; 00000021H
  00252	77 1a		 ja	 SHORT $LN10@setNpcChar

; 2126 : 	    strcpy( charObj[no].fmname, fmname );	

  00254	8b 45 1c	 mov	 eax, DWORD PTR _fmname$[ebp]
  00257	50		 push	 eax
  00258	69 4d f8 0c 01
	00 00		 imul	 ecx, DWORD PTR _no$[ebp], 268
  0025f	81 c1 c4 00 00
	00		 add	 ecx, OFFSET ?charObj@@3PAUCHAROBJ@@A+196
  00265	51		 push	 ecx
  00266	e8 00 00 00 00	 call	 _strcpy
  0026b	83 c4 08	 add	 esp, 8
$LN10@setNpcChar:

; 2127 : 	if( charType != CHAR_TYPEPET ){

  0026e	83 7d 40 03	 cmp	 DWORD PTR _charType$[ebp], 3
  00272	74 2d		 je	 SHORT $LN11@setNpcChar

; 2128 : 		if( strlen( freeName ) <= CHAR_FREENAME_LEN )

  00274	8b 45 24	 mov	 eax, DWORD PTR _freeName$[ebp]
  00277	50		 push	 eax
  00278	e8 00 00 00 00	 call	 _strlen
  0027d	83 c4 04	 add	 esp, 4
  00280	83 f8 20	 cmp	 eax, 32			; 00000020H
  00283	77 1a		 ja	 SHORT $LN13@setNpcChar

; 2129 : 			strcpy( charObj[no].freeName, freeName );		

  00285	8b 45 24	 mov	 eax, DWORD PTR _freeName$[ebp]
  00288	50		 push	 eax
  00289	69 4d f8 0c 01
	00 00		 imul	 ecx, DWORD PTR _no$[ebp], 268
  00290	81 c1 49 00 00
	00		 add	 ecx, OFFSET ?charObj@@3PAUCHAROBJ@@A+73
  00296	51		 push	 ecx
  00297	e8 00 00 00 00	 call	 _strcpy
  0029c	83 c4 08	 add	 esp, 8
$LN13@setNpcChar:

; 2130 : 	}else{

  0029f	eb 2b		 jmp	 SHORT $LN12@setNpcChar
$LN11@setNpcChar:

; 2131 : 		if( strlen( freeName ) <= PET_FREENAME_LEN )

  002a1	8b 45 24	 mov	 eax, DWORD PTR _freeName$[ebp]
  002a4	50		 push	 eax
  002a5	e8 00 00 00 00	 call	 _strlen
  002aa	83 c4 04	 add	 esp, 4
  002ad	83 f8 20	 cmp	 eax, 32			; 00000020H
  002b0	77 1a		 ja	 SHORT $LN12@setNpcChar

; 2132 : 			strcpy( charObj[no].freeName, freeName );        		    

  002b2	8b 45 24	 mov	 eax, DWORD PTR _freeName$[ebp]
  002b5	50		 push	 eax
  002b6	69 4d f8 0c 01
	00 00		 imul	 ecx, DWORD PTR _no$[ebp], 268
  002bd	81 c1 49 00 00
	00		 add	 ecx, OFFSET ?charObj@@3PAUCHAROBJ@@A+73
  002c3	51		 push	 ecx
  002c4	e8 00 00 00 00	 call	 _strcpy
  002c9	83 c4 08	 add	 esp, 8
$LN12@setNpcChar:

; 2133 : 	}
; 2134 : 	// Robin 0730
; 2135 :     if( strlen( petname ) <= CHAR_FREENAME_LEN )

  002cc	8b 45 2c	 mov	 eax, DWORD PTR _petname$[ebp]
  002cf	50		 push	 eax
  002d0	e8 00 00 00 00	 call	 _strlen
  002d5	83 c4 04	 add	 esp, 4
  002d8	83 f8 20	 cmp	 eax, 32			; 00000020H
  002db	77 1a		 ja	 SHORT $LN15@setNpcChar

; 2136 : 	    strcpy( charObj[no].petName, petname );	

  002dd	8b 45 2c	 mov	 eax, DWORD PTR _petname$[ebp]
  002e0	50		 push	 eax
  002e1	69 4d f8 0c 01
	00 00		 imul	 ecx, DWORD PTR _no$[ebp], 268
  002e8	81 c1 e6 00 00
	00		 add	 ecx, OFFSET ?charObj@@3PAUCHAROBJ@@A+230
  002ee	51		 push	 ecx
  002ef	e8 00 00 00 00	 call	 _strcpy
  002f4	83 c4 08	 add	 esp, 8
$LN15@setNpcChar:

; 2137 : 	charObj[no].petLevel = petlevel;

  002f7	69 45 f8 0c 01
	00 00		 imul	 eax, DWORD PTR _no$[ebp], 268
  002fe	8b 4d 30	 mov	 ecx, DWORD PTR _petlevel$[ebp]
  00301	89 88 08 01 00
	00		 mov	 DWORD PTR ?charObj@@3PAUCHAROBJ@@A[eax+264], ecx

; 2138 : 
; 2139 : 	charObj[no].charType = getAtrCharType( charType );

  00307	8b 45 40	 mov	 eax, DWORD PTR _charType$[ebp]
  0030a	50		 push	 eax
  0030b	e8 00 00 00 00	 call	 ?getAtrCharType@@YAHH@Z	; getAtrCharType
  00310	83 c4 04	 add	 esp, 4
  00313	69 4d f8 0c 01
	00 00		 imul	 ecx, DWORD PTR _no$[ebp], 268
  0031a	89 81 b4 00 00
	00		 mov	 DWORD PTR ?charObj@@3PAUCHAROBJ@@A[ecx+180], eax

; 2140 : 	charObj[no].newFoundFlag = 1;

  00320	69 45 f8 0c 01
	00 00		 imul	 eax, DWORD PTR _no$[ebp], 268
  00327	b9 01 00 00 00	 mov	 ecx, 1
  0032c	66 89 88 b8 00
	00 00		 mov	 WORD PTR ?charObj@@3PAUCHAROBJ@@A[eax+184], cx

; 2141 : 
; 2142 : #ifdef _ANGEL_SUMMON
; 2143 : 	charObj[no].status |= angelMode;

  00333	69 45 f8 0c 01
	00 00		 imul	 eax, DWORD PTR _no$[ebp], 268
  0033a	8b 88 2c 00 00
	00		 mov	 ecx, DWORD PTR ?charObj@@3PAUCHAROBJ@@A[eax+44]
  00340	0b 4d d4	 or	 ecx, DWORD PTR _angelMode$[ebp]
  00343	69 55 f8 0c 01
	00 00		 imul	 edx, DWORD PTR _no$[ebp], 268
  0034a	89 8a 2c 00 00
	00		 mov	 DWORD PTR ?charObj@@3PAUCHAROBJ@@A[edx+44], ecx

; 2144 : #endif
; 2145 : 
; 2146 : 	if( charObj[no].ptAct == NULL )

  00350	69 45 f8 0c 01
	00 00		 imul	 eax, DWORD PTR _no$[ebp], 268
  00357	83 b8 bc 00 00
	00 00		 cmp	 DWORD PTR ?charObj@@3PAUCHAROBJ@@A[eax+188], 0
  0035e	75 05		 jne	 SHORT $LN16@setNpcChar

; 2147 : 		return;

  00360	e9 4d 02 00 00	 jmp	 $LN1@setNpcChar
$LN16@setNpcChar:

; 2148 : //#define 战斗光环
; 2149 : //#define 人物光环   
; 2150 : 	if (原有光环){

  00365	83 7d c8 00	 cmp	 DWORD PTR _原有光环$[ebp], 0
  00369	74 1a		 je	 SHORT $LN17@setNpcChar

; 2151 : 		setCharmManor(charObj[no].ptAct, 原有光环);

  0036b	8b 45 c8	 mov	 eax, DWORD PTR _原有光环$[ebp]
  0036e	50		 push	 eax
  0036f	69 4d f8 0c 01
	00 00		 imul	 ecx, DWORD PTR _no$[ebp], 268
  00376	8b 91 bc 00 00
	00		 mov	 edx, DWORD PTR ?charObj@@3PAUCHAROBJ@@A[ecx+188]
  0037c	52		 push	 edx
  0037d	e8 00 00 00 00	 call	 ?setCharmManor@@YAXPAUaction@@H@Z ; setCharmManor
  00382	83 c4 08	 add	 esp, 8
$LN17@setNpcChar:

; 2152 : 	}
; 2153 : 	if (原有称号){

  00385	83 7d bc 00	 cmp	 DWORD PTR _原有称号$[ebp], 0
  00389	74 1a		 je	 SHORT $LN18@setNpcChar

; 2154 : 		setCharmTitle(charObj[no].ptAct, 原有称号);

  0038b	8b 45 bc	 mov	 eax, DWORD PTR _原有称号$[ebp]
  0038e	50		 push	 eax
  0038f	69 4d f8 0c 01
	00 00		 imul	 ecx, DWORD PTR _no$[ebp], 268
  00396	8b 91 bc 00 00
	00		 mov	 edx, DWORD PTR ?charObj@@3PAUCHAROBJ@@A[ecx+188]
  0039c	52		 push	 edx
  0039d	e8 00 00 00 00	 call	 ?setCharmTitle@@YAXPAUaction@@H@Z ; setCharmTitle
  003a2	83 c4 08	 add	 esp, 8
$LN18@setNpcChar:

; 2155 : 	}
; 2156 : 
; 2157 : 
; 2158 : 	charObj[no].ptAct->anim_chr_no = graNo;

  003a5	69 45 f8 0c 01
	00 00		 imul	 eax, DWORD PTR _no$[ebp], 268
  003ac	8b 88 bc 00 00
	00		 mov	 ecx, DWORD PTR ?charObj@@3PAUCHAROBJ@@A[eax+188]
  003b2	8b 55 0c	 mov	 edx, DWORD PTR _graNo$[ebp]
  003b5	89 91 44 01 00
	00		 mov	 DWORD PTR [ecx+324], edx

; 2159 : 	charObj[no].ptAct->level = level;

  003bb	69 45 f8 0c 01
	00 00		 imul	 eax, DWORD PTR _no$[ebp], 268
  003c2	8b 88 bc 00 00
	00		 mov	 ecx, DWORD PTR ?charObj@@3PAUCHAROBJ@@A[eax+188]
  003c8	8b 55 28	 mov	 edx, DWORD PTR _level$[ebp]
  003cb	89 91 8c 00 00
	00		 mov	 DWORD PTR [ecx+140], edx

; 2160 : 	charObj[no].ptAct->atr |= charObj[no].charType;

  003d1	69 45 f8 0c 01
	00 00		 imul	 eax, DWORD PTR _no$[ebp], 268
  003d8	8b 88 bc 00 00
	00		 mov	 ecx, DWORD PTR ?charObj@@3PAUCHAROBJ@@A[eax+188]
  003de	69 55 f8 0c 01
	00 00		 imul	 edx, DWORD PTR _no$[ebp], 268
  003e5	8b 81 a4 00 00
	00		 mov	 eax, DWORD PTR [ecx+164]
  003eb	0b 82 b4 00 00
	00		 or	 eax, DWORD PTR ?charObj@@3PAUCHAROBJ@@A[edx+180]
  003f1	69 4d f8 0c 01
	00 00		 imul	 ecx, DWORD PTR _no$[ebp], 268
  003f8	8b 91 bc 00 00
	00		 mov	 edx, DWORD PTR ?charObj@@3PAUCHAROBJ@@A[ecx+188]
  003fe	89 82 a4 00 00
	00		 mov	 DWORD PTR [edx+164], eax

; 2161 : 	if( strlen( name ) <= CHAR_NAME_LEN )

  00404	8b 45 20	 mov	 eax, DWORD PTR _name$[ebp]
  00407	50		 push	 eax
  00408	e8 00 00 00 00	 call	 _strlen
  0040d	83 c4 04	 add	 esp, 4
  00410	83 f8 10	 cmp	 eax, 16			; 00000010H
  00413	77 1d		 ja	 SHORT $LN19@setNpcChar

; 2162 : 		strcpy( charObj[no].ptAct->name, name );

  00415	8b 45 20	 mov	 eax, DWORD PTR _name$[ebp]
  00418	50		 push	 eax
  00419	69 4d f8 0c 01
	00 00		 imul	 ecx, DWORD PTR _no$[ebp], 268
  00420	8b 91 bc 00 00
	00		 mov	 edx, DWORD PTR ?charObj@@3PAUCHAROBJ@@A[ecx+188]
  00426	83 c2 38	 add	 edx, 56			; 00000038H
  00429	52		 push	 edx
  0042a	e8 00 00 00 00	 call	 _strcpy
  0042f	83 c4 08	 add	 esp, 8
$LN19@setNpcChar:

; 2163 : 	// shan add
; 2164 : 	if( charType == CHAR_TYPEPLAYER){

  00432	83 7d 40 01	 cmp	 DWORD PTR _charType$[ebp], 1
  00436	75 33		 jne	 SHORT $LN20@setNpcChar

; 2165 : 		if( strlen( fmname ) <= CHAR_FMNAME_LEN )

  00438	8b 45 1c	 mov	 eax, DWORD PTR _fmname$[ebp]
  0043b	50		 push	 eax
  0043c	e8 00 00 00 00	 call	 _strlen
  00441	83 c4 04	 add	 esp, 4
  00444	83 f8 21	 cmp	 eax, 33			; 00000021H
  00447	77 20		 ja	 SHORT $LN22@setNpcChar

; 2166 : 			strcpy( charObj[no].ptAct->fmname, fmname );

  00449	8b 45 1c	 mov	 eax, DWORD PTR _fmname$[ebp]
  0044c	50		 push	 eax
  0044d	69 4d f8 0c 01
	00 00		 imul	 ecx, DWORD PTR _no$[ebp], 268
  00454	8b 91 bc 00 00
	00		 mov	 edx, DWORD PTR ?charObj@@3PAUCHAROBJ@@A[ecx+188]
  0045a	81 c2 70 01 00
	00		 add	 edx, 368		; 00000170H
  00460	52		 push	 edx
  00461	e8 00 00 00 00	 call	 _strcpy
  00466	83 c4 08	 add	 esp, 8
$LN22@setNpcChar:

; 2167 : 	}
; 2168 : 	else{

  00469	eb 21		 jmp	 SHORT $LN21@setNpcChar
$LN20@setNpcChar:

; 2169 : 		strcpy( charObj[no].ptAct->fmname, " " );

  0046b	68 00 00 00 00	 push	 OFFSET ??_C@_01CLKCMJKC@?5?$AA@
  00470	69 45 f8 0c 01
	00 00		 imul	 eax, DWORD PTR _no$[ebp], 268
  00477	8b 88 bc 00 00
	00		 mov	 ecx, DWORD PTR ?charObj@@3PAUCHAROBJ@@A[eax+188]
  0047d	81 c1 70 01 00
	00		 add	 ecx, 368		; 00000170H
  00483	51		 push	 ecx
  00484	e8 00 00 00 00	 call	 _strcpy
  00489	83 c4 08	 add	 esp, 8
$LN21@setNpcChar:

; 2170 : 	}
; 2171 : 
; 2172 : 	if( charType != CHAR_TYPEPET ){

  0048c	83 7d 40 03	 cmp	 DWORD PTR _charType$[ebp], 3
  00490	74 30		 je	 SHORT $LN23@setNpcChar

; 2173 : 		if( strlen( freeName ) <= CHAR_FREENAME_LEN )

  00492	8b 45 24	 mov	 eax, DWORD PTR _freeName$[ebp]
  00495	50		 push	 eax
  00496	e8 00 00 00 00	 call	 _strlen
  0049b	83 c4 04	 add	 esp, 4
  0049e	83 f8 20	 cmp	 eax, 32			; 00000020H
  004a1	77 1d		 ja	 SHORT $LN25@setNpcChar

; 2174 : 			strcpy( charObj[no].ptAct->freeName, freeName );

  004a3	8b 45 24	 mov	 eax, DWORD PTR _freeName$[ebp]
  004a6	50		 push	 eax
  004a7	69 4d f8 0c 01
	00 00		 imul	 ecx, DWORD PTR _no$[ebp], 268
  004ae	8b 91 bc 00 00
	00		 mov	 edx, DWORD PTR ?charObj@@3PAUCHAROBJ@@A[ecx+188]
  004b4	83 c2 55	 add	 edx, 85			; 00000055H
  004b7	52		 push	 edx
  004b8	e8 00 00 00 00	 call	 _strcpy
  004bd	83 c4 08	 add	 esp, 8
$LN25@setNpcChar:

; 2175 : 	}else{

  004c0	eb 2e		 jmp	 SHORT $LN24@setNpcChar
$LN23@setNpcChar:

; 2176 : 		if( strlen( freeName ) <= PET_FREENAME_LEN )

  004c2	8b 45 24	 mov	 eax, DWORD PTR _freeName$[ebp]
  004c5	50		 push	 eax
  004c6	e8 00 00 00 00	 call	 _strlen
  004cb	83 c4 04	 add	 esp, 4
  004ce	83 f8 20	 cmp	 eax, 32			; 00000020H
  004d1	77 1d		 ja	 SHORT $LN24@setNpcChar

; 2177 : 			strcpy( charObj[no].ptAct->freeName, freeName );

  004d3	8b 45 24	 mov	 eax, DWORD PTR _freeName$[ebp]
  004d6	50		 push	 eax
  004d7	69 4d f8 0c 01
	00 00		 imul	 ecx, DWORD PTR _no$[ebp], 268
  004de	8b 91 bc 00 00
	00		 mov	 edx, DWORD PTR ?charObj@@3PAUCHAROBJ@@A[ecx+188]
  004e4	83 c2 55	 add	 edx, 85			; 00000055H
  004e7	52		 push	 edx
  004e8	e8 00 00 00 00	 call	 _strcpy
  004ed	83 c4 08	 add	 esp, 8
$LN24@setNpcChar:

; 2178 : 	}
; 2179 : 	// Robin 0730
; 2180 : 	if( strlen( petname ) <= CHAR_FREENAME_LEN )

  004f0	8b 45 2c	 mov	 eax, DWORD PTR _petname$[ebp]
  004f3	50		 push	 eax
  004f4	e8 00 00 00 00	 call	 _strlen
  004f9	83 c4 04	 add	 esp, 4
  004fc	83 f8 20	 cmp	 eax, 32			; 00000020H
  004ff	77 20		 ja	 SHORT $LN27@setNpcChar

; 2181 : 		strcpy( charObj[no].ptAct->petName, petname );

  00501	8b 45 2c	 mov	 eax, DWORD PTR _petname$[ebp]
  00504	50		 push	 eax
  00505	69 4d f8 0c 01
	00 00		 imul	 ecx, DWORD PTR _no$[ebp], 268
  0050c	8b 91 bc 00 00
	00		 mov	 edx, DWORD PTR ?charObj@@3PAUCHAROBJ@@A[ecx+188]
  00512	81 c2 98 01 00
	00		 add	 edx, 408		; 00000198H
  00518	52		 push	 edx
  00519	e8 00 00 00 00	 call	 _strcpy
  0051e	83 c4 08	 add	 esp, 8
$LN27@setNpcChar:

; 2182 : 	charObj[no].ptAct->petLevel = petlevel;

  00521	69 45 f8 0c 01
	00 00		 imul	 eax, DWORD PTR _no$[ebp], 268
  00528	8b 88 bc 00 00
	00		 mov	 ecx, DWORD PTR ?charObj@@3PAUCHAROBJ@@A[eax+188]
  0052e	8b 55 30	 mov	 edx, DWORD PTR _petlevel$[ebp]
  00531	89 91 ac 01 00
	00		 mov	 DWORD PTR [ecx+428], edx

; 2183 : 
; 2184 : 	charObj[no].ptAct->itemNameColor = nameColor;

  00537	69 45 f8 0c 01
	00 00		 imul	 eax, DWORD PTR _no$[ebp], 268
  0053e	8b 88 bc 00 00
	00		 mov	 ecx, DWORD PTR ?charObj@@3PAUCHAROBJ@@A[eax+188]
  00544	8b 55 34	 mov	 edx, DWORD PTR _nameColor$[ebp]
  00547	89 91 94 00 00
	00		 mov	 DWORD PTR [ecx+148], edx

; 2185 : 
; 2186 : #ifdef _CHAR_PROFESSION			// WON ADD 人物职业
; 2187 : 	charObj[no].ptAct->profession_class = profession_class;

  0054d	69 45 f8 0c 01
	00 00		 imul	 eax, DWORD PTR _no$[ebp], 268
  00554	8b 88 bc 00 00
	00		 mov	 ecx, DWORD PTR ?charObj@@3PAUCHAROBJ@@A[eax+188]
  0055a	8b 55 44	 mov	 edx, DWORD PTR _profession_class$[ebp]
  0055d	89 91 dc 01 00
	00		 mov	 DWORD PTR [ecx+476], edx

; 2188 : #endif
; 2189 : #ifdef _NPC_PICTURE
; 2190 : 	charObj[no].ptAct->picture = picture;

  00563	69 45 f8 0c 01
	00 00		 imul	 eax, DWORD PTR _no$[ebp], 268
  0056a	8b 88 bc 00 00
	00		 mov	 ecx, DWORD PTR ?charObj@@3PAUCHAROBJ@@A[eax+188]
  00570	8b 55 48	 mov	 edx, DWORD PTR _picture$[ebp]
  00573	89 91 24 02 00
	00		 mov	 DWORD PTR [ecx+548], edx

; 2191 : 	charObj[no].ptAct->picturetemp = ((((picture)&0x00ff0000)>>16)&0x000000ff);//(picture&0x0000ffff);

  00579	8b 45 48	 mov	 eax, DWORD PTR _picture$[ebp]
  0057c	25 00 00 ff 00	 and	 eax, 16711680		; 00ff0000H
  00581	c1 f8 10	 sar	 eax, 16			; 00000010H
  00584	25 ff 00 00 00	 and	 eax, 255		; 000000ffH
  00589	69 4d f8 0c 01
	00 00		 imul	 ecx, DWORD PTR _no$[ebp], 268
  00590	8b 91 bc 00 00
	00		 mov	 edx, DWORD PTR ?charObj@@3PAUCHAROBJ@@A[ecx+188]
  00596	89 82 28 02 00
	00		 mov	 DWORD PTR [edx+552], eax

; 2192 : 	//charObj[no].ptAct->anim_no = ((((picture)&0x0000ff00)>>8 )&0x000000ff);
; 2193 : #endif
; 2194 : #ifdef _GM_IDENTIFY		// Rog ADD GM识别
; 2195 :     if( strlen( gm_name ) <= GM_NAME_LEN )
; 2196 : 	    strcpy( charObj[no].ptAct->gm_name, gm_name );	
; 2197 : #endif
; 2198 : #ifdef _NB_文字称号
; 2199 : 	if( strlen( newname ) <= CHAR_NAME_LEN )
; 2200 : 	    strcpy( charObj[no].ptAct->nb_name, newname );
; 2201 : 
; 2202 : 	charObj[no].ptAct->nb_namecolor = newnamecolor;
; 2203 : #endif
; 2204 : #ifdef _NB_任务指引
; 2205 : 	charObj[no].ptAct->noticeNo = noticeNo;

  0059c	69 45 f8 0c 01
	00 00		 imul	 eax, DWORD PTR _no$[ebp], 268
  005a3	8b 88 bc 00 00
	00		 mov	 ecx, DWORD PTR ?charObj@@3PAUCHAROBJ@@A[eax+188]
  005a9	8b 55 4c	 mov	 edx, DWORD PTR _noticeNo$[ebp]
  005ac	89 91 cc 01 00
	00		 mov	 DWORD PTR [ecx+460], edx
$LN1@setNpcChar:

; 2206 : #endif
; 2207 : }

  005b2	5f		 pop	 edi
  005b3	5e		 pop	 esi
  005b4	5b		 pop	 ebx
  005b5	81 c4 08 01 00
	00		 add	 esp, 264		; 00000108H
  005bb	3b ec		 cmp	 ebp, esp
  005bd	e8 00 00 00 00	 call	 __RTC_CheckEsp
  005c2	8b e5		 mov	 esp, ebp
  005c4	5d		 pop	 ebp
  005c5	c3		 ret	 0
?setNpcCharObj@@YAXHHHHHPAD00H0HHHHHHHH@Z ENDP		; setNpcCharObj
_TEXT	ENDS
; Function compile flags: /Odtp /RTCsu /ZI
; File c:\users\administrator\desktop\????? ??\????? ??\client source code\system\character.cpp
;	COMDAT ?checkCharObjPointNotStatus@@YAHHHFI@Z
_TEXT	SEGMENT
_no$ = -20						; size = 4
_i$ = -8						; size = 4
_gx$ = 8						; size = 4
_gy$ = 12						; size = 4
_type$ = 16						; size = 2
_status$ = 20						; size = 4
?checkCharObjPointNotStatus@@YAHHHFI@Z PROC		; checkCharObjPointNotStatus, COMDAT

; 2039 : {

  00000	55		 push	 ebp
  00001	8b ec		 mov	 ebp, esp
  00003	81 ec d8 00 00
	00		 sub	 esp, 216		; 000000d8H
  00009	53		 push	 ebx
  0000a	56		 push	 esi
  0000b	57		 push	 edi
  0000c	8d bd 28 ff ff
	ff		 lea	 edi, DWORD PTR [ebp-216]
  00012	b9 36 00 00 00	 mov	 ecx, 54			; 00000036H
  00017	b8 cc cc cc cc	 mov	 eax, -858993460		; ccccccccH
  0001c	f3 ab		 rep stosd

; 2040 : 	int i;
; 2041 : 	int no = -1;

  0001e	c7 45 ec ff ff
	ff ff		 mov	 DWORD PTR _no$[ebp], -1

; 2042 : 	for( i = 0; i < tailCharObj; i++ ){

  00025	c7 45 f8 00 00
	00 00		 mov	 DWORD PTR _i$[ebp], 0
  0002c	eb 09		 jmp	 SHORT $LN4@checkCharO
$LN2@checkCharO:
  0002e	8b 45 f8	 mov	 eax, DWORD PTR _i$[ebp]
  00031	83 c0 01	 add	 eax, 1
  00034	89 45 f8	 mov	 DWORD PTR _i$[ebp], eax
$LN4@checkCharO:
  00037	8b 45 f8	 mov	 eax, DWORD PTR _i$[ebp]
  0003a	3b 05 00 00 00
	00		 cmp	 eax, DWORD PTR ?tailCharObj@@3HA ; tailCharObj
  00040	0f 8d 86 00 00
	00		 jge	 $LN3@checkCharO

; 2043 : 		if( charObj[i].use != CHAROBJ_USE_FREE && charObj[i].ptAct != NULL ){

  00046	69 45 f8 0c 01
	00 00		 imul	 eax, DWORD PTR _i$[ebp], 268
  0004d	0f bf 88 00 00
	00 00		 movsx	 ecx, WORD PTR ?charObj@@3PAUCHAROBJ@@A[eax]
  00054	85 c9		 test	 ecx, ecx
  00056	74 6f		 je	 SHORT $LN5@checkCharO
  00058	69 45 f8 0c 01
	00 00		 imul	 eax, DWORD PTR _i$[ebp], 268
  0005f	83 b8 bc 00 00
	00 00		 cmp	 DWORD PTR ?charObj@@3PAUCHAROBJ@@A[eax+188], 0
  00066	74 5f		 je	 SHORT $LN5@checkCharO

; 2044 : 			if( charObj[i].ptAct->gx == gx && charObj[i].ptAct->gy == gy && (charObj[i].type & type) != 0 ){

  00068	69 45 f8 0c 01
	00 00		 imul	 eax, DWORD PTR _i$[ebp], 268
  0006f	8b 88 bc 00 00
	00		 mov	 ecx, DWORD PTR ?charObj@@3PAUCHAROBJ@@A[eax+188]
  00075	8b 91 b4 00 00
	00		 mov	 edx, DWORD PTR [ecx+180]
  0007b	3b 55 08	 cmp	 edx, DWORD PTR _gx$[ebp]
  0007e	75 47		 jne	 SHORT $LN5@checkCharO
  00080	69 45 f8 0c 01
	00 00		 imul	 eax, DWORD PTR _i$[ebp], 268
  00087	8b 88 bc 00 00
	00		 mov	 ecx, DWORD PTR ?charObj@@3PAUCHAROBJ@@A[eax+188]
  0008d	8b 91 b8 00 00
	00		 mov	 edx, DWORD PTR [ecx+184]
  00093	3b 55 0c	 cmp	 edx, DWORD PTR _gy$[ebp]
  00096	75 2f		 jne	 SHORT $LN5@checkCharO
  00098	69 45 f8 0c 01
	00 00		 imul	 eax, DWORD PTR _i$[ebp], 268
  0009f	0f bf 88 02 00
	00 00		 movsx	 ecx, WORD PTR ?charObj@@3PAUCHAROBJ@@A[eax+2]
  000a6	0f bf 55 10	 movsx	 edx, WORD PTR _type$[ebp]
  000aa	23 ca		 and	 ecx, edx
  000ac	74 19		 je	 SHORT $LN5@checkCharO

; 2045 : 				if( (charObj[i].status & status ) == 0 )

  000ae	69 45 f8 0c 01
	00 00		 imul	 eax, DWORD PTR _i$[ebp], 268
  000b5	8b 88 2c 00 00
	00		 mov	 ecx, DWORD PTR ?charObj@@3PAUCHAROBJ@@A[eax+44]
  000bb	23 4d 14	 and	 ecx, DWORD PTR _status$[ebp]
  000be	75 07		 jne	 SHORT $LN5@checkCharO

; 2046 : 					return 1;

  000c0	b8 01 00 00 00	 mov	 eax, 1
  000c5	eb 07		 jmp	 SHORT $LN1@checkCharO
$LN5@checkCharO:

; 2047 : 			}
; 2048 : 		}
; 2049 : 	}

  000c7	e9 62 ff ff ff	 jmp	 $LN2@checkCharO
$LN3@checkCharO:

; 2050 : 	return 0;

  000cc	33 c0		 xor	 eax, eax
$LN1@checkCharO:

; 2051 : }

  000ce	5f		 pop	 edi
  000cf	5e		 pop	 esi
  000d0	5b		 pop	 ebx
  000d1	8b e5		 mov	 esp, ebp
  000d3	5d		 pop	 ebp
  000d4	c3		 ret	 0
?checkCharObjPointNotStatus@@YAHHHFI@Z ENDP		; checkCharObjPointNotStatus
_TEXT	ENDS
; Function compile flags: /Odtp /RTCsu /ZI
; File c:\users\administrator\desktop\????? ??\????? ??\client source code\system\character.cpp
;	COMDAT ?checkCharObjPointStatus@@YAHHHFI@Z
_TEXT	SEGMENT
_no$ = -20						; size = 4
_i$ = -8						; size = 4
_gx$ = 8						; size = 4
_gy$ = 12						; size = 4
_type$ = 16						; size = 2
_status$ = 20						; size = 4
?checkCharObjPointStatus@@YAHHHFI@Z PROC		; checkCharObjPointStatus, COMDAT

; 2017 : {

  00000	55		 push	 ebp
  00001	8b ec		 mov	 ebp, esp
  00003	81 ec d8 00 00
	00		 sub	 esp, 216		; 000000d8H
  00009	53		 push	 ebx
  0000a	56		 push	 esi
  0000b	57		 push	 edi
  0000c	8d bd 28 ff ff
	ff		 lea	 edi, DWORD PTR [ebp-216]
  00012	b9 36 00 00 00	 mov	 ecx, 54			; 00000036H
  00017	b8 cc cc cc cc	 mov	 eax, -858993460		; ccccccccH
  0001c	f3 ab		 rep stosd

; 2018 : 	int i;
; 2019 : 	int no = -1;

  0001e	c7 45 ec ff ff
	ff ff		 mov	 DWORD PTR _no$[ebp], -1

; 2020 : 	for( i = 0; i < tailCharObj; i++ ){

  00025	c7 45 f8 00 00
	00 00		 mov	 DWORD PTR _i$[ebp], 0
  0002c	eb 09		 jmp	 SHORT $LN4@checkCharO
$LN2@checkCharO:
  0002e	8b 45 f8	 mov	 eax, DWORD PTR _i$[ebp]
  00031	83 c0 01	 add	 eax, 1
  00034	89 45 f8	 mov	 DWORD PTR _i$[ebp], eax
$LN4@checkCharO:
  00037	8b 45 f8	 mov	 eax, DWORD PTR _i$[ebp]
  0003a	3b 05 00 00 00
	00		 cmp	 eax, DWORD PTR ?tailCharObj@@3HA ; tailCharObj
  00040	0f 8d 86 00 00
	00		 jge	 $LN3@checkCharO

; 2021 : 		if( charObj[i].use != CHAROBJ_USE_FREE && charObj[i].ptAct != NULL ){

  00046	69 45 f8 0c 01
	00 00		 imul	 eax, DWORD PTR _i$[ebp], 268
  0004d	0f bf 88 00 00
	00 00		 movsx	 ecx, WORD PTR ?charObj@@3PAUCHAROBJ@@A[eax]
  00054	85 c9		 test	 ecx, ecx
  00056	74 6f		 je	 SHORT $LN5@checkCharO
  00058	69 45 f8 0c 01
	00 00		 imul	 eax, DWORD PTR _i$[ebp], 268
  0005f	83 b8 bc 00 00
	00 00		 cmp	 DWORD PTR ?charObj@@3PAUCHAROBJ@@A[eax+188], 0
  00066	74 5f		 je	 SHORT $LN5@checkCharO

; 2022 : 			if( charObj[i].ptAct->gx == gx && charObj[i].ptAct->gy == gy && (charObj[i].type & type) != 0 ){

  00068	69 45 f8 0c 01
	00 00		 imul	 eax, DWORD PTR _i$[ebp], 268
  0006f	8b 88 bc 00 00
	00		 mov	 ecx, DWORD PTR ?charObj@@3PAUCHAROBJ@@A[eax+188]
  00075	8b 91 b4 00 00
	00		 mov	 edx, DWORD PTR [ecx+180]
  0007b	3b 55 08	 cmp	 edx, DWORD PTR _gx$[ebp]
  0007e	75 47		 jne	 SHORT $LN5@checkCharO
  00080	69 45 f8 0c 01
	00 00		 imul	 eax, DWORD PTR _i$[ebp], 268
  00087	8b 88 bc 00 00
	00		 mov	 ecx, DWORD PTR ?charObj@@3PAUCHAROBJ@@A[eax+188]
  0008d	8b 91 b8 00 00
	00		 mov	 edx, DWORD PTR [ecx+184]
  00093	3b 55 0c	 cmp	 edx, DWORD PTR _gy$[ebp]
  00096	75 2f		 jne	 SHORT $LN5@checkCharO
  00098	69 45 f8 0c 01
	00 00		 imul	 eax, DWORD PTR _i$[ebp], 268
  0009f	0f bf 88 02 00
	00 00		 movsx	 ecx, WORD PTR ?charObj@@3PAUCHAROBJ@@A[eax+2]
  000a6	0f bf 55 10	 movsx	 edx, WORD PTR _type$[ebp]
  000aa	23 ca		 and	 ecx, edx
  000ac	74 19		 je	 SHORT $LN5@checkCharO

; 2023 : 				if( (charObj[i].status & status ) != 0 )

  000ae	69 45 f8 0c 01
	00 00		 imul	 eax, DWORD PTR _i$[ebp], 268
  000b5	8b 88 2c 00 00
	00		 mov	 ecx, DWORD PTR ?charObj@@3PAUCHAROBJ@@A[eax+44]
  000bb	23 4d 14	 and	 ecx, DWORD PTR _status$[ebp]
  000be	74 07		 je	 SHORT $LN5@checkCharO

; 2024 : 					return 1;

  000c0	b8 01 00 00 00	 mov	 eax, 1
  000c5	eb 07		 jmp	 SHORT $LN1@checkCharO
$LN5@checkCharO:

; 2025 : 			}
; 2026 : 		}
; 2027 : 	}

  000c7	e9 62 ff ff ff	 jmp	 $LN2@checkCharO
$LN3@checkCharO:

; 2028 : 	return 0;

  000cc	33 c0		 xor	 eax, eax
$LN1@checkCharO:

; 2029 : }

  000ce	5f		 pop	 edi
  000cf	5e		 pop	 esi
  000d0	5b		 pop	 ebx
  000d1	8b e5		 mov	 esp, ebp
  000d3	5d		 pop	 ebp
  000d4	c3		 ret	 0
?checkCharObjPointStatus@@YAHHHFI@Z ENDP		; checkCharObjPointStatus
_TEXT	ENDS
; Function compile flags: /Odtp /RTCsu /ZI
; File c:\users\administrator\desktop\????? ??\????? ??\client source code\system\character.cpp
;	COMDAT ?checkCharObjPoint@@YAHHHF@Z
_TEXT	SEGMENT
_no$ = -20						; size = 4
_i$ = -8						; size = 4
_gx$ = 8						; size = 4
_gy$ = 12						; size = 4
_type$ = 16						; size = 2
?checkCharObjPoint@@YAHHHF@Z PROC			; checkCharObjPoint, COMDAT

; 1997 : {

  00000	55		 push	 ebp
  00001	8b ec		 mov	 ebp, esp
  00003	81 ec d8 00 00
	00		 sub	 esp, 216		; 000000d8H
  00009	53		 push	 ebx
  0000a	56		 push	 esi
  0000b	57		 push	 edi
  0000c	8d bd 28 ff ff
	ff		 lea	 edi, DWORD PTR [ebp-216]
  00012	b9 36 00 00 00	 mov	 ecx, 54			; 00000036H
  00017	b8 cc cc cc cc	 mov	 eax, -858993460		; ccccccccH
  0001c	f3 ab		 rep stosd

; 1998 : 	int i;
; 1999 : 	int no = -1;

  0001e	c7 45 ec ff ff
	ff ff		 mov	 DWORD PTR _no$[ebp], -1

; 2000 : 	for( i = 0; i < tailCharObj; i++ ){

  00025	c7 45 f8 00 00
	00 00		 mov	 DWORD PTR _i$[ebp], 0
  0002c	eb 09		 jmp	 SHORT $LN4@checkCharO
$LN2@checkCharO:
  0002e	8b 45 f8	 mov	 eax, DWORD PTR _i$[ebp]
  00031	83 c0 01	 add	 eax, 1
  00034	89 45 f8	 mov	 DWORD PTR _i$[ebp], eax
$LN4@checkCharO:
  00037	8b 45 f8	 mov	 eax, DWORD PTR _i$[ebp]
  0003a	3b 05 00 00 00
	00		 cmp	 eax, DWORD PTR ?tailCharObj@@3HA ; tailCharObj
  00040	7d 74		 jge	 SHORT $LN3@checkCharO

; 2001 : 		if( charObj[i].use != CHAROBJ_USE_FREE && charObj[i].ptAct != NULL ){

  00042	69 45 f8 0c 01
	00 00		 imul	 eax, DWORD PTR _i$[ebp], 268
  00049	0f bf 88 00 00
	00 00		 movsx	 ecx, WORD PTR ?charObj@@3PAUCHAROBJ@@A[eax]
  00050	85 c9		 test	 ecx, ecx
  00052	74 5d		 je	 SHORT $LN5@checkCharO
  00054	69 45 f8 0c 01
	00 00		 imul	 eax, DWORD PTR _i$[ebp], 268
  0005b	83 b8 bc 00 00
	00 00		 cmp	 DWORD PTR ?charObj@@3PAUCHAROBJ@@A[eax+188], 0
  00062	74 4d		 je	 SHORT $LN5@checkCharO

; 2002 : 			if( charObj[i].ptAct->gx == gx && charObj[i].ptAct->gy == gy && (charObj[i].type & type) != 0 )

  00064	69 45 f8 0c 01
	00 00		 imul	 eax, DWORD PTR _i$[ebp], 268
  0006b	8b 88 bc 00 00
	00		 mov	 ecx, DWORD PTR ?charObj@@3PAUCHAROBJ@@A[eax+188]
  00071	8b 91 b4 00 00
	00		 mov	 edx, DWORD PTR [ecx+180]
  00077	3b 55 08	 cmp	 edx, DWORD PTR _gx$[ebp]
  0007a	75 35		 jne	 SHORT $LN5@checkCharO
  0007c	69 45 f8 0c 01
	00 00		 imul	 eax, DWORD PTR _i$[ebp], 268
  00083	8b 88 bc 00 00
	00		 mov	 ecx, DWORD PTR ?charObj@@3PAUCHAROBJ@@A[eax+188]
  00089	8b 91 b8 00 00
	00		 mov	 edx, DWORD PTR [ecx+184]
  0008f	3b 55 0c	 cmp	 edx, DWORD PTR _gy$[ebp]
  00092	75 1d		 jne	 SHORT $LN5@checkCharO
  00094	69 45 f8 0c 01
	00 00		 imul	 eax, DWORD PTR _i$[ebp], 268
  0009b	0f bf 88 02 00
	00 00		 movsx	 ecx, WORD PTR ?charObj@@3PAUCHAROBJ@@A[eax+2]
  000a2	0f bf 55 10	 movsx	 edx, WORD PTR _type$[ebp]
  000a6	23 ca		 and	 ecx, edx
  000a8	74 07		 je	 SHORT $LN5@checkCharO

; 2003 : 				return TRUE;

  000aa	b8 01 00 00 00	 mov	 eax, 1
  000af	eb 07		 jmp	 SHORT $LN1@checkCharO
$LN5@checkCharO:

; 2004 : 		}
; 2005 : 	}

  000b1	e9 78 ff ff ff	 jmp	 $LN2@checkCharO
$LN3@checkCharO:

; 2006 : 	return FALSE;

  000b6	33 c0		 xor	 eax, eax
$LN1@checkCharO:

; 2007 : }

  000b8	5f		 pop	 edi
  000b9	5e		 pop	 esi
  000ba	5b		 pop	 ebx
  000bb	8b e5		 mov	 esp, ebp
  000bd	5d		 pop	 ebp
  000be	c3		 ret	 0
?checkCharObjPoint@@YAHHHF@Z ENDP			; checkCharObjPoint
_TEXT	ENDS
; Function compile flags: /Odtp /RTCsu /ZI
; File c:\users\administrator\desktop\????? ??\????? ??\client source code\system\character.cpp
;	COMDAT ?setCharNameColor@@YAXPAUaction@@H@Z
_TEXT	SEGMENT
_no$ = -20						; size = 4
_ext$ = -8						; size = 4
_ptAct$ = 8						; size = 4
_color$ = 12						; size = 4
?setCharNameColor@@YAXPAUaction@@H@Z PROC		; setCharNameColor, COMDAT

; 1567 : {

  00000	55		 push	 ebp
  00001	8b ec		 mov	 ebp, esp
  00003	81 ec d8 00 00
	00		 sub	 esp, 216		; 000000d8H
  00009	53		 push	 ebx
  0000a	56		 push	 esi
  0000b	57		 push	 edi
  0000c	8d bd 28 ff ff
	ff		 lea	 edi, DWORD PTR [ebp-216]
  00012	b9 36 00 00 00	 mov	 ecx, 54			; 00000036H
  00017	b8 cc cc cc cc	 mov	 eax, -858993460		; ccccccccH
  0001c	f3 ab		 rep stosd

; 1568 : 	CHAREXTRA *ext;
; 1569 : 	int no;
; 1570 : 	if( ptAct == NULL )

  0001e	83 7d 08 00	 cmp	 DWORD PTR _ptAct$[ebp], 0
  00022	75 02		 jne	 SHORT $LN2@setCharNam

; 1571 : 		return;

  00024	eb 2d		 jmp	 SHORT $LN1@setCharNam
$LN2@setCharNam:

; 1572 : 	ext = (CHAREXTRA *)ptAct->pYobi;

  00026	8b 45 08	 mov	 eax, DWORD PTR _ptAct$[ebp]
  00029	8b 48 0c	 mov	 ecx, DWORD PTR [eax+12]
  0002c	89 4d f8	 mov	 DWORD PTR _ext$[ebp], ecx

; 1573 : 	no = ext->charObjTblId;

  0002f	8b 45 f8	 mov	 eax, DWORD PTR _ext$[ebp]
  00032	8b 08		 mov	 ecx, DWORD PTR [eax]
  00034	89 4d ec	 mov	 DWORD PTR _no$[ebp], ecx

; 1574 : 	ptAct->charNameColor = color;

  00037	8b 45 08	 mov	 eax, DWORD PTR _ptAct$[ebp]
  0003a	8b 4d 0c	 mov	 ecx, DWORD PTR _color$[ebp]
  0003d	89 88 98 00 00
	00		 mov	 DWORD PTR [eax+152], ecx

; 1575 : 	charObj[no].charNameColor = color;

  00043	69 45 ec 0c 01
	00 00		 imul	 eax, DWORD PTR _no$[ebp], 268
  0004a	8b 4d 0c	 mov	 ecx, DWORD PTR _color$[ebp]
  0004d	89 88 c0 00 00
	00		 mov	 DWORD PTR ?charObj@@3PAUCHAROBJ@@A[eax+192], ecx
$LN1@setCharNam:

; 1576 : }

  00053	5f		 pop	 edi
  00054	5e		 pop	 esi
  00055	5b		 pop	 ebx
  00056	8b e5		 mov	 esp, ebp
  00058	5d		 pop	 ebp
  00059	c3		 ret	 0
?setCharNameColor@@YAXPAUaction@@H@Z ENDP		; setCharNameColor
_TEXT	ENDS
; Function compile flags: /Odtp /RTCsu /ZI
; File c:\users\administrator\desktop\????? ??\????? ??\client source code\system\character.cpp
;	COMDAT ?setCharFukidashi@@YAXPAUaction@@I@Z
_TEXT	SEGMENT
_no$ = -20						; size = 4
_ext$ = -8						; size = 4
_ptAct$ = 8						; size = 4
_offTime$ = 12						; size = 4
?setCharFukidashi@@YAXPAUaction@@I@Z PROC		; setCharFukidashi, COMDAT

; 912  : {

  00000	55		 push	 ebp
  00001	8b ec		 mov	 ebp, esp
  00003	81 ec d8 00 00
	00		 sub	 esp, 216		; 000000d8H
  00009	53		 push	 ebx
  0000a	56		 push	 esi
  0000b	57		 push	 edi
  0000c	8d bd 28 ff ff
	ff		 lea	 edi, DWORD PTR [ebp-216]
  00012	b9 36 00 00 00	 mov	 ecx, 54			; 00000036H
  00017	b8 cc cc cc cc	 mov	 eax, -858993460		; ccccccccH
  0001c	f3 ab		 rep stosd

; 913  : 	CHAREXTRA *ext;
; 914  : 	int no;
; 915  : 	if( ptAct == NULL )

  0001e	83 7d 08 00	 cmp	 DWORD PTR _ptAct$[ebp], 0
  00022	75 02		 jne	 SHORT $LN2@setCharFuk

; 916  : 		return;

  00024	eb 4a		 jmp	 SHORT $LN1@setCharFuk
$LN2@setCharFuk:

; 917  : 	ext = (CHAREXTRA *)ptAct->pYobi;

  00026	8b 45 08	 mov	 eax, DWORD PTR _ptAct$[ebp]
  00029	8b 48 0c	 mov	 ecx, DWORD PTR [eax+12]
  0002c	89 4d f8	 mov	 DWORD PTR _ext$[ebp], ecx

; 918  : 
; 919  : 	//JL fix 可能出现0xdddddddd
; 920  : 	if ((int)ext == 0xdddddddd)

  0002f	81 7d f8 dd dd
	dd dd		 cmp	 DWORD PTR _ext$[ebp], -572662307 ; ddddddddH
  00036	75 02		 jne	 SHORT $LN3@setCharFuk

; 921  : 	{
; 922  : 		return;

  00038	eb 36		 jmp	 SHORT $LN1@setCharFuk
$LN3@setCharFuk:

; 923  : 	}
; 924  : 
; 925  : 	no = ext->charObjTblId;

  0003a	8b 45 f8	 mov	 eax, DWORD PTR _ext$[ebp]
  0003d	8b 08		 mov	 ecx, DWORD PTR [eax]
  0003f	89 4d ec	 mov	 DWORD PTR _no$[ebp], ecx

; 926  : 	charObj[no].status |= CHR_STATUS_FUKIDASHI;

  00042	69 45 ec 0c 01
	00 00		 imul	 eax, DWORD PTR _no$[ebp], 268
  00049	8b 88 2c 00 00
	00		 mov	 ecx, DWORD PTR ?charObj@@3PAUCHAROBJ@@A[eax+44]
  0004f	81 c9 00 20 00
	00		 or	 ecx, 8192		; 00002000H
  00055	69 55 ec 0c 01
	00 00		 imul	 edx, DWORD PTR _no$[ebp], 268
  0005c	89 8a 2c 00 00
	00		 mov	 DWORD PTR ?charObj@@3PAUCHAROBJ@@A[edx+44], ecx

; 927  : 	ext->drawFukidashiTime = offTime + TimeGetTime();

  00062	e8 00 00 00 00	 call	 ?TimeGetTime@@YAIXZ	; TimeGetTime
  00067	03 45 0c	 add	 eax, DWORD PTR _offTime$[ebp]
  0006a	8b 4d f8	 mov	 ecx, DWORD PTR _ext$[ebp]
  0006d	89 41 04	 mov	 DWORD PTR [ecx+4], eax
$LN1@setCharFuk:

; 928  : }

  00070	5f		 pop	 edi
  00071	5e		 pop	 esi
  00072	5b		 pop	 ebx
  00073	81 c4 d8 00 00
	00		 add	 esp, 216		; 000000d8H
  00079	3b ec		 cmp	 ebp, esp
  0007b	e8 00 00 00 00	 call	 __RTC_CheckEsp
  00080	8b e5		 mov	 esp, ebp
  00082	5d		 pop	 ebp
  00083	c3		 ret	 0
?setCharFukidashi@@YAXPAUaction@@I@Z ENDP		; setCharFukidashi
_TEXT	ENDS
; Function compile flags: /Odtp /RTCsu /ZI
; File c:\users\administrator\desktop\????? ??\????? ??\client source code\system\character.cpp
;	COMDAT ?delCharMind@@YAXPAUaction@@@Z
_TEXT	SEGMENT
_ext$ = -8						; size = 4
_ptAct$ = 8						; size = 4
?delCharMind@@YAXPAUaction@@@Z PROC			; delCharMind, COMDAT

; 797  : {

  00000	55		 push	 ebp
  00001	8b ec		 mov	 ebp, esp
  00003	81 ec cc 00 00
	00		 sub	 esp, 204		; 000000ccH
  00009	53		 push	 ebx
  0000a	56		 push	 esi
  0000b	57		 push	 edi
  0000c	8d bd 34 ff ff
	ff		 lea	 edi, DWORD PTR [ebp-204]
  00012	b9 33 00 00 00	 mov	 ecx, 51			; 00000033H
  00017	b8 cc cc cc cc	 mov	 eax, -858993460		; ccccccccH
  0001c	f3 ab		 rep stosd

; 798  : 	CHAREXTRA *ext;	
; 799  : 	if( ptAct == NULL )

  0001e	83 7d 08 00	 cmp	 DWORD PTR _ptAct$[ebp], 0
  00022	75 02		 jne	 SHORT $LN2@delCharMin

; 800  : 		return;

  00024	eb 09		 jmp	 SHORT $LN1@delCharMin
$LN2@delCharMin:

; 801  : 	ext = (CHAREXTRA *)ptAct->pYobi;	

  00026	8b 45 08	 mov	 eax, DWORD PTR _ptAct$[ebp]
  00029	8b 48 0c	 mov	 ecx, DWORD PTR [eax+12]
  0002c	89 4d f8	 mov	 DWORD PTR _ext$[ebp], ecx
$LN1@delCharMin:

; 802  : }

  0002f	5f		 pop	 edi
  00030	5e		 pop	 esi
  00031	5b		 pop	 ebx
  00032	8b e5		 mov	 esp, ebp
  00034	5d		 pop	 ebp
  00035	c3		 ret	 0
?delCharMind@@YAXPAUaction@@@Z ENDP			; delCharMind
_TEXT	ENDS
; Function compile flags: /Odtp /RTCsu /ZI
; File c:\users\administrator\desktop\????? ??\????? ??\client source code\system\character.cpp
;	COMDAT ?setCharMind@@YAXPAUaction@@H@Z
_TEXT	SEGMENT
_ext$ = -8						; size = 4
_ptAct$ = 8						; size = 4
_MindNo$ = 12						; size = 4
?setCharMind@@YAXPAUaction@@H@Z PROC			; setCharMind, COMDAT

; 784  : {

  00000	55		 push	 ebp
  00001	8b ec		 mov	 ebp, esp
  00003	81 ec cc 00 00
	00		 sub	 esp, 204		; 000000ccH
  00009	53		 push	 ebx
  0000a	56		 push	 esi
  0000b	57		 push	 edi
  0000c	8d bd 34 ff ff
	ff		 lea	 edi, DWORD PTR [ebp-204]
  00012	b9 33 00 00 00	 mov	 ecx, 51			; 00000033H
  00017	b8 cc cc cc cc	 mov	 eax, -858993460		; ccccccccH
  0001c	f3 ab		 rep stosd

; 785  : 	CHAREXTRA *ext;
; 786  : 	if( ptAct == NULL )

  0001e	83 7d 08 00	 cmp	 DWORD PTR _ptAct$[ebp], 0
  00022	75 02		 jne	 SHORT $LN2@setCharMin

; 787  : 		return;

  00024	eb 63		 jmp	 SHORT $LN1@setCharMin
$LN2@setCharMin:

; 788  : 	ext = (CHAREXTRA *)ptAct->pYobi;

  00026	8b 45 08	 mov	 eax, DWORD PTR _ptAct$[ebp]
  00029	8b 48 0c	 mov	 ecx, DWORD PTR [eax+12]
  0002c	89 4d f8	 mov	 DWORD PTR _ext$[ebp], ecx

; 789  : 	ptAct->sMindIcon = MindNo;

  0002f	8b 45 08	 mov	 eax, DWORD PTR _ptAct$[ebp]
  00032	8b 4d 0c	 mov	 ecx, DWORD PTR _MindNo$[ebp]
  00035	89 88 c0 01 00
	00		 mov	 DWORD PTR [eax+448], ecx

; 790  : 	if(ext->ptMindIcon){

  0003b	8b 45 f8	 mov	 eax, DWORD PTR _ext$[ebp]
  0003e	83 78 10 00	 cmp	 DWORD PTR [eax+16], 0
  00042	74 19		 je	 SHORT $LN3@setCharMin

; 791  : 		DeathAction( ext->ptMindIcon);

  00044	8b 45 f8	 mov	 eax, DWORD PTR _ext$[ebp]
  00047	8b 48 10	 mov	 ecx, DWORD PTR [eax+16]
  0004a	51		 push	 ecx
  0004b	e8 00 00 00 00	 call	 ?DeathAction@@YAXPAUaction@@@Z ; DeathAction
  00050	83 c4 04	 add	 esp, 4

; 792  : 		ext->ptMindIcon = NULL;

  00053	8b 45 f8	 mov	 eax, DWORD PTR _ext$[ebp]
  00056	c7 40 10 00 00
	00 00		 mov	 DWORD PTR [eax+16], 0
$LN3@setCharMin:

; 793  : 	}
; 794  : 	ext->ptMindIcon = createCommmonEffectAction( MindNo, ptAct->gx, ptAct->gy, 0, 0, DISP_PRIO_CHAR);

  0005d	6a 0a		 push	 10			; 0000000aH
  0005f	6a 00		 push	 0
  00061	6a 00		 push	 0
  00063	8b 45 08	 mov	 eax, DWORD PTR _ptAct$[ebp]
  00066	8b 88 b8 00 00
	00		 mov	 ecx, DWORD PTR [eax+184]
  0006c	51		 push	 ecx
  0006d	8b 55 08	 mov	 edx, DWORD PTR _ptAct$[ebp]
  00070	8b 82 b4 00 00
	00		 mov	 eax, DWORD PTR [edx+180]
  00076	50		 push	 eax
  00077	8b 4d 0c	 mov	 ecx, DWORD PTR _MindNo$[ebp]
  0007a	51		 push	 ecx
  0007b	e8 00 00 00 00	 call	 ?createCommmonEffectAction@@YAPAUaction@@HHHHHH@Z ; createCommmonEffectAction
  00080	83 c4 18	 add	 esp, 24			; 00000018H
  00083	8b 55 f8	 mov	 edx, DWORD PTR _ext$[ebp]
  00086	89 42 10	 mov	 DWORD PTR [edx+16], eax
$LN1@setCharMin:

; 795  : }

  00089	5f		 pop	 edi
  0008a	5e		 pop	 esi
  0008b	5b		 pop	 ebx
  0008c	81 c4 cc 00 00
	00		 add	 esp, 204		; 000000ccH
  00092	3b ec		 cmp	 ebp, esp
  00094	e8 00 00 00 00	 call	 __RTC_CheckEsp
  00099	8b e5		 mov	 esp, ebp
  0009b	5d		 pop	 ebp
  0009c	c3		 ret	 0
?setCharMind@@YAXPAUaction@@H@Z ENDP			; setCharMind
_TEXT	ENDS
; Function compile flags: /Odtp /RTCsu /ZI
; File c:\users\administrator\desktop\????? ??\????? ??\client source code\system\character.cpp
;	COMDAT ?delCharAngel@@YAXPAUaction@@@Z
_TEXT	SEGMENT
_no$ = -20						; size = 4
_ext$ = -8						; size = 4
_ptAct$ = 8						; size = 4
?delCharAngel@@YAXPAUaction@@@Z PROC			; delCharAngel, COMDAT

; 874  : {

  00000	55		 push	 ebp
  00001	8b ec		 mov	 ebp, esp
  00003	81 ec d8 00 00
	00		 sub	 esp, 216		; 000000d8H
  00009	53		 push	 ebx
  0000a	56		 push	 esi
  0000b	57		 push	 edi
  0000c	8d bd 28 ff ff
	ff		 lea	 edi, DWORD PTR [ebp-216]
  00012	b9 36 00 00 00	 mov	 ecx, 54			; 00000036H
  00017	b8 cc cc cc cc	 mov	 eax, -858993460		; ccccccccH
  0001c	f3 ab		 rep stosd

; 875  : 	CHAREXTRA *ext;
; 876  : 	int no;
; 877  : 	if( ptAct == NULL )

  0001e	83 7d 08 00	 cmp	 DWORD PTR _ptAct$[ebp], 0
  00022	75 02		 jne	 SHORT $LN2@delCharAng

; 878  : 		return;

  00024	eb 31		 jmp	 SHORT $LN1@delCharAng
$LN2@delCharAng:

; 879  : 	ext = (CHAREXTRA *)ptAct->pYobi;

  00026	8b 45 08	 mov	 eax, DWORD PTR _ptAct$[ebp]
  00029	8b 48 0c	 mov	 ecx, DWORD PTR [eax+12]
  0002c	89 4d f8	 mov	 DWORD PTR _ext$[ebp], ecx

; 880  : 	no = ext->charObjTblId;

  0002f	8b 45 f8	 mov	 eax, DWORD PTR _ext$[ebp]
  00032	8b 08		 mov	 ecx, DWORD PTR [eax]
  00034	89 4d ec	 mov	 DWORD PTR _no$[ebp], ecx

; 881  : 	charObj[no].status &= ~CHR_STATUS_ANGEL;

  00037	69 45 ec 0c 01
	00 00		 imul	 eax, DWORD PTR _no$[ebp], 268
  0003e	8b 88 2c 00 00
	00		 mov	 ecx, DWORD PTR ?charObj@@3PAUCHAROBJ@@A[eax+44]
  00044	81 e1 ff ff fe
	ff		 and	 ecx, -65537		; fffeffffH
  0004a	69 55 ec 0c 01
	00 00		 imul	 edx, DWORD PTR _no$[ebp], 268
  00051	89 8a 2c 00 00
	00		 mov	 DWORD PTR ?charObj@@3PAUCHAROBJ@@A[edx+44], ecx
$LN1@delCharAng:

; 882  : }

  00057	5f		 pop	 edi
  00058	5e		 pop	 esi
  00059	5b		 pop	 ebx
  0005a	8b e5		 mov	 esp, ebp
  0005c	5d		 pop	 ebp
  0005d	c3		 ret	 0
?delCharAngel@@YAXPAUaction@@@Z ENDP			; delCharAngel
_TEXT	ENDS
; Function compile flags: /Odtp /RTCsu /ZI
; File c:\users\administrator\desktop\????? ??\????? ??\client source code\system\character.cpp
;	COMDAT ?setCharAngel@@YAXPAUaction@@@Z
_TEXT	SEGMENT
_no$ = -20						; size = 4
_ext$ = -8						; size = 4
_ptAct$ = 8						; size = 4
?setCharAngel@@YAXPAUaction@@@Z PROC			; setCharAngel, COMDAT

; 863  : {

  00000	55		 push	 ebp
  00001	8b ec		 mov	 ebp, esp
  00003	81 ec d8 00 00
	00		 sub	 esp, 216		; 000000d8H
  00009	53		 push	 ebx
  0000a	56		 push	 esi
  0000b	57		 push	 edi
  0000c	8d bd 28 ff ff
	ff		 lea	 edi, DWORD PTR [ebp-216]
  00012	b9 36 00 00 00	 mov	 ecx, 54			; 00000036H
  00017	b8 cc cc cc cc	 mov	 eax, -858993460		; ccccccccH
  0001c	f3 ab		 rep stosd

; 864  : 	CHAREXTRA *ext;
; 865  : 	int no;
; 866  : 	if( ptAct == NULL )

  0001e	83 7d 08 00	 cmp	 DWORD PTR _ptAct$[ebp], 0
  00022	75 02		 jne	 SHORT $LN2@setCharAng

; 867  : 		return;

  00024	eb 31		 jmp	 SHORT $LN1@setCharAng
$LN2@setCharAng:

; 868  : 	ext = (CHAREXTRA *)ptAct->pYobi;

  00026	8b 45 08	 mov	 eax, DWORD PTR _ptAct$[ebp]
  00029	8b 48 0c	 mov	 ecx, DWORD PTR [eax+12]
  0002c	89 4d f8	 mov	 DWORD PTR _ext$[ebp], ecx

; 869  : 	no = ext->charObjTblId;

  0002f	8b 45 f8	 mov	 eax, DWORD PTR _ext$[ebp]
  00032	8b 08		 mov	 ecx, DWORD PTR [eax]
  00034	89 4d ec	 mov	 DWORD PTR _no$[ebp], ecx

; 870  : 	charObj[no].status |= CHR_STATUS_ANGEL;

  00037	69 45 ec 0c 01
	00 00		 imul	 eax, DWORD PTR _no$[ebp], 268
  0003e	8b 88 2c 00 00
	00		 mov	 ecx, DWORD PTR ?charObj@@3PAUCHAROBJ@@A[eax+44]
  00044	81 c9 00 00 01
	00		 or	 ecx, 65536		; 00010000H
  0004a	69 55 ec 0c 01
	00 00		 imul	 edx, DWORD PTR _no$[ebp], 268
  00051	89 8a 2c 00 00
	00		 mov	 DWORD PTR ?charObj@@3PAUCHAROBJ@@A[edx+44], ecx
$LN1@setCharAng:

; 871  : }

  00057	5f		 pop	 edi
  00058	5e		 pop	 esi
  00059	5b		 pop	 ebx
  0005a	8b e5		 mov	 esp, ebp
  0005c	5d		 pop	 ebp
  0005d	c3		 ret	 0
?setCharAngel@@YAXPAUaction@@@Z ENDP			; setCharAngel
_TEXT	ENDS
; Function compile flags: /Odtp /RTCsu /ZI
; File c:\users\administrator\desktop\????? ??\????? ??\client source code\system\character.cpp
;	COMDAT ?delCharUseMagic@@YAXPAUaction@@@Z
_TEXT	SEGMENT
_no$ = -20						; size = 4
_ext$ = -8						; size = 4
_ptAct$ = 8						; size = 4
?delCharUseMagic@@YAXPAUaction@@@Z PROC			; delCharUseMagic, COMDAT

; 900  : {

  00000	55		 push	 ebp
  00001	8b ec		 mov	 ebp, esp
  00003	81 ec d8 00 00
	00		 sub	 esp, 216		; 000000d8H
  00009	53		 push	 ebx
  0000a	56		 push	 esi
  0000b	57		 push	 edi
  0000c	8d bd 28 ff ff
	ff		 lea	 edi, DWORD PTR [ebp-216]
  00012	b9 36 00 00 00	 mov	 ecx, 54			; 00000036H
  00017	b8 cc cc cc cc	 mov	 eax, -858993460		; ccccccccH
  0001c	f3 ab		 rep stosd

; 901  : 	CHAREXTRA *ext;
; 902  : 	int no;
; 903  : 	if( ptAct == NULL )

  0001e	83 7d 08 00	 cmp	 DWORD PTR _ptAct$[ebp], 0
  00022	75 02		 jne	 SHORT $LN2@delCharUse

; 904  : 		return;

  00024	eb 31		 jmp	 SHORT $LN1@delCharUse
$LN2@delCharUse:

; 905  : 	ext = (CHAREXTRA *)ptAct->pYobi;

  00026	8b 45 08	 mov	 eax, DWORD PTR _ptAct$[ebp]
  00029	8b 48 0c	 mov	 ecx, DWORD PTR [eax+12]
  0002c	89 4d f8	 mov	 DWORD PTR _ext$[ebp], ecx

; 906  : 	no = ext->charObjTblId;

  0002f	8b 45 f8	 mov	 eax, DWORD PTR _ext$[ebp]
  00032	8b 08		 mov	 ecx, DWORD PTR [eax]
  00034	89 4d ec	 mov	 DWORD PTR _no$[ebp], ecx

; 907  : 	charObj[no].status &= (~CHR_STATUS_USE_MAGIC);

  00037	69 45 ec 0c 01
	00 00		 imul	 eax, DWORD PTR _no$[ebp], 268
  0003e	8b 88 2c 00 00
	00		 mov	 ecx, DWORD PTR ?charObj@@3PAUCHAROBJ@@A[eax+44]
  00044	81 e1 ff f7 ff
	ff		 and	 ecx, -2049		; fffff7ffH
  0004a	69 55 ec 0c 01
	00 00		 imul	 edx, DWORD PTR _no$[ebp], 268
  00051	89 8a 2c 00 00
	00		 mov	 DWORD PTR ?charObj@@3PAUCHAROBJ@@A[edx+44], ecx
$LN1@delCharUse:

; 908  : }

  00057	5f		 pop	 edi
  00058	5e		 pop	 esi
  00059	5b		 pop	 ebx
  0005a	8b e5		 mov	 esp, ebp
  0005c	5d		 pop	 ebp
  0005d	c3		 ret	 0
?delCharUseMagic@@YAXPAUaction@@@Z ENDP			; delCharUseMagic
_TEXT	ENDS
; Function compile flags: /Odtp /RTCsu /ZI
; File c:\users\administrator\desktop\????? ??\????? ??\client source code\system\character.cpp
;	COMDAT ?setCharUseMagic@@YAXPAUaction@@@Z
_TEXT	SEGMENT
_no$ = -20						; size = 4
_ext$ = -8						; size = 4
_ptAct$ = 8						; size = 4
?setCharUseMagic@@YAXPAUaction@@@Z PROC			; setCharUseMagic, COMDAT

; 887  : {

  00000	55		 push	 ebp
  00001	8b ec		 mov	 ebp, esp
  00003	81 ec d8 00 00
	00		 sub	 esp, 216		; 000000d8H
  00009	53		 push	 ebx
  0000a	56		 push	 esi
  0000b	57		 push	 edi
  0000c	8d bd 28 ff ff
	ff		 lea	 edi, DWORD PTR [ebp-216]
  00012	b9 36 00 00 00	 mov	 ecx, 54			; 00000036H
  00017	b8 cc cc cc cc	 mov	 eax, -858993460		; ccccccccH
  0001c	f3 ab		 rep stosd

; 888  : 	CHAREXTRA *ext;
; 889  : 	int no;
; 890  : 	if( ptAct == NULL )

  0001e	83 7d 08 00	 cmp	 DWORD PTR _ptAct$[ebp], 0
  00022	75 02		 jne	 SHORT $LN2@setCharUse

; 891  : 		return;

  00024	eb 31		 jmp	 SHORT $LN1@setCharUse
$LN2@setCharUse:

; 892  : 	ext = (CHAREXTRA *)ptAct->pYobi;

  00026	8b 45 08	 mov	 eax, DWORD PTR _ptAct$[ebp]
  00029	8b 48 0c	 mov	 ecx, DWORD PTR [eax+12]
  0002c	89 4d f8	 mov	 DWORD PTR _ext$[ebp], ecx

; 893  : 	no = ext->charObjTblId;

  0002f	8b 45 f8	 mov	 eax, DWORD PTR _ext$[ebp]
  00032	8b 08		 mov	 ecx, DWORD PTR [eax]
  00034	89 4d ec	 mov	 DWORD PTR _no$[ebp], ecx

; 894  : 	charObj[no].status |= CHR_STATUS_USE_MAGIC;

  00037	69 45 ec 0c 01
	00 00		 imul	 eax, DWORD PTR _no$[ebp], 268
  0003e	8b 88 2c 00 00
	00		 mov	 ecx, DWORD PTR ?charObj@@3PAUCHAROBJ@@A[eax+44]
  00044	81 c9 00 08 00
	00		 or	 ecx, 2048		; 00000800H
  0004a	69 55 ec 0c 01
	00 00		 imul	 edx, DWORD PTR _no$[ebp], 268
  00051	89 8a 2c 00 00
	00		 mov	 DWORD PTR ?charObj@@3PAUCHAROBJ@@A[edx+44], ecx
$LN1@setCharUse:

; 895  : }

  00057	5f		 pop	 edi
  00058	5e		 pop	 esi
  00059	5b		 pop	 ebx
  0005a	8b e5		 mov	 esp, ebp
  0005c	5d		 pop	 ebp
  0005d	c3		 ret	 0
?setCharUseMagic@@YAXPAUaction@@@Z ENDP			; setCharUseMagic
_TEXT	ENDS
; Function compile flags: /Odtp /RTCsu /ZI
; File c:\users\administrator\desktop\????? ??\????? ??\client source code\system\character.cpp
;	COMDAT ?delCharTrade@@YAXPAUaction@@@Z
_TEXT	SEGMENT
_no$ = -20						; size = 4
_ext$ = -8						; size = 4
_ptAct$ = 8						; size = 4
?delCharTrade@@YAXPAUaction@@@Z PROC			; delCharTrade, COMDAT

; 851  : {

  00000	55		 push	 ebp
  00001	8b ec		 mov	 ebp, esp
  00003	81 ec d8 00 00
	00		 sub	 esp, 216		; 000000d8H
  00009	53		 push	 ebx
  0000a	56		 push	 esi
  0000b	57		 push	 edi
  0000c	8d bd 28 ff ff
	ff		 lea	 edi, DWORD PTR [ebp-216]
  00012	b9 36 00 00 00	 mov	 ecx, 54			; 00000036H
  00017	b8 cc cc cc cc	 mov	 eax, -858993460		; ccccccccH
  0001c	f3 ab		 rep stosd

; 852  : 	CHAREXTRA *ext;
; 853  : 	int no;
; 854  : 	if( ptAct == NULL )

  0001e	83 7d 08 00	 cmp	 DWORD PTR _ptAct$[ebp], 0
  00022	75 02		 jne	 SHORT $LN2@delCharTra

; 855  : 		return;

  00024	eb 31		 jmp	 SHORT $LN1@delCharTra
$LN2@delCharTra:

; 856  : 	ext = (CHAREXTRA *)ptAct->pYobi;

  00026	8b 45 08	 mov	 eax, DWORD PTR _ptAct$[ebp]
  00029	8b 48 0c	 mov	 ecx, DWORD PTR [eax+12]
  0002c	89 4d f8	 mov	 DWORD PTR _ext$[ebp], ecx

; 857  : 	no = ext->charObjTblId;

  0002f	8b 45 f8	 mov	 eax, DWORD PTR _ext$[ebp]
  00032	8b 08		 mov	 ecx, DWORD PTR [eax]
  00034	89 4d ec	 mov	 DWORD PTR _no$[ebp], ecx

; 858  : 	charObj[no].status &= (~CHR_STATUS_TRADE|CHR_STATUS_LEADER);

  00037	69 45 ec 0c 01
	00 00		 imul	 eax, DWORD PTR _no$[ebp], 268
  0003e	8b 88 2c 00 00
	00		 mov	 ecx, DWORD PTR ?charObj@@3PAUCHAROBJ@@A[eax+44]
  00044	81 e1 ff 7f ff
	ff		 and	 ecx, -32769		; ffff7fffH
  0004a	69 55 ec 0c 01
	00 00		 imul	 edx, DWORD PTR _no$[ebp], 268
  00051	89 8a 2c 00 00
	00		 mov	 DWORD PTR ?charObj@@3PAUCHAROBJ@@A[edx+44], ecx
$LN1@delCharTra:

; 859  : }

  00057	5f		 pop	 edi
  00058	5e		 pop	 esi
  00059	5b		 pop	 ebx
  0005a	8b e5		 mov	 esp, ebp
  0005c	5d		 pop	 ebp
  0005d	c3		 ret	 0
?delCharTrade@@YAXPAUaction@@@Z ENDP			; delCharTrade
_TEXT	ENDS
; Function compile flags: /Odtp /RTCsu /ZI
; File c:\users\administrator\desktop\????? ??\????? ??\client source code\system\character.cpp
;	COMDAT ?setCharTrade@@YAXPAUaction@@H@Z
_TEXT	SEGMENT
_no$ = -20						; size = 4
_ext$ = -8						; size = 4
_ptAct$ = 8						; size = 4
_battleNo$ = 12						; size = 4
?setCharTrade@@YAXPAUaction@@H@Z PROC			; setCharTrade, COMDAT

; 838  : {

  00000	55		 push	 ebp
  00001	8b ec		 mov	 ebp, esp
  00003	81 ec d8 00 00
	00		 sub	 esp, 216		; 000000d8H
  00009	53		 push	 ebx
  0000a	56		 push	 esi
  0000b	57		 push	 edi
  0000c	8d bd 28 ff ff
	ff		 lea	 edi, DWORD PTR [ebp-216]
  00012	b9 36 00 00 00	 mov	 ecx, 54			; 00000036H
  00017	b8 cc cc cc cc	 mov	 eax, -858993460		; ccccccccH
  0001c	f3 ab		 rep stosd

; 839  : 	CHAREXTRA *ext;
; 840  : 	int no;
; 841  : 	if( ptAct == NULL )

  0001e	83 7d 08 00	 cmp	 DWORD PTR _ptAct$[ebp], 0
  00022	75 02		 jne	 SHORT $LN2@setCharTra

; 842  : 		return;

  00024	eb 31		 jmp	 SHORT $LN1@setCharTra
$LN2@setCharTra:

; 843  : 	ext = (CHAREXTRA *)ptAct->pYobi;

  00026	8b 45 08	 mov	 eax, DWORD PTR _ptAct$[ebp]
  00029	8b 48 0c	 mov	 ecx, DWORD PTR [eax+12]
  0002c	89 4d f8	 mov	 DWORD PTR _ext$[ebp], ecx

; 844  : 	no = ext->charObjTblId;

  0002f	8b 45 f8	 mov	 eax, DWORD PTR _ext$[ebp]
  00032	8b 08		 mov	 ecx, DWORD PTR [eax]
  00034	89 4d ec	 mov	 DWORD PTR _no$[ebp], ecx

; 845  : 	charObj[no].status |= CHR_STATUS_TRADE;

  00037	69 45 ec 0c 01
	00 00		 imul	 eax, DWORD PTR _no$[ebp], 268
  0003e	8b 88 2c 00 00
	00		 mov	 ecx, DWORD PTR ?charObj@@3PAUCHAROBJ@@A[eax+44]
  00044	81 c9 00 80 00
	00		 or	 ecx, 32768		; 00008000H
  0004a	69 55 ec 0c 01
	00 00		 imul	 edx, DWORD PTR _no$[ebp], 268
  00051	89 8a 2c 00 00
	00		 mov	 DWORD PTR ?charObj@@3PAUCHAROBJ@@A[edx+44], ecx
$LN1@setCharTra:

; 846  : 	//charObj[no].battleNo = battleNo;
; 847  : }

  00057	5f		 pop	 edi
  00058	5e		 pop	 esi
  00059	5b		 pop	 ebx
  0005a	8b e5		 mov	 esp, ebp
  0005c	5d		 pop	 ebp
  0005d	c3		 ret	 0
?setCharTrade@@YAXPAUaction@@H@Z ENDP			; setCharTrade
_TEXT	ENDS
; Function compile flags: /Odtp /RTCsu /ZI
; File c:\users\administrator\desktop\????? ??\????? ??\client source code\system\character.cpp
;	COMDAT ?delCharBattle@@YAXPAUaction@@@Z
_TEXT	SEGMENT
_no$ = -20						; size = 4
_ext$ = -8						; size = 4
_ptAct$ = 8						; size = 4
?delCharBattle@@YAXPAUaction@@@Z PROC			; delCharBattle, COMDAT

; 825  : {

  00000	55		 push	 ebp
  00001	8b ec		 mov	 ebp, esp
  00003	81 ec d8 00 00
	00		 sub	 esp, 216		; 000000d8H
  00009	53		 push	 ebx
  0000a	56		 push	 esi
  0000b	57		 push	 edi
  0000c	8d bd 28 ff ff
	ff		 lea	 edi, DWORD PTR [ebp-216]
  00012	b9 36 00 00 00	 mov	 ecx, 54			; 00000036H
  00017	b8 cc cc cc cc	 mov	 eax, -858993460		; ccccccccH
  0001c	f3 ab		 rep stosd

; 826  : 	CHAREXTRA *ext;
; 827  : 	int no;
; 828  : 	if( ptAct == NULL )

  0001e	83 7d 08 00	 cmp	 DWORD PTR _ptAct$[ebp], 0
  00022	75 02		 jne	 SHORT $LN2@delCharBat

; 829  : 		return;

  00024	eb 31		 jmp	 SHORT $LN1@delCharBat
$LN2@delCharBat:

; 830  : 	ext = (CHAREXTRA *)ptAct->pYobi;

  00026	8b 45 08	 mov	 eax, DWORD PTR _ptAct$[ebp]
  00029	8b 48 0c	 mov	 ecx, DWORD PTR [eax+12]
  0002c	89 4d f8	 mov	 DWORD PTR _ext$[ebp], ecx

; 831  : 	no = ext->charObjTblId;

  0002f	8b 45 f8	 mov	 eax, DWORD PTR _ext$[ebp]
  00032	8b 08		 mov	 ecx, DWORD PTR [eax]
  00034	89 4d ec	 mov	 DWORD PTR _no$[ebp], ecx

; 832  : 	charObj[no].status &= (~(CHR_STATUS_BATTLE | CHR_STATUS_HELP));

  00037	69 45 ec 0c 01
	00 00		 imul	 eax, DWORD PTR _no$[ebp], 268
  0003e	8b 88 2c 00 00
	00		 mov	 ecx, DWORD PTR ?charObj@@3PAUCHAROBJ@@A[eax+44]
  00044	81 e1 ff eb ff
	ff		 and	 ecx, -5121		; ffffebffH
  0004a	69 55 ec 0c 01
	00 00		 imul	 edx, DWORD PTR _no$[ebp], 268
  00051	89 8a 2c 00 00
	00		 mov	 DWORD PTR ?charObj@@3PAUCHAROBJ@@A[edx+44], ecx
$LN1@delCharBat:

; 833  : }

  00057	5f		 pop	 edi
  00058	5e		 pop	 esi
  00059	5b		 pop	 ebx
  0005a	8b e5		 mov	 esp, ebp
  0005c	5d		 pop	 ebp
  0005d	c3		 ret	 0
?delCharBattle@@YAXPAUaction@@@Z ENDP			; delCharBattle
_TEXT	ENDS
; Function compile flags: /Odtp /RTCsu /ZI
; File c:\users\administrator\desktop\????? ??\????? ??\client source code\system\character.cpp
;	COMDAT ?setCharBattle@@YAXPAUaction@@HFF@Z
_TEXT	SEGMENT
_no$ = -20						; size = 4
_ext$ = -8						; size = 4
_ptAct$ = 8						; size = 4
_battleNo$ = 12						; size = 4
_sideNo$ = 16						; size = 2
_helpMode$ = 20						; size = 2
?setCharBattle@@YAXPAUaction@@HFF@Z PROC		; setCharBattle, COMDAT

; 806  : {

  00000	55		 push	 ebp
  00001	8b ec		 mov	 ebp, esp
  00003	81 ec d8 00 00
	00		 sub	 esp, 216		; 000000d8H
  00009	53		 push	 ebx
  0000a	56		 push	 esi
  0000b	57		 push	 edi
  0000c	8d bd 28 ff ff
	ff		 lea	 edi, DWORD PTR [ebp-216]
  00012	b9 36 00 00 00	 mov	 ecx, 54			; 00000036H
  00017	b8 cc cc cc cc	 mov	 eax, -858993460		; ccccccccH
  0001c	f3 ab		 rep stosd

; 807  : 	CHAREXTRA *ext;
; 808  : 	int no;
; 809  : 	if( ptAct == NULL )

  0001e	83 7d 08 00	 cmp	 DWORD PTR _ptAct$[ebp], 0
  00022	75 05		 jne	 SHORT $LN2@setCharBat

; 810  : 		return;

  00024	e9 af 00 00 00	 jmp	 $LN1@setCharBat
$LN2@setCharBat:

; 811  : 	ext = (CHAREXTRA *)ptAct->pYobi;

  00029	8b 45 08	 mov	 eax, DWORD PTR _ptAct$[ebp]
  0002c	8b 48 0c	 mov	 ecx, DWORD PTR [eax+12]
  0002f	89 4d f8	 mov	 DWORD PTR _ext$[ebp], ecx

; 812  : 	no = ext->charObjTblId;

  00032	8b 45 f8	 mov	 eax, DWORD PTR _ext$[ebp]
  00035	8b 08		 mov	 ecx, DWORD PTR [eax]
  00037	89 4d ec	 mov	 DWORD PTR _no$[ebp], ecx

; 813  : 	charObj[no].status |= CHR_STATUS_BATTLE;

  0003a	69 45 ec 0c 01
	00 00		 imul	 eax, DWORD PTR _no$[ebp], 268
  00041	8b 88 2c 00 00
	00		 mov	 ecx, DWORD PTR ?charObj@@3PAUCHAROBJ@@A[eax+44]
  00047	81 c9 00 04 00
	00		 or	 ecx, 1024		; 00000400H
  0004d	69 55 ec 0c 01
	00 00		 imul	 edx, DWORD PTR _no$[ebp], 268
  00054	89 8a 2c 00 00
	00		 mov	 DWORD PTR ?charObj@@3PAUCHAROBJ@@A[edx+44], ecx

; 814  : 	charObj[no].battleNo = battleNo;

  0005a	69 45 ec 0c 01
	00 00		 imul	 eax, DWORD PTR _no$[ebp], 268
  00061	8b 4d 0c	 mov	 ecx, DWORD PTR _battleNo$[ebp]
  00064	89 88 ac 00 00
	00		 mov	 DWORD PTR ?charObj@@3PAUCHAROBJ@@A[eax+172], ecx

; 815  : 	charObj[no].sideNo = sideNo;

  0006a	69 45 ec 0c 01
	00 00		 imul	 eax, DWORD PTR _no$[ebp], 268
  00071	66 8b 4d 10	 mov	 cx, WORD PTR _sideNo$[ebp]
  00075	66 89 88 b0 00
	00 00		 mov	 WORD PTR ?charObj@@3PAUCHAROBJ@@A[eax+176], cx

; 816  : 	charObj[no].helpMode = helpMode;

  0007c	69 45 ec 0c 01
	00 00		 imul	 eax, DWORD PTR _no$[ebp], 268
  00083	66 8b 4d 14	 mov	 cx, WORD PTR _helpMode$[ebp]
  00087	66 89 88 b2 00
	00 00		 mov	 WORD PTR ?charObj@@3PAUCHAROBJ@@A[eax+178], cx

; 817  : 	if( helpMode )

  0008e	0f bf 45 14	 movsx	 eax, WORD PTR _helpMode$[ebp]
  00092	85 c0		 test	 eax, eax
  00094	74 22		 je	 SHORT $LN3@setCharBat

; 818  : 		charObj[no].status |= CHR_STATUS_HELP;

  00096	69 45 ec 0c 01
	00 00		 imul	 eax, DWORD PTR _no$[ebp], 268
  0009d	8b 88 2c 00 00
	00		 mov	 ecx, DWORD PTR ?charObj@@3PAUCHAROBJ@@A[eax+44]
  000a3	81 c9 00 10 00
	00		 or	 ecx, 4096		; 00001000H
  000a9	69 55 ec 0c 01
	00 00		 imul	 edx, DWORD PTR _no$[ebp], 268
  000b0	89 8a 2c 00 00
	00		 mov	 DWORD PTR ?charObj@@3PAUCHAROBJ@@A[edx+44], ecx

; 819  : 	else

  000b6	eb 20		 jmp	 SHORT $LN1@setCharBat
$LN3@setCharBat:

; 820  : 		charObj[no].status &= ~CHR_STATUS_HELP;

  000b8	69 45 ec 0c 01
	00 00		 imul	 eax, DWORD PTR _no$[ebp], 268
  000bf	8b 88 2c 00 00
	00		 mov	 ecx, DWORD PTR ?charObj@@3PAUCHAROBJ@@A[eax+44]
  000c5	81 e1 ff ef ff
	ff		 and	 ecx, -4097		; ffffefffH
  000cb	69 55 ec 0c 01
	00 00		 imul	 edx, DWORD PTR _no$[ebp], 268
  000d2	89 8a 2c 00 00
	00		 mov	 DWORD PTR ?charObj@@3PAUCHAROBJ@@A[edx+44], ecx
$LN1@setCharBat:

; 821  : }

  000d8	5f		 pop	 edi
  000d9	5e		 pop	 esi
  000da	5b		 pop	 ebx
  000db	8b e5		 mov	 esp, ebp
  000dd	5d		 pop	 ebp
  000de	c3		 ret	 0
?setCharBattle@@YAXPAUaction@@HFF@Z ENDP		; setCharBattle
_TEXT	ENDS
; Function compile flags: /Odtp /RTCsu /ZI
; File c:\users\administrator\desktop\????? ??\????? ??\client source code\system\character.cpp
;	COMDAT ?delCharWatch@@YAXPAUaction@@@Z
_TEXT	SEGMENT
_no$ = -20						; size = 4
_ext$ = -8						; size = 4
_ptAct$ = 8						; size = 4
?delCharWatch@@YAXPAUaction@@@Z PROC			; delCharWatch, COMDAT

; 773  : {

  00000	55		 push	 ebp
  00001	8b ec		 mov	 ebp, esp
  00003	81 ec d8 00 00
	00		 sub	 esp, 216		; 000000d8H
  00009	53		 push	 ebx
  0000a	56		 push	 esi
  0000b	57		 push	 edi
  0000c	8d bd 28 ff ff
	ff		 lea	 edi, DWORD PTR [ebp-216]
  00012	b9 36 00 00 00	 mov	 ecx, 54			; 00000036H
  00017	b8 cc cc cc cc	 mov	 eax, -858993460		; ccccccccH
  0001c	f3 ab		 rep stosd

; 774  : 	CHAREXTRA *ext;
; 775  : 	int no;
; 776  : 	if( ptAct == NULL )

  0001e	83 7d 08 00	 cmp	 DWORD PTR _ptAct$[ebp], 0
  00022	75 02		 jne	 SHORT $LN2@delCharWat

; 777  : 		return;

  00024	eb 31		 jmp	 SHORT $LN1@delCharWat
$LN2@delCharWat:

; 778  : 	ext = (CHAREXTRA *)ptAct->pYobi;

  00026	8b 45 08	 mov	 eax, DWORD PTR _ptAct$[ebp]
  00029	8b 48 0c	 mov	 ecx, DWORD PTR [eax+12]
  0002c	89 4d f8	 mov	 DWORD PTR _ext$[ebp], ecx

; 779  : 	no = ext->charObjTblId;

  0002f	8b 45 f8	 mov	 eax, DWORD PTR _ext$[ebp]
  00032	8b 08		 mov	 ecx, DWORD PTR [eax]
  00034	89 4d ec	 mov	 DWORD PTR _no$[ebp], ecx

; 780  : 	charObj[no].status &= (~CHR_STATUS_WATCH);

  00037	69 45 ec 0c 01
	00 00		 imul	 eax, DWORD PTR _no$[ebp], 268
  0003e	8b 88 2c 00 00
	00		 mov	 ecx, DWORD PTR ?charObj@@3PAUCHAROBJ@@A[eax+44]
  00044	81 e1 ff bf ff
	ff		 and	 ecx, -16385		; ffffbfffH
  0004a	69 55 ec 0c 01
	00 00		 imul	 edx, DWORD PTR _no$[ebp], 268
  00051	89 8a 2c 00 00
	00		 mov	 DWORD PTR ?charObj@@3PAUCHAROBJ@@A[edx+44], ecx
$LN1@delCharWat:

; 781  : }

  00057	5f		 pop	 edi
  00058	5e		 pop	 esi
  00059	5b		 pop	 ebx
  0005a	8b e5		 mov	 esp, ebp
  0005c	5d		 pop	 ebp
  0005d	c3		 ret	 0
?delCharWatch@@YAXPAUaction@@@Z ENDP			; delCharWatch
_TEXT	ENDS
; Function compile flags: /Odtp /RTCsu /ZI
; File c:\users\administrator\desktop\????? ??\????? ??\client source code\system\character.cpp
;	COMDAT ?setCharWatch@@YAXPAUaction@@@Z
_TEXT	SEGMENT
_no$ = -20						; size = 4
_ext$ = -8						; size = 4
_ptAct$ = 8						; size = 4
?setCharWatch@@YAXPAUaction@@@Z PROC			; setCharWatch, COMDAT

; 761  : {

  00000	55		 push	 ebp
  00001	8b ec		 mov	 ebp, esp
  00003	81 ec d8 00 00
	00		 sub	 esp, 216		; 000000d8H
  00009	53		 push	 ebx
  0000a	56		 push	 esi
  0000b	57		 push	 edi
  0000c	8d bd 28 ff ff
	ff		 lea	 edi, DWORD PTR [ebp-216]
  00012	b9 36 00 00 00	 mov	 ecx, 54			; 00000036H
  00017	b8 cc cc cc cc	 mov	 eax, -858993460		; ccccccccH
  0001c	f3 ab		 rep stosd

; 762  : 	CHAREXTRA *ext;
; 763  : 	int no;
; 764  : 	if( ptAct == NULL )

  0001e	83 7d 08 00	 cmp	 DWORD PTR _ptAct$[ebp], 0
  00022	75 02		 jne	 SHORT $LN2@setCharWat

; 765  : 		return;

  00024	eb 31		 jmp	 SHORT $LN1@setCharWat
$LN2@setCharWat:

; 766  : 	ext = (CHAREXTRA *)ptAct->pYobi;

  00026	8b 45 08	 mov	 eax, DWORD PTR _ptAct$[ebp]
  00029	8b 48 0c	 mov	 ecx, DWORD PTR [eax+12]
  0002c	89 4d f8	 mov	 DWORD PTR _ext$[ebp], ecx

; 767  : 	no = ext->charObjTblId;

  0002f	8b 45 f8	 mov	 eax, DWORD PTR _ext$[ebp]
  00032	8b 08		 mov	 ecx, DWORD PTR [eax]
  00034	89 4d ec	 mov	 DWORD PTR _no$[ebp], ecx

; 768  : 	charObj[no].status |= CHR_STATUS_WATCH;

  00037	69 45 ec 0c 01
	00 00		 imul	 eax, DWORD PTR _no$[ebp], 268
  0003e	8b 88 2c 00 00
	00		 mov	 ecx, DWORD PTR ?charObj@@3PAUCHAROBJ@@A[eax+44]
  00044	81 c9 00 40 00
	00		 or	 ecx, 16384		; 00004000H
  0004a	69 55 ec 0c 01
	00 00		 imul	 edx, DWORD PTR _no$[ebp], 268
  00051	89 8a 2c 00 00
	00		 mov	 DWORD PTR ?charObj@@3PAUCHAROBJ@@A[edx+44], ecx
$LN1@setCharWat:

; 769  : }

  00057	5f		 pop	 edi
  00058	5e		 pop	 esi
  00059	5b		 pop	 ebx
  0005a	8b e5		 mov	 esp, ebp
  0005c	5d		 pop	 ebp
  0005d	c3		 ret	 0
?setCharWatch@@YAXPAUaction@@@Z ENDP			; setCharWatch
_TEXT	ENDS
; Function compile flags: /Odtp /RTCsu /ZI
; File c:\users\administrator\desktop\????? ??\????? ??\client source code\system\character.cpp
;	COMDAT ?delCharParty@@YAXPAUaction@@@Z
_TEXT	SEGMENT
_no$ = -20						; size = 4
_ext$ = -8						; size = 4
_ptAct$ = 8						; size = 4
?delCharParty@@YAXPAUaction@@@Z PROC			; delCharParty, COMDAT

; 749  : {

  00000	55		 push	 ebp
  00001	8b ec		 mov	 ebp, esp
  00003	81 ec d8 00 00
	00		 sub	 esp, 216		; 000000d8H
  00009	53		 push	 ebx
  0000a	56		 push	 esi
  0000b	57		 push	 edi
  0000c	8d bd 28 ff ff
	ff		 lea	 edi, DWORD PTR [ebp-216]
  00012	b9 36 00 00 00	 mov	 ecx, 54			; 00000036H
  00017	b8 cc cc cc cc	 mov	 eax, -858993460		; ccccccccH
  0001c	f3 ab		 rep stosd

; 750  : 	CHAREXTRA *ext;
; 751  : 	int no;
; 752  : 	if( ptAct == NULL )

  0001e	83 7d 08 00	 cmp	 DWORD PTR _ptAct$[ebp], 0
  00022	75 02		 jne	 SHORT $LN2@delCharPar

; 753  : 		return;

  00024	eb 31		 jmp	 SHORT $LN1@delCharPar
$LN2@delCharPar:

; 754  : 	ext = (CHAREXTRA *)ptAct->pYobi;

  00026	8b 45 08	 mov	 eax, DWORD PTR _ptAct$[ebp]
  00029	8b 48 0c	 mov	 ecx, DWORD PTR [eax+12]
  0002c	89 4d f8	 mov	 DWORD PTR _ext$[ebp], ecx

; 755  : 	no = ext->charObjTblId;

  0002f	8b 45 f8	 mov	 eax, DWORD PTR _ext$[ebp]
  00032	8b 08		 mov	 ecx, DWORD PTR [eax]
  00034	89 4d ec	 mov	 DWORD PTR _no$[ebp], ecx

; 756  : 	charObj[no].status &= (~CHR_STATUS_PARTY);

  00037	69 45 ec 0c 01
	00 00		 imul	 eax, DWORD PTR _no$[ebp], 268
  0003e	8b 88 2c 00 00
	00		 mov	 ecx, DWORD PTR ?charObj@@3PAUCHAROBJ@@A[eax+44]
  00044	81 e1 ff fd ff
	ff		 and	 ecx, -513		; fffffdffH
  0004a	69 55 ec 0c 01
	00 00		 imul	 edx, DWORD PTR _no$[ebp], 268
  00051	89 8a 2c 00 00
	00		 mov	 DWORD PTR ?charObj@@3PAUCHAROBJ@@A[edx+44], ecx
$LN1@delCharPar:

; 757  : }

  00057	5f		 pop	 edi
  00058	5e		 pop	 esi
  00059	5b		 pop	 ebx
  0005a	8b e5		 mov	 esp, ebp
  0005c	5d		 pop	 ebp
  0005d	c3		 ret	 0
?delCharParty@@YAXPAUaction@@@Z ENDP			; delCharParty
_TEXT	ENDS
; Function compile flags: /Odtp /RTCsu /ZI
; File c:\users\administrator\desktop\????? ??\????? ??\client source code\system\character.cpp
;	COMDAT ?setCharParty@@YAXPAUaction@@@Z
_TEXT	SEGMENT
_no$ = -20						; size = 4
_ext$ = -8						; size = 4
_ptAct$ = 8						; size = 4
?setCharParty@@YAXPAUaction@@@Z PROC			; setCharParty, COMDAT

; 737  : {

  00000	55		 push	 ebp
  00001	8b ec		 mov	 ebp, esp
  00003	81 ec d8 00 00
	00		 sub	 esp, 216		; 000000d8H
  00009	53		 push	 ebx
  0000a	56		 push	 esi
  0000b	57		 push	 edi
  0000c	8d bd 28 ff ff
	ff		 lea	 edi, DWORD PTR [ebp-216]
  00012	b9 36 00 00 00	 mov	 ecx, 54			; 00000036H
  00017	b8 cc cc cc cc	 mov	 eax, -858993460		; ccccccccH
  0001c	f3 ab		 rep stosd

; 738  : 	CHAREXTRA *ext;
; 739  : 	int no;
; 740  : 	if( ptAct == NULL )

  0001e	83 7d 08 00	 cmp	 DWORD PTR _ptAct$[ebp], 0
  00022	75 02		 jne	 SHORT $LN2@setCharPar

; 741  : 		return;

  00024	eb 31		 jmp	 SHORT $LN1@setCharPar
$LN2@setCharPar:

; 742  : 	ext = (CHAREXTRA *)ptAct->pYobi;

  00026	8b 45 08	 mov	 eax, DWORD PTR _ptAct$[ebp]
  00029	8b 48 0c	 mov	 ecx, DWORD PTR [eax+12]
  0002c	89 4d f8	 mov	 DWORD PTR _ext$[ebp], ecx

; 743  : 	no = ext->charObjTblId;

  0002f	8b 45 f8	 mov	 eax, DWORD PTR _ext$[ebp]
  00032	8b 08		 mov	 ecx, DWORD PTR [eax]
  00034	89 4d ec	 mov	 DWORD PTR _no$[ebp], ecx

; 744  : 	charObj[no].status |= CHR_STATUS_PARTY;

  00037	69 45 ec 0c 01
	00 00		 imul	 eax, DWORD PTR _no$[ebp], 268
  0003e	8b 88 2c 00 00
	00		 mov	 ecx, DWORD PTR ?charObj@@3PAUCHAROBJ@@A[eax+44]
  00044	81 c9 00 02 00
	00		 or	 ecx, 512		; 00000200H
  0004a	69 55 ec 0c 01
	00 00		 imul	 edx, DWORD PTR _no$[ebp], 268
  00051	89 8a 2c 00 00
	00		 mov	 DWORD PTR ?charObj@@3PAUCHAROBJ@@A[edx+44], ecx
$LN1@setCharPar:

; 745  : }

  00057	5f		 pop	 edi
  00058	5e		 pop	 esi
  00059	5b		 pop	 ebx
  0005a	8b e5		 mov	 esp, ebp
  0005c	5d		 pop	 ebp
  0005d	c3		 ret	 0
?setCharParty@@YAXPAUaction@@@Z ENDP			; setCharParty
_TEXT	ENDS
; Function compile flags: /Odtp /RTCsu /ZI
; File c:\users\administrator\desktop\????? ??\????? ??\client source code\system\character.cpp
;	COMDAT ?delCharLeader@@YAXPAUaction@@@Z
_TEXT	SEGMENT
_no$ = -20						; size = 4
_ext$ = -8						; size = 4
_ptAct$ = 8						; size = 4
?delCharLeader@@YAXPAUaction@@@Z PROC			; delCharLeader, COMDAT

; 725  : {

  00000	55		 push	 ebp
  00001	8b ec		 mov	 ebp, esp
  00003	81 ec d8 00 00
	00		 sub	 esp, 216		; 000000d8H
  00009	53		 push	 ebx
  0000a	56		 push	 esi
  0000b	57		 push	 edi
  0000c	8d bd 28 ff ff
	ff		 lea	 edi, DWORD PTR [ebp-216]
  00012	b9 36 00 00 00	 mov	 ecx, 54			; 00000036H
  00017	b8 cc cc cc cc	 mov	 eax, -858993460		; ccccccccH
  0001c	f3 ab		 rep stosd

; 726  : 	CHAREXTRA *ext;
; 727  : 	int no;
; 728  : 	if( ptAct == NULL )

  0001e	83 7d 08 00	 cmp	 DWORD PTR _ptAct$[ebp], 0
  00022	75 02		 jne	 SHORT $LN2@delCharLea

; 729  : 		return;

  00024	eb 31		 jmp	 SHORT $LN1@delCharLea
$LN2@delCharLea:

; 730  : 	ext = (CHAREXTRA *)ptAct->pYobi;

  00026	8b 45 08	 mov	 eax, DWORD PTR _ptAct$[ebp]
  00029	8b 48 0c	 mov	 ecx, DWORD PTR [eax+12]
  0002c	89 4d f8	 mov	 DWORD PTR _ext$[ebp], ecx

; 731  : 	no = ext->charObjTblId;

  0002f	8b 45 f8	 mov	 eax, DWORD PTR _ext$[ebp]
  00032	8b 08		 mov	 ecx, DWORD PTR [eax]
  00034	89 4d ec	 mov	 DWORD PTR _no$[ebp], ecx

; 732  : 	charObj[no].status &= (~CHR_STATUS_LEADER);

  00037	69 45 ec 0c 01
	00 00		 imul	 eax, DWORD PTR _no$[ebp], 268
  0003e	8b 88 2c 00 00
	00		 mov	 ecx, DWORD PTR ?charObj@@3PAUCHAROBJ@@A[eax+44]
  00044	81 e1 ff fe ff
	ff		 and	 ecx, -257		; fffffeffH
  0004a	69 55 ec 0c 01
	00 00		 imul	 edx, DWORD PTR _no$[ebp], 268
  00051	89 8a 2c 00 00
	00		 mov	 DWORD PTR ?charObj@@3PAUCHAROBJ@@A[edx+44], ecx
$LN1@delCharLea:

; 733  : }

  00057	5f		 pop	 edi
  00058	5e		 pop	 esi
  00059	5b		 pop	 ebx
  0005a	8b e5		 mov	 esp, ebp
  0005c	5d		 pop	 ebp
  0005d	c3		 ret	 0
?delCharLeader@@YAXPAUaction@@@Z ENDP			; delCharLeader
_TEXT	ENDS
; Function compile flags: /Odtp /RTCsu /ZI
; File c:\users\administrator\desktop\????? ??\????? ??\client source code\system\character.cpp
;	COMDAT ?setCharLeader@@YAXPAUaction@@@Z
_TEXT	SEGMENT
_no$ = -20						; size = 4
_ext$ = -8						; size = 4
_ptAct$ = 8						; size = 4
?setCharLeader@@YAXPAUaction@@@Z PROC			; setCharLeader, COMDAT

; 713  : {

  00000	55		 push	 ebp
  00001	8b ec		 mov	 ebp, esp
  00003	81 ec d8 00 00
	00		 sub	 esp, 216		; 000000d8H
  00009	53		 push	 ebx
  0000a	56		 push	 esi
  0000b	57		 push	 edi
  0000c	8d bd 28 ff ff
	ff		 lea	 edi, DWORD PTR [ebp-216]
  00012	b9 36 00 00 00	 mov	 ecx, 54			; 00000036H
  00017	b8 cc cc cc cc	 mov	 eax, -858993460		; ccccccccH
  0001c	f3 ab		 rep stosd

; 714  : 	CHAREXTRA *ext;
; 715  : 	int no;
; 716  : 	if( ptAct == NULL )

  0001e	83 7d 08 00	 cmp	 DWORD PTR _ptAct$[ebp], 0
  00022	75 02		 jne	 SHORT $LN2@setCharLea

; 717  : 		return;

  00024	eb 31		 jmp	 SHORT $LN1@setCharLea
$LN2@setCharLea:

; 718  : 	ext = (CHAREXTRA *)ptAct->pYobi;

  00026	8b 45 08	 mov	 eax, DWORD PTR _ptAct$[ebp]
  00029	8b 48 0c	 mov	 ecx, DWORD PTR [eax+12]
  0002c	89 4d f8	 mov	 DWORD PTR _ext$[ebp], ecx

; 719  : 	no = ext->charObjTblId;

  0002f	8b 45 f8	 mov	 eax, DWORD PTR _ext$[ebp]
  00032	8b 08		 mov	 ecx, DWORD PTR [eax]
  00034	89 4d ec	 mov	 DWORD PTR _no$[ebp], ecx

; 720  : 	charObj[no].status |= CHR_STATUS_LEADER;

  00037	69 45 ec 0c 01
	00 00		 imul	 eax, DWORD PTR _no$[ebp], 268
  0003e	8b 88 2c 00 00
	00		 mov	 ecx, DWORD PTR ?charObj@@3PAUCHAROBJ@@A[eax+44]
  00044	81 c9 00 01 00
	00		 or	 ecx, 256		; 00000100H
  0004a	69 55 ec 0c 01
	00 00		 imul	 edx, DWORD PTR _no$[ebp], 268
  00051	89 8a 2c 00 00
	00		 mov	 DWORD PTR ?charObj@@3PAUCHAROBJ@@A[edx+44], ecx
$LN1@setCharLea:

; 721  : }

  00057	5f		 pop	 edi
  00058	5e		 pop	 esi
  00059	5b		 pop	 ebx
  0005a	8b e5		 mov	 esp, ebp
  0005c	5d		 pop	 ebp
  0005d	c3		 ret	 0
?setCharLeader@@YAXPAUaction@@@Z ENDP			; setCharLeader
_TEXT	ENDS
; Function compile flags: /Odtp /RTCsu /ZI
; File c:\users\administrator\desktop\????? ??\????? ??\client source code\system\character.cpp
;	COMDAT ?changeCharAct@@YAXPAUaction@@HHHHHHH@Z
_TEXT	SEGMENT
tv193 = -256						; size = 4
tv184 = -252						; size = 4
tv195 = -248						; size = 4
tv173 = -244						; size = 4
tv164 = -240						; size = 4
tv153 = -236						; size = 4
tv144 = -232						; size = 4
tv68 = -232						; size = 4
_i$ = -32						; size = 4
_no$ = -20						; size = 4
_ext$ = -8						; size = 4
_ptAct$ = 8						; size = 4
_x$ = 12						; size = 4
_y$ = 16						; size = 4
_dir$ = 20						; size = 4
_action$ = 24						; size = 4
_effectno$ = 28						; size = 4
_effectparam1$ = 32					; size = 4
_effectparam2$ = 36					; size = 4
?changeCharAct@@YAXPAUaction@@HHHHHHH@Z PROC		; changeCharAct, COMDAT

; 1671 : {

  00000	55		 push	 ebp
  00001	8b ec		 mov	 ebp, esp
  00003	81 ec 00 01 00
	00		 sub	 esp, 256		; 00000100H
  00009	53		 push	 ebx
  0000a	56		 push	 esi
  0000b	57		 push	 edi
  0000c	8d bd 00 ff ff
	ff		 lea	 edi, DWORD PTR [ebp-256]
  00012	b9 40 00 00 00	 mov	 ecx, 64			; 00000040H
  00017	b8 cc cc cc cc	 mov	 eax, -858993460		; ccccccccH
  0001c	f3 ab		 rep stosd

; 1672 : 	CHAREXTRA *ext;
; 1673 : 	int no;
; 1674 : 	int i;
; 1675 : 	if( ptAct == NULL )

  0001e	83 7d 08 00	 cmp	 DWORD PTR _ptAct$[ebp], 0
  00022	75 05		 jne	 SHORT $LN7@changeChar

; 1676 : 		return;

  00024	e9 06 0b 00 00	 jmp	 $LN1@changeChar
$LN7@changeChar:

; 1677 : 	ext = (CHAREXTRA *)ptAct->pYobi;

  00029	8b 45 08	 mov	 eax, DWORD PTR _ptAct$[ebp]
  0002c	8b 48 0c	 mov	 ecx, DWORD PTR [eax+12]
  0002f	89 4d f8	 mov	 DWORD PTR _ext$[ebp], ecx

; 1678 : 	if ((int)ext == 0xdddddddd)

  00032	81 7d f8 dd dd
	dd dd		 cmp	 DWORD PTR _ext$[ebp], -572662307 ; ddddddddH
  00039	75 05		 jne	 SHORT $LN8@changeChar

; 1679 : 	{
; 1680 : 		return;

  0003b	e9 ef 0a 00 00	 jmp	 $LN1@changeChar
$LN8@changeChar:

; 1681 : 	}
; 1682 : 	no = ext->charObjTblId;

  00040	8b 45 f8	 mov	 eax, DWORD PTR _ext$[ebp]
  00043	8b 08		 mov	 ecx, DWORD PTR [eax]
  00045	89 4d ec	 mov	 DWORD PTR _no$[ebp], ecx

; 1683 : 	switch( action ){

  00048	8b 45 18	 mov	 eax, DWORD PTR _action$[ebp]
  0004b	89 85 18 ff ff
	ff		 mov	 DWORD PTR tv68[ebp], eax
  00051	83 bd 18 ff ff
	ff 33		 cmp	 DWORD PTR tv68[ebp], 51	; 00000033H
  00058	0f 87 d1 0a 00
	00		 ja	 $LN1@changeChar
  0005e	8b 8d 18 ff ff
	ff		 mov	 ecx, DWORD PTR tv68[ebp]
  00064	0f b6 91 00 00
	00 00		 movzx	 edx, BYTE PTR $LN94@changeChar[ecx]
  0006b	ff 24 95 00 00
	00 00		 jmp	 DWORD PTR $LN95@changeChar[edx*4]
$LN9@changeChar:

; 1684 : 		case 0:
; 1685 : 			ptAct->bufCount = 0;

  00072	33 c0		 xor	 eax, eax
  00074	8b 4d 08	 mov	 ecx, DWORD PTR _ptAct$[ebp]
  00077	66 89 81 14 01
	00 00		 mov	 WORD PTR [ecx+276], ax

; 1686 : 			ptAct->anim_no = ANIM_STAND;

  0007e	8b 45 08	 mov	 eax, DWORD PTR _ptAct$[ebp]
  00081	c7 80 4c 01 00
	00 03 00 00 00	 mov	 DWORD PTR [eax+332], 3

; 1687 : 			ptAct->anim_no_bak = -1;

  0008b	8b 45 08	 mov	 eax, DWORD PTR _ptAct$[ebp]
  0008e	c7 80 50 01 00
	00 ff ff ff ff	 mov	 DWORD PTR [eax+336], -1

; 1688 : 			ptAct->anim_ang = dir;

  00098	8b 45 08	 mov	 eax, DWORD PTR _ptAct$[ebp]
  0009b	8b 4d 14	 mov	 ecx, DWORD PTR _dir$[ebp]
  0009e	89 88 54 01 00
	00		 mov	 DWORD PTR [eax+340], ecx

; 1689 : 			break;

  000a4	e9 86 0a 00 00	 jmp	 $LN1@changeChar
$LN10@changeChar:

; 1690 : #ifdef _SHOWFAMILYBADGE_
; 1691 : 		case 43:
; 1692 : 			if (effectno >= 0) {
; 1693 : 				if (pc.familyName[0])
; 1694 : 					setCharFamily(ptAct, effectno);
; 1695 : 			}
; 1696 : 			else
; 1697 : 				delCharFamily(ptAct);
; 1698 : 			break;
; 1699 : #endif
; 1700 : #ifdef FAMILY_MANOR_
; 1701 : 		case 44:
; 1702 : 			if (effectno >= 0) {
; 1703 : 				if (pc.familyName[0])
; 1704 : 					setCharmFamily(ptAct, effectno);
; 1705 : 			}
; 1706 : 			else
; 1707 : 				delCharmFamily(ptAct);
; 1708 : 			break;
; 1709 : #endif
; 1710 : #ifdef 人物称号
; 1711 : 		case 45:
; 1712 : 			if (effectno >= 0) {

  000a9	83 7d 1c 00	 cmp	 DWORD PTR _effectno$[ebp], 0
  000ad	7c 12		 jl	 SHORT $LN11@changeChar

; 1713 : 				setCharmTitle(ptAct, effectno);

  000af	8b 45 1c	 mov	 eax, DWORD PTR _effectno$[ebp]
  000b2	50		 push	 eax
  000b3	8b 4d 08	 mov	 ecx, DWORD PTR _ptAct$[ebp]
  000b6	51		 push	 ecx
  000b7	e8 00 00 00 00	 call	 ?setCharmTitle@@YAXPAUaction@@H@Z ; setCharmTitle
  000bc	83 c4 08	 add	 esp, 8

; 1714 : 			}
; 1715 : 			else

  000bf	eb 0c		 jmp	 SHORT $LN12@changeChar
$LN11@changeChar:

; 1716 : 				delCharmTitle(ptAct);

  000c1	8b 45 08	 mov	 eax, DWORD PTR _ptAct$[ebp]
  000c4	50		 push	 eax
  000c5	e8 00 00 00 00	 call	 ?delCharmTitle@@YAXPAUaction@@@Z ; delCharmTitle
  000ca	83 c4 04	 add	 esp, 4
$LN12@changeChar:

; 1717 : 			break;

  000cd	e9 5d 0a 00 00	 jmp	 $LN1@changeChar
$LN13@changeChar:

; 1718 : #endif
; 1719 : #ifdef 人物光环
; 1720 : 		case 46:
; 1721 : 			if (effectno >= 0) {

  000d2	83 7d 1c 00	 cmp	 DWORD PTR _effectno$[ebp], 0
  000d6	7c 12		 jl	 SHORT $LN14@changeChar

; 1722 : 				setCharmManor(ptAct, effectno);

  000d8	8b 45 1c	 mov	 eax, DWORD PTR _effectno$[ebp]
  000db	50		 push	 eax
  000dc	8b 4d 08	 mov	 ecx, DWORD PTR _ptAct$[ebp]
  000df	51		 push	 ecx
  000e0	e8 00 00 00 00	 call	 ?setCharmManor@@YAXPAUaction@@H@Z ; setCharmManor
  000e5	83 c4 08	 add	 esp, 8

; 1723 : 			}
; 1724 : 			else

  000e8	eb 0c		 jmp	 SHORT $LN15@changeChar
$LN14@changeChar:

; 1725 : 				delCharmManor(ptAct);

  000ea	8b 45 08	 mov	 eax, DWORD PTR _ptAct$[ebp]
  000ed	50		 push	 eax
  000ee	e8 00 00 00 00	 call	 ?delCharmManor@@YAXPAUaction@@@Z ; delCharmManor
  000f3	83 c4 04	 add	 esp, 4
$LN15@changeChar:

; 1726 : 			break;

  000f6	e9 34 0a 00 00	 jmp	 $LN1@changeChar
$LN16@changeChar:

; 1727 : #endif
; 1728 : 
; 1729 : 		case 31:
; 1730 : 			setCharWarpPoint( ptAct, x, y );

  000fb	8b 45 10	 mov	 eax, DWORD PTR _y$[ebp]
  000fe	50		 push	 eax
  000ff	8b 4d 0c	 mov	 ecx, DWORD PTR _x$[ebp]
  00102	51		 push	 ecx
  00103	8b 55 08	 mov	 edx, DWORD PTR _ptAct$[ebp]
  00106	52		 push	 edx
  00107	e8 00 00 00 00	 call	 ?setCharWarpPoint@@YAXPAUaction@@HH@Z ; setCharWarpPoint
  0010c	83 c4 0c	 add	 esp, 12			; 0000000cH

; 1731 : 			ptAct->bufCount = 0;

  0010f	33 c0		 xor	 eax, eax
  00111	8b 4d 08	 mov	 ecx, DWORD PTR _ptAct$[ebp]
  00114	66 89 81 14 01
	00 00		 mov	 WORD PTR [ecx+276], ax

; 1732 : 			ptAct->anim_no = ANIM_STAND;

  0011b	8b 45 08	 mov	 eax, DWORD PTR _ptAct$[ebp]
  0011e	c7 80 4c 01 00
	00 03 00 00 00	 mov	 DWORD PTR [eax+332], 3

; 1733 : 			ptAct->anim_no_bak = -1;

  00128	8b 45 08	 mov	 eax, DWORD PTR _ptAct$[ebp]
  0012b	c7 80 50 01 00
	00 ff ff ff ff	 mov	 DWORD PTR [eax+336], -1

; 1734 : 			ptAct->anim_ang = dir;

  00135	8b 45 08	 mov	 eax, DWORD PTR _ptAct$[ebp]
  00138	8b 4d 14	 mov	 ecx, DWORD PTR _dir$[ebp]
  0013b	89 88 54 01 00
	00		 mov	 DWORD PTR [eax+340], ecx

; 1735 : 			charObj[no].stockDir = -1;

  00141	69 45 ec 0c 01
	00 00		 imul	 eax, DWORD PTR _no$[ebp], 268
  00148	c7 80 1c 00 00
	00 ff ff ff ff	 mov	 DWORD PTR ?charObj@@3PAUCHAROBJ@@A[eax+28], -1

; 1736 : 			break;

  00152	e9 d8 09 00 00	 jmp	 $LN1@changeChar
$LN17@changeChar:

; 1737 : 		case 30:
; 1738 : 			charObj[no].stockDir = dir;

  00157	69 45 ec 0c 01
	00 00		 imul	 eax, DWORD PTR _no$[ebp], 268
  0015e	8b 4d 14	 mov	 ecx, DWORD PTR _dir$[ebp]
  00161	89 88 1c 00 00
	00		 mov	 DWORD PTR ?charObj@@3PAUCHAROBJ@@A[eax+28], ecx

; 1739 : 			charObj[no].stockDirX = x;

  00167	69 45 ec 0c 01
	00 00		 imul	 eax, DWORD PTR _no$[ebp], 268
  0016e	8b 4d 0c	 mov	 ecx, DWORD PTR _x$[ebp]
  00171	89 88 20 00 00
	00		 mov	 DWORD PTR ?charObj@@3PAUCHAROBJ@@A[eax+32], ecx

; 1740 : 			charObj[no].stockDirY = y;

  00177	69 45 ec 0c 01
	00 00		 imul	 eax, DWORD PTR _no$[ebp], 268
  0017e	8b 4d 10	 mov	 ecx, DWORD PTR _y$[ebp]
  00181	89 88 24 00 00
	00		 mov	 DWORD PTR ?charObj@@3PAUCHAROBJ@@A[eax+36], ecx

; 1741 : 			if( (x == ptAct->nextGx && y == ptAct->nextGy) || ABS( ABS( x - ptAct->nextGx ) - ABS( y - ptAct->nextGy ) ) > 1 )

  00187	8b 45 08	 mov	 eax, DWORD PTR _ptAct$[ebp]
  0018a	8b 4d 0c	 mov	 ecx, DWORD PTR _x$[ebp]
  0018d	3b 88 bc 00 00
	00		 cmp	 ecx, DWORD PTR [eax+188]
  00193	75 12		 jne	 SHORT $LN20@changeChar
  00195	8b 45 08	 mov	 eax, DWORD PTR _ptAct$[ebp]
  00198	8b 4d 10	 mov	 ecx, DWORD PTR _y$[ebp]
  0019b	3b 88 c0 00 00
	00		 cmp	 ecx, DWORD PTR [eax+192]
  001a1	0f 84 87 01 00
	00		 je	 $LN19@changeChar
$LN20@changeChar:
  001a7	8b 45 08	 mov	 eax, DWORD PTR _ptAct$[ebp]
  001aa	8b 4d 0c	 mov	 ecx, DWORD PTR _x$[ebp]
  001ad	2b 88 bc 00 00
	00		 sub	 ecx, DWORD PTR [eax+188]
  001b3	79 16		 jns	 SHORT $LN80@changeChar
  001b5	8b 55 08	 mov	 edx, DWORD PTR _ptAct$[ebp]
  001b8	8b 45 0c	 mov	 eax, DWORD PTR _x$[ebp]
  001bb	2b 82 bc 00 00
	00		 sub	 eax, DWORD PTR [edx+188]
  001c1	f7 d8		 neg	 eax
  001c3	89 85 18 ff ff
	ff		 mov	 DWORD PTR tv144[ebp], eax
  001c9	eb 12		 jmp	 SHORT $LN81@changeChar
$LN80@changeChar:
  001cb	8b 4d 08	 mov	 ecx, DWORD PTR _ptAct$[ebp]
  001ce	8b 55 0c	 mov	 edx, DWORD PTR _x$[ebp]
  001d1	2b 91 bc 00 00
	00		 sub	 edx, DWORD PTR [ecx+188]
  001d7	89 95 18 ff ff
	ff		 mov	 DWORD PTR tv144[ebp], edx
$LN81@changeChar:
  001dd	8b 45 08	 mov	 eax, DWORD PTR _ptAct$[ebp]
  001e0	8b 4d 10	 mov	 ecx, DWORD PTR _y$[ebp]
  001e3	2b 88 c0 00 00
	00		 sub	 ecx, DWORD PTR [eax+192]
  001e9	79 16		 jns	 SHORT $LN82@changeChar
  001eb	8b 55 08	 mov	 edx, DWORD PTR _ptAct$[ebp]
  001ee	8b 45 10	 mov	 eax, DWORD PTR _y$[ebp]
  001f1	2b 82 c0 00 00
	00		 sub	 eax, DWORD PTR [edx+192]
  001f7	f7 d8		 neg	 eax
  001f9	89 85 14 ff ff
	ff		 mov	 DWORD PTR tv153[ebp], eax
  001ff	eb 12		 jmp	 SHORT $LN83@changeChar
$LN82@changeChar:
  00201	8b 4d 08	 mov	 ecx, DWORD PTR _ptAct$[ebp]
  00204	8b 55 10	 mov	 edx, DWORD PTR _y$[ebp]
  00207	2b 91 c0 00 00
	00		 sub	 edx, DWORD PTR [ecx+192]
  0020d	89 95 14 ff ff
	ff		 mov	 DWORD PTR tv153[ebp], edx
$LN83@changeChar:
  00213	8b 85 18 ff ff
	ff		 mov	 eax, DWORD PTR tv144[ebp]
  00219	2b 85 14 ff ff
	ff		 sub	 eax, DWORD PTR tv153[ebp]
  0021f	0f 89 82 00 00
	00		 jns	 $LN92@changeChar
  00225	8b 4d 08	 mov	 ecx, DWORD PTR _ptAct$[ebp]
  00228	8b 55 0c	 mov	 edx, DWORD PTR _x$[ebp]
  0022b	2b 91 bc 00 00
	00		 sub	 edx, DWORD PTR [ecx+188]
  00231	79 16		 jns	 SHORT $LN84@changeChar
  00233	8b 45 08	 mov	 eax, DWORD PTR _ptAct$[ebp]
  00236	8b 4d 0c	 mov	 ecx, DWORD PTR _x$[ebp]
  00239	2b 88 bc 00 00
	00		 sub	 ecx, DWORD PTR [eax+188]
  0023f	f7 d9		 neg	 ecx
  00241	89 8d 10 ff ff
	ff		 mov	 DWORD PTR tv164[ebp], ecx
  00247	eb 12		 jmp	 SHORT $LN85@changeChar
$LN84@changeChar:
  00249	8b 55 08	 mov	 edx, DWORD PTR _ptAct$[ebp]
  0024c	8b 45 0c	 mov	 eax, DWORD PTR _x$[ebp]
  0024f	2b 82 bc 00 00
	00		 sub	 eax, DWORD PTR [edx+188]
  00255	89 85 10 ff ff
	ff		 mov	 DWORD PTR tv164[ebp], eax
$LN85@changeChar:
  0025b	8b 4d 08	 mov	 ecx, DWORD PTR _ptAct$[ebp]
  0025e	8b 55 10	 mov	 edx, DWORD PTR _y$[ebp]
  00261	2b 91 c0 00 00
	00		 sub	 edx, DWORD PTR [ecx+192]
  00267	79 16		 jns	 SHORT $LN86@changeChar
  00269	8b 45 08	 mov	 eax, DWORD PTR _ptAct$[ebp]
  0026c	8b 4d 10	 mov	 ecx, DWORD PTR _y$[ebp]
  0026f	2b 88 c0 00 00
	00		 sub	 ecx, DWORD PTR [eax+192]
  00275	f7 d9		 neg	 ecx
  00277	89 8d 0c ff ff
	ff		 mov	 DWORD PTR tv173[ebp], ecx
  0027d	eb 12		 jmp	 SHORT $LN87@changeChar
$LN86@changeChar:
  0027f	8b 55 08	 mov	 edx, DWORD PTR _ptAct$[ebp]
  00282	8b 45 10	 mov	 eax, DWORD PTR _y$[ebp]
  00285	2b 82 c0 00 00
	00		 sub	 eax, DWORD PTR [edx+192]
  0028b	89 85 0c ff ff
	ff		 mov	 DWORD PTR tv173[ebp], eax
$LN87@changeChar:
  00291	8b 8d 10 ff ff
	ff		 mov	 ecx, DWORD PTR tv164[ebp]
  00297	2b 8d 0c ff ff
	ff		 sub	 ecx, DWORD PTR tv173[ebp]
  0029d	f7 d9		 neg	 ecx
  0029f	89 8d 08 ff ff
	ff		 mov	 DWORD PTR tv195[ebp], ecx
  002a5	eb 7e		 jmp	 SHORT $LN93@changeChar
$LN92@changeChar:
  002a7	8b 55 08	 mov	 edx, DWORD PTR _ptAct$[ebp]
  002aa	8b 45 0c	 mov	 eax, DWORD PTR _x$[ebp]
  002ad	2b 82 bc 00 00
	00		 sub	 eax, DWORD PTR [edx+188]
  002b3	79 16		 jns	 SHORT $LN88@changeChar
  002b5	8b 4d 08	 mov	 ecx, DWORD PTR _ptAct$[ebp]
  002b8	8b 55 0c	 mov	 edx, DWORD PTR _x$[ebp]
  002bb	2b 91 bc 00 00
	00		 sub	 edx, DWORD PTR [ecx+188]
  002c1	f7 da		 neg	 edx
  002c3	89 95 04 ff ff
	ff		 mov	 DWORD PTR tv184[ebp], edx
  002c9	eb 12		 jmp	 SHORT $LN89@changeChar
$LN88@changeChar:
  002cb	8b 45 08	 mov	 eax, DWORD PTR _ptAct$[ebp]
  002ce	8b 4d 0c	 mov	 ecx, DWORD PTR _x$[ebp]
  002d1	2b 88 bc 00 00
	00		 sub	 ecx, DWORD PTR [eax+188]
  002d7	89 8d 04 ff ff
	ff		 mov	 DWORD PTR tv184[ebp], ecx
$LN89@changeChar:
  002dd	8b 55 08	 mov	 edx, DWORD PTR _ptAct$[ebp]
  002e0	8b 45 10	 mov	 eax, DWORD PTR _y$[ebp]
  002e3	2b 82 c0 00 00
	00		 sub	 eax, DWORD PTR [edx+192]
  002e9	79 16		 jns	 SHORT $LN90@changeChar
  002eb	8b 4d 08	 mov	 ecx, DWORD PTR _ptAct$[ebp]
  002ee	8b 55 10	 mov	 edx, DWORD PTR _y$[ebp]
  002f1	2b 91 c0 00 00
	00		 sub	 edx, DWORD PTR [ecx+192]
  002f7	f7 da		 neg	 edx
  002f9	89 95 00 ff ff
	ff		 mov	 DWORD PTR tv193[ebp], edx
  002ff	eb 12		 jmp	 SHORT $LN91@changeChar
$LN90@changeChar:
  00301	8b 45 08	 mov	 eax, DWORD PTR _ptAct$[ebp]
  00304	8b 4d 10	 mov	 ecx, DWORD PTR _y$[ebp]
  00307	2b 88 c0 00 00
	00		 sub	 ecx, DWORD PTR [eax+192]
  0030d	89 8d 00 ff ff
	ff		 mov	 DWORD PTR tv193[ebp], ecx
$LN91@changeChar:
  00313	8b 95 04 ff ff
	ff		 mov	 edx, DWORD PTR tv184[ebp]
  00319	2b 95 00 ff ff
	ff		 sub	 edx, DWORD PTR tv193[ebp]
  0031f	89 95 08 ff ff
	ff		 mov	 DWORD PTR tv195[ebp], edx
$LN93@changeChar:
  00325	83 bd 08 ff ff
	ff 01		 cmp	 DWORD PTR tv195[ebp], 1
  0032c	7e 05		 jle	 SHORT $LN21@changeChar
$LN19@changeChar:

; 1742 : 				break;

  0032e	e9 fc 07 00 00	 jmp	 $LN1@changeChar
$LN21@changeChar:

; 1743 : 		case 1:
; 1744 : 			if( (charObj[no].status & CHR_STATUS_PARTY) != 0 && (charObj[no].status & CHR_STATUS_LEADER) != 0 ){

  00333	69 45 ec 0c 01
	00 00		 imul	 eax, DWORD PTR _no$[ebp], 268
  0033a	8b 88 2c 00 00
	00		 mov	 ecx, DWORD PTR ?charObj@@3PAUCHAROBJ@@A[eax+44]
  00340	81 e1 00 02 00
	00		 and	 ecx, 512		; 00000200H
  00346	0f 84 0f 01 00
	00		 je	 $LN22@changeChar
  0034c	69 45 ec 0c 01
	00 00		 imul	 eax, DWORD PTR _no$[ebp], 268
  00353	8b 88 2c 00 00
	00		 mov	 ecx, DWORD PTR ?charObj@@3PAUCHAROBJ@@A[eax+44]
  00359	81 e1 00 01 00
	00		 and	 ecx, 256		; 00000100H
  0035f	0f 84 f6 00 00
	00		 je	 $LN22@changeChar

; 1745 : 				if( ptAct->bufCount < sizeof( ptAct->bufGx )/sizeof( int ) )

  00365	8b 45 08	 mov	 eax, DWORD PTR _ptAct$[ebp]
  00368	0f bf 88 14 01
	00 00		 movsx	 ecx, WORD PTR [eax+276]
  0036f	83 f9 0a	 cmp	 ecx, 10			; 0000000aH
  00372	73 19		 jae	 SHORT $LN24@changeChar

; 1746 : 					correctCharMovePoint( ptAct, x, y );

  00374	8b 45 10	 mov	 eax, DWORD PTR _y$[ebp]
  00377	50		 push	 eax
  00378	8b 4d 0c	 mov	 ecx, DWORD PTR _x$[ebp]
  0037b	51		 push	 ecx
  0037c	8b 55 08	 mov	 edx, DWORD PTR _ptAct$[ebp]
  0037f	52		 push	 edx
  00380	e8 00 00 00 00	 call	 ?correctCharMovePoint@@YAXPAUaction@@HH@Z ; correctCharMovePoint
  00385	83 c4 0c	 add	 esp, 12			; 0000000cH

; 1747 : 				else{

  00388	e9 cc 00 00 00	 jmp	 $LN25@changeChar
$LN24@changeChar:

; 1748 : 					stockCharMovePoint( ptAct, x, y );

  0038d	8b 45 10	 mov	 eax, DWORD PTR _y$[ebp]
  00390	50		 push	 eax
  00391	8b 4d 0c	 mov	 ecx, DWORD PTR _x$[ebp]
  00394	51		 push	 ecx
  00395	8b 55 08	 mov	 edx, DWORD PTR _ptAct$[ebp]
  00398	52		 push	 edx
  00399	e8 00 00 00 00	 call	 ?stockCharMovePoint@@YAXPAUaction@@HH@Z ; stockCharMovePoint
  0039e	83 c4 0c	 add	 esp, 12			; 0000000cH

; 1749 : 					charObj[no].stockDir = -1;

  003a1	69 45 ec 0c 01
	00 00		 imul	 eax, DWORD PTR _no$[ebp], 268
  003a8	c7 80 1c 00 00
	00 ff ff ff ff	 mov	 DWORD PTR ?charObj@@3PAUCHAROBJ@@A[eax+28], -1

; 1750 : 					for( i = 1; i < MAX_PARTY; i++ ){

  003b2	c7 45 e0 01 00
	00 00		 mov	 DWORD PTR _i$[ebp], 1
  003b9	eb 09		 jmp	 SHORT $LN6@changeChar
$LN4@changeChar:
  003bb	8b 45 e0	 mov	 eax, DWORD PTR _i$[ebp]
  003be	83 c0 01	 add	 eax, 1
  003c1	89 45 e0	 mov	 DWORD PTR _i$[ebp], eax
$LN6@changeChar:
  003c4	83 7d e0 05	 cmp	 DWORD PTR _i$[ebp], 5
  003c8	0f 8d 8b 00 00
	00		 jge	 $LN25@changeChar

; 1751 : 						if( party[i].useFlag != 0 ){

  003ce	6b 45 e0 30	 imul	 eax, DWORD PTR _i$[ebp], 48
  003d2	0f bf 88 00 00
	00 00		 movsx	 ecx, WORD PTR ?party@@3PAUPARTY@@A[eax]
  003d9	85 c9		 test	 ecx, ecx
  003db	74 77		 je	 SHORT $LN26@changeChar

; 1752 : 							if( party[i].id != pc.id ){

  003dd	6b 45 e0 30	 imul	 eax, DWORD PTR _i$[ebp], 48
  003e1	8b 88 04 00 00
	00		 mov	 ecx, DWORD PTR ?party@@3PAUPARTY@@A[eax+4]
  003e7	3b 0d 08 00 00
	00		 cmp	 ecx, DWORD PTR ?pc@@3UPC@@A+8
  003ed	74 3d		 je	 SHORT $LN27@changeChar

; 1753 : 								//JL fix 2018/08/28 点pk时这里崩端,加个ptAct不为0的验证
; 1754 : 								if (party[i].ptAct){

  003ef	6b 45 e0 30	 imul	 eax, DWORD PTR _i$[ebp], 48
  003f3	83 b8 2c 00 00
	00 00		 cmp	 DWORD PTR ?party@@3PAUPARTY@@A[eax+44], 0
  003fa	74 2e		 je	 SHORT $LN29@changeChar

; 1755 : 									party[i].ptAct->bufCount = 0;

  003fc	6b 45 e0 30	 imul	 eax, DWORD PTR _i$[ebp], 48
  00400	8b 88 2c 00 00
	00		 mov	 ecx, DWORD PTR ?party@@3PAUPARTY@@A[eax+44]
  00406	33 d2		 xor	 edx, edx
  00408	66 89 91 14 01
	00 00		 mov	 WORD PTR [ecx+276], dx

; 1756 : 									setCharWarpPoint(party[i].ptAct, x, y);

  0040f	8b 45 10	 mov	 eax, DWORD PTR _y$[ebp]
  00412	50		 push	 eax
  00413	8b 4d 0c	 mov	 ecx, DWORD PTR _x$[ebp]
  00416	51		 push	 ecx
  00417	6b 55 e0 30	 imul	 edx, DWORD PTR _i$[ebp], 48
  0041b	8b 82 2c 00 00
	00		 mov	 eax, DWORD PTR ?party@@3PAUPARTY@@A[edx+44]
  00421	50		 push	 eax
  00422	e8 00 00 00 00	 call	 ?setCharWarpPoint@@YAXPAUaction@@HH@Z ; setCharWarpPoint
  00427	83 c4 0c	 add	 esp, 12			; 0000000cH
$LN29@changeChar:

; 1757 : 								}
; 1758 : 							}else{

  0042a	eb 28		 jmp	 SHORT $LN26@changeChar
$LN27@changeChar:

; 1759 : 								if( pc.ptAct != NULL )

  0042c	83 3d ec 50 00
	00 00		 cmp	 DWORD PTR ?pc@@3UPC@@A+20716, 0
  00433	74 0f		 je	 SHORT $LN30@changeChar

; 1760 : 									pc.ptAct->bufCount = 0;

  00435	33 c0		 xor	 eax, eax
  00437	8b 0d ec 50 00
	00		 mov	 ecx, DWORD PTR ?pc@@3UPC@@A+20716
  0043d	66 89 81 14 01
	00 00		 mov	 WORD PTR [ecx+276], ax
$LN30@changeChar:

; 1761 : 								setPcWarpPoint( x, y );

  00444	8b 45 10	 mov	 eax, DWORD PTR _y$[ebp]
  00447	50		 push	 eax
  00448	8b 4d 0c	 mov	 ecx, DWORD PTR _x$[ebp]
  0044b	51		 push	 ecx
  0044c	e8 00 00 00 00	 call	 ?setPcWarpPoint@@YAXHH@Z ; setPcWarpPoint
  00451	83 c4 08	 add	 esp, 8
$LN26@changeChar:

; 1762 : 							}
; 1763 : 						}
; 1764 : 					}

  00454	e9 62 ff ff ff	 jmp	 $LN4@changeChar
$LN25@changeChar:

; 1765 : 				}
; 1766 : 			}else

  00459	eb 14		 jmp	 SHORT $LN23@changeChar
$LN22@changeChar:

; 1767 : 				stockCharMovePoint( ptAct, x, y );

  0045b	8b 45 10	 mov	 eax, DWORD PTR _y$[ebp]
  0045e	50		 push	 eax
  0045f	8b 4d 0c	 mov	 ecx, DWORD PTR _x$[ebp]
  00462	51		 push	 ecx
  00463	8b 55 08	 mov	 edx, DWORD PTR _ptAct$[ebp]
  00466	52		 push	 edx
  00467	e8 00 00 00 00	 call	 ?stockCharMovePoint@@YAXPAUaction@@HH@Z ; stockCharMovePoint
  0046c	83 c4 0c	 add	 esp, 12			; 0000000cH
$LN23@changeChar:

; 1768 : 			ptAct->anim_no = ANIM_WALK;

  0046f	8b 45 08	 mov	 eax, DWORD PTR _ptAct$[ebp]
  00472	c7 80 4c 01 00
	00 04 00 00 00	 mov	 DWORD PTR [eax+332], 4

; 1769 : 			break;

  0047c	e9 ae 06 00 00	 jmp	 $LN1@changeChar
$LN31@changeChar:

; 1770 : 		case 2:
; 1771 : 			ptAct->anim_no = ANIM_ATTACK;

  00481	8b 45 08	 mov	 eax, DWORD PTR _ptAct$[ebp]
  00484	c7 80 4c 01 00
	00 00 00 00 00	 mov	 DWORD PTR [eax+332], 0

; 1772 : 			ptAct->anim_no_bak = -1;

  0048e	8b 45 08	 mov	 eax, DWORD PTR _ptAct$[ebp]
  00491	c7 80 50 01 00
	00 ff ff ff ff	 mov	 DWORD PTR [eax+336], -1

; 1773 : 			ptAct->anim_ang = dir;

  0049b	8b 45 08	 mov	 eax, DWORD PTR _ptAct$[ebp]
  0049e	8b 4d 14	 mov	 ecx, DWORD PTR _dir$[ebp]
  004a1	89 88 54 01 00
	00		 mov	 DWORD PTR [eax+340], ecx

; 1774 : 			break;

  004a7	e9 83 06 00 00	 jmp	 $LN1@changeChar
$LN32@changeChar:

; 1775 : 		case 3:
; 1776 : 			ptAct->anim_no = ANIM_THROW;

  004ac	8b 45 08	 mov	 eax, DWORD PTR _ptAct$[ebp]
  004af	c7 80 4c 01 00
	00 0c 00 00 00	 mov	 DWORD PTR [eax+332], 12	; 0000000cH

; 1777 : 			ptAct->anim_no_bak = -1;

  004b9	8b 45 08	 mov	 eax, DWORD PTR _ptAct$[ebp]
  004bc	c7 80 50 01 00
	00 ff ff ff ff	 mov	 DWORD PTR [eax+336], -1

; 1778 : 			ptAct->anim_ang = dir;

  004c6	8b 45 08	 mov	 eax, DWORD PTR _ptAct$[ebp]
  004c9	8b 4d 14	 mov	 ecx, DWORD PTR _dir$[ebp]
  004cc	89 88 54 01 00
	00		 mov	 DWORD PTR [eax+340], ecx

; 1779 : 			break;

  004d2	e9 58 06 00 00	 jmp	 $LN1@changeChar
$LN33@changeChar:

; 1780 : 		case 4:
; 1781 : 			ptAct->anim_no = ANIM_DAMAGE;

  004d7	8b 45 08	 mov	 eax, DWORD PTR _ptAct$[ebp]
  004da	c7 80 4c 01 00
	00 01 00 00 00	 mov	 DWORD PTR [eax+332], 1

; 1782 : 			ptAct->anim_no_bak = -1;

  004e4	8b 45 08	 mov	 eax, DWORD PTR _ptAct$[ebp]
  004e7	c7 80 50 01 00
	00 ff ff ff ff	 mov	 DWORD PTR [eax+336], -1

; 1783 : 			ptAct->anim_ang = dir;

  004f1	8b 45 08	 mov	 eax, DWORD PTR _ptAct$[ebp]
  004f4	8b 4d 14	 mov	 ecx, DWORD PTR _dir$[ebp]
  004f7	89 88 54 01 00
	00		 mov	 DWORD PTR [eax+340], ecx

; 1784 : 			break;

  004fd	e9 2d 06 00 00	 jmp	 $LN1@changeChar
$LN34@changeChar:

; 1785 : 		case 5:
; 1786 : 			ptAct->anim_no = ANIM_DEAD;

  00502	8b 45 08	 mov	 eax, DWORD PTR _ptAct$[ebp]
  00505	c7 80 4c 01 00
	00 02 00 00 00	 mov	 DWORD PTR [eax+332], 2

; 1787 : 			ptAct->anim_no_bak = -1;

  0050f	8b 45 08	 mov	 eax, DWORD PTR _ptAct$[ebp]
  00512	c7 80 50 01 00
	00 ff ff ff ff	 mov	 DWORD PTR [eax+336], -1

; 1788 : 			ptAct->anim_ang = dir;

  0051c	8b 45 08	 mov	 eax, DWORD PTR _ptAct$[ebp]
  0051f	8b 4d 14	 mov	 ecx, DWORD PTR _dir$[ebp]
  00522	89 88 54 01 00
	00		 mov	 DWORD PTR [eax+340], ecx

; 1789 : 			break;

  00528	e9 02 06 00 00	 jmp	 $LN1@changeChar

; 1790 : 		case 6:
; 1791 : 			break;

  0052d	e9 fd 05 00 00	 jmp	 $LN1@changeChar

; 1792 : 		case 7:
; 1793 : 			break;

  00532	e9 f8 05 00 00	 jmp	 $LN1@changeChar

; 1794 : 		case 8:		/* UsedMagic */
; 1795 : 			break;

  00537	e9 f3 05 00 00	 jmp	 $LN1@changeChar
$LN38@changeChar:

; 1796 : 		case 10:
; 1797 : 			ptAct->anim_no = ANIM_DEAD;

  0053c	8b 45 08	 mov	 eax, DWORD PTR _ptAct$[ebp]
  0053f	c7 80 4c 01 00
	00 02 00 00 00	 mov	 DWORD PTR [eax+332], 2

; 1798 : 			ptAct->anim_no_bak = -1;

  00549	8b 45 08	 mov	 eax, DWORD PTR _ptAct$[ebp]
  0054c	c7 80 50 01 00
	00 ff ff ff ff	 mov	 DWORD PTR [eax+336], -1

; 1799 : 			ptAct->anim_ang = dir;

  00556	8b 45 08	 mov	 eax, DWORD PTR _ptAct$[ebp]
  00559	8b 4d 14	 mov	 ecx, DWORD PTR _dir$[ebp]
  0055c	89 88 54 01 00
	00		 mov	 DWORD PTR [eax+340], ecx

; 1800 : 			break;

  00562	e9 c8 05 00 00	 jmp	 $LN1@changeChar
$LN39@changeChar:

; 1801 : 		case 11:
; 1802 : 			ptAct->anim_no = ANIM_SIT;

  00567	8b 45 08	 mov	 eax, DWORD PTR _ptAct$[ebp]
  0056a	c7 80 4c 01 00
	00 05 00 00 00	 mov	 DWORD PTR [eax+332], 5

; 1803 : 			ptAct->anim_no_bak = -1;

  00574	8b 45 08	 mov	 eax, DWORD PTR _ptAct$[ebp]
  00577	c7 80 50 01 00
	00 ff ff ff ff	 mov	 DWORD PTR [eax+336], -1

; 1804 : 			ptAct->anim_ang = dir;

  00581	8b 45 08	 mov	 eax, DWORD PTR _ptAct$[ebp]
  00584	8b 4d 14	 mov	 ecx, DWORD PTR _dir$[ebp]
  00587	89 88 54 01 00
	00		 mov	 DWORD PTR [eax+340], ecx

; 1805 : 			break;

  0058d	e9 9d 05 00 00	 jmp	 $LN1@changeChar
$LN40@changeChar:

; 1806 : 		case 12:
; 1807 : 			ptAct->anim_no = ANIM_HAND;

  00592	8b 45 08	 mov	 eax, DWORD PTR _ptAct$[ebp]
  00595	c7 80 4c 01 00
	00 06 00 00 00	 mov	 DWORD PTR [eax+332], 6

; 1808 : 			ptAct->anim_no_bak = -1;

  0059f	8b 45 08	 mov	 eax, DWORD PTR _ptAct$[ebp]
  005a2	c7 80 50 01 00
	00 ff ff ff ff	 mov	 DWORD PTR [eax+336], -1

; 1809 : 			ptAct->anim_ang = dir;

  005ac	8b 45 08	 mov	 eax, DWORD PTR _ptAct$[ebp]
  005af	8b 4d 14	 mov	 ecx, DWORD PTR _dir$[ebp]
  005b2	89 88 54 01 00
	00		 mov	 DWORD PTR [eax+340], ecx

; 1810 : 			break;

  005b8	e9 72 05 00 00	 jmp	 $LN1@changeChar
$LN41@changeChar:

; 1811 : 		case 13:
; 1812 : 			ptAct->anim_no = ANIM_HAPPY;

  005bd	8b 45 08	 mov	 eax, DWORD PTR _ptAct$[ebp]
  005c0	c7 80 4c 01 00
	00 07 00 00 00	 mov	 DWORD PTR [eax+332], 7

; 1813 : 			ptAct->anim_no_bak = -1;

  005ca	8b 45 08	 mov	 eax, DWORD PTR _ptAct$[ebp]
  005cd	c7 80 50 01 00
	00 ff ff ff ff	 mov	 DWORD PTR [eax+336], -1

; 1814 : 			ptAct->anim_ang = dir;

  005d7	8b 45 08	 mov	 eax, DWORD PTR _ptAct$[ebp]
  005da	8b 4d 14	 mov	 ecx, DWORD PTR _dir$[ebp]
  005dd	89 88 54 01 00
	00		 mov	 DWORD PTR [eax+340], ecx

; 1815 : 			break;

  005e3	e9 47 05 00 00	 jmp	 $LN1@changeChar
$LN42@changeChar:

; 1816 : 		case 14:
; 1817 : 			ptAct->anim_no = ANIM_ANGRY;

  005e8	8b 45 08	 mov	 eax, DWORD PTR _ptAct$[ebp]
  005eb	c7 80 4c 01 00
	00 08 00 00 00	 mov	 DWORD PTR [eax+332], 8

; 1818 : 			ptAct->anim_no_bak = -1;

  005f5	8b 45 08	 mov	 eax, DWORD PTR _ptAct$[ebp]
  005f8	c7 80 50 01 00
	00 ff ff ff ff	 mov	 DWORD PTR [eax+336], -1

; 1819 : 			ptAct->anim_ang = dir;

  00602	8b 45 08	 mov	 eax, DWORD PTR _ptAct$[ebp]
  00605	8b 4d 14	 mov	 ecx, DWORD PTR _dir$[ebp]
  00608	89 88 54 01 00
	00		 mov	 DWORD PTR [eax+340], ecx

; 1820 : 			break;

  0060e	e9 1c 05 00 00	 jmp	 $LN1@changeChar
$LN43@changeChar:

; 1821 : 		case 15:
; 1822 : 			ptAct->anim_no = ANIM_SAD;

  00613	8b 45 08	 mov	 eax, DWORD PTR _ptAct$[ebp]
  00616	c7 80 4c 01 00
	00 09 00 00 00	 mov	 DWORD PTR [eax+332], 9

; 1823 : 			ptAct->anim_no_bak = -1;

  00620	8b 45 08	 mov	 eax, DWORD PTR _ptAct$[ebp]
  00623	c7 80 50 01 00
	00 ff ff ff ff	 mov	 DWORD PTR [eax+336], -1

; 1824 : 			ptAct->anim_ang = dir;

  0062d	8b 45 08	 mov	 eax, DWORD PTR _ptAct$[ebp]
  00630	8b 4d 14	 mov	 ecx, DWORD PTR _dir$[ebp]
  00633	89 88 54 01 00
	00		 mov	 DWORD PTR [eax+340], ecx

; 1825 : 			break;

  00639	e9 f1 04 00 00	 jmp	 $LN1@changeChar
$LN44@changeChar:

; 1826 : 		case 16:
; 1827 : 			ptAct->anim_no = ANIM_GUARD;

  0063e	8b 45 08	 mov	 eax, DWORD PTR _ptAct$[ebp]
  00641	c7 80 4c 01 00
	00 0a 00 00 00	 mov	 DWORD PTR [eax+332], 10	; 0000000aH

; 1828 : 			ptAct->anim_no_bak = -1;

  0064b	8b 45 08	 mov	 eax, DWORD PTR _ptAct$[ebp]
  0064e	c7 80 50 01 00
	00 ff ff ff ff	 mov	 DWORD PTR [eax+336], -1

; 1829 : 			ptAct->anim_ang = dir;

  00658	8b 45 08	 mov	 eax, DWORD PTR _ptAct$[ebp]
  0065b	8b 4d 14	 mov	 ecx, DWORD PTR _dir$[ebp]
  0065e	89 88 54 01 00
	00		 mov	 DWORD PTR [eax+340], ecx

; 1830 : 			break;

  00664	e9 c6 04 00 00	 jmp	 $LN1@changeChar
$LN45@changeChar:

; 1831 : 		case 17:
; 1832 : 			ptAct->anim_no = ANIM_WALK;

  00669	8b 45 08	 mov	 eax, DWORD PTR _ptAct$[ebp]
  0066c	c7 80 4c 01 00
	00 04 00 00 00	 mov	 DWORD PTR [eax+332], 4

; 1833 : 			ptAct->anim_no_bak = -1;

  00676	8b 45 08	 mov	 eax, DWORD PTR _ptAct$[ebp]
  00679	c7 80 50 01 00
	00 ff ff ff ff	 mov	 DWORD PTR [eax+336], -1

; 1834 : 			ptAct->anim_ang = dir;

  00683	8b 45 08	 mov	 eax, DWORD PTR _ptAct$[ebp]
  00686	8b 4d 14	 mov	 ecx, DWORD PTR _dir$[ebp]
  00689	89 88 54 01 00
	00		 mov	 DWORD PTR [eax+340], ecx

; 1835 : 			break;

  0068f	e9 9b 04 00 00	 jmp	 $LN1@changeChar
$LN46@changeChar:

; 1836 : 		case 18:
; 1837 : 			ptAct->anim_no = ANIM_NOD;

  00694	8b 45 08	 mov	 eax, DWORD PTR _ptAct$[ebp]
  00697	c7 80 4c 01 00
	00 0b 00 00 00	 mov	 DWORD PTR [eax+332], 11	; 0000000bH

; 1838 : 			ptAct->anim_no_bak = -1;

  006a1	8b 45 08	 mov	 eax, DWORD PTR _ptAct$[ebp]
  006a4	c7 80 50 01 00
	00 ff ff ff ff	 mov	 DWORD PTR [eax+336], -1

; 1839 : 			ptAct->anim_ang = dir;

  006ae	8b 45 08	 mov	 eax, DWORD PTR _ptAct$[ebp]
  006b1	8b 4d 14	 mov	 ecx, DWORD PTR _dir$[ebp]
  006b4	89 88 54 01 00
	00		 mov	 DWORD PTR [eax+340], ecx

; 1840 : 			break;

  006ba	e9 70 04 00 00	 jmp	 $LN1@changeChar
$LN47@changeChar:

; 1841 : 		case 19:
; 1842 : 			ptAct->anim_no = ANIM_STAND;

  006bf	8b 45 08	 mov	 eax, DWORD PTR _ptAct$[ebp]
  006c2	c7 80 4c 01 00
	00 03 00 00 00	 mov	 DWORD PTR [eax+332], 3

; 1843 : 			ptAct->anim_no_bak = -1;

  006cc	8b 45 08	 mov	 eax, DWORD PTR _ptAct$[ebp]
  006cf	c7 80 50 01 00
	00 ff ff ff ff	 mov	 DWORD PTR [eax+336], -1

; 1844 : 			ptAct->anim_ang = dir;

  006d9	8b 45 08	 mov	 eax, DWORD PTR _ptAct$[ebp]
  006dc	8b 4d 14	 mov	 ecx, DWORD PTR _dir$[ebp]
  006df	89 88 54 01 00
	00		 mov	 DWORD PTR [eax+340], ecx

; 1845 : 			break;

  006e5	e9 45 04 00 00	 jmp	 $LN1@changeChar
$LN48@changeChar:

; 1846 : 		case 20:
; 1847 : 			if( effectno >= 0 ){

  006ea	83 7d 1c 00	 cmp	 DWORD PTR _effectno$[ebp], 0
  006ee	7c 36		 jl	 SHORT $LN49@changeChar

; 1848 : 				setCharBattle( ptAct, effectno, effectparam1, effectparam2 );

  006f0	0f b7 45 24	 movzx	 eax, WORD PTR _effectparam2$[ebp]
  006f4	50		 push	 eax
  006f5	0f b7 4d 20	 movzx	 ecx, WORD PTR _effectparam1$[ebp]
  006f9	51		 push	 ecx
  006fa	8b 55 1c	 mov	 edx, DWORD PTR _effectno$[ebp]
  006fd	52		 push	 edx
  006fe	8b 45 08	 mov	 eax, DWORD PTR _ptAct$[ebp]
  00701	50		 push	 eax
  00702	e8 00 00 00 00	 call	 ?setCharBattle@@YAXPAUaction@@HFF@Z ; setCharBattle
  00707	83 c4 10	 add	 esp, 16			; 00000010H

; 1849 : 				ptAct->anim_no = ANIM_STAND;

  0070a	8b 45 08	 mov	 eax, DWORD PTR _ptAct$[ebp]
  0070d	c7 80 4c 01 00
	00 03 00 00 00	 mov	 DWORD PTR [eax+332], 3

; 1850 : 				ptAct->anim_no_bak = -1;

  00717	8b 45 08	 mov	 eax, DWORD PTR _ptAct$[ebp]
  0071a	c7 80 50 01 00
	00 ff ff ff ff	 mov	 DWORD PTR [eax+336], -1

; 1851 : 			}else

  00724	eb 0c		 jmp	 SHORT $LN50@changeChar
$LN49@changeChar:

; 1852 : 				delCharBattle( ptAct );

  00726	8b 45 08	 mov	 eax, DWORD PTR _ptAct$[ebp]
  00729	50		 push	 eax
  0072a	e8 00 00 00 00	 call	 ?delCharBattle@@YAXPAUaction@@@Z ; delCharBattle
  0072f	83 c4 04	 add	 esp, 4
$LN50@changeChar:

; 1853 : 			setCharWarpPoint( ptAct, x, y );

  00732	8b 45 10	 mov	 eax, DWORD PTR _y$[ebp]
  00735	50		 push	 eax
  00736	8b 4d 0c	 mov	 ecx, DWORD PTR _x$[ebp]
  00739	51		 push	 ecx
  0073a	8b 55 08	 mov	 edx, DWORD PTR _ptAct$[ebp]
  0073d	52		 push	 edx
  0073e	e8 00 00 00 00	 call	 ?setCharWarpPoint@@YAXPAUaction@@HH@Z ; setCharWarpPoint
  00743	83 c4 0c	 add	 esp, 12			; 0000000cH

; 1854 : 			ptAct->anim_ang = dir;

  00746	8b 45 08	 mov	 eax, DWORD PTR _ptAct$[ebp]
  00749	8b 4d 14	 mov	 ecx, DWORD PTR _dir$[ebp]
  0074c	89 88 54 01 00
	00		 mov	 DWORD PTR [eax+340], ecx

; 1855 : 			break;

  00752	e9 d8 03 00 00	 jmp	 $LN1@changeChar
$LN51@changeChar:

; 1856 : 		case 21:
; 1857 : 			if( effectno == 1 )

  00757	83 7d 1c 01	 cmp	 DWORD PTR _effectno$[ebp], 1
  0075b	75 0e		 jne	 SHORT $LN52@changeChar

; 1858 : 				setCharLeader( ptAct );

  0075d	8b 45 08	 mov	 eax, DWORD PTR _ptAct$[ebp]
  00760	50		 push	 eax
  00761	e8 00 00 00 00	 call	 ?setCharLeader@@YAXPAUaction@@@Z ; setCharLeader
  00766	83 c4 04	 add	 esp, 4

; 1859 : 			else

  00769	eb 0c		 jmp	 SHORT $LN53@changeChar
$LN52@changeChar:

; 1860 : 				delCharLeader( ptAct );

  0076b	8b 45 08	 mov	 eax, DWORD PTR _ptAct$[ebp]
  0076e	50		 push	 eax
  0076f	e8 00 00 00 00	 call	 ?delCharLeader@@YAXPAUaction@@@Z ; delCharLeader
  00774	83 c4 04	 add	 esp, 4
$LN53@changeChar:

; 1861 : 			ptAct->anim_ang = dir;

  00777	8b 45 08	 mov	 eax, DWORD PTR _ptAct$[ebp]
  0077a	8b 4d 14	 mov	 ecx, DWORD PTR _dir$[ebp]
  0077d	89 88 54 01 00
	00		 mov	 DWORD PTR [eax+340], ecx

; 1862 : 			break;

  00783	e9 a7 03 00 00	 jmp	 $LN1@changeChar
$LN54@changeChar:

; 1863 : 		case 22:
; 1864 : 			if( effectno == 1 )

  00788	83 7d 1c 01	 cmp	 DWORD PTR _effectno$[ebp], 1
  0078c	75 0e		 jne	 SHORT $LN55@changeChar

; 1865 : 				setCharWatch( ptAct );

  0078e	8b 45 08	 mov	 eax, DWORD PTR _ptAct$[ebp]
  00791	50		 push	 eax
  00792	e8 00 00 00 00	 call	 ?setCharWatch@@YAXPAUaction@@@Z ; setCharWatch
  00797	83 c4 04	 add	 esp, 4

; 1866 : 			else

  0079a	eb 0c		 jmp	 SHORT $LN56@changeChar
$LN55@changeChar:

; 1867 : 				delCharWatch( ptAct );

  0079c	8b 45 08	 mov	 eax, DWORD PTR _ptAct$[ebp]
  0079f	50		 push	 eax
  007a0	e8 00 00 00 00	 call	 ?delCharWatch@@YAXPAUaction@@@Z ; delCharWatch
  007a5	83 c4 04	 add	 esp, 4
$LN56@changeChar:

; 1868 : 			setCharWarpPoint( ptAct, x, y );

  007a8	8b 45 10	 mov	 eax, DWORD PTR _y$[ebp]
  007ab	50		 push	 eax
  007ac	8b 4d 0c	 mov	 ecx, DWORD PTR _x$[ebp]
  007af	51		 push	 ecx
  007b0	8b 55 08	 mov	 edx, DWORD PTR _ptAct$[ebp]
  007b3	52		 push	 edx
  007b4	e8 00 00 00 00	 call	 ?setCharWarpPoint@@YAXPAUaction@@HH@Z ; setCharWarpPoint
  007b9	83 c4 0c	 add	 esp, 12			; 0000000cH

; 1869 : 			ptAct->anim_ang = dir;

  007bc	8b 45 08	 mov	 eax, DWORD PTR _ptAct$[ebp]
  007bf	8b 4d 14	 mov	 ecx, DWORD PTR _dir$[ebp]
  007c2	89 88 54 01 00
	00		 mov	 DWORD PTR [eax+340], ecx

; 1870 : 			break;

  007c8	e9 62 03 00 00	 jmp	 $LN1@changeChar
$LN57@changeChar:

; 1871 : 		case 23:
; 1872 : 			setCharNameColor( ptAct, effectno );

  007cd	8b 45 1c	 mov	 eax, DWORD PTR _effectno$[ebp]
  007d0	50		 push	 eax
  007d1	8b 4d 08	 mov	 ecx, DWORD PTR _ptAct$[ebp]
  007d4	51		 push	 ecx
  007d5	e8 00 00 00 00	 call	 ?setCharNameColor@@YAXPAUaction@@H@Z ; setCharNameColor
  007da	83 c4 08	 add	 esp, 8

; 1873 : 			break;

  007dd	e9 4d 03 00 00	 jmp	 $LN1@changeChar
$LN58@changeChar:

; 1874 : 
; 1875 : 		// 交易中
; 1876 : 		case 32:
; 1877 : 			if( effectno >= 0 ){

  007e2	83 7d 1c 00	 cmp	 DWORD PTR _effectno$[ebp], 0
  007e6	7c 2c		 jl	 SHORT $LN59@changeChar

; 1878 : 				setCharTrade( ptAct, effectno );

  007e8	8b 45 1c	 mov	 eax, DWORD PTR _effectno$[ebp]
  007eb	50		 push	 eax
  007ec	8b 4d 08	 mov	 ecx, DWORD PTR _ptAct$[ebp]
  007ef	51		 push	 ecx
  007f0	e8 00 00 00 00	 call	 ?setCharTrade@@YAXPAUaction@@H@Z ; setCharTrade
  007f5	83 c4 08	 add	 esp, 8

; 1879 : 				ptAct->anim_no = ANIM_STAND;

  007f8	8b 45 08	 mov	 eax, DWORD PTR _ptAct$[ebp]
  007fb	c7 80 4c 01 00
	00 03 00 00 00	 mov	 DWORD PTR [eax+332], 3

; 1880 : 				ptAct->anim_no_bak = -1;

  00805	8b 45 08	 mov	 eax, DWORD PTR _ptAct$[ebp]
  00808	c7 80 50 01 00
	00 ff ff ff ff	 mov	 DWORD PTR [eax+336], -1

; 1881 : 			}else

  00812	eb 0c		 jmp	 SHORT $LN60@changeChar
$LN59@changeChar:

; 1882 : 				delCharTrade( ptAct );

  00814	8b 45 08	 mov	 eax, DWORD PTR _ptAct$[ebp]
  00817	50		 push	 eax
  00818	e8 00 00 00 00	 call	 ?delCharTrade@@YAXPAUaction@@@Z ; delCharTrade
  0081d	83 c4 04	 add	 esp, 4
$LN60@changeChar:

; 1883 : 			//setCharWarpPoint( ptAct, x, y );
; 1884 : 			ptAct->anim_ang = dir;

  00820	8b 45 08	 mov	 eax, DWORD PTR _ptAct$[ebp]
  00823	8b 4d 14	 mov	 ecx, DWORD PTR _dir$[ebp]
  00826	89 88 54 01 00
	00		 mov	 DWORD PTR [eax+340], ecx

; 1885 : 			break;

  0082c	e9 fe 02 00 00	 jmp	 $LN1@changeChar
$LN61@changeChar:

; 1886 : 
; 1887 : #ifdef _ANGEL_SUMMON
; 1888 : 		case 34:
; 1889 : 			if( effectno > 0 ){

  00831	83 7d 1c 00	 cmp	 DWORD PTR _effectno$[ebp], 0
  00835	7e 28		 jle	 SHORT $LN62@changeChar

; 1890 : 				setCharAngel( ptAct );

  00837	8b 45 08	 mov	 eax, DWORD PTR _ptAct$[ebp]
  0083a	50		 push	 eax
  0083b	e8 00 00 00 00	 call	 ?setCharAngel@@YAXPAUaction@@@Z ; setCharAngel
  00840	83 c4 04	 add	 esp, 4

; 1891 : 				// ?????????
; 1892 : 				ptAct->anim_no = ANIM_STAND;

  00843	8b 45 08	 mov	 eax, DWORD PTR _ptAct$[ebp]
  00846	c7 80 4c 01 00
	00 03 00 00 00	 mov	 DWORD PTR [eax+332], 3

; 1893 : 				ptAct->anim_no_bak = -1;

  00850	8b 45 08	 mov	 eax, DWORD PTR _ptAct$[ebp]
  00853	c7 80 50 01 00
	00 ff ff ff ff	 mov	 DWORD PTR [eax+336], -1

; 1894 : 			}else

  0085d	eb 0c		 jmp	 SHORT $LN63@changeChar
$LN62@changeChar:

; 1895 : 				delCharAngel( ptAct );

  0085f	8b 45 08	 mov	 eax, DWORD PTR _ptAct$[ebp]
  00862	50		 push	 eax
  00863	e8 00 00 00 00	 call	 ?delCharAngel@@YAXPAUaction@@@Z ; delCharAngel
  00868	83 c4 04	 add	 esp, 4
$LN63@changeChar:

; 1896 : 			//setCharWarpPoint( ptAct, x, y );
; 1897 : 			ptAct->anim_ang = dir;

  0086b	8b 45 08	 mov	 eax, DWORD PTR _ptAct$[ebp]
  0086e	8b 4d 14	 mov	 ecx, DWORD PTR _dir$[ebp]
  00871	89 88 54 01 00
	00		 mov	 DWORD PTR [eax+340], ecx

; 1898 : 			break;

  00877	e9 b3 02 00 00	 jmp	 $LN1@changeChar
$LN64@changeChar:

; 1899 : #endif
; 1900 : 
; 1901 : #ifdef _STREET_VENDOR
; 1902 : 		case 41:
; 1903 : 			if(ext->ptStreetVendor){

  0087c	8b 45 f8	 mov	 eax, DWORD PTR _ext$[ebp]
  0087f	83 78 1c 00	 cmp	 DWORD PTR [eax+28], 0
  00883	74 19		 je	 SHORT $LN65@changeChar

; 1904 : 				DeathAction(ext->ptStreetVendor);

  00885	8b 45 f8	 mov	 eax, DWORD PTR _ext$[ebp]
  00888	8b 48 1c	 mov	 ecx, DWORD PTR [eax+28]
  0088b	51		 push	 ecx
  0088c	e8 00 00 00 00	 call	 ?DeathAction@@YAXPAUaction@@@Z ; DeathAction
  00891	83 c4 04	 add	 esp, 4

; 1905 : 				ext->ptStreetVendor = NULL;

  00894	8b 45 f8	 mov	 eax, DWORD PTR _ext$[ebp]
  00897	c7 40 1c 00 00
	00 00		 mov	 DWORD PTR [eax+28], 0
$LN65@changeChar:

; 1906 : 			}
; 1907 : 			ext->ptStreetVendor = GetAction(PRIO_CHR,0);

  0089e	6a 00		 push	 0
  008a0	6a 01		 push	 1
  008a2	e8 00 00 00 00	 call	 ?GetAction@@YAPAUaction@@EI@Z ; GetAction
  008a7	83 c4 08	 add	 esp, 8
  008aa	8b 4d f8	 mov	 ecx, DWORD PTR _ext$[ebp]
  008ad	89 41 1c	 mov	 DWORD PTR [ecx+28], eax

; 1908 : 			break;

  008b0	e9 7a 02 00 00	 jmp	 $LN1@changeChar
$LN66@changeChar:

; 1909 : 		case 42:
; 1910 : 			if(ext->ptStreetVendor){

  008b5	8b 45 f8	 mov	 eax, DWORD PTR _ext$[ebp]
  008b8	83 78 1c 00	 cmp	 DWORD PTR [eax+28], 0
  008bc	74 19		 je	 SHORT $LN67@changeChar

; 1911 : 				DeathAction(ext->ptStreetVendor);

  008be	8b 45 f8	 mov	 eax, DWORD PTR _ext$[ebp]
  008c1	8b 48 1c	 mov	 ecx, DWORD PTR [eax+28]
  008c4	51		 push	 ecx
  008c5	e8 00 00 00 00	 call	 ?DeathAction@@YAXPAUaction@@@Z ; DeathAction
  008ca	83 c4 04	 add	 esp, 4

; 1912 : 				ext->ptStreetVendor = NULL;

  008cd	8b 45 f8	 mov	 eax, DWORD PTR _ext$[ebp]
  008d0	c7 40 1c 00 00
	00 00		 mov	 DWORD PTR [eax+28], 0
$LN67@changeChar:

; 1913 : 			}
; 1914 : 			break;

  008d7	e9 53 02 00 00	 jmp	 $LN1@changeChar
$LN68@changeChar:

; 1915 : #endif
; 1916 : #ifdef _MIND_ICON
; 1917 : 		case 40:
; 1918 : 			if(effectno >= 0)

  008dc	83 7d 1c 00	 cmp	 DWORD PTR _effectno$[ebp], 0
  008e0	7c 12		 jl	 SHORT $LN69@changeChar

; 1919 : 				setCharMind( ptAct, effectno);				

  008e2	8b 45 1c	 mov	 eax, DWORD PTR _effectno$[ebp]
  008e5	50		 push	 eax
  008e6	8b 4d 08	 mov	 ecx, DWORD PTR _ptAct$[ebp]
  008e9	51		 push	 ecx
  008ea	e8 00 00 00 00	 call	 ?setCharMind@@YAXPAUaction@@H@Z ; setCharMind
  008ef	83 c4 08	 add	 esp, 8

; 1920 : 			else

  008f2	eb 0c		 jmp	 SHORT $LN70@changeChar
$LN69@changeChar:

; 1921 : 				delCharMind( ptAct);

  008f4	8b 45 08	 mov	 eax, DWORD PTR _ptAct$[ebp]
  008f7	50		 push	 eax
  008f8	e8 00 00 00 00	 call	 ?delCharMind@@YAXPAUaction@@@Z ; delCharMind
  008fd	83 c4 04	 add	 esp, 4
$LN70@changeChar:

; 1922 : 			break;

  00900	e9 2a 02 00 00	 jmp	 $LN1@changeChar
$LN71@changeChar:

; 1923 : #endif
; 1924 : #ifdef _ITEM_CRACKER
; 1925 : 		case 50:
; 1926 : 			if(effectno >= 0)

  00905	83 7d 1c 00	 cmp	 DWORD PTR _effectno$[ebp], 0
  00909	7c 12		 jl	 SHORT $LN72@changeChar

; 1927 : 				setCharMind( ptAct, effectno);				

  0090b	8b 45 1c	 mov	 eax, DWORD PTR _effectno$[ebp]
  0090e	50		 push	 eax
  0090f	8b 4d 08	 mov	 ecx, DWORD PTR _ptAct$[ebp]
  00912	51		 push	 ecx
  00913	e8 00 00 00 00	 call	 ?setCharMind@@YAXPAUaction@@H@Z ; setCharMind
  00918	83 c4 08	 add	 esp, 8

; 1928 : 			else

  0091b	eb 0c		 jmp	 SHORT $LN73@changeChar
$LN72@changeChar:

; 1929 : 				delCharMind( ptAct);

  0091d	8b 45 08	 mov	 eax, DWORD PTR _ptAct$[ebp]
  00920	50		 push	 eax
  00921	e8 00 00 00 00	 call	 ?delCharMind@@YAXPAUaction@@@Z ; delCharMind
  00926	83 c4 04	 add	 esp, 4
$LN73@changeChar:

; 1930 : 			break;

  00929	e9 01 02 00 00	 jmp	 $LN1@changeChar
$LN74@changeChar:

; 1931 : #endif
; 1932 : #ifdef _ITEM_FIREWORK
; 1933 : 		case 51:
; 1934 : 			if (ext->pActFirework[0])

  0092e	b8 04 00 00 00	 mov	 eax, 4
  00933	6b c8 00	 imul	 ecx, eax, 0
  00936	8b 55 f8	 mov	 edx, DWORD PTR _ext$[ebp]
  00939	83 7c 0a 24 00	 cmp	 DWORD PTR [edx+ecx+36], 0
  0093e	74 2b		 je	 SHORT $LN75@changeChar

; 1935 : 			{
; 1936 : 				DeathAction(ext->pActFirework[0]);

  00940	b8 04 00 00 00	 mov	 eax, 4
  00945	6b c8 00	 imul	 ecx, eax, 0
  00948	8b 55 f8	 mov	 edx, DWORD PTR _ext$[ebp]
  0094b	8b 44 0a 24	 mov	 eax, DWORD PTR [edx+ecx+36]
  0094f	50		 push	 eax
  00950	e8 00 00 00 00	 call	 ?DeathAction@@YAXPAUaction@@@Z ; DeathAction
  00955	83 c4 04	 add	 esp, 4

; 1937 : 				ext->pActFirework[0] = NULL;

  00958	b8 04 00 00 00	 mov	 eax, 4
  0095d	6b c8 00	 imul	 ecx, eax, 0
  00960	8b 55 f8	 mov	 edx, DWORD PTR _ext$[ebp]
  00963	c7 44 0a 24 00
	00 00 00	 mov	 DWORD PTR [edx+ecx+36], 0
$LN75@changeChar:

; 1938 : 			}
; 1939 : 			if (ext->pActFirework[1])

  0096b	b8 04 00 00 00	 mov	 eax, 4
  00970	c1 e0 00	 shl	 eax, 0
  00973	8b 4d f8	 mov	 ecx, DWORD PTR _ext$[ebp]
  00976	83 7c 01 24 00	 cmp	 DWORD PTR [ecx+eax+36], 0
  0097b	74 2b		 je	 SHORT $LN76@changeChar

; 1940 : 			{
; 1941 : 				DeathAction(ext->pActFirework[1]);

  0097d	b8 04 00 00 00	 mov	 eax, 4
  00982	c1 e0 00	 shl	 eax, 0
  00985	8b 4d f8	 mov	 ecx, DWORD PTR _ext$[ebp]
  00988	8b 54 01 24	 mov	 edx, DWORD PTR [ecx+eax+36]
  0098c	52		 push	 edx
  0098d	e8 00 00 00 00	 call	 ?DeathAction@@YAXPAUaction@@@Z ; DeathAction
  00992	83 c4 04	 add	 esp, 4

; 1942 : 				ext->pActFirework[1] = NULL;

  00995	b8 04 00 00 00	 mov	 eax, 4
  0099a	c1 e0 00	 shl	 eax, 0
  0099d	8b 4d f8	 mov	 ecx, DWORD PTR _ext$[ebp]
  009a0	c7 44 01 24 00
	00 00 00	 mov	 DWORD PTR [ecx+eax+36], 0
$LN76@changeChar:

; 1943 : 			}
; 1944 : 			ext->pActFirework[0] = GetAction(PRIO_CHR, 0);

  009a8	6a 00		 push	 0
  009aa	6a 01		 push	 1
  009ac	e8 00 00 00 00	 call	 ?GetAction@@YAPAUaction@@EI@Z ; GetAction
  009b1	83 c4 08	 add	 esp, 8
  009b4	b9 04 00 00 00	 mov	 ecx, 4
  009b9	6b d1 00	 imul	 edx, ecx, 0
  009bc	8b 4d f8	 mov	 ecx, DWORD PTR _ext$[ebp]
  009bf	89 44 11 24	 mov	 DWORD PTR [ecx+edx+36], eax

; 1945 : 			ext->pActFirework[0]->damage		= effectno;	// 借用 damage 来储存 type (effectno = type)

  009c3	b8 04 00 00 00	 mov	 eax, 4
  009c8	6b c8 00	 imul	 ecx, eax, 0
  009cb	8b 55 f8	 mov	 edx, DWORD PTR _ext$[ebp]
  009ce	8b 44 0a 24	 mov	 eax, DWORD PTR [edx+ecx+36]
  009d2	8b 4d 1c	 mov	 ecx, DWORD PTR _effectno$[ebp]
  009d5	89 88 b0 00 00
	00		 mov	 DWORD PTR [eax+176], ecx

; 1946 : 			ext->pActFirework[0]->anim_chr_no	= effectparam1;

  009db	b8 04 00 00 00	 mov	 eax, 4
  009e0	6b c8 00	 imul	 ecx, eax, 0
  009e3	8b 55 f8	 mov	 edx, DWORD PTR _ext$[ebp]
  009e6	8b 44 0a 24	 mov	 eax, DWORD PTR [edx+ecx+36]
  009ea	8b 4d 20	 mov	 ecx, DWORD PTR _effectparam1$[ebp]
  009ed	89 88 44 01 00
	00		 mov	 DWORD PTR [eax+324], ecx

; 1947 : 			ext->pActFirework[0]->anim_no		= ANIM_STAND;

  009f3	b8 04 00 00 00	 mov	 eax, 4
  009f8	6b c8 00	 imul	 ecx, eax, 0
  009fb	8b 55 f8	 mov	 edx, DWORD PTR _ext$[ebp]
  009fe	8b 44 0a 24	 mov	 eax, DWORD PTR [edx+ecx+36]
  00a02	c7 80 4c 01 00
	00 03 00 00 00	 mov	 DWORD PTR [eax+332], 3

; 1948 : 			ext->pActFirework[0]->anim_ang		= 1;

  00a0c	b8 04 00 00 00	 mov	 eax, 4
  00a11	6b c8 00	 imul	 ecx, eax, 0
  00a14	8b 55 f8	 mov	 edx, DWORD PTR _ext$[ebp]
  00a17	8b 44 0a 24	 mov	 eax, DWORD PTR [edx+ecx+36]
  00a1b	c7 80 54 01 00
	00 01 00 00 00	 mov	 DWORD PTR [eax+340], 1

; 1949 : 			ext->pActFirework[0]->dispPrio		= DISP_PRIO_RESERVE;

  00a25	b8 04 00 00 00	 mov	 eax, 4
  00a2a	6b c8 00	 imul	 ecx, eax, 0
  00a2d	8b 55 f8	 mov	 edx, DWORD PTR _ext$[ebp]
  00a30	8b 44 0a 24	 mov	 eax, DWORD PTR [edx+ecx+36]
  00a34	c6 40 15 14	 mov	 BYTE PTR [eax+21], 20	; 00000014H

; 1950 : 			if (effectno == 3)

  00a38	83 7d 1c 03	 cmp	 DWORD PTR _effectno$[ebp], 3
  00a3c	0f 85 98 00 00
	00		 jne	 $LN77@changeChar

; 1951 : 			{
; 1952 : 				ext->pActFirework[0]->gx		= ptAct->gx + 3;

  00a42	8b 45 08	 mov	 eax, DWORD PTR _ptAct$[ebp]
  00a45	8b 88 b4 00 00
	00		 mov	 ecx, DWORD PTR [eax+180]
  00a4b	83 c1 03	 add	 ecx, 3
  00a4e	ba 04 00 00 00	 mov	 edx, 4
  00a53	6b c2 00	 imul	 eax, edx, 0
  00a56	8b 55 f8	 mov	 edx, DWORD PTR _ext$[ebp]
  00a59	8b 44 02 24	 mov	 eax, DWORD PTR [edx+eax+36]
  00a5d	89 88 b4 00 00
	00		 mov	 DWORD PTR [eax+180], ecx

; 1953 : 				ext->pActFirework[0]->gy		= ptAct->gy - 3;

  00a63	8b 45 08	 mov	 eax, DWORD PTR _ptAct$[ebp]
  00a66	8b 88 b8 00 00
	00		 mov	 ecx, DWORD PTR [eax+184]
  00a6c	83 e9 03	 sub	 ecx, 3
  00a6f	ba 04 00 00 00	 mov	 edx, 4
  00a74	6b c2 00	 imul	 eax, edx, 0
  00a77	8b 55 f8	 mov	 edx, DWORD PTR _ext$[ebp]
  00a7a	8b 44 02 24	 mov	 eax, DWORD PTR [edx+eax+36]
  00a7e	89 88 b8 00 00
	00		 mov	 DWORD PTR [eax+184], ecx

; 1954 : 				ext->pActFirework[0]->bufGx[0]	= pc.ptAct->gx;

  00a84	b8 04 00 00 00	 mov	 eax, 4
  00a89	6b c8 00	 imul	 ecx, eax, 0
  00a8c	8b 55 f8	 mov	 edx, DWORD PTR _ext$[ebp]
  00a8f	8b 44 0a 24	 mov	 eax, DWORD PTR [edx+ecx+36]
  00a93	b9 04 00 00 00	 mov	 ecx, 4
  00a98	6b d1 00	 imul	 edx, ecx, 0
  00a9b	8b 0d ec 50 00
	00		 mov	 ecx, DWORD PTR ?pc@@3UPC@@A+20716
  00aa1	8b 89 b4 00 00
	00		 mov	 ecx, DWORD PTR [ecx+180]
  00aa7	89 8c 10 c4 00
	00 00		 mov	 DWORD PTR [eax+edx+196], ecx

; 1955 : 				ext->pActFirework[0]->bufGy[0]	= pc.ptAct->gy;

  00aae	b8 04 00 00 00	 mov	 eax, 4
  00ab3	6b c8 00	 imul	 ecx, eax, 0
  00ab6	8b 55 f8	 mov	 edx, DWORD PTR _ext$[ebp]
  00ab9	8b 44 0a 24	 mov	 eax, DWORD PTR [edx+ecx+36]
  00abd	b9 04 00 00 00	 mov	 ecx, 4
  00ac2	6b d1 00	 imul	 edx, ecx, 0
  00ac5	8b 0d ec 50 00
	00		 mov	 ecx, DWORD PTR ?pc@@3UPC@@A+20716
  00acb	8b 89 b8 00 00
	00		 mov	 ecx, DWORD PTR [ecx+184]
  00ad1	89 8c 10 ec 00
	00 00		 mov	 DWORD PTR [eax+edx+236], ecx

; 1956 : 			}
; 1957 : 			else

  00ad8	eb 3c		 jmp	 SHORT $LN78@changeChar
$LN77@changeChar:

; 1958 : 			{
; 1959 : 				ext->pActFirework[0]->gx		= ptAct->gx;

  00ada	b8 04 00 00 00	 mov	 eax, 4
  00adf	6b c8 00	 imul	 ecx, eax, 0
  00ae2	8b 55 f8	 mov	 edx, DWORD PTR _ext$[ebp]
  00ae5	8b 44 0a 24	 mov	 eax, DWORD PTR [edx+ecx+36]
  00ae9	8b 4d 08	 mov	 ecx, DWORD PTR _ptAct$[ebp]
  00aec	8b 91 b4 00 00
	00		 mov	 edx, DWORD PTR [ecx+180]
  00af2	89 90 b4 00 00
	00		 mov	 DWORD PTR [eax+180], edx

; 1960 : 				ext->pActFirework[0]->gy		= ptAct->gy;

  00af8	b8 04 00 00 00	 mov	 eax, 4
  00afd	6b c8 00	 imul	 ecx, eax, 0
  00b00	8b 55 f8	 mov	 edx, DWORD PTR _ext$[ebp]
  00b03	8b 44 0a 24	 mov	 eax, DWORD PTR [edx+ecx+36]
  00b07	8b 4d 08	 mov	 ecx, DWORD PTR _ptAct$[ebp]
  00b0a	8b 91 b8 00 00
	00		 mov	 edx, DWORD PTR [ecx+184]
  00b10	89 90 b8 00 00
	00		 mov	 DWORD PTR [eax+184], edx
$LN78@changeChar:

; 1961 : 			}
; 1962 : 			ext->pActFirework[0]->actNo			= 0;

  00b16	b8 04 00 00 00	 mov	 eax, 4
  00b1b	6b c8 00	 imul	 ecx, eax, 0
  00b1e	8b 55 f8	 mov	 edx, DWORD PTR _ext$[ebp]
  00b21	8b 44 0a 24	 mov	 eax, DWORD PTR [edx+ecx+36]
  00b25	c7 80 ac 00 00
	00 00 00 00 00	 mov	 DWORD PTR [eax+172], 0
$LN1@changeChar:

; 1963 : 			break;
; 1964 : #endif
; 1965 : 
; 1966 : 	}
; 1967 : }

  00b2f	5f		 pop	 edi
  00b30	5e		 pop	 esi
  00b31	5b		 pop	 ebx
  00b32	81 c4 00 01 00
	00		 add	 esp, 256		; 00000100H
  00b38	3b ec		 cmp	 ebp, esp
  00b3a	e8 00 00 00 00	 call	 __RTC_CheckEsp
  00b3f	8b e5		 mov	 esp, ebp
  00b41	5d		 pop	 ebp
  00b42	c3		 ret	 0
  00b43	90		 npad	 1
$LN95@changeChar:
  00b44	00 00 00 00	 DD	 $LN9@changeChar
  00b48	00 00 00 00	 DD	 $LN21@changeChar
  00b4c	00 00 00 00	 DD	 $LN31@changeChar
  00b50	00 00 00 00	 DD	 $LN32@changeChar
  00b54	00 00 00 00	 DD	 $LN33@changeChar
  00b58	00 00 00 00	 DD	 $LN34@changeChar
  00b5c	00 00 00 00	 DD	 $LN38@changeChar
  00b60	00 00 00 00	 DD	 $LN39@changeChar
  00b64	00 00 00 00	 DD	 $LN40@changeChar
  00b68	00 00 00 00	 DD	 $LN41@changeChar
  00b6c	00 00 00 00	 DD	 $LN42@changeChar
  00b70	00 00 00 00	 DD	 $LN43@changeChar
  00b74	00 00 00 00	 DD	 $LN44@changeChar
  00b78	00 00 00 00	 DD	 $LN45@changeChar
  00b7c	00 00 00 00	 DD	 $LN46@changeChar
  00b80	00 00 00 00	 DD	 $LN47@changeChar
  00b84	00 00 00 00	 DD	 $LN48@changeChar
  00b88	00 00 00 00	 DD	 $LN51@changeChar
  00b8c	00 00 00 00	 DD	 $LN54@changeChar
  00b90	00 00 00 00	 DD	 $LN57@changeChar
  00b94	00 00 00 00	 DD	 $LN17@changeChar
  00b98	00 00 00 00	 DD	 $LN16@changeChar
  00b9c	00 00 00 00	 DD	 $LN58@changeChar
  00ba0	00 00 00 00	 DD	 $LN61@changeChar
  00ba4	00 00 00 00	 DD	 $LN68@changeChar
  00ba8	00 00 00 00	 DD	 $LN64@changeChar
  00bac	00 00 00 00	 DD	 $LN66@changeChar
  00bb0	00 00 00 00	 DD	 $LN10@changeChar
  00bb4	00 00 00 00	 DD	 $LN13@changeChar
  00bb8	00 00 00 00	 DD	 $LN71@changeChar
  00bbc	00 00 00 00	 DD	 $LN74@changeChar
  00bc0	00 00 00 00	 DD	 $LN1@changeChar
$LN94@changeChar:
  00bc4	00		 DB	 0
  00bc5	01		 DB	 1
  00bc6	02		 DB	 2
  00bc7	03		 DB	 3
  00bc8	04		 DB	 4
  00bc9	05		 DB	 5
  00bca	1f		 DB	 31			; 0000001fH
  00bcb	1f		 DB	 31			; 0000001fH
  00bcc	1f		 DB	 31			; 0000001fH
  00bcd	1f		 DB	 31			; 0000001fH
  00bce	06		 DB	 6
  00bcf	07		 DB	 7
  00bd0	08		 DB	 8
  00bd1	09		 DB	 9
  00bd2	0a		 DB	 10			; 0000000aH
  00bd3	0b		 DB	 11			; 0000000bH
  00bd4	0c		 DB	 12			; 0000000cH
  00bd5	0d		 DB	 13			; 0000000dH
  00bd6	0e		 DB	 14			; 0000000eH
  00bd7	0f		 DB	 15			; 0000000fH
  00bd8	10		 DB	 16			; 00000010H
  00bd9	11		 DB	 17			; 00000011H
  00bda	12		 DB	 18			; 00000012H
  00bdb	13		 DB	 19			; 00000013H
  00bdc	1f		 DB	 31			; 0000001fH
  00bdd	1f		 DB	 31			; 0000001fH
  00bde	1f		 DB	 31			; 0000001fH
  00bdf	1f		 DB	 31			; 0000001fH
  00be0	1f		 DB	 31			; 0000001fH
  00be1	1f		 DB	 31			; 0000001fH
  00be2	14		 DB	 20			; 00000014H
  00be3	15		 DB	 21			; 00000015H
  00be4	16		 DB	 22			; 00000016H
  00be5	1f		 DB	 31			; 0000001fH
  00be6	17		 DB	 23			; 00000017H
  00be7	1f		 DB	 31			; 0000001fH
  00be8	1f		 DB	 31			; 0000001fH
  00be9	1f		 DB	 31			; 0000001fH
  00bea	1f		 DB	 31			; 0000001fH
  00beb	1f		 DB	 31			; 0000001fH
  00bec	18		 DB	 24			; 00000018H
  00bed	19		 DB	 25			; 00000019H
  00bee	1a		 DB	 26			; 0000001aH
  00bef	1f		 DB	 31			; 0000001fH
  00bf0	1f		 DB	 31			; 0000001fH
  00bf1	1b		 DB	 27			; 0000001bH
  00bf2	1c		 DB	 28			; 0000001cH
  00bf3	1f		 DB	 31			; 0000001fH
  00bf4	1f		 DB	 31			; 0000001fH
  00bf5	1f		 DB	 31			; 0000001fH
  00bf6	1d		 DB	 29			; 0000001dH
  00bf7	1e		 DB	 30			; 0000001eH
?changeCharAct@@YAXPAUaction@@HHHHHHH@Z ENDP		; changeCharAct
_TEXT	ENDS
; Function compile flags: /Odtp /RTCsu /ZI
; File c:\users\administrator\desktop\????? ??\????? ??\client source code\system\character.cpp
;	COMDAT ?drawCharStatus@@YAXPAUaction@@@Z
_TEXT	SEGMENT
tv1248 = -1240						; size = 4
tv583 = -1240						; size = 4
_no$1 = -848						; size = 4
_pictable$2 = -836					; size = 36
_nDir$3 = -792						; size = 4
_nXY$4 = -780						; size = 32
_fY$5 = -740						; size = 4
_fX$6 = -728						; size = 4
_nGY$7 = -716						; size = 4
_nGX$8 = -704						; size = 4
_fY$9 = -692						; size = 4
_fX$10 = -680						; size = 4
_y2$11 = -668						; size = 2
_x2$12 = -656						; size = 2
_y1$13 = -644						; size = 2
_x1$14 = -632						; size = 2
_no$15 = -620						; size = 4
_msg$16 = -608						; size = 10
_bmpNo$17 = -588					; size = 4
_no$18 = -576						; size = 4
_no$19 = -564						; size = 4
_bmpNo$20 = -552					; size = 4
_no$21 = -540						; size = 4
_bmpNo$22 = -528					; size = 4
_no$23 = -516						; size = 4
_no$24 = -504						; size = 4
_bmpNo$25 = -492					; size = 4
_no$26 = -480						; size = 4
_bmpNo$27 = -468					; size = 4
_no$28 = -456						; size = 4
_y2$29 = -444						; size = 2
_x2$30 = -432						; size = 2
_y1$31 = -420						; size = 2
_x1$32 = -408						; size = 2
_人物屏蔽开关$33 = -396					; size = 4
_y1$34 = -384						; size = 2
_x1$35 = -372						; size = 2
_人物屏蔽开关$36 = -360					; size = 4
_RandAnimate$ = -348					; size = 4
_msg$ = -336						; size = 256
_helpMode$ = -72					; size = 4
_sideNo$ = -60						; size = 4
_battleNo$ = -48					; size = 4
_status$ = -36						; size = 4
_no$ = -24						; size = 4
_ext$ = -12						; size = 4
__$ArrayPad$ = -4					; size = 4
_ptAct$ = 8						; size = 4
?drawCharStatus@@YAXPAUaction@@@Z PROC			; drawCharStatus, COMDAT

; 932  : {

  00000	55		 push	 ebp
  00001	8b ec		 mov	 ebp, esp
  00003	81 ec d8 04 00
	00		 sub	 esp, 1240		; 000004d8H
  00009	53		 push	 ebx
  0000a	56		 push	 esi
  0000b	57		 push	 edi
  0000c	8d bd 28 fb ff
	ff		 lea	 edi, DWORD PTR [ebp-1240]
  00012	b9 36 01 00 00	 mov	 ecx, 310		; 00000136H
  00017	b8 cc cc cc cc	 mov	 eax, -858993460		; ccccccccH
  0001c	f3 ab		 rep stosd
  0001e	a1 00 00 00 00	 mov	 eax, DWORD PTR ___security_cookie
  00023	33 c5		 xor	 eax, ebp
  00025	89 45 fc	 mov	 DWORD PTR __$ArrayPad$[ebp], eax

; 933  : 	CHAREXTRA *ext;
; 934  : 	int no;
; 935  : #ifdef _ANGEL_SUMMON
; 936  : 	unsigned status;
; 937  : #else
; 938  : 	unsigned short status;
; 939  : #endif
; 940  : 	int battleNo;
; 941  : 	int sideNo;
; 942  : 	int helpMode;
; 943  : 	char msg[256];
; 944  : #ifdef _AniCharBubble	   // Syu ADD 动画层人物吐出气泡
; 945  : 	int RandAnimate;
; 946  : #endif
; 947  : 	if( ptAct == NULL )

  00028	83 7d 08 00	 cmp	 DWORD PTR _ptAct$[ebp], 0
  0002c	75 05		 jne	 SHORT $LN4@drawCharSt

; 948  : 		return;

  0002e	e9 a1 1f 00 00	 jmp	 $LN1@drawCharSt
$LN4@drawCharSt:

; 949  : 	ext = (CHAREXTRA *)ptAct->pYobi;

  00033	8b 45 08	 mov	 eax, DWORD PTR _ptAct$[ebp]
  00036	8b 48 0c	 mov	 ecx, DWORD PTR [eax+12]
  00039	89 4d f4	 mov	 DWORD PTR _ext$[ebp], ecx

; 950  : 	no = ext->charObjTblId;

  0003c	8b 45 f4	 mov	 eax, DWORD PTR _ext$[ebp]
  0003f	8b 08		 mov	 ecx, DWORD PTR [eax]
  00041	89 4d e8	 mov	 DWORD PTR _no$[ebp], ecx

; 951  : 	if( pc.ptAct != NULL && pc.ptAct == ptAct ){

  00044	83 3d ec 50 00
	00 00		 cmp	 DWORD PTR ?pc@@3UPC@@A+20716, 0
  0004b	74 29		 je	 SHORT $LN5@drawCharSt
  0004d	a1 ec 50 00 00	 mov	 eax, DWORD PTR ?pc@@3UPC@@A+20716
  00052	3b 45 08	 cmp	 eax, DWORD PTR _ptAct$[ebp]
  00055	75 1f		 jne	 SHORT $LN5@drawCharSt

; 952  : 		// ???????
; 953  : 		status = pc.status;

  00057	a1 a4 00 00 00	 mov	 eax, DWORD PTR ?pc@@3UPC@@A+164
  0005c	89 45 dc	 mov	 DWORD PTR _status$[ebp], eax

; 954  : 		battleNo = 0;

  0005f	c7 45 d0 00 00
	00 00		 mov	 DWORD PTR _battleNo$[ebp], 0

; 955  : 		sideNo = 0;

  00066	c7 45 c4 00 00
	00 00		 mov	 DWORD PTR _sideNo$[ebp], 0

; 956  : 		helpMode = 0;

  0006d	c7 45 b8 00 00
	00 00		 mov	 DWORD PTR _helpMode$[ebp], 0

; 957  : 	}else{

  00074	eb 42		 jmp	 SHORT $LN6@drawCharSt
$LN5@drawCharSt:

; 958  : 		status = charObj[no].status;

  00076	69 45 e8 0c 01
	00 00		 imul	 eax, DWORD PTR _no$[ebp], 268
  0007d	8b 88 2c 00 00
	00		 mov	 ecx, DWORD PTR ?charObj@@3PAUCHAROBJ@@A[eax+44]
  00083	89 4d dc	 mov	 DWORD PTR _status$[ebp], ecx

; 959  : 		battleNo = charObj[no].battleNo;

  00086	69 45 e8 0c 01
	00 00		 imul	 eax, DWORD PTR _no$[ebp], 268
  0008d	8b 88 ac 00 00
	00		 mov	 ecx, DWORD PTR ?charObj@@3PAUCHAROBJ@@A[eax+172]
  00093	89 4d d0	 mov	 DWORD PTR _battleNo$[ebp], ecx

; 960  : 		sideNo = charObj[no].sideNo;

  00096	69 45 e8 0c 01
	00 00		 imul	 eax, DWORD PTR _no$[ebp], 268
  0009d	0f bf 88 b0 00
	00 00		 movsx	 ecx, WORD PTR ?charObj@@3PAUCHAROBJ@@A[eax+176]
  000a4	89 4d c4	 mov	 DWORD PTR _sideNo$[ebp], ecx

; 961  : 		helpMode = charObj[no].helpMode;

  000a7	69 45 e8 0c 01
	00 00		 imul	 eax, DWORD PTR _no$[ebp], 268
  000ae	0f bf 88 b2 00
	00 00		 movsx	 ecx, WORD PTR ?charObj@@3PAUCHAROBJ@@A[eax+178]
  000b5	89 4d b8	 mov	 DWORD PTR _helpMode$[ebp], ecx
$LN6@drawCharSt:

; 962  : 	}
; 963  : 
; 964  : #ifdef 人物光环
; 965  : 	if (ext->ptmManorIcon) {

  000b8	8b 45 f4	 mov	 eax, DWORD PTR _ext$[ebp]
  000bb	83 78 14 00	 cmp	 DWORD PTR [eax+20], 0
  000bf	0f 84 4b 01 00
	00		 je	 $LN13@drawCharSt

; 966  : 		{
; 967  : 			int 人物屏蔽开关 = 0;

  000c5	c7 85 98 fe ff
	ff 00 00 00 00	 mov	 DWORD PTR _人物屏蔽开关$36[ebp], 0

; 968  : 			if (人物屏蔽开关 && ProcNo == PROC_GAME && pc.ptAct != ptAct) {

  000cf	83 bd 98 fe ff
	ff 00		 cmp	 DWORD PTR _人物屏蔽开关$36[ebp], 0
  000d6	74 4f		 je	 SHORT $LN8@drawCharSt
  000d8	83 3d 00 00 00
	00 09		 cmp	 DWORD PTR ?ProcNo@@3IA, 9 ; ProcNo
  000df	75 46		 jne	 SHORT $LN8@drawCharSt
  000e1	a1 ec 50 00 00	 mov	 eax, DWORD PTR ?pc@@3UPC@@A+20716
  000e6	3b 45 08	 cmp	 eax, DWORD PTR _ptAct$[ebp]
  000e9	74 3c		 je	 SHORT $LN8@drawCharSt

; 969  : 				if (ATR_PAT_NO(ext->ptmManorIcon)) {

  000eb	8b 45 f4	 mov	 eax, DWORD PTR _ext$[ebp]
  000ee	8b 48 14	 mov	 ecx, DWORD PTR [eax+20]
  000f1	83 b9 9c 00 00
	00 00		 cmp	 DWORD PTR [ecx+156], 0
  000f8	74 28		 je	 SHORT $LN10@drawCharSt

; 970  : 					ATR_PAT_BAK_NO(ext->ptmManorIcon) = ATR_PAT_NO(ext->ptmManorIcon);

  000fa	8b 45 f4	 mov	 eax, DWORD PTR _ext$[ebp]
  000fd	8b 48 14	 mov	 ecx, DWORD PTR [eax+20]
  00100	8b 55 f4	 mov	 edx, DWORD PTR _ext$[ebp]
  00103	8b 42 14	 mov	 eax, DWORD PTR [edx+20]
  00106	8b 89 9c 00 00
	00		 mov	 ecx, DWORD PTR [ecx+156]
  0010c	89 88 a0 00 00
	00		 mov	 DWORD PTR [eax+160], ecx

; 971  : 					ATR_PAT_NO(ext->ptmManorIcon) = 0;

  00112	8b 45 f4	 mov	 eax, DWORD PTR _ext$[ebp]
  00115	8b 48 14	 mov	 ecx, DWORD PTR [eax+20]
  00118	c7 81 9c 00 00
	00 00 00 00 00	 mov	 DWORD PTR [ecx+156], 0
$LN10@drawCharSt:

; 972  : 				}
; 973  : 
; 974  : 			}
; 975  : 			else {

  00122	e9 e9 00 00 00	 jmp	 $LN13@drawCharSt
$LN8@drawCharSt:

; 976  : 				if (!ATR_PAT_NO(ext->ptmManorIcon)) {

  00127	8b 45 f4	 mov	 eax, DWORD PTR _ext$[ebp]
  0012a	8b 48 14	 mov	 ecx, DWORD PTR [eax+20]
  0012d	83 b9 9c 00 00
	00 00		 cmp	 DWORD PTR [ecx+156], 0
  00134	75 27		 jne	 SHORT $LN12@drawCharSt

; 977  : 					if (ATR_PAT_BAK_NO(ext->ptmManorIcon)) {

  00136	8b 45 f4	 mov	 eax, DWORD PTR _ext$[ebp]
  00139	8b 48 14	 mov	 ecx, DWORD PTR [eax+20]
  0013c	83 b9 a0 00 00
	00 00		 cmp	 DWORD PTR [ecx+160], 0
  00143	74 18		 je	 SHORT $LN12@drawCharSt

; 978  : 						ATR_PAT_NO(ext->ptmManorIcon) = ATR_PAT_BAK_NO(ext->ptmManorIcon);

  00145	8b 45 f4	 mov	 eax, DWORD PTR _ext$[ebp]
  00148	8b 48 14	 mov	 ecx, DWORD PTR [eax+20]
  0014b	8b 55 f4	 mov	 edx, DWORD PTR _ext$[ebp]
  0014e	8b 42 14	 mov	 eax, DWORD PTR [edx+20]
  00151	8b 89 a0 00 00
	00		 mov	 ecx, DWORD PTR [ecx+160]
  00157	89 88 9c 00 00
	00		 mov	 DWORD PTR [eax+156], ecx
$LN12@drawCharSt:

; 979  : 					}
; 980  : 				}
; 981  : 				short x1, y1;
; 982  : 				if (获取动画尺寸(ptAct, &x1, &y1)) {

  0015d	8d 85 80 fe ff
	ff		 lea	 eax, DWORD PTR _y1$34[ebp]
  00163	50		 push	 eax
  00164	8d 8d 8c fe ff
	ff		 lea	 ecx, DWORD PTR _x1$35[ebp]
  0016a	51		 push	 ecx
  0016b	8b 55 08	 mov	 edx, DWORD PTR _ptAct$[ebp]
  0016e	52		 push	 edx
  0016f	e8 00 00 00 00	 call	 ?获取动画尺寸@@YAHPAUaction@@PAF1@Z ; 获取动画尺寸
  00174	83 c4 0c	 add	 esp, 12			; 0000000cH
  00177	85 c0		 test	 eax, eax
  00179	0f 84 91 00 00
	00		 je	 $LN13@drawCharSt

; 983  : 					ext->ptmManorIcon->x = ptAct->x;

  0017f	8b 45 f4	 mov	 eax, DWORD PTR _ext$[ebp]
  00182	8b 48 14	 mov	 ecx, DWORD PTR [eax+20]
  00185	8b 55 08	 mov	 edx, DWORD PTR _ptAct$[ebp]
  00188	8b 42 18	 mov	 eax, DWORD PTR [edx+24]
  0018b	89 41 18	 mov	 DWORD PTR [ecx+24], eax

; 984  : 					ext->ptmManorIcon->y = ptAct->y;

  0018e	8b 45 f4	 mov	 eax, DWORD PTR _ext$[ebp]
  00191	8b 48 14	 mov	 ecx, DWORD PTR [eax+20]
  00194	8b 55 08	 mov	 edx, DWORD PTR _ptAct$[ebp]
  00197	8b 42 1c	 mov	 eax, DWORD PTR [edx+28]
  0019a	89 41 1c	 mov	 DWORD PTR [ecx+28], eax

; 985  : 					ext->ptmManorIcon->mx = ptAct->mx;

  0019d	8b 45 f4	 mov	 eax, DWORD PTR _ext$[ebp]
  001a0	8b 48 14	 mov	 ecx, DWORD PTR [eax+20]
  001a3	8b 55 08	 mov	 edx, DWORD PTR _ptAct$[ebp]
  001a6	8b 82 18 01 00
	00		 mov	 eax, DWORD PTR [edx+280]
  001ac	89 81 18 01 00
	00		 mov	 DWORD PTR [ecx+280], eax

; 986  : 					ext->ptmManorIcon->my = ptAct->my;

  001b2	8b 45 f4	 mov	 eax, DWORD PTR _ext$[ebp]
  001b5	8b 48 14	 mov	 ecx, DWORD PTR [eax+20]
  001b8	8b 55 08	 mov	 edx, DWORD PTR _ptAct$[ebp]
  001bb	8b 82 1c 01 00
	00		 mov	 eax, DWORD PTR [edx+284]
  001c1	89 81 1c 01 00
	00		 mov	 DWORD PTR [ecx+284], eax

; 987  : 					pattern(ext->ptmManorIcon, ANM_NOMAL_SPD, ANM_LOOP);

  001c7	6a 00		 push	 0
  001c9	6a 00		 push	 0
  001cb	8b 45 f4	 mov	 eax, DWORD PTR _ext$[ebp]
  001ce	8b 48 14	 mov	 ecx, DWORD PTR [eax+20]
  001d1	51		 push	 ecx
  001d2	e8 00 00 00 00	 call	 ?pattern@@YAHPAUaction@@HH@Z ; pattern
  001d7	83 c4 0c	 add	 esp, 12			; 0000000cH

; 988  : #ifdef _CAX_STOP_TEXIAO
; 989  : 					extern int stoptxkk;
; 990  : 					if (stoptxkk == 0) {
; 991  : #endif
; 992  : 						StockDispBuffer2(ext->ptmManorIcon->x, ext->ptmManorIcon->y, ext->ptmManorIcon->dispPrio, ext->ptmManorIcon->bmpNo, 0);

  001da	6a 00		 push	 0
  001dc	8b 45 f4	 mov	 eax, DWORD PTR _ext$[ebp]
  001df	8b 48 14	 mov	 ecx, DWORD PTR [eax+20]
  001e2	8b 91 9c 00 00
	00		 mov	 edx, DWORD PTR [ecx+156]
  001e8	52		 push	 edx
  001e9	8b 45 f4	 mov	 eax, DWORD PTR _ext$[ebp]
  001ec	8b 48 14	 mov	 ecx, DWORD PTR [eax+20]
  001ef	0f b6 51 15	 movzx	 edx, BYTE PTR [ecx+21]
  001f3	52		 push	 edx
  001f4	8b 45 f4	 mov	 eax, DWORD PTR _ext$[ebp]
  001f7	8b 48 14	 mov	 ecx, DWORD PTR [eax+20]
  001fa	8b 51 1c	 mov	 edx, DWORD PTR [ecx+28]
  001fd	52		 push	 edx
  001fe	8b 45 f4	 mov	 eax, DWORD PTR _ext$[ebp]
  00201	8b 48 14	 mov	 ecx, DWORD PTR [eax+20]
  00204	8b 51 18	 mov	 edx, DWORD PTR [ecx+24]
  00207	52		 push	 edx
  00208	e8 00 00 00 00	 call	 ?StockDispBuffer2@@YAHHHEHH@Z ; StockDispBuffer2
  0020d	83 c4 14	 add	 esp, 20			; 00000014H
$LN13@drawCharSt:

; 993  : #ifdef _CAX_STOP_TEXIAO
; 994  : 					}
; 995  : #endif
; 996  : 				}
; 997  : 			}
; 998  : 		}
; 999  : 	}
; 1000 : #endif
; 1001 : 
; 1002 : #ifdef 人物称号
; 1003 : 	if (ext->ptTitleIcon) {//这里删除掉就可以走动显示

  00210	8b 45 f4	 mov	 eax, DWORD PTR _ext$[ebp]
  00213	83 78 18 00	 cmp	 DWORD PTR [eax+24], 0
  00217	0f 84 98 01 00
	00		 je	 $LN20@drawCharSt

; 1004 : 		{
; 1005 : 			int 人物屏蔽开关 = 0;

  0021d	c7 85 74 fe ff
	ff 00 00 00 00	 mov	 DWORD PTR _人物屏蔽开关$33[ebp], 0

; 1006 : 			if (人物屏蔽开关 && ProcNo == PROC_GAME && pc.ptAct != ptAct) {

  00227	83 bd 74 fe ff
	ff 00		 cmp	 DWORD PTR _人物屏蔽开关$33[ebp], 0
  0022e	74 4f		 je	 SHORT $LN15@drawCharSt
  00230	83 3d 00 00 00
	00 09		 cmp	 DWORD PTR ?ProcNo@@3IA, 9 ; ProcNo
  00237	75 46		 jne	 SHORT $LN15@drawCharSt
  00239	a1 ec 50 00 00	 mov	 eax, DWORD PTR ?pc@@3UPC@@A+20716
  0023e	3b 45 08	 cmp	 eax, DWORD PTR _ptAct$[ebp]
  00241	74 3c		 je	 SHORT $LN15@drawCharSt

; 1007 : 				if (ATR_PAT_NO(ext->ptTitleIcon)) {

  00243	8b 45 f4	 mov	 eax, DWORD PTR _ext$[ebp]
  00246	8b 48 18	 mov	 ecx, DWORD PTR [eax+24]
  00249	83 b9 9c 00 00
	00 00		 cmp	 DWORD PTR [ecx+156], 0
  00250	74 28		 je	 SHORT $LN17@drawCharSt

; 1008 : 					ATR_PAT_BAK_NO(ext->ptTitleIcon) = ATR_PAT_NO(ext->ptTitleIcon);

  00252	8b 45 f4	 mov	 eax, DWORD PTR _ext$[ebp]
  00255	8b 48 18	 mov	 ecx, DWORD PTR [eax+24]
  00258	8b 55 f4	 mov	 edx, DWORD PTR _ext$[ebp]
  0025b	8b 42 18	 mov	 eax, DWORD PTR [edx+24]
  0025e	8b 89 9c 00 00
	00		 mov	 ecx, DWORD PTR [ecx+156]
  00264	89 88 a0 00 00
	00		 mov	 DWORD PTR [eax+160], ecx

; 1009 : 					ATR_PAT_NO(ext->ptTitleIcon) = 0;

  0026a	8b 45 f4	 mov	 eax, DWORD PTR _ext$[ebp]
  0026d	8b 48 18	 mov	 ecx, DWORD PTR [eax+24]
  00270	c7 81 9c 00 00
	00 00 00 00 00	 mov	 DWORD PTR [ecx+156], 0
$LN17@drawCharSt:

; 1010 : 				}
; 1011 : 			}else{

  0027a	e9 36 01 00 00	 jmp	 $LN20@drawCharSt
$LN15@drawCharSt:

; 1012 : 				if (!ATR_PAT_NO(ext->ptTitleIcon)) {

  0027f	8b 45 f4	 mov	 eax, DWORD PTR _ext$[ebp]
  00282	8b 48 18	 mov	 ecx, DWORD PTR [eax+24]
  00285	83 b9 9c 00 00
	00 00		 cmp	 DWORD PTR [ecx+156], 0
  0028c	75 27		 jne	 SHORT $LN19@drawCharSt

; 1013 : 					if (ATR_PAT_BAK_NO(ext->ptTitleIcon)) {

  0028e	8b 45 f4	 mov	 eax, DWORD PTR _ext$[ebp]
  00291	8b 48 18	 mov	 ecx, DWORD PTR [eax+24]
  00294	83 b9 a0 00 00
	00 00		 cmp	 DWORD PTR [ecx+160], 0
  0029b	74 18		 je	 SHORT $LN19@drawCharSt

; 1014 : 						ATR_PAT_NO(ext->ptTitleIcon) = ATR_PAT_BAK_NO(ext->ptTitleIcon);

  0029d	8b 45 f4	 mov	 eax, DWORD PTR _ext$[ebp]
  002a0	8b 48 18	 mov	 ecx, DWORD PTR [eax+24]
  002a3	8b 55 f4	 mov	 edx, DWORD PTR _ext$[ebp]
  002a6	8b 42 18	 mov	 eax, DWORD PTR [edx+24]
  002a9	8b 89 a0 00 00
	00		 mov	 ecx, DWORD PTR [ecx+160]
  002af	89 88 9c 00 00
	00		 mov	 DWORD PTR [eax+156], ecx
$LN19@drawCharSt:

; 1015 : 					}
; 1016 : 				}
; 1017 : 				short x1, y1, x2, y2;
; 1018 : 				y2 = x2 = 0;

  002b5	33 c0		 xor	 eax, eax
  002b7	66 89 85 50 fe
	ff ff		 mov	 WORD PTR _x2$30[ebp], ax
  002be	66 8b 8d 50 fe
	ff ff		 mov	 cx, WORD PTR _x2$30[ebp]
  002c5	66 89 8d 44 fe
	ff ff		 mov	 WORD PTR _y2$29[ebp], cx

; 1019 : 				if (获取动画尺寸(ptAct, &x1, &y1)) {

  002cc	8d 85 5c fe ff
	ff		 lea	 eax, DWORD PTR _y1$31[ebp]
  002d2	50		 push	 eax
  002d3	8d 8d 68 fe ff
	ff		 lea	 ecx, DWORD PTR _x1$32[ebp]
  002d9	51		 push	 ecx
  002da	8b 55 08	 mov	 edx, DWORD PTR _ptAct$[ebp]
  002dd	52		 push	 edx
  002de	e8 00 00 00 00	 call	 ?获取动画尺寸@@YAHPAUaction@@PAF1@Z ; 获取动画尺寸
  002e3	83 c4 0c	 add	 esp, 12			; 0000000cH
  002e6	85 c0		 test	 eax, eax
  002e8	0f 84 c7 00 00
	00		 je	 $LN20@drawCharSt

; 1020 : 					ext->ptTitleIcon->x = ptAct->x;

  002ee	8b 45 f4	 mov	 eax, DWORD PTR _ext$[ebp]
  002f1	8b 48 18	 mov	 ecx, DWORD PTR [eax+24]
  002f4	8b 55 08	 mov	 edx, DWORD PTR _ptAct$[ebp]
  002f7	8b 42 18	 mov	 eax, DWORD PTR [edx+24]
  002fa	89 41 18	 mov	 DWORD PTR [ecx+24], eax

; 1021 : 					ext->ptTitleIcon->y = ptAct->y;

  002fd	8b 45 f4	 mov	 eax, DWORD PTR _ext$[ebp]
  00300	8b 48 18	 mov	 ecx, DWORD PTR [eax+24]
  00303	8b 55 08	 mov	 edx, DWORD PTR _ptAct$[ebp]
  00306	8b 42 1c	 mov	 eax, DWORD PTR [edx+28]
  00309	89 41 1c	 mov	 DWORD PTR [ecx+28], eax

; 1022 : 					ext->ptTitleIcon->mx = ptAct->mx;

  0030c	8b 45 f4	 mov	 eax, DWORD PTR _ext$[ebp]
  0030f	8b 48 18	 mov	 ecx, DWORD PTR [eax+24]
  00312	8b 55 08	 mov	 edx, DWORD PTR _ptAct$[ebp]
  00315	8b 82 18 01 00
	00		 mov	 eax, DWORD PTR [edx+280]
  0031b	89 81 18 01 00
	00		 mov	 DWORD PTR [ecx+280], eax

; 1023 : 					ext->ptTitleIcon->my = ptAct->my;

  00321	8b 45 f4	 mov	 eax, DWORD PTR _ext$[ebp]
  00324	8b 48 18	 mov	 ecx, DWORD PTR [eax+24]
  00327	8b 55 08	 mov	 edx, DWORD PTR _ptAct$[ebp]
  0032a	8b 82 1c 01 00
	00		 mov	 eax, DWORD PTR [edx+284]
  00330	89 81 1c 01 00
	00		 mov	 DWORD PTR [ecx+284], eax

; 1024 : 					pattern(ext->ptTitleIcon, ANM_NOMAL_SPD, ANM_LOOP);

  00336	6a 00		 push	 0
  00338	6a 00		 push	 0
  0033a	8b 45 f4	 mov	 eax, DWORD PTR _ext$[ebp]
  0033d	8b 48 18	 mov	 ecx, DWORD PTR [eax+24]
  00340	51		 push	 ecx
  00341	e8 00 00 00 00	 call	 ?pattern@@YAHPAUaction@@HH@Z ; pattern
  00346	83 c4 0c	 add	 esp, 12			; 0000000cH

; 1025 : 					//if (ext->ptFamilyIcon) {  //家族徽章
; 1026 : 					//	x2 = 10;
; 1027 : 					//}
; 1028 : #ifdef _CAX_STOP_TEXIAO
; 1029 : 					extern int stoptxkk;
; 1030 : 					if (stoptxkk == 0) {
; 1031 : #endif
; 1032 : 						setCharPrio(ext->ptTitleIcon->bmpNo,

  00349	8b 45 f4	 mov	 eax, DWORD PTR _ext$[ebp]
  0034c	8b 48 18	 mov	 ecx, DWORD PTR [eax+24]
  0034f	51		 push	 ecx
  00350	f3 0f 10 81 1c
	01 00 00	 movss	 xmm0, DWORD PTR [ecx+284]
  00358	f3 0f 11 04 24	 movss	 DWORD PTR [esp], xmm0
  0035d	8b 55 f4	 mov	 edx, DWORD PTR _ext$[ebp]
  00360	8b 42 18	 mov	 eax, DWORD PTR [edx+24]
  00363	51		 push	 ecx
  00364	f3 0f 10 80 18
	01 00 00	 movss	 xmm0, DWORD PTR [eax+280]
  0036c	f3 0f 11 04 24	 movss	 DWORD PTR [esp], xmm0
  00371	0f bf 85 5c fe
	ff ff		 movsx	 eax, WORD PTR _y1$31[ebp]
  00378	99		 cdq
  00379	2b c2		 sub	 eax, edx
  0037b	d1 f8		 sar	 eax, 1
  0037d	83 c0 2d	 add	 eax, 45			; 0000002dH
  00380	f7 d8		 neg	 eax
  00382	50		 push	 eax
  00383	6a 00		 push	 0
  00385	8b 4d f4	 mov	 ecx, DWORD PTR _ext$[ebp]
  00388	8b 51 18	 mov	 edx, DWORD PTR [ecx+24]
  0038b	8b 42 1c	 mov	 eax, DWORD PTR [edx+28]
  0038e	50		 push	 eax
  0038f	8b 4d f4	 mov	 ecx, DWORD PTR _ext$[ebp]
  00392	8b 51 18	 mov	 edx, DWORD PTR [ecx+24]
  00395	0f bf 85 50 fe
	ff ff		 movsx	 eax, WORD PTR _x2$30[ebp]
  0039c	03 42 18	 add	 eax, DWORD PTR [edx+24]
  0039f	50		 push	 eax
  003a0	8b 4d f4	 mov	 ecx, DWORD PTR _ext$[ebp]
  003a3	8b 51 18	 mov	 edx, DWORD PTR [ecx+24]
  003a6	8b 82 9c 00 00
	00		 mov	 eax, DWORD PTR [edx+156]
  003ac	50		 push	 eax
  003ad	e8 00 00 00 00	 call	 ?setCharPrio@@YAXHHHHHMM@Z ; setCharPrio
  003b2	83 c4 1c	 add	 esp, 28			; 0000001cH
$LN20@drawCharSt:

; 1033 : 							ext->ptTitleIcon->x + x2, ext->ptTitleIcon->y, 0, -(y1 / 2 +45),
; 1034 : 							ext->ptTitleIcon->mx, ext->ptTitleIcon->my
; 1035 : #ifdef _SFUMATO
; 1036 : 							, ptAct->sfumato
; 1037 : #endif
; 1038 : 						);
; 1039 : 
; 1040 : 
; 1041 : 					}
; 1042 : #ifdef _CAX_STOP_TEXIAO
; 1043 : 				}
; 1044 : #endif
; 1045 : 			}
; 1046 : 		}
; 1047 : 	}
; 1048 : #endif
; 1049 : 
; 1050 : 
; 1051 : 	if( (status & CHR_STATUS_BATTLE) != 0 ){

  003b5	8b 45 dc	 mov	 eax, DWORD PTR _status$[ebp]
  003b8	25 00 04 00 00	 and	 eax, 1024		; 00000400H
  003bd	0f 84 b3 00 00
	00		 je	 $LN21@drawCharSt

; 1052 : 		int no;
; 1053 : 		U4 bmpNo;
; 1054 : 		no = (ptAct->anim_chr_no - SPR_001em) / 20;

  003c3	8b 45 08	 mov	 eax, DWORD PTR _ptAct$[ebp]
  003c6	8b 80 44 01 00
	00		 mov	 eax, DWORD PTR [eax+324]
  003cc	2d a0 86 01 00	 sub	 eax, 100000		; 000186a0H
  003d1	99		 cdq
  003d2	b9 14 00 00 00	 mov	 ecx, 20			; 00000014H
  003d7	f7 f9		 idiv	 ecx
  003d9	89 85 38 fe ff
	ff		 mov	 DWORD PTR _no$28[ebp], eax

; 1055 : 		no %= 12;

  003df	8b 85 38 fe ff
	ff		 mov	 eax, DWORD PTR _no$28[ebp]
  003e5	99		 cdq
  003e6	b9 0c 00 00 00	 mov	 ecx, 12			; 0000000cH
  003eb	f7 f9		 idiv	 ecx
  003ed	89 95 38 fe ff
	ff		 mov	 DWORD PTR _no$28[ebp], edx

; 1056 : 		realGetNo( battleIconTbl[(battleNo%10)][(sideNo%1)], &bmpNo );

  003f3	8d 85 2c fe ff
	ff		 lea	 eax, DWORD PTR _bmpNo$27[ebp]
  003f9	50		 push	 eax
  003fa	8b 45 d0	 mov	 eax, DWORD PTR _battleNo$[ebp]
  003fd	99		 cdq
  003fe	b9 0a 00 00 00	 mov	 ecx, 10			; 0000000aH
  00403	f7 f9		 idiv	 ecx
  00405	8b 45 c4	 mov	 eax, DWORD PTR _sideNo$[ebp]
  00408	25 00 00 00 80	 and	 eax, -2147483648	; 80000000H
  0040d	79 05		 jns	 SHORT $LN124@drawCharSt
  0040f	48		 dec	 eax
  00410	83 c8 ff	 or	 eax, -1
  00413	40		 inc	 eax
$LN124@drawCharSt:
  00414	c1 e0 02	 shl	 eax, 2
  00417	8b 8c d0 00 00
	00 00		 mov	 ecx, DWORD PTR ?battleIconTbl@@3PAY01HA[eax+edx*8]
  0041e	51		 push	 ecx
  0041f	e8 00 00 00 00	 call	 ?realGetNo@@YAHKPAK@Z	; realGetNo
  00424	83 c4 08	 add	 esp, 8

; 1057 : 		setCharPrio( bmpNo, ptAct->x, ptAct->y, 0, charIconOffsetY[no], ptAct->mx, ptAct->my );

  00427	8b 45 08	 mov	 eax, DWORD PTR _ptAct$[ebp]
  0042a	51		 push	 ecx
  0042b	f3 0f 10 80 1c
	01 00 00	 movss	 xmm0, DWORD PTR [eax+284]
  00433	f3 0f 11 04 24	 movss	 DWORD PTR [esp], xmm0
  00438	8b 4d 08	 mov	 ecx, DWORD PTR _ptAct$[ebp]
  0043b	51		 push	 ecx
  0043c	f3 0f 10 81 18
	01 00 00	 movss	 xmm0, DWORD PTR [ecx+280]
  00444	f3 0f 11 04 24	 movss	 DWORD PTR [esp], xmm0
  00449	8b 95 38 fe ff
	ff		 mov	 edx, DWORD PTR _no$28[ebp]
  0044f	8b 04 95 00 00
	00 00		 mov	 eax, DWORD PTR ?charIconOffsetY@@3PAHA[edx*4]
  00456	50		 push	 eax
  00457	6a 00		 push	 0
  00459	8b 4d 08	 mov	 ecx, DWORD PTR _ptAct$[ebp]
  0045c	8b 51 1c	 mov	 edx, DWORD PTR [ecx+28]
  0045f	52		 push	 edx
  00460	8b 45 08	 mov	 eax, DWORD PTR _ptAct$[ebp]
  00463	8b 48 18	 mov	 ecx, DWORD PTR [eax+24]
  00466	51		 push	 ecx
  00467	8b 95 2c fe ff
	ff		 mov	 edx, DWORD PTR _bmpNo$27[ebp]
  0046d	52		 push	 edx
  0046e	e8 00 00 00 00	 call	 ?setCharPrio@@YAXHHHHHMM@Z ; setCharPrio
  00473	83 c4 1c	 add	 esp, 28			; 0000001cH
$LN21@drawCharSt:

; 1058 : 	}
; 1059 : 	// Trade Mark
; 1060 : 	if( (status & CHR_STATUS_TRADE) != 0 ){

  00476	8b 45 dc	 mov	 eax, DWORD PTR _status$[ebp]
  00479	25 00 80 00 00	 and	 eax, 32768		; 00008000H
  0047e	0f 84 93 00 00
	00		 je	 $LN22@drawCharSt

; 1061 : 		int no;
; 1062 : 		U4 bmpNo;
; 1063 : 		no = (ptAct->anim_chr_no - SPR_001em) / 20;

  00484	8b 45 08	 mov	 eax, DWORD PTR _ptAct$[ebp]
  00487	8b 80 44 01 00
	00		 mov	 eax, DWORD PTR [eax+324]
  0048d	2d a0 86 01 00	 sub	 eax, 100000		; 000186a0H
  00492	99		 cdq
  00493	b9 14 00 00 00	 mov	 ecx, 20			; 00000014H
  00498	f7 f9		 idiv	 ecx
  0049a	89 85 20 fe ff
	ff		 mov	 DWORD PTR _no$26[ebp], eax

; 1064 : 		no %= 12;

  004a0	8b 85 20 fe ff
	ff		 mov	 eax, DWORD PTR _no$26[ebp]
  004a6	99		 cdq
  004a7	b9 0c 00 00 00	 mov	 ecx, 12			; 0000000cH
  004ac	f7 f9		 idiv	 ecx
  004ae	89 95 20 fe ff
	ff		 mov	 DWORD PTR _no$26[ebp], edx

; 1065 : 		realGetNo( CG_TRADE_MARK, &bmpNo );		

  004b4	8d 85 14 fe ff
	ff		 lea	 eax, DWORD PTR _bmpNo$25[ebp]
  004ba	50		 push	 eax
  004bb	68 86 66 00 00	 push	 26246			; 00006686H
  004c0	e8 00 00 00 00	 call	 ?realGetNo@@YAHKPAK@Z	; realGetNo
  004c5	83 c4 08	 add	 esp, 8

; 1066 : 		setCharPrio( bmpNo, ptAct->x, ptAct->y, 0, charIconOffsetY[no], ptAct->mx, ptAct->my );

  004c8	8b 45 08	 mov	 eax, DWORD PTR _ptAct$[ebp]
  004cb	51		 push	 ecx
  004cc	f3 0f 10 80 1c
	01 00 00	 movss	 xmm0, DWORD PTR [eax+284]
  004d4	f3 0f 11 04 24	 movss	 DWORD PTR [esp], xmm0
  004d9	8b 4d 08	 mov	 ecx, DWORD PTR _ptAct$[ebp]
  004dc	51		 push	 ecx
  004dd	f3 0f 10 81 18
	01 00 00	 movss	 xmm0, DWORD PTR [ecx+280]
  004e5	f3 0f 11 04 24	 movss	 DWORD PTR [esp], xmm0
  004ea	8b 95 20 fe ff
	ff		 mov	 edx, DWORD PTR _no$26[ebp]
  004f0	8b 04 95 00 00
	00 00		 mov	 eax, DWORD PTR ?charIconOffsetY@@3PAHA[edx*4]
  004f7	50		 push	 eax
  004f8	6a 00		 push	 0
  004fa	8b 4d 08	 mov	 ecx, DWORD PTR _ptAct$[ebp]
  004fd	8b 51 1c	 mov	 edx, DWORD PTR [ecx+28]
  00500	52		 push	 edx
  00501	8b 45 08	 mov	 eax, DWORD PTR _ptAct$[ebp]
  00504	8b 48 18	 mov	 ecx, DWORD PTR [eax+24]
  00507	51		 push	 ecx
  00508	8b 95 14 fe ff
	ff		 mov	 edx, DWORD PTR _bmpNo$25[ebp]
  0050e	52		 push	 edx
  0050f	e8 00 00 00 00	 call	 ?setCharPrio@@YAXHHHHHMM@Z ; setCharPrio
  00514	83 c4 1c	 add	 esp, 28			; 0000001cH
$LN22@drawCharSt:

; 1067 : 	}
; 1068 : 
; 1069 : #ifdef _ANGEL_SUMMON
; 1070 : 	if( (status & CHR_STATUS_ANGEL) != 0  && ext->ptActAngelMark == NULL ) {

  00517	8b 45 dc	 mov	 eax, DWORD PTR _status$[ebp]
  0051a	25 00 00 01 00	 and	 eax, 65536		; 00010000H
  0051f	74 3b		 je	 SHORT $LN23@drawCharSt
  00521	8b 45 f4	 mov	 eax, DWORD PTR _ext$[ebp]
  00524	83 78 20 00	 cmp	 DWORD PTR [eax+32], 0
  00528	75 32		 jne	 SHORT $LN23@drawCharSt

; 1071 : 		//if( g_bUseAlpha )
; 1072 : 		//	ext->ptActAngelMark =createCommmonEffectAction( 101812, ptAct->gx, ptAct->gy, 0, 0, DISP_PRIO_CHAR );  // JL fix图档可能有错误
; 1073 : 		//else
; 1074 : 			ext->ptActAngelMark =createCommmonEffectAction( 101865, ptAct->gx, ptAct->gy, 0, 0, DISP_PRIO_CHAR );

  0052a	6a 0a		 push	 10			; 0000000aH
  0052c	6a 00		 push	 0
  0052e	6a 00		 push	 0
  00530	8b 45 08	 mov	 eax, DWORD PTR _ptAct$[ebp]
  00533	8b 88 b8 00 00
	00		 mov	 ecx, DWORD PTR [eax+184]
  00539	51		 push	 ecx
  0053a	8b 55 08	 mov	 edx, DWORD PTR _ptAct$[ebp]
  0053d	8b 82 b4 00 00
	00		 mov	 eax, DWORD PTR [edx+180]
  00543	50		 push	 eax
  00544	68 e9 8d 01 00	 push	 101865			; 00018de9H
  00549	e8 00 00 00 00	 call	 ?createCommmonEffectAction@@YAPAUaction@@HHHHHH@Z ; createCommmonEffectAction
  0054e	83 c4 18	 add	 esp, 24			; 00000018H
  00551	8b 4d f4	 mov	 ecx, DWORD PTR _ext$[ebp]
  00554	89 41 20	 mov	 DWORD PTR [ecx+32], eax
  00557	e9 48 01 00 00	 jmp	 $LN27@drawCharSt
$LN23@drawCharSt:

; 1075 : 
; 1076 : 	}else if( (status & CHR_STATUS_ANGEL) == 0 && ext->ptActAngelMark != NULL ) {

  0055c	8b 45 dc	 mov	 eax, DWORD PTR _status$[ebp]
  0055f	25 00 00 01 00	 and	 eax, 65536		; 00010000H
  00564	75 27		 jne	 SHORT $LN25@drawCharSt
  00566	8b 45 f4	 mov	 eax, DWORD PTR _ext$[ebp]
  00569	83 78 20 00	 cmp	 DWORD PTR [eax+32], 0
  0056d	74 1e		 je	 SHORT $LN25@drawCharSt

; 1077 : 		// ??????????????
; 1078 : 		DeathAction( ext->ptActAngelMark );

  0056f	8b 45 f4	 mov	 eax, DWORD PTR _ext$[ebp]
  00572	8b 48 20	 mov	 ecx, DWORD PTR [eax+32]
  00575	51		 push	 ecx
  00576	e8 00 00 00 00	 call	 ?DeathAction@@YAXPAUaction@@@Z ; DeathAction
  0057b	83 c4 04	 add	 esp, 4

; 1079 : 		ext->ptActAngelMark = NULL;

  0057e	8b 45 f4	 mov	 eax, DWORD PTR _ext$[ebp]
  00581	c7 40 20 00 00
	00 00		 mov	 DWORD PTR [eax+32], 0
  00588	e9 17 01 00 00	 jmp	 $LN27@drawCharSt
$LN25@drawCharSt:

; 1080 : 	}else if( (status & CHR_STATUS_ANGEL) != 0 && ext->ptActAngelMark != NULL ) {

  0058d	8b 45 dc	 mov	 eax, DWORD PTR _status$[ebp]
  00590	25 00 00 01 00	 and	 eax, 65536		; 00010000H
  00595	0f 84 09 01 00
	00		 je	 $LN27@drawCharSt
  0059b	8b 45 f4	 mov	 eax, DWORD PTR _ext$[ebp]
  0059e	83 78 20 00	 cmp	 DWORD PTR [eax+32], 0
  005a2	0f 84 fc 00 00
	00		 je	 $LN27@drawCharSt

; 1081 : 		int no;
; 1082 : 		no = (ptAct->anim_chr_no - SPR_001em) / 20;

  005a8	8b 45 08	 mov	 eax, DWORD PTR _ptAct$[ebp]
  005ab	8b 80 44 01 00
	00		 mov	 eax, DWORD PTR [eax+324]
  005b1	2d a0 86 01 00	 sub	 eax, 100000		; 000186a0H
  005b6	99		 cdq
  005b7	b9 14 00 00 00	 mov	 ecx, 20			; 00000014H
  005bc	f7 f9		 idiv	 ecx
  005be	89 85 08 fe ff
	ff		 mov	 DWORD PTR _no$24[ebp], eax

; 1083 : 		no %= 12;	// P??????h???

  005c4	8b 85 08 fe ff
	ff		 mov	 eax, DWORD PTR _no$24[ebp]
  005ca	99		 cdq
  005cb	b9 0c 00 00 00	 mov	 ecx, 12			; 0000000cH
  005d0	f7 f9		 idiv	 ecx
  005d2	89 95 08 fe ff
	ff		 mov	 DWORD PTR _no$24[ebp], edx

; 1084 : 		// ???????????????
; 1085 : 		ext->ptActAngelMark->x  = ptAct->x;

  005d8	8b 45 f4	 mov	 eax, DWORD PTR _ext$[ebp]
  005db	8b 48 20	 mov	 ecx, DWORD PTR [eax+32]
  005de	8b 55 08	 mov	 edx, DWORD PTR _ptAct$[ebp]
  005e1	8b 42 18	 mov	 eax, DWORD PTR [edx+24]
  005e4	89 41 18	 mov	 DWORD PTR [ecx+24], eax

; 1086 : 		ext->ptActAngelMark->y  = ptAct->y + ptAct->anim_y + 140;

  005e7	8b 45 08	 mov	 eax, DWORD PTR _ptAct$[ebp]
  005ea	8b 48 1c	 mov	 ecx, DWORD PTR [eax+28]
  005ed	8b 55 08	 mov	 edx, DWORD PTR _ptAct$[ebp]
  005f0	8b 82 68 01 00
	00		 mov	 eax, DWORD PTR [edx+360]
  005f6	8d 8c 01 8c 00
	00 00		 lea	 ecx, DWORD PTR [ecx+eax+140]
  005fd	8b 55 f4	 mov	 edx, DWORD PTR _ext$[ebp]
  00600	8b 42 20	 mov	 eax, DWORD PTR [edx+32]
  00603	89 48 1c	 mov	 DWORD PTR [eax+28], ecx

; 1087 : 		ext->ptActAngelMark->mx = ptAct->mx;

  00606	8b 45 f4	 mov	 eax, DWORD PTR _ext$[ebp]
  00609	8b 48 20	 mov	 ecx, DWORD PTR [eax+32]
  0060c	8b 55 08	 mov	 edx, DWORD PTR _ptAct$[ebp]
  0060f	8b 82 18 01 00
	00		 mov	 eax, DWORD PTR [edx+280]
  00615	89 81 18 01 00
	00		 mov	 DWORD PTR [ecx+280], eax

; 1088 : 		ext->ptActAngelMark->my = ptAct->my;

  0061b	8b 45 f4	 mov	 eax, DWORD PTR _ext$[ebp]
  0061e	8b 48 20	 mov	 ecx, DWORD PTR [eax+32]
  00621	8b 55 08	 mov	 edx, DWORD PTR _ptAct$[ebp]
  00624	8b 82 1c 01 00
	00		 mov	 eax, DWORD PTR [edx+284]
  0062a	89 81 1c 01 00
	00		 mov	 DWORD PTR [ecx+284], eax

; 1089 : 		// ?????????
; 1090 : 		pattern( ext->ptActAngelMark, ANM_NOMAL_SPD, ANM_LOOP );

  00630	6a 00		 push	 0
  00632	6a 00		 push	 0
  00634	8b 45 f4	 mov	 eax, DWORD PTR _ext$[ebp]
  00637	8b 48 20	 mov	 ecx, DWORD PTR [eax+32]
  0063a	51		 push	 ecx
  0063b	e8 00 00 00 00	 call	 ?pattern@@YAHPAUaction@@HH@Z ; pattern
  00640	83 c4 0c	 add	 esp, 12			; 0000000cH

; 1091 : 		// ??????????????
; 1092 : 		setCharPrio( ext->ptActAngelMark->bmpNo,

  00643	8b 45 f4	 mov	 eax, DWORD PTR _ext$[ebp]
  00646	8b 48 20	 mov	 ecx, DWORD PTR [eax+32]
  00649	51		 push	 ecx
  0064a	f3 0f 10 81 1c
	01 00 00	 movss	 xmm0, DWORD PTR [ecx+284]
  00652	f3 0f 11 04 24	 movss	 DWORD PTR [esp], xmm0
  00657	8b 55 f4	 mov	 edx, DWORD PTR _ext$[ebp]
  0065a	8b 42 20	 mov	 eax, DWORD PTR [edx+32]
  0065d	51		 push	 ecx
  0065e	f3 0f 10 80 18
	01 00 00	 movss	 xmm0, DWORD PTR [eax+280]
  00666	f3 0f 11 04 24	 movss	 DWORD PTR [esp], xmm0
  0066b	8b 8d 08 fe ff
	ff		 mov	 ecx, DWORD PTR _no$24[ebp]
  00671	8b 14 8d 00 00
	00 00		 mov	 edx, DWORD PTR ?charIconOffsetY@@3PAHA[ecx*4]
  00678	52		 push	 edx
  00679	6a 00		 push	 0
  0067b	8b 45 f4	 mov	 eax, DWORD PTR _ext$[ebp]
  0067e	8b 48 20	 mov	 ecx, DWORD PTR [eax+32]
  00681	8b 51 1c	 mov	 edx, DWORD PTR [ecx+28]
  00684	52		 push	 edx
  00685	8b 45 f4	 mov	 eax, DWORD PTR _ext$[ebp]
  00688	8b 48 20	 mov	 ecx, DWORD PTR [eax+32]
  0068b	8b 51 18	 mov	 edx, DWORD PTR [ecx+24]
  0068e	52		 push	 edx
  0068f	8b 45 f4	 mov	 eax, DWORD PTR _ext$[ebp]
  00692	8b 48 20	 mov	 ecx, DWORD PTR [eax+32]
  00695	8b 91 9c 00 00
	00		 mov	 edx, DWORD PTR [ecx+156]
  0069b	52		 push	 edx
  0069c	e8 00 00 00 00	 call	 ?setCharPrio@@YAXHHHHHMM@Z ; setCharPrio
  006a1	83 c4 1c	 add	 esp, 28			; 0000001cH
$LN27@drawCharSt:

; 1093 : 			ext->ptActAngelMark->x, ext->ptActAngelMark->y, 0, charIconOffsetY[no],
; 1094 : 				ext->ptActAngelMark->mx, ext->ptActAngelMark->my );
; 1095 : 	}
; 1096 : #endif
; 1097 : 	if( (status & CHR_STATUS_WATCH) != 0 ){

  006a4	8b 45 dc	 mov	 eax, DWORD PTR _status$[ebp]
  006a7	25 00 40 00 00	 and	 eax, 16384		; 00004000H
  006ac	0f 84 93 00 00
	00		 je	 $LN28@drawCharSt

; 1098 : 		int no;
; 1099 : 		U4 bmpNo;
; 1100 : 		no = (ptAct->anim_chr_no - SPR_001em) / 20;

  006b2	8b 45 08	 mov	 eax, DWORD PTR _ptAct$[ebp]
  006b5	8b 80 44 01 00
	00		 mov	 eax, DWORD PTR [eax+324]
  006bb	2d a0 86 01 00	 sub	 eax, 100000		; 000186a0H
  006c0	99		 cdq
  006c1	b9 14 00 00 00	 mov	 ecx, 20			; 00000014H
  006c6	f7 f9		 idiv	 ecx
  006c8	89 85 fc fd ff
	ff		 mov	 DWORD PTR _no$23[ebp], eax

; 1101 : 		no %= 12;

  006ce	8b 85 fc fd ff
	ff		 mov	 eax, DWORD PTR _no$23[ebp]
  006d4	99		 cdq
  006d5	b9 0c 00 00 00	 mov	 ecx, 12			; 0000000cH
  006da	f7 f9		 idiv	 ecx
  006dc	89 95 fc fd ff
	ff		 mov	 DWORD PTR _no$23[ebp], edx

; 1102 : 		realGetNo( CG_ICON_WATCHING, &bmpNo );

  006e2	8d 85 f0 fd ff
	ff		 lea	 eax, DWORD PTR _bmpNo$22[ebp]
  006e8	50		 push	 eax
  006e9	68 87 67 00 00	 push	 26503			; 00006787H
  006ee	e8 00 00 00 00	 call	 ?realGetNo@@YAHKPAK@Z	; realGetNo
  006f3	83 c4 08	 add	 esp, 8

; 1103 : 		setCharPrio( bmpNo, ptAct->x, ptAct->y, 0, charIconOffsetY[no], ptAct->mx, ptAct->my );

  006f6	8b 45 08	 mov	 eax, DWORD PTR _ptAct$[ebp]
  006f9	51		 push	 ecx
  006fa	f3 0f 10 80 1c
	01 00 00	 movss	 xmm0, DWORD PTR [eax+284]
  00702	f3 0f 11 04 24	 movss	 DWORD PTR [esp], xmm0
  00707	8b 4d 08	 mov	 ecx, DWORD PTR _ptAct$[ebp]
  0070a	51		 push	 ecx
  0070b	f3 0f 10 81 18
	01 00 00	 movss	 xmm0, DWORD PTR [ecx+280]
  00713	f3 0f 11 04 24	 movss	 DWORD PTR [esp], xmm0
  00718	8b 95 fc fd ff
	ff		 mov	 edx, DWORD PTR _no$23[ebp]
  0071e	8b 04 95 00 00
	00 00		 mov	 eax, DWORD PTR ?charIconOffsetY@@3PAHA[edx*4]
  00725	50		 push	 eax
  00726	6a 00		 push	 0
  00728	8b 4d 08	 mov	 ecx, DWORD PTR _ptAct$[ebp]
  0072b	8b 51 1c	 mov	 edx, DWORD PTR [ecx+28]
  0072e	52		 push	 edx
  0072f	8b 45 08	 mov	 eax, DWORD PTR _ptAct$[ebp]
  00732	8b 48 18	 mov	 ecx, DWORD PTR [eax+24]
  00735	51		 push	 ecx
  00736	8b 95 f0 fd ff
	ff		 mov	 edx, DWORD PTR _bmpNo$22[ebp]
  0073c	52		 push	 edx
  0073d	e8 00 00 00 00	 call	 ?setCharPrio@@YAXHHHHHMM@Z ; setCharPrio
  00742	83 c4 1c	 add	 esp, 28			; 0000001cH
$LN28@drawCharSt:

; 1104 : 	}
; 1105 : 	if( (status & CHR_STATUS_HELP) != 0 ){

  00745	8b 45 dc	 mov	 eax, DWORD PTR _status$[ebp]
  00748	25 00 10 00 00	 and	 eax, 4096		; 00001000H
  0074d	0f 84 96 00 00
	00		 je	 $LN29@drawCharSt

; 1106 : 		int no;
; 1107 : 		U4 bmpNo;
; 1108 : 		no = (ptAct->anim_chr_no - SPR_001em) / 20;

  00753	8b 45 08	 mov	 eax, DWORD PTR _ptAct$[ebp]
  00756	8b 80 44 01 00
	00		 mov	 eax, DWORD PTR [eax+324]
  0075c	2d a0 86 01 00	 sub	 eax, 100000		; 000186a0H
  00761	99		 cdq
  00762	b9 14 00 00 00	 mov	 ecx, 20			; 00000014H
  00767	f7 f9		 idiv	 ecx
  00769	89 85 e4 fd ff
	ff		 mov	 DWORD PTR _no$21[ebp], eax

; 1109 : 		no %= 12;

  0076f	8b 85 e4 fd ff
	ff		 mov	 eax, DWORD PTR _no$21[ebp]
  00775	99		 cdq
  00776	b9 0c 00 00 00	 mov	 ecx, 12			; 0000000cH
  0077b	f7 f9		 idiv	 ecx
  0077d	89 95 e4 fd ff
	ff		 mov	 DWORD PTR _no$21[ebp], edx

; 1110 : 		realGetNo( CG_SPEECH_HELP, &bmpNo );

  00783	8d 85 d8 fd ff
	ff		 lea	 eax, DWORD PTR _bmpNo$20[ebp]
  00789	50		 push	 eax
  0078a	68 b5 63 00 00	 push	 25525			; 000063b5H
  0078f	e8 00 00 00 00	 call	 ?realGetNo@@YAHKPAK@Z	; realGetNo
  00794	83 c4 08	 add	 esp, 8

; 1111 : 		setCharPrio( bmpNo, ptAct->x, ptAct->y, 0, charIconOffsetY[no]-20, ptAct->mx, ptAct->my );

  00797	8b 45 08	 mov	 eax, DWORD PTR _ptAct$[ebp]
  0079a	51		 push	 ecx
  0079b	f3 0f 10 80 1c
	01 00 00	 movss	 xmm0, DWORD PTR [eax+284]
  007a3	f3 0f 11 04 24	 movss	 DWORD PTR [esp], xmm0
  007a8	8b 4d 08	 mov	 ecx, DWORD PTR _ptAct$[ebp]
  007ab	51		 push	 ecx
  007ac	f3 0f 10 81 18
	01 00 00	 movss	 xmm0, DWORD PTR [ecx+280]
  007b4	f3 0f 11 04 24	 movss	 DWORD PTR [esp], xmm0
  007b9	8b 95 e4 fd ff
	ff		 mov	 edx, DWORD PTR _no$21[ebp]
  007bf	8b 04 95 00 00
	00 00		 mov	 eax, DWORD PTR ?charIconOffsetY@@3PAHA[edx*4]
  007c6	83 e8 14	 sub	 eax, 20			; 00000014H
  007c9	50		 push	 eax
  007ca	6a 00		 push	 0
  007cc	8b 4d 08	 mov	 ecx, DWORD PTR _ptAct$[ebp]
  007cf	8b 51 1c	 mov	 edx, DWORD PTR [ecx+28]
  007d2	52		 push	 edx
  007d3	8b 45 08	 mov	 eax, DWORD PTR _ptAct$[ebp]
  007d6	8b 48 18	 mov	 ecx, DWORD PTR [eax+24]
  007d9	51		 push	 ecx
  007da	8b 95 d8 fd ff
	ff		 mov	 edx, DWORD PTR _bmpNo$20[ebp]
  007e0	52		 push	 edx
  007e1	e8 00 00 00 00	 call	 ?setCharPrio@@YAXHHHHHMM@Z ; setCharPrio
  007e6	83 c4 1c	 add	 esp, 28			; 0000001cH
$LN29@drawCharSt:

; 1112 : 	}
; 1113 : 	if( (status & CHR_STATUS_LEADER) != 0
; 1114 : 	 && ext->ptActLeaderMark == NULL
; 1115 : 	 && ((status & CHR_STATUS_BATTLE) == 0 || (status & CHR_STATUS_WATCH) == 0) ){

  007e9	8b 45 dc	 mov	 eax, DWORD PTR _status$[ebp]
  007ec	25 00 01 00 00	 and	 eax, 256		; 00000100H
  007f1	74 4f		 je	 SHORT $LN30@drawCharSt
  007f3	8b 45 f4	 mov	 eax, DWORD PTR _ext$[ebp]
  007f6	83 78 08 00	 cmp	 DWORD PTR [eax+8], 0
  007fa	75 46		 jne	 SHORT $LN30@drawCharSt
  007fc	8b 45 dc	 mov	 eax, DWORD PTR _status$[ebp]
  007ff	25 00 04 00 00	 and	 eax, 1024		; 00000400H
  00804	74 0a		 je	 SHORT $LN32@drawCharSt
  00806	8b 45 dc	 mov	 eax, DWORD PTR _status$[ebp]
  00809	25 00 40 00 00	 and	 eax, 16384		; 00004000H
  0080e	75 32		 jne	 SHORT $LN30@drawCharSt
$LN32@drawCharSt:

; 1116 : 		ext->ptActLeaderMark =

  00810	6a 0a		 push	 10			; 0000000aH
  00812	6a 00		 push	 0
  00814	6a 00		 push	 0
  00816	8b 45 08	 mov	 eax, DWORD PTR _ptAct$[ebp]
  00819	8b 88 b8 00 00
	00		 mov	 ecx, DWORD PTR [eax+184]
  0081f	51		 push	 ecx
  00820	8b 55 08	 mov	 edx, DWORD PTR _ptAct$[ebp]
  00823	8b 82 b4 00 00
	00		 mov	 eax, DWORD PTR [edx+180]
  00829	50		 push	 eax
  0082a	68 94 88 01 00	 push	 100500			; 00018894H
  0082f	e8 00 00 00 00	 call	 ?createCommmonEffectAction@@YAPAUaction@@HHHHHH@Z ; createCommmonEffectAction
  00834	83 c4 18	 add	 esp, 24			; 00000018H
  00837	8b 4d f4	 mov	 ecx, DWORD PTR _ext$[ebp]
  0083a	89 41 08	 mov	 DWORD PTR [ecx+8], eax

; 1117 : 			createCommmonEffectAction( SPR_leader, ptAct->gx, ptAct->gy, 0, 0, DISP_PRIO_CHAR );
; 1118 : 	}else if( ((status & CHR_STATUS_LEADER) == 0 || (status & CHR_STATUS_BATTLE) != 0)

  0083d	e9 42 01 00 00	 jmp	 $LN36@drawCharSt
$LN30@drawCharSt:

; 1119 : 	 && ext->ptActLeaderMark != NULL ){

  00842	8b 45 dc	 mov	 eax, DWORD PTR _status$[ebp]
  00845	25 00 01 00 00	 and	 eax, 256		; 00000100H
  0084a	74 0a		 je	 SHORT $LN35@drawCharSt
  0084c	8b 45 dc	 mov	 eax, DWORD PTR _status$[ebp]
  0084f	25 00 04 00 00	 and	 eax, 1024		; 00000400H
  00854	74 27		 je	 SHORT $LN33@drawCharSt
$LN35@drawCharSt:
  00856	8b 45 f4	 mov	 eax, DWORD PTR _ext$[ebp]
  00859	83 78 08 00	 cmp	 DWORD PTR [eax+8], 0
  0085d	74 1e		 je	 SHORT $LN33@drawCharSt

; 1120 : 		DeathAction( ext->ptActLeaderMark );

  0085f	8b 45 f4	 mov	 eax, DWORD PTR _ext$[ebp]
  00862	8b 48 08	 mov	 ecx, DWORD PTR [eax+8]
  00865	51		 push	 ecx
  00866	e8 00 00 00 00	 call	 ?DeathAction@@YAXPAUaction@@@Z ; DeathAction
  0086b	83 c4 04	 add	 esp, 4

; 1121 : 		ext->ptActLeaderMark = NULL;

  0086e	8b 45 f4	 mov	 eax, DWORD PTR _ext$[ebp]
  00871	c7 40 08 00 00
	00 00		 mov	 DWORD PTR [eax+8], 0
  00878	e9 07 01 00 00	 jmp	 $LN36@drawCharSt
$LN33@drawCharSt:

; 1122 : 	}else if( (status & CHR_STATUS_LEADER) != 0 && ext->ptActLeaderMark != NULL ){

  0087d	8b 45 dc	 mov	 eax, DWORD PTR _status$[ebp]
  00880	25 00 01 00 00	 and	 eax, 256		; 00000100H
  00885	0f 84 f9 00 00
	00		 je	 $LN36@drawCharSt
  0088b	8b 45 f4	 mov	 eax, DWORD PTR _ext$[ebp]
  0088e	83 78 08 00	 cmp	 DWORD PTR [eax+8], 0
  00892	0f 84 ec 00 00
	00		 je	 $LN36@drawCharSt

; 1123 : 		int no;
; 1124 : 		no = (ptAct->anim_chr_no - SPR_001em) / 20;

  00898	8b 45 08	 mov	 eax, DWORD PTR _ptAct$[ebp]
  0089b	8b 80 44 01 00
	00		 mov	 eax, DWORD PTR [eax+324]
  008a1	2d a0 86 01 00	 sub	 eax, 100000		; 000186a0H
  008a6	99		 cdq
  008a7	b9 14 00 00 00	 mov	 ecx, 20			; 00000014H
  008ac	f7 f9		 idiv	 ecx
  008ae	89 85 cc fd ff
	ff		 mov	 DWORD PTR _no$19[ebp], eax

; 1125 : 		no %= 12;

  008b4	8b 85 cc fd ff
	ff		 mov	 eax, DWORD PTR _no$19[ebp]
  008ba	99		 cdq
  008bb	b9 0c 00 00 00	 mov	 ecx, 12			; 0000000cH
  008c0	f7 f9		 idiv	 ecx
  008c2	89 95 cc fd ff
	ff		 mov	 DWORD PTR _no$19[ebp], edx

; 1126 : 		ext->ptActLeaderMark->x  = ptAct->x;

  008c8	8b 45 f4	 mov	 eax, DWORD PTR _ext$[ebp]
  008cb	8b 48 08	 mov	 ecx, DWORD PTR [eax+8]
  008ce	8b 55 08	 mov	 edx, DWORD PTR _ptAct$[ebp]
  008d1	8b 42 18	 mov	 eax, DWORD PTR [edx+24]
  008d4	89 41 18	 mov	 DWORD PTR [ecx+24], eax

; 1127 : 		ext->ptActLeaderMark->y  = ptAct->y;

  008d7	8b 45 f4	 mov	 eax, DWORD PTR _ext$[ebp]
  008da	8b 48 08	 mov	 ecx, DWORD PTR [eax+8]
  008dd	8b 55 08	 mov	 edx, DWORD PTR _ptAct$[ebp]
  008e0	8b 42 1c	 mov	 eax, DWORD PTR [edx+28]
  008e3	89 41 1c	 mov	 DWORD PTR [ecx+28], eax

; 1128 : 		ext->ptActLeaderMark->mx = ptAct->mx;

  008e6	8b 45 f4	 mov	 eax, DWORD PTR _ext$[ebp]
  008e9	8b 48 08	 mov	 ecx, DWORD PTR [eax+8]
  008ec	8b 55 08	 mov	 edx, DWORD PTR _ptAct$[ebp]
  008ef	8b 82 18 01 00
	00		 mov	 eax, DWORD PTR [edx+280]
  008f5	89 81 18 01 00
	00		 mov	 DWORD PTR [ecx+280], eax

; 1129 : 		ext->ptActLeaderMark->my = ptAct->my;

  008fb	8b 45 f4	 mov	 eax, DWORD PTR _ext$[ebp]
  008fe	8b 48 08	 mov	 ecx, DWORD PTR [eax+8]
  00901	8b 55 08	 mov	 edx, DWORD PTR _ptAct$[ebp]
  00904	8b 82 1c 01 00
	00		 mov	 eax, DWORD PTR [edx+284]
  0090a	89 81 1c 01 00
	00		 mov	 DWORD PTR [ecx+284], eax

; 1130 : 		pattern( ext->ptActLeaderMark, ANM_NOMAL_SPD, ANM_LOOP );

  00910	6a 00		 push	 0
  00912	6a 00		 push	 0
  00914	8b 45 f4	 mov	 eax, DWORD PTR _ext$[ebp]
  00917	8b 48 08	 mov	 ecx, DWORD PTR [eax+8]
  0091a	51		 push	 ecx
  0091b	e8 00 00 00 00	 call	 ?pattern@@YAHPAUaction@@HH@Z ; pattern
  00920	83 c4 0c	 add	 esp, 12			; 0000000cH

; 1131 : 		setCharPrio( ext->ptActLeaderMark->bmpNo,

  00923	8b 45 f4	 mov	 eax, DWORD PTR _ext$[ebp]
  00926	8b 48 08	 mov	 ecx, DWORD PTR [eax+8]
  00929	51		 push	 ecx
  0092a	f3 0f 10 81 1c
	01 00 00	 movss	 xmm0, DWORD PTR [ecx+284]
  00932	f3 0f 11 04 24	 movss	 DWORD PTR [esp], xmm0
  00937	8b 55 f4	 mov	 edx, DWORD PTR _ext$[ebp]
  0093a	8b 42 08	 mov	 eax, DWORD PTR [edx+8]
  0093d	51		 push	 ecx
  0093e	f3 0f 10 80 18
	01 00 00	 movss	 xmm0, DWORD PTR [eax+280]
  00946	f3 0f 11 04 24	 movss	 DWORD PTR [esp], xmm0
  0094b	8b 8d cc fd ff
	ff		 mov	 ecx, DWORD PTR _no$19[ebp]
  00951	8b 14 8d 00 00
	00 00		 mov	 edx, DWORD PTR ?charIconOffsetY@@3PAHA[ecx*4]
  00958	52		 push	 edx
  00959	6a 00		 push	 0
  0095b	8b 45 f4	 mov	 eax, DWORD PTR _ext$[ebp]
  0095e	8b 48 08	 mov	 ecx, DWORD PTR [eax+8]
  00961	8b 51 1c	 mov	 edx, DWORD PTR [ecx+28]
  00964	52		 push	 edx
  00965	8b 45 f4	 mov	 eax, DWORD PTR _ext$[ebp]
  00968	8b 48 08	 mov	 ecx, DWORD PTR [eax+8]
  0096b	8b 51 18	 mov	 edx, DWORD PTR [ecx+24]
  0096e	52		 push	 edx
  0096f	8b 45 f4	 mov	 eax, DWORD PTR _ext$[ebp]
  00972	8b 48 08	 mov	 ecx, DWORD PTR [eax+8]
  00975	8b 91 9c 00 00
	00		 mov	 edx, DWORD PTR [ecx+156]
  0097b	52		 push	 edx
  0097c	e8 00 00 00 00	 call	 ?setCharPrio@@YAXHHHHHMM@Z ; setCharPrio
  00981	83 c4 1c	 add	 esp, 28			; 0000001cH
$LN36@drawCharSt:

; 1132 : 			ext->ptActLeaderMark->x, ext->ptActLeaderMark->y, 0, charIconOffsetY[no],
; 1133 : 				ext->ptActLeaderMark->mx, ext->ptActLeaderMark->my );
; 1134 : 	}
; 1135 : 	if( (status & CHR_STATUS_USE_MAGIC) != 0 && ext->ptActMagicEffect == NULL ){

  00984	8b 45 dc	 mov	 eax, DWORD PTR _status$[ebp]
  00987	25 00 08 00 00	 and	 eax, 2048		; 00000800H
  0098c	74 64		 je	 SHORT $LN37@drawCharSt
  0098e	8b 45 f4	 mov	 eax, DWORD PTR _ext$[ebp]
  00991	83 78 0c 00	 cmp	 DWORD PTR [eax+12], 0
  00995	75 5b		 jne	 SHORT $LN37@drawCharSt

; 1136 : 		ext->ptActMagicEffect =

  00997	6a 0a		 push	 10			; 0000000aH
  00999	6a 00		 push	 0
  0099b	6a 00		 push	 0
  0099d	8b 45 08	 mov	 eax, DWORD PTR _ptAct$[ebp]
  009a0	8b 88 b8 00 00
	00		 mov	 ecx, DWORD PTR [eax+184]
  009a6	83 c1 01	 add	 ecx, 1
  009a9	51		 push	 ecx
  009aa	8b 55 08	 mov	 edx, DWORD PTR _ptAct$[ebp]
  009ad	8b 82 b4 00 00
	00		 mov	 eax, DWORD PTR [edx+180]
  009b3	50		 push	 eax
  009b4	68 f8 88 01 00	 push	 100600			; 000188f8H
  009b9	e8 00 00 00 00	 call	 ?createCommmonEffectAction@@YAPAUaction@@HHHHHH@Z ; createCommmonEffectAction
  009be	83 c4 18	 add	 esp, 24			; 00000018H
  009c1	8b 4d f4	 mov	 ecx, DWORD PTR _ext$[ebp]
  009c4	89 41 0c	 mov	 DWORD PTR [ecx+12], eax

; 1137 : 			createCommmonEffectAction( SPR_effect01, ptAct->gx, ptAct->gy+1, 0, 0, DISP_PRIO_CHAR );
; 1138 : 		if( pc.ptAct != NULL && pc.ptAct == ptAct )

  009c7	83 3d ec 50 00
	00 00		 cmp	 DWORD PTR ?pc@@3UPC@@A+20716, 0
  009ce	74 11		 je	 SHORT $LN39@drawCharSt
  009d0	a1 ec 50 00 00	 mov	 eax, DWORD PTR ?pc@@3UPC@@A+20716
  009d5	3b 45 08	 cmp	 eax, DWORD PTR _ptAct$[ebp]
  009d8	75 07		 jne	 SHORT $LN39@drawCharSt

; 1139 : 			delPcUseMagic();

  009da	e8 00 00 00 00	 call	 ?delPcUseMagic@@YAXXZ	; delPcUseMagic

; 1140 : 		else

  009df	eb 0c		 jmp	 SHORT $LN40@drawCharSt
$LN39@drawCharSt:

; 1141 : 			delCharUseMagic( ptAct );

  009e1	8b 45 08	 mov	 eax, DWORD PTR _ptAct$[ebp]
  009e4	50		 push	 eax
  009e5	e8 00 00 00 00	 call	 ?delCharUseMagic@@YAXPAUaction@@@Z ; delCharUseMagic
  009ea	83 c4 04	 add	 esp, 4
$LN40@drawCharSt:
  009ed	e9 df 00 00 00	 jmp	 $LN43@drawCharSt
$LN37@drawCharSt:

; 1142 : 	}else if( ext->ptActMagicEffect != NULL ){

  009f2	8b 45 f4	 mov	 eax, DWORD PTR _ext$[ebp]
  009f5	83 78 0c 00	 cmp	 DWORD PTR [eax+12], 0
  009f9	0f 84 d2 00 00
	00		 je	 $LN43@drawCharSt

; 1143 : 		ext->ptActMagicEffect->x  = ptAct->x;

  009ff	8b 45 f4	 mov	 eax, DWORD PTR _ext$[ebp]
  00a02	8b 48 0c	 mov	 ecx, DWORD PTR [eax+12]
  00a05	8b 55 08	 mov	 edx, DWORD PTR _ptAct$[ebp]
  00a08	8b 42 18	 mov	 eax, DWORD PTR [edx+24]
  00a0b	89 41 18	 mov	 DWORD PTR [ecx+24], eax

; 1144 : 		ext->ptActMagicEffect->y  = ptAct->y;

  00a0e	8b 45 f4	 mov	 eax, DWORD PTR _ext$[ebp]
  00a11	8b 48 0c	 mov	 ecx, DWORD PTR [eax+12]
  00a14	8b 55 08	 mov	 edx, DWORD PTR _ptAct$[ebp]
  00a17	8b 42 1c	 mov	 eax, DWORD PTR [edx+28]
  00a1a	89 41 1c	 mov	 DWORD PTR [ecx+28], eax

; 1145 : 		ext->ptActMagicEffect->mx = ptAct->mx;

  00a1d	8b 45 f4	 mov	 eax, DWORD PTR _ext$[ebp]
  00a20	8b 48 0c	 mov	 ecx, DWORD PTR [eax+12]
  00a23	8b 55 08	 mov	 edx, DWORD PTR _ptAct$[ebp]
  00a26	8b 82 18 01 00
	00		 mov	 eax, DWORD PTR [edx+280]
  00a2c	89 81 18 01 00
	00		 mov	 DWORD PTR [ecx+280], eax

; 1146 : 		ext->ptActMagicEffect->my = ptAct->my;

  00a32	8b 45 f4	 mov	 eax, DWORD PTR _ext$[ebp]
  00a35	8b 48 0c	 mov	 ecx, DWORD PTR [eax+12]
  00a38	8b 55 08	 mov	 edx, DWORD PTR _ptAct$[ebp]
  00a3b	8b 82 1c 01 00
	00		 mov	 eax, DWORD PTR [edx+284]
  00a41	89 81 1c 01 00
	00		 mov	 DWORD PTR [ecx+284], eax

; 1147 : 		if( pattern( ext->ptActMagicEffect, ANM_NOMAL_SPD, ANM_NO_LOOP ) == 0 ){

  00a47	6a 01		 push	 1
  00a49	6a 00		 push	 0
  00a4b	8b 45 f4	 mov	 eax, DWORD PTR _ext$[ebp]
  00a4e	8b 48 0c	 mov	 ecx, DWORD PTR [eax+12]
  00a51	51		 push	 ecx
  00a52	e8 00 00 00 00	 call	 ?pattern@@YAHPAUaction@@HH@Z ; pattern
  00a57	83 c4 0c	 add	 esp, 12			; 0000000cH
  00a5a	85 c0		 test	 eax, eax
  00a5c	75 5a		 jne	 SHORT $LN42@drawCharSt

; 1148 : 			setCharPrio( ext->ptActMagicEffect->bmpNo,

  00a5e	8b 45 f4	 mov	 eax, DWORD PTR _ext$[ebp]
  00a61	8b 48 0c	 mov	 ecx, DWORD PTR [eax+12]
  00a64	51		 push	 ecx
  00a65	f3 0f 10 81 1c
	01 00 00	 movss	 xmm0, DWORD PTR [ecx+284]
  00a6d	f3 0f 11 04 24	 movss	 DWORD PTR [esp], xmm0
  00a72	8b 55 f4	 mov	 edx, DWORD PTR _ext$[ebp]
  00a75	8b 42 0c	 mov	 eax, DWORD PTR [edx+12]
  00a78	51		 push	 ecx
  00a79	f3 0f 10 80 18
	01 00 00	 movss	 xmm0, DWORD PTR [eax+280]
  00a81	f3 0f 11 04 24	 movss	 DWORD PTR [esp], xmm0
  00a86	6a 00		 push	 0
  00a88	6a 00		 push	 0
  00a8a	8b 4d f4	 mov	 ecx, DWORD PTR _ext$[ebp]
  00a8d	8b 51 0c	 mov	 edx, DWORD PTR [ecx+12]
  00a90	8b 42 1c	 mov	 eax, DWORD PTR [edx+28]
  00a93	83 c0 01	 add	 eax, 1
  00a96	50		 push	 eax
  00a97	8b 4d f4	 mov	 ecx, DWORD PTR _ext$[ebp]
  00a9a	8b 51 0c	 mov	 edx, DWORD PTR [ecx+12]
  00a9d	8b 42 18	 mov	 eax, DWORD PTR [edx+24]
  00aa0	50		 push	 eax
  00aa1	8b 4d f4	 mov	 ecx, DWORD PTR _ext$[ebp]
  00aa4	8b 51 0c	 mov	 edx, DWORD PTR [ecx+12]
  00aa7	8b 82 9c 00 00
	00		 mov	 eax, DWORD PTR [edx+156]
  00aad	50		 push	 eax
  00aae	e8 00 00 00 00	 call	 ?setCharPrio@@YAXHHHHHMM@Z ; setCharPrio
  00ab3	83 c4 1c	 add	 esp, 28			; 0000001cH

; 1149 : 				ext->ptActMagicEffect->x, ext->ptActMagicEffect->y+1, 0, 0,
; 1150 : 				ext->ptActMagicEffect->mx, ext->ptActMagicEffect->my );
; 1151 : 		}else{

  00ab6	eb 19		 jmp	 SHORT $LN43@drawCharSt
$LN42@drawCharSt:

; 1152 : 			DeathAction( ext->ptActMagicEffect );

  00ab8	8b 45 f4	 mov	 eax, DWORD PTR _ext$[ebp]
  00abb	8b 48 0c	 mov	 ecx, DWORD PTR [eax+12]
  00abe	51		 push	 ecx
  00abf	e8 00 00 00 00	 call	 ?DeathAction@@YAXPAUaction@@@Z ; DeathAction
  00ac4	83 c4 04	 add	 esp, 4

; 1153 : 			ext->ptActMagicEffect = NULL;

  00ac7	8b 45 f4	 mov	 eax, DWORD PTR _ext$[ebp]
  00aca	c7 40 0c 00 00
	00 00		 mov	 DWORD PTR [eax+12], 0
$LN43@drawCharSt:

; 1154 : 		}
; 1155 : 	}
; 1156 : 	if( (status & CHR_STATUS_FUKIDASHI) != 0 ){

  00ad1	8b 45 dc	 mov	 eax, DWORD PTR _status$[ebp]
  00ad4	25 00 20 00 00	 and	 eax, 8192		; 00002000H
  00ad9	0f 84 1c 01 00
	00		 je	 $LN46@drawCharSt

; 1157 : 		if( ext->drawFukidashiTime > TimeGetTime() ){

  00adf	e8 00 00 00 00	 call	 ?TimeGetTime@@YAIXZ	; TimeGetTime
  00ae4	8b 4d f4	 mov	 ecx, DWORD PTR _ext$[ebp]
  00ae7	39 41 04	 cmp	 DWORD PTR [ecx+4], eax
  00aea	0f 86 00 01 00
	00		 jbe	 $LN45@drawCharSt

; 1158 : 			int no;
; 1159 : 			U4 bmpNo;
; 1160 : 			realGetNo( CG_ICON_FUKIDASI, &bmpNo );

  00af0	8d 85 b4 fd ff
	ff		 lea	 eax, DWORD PTR _bmpNo$17[ebp]
  00af6	50		 push	 eax
  00af7	68 84 67 00 00	 push	 26500			; 00006784H
  00afc	e8 00 00 00 00	 call	 ?realGetNo@@YAHKPAK@Z	; realGetNo
  00b01	83 c4 08	 add	 esp, 8

; 1161 : 			if( SPR_001em <= ptAct->anim_chr_no && ptAct->anim_chr_no <= SPR_114bw ){

  00b04	8b 45 08	 mov	 eax, DWORD PTR _ptAct$[ebp]
  00b07	81 b8 44 01 00
	00 a0 86 01 00	 cmp	 DWORD PTR [eax+324], 100000 ; 000186a0H
  00b11	0f 8c 94 00 00
	00		 jl	 $LN47@drawCharSt
  00b17	8b 45 08	 mov	 eax, DWORD PTR _ptAct$[ebp]
  00b1a	81 b8 44 01 00
	00 8f 87 01 00	 cmp	 DWORD PTR [eax+324], 100239 ; 0001878fH
  00b24	0f 8f 81 00 00
	00		 jg	 $LN47@drawCharSt

; 1162 : 				no = (ptAct->anim_chr_no - SPR_001em) / 20;

  00b2a	8b 45 08	 mov	 eax, DWORD PTR _ptAct$[ebp]
  00b2d	8b 80 44 01 00
	00		 mov	 eax, DWORD PTR [eax+324]
  00b33	2d a0 86 01 00	 sub	 eax, 100000		; 000186a0H
  00b38	99		 cdq
  00b39	b9 14 00 00 00	 mov	 ecx, 20			; 00000014H
  00b3e	f7 f9		 idiv	 ecx
  00b40	89 85 c0 fd ff
	ff		 mov	 DWORD PTR _no$18[ebp], eax

; 1163 : 				no %= 12;

  00b46	8b 85 c0 fd ff
	ff		 mov	 eax, DWORD PTR _no$18[ebp]
  00b4c	99		 cdq
  00b4d	b9 0c 00 00 00	 mov	 ecx, 12			; 0000000cH
  00b52	f7 f9		 idiv	 ecx
  00b54	89 95 c0 fd ff
	ff		 mov	 DWORD PTR _no$18[ebp], edx

; 1164 : 				setCharPrio( bmpNo, ptAct->x, ptAct->y, 20, charIconOffsetY[no], ptAct->mx, ptAct->my );

  00b5a	8b 45 08	 mov	 eax, DWORD PTR _ptAct$[ebp]
  00b5d	51		 push	 ecx
  00b5e	f3 0f 10 80 1c
	01 00 00	 movss	 xmm0, DWORD PTR [eax+284]
  00b66	f3 0f 11 04 24	 movss	 DWORD PTR [esp], xmm0
  00b6b	8b 4d 08	 mov	 ecx, DWORD PTR _ptAct$[ebp]
  00b6e	51		 push	 ecx
  00b6f	f3 0f 10 81 18
	01 00 00	 movss	 xmm0, DWORD PTR [ecx+280]
  00b77	f3 0f 11 04 24	 movss	 DWORD PTR [esp], xmm0
  00b7c	8b 95 c0 fd ff
	ff		 mov	 edx, DWORD PTR _no$18[ebp]
  00b82	8b 04 95 00 00
	00 00		 mov	 eax, DWORD PTR ?charIconOffsetY@@3PAHA[edx*4]
  00b89	50		 push	 eax
  00b8a	6a 14		 push	 20			; 00000014H
  00b8c	8b 4d 08	 mov	 ecx, DWORD PTR _ptAct$[ebp]
  00b8f	8b 51 1c	 mov	 edx, DWORD PTR [ecx+28]
  00b92	52		 push	 edx
  00b93	8b 45 08	 mov	 eax, DWORD PTR _ptAct$[ebp]
  00b96	8b 48 18	 mov	 ecx, DWORD PTR [eax+24]
  00b99	51		 push	 ecx
  00b9a	8b 95 b4 fd ff
	ff		 mov	 edx, DWORD PTR _bmpNo$17[ebp]
  00ba0	52		 push	 edx
  00ba1	e8 00 00 00 00	 call	 ?setCharPrio@@YAXHHHHHMM@Z ; setCharPrio
  00ba6	83 c4 1c	 add	 esp, 28			; 0000001cH

; 1165 : 			}else{

  00ba9	eb 43		 jmp	 SHORT $LN48@drawCharSt
$LN47@drawCharSt:

; 1166 : 				setCharPrio( bmpNo, ptAct->x, ptAct->y, 20, -84, ptAct->mx, ptAct->my );

  00bab	8b 45 08	 mov	 eax, DWORD PTR _ptAct$[ebp]
  00bae	51		 push	 ecx
  00baf	f3 0f 10 80 1c
	01 00 00	 movss	 xmm0, DWORD PTR [eax+284]
  00bb7	f3 0f 11 04 24	 movss	 DWORD PTR [esp], xmm0
  00bbc	8b 4d 08	 mov	 ecx, DWORD PTR _ptAct$[ebp]
  00bbf	51		 push	 ecx
  00bc0	f3 0f 10 81 18
	01 00 00	 movss	 xmm0, DWORD PTR [ecx+280]
  00bc8	f3 0f 11 04 24	 movss	 DWORD PTR [esp], xmm0
  00bcd	6a ac		 push	 -84			; ffffffacH
  00bcf	6a 14		 push	 20			; 00000014H
  00bd1	8b 55 08	 mov	 edx, DWORD PTR _ptAct$[ebp]
  00bd4	8b 42 1c	 mov	 eax, DWORD PTR [edx+28]
  00bd7	50		 push	 eax
  00bd8	8b 4d 08	 mov	 ecx, DWORD PTR _ptAct$[ebp]
  00bdb	8b 51 18	 mov	 edx, DWORD PTR [ecx+24]
  00bde	52		 push	 edx
  00bdf	8b 85 b4 fd ff
	ff		 mov	 eax, DWORD PTR _bmpNo$17[ebp]
  00be5	50		 push	 eax
  00be6	e8 00 00 00 00	 call	 ?setCharPrio@@YAXHHHHHMM@Z ; setCharPrio
  00beb	83 c4 1c	 add	 esp, 28			; 0000001cH
$LN48@drawCharSt:

; 1167 : 			}
; 1168 : 		}else

  00bee	eb 0b		 jmp	 SHORT $LN46@drawCharSt
$LN45@drawCharSt:

; 1169 : 			status &= (~CHR_STATUS_FUKIDASHI);

  00bf0	8b 45 dc	 mov	 eax, DWORD PTR _status$[ebp]
  00bf3	25 ff df ff ff	 and	 eax, -8193		; ffffdfffH
  00bf8	89 45 dc	 mov	 DWORD PTR _status$[ebp], eax
$LN46@drawCharSt:

; 1170 : 	}
; 1171 : #ifdef _NB_文字称号
; 1172 : 	extern void PutTitleText(int x,int y,char fontPrio,TITLE_STR str,BOOL hitFlag);
; 1173 : 	CHAREXTRA *ext1 = (CHAREXTRA *)ptAct->pYobi;
; 1174 : 	if(ext1){
; 1175 : 		if(!ext1->ptStreetVendor){
; 1176 : 			if(strlen(ptAct->nb_name)>0){
; 1177 : 				short x1,y1;
; 1178 : 				if(获取动画尺寸(ptAct,&x1,&y1)){
; 1179 : 					StockFontBuffer( ptAct->x-GetStrWidth( ptAct->nb_name )/2, ptAct->y - (y1/2+45), FONT_PRIO_BACK, ptAct->nb_namecolor, ptAct->nb_name, 0 );
; 1180 : 				}
; 1181 : 			}	
; 1182 : 		}
; 1183 : 	}
; 1184 : #endif
; 1185 : 	if( nameOverTheHeadFlag
; 1186 : 	 && ptAct != pc.ptAct
; 1187 : 	 && (ptAct->atr & (ACT_ATR_TYPE_PC | ACT_ATR_TYPE_OTHER_PC | ACT_ATR_TYPE_PET | ACT_ATR_TYPE_OTHER))
; 1188 : 	 && ptAct->anim_chr_no != 999 ){

  00bfb	0f bf 05 00 00
	00 00		 movsx	 eax, WORD PTR ?nameOverTheHeadFlag@@3FA ; nameOverTheHeadFlag
  00c02	85 c0		 test	 eax, eax
  00c04	0f 84 38 01 00
	00		 je	 $LN49@drawCharSt
  00c0a	8b 45 08	 mov	 eax, DWORD PTR _ptAct$[ebp]
  00c0d	3b 05 ec 50 00
	00		 cmp	 eax, DWORD PTR ?pc@@3UPC@@A+20716
  00c13	0f 84 29 01 00
	00		 je	 $LN49@drawCharSt
  00c19	8b 45 08	 mov	 eax, DWORD PTR _ptAct$[ebp]
  00c1c	8b 88 a4 00 00
	00		 mov	 ecx, DWORD PTR [eax+164]
  00c22	81 e1 80 13 00
	00		 and	 ecx, 4992		; 00001380H
  00c28	0f 84 14 01 00
	00		 je	 $LN49@drawCharSt
  00c2e	8b 45 08	 mov	 eax, DWORD PTR _ptAct$[ebp]
  00c31	81 b8 44 01 00
	00 e7 03 00 00	 cmp	 DWORD PTR [eax+324], 999 ; 000003e7H
  00c3b	0f 84 01 01 00
	00		 je	 $LN49@drawCharSt

; 1189 : 		if( (ptAct->atr & ACT_ATR_TYPE_PET) && strlen( ptAct->freeName ) > 0 )

  00c41	8b 45 08	 mov	 eax, DWORD PTR _ptAct$[ebp]
  00c44	8b 88 a4 00 00
	00		 mov	 ecx, DWORD PTR [eax+164]
  00c4a	81 e1 00 02 00
	00		 and	 ecx, 512		; 00000200H
  00c50	74 30		 je	 SHORT $LN50@drawCharSt
  00c52	8b 45 08	 mov	 eax, DWORD PTR _ptAct$[ebp]
  00c55	83 c0 55	 add	 eax, 85			; 00000055H
  00c58	50		 push	 eax
  00c59	e8 00 00 00 00	 call	 _strlen
  00c5e	83 c4 04	 add	 esp, 4
  00c61	85 c0		 test	 eax, eax
  00c63	76 1d		 jbe	 SHORT $LN50@drawCharSt

; 1190 : 			sprintf( msg, "%s", ptAct->freeName );

  00c65	8b 45 08	 mov	 eax, DWORD PTR _ptAct$[ebp]
  00c68	83 c0 55	 add	 eax, 85			; 00000055H
  00c6b	50		 push	 eax
  00c6c	68 00 00 00 00	 push	 OFFSET ??_C@_02DKCKIIND@?$CFs?$AA@
  00c71	8d 8d b0 fe ff
	ff		 lea	 ecx, DWORD PTR _msg$[ebp]
  00c77	51		 push	 ecx
  00c78	e8 00 00 00 00	 call	 _sprintf
  00c7d	83 c4 0c	 add	 esp, 12			; 0000000cH

; 1191 : 		else{

  00c80	eb 7c		 jmp	 SHORT $LN51@drawCharSt
$LN50@drawCharSt:

; 1192 : 				sprintf( msg, "%s", ptAct->fmname);

  00c82	8b 45 08	 mov	 eax, DWORD PTR _ptAct$[ebp]
  00c85	05 70 01 00 00	 add	 eax, 368		; 00000170H
  00c8a	50		 push	 eax
  00c8b	68 00 00 00 00	 push	 OFFSET ??_C@_02DKCKIIND@?$CFs?$AA@
  00c90	8d 8d b0 fe ff
	ff		 lea	 ecx, DWORD PTR _msg$[ebp]
  00c96	51		 push	 ecx
  00c97	e8 00 00 00 00	 call	 _sprintf
  00c9c	83 c4 0c	 add	 esp, 12			; 0000000cH

; 1193 : 				StockFontBuffer( ptAct->x-GetStrWidth( msg )/2, ptAct->y-23, FONT_PRIO_BACK, ptAct->charNameColor, msg, 0 );

  00c9f	6a 00		 push	 0
  00ca1	8d 85 b0 fe ff
	ff		 lea	 eax, DWORD PTR _msg$[ebp]
  00ca7	50		 push	 eax
  00ca8	8b 4d 08	 mov	 ecx, DWORD PTR _ptAct$[ebp]
  00cab	8b 91 98 00 00
	00		 mov	 edx, DWORD PTR [ecx+152]
  00cb1	52		 push	 edx
  00cb2	6a 00		 push	 0
  00cb4	8b 45 08	 mov	 eax, DWORD PTR _ptAct$[ebp]
  00cb7	8b 48 1c	 mov	 ecx, DWORD PTR [eax+28]
  00cba	83 e9 17	 sub	 ecx, 23			; 00000017H
  00cbd	51		 push	 ecx
  00cbe	8d 95 b0 fe ff
	ff		 lea	 edx, DWORD PTR _msg$[ebp]
  00cc4	52		 push	 edx
  00cc5	e8 00 00 00 00	 call	 ?GetStrWidth@@YAHPAD@Z	; GetStrWidth
  00cca	83 c4 04	 add	 esp, 4
  00ccd	99		 cdq
  00cce	2b c2		 sub	 eax, edx
  00cd0	d1 f8		 sar	 eax, 1
  00cd2	8b 4d 08	 mov	 ecx, DWORD PTR _ptAct$[ebp]
  00cd5	8b 51 18	 mov	 edx, DWORD PTR [ecx+24]
  00cd8	2b d0		 sub	 edx, eax
  00cda	52		 push	 edx
  00cdb	e8 00 00 00 00	 call	 ?StockFontBuffer@@YAHHHDHPADH@Z ; StockFontBuffer
  00ce0	83 c4 18	 add	 esp, 24			; 00000018H

; 1194 : 
; 1195 : #ifdef _F11_SHOW_ID
; 1196 : 				char *lssproto_cnv10to62(int a, char *out, int outlen);
; 1197 : 				char c62[20];
; 1198 : 				lssproto_cnv10to62(ptAct->objIndex, c62, 20);
; 1199 : 				sprintf(msg, "%s %s(%d)", ptAct->name, c62, ptAct->objIndex);
; 1200 : #else
; 1201 : 				sprintf(msg, "%s", ptAct->name);

  00ce3	8b 45 08	 mov	 eax, DWORD PTR _ptAct$[ebp]
  00ce6	83 c0 38	 add	 eax, 56			; 00000038H
  00ce9	50		 push	 eax
  00cea	68 00 00 00 00	 push	 OFFSET ??_C@_02DKCKIIND@?$CFs?$AA@
  00cef	8d 8d b0 fe ff
	ff		 lea	 ecx, DWORD PTR _msg$[ebp]
  00cf5	51		 push	 ecx
  00cf6	e8 00 00 00 00	 call	 _sprintf
  00cfb	83 c4 0c	 add	 esp, 12			; 0000000cH
$LN51@drawCharSt:

; 1202 : #endif // _F11_SHOW_ID
; 1203 : 		}
; 1204 : 		StockFontBuffer( ptAct->x-GetStrWidth( msg )/2, ptAct->y-10, FONT_PRIO_BACK, ptAct->charNameColor, msg, 0 );

  00cfe	6a 00		 push	 0
  00d00	8d 85 b0 fe ff
	ff		 lea	 eax, DWORD PTR _msg$[ebp]
  00d06	50		 push	 eax
  00d07	8b 4d 08	 mov	 ecx, DWORD PTR _ptAct$[ebp]
  00d0a	8b 91 98 00 00
	00		 mov	 edx, DWORD PTR [ecx+152]
  00d10	52		 push	 edx
  00d11	6a 00		 push	 0
  00d13	8b 45 08	 mov	 eax, DWORD PTR _ptAct$[ebp]
  00d16	8b 48 1c	 mov	 ecx, DWORD PTR [eax+28]
  00d19	83 e9 0a	 sub	 ecx, 10			; 0000000aH
  00d1c	51		 push	 ecx
  00d1d	8d 95 b0 fe ff
	ff		 lea	 edx, DWORD PTR _msg$[ebp]
  00d23	52		 push	 edx
  00d24	e8 00 00 00 00	 call	 ?GetStrWidth@@YAHPAD@Z	; GetStrWidth
  00d29	83 c4 04	 add	 esp, 4
  00d2c	99		 cdq
  00d2d	2b c2		 sub	 eax, edx
  00d2f	d1 f8		 sar	 eax, 1
  00d31	8b 4d 08	 mov	 ecx, DWORD PTR _ptAct$[ebp]
  00d34	8b 51 18	 mov	 edx, DWORD PTR [ecx+24]
  00d37	2b d0		 sub	 edx, eax
  00d39	52		 push	 edx
  00d3a	e8 00 00 00 00	 call	 ?StockFontBuffer@@YAHHHDHPADH@Z ; StockFontBuffer
  00d3f	83 c4 18	 add	 esp, 24			; 00000018H
$LN49@drawCharSt:

; 1205 : 	}
; 1206 : 
; 1207 : #ifdef _GM_MARK				   // WON ADD GM 识别
; 1208 : 	{
; 1209 : 		int graNo = ptAct->anim_chr_no ;
; 1210 : 
; 1211 : 		//三种ＧＭ造形
; 1212 : 		if( (graNo == 100420) || (graNo == 100425) || (graNo == 100445) ){
; 1213 : 			static count1=1, count2=0;
; 1214 : 			char msg[256];
; 1215 : 
; 1216 : 			if(count1 >10 ) count1=1;
; 1217 : 			if(count2 >15 ){				
; 1218 : 				count1++;
; 1219 : 				count2=0;
; 1220 : 			}
; 1221 : 
; 1222 : 			count2++;
; 1223 : 			sprintf( msg , "ＧＭ");
; 1224 : 			StockFontBuffer( ptAct->x-GetStrWidth( msg )/2, ptAct->y-110, FONT_PRIO_BACK, count1, msg, 1);	
; 1225 : 		}
; 1226 : 	}
; 1227 : #endif
; 1228 : 
; 1229 : #ifdef _GM_IDENTIFY		// Rog ADD GM识别
; 1230 : 		int i;
; 1231 : 		sprintf( msg , ptAct->gm_name);
; 1232 :         for(i=2;i>0;i--)
; 1233 : 	        StockFontBuffer( ptAct->x-GetStrWidth( msg )/2, ptAct->y-110-i, FONT_PRIO_BACK, i , msg, 1);
; 1234 : #endif
; 1235 : 
; 1236 : #ifdef _CHAR_PROFESSION			// WON ADD 人物职业
; 1237 : 
; 1238 : //	if( ptAct->profession_class != 0 ){
; 1239 : 	{
; 1240 : 		char msg[10];
; 1241 : 
; 1242 : 		switch(pc.profession_class){

  00d42	a1 84 a1 00 00	 mov	 eax, DWORD PTR ?pc@@3UPC@@A+41348
  00d47	89 85 28 fb ff
	ff		 mov	 DWORD PTR tv583[ebp], eax
  00d4d	83 bd 28 fb ff
	ff 03		 cmp	 DWORD PTR tv583[ebp], 3
  00d54	77 63		 ja	 SHORT $LN2@drawCharSt
  00d56	8b 8d 28 fb ff
	ff		 mov	 ecx, DWORD PTR tv583[ebp]
  00d5c	ff 24 8d 00 00
	00 00		 jmp	 DWORD PTR $LN126@drawCharSt[ecx*4]
$LN52@drawCharSt:

; 1243 : 		case 0:		sprintf( msg , "");	break;

  00d63	68 00 00 00 00	 push	 OFFSET ??_C@_00CNPNBAHC@?$AA@
  00d68	8d 85 a0 fd ff
	ff		 lea	 eax, DWORD PTR _msg$16[ebp]
  00d6e	50		 push	 eax
  00d6f	e8 00 00 00 00	 call	 _sprintf
  00d74	83 c4 08	 add	 esp, 8
  00d77	eb 40		 jmp	 SHORT $LN2@drawCharSt
$LN53@drawCharSt:

; 1244 : 		case 1:		sprintf( msg , "白狼勇士");	break;

  00d79	68 00 00 00 00	 push	 OFFSET ??_C@_08BFELEGJK@?$NL?$NM?U?I?i?$LI?$NO?M?$AA@
  00d7e	8d 85 a0 fd ff
	ff		 lea	 eax, DWORD PTR _msg$16[ebp]
  00d84	50		 push	 eax
  00d85	e8 00 00 00 00	 call	 _sprintf
  00d8a	83 c4 08	 add	 esp, 8
  00d8d	eb 2a		 jmp	 SHORT $LN2@drawCharSt
$LN54@drawCharSt:

; 1245 : 		case 2:		sprintf( msg , "灵法师");	break;

  00d8f	68 00 00 00 00	 push	 OFFSET ??_C@_06HDNHFODD@?d?a?$DP?$NL?v?$DP?$AA@
  00d94	8d 85 a0 fd ff
	ff		 lea	 eax, DWORD PTR _msg$16[ebp]
  00d9a	50		 push	 eax
  00d9b	e8 00 00 00 00	 call	 _sprintf
  00da0	83 c4 08	 add	 esp, 8
  00da3	eb 14		 jmp	 SHORT $LN2@drawCharSt
$LN55@drawCharSt:

; 1246 : 		case 3:		sprintf( msg , "追猎者");	break;

  00da5	68 00 00 00 00	 push	 OFFSET ??_C@_05NPHPFMDI@?u?Z?$DP?m?$LK?$AA@
  00daa	8d 85 a0 fd ff
	ff		 lea	 eax, DWORD PTR _msg$16[ebp]
  00db0	50		 push	 eax
  00db1	e8 00 00 00 00	 call	 _sprintf
  00db6	83 c4 08	 add	 esp, 8
$LN2@drawCharSt:

; 1247 : 		}
; 1248 : 		sprintf( pc.profession_class_name , "%s" , msg ) ; 

  00db9	8d 85 a0 fd ff
	ff		 lea	 eax, DWORD PTR _msg$16[ebp]
  00dbf	50		 push	 eax
  00dc0	68 00 00 00 00	 push	 OFFSET ??_C@_02DKCKIIND@?$CFs?$AA@
  00dc5	68 90 a1 00 00	 push	 OFFSET ?pc@@3UPC@@A+41360
  00dca	e8 00 00 00 00	 call	 _sprintf
  00dcf	83 c4 0c	 add	 esp, 12			; 0000000cH

; 1249 : 		//StockFontBuffer( ptAct->x-GetStrWidth( msg )/2, ptAct->y-110, FONT_PRIO_BACK, FONT_PAL_YELLOW, msg, 1);
; 1250 : 		//StockFontBuffer( ptAct->x-GetStrWidth( msg )/2, ptAct->y-110, FONT_PRIO_BACK, FONT_PAL_YELLOW, msg, 1);
; 1251 : 		//StockDispBuffer( ptAct->x-GetStrWidth( msg )/2 + 30, ptAct->y-90 , DISP_PRIO_IME3, CG_WAR_ICON_SMALL + pc.profession_class - 1, 0 );
; 1252 : 						
; 1253 : 	}
; 1254 : 
; 1255 : #endif
; 1256 : 
; 1257 : #ifdef _AniCharBubble	   // Syu ADD 动画层人物吐出气泡
; 1258 : 	if ( ( (nowFloor == 817) || (nowFloor == 8007) || (nowFloor == 8101) || (nowFloor == 8100) ||
; 1259 : 		(nowFloor == 8027) || (nowFloor == 8028) || (nowFloor == 8029) || nowFloor == 8113 || nowFloor == 8114 ||
; 1260 : 		(nowFloor == 8015) ) && (popflag == false) && (waittimeflag == false))

  00dd2	81 3d 00 00 00
	00 31 03 00 00	 cmp	 DWORD PTR ?nowFloor@@3HA, 817 ; nowFloor, 00000331H
  00ddc	74 70		 je	 SHORT $LN57@drawCharSt
  00dde	81 3d 00 00 00
	00 47 1f 00 00	 cmp	 DWORD PTR ?nowFloor@@3HA, 8007 ; nowFloor, 00001f47H
  00de8	74 64		 je	 SHORT $LN57@drawCharSt
  00dea	81 3d 00 00 00
	00 a5 1f 00 00	 cmp	 DWORD PTR ?nowFloor@@3HA, 8101 ; nowFloor, 00001fa5H
  00df4	74 58		 je	 SHORT $LN57@drawCharSt
  00df6	81 3d 00 00 00
	00 a4 1f 00 00	 cmp	 DWORD PTR ?nowFloor@@3HA, 8100 ; nowFloor, 00001fa4H
  00e00	74 4c		 je	 SHORT $LN57@drawCharSt
  00e02	81 3d 00 00 00
	00 5b 1f 00 00	 cmp	 DWORD PTR ?nowFloor@@3HA, 8027 ; nowFloor, 00001f5bH
  00e0c	74 40		 je	 SHORT $LN57@drawCharSt
  00e0e	81 3d 00 00 00
	00 5c 1f 00 00	 cmp	 DWORD PTR ?nowFloor@@3HA, 8028 ; nowFloor, 00001f5cH
  00e18	74 34		 je	 SHORT $LN57@drawCharSt
  00e1a	81 3d 00 00 00
	00 5d 1f 00 00	 cmp	 DWORD PTR ?nowFloor@@3HA, 8029 ; nowFloor, 00001f5dH
  00e24	74 28		 je	 SHORT $LN57@drawCharSt
  00e26	81 3d 00 00 00
	00 b1 1f 00 00	 cmp	 DWORD PTR ?nowFloor@@3HA, 8113 ; nowFloor, 00001fb1H
  00e30	74 1c		 je	 SHORT $LN57@drawCharSt
  00e32	81 3d 00 00 00
	00 b2 1f 00 00	 cmp	 DWORD PTR ?nowFloor@@3HA, 8114 ; nowFloor, 00001fb2H
  00e3c	74 10		 je	 SHORT $LN57@drawCharSt
  00e3e	81 3d 00 00 00
	00 4f 1f 00 00	 cmp	 DWORD PTR ?nowFloor@@3HA, 8015 ; nowFloor, 00001f4fH
  00e48	0f 85 ca 00 00
	00		 jne	 $LN58@drawCharSt
$LN57@drawCharSt:
  00e4e	0f b6 05 00 00
	00 00		 movzx	 eax, BYTE PTR ?popflag@@3_NA ; popflag
  00e55	85 c0		 test	 eax, eax
  00e57	0f 85 bb 00 00
	00		 jne	 $LN58@drawCharSt
  00e5d	0f b6 05 00 00
	00 00		 movzx	 eax, BYTE PTR ?waittimeflag@@3_NA ; waittimeflag
  00e64	85 c0		 test	 eax, eax
  00e66	0f 85 ac 00 00
	00		 jne	 $LN58@drawCharSt

; 1261 : 	{
; 1262 : 		RandAnimate = RAND ( 101508 , 101509 );  //随机选取左气泡或右气泡

  00e6c	8b f4		 mov	 esi, esp
  00e6e	ff 15 00 00 00
	00		 call	 DWORD PTR __imp__rand
  00e74	3b f4		 cmp	 esi, esp
  00e76	e8 00 00 00 00	 call	 __RTC_CheckEsp
  00e7b	f2 0f 2a c0	 cvtsi2sd xmm0, eax
  00e7f	f2 0f 59 05 00
	00 00 00	 mulsd	 xmm0, QWORD PTR __real@4000000000000000
  00e87	f2 0f 5e 05 00
	00 00 00	 divsd	 xmm0, QWORD PTR __real@40e0000000000000
  00e8f	f2 0f 2c c0	 cvttsd2si eax, xmm0
  00e93	05 84 8c 01 00	 add	 eax, 101508		; 00018c84H
  00e98	89 85 a4 fe ff
	ff		 mov	 DWORD PTR _RandAnimate$[ebp], eax

; 1263 : 		if ( popAct == NULL )  

  00e9e	83 3d 00 00 00
	00 00		 cmp	 DWORD PTR ?popAct@@3PAUaction@@A, 0
  00ea5	75 71		 jne	 SHORT $LN58@drawCharSt

; 1264 : 		{
; 1265 : 			//做左、右气泡产生时需要的偏移值
; 1266 : 			if( RandAnimate == 101508 )  

  00ea7	81 bd a4 fe ff
	ff 84 8c 01 00	 cmp	 DWORD PTR _RandAnimate$[ebp], 101508 ; 00018c84H
  00eb1	75 29		 jne	 SHORT $LN59@drawCharSt

; 1267 : 				popAct = createWaterAnimation( RandAnimate , nowGx + 2 , nowGy - 1 , 30 );

  00eb3	6a 1e		 push	 30			; 0000001eH
  00eb5	a1 00 00 00 00	 mov	 eax, DWORD PTR ?nowGy@@3HA ; nowGy
  00eba	83 e8 01	 sub	 eax, 1
  00ebd	50		 push	 eax
  00ebe	8b 0d 00 00 00
	00		 mov	 ecx, DWORD PTR ?nowGx@@3HA ; nowGx
  00ec4	83 c1 02	 add	 ecx, 2
  00ec7	51		 push	 ecx
  00ec8	8b 95 a4 fe ff
	ff		 mov	 edx, DWORD PTR _RandAnimate$[ebp]
  00ece	52		 push	 edx
  00ecf	e8 00 00 00 00	 call	 ?createWaterAnimation@@YAPAUaction@@HHHH@Z ; createWaterAnimation
  00ed4	83 c4 10	 add	 esp, 16			; 00000010H
  00ed7	a3 00 00 00 00	 mov	 DWORD PTR ?popAct@@3PAUaction@@A, eax
$LN59@drawCharSt:

; 1268 : 			if( RandAnimate == 101509 )

  00edc	81 bd a4 fe ff
	ff 85 8c 01 00	 cmp	 DWORD PTR _RandAnimate$[ebp], 101509 ; 00018c85H
  00ee6	75 29		 jne	 SHORT $LN60@drawCharSt

; 1269 : 				popAct = createWaterAnimation( RandAnimate , nowGx + 1 , nowGy - 2 , 30 );

  00ee8	6a 1e		 push	 30			; 0000001eH
  00eea	a1 00 00 00 00	 mov	 eax, DWORD PTR ?nowGy@@3HA ; nowGy
  00eef	83 e8 02	 sub	 eax, 2
  00ef2	50		 push	 eax
  00ef3	8b 0d 00 00 00
	00		 mov	 ecx, DWORD PTR ?nowGx@@3HA ; nowGx
  00ef9	83 c1 01	 add	 ecx, 1
  00efc	51		 push	 ecx
  00efd	8b 95 a4 fe ff
	ff		 mov	 edx, DWORD PTR _RandAnimate$[ebp]
  00f03	52		 push	 edx
  00f04	e8 00 00 00 00	 call	 ?createWaterAnimation@@YAPAUaction@@HHHH@Z ; createWaterAnimation
  00f09	83 c4 10	 add	 esp, 16			; 00000010H
  00f0c	a3 00 00 00 00	 mov	 DWORD PTR ?popAct@@3PAUaction@@A, eax
$LN60@drawCharSt:

; 1270 : 			popflag = true;

  00f11	c6 05 00 00 00
	00 01		 mov	 BYTE PTR ?popflag@@3_NA, 1 ; popflag
$LN58@drawCharSt:

; 1271 : 		}
; 1272 : 	}
; 1273 : 	if ( waittimeflag == false && popAct != NULL)

  00f18	0f b6 05 00 00
	00 00		 movzx	 eax, BYTE PTR ?waittimeflag@@3_NA ; waittimeflag
  00f1f	85 c0		 test	 eax, eax
  00f21	75 46		 jne	 SHORT $LN62@drawCharSt
  00f23	83 3d 00 00 00
	00 00		 cmp	 DWORD PTR ?popAct@@3PAUaction@@A, 0
  00f2a	74 3d		 je	 SHORT $LN62@drawCharSt

; 1274 : 	if ( popAct->anim_cnt == 6 ) //拨放到最后一张

  00f2c	a1 00 00 00 00	 mov	 eax, DWORD PTR ?popAct@@3PAUaction@@A
  00f31	83 b8 5c 01 00
	00 06		 cmp	 DWORD PTR [eax+348], 6
  00f38	75 2f		 jne	 SHORT $LN62@drawCharSt

; 1275 : 	{
; 1276 : 		if ( popAct != NULL)

  00f3a	83 3d 00 00 00
	00 00		 cmp	 DWORD PTR ?popAct@@3PAUaction@@A, 0
  00f41	74 18		 je	 SHORT $LN63@drawCharSt

; 1277 : 		{
; 1278 : 			DeathAction( popAct );

  00f43	a1 00 00 00 00	 mov	 eax, DWORD PTR ?popAct@@3PAUaction@@A
  00f48	50		 push	 eax
  00f49	e8 00 00 00 00	 call	 ?DeathAction@@YAXPAUaction@@@Z ; DeathAction
  00f4e	83 c4 04	 add	 esp, 4

; 1279 : 			popAct = NULL;

  00f51	c7 05 00 00 00
	00 00 00 00 00	 mov	 DWORD PTR ?popAct@@3PAUaction@@A, 0
$LN63@drawCharSt:

; 1280 : 		}
; 1281 : 		popflag = false;

  00f5b	c6 05 00 00 00
	00 00		 mov	 BYTE PTR ?popflag@@3_NA, 0 ; popflag

; 1282 : 		waittimeflag = true;

  00f62	c6 05 00 00 00
	00 01		 mov	 BYTE PTR ?waittimeflag@@3_NA, 1 ; waittimeflag
$LN62@drawCharSt:

; 1283 : 	}
; 1284 : 	if ( waittimeflag == true ) //计时等待下一次产生时间

  00f69	0f b6 05 00 00
	00 00		 movzx	 eax, BYTE PTR ?waittimeflag@@3_NA ; waittimeflag
  00f70	83 f8 01	 cmp	 eax, 1
  00f73	75 2a		 jne	 SHORT $LN65@drawCharSt

; 1285 : 	{
; 1286 : 		waittime ++ ;

  00f75	a1 00 00 00 00	 mov	 eax, DWORD PTR ?waittime@@3HA ; waittime
  00f7a	83 c0 01	 add	 eax, 1
  00f7d	a3 00 00 00 00	 mov	 DWORD PTR ?waittime@@3HA, eax ; waittime

; 1287 : 		if (waittime > 350 ) 

  00f82	81 3d 00 00 00
	00 5e 01 00 00	 cmp	 DWORD PTR ?waittime@@3HA, 350 ; waittime, 0000015eH
  00f8c	7e 11		 jle	 SHORT $LN65@drawCharSt

; 1288 : 		{
; 1289 : 			waittime = 0;

  00f8e	c7 05 00 00 00
	00 00 00 00 00	 mov	 DWORD PTR ?waittime@@3HA, 0 ; waittime

; 1290 : 			waittimeflag = false;

  00f98	c6 05 00 00 00
	00 00		 mov	 BYTE PTR ?waittimeflag@@3_NA, 0 ; waittimeflag
$LN65@drawCharSt:

; 1291 : 		}
; 1292 : 	}
; 1293 : 	if ( ( (nowFloor != 817) && (nowFloor != 8007) && (nowFloor != 8101) && (nowFloor != 8100) && (nowFloor != 8113) && (nowFloor != 8114) &&
; 1294 : 		(nowFloor != 8027) && (nowFloor != 8028) && (nowFloor != 8029) && (nowFloor != 8015)) && (popflag == true))

  00f9f	81 3d 00 00 00
	00 31 03 00 00	 cmp	 DWORD PTR ?nowFloor@@3HA, 817 ; nowFloor, 00000331H
  00fa9	0f 84 b3 00 00
	00		 je	 $LN67@drawCharSt
  00faf	81 3d 00 00 00
	00 47 1f 00 00	 cmp	 DWORD PTR ?nowFloor@@3HA, 8007 ; nowFloor, 00001f47H
  00fb9	0f 84 a3 00 00
	00		 je	 $LN67@drawCharSt
  00fbf	81 3d 00 00 00
	00 a5 1f 00 00	 cmp	 DWORD PTR ?nowFloor@@3HA, 8101 ; nowFloor, 00001fa5H
  00fc9	0f 84 93 00 00
	00		 je	 $LN67@drawCharSt
  00fcf	81 3d 00 00 00
	00 a4 1f 00 00	 cmp	 DWORD PTR ?nowFloor@@3HA, 8100 ; nowFloor, 00001fa4H
  00fd9	0f 84 83 00 00
	00		 je	 $LN67@drawCharSt
  00fdf	81 3d 00 00 00
	00 b1 1f 00 00	 cmp	 DWORD PTR ?nowFloor@@3HA, 8113 ; nowFloor, 00001fb1H
  00fe9	74 77		 je	 SHORT $LN67@drawCharSt
  00feb	81 3d 00 00 00
	00 b2 1f 00 00	 cmp	 DWORD PTR ?nowFloor@@3HA, 8114 ; nowFloor, 00001fb2H
  00ff5	74 6b		 je	 SHORT $LN67@drawCharSt
  00ff7	81 3d 00 00 00
	00 5b 1f 00 00	 cmp	 DWORD PTR ?nowFloor@@3HA, 8027 ; nowFloor, 00001f5bH
  01001	74 5f		 je	 SHORT $LN67@drawCharSt
  01003	81 3d 00 00 00
	00 5c 1f 00 00	 cmp	 DWORD PTR ?nowFloor@@3HA, 8028 ; nowFloor, 00001f5cH
  0100d	74 53		 je	 SHORT $LN67@drawCharSt
  0100f	81 3d 00 00 00
	00 5d 1f 00 00	 cmp	 DWORD PTR ?nowFloor@@3HA, 8029 ; nowFloor, 00001f5dH
  01019	74 47		 je	 SHORT $LN67@drawCharSt
  0101b	81 3d 00 00 00
	00 4f 1f 00 00	 cmp	 DWORD PTR ?nowFloor@@3HA, 8015 ; nowFloor, 00001f4fH
  01025	74 3b		 je	 SHORT $LN67@drawCharSt
  01027	0f b6 05 00 00
	00 00		 movzx	 eax, BYTE PTR ?popflag@@3_NA ; popflag
  0102e	83 f8 01	 cmp	 eax, 1
  01031	75 2f		 jne	 SHORT $LN67@drawCharSt

; 1295 : 	{
; 1296 : 		popflag = false;

  01033	c6 05 00 00 00
	00 00		 mov	 BYTE PTR ?popflag@@3_NA, 0 ; popflag

; 1297 : 		waittimeflag = false;  

  0103a	c6 05 00 00 00
	00 00		 mov	 BYTE PTR ?waittimeflag@@3_NA, 0 ; waittimeflag

; 1298 : 		if ( popAct != NULL)

  01041	83 3d 00 00 00
	00 00		 cmp	 DWORD PTR ?popAct@@3PAUaction@@A, 0
  01048	74 18		 je	 SHORT $LN67@drawCharSt

; 1299 : 		{
; 1300 : 			DeathAction ( popAct ) ;

  0104a	a1 00 00 00 00	 mov	 eax, DWORD PTR ?popAct@@3PAUaction@@A
  0104f	50		 push	 eax
  01050	e8 00 00 00 00	 call	 ?DeathAction@@YAXPAUaction@@@Z ; DeathAction
  01055	83 c4 04	 add	 esp, 4

; 1301 : 			popAct = NULL;

  01058	c7 05 00 00 00
	00 00 00 00 00	 mov	 DWORD PTR ?popAct@@3PAUaction@@A, 0
$LN67@drawCharSt:

; 1302 : 		}
; 1303 : 	}
; 1304 : 
; 1305 : #endif
; 1306 : #ifdef __EMOTION
; 1307 : 	if( ext->ptActEmotion){
; 1308 : 		if( ext->ptActEmotion->mx != ptAct->mx ||
; 1309 : 			ext->ptActEmotion->my != ptAct->my ||
; 1310 : 			ext->ptActEmotion->x != ptAct->x ||
; 1311 : 			ext->ptActEmotion->y != ptAct->y ){
; 1312 : 			DeathAction( ext->ptActEmotion);
; 1313 : 			ext->ptActEmotion = NULL;
; 1314 : 		}else{
; 1315 : 			int no;
; 1316 : 			no = (ptAct->anim_chr_no - SPR_001em) / 20;
; 1317 : 			no %= 12;	// P??????h???
; 1318 : 			// ?????????
; 1319 : 			pattern( ext->ptActEmotion, ANM_NOMAL_SPD, ANM_LOOP );
; 1320 : 			// ??????????????
; 1321 : 			setCharPrio( ext->ptActEmotion->bmpNo,
; 1322 : 				ext->ptActEmotion->x, ext->ptActEmotion->y, 0, charIconOffsetY[no],
; 1323 : 					ext->ptActEmotion->mx, ext->ptActEmotion->my );
; 1324 : 		}
; 1325 : 	}
; 1326 : #endif
; 1327 : #ifdef _STREET_VENDOR
; 1328 : 	if(ext->ptStreetVendor){

  01062	8b 45 f4	 mov	 eax, DWORD PTR _ext$[ebp]
  01065	83 78 1c 00	 cmp	 DWORD PTR [eax+28], 0
  01069	0f 84 fa 00 00
	00		 je	 $LN68@drawCharSt

; 1329 : 		ext->ptStreetVendor->x  = ptAct->x;

  0106f	8b 45 f4	 mov	 eax, DWORD PTR _ext$[ebp]
  01072	8b 48 1c	 mov	 ecx, DWORD PTR [eax+28]
  01075	8b 55 08	 mov	 edx, DWORD PTR _ptAct$[ebp]
  01078	8b 42 18	 mov	 eax, DWORD PTR [edx+24]
  0107b	89 41 18	 mov	 DWORD PTR [ecx+24], eax

; 1330 : 		ext->ptStreetVendor->y  = ptAct->y;

  0107e	8b 45 f4	 mov	 eax, DWORD PTR _ext$[ebp]
  01081	8b 48 1c	 mov	 ecx, DWORD PTR [eax+28]
  01084	8b 55 08	 mov	 edx, DWORD PTR _ptAct$[ebp]
  01087	8b 42 1c	 mov	 eax, DWORD PTR [edx+28]
  0108a	89 41 1c	 mov	 DWORD PTR [ecx+28], eax

; 1331 : 		ext->ptStreetVendor->mx = ptAct->mx;

  0108d	8b 45 f4	 mov	 eax, DWORD PTR _ext$[ebp]
  01090	8b 48 1c	 mov	 ecx, DWORD PTR [eax+28]
  01093	8b 55 08	 mov	 edx, DWORD PTR _ptAct$[ebp]
  01096	8b 82 18 01 00
	00		 mov	 eax, DWORD PTR [edx+280]
  0109c	89 81 18 01 00
	00		 mov	 DWORD PTR [ecx+280], eax

; 1332 : 		ext->ptStreetVendor->my = ptAct->my;

  010a2	8b 45 f4	 mov	 eax, DWORD PTR _ext$[ebp]
  010a5	8b 48 1c	 mov	 ecx, DWORD PTR [eax+28]
  010a8	8b 55 08	 mov	 edx, DWORD PTR _ptAct$[ebp]
  010ab	8b 82 1c 01 00
	00		 mov	 eax, DWORD PTR [edx+284]
  010b1	89 81 1c 01 00
	00		 mov	 DWORD PTR [ecx+284], eax

; 1333 : #ifdef _STREET_VENDOR_CHANGE_ICON
; 1334 : 		StockDispBuffer(ext->ptStreetVendor->x,ext->ptStreetVendor->y + 35,DISP_PRIO_TILE+1,35343,0);

  010b7	6a 00		 push	 0
  010b9	68 0f 8a 00 00	 push	 35343			; 00008a0fH
  010be	6a 02		 push	 2
  010c0	8b 45 f4	 mov	 eax, DWORD PTR _ext$[ebp]
  010c3	8b 48 1c	 mov	 ecx, DWORD PTR [eax+28]
  010c6	8b 51 1c	 mov	 edx, DWORD PTR [ecx+28]
  010c9	83 c2 23	 add	 edx, 35			; 00000023H
  010cc	52		 push	 edx
  010cd	8b 45 f4	 mov	 eax, DWORD PTR _ext$[ebp]
  010d0	8b 48 1c	 mov	 ecx, DWORD PTR [eax+28]
  010d3	8b 51 18	 mov	 edx, DWORD PTR [ecx+24]
  010d6	52		 push	 edx
  010d7	e8 00 00 00 00	 call	 ?StockDispBuffer@@YAHHHEHH@Z ; StockDispBuffer
  010dc	83 c4 14	 add	 esp, 20			; 00000014H

; 1335 : 		StockDispBuffer(ext->ptStreetVendor->x - 10,ext->ptStreetVendor->y + 10,DISP_PRIO_CHAR-1,35344,0);

  010df	6a 00		 push	 0
  010e1	68 10 8a 00 00	 push	 35344			; 00008a10H
  010e6	6a 09		 push	 9
  010e8	8b 45 f4	 mov	 eax, DWORD PTR _ext$[ebp]
  010eb	8b 48 1c	 mov	 ecx, DWORD PTR [eax+28]
  010ee	8b 51 1c	 mov	 edx, DWORD PTR [ecx+28]
  010f1	83 c2 0a	 add	 edx, 10			; 0000000aH
  010f4	52		 push	 edx
  010f5	8b 45 f4	 mov	 eax, DWORD PTR _ext$[ebp]
  010f8	8b 48 1c	 mov	 ecx, DWORD PTR [eax+28]
  010fb	8b 51 18	 mov	 edx, DWORD PTR [ecx+24]
  010fe	83 ea 0a	 sub	 edx, 10			; 0000000aH
  01101	52		 push	 edx
  01102	e8 00 00 00 00	 call	 ?StockDispBuffer@@YAHHHEHH@Z ; StockDispBuffer
  01107	83 c4 14	 add	 esp, 20			; 00000014H

; 1336 : 		StockDispBuffer(ext->ptStreetVendor->x,ext->ptStreetVendor->y - 15,DISP_PRIO_CHAR+1,35345,0);

  0110a	6a 00		 push	 0
  0110c	68 11 8a 00 00	 push	 35345			; 00008a11H
  01111	6a 0b		 push	 11			; 0000000bH
  01113	8b 45 f4	 mov	 eax, DWORD PTR _ext$[ebp]
  01116	8b 48 1c	 mov	 ecx, DWORD PTR [eax+28]
  01119	8b 51 1c	 mov	 edx, DWORD PTR [ecx+28]
  0111c	83 ea 0f	 sub	 edx, 15			; 0000000fH
  0111f	52		 push	 edx
  01120	8b 45 f4	 mov	 eax, DWORD PTR _ext$[ebp]
  01123	8b 48 1c	 mov	 ecx, DWORD PTR [eax+28]
  01126	8b 51 18	 mov	 edx, DWORD PTR [ecx+24]
  01129	52		 push	 edx
  0112a	e8 00 00 00 00	 call	 ?StockDispBuffer@@YAHHHEHH@Z ; StockDispBuffer
  0112f	83 c4 14	 add	 esp, 20			; 00000014H

; 1337 : #else
; 1338 : 	#ifdef _READ16BITBMP
; 1339 : 		StockDispBuffer(ext->ptStreetVendor->x,ext->ptStreetVendor->y - 80,DISP_PRIO_CHAR,OLD_GRAPHICS_START+58,10);
; 1340 : 	#endif
; 1341 : #endif
; 1342 : 			StockFontBuffer(ext->ptStreetVendor->x - 65,ext->ptStreetVendor->y - 92,

  01132	6a 00		 push	 0
  01134	8b 45 08	 mov	 eax, DWORD PTR _ptAct$[ebp]
  01137	05 e4 01 00 00	 add	 eax, 484		; 000001e4H
  0113c	50		 push	 eax
  0113d	0f b6 0d 08 01
	00 00		 movzx	 ecx, BYTE PTR ?MyChatBuffer@@3USTR_BUFFER@@A+264
  01144	51		 push	 ecx
  01145	6a 00		 push	 0
  01147	8b 55 f4	 mov	 edx, DWORD PTR _ext$[ebp]
  0114a	8b 42 1c	 mov	 eax, DWORD PTR [edx+28]
  0114d	8b 48 1c	 mov	 ecx, DWORD PTR [eax+28]
  01150	83 e9 5c	 sub	 ecx, 92			; 0000005cH
  01153	51		 push	 ecx
  01154	8b 55 f4	 mov	 edx, DWORD PTR _ext$[ebp]
  01157	8b 42 1c	 mov	 eax, DWORD PTR [edx+28]
  0115a	8b 48 18	 mov	 ecx, DWORD PTR [eax+24]
  0115d	83 e9 41	 sub	 ecx, 65			; 00000041H
  01160	51		 push	 ecx
  01161	e8 00 00 00 00	 call	 ?StockFontBuffer@@YAHHHDHPADH@Z ; StockFontBuffer
  01166	83 c4 18	 add	 esp, 24			; 00000018H
$LN68@drawCharSt:

; 1343 : 										FONT_PRIO_BACK,MyChatBuffer.color,ptAct->szStreetVendorTitle,0);
; 1344 : 	}
; 1345 : #endif
; 1346 : #ifdef _MIND_ICON
; 1347 : 	if( ext->ptMindIcon){		

  01169	8b 45 f4	 mov	 eax, DWORD PTR _ext$[ebp]
  0116c	83 78 10 00	 cmp	 DWORD PTR [eax+16], 0
  01170	0f 84 4e 01 00
	00		 je	 $LN71@drawCharSt

; 1348 : 		if( ((ptAct->sMindIcon != SPR_asleep) &&
; 1349 : 		     (ptAct->sMindIcon != SPR_cafe) &&
; 1350 : 		     (ptAct->sMindIcon != SPR_accent) ) &&

  01176	8b 45 08	 mov	 eax, DWORD PTR _ptAct$[ebp]
  01179	81 b8 c0 01 00
	00 aa 8b 01 00	 cmp	 DWORD PTR [eax+448], 101290 ; 00018baaH
  01183	74 53		 je	 SHORT $LN70@drawCharSt
  01185	8b 45 08	 mov	 eax, DWORD PTR _ptAct$[ebp]
  01188	81 b8 c0 01 00
	00 ae 8b 01 00	 cmp	 DWORD PTR [eax+448], 101294 ; 00018baeH
  01192	74 44		 je	 SHORT $LN70@drawCharSt
  01194	8b 45 08	 mov	 eax, DWORD PTR _ptAct$[ebp]
  01197	81 b8 c0 01 00
	00 a8 8b 01 00	 cmp	 DWORD PTR [eax+448], 101288 ; 00018ba8H
  011a1	74 35		 je	 SHORT $LN70@drawCharSt
  011a3	6a 01		 push	 1
  011a5	6a 00		 push	 0
  011a7	8b 45 f4	 mov	 eax, DWORD PTR _ext$[ebp]
  011aa	8b 48 10	 mov	 ecx, DWORD PTR [eax+16]
  011ad	51		 push	 ecx
  011ae	e8 00 00 00 00	 call	 ?pattern@@YAHPAUaction@@HH@Z ; pattern
  011b3	83 c4 0c	 add	 esp, 12			; 0000000cH
  011b6	85 c0		 test	 eax, eax
  011b8	74 1e		 je	 SHORT $LN70@drawCharSt

; 1351 : 			 pattern( ext->ptMindIcon, ANM_NOMAL_SPD, ANM_NO_LOOP)
; 1352 : 		    ){
; 1353 : 			DeathAction( ext->ptMindIcon);

  011ba	8b 45 f4	 mov	 eax, DWORD PTR _ext$[ebp]
  011bd	8b 48 10	 mov	 ecx, DWORD PTR [eax+16]
  011c0	51		 push	 ecx
  011c1	e8 00 00 00 00	 call	 ?DeathAction@@YAXPAUaction@@@Z ; DeathAction
  011c6	83 c4 04	 add	 esp, 4

; 1354 : 			ext->ptMindIcon = NULL;

  011c9	8b 45 f4	 mov	 eax, DWORD PTR _ext$[ebp]
  011cc	c7 40 10 00 00
	00 00		 mov	 DWORD PTR [eax+16], 0

; 1355 : 		}else{

  011d3	e9 ec 00 00 00	 jmp	 $LN71@drawCharSt
$LN70@drawCharSt:

; 1356 : 			int no;
; 1357 : 			no = (ptAct->anim_chr_no - SPR_001em) / 20;

  011d8	8b 45 08	 mov	 eax, DWORD PTR _ptAct$[ebp]
  011db	8b 80 44 01 00
	00		 mov	 eax, DWORD PTR [eax+324]
  011e1	2d a0 86 01 00	 sub	 eax, 100000		; 000186a0H
  011e6	99		 cdq
  011e7	b9 14 00 00 00	 mov	 ecx, 20			; 00000014H
  011ec	f7 f9		 idiv	 ecx
  011ee	89 85 94 fd ff
	ff		 mov	 DWORD PTR _no$15[ebp], eax

; 1358 : 			no %= 12;

  011f4	8b 85 94 fd ff
	ff		 mov	 eax, DWORD PTR _no$15[ebp]
  011fa	99		 cdq
  011fb	b9 0c 00 00 00	 mov	 ecx, 12			; 0000000cH
  01200	f7 f9		 idiv	 ecx
  01202	89 95 94 fd ff
	ff		 mov	 DWORD PTR _no$15[ebp], edx

; 1359 : 			
; 1360 : 			ext->ptMindIcon->x  = ptAct->x;

  01208	8b 45 f4	 mov	 eax, DWORD PTR _ext$[ebp]
  0120b	8b 48 10	 mov	 ecx, DWORD PTR [eax+16]
  0120e	8b 55 08	 mov	 edx, DWORD PTR _ptAct$[ebp]
  01211	8b 42 18	 mov	 eax, DWORD PTR [edx+24]
  01214	89 41 18	 mov	 DWORD PTR [ecx+24], eax

; 1361 : 			ext->ptMindIcon->y  = ptAct->y;

  01217	8b 45 f4	 mov	 eax, DWORD PTR _ext$[ebp]
  0121a	8b 48 10	 mov	 ecx, DWORD PTR [eax+16]
  0121d	8b 55 08	 mov	 edx, DWORD PTR _ptAct$[ebp]
  01220	8b 42 1c	 mov	 eax, DWORD PTR [edx+28]
  01223	89 41 1c	 mov	 DWORD PTR [ecx+28], eax

; 1362 : 			ext->ptMindIcon->mx = ptAct->mx;

  01226	8b 45 f4	 mov	 eax, DWORD PTR _ext$[ebp]
  01229	8b 48 10	 mov	 ecx, DWORD PTR [eax+16]
  0122c	8b 55 08	 mov	 edx, DWORD PTR _ptAct$[ebp]
  0122f	8b 82 18 01 00
	00		 mov	 eax, DWORD PTR [edx+280]
  01235	89 81 18 01 00
	00		 mov	 DWORD PTR [ecx+280], eax

; 1363 : 			ext->ptMindIcon->my = ptAct->my;

  0123b	8b 45 f4	 mov	 eax, DWORD PTR _ext$[ebp]
  0123e	8b 48 10	 mov	 ecx, DWORD PTR [eax+16]
  01241	8b 55 08	 mov	 edx, DWORD PTR _ptAct$[ebp]
  01244	8b 82 1c 01 00
	00		 mov	 eax, DWORD PTR [edx+284]
  0124a	89 81 1c 01 00
	00		 mov	 DWORD PTR [ecx+284], eax

; 1364 : 			
; 1365 : 			pattern( ext->ptMindIcon, ANM_NOMAL_SPD, ANM_LOOP );

  01250	6a 00		 push	 0
  01252	6a 00		 push	 0
  01254	8b 45 f4	 mov	 eax, DWORD PTR _ext$[ebp]
  01257	8b 48 10	 mov	 ecx, DWORD PTR [eax+16]
  0125a	51		 push	 ecx
  0125b	e8 00 00 00 00	 call	 ?pattern@@YAHPAUaction@@HH@Z ; pattern
  01260	83 c4 0c	 add	 esp, 12			; 0000000cH

; 1366 : 			
; 1367 : 			setCharPrio( ext->ptMindIcon->bmpNo,

  01263	8b 45 f4	 mov	 eax, DWORD PTR _ext$[ebp]
  01266	8b 48 10	 mov	 ecx, DWORD PTR [eax+16]
  01269	51		 push	 ecx
  0126a	f3 0f 10 81 1c
	01 00 00	 movss	 xmm0, DWORD PTR [ecx+284]
  01272	f3 0f 11 04 24	 movss	 DWORD PTR [esp], xmm0
  01277	8b 55 f4	 mov	 edx, DWORD PTR _ext$[ebp]
  0127a	8b 42 10	 mov	 eax, DWORD PTR [edx+16]
  0127d	51		 push	 ecx
  0127e	f3 0f 10 80 18
	01 00 00	 movss	 xmm0, DWORD PTR [eax+280]
  01286	f3 0f 11 04 24	 movss	 DWORD PTR [esp], xmm0
  0128b	8b 8d 94 fd ff
	ff		 mov	 ecx, DWORD PTR _no$15[ebp]
  01291	8b 14 8d 00 00
	00 00		 mov	 edx, DWORD PTR ?charIconOffsetY@@3PAHA[ecx*4]
  01298	52		 push	 edx
  01299	6a 00		 push	 0
  0129b	8b 45 f4	 mov	 eax, DWORD PTR _ext$[ebp]
  0129e	8b 48 10	 mov	 ecx, DWORD PTR [eax+16]
  012a1	8b 51 1c	 mov	 edx, DWORD PTR [ecx+28]
  012a4	52		 push	 edx
  012a5	8b 45 f4	 mov	 eax, DWORD PTR _ext$[ebp]
  012a8	8b 48 10	 mov	 ecx, DWORD PTR [eax+16]
  012ab	8b 51 18	 mov	 edx, DWORD PTR [ecx+24]
  012ae	52		 push	 edx
  012af	8b 45 f4	 mov	 eax, DWORD PTR _ext$[ebp]
  012b2	8b 48 10	 mov	 ecx, DWORD PTR [eax+16]
  012b5	8b 91 9c 00 00
	00		 mov	 edx, DWORD PTR [ecx+156]
  012bb	52		 push	 edx
  012bc	e8 00 00 00 00	 call	 ?setCharPrio@@YAXHHHHHMM@Z ; setCharPrio
  012c1	83 c4 1c	 add	 esp, 28			; 0000001cH
$LN71@drawCharSt:

; 1368 : 				ext->ptMindIcon->x, ext->ptMindIcon->y, 0, charIconOffsetY[no],
; 1369 : 				ext->ptMindIcon->mx, ext->ptMindIcon->my );			
; 1370 : 		}
; 1371 : 	}
; 1372 : #endif
; 1373 : 
; 1374 : #ifdef _NB_任务指引
; 1375 : 	if( ext->ptNoticeIcon){//这里删除掉就可以走动显示

  012c4	8b 45 f4	 mov	 eax, DWORD PTR _ext$[ebp]
  012c7	83 78 30 00	 cmp	 DWORD PTR [eax+48], 0
  012cb	0f 84 38 01 00
	00		 je	 $LN75@drawCharSt

; 1376 : 		if(!ATR_PAT_NO(ext->ptNoticeIcon) ){

  012d1	8b 45 f4	 mov	 eax, DWORD PTR _ext$[ebp]
  012d4	8b 48 30	 mov	 ecx, DWORD PTR [eax+48]
  012d7	83 b9 9c 00 00
	00 00		 cmp	 DWORD PTR [ecx+156], 0
  012de	75 27		 jne	 SHORT $LN74@drawCharSt

; 1377 : 			if(ATR_PAT_BAK_NO(ext->ptNoticeIcon)){

  012e0	8b 45 f4	 mov	 eax, DWORD PTR _ext$[ebp]
  012e3	8b 48 30	 mov	 ecx, DWORD PTR [eax+48]
  012e6	83 b9 a0 00 00
	00 00		 cmp	 DWORD PTR [ecx+160], 0
  012ed	74 18		 je	 SHORT $LN74@drawCharSt

; 1378 : 				ATR_PAT_NO(ext->ptNoticeIcon) = ATR_PAT_BAK_NO(ext->ptNoticeIcon);

  012ef	8b 45 f4	 mov	 eax, DWORD PTR _ext$[ebp]
  012f2	8b 48 30	 mov	 ecx, DWORD PTR [eax+48]
  012f5	8b 55 f4	 mov	 edx, DWORD PTR _ext$[ebp]
  012f8	8b 42 30	 mov	 eax, DWORD PTR [edx+48]
  012fb	8b 89 a0 00 00
	00		 mov	 ecx, DWORD PTR [ecx+160]
  01301	89 88 9c 00 00
	00		 mov	 DWORD PTR [eax+156], ecx
$LN74@drawCharSt:

; 1379 : 			}
; 1380 : 		}
; 1381 : 		short x1,y1,x2,y2;
; 1382 : 		y2=x2=0;

  01307	33 c0		 xor	 eax, eax
  01309	66 89 85 70 fd
	ff ff		 mov	 WORD PTR _x2$12[ebp], ax
  01310	66 8b 8d 70 fd
	ff ff		 mov	 cx, WORD PTR _x2$12[ebp]
  01317	66 89 8d 64 fd
	ff ff		 mov	 WORD PTR _y2$11[ebp], cx

; 1383 : 		if(获取动画尺寸(ptAct,&x1,&y1)){

  0131e	8d 85 7c fd ff
	ff		 lea	 eax, DWORD PTR _y1$13[ebp]
  01324	50		 push	 eax
  01325	8d 8d 88 fd ff
	ff		 lea	 ecx, DWORD PTR _x1$14[ebp]
  0132b	51		 push	 ecx
  0132c	8b 55 08	 mov	 edx, DWORD PTR _ptAct$[ebp]
  0132f	52		 push	 edx
  01330	e8 00 00 00 00	 call	 ?获取动画尺寸@@YAHPAUaction@@PAF1@Z ; 获取动画尺寸
  01335	83 c4 0c	 add	 esp, 12			; 0000000cH
  01338	85 c0		 test	 eax, eax
  0133a	0f 84 c9 00 00
	00		 je	 $LN75@drawCharSt

; 1384 : 			ext->ptNoticeIcon->x  = ptAct->x;

  01340	8b 45 f4	 mov	 eax, DWORD PTR _ext$[ebp]
  01343	8b 48 30	 mov	 ecx, DWORD PTR [eax+48]
  01346	8b 55 08	 mov	 edx, DWORD PTR _ptAct$[ebp]
  01349	8b 42 18	 mov	 eax, DWORD PTR [edx+24]
  0134c	89 41 18	 mov	 DWORD PTR [ecx+24], eax

; 1385 : 			ext->ptNoticeIcon->y  = ptAct->y;

  0134f	8b 45 f4	 mov	 eax, DWORD PTR _ext$[ebp]
  01352	8b 48 30	 mov	 ecx, DWORD PTR [eax+48]
  01355	8b 55 08	 mov	 edx, DWORD PTR _ptAct$[ebp]
  01358	8b 42 1c	 mov	 eax, DWORD PTR [edx+28]
  0135b	89 41 1c	 mov	 DWORD PTR [ecx+28], eax

; 1386 : 			ext->ptNoticeIcon->mx = ptAct->mx;

  0135e	8b 45 f4	 mov	 eax, DWORD PTR _ext$[ebp]
  01361	8b 48 30	 mov	 ecx, DWORD PTR [eax+48]
  01364	8b 55 08	 mov	 edx, DWORD PTR _ptAct$[ebp]
  01367	8b 82 18 01 00
	00		 mov	 eax, DWORD PTR [edx+280]
  0136d	89 81 18 01 00
	00		 mov	 DWORD PTR [ecx+280], eax

; 1387 : 			ext->ptNoticeIcon->my = ptAct->my;

  01373	8b 45 f4	 mov	 eax, DWORD PTR _ext$[ebp]
  01376	8b 48 30	 mov	 ecx, DWORD PTR [eax+48]
  01379	8b 55 08	 mov	 edx, DWORD PTR _ptAct$[ebp]
  0137c	8b 82 1c 01 00
	00		 mov	 eax, DWORD PTR [edx+284]
  01382	89 81 1c 01 00
	00		 mov	 DWORD PTR [ecx+284], eax

; 1388 : 			pattern( ext->ptNoticeIcon, ANM_NOMAL_SPD, ANM_LOOP );

  01388	6a 00		 push	 0
  0138a	6a 00		 push	 0
  0138c	8b 45 f4	 mov	 eax, DWORD PTR _ext$[ebp]
  0138f	8b 48 30	 mov	 ecx, DWORD PTR [eax+48]
  01392	51		 push	 ecx
  01393	e8 00 00 00 00	 call	 ?pattern@@YAHPAUaction@@HH@Z ; pattern
  01398	83 c4 0c	 add	 esp, 12			; 0000000cH

; 1389 : 			setCharPrio( ext->ptNoticeIcon->bmpNo,

  0139b	8b 45 f4	 mov	 eax, DWORD PTR _ext$[ebp]
  0139e	8b 48 30	 mov	 ecx, DWORD PTR [eax+48]
  013a1	51		 push	 ecx
  013a2	f3 0f 10 81 1c
	01 00 00	 movss	 xmm0, DWORD PTR [ecx+284]
  013aa	f3 0f 11 04 24	 movss	 DWORD PTR [esp], xmm0
  013af	8b 55 f4	 mov	 edx, DWORD PTR _ext$[ebp]
  013b2	8b 42 30	 mov	 eax, DWORD PTR [edx+48]
  013b5	51		 push	 ecx
  013b6	f3 0f 10 80 18
	01 00 00	 movss	 xmm0, DWORD PTR [eax+280]
  013be	f3 0f 11 04 24	 movss	 DWORD PTR [esp], xmm0
  013c3	0f bf 85 7c fd
	ff ff		 movsx	 eax, WORD PTR _y1$13[ebp]
  013ca	99		 cdq
  013cb	2b c2		 sub	 eax, edx
  013cd	d1 f8		 sar	 eax, 1
  013cf	83 c0 37	 add	 eax, 55			; 00000037H
  013d2	f7 d8		 neg	 eax
  013d4	50		 push	 eax
  013d5	6a 00		 push	 0
  013d7	8b 4d f4	 mov	 ecx, DWORD PTR _ext$[ebp]
  013da	8b 51 30	 mov	 edx, DWORD PTR [ecx+48]
  013dd	8b 42 1c	 mov	 eax, DWORD PTR [edx+28]
  013e0	50		 push	 eax
  013e1	8b 4d f4	 mov	 ecx, DWORD PTR _ext$[ebp]
  013e4	8b 51 30	 mov	 edx, DWORD PTR [ecx+48]
  013e7	0f bf 85 70 fd
	ff ff		 movsx	 eax, WORD PTR _x2$12[ebp]
  013ee	8b 4a 18	 mov	 ecx, DWORD PTR [edx+24]
  013f1	2b c8		 sub	 ecx, eax
  013f3	51		 push	 ecx
  013f4	8b 55 f4	 mov	 edx, DWORD PTR _ext$[ebp]
  013f7	8b 42 30	 mov	 eax, DWORD PTR [edx+48]
  013fa	8b 88 9c 00 00
	00		 mov	 ecx, DWORD PTR [eax+156]
  01400	51		 push	 ecx
  01401	e8 00 00 00 00	 call	 ?setCharPrio@@YAXHHHHHMM@Z ; setCharPrio
  01406	83 c4 1c	 add	 esp, 28			; 0000001cH
$LN75@drawCharSt:

; 1390 : 				ext->ptNoticeIcon->x-x2, ext->ptNoticeIcon->y, 0,-(y1/2+55),
; 1391 : 				ext->ptNoticeIcon->mx, ext->ptNoticeIcon->my
; 1392 : #ifdef _SFUMATO
; 1393 : 				, ptAct->sfumato
; 1394 : #endif
; 1395 : 				);
; 1396 : 		}
; 1397 : 	}
; 1398 : #endif
; 1399 : 
; 1400 : #ifdef _ITEM_FIREWORK
; 1401 : 	if (ext->pActFirework[0])	// 有要放烟火

  01409	b8 04 00 00 00	 mov	 eax, 4
  0140e	6b c8 00	 imul	 ecx, eax, 0
  01411	8b 55 f4	 mov	 edx, DWORD PTR _ext$[ebp]
  01414	83 7c 0a 24 00	 cmp	 DWORD PTR [edx+ecx+36], 0
  01419	0f 84 71 06 00
	00		 je	 $LN86@drawCharSt

; 1402 : 	{
; 1403 : 		float	fX, fY;
; 1404 : 
; 1405 : 		camMapToGamen((float)ext->pActFirework[0]->gx * GRID_SIZE, (float)ext->pActFirework[0]->gy * GRID_SIZE, &fX, &fY);

  0141f	8d 85 4c fd ff
	ff		 lea	 eax, DWORD PTR _fY$9[ebp]
  01425	50		 push	 eax
  01426	8d 8d 58 fd ff
	ff		 lea	 ecx, DWORD PTR _fX$10[ebp]
  0142c	51		 push	 ecx
  0142d	ba 04 00 00 00	 mov	 edx, 4
  01432	6b c2 00	 imul	 eax, edx, 0
  01435	8b 4d f4	 mov	 ecx, DWORD PTR _ext$[ebp]
  01438	8b 54 01 24	 mov	 edx, DWORD PTR [ecx+eax+36]
  0143c	f3 0f 2a 82 b8
	00 00 00	 cvtsi2ss xmm0, DWORD PTR [edx+184]
  01444	f3 0f 59 05 00
	00 00 00	 mulss	 xmm0, DWORD PTR __real@42800000
  0144c	51		 push	 ecx
  0144d	f3 0f 11 04 24	 movss	 DWORD PTR [esp], xmm0
  01452	b8 04 00 00 00	 mov	 eax, 4
  01457	6b c8 00	 imul	 ecx, eax, 0
  0145a	8b 55 f4	 mov	 edx, DWORD PTR _ext$[ebp]
  0145d	8b 44 0a 24	 mov	 eax, DWORD PTR [edx+ecx+36]
  01461	f3 0f 2a 80 b4
	00 00 00	 cvtsi2ss xmm0, DWORD PTR [eax+180]
  01469	f3 0f 59 05 00
	00 00 00	 mulss	 xmm0, DWORD PTR __real@42800000
  01471	51		 push	 ecx
  01472	f3 0f 11 04 24	 movss	 DWORD PTR [esp], xmm0
  01477	e8 00 00 00 00	 call	 ?camMapToGamen@@YAXMMPAM0@Z ; camMapToGamen
  0147c	83 c4 10	 add	 esp, 16			; 00000010H

; 1406 : 		ext->pActFirework[0]->x	= (int)fX;

  0147f	f3 0f 2c 85 58
	fd ff ff	 cvttss2si eax, DWORD PTR _fX$10[ebp]
  01487	b9 04 00 00 00	 mov	 ecx, 4
  0148c	6b d1 00	 imul	 edx, ecx, 0
  0148f	8b 4d f4	 mov	 ecx, DWORD PTR _ext$[ebp]
  01492	8b 54 11 24	 mov	 edx, DWORD PTR [ecx+edx+36]
  01496	89 42 18	 mov	 DWORD PTR [edx+24], eax

; 1407 : 		ext->pActFirework[0]->y	= (int)fY;

  01499	f3 0f 2c 85 4c
	fd ff ff	 cvttss2si eax, DWORD PTR _fY$9[ebp]
  014a1	b9 04 00 00 00	 mov	 ecx, 4
  014a6	6b d1 00	 imul	 edx, ecx, 0
  014a9	8b 4d f4	 mov	 ecx, DWORD PTR _ext$[ebp]
  014ac	8b 54 11 24	 mov	 edx, DWORD PTR [ecx+edx+36]
  014b0	89 42 1c	 mov	 DWORD PTR [edx+28], eax

; 1408 : 		// 如果第一个烟火放完了,再来以type来??接下来要怎么放
; 1409 : 		if (pattern(ext->pActFirework[0], ANM_NOMAL_SPD, ANM_NO_LOOP))

  014b3	6a 01		 push	 1
  014b5	6a 00		 push	 0
  014b7	b8 04 00 00 00	 mov	 eax, 4
  014bc	6b c8 00	 imul	 ecx, eax, 0
  014bf	8b 55 f4	 mov	 edx, DWORD PTR _ext$[ebp]
  014c2	8b 44 0a 24	 mov	 eax, DWORD PTR [edx+ecx+36]
  014c6	50		 push	 eax
  014c7	e8 00 00 00 00	 call	 ?pattern@@YAHPAUaction@@HH@Z ; pattern
  014cc	83 c4 0c	 add	 esp, 12			; 0000000cH
  014cf	85 c0		 test	 eax, eax
  014d1	0f 84 6d 05 00
	00		 je	 $LN85@drawCharSt

; 1410 : 		{
; 1411 : 			if (ext->pActFirework[0]->damage == 0)	// 一个放中间二个左右

  014d7	b8 04 00 00 00	 mov	 eax, 4
  014dc	6b c8 00	 imul	 ecx, eax, 0
  014df	8b 55 f4	 mov	 edx, DWORD PTR _ext$[ebp]
  014e2	8b 44 0a 24	 mov	 eax, DWORD PTR [edx+ecx+36]
  014e6	83 b8 b0 00 00
	00 00		 cmp	 DWORD PTR [eax+176], 0
  014ed	0f 85 ba 01 00
	00		 jne	 $LN78@drawCharSt

; 1412 : 			{
; 1413 : 				int nGX, nGY;
; 1414 : 				
; 1415 : 				nGX = ext->pActFirework[0]->gx;

  014f3	b8 04 00 00 00	 mov	 eax, 4
  014f8	6b c8 00	 imul	 ecx, eax, 0
  014fb	8b 55 f4	 mov	 edx, DWORD PTR _ext$[ebp]
  014fe	8b 44 0a 24	 mov	 eax, DWORD PTR [edx+ecx+36]
  01502	8b 88 b4 00 00
	00		 mov	 ecx, DWORD PTR [eax+180]
  01508	89 8d 40 fd ff
	ff		 mov	 DWORD PTR _nGX$8[ebp], ecx

; 1416 : 				nGY = ext->pActFirework[0]->gy;

  0150e	b8 04 00 00 00	 mov	 eax, 4
  01513	6b c8 00	 imul	 ecx, eax, 0
  01516	8b 55 f4	 mov	 edx, DWORD PTR _ext$[ebp]
  01519	8b 44 0a 24	 mov	 eax, DWORD PTR [edx+ecx+36]
  0151d	8b 88 b8 00 00
	00		 mov	 ecx, DWORD PTR [eax+184]
  01523	89 8d 34 fd ff
	ff		 mov	 DWORD PTR _nGY$7[ebp], ecx

; 1417 : 				ext->pActFirework[1] = GetAction(PRIO_CHR, 0);

  01529	6a 00		 push	 0
  0152b	6a 01		 push	 1
  0152d	e8 00 00 00 00	 call	 ?GetAction@@YAPAUaction@@EI@Z ; GetAction
  01532	83 c4 08	 add	 esp, 8
  01535	b9 04 00 00 00	 mov	 ecx, 4
  0153a	c1 e1 00	 shl	 ecx, 0
  0153d	8b 55 f4	 mov	 edx, DWORD PTR _ext$[ebp]
  01540	89 44 0a 24	 mov	 DWORD PTR [edx+ecx+36], eax

; 1418 : 				ext->pActFirework[1]->damage			= 1;

  01544	b8 04 00 00 00	 mov	 eax, 4
  01549	c1 e0 00	 shl	 eax, 0
  0154c	8b 4d f4	 mov	 ecx, DWORD PTR _ext$[ebp]
  0154f	8b 54 01 24	 mov	 edx, DWORD PTR [ecx+eax+36]
  01553	c7 82 b0 00 00
	00 01 00 00 00	 mov	 DWORD PTR [edx+176], 1

; 1419 : 				ext->pActFirework[1]->anim_chr_no		= ext->pActFirework[0]->anim_chr_no;

  0155d	b8 04 00 00 00	 mov	 eax, 4
  01562	6b c8 00	 imul	 ecx, eax, 0
  01565	8b 55 f4	 mov	 edx, DWORD PTR _ext$[ebp]
  01568	8b 44 0a 24	 mov	 eax, DWORD PTR [edx+ecx+36]
  0156c	b9 04 00 00 00	 mov	 ecx, 4
  01571	c1 e1 00	 shl	 ecx, 0
  01574	8b 55 f4	 mov	 edx, DWORD PTR _ext$[ebp]
  01577	8b 4c 0a 24	 mov	 ecx, DWORD PTR [edx+ecx+36]
  0157b	8b 90 44 01 00
	00		 mov	 edx, DWORD PTR [eax+324]
  01581	89 91 44 01 00
	00		 mov	 DWORD PTR [ecx+324], edx

; 1420 : 				ext->pActFirework[1]->anim_no			= ANIM_STAND;

  01587	b8 04 00 00 00	 mov	 eax, 4
  0158c	c1 e0 00	 shl	 eax, 0
  0158f	8b 4d f4	 mov	 ecx, DWORD PTR _ext$[ebp]
  01592	8b 54 01 24	 mov	 edx, DWORD PTR [ecx+eax+36]
  01596	c7 82 4c 01 00
	00 03 00 00 00	 mov	 DWORD PTR [edx+332], 3

; 1421 : 				ext->pActFirework[1]->anim_ang			= 1;

  015a0	b8 04 00 00 00	 mov	 eax, 4
  015a5	c1 e0 00	 shl	 eax, 0
  015a8	8b 4d f4	 mov	 ecx, DWORD PTR _ext$[ebp]
  015ab	8b 54 01 24	 mov	 edx, DWORD PTR [ecx+eax+36]
  015af	c7 82 54 01 00
	00 01 00 00 00	 mov	 DWORD PTR [edx+340], 1

; 1422 : 				ext->pActFirework[1]->actNo				= 0;

  015b9	b8 04 00 00 00	 mov	 eax, 4
  015be	c1 e0 00	 shl	 eax, 0
  015c1	8b 4d f4	 mov	 ecx, DWORD PTR _ext$[ebp]
  015c4	8b 54 01 24	 mov	 edx, DWORD PTR [ecx+eax+36]
  015c8	c7 82 ac 00 00
	00 00 00 00 00	 mov	 DWORD PTR [edx+172], 0

; 1423 : 				ext->pActFirework[1]->dispPrio			= DISP_PRIO_RESERVE;

  015d2	b8 04 00 00 00	 mov	 eax, 4
  015d7	c1 e0 00	 shl	 eax, 0
  015da	8b 4d f4	 mov	 ecx, DWORD PTR _ext$[ebp]
  015dd	8b 54 01 24	 mov	 edx, DWORD PTR [ecx+eax+36]
  015e1	c6 42 15 14	 mov	 BYTE PTR [edx+21], 20	; 00000014H

; 1424 : 				ext->pActFirework[0]->gx				= nGX - 2;

  015e5	8b 85 40 fd ff
	ff		 mov	 eax, DWORD PTR _nGX$8[ebp]
  015eb	83 e8 02	 sub	 eax, 2
  015ee	b9 04 00 00 00	 mov	 ecx, 4
  015f3	6b d1 00	 imul	 edx, ecx, 0
  015f6	8b 4d f4	 mov	 ecx, DWORD PTR _ext$[ebp]
  015f9	8b 54 11 24	 mov	 edx, DWORD PTR [ecx+edx+36]
  015fd	89 82 b4 00 00
	00		 mov	 DWORD PTR [edx+180], eax

; 1425 : 				ext->pActFirework[0]->gy				= nGY - 2;

  01603	8b 85 34 fd ff
	ff		 mov	 eax, DWORD PTR _nGY$7[ebp]
  01609	83 e8 02	 sub	 eax, 2
  0160c	b9 04 00 00 00	 mov	 ecx, 4
  01611	6b d1 00	 imul	 edx, ecx, 0
  01614	8b 4d f4	 mov	 ecx, DWORD PTR _ext$[ebp]
  01617	8b 54 11 24	 mov	 edx, DWORD PTR [ecx+edx+36]
  0161b	89 82 b8 00 00
	00		 mov	 DWORD PTR [edx+184], eax

; 1426 : 				ext->pActFirework[0]->anim_frame_cnt	= 0;

  01621	b8 04 00 00 00	 mov	 eax, 4
  01626	6b c8 00	 imul	 ecx, eax, 0
  01629	8b 55 f4	 mov	 edx, DWORD PTR _ext$[ebp]
  0162c	8b 44 0a 24	 mov	 eax, DWORD PTR [edx+ecx+36]
  01630	c7 80 60 01 00
	00 00 00 00 00	 mov	 DWORD PTR [eax+352], 0

; 1427 : 				ext->pActFirework[0]->anim_cnt			= 0;

  0163a	b8 04 00 00 00	 mov	 eax, 4
  0163f	6b c8 00	 imul	 ecx, eax, 0
  01642	8b 55 f4	 mov	 edx, DWORD PTR _ext$[ebp]
  01645	8b 44 0a 24	 mov	 eax, DWORD PTR [edx+ecx+36]
  01649	c7 80 5c 01 00
	00 00 00 00 00	 mov	 DWORD PTR [eax+348], 0

; 1428 : 				ext->pActFirework[1]->gx				= nGX + 2;

  01653	8b 85 40 fd ff
	ff		 mov	 eax, DWORD PTR _nGX$8[ebp]
  01659	83 c0 02	 add	 eax, 2
  0165c	b9 04 00 00 00	 mov	 ecx, 4
  01661	c1 e1 00	 shl	 ecx, 0
  01664	8b 55 f4	 mov	 edx, DWORD PTR _ext$[ebp]
  01667	8b 4c 0a 24	 mov	 ecx, DWORD PTR [edx+ecx+36]
  0166b	89 81 b4 00 00
	00		 mov	 DWORD PTR [ecx+180], eax

; 1429 : 				ext->pActFirework[1]->gy				= nGY + 2;

  01671	8b 85 34 fd ff
	ff		 mov	 eax, DWORD PTR _nGY$7[ebp]
  01677	83 c0 02	 add	 eax, 2
  0167a	b9 04 00 00 00	 mov	 ecx, 4
  0167f	c1 e1 00	 shl	 ecx, 0
  01682	8b 55 f4	 mov	 edx, DWORD PTR _ext$[ebp]
  01685	8b 4c 0a 24	 mov	 ecx, DWORD PTR [edx+ecx+36]
  01689	89 81 b8 00 00
	00		 mov	 DWORD PTR [ecx+184], eax

; 1430 : 				ext->pActFirework[0]->damage			= -1;

  0168f	b8 04 00 00 00	 mov	 eax, 4
  01694	6b c8 00	 imul	 ecx, eax, 0
  01697	8b 55 f4	 mov	 edx, DWORD PTR _ext$[ebp]
  0169a	8b 44 0a 24	 mov	 eax, DWORD PTR [edx+ecx+36]
  0169e	c7 80 b0 00 00
	00 ff ff ff ff	 mov	 DWORD PTR [eax+176], -1
  016a8	e9 97 03 00 00	 jmp	 $LN85@drawCharSt
$LN78@drawCharSt:

; 1431 : 			}
; 1432 : 			else if (ext->pActFirework[0]->damage == 1)	// 中间三次

  016ad	b8 04 00 00 00	 mov	 eax, 4
  016b2	6b c8 00	 imul	 ecx, eax, 0
  016b5	8b 55 f4	 mov	 edx, DWORD PTR _ext$[ebp]
  016b8	8b 44 0a 24	 mov	 eax, DWORD PTR [edx+ecx+36]
  016bc	83 b8 b0 00 00
	00 01		 cmp	 DWORD PTR [eax+176], 1
  016c3	0f 85 2e 01 00
	00		 jne	 $LN80@drawCharSt

; 1433 : 			{
; 1434 : 				ext->pActFirework[1] = GetAction(PRIO_CHR, 0);

  016c9	6a 00		 push	 0
  016cb	6a 01		 push	 1
  016cd	e8 00 00 00 00	 call	 ?GetAction@@YAPAUaction@@EI@Z ; GetAction
  016d2	83 c4 08	 add	 esp, 8
  016d5	b9 04 00 00 00	 mov	 ecx, 4
  016da	c1 e1 00	 shl	 ecx, 0
  016dd	8b 55 f4	 mov	 edx, DWORD PTR _ext$[ebp]
  016e0	89 44 0a 24	 mov	 DWORD PTR [edx+ecx+36], eax

; 1435 : 				ext->pActFirework[1]->anim_chr_no	= ext->pActFirework[0]->anim_chr_no;

  016e4	b8 04 00 00 00	 mov	 eax, 4
  016e9	6b c8 00	 imul	 ecx, eax, 0
  016ec	8b 55 f4	 mov	 edx, DWORD PTR _ext$[ebp]
  016ef	8b 44 0a 24	 mov	 eax, DWORD PTR [edx+ecx+36]
  016f3	b9 04 00 00 00	 mov	 ecx, 4
  016f8	c1 e1 00	 shl	 ecx, 0
  016fb	8b 55 f4	 mov	 edx, DWORD PTR _ext$[ebp]
  016fe	8b 4c 0a 24	 mov	 ecx, DWORD PTR [edx+ecx+36]
  01702	8b 90 44 01 00
	00		 mov	 edx, DWORD PTR [eax+324]
  01708	89 91 44 01 00
	00		 mov	 DWORD PTR [ecx+324], edx

; 1436 : 				ext->pActFirework[1]->anim_no		= ANIM_STAND;

  0170e	b8 04 00 00 00	 mov	 eax, 4
  01713	c1 e0 00	 shl	 eax, 0
  01716	8b 4d f4	 mov	 ecx, DWORD PTR _ext$[ebp]
  01719	8b 54 01 24	 mov	 edx, DWORD PTR [ecx+eax+36]
  0171d	c7 82 4c 01 00
	00 03 00 00 00	 mov	 DWORD PTR [edx+332], 3

; 1437 : 				ext->pActFirework[1]->anim_ang		= 1;

  01727	b8 04 00 00 00	 mov	 eax, 4
  0172c	c1 e0 00	 shl	 eax, 0
  0172f	8b 4d f4	 mov	 ecx, DWORD PTR _ext$[ebp]
  01732	8b 54 01 24	 mov	 edx, DWORD PTR [ecx+eax+36]
  01736	c7 82 54 01 00
	00 01 00 00 00	 mov	 DWORD PTR [edx+340], 1

; 1438 : 				ext->pActFirework[1]->actNo			= 0;

  01740	b8 04 00 00 00	 mov	 eax, 4
  01745	c1 e0 00	 shl	 eax, 0
  01748	8b 4d f4	 mov	 ecx, DWORD PTR _ext$[ebp]
  0174b	8b 54 01 24	 mov	 edx, DWORD PTR [ecx+eax+36]
  0174f	c7 82 ac 00 00
	00 00 00 00 00	 mov	 DWORD PTR [edx+172], 0

; 1439 : 				ext->pActFirework[1]->dispPrio		= DISP_PRIO_RESERVE;

  01759	b8 04 00 00 00	 mov	 eax, 4
  0175e	c1 e0 00	 shl	 eax, 0
  01761	8b 4d f4	 mov	 ecx, DWORD PTR _ext$[ebp]
  01764	8b 54 01 24	 mov	 edx, DWORD PTR [ecx+eax+36]
  01768	c6 42 15 14	 mov	 BYTE PTR [edx+21], 20	; 00000014H

; 1440 : 				ext->pActFirework[1]->level			= 1;					// level 拿来当计数用

  0176c	b8 04 00 00 00	 mov	 eax, 4
  01771	c1 e0 00	 shl	 eax, 0
  01774	8b 4d f4	 mov	 ecx, DWORD PTR _ext$[ebp]
  01777	8b 54 01 24	 mov	 edx, DWORD PTR [ecx+eax+36]
  0177b	c7 82 8c 00 00
	00 01 00 00 00	 mov	 DWORD PTR [edx+140], 1

; 1441 : 				ext->pActFirework[1]->gx			= ext->pActFirework[0]->gx;

  01785	b8 04 00 00 00	 mov	 eax, 4
  0178a	6b c8 00	 imul	 ecx, eax, 0
  0178d	8b 55 f4	 mov	 edx, DWORD PTR _ext$[ebp]
  01790	8b 44 0a 24	 mov	 eax, DWORD PTR [edx+ecx+36]
  01794	b9 04 00 00 00	 mov	 ecx, 4
  01799	c1 e1 00	 shl	 ecx, 0
  0179c	8b 55 f4	 mov	 edx, DWORD PTR _ext$[ebp]
  0179f	8b 4c 0a 24	 mov	 ecx, DWORD PTR [edx+ecx+36]
  017a3	8b 90 b4 00 00
	00		 mov	 edx, DWORD PTR [eax+180]
  017a9	89 91 b4 00 00
	00		 mov	 DWORD PTR [ecx+180], edx

; 1442 : 				ext->pActFirework[1]->gy			= ext->pActFirework[0]->gy;

  017af	b8 04 00 00 00	 mov	 eax, 4
  017b4	6b c8 00	 imul	 ecx, eax, 0
  017b7	8b 55 f4	 mov	 edx, DWORD PTR _ext$[ebp]
  017ba	8b 44 0a 24	 mov	 eax, DWORD PTR [edx+ecx+36]
  017be	b9 04 00 00 00	 mov	 ecx, 4
  017c3	c1 e1 00	 shl	 ecx, 0
  017c6	8b 55 f4	 mov	 edx, DWORD PTR _ext$[ebp]
  017c9	8b 4c 0a 24	 mov	 ecx, DWORD PTR [edx+ecx+36]
  017cd	8b 90 b8 00 00
	00		 mov	 edx, DWORD PTR [eax+184]
  017d3	89 91 b8 00 00
	00		 mov	 DWORD PTR [ecx+184], edx

; 1443 : 				ext->pActFirework[0]->damage		= -2;

  017d9	b8 04 00 00 00	 mov	 eax, 4
  017de	6b c8 00	 imul	 ecx, eax, 0
  017e1	8b 55 f4	 mov	 edx, DWORD PTR _ext$[ebp]
  017e4	8b 44 0a 24	 mov	 eax, DWORD PTR [edx+ecx+36]
  017e8	c7 80 b0 00 00
	00 fe ff ff ff	 mov	 DWORD PTR [eax+176], -2	; fffffffeH
  017f2	e9 4d 02 00 00	 jmp	 $LN85@drawCharSt
$LN80@drawCharSt:

; 1444 : 			}
; 1445 : 			else if (ext->pActFirework[0]->damage == 2 || ext->pActFirework[0]->damage == -1)

  017f7	b8 04 00 00 00	 mov	 eax, 4
  017fc	6b c8 00	 imul	 ecx, eax, 0
  017ff	8b 55 f4	 mov	 edx, DWORD PTR _ext$[ebp]
  01802	8b 44 0a 24	 mov	 eax, DWORD PTR [edx+ecx+36]
  01806	83 b8 b0 00 00
	00 02		 cmp	 DWORD PTR [eax+176], 2
  0180d	74 18		 je	 SHORT $LN84@drawCharSt
  0180f	b8 04 00 00 00	 mov	 eax, 4
  01814	6b c8 00	 imul	 ecx, eax, 0
  01817	8b 55 f4	 mov	 edx, DWORD PTR _ext$[ebp]
  0181a	8b 44 0a 24	 mov	 eax, DWORD PTR [edx+ecx+36]
  0181e	83 b8 b0 00 00
	00 ff		 cmp	 DWORD PTR [eax+176], -1
  01825	75 1e		 jne	 SHORT $LN82@drawCharSt
$LN84@drawCharSt:

; 1446 : 				ext->pActFirework[0]->damage = -2;

  01827	b8 04 00 00 00	 mov	 eax, 4
  0182c	6b c8 00	 imul	 ecx, eax, 0
  0182f	8b 55 f4	 mov	 edx, DWORD PTR _ext$[ebp]
  01832	8b 44 0a 24	 mov	 eax, DWORD PTR [edx+ecx+36]
  01836	c7 80 b0 00 00
	00 fe ff ff ff	 mov	 DWORD PTR [eax+176], -2	; fffffffeH
  01840	e9 ff 01 00 00	 jmp	 $LN85@drawCharSt
$LN82@drawCharSt:

; 1447 : 			else if (ext->pActFirework[0]->damage == 3)	// 绕人物四周一圈, 共三次

  01845	b8 04 00 00 00	 mov	 eax, 4
  0184a	6b c8 00	 imul	 ecx, eax, 0
  0184d	8b 55 f4	 mov	 edx, DWORD PTR _ext$[ebp]
  01850	8b 44 0a 24	 mov	 eax, DWORD PTR [edx+ecx+36]
  01854	83 b8 b0 00 00
	00 03		 cmp	 DWORD PTR [eax+176], 3
  0185b	0f 85 e3 01 00
	00		 jne	 $LN85@drawCharSt

; 1448 : 			{
; 1449 : 				ext->pActFirework[1] = GetAction(PRIO_CHR, 0);

  01861	6a 00		 push	 0
  01863	6a 01		 push	 1
  01865	e8 00 00 00 00	 call	 ?GetAction@@YAPAUaction@@EI@Z ; GetAction
  0186a	83 c4 08	 add	 esp, 8
  0186d	b9 04 00 00 00	 mov	 ecx, 4
  01872	c1 e1 00	 shl	 ecx, 0
  01875	8b 55 f4	 mov	 edx, DWORD PTR _ext$[ebp]
  01878	89 44 0a 24	 mov	 DWORD PTR [edx+ecx+36], eax

; 1450 : 				ext->pActFirework[1]->anim_chr_no	= ext->pActFirework[0]->anim_chr_no;

  0187c	b8 04 00 00 00	 mov	 eax, 4
  01881	6b c8 00	 imul	 ecx, eax, 0
  01884	8b 55 f4	 mov	 edx, DWORD PTR _ext$[ebp]
  01887	8b 44 0a 24	 mov	 eax, DWORD PTR [edx+ecx+36]
  0188b	b9 04 00 00 00	 mov	 ecx, 4
  01890	c1 e1 00	 shl	 ecx, 0
  01893	8b 55 f4	 mov	 edx, DWORD PTR _ext$[ebp]
  01896	8b 4c 0a 24	 mov	 ecx, DWORD PTR [edx+ecx+36]
  0189a	8b 90 44 01 00
	00		 mov	 edx, DWORD PTR [eax+324]
  018a0	89 91 44 01 00
	00		 mov	 DWORD PTR [ecx+324], edx

; 1451 : 				ext->pActFirework[1]->anim_no		= ANIM_STAND;

  018a6	b8 04 00 00 00	 mov	 eax, 4
  018ab	c1 e0 00	 shl	 eax, 0
  018ae	8b 4d f4	 mov	 ecx, DWORD PTR _ext$[ebp]
  018b1	8b 54 01 24	 mov	 edx, DWORD PTR [ecx+eax+36]
  018b5	c7 82 4c 01 00
	00 03 00 00 00	 mov	 DWORD PTR [edx+332], 3

; 1452 : 				ext->pActFirework[1]->anim_ang		= 1;

  018bf	b8 04 00 00 00	 mov	 eax, 4
  018c4	c1 e0 00	 shl	 eax, 0
  018c7	8b 4d f4	 mov	 ecx, DWORD PTR _ext$[ebp]
  018ca	8b 54 01 24	 mov	 edx, DWORD PTR [ecx+eax+36]
  018ce	c7 82 54 01 00
	00 01 00 00 00	 mov	 DWORD PTR [edx+340], 1

; 1453 : 				ext->pActFirework[1]->actNo			= 0;

  018d8	b8 04 00 00 00	 mov	 eax, 4
  018dd	c1 e0 00	 shl	 eax, 0
  018e0	8b 4d f4	 mov	 ecx, DWORD PTR _ext$[ebp]
  018e3	8b 54 01 24	 mov	 edx, DWORD PTR [ecx+eax+36]
  018e7	c7 82 ac 00 00
	00 00 00 00 00	 mov	 DWORD PTR [edx+172], 0

; 1454 : 				ext->pActFirework[1]->dispPrio		= DISP_PRIO_RESERVE;

  018f1	b8 04 00 00 00	 mov	 eax, 4
  018f6	c1 e0 00	 shl	 eax, 0
  018f9	8b 4d f4	 mov	 ecx, DWORD PTR _ext$[ebp]
  018fc	8b 54 01 24	 mov	 edx, DWORD PTR [ecx+eax+36]
  01900	c6 42 15 14	 mov	 BYTE PTR [edx+21], 20	; 00000014H

; 1455 : 				ext->pActFirework[1]->level			= 10;					// level 拿来当计数用

  01904	b8 04 00 00 00	 mov	 eax, 4
  01909	c1 e0 00	 shl	 eax, 0
  0190c	8b 4d f4	 mov	 ecx, DWORD PTR _ext$[ebp]
  0190f	8b 54 01 24	 mov	 edx, DWORD PTR [ecx+eax+36]
  01913	c7 82 8c 00 00
	00 0a 00 00 00	 mov	 DWORD PTR [edx+140], 10	; 0000000aH

; 1456 : 				ext->pActFirework[1]->damage		= ext->pActFirework[0]->damage;

  0191d	b8 04 00 00 00	 mov	 eax, 4
  01922	6b c8 00	 imul	 ecx, eax, 0
  01925	8b 55 f4	 mov	 edx, DWORD PTR _ext$[ebp]
  01928	8b 44 0a 24	 mov	 eax, DWORD PTR [edx+ecx+36]
  0192c	b9 04 00 00 00	 mov	 ecx, 4
  01931	c1 e1 00	 shl	 ecx, 0
  01934	8b 55 f4	 mov	 edx, DWORD PTR _ext$[ebp]
  01937	8b 4c 0a 24	 mov	 ecx, DWORD PTR [edx+ecx+36]
  0193b	8b 90 b0 00 00
	00		 mov	 edx, DWORD PTR [eax+176]
  01941	89 91 b0 00 00
	00		 mov	 DWORD PTR [ecx+176], edx

; 1457 : 				ext->pActFirework[1]->gx			= ext->pActFirework[0]->bufGx[0] - 2;

  01947	b8 04 00 00 00	 mov	 eax, 4
  0194c	6b c8 00	 imul	 ecx, eax, 0
  0194f	8b 55 f4	 mov	 edx, DWORD PTR _ext$[ebp]
  01952	8b 44 0a 24	 mov	 eax, DWORD PTR [edx+ecx+36]
  01956	b9 04 00 00 00	 mov	 ecx, 4
  0195b	6b d1 00	 imul	 edx, ecx, 0
  0195e	8b 84 10 c4 00
	00 00		 mov	 eax, DWORD PTR [eax+edx+196]
  01965	83 e8 02	 sub	 eax, 2
  01968	b9 04 00 00 00	 mov	 ecx, 4
  0196d	c1 e1 00	 shl	 ecx, 0
  01970	8b 55 f4	 mov	 edx, DWORD PTR _ext$[ebp]
  01973	8b 4c 0a 24	 mov	 ecx, DWORD PTR [edx+ecx+36]
  01977	89 81 b4 00 00
	00		 mov	 DWORD PTR [ecx+180], eax

; 1458 : 				ext->pActFirework[1]->gy			= ext->pActFirework[0]->bufGy[0] - 2;

  0197d	b8 04 00 00 00	 mov	 eax, 4
  01982	6b c8 00	 imul	 ecx, eax, 0
  01985	8b 55 f4	 mov	 edx, DWORD PTR _ext$[ebp]
  01988	8b 44 0a 24	 mov	 eax, DWORD PTR [edx+ecx+36]
  0198c	b9 04 00 00 00	 mov	 ecx, 4
  01991	6b d1 00	 imul	 edx, ecx, 0
  01994	8b 84 10 ec 00
	00 00		 mov	 eax, DWORD PTR [eax+edx+236]
  0199b	83 e8 02	 sub	 eax, 2
  0199e	b9 04 00 00 00	 mov	 ecx, 4
  019a3	c1 e1 00	 shl	 ecx, 0
  019a6	8b 55 f4	 mov	 edx, DWORD PTR _ext$[ebp]
  019a9	8b 4c 0a 24	 mov	 ecx, DWORD PTR [edx+ecx+36]
  019ad	89 81 b8 00 00
	00		 mov	 DWORD PTR [ecx+184], eax

; 1459 : 				ext->pActFirework[1]->bufGx[0]		= ext->pActFirework[0]->bufGx[0];

  019b3	b8 04 00 00 00	 mov	 eax, 4
  019b8	6b c8 00	 imul	 ecx, eax, 0
  019bb	8b 55 f4	 mov	 edx, DWORD PTR _ext$[ebp]
  019be	8b 44 0a 24	 mov	 eax, DWORD PTR [edx+ecx+36]
  019c2	b9 04 00 00 00	 mov	 ecx, 4
  019c7	6b d1 00	 imul	 edx, ecx, 0
  019ca	b9 04 00 00 00	 mov	 ecx, 4
  019cf	c1 e1 00	 shl	 ecx, 0
  019d2	8b 75 f4	 mov	 esi, DWORD PTR _ext$[ebp]
  019d5	8b 4c 0e 24	 mov	 ecx, DWORD PTR [esi+ecx+36]
  019d9	be 04 00 00 00	 mov	 esi, 4
  019de	6b f6 00	 imul	 esi, esi, 0
  019e1	8b 94 10 c4 00
	00 00		 mov	 edx, DWORD PTR [eax+edx+196]
  019e8	89 94 31 c4 00
	00 00		 mov	 DWORD PTR [ecx+esi+196], edx

; 1460 : 				ext->pActFirework[1]->bufGy[0]		= ext->pActFirework[0]->bufGy[0];

  019ef	b8 04 00 00 00	 mov	 eax, 4
  019f4	6b c8 00	 imul	 ecx, eax, 0
  019f7	8b 55 f4	 mov	 edx, DWORD PTR _ext$[ebp]
  019fa	8b 44 0a 24	 mov	 eax, DWORD PTR [edx+ecx+36]
  019fe	b9 04 00 00 00	 mov	 ecx, 4
  01a03	6b d1 00	 imul	 edx, ecx, 0
  01a06	b9 04 00 00 00	 mov	 ecx, 4
  01a0b	c1 e1 00	 shl	 ecx, 0
  01a0e	8b 75 f4	 mov	 esi, DWORD PTR _ext$[ebp]
  01a11	8b 4c 0e 24	 mov	 ecx, DWORD PTR [esi+ecx+36]
  01a15	be 04 00 00 00	 mov	 esi, 4
  01a1a	6b f6 00	 imul	 esi, esi, 0
  01a1d	8b 94 10 ec 00
	00 00		 mov	 edx, DWORD PTR [eax+edx+236]
  01a24	89 94 31 ec 00
	00 00		 mov	 DWORD PTR [ecx+esi+236], edx

; 1461 : 				ext->pActFirework[0]->damage		= -2;

  01a2b	b8 04 00 00 00	 mov	 eax, 4
  01a30	6b c8 00	 imul	 ecx, eax, 0
  01a33	8b 55 f4	 mov	 edx, DWORD PTR _ext$[ebp]
  01a36	8b 44 0a 24	 mov	 eax, DWORD PTR [edx+ecx+36]
  01a3a	c7 80 b0 00 00
	00 fe ff ff ff	 mov	 DWORD PTR [eax+176], -2	; fffffffeH
$LN85@drawCharSt:

; 1462 : 			}
; 1463 : 		}
; 1464 : 		if (ext->pActFirework[0]->damage == -2 || warpEffectStart)

  01a44	b8 04 00 00 00	 mov	 eax, 4
  01a49	6b c8 00	 imul	 ecx, eax, 0
  01a4c	8b 55 f4	 mov	 edx, DWORD PTR _ext$[ebp]
  01a4f	8b 44 0a 24	 mov	 eax, DWORD PTR [edx+ecx+36]
  01a53	83 b8 b0 00 00
	00 fe		 cmp	 DWORD PTR [eax+176], -2	; fffffffeH
  01a5a	74 09		 je	 SHORT $LN87@drawCharSt
  01a5c	83 3d 00 00 00
	00 00		 cmp	 DWORD PTR ?warpEffectStart@@3HA, 0 ; warpEffectStart
  01a63	74 2b		 je	 SHORT $LN86@drawCharSt
$LN87@drawCharSt:

; 1465 : 		{
; 1466 : 			DeathAction(ext->pActFirework[0]);

  01a65	b8 04 00 00 00	 mov	 eax, 4
  01a6a	6b c8 00	 imul	 ecx, eax, 0
  01a6d	8b 55 f4	 mov	 edx, DWORD PTR _ext$[ebp]
  01a70	8b 44 0a 24	 mov	 eax, DWORD PTR [edx+ecx+36]
  01a74	50		 push	 eax
  01a75	e8 00 00 00 00	 call	 ?DeathAction@@YAXPAUaction@@@Z ; DeathAction
  01a7a	83 c4 04	 add	 esp, 4

; 1467 : 			ext->pActFirework[0] = NULL;

  01a7d	b8 04 00 00 00	 mov	 eax, 4
  01a82	6b c8 00	 imul	 ecx, eax, 0
  01a85	8b 55 f4	 mov	 edx, DWORD PTR _ext$[ebp]
  01a88	c7 44 0a 24 00
	00 00 00	 mov	 DWORD PTR [edx+ecx+36], 0
$LN86@drawCharSt:

; 1468 : 		}
; 1469 : 	}
; 1470 : 	if (ext->pActFirework[1])

  01a90	b8 04 00 00 00	 mov	 eax, 4
  01a95	c1 e0 00	 shl	 eax, 0
  01a98	8b 4d f4	 mov	 ecx, DWORD PTR _ext$[ebp]
  01a9b	83 7c 01 24 00	 cmp	 DWORD PTR [ecx+eax+36], 0
  01aa0	0f 84 ba 02 00
	00		 je	 $LN93@drawCharSt

; 1471 : 	{
; 1472 : 		float	fX, fY;
; 1473 : 
; 1474 : 		camMapToGamen((float)ext->pActFirework[1]->gx * GRID_SIZE, (float)ext->pActFirework[1]->gy * GRID_SIZE, &fX, &fY);

  01aa6	8d 85 1c fd ff
	ff		 lea	 eax, DWORD PTR _fY$5[ebp]
  01aac	50		 push	 eax
  01aad	8d 8d 28 fd ff
	ff		 lea	 ecx, DWORD PTR _fX$6[ebp]
  01ab3	51		 push	 ecx
  01ab4	ba 04 00 00 00	 mov	 edx, 4
  01ab9	c1 e2 00	 shl	 edx, 0
  01abc	8b 45 f4	 mov	 eax, DWORD PTR _ext$[ebp]
  01abf	8b 4c 10 24	 mov	 ecx, DWORD PTR [eax+edx+36]
  01ac3	f3 0f 2a 81 b8
	00 00 00	 cvtsi2ss xmm0, DWORD PTR [ecx+184]
  01acb	f3 0f 59 05 00
	00 00 00	 mulss	 xmm0, DWORD PTR __real@42800000
  01ad3	51		 push	 ecx
  01ad4	f3 0f 11 04 24	 movss	 DWORD PTR [esp], xmm0
  01ad9	ba 04 00 00 00	 mov	 edx, 4
  01ade	c1 e2 00	 shl	 edx, 0
  01ae1	8b 45 f4	 mov	 eax, DWORD PTR _ext$[ebp]
  01ae4	8b 4c 10 24	 mov	 ecx, DWORD PTR [eax+edx+36]
  01ae8	f3 0f 2a 81 b4
	00 00 00	 cvtsi2ss xmm0, DWORD PTR [ecx+180]
  01af0	f3 0f 59 05 00
	00 00 00	 mulss	 xmm0, DWORD PTR __real@42800000
  01af8	51		 push	 ecx
  01af9	f3 0f 11 04 24	 movss	 DWORD PTR [esp], xmm0
  01afe	e8 00 00 00 00	 call	 ?camMapToGamen@@YAXMMPAM0@Z ; camMapToGamen
  01b03	83 c4 10	 add	 esp, 16			; 00000010H

; 1475 : 		ext->pActFirework[1]->x	= (int)fX;

  01b06	f3 0f 2c 85 28
	fd ff ff	 cvttss2si eax, DWORD PTR _fX$6[ebp]
  01b0e	b9 04 00 00 00	 mov	 ecx, 4
  01b13	c1 e1 00	 shl	 ecx, 0
  01b16	8b 55 f4	 mov	 edx, DWORD PTR _ext$[ebp]
  01b19	8b 4c 0a 24	 mov	 ecx, DWORD PTR [edx+ecx+36]
  01b1d	89 41 18	 mov	 DWORD PTR [ecx+24], eax

; 1476 : 		ext->pActFirework[1]->y	= (int)fY;

  01b20	f3 0f 2c 85 1c
	fd ff ff	 cvttss2si eax, DWORD PTR _fY$5[ebp]
  01b28	b9 04 00 00 00	 mov	 ecx, 4
  01b2d	c1 e1 00	 shl	 ecx, 0
  01b30	8b 55 f4	 mov	 edx, DWORD PTR _ext$[ebp]
  01b33	8b 4c 0a 24	 mov	 ecx, DWORD PTR [edx+ecx+36]
  01b37	89 41 1c	 mov	 DWORD PTR [ecx+28], eax

; 1477 : 		if (pattern(ext->pActFirework[1], ANM_NOMAL_SPD, ANM_NO_LOOP))

  01b3a	6a 01		 push	 1
  01b3c	6a 00		 push	 0
  01b3e	b8 04 00 00 00	 mov	 eax, 4
  01b43	c1 e0 00	 shl	 eax, 0
  01b46	8b 4d f4	 mov	 ecx, DWORD PTR _ext$[ebp]
  01b49	8b 54 01 24	 mov	 edx, DWORD PTR [ecx+eax+36]
  01b4d	52		 push	 edx
  01b4e	e8 00 00 00 00	 call	 ?pattern@@YAHPAUaction@@HH@Z ; pattern
  01b53	83 c4 0c	 add	 esp, 12			; 0000000cH
  01b56	85 c0		 test	 eax, eax
  01b58	0f 84 ce 01 00
	00		 je	 $LN91@drawCharSt

; 1478 : 		{
; 1479 : 			if (--ext->pActFirework[1]->level >= 0)	// 计算还要跑几次

  01b5e	b8 04 00 00 00	 mov	 eax, 4
  01b63	c1 e0 00	 shl	 eax, 0
  01b66	8b 4d f4	 mov	 ecx, DWORD PTR _ext$[ebp]
  01b69	8b 54 01 24	 mov	 edx, DWORD PTR [ecx+eax+36]
  01b6d	8b 82 8c 00 00
	00		 mov	 eax, DWORD PTR [edx+140]
  01b73	83 e8 01	 sub	 eax, 1
  01b76	89 85 28 fb ff
	ff		 mov	 DWORD PTR tv1248[ebp], eax
  01b7c	b9 04 00 00 00	 mov	 ecx, 4
  01b81	c1 e1 00	 shl	 ecx, 0
  01b84	8b 55 f4	 mov	 edx, DWORD PTR _ext$[ebp]
  01b87	8b 44 0a 24	 mov	 eax, DWORD PTR [edx+ecx+36]
  01b8b	8b 8d 28 fb ff
	ff		 mov	 ecx, DWORD PTR tv1248[ebp]
  01b91	89 88 8c 00 00
	00		 mov	 DWORD PTR [eax+140], ecx
  01b97	83 bd 28 fb ff
	ff 00		 cmp	 DWORD PTR tv1248[ebp], 0
  01b9e	0f 8c 5d 01 00
	00		 jl	 $LN90@drawCharSt

; 1480 : 			{
; 1481 : 				ext->pActFirework[1]->anim_frame_cnt	= 0;

  01ba4	b8 04 00 00 00	 mov	 eax, 4
  01ba9	c1 e0 00	 shl	 eax, 0
  01bac	8b 4d f4	 mov	 ecx, DWORD PTR _ext$[ebp]
  01baf	8b 54 01 24	 mov	 edx, DWORD PTR [ecx+eax+36]
  01bb3	c7 82 60 01 00
	00 00 00 00 00	 mov	 DWORD PTR [edx+352], 0

; 1482 : 				ext->pActFirework[1]->anim_cnt			= 0;

  01bbd	b8 04 00 00 00	 mov	 eax, 4
  01bc2	c1 e0 00	 shl	 eax, 0
  01bc5	8b 4d f4	 mov	 ecx, DWORD PTR _ext$[ebp]
  01bc8	8b 54 01 24	 mov	 edx, DWORD PTR [ecx+eax+36]
  01bcc	c7 82 5c 01 00
	00 00 00 00 00	 mov	 DWORD PTR [edx+348], 0

; 1483 : 				if (ext->pActFirework[1]->damage == 3)

  01bd6	b8 04 00 00 00	 mov	 eax, 4
  01bdb	c1 e0 00	 shl	 eax, 0
  01bde	8b 4d f4	 mov	 ecx, DWORD PTR _ext$[ebp]
  01be1	8b 54 01 24	 mov	 edx, DWORD PTR [ecx+eax+36]
  01be5	83 ba b0 00 00
	00 03		 cmp	 DWORD PTR [edx+176], 3
  01bec	0f 85 0d 01 00
	00		 jne	 $LN92@drawCharSt

; 1484 : 				{
; 1485 : 					int nXY[4][2] = { {3,-3}, {2,2}, {-3,3}, {-2,-2}};

  01bf2	c7 85 f4 fc ff
	ff 03 00 00 00	 mov	 DWORD PTR _nXY$4[ebp], 3
  01bfc	c7 85 f8 fc ff
	ff fd ff ff ff	 mov	 DWORD PTR _nXY$4[ebp+4], -3 ; fffffffdH
  01c06	c7 85 fc fc ff
	ff 02 00 00 00	 mov	 DWORD PTR _nXY$4[ebp+8], 2
  01c10	c7 85 00 fd ff
	ff 02 00 00 00	 mov	 DWORD PTR _nXY$4[ebp+12], 2
  01c1a	c7 85 04 fd ff
	ff fd ff ff ff	 mov	 DWORD PTR _nXY$4[ebp+16], -3 ; fffffffdH
  01c24	c7 85 08 fd ff
	ff 03 00 00 00	 mov	 DWORD PTR _nXY$4[ebp+20], 3
  01c2e	c7 85 0c fd ff
	ff fe ff ff ff	 mov	 DWORD PTR _nXY$4[ebp+24], -2 ; fffffffeH
  01c38	c7 85 10 fd ff
	ff fe ff ff ff	 mov	 DWORD PTR _nXY$4[ebp+28], -2 ; fffffffeH

; 1486 : 					int nDir = ext->pActFirework[1]->level % 4;

  01c42	b8 04 00 00 00	 mov	 eax, 4
  01c47	c1 e0 00	 shl	 eax, 0
  01c4a	8b 4d f4	 mov	 ecx, DWORD PTR _ext$[ebp]
  01c4d	8b 54 01 24	 mov	 edx, DWORD PTR [ecx+eax+36]
  01c51	8b 82 8c 00 00
	00		 mov	 eax, DWORD PTR [edx+140]
  01c57	25 03 00 00 80	 and	 eax, -2147483645	; 80000003H
  01c5c	79 05		 jns	 SHORT $LN125@drawCharSt
  01c5e	48		 dec	 eax
  01c5f	83 c8 fc	 or	 eax, -4			; fffffffcH
  01c62	40		 inc	 eax
$LN125@drawCharSt:
  01c63	89 85 e8 fc ff
	ff		 mov	 DWORD PTR _nDir$3[ebp], eax

; 1487 : 
; 1488 : 					ext->pActFirework[1]->gx	= ext->pActFirework[1]->bufGx[0] + nXY[nDir][0];

  01c69	b8 04 00 00 00	 mov	 eax, 4
  01c6e	c1 e0 00	 shl	 eax, 0
  01c71	8b 4d f4	 mov	 ecx, DWORD PTR _ext$[ebp]
  01c74	8b 54 01 24	 mov	 edx, DWORD PTR [ecx+eax+36]
  01c78	b8 04 00 00 00	 mov	 eax, 4
  01c7d	6b c8 00	 imul	 ecx, eax, 0
  01c80	8b 85 e8 fc ff
	ff		 mov	 eax, DWORD PTR _nDir$3[ebp]
  01c86	8d 84 c5 f4 fc
	ff ff		 lea	 eax, DWORD PTR _nXY$4[ebp+eax*8]
  01c8d	be 04 00 00 00	 mov	 esi, 4
  01c92	6b f6 00	 imul	 esi, esi, 0
  01c95	8b 8c 0a c4 00
	00 00		 mov	 ecx, DWORD PTR [edx+ecx+196]
  01c9c	03 0c 30	 add	 ecx, DWORD PTR [eax+esi]
  01c9f	ba 04 00 00 00	 mov	 edx, 4
  01ca4	c1 e2 00	 shl	 edx, 0
  01ca7	8b 45 f4	 mov	 eax, DWORD PTR _ext$[ebp]
  01caa	8b 54 10 24	 mov	 edx, DWORD PTR [eax+edx+36]
  01cae	89 8a b4 00 00
	00		 mov	 DWORD PTR [edx+180], ecx

; 1489 : 					ext->pActFirework[1]->gy	= ext->pActFirework[1]->bufGy[0] + nXY[nDir][1];

  01cb4	b8 04 00 00 00	 mov	 eax, 4
  01cb9	c1 e0 00	 shl	 eax, 0
  01cbc	8b 4d f4	 mov	 ecx, DWORD PTR _ext$[ebp]
  01cbf	8b 54 01 24	 mov	 edx, DWORD PTR [ecx+eax+36]
  01cc3	b8 04 00 00 00	 mov	 eax, 4
  01cc8	6b c8 00	 imul	 ecx, eax, 0
  01ccb	8b 85 e8 fc ff
	ff		 mov	 eax, DWORD PTR _nDir$3[ebp]
  01cd1	8d 84 c5 f4 fc
	ff ff		 lea	 eax, DWORD PTR _nXY$4[ebp+eax*8]
  01cd8	be 04 00 00 00	 mov	 esi, 4
  01cdd	c1 e6 00	 shl	 esi, 0
  01ce0	8b 8c 0a ec 00
	00 00		 mov	 ecx, DWORD PTR [edx+ecx+236]
  01ce7	03 0c 30	 add	 ecx, DWORD PTR [eax+esi]
  01cea	ba 04 00 00 00	 mov	 edx, 4
  01cef	c1 e2 00	 shl	 edx, 0
  01cf2	8b 45 f4	 mov	 eax, DWORD PTR _ext$[ebp]
  01cf5	8b 54 10 24	 mov	 edx, DWORD PTR [eax+edx+36]
  01cf9	89 8a b8 00 00
	00		 mov	 DWORD PTR [edx+184], ecx
$LN92@drawCharSt:

; 1490 : 				}
; 1491 : 			}
; 1492 : 			else

  01cff	eb 2b		 jmp	 SHORT $LN91@drawCharSt
$LN90@drawCharSt:

; 1493 : 			{
; 1494 : 				DeathAction(ext->pActFirework[1]);

  01d01	b8 04 00 00 00	 mov	 eax, 4
  01d06	c1 e0 00	 shl	 eax, 0
  01d09	8b 4d f4	 mov	 ecx, DWORD PTR _ext$[ebp]
  01d0c	8b 54 01 24	 mov	 edx, DWORD PTR [ecx+eax+36]
  01d10	52		 push	 edx
  01d11	e8 00 00 00 00	 call	 ?DeathAction@@YAXPAUaction@@@Z ; DeathAction
  01d16	83 c4 04	 add	 esp, 4

; 1495 : 				ext->pActFirework[1] = NULL;

  01d19	b8 04 00 00 00	 mov	 eax, 4
  01d1e	c1 e0 00	 shl	 eax, 0
  01d21	8b 4d f4	 mov	 ecx, DWORD PTR _ext$[ebp]
  01d24	c7 44 01 24 00
	00 00 00	 mov	 DWORD PTR [ecx+eax+36], 0
$LN91@drawCharSt:

; 1496 : 			}
; 1497 : 		}
; 1498 : 		if (warpEffectStart)

  01d2c	83 3d 00 00 00
	00 00		 cmp	 DWORD PTR ?warpEffectStart@@3HA, 0 ; warpEffectStart
  01d33	74 2b		 je	 SHORT $LN93@drawCharSt

; 1499 : 		{
; 1500 : 			DeathAction(ext->pActFirework[1]);

  01d35	b8 04 00 00 00	 mov	 eax, 4
  01d3a	c1 e0 00	 shl	 eax, 0
  01d3d	8b 4d f4	 mov	 ecx, DWORD PTR _ext$[ebp]
  01d40	8b 54 01 24	 mov	 edx, DWORD PTR [ecx+eax+36]
  01d44	52		 push	 edx
  01d45	e8 00 00 00 00	 call	 ?DeathAction@@YAXPAUaction@@@Z ; DeathAction
  01d4a	83 c4 04	 add	 esp, 4

; 1501 : 			ext->pActFirework[1] = NULL;

  01d4d	b8 04 00 00 00	 mov	 eax, 4
  01d52	c1 e0 00	 shl	 eax, 0
  01d55	8b 4d f4	 mov	 ecx, DWORD PTR _ext$[ebp]
  01d58	c7 44 01 24 00
	00 00 00	 mov	 DWORD PTR [ecx+eax+36], 0
$LN93@drawCharSt:

; 1502 : 		}
; 1503 : 	}
; 1504 : #endif
; 1505 : 
; 1506 : #ifdef _NPC_PICTURE
; 1507 : 	if( ((ptAct->picture>>24) & 0x000000ff) == 2 && ext->ptActPicture == NULL ) {

  01d60	8b 45 08	 mov	 eax, DWORD PTR _ptAct$[ebp]
  01d63	8b 88 24 02 00
	00		 mov	 ecx, DWORD PTR [eax+548]
  01d69	c1 f9 18	 sar	 ecx, 24			; 00000018H
  01d6c	81 e1 ff 00 00
	00		 and	 ecx, 255		; 000000ffH
  01d72	83 f9 02	 cmp	 ecx, 2
  01d75	75 73		 jne	 SHORT $LN94@drawCharSt
  01d77	8b 45 f4	 mov	 eax, DWORD PTR _ext$[ebp]
  01d7a	83 78 2c 00	 cmp	 DWORD PTR [eax+44], 0
  01d7e	75 6a		 jne	 SHORT $LN94@drawCharSt

; 1508 : 		if( g_bUseAlpha )

  01d80	83 3d 00 00 00
	00 00		 cmp	 DWORD PTR ?g_bUseAlpha@@3HA, 0 ; g_bUseAlpha
  01d87	74 2f		 je	 SHORT $LN96@drawCharSt

; 1509 : 			ext->ptActPicture =

  01d89	6a 0a		 push	 10			; 0000000aH
  01d8b	6a 00		 push	 0
  01d8d	6a 00		 push	 0
  01d8f	8b 45 08	 mov	 eax, DWORD PTR _ptAct$[ebp]
  01d92	8b 88 b8 00 00
	00		 mov	 ecx, DWORD PTR [eax+184]
  01d98	51		 push	 ecx
  01d99	8b 55 08	 mov	 edx, DWORD PTR _ptAct$[ebp]
  01d9c	8b 82 b4 00 00
	00		 mov	 eax, DWORD PTR [edx+180]
  01da2	50		 push	 eax
  01da3	68 b4 8d 01 00	 push	 101812			; 00018db4H
  01da8	e8 00 00 00 00	 call	 ?createCommmonEffectAction@@YAPAUaction@@HHHHHH@Z ; createCommmonEffectAction
  01dad	83 c4 18	 add	 esp, 24			; 00000018H
  01db0	8b 4d f4	 mov	 ecx, DWORD PTR _ext$[ebp]
  01db3	89 41 2c	 mov	 DWORD PTR [ecx+44], eax

; 1510 : 				createCommmonEffectAction( 101812, ptAct->gx, ptAct->gy, 0, 0, DISP_PRIO_CHAR );
; 1511 : 		else

  01db6	eb 2d		 jmp	 SHORT $LN97@drawCharSt
$LN96@drawCharSt:

; 1512 : 			ext->ptActPicture =

  01db8	6a 0a		 push	 10			; 0000000aH
  01dba	6a 00		 push	 0
  01dbc	6a 00		 push	 0
  01dbe	8b 45 08	 mov	 eax, DWORD PTR _ptAct$[ebp]
  01dc1	8b 88 b8 00 00
	00		 mov	 ecx, DWORD PTR [eax+184]
  01dc7	51		 push	 ecx
  01dc8	8b 55 08	 mov	 edx, DWORD PTR _ptAct$[ebp]
  01dcb	8b 82 b4 00 00
	00		 mov	 eax, DWORD PTR [edx+180]
  01dd1	50		 push	 eax
  01dd2	68 e9 8d 01 00	 push	 101865			; 00018de9H
  01dd7	e8 00 00 00 00	 call	 ?createCommmonEffectAction@@YAPAUaction@@HHHHHH@Z ; createCommmonEffectAction
  01ddc	83 c4 18	 add	 esp, 24			; 00000018H
  01ddf	8b 4d f4	 mov	 ecx, DWORD PTR _ext$[ebp]
  01de2	89 41 2c	 mov	 DWORD PTR [ecx+44], eax
$LN97@drawCharSt:

; 1513 : 				createCommmonEffectAction( 101865, ptAct->gx, ptAct->gy, 0, 0, DISP_PRIO_CHAR );

  01de5	e9 ea 01 00 00	 jmp	 $LN101@drawCharSt
$LN94@drawCharSt:

; 1514 : 	}
; 1515 : 	else if( ((ptAct->picture>>24) & 0x000000ff) != 2 && ext->ptActPicture != NULL ) {

  01dea	8b 45 08	 mov	 eax, DWORD PTR _ptAct$[ebp]
  01ded	8b 88 24 02 00
	00		 mov	 ecx, DWORD PTR [eax+548]
  01df3	c1 f9 18	 sar	 ecx, 24			; 00000018H
  01df6	81 e1 ff 00 00
	00		 and	 ecx, 255		; 000000ffH
  01dfc	83 f9 02	 cmp	 ecx, 2
  01dff	74 27		 je	 SHORT $LN98@drawCharSt
  01e01	8b 45 f4	 mov	 eax, DWORD PTR _ext$[ebp]
  01e04	83 78 2c 00	 cmp	 DWORD PTR [eax+44], 0
  01e08	74 1e		 je	 SHORT $LN98@drawCharSt

; 1516 : 		// ??????????????
; 1517 : 		DeathAction( ext->ptActAngelMark );

  01e0a	8b 45 f4	 mov	 eax, DWORD PTR _ext$[ebp]
  01e0d	8b 48 20	 mov	 ecx, DWORD PTR [eax+32]
  01e10	51		 push	 ecx
  01e11	e8 00 00 00 00	 call	 ?DeathAction@@YAXPAUaction@@@Z ; DeathAction
  01e16	83 c4 04	 add	 esp, 4

; 1518 : 		ext->ptActAngelMark = NULL;

  01e19	8b 45 f4	 mov	 eax, DWORD PTR _ext$[ebp]
  01e1c	c7 40 20 00 00
	00 00		 mov	 DWORD PTR [eax+32], 0
  01e23	e9 ac 01 00 00	 jmp	 $LN101@drawCharSt
$LN98@drawCharSt:

; 1519 : 	}
; 1520 : 	else if( ((ptAct->picture>>24) & 0x000000ff) == 2 && ext->ptActPicture != NULL ) {

  01e28	8b 45 08	 mov	 eax, DWORD PTR _ptAct$[ebp]
  01e2b	8b 88 24 02 00
	00		 mov	 ecx, DWORD PTR [eax+548]
  01e31	c1 f9 18	 sar	 ecx, 24			; 00000018H
  01e34	81 e1 ff 00 00
	00		 and	 ecx, 255		; 000000ffH
  01e3a	83 f9 02	 cmp	 ecx, 2
  01e3d	0f 85 91 01 00
	00		 jne	 $LN101@drawCharSt
  01e43	8b 45 f4	 mov	 eax, DWORD PTR _ext$[ebp]
  01e46	83 78 2c 00	 cmp	 DWORD PTR [eax+44], 0
  01e4a	0f 84 84 01 00
	00		 je	 $LN101@drawCharSt

; 1521 : 		int pictable[9]={100388,100841,101178,100854,101570,100353,101759,101424,101489};

  01e50	c7 85 bc fc ff
	ff 24 88 01 00	 mov	 DWORD PTR _pictable$2[ebp], 100388 ; 00018824H
  01e5a	c7 85 c0 fc ff
	ff e9 89 01 00	 mov	 DWORD PTR _pictable$2[ebp+4], 100841 ; 000189e9H
  01e64	c7 85 c4 fc ff
	ff 3a 8b 01 00	 mov	 DWORD PTR _pictable$2[ebp+8], 101178 ; 00018b3aH
  01e6e	c7 85 c8 fc ff
	ff f6 89 01 00	 mov	 DWORD PTR _pictable$2[ebp+12], 100854 ; 000189f6H
  01e78	c7 85 cc fc ff
	ff c2 8c 01 00	 mov	 DWORD PTR _pictable$2[ebp+16], 101570 ; 00018cc2H
  01e82	c7 85 d0 fc ff
	ff 01 88 01 00	 mov	 DWORD PTR _pictable$2[ebp+20], 100353 ; 00018801H
  01e8c	c7 85 d4 fc ff
	ff 7f 8d 01 00	 mov	 DWORD PTR _pictable$2[ebp+24], 101759 ; 00018d7fH
  01e96	c7 85 d8 fc ff
	ff 30 8c 01 00	 mov	 DWORD PTR _pictable$2[ebp+28], 101424 ; 00018c30H
  01ea0	c7 85 dc fc ff
	ff 71 8c 01 00	 mov	 DWORD PTR _pictable$2[ebp+32], 101489 ; 00018c71H

; 1522 : 		if( ptAct->anim_chr_no == pictable[((ptAct->picture&0x00ff0000)>>16)&0x000000ff] ){

  01eaa	8b 45 08	 mov	 eax, DWORD PTR _ptAct$[ebp]
  01ead	8b 88 24 02 00
	00		 mov	 ecx, DWORD PTR [eax+548]
  01eb3	81 e1 00 00 ff
	00		 and	 ecx, 16711680		; 00ff0000H
  01eb9	c1 f9 10	 sar	 ecx, 16			; 00000010H
  01ebc	81 e1 ff 00 00
	00		 and	 ecx, 255		; 000000ffH
  01ec2	8b 55 08	 mov	 edx, DWORD PTR _ptAct$[ebp]
  01ec5	8b 82 44 01 00
	00		 mov	 eax, DWORD PTR [edx+324]
  01ecb	3b 84 8d bc fc
	ff ff		 cmp	 eax, DWORD PTR _pictable$2[ebp+ecx*4]
  01ed2	0f 85 fc 00 00
	00		 jne	 $LN101@drawCharSt

; 1523 : 			int no;
; 1524 : 			no = (ptAct->anim_chr_no - SPR_001em) / 20;

  01ed8	8b 45 08	 mov	 eax, DWORD PTR _ptAct$[ebp]
  01edb	8b 80 44 01 00
	00		 mov	 eax, DWORD PTR [eax+324]
  01ee1	2d a0 86 01 00	 sub	 eax, 100000		; 000186a0H
  01ee6	99		 cdq
  01ee7	b9 14 00 00 00	 mov	 ecx, 20			; 00000014H
  01eec	f7 f9		 idiv	 ecx
  01eee	89 85 b0 fc ff
	ff		 mov	 DWORD PTR _no$1[ebp], eax

; 1525 : 			no %= 12;	// P??????h???

  01ef4	8b 85 b0 fc ff
	ff		 mov	 eax, DWORD PTR _no$1[ebp]
  01efa	99		 cdq
  01efb	b9 0c 00 00 00	 mov	 ecx, 12			; 0000000cH
  01f00	f7 f9		 idiv	 ecx
  01f02	89 95 b0 fc ff
	ff		 mov	 DWORD PTR _no$1[ebp], edx

; 1526 : 			// ???????????????
; 1527 : 			ext->ptActPicture->x  = ptAct->x;

  01f08	8b 45 f4	 mov	 eax, DWORD PTR _ext$[ebp]
  01f0b	8b 48 2c	 mov	 ecx, DWORD PTR [eax+44]
  01f0e	8b 55 08	 mov	 edx, DWORD PTR _ptAct$[ebp]
  01f11	8b 42 18	 mov	 eax, DWORD PTR [edx+24]
  01f14	89 41 18	 mov	 DWORD PTR [ecx+24], eax

; 1528 : 			ext->ptActPicture->y  = ptAct->y + ptAct->anim_y + 140;

  01f17	8b 45 08	 mov	 eax, DWORD PTR _ptAct$[ebp]
  01f1a	8b 48 1c	 mov	 ecx, DWORD PTR [eax+28]
  01f1d	8b 55 08	 mov	 edx, DWORD PTR _ptAct$[ebp]
  01f20	8b 82 68 01 00
	00		 mov	 eax, DWORD PTR [edx+360]
  01f26	8d 8c 01 8c 00
	00 00		 lea	 ecx, DWORD PTR [ecx+eax+140]
  01f2d	8b 55 f4	 mov	 edx, DWORD PTR _ext$[ebp]
  01f30	8b 42 2c	 mov	 eax, DWORD PTR [edx+44]
  01f33	89 48 1c	 mov	 DWORD PTR [eax+28], ecx

; 1529 : 			ext->ptActPicture->mx = ptAct->mx;

  01f36	8b 45 f4	 mov	 eax, DWORD PTR _ext$[ebp]
  01f39	8b 48 2c	 mov	 ecx, DWORD PTR [eax+44]
  01f3c	8b 55 08	 mov	 edx, DWORD PTR _ptAct$[ebp]
  01f3f	8b 82 18 01 00
	00		 mov	 eax, DWORD PTR [edx+280]
  01f45	89 81 18 01 00
	00		 mov	 DWORD PTR [ecx+280], eax

; 1530 : 			ext->ptActPicture->my = ptAct->my;

  01f4b	8b 45 f4	 mov	 eax, DWORD PTR _ext$[ebp]
  01f4e	8b 48 2c	 mov	 ecx, DWORD PTR [eax+44]
  01f51	8b 55 08	 mov	 edx, DWORD PTR _ptAct$[ebp]
  01f54	8b 82 1c 01 00
	00		 mov	 eax, DWORD PTR [edx+284]
  01f5a	89 81 1c 01 00
	00		 mov	 DWORD PTR [ecx+284], eax

; 1531 : 			// ?????????
; 1532 : 			pattern( ext->ptActPicture, ANM_NOMAL_SPD, ANM_LOOP );

  01f60	6a 00		 push	 0
  01f62	6a 00		 push	 0
  01f64	8b 45 f4	 mov	 eax, DWORD PTR _ext$[ebp]
  01f67	8b 48 2c	 mov	 ecx, DWORD PTR [eax+44]
  01f6a	51		 push	 ecx
  01f6b	e8 00 00 00 00	 call	 ?pattern@@YAHPAUaction@@HH@Z ; pattern
  01f70	83 c4 0c	 add	 esp, 12			; 0000000cH

; 1533 : 			// ??????????????
; 1534 : 			setCharPrio( ext->ptActPicture->bmpNo, ext->ptActPicture->x, ext->ptActPicture->y, 0, charIconOffsetY[no], ext->ptActPicture->mx, ext->ptActPicture->my );

  01f73	8b 45 f4	 mov	 eax, DWORD PTR _ext$[ebp]
  01f76	8b 48 2c	 mov	 ecx, DWORD PTR [eax+44]
  01f79	51		 push	 ecx
  01f7a	f3 0f 10 81 1c
	01 00 00	 movss	 xmm0, DWORD PTR [ecx+284]
  01f82	f3 0f 11 04 24	 movss	 DWORD PTR [esp], xmm0
  01f87	8b 55 f4	 mov	 edx, DWORD PTR _ext$[ebp]
  01f8a	8b 42 2c	 mov	 eax, DWORD PTR [edx+44]
  01f8d	51		 push	 ecx
  01f8e	f3 0f 10 80 18
	01 00 00	 movss	 xmm0, DWORD PTR [eax+280]
  01f96	f3 0f 11 04 24	 movss	 DWORD PTR [esp], xmm0
  01f9b	8b 8d b0 fc ff
	ff		 mov	 ecx, DWORD PTR _no$1[ebp]
  01fa1	8b 14 8d 00 00
	00 00		 mov	 edx, DWORD PTR ?charIconOffsetY@@3PAHA[ecx*4]
  01fa8	52		 push	 edx
  01fa9	6a 00		 push	 0
  01fab	8b 45 f4	 mov	 eax, DWORD PTR _ext$[ebp]
  01fae	8b 48 2c	 mov	 ecx, DWORD PTR [eax+44]
  01fb1	8b 51 1c	 mov	 edx, DWORD PTR [ecx+28]
  01fb4	52		 push	 edx
  01fb5	8b 45 f4	 mov	 eax, DWORD PTR _ext$[ebp]
  01fb8	8b 48 2c	 mov	 ecx, DWORD PTR [eax+44]
  01fbb	8b 51 18	 mov	 edx, DWORD PTR [ecx+24]
  01fbe	52		 push	 edx
  01fbf	8b 45 f4	 mov	 eax, DWORD PTR _ext$[ebp]
  01fc2	8b 48 2c	 mov	 ecx, DWORD PTR [eax+44]
  01fc5	8b 91 9c 00 00
	00		 mov	 edx, DWORD PTR [ecx+156]
  01fcb	52		 push	 edx
  01fcc	e8 00 00 00 00	 call	 ?setCharPrio@@YAXHHHHHMM@Z ; setCharPrio
  01fd1	83 c4 1c	 add	 esp, 28			; 0000001cH
$LN101@drawCharSt:
$LN1@drawCharSt:

; 1535 : 		}
; 1536 : 	}
; 1537 : 	/*if( ((ptAct->picture>>24) & 0x000000ff) == 2 ){
; 1538 : 		int pictable[9]={100388,100841,101178,100854,101570,100353,101759,101424,101489};
; 1539 : 		if( ptAct->anim_chr_no == pictable[((ptAct->picture&0x00ff0000)>>16)&0x000000ff] ){
; 1540 : 			int no;
; 1541 : 			U4 bmpNo;
; 1542 : 			no = (ptAct->anim_chr_no - SPR_001em) / 20;
; 1543 : 			no %= 12;	// P??????h???
; 1544 : 			realGetNo( CG_TRADE_MARK, &bmpNo );
; 1545 : 			// ??????????????
; 1546 : 			setCharPrio( bmpNo, ptAct->x, ptAct->y, 0, charIconOffsetY[no], ptAct->mx, ptAct->my );
; 1547 : 		}
; 1548 : 	}
; 1549 : 	*/
; 1550 : #endif
; 1551 : 
; 1552 : }

  01fd4	52		 push	 edx
  01fd5	8b cd		 mov	 ecx, ebp
  01fd7	50		 push	 eax
  01fd8	8d 15 00 00 00
	00		 lea	 edx, DWORD PTR $LN123@drawCharSt
  01fde	e8 00 00 00 00	 call	 @_RTC_CheckStackVars@8
  01fe3	58		 pop	 eax
  01fe4	5a		 pop	 edx
  01fe5	5f		 pop	 edi
  01fe6	5e		 pop	 esi
  01fe7	5b		 pop	 ebx
  01fe8	8b 4d fc	 mov	 ecx, DWORD PTR __$ArrayPad$[ebp]
  01feb	33 cd		 xor	 ecx, ebp
  01fed	e8 00 00 00 00	 call	 @__security_check_cookie@4
  01ff2	81 c4 d8 04 00
	00		 add	 esp, 1240		; 000004d8H
  01ff8	3b ec		 cmp	 ebp, esp
  01ffa	e8 00 00 00 00	 call	 __RTC_CheckEsp
  01fff	8b e5		 mov	 esp, ebp
  02001	5d		 pop	 ebp
  02002	c3		 ret	 0
  02003	90		 npad	 1
$LN123@drawCharSt:
  02004	13 00 00 00	 DD	 19			; 00000013H
  02008	00 00 00 00	 DD	 $LN122@drawCharSt
$LN122@drawCharSt:
  0200c	b0 fe ff ff	 DD	 -336			; fffffeb0H
  02010	00 01 00 00	 DD	 256			; 00000100H
  02014	00 00 00 00	 DD	 $LN103@drawCharSt
  02018	8c fe ff ff	 DD	 -372			; fffffe8cH
  0201c	02 00 00 00	 DD	 2
  02020	00 00 00 00	 DD	 $LN104@drawCharSt
  02024	80 fe ff ff	 DD	 -384			; fffffe80H
  02028	02 00 00 00	 DD	 2
  0202c	00 00 00 00	 DD	 $LN105@drawCharSt
  02030	68 fe ff ff	 DD	 -408			; fffffe68H
  02034	02 00 00 00	 DD	 2
  02038	00 00 00 00	 DD	 $LN106@drawCharSt
  0203c	5c fe ff ff	 DD	 -420			; fffffe5cH
  02040	02 00 00 00	 DD	 2
  02044	00 00 00 00	 DD	 $LN107@drawCharSt
  02048	2c fe ff ff	 DD	 -468			; fffffe2cH
  0204c	04 00 00 00	 DD	 4
  02050	00 00 00 00	 DD	 $LN108@drawCharSt
  02054	14 fe ff ff	 DD	 -492			; fffffe14H
  02058	04 00 00 00	 DD	 4
  0205c	00 00 00 00	 DD	 $LN109@drawCharSt
  02060	f0 fd ff ff	 DD	 -528			; fffffdf0H
  02064	04 00 00 00	 DD	 4
  02068	00 00 00 00	 DD	 $LN110@drawCharSt
  0206c	d8 fd ff ff	 DD	 -552			; fffffdd8H
  02070	04 00 00 00	 DD	 4
  02074	00 00 00 00	 DD	 $LN111@drawCharSt
  02078	b4 fd ff ff	 DD	 -588			; fffffdb4H
  0207c	04 00 00 00	 DD	 4
  02080	00 00 00 00	 DD	 $LN112@drawCharSt
  02084	a0 fd ff ff	 DD	 -608			; fffffda0H
  02088	0a 00 00 00	 DD	 10			; 0000000aH
  0208c	00 00 00 00	 DD	 $LN113@drawCharSt
  02090	88 fd ff ff	 DD	 -632			; fffffd88H
  02094	02 00 00 00	 DD	 2
  02098	00 00 00 00	 DD	 $LN114@drawCharSt
  0209c	7c fd ff ff	 DD	 -644			; fffffd7cH
  020a0	02 00 00 00	 DD	 2
  020a4	00 00 00 00	 DD	 $LN115@drawCharSt
  020a8	58 fd ff ff	 DD	 -680			; fffffd58H
  020ac	04 00 00 00	 DD	 4
  020b0	00 00 00 00	 DD	 $LN116@drawCharSt
  020b4	4c fd ff ff	 DD	 -692			; fffffd4cH
  020b8	04 00 00 00	 DD	 4
  020bc	00 00 00 00	 DD	 $LN117@drawCharSt
  020c0	28 fd ff ff	 DD	 -728			; fffffd28H
  020c4	04 00 00 00	 DD	 4
  020c8	00 00 00 00	 DD	 $LN118@drawCharSt
  020cc	1c fd ff ff	 DD	 -740			; fffffd1cH
  020d0	04 00 00 00	 DD	 4
  020d4	00 00 00 00	 DD	 $LN119@drawCharSt
  020d8	f4 fc ff ff	 DD	 -780			; fffffcf4H
  020dc	20 00 00 00	 DD	 32			; 00000020H
  020e0	00 00 00 00	 DD	 $LN120@drawCharSt
  020e4	bc fc ff ff	 DD	 -836			; fffffcbcH
  020e8	24 00 00 00	 DD	 36			; 00000024H
  020ec	00 00 00 00	 DD	 $LN121@drawCharSt
$LN121@drawCharSt:
  020f0	70		 DB	 112			; 00000070H
  020f1	69		 DB	 105			; 00000069H
  020f2	63		 DB	 99			; 00000063H
  020f3	74		 DB	 116			; 00000074H
  020f4	61		 DB	 97			; 00000061H
  020f5	62		 DB	 98			; 00000062H
  020f6	6c		 DB	 108			; 0000006cH
  020f7	65		 DB	 101			; 00000065H
  020f8	00		 DB	 0
$LN120@drawCharSt:
  020f9	6e		 DB	 110			; 0000006eH
  020fa	58		 DB	 88			; 00000058H
  020fb	59		 DB	 89			; 00000059H
  020fc	00		 DB	 0
$LN119@drawCharSt:
  020fd	66		 DB	 102			; 00000066H
  020fe	59		 DB	 89			; 00000059H
  020ff	00		 DB	 0
$LN118@drawCharSt:
  02100	66		 DB	 102			; 00000066H
  02101	58		 DB	 88			; 00000058H
  02102	00		 DB	 0
$LN117@drawCharSt:
  02103	66		 DB	 102			; 00000066H
  02104	59		 DB	 89			; 00000059H
  02105	00		 DB	 0
$LN116@drawCharSt:
  02106	66		 DB	 102			; 00000066H
  02107	58		 DB	 88			; 00000058H
  02108	00		 DB	 0
$LN115@drawCharSt:
  02109	79		 DB	 121			; 00000079H
  0210a	31		 DB	 49			; 00000031H
  0210b	00		 DB	 0
$LN114@drawCharSt:
  0210c	78		 DB	 120			; 00000078H
  0210d	31		 DB	 49			; 00000031H
  0210e	00		 DB	 0
$LN113@drawCharSt:
  0210f	6d		 DB	 109			; 0000006dH
  02110	73		 DB	 115			; 00000073H
  02111	67		 DB	 103			; 00000067H
  02112	00		 DB	 0
$LN112@drawCharSt:
  02113	62		 DB	 98			; 00000062H
  02114	6d		 DB	 109			; 0000006dH
  02115	70		 DB	 112			; 00000070H
  02116	4e		 DB	 78			; 0000004eH
  02117	6f		 DB	 111			; 0000006fH
  02118	00		 DB	 0
$LN111@drawCharSt:
  02119	62		 DB	 98			; 00000062H
  0211a	6d		 DB	 109			; 0000006dH
  0211b	70		 DB	 112			; 00000070H
  0211c	4e		 DB	 78			; 0000004eH
  0211d	6f		 DB	 111			; 0000006fH
  0211e	00		 DB	 0
$LN110@drawCharSt:
  0211f	62		 DB	 98			; 00000062H
  02120	6d		 DB	 109			; 0000006dH
  02121	70		 DB	 112			; 00000070H
  02122	4e		 DB	 78			; 0000004eH
  02123	6f		 DB	 111			; 0000006fH
  02124	00		 DB	 0
$LN109@drawCharSt:
  02125	62		 DB	 98			; 00000062H
  02126	6d		 DB	 109			; 0000006dH
  02127	70		 DB	 112			; 00000070H
  02128	4e		 DB	 78			; 0000004eH
  02129	6f		 DB	 111			; 0000006fH
  0212a	00		 DB	 0
$LN108@drawCharSt:
  0212b	62		 DB	 98			; 00000062H
  0212c	6d		 DB	 109			; 0000006dH
  0212d	70		 DB	 112			; 00000070H
  0212e	4e		 DB	 78			; 0000004eH
  0212f	6f		 DB	 111			; 0000006fH
  02130	00		 DB	 0
$LN107@drawCharSt:
  02131	79		 DB	 121			; 00000079H
  02132	31		 DB	 49			; 00000031H
  02133	00		 DB	 0
$LN106@drawCharSt:
  02134	78		 DB	 120			; 00000078H
  02135	31		 DB	 49			; 00000031H
  02136	00		 DB	 0
$LN105@drawCharSt:
  02137	79		 DB	 121			; 00000079H
  02138	31		 DB	 49			; 00000031H
  02139	00		 DB	 0
$LN104@drawCharSt:
  0213a	78		 DB	 120			; 00000078H
  0213b	31		 DB	 49			; 00000031H
  0213c	00		 DB	 0
$LN103@drawCharSt:
  0213d	6d		 DB	 109			; 0000006dH
  0213e	73		 DB	 115			; 00000073H
  0213f	67		 DB	 103			; 00000067H
  02140	00		 DB	 0
  02141	0f 1f 00	 npad	 3
$LN126@drawCharSt:
  02144	00 00 00 00	 DD	 $LN52@drawCharSt
  02148	00 00 00 00	 DD	 $LN53@drawCharSt
  0214c	00 00 00 00	 DD	 $LN54@drawCharSt
  02150	00 00 00 00	 DD	 $LN55@drawCharSt
?drawCharStatus@@YAXPAUaction@@@Z ENDP			; drawCharStatus
_TEXT	ENDS
; Function compile flags: /Odtp /RTCsu /ZI
; File c:\users\administrator\desktop\????? ??\????? ??\client source code\system\character.cpp
;	COMDAT ?createCommmonEffectNoLoop@@YAPAUaction@@HHHHHH@Z
_TEXT	SEGMENT
_my$ = -32						; size = 4
_mx$ = -20						; size = 4
_ptAct$ = -8						; size = 4
_graNo$ = 8						; size = 4
_gx$ = 12						; size = 4
_gy$ = 16						; size = 4
_anim$ = 20						; size = 4
_dir$ = 24						; size = 4
_prio$ = 28						; size = 4
?createCommmonEffectNoLoop@@YAPAUaction@@HHHHHH@Z PROC	; createCommmonEffectNoLoop, COMDAT

; 1634 : {

  00000	55		 push	 ebp
  00001	8b ec		 mov	 ebp, esp
  00003	81 ec e4 00 00
	00		 sub	 esp, 228		; 000000e4H
  00009	53		 push	 ebx
  0000a	56		 push	 esi
  0000b	57		 push	 edi
  0000c	8d bd 1c ff ff
	ff		 lea	 edi, DWORD PTR [ebp-228]
  00012	b9 39 00 00 00	 mov	 ecx, 57			; 00000039H
  00017	b8 cc cc cc cc	 mov	 eax, -858993460		; ccccccccH
  0001c	f3 ab		 rep stosd

; 1635 : 	ACTION *ptAct;
; 1636 : 	float mx, my;
; 1637 : 	/* ?????????K? */
; 1638 : 	ptAct = GetAction( PRIO_CHR, 0 );

  0001e	6a 00		 push	 0
  00020	6a 01		 push	 1
  00022	e8 00 00 00 00	 call	 ?GetAction@@YAPAUaction@@EI@Z ; GetAction
  00027	83 c4 08	 add	 esp, 8
  0002a	89 45 f8	 mov	 DWORD PTR _ptAct$[ebp], eax

; 1639 : 	if( ptAct == NULL )

  0002d	83 7d f8 00	 cmp	 DWORD PTR _ptAct$[ebp], 0
  00031	75 07		 jne	 SHORT $LN2@createComm

; 1640 : 		return NULL;

  00033	33 c0		 xor	 eax, eax
  00035	e9 23 01 00 00	 jmp	 $LN1@createComm
$LN2@createComm:

; 1641 : 	// ???
; 1642 : 	ptAct->func = commmonEffectNoLoop;

  0003a	8b 45 f8	 mov	 eax, DWORD PTR _ptAct$[ebp]
  0003d	c7 40 08 00 00
	00 00		 mov	 DWORD PTR [eax+8], OFFSET ?commmonEffectNoLoop@@YAXPAUaction@@@Z ; commmonEffectNoLoop

; 1643 : 	// ???????k?
; 1644 : 	ptAct->anim_chr_no = graNo;

  00044	8b 45 f8	 mov	 eax, DWORD PTR _ptAct$[ebp]
  00047	8b 4d 08	 mov	 ecx, DWORD PTR _graNo$[ebp]
  0004a	89 88 44 01 00
	00		 mov	 DWORD PTR [eax+324], ecx

; 1645 : 	// h?k?
; 1646 : 	ptAct->anim_no = anim;

  00050	8b 45 f8	 mov	 eax, DWORD PTR _ptAct$[ebp]
  00053	8b 4d 14	 mov	 ecx, DWORD PTR _anim$[ebp]
  00056	89 88 4c 01 00
	00		 mov	 DWORD PTR [eax+332], ecx

; 1647 : 	// ?????????( ??? )( ??????? )
; 1648 : 	ptAct->anim_ang = dir;

  0005c	8b 45 f8	 mov	 eax, DWORD PTR _ptAct$[ebp]
  0005f	8b 4d 18	 mov	 ecx, DWORD PTR _dir$[ebp]
  00062	89 88 54 01 00
	00		 mov	 DWORD PTR [eax+340], ecx

; 1649 : 	// ?IT
; 1650 : 	ptAct->dispPrio = prio;

  00068	8b 45 f8	 mov	 eax, DWORD PTR _ptAct$[ebp]
  0006b	8a 4d 1c	 mov	 cl, BYTE PTR _prio$[ebp]
  0006e	88 48 15	 mov	 BYTE PTR [eax+21], cl

; 1651 : 	// 1????????
; 1652 : 	ptAct->atr = ACT_ATR_HIDE2;

  00071	8b 45 f8	 mov	 eax, DWORD PTR _ptAct$[ebp]
  00074	c7 80 a4 00 00
	00 20 00 00 00	 mov	 DWORD PTR [eax+164], 32	; 00000020H

; 1653 : 	// ???t
; 1654 : 	ptAct->nextGx = gx;					// ??????????hI?

  0007e	8b 45 f8	 mov	 eax, DWORD PTR _ptAct$[ebp]
  00081	8b 4d 0c	 mov	 ecx, DWORD PTR _gx$[ebp]
  00084	89 88 bc 00 00
	00		 mov	 DWORD PTR [eax+188], ecx

; 1655 : 	ptAct->nextGy = gy;

  0008a	8b 45 f8	 mov	 eax, DWORD PTR _ptAct$[ebp]
  0008d	8b 4d 10	 mov	 ecx, DWORD PTR _gy$[ebp]
  00090	89 88 c0 00 00
	00		 mov	 DWORD PTR [eax+192], ecx

; 1656 : 	ptAct->gx = gx;						// ????????????

  00096	8b 45 f8	 mov	 eax, DWORD PTR _ptAct$[ebp]
  00099	8b 4d 0c	 mov	 ecx, DWORD PTR _gx$[ebp]
  0009c	89 88 b4 00 00
	00		 mov	 DWORD PTR [eax+180], ecx

; 1657 : 	ptAct->gy = gy;

  000a2	8b 45 f8	 mov	 eax, DWORD PTR _ptAct$[ebp]
  000a5	8b 4d 10	 mov	 ecx, DWORD PTR _gy$[ebp]
  000a8	89 88 b8 00 00
	00		 mov	 DWORD PTR [eax+184], ecx

; 1658 : 	ptAct->mx = (float)gx * GRID_SIZE;	// ????

  000ae	f3 0f 2a 45 0c	 cvtsi2ss xmm0, DWORD PTR _gx$[ebp]
  000b3	f3 0f 59 05 00
	00 00 00	 mulss	 xmm0, DWORD PTR __real@42800000
  000bb	8b 45 f8	 mov	 eax, DWORD PTR _ptAct$[ebp]
  000be	f3 0f 11 80 18
	01 00 00	 movss	 DWORD PTR [eax+280], xmm0

; 1659 : 	ptAct->my = (float)gy * GRID_SIZE;

  000c6	f3 0f 2a 45 10	 cvtsi2ss xmm0, DWORD PTR _gy$[ebp]
  000cb	f3 0f 59 05 00
	00 00 00	 mulss	 xmm0, DWORD PTR __real@42800000
  000d3	8b 45 f8	 mov	 eax, DWORD PTR _ptAct$[ebp]
  000d6	f3 0f 11 80 1c
	01 00 00	 movss	 DWORD PTR [eax+284], xmm0

; 1660 : 	ptAct->vx = 0;						// ?h?

  000de	8b 45 f8	 mov	 eax, DWORD PTR _ptAct$[ebp]
  000e1	0f 57 c0	 xorps	 xmm0, xmm0
  000e4	f3 0f 11 80 20
	01 00 00	 movss	 DWORD PTR [eax+288], xmm0

; 1661 : 	ptAct->vy = 0;

  000ec	8b 45 f8	 mov	 eax, DWORD PTR _ptAct$[ebp]
  000ef	0f 57 c0	 xorps	 xmm0, xmm0
  000f2	f3 0f 11 80 24
	01 00 00	 movss	 DWORD PTR [eax+292], xmm0

; 1662 : 	// ??t
; 1663 : 	camMapToGamen( ptAct->mx, ptAct->my, &mx, &my );

  000fa	8d 45 e0	 lea	 eax, DWORD PTR _my$[ebp]
  000fd	50		 push	 eax
  000fe	8d 4d ec	 lea	 ecx, DWORD PTR _mx$[ebp]
  00101	51		 push	 ecx
  00102	8b 55 f8	 mov	 edx, DWORD PTR _ptAct$[ebp]
  00105	51		 push	 ecx
  00106	f3 0f 10 82 1c
	01 00 00	 movss	 xmm0, DWORD PTR [edx+284]
  0010e	f3 0f 11 04 24	 movss	 DWORD PTR [esp], xmm0
  00113	8b 45 f8	 mov	 eax, DWORD PTR _ptAct$[ebp]
  00116	51		 push	 ecx
  00117	f3 0f 10 80 18
	01 00 00	 movss	 xmm0, DWORD PTR [eax+280]
  0011f	f3 0f 11 04 24	 movss	 DWORD PTR [esp], xmm0
  00124	e8 00 00 00 00	 call	 ?camMapToGamen@@YAXMMPAM0@Z ; camMapToGamen
  00129	83 c4 10	 add	 esp, 16			; 00000010H

; 1664 : 	ptAct->x = (int)(mx+.5);

  0012c	f3 0f 5a 45 ec	 cvtss2sd xmm0, DWORD PTR _mx$[ebp]
  00131	f2 0f 58 05 00
	00 00 00	 addsd	 xmm0, QWORD PTR __real@3fe0000000000000
  00139	f2 0f 2c c0	 cvttsd2si eax, xmm0
  0013d	8b 4d f8	 mov	 ecx, DWORD PTR _ptAct$[ebp]
  00140	89 41 18	 mov	 DWORD PTR [ecx+24], eax

; 1665 : 	ptAct->y = (int)(my+.5);

  00143	f3 0f 5a 45 e0	 cvtss2sd xmm0, DWORD PTR _my$[ebp]
  00148	f2 0f 58 05 00
	00 00 00	 addsd	 xmm0, QWORD PTR __real@3fe0000000000000
  00150	f2 0f 2c c0	 cvttsd2si eax, xmm0
  00154	8b 4d f8	 mov	 ecx, DWORD PTR _ptAct$[ebp]
  00157	89 41 1c	 mov	 DWORD PTR [ecx+28], eax

; 1666 : 	return ptAct;

  0015a	8b 45 f8	 mov	 eax, DWORD PTR _ptAct$[ebp]
$LN1@createComm:

; 1667 : }

  0015d	52		 push	 edx
  0015e	8b cd		 mov	 ecx, ebp
  00160	50		 push	 eax
  00161	8d 15 00 00 00
	00		 lea	 edx, DWORD PTR $LN7@createComm
  00167	e8 00 00 00 00	 call	 @_RTC_CheckStackVars@8
  0016c	58		 pop	 eax
  0016d	5a		 pop	 edx
  0016e	5f		 pop	 edi
  0016f	5e		 pop	 esi
  00170	5b		 pop	 ebx
  00171	81 c4 e4 00 00
	00		 add	 esp, 228		; 000000e4H
  00177	3b ec		 cmp	 ebp, esp
  00179	e8 00 00 00 00	 call	 __RTC_CheckEsp
  0017e	8b e5		 mov	 esp, ebp
  00180	5d		 pop	 ebp
  00181	c3		 ret	 0
  00182	66 90		 npad	 2
$LN7@createComm:
  00184	02 00 00 00	 DD	 2
  00188	00 00 00 00	 DD	 $LN6@createComm
$LN6@createComm:
  0018c	ec ff ff ff	 DD	 -20			; ffffffecH
  00190	04 00 00 00	 DD	 4
  00194	00 00 00 00	 DD	 $LN4@createComm
  00198	e0 ff ff ff	 DD	 -32			; ffffffe0H
  0019c	04 00 00 00	 DD	 4
  001a0	00 00 00 00	 DD	 $LN5@createComm
$LN5@createComm:
  001a4	6d		 DB	 109			; 0000006dH
  001a5	79		 DB	 121			; 00000079H
  001a6	00		 DB	 0
$LN4@createComm:
  001a7	6d		 DB	 109			; 0000006dH
  001a8	78		 DB	 120			; 00000078H
  001a9	00		 DB	 0
?createCommmonEffectNoLoop@@YAPAUaction@@HHHHHH@Z ENDP	; createCommmonEffectNoLoop
_TEXT	ENDS
; Function compile flags: /Odtp /RTCsu /ZI
; File c:\users\administrator\desktop\????? ??\????? ??\client source code\system\character.cpp
;	COMDAT ?createCommmonEffectAction@@YAPAUaction@@HHHHHH@Z
_TEXT	SEGMENT
_my$ = -32						; size = 4
_mx$ = -20						; size = 4
_ptAct$ = -8						; size = 4
_graNo$ = 8						; size = 4
_gx$ = 12						; size = 4
_gy$ = 16						; size = 4
_anim$ = 20						; size = 4
_dir$ = 24						; size = 4
_prio$ = 28						; size = 4
?createCommmonEffectAction@@YAPAUaction@@HHHHHH@Z PROC	; createCommmonEffectAction, COMDAT

; 1580 : {

  00000	55		 push	 ebp
  00001	8b ec		 mov	 ebp, esp
  00003	81 ec e4 00 00
	00		 sub	 esp, 228		; 000000e4H
  00009	53		 push	 ebx
  0000a	56		 push	 esi
  0000b	57		 push	 edi
  0000c	8d bd 1c ff ff
	ff		 lea	 edi, DWORD PTR [ebp-228]
  00012	b9 39 00 00 00	 mov	 ecx, 57			; 00000039H
  00017	b8 cc cc cc cc	 mov	 eax, -858993460		; ccccccccH
  0001c	f3 ab		 rep stosd

; 1581 : 	ACTION *ptAct;
; 1582 : 	float mx, my;
; 1583 : 	/* ?????????K? */
; 1584 : 	ptAct = GetAction( PRIO_CHR, 0 );

  0001e	6a 00		 push	 0
  00020	6a 01		 push	 1
  00022	e8 00 00 00 00	 call	 ?GetAction@@YAPAUaction@@EI@Z ; GetAction
  00027	83 c4 08	 add	 esp, 8
  0002a	89 45 f8	 mov	 DWORD PTR _ptAct$[ebp], eax

; 1585 : 	if( ptAct == NULL )

  0002d	83 7d f8 00	 cmp	 DWORD PTR _ptAct$[ebp], 0
  00031	75 07		 jne	 SHORT $LN2@createComm

; 1586 : 		return NULL;

  00033	33 c0		 xor	 eax, eax
  00035	e9 19 01 00 00	 jmp	 $LN1@createComm
$LN2@createComm:

; 1587 : 	// ???????k?
; 1588 : 	ptAct->anim_chr_no = graNo;

  0003a	8b 45 f8	 mov	 eax, DWORD PTR _ptAct$[ebp]
  0003d	8b 4d 08	 mov	 ecx, DWORD PTR _graNo$[ebp]
  00040	89 88 44 01 00
	00		 mov	 DWORD PTR [eax+324], ecx

; 1589 : 	// h?k?
; 1590 : 	ptAct->anim_no = anim;

  00046	8b 45 f8	 mov	 eax, DWORD PTR _ptAct$[ebp]
  00049	8b 4d 14	 mov	 ecx, DWORD PTR _anim$[ebp]
  0004c	89 88 4c 01 00
	00		 mov	 DWORD PTR [eax+332], ecx

; 1591 : 	// ?????????( ??? )( ??????? )
; 1592 : 	ptAct->anim_ang = dir;

  00052	8b 45 f8	 mov	 eax, DWORD PTR _ptAct$[ebp]
  00055	8b 4d 18	 mov	 ecx, DWORD PTR _dir$[ebp]
  00058	89 88 54 01 00
	00		 mov	 DWORD PTR [eax+340], ecx

; 1593 : 	// ?IT
; 1594 : 	ptAct->dispPrio = prio;

  0005e	8b 45 f8	 mov	 eax, DWORD PTR _ptAct$[ebp]
  00061	8a 4d 1c	 mov	 cl, BYTE PTR _prio$[ebp]
  00064	88 48 15	 mov	 BYTE PTR [eax+21], cl

; 1595 : 	// 1????????
; 1596 : 	ptAct->atr = ACT_ATR_HIDE2;

  00067	8b 45 f8	 mov	 eax, DWORD PTR _ptAct$[ebp]
  0006a	c7 80 a4 00 00
	00 20 00 00 00	 mov	 DWORD PTR [eax+164], 32	; 00000020H

; 1597 : 	// ???t
; 1598 : 	ptAct->nextGx = gx;					// ??????????hI?

  00074	8b 45 f8	 mov	 eax, DWORD PTR _ptAct$[ebp]
  00077	8b 4d 0c	 mov	 ecx, DWORD PTR _gx$[ebp]
  0007a	89 88 bc 00 00
	00		 mov	 DWORD PTR [eax+188], ecx

; 1599 : 	ptAct->nextGy = gy;

  00080	8b 45 f8	 mov	 eax, DWORD PTR _ptAct$[ebp]
  00083	8b 4d 10	 mov	 ecx, DWORD PTR _gy$[ebp]
  00086	89 88 c0 00 00
	00		 mov	 DWORD PTR [eax+192], ecx

; 1600 : 	ptAct->gx = gx;						// ????????????

  0008c	8b 45 f8	 mov	 eax, DWORD PTR _ptAct$[ebp]
  0008f	8b 4d 0c	 mov	 ecx, DWORD PTR _gx$[ebp]
  00092	89 88 b4 00 00
	00		 mov	 DWORD PTR [eax+180], ecx

; 1601 : 	ptAct->gy = gy;

  00098	8b 45 f8	 mov	 eax, DWORD PTR _ptAct$[ebp]
  0009b	8b 4d 10	 mov	 ecx, DWORD PTR _gy$[ebp]
  0009e	89 88 b8 00 00
	00		 mov	 DWORD PTR [eax+184], ecx

; 1602 : 	ptAct->mx = (float)gx * GRID_SIZE;	// ????

  000a4	f3 0f 2a 45 0c	 cvtsi2ss xmm0, DWORD PTR _gx$[ebp]
  000a9	f3 0f 59 05 00
	00 00 00	 mulss	 xmm0, DWORD PTR __real@42800000
  000b1	8b 45 f8	 mov	 eax, DWORD PTR _ptAct$[ebp]
  000b4	f3 0f 11 80 18
	01 00 00	 movss	 DWORD PTR [eax+280], xmm0

; 1603 : 	ptAct->my = (float)gy * GRID_SIZE;

  000bc	f3 0f 2a 45 10	 cvtsi2ss xmm0, DWORD PTR _gy$[ebp]
  000c1	f3 0f 59 05 00
	00 00 00	 mulss	 xmm0, DWORD PTR __real@42800000
  000c9	8b 45 f8	 mov	 eax, DWORD PTR _ptAct$[ebp]
  000cc	f3 0f 11 80 1c
	01 00 00	 movss	 DWORD PTR [eax+284], xmm0

; 1604 : 	ptAct->vx = 0;						// ?h?

  000d4	8b 45 f8	 mov	 eax, DWORD PTR _ptAct$[ebp]
  000d7	0f 57 c0	 xorps	 xmm0, xmm0
  000da	f3 0f 11 80 20
	01 00 00	 movss	 DWORD PTR [eax+288], xmm0

; 1605 : 	ptAct->vy = 0;

  000e2	8b 45 f8	 mov	 eax, DWORD PTR _ptAct$[ebp]
  000e5	0f 57 c0	 xorps	 xmm0, xmm0
  000e8	f3 0f 11 80 24
	01 00 00	 movss	 DWORD PTR [eax+292], xmm0

; 1606 : 	// ??t
; 1607 : 	camMapToGamen( ptAct->mx, ptAct->my, &mx, &my );

  000f0	8d 45 e0	 lea	 eax, DWORD PTR _my$[ebp]
  000f3	50		 push	 eax
  000f4	8d 4d ec	 lea	 ecx, DWORD PTR _mx$[ebp]
  000f7	51		 push	 ecx
  000f8	8b 55 f8	 mov	 edx, DWORD PTR _ptAct$[ebp]
  000fb	51		 push	 ecx
  000fc	f3 0f 10 82 1c
	01 00 00	 movss	 xmm0, DWORD PTR [edx+284]
  00104	f3 0f 11 04 24	 movss	 DWORD PTR [esp], xmm0
  00109	8b 45 f8	 mov	 eax, DWORD PTR _ptAct$[ebp]
  0010c	51		 push	 ecx
  0010d	f3 0f 10 80 18
	01 00 00	 movss	 xmm0, DWORD PTR [eax+280]
  00115	f3 0f 11 04 24	 movss	 DWORD PTR [esp], xmm0
  0011a	e8 00 00 00 00	 call	 ?camMapToGamen@@YAXMMPAM0@Z ; camMapToGamen
  0011f	83 c4 10	 add	 esp, 16			; 00000010H

; 1608 : 	ptAct->x = (int)(mx+.5);

  00122	f3 0f 5a 45 ec	 cvtss2sd xmm0, DWORD PTR _mx$[ebp]
  00127	f2 0f 58 05 00
	00 00 00	 addsd	 xmm0, QWORD PTR __real@3fe0000000000000
  0012f	f2 0f 2c c0	 cvttsd2si eax, xmm0
  00133	8b 4d f8	 mov	 ecx, DWORD PTR _ptAct$[ebp]
  00136	89 41 18	 mov	 DWORD PTR [ecx+24], eax

; 1609 : 	ptAct->y = (int)(my+.5);

  00139	f3 0f 5a 45 e0	 cvtss2sd xmm0, DWORD PTR _my$[ebp]
  0013e	f2 0f 58 05 00
	00 00 00	 addsd	 xmm0, QWORD PTR __real@3fe0000000000000
  00146	f2 0f 2c c0	 cvttsd2si eax, xmm0
  0014a	8b 4d f8	 mov	 ecx, DWORD PTR _ptAct$[ebp]
  0014d	89 41 1c	 mov	 DWORD PTR [ecx+28], eax

; 1610 : 	return ptAct;

  00150	8b 45 f8	 mov	 eax, DWORD PTR _ptAct$[ebp]
$LN1@createComm:

; 1611 : }

  00153	52		 push	 edx
  00154	8b cd		 mov	 ecx, ebp
  00156	50		 push	 eax
  00157	8d 15 00 00 00
	00		 lea	 edx, DWORD PTR $LN7@createComm
  0015d	e8 00 00 00 00	 call	 @_RTC_CheckStackVars@8
  00162	58		 pop	 eax
  00163	5a		 pop	 edx
  00164	5f		 pop	 edi
  00165	5e		 pop	 esi
  00166	5b		 pop	 ebx
  00167	81 c4 e4 00 00
	00		 add	 esp, 228		; 000000e4H
  0016d	3b ec		 cmp	 ebp, esp
  0016f	e8 00 00 00 00	 call	 __RTC_CheckEsp
  00174	8b e5		 mov	 esp, ebp
  00176	5d		 pop	 ebp
  00177	c3		 ret	 0
$LN7@createComm:
  00178	02 00 00 00	 DD	 2
  0017c	00 00 00 00	 DD	 $LN6@createComm
$LN6@createComm:
  00180	ec ff ff ff	 DD	 -20			; ffffffecH
  00184	04 00 00 00	 DD	 4
  00188	00 00 00 00	 DD	 $LN4@createComm
  0018c	e0 ff ff ff	 DD	 -32			; ffffffe0H
  00190	04 00 00 00	 DD	 4
  00194	00 00 00 00	 DD	 $LN5@createComm
$LN5@createComm:
  00198	6d		 DB	 109			; 0000006dH
  00199	79		 DB	 121			; 00000079H
  0019a	00		 DB	 0
$LN4@createComm:
  0019b	6d		 DB	 109			; 0000006dH
  0019c	78		 DB	 120			; 00000078H
  0019d	00		 DB	 0
?createCommmonEffectAction@@YAPAUaction@@HHHHHH@Z ENDP	; createCommmonEffectAction
_TEXT	ENDS
; Function compile flags: /Odtp /RTCsu /ZI
; File c:\users\administrator\desktop\????? ??\????? ??\client source code\system\character.cpp
;	COMDAT ?setCharStatus@@YAXPAGPAD@Z
_TEXT	SEGMENT
_status$ = 8						; size = 4
_smsg$ = 12						; size = 4
?setCharStatus@@YAXPAGPAD@Z PROC			; setCharStatus, COMDAT

; 678  : {

  00000	55		 push	 ebp
  00001	8b ec		 mov	 ebp, esp
  00003	81 ec c0 00 00
	00		 sub	 esp, 192		; 000000c0H
  00009	53		 push	 ebx
  0000a	56		 push	 esi
  0000b	57		 push	 edi
  0000c	8d bd 40 ff ff
	ff		 lea	 edi, DWORD PTR [ebp-192]
  00012	b9 30 00 00 00	 mov	 ecx, 48			; 00000030H
  00017	b8 cc cc cc cc	 mov	 eax, -858993460		; ccccccccH
  0001c	f3 ab		 rep stosd

; 679  : 	// 
; 680  : 	if( strstr( smsg, "P" ) )

  0001e	68 00 00 00 00	 push	 OFFSET ??_C@_01EJNLAFE@P?$AA@
  00023	8b 45 0c	 mov	 eax, DWORD PTR _smsg$[ebp]
  00026	50		 push	 eax
  00027	e8 00 00 00 00	 call	 ?strstr@@YAPADQADQBD@Z	; strstr
  0002c	83 c4 08	 add	 esp, 8
  0002f	85 c0		 test	 eax, eax
  00031	74 11		 je	 SHORT $LN2@setCharSta

; 681  : 		*status |= CHR_STATUS_P;

  00033	8b 45 08	 mov	 eax, DWORD PTR _status$[ebp]
  00036	0f b7 08	 movzx	 ecx, WORD PTR [eax]
  00039	83 c9 01	 or	 ecx, 1
  0003c	8b 55 08	 mov	 edx, DWORD PTR _status$[ebp]
  0003f	66 89 0a	 mov	 WORD PTR [edx], cx

; 682  : 	else

  00042	eb 0f		 jmp	 SHORT $LN3@setCharSta
$LN2@setCharSta:

; 683  : 		*status &= (~CHR_STATUS_P);

  00044	8b 45 08	 mov	 eax, DWORD PTR _status$[ebp]
  00047	0f b7 08	 movzx	 ecx, WORD PTR [eax]
  0004a	83 e1 fe	 and	 ecx, -2			; fffffffeH
  0004d	8b 55 08	 mov	 edx, DWORD PTR _status$[ebp]
  00050	66 89 0a	 mov	 WORD PTR [edx], cx
$LN3@setCharSta:

; 684  : 	// ??
; 685  : 	if( strstr( smsg, "N" ) )

  00053	68 00 00 00 00	 push	 OFFSET ??_C@_01NANMIPIL@N?$AA@
  00058	8b 45 0c	 mov	 eax, DWORD PTR _smsg$[ebp]
  0005b	50		 push	 eax
  0005c	e8 00 00 00 00	 call	 ?strstr@@YAPADQADQBD@Z	; strstr
  00061	83 c4 08	 add	 esp, 8
  00064	85 c0		 test	 eax, eax
  00066	74 11		 je	 SHORT $LN4@setCharSta

; 686  : 		*status |= CHR_STATUS_N;

  00068	8b 45 08	 mov	 eax, DWORD PTR _status$[ebp]
  0006b	0f b7 08	 movzx	 ecx, WORD PTR [eax]
  0006e	83 c9 02	 or	 ecx, 2
  00071	8b 55 08	 mov	 edx, DWORD PTR _status$[ebp]
  00074	66 89 0a	 mov	 WORD PTR [edx], cx

; 687  : 	else

  00077	eb 0f		 jmp	 SHORT $LN5@setCharSta
$LN4@setCharSta:

; 688  : 		*status &= (~CHR_STATUS_N);

  00079	8b 45 08	 mov	 eax, DWORD PTR _status$[ebp]
  0007c	0f b7 08	 movzx	 ecx, WORD PTR [eax]
  0007f	83 e1 fd	 and	 ecx, -3			; fffffffdH
  00082	8b 55 08	 mov	 edx, DWORD PTR _status$[ebp]
  00085	66 89 0a	 mov	 WORD PTR [edx], cx
$LN5@setCharSta:

; 689  : 	// ?
; 690  : 	if( strstr( smsg, "Q" ) )

  00088	68 00 00 00 00	 push	 OFFSET ??_C@_01BNIGIBBF@Q?$AA@
  0008d	8b 45 0c	 mov	 eax, DWORD PTR _smsg$[ebp]
  00090	50		 push	 eax
  00091	e8 00 00 00 00	 call	 ?strstr@@YAPADQADQBD@Z	; strstr
  00096	83 c4 08	 add	 esp, 8
  00099	85 c0		 test	 eax, eax
  0009b	74 11		 je	 SHORT $LN6@setCharSta

; 691  : 		*status |= CHR_STATUS_Q;

  0009d	8b 45 08	 mov	 eax, DWORD PTR _status$[ebp]
  000a0	0f b7 08	 movzx	 ecx, WORD PTR [eax]
  000a3	83 c9 04	 or	 ecx, 4
  000a6	8b 55 08	 mov	 edx, DWORD PTR _status$[ebp]
  000a9	66 89 0a	 mov	 WORD PTR [edx], cx

; 692  : 	else

  000ac	eb 0f		 jmp	 SHORT $LN7@setCharSta
$LN6@setCharSta:

; 693  : 		*status &= (~CHR_STATUS_Q);

  000ae	8b 45 08	 mov	 eax, DWORD PTR _status$[ebp]
  000b1	0f b7 08	 movzx	 ecx, WORD PTR [eax]
  000b4	83 e1 fb	 and	 ecx, -5			; fffffffbH
  000b7	8b 55 08	 mov	 edx, DWORD PTR _status$[ebp]
  000ba	66 89 0a	 mov	 WORD PTR [edx], cx
$LN7@setCharSta:

; 694  : 	// ?
; 695  : 	if( strstr( smsg, "S" ) )

  000bd	68 00 00 00 00	 push	 OFFSET ??_C@_01CPLAODJH@S?$AA@
  000c2	8b 45 0c	 mov	 eax, DWORD PTR _smsg$[ebp]
  000c5	50		 push	 eax
  000c6	e8 00 00 00 00	 call	 ?strstr@@YAPADQADQBD@Z	; strstr
  000cb	83 c4 08	 add	 esp, 8
  000ce	85 c0		 test	 eax, eax
  000d0	74 11		 je	 SHORT $LN8@setCharSta

; 696  : 		*status |= CHR_STATUS_S;

  000d2	8b 45 08	 mov	 eax, DWORD PTR _status$[ebp]
  000d5	0f b7 08	 movzx	 ecx, WORD PTR [eax]
  000d8	83 c9 08	 or	 ecx, 8
  000db	8b 55 08	 mov	 edx, DWORD PTR _status$[ebp]
  000de	66 89 0a	 mov	 WORD PTR [edx], cx

; 697  : 	else

  000e1	eb 0f		 jmp	 SHORT $LN9@setCharSta
$LN8@setCharSta:

; 698  : 		*status &= (~CHR_STATUS_S);

  000e3	8b 45 08	 mov	 eax, DWORD PTR _status$[ebp]
  000e6	0f b7 08	 movzx	 ecx, WORD PTR [eax]
  000e9	83 e1 f7	 and	 ecx, -9			; fffffff7H
  000ec	8b 55 08	 mov	 edx, DWORD PTR _status$[ebp]
  000ef	66 89 0a	 mov	 WORD PTR [edx], cx
$LN9@setCharSta:

; 699  : 	// ??
; 700  : 	if( strstr( smsg, "D" ) )

  000f2	68 00 00 00 00	 push	 OFFSET ??_C@_01CKDDGHAB@D?$AA@
  000f7	8b 45 0c	 mov	 eax, DWORD PTR _smsg$[ebp]
  000fa	50		 push	 eax
  000fb	e8 00 00 00 00	 call	 ?strstr@@YAPADQADQBD@Z	; strstr
  00100	83 c4 08	 add	 esp, 8
  00103	85 c0		 test	 eax, eax
  00105	74 11		 je	 SHORT $LN10@setCharSta

; 701  : 		*status |= CHR_STATUS_D;

  00107	8b 45 08	 mov	 eax, DWORD PTR _status$[ebp]
  0010a	0f b7 08	 movzx	 ecx, WORD PTR [eax]
  0010d	83 c9 10	 or	 ecx, 16			; 00000010H
  00110	8b 55 08	 mov	 edx, DWORD PTR _status$[ebp]
  00113	66 89 0a	 mov	 WORD PTR [edx], cx

; 702  : 	else

  00116	eb 0f		 jmp	 SHORT $LN11@setCharSta
$LN10@setCharSta:

; 703  : 		*status &= (~CHR_STATUS_D);

  00118	8b 45 08	 mov	 eax, DWORD PTR _status$[ebp]
  0011b	0f b7 08	 movzx	 ecx, WORD PTR [eax]
  0011e	83 e1 ef	 and	 ecx, -17		; ffffffefH
  00121	8b 55 08	 mov	 edx, DWORD PTR _status$[ebp]
  00124	66 89 0a	 mov	 WORD PTR [edx], cx
$LN11@setCharSta:

; 704  : 	// ??
; 705  : 	if( strstr( smsg, "C" ) )

  00127	68 00 00 00 00	 push	 OFFSET ??_C@_01GFHCPBMG@C?$AA@
  0012c	8b 45 0c	 mov	 eax, DWORD PTR _smsg$[ebp]
  0012f	50		 push	 eax
  00130	e8 00 00 00 00	 call	 ?strstr@@YAPADQADQBD@Z	; strstr
  00135	83 c4 08	 add	 esp, 8
  00138	85 c0		 test	 eax, eax
  0013a	74 11		 je	 SHORT $LN12@setCharSta

; 706  : 		*status |= CHR_STATUS_C;

  0013c	8b 45 08	 mov	 eax, DWORD PTR _status$[ebp]
  0013f	0f b7 08	 movzx	 ecx, WORD PTR [eax]
  00142	83 c9 20	 or	 ecx, 32			; 00000020H
  00145	8b 55 08	 mov	 edx, DWORD PTR _status$[ebp]
  00148	66 89 0a	 mov	 WORD PTR [edx], cx

; 707  : 	else

  0014b	eb 0f		 jmp	 SHORT $LN1@setCharSta
$LN12@setCharSta:

; 708  : 		*status &= (~CHR_STATUS_C);

  0014d	8b 45 08	 mov	 eax, DWORD PTR _status$[ebp]
  00150	0f b7 08	 movzx	 ecx, WORD PTR [eax]
  00153	83 e1 df	 and	 ecx, -33		; ffffffdfH
  00156	8b 55 08	 mov	 edx, DWORD PTR _status$[ebp]
  00159	66 89 0a	 mov	 WORD PTR [edx], cx
$LN1@setCharSta:

; 709  : }

  0015c	5f		 pop	 edi
  0015d	5e		 pop	 esi
  0015e	5b		 pop	 ebx
  0015f	81 c4 c0 00 00
	00		 add	 esp, 192		; 000000c0H
  00165	3b ec		 cmp	 ebp, esp
  00167	e8 00 00 00 00	 call	 __RTC_CheckEsp
  0016c	8b e5		 mov	 esp, ebp
  0016e	5d		 pop	 ebp
  0016f	c3		 ret	 0
?setCharStatus@@YAXPAGPAD@Z ENDP			; setCharStatus
_TEXT	ENDS
; Function compile flags: /Odtp /RTCsu /ZI
; File c:\users\administrator\desktop\????? ??\????? ??\client source code\system\character.cpp
;	COMDAT ?setCharWarpPoint@@YAXPAUaction@@HH@Z
_TEXT	SEGMENT
_ptAct$ = 8						; size = 4
_gx$ = 12						; size = 4
_gy$ = 16						; size = 4
?setCharWarpPoint@@YAXPAUaction@@HH@Z PROC		; setCharWarpPoint, COMDAT

; 657  : {

  00000	55		 push	 ebp
  00001	8b ec		 mov	 ebp, esp
  00003	81 ec c0 00 00
	00		 sub	 esp, 192		; 000000c0H
  00009	53		 push	 ebx
  0000a	56		 push	 esi
  0000b	57		 push	 edi
  0000c	8d bd 40 ff ff
	ff		 lea	 edi, DWORD PTR [ebp-192]
  00012	b9 30 00 00 00	 mov	 ecx, 48			; 00000030H
  00017	b8 cc cc cc cc	 mov	 eax, -858993460		; ccccccccH
  0001c	f3 ab		 rep stosd

; 658  : 	if( ptAct == NULL )

  0001e	83 7d 08 00	 cmp	 DWORD PTR _ptAct$[ebp], 0
  00022	75 02		 jne	 SHORT $LN2@setCharWar

; 659  : 		return;

  00024	eb 7c		 jmp	 SHORT $LN1@setCharWar
$LN2@setCharWar:

; 660  : 	ptAct->gx = gx;

  00026	8b 45 08	 mov	 eax, DWORD PTR _ptAct$[ebp]
  00029	8b 4d 0c	 mov	 ecx, DWORD PTR _gx$[ebp]
  0002c	89 88 b4 00 00
	00		 mov	 DWORD PTR [eax+180], ecx

; 661  : 	ptAct->gy = gy;

  00032	8b 45 08	 mov	 eax, DWORD PTR _ptAct$[ebp]
  00035	8b 4d 10	 mov	 ecx, DWORD PTR _gy$[ebp]
  00038	89 88 b8 00 00
	00		 mov	 DWORD PTR [eax+184], ecx

; 662  : 	ptAct->nextGx = gx;

  0003e	8b 45 08	 mov	 eax, DWORD PTR _ptAct$[ebp]
  00041	8b 4d 0c	 mov	 ecx, DWORD PTR _gx$[ebp]
  00044	89 88 bc 00 00
	00		 mov	 DWORD PTR [eax+188], ecx

; 663  : 	ptAct->nextGy = gy;

  0004a	8b 45 08	 mov	 eax, DWORD PTR _ptAct$[ebp]
  0004d	8b 4d 10	 mov	 ecx, DWORD PTR _gy$[ebp]
  00050	89 88 c0 00 00
	00		 mov	 DWORD PTR [eax+192], ecx

; 664  : 	ptAct->mx = (float)gx*GRID_SIZE;

  00056	f3 0f 2a 45 0c	 cvtsi2ss xmm0, DWORD PTR _gx$[ebp]
  0005b	f3 0f 59 05 00
	00 00 00	 mulss	 xmm0, DWORD PTR __real@42800000
  00063	8b 45 08	 mov	 eax, DWORD PTR _ptAct$[ebp]
  00066	f3 0f 11 80 18
	01 00 00	 movss	 DWORD PTR [eax+280], xmm0

; 665  : 	ptAct->my = (float)gy*GRID_SIZE;

  0006e	f3 0f 2a 45 10	 cvtsi2ss xmm0, DWORD PTR _gy$[ebp]
  00073	f3 0f 59 05 00
	00 00 00	 mulss	 xmm0, DWORD PTR __real@42800000
  0007b	8b 45 08	 mov	 eax, DWORD PTR _ptAct$[ebp]
  0007e	f3 0f 11 80 1c
	01 00 00	 movss	 DWORD PTR [eax+284], xmm0

; 666  : 	ptAct->vx = 0;

  00086	8b 45 08	 mov	 eax, DWORD PTR _ptAct$[ebp]
  00089	0f 57 c0	 xorps	 xmm0, xmm0
  0008c	f3 0f 11 80 20
	01 00 00	 movss	 DWORD PTR [eax+288], xmm0

; 667  : 	ptAct->vy = 0;

  00094	8b 45 08	 mov	 eax, DWORD PTR _ptAct$[ebp]
  00097	0f 57 c0	 xorps	 xmm0, xmm0
  0009a	f3 0f 11 80 24
	01 00 00	 movss	 DWORD PTR [eax+292], xmm0
$LN1@setCharWar:

; 668  : }

  000a2	5f		 pop	 edi
  000a3	5e		 pop	 esi
  000a4	5b		 pop	 ebx
  000a5	8b e5		 mov	 esp, ebp
  000a7	5d		 pop	 ebp
  000a8	c3		 ret	 0
?setCharWarpPoint@@YAXPAUaction@@HH@Z ENDP		; setCharWarpPoint
_TEXT	ENDS
; Function compile flags: /Odtp /RTCsu /ZI
; File c:\users\administrator\desktop\????? ??\????? ??\client source code\system\character.cpp
;	COMDAT ?_setCharMovePoint@@YAXPAUaction@@HH@Z
_TEXT	SEGMENT
tv170 = -256						; size = 4
_len$ = -56						; size = 4
_dy$ = -44						; size = 4
_dx$ = -32						; size = 4
_dir$ = -20						; size = 4
_dir1$ = -8						; size = 4
_ptAct$ = 8						; size = 4
_nextGx$ = 12						; size = 4
_nextGy$ = 16						; size = 4
?_setCharMovePoint@@YAXPAUaction@@HH@Z PROC		; _setCharMovePoint, COMDAT

; 496  : {

  00000	55		 push	 ebp
  00001	8b ec		 mov	 ebp, esp
  00003	81 ec 00 01 00
	00		 sub	 esp, 256		; 00000100H
  00009	53		 push	 ebx
  0000a	56		 push	 esi
  0000b	57		 push	 edi
  0000c	8d bd 00 ff ff
	ff		 lea	 edi, DWORD PTR [ebp-256]
  00012	b9 40 00 00 00	 mov	 ecx, 64			; 00000040H
  00017	b8 cc cc cc cc	 mov	 eax, -858993460		; ccccccccH
  0001c	f3 ab		 rep stosd

; 497  : 	float dir1;
; 498  : 	int dir;
; 499  : 	float dx, dy;
; 500  : 	float len;
; 501  : 	if( ptAct == NULL )

  0001e	83 7d 08 00	 cmp	 DWORD PTR _ptAct$[ebp], 0
  00022	75 05		 jne	 SHORT $LN2@setCharMov

; 502  : 		return;

  00024	e9 81 01 00 00	 jmp	 $LN1@setCharMov
$LN2@setCharMov:

; 503  : 	dx = nextGx*GRID_SIZE-ptAct->mx;

  00029	8b 45 0c	 mov	 eax, DWORD PTR _nextGx$[ebp]
  0002c	c1 e0 06	 shl	 eax, 6
  0002f	f3 0f 2a c0	 cvtsi2ss xmm0, eax
  00033	8b 4d 08	 mov	 ecx, DWORD PTR _ptAct$[ebp]
  00036	f3 0f 5c 81 18
	01 00 00	 subss	 xmm0, DWORD PTR [ecx+280]
  0003e	f3 0f 11 45 e0	 movss	 DWORD PTR _dx$[ebp], xmm0

; 504  : 	dy = nextGy*GRID_SIZE-ptAct->my;

  00043	8b 45 10	 mov	 eax, DWORD PTR _nextGy$[ebp]
  00046	c1 e0 06	 shl	 eax, 6
  00049	f3 0f 2a c0	 cvtsi2ss xmm0, eax
  0004d	8b 4d 08	 mov	 ecx, DWORD PTR _ptAct$[ebp]
  00050	f3 0f 5c 81 1c
	01 00 00	 subss	 xmm0, DWORD PTR [ecx+284]
  00058	f3 0f 11 45 d4	 movss	 DWORD PTR _dy$[ebp], xmm0

; 505  : 	len = (float)sqrt( (double)(dx*dx+dy*dy) );

  0005d	f3 0f 10 45 e0	 movss	 xmm0, DWORD PTR _dx$[ebp]
  00062	f3 0f 59 45 e0	 mulss	 xmm0, DWORD PTR _dx$[ebp]
  00067	f3 0f 10 4d d4	 movss	 xmm1, DWORD PTR _dy$[ebp]
  0006c	f3 0f 59 4d d4	 mulss	 xmm1, DWORD PTR _dy$[ebp]
  00071	f3 0f 58 c1	 addss	 xmm0, xmm1
  00075	f3 0f 5a c0	 cvtss2sd xmm0, xmm0
  00079	83 ec 08	 sub	 esp, 8
  0007c	f2 0f 11 04 24	 movsd	 QWORD PTR [esp], xmm0
  00081	e8 00 00 00 00	 call	 _sqrt
  00086	83 c4 08	 add	 esp, 8
  00089	d9 5d c8	 fstp	 DWORD PTR _len$[ebp]

; 506  : 	if( len > 0 ){

  0008c	f3 0f 10 45 c8	 movss	 xmm0, DWORD PTR _len$[ebp]
  00091	0f 2f 05 00 00
	00 00		 comiss	 xmm0, DWORD PTR __real@00000000
  00098	76 20		 jbe	 SHORT $LN3@setCharMov

; 507  : 		dx /= len;

  0009a	f3 0f 10 45 e0	 movss	 xmm0, DWORD PTR _dx$[ebp]
  0009f	f3 0f 5e 45 c8	 divss	 xmm0, DWORD PTR _len$[ebp]
  000a4	f3 0f 11 45 e0	 movss	 DWORD PTR _dx$[ebp], xmm0

; 508  : 		dy /= len;

  000a9	f3 0f 10 45 d4	 movss	 xmm0, DWORD PTR _dy$[ebp]
  000ae	f3 0f 5e 45 c8	 divss	 xmm0, DWORD PTR _len$[ebp]
  000b3	f3 0f 11 45 d4	 movss	 DWORD PTR _dy$[ebp], xmm0

; 509  : 	}else{

  000b8	eb 10		 jmp	 SHORT $LN4@setCharMov
$LN3@setCharMov:

; 510  : 		dx = 0;

  000ba	0f 57 c0	 xorps	 xmm0, xmm0
  000bd	f3 0f 11 45 e0	 movss	 DWORD PTR _dx$[ebp], xmm0

; 511  : 		dy = 0;

  000c2	0f 57 c0	 xorps	 xmm0, xmm0
  000c5	f3 0f 11 45 d4	 movss	 DWORD PTR _dy$[ebp], xmm0
$LN4@setCharMov:

; 512  : 	}
; 513  : 	ptAct->vx = dx * MOVE_SPEED;

  000ca	f3 0f 10 45 e0	 movss	 xmm0, DWORD PTR _dx$[ebp]
  000cf	f3 0f 59 05 00
	00 00 00	 mulss	 xmm0, DWORD PTR __real@40800000
  000d7	8b 45 08	 mov	 eax, DWORD PTR _ptAct$[ebp]
  000da	f3 0f 11 80 20
	01 00 00	 movss	 DWORD PTR [eax+288], xmm0

; 514  : 	ptAct->vy = dy * MOVE_SPEED;

  000e2	f3 0f 10 45 d4	 movss	 xmm0, DWORD PTR _dy$[ebp]
  000e7	f3 0f 59 05 00
	00 00 00	 mulss	 xmm0, DWORD PTR __real@40800000
  000ef	8b 45 08	 mov	 eax, DWORD PTR _ptAct$[ebp]
  000f2	f3 0f 11 80 24
	01 00 00	 movss	 DWORD PTR [eax+292], xmm0

; 515  : 	ptAct->nextGx = nextGx;

  000fa	8b 45 08	 mov	 eax, DWORD PTR _ptAct$[ebp]
  000fd	8b 4d 0c	 mov	 ecx, DWORD PTR _nextGx$[ebp]
  00100	89 88 bc 00 00
	00		 mov	 DWORD PTR [eax+188], ecx

; 516  : 	ptAct->nextGy = nextGy;

  00106	8b 45 08	 mov	 eax, DWORD PTR _ptAct$[ebp]
  00109	8b 4d 10	 mov	 ecx, DWORD PTR _nextGy$[ebp]
  0010c	89 88 c0 00 00
	00		 mov	 DWORD PTR [eax+192], ecx

; 517  : 	if( dx != 0 || dy != 0 ){

  00112	f3 0f 10 45 e0	 movss	 xmm0, DWORD PTR _dx$[ebp]
  00117	0f 2e 05 00 00
	00 00		 ucomiss xmm0, DWORD PTR __real@00000000
  0011e	9f		 lahf
  0011f	f6 c4 44	 test	 ah, 68			; 00000044H
  00122	7a 12		 jp	 SHORT $LN6@setCharMov
  00124	f3 0f 10 45 d4	 movss	 xmm0, DWORD PTR _dy$[ebp]
  00129	0f 2e 05 00 00
	00 00		 ucomiss xmm0, DWORD PTR __real@00000000
  00130	9f		 lahf
  00131	f6 c4 44	 test	 ah, 68			; 00000044H
  00134	7b 74		 jnp	 SHORT $LN5@setCharMov
$LN6@setCharMov:

; 518  : 		dir1 = Atan( dx, dy ) + 22.5F;

  00136	51		 push	 ecx
  00137	f3 0f 10 45 d4	 movss	 xmm0, DWORD PTR _dy$[ebp]
  0013c	f3 0f 11 04 24	 movss	 DWORD PTR [esp], xmm0
  00141	51		 push	 ecx
  00142	f3 0f 10 45 e0	 movss	 xmm0, DWORD PTR _dx$[ebp]
  00147	f3 0f 11 04 24	 movss	 DWORD PTR [esp], xmm0
  0014c	e8 00 00 00 00	 call	 ?Atan@@YAMMM@Z		; Atan
  00151	83 c4 08	 add	 esp, 8
  00154	d9 9d 00 ff ff
	ff		 fstp	 DWORD PTR tv170[ebp]
  0015a	f3 0f 10 85 00
	ff ff ff	 movss	 xmm0, DWORD PTR tv170[ebp]
  00162	f3 0f 58 05 00
	00 00 00	 addss	 xmm0, DWORD PTR __real@41b40000
  0016a	f3 0f 11 45 f8	 movss	 DWORD PTR _dir1$[ebp], xmm0

; 519  : 		AdjustDir( &dir1 );

  0016f	8d 45 f8	 lea	 eax, DWORD PTR _dir1$[ebp]
  00172	50		 push	 eax
  00173	e8 00 00 00 00	 call	 ?AdjustDir@@YAXPAM@Z	; AdjustDir
  00178	83 c4 04	 add	 esp, 4

; 520  : 		dir = (int)(dir1/45);

  0017b	f3 0f 10 45 f8	 movss	 xmm0, DWORD PTR _dir1$[ebp]
  00180	f3 0f 5e 05 00
	00 00 00	 divss	 xmm0, DWORD PTR __real@42340000
  00188	f3 0f 2c c0	 cvttss2si eax, xmm0
  0018c	89 45 ec	 mov	 DWORD PTR _dir$[ebp], eax

; 521  : 		ptAct->anim_ang = dir;

  0018f	8b 45 08	 mov	 eax, DWORD PTR _ptAct$[ebp]
  00192	8b 4d ec	 mov	 ecx, DWORD PTR _dir$[ebp]
  00195	89 88 54 01 00
	00		 mov	 DWORD PTR [eax+340], ecx

; 522  : 		ptAct->walkFlag = 1;

  0019b	b8 01 00 00 00	 mov	 eax, 1
  001a0	8b 4d 08	 mov	 ecx, DWORD PTR _ptAct$[ebp]
  001a3	66 89 81 16 01
	00 00		 mov	 WORD PTR [ecx+278], ax
$LN5@setCharMov:
$LN1@setCharMov:

; 523  : 	}
; 524  : }

  001aa	52		 push	 edx
  001ab	8b cd		 mov	 ecx, ebp
  001ad	50		 push	 eax
  001ae	8d 15 00 00 00
	00		 lea	 edx, DWORD PTR $LN10@setCharMov
  001b4	e8 00 00 00 00	 call	 @_RTC_CheckStackVars@8
  001b9	58		 pop	 eax
  001ba	5a		 pop	 edx
  001bb	5f		 pop	 edi
  001bc	5e		 pop	 esi
  001bd	5b		 pop	 ebx
  001be	81 c4 00 01 00
	00		 add	 esp, 256		; 00000100H
  001c4	3b ec		 cmp	 ebp, esp
  001c6	e8 00 00 00 00	 call	 __RTC_CheckEsp
  001cb	8b e5		 mov	 esp, ebp
  001cd	5d		 pop	 ebp
  001ce	c3		 ret	 0
  001cf	90		 npad	 1
$LN10@setCharMov:
  001d0	01 00 00 00	 DD	 1
  001d4	00 00 00 00	 DD	 $LN9@setCharMov
$LN9@setCharMov:
  001d8	f8 ff ff ff	 DD	 -8			; fffffff8H
  001dc	04 00 00 00	 DD	 4
  001e0	00 00 00 00	 DD	 $LN8@setCharMov
$LN8@setCharMov:
  001e4	64		 DB	 100			; 00000064H
  001e5	69		 DB	 105			; 00000069H
  001e6	72		 DB	 114			; 00000072H
  001e7	31		 DB	 49			; 00000031H
  001e8	00		 DB	 0
?_setCharMovePoint@@YAXPAUaction@@HH@Z ENDP		; _setCharMovePoint
_TEXT	ENDS
; Function compile flags: /Odtp /RTCsu /ZI
; File c:\users\administrator\desktop\????? ??\????? ??\client source code\system\character.cpp
;	COMDAT ?setCharMovePoint@@YAXPAUaction@@HH@Z
_TEXT	SEGMENT
tv188 = -268						; size = 4
_rate$ = -68						; size = 4
_len$ = -56						; size = 4
_dy$ = -44						; size = 4
_dx$ = -32						; size = 4
_dir$ = -20						; size = 4
_dir1$ = -8						; size = 4
_ptAct$ = 8						; size = 4
_nextGx$ = 12						; size = 4
_nextGy$ = 16						; size = 4
?setCharMovePoint@@YAXPAUaction@@HH@Z PROC		; setCharMovePoint, COMDAT

; 458  : {

  00000	55		 push	 ebp
  00001	8b ec		 mov	 ebp, esp
  00003	81 ec 0c 01 00
	00		 sub	 esp, 268		; 0000010cH
  00009	53		 push	 ebx
  0000a	56		 push	 esi
  0000b	57		 push	 edi
  0000c	8d bd f4 fe ff
	ff		 lea	 edi, DWORD PTR [ebp-268]
  00012	b9 43 00 00 00	 mov	 ecx, 67			; 00000043H
  00017	b8 cc cc cc cc	 mov	 eax, -858993460		; ccccccccH
  0001c	f3 ab		 rep stosd

; 459  : 	float dir1;
; 460  : 	int dir;
; 461  : 	float dx, dy;
; 462  : 	float len;
; 463  : 	float rate = 1.0F;

  0001e	f3 0f 10 05 00
	00 00 00	 movss	 xmm0, DWORD PTR __real@3f800000
  00026	f3 0f 11 45 bc	 movss	 DWORD PTR _rate$[ebp], xmm0

; 464  : 	if( ptAct == NULL )

  0002b	83 7d 08 00	 cmp	 DWORD PTR _ptAct$[ebp], 0
  0002f	75 05		 jne	 SHORT $LN2@setCharMov

; 465  : 		return;

  00031	e9 e3 01 00 00	 jmp	 $LN1@setCharMov
$LN2@setCharMov:

; 466  : 	if( ptAct->bufCount > 5 )

  00036	8b 45 08	 mov	 eax, DWORD PTR _ptAct$[ebp]
  00039	0f bf 88 14 01
	00 00		 movsx	 ecx, WORD PTR [eax+276]
  00040	83 f9 05	 cmp	 ecx, 5
  00043	7e 0f		 jle	 SHORT $LN3@setCharMov

; 467  : 		rate = 2.0F;

  00045	f3 0f 10 05 00
	00 00 00	 movss	 xmm0, DWORD PTR __real@40000000
  0004d	f3 0f 11 45 bc	 movss	 DWORD PTR _rate$[ebp], xmm0
  00052	eb 3a		 jmp	 SHORT $LN7@setCharMov
$LN3@setCharMov:

; 468  : 	else if( ptAct->bufCount >= 4 )

  00054	8b 45 08	 mov	 eax, DWORD PTR _ptAct$[ebp]
  00057	0f bf 88 14 01
	00 00		 movsx	 ecx, WORD PTR [eax+276]
  0005e	83 f9 04	 cmp	 ecx, 4
  00061	7c 0f		 jl	 SHORT $LN5@setCharMov

; 469  : 		rate = 1.6F;

  00063	f3 0f 10 05 00
	00 00 00	 movss	 xmm0, DWORD PTR __real@3fcccccd
  0006b	f3 0f 11 45 bc	 movss	 DWORD PTR _rate$[ebp], xmm0
  00070	eb 1c		 jmp	 SHORT $LN7@setCharMov
$LN5@setCharMov:

; 470  : 	else if( ptAct->bufCount >= 2 )

  00072	8b 45 08	 mov	 eax, DWORD PTR _ptAct$[ebp]
  00075	0f bf 88 14 01
	00 00		 movsx	 ecx, WORD PTR [eax+276]
  0007c	83 f9 02	 cmp	 ecx, 2
  0007f	7c 0d		 jl	 SHORT $LN7@setCharMov

; 471  : 		rate = 1.2F;

  00081	f3 0f 10 05 00
	00 00 00	 movss	 xmm0, DWORD PTR __real@3f99999a
  00089	f3 0f 11 45 bc	 movss	 DWORD PTR _rate$[ebp], xmm0
$LN7@setCharMov:

; 472  : 	dx = nextGx*GRID_SIZE-ptAct->mx;

  0008e	8b 45 0c	 mov	 eax, DWORD PTR _nextGx$[ebp]
  00091	c1 e0 06	 shl	 eax, 6
  00094	f3 0f 2a c0	 cvtsi2ss xmm0, eax
  00098	8b 4d 08	 mov	 ecx, DWORD PTR _ptAct$[ebp]
  0009b	f3 0f 5c 81 18
	01 00 00	 subss	 xmm0, DWORD PTR [ecx+280]
  000a3	f3 0f 11 45 e0	 movss	 DWORD PTR _dx$[ebp], xmm0

; 473  : 	dy = nextGy*GRID_SIZE-ptAct->my;

  000a8	8b 45 10	 mov	 eax, DWORD PTR _nextGy$[ebp]
  000ab	c1 e0 06	 shl	 eax, 6
  000ae	f3 0f 2a c0	 cvtsi2ss xmm0, eax
  000b2	8b 4d 08	 mov	 ecx, DWORD PTR _ptAct$[ebp]
  000b5	f3 0f 5c 81 1c
	01 00 00	 subss	 xmm0, DWORD PTR [ecx+284]
  000bd	f3 0f 11 45 d4	 movss	 DWORD PTR _dy$[ebp], xmm0

; 474  : 	len = (float)sqrt( (double)(dx*dx+dy*dy) );

  000c2	f3 0f 10 45 e0	 movss	 xmm0, DWORD PTR _dx$[ebp]
  000c7	f3 0f 59 45 e0	 mulss	 xmm0, DWORD PTR _dx$[ebp]
  000cc	f3 0f 10 4d d4	 movss	 xmm1, DWORD PTR _dy$[ebp]
  000d1	f3 0f 59 4d d4	 mulss	 xmm1, DWORD PTR _dy$[ebp]
  000d6	f3 0f 58 c1	 addss	 xmm0, xmm1
  000da	f3 0f 5a c0	 cvtss2sd xmm0, xmm0
  000de	83 ec 08	 sub	 esp, 8
  000e1	f2 0f 11 04 24	 movsd	 QWORD PTR [esp], xmm0
  000e6	e8 00 00 00 00	 call	 _sqrt
  000eb	83 c4 08	 add	 esp, 8
  000ee	d9 5d c8	 fstp	 DWORD PTR _len$[ebp]

; 475  : 	if( len > 0 ){

  000f1	f3 0f 10 45 c8	 movss	 xmm0, DWORD PTR _len$[ebp]
  000f6	0f 2f 05 00 00
	00 00		 comiss	 xmm0, DWORD PTR __real@00000000
  000fd	76 20		 jbe	 SHORT $LN8@setCharMov

; 476  : 		dx /= len;

  000ff	f3 0f 10 45 e0	 movss	 xmm0, DWORD PTR _dx$[ebp]
  00104	f3 0f 5e 45 c8	 divss	 xmm0, DWORD PTR _len$[ebp]
  00109	f3 0f 11 45 e0	 movss	 DWORD PTR _dx$[ebp], xmm0

; 477  : 		dy /= len;

  0010e	f3 0f 10 45 d4	 movss	 xmm0, DWORD PTR _dy$[ebp]
  00113	f3 0f 5e 45 c8	 divss	 xmm0, DWORD PTR _len$[ebp]
  00118	f3 0f 11 45 d4	 movss	 DWORD PTR _dy$[ebp], xmm0

; 478  : 	}else{

  0011d	eb 10		 jmp	 SHORT $LN9@setCharMov
$LN8@setCharMov:

; 479  : 		dx = 0;

  0011f	0f 57 c0	 xorps	 xmm0, xmm0
  00122	f3 0f 11 45 e0	 movss	 DWORD PTR _dx$[ebp], xmm0

; 480  : 		dy = 0;

  00127	0f 57 c0	 xorps	 xmm0, xmm0
  0012a	f3 0f 11 45 d4	 movss	 DWORD PTR _dy$[ebp], xmm0
$LN9@setCharMov:

; 481  : 	}
; 482  : 	ptAct->vx = dx * MOVE_SPEED * rate;

  0012f	f3 0f 10 45 e0	 movss	 xmm0, DWORD PTR _dx$[ebp]
  00134	f3 0f 59 05 00
	00 00 00	 mulss	 xmm0, DWORD PTR __real@40800000
  0013c	f3 0f 59 45 bc	 mulss	 xmm0, DWORD PTR _rate$[ebp]
  00141	8b 45 08	 mov	 eax, DWORD PTR _ptAct$[ebp]
  00144	f3 0f 11 80 20
	01 00 00	 movss	 DWORD PTR [eax+288], xmm0

; 483  : 	ptAct->vy = dy * MOVE_SPEED * rate;

  0014c	f3 0f 10 45 d4	 movss	 xmm0, DWORD PTR _dy$[ebp]
  00151	f3 0f 59 05 00
	00 00 00	 mulss	 xmm0, DWORD PTR __real@40800000
  00159	f3 0f 59 45 bc	 mulss	 xmm0, DWORD PTR _rate$[ebp]
  0015e	8b 45 08	 mov	 eax, DWORD PTR _ptAct$[ebp]
  00161	f3 0f 11 80 24
	01 00 00	 movss	 DWORD PTR [eax+292], xmm0

; 484  : 	ptAct->nextGx = nextGx;

  00169	8b 45 08	 mov	 eax, DWORD PTR _ptAct$[ebp]
  0016c	8b 4d 0c	 mov	 ecx, DWORD PTR _nextGx$[ebp]
  0016f	89 88 bc 00 00
	00		 mov	 DWORD PTR [eax+188], ecx

; 485  : 	ptAct->nextGy = nextGy;

  00175	8b 45 08	 mov	 eax, DWORD PTR _ptAct$[ebp]
  00178	8b 4d 10	 mov	 ecx, DWORD PTR _nextGy$[ebp]
  0017b	89 88 c0 00 00
	00		 mov	 DWORD PTR [eax+192], ecx

; 486  : 	if( dx != 0 || dy != 0 ){

  00181	f3 0f 10 45 e0	 movss	 xmm0, DWORD PTR _dx$[ebp]
  00186	0f 2e 05 00 00
	00 00		 ucomiss xmm0, DWORD PTR __real@00000000
  0018d	9f		 lahf
  0018e	f6 c4 44	 test	 ah, 68			; 00000044H
  00191	7a 12		 jp	 SHORT $LN11@setCharMov
  00193	f3 0f 10 45 d4	 movss	 xmm0, DWORD PTR _dy$[ebp]
  00198	0f 2e 05 00 00
	00 00		 ucomiss xmm0, DWORD PTR __real@00000000
  0019f	9f		 lahf
  001a0	f6 c4 44	 test	 ah, 68			; 00000044H
  001a3	7b 74		 jnp	 SHORT $LN10@setCharMov
$LN11@setCharMov:

; 487  : 		dir1 = Atan( dx, dy ) + 22.5F;

  001a5	51		 push	 ecx
  001a6	f3 0f 10 45 d4	 movss	 xmm0, DWORD PTR _dy$[ebp]
  001ab	f3 0f 11 04 24	 movss	 DWORD PTR [esp], xmm0
  001b0	51		 push	 ecx
  001b1	f3 0f 10 45 e0	 movss	 xmm0, DWORD PTR _dx$[ebp]
  001b6	f3 0f 11 04 24	 movss	 DWORD PTR [esp], xmm0
  001bb	e8 00 00 00 00	 call	 ?Atan@@YAMMM@Z		; Atan
  001c0	83 c4 08	 add	 esp, 8
  001c3	d9 9d f4 fe ff
	ff		 fstp	 DWORD PTR tv188[ebp]
  001c9	f3 0f 10 85 f4
	fe ff ff	 movss	 xmm0, DWORD PTR tv188[ebp]
  001d1	f3 0f 58 05 00
	00 00 00	 addss	 xmm0, DWORD PTR __real@41b40000
  001d9	f3 0f 11 45 f8	 movss	 DWORD PTR _dir1$[ebp], xmm0

; 488  : 		AdjustDir( &dir1 );

  001de	8d 45 f8	 lea	 eax, DWORD PTR _dir1$[ebp]
  001e1	50		 push	 eax
  001e2	e8 00 00 00 00	 call	 ?AdjustDir@@YAXPAM@Z	; AdjustDir
  001e7	83 c4 04	 add	 esp, 4

; 489  : 		dir = (int)(dir1/45);

  001ea	f3 0f 10 45 f8	 movss	 xmm0, DWORD PTR _dir1$[ebp]
  001ef	f3 0f 5e 05 00
	00 00 00	 divss	 xmm0, DWORD PTR __real@42340000
  001f7	f3 0f 2c c0	 cvttss2si eax, xmm0
  001fb	89 45 ec	 mov	 DWORD PTR _dir$[ebp], eax

; 490  : 		ptAct->anim_ang = dir;

  001fe	8b 45 08	 mov	 eax, DWORD PTR _ptAct$[ebp]
  00201	8b 4d ec	 mov	 ecx, DWORD PTR _dir$[ebp]
  00204	89 88 54 01 00
	00		 mov	 DWORD PTR [eax+340], ecx

; 491  : 		ptAct->walkFlag = 1;

  0020a	b8 01 00 00 00	 mov	 eax, 1
  0020f	8b 4d 08	 mov	 ecx, DWORD PTR _ptAct$[ebp]
  00212	66 89 81 16 01
	00 00		 mov	 WORD PTR [ecx+278], ax
$LN10@setCharMov:
$LN1@setCharMov:

; 492  : 	}
; 493  : }

  00219	52		 push	 edx
  0021a	8b cd		 mov	 ecx, ebp
  0021c	50		 push	 eax
  0021d	8d 15 00 00 00
	00		 lea	 edx, DWORD PTR $LN15@setCharMov
  00223	e8 00 00 00 00	 call	 @_RTC_CheckStackVars@8
  00228	58		 pop	 eax
  00229	5a		 pop	 edx
  0022a	5f		 pop	 edi
  0022b	5e		 pop	 esi
  0022c	5b		 pop	 ebx
  0022d	81 c4 0c 01 00
	00		 add	 esp, 268		; 0000010cH
  00233	3b ec		 cmp	 ebp, esp
  00235	e8 00 00 00 00	 call	 __RTC_CheckEsp
  0023a	8b e5		 mov	 esp, ebp
  0023c	5d		 pop	 ebp
  0023d	c3		 ret	 0
  0023e	66 90		 npad	 2
$LN15@setCharMov:
  00240	01 00 00 00	 DD	 1
  00244	00 00 00 00	 DD	 $LN14@setCharMov
$LN14@setCharMov:
  00248	f8 ff ff ff	 DD	 -8			; fffffff8H
  0024c	04 00 00 00	 DD	 4
  00250	00 00 00 00	 DD	 $LN13@setCharMov
$LN13@setCharMov:
  00254	64		 DB	 100			; 00000064H
  00255	69		 DB	 105			; 00000069H
  00256	72		 DB	 114			; 00000072H
  00257	31		 DB	 49			; 00000031H
  00258	00		 DB	 0
?setCharMovePoint@@YAXPAUaction@@HH@Z ENDP		; setCharMovePoint
_TEXT	ENDS
; Function compile flags: /Odtp /RTCsu /ZI
; File c:\users\administrator\desktop\????? ??\????? ??\client source code\system\character.cpp
;	COMDAT ?correctCharMovePoint@@YAXPAUaction@@HH@Z
_TEXT	SEGMENT
tv143 = -312						; size = 4
tv132 = -312						; size = 4
tv87 = -312						; size = 4
tv83 = -312						; size = 4
_nextGy2$ = -112					; size = 4
_nextGx2$ = -100					; size = 4
_preCnt$ = -88						; size = 4
_i$ = -76						; size = 4
_nCnt$ = -64						; size = 4
_nGy$ = -52						; size = 8
_nGx$ = -36						; size = 8
_dy$ = -20						; size = 4
_dx$ = -8						; size = 4
_ptAct$ = 8						; size = 4
_nextGx$ = 12						; size = 4
_nextGy$ = 16						; size = 4
?correctCharMovePoint@@YAXPAUaction@@HH@Z PROC		; correctCharMovePoint, COMDAT

; 405  : {

  00000	55		 push	 ebp
  00001	8b ec		 mov	 ebp, esp
  00003	81 ec 38 01 00
	00		 sub	 esp, 312		; 00000138H
  00009	53		 push	 ebx
  0000a	56		 push	 esi
  0000b	57		 push	 edi
  0000c	8d bd c8 fe ff
	ff		 lea	 edi, DWORD PTR [ebp-312]
  00012	b9 4e 00 00 00	 mov	 ecx, 78			; 0000004eH
  00017	b8 cc cc cc cc	 mov	 eax, -858993460		; ccccccccH
  0001c	f3 ab		 rep stosd

; 406  : 	int dx, dy;
; 407  : 	int nGx[2], nGy[2], nCnt = 0;

  0001e	c7 45 c0 00 00
	00 00		 mov	 DWORD PTR _nCnt$[ebp], 0

; 408  : 	int i;
; 409  : 	int preCnt;
; 410  : 	int nextGx2, nextGy2;
; 411  : 	if( ptAct == NULL )

  00025	83 7d 08 00	 cmp	 DWORD PTR _ptAct$[ebp], 0
  00029	75 05		 jne	 SHORT $LN5@correctCha

; 412  : 		return;

  0002b	e9 48 02 00 00	 jmp	 $LN1@correctCha
$LN5@correctCha:

; 413  : 	// ???????
; 414  : 	// ??????????????next?{???
; 415  : 	if( ptAct->bufCount <= 0 ){

  00030	8b 45 08	 mov	 eax, DWORD PTR _ptAct$[ebp]
  00033	0f bf 88 14 01
	00 00		 movsx	 ecx, WORD PTR [eax+276]
  0003a	85 c9		 test	 ecx, ecx
  0003c	7f 1a		 jg	 SHORT $LN6@correctCha

; 416  : 		nextGx2 = ptAct->nextGx;

  0003e	8b 45 08	 mov	 eax, DWORD PTR _ptAct$[ebp]
  00041	8b 88 bc 00 00
	00		 mov	 ecx, DWORD PTR [eax+188]
  00047	89 4d 9c	 mov	 DWORD PTR _nextGx2$[ebp], ecx

; 417  : 		nextGy2 = ptAct->nextGy;

  0004a	8b 45 08	 mov	 eax, DWORD PTR _ptAct$[ebp]
  0004d	8b 88 c0 00 00
	00		 mov	 ecx, DWORD PTR [eax+192]
  00053	89 4d 90	 mov	 DWORD PTR _nextGy2$[ebp], ecx

; 418  : 	}else{

  00056	eb 30		 jmp	 SHORT $LN7@correctCha
$LN6@correctCha:

; 419  : 		preCnt = ptAct->bufCount - 1;

  00058	8b 45 08	 mov	 eax, DWORD PTR _ptAct$[ebp]
  0005b	0f bf 88 14 01
	00 00		 movsx	 ecx, WORD PTR [eax+276]
  00062	83 e9 01	 sub	 ecx, 1
  00065	89 4d a8	 mov	 DWORD PTR _preCnt$[ebp], ecx

; 420  : 		nextGx2 = ptAct->bufGx[preCnt];

  00068	8b 45 a8	 mov	 eax, DWORD PTR _preCnt$[ebp]
  0006b	8b 4d 08	 mov	 ecx, DWORD PTR _ptAct$[ebp]
  0006e	8b 94 81 c4 00
	00 00		 mov	 edx, DWORD PTR [ecx+eax*4+196]
  00075	89 55 9c	 mov	 DWORD PTR _nextGx2$[ebp], edx

; 421  : 		nextGy2 = ptAct->bufGy[preCnt];

  00078	8b 45 a8	 mov	 eax, DWORD PTR _preCnt$[ebp]
  0007b	8b 4d 08	 mov	 ecx, DWORD PTR _ptAct$[ebp]
  0007e	8b 94 81 ec 00
	00 00		 mov	 edx, DWORD PTR [ecx+eax*4+236]
  00085	89 55 90	 mov	 DWORD PTR _nextGy2$[ebp], edx
$LN7@correctCha:

; 422  : 	}
; 423  : 	dx = nextGx - nextGx2;

  00088	8b 45 0c	 mov	 eax, DWORD PTR _nextGx$[ebp]
  0008b	2b 45 9c	 sub	 eax, DWORD PTR _nextGx2$[ebp]
  0008e	89 45 f8	 mov	 DWORD PTR _dx$[ebp], eax

; 424  : 	dy = nextGy - nextGy2;

  00091	8b 45 10	 mov	 eax, DWORD PTR _nextGy$[ebp]
  00094	2b 45 90	 sub	 eax, DWORD PTR _nextGy2$[ebp]
  00097	89 45 ec	 mov	 DWORD PTR _dy$[ebp], eax

; 425  : 	if( ABS( dx ) == 2 && ABS( dy ) == 2 ){

  0009a	83 7d f8 00	 cmp	 DWORD PTR _dx$[ebp], 0
  0009e	7d 0d		 jge	 SHORT $LN16@correctCha
  000a0	8b 45 f8	 mov	 eax, DWORD PTR _dx$[ebp]
  000a3	f7 d8		 neg	 eax
  000a5	89 85 c8 fe ff
	ff		 mov	 DWORD PTR tv83[ebp], eax
  000ab	eb 09		 jmp	 SHORT $LN17@correctCha
$LN16@correctCha:
  000ad	8b 4d f8	 mov	 ecx, DWORD PTR _dx$[ebp]
  000b0	89 8d c8 fe ff
	ff		 mov	 DWORD PTR tv83[ebp], ecx
$LN17@correctCha:
  000b6	83 bd c8 fe ff
	ff 02		 cmp	 DWORD PTR tv83[ebp], 2
  000bd	75 57		 jne	 SHORT $LN8@correctCha
  000bf	83 7d ec 00	 cmp	 DWORD PTR _dy$[ebp], 0
  000c3	7d 0d		 jge	 SHORT $LN18@correctCha
  000c5	8b 45 ec	 mov	 eax, DWORD PTR _dy$[ebp]
  000c8	f7 d8		 neg	 eax
  000ca	89 85 c8 fe ff
	ff		 mov	 DWORD PTR tv87[ebp], eax
  000d0	eb 09		 jmp	 SHORT $LN19@correctCha
$LN18@correctCha:
  000d2	8b 4d ec	 mov	 ecx, DWORD PTR _dy$[ebp]
  000d5	89 8d c8 fe ff
	ff		 mov	 DWORD PTR tv87[ebp], ecx
$LN19@correctCha:
  000db	83 bd c8 fe ff
	ff 02		 cmp	 DWORD PTR tv87[ebp], 2
  000e2	75 32		 jne	 SHORT $LN8@correctCha

; 426  : 		nGx[nCnt] = nextGx2+dx/2;

  000e4	8b 45 f8	 mov	 eax, DWORD PTR _dx$[ebp]
  000e7	99		 cdq
  000e8	2b c2		 sub	 eax, edx
  000ea	d1 f8		 sar	 eax, 1
  000ec	03 45 9c	 add	 eax, DWORD PTR _nextGx2$[ebp]
  000ef	8b 4d c0	 mov	 ecx, DWORD PTR _nCnt$[ebp]
  000f2	89 44 8d dc	 mov	 DWORD PTR _nGx$[ebp+ecx*4], eax

; 427  : 		nGy[nCnt] = nextGy2+dy/2;

  000f6	8b 45 ec	 mov	 eax, DWORD PTR _dy$[ebp]
  000f9	99		 cdq
  000fa	2b c2		 sub	 eax, edx
  000fc	d1 f8		 sar	 eax, 1
  000fe	03 45 90	 add	 eax, DWORD PTR _nextGy2$[ebp]
  00101	8b 4d c0	 mov	 ecx, DWORD PTR _nCnt$[ebp]
  00104	89 44 8d cc	 mov	 DWORD PTR _nGy$[ebp+ecx*4], eax

; 428  : 		nCnt++;

  00108	8b 45 c0	 mov	 eax, DWORD PTR _nCnt$[ebp]
  0010b	83 c0 01	 add	 eax, 1
  0010e	89 45 c0	 mov	 DWORD PTR _nCnt$[ebp], eax
  00111	e9 96 00 00 00	 jmp	 $LN9@correctCha
$LN8@correctCha:

; 429  : 	}else if( ABS( dx ) == 2 ){

  00116	83 7d f8 00	 cmp	 DWORD PTR _dx$[ebp], 0
  0011a	7d 0d		 jge	 SHORT $LN20@correctCha
  0011c	8b 45 f8	 mov	 eax, DWORD PTR _dx$[ebp]
  0011f	f7 d8		 neg	 eax
  00121	89 85 c8 fe ff
	ff		 mov	 DWORD PTR tv132[ebp], eax
  00127	eb 09		 jmp	 SHORT $LN21@correctCha
$LN20@correctCha:
  00129	8b 4d f8	 mov	 ecx, DWORD PTR _dx$[ebp]
  0012c	89 8d c8 fe ff
	ff		 mov	 DWORD PTR tv132[ebp], ecx
$LN21@correctCha:
  00132	83 bd c8 fe ff
	ff 02		 cmp	 DWORD PTR tv132[ebp], 2
  00139	75 27		 jne	 SHORT $LN10@correctCha

; 430  : 		nGx[nCnt] = nextGx2+dx/2;

  0013b	8b 45 f8	 mov	 eax, DWORD PTR _dx$[ebp]
  0013e	99		 cdq
  0013f	2b c2		 sub	 eax, edx
  00141	d1 f8		 sar	 eax, 1
  00143	03 45 9c	 add	 eax, DWORD PTR _nextGx2$[ebp]
  00146	8b 4d c0	 mov	 ecx, DWORD PTR _nCnt$[ebp]
  00149	89 44 8d dc	 mov	 DWORD PTR _nGx$[ebp+ecx*4], eax

; 431  : 		nGy[nCnt] = nextGy;

  0014d	8b 45 c0	 mov	 eax, DWORD PTR _nCnt$[ebp]
  00150	8b 4d 10	 mov	 ecx, DWORD PTR _nextGy$[ebp]
  00153	89 4c 85 cc	 mov	 DWORD PTR _nGy$[ebp+eax*4], ecx

; 432  : 		nCnt++;

  00157	8b 45 c0	 mov	 eax, DWORD PTR _nCnt$[ebp]
  0015a	83 c0 01	 add	 eax, 1
  0015d	89 45 c0	 mov	 DWORD PTR _nCnt$[ebp], eax
  00160	eb 4a		 jmp	 SHORT $LN9@correctCha
$LN10@correctCha:

; 433  : 	}else if( ABS( dy ) == 2 ){

  00162	83 7d ec 00	 cmp	 DWORD PTR _dy$[ebp], 0
  00166	7d 0d		 jge	 SHORT $LN22@correctCha
  00168	8b 45 ec	 mov	 eax, DWORD PTR _dy$[ebp]
  0016b	f7 d8		 neg	 eax
  0016d	89 85 c8 fe ff
	ff		 mov	 DWORD PTR tv143[ebp], eax
  00173	eb 09		 jmp	 SHORT $LN23@correctCha
$LN22@correctCha:
  00175	8b 4d ec	 mov	 ecx, DWORD PTR _dy$[ebp]
  00178	89 8d c8 fe ff
	ff		 mov	 DWORD PTR tv143[ebp], ecx
$LN23@correctCha:
  0017e	83 bd c8 fe ff
	ff 02		 cmp	 DWORD PTR tv143[ebp], 2
  00185	75 25		 jne	 SHORT $LN9@correctCha

; 434  : 		nGx[nCnt] = nextGx;

  00187	8b 45 c0	 mov	 eax, DWORD PTR _nCnt$[ebp]
  0018a	8b 4d 0c	 mov	 ecx, DWORD PTR _nextGx$[ebp]
  0018d	89 4c 85 dc	 mov	 DWORD PTR _nGx$[ebp+eax*4], ecx

; 435  : 		nGy[nCnt] = nextGy2+dy/2;

  00191	8b 45 ec	 mov	 eax, DWORD PTR _dy$[ebp]
  00194	99		 cdq
  00195	2b c2		 sub	 eax, edx
  00197	d1 f8		 sar	 eax, 1
  00199	03 45 90	 add	 eax, DWORD PTR _nextGy2$[ebp]
  0019c	8b 4d c0	 mov	 ecx, DWORD PTR _nCnt$[ebp]
  0019f	89 44 8d cc	 mov	 DWORD PTR _nGy$[ebp+ecx*4], eax

; 436  : 		nCnt++;

  001a3	8b 45 c0	 mov	 eax, DWORD PTR _nCnt$[ebp]
  001a6	83 c0 01	 add	 eax, 1
  001a9	89 45 c0	 mov	 DWORD PTR _nCnt$[ebp], eax
$LN9@correctCha:

; 437  : 	}
; 438  : 	nGx[nCnt] = nextGx;

  001ac	8b 45 c0	 mov	 eax, DWORD PTR _nCnt$[ebp]
  001af	8b 4d 0c	 mov	 ecx, DWORD PTR _nextGx$[ebp]
  001b2	89 4c 85 dc	 mov	 DWORD PTR _nGx$[ebp+eax*4], ecx

; 439  : 	nGy[nCnt] = nextGy;

  001b6	8b 45 c0	 mov	 eax, DWORD PTR _nCnt$[ebp]
  001b9	8b 4d 10	 mov	 ecx, DWORD PTR _nextGy$[ebp]
  001bc	89 4c 85 cc	 mov	 DWORD PTR _nGy$[ebp+eax*4], ecx

; 440  : 	nCnt++;

  001c0	8b 45 c0	 mov	 eax, DWORD PTR _nCnt$[ebp]
  001c3	83 c0 01	 add	 eax, 1
  001c6	89 45 c0	 mov	 DWORD PTR _nCnt$[ebp], eax

; 441  : 	// ??????????????
; 442  : 	if( ptAct->bufCount+nCnt <= sizeof( ptAct->bufGx )/sizeof( int ) ){

  001c9	8b 45 08	 mov	 eax, DWORD PTR _ptAct$[ebp]
  001cc	0f bf 88 14 01
	00 00		 movsx	 ecx, WORD PTR [eax+276]
  001d3	03 4d c0	 add	 ecx, DWORD PTR _nCnt$[ebp]
  001d6	83 f9 0a	 cmp	 ecx, 10			; 0000000aH
  001d9	77 6c		 ja	 SHORT $LN13@correctCha

; 443  : 		for( i = 0; i < nCnt; i++ ){

  001db	c7 45 b4 00 00
	00 00		 mov	 DWORD PTR _i$[ebp], 0
  001e2	eb 09		 jmp	 SHORT $LN4@correctCha
$LN2@correctCha:
  001e4	8b 45 b4	 mov	 eax, DWORD PTR _i$[ebp]
  001e7	83 c0 01	 add	 eax, 1
  001ea	89 45 b4	 mov	 DWORD PTR _i$[ebp], eax
$LN4@correctCha:
  001ed	8b 45 b4	 mov	 eax, DWORD PTR _i$[ebp]
  001f0	3b 45 c0	 cmp	 eax, DWORD PTR _nCnt$[ebp]
  001f3	7d 50		 jge	 SHORT $LN3@correctCha

; 444  : 			ptAct->bufGx[ptAct->bufCount] = nGx[i];

  001f5	8b 45 08	 mov	 eax, DWORD PTR _ptAct$[ebp]
  001f8	0f bf 88 14 01
	00 00		 movsx	 ecx, WORD PTR [eax+276]
  001ff	8b 55 08	 mov	 edx, DWORD PTR _ptAct$[ebp]
  00202	8b 45 b4	 mov	 eax, DWORD PTR _i$[ebp]
  00205	8b 44 85 dc	 mov	 eax, DWORD PTR _nGx$[ebp+eax*4]
  00209	89 84 8a c4 00
	00 00		 mov	 DWORD PTR [edx+ecx*4+196], eax

; 445  : 			ptAct->bufGy[ptAct->bufCount] = nGy[i];

  00210	8b 45 08	 mov	 eax, DWORD PTR _ptAct$[ebp]
  00213	0f bf 88 14 01
	00 00		 movsx	 ecx, WORD PTR [eax+276]
  0021a	8b 55 08	 mov	 edx, DWORD PTR _ptAct$[ebp]
  0021d	8b 45 b4	 mov	 eax, DWORD PTR _i$[ebp]
  00220	8b 44 85 cc	 mov	 eax, DWORD PTR _nGy$[ebp+eax*4]
  00224	89 84 8a ec 00
	00 00		 mov	 DWORD PTR [edx+ecx*4+236], eax

; 446  : 			ptAct->bufCount++;

  0022b	8b 45 08	 mov	 eax, DWORD PTR _ptAct$[ebp]
  0022e	66 8b 88 14 01
	00 00		 mov	 cx, WORD PTR [eax+276]
  00235	66 83 c1 01	 add	 cx, 1
  00239	8b 55 08	 mov	 edx, DWORD PTR _ptAct$[ebp]
  0023c	66 89 8a 14 01
	00 00		 mov	 WORD PTR [edx+276], cx

; 447  : 		}

  00243	eb 9f		 jmp	 SHORT $LN2@correctCha
$LN3@correctCha:

; 448  : 	}else{

  00245	eb 31		 jmp	 SHORT $LN1@correctCha
$LN13@correctCha:

; 449  : 	// ???????????????
; 450  : 		ptAct->bufCount = 0;

  00247	33 c0		 xor	 eax, eax
  00249	8b 4d 08	 mov	 ecx, DWORD PTR _ptAct$[ebp]
  0024c	66 89 81 14 01
	00 00		 mov	 WORD PTR [ecx+276], ax

; 451  : 		nCnt--;

  00253	8b 45 c0	 mov	 eax, DWORD PTR _nCnt$[ebp]
  00256	83 e8 01	 sub	 eax, 1
  00259	89 45 c0	 mov	 DWORD PTR _nCnt$[ebp], eax

; 452  : 		setCharWarpPoint( ptAct, nGx[nCnt], nGy[nCnt] );

  0025c	8b 45 c0	 mov	 eax, DWORD PTR _nCnt$[ebp]
  0025f	8b 4c 85 cc	 mov	 ecx, DWORD PTR _nGy$[ebp+eax*4]
  00263	51		 push	 ecx
  00264	8b 55 c0	 mov	 edx, DWORD PTR _nCnt$[ebp]
  00267	8b 44 95 dc	 mov	 eax, DWORD PTR _nGx$[ebp+edx*4]
  0026b	50		 push	 eax
  0026c	8b 4d 08	 mov	 ecx, DWORD PTR _ptAct$[ebp]
  0026f	51		 push	 ecx
  00270	e8 00 00 00 00	 call	 ?setCharWarpPoint@@YAXPAUaction@@HH@Z ; setCharWarpPoint
  00275	83 c4 0c	 add	 esp, 12			; 0000000cH
$LN1@correctCha:

; 453  : 	}
; 454  : }

  00278	52		 push	 edx
  00279	8b cd		 mov	 ecx, ebp
  0027b	50		 push	 eax
  0027c	8d 15 00 00 00
	00		 lea	 edx, DWORD PTR $LN27@correctCha
  00282	e8 00 00 00 00	 call	 @_RTC_CheckStackVars@8
  00287	58		 pop	 eax
  00288	5a		 pop	 edx
  00289	5f		 pop	 edi
  0028a	5e		 pop	 esi
  0028b	5b		 pop	 ebx
  0028c	81 c4 38 01 00
	00		 add	 esp, 312		; 00000138H
  00292	3b ec		 cmp	 ebp, esp
  00294	e8 00 00 00 00	 call	 __RTC_CheckEsp
  00299	8b e5		 mov	 esp, ebp
  0029b	5d		 pop	 ebp
  0029c	c3		 ret	 0
  0029d	0f 1f 00	 npad	 3
$LN27@correctCha:
  002a0	02 00 00 00	 DD	 2
  002a4	00 00 00 00	 DD	 $LN26@correctCha
$LN26@correctCha:
  002a8	dc ff ff ff	 DD	 -36			; ffffffdcH
  002ac	08 00 00 00	 DD	 8
  002b0	00 00 00 00	 DD	 $LN24@correctCha
  002b4	cc ff ff ff	 DD	 -52			; ffffffccH
  002b8	08 00 00 00	 DD	 8
  002bc	00 00 00 00	 DD	 $LN25@correctCha
$LN25@correctCha:
  002c0	6e		 DB	 110			; 0000006eH
  002c1	47		 DB	 71			; 00000047H
  002c2	79		 DB	 121			; 00000079H
  002c3	00		 DB	 0
$LN24@correctCha:
  002c4	6e		 DB	 110			; 0000006eH
  002c5	47		 DB	 71			; 00000047H
  002c6	78		 DB	 120			; 00000078H
  002c7	00		 DB	 0
?correctCharMovePoint@@YAXPAUaction@@HH@Z ENDP		; correctCharMovePoint
_TEXT	ENDS
; Function compile flags: /Odtp /RTCsu /ZI
; File c:\users\administrator\desktop\????? ??\????? ??\client source code\system\character.cpp
;	COMDAT ?stockCharMovePoint@@YAXPAUaction@@HH@Z
_TEXT	SEGMENT
_ptAct$ = 8						; size = 4
_nextGx$ = 12						; size = 4
_nextGy$ = 16						; size = 4
?stockCharMovePoint@@YAXPAUaction@@HH@Z PROC		; stockCharMovePoint, COMDAT

; 387  : {

  00000	55		 push	 ebp
  00001	8b ec		 mov	 ebp, esp
  00003	81 ec c0 00 00
	00		 sub	 esp, 192		; 000000c0H
  00009	53		 push	 ebx
  0000a	56		 push	 esi
  0000b	57		 push	 edi
  0000c	8d bd 40 ff ff
	ff		 lea	 edi, DWORD PTR [ebp-192]
  00012	b9 30 00 00 00	 mov	 ecx, 48			; 00000030H
  00017	b8 cc cc cc cc	 mov	 eax, -858993460		; ccccccccH
  0001c	f3 ab		 rep stosd

; 388  : 	if( ptAct == NULL )

  0001e	83 7d 08 00	 cmp	 DWORD PTR _ptAct$[ebp], 0
  00022	75 02		 jne	 SHORT $LN2@stockCharM

; 389  : 		return;

  00024	eb 77		 jmp	 SHORT $LN1@stockCharM
$LN2@stockCharM:

; 390  : 	// ??????????????
; 391  : 	if( ptAct->bufCount < sizeof( ptAct->bufGx )/sizeof( int ) ){

  00026	8b 45 08	 mov	 eax, DWORD PTR _ptAct$[ebp]
  00029	0f bf 88 14 01
	00 00		 movsx	 ecx, WORD PTR [eax+276]
  00030	83 f9 0a	 cmp	 ecx, 10			; 0000000aH
  00033	73 48		 jae	 SHORT $LN3@stockCharM

; 392  : 		ptAct->bufGx[ptAct->bufCount] = nextGx;

  00035	8b 45 08	 mov	 eax, DWORD PTR _ptAct$[ebp]
  00038	0f bf 88 14 01
	00 00		 movsx	 ecx, WORD PTR [eax+276]
  0003f	8b 55 08	 mov	 edx, DWORD PTR _ptAct$[ebp]
  00042	8b 45 0c	 mov	 eax, DWORD PTR _nextGx$[ebp]
  00045	89 84 8a c4 00
	00 00		 mov	 DWORD PTR [edx+ecx*4+196], eax

; 393  : 		ptAct->bufGy[ptAct->bufCount] = nextGy;

  0004c	8b 45 08	 mov	 eax, DWORD PTR _ptAct$[ebp]
  0004f	0f bf 88 14 01
	00 00		 movsx	 ecx, WORD PTR [eax+276]
  00056	8b 55 08	 mov	 edx, DWORD PTR _ptAct$[ebp]
  00059	8b 45 10	 mov	 eax, DWORD PTR _nextGy$[ebp]
  0005c	89 84 8a ec 00
	00 00		 mov	 DWORD PTR [edx+ecx*4+236], eax

; 394  : 		ptAct->bufCount++;

  00063	8b 45 08	 mov	 eax, DWORD PTR _ptAct$[ebp]
  00066	66 8b 88 14 01
	00 00		 mov	 cx, WORD PTR [eax+276]
  0006d	66 83 c1 01	 add	 cx, 1
  00071	8b 55 08	 mov	 edx, DWORD PTR _ptAct$[ebp]
  00074	66 89 8a 14 01
	00 00		 mov	 WORD PTR [edx+276], cx

; 395  : 	}else{

  0007b	eb 20		 jmp	 SHORT $LN1@stockCharM
$LN3@stockCharM:

; 396  : 	// ???????????????
; 397  : 		ptAct->bufCount = 0;

  0007d	33 c0		 xor	 eax, eax
  0007f	8b 4d 08	 mov	 ecx, DWORD PTR _ptAct$[ebp]
  00082	66 89 81 14 01
	00 00		 mov	 WORD PTR [ecx+276], ax

; 398  : 		setCharWarpPoint( ptAct, nextGx, nextGy );

  00089	8b 45 10	 mov	 eax, DWORD PTR _nextGy$[ebp]
  0008c	50		 push	 eax
  0008d	8b 4d 0c	 mov	 ecx, DWORD PTR _nextGx$[ebp]
  00090	51		 push	 ecx
  00091	8b 55 08	 mov	 edx, DWORD PTR _ptAct$[ebp]
  00094	52		 push	 edx
  00095	e8 00 00 00 00	 call	 ?setCharWarpPoint@@YAXPAUaction@@HH@Z ; setCharWarpPoint
  0009a	83 c4 0c	 add	 esp, 12			; 0000000cH
$LN1@stockCharM:

; 399  : 	}
; 400  : }

  0009d	5f		 pop	 edi
  0009e	5e		 pop	 esi
  0009f	5b		 pop	 ebx
  000a0	81 c4 c0 00 00
	00		 add	 esp, 192		; 000000c0H
  000a6	3b ec		 cmp	 ebp, esp
  000a8	e8 00 00 00 00	 call	 __RTC_CheckEsp
  000ad	8b e5		 mov	 esp, ebp
  000af	5d		 pop	 ebp
  000b0	c3		 ret	 0
?stockCharMovePoint@@YAXPAUaction@@HH@Z ENDP		; stockCharMovePoint
_TEXT	ENDS
; Function compile flags: /Odtp /RTCsu /ZI
; File c:\users\administrator\desktop\????? ??\????? ??\client source code\system\character.cpp
;	COMDAT ?createWaterAnimation@@YAPAUaction@@HHHH@Z
_TEXT	SEGMENT
_my$ = -32						; size = 4
_mx$ = -20						; size = 4
_ptAct$ = -8						; size = 4
_graNo$ = 8						; size = 4
_gx$ = 12						; size = 4
_gy$ = 16						; size = 4
_dispprio$ = 20						; size = 4
?createWaterAnimation@@YAPAUaction@@HHHH@Z PROC		; createWaterAnimation, COMDAT

; 311  : {

  00000	55		 push	 ebp
  00001	8b ec		 mov	 ebp, esp
  00003	81 ec e4 00 00
	00		 sub	 esp, 228		; 000000e4H
  00009	53		 push	 ebx
  0000a	56		 push	 esi
  0000b	57		 push	 edi
  0000c	8d bd 1c ff ff
	ff		 lea	 edi, DWORD PTR [ebp-228]
  00012	b9 39 00 00 00	 mov	 ecx, 57			; 00000039H
  00017	b8 cc cc cc cc	 mov	 eax, -858993460		; ccccccccH
  0001c	f3 ab		 rep stosd

; 312  : 
; 313  : 	ACTION *ptAct;
; 314  : 	float mx, my;
; 315  : 	ptAct = GetAction( DISP_PRIO_BOX3, sizeof( CHAREXTRA ) );

  0001e	6a 34		 push	 52			; 00000034H
  00020	6a 6f		 push	 111			; 0000006fH
  00022	e8 00 00 00 00	 call	 ?GetAction@@YAPAUaction@@EI@Z ; GetAction
  00027	83 c4 08	 add	 esp, 8
  0002a	89 45 f8	 mov	 DWORD PTR _ptAct$[ebp], eax

; 316  : //	ptAct = GetAction( PRIO_JIKI, NULL );
; 317  : 	if( ptAct == NULL )	return NULL;

  0002d	83 7d f8 00	 cmp	 DWORD PTR _ptAct$[ebp], 0
  00031	75 07		 jne	 SHORT $LN2@createWate
  00033	33 c0		 xor	 eax, eax
  00035	e9 49 01 00 00	 jmp	 $LN1@createWate
$LN2@createWate:

; 318  : 	ptAct->func = waterAniProc;

  0003a	8b 45 f8	 mov	 eax, DWORD PTR _ptAct$[ebp]
  0003d	c7 40 08 00 00
	00 00		 mov	 DWORD PTR [eax+8], OFFSET ?waterAniProc@@YAXPAUaction@@@Z ; waterAniProc

; 319  : 	ptAct->anim_chr_no = graNo;

  00044	8b 45 f8	 mov	 eax, DWORD PTR _ptAct$[ebp]
  00047	8b 4d 08	 mov	 ecx, DWORD PTR _graNo$[ebp]
  0004a	89 88 44 01 00
	00		 mov	 DWORD PTR [eax+324], ecx

; 320  : 	ptAct->anim_no = ANIM_STAND;

  00050	8b 45 f8	 mov	 eax, DWORD PTR _ptAct$[ebp]
  00053	c7 80 4c 01 00
	00 03 00 00 00	 mov	 DWORD PTR [eax+332], 3

; 321  : 	ptAct->anim_ang = 1;

  0005d	8b 45 f8	 mov	 eax, DWORD PTR _ptAct$[ebp]
  00060	c7 80 54 01 00
	00 01 00 00 00	 mov	 DWORD PTR [eax+340], 1

; 322  : 	ptAct->dispPrio = dispprio;

  0006a	8b 45 f8	 mov	 eax, DWORD PTR _ptAct$[ebp]
  0006d	8a 4d 14	 mov	 cl, BYTE PTR _dispprio$[ebp]
  00070	88 48 15	 mov	 BYTE PTR [eax+21], cl

; 323  : 	ptAct->atr |= ACT_ATR_HIT;

  00073	8b 45 f8	 mov	 eax, DWORD PTR _ptAct$[ebp]
  00076	8b 88 a4 00 00
	00		 mov	 ecx, DWORD PTR [eax+164]
  0007c	83 c9 04	 or	 ecx, 4
  0007f	8b 55 f8	 mov	 edx, DWORD PTR _ptAct$[ebp]
  00082	89 8a a4 00 00
	00		 mov	 DWORD PTR [edx+164], ecx

; 324  : 	ptAct->nextGx = gx;	

  00088	8b 45 f8	 mov	 eax, DWORD PTR _ptAct$[ebp]
  0008b	8b 4d 0c	 mov	 ecx, DWORD PTR _gx$[ebp]
  0008e	89 88 bc 00 00
	00		 mov	 DWORD PTR [eax+188], ecx

; 325  : 	ptAct->nextGy = gy;

  00094	8b 45 f8	 mov	 eax, DWORD PTR _ptAct$[ebp]
  00097	8b 4d 10	 mov	 ecx, DWORD PTR _gy$[ebp]
  0009a	89 88 c0 00 00
	00		 mov	 DWORD PTR [eax+192], ecx

; 326  : 	ptAct->bufCount = 0;

  000a0	33 c0		 xor	 eax, eax
  000a2	8b 4d f8	 mov	 ecx, DWORD PTR _ptAct$[ebp]
  000a5	66 89 81 14 01
	00 00		 mov	 WORD PTR [ecx+276], ax

; 327  : 	ptAct->gx = gx;

  000ac	8b 45 f8	 mov	 eax, DWORD PTR _ptAct$[ebp]
  000af	8b 4d 0c	 mov	 ecx, DWORD PTR _gx$[ebp]
  000b2	89 88 b4 00 00
	00		 mov	 DWORD PTR [eax+180], ecx

; 328  : 	ptAct->gy = gy;

  000b8	8b 45 f8	 mov	 eax, DWORD PTR _ptAct$[ebp]
  000bb	8b 4d 10	 mov	 ecx, DWORD PTR _gy$[ebp]
  000be	89 88 b8 00 00
	00		 mov	 DWORD PTR [eax+184], ecx

; 329  : 	ptAct->mx = (float)gx * GRID_SIZE;	

  000c4	f3 0f 2a 45 0c	 cvtsi2ss xmm0, DWORD PTR _gx$[ebp]
  000c9	f3 0f 59 05 00
	00 00 00	 mulss	 xmm0, DWORD PTR __real@42800000
  000d1	8b 45 f8	 mov	 eax, DWORD PTR _ptAct$[ebp]
  000d4	f3 0f 11 80 18
	01 00 00	 movss	 DWORD PTR [eax+280], xmm0

; 330  : 	ptAct->my = (float)gy * GRID_SIZE;

  000dc	f3 0f 2a 45 10	 cvtsi2ss xmm0, DWORD PTR _gy$[ebp]
  000e1	f3 0f 59 05 00
	00 00 00	 mulss	 xmm0, DWORD PTR __real@42800000
  000e9	8b 45 f8	 mov	 eax, DWORD PTR _ptAct$[ebp]
  000ec	f3 0f 11 80 1c
	01 00 00	 movss	 DWORD PTR [eax+284], xmm0

; 331  : 	ptAct->vx = 0;			

  000f4	8b 45 f8	 mov	 eax, DWORD PTR _ptAct$[ebp]
  000f7	0f 57 c0	 xorps	 xmm0, xmm0
  000fa	f3 0f 11 80 20
	01 00 00	 movss	 DWORD PTR [eax+288], xmm0

; 332  : 	ptAct->vy = 0;

  00102	8b 45 f8	 mov	 eax, DWORD PTR _ptAct$[ebp]
  00105	0f 57 c0	 xorps	 xmm0, xmm0
  00108	f3 0f 11 80 24
	01 00 00	 movss	 DWORD PTR [eax+292], xmm0

; 333  : 	camMapToGamen( ptAct->mx, ptAct->my, &mx, &my );

  00110	8d 45 e0	 lea	 eax, DWORD PTR _my$[ebp]
  00113	50		 push	 eax
  00114	8d 4d ec	 lea	 ecx, DWORD PTR _mx$[ebp]
  00117	51		 push	 ecx
  00118	8b 55 f8	 mov	 edx, DWORD PTR _ptAct$[ebp]
  0011b	51		 push	 ecx
  0011c	f3 0f 10 82 1c
	01 00 00	 movss	 xmm0, DWORD PTR [edx+284]
  00124	f3 0f 11 04 24	 movss	 DWORD PTR [esp], xmm0
  00129	8b 45 f8	 mov	 eax, DWORD PTR _ptAct$[ebp]
  0012c	51		 push	 ecx
  0012d	f3 0f 10 80 18
	01 00 00	 movss	 xmm0, DWORD PTR [eax+280]
  00135	f3 0f 11 04 24	 movss	 DWORD PTR [esp], xmm0
  0013a	e8 00 00 00 00	 call	 ?camMapToGamen@@YAXMMPAM0@Z ; camMapToGamen
  0013f	83 c4 10	 add	 esp, 16			; 00000010H

; 334  : 	ptAct->x = (int)(mx+.5);

  00142	f3 0f 5a 45 ec	 cvtss2sd xmm0, DWORD PTR _mx$[ebp]
  00147	f2 0f 58 05 00
	00 00 00	 addsd	 xmm0, QWORD PTR __real@3fe0000000000000
  0014f	f2 0f 2c c0	 cvttsd2si eax, xmm0
  00153	8b 4d f8	 mov	 ecx, DWORD PTR _ptAct$[ebp]
  00156	89 41 18	 mov	 DWORD PTR [ecx+24], eax

; 335  : 	ptAct->y = (int)(my+.5);

  00159	f3 0f 5a 45 e0	 cvtss2sd xmm0, DWORD PTR _my$[ebp]
  0015e	f2 0f 58 05 00
	00 00 00	 addsd	 xmm0, QWORD PTR __real@3fe0000000000000
  00166	f2 0f 2c c0	 cvttsd2si eax, xmm0
  0016a	8b 4d f8	 mov	 ecx, DWORD PTR _ptAct$[ebp]
  0016d	89 41 1c	 mov	 DWORD PTR [ecx+28], eax

; 336  : 	pattern( ptAct, ANM_NOMAL_SPD, ANM_NO_LOOP );

  00170	6a 01		 push	 1
  00172	6a 00		 push	 0
  00174	8b 45 f8	 mov	 eax, DWORD PTR _ptAct$[ebp]
  00177	50		 push	 eax
  00178	e8 00 00 00 00	 call	 ?pattern@@YAHPAUaction@@HH@Z ; pattern
  0017d	83 c4 0c	 add	 esp, 12			; 0000000cH

; 337  : 	return ptAct;

  00180	8b 45 f8	 mov	 eax, DWORD PTR _ptAct$[ebp]
$LN1@createWate:

; 338  : }

  00183	52		 push	 edx
  00184	8b cd		 mov	 ecx, ebp
  00186	50		 push	 eax
  00187	8d 15 00 00 00
	00		 lea	 edx, DWORD PTR $LN7@createWate
  0018d	e8 00 00 00 00	 call	 @_RTC_CheckStackVars@8
  00192	58		 pop	 eax
  00193	5a		 pop	 edx
  00194	5f		 pop	 edi
  00195	5e		 pop	 esi
  00196	5b		 pop	 ebx
  00197	81 c4 e4 00 00
	00		 add	 esp, 228		; 000000e4H
  0019d	3b ec		 cmp	 ebp, esp
  0019f	e8 00 00 00 00	 call	 __RTC_CheckEsp
  001a4	8b e5		 mov	 esp, ebp
  001a6	5d		 pop	 ebp
  001a7	c3		 ret	 0
$LN7@createWate:
  001a8	02 00 00 00	 DD	 2
  001ac	00 00 00 00	 DD	 $LN6@createWate
$LN6@createWate:
  001b0	ec ff ff ff	 DD	 -20			; ffffffecH
  001b4	04 00 00 00	 DD	 4
  001b8	00 00 00 00	 DD	 $LN4@createWate
  001bc	e0 ff ff ff	 DD	 -32			; ffffffe0H
  001c0	04 00 00 00	 DD	 4
  001c4	00 00 00 00	 DD	 $LN5@createWate
$LN5@createWate:
  001c8	6d		 DB	 109			; 0000006dH
  001c9	79		 DB	 121			; 00000079H
  001ca	00		 DB	 0
$LN4@createWate:
  001cb	6d		 DB	 109			; 0000006dH
  001cc	78		 DB	 120			; 00000078H
  001cd	00		 DB	 0
?createWaterAnimation@@YAPAUaction@@HHHH@Z ENDP		; createWaterAnimation
_TEXT	ENDS
; Function compile flags: /Odtp /RTCsu /ZI
; File c:\users\administrator\desktop\????? ??\????? ??\client source code\system\character.cpp
;	COMDAT ?createCharAction@@YAPAUaction@@HHHH@Z
_TEXT	SEGMENT
_my$ = -32						; size = 4
_mx$ = -20						; size = 4
_ptAct$ = -8						; size = 4
_graNo$ = 8						; size = 4
_gx$ = 12						; size = 4
_gy$ = 16						; size = 4
_dir$ = 20						; size = 4
?createCharAction@@YAPAUaction@@HHHH@Z PROC		; createCharAction, COMDAT

; 343  : {

  00000	55		 push	 ebp
  00001	8b ec		 mov	 ebp, esp
  00003	81 ec e4 00 00
	00		 sub	 esp, 228		; 000000e4H
  00009	53		 push	 ebx
  0000a	56		 push	 esi
  0000b	57		 push	 edi
  0000c	8d bd 1c ff ff
	ff		 lea	 edi, DWORD PTR [ebp-228]
  00012	b9 39 00 00 00	 mov	 ecx, 57			; 00000039H
  00017	b8 cc cc cc cc	 mov	 eax, -858993460		; ccccccccH
  0001c	f3 ab		 rep stosd

; 344  : 	ACTION *ptAct;
; 345  : 	float mx, my;
; 346  : 	/* ?????????K? */
; 347  : 	ptAct = GetAction( PRIO_CHR, sizeof( CHAREXTRA ) );

  0001e	6a 34		 push	 52			; 00000034H
  00020	6a 01		 push	 1
  00022	e8 00 00 00 00	 call	 ?GetAction@@YAPAUaction@@EI@Z ; GetAction
  00027	83 c4 08	 add	 esp, 8
  0002a	89 45 f8	 mov	 DWORD PTR _ptAct$[ebp], eax

; 348  : 	if( ptAct == NULL )

  0002d	83 7d f8 00	 cmp	 DWORD PTR _ptAct$[ebp], 0
  00031	75 07		 jne	 SHORT $LN2@createChar

; 349  : 		return NULL;

  00033	33 c0		 xor	 eax, eax
  00035	e9 48 01 00 00	 jmp	 $LN1@createChar
$LN2@createChar:

; 350  : 	// ???
; 351  : 	ptAct->func = charProc;

  0003a	8b 45 f8	 mov	 eax, DWORD PTR _ptAct$[ebp]
  0003d	c7 40 08 00 00
	00 00		 mov	 DWORD PTR [eax+8], OFFSET ?charProc@@YAXPAUaction@@@Z ; charProc

; 352  : 	// ???????k?
; 353  : 	ptAct->anim_chr_no = graNo;

  00044	8b 45 f8	 mov	 eax, DWORD PTR _ptAct$[ebp]
  00047	8b 4d 08	 mov	 ecx, DWORD PTR _graNo$[ebp]
  0004a	89 88 44 01 00
	00		 mov	 DWORD PTR [eax+324], ecx

; 354  : 	// h?k?
; 355  : 	ptAct->anim_no = ANIM_STAND;

  00050	8b 45 f8	 mov	 eax, DWORD PTR _ptAct$[ebp]
  00053	c7 80 4c 01 00
	00 03 00 00 00	 mov	 DWORD PTR [eax+332], 3

; 356  : 	// ?????????( ??? )( ??????? )
; 357  : 	ptAct->anim_ang = dir;

  0005d	8b 45 f8	 mov	 eax, DWORD PTR _ptAct$[ebp]
  00060	8b 4d 14	 mov	 ecx, DWORD PTR _dir$[ebp]
  00063	89 88 54 01 00
	00		 mov	 DWORD PTR [eax+340], ecx

; 358  : 	// ?IT
; 359  : //	ptAct->dispPrio =	DISP_PRIO_BOX3;
; 360  : 	ptAct->dispPrio = DISP_PRIO_CHAR;

  00069	8b 45 f8	 mov	 eax, DWORD PTR _ptAct$[ebp]
  0006c	c6 40 15 0a	 mov	 BYTE PTR [eax+21], 10	; 0000000aH

; 361  : 	// 1????????
; 362  : 	ptAct->atr = ACT_ATR_INFO |	ACT_ATR_HIT | ACT_ATR_HIDE2;

  00070	8b 45 f8	 mov	 eax, DWORD PTR _ptAct$[ebp]
  00073	c7 80 a4 00 00
	00 34 00 00 00	 mov	 DWORD PTR [eax+164], 52	; 00000034H

; 363  : 	// ???t
; 364  : 	ptAct->nextGx = gx;					// ??????????hI?

  0007d	8b 45 f8	 mov	 eax, DWORD PTR _ptAct$[ebp]
  00080	8b 4d 0c	 mov	 ecx, DWORD PTR _gx$[ebp]
  00083	89 88 bc 00 00
	00		 mov	 DWORD PTR [eax+188], ecx

; 365  : 	ptAct->nextGy = gy;

  00089	8b 45 f8	 mov	 eax, DWORD PTR _ptAct$[ebp]
  0008c	8b 4d 10	 mov	 ecx, DWORD PTR _gy$[ebp]
  0008f	89 88 c0 00 00
	00		 mov	 DWORD PTR [eax+192], ecx

; 366  : 	ptAct->bufCount = 0;

  00095	33 c0		 xor	 eax, eax
  00097	8b 4d f8	 mov	 ecx, DWORD PTR _ptAct$[ebp]
  0009a	66 89 81 14 01
	00 00		 mov	 WORD PTR [ecx+276], ax

; 367  : 	ptAct->gx = gx;						// ????????????

  000a1	8b 45 f8	 mov	 eax, DWORD PTR _ptAct$[ebp]
  000a4	8b 4d 0c	 mov	 ecx, DWORD PTR _gx$[ebp]
  000a7	89 88 b4 00 00
	00		 mov	 DWORD PTR [eax+180], ecx

; 368  : 	ptAct->gy = gy;

  000ad	8b 45 f8	 mov	 eax, DWORD PTR _ptAct$[ebp]
  000b0	8b 4d 10	 mov	 ecx, DWORD PTR _gy$[ebp]
  000b3	89 88 b8 00 00
	00		 mov	 DWORD PTR [eax+184], ecx

; 369  : 	ptAct->mx = (float)gx * GRID_SIZE;	// ????

  000b9	f3 0f 2a 45 0c	 cvtsi2ss xmm0, DWORD PTR _gx$[ebp]
  000be	f3 0f 59 05 00
	00 00 00	 mulss	 xmm0, DWORD PTR __real@42800000
  000c6	8b 45 f8	 mov	 eax, DWORD PTR _ptAct$[ebp]
  000c9	f3 0f 11 80 18
	01 00 00	 movss	 DWORD PTR [eax+280], xmm0

; 370  : 	ptAct->my = (float)gy * GRID_SIZE;

  000d1	f3 0f 2a 45 10	 cvtsi2ss xmm0, DWORD PTR _gy$[ebp]
  000d6	f3 0f 59 05 00
	00 00 00	 mulss	 xmm0, DWORD PTR __real@42800000
  000de	8b 45 f8	 mov	 eax, DWORD PTR _ptAct$[ebp]
  000e1	f3 0f 11 80 1c
	01 00 00	 movss	 DWORD PTR [eax+284], xmm0

; 371  : 	ptAct->vx = 0;						// ?h?

  000e9	8b 45 f8	 mov	 eax, DWORD PTR _ptAct$[ebp]
  000ec	0f 57 c0	 xorps	 xmm0, xmm0
  000ef	f3 0f 11 80 20
	01 00 00	 movss	 DWORD PTR [eax+288], xmm0

; 372  : 	ptAct->vy = 0;

  000f7	8b 45 f8	 mov	 eax, DWORD PTR _ptAct$[ebp]
  000fa	0f 57 c0	 xorps	 xmm0, xmm0
  000fd	f3 0f 11 80 24
	01 00 00	 movss	 DWORD PTR [eax+292], xmm0

; 373  : 	// ??t
; 374  : 	camMapToGamen( ptAct->mx, ptAct->my, &mx, &my );

  00105	8d 45 e0	 lea	 eax, DWORD PTR _my$[ebp]
  00108	50		 push	 eax
  00109	8d 4d ec	 lea	 ecx, DWORD PTR _mx$[ebp]
  0010c	51		 push	 ecx
  0010d	8b 55 f8	 mov	 edx, DWORD PTR _ptAct$[ebp]
  00110	51		 push	 ecx
  00111	f3 0f 10 82 1c
	01 00 00	 movss	 xmm0, DWORD PTR [edx+284]
  00119	f3 0f 11 04 24	 movss	 DWORD PTR [esp], xmm0
  0011e	8b 45 f8	 mov	 eax, DWORD PTR _ptAct$[ebp]
  00121	51		 push	 ecx
  00122	f3 0f 10 80 18
	01 00 00	 movss	 xmm0, DWORD PTR [eax+280]
  0012a	f3 0f 11 04 24	 movss	 DWORD PTR [esp], xmm0
  0012f	e8 00 00 00 00	 call	 ?camMapToGamen@@YAXMMPAM0@Z ; camMapToGamen
  00134	83 c4 10	 add	 esp, 16			; 00000010H

; 375  : 	ptAct->x = (int)(mx+.5);

  00137	f3 0f 5a 45 ec	 cvtss2sd xmm0, DWORD PTR _mx$[ebp]
  0013c	f2 0f 58 05 00
	00 00 00	 addsd	 xmm0, QWORD PTR __real@3fe0000000000000
  00144	f2 0f 2c c0	 cvttsd2si eax, xmm0
  00148	8b 4d f8	 mov	 ecx, DWORD PTR _ptAct$[ebp]
  0014b	89 41 18	 mov	 DWORD PTR [ecx+24], eax

; 376  : 	ptAct->y = (int)(my+.5);

  0014e	f3 0f 5a 45 e0	 cvtss2sd xmm0, DWORD PTR _my$[ebp]
  00153	f2 0f 58 05 00
	00 00 00	 addsd	 xmm0, QWORD PTR __real@3fe0000000000000
  0015b	f2 0f 2c c0	 cvttsd2si eax, xmm0
  0015f	8b 4d f8	 mov	 ecx, DWORD PTR _ptAct$[ebp]
  00162	89 41 1c	 mov	 DWORD PTR [ecx+28], eax

; 377  : //#ifdef 人物光环
; 378  : //#ifdef 人物称号
; 379  : 
; 380  : 	ptAct->称号图档编号 = 0;

  00165	8b 45 f8	 mov	 eax, DWORD PTR _ptAct$[ebp]
  00168	c7 80 c8 01 00
	00 00 00 00 00	 mov	 DWORD PTR [eax+456], 0

; 381  : 	ptAct->光环图档编号 = 0;

  00172	8b 45 f8	 mov	 eax, DWORD PTR _ptAct$[ebp]
  00175	c7 80 c4 01 00
	00 00 00 00 00	 mov	 DWORD PTR [eax+452], 0

; 382  : 	return ptAct;

  0017f	8b 45 f8	 mov	 eax, DWORD PTR _ptAct$[ebp]
$LN1@createChar:

; 383  : }

  00182	52		 push	 edx
  00183	8b cd		 mov	 ecx, ebp
  00185	50		 push	 eax
  00186	8d 15 00 00 00
	00		 lea	 edx, DWORD PTR $LN7@createChar
  0018c	e8 00 00 00 00	 call	 @_RTC_CheckStackVars@8
  00191	58		 pop	 eax
  00192	5a		 pop	 edx
  00193	5f		 pop	 edi
  00194	5e		 pop	 esi
  00195	5b		 pop	 ebx
  00196	81 c4 e4 00 00
	00		 add	 esp, 228		; 000000e4H
  0019c	3b ec		 cmp	 ebp, esp
  0019e	e8 00 00 00 00	 call	 __RTC_CheckEsp
  001a3	8b e5		 mov	 esp, ebp
  001a5	5d		 pop	 ebp
  001a6	c3		 ret	 0
  001a7	90		 npad	 1
$LN7@createChar:
  001a8	02 00 00 00	 DD	 2
  001ac	00 00 00 00	 DD	 $LN6@createChar
$LN6@createChar:
  001b0	ec ff ff ff	 DD	 -20			; ffffffecH
  001b4	04 00 00 00	 DD	 4
  001b8	00 00 00 00	 DD	 $LN4@createChar
  001bc	e0 ff ff ff	 DD	 -32			; ffffffe0H
  001c0	04 00 00 00	 DD	 4
  001c4	00 00 00 00	 DD	 $LN5@createChar
$LN5@createChar:
  001c8	6d		 DB	 109			; 0000006dH
  001c9	79		 DB	 121			; 00000079H
  001ca	00		 DB	 0
$LN4@createChar:
  001cb	6d		 DB	 109			; 0000006dH
  001cc	78		 DB	 120			; 00000078H
  001cd	00		 DB	 0
?createCharAction@@YAPAUaction@@HHHH@Z ENDP		; createCharAction
_TEXT	ENDS
; Function compile flags: /Odtp /RTCsu /ZI
; File c:\users\administrator\desktop\????? ??\????? ??\client source code\system\character.cpp
;	COMDAT ?shiftBufCount@@YAXPAUaction@@@Z
_TEXT	SEGMENT
_i$ = -8						; size = 4
_ptAct$ = 8						; size = 4
?shiftBufCount@@YAXPAUaction@@@Z PROC			; shiftBufCount, COMDAT

; 528  : {

  00000	55		 push	 ebp
  00001	8b ec		 mov	 ebp, esp
  00003	81 ec cc 00 00
	00		 sub	 esp, 204		; 000000ccH
  00009	53		 push	 ebx
  0000a	56		 push	 esi
  0000b	57		 push	 edi
  0000c	8d bd 34 ff ff
	ff		 lea	 edi, DWORD PTR [ebp-204]
  00012	b9 33 00 00 00	 mov	 ecx, 51			; 00000033H
  00017	b8 cc cc cc cc	 mov	 eax, -858993460		; ccccccccH
  0001c	f3 ab		 rep stosd

; 529  : 	int i;
; 530  : 	if( ptAct == NULL )

  0001e	83 7d 08 00	 cmp	 DWORD PTR _ptAct$[ebp], 0
  00022	75 02		 jne	 SHORT $LN5@shiftBufCo

; 531  : 		return;

  00024	eb 7d		 jmp	 SHORT $LN1@shiftBufCo
$LN5@shiftBufCo:

; 532  : 	if( ptAct->bufCount > 0 )

  00026	8b 45 08	 mov	 eax, DWORD PTR _ptAct$[ebp]
  00029	0f bf 88 14 01
	00 00		 movsx	 ecx, WORD PTR [eax+276]
  00030	85 c9		 test	 ecx, ecx
  00032	7e 18		 jle	 SHORT $LN6@shiftBufCo

; 533  : 		ptAct->bufCount--;

  00034	8b 45 08	 mov	 eax, DWORD PTR _ptAct$[ebp]
  00037	66 8b 88 14 01
	00 00		 mov	 cx, WORD PTR [eax+276]
  0003e	66 83 e9 01	 sub	 cx, 1
  00042	8b 55 08	 mov	 edx, DWORD PTR _ptAct$[ebp]
  00045	66 89 8a 14 01
	00 00		 mov	 WORD PTR [edx+276], cx
$LN6@shiftBufCo:

; 534  : 	for( i = 0; i < ptAct->bufCount; i++ ){

  0004c	c7 45 f8 00 00
	00 00		 mov	 DWORD PTR _i$[ebp], 0
  00053	eb 09		 jmp	 SHORT $LN4@shiftBufCo
$LN2@shiftBufCo:
  00055	8b 45 f8	 mov	 eax, DWORD PTR _i$[ebp]
  00058	83 c0 01	 add	 eax, 1
  0005b	89 45 f8	 mov	 DWORD PTR _i$[ebp], eax
$LN4@shiftBufCo:
  0005e	8b 45 08	 mov	 eax, DWORD PTR _ptAct$[ebp]
  00061	0f bf 88 14 01
	00 00		 movsx	 ecx, WORD PTR [eax+276]
  00068	39 4d f8	 cmp	 DWORD PTR _i$[ebp], ecx
  0006b	7d 36		 jge	 SHORT $LN1@shiftBufCo

; 535  : 		ptAct->bufGx[i] = ptAct->bufGx[i+1];

  0006d	8b 45 f8	 mov	 eax, DWORD PTR _i$[ebp]
  00070	8b 4d 08	 mov	 ecx, DWORD PTR _ptAct$[ebp]
  00073	8b 55 f8	 mov	 edx, DWORD PTR _i$[ebp]
  00076	8b 75 08	 mov	 esi, DWORD PTR _ptAct$[ebp]
  00079	8b 94 96 c8 00
	00 00		 mov	 edx, DWORD PTR [esi+edx*4+200]
  00080	89 94 81 c4 00
	00 00		 mov	 DWORD PTR [ecx+eax*4+196], edx

; 536  : 		ptAct->bufGy[i] = ptAct->bufGy[i+1];

  00087	8b 45 f8	 mov	 eax, DWORD PTR _i$[ebp]
  0008a	8b 4d 08	 mov	 ecx, DWORD PTR _ptAct$[ebp]
  0008d	8b 55 f8	 mov	 edx, DWORD PTR _i$[ebp]
  00090	8b 75 08	 mov	 esi, DWORD PTR _ptAct$[ebp]
  00093	8b 94 96 f0 00
	00 00		 mov	 edx, DWORD PTR [esi+edx*4+240]
  0009a	89 94 81 ec 00
	00 00		 mov	 DWORD PTR [ecx+eax*4+236], edx

; 537  : 	}

  000a1	eb b2		 jmp	 SHORT $LN2@shiftBufCo
$LN1@shiftBufCo:

; 538  : }

  000a3	5f		 pop	 edi
  000a4	5e		 pop	 esi
  000a5	5b		 pop	 ebx
  000a6	8b e5		 mov	 esp, ebp
  000a8	5d		 pop	 ebp
  000a9	c3		 ret	 0
?shiftBufCount@@YAXPAUaction@@@Z ENDP			; shiftBufCount
_TEXT	ENDS
; Function compile flags: /Odtp /RTCsu /ZI
; File c:\users\administrator\desktop\????? ??\????? ??\client source code\system\character.cpp
;	COMDAT ?_charMove@@YAXPAUaction@@@Z
_TEXT	SEGMENT
tv175 = -244						; size = 4
_vy$ = -44						; size = 4
_vx$ = -32						; size = 4
_my$ = -20						; size = 4
_mx$ = -8						; size = 4
_ptAct$ = 8						; size = 4
?_charMove@@YAXPAUaction@@@Z PROC			; _charMove, COMDAT

; 620  : {

  00000	55		 push	 ebp
  00001	8b ec		 mov	 ebp, esp
  00003	81 ec f4 00 00
	00		 sub	 esp, 244		; 000000f4H
  00009	53		 push	 ebx
  0000a	56		 push	 esi
  0000b	57		 push	 edi
  0000c	8d bd 0c ff ff
	ff		 lea	 edi, DWORD PTR [ebp-244]
  00012	b9 3d 00 00 00	 mov	 ecx, 61			; 0000003dH
  00017	b8 cc cc cc cc	 mov	 eax, -858993460		; ccccccccH
  0001c	f3 ab		 rep stosd

; 621  : 	float mx, my;
; 622  : 	float vx, vy;
; 623  : 	if( ptAct == NULL )

  0001e	83 7d 08 00	 cmp	 DWORD PTR _ptAct$[ebp], 0
  00022	75 05		 jne	 SHORT $LN2@charMove

; 624  : 		return;

  00024	e9 e5 01 00 00	 jmp	 $LN1@charMove
$LN2@charMove:

; 625  : 	mx = (float)ptAct->nextGx*GRID_SIZE;

  00029	8b 45 08	 mov	 eax, DWORD PTR _ptAct$[ebp]
  0002c	f3 0f 2a 80 bc
	00 00 00	 cvtsi2ss xmm0, DWORD PTR [eax+188]
  00034	f3 0f 59 05 00
	00 00 00	 mulss	 xmm0, DWORD PTR __real@42800000
  0003c	f3 0f 11 45 f8	 movss	 DWORD PTR _mx$[ebp], xmm0

; 626  : 	my = (float)ptAct->nextGy*GRID_SIZE;

  00041	8b 45 08	 mov	 eax, DWORD PTR _ptAct$[ebp]
  00044	f3 0f 2a 80 c0
	00 00 00	 cvtsi2ss xmm0, DWORD PTR [eax+192]
  0004c	f3 0f 59 05 00
	00 00 00	 mulss	 xmm0, DWORD PTR __real@42800000
  00054	f3 0f 11 45 ec	 movss	 DWORD PTR _my$[ebp], xmm0

; 627  : 	// ?h???
; 628  : 	if( ptAct->vx != 0 || ptAct->vy != 0 ){

  00059	8b 45 08	 mov	 eax, DWORD PTR _ptAct$[ebp]
  0005c	f3 0f 10 80 20
	01 00 00	 movss	 xmm0, DWORD PTR [eax+288]
  00064	0f 2e 05 00 00
	00 00		 ucomiss xmm0, DWORD PTR __real@00000000
  0006b	9f		 lahf
  0006c	f6 c4 44	 test	 ah, 68			; 00000044H
  0006f	7a 1c		 jp	 SHORT $LN5@charMove
  00071	8b 45 08	 mov	 eax, DWORD PTR _ptAct$[ebp]
  00074	f3 0f 10 80 24
	01 00 00	 movss	 xmm0, DWORD PTR [eax+292]
  0007c	0f 2e 05 00 00
	00 00		 ucomiss xmm0, DWORD PTR __real@00000000
  00083	9f		 lahf
  00084	f6 c4 44	 test	 ah, 68			; 00000044H
  00087	0f 8b 1a 01 00
	00		 jnp	 $LN3@charMove
$LN5@charMove:

; 629  : 		vx = ptAct->vx * nowSpdRate;

  0008d	8b 45 08	 mov	 eax, DWORD PTR _ptAct$[ebp]
  00090	f3 0f 10 80 20
	01 00 00	 movss	 xmm0, DWORD PTR [eax+288]
  00098	f3 0f 59 05 00
	00 00 00	 mulss	 xmm0, DWORD PTR ?nowSpdRate@@3MA
  000a0	f3 0f 11 45 e0	 movss	 DWORD PTR _vx$[ebp], xmm0

; 630  : 		vy = ptAct->vy * nowSpdRate;

  000a5	8b 45 08	 mov	 eax, DWORD PTR _ptAct$[ebp]
  000a8	f3 0f 10 80 24
	01 00 00	 movss	 xmm0, DWORD PTR [eax+292]
  000b0	f3 0f 59 05 00
	00 00 00	 mulss	 xmm0, DWORD PTR ?nowSpdRate@@3MA
  000b8	f3 0f 11 45 d4	 movss	 DWORD PTR _vy$[ebp], xmm0

; 631  : 		// ??????????????
; 632  : 		if( pointLen2( ptAct->mx, ptAct->my, mx, my )
; 633  : 			<= vx*vx+vy*vy ){

  000bd	51		 push	 ecx
  000be	f3 0f 10 45 ec	 movss	 xmm0, DWORD PTR _my$[ebp]
  000c3	f3 0f 11 04 24	 movss	 DWORD PTR [esp], xmm0
  000c8	51		 push	 ecx
  000c9	f3 0f 10 45 f8	 movss	 xmm0, DWORD PTR _mx$[ebp]
  000ce	f3 0f 11 04 24	 movss	 DWORD PTR [esp], xmm0
  000d3	8b 45 08	 mov	 eax, DWORD PTR _ptAct$[ebp]
  000d6	51		 push	 ecx
  000d7	f3 0f 10 80 1c
	01 00 00	 movss	 xmm0, DWORD PTR [eax+284]
  000df	f3 0f 11 04 24	 movss	 DWORD PTR [esp], xmm0
  000e4	8b 4d 08	 mov	 ecx, DWORD PTR _ptAct$[ebp]
  000e7	51		 push	 ecx
  000e8	f3 0f 10 81 18
	01 00 00	 movss	 xmm0, DWORD PTR [ecx+280]
  000f0	f3 0f 11 04 24	 movss	 DWORD PTR [esp], xmm0
  000f5	e8 00 00 00 00	 call	 ?pointLen2@@YAMMMMM@Z	; pointLen2
  000fa	83 c4 10	 add	 esp, 16			; 00000010H
  000fd	d9 9d 0c ff ff
	ff		 fstp	 DWORD PTR tv175[ebp]
  00103	f3 0f 10 45 e0	 movss	 xmm0, DWORD PTR _vx$[ebp]
  00108	f3 0f 59 45 e0	 mulss	 xmm0, DWORD PTR _vx$[ebp]
  0010d	f3 0f 10 4d d4	 movss	 xmm1, DWORD PTR _vy$[ebp]
  00112	f3 0f 59 4d d4	 mulss	 xmm1, DWORD PTR _vy$[ebp]
  00117	f3 0f 58 c1	 addss	 xmm0, xmm1
  0011b	0f 2f 85 0c ff
	ff ff		 comiss	 xmm0, DWORD PTR tv175[ebp]
  00122	72 3e		 jb	 SHORT $LN6@charMove

; 634  : 			ptAct->mx = mx;

  00124	8b 45 08	 mov	 eax, DWORD PTR _ptAct$[ebp]
  00127	f3 0f 10 45 f8	 movss	 xmm0, DWORD PTR _mx$[ebp]
  0012c	f3 0f 11 80 18
	01 00 00	 movss	 DWORD PTR [eax+280], xmm0

; 635  : 			ptAct->my = my;

  00134	8b 45 08	 mov	 eax, DWORD PTR _ptAct$[ebp]
  00137	f3 0f 10 45 ec	 movss	 xmm0, DWORD PTR _my$[ebp]
  0013c	f3 0f 11 80 1c
	01 00 00	 movss	 DWORD PTR [eax+284], xmm0

; 636  : 			ptAct->vx = 0;

  00144	8b 45 08	 mov	 eax, DWORD PTR _ptAct$[ebp]
  00147	0f 57 c0	 xorps	 xmm0, xmm0
  0014a	f3 0f 11 80 20
	01 00 00	 movss	 DWORD PTR [eax+288], xmm0

; 637  : 			ptAct->vy = 0;

  00152	8b 45 08	 mov	 eax, DWORD PTR _ptAct$[ebp]
  00155	0f 57 c0	 xorps	 xmm0, xmm0
  00158	f3 0f 11 80 24
	01 00 00	 movss	 DWORD PTR [eax+292], xmm0

; 638  : 		}else{

  00160	eb 36		 jmp	 SHORT $LN7@charMove
$LN6@charMove:

; 639  : 		// ?h
; 640  : 			ptAct->mx += vx;

  00162	8b 45 08	 mov	 eax, DWORD PTR _ptAct$[ebp]
  00165	f3 0f 10 80 18
	01 00 00	 movss	 xmm0, DWORD PTR [eax+280]
  0016d	f3 0f 58 45 e0	 addss	 xmm0, DWORD PTR _vx$[ebp]
  00172	8b 4d 08	 mov	 ecx, DWORD PTR _ptAct$[ebp]
  00175	f3 0f 11 81 18
	01 00 00	 movss	 DWORD PTR [ecx+280], xmm0

; 641  : 			ptAct->my += vy;

  0017d	8b 45 08	 mov	 eax, DWORD PTR _ptAct$[ebp]
  00180	f3 0f 10 80 1c
	01 00 00	 movss	 xmm0, DWORD PTR [eax+284]
  00188	f3 0f 58 45 d4	 addss	 xmm0, DWORD PTR _vy$[ebp]
  0018d	8b 4d 08	 mov	 ecx, DWORD PTR _ptAct$[ebp]
  00190	f3 0f 11 81 1c
	01 00 00	 movss	 DWORD PTR [ecx+284], xmm0
$LN7@charMove:

; 642  : 		}
; 643  : 		// ?h???
; 644  : 		ptAct->anim_no = ANIM_WALK;

  00198	8b 45 08	 mov	 eax, DWORD PTR _ptAct$[ebp]
  0019b	c7 80 4c 01 00
	00 04 00 00 00	 mov	 DWORD PTR [eax+332], 4

; 645  : 	}else{

  001a5	eb 27		 jmp	 SHORT $LN4@charMove
$LN3@charMove:

; 646  : 		// ?h????症t?
; 647  : 		if( ptAct->walkFlag != 0 )

  001a7	8b 45 08	 mov	 eax, DWORD PTR _ptAct$[ebp]
  001aa	0f bf 88 16 01
	00 00		 movsx	 ecx, WORD PTR [eax+278]
  001b1	85 c9		 test	 ecx, ecx
  001b3	74 0d		 je	 SHORT $LN8@charMove

; 648  : 			ptAct->anim_no = ANIM_STAND;

  001b5	8b 45 08	 mov	 eax, DWORD PTR _ptAct$[ebp]
  001b8	c7 80 4c 01 00
	00 03 00 00 00	 mov	 DWORD PTR [eax+332], 3
$LN8@charMove:

; 649  : 		ptAct->walkFlag = 0;

  001c2	33 c0		 xor	 eax, eax
  001c4	8b 4d 08	 mov	 ecx, DWORD PTR _ptAct$[ebp]
  001c7	66 89 81 16 01
	00 00		 mov	 WORD PTR [ecx+278], ax
$LN4@charMove:

; 650  : 	}
; 651  : 	ptAct->gx = (int)(ptAct->mx/GRID_SIZE);

  001ce	8b 45 08	 mov	 eax, DWORD PTR _ptAct$[ebp]
  001d1	f3 0f 10 80 18
	01 00 00	 movss	 xmm0, DWORD PTR [eax+280]
  001d9	f3 0f 5e 05 00
	00 00 00	 divss	 xmm0, DWORD PTR __real@42800000
  001e1	f3 0f 2c c8	 cvttss2si ecx, xmm0
  001e5	8b 55 08	 mov	 edx, DWORD PTR _ptAct$[ebp]
  001e8	89 8a b4 00 00
	00		 mov	 DWORD PTR [edx+180], ecx

; 652  : 	ptAct->gy = (int)(ptAct->my/GRID_SIZE);

  001ee	8b 45 08	 mov	 eax, DWORD PTR _ptAct$[ebp]
  001f1	f3 0f 10 80 1c
	01 00 00	 movss	 xmm0, DWORD PTR [eax+284]
  001f9	f3 0f 5e 05 00
	00 00 00	 divss	 xmm0, DWORD PTR __real@42800000
  00201	f3 0f 2c c8	 cvttss2si ecx, xmm0
  00205	8b 55 08	 mov	 edx, DWORD PTR _ptAct$[ebp]
  00208	89 8a b8 00 00
	00		 mov	 DWORD PTR [edx+184], ecx
$LN1@charMove:

; 653  : }

  0020e	5f		 pop	 edi
  0020f	5e		 pop	 esi
  00210	5b		 pop	 ebx
  00211	81 c4 f4 00 00
	00		 add	 esp, 244		; 000000f4H
  00217	3b ec		 cmp	 ebp, esp
  00219	e8 00 00 00 00	 call	 __RTC_CheckEsp
  0021e	8b e5		 mov	 esp, ebp
  00220	5d		 pop	 ebp
  00221	c3		 ret	 0
?_charMove@@YAXPAUaction@@@Z ENDP			; _charMove
_TEXT	ENDS
; Function compile flags: /Odtp /RTCsu /ZI
; File c:\users\administrator\desktop\????? ??\????? ??\client source code\system\character.cpp
;	COMDAT ?charMove2@@YAXPAUaction@@@Z
_TEXT	SEGMENT
tv173 = -220						; size = 4
_my$ = -20						; size = 4
_mx$ = -8						; size = 4
_ptAct$ = 8						; size = 4
?charMove2@@YAXPAUaction@@@Z PROC			; charMove2, COMDAT

; 586  : {

  00000	55		 push	 ebp
  00001	8b ec		 mov	 ebp, esp
  00003	81 ec dc 00 00
	00		 sub	 esp, 220		; 000000dcH
  00009	53		 push	 ebx
  0000a	56		 push	 esi
  0000b	57		 push	 edi
  0000c	8d bd 24 ff ff
	ff		 lea	 edi, DWORD PTR [ebp-220]
  00012	b9 37 00 00 00	 mov	 ecx, 55			; 00000037H
  00017	b8 cc cc cc cc	 mov	 eax, -858993460		; ccccccccH
  0001c	f3 ab		 rep stosd

; 587  : 	float mx, my;
; 588  : 	if( ptAct == NULL )

  0001e	83 7d 08 00	 cmp	 DWORD PTR _ptAct$[ebp], 0
  00022	75 05		 jne	 SHORT $LN2@charMove2

; 589  : 		return;

  00024	e9 d9 01 00 00	 jmp	 $LN1@charMove2
$LN2@charMove2:

; 590  : 	mx = (float)ptAct->nextGx*GRID_SIZE;

  00029	8b 45 08	 mov	 eax, DWORD PTR _ptAct$[ebp]
  0002c	f3 0f 2a 80 bc
	00 00 00	 cvtsi2ss xmm0, DWORD PTR [eax+188]
  00034	f3 0f 59 05 00
	00 00 00	 mulss	 xmm0, DWORD PTR __real@42800000
  0003c	f3 0f 11 45 f8	 movss	 DWORD PTR _mx$[ebp], xmm0

; 591  : 	my = (float)ptAct->nextGy*GRID_SIZE;

  00041	8b 45 08	 mov	 eax, DWORD PTR _ptAct$[ebp]
  00044	f3 0f 2a 80 c0
	00 00 00	 cvtsi2ss xmm0, DWORD PTR [eax+192]
  0004c	f3 0f 59 05 00
	00 00 00	 mulss	 xmm0, DWORD PTR __real@42800000
  00054	f3 0f 11 45 ec	 movss	 DWORD PTR _my$[ebp], xmm0

; 592  : 	// ?h???
; 593  : 	if( ptAct->vx != 0 || ptAct->vy != 0 ){

  00059	8b 45 08	 mov	 eax, DWORD PTR _ptAct$[ebp]
  0005c	f3 0f 10 80 20
	01 00 00	 movss	 xmm0, DWORD PTR [eax+288]
  00064	0f 2e 05 00 00
	00 00		 ucomiss xmm0, DWORD PTR __real@00000000
  0006b	9f		 lahf
  0006c	f6 c4 44	 test	 ah, 68			; 00000044H
  0006f	7a 1c		 jp	 SHORT $LN5@charMove2
  00071	8b 45 08	 mov	 eax, DWORD PTR _ptAct$[ebp]
  00074	f3 0f 10 80 24
	01 00 00	 movss	 xmm0, DWORD PTR [eax+292]
  0007c	0f 2e 05 00 00
	00 00		 ucomiss xmm0, DWORD PTR __real@00000000
  00083	9f		 lahf
  00084	f6 c4 44	 test	 ah, 68			; 00000044H
  00087	0f 8b 0e 01 00
	00		 jnp	 $LN3@charMove2
$LN5@charMove2:

; 594  : 		// ??????????????
; 595  : 		if( pointLen2( ptAct->mx, ptAct->my, mx, my )
; 596  : 			<= ptAct->vx*ptAct->vx+ptAct->vy*ptAct->vy ){

  0008d	51		 push	 ecx
  0008e	f3 0f 10 45 ec	 movss	 xmm0, DWORD PTR _my$[ebp]
  00093	f3 0f 11 04 24	 movss	 DWORD PTR [esp], xmm0
  00098	51		 push	 ecx
  00099	f3 0f 10 45 f8	 movss	 xmm0, DWORD PTR _mx$[ebp]
  0009e	f3 0f 11 04 24	 movss	 DWORD PTR [esp], xmm0
  000a3	8b 45 08	 mov	 eax, DWORD PTR _ptAct$[ebp]
  000a6	51		 push	 ecx
  000a7	f3 0f 10 80 1c
	01 00 00	 movss	 xmm0, DWORD PTR [eax+284]
  000af	f3 0f 11 04 24	 movss	 DWORD PTR [esp], xmm0
  000b4	8b 4d 08	 mov	 ecx, DWORD PTR _ptAct$[ebp]
  000b7	51		 push	 ecx
  000b8	f3 0f 10 81 18
	01 00 00	 movss	 xmm0, DWORD PTR [ecx+280]
  000c0	f3 0f 11 04 24	 movss	 DWORD PTR [esp], xmm0
  000c5	e8 00 00 00 00	 call	 ?pointLen2@@YAMMMMM@Z	; pointLen2
  000ca	83 c4 10	 add	 esp, 16			; 00000010H
  000cd	d9 9d 24 ff ff
	ff		 fstp	 DWORD PTR tv173[ebp]
  000d3	8b 55 08	 mov	 edx, DWORD PTR _ptAct$[ebp]
  000d6	8b 45 08	 mov	 eax, DWORD PTR _ptAct$[ebp]
  000d9	f3 0f 10 82 20
	01 00 00	 movss	 xmm0, DWORD PTR [edx+288]
  000e1	f3 0f 59 80 20
	01 00 00	 mulss	 xmm0, DWORD PTR [eax+288]
  000e9	8b 4d 08	 mov	 ecx, DWORD PTR _ptAct$[ebp]
  000ec	8b 55 08	 mov	 edx, DWORD PTR _ptAct$[ebp]
  000ef	f3 0f 10 89 24
	01 00 00	 movss	 xmm1, DWORD PTR [ecx+292]
  000f7	f3 0f 59 8a 24
	01 00 00	 mulss	 xmm1, DWORD PTR [edx+292]
  000ff	f3 0f 58 c1	 addss	 xmm0, xmm1
  00103	0f 2f 85 24 ff
	ff ff		 comiss	 xmm0, DWORD PTR tv173[ebp]
  0010a	72 3e		 jb	 SHORT $LN6@charMove2

; 597  : 			ptAct->mx = mx;

  0010c	8b 45 08	 mov	 eax, DWORD PTR _ptAct$[ebp]
  0010f	f3 0f 10 45 f8	 movss	 xmm0, DWORD PTR _mx$[ebp]
  00114	f3 0f 11 80 18
	01 00 00	 movss	 DWORD PTR [eax+280], xmm0

; 598  : 			ptAct->my = my;

  0011c	8b 45 08	 mov	 eax, DWORD PTR _ptAct$[ebp]
  0011f	f3 0f 10 45 ec	 movss	 xmm0, DWORD PTR _my$[ebp]
  00124	f3 0f 11 80 1c
	01 00 00	 movss	 DWORD PTR [eax+284], xmm0

; 599  : 			ptAct->vx = 0;

  0012c	8b 45 08	 mov	 eax, DWORD PTR _ptAct$[ebp]
  0012f	0f 57 c0	 xorps	 xmm0, xmm0
  00132	f3 0f 11 80 20
	01 00 00	 movss	 DWORD PTR [eax+288], xmm0

; 600  : 			ptAct->vy = 0;

  0013a	8b 45 08	 mov	 eax, DWORD PTR _ptAct$[ebp]
  0013d	0f 57 c0	 xorps	 xmm0, xmm0
  00140	f3 0f 11 80 24
	01 00 00	 movss	 DWORD PTR [eax+292], xmm0

; 601  : 		}else{

  00148	eb 42		 jmp	 SHORT $LN7@charMove2
$LN6@charMove2:

; 602  : 		// ?h
; 603  : 			ptAct->mx += ptAct->vx;

  0014a	8b 45 08	 mov	 eax, DWORD PTR _ptAct$[ebp]
  0014d	8b 4d 08	 mov	 ecx, DWORD PTR _ptAct$[ebp]
  00150	f3 0f 10 80 18
	01 00 00	 movss	 xmm0, DWORD PTR [eax+280]
  00158	f3 0f 58 81 20
	01 00 00	 addss	 xmm0, DWORD PTR [ecx+288]
  00160	8b 55 08	 mov	 edx, DWORD PTR _ptAct$[ebp]
  00163	f3 0f 11 82 18
	01 00 00	 movss	 DWORD PTR [edx+280], xmm0

; 604  : 			ptAct->my += ptAct->vy;

  0016b	8b 45 08	 mov	 eax, DWORD PTR _ptAct$[ebp]
  0016e	8b 4d 08	 mov	 ecx, DWORD PTR _ptAct$[ebp]
  00171	f3 0f 10 80 1c
	01 00 00	 movss	 xmm0, DWORD PTR [eax+284]
  00179	f3 0f 58 81 24
	01 00 00	 addss	 xmm0, DWORD PTR [ecx+292]
  00181	8b 55 08	 mov	 edx, DWORD PTR _ptAct$[ebp]
  00184	f3 0f 11 82 1c
	01 00 00	 movss	 DWORD PTR [edx+284], xmm0
$LN7@charMove2:

; 605  : 		}
; 606  : 		// ?h???
; 607  : 		ptAct->anim_no = ANIM_WALK;

  0018c	8b 45 08	 mov	 eax, DWORD PTR _ptAct$[ebp]
  0018f	c7 80 4c 01 00
	00 04 00 00 00	 mov	 DWORD PTR [eax+332], 4

; 608  : 	}else{

  00199	eb 27		 jmp	 SHORT $LN4@charMove2
$LN3@charMove2:

; 609  : 		// ?h????症t?
; 610  : 		if( ptAct->walkFlag != 0 )

  0019b	8b 45 08	 mov	 eax, DWORD PTR _ptAct$[ebp]
  0019e	0f bf 88 16 01
	00 00		 movsx	 ecx, WORD PTR [eax+278]
  001a5	85 c9		 test	 ecx, ecx
  001a7	74 0d		 je	 SHORT $LN8@charMove2

; 611  : 			ptAct->anim_no = ANIM_STAND;

  001a9	8b 45 08	 mov	 eax, DWORD PTR _ptAct$[ebp]
  001ac	c7 80 4c 01 00
	00 03 00 00 00	 mov	 DWORD PTR [eax+332], 3
$LN8@charMove2:

; 612  : 		ptAct->walkFlag = 0;

  001b6	33 c0		 xor	 eax, eax
  001b8	8b 4d 08	 mov	 ecx, DWORD PTR _ptAct$[ebp]
  001bb	66 89 81 16 01
	00 00		 mov	 WORD PTR [ecx+278], ax
$LN4@charMove2:

; 613  : 	}
; 614  : 	ptAct->gx = (int)(ptAct->mx/GRID_SIZE);

  001c2	8b 45 08	 mov	 eax, DWORD PTR _ptAct$[ebp]
  001c5	f3 0f 10 80 18
	01 00 00	 movss	 xmm0, DWORD PTR [eax+280]
  001cd	f3 0f 5e 05 00
	00 00 00	 divss	 xmm0, DWORD PTR __real@42800000
  001d5	f3 0f 2c c8	 cvttss2si ecx, xmm0
  001d9	8b 55 08	 mov	 edx, DWORD PTR _ptAct$[ebp]
  001dc	89 8a b4 00 00
	00		 mov	 DWORD PTR [edx+180], ecx

; 615  : 	ptAct->gy = (int)(ptAct->my/GRID_SIZE);

  001e2	8b 45 08	 mov	 eax, DWORD PTR _ptAct$[ebp]
  001e5	f3 0f 10 80 1c
	01 00 00	 movss	 xmm0, DWORD PTR [eax+284]
  001ed	f3 0f 5e 05 00
	00 00 00	 divss	 xmm0, DWORD PTR __real@42800000
  001f5	f3 0f 2c c8	 cvttss2si ecx, xmm0
  001f9	8b 55 08	 mov	 edx, DWORD PTR _ptAct$[ebp]
  001fc	89 8a b8 00 00
	00		 mov	 DWORD PTR [edx+184], ecx
$LN1@charMove2:

; 616  : }

  00202	5f		 pop	 edi
  00203	5e		 pop	 esi
  00204	5b		 pop	 ebx
  00205	81 c4 dc 00 00
	00		 add	 esp, 220		; 000000dcH
  0020b	3b ec		 cmp	 ebp, esp
  0020d	e8 00 00 00 00	 call	 __RTC_CheckEsp
  00212	8b e5		 mov	 esp, ebp
  00214	5d		 pop	 ebp
  00215	c3		 ret	 0
?charMove2@@YAXPAUaction@@@Z ENDP			; charMove2
_TEXT	ENDS
; Function compile flags: /Odtp /RTCsu /ZI
; File c:\users\administrator\desktop\????? ??\????? ??\client source code\system\character.cpp
;	COMDAT ?charMove@@YAXPAUaction@@@Z
_TEXT	SEGMENT
tv215 = -220						; size = 4
_my$ = -20						; size = 4
_mx$ = -8						; size = 4
_ptAct$ = 8						; size = 4
?charMove@@YAXPAUaction@@@Z PROC			; charMove, COMDAT

; 542  : {

  00000	55		 push	 ebp
  00001	8b ec		 mov	 ebp, esp
  00003	81 ec dc 00 00
	00		 sub	 esp, 220		; 000000dcH
  00009	53		 push	 ebx
  0000a	56		 push	 esi
  0000b	57		 push	 edi
  0000c	8d bd 24 ff ff
	ff		 lea	 edi, DWORD PTR [ebp-220]
  00012	b9 37 00 00 00	 mov	 ecx, 55			; 00000037H
  00017	b8 cc cc cc cc	 mov	 eax, -858993460		; ccccccccH
  0001c	f3 ab		 rep stosd

; 543  : 	float mx, my;
; 544  : 	if( ptAct == NULL )

  0001e	83 7d 08 00	 cmp	 DWORD PTR _ptAct$[ebp], 0
  00022	75 05		 jne	 SHORT $LN2@charMove

; 545  : 		return;

  00024	e9 7f 02 00 00	 jmp	 $LN1@charMove
$LN2@charMove:

; 546  : 	mx = (float)ptAct->nextGx*GRID_SIZE;

  00029	8b 45 08	 mov	 eax, DWORD PTR _ptAct$[ebp]
  0002c	f3 0f 2a 80 bc
	00 00 00	 cvtsi2ss xmm0, DWORD PTR [eax+188]
  00034	f3 0f 59 05 00
	00 00 00	 mulss	 xmm0, DWORD PTR __real@42800000
  0003c	f3 0f 11 45 f8	 movss	 DWORD PTR _mx$[ebp], xmm0

; 547  : 	my = (float)ptAct->nextGy*GRID_SIZE;

  00041	8b 45 08	 mov	 eax, DWORD PTR _ptAct$[ebp]
  00044	f3 0f 2a 80 c0
	00 00 00	 cvtsi2ss xmm0, DWORD PTR [eax+192]
  0004c	f3 0f 59 05 00
	00 00 00	 mulss	 xmm0, DWORD PTR __real@42800000
  00054	f3 0f 11 45 ec	 movss	 DWORD PTR _my$[ebp], xmm0

; 548  : 	// ?????????????hI?@e??
; 549  : 	if( mx == ptAct->mx && my == ptAct->my ){

  00059	8b 45 08	 mov	 eax, DWORD PTR _ptAct$[ebp]
  0005c	f3 0f 10 45 f8	 movss	 xmm0, DWORD PTR _mx$[ebp]
  00061	0f 2e 80 18 01
	00 00		 ucomiss xmm0, DWORD PTR [eax+280]
  00068	9f		 lahf
  00069	f6 c4 44	 test	 ah, 68			; 00000044H
  0006c	7a 61		 jp	 SHORT $LN4@charMove
  0006e	8b 45 08	 mov	 eax, DWORD PTR _ptAct$[ebp]
  00071	f3 0f 10 45 ec	 movss	 xmm0, DWORD PTR _my$[ebp]
  00076	0f 2e 80 1c 01
	00 00		 ucomiss xmm0, DWORD PTR [eax+284]
  0007d	9f		 lahf
  0007e	f6 c4 44	 test	 ah, 68			; 00000044H
  00081	7a 4c		 jp	 SHORT $LN4@charMove

; 550  : 		// ?????????????@e
; 551  : 		if( ptAct->bufCount > 0 ){

  00083	8b 45 08	 mov	 eax, DWORD PTR _ptAct$[ebp]
  00086	0f bf 88 14 01
	00 00		 movsx	 ecx, WORD PTR [eax+276]
  0008d	85 c9		 test	 ecx, ecx
  0008f	7e 3e		 jle	 SHORT $LN4@charMove

; 552  : 			setCharMovePoint( ptAct, ptAct->bufGx[0], ptAct->bufGy[0] );

  00091	b8 04 00 00 00	 mov	 eax, 4
  00096	6b c8 00	 imul	 ecx, eax, 0
  00099	8b 55 08	 mov	 edx, DWORD PTR _ptAct$[ebp]
  0009c	8b 84 0a ec 00
	00 00		 mov	 eax, DWORD PTR [edx+ecx+236]
  000a3	50		 push	 eax
  000a4	b9 04 00 00 00	 mov	 ecx, 4
  000a9	6b d1 00	 imul	 edx, ecx, 0
  000ac	8b 45 08	 mov	 eax, DWORD PTR _ptAct$[ebp]
  000af	8b 8c 10 c4 00
	00 00		 mov	 ecx, DWORD PTR [eax+edx+196]
  000b6	51		 push	 ecx
  000b7	8b 55 08	 mov	 edx, DWORD PTR _ptAct$[ebp]
  000ba	52		 push	 edx
  000bb	e8 00 00 00 00	 call	 ?setCharMovePoint@@YAXPAUaction@@HH@Z ; setCharMovePoint
  000c0	83 c4 0c	 add	 esp, 12			; 0000000cH

; 553  : 			shiftBufCount( ptAct );

  000c3	8b 45 08	 mov	 eax, DWORD PTR _ptAct$[ebp]
  000c6	50		 push	 eax
  000c7	e8 00 00 00 00	 call	 ?shiftBufCount@@YAXPAUaction@@@Z ; shiftBufCount
  000cc	83 c4 04	 add	 esp, 4
$LN4@charMove:

; 554  : 		}
; 555  : 	}
; 556  : 	mx = (float)ptAct->nextGx*GRID_SIZE;

  000cf	8b 45 08	 mov	 eax, DWORD PTR _ptAct$[ebp]
  000d2	f3 0f 2a 80 bc
	00 00 00	 cvtsi2ss xmm0, DWORD PTR [eax+188]
  000da	f3 0f 59 05 00
	00 00 00	 mulss	 xmm0, DWORD PTR __real@42800000
  000e2	f3 0f 11 45 f8	 movss	 DWORD PTR _mx$[ebp], xmm0

; 557  : 	my = (float)ptAct->nextGy*GRID_SIZE;

  000e7	8b 45 08	 mov	 eax, DWORD PTR _ptAct$[ebp]
  000ea	f3 0f 2a 80 c0
	00 00 00	 cvtsi2ss xmm0, DWORD PTR [eax+192]
  000f2	f3 0f 59 05 00
	00 00 00	 mulss	 xmm0, DWORD PTR __real@42800000
  000fa	f3 0f 11 45 ec	 movss	 DWORD PTR _my$[ebp], xmm0

; 558  : 	// ?h???
; 559  : 	if( ptAct->vx != 0 || ptAct->vy != 0 ){

  000ff	8b 45 08	 mov	 eax, DWORD PTR _ptAct$[ebp]
  00102	f3 0f 10 80 20
	01 00 00	 movss	 xmm0, DWORD PTR [eax+288]
  0010a	0f 2e 05 00 00
	00 00		 ucomiss xmm0, DWORD PTR __real@00000000
  00111	9f		 lahf
  00112	f6 c4 44	 test	 ah, 68			; 00000044H
  00115	7a 1c		 jp	 SHORT $LN7@charMove
  00117	8b 45 08	 mov	 eax, DWORD PTR _ptAct$[ebp]
  0011a	f3 0f 10 80 24
	01 00 00	 movss	 xmm0, DWORD PTR [eax+292]
  00122	0f 2e 05 00 00
	00 00		 ucomiss xmm0, DWORD PTR __real@00000000
  00129	9f		 lahf
  0012a	f6 c4 44	 test	 ah, 68			; 00000044H
  0012d	0f 8b 0e 01 00
	00		 jnp	 $LN5@charMove
$LN7@charMove:

; 560  : 		// ??????????????
; 561  : 		if( pointLen2( ptAct->mx, ptAct->my, mx, my )
; 562  : 			<= ptAct->vx*ptAct->vx+ptAct->vy*ptAct->vy ){

  00133	51		 push	 ecx
  00134	f3 0f 10 45 ec	 movss	 xmm0, DWORD PTR _my$[ebp]
  00139	f3 0f 11 04 24	 movss	 DWORD PTR [esp], xmm0
  0013e	51		 push	 ecx
  0013f	f3 0f 10 45 f8	 movss	 xmm0, DWORD PTR _mx$[ebp]
  00144	f3 0f 11 04 24	 movss	 DWORD PTR [esp], xmm0
  00149	8b 45 08	 mov	 eax, DWORD PTR _ptAct$[ebp]
  0014c	51		 push	 ecx
  0014d	f3 0f 10 80 1c
	01 00 00	 movss	 xmm0, DWORD PTR [eax+284]
  00155	f3 0f 11 04 24	 movss	 DWORD PTR [esp], xmm0
  0015a	8b 4d 08	 mov	 ecx, DWORD PTR _ptAct$[ebp]
  0015d	51		 push	 ecx
  0015e	f3 0f 10 81 18
	01 00 00	 movss	 xmm0, DWORD PTR [ecx+280]
  00166	f3 0f 11 04 24	 movss	 DWORD PTR [esp], xmm0
  0016b	e8 00 00 00 00	 call	 ?pointLen2@@YAMMMMM@Z	; pointLen2
  00170	83 c4 10	 add	 esp, 16			; 00000010H
  00173	d9 9d 24 ff ff
	ff		 fstp	 DWORD PTR tv215[ebp]
  00179	8b 55 08	 mov	 edx, DWORD PTR _ptAct$[ebp]
  0017c	8b 45 08	 mov	 eax, DWORD PTR _ptAct$[ebp]
  0017f	f3 0f 10 82 20
	01 00 00	 movss	 xmm0, DWORD PTR [edx+288]
  00187	f3 0f 59 80 20
	01 00 00	 mulss	 xmm0, DWORD PTR [eax+288]
  0018f	8b 4d 08	 mov	 ecx, DWORD PTR _ptAct$[ebp]
  00192	8b 55 08	 mov	 edx, DWORD PTR _ptAct$[ebp]
  00195	f3 0f 10 89 24
	01 00 00	 movss	 xmm1, DWORD PTR [ecx+292]
  0019d	f3 0f 59 8a 24
	01 00 00	 mulss	 xmm1, DWORD PTR [edx+292]
  001a5	f3 0f 58 c1	 addss	 xmm0, xmm1
  001a9	0f 2f 85 24 ff
	ff ff		 comiss	 xmm0, DWORD PTR tv215[ebp]
  001b0	72 3e		 jb	 SHORT $LN8@charMove

; 563  : 			ptAct->mx = mx;

  001b2	8b 45 08	 mov	 eax, DWORD PTR _ptAct$[ebp]
  001b5	f3 0f 10 45 f8	 movss	 xmm0, DWORD PTR _mx$[ebp]
  001ba	f3 0f 11 80 18
	01 00 00	 movss	 DWORD PTR [eax+280], xmm0

; 564  : 			ptAct->my = my;

  001c2	8b 45 08	 mov	 eax, DWORD PTR _ptAct$[ebp]
  001c5	f3 0f 10 45 ec	 movss	 xmm0, DWORD PTR _my$[ebp]
  001ca	f3 0f 11 80 1c
	01 00 00	 movss	 DWORD PTR [eax+284], xmm0

; 565  : 			ptAct->vx = 0;

  001d2	8b 45 08	 mov	 eax, DWORD PTR _ptAct$[ebp]
  001d5	0f 57 c0	 xorps	 xmm0, xmm0
  001d8	f3 0f 11 80 20
	01 00 00	 movss	 DWORD PTR [eax+288], xmm0

; 566  : 			ptAct->vy = 0;

  001e0	8b 45 08	 mov	 eax, DWORD PTR _ptAct$[ebp]
  001e3	0f 57 c0	 xorps	 xmm0, xmm0
  001e6	f3 0f 11 80 24
	01 00 00	 movss	 DWORD PTR [eax+292], xmm0

; 567  : 		}else{

  001ee	eb 42		 jmp	 SHORT $LN9@charMove
$LN8@charMove:

; 568  : 		// ?h
; 569  : 			ptAct->mx += ptAct->vx;

  001f0	8b 45 08	 mov	 eax, DWORD PTR _ptAct$[ebp]
  001f3	8b 4d 08	 mov	 ecx, DWORD PTR _ptAct$[ebp]
  001f6	f3 0f 10 80 18
	01 00 00	 movss	 xmm0, DWORD PTR [eax+280]
  001fe	f3 0f 58 81 20
	01 00 00	 addss	 xmm0, DWORD PTR [ecx+288]
  00206	8b 55 08	 mov	 edx, DWORD PTR _ptAct$[ebp]
  00209	f3 0f 11 82 18
	01 00 00	 movss	 DWORD PTR [edx+280], xmm0

; 570  : 			ptAct->my += ptAct->vy;

  00211	8b 45 08	 mov	 eax, DWORD PTR _ptAct$[ebp]
  00214	8b 4d 08	 mov	 ecx, DWORD PTR _ptAct$[ebp]
  00217	f3 0f 10 80 1c
	01 00 00	 movss	 xmm0, DWORD PTR [eax+284]
  0021f	f3 0f 58 81 24
	01 00 00	 addss	 xmm0, DWORD PTR [ecx+292]
  00227	8b 55 08	 mov	 edx, DWORD PTR _ptAct$[ebp]
  0022a	f3 0f 11 82 1c
	01 00 00	 movss	 DWORD PTR [edx+284], xmm0
$LN9@charMove:

; 571  : 		}
; 572  : 		// ?h???
; 573  : 		ptAct->anim_no = ANIM_WALK;

  00232	8b 45 08	 mov	 eax, DWORD PTR _ptAct$[ebp]
  00235	c7 80 4c 01 00
	00 04 00 00 00	 mov	 DWORD PTR [eax+332], 4

; 574  : 	}else{

  0023f	eb 27		 jmp	 SHORT $LN6@charMove
$LN5@charMove:

; 575  : 		// ?h????症t?
; 576  : 		if( ptAct->walkFlag != 0 )

  00241	8b 45 08	 mov	 eax, DWORD PTR _ptAct$[ebp]
  00244	0f bf 88 16 01
	00 00		 movsx	 ecx, WORD PTR [eax+278]
  0024b	85 c9		 test	 ecx, ecx
  0024d	74 0d		 je	 SHORT $LN10@charMove

; 577  : 			ptAct->anim_no = ANIM_STAND;

  0024f	8b 45 08	 mov	 eax, DWORD PTR _ptAct$[ebp]
  00252	c7 80 4c 01 00
	00 03 00 00 00	 mov	 DWORD PTR [eax+332], 3
$LN10@charMove:

; 578  : 		ptAct->walkFlag = 0;

  0025c	33 c0		 xor	 eax, eax
  0025e	8b 4d 08	 mov	 ecx, DWORD PTR _ptAct$[ebp]
  00261	66 89 81 16 01
	00 00		 mov	 WORD PTR [ecx+278], ax
$LN6@charMove:

; 579  : 	}
; 580  : 	ptAct->gx = (int)(ptAct->mx/GRID_SIZE);

  00268	8b 45 08	 mov	 eax, DWORD PTR _ptAct$[ebp]
  0026b	f3 0f 10 80 18
	01 00 00	 movss	 xmm0, DWORD PTR [eax+280]
  00273	f3 0f 5e 05 00
	00 00 00	 divss	 xmm0, DWORD PTR __real@42800000
  0027b	f3 0f 2c c8	 cvttss2si ecx, xmm0
  0027f	8b 55 08	 mov	 edx, DWORD PTR _ptAct$[ebp]
  00282	89 8a b4 00 00
	00		 mov	 DWORD PTR [edx+180], ecx

; 581  : 	ptAct->gy = (int)(ptAct->my/GRID_SIZE);

  00288	8b 45 08	 mov	 eax, DWORD PTR _ptAct$[ebp]
  0028b	f3 0f 10 80 1c
	01 00 00	 movss	 xmm0, DWORD PTR [eax+284]
  00293	f3 0f 5e 05 00
	00 00 00	 divss	 xmm0, DWORD PTR __real@42800000
  0029b	f3 0f 2c c8	 cvttss2si ecx, xmm0
  0029f	8b 55 08	 mov	 edx, DWORD PTR _ptAct$[ebp]
  002a2	89 8a b8 00 00
	00		 mov	 DWORD PTR [edx+184], ecx
$LN1@charMove:

; 582  : }

  002a8	5f		 pop	 edi
  002a9	5e		 pop	 esi
  002aa	5b		 pop	 ebx
  002ab	81 c4 dc 00 00
	00		 add	 esp, 220		; 000000dcH
  002b1	3b ec		 cmp	 ebp, esp
  002b3	e8 00 00 00 00	 call	 __RTC_CheckEsp
  002b8	8b e5		 mov	 esp, ebp
  002ba	5d		 pop	 ebp
  002bb	c3		 ret	 0
?charMove@@YAXPAUaction@@@Z ENDP			; charMove
_TEXT	ENDS
; Function compile flags: /Odtp /RTCsu /ZI
; File c:\users\administrator\desktop\????? ??\????? ??\client source code\system\character.cpp
;	COMDAT ?delNpcNotice@@YAXPAUaction@@@Z
_TEXT	SEGMENT
_ext$ = -8						; size = 4
_ptAct$ = 8						; size = 4
?delNpcNotice@@YAXPAUaction@@@Z PROC			; delNpcNotice, COMDAT

; 3372 : void delNpcNotice( ACTION *ptAct){

  00000	55		 push	 ebp
  00001	8b ec		 mov	 ebp, esp
  00003	81 ec cc 00 00
	00		 sub	 esp, 204		; 000000ccH
  00009	53		 push	 ebx
  0000a	56		 push	 esi
  0000b	57		 push	 edi
  0000c	8d bd 34 ff ff
	ff		 lea	 edi, DWORD PTR [ebp-204]
  00012	b9 33 00 00 00	 mov	 ecx, 51			; 00000033H
  00017	b8 cc cc cc cc	 mov	 eax, -858993460		; ccccccccH
  0001c	f3 ab		 rep stosd

; 3373 : 	CHAREXTRA *ext;	
; 3374 : 	if( ptAct == NULL )

  0001e	83 7d 08 00	 cmp	 DWORD PTR _ptAct$[ebp], 0
  00022	75 02		 jne	 SHORT $LN2@delNpcNoti

; 3375 : 		return;

  00024	eb 2b		 jmp	 SHORT $LN1@delNpcNoti
$LN2@delNpcNoti:

; 3376 : 	ext = (CHAREXTRA *)ptAct->pYobi;

  00026	8b 45 08	 mov	 eax, DWORD PTR _ptAct$[ebp]
  00029	8b 48 0c	 mov	 ecx, DWORD PTR [eax+12]
  0002c	89 4d f8	 mov	 DWORD PTR _ext$[ebp], ecx

; 3377 : 	if(ext->ptNoticeIcon){

  0002f	8b 45 f8	 mov	 eax, DWORD PTR _ext$[ebp]
  00032	83 78 30 00	 cmp	 DWORD PTR [eax+48], 0
  00036	74 19		 je	 SHORT $LN1@delNpcNoti

; 3378 : 		DeathAction( ext->ptNoticeIcon);

  00038	8b 45 f8	 mov	 eax, DWORD PTR _ext$[ebp]
  0003b	8b 48 30	 mov	 ecx, DWORD PTR [eax+48]
  0003e	51		 push	 ecx
  0003f	e8 00 00 00 00	 call	 ?DeathAction@@YAXPAUaction@@@Z ; DeathAction
  00044	83 c4 04	 add	 esp, 4

; 3379 : 		ext->ptNoticeIcon = NULL;

  00047	8b 45 f8	 mov	 eax, DWORD PTR _ext$[ebp]
  0004a	c7 40 30 00 00
	00 00		 mov	 DWORD PTR [eax+48], 0
$LN1@delNpcNoti:

; 3380 : 	}
; 3381 : }

  00051	5f		 pop	 edi
  00052	5e		 pop	 esi
  00053	5b		 pop	 ebx
  00054	81 c4 cc 00 00
	00		 add	 esp, 204		; 000000ccH
  0005a	3b ec		 cmp	 ebp, esp
  0005c	e8 00 00 00 00	 call	 __RTC_CheckEsp
  00061	8b e5		 mov	 esp, ebp
  00063	5d		 pop	 ebp
  00064	c3		 ret	 0
?delNpcNotice@@YAXPAUaction@@@Z ENDP			; delNpcNotice
_TEXT	ENDS
; Function compile flags: /Odtp /RTCsu /ZI
; File c:\users\administrator\desktop\????? ??\????? ??\client source code\system\character.cpp
;	COMDAT ?setNpcNotice@@YAXPAUaction@@H@Z
_TEXT	SEGMENT
_ext$ = -8						; size = 4
_ptAct$ = 8						; size = 4
_MindNo$ = 12						; size = 4
?setNpcNotice@@YAXPAUaction@@H@Z PROC			; setNpcNotice, COMDAT

; 3355 : void setNpcNotice( ACTION *ptAct, int MindNo){

  00000	55		 push	 ebp
  00001	8b ec		 mov	 ebp, esp
  00003	81 ec cc 00 00
	00		 sub	 esp, 204		; 000000ccH
  00009	53		 push	 ebx
  0000a	56		 push	 esi
  0000b	57		 push	 edi
  0000c	8d bd 34 ff ff
	ff		 lea	 edi, DWORD PTR [ebp-204]
  00012	b9 33 00 00 00	 mov	 ecx, 51			; 00000033H
  00017	b8 cc cc cc cc	 mov	 eax, -858993460		; ccccccccH
  0001c	f3 ab		 rep stosd

; 3356 : 	//无指引图像时不显示
; 3357 : 	if (SpriteData[MindNo - SPRSTART].animSize == 0) {

  0001e	8b 45 0c	 mov	 eax, DWORD PTR _MindNo$[ebp]
  00021	0f b7 0c c5 00
	cb f3 ff	 movzx	 ecx, WORD PTR ?SpriteData@@3PAUSPRITEDATA@@A[eax*8-800000]
  00029	85 c9		 test	 ecx, ecx
  0002b	75 02		 jne	 SHORT $LN2@setNpcNoti

; 3358 : 		return;

  0002d	eb 6b		 jmp	 SHORT $LN1@setNpcNoti
$LN2@setNpcNoti:

; 3359 : 	}
; 3360 : 	CHAREXTRA *ext;
; 3361 : 	if( ptAct == NULL )

  0002f	83 7d 08 00	 cmp	 DWORD PTR _ptAct$[ebp], 0
  00033	75 02		 jne	 SHORT $LN3@setNpcNoti

; 3362 : 		return;

  00035	eb 63		 jmp	 SHORT $LN1@setNpcNoti
$LN3@setNpcNoti:

; 3363 : 	ext = (CHAREXTRA *)ptAct->pYobi;

  00037	8b 45 08	 mov	 eax, DWORD PTR _ptAct$[ebp]
  0003a	8b 48 0c	 mov	 ecx, DWORD PTR [eax+12]
  0003d	89 4d f8	 mov	 DWORD PTR _ext$[ebp], ecx

; 3364 : 	ptAct->noticeNo = MindNo;

  00040	8b 45 08	 mov	 eax, DWORD PTR _ptAct$[ebp]
  00043	8b 4d 0c	 mov	 ecx, DWORD PTR _MindNo$[ebp]
  00046	89 88 cc 01 00
	00		 mov	 DWORD PTR [eax+460], ecx

; 3365 : 	if(ext->ptNoticeIcon){

  0004c	8b 45 f8	 mov	 eax, DWORD PTR _ext$[ebp]
  0004f	83 78 30 00	 cmp	 DWORD PTR [eax+48], 0
  00053	74 19		 je	 SHORT $LN4@setNpcNoti

; 3366 : 		DeathAction( ext->ptNoticeIcon);

  00055	8b 45 f8	 mov	 eax, DWORD PTR _ext$[ebp]
  00058	8b 48 30	 mov	 ecx, DWORD PTR [eax+48]
  0005b	51		 push	 ecx
  0005c	e8 00 00 00 00	 call	 ?DeathAction@@YAXPAUaction@@@Z ; DeathAction
  00061	83 c4 04	 add	 esp, 4

; 3367 : 		ext->ptNoticeIcon = NULL;

  00064	8b 45 f8	 mov	 eax, DWORD PTR _ext$[ebp]
  00067	c7 40 30 00 00
	00 00		 mov	 DWORD PTR [eax+48], 0
$LN4@setNpcNoti:

; 3368 : 	}
; 3369 : 	ext->ptNoticeIcon = createCommmonEffectAction( MindNo, ptAct->gx, ptAct->gy, 0, 0, DISP_PRIO_CHAR);

  0006e	6a 0a		 push	 10			; 0000000aH
  00070	6a 00		 push	 0
  00072	6a 00		 push	 0
  00074	8b 45 08	 mov	 eax, DWORD PTR _ptAct$[ebp]
  00077	8b 88 b8 00 00
	00		 mov	 ecx, DWORD PTR [eax+184]
  0007d	51		 push	 ecx
  0007e	8b 55 08	 mov	 edx, DWORD PTR _ptAct$[ebp]
  00081	8b 82 b4 00 00
	00		 mov	 eax, DWORD PTR [edx+180]
  00087	50		 push	 eax
  00088	8b 4d 0c	 mov	 ecx, DWORD PTR _MindNo$[ebp]
  0008b	51		 push	 ecx
  0008c	e8 00 00 00 00	 call	 ?createCommmonEffectAction@@YAPAUaction@@HHHHHH@Z ; createCommmonEffectAction
  00091	83 c4 18	 add	 esp, 24			; 00000018H
  00094	8b 55 f8	 mov	 edx, DWORD PTR _ext$[ebp]
  00097	89 42 30	 mov	 DWORD PTR [edx+48], eax
$LN1@setNpcNoti:

; 3370 : }

  0009a	5f		 pop	 edi
  0009b	5e		 pop	 esi
  0009c	5b		 pop	 ebx
  0009d	81 c4 cc 00 00
	00		 add	 esp, 204		; 000000ccH
  000a3	3b ec		 cmp	 ebp, esp
  000a5	e8 00 00 00 00	 call	 __RTC_CheckEsp
  000aa	8b e5		 mov	 esp, ebp
  000ac	5d		 pop	 ebp
  000ad	c3		 ret	 0
?setNpcNotice@@YAXPAUaction@@H@Z ENDP			; setNpcNotice
_TEXT	ENDS
; Function compile flags: /Odtp /RTCsu /ZI
; File c:\users\administrator\desktop\????? ??\????? ??\client source code\system\character.cpp
;	COMDAT ?delCharmTitle@@YAXPAUaction@@@Z
_TEXT	SEGMENT
_ext$ = -8						; size = 4
_ptAct$ = 8						; size = 4
?delCharmTitle@@YAXPAUaction@@@Z PROC			; delCharmTitle, COMDAT

; 3321 : {

  00000	55		 push	 ebp
  00001	8b ec		 mov	 ebp, esp
  00003	81 ec cc 00 00
	00		 sub	 esp, 204		; 000000ccH
  00009	53		 push	 ebx
  0000a	56		 push	 esi
  0000b	57		 push	 edi
  0000c	8d bd 34 ff ff
	ff		 lea	 edi, DWORD PTR [ebp-204]
  00012	b9 33 00 00 00	 mov	 ecx, 51			; 00000033H
  00017	b8 cc cc cc cc	 mov	 eax, -858993460		; ccccccccH
  0001c	f3 ab		 rep stosd

; 3322 : 	CHAREXTRA *ext;
; 3323 : 	if (ptAct == NULL)

  0001e	83 7d 08 00	 cmp	 DWORD PTR _ptAct$[ebp], 0
  00022	75 02		 jne	 SHORT $LN2@delCharmTi

; 3324 : 		return;

  00024	eb 2b		 jmp	 SHORT $LN1@delCharmTi
$LN2@delCharmTi:

; 3325 : 	ext = (CHAREXTRA *)ptAct->pYobi;

  00026	8b 45 08	 mov	 eax, DWORD PTR _ptAct$[ebp]
  00029	8b 48 0c	 mov	 ecx, DWORD PTR [eax+12]
  0002c	89 4d f8	 mov	 DWORD PTR _ext$[ebp], ecx

; 3326 : 	if (ext->ptTitleIcon) {

  0002f	8b 45 f8	 mov	 eax, DWORD PTR _ext$[ebp]
  00032	83 78 18 00	 cmp	 DWORD PTR [eax+24], 0
  00036	74 19		 je	 SHORT $LN1@delCharmTi

; 3327 : 		DeathAction(ext->ptTitleIcon);

  00038	8b 45 f8	 mov	 eax, DWORD PTR _ext$[ebp]
  0003b	8b 48 18	 mov	 ecx, DWORD PTR [eax+24]
  0003e	51		 push	 ecx
  0003f	e8 00 00 00 00	 call	 ?DeathAction@@YAXPAUaction@@@Z ; DeathAction
  00044	83 c4 04	 add	 esp, 4

; 3328 : 		ext->ptTitleIcon = NULL;

  00047	8b 45 f8	 mov	 eax, DWORD PTR _ext$[ebp]
  0004a	c7 40 18 00 00
	00 00		 mov	 DWORD PTR [eax+24], 0
$LN1@delCharmTi:

; 3329 : 	}
; 3330 : }

  00051	5f		 pop	 edi
  00052	5e		 pop	 esi
  00053	5b		 pop	 ebx
  00054	81 c4 cc 00 00
	00		 add	 esp, 204		; 000000ccH
  0005a	3b ec		 cmp	 ebp, esp
  0005c	e8 00 00 00 00	 call	 __RTC_CheckEsp
  00061	8b e5		 mov	 esp, ebp
  00063	5d		 pop	 ebp
  00064	c3		 ret	 0
?delCharmTitle@@YAXPAUaction@@@Z ENDP			; delCharmTitle
_TEXT	ENDS
; Function compile flags: /Odtp /RTCsu /ZI
; File c:\users\administrator\desktop\????? ??\????? ??\client source code\system\character.cpp
;	COMDAT ?setCharmTitle@@YAXPAUaction@@H@Z
_TEXT	SEGMENT
_ext$ = -8						; size = 4
_ptAct$ = 8						; size = 4
_MindNo$ = 12						; size = 4
?setCharmTitle@@YAXPAUaction@@H@Z PROC			; setCharmTitle, COMDAT

; 3303 : {

  00000	55		 push	 ebp
  00001	8b ec		 mov	 ebp, esp
  00003	81 ec cc 00 00
	00		 sub	 esp, 204		; 000000ccH
  00009	53		 push	 ebx
  0000a	56		 push	 esi
  0000b	57		 push	 edi
  0000c	8d bd 34 ff ff
	ff		 lea	 edi, DWORD PTR [ebp-204]
  00012	b9 33 00 00 00	 mov	 ecx, 51			; 00000033H
  00017	b8 cc cc cc cc	 mov	 eax, -858993460		; ccccccccH
  0001c	f3 ab		 rep stosd

; 3304 : 	//无称号图像时不显示
; 3305 : 	//if (SpriteData[MindNo - SPRSTART].animSize == 0) {
; 3306 : 		//return;
; 3307 : 	//}
; 3308 : 	CHAREXTRA *ext;
; 3309 : 	if (ptAct == NULL)

  0001e	83 7d 08 00	 cmp	 DWORD PTR _ptAct$[ebp], 0
  00022	75 02		 jne	 SHORT $LN2@setCharmTi

; 3310 : 		return;

  00024	eb 63		 jmp	 SHORT $LN1@setCharmTi
$LN2@setCharmTi:

; 3311 : 	ext = (CHAREXTRA *)ptAct->pYobi;

  00026	8b 45 08	 mov	 eax, DWORD PTR _ptAct$[ebp]
  00029	8b 48 0c	 mov	 ecx, DWORD PTR [eax+12]
  0002c	89 4d f8	 mov	 DWORD PTR _ext$[ebp], ecx

; 3312 : 	ptAct->称号图档编号 = MindNo;

  0002f	8b 45 08	 mov	 eax, DWORD PTR _ptAct$[ebp]
  00032	8b 4d 0c	 mov	 ecx, DWORD PTR _MindNo$[ebp]
  00035	89 88 c8 01 00
	00		 mov	 DWORD PTR [eax+456], ecx

; 3313 : 	if (ext->ptTitleIcon) {

  0003b	8b 45 f8	 mov	 eax, DWORD PTR _ext$[ebp]
  0003e	83 78 18 00	 cmp	 DWORD PTR [eax+24], 0
  00042	74 19		 je	 SHORT $LN3@setCharmTi

; 3314 : 		DeathAction(ext->ptTitleIcon);

  00044	8b 45 f8	 mov	 eax, DWORD PTR _ext$[ebp]
  00047	8b 48 18	 mov	 ecx, DWORD PTR [eax+24]
  0004a	51		 push	 ecx
  0004b	e8 00 00 00 00	 call	 ?DeathAction@@YAXPAUaction@@@Z ; DeathAction
  00050	83 c4 04	 add	 esp, 4

; 3315 : 		ext->ptTitleIcon = NULL;

  00053	8b 45 f8	 mov	 eax, DWORD PTR _ext$[ebp]
  00056	c7 40 18 00 00
	00 00		 mov	 DWORD PTR [eax+24], 0
$LN3@setCharmTi:

; 3316 : 	}
; 3317 : 	ext->ptTitleIcon = createCommmonEffectAction(MindNo, ptAct->gx, ptAct->gy, 0, 0, DISP_PRIO_CHAR);

  0005d	6a 0a		 push	 10			; 0000000aH
  0005f	6a 00		 push	 0
  00061	6a 00		 push	 0
  00063	8b 45 08	 mov	 eax, DWORD PTR _ptAct$[ebp]
  00066	8b 88 b8 00 00
	00		 mov	 ecx, DWORD PTR [eax+184]
  0006c	51		 push	 ecx
  0006d	8b 55 08	 mov	 edx, DWORD PTR _ptAct$[ebp]
  00070	8b 82 b4 00 00
	00		 mov	 eax, DWORD PTR [edx+180]
  00076	50		 push	 eax
  00077	8b 4d 0c	 mov	 ecx, DWORD PTR _MindNo$[ebp]
  0007a	51		 push	 ecx
  0007b	e8 00 00 00 00	 call	 ?createCommmonEffectAction@@YAPAUaction@@HHHHHH@Z ; createCommmonEffectAction
  00080	83 c4 18	 add	 esp, 24			; 00000018H
  00083	8b 55 f8	 mov	 edx, DWORD PTR _ext$[ebp]
  00086	89 42 18	 mov	 DWORD PTR [edx+24], eax
$LN1@setCharmTi:

; 3318 : }

  00089	5f		 pop	 edi
  0008a	5e		 pop	 esi
  0008b	5b		 pop	 ebx
  0008c	81 c4 cc 00 00
	00		 add	 esp, 204		; 000000ccH
  00092	3b ec		 cmp	 ebp, esp
  00094	e8 00 00 00 00	 call	 __RTC_CheckEsp
  00099	8b e5		 mov	 esp, ebp
  0009b	5d		 pop	 ebp
  0009c	c3		 ret	 0
?setCharmTitle@@YAXPAUaction@@H@Z ENDP			; setCharmTitle
_TEXT	ENDS
; Function compile flags: /Odtp /RTCsu /ZI
; File c:\users\administrator\desktop\????? ??\????? ??\client source code\system\character.cpp
;	COMDAT ?delCharmManor@@YAXPAUaction@@@Z
_TEXT	SEGMENT
_ext$ = -8						; size = 4
_ptAct$ = 8						; size = 4
?delCharmManor@@YAXPAUaction@@@Z PROC			; delCharmManor, COMDAT

; 3290 : {

  00000	55		 push	 ebp
  00001	8b ec		 mov	 ebp, esp
  00003	81 ec cc 00 00
	00		 sub	 esp, 204		; 000000ccH
  00009	53		 push	 ebx
  0000a	56		 push	 esi
  0000b	57		 push	 edi
  0000c	8d bd 34 ff ff
	ff		 lea	 edi, DWORD PTR [ebp-204]
  00012	b9 33 00 00 00	 mov	 ecx, 51			; 00000033H
  00017	b8 cc cc cc cc	 mov	 eax, -858993460		; ccccccccH
  0001c	f3 ab		 rep stosd

; 3291 : 	CHAREXTRA *ext;
; 3292 : 	if (ptAct == NULL)

  0001e	83 7d 08 00	 cmp	 DWORD PTR _ptAct$[ebp], 0
  00022	75 02		 jne	 SHORT $LN2@delCharmMa

; 3293 : 		return;

  00024	eb 2b		 jmp	 SHORT $LN1@delCharmMa
$LN2@delCharmMa:

; 3294 : 	ext = (CHAREXTRA *)ptAct->pYobi;

  00026	8b 45 08	 mov	 eax, DWORD PTR _ptAct$[ebp]
  00029	8b 48 0c	 mov	 ecx, DWORD PTR [eax+12]
  0002c	89 4d f8	 mov	 DWORD PTR _ext$[ebp], ecx

; 3295 : 	if (ext->ptmManorIcon) {

  0002f	8b 45 f8	 mov	 eax, DWORD PTR _ext$[ebp]
  00032	83 78 14 00	 cmp	 DWORD PTR [eax+20], 0
  00036	74 19		 je	 SHORT $LN1@delCharmMa

; 3296 : 		DeathAction(ext->ptmManorIcon);

  00038	8b 45 f8	 mov	 eax, DWORD PTR _ext$[ebp]
  0003b	8b 48 14	 mov	 ecx, DWORD PTR [eax+20]
  0003e	51		 push	 ecx
  0003f	e8 00 00 00 00	 call	 ?DeathAction@@YAXPAUaction@@@Z ; DeathAction
  00044	83 c4 04	 add	 esp, 4

; 3297 : 		ext->ptmManorIcon = NULL;

  00047	8b 45 f8	 mov	 eax, DWORD PTR _ext$[ebp]
  0004a	c7 40 14 00 00
	00 00		 mov	 DWORD PTR [eax+20], 0
$LN1@delCharmMa:

; 3298 : 	}
; 3299 : }

  00051	5f		 pop	 edi
  00052	5e		 pop	 esi
  00053	5b		 pop	 ebx
  00054	81 c4 cc 00 00
	00		 add	 esp, 204		; 000000ccH
  0005a	3b ec		 cmp	 ebp, esp
  0005c	e8 00 00 00 00	 call	 __RTC_CheckEsp
  00061	8b e5		 mov	 esp, ebp
  00063	5d		 pop	 ebp
  00064	c3		 ret	 0
?delCharmManor@@YAXPAUaction@@@Z ENDP			; delCharmManor
_TEXT	ENDS
; Function compile flags: /Odtp /RTCsu /ZI
; File c:\users\administrator\desktop\????? ??\????? ??\client source code\system\character.cpp
;	COMDAT ?setCharmManor@@YAXPAUaction@@H@Z
_TEXT	SEGMENT
_ext$ = -8						; size = 4
_ptAct$ = 8						; size = 4
_MindNo$ = 12						; size = 4
?setCharmManor@@YAXPAUaction@@H@Z PROC			; setCharmManor, COMDAT

; 3270 : {

  00000	55		 push	 ebp
  00001	8b ec		 mov	 ebp, esp
  00003	81 ec cc 00 00
	00		 sub	 esp, 204		; 000000ccH
  00009	53		 push	 ebx
  0000a	56		 push	 esi
  0000b	57		 push	 edi
  0000c	8d bd 34 ff ff
	ff		 lea	 edi, DWORD PTR [ebp-204]
  00012	b9 33 00 00 00	 mov	 ecx, 51			; 00000033H
  00017	b8 cc cc cc cc	 mov	 eax, -858993460		; ccccccccH
  0001c	f3 ab		 rep stosd

; 3271 : 	//无光环图像时不显示
; 3272 : 	if (SpriteData[MindNo - SPRSTART].animSize == 0) {

  0001e	8b 45 0c	 mov	 eax, DWORD PTR _MindNo$[ebp]
  00021	0f b7 0c c5 00
	cb f3 ff	 movzx	 ecx, WORD PTR ?SpriteData@@3PAUSPRITEDATA@@A[eax*8-800000]
  00029	85 c9		 test	 ecx, ecx
  0002b	75 02		 jne	 SHORT $LN2@setCharmMa

; 3273 : 		return;

  0002d	eb 6b		 jmp	 SHORT $LN1@setCharmMa
$LN2@setCharmMa:

; 3274 : 	}
; 3275 : 
; 3276 : 	CHAREXTRA *ext;
; 3277 : 	if (ptAct == NULL)

  0002f	83 7d 08 00	 cmp	 DWORD PTR _ptAct$[ebp], 0
  00033	75 02		 jne	 SHORT $LN3@setCharmMa

; 3278 : 		return;

  00035	eb 63		 jmp	 SHORT $LN1@setCharmMa
$LN3@setCharmMa:

; 3279 : 	ext = (CHAREXTRA *)ptAct->pYobi;

  00037	8b 45 08	 mov	 eax, DWORD PTR _ptAct$[ebp]
  0003a	8b 48 0c	 mov	 ecx, DWORD PTR [eax+12]
  0003d	89 4d f8	 mov	 DWORD PTR _ext$[ebp], ecx

; 3280 : 	ptAct->光环图档编号 = MindNo;

  00040	8b 45 08	 mov	 eax, DWORD PTR _ptAct$[ebp]
  00043	8b 4d 0c	 mov	 ecx, DWORD PTR _MindNo$[ebp]
  00046	89 88 c4 01 00
	00		 mov	 DWORD PTR [eax+452], ecx

; 3281 : 	
; 3282 : 
; 3283 : 	if (ext->ptmManorIcon) {

  0004c	8b 45 f8	 mov	 eax, DWORD PTR _ext$[ebp]
  0004f	83 78 14 00	 cmp	 DWORD PTR [eax+20], 0
  00053	74 19		 je	 SHORT $LN4@setCharmMa

; 3284 : 		DeathAction(ext->ptmManorIcon);

  00055	8b 45 f8	 mov	 eax, DWORD PTR _ext$[ebp]
  00058	8b 48 14	 mov	 ecx, DWORD PTR [eax+20]
  0005b	51		 push	 ecx
  0005c	e8 00 00 00 00	 call	 ?DeathAction@@YAXPAUaction@@@Z ; DeathAction
  00061	83 c4 04	 add	 esp, 4

; 3285 : 		ext->ptmManorIcon = NULL;

  00064	8b 45 f8	 mov	 eax, DWORD PTR _ext$[ebp]
  00067	c7 40 14 00 00
	00 00		 mov	 DWORD PTR [eax+20], 0
$LN4@setCharmMa:

; 3286 : 	}
; 3287 : 	ext->ptmManorIcon = createCommmonEffectAction(MindNo, ptAct->gx, ptAct->gy, 0, 0, DISP_PRIO_CHAR - 1);

  0006e	6a 09		 push	 9
  00070	6a 00		 push	 0
  00072	6a 00		 push	 0
  00074	8b 45 08	 mov	 eax, DWORD PTR _ptAct$[ebp]
  00077	8b 88 b8 00 00
	00		 mov	 ecx, DWORD PTR [eax+184]
  0007d	51		 push	 ecx
  0007e	8b 55 08	 mov	 edx, DWORD PTR _ptAct$[ebp]
  00081	8b 82 b4 00 00
	00		 mov	 eax, DWORD PTR [edx+180]
  00087	50		 push	 eax
  00088	8b 4d 0c	 mov	 ecx, DWORD PTR _MindNo$[ebp]
  0008b	51		 push	 ecx
  0008c	e8 00 00 00 00	 call	 ?createCommmonEffectAction@@YAPAUaction@@HHHHHH@Z ; createCommmonEffectAction
  00091	83 c4 18	 add	 esp, 24			; 00000018H
  00094	8b 55 f8	 mov	 edx, DWORD PTR _ext$[ebp]
  00097	89 42 14	 mov	 DWORD PTR [edx+20], eax
$LN1@setCharmMa:

; 3288 : }

  0009a	5f		 pop	 edi
  0009b	5e		 pop	 esi
  0009c	5b		 pop	 ebx
  0009d	81 c4 cc 00 00
	00		 add	 esp, 204		; 000000ccH
  000a3	3b ec		 cmp	 ebp, esp
  000a5	e8 00 00 00 00	 call	 __RTC_CheckEsp
  000aa	8b e5		 mov	 esp, ebp
  000ac	5d		 pop	 ebp
  000ad	c3		 ret	 0
?setCharmManor@@YAXPAUaction@@H@Z ENDP			; setCharmManor
_TEXT	ENDS
; Function compile flags: /Odtp /RTCsu /ZI
; File c:\program files (x86)\windows kits\10\include\10.0.10240.0\ucrt\string.h
;	COMDAT ?strstr@@YAPADQADQBD@Z
_TEXT	SEGMENT
__String$ = 8						; size = 4
__SubString$ = 12					; size = 4
?strstr@@YAPADQADQBD@Z PROC				; strstr, COMDAT

; 536  :     {

  00000	55		 push	 ebp
  00001	8b ec		 mov	 ebp, esp
  00003	81 ec c0 00 00
	00		 sub	 esp, 192		; 000000c0H
  00009	53		 push	 ebx
  0000a	56		 push	 esi
  0000b	57		 push	 edi
  0000c	8d bd 40 ff ff
	ff		 lea	 edi, DWORD PTR [ebp-192]
  00012	b9 30 00 00 00	 mov	 ecx, 48			; 00000030H
  00017	b8 cc cc cc cc	 mov	 eax, -858993460		; ccccccccH
  0001c	f3 ab		 rep stosd

; 537  :         return const_cast<char*>(strstr(static_cast<char const*>(_String), _SubString));

  0001e	8b f4		 mov	 esi, esp
  00020	8b 45 0c	 mov	 eax, DWORD PTR __SubString$[ebp]
  00023	50		 push	 eax
  00024	8b 4d 08	 mov	 ecx, DWORD PTR __String$[ebp]
  00027	51		 push	 ecx
  00028	ff 15 00 00 00
	00		 call	 DWORD PTR __imp__strstr
  0002e	83 c4 08	 add	 esp, 8
  00031	3b f4		 cmp	 esi, esp
  00033	e8 00 00 00 00	 call	 __RTC_CheckEsp

; 538  :     }

  00038	5f		 pop	 edi
  00039	5e		 pop	 esi
  0003a	5b		 pop	 ebx
  0003b	81 c4 c0 00 00
	00		 add	 esp, 192		; 000000c0H
  00041	3b ec		 cmp	 ebp, esp
  00043	e8 00 00 00 00	 call	 __RTC_CheckEsp
  00048	8b e5		 mov	 esp, ebp
  0004a	5d		 pop	 ebp
  0004b	c3		 ret	 0
?strstr@@YAPADQADQBD@Z ENDP				; strstr
_TEXT	ENDS
; Function compile flags: /Odtp /RTCsu /ZI
; File c:\program files (x86)\windows kits\10\include\10.0.10240.0\ucrt\stdio.h
;	COMDAT _sprintf
_TEXT	SEGMENT
__ArgList$ = -20					; size = 4
__Result$ = -8						; size = 4
__Buffer$ = 8						; size = 4
__Format$ = 12						; size = 4
_sprintf PROC						; COMDAT

; 1776 : {

  00000	55		 push	 ebp
  00001	8b ec		 mov	 ebp, esp
  00003	81 ec d8 00 00
	00		 sub	 esp, 216		; 000000d8H
  00009	53		 push	 ebx
  0000a	56		 push	 esi
  0000b	57		 push	 edi
  0000c	8d bd 28 ff ff
	ff		 lea	 edi, DWORD PTR [ebp-216]
  00012	b9 36 00 00 00	 mov	 ecx, 54			; 00000036H
  00017	b8 cc cc cc cc	 mov	 eax, -858993460		; ccccccccH
  0001c	f3 ab		 rep stosd

; 1777 :     int _Result;
; 1778 :     va_list _ArgList;
; 1779 :     __crt_va_start(_ArgList, _Format);

  0001e	e8 00 00 00 00	 call	 ??$__vcrt_va_start_verify_argument_type@QBD@@YAXXZ ; __vcrt_va_start_verify_argument_type<char const * const>
  00023	8d 45 10	 lea	 eax, DWORD PTR __Format$[ebp+4]
  00026	89 45 ec	 mov	 DWORD PTR __ArgList$[ebp], eax

; 1780 : 
; 1781 :     #pragma warning(push)
; 1782 :     #pragma warning(disable: 4996) // Deprecation
; 1783 :     _Result = _vsprintf_l(_Buffer, _Format, NULL, _ArgList);

  00029	8b 45 ec	 mov	 eax, DWORD PTR __ArgList$[ebp]
  0002c	50		 push	 eax
  0002d	6a 00		 push	 0
  0002f	8b 4d 0c	 mov	 ecx, DWORD PTR __Format$[ebp]
  00032	51		 push	 ecx
  00033	8b 55 08	 mov	 edx, DWORD PTR __Buffer$[ebp]
  00036	52		 push	 edx
  00037	e8 00 00 00 00	 call	 __vsprintf_l
  0003c	83 c4 10	 add	 esp, 16			; 00000010H
  0003f	89 45 f8	 mov	 DWORD PTR __Result$[ebp], eax

; 1784 :     #pragma warning(pop)
; 1785 : 
; 1786 :     __crt_va_end(_ArgList);

  00042	c7 45 ec 00 00
	00 00		 mov	 DWORD PTR __ArgList$[ebp], 0

; 1787 :     return _Result;

  00049	8b 45 f8	 mov	 eax, DWORD PTR __Result$[ebp]

; 1788 : }

  0004c	5f		 pop	 edi
  0004d	5e		 pop	 esi
  0004e	5b		 pop	 ebx
  0004f	81 c4 d8 00 00
	00		 add	 esp, 216		; 000000d8H
  00055	3b ec		 cmp	 ebp, esp
  00057	e8 00 00 00 00	 call	 __RTC_CheckEsp
  0005c	8b e5		 mov	 esp, ebp
  0005e	5d		 pop	 ebp
  0005f	c3		 ret	 0
_sprintf ENDP
_TEXT	ENDS
; Function compile flags: /Odtp /RTCsu /ZI
; File c:\program files (x86)\windows kits\10\include\10.0.10240.0\ucrt\stdio.h
;	COMDAT __vsprintf_l
_TEXT	SEGMENT
__Buffer$ = 8						; size = 4
__Format$ = 12						; size = 4
__Locale$ = 16						; size = 4
__ArgList$ = 20						; size = 4
__vsprintf_l PROC					; COMDAT

; 1455 : {

  00000	55		 push	 ebp
  00001	8b ec		 mov	 ebp, esp
  00003	81 ec c0 00 00
	00		 sub	 esp, 192		; 000000c0H
  00009	53		 push	 ebx
  0000a	56		 push	 esi
  0000b	57		 push	 edi
  0000c	8d bd 40 ff ff
	ff		 lea	 edi, DWORD PTR [ebp-192]
  00012	b9 30 00 00 00	 mov	 ecx, 48			; 00000030H
  00017	b8 cc cc cc cc	 mov	 eax, -858993460		; ccccccccH
  0001c	f3 ab		 rep stosd

; 1456 :     #pragma warning(push)
; 1457 :     #pragma warning(disable: 4996) // Deprecation
; 1458 :     return _vsnprintf_l(_Buffer, (size_t)-1, _Format, _Locale, _ArgList);

  0001e	8b 45 14	 mov	 eax, DWORD PTR __ArgList$[ebp]
  00021	50		 push	 eax
  00022	8b 4d 10	 mov	 ecx, DWORD PTR __Locale$[ebp]
  00025	51		 push	 ecx
  00026	8b 55 0c	 mov	 edx, DWORD PTR __Format$[ebp]
  00029	52		 push	 edx
  0002a	6a ff		 push	 -1
  0002c	8b 45 08	 mov	 eax, DWORD PTR __Buffer$[ebp]
  0002f	50		 push	 eax
  00030	e8 00 00 00 00	 call	 __vsnprintf_l
  00035	83 c4 14	 add	 esp, 20			; 00000014H

; 1459 :     #pragma warning(pop)
; 1460 : }

  00038	5f		 pop	 edi
  00039	5e		 pop	 esi
  0003a	5b		 pop	 ebx
  0003b	81 c4 c0 00 00
	00		 add	 esp, 192		; 000000c0H
  00041	3b ec		 cmp	 ebp, esp
  00043	e8 00 00 00 00	 call	 __RTC_CheckEsp
  00048	8b e5		 mov	 esp, ebp
  0004a	5d		 pop	 ebp
  0004b	c3		 ret	 0
__vsprintf_l ENDP
_TEXT	ENDS
; Function compile flags: /Odtp /RTCsu /ZI
; File c:\program files (x86)\windows kits\10\include\10.0.10240.0\ucrt\stdio.h
;	COMDAT __vsnprintf_l
_TEXT	SEGMENT
tv74 = -208						; size = 4
__Result$ = -8						; size = 4
__Buffer$ = 8						; size = 4
__BufferCount$ = 12					; size = 4
__Format$ = 16						; size = 4
__Locale$ = 20						; size = 4
__ArgList$ = 24						; size = 4
__vsnprintf_l PROC					; COMDAT

; 1385 : {

  00000	55		 push	 ebp
  00001	8b ec		 mov	 ebp, esp
  00003	81 ec d0 00 00
	00		 sub	 esp, 208		; 000000d0H
  00009	53		 push	 ebx
  0000a	56		 push	 esi
  0000b	57		 push	 edi
  0000c	8d bd 30 ff ff
	ff		 lea	 edi, DWORD PTR [ebp-208]
  00012	b9 34 00 00 00	 mov	 ecx, 52			; 00000034H
  00017	b8 cc cc cc cc	 mov	 eax, -858993460		; ccccccccH
  0001c	f3 ab		 rep stosd

; 1386 :     int const _Result = __stdio_common_vsprintf(

  0001e	8b f4		 mov	 esi, esp
  00020	8b 45 18	 mov	 eax, DWORD PTR __ArgList$[ebp]
  00023	50		 push	 eax
  00024	8b 4d 14	 mov	 ecx, DWORD PTR __Locale$[ebp]
  00027	51		 push	 ecx
  00028	8b 55 10	 mov	 edx, DWORD PTR __Format$[ebp]
  0002b	52		 push	 edx
  0002c	8b 45 0c	 mov	 eax, DWORD PTR __BufferCount$[ebp]
  0002f	50		 push	 eax
  00030	8b 4d 08	 mov	 ecx, DWORD PTR __Buffer$[ebp]
  00033	51		 push	 ecx
  00034	e8 00 00 00 00	 call	 ___local_stdio_printf_options
  00039	8b 10		 mov	 edx, DWORD PTR [eax]
  0003b	83 ca 01	 or	 edx, 1
  0003e	8b 40 04	 mov	 eax, DWORD PTR [eax+4]
  00041	50		 push	 eax
  00042	52		 push	 edx
  00043	ff 15 00 00 00
	00		 call	 DWORD PTR __imp____stdio_common_vsprintf
  00049	83 c4 1c	 add	 esp, 28			; 0000001cH
  0004c	3b f4		 cmp	 esi, esp
  0004e	e8 00 00 00 00	 call	 __RTC_CheckEsp
  00053	89 45 f8	 mov	 DWORD PTR __Result$[ebp], eax

; 1387 :         _CRT_INTERNAL_LOCAL_PRINTF_OPTIONS | _CRT_INTERNAL_PRINTF_LEGACY_VSPRINTF_NULL_TERMINATION,
; 1388 :         _Buffer, _BufferCount, _Format, _Locale, _ArgList);
; 1389 : 
; 1390 :     return _Result < 0 ? -1 : _Result;

  00056	83 7d f8 00	 cmp	 DWORD PTR __Result$[ebp], 0
  0005a	7d 0c		 jge	 SHORT $LN3@vsnprintf_
  0005c	c7 85 30 ff ff
	ff ff ff ff ff	 mov	 DWORD PTR tv74[ebp], -1
  00066	eb 09		 jmp	 SHORT $LN4@vsnprintf_
$LN3@vsnprintf_:
  00068	8b 45 f8	 mov	 eax, DWORD PTR __Result$[ebp]
  0006b	89 85 30 ff ff
	ff		 mov	 DWORD PTR tv74[ebp], eax
$LN4@vsnprintf_:
  00071	8b 85 30 ff ff
	ff		 mov	 eax, DWORD PTR tv74[ebp]

; 1391 : }

  00077	5f		 pop	 edi
  00078	5e		 pop	 esi
  00079	5b		 pop	 ebx
  0007a	81 c4 d0 00 00
	00		 add	 esp, 208		; 000000d0H
  00080	3b ec		 cmp	 ebp, esp
  00082	e8 00 00 00 00	 call	 __RTC_CheckEsp
  00087	8b e5		 mov	 esp, ebp
  00089	5d		 pop	 ebp
  0008a	c3		 ret	 0
__vsnprintf_l ENDP
_TEXT	ENDS
; Function compile flags: /Odtp /RTCsu /ZI
; File c:\program files (x86)\microsoft visual studio 14.0\vc\include\vadefs.h
;	COMDAT ??$__vcrt_va_start_verify_argument_type@QBD@@YAXXZ
_TEXT	SEGMENT
??$__vcrt_va_start_verify_argument_type@QBD@@YAXXZ PROC	; __vcrt_va_start_verify_argument_type<char const * const>, COMDAT

; 144  :         {

  00000	55		 push	 ebp
  00001	8b ec		 mov	 ebp, esp
  00003	81 ec c0 00 00
	00		 sub	 esp, 192		; 000000c0H
  00009	53		 push	 ebx
  0000a	56		 push	 esi
  0000b	57		 push	 edi
  0000c	8d bd 40 ff ff
	ff		 lea	 edi, DWORD PTR [ebp-192]
  00012	b9 30 00 00 00	 mov	 ecx, 48			; 00000030H
  00017	b8 cc cc cc cc	 mov	 eax, -858993460		; ccccccccH
  0001c	f3 ab		 rep stosd

; 145  :             static_assert(!__vcrt_va_list_is_reference<_Ty>::__the_value, "va_start argument must not have reference type and must not be parenthesized");
; 146  :         }

  0001e	5f		 pop	 edi
  0001f	5e		 pop	 esi
  00020	5b		 pop	 ebx
  00021	8b e5		 mov	 esp, ebp
  00023	5d		 pop	 ebp
  00024	c3		 ret	 0
??$__vcrt_va_start_verify_argument_type@QBD@@YAXXZ ENDP	; __vcrt_va_start_verify_argument_type<char const * const>
_TEXT	ENDS
; Function compile flags: /Odtp /RTCsu /ZI
; File c:\program files (x86)\windows kits\10\include\10.0.10240.0\ucrt\corecrt_stdio_config.h
;	COMDAT ___local_stdio_printf_options
_TEXT	SEGMENT
___local_stdio_printf_options PROC			; COMDAT

; 73   : {

  00000	55		 push	 ebp
  00001	8b ec		 mov	 ebp, esp
  00003	81 ec c0 00 00
	00		 sub	 esp, 192		; 000000c0H
  00009	53		 push	 ebx
  0000a	56		 push	 esi
  0000b	57		 push	 edi
  0000c	8d bd 40 ff ff
	ff		 lea	 edi, DWORD PTR [ebp-192]
  00012	b9 30 00 00 00	 mov	 ecx, 48			; 00000030H
  00017	b8 cc cc cc cc	 mov	 eax, -858993460		; ccccccccH
  0001c	f3 ab		 rep stosd

; 74   :     static unsigned __int64 _OptionsStorage;
; 75   :     return &_OptionsStorage;

  0001e	b8 00 00 00 00	 mov	 eax, OFFSET ?_OptionsStorage@?1??__local_stdio_printf_options@@9@4_KA ; `__local_stdio_printf_options'::`2'::_OptionsStorage

; 76   : }

  00023	5f		 pop	 edi
  00024	5e		 pop	 esi
  00025	5b		 pop	 ebx
  00026	8b e5		 mov	 esp, ebp
  00028	5d		 pop	 ebp
  00029	c3		 ret	 0
___local_stdio_printf_options ENDP
_TEXT	ENDS
END
