; Listing generated by Microsoft (R) Optimizing Compiler Version 19.00.24215.1 

	TITLE	C:\Users\Administrator\Desktop\????? ??\????? ??\Client Source Code\system\character.cpp
	.686P
	.XMM
	include listing.inc
	.model	flat

INCLUDELIB MSVCRTD
INCLUDELIB OLDNAMES

PUBLIC	?nameOverTheHeadFlag@@3FA			; nameOverTheHeadFlag
PUBLIC	?charObj@@3PAUCHAROBJ@@A			; charObj
PUBLIC	?maxCharObj@@3HA				; maxCharObj
PUBLIC	?tailCharObj@@3HA				; tailCharObj
PUBLIC	?freeCharObj@@3HA				; freeCharObj
PUBLIC	?searchCharObj@@3HA				; searchCharObj
PUBLIC	?popflag@@3_NA					; popflag
PUBLIC	?waittimeflag@@3_NA				; waittimeflag
PUBLIC	?waittime@@3HA					; waittime
PUBLIC	?charIconOffsetY@@3PAHA				; charIconOffsetY
PUBLIC	?battleIconTbl@@3PAY01HA			; battleIconTbl
PUBLIC	?itemOverlapTbl@@3PAUITEM_OVERLAP_CHECK@@A	; itemOverlapTbl
PUBLIC	?itemOverlapCheckCnt@@3HA			; itemOverlapCheckCnt
_BSS	SEGMENT
?charObj@@3PAUCHAROBJ@@A DB 062250H DUP (?)		; charObj
?maxCharObj@@3HA DD 01H DUP (?)				; maxCharObj
?tailCharObj@@3HA DD 01H DUP (?)			; tailCharObj
?freeCharObj@@3HA DD 01H DUP (?)			; freeCharObj
?searchCharObj@@3HA DD 01H DUP (?)			; searchCharObj
?popflag@@3_NA DB 01H DUP (?)				; popflag
	ALIGN	4

?waittimeflag@@3_NA DB 01H DUP (?)			; waittimeflag
	ALIGN	4

?waittime@@3HA DD 01H DUP (?)				; waittime
?itemOverlapTbl@@3PAUITEM_OVERLAP_CHECK@@A DB 04b0H DUP (?) ; itemOverlapTbl
?itemOverlapCheckCnt@@3HA DD 01H DUP (?)		; itemOverlapCheckCnt
_BSS	ENDS
_DATA	SEGMENT
?nameOverTheHeadFlag@@3FA DW 01H			; nameOverTheHeadFlag
	ORG $+6
?ridePetTable@@3PAUtagRidePetTable@@A DD 018a88H	; ridePetTable
	DD	0186a0H
	DD	018800H
	DD	00H
	DD	018a89H
	DD	0186a5H
	DD	018800H
	DD	00H
	DD	018a8aH
	DD	0186aaH
	DD	018800H
	DD	00H
	DD	018a8bH
	DD	0186afH
	DD	018800H
	DD	00H
	DD	018a8cH
	DD	0186a0H
	DD	0187e9H
	DD	00H
	DD	018a8dH
	DD	0186a5H
	DD	0187e7H
	DD	00H
	DD	018a8eH
	DD	0186aaH
	DD	0187eaH
	DD	00H
	DD	018a8fH
	DD	0186afH
	DD	0187e8H
	DD	00H
	DD	018a90H
	DD	01895cH
	DD	018814H
	DD	00H
	DD	018a91H
	DD	018961H
	DD	018815H
	DD	00H
	DD	018e65H
	DD	018961H
	DD	018cc8H
	DD	00H
	DD	018e5aH
	DD	018961H
	DD	018c9cH
	DD	00H
	DD	018a92H
	DD	0186b4H
	DD	01882cH
	DD	00H
	DD	018a93H
	DD	0186b9H
	DD	01882cH
	DD	00H
	DD	018a94H
	DD	0186beH
	DD	01882cH
	DD	00H
	DD	018a95H
	DD	0186c3H
	DD	01882cH
	DD	00H
	DD	018a96H
	DD	0186b4H
	DD	0187e8H
	DD	00H
	DD	018a97H
	DD	0186b9H
	DD	0187e9H
	DD	00H
	DD	018a98H
	DD	0186beH
	DD	0187e7H
	DD	00H
	DD	018a99H
	DD	0186c3H
	DD	0187eaH
	DD	00H
	DD	018a9aH
	DD	018966H
	DD	018814H
	DD	00H
	DD	018a9bH
	DD	01896bH
	DD	018815H
	DD	00H
	DD	018e64H
	DD	01896bH
	DD	018cc8H
	DD	00H
	DD	018e62H
	DD	01896bH
	DD	018c9cH
	DD	00H
	DD	018a9cH
	DD	0186c8H
	DD	0187ffH
	DD	00H
	DD	018a9dH
	DD	0186cdH
	DD	0187ffH
	DD	00H
	DD	018a9eH
	DD	0186d2H
	DD	0187ffH
	DD	00H
	DD	018a9fH
	DD	0186d7H
	DD	0187ffH
	DD	00H
	DD	018aa0H
	DD	0186c8H
	DD	0187e8H
	DD	00H
	DD	018aa1H
	DD	0186cdH
	DD	0187eaH
	DD	00H
	DD	018aa2H
	DD	0186d2H
	DD	0187e7H
	DD	00H
	DD	018aa3H
	DD	0186d7H
	DD	0187e9H
	DD	00H
	DD	018aa4H
	DD	018970H
	DD	018814H
	DD	00H
	DD	018aa5H
	DD	018975H
	DD	018815H
	DD	00H
	DD	018e4dH
	DD	018975H
	DD	018cc8H
	DD	00H
	DD	018e57H
	DD	018975H
	DD	018c9cH
	DD	00H
	DD	018aa6H
	DD	0186dcH
	DD	018801H
	DD	00H
	DD	018aa7H
	DD	0186e1H
	DD	018801H
	DD	00H
	DD	018aa8H
	DD	0186e6H
	DD	018801H
	DD	00H
	DD	018aa9H
	DD	0186ebH
	DD	018801H
	DD	00H
	DD	018aaaH
	DD	0186dcH
	DD	0187e9H
	DD	00H
	DD	018aabH
	DD	0186e1H
	DD	0187e7H
	DD	00H
	DD	018aacH
	DD	0186e6H
	DD	0187eaH
	DD	00H
	DD	018aadH
	DD	0186ebH
	DD	0187e8H
	DD	00H
	DD	018aaeH
	DD	01897aH
	DD	018814H
	DD	00H
	DD	018aafH
	DD	01897fH
	DD	018815H
	DD	00H
	DD	018e4eH
	DD	01897fH
	DD	018cc8H
	DD	00H
	DD	018e58H
	DD	01897fH
	DD	018c9cH
	DD	00H
	DD	018ab0H
	DD	0186f0H
	DD	01882cH
	DD	00H
	DD	018ab1H
	DD	0186f5H
	DD	01882cH
	DD	00H
	DD	018ab2H
	DD	0186faH
	DD	01882cH
	DD	00H
	DD	018ab3H
	DD	0186ffH
	DD	01882cH
	DD	00H
	DD	018ab4H
	DD	0186f0H
	DD	0187e8H
	DD	00H
	DD	018ab5H
	DD	0186f5H
	DD	0187e7H
	DD	00H
	DD	018ab6H
	DD	0186faH
	DD	0187eaH
	DD	00H
	DD	018ab7H
	DD	0186ffH
	DD	0187e9H
	DD	00H
	DD	018ab8H
	DD	018984H
	DD	018814H
	DD	00H
	DD	018ab9H
	DD	018989H
	DD	018815H
	DD	00H
	DD	018e55H
	DD	018989H
	DD	018cc8H
	DD	00H
	DD	018e60H
	DD	018989H
	DD	018c9cH
	DD	00H
	DD	018abaH
	DD	018704H
	DD	018801H
	DD	00H
	DD	018abbH
	DD	018709H
	DD	018801H
	DD	00H
	DD	018abcH
	DD	01870eH
	DD	018801H
	DD	00H
	DD	018abdH
	DD	018713H
	DD	018801H
	DD	00H
	DD	018abeH
	DD	018704H
	DD	0187e9H
	DD	00H
	DD	018abfH
	DD	018709H
	DD	0187e8H
	DD	00H
	DD	018ac0H
	DD	01870eH
	DD	0187eaH
	DD	00H
	DD	018ac1H
	DD	018713H
	DD	0187e7H
	DD	00H
	DD	018ac2H
	DD	01898eH
	DD	018814H
	DD	00H
	DD	018ac3H
	DD	018993H
	DD	018815H
	DD	00H
	DD	018e56H
	DD	018993H
	DD	018cc8H
	DD	00H
	DD	018e61H
	DD	018993H
	DD	018c9cH
	DD	00H
	DD	018ac4H
	DD	018718H
	DD	018802H
	DD	00H
	DD	018ac5H
	DD	01871dH
	DD	018802H
	DD	00H
	DD	018ac6H
	DD	018722H
	DD	018802H
	DD	00H
	DD	018ac7H
	DD	018727H
	DD	018802H
	DD	00H
	DD	018ac8H
	DD	018718H
	DD	0187e7H
	DD	00H
	DD	018ac9H
	DD	01871dH
	DD	0187eaH
	DD	00H
	DD	018acaH
	DD	018722H
	DD	0187e8H
	DD	00H
	DD	018acbH
	DD	018727H
	DD	0187e9H
	DD	00H
	DD	018accH
	DD	018998H
	DD	018814H
	DD	00H
	DD	018acdH
	DD	01899dH
	DD	018815H
	DD	00H
	DD	018e4fH
	DD	01899dH
	DD	018cc8H
	DD	00H
	DD	018e59H
	DD	01899dH
	DD	018c9cH
	DD	00H
	DD	018aceH
	DD	01872cH
	DD	018802H
	DD	00H
	DD	018acfH
	DD	018731H
	DD	018802H
	DD	00H
	DD	018ad0H
	DD	018736H
	DD	018802H
	DD	00H
	DD	018ad1H
	DD	01873bH
	DD	018802H
	DD	00H
	DD	018ad2H
	DD	01872cH
	DD	0187e7H
	DD	00H
	DD	018ad3H
	DD	018731H
	DD	0187e9H
	DD	00H
	DD	018ad4H
	DD	018736H
	DD	0187eaH
	DD	00H
	DD	018ad5H
	DD	01873bH
	DD	0187e8H
	DD	00H
	DD	018ad6H
	DD	0189a2H
	DD	018814H
	DD	00H
	DD	018ad7H
	DD	0189a7H
	DD	018815H
	DD	00H
	DD	018e50H
	DD	0189a7H
	DD	018cc8H
	DD	00H
	DD	018e5bH
	DD	0189a7H
	DD	018c9cH
	DD	00H
	DD	018ad8H
	DD	018740H
	DD	018800H
	DD	00H
	DD	018ad9H
	DD	018745H
	DD	018800H
	DD	00H
	DD	018adaH
	DD	01874aH
	DD	018800H
	DD	00H
	DD	018adbH
	DD	01874fH
	DD	018800H
	DD	00H
	DD	018adcH
	DD	018740H
	DD	0187eaH
	DD	00H
	DD	018addH
	DD	018745H
	DD	0187e9H
	DD	00H
	DD	018adeH
	DD	01874aH
	DD	0187e7H
	DD	00H
	DD	018adfH
	DD	01874fH
	DD	0187e8H
	DD	00H
	DD	018ae0H
	DD	0189acH
	DD	018814H
	DD	00H
	DD	018ae1H
	DD	0189b1H
	DD	018815H
	DD	00H
	DD	018e52H
	DD	0189b1H
	DD	018cc8H
	DD	00H
	DD	018e5dH
	DD	0189b1H
	DD	018c9cH
	DD	00H
	DD	018ae2H
	DD	018754H
	DD	0187ffH
	DD	00H
	DD	018ae3H
	DD	018759H
	DD	0187ffH
	DD	00H
	DD	018ae4H
	DD	01875eH
	DD	0187ffH
	DD	00H
	DD	018ae5H
	DD	018763H
	DD	0187ffH
	DD	00H
	DD	018ae6H
	DD	018754H
	DD	0187e8H
	DD	00H
	DD	018ae7H
	DD	018759H
	DD	0187eaH
	DD	00H
	DD	018ae8H
	DD	01875eH
	DD	0187e9H
	DD	00H
	DD	018ae9H
	DD	018763H
	DD	0187e7H
	DD	00H
	DD	018aeaH
	DD	0189b6H
	DD	018814H
	DD	00H
	DD	018aebH
	DD	0189bbH
	DD	018815H
	DD	00H
	DD	018e51H
	DD	0189bbH
	DD	018cc8H
	DD	00H
	DD	018e5cH
	DD	0189bbH
	DD	018c9cH
	DD	00H
	DD	018aecH
	DD	018768H
	DD	018801H
	DD	00H
	DD	018aedH
	DD	01876dH
	DD	018801H
	DD	00H
	DD	018aeeH
	DD	018772H
	DD	018801H
	DD	00H
	DD	018aefH
	DD	018777H
	DD	018801H
	DD	00H
	DD	018af0H
	DD	018768H
	DD	0187e9H
	DD	00H
	DD	018af1H
	DD	01876dH
	DD	0187e8H
	DD	00H
	DD	018af2H
	DD	018772H
	DD	0187e7H
	DD	00H
	DD	018af3H
	DD	018777H
	DD	0187eaH
	DD	00H
	DD	018af4H
	DD	0189c0H
	DD	018814H
	DD	00H
	DD	018af5H
	DD	0189c5H
	DD	018815H
	DD	00H
	DD	018e54H
	DD	0189c5H
	DD	018cc8H
	DD	00H
	DD	018e5fH
	DD	0189c5H
	DD	018c9cH
	DD	00H
	DD	018af6H
	DD	01877cH
	DD	01882cH
	DD	00H
	DD	018af7H
	DD	018781H
	DD	01882cH
	DD	00H
	DD	018af8H
	DD	018786H
	DD	01882cH
	DD	00H
	DD	018af9H
	DD	01878bH
	DD	01882cH
	DD	00H
	DD	018afaH
	DD	01877cH
	DD	0187eaH
	DD	00H
	DD	018afbH
	DD	018781H
	DD	0187e7H
	DD	00H
	DD	018afcH
	DD	018786H
	DD	0187e9H
	DD	00H
	DD	018afdH
	DD	01878bH
	DD	0187e8H
	DD	00H
	DD	018afeH
	DD	0189caH
	DD	018814H
	DD	00H
	DD	018affH
	DD	0189cfH
	DD	018815H
	DD	00H
	DD	018e53H
	DD	0189cfH
	DD	018cc8H
	DD	00H
	DD	018e5eH
	DD	0189cfH
	DD	018c9cH
	DD	00H
	DD	018b3bH
	DD	018b39H
	DD	018b3aH
	DD	00H
	DD	018b3bH
	DD	018b3aH
	DD	018b39H
	DD	00H
?FontPal@@3PAKA DD 0ffffffH				; FontPal
	DD	0ffff00H
	DD	0ff00ffH
	DD	0ff0000H
	DD	0ffffH
	DD	0ff00H
	DD	0ffH
	DD	0a4a0a0H
	DD	0f0caa6H
	DD	0c0dcc0H
	DD	08cffH
	DD	0247fffH
?RideCodeMode@@3PAUtagRideCodeMode@@A DD 018816H	; RideCodeMode
	DD	01H
	DD	018806H
	DD	02H
	DD	01880aH
	DD	04H
	DD	0187b7H
	DD	08H
	DD	0187c0H
	DD	010H
	DD	0187bbH
	DD	020H
	DD	0187faH
	DD	040H
	DD	0187d6H
	DD	080H
	DD	018814H
	DD	0100H
	DD	018815H
	DD	0200H
	DD	018c9cH
	DD	0800H
	DD	018cc8H
	DD	0400H
	DD	018812H
	DD	01000H
	DD	018811H
	DD	02000H
	DD	018a28H
	DD	04000H
	DD	018a2bH
	DD	08000H
	DD	018f30H
	DD	010000H
	DD	018f31H
	DD	020000H
	DD	018f68H
	DD	040000H
	DD	0187fcH
	DD	080000H
	DD	0187d3H
	DD	0100000H
	DD	018fa9H
	DD	0200000H
	DD	018faaH
	DD	0400000H
	DD	018a09H
	DD	0800000H
	DD	018a0aH
	DD	01000000H
	DD	019394H
	DD	02000000H
	DD	0187b2H
	DD	04000000H
?RideNoList@@3PAUtagRideNoList@@A DD 018bb9H		; RideNoList
	DD	018bbaH
	DD	018bbbH
	DD	018bbcH
	DD	018bbdH
	DD	018bbeH
	DD	018bbfH
	DD	018bc0H
	DD	018a90H
	DD	018a91H
	DD	018e5aH
	DD	018e65H
	DD	018849H
	DD	018844H
	DD	01885dH
	DD	018ee5H
	DD	018f0dH
	DD	018f19H
	DD	018f76H
	ORG $+32
	DD	018bc1H
	DD	018bc2H
	DD	018bc3H
	DD	018bc4H
	DD	018bc5H
	DD	018bc6H
	DD	018bc7H
	DD	018bc8H
	DD	018a9aH
	DD	018a9bH
	DD	018e62H
	DD	018e64H
	DD	018849H
	DD	018844H
	DD	01885dH
	DD	018ee6H
	DD	018f0eH
	DD	018f1aH
	DD	018f77H
	ORG $+32
	DD	018bc9H
	DD	018bcaH
	DD	018bcbH
	DD	018bccH
	DD	018bcdH
	DD	018bceH
	DD	018bcfH
	DD	018bd0H
	DD	018aa4H
	DD	018aa5H
	DD	018e57H
	DD	018e4dH
	DD	018849H
	DD	018844H
	DD	01885dH
	DD	018ee7H
	DD	018f0fH
	DD	018f1bH
	DD	018f78H
	ORG $+32
	DD	018bd1H
	DD	018bd2H
	DD	018bd3H
	DD	018bd4H
	DD	018bd5H
	DD	018bd6H
	DD	018bd7H
	DD	018bd8H
	DD	018aaeH
	DD	018aafH
	DD	018e58H
	DD	018e4eH
	DD	018849H
	DD	018844H
	DD	01885dH
	DD	018ee8H
	DD	018f10H
	DD	018f1cH
	DD	018f79H
	ORG $+32
	DD	018bd9H
	DD	018bdaH
	DD	018bdbH
	DD	018bdcH
	DD	018bddH
	DD	018bdeH
	DD	018bdfH
	DD	018be0H
	DD	018ab8H
	DD	018ab9H
	DD	018e60H
	DD	018e55H
	DD	018849H
	DD	018844H
	DD	01885dH
	DD	018ee9H
	DD	018f11H
	DD	018f1dH
	DD	018f7aH
	ORG $+32
	DD	018be1H
	DD	018be2H
	DD	018be3H
	DD	018be4H
	DD	018be5H
	DD	018be6H
	DD	018be7H
	DD	018be8H
	DD	018ac2H
	DD	018ac3H
	DD	018e61H
	DD	018e56H
	DD	018849H
	DD	018844H
	DD	01885dH
	DD	018eeaH
	DD	018f12H
	DD	018f1eH
	DD	018f7bH
	ORG $+32
	DD	018be9H
	DD	018beaH
	DD	018bebH
	DD	018becH
	DD	018bedH
	DD	018beeH
	DD	018befH
	DD	018bf0H
	DD	018accH
	DD	018acdH
	DD	018e59H
	DD	018e4fH
	DD	018849H
	DD	018844H
	DD	01885dH
	DD	018eebH
	DD	018f13H
	DD	018f1fH
	DD	018f7cH
	ORG $+32
	DD	018bf1H
	DD	018bf2H
	DD	018bf3H
	DD	018bf4H
	DD	018bf5H
	DD	018bf6H
	DD	018bf7H
	DD	018bf8H
	DD	018ad6H
	DD	018ad7H
	DD	018e5bH
	DD	018e50H
	DD	018849H
	DD	018844H
	DD	01885dH
	DD	018eecH
	DD	018f14H
	DD	018f20H
	DD	018f7dH
	ORG $+32
	DD	018bf9H
	DD	018bfaH
	DD	018bfbH
	DD	018bfcH
	DD	018bfdH
	DD	018bfeH
	DD	018bffH
	DD	018c00H
	DD	018ae0H
	DD	018ae1H
	DD	018e5dH
	DD	018e52H
	DD	018849H
	DD	018844H
	DD	01885dH
	DD	018eedH
	DD	018f15H
	DD	018f21H
	DD	018f7eH
	ORG $+32
	DD	018c01H
	DD	018c02H
	DD	018c03H
	DD	018c04H
	DD	018c05H
	DD	018c06H
	DD	018c07H
	DD	018c08H
	DD	018aeaH
	DD	018aebH
	DD	018e5cH
	DD	018e51H
	DD	018849H
	DD	018844H
	DD	01885dH
	DD	018eeeH
	DD	018f16H
	DD	018f22H
	DD	018f7fH
	ORG $+32
	DD	018c09H
	DD	018c0aH
	DD	018c0bH
	DD	018c0cH
	DD	018c0dH
	DD	018c0eH
	DD	018c0fH
	DD	018c10H
	DD	018af4H
	DD	018af5H
	DD	018e5fH
	DD	018e54H
	DD	018849H
	DD	018844H
	DD	01885dH
	DD	018eefH
	DD	018f17H
	DD	018f23H
	DD	018f80H
	ORG $+32
	DD	018c11H
	DD	018c12H
	DD	018c13H
	DD	018c14H
	DD	018c15H
	DD	018c16H
	DD	018c17H
	DD	018c18H
	DD	018afeH
	DD	018affH
	DD	018e5eH
	DD	018e53H
	DD	018849H
	DD	018844H
	DD	01885dH
	DD	018ef0H
	DD	018f18H
	DD	018f24H
	DD	018f81H
	ORG $+32
?RPlistMode@@3PAUtagRidePetList@@A DD 0186a0H		; RPlistMode
	DD	00H
	DD	0186a5H
	DD	00H
	DD	0186aaH
	DD	00H
	DD	0186afH
	DD	00H
	DD	0186b4H
	DD	01H
	DD	0186b9H
	DD	01H
	DD	0186beH
	DD	01H
	DD	0186c3H
	DD	01H
	DD	0186c8H
	DD	02H
	DD	0186cdH
	DD	02H
	DD	0186d2H
	DD	02H
	DD	0186d7H
	DD	02H
	DD	0186dcH
	DD	03H
	DD	0186e1H
	DD	03H
	DD	0186e6H
	DD	03H
	DD	0186ebH
	DD	03H
	DD	0186f0H
	DD	04H
	DD	0186f5H
	DD	04H
	DD	0186faH
	DD	04H
	DD	0186ffH
	DD	04H
	DD	018704H
	DD	05H
	DD	018709H
	DD	05H
	DD	01870eH
	DD	05H
	DD	018713H
	DD	05H
	DD	018718H
	DD	06H
	DD	01871dH
	DD	06H
	DD	018722H
	DD	06H
	DD	018727H
	DD	06H
	DD	01872cH
	DD	07H
	DD	018731H
	DD	07H
	DD	018736H
	DD	07H
	DD	01873bH
	DD	07H
	DD	018740H
	DD	08H
	DD	018745H
	DD	08H
	DD	01874aH
	DD	08H
	DD	01874fH
	DD	08H
	DD	018754H
	DD	09H
	DD	018759H
	DD	09H
	DD	01875eH
	DD	09H
	DD	018763H
	DD	09H
	DD	018768H
	DD	0aH
	DD	01876dH
	DD	0aH
	DD	018772H
	DD	0aH
	DD	018777H
	DD	0aH
	DD	01877cH
	DD	0bH
	DD	018781H
	DD	0bH
	DD	018786H
	DD	0bH
	DD	01878bH
	DD	0bH
?charIconOffsetY@@3PAHA DD 0ffffffb9H			; charIconOffsetY
	DD	0ffffffa8H
	DD	0ffffffacH
	DD	0ffffffa8H
	DD	0ffffffa0H
	DD	0ffffff9aH
	DD	0ffffffa8H
	DD	0ffffffa8H
	DD	0ffffffa8H
	DD	0ffffffabH
	DD	0ffffffabH
	DD	0ffffffa8H
?battleIconTbl@@3PAY01HA DD 0640aH			; battleIconTbl
	DD	0640bH
	DD	0640cH
	DD	0640dH
	DD	0640eH
	DD	0640fH
	DD	06410H
	DD	06411H
	DD	06412H
	DD	06413H
	DD	06414H
	DD	06415H
	DD	06416H
	DD	06417H
	DD	06418H
	DD	06419H
	DD	0641aH
	DD	0641bH
	DD	0641cH
	DD	0641dH
_DATA	ENDS
PUBLIC	___local_stdio_printf_options
PUBLIC	??$__vcrt_va_start_verify_argument_type@QBD@@YAXXZ ; __vcrt_va_start_verify_argument_type<char const * const>
PUBLIC	__vsnprintf_l
PUBLIC	__vsprintf_l
PUBLIC	_sprintf
PUBLIC	?strstr@@YAPADQADQBD@Z				; strstr
PUBLIC	?setCharmManor@@YAXPAUaction@@H@Z		; setCharmManor
PUBLIC	?delCharmManor@@YAXPAUaction@@@Z		; delCharmManor
PUBLIC	?setCharmTitle@@YAXPAUaction@@H@Z		; setCharmTitle
PUBLIC	?delCharmTitle@@YAXPAUaction@@@Z		; delCharmTitle
PUBLIC	?setNpcNotice@@YAXPAUaction@@H@Z		; setNpcNotice
PUBLIC	?delNpcNotice@@YAXPAUaction@@@Z			; delNpcNotice
PUBLIC	?charMove@@YAXPAUaction@@@Z			; charMove
PUBLIC	?charMove2@@YAXPAUaction@@@Z			; charMove2
PUBLIC	?_charMove@@YAXPAUaction@@@Z			; _charMove
PUBLIC	?shiftBufCount@@YAXPAUaction@@@Z		; shiftBufCount
PUBLIC	?createCharAction@@YAPAUaction@@HHHH@Z		; createCharAction
PUBLIC	?createWaterAnimation@@YAPAUaction@@HHHH@Z	; createWaterAnimation
PUBLIC	?stockCharMovePoint@@YAXPAUaction@@HH@Z		; stockCharMovePoint
PUBLIC	?correctCharMovePoint@@YAXPAUaction@@HH@Z	; correctCharMovePoint
PUBLIC	?setCharMovePoint@@YAXPAUaction@@HH@Z		; setCharMovePoint
PUBLIC	?_setCharMovePoint@@YAXPAUaction@@HH@Z		; _setCharMovePoint
PUBLIC	?setCharWarpPoint@@YAXPAUaction@@HH@Z		; setCharWarpPoint
PUBLIC	?setCharStatus@@YAXPAGPAD@Z			; setCharStatus
PUBLIC	?createCommmonEffectAction@@YAPAUaction@@HHHHHH@Z ; createCommmonEffectAction
PUBLIC	?createCommmonEffectNoLoop@@YAPAUaction@@HHHHHH@Z ; createCommmonEffectNoLoop
PUBLIC	?drawCharStatus@@YAXPAUaction@@@Z		; drawCharStatus
PUBLIC	?changeCharAct@@YAXPAUaction@@HHHHHHH@Z		; changeCharAct
PUBLIC	?setCharLeader@@YAXPAUaction@@@Z		; setCharLeader
PUBLIC	?delCharLeader@@YAXPAUaction@@@Z		; delCharLeader
PUBLIC	?setCharParty@@YAXPAUaction@@@Z			; setCharParty
PUBLIC	?delCharParty@@YAXPAUaction@@@Z			; delCharParty
PUBLIC	?setCharWatch@@YAXPAUaction@@@Z			; setCharWatch
PUBLIC	?delCharWatch@@YAXPAUaction@@@Z			; delCharWatch
PUBLIC	?setCharBattle@@YAXPAUaction@@HFF@Z		; setCharBattle
PUBLIC	?delCharBattle@@YAXPAUaction@@@Z		; delCharBattle
PUBLIC	?setCharTrade@@YAXPAUaction@@H@Z		; setCharTrade
PUBLIC	?delCharTrade@@YAXPAUaction@@@Z			; delCharTrade
PUBLIC	?setCharUseMagic@@YAXPAUaction@@@Z		; setCharUseMagic
PUBLIC	?delCharUseMagic@@YAXPAUaction@@@Z		; delCharUseMagic
PUBLIC	?setCharAngel@@YAXPAUaction@@@Z			; setCharAngel
PUBLIC	?delCharAngel@@YAXPAUaction@@@Z			; delCharAngel
PUBLIC	?setCharMind@@YAXPAUaction@@H@Z			; setCharMind
PUBLIC	?delCharMind@@YAXPAUaction@@@Z			; delCharMind
PUBLIC	?setCharFukidashi@@YAXPAUaction@@I@Z		; setCharFukidashi
PUBLIC	?setCharNameColor@@YAXPAUaction@@H@Z		; setCharNameColor
PUBLIC	?checkCharObjPoint@@YAHHHF@Z			; checkCharObjPoint
PUBLIC	?checkCharObjPointStatus@@YAHHHFI@Z		; checkCharObjPointStatus
PUBLIC	?checkCharObjPointNotStatus@@YAHHHFI@Z		; checkCharObjPointNotStatus
PUBLIC	?setNpcCharObj@@YAXHHHHHPAD00H0HHHHHHHH@Z	; setNpcCharObj
PUBLIC	?setReturnPetObj@@YAHHHHHHPAD0HHHHH@Z		; setReturnPetObj
PUBLIC	?setItemCharObj@@YAXHHHHHHPAD@Z			; setItemCharObj
PUBLIC	?setMoneyCharObj@@YAXHHHHHHPAD@Z		; setMoneyCharObj
PUBLIC	?getAtrCharType@@YAHH@Z				; getAtrCharType
PUBLIC	?getAtrCharObjType@@YAHH@Z			; getAtrCharObjType
PUBLIC	?delCharObj@@YAXH@Z				; delCharObj
PUBLIC	?initCharObj@@YAXXZ				; initCharObj
PUBLIC	?resetCharObj@@YAXXZ				; resetCharObj
PUBLIC	?clearPtActCharObj@@YAXXZ			; clearPtActCharObj
PUBLIC	?restorePtActCharObjAll@@YAXXZ			; restorePtActCharObjAll
PUBLIC	?restorePtActCharObj@@YAXH@Z			; restorePtActCharObj
PUBLIC	?setMovePointCharObj@@YAXHHH@Z			; setMovePointCharObj
PUBLIC	?getCharObjAct@@YAPAUaction@@H@Z		; getCharObjAct
PUBLIC	?getCharObjBuf@@YAHXZ				; getCharObjBuf
PUBLIC	?initItemOverlapCheck@@YAXXZ			; initItemOverlapCheck
PUBLIC	?itemOverlapCheck@@YAHIHH@Z			; itemOverlapCheck
PUBLIC	?createPetAction@@YAPAUaction@@HHHHHHH@Z	; createPetAction
PUBLIC	?ajustClientDir@@YAXPAF@Z			; ajustClientDir
PUBLIC	?charProc@@YAXPAUaction@@@Z			; charProc
PUBLIC	?waterAniProc@@YAXPAUaction@@@Z			; waterAniProc
PUBLIC	?CharbubbleRelease@@YAXXZ			; CharbubbleRelease
PUBLIC	?commmonEffectNoLoop@@YAXPAUaction@@@Z		; commmonEffectNoLoop
PUBLIC	?searchCharObjId@@YAHH@Z			; searchCharObjId
PUBLIC	?limitCantClientDir@@YAXPAF@Z			; limitCantClientDir
PUBLIC	?getPetRoute@@YAXPAUaction@@@Z			; getPetRoute
PUBLIC	?petMoveProc@@YAHPAUaction@@@Z			; petMoveProc
PUBLIC	?uprisePetProc@@YAHPAUaction@@@Z		; uprisePetProc
PUBLIC	?petCircleOutProc@@YAHPAUaction@@@Z		; petCircleOutProc
PUBLIC	?petCircleInProc@@YAHPAUaction@@@Z		; petCircleInProc
PUBLIC	?petProc@@YAXPAUaction@@@Z			; petProc
PUBLIC	?getCharType@@YAHPAUaction@@@Z			; getCharType
PUBLIC	?_OptionsStorage@?1??__local_stdio_printf_options@@9@4_KA ; `__local_stdio_printf_options'::`2'::_OptionsStorage
PUBLIC	??_C@_01EJNLAFE@P?$AA@				; `string'
PUBLIC	??_C@_01NANMIPIL@N?$AA@				; `string'
PUBLIC	??_C@_01BNIGIBBF@Q?$AA@				; `string'
PUBLIC	??_C@_01CPLAODJH@S?$AA@				; `string'
PUBLIC	??_C@_01CKDDGHAB@D?$AA@				; `string'
PUBLIC	??_C@_01GFHCPBMG@C?$AA@				; `string'
PUBLIC	??_C@_02DKCKIIND@?$CFs?$AA@			; `string'
PUBLIC	??_C@_00CNPNBAHC@?$AA@				; `string'
PUBLIC	??_C@_08BFELEGJK@?$NL?$NM?U?I?i?$LI?$NO?M?$AA@	; `string'
PUBLIC	??_C@_06HDNHFODD@?d?a?$DP?$NL?v?$DP?$AA@	; `string'
PUBLIC	??_C@_05NPHPFMDI@?u?Z?$DP?m?$LK?$AA@		; `string'
PUBLIC	??_C@_01CLKCMJKC@?5?$AA@			; `string'
PUBLIC	??_C@_03BBKEAIF@?$DP?$DP?$DP?$AA@		; `string'
PUBLIC	__real@00000000
PUBLIC	__real@3f800000
PUBLIC	__real@3f99999a
PUBLIC	__real@3fcccccd
PUBLIC	__real@3fe0000000000000
PUBLIC	__real@40000000
PUBLIC	__real@4000000000000000
PUBLIC	__real@40800000
PUBLIC	__real@40c00000
PUBLIC	__real@40e0000000000000
PUBLIC	__real@41b40000
PUBLIC	__real@42340000
PUBLIC	__real@42800000
PUBLIC	__real@42f00000
EXTRN	__imp____stdio_common_vsprintf:PROC
EXTRN	__imp__rand:PROC
EXTRN	__imp__strstr:PROC
EXTRN	_strcmp:PROC
EXTRN	_strcpy:PROC
EXTRN	_strlen:PROC
EXTRN	_sqrt:PROC
EXTRN	?TimeGetTime@@YAIXZ:PROC			; TimeGetTime
EXTRN	?GetAction@@YAPAUaction@@EI@Z:PROC		; GetAction
EXTRN	?DeathAction@@YAXPAUaction@@@Z:PROC		; DeathAction
EXTRN	?StockDispBuffer@@YAHHHEHH@Z:PROC		; StockDispBuffer
EXTRN	?StockDispBuffer2@@YAHHHEHH@Z:PROC		; StockDispBuffer2
EXTRN	?获取动画尺寸@@YAHPAUaction@@PAF1@Z:PROC	; 获取动画尺寸
EXTRN	?AdjustDir@@YAXPAM@Z:PROC			; AdjustDir
EXTRN	?SinT@@YAMM@Z:PROC				; SinT
EXTRN	?CosT@@YAMM@Z:PROC				; CosT
EXTRN	?Atan@@YAMMM@Z:PROC				; Atan
EXTRN	?pointLen2@@YAMMMMM@Z:PROC			; pointLen2
EXTRN	?GetStrWidth@@YAHPAD@Z:PROC			; GetStrWidth
EXTRN	?StockFontBuffer@@YAHHHDHPADH@Z:PROC		; StockFontBuffer
EXTRN	?pattern@@YAHPAUaction@@HH@Z:PROC		; pattern
EXTRN	?getRouteData@@YAXHPAH0@Z:PROC			; getRouteData
EXTRN	?setPartsPrio@@YAXHHHHHMMH@Z:PROC		; setPartsPrio
EXTRN	?setCharPrio@@YAXHHHHHMM@Z:PROC			; setCharPrio
EXTRN	?checkHitMap@@YAHHH@Z:PROC			; checkHitMap
EXTRN	?camMapToGamen@@YAXMMPAM0@Z:PROC		; camMapToGamen
EXTRN	?realGetPos@@YAHKPAF0@Z:PROC			; realGetPos
EXTRN	?realGetWH@@YAHKPAF0@Z:PROC			; realGetWH
EXTRN	?realGetNo@@YAHKPAK@Z:PROC			; realGetNo
EXTRN	?resetPc@@YAXXZ:PROC				; resetPc
EXTRN	?setPcWarpPoint@@YAXHH@Z:PROC			; setPcWarpPoint
EXTRN	?delPcUseMagic@@YAXXZ:PROC			; delPcUseMagic
EXTRN	?CheckNewPet@@YAXH@Z:PROC			; CheckNewPet
EXTRN	@_RTC_CheckStackVars@8:PROC
EXTRN	@__security_check_cookie@4:PROC
EXTRN	__RTC_CheckEsp:PROC
EXTRN	__RTC_InitBase:PROC
EXTRN	__RTC_Shutdown:PROC
EXTRN	__RTC_UninitUse:PROC
EXTRN	?DEF_APPSIZEX@@3HA:DWORD			; DEF_APPSIZEX
EXTRN	?DEF_APPSIZEY@@3HA:DWORD			; DEF_APPSIZEY
EXTRN	?ProcNo@@3IA:DWORD				; ProcNo
EXTRN	?MyChatBuffer@@3USTR_BUFFER@@A:BYTE		; MyChatBuffer
EXTRN	?nowFloor@@3HA:DWORD				; nowFloor
EXTRN	?nowGx@@3HA:DWORD				; nowGx
EXTRN	?nowGy@@3HA:DWORD				; nowGy
EXTRN	?nowSpdRate@@3MA:DWORD				; nowSpdRate
EXTRN	?oldGx@@3HA:DWORD				; oldGx
EXTRN	?oldGy@@3HA:DWORD				; oldGy
EXTRN	?warpEffectStart@@3HA:DWORD			; warpEffectStart
EXTRN	?SpriteData@@3PAUSPRITEDATA@@A:BYTE		; SpriteData
EXTRN	?pc@@3UPC@@A:BYTE				; pc
EXTRN	?party@@3PAUPARTY@@A:BYTE			; party
EXTRN	?g_bUseAlpha@@3HA:DWORD				; g_bUseAlpha
EXTRN	?人物屏蔽开关@@3HA:DWORD			; 人物屏蔽开关
EXTRN	___security_cookie:DWORD
EXTRN	__fltused:DWORD
;	COMDAT ?_OptionsStorage@?1??__local_stdio_printf_options@@9@4_KA
_BSS	SEGMENT
?_OptionsStorage@?1??__local_stdio_printf_options@@9@4_KA DQ 01H DUP (?) ; `__local_stdio_printf_options'::`2'::_OptionsStorage
_BSS	ENDS
_BSS	SEGMENT
?popAct@@3PAUaction@@A DD 01H DUP (?)			; popAct
_BSS	ENDS
;	COMDAT __real@42f00000
CONST	SEGMENT
__real@42f00000 DD 042f00000r			; 120
CONST	ENDS
;	COMDAT __real@42800000
CONST	SEGMENT
__real@42800000 DD 042800000r			; 64
CONST	ENDS
;	COMDAT __real@42340000
CONST	SEGMENT
__real@42340000 DD 042340000r			; 45
CONST	ENDS
;	COMDAT __real@41b40000
CONST	SEGMENT
__real@41b40000 DD 041b40000r			; 22.5
CONST	ENDS
;	COMDAT __real@40e0000000000000
CONST	SEGMENT
__real@40e0000000000000 DQ 040e0000000000000r	; 32768
CONST	ENDS
;	COMDAT __real@40c00000
CONST	SEGMENT
__real@40c00000 DD 040c00000r			; 6
CONST	ENDS
;	COMDAT __real@40800000
CONST	SEGMENT
__real@40800000 DD 040800000r			; 4
CONST	ENDS
;	COMDAT __real@4000000000000000
CONST	SEGMENT
__real@4000000000000000 DQ 04000000000000000r	; 2
CONST	ENDS
;	COMDAT __real@40000000
CONST	SEGMENT
__real@40000000 DD 040000000r			; 2
CONST	ENDS
;	COMDAT __real@3fe0000000000000
CONST	SEGMENT
__real@3fe0000000000000 DQ 03fe0000000000000r	; 0.5
CONST	ENDS
;	COMDAT __real@3fcccccd
CONST	SEGMENT
__real@3fcccccd DD 03fcccccdr			; 1.6
CONST	ENDS
;	COMDAT __real@3f99999a
CONST	SEGMENT
__real@3f99999a DD 03f99999ar			; 1.2
CONST	ENDS
;	COMDAT __real@3f800000
CONST	SEGMENT
__real@3f800000 DD 03f800000r			; 1
CONST	ENDS
;	COMDAT __real@00000000
CONST	SEGMENT
__real@00000000 DD 000000000r			; 0
CONST	ENDS
;	COMDAT rtc$TMZ
rtc$TMZ	SEGMENT
__RTC_Shutdown.rtc$TMZ DD FLAT:__RTC_Shutdown
rtc$TMZ	ENDS
;	COMDAT rtc$IMZ
rtc$IMZ	SEGMENT
__RTC_InitBase.rtc$IMZ DD FLAT:__RTC_InitBase
rtc$IMZ	ENDS
;	COMDAT ??_C@_03BBKEAIF@?$DP?$DP?$DP?$AA@
CONST	SEGMENT
??_C@_03BBKEAIF@?$DP?$DP?$DP?$AA@ DB '???', 00H		; `string'
CONST	ENDS
;	COMDAT ??_C@_01CLKCMJKC@?5?$AA@
CONST	SEGMENT
??_C@_01CLKCMJKC@?5?$AA@ DB ' ', 00H			; `string'
CONST	ENDS
;	COMDAT ??_C@_05NPHPFMDI@?u?Z?$DP?m?$LK?$AA@
CONST	SEGMENT
??_C@_05NPHPFMDI@?u?Z?$DP?m?$LK?$AA@ DB 0f5H, 0daH, '?', 0edH, 0baH, 00H ; `string'
CONST	ENDS
;	COMDAT ??_C@_06HDNHFODD@?d?a?$DP?$NL?v?$DP?$AA@
CONST	SEGMENT
??_C@_06HDNHFODD@?d?a?$DP?$NL?v?$DP?$AA@ DB 0e4H, 0e1H, '?', 0dbH, 0f6H, '?'
	DB	00H						; `string'
CONST	ENDS
;	COMDAT ??_C@_08BFELEGJK@?$NL?$NM?U?I?i?$LI?$NO?M?$AA@
CONST	SEGMENT
??_C@_08BFELEGJK@?$NL?$NM?U?I?i?$LI?$NO?M?$AA@ DB 0dbH, 0dcH, 0d5H, 0c9H, 0e9H
	DB	0b8H, 0deH, 0cdH, 00H			; `string'
CONST	ENDS
;	COMDAT ??_C@_00CNPNBAHC@?$AA@
CONST	SEGMENT
??_C@_00CNPNBAHC@?$AA@ DB 00H				; `string'
CONST	ENDS
;	COMDAT ??_C@_02DKCKIIND@?$CFs?$AA@
CONST	SEGMENT
??_C@_02DKCKIIND@?$CFs?$AA@ DB '%s', 00H		; `string'
CONST	ENDS
;	COMDAT ??_C@_01GFHCPBMG@C?$AA@
CONST	SEGMENT
??_C@_01GFHCPBMG@C?$AA@ DB 'C', 00H			; `string'
CONST	ENDS
;	COMDAT ??_C@_01CKDDGHAB@D?$AA@
CONST	SEGMENT
??_C@_01CKDDGHAB@D?$AA@ DB 'D', 00H			; `string'
CONST	ENDS
;	COMDAT ??_C@_01CPLAODJH@S?$AA@
CONST	SEGMENT
??_C@_01CPLAODJH@S?$AA@ DB 'S', 00H			; `string'
CONST	ENDS
;	COMDAT ??_C@_01BNIGIBBF@Q?$AA@
CONST	SEGMENT
??_C@_01BNIGIBBF@Q?$AA@ DB 'Q', 00H			; `string'
CONST	ENDS
;	COMDAT ??_C@_01NANMIPIL@N?$AA@
CONST	SEGMENT
??_C@_01NANMIPIL@N?$AA@ DB 'N', 00H			; `string'
CONST	ENDS
;	COMDAT ??_C@_01EJNLAFE@P?$AA@
CONST	SEGMENT
??_C@_01EJNLAFE@P?$AA@ DB 'P', 00H			; `string'
CONST	ENDS
; Function compile flags: /Odtp /RTCsu /ZI
; File c:\users\administrator\desktop\????? ??\????? ??\client source code\system\character.cpp
;	COMDAT ?getCharType@@YAHPAUaction@@@Z
_TEXT	SEGMENT
_no$ = -20						; size = 4
_ext$ = -8						; size = 4
_ptAct$ = 8						; size = 4
?getCharType@@YAHPAUaction@@@Z PROC			; getCharType, COMDAT

; 3334 : {

  00000	55		 push	 ebp
  00001	8b ec		 mov	 ebp, esp
  00003	81 ec d8 00 00
	00		 sub	 esp, 216		; 000000d8H
  00009	53		 push	 ebx
  0000a	56		 push	 esi
  0000b	57		 push	 edi
  0000c	8d bd 28 ff ff
	ff		 lea	 edi, DWORD PTR [ebp-216]
  00012	b9 36 00 00 00	 mov	 ecx, 54			; 00000036H
  00017	b8 cc cc cc cc	 mov	 eax, -858993460		; ccccccccH
  0001c	f3 ab		 rep stosd

; 3335 : 	extern int 人物屏蔽开关;
; 3336 : 	if (ProcNo != PROC_GAME) return 0;

  0001e	83 3d 00 00 00
	00 09		 cmp	 DWORD PTR ?ProcNo@@3IA, 9 ; ProcNo
  00025	74 04		 je	 SHORT $LN2@getCharTyp
  00027	33 c0		 xor	 eax, eax
  00029	eb 77		 jmp	 SHORT $LN1@getCharTyp
$LN2@getCharTyp:

; 3337 : 	if (!人物屏蔽开关) return 0;

  0002b	83 3d 00 00 00
	00 00		 cmp	 DWORD PTR ?人物屏蔽开关@@3HA, 0 ; 人物屏蔽开关
  00032	75 04		 jne	 SHORT $LN3@getCharTyp
  00034	33 c0		 xor	 eax, eax
  00036	eb 6a		 jmp	 SHORT $LN1@getCharTyp
$LN3@getCharTyp:

; 3338 : 	CHAREXTRA *ext;
; 3339 : 	int no;
; 3340 : 	if (ptAct == NULL)

  00038	83 7d 08 00	 cmp	 DWORD PTR _ptAct$[ebp], 0
  0003c	75 04		 jne	 SHORT $LN4@getCharTyp

; 3341 : 		return 0;

  0003e	33 c0		 xor	 eax, eax
  00040	eb 60		 jmp	 SHORT $LN1@getCharTyp
$LN4@getCharTyp:

; 3342 : 	ext = (CHAREXTRA *)ptAct->pYobi;

  00042	8b 45 08	 mov	 eax, DWORD PTR _ptAct$[ebp]
  00045	8b 48 0c	 mov	 ecx, DWORD PTR [eax+12]
  00048	89 4d f8	 mov	 DWORD PTR _ext$[ebp], ecx

; 3343 : 	if (ext) {

  0004b	83 7d f8 00	 cmp	 DWORD PTR _ext$[ebp], 0
  0004f	74 4f		 je	 SHORT $LN5@getCharTyp

; 3344 : 		no = ext->charObjTblId;

  00051	8b 45 f8	 mov	 eax, DWORD PTR _ext$[ebp]
  00054	8b 08		 mov	 ecx, DWORD PTR [eax]
  00056	89 4d ec	 mov	 DWORD PTR _no$[ebp], ecx

; 3345 : 		if (no >= 1500) return 0;

  00059	81 7d ec dc 05
	00 00		 cmp	 DWORD PTR _no$[ebp], 1500 ; 000005dcH
  00060	7c 04		 jl	 SHORT $LN6@getCharTyp
  00062	33 c0		 xor	 eax, eax
  00064	eb 3c		 jmp	 SHORT $LN1@getCharTyp
$LN6@getCharTyp:

; 3346 : 		if (strcmp(ptAct->name, charObj[no].name) == 0)

  00066	69 45 ec 0c 01
	00 00		 imul	 eax, DWORD PTR _no$[ebp], 268
  0006d	05 38 00 00 00	 add	 eax, OFFSET ?charObj@@3PAUCHAROBJ@@A+56
  00072	50		 push	 eax
  00073	8b 4d 08	 mov	 ecx, DWORD PTR _ptAct$[ebp]
  00076	83 c1 38	 add	 ecx, 56			; 00000038H
  00079	51		 push	 ecx
  0007a	e8 00 00 00 00	 call	 _strcmp
  0007f	83 c4 08	 add	 esp, 8
  00082	85 c0		 test	 eax, eax
  00084	75 1a		 jne	 SHORT $LN5@getCharTyp

; 3347 : 			if (charObj[no].charType == 256) {

  00086	69 45 ec 0c 01
	00 00		 imul	 eax, DWORD PTR _no$[ebp], 268
  0008d	81 b8 b4 00 00
	00 00 01 00 00	 cmp	 DWORD PTR ?charObj@@3PAUCHAROBJ@@A[eax+180], 256 ; 00000100H
  00097	75 07		 jne	 SHORT $LN5@getCharTyp

; 3348 : 				return 1;

  00099	b8 01 00 00 00	 mov	 eax, 1
  0009e	eb 02		 jmp	 SHORT $LN1@getCharTyp
$LN5@getCharTyp:

; 3349 : 			}
; 3350 : 	}
; 3351 : 	return 0;

  000a0	33 c0		 xor	 eax, eax
$LN1@getCharTyp:

; 3352 : }

  000a2	5f		 pop	 edi
  000a3	5e		 pop	 esi
  000a4	5b		 pop	 ebx
  000a5	81 c4 d8 00 00
	00		 add	 esp, 216		; 000000d8H
  000ab	3b ec		 cmp	 ebp, esp
  000ad	e8 00 00 00 00	 call	 __RTC_CheckEsp
  000b2	8b e5		 mov	 esp, ebp
  000b4	5d		 pop	 ebp
  000b5	c3		 ret	 0
?getCharType@@YAHPAUaction@@@Z ENDP			; getCharType
_TEXT	ENDS
; Function compile flags: /Odtp /RTCsu /ZI
; File c:\users\administrator\desktop\????? ??\????? ??\client source code\system\character.cpp
;	COMDAT ?petProc@@YAXPAUaction@@@Z
_TEXT	SEGMENT
tv67 = -244						; size = 4
_pe$ = -44						; size = 4
_animLoop$ = -32					; size = 4
_my$ = -20						; size = 4
_mx$ = -8						; size = 4
_ptAct$ = 8						; size = 4
?petProc@@YAXPAUaction@@@Z PROC				; petProc, COMDAT

; 3136 : {

  00000	55		 push	 ebp
  00001	8b ec		 mov	 ebp, esp
  00003	81 ec f4 00 00
	00		 sub	 esp, 244		; 000000f4H
  00009	53		 push	 ebx
  0000a	56		 push	 esi
  0000b	57		 push	 edi
  0000c	8d bd 0c ff ff
	ff		 lea	 edi, DWORD PTR [ebp-244]
  00012	b9 3d 00 00 00	 mov	 ecx, 61			; 0000003dH
  00017	b8 cc cc cc cc	 mov	 eax, -858993460		; ccccccccH
  0001c	f3 ab		 rep stosd

; 3137 : 	float mx, my;
; 3138 : 	int animLoop;
; 3139 : 	PETEXTRA *pe = (PETEXTRA *)ptAct->pYobi;

  0001e	8b 45 08	 mov	 eax, DWORD PTR _ptAct$[ebp]
  00021	8b 48 0c	 mov	 ecx, DWORD PTR [eax+12]
  00024	89 4d d4	 mov	 DWORD PTR _pe$[ebp], ecx

; 3140 : 
; 3141 : 	switch( pe->mode )

  00027	8b 45 d4	 mov	 eax, DWORD PTR _pe$[ebp]
  0002a	0f bf 08	 movsx	 ecx, WORD PTR [eax]
  0002d	89 8d 0c ff ff
	ff		 mov	 DWORD PTR tv67[ebp], ecx
  00033	83 bd 0c ff ff
	ff 03		 cmp	 DWORD PTR tv67[ebp], 3
  0003a	77 67		 ja	 SHORT $LN2@petProc
  0003c	8b 95 0c ff ff
	ff		 mov	 edx, DWORD PTR tv67[ebp]
  00042	ff 24 95 00 00
	00 00		 jmp	 DWORD PTR $LN20@petProc[edx*4]
$LN4@petProc:

; 3142 : 	{
; 3143 : 		// ?????：?????
; 3144 : 		case 0:
; 3145 : 			if( !petMoveProc( ptAct ) )

  00049	8b 45 08	 mov	 eax, DWORD PTR _ptAct$[ebp]
  0004c	50		 push	 eax
  0004d	e8 00 00 00 00	 call	 ?petMoveProc@@YAHPAUaction@@@Z ; petMoveProc
  00052	83 c4 04	 add	 esp, 4
  00055	85 c0		 test	 eax, eax
  00057	75 05		 jne	 SHORT $LN5@petProc

; 3146 : 			{
; 3147 : 				return;

  00059	e9 61 01 00 00	 jmp	 $LN1@petProc
$LN5@petProc:

; 3148 : 			}
; 3149 : 			break;

  0005e	eb 43		 jmp	 SHORT $LN2@petProc
$LN6@petProc:

; 3150 : 
; 3151 : 		// ?????：
; 3152 : 		// ???????????：?
; 3153 : 		case 1:
; 3154 : 			if( !uprisePetProc( ptAct ) )

  00060	8b 45 08	 mov	 eax, DWORD PTR _ptAct$[ebp]
  00063	50		 push	 eax
  00064	e8 00 00 00 00	 call	 ?uprisePetProc@@YAHPAUaction@@@Z ; uprisePetProc
  00069	83 c4 04	 add	 esp, 4
  0006c	85 c0		 test	 eax, eax
  0006e	75 05		 jne	 SHORT $LN7@petProc

; 3155 : 			{
; 3156 : 				return;

  00070	e9 4a 01 00 00	 jmp	 $LN1@petProc
$LN7@petProc:

; 3157 : 			}
; 3158 : 			break;

  00075	eb 2c		 jmp	 SHORT $LN2@petProc
$LN8@petProc:

; 3159 : 
; 3160 : 		// ?????：掐?????
; 3161 : 		case 2:
; 3162 : 			if( !petCircleOutProc( ptAct ) )

  00077	8b 45 08	 mov	 eax, DWORD PTR _ptAct$[ebp]
  0007a	50		 push	 eax
  0007b	e8 00 00 00 00	 call	 ?petCircleOutProc@@YAHPAUaction@@@Z ; petCircleOutProc
  00080	83 c4 04	 add	 esp, 4
  00083	85 c0		 test	 eax, eax
  00085	75 05		 jne	 SHORT $LN9@petProc

; 3163 : 			{
; 3164 : 				return;

  00087	e9 33 01 00 00	 jmp	 $LN1@petProc
$LN9@petProc:

; 3165 : 			}
; 3166 : 			break;

  0008c	eb 15		 jmp	 SHORT $LN2@petProc
$LN10@petProc:

; 3167 : 
; 3168 : 		// ???觚?：掐??????
; 3169 : 		case 3:
; 3170 : 			if( !petCircleInProc( ptAct ) )

  0008e	8b 45 08	 mov	 eax, DWORD PTR _ptAct$[ebp]
  00091	50		 push	 eax
  00092	e8 00 00 00 00	 call	 ?petCircleInProc@@YAHPAUaction@@@Z ; petCircleInProc
  00097	83 c4 04	 add	 esp, 4
  0009a	85 c0		 test	 eax, eax
  0009c	75 05		 jne	 SHORT $LN11@petProc

; 3171 : 			{
; 3172 : 				return;

  0009e	e9 1c 01 00 00	 jmp	 $LN1@petProc
$LN11@petProc:
$LN2@petProc:

; 3173 : 			}
; 3174 : 			break;
; 3175 : 	}
; 3176 : 
; 3177 : 	// ??t
; 3178 : 	camMapToGamen( ptAct->mx, ptAct->my, &mx, &my );

  000a3	8d 45 ec	 lea	 eax, DWORD PTR _my$[ebp]
  000a6	50		 push	 eax
  000a7	8d 4d f8	 lea	 ecx, DWORD PTR _mx$[ebp]
  000aa	51		 push	 ecx
  000ab	8b 55 08	 mov	 edx, DWORD PTR _ptAct$[ebp]
  000ae	51		 push	 ecx
  000af	f3 0f 10 82 1c
	01 00 00	 movss	 xmm0, DWORD PTR [edx+284]
  000b7	f3 0f 11 04 24	 movss	 DWORD PTR [esp], xmm0
  000bc	8b 45 08	 mov	 eax, DWORD PTR _ptAct$[ebp]
  000bf	51		 push	 ecx
  000c0	f3 0f 10 80 18
	01 00 00	 movss	 xmm0, DWORD PTR [eax+280]
  000c8	f3 0f 11 04 24	 movss	 DWORD PTR [esp], xmm0
  000cd	e8 00 00 00 00	 call	 ?camMapToGamen@@YAXMMPAM0@Z ; camMapToGamen
  000d2	83 c4 10	 add	 esp, 16			; 00000010H

; 3179 : 	ptAct->x = (int)(mx+.5);

  000d5	f3 0f 5a 45 f8	 cvtss2sd xmm0, DWORD PTR _mx$[ebp]
  000da	f2 0f 58 05 00
	00 00 00	 addsd	 xmm0, QWORD PTR __real@3fe0000000000000
  000e2	f2 0f 2c c0	 cvttsd2si eax, xmm0
  000e6	8b 4d 08	 mov	 ecx, DWORD PTR _ptAct$[ebp]
  000e9	89 41 18	 mov	 DWORD PTR [ecx+24], eax

; 3180 : 	ptAct->y = (int)(my+.5);

  000ec	f3 0f 5a 45 ec	 cvtss2sd xmm0, DWORD PTR _my$[ebp]
  000f1	f2 0f 58 05 00
	00 00 00	 addsd	 xmm0, QWORD PTR __real@3fe0000000000000
  000f9	f2 0f 2c c0	 cvttsd2si eax, xmm0
  000fd	8b 4d 08	 mov	 ecx, DWORD PTR _ptAct$[ebp]
  00100	89 41 1c	 mov	 DWORD PTR [ecx+28], eax

; 3181 : 
; 3182 : 	// ?????????
; 3183 : 	if( ptAct->anim_no == ANIM_HAND
; 3184 : 	 || ptAct->anim_no == ANIM_HAPPY
; 3185 : 	 || ptAct->anim_no == ANIM_ANGRY
; 3186 : 	 || ptAct->anim_no == ANIM_SAD
; 3187 : 	 || ptAct->anim_no == ANIM_WALK
; 3188 : 	 || ptAct->anim_no == ANIM_STAND
; 3189 : 	 || ptAct->anim_no == ANIM_NOD )

  00103	8b 45 08	 mov	 eax, DWORD PTR _ptAct$[ebp]
  00106	83 b8 4c 01 00
	00 06		 cmp	 DWORD PTR [eax+332], 6
  0010d	74 48		 je	 SHORT $LN14@petProc
  0010f	8b 45 08	 mov	 eax, DWORD PTR _ptAct$[ebp]
  00112	83 b8 4c 01 00
	00 07		 cmp	 DWORD PTR [eax+332], 7
  00119	74 3c		 je	 SHORT $LN14@petProc
  0011b	8b 45 08	 mov	 eax, DWORD PTR _ptAct$[ebp]
  0011e	83 b8 4c 01 00
	00 08		 cmp	 DWORD PTR [eax+332], 8
  00125	74 30		 je	 SHORT $LN14@petProc
  00127	8b 45 08	 mov	 eax, DWORD PTR _ptAct$[ebp]
  0012a	83 b8 4c 01 00
	00 09		 cmp	 DWORD PTR [eax+332], 9
  00131	74 24		 je	 SHORT $LN14@petProc
  00133	8b 45 08	 mov	 eax, DWORD PTR _ptAct$[ebp]
  00136	83 b8 4c 01 00
	00 04		 cmp	 DWORD PTR [eax+332], 4
  0013d	74 18		 je	 SHORT $LN14@petProc
  0013f	8b 45 08	 mov	 eax, DWORD PTR _ptAct$[ebp]
  00142	83 b8 4c 01 00
	00 03		 cmp	 DWORD PTR [eax+332], 3
  00149	74 0c		 je	 SHORT $LN14@petProc
  0014b	8b 45 08	 mov	 eax, DWORD PTR _ptAct$[ebp]
  0014e	83 b8 4c 01 00
	00 0b		 cmp	 DWORD PTR [eax+332], 11	; 0000000bH
  00155	75 09		 jne	 SHORT $LN12@petProc
$LN14@petProc:

; 3190 : 	{
; 3191 : 		animLoop = ANM_LOOP;

  00157	c7 45 e0 00 00
	00 00		 mov	 DWORD PTR _animLoop$[ebp], 0

; 3192 : 	}
; 3193 : 	else

  0015e	eb 07		 jmp	 SHORT $LN13@petProc
$LN12@petProc:

; 3194 : 	{
; 3195 : 		animLoop = ANM_NO_LOOP;

  00160	c7 45 e0 01 00
	00 00		 mov	 DWORD PTR _animLoop$[ebp], 1
$LN13@petProc:

; 3196 : 	}
; 3197 : 	pattern( ptAct, ANM_NOMAL_SPD, animLoop );

  00167	8b 45 e0	 mov	 eax, DWORD PTR _animLoop$[ebp]
  0016a	50		 push	 eax
  0016b	6a 00		 push	 0
  0016d	8b 4d 08	 mov	 ecx, DWORD PTR _ptAct$[ebp]
  00170	51		 push	 ecx
  00171	e8 00 00 00 00	 call	 ?pattern@@YAHPAUaction@@HH@Z ; pattern
  00176	83 c4 0c	 add	 esp, 12			; 0000000cH

; 3198 : 
; 3199 : 	// ??????????????
; 3200 : 	setCharPrio( ptAct->bmpNo, ptAct->x, ptAct->y, 0, 0, ptAct->mx, ptAct->my );

  00179	8b 45 08	 mov	 eax, DWORD PTR _ptAct$[ebp]
  0017c	51		 push	 ecx
  0017d	f3 0f 10 80 1c
	01 00 00	 movss	 xmm0, DWORD PTR [eax+284]
  00185	f3 0f 11 04 24	 movss	 DWORD PTR [esp], xmm0
  0018a	8b 4d 08	 mov	 ecx, DWORD PTR _ptAct$[ebp]
  0018d	51		 push	 ecx
  0018e	f3 0f 10 81 18
	01 00 00	 movss	 xmm0, DWORD PTR [ecx+280]
  00196	f3 0f 11 04 24	 movss	 DWORD PTR [esp], xmm0
  0019b	6a 00		 push	 0
  0019d	6a 00		 push	 0
  0019f	8b 55 08	 mov	 edx, DWORD PTR _ptAct$[ebp]
  001a2	8b 42 1c	 mov	 eax, DWORD PTR [edx+28]
  001a5	50		 push	 eax
  001a6	8b 4d 08	 mov	 ecx, DWORD PTR _ptAct$[ebp]
  001a9	8b 51 18	 mov	 edx, DWORD PTR [ecx+24]
  001ac	52		 push	 edx
  001ad	8b 45 08	 mov	 eax, DWORD PTR _ptAct$[ebp]
  001b0	8b 88 9c 00 00
	00		 mov	 ecx, DWORD PTR [eax+156]
  001b6	51		 push	 ecx
  001b7	e8 00 00 00 00	 call	 ?setCharPrio@@YAXHHHHHMM@Z ; setCharPrio
  001bc	83 c4 1c	 add	 esp, 28			; 0000001cH
$LN1@petProc:

; 3201 : }

  001bf	52		 push	 edx
  001c0	8b cd		 mov	 ecx, ebp
  001c2	50		 push	 eax
  001c3	8d 15 00 00 00
	00		 lea	 edx, DWORD PTR $LN19@petProc
  001c9	e8 00 00 00 00	 call	 @_RTC_CheckStackVars@8
  001ce	58		 pop	 eax
  001cf	5a		 pop	 edx
  001d0	5f		 pop	 edi
  001d1	5e		 pop	 esi
  001d2	5b		 pop	 ebx
  001d3	81 c4 f4 00 00
	00		 add	 esp, 244		; 000000f4H
  001d9	3b ec		 cmp	 ebp, esp
  001db	e8 00 00 00 00	 call	 __RTC_CheckEsp
  001e0	8b e5		 mov	 esp, ebp
  001e2	5d		 pop	 ebp
  001e3	c3		 ret	 0
$LN19@petProc:
  001e4	02 00 00 00	 DD	 2
  001e8	00 00 00 00	 DD	 $LN18@petProc
$LN18@petProc:
  001ec	f8 ff ff ff	 DD	 -8			; fffffff8H
  001f0	04 00 00 00	 DD	 4
  001f4	00 00 00 00	 DD	 $LN16@petProc
  001f8	ec ff ff ff	 DD	 -20			; ffffffecH
  001fc	04 00 00 00	 DD	 4
  00200	00 00 00 00	 DD	 $LN17@petProc
$LN17@petProc:
  00204	6d		 DB	 109			; 0000006dH
  00205	79		 DB	 121			; 00000079H
  00206	00		 DB	 0
$LN16@petProc:
  00207	6d		 DB	 109			; 0000006dH
  00208	78		 DB	 120			; 00000078H
  00209	00		 DB	 0
  0020a	66 90		 npad	 2
$LN20@petProc:
  0020c	00 00 00 00	 DD	 $LN4@petProc
  00210	00 00 00 00	 DD	 $LN6@petProc
  00214	00 00 00 00	 DD	 $LN8@petProc
  00218	00 00 00 00	 DD	 $LN10@petProc
?petProc@@YAXPAUaction@@@Z ENDP				; petProc
_TEXT	ENDS
; Function compile flags: /Odtp /RTCsu /ZI
; File c:\users\administrator\desktop\????? ??\????? ??\client source code\system\character.cpp
;	COMDAT ?petCircleInProc@@YAHPAUaction@@@Z
_TEXT	SEGMENT
tv232 = -284						; size = 4
tv225 = -284						; size = 4
tv262 = -280						; size = 4
tv260 = -280						; size = 4
_i$ = -80						; size = 4
_angle$ = -68						; size = 4
_dy$ = -56						; size = 4
_dx$ = -44						; size = 4
_my$ = -32						; size = 4
_mx$ = -20						; size = 4
_pe$ = -8						; size = 4
_ptAct$ = 8						; size = 4
?petCircleInProc@@YAHPAUaction@@@Z PROC			; petCircleInProc, COMDAT

; 3073 : {

  00000	55		 push	 ebp
  00001	8b ec		 mov	 ebp, esp
  00003	81 ec 1c 01 00
	00		 sub	 esp, 284		; 0000011cH
  00009	53		 push	 ebx
  0000a	56		 push	 esi
  0000b	57		 push	 edi
  0000c	8d bd e4 fe ff
	ff		 lea	 edi, DWORD PTR [ebp-284]
  00012	b9 47 00 00 00	 mov	 ecx, 71			; 00000047H
  00017	b8 cc cc cc cc	 mov	 eax, -858993460		; ccccccccH
  0001c	f3 ab		 rep stosd

; 3074 : 	PETEXTRA *pe = (PETEXTRA *)ptAct->pYobi;

  0001e	8b 45 08	 mov	 eax, DWORD PTR _ptAct$[ebp]
  00021	8b 48 0c	 mov	 ecx, DWORD PTR [eax+12]
  00024	89 4d f8	 mov	 DWORD PTR _pe$[ebp], ecx

; 3075 : 	float mx, my;
; 3076 : 	float dx, dy;
; 3077 : 	float angle;
; 3078 : 	int i;
; 3079 : 
; 3080 : 	if( pe->ptAct == NULL )

  00027	8b 45 f8	 mov	 eax, DWORD PTR _pe$[ebp]
  0002a	83 78 18 00	 cmp	 DWORD PTR [eax+24], 0
  0002e	75 2b		 jne	 SHORT $LN5@petCircleI

; 3081 : 	{
; 3082 : 		pe->ptAct  = (ACTION *)1;

  00030	8b 45 f8	 mov	 eax, DWORD PTR _pe$[ebp]
  00033	c7 40 18 01 00
	00 00		 mov	 DWORD PTR [eax+24], 1

; 3083 : 		pe->ptAct2 = (ACTION *)NULL;

  0003a	8b 45 f8	 mov	 eax, DWORD PTR _pe$[ebp]
  0003d	c7 40 1c 00 00
	00 00		 mov	 DWORD PTR [eax+28], 0

; 3084 : 		pe->angle = 0.0F;

  00044	8b 45 f8	 mov	 eax, DWORD PTR _pe$[ebp]
  00047	0f 57 c0	 xorps	 xmm0, xmm0
  0004a	f3 0f 11 40 20	 movss	 DWORD PTR [eax+32], xmm0

; 3085 : 		pe->r = 800;

  0004f	8b 45 f8	 mov	 eax, DWORD PTR _pe$[ebp]
  00052	c7 40 24 20 03
	00 00		 mov	 DWORD PTR [eax+36], 800	; 00000320H

; 3086 : 	}
; 3087 : 	else

  00059	eb 35		 jmp	 SHORT $LN7@petCircleI
$LN5@petCircleI:

; 3088 : 	{
; 3089 : 		if( pe->r <= 0 )

  0005b	8b 45 f8	 mov	 eax, DWORD PTR _pe$[ebp]
  0005e	83 78 24 00	 cmp	 DWORD PTR [eax+36], 0
  00062	7f 2c		 jg	 SHORT $LN7@petCircleI

; 3090 : 		{
; 3091 : 			restorePtActCharObj( pe->id );

  00064	8b 45 f8	 mov	 eax, DWORD PTR _pe$[ebp]
  00067	8b 48 28	 mov	 ecx, DWORD PTR [eax+40]
  0006a	51		 push	 ecx
  0006b	e8 00 00 00 00	 call	 ?restorePtActCharObj@@YAXH@Z ; restorePtActCharObj
  00070	83 c4 04	 add	 esp, 4

; 3092 : 			DeathAction( ptAct );

  00073	8b 45 08	 mov	 eax, DWORD PTR _ptAct$[ebp]
  00076	50		 push	 eax
  00077	e8 00 00 00 00	 call	 ?DeathAction@@YAXPAUaction@@@Z ; DeathAction
  0007c	83 c4 04	 add	 esp, 4

; 3093 : 			ptAct = NULL;

  0007f	c7 45 08 00 00
	00 00		 mov	 DWORD PTR _ptAct$[ebp], 0

; 3094 : 			return TRUE;

  00086	b8 01 00 00 00	 mov	 eax, 1
  0008b	e9 19 02 00 00	 jmp	 $LN1@petCircleI
$LN7@petCircleI:

; 3095 : 		}
; 3096 : 	}
; 3097 : 
; 3098 : 	if( pe->ptAct != NULL )

  00090	8b 45 f8	 mov	 eax, DWORD PTR _pe$[ebp]
  00093	83 78 18 00	 cmp	 DWORD PTR [eax+24], 0
  00097	0f 84 0a 02 00
	00		 je	 $LN3@petCircleI

; 3099 : 	{
; 3100 : 		if( pe->ptAct2 == NULL && pe->createTime+2300 < TimeGetTime() )

  0009d	8b 45 f8	 mov	 eax, DWORD PTR _pe$[ebp]
  000a0	83 78 1c 00	 cmp	 DWORD PTR [eax+28], 0
  000a4	75 48		 jne	 SHORT $LN9@petCircleI
  000a6	8b 45 f8	 mov	 eax, DWORD PTR _pe$[ebp]
  000a9	8b 70 14	 mov	 esi, DWORD PTR [eax+20]
  000ac	81 c6 fc 08 00
	00		 add	 esi, 2300		; 000008fcH
  000b2	e8 00 00 00 00	 call	 ?TimeGetTime@@YAIXZ	; TimeGetTime
  000b7	3b f0		 cmp	 esi, eax
  000b9	73 33		 jae	 SHORT $LN9@petCircleI

; 3101 : 		{
; 3102 : 			pe->ptAct2 = createCommmonEffectNoLoop( SPR_hoshi, ptAct->gx, ptAct->gy,

  000bb	8b 45 08	 mov	 eax, DWORD PTR _ptAct$[ebp]
  000be	0f b6 48 15	 movzx	 ecx, BYTE PTR [eax+21]
  000c2	51		 push	 ecx
  000c3	6a 00		 push	 0
  000c5	6a 00		 push	 0
  000c7	8b 55 08	 mov	 edx, DWORD PTR _ptAct$[ebp]
  000ca	8b 82 b8 00 00
	00		 mov	 eax, DWORD PTR [edx+184]
  000d0	50		 push	 eax
  000d1	8b 4d 08	 mov	 ecx, DWORD PTR _ptAct$[ebp]
  000d4	8b 91 b4 00 00
	00		 mov	 edx, DWORD PTR [ecx+180]
  000da	52		 push	 edx
  000db	68 fd 88 01 00	 push	 100605			; 000188fdH
  000e0	e8 00 00 00 00	 call	 ?createCommmonEffectNoLoop@@YAPAUaction@@HHHHHH@Z ; createCommmonEffectNoLoop
  000e5	83 c4 18	 add	 esp, 24			; 00000018H
  000e8	8b 4d f8	 mov	 ecx, DWORD PTR _pe$[ebp]
  000eb	89 41 1c	 mov	 DWORD PTR [ecx+28], eax
$LN9@petCircleI:

; 3103 : 				0, 0, ptAct->dispPrio );
; 3104 : 		}
; 3105 : 
; 3106 : 		pe->r -= 4;

  000ee	8b 45 f8	 mov	 eax, DWORD PTR _pe$[ebp]
  000f1	8b 48 24	 mov	 ecx, DWORD PTR [eax+36]
  000f4	83 e9 04	 sub	 ecx, 4
  000f7	8b 55 f8	 mov	 edx, DWORD PTR _pe$[ebp]
  000fa	89 4a 24	 mov	 DWORD PTR [edx+36], ecx

; 3107 : 		pe->angle += 6.0F;

  000fd	8b 45 f8	 mov	 eax, DWORD PTR _pe$[ebp]
  00100	f3 0f 10 40 20	 movss	 xmm0, DWORD PTR [eax+32]
  00105	f3 0f 58 05 00
	00 00 00	 addss	 xmm0, DWORD PTR __real@40c00000
  0010d	8b 4d f8	 mov	 ecx, DWORD PTR _pe$[ebp]
  00110	f3 0f 11 41 20	 movss	 DWORD PTR [ecx+32], xmm0

; 3108 : 
; 3109 : 		angle = pe->angle;

  00115	8b 45 f8	 mov	 eax, DWORD PTR _pe$[ebp]
  00118	f3 0f 10 40 20	 movss	 xmm0, DWORD PTR [eax+32]
  0011d	f3 0f 11 45 bc	 movss	 DWORD PTR _angle$[ebp], xmm0

; 3110 : 		for( i = 0; i < 3; i++ )

  00122	c7 45 b0 00 00
	00 00		 mov	 DWORD PTR _i$[ebp], 0
  00129	eb 09		 jmp	 SHORT $LN4@petCircleI
$LN2@petCircleI:
  0012b	8b 45 b0	 mov	 eax, DWORD PTR _i$[ebp]
  0012e	83 c0 01	 add	 eax, 1
  00131	89 45 b0	 mov	 DWORD PTR _i$[ebp], eax
$LN4@petCircleI:
  00134	83 7d b0 03	 cmp	 DWORD PTR _i$[ebp], 3
  00138	0f 8d 69 01 00
	00		 jge	 $LN3@petCircleI

; 3111 : 		{
; 3112 : 			dx = (float)pe->r * CosT( angle );

  0013e	8b 45 f8	 mov	 eax, DWORD PTR _pe$[ebp]
  00141	f3 0f 2a 40 24	 cvtsi2ss xmm0, DWORD PTR [eax+36]
  00146	51		 push	 ecx
  00147	f3 0f 10 4d bc	 movss	 xmm1, DWORD PTR _angle$[ebp]
  0014c	f3 0f 11 0c 24	 movss	 DWORD PTR [esp], xmm1
  00151	f3 0f 11 85 e8
	fe ff ff	 movss	 DWORD PTR tv260[ebp], xmm0
  00159	e8 00 00 00 00	 call	 ?CosT@@YAMM@Z		; CosT
  0015e	83 c4 04	 add	 esp, 4
  00161	d9 9d e4 fe ff
	ff		 fstp	 DWORD PTR tv225[ebp]
  00167	f3 0f 10 85 e8
	fe ff ff	 movss	 xmm0, DWORD PTR tv260[ebp]
  0016f	f3 0f 59 85 e4
	fe ff ff	 mulss	 xmm0, DWORD PTR tv225[ebp]
  00177	f3 0f 11 45 d4	 movss	 DWORD PTR _dx$[ebp], xmm0

; 3113 : 			dy = (float)pe->r * SinT( angle );

  0017c	8b 45 f8	 mov	 eax, DWORD PTR _pe$[ebp]
  0017f	f3 0f 2a 40 24	 cvtsi2ss xmm0, DWORD PTR [eax+36]
  00184	51		 push	 ecx
  00185	f3 0f 10 4d bc	 movss	 xmm1, DWORD PTR _angle$[ebp]
  0018a	f3 0f 11 0c 24	 movss	 DWORD PTR [esp], xmm1
  0018f	f3 0f 11 85 e8
	fe ff ff	 movss	 DWORD PTR tv262[ebp], xmm0
  00197	e8 00 00 00 00	 call	 ?SinT@@YAMM@Z		; SinT
  0019c	83 c4 04	 add	 esp, 4
  0019f	d9 9d e4 fe ff
	ff		 fstp	 DWORD PTR tv232[ebp]
  001a5	f3 0f 10 85 e8
	fe ff ff	 movss	 xmm0, DWORD PTR tv262[ebp]
  001ad	f3 0f 59 85 e4
	fe ff ff	 mulss	 xmm0, DWORD PTR tv232[ebp]
  001b5	f3 0f 11 45 c8	 movss	 DWORD PTR _dy$[ebp], xmm0

; 3114 : 
; 3115 : 			// ??t
; 3116 : 			camMapToGamen( ptAct->mx+dx, ptAct->my+dy, &mx, &my );

  001ba	8d 45 e0	 lea	 eax, DWORD PTR _my$[ebp]
  001bd	50		 push	 eax
  001be	8d 4d ec	 lea	 ecx, DWORD PTR _mx$[ebp]
  001c1	51		 push	 ecx
  001c2	8b 55 08	 mov	 edx, DWORD PTR _ptAct$[ebp]
  001c5	f3 0f 10 82 1c
	01 00 00	 movss	 xmm0, DWORD PTR [edx+284]
  001cd	f3 0f 58 45 c8	 addss	 xmm0, DWORD PTR _dy$[ebp]
  001d2	51		 push	 ecx
  001d3	f3 0f 11 04 24	 movss	 DWORD PTR [esp], xmm0
  001d8	8b 45 08	 mov	 eax, DWORD PTR _ptAct$[ebp]
  001db	f3 0f 10 80 18
	01 00 00	 movss	 xmm0, DWORD PTR [eax+280]
  001e3	f3 0f 58 45 d4	 addss	 xmm0, DWORD PTR _dx$[ebp]
  001e8	51		 push	 ecx
  001e9	f3 0f 11 04 24	 movss	 DWORD PTR [esp], xmm0
  001ee	e8 00 00 00 00	 call	 ?camMapToGamen@@YAXMMPAM0@Z ; camMapToGamen
  001f3	83 c4 10	 add	 esp, 16			; 00000010H

; 3117 : 			ptAct->x = (int)(mx+.5);

  001f6	f3 0f 5a 45 ec	 cvtss2sd xmm0, DWORD PTR _mx$[ebp]
  001fb	f2 0f 58 05 00
	00 00 00	 addsd	 xmm0, QWORD PTR __real@3fe0000000000000
  00203	f2 0f 2c c0	 cvttsd2si eax, xmm0
  00207	8b 4d 08	 mov	 ecx, DWORD PTR _ptAct$[ebp]
  0020a	89 41 18	 mov	 DWORD PTR [ecx+24], eax

; 3118 : 			ptAct->y = (int)(my+.5);

  0020d	f3 0f 5a 45 e0	 cvtss2sd xmm0, DWORD PTR _my$[ebp]
  00212	f2 0f 58 05 00
	00 00 00	 addsd	 xmm0, QWORD PTR __real@3fe0000000000000
  0021a	f2 0f 2c c0	 cvttsd2si eax, xmm0
  0021e	8b 4d 08	 mov	 ecx, DWORD PTR _ptAct$[ebp]
  00221	89 41 1c	 mov	 DWORD PTR [ecx+28], eax

; 3119 : 
; 3120 : 			// ?????????
; 3121 : 			pattern( ptAct, ANM_NOMAL_SPD, ANM_LOOP );

  00224	6a 00		 push	 0
  00226	6a 00		 push	 0
  00228	8b 45 08	 mov	 eax, DWORD PTR _ptAct$[ebp]
  0022b	50		 push	 eax
  0022c	e8 00 00 00 00	 call	 ?pattern@@YAHPAUaction@@HH@Z ; pattern
  00231	83 c4 0c	 add	 esp, 12			; 0000000cH

; 3122 : 
; 3123 : 			// ??????????????
; 3124 : 			setCharPrio( ptAct->bmpNo, ptAct->x, ptAct->y, 0, 0, ptAct->mx+dx, ptAct->my+dy );

  00234	8b 45 08	 mov	 eax, DWORD PTR _ptAct$[ebp]
  00237	f3 0f 10 80 1c
	01 00 00	 movss	 xmm0, DWORD PTR [eax+284]
  0023f	f3 0f 58 45 c8	 addss	 xmm0, DWORD PTR _dy$[ebp]
  00244	51		 push	 ecx
  00245	f3 0f 11 04 24	 movss	 DWORD PTR [esp], xmm0
  0024a	8b 4d 08	 mov	 ecx, DWORD PTR _ptAct$[ebp]
  0024d	f3 0f 10 81 18
	01 00 00	 movss	 xmm0, DWORD PTR [ecx+280]
  00255	f3 0f 58 45 d4	 addss	 xmm0, DWORD PTR _dx$[ebp]
  0025a	51		 push	 ecx
  0025b	f3 0f 11 04 24	 movss	 DWORD PTR [esp], xmm0
  00260	6a 00		 push	 0
  00262	6a 00		 push	 0
  00264	8b 55 08	 mov	 edx, DWORD PTR _ptAct$[ebp]
  00267	8b 42 1c	 mov	 eax, DWORD PTR [edx+28]
  0026a	50		 push	 eax
  0026b	8b 4d 08	 mov	 ecx, DWORD PTR _ptAct$[ebp]
  0026e	8b 51 18	 mov	 edx, DWORD PTR [ecx+24]
  00271	52		 push	 edx
  00272	8b 45 08	 mov	 eax, DWORD PTR _ptAct$[ebp]
  00275	8b 88 9c 00 00
	00		 mov	 ecx, DWORD PTR [eax+156]
  0027b	51		 push	 ecx
  0027c	e8 00 00 00 00	 call	 ?setCharPrio@@YAXHHHHHMM@Z ; setCharPrio
  00281	83 c4 1c	 add	 esp, 28			; 0000001cH

; 3125 : 			angle += 120;

  00284	f3 0f 10 45 bc	 movss	 xmm0, DWORD PTR _angle$[ebp]
  00289	f3 0f 58 05 00
	00 00 00	 addss	 xmm0, DWORD PTR __real@42f00000
  00291	f3 0f 11 45 bc	 movss	 DWORD PTR _angle$[ebp], xmm0

; 3126 : 			AdjustDir( &angle );

  00296	8d 45 bc	 lea	 eax, DWORD PTR _angle$[ebp]
  00299	50		 push	 eax
  0029a	e8 00 00 00 00	 call	 ?AdjustDir@@YAXPAM@Z	; AdjustDir
  0029f	83 c4 04	 add	 esp, 4

; 3127 : 		}

  002a2	e9 84 fe ff ff	 jmp	 $LN2@petCircleI
$LN3@petCircleI:

; 3128 : 	}
; 3129 : 
; 3130 : 	return FALSE;

  002a7	33 c0		 xor	 eax, eax
$LN1@petCircleI:

; 3131 : }

  002a9	52		 push	 edx
  002aa	8b cd		 mov	 ecx, ebp
  002ac	50		 push	 eax
  002ad	8d 15 00 00 00
	00		 lea	 edx, DWORD PTR $LN15@petCircleI
  002b3	e8 00 00 00 00	 call	 @_RTC_CheckStackVars@8
  002b8	58		 pop	 eax
  002b9	5a		 pop	 edx
  002ba	5f		 pop	 edi
  002bb	5e		 pop	 esi
  002bc	5b		 pop	 ebx
  002bd	81 c4 1c 01 00
	00		 add	 esp, 284		; 0000011cH
  002c3	3b ec		 cmp	 ebp, esp
  002c5	e8 00 00 00 00	 call	 __RTC_CheckEsp
  002ca	8b e5		 mov	 esp, ebp
  002cc	5d		 pop	 ebp
  002cd	c3		 ret	 0
  002ce	66 90		 npad	 2
$LN15@petCircleI:
  002d0	03 00 00 00	 DD	 3
  002d4	00 00 00 00	 DD	 $LN14@petCircleI
$LN14@petCircleI:
  002d8	ec ff ff ff	 DD	 -20			; ffffffecH
  002dc	04 00 00 00	 DD	 4
  002e0	00 00 00 00	 DD	 $LN11@petCircleI
  002e4	e0 ff ff ff	 DD	 -32			; ffffffe0H
  002e8	04 00 00 00	 DD	 4
  002ec	00 00 00 00	 DD	 $LN12@petCircleI
  002f0	bc ff ff ff	 DD	 -68			; ffffffbcH
  002f4	04 00 00 00	 DD	 4
  002f8	00 00 00 00	 DD	 $LN13@petCircleI
$LN13@petCircleI:
  002fc	61		 DB	 97			; 00000061H
  002fd	6e		 DB	 110			; 0000006eH
  002fe	67		 DB	 103			; 00000067H
  002ff	6c		 DB	 108			; 0000006cH
  00300	65		 DB	 101			; 00000065H
  00301	00		 DB	 0
$LN12@petCircleI:
  00302	6d		 DB	 109			; 0000006dH
  00303	79		 DB	 121			; 00000079H
  00304	00		 DB	 0
$LN11@petCircleI:
  00305	6d		 DB	 109			; 0000006dH
  00306	78		 DB	 120			; 00000078H
  00307	00		 DB	 0
?petCircleInProc@@YAHPAUaction@@@Z ENDP			; petCircleInProc
_TEXT	ENDS
; Function compile flags: /Odtp /RTCsu /ZI
; File c:\users\administrator\desktop\????? ??\????? ??\client source code\system\character.cpp
;	COMDAT ?petCircleOutProc@@YAHPAUaction@@@Z
_TEXT	SEGMENT
tv223 = -284						; size = 4
tv216 = -284						; size = 4
tv253 = -280						; size = 4
tv251 = -280						; size = 4
_i$ = -80						; size = 4
_angle$ = -68						; size = 4
_dy$ = -56						; size = 4
_dx$ = -44						; size = 4
_my$ = -32						; size = 4
_mx$ = -20						; size = 4
_pe$ = -8						; size = 4
_ptAct$ = 8						; size = 4
?petCircleOutProc@@YAHPAUaction@@@Z PROC		; petCircleOutProc, COMDAT

; 3017 : {

  00000	55		 push	 ebp
  00001	8b ec		 mov	 ebp, esp
  00003	81 ec 1c 01 00
	00		 sub	 esp, 284		; 0000011cH
  00009	53		 push	 ebx
  0000a	56		 push	 esi
  0000b	57		 push	 edi
  0000c	8d bd e4 fe ff
	ff		 lea	 edi, DWORD PTR [ebp-284]
  00012	b9 47 00 00 00	 mov	 ecx, 71			; 00000047H
  00017	b8 cc cc cc cc	 mov	 eax, -858993460		; ccccccccH
  0001c	f3 ab		 rep stosd

; 3018 : 	PETEXTRA *pe = (PETEXTRA *)ptAct->pYobi;

  0001e	8b 45 08	 mov	 eax, DWORD PTR _ptAct$[ebp]
  00021	8b 48 0c	 mov	 ecx, DWORD PTR [eax+12]
  00024	89 4d f8	 mov	 DWORD PTR _pe$[ebp], ecx

; 3019 : 	float mx, my;
; 3020 : 	float dx, dy;
; 3021 : 	float angle;
; 3022 : 	int i;
; 3023 : 
; 3024 : 	if( pe->ptAct == NULL )

  00027	8b 45 f8	 mov	 eax, DWORD PTR _pe$[ebp]
  0002a	83 78 18 00	 cmp	 DWORD PTR [eax+24], 0
  0002e	75 4c		 jne	 SHORT $LN5@petCircleO

; 3025 : 	{
; 3026 : 		pe->ptAct = (ACTION *)1;

  00030	8b 45 f8	 mov	 eax, DWORD PTR _pe$[ebp]
  00033	c7 40 18 01 00
	00 00		 mov	 DWORD PTR [eax+24], 1

; 3027 : 		pe->angle = 0.0F;

  0003a	8b 45 f8	 mov	 eax, DWORD PTR _pe$[ebp]
  0003d	0f 57 c0	 xorps	 xmm0, xmm0
  00040	f3 0f 11 40 20	 movss	 DWORD PTR [eax+32], xmm0

; 3028 : 		pe->r = 0;

  00045	8b 45 f8	 mov	 eax, DWORD PTR _pe$[ebp]
  00048	c7 40 24 00 00
	00 00		 mov	 DWORD PTR [eax+36], 0

; 3029 : 		createCommmonEffectNoLoop( SPR_hoshi, ptAct->gx, ptAct->gy,

  0004f	8b 45 08	 mov	 eax, DWORD PTR _ptAct$[ebp]
  00052	0f b6 48 15	 movzx	 ecx, BYTE PTR [eax+21]
  00056	51		 push	 ecx
  00057	6a 00		 push	 0
  00059	6a 00		 push	 0
  0005b	8b 55 08	 mov	 edx, DWORD PTR _ptAct$[ebp]
  0005e	8b 82 b8 00 00
	00		 mov	 eax, DWORD PTR [edx+184]
  00064	50		 push	 eax
  00065	8b 4d 08	 mov	 ecx, DWORD PTR _ptAct$[ebp]
  00068	8b 91 b4 00 00
	00		 mov	 edx, DWORD PTR [ecx+180]
  0006e	52		 push	 edx
  0006f	68 fd 88 01 00	 push	 100605			; 000188fdH
  00074	e8 00 00 00 00	 call	 ?createCommmonEffectNoLoop@@YAPAUaction@@HHHHHH@Z ; createCommmonEffectNoLoop
  00079	83 c4 18	 add	 esp, 24			; 00000018H
$LN5@petCircleO:

; 3030 : 			0, 0, ptAct->dispPrio );
; 3031 : 	}
; 3032 : 
; 3033 : 	if( pe->r > 800 )

  0007c	8b 45 f8	 mov	 eax, DWORD PTR _pe$[ebp]
  0007f	81 78 24 20 03
	00 00		 cmp	 DWORD PTR [eax+36], 800	; 00000320H
  00086	7e 29		 jle	 SHORT $LN6@petCircleO

; 3034 : 	{
; 3035 : 		restorePtActCharObj( pe->id );

  00088	8b 45 f8	 mov	 eax, DWORD PTR _pe$[ebp]
  0008b	8b 48 28	 mov	 ecx, DWORD PTR [eax+40]
  0008e	51		 push	 ecx
  0008f	e8 00 00 00 00	 call	 ?restorePtActCharObj@@YAXH@Z ; restorePtActCharObj
  00094	83 c4 04	 add	 esp, 4

; 3036 : 		DeathAction( ptAct );

  00097	8b 45 08	 mov	 eax, DWORD PTR _ptAct$[ebp]
  0009a	50		 push	 eax
  0009b	e8 00 00 00 00	 call	 ?DeathAction@@YAXPAUaction@@@Z ; DeathAction
  000a0	83 c4 04	 add	 esp, 4

; 3037 : 		ptAct = NULL;

  000a3	c7 45 08 00 00
	00 00		 mov	 DWORD PTR _ptAct$[ebp], 0

; 3038 : 		return FALSE;

  000aa	33 c0		 xor	 eax, eax
  000ac	e9 d9 01 00 00	 jmp	 $LN1@petCircleO
$LN6@petCircleO:

; 3039 : 	}
; 3040 : 
; 3041 : 	if( pe->ptAct != NULL && pe->createTime+1000 < TimeGetTime() )

  000b1	8b 45 f8	 mov	 eax, DWORD PTR _pe$[ebp]
  000b4	83 78 18 00	 cmp	 DWORD PTR [eax+24], 0
  000b8	74 3c		 je	 SHORT $LN7@petCircleO
  000ba	8b 45 f8	 mov	 eax, DWORD PTR _pe$[ebp]
  000bd	8b 70 14	 mov	 esi, DWORD PTR [eax+20]
  000c0	81 c6 e8 03 00
	00		 add	 esi, 1000		; 000003e8H
  000c6	e8 00 00 00 00	 call	 ?TimeGetTime@@YAIXZ	; TimeGetTime
  000cb	3b f0		 cmp	 esi, eax
  000cd	73 27		 jae	 SHORT $LN7@petCircleO

; 3042 : 	{
; 3043 : 		pe->r += 4;

  000cf	8b 45 f8	 mov	 eax, DWORD PTR _pe$[ebp]
  000d2	8b 48 24	 mov	 ecx, DWORD PTR [eax+36]
  000d5	83 c1 04	 add	 ecx, 4
  000d8	8b 55 f8	 mov	 edx, DWORD PTR _pe$[ebp]
  000db	89 4a 24	 mov	 DWORD PTR [edx+36], ecx

; 3044 : 		pe->angle += 6.0F;

  000de	8b 45 f8	 mov	 eax, DWORD PTR _pe$[ebp]
  000e1	f3 0f 10 40 20	 movss	 xmm0, DWORD PTR [eax+32]
  000e6	f3 0f 58 05 00
	00 00 00	 addss	 xmm0, DWORD PTR __real@40c00000
  000ee	8b 4d f8	 mov	 ecx, DWORD PTR _pe$[ebp]
  000f1	f3 0f 11 41 20	 movss	 DWORD PTR [ecx+32], xmm0
$LN7@petCircleO:

; 3045 : 	}
; 3046 : 
; 3047 : 	angle = pe->angle;

  000f6	8b 45 f8	 mov	 eax, DWORD PTR _pe$[ebp]
  000f9	f3 0f 10 40 20	 movss	 xmm0, DWORD PTR [eax+32]
  000fe	f3 0f 11 45 bc	 movss	 DWORD PTR _angle$[ebp], xmm0

; 3048 : 	for( i = 0; i < 3; i++ )

  00103	c7 45 b0 00 00
	00 00		 mov	 DWORD PTR _i$[ebp], 0
  0010a	eb 09		 jmp	 SHORT $LN4@petCircleO
$LN2@petCircleO:
  0010c	8b 45 b0	 mov	 eax, DWORD PTR _i$[ebp]
  0010f	83 c0 01	 add	 eax, 1
  00112	89 45 b0	 mov	 DWORD PTR _i$[ebp], eax
$LN4@petCircleO:
  00115	83 7d b0 03	 cmp	 DWORD PTR _i$[ebp], 3
  00119	0f 8d 69 01 00
	00		 jge	 $LN3@petCircleO

; 3049 : 	{
; 3050 : 		dx = (float)pe->r * CosT( angle );

  0011f	8b 45 f8	 mov	 eax, DWORD PTR _pe$[ebp]
  00122	f3 0f 2a 40 24	 cvtsi2ss xmm0, DWORD PTR [eax+36]
  00127	51		 push	 ecx
  00128	f3 0f 10 4d bc	 movss	 xmm1, DWORD PTR _angle$[ebp]
  0012d	f3 0f 11 0c 24	 movss	 DWORD PTR [esp], xmm1
  00132	f3 0f 11 85 e8
	fe ff ff	 movss	 DWORD PTR tv251[ebp], xmm0
  0013a	e8 00 00 00 00	 call	 ?CosT@@YAMM@Z		; CosT
  0013f	83 c4 04	 add	 esp, 4
  00142	d9 9d e4 fe ff
	ff		 fstp	 DWORD PTR tv216[ebp]
  00148	f3 0f 10 85 e8
	fe ff ff	 movss	 xmm0, DWORD PTR tv251[ebp]
  00150	f3 0f 59 85 e4
	fe ff ff	 mulss	 xmm0, DWORD PTR tv216[ebp]
  00158	f3 0f 11 45 d4	 movss	 DWORD PTR _dx$[ebp], xmm0

; 3051 : 		dy = (float)pe->r * SinT( angle );

  0015d	8b 45 f8	 mov	 eax, DWORD PTR _pe$[ebp]
  00160	f3 0f 2a 40 24	 cvtsi2ss xmm0, DWORD PTR [eax+36]
  00165	51		 push	 ecx
  00166	f3 0f 10 4d bc	 movss	 xmm1, DWORD PTR _angle$[ebp]
  0016b	f3 0f 11 0c 24	 movss	 DWORD PTR [esp], xmm1
  00170	f3 0f 11 85 e8
	fe ff ff	 movss	 DWORD PTR tv253[ebp], xmm0
  00178	e8 00 00 00 00	 call	 ?SinT@@YAMM@Z		; SinT
  0017d	83 c4 04	 add	 esp, 4
  00180	d9 9d e4 fe ff
	ff		 fstp	 DWORD PTR tv223[ebp]
  00186	f3 0f 10 85 e8
	fe ff ff	 movss	 xmm0, DWORD PTR tv253[ebp]
  0018e	f3 0f 59 85 e4
	fe ff ff	 mulss	 xmm0, DWORD PTR tv223[ebp]
  00196	f3 0f 11 45 c8	 movss	 DWORD PTR _dy$[ebp], xmm0

; 3052 : 
; 3053 : 		// ??t
; 3054 : 		camMapToGamen( ptAct->mx+dx, ptAct->my+dy, &mx, &my );

  0019b	8d 45 e0	 lea	 eax, DWORD PTR _my$[ebp]
  0019e	50		 push	 eax
  0019f	8d 4d ec	 lea	 ecx, DWORD PTR _mx$[ebp]
  001a2	51		 push	 ecx
  001a3	8b 55 08	 mov	 edx, DWORD PTR _ptAct$[ebp]
  001a6	f3 0f 10 82 1c
	01 00 00	 movss	 xmm0, DWORD PTR [edx+284]
  001ae	f3 0f 58 45 c8	 addss	 xmm0, DWORD PTR _dy$[ebp]
  001b3	51		 push	 ecx
  001b4	f3 0f 11 04 24	 movss	 DWORD PTR [esp], xmm0
  001b9	8b 45 08	 mov	 eax, DWORD PTR _ptAct$[ebp]
  001bc	f3 0f 10 80 18
	01 00 00	 movss	 xmm0, DWORD PTR [eax+280]
  001c4	f3 0f 58 45 d4	 addss	 xmm0, DWORD PTR _dx$[ebp]
  001c9	51		 push	 ecx
  001ca	f3 0f 11 04 24	 movss	 DWORD PTR [esp], xmm0
  001cf	e8 00 00 00 00	 call	 ?camMapToGamen@@YAXMMPAM0@Z ; camMapToGamen
  001d4	83 c4 10	 add	 esp, 16			; 00000010H

; 3055 : 		ptAct->x = (int)(mx+.5);

  001d7	f3 0f 5a 45 ec	 cvtss2sd xmm0, DWORD PTR _mx$[ebp]
  001dc	f2 0f 58 05 00
	00 00 00	 addsd	 xmm0, QWORD PTR __real@3fe0000000000000
  001e4	f2 0f 2c c0	 cvttsd2si eax, xmm0
  001e8	8b 4d 08	 mov	 ecx, DWORD PTR _ptAct$[ebp]
  001eb	89 41 18	 mov	 DWORD PTR [ecx+24], eax

; 3056 : 		ptAct->y = (int)(my+.5);

  001ee	f3 0f 5a 45 e0	 cvtss2sd xmm0, DWORD PTR _my$[ebp]
  001f3	f2 0f 58 05 00
	00 00 00	 addsd	 xmm0, QWORD PTR __real@3fe0000000000000
  001fb	f2 0f 2c c0	 cvttsd2si eax, xmm0
  001ff	8b 4d 08	 mov	 ecx, DWORD PTR _ptAct$[ebp]
  00202	89 41 1c	 mov	 DWORD PTR [ecx+28], eax

; 3057 : 
; 3058 : 		// ?????????
; 3059 : 		pattern( ptAct, ANM_NOMAL_SPD, ANM_LOOP );

  00205	6a 00		 push	 0
  00207	6a 00		 push	 0
  00209	8b 45 08	 mov	 eax, DWORD PTR _ptAct$[ebp]
  0020c	50		 push	 eax
  0020d	e8 00 00 00 00	 call	 ?pattern@@YAHPAUaction@@HH@Z ; pattern
  00212	83 c4 0c	 add	 esp, 12			; 0000000cH

; 3060 : 
; 3061 : 		// ??????????????
; 3062 : 		setCharPrio( ptAct->bmpNo, ptAct->x, ptAct->y, 0, 0, ptAct->mx+dx, ptAct->my+dy );

  00215	8b 45 08	 mov	 eax, DWORD PTR _ptAct$[ebp]
  00218	f3 0f 10 80 1c
	01 00 00	 movss	 xmm0, DWORD PTR [eax+284]
  00220	f3 0f 58 45 c8	 addss	 xmm0, DWORD PTR _dy$[ebp]
  00225	51		 push	 ecx
  00226	f3 0f 11 04 24	 movss	 DWORD PTR [esp], xmm0
  0022b	8b 4d 08	 mov	 ecx, DWORD PTR _ptAct$[ebp]
  0022e	f3 0f 10 81 18
	01 00 00	 movss	 xmm0, DWORD PTR [ecx+280]
  00236	f3 0f 58 45 d4	 addss	 xmm0, DWORD PTR _dx$[ebp]
  0023b	51		 push	 ecx
  0023c	f3 0f 11 04 24	 movss	 DWORD PTR [esp], xmm0
  00241	6a 00		 push	 0
  00243	6a 00		 push	 0
  00245	8b 55 08	 mov	 edx, DWORD PTR _ptAct$[ebp]
  00248	8b 42 1c	 mov	 eax, DWORD PTR [edx+28]
  0024b	50		 push	 eax
  0024c	8b 4d 08	 mov	 ecx, DWORD PTR _ptAct$[ebp]
  0024f	8b 51 18	 mov	 edx, DWORD PTR [ecx+24]
  00252	52		 push	 edx
  00253	8b 45 08	 mov	 eax, DWORD PTR _ptAct$[ebp]
  00256	8b 88 9c 00 00
	00		 mov	 ecx, DWORD PTR [eax+156]
  0025c	51		 push	 ecx
  0025d	e8 00 00 00 00	 call	 ?setCharPrio@@YAXHHHHHMM@Z ; setCharPrio
  00262	83 c4 1c	 add	 esp, 28			; 0000001cH

; 3063 : 		angle += 120;

  00265	f3 0f 10 45 bc	 movss	 xmm0, DWORD PTR _angle$[ebp]
  0026a	f3 0f 58 05 00
	00 00 00	 addss	 xmm0, DWORD PTR __real@42f00000
  00272	f3 0f 11 45 bc	 movss	 DWORD PTR _angle$[ebp], xmm0

; 3064 : 		AdjustDir( &angle );

  00277	8d 45 bc	 lea	 eax, DWORD PTR _angle$[ebp]
  0027a	50		 push	 eax
  0027b	e8 00 00 00 00	 call	 ?AdjustDir@@YAXPAM@Z	; AdjustDir
  00280	83 c4 04	 add	 esp, 4

; 3065 : 	}

  00283	e9 84 fe ff ff	 jmp	 $LN2@petCircleO
$LN3@petCircleO:

; 3066 : 
; 3067 : 	return FALSE;

  00288	33 c0		 xor	 eax, eax
$LN1@petCircleO:

; 3068 : }

  0028a	52		 push	 edx
  0028b	8b cd		 mov	 ecx, ebp
  0028d	50		 push	 eax
  0028e	8d 15 00 00 00
	00		 lea	 edx, DWORD PTR $LN13@petCircleO
  00294	e8 00 00 00 00	 call	 @_RTC_CheckStackVars@8
  00299	58		 pop	 eax
  0029a	5a		 pop	 edx
  0029b	5f		 pop	 edi
  0029c	5e		 pop	 esi
  0029d	5b		 pop	 ebx
  0029e	81 c4 1c 01 00
	00		 add	 esp, 284		; 0000011cH
  002a4	3b ec		 cmp	 ebp, esp
  002a6	e8 00 00 00 00	 call	 __RTC_CheckEsp
  002ab	8b e5		 mov	 esp, ebp
  002ad	5d		 pop	 ebp
  002ae	c3		 ret	 0
  002af	90		 npad	 1
$LN13@petCircleO:
  002b0	03 00 00 00	 DD	 3
  002b4	00 00 00 00	 DD	 $LN12@petCircleO
$LN12@petCircleO:
  002b8	ec ff ff ff	 DD	 -20			; ffffffecH
  002bc	04 00 00 00	 DD	 4
  002c0	00 00 00 00	 DD	 $LN9@petCircleO
  002c4	e0 ff ff ff	 DD	 -32			; ffffffe0H
  002c8	04 00 00 00	 DD	 4
  002cc	00 00 00 00	 DD	 $LN10@petCircleO
  002d0	bc ff ff ff	 DD	 -68			; ffffffbcH
  002d4	04 00 00 00	 DD	 4
  002d8	00 00 00 00	 DD	 $LN11@petCircleO
$LN11@petCircleO:
  002dc	61		 DB	 97			; 00000061H
  002dd	6e		 DB	 110			; 0000006eH
  002de	67		 DB	 103			; 00000067H
  002df	6c		 DB	 108			; 0000006cH
  002e0	65		 DB	 101			; 00000065H
  002e1	00		 DB	 0
$LN10@petCircleO:
  002e2	6d		 DB	 109			; 0000006dH
  002e3	79		 DB	 121			; 00000079H
  002e4	00		 DB	 0
$LN9@petCircleO:
  002e5	6d		 DB	 109			; 0000006dH
  002e6	78		 DB	 120			; 00000078H
  002e7	00		 DB	 0
?petCircleOutProc@@YAHPAUaction@@@Z ENDP		; petCircleOutProc
_TEXT	ENDS
; Function compile flags: /Odtp /RTCsu /ZI
; File c:\users\administrator\desktop\????? ??\????? ??\client source code\system\character.cpp
;	COMDAT ?uprisePetProc@@YAHPAUaction@@@Z
_TEXT	SEGMENT
_pe$ = -8						; size = 4
_ptAct$ = 8						; size = 4
?uprisePetProc@@YAHPAUaction@@@Z PROC			; uprisePetProc, COMDAT

; 2989 : {

  00000	55		 push	 ebp
  00001	8b ec		 mov	 ebp, esp
  00003	81 ec cc 00 00
	00		 sub	 esp, 204		; 000000ccH
  00009	53		 push	 ebx
  0000a	56		 push	 esi
  0000b	57		 push	 edi
  0000c	8d bd 34 ff ff
	ff		 lea	 edi, DWORD PTR [ebp-204]
  00012	b9 33 00 00 00	 mov	 ecx, 51			; 00000033H
  00017	b8 cc cc cc cc	 mov	 eax, -858993460		; ccccccccH
  0001c	f3 ab		 rep stosd

; 2990 : 	PETEXTRA *pe = (PETEXTRA *)ptAct->pYobi;

  0001e	8b 45 08	 mov	 eax, DWORD PTR _ptAct$[ebp]
  00021	8b 48 0c	 mov	 ecx, DWORD PTR [eax+12]
  00024	89 4d f8	 mov	 DWORD PTR _pe$[ebp], ecx

; 2991 : 
; 2992 : 	if( pe->ptAct == NULL && pe->createTime < TimeGetTime() )

  00027	8b 45 f8	 mov	 eax, DWORD PTR _pe$[ebp]
  0002a	83 78 18 00	 cmp	 DWORD PTR [eax+24], 0
  0002e	75 40		 jne	 SHORT $LN2@uprisePetP
  00030	e8 00 00 00 00	 call	 ?TimeGetTime@@YAIXZ	; TimeGetTime
  00035	8b 4d f8	 mov	 ecx, DWORD PTR _pe$[ebp]
  00038	39 41 14	 cmp	 DWORD PTR [ecx+20], eax
  0003b	73 33		 jae	 SHORT $LN2@uprisePetP

; 2993 : 	{
; 2994 : 		pe->ptAct = createCommmonEffectNoLoop( SPR_difence, ptAct->gx, ptAct->gy,

  0003d	8b 45 08	 mov	 eax, DWORD PTR _ptAct$[ebp]
  00040	0f b6 48 15	 movzx	 ecx, BYTE PTR [eax+21]
  00044	51		 push	 ecx
  00045	6a 00		 push	 0
  00047	6a 00		 push	 0
  00049	8b 55 08	 mov	 edx, DWORD PTR _ptAct$[ebp]
  0004c	8b 82 b8 00 00
	00		 mov	 eax, DWORD PTR [edx+184]
  00052	50		 push	 eax
  00053	8b 4d 08	 mov	 ecx, DWORD PTR _ptAct$[ebp]
  00056	8b 91 b4 00 00
	00		 mov	 edx, DWORD PTR [ecx+180]
  0005c	52		 push	 edx
  0005d	68 02 89 01 00	 push	 100610			; 00018902H
  00062	e8 00 00 00 00	 call	 ?createCommmonEffectNoLoop@@YAPAUaction@@HHHHHH@Z ; createCommmonEffectNoLoop
  00067	83 c4 18	 add	 esp, 24			; 00000018H
  0006a	8b 4d f8	 mov	 ecx, DWORD PTR _pe$[ebp]
  0006d	89 41 18	 mov	 DWORD PTR [ecx+24], eax
$LN2@uprisePetP:

; 2995 : 			0, 0, ptAct->dispPrio );
; 2996 : 	}
; 2997 : 	if( pe->ptAct2 == NULL && pe->createTime+500 < TimeGetTime() )

  00070	8b 45 f8	 mov	 eax, DWORD PTR _pe$[ebp]
  00073	83 78 1c 00	 cmp	 DWORD PTR [eax+28], 0
  00077	75 48		 jne	 SHORT $LN3@uprisePetP
  00079	8b 45 f8	 mov	 eax, DWORD PTR _pe$[ebp]
  0007c	8b 70 14	 mov	 esi, DWORD PTR [eax+20]
  0007f	81 c6 f4 01 00
	00		 add	 esi, 500		; 000001f4H
  00085	e8 00 00 00 00	 call	 ?TimeGetTime@@YAIXZ	; TimeGetTime
  0008a	3b f0		 cmp	 esi, eax
  0008c	73 33		 jae	 SHORT $LN3@uprisePetP

; 2998 : 	{
; 2999 : 		pe->ptAct2 = createCommmonEffectNoLoop( SPR_difence, ptAct->gx, ptAct->gy,

  0008e	8b 45 08	 mov	 eax, DWORD PTR _ptAct$[ebp]
  00091	0f b6 48 15	 movzx	 ecx, BYTE PTR [eax+21]
  00095	51		 push	 ecx
  00096	6a 00		 push	 0
  00098	6a 00		 push	 0
  0009a	8b 55 08	 mov	 edx, DWORD PTR _ptAct$[ebp]
  0009d	8b 82 b8 00 00
	00		 mov	 eax, DWORD PTR [edx+184]
  000a3	50		 push	 eax
  000a4	8b 4d 08	 mov	 ecx, DWORD PTR _ptAct$[ebp]
  000a7	8b 91 b4 00 00
	00		 mov	 edx, DWORD PTR [ecx+180]
  000ad	52		 push	 edx
  000ae	68 02 89 01 00	 push	 100610			; 00018902H
  000b3	e8 00 00 00 00	 call	 ?createCommmonEffectNoLoop@@YAPAUaction@@HHHHHH@Z ; createCommmonEffectNoLoop
  000b8	83 c4 18	 add	 esp, 24			; 00000018H
  000bb	8b 4d f8	 mov	 ecx, DWORD PTR _pe$[ebp]
  000be	89 41 1c	 mov	 DWORD PTR [ecx+28], eax
$LN3@uprisePetP:

; 3000 : 			0, 0, ptAct->dispPrio );
; 3001 : 	}
; 3002 : 
; 3003 : 	// ???????????
; 3004 : 	if( pe->createTime+1200 < TimeGetTime() )

  000c1	8b 45 f8	 mov	 eax, DWORD PTR _pe$[ebp]
  000c4	8b 70 14	 mov	 esi, DWORD PTR [eax+20]
  000c7	81 c6 b0 04 00
	00		 add	 esi, 1200		; 000004b0H
  000cd	e8 00 00 00 00	 call	 ?TimeGetTime@@YAIXZ	; TimeGetTime
  000d2	3b f0		 cmp	 esi, eax
  000d4	73 22		 jae	 SHORT $LN4@uprisePetP

; 3005 : 	{
; 3006 : 		restorePtActCharObj( pe->id );

  000d6	8b 45 f8	 mov	 eax, DWORD PTR _pe$[ebp]
  000d9	8b 48 28	 mov	 ecx, DWORD PTR [eax+40]
  000dc	51		 push	 ecx
  000dd	e8 00 00 00 00	 call	 ?restorePtActCharObj@@YAXH@Z ; restorePtActCharObj
  000e2	83 c4 04	 add	 esp, 4

; 3007 : 		DeathAction( ptAct );

  000e5	8b 45 08	 mov	 eax, DWORD PTR _ptAct$[ebp]
  000e8	50		 push	 eax
  000e9	e8 00 00 00 00	 call	 ?DeathAction@@YAXPAUaction@@@Z ; DeathAction
  000ee	83 c4 04	 add	 esp, 4

; 3008 : 		ptAct = NULL;

  000f1	c7 45 08 00 00
	00 00		 mov	 DWORD PTR _ptAct$[ebp], 0
$LN4@uprisePetP:

; 3009 : 	}
; 3010 : 
; 3011 : 	return FALSE;

  000f8	33 c0		 xor	 eax, eax

; 3012 : }

  000fa	5f		 pop	 edi
  000fb	5e		 pop	 esi
  000fc	5b		 pop	 ebx
  000fd	81 c4 cc 00 00
	00		 add	 esp, 204		; 000000ccH
  00103	3b ec		 cmp	 ebp, esp
  00105	e8 00 00 00 00	 call	 __RTC_CheckEsp
  0010a	8b e5		 mov	 esp, ebp
  0010c	5d		 pop	 ebp
  0010d	c3		 ret	 0
?uprisePetProc@@YAHPAUaction@@@Z ENDP			; uprisePetProc
_TEXT	ENDS
; Function compile flags: /Odtp /RTCsu /ZI
; File c:\users\administrator\desktop\????? ??\????? ??\client source code\system\character.cpp
;	COMDAT ?petMoveProc@@YAHPAUaction@@@Z
_TEXT	SEGMENT
tv83 = -208						; size = 4
tv73 = -208						; size = 4
_pe$ = -8						; size = 4
_ptAct$ = 8						; size = 4
?petMoveProc@@YAHPAUaction@@@Z PROC			; petMoveProc, COMDAT

; 2938 : {

  00000	55		 push	 ebp
  00001	8b ec		 mov	 ebp, esp
  00003	81 ec d0 00 00
	00		 sub	 esp, 208		; 000000d0H
  00009	53		 push	 ebx
  0000a	56		 push	 esi
  0000b	57		 push	 edi
  0000c	8d bd 30 ff ff
	ff		 lea	 edi, DWORD PTR [ebp-208]
  00012	b9 34 00 00 00	 mov	 ecx, 52			; 00000034H
  00017	b8 cc cc cc cc	 mov	 eax, -858993460		; ccccccccH
  0001c	f3 ab		 rep stosd

; 2939 : 	PETEXTRA *pe = (PETEXTRA *)ptAct->pYobi;

  0001e	8b 45 08	 mov	 eax, DWORD PTR _ptAct$[ebp]
  00021	8b 48 0c	 mov	 ecx, DWORD PTR [eax+12]
  00024	89 4d f8	 mov	 DWORD PTR _pe$[ebp], ecx

; 2940 : 
; 2941 : 	// d??????????
; 2942 : 	// ???8??????
; 2943 : 	if( ABS( ptAct->gx - nowGx ) >= 13
; 2944 : 	 || ABS( ptAct->gy - nowGy ) >= 13
; 2945 : 	 || (pe->createTime+8000 < TimeGetTime() && ptAct->vx == 0 && ptAct->vy == 0) )

  00027	8b 45 08	 mov	 eax, DWORD PTR _ptAct$[ebp]
  0002a	8b 88 b4 00 00
	00		 mov	 ecx, DWORD PTR [eax+180]
  00030	2b 0d 00 00 00
	00		 sub	 ecx, DWORD PTR ?nowGx@@3HA ; nowGx
  00036	79 19		 jns	 SHORT $LN10@petMovePro
  00038	8b 55 08	 mov	 edx, DWORD PTR _ptAct$[ebp]
  0003b	8b 82 b4 00 00
	00		 mov	 eax, DWORD PTR [edx+180]
  00041	2b 05 00 00 00
	00		 sub	 eax, DWORD PTR ?nowGx@@3HA ; nowGx
  00047	f7 d8		 neg	 eax
  00049	89 85 30 ff ff
	ff		 mov	 DWORD PTR tv73[ebp], eax
  0004f	eb 15		 jmp	 SHORT $LN11@petMovePro
$LN10@petMovePro:
  00051	8b 4d 08	 mov	 ecx, DWORD PTR _ptAct$[ebp]
  00054	8b 91 b4 00 00
	00		 mov	 edx, DWORD PTR [ecx+180]
  0005a	2b 15 00 00 00
	00		 sub	 edx, DWORD PTR ?nowGx@@3HA ; nowGx
  00060	89 95 30 ff ff
	ff		 mov	 DWORD PTR tv73[ebp], edx
$LN11@petMovePro:
  00066	83 bd 30 ff ff
	ff 0d		 cmp	 DWORD PTR tv73[ebp], 13	; 0000000dH
  0006d	0f 8d 8d 00 00
	00		 jge	 $LN3@petMovePro
  00073	8b 45 08	 mov	 eax, DWORD PTR _ptAct$[ebp]
  00076	8b 88 b8 00 00
	00		 mov	 ecx, DWORD PTR [eax+184]
  0007c	2b 0d 00 00 00
	00		 sub	 ecx, DWORD PTR ?nowGy@@3HA ; nowGy
  00082	79 19		 jns	 SHORT $LN12@petMovePro
  00084	8b 55 08	 mov	 edx, DWORD PTR _ptAct$[ebp]
  00087	8b 82 b8 00 00
	00		 mov	 eax, DWORD PTR [edx+184]
  0008d	2b 05 00 00 00
	00		 sub	 eax, DWORD PTR ?nowGy@@3HA ; nowGy
  00093	f7 d8		 neg	 eax
  00095	89 85 30 ff ff
	ff		 mov	 DWORD PTR tv83[ebp], eax
  0009b	eb 15		 jmp	 SHORT $LN13@petMovePro
$LN12@petMovePro:
  0009d	8b 4d 08	 mov	 ecx, DWORD PTR _ptAct$[ebp]
  000a0	8b 91 b8 00 00
	00		 mov	 edx, DWORD PTR [ecx+184]
  000a6	2b 15 00 00 00
	00		 sub	 edx, DWORD PTR ?nowGy@@3HA ; nowGy
  000ac	89 95 30 ff ff
	ff		 mov	 DWORD PTR tv83[ebp], edx
$LN13@petMovePro:
  000b2	83 bd 30 ff ff
	ff 0d		 cmp	 DWORD PTR tv83[ebp], 13	; 0000000dH
  000b9	7d 45		 jge	 SHORT $LN3@petMovePro
  000bb	8b 45 f8	 mov	 eax, DWORD PTR _pe$[ebp]
  000be	8b 70 14	 mov	 esi, DWORD PTR [eax+20]
  000c1	81 c6 40 1f 00
	00		 add	 esi, 8000		; 00001f40H
  000c7	e8 00 00 00 00	 call	 ?TimeGetTime@@YAIXZ	; TimeGetTime
  000cc	3b f0		 cmp	 esi, eax
  000ce	73 59		 jae	 SHORT $LN2@petMovePro
  000d0	8b 45 08	 mov	 eax, DWORD PTR _ptAct$[ebp]
  000d3	f3 0f 10 80 20
	01 00 00	 movss	 xmm0, DWORD PTR [eax+288]
  000db	0f 2e 05 00 00
	00 00		 ucomiss xmm0, DWORD PTR __real@00000000
  000e2	9f		 lahf
  000e3	f6 c4 44	 test	 ah, 68			; 00000044H
  000e6	7a 41		 jp	 SHORT $LN2@petMovePro
  000e8	8b 45 08	 mov	 eax, DWORD PTR _ptAct$[ebp]
  000eb	f3 0f 10 80 24
	01 00 00	 movss	 xmm0, DWORD PTR [eax+292]
  000f3	0f 2e 05 00 00
	00 00		 ucomiss xmm0, DWORD PTR __real@00000000
  000fa	9f		 lahf
  000fb	f6 c4 44	 test	 ah, 68			; 00000044H
  000fe	7a 29		 jp	 SHORT $LN2@petMovePro
$LN3@petMovePro:

; 2946 : 	{
; 2947 : 		restorePtActCharObj( pe->id );

  00100	8b 45 f8	 mov	 eax, DWORD PTR _pe$[ebp]
  00103	8b 48 28	 mov	 ecx, DWORD PTR [eax+40]
  00106	51		 push	 ecx
  00107	e8 00 00 00 00	 call	 ?restorePtActCharObj@@YAXH@Z ; restorePtActCharObj
  0010c	83 c4 04	 add	 esp, 4

; 2948 : 		DeathAction( ptAct );

  0010f	8b 45 08	 mov	 eax, DWORD PTR _ptAct$[ebp]
  00112	50		 push	 eax
  00113	e8 00 00 00 00	 call	 ?DeathAction@@YAXPAUaction@@@Z ; DeathAction
  00118	83 c4 04	 add	 esp, 4

; 2949 : 		ptAct = NULL;

  0011b	c7 45 08 00 00
	00 00		 mov	 DWORD PTR _ptAct$[ebp], 0

; 2950 : 		return FALSE;

  00122	33 c0		 xor	 eax, eax
  00124	e9 55 01 00 00	 jmp	 $LN1@petMovePro
$LN2@petMovePro:

; 2951 : 	}
; 2952 : 
; 2953 : 	if( pe->ptAct == NULL && pe->createTime+7200 < TimeGetTime() )

  00129	8b 45 f8	 mov	 eax, DWORD PTR _pe$[ebp]
  0012c	83 78 18 00	 cmp	 DWORD PTR [eax+24], 0
  00130	75 48		 jne	 SHORT $LN4@petMovePro
  00132	8b 45 f8	 mov	 eax, DWORD PTR _pe$[ebp]
  00135	8b 70 14	 mov	 esi, DWORD PTR [eax+20]
  00138	81 c6 20 1c 00
	00		 add	 esi, 7200		; 00001c20H
  0013e	e8 00 00 00 00	 call	 ?TimeGetTime@@YAIXZ	; TimeGetTime
  00143	3b f0		 cmp	 esi, eax
  00145	73 33		 jae	 SHORT $LN4@petMovePro

; 2954 : 	{
; 2955 : 		pe->ptAct = createCommmonEffectNoLoop( SPR_difence, ptAct->gx, ptAct->gy,

  00147	8b 45 08	 mov	 eax, DWORD PTR _ptAct$[ebp]
  0014a	0f b6 48 15	 movzx	 ecx, BYTE PTR [eax+21]
  0014e	51		 push	 ecx
  0014f	6a 00		 push	 0
  00151	6a 00		 push	 0
  00153	8b 55 08	 mov	 edx, DWORD PTR _ptAct$[ebp]
  00156	8b 82 b8 00 00
	00		 mov	 eax, DWORD PTR [edx+184]
  0015c	50		 push	 eax
  0015d	8b 4d 08	 mov	 ecx, DWORD PTR _ptAct$[ebp]
  00160	8b 91 b4 00 00
	00		 mov	 edx, DWORD PTR [ecx+180]
  00166	52		 push	 edx
  00167	68 02 89 01 00	 push	 100610			; 00018902H
  0016c	e8 00 00 00 00	 call	 ?createCommmonEffectNoLoop@@YAPAUaction@@HHHHHH@Z ; createCommmonEffectNoLoop
  00171	83 c4 18	 add	 esp, 24			; 00000018H
  00174	8b 4d f8	 mov	 ecx, DWORD PTR _pe$[ebp]
  00177	89 41 18	 mov	 DWORD PTR [ecx+24], eax
$LN4@petMovePro:

; 2956 : 			0, 0, ptAct->dispPrio );
; 2957 : 	}
; 2958 : 	if( pe->ptAct2 == NULL && pe->createTime+7500 < TimeGetTime() )

  0017a	8b 45 f8	 mov	 eax, DWORD PTR _pe$[ebp]
  0017d	83 78 1c 00	 cmp	 DWORD PTR [eax+28], 0
  00181	75 48		 jne	 SHORT $LN5@petMovePro
  00183	8b 45 f8	 mov	 eax, DWORD PTR _pe$[ebp]
  00186	8b 70 14	 mov	 esi, DWORD PTR [eax+20]
  00189	81 c6 4c 1d 00
	00		 add	 esi, 7500		; 00001d4cH
  0018f	e8 00 00 00 00	 call	 ?TimeGetTime@@YAIXZ	; TimeGetTime
  00194	3b f0		 cmp	 esi, eax
  00196	73 33		 jae	 SHORT $LN5@petMovePro

; 2959 : 	{
; 2960 : 		pe->ptAct2 = createCommmonEffectNoLoop( SPR_difence, ptAct->gx, ptAct->gy,

  00198	8b 45 08	 mov	 eax, DWORD PTR _ptAct$[ebp]
  0019b	0f b6 48 15	 movzx	 ecx, BYTE PTR [eax+21]
  0019f	51		 push	 ecx
  001a0	6a 00		 push	 0
  001a2	6a 00		 push	 0
  001a4	8b 55 08	 mov	 edx, DWORD PTR _ptAct$[ebp]
  001a7	8b 82 b8 00 00
	00		 mov	 eax, DWORD PTR [edx+184]
  001ad	50		 push	 eax
  001ae	8b 4d 08	 mov	 ecx, DWORD PTR _ptAct$[ebp]
  001b1	8b 91 b4 00 00
	00		 mov	 edx, DWORD PTR [ecx+180]
  001b7	52		 push	 edx
  001b8	68 02 89 01 00	 push	 100610			; 00018902H
  001bd	e8 00 00 00 00	 call	 ?createCommmonEffectNoLoop@@YAPAUaction@@HHHHHH@Z ; createCommmonEffectNoLoop
  001c2	83 c4 18	 add	 esp, 24			; 00000018H
  001c5	8b 4d f8	 mov	 ecx, DWORD PTR _pe$[ebp]
  001c8	89 41 1c	 mov	 DWORD PTR [ecx+28], eax
$LN5@petMovePro:

; 2961 : 			0, 0, ptAct->dispPrio );
; 2962 : 	}
; 2963 : 
; 2964 : 
; 2965 : 	if( ptAct->vx == 0 && ptAct->vy == 0 )

  001cb	8b 45 08	 mov	 eax, DWORD PTR _ptAct$[ebp]
  001ce	f3 0f 10 80 20
	01 00 00	 movss	 xmm0, DWORD PTR [eax+288]
  001d6	0f 2e 05 00 00
	00 00		 ucomiss xmm0, DWORD PTR __real@00000000
  001dd	9f		 lahf
  001de	f6 c4 44	 test	 ah, 68			; 00000044H
  001e1	7a 24		 jp	 SHORT $LN6@petMovePro
  001e3	8b 45 08	 mov	 eax, DWORD PTR _ptAct$[ebp]
  001e6	f3 0f 10 80 24
	01 00 00	 movss	 xmm0, DWORD PTR [eax+292]
  001ee	0f 2e 05 00 00
	00 00		 ucomiss xmm0, DWORD PTR __real@00000000
  001f5	9f		 lahf
  001f6	f6 c4 44	 test	 ah, 68			; 00000044H
  001f9	7a 0c		 jp	 SHORT $LN6@petMovePro

; 2966 : 	{
; 2967 : 		// ?h????????t???
; 2968 : 		getPetRoute( ptAct );

  001fb	8b 45 08	 mov	 eax, DWORD PTR _ptAct$[ebp]
  001fe	50		 push	 eax
  001ff	e8 00 00 00 00	 call	 ?getPetRoute@@YAXPAUaction@@@Z ; getPetRoute
  00204	83 c4 04	 add	 esp, 4
$LN6@petMovePro:

; 2969 : 	}
; 2970 : 	charMove( ptAct );

  00207	8b 45 08	 mov	 eax, DWORD PTR _ptAct$[ebp]
  0020a	50		 push	 eax
  0020b	e8 00 00 00 00	 call	 ?charMove@@YAXPAUaction@@@Z ; charMove
  00210	83 c4 04	 add	 esp, 4

; 2971 : 
; 2972 : 	if( pe->ptAct != NULL )

  00213	8b 45 f8	 mov	 eax, DWORD PTR _pe$[ebp]
  00216	83 78 18 00	 cmp	 DWORD PTR [eax+24], 0
  0021a	74 2a		 je	 SHORT $LN7@petMovePro

; 2973 : 	{
; 2974 : 		pe->ptAct->mx = ptAct->mx;

  0021c	8b 45 f8	 mov	 eax, DWORD PTR _pe$[ebp]
  0021f	8b 48 18	 mov	 ecx, DWORD PTR [eax+24]
  00222	8b 55 08	 mov	 edx, DWORD PTR _ptAct$[ebp]
  00225	8b 82 18 01 00
	00		 mov	 eax, DWORD PTR [edx+280]
  0022b	89 81 18 01 00
	00		 mov	 DWORD PTR [ecx+280], eax

; 2975 : 		pe->ptAct->my = ptAct->my;

  00231	8b 45 f8	 mov	 eax, DWORD PTR _pe$[ebp]
  00234	8b 48 18	 mov	 ecx, DWORD PTR [eax+24]
  00237	8b 55 08	 mov	 edx, DWORD PTR _ptAct$[ebp]
  0023a	8b 82 1c 01 00
	00		 mov	 eax, DWORD PTR [edx+284]
  00240	89 81 1c 01 00
	00		 mov	 DWORD PTR [ecx+284], eax
$LN7@petMovePro:

; 2976 : 	}
; 2977 : 	if( pe->ptAct2 != NULL )

  00246	8b 45 f8	 mov	 eax, DWORD PTR _pe$[ebp]
  00249	83 78 1c 00	 cmp	 DWORD PTR [eax+28], 0
  0024d	74 2a		 je	 SHORT $LN8@petMovePro

; 2978 : 	{
; 2979 : 		pe->ptAct2->mx = ptAct->mx;

  0024f	8b 45 f8	 mov	 eax, DWORD PTR _pe$[ebp]
  00252	8b 48 1c	 mov	 ecx, DWORD PTR [eax+28]
  00255	8b 55 08	 mov	 edx, DWORD PTR _ptAct$[ebp]
  00258	8b 82 18 01 00
	00		 mov	 eax, DWORD PTR [edx+280]
  0025e	89 81 18 01 00
	00		 mov	 DWORD PTR [ecx+280], eax

; 2980 : 		pe->ptAct2->my = ptAct->my;

  00264	8b 45 f8	 mov	 eax, DWORD PTR _pe$[ebp]
  00267	8b 48 1c	 mov	 ecx, DWORD PTR [eax+28]
  0026a	8b 55 08	 mov	 edx, DWORD PTR _ptAct$[ebp]
  0026d	8b 82 1c 01 00
	00		 mov	 eax, DWORD PTR [edx+284]
  00273	89 81 1c 01 00
	00		 mov	 DWORD PTR [ecx+284], eax
$LN8@petMovePro:

; 2981 : 	}
; 2982 : 
; 2983 : 	return TRUE;

  00279	b8 01 00 00 00	 mov	 eax, 1
$LN1@petMovePro:

; 2984 : }

  0027e	5f		 pop	 edi
  0027f	5e		 pop	 esi
  00280	5b		 pop	 ebx
  00281	81 c4 d0 00 00
	00		 add	 esp, 208		; 000000d0H
  00287	3b ec		 cmp	 ebp, esp
  00289	e8 00 00 00 00	 call	 __RTC_CheckEsp
  0028e	8b e5		 mov	 esp, ebp
  00290	5d		 pop	 ebp
  00291	c3		 ret	 0
?petMoveProc@@YAHPAUaction@@@Z ENDP			; petMoveProc
_TEXT	ENDS
; Function compile flags: /Odtp /RTCsu /ZI
; File c:\users\administrator\desktop\????? ??\????? ??\client source code\system\character.cpp
;	COMDAT ?getPetRoute@@YAXPAUaction@@@Z
_TEXT	SEGMENT
_pe$ = -80						; size = 4
_gy$ = -68						; size = 4
_gx$ = -56						; size = 4
_dy$ = -44						; size = 4
_dx$ = -32						; size = 4
_i$ = -20						; size = 4
_dir$ = -8						; size = 2
_ptAct$ = 8						; size = 4
?getPetRoute@@YAXPAUaction@@@Z PROC			; getPetRoute, COMDAT

; 2866 : {

  00000	55		 push	 ebp
  00001	8b ec		 mov	 ebp, esp
  00003	81 ec 14 01 00
	00		 sub	 esp, 276		; 00000114H
  00009	53		 push	 ebx
  0000a	56		 push	 esi
  0000b	57		 push	 edi
  0000c	8d bd ec fe ff
	ff		 lea	 edi, DWORD PTR [ebp-276]
  00012	b9 45 00 00 00	 mov	 ecx, 69			; 00000045H
  00017	b8 cc cc cc cc	 mov	 eax, -858993460		; ccccccccH
  0001c	f3 ab		 rep stosd

; 2867 : 	short dir;
; 2868 : 	int i;
; 2869 : 	int dx, dy;
; 2870 : 	int gx, gy;
; 2871 : 	PETEXTRA *pe;
; 2872 : 
; 2873 : 	if( ptAct->bufCount > 0 )

  0001e	8b 45 08	 mov	 eax, DWORD PTR _ptAct$[ebp]
  00021	0f bf 88 14 01
	00 00		 movsx	 ecx, WORD PTR [eax+276]
  00028	85 c9		 test	 ecx, ecx
  0002a	7e 05		 jle	 SHORT $LN5@getPetRout

; 2874 : 		return;

  0002c	e9 d9 01 00 00	 jmp	 $LN1@getPetRout
$LN5@getPetRout:

; 2875 : 
; 2876 : 	// ???Re?????????
; 2877 : 	if( nowGx != oldGx || nowGy != oldGy )

  00031	a1 00 00 00 00	 mov	 eax, DWORD PTR ?nowGx@@3HA ; nowGx
  00036	3b 05 00 00 00
	00		 cmp	 eax, DWORD PTR ?oldGx@@3HA ; oldGx
  0003c	75 0d		 jne	 SHORT $LN7@getPetRout
  0003e	a1 00 00 00 00	 mov	 eax, DWORD PTR ?nowGy@@3HA ; nowGy
  00043	3b 05 00 00 00
	00		 cmp	 eax, DWORD PTR ?oldGy@@3HA ; oldGy
  00049	74 05		 je	 SHORT $LN6@getPetRout
$LN7@getPetRout:

; 2878 : 		return;

  0004b	e9 ba 01 00 00	 jmp	 $LN1@getPetRout
$LN6@getPetRout:

; 2879 : 
; 2880 : 	pe = (PETEXTRA *)ptAct->pYobi;

  00050	8b 45 08	 mov	 eax, DWORD PTR _ptAct$[ebp]
  00053	8b 48 0c	 mov	 ecx, DWORD PTR [eax+12]
  00056	89 4d b0	 mov	 DWORD PTR _pe$[ebp], ecx

; 2881 : 
; 2882 : 	dir = pe->moveDir;

  00059	8b 45 b0	 mov	 eax, DWORD PTR _pe$[ebp]
  0005c	66 8b 48 02	 mov	 cx, WORD PTR [eax+2]
  00060	66 89 4d f8	 mov	 WORD PTR _dir$[ebp], cx

; 2883 : 
; 2884 : 	for( i = 0; i < 4; i++ )

  00064	c7 45 ec 00 00
	00 00		 mov	 DWORD PTR _i$[ebp], 0
  0006b	eb 09		 jmp	 SHORT $LN4@getPetRout
$LN2@getPetRout:
  0006d	8b 45 ec	 mov	 eax, DWORD PTR _i$[ebp]
  00070	83 c0 01	 add	 eax, 1
  00073	89 45 ec	 mov	 DWORD PTR _i$[ebp], eax
$LN4@getPetRout:
  00076	83 7d ec 04	 cmp	 DWORD PTR _i$[ebp], 4
  0007a	7d 7f		 jge	 SHORT $LN3@getPetRout

; 2885 : 	{
; 2886 : 		getRouteData( dir, &dx, &dy );

  0007c	8d 45 d4	 lea	 eax, DWORD PTR _dy$[ebp]
  0007f	50		 push	 eax
  00080	8d 4d e0	 lea	 ecx, DWORD PTR _dx$[ebp]
  00083	51		 push	 ecx
  00084	0f bf 55 f8	 movsx	 edx, WORD PTR _dir$[ebp]
  00088	52		 push	 edx
  00089	e8 00 00 00 00	 call	 ?getRouteData@@YAXHPAH0@Z ; getRouteData
  0008e	83 c4 0c	 add	 esp, 12			; 0000000cH

; 2887 : 		gx = ptAct->gx+dx;

  00091	8b 45 08	 mov	 eax, DWORD PTR _ptAct$[ebp]
  00094	8b 88 b4 00 00
	00		 mov	 ecx, DWORD PTR [eax+180]
  0009a	03 4d e0	 add	 ecx, DWORD PTR _dx$[ebp]
  0009d	89 4d c8	 mov	 DWORD PTR _gx$[ebp], ecx

; 2888 : 		gy = ptAct->gy+dy;

  000a0	8b 45 08	 mov	 eax, DWORD PTR _ptAct$[ebp]
  000a3	8b 88 b8 00 00
	00		 mov	 ecx, DWORD PTR [eax+184]
  000a9	03 4d d4	 add	 ecx, DWORD PTR _dy$[ebp]
  000ac	89 4d bc	 mov	 DWORD PTR _gy$[ebp], ecx

; 2889 : 		if( (gx != pe->preGx || gy != pe->preGy)
; 2890 : 		 && checkHitMap( gx, gy ) == FALSE )

  000af	8b 45 b0	 mov	 eax, DWORD PTR _pe$[ebp]
  000b2	8b 4d c8	 mov	 ecx, DWORD PTR _gx$[ebp]
  000b5	3b 48 08	 cmp	 ecx, DWORD PTR [eax+8]
  000b8	75 0b		 jne	 SHORT $LN9@getPetRout
  000ba	8b 45 b0	 mov	 eax, DWORD PTR _pe$[ebp]
  000bd	8b 4d bc	 mov	 ecx, DWORD PTR _gy$[ebp]
  000c0	3b 48 0c	 cmp	 ecx, DWORD PTR [eax+12]
  000c3	74 16		 je	 SHORT $LN8@getPetRout
$LN9@getPetRout:
  000c5	8b 45 bc	 mov	 eax, DWORD PTR _gy$[ebp]
  000c8	50		 push	 eax
  000c9	8b 4d c8	 mov	 ecx, DWORD PTR _gx$[ebp]
  000cc	51		 push	 ecx
  000cd	e8 00 00 00 00	 call	 ?checkHitMap@@YAHHH@Z	; checkHitMap
  000d2	83 c4 08	 add	 esp, 8
  000d5	85 c0		 test	 eax, eax
  000d7	75 02		 jne	 SHORT $LN8@getPetRout

; 2891 : 		{
; 2892 : 			break;

  000d9	eb 20		 jmp	 SHORT $LN3@getPetRout
$LN8@getPetRout:

; 2893 : 		}
; 2894 : 		dir += (2*(i+1));

  000db	0f bf 45 f8	 movsx	 eax, WORD PTR _dir$[ebp]
  000df	8b 4d ec	 mov	 ecx, DWORD PTR _i$[ebp]
  000e2	8d 54 48 02	 lea	 edx, DWORD PTR [eax+ecx*2+2]
  000e6	66 89 55 f8	 mov	 WORD PTR _dir$[ebp], dx

; 2895 : 		ajustClientDir( &dir );

  000ea	8d 45 f8	 lea	 eax, DWORD PTR _dir$[ebp]
  000ed	50		 push	 eax
  000ee	e8 00 00 00 00	 call	 ?ajustClientDir@@YAXPAF@Z ; ajustClientDir
  000f3	83 c4 04	 add	 esp, 4

; 2896 : 	}

  000f6	e9 72 ff ff ff	 jmp	 $LN2@getPetRout
$LN3@getPetRout:

; 2897 : 
; 2898 : 	if( i >= 4 )

  000fb	83 7d ec 04	 cmp	 DWORD PTR _i$[ebp], 4
  000ff	7c 39		 jl	 SHORT $LN10@getPetRout

; 2899 : 	{
; 2900 : 		pe->preGx = -1;

  00101	8b 45 b0	 mov	 eax, DWORD PTR _pe$[ebp]
  00104	c7 40 08 ff ff
	ff ff		 mov	 DWORD PTR [eax+8], -1

; 2901 : 		pe->preGy = -1;

  0010b	8b 45 b0	 mov	 eax, DWORD PTR _pe$[ebp]
  0010e	c7 40 0c ff ff
	ff ff		 mov	 DWORD PTR [eax+12], -1

; 2902 : 		pe->moveDir -= 2;

  00115	8b 45 b0	 mov	 eax, DWORD PTR _pe$[ebp]
  00118	0f bf 48 02	 movsx	 ecx, WORD PTR [eax+2]
  0011c	83 e9 02	 sub	 ecx, 2
  0011f	8b 55 b0	 mov	 edx, DWORD PTR _pe$[ebp]
  00122	66 89 4a 02	 mov	 WORD PTR [edx+2], cx

; 2903 : 		ajustClientDir( &pe->moveDir );

  00126	8b 45 b0	 mov	 eax, DWORD PTR _pe$[ebp]
  00129	83 c0 02	 add	 eax, 2
  0012c	50		 push	 eax
  0012d	e8 00 00 00 00	 call	 ?ajustClientDir@@YAXPAF@Z ; ajustClientDir
  00132	83 c4 04	 add	 esp, 4

; 2904 : 		return;

  00135	e9 d0 00 00 00	 jmp	 $LN1@getPetRout
$LN10@getPetRout:

; 2905 : 	}
; 2906 : 
; 2907 : 	if( pe->dirCnt >= 2 )

  0013a	8b 45 b0	 mov	 eax, DWORD PTR _pe$[ebp]
  0013d	0f bf 48 06	 movsx	 ecx, WORD PTR [eax+6]
  00141	83 f9 02	 cmp	 ecx, 2
  00144	7c 29		 jl	 SHORT $LN11@getPetRout

; 2908 : 	{
; 2909 : 		pe->dirCnt = 0;

  00146	33 c0		 xor	 eax, eax
  00148	8b 4d b0	 mov	 ecx, DWORD PTR _pe$[ebp]
  0014b	66 89 41 06	 mov	 WORD PTR [ecx+6], ax

; 2910 : 		pe->moveDir -= 6;

  0014f	8b 45 b0	 mov	 eax, DWORD PTR _pe$[ebp]
  00152	0f bf 48 02	 movsx	 ecx, WORD PTR [eax+2]
  00156	83 e9 06	 sub	 ecx, 6
  00159	8b 55 b0	 mov	 edx, DWORD PTR _pe$[ebp]
  0015c	66 89 4a 02	 mov	 WORD PTR [edx+2], cx

; 2911 : 		ajustClientDir( &pe->moveDir );

  00160	8b 45 b0	 mov	 eax, DWORD PTR _pe$[ebp]
  00163	83 c0 02	 add	 eax, 2
  00166	50		 push	 eax
  00167	e8 00 00 00 00	 call	 ?ajustClientDir@@YAXPAF@Z ; ajustClientDir
  0016c	83 c4 04	 add	 esp, 4
$LN11@getPetRout:

; 2912 : 	}
; 2913 : 
; 2914 : 	if( dir != pe->preDir )

  0016f	0f bf 45 f8	 movsx	 eax, WORD PTR _dir$[ebp]
  00173	8b 4d b0	 mov	 ecx, DWORD PTR _pe$[ebp]
  00176	0f bf 51 04	 movsx	 edx, WORD PTR [ecx+4]
  0017a	3b c2		 cmp	 eax, edx
  0017c	74 14		 je	 SHORT $LN12@getPetRout

; 2915 : 	{
; 2916 : 		pe->dirCnt++;

  0017e	8b 45 b0	 mov	 eax, DWORD PTR _pe$[ebp]
  00181	66 8b 48 06	 mov	 cx, WORD PTR [eax+6]
  00185	66 83 c1 01	 add	 cx, 1
  00189	8b 55 b0	 mov	 edx, DWORD PTR _pe$[ebp]
  0018c	66 89 4a 06	 mov	 WORD PTR [edx+6], cx

; 2917 : 	}
; 2918 : 	else

  00190	eb 09		 jmp	 SHORT $LN13@getPetRout
$LN12@getPetRout:

; 2919 : 	{
; 2920 : 		pe->dirCnt = 0;

  00192	33 c0		 xor	 eax, eax
  00194	8b 4d b0	 mov	 ecx, DWORD PTR _pe$[ebp]
  00197	66 89 41 06	 mov	 WORD PTR [ecx+6], ax
$LN13@getPetRout:

; 2921 : 	}
; 2922 : 
; 2923 : 	pe->preDir = dir;

  0019b	8b 45 b0	 mov	 eax, DWORD PTR _pe$[ebp]
  0019e	66 8b 4d f8	 mov	 cx, WORD PTR _dir$[ebp]
  001a2	66 89 48 04	 mov	 WORD PTR [eax+4], cx

; 2924 : 
; 2925 : 	ptAct->bufGx[ptAct->bufCount] = gx;

  001a6	8b 45 08	 mov	 eax, DWORD PTR _ptAct$[ebp]
  001a9	0f bf 88 14 01
	00 00		 movsx	 ecx, WORD PTR [eax+276]
  001b0	8b 55 08	 mov	 edx, DWORD PTR _ptAct$[ebp]
  001b3	8b 45 c8	 mov	 eax, DWORD PTR _gx$[ebp]
  001b6	89 84 8a c4 00
	00 00		 mov	 DWORD PTR [edx+ecx*4+196], eax

; 2926 : 	ptAct->bufGy[ptAct->bufCount] = gy;

  001bd	8b 45 08	 mov	 eax, DWORD PTR _ptAct$[ebp]
  001c0	0f bf 88 14 01
	00 00		 movsx	 ecx, WORD PTR [eax+276]
  001c7	8b 55 08	 mov	 edx, DWORD PTR _ptAct$[ebp]
  001ca	8b 45 bc	 mov	 eax, DWORD PTR _gy$[ebp]
  001cd	89 84 8a ec 00
	00 00		 mov	 DWORD PTR [edx+ecx*4+236], eax

; 2927 : 	ptAct->bufCount++;

  001d4	8b 45 08	 mov	 eax, DWORD PTR _ptAct$[ebp]
  001d7	66 8b 88 14 01
	00 00		 mov	 cx, WORD PTR [eax+276]
  001de	66 83 c1 01	 add	 cx, 1
  001e2	8b 55 08	 mov	 edx, DWORD PTR _ptAct$[ebp]
  001e5	66 89 8a 14 01
	00 00		 mov	 WORD PTR [edx+276], cx

; 2928 : 
; 2929 : 	pe->preGx = ptAct->gx;

  001ec	8b 45 b0	 mov	 eax, DWORD PTR _pe$[ebp]
  001ef	8b 4d 08	 mov	 ecx, DWORD PTR _ptAct$[ebp]
  001f2	8b 91 b4 00 00
	00		 mov	 edx, DWORD PTR [ecx+180]
  001f8	89 50 08	 mov	 DWORD PTR [eax+8], edx

; 2930 : 	pe->preGy = ptAct->gy;

  001fb	8b 45 b0	 mov	 eax, DWORD PTR _pe$[ebp]
  001fe	8b 4d 08	 mov	 ecx, DWORD PTR _ptAct$[ebp]
  00201	8b 91 b8 00 00
	00		 mov	 edx, DWORD PTR [ecx+184]
  00207	89 50 0c	 mov	 DWORD PTR [eax+12], edx
$LN1@getPetRout:

; 2931 : 
; 2932 : 	return;
; 2933 : }

  0020a	52		 push	 edx
  0020b	8b cd		 mov	 ecx, ebp
  0020d	50		 push	 eax
  0020e	8d 15 00 00 00
	00		 lea	 edx, DWORD PTR $LN19@getPetRout
  00214	e8 00 00 00 00	 call	 @_RTC_CheckStackVars@8
  00219	58		 pop	 eax
  0021a	5a		 pop	 edx
  0021b	5f		 pop	 edi
  0021c	5e		 pop	 esi
  0021d	5b		 pop	 ebx
  0021e	81 c4 14 01 00
	00		 add	 esp, 276		; 00000114H
  00224	3b ec		 cmp	 ebp, esp
  00226	e8 00 00 00 00	 call	 __RTC_CheckEsp
  0022b	8b e5		 mov	 esp, ebp
  0022d	5d		 pop	 ebp
  0022e	c3		 ret	 0
  0022f	90		 npad	 1
$LN19@getPetRout:
  00230	03 00 00 00	 DD	 3
  00234	00 00 00 00	 DD	 $LN18@getPetRout
$LN18@getPetRout:
  00238	f8 ff ff ff	 DD	 -8			; fffffff8H
  0023c	02 00 00 00	 DD	 2
  00240	00 00 00 00	 DD	 $LN15@getPetRout
  00244	e0 ff ff ff	 DD	 -32			; ffffffe0H
  00248	04 00 00 00	 DD	 4
  0024c	00 00 00 00	 DD	 $LN16@getPetRout
  00250	d4 ff ff ff	 DD	 -44			; ffffffd4H
  00254	04 00 00 00	 DD	 4
  00258	00 00 00 00	 DD	 $LN17@getPetRout
$LN17@getPetRout:
  0025c	64		 DB	 100			; 00000064H
  0025d	79		 DB	 121			; 00000079H
  0025e	00		 DB	 0
$LN16@getPetRout:
  0025f	64		 DB	 100			; 00000064H
  00260	78		 DB	 120			; 00000078H
  00261	00		 DB	 0
$LN15@getPetRout:
  00262	64		 DB	 100			; 00000064H
  00263	69		 DB	 105			; 00000069H
  00264	72		 DB	 114			; 00000072H
  00265	00		 DB	 0
?getPetRoute@@YAXPAUaction@@@Z ENDP			; getPetRoute
_TEXT	ENDS
; Function compile flags: /Odtp /RTCsu /ZI
; File c:\users\administrator\desktop\????? ??\????? ??\client source code\system\character.cpp
;	COMDAT ?limitCantClientDir@@YAXPAF@Z
_TEXT	SEGMENT
_dir$ = 8						; size = 4
?limitCantClientDir@@YAXPAF@Z PROC			; limitCantClientDir, COMDAT

; 2836 : {

  00000	55		 push	 ebp
  00001	8b ec		 mov	 ebp, esp
  00003	81 ec c0 00 00
	00		 sub	 esp, 192		; 000000c0H
  00009	53		 push	 ebx
  0000a	56		 push	 esi
  0000b	57		 push	 edi
  0000c	8d bd 40 ff ff
	ff		 lea	 edi, DWORD PTR [ebp-192]
  00012	b9 30 00 00 00	 mov	 ecx, 48			; 00000030H
  00017	b8 cc cc cc cc	 mov	 eax, -858993460		; ccccccccH
  0001c	f3 ab		 rep stosd

; 2837 : 	// dir??????????????
; 2838 : 	if( ((*dir) % 2) == 0 )

  0001e	8b 45 08	 mov	 eax, DWORD PTR _dir$[ebp]
  00021	0f bf 08	 movsx	 ecx, WORD PTR [eax]
  00024	81 e1 01 00 00
	80		 and	 ecx, -2147483647	; 80000001H
  0002a	79 05		 jns	 SHORT $LN4@limitCantC
  0002c	49		 dec	 ecx
  0002d	83 c9 fe	 or	 ecx, -2			; fffffffeH
  00030	41		 inc	 ecx
$LN4@limitCantC:
  00031	85 c9		 test	 ecx, ecx
  00033	75 10		 jne	 SHORT $LN1@limitCantC

; 2839 : 	{
; 2840 : 		(*dir)++;

  00035	8b 45 08	 mov	 eax, DWORD PTR _dir$[ebp]
  00038	66 8b 08	 mov	 cx, WORD PTR [eax]
  0003b	66 83 c1 01	 add	 cx, 1
  0003f	8b 55 08	 mov	 edx, DWORD PTR _dir$[ebp]
  00042	66 89 0a	 mov	 WORD PTR [edx], cx
$LN1@limitCantC:

; 2841 : 	}
; 2842 : }

  00045	5f		 pop	 edi
  00046	5e		 pop	 esi
  00047	5b		 pop	 ebx
  00048	8b e5		 mov	 esp, ebp
  0004a	5d		 pop	 ebp
  0004b	c3		 ret	 0
?limitCantClientDir@@YAXPAF@Z ENDP			; limitCantClientDir
_TEXT	ENDS
; Function compile flags: /Odtp /RTCsu /ZI
; File c:\users\administrator\desktop\????? ??\????? ??\client source code\system\character.cpp
;	COMDAT ?searchCharObjId@@YAHH@Z
_TEXT	SEGMENT
_no$ = -20						; size = 4
_i$ = -8						; size = 4
_id$ = 8						; size = 4
?searchCharObjId@@YAHH@Z PROC				; searchCharObjId, COMDAT

; 1972 : {

  00000	55		 push	 ebp
  00001	8b ec		 mov	 ebp, esp
  00003	81 ec d8 00 00
	00		 sub	 esp, 216		; 000000d8H
  00009	53		 push	 ebx
  0000a	56		 push	 esi
  0000b	57		 push	 edi
  0000c	8d bd 28 ff ff
	ff		 lea	 edi, DWORD PTR [ebp-216]
  00012	b9 36 00 00 00	 mov	 ecx, 54			; 00000036H
  00017	b8 cc cc cc cc	 mov	 eax, -858993460		; ccccccccH
  0001c	f3 ab		 rep stosd

; 1973 : 	int i;
; 1974 : 	int no = -1;

  0001e	c7 45 ec ff ff
	ff ff		 mov	 DWORD PTR _no$[ebp], -1

; 1975 : 	for( i = searchCharObj; i < tailCharObj; i++ ){

  00025	a1 00 00 00 00	 mov	 eax, DWORD PTR ?searchCharObj@@3HA ; searchCharObj
  0002a	89 45 f8	 mov	 DWORD PTR _i$[ebp], eax
  0002d	eb 09		 jmp	 SHORT $LN4@searchChar
$LN2@searchChar:
  0002f	8b 45 f8	 mov	 eax, DWORD PTR _i$[ebp]
  00032	83 c0 01	 add	 eax, 1
  00035	89 45 f8	 mov	 DWORD PTR _i$[ebp], eax
$LN4@searchChar:
  00038	8b 45 f8	 mov	 eax, DWORD PTR _i$[ebp]
  0003b	3b 05 00 00 00
	00		 cmp	 eax, DWORD PTR ?tailCharObj@@3HA ; tailCharObj
  00041	7d 36		 jge	 SHORT $LN3@searchChar

; 1976 : 		if( charObj[i].use != CHAROBJ_USE_FREE && charObj[i].id == id ){

  00043	69 45 f8 0c 01
	00 00		 imul	 eax, DWORD PTR _i$[ebp], 268
  0004a	0f bf 88 00 00
	00 00		 movsx	 ecx, WORD PTR ?charObj@@3PAUCHAROBJ@@A[eax]
  00051	85 c9		 test	 ecx, ecx
  00053	74 22		 je	 SHORT $LN8@searchChar
  00055	69 45 f8 0c 01
	00 00		 imul	 eax, DWORD PTR _i$[ebp], 268
  0005c	8b 88 04 00 00
	00		 mov	 ecx, DWORD PTR ?charObj@@3PAUCHAROBJ@@A[eax+4]
  00062	3b 4d 08	 cmp	 ecx, DWORD PTR _id$[ebp]
  00065	75 10		 jne	 SHORT $LN8@searchChar

; 1977 : 			no = i;

  00067	8b 45 f8	 mov	 eax, DWORD PTR _i$[ebp]
  0006a	89 45 ec	 mov	 DWORD PTR _no$[ebp], eax

; 1978 : 			searchCharObj = i;

  0006d	8b 45 f8	 mov	 eax, DWORD PTR _i$[ebp]
  00070	a3 00 00 00 00	 mov	 DWORD PTR ?searchCharObj@@3HA, eax ; searchCharObj

; 1979 : 			break;

  00075	eb 02		 jmp	 SHORT $LN3@searchChar
$LN8@searchChar:

; 1980 : 		}
; 1981 : 	}

  00077	eb b6		 jmp	 SHORT $LN2@searchChar
$LN3@searchChar:

; 1982 : 	if( no < 0 && searchCharObj > 0 ){

  00079	83 7d ec 00	 cmp	 DWORD PTR _no$[ebp], 0
  0007d	7d 5c		 jge	 SHORT $LN9@searchChar
  0007f	83 3d 00 00 00
	00 00		 cmp	 DWORD PTR ?searchCharObj@@3HA, 0 ; searchCharObj
  00086	7e 53		 jle	 SHORT $LN9@searchChar

; 1983 : 		for( i = 0; i < searchCharObj; i++ ){

  00088	c7 45 f8 00 00
	00 00		 mov	 DWORD PTR _i$[ebp], 0
  0008f	eb 09		 jmp	 SHORT $LN7@searchChar
$LN5@searchChar:
  00091	8b 45 f8	 mov	 eax, DWORD PTR _i$[ebp]
  00094	83 c0 01	 add	 eax, 1
  00097	89 45 f8	 mov	 DWORD PTR _i$[ebp], eax
$LN7@searchChar:
  0009a	8b 45 f8	 mov	 eax, DWORD PTR _i$[ebp]
  0009d	3b 05 00 00 00
	00		 cmp	 eax, DWORD PTR ?searchCharObj@@3HA ; searchCharObj
  000a3	7d 36		 jge	 SHORT $LN9@searchChar

; 1984 : 			if( charObj[i].use != CHAROBJ_USE_FREE && charObj[i].id == id ){

  000a5	69 45 f8 0c 01
	00 00		 imul	 eax, DWORD PTR _i$[ebp], 268
  000ac	0f bf 88 00 00
	00 00		 movsx	 ecx, WORD PTR ?charObj@@3PAUCHAROBJ@@A[eax]
  000b3	85 c9		 test	 ecx, ecx
  000b5	74 22		 je	 SHORT $LN10@searchChar
  000b7	69 45 f8 0c 01
	00 00		 imul	 eax, DWORD PTR _i$[ebp], 268
  000be	8b 88 04 00 00
	00		 mov	 ecx, DWORD PTR ?charObj@@3PAUCHAROBJ@@A[eax+4]
  000c4	3b 4d 08	 cmp	 ecx, DWORD PTR _id$[ebp]
  000c7	75 10		 jne	 SHORT $LN10@searchChar

; 1985 : 				no = i;

  000c9	8b 45 f8	 mov	 eax, DWORD PTR _i$[ebp]
  000cc	89 45 ec	 mov	 DWORD PTR _no$[ebp], eax

; 1986 : 				searchCharObj = i;

  000cf	8b 45 f8	 mov	 eax, DWORD PTR _i$[ebp]
  000d2	a3 00 00 00 00	 mov	 DWORD PTR ?searchCharObj@@3HA, eax ; searchCharObj

; 1987 : 				break;

  000d7	eb 02		 jmp	 SHORT $LN9@searchChar
$LN10@searchChar:

; 1988 : 			}
; 1989 : 		}

  000d9	eb b6		 jmp	 SHORT $LN5@searchChar
$LN9@searchChar:

; 1990 : 	}
; 1991 : 	return no;

  000db	8b 45 ec	 mov	 eax, DWORD PTR _no$[ebp]

; 1992 : }

  000de	5f		 pop	 edi
  000df	5e		 pop	 esi
  000e0	5b		 pop	 ebx
  000e1	8b e5		 mov	 esp, ebp
  000e3	5d		 pop	 ebp
  000e4	c3		 ret	 0
?searchCharObjId@@YAHH@Z ENDP				; searchCharObjId
_TEXT	ENDS
; Function compile flags: /Odtp /RTCsu /ZI
; File c:\users\administrator\desktop\????? ??\????? ??\client source code\system\character.cpp
;	COMDAT ?commmonEffectNoLoop@@YAXPAUaction@@@Z
_TEXT	SEGMENT
_my$ = -20						; size = 4
_mx$ = -8						; size = 4
_ptAct$ = 8						; size = 4
?commmonEffectNoLoop@@YAXPAUaction@@@Z PROC		; commmonEffectNoLoop, COMDAT

; 1616 : {

  00000	55		 push	 ebp
  00001	8b ec		 mov	 ebp, esp
  00003	81 ec d8 00 00
	00		 sub	 esp, 216		; 000000d8H
  00009	53		 push	 ebx
  0000a	56		 push	 esi
  0000b	57		 push	 edi
  0000c	8d bd 28 ff ff
	ff		 lea	 edi, DWORD PTR [ebp-216]
  00012	b9 36 00 00 00	 mov	 ecx, 54			; 00000036H
  00017	b8 cc cc cc cc	 mov	 eax, -858993460		; ccccccccH
  0001c	f3 ab		 rep stosd

; 1617 : 	float mx, my;
; 1618 : 	// ??t
; 1619 : 	camMapToGamen( ptAct->mx, ptAct->my, &mx, &my );

  0001e	8d 45 ec	 lea	 eax, DWORD PTR _my$[ebp]
  00021	50		 push	 eax
  00022	8d 4d f8	 lea	 ecx, DWORD PTR _mx$[ebp]
  00025	51		 push	 ecx
  00026	8b 55 08	 mov	 edx, DWORD PTR _ptAct$[ebp]
  00029	51		 push	 ecx
  0002a	f3 0f 10 82 1c
	01 00 00	 movss	 xmm0, DWORD PTR [edx+284]
  00032	f3 0f 11 04 24	 movss	 DWORD PTR [esp], xmm0
  00037	8b 45 08	 mov	 eax, DWORD PTR _ptAct$[ebp]
  0003a	51		 push	 ecx
  0003b	f3 0f 10 80 18
	01 00 00	 movss	 xmm0, DWORD PTR [eax+280]
  00043	f3 0f 11 04 24	 movss	 DWORD PTR [esp], xmm0
  00048	e8 00 00 00 00	 call	 ?camMapToGamen@@YAXMMPAM0@Z ; camMapToGamen
  0004d	83 c4 10	 add	 esp, 16			; 00000010H

; 1620 : 	ptAct->x = (int)(mx+.5);

  00050	f3 0f 5a 45 f8	 cvtss2sd xmm0, DWORD PTR _mx$[ebp]
  00055	f2 0f 58 05 00
	00 00 00	 addsd	 xmm0, QWORD PTR __real@3fe0000000000000
  0005d	f2 0f 2c c0	 cvttsd2si eax, xmm0
  00061	8b 4d 08	 mov	 ecx, DWORD PTR _ptAct$[ebp]
  00064	89 41 18	 mov	 DWORD PTR [ecx+24], eax

; 1621 : 	ptAct->y = (int)(my+.5);

  00067	f3 0f 5a 45 ec	 cvtss2sd xmm0, DWORD PTR _my$[ebp]
  0006c	f2 0f 58 05 00
	00 00 00	 addsd	 xmm0, QWORD PTR __real@3fe0000000000000
  00074	f2 0f 2c c0	 cvttsd2si eax, xmm0
  00078	8b 4d 08	 mov	 ecx, DWORD PTR _ptAct$[ebp]
  0007b	89 41 1c	 mov	 DWORD PTR [ecx+28], eax

; 1622 : 	// ?????????
; 1623 : 	if( pattern( ptAct, ANM_NOMAL_SPD, ANM_NO_LOOP ) == 0 )

  0007e	6a 01		 push	 1
  00080	6a 00		 push	 0
  00082	8b 45 08	 mov	 eax, DWORD PTR _ptAct$[ebp]
  00085	50		 push	 eax
  00086	e8 00 00 00 00	 call	 ?pattern@@YAHPAUaction@@HH@Z ; pattern
  0008b	83 c4 0c	 add	 esp, 12			; 0000000cH
  0008e	85 c0		 test	 eax, eax
  00090	75 4b		 jne	 SHORT $LN2@commmonEff

; 1624 : 		// ??????????????
; 1625 : 		setCharPrio( ptAct->bmpNo, ptAct->x, ptAct->y+1, 0, 0, ptAct->mx, ptAct->my );

  00092	8b 45 08	 mov	 eax, DWORD PTR _ptAct$[ebp]
  00095	51		 push	 ecx
  00096	f3 0f 10 80 1c
	01 00 00	 movss	 xmm0, DWORD PTR [eax+284]
  0009e	f3 0f 11 04 24	 movss	 DWORD PTR [esp], xmm0
  000a3	8b 4d 08	 mov	 ecx, DWORD PTR _ptAct$[ebp]
  000a6	51		 push	 ecx
  000a7	f3 0f 10 81 18
	01 00 00	 movss	 xmm0, DWORD PTR [ecx+280]
  000af	f3 0f 11 04 24	 movss	 DWORD PTR [esp], xmm0
  000b4	6a 00		 push	 0
  000b6	6a 00		 push	 0
  000b8	8b 55 08	 mov	 edx, DWORD PTR _ptAct$[ebp]
  000bb	8b 42 1c	 mov	 eax, DWORD PTR [edx+28]
  000be	83 c0 01	 add	 eax, 1
  000c1	50		 push	 eax
  000c2	8b 4d 08	 mov	 ecx, DWORD PTR _ptAct$[ebp]
  000c5	8b 51 18	 mov	 edx, DWORD PTR [ecx+24]
  000c8	52		 push	 edx
  000c9	8b 45 08	 mov	 eax, DWORD PTR _ptAct$[ebp]
  000cc	8b 88 9c 00 00
	00		 mov	 ecx, DWORD PTR [eax+156]
  000d2	51		 push	 ecx
  000d3	e8 00 00 00 00	 call	 ?setCharPrio@@YAXHHHHHMM@Z ; setCharPrio
  000d8	83 c4 1c	 add	 esp, 28			; 0000001cH

; 1626 : 	else{

  000db	eb 13		 jmp	 SHORT $LN3@commmonEff
$LN2@commmonEff:

; 1627 : 		// ???????????????????
; 1628 : 		DeathAction( ptAct );

  000dd	8b 45 08	 mov	 eax, DWORD PTR _ptAct$[ebp]
  000e0	50		 push	 eax
  000e1	e8 00 00 00 00	 call	 ?DeathAction@@YAXPAUaction@@@Z ; DeathAction
  000e6	83 c4 04	 add	 esp, 4

; 1629 : 		ptAct = NULL;

  000e9	c7 45 08 00 00
	00 00		 mov	 DWORD PTR _ptAct$[ebp], 0
$LN3@commmonEff:

; 1630 : 	}
; 1631 : }

  000f0	52		 push	 edx
  000f1	8b cd		 mov	 ecx, ebp
  000f3	50		 push	 eax
  000f4	8d 15 00 00 00
	00		 lea	 edx, DWORD PTR $LN8@commmonEff
  000fa	e8 00 00 00 00	 call	 @_RTC_CheckStackVars@8
  000ff	58		 pop	 eax
  00100	5a		 pop	 edx
  00101	5f		 pop	 edi
  00102	5e		 pop	 esi
  00103	5b		 pop	 ebx
  00104	81 c4 d8 00 00
	00		 add	 esp, 216		; 000000d8H
  0010a	3b ec		 cmp	 ebp, esp
  0010c	e8 00 00 00 00	 call	 __RTC_CheckEsp
  00111	8b e5		 mov	 esp, ebp
  00113	5d		 pop	 ebp
  00114	c3		 ret	 0
  00115	0f 1f 00	 npad	 3
$LN8@commmonEff:
  00118	02 00 00 00	 DD	 2
  0011c	00 00 00 00	 DD	 $LN7@commmonEff
$LN7@commmonEff:
  00120	f8 ff ff ff	 DD	 -8			; fffffff8H
  00124	04 00 00 00	 DD	 4
  00128	00 00 00 00	 DD	 $LN5@commmonEff
  0012c	ec ff ff ff	 DD	 -20			; ffffffecH
  00130	04 00 00 00	 DD	 4
  00134	00 00 00 00	 DD	 $LN6@commmonEff
$LN6@commmonEff:
  00138	6d		 DB	 109			; 0000006dH
  00139	79		 DB	 121			; 00000079H
  0013a	00		 DB	 0
$LN5@commmonEff:
  0013b	6d		 DB	 109			; 0000006dH
  0013c	78		 DB	 120			; 00000078H
  0013d	00		 DB	 0
?commmonEffectNoLoop@@YAXPAUaction@@@Z ENDP		; commmonEffectNoLoop
_TEXT	ENDS
; Function compile flags: /Odtp /RTCsu /ZI
; File c:\users\administrator\desktop\????? ??\????? ??\client source code\system\character.cpp
;	COMDAT ?CharbubbleRelease@@YAXXZ
_TEXT	SEGMENT
?CharbubbleRelease@@YAXXZ PROC				; CharbubbleRelease, COMDAT

; 1555 : {

  00000	55		 push	 ebp
  00001	8b ec		 mov	 ebp, esp
  00003	81 ec c0 00 00
	00		 sub	 esp, 192		; 000000c0H
  00009	53		 push	 ebx
  0000a	56		 push	 esi
  0000b	57		 push	 edi
  0000c	8d bd 40 ff ff
	ff		 lea	 edi, DWORD PTR [ebp-192]
  00012	b9 30 00 00 00	 mov	 ecx, 48			; 00000030H
  00017	b8 cc cc cc cc	 mov	 eax, -858993460		; ccccccccH
  0001c	f3 ab		 rep stosd

; 1556 : 	if ( popAct != NULL )

  0001e	83 3d 00 00 00
	00 00		 cmp	 DWORD PTR ?popAct@@3PAUaction@@A, 0
  00025	74 18		 je	 SHORT $LN2@Charbubble

; 1557 : 	{
; 1558 : 		DeathAction(popAct);

  00027	a1 00 00 00 00	 mov	 eax, DWORD PTR ?popAct@@3PAUaction@@A
  0002c	50		 push	 eax
  0002d	e8 00 00 00 00	 call	 ?DeathAction@@YAXPAUaction@@@Z ; DeathAction
  00032	83 c4 04	 add	 esp, 4

; 1559 : 		popAct = NULL;

  00035	c7 05 00 00 00
	00 00 00 00 00	 mov	 DWORD PTR ?popAct@@3PAUaction@@A, 0
$LN2@Charbubble:

; 1560 : 	}
; 1561 : 	popflag = false;

  0003f	c6 05 00 00 00
	00 00		 mov	 BYTE PTR ?popflag@@3_NA, 0 ; popflag

; 1562 : 	waittimeflag = false;  

  00046	c6 05 00 00 00
	00 00		 mov	 BYTE PTR ?waittimeflag@@3_NA, 0 ; waittimeflag

; 1563 : }

  0004d	5f		 pop	 edi
  0004e	5e		 pop	 esi
  0004f	5b		 pop	 ebx
  00050	81 c4 c0 00 00
	00		 add	 esp, 192		; 000000c0H
  00056	3b ec		 cmp	 ebp, esp
  00058	e8 00 00 00 00	 call	 __RTC_CheckEsp
  0005d	8b e5		 mov	 esp, ebp
  0005f	5d		 pop	 ebp
  00060	c3		 ret	 0
?CharbubbleRelease@@YAXXZ ENDP				; CharbubbleRelease
_TEXT	ENDS
; Function compile flags: /Odtp /RTCsu /ZI
; File c:\users\administrator\desktop\????? ??\????? ??\client source code\system\character.cpp
;	COMDAT ?waterAniProc@@YAXPAUaction@@@Z
_TEXT	SEGMENT
$T1 = -317						; size = 1
_hh$2 = -116						; size = 2
_ww$3 = -104						; size = 2
_yy$4 = -92						; size = 2
_xx$5 = -80						; size = 2
_pFlag$ = -68						; size = 4
_ext$ = -56						; size = 4
_no$ = -44						; size = 4
_animLoop$ = -32					; size = 4
_my$ = -20						; size = 4
_mx$ = -8						; size = 4
_ptAct$ = 8						; size = 4
?waterAniProc@@YAXPAUaction@@@Z PROC			; waterAniProc, COMDAT

; 202  : {

  00000	55		 push	 ebp
  00001	8b ec		 mov	 ebp, esp
  00003	81 ec 44 01 00
	00		 sub	 esp, 324		; 00000144H
  00009	53		 push	 ebx
  0000a	56		 push	 esi
  0000b	57		 push	 edi
  0000c	8d bd bc fe ff
	ff		 lea	 edi, DWORD PTR [ebp-324]
  00012	b9 51 00 00 00	 mov	 ecx, 81			; 00000051H
  00017	b8 cc cc cc cc	 mov	 eax, -858993460		; ccccccccH
  0001c	f3 ab		 rep stosd
  0001e	c6 85 c3 fe ff
	ff 00		 mov	 BYTE PTR $T1[ebp], 0

; 203  : 	float mx, my;
; 204  : 	int animLoop;
; 205  : 	int no;
; 206  : 	CHAREXTRA *ext;
; 207  : 	int pFlag = 0;

  00025	c7 45 bc 00 00
	00 00		 mov	 DWORD PTR _pFlag$[ebp], 0

; 208  : 	// ?h??
; 209  : 	// PC???????q??h??
; 210  : 	// PC?????h????V???????h??
; 211  : 	if( pc.ptAct != ptAct ){

  0002c	a1 ec 50 00 00	 mov	 eax, DWORD PTR ?pc@@3UPC@@A+20716
  00031	3b 45 08	 cmp	 eax, DWORD PTR _ptAct$[ebp]
  00034	0f 84 c6 01 00
	00		 je	 $LN5@waterAniPr

; 212  : 		ext = (CHAREXTRA *)ptAct->pYobi;

  0003a	8b 45 08	 mov	 eax, DWORD PTR _ptAct$[ebp]
  0003d	8b 48 0c	 mov	 ecx, DWORD PTR [eax+12]
  00040	89 4d c8	 mov	 DWORD PTR _ext$[ebp], ecx

; 213  : 		no = ext->charObjTblId;

  00043	c6 85 c3 fe ff
	ff 01		 mov	 BYTE PTR $T1[ebp], 1
  0004a	8b 45 c8	 mov	 eax, DWORD PTR _ext$[ebp]
  0004d	8b 08		 mov	 ecx, DWORD PTR [eax]
  0004f	89 4d d4	 mov	 DWORD PTR _no$[ebp], ecx

; 214  : 		// ?????V??????????????
; 215  : 		if( (charObj[no].status & CHR_STATUS_PARTY) == 0 ){

  00052	80 bd c3 fe ff
	ff 00		 cmp	 BYTE PTR $T1[ebp], 0
  00059	75 0d		 jne	 SHORT $LN26@waterAniPr
  0005b	68 00 00 00 00	 push	 OFFSET $LN27@waterAniPr
  00060	e8 00 00 00 00	 call	 __RTC_UninitUse
  00065	83 c4 04	 add	 esp, 4
$LN26@waterAniPr:
  00068	69 45 d4 0c 01
	00 00		 imul	 eax, DWORD PTR _no$[ebp], 268
  0006f	8b 88 2c 00 00
	00		 mov	 ecx, DWORD PTR ?charObj@@3PAUCHAROBJ@@A[eax+44]
  00075	81 e1 00 02 00
	00		 and	 ecx, 512		; 00000200H
  0007b	75 15		 jne	 SHORT $LN3@waterAniPr

; 216  : 			charMove( ptAct );

  0007d	8b 45 08	 mov	 eax, DWORD PTR _ptAct$[ebp]
  00080	50		 push	 eax
  00081	e8 00 00 00 00	 call	 ?charMove@@YAXPAUaction@@@Z ; charMove
  00086	83 c4 04	 add	 esp, 4

; 217  : 			pFlag = 0;

  00089	c7 45 bc 00 00
	00 00		 mov	 DWORD PTR _pFlag$[ebp], 0

; 218  : 		}else

  00090	eb 07		 jmp	 SHORT $LN4@waterAniPr
$LN3@waterAniPr:

; 219  : 			pFlag = 1;

  00092	c7 45 bc 01 00
	00 00		 mov	 DWORD PTR _pFlag$[ebp], 1
$LN4@waterAniPr:

; 220  : 		if( ptAct->vx == 0 && ptAct->vy == 0 && charObj[no].stockDir != -1
; 221  : 		 && charObj[no].stockDirX == ptAct->gx && charObj[no].stockDirY == ptAct->gy ){

  00099	8b 45 08	 mov	 eax, DWORD PTR _ptAct$[ebp]
  0009c	f3 0f 10 80 20
	01 00 00	 movss	 xmm0, DWORD PTR [eax+288]
  000a4	0f 2e 05 00 00
	00 00		 ucomiss xmm0, DWORD PTR __real@00000000
  000ab	9f		 lahf
  000ac	f6 c4 44	 test	 ah, 68			; 00000044H
  000af	0f 8a 4b 01 00
	00		 jp	 $LN5@waterAniPr
  000b5	8b 45 08	 mov	 eax, DWORD PTR _ptAct$[ebp]
  000b8	f3 0f 10 80 24
	01 00 00	 movss	 xmm0, DWORD PTR [eax+292]
  000c0	0f 2e 05 00 00
	00 00		 ucomiss xmm0, DWORD PTR __real@00000000
  000c7	9f		 lahf
  000c8	f6 c4 44	 test	 ah, 68			; 00000044H
  000cb	0f 8a 2f 01 00
	00		 jp	 $LN5@waterAniPr
  000d1	80 bd c3 fe ff
	ff 00		 cmp	 BYTE PTR $T1[ebp], 0
  000d8	75 0d		 jne	 SHORT $LN28@waterAniPr
  000da	68 00 00 00 00	 push	 OFFSET $LN27@waterAniPr
  000df	e8 00 00 00 00	 call	 __RTC_UninitUse
  000e4	83 c4 04	 add	 esp, 4
$LN28@waterAniPr:
  000e7	69 45 d4 0c 01
	00 00		 imul	 eax, DWORD PTR _no$[ebp], 268
  000ee	83 b8 1c 00 00
	00 ff		 cmp	 DWORD PTR ?charObj@@3PAUCHAROBJ@@A[eax+28], -1
  000f5	0f 84 05 01 00
	00		 je	 $LN5@waterAniPr
  000fb	80 bd c3 fe ff
	ff 00		 cmp	 BYTE PTR $T1[ebp], 0
  00102	75 0d		 jne	 SHORT $LN29@waterAniPr
  00104	68 00 00 00 00	 push	 OFFSET $LN27@waterAniPr
  00109	e8 00 00 00 00	 call	 __RTC_UninitUse
  0010e	83 c4 04	 add	 esp, 4
$LN29@waterAniPr:
  00111	69 45 d4 0c 01
	00 00		 imul	 eax, DWORD PTR _no$[ebp], 268
  00118	8b 4d 08	 mov	 ecx, DWORD PTR _ptAct$[ebp]
  0011b	8b 90 20 00 00
	00		 mov	 edx, DWORD PTR ?charObj@@3PAUCHAROBJ@@A[eax+32]
  00121	3b 91 b4 00 00
	00		 cmp	 edx, DWORD PTR [ecx+180]
  00127	0f 85 d3 00 00
	00		 jne	 $LN5@waterAniPr
  0012d	80 bd c3 fe ff
	ff 00		 cmp	 BYTE PTR $T1[ebp], 0
  00134	75 0d		 jne	 SHORT $LN30@waterAniPr
  00136	68 00 00 00 00	 push	 OFFSET $LN27@waterAniPr
  0013b	e8 00 00 00 00	 call	 __RTC_UninitUse
  00140	83 c4 04	 add	 esp, 4
$LN30@waterAniPr:
  00143	69 45 d4 0c 01
	00 00		 imul	 eax, DWORD PTR _no$[ebp], 268
  0014a	8b 4d 08	 mov	 ecx, DWORD PTR _ptAct$[ebp]
  0014d	8b 90 24 00 00
	00		 mov	 edx, DWORD PTR ?charObj@@3PAUCHAROBJ@@A[eax+36]
  00153	3b 91 b8 00 00
	00		 cmp	 edx, DWORD PTR [ecx+184]
  00159	0f 85 a1 00 00
	00		 jne	 $LN5@waterAniPr

; 222  : 			ptAct->anim_ang = charObj[no].stockDir;

  0015f	80 bd c3 fe ff
	ff 00		 cmp	 BYTE PTR $T1[ebp], 0
  00166	75 0d		 jne	 SHORT $LN31@waterAniPr
  00168	68 00 00 00 00	 push	 OFFSET $LN27@waterAniPr
  0016d	e8 00 00 00 00	 call	 __RTC_UninitUse
  00172	83 c4 04	 add	 esp, 4
$LN31@waterAniPr:
  00175	69 45 d4 0c 01
	00 00		 imul	 eax, DWORD PTR _no$[ebp], 268
  0017c	8b 4d 08	 mov	 ecx, DWORD PTR _ptAct$[ebp]
  0017f	8b 90 1c 00 00
	00		 mov	 edx, DWORD PTR ?charObj@@3PAUCHAROBJ@@A[eax+28]
  00185	89 91 54 01 00
	00		 mov	 DWORD PTR [ecx+340], edx

; 223  : 			charObj[no].stockDir = -1;

  0018b	80 bd c3 fe ff
	ff 00		 cmp	 BYTE PTR $T1[ebp], 0
  00192	75 0d		 jne	 SHORT $LN32@waterAniPr
  00194	68 00 00 00 00	 push	 OFFSET $LN27@waterAniPr
  00199	e8 00 00 00 00	 call	 __RTC_UninitUse
  0019e	83 c4 04	 add	 esp, 4
$LN32@waterAniPr:
  001a1	69 45 d4 0c 01
	00 00		 imul	 eax, DWORD PTR _no$[ebp], 268
  001a8	c7 80 1c 00 00
	00 ff ff ff ff	 mov	 DWORD PTR ?charObj@@3PAUCHAROBJ@@A[eax+28], -1

; 224  : 			charObj[no].stockDirX = 0;

  001b2	80 bd c3 fe ff
	ff 00		 cmp	 BYTE PTR $T1[ebp], 0
  001b9	75 0d		 jne	 SHORT $LN33@waterAniPr
  001bb	68 00 00 00 00	 push	 OFFSET $LN27@waterAniPr
  001c0	e8 00 00 00 00	 call	 __RTC_UninitUse
  001c5	83 c4 04	 add	 esp, 4
$LN33@waterAniPr:
  001c8	69 45 d4 0c 01
	00 00		 imul	 eax, DWORD PTR _no$[ebp], 268
  001cf	c7 80 20 00 00
	00 00 00 00 00	 mov	 DWORD PTR ?charObj@@3PAUCHAROBJ@@A[eax+32], 0

; 225  : 			charObj[no].stockDirY = 0;

  001d9	80 bd c3 fe ff
	ff 00		 cmp	 BYTE PTR $T1[ebp], 0
  001e0	75 0d		 jne	 SHORT $LN34@waterAniPr
  001e2	68 00 00 00 00	 push	 OFFSET $LN27@waterAniPr
  001e7	e8 00 00 00 00	 call	 __RTC_UninitUse
  001ec	83 c4 04	 add	 esp, 4
$LN34@waterAniPr:
  001ef	69 45 d4 0c 01
	00 00		 imul	 eax, DWORD PTR _no$[ebp], 268
  001f6	c7 80 24 00 00
	00 00 00 00 00	 mov	 DWORD PTR ?charObj@@3PAUCHAROBJ@@A[eax+36], 0
$LN5@waterAniPr:

; 226  : 		}
; 227  : 	}
; 228  : 	// ??t
; 229  : 	camMapToGamen( ptAct->mx, ptAct->my, &mx, &my );

  00200	8d 45 ec	 lea	 eax, DWORD PTR _my$[ebp]
  00203	50		 push	 eax
  00204	8d 4d f8	 lea	 ecx, DWORD PTR _mx$[ebp]
  00207	51		 push	 ecx
  00208	8b 55 08	 mov	 edx, DWORD PTR _ptAct$[ebp]
  0020b	51		 push	 ecx
  0020c	f3 0f 10 82 1c
	01 00 00	 movss	 xmm0, DWORD PTR [edx+284]
  00214	f3 0f 11 04 24	 movss	 DWORD PTR [esp], xmm0
  00219	8b 45 08	 mov	 eax, DWORD PTR _ptAct$[ebp]
  0021c	51		 push	 ecx
  0021d	f3 0f 10 80 18
	01 00 00	 movss	 xmm0, DWORD PTR [eax+280]
  00225	f3 0f 11 04 24	 movss	 DWORD PTR [esp], xmm0
  0022a	e8 00 00 00 00	 call	 ?camMapToGamen@@YAXMMPAM0@Z ; camMapToGamen
  0022f	83 c4 10	 add	 esp, 16			; 00000010H

; 230  : 	ptAct->x = (int)(mx+.5);

  00232	f3 0f 5a 45 f8	 cvtss2sd xmm0, DWORD PTR _mx$[ebp]
  00237	f2 0f 58 05 00
	00 00 00	 addsd	 xmm0, QWORD PTR __real@3fe0000000000000
  0023f	f2 0f 2c c0	 cvttsd2si eax, xmm0
  00243	8b 4d 08	 mov	 ecx, DWORD PTR _ptAct$[ebp]
  00246	89 41 18	 mov	 DWORD PTR [ecx+24], eax

; 231  : 	ptAct->y = (int)(my+.5);

  00249	f3 0f 5a 45 ec	 cvtss2sd xmm0, DWORD PTR _my$[ebp]
  0024e	f2 0f 58 05 00
	00 00 00	 addsd	 xmm0, QWORD PTR __real@3fe0000000000000
  00256	f2 0f 2c c0	 cvttsd2si eax, xmm0
  0025a	8b 4d 08	 mov	 ecx, DWORD PTR _ptAct$[ebp]
  0025d	89 41 1c	 mov	 DWORD PTR [ecx+28], eax

; 232  : 	// ??????????
; 233  : 	//  不??掉人物状态会被复制到其他ACTION
; 234  : 	//	drawCharStatus( ptAct );
; 235  : 	// ?????????
; 236  : 	if( ptAct->anim_no == ANIM_HAND
; 237  : 	 || ptAct->anim_no == ANIM_HAPPY
; 238  : 	 || ptAct->anim_no == ANIM_ANGRY
; 239  : 	 || ptAct->anim_no == ANIM_SAD
; 240  : 	 || ptAct->anim_no == ANIM_WALK
; 241  : 	 || ptAct->anim_no == ANIM_STAND
; 242  : 	 || ptAct->anim_no == ANIM_NOD )

  00260	8b 45 08	 mov	 eax, DWORD PTR _ptAct$[ebp]
  00263	83 b8 4c 01 00
	00 06		 cmp	 DWORD PTR [eax+332], 6
  0026a	74 48		 je	 SHORT $LN8@waterAniPr
  0026c	8b 45 08	 mov	 eax, DWORD PTR _ptAct$[ebp]
  0026f	83 b8 4c 01 00
	00 07		 cmp	 DWORD PTR [eax+332], 7
  00276	74 3c		 je	 SHORT $LN8@waterAniPr
  00278	8b 45 08	 mov	 eax, DWORD PTR _ptAct$[ebp]
  0027b	83 b8 4c 01 00
	00 08		 cmp	 DWORD PTR [eax+332], 8
  00282	74 30		 je	 SHORT $LN8@waterAniPr
  00284	8b 45 08	 mov	 eax, DWORD PTR _ptAct$[ebp]
  00287	83 b8 4c 01 00
	00 09		 cmp	 DWORD PTR [eax+332], 9
  0028e	74 24		 je	 SHORT $LN8@waterAniPr
  00290	8b 45 08	 mov	 eax, DWORD PTR _ptAct$[ebp]
  00293	83 b8 4c 01 00
	00 04		 cmp	 DWORD PTR [eax+332], 4
  0029a	74 18		 je	 SHORT $LN8@waterAniPr
  0029c	8b 45 08	 mov	 eax, DWORD PTR _ptAct$[ebp]
  0029f	83 b8 4c 01 00
	00 03		 cmp	 DWORD PTR [eax+332], 3
  002a6	74 0c		 je	 SHORT $LN8@waterAniPr
  002a8	8b 45 08	 mov	 eax, DWORD PTR _ptAct$[ebp]
  002ab	83 b8 4c 01 00
	00 0b		 cmp	 DWORD PTR [eax+332], 11	; 0000000bH
  002b2	75 09		 jne	 SHORT $LN6@waterAniPr
$LN8@waterAniPr:

; 243  : 		animLoop = ANM_LOOP;

  002b4	c7 45 e0 00 00
	00 00		 mov	 DWORD PTR _animLoop$[ebp], 0

; 244  : 	else

  002bb	eb 07		 jmp	 SHORT $LN7@waterAniPr
$LN6@waterAniPr:

; 245  : 		animLoop = ANM_NO_LOOP;

  002bd	c7 45 e0 01 00
	00 00		 mov	 DWORD PTR _animLoop$[ebp], 1
$LN7@waterAniPr:

; 246  : 	pattern( ptAct, ANM_NOMAL_SPD, animLoop );

  002c4	8b 45 e0	 mov	 eax, DWORD PTR _animLoop$[ebp]
  002c7	50		 push	 eax
  002c8	6a 00		 push	 0
  002ca	8b 4d 08	 mov	 ecx, DWORD PTR _ptAct$[ebp]
  002cd	51		 push	 ecx
  002ce	e8 00 00 00 00	 call	 ?pattern@@YAHPAUaction@@HH@Z ; pattern
  002d3	83 c4 0c	 add	 esp, 12			; 0000000cH

; 247  : 	if( pFlag ){

  002d6	83 7d bc 00	 cmp	 DWORD PTR _pFlag$[ebp], 0
  002da	74 48		 je	 SHORT $LN9@waterAniPr

; 248  : 		if( nowSpdRate >= 1.2F )

  002dc	f3 0f 10 05 00
	00 00 00	 movss	 xmm0, DWORD PTR ?nowSpdRate@@3MA
  002e4	0f 2f 05 00 00
	00 00		 comiss	 xmm0, DWORD PTR __real@3f99999a
  002eb	72 12		 jb	 SHORT $LN11@waterAniPr

; 249  : 			pattern( ptAct, ANM_NOMAL_SPD, animLoop );

  002ed	8b 45 e0	 mov	 eax, DWORD PTR _animLoop$[ebp]
  002f0	50		 push	 eax
  002f1	6a 00		 push	 0
  002f3	8b 4d 08	 mov	 ecx, DWORD PTR _ptAct$[ebp]
  002f6	51		 push	 ecx
  002f7	e8 00 00 00 00	 call	 ?pattern@@YAHPAUaction@@HH@Z ; pattern
  002fc	83 c4 0c	 add	 esp, 12			; 0000000cH
$LN11@waterAniPr:

; 250  : 		if( nowSpdRate >= 1.6F )

  002ff	f3 0f 10 05 00
	00 00 00	 movss	 xmm0, DWORD PTR ?nowSpdRate@@3MA
  00307	0f 2f 05 00 00
	00 00		 comiss	 xmm0, DWORD PTR __real@3fcccccd
  0030e	72 12		 jb	 SHORT $LN12@waterAniPr

; 251  : 			pattern( ptAct, ANM_NOMAL_SPD, animLoop );

  00310	8b 45 e0	 mov	 eax, DWORD PTR _animLoop$[ebp]
  00313	50		 push	 eax
  00314	6a 00		 push	 0
  00316	8b 4d 08	 mov	 ecx, DWORD PTR _ptAct$[ebp]
  00319	51		 push	 ecx
  0031a	e8 00 00 00 00	 call	 ?pattern@@YAHPAUaction@@HH@Z ; pattern
  0031f	83 c4 0c	 add	 esp, 12			; 0000000cH
$LN12@waterAniPr:

; 252  : 	}else{

  00322	eb 42		 jmp	 SHORT $LN14@waterAniPr
$LN9@waterAniPr:

; 253  : 		if( ptAct->bufCount >= 2 )

  00324	8b 45 08	 mov	 eax, DWORD PTR _ptAct$[ebp]
  00327	0f bf 88 14 01
	00 00		 movsx	 ecx, WORD PTR [eax+276]
  0032e	83 f9 02	 cmp	 ecx, 2
  00331	7c 12		 jl	 SHORT $LN13@waterAniPr

; 254  : 			pattern( ptAct, ANM_NOMAL_SPD, animLoop );

  00333	8b 45 e0	 mov	 eax, DWORD PTR _animLoop$[ebp]
  00336	50		 push	 eax
  00337	6a 00		 push	 0
  00339	8b 4d 08	 mov	 ecx, DWORD PTR _ptAct$[ebp]
  0033c	51		 push	 ecx
  0033d	e8 00 00 00 00	 call	 ?pattern@@YAHPAUaction@@HH@Z ; pattern
  00342	83 c4 0c	 add	 esp, 12			; 0000000cH
$LN13@waterAniPr:

; 255  : 		if( ptAct->bufCount >= 4 )

  00345	8b 45 08	 mov	 eax, DWORD PTR _ptAct$[ebp]
  00348	0f bf 88 14 01
	00 00		 movsx	 ecx, WORD PTR [eax+276]
  0034f	83 f9 04	 cmp	 ecx, 4
  00352	7c 12		 jl	 SHORT $LN14@waterAniPr

; 256  : 			pattern( ptAct, ANM_NOMAL_SPD, animLoop );

  00354	8b 45 e0	 mov	 eax, DWORD PTR _animLoop$[ebp]
  00357	50		 push	 eax
  00358	6a 00		 push	 0
  0035a	8b 4d 08	 mov	 ecx, DWORD PTR _ptAct$[ebp]
  0035d	51		 push	 ecx
  0035e	e8 00 00 00 00	 call	 ?pattern@@YAHPAUaction@@HH@Z ; pattern
  00363	83 c4 0c	 add	 esp, 12			; 0000000cH
$LN14@waterAniPr:

; 257  : 	}
; 258  : 	if( pc.ptAct != ptAct ){

  00366	a1 ec 50 00 00	 mov	 eax, DWORD PTR ?pc@@3UPC@@A+20716
  0036b	3b 45 08	 cmp	 eax, DWORD PTR _ptAct$[ebp]
  0036e	0f 84 e8 00 00
	00		 je	 $LN17@waterAniPr

; 259  : 		if( charObj[no].newFoundFlag ){

  00374	80 bd c3 fe ff
	ff 00		 cmp	 BYTE PTR $T1[ebp], 0
  0037b	75 0d		 jne	 SHORT $LN35@waterAniPr
  0037d	68 00 00 00 00	 push	 OFFSET $LN27@waterAniPr
  00382	e8 00 00 00 00	 call	 __RTC_UninitUse
  00387	83 c4 04	 add	 esp, 4
$LN35@waterAniPr:
  0038a	69 45 d4 0c 01
	00 00		 imul	 eax, DWORD PTR _no$[ebp], 268
  00391	0f bf 88 b8 00
	00 00		 movsx	 ecx, WORD PTR ?charObj@@3PAUCHAROBJ@@A[eax+184]
  00398	85 c9		 test	 ecx, ecx
  0039a	0f 84 bc 00 00
	00		 je	 $LN17@waterAniPr

; 260  : 			S2 xx, yy, ww, hh;
; 261  : 			// ???????
; 262  : 			realGetPos( ptAct->bmpNo, &xx, &yy );

  003a0	8d 45 a4	 lea	 eax, DWORD PTR _yy$4[ebp]
  003a3	50		 push	 eax
  003a4	8d 4d b0	 lea	 ecx, DWORD PTR _xx$5[ebp]
  003a7	51		 push	 ecx
  003a8	8b 55 08	 mov	 edx, DWORD PTR _ptAct$[ebp]
  003ab	8b 82 9c 00 00
	00		 mov	 eax, DWORD PTR [edx+156]
  003b1	50		 push	 eax
  003b2	e8 00 00 00 00	 call	 ?realGetPos@@YAHKPAF0@Z	; realGetPos
  003b7	83 c4 0c	 add	 esp, 12			; 0000000cH

; 263  : 			realGetWH( ptAct->bmpNo, &ww, &hh );

  003ba	8d 45 8c	 lea	 eax, DWORD PTR _hh$2[ebp]
  003bd	50		 push	 eax
  003be	8d 4d 98	 lea	 ecx, DWORD PTR _ww$3[ebp]
  003c1	51		 push	 ecx
  003c2	8b 55 08	 mov	 edx, DWORD PTR _ptAct$[ebp]
  003c5	8b 82 9c 00 00
	00		 mov	 eax, DWORD PTR [edx+156]
  003cb	50		 push	 eax
  003cc	e8 00 00 00 00	 call	 ?realGetWH@@YAHKPAF0@Z	; realGetWH
  003d1	83 c4 0c	 add	 esp, 12			; 0000000cH

; 264  : 			xx += ptAct->x;

  003d4	0f bf 45 b0	 movsx	 eax, WORD PTR _xx$5[ebp]
  003d8	8b 4d 08	 mov	 ecx, DWORD PTR _ptAct$[ebp]
  003db	03 41 18	 add	 eax, DWORD PTR [ecx+24]
  003de	66 89 45 b0	 mov	 WORD PTR _xx$5[ebp], ax

; 265  : 			yy += ptAct->y;

  003e2	0f bf 45 a4	 movsx	 eax, WORD PTR _yy$4[ebp]
  003e6	8b 4d 08	 mov	 ecx, DWORD PTR _ptAct$[ebp]
  003e9	03 41 1c	 add	 eax, DWORD PTR [ecx+28]
  003ec	66 89 45 a4	 mov	 WORD PTR _yy$4[ebp], ax

; 266  : 			if( 0 <= xx && xx+ww <= DEF_APPSIZEX
; 267  : 			 && 0 <= yy && yy+hh <= DEF_APPSIZEY ){

  003f0	0f bf 45 b0	 movsx	 eax, WORD PTR _xx$5[ebp]
  003f4	85 c0		 test	 eax, eax
  003f6	7c 64		 jl	 SHORT $LN17@waterAniPr
  003f8	0f bf 45 b0	 movsx	 eax, WORD PTR _xx$5[ebp]
  003fc	0f bf 4d 98	 movsx	 ecx, WORD PTR _ww$3[ebp]
  00400	03 c1		 add	 eax, ecx
  00402	3b 05 00 00 00
	00		 cmp	 eax, DWORD PTR ?DEF_APPSIZEX@@3HA ; DEF_APPSIZEX
  00408	7f 52		 jg	 SHORT $LN17@waterAniPr
  0040a	0f bf 45 a4	 movsx	 eax, WORD PTR _yy$4[ebp]
  0040e	85 c0		 test	 eax, eax
  00410	7c 4a		 jl	 SHORT $LN17@waterAniPr
  00412	0f bf 45 a4	 movsx	 eax, WORD PTR _yy$4[ebp]
  00416	0f bf 4d 8c	 movsx	 ecx, WORD PTR _hh$2[ebp]
  0041a	03 c1		 add	 eax, ecx
  0041c	3b 05 00 00 00
	00		 cmp	 eax, DWORD PTR ?DEF_APPSIZEY@@3HA ; DEF_APPSIZEY
  00422	7f 38		 jg	 SHORT $LN17@waterAniPr

; 268  : 				CheckNewPet( ptAct->anim_chr_no );

  00424	8b 45 08	 mov	 eax, DWORD PTR _ptAct$[ebp]
  00427	8b 88 44 01 00
	00		 mov	 ecx, DWORD PTR [eax+324]
  0042d	51		 push	 ecx
  0042e	e8 00 00 00 00	 call	 ?CheckNewPet@@YAXH@Z	; CheckNewPet
  00433	83 c4 04	 add	 esp, 4

; 269  : 				charObj[no].newFoundFlag = 0;

  00436	80 bd c3 fe ff
	ff 00		 cmp	 BYTE PTR $T1[ebp], 0
  0043d	75 0d		 jne	 SHORT $LN36@waterAniPr
  0043f	68 00 00 00 00	 push	 OFFSET $LN27@waterAniPr
  00444	e8 00 00 00 00	 call	 __RTC_UninitUse
  00449	83 c4 04	 add	 esp, 4
$LN36@waterAniPr:
  0044c	69 45 d4 0c 01
	00 00		 imul	 eax, DWORD PTR _no$[ebp], 268
  00453	33 c9		 xor	 ecx, ecx
  00455	66 89 88 b8 00
	00 00		 mov	 WORD PTR ?charObj@@3PAUCHAROBJ@@A[eax+184], cx
$LN17@waterAniPr:

; 270  : 			}
; 271  : 		}
; 272  : 	}
; 273  : 	if( 20000 <= ptAct->anim_chr_no && ptAct->anim_chr_no <= 24999 ){

  0045c	8b 45 08	 mov	 eax, DWORD PTR _ptAct$[ebp]
  0045f	81 b8 44 01 00
	00 20 4e 00 00	 cmp	 DWORD PTR [eax+324], 20000 ; 00004e20H
  00469	0f 8c 40 01 00
	00		 jl	 $LN18@waterAniPr
  0046f	8b 45 08	 mov	 eax, DWORD PTR _ptAct$[ebp]
  00472	81 b8 44 01 00
	00 a7 61 00 00	 cmp	 DWORD PTR [eax+324], 24999 ; 000061a7H
  0047c	0f 8f 2d 01 00
	00		 jg	 $LN18@waterAniPr

; 274  : 		// ????
; 275  : 		if( pc.ptAct != ptAct ){

  00482	a1 ec 50 00 00	 mov	 eax, DWORD PTR ?pc@@3UPC@@A+20716
  00487	3b 45 08	 cmp	 eax, DWORD PTR _ptAct$[ebp]
  0048a	74 7d		 je	 SHORT $LN21@waterAniPr

; 276  : 			// d??????????
; 277  : 			if( ptAct->gx < nowGx-16 || nowGx+16 < ptAct->gx
; 278  : 			 || ptAct->gy < nowGy-16 || nowGy+16 < ptAct->gy ){

  0048c	a1 00 00 00 00	 mov	 eax, DWORD PTR ?nowGx@@3HA ; nowGx
  00491	83 e8 10	 sub	 eax, 16			; 00000010H
  00494	8b 4d 08	 mov	 ecx, DWORD PTR _ptAct$[ebp]
  00497	39 81 b4 00 00
	00		 cmp	 DWORD PTR [ecx+180], eax
  0049d	7c 39		 jl	 SHORT $LN22@waterAniPr
  0049f	a1 00 00 00 00	 mov	 eax, DWORD PTR ?nowGx@@3HA ; nowGx
  004a4	83 c0 10	 add	 eax, 16			; 00000010H
  004a7	8b 4d 08	 mov	 ecx, DWORD PTR _ptAct$[ebp]
  004aa	3b 81 b4 00 00
	00		 cmp	 eax, DWORD PTR [ecx+180]
  004b0	7c 26		 jl	 SHORT $LN22@waterAniPr
  004b2	a1 00 00 00 00	 mov	 eax, DWORD PTR ?nowGy@@3HA ; nowGy
  004b7	83 e8 10	 sub	 eax, 16			; 00000010H
  004ba	8b 4d 08	 mov	 ecx, DWORD PTR _ptAct$[ebp]
  004bd	39 81 b8 00 00
	00		 cmp	 DWORD PTR [ecx+184], eax
  004c3	7c 13		 jl	 SHORT $LN22@waterAniPr
  004c5	a1 00 00 00 00	 mov	 eax, DWORD PTR ?nowGy@@3HA ; nowGy
  004ca	83 c0 10	 add	 eax, 16			; 00000010H
  004cd	8b 4d 08	 mov	 ecx, DWORD PTR _ptAct$[ebp]
  004d0	3b 81 b8 00 00
	00		 cmp	 eax, DWORD PTR [ecx+184]
  004d6	7d 31		 jge	 SHORT $LN21@waterAniPr
$LN22@waterAniPr:

; 279  : 				delCharObj( charObj[no].id );

  004d8	80 bd c3 fe ff
	ff 00		 cmp	 BYTE PTR $T1[ebp], 0
  004df	75 0d		 jne	 SHORT $LN37@waterAniPr
  004e1	68 00 00 00 00	 push	 OFFSET $LN27@waterAniPr
  004e6	e8 00 00 00 00	 call	 __RTC_UninitUse
  004eb	83 c4 04	 add	 esp, 4
$LN37@waterAniPr:
  004ee	69 45 d4 0c 01
	00 00		 imul	 eax, DWORD PTR _no$[ebp], 268
  004f5	8b 88 04 00 00
	00		 mov	 ecx, DWORD PTR ?charObj@@3PAUCHAROBJ@@A[eax+4]
  004fb	51		 push	 ecx
  004fc	e8 00 00 00 00	 call	 ?delCharObj@@YAXH@Z	; delCharObj
  00501	83 c4 04	 add	 esp, 4

; 280  : 				return;

  00504	e9 f4 00 00 00	 jmp	 $LN1@waterAniPr
$LN21@waterAniPr:

; 281  : 			}
; 282  : 		}
; 283  : 		// i??t????????
; 284  : 		if( !itemOverlapCheck( ptAct->bmpNo, ptAct->gx, ptAct->gy ) ){

  00509	8b 45 08	 mov	 eax, DWORD PTR _ptAct$[ebp]
  0050c	8b 88 b8 00 00
	00		 mov	 ecx, DWORD PTR [eax+184]
  00512	51		 push	 ecx
  00513	8b 55 08	 mov	 edx, DWORD PTR _ptAct$[ebp]
  00516	8b 82 b4 00 00
	00		 mov	 eax, DWORD PTR [edx+180]
  0051c	50		 push	 eax
  0051d	8b 4d 08	 mov	 ecx, DWORD PTR _ptAct$[ebp]
  00520	8b 91 9c 00 00
	00		 mov	 edx, DWORD PTR [ecx+156]
  00526	52		 push	 edx
  00527	e8 00 00 00 00	 call	 ?itemOverlapCheck@@YAHIHH@Z ; itemOverlapCheck
  0052c	83 c4 0c	 add	 esp, 12			; 0000000cH
  0052f	85 c0		 test	 eax, eax
  00531	75 65		 jne	 SHORT $LN23@waterAniPr

; 285  : 			// ??????????????
; 286  : #ifdef _SPECIALSPACEANIM_FIX  //ROG ADD 修改图层
; 287  : 			setPartsPrio( ptAct->bmpNo, ptAct->x, ptAct->y, 0, 0, ptAct->mx, ptAct->my,ptAct->dispPrio);

  00533	8b 45 08	 mov	 eax, DWORD PTR _ptAct$[ebp]
  00536	0f b6 48 15	 movzx	 ecx, BYTE PTR [eax+21]
  0053a	51		 push	 ecx
  0053b	8b 55 08	 mov	 edx, DWORD PTR _ptAct$[ebp]
  0053e	51		 push	 ecx
  0053f	f3 0f 10 82 1c
	01 00 00	 movss	 xmm0, DWORD PTR [edx+284]
  00547	f3 0f 11 04 24	 movss	 DWORD PTR [esp], xmm0
  0054c	8b 45 08	 mov	 eax, DWORD PTR _ptAct$[ebp]
  0054f	51		 push	 ecx
  00550	f3 0f 10 80 18
	01 00 00	 movss	 xmm0, DWORD PTR [eax+280]
  00558	f3 0f 11 04 24	 movss	 DWORD PTR [esp], xmm0
  0055d	6a 00		 push	 0
  0055f	6a 00		 push	 0
  00561	8b 4d 08	 mov	 ecx, DWORD PTR _ptAct$[ebp]
  00564	8b 51 1c	 mov	 edx, DWORD PTR [ecx+28]
  00567	52		 push	 edx
  00568	8b 45 08	 mov	 eax, DWORD PTR _ptAct$[ebp]
  0056b	8b 48 18	 mov	 ecx, DWORD PTR [eax+24]
  0056e	51		 push	 ecx
  0056f	8b 55 08	 mov	 edx, DWORD PTR _ptAct$[ebp]
  00572	8b 82 9c 00 00
	00		 mov	 eax, DWORD PTR [edx+156]
  00578	50		 push	 eax
  00579	e8 00 00 00 00	 call	 ?setPartsPrio@@YAXHHHHHMMH@Z ; setPartsPrio
  0057e	83 c4 20	 add	 esp, 32			; 00000020H

; 288  : #else
; 289  : 			setCharPrio( ptAct->bmpNo, ptAct->x, ptAct->y, 0, 0, ptAct->mx, ptAct->my );
; 290  : #endif
; 291  : 			ptAct->atr &= (~ACT_ATR_HIDE);

  00581	8b 45 08	 mov	 eax, DWORD PTR _ptAct$[ebp]
  00584	8b 88 a4 00 00
	00		 mov	 ecx, DWORD PTR [eax+164]
  0058a	83 e1 fd	 and	 ecx, -3			; fffffffdH
  0058d	8b 55 08	 mov	 edx, DWORD PTR _ptAct$[ebp]
  00590	89 8a a4 00 00
	00		 mov	 DWORD PTR [edx+164], ecx

; 292  : 		}else

  00596	eb 15		 jmp	 SHORT $LN24@waterAniPr
$LN23@waterAniPr:

; 293  : 			ptAct->atr |= ACT_ATR_HIDE;

  00598	8b 45 08	 mov	 eax, DWORD PTR _ptAct$[ebp]
  0059b	8b 88 a4 00 00
	00		 mov	 ecx, DWORD PTR [eax+164]
  005a1	83 c9 02	 or	 ecx, 2
  005a4	8b 55 08	 mov	 edx, DWORD PTR _ptAct$[ebp]
  005a7	89 8a a4 00 00
	00		 mov	 DWORD PTR [edx+164], ecx
$LN24@waterAniPr:

; 294  : 	}else{

  005ad	eb 4e		 jmp	 SHORT $LN19@waterAniPr
$LN18@waterAniPr:

; 295  : 		// ????????
; 296  : 		// ??????????????
; 297  : #ifdef _SPECIALSPACEANIM_FIX  //ROG ADD 修改图层
; 298  : 		setPartsPrio( ptAct->bmpNo, ptAct->x, ptAct->y, 0, 0, ptAct->mx, ptAct->my,ptAct->dispPrio);

  005af	8b 45 08	 mov	 eax, DWORD PTR _ptAct$[ebp]
  005b2	0f b6 48 15	 movzx	 ecx, BYTE PTR [eax+21]
  005b6	51		 push	 ecx
  005b7	8b 55 08	 mov	 edx, DWORD PTR _ptAct$[ebp]
  005ba	51		 push	 ecx
  005bb	f3 0f 10 82 1c
	01 00 00	 movss	 xmm0, DWORD PTR [edx+284]
  005c3	f3 0f 11 04 24	 movss	 DWORD PTR [esp], xmm0
  005c8	8b 45 08	 mov	 eax, DWORD PTR _ptAct$[ebp]
  005cb	51		 push	 ecx
  005cc	f3 0f 10 80 18
	01 00 00	 movss	 xmm0, DWORD PTR [eax+280]
  005d4	f3 0f 11 04 24	 movss	 DWORD PTR [esp], xmm0
  005d9	6a 00		 push	 0
  005db	6a 00		 push	 0
  005dd	8b 4d 08	 mov	 ecx, DWORD PTR _ptAct$[ebp]
  005e0	8b 51 1c	 mov	 edx, DWORD PTR [ecx+28]
  005e3	52		 push	 edx
  005e4	8b 45 08	 mov	 eax, DWORD PTR _ptAct$[ebp]
  005e7	8b 48 18	 mov	 ecx, DWORD PTR [eax+24]
  005ea	51		 push	 ecx
  005eb	8b 55 08	 mov	 edx, DWORD PTR _ptAct$[ebp]
  005ee	8b 82 9c 00 00
	00		 mov	 eax, DWORD PTR [edx+156]
  005f4	50		 push	 eax
  005f5	e8 00 00 00 00	 call	 ?setPartsPrio@@YAXHHHHHMMH@Z ; setPartsPrio
  005fa	83 c4 20	 add	 esp, 32			; 00000020H
$LN19@waterAniPr:
$LN1@waterAniPr:

; 299  : #else
; 300  : 		setCharPrio( ptAct->bmpNo, ptAct->x, ptAct->y, 0, 0, ptAct->mx, ptAct->my );
; 301  : #endif
; 302  : 	}
; 303  : }

  005fd	52		 push	 edx
  005fe	8b cd		 mov	 ecx, ebp
  00600	50		 push	 eax
  00601	8d 15 00 00 00
	00		 lea	 edx, DWORD PTR $LN45@waterAniPr
  00607	e8 00 00 00 00	 call	 @_RTC_CheckStackVars@8
  0060c	58		 pop	 eax
  0060d	5a		 pop	 edx
  0060e	5f		 pop	 edi
  0060f	5e		 pop	 esi
  00610	5b		 pop	 ebx
  00611	81 c4 44 01 00
	00		 add	 esp, 324		; 00000144H
  00617	3b ec		 cmp	 ebp, esp
  00619	e8 00 00 00 00	 call	 __RTC_CheckEsp
  0061e	8b e5		 mov	 esp, ebp
  00620	5d		 pop	 ebp
  00621	c3		 ret	 0
  00622	66 90		 npad	 2
$LN45@waterAniPr:
  00624	06 00 00 00	 DD	 6
  00628	00 00 00 00	 DD	 $LN44@waterAniPr
$LN44@waterAniPr:
  0062c	f8 ff ff ff	 DD	 -8			; fffffff8H
  00630	04 00 00 00	 DD	 4
  00634	00 00 00 00	 DD	 $LN38@waterAniPr
  00638	ec ff ff ff	 DD	 -20			; ffffffecH
  0063c	04 00 00 00	 DD	 4
  00640	00 00 00 00	 DD	 $LN39@waterAniPr
  00644	b0 ff ff ff	 DD	 -80			; ffffffb0H
  00648	02 00 00 00	 DD	 2
  0064c	00 00 00 00	 DD	 $LN40@waterAniPr
  00650	a4 ff ff ff	 DD	 -92			; ffffffa4H
  00654	02 00 00 00	 DD	 2
  00658	00 00 00 00	 DD	 $LN41@waterAniPr
  0065c	98 ff ff ff	 DD	 -104			; ffffff98H
  00660	02 00 00 00	 DD	 2
  00664	00 00 00 00	 DD	 $LN42@waterAniPr
  00668	8c ff ff ff	 DD	 -116			; ffffff8cH
  0066c	02 00 00 00	 DD	 2
  00670	00 00 00 00	 DD	 $LN43@waterAniPr
$LN43@waterAniPr:
  00674	68		 DB	 104			; 00000068H
  00675	68		 DB	 104			; 00000068H
  00676	00		 DB	 0
$LN42@waterAniPr:
  00677	77		 DB	 119			; 00000077H
  00678	77		 DB	 119			; 00000077H
  00679	00		 DB	 0
$LN41@waterAniPr:
  0067a	79		 DB	 121			; 00000079H
  0067b	79		 DB	 121			; 00000079H
  0067c	00		 DB	 0
$LN40@waterAniPr:
  0067d	78		 DB	 120			; 00000078H
  0067e	78		 DB	 120			; 00000078H
  0067f	00		 DB	 0
$LN39@waterAniPr:
  00680	6d		 DB	 109			; 0000006dH
  00681	79		 DB	 121			; 00000079H
  00682	00		 DB	 0
$LN38@waterAniPr:
  00683	6d		 DB	 109			; 0000006dH
  00684	78		 DB	 120			; 00000078H
  00685	00		 DB	 0
$LN27@waterAniPr:
  00686	6e		 DB	 110			; 0000006eH
  00687	6f		 DB	 111			; 0000006fH
  00688	00		 DB	 0
?waterAniProc@@YAXPAUaction@@@Z ENDP			; waterAniProc
_TEXT	ENDS
; Function compile flags: /Odtp /RTCsu /ZI
; File c:\users\administrator\desktop\????? ??\????? ??\client source code\system\character.cpp
;	COMDAT ?charProc@@YAXPAUaction@@@Z
_TEXT	SEGMENT
$T1 = -317						; size = 1
_hh$2 = -116						; size = 2
_ww$3 = -104						; size = 2
_yy$4 = -92						; size = 2
_xx$5 = -80						; size = 2
_pFlag$ = -68						; size = 4
_ext$ = -56						; size = 4
_no$ = -44						; size = 4
_animLoop$ = -32					; size = 4
_my$ = -20						; size = 4
_mx$ = -8						; size = 4
_ptAct$ = 8						; size = 4
?charProc@@YAXPAUaction@@@Z PROC			; charProc, COMDAT

; 93   : {

  00000	55		 push	 ebp
  00001	8b ec		 mov	 ebp, esp
  00003	81 ec 44 01 00
	00		 sub	 esp, 324		; 00000144H
  00009	53		 push	 ebx
  0000a	56		 push	 esi
  0000b	57		 push	 edi
  0000c	8d bd bc fe ff
	ff		 lea	 edi, DWORD PTR [ebp-324]
  00012	b9 51 00 00 00	 mov	 ecx, 81			; 00000051H
  00017	b8 cc cc cc cc	 mov	 eax, -858993460		; ccccccccH
  0001c	f3 ab		 rep stosd
  0001e	c6 85 c3 fe ff
	ff 00		 mov	 BYTE PTR $T1[ebp], 0

; 94   : #ifdef _SHOW_ALL_ID
; 95   : 	char *lssproto_cnv10to62(int a, char *out, int outlen);
; 96   : 	char c62[20];
; 97   : 	char buf[20];
; 98   : 	lssproto_cnv10to62(ptAct->objIndex, c62, 20);
; 99   : 	wsprintfA(buf, "%s(%d)", c62, ptAct->objIndex);
; 100  : 	StockFontBuffer(ptAct->x-5, ptAct->y+10, 0, 4, buf, 0);
; 101  : #endif // _SHOW_ALL_ID
; 102  : 
; 103  : 
; 104  : 
; 105  : 	float mx, my;
; 106  : 	int animLoop;
; 107  : 	int no;
; 108  : 	CHAREXTRA *ext;
; 109  : 	int pFlag = 0;

  00025	c7 45 bc 00 00
	00 00		 mov	 DWORD PTR _pFlag$[ebp], 0

; 110  : 	// ?h??
; 111  : 	// PC???????q??h??
; 112  : 	// PC?????h????V???????h??
; 113  : 	if( pc.ptAct != ptAct ){

  0002c	a1 ec 50 00 00	 mov	 eax, DWORD PTR ?pc@@3UPC@@A+20716
  00031	3b 45 08	 cmp	 eax, DWORD PTR _ptAct$[ebp]
  00034	0f 84 c6 01 00
	00		 je	 $LN5@charProc

; 114  : 		ext = (CHAREXTRA *)ptAct->pYobi;

  0003a	8b 45 08	 mov	 eax, DWORD PTR _ptAct$[ebp]
  0003d	8b 48 0c	 mov	 ecx, DWORD PTR [eax+12]
  00040	89 4d c8	 mov	 DWORD PTR _ext$[ebp], ecx

; 115  : 		no = ext->charObjTblId;

  00043	c6 85 c3 fe ff
	ff 01		 mov	 BYTE PTR $T1[ebp], 1
  0004a	8b 45 c8	 mov	 eax, DWORD PTR _ext$[ebp]
  0004d	8b 08		 mov	 ecx, DWORD PTR [eax]
  0004f	89 4d d4	 mov	 DWORD PTR _no$[ebp], ecx

; 116  : 		// ?????V??????????????
; 117  : 		if( (charObj[no].status & CHR_STATUS_PARTY) == 0 ){

  00052	80 bd c3 fe ff
	ff 00		 cmp	 BYTE PTR $T1[ebp], 0
  00059	75 0d		 jne	 SHORT $LN26@charProc
  0005b	68 00 00 00 00	 push	 OFFSET $LN27@charProc
  00060	e8 00 00 00 00	 call	 __RTC_UninitUse
  00065	83 c4 04	 add	 esp, 4
$LN26@charProc:
  00068	69 45 d4 0c 01
	00 00		 imul	 eax, DWORD PTR _no$[ebp], 268
  0006f	8b 88 2c 00 00
	00		 mov	 ecx, DWORD PTR ?charObj@@3PAUCHAROBJ@@A[eax+44]
  00075	81 e1 00 02 00
	00		 and	 ecx, 512		; 00000200H
  0007b	75 15		 jne	 SHORT $LN3@charProc

; 118  : 			charMove( ptAct );

  0007d	8b 45 08	 mov	 eax, DWORD PTR _ptAct$[ebp]
  00080	50		 push	 eax
  00081	e8 00 00 00 00	 call	 ?charMove@@YAXPAUaction@@@Z ; charMove
  00086	83 c4 04	 add	 esp, 4

; 119  : 			pFlag = 0;

  00089	c7 45 bc 00 00
	00 00		 mov	 DWORD PTR _pFlag$[ebp], 0

; 120  : 		}else

  00090	eb 07		 jmp	 SHORT $LN4@charProc
$LN3@charProc:

; 121  : 			pFlag = 1;

  00092	c7 45 bc 01 00
	00 00		 mov	 DWORD PTR _pFlag$[ebp], 1
$LN4@charProc:

; 122  : 		if( ptAct->vx == 0 && ptAct->vy == 0 && charObj[no].stockDir != -1
; 123  : 		 && charObj[no].stockDirX == ptAct->gx && charObj[no].stockDirY == ptAct->gy ){

  00099	8b 45 08	 mov	 eax, DWORD PTR _ptAct$[ebp]
  0009c	f3 0f 10 80 20
	01 00 00	 movss	 xmm0, DWORD PTR [eax+288]
  000a4	0f 2e 05 00 00
	00 00		 ucomiss xmm0, DWORD PTR __real@00000000
  000ab	9f		 lahf
  000ac	f6 c4 44	 test	 ah, 68			; 00000044H
  000af	0f 8a 4b 01 00
	00		 jp	 $LN5@charProc
  000b5	8b 45 08	 mov	 eax, DWORD PTR _ptAct$[ebp]
  000b8	f3 0f 10 80 24
	01 00 00	 movss	 xmm0, DWORD PTR [eax+292]
  000c0	0f 2e 05 00 00
	00 00		 ucomiss xmm0, DWORD PTR __real@00000000
  000c7	9f		 lahf
  000c8	f6 c4 44	 test	 ah, 68			; 00000044H
  000cb	0f 8a 2f 01 00
	00		 jp	 $LN5@charProc
  000d1	80 bd c3 fe ff
	ff 00		 cmp	 BYTE PTR $T1[ebp], 0
  000d8	75 0d		 jne	 SHORT $LN28@charProc
  000da	68 00 00 00 00	 push	 OFFSET $LN27@charProc
  000df	e8 00 00 00 00	 call	 __RTC_UninitUse
  000e4	83 c4 04	 add	 esp, 4
$LN28@charProc:
  000e7	69 45 d4 0c 01
	00 00		 imul	 eax, DWORD PTR _no$[ebp], 268
  000ee	83 b8 1c 00 00
	00 ff		 cmp	 DWORD PTR ?charObj@@3PAUCHAROBJ@@A[eax+28], -1
  000f5	0f 84 05 01 00
	00		 je	 $LN5@charProc
  000fb	80 bd c3 fe ff
	ff 00		 cmp	 BYTE PTR $T1[ebp], 0
  00102	75 0d		 jne	 SHORT $LN29@charProc
  00104	68 00 00 00 00	 push	 OFFSET $LN27@charProc
  00109	e8 00 00 00 00	 call	 __RTC_UninitUse
  0010e	83 c4 04	 add	 esp, 4
$LN29@charProc:
  00111	69 45 d4 0c 01
	00 00		 imul	 eax, DWORD PTR _no$[ebp], 268
  00118	8b 4d 08	 mov	 ecx, DWORD PTR _ptAct$[ebp]
  0011b	8b 90 20 00 00
	00		 mov	 edx, DWORD PTR ?charObj@@3PAUCHAROBJ@@A[eax+32]
  00121	3b 91 b4 00 00
	00		 cmp	 edx, DWORD PTR [ecx+180]
  00127	0f 85 d3 00 00
	00		 jne	 $LN5@charProc
  0012d	80 bd c3 fe ff
	ff 00		 cmp	 BYTE PTR $T1[ebp], 0
  00134	75 0d		 jne	 SHORT $LN30@charProc
  00136	68 00 00 00 00	 push	 OFFSET $LN27@charProc
  0013b	e8 00 00 00 00	 call	 __RTC_UninitUse
  00140	83 c4 04	 add	 esp, 4
$LN30@charProc:
  00143	69 45 d4 0c 01
	00 00		 imul	 eax, DWORD PTR _no$[ebp], 268
  0014a	8b 4d 08	 mov	 ecx, DWORD PTR _ptAct$[ebp]
  0014d	8b 90 24 00 00
	00		 mov	 edx, DWORD PTR ?charObj@@3PAUCHAROBJ@@A[eax+36]
  00153	3b 91 b8 00 00
	00		 cmp	 edx, DWORD PTR [ecx+184]
  00159	0f 85 a1 00 00
	00		 jne	 $LN5@charProc

; 124  : 			ptAct->anim_ang = charObj[no].stockDir;

  0015f	80 bd c3 fe ff
	ff 00		 cmp	 BYTE PTR $T1[ebp], 0
  00166	75 0d		 jne	 SHORT $LN31@charProc
  00168	68 00 00 00 00	 push	 OFFSET $LN27@charProc
  0016d	e8 00 00 00 00	 call	 __RTC_UninitUse
  00172	83 c4 04	 add	 esp, 4
$LN31@charProc:
  00175	69 45 d4 0c 01
	00 00		 imul	 eax, DWORD PTR _no$[ebp], 268
  0017c	8b 4d 08	 mov	 ecx, DWORD PTR _ptAct$[ebp]
  0017f	8b 90 1c 00 00
	00		 mov	 edx, DWORD PTR ?charObj@@3PAUCHAROBJ@@A[eax+28]
  00185	89 91 54 01 00
	00		 mov	 DWORD PTR [ecx+340], edx

; 125  : 			charObj[no].stockDir = -1;

  0018b	80 bd c3 fe ff
	ff 00		 cmp	 BYTE PTR $T1[ebp], 0
  00192	75 0d		 jne	 SHORT $LN32@charProc
  00194	68 00 00 00 00	 push	 OFFSET $LN27@charProc
  00199	e8 00 00 00 00	 call	 __RTC_UninitUse
  0019e	83 c4 04	 add	 esp, 4
$LN32@charProc:
  001a1	69 45 d4 0c 01
	00 00		 imul	 eax, DWORD PTR _no$[ebp], 268
  001a8	c7 80 1c 00 00
	00 ff ff ff ff	 mov	 DWORD PTR ?charObj@@3PAUCHAROBJ@@A[eax+28], -1

; 126  : 			charObj[no].stockDirX = 0;

  001b2	80 bd c3 fe ff
	ff 00		 cmp	 BYTE PTR $T1[ebp], 0
  001b9	75 0d		 jne	 SHORT $LN33@charProc
  001bb	68 00 00 00 00	 push	 OFFSET $LN27@charProc
  001c0	e8 00 00 00 00	 call	 __RTC_UninitUse
  001c5	83 c4 04	 add	 esp, 4
$LN33@charProc:
  001c8	69 45 d4 0c 01
	00 00		 imul	 eax, DWORD PTR _no$[ebp], 268
  001cf	c7 80 20 00 00
	00 00 00 00 00	 mov	 DWORD PTR ?charObj@@3PAUCHAROBJ@@A[eax+32], 0

; 127  : 			charObj[no].stockDirY = 0;

  001d9	80 bd c3 fe ff
	ff 00		 cmp	 BYTE PTR $T1[ebp], 0
  001e0	75 0d		 jne	 SHORT $LN34@charProc
  001e2	68 00 00 00 00	 push	 OFFSET $LN27@charProc
  001e7	e8 00 00 00 00	 call	 __RTC_UninitUse
  001ec	83 c4 04	 add	 esp, 4
$LN34@charProc:
  001ef	69 45 d4 0c 01
	00 00		 imul	 eax, DWORD PTR _no$[ebp], 268
  001f6	c7 80 24 00 00
	00 00 00 00 00	 mov	 DWORD PTR ?charObj@@3PAUCHAROBJ@@A[eax+36], 0
$LN5@charProc:

; 128  : 		}
; 129  : 	}
; 130  : 	camMapToGamen( ptAct->mx, ptAct->my, &mx, &my );

  00200	8d 45 ec	 lea	 eax, DWORD PTR _my$[ebp]
  00203	50		 push	 eax
  00204	8d 4d f8	 lea	 ecx, DWORD PTR _mx$[ebp]
  00207	51		 push	 ecx
  00208	8b 55 08	 mov	 edx, DWORD PTR _ptAct$[ebp]
  0020b	51		 push	 ecx
  0020c	f3 0f 10 82 1c
	01 00 00	 movss	 xmm0, DWORD PTR [edx+284]
  00214	f3 0f 11 04 24	 movss	 DWORD PTR [esp], xmm0
  00219	8b 45 08	 mov	 eax, DWORD PTR _ptAct$[ebp]
  0021c	51		 push	 ecx
  0021d	f3 0f 10 80 18
	01 00 00	 movss	 xmm0, DWORD PTR [eax+280]
  00225	f3 0f 11 04 24	 movss	 DWORD PTR [esp], xmm0
  0022a	e8 00 00 00 00	 call	 ?camMapToGamen@@YAXMMPAM0@Z ; camMapToGamen
  0022f	83 c4 10	 add	 esp, 16			; 00000010H

; 131  : 	
; 132  : 	ptAct->x = (int)(mx+.5);

  00232	f3 0f 5a 45 f8	 cvtss2sd xmm0, DWORD PTR _mx$[ebp]
  00237	f2 0f 58 05 00
	00 00 00	 addsd	 xmm0, QWORD PTR __real@3fe0000000000000
  0023f	f2 0f 2c c0	 cvttsd2si eax, xmm0
  00243	8b 4d 08	 mov	 ecx, DWORD PTR _ptAct$[ebp]
  00246	89 41 18	 mov	 DWORD PTR [ecx+24], eax

; 133  : 	ptAct->y = (int)(my+.5);

  00249	f3 0f 5a 45 ec	 cvtss2sd xmm0, DWORD PTR _my$[ebp]
  0024e	f2 0f 58 05 00
	00 00 00	 addsd	 xmm0, QWORD PTR __real@3fe0000000000000
  00256	f2 0f 2c c0	 cvttsd2si eax, xmm0
  0025a	8b 4d 08	 mov	 ecx, DWORD PTR _ptAct$[ebp]
  0025d	89 41 1c	 mov	 DWORD PTR [ecx+28], eax

; 134  : 
; 135  : #ifdef _NPC_PICTURE
; 136  : #endif
; 137  : 	drawCharStatus( ptAct );

  00260	8b 45 08	 mov	 eax, DWORD PTR _ptAct$[ebp]
  00263	50		 push	 eax
  00264	e8 00 00 00 00	 call	 ?drawCharStatus@@YAXPAUaction@@@Z ; drawCharStatus
  00269	83 c4 04	 add	 esp, 4

; 138  : 	// ?????????
; 139  : 	if( ptAct->anim_no == ANIM_HAND
; 140  : 	 || ptAct->anim_no == ANIM_HAPPY
; 141  : 	 || ptAct->anim_no == ANIM_ANGRY
; 142  : 	 || ptAct->anim_no == ANIM_SAD
; 143  : 	 || ptAct->anim_no == ANIM_WALK
; 144  : 	 || ptAct->anim_no == ANIM_STAND
; 145  : 	 || ptAct->anim_no == ANIM_NOD )

  0026c	8b 45 08	 mov	 eax, DWORD PTR _ptAct$[ebp]
  0026f	83 b8 4c 01 00
	00 06		 cmp	 DWORD PTR [eax+332], 6
  00276	74 48		 je	 SHORT $LN8@charProc
  00278	8b 45 08	 mov	 eax, DWORD PTR _ptAct$[ebp]
  0027b	83 b8 4c 01 00
	00 07		 cmp	 DWORD PTR [eax+332], 7
  00282	74 3c		 je	 SHORT $LN8@charProc
  00284	8b 45 08	 mov	 eax, DWORD PTR _ptAct$[ebp]
  00287	83 b8 4c 01 00
	00 08		 cmp	 DWORD PTR [eax+332], 8
  0028e	74 30		 je	 SHORT $LN8@charProc
  00290	8b 45 08	 mov	 eax, DWORD PTR _ptAct$[ebp]
  00293	83 b8 4c 01 00
	00 09		 cmp	 DWORD PTR [eax+332], 9
  0029a	74 24		 je	 SHORT $LN8@charProc
  0029c	8b 45 08	 mov	 eax, DWORD PTR _ptAct$[ebp]
  0029f	83 b8 4c 01 00
	00 04		 cmp	 DWORD PTR [eax+332], 4
  002a6	74 18		 je	 SHORT $LN8@charProc
  002a8	8b 45 08	 mov	 eax, DWORD PTR _ptAct$[ebp]
  002ab	83 b8 4c 01 00
	00 03		 cmp	 DWORD PTR [eax+332], 3
  002b2	74 0c		 je	 SHORT $LN8@charProc
  002b4	8b 45 08	 mov	 eax, DWORD PTR _ptAct$[ebp]
  002b7	83 b8 4c 01 00
	00 0b		 cmp	 DWORD PTR [eax+332], 11	; 0000000bH
  002be	75 09		 jne	 SHORT $LN6@charProc
$LN8@charProc:

; 146  : 		animLoop = ANM_LOOP;

  002c0	c7 45 e0 00 00
	00 00		 mov	 DWORD PTR _animLoop$[ebp], 0

; 147  : 	else

  002c7	eb 07		 jmp	 SHORT $LN7@charProc
$LN6@charProc:

; 148  : 		animLoop = ANM_NO_LOOP;

  002c9	c7 45 e0 01 00
	00 00		 mov	 DWORD PTR _animLoop$[ebp], 1
$LN7@charProc:

; 149  : 	pattern( ptAct, ANM_NOMAL_SPD, animLoop );

  002d0	8b 45 e0	 mov	 eax, DWORD PTR _animLoop$[ebp]
  002d3	50		 push	 eax
  002d4	6a 00		 push	 0
  002d6	8b 4d 08	 mov	 ecx, DWORD PTR _ptAct$[ebp]
  002d9	51		 push	 ecx
  002da	e8 00 00 00 00	 call	 ?pattern@@YAHPAUaction@@HH@Z ; pattern
  002df	83 c4 0c	 add	 esp, 12			; 0000000cH

; 150  : 	if( pFlag ){

  002e2	83 7d bc 00	 cmp	 DWORD PTR _pFlag$[ebp], 0
  002e6	74 48		 je	 SHORT $LN9@charProc

; 151  : 		if( nowSpdRate >= 1.2F )

  002e8	f3 0f 10 05 00
	00 00 00	 movss	 xmm0, DWORD PTR ?nowSpdRate@@3MA
  002f0	0f 2f 05 00 00
	00 00		 comiss	 xmm0, DWORD PTR __real@3f99999a
  002f7	72 12		 jb	 SHORT $LN11@charProc

; 152  : 			pattern( ptAct, ANM_NOMAL_SPD, animLoop );

  002f9	8b 45 e0	 mov	 eax, DWORD PTR _animLoop$[ebp]
  002fc	50		 push	 eax
  002fd	6a 00		 push	 0
  002ff	8b 4d 08	 mov	 ecx, DWORD PTR _ptAct$[ebp]
  00302	51		 push	 ecx
  00303	e8 00 00 00 00	 call	 ?pattern@@YAHPAUaction@@HH@Z ; pattern
  00308	83 c4 0c	 add	 esp, 12			; 0000000cH
$LN11@charProc:

; 153  : 		if( nowSpdRate >= 1.6F )

  0030b	f3 0f 10 05 00
	00 00 00	 movss	 xmm0, DWORD PTR ?nowSpdRate@@3MA
  00313	0f 2f 05 00 00
	00 00		 comiss	 xmm0, DWORD PTR __real@3fcccccd
  0031a	72 12		 jb	 SHORT $LN12@charProc

; 154  : 			pattern( ptAct, ANM_NOMAL_SPD, animLoop );

  0031c	8b 45 e0	 mov	 eax, DWORD PTR _animLoop$[ebp]
  0031f	50		 push	 eax
  00320	6a 00		 push	 0
  00322	8b 4d 08	 mov	 ecx, DWORD PTR _ptAct$[ebp]
  00325	51		 push	 ecx
  00326	e8 00 00 00 00	 call	 ?pattern@@YAHPAUaction@@HH@Z ; pattern
  0032b	83 c4 0c	 add	 esp, 12			; 0000000cH
$LN12@charProc:

; 155  : 	}else{

  0032e	eb 42		 jmp	 SHORT $LN14@charProc
$LN9@charProc:

; 156  : 		if( ptAct->bufCount >= 2 )

  00330	8b 45 08	 mov	 eax, DWORD PTR _ptAct$[ebp]
  00333	0f bf 88 14 01
	00 00		 movsx	 ecx, WORD PTR [eax+276]
  0033a	83 f9 02	 cmp	 ecx, 2
  0033d	7c 12		 jl	 SHORT $LN13@charProc

; 157  : 			pattern( ptAct, ANM_NOMAL_SPD, animLoop );

  0033f	8b 45 e0	 mov	 eax, DWORD PTR _animLoop$[ebp]
  00342	50		 push	 eax
  00343	6a 00		 push	 0
  00345	8b 4d 08	 mov	 ecx, DWORD PTR _ptAct$[ebp]
  00348	51		 push	 ecx
  00349	e8 00 00 00 00	 call	 ?pattern@@YAHPAUaction@@HH@Z ; pattern
  0034e	83 c4 0c	 add	 esp, 12			; 0000000cH
$LN13@charProc:

; 158  : 		if( ptAct->bufCount >= 4 )

  00351	8b 45 08	 mov	 eax, DWORD PTR _ptAct$[ebp]
  00354	0f bf 88 14 01
	00 00		 movsx	 ecx, WORD PTR [eax+276]
  0035b	83 f9 04	 cmp	 ecx, 4
  0035e	7c 12		 jl	 SHORT $LN14@charProc

; 159  : 			pattern( ptAct, ANM_NOMAL_SPD, animLoop );

  00360	8b 45 e0	 mov	 eax, DWORD PTR _animLoop$[ebp]
  00363	50		 push	 eax
  00364	6a 00		 push	 0
  00366	8b 4d 08	 mov	 ecx, DWORD PTR _ptAct$[ebp]
  00369	51		 push	 ecx
  0036a	e8 00 00 00 00	 call	 ?pattern@@YAHPAUaction@@HH@Z ; pattern
  0036f	83 c4 0c	 add	 esp, 12			; 0000000cH
$LN14@charProc:

; 160  : 	}
; 161  : 	if( pc.ptAct != ptAct ){

  00372	a1 ec 50 00 00	 mov	 eax, DWORD PTR ?pc@@3UPC@@A+20716
  00377	3b 45 08	 cmp	 eax, DWORD PTR _ptAct$[ebp]
  0037a	0f 84 e8 00 00
	00		 je	 $LN17@charProc

; 162  : 		if( charObj[no].newFoundFlag ){

  00380	80 bd c3 fe ff
	ff 00		 cmp	 BYTE PTR $T1[ebp], 0
  00387	75 0d		 jne	 SHORT $LN35@charProc
  00389	68 00 00 00 00	 push	 OFFSET $LN27@charProc
  0038e	e8 00 00 00 00	 call	 __RTC_UninitUse
  00393	83 c4 04	 add	 esp, 4
$LN35@charProc:
  00396	69 45 d4 0c 01
	00 00		 imul	 eax, DWORD PTR _no$[ebp], 268
  0039d	0f bf 88 b8 00
	00 00		 movsx	 ecx, WORD PTR ?charObj@@3PAUCHAROBJ@@A[eax+184]
  003a4	85 c9		 test	 ecx, ecx
  003a6	0f 84 bc 00 00
	00		 je	 $LN17@charProc

; 163  : 			S2 xx, yy, ww, hh;
; 164  : 			// ???????
; 165  : 			realGetPos( ptAct->bmpNo, &xx, &yy );

  003ac	8d 45 a4	 lea	 eax, DWORD PTR _yy$4[ebp]
  003af	50		 push	 eax
  003b0	8d 4d b0	 lea	 ecx, DWORD PTR _xx$5[ebp]
  003b3	51		 push	 ecx
  003b4	8b 55 08	 mov	 edx, DWORD PTR _ptAct$[ebp]
  003b7	8b 82 9c 00 00
	00		 mov	 eax, DWORD PTR [edx+156]
  003bd	50		 push	 eax
  003be	e8 00 00 00 00	 call	 ?realGetPos@@YAHKPAF0@Z	; realGetPos
  003c3	83 c4 0c	 add	 esp, 12			; 0000000cH

; 166  : 			realGetWH( ptAct->bmpNo, &ww, &hh );

  003c6	8d 45 8c	 lea	 eax, DWORD PTR _hh$2[ebp]
  003c9	50		 push	 eax
  003ca	8d 4d 98	 lea	 ecx, DWORD PTR _ww$3[ebp]
  003cd	51		 push	 ecx
  003ce	8b 55 08	 mov	 edx, DWORD PTR _ptAct$[ebp]
  003d1	8b 82 9c 00 00
	00		 mov	 eax, DWORD PTR [edx+156]
  003d7	50		 push	 eax
  003d8	e8 00 00 00 00	 call	 ?realGetWH@@YAHKPAF0@Z	; realGetWH
  003dd	83 c4 0c	 add	 esp, 12			; 0000000cH

; 167  : 			xx += ptAct->x;

  003e0	0f bf 45 b0	 movsx	 eax, WORD PTR _xx$5[ebp]
  003e4	8b 4d 08	 mov	 ecx, DWORD PTR _ptAct$[ebp]
  003e7	03 41 18	 add	 eax, DWORD PTR [ecx+24]
  003ea	66 89 45 b0	 mov	 WORD PTR _xx$5[ebp], ax

; 168  : 			yy += ptAct->y;

  003ee	0f bf 45 a4	 movsx	 eax, WORD PTR _yy$4[ebp]
  003f2	8b 4d 08	 mov	 ecx, DWORD PTR _ptAct$[ebp]
  003f5	03 41 1c	 add	 eax, DWORD PTR [ecx+28]
  003f8	66 89 45 a4	 mov	 WORD PTR _yy$4[ebp], ax

; 169  : 			if( 0 <= xx && xx+ww <= DEF_APPSIZEX
; 170  : 			 && 0 <= yy && yy+hh <= DEF_APPSIZEY ){

  003fc	0f bf 45 b0	 movsx	 eax, WORD PTR _xx$5[ebp]
  00400	85 c0		 test	 eax, eax
  00402	7c 64		 jl	 SHORT $LN17@charProc
  00404	0f bf 45 b0	 movsx	 eax, WORD PTR _xx$5[ebp]
  00408	0f bf 4d 98	 movsx	 ecx, WORD PTR _ww$3[ebp]
  0040c	03 c1		 add	 eax, ecx
  0040e	3b 05 00 00 00
	00		 cmp	 eax, DWORD PTR ?DEF_APPSIZEX@@3HA ; DEF_APPSIZEX
  00414	7f 52		 jg	 SHORT $LN17@charProc
  00416	0f bf 45 a4	 movsx	 eax, WORD PTR _yy$4[ebp]
  0041a	85 c0		 test	 eax, eax
  0041c	7c 4a		 jl	 SHORT $LN17@charProc
  0041e	0f bf 45 a4	 movsx	 eax, WORD PTR _yy$4[ebp]
  00422	0f bf 4d 8c	 movsx	 ecx, WORD PTR _hh$2[ebp]
  00426	03 c1		 add	 eax, ecx
  00428	3b 05 00 00 00
	00		 cmp	 eax, DWORD PTR ?DEF_APPSIZEY@@3HA ; DEF_APPSIZEY
  0042e	7f 38		 jg	 SHORT $LN17@charProc

; 171  : 				CheckNewPet( ptAct->anim_chr_no );

  00430	8b 45 08	 mov	 eax, DWORD PTR _ptAct$[ebp]
  00433	8b 88 44 01 00
	00		 mov	 ecx, DWORD PTR [eax+324]
  00439	51		 push	 ecx
  0043a	e8 00 00 00 00	 call	 ?CheckNewPet@@YAXH@Z	; CheckNewPet
  0043f	83 c4 04	 add	 esp, 4

; 172  : 				charObj[no].newFoundFlag = 0;

  00442	80 bd c3 fe ff
	ff 00		 cmp	 BYTE PTR $T1[ebp], 0
  00449	75 0d		 jne	 SHORT $LN36@charProc
  0044b	68 00 00 00 00	 push	 OFFSET $LN27@charProc
  00450	e8 00 00 00 00	 call	 __RTC_UninitUse
  00455	83 c4 04	 add	 esp, 4
$LN36@charProc:
  00458	69 45 d4 0c 01
	00 00		 imul	 eax, DWORD PTR _no$[ebp], 268
  0045f	33 c9		 xor	 ecx, ecx
  00461	66 89 88 b8 00
	00 00		 mov	 WORD PTR ?charObj@@3PAUCHAROBJ@@A[eax+184], cx
$LN17@charProc:

; 173  : 			}
; 174  : 		}
; 175  : 	}
; 176  : 	if( 20000 <= ptAct->anim_chr_no && ptAct->anim_chr_no <= 24999 ){

  00468	8b 45 08	 mov	 eax, DWORD PTR _ptAct$[ebp]
  0046b	81 b8 44 01 00
	00 20 4e 00 00	 cmp	 DWORD PTR [eax+324], 20000 ; 00004e20H
  00475	0f 8c 38 01 00
	00		 jl	 $LN18@charProc
  0047b	8b 45 08	 mov	 eax, DWORD PTR _ptAct$[ebp]
  0047e	81 b8 44 01 00
	00 a7 61 00 00	 cmp	 DWORD PTR [eax+324], 24999 ; 000061a7H
  00488	0f 8f 25 01 00
	00		 jg	 $LN18@charProc

; 177  : 		// ????
; 178  : 		if( pc.ptAct != ptAct ){

  0048e	a1 ec 50 00 00	 mov	 eax, DWORD PTR ?pc@@3UPC@@A+20716
  00493	3b 45 08	 cmp	 eax, DWORD PTR _ptAct$[ebp]
  00496	74 7d		 je	 SHORT $LN21@charProc

; 179  : 			// d??????????
; 180  : 			if( ptAct->gx < nowGx-16 || nowGx+16 < ptAct->gx
; 181  : 			 || ptAct->gy < nowGy-16 || nowGy+16 < ptAct->gy ){

  00498	a1 00 00 00 00	 mov	 eax, DWORD PTR ?nowGx@@3HA ; nowGx
  0049d	83 e8 10	 sub	 eax, 16			; 00000010H
  004a0	8b 4d 08	 mov	 ecx, DWORD PTR _ptAct$[ebp]
  004a3	39 81 b4 00 00
	00		 cmp	 DWORD PTR [ecx+180], eax
  004a9	7c 39		 jl	 SHORT $LN22@charProc
  004ab	a1 00 00 00 00	 mov	 eax, DWORD PTR ?nowGx@@3HA ; nowGx
  004b0	83 c0 10	 add	 eax, 16			; 00000010H
  004b3	8b 4d 08	 mov	 ecx, DWORD PTR _ptAct$[ebp]
  004b6	3b 81 b4 00 00
	00		 cmp	 eax, DWORD PTR [ecx+180]
  004bc	7c 26		 jl	 SHORT $LN22@charProc
  004be	a1 00 00 00 00	 mov	 eax, DWORD PTR ?nowGy@@3HA ; nowGy
  004c3	83 e8 10	 sub	 eax, 16			; 00000010H
  004c6	8b 4d 08	 mov	 ecx, DWORD PTR _ptAct$[ebp]
  004c9	39 81 b8 00 00
	00		 cmp	 DWORD PTR [ecx+184], eax
  004cf	7c 13		 jl	 SHORT $LN22@charProc
  004d1	a1 00 00 00 00	 mov	 eax, DWORD PTR ?nowGy@@3HA ; nowGy
  004d6	83 c0 10	 add	 eax, 16			; 00000010H
  004d9	8b 4d 08	 mov	 ecx, DWORD PTR _ptAct$[ebp]
  004dc	3b 81 b8 00 00
	00		 cmp	 eax, DWORD PTR [ecx+184]
  004e2	7d 31		 jge	 SHORT $LN21@charProc
$LN22@charProc:

; 182  : 				delCharObj( charObj[no].id );

  004e4	80 bd c3 fe ff
	ff 00		 cmp	 BYTE PTR $T1[ebp], 0
  004eb	75 0d		 jne	 SHORT $LN37@charProc
  004ed	68 00 00 00 00	 push	 OFFSET $LN27@charProc
  004f2	e8 00 00 00 00	 call	 __RTC_UninitUse
  004f7	83 c4 04	 add	 esp, 4
$LN37@charProc:
  004fa	69 45 d4 0c 01
	00 00		 imul	 eax, DWORD PTR _no$[ebp], 268
  00501	8b 88 04 00 00
	00		 mov	 ecx, DWORD PTR ?charObj@@3PAUCHAROBJ@@A[eax+4]
  00507	51		 push	 ecx
  00508	e8 00 00 00 00	 call	 ?delCharObj@@YAXH@Z	; delCharObj
  0050d	83 c4 04	 add	 esp, 4

; 183  : 				return;

  00510	e9 e4 00 00 00	 jmp	 $LN1@charProc
$LN21@charProc:

; 184  : 			}
; 185  : 		}
; 186  : 		// i??t????????
; 187  : 		if( !itemOverlapCheck( ptAct->bmpNo, ptAct->gx, ptAct->gy ) ){

  00515	8b 45 08	 mov	 eax, DWORD PTR _ptAct$[ebp]
  00518	8b 88 b8 00 00
	00		 mov	 ecx, DWORD PTR [eax+184]
  0051e	51		 push	 ecx
  0051f	8b 55 08	 mov	 edx, DWORD PTR _ptAct$[ebp]
  00522	8b 82 b4 00 00
	00		 mov	 eax, DWORD PTR [edx+180]
  00528	50		 push	 eax
  00529	8b 4d 08	 mov	 ecx, DWORD PTR _ptAct$[ebp]
  0052c	8b 91 9c 00 00
	00		 mov	 edx, DWORD PTR [ecx+156]
  00532	52		 push	 edx
  00533	e8 00 00 00 00	 call	 ?itemOverlapCheck@@YAHIHH@Z ; itemOverlapCheck
  00538	83 c4 0c	 add	 esp, 12			; 0000000cH
  0053b	85 c0		 test	 eax, eax
  0053d	75 5d		 jne	 SHORT $LN23@charProc

; 188  : 			// ??????????????
; 189  : 			setCharPrio( ptAct->bmpNo, ptAct->x, ptAct->y, 0, 0, ptAct->mx, ptAct->my );

  0053f	8b 45 08	 mov	 eax, DWORD PTR _ptAct$[ebp]
  00542	51		 push	 ecx
  00543	f3 0f 10 80 1c
	01 00 00	 movss	 xmm0, DWORD PTR [eax+284]
  0054b	f3 0f 11 04 24	 movss	 DWORD PTR [esp], xmm0
  00550	8b 4d 08	 mov	 ecx, DWORD PTR _ptAct$[ebp]
  00553	51		 push	 ecx
  00554	f3 0f 10 81 18
	01 00 00	 movss	 xmm0, DWORD PTR [ecx+280]
  0055c	f3 0f 11 04 24	 movss	 DWORD PTR [esp], xmm0
  00561	6a 00		 push	 0
  00563	6a 00		 push	 0
  00565	8b 55 08	 mov	 edx, DWORD PTR _ptAct$[ebp]
  00568	8b 42 1c	 mov	 eax, DWORD PTR [edx+28]
  0056b	50		 push	 eax
  0056c	8b 4d 08	 mov	 ecx, DWORD PTR _ptAct$[ebp]
  0056f	8b 51 18	 mov	 edx, DWORD PTR [ecx+24]
  00572	52		 push	 edx
  00573	8b 45 08	 mov	 eax, DWORD PTR _ptAct$[ebp]
  00576	8b 88 9c 00 00
	00		 mov	 ecx, DWORD PTR [eax+156]
  0057c	51		 push	 ecx
  0057d	e8 00 00 00 00	 call	 ?setCharPrio@@YAXHHHHHMM@Z ; setCharPrio
  00582	83 c4 1c	 add	 esp, 28			; 0000001cH

; 190  : 			ptAct->atr &= (~ACT_ATR_HIDE);

  00585	8b 45 08	 mov	 eax, DWORD PTR _ptAct$[ebp]
  00588	8b 88 a4 00 00
	00		 mov	 ecx, DWORD PTR [eax+164]
  0058e	83 e1 fd	 and	 ecx, -3			; fffffffdH
  00591	8b 55 08	 mov	 edx, DWORD PTR _ptAct$[ebp]
  00594	89 8a a4 00 00
	00		 mov	 DWORD PTR [edx+164], ecx

; 191  : 		}else

  0059a	eb 15		 jmp	 SHORT $LN24@charProc
$LN23@charProc:

; 192  : 			ptAct->atr |= ACT_ATR_HIDE;

  0059c	8b 45 08	 mov	 eax, DWORD PTR _ptAct$[ebp]
  0059f	8b 88 a4 00 00
	00		 mov	 ecx, DWORD PTR [eax+164]
  005a5	83 c9 02	 or	 ecx, 2
  005a8	8b 55 08	 mov	 edx, DWORD PTR _ptAct$[ebp]
  005ab	89 8a a4 00 00
	00		 mov	 DWORD PTR [edx+164], ecx
$LN24@charProc:

; 193  : 	}else{

  005b1	eb 46		 jmp	 SHORT $LN19@charProc
$LN18@charProc:

; 194  : 		// ????????
; 195  : 		// ??????????????
; 196  : 		setCharPrio( ptAct->bmpNo, ptAct->x, ptAct->y, 0, 0, ptAct->mx, ptAct->my );

  005b3	8b 45 08	 mov	 eax, DWORD PTR _ptAct$[ebp]
  005b6	51		 push	 ecx
  005b7	f3 0f 10 80 1c
	01 00 00	 movss	 xmm0, DWORD PTR [eax+284]
  005bf	f3 0f 11 04 24	 movss	 DWORD PTR [esp], xmm0
  005c4	8b 4d 08	 mov	 ecx, DWORD PTR _ptAct$[ebp]
  005c7	51		 push	 ecx
  005c8	f3 0f 10 81 18
	01 00 00	 movss	 xmm0, DWORD PTR [ecx+280]
  005d0	f3 0f 11 04 24	 movss	 DWORD PTR [esp], xmm0
  005d5	6a 00		 push	 0
  005d7	6a 00		 push	 0
  005d9	8b 55 08	 mov	 edx, DWORD PTR _ptAct$[ebp]
  005dc	8b 42 1c	 mov	 eax, DWORD PTR [edx+28]
  005df	50		 push	 eax
  005e0	8b 4d 08	 mov	 ecx, DWORD PTR _ptAct$[ebp]
  005e3	8b 51 18	 mov	 edx, DWORD PTR [ecx+24]
  005e6	52		 push	 edx
  005e7	8b 45 08	 mov	 eax, DWORD PTR _ptAct$[ebp]
  005ea	8b 88 9c 00 00
	00		 mov	 ecx, DWORD PTR [eax+156]
  005f0	51		 push	 ecx
  005f1	e8 00 00 00 00	 call	 ?setCharPrio@@YAXHHHHHMM@Z ; setCharPrio
  005f6	83 c4 1c	 add	 esp, 28			; 0000001cH
$LN19@charProc:
$LN1@charProc:

; 197  : 	}
; 198  : }

  005f9	52		 push	 edx
  005fa	8b cd		 mov	 ecx, ebp
  005fc	50		 push	 eax
  005fd	8d 15 00 00 00
	00		 lea	 edx, DWORD PTR $LN45@charProc
  00603	e8 00 00 00 00	 call	 @_RTC_CheckStackVars@8
  00608	58		 pop	 eax
  00609	5a		 pop	 edx
  0060a	5f		 pop	 edi
  0060b	5e		 pop	 esi
  0060c	5b		 pop	 ebx
  0060d	81 c4 44 01 00
	00		 add	 esp, 324		; 00000144H
  00613	3b ec		 cmp	 ebp, esp
  00615	e8 00 00 00 00	 call	 __RTC_CheckEsp
  0061a	8b e5		 mov	 esp, ebp
  0061c	5d		 pop	 ebp
  0061d	c3		 ret	 0
  0061e	66 90		 npad	 2
$LN45@charProc:
  00620	06 00 00 00	 DD	 6
  00624	00 00 00 00	 DD	 $LN44@charProc
$LN44@charProc:
  00628	f8 ff ff ff	 DD	 -8			; fffffff8H
  0062c	04 00 00 00	 DD	 4
  00630	00 00 00 00	 DD	 $LN38@charProc
  00634	ec ff ff ff	 DD	 -20			; ffffffecH
  00638	04 00 00 00	 DD	 4
  0063c	00 00 00 00	 DD	 $LN39@charProc
  00640	b0 ff ff ff	 DD	 -80			; ffffffb0H
  00644	02 00 00 00	 DD	 2
  00648	00 00 00 00	 DD	 $LN40@charProc
  0064c	a4 ff ff ff	 DD	 -92			; ffffffa4H
  00650	02 00 00 00	 DD	 2
  00654	00 00 00 00	 DD	 $LN41@charProc
  00658	98 ff ff ff	 DD	 -104			; ffffff98H
  0065c	02 00 00 00	 DD	 2
  00660	00 00 00 00	 DD	 $LN42@charProc
  00664	8c ff ff ff	 DD	 -116			; ffffff8cH
  00668	02 00 00 00	 DD	 2
  0066c	00 00 00 00	 DD	 $LN43@charProc
$LN43@charProc:
  00670	68		 DB	 104			; 00000068H
  00671	68		 DB	 104			; 00000068H
  00672	00		 DB	 0
$LN42@charProc:
  00673	77		 DB	 119			; 00000077H
  00674	77		 DB	 119			; 00000077H
  00675	00		 DB	 0
$LN41@charProc:
  00676	79		 DB	 121			; 00000079H
  00677	79		 DB	 121			; 00000079H
  00678	00		 DB	 0
$LN40@charProc:
  00679	78		 DB	 120			; 00000078H
  0067a	78		 DB	 120			; 00000078H
  0067b	00		 DB	 0
$LN39@charProc:
  0067c	6d		 DB	 109			; 0000006dH
  0067d	79		 DB	 121			; 00000079H
  0067e	00		 DB	 0
$LN38@charProc:
  0067f	6d		 DB	 109			; 0000006dH
  00680	78		 DB	 120			; 00000078H
  00681	00		 DB	 0
$LN27@charProc:
  00682	6e		 DB	 110			; 0000006eH
  00683	6f		 DB	 111			; 0000006fH
  00684	00		 DB	 0
?charProc@@YAXPAUaction@@@Z ENDP			; charProc
_TEXT	ENDS
; Function compile flags: /Odtp /RTCsu /ZI
; File c:\users\administrator\desktop\????? ??\????? ??\client source code\system\character.cpp
;	COMDAT ?ajustClientDir@@YAXPAF@Z
_TEXT	SEGMENT
_dir$ = 8						; size = 4
?ajustClientDir@@YAXPAF@Z PROC				; ajustClientDir, COMDAT

; 2846 : {

  00000	55		 push	 ebp
  00001	8b ec		 mov	 ebp, esp
  00003	81 ec c0 00 00
	00		 sub	 esp, 192		; 000000c0H
  00009	53		 push	 ebx
  0000a	56		 push	 esi
  0000b	57		 push	 edi
  0000c	8d bd 40 ff ff
	ff		 lea	 edi, DWORD PTR [ebp-192]
  00012	b9 30 00 00 00	 mov	 ecx, 48			; 00000030H
  00017	b8 cc cc cc cc	 mov	 eax, -858993460		; ccccccccH
  0001c	f3 ab		 rep stosd

; 2847 : 	if( *dir < 0 )

  0001e	8b 45 08	 mov	 eax, DWORD PTR _dir$[ebp]
  00021	0f bf 08	 movsx	 ecx, WORD PTR [eax]
  00024	85 c9		 test	 ecx, ecx
  00026	7d 1b		 jge	 SHORT $LN8@ajustClien
$LN4@ajustClien:

; 2848 : 	{
; 2849 : 		do
; 2850 : 		{
; 2851 : 			(*dir) += 8;

  00028	8b 45 08	 mov	 eax, DWORD PTR _dir$[ebp]
  0002b	0f bf 08	 movsx	 ecx, WORD PTR [eax]
  0002e	83 c1 08	 add	 ecx, 8
  00031	8b 55 08	 mov	 edx, DWORD PTR _dir$[ebp]
  00034	66 89 0a	 mov	 WORD PTR [edx], cx

; 2852 : 		} while( *dir < 0 );

  00037	8b 45 08	 mov	 eax, DWORD PTR _dir$[ebp]
  0003a	0f bf 08	 movsx	 ecx, WORD PTR [eax]
  0003d	85 c9		 test	 ecx, ecx
  0003f	7c e7		 jl	 SHORT $LN4@ajustClien

; 2853 : 	}
; 2854 : 	else

  00041	eb 25		 jmp	 SHORT $LN1@ajustClien
$LN8@ajustClien:

; 2855 : 	if( *dir > 7 )

  00043	8b 45 08	 mov	 eax, DWORD PTR _dir$[ebp]
  00046	0f bf 08	 movsx	 ecx, WORD PTR [eax]
  00049	83 f9 07	 cmp	 ecx, 7
  0004c	7e 1a		 jle	 SHORT $LN1@ajustClien
$LN7@ajustClien:

; 2856 : 	{
; 2857 : 		do
; 2858 : 		{
; 2859 : 			(*dir) -= 8;

  0004e	8b 45 08	 mov	 eax, DWORD PTR _dir$[ebp]
  00051	0f bf 08	 movsx	 ecx, WORD PTR [eax]
  00054	83 e9 08	 sub	 ecx, 8
  00057	8b 55 08	 mov	 edx, DWORD PTR _dir$[ebp]
  0005a	66 89 0a	 mov	 WORD PTR [edx], cx

; 2860 : 		} while( *dir > 7 );

  0005d	8b 45 08	 mov	 eax, DWORD PTR _dir$[ebp]
  00060	0f bf 08	 movsx	 ecx, WORD PTR [eax]
  00063	83 f9 07	 cmp	 ecx, 7
  00066	7f e6		 jg	 SHORT $LN7@ajustClien
$LN1@ajustClien:

; 2861 : 	}
; 2862 : }

  00068	5f		 pop	 edi
  00069	5e		 pop	 esi
  0006a	5b		 pop	 ebx
  0006b	8b e5		 mov	 esp, ebp
  0006d	5d		 pop	 ebp
  0006e	c3		 ret	 0
?ajustClientDir@@YAXPAF@Z ENDP				; ajustClientDir
_TEXT	ENDS
; Function compile flags: /Odtp /RTCsu /ZI
; File c:\users\administrator\desktop\????? ??\????? ??\client source code\system\character.cpp
;	COMDAT ?createPetAction@@YAPAUaction@@HHHHHHH@Z
_TEXT	SEGMENT
_pe$ = -44						; size = 4
_my$ = -32						; size = 4
_mx$ = -20						; size = 4
_ptAct$ = -8						; size = 4
_graNo$ = 8						; size = 4
_gx$ = 12						; size = 4
_gy$ = 16						; size = 4
_dir$ = 20						; size = 4
_mode$ = 24						; size = 4
_moveDir$ = 28						; size = 4
_id$ = 32						; size = 4
?createPetAction@@YAPAUaction@@HHHHHHH@Z PROC		; createPetAction, COMDAT

; 3207 : {

  00000	55		 push	 ebp
  00001	8b ec		 mov	 ebp, esp
  00003	81 ec f0 00 00
	00		 sub	 esp, 240		; 000000f0H
  00009	53		 push	 ebx
  0000a	56		 push	 esi
  0000b	57		 push	 edi
  0000c	8d bd 10 ff ff
	ff		 lea	 edi, DWORD PTR [ebp-240]
  00012	b9 3c 00 00 00	 mov	 ecx, 60			; 0000003cH
  00017	b8 cc cc cc cc	 mov	 eax, -858993460		; ccccccccH
  0001c	f3 ab		 rep stosd

; 3208 : 	ACTION *ptAct;
; 3209 : 	float mx, my;
; 3210 : 	PETEXTRA *pe;
; 3211 : 
; 3212 : 	/* ?????????K? */
; 3213 : 	ptAct = GetAction( PRIO_CHR, sizeof( PETEXTRA ) );

  0001e	6a 2c		 push	 44			; 0000002cH
  00020	6a 01		 push	 1
  00022	e8 00 00 00 00	 call	 ?GetAction@@YAPAUaction@@EI@Z ; GetAction
  00027	83 c4 08	 add	 esp, 8
  0002a	89 45 f8	 mov	 DWORD PTR _ptAct$[ebp], eax

; 3214 : 	if( ptAct == NULL )

  0002d	83 7d f8 00	 cmp	 DWORD PTR _ptAct$[ebp], 0
  00031	75 07		 jne	 SHORT $LN2@createPetA

; 3215 : 		return NULL;

  00033	33 c0		 xor	 eax, eax
  00035	e9 cb 01 00 00	 jmp	 $LN1@createPetA
$LN2@createPetA:

; 3216 : 
; 3217 : 	// ???
; 3218 : 	ptAct->func = petProc;

  0003a	8b 45 f8	 mov	 eax, DWORD PTR _ptAct$[ebp]
  0003d	c7 40 08 00 00
	00 00		 mov	 DWORD PTR [eax+8], OFFSET ?petProc@@YAXPAUaction@@@Z ; petProc

; 3219 : 	// ???????k?
; 3220 : 	ptAct->anim_chr_no = graNo;

  00044	8b 45 f8	 mov	 eax, DWORD PTR _ptAct$[ebp]
  00047	8b 4d 08	 mov	 ecx, DWORD PTR _graNo$[ebp]
  0004a	89 88 44 01 00
	00		 mov	 DWORD PTR [eax+324], ecx

; 3221 : 	// h?k?
; 3222 : 	ptAct->anim_no = ANIM_STAND;

  00050	8b 45 f8	 mov	 eax, DWORD PTR _ptAct$[ebp]
  00053	c7 80 4c 01 00
	00 03 00 00 00	 mov	 DWORD PTR [eax+332], 3

; 3223 : 	// ?????????( ??? )( ??????? )
; 3224 : 	ptAct->anim_ang = dir;

  0005d	8b 45 f8	 mov	 eax, DWORD PTR _ptAct$[ebp]
  00060	8b 4d 14	 mov	 ecx, DWORD PTR _dir$[ebp]
  00063	89 88 54 01 00
	00		 mov	 DWORD PTR [eax+340], ecx

; 3225 : 	// ?IT
; 3226 : 	ptAct->dispPrio = DISP_PRIO_CHAR;

  00069	8b 45 f8	 mov	 eax, DWORD PTR _ptAct$[ebp]
  0006c	c6 40 15 0a	 mov	 BYTE PTR [eax+21], 10	; 0000000aH

; 3227 : 	// 1????????
; 3228 : 	ptAct->atr = ACT_ATR_INFO |	ACT_ATR_HIT | ACT_ATR_HIDE2;

  00070	8b 45 f8	 mov	 eax, DWORD PTR _ptAct$[ebp]
  00073	c7 80 a4 00 00
	00 34 00 00 00	 mov	 DWORD PTR [eax+164], 52	; 00000034H

; 3229 : 	// ???t
; 3230 : 	ptAct->nextGx = gx;					// ??????????hI?

  0007d	8b 45 f8	 mov	 eax, DWORD PTR _ptAct$[ebp]
  00080	8b 4d 0c	 mov	 ecx, DWORD PTR _gx$[ebp]
  00083	89 88 bc 00 00
	00		 mov	 DWORD PTR [eax+188], ecx

; 3231 : 	ptAct->nextGy = gy;

  00089	8b 45 f8	 mov	 eax, DWORD PTR _ptAct$[ebp]
  0008c	8b 4d 10	 mov	 ecx, DWORD PTR _gy$[ebp]
  0008f	89 88 c0 00 00
	00		 mov	 DWORD PTR [eax+192], ecx

; 3232 : 	ptAct->bufCount = 0;

  00095	33 c0		 xor	 eax, eax
  00097	8b 4d f8	 mov	 ecx, DWORD PTR _ptAct$[ebp]
  0009a	66 89 81 14 01
	00 00		 mov	 WORD PTR [ecx+276], ax

; 3233 : 	ptAct->gx = gx;						// ????????????

  000a1	8b 45 f8	 mov	 eax, DWORD PTR _ptAct$[ebp]
  000a4	8b 4d 0c	 mov	 ecx, DWORD PTR _gx$[ebp]
  000a7	89 88 b4 00 00
	00		 mov	 DWORD PTR [eax+180], ecx

; 3234 : 	ptAct->gy = gy;

  000ad	8b 45 f8	 mov	 eax, DWORD PTR _ptAct$[ebp]
  000b0	8b 4d 10	 mov	 ecx, DWORD PTR _gy$[ebp]
  000b3	89 88 b8 00 00
	00		 mov	 DWORD PTR [eax+184], ecx

; 3235 : 	ptAct->mx = (float)gx * GRID_SIZE;	// ????

  000b9	f3 0f 2a 45 0c	 cvtsi2ss xmm0, DWORD PTR _gx$[ebp]
  000be	f3 0f 59 05 00
	00 00 00	 mulss	 xmm0, DWORD PTR __real@42800000
  000c6	8b 45 f8	 mov	 eax, DWORD PTR _ptAct$[ebp]
  000c9	f3 0f 11 80 18
	01 00 00	 movss	 DWORD PTR [eax+280], xmm0

; 3236 : 	ptAct->my = (float)gy * GRID_SIZE;

  000d1	f3 0f 2a 45 10	 cvtsi2ss xmm0, DWORD PTR _gy$[ebp]
  000d6	f3 0f 59 05 00
	00 00 00	 mulss	 xmm0, DWORD PTR __real@42800000
  000de	8b 45 f8	 mov	 eax, DWORD PTR _ptAct$[ebp]
  000e1	f3 0f 11 80 1c
	01 00 00	 movss	 DWORD PTR [eax+284], xmm0

; 3237 : 	ptAct->vx = 0;						// ?h?

  000e9	8b 45 f8	 mov	 eax, DWORD PTR _ptAct$[ebp]
  000ec	0f 57 c0	 xorps	 xmm0, xmm0
  000ef	f3 0f 11 80 20
	01 00 00	 movss	 DWORD PTR [eax+288], xmm0

; 3238 : 	ptAct->vy = 0;

  000f7	8b 45 f8	 mov	 eax, DWORD PTR _ptAct$[ebp]
  000fa	0f 57 c0	 xorps	 xmm0, xmm0
  000fd	f3 0f 11 80 24
	01 00 00	 movss	 DWORD PTR [eax+292], xmm0

; 3239 : 
; 3240 : 	// ??t
; 3241 : 	camMapToGamen( ptAct->mx, ptAct->my, &mx, &my );

  00105	8d 45 e0	 lea	 eax, DWORD PTR _my$[ebp]
  00108	50		 push	 eax
  00109	8d 4d ec	 lea	 ecx, DWORD PTR _mx$[ebp]
  0010c	51		 push	 ecx
  0010d	8b 55 f8	 mov	 edx, DWORD PTR _ptAct$[ebp]
  00110	51		 push	 ecx
  00111	f3 0f 10 82 1c
	01 00 00	 movss	 xmm0, DWORD PTR [edx+284]
  00119	f3 0f 11 04 24	 movss	 DWORD PTR [esp], xmm0
  0011e	8b 45 f8	 mov	 eax, DWORD PTR _ptAct$[ebp]
  00121	51		 push	 ecx
  00122	f3 0f 10 80 18
	01 00 00	 movss	 xmm0, DWORD PTR [eax+280]
  0012a	f3 0f 11 04 24	 movss	 DWORD PTR [esp], xmm0
  0012f	e8 00 00 00 00	 call	 ?camMapToGamen@@YAXMMPAM0@Z ; camMapToGamen
  00134	83 c4 10	 add	 esp, 16			; 00000010H

; 3242 : 	ptAct->x = (int)(mx+.5);

  00137	f3 0f 5a 45 ec	 cvtss2sd xmm0, DWORD PTR _mx$[ebp]
  0013c	f2 0f 58 05 00
	00 00 00	 addsd	 xmm0, QWORD PTR __real@3fe0000000000000
  00144	f2 0f 2c c0	 cvttsd2si eax, xmm0
  00148	8b 4d f8	 mov	 ecx, DWORD PTR _ptAct$[ebp]
  0014b	89 41 18	 mov	 DWORD PTR [ecx+24], eax

; 3243 : 	ptAct->y = (int)(my+.5);

  0014e	f3 0f 5a 45 e0	 cvtss2sd xmm0, DWORD PTR _my$[ebp]
  00153	f2 0f 58 05 00
	00 00 00	 addsd	 xmm0, QWORD PTR __real@3fe0000000000000
  0015b	f2 0f 2c c0	 cvttsd2si eax, xmm0
  0015f	8b 4d f8	 mov	 ecx, DWORD PTR _ptAct$[ebp]
  00162	89 41 1c	 mov	 DWORD PTR [ecx+28], eax

; 3244 : 
; 3245 : 	pe = (PETEXTRA *)ptAct->pYobi;

  00165	8b 45 f8	 mov	 eax, DWORD PTR _ptAct$[ebp]
  00168	8b 48 0c	 mov	 ecx, DWORD PTR [eax+12]
  0016b	89 4d d4	 mov	 DWORD PTR _pe$[ebp], ecx

; 3246 : 	pe->mode = mode;

  0016e	8b 45 d4	 mov	 eax, DWORD PTR _pe$[ebp]
  00171	66 8b 4d 18	 mov	 cx, WORD PTR _mode$[ebp]
  00175	66 89 08	 mov	 WORD PTR [eax], cx

; 3247 : 	pe->moveDir = moveDir;

  00178	8b 45 d4	 mov	 eax, DWORD PTR _pe$[ebp]
  0017b	66 8b 4d 1c	 mov	 cx, WORD PTR _moveDir$[ebp]
  0017f	66 89 48 02	 mov	 WORD PTR [eax+2], cx

; 3248 : 	limitCantClientDir( &pe->moveDir );

  00183	8b 45 d4	 mov	 eax, DWORD PTR _pe$[ebp]
  00186	83 c0 02	 add	 eax, 2
  00189	50		 push	 eax
  0018a	e8 00 00 00 00	 call	 ?limitCantClientDir@@YAXPAF@Z ; limitCantClientDir
  0018f	83 c4 04	 add	 esp, 4

; 3249 : 	pe->preDir = pe->moveDir;

  00192	8b 45 d4	 mov	 eax, DWORD PTR _pe$[ebp]
  00195	8b 4d d4	 mov	 ecx, DWORD PTR _pe$[ebp]
  00198	66 8b 51 02	 mov	 dx, WORD PTR [ecx+2]
  0019c	66 89 50 04	 mov	 WORD PTR [eax+4], dx

; 3250 : 	pe->dirCnt = 0;

  001a0	33 c0		 xor	 eax, eax
  001a2	8b 4d d4	 mov	 ecx, DWORD PTR _pe$[ebp]
  001a5	66 89 41 06	 mov	 WORD PTR [ecx+6], ax

; 3251 : 	pe->preGx = gx;

  001a9	8b 45 d4	 mov	 eax, DWORD PTR _pe$[ebp]
  001ac	8b 4d 0c	 mov	 ecx, DWORD PTR _gx$[ebp]
  001af	89 48 08	 mov	 DWORD PTR [eax+8], ecx

; 3252 : 	pe->preGy = gy;

  001b2	8b 45 d4	 mov	 eax, DWORD PTR _pe$[ebp]
  001b5	8b 4d 10	 mov	 ecx, DWORD PTR _gy$[ebp]
  001b8	89 48 0c	 mov	 DWORD PTR [eax+12], ecx

; 3253 : 	pe->walkCnt = 0;

  001bb	8b 45 d4	 mov	 eax, DWORD PTR _pe$[ebp]
  001be	c7 40 10 00 00
	00 00		 mov	 DWORD PTR [eax+16], 0

; 3254 : 	pe->createTime = TimeGetTime();

  001c5	e8 00 00 00 00	 call	 ?TimeGetTime@@YAIXZ	; TimeGetTime
  001ca	8b 4d d4	 mov	 ecx, DWORD PTR _pe$[ebp]
  001cd	89 41 14	 mov	 DWORD PTR [ecx+20], eax

; 3255 : 	pe->ptAct  = NULL;

  001d0	8b 45 d4	 mov	 eax, DWORD PTR _pe$[ebp]
  001d3	c7 40 18 00 00
	00 00		 mov	 DWORD PTR [eax+24], 0

; 3256 : 	pe->ptAct2 = NULL;

  001da	8b 45 d4	 mov	 eax, DWORD PTR _pe$[ebp]
  001dd	c7 40 1c 00 00
	00 00		 mov	 DWORD PTR [eax+28], 0

; 3257 : 	pe->angle = 0.0F;

  001e4	8b 45 d4	 mov	 eax, DWORD PTR _pe$[ebp]
  001e7	0f 57 c0	 xorps	 xmm0, xmm0
  001ea	f3 0f 11 40 20	 movss	 DWORD PTR [eax+32], xmm0

; 3258 : 	pe->r = 0;

  001ef	8b 45 d4	 mov	 eax, DWORD PTR _pe$[ebp]
  001f2	c7 40 24 00 00
	00 00		 mov	 DWORD PTR [eax+36], 0

; 3259 : 
; 3260 : 	pe->id = id;

  001f9	8b 45 d4	 mov	 eax, DWORD PTR _pe$[ebp]
  001fc	8b 4d 20	 mov	 ecx, DWORD PTR _id$[ebp]
  001ff	89 48 28	 mov	 DWORD PTR [eax+40], ecx

; 3261 : 
; 3262 : 	return ptAct;

  00202	8b 45 f8	 mov	 eax, DWORD PTR _ptAct$[ebp]
$LN1@createPetA:

; 3263 : }

  00205	52		 push	 edx
  00206	8b cd		 mov	 ecx, ebp
  00208	50		 push	 eax
  00209	8d 15 00 00 00
	00		 lea	 edx, DWORD PTR $LN7@createPetA
  0020f	e8 00 00 00 00	 call	 @_RTC_CheckStackVars@8
  00214	58		 pop	 eax
  00215	5a		 pop	 edx
  00216	5f		 pop	 edi
  00217	5e		 pop	 esi
  00218	5b		 pop	 ebx
  00219	81 c4 f0 00 00
	00		 add	 esp, 240		; 000000f0H
  0021f	3b ec		 cmp	 ebp, esp
  00221	e8 00 00 00 00	 call	 __RTC_CheckEsp
  00226	8b e5		 mov	 esp, ebp
  00228	5d		 pop	 ebp
  00229	c3		 ret	 0
  0022a	66 90		 npad	 2
$LN7@createPetA:
  0022c	02 00 00 00	 DD	 2
  00230	00 00 00 00	 DD	 $LN6@createPetA
$LN6@createPetA:
  00234	ec ff ff ff	 DD	 -20			; ffffffecH
  00238	04 00 00 00	 DD	 4
  0023c	00 00 00 00	 DD	 $LN4@createPetA
  00240	e0 ff ff ff	 DD	 -32			; ffffffe0H
  00244	04 00 00 00	 DD	 4
  00248	00 00 00 00	 DD	 $LN5@createPetA
$LN5@createPetA:
  0024c	6d		 DB	 109			; 0000006dH
  0024d	79		 DB	 121			; 00000079H
  0024e	00		 DB	 0
$LN4@createPetA:
  0024f	6d		 DB	 109			; 0000006dH
  00250	78		 DB	 120			; 00000078H
  00251	00		 DB	 0
?createPetAction@@YAPAUaction@@HHHHHHH@Z ENDP		; createPetAction
_TEXT	ENDS
; Function compile flags: /Odtp /RTCsu /ZI
; File c:\users\administrator\desktop\????? ??\????? ??\client source code\system\character.cpp
;	COMDAT ?itemOverlapCheck@@YAHIHH@Z
_TEXT	SEGMENT
_flag$ = -20						; size = 4
_i$ = -8						; size = 4
_bmpNo$ = 8						; size = 4
_gx$ = 12						; size = 4
_gy$ = 16						; size = 4
?itemOverlapCheck@@YAHIHH@Z PROC			; itemOverlapCheck, COMDAT

; 2803 : {

  00000	55		 push	 ebp
  00001	8b ec		 mov	 ebp, esp
  00003	81 ec d8 00 00
	00		 sub	 esp, 216		; 000000d8H
  00009	53		 push	 ebx
  0000a	56		 push	 esi
  0000b	57		 push	 edi
  0000c	8d bd 28 ff ff
	ff		 lea	 edi, DWORD PTR [ebp-216]
  00012	b9 36 00 00 00	 mov	 ecx, 54			; 00000036H
  00017	b8 cc cc cc cc	 mov	 eax, -858993460		; ccccccccH
  0001c	f3 ab		 rep stosd

; 2804 : 	int i;
; 2805 : 	BOOL flag = FALSE;

  0001e	c7 45 ec 00 00
	00 00		 mov	 DWORD PTR _flag$[ebp], 0

; 2806 : 	for( i = 0; i < itemOverlapCheckCnt; i++ ){

  00025	c7 45 f8 00 00
	00 00		 mov	 DWORD PTR _i$[ebp], 0
  0002c	eb 09		 jmp	 SHORT $LN4@itemOverla
$LN2@itemOverla:
  0002e	8b 45 f8	 mov	 eax, DWORD PTR _i$[ebp]
  00031	83 c0 01	 add	 eax, 1
  00034	89 45 f8	 mov	 DWORD PTR _i$[ebp], eax
$LN4@itemOverla:
  00037	8b 45 f8	 mov	 eax, DWORD PTR _i$[ebp]
  0003a	3b 05 00 00 00
	00		 cmp	 eax, DWORD PTR ?itemOverlapCheckCnt@@3HA ; itemOverlapCheckCnt
  00040	7d 38		 jge	 SHORT $LN3@itemOverla

; 2807 : 		if( itemOverlapTbl[i].bmpNo == bmpNo
; 2808 : 		 && itemOverlapTbl[i].gx == gx
; 2809 : 		 && itemOverlapTbl[i].gy == gy ){

  00042	6b 45 f8 0c	 imul	 eax, DWORD PTR _i$[ebp], 12
  00046	8b 88 00 00 00
	00		 mov	 ecx, DWORD PTR ?itemOverlapTbl@@3PAUITEM_OVERLAP_CHECK@@A[eax]
  0004c	3b 4d 08	 cmp	 ecx, DWORD PTR _bmpNo$[ebp]
  0004f	75 27		 jne	 SHORT $LN5@itemOverla
  00051	6b 45 f8 0c	 imul	 eax, DWORD PTR _i$[ebp], 12
  00055	8b 88 04 00 00
	00		 mov	 ecx, DWORD PTR ?itemOverlapTbl@@3PAUITEM_OVERLAP_CHECK@@A[eax+4]
  0005b	3b 4d 0c	 cmp	 ecx, DWORD PTR _gx$[ebp]
  0005e	75 18		 jne	 SHORT $LN5@itemOverla
  00060	6b 45 f8 0c	 imul	 eax, DWORD PTR _i$[ebp], 12
  00064	8b 88 08 00 00
	00		 mov	 ecx, DWORD PTR ?itemOverlapTbl@@3PAUITEM_OVERLAP_CHECK@@A[eax+8]
  0006a	3b 4d 10	 cmp	 ecx, DWORD PTR _gy$[ebp]
  0006d	75 09		 jne	 SHORT $LN5@itemOverla

; 2810 : 			flag = TRUE;

  0006f	c7 45 ec 01 00
	00 00		 mov	 DWORD PTR _flag$[ebp], 1

; 2811 : 			break;

  00076	eb 02		 jmp	 SHORT $LN3@itemOverla
$LN5@itemOverla:

; 2812 : 		}
; 2813 : 	}

  00078	eb b4		 jmp	 SHORT $LN2@itemOverla
$LN3@itemOverla:

; 2814 : 	if( !flag ){

  0007a	83 7d ec 00	 cmp	 DWORD PTR _flag$[ebp], 0
  0007e	75 46		 jne	 SHORT $LN6@itemOverla

; 2815 : 		if( itemOverlapCheckCnt < MAX_ITEM_OVERLAP ){

  00080	83 3d 00 00 00
	00 64		 cmp	 DWORD PTR ?itemOverlapCheckCnt@@3HA, 100 ; itemOverlapCheckCnt, 00000064H
  00087	7d 3d		 jge	 SHORT $LN6@itemOverla

; 2816 : 			itemOverlapTbl[itemOverlapCheckCnt].bmpNo = bmpNo;

  00089	6b 05 00 00 00
	00 0c		 imul	 eax, DWORD PTR ?itemOverlapCheckCnt@@3HA, 12 ; itemOverlapCheckCnt
  00090	8b 4d 08	 mov	 ecx, DWORD PTR _bmpNo$[ebp]
  00093	89 88 00 00 00
	00		 mov	 DWORD PTR ?itemOverlapTbl@@3PAUITEM_OVERLAP_CHECK@@A[eax], ecx

; 2817 : 			itemOverlapTbl[itemOverlapCheckCnt].gx    = gx;

  00099	6b 05 00 00 00
	00 0c		 imul	 eax, DWORD PTR ?itemOverlapCheckCnt@@3HA, 12 ; itemOverlapCheckCnt
  000a0	8b 4d 0c	 mov	 ecx, DWORD PTR _gx$[ebp]
  000a3	89 88 04 00 00
	00		 mov	 DWORD PTR ?itemOverlapTbl@@3PAUITEM_OVERLAP_CHECK@@A[eax+4], ecx

; 2818 : 			itemOverlapTbl[itemOverlapCheckCnt].gy    = gy;

  000a9	6b 05 00 00 00
	00 0c		 imul	 eax, DWORD PTR ?itemOverlapCheckCnt@@3HA, 12 ; itemOverlapCheckCnt
  000b0	8b 4d 10	 mov	 ecx, DWORD PTR _gy$[ebp]
  000b3	89 88 08 00 00
	00		 mov	 DWORD PTR ?itemOverlapTbl@@3PAUITEM_OVERLAP_CHECK@@A[eax+8], ecx

; 2819 : 			itemOverlapCheckCnt++;

  000b9	a1 00 00 00 00	 mov	 eax, DWORD PTR ?itemOverlapCheckCnt@@3HA ; itemOverlapCheckCnt
  000be	83 c0 01	 add	 eax, 1
  000c1	a3 00 00 00 00	 mov	 DWORD PTR ?itemOverlapCheckCnt@@3HA, eax ; itemOverlapCheckCnt
$LN6@itemOverla:

; 2820 : 		}
; 2821 : 	}
; 2822 : 	return flag;

  000c6	8b 45 ec	 mov	 eax, DWORD PTR _flag$[ebp]

; 2823 : }

  000c9	5f		 pop	 edi
  000ca	5e		 pop	 esi
  000cb	5b		 pop	 ebx
  000cc	8b e5		 mov	 esp, ebp
  000ce	5d		 pop	 ebp
  000cf	c3		 ret	 0
?itemOverlapCheck@@YAHIHH@Z ENDP			; itemOverlapCheck
_TEXT	ENDS
; Function compile flags: /Odtp /RTCsu /ZI
; File c:\users\administrator\desktop\????? ??\????? ??\client source code\system\character.cpp
;	COMDAT ?initItemOverlapCheck@@YAXXZ
_TEXT	SEGMENT
?initItemOverlapCheck@@YAXXZ PROC			; initItemOverlapCheck, COMDAT

; 2795 : {

  00000	55		 push	 ebp
  00001	8b ec		 mov	 ebp, esp
  00003	81 ec c0 00 00
	00		 sub	 esp, 192		; 000000c0H
  00009	53		 push	 ebx
  0000a	56		 push	 esi
  0000b	57		 push	 edi
  0000c	8d bd 40 ff ff
	ff		 lea	 edi, DWORD PTR [ebp-192]
  00012	b9 30 00 00 00	 mov	 ecx, 48			; 00000030H
  00017	b8 cc cc cc cc	 mov	 eax, -858993460		; ccccccccH
  0001c	f3 ab		 rep stosd

; 2796 : 	itemOverlapCheckCnt = 0;

  0001e	c7 05 00 00 00
	00 00 00 00 00	 mov	 DWORD PTR ?itemOverlapCheckCnt@@3HA, 0 ; itemOverlapCheckCnt

; 2797 : }

  00028	5f		 pop	 edi
  00029	5e		 pop	 esi
  0002a	5b		 pop	 ebx
  0002b	8b e5		 mov	 esp, ebp
  0002d	5d		 pop	 ebp
  0002e	c3		 ret	 0
?initItemOverlapCheck@@YAXXZ ENDP			; initItemOverlapCheck
_TEXT	ENDS
; Function compile flags: /Odtp /RTCsu /ZI
; File c:\users\administrator\desktop\????? ??\????? ??\client source code\system\character.cpp
;	COMDAT ?getCharObjBuf@@YAHXZ
_TEXT	SEGMENT
_ret$ = -20						; size = 4
_i$ = -8						; size = 4
?getCharObjBuf@@YAHXZ PROC				; getCharObjBuf, COMDAT

; 2346 : {

  00000	55		 push	 ebp
  00001	8b ec		 mov	 ebp, esp
  00003	81 ec d8 00 00
	00		 sub	 esp, 216		; 000000d8H
  00009	53		 push	 ebx
  0000a	56		 push	 esi
  0000b	57		 push	 edi
  0000c	8d bd 28 ff ff
	ff		 lea	 edi, DWORD PTR [ebp-216]
  00012	b9 36 00 00 00	 mov	 ecx, 54			; 00000036H
  00017	b8 cc cc cc cc	 mov	 eax, -858993460		; ccccccccH
  0001c	f3 ab		 rep stosd

; 2347 : 	int i;
; 2348 : 	int ret;
; 2349 : 	// ????????????
; 2350 : 	if( maxCharObj >= MAX_CHAROBJ )

  0001e	81 3d 00 00 00
	00 dc 05 00 00	 cmp	 DWORD PTR ?maxCharObj@@3HA, 1500 ; maxCharObj, 000005dcH
  00028	7c 08		 jl	 SHORT $LN8@getCharObj

; 2351 : 		return -1;

  0002a	83 c8 ff	 or	 eax, -1
  0002d	e9 bf 00 00 00	 jmp	 $LN1@getCharObj
$LN8@getCharObj:

; 2352 : 	ret = freeCharObj;

  00032	a1 00 00 00 00	 mov	 eax, DWORD PTR ?freeCharObj@@3HA ; freeCharObj
  00037	89 45 ec	 mov	 DWORD PTR _ret$[ebp], eax

; 2353 : 	// D?????k?
; 2354 : 	maxCharObj++;

  0003a	a1 00 00 00 00	 mov	 eax, DWORD PTR ?maxCharObj@@3HA ; maxCharObj
  0003f	83 c0 01	 add	 eax, 1
  00042	a3 00 00 00 00	 mov	 DWORD PTR ?maxCharObj@@3HA, eax ; maxCharObj

; 2355 : 	// ???K??t
; 2356 : 	if( freeCharObj+1 > tailCharObj )

  00047	a1 00 00 00 00	 mov	 eax, DWORD PTR ?freeCharObj@@3HA ; freeCharObj
  0004c	83 c0 01	 add	 eax, 1
  0004f	3b 05 00 00 00
	00		 cmp	 eax, DWORD PTR ?tailCharObj@@3HA ; tailCharObj
  00055	7e 0d		 jle	 SHORT $LN9@getCharObj

; 2357 : 		tailCharObj = freeCharObj+1;

  00057	a1 00 00 00 00	 mov	 eax, DWORD PTR ?freeCharObj@@3HA ; freeCharObj
  0005c	83 c0 01	 add	 eax, 1
  0005f	a3 00 00 00 00	 mov	 DWORD PTR ?tailCharObj@@3HA, eax ; tailCharObj
$LN9@getCharObj:

; 2358 : 	// ???????????
; 2359 : 	for( i = freeCharObj+1; i < MAX_CHAROBJ; i++ ){

  00064	a1 00 00 00 00	 mov	 eax, DWORD PTR ?freeCharObj@@3HA ; freeCharObj
  00069	83 c0 01	 add	 eax, 1
  0006c	89 45 f8	 mov	 DWORD PTR _i$[ebp], eax
  0006f	eb 09		 jmp	 SHORT $LN4@getCharObj
$LN2@getCharObj:
  00071	8b 45 f8	 mov	 eax, DWORD PTR _i$[ebp]
  00074	83 c0 01	 add	 eax, 1
  00077	89 45 f8	 mov	 DWORD PTR _i$[ebp], eax
$LN4@getCharObj:
  0007a	81 7d f8 dc 05
	00 00		 cmp	 DWORD PTR _i$[ebp], 1500 ; 000005dcH
  00081	7d 1e		 jge	 SHORT $LN3@getCharObj

; 2360 : 		if( charObj[i].use == CHAROBJ_USE_FREE ){

  00083	69 45 f8 0c 01
	00 00		 imul	 eax, DWORD PTR _i$[ebp], 268
  0008a	0f bf 88 00 00
	00 00		 movsx	 ecx, WORD PTR ?charObj@@3PAUCHAROBJ@@A[eax]
  00091	85 c9		 test	 ecx, ecx
  00093	75 0a		 jne	 SHORT $LN10@getCharObj

; 2361 : 			freeCharObj = i;

  00095	8b 45 f8	 mov	 eax, DWORD PTR _i$[ebp]
  00098	a3 00 00 00 00	 mov	 DWORD PTR ?freeCharObj@@3HA, eax ; freeCharObj

; 2362 : 			break;

  0009d	eb 02		 jmp	 SHORT $LN3@getCharObj
$LN10@getCharObj:

; 2363 : 		}
; 2364 : 	}

  0009f	eb d0		 jmp	 SHORT $LN2@getCharObj
$LN3@getCharObj:

; 2365 : 	if( freeCharObj > 0 && i >= MAX_CHAROBJ ){

  000a1	83 3d 00 00 00
	00 00		 cmp	 DWORD PTR ?freeCharObj@@3HA, 0 ; freeCharObj
  000a8	7e 44		 jle	 SHORT $LN11@getCharObj
  000aa	81 7d f8 dc 05
	00 00		 cmp	 DWORD PTR _i$[ebp], 1500 ; 000005dcH
  000b1	7c 3b		 jl	 SHORT $LN11@getCharObj

; 2366 : 		for( i = 0; i < freeCharObj; i++ ){

  000b3	c7 45 f8 00 00
	00 00		 mov	 DWORD PTR _i$[ebp], 0
  000ba	eb 09		 jmp	 SHORT $LN7@getCharObj
$LN5@getCharObj:
  000bc	8b 45 f8	 mov	 eax, DWORD PTR _i$[ebp]
  000bf	83 c0 01	 add	 eax, 1
  000c2	89 45 f8	 mov	 DWORD PTR _i$[ebp], eax
$LN7@getCharObj:
  000c5	8b 45 f8	 mov	 eax, DWORD PTR _i$[ebp]
  000c8	3b 05 00 00 00
	00		 cmp	 eax, DWORD PTR ?freeCharObj@@3HA ; freeCharObj
  000ce	7d 1e		 jge	 SHORT $LN11@getCharObj

; 2367 : 			if( charObj[i].use == CHAROBJ_USE_FREE ){

  000d0	69 45 f8 0c 01
	00 00		 imul	 eax, DWORD PTR _i$[ebp], 268
  000d7	0f bf 88 00 00
	00 00		 movsx	 ecx, WORD PTR ?charObj@@3PAUCHAROBJ@@A[eax]
  000de	85 c9		 test	 ecx, ecx
  000e0	75 0a		 jne	 SHORT $LN12@getCharObj

; 2368 : 				freeCharObj = i;

  000e2	8b 45 f8	 mov	 eax, DWORD PTR _i$[ebp]
  000e5	a3 00 00 00 00	 mov	 DWORD PTR ?freeCharObj@@3HA, eax ; freeCharObj

; 2369 : 				break;

  000ea	eb 02		 jmp	 SHORT $LN11@getCharObj
$LN12@getCharObj:

; 2370 : 			}
; 2371 : 		}

  000ec	eb ce		 jmp	 SHORT $LN5@getCharObj
$LN11@getCharObj:

; 2372 : 	}
; 2373 : 	return ret;

  000ee	8b 45 ec	 mov	 eax, DWORD PTR _ret$[ebp]
$LN1@getCharObj:

; 2374 : }

  000f1	5f		 pop	 edi
  000f2	5e		 pop	 esi
  000f3	5b		 pop	 ebx
  000f4	8b e5		 mov	 esp, ebp
  000f6	5d		 pop	 ebp
  000f7	c3		 ret	 0
?getCharObjBuf@@YAHXZ ENDP				; getCharObjBuf
_TEXT	ENDS
; Function compile flags: /Odtp /RTCsu /ZI
; File c:\users\administrator\desktop\????? ??\????? ??\client source code\system\character.cpp
;	COMDAT ?getCharObjAct@@YAPAUaction@@H@Z
_TEXT	SEGMENT
_no$ = -8						; size = 4
_id$ = 8						; size = 4
?getCharObjAct@@YAPAUaction@@H@Z PROC			; getCharObjAct, COMDAT

; 2424 : {

  00000	55		 push	 ebp
  00001	8b ec		 mov	 ebp, esp
  00003	81 ec cc 00 00
	00		 sub	 esp, 204		; 000000ccH
  00009	53		 push	 ebx
  0000a	56		 push	 esi
  0000b	57		 push	 edi
  0000c	8d bd 34 ff ff
	ff		 lea	 edi, DWORD PTR [ebp-204]
  00012	b9 33 00 00 00	 mov	 ecx, 51			; 00000033H
  00017	b8 cc cc cc cc	 mov	 eax, -858993460		; ccccccccH
  0001c	f3 ab		 rep stosd

; 2425 : 	int no;
; 2426 : 	if( (no = searchCharObjId( id )) < 0 )

  0001e	8b 45 08	 mov	 eax, DWORD PTR _id$[ebp]
  00021	50		 push	 eax
  00022	e8 00 00 00 00	 call	 ?searchCharObjId@@YAHH@Z ; searchCharObjId
  00027	83 c4 04	 add	 esp, 4
  0002a	89 45 f8	 mov	 DWORD PTR _no$[ebp], eax
  0002d	83 7d f8 00	 cmp	 DWORD PTR _no$[ebp], 0
  00031	7d 04		 jge	 SHORT $LN2@getCharObj

; 2427 : 		return NULL;

  00033	33 c0		 xor	 eax, eax
  00035	eb 21		 jmp	 SHORT $LN1@getCharObj
$LN2@getCharObj:

; 2428 : 	if( charObj[no].ptAct == NULL )

  00037	69 45 f8 0c 01
	00 00		 imul	 eax, DWORD PTR _no$[ebp], 268
  0003e	83 b8 bc 00 00
	00 00		 cmp	 DWORD PTR ?charObj@@3PAUCHAROBJ@@A[eax+188], 0
  00045	75 04		 jne	 SHORT $LN3@getCharObj

; 2429 : 		return NULL;

  00047	33 c0		 xor	 eax, eax
  00049	eb 0d		 jmp	 SHORT $LN1@getCharObj
$LN3@getCharObj:

; 2430 : 	return charObj[no].ptAct;

  0004b	69 45 f8 0c 01
	00 00		 imul	 eax, DWORD PTR _no$[ebp], 268
  00052	8b 80 bc 00 00
	00		 mov	 eax, DWORD PTR ?charObj@@3PAUCHAROBJ@@A[eax+188]
$LN1@getCharObj:

; 2431 : }

  00058	5f		 pop	 edi
  00059	5e		 pop	 esi
  0005a	5b		 pop	 ebx
  0005b	81 c4 cc 00 00
	00		 add	 esp, 204		; 000000ccH
  00061	3b ec		 cmp	 ebp, esp
  00063	e8 00 00 00 00	 call	 __RTC_CheckEsp
  00068	8b e5		 mov	 esp, ebp
  0006a	5d		 pop	 ebp
  0006b	c3		 ret	 0
?getCharObjAct@@YAPAUaction@@H@Z ENDP			; getCharObjAct
_TEXT	ENDS
; Function compile flags: /Odtp /RTCsu /ZI
; File c:\users\administrator\desktop\????? ??\????? ??\client source code\system\character.cpp
;	COMDAT ?setMovePointCharObj@@YAXHHH@Z
_TEXT	SEGMENT
_no$ = -8						; size = 4
_id$ = 8						; size = 4
_nextGx$ = 12						; size = 4
_nextGy$ = 16						; size = 4
?setMovePointCharObj@@YAXHHH@Z PROC			; setMovePointCharObj, COMDAT

; 2767 : {

  00000	55		 push	 ebp
  00001	8b ec		 mov	 ebp, esp
  00003	81 ec cc 00 00
	00		 sub	 esp, 204		; 000000ccH
  00009	53		 push	 ebx
  0000a	56		 push	 esi
  0000b	57		 push	 edi
  0000c	8d bd 34 ff ff
	ff		 lea	 edi, DWORD PTR [ebp-204]
  00012	b9 33 00 00 00	 mov	 ecx, 51			; 00000033H
  00017	b8 cc cc cc cc	 mov	 eax, -858993460		; ccccccccH
  0001c	f3 ab		 rep stosd

; 2768 : 	int no;
; 2769 : 
; 2770 : 	no = searchCharObjId( id );

  0001e	8b 45 08	 mov	 eax, DWORD PTR _id$[ebp]
  00021	50		 push	 eax
  00022	e8 00 00 00 00	 call	 ?searchCharObjId@@YAHH@Z ; searchCharObjId
  00027	83 c4 04	 add	 esp, 4
  0002a	89 45 f8	 mov	 DWORD PTR _no$[ebp], eax

; 2771 : 	if( no >= 0 )

  0002d	83 7d f8 00	 cmp	 DWORD PTR _no$[ebp], 0
  00031	7c 1e		 jl	 SHORT $LN1@setMovePoi

; 2772 : 	{
; 2773 : 		stockCharMovePoint( charObj[no].ptAct, nextGx, nextGy );

  00033	8b 45 10	 mov	 eax, DWORD PTR _nextGy$[ebp]
  00036	50		 push	 eax
  00037	8b 4d 0c	 mov	 ecx, DWORD PTR _nextGx$[ebp]
  0003a	51		 push	 ecx
  0003b	69 55 f8 0c 01
	00 00		 imul	 edx, DWORD PTR _no$[ebp], 268
  00042	8b 82 bc 00 00
	00		 mov	 eax, DWORD PTR ?charObj@@3PAUCHAROBJ@@A[edx+188]
  00048	50		 push	 eax
  00049	e8 00 00 00 00	 call	 ?stockCharMovePoint@@YAXPAUaction@@HH@Z ; stockCharMovePoint
  0004e	83 c4 0c	 add	 esp, 12			; 0000000cH
$LN1@setMovePoi:

; 2774 : 	}
; 2775 : }

  00051	5f		 pop	 edi
  00052	5e		 pop	 esi
  00053	5b		 pop	 ebx
  00054	81 c4 cc 00 00
	00		 add	 esp, 204		; 000000ccH
  0005a	3b ec		 cmp	 ebp, esp
  0005c	e8 00 00 00 00	 call	 __RTC_CheckEsp
  00061	8b e5		 mov	 esp, ebp
  00063	5d		 pop	 ebp
  00064	c3		 ret	 0
?setMovePointCharObj@@YAXHHH@Z ENDP			; setMovePointCharObj
_TEXT	ENDS
; Function compile flags: /Odtp /RTCsu /ZI
; File c:\users\administrator\desktop\????? ??\????? ??\client source code\system\character.cpp
;	COMDAT ?restorePtActCharObj@@YAXH@Z
_TEXT	SEGMENT
_ext$ = -20						; size = 4
_no$ = -8						; size = 4
_id$ = 8						; size = 4
?restorePtActCharObj@@YAXH@Z PROC			; restorePtActCharObj, COMDAT

; 2728 : {

  00000	55		 push	 ebp
  00001	8b ec		 mov	 ebp, esp
  00003	81 ec d8 00 00
	00		 sub	 esp, 216		; 000000d8H
  00009	53		 push	 ebx
  0000a	56		 push	 esi
  0000b	57		 push	 edi
  0000c	8d bd 28 ff ff
	ff		 lea	 edi, DWORD PTR [ebp-216]
  00012	b9 36 00 00 00	 mov	 ecx, 54			; 00000036H
  00017	b8 cc cc cc cc	 mov	 eax, -858993460		; ccccccccH
  0001c	f3 ab		 rep stosd

; 2729 : 	int no;
; 2730 : 	CHAREXTRA *ext;
; 2731 : 
; 2732 : 	if( id < 0 )

  0001e	83 7d 08 00	 cmp	 DWORD PTR _id$[ebp], 0
  00022	7d 05		 jge	 SHORT $LN2@restorePtA

; 2733 : 		return;

  00024	e9 4d 01 00 00	 jmp	 $LN1@restorePtA
$LN2@restorePtA:

; 2734 : 
; 2735 : 	// K???????????
; 2736 : 	if( (no = searchCharObjId( id )) < 0 )

  00029	8b 45 08	 mov	 eax, DWORD PTR _id$[ebp]
  0002c	50		 push	 eax
  0002d	e8 00 00 00 00	 call	 ?searchCharObjId@@YAHH@Z ; searchCharObjId
  00032	83 c4 04	 add	 esp, 4
  00035	89 45 f8	 mov	 DWORD PTR _no$[ebp], eax
  00038	83 7d f8 00	 cmp	 DWORD PTR _no$[ebp], 0
  0003c	7d 05		 jge	 SHORT $LN3@restorePtA

; 2737 : 	{
; 2738 : 		// ??????
; 2739 : 		return;

  0003e	e9 33 01 00 00	 jmp	 $LN1@restorePtA
$LN3@restorePtA:

; 2740 : 	}
; 2741 : 
; 2742 : 	if( charObj[no].use != CHAROBJ_USE_FREE
; 2743 : 	 && charObj[no].ptAct == NULL )

  00043	69 45 f8 0c 01
	00 00		 imul	 eax, DWORD PTR _no$[ebp], 268
  0004a	0f bf 88 00 00
	00 00		 movsx	 ecx, WORD PTR ?charObj@@3PAUCHAROBJ@@A[eax]
  00051	85 c9		 test	 ecx, ecx
  00053	0f 84 1d 01 00
	00		 je	 $LN1@restorePtA
  00059	69 45 f8 0c 01
	00 00		 imul	 eax, DWORD PTR _no$[ebp], 268
  00060	83 b8 bc 00 00
	00 00		 cmp	 DWORD PTR ?charObj@@3PAUCHAROBJ@@A[eax+188], 0
  00067	0f 85 09 01 00
	00		 jne	 $LN1@restorePtA

; 2744 : 	{
; 2745 : 		charObj[no].ptAct =

  0006d	69 45 f8 0c 01
	00 00		 imul	 eax, DWORD PTR _no$[ebp], 268
  00074	8b 88 18 00 00
	00		 mov	 ecx, DWORD PTR ?charObj@@3PAUCHAROBJ@@A[eax+24]
  0007a	51		 push	 ecx
  0007b	69 55 f8 0c 01
	00 00		 imul	 edx, DWORD PTR _no$[ebp], 268
  00082	8b 82 10 00 00
	00		 mov	 eax, DWORD PTR ?charObj@@3PAUCHAROBJ@@A[edx+16]
  00088	50		 push	 eax
  00089	69 4d f8 0c 01
	00 00		 imul	 ecx, DWORD PTR _no$[ebp], 268
  00090	8b 91 0c 00 00
	00		 mov	 edx, DWORD PTR ?charObj@@3PAUCHAROBJ@@A[ecx+12]
  00096	52		 push	 edx
  00097	69 45 f8 0c 01
	00 00		 imul	 eax, DWORD PTR _no$[ebp], 268
  0009e	8b 88 08 00 00
	00		 mov	 ecx, DWORD PTR ?charObj@@3PAUCHAROBJ@@A[eax+8]
  000a4	51		 push	 ecx
  000a5	e8 00 00 00 00	 call	 ?createCharAction@@YAPAUaction@@HHHH@Z ; createCharAction
  000aa	83 c4 10	 add	 esp, 16			; 00000010H
  000ad	69 55 f8 0c 01
	00 00		 imul	 edx, DWORD PTR _no$[ebp], 268
  000b4	89 82 bc 00 00
	00		 mov	 DWORD PTR ?charObj@@3PAUCHAROBJ@@A[edx+188], eax

; 2746 : 			createCharAction( charObj[no].graNo, charObj[no].gx, charObj[no].gy, charObj[no].dir );
; 2747 : 		if( charObj[no].ptAct == NULL )

  000ba	69 45 f8 0c 01
	00 00		 imul	 eax, DWORD PTR _no$[ebp], 268
  000c1	83 b8 bc 00 00
	00 00		 cmp	 DWORD PTR ?charObj@@3PAUCHAROBJ@@A[eax+188], 0
  000c8	75 05		 jne	 SHORT $LN5@restorePtA

; 2748 : 		{
; 2749 : 			// ???????????????
; 2750 : 			return;

  000ca	e9 a7 00 00 00	 jmp	 $LN1@restorePtA
$LN5@restorePtA:

; 2751 : 		}
; 2752 : 
; 2753 : 		charObj[no].use = CHAROBJ_USE_VIEW;

  000cf	69 45 f8 0c 01
	00 00		 imul	 eax, DWORD PTR _no$[ebp], 268
  000d6	b9 02 00 00 00	 mov	 ecx, 2
  000db	66 89 88 00 00
	00 00		 mov	 WORD PTR ?charObj@@3PAUCHAROBJ@@A[eax], cx

; 2754 : 
; 2755 : 		ext = (CHAREXTRA *)charObj[no].ptAct->pYobi;

  000e2	69 45 f8 0c 01
	00 00		 imul	 eax, DWORD PTR _no$[ebp], 268
  000e9	8b 88 bc 00 00
	00		 mov	 ecx, DWORD PTR ?charObj@@3PAUCHAROBJ@@A[eax+188]
  000ef	8b 51 0c	 mov	 edx, DWORD PTR [ecx+12]
  000f2	89 55 ec	 mov	 DWORD PTR _ext$[ebp], edx

; 2756 : 		ext->charObjTblId = no;

  000f5	8b 45 ec	 mov	 eax, DWORD PTR _ext$[ebp]
  000f8	8b 4d f8	 mov	 ecx, DWORD PTR _no$[ebp]
  000fb	89 08		 mov	 DWORD PTR [eax], ecx

; 2757 : 
; 2758 : 		charObj[no].ptAct->level = charObj[no].level;

  000fd	69 45 f8 0c 01
	00 00		 imul	 eax, DWORD PTR _no$[ebp], 268
  00104	69 4d f8 0c 01
	00 00		 imul	 ecx, DWORD PTR _no$[ebp], 268
  0010b	8b 91 bc 00 00
	00		 mov	 edx, DWORD PTR ?charObj@@3PAUCHAROBJ@@A[ecx+188]
  00111	8b 80 14 00 00
	00		 mov	 eax, DWORD PTR ?charObj@@3PAUCHAROBJ@@A[eax+20]
  00117	89 82 8c 00 00
	00		 mov	 DWORD PTR [edx+140], eax

; 2759 : 		strcpy( charObj[no].ptAct->name, charObj[no].name );

  0011d	69 45 f8 0c 01
	00 00		 imul	 eax, DWORD PTR _no$[ebp], 268
  00124	05 38 00 00 00	 add	 eax, OFFSET ?charObj@@3PAUCHAROBJ@@A+56
  00129	50		 push	 eax
  0012a	69 4d f8 0c 01
	00 00		 imul	 ecx, DWORD PTR _no$[ebp], 268
  00131	8b 91 bc 00 00
	00		 mov	 edx, DWORD PTR ?charObj@@3PAUCHAROBJ@@A[ecx+188]
  00137	83 c2 38	 add	 edx, 56			; 00000038H
  0013a	52		 push	 edx
  0013b	e8 00 00 00 00	 call	 _strcpy
  00140	83 c4 08	 add	 esp, 8

; 2760 : 		charObj[no].ptAct->atr |= charObj[no].charType;

  00143	69 45 f8 0c 01
	00 00		 imul	 eax, DWORD PTR _no$[ebp], 268
  0014a	8b 88 bc 00 00
	00		 mov	 ecx, DWORD PTR ?charObj@@3PAUCHAROBJ@@A[eax+188]
  00150	69 55 f8 0c 01
	00 00		 imul	 edx, DWORD PTR _no$[ebp], 268
  00157	8b 81 a4 00 00
	00		 mov	 eax, DWORD PTR [ecx+164]
  0015d	0b 82 b4 00 00
	00		 or	 eax, DWORD PTR ?charObj@@3PAUCHAROBJ@@A[edx+180]
  00163	69 4d f8 0c 01
	00 00		 imul	 ecx, DWORD PTR _no$[ebp], 268
  0016a	8b 91 bc 00 00
	00		 mov	 edx, DWORD PTR ?charObj@@3PAUCHAROBJ@@A[ecx+188]
  00170	89 82 a4 00 00
	00		 mov	 DWORD PTR [edx+164], eax
$LN1@restorePtA:

; 2761 : 	}
; 2762 : }

  00176	5f		 pop	 edi
  00177	5e		 pop	 esi
  00178	5b		 pop	 ebx
  00179	81 c4 d8 00 00
	00		 add	 esp, 216		; 000000d8H
  0017f	3b ec		 cmp	 ebp, esp
  00181	e8 00 00 00 00	 call	 __RTC_CheckEsp
  00186	8b e5		 mov	 esp, ebp
  00188	5d		 pop	 ebp
  00189	c3		 ret	 0
?restorePtActCharObj@@YAXH@Z ENDP			; restorePtActCharObj
_TEXT	ENDS
; Function compile flags: /Odtp /RTCsu /ZI
; File c:\users\administrator\desktop\????? ??\????? ??\client source code\system\character.cpp
;	COMDAT ?restorePtActCharObjAll@@YAXXZ
_TEXT	SEGMENT
_ext$ = -20						; size = 4
_i$ = -8						; size = 4
?restorePtActCharObjAll@@YAXXZ PROC			; restorePtActCharObjAll, COMDAT

; 2660 : {

  00000	55		 push	 ebp
  00001	8b ec		 mov	 ebp, esp
  00003	81 ec d8 00 00
	00		 sub	 esp, 216		; 000000d8H
  00009	53		 push	 ebx
  0000a	56		 push	 esi
  0000b	57		 push	 edi
  0000c	8d bd 28 ff ff
	ff		 lea	 edi, DWORD PTR [ebp-216]
  00012	b9 36 00 00 00	 mov	 ecx, 54			; 00000036H
  00017	b8 cc cc cc cc	 mov	 eax, -858993460		; ccccccccH
  0001c	f3 ab		 rep stosd

; 2661 : 	int i;
; 2662 : 	CHAREXTRA *ext;
; 2663 : 
; 2664 : 	for( i = 0; i < MAX_CHAROBJ; i++ )

  0001e	c7 45 f8 00 00
	00 00		 mov	 DWORD PTR _i$[ebp], 0
  00025	eb 09		 jmp	 SHORT $LN4@restorePtA
$LN2@restorePtA:
  00027	8b 45 f8	 mov	 eax, DWORD PTR _i$[ebp]
  0002a	83 c0 01	 add	 eax, 1
  0002d	89 45 f8	 mov	 DWORD PTR _i$[ebp], eax
$LN4@restorePtA:
  00030	81 7d f8 dc 05
	00 00		 cmp	 DWORD PTR _i$[ebp], 1500 ; 000005dcH
  00037	0f 8d bc 02 00
	00		 jge	 $LN1@restorePtA

; 2665 : 	{
; 2666 : 		if( charObj[i].use != CHAROBJ_USE_FREE
; 2667 : 		 && charObj[i].ptAct == NULL )

  0003d	69 45 f8 0c 01
	00 00		 imul	 eax, DWORD PTR _i$[ebp], 268
  00044	0f bf 88 00 00
	00 00		 movsx	 ecx, WORD PTR ?charObj@@3PAUCHAROBJ@@A[eax]
  0004b	85 c9		 test	 ecx, ecx
  0004d	0f 84 a1 02 00
	00		 je	 $LN5@restorePtA
  00053	69 45 f8 0c 01
	00 00		 imul	 eax, DWORD PTR _i$[ebp], 268
  0005a	83 b8 bc 00 00
	00 00		 cmp	 DWORD PTR ?charObj@@3PAUCHAROBJ@@A[eax+188], 0
  00061	0f 85 8d 02 00
	00		 jne	 $LN5@restorePtA

; 2668 : 		{
; 2669 : 			charObj[i].ptAct =

  00067	69 45 f8 0c 01
	00 00		 imul	 eax, DWORD PTR _i$[ebp], 268
  0006e	8b 88 18 00 00
	00		 mov	 ecx, DWORD PTR ?charObj@@3PAUCHAROBJ@@A[eax+24]
  00074	51		 push	 ecx
  00075	69 55 f8 0c 01
	00 00		 imul	 edx, DWORD PTR _i$[ebp], 268
  0007c	8b 82 10 00 00
	00		 mov	 eax, DWORD PTR ?charObj@@3PAUCHAROBJ@@A[edx+16]
  00082	50		 push	 eax
  00083	69 4d f8 0c 01
	00 00		 imul	 ecx, DWORD PTR _i$[ebp], 268
  0008a	8b 91 0c 00 00
	00		 mov	 edx, DWORD PTR ?charObj@@3PAUCHAROBJ@@A[ecx+12]
  00090	52		 push	 edx
  00091	69 45 f8 0c 01
	00 00		 imul	 eax, DWORD PTR _i$[ebp], 268
  00098	8b 88 08 00 00
	00		 mov	 ecx, DWORD PTR ?charObj@@3PAUCHAROBJ@@A[eax+8]
  0009e	51		 push	 ecx
  0009f	e8 00 00 00 00	 call	 ?createCharAction@@YAPAUaction@@HHHH@Z ; createCharAction
  000a4	83 c4 10	 add	 esp, 16			; 00000010H
  000a7	69 55 f8 0c 01
	00 00		 imul	 edx, DWORD PTR _i$[ebp], 268
  000ae	89 82 bc 00 00
	00		 mov	 DWORD PTR ?charObj@@3PAUCHAROBJ@@A[edx+188], eax

; 2670 : 				createCharAction( charObj[i].graNo, charObj[i].gx, charObj[i].gy, charObj[i].dir );
; 2671 : 			if( charObj[i].ptAct == NULL )

  000b4	69 45 f8 0c 01
	00 00		 imul	 eax, DWORD PTR _i$[ebp], 268
  000bb	83 b8 bc 00 00
	00 00		 cmp	 DWORD PTR ?charObj@@3PAUCHAROBJ@@A[eax+188], 0
  000c2	75 05		 jne	 SHORT $LN6@restorePtA

; 2672 : 			{
; 2673 : 				continue;

  000c4	e9 5e ff ff ff	 jmp	 $LN2@restorePtA
$LN6@restorePtA:

; 2674 : 			}
; 2675 : 
; 2676 : 			charObj[i].use = CHAROBJ_USE_VIEW;

  000c9	69 45 f8 0c 01
	00 00		 imul	 eax, DWORD PTR _i$[ebp], 268
  000d0	b9 02 00 00 00	 mov	 ecx, 2
  000d5	66 89 88 00 00
	00 00		 mov	 WORD PTR ?charObj@@3PAUCHAROBJ@@A[eax], cx

; 2677 : 
; 2678 : 			ext = (CHAREXTRA *)charObj[i].ptAct->pYobi;

  000dc	69 45 f8 0c 01
	00 00		 imul	 eax, DWORD PTR _i$[ebp], 268
  000e3	8b 88 bc 00 00
	00		 mov	 ecx, DWORD PTR ?charObj@@3PAUCHAROBJ@@A[eax+188]
  000e9	8b 51 0c	 mov	 edx, DWORD PTR [ecx+12]
  000ec	89 55 ec	 mov	 DWORD PTR _ext$[ebp], edx

; 2679 : 			ext->charObjTblId = i;

  000ef	8b 45 ec	 mov	 eax, DWORD PTR _ext$[ebp]
  000f2	8b 4d f8	 mov	 ecx, DWORD PTR _i$[ebp]
  000f5	89 08		 mov	 DWORD PTR [eax], ecx

; 2680 : 
; 2681 : 			// NPC????????
; 2682 : 			// \?PC????????
; 2683 : 			// ?Y
; 2684 : 			if( charObj[i].type == CHAROBJ_TYPE_NPC
; 2685 : 			 || charObj[i].type == CHAROBJ_TYPE_USER_NPC )

  000f7	69 45 f8 0c 01
	00 00		 imul	 eax, DWORD PTR _i$[ebp], 268
  000fe	0f bf 88 02 00
	00 00		 movsx	 ecx, WORD PTR ?charObj@@3PAUCHAROBJ@@A[eax+2]
  00105	83 f9 01	 cmp	 ecx, 1
  00108	74 13		 je	 SHORT $LN9@restorePtA
  0010a	69 45 f8 0c 01
	00 00		 imul	 eax, DWORD PTR _i$[ebp], 268
  00111	0f bf 88 02 00
	00 00		 movsx	 ecx, WORD PTR ?charObj@@3PAUCHAROBJ@@A[eax+2]
  00118	83 f9 08	 cmp	 ecx, 8
  0011b	75 7e		 jne	 SHORT $LN7@restorePtA
$LN9@restorePtA:

; 2686 : 			{
; 2687 : 				charObj[i].ptAct->level = charObj[i].level;

  0011d	69 45 f8 0c 01
	00 00		 imul	 eax, DWORD PTR _i$[ebp], 268
  00124	69 4d f8 0c 01
	00 00		 imul	 ecx, DWORD PTR _i$[ebp], 268
  0012b	8b 91 bc 00 00
	00		 mov	 edx, DWORD PTR ?charObj@@3PAUCHAROBJ@@A[ecx+188]
  00131	8b 80 14 00 00
	00		 mov	 eax, DWORD PTR ?charObj@@3PAUCHAROBJ@@A[eax+20]
  00137	89 82 8c 00 00
	00		 mov	 DWORD PTR [edx+140], eax

; 2688 : 				strcpy( charObj[i].ptAct->name, charObj[i].name );

  0013d	69 45 f8 0c 01
	00 00		 imul	 eax, DWORD PTR _i$[ebp], 268
  00144	05 38 00 00 00	 add	 eax, OFFSET ?charObj@@3PAUCHAROBJ@@A+56
  00149	50		 push	 eax
  0014a	69 4d f8 0c 01
	00 00		 imul	 ecx, DWORD PTR _i$[ebp], 268
  00151	8b 91 bc 00 00
	00		 mov	 edx, DWORD PTR ?charObj@@3PAUCHAROBJ@@A[ecx+188]
  00157	83 c2 38	 add	 edx, 56			; 00000038H
  0015a	52		 push	 edx
  0015b	e8 00 00 00 00	 call	 _strcpy
  00160	83 c4 08	 add	 esp, 8

; 2689 : 				charObj[i].ptAct->atr |= charObj[i].charType;

  00163	69 45 f8 0c 01
	00 00		 imul	 eax, DWORD PTR _i$[ebp], 268
  0016a	8b 88 bc 00 00
	00		 mov	 ecx, DWORD PTR ?charObj@@3PAUCHAROBJ@@A[eax+188]
  00170	69 55 f8 0c 01
	00 00		 imul	 edx, DWORD PTR _i$[ebp], 268
  00177	8b 81 a4 00 00
	00		 mov	 eax, DWORD PTR [ecx+164]
  0017d	0b 82 b4 00 00
	00		 or	 eax, DWORD PTR ?charObj@@3PAUCHAROBJ@@A[edx+180]
  00183	69 4d f8 0c 01
	00 00		 imul	 ecx, DWORD PTR _i$[ebp], 268
  0018a	8b 91 bc 00 00
	00		 mov	 edx, DWORD PTR ?charObj@@3PAUCHAROBJ@@A[ecx+188]
  00190	89 82 a4 00 00
	00		 mov	 DWORD PTR [edx+164], eax

; 2690 : 			}
; 2691 : 			else

  00196	e9 59 01 00 00	 jmp	 $LN5@restorePtA
$LN7@restorePtA:

; 2692 : 			// Item????????
; 2693 : 			if( charObj[i].type == CHAROBJ_TYPE_ITEM )

  0019b	69 45 f8 0c 01
	00 00		 imul	 eax, DWORD PTR _i$[ebp], 268
  001a2	0f bf 88 02 00
	00 00		 movsx	 ecx, WORD PTR ?charObj@@3PAUCHAROBJ@@A[eax+2]
  001a9	83 f9 02	 cmp	 ecx, 2
  001ac	0f 85 98 00 00
	00		 jne	 $LN10@restorePtA

; 2694 : 			{
; 2695 : 				// 1??????????name?V??
; 2696 : 				if( strlen( charObj[i].info ) <= ITEM_NAME_LEN )

  001b2	69 45 f8 0c 01
	00 00		 imul	 eax, DWORD PTR _i$[ebp], 268
  001b9	05 6a 00 00 00	 add	 eax, OFFSET ?charObj@@3PAUCHAROBJ@@A+106
  001be	50		 push	 eax
  001bf	e8 00 00 00 00	 call	 _strlen
  001c4	83 c4 04	 add	 esp, 4
  001c7	83 f8 1c	 cmp	 eax, 28			; 0000001cH
  001ca	77 28		 ja	 SHORT $LN12@restorePtA

; 2697 : 				{
; 2698 : 					strcpy( charObj[i].ptAct->name, charObj[i].info );

  001cc	69 45 f8 0c 01
	00 00		 imul	 eax, DWORD PTR _i$[ebp], 268
  001d3	05 6a 00 00 00	 add	 eax, OFFSET ?charObj@@3PAUCHAROBJ@@A+106
  001d8	50		 push	 eax
  001d9	69 4d f8 0c 01
	00 00		 imul	 ecx, DWORD PTR _i$[ebp], 268
  001e0	8b 91 bc 00 00
	00		 mov	 edx, DWORD PTR ?charObj@@3PAUCHAROBJ@@A[ecx+188]
  001e6	83 c2 38	 add	 edx, 56			; 00000038H
  001e9	52		 push	 edx
  001ea	e8 00 00 00 00	 call	 _strcpy
  001ef	83 c4 08	 add	 esp, 8

; 2699 : 				}
; 2700 : 				else

  001f2	eb 1e		 jmp	 SHORT $LN13@restorePtA
$LN12@restorePtA:

; 2701 : 				{
; 2702 : 					strcpy( charObj[i].ptAct->name, "???" );

  001f4	68 00 00 00 00	 push	 OFFSET ??_C@_03BBKEAIF@?$DP?$DP?$DP?$AA@
  001f9	69 45 f8 0c 01
	00 00		 imul	 eax, DWORD PTR _i$[ebp], 268
  00200	8b 88 bc 00 00
	00		 mov	 ecx, DWORD PTR ?charObj@@3PAUCHAROBJ@@A[eax+188]
  00206	83 c1 38	 add	 ecx, 56			; 00000038H
  00209	51		 push	 ecx
  0020a	e8 00 00 00 00	 call	 _strcpy
  0020f	83 c4 08	 add	 esp, 8
$LN13@restorePtA:

; 2703 : 				}
; 2704 : 				charObj[i].ptAct->atr |= charObj[i].charType;

  00212	69 45 f8 0c 01
	00 00		 imul	 eax, DWORD PTR _i$[ebp], 268
  00219	8b 88 bc 00 00
	00		 mov	 ecx, DWORD PTR ?charObj@@3PAUCHAROBJ@@A[eax+188]
  0021f	69 55 f8 0c 01
	00 00		 imul	 edx, DWORD PTR _i$[ebp], 268
  00226	8b 81 a4 00 00
	00		 mov	 eax, DWORD PTR [ecx+164]
  0022c	0b 82 b4 00 00
	00		 or	 eax, DWORD PTR ?charObj@@3PAUCHAROBJ@@A[edx+180]
  00232	69 4d f8 0c 01
	00 00		 imul	 ecx, DWORD PTR _i$[ebp], 268
  00239	8b 91 bc 00 00
	00		 mov	 edx, DWORD PTR ?charObj@@3PAUCHAROBJ@@A[ecx+188]
  0023f	89 82 a4 00 00
	00		 mov	 DWORD PTR [edx+164], eax

; 2705 : 			}
; 2706 : 			else

  00245	e9 aa 00 00 00	 jmp	 $LN5@restorePtA
$LN10@restorePtA:

; 2707 : 			// ??????????
; 2708 : 			if( charObj[i].type == CHAROBJ_TYPE_MONEY )

  0024a	69 45 f8 0c 01
	00 00		 imul	 eax, DWORD PTR _i$[ebp], 268
  00251	0f bf 88 02 00
	00 00		 movsx	 ecx, WORD PTR ?charObj@@3PAUCHAROBJ@@A[eax+2]
  00258	83 f9 04	 cmp	 ecx, 4
  0025b	0f 85 93 00 00
	00		 jne	 $LN5@restorePtA

; 2709 : 			{
; 2710 : 				// 1??????????name?V??
; 2711 : 				if( strlen( charObj[i].info ) <= CHAR_NAME_LEN )

  00261	69 45 f8 0c 01
	00 00		 imul	 eax, DWORD PTR _i$[ebp], 268
  00268	05 6a 00 00 00	 add	 eax, OFFSET ?charObj@@3PAUCHAROBJ@@A+106
  0026d	50		 push	 eax
  0026e	e8 00 00 00 00	 call	 _strlen
  00273	83 c4 04	 add	 esp, 4
  00276	83 f8 10	 cmp	 eax, 16			; 00000010H
  00279	77 28		 ja	 SHORT $LN15@restorePtA

; 2712 : 				{
; 2713 : 					strcpy( charObj[i].ptAct->name, charObj[i].info );

  0027b	69 45 f8 0c 01
	00 00		 imul	 eax, DWORD PTR _i$[ebp], 268
  00282	05 6a 00 00 00	 add	 eax, OFFSET ?charObj@@3PAUCHAROBJ@@A+106
  00287	50		 push	 eax
  00288	69 4d f8 0c 01
	00 00		 imul	 ecx, DWORD PTR _i$[ebp], 268
  0028f	8b 91 bc 00 00
	00		 mov	 edx, DWORD PTR ?charObj@@3PAUCHAROBJ@@A[ecx+188]
  00295	83 c2 38	 add	 edx, 56			; 00000038H
  00298	52		 push	 edx
  00299	e8 00 00 00 00	 call	 _strcpy
  0029e	83 c4 08	 add	 esp, 8

; 2714 : 				}
; 2715 : 				else

  002a1	eb 1e		 jmp	 SHORT $LN16@restorePtA
$LN15@restorePtA:

; 2716 : 				{
; 2717 : 					strcpy( charObj[i].ptAct->name, "???" );

  002a3	68 00 00 00 00	 push	 OFFSET ??_C@_03BBKEAIF@?$DP?$DP?$DP?$AA@
  002a8	69 45 f8 0c 01
	00 00		 imul	 eax, DWORD PTR _i$[ebp], 268
  002af	8b 88 bc 00 00
	00		 mov	 ecx, DWORD PTR ?charObj@@3PAUCHAROBJ@@A[eax+188]
  002b5	83 c1 38	 add	 ecx, 56			; 00000038H
  002b8	51		 push	 ecx
  002b9	e8 00 00 00 00	 call	 _strcpy
  002be	83 c4 08	 add	 esp, 8
$LN16@restorePtA:

; 2718 : 				}
; 2719 : 				charObj[i].ptAct->atr |= charObj[i].charType;

  002c1	69 45 f8 0c 01
	00 00		 imul	 eax, DWORD PTR _i$[ebp], 268
  002c8	8b 88 bc 00 00
	00		 mov	 ecx, DWORD PTR ?charObj@@3PAUCHAROBJ@@A[eax+188]
  002ce	69 55 f8 0c 01
	00 00		 imul	 edx, DWORD PTR _i$[ebp], 268
  002d5	8b 81 a4 00 00
	00		 mov	 eax, DWORD PTR [ecx+164]
  002db	0b 82 b4 00 00
	00		 or	 eax, DWORD PTR ?charObj@@3PAUCHAROBJ@@A[edx+180]
  002e1	69 4d f8 0c 01
	00 00		 imul	 ecx, DWORD PTR _i$[ebp], 268
  002e8	8b 91 bc 00 00
	00		 mov	 edx, DWORD PTR ?charObj@@3PAUCHAROBJ@@A[ecx+188]
  002ee	89 82 a4 00 00
	00		 mov	 DWORD PTR [edx+164], eax
$LN5@restorePtA:

; 2720 : 			}
; 2721 : 		}
; 2722 : 	}

  002f4	e9 2e fd ff ff	 jmp	 $LN2@restorePtA
$LN1@restorePtA:

; 2723 : }

  002f9	5f		 pop	 edi
  002fa	5e		 pop	 esi
  002fb	5b		 pop	 ebx
  002fc	81 c4 d8 00 00
	00		 add	 esp, 216		; 000000d8H
  00302	3b ec		 cmp	 ebp, esp
  00304	e8 00 00 00 00	 call	 __RTC_CheckEsp
  00309	8b e5		 mov	 esp, ebp
  0030b	5d		 pop	 ebp
  0030c	c3		 ret	 0
?restorePtActCharObjAll@@YAXXZ ENDP			; restorePtActCharObjAll
_TEXT	ENDS
; Function compile flags: /Odtp /RTCsu /ZI
; File c:\users\administrator\desktop\????? ??\????? ??\client source code\system\character.cpp
;	COMDAT ?clearPtActCharObj@@YAXXZ
_TEXT	SEGMENT
_i$ = -8						; size = 4
?clearPtActCharObj@@YAXXZ PROC				; clearPtActCharObj, COMDAT

; 2644 : {

  00000	55		 push	 ebp
  00001	8b ec		 mov	 ebp, esp
  00003	81 ec cc 00 00
	00		 sub	 esp, 204		; 000000ccH
  00009	53		 push	 ebx
  0000a	56		 push	 esi
  0000b	57		 push	 edi
  0000c	8d bd 34 ff ff
	ff		 lea	 edi, DWORD PTR [ebp-204]
  00012	b9 33 00 00 00	 mov	 ecx, 51			; 00000033H
  00017	b8 cc cc cc cc	 mov	 eax, -858993460		; ccccccccH
  0001c	f3 ab		 rep stosd

; 2645 : 	int i;
; 2646 : 
; 2647 : 	for( i = 0; i < MAX_CHAROBJ; i++ )

  0001e	c7 45 f8 00 00
	00 00		 mov	 DWORD PTR _i$[ebp], 0
  00025	eb 09		 jmp	 SHORT $LN4@clearPtAct
$LN2@clearPtAct:
  00027	8b 45 f8	 mov	 eax, DWORD PTR _i$[ebp]
  0002a	83 c0 01	 add	 eax, 1
  0002d	89 45 f8	 mov	 DWORD PTR _i$[ebp], eax
$LN4@clearPtAct:
  00030	81 7d f8 dc 05
	00 00		 cmp	 DWORD PTR _i$[ebp], 1500 ; 000005dcH
  00037	7d 36		 jge	 SHORT $LN1@clearPtAct

; 2648 : 	{
; 2649 : 		if( charObj[i].use != CHAROBJ_USE_FREE )

  00039	69 45 f8 0c 01
	00 00		 imul	 eax, DWORD PTR _i$[ebp], 268
  00040	0f bf 88 00 00
	00 00		 movsx	 ecx, WORD PTR ?charObj@@3PAUCHAROBJ@@A[eax]
  00047	85 c9		 test	 ecx, ecx
  00049	74 22		 je	 SHORT $LN5@clearPtAct

; 2650 : 		{
; 2651 : 			charObj[i].ptAct = NULL;

  0004b	69 45 f8 0c 01
	00 00		 imul	 eax, DWORD PTR _i$[ebp], 268
  00052	c7 80 bc 00 00
	00 00 00 00 00	 mov	 DWORD PTR ?charObj@@3PAUCHAROBJ@@A[eax+188], 0

; 2652 : 			charObj[i].stockDir = -1;

  0005c	69 45 f8 0c 01
	00 00		 imul	 eax, DWORD PTR _i$[ebp], 268
  00063	c7 80 1c 00 00
	00 ff ff ff ff	 mov	 DWORD PTR ?charObj@@3PAUCHAROBJ@@A[eax+28], -1
$LN5@clearPtAct:

; 2653 : 		}
; 2654 : 	}

  0006d	eb b8		 jmp	 SHORT $LN2@clearPtAct
$LN1@clearPtAct:

; 2655 : }

  0006f	5f		 pop	 edi
  00070	5e		 pop	 esi
  00071	5b		 pop	 ebx
  00072	8b e5		 mov	 esp, ebp
  00074	5d		 pop	 ebp
  00075	c3		 ret	 0
?clearPtActCharObj@@YAXXZ ENDP				; clearPtActCharObj
_TEXT	ENDS
; Function compile flags: /Odtp /RTCsu /ZI
; File c:\users\administrator\desktop\????? ??\????? ??\client source code\system\character.cpp
;	COMDAT ?resetCharObj@@YAXXZ
_TEXT	SEGMENT
_ext$ = -20						; size = 4
_i$ = -8						; size = 4
?resetCharObj@@YAXXZ PROC				; resetCharObj, COMDAT

; 2556 : {

  00000	55		 push	 ebp
  00001	8b ec		 mov	 ebp, esp
  00003	81 ec d8 00 00
	00		 sub	 esp, 216		; 000000d8H
  00009	53		 push	 ebx
  0000a	56		 push	 esi
  0000b	57		 push	 edi
  0000c	8d bd 28 ff ff
	ff		 lea	 edi, DWORD PTR [ebp-216]
  00012	b9 36 00 00 00	 mov	 ecx, 54			; 00000036H
  00017	b8 cc cc cc cc	 mov	 eax, -858993460		; ccccccccH
  0001c	f3 ab		 rep stosd

; 2557 : 	int i;
; 2558 : 	CHAREXTRA *ext;
; 2559 : 
; 2560 : 	maxCharObj = 0;

  0001e	c7 05 00 00 00
	00 00 00 00 00	 mov	 DWORD PTR ?maxCharObj@@3HA, 0 ; maxCharObj

; 2561 : 	tailCharObj = 0;

  00028	c7 05 00 00 00
	00 00 00 00 00	 mov	 DWORD PTR ?tailCharObj@@3HA, 0 ; tailCharObj

; 2562 : 	freeCharObj = 0;

  00032	c7 05 00 00 00
	00 00 00 00 00	 mov	 DWORD PTR ?freeCharObj@@3HA, 0 ; freeCharObj

; 2563 : 	for( i = 0; i < MAX_CHAROBJ; i++ )

  0003c	c7 45 f8 00 00
	00 00		 mov	 DWORD PTR _i$[ebp], 0
  00043	eb 09		 jmp	 SHORT $LN4@resetCharO
$LN2@resetCharO:
  00045	8b 45 f8	 mov	 eax, DWORD PTR _i$[ebp]
  00048	83 c0 01	 add	 eax, 1
  0004b	89 45 f8	 mov	 DWORD PTR _i$[ebp], eax
$LN4@resetCharO:
  0004e	81 7d f8 dc 05
	00 00		 cmp	 DWORD PTR _i$[ebp], 1500 ; 000005dcH
  00055	0f 8d 1b 02 00
	00		 jge	 $LN3@resetCharO

; 2564 : 	{
; 2565 : 		if( charObj[i].use != CHAROBJ_USE_FREE )

  0005b	69 45 f8 0c 01
	00 00		 imul	 eax, DWORD PTR _i$[ebp], 268
  00062	0f bf 88 00 00
	00 00		 movsx	 ecx, WORD PTR ?charObj@@3PAUCHAROBJ@@A[eax]
  00069	85 c9		 test	 ecx, ecx
  0006b	0f 84 00 02 00
	00		 je	 $LN5@resetCharO

; 2566 : 		{
; 2567 : 			if( charObj[i].ptAct != NULL )

  00071	69 45 f8 0c 01
	00 00		 imul	 eax, DWORD PTR _i$[ebp], 268
  00078	83 b8 bc 00 00
	00 00		 cmp	 DWORD PTR ?charObj@@3PAUCHAROBJ@@A[eax+188], 0
  0007f	0f 84 a9 01 00
	00		 je	 $LN6@resetCharO

; 2568 : 			{
; 2569 : 				ext = (CHAREXTRA *)charObj[i].ptAct->pYobi;

  00085	69 45 f8 0c 01
	00 00		 imul	 eax, DWORD PTR _i$[ebp], 268
  0008c	8b 88 bc 00 00
	00		 mov	 ecx, DWORD PTR ?charObj@@3PAUCHAROBJ@@A[eax+188]
  00092	8b 51 0c	 mov	 edx, DWORD PTR [ecx+12]
  00095	89 55 ec	 mov	 DWORD PTR _ext$[ebp], edx

; 2570 : 				if ((int)ext==0xdddddddd)

  00098	81 7d ec dd dd
	dd dd		 cmp	 DWORD PTR _ext$[ebp], -572662307 ; ddddddddH
  0009f	75 16		 jne	 SHORT $LN7@resetCharO

; 2571 : 				{
; 2572 : 					charObj[i].ptAct = NULL;

  000a1	69 45 f8 0c 01
	00 00		 imul	 eax, DWORD PTR _i$[ebp], 268
  000a8	c7 80 bc 00 00
	00 00 00 00 00	 mov	 DWORD PTR ?charObj@@3PAUCHAROBJ@@A[eax+188], 0

; 2573 : 					return;

  000b2	e9 c9 01 00 00	 jmp	 $LN1@resetCharO
$LN7@resetCharO:

; 2574 : 				}
; 2575 : 
; 2576 : 				if( ext != NULL )

  000b7	83 7d ec 00	 cmp	 DWORD PTR _ext$[ebp], 0
  000bb	0f 84 46 01 00
	00		 je	 $LN8@resetCharO

; 2577 : 				{
; 2578 : 					if( ext->ptActLeaderMark != NULL )

  000c1	8b 45 ec	 mov	 eax, DWORD PTR _ext$[ebp]
  000c4	83 78 08 00	 cmp	 DWORD PTR [eax+8], 0
  000c8	74 19		 je	 SHORT $LN9@resetCharO

; 2579 : 					{
; 2580 : 						DeathAction( ext->ptActLeaderMark );

  000ca	8b 45 ec	 mov	 eax, DWORD PTR _ext$[ebp]
  000cd	8b 48 08	 mov	 ecx, DWORD PTR [eax+8]
  000d0	51		 push	 ecx
  000d1	e8 00 00 00 00	 call	 ?DeathAction@@YAXPAUaction@@@Z ; DeathAction
  000d6	83 c4 04	 add	 esp, 4

; 2581 : 						ext->ptActLeaderMark = NULL;

  000d9	8b 45 ec	 mov	 eax, DWORD PTR _ext$[ebp]
  000dc	c7 40 08 00 00
	00 00		 mov	 DWORD PTR [eax+8], 0
$LN9@resetCharO:

; 2582 : 					}
; 2583 : 					if( ext->ptActMagicEffect != NULL )

  000e3	8b 45 ec	 mov	 eax, DWORD PTR _ext$[ebp]
  000e6	83 78 0c 00	 cmp	 DWORD PTR [eax+12], 0
  000ea	74 19		 je	 SHORT $LN10@resetCharO

; 2584 : 					{
; 2585 : 						DeathAction( ext->ptActMagicEffect );

  000ec	8b 45 ec	 mov	 eax, DWORD PTR _ext$[ebp]
  000ef	8b 48 0c	 mov	 ecx, DWORD PTR [eax+12]
  000f2	51		 push	 ecx
  000f3	e8 00 00 00 00	 call	 ?DeathAction@@YAXPAUaction@@@Z ; DeathAction
  000f8	83 c4 04	 add	 esp, 4

; 2586 : 						ext->ptActMagicEffect = NULL;

  000fb	8b 45 ec	 mov	 eax, DWORD PTR _ext$[ebp]
  000fe	c7 40 0c 00 00
	00 00		 mov	 DWORD PTR [eax+12], 0
$LN10@resetCharO:

; 2587 : 					}
; 2588 : #ifdef __EMOTION
; 2589 : 					if( ext->ptActEmotion != NULL ){
; 2590 : 						DeathAction( ext->ptActEmotion );
; 2591 : 						ext->ptActEmotion = NULL;
; 2592 : 					}
; 2593 : #endif
; 2594 : #ifdef _STREET_VENDOR
; 2595 : 					if(ext->ptStreetVendor != NULL){

  00105	8b 45 ec	 mov	 eax, DWORD PTR _ext$[ebp]
  00108	83 78 1c 00	 cmp	 DWORD PTR [eax+28], 0
  0010c	74 19		 je	 SHORT $LN11@resetCharO

; 2596 : 						DeathAction(ext->ptStreetVendor);

  0010e	8b 45 ec	 mov	 eax, DWORD PTR _ext$[ebp]
  00111	8b 48 1c	 mov	 ecx, DWORD PTR [eax+28]
  00114	51		 push	 ecx
  00115	e8 00 00 00 00	 call	 ?DeathAction@@YAXPAUaction@@@Z ; DeathAction
  0011a	83 c4 04	 add	 esp, 4

; 2597 : 						ext->ptStreetVendor = NULL;

  0011d	8b 45 ec	 mov	 eax, DWORD PTR _ext$[ebp]
  00120	c7 40 1c 00 00
	00 00		 mov	 DWORD PTR [eax+28], 0
$LN11@resetCharO:

; 2598 : 					}
; 2599 : #endif
; 2600 : #ifdef _MIND_ICON
; 2601 :     				if( ext->ptMindIcon != NULL ){

  00127	8b 45 ec	 mov	 eax, DWORD PTR _ext$[ebp]
  0012a	83 78 10 00	 cmp	 DWORD PTR [eax+16], 0
  0012e	74 19		 je	 SHORT $LN12@resetCharO

; 2602 : 	    				DeathAction( ext->ptMindIcon );

  00130	8b 45 ec	 mov	 eax, DWORD PTR _ext$[ebp]
  00133	8b 48 10	 mov	 ecx, DWORD PTR [eax+16]
  00136	51		 push	 ecx
  00137	e8 00 00 00 00	 call	 ?DeathAction@@YAXPAUaction@@@Z ; DeathAction
  0013c	83 c4 04	 add	 esp, 4

; 2603 : 		   			    ext->ptMindIcon = NULL;

  0013f	8b 45 ec	 mov	 eax, DWORD PTR _ext$[ebp]
  00142	c7 40 10 00 00
	00 00		 mov	 DWORD PTR [eax+16], 0
$LN12@resetCharO:

; 2604 : 					}
; 2605 : #endif
; 2606 : #ifdef 人物光环
; 2607 : 					if (ext->ptmManorIcon != NULL) {

  00149	8b 45 ec	 mov	 eax, DWORD PTR _ext$[ebp]
  0014c	83 78 14 00	 cmp	 DWORD PTR [eax+20], 0
  00150	74 19		 je	 SHORT $LN13@resetCharO

; 2608 : 						DeathAction(ext->ptmManorIcon);

  00152	8b 45 ec	 mov	 eax, DWORD PTR _ext$[ebp]
  00155	8b 48 14	 mov	 ecx, DWORD PTR [eax+20]
  00158	51		 push	 ecx
  00159	e8 00 00 00 00	 call	 ?DeathAction@@YAXPAUaction@@@Z ; DeathAction
  0015e	83 c4 04	 add	 esp, 4

; 2609 : 						ext->ptmManorIcon = NULL;

  00161	8b 45 ec	 mov	 eax, DWORD PTR _ext$[ebp]
  00164	c7 40 14 00 00
	00 00		 mov	 DWORD PTR [eax+20], 0
$LN13@resetCharO:

; 2610 : 					}
; 2611 : #endif
; 2612 : #ifdef 人物称号
; 2613 : 					if (ext->ptTitleIcon != NULL) {

  0016b	8b 45 ec	 mov	 eax, DWORD PTR _ext$[ebp]
  0016e	83 78 18 00	 cmp	 DWORD PTR [eax+24], 0
  00172	74 19		 je	 SHORT $LN14@resetCharO

; 2614 : 						DeathAction(ext->ptTitleIcon);

  00174	8b 45 ec	 mov	 eax, DWORD PTR _ext$[ebp]
  00177	8b 48 18	 mov	 ecx, DWORD PTR [eax+24]
  0017a	51		 push	 ecx
  0017b	e8 00 00 00 00	 call	 ?DeathAction@@YAXPAUaction@@@Z ; DeathAction
  00180	83 c4 04	 add	 esp, 4

; 2615 : 						ext->ptTitleIcon = NULL;

  00183	8b 45 ec	 mov	 eax, DWORD PTR _ext$[ebp]
  00186	c7 40 18 00 00
	00 00		 mov	 DWORD PTR [eax+24], 0
$LN14@resetCharO:

; 2616 : 					}
; 2617 : #endif
; 2618 : #ifdef _ITEM_FIREWORK
; 2619 : 					if (ext->pActFirework[0] != NULL)

  0018d	b8 04 00 00 00	 mov	 eax, 4
  00192	6b c8 00	 imul	 ecx, eax, 0
  00195	8b 55 ec	 mov	 edx, DWORD PTR _ext$[ebp]
  00198	83 7c 0a 24 00	 cmp	 DWORD PTR [edx+ecx+36], 0
  0019d	74 18		 je	 SHORT $LN15@resetCharO

; 2620 : 						DeathAction(ext->pActFirework[0]);

  0019f	b8 04 00 00 00	 mov	 eax, 4
  001a4	6b c8 00	 imul	 ecx, eax, 0
  001a7	8b 55 ec	 mov	 edx, DWORD PTR _ext$[ebp]
  001aa	8b 44 0a 24	 mov	 eax, DWORD PTR [edx+ecx+36]
  001ae	50		 push	 eax
  001af	e8 00 00 00 00	 call	 ?DeathAction@@YAXPAUaction@@@Z ; DeathAction
  001b4	83 c4 04	 add	 esp, 4
$LN15@resetCharO:

; 2621 : 					if (ext->pActFirework[1] != NULL)

  001b7	b8 04 00 00 00	 mov	 eax, 4
  001bc	c1 e0 00	 shl	 eax, 0
  001bf	8b 4d ec	 mov	 ecx, DWORD PTR _ext$[ebp]
  001c2	83 7c 01 24 00	 cmp	 DWORD PTR [ecx+eax+36], 0
  001c7	74 18		 je	 SHORT $LN16@resetCharO

; 2622 : 						DeathAction(ext->pActFirework[1]);

  001c9	b8 04 00 00 00	 mov	 eax, 4
  001ce	c1 e0 00	 shl	 eax, 0
  001d1	8b 4d ec	 mov	 ecx, DWORD PTR _ext$[ebp]
  001d4	8b 54 01 24	 mov	 edx, DWORD PTR [ecx+eax+36]
  001d8	52		 push	 edx
  001d9	e8 00 00 00 00	 call	 ?DeathAction@@YAXPAUaction@@@Z ; DeathAction
  001de	83 c4 04	 add	 esp, 4
$LN16@resetCharO:

; 2623 : 					ext->pActFirework[0] = NULL;

  001e1	b8 04 00 00 00	 mov	 eax, 4
  001e6	6b c8 00	 imul	 ecx, eax, 0
  001e9	8b 55 ec	 mov	 edx, DWORD PTR _ext$[ebp]
  001ec	c7 44 0a 24 00
	00 00 00	 mov	 DWORD PTR [edx+ecx+36], 0

; 2624 : 					ext->pActFirework[1] = NULL;

  001f4	b8 04 00 00 00	 mov	 eax, 4
  001f9	c1 e0 00	 shl	 eax, 0
  001fc	8b 4d ec	 mov	 ecx, DWORD PTR _ext$[ebp]
  001ff	c7 44 01 24 00
	00 00 00	 mov	 DWORD PTR [ecx+eax+36], 0
$LN8@resetCharO:

; 2625 : 
; 2626 : #endif
; 2627 : 				}
; 2628 : 				DeathAction( charObj[i].ptAct );

  00207	69 45 f8 0c 01
	00 00		 imul	 eax, DWORD PTR _i$[ebp], 268
  0020e	8b 88 bc 00 00
	00		 mov	 ecx, DWORD PTR ?charObj@@3PAUCHAROBJ@@A[eax+188]
  00214	51		 push	 ecx
  00215	e8 00 00 00 00	 call	 ?DeathAction@@YAXPAUaction@@@Z ; DeathAction
  0021a	83 c4 04	 add	 esp, 4

; 2629 : 				charObj[i].ptAct = NULL;

  0021d	69 45 f8 0c 01
	00 00		 imul	 eax, DWORD PTR _i$[ebp], 268
  00224	c7 80 bc 00 00
	00 00 00 00 00	 mov	 DWORD PTR ?charObj@@3PAUCHAROBJ@@A[eax+188], 0
$LN6@resetCharO:

; 2630 : 			}
; 2631 : 			charObj[i].use = CHAROBJ_USE_FREE;

  0022e	69 45 f8 0c 01
	00 00		 imul	 eax, DWORD PTR _i$[ebp], 268
  00235	33 c9		 xor	 ecx, ecx
  00237	66 89 88 00 00
	00 00		 mov	 WORD PTR ?charObj@@3PAUCHAROBJ@@A[eax], cx

; 2632 : 			charObj[i].status = 0;

  0023e	69 45 f8 0c 01
	00 00		 imul	 eax, DWORD PTR _i$[ebp], 268
  00245	c7 80 2c 00 00
	00 00 00 00 00	 mov	 DWORD PTR ?charObj@@3PAUCHAROBJ@@A[eax+44], 0

; 2633 : 			charObj[i].id = 0;

  0024f	69 45 f8 0c 01
	00 00		 imul	 eax, DWORD PTR _i$[ebp], 268
  00256	c7 80 04 00 00
	00 00 00 00 00	 mov	 DWORD PTR ?charObj@@3PAUCHAROBJ@@A[eax+4], 0

; 2634 : 			charObj[i].stockDir = -1;

  00260	69 45 f8 0c 01
	00 00		 imul	 eax, DWORD PTR _i$[ebp], 268
  00267	c7 80 1c 00 00
	00 ff ff ff ff	 mov	 DWORD PTR ?charObj@@3PAUCHAROBJ@@A[eax+28], -1
$LN5@resetCharO:

; 2635 : 		}
; 2636 : 	}

  00271	e9 cf fd ff ff	 jmp	 $LN2@resetCharO
$LN3@resetCharO:

; 2637 : 
; 2638 : 	searchCharObj = 0;

  00276	c7 05 00 00 00
	00 00 00 00 00	 mov	 DWORD PTR ?searchCharObj@@3HA, 0 ; searchCharObj
$LN1@resetCharO:

; 2639 : }

  00280	5f		 pop	 edi
  00281	5e		 pop	 esi
  00282	5b		 pop	 ebx
  00283	81 c4 d8 00 00
	00		 add	 esp, 216		; 000000d8H
  00289	3b ec		 cmp	 ebp, esp
  0028b	e8 00 00 00 00	 call	 __RTC_CheckEsp
  00290	8b e5		 mov	 esp, ebp
  00292	5d		 pop	 ebp
  00293	c3		 ret	 0
?resetCharObj@@YAXXZ ENDP				; resetCharObj
_TEXT	ENDS
; Function compile flags: /Odtp /RTCsu /ZI
; File c:\users\administrator\desktop\????? ??\????? ??\client source code\system\character.cpp
;	COMDAT ?initCharObj@@YAXXZ
_TEXT	SEGMENT
_i$ = -8						; size = 4
?initCharObj@@YAXXZ PROC				; initCharObj, COMDAT

; 2534 : {

  00000	55		 push	 ebp
  00001	8b ec		 mov	 ebp, esp
  00003	81 ec cc 00 00
	00		 sub	 esp, 204		; 000000ccH
  00009	53		 push	 ebx
  0000a	56		 push	 esi
  0000b	57		 push	 edi
  0000c	8d bd 34 ff ff
	ff		 lea	 edi, DWORD PTR [ebp-204]
  00012	b9 33 00 00 00	 mov	 ecx, 51			; 00000033H
  00017	b8 cc cc cc cc	 mov	 eax, -858993460		; ccccccccH
  0001c	f3 ab		 rep stosd

; 2535 : 	int i;
; 2536 : 
; 2537 : 	maxCharObj = 0;

  0001e	c7 05 00 00 00
	00 00 00 00 00	 mov	 DWORD PTR ?maxCharObj@@3HA, 0 ; maxCharObj

; 2538 : 	tailCharObj = 0;

  00028	c7 05 00 00 00
	00 00 00 00 00	 mov	 DWORD PTR ?tailCharObj@@3HA, 0 ; tailCharObj

; 2539 : 	freeCharObj = 0;

  00032	c7 05 00 00 00
	00 00 00 00 00	 mov	 DWORD PTR ?freeCharObj@@3HA, 0 ; freeCharObj

; 2540 : 	for( i = 0; i < MAX_CHAROBJ; i++ )

  0003c	c7 45 f8 00 00
	00 00		 mov	 DWORD PTR _i$[ebp], 0
  00043	eb 09		 jmp	 SHORT $LN4@initCharOb
$LN2@initCharOb:
  00045	8b 45 f8	 mov	 eax, DWORD PTR _i$[ebp]
  00048	83 c0 01	 add	 eax, 1
  0004b	89 45 f8	 mov	 DWORD PTR _i$[ebp], eax
$LN4@initCharOb:
  0004e	81 7d f8 dc 05
	00 00		 cmp	 DWORD PTR _i$[ebp], 1500 ; 000005dcH
  00055	7d 6d		 jge	 SHORT $LN3@initCharOb

; 2541 : 	{
; 2542 : 		charObj[i].use = CHAROBJ_USE_FREE;

  00057	69 45 f8 0c 01
	00 00		 imul	 eax, DWORD PTR _i$[ebp], 268
  0005e	33 c9		 xor	 ecx, ecx
  00060	66 89 88 00 00
	00 00		 mov	 WORD PTR ?charObj@@3PAUCHAROBJ@@A[eax], cx

; 2543 : 		charObj[i].ptAct = NULL;

  00067	69 45 f8 0c 01
	00 00		 imul	 eax, DWORD PTR _i$[ebp], 268
  0006e	c7 80 bc 00 00
	00 00 00 00 00	 mov	 DWORD PTR ?charObj@@3PAUCHAROBJ@@A[eax+188], 0

; 2544 : 		charObj[i].status = 0;

  00078	69 45 f8 0c 01
	00 00		 imul	 eax, DWORD PTR _i$[ebp], 268
  0007f	c7 80 2c 00 00
	00 00 00 00 00	 mov	 DWORD PTR ?charObj@@3PAUCHAROBJ@@A[eax+44], 0

; 2545 : 		charObj[i].id = 0;

  00089	69 45 f8 0c 01
	00 00		 imul	 eax, DWORD PTR _i$[ebp], 268
  00090	c7 80 04 00 00
	00 00 00 00 00	 mov	 DWORD PTR ?charObj@@3PAUCHAROBJ@@A[eax+4], 0

; 2546 : 		charObj[i].stockDir = -1;

  0009a	69 45 f8 0c 01
	00 00		 imul	 eax, DWORD PTR _i$[ebp], 268
  000a1	c7 80 1c 00 00
	00 ff ff ff ff	 mov	 DWORD PTR ?charObj@@3PAUCHAROBJ@@A[eax+28], -1

; 2547 : 		charObj[i].name[0] = '\0';

  000ab	69 45 f8 0c 01
	00 00		 imul	 eax, DWORD PTR _i$[ebp], 268
  000b2	b9 01 00 00 00	 mov	 ecx, 1
  000b7	6b d1 00	 imul	 edx, ecx, 0
  000ba	c6 84 10 38 00
	00 00 00	 mov	 BYTE PTR ?charObj@@3PAUCHAROBJ@@A[eax+edx+56], 0

; 2548 : 	}

  000c2	eb 81		 jmp	 SHORT $LN2@initCharOb
$LN3@initCharOb:

; 2549 : 
; 2550 : 	searchCharObj = 0;

  000c4	c7 05 00 00 00
	00 00 00 00 00	 mov	 DWORD PTR ?searchCharObj@@3HA, 0 ; searchCharObj

; 2551 : }

  000ce	5f		 pop	 edi
  000cf	5e		 pop	 esi
  000d0	5b		 pop	 ebx
  000d1	8b e5		 mov	 esp, ebp
  000d3	5d		 pop	 ebp
  000d4	c3		 ret	 0
?initCharObj@@YAXXZ ENDP				; initCharObj
_TEXT	ENDS
; Function compile flags: /Odtp /RTCsu /ZI
; File c:\users\administrator\desktop\????? ??\????? ??\client source code\system\character.cpp
;	COMDAT ?delCharObj@@YAXH@Z
_TEXT	SEGMENT
_ext$ = -32						; size = 4
_no$ = -20						; size = 4
_i$ = -8						; size = 4
_id$ = 8						; size = 4
?delCharObj@@YAXH@Z PROC				; delCharObj, COMDAT

; 2436 : {

  00000	55		 push	 ebp
  00001	8b ec		 mov	 ebp, esp
  00003	81 ec e4 00 00
	00		 sub	 esp, 228		; 000000e4H
  00009	53		 push	 ebx
  0000a	56		 push	 esi
  0000b	57		 push	 edi
  0000c	8d bd 1c ff ff
	ff		 lea	 edi, DWORD PTR [ebp-228]
  00012	b9 39 00 00 00	 mov	 ecx, 57			; 00000039H
  00017	b8 cc cc cc cc	 mov	 eax, -858993460		; ccccccccH
  0001c	f3 ab		 rep stosd

; 2437 : 	int i;
; 2438 : 	int no;
; 2439 : 	CHAREXTRA *ext;
; 2440 : 
; 2441 : 	if( pc.id == id ){

  0001e	a1 08 00 00 00	 mov	 eax, DWORD PTR ?pc@@3UPC@@A+8
  00023	3b 45 08	 cmp	 eax, DWORD PTR _id$[ebp]
  00026	75 0a		 jne	 SHORT $LN5@delCharObj

; 2442 : 		resetPc();

  00028	e8 00 00 00 00	 call	 ?resetPc@@YAXXZ		; resetPc

; 2443 : 		return;

  0002d	e9 8e 02 00 00	 jmp	 $LN1@delCharObj
$LN5@delCharObj:

; 2444 : 	}
; 2445 : 	no = searchCharObjId( id );

  00032	8b 45 08	 mov	 eax, DWORD PTR _id$[ebp]
  00035	50		 push	 eax
  00036	e8 00 00 00 00	 call	 ?searchCharObjId@@YAHH@Z ; searchCharObjId
  0003b	83 c4 04	 add	 esp, 4
  0003e	89 45 ec	 mov	 DWORD PTR _no$[ebp], eax

; 2446 : 	// ID???????
; 2447 : 	if( no >= 0 ){

  00041	83 7d ec 00	 cmp	 DWORD PTR _no$[ebp], 0
  00045	0f 8c 75 02 00
	00		 jl	 $LN1@delCharObj

; 2448 : 		if( charObj[no].ptAct != NULL ){

  0004b	69 45 ec 0c 01
	00 00		 imul	 eax, DWORD PTR _no$[ebp], 268
  00052	83 b8 bc 00 00
	00 00		 cmp	 DWORD PTR ?charObj@@3PAUCHAROBJ@@A[eax+188], 0
  00059	0f 84 cb 01 00
	00		 je	 $LN7@delCharObj

; 2449 : 			ext = (CHAREXTRA *)charObj[no].ptAct->pYobi;

  0005f	69 45 ec 0c 01
	00 00		 imul	 eax, DWORD PTR _no$[ebp], 268
  00066	8b 88 bc 00 00
	00		 mov	 ecx, DWORD PTR ?charObj@@3PAUCHAROBJ@@A[eax+188]
  0006c	8b 51 0c	 mov	 edx, DWORD PTR [ecx+12]
  0006f	89 55 e0	 mov	 DWORD PTR _ext$[ebp], edx

; 2450 : 			if ((int)ext == 0xdddddddd)

  00072	81 7d e0 dd dd
	dd dd		 cmp	 DWORD PTR _ext$[ebp], -572662307 ; ddddddddH
  00079	75 16		 jne	 SHORT $LN8@delCharObj

; 2451 : 			{
; 2452 : 				charObj[no].ptAct = NULL;

  0007b	69 45 ec 0c 01
	00 00		 imul	 eax, DWORD PTR _no$[ebp], 268
  00082	c7 80 bc 00 00
	00 00 00 00 00	 mov	 DWORD PTR ?charObj@@3PAUCHAROBJ@@A[eax+188], 0

; 2453 : 				return;

  0008c	e9 2f 02 00 00	 jmp	 $LN1@delCharObj
$LN8@delCharObj:

; 2454 : 			}
; 2455 : 			if( ext != NULL ){

  00091	83 7d e0 00	 cmp	 DWORD PTR _ext$[ebp], 0
  00095	0f 84 68 01 00
	00		 je	 $LN9@delCharObj

; 2456 : 				if( ext->ptActLeaderMark != NULL ){

  0009b	8b 45 e0	 mov	 eax, DWORD PTR _ext$[ebp]
  0009e	83 78 08 00	 cmp	 DWORD PTR [eax+8], 0
  000a2	74 19		 je	 SHORT $LN10@delCharObj

; 2457 : 					DeathAction( ext->ptActLeaderMark );

  000a4	8b 45 e0	 mov	 eax, DWORD PTR _ext$[ebp]
  000a7	8b 48 08	 mov	 ecx, DWORD PTR [eax+8]
  000aa	51		 push	 ecx
  000ab	e8 00 00 00 00	 call	 ?DeathAction@@YAXPAUaction@@@Z ; DeathAction
  000b0	83 c4 04	 add	 esp, 4

; 2458 : 					ext->ptActLeaderMark = NULL;

  000b3	8b 45 e0	 mov	 eax, DWORD PTR _ext$[ebp]
  000b6	c7 40 08 00 00
	00 00		 mov	 DWORD PTR [eax+8], 0
$LN10@delCharObj:

; 2459 : 				}
; 2460 : 				if( ext->ptActMagicEffect != NULL ){

  000bd	8b 45 e0	 mov	 eax, DWORD PTR _ext$[ebp]
  000c0	83 78 0c 00	 cmp	 DWORD PTR [eax+12], 0
  000c4	74 19		 je	 SHORT $LN11@delCharObj

; 2461 : 					DeathAction( ext->ptActMagicEffect );

  000c6	8b 45 e0	 mov	 eax, DWORD PTR _ext$[ebp]
  000c9	8b 48 0c	 mov	 ecx, DWORD PTR [eax+12]
  000cc	51		 push	 ecx
  000cd	e8 00 00 00 00	 call	 ?DeathAction@@YAXPAUaction@@@Z ; DeathAction
  000d2	83 c4 04	 add	 esp, 4

; 2462 : 					ext->ptActMagicEffect = NULL;

  000d5	8b 45 e0	 mov	 eax, DWORD PTR _ext$[ebp]
  000d8	c7 40 0c 00 00
	00 00		 mov	 DWORD PTR [eax+12], 0
$LN11@delCharObj:

; 2463 : 				}
; 2464 : #ifdef __EMOTION
; 2465 : 				if( ext->ptActEmotion != NULL ){
; 2466 : 					DeathAction( ext->ptActEmotion );
; 2467 : 					ext->ptActEmotion = NULL;
; 2468 : 				}
; 2469 : #endif
; 2470 : #ifdef _STREET_VENDOR
; 2471 : 				if(ext->ptStreetVendor != NULL){

  000df	8b 45 e0	 mov	 eax, DWORD PTR _ext$[ebp]
  000e2	83 78 1c 00	 cmp	 DWORD PTR [eax+28], 0
  000e6	74 19		 je	 SHORT $LN12@delCharObj

; 2472 : 					DeathAction(ext->ptStreetVendor);

  000e8	8b 45 e0	 mov	 eax, DWORD PTR _ext$[ebp]
  000eb	8b 48 1c	 mov	 ecx, DWORD PTR [eax+28]
  000ee	51		 push	 ecx
  000ef	e8 00 00 00 00	 call	 ?DeathAction@@YAXPAUaction@@@Z ; DeathAction
  000f4	83 c4 04	 add	 esp, 4

; 2473 : 					ext->ptStreetVendor = NULL;

  000f7	8b 45 e0	 mov	 eax, DWORD PTR _ext$[ebp]
  000fa	c7 40 1c 00 00
	00 00		 mov	 DWORD PTR [eax+28], 0
$LN12@delCharObj:

; 2474 : 				}
; 2475 : #endif
; 2476 : #ifdef _MIND_ICON
; 2477 : 				if( ext->ptMindIcon != NULL ){

  00101	8b 45 e0	 mov	 eax, DWORD PTR _ext$[ebp]
  00104	83 78 10 00	 cmp	 DWORD PTR [eax+16], 0
  00108	74 19		 je	 SHORT $LN13@delCharObj

; 2478 : 					DeathAction( ext->ptMindIcon );

  0010a	8b 45 e0	 mov	 eax, DWORD PTR _ext$[ebp]
  0010d	8b 48 10	 mov	 ecx, DWORD PTR [eax+16]
  00110	51		 push	 ecx
  00111	e8 00 00 00 00	 call	 ?DeathAction@@YAXPAUaction@@@Z ; DeathAction
  00116	83 c4 04	 add	 esp, 4

; 2479 : 					ext->ptMindIcon = NULL;

  00119	8b 45 e0	 mov	 eax, DWORD PTR _ext$[ebp]
  0011c	c7 40 10 00 00
	00 00		 mov	 DWORD PTR [eax+16], 0
$LN13@delCharObj:

; 2480 : 				}
; 2481 : #endif
; 2482 : #ifdef 人物光环
; 2483 : 				if (ext->ptmManorIcon != NULL) {

  00123	8b 45 e0	 mov	 eax, DWORD PTR _ext$[ebp]
  00126	83 78 14 00	 cmp	 DWORD PTR [eax+20], 0
  0012a	74 19		 je	 SHORT $LN14@delCharObj

; 2484 : 					DeathAction(ext->ptmManorIcon);

  0012c	8b 45 e0	 mov	 eax, DWORD PTR _ext$[ebp]
  0012f	8b 48 14	 mov	 ecx, DWORD PTR [eax+20]
  00132	51		 push	 ecx
  00133	e8 00 00 00 00	 call	 ?DeathAction@@YAXPAUaction@@@Z ; DeathAction
  00138	83 c4 04	 add	 esp, 4

; 2485 : 					ext->ptmManorIcon = NULL;

  0013b	8b 45 e0	 mov	 eax, DWORD PTR _ext$[ebp]
  0013e	c7 40 14 00 00
	00 00		 mov	 DWORD PTR [eax+20], 0
$LN14@delCharObj:

; 2486 : 				}
; 2487 : #endif
; 2488 : #ifdef 人物称号
; 2489 : 				if (ext->ptTitleIcon != NULL) {

  00145	8b 45 e0	 mov	 eax, DWORD PTR _ext$[ebp]
  00148	83 78 18 00	 cmp	 DWORD PTR [eax+24], 0
  0014c	74 19		 je	 SHORT $LN15@delCharObj

; 2490 : 					DeathAction(ext->ptTitleIcon);

  0014e	8b 45 e0	 mov	 eax, DWORD PTR _ext$[ebp]
  00151	8b 48 18	 mov	 ecx, DWORD PTR [eax+24]
  00154	51		 push	 ecx
  00155	e8 00 00 00 00	 call	 ?DeathAction@@YAXPAUaction@@@Z ; DeathAction
  0015a	83 c4 04	 add	 esp, 4

; 2491 : 					ext->ptTitleIcon = NULL;

  0015d	8b 45 e0	 mov	 eax, DWORD PTR _ext$[ebp]
  00160	c7 40 18 00 00
	00 00		 mov	 DWORD PTR [eax+24], 0
$LN15@delCharObj:

; 2492 : 				}
; 2493 : #endif
; 2494 : #ifdef _NB_任务指引
; 2495 : 				if( ext->ptNoticeIcon != NULL ){

  00167	8b 45 e0	 mov	 eax, DWORD PTR _ext$[ebp]
  0016a	83 78 30 00	 cmp	 DWORD PTR [eax+48], 0
  0016e	74 19		 je	 SHORT $LN16@delCharObj

; 2496 : 					DeathAction( ext->ptNoticeIcon );

  00170	8b 45 e0	 mov	 eax, DWORD PTR _ext$[ebp]
  00173	8b 48 30	 mov	 ecx, DWORD PTR [eax+48]
  00176	51		 push	 ecx
  00177	e8 00 00 00 00	 call	 ?DeathAction@@YAXPAUaction@@@Z ; DeathAction
  0017c	83 c4 04	 add	 esp, 4

; 2497 : 					ext->ptNoticeIcon = NULL;

  0017f	8b 45 e0	 mov	 eax, DWORD PTR _ext$[ebp]
  00182	c7 40 30 00 00
	00 00		 mov	 DWORD PTR [eax+48], 0
$LN16@delCharObj:

; 2498 : 				}
; 2499 : #endif
; 2500 : #ifdef _ITEM_FIREWORK
; 2501 : 				if (ext->pActFirework[0] != NULL)

  00189	b8 04 00 00 00	 mov	 eax, 4
  0018e	6b c8 00	 imul	 ecx, eax, 0
  00191	8b 55 e0	 mov	 edx, DWORD PTR _ext$[ebp]
  00194	83 7c 0a 24 00	 cmp	 DWORD PTR [edx+ecx+36], 0
  00199	74 18		 je	 SHORT $LN17@delCharObj

; 2502 : 					DeathAction(ext->pActFirework[0]);

  0019b	b8 04 00 00 00	 mov	 eax, 4
  001a0	6b c8 00	 imul	 ecx, eax, 0
  001a3	8b 55 e0	 mov	 edx, DWORD PTR _ext$[ebp]
  001a6	8b 44 0a 24	 mov	 eax, DWORD PTR [edx+ecx+36]
  001aa	50		 push	 eax
  001ab	e8 00 00 00 00	 call	 ?DeathAction@@YAXPAUaction@@@Z ; DeathAction
  001b0	83 c4 04	 add	 esp, 4
$LN17@delCharObj:

; 2503 : 				if (ext->pActFirework[1] != NULL)

  001b3	b8 04 00 00 00	 mov	 eax, 4
  001b8	c1 e0 00	 shl	 eax, 0
  001bb	8b 4d e0	 mov	 ecx, DWORD PTR _ext$[ebp]
  001be	83 7c 01 24 00	 cmp	 DWORD PTR [ecx+eax+36], 0
  001c3	74 18		 je	 SHORT $LN18@delCharObj

; 2504 : 					DeathAction(ext->pActFirework[1]);

  001c5	b8 04 00 00 00	 mov	 eax, 4
  001ca	c1 e0 00	 shl	 eax, 0
  001cd	8b 4d e0	 mov	 ecx, DWORD PTR _ext$[ebp]
  001d0	8b 54 01 24	 mov	 edx, DWORD PTR [ecx+eax+36]
  001d4	52		 push	 edx
  001d5	e8 00 00 00 00	 call	 ?DeathAction@@YAXPAUaction@@@Z ; DeathAction
  001da	83 c4 04	 add	 esp, 4
$LN18@delCharObj:

; 2505 : 				ext->pActFirework[0] = NULL;

  001dd	b8 04 00 00 00	 mov	 eax, 4
  001e2	6b c8 00	 imul	 ecx, eax, 0
  001e5	8b 55 e0	 mov	 edx, DWORD PTR _ext$[ebp]
  001e8	c7 44 0a 24 00
	00 00 00	 mov	 DWORD PTR [edx+ecx+36], 0

; 2506 : 				ext->pActFirework[1] = NULL;

  001f0	b8 04 00 00 00	 mov	 eax, 4
  001f5	c1 e0 00	 shl	 eax, 0
  001f8	8b 4d e0	 mov	 ecx, DWORD PTR _ext$[ebp]
  001fb	c7 44 01 24 00
	00 00 00	 mov	 DWORD PTR [ecx+eax+36], 0
$LN9@delCharObj:

; 2507 : #endif
; 2508 : 			}
; 2509 : 			DeathAction( charObj[no].ptAct );

  00203	69 45 ec 0c 01
	00 00		 imul	 eax, DWORD PTR _no$[ebp], 268
  0020a	8b 88 bc 00 00
	00		 mov	 ecx, DWORD PTR ?charObj@@3PAUCHAROBJ@@A[eax+188]
  00210	51		 push	 ecx
  00211	e8 00 00 00 00	 call	 ?DeathAction@@YAXPAUaction@@@Z ; DeathAction
  00216	83 c4 04	 add	 esp, 4

; 2510 : 			charObj[no].ptAct = NULL;

  00219	69 45 ec 0c 01
	00 00		 imul	 eax, DWORD PTR _no$[ebp], 268
  00220	c7 80 bc 00 00
	00 00 00 00 00	 mov	 DWORD PTR ?charObj@@3PAUCHAROBJ@@A[eax+188], 0
$LN7@delCharObj:

; 2511 : 		}
; 2512 : 		charObj[no].use = CHAROBJ_USE_FREE;

  0022a	69 45 ec 0c 01
	00 00		 imul	 eax, DWORD PTR _no$[ebp], 268
  00231	33 c9		 xor	 ecx, ecx
  00233	66 89 88 00 00
	00 00		 mov	 WORD PTR ?charObj@@3PAUCHAROBJ@@A[eax], cx

; 2513 : 		charObj[no].status = 0;

  0023a	69 45 ec 0c 01
	00 00		 imul	 eax, DWORD PTR _no$[ebp], 268
  00241	c7 80 2c 00 00
	00 00 00 00 00	 mov	 DWORD PTR ?charObj@@3PAUCHAROBJ@@A[eax+44], 0

; 2514 : 		charObj[no].stockDir = -1;

  0024b	69 45 ec 0c 01
	00 00		 imul	 eax, DWORD PTR _no$[ebp], 268
  00252	c7 80 1c 00 00
	00 ff ff ff ff	 mov	 DWORD PTR ?charObj@@3PAUCHAROBJ@@A[eax+28], -1

; 2515 : 		// K???
; 2516 : 		if( maxCharObj > 0 )

  0025c	83 3d 00 00 00
	00 00		 cmp	 DWORD PTR ?maxCharObj@@3HA, 0 ; maxCharObj
  00263	7e 0d		 jle	 SHORT $LN19@delCharObj

; 2517 : 			maxCharObj--;

  00265	a1 00 00 00 00	 mov	 eax, DWORD PTR ?maxCharObj@@3HA ; maxCharObj
  0026a	83 e8 01	 sub	 eax, 1
  0026d	a3 00 00 00 00	 mov	 DWORD PTR ?maxCharObj@@3HA, eax ; maxCharObj
$LN19@delCharObj:

; 2518 : 		// ?????t??q??????????t???
; 2519 : 		if( freeCharObj > no )

  00272	a1 00 00 00 00	 mov	 eax, DWORD PTR ?freeCharObj@@3HA ; freeCharObj
  00277	3b 45 ec	 cmp	 eax, DWORD PTR _no$[ebp]
  0027a	7e 08		 jle	 SHORT $LN20@delCharObj

; 2520 : 			freeCharObj = no;

  0027c	8b 45 ec	 mov	 eax, DWORD PTR _no$[ebp]
  0027f	a3 00 00 00 00	 mov	 DWORD PTR ?freeCharObj@@3HA, eax ; freeCharObj
$LN20@delCharObj:

; 2521 : 		// K?????????S?
; 2522 : 		for( i = tailCharObj; i > 0; i-- ){

  00284	a1 00 00 00 00	 mov	 eax, DWORD PTR ?tailCharObj@@3HA ; tailCharObj
  00289	89 45 f8	 mov	 DWORD PTR _i$[ebp], eax
  0028c	eb 09		 jmp	 SHORT $LN4@delCharObj
$LN2@delCharObj:
  0028e	8b 45 f8	 mov	 eax, DWORD PTR _i$[ebp]
  00291	83 e8 01	 sub	 eax, 1
  00294	89 45 f8	 mov	 DWORD PTR _i$[ebp], eax
$LN4@delCharObj:
  00297	83 7d f8 00	 cmp	 DWORD PTR _i$[ebp], 0
  0029b	7e 23		 jle	 SHORT $LN1@delCharObj

; 2523 : 			if( charObj[i-1].use != CHAROBJ_USE_FREE ){

  0029d	8b 45 f8	 mov	 eax, DWORD PTR _i$[ebp]
  002a0	83 e8 01	 sub	 eax, 1
  002a3	69 c8 0c 01 00
	00		 imul	 ecx, eax, 268
  002a9	0f bf 91 00 00
	00 00		 movsx	 edx, WORD PTR ?charObj@@3PAUCHAROBJ@@A[ecx]
  002b0	85 d2		 test	 edx, edx
  002b2	74 0a		 je	 SHORT $LN21@delCharObj

; 2524 : 				tailCharObj = i;

  002b4	8b 45 f8	 mov	 eax, DWORD PTR _i$[ebp]
  002b7	a3 00 00 00 00	 mov	 DWORD PTR ?tailCharObj@@3HA, eax ; tailCharObj

; 2525 : 				break;

  002bc	eb 02		 jmp	 SHORT $LN1@delCharObj
$LN21@delCharObj:

; 2526 : 			}
; 2527 : 		}

  002be	eb ce		 jmp	 SHORT $LN2@delCharObj
$LN1@delCharObj:

; 2528 : 	}
; 2529 : }

  002c0	5f		 pop	 edi
  002c1	5e		 pop	 esi
  002c2	5b		 pop	 ebx
  002c3	81 c4 e4 00 00
	00		 add	 esp, 228		; 000000e4H
  002c9	3b ec		 cmp	 ebp, esp
  002cb	e8 00 00 00 00	 call	 __RTC_CheckEsp
  002d0	8b e5		 mov	 esp, ebp
  002d2	5d		 pop	 ebp
  002d3	c3		 ret	 0
?delCharObj@@YAXH@Z ENDP				; delCharObj
_TEXT	ENDS
; Function compile flags: /Odtp /RTCsu /ZI
; File c:\users\administrator\desktop\????? ??\????? ??\client source code\system\character.cpp
;	COMDAT ?getAtrCharObjType@@YAHH@Z
_TEXT	SEGMENT
tv64 = -208						; size = 4
_ret$ = -8						; size = 4
_type$ = 8						; size = 4
?getAtrCharObjType@@YAHH@Z PROC				; getAtrCharObjType, COMDAT

; 2400 : {

  00000	55		 push	 ebp
  00001	8b ec		 mov	 ebp, esp
  00003	81 ec d0 00 00
	00		 sub	 esp, 208		; 000000d0H
  00009	53		 push	 ebx
  0000a	56		 push	 esi
  0000b	57		 push	 edi
  0000c	8d bd 30 ff ff
	ff		 lea	 edi, DWORD PTR [ebp-208]
  00012	b9 34 00 00 00	 mov	 ecx, 52			; 00000034H
  00017	b8 cc cc cc cc	 mov	 eax, -858993460		; ccccccccH
  0001c	f3 ab		 rep stosd

; 2401 : 	int ret;
; 2402 : 	switch( type ){

  0001e	8b 45 08	 mov	 eax, DWORD PTR _type$[ebp]
  00021	89 85 30 ff ff
	ff		 mov	 DWORD PTR tv64[ebp], eax
  00027	8b 8d 30 ff ff
	ff		 mov	 ecx, DWORD PTR tv64[ebp]
  0002d	83 e9 01	 sub	 ecx, 1
  00030	89 8d 30 ff ff
	ff		 mov	 DWORD PTR tv64[ebp], ecx
  00036	83 bd 30 ff ff
	ff 1f		 cmp	 DWORD PTR tv64[ebp], 31	; 0000001fH
  0003d	77 2f		 ja	 SHORT $LN7@getAtrChar
  0003f	8b 95 30 ff ff
	ff		 mov	 edx, DWORD PTR tv64[ebp]
  00045	0f b6 82 00 00
	00 00		 movzx	 eax, BYTE PTR $LN9@getAtrChar[edx]
  0004c	ff 24 85 00 00
	00 00		 jmp	 DWORD PTR $LN10@getAtrChar[eax*4]
$LN4@getAtrChar:

; 2403 : 		case CHAR_TYPEPLAYER:
; 2404 : 			ret = CHAROBJ_TYPE_USER_NPC;

  00053	c7 45 f8 08 00
	00 00		 mov	 DWORD PTR _ret$[ebp], 8

; 2405 : 			break;

  0005a	eb 19		 jmp	 SHORT $LN2@getAtrChar
$LN5@getAtrChar:

; 2406 : 		case CHAR_TYPEDENGON:
; 2407 : 		case CHAR_TYPEDUELRANKING:
; 2408 : 		case CHAR_TYPEMSG:
; 2409 : 			ret = CHAROBJ_TYPE_NPC | CHAROBJ_TYPE_LOOKAT;

  0005c	c7 45 f8 11 00
	00 00		 mov	 DWORD PTR _ret$[ebp], 17 ; 00000011H

; 2410 : 			break;

  00063	eb 10		 jmp	 SHORT $LN2@getAtrChar
$LN6@getAtrChar:

; 2411 : 		case CHAR_TYPEBUS:
; 2412 : 			ret = CHAROBJ_TYPE_NPC | CHAROBJ_TYPE_PARTY_OK;

  00065	c7 45 f8 21 00
	00 00		 mov	 DWORD PTR _ret$[ebp], 33 ; 00000021H

; 2413 : 			break;

  0006c	eb 07		 jmp	 SHORT $LN2@getAtrChar
$LN7@getAtrChar:

; 2414 : 		default:
; 2415 : 			ret = CHAROBJ_TYPE_NPC;

  0006e	c7 45 f8 01 00
	00 00		 mov	 DWORD PTR _ret$[ebp], 1
$LN2@getAtrChar:

; 2416 : 			break;
; 2417 : 	}
; 2418 : 	return ret;

  00075	8b 45 f8	 mov	 eax, DWORD PTR _ret$[ebp]

; 2419 : }

  00078	5f		 pop	 edi
  00079	5e		 pop	 esi
  0007a	5b		 pop	 ebx
  0007b	8b e5		 mov	 esp, ebp
  0007d	5d		 pop	 ebp
  0007e	c3		 ret	 0
  0007f	90		 npad	 1
$LN10@getAtrChar:
  00080	00 00 00 00	 DD	 $LN4@getAtrChar
  00084	00 00 00 00	 DD	 $LN5@getAtrChar
  00088	00 00 00 00	 DD	 $LN6@getAtrChar
  0008c	00 00 00 00	 DD	 $LN7@getAtrChar
$LN9@getAtrChar:
  00090	00		 DB	 0
  00091	03		 DB	 3
  00092	03		 DB	 3
  00093	03		 DB	 3
  00094	03		 DB	 3
  00095	01		 DB	 1
  00096	03		 DB	 3
  00097	03		 DB	 3
  00098	03		 DB	 3
  00099	03		 DB	 3
  0009a	03		 DB	 3
  0009b	03		 DB	 3
  0009c	01		 DB	 1
  0009d	03		 DB	 3
  0009e	03		 DB	 3
  0009f	03		 DB	 3
  000a0	03		 DB	 3
  000a1	03		 DB	 3
  000a2	03		 DB	 3
  000a3	03		 DB	 3
  000a4	03		 DB	 3
  000a5	03		 DB	 3
  000a6	03		 DB	 3
  000a7	03		 DB	 3
  000a8	03		 DB	 3
  000a9	03		 DB	 3
  000aa	01		 DB	 1
  000ab	03		 DB	 3
  000ac	03		 DB	 3
  000ad	03		 DB	 3
  000ae	03		 DB	 3
  000af	02		 DB	 2
?getAtrCharObjType@@YAHH@Z ENDP				; getAtrCharObjType
_TEXT	ENDS
; Function compile flags: /Odtp /RTCsu /ZI
; File c:\users\administrator\desktop\????? ??\????? ??\client source code\system\character.cpp
;	COMDAT ?getAtrCharType@@YAHH@Z
_TEXT	SEGMENT
tv64 = -196						; size = 4
_type$ = 8						; size = 4
?getAtrCharType@@YAHH@Z PROC				; getAtrCharType, COMDAT

; 2380 : {

  00000	55		 push	 ebp
  00001	8b ec		 mov	 ebp, esp
  00003	81 ec c4 00 00
	00		 sub	 esp, 196		; 000000c4H
  00009	53		 push	 ebx
  0000a	56		 push	 esi
  0000b	57		 push	 edi
  0000c	8d bd 3c ff ff
	ff		 lea	 edi, DWORD PTR [ebp-196]
  00012	b9 31 00 00 00	 mov	 ecx, 49			; 00000031H
  00017	b8 cc cc cc cc	 mov	 eax, -858993460		; ccccccccH
  0001c	f3 ab		 rep stosd

; 2381 : 	switch( type ){

  0001e	8b 45 08	 mov	 eax, DWORD PTR _type$[ebp]
  00021	89 85 3c ff ff
	ff		 mov	 DWORD PTR tv64[ebp], eax
  00027	83 bd 3c ff ff
	ff 01		 cmp	 DWORD PTR tv64[ebp], 1
  0002e	74 14		 je	 SHORT $LN4@getAtrChar
  00030	83 bd 3c ff ff
	ff 03		 cmp	 DWORD PTR tv64[ebp], 3
  00037	74 12		 je	 SHORT $LN5@getAtrChar
  00039	83 bd 3c ff ff
	ff 20		 cmp	 DWORD PTR tv64[ebp], 32	; 00000020H
  00040	74 02		 je	 SHORT $LN4@getAtrChar
  00042	eb 0e		 jmp	 SHORT $LN6@getAtrChar
$LN4@getAtrChar:

; 2382 : 		// ???
; 2383 : 		case CHAR_TYPEPLAYER:
; 2384 : 		case CHAR_TYPEBUS:
; 2385 : 			return ACT_ATR_TYPE_OTHER_PC;

  00044	b8 00 01 00 00	 mov	 eax, 256		; 00000100H
  00049	eb 10		 jmp	 SHORT $LN1@getAtrChar
$LN5@getAtrChar:

; 2386 : 		// ???
; 2387 : 		case CHAR_TYPEPET:
; 2388 : 			return ACT_ATR_TYPE_PET;

  0004b	b8 00 02 00 00	 mov	 eax, 512		; 00000200H
  00050	eb 09		 jmp	 SHORT $LN1@getAtrChar
$LN6@getAtrChar:

; 2389 : 		// ??\
; 2390 : 		default:
; 2391 : 			return ACT_ATR_TYPE_OTHER;

  00052	b8 00 10 00 00	 mov	 eax, 4096		; 00001000H
  00057	eb 02		 jmp	 SHORT $LN1@getAtrChar

; 2392 : 	}
; 2393 : 	return 0;

  00059	33 c0		 xor	 eax, eax
$LN1@getAtrChar:

; 2394 : }

  0005b	5f		 pop	 edi
  0005c	5e		 pop	 esi
  0005d	5b		 pop	 ebx
  0005e	8b e5		 mov	 esp, ebp
  00060	5d		 pop	 ebp
  00061	c3		 ret	 0
?getAtrCharType@@YAHH@Z ENDP				; getAtrCharType
_TEXT	ENDS
; Function compile flags: /Odtp /RTCsu /ZI
; File c:\users\administrator\desktop\????? ??\????? ??\client source code\system\character.cpp
;	COMDAT ?setMoneyCharObj@@YAXHHHHHHPAD@Z
_TEXT	SEGMENT
_ext$ = -32						; size = 4
_existFlag$ = -20					; size = 4
_no$ = -8						; size = 4
_id$ = 8						; size = 4
_graNo$ = 12						; size = 4
_gx$ = 16						; size = 4
_gy$ = 20						; size = 4
_dir$ = 24						; size = 4
_money$ = 28						; size = 4
_info$ = 32						; size = 4
?setMoneyCharObj@@YAXHHHHHHPAD@Z PROC			; setMoneyCharObj, COMDAT

; 2298 : {

  00000	55		 push	 ebp
  00001	8b ec		 mov	 ebp, esp
  00003	81 ec e4 00 00
	00		 sub	 esp, 228		; 000000e4H
  00009	53		 push	 ebx
  0000a	56		 push	 esi
  0000b	57		 push	 edi
  0000c	8d bd 1c ff ff
	ff		 lea	 edi, DWORD PTR [ebp-228]
  00012	b9 39 00 00 00	 mov	 ecx, 57			; 00000039H
  00017	b8 cc cc cc cc	 mov	 eax, -858993460		; ccccccccH
  0001c	f3 ab		 rep stosd

; 2299 : 	int no;
; 2300 : 	BOOL existFlag = FALSE;

  0001e	c7 45 ec 00 00
	00 00		 mov	 DWORD PTR _existFlag$[ebp], 0

; 2301 : 	CHAREXTRA *ext;
; 2302 : 	// K???????????
; 2303 : 	if( (no = searchCharObjId( id )) >= 0 )

  00025	8b 45 08	 mov	 eax, DWORD PTR _id$[ebp]
  00028	50		 push	 eax
  00029	e8 00 00 00 00	 call	 ?searchCharObjId@@YAHH@Z ; searchCharObjId
  0002e	83 c4 04	 add	 esp, 4
  00031	89 45 f8	 mov	 DWORD PTR _no$[ebp], eax
  00034	83 7d f8 00	 cmp	 DWORD PTR _no$[ebp], 0
  00038	7c 07		 jl	 SHORT $LN2@setMoneyCh

; 2304 : 		existFlag = TRUE;

  0003a	c7 45 ec 01 00
	00 00		 mov	 DWORD PTR _existFlag$[ebp], 1
$LN2@setMoneyCh:

; 2305 : 	// ??K?????????K?
; 2306 : 	if( !existFlag ){

  00041	83 7d ec 00	 cmp	 DWORD PTR _existFlag$[ebp], 0
  00045	0f 85 af 00 00
	00		 jne	 $LN3@setMoneyCh

; 2307 : 		no = getCharObjBuf();

  0004b	e8 00 00 00 00	 call	 ?getCharObjBuf@@YAHXZ	; getCharObjBuf
  00050	89 45 f8	 mov	 DWORD PTR _no$[ebp], eax

; 2308 : 		if( no < 0 )

  00053	83 7d f8 00	 cmp	 DWORD PTR _no$[ebp], 0
  00057	7d 05		 jge	 SHORT $LN4@setMoneyCh

; 2309 : 			return;	// ????????????

  00059	e9 dd 01 00 00	 jmp	 $LN1@setMoneyCh
$LN4@setMoneyCh:

; 2310 : 		charObj[no].ptAct = createCharAction( graNo, gx, gy, dir );

  0005e	8b 45 18	 mov	 eax, DWORD PTR _dir$[ebp]
  00061	50		 push	 eax
  00062	8b 4d 14	 mov	 ecx, DWORD PTR _gy$[ebp]
  00065	51		 push	 ecx
  00066	8b 55 10	 mov	 edx, DWORD PTR _gx$[ebp]
  00069	52		 push	 edx
  0006a	8b 45 0c	 mov	 eax, DWORD PTR _graNo$[ebp]
  0006d	50		 push	 eax
  0006e	e8 00 00 00 00	 call	 ?createCharAction@@YAPAUaction@@HHHH@Z ; createCharAction
  00073	83 c4 10	 add	 esp, 16			; 00000010H
  00076	69 4d f8 0c 01
	00 00		 imul	 ecx, DWORD PTR _no$[ebp], 268
  0007d	89 81 bc 00 00
	00		 mov	 DWORD PTR ?charObj@@3PAUCHAROBJ@@A[ecx+188], eax

; 2311 : 		if( charObj[no].ptAct == NULL )

  00083	69 45 f8 0c 01
	00 00		 imul	 eax, DWORD PTR _no$[ebp], 268
  0008a	83 b8 bc 00 00
	00 00		 cmp	 DWORD PTR ?charObj@@3PAUCHAROBJ@@A[eax+188], 0
  00091	75 05		 jne	 SHORT $LN5@setMoneyCh

; 2312 : 			// K??????????o???????????
; 2313 : 			return;

  00093	e9 a3 01 00 00	 jmp	 $LN1@setMoneyCh
$LN5@setMoneyCh:

; 2314 : 		charObj[no].use = CHAROBJ_USE_VIEW;

  00098	69 45 f8 0c 01
	00 00		 imul	 eax, DWORD PTR _no$[ebp], 268
  0009f	b9 02 00 00 00	 mov	 ecx, 2
  000a4	66 89 88 00 00
	00 00		 mov	 WORD PTR ?charObj@@3PAUCHAROBJ@@A[eax], cx

; 2315 : 		ext = (CHAREXTRA *)charObj[no].ptAct->pYobi;

  000ab	69 45 f8 0c 01
	00 00		 imul	 eax, DWORD PTR _no$[ebp], 268
  000b2	8b 88 bc 00 00
	00		 mov	 ecx, DWORD PTR ?charObj@@3PAUCHAROBJ@@A[eax+188]
  000b8	8b 51 0c	 mov	 edx, DWORD PTR [ecx+12]
  000bb	89 55 e0	 mov	 DWORD PTR _ext$[ebp], edx

; 2316 : 		ext->charObjTblId = no;

  000be	8b 45 e0	 mov	 eax, DWORD PTR _ext$[ebp]
  000c1	8b 4d f8	 mov	 ecx, DWORD PTR _no$[ebp]
  000c4	89 08		 mov	 DWORD PTR [eax], ecx

; 2317 : 		charObj[no].type      = CHAROBJ_TYPE_MONEY;

  000c6	69 45 f8 0c 01
	00 00		 imul	 eax, DWORD PTR _no$[ebp], 268
  000cd	b9 04 00 00 00	 mov	 ecx, 4
  000d2	66 89 88 02 00
	00 00		 mov	 WORD PTR ?charObj@@3PAUCHAROBJ@@A[eax+2], cx

; 2318 : 		charObj[no].id        = id;

  000d9	69 45 f8 0c 01
	00 00		 imul	 eax, DWORD PTR _no$[ebp], 268
  000e0	8b 4d 08	 mov	 ecx, DWORD PTR _id$[ebp]
  000e3	89 88 04 00 00
	00		 mov	 DWORD PTR ?charObj@@3PAUCHAROBJ@@A[eax+4], ecx

; 2319 : 		charObj[no].stockDir  = -1;

  000e9	69 45 f8 0c 01
	00 00		 imul	 eax, DWORD PTR _no$[ebp], 268
  000f0	c7 80 1c 00 00
	00 ff ff ff ff	 mov	 DWORD PTR ?charObj@@3PAUCHAROBJ@@A[eax+28], -1
$LN3@setMoneyCh:

; 2320 : 	}
; 2321 : 	charObj[no].graNo = graNo;

  000fa	69 45 f8 0c 01
	00 00		 imul	 eax, DWORD PTR _no$[ebp], 268
  00101	8b 4d 0c	 mov	 ecx, DWORD PTR _graNo$[ebp]
  00104	89 88 08 00 00
	00		 mov	 DWORD PTR ?charObj@@3PAUCHAROBJ@@A[eax+8], ecx

; 2322 : 	charObj[no].money = money;

  0010a	69 45 f8 0c 01
	00 00		 imul	 eax, DWORD PTR _no$[ebp], 268
  00111	8b 4d 1c	 mov	 ecx, DWORD PTR _money$[ebp]
  00114	89 88 34 00 00
	00		 mov	 DWORD PTR ?charObj@@3PAUCHAROBJ@@A[eax+52], ecx

; 2323 : 	charObj[no].gx = gx;

  0011a	69 45 f8 0c 01
	00 00		 imul	 eax, DWORD PTR _no$[ebp], 268
  00121	8b 4d 10	 mov	 ecx, DWORD PTR _gx$[ebp]
  00124	89 88 0c 00 00
	00		 mov	 DWORD PTR ?charObj@@3PAUCHAROBJ@@A[eax+12], ecx

; 2324 : 	charObj[no].gy = gy;

  0012a	69 45 f8 0c 01
	00 00		 imul	 eax, DWORD PTR _no$[ebp], 268
  00131	8b 4d 14	 mov	 ecx, DWORD PTR _gy$[ebp]
  00134	89 88 10 00 00
	00		 mov	 DWORD PTR ?charObj@@3PAUCHAROBJ@@A[eax+16], ecx

; 2325 : 	charObj[no].dir = dir;

  0013a	69 45 f8 0c 01
	00 00		 imul	 eax, DWORD PTR _no$[ebp], 268
  00141	8b 4d 18	 mov	 ecx, DWORD PTR _dir$[ebp]
  00144	89 88 18 00 00
	00		 mov	 DWORD PTR ?charObj@@3PAUCHAROBJ@@A[eax+24], ecx

; 2326 : 	if( strlen( info ) <= 60 )

  0014a	8b 45 20	 mov	 eax, DWORD PTR _info$[ebp]
  0014d	50		 push	 eax
  0014e	e8 00 00 00 00	 call	 _strlen
  00153	83 c4 04	 add	 esp, 4
  00156	83 f8 3c	 cmp	 eax, 60			; 0000003cH
  00159	77 1a		 ja	 SHORT $LN6@setMoneyCh

; 2327 : 		strcpy( charObj[no].info, info );

  0015b	8b 45 20	 mov	 eax, DWORD PTR _info$[ebp]
  0015e	50		 push	 eax
  0015f	69 4d f8 0c 01
	00 00		 imul	 ecx, DWORD PTR _no$[ebp], 268
  00166	81 c1 6a 00 00
	00		 add	 ecx, OFFSET ?charObj@@3PAUCHAROBJ@@A+106
  0016c	51		 push	 ecx
  0016d	e8 00 00 00 00	 call	 _strcpy
  00172	83 c4 08	 add	 esp, 8
$LN6@setMoneyCh:

; 2328 : 	charObj[no].charType = ACT_ATR_TYPE_GOLD;

  00175	69 45 f8 0c 01
	00 00		 imul	 eax, DWORD PTR _no$[ebp], 268
  0017c	c7 80 b4 00 00
	00 00 08 00 00	 mov	 DWORD PTR ?charObj@@3PAUCHAROBJ@@A[eax+180], 2048 ; 00000800H

; 2329 : 	charObj[no].newFoundFlag = 0;	// D?????????

  00186	69 45 f8 0c 01
	00 00		 imul	 eax, DWORD PTR _no$[ebp], 268
  0018d	33 c9		 xor	 ecx, ecx
  0018f	66 89 88 b8 00
	00 00		 mov	 WORD PTR ?charObj@@3PAUCHAROBJ@@A[eax+184], cx

; 2330 : 	// ???????????k?V??
; 2331 : 	if( charObj[no].ptAct == NULL )

  00196	69 45 f8 0c 01
	00 00		 imul	 eax, DWORD PTR _no$[ebp], 268
  0019d	83 b8 bc 00 00
	00 00		 cmp	 DWORD PTR ?charObj@@3PAUCHAROBJ@@A[eax+188], 0
  001a4	75 05		 jne	 SHORT $LN7@setMoneyCh

; 2332 : 		return;

  001a6	e9 90 00 00 00	 jmp	 $LN1@setMoneyCh
$LN7@setMoneyCh:

; 2333 : 	charObj[no].ptAct->anim_chr_no = graNo;

  001ab	69 45 f8 0c 01
	00 00		 imul	 eax, DWORD PTR _no$[ebp], 268
  001b2	8b 88 bc 00 00
	00		 mov	 ecx, DWORD PTR ?charObj@@3PAUCHAROBJ@@A[eax+188]
  001b8	8b 55 0c	 mov	 edx, DWORD PTR _graNo$[ebp]
  001bb	89 91 44 01 00
	00		 mov	 DWORD PTR [ecx+324], edx

; 2334 : 	// 1??????????name?V??
; 2335 : 	if( strlen( info ) <= CHAR_NAME_LEN )

  001c1	8b 45 20	 mov	 eax, DWORD PTR _info$[ebp]
  001c4	50		 push	 eax
  001c5	e8 00 00 00 00	 call	 _strlen
  001ca	83 c4 04	 add	 esp, 4
  001cd	83 f8 10	 cmp	 eax, 16			; 00000010H
  001d0	77 1f		 ja	 SHORT $LN8@setMoneyCh

; 2336 : 		strcpy( charObj[no].ptAct->name, info );

  001d2	8b 45 20	 mov	 eax, DWORD PTR _info$[ebp]
  001d5	50		 push	 eax
  001d6	69 4d f8 0c 01
	00 00		 imul	 ecx, DWORD PTR _no$[ebp], 268
  001dd	8b 91 bc 00 00
	00		 mov	 edx, DWORD PTR ?charObj@@3PAUCHAROBJ@@A[ecx+188]
  001e3	83 c2 38	 add	 edx, 56			; 00000038H
  001e6	52		 push	 edx
  001e7	e8 00 00 00 00	 call	 _strcpy
  001ec	83 c4 08	 add	 esp, 8

; 2337 : 	else

  001ef	eb 1e		 jmp	 SHORT $LN9@setMoneyCh
$LN8@setMoneyCh:

; 2338 : 		strcpy( charObj[no].ptAct->name, "???" );

  001f1	68 00 00 00 00	 push	 OFFSET ??_C@_03BBKEAIF@?$DP?$DP?$DP?$AA@
  001f6	69 45 f8 0c 01
	00 00		 imul	 eax, DWORD PTR _no$[ebp], 268
  001fd	8b 88 bc 00 00
	00		 mov	 ecx, DWORD PTR ?charObj@@3PAUCHAROBJ@@A[eax+188]
  00203	83 c1 38	 add	 ecx, 56			; 00000038H
  00206	51		 push	 ecx
  00207	e8 00 00 00 00	 call	 _strcpy
  0020c	83 c4 08	 add	 esp, 8
$LN9@setMoneyCh:

; 2339 : 	charObj[no].ptAct->atr |= ACT_ATR_TYPE_GOLD;

  0020f	69 45 f8 0c 01
	00 00		 imul	 eax, DWORD PTR _no$[ebp], 268
  00216	8b 88 bc 00 00
	00		 mov	 ecx, DWORD PTR ?charObj@@3PAUCHAROBJ@@A[eax+188]
  0021c	8b 91 a4 00 00
	00		 mov	 edx, DWORD PTR [ecx+164]
  00222	81 ca 00 08 00
	00		 or	 edx, 2048		; 00000800H
  00228	69 45 f8 0c 01
	00 00		 imul	 eax, DWORD PTR _no$[ebp], 268
  0022f	8b 88 bc 00 00
	00		 mov	 ecx, DWORD PTR ?charObj@@3PAUCHAROBJ@@A[eax+188]
  00235	89 91 a4 00 00
	00		 mov	 DWORD PTR [ecx+164], edx
$LN1@setMoneyCh:

; 2340 : }

  0023b	5f		 pop	 edi
  0023c	5e		 pop	 esi
  0023d	5b		 pop	 ebx
  0023e	81 c4 e4 00 00
	00		 add	 esp, 228		; 000000e4H
  00244	3b ec		 cmp	 ebp, esp
  00246	e8 00 00 00 00	 call	 __RTC_CheckEsp
  0024b	8b e5		 mov	 esp, ebp
  0024d	5d		 pop	 ebp
  0024e	c3		 ret	 0
?setMoneyCharObj@@YAXHHHHHHPAD@Z ENDP			; setMoneyCharObj
_TEXT	ENDS
; Function compile flags: /Odtp /RTCsu /ZI
; File c:\users\administrator\desktop\????? ??\????? ??\client source code\system\character.cpp
;	COMDAT ?setItemCharObj@@YAXHHHHHHPAD@Z
_TEXT	SEGMENT
_ext$ = -32						; size = 4
_existFlag$ = -20					; size = 4
_no$ = -8						; size = 4
_id$ = 8						; size = 4
_graNo$ = 12						; size = 4
_gx$ = 16						; size = 4
_gy$ = 20						; size = 4
_dir$ = 24						; size = 4
_classNo$ = 28						; size = 4
_info$ = 32						; size = 4
?setItemCharObj@@YAXHHHHHHPAD@Z PROC			; setItemCharObj, COMDAT

; 2249 : {

  00000	55		 push	 ebp
  00001	8b ec		 mov	 ebp, esp
  00003	81 ec e4 00 00
	00		 sub	 esp, 228		; 000000e4H
  00009	53		 push	 ebx
  0000a	56		 push	 esi
  0000b	57		 push	 edi
  0000c	8d bd 1c ff ff
	ff		 lea	 edi, DWORD PTR [ebp-228]
  00012	b9 39 00 00 00	 mov	 ecx, 57			; 00000039H
  00017	b8 cc cc cc cc	 mov	 eax, -858993460		; ccccccccH
  0001c	f3 ab		 rep stosd

; 2250 : 	int no;
; 2251 : 	BOOL existFlag = FALSE;

  0001e	c7 45 ec 00 00
	00 00		 mov	 DWORD PTR _existFlag$[ebp], 0

; 2252 : 	CHAREXTRA *ext;
; 2253 : 	// K???????????
; 2254 : 	if( (no = searchCharObjId( id )) >= 0 )

  00025	8b 45 08	 mov	 eax, DWORD PTR _id$[ebp]
  00028	50		 push	 eax
  00029	e8 00 00 00 00	 call	 ?searchCharObjId@@YAHH@Z ; searchCharObjId
  0002e	83 c4 04	 add	 esp, 4
  00031	89 45 f8	 mov	 DWORD PTR _no$[ebp], eax
  00034	83 7d f8 00	 cmp	 DWORD PTR _no$[ebp], 0
  00038	7c 07		 jl	 SHORT $LN2@setItemCha

; 2255 : 		existFlag = TRUE;

  0003a	c7 45 ec 01 00
	00 00		 mov	 DWORD PTR _existFlag$[ebp], 1
$LN2@setItemCha:

; 2256 : 	// ??K?????????K?
; 2257 : 	if( !existFlag ){

  00041	83 7d ec 00	 cmp	 DWORD PTR _existFlag$[ebp], 0
  00045	0f 85 af 00 00
	00		 jne	 $LN3@setItemCha

; 2258 : 		no = getCharObjBuf();

  0004b	e8 00 00 00 00	 call	 ?getCharObjBuf@@YAHXZ	; getCharObjBuf
  00050	89 45 f8	 mov	 DWORD PTR _no$[ebp], eax

; 2259 : 		if( no < 0 )

  00053	83 7d f8 00	 cmp	 DWORD PTR _no$[ebp], 0
  00057	7d 05		 jge	 SHORT $LN4@setItemCha

; 2260 : 			return;	// ????????????

  00059	e9 f3 01 00 00	 jmp	 $LN1@setItemCha
$LN4@setItemCha:

; 2261 : 		charObj[no].ptAct = createCharAction( graNo, gx, gy, dir );

  0005e	8b 45 18	 mov	 eax, DWORD PTR _dir$[ebp]
  00061	50		 push	 eax
  00062	8b 4d 14	 mov	 ecx, DWORD PTR _gy$[ebp]
  00065	51		 push	 ecx
  00066	8b 55 10	 mov	 edx, DWORD PTR _gx$[ebp]
  00069	52		 push	 edx
  0006a	8b 45 0c	 mov	 eax, DWORD PTR _graNo$[ebp]
  0006d	50		 push	 eax
  0006e	e8 00 00 00 00	 call	 ?createCharAction@@YAPAUaction@@HHHH@Z ; createCharAction
  00073	83 c4 10	 add	 esp, 16			; 00000010H
  00076	69 4d f8 0c 01
	00 00		 imul	 ecx, DWORD PTR _no$[ebp], 268
  0007d	89 81 bc 00 00
	00		 mov	 DWORD PTR ?charObj@@3PAUCHAROBJ@@A[ecx+188], eax

; 2262 : 		if( charObj[no].ptAct == NULL )

  00083	69 45 f8 0c 01
	00 00		 imul	 eax, DWORD PTR _no$[ebp], 268
  0008a	83 b8 bc 00 00
	00 00		 cmp	 DWORD PTR ?charObj@@3PAUCHAROBJ@@A[eax+188], 0
  00091	75 05		 jne	 SHORT $LN5@setItemCha

; 2263 : 			// K??????????o???????????
; 2264 : 			return;

  00093	e9 b9 01 00 00	 jmp	 $LN1@setItemCha
$LN5@setItemCha:

; 2265 : 		charObj[no].use = CHAROBJ_USE_VIEW;

  00098	69 45 f8 0c 01
	00 00		 imul	 eax, DWORD PTR _no$[ebp], 268
  0009f	b9 02 00 00 00	 mov	 ecx, 2
  000a4	66 89 88 00 00
	00 00		 mov	 WORD PTR ?charObj@@3PAUCHAROBJ@@A[eax], cx

; 2266 : 		ext = (CHAREXTRA *)charObj[no].ptAct->pYobi;

  000ab	69 45 f8 0c 01
	00 00		 imul	 eax, DWORD PTR _no$[ebp], 268
  000b2	8b 88 bc 00 00
	00		 mov	 ecx, DWORD PTR ?charObj@@3PAUCHAROBJ@@A[eax+188]
  000b8	8b 51 0c	 mov	 edx, DWORD PTR [ecx+12]
  000bb	89 55 e0	 mov	 DWORD PTR _ext$[ebp], edx

; 2267 : 		ext->charObjTblId = no;

  000be	8b 45 e0	 mov	 eax, DWORD PTR _ext$[ebp]
  000c1	8b 4d f8	 mov	 ecx, DWORD PTR _no$[ebp]
  000c4	89 08		 mov	 DWORD PTR [eax], ecx

; 2268 : 		charObj[no].type      = CHAROBJ_TYPE_ITEM;

  000c6	69 45 f8 0c 01
	00 00		 imul	 eax, DWORD PTR _no$[ebp], 268
  000cd	b9 02 00 00 00	 mov	 ecx, 2
  000d2	66 89 88 02 00
	00 00		 mov	 WORD PTR ?charObj@@3PAUCHAROBJ@@A[eax+2], cx

; 2269 : 		charObj[no].id        = id;

  000d9	69 45 f8 0c 01
	00 00		 imul	 eax, DWORD PTR _no$[ebp], 268
  000e0	8b 4d 08	 mov	 ecx, DWORD PTR _id$[ebp]
  000e3	89 88 04 00 00
	00		 mov	 DWORD PTR ?charObj@@3PAUCHAROBJ@@A[eax+4], ecx

; 2270 : 		charObj[no].stockDir  = -1;

  000e9	69 45 f8 0c 01
	00 00		 imul	 eax, DWORD PTR _no$[ebp], 268
  000f0	c7 80 1c 00 00
	00 ff ff ff ff	 mov	 DWORD PTR ?charObj@@3PAUCHAROBJ@@A[eax+28], -1
$LN3@setItemCha:

; 2271 : 	}
; 2272 : 	charObj[no].graNo   = graNo;

  000fa	69 45 f8 0c 01
	00 00		 imul	 eax, DWORD PTR _no$[ebp], 268
  00101	8b 4d 0c	 mov	 ecx, DWORD PTR _graNo$[ebp]
  00104	89 88 08 00 00
	00		 mov	 DWORD PTR ?charObj@@3PAUCHAROBJ@@A[eax+8], ecx

; 2273 : 	charObj[no].classNo = classNo;

  0010a	69 45 f8 0c 01
	00 00		 imul	 eax, DWORD PTR _no$[ebp], 268
  00111	8b 4d 1c	 mov	 ecx, DWORD PTR _classNo$[ebp]
  00114	89 88 30 00 00
	00		 mov	 DWORD PTR ?charObj@@3PAUCHAROBJ@@A[eax+48], ecx

; 2274 : 	charObj[no].gx = gx;

  0011a	69 45 f8 0c 01
	00 00		 imul	 eax, DWORD PTR _no$[ebp], 268
  00121	8b 4d 10	 mov	 ecx, DWORD PTR _gx$[ebp]
  00124	89 88 0c 00 00
	00		 mov	 DWORD PTR ?charObj@@3PAUCHAROBJ@@A[eax+12], ecx

; 2275 : 	charObj[no].gy = gy;

  0012a	69 45 f8 0c 01
	00 00		 imul	 eax, DWORD PTR _no$[ebp], 268
  00131	8b 4d 14	 mov	 ecx, DWORD PTR _gy$[ebp]
  00134	89 88 10 00 00
	00		 mov	 DWORD PTR ?charObj@@3PAUCHAROBJ@@A[eax+16], ecx

; 2276 : 	charObj[no].dir = dir;

  0013a	69 45 f8 0c 01
	00 00		 imul	 eax, DWORD PTR _no$[ebp], 268
  00141	8b 4d 18	 mov	 ecx, DWORD PTR _dir$[ebp]
  00144	89 88 18 00 00
	00		 mov	 DWORD PTR ?charObj@@3PAUCHAROBJ@@A[eax+24], ecx

; 2277 : 	if( strlen( info ) <= 60 )

  0014a	8b 45 20	 mov	 eax, DWORD PTR _info$[ebp]
  0014d	50		 push	 eax
  0014e	e8 00 00 00 00	 call	 _strlen
  00153	83 c4 04	 add	 esp, 4
  00156	83 f8 3c	 cmp	 eax, 60			; 0000003cH
  00159	77 1a		 ja	 SHORT $LN6@setItemCha

; 2278 : 		strcpy( charObj[no].info, info );

  0015b	8b 45 20	 mov	 eax, DWORD PTR _info$[ebp]
  0015e	50		 push	 eax
  0015f	69 4d f8 0c 01
	00 00		 imul	 ecx, DWORD PTR _no$[ebp], 268
  00166	81 c1 6a 00 00
	00		 add	 ecx, OFFSET ?charObj@@3PAUCHAROBJ@@A+106
  0016c	51		 push	 ecx
  0016d	e8 00 00 00 00	 call	 _strcpy
  00172	83 c4 08	 add	 esp, 8
$LN6@setItemCha:

; 2279 : 	charObj[no].charType = ACT_ATR_TYPE_ITEM;

  00175	69 45 f8 0c 01
	00 00		 imul	 eax, DWORD PTR _no$[ebp], 268
  0017c	c7 80 b4 00 00
	00 00 04 00 00	 mov	 DWORD PTR ?charObj@@3PAUCHAROBJ@@A[eax+180], 1024 ; 00000400H

; 2280 : 	charObj[no].newFoundFlag = 0;	// D?????????

  00186	69 45 f8 0c 01
	00 00		 imul	 eax, DWORD PTR _no$[ebp], 268
  0018d	33 c9		 xor	 ecx, ecx
  0018f	66 89 88 b8 00
	00 00		 mov	 WORD PTR ?charObj@@3PAUCHAROBJ@@A[eax+184], cx

; 2281 : 	// ???????????k?V??
; 2282 : 	if( charObj[no].ptAct == NULL )

  00196	69 45 f8 0c 01
	00 00		 imul	 eax, DWORD PTR _no$[ebp], 268
  0019d	83 b8 bc 00 00
	00 00		 cmp	 DWORD PTR ?charObj@@3PAUCHAROBJ@@A[eax+188], 0
  001a4	75 05		 jne	 SHORT $LN7@setItemCha

; 2283 : 		return;

  001a6	e9 a6 00 00 00	 jmp	 $LN1@setItemCha
$LN7@setItemCha:

; 2284 : 	charObj[no].ptAct->anim_chr_no = graNo;

  001ab	69 45 f8 0c 01
