; Listing generated by Microsoft (R) Optimizing Compiler Version 19.00.24215.1 

	TITLE	C:\Users\Administrator\Desktop\????? ??\????? ??\Client Source Code\system\field.cpp
	.686P
	.XMM
	include listing.inc
	.model	flat

INCLUDELIB MSVCRTD
INCLUDELIB OLDNAMES

PUBLIC	?chatRoomBtn@@3FA				; chatRoomBtn
PUBLIC	?SelRoomBtn@@3FA				; SelRoomBtn
PUBLIC	?angelFlag@@3HA					; angelFlag
PUBLIC	?angelRecvType@@3HA				; angelRecvType
PUBLIC	?angelRecvButton@@3HA				; angelRecvButton
PUBLIC	?angelMsg@@3PADA				; angelMsg
PUBLIC	?drawTimeAnimeFlag@@3FA				; drawTimeAnimeFlag
PUBLIC	?etcSendFlag@@3FA				; etcSendFlag
PUBLIC	?actBtn@@3FA					; actBtn
PUBLIC	?menuBtn@@3FA					; menuBtn
PUBLIC	?mailLamp@@3FA					; mailLamp
PUBLIC	?fieldInfoTime@@3IA				; fieldInfoTime
PUBLIC	?serverAliveTime@@3PAUtm@@A			; serverAliveTime
PUBLIC	?serverAliveLongTime@@3_JA			; serverAliveLongTime
PUBLIC	?GM管理开关@@3_NA				; GM管理开关
PUBLIC	?战骑信息开关@@3HA				; 战骑信息开关
PUBLIC	?功能列表开关@@3HA				; 功能列表开关
PUBLIC	?左菜单开关@@3HA				; 左菜单开关
PUBLIC	?顶部新按钮索引@@3PAHA				; 顶部新按钮索引
PUBLIC	?drawFieldButtonFlag@@3FA			; drawFieldButtonFlag
PUBLIC	?fieldBtnHitId@@3PAHA				; fieldBtnHitId
PUBLIC	?in817flag@@3_NA				; in817flag
PUBLIC	?BattlingFlag@@3HA				; BattlingFlag
PUBLIC	?jobdaily@@3PAUJOBDAILY@@A			; jobdaily
PUBLIC	?JobdailyGetFlag@@3HA				; JobdailyGetFlag
PUBLIC	?JobdailyGetMax@@3HA				; JobdailyGetMax
PUBLIC	?ani_num@@3HA					; ani_num
PUBLIC	?breadAniFlag@@3HA				; breadAniFlag
PUBLIC	?SPACT@@3PAPAUaction@@A				; SPACT
PUBLIC	?ProduceXY@@3PAY06HA				; ProduceXY
PUBLIC	?delFlag@@3_NA					; delFlag
PUBLIC	?flag22@@3_NA					; flag22
PUBLIC	?Timeflag2@@3_NA				; Timeflag2
PUBLIC	?TimeTick2@@3HA					; TimeTick2
PUBLIC	?TimeTickMax2@@3HA				; TimeTickMax2
PUBLIC	?Timeflag@@3PA_NA				; Timeflag
PUBLIC	?TimeTick@@3PAHA				; TimeTick
PUBLIC	?TimeTickMax@@3PAHA				; TimeTickMax
PUBLIC	?AniFlag@@3_NA					; AniFlag
PUBLIC	?Updownflag@@3_NA				; Updownflag
PUBLIC	?XYposition@@3PAY06HA				; XYposition
PUBLIC	?iOldGX@@3HA					; iOldGX
PUBLIC	?iOldGY@@3HA					; iOldGY
PUBLIC	?pActStreetVendorWnd@@3PAUaction@@A		; pActStreetVendorWnd
PUBLIC	?pActStreetVendorBuyWnd@@3PAUaction@@A		; pActStreetVendorBuyWnd
PUBLIC	?sStreetVendorBtn@@3FA				; sStreetVendorBtn
PUBLIC	?sStreetVendorBuyBtn@@3FA			; sStreetVendorBuyBtn
PUBLIC	?sStreetVendorBtnFocus@@3FA			; sStreetVendorBtnFocus
PUBLIC	?sStreetVendorBtnGraNo@@3PAHA			; sStreetVendorBtnGraNo
PUBLIC	?pShowPet@@3PAUaction@@A			; pShowPet
PUBLIC	?ShowSellItem@@3PAU_Show_Sell_Item@@A		; ShowSellItem
PUBLIC	?str_bufferVendorName@@3USTR_BUFFER@@A		; str_bufferVendorName
PUBLIC	?onlinegmProcNo@@3FA				; onlinegmProcNo
PUBLIC	?ShowVendorItem@@3PAU_Show_Vendor_Item@@A	; ShowVendorItem
PUBLIC	?channelName@@3PAY0BE@DA			; channelName
PUBLIC	?pChatRoomWnd@@3PAUaction@@A			; pChatRoomWnd
PUBLIC	?chatRoomBtnFocus@@3FA				; chatRoomBtnFocus
PUBLIC	?chatRoomBtnGraNo@@3PAHA			; chatRoomBtnGraNo
PUBLIC	?menuBtnFocus@@3FA				; menuBtnFocus
PUBLIC	?menuBtnGraNo@@3PAHA				; menuBtnGraNo
PUBLIC	?cardBtn@@3FA					; cardBtn
PUBLIC	?cardBtnFocus@@3FA				; cardBtnFocus
PUBLIC	?cardBtnGraNo@@3PAHA				; cardBtnGraNo
PUBLIC	?tradeBtn@@3FA					; tradeBtn
PUBLIC	?tradeBtnFocus@@3FA				; tradeBtnFocus
PUBLIC	?tradeBtnGraNo@@3PAHA				; tradeBtnGraNo
PUBLIC	?angelLampDrawFlag@@3FA				; angelLampDrawFlag
PUBLIC	?angelLampFlashTime@@3IA			; angelLampFlashTime
PUBLIC	?angelBtn@@3FA					; angelBtn
PUBLIC	?angelBtnFocus@@3FA				; angelBtnFocus
PUBLIC	?angelBtnGraNo@@3PAHA				; angelBtnGraNo
PUBLIC	?channelBtn@@3FA				; channelBtn
PUBLIC	?channelBtnFocus@@3FA				; channelBtnFocus
PUBLIC	?channelWNFlag@@3FA				; channelWNFlag
PUBLIC	?channelBtnGraNo@@3PAHA				; channelBtnGraNo
PUBLIC	?partyBtn@@3FA					; partyBtn
PUBLIC	?partyBtnFocus@@3FA				; partyBtnFocus
PUBLIC	?partyBtnEnableFlag@@3FA			; partyBtnEnableFlag
PUBLIC	?partyBtnGraNo@@3PAHA				; partyBtnGraNo
PUBLIC	?mailLampDrawFlag@@3FA				; mailLampDrawFlag
PUBLIC	?helpBtnGraNo@@3PAHA				; helpBtnGraNo
PUBLIC	?helpBtn@@3FA					; helpBtn
PUBLIC	?helpBtnFocus@@3FA				; helpBtnFocus
PUBLIC	?mailLampFlashTime@@3IA				; mailLampFlashTime
PUBLIC	?joinBattleBtn@@3FA				; joinBattleBtn
PUBLIC	?joinBattleBtnFocus@@3FA			; joinBattleBtnFocus
PUBLIC	?joinBattleBtnEnableFlag@@3FA			; joinBattleBtnEnableFlag
PUBLIC	?joinBattleHelpMsgFlag@@3FA			; joinBattleHelpMsgFlag
PUBLIC	?joinBattleBtnGraNo@@3PAHA			; joinBattleBtnGraNo
PUBLIC	?duelBtn@@3FA					; duelBtn
PUBLIC	?duelBtnFocus@@3FA				; duelBtnFocus
PUBLIC	?duelBtnGraNo@@3PAHA				; duelBtnGraNo
PUBLIC	?actBtnForcus@@3FA				; actBtnForcus
PUBLIC	?actBtnUpTime@@3HA				; actBtnUpTime
PUBLIC	?nowActMode@@3HA				; nowActMode
PUBLIC	?actBtnGraNo@@3PAHA				; actBtnGraNo
PUBLIC	?charActionAnimeChangeProcNo@@3FA		; charActionAnimeChangeProcNo
PUBLIC	?charActionAnimeChangeWindowFlag@@3FA		; charActionAnimeChangeWindowFlag
PUBLIC	?etcSwitchProcNo@@3FA				; etcSwitchProcNo
PUBLIC	?etcSwitchChangeFlag@@3FA			; etcSwitchChangeFlag
PUBLIC	?amPmAnimeTime@@3HA				; amPmAnimeTime
PUBLIC	?amPmAnimeX@@3HA				; amPmAnimeX
PUBLIC	?amPmAnimeGraNoIndex0@@3HA			; amPmAnimeGraNoIndex0
PUBLIC	?amPmAnimeGraNoIndex1@@3HA			; amPmAnimeGraNoIndex1
PUBLIC	?amPmAnimeGraNo@@3PAHA				; amPmAnimeGraNo
PUBLIC	?ridelistBtn@@3FA				; ridelistBtn
PUBLIC	?ridelistBtnFocus@@3FA				; ridelistBtnFocus
PUBLIC	?ridelistBtnGraNo@@3PAHA			; ridelistBtnGraNo
PUBLIC	?vipshopBtn@@3FA				; vipshopBtn
PUBLIC	?vipshopBtnFocus@@3FA				; vipshopBtnFocus
PUBLIC	?vipshopBtnGraNo@@3PAHA				; vipshopBtnGraNo
PUBLIC	?sTeacherSystemBtn@@3FA				; sTeacherSystemBtn
PUBLIC	?sTeacherSystemBtnFocus@@3FA			; sTeacherSystemBtnFocus
PUBLIC	?iTeacherSystemBtnGraNo@@3PAHA			; iTeacherSystemBtnGraNo
PUBLIC	?nowFieldMenuOpenFlag@@3FA			; nowFieldMenuOpenFlag
PUBLIC	?fieldBtnPushTime@@3IA				; fieldBtnPushTime
PUBLIC	?pageStr@@3PAY09DA				; pageStr
_BSS	SEGMENT
?iOnline@?1??TeacherSystemWndfunc@@YAXHPAD@Z@4HA DD 01H DUP (?) ; `TeacherSystemWndfunc'::`2'::iOnline
?iGetNum@?1??TeacherSystemWndfunc@@YAXHPAD@Z@4HA DD 01H DUP (?) ; `TeacherSystemWndfunc'::`2'::iGetNum
?pActTeacherSystemWnd@?1??TeacherSystemWndfunc@@YAXHPAD@Z@4PAUaction@@A DD 01H DUP (?) ; `TeacherSystemWndfunc'::`2'::pActTeacherSystemWnd
?bOpen@?1??TeacherSystemWndfunc@@YAXHPAD@Z@4HA DD 01H DUP (?) ; `TeacherSystemWndfunc'::`2'::bOpen
?chatRoomBtn@@3FA DW 01H DUP (?)			; chatRoomBtn
	ALIGN	4

?SelRoomBtn@@3FA DW 01H DUP (?)				; SelRoomBtn
	ALIGN	4

?angelFlag@@3HA DD 01H DUP (?)				; angelFlag
?angelRecvType@@3HA DD 01H DUP (?)			; angelRecvType
?angelRecvButton@@3HA DD 01H DUP (?)			; angelRecvButton
?angelMsg@@3PADA DB 02800H DUP (?)			; angelMsg
?drawTimeAnimeFlag@@3FA DW 01H DUP (?)			; drawTimeAnimeFlag
	ALIGN	4

?etcSendFlag@@3FA DW 01H DUP (?)			; etcSendFlag
	ALIGN	4

?actBtn@@3FA DW	01H DUP (?)				; actBtn
	ALIGN	4

?menuBtn@@3FA DW 01H DUP (?)				; menuBtn
	ALIGN	4

?mailLamp@@3FA DW 01H DUP (?)				; mailLamp
	ALIGN	4

?fieldInfoTime@@3IA DD 01H DUP (?)			; fieldInfoTime
?serverAliveTime@@3PAUtm@@A DD 01H DUP (?)		; serverAliveTime
?serverAliveLongTime@@3_JA DQ 01H DUP (?)		; serverAliveLongTime
?GM管理开关@@3_NA DB 01H DUP (?)			; GM管理开关
	ALIGN	4

?战骑信息开关@@3HA DD 01H DUP (?)			; 战骑信息开关
?功能列表开关@@3HA DD 01H DUP (?)			; 功能列表开关
?左菜单开关@@3HA DD 01H DUP (?)				; 左菜单开关
?顶部新按钮索引@@3PAHA DD 0aH DUP (?)			; 顶部新按钮索引
?fieldBtnHitId@@3PAHA DD 0dH DUP (?)			; fieldBtnHitId
?in817flag@@3_NA DB 01H DUP (?)				; in817flag
	ALIGN	4

?BattlingFlag@@3HA DD 01H DUP (?)			; BattlingFlag
?jobdaily@@3PAUJOBDAILY@@A DB 0fd20H DUP (?)		; jobdaily
?JobdailyGetFlag@@3HA DD 01H DUP (?)			; JobdailyGetFlag
?JobdailyGetMax@@3HA DD 01H DUP (?)			; JobdailyGetMax
?ani_num@@3HA DD 01H DUP (?)				; ani_num
?breadAniFlag@@3HA DD 01H DUP (?)			; breadAniFlag
?SPACT@@3PAPAUaction@@A DD 0100H DUP (?)		; SPACT
?delFlag@@3_NA DB 01H DUP (?)				; delFlag
	ALIGN	4

?Timeflag2@@3_NA DB 01H DUP (?)				; Timeflag2
	ALIGN	4

?TimeTick2@@3HA DD 01H DUP (?)				; TimeTick2
?TimeTickMax2@@3HA DD 01H DUP (?)			; TimeTickMax2
?Timeflag@@3PA_NA DB 032H DUP (?)			; Timeflag
	ALIGN	4

?TimeTick@@3PAHA DD 032H DUP (?)			; TimeTick
?TimeTickMax@@3PAHA DD 032H DUP (?)			; TimeTickMax
?AniFlag@@3_NA DB 01H DUP (?)				; AniFlag
	ALIGN	4

?Updownflag@@3_NA DB 01H DUP (?)			; Updownflag
	ALIGN	4

?iOldGX@@3HA DD	01H DUP (?)				; iOldGX
?iOldGY@@3HA DD	01H DUP (?)				; iOldGY
?pActStreetVendorWnd@@3PAUaction@@A DD 01H DUP (?)	; pActStreetVendorWnd
?pActStreetVendorBuyWnd@@3PAUaction@@A DD 01H DUP (?)	; pActStreetVendorBuyWnd
?sStreetVendorBtn@@3FA DW 01H DUP (?)			; sStreetVendorBtn
	ALIGN	4

?sStreetVendorBuyBtn@@3FA DW 01H DUP (?)		; sStreetVendorBuyBtn
	ALIGN	4

?sStreetVendorBtnFocus@@3FA DW 01H DUP (?)		; sStreetVendorBtnFocus
	ALIGN	4

?pActSellPriceWnd@@3PAUaction@@A DD 01H DUP (?)		; pActSellPriceWnd
?pShowPet@@3PAUaction@@A DD 01H DUP (?)			; pShowPet
?ShowSellItem@@3PAU_Show_Sell_Item@@A DB 05f0H DUP (?)	; ShowSellItem
?str_bufferVendorName@@3USTR_BUFFER@@A DB 0128H DUP (?)	; str_bufferVendorName
?ptActMenuWin@?1??charActionAnimeChange@@YAHXZ@4PAUaction@@A DD 01H DUP (?) ; `charActionAnimeChange'::`2'::ptActMenuWin
?pItem@?1??StreetVendorWndfunc@@YAX_NPAD@Z@4PAUITEM@@A DD 01H DUP (?) ; `StreetVendorWndfunc'::`2'::pItem
?bRunSellPrice@?1??StreetVendorWndfunc@@YAX_NPAD@Z@4_NA DB 01H DUP (?) ; `StreetVendorWndfunc'::`2'::bRunSellPrice
	ALIGN	4

?pShowSellItem@?1??StreetVendorWndfunc@@YAX_NPAD@Z@4PAU_Show_Sell_Item@@A DD 01H DUP (?) ; `StreetVendorWndfunc'::`2'::pShowSellItem
?onlinegmProcNo@@3FA DW 01H DUP (?)			; onlinegmProcNo
	ALIGN	4

?ptActMenuWin@?1??etcSwitch@@YAHXZ@4PAUaction@@A DD 01H DUP (?) ; `etcSwitch'::`2'::ptActMenuWin
?pActChannelWin@?1??etcSwitch@@YAHXZ@4PAUaction@@A DD 01H DUP (?) ; `etcSwitch'::`2'::pActChannelWin
?ShowVendorItem@@3PAU_Show_Vendor_Item@@A DB 06c20H DUP (?) ; ShowVendorItem
?bViewPetItem@?1??StreetVendorBuyWndfunc@@YAXPAD@Z@4HA DD 01H DUP (?) ; `StreetVendorBuyWndfunc'::`2'::bViewPetItem
?ptActMenuWin@?1??disconnectServer@@YAHXZ@4PAUaction@@A DD 01H DUP (?) ; `disconnectServer'::`2'::ptActMenuWin
?ptActMenuWin@?1??drawFieldInfoWin@@YAXXZ@4PAUaction@@A DD 01H DUP (?) ; `drawFieldInfoWin'::`2'::ptActMenuWin
?ptActChannelWin@@3PAUaction@@A DD 01H DUP (?)		; ptActChannelWin
?ptActChannel2Win@@3PAUaction@@A DD 01H DUP (?)		; ptActChannel2Win
?ptActLeaderFuncWin@@3PAUaction@@A DD 01H DUP (?)	; ptActLeaderFuncWin
?pChatRoomWnd@@3PAUaction@@A DD 01H DUP (?)		; pChatRoomWnd
?chatRoomBtnFocus@@3FA DW 01H DUP (?)			; chatRoomBtnFocus
	ALIGN	4

?menuBtnFocus@@3FA DW 01H DUP (?)			; menuBtnFocus
	ALIGN	4

?cardBtn@@3FA DW 01H DUP (?)				; cardBtn
	ALIGN	4

?cardBtnFocus@@3FA DW 01H DUP (?)			; cardBtnFocus
	ALIGN	4

?tradeBtn@@3FA DW 01H DUP (?)				; tradeBtn
	ALIGN	4

?tradeBtnFocus@@3FA DW 01H DUP (?)			; tradeBtnFocus
	ALIGN	4

?angelLampDrawFlag@@3FA DW 01H DUP (?)			; angelLampDrawFlag
	ALIGN	4

?angelLampFlashTime@@3IA DD 01H DUP (?)			; angelLampFlashTime
?angelBtn@@3FA DW 01H DUP (?)				; angelBtn
	ALIGN	4

?angelBtnFocus@@3FA DW 01H DUP (?)			; angelBtnFocus
	ALIGN	4

?channelBtn@@3FA DW 01H DUP (?)				; channelBtn
	ALIGN	4

?channelBtnFocus@@3FA DW 01H DUP (?)			; channelBtnFocus
	ALIGN	4

?partyBtn@@3FA DW 01H DUP (?)				; partyBtn
	ALIGN	4

?partyBtnFocus@@3FA DW 01H DUP (?)			; partyBtnFocus
	ALIGN	4

?mailLampDrawFlag@@3FA DW 01H DUP (?)			; mailLampDrawFlag
	ALIGN	4

?helpBtn@@3FA DW 01H DUP (?)				; helpBtn
	ALIGN	4

?helpBtnFocus@@3FA DW 01H DUP (?)			; helpBtnFocus
	ALIGN	4

?mailLampFlashTime@@3IA DD 01H DUP (?)			; mailLampFlashTime
?joinBattleBtn@@3FA DW 01H DUP (?)			; joinBattleBtn
	ALIGN	4

?joinBattleBtnFocus@@3FA DW 01H DUP (?)			; joinBattleBtnFocus
	ALIGN	4

?duelBtn@@3FA DW 01H DUP (?)				; duelBtn
	ALIGN	4

?duelBtnFocus@@3FA DW 01H DUP (?)			; duelBtnFocus
	ALIGN	4

?actBtnForcus@@3FA DW 01H DUP (?)			; actBtnForcus
	ALIGN	4

?actBtnUpTime@@3HA DD 01H DUP (?)			; actBtnUpTime
?nowActMode@@3HA DD 01H DUP (?)				; nowActMode
?charActionAnimeChangeProcNo@@3FA DW 01H DUP (?)	; charActionAnimeChangeProcNo
	ALIGN	4

?charActionAnimeChangeWindowFlag@@3FA DW 01H DUP (?)	; charActionAnimeChangeWindowFlag
	ALIGN	4

?etcSwitchProcNo@@3FA DW 01H DUP (?)			; etcSwitchProcNo
	ALIGN	4

?etcSwitchChangeFlag@@3FA DW 01H DUP (?)		; etcSwitchChangeFlag
	ALIGN	4

?amPmAnimeTime@@3HA DD 01H DUP (?)			; amPmAnimeTime
?amPmAnimeX@@3HA DD 01H DUP (?)				; amPmAnimeX
?amPmAnimeGraNoIndex0@@3HA DD 01H DUP (?)		; amPmAnimeGraNoIndex0
?amPmAnimeGraNoIndex1@@3HA DD 01H DUP (?)		; amPmAnimeGraNoIndex1
?ridelistBtn@@3FA DW 01H DUP (?)			; ridelistBtn
	ALIGN	4

?ridelistBtnFocus@@3FA DW 01H DUP (?)			; ridelistBtnFocus
	ALIGN	4

?vipshopBtn@@3FA DW 01H DUP (?)				; vipshopBtn
	ALIGN	4

?vipshopBtnFocus@@3FA DW 01H DUP (?)			; vipshopBtnFocus
	ALIGN	4

?sTeacherSystemBtn@@3FA DW 01H DUP (?)			; sTeacherSystemBtn
	ALIGN	4

?sTeacherSystemBtnFocus@@3FA DW 01H DUP (?)		; sTeacherSystemBtnFocus
	ALIGN	4

?nowFieldMenuOpenFlag@@3FA DW 01H DUP (?)		; nowFieldMenuOpenFlag
	ALIGN	4

?fieldBtnPushTime@@3IA DD 01H DUP (?)			; fieldBtnPushTime
?joinChannel2Proc@@3FA DW 01H DUP (?)			; joinChannel2Proc
_BSS	ENDS
_DATA	SEGMENT
?drawFieldButtonFlag@@3FA DW 01H			; drawFieldButtonFlag
?flag22@@3_NA DB 01H					; flag22
?bChangePet@?1??StreetVendorWndfunc@@YAX_NPAD@Z@4_NA DB 01H ; `StreetVendorWndfunc'::`2'::bChangePet
?iMakePetAni@?1??StreetVendorBuyWndfunc@@YAXPAD@Z@4HA DD 0ffffffffH ; `StreetVendorBuyWndfunc'::`2'::iMakePetAni
?ProduceXY@@3PAY06HA DD 0ffffffffH			; ProduceXY
	ORG $+7164
?XYposition@@3PAY06HA DD 0fcH				; XYposition
	DD	0ffH
	DD	018c87H
	DD	00H
	DD	0ffffffffH
	DD	01H
	DD	00H
	DD	0e9H
	DD	010cH
	DD	018c86H
	DD	00H
	DD	0ffffffffH
	DD	01H
	DD	00H
	DD	0e3H
	DD	0101H
	DD	018c8cH
	DD	00H
	DD	0ffffffffH
	DD	01H
	DD	00H
	DD	0d1H
	DD	0feH
	DD	018c87H
	DD	00H
	DD	0ffffffffH
	DD	01H
	DD	00H
	DD	0134H
	DD	085H
	DD	018c87H
	DD	00H
	DD	0ffffffffH
	DD	01H
	DD	00H
	DD	0131H
	DD	065H
	DD	018c8eH
	DD	00H
	DD	0ffffffffH
	DD	01H
	DD	00H
	DD	013cH
	DD	079H
	DD	018c86H
	DD	00H
	DD	0ffffffffH
	DD	01H
	DD	00H
	DD	012fH
	DD	068H
	DD	018c87H
	DD	00H
	DD	0ffffffffH
	DD	01H
	DD	00H
	DD	011fH
	DD	07aH
	DD	018c86H
	DD	00H
	DD	0ffffffffH
	DD	01H
	DD	00H
	DD	0fdH
	DD	035H
	DD	018c86H
	DD	00H
	DD	0ffffffffH
	DD	01H
	DD	00H
	DD	06dH
	DD	062H
	DD	018c8cH
	DD	00H
	DD	0ffffffffH
	DD	01H
	DD	00H
	DD	090H
	DD	059H
	DD	018c87H
	DD	00H
	DD	0ffffffffH
	DD	01H
	DD	00H
	DD	072H
	DD	056H
	DD	018c86H
	DD	00H
	DD	0ffffffffH
	DD	01H
	DD	00H
	DD	065H
	DD	054H
	DD	018c8dH
	DD	00H
	DD	0ffffffffH
	DD	01H
	DD	00H
	DD	05eH
	DD	05dH
	DD	018c86H
	DD	00H
	DD	0ffffffffH
	DD	01H
	DD	00H
	DD	0173H
	DD	06cH
	DD	018c87H
	DD	00H
	DD	0ffffffffH
	DD	01H
	DD	00H
	DD	0b7H
	DD	078H
	DD	018c86H
	DD	00H
	DD	0ffffffffH
	DD	01H
	DD	00H
	DD	0d2H
	DD	0bbH
	DD	018c86H
	DD	00H
	DD	0ffffffffH
	DD	01H
	DD	00H
	DD	017eH
	DD	0bbH
	DD	018c8fH
	DD	00H
	DD	0ffffffffH
	DD	01H
	DD	00H
	DD	0e1H
	DD	0b2H
	DD	018c86H
	DD	00H
	DD	0ffffffffH
	DD	01H
	DD	00H
	DD	0163H
	DD	0ceH
	DD	018c87H
	DD	00H
	DD	0ffffffffH
	DD	01H
	DD	00H
	DD	016cH
	DD	0d9H
	DD	018c8dH
	DD	00H
	DD	0ffffffffH
	DD	01H
	DD	00H
	DD	0efH
	DD	096H
	DD	018c86H
	DD	00H
	DD	0ffffffffH
	DD	01H
	DD	00H
	DD	0157H
	DD	0d9H
	DD	018c87H
	DD	00H
	DD	0ffffffffH
	DD	01H
	DD	00H
	DD	0f5H
	DD	08bH
	DD	018c86H
	DD	00H
	DD	0ffffffffH
	DD	01H
	DD	00H
	DD	014eH
	DD	0f2H
	DD	018c8cH
	DD	00H
	DD	0ffffffffH
	DD	01H
	DD	00H
	DD	0144H
	DD	0daH
	DD	018c8dH
	DD	00H
	DD	0ffffffffH
	DD	01H
	DD	00H
	DD	0104H
	DD	07cH
	DD	018c8eH
	DD	00H
	DD	0ffffffffH
	DD	01H
	DD	00H
	DD	012dH
	DD	0f6H
	DD	018c86H
	DD	00H
	DD	0ffffffffH
	DD	01H
	DD	00H
	DD	0120H
	DD	0109H
	DD	018c86H
	DD	00H
	DD	0ffffffffH
	DD	01H
	DD	00H
	DD	0116H
	DD	010bH
	DD	018c87H
	DD	00H
	DD	0ffffffffH
	DD	01H
	DD	00H
	DD	0e2H
	DD	017H
	DD	018c86H
	DD	00H
	DD	0ffffffffH
	DD	01H
	DD	00H
	DD	0158H
	DD	02bH
	DD	018c87H
	DD	00H
	DD	0ffffffffH
	DD	01H
	DD	00H
	DD	0170H
	DD	06eH
	DD	018c8cH
	DD	00H
	DD	0ffffffffH
	DD	01H
	DD	00H
	DD	0168H
	DD	091H
	DD	018c86H
	DD	00H
	DD	0ffffffffH
	DD	01H
	DD	00H
	DD	015bH
	DD	0e8H
	DD	018c86H
	DD	00H
	DD	0ffffffffH
	DD	01H
	DD	00H
	DD	0147H
	DD	0e6H
	DD	018c8fH
	DD	00H
	DD	0ffffffffH
	DD	01H
	DD	00H
	DD	093H
	DD	017H
	DD	018c8eH
	DD	00H
	DD	0ffffffffH
	DD	01H
	DD	00H
	DD	093H
	DD	02aH
	DD	018c8dH
	DD	00H
	DD	0ffffffffH
	DD	01H
	DD	00H
	DD	0118H
	DD	026H
	DD	018c86H
	DD	00H
	DD	0ffffffffH
	DD	01H
	DD	00H
	DD	09eH
	DD	02cH
	DD	018c86H
	DD	00H
	DD	0ffffffffH
	DD	01H
	DD	00H
	DD	091H
	DD	044H
	DD	018c86H
	DD	00H
	DD	0ffffffffH
	DD	01H
	DD	00H
	DD	0bdH
	DD	042H
	DD	018c86H
	DD	00H
	DD	0ffffffffH
	DD	01H
	DD	00H
	DD	0ccH
	DD	037H
	DD	018c87H
	DD	00H
	DD	0ffffffffH
	DD	01H
	DD	00H
	DD	0c7H
	DD	037H
	DD	018c86H
	DD	00H
	DD	0ffffffffH
	DD	01H
	DD	00H
	DD	0ebH
	DD	034H
	DD	018c87H
	DD	00H
	DD	0ffffffffH
	DD	01H
	DD	00H
	DD	0fdH
	DD	022H
	DD	018c86H
	DD	00H
	DD	0ffffffffH
	DD	01H
	DD	00H
	DD	0120H
	DD	033H
	DD	018c86H
	DD	00H
	DD	0ffffffffH
	DD	01H
	DD	00H
	DD	012aH
	DD	03eH
	DD	018c87H
	DD	00H
	DD	0ffffffffH
	DD	01H
	DD	00H
	DD	012bH
	DD	048H
	DD	018c86H
	DD	00H
	DD	0ffffffffH
	DD	01H
	DD	00H
	DD	0100H
	DD	05eH
	DD	018c87H
	DD	00H
	DD	0ffffffffH
	DD	01H
	DD	00H
	DD	011cH
	DD	06aH
	DD	018c8cH
	DD	00H
	DD	0ffffffffH
	DD	01H
	DD	00H
	DD	0158H
	DD	02aH
	DD	018c8eH
	DD	00H
	DD	0ffffffffH
	DD	01H
	DD	00H
	DD	0149H
	DD	048H
	DD	018c8fH
	DD	00H
	DD	0ffffffffH
	DD	01H
	DD	00H
	DD	015fH
	DD	052H
	DD	018c8cH
	DD	00H
	DD	0ffffffffH
	DD	01H
	DD	00H
	DD	017bH
	DD	052H
	DD	018c8dH
	DD	00H
	DD	0ffffffffH
	DD	01H
	DD	00H
	DD	0a4H
	DD	0108H
	DD	018c8fH
	DD	00H
	DD	0ffffffffH
	DD	01H
	DD	00H
	DD	09bH
	DD	0107H
	DD	018c86H
	DD	00H
	DD	0ffffffffH
	DD	01H
	DD	00H
	DD	07cH
	DD	010bH
	DD	018c87H
	DD	00H
	DD	0ffffffffH
	DD	01H
	DD	00H
	DD	07dH
	DD	010aH
	DD	018c86H
	DD	00H
	DD	0ffffffffH
	DD	01H
	DD	00H
	DD	070H
	DD	0122H
	DD	018c87H
	DD	00H
	DD	0ffffffffH
	DD	01H
	DD	00H
	DD	066H
	DD	011fH
	DD	018c86H
	DD	00H
	DD	0ffffffffH
	DD	01H
	DD	00H
	DD	05fH
	DD	0134H
	DD	018c87H
	DD	00H
	DD	0ffffffffH
	DD	01H
	DD	00H
	DD	041H
	DD	014fH
	DD	018c87H
	DD	00H
	DD	0ffffffffH
	DD	01H
	DD	00H
	DD	032H
	DD	014fH
	DD	018c8cH
	DD	00H
	DD	0ffffffffH
	DD	01H
	DD	00H
	DD	030H
	DD	016eH
	DD	018c86H
	DD	00H
	DD	0ffffffffH
	DD	01H
	DD	00H
	DD	048H
	DD	0162H
	DD	018c8dH
	DD	00H
	DD	0ffffffffH
	DD	01H
	DD	00H
	DD	04fH
	DD	0178H
	DD	018c87H
	DD	00H
	DD	0ffffffffH
	DD	01H
	DD	00H
	DD	070H
	DD	0174H
	DD	018c8eH
	DD	00H
	DD	0ffffffffH
	DD	01H
	DD	00H
	DD	081H
	DD	019bH
	DD	018c86H
	DD	00H
	DD	0ffffffffH
	DD	01H
	DD	00H
	DD	086H
	DD	01a5H
	DD	018c8fH
	DD	00H
	DD	0ffffffffH
	DD	01H
	DD	00H
	DD	0a9H
	DD	01a0H
	DD	018c86H
	DD	00H
	DD	0ffffffffH
	DD	01H
	DD	00H
	DD	0c9H
	DD	01a2H
	DD	018c87H
	DD	00H
	DD	0ffffffffH
	DD	01H
	DD	00H
	DD	0c4H
	DD	0178H
	DD	018c8cH
	DD	00H
	DD	0ffffffffH
	DD	01H
	DD	00H
	DD	0ceH
	DD	016eH
	DD	018c86H
	DD	00H
	DD	0ffffffffH
	DD	01H
	DD	00H
	DD	0caH
	DD	0156H
	DD	018c8dH
	DD	00H
	DD	0ffffffffH
	DD	01H
	DD	00H
	DD	0acH
	DD	014eH
	DD	018c87H
	DD	00H
	DD	0ffffffffH
	DD	01H
	DD	00H
	DD	0c0H
	DD	0143H
	DD	018c86H
	DD	00H
	DD	0ffffffffH
	DD	01H
	DD	00H
	DD	09bH
	DD	0151H
	DD	018c86H
	DD	00H
	DD	0ffffffffH
	DD	01H
	DD	00H
	DD	084H
	DD	02dH
	DD	018c87H
	DD	00H
	DD	0ffffffffH
	DD	01H
	DD	00H
	DD	063H
	DD	01e9H
	DD	018c86H
	DD	00H
	DD	0ffffffffH
	DD	01H
	DD	00H
	DD	063H
	DD	01d2H
	DD	018c87H
	DD	00H
	DD	0ffffffffH
	DD	01H
	DD	00H
	DD	072H
	DD	01b3H
	DD	018c86H
	DD	00H
	DD	0ffffffffH
	DD	01H
	DD	00H
	DD	077H
	DD	01d1H
	DD	018c8cH
	DD	00H
	DD	0ffffffffH
	DD	01H
	DD	00H
	DD	08eH
	DD	01b3H
	DD	018c86H
	DD	00H
	DD	0ffffffffH
	DD	01H
	DD	00H
	DD	0a6H
	DD	01abH
	DD	018c8dH
	DD	00H
	DD	0ffffffffH
	DD	01H
	DD	00H
	DD	09fH
	DD	017fH
	DD	018c8eH
	DD	00H
	DD	0ffffffffH
	DD	01H
	DD	00H
	DD	02fH
	DD	09cH
	DD	018c86H
	DD	00H
	DD	0ffffffffH
	DD	01H
	DD	00H
	DD	02fH
	DD	084H
	DD	018c8fH
	DD	00H
	DD	0ffffffffH
	DD	01H
	DD	00H
	DD	024H
	DD	07bH
	DD	018c86H
	DD	00H
	DD	0ffffffffH
	DD	01H
	DD	00H
	DD	03dH
	DD	0a2H
	DD	018c8dH
	DD	00H
	DD	0ffffffffH
	DD	01H
	DD	00H
	DD	04fH
	DD	091H
	DD	018c86H
	DD	00H
	DD	0ffffffffH
	DD	01H
	DD	00H
	DD	05dH
	DD	09dH
	DD	018c86H
	DD	00H
	DD	0ffffffffH
	DD	01H
	DD	00H
	DD	06bH
	DD	09aH
	DD	018c87H
	DD	00H
	DD	0ffffffffH
	DD	01H
	DD	00H
	DD	076H
	DD	0a5H
	DD	018c86H
	DD	00H
	DD	0ffffffffH
	DD	01H
	DD	00H
	DD	085H
	DD	0a4H
	DD	018c8fH
	DD	00H
	DD	0ffffffffH
	DD	01H
	DD	00H
	DD	08aH
	DD	0b0H
	DD	018c86H
	DD	00H
	DD	0ffffffffH
	DD	01H
	DD	00H
	DD	092H
	DD	0cdH
	DD	018c86H
	DD	00H
	DD	0ffffffffH
	DD	01H
	DD	00H
	DD	0a2H
	DD	0d3H
	DD	018c8cH
	DD	00H
	DD	0ffffffffH
	DD	01H
	DD	00H
	DD	0aaH
	DD	0caH
	DD	018c86H
	DD	00H
	DD	0ffffffffH
	DD	01H
	DD	00H
	DD	082H
	DD	0b5H
	DD	018cdbH
	DD	00H
	DD	0ffffffffH
	DD	02H
	DD	00H
	DD	0113H
	DD	0ffH
	DD	018cddH
	DD	00H
	DD	0ffffffffH
	DD	02H
	DD	00H
	DD	07cH
	DD	0a1H
	DD	018cdbH
	DD	00H
	DD	0ffffffffH
	DD	02H
	DD	00H
	DD	0105H
	DD	0109H
	DD	018cddH
	DD	00H
	DD	0ffffffffH
	DD	02H
	DD	00H
	DD	0f3H
	DD	05aH
	DD	018cdbH
	DD	00H
	DD	0ffffffffH
	DD	02H
	DD	00H
	DD	0e2H
	DD	0faH
	DD	018cddH
	DD	00H
	DD	0ffffffffH
	DD	02H
	DD	00H
	DD	010dH
	DD	049H
	DD	018cdbH
	DD	00H
	DD	0ffffffffH
	DD	02H
	DD	00H
	DD	0d4H
	DD	0f9H
	DD	018cddH
	DD	00H
	DD	0ffffffffH
	DD	02H
	DD	00H
	DD	0124H
	DD	037H
	DD	018cdbH
	DD	00H
	DD	0ffffffffH
	DD	02H
	DD	00H
	DD	0b6H
	DD	0faH
	DD	018cddH
	DD	00H
	DD	0ffffffffH
	DD	02H
	DD	00H
	DD	0133H
	DD	06cH
	DD	018cdbH
	DD	00H
	DD	0ffffffffH
	DD	02H
	DD	00H
	DD	0a9H
	DD	0104H
	DD	018cddH
	DD	00H
	DD	0ffffffffH
	DD	02H
	DD	00H
	DD	0133H
	DD	066H
	DD	018cdbH
	DD	00H
	DD	0ffffffffH
	DD	02H
	DD	00H
	DD	093H
	DD	0106H
	DD	018cddH
	DD	00H
	DD	0ffffffffH
	DD	02H
	DD	00H
	DD	0b7H
	DD	05fH
	DD	018cdbH
	DD	00H
	DD	0ffffffffH
	DD	02H
	DD	00H
	DD	079H
	DD	0119H
	DD	018cddH
	DD	00H
	DD	0ffffffffH
	DD	02H
	DD	00H
	DD	09cH
	DD	038H
	DD	018cdbH
	DD	00H
	DD	0ffffffffH
	DD	02H
	DD	00H
	DD	06dH
	DD	0121H
	DD	018cddH
	DD	00H
	DD	0ffffffffH
	DD	02H
	DD	00H
	DD	089H
	DD	0b7H
	DD	018cdbH
	DD	00H
	DD	0ffffffffH
	DD	02H
	DD	00H
	DD	067H
	DD	0129H
	DD	018cddH
	DD	00H
	DD	0ffffffffH
	DD	02H
	DD	00H
	DD	085H
	DD	0a7H
	DD	018cdbH
	DD	00H
	DD	0ffffffffH
	DD	02H
	DD	00H
	DD	02eH
	DD	0140H
	DD	018cddH
	DD	00H
	DD	0ffffffffH
	DD	02H
	DD	00H
	DD	082H
	DD	0a3H
	DD	018cdbH
	DD	00H
	DD	0ffffffffH
	DD	02H
	DD	00H
	DD	03fH
	DD	0152H
	DD	018cddH
	DD	00H
	DD	0ffffffffH
	DD	02H
	DD	00H
	DD	070H
	DD	0a4H
	DD	018cdbH
	DD	00H
	DD	0ffffffffH
	DD	02H
	DD	00H
	DD	032H
	DD	0168H
	DD	018cddH
	DD	00H
	DD	0ffffffffH
	DD	02H
	DD	00H
	DD	052H
	DD	097H
	DD	018cdbH
	DD	00H
	DD	0ffffffffH
	DD	02H
	DD	00H
	DD	05cH
	DD	016dH
	DD	018cddH
	DD	00H
	DD	0ffffffffH
	DD	02H
	DD	00H
	DD	042H
	DD	09aH
	DD	018cdbH
	DD	00H
	DD	0ffffffffH
	DD	02H
	DD	00H
	DD	07aH
	DD	017cH
	DD	018cddH
	DD	00H
	DD	0ffffffffH
	DD	02H
	DD	00H
	DD	02fH
	DD	084H
	DD	018cdbH
	DD	00H
	DD	0ffffffffH
	DD	02H
	DD	00H
	DD	097H
	DD	0199H
	DD	018cddH
	DD	00H
	DD	0ffffffffH
	DD	02H
	DD	00H
	DD	02bH
	DD	082H
	DD	018cdbH
	DD	00H
	DD	0ffffffffH
	DD	02H
	DD	00H
	DD	0a2H
	DD	01a0H
	DD	018cddH
	DD	00H
	DD	0ffffffffH
	DD	02H
	DD	00H
	DD	034H
	DD	08cH
	DD	018cdbH
	DD	00H
	DD	0ffffffffH
	DD	02H
	DD	00H
	DD	0d1H
	DD	0171H
	DD	018cddH
	DD	00H
	DD	0ffffffffH
	DD	02H
	DD	00H
	DD	04cH
	DD	09bH
	DD	018cdbH
	DD	00H
	DD	0ffffffffH
	DD	02H
	DD	00H
	DD	0c0H
	DD	0152H
	DD	018cddH
	DD	00H
	DD	0ffffffffH
	DD	02H
	DD	00H
	DD	078H
	DD	0a9H
	DD	018cdbH
	DD	00H
	DD	0ffffffffH
	DD	02H
	DD	00H
	DD	0a5H
	DD	013bH
	DD	018cddH
	DD	00H
	DD	0ffffffffH
	DD	02H
	DD	00H
	DD	094H
	DD	0dcH
	DD	018cdbH
	DD	00H
	DD	0ffffffffH
	DD	02H
	DD	00H
	DD	0a6H
	DD	0157H
	DD	018cddH
	DD	00H
	DD	0ffffffffH
	DD	02H
	DD	00H
	DD	0e1H
	DD	0afH
	DD	018cdbH
	DD	00H
	DD	0ffffffffH
	DD	02H
	DD	00H
	DD	0c7H
	DD	0193H
	DD	018cddH
	DD	00H
	DD	0ffffffffH
	DD	02H
	DD	00H
	DD	0f4H
	DD	090H
	DD	018cdbH
	DD	00H
	DD	0ffffffffH
	DD	02H
	DD	00H
	DD	0abH
	DD	0198H
	DD	018cddH
	DD	00H
	DD	0ffffffffH
	DD	02H
	DD	00H
	DD	0e5H
	DD	067H
	DD	018cdbH
	DD	00H
	DD	0ffffffffH
	DD	02H
	DD	00H
	DD	091H
	DD	0196H
	DD	018cddH
	DD	00H
	DD	0ffffffffH
	DD	02H
	DD	00H
	DD	0eeH
	DD	06eH
	DD	018cdbH
	DD	00H
	DD	0ffffffffH
	DD	02H
	DD	00H
	DD	0a4H
	DD	01cdH
	DD	018cddH
	DD	00H
	DD	0ffffffffH
	DD	02H
	DD	00H
	DD	063H
	DD	058H
	DD	018cdbH
	DD	00H
	DD	0ffffffffH
	DD	02H
	DD	00H
	DD	0bcH
	DD	01fcH
	DD	018cddH
	DD	00H
	DD	0ffffffffH
	DD	02H
	DD	00H
	DD	086H
	DD	050H
	DD	018cdbH
	DD	00H
	DD	0ffffffffH
	DD	02H
	DD	00H
	DD	09eH
	DD	01c9H
	DD	018cddH
	DD	00H
	DD	0ffffffffH
	DD	02H
	DD	00H
	DD	0cfH
	DD	02eH
	DD	018cdbH
	DD	00H
	DD	0ffffffffH
	DD	02H
	DD	00H
	DD	094H
	DD	01e7H
	DD	018cddH
	DD	00H
	DD	0ffffffffH
	DD	02H
	DD	00H
	DD	013bH
	DD	02bH
	DD	018cdbH
	DD	00H
	DD	0ffffffffH
	DD	02H
	DD	00H
	DD	067H
	DD	01ccH
	DD	018cddH
	DD	00H
	DD	0ffffffffH
	DD	02H
	DD	00H
	DD	0151H
	DD	024H
	DD	018cdbH
	DD	00H
	DD	0ffffffffH
	DD	02H
	DD	00H
	DD	06fH
	DD	01beH
	DD	018cddH
	DD	00H
	DD	0ffffffffH
	DD	02H
	DD	00H
	DD	0161H
	DD	04bH
	DD	018cdbH
	DD	00H
	DD	0ffffffffH
	DD	02H
	DD	00H
	DD	07eH
	DD	01bbH
	DD	018cddH
	DD	00H
	DD	0ffffffffH
	DD	02H
	DD	00H
	DD	0167H
	DD	05aH
	DD	018cdbH
	DD	00H
	DD	0ffffffffH
	DD	02H
	DD	00H
	DD	084H
	DD	0199H
	DD	018cddH
	DD	00H
	DD	0ffffffffH
	DD	02H
	DD	00H
	DD	0167H
	DD	064H
	DD	018cdbH
	DD	00H
	DD	0ffffffffH
	DD	02H
	DD	00H
	DD	06eH
	DD	017eH
	DD	018cddH
	DD	00H
	DD	0ffffffffH
	DD	02H
	DD	00H
	DD	0163H
	DD	064H
	DD	018cdbH
	DD	00H
	DD	0ffffffffH
	DD	02H
	DD	00H
	DD	017aH
	DD	0baH
	DD	018cddH
	DD	00H
	DD	0ffffffffH
	DD	02H
	DD	00H
	DD	015fH
	DD	098H
	DD	018cdbH
	DD	00H
	DD	0ffffffffH
	DD	02H
	DD	00H
	DD	0172H
	DD	0d1H
	DD	018cddH
	DD	00H
	DD	0ffffffffH
	DD	02H
	DD	00H
	DD	0168H
	DD	09dH
	DD	018cdbH
	DD	00H
	DD	0ffffffffH
	DD	02H
	DD	00H
	DD	015dH
	DD	0e1H
	DD	018cddH
	DD	00H
	DD	0ffffffffH
	DD	02H
	DD	00H
	DD	0172H
	DD	0aaH
	DD	018cdbH
	DD	00H
	DD	0ffffffffH
	DD	02H
	DD	00H
	DD	0155H
	DD	0eaH
	DD	018cddH
	DD	00H
	DD	0ffffffffH
	DD	02H
	DD	00H
	DD	012cH
	DD	0feH
	DD	018cdbH
	DD	00H
	DD	0ffffffffH
	DD	02H
	DD	00H
	DD	0137H
	DD	0efH
	DD	018cddH
	DD	00H
	DD	0ffffffffH
	DD	02H
	DD	00H
	DD	081H
	DD	0b9H
	DD	018cdaH
	DD	00H
	DD	0ffffffffH
	DD	02H
	DD	00H
	DD	016fH
	DD	0ccH
	DD	018cdcH
	DD	00H
	DD	0ffffffffH
	DD	02H
	DD	00H
	DD	085H
	DD	0a0H
	DD	018cdaH
	DD	00H
	DD	0ffffffffH
	DD	02H
	DD	00H
	DD	0154H
	DD	0ddH
	DD	018cdcH
	DD	00H
	DD	0ffffffffH
	DD	02H
	DD	00H
	DD	0f8H
	DD	057H
	DD	018cdaH
	DD	00H
	DD	0ffffffffH
	DD	02H
	DD	00H
	DD	014aH
	DD	0e3H
	DD	018cdcH
	DD	00H
	DD	0ffffffffH
	DD	02H
	DD	00H
	DD	0106H
	DD	024H
	DD	018cdaH
	DD	00H
	DD	0ffffffffH
	DD	02H
	DD	00H
	DD	013cH
	DD	0faH
	DD	018cdcH
	DD	00H
	DD	0ffffffffH
	DD	02H
	DD	00H
	DD	0100H
	DD	053H
	DD	018cdaH
	DD	00H
	DD	0ffffffffH
	DD	02H
	DD	00H
	DD	0123H
	DD	0faH
	DD	018cdcH
	DD	00H
	DD	0ffffffffH
	DD	02H
	DD	00H
	DD	0139H
	DD	073H
	DD	018cdaH
	DD	00H
	DD	0ffffffffH
	DD	02H
	DD	00H
	DD	0114H
	DD	0105H
	DD	018cdcH
	DD	00H
	DD	0ffffffffH
	DD	02H
	DD	00H
	DD	012fH
	DD	06eH
	DD	018cdaH
	DD	00H
	DD	0ffffffffH
	DD	02H
	DD	00H
	DD	0fcH
	DD	0105H
	DD	018cdcH
	DD	00H
	DD	0ffffffffH
	DD	02H
	DD	00H
	DD	0adH
	DD	053H
	DD	018cdaH
	DD	00H
	DD	0ffffffffH
	DD	02H
	DD	00H
	DD	0deH
	DD	0f9H
	DD	018cdcH
	DD	00H
	DD	0ffffffffH
	DD	02H
	DD	00H
	DD	08eH
	DD	057H
	DD	018cdaH
	DD	00H
	DD	0ffffffffH
	DD	02H
	DD	00H
	DD	0d1H
	DD	0f9H
	DD	018cdcH
	DD	00H
	DD	0ffffffffH
	DD	02H
	DD	00H
	DD	0fcH
	DD	07eH
	DD	018cdaH
	DD	00H
	DD	0ffffffffH
	DD	02H
	DD	00H
	DD	0b3H
	DD	0f8H
	DD	018cdcH
	DD	00H
	DD	0ffffffffH
	DD	02H
	DD	00H
	DD	0ddH
	DD	0b3H
	DD	018cdaH
	DD	00H
	DD	0ffffffffH
	DD	02H
	DD	00H
	DD	0a7H
	DD	0100H
	DD	018cdcH
	DD	00H
	DD	0ffffffffH
	DD	02H
	DD	00H
	DD	0c7H
	DD	0b6H
	DD	018cdaH
	DD	00H
	DD	0ffffffffH
	DD	02H
	DD	00H
	DD	08eH
	DD	0105H
	DD	018cdcH
	DD	00H
	DD	0ffffffffH
	DD	02H
	DD	00H
	DD	060H
	DD	095H
	DD	018cdaH
	DD	00H
	DD	0ffffffffH
	DD	02H
	DD	00H
	DD	071H
	DD	0116H
	DD	018cdcH
	DD	00H
	DD	0ffffffffH
	DD	02H
	DD	00H
	DD	055H
	DD	08dH
	DD	018cdaH
	DD	00H
	DD	0ffffffffH
	DD	02H
	DD	00H
	DD	067H
	DD	0120H
	DD	018cdcH
	DD	00H
	DD	0ffffffffH
	DD	02H
	DD	00H
	DD	03dH
	DD	09dH
	DD	018cdaH
	DD	00H
	DD	0ffffffffH
	DD	02H
	DD	00H
	DD	054H
	DD	0133H
	DD	018cdcH
	DD	00H
	DD	0ffffffffH
	DD	02H
	DD	00H
	DD	027H
	DD	087H
	DD	018cdaH
	DD	00H
	DD	0ffffffffH
	DD	02H
	DD	00H
	DD	02eH
	DD	0144H
	DD	018cdcH
	DD	00H
	DD	0ffffffffH
	DD	02H
	DD	00H
	DD	028H
	DD	083H
	DD	018cdaH
	DD	00H
	DD	0ffffffffH
	DD	02H
	DD	00H
	DD	03fH
	DD	0157H
	DD	018cdcH
	DD	00H
	DD	0ffffffffH
	DD	02H
	DD	00H
	DD	037H
	DD	094H
	DD	018cdaH
	DD	00H
	DD	0ffffffffH
	DD	02H
	DD	00H
	DD	035H
	DD	016bH
	DD	018cdcH
	DD	00H
	DD	0ffffffffH
	DD	02H
	DD	00H
	DD	05cH
	DD	093H
	DD	018cdaH
	DD	00H
	DD	0ffffffffH
	DD	02H
	DD	00H
	DD	064H
	DD	0171H
	DD	018cdcH
	DD	00H
	DD	0ffffffffH
	DD	02H
	DD	00H
	DD	081H
	DD	0b0H
	DD	018cdaH
	DD	00H
	DD	0ffffffffH
	DD	02H
	DD	00H
	DD	087H
	DD	0186H
	DD	018cdcH
	DD	00H
	DD	0ffffffffH
	DD	02H
	DD	00H
	DD	097H
	DD	0d0H
	DD	018cdaH
	DD	00H
	DD	0ffffffffH
	DD	02H
	DD	00H
	DD	099H
	DD	0197H
	DD	018cdcH
	DD	00H
	DD	0ffffffffH
	DD	02H
	DD	00H
	DD	0e5H
	DD	0a6H
	DD	018cdaH
	DD	00H
	DD	0ffffffffH
	DD	02H
	DD	00H
	DD	0a9H
	DD	01a3H
	DD	018cdcH
	DD	00H
	DD	0ffffffffH
	DD	02H
	DD	00H
	DD	0feH
	DD	084H
	DD	018cdaH
	DD	00H
	DD	0ffffffffH
	DD	02H
	DD	00H
	DD	0d4H
	DD	0172H
	DD	018cdcH
	DD	00H
	DD	0ffffffffH
	DD	02H
	DD	00H
	DD	0135H
	DD	06dH
	DD	018cdaH
	DD	00H
	DD	0ffffffffH
	DD	02H
	DD	00H
	DD	0c4H
	DD	0152H
	DD	018cdcH
	DD	00H
	DD	0ffffffffH
	DD	02H
	DD	00H
	DD	0ecH
	DD	04cH
	DD	018cdaH
	DD	00H
	DD	0ffffffffH
	DD	02H
	DD	00H
	DD	0a1H
	DD	0141H
	DD	018cdcH
	DD	00H
	DD	0ffffffffH
	DD	02H
	DD	00H
	DD	06fH
	DD	059H
	DD	018cdaH
	DD	00H
	DD	0ffffffffH
	DD	02H
	DD	00H
	DD	0b8H
	DD	014fH
	DD	018cdcH
	DD	00H
	DD	0ffffffffH
	DD	02H
	DD	00H
	DD	089H
	DD	04cH
	DD	018cdaH
	DD	00H
	DD	0ffffffffH
	DD	02H
	DD	00H
	DD	0b6H
	DD	019aH
	DD	018cdcH
	DD	00H
	DD	0ffffffffH
	DD	02H
	DD	00H
	DD	010dH
	DD	039H
	DD	018cdaH
	DD	00H
	DD	0ffffffffH
	DD	02H
	DD	00H
	DD	0b3H
	DD	01a9H
	DD	018cdcH
	DD	00H
	DD	0ffffffffH
	DD	02H
	DD	00H
	DD	0134H
	DD	028H
	DD	018cdaH
	DD	00H
	DD	0ffffffffH
	DD	02H
	DD	00H
	DD	097H
	DD	018fH
	DD	018cdcH
	DD	00H
	DD	0ffffffffH
	DD	02H
	DD	00H
	DD	0159H
	DD	03cH
	DD	018cdaH
	DD	00H
	DD	0ffffffffH
	DD	02H
	DD	00H
	DD	0a7H
	DD	01e7H
	DD	018cdcH
	DD	00H
	DD	0ffffffffH
	DD	02H
	DD	00H
	DD	015aH
	DD	04fH
	DD	018cdaH
	DD	00H
	DD	0ffffffffH
	DD	02H
	DD	00H
	DD	0bbH
	DD	0204H
	DD	018cdcH
	DD	00H
	DD	0ffffffffH
	DD	02H
	DD	00H
	DD	0167H
	DD	062H
	DD	018cdaH
	DD	00H
	DD	0ffffffffH
	DD	02H
	DD	00H
	DD	06aH
	DD	01e8H
	DD	018cdcH
	DD	00H
	DD	0ffffffffH
	DD	02H
	DD	00H
	DD	0175H
	DD	06eH
	DD	018cdaH
	DD	00H
	DD	0ffffffffH
	DD	02H
	DD	00H
	DD	08fH
	DD	01e7H
	DD	018cdcH
	DD	00H
	DD	0ffffffffH
	DD	02H
	DD	00H
	DD	0175H
	DD	06aH
	DD	018cdaH
	DD	00H
	DD	0ffffffffH
	DD	02H
	DD	00H
	DD	06aH
	DD	01c7H
	DD	018cdcH
	DD	00H
	DD	0ffffffffH
	DD	02H
	DD	00H
	DD	0164H
	DD	098H
	DD	018cdaH
	DD	00H
	DD	0ffffffffH
	DD	02H
	DD	00H
	DD	068H
	DD	01caH
	DD	018cdcH
	DD	00H
	DD	0ffffffffH
	DD	02H
	DD	00H
	DD	016dH
	DD	09aH
	DD	018cdaH
	DD	00H
	DD	0ffffffffH
	DD	02H
	DD	00H
	DD	092H
	DD	01acH
	DD	018cdcH
	DD	00H
	DD	0ffffffffH
	DD	02H
	DD	00H
	DD	0168H
	DD	0a9H
	DD	018cdaH
	DD	00H
	DD	0ffffffffH
	DD	02H
	DD	00H
	DD	080H
	DD	0195H
	DD	018cdcH
	DD	00H
	DD	0ffffffffH
	DD	02H
	DD	00H
	DD	0175H
	DD	0baH
	DD	018cdaH
	DD	00H
	DD	0ffffffffH
	DD	02H
	DD	00H
	DD	05cH
	DD	017dH
	DD	018cdcH
	DD	00H
	DD	0ffffffffH
	DD	02H
	DD	00H
	DD	094H
	DD	0c7H
	DD	018cdeH
	DD	00H
	DD	0ffffffffH
	DD	02H
	DD	00H
	DD	0164H
	DD	0daH
	DD	018ce0H
	DD	00H
	DD	0ffffffffH
	DD	02H
	DD	00H
	DD	078H
	DD	09eH
	DD	018cdeH
	DD	00H
	DD	0ffffffffH
	DD	02H
	DD	00H
	DD	0151H
	DD	0deH
	DD	018ce0H
	DD	00H
	DD	0ffffffffH
	DD	02H
	DD	00H
	DD	0ebH
	DD	04eH
	DD	018cdeH
	DD	00H
	DD	0ffffffffH
	DD	02H
	DD	00H
	DD	013fH
	DD	0e9H
	DD	018ce0H
	DD	00H
	DD	0ffffffffH
	DD	02H
	DD	00H
	DD	011eH
	DD	031H
	DD	018cdeH
	DD	00H
	DD	0ffffffffH
	DD	02H
	DD	00H
	DD	0131H
	DD	0f2H
	DD	018ce0H
	DD	00H
	DD	0ffffffffH
	DD	02H
	DD	00H
	DD	0174H
	DD	079H
	DD	018cdeH
	DD	00H
	DD	0ffffffffH
	DD	02H
	DD	00H
	DD	0119H
	DD	0104H
	DD	018ce0H
	DD	00H
	DD	0ffffffffH
	DD	02H
	DD	00H
	DD	015aH
	DD	03eH
	DD	018cdeH
	DD	00H
	DD	0ffffffffH
	DD	02H
	DD	00H
	DD	010fH
	DD	0106H
	DD	018ce0H
	DD	00H
	DD	0ffffffffH
	DD	02H
	DD	00H
	DD	0145H
	DD	050H
	DD	018cdeH
	DD	00H
	DD	0ffffffffH
	DD	02H
	DD	00H
	DD	0f3H
	DD	0f6H
	DD	018ce0H
	DD	00H
	DD	0ffffffffH
	DD	02H
	DD	00H
	DD	09cH
	DD	034H
	DD	018cdeH
	DD	00H
	DD	0ffffffffH
	DD	02H
	DD	00H
	DD	0dfH
	DD	0faH
	DD	018ce0H
	DD	00H
	DD	0ffffffffH
	DD	02H
	DD	00H
	DD	09fH
	DD	04aH
	DD	018cdeH
	DD	00H
	DD	0ffffffffH
	DD	02H
	DD	00H
	DD	0caH
	DD	0f7H
	DD	018ce0H
	DD	00H
	DD	0ffffffffH
	DD	02H
	DD	00H
	DD	0f0H
	DD	099H
	DD	018cdeH
	DD	00H
	DD	0ffffffffH
	DD	02H
	DD	00H
	DD	0afH
	DD	0101H
	DD	018ce0H
	DD	00H
	DD	0ffffffffH
	DD	02H
	DD	00H
	DD	0ccH
	DD	0b0H
	DD	018cdeH
	DD	00H
	DD	0ffffffffH
	DD	02H
	DD	00H
	DD	0a3H
	DD	0100H
	DD	018ce0H
	DD	00H
	DD	0ffffffffH
	DD	02H
	DD	00H
	DD	0bdH
	DD	0bdH
	DD	018cdeH
	DD	00H
	DD	0ffffffffH
	DD	02H
	DD	00H
	DD	087H
	DD	0107H
	DD	018ce0H
	DD	00H
	DD	0ffffffffH
	DD	02H
	DD	00H
	DD	058H
	DD	08eH
	DD	018cdeH
	DD	00H
	DD	0ffffffffH
	DD	02H
	DD	00H
	DD	071H
	DD	0120H
	DD	018ce0H
	DD	00H
	DD	0ffffffffH
	DD	02H
	DD	00H
	DD	04cH
	DD	093H
	DD	018cdeH
	DD	00H
	DD	0ffffffffH
	DD	02H
	DD	00H
	DD	063H
	DD	0123H
	DD	018ce0H
	DD	00H
	DD	0ffffffffH
	DD	02H
	DD	00H
	DD	03aH
	DD	08cH
	DD	018cdeH
	DD	00H
	DD	0ffffffffH
	DD	02H
	DD	00H
	DD	04cH
	DD	013eH
	DD	018ce0H
	DD	00H
	DD	0ffffffffH
	DD	02H
	DD	00H
	DD	027H
	DD	077H
	DD	018cdeH
	DD	00H
	DD	0ffffffffH
	DD	02H
	DD	00H
	DD	045H
	DD	0145H
	DD	018ce0H
	DD	00H
	DD	0ffffffffH
	DD	02H
	DD	00H
	DD	01bH
	DD	07dH
	DD	018cdeH
	DD	00H
	DD	0ffffffffH
	DD	02H
	DD	00H
	DD	04aH
	DD	0162H
	DD	018ce0H
	DD	00H
	DD	0ffffffffH
	DD	02H
	DD	00H
	DD	03cH
	DD	09eH
	DD	018cdeH
	DD	00H
	DD	0ffffffffH
	DD	02H
	DD	00H
	DD	04dH
	DD	0165H
	DD	018ce0H
	DD	00H
	DD	0ffffffffH
	DD	02H
	DD	00H
	DD	064H
	DD	09dH
	DD	018cdeH
	DD	00H
	DD	0ffffffffH
	DD	02H
	DD	00H
	DD	064H
	DD	0177H
	DD	018ce0H
	DD	00H
	DD	0ffffffffH
	DD	02H
	DD	00H
	DD	08dH
	DD	0c0H
	DD	018cdeH
	DD	00H
	DD	0ffffffffH
	DD	02H
	DD	00H
	DD	07eH
	DD	0193H
	DD	018ce0H
	DD	00H
	DD	0ffffffffH
	DD	02H
	DD	00H
	DD	0bdH
	DD	0c4H
	DD	018cdeH
	DD	00H
	DD	0ffffffffH
	DD	02H
	DD	00H
	DD	0a0H
	DD	018fH
	DD	018ce0H
	DD	00H
	DD	0ffffffffH
	DD	02H
	DD	00H
	DD	0f4H
	DD	0a0H
	DD	018cdeH
	DD	00H
	DD	0ffffffffH
	DD	02H
	DD	00H
	DD	0b0H
	DD	01b1H
	DD	018ce0H
	DD	00H
	DD	0ffffffffH
	DD	02H
	DD	00H
	DD	0102H
	DD	074H
	DD	018cdeH
	DD	00H
	DD	0ffffffffH
	DD	02H
	DD	00H
	DD	0cdH
	DD	016cH
	DD	018ce0H
	DD	00H
	DD	0ffffffffH
	DD	02H
	DD	00H
	DD	0131H
	DD	071H
	DD	018cdeH
	DD	00H
	DD	0ffffffffH
	DD	02H
	DD	00H
	DD	0bfH
	DD	014aH
	DD	018ce0H
	DD	00H
	DD	0ffffffffH
	DD	02H
	DD	00H
	DD	0a9H
	DD	067H
	DD	018cdeH
	DD	00H
	DD	0ffffffffH
	DD	02H
	DD	00H
	DD	096H
	DD	0149H
	DD	018ce0H
	DD	00H
	DD	0ffffffffH
	DD	02H
	DD	00H
	DD	083H
	DD	054H
	DD	018cdeH
	DD	00H
	DD	0ffffffffH
	DD	02H
	DD	00H
	DD	0baH
	DD	0158H
	DD	018ce0H
	DD	00H
	DD	0ffffffffH
	DD	02H
	DD	00H
	DD	0c4H
	DD	061H
	DD	018cdeH
	DD	00H
	DD	0ffffffffH
	DD	02H
	DD	00H
	DD	0b7H
	DD	019dH
	DD	018ce0H
	DD	00H
	DD	0ffffffffH
	DD	02H
	DD	00H
	DD	011dH
	DD	031H
	DD	018cdeH
	DD	00H
	DD	0ffffffffH
	DD	02H
	DD	00H
	DD	0afH
	DD	01b2H
	DD	018ce0H
	DD	00H
	DD	0ffffffffH
	DD	02H
	DD	00H
	DD	014aH
	DD	018H
	DD	018cdeH
	DD	00H
	DD	0ffffffffH
	DD	02H
	DD	00H
	DD	0a2H
	DD	01ceH
	DD	018ce0H
	DD	00H
	DD	0ffffffffH
	DD	02H
	DD	00H
	DD	0163H
	DD	046H
	DD	018cdeH
	DD	00H
	DD	0ffffffffH
	DD	02H
	DD	00H
	DD	0a5H
	DD	01f4H
	DD	018ce0H
	DD	00H
	DD	0ffffffffH
	DD	02H
	DD	00H
	DD	0148H
	DD	03cH
	DD	018cdeH
	DD	00H
	DD	0ffffffffH
	DD	02H
	DD	00H
	DD	0b4H
	DD	01feH
	DD	018ce0H
	DD	00H
	DD	0ffffffffH
	DD	02H
	DD	00H
	DD	0170H
	DD	068H
	DD	018cdeH
	DD	00H
	DD	0ffffffffH
	DD	02H
	DD	00H
	DD	089H
	DD	01e9H
	DD	018ce0H
	DD	00H
	DD	0ffffffffH
	DD	02H
	DD	00H
	DD	0173H
	DD	076H
	DD	018cdeH
	DD	00H
	DD	0ffffffffH
	DD	02H
	DD	00H
	DD	082H
	DD	01ebH
	DD	018ce0H
	DD	00H
	DD	0ffffffffH
	DD	02H
	DD	00H
	DD	0167H
	DD	08aH
	DD	018cdeH
	DD	00H
	DD	0ffffffffH
	DD	02H
	DD	00H
	DD	072H
	DD	01bbH
	DD	018ce0H
	DD	00H
	DD	0ffffffffH
	DD	02H
	DD	00H
	DD	0167H
	DD	0aaH
	DD	018cdeH
	DD	00H
	DD	0ffffffffH
	DD	02H
	DD	00H
	DD	063H
	DD	01d6H
	DD	018ce0H
	DD	00H
	DD	0ffffffffH
	DD	02H
	DD	00H
	DD	015dH
	DD	083H
	DD	018cdeH
	DD	00H
	DD	0ffffffffH
	DD	02H
	DD	00H
	DD	084H
	DD	019eH
	DD	018ce0H
	DD	00H
	DD	0ffffffffH
	DD	02H
	DD	00H
	DD	0174H
	DD	0b1H
	DD	018cdeH
	DD	00H
	DD	0ffffffffH
	DD	02H
	DD	00H
	DD	089H
	DD	0188H
	DD	018ce0H
	DD	00H
	DD	0ffffffffH
	DD	02H
	DD	00H
	DD	017dH
	DD	0cbH
	DD	018cdeH
	DD	00H
	DD	0ffffffffH
	DD	02H
	DD	00H
	DD	04fH
	DD	0176H
	DD	018ce0H
	DD	00H
	DD	0ffffffffH
	DD	02H
	DD	00H
	DD	08dH
	DD	0caH
	DD	018cdfH
	DD	00H
	DD	0ffffffffH
	DD	02H
	DD	00H
	DD	0166H
	DD	0d2H
	DD	018ce1H
	DD	00H
	DD	0ffffffffH
	DD	02H
	DD	00H
	DD	07dH
	DD	0a2H
	DD	018cdfH
	DD	00H
	DD	0ffffffffH
	DD	02H
	DD	00H
	DD	0158H
	DD	0e6H
	DD	018ce1H
	DD	00H
	DD	0ffffffffH
	DD	02H
	DD	00H
	DD	0f3H
	DD	05eH
	DD	018cdfH
	DD	00H
	DD	0ffffffffH
	DD	02H
	DD	00H
	DD	0146H
	DD	0e5H
	DD	018ce1H
	DD	00H
	DD	0ffffffffH
	DD	02H
	DD	00H
	DD	011cH
	DD	02eH
	DD	018cdfH
	DD	00H
	DD	0ffffffffH
	DD	02H
	DD	00H
	DD	013eH
	DD	0f8H
	DD	018ce1H
	DD	00H
	DD	0ffffffffH
	DD	02H
	DD	00H
	DD	013dH
	DD	07eH
	DD	018cdfH
	DD	00H
	DD	0ffffffffH
	DD	02H
	DD	00H
	DD	0120H
	DD	0fcH
	DD	018ce1H
	DD	00H
	DD	0ffffffffH
	DD	02H
	DD	00H
	DD	0162H
	DD	04bH
	DD	018cdfH
	DD	00H
	DD	0ffffffffH
	DD	02H
	DD	00H
	DD	0112H
	DD	0ffH
	DD	018ce1H
	DD	00H
	DD	0ffffffffH
	DD	02H
	DD	00H
	DD	013bH
	DD	074H
	DD	018cdfH
	DD	00H
	DD	0ffffffffH
	DD	02H
	DD	00H
	DD	0f3H
	DD	0107H
	DD	018ce1H
	DD	00H
	DD	0ffffffffH
	DD	02H
	DD	00H
	DD	09bH
	DD	049H
	DD	018cdfH
	DD	00H
	DD	0ffffffffH
	DD	02H
	DD	00H
	DD	0e0H
	DD	0fdH
	DD	018ce1H
	DD	00H
	DD	0ffffffffH
	DD	02H
	DD	00H
	DD	0a1H
	DD	04eH
	DD	018cdfH
	DD	00H
	DD	0ffffffffH
	DD	02H
	DD	00H
	DD	0d0H
	DD	0fcH
	DD	018ce1H
	DD	00H
	DD	0ffffffffH
	DD	02H
	DD	00H
	DD	0faH
	DD	08bH
	DD	018cdfH
	DD	00H
	DD	0ffffffffH
	DD	02H
	DD	00H
	DD	0b2H
	DD	0feH
	DD	018ce1H
	DD	00H
	DD	0ffffffffH
	DD	02H
	DD	00H
	DD	0ceH
	DD	0c5H
	DD	018cdfH
	DD	00H
	DD	0ffffffffH
	DD	02H
	DD	00H
	DD	0a0H
	DD	0104H
	DD	018ce1H
	DD	00H
	DD	0ffffffffH
	DD	02H
	DD	00H
	DD	0c3H
	DD	0c0H
	DD	018cdfH
	DD	00H
	DD	0ffffffffH
	DD	02H
	DD	00H
	DD	087H
	DD	0108H
	DD	018ce1H
	DD	00H
	DD	0ffffffffH
	DD	02H
	DD	00H
	DD	05eH
	DD	09bH
	DD	018cdfH
	DD	00H
	DD	0ffffffffH
	DD	02H
	DD	00H
	DD	070H
	DD	0119H
	DD	018ce1H
	DD	00H
	DD	0ffffffffH
	DD	02H
	DD	00H
	DD	04dH
	DD	099H
	DD	018cdfH
	DD	00H
	DD	0ffffffffH
	DD	02H
	DD	00H
	DD	067H
	DD	0128H
	DD	018ce1H
	DD	00H
	DD	0ffffffffH
	DD	02H
	DD	00H
	DD	037H
	DD	092H
	DD	018cdfH
	DD	00H
	DD	0ffffffffH
	DD	02H
	DD	00H
	DD	04fH
	DD	0136H
	DD	018ce1H
	DD	00H
	DD	0ffffffffH
	DD	02H
	DD	00H
	DD	02dH
	DD	07aH
	DD	018cdfH
	DD	00H
	DD	0ffffffffH
	DD	02H
	DD	00H
	DD	042H
	DD	0148H
	DD	018ce1H
	DD	00H
	DD	0ffffffffH
	DD	02H
	DD	00H
	DD	027H
	DD	078H
	DD	018cdfH
	DD	00H
	DD	0ffffffffH
	DD	02H
	DD	00H
	DD	044H
	DD	015fH
	DD	018ce1H
	DD	00H
	DD	0ffffffffH
	DD	02H
	DD	00H
	DD	030H
	DD	09dH
	DD	018cdfH
	DD	00H
	DD	0ffffffffH
	DD	02H
	DD	00H
	DD	04aH
	DD	0161H
	DD	018ce1H
	DD	00H
	DD	0ffffffffH
	DD	02H
	DD	00H
	DD	063H
	DD	097H
	DD	018cdfH
	DD	00H
	DD	0ffffffffH
	DD	02H
	DD	00H
	DD	06bH
	DD	0176H
	DD	018ce1H
	DD	00H
	DD	0ffffffffH
	DD	02H
	DD	00H
	DD	088H
	DD	0b6H
	DD	018cdfH
	DD	00H
	DD	0ffffffffH
	DD	02H
	DD	00H
	DD	08aH
	DD	0189H
	DD	018ce1H
	DD	00H
	DD	0ffffffffH
	DD	02H
	DD	00H
	DD	0adH
	DD	0cbH
	DD	018cdfH
	DD	00H
	DD	0ffffffffH
	DD	02H
	DD	00H
	DD	0a3H
	DD	018fH
	DD	018ce1H
	DD	00H
	DD	0ffffffffH
	DD	02H
	DD	00H
	DD	0dfH
	DD	0a0H
	DD	018cdfH
	DD	00H
	DD	0ffffffffH
	DD	02H
	DD	00H
	DD	0abH
	DD	019bH
	DD	018ce1H
	DD	00H
	DD	0ffffffffH
	DD	02H
	DD	00H
	DD	0feH
	DD	079H
	DD	018cdfH
	DD	00H
	DD	0ffffffffH
	DD	02H
	DD	00H
	DD	0d6H
	DD	017fH
	DD	018ce1H
	DD	00H
	DD	0ffffffffH
	DD	02H
	DD	00H
	DD	013bH
	DD	076H
	DD	018cdfH
	DD	00H
	DD	0ffffffffH
	DD	02H
	DD	00H
	DD	0c0H
	DD	014aH
	DD	018ce1H
	DD	00H
	DD	0ffffffffH
	DD	02H
	DD	00H
	DD	0eaH
	DD	045H
	DD	018cdfH
	DD	00H
	DD	0ffffffffH
	DD	02H
	DD	00H
	DD	09bH
	DD	0142H
	DD	018ce1H
	DD	00H
	DD	0ffffffffH
	DD	02H
	DD	00H
	DD	07bH
	DD	058H
	DD	018cdfH
	DD	00H
	DD	0ffffffffH
	DD	02H
	DD	00H
	DD	0b7H
	DD	0150H
	DD	018ce1H
	DD	00H
	DD	0ffffffffH
	DD	02H
	DD	00H
	DD	0a4H
	DD	050H
	DD	018cdfH
	DD	00H
	DD	0ffffffffH
	DD	02H
	DD	00H
	DD	0b6H
	DD	01a5H
	DD	018ce1H
	DD	00H
	DD	0ffffffffH
	DD	02H
	DD	00H
	DD	011cH
	DD	02dH
	DD	018cdfH
	DD	00H
	DD	0ffffffffH
	DD	02H
	DD	00H
	DD	0afH
	DD	01aeH
	DD	018ce1H
	DD	00H
	DD	0ffffffffH
	DD	02H
	DD	00H
	DD	014dH
	DD	01eH
	DD	018cdfH
	DD	00H
	DD	0ffffffffH
	DD	02H
	DD	00H
	DD	096H
	DD	019fH
	DD	018ce1H
	DD	00H
	DD	0ffffffffH
	DD	02H
	DD	00H
	DD	0160H
	DD	03eH
	DD	018cdfH
	DD	00H
	DD	0ffffffffH
	DD	02H
	DD	00H
	DD	0a9H
	DD	01f2H
	DD	018ce1H
	DD	00H
	DD	0ffffffffH
	DD	02H
	DD	00H
	DD	014fH
	DD	053H
	DD	018cdfH
	DD	00H
	DD	0ffffffffH
	DD	02H
	DD	00H
	DD	0bcH
	DD	0205H
	DD	018ce1H
	DD	00H
	DD	0ffffffffH
	DD	02H
	DD	00H
	DD	016bH
	DD	064H
	DD	018cdfH
	DD	00H
	DD	0ffffffffH
	DD	02H
	DD	00H
	DD	076H
	DD	01ecH
	DD	018ce1H
	DD	00H
	DD	0ffffffffH
	DD	02H
	DD	00H
	DD	0172H
	DD	067H
	DD	018cdfH
	DD	00H
	DD	0ffffffffH
	DD	02H
	DD	00H
	DD	088H
	DD	01eaH
	DD	018ce1H
	DD	00H
	DD	0ffffffffH
	DD	02H
	DD	00H
	DD	0152H
	DD	05bH
	DD	018cdfH
	DD	00H
	DD	0ffffffffH
	DD	02H
	DD	00H
	DD	071H
	DD	01beH
	DD	018ce1H
	DD	00H
	DD	0ffffffffH
	DD	02H
	DD	00H
	DD	0167H
	DD	099H
	DD	018cdfH
	DD	00H
	DD	0ffffffffH
	DD	02H
	DD	00H
	DD	06eH
	DD	01d0H
	DD	018ce1H
	DD	00H
	DD	0ffffffffH
	DD	02H
	DD	00H
	DD	016bH
	DD	0a2H
	DD	018cdfH
	DD	00H
	DD	0ffffffffH
	DD	02H
	DD	00H
	DD	086H
	DD	01a8H
	DD	018ce1H
	DD	00H
	DD	0ffffffffH
	DD	02H
	DD	00H
	DD	0175H
	DD	0abH
	DD	018cdfH
	DD	00H
	DD	0ffffffffH
	DD	02H
	DD	00H
	DD	07fH
	DD	0193H
	DD	018ce1H
	DD	00H
	DD	0ffffffffH
	DD	02H
	DD	00H
	DD	0181H
	DD	0c0H
	DD	018cdfH
	DD	00H
	DD	0ffffffffH
	DD	02H
	DD	00H
	DD	055H
	DD	0179H
	DD	018ce1H
	DD	00H
	DD	0ffffffffH
	DD	02H
	DD	00H
	DD	088H
	DD	0adH
	DD	018ce3H
	DD	00H
	DD	0ffffffffH
	DD	02H
	DD	00H
	DD	015dH
	DD	0d5H
	DD	018ce5H
	DD	00H
	DD	0ffffffffH
	DD	02H
	DD	00H
	DD	076H
	DD	09eH
	DD	018ce3H
	DD	00H
	DD	0ffffffffH
	DD	02H
	DD	00H
	DD	0153H
	DD	0e1H
	DD	018ce5H
	DD	00H
	DD	0ffffffffH
	DD	02H
	DD	00H
	DD	0e3H
	DD	04bH
	DD	018ce3H
	DD	00H
	DD	0ffffffffH
	DD	02H
	DD	00H
	DD	0142H
	DD	0f4H
	DD	018ce5H
	DD	00H
	DD	0ffffffffH
	DD	02H
	DD	00H
	DD	011eH
	DD	039H
	DD	018ce3H
	DD	00H
	DD	0ffffffffH
	DD	02H
	DD	00H
	DD	012bH
	DD	0f7H
	DD	018ce5H
	DD	00H
	DD	0ffffffffH
	DD	02H
	DD	00H
	DD	0161H
	DD	05aH
	DD	018ce3H
	DD	00H
	DD	0ffffffffH
	DD	02H
	DD	00H
	DD	0119H
	DD	0102H
	DD	018ce5H
	DD	00H
	DD	0ffffffffH
	DD	02H
	DD	00H
	DD	0142H
	DD	046H
	DD	018ce3H
	DD	00H
	DD	0ffffffffH
	DD	02H
	DD	00H
	DD	0110H
	DD	0100H
	DD	018ce5H
	DD	00H
	DD	0ffffffffH
	DD	02H
	DD	00H
	DD	0160H
	DD	028H
	DD	018ce3H
	DD	00H
	DD	0ffffffffH
	DD	02H
	DD	00H
	DD	0e6H
	DD	0f9H
	DD	018ce5H
	DD	00H
	DD	0ffffffffH
	DD	02H
	DD	00H
	DD	09bH
	DD	034H
	DD	018ce3H
	DD	00H
	DD	0ffffffffH
	DD	02H
	DD	00H
	DD	0d8H
	DD	0f8H
	DD	018ce5H
	DD	00H
	DD	0ffffffffH
	DD	02H
	DD	00H
	DD	098H
	DD	047H
	DD	018ce3H
	DD	00H
	DD	0ffffffffH
	DD	02H
	DD	00H
	DD	0beH
	DD	0f3H
	DD	018ce5H
	DD	00H
	DD	0ffffffffH
	DD	02H
	DD	00H
	DD	0eaH
	DD	0a8H
	DD	018ce3H
	DD	00H
	DD	0ffffffffH
	DD	02H
	DD	00H
	DD	0acH
	DD	0ffH
	DD	018ce5H
	DD	00H
	DD	0ffffffffH
	DD	02H
	DD	00H
	DD	0c7H
	DD	0beH
	DD	018ce3H
	DD	00H
	DD	0ffffffffH
	DD	02H
	DD	00H
	DD	096H
	DD	0102H
	DD	018ce5H
	DD	00H
	DD	0ffffffffH
	DD	02H
	DD	00H
	DD	0afH
	DD	0cbH
	DD	018ce3H
	DD	00H
	DD	0ffffffffH
	DD	02H
	DD	00H
	DD	075H
	DD	010fH
	DD	018ce5H
	DD	00H
	DD	0ffffffffH
	DD	02H
	DD	00H
	DD	055H
	DD	08dH
	DD	018ce3H
	DD	00H
	DD	0ffffffffH
	DD	02H
	DD	00H
	DD	06dH
	DD	011cH
	DD	018ce5H
	DD	00H
	DD	0ffffffffH
	DD	02H
	DD	00H
	DD	048H
	DD	097H
	DD	018ce3H
	DD	00H
	DD	0ffffffffH
	DD	02H
	DD	00H
	DD	064H
	DD	012dH
	DD	018ce5H
	DD	00H
	DD	0ffffffffH
	DD	02H
	DD	00H
	DD	02cH
	DD	08bH
	DD	018ce3H
	DD	00H
	DD	0ffffffffH
	DD	02H
	DD	00H
	DD	04bH
	DD	013bH
	DD	018ce5H
	DD	00H
	DD	0ffffffffH
	DD	02H
	DD	00H
	DD	02dH
	DD	07aH
	DD	018ce3H
	DD	00H
	DD	0ffffffffH
	DD	02H
	DD	00H
	DD	04aH
	DD	0137H
	DD	018ce5H
	DD	00H
	DD	0ffffffffH
	DD	02H
	DD	00H
	DD	01dH
	DD	074H
	DD	018ce3H
	DD	00H
	DD	0ffffffffH
	DD	02H
	DD	00H
	DD	03dH
	DD	016fH
	DD	018ce5H
	DD	00H
	DD	0ffffffffH
	DD	02H
	DD	00H
	DD	048H
	DD	097H
	DD	018ce3H
	DD	00H
	DD	0ffffffffH
	DD	02H
	DD	00H
	DD	030H
	DD	015aH
	DD	018ce5H
	DD	00H
	DD	0ffffffffH
	DD	02H
	DD	00H
	DD	073H
	DD	09dH
	DD	018ce3H
	DD	00H
	DD	0ffffffffH
	DD	02H
	DD	00H
	DD	06fH
	DD	0178H
	DD	018ce5H
	DD	00H
	DD	0ffffffffH
	DD	02H
	DD	00H
	DD	09aH
	DD	0caH
	DD	018ce3H
	DD	00H
	DD	0ffffffffH
	DD	02H
	DD	00H
	DD	08eH
	DD	018dH
	DD	018ce5H
	DD	00H
	DD	0ffffffffH
	DD	02H
	DD	00H
	DD	0d4H
	DD	0b7H
	DD	018ce3H
	DD	00H
	DD	0ffffffffH
	DD	02H
	DD	00H
	DD	0a2H
	DD	018eH
	DD	018ce5H
	DD	00H
	DD	0ffffffffH
	DD	02H
	DD	00H
	DD	0f4H
	DD	09dH
	DD	018ce3H
	DD	00H
	DD	0ffffffffH
	DD	02H
	DD	00H
	DD	0bcH
	DD	0181H
	DD	018ce5H
	DD	00H
	DD	0ffffffffH
	DD	02H
	DD	00H
	DD	0100H
	DD	069H
	DD	018ce3H
	DD	00H
	DD	0ffffffffH
	DD	02H
	DD	00H
	DD	0c7H
	DD	016bH
	DD	018ce5H
	DD	00H
	DD	0ffffffffH
	DD	02H
	DD	00H
	DD	0119H
	DD	071H
	DD	018ce3H
	DD	00H
	DD	0ffffffffH
	DD	02H
	DD	00H
	DD	0bcH
	DD	0142H
	DD	018ce5H
	DD	00H
	DD	0ffffffffH
	DD	02H
	DD	00H
	DD	09aH
	DD	049H
	DD	018ce3H
	DD	00H
	DD	0ffffffffH
	DD	02H
	DD	00H
	DD	0a1H
	DD	014aH
	DD	018ce5H
	DD	00H
	DD	0ffffffffH
	DD	02H
	DD	00H
	DD	094H
	DD	049H
	DD	018ce3H
	DD	00H
	DD	0ffffffffH
	DD	02H
	DD	00H
	DD	0b9H
	DD	0185H
	DD	018ce5H
	DD	00H
	DD	0ffffffffH
	DD	02H
	DD	00H
	DD	0fcH
	DD	029H
	DD	018ce3H
	DD	00H
	DD	0ffffffffH
	DD	02H
	DD	00H
	DD	0adH
	DD	01aeH
	DD	018ce5H
	DD	00H
	DD	0ffffffffH
	DD	02H
	DD	00H
	DD	0128H
	DD	03bH
	DD	018ce3H
	DD	00H
	DD	0ffffffffH
	DD	02H
	DD	00H
	DD	086H
	DD	01b4H
	DD	018ce5H
	DD	00H
	DD	0ffffffffH
	DD	02H
	DD	00H
	DD	0138H
	DD	043H
	DD	018ce3H
	DD	00H
	DD	0ffffffffH
	DD	02H
	DD	00H
	DD	0bdH
	DD	01d6H
	DD	018ce5H
	DD	00H
	DD	0ffffffffH
	DD	02H
	DD	00H
	DD	0160H
	DD	03eH
	DD	018ce3H
	DD	00H
	DD	0ffffffffH
	DD	02H
	DD	00H
	DD	0b8H
	DD	01faH
	DD	018ce5H
	DD	00H
	DD	0ffffffffH
	DD	02H
	DD	00H
	DD	014dH
	DD	056H
	DD	018ce3H
	DD	00H
	DD	0ffffffffH
	DD	02H
	DD	00H
	DD	0a4H
	DD	01f3H
	DD	018ce5H
	DD	00H
	DD	0ffffffffH
	DD	02H
	DD	00H
	DD	0173H
	DD	071H
	DD	018ce3H
	DD	00H
	DD	0ffffffffH
	DD	02H
	DD	00H
	DD	09cH
	DD	01e6H
	DD	018ce5H
	DD	00H
	DD	0ffffffffH
	DD	02H
	DD	00H
	DD	018dH
	DD	083H
	DD	018ce3H
	DD	00H
	DD	0ffffffffH
	DD	02H
	DD	00H
	DD	06eH
	DD	01ebH
	DD	018ce5H
	DD	00H
	DD	0ffffffffH
	DD	02H
	DD	00H
	DD	0161H
	DD	084H
	DD	018ce3H
	DD	00H
	DD	0ffffffffH
	DD	02H
	DD	00H
	DD	075H
	DD	01b6H
	DD	018ce5H
	DD	00H
	DD	0ffffffffH
	DD	02H
	DD	00H
	DD	016bH
	DD	0a4H
	DD	018ce3H
	DD	00H
	DD	0ffffffffH
	DD	02H
	DD	00H
	DD	063H
	DD	01e0H
	DD	018ce5H
	DD	00H
	DD	0ffffffffH
	DD	02H
	DD	00H
	DD	016dH
	DD	0a5H
	DD	018ce3H
	DD	00H
	DD	0ffffffffH
	DD	02H
	DD	00H
	DD	08eH
	DD	018eH
	DD	018ce5H
	DD	00H
	DD	0ffffffffH
	DD	02H
	DD	00H
	DD	0175H
	DD	0b8H
	DD	018ce3H
	DD	00H
	DD	0ffffffffH
	DD	02H
	DD	00H
	DD	069H
	DD	0181H
	DD	018ce5H
	DD	00H
	DD	0ffffffffH
	DD	02H
	DD	00H
	DD	0174H
	DD	0b9H
	DD	018ce3H
	DD	00H
	DD	0ffffffffH
	DD	02H
	DD	00H
	DD	047H
	DD	0173H
	DD	018ce5H
	DD	00H
	DD	0ffffffffH
	DD	02H
	DD	00H
	DD	09aH
	DD	0c8H
	DD	018ce2H
	DD	00H
	DD	0ffffffffH
	DD	02H
	DD	00H
	DD	015dH
	DD	0d3H
	DD	018ce4H
	DD	00H
	DD	0ffffffffH
	DD	02H
	DD	00H
	DD	077H
	DD	09dH
	DD	018ce2H
	DD	00H
	DD	0ffffffffH
	DD	02H
	DD	00H
	DD	0159H
	DD	0e7H
	DD	018ce4H
	DD	00H
	DD	0ffffffffH
	DD	02H
	DD	00H
	DD	0efH
	DD	052H
	DD	018ce2H
	DD	00H
	DD	0ffffffffH
	DD	02H
	DD	00H
	DD	0146H
	DD	0f3H
	DD	018ce4H
	DD	00H
	DD	0ffffffffH
	DD	02H
	DD	00H
	DD	0122H
	DD	03bH
	DD	018ce2H
	DD	00H
	DD	0ffffffffH
	DD	02H
	DD	00H
	DD	0138H
	DD	0f8H
	DD	018ce4H
	DD	00H
	DD	0ffffffffH
	DD	02H
	DD	00H
	DD	0166H
	DD	063H
	DD	018ce2H
	DD	00H
	DD	0ffffffffH
	DD	02H
	DD	00H
	DD	0119H
	DD	0fdH
	DD	018ce4H
	DD	00H
	DD	0ffffffffH
	DD	02H
	DD	00H
	DD	0148H
	DD	045H
	DD	018ce2H
	DD	00H
	DD	0ffffffffH
	DD	02H
	DD	00H
	DD	0109H
	DD	0101H
	DD	018ce4H
	DD	00H
	DD	0ffffffffH
	DD	02H
	DD	00H
	DD	0102H
	DD	025H
	DD	018ce2H
	DD	00H
	DD	0ffffffffH
	DD	02H
	DD	00H
	DD	0ebH
	DD	0f7H
	DD	018ce4H
	DD	00H
	DD	0ffffffffH
	DD	02H
	DD	00H
	DD	099H
	DD	033H
	DD	018ce2H
	DD	00H
	DD	0ffffffffH
	DD	02H
	DD	00H
	DD	0dbH
	DD	0f8H
	DD	018ce4H
	DD	00H
	DD	0ffffffffH
	DD	02H
	DD	00H
	DD	099H
	DD	048H
	DD	018ce2H
	DD	00H
	DD	0ffffffffH
	DD	02H
	DD	00H
	DD	0c5H
	DD	0f4H
	DD	018ce4H
	DD	00H
	DD	0ffffffffH
	DD	02H
	DD	00H
	DD	084H
	DD	0bbH
	DD	018ce2H
	DD	00H
	DD	0ffffffffH
	DD	02H
	DD	00H
	DD	0aeH
	DD	0fcH
	DD	018ce4H
	DD	00H
	DD	0ffffffffH
	DD	02H
	DD	00H
	DD	083H
	DD	0b3H
	DD	018ce2H
	DD	00H
	DD	0ffffffffH
	DD	02H
	DD	00H
	DD	0a1H
	DD	0101H
	DD	018ce4H
	DD	00H
	DD	0ffffffffH
	DD	02H
	DD	00H
	DD	078H
	DD	0a9H
	DD	018ce2H
	DD	00H
	DD	0ffffffffH
	DD	02H
	DD	00H
	DD	083H
	DD	010fH
	DD	018ce4H
	DD	00H
	DD	0ffffffffH
	DD	02H
	DD	00H
	DD	065H
	DD	097H
	DD	018ce2H
	DD	00H
	DD	0ffffffffH
	DD	02H
	DD	00H
	DD	06cH
	DD	011dH
	DD	018ce4H
	DD	00H
	DD	0ffffffffH
	DD	02H
	DD	00H
	DD	047H
	DD	09eH
	DD	018ce2H
	DD	00H
	DD	0ffffffffH
	DD	02H
	DD	00H
	DD	061H
	DD	0126H
	DD	018ce4H
	DD	00H
	DD	0ffffffffH
	DD	02H
	DD	00H
	DD	03aH
	DD	08bH
	DD	018ce2H
	DD	00H
	DD	0ffffffffH
	DD	02H
	DD	00H
	DD	04bH
	DD	0137H
	DD	018ce4H
	DD	00H
	DD	0ffffffffH
	DD	02H
	DD	00H
	DD	01dH
	DD	080H
	DD	018ce2H
	DD	00H
	DD	0ffffffffH
	DD	02H
	DD	00H
	DD	047H
	DD	0137H
	DD	018ce4H
	DD	00H
	DD	0ffffffffH
	DD	02H
	DD	00H
	DD	014H
	DD	077H
	DD	018ce2H
	DD	00H
	DD	0ffffffffH
	DD	02H
	DD	00H
	DD	04dH
	DD	0164H
	DD	018ce4H
	DD	00H
	DD	0ffffffffH
	DD	02H
	DD	00H
	DD	043H
	DD	09cH
	DD	018ce2H
	DD	00H
	DD	0ffffffffH
	DD	02H
	DD	00H
	DD	02fH
	DD	015dH
	DD	018ce4H
	DD	00H
	DD	0ffffffffH
	DD	02H
	DD	00H
	DD	06cH
	DD	09dH
	DD	018ce2H
	DD	00H
	DD	0ffffffffH
	DD	02H
	DD	00H
	DD	057H
	DD	0174H
	DD	018ce4H
	DD	00H
	DD	0ffffffffH
	DD	02H
	DD	00H
	DD	095H
	DD	0c8H
	DD	018ce2H
	DD	00H
	DD	0ffffffffH
	DD	02H
	DD	00H
	DD	080H
	DD	0196H
	DD	018ce4H
	DD	00H
	DD	0ffffffffH
	DD	02H
	DD	00H
	DD	0bbH
	DD	0beH
	DD	018ce2H
	DD	00H
	DD	0ffffffffH
	DD	02H
	DD	00H
	DD	08dH
	DD	018cH
	DD	018ce4H
	DD	00H
	DD	0ffffffffH
	DD	02H
	DD	00H
	DD	0eeH
	DD	09dH
	DD	018ce2H
	DD	00H
	DD	0ffffffffH
	DD	02H
	DD	00H
	DD	0b0H
	DD	01b2H
	DD	018ce4H
	DD	00H
	DD	0ffffffffH
	DD	02H
	DD	00H
	DD	010eH
	DD	078H
	DD	018ce2H
	DD	00H
	DD	0ffffffffH
	DD	02H
	DD	00H
	DD	0c8H
	DD	0166H
	DD	018ce4H
	DD	00H
	DD	0ffffffffH
	DD	02H
	DD	00H
	DD	010fH
	DD	078H
	DD	018ce2H
	DD	00H
	DD	0ffffffffH
	DD	02H
	DD	00H
	DD	0bbH
	DD	0146H
	DD	018ce4H
	DD	00H
	DD	0ffffffffH
	DD	02H
	DD	00H
	DD	09bH
	DD	039H
	DD	018ce2H
	DD	00H
	DD	0ffffffffH
	DD	02H
	DD	00H
	DD	097H
	DD	014eH
	DD	018ce4H
	DD	00H
	DD	0ffffffffH
	DD	02H
	DD	00H
	DD	08cH
	DD	058H
	DD	018ce2H
	DD	00H
	DD	0ffffffffH
	DD	02H
	DD	00H
	DD	0b6H
	DD	0194H
	DD	018ce4H
	DD	00H
	DD	0ffffffffH
	DD	02H
	DD	00H
	DD	0f0H
	DD	046H
	DD	018ce2H
	DD	00H
	DD	0ffffffffH
	DD	02H
	DD	00H
	DD	0a5H
	DD	01a3H
	DD	018ce4H
	DD	00H
	DD	0ffffffffH
	DD	02H
	DD	00H
	DD	011fH
	DD	033H
	DD	018ce2H
	DD	00H
	DD	0ffffffffH
	DD	02H
	DD	00H
	DD	086H
	DD	01b6H
	DD	018ce4H
	DD	00H
	DD	0ffffffffH
	DD	02H
	DD	00H
	DD	012eH
	DD	039H
	DD	018ce2H
	DD	00H
	DD	0ffffffffH
	DD	02H
	DD	00H
	DD	0b6H
	DD	01d7H
	DD	018ce4H
	DD	00H
	DD	0ffffffffH
	DD	02H
	DD	00H
	DD	0163H
	DD	040H
	DD	018ce2H
	DD	00H
	DD	0ffffffffH
	DD	02H
	DD	00H
	DD	0aeH
	DD	01f7H
	DD	018ce4H
	DD	00H
	DD	0ffffffffH
	DD	02H
	DD	00H
	DD	0156H
	DD	05dH
	DD	018ce2H
	DD	00H
	DD	0ffffffffH
	DD	02H
	DD	00H
	DD	0baH
	DD	01f9H
	DD	018ce4H
	DD	00H
	DD	0ffffffffH
	DD	02H
	DD	00H
	DD	0171H
	DD	06bH
	DD	018ce2H
	DD	00H
	DD	0ffffffffH
	DD	02H
	DD	00H
	DD	094H
	DD	01e7H
	DD	018ce4H
	DD	00H
	DD	0ffffffffH
	DD	02H
	DD	00H
	DD	0174H
	DD	07bH
	DD	018ce2H
	DD	00H
	DD	0ffffffffH
	DD	02H
	DD	00H
	DD	078H
	DD	01ebH
	DD	018ce4H
	DD	00H
	DD	0ffffffffH
	DD	02H
	DD	00H
	DD	0163H
	DD	08aH
	DD	018ce2H
	DD	00H
	DD	0ffffffffH
	DD	02H
	DD	00H
	DD	075H
	DD	01b6H
	DD	018ce4H
	DD	00H
	DD	0ffffffffH
	DD	02H
	DD	00H
	DD	016eH
	DD	0a1H
	DD	018ce2H
	DD	00H
	DD	0ffffffffH
	DD	02H
	DD	00H
	DD	062H
	DD	01dbH
	DD	018ce4H
	DD	00H
	DD	0ffffffffH
	DD	02H
	DD	00H
	DD	016bH
	DD	0a3H
	DD	018ce2H
	DD	00H
	DD	0ffffffffH
	DD	02H
	DD	00H
	DD	084H
	DD	019bH
	DD	018ce4H
	DD	00H
	DD	0ffffffffH
	DD	02H
	DD	00H
	DD	0171H
	DD	0b5H
	DD	018ce2H
	DD	00H
	DD	0ffffffffH
	DD	02H
	DD	00H
	DD	06eH
	DD	0187H
	DD	018ce4H
	DD	00H
	DD	0ffffffffH
	DD	02H
	DD	00H
	DD	0176H
	DD	0bdH
	DD	018ce2H
	DD	00H
	DD	0ffffffffH
	DD	02H
	DD	00H
	DD	051H
	DD	0175H
	DD	018ce4H
	DD	00H
	DD	0ffffffffH
	DD	02H
	DD	00H
	ORG $+112
?sStreetVendorBtnGraNo@@3PAHA DD 0d73dH			; sStreetVendorBtnGraNo
	DD	0d73cH
?ridePetTable@@3PAUtagRidePetTable@@A DD 018a88H	; ridePetTable
	DD	0186a0H
	DD	018800H
	DD	00H
	DD	018a89H
	DD	0186a5H
	DD	018800H
	DD	00H
	DD	018a8aH
	DD	0186aaH
	DD	018800H
	DD	00H
	DD	018a8bH
	DD	0186afH
	DD	018800H
	DD	00H
	DD	018a8cH
	DD	0186a0H
	DD	0187e9H
	DD	00H
	DD	018a8dH
	DD	0186a5H
	DD	0187e7H
	DD	00H
	DD	018a8eH
	DD	0186aaH
	DD	0187eaH
	DD	00H
	DD	018a8fH
	DD	0186afH
	DD	0187e8H
	DD	00H
	DD	018a90H
	DD	01895cH
	DD	018814H
	DD	00H
	DD	018a91H
	DD	018961H
	DD	018815H
	DD	00H
	DD	018e65H
	DD	018961H
	DD	018cc8H
	DD	00H
	DD	018e5aH
	DD	018961H
	DD	018c9cH
	DD	00H
	DD	018a92H
	DD	0186b4H
	DD	01882cH
	DD	00H
	DD	018a93H
	DD	0186b9H
	DD	01882cH
	DD	00H
	DD	018a94H
	DD	0186beH
	DD	01882cH
	DD	00H
	DD	018a95H
	DD	0186c3H
	DD	01882cH
	DD	00H
	DD	018a96H
	DD	0186b4H
	DD	0187e8H
	DD	00H
	DD	018a97H
	DD	0186b9H
	DD	0187e9H
	DD	00H
	DD	018a98H
	DD	0186beH
	DD	0187e7H
	DD	00H
	DD	018a99H
	DD	0186c3H
	DD	0187eaH
	DD	00H
	DD	018a9aH
	DD	018966H
	DD	018814H
	DD	00H
	DD	018a9bH
	DD	01896bH
	DD	018815H
	DD	00H
	DD	018e64H
	DD	01896bH
	DD	018cc8H
	DD	00H
	DD	018e62H
	DD	01896bH
	DD	018c9cH
	DD	00H
	DD	018a9cH
	DD	0186c8H
	DD	0187ffH
	DD	00H
	DD	018a9dH
	DD	0186cdH
	DD	0187ffH
	DD	00H
	DD	018a9eH
	DD	0186d2H
	DD	0187ffH
	DD	00H
	DD	018a9fH
	DD	0186d7H
	DD	0187ffH
	DD	00H
	DD	018aa0H
	DD	0186c8H
	DD	0187e8H
	DD	00H
	DD	018aa1H
	DD	0186cdH
	DD	0187eaH
	DD	00H
	DD	018aa2H
	DD	0186d2H
	DD	0187e7H
	DD	00H
	DD	018aa3H
	DD	0186d7H
	DD	0187e9H
	DD	00H
	DD	018aa4H
	DD	018970H
	DD	018814H
	DD	00H
	DD	018aa5H
	DD	018975H
	DD	018815H
	DD	00H
	DD	018e4dH
	DD	018975H
	DD	018cc8H
	DD	00H
	DD	018e57H
	DD	018975H
	DD	018c9cH
	DD	00H
	DD	018aa6H
	DD	0186dcH
	DD	018801H
	DD	00H
	DD	018aa7H
	DD	0186e1H
	DD	018801H
	DD	00H
	DD	018aa8H
	DD	0186e6H
	DD	018801H
	DD	00H
	DD	018aa9H
	DD	0186ebH
	DD	018801H
	DD	00H
	DD	018aaaH
	DD	0186dcH
	DD	0187e9H
	DD	00H
	DD	018aabH
	DD	0186e1H
	DD	0187e7H
	DD	00H
	DD	018aacH
	DD	0186e6H
	DD	0187eaH
	DD	00H
	DD	018aadH
	DD	0186ebH
	DD	0187e8H
	DD	00H
	DD	018aaeH
	DD	01897aH
	DD	018814H
	DD	00H
	DD	018aafH
	DD	01897fH
	DD	018815H
	DD	00H
	DD	018e4eH
	DD	01897fH
	DD	018cc8H
	DD	00H
	DD	018e58H
	DD	01897fH
	DD	018c9cH
	DD	00H
	DD	018ab0H
	DD	0186f0H
	DD	01882cH
	DD	00H
	DD	018ab1H
	DD	0186f5H
	DD	01882cH
	DD	00H
	DD	018ab2H
	DD	0186faH
	DD	01882cH
	DD	00H
	DD	018ab3H
	DD	0186ffH
	DD	01882cH
	DD	00H
	DD	018ab4H
	DD	0186f0H
	DD	0187e8H
	DD	00H
	DD	018ab5H
	DD	0186f5H
	DD	0187e7H
	DD	00H
	DD	018ab6H
	DD	0186faH
	DD	0187eaH
	DD	00H
	DD	018ab7H
	DD	0186ffH
	DD	0187e9H
	DD	00H
	DD	018ab8H
	DD	018984H
	DD	018814H
	DD	00H
	DD	018ab9H
	DD	018989H
	DD	018815H
	DD	00H
	DD	018e55H
	DD	018989H
	DD	018cc8H
	DD	00H
	DD	018e60H
	DD	018989H
	DD	018c9cH
	DD	00H
	DD	018abaH
	DD	018704H
	DD	018801H
	DD	00H
	DD	018abbH
	DD	018709H
	DD	018801H
	DD	00H
	DD	018abcH
	DD	01870eH
	DD	018801H
	DD	00H
	DD	018abdH
	DD	018713H
	DD	018801H
	DD	00H
	DD	018abeH
	DD	018704H
	DD	0187e9H
	DD	00H
	DD	018abfH
	DD	018709H
	DD	0187e8H
	DD	00H
	DD	018ac0H
	DD	01870eH
	DD	0187eaH
	DD	00H
	DD	018ac1H
	DD	018713H
	DD	0187e7H
	DD	00H
	DD	018ac2H
	DD	01898eH
	DD	018814H
	DD	00H
	DD	018ac3H
	DD	018993H
	DD	018815H
	DD	00H
	DD	018e56H
	DD	018993H
	DD	018cc8H
	DD	00H
	DD	018e61H
	DD	018993H
	DD	018c9cH
	DD	00H
	DD	018ac4H
	DD	018718H
	DD	018802H
	DD	00H
	DD	018ac5H
	DD	01871dH
	DD	018802H
	DD	00H
	DD	018ac6H
	DD	018722H
	DD	018802H
	DD	00H
	DD	018ac7H
	DD	018727H
	DD	018802H
	DD	00H
	DD	018ac8H
	DD	018718H
	DD	0187e7H
	DD	00H
	DD	018ac9H
	DD	01871dH
	DD	0187eaH
	DD	00H
	DD	018acaH
	DD	018722H
	DD	0187e8H
	DD	00H
	DD	018acbH
	DD	018727H
	DD	0187e9H
	DD	00H
	DD	018accH
	DD	018998H
	DD	018814H
	DD	00H
	DD	018acdH
	DD	01899dH
	DD	018815H
	DD	00H
	DD	018e4fH
	DD	01899dH
	DD	018cc8H
	DD	00H
	DD	018e59H
	DD	01899dH
	DD	018c9cH
	DD	00H
	DD	018aceH
	DD	01872cH
	DD	018802H
	DD	00H
	DD	018acfH
	DD	018731H
	DD	018802H
	DD	00H
	DD	018ad0H
	DD	018736H
	DD	018802H
	DD	00H
	DD	018ad1H
	DD	01873bH
	DD	018802H
	DD	00H
	DD	018ad2H
	DD	01872cH
	DD	0187e7H
	DD	00H
	DD	018ad3H
	DD	018731H
	DD	0187e9H
	DD	00H
	DD	018ad4H
	DD	018736H
	DD	0187eaH
	DD	00H
	DD	018ad5H
	DD	01873bH
	DD	0187e8H
	DD	00H
	DD	018ad6H
	DD	0189a2H
	DD	018814H
	DD	00H
	DD	018ad7H
	DD	0189a7H
	DD	018815H
	DD	00H
	DD	018e50H
	DD	0189a7H
	DD	018cc8H
	DD	00H
	DD	018e5bH
	DD	0189a7H
	DD	018c9cH
	DD	00H
	DD	018ad8H
	DD	018740H
	DD	018800H
	DD	00H
	DD	018ad9H
	DD	018745H
	DD	018800H
	DD	00H
	DD	018adaH
	DD	01874aH
	DD	018800H
	DD	00H
	DD	018adbH
	DD	01874fH
	DD	018800H
	DD	00H
	DD	018adcH
	DD	018740H
	DD	0187eaH
	DD	00H
	DD	018addH
	DD	018745H
	DD	0187e9H
	DD	00H
	DD	018adeH
	DD	01874aH
	DD	0187e7H
	DD	00H
	DD	018adfH
	DD	01874fH
	DD	0187e8H
	DD	00H
	DD	018ae0H
	DD	0189acH
	DD	018814H
	DD	00H
	DD	018ae1H
	DD	0189b1H
	DD	018815H
	DD	00H
	DD	018e52H
	DD	0189b1H
	DD	018cc8H
	DD	00H
	DD	018e5dH
	DD	0189b1H
	DD	018c9cH
	DD	00H
	DD	018ae2H
	DD	018754H
	DD	0187ffH
	DD	00H
	DD	018ae3H
	DD	018759H
	DD	0187ffH
	DD	00H
	DD	018ae4H
	DD	01875eH
	DD	0187ffH
	DD	00H
	DD	018ae5H
	DD	018763H
	DD	0187ffH
	DD	00H
	DD	018ae6H
	DD	018754H
	DD	0187e8H
	DD	00H
	DD	018ae7H
	DD	018759H
	DD	0187eaH
	DD	00H
	DD	018ae8H
	DD	01875eH
	DD	0187e9H
	DD	00H
	DD	018ae9H
	DD	018763H
	DD	0187e7H
	DD	00H
	DD	018aeaH
	DD	0189b6H
	DD	018814H
	DD	00H
	DD	018aebH
	DD	0189bbH
	DD	018815H
	DD	00H
	DD	018e51H
	DD	0189bbH
	DD	018cc8H
	DD	00H
	DD	018e5cH
	DD	0189bbH
	DD	018c9cH
	DD	00H
	DD	018aecH
	DD	018768H
	DD	018801H
	DD	00H
	DD	018aedH
	DD	01876dH
	DD	018801H
	DD	00H
	DD	018aeeH
	DD	018772H
	DD	018801H
	DD	00H
	DD	018aefH
	DD	018777H
	DD	018801H
	DD	00H
	DD	018af0H
	DD	018768H
	DD	0187e9H
	DD	00H
	DD	018af1H
	DD	01876dH
	DD	0187e8H
	DD	00H
	DD	018af2H
	DD	018772H
	DD	0187e7H
	DD	00H
	DD	018af3H
	DD	018777H
	DD	0187eaH
	DD	00H
	DD	018af4H
	DD	0189c0H
	DD	018814H
	DD	00H
	DD	018af5H
	DD	0189c5H
	DD	018815H
	DD	00H
	DD	018e54H
	DD	0189c5H
	DD	018cc8H
	DD	00H
	DD	018e5fH
	DD	0189c5H
	DD	018c9cH
	DD	00H
	DD	018af6H
	DD	01877cH
	DD	01882cH
	DD	00H
	DD	018af7H
	DD	018781H
	DD	01882cH
	DD	00H
	DD	018af8H
	DD	018786H
	DD	01882cH
	DD	00H
	DD	018af9H
	DD	01878bH
	DD	01882cH
	DD	00H
	DD	018afaH
	DD	01877cH
	DD	0187eaH
	DD	00H
	DD	018afbH
	DD	018781H
	DD	0187e7H
	DD	00H
	DD	018afcH
	DD	018786H
	DD	0187e9H
	DD	00H
	DD	018afdH
	DD	01878bH
	DD	0187e8H
	DD	00H
	DD	018afeH
	DD	0189caH
	DD	018814H
	DD	00H
	DD	018affH
	DD	0189cfH
	DD	018815H
	DD	00H
	DD	018e53H
	DD	0189cfH
	DD	018cc8H
	DD	00H
	DD	018e5eH
	DD	0189cfH
	DD	018c9cH
	DD	00H
	DD	018b3bH
	DD	018b39H
	DD	018b3aH
	DD	00H
	DD	018b3bH
	DD	018b3aH
	DD	018b39H
	DD	00H
?RideCodeMode@@3PAUtagRideCodeMode@@A DD 018816H	; RideCodeMode
	DD	01H
	DD	018806H
	DD	02H
	DD	01880aH
	DD	04H
	DD	0187b7H
	DD	08H
	DD	0187c0H
	DD	010H
	DD	0187bbH
	DD	020H
	DD	0187faH
	DD	040H
	DD	0187d6H
	DD	080H
	DD	018814H
	DD	0100H
	DD	018815H
	DD	0200H
	DD	018c9cH
	DD	0800H
	DD	018cc8H
	DD	0400H
	DD	018812H
	DD	01000H
	DD	018811H
	DD	02000H
	DD	018a28H
	DD	04000H
	DD	018a2bH
	DD	08000H
	DD	018f30H
	DD	010000H
	DD	018f31H
	DD	020000H
	DD	018f68H
	DD	040000H
	DD	0187fcH
	DD	080000H
	DD	0187d3H
	DD	0100000H
	DD	018fa9H
	DD	0200000H
	DD	018faaH
	DD	0400000H
	DD	018a09H
	DD	0800000H
	DD	018a0aH
	DD	01000000H
	DD	019394H
	DD	02000000H
	DD	0187b2H
	DD	04000000H
?RideNoList@@3PAUtagRideNoList@@A DD 018bb9H		; RideNoList
	DD	018bbaH
	DD	018bbbH
	DD	018bbcH
	DD	018bbdH
	DD	018bbeH
	DD	018bbfH
	DD	018bc0H
	DD	018a90H
	DD	018a91H
	DD	018e5aH
	DD	018e65H
	DD	018849H
	DD	018844H
	DD	01885dH
	DD	018ee5H
	DD	018f0dH
	DD	018f19H
	DD	018f76H
	ORG $+32
	DD	018bc1H
	DD	018bc2H
	DD	018bc3H
	DD	018bc4H
	DD	018bc5H
	DD	018bc6H
	DD	018bc7H
	DD	018bc8H
	DD	018a9aH
	DD	018a9bH
	DD	018e62H
	DD	018e64H
	DD	018849H
	DD	018844H
	DD	01885dH
	DD	018ee6H
	DD	018f0eH
	DD	018f1aH
	DD	018f77H
	ORG $+32
	DD	018bc9H
	DD	018bcaH
	DD	018bcbH
	DD	018bccH
	DD	018bcdH
	DD	018bceH
	DD	018bcfH
	DD	018bd0H
	DD	018aa4H
	DD	018aa5H
	DD	018e57H
	DD	018e4dH
	DD	018849H
	DD	018844H
	DD	01885dH
	DD	018ee7H
	DD	018f0fH
	DD	018f1bH
	DD	018f78H
	ORG $+32
	DD	018bd1H
	DD	018bd2H
	DD	018bd3H
	DD	018bd4H
	DD	018bd5H
	DD	018bd6H
	DD	018bd7H
	DD	018bd8H
	DD	018aaeH
	DD	018aafH
	DD	018e58H
	DD	018e4eH
	DD	018849H
	DD	018844H
	DD	01885dH
	DD	018ee8H
	DD	018f10H
	DD	018f1cH
	DD	018f79H
	ORG $+32
	DD	018bd9H
	DD	018bdaH
	DD	018bdbH
	DD	018bdcH
	DD	018bddH
	DD	018bdeH
	DD	018bdfH
	DD	018be0H
	DD	018ab8H
	DD	018ab9H
	DD	018e60H
	DD	018e55H
	DD	018849H
	DD	018844H
	DD	01885dH
	DD	018ee9H
	DD	018f11H
	DD	018f1dH
	DD	018f7aH
	ORG $+32
	DD	018be1H
	DD	018be2H
	DD	018be3H
	DD	018be4H
	DD	018be5H
	DD	018be6H
	DD	018be7H
	DD	018be8H
	DD	018ac2H
	DD	018ac3H
	DD	018e61H
	DD	018e56H
	DD	018849H
	DD	018844H
	DD	01885dH
	DD	018eeaH
	DD	018f12H
	DD	018f1eH
	DD	018f7bH
	ORG $+32
	DD	018be9H
	DD	018beaH
	DD	018bebH
	DD	018becH
	DD	018bedH
	DD	018beeH
	DD	018befH
	DD	018bf0H
	DD	018accH
	DD	018acdH
	DD	018e59H
	DD	018e4fH
	DD	018849H
	DD	018844H
	DD	01885dH
	DD	018eebH
	DD	018f13H
	DD	018f1fH
	DD	018f7cH
	ORG $+32
	DD	018bf1H
	DD	018bf2H
	DD	018bf3H
	DD	018bf4H
	DD	018bf5H
	DD	018bf6H
	DD	018bf7H
	DD	018bf8H
	DD	018ad6H
	DD	018ad7H
	DD	018e5bH
	DD	018e50H
	DD	018849H
	DD	018844H
	DD	01885dH
	DD	018eecH
	DD	018f14H
	DD	018f20H
	DD	018f7dH
	ORG $+32
	DD	018bf9H
	DD	018bfaH
	DD	018bfbH
	DD	018bfcH
	DD	018bfdH
	DD	018bfeH
	DD	018bffH
	DD	018c00H
	DD	018ae0H
	DD	018ae1H
	DD	018e5dH
	DD	018e52H
	DD	018849H
	DD	018844H
	DD	01885dH
	DD	018eedH
	DD	018f15H
	DD	018f21H
	DD	018f7eH
	ORG $+32
	DD	018c01H
	DD	018c02H
	DD	018c03H
	DD	018c04H
	DD	018c05H
	DD	018c06H
	DD	018c07H
	DD	018c08H
	DD	018aeaH
	DD	018aebH
	DD	018e5cH
	DD	018e51H
	DD	018849H
	DD	018844H
	DD	01885dH
	DD	018eeeH
	DD	018f16H
	DD	018f22H
	DD	018f7fH
	ORG $+32
	DD	018c09H
	DD	018c0aH
	DD	018c0bH
	DD	018c0cH
	DD	018c0dH
	DD	018c0eH
	DD	018c0fH
	DD	018c10H
	DD	018af4H
	DD	018af5H
	DD	018e5fH
	DD	018e54H
	DD	018849H
	DD	018844H
	DD	01885dH
	DD	018eefH
	DD	018f17H
	DD	018f23H
	DD	018f80H
	ORG $+32
	DD	018c11H
	DD	018c12H
	DD	018c13H
	DD	018c14H
	DD	018c15H
	DD	018c16H
	DD	018c17H
	DD	018c18H
	DD	018afeH
	DD	018affH
	DD	018e5eH
	DD	018e53H
	DD	018849H
	DD	018844H
	DD	01885dH
	DD	018ef0H
	DD	018f18H
	DD	018f24H
	DD	018f81H
	ORG $+32
?RPlistMode@@3PAUtagRidePetList@@A DD 0186a0H		; RPlistMode
	DD	00H
	DD	0186a5H
	DD	00H
	DD	0186aaH
	DD	00H
	DD	0186afH
	DD	00H
	DD	0186b4H
	DD	01H
	DD	0186b9H
	DD	01H
	DD	0186beH
	DD	01H
	DD	0186c3H
	DD	01H
	DD	0186c8H
	DD	02H
	DD	0186cdH
	DD	02H
	DD	0186d2H
	DD	02H
	DD	0186d7H
	DD	02H
	DD	0186dcH
	DD	03H
	DD	0186e1H
	DD	03H
	DD	0186e6H
	DD	03H
	DD	0186ebH
	DD	03H
	DD	0186f0H
	DD	04H
	DD	0186f5H
	DD	04H
	DD	0186faH
	DD	04H
	DD	0186ffH
	DD	04H
	DD	018704H
	DD	05H
	DD	018709H
	DD	05H
	DD	01870eH
	DD	05H
	DD	018713H
	DD	05H
	DD	018718H
	DD	06H
	DD	01871dH
	DD	06H
	DD	018722H
	DD	06H
	DD	018727H
	DD	06H
	DD	01872cH
	DD	07H
	DD	018731H
	DD	07H
	DD	018736H
	DD	07H
	DD	01873bH
	DD	07H
	DD	018740H
	DD	08H
	DD	018745H
	DD	08H
	DD	01874aH
	DD	08H
	DD	01874fH
	DD	08H
	DD	018754H
	DD	09H
	DD	018759H
	DD	09H
	DD	01875eH
	DD	09H
	DD	018763H
	DD	09H
	DD	018768H
	DD	0aH
	DD	01876dH
	DD	0aH
	DD	018772H
	DD	0aH
	DD	018777H
	DD	0aH
	DD	01877cH
	DD	0bH
	DD	018781H
	DD	0bH
	DD	018786H
	DD	0bH
	DD	01878bH
	DD	0bH
?channelName@@3PAY0BE@DA DB ' ', 0baH, 0ceH, 0c1H, 0b7H, 0c7H, 0c1H, 0b7H
	DB	0ceH, 0c7H, 0caH, ' ', 00H			; channelName
	ORG $+7
	DB	' ', 0c1H, 0b7H, 0c0H, 0e5H, 0b1H, 0e2H, 0b4H, 0c9H, ' ', 00H
	ORG $+9
	DB	0baH, 0ceH, 0c1H, 0b7H, 0b0H, 0d4H, 0bdH, 0c3H, 0c6H, 0c7H
	DB	00H
	ORG $+9
	DB	' ', 0c3H, 0a4H, ' ', 0b3H, 0ceH, ' ', 0c1H, 0beH, ' ', 0b7H
	DB	0e1H, ' ', 00H
	ORG $+6
	DB	00H
	ORG $+19
?chatRoomBtnGraNo@@3PAHA DD 06756H			; chatRoomBtnGraNo
	DD	06755H
?menuBtnGraNo@@3PAHA DD 065f5H				; menuBtnGraNo
	DD	065f6H
?cardBtnGraNo@@3PAHA DD 065f7H				; cardBtnGraNo
	DD	065f8H
?tradeBtnGraNo@@3PAHA DD 0667aH				; tradeBtnGraNo
	DD	0667bH
?angelBtnGraNo@@3PAHA DD 089c9H				; angelBtnGraNo
	DD	089c8H
?channelWNFlag@@3FA DW 01H				; channelWNFlag
	ORG $+2
?channelBtnGraNo@@3PAHA DD 0667dH			; channelBtnGraNo
	DD	0667eH
?partyBtnEnableFlag@@3FA DW 01H				; partyBtnEnableFlag
	ORG $+2
?partyBtnGraNo@@3PAHA DD 065f9H				; partyBtnGraNo
	DD	065faH
?helpBtnGraNo@@3PAHA DD 0d7c6H				; helpBtnGraNo
	DD	0d7c5H
?joinBattleBtnEnableFlag@@3FA DW 01H			; joinBattleBtnEnableFlag
	ORG $+2
?joinBattleHelpMsgFlag@@3FA DW 01H			; joinBattleHelpMsgFlag
	ORG $+2
?joinBattleBtnGraNo@@3PAHA DD 065ffH			; joinBattleBtnGraNo
	DD	06600H
?duelBtnGraNo@@3PAHA DD 06601H				; duelBtnGraNo
	DD	06602H
?actBtnGraNo@@3PAHA DD 06603H				; actBtnGraNo
	DD	06604H
?amPmAnimeGraNo@@3PAHA DD 06606H			; amPmAnimeGraNo
	DD	06607H
	DD	06608H
	DD	06605H
?ridelistBtnGraNo@@3PAHA DD 0d7c8H			; ridelistBtnGraNo
	DD	0d7c9H
?vipshopBtnGraNo@@3PAHA DD 0d73dH			; vipshopBtnGraNo
	DD	0d73cH
?iTeacherSystemBtnGraNo@@3PAHA DD 06f8bH		; iTeacherSystemBtnGraNo
	DD	06f8aH
?FontPal@@3PAKA DD 0ffffffH				; FontPal
	DD	0ffff00H
	DD	0ff00ffH
	DD	0ff0000H
	DD	0ffffH
	DD	0ff00H
	DD	0ffH
	DD	0a4a0a0H
	DD	0f0caa6H
	DD	0c0dcc0H
	DD	08cffH
	DD	0247fffH
?pageStr@@3PAY09DA DB 0c0H, 0ccH, 0c0H, 0fcH, 00H	; pageStr
	ORG $+5
	DB	0b4H, 0d9H, 0c0H, 0bdH, 00H
	ORG $+5
_DATA	ENDS
PUBLIC	___local_stdio_printf_options
PUBLIC	??$__vcrt_va_start_verify_argument_type@QBD@@YAXXZ ; __vcrt_va_start_verify_argument_type<char const * const>
PUBLIC	__vsnprintf_l
PUBLIC	__vsnprintf
PUBLIC	__vsprintf_l
PUBLIC	_sprintf
PUBLIC	__snprintf
PUBLIC	?initFieldProc@@YAXXZ				; initFieldProc
PUBLIC	?resetFieldProc@@YAXXZ				; resetFieldProc
PUBLIC	?fieldProc@@YAXXZ				; fieldProc
PUBLIC	?fieldProc2@@YAXXZ				; fieldProc2
PUBLIC	?drawField@@YAXXZ				; drawField
PUBLIC	?checkFieldMenuFlag@@YAHXZ			; checkFieldMenuFlag
PUBLIC	?closeCharActionAnimeChange@@YAXXZ		; closeCharActionAnimeChange
PUBLIC	?closeEtcSwitch@@YAXXZ				; closeEtcSwitch
PUBLIC	?closeJoinChannelWN@@YAXXZ			; closeJoinChannelWN
PUBLIC	?disconnectServer@@YAHXZ			; disconnectServer
PUBLIC	?drawFieldInfoWin@@YAXXZ			; drawFieldInfoWin
PUBLIC	?actionShortCutKeyProc@@YAXXZ			; actionShortCutKeyProc
PUBLIC	?SpecAnim@@YAXH@Z				; SpecAnim
PUBLIC	?ReleaseSpecAnim@@YAXXZ				; ReleaseSpecAnim
PUBLIC	?TeacherSystemWndfunc@@YAXHPAD@Z		; TeacherSystemWndfunc
PUBLIC	?SellPriceWndfunc@@YAHXZ			; SellPriceWndfunc
PUBLIC	?GetEmptyShowSellItem@@YAPAU_Show_Sell_Item@@PAU1@@Z ; GetEmptyShowSellItem
PUBLIC	?StreetVendorWndfunc@@YAX_NPAD@Z		; StreetVendorWndfunc
PUBLIC	?StreetVendorBuyWndfunc@@YAXPAD@Z		; StreetVendorBuyWndfunc
PUBLIC	?initCharActionAnimeChange@@YAXXZ		; initCharActionAnimeChange
PUBLIC	?charActionAnimeChange@@YAHXZ			; charActionAnimeChange
PUBLIC	?initEtcSwitch@@YAXXZ				; initEtcSwitch
PUBLIC	?etcSwitch@@YAHXZ				; etcSwitch
PUBLIC	?initJoinChannelWN@@YAXXZ			; initJoinChannelWN
PUBLIC	?joinChannelWN@@YAXXZ				; joinChannelWN
PUBLIC	?initJoinChannel2WN@@YAXPAD@Z			; initJoinChannel2WN
PUBLIC	?closeJoinChannel2WN@@YAXXZ			; closeJoinChannel2WN
PUBLIC	?joinChannel2WN@@YAXXZ				; joinChannel2WN
PUBLIC	?leaderFuncWN@@YAXXZ				; leaderFuncWN
PUBLIC	?crossAniRelease@@YAXXZ				; crossAniRelease
PUBLIC	?ImmobileAniRelease@@YAXXZ			; ImmobileAniRelease
PUBLIC	?AniRandomRelease@@YAXXZ			; AniRandomRelease
PUBLIC	?ReadAniFile@@YAHH@Z				; ReadAniFile
PUBLIC	?_OptionsStorage@?1??__local_stdio_printf_options@@9@4_KA ; `__local_stdio_printf_options'::`2'::_OptionsStorage
PUBLIC	??_C@_02DKCKIIND@?$CFs?$AA@			; `string'
PUBLIC	??_C@_01MMEEDKFM@X?$AA@				; `string'
PUBLIC	??_C@_0O@MNFNNHCK@?$CF?920sx?$CF3d?$CF13s?$AA@	; `string'
PUBLIC	??_C@_0O@MINOFDLM@?$CF?920sx?$CF3d?$CF13d?$AA@	; `string'
PUBLIC	??_C@_03CAPDGGPL@?$DP?K?$MA?$AA@		; `string'
PUBLIC	??_C@_0O@OKDFECEM@?$CF?917s?$CF?912s?$CF8s?$AA@	; `string'
PUBLIC	??_C@_0O@OPLGMGNK@?$CF?917s?$CF?912s?$CF8d?$AA@	; `string'
PUBLIC	??_C@_00CNPNBAHC@?$AA@				; `string'
PUBLIC	??_C@_09CGALFHNJ@?$CFd?$HM?$CFd?$HM?$CFd?$HM?$AA@ ; `string'
PUBLIC	??_C@_0P@DJCPLGCF@?$LO?n?$LM?$KN?$LP?$MA?$LN?J?$LN?C?$LP?$MA?$CB?$CB?$AA@ ; `string'
PUBLIC	??_C@_09KAHBFCEF@S?$HM?$CFd?$HM?$CFs?$CFs?$AA@	; `string'
PUBLIC	??_C@_06EFALBHEL@R?$HMP?$HM?91?$AA@		; `string'
PUBLIC	??_C@_02PFGFFPDM@E?$HM?$AA@			; `string'
PUBLIC	??_C@_04MPOIGBFL@SELL?$AA@			; `string'
PUBLIC	??_C@_03IFADCKOJ@?$CFd?$HM?$AA@			; `string'
PUBLIC	??_C@_07PKADKLEL@B?$HM?$CFd?$HM?$CFs?$AA@	; `string'
PUBLIC	??_C@_02PJDALANN@N?$HM?$AA@			; `string'
PUBLIC	??_C@_09HBDNCLCF@?G?y?$LL?s?5?$LA?$KB?$LA?$NN?$AA@ ; `string'
PUBLIC	??_C@_0L@LDFFIDCJ@?$LD?$LL?$LB?$LI?$LH?B?$CI?$CFs?$CJ?$AA@ ; `string'
PUBLIC	??_C@_07HLBLNMPK@?$CFd?5?H?$LI?$MA?$PM?$AA@	; `string'
PUBLIC	??_C@_06EGBMLAEA@Lv?$KD?$LK?$CFd?$AA@		; `string'
PUBLIC	??_C@_06HJFMPHBK@?$LD?$LL?$KD?$LK?$CFd?$AA@	; `string'
PUBLIC	??_C@_06MBHIJFEF@?$LA?x?$KD?$LK?$CFd?$AA@	; `string'
PUBLIC	??_C@_06GNDMLDHN@?$LJ?f?$KD?$LK?$CFd?$AA@	; `string'
PUBLIC	??_C@_06GNIPPDB@?$LM?x?$KD?$LK?$CFd?$AA@	; `string'
PUBLIC	??_C@_06LBGNCPKK@?A?v?$KD?$LK?$CFd?$AA@		; `string'
PUBLIC	??_C@_06DMNCJOEB@?$LM?v?$KD?$LK?$CFd?$AA@	; `string'
PUBLIC	??_C@_06ECLMJCEN@?H?$KN?$KD?$LK?$CFd?$AA@	; `string'
PUBLIC	??_C@_06INCIIBEP@?G?$LD?$KD?$LK?$CFd?$AA@	; `string'
PUBLIC	??_C@_06CFCEDMBI@?C?f?$KD?$LK?$CFd?$AA@		; `string'
PUBLIC	??_C@_0M@LGAMIGJ@?$LB?b?$LM?z?5?$CFd?$KD?$LK?$CFs?$AA@ ; `string'
PUBLIC	??_C@_0BA@KFKPCCNN@?$LN?$LK?E?f?$MA?L?5?$LK?N?A?$LH?G?X?$KD?$KB?$AA@ ; `string'
PUBLIC	??_C@_0BM@PJIKDD@?$LJ?Y?$LF?p?5?$LO?F?$MA?L?E?$NL?5?$LM?$LN?$LM?G?$MA?L?5?$LK?N?A?$LH?G?X?$KD?$KB?$AA@ ; `string'
PUBLIC	??_C@_0CH@BCAEDIAE@?G?y?A?$KE?5?$LA?$KB?$LA?$NN?5?$LJ?$LA?G?$LA?$MA?$LK?5?$MA?O?$MA?O?$MA?L?5?$LA?m?$LI?$KG?5?$LM?v?5@ ; `string'
PUBLIC	??_C@_05LNGOBBOC@D?$HM?$CFd?$HM?$AA@		; `string'
PUBLIC	??_C@_02DPKJAMEF@?$CFd?$AA@			; `string'
PUBLIC	??_C@_02PIPCNKOK@O?$HM?$AA@			; `string'
PUBLIC	??_C@_02PACKEJLJ@B?$HM?$AA@			; `string'
PUBLIC	??_C@_03DDDPELM@D?$HMD?$AA@			; `string'
PUBLIC	??_C@_0CB@GPKKMDCO@?$LD?k?A?$KB?$LL?s?$LP?$KB?$LM?$KN?5?$LB?$LD?H?$KP?$MA?$LL?5?G?X?$LM?$KN?$LE?B?5?$LO?H?5?$LF?H?$LE?Y@ ; `string'
PUBLIC	??_C@_02OPIIDOKH@P?$HM?$AA@			; `string'
PUBLIC	??_C@_0DA@KIPDLLGN@P?$HM?$LK?N?A?$LH?$LP?$KB?5?$LA?$KB?$MA?T?$LF?G?A?v?5?$LO?J?$LO?F?5?A?$KE?$LK?$LI?$LI?$KG?5?H?$KO@ ; `string'
PUBLIC	??_C@_03OAFDEMMP@S?$HMP?$AA@			; `string'
PUBLIC	??_C@_0CD@HJEPKLDC@?$MA?L?$LA?w?$LP?$KB?$LM?$KN?5?F?D?F?$LM?$LI?$KG?5?$LB?$LI?$LM?$LK?G?R?5?$LM?v?5?$LO?x?$LN?$MA?$LE?O@ ; `string'
PUBLIC	??_C@_0BD@KALKBBEH@?$LI?$NO?$LE?$LK?$LI?$KG?5?$LM?$LD?A?$KE?G?U?$LE?O?$LE?Y?4?$AA@ ; `string'
PUBLIC	??_C@_0BM@BDLIIEIH@?$LL?s?$LE?k?$LJ?f?$LA?z?5?$LI?m?G?T?$MA?$LL?5?$LB?$LD?H?$KP?G?U?$LE?O?$LE?Y?4?$AA@ ; `string'
PUBLIC	??_C@_0BJ@CHLJOFEL@?F?D?F?$LM?$LP?$KB?5?B?$PM?$LP?$KJ?G?R?5?$LM?v?5?$LO?x?$LO?n?$LP?d?4?$AA@ ; `string'
PUBLIC	??_C@_0BM@JPNLKOND@?$LL?s?$LE?k?$LJ?f?$MA?G?5?F?D?F?$LM?$LP?$KB?5?B?$PM?$LP?$KJ?G?U?$LE?O?$LE?Y?4?$AA@ ; `string'
PUBLIC	??_C@_0BO@NDPFBKJO@?$LL?s?$LE?k?$LJ?f?$LP?$KB?$LA?T?5?$LB?$LD?H?$KP?$MA?$LL?5?$LN?E?C?$LL?G?U?$LE?O?$LE?Y?4?$AA@ ; `string'
PUBLIC	??_C@_0BH@CBJDPLHJ@?$LA?$LD?$MA?N?$LL?s?A?$KB?$MA?$LL?5?$LA?$LD?$LM?$LD?G?U?$LE?O?$LE?Y?4?$AA@ ; `string'
PUBLIC	??_C@_0BP@BDKJGMGO@?$LK?N?A?$LH?$LP?$KB?5?$LE?k?G?Q?5?A?$KE?$LK?$LI?$LI?$KG?5?H?$KO?$MA?N?G?U?$LE?O?$LE?Y?4?$AA@ ; `string'
PUBLIC	??_C@_0BO@GJIBCGFI@?$LL?s?$LE?k?$LJ?f?$LP?$KB?$LA?T?5?$LE?k?$MA?$PM?$MA?$LL?5?$LN?E?C?$LL?G?U?$LE?O?$LE?Y?4?$AA@ ; `string'
PUBLIC	??_C@_0BD@KFAJKCNC@?$MA?$PM?E?u?$LP?$KB?5?B?$PM?$LP?$KJ?G?U?$LE?O?$LE?Y?4?$AA@ ; `string'
PUBLIC	??_C@_0BJ@NBCGMCO@?$MA?$PM?E?u?$LP?$KB?5?B?$PM?$LP?$KJ?G?R?5?$LM?v?5?$LO?x?$LO?n?$LP?d?4?$AA@ ; `string'
PUBLIC	??_C@_0BD@KMDDMCEP@?$MA?$PM?E?u?$LI?$KG?5?$LA?$PM?$MA?$PM?G?U?$LE?O?$LE?Y?4?$AA@ ; `string'
PUBLIC	??_C@_0BK@EJDCDLOD@?D?y?$LN?$LK?F?$KO?5?A?$KE?$LK?$LI?$LI?$KG?5?H?$KO?$MA?N?G?U?$LE?O?$LE?Y?4?$AA@ ; `string'
PUBLIC	??_C@_0BP@JAGIJNBP@?D?$LD?$LI?$KP?E?M?5?$LO?W?$LM?G?5?A?$KE?$LK?$LI?$LI?$KG?5?H?$KO?$MA?N?G?U?$LE?O?$LE?Y?4?$AA@ ; `string'
PUBLIC	??_C@_0BN@HEBEENAI@?A?v?$LP?x?5?F?w?$MA?N?F?$KO?5?$LM?$KF?$MA?$LL?5?$LP?$KN?$LG?w?G?U?$LE?O?$LE?Y?4?$AA@ ; `string'
PUBLIC	??_C@_0CB@NCIEAEIK@?D?$LD?$LI?$KP?E?M?$MA?G?5?E?$LO?$LN?B?5?F?d?F?$KO?$LI?$KG?5?H?$KO?$MA?N?G?U?$LE?O?$LE?Y?4@ ; `string'
PUBLIC	??_C@_0CD@LEKAGBMD@?G?X?$LE?g?A?v?$LP?$KK?$LP?$KB?5?$MA?V?$LE?B?5?F?D?F?$LM?$LI?$KG?5?$LA?K?$LL?v?G?U?$LE?O?$LE@ ; `string'
PUBLIC	??_C@_0CM@DKAKKPJM@?$LA?f?G?h?D?$KB?5?$LB?$LI?$LN?$LN?$MA?$LL?5?$LL?g?$LP?k?G?O?$LA?E?$LD?$KK?5?$LL?g?$LP?k?$MA?$LL?5@ ; `string'
PUBLIC	??_C@_0CM@JBJJKLPF@?$LK?$KO?C?$LL?$MA?G?5?$LB?$LI?$LN?$LN?$MA?$LL?5?$LL?g?$LP?k?G?O?$LA?E?$LD?$KK?5?$LL?g?$LP?k?$MA?$LL?5@ ; `string'
PUBLIC	??_C@_0L@LEPHHCI@?5?$LO?I?$KB?$KB?$KB?$KB?$LE?Y?5?$AA@ ; `string'
PUBLIC	??_C@_0L@LOMDAPBP@?5?$MA?O?$LO?n?$LD?$KK?$LE?Y?5?$AA@ ; `string'
PUBLIC	??_C@_0L@FNPFLOKG@?5?$LM?U?H?g?$LF?i?$LE?Y?5?$AA@ ; `string'
PUBLIC	??_C@_0L@CPNFDNI@?5?$LA?H?$KB?$KB?$KB?$KB?$LE?Y?5?$AA@ ; `string'
PUBLIC	??_C@_0L@LFKBOHAB@?5?$MA?N?$LL?g?G?O?$LE?Y?5?$AA@ ; `string'
PUBLIC	??_C@_0L@BBJFHFFA@?5?$LO?$LC?$LH?$KP?A?v?$LE?Y?5?$AA@ ; `string'
PUBLIC	??_C@_0L@HMKFIAIO@?5?$LB?b?$LL?$LF?G?O?$LE?Y?5?$AA@ ; `string'
PUBLIC	??_C@_0L@EPLKDNIL@?5?$LA?x?$LA?$NN?G?O?$LE?Y?5?$AA@ ; `string'
PUBLIC	??_C@_0L@DDIKGKGC@?5?H?$KN?$LI?$KG?$LD?$LL?$LE?Y?5?$AA@ ; `string'
PUBLIC	??_C@_0L@FLKMCCFP@?5?$LJ?f?$LO?n?G?O?$LE?Y?5?$AA@ ; `string'
PUBLIC	??_C@_0L@CHKOFNFO@?5?$LN?$LN?F?$NL?G?O?$LE?Y?5?$AA@ ; `string'
PUBLIC	??_C@_0L@NJDBIKEM@?$LF?$KF?$KB?$KB?$LJ?L?$KB?$KB?A?v?$AA@ ; `string'
PUBLIC	??_C@_0L@GOBFHACF@?$LE?x?$KB?$KB?A?v?$KB?$KB?$LE?Y?$AA@ ; `string'
PUBLIC	??_C@_0CI@DLPPPDPB@?A?$KG?$MA?Z?$LI?$KO?$LP?$KB?5?$LO?I?$LE?B?5?$LO?W?$LM?G?$MA?$LL?5?C?k?G?U?$LE?O?$LE?Y?4?5?$CI@ ; `string'
PUBLIC	??_C@_0CD@HLCPDIKM@?$MA?O?$LO?n?$LM?$KN?$LE?B?5?$LO?W?$LM?G?$MA?$LL?5?C?k?G?U?$LE?O?$LE?Y?4?5?$CICtrl?$CL@ ; `string'
PUBLIC	??_C@_0CG@EHJAFDMH@?$LM?U?$MA?$LL?5?H?g?$LF?e?$LE?B?5?$LO?W?$LM?G?$MA?$LL?5?C?k?G?U?$LE?O?$LE?Y?4?5?$CICt@ ; `string'
PUBLIC	??_C@_0BP@OCLIPLAL@?$LA?H?$LE?B?5?$LO?W?$LM?G?$MA?$LL?5?C?k?G?U?$LE?O?$LE?Y?4?5?$CICtrl?$CL8?$CJ?$AA@ ; `string'
PUBLIC	??_C@_0CD@KEHHLNJC@?$MA?N?$LL?g?G?O?$LE?B?5?$LO?W?$LM?G?$MA?$LL?5?C?k?G?U?$LE?O?$LE?Y?4?5?$CICtrl?$CL@ ; `string'
PUBLIC	??_C@_0CD@JMKADJMO@?$LO?$LC?$LH?$KP?A?v?$LE?B?5?$LO?W?$LM?G?$MA?$LL?5?C?k?G?U?$LE?O?$LE?Y?4?5?$CICtrl?$CL@ ; `string'
PUBLIC	??_C@_0CD@CMMPEHFI@?$LB?b?$LL?$LF?G?O?$LE?B?5?$LO?W?$LM?G?$MA?$LL?5?C?k?G?U?$LE?O?$LE?Y?4?5?$CICtrl?$CL@ ; `string'
PUBLIC	??_C@_0CD@OMLIKOJM@?$LA?x?$LA?$NN?G?O?$LE?B?5?$LO?W?$LM?G?$MA?$LL?5?C?k?G?U?$LE?O?$LE?Y?4?5?$CICtrl?$CL@ ; `string'
PUBLIC	??_C@_0CE@OIDAHAAG@?H?$KN?$LI?$KG?5?$LD?$LL?$LE?B?5?$LO?W?$LM?G?$MA?$LL?5?C?k?G?U?$LE?O?$LE?Y?4?5?$CICtrl@ ; `string'
PUBLIC	??_C@_0CD@MIHLAAOD@?$LJ?f?$LO?n?G?O?$LE?B?5?$LO?W?$LM?G?$MA?$LL?5?C?k?G?U?$LE?O?$LE?Y?4?5?$CICtrl?$CL@ ; `string'
PUBLIC	??_C@_0CD@NKKFDBOL@?$LN?$LN?F?$NL?G?O?$LE?B?5?$LO?W?$LM?G?$MA?$LL?5?C?k?G?U?$LE?O?$LE?Y?4?5?$CICtrl?$CL@ ; `string'
PUBLIC	??_C@_0CG@FILFJCML@?E?$LI?$LA?$NN?$MA?$LL?5?$MA?T?$LE?B?5?$LO?W?$LM?G?$MA?$LL?5?C?k?G?U?$LE?O?$LE?Y?4?5?$CICt@ ; `string'
PUBLIC	??_C@_0CB@DPEEFHJC@?$LE?x?A?v?$LE?B?5?$LO?W?$LM?G?$MA?$LL?5?C?k?G?U?$LE?O?$LE?Y?4?5?$CICtrl?$CL?2?$CJ@ ; `string'
PUBLIC	??_C@_0L@NHKEOPKL@?$MA?$NL?$LO?w?C?$KC?$LE?$NN?$LB?b?$AA@ ; `string'
PUBLIC	??_C@_0L@OLEDJDPG@?F?D?5?5?5?5?F?$LM?$KD?$LK?$AA@ ; `string'
PUBLIC	??_C@_0L@MAOAOHML@?$LF?$OA?5?5?5?5?$LO?s?$KD?$LK?$AA@ ; `string'
PUBLIC	??_C@_0L@POPIGLPO@?$LI?m?G?T?$LB?$LD?H?$KP?$KD?$LK?$AA@ ; `string'
PUBLIC	??_C@_0BF@IDENONED@?C?$KE?5?5?5?5?$LD?N?5?5?5?5?$LJ?v?5?5?5?5?F?$LA?$AA@ ; `string'
PUBLIC	??_C@_0L@HENHCGEF@?$LA?E?5?5?5?5?$LH?$KB?$KD?$LK?$AA@ ; `string'
PUBLIC	??_C@_0L@DMOEEJLK@?G?X?5?$LL?s?5?$LF?$LF?$KD?$LK?$AA@ ; `string'
PUBLIC	??_C@_07MIKFFMHF@?5?$KD?N?5?5?$KD?O?$AA@	; `string'
PUBLIC	??_C@_07CHOGEIED@?5?$KD?Y?$KD?E?$KD?S?$AA@	; `string'
PUBLIC	??_C@_0BJ@NPLNHFNN@?$LE?Y?$LI?$KF?$LL?g?$LG?w?F?$MA?G?U?$LH?y?$LP?$KJ?$LK?N?$LM?$LD?A?$KE?$KB?$KD?$AA@ ; `string'
PUBLIC	??_C@_0BJ@EJIPNKEA@?$LE?Y?$LI?$KF?$LL?g?$LG?w?$LF?$LF?$MA?$PM?$LJ?$NO?$MA?$LL?A?v?$LM?$LD?A?$KE?$KB?$KD?$AA@ ; `string'
PUBLIC	??_C@_0BH@GAKCDBLG@?$LI?m?G?T?$LB?$LD?H?$KP?G?c?$LP?k?$LP?$KJ?$LK?N?$LM?$LD?A?$KE?$KB?$KD?$AA@ ; `string'
PUBLIC	??_C@_0BF@NLHMJPHG@?$LA?$KC?C?$KE?$LD?N?$LM?$LD?A?$KE?$LG?G?$LE?B?G?X?A?$KG?$KB?$KD?$AA@ ; `string'
PUBLIC	??_C@_0BD@DBDDAFOG@?$LA?E?$LH?$KB?$LM?v?$LG?t?$LP?$KJ?$LK?N?$LM?$LD?A?$KE?$KB?$KD?$AA@ ; `string'
PUBLIC	??_C@_0BL@JJOLNGNO@?$LA?T?$MA?S?$MA?N?E?M?F?d?$MA?L?$LN?$LK?G?X?$LL?s?$LF?$LF?$LM?$LD?A?$KE?$KB?$KD?$AA@ ; `string'
PUBLIC	??_C@_06FNJBCBKN@?$LB?S?$LM?S?$LI?$LL?$AA@	; `string'
PUBLIC	??_C@_06IAKMCPJ@?$LA?$KB?A?$LH?$LI?$LL?$AA@	; `string'
PUBLIC	??_C@_08LIEPCPDK@?$LA?f?$LI?E?C?$KE?$LD?N?$AA@	; `string'
PUBLIC	??_C@_08DKNMBPNK@?$LE?k?H?$KN?$MA?z?$MA?e?$AA@	; `string'
PUBLIC	??_C@_0BJ@BCJNPCLP@?$LA?$KB?A?$LH?$LP?$KB?$LA?$KB?$MA?T?G?O?A?v?$LO?J?$LO?R?$LN?$MA?$LE?O?$LE?Y?$AA@ ; `string'
PUBLIC	??_C@_0BD@JIKBMICG@?$LA?m?$LP?k?$LF?G?A?v?$LO?J?$LO?R?$LN?$MA?$LE?O?$LE?Y?$AA@ ; `string'
PUBLIC	??_C@_02CHHAKFFB@w?$CL?$AA@			; `string'
PUBLIC	??_C@_0BB@BLGDDDEM@data?2channel?4dat?$AA@	; `string'
PUBLIC	??_C@_0BJ@DLFHHIDJ@?C?$KE?$LD?N?5?$LM?$LD?A?$KE?5?F?D?$MA?O?5?$MA?P?$LB?b?5?$LN?G?F?P?$AA@ ; `string'
PUBLIC	??_C@_0BI@JGAFKJCL@?$LI?$NO?$LE?$LK?5?$LM?$LD?A?$KE?C?$KC?$MA?$LL?5?$LE?$NN?$LN?$MA?$LE?O?$LE?Y?4?$AA@ ; `string'
PUBLIC	??_C@_0CF@MCKEAICK@?$LD?k?A?$KB?$LP?$KB?$LM?$KN?$LA?E?$LH?$KB?$LP?$KN?$LM?v?$LO?x?$MA?$LN?$KB?$KC?F?D?F?$LM?$LJ?W?$MA?$PM?E?u@ ; `string'
PUBLIC	??_C@_0N@NBGJJJHP@?$LI?$NO?$LE?$LK?C?$KC?$LE?$NN?$LB?b?$KB?$KD?$AA@ ; `string'
PUBLIC	??_C@_0L@OCGDIFAB@?5640?5x?5480?$AA@		; `string'
PUBLIC	??_C@_0L@FCDLGIBD@?5320?5x?5280?$AA@		; `string'
PUBLIC	??_C@_0L@FFMHNIN@?5800?5x?5600?$AA@		; `string'
PUBLIC	??_C@_0L@KHKHJBNB@1024?5x?5768?$AA@		; `string'
PUBLIC	??_C@_04HDOCAJNK@?$CFs?$CFs?$AA@		; `string'
PUBLIC	??_C@_0CA@MLBEKKLD@?$LM?$KN?$LJ?v?$LP?M?$MA?G?5?$LP?$KM?$LA?a?$MA?L?5?A?$LO?$LH?a?$LF?G?$LO?z?$LN?$MA?$LE?O?$LE?Y?4?$AA@ ; `string'
PUBLIC	??_C@_0BD@KHIHNLHO@?$LF?$LJ?$LO?F?$LA?$KB?$LN?C?$LA?Z?$LN?$MA?$LE?O?$LB?n?$KD?$LP?$AA@ ; `string'
PUBLIC	??_C@_04IJNKKJEO@?H?$KO?$MA?N?$AA@		; `string'
PUBLIC	??_C@_04PNGENDLA@S?$HMD2?$AA@			; `string'
PUBLIC	??_C@_01CKDDGHAB@D?$AA@				; `string'
PUBLIC	??_C@_06KOPCAPBC@C?$HMJ?$HM?91?$AA@		; `string'
PUBLIC	??_C@_06JEJPCC@S?$HMSELF?$AA@			; `string'
PUBLIC	??_C@_01CLKCMJKC@?5?$AA@			; `string'
PUBLIC	??_C@_0BD@CBGDDGMA@?$LA?$KB?A?$LH?$LM?$LM?$LK?N?A?$KE?$LK?$LI?$LK?$LI?$LB?b?$KB?$KD?$AA@ ; `string'
PUBLIC	??_C@_0BF@MBHIEFGB@?C?$OA?$LK?$LJ?$LL?g?$MA?G?F?$KP?$LK?$LA?G?Q?$LB?b?$LE?I?$KB?$KD?$AA@ ; `string'
PUBLIC	??_C@_0BF@EKJBMCBD@?$LK?N?A?$LH?$LA?T?$LN?C?F?G?$LB?b?$LE?I?$LL?g?$LP?k?$KB?$KD?$AA@ ; `string'
PUBLIC	??_C@_0BD@BKOBNADD@?A?$LH?$MA?e?$LJ?f?$LM?$NL?$LB?b?$LE?I?$LC?t?$LB?b?$KB?$KD?$AA@ ; `string'
PUBLIC	??_C@_0BJ@MOILBLMI@?C?$KE?F?C?C?$KE?$LD?N?$LI?$NO?$LE?$LK?$LP?$KB?$LM?$KN?$LD?$KK?$LA?$KB?$LB?b?$KB?$KD?$AA@ ; `string'
PUBLIC	??_C@_0P@CBBBPELI@?$MA?L?C?$KE?$LD?N?$LP?$KB?$LA?$KB?$MA?T?$KB?$KD?$AA@ ; `string'
PUBLIC	??_C@_0L@EIKLEHBI@?$MA?L?C?$KC?$LE?$NN?$LB?b?$KB?$KD?$AA@ ; `string'
PUBLIC	??_C@_06GHCNPHLL@C?$HMJ?$HM?$CFd?$AA@		; `string'
PUBLIC	??_C@_08JGHLAOEI@?5?B?$PM?5?5?$LA?$KB?5?$AA@	; `string'
PUBLIC	??_C@_08CMINFIIP@?5?E?$LL?5?5?E?p?5?$AA@	; `string'
PUBLIC	??_C@_0BA@FLCLDJN@?$FL?5?C?$KE?5?$LD?N?5?H?$LI?5?$LP?x?5?$FN?$AA@ ; `string'
PUBLIC	??_C@_0BI@COJOKGGA@?G?v?$MA?g?5?$CFd?5?$MA?L?$LK?N?A?$LH?$MA?G?5?$LA?$KB?A?$LH?$KB?$KD?$AA@ ; `string'
PUBLIC	??_C@_0BJ@BJPJPJLI@?$MA?V?$LE?Y?5?$CFd?5?$MA?L?C?$KE?$LD?N?$MA?G?$LL?g?$LG?w?$LF?i?$KB?$KD?$AA@ ; `string'
PUBLIC	??_C@_05PAKAMAIL@C?$HMJ?$HM5?$AA@		; `string'
PUBLIC	??_C@_05CPEMAIOC@L?$HMF?$HM1?$AA@		; `string'
PUBLIC	??_C@_05EAPBOIIG@L?$HML?$HM1?$AA@		; `string'
PUBLIC	??_C@_05GLNMLLEF@L?$HML?$HM2?$AA@		; `string'
PUBLIC	??_C@_0L@CJCIOOAN@L?$HMCHANGE?$HML?$AA@		; `string'
PUBLIC	??_C@_0N@NIGFCJOO@?5?5?A?$LH?$MA?e?$LJ?f?$LM?$NL?5?5?$AA@ ; `string'
PUBLIC	??_C@_0P@OGFFOIDE@?$LK?N?A?$LH?$LB?$LI?$LM?$LK?$LP?x?$LA?$PM?$LI?$KO?$AA@ ; `string'
PUBLIC	??_C@_0L@DOBBGKCH@?5?$LK?N?A?$LH?C?J?$LE?k?5?$AA@ ; `string'
PUBLIC	??_C@_0L@MJPGOABE@?5?$LP?$KM?$LB?$LI?$LF?$LP?$MA?G?5?$AA@ ; `string'
PUBLIC	??_C@_0BB@BPLOID@?5?5?A?$LH?$MA?e?$LB?G?G?Q?$LK?N?$LP?$KJ?5?5?$AA@ ; `string'
PUBLIC	??_C@_0CD@LJIHMIMO@?A?$LH?$MA?e?$MA?$LK?5?$LK?N?A?$LH?$LP?x?$MA?$PM?C?$LM?$LP?$KB?$LA?T?5?$LA?x?A?v?G?U?$LE?O?$LE?Y@ ; `string'
PUBLIC	??_C@_0BB@MGNAPNJL@?$LK?N?A?$LH?$LB?$LI?$LM?$LK?$LP?x?$LI?q?$LH?O?$KB?$KD?$AA@ ; `string'
PUBLIC	??_C@_0BF@CGFLPMMC@?$LK?N?A?$LH?$LJ?f?$LJ?$KO?C?J?C?$LL?$MA?e?$MA?$NL?$LM?$LK?$KB?$KD?$AA@ ; `string'
PUBLIC	??_C@_0BL@EJEFDMMK@?E?$LO?$LN?B?$LJ?h?$LP?l?$LB?b?$MA?$KH?G?Q?$LF?$LP?$MA?G?$LM?$KN?$MA?$NL?$LM?$LK?$KB?$KD?$AA@ ; `string'
PUBLIC	??_C@_0L@MGMKLDIO@map?2?$CFd?4ani?$AA@		; `string'
PUBLIC	??_C@_0BK@GGAGFANJ@?$LE?g?$LN?E?$MA?$LK?$LN?D?$LK?$LA?G?R?$LM?v?$MA?V?$LN?$MA?$LE?O?$LB?n?5?$CFs?$AA@ ; `string'
PUBLIC	??_C@_0BD@KCELJCBE@?$LI?$OA?E?d?$LA?$KB?$LF?G?$LO?n?$LK?$LI?$LM?$LM?$LP?d?$KD?$LP?$AA@ ; `string'
PUBLIC	??_C@_06BLFCGNEJ@?H?$KO?5?5?$MA?N?$AA@		; `string'
PUBLIC	??_C@_06PNFMGOAF@?C?k?5?5?$LM?R?$AA@		; `string'
PUBLIC	??_C@_04PNIAPCPG@O?$HM?$CFd?$AA@		; `string'
PUBLIC	??_C@_0BJ@HGNGOOJL@?$LI?$OA?E?d?$LH?N?5?$LE?$KJ?$LB?$LM?5?$LM?$LB?E?C?G?U?$LE?O?$LB?n?$KD?$LP?$AA@ ; `string'
PUBLIC	??_C@_08OHAGCECG@?$LI?$OA?E?d?$LL?s?E?B?$AA@	; `string'
PUBLIC	??_C@_0N@FGGIBINO@?$LI?$OA?E?d?$MA?L?$LI?$KH?$KD?$LK?$CFs?$AA@ ; `string'
PUBLIC	??_C@_06OLECLEEB@?$LL?s?E?B?$KD?$LK?$AA@	; `string'
PUBLIC	??_C@_06KCABBADG@Online?$AA@			; `string'
PUBLIC	??_C@_07BMIEDOEC@Offline?$AA@			; `string'
PUBLIC	??_C@_06KFNAOAIJ@?$MA?$LK?G?O?$KD?$LK?$AA@	; `string'
PUBLIC	??_C@_04ELDJJCAA@?$LO?F?$LE?O?$AA@		; `string'
PUBLIC	??_C@_06MOLOGMLJ@?A?$LO?5?5?$LH?a?$AA@		; `string'
PUBLIC	??_C@_0M@KOAEBMHD@?$LI?$OA?E?d?$MA?G?5?$LN?G?$LA?$NN?$AA@ ; `string'
PUBLIC	??_C@_0CF@CIJBHHMG@?$LI?$OA?E?d?$LI?$KG?C?k?$LM?R?G?O?$LI?i?$LI?E?$LH?B?$LA?$KB?D?$KB?$LA?$KB?$LA?$KI?$LM?R?G?U?$LE?O@ ; `string'
PUBLIC	??_C@_0BJ@NKJNALFN@?$LI?$OA?E?d?$LI?$KG?C?k?$LM?R?G?O?$LN?C?$LA?Z?$LN?$MA?$LE?O?$LB?n?$KD?$LP?$AA@ ; `string'
PUBLIC	??_C@_02PBOICDIO@C?$HM?$AA@			; `string'
PUBLIC	__real@00000000
PUBLIC	__real@3f000000
PUBLIC	__real@3fe0000000000000
PUBLIC	__real@4000000000000000
PUBLIC	__real@4008000000000000
PUBLIC	__real@4010000000000000
PUBLIC	__real@4014000000000000
PUBLIC	__real@4018000000000000
PUBLIC	__real@401c000000000000
PUBLIC	__real@4020000000000000
PUBLIC	__real@4028000000000000
PUBLIC	__real@4072d00000000000
PUBLIC	__real@4077d00000000000
PUBLIC	__real@4082780000000000
PUBLIC	__real@408f480000000000
PUBLIC	__real@40e0000000000000
PUBLIC	__real@42800000
EXTRN	___report_rangecheckfailure:PROC
EXTRN	__imp__fclose:PROC
EXTRN	__imp__fopen:PROC
EXTRN	__imp__fwrite:PROC
EXTRN	__imp____stdio_common_vsprintf:PROC
EXTRN	__imp__rand:PROC
EXTRN	__imp__atoi:PROC
EXTRN	__imp__itoa:PROC
EXTRN	_memset:PROC
EXTRN	_strcat:PROC
EXTRN	_strcmp:PROC
EXTRN	_strcpy:PROC
EXTRN	_strlen:PROC
EXTRN	__imp__strncpy:PROC
EXTRN	?TimeGetTime@@YAIXZ:PROC			; TimeGetTime
EXTRN	__imp__CreateFileA@28:PROC
EXTRN	__imp__ReadFile@20:PROC
EXTRN	__imp__CloseHandle@4:PROC
EXTRN	__imp__SendMessageA@16:PROC
EXTRN	?GetAction@@YAPAUaction@@EI@Z:PROC		; GetAction
EXTRN	?DeathAction@@YAXPAUaction@@@Z:PROC		; DeathAction
EXTRN	?StockDispBuffer@@YAHHHEHH@Z:PROC		; StockDispBuffer
EXTRN	?StockBoxDispBuffer@@YAXHHHHEHH@Z:PROC		; StockBoxDispBuffer
EXTRN	?rand2@@YAHXZ:PROC				; rand2
EXTRN	?StockChatBufferLine@@YAXPADEH@Z:PROC		; StockChatBufferLine
EXTRN	?GetStrLastByte@@YAHPAD@Z:PROC			; GetStrLastByte
EXTRN	?GetKeyInputFocus@@YAXPAUSTR_BUFFER@@@Z:PROC	; GetKeyInputFocus
EXTRN	?StockFontBuffer@@YAHHHDHPADH@Z:PROC		; StockFontBuffer
EXTRN	?StockFontBuffer2@@YAXPAUSTR_BUFFER@@@Z:PROC	; StockFontBuffer2
EXTRN	?pattern@@YAHPAUaction@@HH@Z:PROC		; pattern
EXTRN	?openServerWindow@@YAXHHHHPAD@Z:PROC		; openServerWindow
EXTRN	?selGraId@@YAHPAHH@Z:PROC			; selGraId
EXTRN	?pushGraId@@YAHPAHH@Z:PROC			; pushGraId
EXTRN	?selFontId@@YAHPAHH@Z:PROC			; selFontId
EXTRN	?focusGraId@@YAHPAHH@Z:PROC			; focusGraId
EXTRN	?focusFontId@@YAHPAHH@Z:PROC			; focusFontId
EXTRN	?setPcAction@@YAXH@Z:PROC			; setPcAction
EXTRN	?InitItem@@YAXHHH@Z:PROC			; InitItem
EXTRN	?InitMenu2@@YAXXZ:PROC				; InitMenu2
EXTRN	?CheckMenuFlag@@YAHXZ:PROC			; CheckMenuFlag
EXTRN	?MakeWindowDisp@@YAPAUaction@@HHHHHH@Z:PROC	; MakeWindowDisp
EXTRN	?MakeHitBox@@YAHHHHHH@Z:PROC			; MakeHitBox
EXTRN	?MakeAnimDisp@@YAPAUaction@@HHHH@Z:PROC		; MakeAnimDisp
EXTRN	?SelectChatRoom@@YAXXZ:PROC			; SelectChatRoom
EXTRN	?ChatRoomWnd@@YAXXZ:PROC			; ChatRoomWnd
EXTRN	?getRouteData@@YAXHPAH0@Z:PROC			; getRouteData
EXTRN	?camMapToGamen@@YAXMMPAM0@Z:PROC		; camMapToGamen
EXTRN	?lssproto_SaMenu_send@@YAXHHHH@Z:PROC		; lssproto_SaMenu_send
EXTRN	?lssproto_Expup_send@@YAXH@Z:PROC		; lssproto_Expup_send
EXTRN	?lssproto_Noenemy_send@@YAXH@Z:PROC		; lssproto_Noenemy_send
EXTRN	?lssproto_Partyauto_send@@YAXH@Z:PROC		; lssproto_Partyauto_send
EXTRN	?lssproto_DU_send@@YAXHHH@Z:PROC		; lssproto_DU_send
EXTRN	?lssproto_JB_send@@YAXHHH@Z:PROC		; lssproto_JB_send
EXTRN	?lssproto_LB_send@@YAXHHH@Z:PROC		; lssproto_LB_send
EXTRN	?lssproto_AAB_send@@YAXHHH@Z:PROC		; lssproto_AAB_send
EXTRN	?lssproto_TK_recv@@YAXHHPADH@Z:PROC		; lssproto_TK_recv
EXTRN	?lssproto_FS_send@@YAXHH@Z:PROC			; lssproto_FS_send
EXTRN	?lssproto_PR_send@@YAXHHHH@Z:PROC		; lssproto_PR_send
EXTRN	?lssproto_AC_send@@YAXHHHH@Z:PROC		; lssproto_AC_send
EXTRN	?lssproto_TD_send@@YAXHPAD@Z:PROC		; lssproto_TD_send
EXTRN	?lssproto_FM_send@@YAXHPAD@Z:PROC		; lssproto_FM_send
EXTRN	?lssproto_PETST_send@@YAXHHH@Z:PROC		; lssproto_PETST_send
EXTRN	?lssproto_CHATROOM_send@@YAXHPAD@Z:PROC		; lssproto_CHATROOM_send
EXTRN	?lssproto_STREET_VENDOR_send@@YAXHPAD@Z:PROC	; lssproto_STREET_VENDOR_send
EXTRN	?lssproto_TEACHER_SYSTEM_send@@YAXHPAD@Z:PROC	; lssproto_TEACHER_SYSTEM_send
EXTRN	?old_lssproto_DU_send@@YAXHHH@Z:PROC		; old_lssproto_DU_send
EXTRN	?old_lssproto_JB_send@@YAXHHH@Z:PROC		; old_lssproto_JB_send
EXTRN	?old_lssproto_AAB_send@@YAXHHH@Z:PROC		; old_lssproto_AAB_send
EXTRN	?old_lssproto_FS_send@@YAXHH@Z:PROC		; old_lssproto_FS_send
EXTRN	?old_lssproto_PR_send@@YAXHHHH@Z:PROC		; old_lssproto_PR_send
EXTRN	?old_lssproto_AC_send@@YAXHHHH@Z:PROC		; old_lssproto_AC_send
EXTRN	?old_lssproto_TD_send@@YAXHPAD@Z:PROC		; old_lssproto_TD_send
EXTRN	?old_lssproto_FM_send@@YAXHPAD@Z:PROC		; old_lssproto_FM_send
EXTRN	?createWaterAnimation@@YAPAUaction@@HHHH@Z:PROC	; createWaterAnimation
EXTRN	?checkCharObjPoint@@YAHHHF@Z:PROC		; checkCharObjPoint
EXTRN	?checkCharObjPointStatus@@YAHHHFI@Z:PROC	; checkCharObjPointStatus
EXTRN	?checkCharObjPointNotStatus@@YAHHHFI@Z:PROC	; checkCharObjPointNotStatus
EXTRN	?GetImeString@@YAPADXZ:PROC			; GetImeString
EXTRN	?ShowBottomLineString@@YAXHPAD@Z:PROC		; ShowBottomLineString
EXTRN	?play_se@@YAHHHH@Z:PROC				; play_se
EXTRN	?getStringToken@@YAHPADDHH0@Z:PROC		; getStringToken
EXTRN	?makeStringFromEscaped@@YAPADPAD@Z:PROC		; makeStringFromEscaped
EXTRN	?CheckNumber@@YAXPADH@Z:PROC			; CheckNumber
EXTRN	?CheckSpace@@YAXPAD@Z:PROC			; CheckSpace
EXTRN	?HelpProc@@YAHXZ:PROC				; HelpProc
EXTRN	?SaveChatData@@YAXPADD_N@Z:PROC			; SaveChatData
EXTRN	?JL_RESOMODE@@YAXH@Z:PROC			; JL_RESOMODE
EXTRN	?SetResoMode@@YAXH@Z:PROC			; SetResoMode
EXTRN	?ChangeWindowMode@@YAXXZ:PROC			; ChangeWindowMode
EXTRN	?RecoverDirectDraw@@YAXXZ:PROC			; RecoverDirectDraw
EXTRN	@_RTC_CheckStackVars@8:PROC
EXTRN	@__security_check_cookie@4:PROC
EXTRN	__RTC_CheckEsp:PROC
EXTRN	__RTC_InitBase:PROC
EXTRN	__RTC_Shutdown:PROC
EXTRN	?DISPLACEMENT_X@@3HA:DWORD			; DISPLACEMENT_X
EXTRN	?DEF_APPSIZEX@@3HA:DWORD			; DEF_APPSIZEX
EXTRN	?hWnd@@3PAUHWND__@@A:DWORD			; hWnd
EXTRN	?ResoMode@@3HA:DWORD				; ResoMode
EXTRN	?gmsv@@3PAUgameserver@@A:BYTE			; gmsv
EXTRN	?ProcNo@@3IA:DWORD				; ProcNo
EXTRN	?joy_trg@@3PAKA:QWORD				; joy_trg
EXTRN	?MyChatBuffer@@3USTR_BUFFER@@A:BYTE		; MyChatBuffer
EXTRN	?mouse@@3UMOUSE@@A:BYTE				; mouse
EXTRN	?HitFontNo@@3HA:DWORD				; HitFontNo
EXTRN	?HitDispNo@@3HA:DWORD				; HitDispNo
EXTRN	?CG_FIELD_SV_SELL_PANEL@@3HA:DWORD		; CG_FIELD_SV_SELL_PANEL
EXTRN	?CG_FIELD_SV_SELL_PRICE_PANEL@@3HA:DWORD	; CG_FIELD_SV_SELL_PRICE_PANEL
EXTRN	?windowTypeWN@@3HA:DWORD			; windowTypeWN
EXTRN	?pc@@3UPC@@A:BYTE				; pc
EXTRN	?prSendMode@@3FA:WORD				; prSendMode
EXTRN	?prSendFlag@@3FA:WORD				; prSendFlag
EXTRN	?jbSendFlag@@3FA:WORD				; jbSendFlag
EXTRN	?duelSendFlag@@3FA:WORD				; duelSendFlag
EXTRN	?tradeFlag@@3FA:WORD				; tradeFlag
EXTRN	?pet@@3PAUPET@@A:BYTE				; pet
EXTRN	?partyModeFlag@@3FA:WORD			; partyModeFlag
EXTRN	?MenuToggleFlag@@3IA:DWORD			; MenuToggleFlag
EXTRN	?ItemBuffer@@3PAUITEM_BUFFER@@A:BYTE		; ItemBuffer
EXTRN	?MapWmdFlagBak@@3HA:DWORD			; MapWmdFlagBak
EXTRN	?TalkMode@@3HA:DWORD				; TalkMode
EXTRN	?pChtChanlWnd@@3PAUaction@@A:DWORD		; pChtChanlWnd
EXTRN	?pSelChanlWnd@@3PAUaction@@A:DWORD		; pSelChanlWnd
EXTRN	?nowFloorName@@3PADA:BYTE			; nowFloorName
EXTRN	?nowFloor@@3HA:DWORD				; nowFloor
EXTRN	?nowGx@@3HA:DWORD				; nowGx
EXTRN	?nowGy@@3HA:DWORD				; nowGy
EXTRN	?nowVx@@3MA:DWORD				; nowVx
EXTRN	?nowVy@@3MA:DWORD				; nowVy
EXTRN	?moveRouteCnt@@3FA:WORD				; moveRouteCnt
EXTRN	?sendEnFlag@@3FA:WORD				; sendEnFlag
EXTRN	?eventWarpSendFlag@@3FA:WORD			; eventWarpSendFlag
EXTRN	?eventEnemySendFlag@@3FA:WORD			; eventEnemySendFlag
EXTRN	?bNewServer@@3HA:DWORD				; bNewServer
EXTRN	?sockfd@@3IA:DWORD				; sockfd
EXTRN	?disconnectServerFlag@@3HA:DWORD		; disconnectServerFlag
EXTRN	?SaTime@@3UtagLSTIME@@A:BYTE			; SaTime
EXTRN	?SaTimeZoneNo@@3HA:DWORD			; SaTimeZoneNo
EXTRN	?nPetItemEquipBmpNumber@@3PAY01HA:BYTE		; nPetItemEquipBmpNumber
EXTRN	?HelpProcNo@@3FA:WORD				; HelpProcNo
EXTRN	?jumpHelpPage@@3FA:WORD				; jumpHelpPage
EXTRN	?jumpHelpSeg@@3FA:WORD				; jumpHelpSeg
EXTRN	?自动登陆是否开启@@3HA:DWORD			; 自动登陆是否开启
EXTRN	___security_cookie:DWORD
EXTRN	__fltused:DWORD
;	COMDAT ?_OptionsStorage@?1??__local_stdio_printf_options@@9@4_KA
_BSS	SEGMENT
?_OptionsStorage@?1??__local_stdio_printf_options@@9@4_KA DQ 01H DUP (?) ; `__local_stdio_printf_options'::`2'::_OptionsStorage
_BSS	ENDS
_BSS	SEGMENT
	ALIGN	4

?WaterAct2@@3PAUaction@@A DD 01H DUP (?)		; WaterAct2
?WaterAct@@3PAPAUaction@@A DD 032H DUP (?)		; WaterAct
?WaterAct3@@3PAPAUaction@@A DD 01eH DUP (?)		; WaterAct3
?str_bufferMoney@?1??SellPriceWndfunc@@YAHXZ@4USTR_BUFFER@@A DB 0128H DUP (?) ; `SellPriceWndfunc'::`2'::str_bufferMoney
?iBtn@?1??StreetVendorWndfunc@@YAX_NPAD@Z@4PAHA DD 07H DUP (?) ; `StreetVendorWndfunc'::`2'::iBtn
?iSellItemBtn@?1??StreetVendorWndfunc@@YAX_NPAD@Z@4PAHA DD 014H DUP (?) ; `StreetVendorWndfunc'::`2'::iSellItemBtn
?iItemOnSell@?1??StreetVendorWndfunc@@YAX_NPAD@Z@4PAHA DD 0fH DUP (?) ; `StreetVendorWndfunc'::`2'::iItemOnSell
?iShowPet@?1??StreetVendorWndfunc@@YAX_NPAD@Z@4HA DD 01H DUP (?) ; `StreetVendorWndfunc'::`2'::iShowPet
?iPetOnSell@?1??StreetVendorWndfunc@@YAX_NPAD@Z@4PAHA DD 05H DUP (?) ; `StreetVendorWndfunc'::`2'::iPetOnSell
?iGetSellPrice@?1??StreetVendorWndfunc@@YAX_NPAD@Z@4HA DD 01H DUP (?) ; `StreetVendorWndfunc'::`2'::iGetSellPrice
?iListStart@?1??StreetVendorWndfunc@@YAX_NPAD@Z@4HA DD 01H DUP (?) ; `StreetVendorWndfunc'::`2'::iListStart
?iBtn@?1??StreetVendorBuyWndfunc@@YAXPAD@Z@4PAHA DD 05H DUP (?) ; `StreetVendorBuyWndfunc'::`2'::iBtn
?iBuyItemBtn@?1??StreetVendorBuyWndfunc@@YAXPAD@Z@4PAHA DD 014H DUP (?) ; `StreetVendorBuyWndfunc'::`2'::iBuyItemBtn
?iListStart@?1??StreetVendorBuyWndfunc@@YAXPAD@Z@4HA DD 01H DUP (?) ; `StreetVendorBuyWndfunc'::`2'::iListStart
?iTotalBuy@?1??StreetVendorBuyWndfunc@@YAXPAD@Z@4PAHA DD 02H DUP (?) ; `StreetVendorBuyWndfunc'::`2'::iTotalBuy
?iEmptyNum@?1??StreetVendorBuyWndfunc@@YAXPAD@Z@4PAHA DD 02H DUP (?) ; `StreetVendorBuyWndfunc'::`2'::iEmptyNum
?iCurrentShow@?1??StreetVendorBuyWndfunc@@YAXPAD@Z@4HA DD 01H DUP (?) ; `StreetVendorBuyWndfunc'::`2'::iCurrentShow
?iTotalBuyMoney@?1??StreetVendorBuyWndfunc@@YAXPAD@Z@4HA DD 01H DUP (?) ; `StreetVendorBuyWndfunc'::`2'::iTotalBuyMoney
?x@?1??charActionAnimeChange@@YAHXZ@4HA DD 01H DUP (?)	; `charActionAnimeChange'::`2'::x
?y@?1??charActionAnimeChange@@YAHXZ@4HA DD 01H DUP (?)	; `charActionAnimeChange'::`2'::y
?w@?1??charActionAnimeChange@@YAHXZ@4HA DD 01H DUP (?)	; `charActionAnimeChange'::`2'::w
?h@?1??charActionAnimeChange@@YAHXZ@4HA DD 01H DUP (?)	; `charActionAnimeChange'::`2'::h
?btnId@?1??charActionAnimeChange@@YAHXZ@4PAHA DD 0dH DUP (?) ; `charActionAnimeChange'::`2'::btnId
?iChannelbtnId@?1??etcSwitch@@YAHXZ@4PAHA DD 04H DUP (?) ; `etcSwitch'::`2'::iChannelbtnId
?x@?1??etcSwitch@@YAHXZ@4HA DD 01H DUP (?)		; `etcSwitch'::`2'::x
?y@?1??etcSwitch@@YAHXZ@4HA DD 01H DUP (?)		; `etcSwitch'::`2'::y
?w@?1??etcSwitch@@YAHXZ@4HA DD 01H DUP (?)		; `etcSwitch'::`2'::w
?h@?1??etcSwitch@@YAHXZ@4HA DD 01H DUP (?)		; `etcSwitch'::`2'::h
?btnId@?1??etcSwitch@@YAHXZ@4PAHA DD 05H DUP (?)	; `etcSwitch'::`2'::btnId
?x@?1??disconnectServer@@YAHXZ@4HA DD 01H DUP (?)	; `disconnectServer'::`2'::x
?y@?1??disconnectServer@@YAHXZ@4HA DD 01H DUP (?)	; `disconnectServer'::`2'::y
?w@?1??disconnectServer@@YAHXZ@4HA DD 01H DUP (?)	; `disconnectServer'::`2'::w
?h@?1??disconnectServer@@YAHXZ@4HA DD 01H DUP (?)	; `disconnectServer'::`2'::h
?btnId@?1??disconnectServer@@YAHXZ@4PAHA DD 01H DUP (?)	; `disconnectServer'::`2'::btnId
?x@?1??drawFieldInfoWin@@YAXXZ@4HA DD 01H DUP (?)	; `drawFieldInfoWin'::`2'::x
?y@?1??drawFieldInfoWin@@YAXXZ@4HA DD 01H DUP (?)	; `drawFieldInfoWin'::`2'::y
?w@?1??drawFieldInfoWin@@YAXXZ@4HA DD 01H DUP (?)	; `drawFieldInfoWin'::`2'::w
?h@?1??drawFieldInfoWin@@YAXXZ@4HA DD 01H DUP (?)	; `drawFieldInfoWin'::`2'::h
?btnId@?1??joinChannelWN@@YAXXZ@4PAHA DD 05H DUP (?)	; `joinChannelWN'::`2'::btnId
?graId@?1??joinChannelWN@@YAXXZ@4PAHA DD 01H DUP (?)	; `joinChannelWN'::`2'::graId
?channelData@@3UTchannelData@@A DB 096cH DUP (?)	; channelData
?pageNum@@3HA DD 01H DUP (?)				; pageNum
?fontBtnId@?1??joinChannel2WN@@YAXXZ@4PAHA DD 04H DUP (?) ; `joinChannel2WN'::`2'::fontBtnId
?btnId@?1??leaderFuncWN@@YAXXZ@4PAHA DD 09H DUP (?)	; `leaderFuncWN'::`2'::btnId
?graId@?1??leaderFuncWN@@YAXXZ@4PAHA DD 01H DUP (?)	; `leaderFuncWN'::`2'::graId
?winX@?1??TeacherSystemWndfunc@@YAXHPAD@Z@4HA DD 01H DUP (?) ; `TeacherSystemWndfunc'::`2'::winX
?winY@?1??TeacherSystemWndfunc@@YAXHPAD@Z@4HA DD 01H DUP (?) ; `TeacherSystemWndfunc'::`2'::winY
?winW@?1??TeacherSystemWndfunc@@YAXHPAD@Z@4HA DD 01H DUP (?) ; `TeacherSystemWndfunc'::`2'::winW
?winH@?1??TeacherSystemWndfunc@@YAXHPAD@Z@4HA DD 01H DUP (?) ; `TeacherSystemWndfunc'::`2'::winH
?iFontId@?1??TeacherSystemWndfunc@@YAXHPAD@Z@4PAHA DD 07H DUP (?) ; `TeacherSystemWndfunc'::`2'::iFontId
?iIndex@?1??TeacherSystemWndfunc@@YAXHPAD@Z@4PAHA DD 05H DUP (?) ; `TeacherSystemWndfunc'::`2'::iIndex
?szBuf@?1??TeacherSystemWndfunc@@YAXHPAD@Z@4PAY0CA@DA DB 0c0H DUP (?) ; `TeacherSystemWndfunc'::`2'::szBuf
_BSS	ENDS
;	COMDAT __real@42800000
CONST	SEGMENT
__real@42800000 DD 042800000r			; 64
CONST	ENDS
;	COMDAT __real@40e0000000000000
CONST	SEGMENT
__real@40e0000000000000 DQ 040e0000000000000r	; 32768
CONST	ENDS
;	COMDAT __real@408f480000000000
CONST	SEGMENT
__real@408f480000000000 DQ 0408f480000000000r	; 1001
CONST	ENDS
;	COMDAT __real@4082780000000000
CONST	SEGMENT
__real@4082780000000000 DQ 04082780000000000r	; 591
CONST	ENDS
;	COMDAT __real@4077d00000000000
CONST	SEGMENT
__real@4077d00000000000 DQ 04077d00000000000r	; 381
CONST	ENDS
;	COMDAT __real@4072d00000000000
CONST	SEGMENT
__real@4072d00000000000 DQ 04072d00000000000r	; 301
CONST	ENDS
;	COMDAT __real@4028000000000000
CONST	SEGMENT
__real@4028000000000000 DQ 04028000000000000r	; 12
CONST	ENDS
;	COMDAT __real@4020000000000000
CONST	SEGMENT
__real@4020000000000000 DQ 04020000000000000r	; 8
CONST	ENDS
;	COMDAT __real@401c000000000000
CONST	SEGMENT
__real@401c000000000000 DQ 0401c000000000000r	; 7
CONST	ENDS
;	COMDAT __real@4018000000000000
CONST	SEGMENT
__real@4018000000000000 DQ 04018000000000000r	; 6
CONST	ENDS
;	COMDAT __real@4014000000000000
CONST	SEGMENT
__real@4014000000000000 DQ 04014000000000000r	; 5
CONST	ENDS
;	COMDAT __real@4010000000000000
CONST	SEGMENT
__real@4010000000000000 DQ 04010000000000000r	; 4
CONST	ENDS
;	COMDAT __real@4008000000000000
CONST	SEGMENT
__real@4008000000000000 DQ 04008000000000000r	; 3
CONST	ENDS
;	COMDAT __real@4000000000000000
CONST	SEGMENT
__real@4000000000000000 DQ 04000000000000000r	; 2
CONST	ENDS
;	COMDAT __real@3fe0000000000000
CONST	SEGMENT
__real@3fe0000000000000 DQ 03fe0000000000000r	; 0.5
CONST	ENDS
;	COMDAT __real@3f000000
CONST	SEGMENT
__real@3f000000 DD 03f000000r			; 0.5
CONST	ENDS
;	COMDAT __real@00000000
CONST	SEGMENT
__real@00000000 DD 000000000r			; 0
CONST	ENDS
;	COMDAT rtc$TMZ
rtc$TMZ	SEGMENT
__RTC_Shutdown.rtc$TMZ DD FLAT:__RTC_Shutdown
rtc$TMZ	ENDS
;	COMDAT rtc$IMZ
rtc$IMZ	SEGMENT
__RTC_InitBase.rtc$IMZ DD FLAT:__RTC_InitBase
rtc$IMZ	ENDS
;	COMDAT ??_C@_02PBOICDIO@C?$HM?$AA@
CONST	SEGMENT
??_C@_02PBOICDIO@C?$HM?$AA@ DB 'C|', 00H		; `string'
CONST	ENDS
;	COMDAT ??_C@_0BJ@NKJNALFN@?$LI?$OA?E?d?$LI?$KG?C?k?$LM?R?G?O?$LN?C?$LA?Z?$LN?$MA?$LE?O?$LB?n?$KD?$LP?$AA@
CONST	SEGMENT
??_C@_0BJ@NKJNALFN@?$LI?$OA?E?d?$LI?$KG?C?k?$LM?R?G?O?$LN?C?$LA?Z?$LN?$MA?$LE?O?$LB?n?$KD?$LP?$AA@ DB 0b8H
	DB	0e0H, 0c5H, 0e4H, 0b8H, 0a6H, 0c3H, 0ebH, 0bcH, 0d2H, 0c7H, 0cfH
	DB	0bdH, 0c3H, 0b0H, 0daH, 0bdH, 0c0H, 0b4H, 0cfH, 0b1H, 0eeH, 0a3H
	DB	0bfH, 00H					; `string'
CONST	ENDS
;	COMDAT ??_C@_0CF@CIJBHHMG@?$LI?$OA?E?d?$LI?$KG?C?k?$LM?R?G?O?$LI?i?$LI?E?$LH?B?$LA?$KB?D?$KB?$LA?$KB?$LA?$KI?$LM?R?G?U?$LE?O@
CONST	SEGMENT
??_C@_0CF@CIJBHHMG@?$LI?$OA?E?d?$LI?$KG?C?k?$LM?R?G?O?$LI?i?$LI?E?$LH?B?$LA?$KB?D?$KB?$LA?$KB?$LA?$KI?$LM?R?G?U?$LE?O@ DB 0b8H
	DB	0e0H, 0c5H, 0e4H, 0b8H, 0a6H, 0c3H, 0ebH, 0bcH, 0d2H, 0c7H, 0cfH
	DB	0b8H, 0e9H, 0b8H, 0c5H, 0b7H, 0c2H, 0b0H, 0a1H, 0c4H, 0a1H, 0b0H
	DB	0a1H, 0b0H, 0a8H, 0bcH, 0d2H, 0c7H, 0d5H, 0b4H, 0cfH, 0b4H, 0d9H
	DB	0a3H, 0acH, 00H				; `string'
CONST	ENDS
;	COMDAT ??_C@_0M@KOAEBMHD@?$LI?$OA?E?d?$MA?G?5?$LN?G?$LA?$NN?$AA@
CONST	SEGMENT
??_C@_0M@KOAEBMHD@?$LI?$OA?E?d?$MA?G?5?$LN?G?$LA?$NN?$AA@ DB 0b8H, 0e0H, 0c5H
	DB	0e4H, 0c0H, 0c7H, ' ', 0bdH, 0c7H, 0b0H, 0ddH, 00H ; `string'
CONST	ENDS
;	COMDAT ??_C@_06MOLOGMLJ@?A?$LO?5?5?$LH?a?$AA@
CONST	SEGMENT
??_C@_06MOLOGMLJ@?A?$LO?5?5?$LH?a?$AA@ DB 0c1H, 0beH, '  ', 0b7H, 0e1H, 00H ; `string'
CONST	ENDS
;	COMDAT ??_C@_04ELDJJCAA@?$LO?F?$LE?O?$AA@
CONST	SEGMENT
??_C@_04ELDJJCAA@?$LO?F?$LE?O?$AA@ DB 0beH, 0c6H, 0b4H, 0cfH, 00H ; `string'
CONST	ENDS
;	COMDAT ??_C@_06KFNAOAIJ@?$MA?$LK?G?O?$KD?$LK?$AA@
CONST	SEGMENT
??_C@_06KFNAOAIJ@?$MA?$LK?G?O?$KD?$LK?$AA@ DB 0c0H, 0baH, 0c7H, 0cfH, 0a3H
	DB	0baH, 00H					; `string'
CONST	ENDS
;	COMDAT ??_C@_07BMIEDOEC@Offline?$AA@
CONST	SEGMENT
??_C@_07BMIEDOEC@Offline?$AA@ DB 'Offline', 00H		; `string'
CONST	ENDS
;	COMDAT ??_C@_06KCABBADG@Online?$AA@
CONST	SEGMENT
??_C@_06KCABBADG@Online?$AA@ DB 'Online', 00H		; `string'
CONST	ENDS
;	COMDAT ??_C@_06OLECLEEB@?$LL?s?E?B?$KD?$LK?$AA@
CONST	SEGMENT
??_C@_06OLECLEEB@?$LL?s?E?B?$KD?$LK?$AA@ DB 0bbH, 0f3H, 0c5H, 0c2H, 0a3H, 0baH
	DB	00H						; `string'
CONST	ENDS
;	COMDAT ??_C@_0N@FGGIBINO@?$LI?$OA?E?d?$MA?L?$LI?$KH?$KD?$LK?$CFs?$AA@
CONST	SEGMENT
??_C@_0N@FGGIBINO@?$LI?$OA?E?d?$MA?L?$LI?$KH?$KD?$LK?$CFs?$AA@ DB 0b8H, 0e0H
	DB	0c5H, 0e4H, 0c0H, 0ccH, 0b8H, 0a7H, 0a3H, 0baH, '%s', 00H ; `string'
CONST	ENDS
;	COMDAT ??_C@_08OHAGCECG@?$LI?$OA?E?d?$LL?s?E?B?$AA@
CONST	SEGMENT
??_C@_08OHAGCECG@?$LI?$OA?E?d?$LL?s?E?B?$AA@ DB 0b8H, 0e0H, 0c5H, 0e4H, 0bbH
	DB	0f3H, 0c5H, 0c2H, 00H			; `string'
CONST	ENDS
;	COMDAT ??_C@_0BJ@HGNGOOJL@?$LI?$OA?E?d?$LH?N?5?$LE?$KJ?$LB?$LM?5?$LM?$LB?E?C?G?U?$LE?O?$LB?n?$KD?$LP?$AA@
CONST	SEGMENT
??_C@_0BJ@HGNGOOJL@?$LI?$OA?E?d?$LH?N?5?$LE?$KJ?$LB?$LM?5?$LM?$LB?E?C?G?U?$LE?O?$LB?n?$KD?$LP?$AA@ DB 0b8H
	DB	0e0H, 0c5H, 0e4H, 0b7H, 0ceH, ' ', 0b4H, 0a9H, 0b1H, 0bcH, ' ', 0bcH
	DB	0b1H, 0c5H, 0c3H, 0c7H, 0d5H, 0b4H, 0cfH, 0b1H, 0eeH, 0a3H, 0bfH
	DB	00H						; `string'
CONST	ENDS
;	COMDAT ??_C@_04PNIAPCPG@O?$HM?$CFd?$AA@
CONST	SEGMENT
??_C@_04PNIAPCPG@O?$HM?$CFd?$AA@ DB 'O|%d', 00H		; `string'
CONST	ENDS
;	COMDAT ??_C@_06PNFMGOAF@?C?k?5?5?$LM?R?$AA@
CONST	SEGMENT
??_C@_06PNFMGOAF@?C?k?5?5?$LM?R?$AA@ DB 0c3H, 0ebH, '  ', 0bcH, 0d2H, 00H ; `string'
CONST	ENDS
;	COMDAT ??_C@_06BLFCGNEJ@?H?$KO?5?5?$MA?N?$AA@
CONST	SEGMENT
??_C@_06BLFCGNEJ@?H?$KO?5?5?$MA?N?$AA@ DB 0c8H, 0aeH, '  ', 0c0H, 0ceH, 00H ; `string'
CONST	ENDS
;	COMDAT ??_C@_0BD@KCELJCBE@?$LI?$OA?E?d?$LA?$KB?$LF?G?$LO?n?$LK?$LI?$LM?$LM?$LP?d?$KD?$LP?$AA@
CONST	SEGMENT
??_C@_0BD@KCELJCBE@?$LI?$OA?E?d?$LA?$KB?$LF?G?$LO?n?$LK?$LI?$LM?$LM?$LP?d?$KD?$LP?$AA@ DB 0b8H
	DB	0e0H, 0c5H, 0e4H, 0b0H, 0a1H, 0b5H, 0c7H, 0beH, 0eeH, 0baH, 0b8H
	DB	0bcH, 0bcH, 0bfH, 0e4H, 0a3H, 0bfH, 00H	; `string'
CONST	ENDS
;	COMDAT ??_C@_0BK@GGAGFANJ@?$LE?g?$LN?E?$MA?$LK?$LN?D?$LK?$LA?G?R?$LM?v?$MA?V?$LN?$MA?$LE?O?$LB?n?5?$CFs?$AA@
CONST	SEGMENT
??_C@_0BK@GGAGFANJ@?$LE?g?$LN?E?$MA?$LK?$LN?D?$LK?$LA?G?R?$LM?v?$MA?V?$LN?$MA?$LE?O?$LB?n?5?$CFs?$AA@ DB 0b4H
	DB	0e7H, 0bdH, 0c5H, 0c0H, 0baH, 0bdH, 0c4H, 0baH, 0b0H, 0c7H, 0d2H
	DB	0bcH, 0f6H, 0c0H, 0d6H, 0bdH, 0c0H, 0b4H, 0cfH, 0b1H, 0eeH, ' '
	DB	'%s', 00H					; `string'
CONST	ENDS
;	COMDAT ??_C@_0L@MGMKLDIO@map?2?$CFd?4ani?$AA@
CONST	SEGMENT
??_C@_0L@MGMKLDIO@map?2?$CFd?4ani?$AA@ DB 'map\%d.ani', 00H ; `string'
CONST	ENDS
;	COMDAT ??_C@_0BL@EJEFDMMK@?E?$LO?$LN?B?$LJ?h?$LP?l?$LB?b?$MA?$KH?G?Q?$LF?$LP?$MA?G?$LM?$KN?$MA?$NL?$LM?$LK?$KB?$KD?$AA@
CONST	SEGMENT
??_C@_0BL@EJEFDMMK@?E?$LO?$LN?B?$LJ?h?$LP?l?$LB?b?$MA?$KH?G?Q?$LF?$LP?$MA?G?$LM?$KN?$MA?$NL?$LM?$LK?$KB?$KD?$AA@ DB 0c5H
	DB	0beH, 0bdH, 0c2H, 0b9H, 0e8H, 0bfH, 0ecH, 0b1H, 0e2H, 0c0H, 0a7H
	DB	0c7H, 0d1H, 0b5H, 0bfH, 0c0H, 0c7H, 0bcH, 0adH, 0c0H, 0dbH, 0bcH
	DB	0baH, 0a1H, 0a3H, 00H			; `string'
CONST	ENDS
;	COMDAT ??_C@_0BF@CGFLPMMC@?$LK?N?A?$LH?$LJ?f?$LJ?$KO?C?J?C?$LL?$MA?e?$MA?$NL?$LM?$LK?$KB?$KD?$AA@
CONST	SEGMENT
??_C@_0BF@CGFLPMMC@?$LK?N?A?$LH?$LJ?f?$LJ?$KO?C?J?C?$LL?$MA?e?$MA?$NL?$LM?$LK?$KB?$KD?$AA@ DB 0baH
	DB	0ceH, 0c1H, 0b7H, 0b9H, 0e6H, 0b9H, 0aeH, 0c3H, 0caH, 0c3H, 0bbH
	DB	0c0H, 0e5H, 0c0H, 0dbH, 0bcH, 0baH, 0a1H, 0a3H, 00H ; `string'
CONST	ENDS
;	COMDAT ??_C@_0BB@MGNAPNJL@?$LK?N?A?$LH?$LB?$LI?$LM?$LK?$LP?x?$LI?q?$LH?O?$KB?$KD?$AA@
CONST	SEGMENT
??_C@_0BB@MGNAPNJL@?$LK?N?A?$LH?$LB?$LI?$LM?$LK?$LP?x?$LI?q?$LH?O?$KB?$KD?$AA@ DB 0baH
	DB	0ceH, 0c1H, 0b7H, 0b1H, 0b8H, 0bcH, 0baH, 0bfH, 0f8H, 0b8H, 0f1H
	DB	0b7H, 0cfH, 0a1H, 0a3H, 00H			; `string'
CONST	ENDS
;	COMDAT ??_C@_0CD@LJIHMIMO@?A?$LH?$MA?e?$MA?$LK?5?$LK?N?A?$LH?$LP?x?$MA?$PM?C?$LM?$LP?$KB?$LA?T?5?$LA?x?A?v?G?U?$LE?O?$LE?Y@
CONST	SEGMENT
??_C@_0CD@LJIHMIMO@?A?$LH?$MA?e?$MA?$LK?5?$LK?N?A?$LH?$LP?x?$MA?$PM?C?$LM?$LP?$KB?$LA?T?5?$LA?x?A?v?G?U?$LE?O?$LE?Y@ DB 0c1H
	DB	0b7H, 0c0H, 0e5H, 0c0H, 0baH, ' ', 0baH, 0ceH, 0c1H, 0b7H, 0bfH
	DB	0f8H, 0c0H, 0fcH, 0c3H, 0bcH, 0bfH, 0a1H, 0b0H, 0d4H, ' ', 0b0H
	DB	0f8H, 0c1H, 0f6H, 0c7H, 0d5H, 0b4H, 0cfH, 0b4H, 0d9H, 0a1H, 0a3H
	DB	00H						; `string'
CONST	ENDS
;	COMDAT ??_C@_0BB@BPLOID@?5?5?A?$LH?$MA?e?$LB?G?G?Q?$LK?N?$LP?$KJ?5?5?$AA@
CONST	SEGMENT
??_C@_0BB@BPLOID@?5?5?A?$LH?$MA?e?$LB?G?G?Q?$LK?N?$LP?$KJ?5?5?$AA@ DB '  '
	DB	0c1H, 0b7H, 0c0H, 0e5H, 0b1H, 0c7H, 0c7H, 0d1H, 0baH, 0ceH, 0bfH
	DB	0a9H, '  ', 00H				; `string'
CONST	ENDS
;	COMDAT ??_C@_0L@MJPGOABE@?5?$LP?$KM?$LB?$LI?$LF?$LP?$MA?G?5?$AA@
CONST	SEGMENT
??_C@_0L@MJPGOABE@?5?$LP?$KM?$LB?$LI?$LF?$LP?$MA?G?5?$AA@ DB ' ', 0bfH, 0acH
	DB	0b1H, 0b8H, 0b5H, 0bfH, 0c0H, 0c7H, ' ', 00H	; `string'
CONST	ENDS
;	COMDAT ??_C@_0L@DOBBGKCH@?5?$LK?N?A?$LH?C?J?$LE?k?5?$AA@
CONST	SEGMENT
??_C@_0L@DOBBGKCH@?5?$LK?N?A?$LH?C?J?$LE?k?5?$AA@ DB ' ', 0baH, 0ceH, 0c1H
	DB	0b7H, 0c3H, 0caH, 0b4H, 0ebH, ' ', 00H	; `string'
CONST	ENDS
;	COMDAT ??_C@_0P@OGFFOIDE@?$LK?N?A?$LH?$LB?$LI?$LM?$LK?$LP?x?$LA?$PM?$LI?$KO?$AA@
CONST	SEGMENT
??_C@_0P@OGFFOIDE@?$LK?N?A?$LH?$LB?$LI?$LM?$LK?$LP?x?$LA?$PM?$LI?$KO?$AA@ DB 0baH
	DB	0ceH, 0c1H, 0b7H, 0b1H, 0b8H, 0bcH, 0baH, 0bfH, 0f8H, 0b0H, 0fcH
	DB	0b8H, 0aeH, 00H				; `string'
CONST	ENDS
;	COMDAT ??_C@_0N@NIGFCJOO@?5?5?A?$LH?$MA?e?$LJ?f?$LM?$NL?5?5?$AA@
CONST	SEGMENT
??_C@_0N@NIGFCJOO@?5?5?A?$LH?$MA?e?$LJ?f?$LM?$NL?5?5?$AA@ DB '  ', 0c1H, 0b7H
	DB	0c0H, 0e5H, 0b9H, 0e6H, 0bcH, 0dbH, '  ', 00H ; `string'
CONST	ENDS
;	COMDAT ??_C@_0L@CJCIOOAN@L?$HMCHANGE?$HML?$AA@
CONST	SEGMENT
??_C@_0L@CJCIOOAN@L?$HMCHANGE?$HML?$AA@ DB 'L|CHANGE|L', 00H ; `string'
CONST	ENDS
;	COMDAT ??_C@_05GLNMLLEF@L?$HML?$HM2?$AA@
CONST	SEGMENT
??_C@_05GLNMLLEF@L?$HML?$HM2?$AA@ DB 'L|L|2', 00H	; `string'
CONST	ENDS
;	COMDAT ??_C@_05EAPBOIIG@L?$HML?$HM1?$AA@
CONST	SEGMENT
??_C@_05EAPBOIIG@L?$HML?$HM1?$AA@ DB 'L|L|1', 00H	; `string'
CONST	ENDS
;	COMDAT ??_C@_05CPEMAIOC@L?$HMF?$HM1?$AA@
CONST	SEGMENT
??_C@_05CPEMAIOC@L?$HMF?$HM1?$AA@ DB 'L|F|1', 00H	; `string'
CONST	ENDS
;	COMDAT ??_C@_05PAKAMAIL@C?$HMJ?$HM5?$AA@
CONST	SEGMENT
??_C@_05PAKAMAIL@C?$HMJ?$HM5?$AA@ DB 'C|J|5', 00H	; `string'
CONST	ENDS
;	COMDAT ??_C@_0BJ@BJPJPJLI@?$MA?V?$LE?Y?5?$CFd?5?$MA?L?C?$KE?$LD?N?$MA?G?$LL?g?$LG?w?$LF?i?$KB?$KD?$AA@
CONST	SEGMENT
??_C@_0BJ@BJPJPJLI@?$MA?V?$LE?Y?5?$CFd?5?$MA?L?C?$KE?$LD?N?$MA?G?$LL?g?$LG?w?$LF?i?$KB?$KD?$AA@ DB 0c0H
	DB	0d6H, 0b4H, 0d9H, ' %d ', 0c0H, 0ccH, 0c3H, 0a4H, 0b3H, 0ceH, 0c0H
	DB	0c7H, 0bbH, 0e7H, 0b6H, 0f7H, 0b5H, 0e9H, 0a1H, 0a3H, 00H ; `string'
CONST	ENDS
;	COMDAT ??_C@_0BI@COJOKGGA@?G?v?$MA?g?5?$CFd?5?$MA?L?$LK?N?A?$LH?$MA?G?5?$LA?$KB?A?$LH?$KB?$KD?$AA@
CONST	SEGMENT
??_C@_0BI@COJOKGGA@?G?v?$MA?g?5?$CFd?5?$MA?L?$LK?N?A?$LH?$MA?G?5?$LA?$KB?A?$LH?$KB?$KD?$AA@ DB 0c7H
	DB	0f6H, 0c0H, 0e7H, ' %d ', 0c0H, 0ccH, 0baH, 0ceH, 0c1H, 0b7H, 0c0H
	DB	0c7H, ' ', 0b0H, 0a1H, 0c1H, 0b7H, 0a1H, 0a3H, 00H ; `string'
CONST	ENDS
;	COMDAT ??_C@_0BA@FLCLDJN@?$FL?5?C?$KE?5?$LD?N?5?H?$LI?5?$LP?x?5?$FN?$AA@
CONST	SEGMENT
??_C@_0BA@FLCLDJN@?$FL?5?C?$KE?5?$LD?N?5?H?$LI?5?$LP?x?5?$FN?$AA@ DB '[ ', 0c3H
	DB	0a4H, ' ', 0b3H, 0ceH, ' ', 0c8H, 0b8H, ' ', 0bfH, 0f8H, ' ]', 00H ; `string'
CONST	ENDS
;	COMDAT ??_C@_08CMINFIIP@?5?E?$LL?5?5?E?p?5?$AA@
CONST	SEGMENT
??_C@_08CMINFIIP@?5?E?$LL?5?5?E?p?5?$AA@ DB ' ', 0c5H, 0bbH, '  ', 0c5H, 0f0H
	DB	' ', 00H					; `string'
CONST	ENDS
;	COMDAT ??_C@_08JGHLAOEI@?5?B?$PM?5?5?$LA?$KB?5?$AA@
CONST	SEGMENT
??_C@_08JGHLAOEI@?5?B?$PM?5?5?$LA?$KB?5?$AA@ DB ' ', 0c2H, 0fcH, '  ', 0b0H
	DB	0a1H, ' ', 00H				; `string'
CONST	ENDS
;	COMDAT ??_C@_06GHCNPHLL@C?$HMJ?$HM?$CFd?$AA@
CONST	SEGMENT
??_C@_06GHCNPHLL@C?$HMJ?$HM?$CFd?$AA@ DB 'C|J|%d', 00H	; `string'
CONST	ENDS
;	COMDAT ??_C@_0L@EIKLEHBI@?$MA?L?C?$KC?$LE?$NN?$LB?b?$KB?$KD?$AA@
CONST	SEGMENT
??_C@_0L@EIKLEHBI@?$MA?L?C?$KC?$LE?$NN?$LB?b?$KB?$KD?$AA@ DB 0c0H, 0ccH, 0c3H
	DB	0a2H, 0b4H, 0ddH, 0b1H, 0e2H, 0a1H, 0a3H, 00H ; `string'
CONST	ENDS
;	COMDAT ??_C@_0P@CBBBPELI@?$MA?L?C?$KE?$LD?N?$LP?$KB?$LA?$KB?$MA?T?$KB?$KD?$AA@
CONST	SEGMENT
??_C@_0P@CBBBPELI@?$MA?L?C?$KE?$LD?N?$LP?$KB?$LA?$KB?$MA?T?$KB?$KD?$AA@ DB 0c0H
	DB	0ccH, 0c3H, 0a4H, 0b3H, 0ceH, 0bfH, 0a1H, 0b0H, 0a1H, 0c0H, 0d4H
	DB	0a1H, 0a3H, 00H				; `string'
CONST	ENDS
;	COMDAT ??_C@_0BJ@MOILBLMI@?C?$KE?F?C?C?$KE?$LD?N?$LI?$NO?$LE?$LK?$LP?$KB?$LM?$KN?$LD?$KK?$LA?$KB?$LB?b?$KB?$KD?$AA@
CONST	SEGMENT
??_C@_0BJ@MOILBLMI@?C?$KE?F?C?C?$KE?$LD?N?$LI?$NO?$LE?$LK?$LP?$KB?$LM?$KN?$LD?$KK?$LA?$KB?$LB?b?$KB?$KD?$AA@ DB 0c3H
	DB	0a4H, 0c6H, 0c3H, 0c3H, 0a4H, 0b3H, 0ceH, 0b8H, 0deH, 0b4H, 0baH
	DB	0bfH, 0a1H, 0bcH, 0adH, 0b3H, 0aaH, 0b0H, 0a1H, 0b1H, 0e2H, 0a1H
	DB	0a3H, 00H					; `string'
CONST	ENDS
;	COMDAT ??_C@_0BD@BKOBNADD@?A?$LH?$MA?e?$LJ?f?$LM?$NL?$LB?b?$LE?I?$LC?t?$LB?b?$KB?$KD?$AA@
CONST	SEGMENT
??_C@_0BD@BKOBNADD@?A?$LH?$MA?e?$LJ?f?$LM?$NL?$LB?b?$LE?I?$LC?t?$LB?b?$KB?$KD?$AA@ DB 0c1H
	DB	0b7H, 0c0H, 0e5H, 0b9H, 0e6H, 0bcH, 0dbH, 0b1H, 0e2H, 0b4H, 0c9H
	DB	0b2H, 0f4H, 0b1H, 0e2H, 0a1H, 0a3H, 00H	; `string'
CONST	ENDS
;	COMDAT ??_C@_0BF@EKJBMCBD@?$LK?N?A?$LH?$LA?T?$LN?C?F?G?$LB?b?$LE?I?$LL?g?$LP?k?$KB?$KD?$AA@
CONST	SEGMENT
??_C@_0BF@EKJBMCBD@?$LK?N?A?$LH?$LA?T?$LN?C?F?G?$LB?b?$LE?I?$LL?g?$LP?k?$KB?$KD?$AA@ DB 0baH
	DB	0ceH, 0c1H, 0b7H, 0b0H, 0d4H, 0bdH, 0c3H, 0c6H, 0c7H, 0b1H, 0e2H
	DB	0b4H, 0c9H, 0bbH, 0e7H, 0bfH, 0ebH, 0a1H, 0a3H, 00H ; `string'
CONST	ENDS
;	COMDAT ??_C@_0BF@MBHIEFGB@?C?$OA?$LK?$LJ?$LL?g?$MA?G?F?$KP?$LK?$LA?G?Q?$LB?b?$LE?I?$KB?$KD?$AA@
CONST	SEGMENT
??_C@_0BF@MBHIEFGB@?C?$OA?$LK?$LJ?$LL?g?$MA?G?F?$KP?$LK?$LA?G?Q?$LB?b?$LE?I?$KB?$KD?$AA@ DB 0c3H
	DB	0e0H, 0baH, 0b9H, 0bbH, 0e7H, 0c0H, 0c7H, 0c6H, 0afH, 0baH, 0b0H
	DB	0c7H, 0d1H, 0b1H, 0e2H, 0b4H, 0c9H, 0a1H, 0a3H, 00H ; `string'
CONST	ENDS
;	COMDAT ??_C@_0BD@CBGDDGMA@?$LA?$KB?A?$LH?$LM?$LM?$LK?N?A?$KE?$LK?$LI?$LK?$LI?$LB?b?$KB?$KD?$AA@
CONST	SEGMENT
??_C@_0BD@CBGDDGMA@?$LA?$KB?A?$LH?$LM?$LM?$LK?N?A?$KE?$LK?$LI?$LK?$LI?$LB?b?$KB?$KD?$AA@ DB 0b0H
	DB	0a1H, 0c1H, 0b7H, 0bcH, 0bcH, 0baH, 0ceH, 0c1H, 0a4H, 0baH, 0b8H
	DB	0baH, 0b8H, 0b1H, 0e2H, 0a1H, 0a3H, 00H	; `string'
CONST	ENDS
;	COMDAT ??_C@_01CLKCMJKC@?5?$AA@
CONST	SEGMENT
??_C@_01CLKCMJKC@?5?$AA@ DB ' ', 00H			; `string'
CONST	ENDS
;	COMDAT ??_C@_06JEJPCC@S?$HMSELF?$AA@
CONST	SEGMENT
??_C@_06JEJPCC@S?$HMSELF?$AA@ DB 'S|SELF', 00H		; `string'
CONST	ENDS
;	COMDAT ??_C@_06KOPCAPBC@C?$HMJ?$HM?91?$AA@
CONST	SEGMENT
??_C@_06KOPCAPBC@C?$HMJ?$HM?91?$AA@ DB 'C|J|-1', 00H	; `string'
CONST	ENDS
;	COMDAT ??_C@_01CKDDGHAB@D?$AA@
CONST	SEGMENT
??_C@_01CKDDGHAB@D?$AA@ DB 'D', 00H			; `string'
CONST	ENDS
;	COMDAT ??_C@_04PNGENDLA@S?$HMD2?$AA@
CONST	SEGMENT
??_C@_04PNGENDLA@S?$HMD2?$AA@ DB 'S|D2', 00H		; `string'
CONST	ENDS
;	COMDAT ??_C@_04IJNKKJEO@?H?$KO?$MA?N?$AA@
CONST	SEGMENT
??_C@_04IJNKKJEO@?H?$KO?$MA?N?$AA@ DB 0c8H, 0aeH, 0c0H, 0ceH, 00H ; `string'
CONST	ENDS
;	COMDAT ??_C@_0BD@KHIHNLHO@?$LF?$LJ?$LO?F?$LA?$KB?$LN?C?$LA?Z?$LN?$MA?$LE?O?$LB?n?$KD?$LP?$AA@
CONST	SEGMENT
??_C@_0BD@KHIHNLHO@?$LF?$LJ?$LO?F?$LA?$KB?$LN?C?$LA?Z?$LN?$MA?$LE?O?$LB?n?$KD?$LP?$AA@ DB 0b5H
	DB	0b9H, 0beH, 0c6H, 0b0H, 0a1H, 0bdH, 0c3H, 0b0H, 0daH, 0bdH, 0c0H
	DB	0b4H, 0cfH, 0b1H, 0eeH, 0a3H, 0bfH, 00H	; `string'
CONST	ENDS
;	COMDAT ??_C@_0CA@MLBEKKLD@?$LM?$KN?$LJ?v?$LP?M?$MA?G?5?$LP?$KM?$LA?a?$MA?L?5?A?$LO?$LH?a?$LF?G?$LO?z?$LN?$MA?$LE?O?$LE?Y?4?$AA@
CONST	SEGMENT
??_C@_0CA@MLBEKKLD@?$LM?$KN?$LJ?v?$LP?M?$MA?G?5?$LP?$KM?$LA?a?$MA?L?5?A?$LO?$LH?a?$LF?G?$LO?z?$LN?$MA?$LE?O?$LE?Y?4?$AA@ DB 0bcH
	DB	0adH, 0b9H, 0f6H, 0bfH, 0cdH, 0c0H, 0c7H, ' ', 0bfH, 0acH, 0b0H
	DB	0e1H, 0c0H, 0ccH, ' ', 0c1H, 0beH, 0b7H, 0e1H, 0b5H, 0c7H, 0beH
	DB	0faH, 0bdH, 0c0H, 0b4H, 0cfH, 0b4H, 0d9H, '.', 00H ; `string'
CONST	ENDS
;	COMDAT ??_C@_04HDOCAJNK@?$CFs?$CFs?$AA@
CONST	SEGMENT
??_C@_04HDOCAJNK@?$CFs?$CFs?$AA@ DB '%s%s', 00H		; `string'
CONST	ENDS
;	COMDAT ??_C@_0L@KHKHJBNB@1024?5x?5768?$AA@
CONST	SEGMENT
??_C@_0L@KHKHJBNB@1024?5x?5768?$AA@ DB '1024 x 768', 00H ; `string'
CONST	ENDS
;	COMDAT ??_C@_0L@FFMHNIN@?5800?5x?5600?$AA@
CONST	SEGMENT
??_C@_0L@FFMHNIN@?5800?5x?5600?$AA@ DB ' 800 x 600', 00H ; `string'
CONST	ENDS
;	COMDAT ??_C@_0L@FCDLGIBD@?5320?5x?5280?$AA@
CONST	SEGMENT
??_C@_0L@FCDLGIBD@?5320?5x?5280?$AA@ DB ' 320 x 280', 00H ; `string'
CONST	ENDS
;	COMDAT ??_C@_0L@OCGDIFAB@?5640?5x?5480?$AA@
CONST	SEGMENT
??_C@_0L@OCGDIFAB@?5640?5x?5480?$AA@ DB ' 640 x 480', 00H ; `string'
CONST	ENDS
;	COMDAT ??_C@_0N@NBGJJJHP@?$LI?$NO?$LE?$LK?C?$KC?$LE?$NN?$LB?b?$KB?$KD?$AA@
CONST	SEGMENT
??_C@_0N@NBGJJJHP@?$LI?$NO?$LE?$LK?C?$KC?$LE?$NN?$LB?b?$KB?$KD?$AA@ DB 0b8H
	DB	0deH, 0b4H, 0baH, 0c3H, 0a2H, 0b4H, 0ddH, 0b1H, 0e2H, 0a1H, 0a3H
	DB	00H						; `string'
CONST	ENDS
;	COMDAT ??_C@_0CF@MCKEAICK@?$LD?k?A?$KB?$LP?$KB?$LM?$KN?$LA?E?$LH?$KB?$LP?$KN?$LM?v?$LO?x?$MA?$LN?$KB?$KC?F?D?F?$LM?$LJ?W?$MA?$PM?E?u@
CONST	SEGMENT
??_C@_0CF@MCKEAICK@?$LD?k?A?$KB?$LP?$KB?$LM?$KN?$LA?E?$LH?$KB?$LP?$KN?$LM?v?$LO?x?$MA?$LN?$KB?$KC?F?D?F?$LM?$LJ?W?$MA?$PM?E?u@ DB 0b3H
	DB	0ebH, 0c1H, 0a1H, 0bfH, 0a1H, 0bcH, 0adH, 0b0H, 0c5H, 0b7H, 0a1H
	DB	0bfH, 0adH, 0bcH, 0f6H, 0beH, 0f8H, 0c0H, 0bdH, 0a1H, 0a2H, 0c6H
	DB	0c4H, 0c6H, 0bcH, 0b9H, 0d7H, 0c0H, 0fcH, 0c5H, 0f5H, 0b1H, 0e2H
	DB	0b4H, 0c9H, 00H				; `string'
CONST	ENDS
;	COMDAT ??_C@_0BI@JGAFKJCL@?$LI?$NO?$LE?$LK?5?$LM?$LD?A?$KE?C?$KC?$MA?$LL?5?$LE?$NN?$LN?$MA?$LE?O?$LE?Y?4?$AA@
CONST	SEGMENT
??_C@_0BI@JGAFKJCL@?$LI?$NO?$LE?$LK?5?$LM?$LD?A?$KE?C?$KC?$MA?$LL?5?$LE?$NN?$LN?$MA?$LE?O?$LE?Y?4?$AA@ DB 0b8H
	DB	0deH, 0b4H, 0baH, ' ', 0bcH, 0b3H, 0c1H, 0a4H, 0c3H, 0a2H, 0c0H
	DB	0bbH, ' ', 0b4H, 0ddH, 0bdH, 0c0H, 0b4H, 0cfH, 0b4H, 0d9H, '.', 00H ; `string'
CONST	ENDS
;	COMDAT ??_C@_0BJ@DLFHHIDJ@?C?$KE?$LD?N?5?$LM?$LD?A?$KE?5?F?D?$MA?O?5?$MA?P?$LB?b?5?$LN?G?F?P?$AA@
CONST	SEGMENT
??_C@_0BJ@DLFHHIDJ@?C?$KE?$LD?N?5?$LM?$LD?A?$KE?5?F?D?$MA?O?5?$MA?P?$LB?b?5?$LN?G?F?P?$AA@ DB 0c3H
	DB	0a4H, 0b3H, 0ceH, ' ', 0bcH, 0b3H, 0c1H, 0a4H, ' ', 0c6H, 0c4H
	DB	0c0H, 0cfH, ' ', 0c0H, 0d0H, 0b1H, 0e2H, ' ', 0bdH, 0c7H, 0c6H
	DB	0d0H, 00H					; `string'
CONST	ENDS
;	COMDAT ??_C@_0BB@BLGDDDEM@data?2channel?4dat?$AA@
CONST	SEGMENT
??_C@_0BB@BLGDDDEM@data?2channel?4dat?$AA@ DB 'data\channel.dat', 00H ; `string'
CONST	ENDS
;	COMDAT ??_C@_02CHHAKFFB@w?$CL?$AA@
CONST	SEGMENT
??_C@_02CHHAKFFB@w?$CL?$AA@ DB 'w+', 00H		; `string'
CONST	ENDS
;	COMDAT ??_C@_0BD@JIKBMICG@?$LA?m?$LP?k?$LF?G?A?v?$LO?J?$LO?R?$LN?$MA?$LE?O?$LE?Y?$AA@
CONST	SEGMENT
??_C@_0BD@JIKBMICG@?$LA?m?$LP?k?$LF?G?A?v?$LO?J?$LO?R?$LN?$MA?$LE?O?$LE?Y?$AA@ DB 0b0H
	DB	0edH, 0bfH, 0ebH, 0b5H, 0c7H, 0c1H, 0f6H, 0beH, 0caH, 0beH, 0d2H
	DB	0bdH, 0c0H, 0b4H, 0cfH, 0b4H, 0d9H, 00H	; `string'
CONST	ENDS
;	COMDAT ??_C@_0BJ@BCJNPCLP@?$LA?$KB?A?$LH?$LP?$KB?$LA?$KB?$MA?T?G?O?A?v?$LO?J?$LO?R?$LN?$MA?$LE?O?$LE?Y?$AA@
CONST	SEGMENT
??_C@_0BJ@BCJNPCLP@?$LA?$KB?A?$LH?$LP?$KB?$LA?$KB?$MA?T?G?O?A?v?$LO?J?$LO?R?$LN?$MA?$LE?O?$LE?Y?$AA@ DB 0b0H
	DB	0a1H, 0c1H, 0b7H, 0bfH, 0a1H, 0b0H, 0a1H, 0c0H, 0d4H, 0c7H, 0cfH
	DB	0c1H, 0f6H, 0beH, 0caH, 0beH, 0d2H, 0bdH, 0c0H, 0b4H, 0cfH, 0b4H
	DB	0d9H, 00H					; `string'
CONST	ENDS
;	COMDAT ??_C@_08DKNMBPNK@?$LE?k?H?$KN?$MA?z?$MA?e?$AA@
CONST	SEGMENT
??_C@_08DKNMBPNK@?$LE?k?H?$KN?$MA?z?$MA?e?$AA@ DB 0b4H, 0ebH, 0c8H, 0adH, 0c0H
	DB	0faH, 0c0H, 0e5H, 00H			; `string'
CONST	ENDS
;	COMDAT ??_C@_08LIEPCPDK@?$LA?f?$LI?E?C?$KE?$LD?N?$AA@
CONST	SEGMENT
??_C@_08LIEPCPDK@?$LA?f?$LI?E?C?$KE?$LD?N?$AA@ DB 0b0H, 0e6H, 0b8H, 0c5H, 0c3H
	DB	0a4H, 0b3H, 0ceH, 00H			; `string'
CONST	ENDS
;	COMDAT ??_C@_06IAKMCPJ@?$LA?$KB?A?$LH?$LI?$LL?$AA@
CONST	SEGMENT
??_C@_06IAKMCPJ@?$LA?$KB?A?$LH?$LI?$LL?$AA@ DB 0b0H, 0a1H, 0c1H, 0b7H, 0b8H
	DB	0bbH, 00H					; `string'
CONST	ENDS
;	COMDAT ??_C@_06FNJBCBKN@?$LB?S?$LM?S?$LI?$LL?$AA@
CONST	SEGMENT
??_C@_06FNJBCBKN@?$LB?S?$LM?S?$LI?$LL?$AA@ DB 0b1H, 0d3H, 0bcH, 0d3H, 0b8H
	DB	0bbH, 00H					; `string'
CONST	ENDS
;	COMDAT ??_C@_0BL@JJOLNGNO@?$LA?T?$MA?S?$MA?N?E?M?F?d?$MA?L?$LN?$LK?G?X?$LL?s?$LF?$LF?$LM?$LD?A?$KE?$KB?$KD?$AA@
CONST	SEGMENT
??_C@_0BL@JJOLNGNO@?$LA?T?$MA?S?$MA?N?E?M?F?d?$MA?L?$LN?$LK?G?X?$LL?s?$LF?$LF?$LM?$LD?A?$KE?$KB?$KD?$AA@ DB 0b0H
	DB	0d4H, 0c0H, 0d3H, 0c0H, 0ceH, 0c5H, 0cdH, 0c6H, 0e4H, 0c0H, 0ccH
	DB	0bdH, 0baH, 0c7H, 0d8H, 0bbH, 0f3H, 0b5H, 0b5H, 0bcH, 0b3H, 0c1H
	DB	0a4H, 0a1H, 0a3H, 00H			; `string'
CONST	ENDS
;	COMDAT ??_C@_0BD@DBDDAFOG@?$LA?E?$LH?$KB?$LM?v?$LG?t?$LP?$KJ?$LK?N?$LM?$LD?A?$KE?$KB?$KD?$AA@
CONST	SEGMENT
??_C@_0BD@DBDDAFOG@?$LA?E?$LH?$KB?$LM?v?$LG?t?$LP?$KJ?$LK?N?$LM?$LD?A?$KE?$KB?$KD?$AA@ DB 0b0H
	DB	0c5H, 0b7H, 0a1H, 0bcH, 0f6H, 0b6H, 0f4H, 0bfH, 0a9H, 0baH, 0ceH
	DB	0bcH, 0b3H, 0c1H, 0a4H, 0a1H, 0a3H, 00H	; `string'
CONST	ENDS
;	COMDAT ??_C@_0BF@NLHMJPHG@?$LA?$KC?C?$KE?$LD?N?$LM?$LD?A?$KE?$LG?G?$LE?B?G?X?A?$KG?$KB?$KD?$AA@
CONST	SEGMENT
??_C@_0BF@NLHMJPHG@?$LA?$KC?C?$KE?$LD?N?$LM?$LD?A?$KE?$LG?G?$LE?B?G?X?A?$KG?$KB?$KD?$AA@ DB 0b0H
	DB	0a2H, 0c3H, 0a4H, 0b3H, 0ceH, 0bcH, 0b3H, 0c1H, 0a4H, 0b6H, 0c7H
	DB	0b4H, 0c2H, 0c7H, 0d8H, 0c1H, 0a6H, 0a1H, 0a3H, 00H ; `string'
CONST	ENDS
;	COMDAT ??_C@_0BH@GAKCDBLG@?$LI?m?G?T?$LB?$LD?H?$KP?G?c?$LP?k?$LP?$KJ?$LK?N?$LM?$LD?A?$KE?$KB?$KD?$AA@
CONST	SEGMENT
??_C@_0BH@GAKCDBLG@?$LI?m?G?T?$LB?$LD?H?$KP?G?c?$LP?k?$LP?$KJ?$LK?N?$LM?$LD?A?$KE?$KB?$KD?$AA@ DB 0b8H
	DB	0edH, 0c7H, 0d4H, 0b1H, 0b3H, 0c8H, 0afH, 0c7H, 0e3H, 0bfH, 0ebH
	DB	0bfH, 0a9H, 0baH, 0ceH, 0bcH, 0b3H, 0c1H, 0a4H, 0a1H, 0a3H, 00H ; `string'
CONST	ENDS
;	COMDAT ??_C@_0BJ@EJIPNKEA@?$LE?Y?$LI?$KF?$LL?g?$LG?w?$LF?$LF?$MA?$PM?$LJ?$NO?$MA?$LL?A?v?$LM?$LD?A?$KE?$KB?$KD?$AA@
CONST	SEGMENT
??_C@_0BJ@EJIPNKEA@?$LE?Y?$LI?$KF?$LL?g?$LG?w?$LF?$LF?$MA?$PM?$LJ?$NO?$MA?$LL?A?v?$LM?$LD?A?$KE?$KB?$KD?$AA@ DB 0b4H
	DB	0d9H, 0b8H, 0a5H, 0bbH, 0e7H, 0b6H, 0f7H, 0b5H, 0b5H, 0c0H, 0fcH
	DB	0b9H, 0deH, 0c0H, 0bbH, 0c1H, 0f6H, 0bcH, 0b3H, 0c1H, 0a4H, 0a1H
	DB	0a3H, 00H					; `string'
CONST	ENDS
;	COMDAT ??_C@_0BJ@NPLNHFNN@?$LE?Y?$LI?$KF?$LL?g?$LG?w?F?$MA?G?U?$LH?y?$LP?$KJ?$LK?N?$LM?$LD?A?$KE?$KB?$KD?$AA@
CONST	SEGMENT
??_C@_0BJ@NPLNHFNN@?$LE?Y?$LI?$KF?$LL?g?$LG?w?F?$MA?G?U?$LH?y?$LP?$KJ?$LK?N?$LM?$LD?A?$KE?$KB?$KD?$AA@ DB 0b4H
	DB	0d9H, 0b8H, 0a5H, 0bbH, 0e7H, 0b6H, 0f7H, 0c6H, 0c0H, 0c7H, 0d5H
	DB	0b7H, 0f9H, 0bfH, 0a9H, 0baH, 0ceH, 0bcH, 0b3H, 0c1H, 0a4H, 0a1H
	DB	0a3H, 00H					; `string'
CONST	ENDS
;	COMDAT ??_C@_07CHOGEIED@?5?$KD?Y?$KD?E?$KD?S?$AA@
CONST	SEGMENT
??_C@_07CHOGEIED@?5?$KD?Y?$KD?E?$KD?S?$AA@ DB ' ', 0a3H, 0d9H, 0a3H, 0c5H
	DB	0a3H, 0d3H, 00H				; `string'
CONST	ENDS
;	COMDAT ??_C@_07MIKFFMHF@?5?$KD?N?5?5?$KD?O?$AA@
CONST	SEGMENT
??_C@_07MIKFFMHF@?5?$KD?N?5?5?$KD?O?$AA@ DB ' ', 0a3H, 0ceH, '  ', 0a3H, 0cfH
	DB	00H						; `string'
CONST	ENDS
;	COMDAT ??_C@_0L@DMOEEJLK@?G?X?5?$LL?s?5?$LF?$LF?$KD?$LK?$AA@
CONST	SEGMENT
??_C@_0L@DMOEEJLK@?G?X?5?$LL?s?5?$LF?$LF?$KD?$LK?$AA@ DB 0c7H, 0d8H, ' ', 0bbH
	DB	0f3H, ' ', 0b5H, 0b5H, 0a3H, 0baH, 00H	; `string'
CONST	ENDS
;	COMDAT ??_C@_0L@HENHCGEF@?$LA?E?5?5?5?5?$LH?$KB?$KD?$LK?$AA@
CONST	SEGMENT
??_C@_0L@HENHCGEF@?$LA?E?5?5?5?5?$LH?$KB?$KD?$LK?$AA@ DB 0b0H, 0c5H, '   '
	DB	' ', 0b7H, 0a1H, 0a3H, 0baH, 00H		; `string'
CONST	ENDS
;	COMDAT ??_C@_0BF@IDENONED@?C?$KE?5?5?5?5?$LD?N?5?5?5?5?$LJ?v?5?5?5?5?F?$LA?$AA@
CONST	SEGMENT
??_C@_0BF@IDENONED@?C?$KE?5?5?5?5?$LD?N?5?5?5?5?$LJ?v?5?5?5?5?F?$LA?$AA@ DB 0c3H
	DB	0a4H, '    ', 0b3H, 0ceH, '    ', 0b9H, 0f6H, '    ', 0c6H, 0b0H
	DB	00H						; `string'
CONST	ENDS
;	COMDAT ??_C@_0L@POPIGLPO@?$LI?m?G?T?$LB?$LD?H?$KP?$KD?$LK?$AA@
CONST	SEGMENT
??_C@_0L@POPIGLPO@?$LI?m?G?T?$LB?$LD?H?$KP?$KD?$LK?$AA@ DB 0b8H, 0edH, 0c7H
	DB	0d4H, 0b1H, 0b3H, 0c8H, 0afH, 0a3H, 0baH, 00H ; `string'
CONST	ENDS
;	COMDAT ??_C@_0L@MAOAOHML@?$LF?$OA?5?5?5?5?$LO?s?$KD?$LK?$AA@
CONST	SEGMENT
??_C@_0L@MAOAOHML@?$LF?$OA?5?5?5?5?$LO?s?$KD?$LK?$AA@ DB 0b5H, 0e0H, '   '
	DB	' ', 0beH, 0f3H, 0a3H, 0baH, 00H		; `string'
CONST	ENDS
;	COMDAT ??_C@_0L@OLEDJDPG@?F?D?5?5?5?5?F?$LM?$KD?$LK?$AA@
CONST	SEGMENT
??_C@_0L@OLEDJDPG@?F?D?5?5?5?5?F?$LM?$KD?$LK?$AA@ DB 0c6H, 0c4H, '    ', 0c6H
	DB	0bcH, 0a3H, 0baH, 00H			; `string'
CONST	ENDS
;	COMDAT ??_C@_0L@NHKEOPKL@?$MA?$NL?$LO?w?C?$KC?$LE?$NN?$LB?b?$AA@
CONST	SEGMENT
??_C@_0L@NHKEOPKL@?$MA?$NL?$LO?w?C?$KC?$LE?$NN?$LB?b?$AA@ DB 0c0H, 0dbH, 0beH
	DB	0f7H, 0c3H, 0a2H, 0b4H, 0ddH, 0b1H, 0e2H, 00H ; `string'
CONST	ENDS
;	COMDAT ??_C@_0CB@DPEEFHJC@?$LE?x?A?v?$LE?B?5?$LO?W?$LM?G?$MA?$LL?5?C?k?G?U?$LE?O?$LE?Y?4?5?$CICtrl?$CL?2?$CJ@
CONST	SEGMENT
??_C@_0CB@DPEEFHJC@?$LE?x?A?v?$LE?B?5?$LO?W?$LM?G?$MA?$LL?5?C?k?G?U?$LE?O?$LE?Y?4?5?$CICtrl?$CL?2?$CJ@ DB 0b4H
	DB	0f8H, 0c1H, 0f6H, 0b4H, 0c2H, ' ', 0beH, 0d7H, 0bcH, 0c7H, 0c0H
	DB	0bbH, ' ', 0c3H, 0ebH, 0c7H, 0d5H, 0b4H, 0cfH, 0b4H, 0d9H, '. '
	DB	'(Ctrl+\)', 00H				; `string'
CONST	ENDS
;	COMDAT ??_C@_0CG@FILFJCML@?E?$LI?$LA?$NN?$MA?$LL?5?$MA?T?$LE?B?5?$LO?W?$LM?G?$MA?$LL?5?C?k?G?U?$LE?O?$LE?Y?4?5?$CICt@
CONST	SEGMENT
??_C@_0CG@FILFJCML@?E?$LI?$LA?$NN?$MA?$LL?5?$MA?T?$LE?B?5?$LO?W?$LM?G?$MA?$LL?5?C?k?G?U?$LE?O?$LE?Y?4?5?$CICt@ DB 0c5H
	DB	0b8H, 0b0H, 0ddH, 0c0H, 0bbH, ' ', 0c0H, 0d4H, 0b4H, 0c2H, ' ', 0beH
	DB	0d7H, 0bcH, 0c7H, 0c0H, 0bbH, ' ', 0c3H, 0ebH, 0c7H, 0d5H, 0b4H
	DB	0cfH, 0b4H, 0d9H, '. (Ctrl+=)', 00H		; `string'
CONST	ENDS
;	COMDAT ??_C@_0CD@NKKFDBOL@?$LN?$LN?F?$NL?G?O?$LE?B?5?$LO?W?$LM?G?$MA?$LL?5?C?k?G?U?$LE?O?$LE?Y?4?5?$CICtrl?$CL@
CONST	SEGMENT
??_C@_0CD@NKKFDBOL@?$LN?$LN?F?$NL?G?O?$LE?B?5?$LO?W?$LM?G?$MA?$LL?5?C?k?G?U?$LE?O?$LE?Y?4?5?$CICtrl?$CL@ DB 0bdH
	DB	0bdH, 0c6H, 0dbH, 0c7H, 0cfH, 0b4H, 0c2H, ' ', 0beH, 0d7H, 0bcH
	DB	0c7H, 0c0H, 0bbH, ' ', 0c3H, 0ebH, 0c7H, 0d5H, 0b4H, 0cfH, 0b4H
	DB	0d9H, '. (Ctrl+6)', 00H			; `string'
CONST	ENDS
;	COMDAT ??_C@_0CD@MIHLAAOD@?$LJ?f?$LO?n?G?O?$LE?B?5?$LO?W?$LM?G?$MA?$LL?5?C?k?G?U?$LE?O?$LE?Y?4?5?$CICtrl?$CL@
CONST	SEGMENT
??_C@_0CD@MIHLAAOD@?$LJ?f?$LO?n?G?O?$LE?B?5?$LO?W?$LM?G?$MA?$LL?5?C?k?G?U?$LE?O?$LE?Y?4?5?$CICtrl?$CL@ DB 0b9H
	DB	0e6H, 0beH, 0eeH, 0c7H, 0cfH, 0b4H, 0c2H, ' ', 0beH, 0d7H, 0bcH
	DB	0c7H, 0c0H, 0bbH, ' ', 0c3H, 0ebH, 0c7H, 0d5H, 0b4H, 0cfH, 0b4H
	DB	0d9H, '. (Ctrl+-)', 00H			; `string'
CONST	ENDS
;	COMDAT ??_C@_0CE@OIDAHAAG@?H?$KN?$LI?$KG?5?$LD?$LL?$LE?B?5?$LO?W?$LM?G?$MA?$LL?5?C?k?G?U?$LE?O?$LE?Y?4?5?$CICtrl@
CONST	SEGMENT
??_C@_0CE@OIDAHAAG@?H?$KN?$LI?$KG?5?$LD?$LL?$LE?B?5?$LO?W?$LM?G?$MA?$LL?5?C?k?G?U?$LE?O?$LE?Y?4?5?$CICtrl@ DB 0c8H
	DB	0adH, 0b8H, 0a6H, ' ', 0b3H, 0bbH, 0b4H, 0c2H, ' ', 0beH, 0d7H
	DB	0bcH, 0c7H, 0c0H, 0bbH, ' ', 0c3H, 0ebH, 0c7H, 0d5H, 0b4H, 0cfH
	DB	0b4H, 0d9H, '. (Ctrl+5)', 00H		; `string'
CONST	ENDS
;	COMDAT ??_C@_0CD@OMLIKOJM@?$LA?x?$LA?$NN?G?O?$LE?B?5?$LO?W?$LM?G?$MA?$LL?5?C?k?G?U?$LE?O?$LE?Y?4?5?$CICtrl?$CL@
CONST	SEGMENT
??_C@_0CD@OMLIKOJM@?$LA?x?$LA?$NN?G?O?$LE?B?5?$LO?W?$LM?G?$MA?$LL?5?C?k?G?U?$LE?O?$LE?Y?4?5?$CICtrl?$CL@ DB 0b0H
	DB	0f8H, 0b0H, 0ddH, 0c7H, 0cfH, 0b4H, 0c2H, ' ', 0beH, 0d7H, 0bcH
	DB	0c7H, 0c0H, 0bbH, ' ', 0c3H, 0ebH, 0c7H, 0d5H, 0b4H, 0cfH, 0b4H
	DB	0d9H, '. (Ctrl+0)', 00H			; `string'
CONST	ENDS
;	COMDAT ??_C@_0CD@CMMPEHFI@?$LB?b?$LL?$LF?G?O?$LE?B?5?$LO?W?$LM?G?$MA?$LL?5?C?k?G?U?$LE?O?$LE?Y?4?5?$CICtrl?$CL@
CONST	SEGMENT
??_C@_0CD@CMMPEHFI@?$LB?b?$LL?$LF?G?O?$LE?B?5?$LO?W?$LM?G?$MA?$LL?5?C?k?G?U?$LE?O?$LE?Y?4?5?$CICtrl?$CL@ DB 0b1H
	DB	0e2H, 0bbH, 0b5H, 0c7H, 0cfH, 0b4H, 0c2H, ' ', 0beH, 0d7H, 0bcH
	DB	0c7H, 0c0H, 0bbH, ' ', 0c3H, 0ebH, 0c7H, 0d5H, 0b4H, 0cfH, 0b4H
	DB	0d9H, '. (Ctrl+4)', 00H			; `string'
CONST	ENDS
;	COMDAT ??_C@_0CD@JMKADJMO@?$LO?$LC?$LH?$KP?A?v?$LE?B?5?$LO?W?$LM?G?$MA?$LL?5?C?k?G?U?$LE?O?$LE?Y?4?5?$CICtrl?$CL@
CONST	SEGMENT
??_C@_0CD@JMKADJMO@?$LO?$LC?$LH?$KP?A?v?$LE?B?5?$LO?W?$LM?G?$MA?$LL?5?C?k?G?U?$LE?O?$LE?Y?4?5?$CICtrl?$CL@ DB 0beH
	DB	0b2H, 0b7H, 0afH, 0c1H, 0f6H, 0b4H, 0c2H, ' ', 0beH, 0d7H, 0bcH
	DB	0c7H, 0c0H, 0bbH, ' ', 0c3H, 0ebH, 0c7H, 0d5H, 0b4H, 0cfH, 0b4H
	DB	0d9H, '. (Ctrl+9)', 00H			; `string'
CONST	ENDS
;	COMDAT ??_C@_0CD@KEHHLNJC@?$MA?N?$LL?g?G?O?$LE?B?5?$LO?W?$LM?G?$MA?$LL?5?C?k?G?U?$LE?O?$LE?Y?4?5?$CICtrl?$CL@
CONST	SEGMENT
??_C@_0CD@KEHHLNJC@?$MA?N?$LL?g?G?O?$LE?B?5?$LO?W?$LM?G?$MA?$LL?5?C?k?G?U?$LE?O?$LE?Y?4?5?$CICtrl?$CL@ DB 0c0H
	DB	0ceH, 0bbH, 0e7H, 0c7H, 0cfH, 0b4H, 0c2H, ' ', 0beH, 0d7H, 0bcH
	DB	0c7H, 0c0H, 0bbH, ' ', 0c3H, 0ebH, 0c7H, 0d5H, 0b4H, 0cfH, 0b4H
	DB	0d9H, '. (Ctrl+3)', 00H			; `string'
CONST	ENDS
;	COMDAT ??_C@_0BP@OCLIPLAL@?$LA?H?$LE?B?5?$LO?W?$LM?G?$MA?$LL?5?C?k?G?U?$LE?O?$LE?Y?4?5?$CICtrl?$CL8?$CJ?$AA@
CONST	SEGMENT
??_C@_0BP@OCLIPLAL@?$LA?H?$LE?B?5?$LO?W?$LM?G?$MA?$LL?5?C?k?G?U?$LE?O?$LE?Y?4?5?$CICtrl?$CL8?$CJ?$AA@ DB 0b0H
	DB	0c8H, 0b4H, 0c2H, ' ', 0beH, 0d7H, 0bcH, 0c7H, 0c0H, 0bbH, ' ', 0c3H
	DB	0ebH, 0c7H, 0d5H, 0b4H, 0cfH, 0b4H, 0d9H, '. (Ctrl+8)', 00H ; `string'
CONST	ENDS
;	COMDAT ??_C@_0CG@EHJAFDMH@?$LM?U?$MA?$LL?5?H?g?$LF?e?$LE?B?5?$LO?W?$LM?G?$MA?$LL?5?C?k?G?U?$LE?O?$LE?Y?4?5?$CICt@
CONST	SEGMENT
??_C@_0CG@EHJAFDMH@?$LM?U?$MA?$LL?5?H?g?$LF?e?$LE?B?5?$LO?W?$LM?G?$MA?$LL?5?C?k?G?U?$LE?O?$LE?Y?4?5?$CICt@ DB 0bcH
	DB	0d5H, 0c0H, 0bbH, ' ', 0c8H, 0e7H, 0b5H, 0e5H, 0b4H, 0c2H, ' ', 0beH
	DB	0d7H, 0bcH, 0c7H, 0c0H, 0bbH, ' ', 0c3H, 0ebH, 0c7H, 0d5H, 0b4H
	DB	0cfH, 0b4H, 0d9H, '. (Ctrl+2)', 00H		; `string'
CONST	ENDS
;	COMDAT ??_C@_0CD@HLCPDIKM@?$MA?O?$LO?n?$LM?$KN?$LE?B?5?$LO?W?$LM?G?$MA?$LL?5?C?k?G?U?$LE?O?$LE?Y?4?5?$CICtrl?$CL@
CONST	SEGMENT
??_C@_0CD@HLCPDIKM@?$MA?O?$LO?n?$LM?$KN?$LE?B?5?$LO?W?$LM?G?$MA?$LL?5?C?k?G?U?$LE?O?$LE?Y?4?5?$CICtrl?$CL@ DB 0c0H
	DB	0cfH, 0beH, 0eeH, 0bcH, 0adH, 0b4H, 0c2H, ' ', 0beH, 0d7H, 0bcH
	DB	0c7H, 0c0H, 0bbH, ' ', 0c3H, 0ebH, 0c7H, 0d5H, 0b4H, 0cfH, 0b4H
	DB	0d9H, '. (Ctrl+7)', 00H			; `string'
CONST	ENDS
;	COMDAT ??_C@_0CI@DLPPPDPB@?A?$KG?$MA?Z?$LI?$KO?$LP?$KB?5?$LO?I?$LE?B?5?$LO?W?$LM?G?$MA?$LL?5?C?k?G?U?$LE?O?$LE?Y?4?5?$CI@
CONST	SEGMENT
??_C@_0CI@DLPPPDPB@?A?$KG?$MA?Z?$LI?$KO?$LP?$KB?5?$LO?I?$LE?B?5?$LO?W?$LM?G?$MA?$LL?5?C?k?G?U?$LE?O?$LE?Y?4?5?$CI@ DB 0c1H
	DB	0a6H, 0c0H, 0daH, 0b8H, 0aeH, 0bfH, 0a1H, ' ', 0beH, 0c9H, 0b4H
	DB	0c2H, ' ', 0beH, 0d7H, 0bcH, 0c7H, 0c0H, 0bbH, ' ', 0c3H, 0ebH
	DB	0c7H, 0d5H, 0b4H, 0cfH, 0b4H, 0d9H, '. (Ctrl+1)', 00H ; `string'
CONST	ENDS
;	COMDAT ??_C@_0L@GOBFHACF@?$LE?x?$KB?$KB?A?v?$KB?$KB?$LE?Y?$AA@
CONST	SEGMENT
??_C@_0L@GOBFHACF@?$LE?x?$KB?$KB?A?v?$KB?$KB?$LE?Y?$AA@ DB 0b4H, 0f8H, 0a1H
	DB	0a1H, 0c1H, 0f6H, 0a1H, 0a1H, 0b4H, 0d9H, 00H ; `string'
CONST	ENDS
;	COMDAT ??_C@_0L@NJDBIKEM@?$LF?$KF?$KB?$KB?$LJ?L?$KB?$KB?A?v?$AA@
CONST	SEGMENT
??_C@_0L@NJDBIKEM@?$LF?$KF?$KB?$KB?$LJ?L?$KB?$KB?A?v?$AA@ DB 0b5H, 0a5H, 0a1H
	DB	0a1H, 0b9H, 0ccH, 0a1H, 0a1H, 0c1H, 0f6H, 00H ; `string'
CONST	ENDS
;	COMDAT ??_C@_0L@CHKOFNFO@?5?$LN?$LN?F?$NL?G?O?$LE?Y?5?$AA@
CONST	SEGMENT
??_C@_0L@CHKOFNFO@?5?$LN?$LN?F?$NL?G?O?$LE?Y?5?$AA@ DB ' ', 0bdH, 0bdH, 0c6H
	DB	0dbH, 0c7H, 0cfH, 0b4H, 0d9H, ' ', 00H	; `string'
CONST	ENDS
;	COMDAT ??_C@_0L@FLKMCCFP@?5?$LJ?f?$LO?n?G?O?$LE?Y?5?$AA@
CONST	SEGMENT
??_C@_0L@FLKMCCFP@?5?$LJ?f?$LO?n?G?O?$LE?Y?5?$AA@ DB ' ', 0b9H, 0e6H, 0beH
	DB	0eeH, 0c7H, 0cfH, 0b4H, 0d9H, ' ', 00H	; `string'
CONST	ENDS
;	COMDAT ??_C@_0L@DDIKGKGC@?5?H?$KN?$LI?$KG?$LD?$LL?$LE?Y?5?$AA@
CONST	SEGMENT
??_C@_0L@DDIKGKGC@?5?H?$KN?$LI?$KG?$LD?$LL?$LE?Y?5?$AA@ DB ' ', 0c8H, 0adH
	DB	0b8H, 0a6H, 0b3H, 0bbH, 0b4H, 0d9H, ' ', 00H	; `string'
CONST	ENDS
;	COMDAT ??_C@_0L@EPLKDNIL@?5?$LA?x?$LA?$NN?G?O?$LE?Y?5?$AA@
CONST	SEGMENT
??_C@_0L@EPLKDNIL@?5?$LA?x?$LA?$NN?G?O?$LE?Y?5?$AA@ DB ' ', 0b0H, 0f8H, 0b0H
	DB	0ddH, 0c7H, 0cfH, 0b4H, 0d9H, ' ', 00H	; `string'
CONST	ENDS
;	COMDAT ??_C@_0L@HMKFIAIO@?5?$LB?b?$LL?$LF?G?O?$LE?Y?5?$AA@
CONST	SEGMENT
??_C@_0L@HMKFIAIO@?5?$LB?b?$LL?$LF?G?O?$LE?Y?5?$AA@ DB ' ', 0b1H, 0e2H, 0bbH
	DB	0b5H, 0c7H, 0cfH, 0b4H, 0d9H, ' ', 00H	; `string'
CONST	ENDS
;	COMDAT ??_C@_0L@BBJFHFFA@?5?$LO?$LC?$LH?$KP?A?v?$LE?Y?5?$AA@
CONST	SEGMENT
??_C@_0L@BBJFHFFA@?5?$LO?$LC?$LH?$KP?A?v?$LE?Y?5?$AA@ DB ' ', 0beH, 0b2H, 0b7H
	DB	0afH, 0c1H, 0f6H, 0b4H, 0d9H, ' ', 00H	; `string'
CONST	ENDS
;	COMDAT ??_C@_0L@LFKBOHAB@?5?$MA?N?$LL?g?G?O?$LE?Y?5?$AA@
CONST	SEGMENT
??_C@_0L@LFKBOHAB@?5?$MA?N?$LL?g?G?O?$LE?Y?5?$AA@ DB ' ', 0c0H, 0ceH, 0bbH
	DB	0e7H, 0c7H, 0cfH, 0b4H, 0d9H, ' ', 00H	; `string'
CONST	ENDS
;	COMDAT ??_C@_0L@CPNFDNI@?5?$LA?H?$KB?$KB?$KB?$KB?$LE?Y?5?$AA@
CONST	SEGMENT
??_C@_0L@CPNFDNI@?5?$LA?H?$KB?$KB?$KB?$KB?$LE?Y?5?$AA@ DB ' ', 0b0H, 0c8H
	DB	0a1H, 0a1H, 0a1H, 0a1H, 0b4H, 0d9H, ' ', 00H	; `string'
CONST	ENDS
;	COMDAT ??_C@_0L@FNPFLOKG@?5?$LM?U?H?g?$LF?i?$LE?Y?5?$AA@
CONST	SEGMENT
??_C@_0L@FNPFLOKG@?5?$LM?U?H?g?$LF?i?$LE?Y?5?$AA@ DB ' ', 0bcH, 0d5H, 0c8H
	DB	0e7H, 0b5H, 0e9H, 0b4H, 0d9H, ' ', 00H	; `string'
CONST	ENDS
;	COMDAT ??_C@_0L@LOMDAPBP@?5?$MA?O?$LO?n?$LD?$KK?$LE?Y?5?$AA@
CONST	SEGMENT
??_C@_0L@LOMDAPBP@?5?$MA?O?$LO?n?$LD?$KK?$LE?Y?5?$AA@ DB ' ', 0c0H, 0cfH, 0beH
	DB	0eeH, 0b3H, 0aaH, 0b4H, 0d9H, ' ', 00H	; `string'
CONST	ENDS
;	COMDAT ??_C@_0L@LEPHHCI@?5?$LO?I?$KB?$KB?$KB?$KB?$LE?Y?5?$AA@
CONST	SEGMENT
??_C@_0L@LEPHHCI@?5?$LO?I?$KB?$KB?$KB?$KB?$LE?Y?5?$AA@ DB ' ', 0beH, 0c9H
	DB	0a1H, 0a1H, 0a1H, 0a1H, 0b4H, 0d9H, ' ', 00H	; `string'
CONST	ENDS
;	COMDAT ??_C@_0CM@JBJJKLPF@?$LK?$KO?C?$LL?$MA?G?5?$LB?$LI?$LN?$LN?$MA?$LL?5?$LL?g?$LP?k?G?O?$LA?E?$LD?$KK?5?$LL?g?$LP?k?$MA?$LL?5@
CONST	SEGMENT
??_C@_0CM@JBJJKLPF@?$LK?$KO?C?$LL?$MA?G?5?$LB?$LI?$LN?$LN?$MA?$LL?5?$LL?g?$LP?k?G?O?$LA?E?$LD?$KK?5?$LL?g?$LP?k?$MA?$LL?5@ DB 0baH
	DB	0aeH, 0c3H, 0bbH, 0c0H, 0c7H, ' ', 0b1H, 0b8H, 0bdH, 0bdH, 0c0H
	DB	0bbH, ' ', 0bbH, 0e7H, 0bfH, 0ebH, 0c7H, 0cfH, 0b0H, 0c5H, 0b3H
	DB	0aaH, ' ', 0bbH, 0e7H, 0bfH, 0ebH, 0c0H, 0bbH, ' ', 0c1H, 0beH
	DB	0b7H, 0e1H, 0c7H, 0d5H, 0b4H, 0cfH, 0b4H, 0d9H, '.', 00H ; `string'
CONST	ENDS
;	COMDAT ??_C@_0CM@DKAKKPJM@?$LA?f?G?h?D?$KB?5?$LB?$LI?$LN?$LN?$MA?$LL?5?$LL?g?$LP?k?G?O?$LA?E?$LD?$KK?5?$LL?g?$LP?k?$MA?$LL?5@
CONST	SEGMENT
??_C@_0CM@DKAKKPJM@?$LA?f?G?h?D?$KB?5?$LB?$LI?$LN?$LN?$MA?$LL?5?$LL?g?$LP?k?G?O?$LA?E?$LD?$KK?5?$LL?g?$LP?k?$MA?$LL?5@ DB 0b0H
	DB	0e6H, 0c7H, 0e8H, 0c4H, 0a1H, ' ', 0b1H, 0b8H, 0bdH, 0bdH, 0c0H
	DB	0bbH, ' ', 0bbH, 0e7H, 0bfH, 0ebH, 0c7H, 0cfH, 0b0H, 0c5H, 0b3H
	DB	0aaH, ' ', 0bbH, 0e7H, 0bfH, 0ebH, 0c0H, 0bbH, ' ', 0c1H, 0beH
	DB	0b7H, 0e1H, 0c7H, 0d5H, 0b4H, 0cfH, 0b4H, 0d9H, '.', 00H ; `string'
CONST	ENDS
;	COMDAT ??_C@_0CD@LEKAGBMD@?G?X?$LE?g?A?v?$LP?$KK?$LP?$KB?5?$MA?V?$LE?B?5?F?D?F?$LM?$LI?$KG?5?$LA?K?$LL?v?G?U?$LE?O?$LE@
CONST	SEGMENT
??_C@_0CD@LEKAGBMD@?G?X?$LE?g?A?v?$LP?$KK?$LP?$KB?5?$MA?V?$LE?B?5?F?D?F?$LM?$LI?$KG?5?$LA?K?$LL?v?G?U?$LE?O?$LE@ DB 0c7H
	DB	0d8H, 0b4H, 0e7H, 0c1H, 0f6H, 0bfH, 0aaH, 0bfH, 0a1H, ' ', 0c0H
	DB	0d6H, 0b4H, 0c2H, ' ', 0c6H, 0c4H, 0c6H, 0bcH, 0b8H, 0a6H, ' ', 0b0H
	DB	0cbH, 0bbH, 0f6H, 0c7H, 0d5H, 0b4H, 0cfH, 0b4H, 0d9H, '.', 00H ; `string'
CONST	ENDS
;	COMDAT ??_C@_0CB@NCIEAEIK@?D?$LD?$LI?$KP?E?M?$MA?G?5?E?$LO?$LN?B?5?F?d?F?$KO?$LI?$KG?5?H?$KO?$MA?N?G?U?$LE?O?$LE?Y?4@
CONST	SEGMENT
??_C@_0CB@NCIEAEIK@?D?$LD?$LI?$KP?E?M?$MA?G?5?E?$LO?$LN?B?5?F?d?F?$KO?$LI?$KG?5?H?$KO?$MA?N?G?U?$LE?O?$LE?Y?4@ DB 0c4H
	DB	0b3H, 0b8H, 0afH, 0c5H, 0cdH, 0c0H, 0c7H, ' ', 0c5H, 0beH, 0bdH
	DB	0c2H, ' ', 0c6H, 0e4H, 0c6H, 0aeH, 0b8H, 0a6H, ' ', 0c8H, 0aeH
	DB	0c0H, 0ceH, 0c7H, 0d5H, 0b4H, 0cfH, 0b4H, 0d9H, '.', 00H ; `string'
CONST	ENDS
;	COMDAT ??_C@_0BN@HEBEENAI@?A?v?$LP?x?5?F?w?$MA?N?F?$KO?5?$LM?$KF?$MA?$LL?5?$LP?$KN?$LG?w?G?U?$LE?O?$LE?Y?4?$AA@
CONST	SEGMENT
??_C@_0BN@HEBEENAI@?A?v?$LP?x?5?F?w?$MA?N?F?$KO?5?$LM?$KF?$MA?$LL?5?$LP?$KN?$LG?w?G?U?$LE?O?$LE?Y?4?$AA@ DB 0c1H
	DB	0f6H, 0bfH, 0f8H, ' ', 0c6H, 0f7H, 0c0H, 0ceH, 0c6H, 0aeH, ' ', 0bcH
	DB	0a5H, 0c0H, 0bbH, ' ', 0bfH, 0adH, 0b6H, 0f7H, 0c7H, 0d5H, 0b4H
	DB	0cfH, 0b4H, 0d9H, '.', 00H			; `string'
CONST	ENDS
;	COMDAT ??_C@_0BP@JAGIJNBP@?D?$LD?$LI?$KP?E?M?5?$LO?W?$LM?G?5?A?$KE?$LK?$LI?$LI?$KG?5?H?$KO?$MA?N?G?U?$LE?O?$LE?Y?4?$AA@
CONST	SEGMENT
??_C@_0BP@JAGIJNBP@?D?$LD?$LI?$KP?E?M?5?$LO?W?$LM?G?5?A?$KE?$LK?$LI?$LI?$KG?5?H?$KO?$MA?N?G?U?$LE?O?$LE?Y?4?$AA@ DB 0c4H
	DB	0b3H, 0b8H, 0afH, 0c5H, 0cdH, ' ', 0beH, 0d7H, 0bcH, 0c7H, ' ', 0c1H
	DB	0a4H, 0baH, 0b8H, 0b8H, 0a6H, ' ', 0c8H, 0aeH, 0c0H, 0ceH, 0c7H
	DB	0d5H, 0b4H, 0cfH, 0b4H, 0d9H, '.', 00H	; `string'
CONST	ENDS
;	COMDAT ??_C@_0BK@EJDCDLOD@?D?y?$LN?$LK?F?$KO?5?A?$KE?$LK?$LI?$LI?$KG?5?H?$KO?$MA?N?G?U?$LE?O?$LE?Y?4?$AA@
CONST	SEGMENT
??_C@_0BK@EJDCDLOD@?D?y?$LN?$LK?F?$KO?5?A?$KE?$LK?$LI?$LI?$KG?5?H?$KO?$MA?N?G?U?$LE?O?$LE?Y?4?$AA@ DB 0c4H
	DB	0f9H, 0bdH, 0baH, 0c6H, 0aeH, ' ', 0c1H, 0a4H, 0baH, 0b8H, 0b8H
	DB	0a6H, ' ', 0c8H, 0aeH, 0c0H, 0ceH, 0c7H, 0d5H, 0b4H, 0cfH, 0b4H
	DB	0d9H, '.', 00H				; `string'
CONST	ENDS
;	COMDAT ??_C@_0BD@KMDDMCEP@?$MA?$PM?E?u?$LI?$KG?5?$LA?$PM?$MA?$PM?G?U?$LE?O?$LE?Y?4?$AA@
CONST	SEGMENT
??_C@_0BD@KMDDMCEP@?$MA?$PM?E?u?$LI?$KG?5?$LA?$PM?$MA?$PM?G?U?$LE?O?$LE?Y?4?$AA@ DB 0c0H
	DB	0fcH, 0c5H, 0f5H, 0b8H, 0a6H, ' ', 0b0H, 0fcH, 0c0H, 0fcH, 0c7H
	DB	0d5H, 0b4H, 0cfH, 0b4H, 0d9H, '.', 00H	; `string'
CONST	ENDS
;	COMDAT ??_C@_0BJ@NBCGMCO@?$MA?$PM?E?u?$LP?$KB?5?B?$PM?$LP?$KJ?G?R?5?$LM?v?5?$LO?x?$LO?n?$LP?d?4?$AA@
CONST	SEGMENT
??_C@_0BJ@NBCGMCO@?$MA?$PM?E?u?$LP?$KB?5?B?$PM?$LP?$KJ?G?R?5?$LM?v?5?$LO?x?$LO?n?$LP?d?4?$AA@ DB 0c0H
	DB	0fcH, 0c5H, 0f5H, 0bfH, 0a1H, ' ', 0c2H, 0fcH, 0bfH, 0a9H, 0c7H
	DB	0d2H, ' ', 0bcH, 0f6H, ' ', 0beH, 0f8H, 0beH, 0eeH, 0bfH, 0e4H
	DB	'.', 00H					; `string'
CONST	ENDS
;	COMDAT ??_C@_0BD@KFAJKCNC@?$MA?$PM?E?u?$LP?$KB?5?B?$PM?$LP?$KJ?G?U?$LE?O?$LE?Y?4?$AA@
CONST	SEGMENT
??_C@_0BD@KFAJKCNC@?$MA?$PM?E?u?$LP?$KB?5?B?$PM?$LP?$KJ?G?U?$LE?O?$LE?Y?4?$AA@ DB 0c0H
	DB	0fcH, 0c5H, 0f5H, 0bfH, 0a1H, ' ', 0c2H, 0fcH, 0bfH, 0a9H, 0c7H
	DB	0d5H, 0b4H, 0cfH, 0b4H, 0d9H, '.', 00H	; `string'
CONST	ENDS
;	COMDAT ??_C@_0BO@GJIBCGFI@?$LL?s?$LE?k?$LJ?f?$LP?$KB?$LA?T?5?$LE?k?$MA?$PM?$MA?$LL?5?$LN?E?C?$LL?G?U?$LE?O?$LE?Y?4?$AA@
CONST	SEGMENT
??_C@_0BO@GJIBCGFI@?$LL?s?$LE?k?$LJ?f?$LP?$KB?$LA?T?5?$LE?k?$MA?$PM?$MA?$LL?5?$LN?E?C?$LL?G?U?$LE?O?$LE?Y?4?$AA@ DB 0bbH
	DB	0f3H, 0b4H, 0ebH, 0b9H, 0e6H, 0bfH, 0a1H, 0b0H, 0d4H, ' ', 0b4H
	DB	0ebH, 0c0H, 0fcH, 0c0H, 0bbH, ' ', 0bdH, 0c5H, 0c3H, 0bbH, 0c7H
	DB	0d5H, 0b4H, 0cfH, 0b4H, 0d9H, '.', 00H	; `string'
CONST	ENDS
;	COMDAT ??_C@_0BP@BDKJGMGO@?$LK?N?A?$LH?$LP?$KB?5?$LE?k?G?Q?5?A?$KE?$LK?$LI?$LI?$KG?5?H?$KO?$MA?N?G?U?$LE?O?$LE?Y?4?$AA@
CONST	SEGMENT
??_C@_0BP@BDKJGMGO@?$LK?N?A?$LH?$LP?$KB?5?$LE?k?G?Q?5?A?$KE?$LK?$LI?$LI?$KG?5?H?$KO?$MA?N?G?U?$LE?O?$LE?Y?4?$AA@ DB 0baH
	DB	0ceH, 0c1H, 0b7H, 0bfH, 0a1H, ' ', 0b4H, 0ebH, 0c7H, 0d1H, ' ', 0c1H
	DB	0a4H, 0baH, 0b8H, 0b8H, 0a6H, ' ', 0c8H, 0aeH, 0c0H, 0ceH, 0c7H
	DB	0d5H, 0b4H, 0cfH, 0b4H, 0d9H, '.', 00H	; `string'
CONST	ENDS
;	COMDAT ??_C@_0BH@CBJDPLHJ@?$LA?$LD?$MA?N?$LL?s?A?$KB?$MA?$LL?5?$LA?$LD?$LM?$LD?G?U?$LE?O?$LE?Y?4?$AA@
CONST	SEGMENT
??_C@_0BH@CBJDPLHJ@?$LA?$LD?$MA?N?$LL?s?A?$KB?$MA?$LL?5?$LA?$LD?$LM?$LD?G?U?$LE?O?$LE?Y?4?$AA@ DB 0b0H
	DB	0b3H, 0c0H, 0ceH, 0bbH, 0f3H, 0c1H, 0a1H, 0c0H, 0bbH, ' ', 0b0H
	DB	0b3H, 0bcH, 0b3H, 0c7H, 0d5H, 0b4H, 0cfH, 0b4H, 0d9H, '.', 00H ; `string'
CONST	ENDS
;	COMDAT ??_C@_0BO@NDPFBKJO@?$LL?s?$LE?k?$LJ?f?$LP?$KB?$LA?T?5?$LB?$LD?H?$KP?$MA?$LL?5?$LN?E?C?$LL?G?U?$LE?O?$LE?Y?4?$AA@
CONST	SEGMENT
??_C@_0BO@NDPFBKJO@?$LL?s?$LE?k?$LJ?f?$LP?$KB?$LA?T?5?$LB?$LD?H?$KP?$MA?$LL?5?$LN?E?C?$LL?G?U?$LE?O?$LE?Y?4?$AA@ DB 0bbH
	DB	0f3H, 0b4H, 0ebH, 0b9H, 0e6H, 0bfH, 0a1H, 0b0H, 0d4H, ' ', 0b1H
	DB	0b3H, 0c8H, 0afH, 0c0H, 0bbH, ' ', 0bdH, 0c5H, 0c3H, 0bbH, 0c7H
	DB	0d5H, 0b4H, 0cfH, 0b4H, 0d9H, '.', 00H	; `string'
CONST	ENDS
;	COMDAT ??_C@_0BM@JPNLKOND@?$LL?s?$LE?k?$LJ?f?$MA?G?5?F?D?F?$LM?$LP?$KB?5?B?$PM?$LP?$KJ?G?U?$LE?O?$LE?Y?4?$AA@
CONST	SEGMENT
??_C@_0BM@JPNLKOND@?$LL?s?$LE?k?$LJ?f?$MA?G?5?F?D?F?$LM?$LP?$KB?5?B?$PM?$LP?$KJ?G?U?$LE?O?$LE?Y?4?$AA@ DB 0bbH
	DB	0f3H, 0b4H, 0ebH, 0b9H, 0e6H, 0c0H, 0c7H, ' ', 0c6H, 0c4H, 0c6H
	DB	0bcH, 0bfH, 0a1H, ' ', 0c2H, 0fcH, 0bfH, 0a9H, 0c7H, 0d5H, 0b4H
	DB	0cfH, 0b4H, 0d9H, '.', 00H			; `string'
CONST	ENDS
;	COMDAT ??_C@_0BJ@CHLJOFEL@?F?D?F?$LM?$LP?$KB?5?B?$PM?$LP?$KJ?G?R?5?$LM?v?5?$LO?x?$LO?n?$LP?d?4?$AA@
CONST	SEGMENT
??_C@_0BJ@CHLJOFEL@?F?D?F?$LM?$LP?$KB?5?B?$PM?$LP?$KJ?G?R?5?$LM?v?5?$LO?x?$LO?n?$LP?d?4?$AA@ DB 0c6H
	DB	0c4H, 0c6H, 0bcH, 0bfH, 0a1H, ' ', 0c2H, 0fcH, 0bfH, 0a9H, 0c7H
	DB	0d2H, ' ', 0bcH, 0f6H, ' ', 0beH, 0f8H, 0beH, 0eeH, 0bfH, 0e4H
	DB	'.', 00H					; `string'
CONST	ENDS
;	COMDAT ??_C@_0BM@BDLIIEIH@?$LL?s?$LE?k?$LJ?f?$LA?z?5?$LI?m?G?T?$MA?$LL?5?$LB?$LD?H?$KP?G?U?$LE?O?$LE?Y?4?$AA@
CONST	SEGMENT
??_C@_0BM@BDLIIEIH@?$LL?s?$LE?k?$LJ?f?$LA?z?5?$LI?m?G?T?$MA?$LL?5?$LB?$LD?H?$KP?G?U?$LE?O?$LE?Y?4?$AA@ DB 0bbH
	DB	0f3H, 0b4H, 0ebH, 0b9H, 0e6H, 0b0H, 0faH, ' ', 0b8H, 0edH, 0c7H
	DB	0d4H, 0c0H, 0bbH, ' ', 0b1H, 0b3H, 0c8H, 0afH, 0c7H, 0d5H, 0b4H
	DB	0cfH, 0b4H, 0d9H, '.', 00H			; `string'
CONST	ENDS
;	COMDAT ??_C@_0BD@KALKBBEH@?$LI?$NO?$LE?$LK?$LI?$KG?5?$LM?$LD?A?$KE?G?U?$LE?O?$LE?Y?4?$AA@
CONST	SEGMENT
??_C@_0BD@KALKBBEH@?$LI?$NO?$LE?$LK?$LI?$KG?5?$LM?$LD?A?$KE?G?U?$LE?O?$LE?Y?4?$AA@ DB 0b8H
	DB	0deH, 0b4H, 0baH, 0b8H, 0a6H, ' ', 0bcH, 0b3H, 0c1H, 0a4H, 0c7H
	DB	0d5H, 0b4H, 0cfH, 0b4H, 0d9H, '.', 00H	; `string'
CONST	ENDS
;	COMDAT ??_C@_0CD@HJEPKLDC@?$MA?L?$LA?w?$LP?$KB?$LM?$KN?5?F?D?F?$LM?$LI?$KG?5?$LB?$LI?$LM?$LK?G?R?5?$LM?v?5?$LO?x?$LN?$MA?$LE?O@
CONST	SEGMENT
??_C@_0CD@HJEPKLDC@?$MA?L?$LA?w?$LP?$KB?$LM?$KN?5?F?D?F?$LM?$LI?$KG?5?$LB?$LI?$LM?$LK?G?R?5?$LM?v?5?$LO?x?$LN?$MA?$LE?O@ DB 0c0H
	DB	0ccH, 0b0H, 0f7H, 0bfH, 0a1H, 0bcH, 0adH, ' ', 0c6H, 0c4H, 0c6H
	DB	0bcH, 0b8H, 0a6H, ' ', 0b1H, 0b8H, 0bcH, 0baH, 0c7H, 0d2H, ' ', 0bcH
	DB	0f6H, ' ', 0beH, 0f8H, 0bdH, 0c0H, 0b4H, 0cfH, 0b4H, 0d9H, 00H ; `string'
CONST	ENDS
;	COMDAT ??_C@_03OAFDEMMP@S?$HMP?$AA@
CONST	SEGMENT
??_C@_03OAFDEMMP@S?$HMP?$AA@ DB 'S|P', 00H		; `string'
CONST	ENDS
;	COMDAT ??_C@_0DA@KIPDLLGN@P?$HM?$LK?N?A?$LH?$LP?$KB?5?$LA?$KB?$MA?T?$LF?G?A?v?5?$LO?J?$LO?F?5?A?$KE?$LK?$LI?$LI?$KG?5?H?$KO@
CONST	SEGMENT
??_C@_0DA@KIPDLLGN@P?$HM?$LK?N?A?$LH?$LP?$KB?5?$LA?$KB?$MA?T?$LF?G?A?v?5?$LO?J?$LO?F?5?A?$KE?$LK?$LI?$LI?$KG?5?H?$KO@ DB 'P'
	DB	'|', 0baH, 0ceH, 0c1H, 0b7H, 0bfH, 0a1H, ' ', 0b0H, 0a1H, 0c0H
	DB	0d4H, 0b5H, 0c7H, 0c1H, 0f6H, ' ', 0beH, 0caH, 0beH, 0c6H, ' ', 0c1H
	DB	0a4H, 0baH, 0b8H, 0b8H, 0a6H, ' ', 0c8H, 0aeH, 0c0H, 0ceH, 0c7H
	DB	0d2H, ' ', 0bcH, 0f6H, ' ', 0beH, 0f8H, 0beH, 0eeH, 0bfH, 0e4H
	DB	'.', 00H					; `string'
CONST	ENDS
;	COMDAT ??_C@_02OPIIDOKH@P?$HM?$AA@
CONST	SEGMENT
??_C@_02OPIIDOKH@P?$HM?$AA@ DB 'P|', 00H		; `string'
CONST	ENDS
;	COMDAT ??_C@_0CB@GPKKMDCO@?$LD?k?A?$KB?$LL?s?$LP?$KB?$LM?$KN?5?$LB?$LD?H?$KP?$MA?$LL?5?G?X?$LM?$KN?$LE?B?5?$LO?H?5?$LF?H?$LE?Y@
CONST	SEGMENT
??_C@_0CB@GPKKMDCO@?$LD?k?A?$KB?$LL?s?$LP?$KB?$LM?$KN?5?$LB?$LD?H?$KP?$MA?$LL?5?G?X?$LM?$KN?$LE?B?5?$LO?H?5?$LF?H?$LE?Y@ DB 0b3H
	DB	0ebH, 0c1H, 0a1H, 0bbH, 0f3H, 0bfH, 0a1H, 0bcH, 0adH, ' ', 0b1H
	DB	0b3H, 0c8H, 0afH, 0c0H, 0bbH, ' ', 0c7H, 0d8H, 0bcH, 0adH, 0b4H
	DB	0c2H, ' ', 0beH, 0c8H, ' ', 0b5H, 0c8H, 0b4H, 0d9H, 00H ; `string'
CONST	ENDS
;	COMDAT ??_C@_03DDDPELM@D?$HMD?$AA@
CONST	SEGMENT
??_C@_03DDDPELM@D?$HMD?$AA@ DB 'D|D', 00H		; `string'
CONST	ENDS
;	COMDAT ??_C@_02PACKEJLJ@B?$HM?$AA@
CONST	SEGMENT
??_C@_02PACKEJLJ@B?$HM?$AA@ DB 'B|', 00H		; `string'
CONST	ENDS
;	COMDAT ??_C@_02PIPCNKOK@O?$HM?$AA@
CONST	SEGMENT
??_C@_02PIPCNKOK@O?$HM?$AA@ DB 'O|', 00H		; `string'
CONST	ENDS
;	COMDAT ??_C@_02DPKJAMEF@?$CFd?$AA@
CONST	SEGMENT
??_C@_02DPKJAMEF@?$CFd?$AA@ DB '%d', 00H		; `string'
CONST	ENDS
;	COMDAT ??_C@_05LNGOBBOC@D?$HM?$CFd?$HM?$AA@
CONST	SEGMENT
??_C@_05LNGOBBOC@D?$HM?$CFd?$HM?$AA@ DB 'D|%d|', 00H	; `string'
CONST	ENDS
;	COMDAT ??_C@_0CH@BCAEDIAE@?G?y?A?$KE?5?$LA?$KB?$LA?$NN?5?$LJ?$LA?G?$LA?$MA?$LK?5?$MA?O?$MA?O?$MA?L?5?$LA?m?$LI?$KG?5?$LM?v?5@
CONST	SEGMENT
??_C@_0CH@BCAEDIAE@?G?y?A?$KE?5?$LA?$KB?$LA?$NN?5?$LJ?$LA?G?$LA?$MA?$LK?5?$MA?O?$MA?O?$MA?L?5?$LA?m?$LI?$KG?5?$LM?v?5@ DB 0c7H
	DB	0f9H, 0c1H, 0a4H, ' ', 0b0H, 0a1H, 0b0H, 0ddH, ' ', 0b9H, 0b0H
	DB	0c7H, 0b0H, 0c0H, 0baH, ' ', 0c0H, 0cfH, 0c0H, 0cfH, 0c0H, 0ccH
	DB	' ', 0b0H, 0edH, 0b8H, 0a6H, ' ', 0bcH, 0f6H, ' ', 0beH, 0f8H, 0b4H
	DB	0d9H, 0a3H, 0a1H, 00H			; `string'
CONST	ENDS
;	COMDAT ??_C@_0BM@PJIKDD@?$LJ?Y?$LF?p?5?$LO?F?$MA?L?E?$NL?5?$LM?$LN?$LM?G?$MA?L?5?$LK?N?A?$LH?G?X?$KD?$KB?$AA@
CONST	SEGMENT
??_C@_0BM@PJIKDD@?$LJ?Y?$LF?p?5?$LO?F?$MA?L?E?$NL?5?$LM?$LN?$LM?G?$MA?L?5?$LK?N?A?$LH?G?X?$KD?$KB?$AA@ DB 0b9H
	DB	0d9H, 0b5H, 0f0H, ' ', 0beH, 0c6H, 0c0H, 0ccH, 0c5H, 0dbH, ' ', 0bcH
	DB	0bdH, 0bcH, 0c7H, 0c0H, 0ccH, ' ', 0baH, 0ceH, 0c1H, 0b7H, 0c7H
	DB	0d8H, 0a3H, 0a1H, 00H			; `string'
CONST	ENDS
;	COMDAT ??_C@_0BA@KFKPCCNN@?$LN?$LK?E?f?$MA?L?5?$LK?N?A?$LH?G?X?$KD?$KB?$AA@
CONST	SEGMENT
??_C@_0BA@KFKPCCNN@?$LN?$LK?E?f?$MA?L?5?$LK?N?A?$LH?G?X?$KD?$KB?$AA@ DB 0bdH
	DB	0baH, 0c5H, 0e6H, 0c0H, 0ccH, ' ', 0baH, 0ceH, 0c1H, 0b7H, 0c7H
	DB	0d8H, 0a3H, 0a1H, 00H			; `string'
CONST	ENDS
;	COMDAT ??_C@_0M@LGAMIGJ@?$LB?b?$LM?z?5?$CFd?$KD?$LK?$CFs?$AA@
CONST	SEGMENT
??_C@_0M@LGAMIGJ@?$LB?b?$LM?z?5?$CFd?$KD?$LK?$CFs?$AA@ DB 0b1H, 0e2H, 0bcH
	DB	0faH, ' %d', 0a3H, 0baH, '%s', 00H		; `string'
CONST	ENDS
;	COMDAT ??_C@_06CFCEDMBI@?C?f?$KD?$LK?$CFd?$AA@
CONST	SEGMENT
??_C@_06CFCEDMBI@?C?f?$KD?$LK?$CFd?$AA@ DB 0c3H, 0e6H, 0a3H, 0baH, '%d', 00H ; `string'
CONST	ENDS
;	COMDAT ??_C@_06INCIIBEP@?G?$LD?$KD?$LK?$CFd?$AA@
CONST	SEGMENT
??_C@_06INCIIBEP@?G?$LD?$KD?$LK?$CFd?$AA@ DB 0c7H, 0b3H, 0a3H, 0baH, '%d', 00H ; `string'
CONST	ENDS
;	COMDAT ??_C@_06ECLMJCEN@?H?$KN?$KD?$LK?$CFd?$AA@
CONST	SEGMENT
??_C@_06ECLMJCEN@?H?$KN?$KD?$LK?$CFd?$AA@ DB 0c8H, 0adH, 0a3H, 0baH, '%d', 00H ; `string'
CONST	ENDS
;	COMDAT ??_C@_06DMNCJOEB@?$LM?v?$KD?$LK?$CFd?$AA@
CONST	SEGMENT
??_C@_06DMNCJOEB@?$LM?v?$KD?$LK?$CFd?$AA@ DB 0bcH, 0f6H, 0a3H, 0baH, '%d', 00H ; `string'
CONST	ENDS
;	COMDAT ??_C@_06LBGNCPKK@?A?v?$KD?$LK?$CFd?$AA@
CONST	SEGMENT
??_C@_06LBGNCPKK@?A?v?$KD?$LK?$CFd?$AA@ DB 0c1H, 0f6H, 0a3H, 0baH, '%d', 00H ; `string'
CONST	ENDS
;	COMDAT ??_C@_06GNIPPDB@?$LM?x?$KD?$LK?$CFd?$AA@
CONST	SEGMENT
??_C@_06GNIPPDB@?$LM?x?$KD?$LK?$CFd?$AA@ DB 0bcH, 0f8H, 0a3H, 0baH, '%d', 00H ; `string'
CONST	ENDS
;	COMDAT ??_C@_06GNDMLDHN@?$LJ?f?$KD?$LK?$CFd?$AA@
CONST	SEGMENT
??_C@_06GNDMLDHN@?$LJ?f?$KD?$LK?$CFd?$AA@ DB 0b9H, 0e6H, 0a3H, 0baH, '%d', 00H ; `string'
CONST	ENDS
;	COMDAT ??_C@_06MBHIJFEF@?$LA?x?$KD?$LK?$CFd?$AA@
CONST	SEGMENT
??_C@_06MBHIJFEF@?$LA?x?$KD?$LK?$CFd?$AA@ DB 0b0H, 0f8H, 0a3H, 0baH, '%d', 00H ; `string'
CONST	ENDS
;	COMDAT ??_C@_06HJFMPHBK@?$LD?$LL?$KD?$LK?$CFd?$AA@
CONST	SEGMENT
??_C@_06HJFMPHBK@?$LD?$LL?$KD?$LK?$CFd?$AA@ DB 0b3H, 0bbH, 0a3H, 0baH, '%'
	DB	'd', 00H					; `string'
CONST	ENDS
;	COMDAT ??_C@_06EGBMLAEA@Lv?$KD?$LK?$CFd?$AA@
CONST	SEGMENT
??_C@_06EGBMLAEA@Lv?$KD?$LK?$CFd?$AA@ DB 'Lv', 0a3H, 0baH, '%d', 00H ; `string'
CONST	ENDS
;	COMDAT ??_C@_07HLBLNMPK@?$CFd?5?H?$LI?$MA?$PM?$AA@
CONST	SEGMENT
??_C@_07HLBLNMPK@?$CFd?5?H?$LI?$MA?$PM?$AA@ DB '%d ', 0c8H, 0b8H, 0c0H, 0fcH
	DB	00H						; `string'
CONST	ENDS
;	COMDAT ??_C@_0L@LDFFIDCJ@?$LD?$LL?$LB?$LI?$LH?B?$CI?$CFs?$CJ?$AA@
CONST	SEGMENT
??_C@_0L@LDFFIDCJ@?$LD?$LL?$LB?$LI?$LH?B?$CI?$CFs?$CJ?$AA@ DB 0b3H, 0bbH, 0b1H
	DB	0b8H, 0b7H, 0c2H, '(%s)', 00H		; `string'
CONST	ENDS
;	COMDAT ??_C@_09HBDNCLCF@?G?y?$LL?s?5?$LA?$KB?$LA?$NN?$AA@
CONST	SEGMENT
??_C@_09HBDNCLCF@?G?y?$LL?s?5?$LA?$KB?$LA?$NN?$AA@ DB 0c7H, 0f9H, 0bbH, 0f3H
	DB	' ', 0b0H, 0a1H, 0b0H, 0ddH, 00H		; `string'
CONST	ENDS
;	COMDAT ??_C@_02PJDALANN@N?$HM?$AA@
CONST	SEGMENT
??_C@_02PJDALANN@N?$HM?$AA@ DB 'N|', 00H		; `string'
CONST	ENDS
;	COMDAT ??_C@_07PKADKLEL@B?$HM?$CFd?$HM?$CFs?$AA@
CONST	SEGMENT
??_C@_07PKADKLEL@B?$HM?$CFd?$HM?$CFs?$AA@ DB 'B|%d|%s', 00H ; `string'
CONST	ENDS
;	COMDAT ??_C@_03IFADCKOJ@?$CFd?$HM?$AA@
CONST	SEGMENT
??_C@_03IFADCKOJ@?$CFd?$HM?$AA@ DB '%d|', 00H		; `string'
CONST	ENDS
;	COMDAT ??_C@_04MPOIGBFL@SELL?$AA@
CONST	SEGMENT
??_C@_04MPOIGBFL@SELL?$AA@ DB 'SELL', 00H		; `string'
CONST	ENDS
;	COMDAT ??_C@_02PFGFFPDM@E?$HM?$AA@
CONST	SEGMENT
??_C@_02PFGFFPDM@E?$HM?$AA@ DB 'E|', 00H		; `string'
CONST	ENDS
;	COMDAT ??_C@_06EFALBHEL@R?$HMP?$HM?91?$AA@
CONST	SEGMENT
??_C@_06EFALBHEL@R?$HMP?$HM?91?$AA@ DB 'R|P|-1', 00H	; `string'
CONST	ENDS
;	COMDAT ??_C@_09KAHBFCEF@S?$HM?$CFd?$HM?$CFs?$CFs?$AA@
CONST	SEGMENT
??_C@_09KAHBFCEF@S?$HM?$CFd?$HM?$CFs?$CFs?$AA@ DB 'S|%d|%s%s', 00H ; `string'
CONST	ENDS
;	COMDAT ??_C@_0P@DJCPLGCF@?$LO?n?$LM?$KN?$LP?$MA?$LN?J?$LN?C?$LP?$MA?$CB?$CB?$AA@
CONST	SEGMENT
??_C@_0P@DJCPLGCF@?$LO?n?$LM?$KN?$LP?$MA?$LN?J?$LN?C?$LP?$MA?$CB?$CB?$AA@ DB 0beH
	DB	0eeH, 0bcH, 0adH, 0bfH, 0c0H, 0bdH, 0caH, 0bdH, 0c3H, 0bfH, 0c0H
	DB	'!!', 00H					; `string'
CONST	ENDS
;	COMDAT ??_C@_09CGALFHNJ@?$CFd?$HM?$CFd?$HM?$CFd?$HM?$AA@
CONST	SEGMENT
??_C@_09CGALFHNJ@?$CFd?$HM?$CFd?$HM?$CFd?$HM?$AA@ DB '%d|%d|%d|', 00H ; `string'
CONST	ENDS
;	COMDAT ??_C@_00CNPNBAHC@?$AA@
CONST	SEGMENT
??_C@_00CNPNBAHC@?$AA@ DB 00H				; `string'
CONST	ENDS
;	COMDAT ??_C@_0O@OPLGMGNK@?$CF?917s?$CF?912s?$CF8d?$AA@
CONST	SEGMENT
??_C@_0O@OPLGMGNK@?$CF?917s?$CF?912s?$CF8d?$AA@ DB '%-17s%-12s%8d', 00H ; `string'
CONST	ENDS
;	COMDAT ??_C@_0O@OKDFECEM@?$CF?917s?$CF?912s?$CF8s?$AA@
CONST	SEGMENT
??_C@_0O@OKDFECEM@?$CF?917s?$CF?912s?$CF8s?$AA@ DB '%-17s%-12s%8s', 00H ; `string'
CONST	ENDS
;	COMDAT ??_C@_03CAPDGGPL@?$DP?K?$MA?$AA@
CONST	SEGMENT
??_C@_03CAPDGGPL@?$DP?K?$MA?$AA@ DB '?', 0cbH, 0c0H, 00H ; `string'
CONST	ENDS
;	COMDAT ??_C@_0O@MINOFDLM@?$CF?920sx?$CF3d?$CF13d?$AA@
CONST	SEGMENT
??_C@_0O@MINOFDLM@?$CF?920sx?$CF3d?$CF13d?$AA@ DB '%-20sx%3d%13d', 00H ; `string'
CONST	ENDS
;	COMDAT ??_C@_0O@MNFNNHCK@?$CF?920sx?$CF3d?$CF13s?$AA@
CONST	SEGMENT
??_C@_0O@MNFNNHCK@?$CF?920sx?$CF3d?$CF13s?$AA@ DB '%-20sx%3d%13s', 00H ; `string'
CONST	ENDS
;	COMDAT ??_C@_01MMEEDKFM@X?$AA@
CONST	SEGMENT
??_C@_01MMEEDKFM@X?$AA@ DB 'X', 00H			; `string'
CONST	ENDS
;	COMDAT ??_C@_02DKCKIIND@?$CFs?$AA@
CONST	SEGMENT
??_C@_02DKCKIIND@?$CFs?$AA@ DB '%s', 00H		; `string'
CONST	ENDS
; Function compile flags: /Odtp /RTCsu /ZI
; File c:\users\administrator\desktop\????? ??\????? ??\client source code\system\field.cpp
;	COMDAT ?ReadAniFile@@YAHH@Z
_TEXT	SEGMENT
_i$1 = -100						; size = 4
_row$ = -88						; size = 4
_col$ = -76						; size = 4
_fileName$ = -64					; size = 32
_readbyte$ = -24					; size = 4
_hFile$ = -12						; size = 4
__$ArrayPad$ = -4					; size = 4
_floor$ = 8						; size = 4
?ReadAniFile@@YAHH@Z PROC				; ReadAniFile, COMDAT

; 5399 : {

  00000	55		 push	 ebp
  00001	8b ec		 mov	 ebp, esp
  00003	81 ec 28 01 00
	00		 sub	 esp, 296		; 00000128H
  00009	53		 push	 ebx
  0000a	56		 push	 esi
  0000b	57		 push	 edi
  0000c	8d bd d8 fe ff
	ff		 lea	 edi, DWORD PTR [ebp-296]
  00012	b9 4a 00 00 00	 mov	 ecx, 74			; 0000004aH
  00017	b8 cc cc cc cc	 mov	 eax, -858993460		; ccccccccH
  0001c	f3 ab		 rep stosd
  0001e	a1 00 00 00 00	 mov	 eax, DWORD PTR ___security_cookie
  00023	33 c5		 xor	 eax, ebp
  00025	89 45 fc	 mov	 DWORD PTR __$ArrayPad$[ebp], eax

; 5400 : 	HANDLE hFile;
; 5401 : 	DWORD readbyte;
; 5402 : 	char fileName[32];
; 5403 : 	ani_num = 0;

  00028	c7 05 00 00 00
	00 00 00 00 00	 mov	 DWORD PTR ?ani_num@@3HA, 0 ; ani_num

; 5404 : 	int col = 0, row = 0; 

  00032	c7 45 b4 00 00
	00 00		 mov	 DWORD PTR _col$[ebp], 0
  00039	c7 45 a8 00 00
	00 00		 mov	 DWORD PTR _row$[ebp], 0

; 5405 : 	breadAniFlag = TRUE;  //璇诲妗ｆ

  00040	c7 05 00 00 00
	00 01 00 00 00	 mov	 DWORD PTR ?breadAniFlag@@3HA, 1 ; breadAniFlag

; 5406 : 	sprintf(fileName, "map\\%d.ani", floor);

  0004a	8b 45 08	 mov	 eax, DWORD PTR _floor$[ebp]
  0004d	50		 push	 eax
  0004e	68 00 00 00 00	 push	 OFFSET ??_C@_0L@MGMKLDIO@map?2?$CFd?4ani?$AA@
  00053	8d 4d c0	 lea	 ecx, DWORD PTR _fileName$[ebp]
  00056	51		 push	 ecx
  00057	e8 00 00 00 00	 call	 _sprintf
  0005c	83 c4 0c	 add	 esp, 12			; 0000000cH

; 5407 : 	for (int i = 0; i < MAX_ANIM; i++)

  0005f	c7 45 9c 00 00
	00 00		 mov	 DWORD PTR _i$1[ebp], 0
  00066	eb 09		 jmp	 SHORT $LN4@ReadAniFil
$LN2@ReadAniFil:
  00068	8b 45 9c	 mov	 eax, DWORD PTR _i$1[ebp]
  0006b	83 c0 01	 add	 eax, 1
  0006e	89 45 9c	 mov	 DWORD PTR _i$1[ebp], eax
$LN4@ReadAniFil:
  00071	81 7d 9c 00 01
	00 00		 cmp	 DWORD PTR _i$1[ebp], 256 ; 00000100H
  00078	7d 30		 jge	 SHORT $LN3@ReadAniFil

; 5408 : 	{
; 5409 : 		ProduceXY[i][5] = -2 ; 

  0007a	6b 45 9c 1c	 imul	 eax, DWORD PTR _i$1[ebp], 28
  0007e	b9 04 00 00 00	 mov	 ecx, 4
  00083	6b d1 05	 imul	 edx, ecx, 5
  00086	c7 84 10 00 00
	00 00 fe ff ff
	ff		 mov	 DWORD PTR ?ProduceXY@@3PAY06HA[eax+edx], -2 ; fffffffeH

; 5410 : 		ProduceXY[i][6] = -1 ; 

  00091	6b 45 9c 1c	 imul	 eax, DWORD PTR _i$1[ebp], 28
  00095	b9 04 00 00 00	 mov	 ecx, 4
  0009a	6b d1 06	 imul	 edx, ecx, 6
  0009d	c7 84 10 00 00
	00 00 ff ff ff
	ff		 mov	 DWORD PTR ?ProduceXY@@3PAY06HA[eax+edx], -1

; 5411 : 	}

  000a8	eb be		 jmp	 SHORT $LN2@ReadAniFil
$LN3@ReadAniFil:

; 5412 : 	if ((hFile = CreateFile(fileName, GENERIC_READ, FILE_SHARE_READ, NULL,OPEN_EXISTING, NULL, NULL)) == INVALID_HANDLE_VALUE)

  000aa	8b f4		 mov	 esi, esp
  000ac	6a 00		 push	 0
  000ae	6a 00		 push	 0
  000b0	6a 03		 push	 3
  000b2	6a 00		 push	 0
  000b4	6a 01		 push	 1
  000b6	68 00 00 00 80	 push	 -2147483648		; 80000000H
  000bb	8d 45 c0	 lea	 eax, DWORD PTR _fileName$[ebp]
  000be	50		 push	 eax
  000bf	ff 15 00 00 00
	00		 call	 DWORD PTR __imp__CreateFileA@28
  000c5	3b f4		 cmp	 esi, esp
  000c7	e8 00 00 00 00	 call	 __RTC_CheckEsp
  000cc	89 45 f4	 mov	 DWORD PTR _hFile$[ebp], eax
  000cf	83 7d f4 ff	 cmp	 DWORD PTR _hFile$[ebp], -1
  000d3	75 05		 jne	 SHORT $LN5@ReadAniFil

; 5413 : 		return -1;

  000d5	83 c8 ff	 or	 eax, -1
  000d8	eb 72		 jmp	 SHORT $LN1@ReadAniFil
$LN5@ReadAniFil:

; 5414 : 
; 5415 : 	while (ReadFile(hFile, &ProduceXY[row], sizeof(int) * 5, &readbyte, NULL) && readbyte)

  000da	8b f4		 mov	 esi, esp
  000dc	6a 00		 push	 0
  000de	8d 45 e8	 lea	 eax, DWORD PTR _readbyte$[ebp]
  000e1	50		 push	 eax
  000e2	6a 14		 push	 20			; 00000014H
  000e4	6b 4d a8 1c	 imul	 ecx, DWORD PTR _row$[ebp], 28
  000e8	81 c1 00 00 00
	00		 add	 ecx, OFFSET ?ProduceXY@@3PAY06HA ; ProduceXY
  000ee	51		 push	 ecx
  000ef	8b 55 f4	 mov	 edx, DWORD PTR _hFile$[ebp]
  000f2	52		 push	 edx
  000f3	ff 15 00 00 00
	00		 call	 DWORD PTR __imp__ReadFile@20
  000f9	3b f4		 cmp	 esi, esp
  000fb	e8 00 00 00 00	 call	 __RTC_CheckEsp
  00100	85 c0		 test	 eax, eax
  00102	74 28		 je	 SHORT $LN6@ReadAniFil
  00104	83 7d e8 00	 cmp	 DWORD PTR _readbyte$[ebp], 0
  00108	74 22		 je	 SHORT $LN6@ReadAniFil

; 5416 : 	{
; 5417 : 		ProduceXY[row][5] = 0 ; 

  0010a	6b 45 a8 1c	 imul	 eax, DWORD PTR _row$[ebp], 28
  0010e	b9 04 00 00 00	 mov	 ecx, 4
  00113	6b d1 05	 imul	 edx, ecx, 5
  00116	c7 84 10 00 00
	00 00 00 00 00
	00		 mov	 DWORD PTR ?ProduceXY@@3PAY06HA[eax+edx], 0

; 5418 : 		row++;

  00121	8b 45 a8	 mov	 eax, DWORD PTR _row$[ebp]
  00124	83 c0 01	 add	 eax, 1
  00127	89 45 a8	 mov	 DWORD PTR _row$[ebp], eax

; 5419 : 	}

  0012a	eb ae		 jmp	 SHORT $LN5@ReadAniFil
$LN6@ReadAniFil:

; 5420 : 	ani_num = row; //璇ュ板炬诲ㄧ绘

  0012c	8b 45 a8	 mov	 eax, DWORD PTR _row$[ebp]
  0012f	a3 00 00 00 00	 mov	 DWORD PTR ?ani_num@@3HA, eax ; ani_num

; 5421 : 	CloseHandle(hFile);

  00134	8b f4		 mov	 esi, esp
  00136	8b 45 f4	 mov	 eax, DWORD PTR _hFile$[ebp]
  00139	50		 push	 eax
  0013a	ff 15 00 00 00
	00		 call	 DWORD PTR __imp__CloseHandle@4
  00140	3b f4		 cmp	 esi, esp
  00142	e8 00 00 00 00	 call	 __RTC_CheckEsp

; 5422 : 
; 5423 : 	return 1;

  00147	b8 01 00 00 00	 mov	 eax, 1
$LN1@ReadAniFil:

; 5424 : }

  0014c	52		 push	 edx
  0014d	8b cd		 mov	 ecx, ebp
  0014f	50		 push	 eax
  00150	8d 15 00 00 00
	00		 lea	 edx, DWORD PTR $LN12@ReadAniFil
  00156	e8 00 00 00 00	 call	 @_RTC_CheckStackVars@8
  0015b	58		 pop	 eax
  0015c	5a		 pop	 edx
  0015d	5f		 pop	 edi
  0015e	5e		 pop	 esi
  0015f	5b		 pop	 ebx
  00160	8b 4d fc	 mov	 ecx, DWORD PTR __$ArrayPad$[ebp]
  00163	33 cd		 xor	 ecx, ebp
  00165	e8 00 00 00 00	 call	 @__security_check_cookie@4
  0016a	81 c4 28 01 00
	00		 add	 esp, 296		; 00000128H
  00170	3b ec		 cmp	 ebp, esp
  00172	e8 00 00 00 00	 call	 __RTC_CheckEsp
  00177	8b e5		 mov	 esp, ebp
  00179	5d		 pop	 ebp
  0017a	c3		 ret	 0
  0017b	90		 npad	 1
$LN12@ReadAniFil:
  0017c	02 00 00 00	 DD	 2
  00180	00 00 00 00	 DD	 $LN11@ReadAniFil
$LN11@ReadAniFil:
  00184	e8 ff ff ff	 DD	 -24			; ffffffe8H
  00188	04 00 00 00	 DD	 4
  0018c	00 00 00 00	 DD	 $LN9@ReadAniFil
  00190	c0 ff ff ff	 DD	 -64			; ffffffc0H
  00194	20 00 00 00	 DD	 32			; 00000020H
  00198	00 00 00 00	 DD	 $LN10@ReadAniFil
$LN10@ReadAniFil:
  0019c	66		 DB	 102			; 00000066H
  0019d	69		 DB	 105			; 00000069H
  0019e	6c		 DB	 108			; 0000006cH
  0019f	65		 DB	 101			; 00000065H
  001a0	4e		 DB	 78			; 0000004eH
  001a1	61		 DB	 97			; 00000061H
  001a2	6d		 DB	 109			; 0000006dH
  001a3	65		 DB	 101			; 00000065H
  001a4	00		 DB	 0
$LN9@ReadAniFil:
  001a5	72		 DB	 114			; 00000072H
  001a6	65		 DB	 101			; 00000065H
  001a7	61		 DB	 97			; 00000061H
  001a8	64		 DB	 100			; 00000064H
  001a9	62		 DB	 98			; 00000062H
  001aa	79		 DB	 121			; 00000079H
  001ab	74		 DB	 116			; 00000074H
  001ac	65		 DB	 101			; 00000065H
  001ad	00		 DB	 0
?ReadAniFile@@YAHH@Z ENDP				; ReadAniFile
_TEXT	ENDS
; Function compile flags: /Odtp /RTCsu /ZI
; File c:\users\administrator\desktop\????? ??\????? ??\client source code\system\field.cpp
;	COMDAT ?AniRandomRelease@@YAXXZ
_TEXT	SEGMENT
_i$1 = -8						; size = 4
?AniRandomRelease@@YAXXZ PROC				; AniRandomRelease, COMDAT

; 3029 : {

  00000	55		 push	 ebp
  00001	8b ec		 mov	 ebp, esp
  00003	81 ec cc 00 00
	00		 sub	 esp, 204		; 000000ccH
  00009	53		 push	 ebx
  0000a	56		 push	 esi
  0000b	57		 push	 edi
  0000c	8d bd 34 ff ff
	ff		 lea	 edi, DWORD PTR [ebp-204]
  00012	b9 33 00 00 00	 mov	 ecx, 51			; 00000033H
  00017	b8 cc cc cc cc	 mov	 eax, -858993460		; ccccccccH
  0001c	f3 ab		 rep stosd

; 3030 : 	for (int i = 0; i < 50; i ++)

  0001e	c7 45 f8 00 00
	00 00		 mov	 DWORD PTR _i$1[ebp], 0
  00025	eb 09		 jmp	 SHORT $LN4@AniRandomR
$LN2@AniRandomR:
  00027	8b 45 f8	 mov	 eax, DWORD PTR _i$1[ebp]
  0002a	83 c0 01	 add	 eax, 1
  0002d	89 45 f8	 mov	 DWORD PTR _i$1[ebp], eax
$LN4@AniRandomR:
  00030	83 7d f8 32	 cmp	 DWORD PTR _i$1[ebp], 50	; 00000032H
  00034	7d 30		 jge	 SHORT $LN1@AniRandomR

; 3031 : 	{
; 3032 : 		if (WaterAct[i] != NULL)

  00036	8b 45 f8	 mov	 eax, DWORD PTR _i$1[ebp]
  00039	83 3c 85 00 00
	00 00 00	 cmp	 DWORD PTR ?WaterAct@@3PAPAUaction@@A[eax*4], 0
  00041	74 21		 je	 SHORT $LN5@AniRandomR

; 3033 : 		{
; 3034 : 			DeathAction(WaterAct[i]);

  00043	8b 45 f8	 mov	 eax, DWORD PTR _i$1[ebp]
  00046	8b 0c 85 00 00
	00 00		 mov	 ecx, DWORD PTR ?WaterAct@@3PAPAUaction@@A[eax*4]
  0004d	51		 push	 ecx
  0004e	e8 00 00 00 00	 call	 ?DeathAction@@YAXPAUaction@@@Z ; DeathAction
  00053	83 c4 04	 add	 esp, 4

; 3035 : 			WaterAct[i] = NULL;

  00056	8b 45 f8	 mov	 eax, DWORD PTR _i$1[ebp]
  00059	c7 04 85 00 00
	00 00 00 00 00
	00		 mov	 DWORD PTR ?WaterAct@@3PAPAUaction@@A[eax*4], 0
$LN5@AniRandomR:

; 3036 : 		}
; 3037 : 	}

  00064	eb c1		 jmp	 SHORT $LN2@AniRandomR
$LN1@AniRandomR:

; 3038 : }

  00066	5f		 pop	 edi
  00067	5e		 pop	 esi
  00068	5b		 pop	 ebx
  00069	81 c4 cc 00 00
	00		 add	 esp, 204		; 000000ccH
  0006f	3b ec		 cmp	 ebp, esp
  00071	e8 00 00 00 00	 call	 __RTC_CheckEsp
  00076	8b e5		 mov	 esp, ebp
  00078	5d		 pop	 ebp
  00079	c3		 ret	 0
?AniRandomRelease@@YAXXZ ENDP				; AniRandomRelease
_TEXT	ENDS
; Function compile flags: /Odtp /RTCsu /ZI
; File c:\users\administrator\desktop\????? ??\????? ??\client source code\system\field.cpp
;	COMDAT ?ImmobileAniRelease@@YAXXZ
_TEXT	SEGMENT
_i$1 = -8						; size = 4
?ImmobileAniRelease@@YAXXZ PROC				; ImmobileAniRelease, COMDAT

; 3007 : {

  00000	55		 push	 ebp
  00001	8b ec		 mov	 ebp, esp
  00003	81 ec cc 00 00
	00		 sub	 esp, 204		; 000000ccH
  00009	53		 push	 ebx
  0000a	56		 push	 esi
  0000b	57		 push	 edi
  0000c	8d bd 34 ff ff
	ff		 lea	 edi, DWORD PTR [ebp-204]
  00012	b9 33 00 00 00	 mov	 ecx, 51			; 00000033H
  00017	b8 cc cc cc cc	 mov	 eax, -858993460		; ccccccccH
  0001c	f3 ab		 rep stosd

; 3008 : 	Updownflag = false;

  0001e	c6 05 00 00 00
	00 00		 mov	 BYTE PTR ?Updownflag@@3_NA, 0 ; Updownflag

; 3009 : 	for (int i = 0; i < 560; i++)

  00025	c7 45 f8 00 00
	00 00		 mov	 DWORD PTR _i$1[ebp], 0
  0002c	eb 09		 jmp	 SHORT $LN4@ImmobileAn
$LN2@ImmobileAn:
  0002e	8b 45 f8	 mov	 eax, DWORD PTR _i$1[ebp]
  00031	83 c0 01	 add	 eax, 1
  00034	89 45 f8	 mov	 DWORD PTR _i$1[ebp], eax
$LN4@ImmobileAn:
  00037	81 7d f8 30 02
	00 00		 cmp	 DWORD PTR _i$1[ebp], 560 ; 00000230H
  0003e	0f 8d c6 00 00
	00		 jge	 $LN1@ImmobileAn

; 3010 : 	{
; 3011 : 		if (XYposition[i][3] == 1)

  00044	6b 45 f8 1c	 imul	 eax, DWORD PTR _i$1[ebp], 28
  00048	b9 04 00 00 00	 mov	 ecx, 4
  0004d	6b d1 03	 imul	 edx, ecx, 3
  00050	83 bc 10 00 00
	00 00 01	 cmp	 DWORD PTR ?XYposition@@3PAY06HA[eax+edx], 1
  00058	0f 85 a7 00 00
	00		 jne	 $LN5@ImmobileAn

; 3012 : 		{
; 3013 : 			if (WaterAct3[XYposition[i][4]] != NULL)

  0005e	6b 45 f8 1c	 imul	 eax, DWORD PTR _i$1[ebp], 28
  00062	b9 04 00 00 00	 mov	 ecx, 4
  00067	c1 e1 02	 shl	 ecx, 2
  0006a	8b 94 08 00 00
	00 00		 mov	 edx, DWORD PTR ?XYposition@@3PAY06HA[eax+ecx]
  00071	83 3c 95 00 00
	00 00 00	 cmp	 DWORD PTR ?WaterAct3@@3PAPAUaction@@A[edx*4], 0
  00079	0f 84 86 00 00
	00		 je	 $LN5@ImmobileAn

; 3014 : 			{
; 3015 : 				DeathAction(WaterAct3[XYposition[i][4]]);

  0007f	6b 45 f8 1c	 imul	 eax, DWORD PTR _i$1[ebp], 28
  00083	b9 04 00 00 00	 mov	 ecx, 4
  00088	c1 e1 02	 shl	 ecx, 2
  0008b	8b 94 08 00 00
	00 00		 mov	 edx, DWORD PTR ?XYposition@@3PAY06HA[eax+ecx]
  00092	8b 04 95 00 00
	00 00		 mov	 eax, DWORD PTR ?WaterAct3@@3PAPAUaction@@A[edx*4]
  00099	50		 push	 eax
  0009a	e8 00 00 00 00	 call	 ?DeathAction@@YAXPAUaction@@@Z ; DeathAction
  0009f	83 c4 04	 add	 esp, 4

; 3016 : 				WaterAct3[XYposition[i][4]] = NULL;

  000a2	6b 45 f8 1c	 imul	 eax, DWORD PTR _i$1[ebp], 28
  000a6	b9 04 00 00 00	 mov	 ecx, 4
  000ab	c1 e1 02	 shl	 ecx, 2
  000ae	8b 94 08 00 00
	00 00		 mov	 edx, DWORD PTR ?XYposition@@3PAY06HA[eax+ecx]
  000b5	c7 04 95 00 00
	00 00 00 00 00
	00		 mov	 DWORD PTR ?WaterAct3@@3PAPAUaction@@A[edx*4], 0

; 3017 : 				XYposition[i][3] = 0  ;

  000c0	6b 45 f8 1c	 imul	 eax, DWORD PTR _i$1[ebp], 28
  000c4	b9 04 00 00 00	 mov	 ecx, 4
  000c9	6b d1 03	 imul	 edx, ecx, 3
  000cc	c7 84 10 00 00
	00 00 00 00 00
	00		 mov	 DWORD PTR ?XYposition@@3PAY06HA[eax+edx], 0

; 3018 : 				XYposition[i][4] = -1 ;

  000d7	6b 45 f8 1c	 imul	 eax, DWORD PTR _i$1[ebp], 28
  000db	b9 04 00 00 00	 mov	 ecx, 4
  000e0	c1 e1 02	 shl	 ecx, 2
  000e3	c7 84 08 00 00
	00 00 ff ff ff
	ff		 mov	 DWORD PTR ?XYposition@@3PAY06HA[eax+ecx], -1

; 3019 : //				XYposition[i][5] = 1  ; //板涓婕娴2锛涓
; 3020 : 				XYposition[i][6] = 0  ;

  000ee	6b 45 f8 1c	 imul	 eax, DWORD PTR _i$1[ebp], 28
  000f2	b9 04 00 00 00	 mov	 ecx, 4
  000f7	6b d1 06	 imul	 edx, ecx, 6
  000fa	c7 84 10 00 00
	00 00 00 00 00
	00		 mov	 DWORD PTR ?XYposition@@3PAY06HA[eax+edx], 0
$LN5@ImmobileAn:

; 3021 : 			}
; 3022 : 		}
; 3023 : 	}

  00105	e9 24 ff ff ff	 jmp	 $LN2@ImmobileAn
$LN1@ImmobileAn:

; 3024 : }

  0010a	5f		 pop	 edi
  0010b	5e		 pop	 esi
  0010c	5b		 pop	 ebx
  0010d	81 c4 cc 00 00
	00		 add	 esp, 204		; 000000ccH
  00113	3b ec		 cmp	 ebp, esp
  00115	e8 00 00 00 00	 call	 __RTC_CheckEsp
  0011a	8b e5		 mov	 esp, ebp
  0011c	5d		 pop	 ebp
  0011d	c3		 ret	 0
?ImmobileAniRelease@@YAXXZ ENDP				; ImmobileAniRelease
_TEXT	ENDS
; Function compile flags: /Odtp /RTCsu /ZI
; File c:\users\administrator\desktop\????? ??\????? ??\client source code\system\field.cpp
;	COMDAT ?crossAniRelease@@YAXXZ
_TEXT	SEGMENT
?crossAniRelease@@YAXXZ PROC				; crossAniRelease, COMDAT

; 2996 : void crossAniRelease(){

  00000	55		 push	 ebp
  00001	8b ec		 mov	 ebp, esp
  00003	81 ec c0 00 00
	00		 sub	 esp, 192		; 000000c0H
  00009	53		 push	 ebx
  0000a	56		 push	 esi
  0000b	57		 push	 edi
  0000c	8d bd 40 ff ff
	ff		 lea	 edi, DWORD PTR [ebp-192]
  00012	b9 30 00 00 00	 mov	 ecx, 48			; 00000030H
  00017	b8 cc cc cc cc	 mov	 eax, -858993460		; ccccccccH
  0001c	f3 ab		 rep stosd

; 2997 : 	if (WaterAct2 != NULL){

  0001e	83 3d 00 00 00
	00 00		 cmp	 DWORD PTR ?WaterAct2@@3PAUaction@@A, 0
  00025	74 1f		 je	 SHORT $LN1@crossAniRe

; 2998 : 		DeathAction(WaterAct2);

  00027	a1 00 00 00 00	 mov	 eax, DWORD PTR ?WaterAct2@@3PAUaction@@A
  0002c	50		 push	 eax
  0002d	e8 00 00 00 00	 call	 ?DeathAction@@YAXPAUaction@@@Z ; DeathAction
  00032	83 c4 04	 add	 esp, 4

; 2999 : 		WaterAct2 = NULL;

  00035	c7 05 00 00 00
	00 00 00 00 00	 mov	 DWORD PTR ?WaterAct2@@3PAUaction@@A, 0

; 3000 : 		Timeflag2 = false;

  0003f	c6 05 00 00 00
	00 00		 mov	 BYTE PTR ?Timeflag2@@3_NA, 0 ; Timeflag2
$LN1@crossAniRe:

; 3001 : 	}
; 3002 : }

  00046	5f		 pop	 edi
  00047	5e		 pop	 esi
  00048	5b		 pop	 ebx
  00049	81 c4 c0 00 00
	00		 add	 esp, 192		; 000000c0H
  0004f	3b ec		 cmp	 ebp, esp
  00051	e8 00 00 00 00	 call	 __RTC_CheckEsp
  00056	8b e5		 mov	 esp, ebp
  00058	5d		 pop	 ebp
  00059	c3		 ret	 0
?crossAniRelease@@YAXXZ ENDP				; crossAniRelease
_TEXT	ENDS
; Function compile flags: /Odtp /RTCsu /ZI
; File c:\users\administrator\desktop\????? ??\????? ??\client source code\system\field.cpp
;	COMDAT ?leaderFuncWN@@YAXXZ
_TEXT	SEGMENT
_临时补X$1 = -1116					; size = 4
_selgraId$ = -1104					; size = 4
_selId$ = -1092						; size = 4
_buf$ = -1080						; size = 1024
_h$ = -48						; size = 4
_w$ = -36						; size = 4
_y$ = -24						; size = 4
_x$ = -12						; size = 4
__$ArrayPad$ = -4					; size = 4
?leaderFuncWN@@YAXXZ PROC				; leaderFuncWN, COMDAT

; 5223 : {

  00000	55		 push	 ebp
  00001	8b ec		 mov	 ebp, esp
  00003	81 ec a0 06 00
	00		 sub	 esp, 1696		; 000006a0H
  00009	53		 push	 ebx
  0000a	56		 push	 esi
  0000b	57		 push	 edi
  0000c	8d bd 60 f9 ff
	ff		 lea	 edi, DWORD PTR [ebp-1696]
  00012	b9 a8 01 00 00	 mov	 ecx, 424		; 000001a8H
  00017	b8 cc cc cc cc	 mov	 eax, -858993460		; ccccccccH
  0001c	f3 ab		 rep stosd
  0001e	a1 00 00 00 00	 mov	 eax, DWORD PTR ___security_cookie
  00023	33 c5		 xor	 eax, ebp
  00025	89 45 fc	 mov	 DWORD PTR __$ArrayPad$[ebp], eax

; 5224 : 	//static ACTION *ptActMenuWin = NULL;
; 5225 : 	int x, y, w, h;
; 5226 : 	static int btnId[9];
; 5227 : 	static int graId[1];
; 5228 : 	char buf[1024];
; 5229 : 	int selId;
; 5230 : 	int selgraId;
; 5231 : 
; 5232 : 	x = 160;

  00028	c7 45 f4 a0 00
	00 00		 mov	 DWORD PTR _x$[ebp], 160	; 000000a0H

; 5233 : 	y = 30;

  0002f	c7 45 e8 1e 00
	00 00		 mov	 DWORD PTR _y$[ebp], 30	; 0000001eH

; 5234 : 	w = 2;

  00036	c7 45 dc 02 00
	00 00		 mov	 DWORD PTR _w$[ebp], 2

; 5235 : 	h = 7;

  0003d	c7 45 d0 07 00
	00 00		 mov	 DWORD PTR _h$[ebp], 7

; 5236 : 
; 5237 : 	if (ptActLeaderFuncWin == NULL)

  00044	83 3d 00 00 00
	00 00		 cmp	 DWORD PTR ?ptActLeaderFuncWin@@3PAUaction@@A, 0
  0004b	75 3c		 jne	 SHORT $LN2@leaderFunc

; 5238 : 	{
; 5239 : 		ptActLeaderFuncWin = MakeWindowDisp(x, y, w, h, NULL, 1);

  0004d	6a 01		 push	 1
  0004f	6a 00		 push	 0
  00051	8b 45 d0	 mov	 eax, DWORD PTR _h$[ebp]
  00054	50		 push	 eax
  00055	8b 4d dc	 mov	 ecx, DWORD PTR _w$[ebp]
  00058	51		 push	 ecx
  00059	8b 55 e8	 mov	 edx, DWORD PTR _y$[ebp]
  0005c	52		 push	 edx
  0005d	8b 45 f4	 mov	 eax, DWORD PTR _x$[ebp]
  00060	50		 push	 eax
  00061	e8 00 00 00 00	 call	 ?MakeWindowDisp@@YAPAUaction@@HHHHHH@Z ; MakeWindowDisp
  00066	83 c4 18	 add	 esp, 24			; 00000018H
  00069	a3 00 00 00 00	 mov	 DWORD PTR ?ptActLeaderFuncWin@@3PAUaction@@A, eax

; 5240 : #ifdef _NEW_RESOMODE  //800 600妯″
; 5241 : 		x = ptActLeaderFuncWin->x;

  0006e	a1 00 00 00 00	 mov	 eax, DWORD PTR ?ptActLeaderFuncWin@@3PAUaction@@A
  00073	8b 48 18	 mov	 ecx, DWORD PTR [eax+24]
  00076	89 4d f4	 mov	 DWORD PTR _x$[ebp], ecx

; 5242 : 		y = ptActLeaderFuncWin->y;

  00079	a1 00 00 00 00	 mov	 eax, DWORD PTR ?ptActLeaderFuncWin@@3PAUaction@@A
  0007e	8b 48 1c	 mov	 ecx, DWORD PTR [eax+28]
  00081	89 4d e8	 mov	 DWORD PTR _y$[ebp], ecx
  00084	e9 00 06 00 00	 jmp	 $LN1@leaderFunc
$LN2@leaderFunc:

; 5243 : #endif
; 5244 : 	}
; 5245 : 	else if (ptActLeaderFuncWin->hp >= 1)

  00089	a1 00 00 00 00	 mov	 eax, DWORD PTR ?ptActLeaderFuncWin@@3PAUaction@@A
  0008e	83 78 78 01	 cmp	 DWORD PTR [eax+120], 1
  00092	0f 8c f1 05 00
	00		 jl	 $LN1@leaderFunc

; 5246 : 	{
; 5247 : 		// ESC????????
; 5248 : 		if (((joy_trg[0] & JOY_ESC) && GetImeString() == NULL))

  00098	b8 04 00 00 00	 mov	 eax, 4
  0009d	6b c8 00	 imul	 ecx, eax, 0
  000a0	8b 91 00 00 00
	00		 mov	 edx, DWORD PTR ?joy_trg@@3PAKA[ecx]
  000a6	81 e2 00 00 00
	80		 and	 edx, -2147483648	; 80000000H
  000ac	74 25		 je	 SHORT $LN5@leaderFunc
  000ae	e8 00 00 00 00	 call	 ?GetImeString@@YAPADXZ	; GetImeString
  000b3	85 c0		 test	 eax, eax
  000b5	75 1c		 jne	 SHORT $LN5@leaderFunc

; 5249 : 		{
; 5250 : 			closeJoinChannelWN();

  000b7	e8 00 00 00 00	 call	 ?closeJoinChannelWN@@YAXXZ ; closeJoinChannelWN

; 5251 : 			play_se(203, 320, 240);	// ????????

  000bc	68 f0 00 00 00	 push	 240			; 000000f0H
  000c1	68 40 01 00 00	 push	 320			; 00000140H
  000c6	68 cb 00 00 00	 push	 203			; 000000cbH
  000cb	e8 00 00 00 00	 call	 ?play_se@@YAHHHH@Z	; play_se
  000d0	83 c4 0c	 add	 esp, 12			; 0000000cH
$LN5@leaderFunc:

; 5252 : 		}
; 5253 : 		if (CheckMenuFlag())

  000d3	e8 00 00 00 00	 call	 ?CheckMenuFlag@@YAHXZ	; CheckMenuFlag
  000d8	85 c0		 test	 eax, eax
  000da	74 05		 je	 SHORT $LN6@leaderFunc

; 5254 : 			closeJoinChannelWN();

  000dc	e8 00 00 00 00	 call	 ?closeJoinChannelWN@@YAXXZ ; closeJoinChannelWN
$LN6@leaderFunc:

; 5255 : 
; 5256 : 		selId = focusFontId(btnId, sizeof(btnId) / sizeof(int));

  000e1	6a 09		 push	 9
  000e3	68 00 00 00 00	 push	 OFFSET ?btnId@?1??leaderFuncWN@@YAXXZ@4PAHA
  000e8	e8 00 00 00 00	 call	 ?focusFontId@@YAHPAHH@Z	; focusFontId
  000ed	83 c4 08	 add	 esp, 8
  000f0	89 85 bc fb ff
	ff		 mov	 DWORD PTR _selId$[ebp], eax

; 5257 : 		selgraId = focusGraId(graId, sizeof(graId) / sizeof(int));

  000f6	6a 01		 push	 1
  000f8	68 00 00 00 00	 push	 OFFSET ?graId@?1??leaderFuncWN@@YAXXZ@4PAHA
  000fd	e8 00 00 00 00	 call	 ?focusGraId@@YAHPAHH@Z	; focusGraId
  00102	83 c4 08	 add	 esp, 8
  00105	89 85 b0 fb ff
	ff		 mov	 DWORD PTR _selgraId$[ebp], eax

; 5258 : 				
; 5259 : 		if (mouse.onceState & MOUSE_LEFT_CRICK)

  0010b	a1 2c 00 00 00	 mov	 eax, DWORD PTR ?mouse@@3UMOUSE@@A+44
  00110	83 e0 01	 and	 eax, 1
  00113	0f 84 57 02 00
	00		 je	 $LN7@leaderFunc

; 5260 : 		{
; 5261 : 			if (selId == 1)

  00119	83 bd bc fb ff
	ff 01		 cmp	 DWORD PTR _selId$[ebp], 1
  00120	75 7a		 jne	 SHORT $LN8@leaderFunc

; 5262 : 			{
; 5263 : #ifdef _FMVER21
; 5264 : 				if (pc.familyleader != FMMEMBER_LEADER)

  00122	83 3d 08 51 00
	00 03		 cmp	 DWORD PTR ?pc@@3UPC@@A+20744, 3
  00129	74 05		 je	 SHORT $LN9@leaderFunc

; 5265 : #else
; 5266 : 				if (pc.familyleader != 1)
; 5267 : #endif
; 5268 : 					return;

  0012b	e9 59 05 00 00	 jmp	 $LN1@leaderFunc
$LN9@leaderFunc:

; 5269 : 				sprintf(buf, "C|J|5");

  00130	68 00 00 00 00	 push	 OFFSET ??_C@_05PAKAMAIL@C?$HMJ?$HM5?$AA@
  00135	8d 85 c8 fb ff
	ff		 lea	 eax, DWORD PTR _buf$[ebp]
  0013b	50		 push	 eax
  0013c	e8 00 00 00 00	 call	 _sprintf
  00141	83 c4 08	 add	 esp, 8

; 5270 : 				if (bNewServer)

  00144	83 3d 00 00 00
	00 00		 cmp	 DWORD PTR ?bNewServer@@3HA, 0 ; bNewServer
  0014b	74 18		 je	 SHORT $LN10@leaderFunc

; 5271 : 					lssproto_FM_send(sockfd, buf);

  0014d	8d 85 c8 fb ff
	ff		 lea	 eax, DWORD PTR _buf$[ebp]
  00153	50		 push	 eax
  00154	8b 0d 00 00 00
	00		 mov	 ecx, DWORD PTR ?sockfd@@3IA ; sockfd
  0015a	51		 push	 ecx
  0015b	e8 00 00 00 00	 call	 ?lssproto_FM_send@@YAXHPAD@Z ; lssproto_FM_send
  00160	83 c4 08	 add	 esp, 8

; 5272 : 				else

  00163	eb 16		 jmp	 SHORT $LN11@leaderFunc
$LN10@leaderFunc:

; 5273 : 					old_lssproto_FM_send(sockfd, buf);

  00165	8d 85 c8 fb ff
	ff		 lea	 eax, DWORD PTR _buf$[ebp]
  0016b	50		 push	 eax
  0016c	8b 0d 00 00 00
	00		 mov	 ecx, DWORD PTR ?sockfd@@3IA ; sockfd
  00172	51		 push	 ecx
  00173	e8 00 00 00 00	 call	 ?old_lssproto_FM_send@@YAXHPAD@Z ; old_lssproto_FM_send
  00178	83 c4 08	 add	 esp, 8
$LN11@leaderFunc:

; 5274 : 				closeJoinChannelWN();

  0017b	e8 00 00 00 00	 call	 ?closeJoinChannelWN@@YAXXZ ; closeJoinChannelWN

; 5275 : 				play_se(203, 320, 240);	// ????????

  00180	68 f0 00 00 00	 push	 240			; 000000f0H
  00185	68 40 01 00 00	 push	 320			; 00000140H
  0018a	68 cb 00 00 00	 push	 203			; 000000cbH
  0018f	e8 00 00 00 00	 call	 ?play_se@@YAHHHH@Z	; play_se
  00194	83 c4 0c	 add	 esp, 12			; 0000000cH

; 5276 : 				return;

  00197	e9 ed 04 00 00	 jmp	 $LN1@leaderFunc
$LN8@leaderFunc:

; 5277 : 			}
; 5278 : 			if (selId == 2)

  0019c	83 bd bc fb ff
	ff 02		 cmp	 DWORD PTR _selId$[ebp], 2
  001a3	75 6c		 jne	 SHORT $LN12@leaderFunc

; 5279 : 			{
; 5280 : 				sprintf(buf, "L|F|1");

  001a5	68 00 00 00 00	 push	 OFFSET ??_C@_05CPEMAIOC@L?$HMF?$HM1?$AA@
  001aa	8d 85 c8 fb ff
	ff		 lea	 eax, DWORD PTR _buf$[ebp]
  001b0	50		 push	 eax
  001b1	e8 00 00 00 00	 call	 _sprintf
  001b6	83 c4 08	 add	 esp, 8

; 5281 : 				if (bNewServer)

  001b9	83 3d 00 00 00
	00 00		 cmp	 DWORD PTR ?bNewServer@@3HA, 0 ; bNewServer
  001c0	74 18		 je	 SHORT $LN13@leaderFunc

; 5282 : 					lssproto_FM_send(sockfd, buf);

  001c2	8d 85 c8 fb ff
	ff		 lea	 eax, DWORD PTR _buf$[ebp]
  001c8	50		 push	 eax
  001c9	8b 0d 00 00 00
	00		 mov	 ecx, DWORD PTR ?sockfd@@3IA ; sockfd
  001cf	51		 push	 ecx
  001d0	e8 00 00 00 00	 call	 ?lssproto_FM_send@@YAXHPAD@Z ; lssproto_FM_send
  001d5	83 c4 08	 add	 esp, 8

; 5283 : 				else

  001d8	eb 16		 jmp	 SHORT $LN14@leaderFunc
$LN13@leaderFunc:

; 5284 : 					old_lssproto_FM_send(sockfd, buf);

  001da	8d 85 c8 fb ff
	ff		 lea	 eax, DWORD PTR _buf$[ebp]
  001e0	50		 push	 eax
  001e1	8b 0d 00 00 00
	00		 mov	 ecx, DWORD PTR ?sockfd@@3IA ; sockfd
  001e7	51		 push	 ecx
  001e8	e8 00 00 00 00	 call	 ?old_lssproto_FM_send@@YAXHPAD@Z ; old_lssproto_FM_send
  001ed	83 c4 08	 add	 esp, 8
$LN14@leaderFunc:

; 5285 : 				closeJoinChannelWN();

  001f0	e8 00 00 00 00	 call	 ?closeJoinChannelWN@@YAXXZ ; closeJoinChannelWN

; 5286 : 				play_se(203, 320, 240);	// ????????

  001f5	68 f0 00 00 00	 push	 240			; 000000f0H
  001fa	68 40 01 00 00	 push	 320			; 00000140H
  001ff	68 cb 00 00 00	 push	 203			; 000000cbH
  00204	e8 00 00 00 00	 call	 ?play_se@@YAHHHH@Z	; play_se
  00209	83 c4 0c	 add	 esp, 12			; 0000000cH

; 5287 : 				return;

  0020c	e9 78 04 00 00	 jmp	 $LN1@leaderFunc
$LN12@leaderFunc:

; 5288 : 			}
; 5289 : 
; 5290 : 			if (selId == 3)

  00211	83 bd bc fb ff
	ff 03		 cmp	 DWORD PTR _selId$[ebp], 3
  00218	75 6c		 jne	 SHORT $LN15@leaderFunc

; 5291 : 			{
; 5292 : 				sprintf(buf, "L|L|1");

  0021a	68 00 00 00 00	 push	 OFFSET ??_C@_05EAPBOIIG@L?$HML?$HM1?$AA@
  0021f	8d 85 c8 fb ff
	ff		 lea	 eax, DWORD PTR _buf$[ebp]
  00225	50		 push	 eax
  00226	e8 00 00 00 00	 call	 _sprintf
  0022b	83 c4 08	 add	 esp, 8

; 5293 : 				if (bNewServer)

  0022e	83 3d 00 00 00
	00 00		 cmp	 DWORD PTR ?bNewServer@@3HA, 0 ; bNewServer
  00235	74 18		 je	 SHORT $LN16@leaderFunc

; 5294 : 					lssproto_FM_send(sockfd, buf);

  00237	8d 85 c8 fb ff
	ff		 lea	 eax, DWORD PTR _buf$[ebp]
  0023d	50		 push	 eax
  0023e	8b 0d 00 00 00
	00		 mov	 ecx, DWORD PTR ?sockfd@@3IA ; sockfd
  00244	51		 push	 ecx
  00245	e8 00 00 00 00	 call	 ?lssproto_FM_send@@YAXHPAD@Z ; lssproto_FM_send
  0024a	83 c4 08	 add	 esp, 8

; 5295 : 				else

  0024d	eb 16		 jmp	 SHORT $LN17@leaderFunc
$LN16@leaderFunc:

; 5296 : 					old_lssproto_FM_send(sockfd, buf);

  0024f	8d 85 c8 fb ff
	ff		 lea	 eax, DWORD PTR _buf$[ebp]
  00255	50		 push	 eax
  00256	8b 0d 00 00 00
	00		 mov	 ecx, DWORD PTR ?sockfd@@3IA ; sockfd
  0025c	51		 push	 ecx
  0025d	e8 00 00 00 00	 call	 ?old_lssproto_FM_send@@YAXHPAD@Z ; old_lssproto_FM_send
  00262	83 c4 08	 add	 esp, 8
$LN17@leaderFunc:

; 5297 : 				closeJoinChannelWN();

  00265	e8 00 00 00 00	 call	 ?closeJoinChannelWN@@YAXXZ ; closeJoinChannelWN

; 5298 : 				play_se(203, 320, 240);	// ????????

  0026a	68 f0 00 00 00	 push	 240			; 000000f0H
  0026f	68 40 01 00 00	 push	 320			; 00000140H
  00274	68 cb 00 00 00	 push	 203			; 000000cbH
  00279	e8 00 00 00 00	 call	 ?play_se@@YAHHHH@Z	; play_se
  0027e	83 c4 0c	 add	 esp, 12			; 0000000cH

; 5299 : 				return;

  00281	e9 03 04 00 00	 jmp	 $LN1@leaderFunc
$LN15@leaderFunc:

; 5300 : 			}
; 5301 : 			if (selId == 4)

  00286	83 bd bc fb ff
	ff 04		 cmp	 DWORD PTR _selId$[ebp], 4
  0028d	75 6c		 jne	 SHORT $LN18@leaderFunc

; 5302 : 			{
; 5303 : 				sprintf(buf, "L|L|2");

  0028f	68 00 00 00 00	 push	 OFFSET ??_C@_05GLNMLLEF@L?$HML?$HM2?$AA@
  00294	8d 85 c8 fb ff
	ff		 lea	 eax, DWORD PTR _buf$[ebp]
  0029a	50		 push	 eax
  0029b	e8 00 00 00 00	 call	 _sprintf
  002a0	83 c4 08	 add	 esp, 8

; 5304 : 				if (bNewServer)

  002a3	83 3d 00 00 00
	00 00		 cmp	 DWORD PTR ?bNewServer@@3HA, 0 ; bNewServer
  002aa	74 18		 je	 SHORT $LN19@leaderFunc

; 5305 : 					lssproto_FM_send(sockfd, buf);

  002ac	8d 85 c8 fb ff
	ff		 lea	 eax, DWORD PTR _buf$[ebp]
  002b2	50		 push	 eax
  002b3	8b 0d 00 00 00
	00		 mov	 ecx, DWORD PTR ?sockfd@@3IA ; sockfd
  002b9	51		 push	 ecx
  002ba	e8 00 00 00 00	 call	 ?lssproto_FM_send@@YAXHPAD@Z ; lssproto_FM_send
  002bf	83 c4 08	 add	 esp, 8

; 5306 : 				else

  002c2	eb 16		 jmp	 SHORT $LN20@leaderFunc
$LN19@leaderFunc:

; 5307 : 					old_lssproto_FM_send(sockfd, buf);

  002c4	8d 85 c8 fb ff
	ff		 lea	 eax, DWORD PTR _buf$[ebp]
  002ca	50		 push	 eax
  002cb	8b 0d 00 00 00
	00		 mov	 ecx, DWORD PTR ?sockfd@@3IA ; sockfd
  002d1	51		 push	 ecx
  002d2	e8 00 00 00 00	 call	 ?old_lssproto_FM_send@@YAXHPAD@Z ; old_lssproto_FM_send
  002d7	83 c4 08	 add	 esp, 8
$LN20@leaderFunc:

; 5308 : 				closeJoinChannelWN();

  002da	e8 00 00 00 00	 call	 ?closeJoinChannelWN@@YAXXZ ; closeJoinChannelWN

; 5309 : 				play_se(203, 320, 240);	// ????????

  002df	68 f0 00 00 00	 push	 240			; 000000f0H
  002e4	68 40 01 00 00	 push	 320			; 00000140H
  002e9	68 cb 00 00 00	 push	 203			; 000000cbH
  002ee	e8 00 00 00 00	 call	 ?play_se@@YAHHHH@Z	; play_se
  002f3	83 c4 0c	 add	 esp, 12			; 0000000cH

; 5310 : 				return;

  002f6	e9 8e 03 00 00	 jmp	 $LN1@leaderFunc
$LN18@leaderFunc:

; 5311 : 			}
; 5312 : 
; 5313 : 			if (selId == 5)

  002fb	83 bd bc fb ff
	ff 05		 cmp	 DWORD PTR _selId$[ebp], 5
  00302	75 6c		 jne	 SHORT $LN7@leaderFunc

; 5314 : 			{
; 5315 : 				sprintf(buf, "L|CHANGE|L");

  00304	68 00 00 00 00	 push	 OFFSET ??_C@_0L@CJCIOOAN@L?$HMCHANGE?$HML?$AA@
  00309	8d 85 c8 fb ff
	ff		 lea	 eax, DWORD PTR _buf$[ebp]
  0030f	50		 push	 eax
  00310	e8 00 00 00 00	 call	 _sprintf
  00315	83 c4 08	 add	 esp, 8

; 5316 : 				if (bNewServer)

  00318	83 3d 00 00 00
	00 00		 cmp	 DWORD PTR ?bNewServer@@3HA, 0 ; bNewServer
  0031f	74 18		 je	 SHORT $LN22@leaderFunc

; 5317 : 					lssproto_FM_send(sockfd, buf);

  00321	8d 85 c8 fb ff
	ff		 lea	 eax, DWORD PTR _buf$[ebp]
  00327	50		 push	 eax
  00328	8b 0d 00 00 00
	00		 mov	 ecx, DWORD PTR ?sockfd@@3IA ; sockfd
  0032e	51		 push	 ecx
  0032f	e8 00 00 00 00	 call	 ?lssproto_FM_send@@YAXHPAD@Z ; lssproto_FM_send
  00334	83 c4 08	 add	 esp, 8

; 5318 : 				else

  00337	eb 16		 jmp	 SHORT $LN23@leaderFunc
$LN22@leaderFunc:

; 5319 : 					old_lssproto_FM_send(sockfd, buf);

  00339	8d 85 c8 fb ff
	ff		 lea	 eax, DWORD PTR _buf$[ebp]
  0033f	50		 push	 eax
  00340	8b 0d 00 00 00
	00		 mov	 ecx, DWORD PTR ?sockfd@@3IA ; sockfd
  00346	51		 push	 ecx
  00347	e8 00 00 00 00	 call	 ?old_lssproto_FM_send@@YAXHPAD@Z ; old_lssproto_FM_send
  0034c	83 c4 08	 add	 esp, 8
$LN23@leaderFunc:

; 5320 : 				closeJoinChannelWN();

  0034f	e8 00 00 00 00	 call	 ?closeJoinChannelWN@@YAXXZ ; closeJoinChannelWN

; 5321 : 				play_se(203, 320, 240);	// ????????

  00354	68 f0 00 00 00	 push	 240			; 000000f0H
  00359	68 40 01 00 00	 push	 320			; 00000140H
  0035e	68 cb 00 00 00	 push	 203			; 000000cbH
  00363	e8 00 00 00 00	 call	 ?play_se@@YAHHHH@Z	; play_se
  00368	83 c4 0c	 add	 esp, 12			; 0000000cH

; 5322 : 				return;

  0036b	e9 19 03 00 00	 jmp	 $LN1@leaderFunc
$LN7@leaderFunc:

; 5323 : 			}
; 5324 : #ifdef	_ADD_FAMILY_TAX		// WON ADD 澧搴绋
; 5325 : 			if (selId == 6) 
; 5326 : 			{
; 5327 : 				sprintf(buf, "L|FMTAX|W");
; 5328 : 				if (bNewServer)
; 5329 : 					lssproto_FM_send(sockfd, buf);
; 5330 : 				else
; 5331 : 					old_lssproto_FM_send(sockfd, buf);
; 5332 : 				closeJoinChannelWN();
; 5333 : 				play_se(203, 320, 240);	// ????????
; 5334 : 				return;
; 5335 : 			}
; 5336 : #endif
; 5337 : 		}
; 5338 : 		int 涓存惰ˉX = 0;

  00370	c7 85 a4 fb ff
	ff 00 00 00 00	 mov	 DWORD PTR _临时补X$1[ebp], 0

; 5339 : 		if (ResoMode == 杈ㄧ::mode800){

  0037a	83 3d 00 00 00
	00 03		 cmp	 DWORD PTR ?ResoMode@@3HA, 3 ; ResoMode
  00381	75 0c		 jne	 SHORT $LN24@leaderFunc

; 5340 : 			涓存惰ˉX = 80;

  00383	c7 85 a4 fb ff
	ff 50 00 00 00	 mov	 DWORD PTR _临时补X$1[ebp], 80 ; 00000050H
  0038d	eb 13		 jmp	 SHORT $LN25@leaderFunc
$LN24@leaderFunc:

; 5341 : 		}else if (ResoMode == 杈ㄧ::mode1024){

  0038f	83 3d 00 00 00
	00 04		 cmp	 DWORD PTR ?ResoMode@@3HA, 4 ; ResoMode
  00396	75 0a		 jne	 SHORT $LN25@leaderFunc

; 5342 : 			涓存惰ˉX = 190;

  00398	c7 85 a4 fb ff
	ff be 00 00 00	 mov	 DWORD PTR _临时补X$1[ebp], 190 ; 000000beH
$LN25@leaderFunc:

; 5343 : 		}
; 5344 : #ifdef _FMVER21
; 5345 : 		if (pc.familyleader == FMMEMBER_LEADER)

  003a2	83 3d 08 51 00
	00 03		 cmp	 DWORD PTR ?pc@@3UPC@@A+20744, 3
  003a9	0f 85 54 01 00
	00		 jne	 $LN27@leaderFunc

; 5346 : #else
; 5347 : 		if (pc.familyleader == 1)
; 5348 : #endif
; 5349 : 		{
; 5350 : 			if (pc.channel == 5)

  003af	83 3d 0c 51 00
	00 05		 cmp	 DWORD PTR ?pc@@3UPC@@A+20748, 5
  003b6	75 38		 jne	 SHORT $LN28@leaderFunc

; 5351 : 				btnId[1] = StockFontBuffer(x + 涓存惰ˉX + 22, y + 65 + 36 * 0, FONT_PRIO_FRONT, FONT_PAL_YELLOW, "  臁膘ル癌  ", 2);

  003b8	6a 02		 push	 2
  003ba	68 00 00 00 00	 push	 OFFSET ??_C@_0N@NIGFCJOO@?5?5?A?$LH?$MA?e?$LJ?f?$LM?$NL?5?5?$AA@
  003bf	6a 04		 push	 4
  003c1	6a 01		 push	 1
  003c3	8b 45 e8	 mov	 eax, DWORD PTR _y$[ebp]
  003c6	83 c0 41	 add	 eax, 65			; 00000041H
  003c9	50		 push	 eax
  003ca	8b 8d a4 fb ff
	ff		 mov	 ecx, DWORD PTR _临时补X$1[ebp]
  003d0	8b 55 f4	 mov	 edx, DWORD PTR _x$[ebp]
  003d3	8d 44 0a 16	 lea	 eax, DWORD PTR [edx+ecx+22]
  003d7	50		 push	 eax
  003d8	e8 00 00 00 00	 call	 ?StockFontBuffer@@YAHHHDHPADH@Z ; StockFontBuffer
  003dd	83 c4 18	 add	 esp, 24			; 00000018H
  003e0	b9 04 00 00 00	 mov	 ecx, 4
  003e5	c1 e1 00	 shl	 ecx, 0
  003e8	89 81 00 00 00
	00		 mov	 DWORD PTR ?btnId@?1??leaderFuncWN@@YAXXZ@4PAHA[ecx], eax

; 5352 : 			else

  003ee	eb 36		 jmp	 SHORT $LN29@leaderFunc
$LN28@leaderFunc:

; 5353 : 				btnId[1] = StockFontBuffer(x + 涓存惰ˉX + 22, y + 65 + 36 * 0, FONT_PRIO_FRONT, FONT_PAL_WHITE, "  臁膘ル癌  ", 2);

  003f0	6a 02		 push	 2
  003f2	68 00 00 00 00	 push	 OFFSET ??_C@_0N@NIGFCJOO@?5?5?A?$LH?$MA?e?$LJ?f?$LM?$NL?5?5?$AA@
  003f7	6a 00		 push	 0
  003f9	6a 01		 push	 1
  003fb	8b 45 e8	 mov	 eax, DWORD PTR _y$[ebp]
  003fe	83 c0 41	 add	 eax, 65			; 00000041H
  00401	50		 push	 eax
  00402	8b 8d a4 fb ff
	ff		 mov	 ecx, DWORD PTR _临时补X$1[ebp]
  00408	8b 55 f4	 mov	 edx, DWORD PTR _x$[ebp]
  0040b	8d 44 0a 16	 lea	 eax, DWORD PTR [edx+ecx+22]
  0040f	50		 push	 eax
  00410	e8 00 00 00 00	 call	 ?StockFontBuffer@@YAHHHDHPADH@Z ; StockFontBuffer
  00415	83 c4 18	 add	 esp, 24			; 00000018H
  00418	b9 04 00 00 00	 mov	 ecx, 4
  0041d	c1 e1 00	 shl	 ecx, 0
  00420	89 81 00 00 00
	00		 mov	 DWORD PTR ?btnId@?1??leaderFuncWN@@YAXXZ@4PAHA[ecx], eax
$LN29@leaderFunc:

; 5354 : 
; 5355 : 			btnId[2] = StockFontBuffer(x + 涓存惰ˉX + 22, y + 65 + 36 * 1, FONT_PRIO_FRONT, FONT_PAL_WHITE, "攵臁标惮膘甏毽", 2);

  00426	6a 02		 push	 2
  00428	68 00 00 00 00	 push	 OFFSET ??_C@_0P@OGFFOIDE@?$LK?N?A?$LH?$LB?$LI?$LM?$LK?$LP?x?$LA?$PM?$LI?$KO?$AA@
  0042d	6a 00		 push	 0
  0042f	6a 01		 push	 1
  00431	8b 45 e8	 mov	 eax, DWORD PTR _y$[ebp]
  00434	83 c0 65	 add	 eax, 101		; 00000065H
  00437	50		 push	 eax
  00438	8b 8d a4 fb ff
	ff		 mov	 ecx, DWORD PTR _临时补X$1[ebp]
  0043e	8b 55 f4	 mov	 edx, DWORD PTR _x$[ebp]
  00441	8d 44 0a 16	 lea	 eax, DWORD PTR [edx+ecx+22]
  00445	50		 push	 eax
  00446	e8 00 00 00 00	 call	 ?StockFontBuffer@@YAHHHDHPADH@Z ; StockFontBuffer
  0044b	83 c4 18	 add	 esp, 24			; 00000018H
  0044e	b9 04 00 00 00	 mov	 ecx, 4
  00453	d1 e1		 shl	 ecx, 1
  00455	89 81 00 00 00
	00		 mov	 DWORD PTR ?btnId@?1??leaderFuncWN@@YAXXZ@4PAHA[ecx], eax

; 5356 : 
; 5357 : 			btnId[3] = StockFontBuffer(x + 涓存惰ˉX + 22, y + 65 + 36 * 2, FONT_PRIO_FRONT, FONT_PAL_WHITE, " 攵臁膘 ", 2);

  0045b	6a 02		 push	 2
  0045d	68 00 00 00 00	 push	 OFFSET ??_C@_0L@DOBBGKCH@?5?$LK?N?A?$LH?C?J?$LE?k?5?$AA@
  00462	6a 00		 push	 0
  00464	6a 01		 push	 1
  00466	8b 45 e8	 mov	 eax, DWORD PTR _y$[ebp]
  00469	05 89 00 00 00	 add	 eax, 137		; 00000089H
  0046e	50		 push	 eax
  0046f	8b 8d a4 fb ff
	ff		 mov	 ecx, DWORD PTR _临时补X$1[ebp]
  00475	8b 55 f4	 mov	 edx, DWORD PTR _x$[ebp]
  00478	8d 44 0a 16	 lea	 eax, DWORD PTR [edx+ecx+22]
  0047c	50		 push	 eax
  0047d	e8 00 00 00 00	 call	 ?StockFontBuffer@@YAHHHDHPADH@Z ; StockFontBuffer
  00482	83 c4 18	 add	 esp, 24			; 00000018H
  00485	b9 04 00 00 00	 mov	 ecx, 4
  0048a	6b d1 03	 imul	 edx, ecx, 3
  0048d	89 82 00 00 00
	00		 mov	 DWORD PTR ?btnId@?1??leaderFuncWN@@YAXXZ@4PAHA[edx], eax

; 5358 : 			btnId[4] = StockFontBuffer(x + 涓存惰ˉX + 22, y + 65 + 36 * 3, FONT_PRIO_FRONT, FONT_PAL_WHITE, " 瓣惮 ", 2);

  00493	6a 02		 push	 2
  00495	68 00 00 00 00	 push	 OFFSET ??_C@_0L@MJPGOABE@?5?$LP?$KM?$LB?$LI?$LF?$LP?$MA?G?5?$AA@
  0049a	6a 00		 push	 0
  0049c	6a 01		 push	 1
  0049e	8b 45 e8	 mov	 eax, DWORD PTR _y$[ebp]
  004a1	05 ad 00 00 00	 add	 eax, 173		; 000000adH
  004a6	50		 push	 eax
  004a7	8b 8d a4 fb ff
	ff		 mov	 ecx, DWORD PTR _临时补X$1[ebp]
  004ad	8b 55 f4	 mov	 edx, DWORD PTR _x$[ebp]
  004b0	8d 44 0a 16	 lea	 eax, DWORD PTR [edx+ecx+22]
  004b4	50		 push	 eax
  004b5	e8 00 00 00 00	 call	 ?StockFontBuffer@@YAHHHDHPADH@Z ; StockFontBuffer
  004ba	83 c4 18	 add	 esp, 24			; 00000018H
  004bd	b9 04 00 00 00	 mov	 ecx, 4
  004c2	c1 e1 02	 shl	 ecx, 2
  004c5	89 81 00 00 00
	00		 mov	 DWORD PTR ?btnId@?1??leaderFuncWN@@YAXXZ@4PAHA[ecx], eax

; 5359 : 			btnId[5] = StockFontBuffer(x + 涓存惰ˉX + 22, y + 65 + 36 * 4, FONT_PRIO_FRONT, FONT_PAL_WHITE, "  臁膘リ攵  ", 2);

  004cb	6a 02		 push	 2
  004cd	68 00 00 00 00	 push	 OFFSET ??_C@_0BB@BPLOID@?5?5?A?$LH?$MA?e?$LB?G?G?Q?$LK?N?$LP?$KJ?5?5?$AA@
  004d2	6a 00		 push	 0
  004d4	6a 01		 push	 1
  004d6	8b 45 e8	 mov	 eax, DWORD PTR _y$[ebp]
  004d9	05 d1 00 00 00	 add	 eax, 209		; 000000d1H
  004de	50		 push	 eax
  004df	8b 8d a4 fb ff
	ff		 mov	 ecx, DWORD PTR _临时补X$1[ebp]
  004e5	8b 55 f4	 mov	 edx, DWORD PTR _x$[ebp]
  004e8	8d 44 0a 16	 lea	 eax, DWORD PTR [edx+ecx+22]
  004ec	50		 push	 eax
  004ed	e8 00 00 00 00	 call	 ?StockFontBuffer@@YAHHHDHPADH@Z ; StockFontBuffer
  004f2	83 c4 18	 add	 esp, 24			; 00000018H
  004f5	b9 04 00 00 00	 mov	 ecx, 4
  004fa	6b d1 05	 imul	 edx, ecx, 5
  004fd	89 82 00 00 00
	00		 mov	 DWORD PTR ?btnId@?1??leaderFuncWN@@YAXXZ@4PAHA[edx], eax
$LN27@leaderFunc:

; 5360 : #ifdef	_ADD_FAMILY_TAX		// WON ADD 澧搴绋
; 5361 : 			btnId[6] = StockFontBuffer(x + 涓存惰ˉX + 22, y + 65 + 36 * 5, FONT_PRIO_FRONT, FONT_PAL_WHITE, "办胳臁办", 2);
; 5362 : #endif
; 5363 : 		}
; 5364 : // shan begin
; 5365 : #ifdef _FMVER21
; 5366 : 		if (pc.familyleader == FMMEMBER_ELDER)

  00503	83 3d 08 51 00
	00 04		 cmp	 DWORD PTR ?pc@@3UPC@@A+20744, 4
  0050a	0f 85 13 01 00
	00		 jne	 $LN30@leaderFunc

; 5367 : 		{
; 5368 : 			btnId[1] = StockFontBuffer(x + 涓存惰ˉX + 22, y + 65 + 36 * 0, FONT_PRIO_FRONT, FONT_PAL_GRAY, "  臁膘ル癌  ", 0);

  00510	6a 00		 push	 0
  00512	68 00 00 00 00	 push	 OFFSET ??_C@_0N@NIGFCJOO@?5?5?A?$LH?$MA?e?$LJ?f?$LM?$NL?5?5?$AA@
  00517	6a 07		 push	 7
  00519	6a 01		 push	 1
  0051b	8b 45 e8	 mov	 eax, DWORD PTR _y$[ebp]
  0051e	83 c0 41	 add	 eax, 65			; 00000041H
  00521	50		 push	 eax
  00522	8b 8d a4 fb ff
	ff		 mov	 ecx, DWORD PTR _临时补X$1[ebp]
  00528	8b 55 f4	 mov	 edx, DWORD PTR _x$[ebp]
  0052b	8d 44 0a 16	 lea	 eax, DWORD PTR [edx+ecx+22]
  0052f	50		 push	 eax
  00530	e8 00 00 00 00	 call	 ?StockFontBuffer@@YAHHHDHPADH@Z ; StockFontBuffer
  00535	83 c4 18	 add	 esp, 24			; 00000018H
  00538	b9 04 00 00 00	 mov	 ecx, 4
  0053d	c1 e1 00	 shl	 ecx, 0
  00540	89 81 00 00 00
	00		 mov	 DWORD PTR ?btnId@?1??leaderFuncWN@@YAXXZ@4PAHA[ecx], eax

; 5369 : 			btnId[2] = StockFontBuffer(x + 涓存惰ˉX + 22, y + 65 + 36 * 1, FONT_PRIO_FRONT, FONT_PAL_WHITE, "攵臁标惮膘甏毽", 2);

  00546	6a 02		 push	 2
  00548	68 00 00 00 00	 push	 OFFSET ??_C@_0P@OGFFOIDE@?$LK?N?A?$LH?$LB?$LI?$LM?$LK?$LP?x?$LA?$PM?$LI?$KO?$AA@
  0054d	6a 00		 push	 0
  0054f	6a 01		 push	 1
  00551	8b 45 e8	 mov	 eax, DWORD PTR _y$[ebp]
  00554	83 c0 65	 add	 eax, 101		; 00000065H
  00557	50		 push	 eax
  00558	8b 8d a4 fb ff
	ff		 mov	 ecx, DWORD PTR _临时补X$1[ebp]
  0055e	8b 55 f4	 mov	 edx, DWORD PTR _x$[ebp]
  00561	8d 44 0a 16	 lea	 eax, DWORD PTR [edx+ecx+22]
  00565	50		 push	 eax
  00566	e8 00 00 00 00	 call	 ?StockFontBuffer@@YAHHHDHPADH@Z ; StockFontBuffer
  0056b	83 c4 18	 add	 esp, 24			; 00000018H
  0056e	b9 04 00 00 00	 mov	 ecx, 4
  00573	d1 e1		 shl	 ecx, 1
  00575	89 81 00 00 00
	00		 mov	 DWORD PTR ?btnId@?1??leaderFuncWN@@YAXXZ@4PAHA[ecx], eax

; 5370 : 
; 5371 : 			btnId[3] = StockFontBuffer(x + 涓存惰ˉX + 22, y + 65 + 36 * 2, FONT_PRIO_FRONT, FONT_PAL_WHITE, " 攵臁膘 ", 2);

  0057b	6a 02		 push	 2
  0057d	68 00 00 00 00	 push	 OFFSET ??_C@_0L@DOBBGKCH@?5?$LK?N?A?$LH?C?J?$LE?k?5?$AA@
  00582	6a 00		 push	 0
  00584	6a 01		 push	 1
  00586	8b 45 e8	 mov	 eax, DWORD PTR _y$[ebp]
  00589	05 89 00 00 00	 add	 eax, 137		; 00000089H
  0058e	50		 push	 eax
  0058f	8b 8d a4 fb ff
	ff		 mov	 ecx, DWORD PTR _临时补X$1[ebp]
  00595	8b 55 f4	 mov	 edx, DWORD PTR _x$[ebp]
  00598	8d 44 0a 16	 lea	 eax, DWORD PTR [edx+ecx+22]
  0059c	50		 push	 eax
  0059d	e8 00 00 00 00	 call	 ?StockFontBuffer@@YAHHHDHPADH@Z ; StockFontBuffer
  005a2	83 c4 18	 add	 esp, 24			; 00000018H
  005a5	b9 04 00 00 00	 mov	 ecx, 4
  005aa	6b d1 03	 imul	 edx, ecx, 3
  005ad	89 82 00 00 00
	00		 mov	 DWORD PTR ?btnId@?1??leaderFuncWN@@YAXXZ@4PAHA[edx], eax

; 5372 : 			btnId[4] = StockFontBuffer(x + 涓存惰ˉX + 22, y + 65 + 36 * 3, FONT_PRIO_FRONT, FONT_PAL_WHITE, " 瓣惮 ", 2);

  005b3	6a 02		 push	 2
  005b5	68 00 00 00 00	 push	 OFFSET ??_C@_0L@MJPGOABE@?5?$LP?$KM?$LB?$LI?$LF?$LP?$MA?G?5?$AA@
  005ba	6a 00		 push	 0
  005bc	6a 01		 push	 1
  005be	8b 45 e8	 mov	 eax, DWORD PTR _y$[ebp]
  005c1	05 ad 00 00 00	 add	 eax, 173		; 000000adH
  005c6	50		 push	 eax
  005c7	8b 8d a4 fb ff
	ff		 mov	 ecx, DWORD PTR _临时补X$1[ebp]
  005cd	8b 55 f4	 mov	 edx, DWORD PTR _x$[ebp]
  005d0	8d 44 0a 16	 lea	 eax, DWORD PTR [edx+ecx+22]
  005d4	50		 push	 eax
  005d5	e8 00 00 00 00	 call	 ?StockFontBuffer@@YAHHHDHPADH@Z ; StockFontBuffer
  005da	83 c4 18	 add	 esp, 24			; 00000018H
  005dd	b9 04 00 00 00	 mov	 ecx, 4
  005e2	c1 e1 02	 shl	 ecx, 2
  005e5	89 81 00 00 00
	00		 mov	 DWORD PTR ?btnId@?1??leaderFuncWN@@YAXXZ@4PAHA[ecx], eax

; 5373 : 			btnId[5] = StockFontBuffer(x + 涓存惰ˉX + 22, y + 65 + 36 * 4, FONT_PRIO_FRONT, FONT_PAL_GRAY, "  臁膘リ攵  ", 0);

  005eb	6a 00		 push	 0
  005ed	68 00 00 00 00	 push	 OFFSET ??_C@_0BB@BPLOID@?5?5?A?$LH?$MA?e?$LB?G?G?Q?$LK?N?$LP?$KJ?5?5?$AA@
  005f2	6a 07		 push	 7
  005f4	6a 01		 push	 1
  005f6	8b 45 e8	 mov	 eax, DWORD PTR _y$[ebp]
  005f9	05 d1 00 00 00	 add	 eax, 209		; 000000d1H
  005fe	50		 push	 eax
  005ff	8b 8d a4 fb ff
	ff		 mov	 ecx, DWORD PTR _临时补X$1[ebp]
  00605	8b 55 f4	 mov	 edx, DWORD PTR _x$[ebp]
  00608	8d 44 0a 16	 lea	 eax, DWORD PTR [edx+ecx+22]
  0060c	50		 push	 eax
  0060d	e8 00 00 00 00	 call	 ?StockFontBuffer@@YAHHHDHPADH@Z ; StockFontBuffer
  00612	83 c4 18	 add	 esp, 24			; 00000018H
  00615	b9 04 00 00 00	 mov	 ecx, 4
  0061a	6b d1 05	 imul	 edx, ecx, 5
  0061d	89 82 00 00 00
	00		 mov	 DWORD PTR ?btnId@?1??leaderFuncWN@@YAXXZ@4PAHA[edx], eax
$LN30@leaderFunc:

; 5374 : 
; 5375 : #ifdef	_ADD_FAMILY_TAX		// WON ADD 澧搴绋
; 5376 : 			btnId[6] = StockFontBuffer(x + 涓存惰ˉX + 22, y + 65 + 36 * 5, FONT_PRIO_FRONT, FONT_PAL_GRAY, "  办胳臁办  ", 0);
; 5377 : #endif
; 5378 : 		}
; 5379 : #endif
; 5380 : // shan end
; 5381 : 		if (selId == 1)

  00623	83 bd bc fb ff
	ff 01		 cmp	 DWORD PTR _selId$[ebp], 1
  0062a	75 11		 jne	 SHORT $LN31@leaderFunc

; 5382 : 			ShowBottomLineString(FONT_PAL_WHITE, "臁膘レ 攵臁膘觳挫瓴 瓿奠╇ゃ");

  0062c	68 00 00 00 00	 push	 OFFSET ??_C@_0CD@LJIHMIMO@?A?$LH?$MA?e?$MA?$LK?5?$LK?N?A?$LH?$LP?x?$MA?$PM?C?$LM?$LP?$KB?$LA?T?5?$LA?x?A?v?G?U?$LE?O?$LE?Y@
  00631	6a 00		 push	 0
  00633	e8 00 00 00 00	 call	 ?ShowBottomLineString@@YAXHPAD@Z ; ShowBottomLineString
  00638	83 c4 08	 add	 esp, 8
  0063b	eb 4c		 jmp	 SHORT $LN1@leaderFunc
$LN31@leaderFunc:

; 5383 : 		else if (selId == 2)

  0063d	83 bd bc fb ff
	ff 02		 cmp	 DWORD PTR _selId$[ebp], 2
  00644	75 11		 jne	 SHORT $LN33@leaderFunc

; 5384 : 			ShowBottomLineString(FONT_PAL_WHITE, "攵臁标惮膘氇╇");

  00646	68 00 00 00 00	 push	 OFFSET ??_C@_0BB@MGNAPNJL@?$LK?N?A?$LH?$LB?$LI?$LM?$LK?$LP?x?$LI?q?$LH?O?$KB?$KD?$AA@
  0064b	6a 00		 push	 0
  0064d	e8 00 00 00 00	 call	 ?ShowBottomLineString@@YAXHPAD@Z ; ShowBottomLineString
  00652	83 c4 08	 add	 esp, 8
  00655	eb 32		 jmp	 SHORT $LN1@leaderFunc
$LN33@leaderFunc:

; 5385 : 		else if (selId == 3)

  00657	83 bd bc fb ff
	ff 03		 cmp	 DWORD PTR _selId$[ebp], 3
  0065e	75 11		 jne	 SHORT $LN35@leaderFunc

; 5386 : 			ShowBottomLineString(FONT_PAL_WHITE, "攵臁彪癌氍胳觳レ便");

  00660	68 00 00 00 00	 push	 OFFSET ??_C@_0BF@CGFLPMMC@?$LK?N?A?$LH?$LJ?f?$LJ?$KO?C?J?C?$LL?$MA?e?$MA?$NL?$LM?$LK?$KB?$KD?$AA@
  00665	6a 00		 push	 0
  00667	e8 00 00 00 00	 call	 ?ShowBottomLineString@@YAXHPAD@Z ; ShowBottomLineString
  0066c	83 c4 08	 add	 esp, 8
  0066f	eb 18		 jmp	 SHORT $LN1@leaderFunc
$LN35@leaderFunc:

; 5387 : 		else if (selId == 4)

  00671	83 bd bc fb ff
	ff 04		 cmp	 DWORD PTR _selId$[ebp], 4
  00678	75 0f		 jne	 SHORT $LN1@leaderFunc

; 5388 : 			ShowBottomLineString(FONT_PAL_WHITE, "闺鞍瓣赴便");

  0067a	68 00 00 00 00	 push	 OFFSET ??_C@_0BL@EJEFDMMK@?E?$LO?$LN?B?$LJ?h?$LP?l?$LB?b?$MA?$KH?G?Q?$LF?$LP?$MA?G?$LM?$KN?$MA?$NL?$LM?$LK?$KB?$KD?$AA@
  0067f	6a 00		 push	 0
  00681	e8 00 00 00 00	 call	 ?ShowBottomLineString@@YAXHPAD@Z ; ShowBottomLineString
  00686	83 c4 08	 add	 esp, 8
$LN1@leaderFunc:

; 5389 : #ifdef	_ADD_FAMILY_TAX		// WON ADD 澧搴绋
; 5390 : 		else if (selId == 6)
; 5391 : 			ShowBottomLineString(FONT_PAL_WHITE, "攵绊氇╈戈臁办");
; 5392 : #endif
; 5393 : 	}
; 5394 : 
; 5395 : }

  00689	52		 push	 edx
  0068a	8b cd		 mov	 ecx, ebp
  0068c	50		 push	 eax
  0068d	8d 15 00 00 00
	00		 lea	 edx, DWORD PTR $LN41@leaderFunc
  00693	e8 00 00 00 00	 call	 @_RTC_CheckStackVars@8
  00698	58		 pop	 eax
  00699	5a		 pop	 edx
  0069a	5f		 pop	 edi
  0069b	5e		 pop	 esi
  0069c	5b		 pop	 ebx
  0069d	8b 4d fc	 mov	 ecx, DWORD PTR __$ArrayPad$[ebp]
  006a0	33 cd		 xor	 ecx, ebp
  006a2	e8 00 00 00 00	 call	 @__security_check_cookie@4
  006a7	81 c4 a0 06 00
	00		 add	 esp, 1696		; 000006a0H
  006ad	3b ec		 cmp	 ebp, esp
  006af	e8 00 00 00 00	 call	 __RTC_CheckEsp
  006b4	8b e5		 mov	 esp, ebp
  006b6	5d		 pop	 ebp
  006b7	c3		 ret	 0
$LN41@leaderFunc:
  006b8	01 00 00 00	 DD	 1
  006bc	00 00 00 00	 DD	 $LN40@leaderFunc
$LN40@leaderFunc:
  006c0	c8 fb ff ff	 DD	 -1080			; fffffbc8H
  006c4	00 04 00 00	 DD	 1024			; 00000400H
  006c8	00 00 00 00	 DD	 $LN39@leaderFunc
$LN39@leaderFunc:
  006cc	62		 DB	 98			; 00000062H
  006cd	75		 DB	 117			; 00000075H
  006ce	66		 DB	 102			; 00000066H
  006cf	00		 DB	 0
?leaderFuncWN@@YAXXZ ENDP				; leaderFuncWN
_TEXT	ENDS
; Function compile flags: /Odtp /RTCsu /ZI
; File c:\users\administrator\desktop\????? ??\????? ??\client source code\system\field.cpp
;	COMDAT ?joinChannel2WN@@YAXXZ
_TEXT	SEGMENT
tv171 = -1700						; size = 4
tv89 = -1700						; size = 4
tv80 = -1700						; size = 4
_color$1 = -1116					; size = 4
_selId$ = -1104						; size = 4
_buf$ = -1092						; size = 1024
_i$ = -60						; size = 4
_h$ = -48						; size = 4
_w$ = -36						; size = 4
_y$ = -24						; size = 4
_x$ = -12						; size = 4
__$ArrayPad$ = -4					; size = 4
?joinChannel2WN@@YAXXZ PROC				; joinChannel2WN, COMDAT

; 5082 : {

  00000	55		 push	 ebp
  00001	8b ec		 mov	 ebp, esp
  00003	81 ec a4 06 00
	00		 sub	 esp, 1700		; 000006a4H
  00009	53		 push	 ebx
  0000a	56		 push	 esi
  0000b	57		 push	 edi
  0000c	8d bd 5c f9 ff
	ff		 lea	 edi, DWORD PTR [ebp-1700]
  00012	b9 a9 01 00 00	 mov	 ecx, 425		; 000001a9H
  00017	b8 cc cc cc cc	 mov	 eax, -858993460		; ccccccccH
  0001c	f3 ab		 rep stosd
  0001e	a1 00 00 00 00	 mov	 eax, DWORD PTR ___security_cookie
  00023	33 c5		 xor	 eax, ebp
  00025	89 45 fc	 mov	 DWORD PTR __$ArrayPad$[ebp], eax

; 5083 : 	//static ACTION *ptActMenuWin = NULL;
; 5084 : 	int x, y, w, h, i;
; 5085 : 	static int fontBtnId[4];
; 5086 : 	char buf[1024];
; 5087 : 	int selId;
; 5088 : 	
; 5089 : 	x = 160;

  00028	c7 45 f4 a0 00
	00 00		 mov	 DWORD PTR _x$[ebp], 160	; 000000a0H

; 5090 : 	y = 30;

  0002f	c7 45 e8 1e 00
	00 00		 mov	 DWORD PTR _y$[ebp], 30	; 0000001eH

; 5091 : 	w = 7;

  00036	c7 45 dc 07 00
	00 00		 mov	 DWORD PTR _w$[ebp], 7

; 5092 : 	h = 8;

  0003d	c7 45 d0 08 00
	00 00		 mov	 DWORD PTR _h$[ebp], 8

; 5093 : 
; 5094 : 	if (ptActChannel2Win == NULL)

  00044	83 3d 00 00 00
	00 00		 cmp	 DWORD PTR ?ptActChannel2Win@@3PAUaction@@A, 0
  0004b	75 54		 jne	 SHORT $LN11@joinChanne

; 5095 : 	{
; 5096 : 		DeathAction(ptActLeaderFuncWin);

  0004d	a1 00 00 00 00	 mov	 eax, DWORD PTR ?ptActLeaderFuncWin@@3PAUaction@@A
  00052	50		 push	 eax
  00053	e8 00 00 00 00	 call	 ?DeathAction@@YAXPAUaction@@@Z ; DeathAction
  00058	83 c4 04	 add	 esp, 4

; 5097 : 		ptActLeaderFuncWin = NULL;

  0005b	c7 05 00 00 00
	00 00 00 00 00	 mov	 DWORD PTR ?ptActLeaderFuncWin@@3PAUaction@@A, 0

; 5098 : 		ptActChannel2Win = MakeWindowDisp(x, y, w, h, NULL, 1);

  00065	6a 01		 push	 1
  00067	6a 00		 push	 0
  00069	8b 45 d0	 mov	 eax, DWORD PTR _h$[ebp]
  0006c	50		 push	 eax
  0006d	8b 4d dc	 mov	 ecx, DWORD PTR _w$[ebp]
  00070	51		 push	 ecx
  00071	8b 55 e8	 mov	 edx, DWORD PTR _y$[ebp]
  00074	52		 push	 edx
  00075	8b 45 f4	 mov	 eax, DWORD PTR _x$[ebp]
  00078	50		 push	 eax
  00079	e8 00 00 00 00	 call	 ?MakeWindowDisp@@YAPAUaction@@HHHHHH@Z ; MakeWindowDisp
  0007e	83 c4 18	 add	 esp, 24			; 00000018H
  00081	a3 00 00 00 00	 mov	 DWORD PTR ?ptActChannel2Win@@3PAUaction@@A, eax

; 5099 : #ifdef _NEW_RESOMODE  //800 600妯″
; 5100 : 		x = ptActChannel2Win->x;

  00086	a1 00 00 00 00	 mov	 eax, DWORD PTR ?ptActChannel2Win@@3PAUaction@@A
  0008b	8b 48 18	 mov	 ecx, DWORD PTR [eax+24]
  0008e	89 4d f4	 mov	 DWORD PTR _x$[ebp], ecx

; 5101 : 		y = ptActChannel2Win->y;

  00091	a1 00 00 00 00	 mov	 eax, DWORD PTR ?ptActChannel2Win@@3PAUaction@@A
  00096	8b 48 1c	 mov	 ecx, DWORD PTR [eax+28]
  00099	89 4d e8	 mov	 DWORD PTR _y$[ebp], ecx
  0009c	e9 dc 06 00 00	 jmp	 $LN1@joinChanne
$LN11@joinChanne:

; 5102 : #endif
; 5103 : 	}
; 5104 : 	else if (ptActChannel2Win->hp >= 1)

  000a1	a1 00 00 00 00	 mov	 eax, DWORD PTR ?ptActChannel2Win@@3PAUaction@@A
  000a6	83 78 78 01	 cmp	 DWORD PTR [eax+120], 1
  000aa	0f 8c cd 06 00
	00		 jl	 $LN1@joinChanne

; 5105 : 	{
; 5106 : 		selId = focusFontId(fontBtnId, sizeof(fontBtnId) / sizeof(int));

  000b0	6a 04		 push	 4
  000b2	68 00 00 00 00	 push	 OFFSET ?fontBtnId@?1??joinChannel2WN@@YAXXZ@4PAHA
  000b7	e8 00 00 00 00	 call	 ?focusFontId@@YAHPAHH@Z	; focusFontId
  000bc	83 c4 08	 add	 esp, 8
  000bf	89 85 b0 fb ff
	ff		 mov	 DWORD PTR _selId$[ebp], eax

; 5107 : 
; 5108 : 		switch (selId)

  000c5	8b 85 b0 fb ff
	ff		 mov	 eax, DWORD PTR _selId$[ebp]
  000cb	89 85 5c f9 ff
	ff		 mov	 DWORD PTR tv80[ebp], eax
  000d1	83 bd 5c f9 ff
	ff 00		 cmp	 DWORD PTR tv80[ebp], 0
  000d8	74 0b		 je	 SHORT $LN14@joinChanne
  000da	83 bd 5c f9 ff
	ff 01		 cmp	 DWORD PTR tv80[ebp], 1
  000e1	74 13		 je	 SHORT $LN15@joinChanne
  000e3	eb 20		 jmp	 SHORT $LN2@joinChanne
$LN14@joinChanne:

; 5109 : 		{
; 5110 : 		case 0:
; 5111 : 			ShowBottomLineString(FONT_PAL_WHITE, "挫臧");

  000e5	68 00 00 00 00	 push	 OFFSET ??_C@_0P@CBBBPELI@?$MA?L?C?$KE?$LD?N?$LP?$KB?$LA?$KB?$MA?T?$KB?$KD?$AA@
  000ea	6a 00		 push	 0
  000ec	e8 00 00 00 00	 call	 ?ShowBottomLineString@@YAXHPAD@Z ; ShowBottomLineString
  000f1	83 c4 08	 add	 esp, 8

; 5112 : 			break;

  000f4	eb 0f		 jmp	 SHORT $LN2@joinChanne
$LN15@joinChanne:

; 5113 : 		case 1:
; 5114 : 			ShowBottomLineString(FONT_PAL_WHITE, "挫敖旮般");

  000f6	68 00 00 00 00	 push	 OFFSET ??_C@_0L@EIKLEHBI@?$MA?L?C?$KC?$LE?$NN?$LB?b?$KB?$KD?$AA@
  000fb	6a 00		 push	 0
  000fd	e8 00 00 00 00	 call	 ?ShowBottomLineString@@YAXHPAD@Z ; ShowBottomLineString
  00102	83 c4 08	 add	 esp, 8
$LN2@joinChanne:

; 5115 : 			break;
; 5116 : 		}
; 5117 : 
; 5118 : 		if (mouse.onceState & MOUSE_LEFT_CRICK)

  00105	a1 2c 00 00 00	 mov	 eax, DWORD PTR ?mouse@@3UMOUSE@@A+44
  0010a	83 e0 01	 and	 eax, 1
  0010d	0f 84 3c 01 00
	00		 je	 $LN16@joinChanne

; 5119 : 		{
; 5120 : 			switch (selId)

  00113	8b 85 b0 fb ff
	ff		 mov	 eax, DWORD PTR _selId$[ebp]
  00119	89 85 5c f9 ff
	ff		 mov	 DWORD PTR tv89[ebp], eax
  0011f	83 bd 5c f9 ff
	ff 03		 cmp	 DWORD PTR tv89[ebp], 3
  00126	0f 87 23 01 00
	00		 ja	 $LN16@joinChanne
  0012c	8b 8d 5c f9 ff
	ff		 mov	 ecx, DWORD PTR tv89[ebp]
  00132	ff 24 8d 00 00
	00 00		 jmp	 DWORD PTR $LN59@joinChanne[ecx*4]
$LN17@joinChanne:

; 5121 : 			{
; 5122 : 			case 0:
; 5123 : 				sprintf(buf, "C|J|%d", channelData.index);

  00139	a1 00 00 00 00	 mov	 eax, DWORD PTR ?channelData@@3UTchannelData@@A
  0013e	50		 push	 eax
  0013f	68 00 00 00 00	 push	 OFFSET ??_C@_06GHCNPHLL@C?$HMJ?$HM?$CFd?$AA@
  00144	8d 8d bc fb ff
	ff		 lea	 ecx, DWORD PTR _buf$[ebp]
  0014a	51		 push	 ecx
  0014b	e8 00 00 00 00	 call	 _sprintf
  00150	83 c4 0c	 add	 esp, 12			; 0000000cH

; 5124 : 				if (bNewServer)

  00153	83 3d 00 00 00
	00 00		 cmp	 DWORD PTR ?bNewServer@@3HA, 0 ; bNewServer
  0015a	74 18		 je	 SHORT $LN18@joinChanne

; 5125 : 					lssproto_FM_send(sockfd, buf);

  0015c	8d 85 bc fb ff
	ff		 lea	 eax, DWORD PTR _buf$[ebp]
  00162	50		 push	 eax
  00163	8b 0d 00 00 00
	00		 mov	 ecx, DWORD PTR ?sockfd@@3IA ; sockfd
  00169	51		 push	 ecx
  0016a	e8 00 00 00 00	 call	 ?lssproto_FM_send@@YAXHPAD@Z ; lssproto_FM_send
  0016f	83 c4 08	 add	 esp, 8

; 5126 : 				else

  00172	eb 16		 jmp	 SHORT $LN19@joinChanne
$LN18@joinChanne:

; 5127 : 					old_lssproto_FM_send(sockfd, buf);

  00174	8d 85 bc fb ff
	ff		 lea	 eax, DWORD PTR _buf$[ebp]
  0017a	50		 push	 eax
  0017b	8b 0d 00 00 00
	00		 mov	 ecx, DWORD PTR ?sockfd@@3IA ; sockfd
  00181	51		 push	 ecx
  00182	e8 00 00 00 00	 call	 ?old_lssproto_FM_send@@YAXHPAD@Z ; old_lssproto_FM_send
  00187	83 c4 08	 add	 esp, 8
$LN19@joinChanne:

; 5128 : 				closeJoinChannelWN();

  0018a	e8 00 00 00 00	 call	 ?closeJoinChannelWN@@YAXXZ ; closeJoinChannelWN

; 5129 : 				play_se(203, 320, 240);	// ????????

  0018f	68 f0 00 00 00	 push	 240			; 000000f0H
  00194	68 40 01 00 00	 push	 320			; 00000140H
  00199	68 cb 00 00 00	 push	 203			; 000000cbH
  0019e	e8 00 00 00 00	 call	 ?play_se@@YAHHHH@Z	; play_se
  001a3	83 c4 0c	 add	 esp, 12			; 0000000cH

; 5130 : 				break;				

  001a6	e9 a4 00 00 00	 jmp	 $LN16@joinChanne
$LN20@joinChanne:

; 5131 : 			case 1:
; 5132 : 				if (pc.channel == channelData.index)

  001ab	a1 0c 51 00 00	 mov	 eax, DWORD PTR ?pc@@3UPC@@A+20748
  001b0	3b 05 00 00 00
	00		 cmp	 eax, DWORD PTR ?channelData@@3UTchannelData@@A
  001b6	75 4b		 jne	 SHORT $LN21@joinChanne

; 5133 : 				{
; 5134 : 					sprintf(buf, "C|J|-1");

  001b8	68 00 00 00 00	 push	 OFFSET ??_C@_06KOPCAPBC@C?$HMJ?$HM?91?$AA@
  001bd	8d 85 bc fb ff
	ff		 lea	 eax, DWORD PTR _buf$[ebp]
  001c3	50		 push	 eax
  001c4	e8 00 00 00 00	 call	 _sprintf
  001c9	83 c4 08	 add	 esp, 8

; 5135 : 					if (bNewServer)

  001cc	83 3d 00 00 00
	00 00		 cmp	 DWORD PTR ?bNewServer@@3HA, 0 ; bNewServer
  001d3	74 18		 je	 SHORT $LN22@joinChanne

; 5136 : 						lssproto_FM_send(sockfd, buf);

  001d5	8d 85 bc fb ff
	ff		 lea	 eax, DWORD PTR _buf$[ebp]
  001db	50		 push	 eax
  001dc	8b 0d 00 00 00
	00		 mov	 ecx, DWORD PTR ?sockfd@@3IA ; sockfd
  001e2	51		 push	 ecx
  001e3	e8 00 00 00 00	 call	 ?lssproto_FM_send@@YAXHPAD@Z ; lssproto_FM_send
  001e8	83 c4 08	 add	 esp, 8

; 5137 : 					else

  001eb	eb 16		 jmp	 SHORT $LN21@joinChanne
$LN22@joinChanne:

; 5138 : 						old_lssproto_FM_send(sockfd, buf);

  001ed	8d 85 bc fb ff
	ff		 lea	 eax, DWORD PTR _buf$[ebp]
  001f3	50		 push	 eax
  001f4	8b 0d 00 00 00
	00		 mov	 ecx, DWORD PTR ?sockfd@@3IA ; sockfd
  001fa	51		 push	 ecx
  001fb	e8 00 00 00 00	 call	 ?old_lssproto_FM_send@@YAXHPAD@Z ; old_lssproto_FM_send
  00200	83 c4 08	 add	 esp, 8
$LN21@joinChanne:

; 5139 : 				}
; 5140 : 				closeJoinChannel2WN();

  00203	e8 00 00 00 00	 call	 ?closeJoinChannel2WN@@YAXXZ ; closeJoinChannel2WN

; 5141 : 				play_se(203, 320, 240);	// ????????

  00208	68 f0 00 00 00	 push	 240			; 000000f0H
  0020d	68 40 01 00 00	 push	 320			; 00000140H
  00212	68 cb 00 00 00	 push	 203			; 000000cbH
  00217	e8 00 00 00 00	 call	 ?play_se@@YAHHHH@Z	; play_se
  0021c	83 c4 0c	 add	 esp, 12			; 0000000cH

; 5142 : 				break;

  0021f	eb 2e		 jmp	 SHORT $LN16@joinChanne
$LN24@joinChanne:

; 5143 : 			case 2:
; 5144 : 				if (pageNum > 0)

  00221	83 3d 00 00 00
	00 00		 cmp	 DWORD PTR ?pageNum@@3HA, 0
  00228	7e 0d		 jle	 SHORT $LN25@joinChanne

; 5145 : 					pageNum--;

  0022a	a1 00 00 00 00	 mov	 eax, DWORD PTR ?pageNum@@3HA
  0022f	83 e8 01	 sub	 eax, 1
  00232	a3 00 00 00 00	 mov	 DWORD PTR ?pageNum@@3HA, eax
$LN25@joinChanne:

; 5146 : 				break;

  00237	eb 16		 jmp	 SHORT $LN16@joinChanne
$LN26@joinChanne:

; 5147 : 			case 3:
; 5148 : 				if (pageNum < 2)

  00239	83 3d 00 00 00
	00 02		 cmp	 DWORD PTR ?pageNum@@3HA, 2
  00240	7d 0d		 jge	 SHORT $LN16@joinChanne

; 5149 : 					pageNum++;

  00242	a1 00 00 00 00	 mov	 eax, DWORD PTR ?pageNum@@3HA
  00247	83 c0 01	 add	 eax, 1
  0024a	a3 00 00 00 00	 mov	 DWORD PTR ?pageNum@@3HA, eax
$LN16@joinChanne:

; 5150 : 				break;
; 5151 : 			}
; 5152 : 		}
; 5153 : 
; 5154 : 		fontBtnId[0] = StockFontBuffer(x + 240, y + 340, FONT_PRIO_FRONT, FONT_PAL_YELLOW, " 彀  臧 ", 2);

  0024f	6a 02		 push	 2
  00251	68 00 00 00 00	 push	 OFFSET ??_C@_08JGHLAOEI@?5?B?$PM?5?5?$LA?$KB?5?$AA@
  00256	6a 04		 push	 4
  00258	6a 01		 push	 1
  0025a	8b 45 e8	 mov	 eax, DWORD PTR _y$[ebp]
  0025d	05 54 01 00 00	 add	 eax, 340		; 00000154H
  00262	50		 push	 eax
  00263	8b 4d f4	 mov	 ecx, DWORD PTR _x$[ebp]
  00266	81 c1 f0 00 00
	00		 add	 ecx, 240		; 000000f0H
  0026c	51		 push	 ecx
  0026d	e8 00 00 00 00	 call	 ?StockFontBuffer@@YAHHHDHPADH@Z ; StockFontBuffer
  00272	83 c4 18	 add	 esp, 24			; 00000018H
  00275	ba 04 00 00 00	 mov	 edx, 4
  0027a	6b ca 00	 imul	 ecx, edx, 0
  0027d	89 81 00 00 00
	00		 mov	 DWORD PTR ?fontBtnId@?1??joinChannel2WN@@YAXXZ@4PAHA[ecx], eax

; 5155 : 		fontBtnId[1] = StockFontBuffer(x + 340, y + 340, FONT_PRIO_FRONT, FONT_PAL_YELLOW, "    ", 2);

  00283	6a 02		 push	 2
  00285	68 00 00 00 00	 push	 OFFSET ??_C@_08CMINFIIP@?5?E?$LL?5?5?E?p?5?$AA@
  0028a	6a 04		 push	 4
  0028c	6a 01		 push	 1
  0028e	8b 45 e8	 mov	 eax, DWORD PTR _y$[ebp]
  00291	05 54 01 00 00	 add	 eax, 340		; 00000154H
  00296	50		 push	 eax
  00297	8b 4d f4	 mov	 ecx, DWORD PTR _x$[ebp]
  0029a	81 c1 54 01 00
	00		 add	 ecx, 340		; 00000154H
  002a0	51		 push	 ecx
  002a1	e8 00 00 00 00	 call	 ?StockFontBuffer@@YAHHHDHPADH@Z ; StockFontBuffer
  002a6	83 c4 18	 add	 esp, 24			; 00000018H
  002a9	ba 04 00 00 00	 mov	 edx, 4
  002ae	c1 e2 00	 shl	 edx, 0
  002b1	89 82 00 00 00
	00		 mov	 DWORD PTR ?fontBtnId@?1??joinChannel2WN@@YAXXZ@4PAHA[edx], eax

; 5156 : 
; 5157 : 		switch (pageNum)

  002b7	a1 00 00 00 00	 mov	 eax, DWORD PTR ?pageNum@@3HA
  002bc	89 85 5c f9 ff
	ff		 mov	 DWORD PTR tv171[ebp], eax
  002c2	83 bd 5c f9 ff
	ff 00		 cmp	 DWORD PTR tv171[ebp], 0
  002c9	74 1b		 je	 SHORT $LN28@joinChanne
  002cb	83 bd 5c f9 ff
	ff 01		 cmp	 DWORD PTR tv171[ebp], 1
  002d2	74 5b		 je	 SHORT $LN30@joinChanne
  002d4	83 bd 5c f9 ff
	ff 02		 cmp	 DWORD PTR tv171[ebp], 2
  002db	0f 84 cf 00 00
	00		 je	 $LN32@joinChanne
  002e1	e9 05 01 00 00	 jmp	 $LN6@joinChanne
$LN28@joinChanne:

; 5158 : 		{
; 5159 : 		case 0:
; 5160 : 			if (channelData.num > 30)

  002e6	83 3d 04 00 00
	00 1e		 cmp	 DWORD PTR ?channelData@@3UTchannelData@@A+4, 30 ; 0000001eH
  002ed	7e 3b		 jle	 SHORT $LN29@joinChanne

; 5161 : 				fontBtnId[3] = StockFontBuffer(x + 120, y + 340, FONT_PRIO_FRONT, FONT_PAL_YELLOW, pageStr[1], 2);

  002ef	6a 02		 push	 2
  002f1	b8 0a 00 00 00	 mov	 eax, 10			; 0000000aH
  002f6	c1 e0 00	 shl	 eax, 0
  002f9	05 00 00 00 00	 add	 eax, OFFSET ?pageStr@@3PAY09DA ; pageStr
  002fe	50		 push	 eax
  002ff	6a 04		 push	 4
  00301	6a 01		 push	 1
  00303	8b 4d e8	 mov	 ecx, DWORD PTR _y$[ebp]
  00306	81 c1 54 01 00
	00		 add	 ecx, 340		; 00000154H
  0030c	51		 push	 ecx
  0030d	8b 55 f4	 mov	 edx, DWORD PTR _x$[ebp]
  00310	83 c2 78	 add	 edx, 120		; 00000078H
  00313	52		 push	 edx
  00314	e8 00 00 00 00	 call	 ?StockFontBuffer@@YAHHHDHPADH@Z ; StockFontBuffer
  00319	83 c4 18	 add	 esp, 24			; 00000018H
  0031c	b9 04 00 00 00	 mov	 ecx, 4
  00321	6b d1 03	 imul	 edx, ecx, 3
  00324	89 82 00 00 00
	00		 mov	 DWORD PTR ?fontBtnId@?1??joinChannel2WN@@YAXXZ@4PAHA[edx], eax
$LN29@joinChanne:

; 5162 : 			break;

  0032a	e9 bc 00 00 00	 jmp	 $LN6@joinChanne
$LN30@joinChanne:

; 5163 : 		case 1:
; 5164 : 			if (channelData.num > 60)

  0032f	83 3d 04 00 00
	00 3c		 cmp	 DWORD PTR ?channelData@@3UTchannelData@@A+4, 60 ; 0000003cH
  00336	7e 3b		 jle	 SHORT $LN31@joinChanne

; 5165 : 				fontBtnId[3] = StockFontBuffer(x + 120, y + 340, FONT_PRIO_FRONT, FONT_PAL_YELLOW, pageStr[1], 2);

  00338	6a 02		 push	 2
  0033a	b8 0a 00 00 00	 mov	 eax, 10			; 0000000aH
  0033f	c1 e0 00	 shl	 eax, 0
  00342	05 00 00 00 00	 add	 eax, OFFSET ?pageStr@@3PAY09DA ; pageStr
  00347	50		 push	 eax
  00348	6a 04		 push	 4
  0034a	6a 01		 push	 1
  0034c	8b 4d e8	 mov	 ecx, DWORD PTR _y$[ebp]
  0034f	81 c1 54 01 00
	00		 add	 ecx, 340		; 00000154H
  00355	51		 push	 ecx
  00356	8b 55 f4	 mov	 edx, DWORD PTR _x$[ebp]
  00359	83 c2 78	 add	 edx, 120		; 00000078H
  0035c	52		 push	 edx
  0035d	e8 00 00 00 00	 call	 ?StockFontBuffer@@YAHHHDHPADH@Z ; StockFontBuffer
  00362	83 c4 18	 add	 esp, 24			; 00000018H
  00365	b9 04 00 00 00	 mov	 ecx, 4
  0036a	6b d1 03	 imul	 edx, ecx, 3
  0036d	89 82 00 00 00
	00		 mov	 DWORD PTR ?fontBtnId@?1??joinChannel2WN@@YAXXZ@4PAHA[edx], eax
$LN31@joinChanne:

; 5166 : 			fontBtnId[2] = StockFontBuffer(x + 50, y + 340, FONT_PRIO_FRONT, FONT_PAL_YELLOW, pageStr[0], 2);

  00373	6a 02		 push	 2
  00375	b8 0a 00 00 00	 mov	 eax, 10			; 0000000aH
  0037a	6b c8 00	 imul	 ecx, eax, 0
  0037d	81 c1 00 00 00
	00		 add	 ecx, OFFSET ?pageStr@@3PAY09DA ; pageStr
  00383	51		 push	 ecx
  00384	6a 04		 push	 4
  00386	6a 01		 push	 1
  00388	8b 55 e8	 mov	 edx, DWORD PTR _y$[ebp]
  0038b	81 c2 54 01 00
	00		 add	 edx, 340		; 00000154H
  00391	52		 push	 edx
  00392	8b 45 f4	 mov	 eax, DWORD PTR _x$[ebp]
  00395	83 c0 32	 add	 eax, 50			; 00000032H
  00398	50		 push	 eax
  00399	e8 00 00 00 00	 call	 ?StockFontBuffer@@YAHHHDHPADH@Z ; StockFontBuffer
  0039e	83 c4 18	 add	 esp, 24			; 00000018H
  003a1	b9 04 00 00 00	 mov	 ecx, 4
  003a6	d1 e1		 shl	 ecx, 1
  003a8	89 81 00 00 00
	00		 mov	 DWORD PTR ?fontBtnId@?1??joinChannel2WN@@YAXXZ@4PAHA[ecx], eax

; 5167 : 			break;

  003ae	eb 3b		 jmp	 SHORT $LN6@joinChanne
$LN32@joinChanne:

; 5168 : 		case 2:
; 5169 : 			fontBtnId[2] = StockFontBuffer(x + 50, y + 340, FONT_PRIO_FRONT, FONT_PAL_YELLOW, pageStr[0], 2);

  003b0	6a 02		 push	 2
  003b2	b8 0a 00 00 00	 mov	 eax, 10			; 0000000aH
  003b7	6b c8 00	 imul	 ecx, eax, 0
  003ba	81 c1 00 00 00
	00		 add	 ecx, OFFSET ?pageStr@@3PAY09DA ; pageStr
  003c0	51		 push	 ecx
  003c1	6a 04		 push	 4
  003c3	6a 01		 push	 1
  003c5	8b 55 e8	 mov	 edx, DWORD PTR _y$[ebp]
  003c8	81 c2 54 01 00
	00		 add	 edx, 340		; 00000154H
  003ce	52		 push	 edx
  003cf	8b 45 f4	 mov	 eax, DWORD PTR _x$[ebp]
  003d2	83 c0 32	 add	 eax, 50			; 00000032H
  003d5	50		 push	 eax
  003d6	e8 00 00 00 00	 call	 ?StockFontBuffer@@YAHHHDHPADH@Z ; StockFontBuffer
  003db	83 c4 18	 add	 esp, 24			; 00000018H
  003de	b9 04 00 00 00	 mov	 ecx, 4
  003e3	d1 e1		 shl	 ecx, 1
  003e5	89 81 00 00 00
	00		 mov	 DWORD PTR ?fontBtnId@?1??joinChannel2WN@@YAXXZ@4PAHA[ecx], eax
$LN6@joinChanne:

; 5170 : 			break;
; 5171 : 		}
; 5172 : 		StockFontBuffer(x + 25, y + 25, FONT_PRIO_FRONT, FONT_PAL_WHITE, channelName[channelData.index], 0);

  003eb	6a 00		 push	 0
  003ed	6b 05 00 00 00
	00 14		 imul	 eax, DWORD PTR ?channelData@@3UTchannelData@@A, 20
  003f4	05 00 00 00 00	 add	 eax, OFFSET ?channelName@@3PAY0BE@DA ; channelName
  003f9	50		 push	 eax
  003fa	6a 00		 push	 0
  003fc	6a 01		 push	 1
  003fe	8b 4d e8	 mov	 ecx, DWORD PTR _y$[ebp]
  00401	83 c1 19	 add	 ecx, 25			; 00000019H
  00404	51		 push	 ecx
  00405	8b 55 f4	 mov	 edx, DWORD PTR _x$[ebp]
  00408	83 c2 19	 add	 edx, 25			; 00000019H
  0040b	52		 push	 edx
  0040c	e8 00 00 00 00	 call	 ?StockFontBuffer@@YAHHHDHPADH@Z ; StockFontBuffer
  00411	83 c4 18	 add	 esp, 24			; 00000018H

; 5173 : 
; 5174 : 		StockFontBuffer(x + 25, y + 50, FONT_PRIO_FRONT, FONT_PAL_WHITE, "[ 毂    ]", 0);

  00414	6a 00		 push	 0
  00416	68 00 00 00 00	 push	 OFFSET ??_C@_0BA@FLCLDJN@?$FL?5?C?$KE?5?$LD?N?5?H?$LI?5?$LP?x?5?$FN?$AA@
  0041b	6a 00		 push	 0
  0041d	6a 01		 push	 1
  0041f	8b 45 e8	 mov	 eax, DWORD PTR _y$[ebp]
  00422	83 c0 32	 add	 eax, 50			; 00000032H
  00425	50		 push	 eax
  00426	8b 4d f4	 mov	 ecx, DWORD PTR _x$[ebp]
  00429	83 c1 19	 add	 ecx, 25			; 00000019H
  0042c	51		 push	 ecx
  0042d	e8 00 00 00 00	 call	 ?StockFontBuffer@@YAHHHDHPADH@Z ; StockFontBuffer
  00432	83 c4 18	 add	 esp, 24			; 00000018H

; 5175 : 		
; 5176 : 		sprintf(buf, " %d 措臁膘 臧臁便", channelData.num);

  00435	a1 04 00 00 00	 mov	 eax, DWORD PTR ?channelData@@3UTchannelData@@A+4
  0043a	50		 push	 eax
  0043b	68 00 00 00 00	 push	 OFFSET ??_C@_0BI@COJOKGGA@?G?v?$MA?g?5?$CFd?5?$MA?L?$LK?N?A?$LH?$MA?G?5?$LA?$KB?A?$LH?$KB?$KD?$AA@
  00440	8d 8d bc fb ff
	ff		 lea	 ecx, DWORD PTR _buf$[ebp]
  00446	51		 push	 ecx
  00447	e8 00 00 00 00	 call	 _sprintf
  0044c	83 c4 0c	 add	 esp, 12			; 0000000cH

; 5177 : 		StockFontBuffer(x + 200, y + 25, FONT_PRIO_FRONT, FONT_PAL_WHITE, buf, 0);

  0044f	6a 00		 push	 0
  00451	8d 85 bc fb ff
	ff		 lea	 eax, DWORD PTR _buf$[ebp]
  00457	50		 push	 eax
  00458	6a 00		 push	 0
  0045a	6a 01		 push	 1
  0045c	8b 4d e8	 mov	 ecx, DWORD PTR _y$[ebp]
  0045f	83 c1 19	 add	 ecx, 25			; 00000019H
  00462	51		 push	 ecx
  00463	8b 55 f4	 mov	 edx, DWORD PTR _x$[ebp]
  00466	81 c2 c8 00 00
	00		 add	 edx, 200		; 000000c8H
  0046c	52		 push	 edx
  0046d	e8 00 00 00 00	 call	 ?StockFontBuffer@@YAHHHDHPADH@Z ; StockFontBuffer
  00472	83 c4 18	 add	 esp, 24			; 00000018H

; 5178 : 		sprintf(buf, " %d 挫ゃ", channelData.joinNum);

  00475	a1 98 01 00 00	 mov	 eax, DWORD PTR ?channelData@@3UTchannelData@@A+408
  0047a	50		 push	 eax
  0047b	68 00 00 00 00	 push	 OFFSET ??_C@_0BJ@BJPJPJLI@?$MA?V?$LE?Y?5?$CFd?5?$MA?L?C?$KE?$LD?N?$MA?G?$LL?g?$LG?w?$LF?i?$KB?$KD?$AA@
  00480	8d 8d bc fb ff
	ff		 lea	 ecx, DWORD PTR _buf$[ebp]
  00486	51		 push	 ecx
  00487	e8 00 00 00 00	 call	 _sprintf
  0048c	83 c4 0c	 add	 esp, 12			; 0000000cH

; 5179 : 		StockFontBuffer(x + 280, y + 50, FONT_PRIO_FRONT, FONT_PAL_WHITE, buf, 0);

  0048f	6a 00		 push	 0
  00491	8d 85 bc fb ff
	ff		 lea	 eax, DWORD PTR _buf$[ebp]
  00497	50		 push	 eax
  00498	6a 00		 push	 0
  0049a	6a 01		 push	 1
  0049c	8b 4d e8	 mov	 ecx, DWORD PTR _y$[ebp]
  0049f	83 c1 32	 add	 ecx, 50			; 00000032H
  004a2	51		 push	 ecx
  004a3	8b 55 f4	 mov	 edx, DWORD PTR _x$[ebp]
  004a6	81 c2 18 01 00
	00		 add	 edx, 280		; 00000118H
  004ac	52		 push	 edx
  004ad	e8 00 00 00 00	 call	 ?StockFontBuffer@@YAHHHDHPADH@Z ; StockFontBuffer
  004b2	83 c4 18	 add	 esp, 24			; 00000018H

; 5180 : 
; 5181 : 		for (i = 0 ; i < channelData.num; i++)

  004b5	c7 45 c4 00 00
	00 00		 mov	 DWORD PTR _i$[ebp], 0
  004bc	eb 09		 jmp	 SHORT $LN10@joinChanne
$LN8@joinChanne:
  004be	8b 45 c4	 mov	 eax, DWORD PTR _i$[ebp]
  004c1	83 c0 01	 add	 eax, 1
  004c4	89 45 c4	 mov	 DWORD PTR _i$[ebp], eax
$LN10@joinChanne:
  004c7	8b 45 c4	 mov	 eax, DWORD PTR _i$[ebp]
  004ca	3b 05 04 00 00
	00		 cmp	 eax, DWORD PTR ?channelData@@3UTchannelData@@A+4
  004d0	0f 8d a7 02 00
	00		 jge	 $LN1@joinChanne

; 5182 : 		{
; 5183 : 			int color;
; 5184 : 
; 5185 : 			if (channelData.join[i] == 1)

  004d6	8b 45 c4	 mov	 eax, DWORD PTR _i$[ebp]
  004d9	83 3c 85 08 00
	00 00 01	 cmp	 DWORD PTR ?channelData@@3UTchannelData@@A[eax*4+8], 1
  004e1	75 0c		 jne	 SHORT $LN33@joinChanne

; 5186 : 				color = FONT_PAL_WHITE;

  004e3	c7 85 a4 fb ff
	ff 00 00 00 00	 mov	 DWORD PTR _color$1[ebp], 0

; 5187 : 			else

  004ed	eb 0a		 jmp	 SHORT $LN34@joinChanne
$LN33@joinChanne:

; 5188 : 				color = FONT_PAL_GRAY;

  004ef	c7 85 a4 fb ff
	ff 07 00 00 00	 mov	 DWORD PTR _color$1[ebp], 7
$LN34@joinChanne:

; 5189 : 
; 5190 : 			if (pageNum == 0 && i < 30)

  004f9	83 3d 00 00 00
	00 00		 cmp	 DWORD PTR ?pageNum@@3HA, 0
  00500	0f 85 c3 00 00
	00		 jne	 $LN35@joinChanne
  00506	83 7d c4 1e	 cmp	 DWORD PTR _i$[ebp], 30	; 0000001eH
  0050a	0f 8d b9 00 00
	00		 jge	 $LN35@joinChanne

; 5191 : 			{
; 5192 : 				if (i < 10)

  00510	83 7d c4 0a	 cmp	 DWORD PTR _i$[ebp], 10	; 0000000aH
  00514	7d 32		 jge	 SHORT $LN37@joinChanne

; 5193 : 					StockFontBuffer(x + 25, y + 80 + i * 25, FONT_PRIO_FRONT, color, channelData.name[i], 0);

  00516	6a 00		 push	 0
  00518	6b 45 c4 14	 imul	 eax, DWORD PTR _i$[ebp], 20
  0051c	05 9c 01 00 00	 add	 eax, OFFSET ?channelData@@3UTchannelData@@A+412
  00521	50		 push	 eax
  00522	8b 8d a4 fb ff
	ff		 mov	 ecx, DWORD PTR _color$1[ebp]
  00528	51		 push	 ecx
  00529	6a 01		 push	 1
  0052b	6b 55 c4 19	 imul	 edx, DWORD PTR _i$[ebp], 25
  0052f	8b 45 e8	 mov	 eax, DWORD PTR _y$[ebp]
  00532	8d 4c 10 50	 lea	 ecx, DWORD PTR [eax+edx+80]
  00536	51		 push	 ecx
  00537	8b 55 f4	 mov	 edx, DWORD PTR _x$[ebp]
  0053a	83 c2 19	 add	 edx, 25			; 00000019H
  0053d	52		 push	 edx
  0053e	e8 00 00 00 00	 call	 ?StockFontBuffer@@YAHHHDHPADH@Z ; StockFontBuffer
  00543	83 c4 18	 add	 esp, 24			; 00000018H
  00546	eb 7c		 jmp	 SHORT $LN38@joinChanne
$LN37@joinChanne:

; 5194 : 				else if(i < 20)

  00548	83 7d c4 14	 cmp	 DWORD PTR _i$[ebp], 20	; 00000014H
  0054c	7d 39		 jge	 SHORT $LN39@joinChanne

; 5195 : 					StockFontBuffer(x + 25 + 140, y + 80 + (i - 10) * 25, FONT_PRIO_FRONT, color, channelData.name[i], 0);

  0054e	6a 00		 push	 0
  00550	6b 45 c4 14	 imul	 eax, DWORD PTR _i$[ebp], 20
  00554	05 9c 01 00 00	 add	 eax, OFFSET ?channelData@@3UTchannelData@@A+412
  00559	50		 push	 eax
  0055a	8b 8d a4 fb ff
	ff		 mov	 ecx, DWORD PTR _color$1[ebp]
  00560	51		 push	 ecx
  00561	6a 01		 push	 1
  00563	8b 55 c4	 mov	 edx, DWORD PTR _i$[ebp]
  00566	83 ea 0a	 sub	 edx, 10			; 0000000aH
  00569	6b c2 19	 imul	 eax, edx, 25
  0056c	8b 4d e8	 mov	 ecx, DWORD PTR _y$[ebp]
  0056f	8d 54 01 50	 lea	 edx, DWORD PTR [ecx+eax+80]
  00573	52		 push	 edx
  00574	8b 45 f4	 mov	 eax, DWORD PTR _x$[ebp]
  00577	05 a5 00 00 00	 add	 eax, 165		; 000000a5H
  0057c	50		 push	 eax
  0057d	e8 00 00 00 00	 call	 ?StockFontBuffer@@YAHHHDHPADH@Z ; StockFontBuffer
  00582	83 c4 18	 add	 esp, 24			; 00000018H
  00585	eb 3d		 jmp	 SHORT $LN38@joinChanne
$LN39@joinChanne:

; 5196 : 				else if(i < 30)

  00587	83 7d c4 1e	 cmp	 DWORD PTR _i$[ebp], 30	; 0000001eH
  0058b	7d 37		 jge	 SHORT $LN38@joinChanne

; 5197 : 					StockFontBuffer(x + 25 + 280, y + 80 + (i - 20) * 25, FONT_PRIO_FRONT, color, channelData.name[i], 0);

  0058d	6a 00		 push	 0
  0058f	6b 45 c4 14	 imul	 eax, DWORD PTR _i$[ebp], 20
  00593	05 9c 01 00 00	 add	 eax, OFFSET ?channelData@@3UTchannelData@@A+412
  00598	50		 push	 eax
  00599	8b 8d a4 fb ff
	ff		 mov	 ecx, DWORD PTR _color$1[ebp]
  0059f	51		 push	 ecx
  005a0	6a 01		 push	 1
  005a2	8b 55 c4	 mov	 edx, DWORD PTR _i$[ebp]
  005a5	83 ea 14	 sub	 edx, 20			; 00000014H
  005a8	6b c2 19	 imul	 eax, edx, 25
  005ab	8b 4d e8	 mov	 ecx, DWORD PTR _y$[ebp]
  005ae	8d 54 01 50	 lea	 edx, DWORD PTR [ecx+eax+80]
  005b2	52		 push	 edx
  005b3	8b 45 f4	 mov	 eax, DWORD PTR _x$[ebp]
  005b6	05 31 01 00 00	 add	 eax, 305		; 00000131H
  005bb	50		 push	 eax
  005bc	e8 00 00 00 00	 call	 ?StockFontBuffer@@YAHHHDHPADH@Z ; StockFontBuffer
  005c1	83 c4 18	 add	 esp, 24			; 00000018H
$LN38@joinChanne:

; 5198 : 			}

  005c4	e9 af 01 00 00	 jmp	 $LN36@joinChanne
$LN35@joinChanne:

; 5199 : 			else if (pageNum == 1 && i >= 30 && i < 60)

  005c9	83 3d 00 00 00
	00 01		 cmp	 DWORD PTR ?pageNum@@3HA, 1
  005d0	0f 85 d2 00 00
	00		 jne	 $LN42@joinChanne
  005d6	83 7d c4 1e	 cmp	 DWORD PTR _i$[ebp], 30	; 0000001eH
  005da	0f 8c c8 00 00
	00		 jl	 $LN42@joinChanne
  005e0	83 7d c4 3c	 cmp	 DWORD PTR _i$[ebp], 60	; 0000003cH
  005e4	0f 8d be 00 00
	00		 jge	 $LN42@joinChanne

; 5200 : 			{
; 5201 : 				if (i < 40)

  005ea	83 7d c4 28	 cmp	 DWORD PTR _i$[ebp], 40	; 00000028H
  005ee	7d 37		 jge	 SHORT $LN44@joinChanne

; 5202 : 					StockFontBuffer(x + 25, y + 80 + (i - 30) * 25, FONT_PRIO_FRONT, color, channelData.name[i], 0);

  005f0	6a 00		 push	 0
  005f2	6b 45 c4 14	 imul	 eax, DWORD PTR _i$[ebp], 20
  005f6	05 9c 01 00 00	 add	 eax, OFFSET ?channelData@@3UTchannelData@@A+412
  005fb	50		 push	 eax
  005fc	8b 8d a4 fb ff
	ff		 mov	 ecx, DWORD PTR _color$1[ebp]
  00602	51		 push	 ecx
  00603	6a 01		 push	 1
  00605	8b 55 c4	 mov	 edx, DWORD PTR _i$[ebp]
  00608	83 ea 1e	 sub	 edx, 30			; 0000001eH
  0060b	6b c2 19	 imul	 eax, edx, 25
  0060e	8b 4d e8	 mov	 ecx, DWORD PTR _y$[ebp]
  00611	8d 54 01 50	 lea	 edx, DWORD PTR [ecx+eax+80]
  00615	52		 push	 edx
  00616	8b 45 f4	 mov	 eax, DWORD PTR _x$[ebp]
  00619	83 c0 19	 add	 eax, 25			; 00000019H
  0061c	50		 push	 eax
  0061d	e8 00 00 00 00	 call	 ?StockFontBuffer@@YAHHHDHPADH@Z ; StockFontBuffer
  00622	83 c4 18	 add	 esp, 24			; 00000018H
  00625	eb 7c		 jmp	 SHORT $LN45@joinChanne
$LN44@joinChanne:

; 5203 : 				else if (i < 50)

  00627	83 7d c4 32	 cmp	 DWORD PTR _i$[ebp], 50	; 00000032H
  0062b	7d 39		 jge	 SHORT $LN46@joinChanne

; 5204 : 					StockFontBuffer(x + 25 + 140, y + 80 + (i - 40) * 25, FONT_PRIO_FRONT, color, channelData.name[i], 0);

  0062d	6a 00		 push	 0
  0062f	6b 45 c4 14	 imul	 eax, DWORD PTR _i$[ebp], 20
  00633	05 9c 01 00 00	 add	 eax, OFFSET ?channelData@@3UTchannelData@@A+412
  00638	50		 push	 eax
  00639	8b 8d a4 fb ff
	ff		 mov	 ecx, DWORD PTR _color$1[ebp]
  0063f	51		 push	 ecx
  00640	6a 01		 push	 1
  00642	8b 55 c4	 mov	 edx, DWORD PTR _i$[ebp]
  00645	83 ea 28	 sub	 edx, 40			; 00000028H
  00648	6b c2 19	 imul	 eax, edx, 25
  0064b	8b 4d e8	 mov	 ecx, DWORD PTR _y$[ebp]
  0064e	8d 54 01 50	 lea	 edx, DWORD PTR [ecx+eax+80]
  00652	52		 push	 edx
  00653	8b 45 f4	 mov	 eax, DWORD PTR _x$[ebp]
  00656	05 a5 00 00 00	 add	 eax, 165		; 000000a5H
  0065b	50		 push	 eax
  0065c	e8 00 00 00 00	 call	 ?StockFontBuffer@@YAHHHDHPADH@Z ; StockFontBuffer
  00661	83 c4 18	 add	 esp, 24			; 00000018H
  00664	eb 3d		 jmp	 SHORT $LN45@joinChanne
$LN46@joinChanne:

; 5205 : 				else if (i < 60)

  00666	83 7d c4 3c	 cmp	 DWORD PTR _i$[ebp], 60	; 0000003cH
  0066a	7d 37		 jge	 SHORT $LN45@joinChanne

; 5206 : 					StockFontBuffer(x + 25 + 280, y + 80 + (i - 50) * 25, FONT_PRIO_FRONT, color, channelData.name[i], 0);

  0066c	6a 00		 push	 0
  0066e	6b 45 c4 14	 imul	 eax, DWORD PTR _i$[ebp], 20
  00672	05 9c 01 00 00	 add	 eax, OFFSET ?channelData@@3UTchannelData@@A+412
  00677	50		 push	 eax
  00678	8b 8d a4 fb ff
	ff		 mov	 ecx, DWORD PTR _color$1[ebp]
  0067e	51		 push	 ecx
  0067f	6a 01		 push	 1
  00681	8b 55 c4	 mov	 edx, DWORD PTR _i$[ebp]
  00684	83 ea 32	 sub	 edx, 50			; 00000032H
  00687	6b c2 19	 imul	 eax, edx, 25
  0068a	8b 4d e8	 mov	 ecx, DWORD PTR _y$[ebp]
  0068d	8d 54 01 50	 lea	 edx, DWORD PTR [ecx+eax+80]
  00691	52		 push	 edx
  00692	8b 45 f4	 mov	 eax, DWORD PTR _x$[ebp]
  00695	05 31 01 00 00	 add	 eax, 305		; 00000131H
  0069a	50		 push	 eax
  0069b	e8 00 00 00 00	 call	 ?StockFontBuffer@@YAHHHDHPADH@Z ; StockFontBuffer
  006a0	83 c4 18	 add	 esp, 24			; 00000018H
$LN45@joinChanne:

; 5207 : 			}

  006a3	e9 d0 00 00 00	 jmp	 $LN36@joinChanne
$LN42@joinChanne:

; 5208 : 			else if (pageNum == 2 && i >= 60)

  006a8	83 3d 00 00 00
	00 02		 cmp	 DWORD PTR ?pageNum@@3HA, 2
  006af	0f 85 c3 00 00
	00		 jne	 $LN36@joinChanne
  006b5	83 7d c4 3c	 cmp	 DWORD PTR _i$[ebp], 60	; 0000003cH
  006b9	0f 8c b9 00 00
	00		 jl	 $LN36@joinChanne

; 5209 : 			{
; 5210 : 				if (i < 70)

  006bf	83 7d c4 46	 cmp	 DWORD PTR _i$[ebp], 70	; 00000046H
  006c3	7d 37		 jge	 SHORT $LN50@joinChanne

; 5211 : 					StockFontBuffer(x + 25, y + 80 + (i - 60) * 25, FONT_PRIO_FRONT, color, channelData.name[i], 0);

  006c5	6a 00		 push	 0
  006c7	6b 45 c4 14	 imul	 eax, DWORD PTR _i$[ebp], 20
  006cb	05 9c 01 00 00	 add	 eax, OFFSET ?channelData@@3UTchannelData@@A+412
  006d0	50		 push	 eax
  006d1	8b 8d a4 fb ff
	ff		 mov	 ecx, DWORD PTR _color$1[ebp]
  006d7	51		 push	 ecx
  006d8	6a 01		 push	 1
  006da	8b 55 c4	 mov	 edx, DWORD PTR _i$[ebp]
  006dd	83 ea 3c	 sub	 edx, 60			; 0000003cH
  006e0	6b c2 19	 imul	 eax, edx, 25
  006e3	8b 4d e8	 mov	 ecx, DWORD PTR _y$[ebp]
  006e6	8d 54 01 50	 lea	 edx, DWORD PTR [ecx+eax+80]
  006ea	52		 push	 edx
  006eb	8b 45 f4	 mov	 eax, DWORD PTR _x$[ebp]
  006ee	83 c0 19	 add	 eax, 25			; 00000019H
  006f1	50		 push	 eax
  006f2	e8 00 00 00 00	 call	 ?StockFontBuffer@@YAHHHDHPADH@Z ; StockFontBuffer
  006f7	83 c4 18	 add	 esp, 24			; 00000018H
  006fa	eb 7c		 jmp	 SHORT $LN36@joinChanne
$LN50@joinChanne:

; 5212 : 				else if (i < 80)

  006fc	83 7d c4 50	 cmp	 DWORD PTR _i$[ebp], 80	; 00000050H
  00700	7d 39		 jge	 SHORT $LN52@joinChanne

; 5213 : 					StockFontBuffer(x + 25 + 140, y + 80 + (i - 70) * 25, FONT_PRIO_FRONT, color, channelData.name[i], 0);

  00702	6a 00		 push	 0
  00704	6b 45 c4 14	 imul	 eax, DWORD PTR _i$[ebp], 20
  00708	05 9c 01 00 00	 add	 eax, OFFSET ?channelData@@3UTchannelData@@A+412
  0070d	50		 push	 eax
  0070e	8b 8d a4 fb ff
	ff		 mov	 ecx, DWORD PTR _color$1[ebp]
  00714	51		 push	 ecx
  00715	6a 01		 push	 1
  00717	8b 55 c4	 mov	 edx, DWORD PTR _i$[ebp]
  0071a	83 ea 46	 sub	 edx, 70			; 00000046H
  0071d	6b c2 19	 imul	 eax, edx, 25
  00720	8b 4d e8	 mov	 ecx, DWORD PTR _y$[ebp]
  00723	8d 54 01 50	 lea	 edx, DWORD PTR [ecx+eax+80]
  00727	52		 push	 edx
  00728	8b 45 f4	 mov	 eax, DWORD PTR _x$[ebp]
  0072b	05 a5 00 00 00	 add	 eax, 165		; 000000a5H
  00730	50		 push	 eax
  00731	e8 00 00 00 00	 call	 ?StockFontBuffer@@YAHHHDHPADH@Z ; StockFontBuffer
  00736	83 c4 18	 add	 esp, 24			; 00000018H
  00739	eb 3d		 jmp	 SHORT $LN36@joinChanne
$LN52@joinChanne:

; 5214 : 				else if (i < 90)

  0073b	83 7d c4 5a	 cmp	 DWORD PTR _i$[ebp], 90	; 0000005aH
  0073f	7d 37		 jge	 SHORT $LN36@joinChanne

; 5215 : 					StockFontBuffer(x + 25 + 280, y + 80 + (i - 80) * 25, FONT_PRIO_FRONT, color, channelData.name[i], 0);

  00741	6a 00		 push	 0
  00743	6b 45 c4 14	 imul	 eax, DWORD PTR _i$[ebp], 20
  00747	05 9c 01 00 00	 add	 eax, OFFSET ?channelData@@3UTchannelData@@A+412
  0074c	50		 push	 eax
  0074d	8b 8d a4 fb ff
	ff		 mov	 ecx, DWORD PTR _color$1[ebp]
  00753	51		 push	 ecx
  00754	6a 01		 push	 1
  00756	8b 55 c4	 mov	 edx, DWORD PTR _i$[ebp]
  00759	83 ea 50	 sub	 edx, 80			; 00000050H
  0075c	6b c2 19	 imul	 eax, edx, 25
  0075f	8b 4d e8	 mov	 ecx, DWORD PTR _y$[ebp]
  00762	8d 54 01 50	 lea	 edx, DWORD PTR [ecx+eax+80]
  00766	52		 push	 edx
  00767	8b 45 f4	 mov	 eax, DWORD PTR _x$[ebp]
  0076a	05 31 01 00 00	 add	 eax, 305		; 00000131H
  0076f	50		 push	 eax
  00770	e8 00 00 00 00	 call	 ?StockFontBuffer@@YAHHHDHPADH@Z ; StockFontBuffer
  00775	83 c4 18	 add	 esp, 24			; 00000018H
$LN36@joinChanne:

; 5216 : 			}
; 5217 : 		}

  00778	e9 41 fd ff ff	 jmp	 $LN8@joinChanne
$LN1@joinChanne:

; 5218 : 	}
; 5219 : }

  0077d	52		 push	 edx
  0077e	8b cd		 mov	 ecx, ebp
  00780	50		 push	 eax
  00781	8d 15 00 00 00
	00		 lea	 edx, DWORD PTR $LN58@joinChanne
  00787	e8 00 00 00 00	 call	 @_RTC_CheckStackVars@8
  0078c	58		 pop	 eax
  0078d	5a		 pop	 edx
  0078e	5f		 pop	 edi
  0078f	5e		 pop	 esi
  00790	5b		 pop	 ebx
  00791	8b 4d fc	 mov	 ecx, DWORD PTR __$ArrayPad$[ebp]
  00794	33 cd		 xor	 ecx, ebp
  00796	e8 00 00 00 00	 call	 @__security_check_cookie@4
  0079b	81 c4 a4 06 00
	00		 add	 esp, 1700		; 000006a4H
  007a1	3b ec		 cmp	 ebp, esp
  007a3	e8 00 00 00 00	 call	 __RTC_CheckEsp
  007a8	8b e5		 mov	 esp, ebp
  007aa	5d		 pop	 ebp
  007ab	c3		 ret	 0
$LN58@joinChanne:
  007ac	01 00 00 00	 DD	 1
  007b0	00 00 00 00	 DD	 $LN57@joinChanne
$LN57@joinChanne:
  007b4	bc fb ff ff	 DD	 -1092			; fffffbbcH
  007b8	00 04 00 00	 DD	 1024			; 00000400H
  007bc	00 00 00 00	 DD	 $LN56@joinChanne
$LN56@joinChanne:
  007c0	62		 DB	 98			; 00000062H
  007c1	75		 DB	 117			; 00000075H
  007c2	66		 DB	 102			; 00000066H
  007c3	00		 DB	 0
$LN59@joinChanne:
  007c4	00 00 00 00	 DD	 $LN17@joinChanne
  007c8	00 00 00 00	 DD	 $LN20@joinChanne
  007cc	00 00 00 00	 DD	 $LN24@joinChanne
  007d0	00 00 00 00	 DD	 $LN26@joinChanne
?joinChannel2WN@@YAXXZ ENDP				; joinChannel2WN
_TEXT	ENDS
; Function compile flags: /Odtp /RTCsu /ZI
; File c:\users\administrator\desktop\????? ??\????? ??\client source code\system\field.cpp
;	COMDAT ?closeJoinChannel2WN@@YAXXZ
_TEXT	SEGMENT
?closeJoinChannel2WN@@YAXXZ PROC			; closeJoinChannel2WN, COMDAT

; 5075 : {

  00000	55		 push	 ebp
  00001	8b ec		 mov	 ebp, esp
  00003	81 ec c0 00 00
	00		 sub	 esp, 192		; 000000c0H
  00009	53		 push	 ebx
  0000a	56		 push	 esi
  0000b	57		 push	 edi
  0000c	8d bd 40 ff ff
	ff		 lea	 edi, DWORD PTR [ebp-192]
  00012	b9 30 00 00 00	 mov	 ecx, 48			; 00000030H
  00017	b8 cc cc cc cc	 mov	 eax, -858993460		; ccccccccH
  0001c	f3 ab		 rep stosd

; 5076 : 	joinChannel2Proc = 0;

  0001e	33 c0		 xor	 eax, eax
  00020	66 a3 00 00 00
	00		 mov	 WORD PTR ?joinChannel2Proc@@3FA, ax

; 5077 : 	DeathAction(ptActChannel2Win);

  00026	a1 00 00 00 00	 mov	 eax, DWORD PTR ?ptActChannel2Win@@3PAUaction@@A
  0002b	50		 push	 eax
  0002c	e8 00 00 00 00	 call	 ?DeathAction@@YAXPAUaction@@@Z ; DeathAction
  00031	83 c4 04	 add	 esp, 4

; 5078 : 	ptActChannel2Win = NULL;

  00034	c7 05 00 00 00
	00 00 00 00 00	 mov	 DWORD PTR ?ptActChannel2Win@@3PAUaction@@A, 0

; 5079 : }

  0003e	5f		 pop	 edi
  0003f	5e		 pop	 esi
  00040	5b		 pop	 ebx
  00041	81 c4 c0 00 00
	00		 add	 esp, 192		; 000000c0H
  00047	3b ec		 cmp	 ebp, esp
  00049	e8 00 00 00 00	 call	 __RTC_CheckEsp
  0004e	8b e5		 mov	 esp, ebp
  00050	5d		 pop	 ebp
  00051	c3		 ret	 0
?closeJoinChannel2WN@@YAXXZ ENDP			; closeJoinChannel2WN
_TEXT	ENDS
; Function compile flags: /Odtp /RTCsu /ZI
; File c:\users\administrator\desktop\????? ??\????? ??\client source code\system\field.cpp
;	COMDAT ?initJoinChannel2WN@@YAXPAD@Z
_TEXT	SEGMENT
_buf$ = -276						; size = 256
_i$ = -12						; size = 4
__$ArrayPad$ = -4					; size = 4
_data$ = 8						; size = 4
?initJoinChannel2WN@@YAXPAD@Z PROC			; initJoinChannel2WN, COMDAT

; 5045 : {

  00000	55		 push	 ebp
  00001	8b ec		 mov	 ebp, esp
  00003	81 ec d8 01 00
	00		 sub	 esp, 472		; 000001d8H
  00009	53		 push	 ebx
  0000a	56		 push	 esi
  0000b	57		 push	 edi
  0000c	8d bd 28 fe ff
	ff		 lea	 edi, DWORD PTR [ebp-472]
  00012	b9 76 00 00 00	 mov	 ecx, 118		; 00000076H
  00017	b8 cc cc cc cc	 mov	 eax, -858993460		; ccccccccH
  0001c	f3 ab		 rep stosd
  0001e	a1 00 00 00 00	 mov	 eax, DWORD PTR ___security_cookie
  00023	33 c5		 xor	 eax, ebp
  00025	89 45 fc	 mov	 DWORD PTR __$ArrayPad$[ebp], eax

; 5046 : 	int i;
; 5047 : 	char buf[256];
; 5048 : 	
; 5049 : 	channelData.joinNum = 0;

  00028	c7 05 98 01 00
	00 00 00 00 00	 mov	 DWORD PTR ?channelData@@3UTchannelData@@A+408, 0

; 5050 : 	getStringToken(data, '|', 3, sizeof(buf) - 1, buf);

  00032	8d 85 ec fe ff
	ff		 lea	 eax, DWORD PTR _buf$[ebp]
  00038	50		 push	 eax
  00039	68 ff 00 00 00	 push	 255			; 000000ffH
  0003e	6a 03		 push	 3
  00040	6a 7c		 push	 124			; 0000007cH
  00042	8b 4d 08	 mov	 ecx, DWORD PTR _data$[ebp]
  00045	51		 push	 ecx
  00046	e8 00 00 00 00	 call	 ?getStringToken@@YAHPADDHH0@Z ; getStringToken
  0004b	83 c4 14	 add	 esp, 20			; 00000014H

; 5051 : 	channelData.index = atoi(buf);

  0004e	8b f4		 mov	 esi, esp
  00050	8d 85 ec fe ff
	ff		 lea	 eax, DWORD PTR _buf$[ebp]
  00056	50		 push	 eax
  00057	ff 15 00 00 00
	00		 call	 DWORD PTR __imp__atoi
  0005d	83 c4 04	 add	 esp, 4
  00060	3b f4		 cmp	 esi, esp
  00062	e8 00 00 00 00	 call	 __RTC_CheckEsp
  00067	a3 00 00 00 00	 mov	 DWORD PTR ?channelData@@3UTchannelData@@A, eax

; 5052 : 	getStringToken(data, '|', 4, sizeof(buf) - 1, buf);

  0006c	8d 85 ec fe ff
	ff		 lea	 eax, DWORD PTR _buf$[ebp]
  00072	50		 push	 eax
  00073	68 ff 00 00 00	 push	 255			; 000000ffH
  00078	6a 04		 push	 4
  0007a	6a 7c		 push	 124			; 0000007cH
  0007c	8b 4d 08	 mov	 ecx, DWORD PTR _data$[ebp]
  0007f	51		 push	 ecx
  00080	e8 00 00 00 00	 call	 ?getStringToken@@YAHPADDHH0@Z ; getStringToken
  00085	83 c4 14	 add	 esp, 20			; 00000014H

; 5053 : 	channelData.num = atoi(buf);

  00088	8b f4		 mov	 esi, esp
  0008a	8d 85 ec fe ff
	ff		 lea	 eax, DWORD PTR _buf$[ebp]
  00090	50		 push	 eax
  00091	ff 15 00 00 00
	00		 call	 DWORD PTR __imp__atoi
  00097	83 c4 04	 add	 esp, 4
  0009a	3b f4		 cmp	 esi, esp
  0009c	e8 00 00 00 00	 call	 __RTC_CheckEsp
  000a1	a3 04 00 00 00	 mov	 DWORD PTR ?channelData@@3UTchannelData@@A+4, eax

; 5054 : 	
; 5055 : 	if (channelData.num > 0)

  000a6	83 3d 04 00 00
	00 00		 cmp	 DWORD PTR ?channelData@@3UTchannelData@@A+4, 0
  000ad	0f 8e da 00 00
	00		 jle	 $LN5@initJoinCh

; 5056 : 	{
; 5057 : 		for (i = 0; i < channelData.num && i < FAMILY_MAXMEMBER; i++)

  000b3	c7 45 f4 00 00
	00 00		 mov	 DWORD PTR _i$[ebp], 0
  000ba	eb 09		 jmp	 SHORT $LN4@initJoinCh
$LN2@initJoinCh:
  000bc	8b 45 f4	 mov	 eax, DWORD PTR _i$[ebp]
  000bf	83 c0 01	 add	 eax, 1
  000c2	89 45 f4	 mov	 DWORD PTR _i$[ebp], eax
$LN4@initJoinCh:
  000c5	8b 45 f4	 mov	 eax, DWORD PTR _i$[ebp]
  000c8	3b 05 04 00 00
	00		 cmp	 eax, DWORD PTR ?channelData@@3UTchannelData@@A+4
  000ce	0f 8d b9 00 00
	00		 jge	 $LN5@initJoinCh
  000d4	83 7d f4 64	 cmp	 DWORD PTR _i$[ebp], 100	; 00000064H
  000d8	0f 8d af 00 00
	00		 jge	 $LN5@initJoinCh

; 5058 : 		{
; 5059 : 			getStringToken(data, '|', 4 + (i * 2) + 1, sizeof(buf) - 1, buf);

  000de	8d 85 ec fe ff
	ff		 lea	 eax, DWORD PTR _buf$[ebp]
  000e4	50		 push	 eax
  000e5	68 ff 00 00 00	 push	 255			; 000000ffH
  000ea	8b 4d f4	 mov	 ecx, DWORD PTR _i$[ebp]
  000ed	8d 54 09 05	 lea	 edx, DWORD PTR [ecx+ecx+5]
  000f1	52		 push	 edx
  000f2	6a 7c		 push	 124			; 0000007cH
  000f4	8b 45 08	 mov	 eax, DWORD PTR _data$[ebp]
  000f7	50		 push	 eax
  000f8	e8 00 00 00 00	 call	 ?getStringToken@@YAHPADDHH0@Z ; getStringToken
  000fd	83 c4 14	 add	 esp, 20			; 00000014H

; 5060 : 			channelData.join[i] = atoi(buf);

  00100	8b f4		 mov	 esi, esp
  00102	8d 85 ec fe ff
	ff		 lea	 eax, DWORD PTR _buf$[ebp]
  00108	50		 push	 eax
  00109	ff 15 00 00 00
	00		 call	 DWORD PTR __imp__atoi
  0010f	83 c4 04	 add	 esp, 4
  00112	3b f4		 cmp	 esi, esp
  00114	e8 00 00 00 00	 call	 __RTC_CheckEsp
  00119	8b 4d f4	 mov	 ecx, DWORD PTR _i$[ebp]
  0011c	89 04 8d 08 00
	00 00		 mov	 DWORD PTR ?channelData@@3UTchannelData@@A[ecx*4+8], eax

; 5061 : 			if (channelData.join[i] == 1)

  00123	8b 45 f4	 mov	 eax, DWORD PTR _i$[ebp]
  00126	83 3c 85 08 00
	00 00 01	 cmp	 DWORD PTR ?channelData@@3UTchannelData@@A[eax*4+8], 1
  0012e	75 0d		 jne	 SHORT $LN6@initJoinCh

; 5062 : 				channelData.joinNum++;

  00130	a1 98 01 00 00	 mov	 eax, DWORD PTR ?channelData@@3UTchannelData@@A+408
  00135	83 c0 01	 add	 eax, 1
  00138	a3 98 01 00 00	 mov	 DWORD PTR ?channelData@@3UTchannelData@@A+408, eax
$LN6@initJoinCh:

; 5063 : 			getStringToken(data, '|', 4 + (i * 2) + 2, sizeof(buf) - 1, buf);

  0013d	8d 85 ec fe ff
	ff		 lea	 eax, DWORD PTR _buf$[ebp]
  00143	50		 push	 eax
  00144	68 ff 00 00 00	 push	 255			; 000000ffH
  00149	8b 4d f4	 mov	 ecx, DWORD PTR _i$[ebp]
  0014c	8d 54 09 06	 lea	 edx, DWORD PTR [ecx+ecx+6]
  00150	52		 push	 edx
  00151	6a 7c		 push	 124			; 0000007cH
  00153	8b 45 08	 mov	 eax, DWORD PTR _data$[ebp]
  00156	50		 push	 eax
  00157	e8 00 00 00 00	 call	 ?getStringToken@@YAHPADDHH0@Z ; getStringToken
  0015c	83 c4 14	 add	 esp, 20			; 00000014H

; 5064 : 			makeStringFromEscaped(buf);

  0015f	8d 85 ec fe ff
	ff		 lea	 eax, DWORD PTR _buf$[ebp]
  00165	50		 push	 eax
  00166	e8 00 00 00 00	 call	 ?makeStringFromEscaped@@YAPADPAD@Z ; makeStringFromEscaped
  0016b	83 c4 04	 add	 esp, 4

; 5065 : 			strcpy(channelData.name[i], buf);

  0016e	8d 85 ec fe ff
	ff		 lea	 eax, DWORD PTR _buf$[ebp]
  00174	50		 push	 eax
  00175	6b 4d f4 14	 imul	 ecx, DWORD PTR _i$[ebp], 20
  00179	81 c1 9c 01 00
	00		 add	 ecx, OFFSET ?channelData@@3UTchannelData@@A+412
  0017f	51		 push	 ecx
  00180	e8 00 00 00 00	 call	 _strcpy
  00185	83 c4 08	 add	 esp, 8

; 5066 : 		}

  00188	e9 2f ff ff ff	 jmp	 $LN2@initJoinCh
$LN5@initJoinCh:

; 5067 : 	}
; 5068 : 	pageNum = 0;

  0018d	c7 05 00 00 00
	00 00 00 00 00	 mov	 DWORD PTR ?pageNum@@3HA, 0

; 5069 : 	play_se(202, 320, 240);	// ????????

  00197	68 f0 00 00 00	 push	 240			; 000000f0H
  0019c	68 40 01 00 00	 push	 320			; 00000140H
  001a1	68 ca 00 00 00	 push	 202			; 000000caH
  001a6	e8 00 00 00 00	 call	 ?play_se@@YAHHHH@Z	; play_se
  001ab	83 c4 0c	 add	 esp, 12			; 0000000cH

; 5070 : 	joinChannel2Proc = 1000;

  001ae	b8 e8 03 00 00	 mov	 eax, 1000		; 000003e8H
  001b3	66 a3 00 00 00
	00		 mov	 WORD PTR ?joinChannel2Proc@@3FA, ax

; 5071 : 
; 5072 : }

  001b9	52		 push	 edx
  001ba	8b cd		 mov	 ecx, ebp
  001bc	50		 push	 eax
  001bd	8d 15 00 00 00
	00		 lea	 edx, DWORD PTR $LN10@initJoinCh
  001c3	e8 00 00 00 00	 call	 @_RTC_CheckStackVars@8
  001c8	58		 pop	 eax
  001c9	5a		 pop	 edx
  001ca	5f		 pop	 edi
  001cb	5e		 pop	 esi
  001cc	5b		 pop	 ebx
  001cd	8b 4d fc	 mov	 ecx, DWORD PTR __$ArrayPad$[ebp]
  001d0	33 cd		 xor	 ecx, ebp
  001d2	e8 00 00 00 00	 call	 @__security_check_cookie@4
  001d7	81 c4 d8 01 00
	00		 add	 esp, 472		; 000001d8H
  001dd	3b ec		 cmp	 ebp, esp
  001df	e8 00 00 00 00	 call	 __RTC_CheckEsp
  001e4	8b e5		 mov	 esp, ebp
  001e6	5d		 pop	 ebp
  001e7	c3		 ret	 0
$LN10@initJoinCh:
  001e8	01 00 00 00	 DD	 1
  001ec	00 00 00 00	 DD	 $LN9@initJoinCh
$LN9@initJoinCh:
  001f0	ec fe ff ff	 DD	 -276			; fffffeecH
  001f4	00 01 00 00	 DD	 256			; 00000100H
  001f8	00 00 00 00	 DD	 $LN8@initJoinCh
$LN8@initJoinCh:
  001fc	62		 DB	 98			; 00000062H
  001fd	75		 DB	 117			; 00000075H
  001fe	66		 DB	 102			; 00000066H
  001ff	00		 DB	 0
?initJoinChannel2WN@@YAXPAD@Z ENDP			; initJoinChannel2WN
_TEXT	ENDS
; Function compile flags: /Odtp /RTCsu /ZI
; File c:\users\administrator\desktop\????? ??\????? ??\client source code\system\field.cpp
;	COMDAT ?joinChannelWN@@YAXXZ
_TEXT	SEGMENT
tv286 = -1772						; size = 4
tv132 = -1772						; size = 4
_selgraId$ = -1188					; size = 4
_selId$ = -1176						; size = 4
_buf2$ = -1164						; size = 64
_buf$ = -1092						; size = 1024
_i$ = -60						; size = 4
_h$ = -48						; size = 4
_w$ = -36						; size = 4
_y$ = -24						; size = 4
_x$ = -12						; size = 4
__$ArrayPad$ = -4					; size = 4
?joinChannelWN@@YAXXZ PROC				; joinChannelWN, COMDAT

; 4787 : {

  00000	55		 push	 ebp
  00001	8b ec		 mov	 ebp, esp
  00003	81 ec ec 06 00
	00		 sub	 esp, 1772		; 000006ecH
  00009	53		 push	 ebx
  0000a	56		 push	 esi
  0000b	57		 push	 edi
  0000c	8d bd 14 f9 ff
	ff		 lea	 edi, DWORD PTR [ebp-1772]
  00012	b9 bb 01 00 00	 mov	 ecx, 443		; 000001bbH
  00017	b8 cc cc cc cc	 mov	 eax, -858993460		; ccccccccH
  0001c	f3 ab		 rep stosd
  0001e	a1 00 00 00 00	 mov	 eax, DWORD PTR ___security_cookie
  00023	33 c5		 xor	 eax, ebp
  00025	89 45 fc	 mov	 DWORD PTR __$ArrayPad$[ebp], eax

; 4788 : 	//static ACTION *ptActMenuWin = NULL;
; 4789 : 	int x, y, w, h, i;
; 4790 : #ifndef _FM_MODIFY
; 4791 : 	static int btnId[9];
; 4792 : #else
; 4793 : 	static int btnId[5];
; 4794 : #endif
; 4795 : 	static int graId[1];
; 4796 : 	char buf[1024], buf2[64];
; 4797 : 	int selId = 0;

  00028	c7 85 68 fb ff
	ff 00 00 00 00	 mov	 DWORD PTR _selId$[ebp], 0

; 4798 : 	int selgraId;
; 4799 : 
; 4800 : 	x = 20;

  00032	c7 45 f4 14 00
	00 00		 mov	 DWORD PTR _x$[ebp], 20	; 00000014H

; 4801 : 	y = 30;

  00039	c7 45 e8 1e 00
	00 00		 mov	 DWORD PTR _y$[ebp], 30	; 0000001eH

; 4802 : 	w = 2;

  00040	c7 45 dc 02 00
	00 00		 mov	 DWORD PTR _w$[ebp], 2

; 4803 : #ifndef _FM_MODIFY
; 4804 : 	h = 8;
; 4805 : #else
; 4806 : 	h = 5;

  00047	c7 45 d0 05 00
	00 00		 mov	 DWORD PTR _h$[ebp], 5

; 4807 : #endif
; 4808 : 
; 4809 : 
; 4810 : 	if (ptActChannelWin == NULL)

  0004e	83 3d 00 00 00
	00 00		 cmp	 DWORD PTR ?ptActChannelWin@@3PAUaction@@A, 0
  00055	75 64		 jne	 SHORT $LN12@joinChanne

; 4811 : 	{
; 4812 : 		ptActChannelWin = MakeWindowDisp(x, y, w, h, NULL, 1);

  00057	6a 01		 push	 1
  00059	6a 00		 push	 0
  0005b	8b 45 d0	 mov	 eax, DWORD PTR _h$[ebp]
  0005e	50		 push	 eax
  0005f	8b 4d dc	 mov	 ecx, DWORD PTR _w$[ebp]
  00062	51		 push	 ecx
  00063	8b 55 e8	 mov	 edx, DWORD PTR _y$[ebp]
  00066	52		 push	 edx
  00067	8b 45 f4	 mov	 eax, DWORD PTR _x$[ebp]
  0006a	50		 push	 eax
  0006b	e8 00 00 00 00	 call	 ?MakeWindowDisp@@YAPAUaction@@HHHHHH@Z ; MakeWindowDisp
  00070	83 c4 18	 add	 esp, 24			; 00000018H
  00073	a3 00 00 00 00	 mov	 DWORD PTR ?ptActChannelWin@@3PAUaction@@A, eax

; 4813 : #ifdef _NEW_RESOMODE  //800 600妯″
; 4814 : 		x = ptActChannelWin->x;

  00078	a1 00 00 00 00	 mov	 eax, DWORD PTR ?ptActChannelWin@@3PAUaction@@A
  0007d	8b 48 18	 mov	 ecx, DWORD PTR [eax+24]
  00080	89 4d f4	 mov	 DWORD PTR _x$[ebp], ecx

; 4815 : 		y = ptActChannelWin->y;

  00083	a1 00 00 00 00	 mov	 eax, DWORD PTR ?ptActChannelWin@@3PAUaction@@A
  00088	8b 48 1c	 mov	 ecx, DWORD PTR [eax+28]
  0008b	89 4d e8	 mov	 DWORD PTR _y$[ebp], ecx

; 4816 : #endif
; 4817 : 		for (i = 0; i < sizeof(btnId) / sizeof(int); i++)

  0008e	c7 45 c4 00 00
	00 00		 mov	 DWORD PTR _i$[ebp], 0
  00095	eb 09		 jmp	 SHORT $LN4@joinChanne
$LN2@joinChanne:
  00097	8b 45 c4	 mov	 eax, DWORD PTR _i$[ebp]
  0009a	83 c0 01	 add	 eax, 1
  0009d	89 45 c4	 mov	 DWORD PTR _i$[ebp], eax
$LN4@joinChanne:
  000a0	83 7d c4 05	 cmp	 DWORD PTR _i$[ebp], 5
  000a4	73 10		 jae	 SHORT $LN3@joinChanne

; 4818 : 			btnId[i] = -2;

  000a6	8b 45 c4	 mov	 eax, DWORD PTR _i$[ebp]
  000a9	c7 04 85 00 00
	00 00 fe ff ff
	ff		 mov	 DWORD PTR ?btnId@?1??joinChannelWN@@YAXXZ@4PAHA[eax*4], -2 ; fffffffeH
  000b4	eb e1		 jmp	 SHORT $LN2@joinChanne
$LN3@joinChanne:

; 4819 : 	}
; 4820 : 	else

  000b6	e9 15 05 00 00	 jmp	 $LN1@joinChanne
$LN12@joinChanne:

; 4821 : 	{
; 4822 : 		if (ptActChannelWin->hp >= 1)

  000bb	a1 00 00 00 00	 mov	 eax, DWORD PTR ?ptActChannelWin@@3PAUaction@@A
  000c0	83 78 78 01	 cmp	 DWORD PTR [eax+120], 1
  000c4	0f 8c 06 05 00
	00		 jl	 $LN1@joinChanne

; 4823 : 		{
; 4824 : 			// ESC????????
; 4825 : 			if (((joy_trg[0] & JOY_ESC) && GetImeString() == NULL))

  000ca	b8 04 00 00 00	 mov	 eax, 4
  000cf	6b c8 00	 imul	 ecx, eax, 0
  000d2	8b 91 00 00 00
	00		 mov	 edx, DWORD PTR ?joy_trg@@3PAKA[ecx]
  000d8	81 e2 00 00 00
	80		 and	 edx, -2147483648	; 80000000H
  000de	74 25		 je	 SHORT $LN15@joinChanne
  000e0	e8 00 00 00 00	 call	 ?GetImeString@@YAPADXZ	; GetImeString
  000e5	85 c0		 test	 eax, eax
  000e7	75 1c		 jne	 SHORT $LN15@joinChanne

; 4826 : 			{
; 4827 : 				closeJoinChannelWN();

  000e9	e8 00 00 00 00	 call	 ?closeJoinChannelWN@@YAXXZ ; closeJoinChannelWN

; 4828 : 				play_se(203, 320, 240);	// ????????

  000ee	68 f0 00 00 00	 push	 240			; 000000f0H
  000f3	68 40 01 00 00	 push	 320			; 00000140H
  000f8	68 cb 00 00 00	 push	 203			; 000000cbH
  000fd	e8 00 00 00 00	 call	 ?play_se@@YAHHHH@Z	; play_se
  00102	83 c4 0c	 add	 esp, 12			; 0000000cH
$LN15@joinChanne:

; 4829 : 			}
; 4830 : 			if (CheckMenuFlag())

  00105	e8 00 00 00 00	 call	 ?CheckMenuFlag@@YAHXZ	; CheckMenuFlag
  0010a	85 c0		 test	 eax, eax
  0010c	74 05		 je	 SHORT $LN16@joinChanne

; 4831 : 				closeJoinChannelWN();

  0010e	e8 00 00 00 00	 call	 ?closeJoinChannelWN@@YAXXZ ; closeJoinChannelWN
$LN16@joinChanne:

; 4832 : 			
; 4833 : 			selId = focusFontId(btnId, sizeof(btnId) / sizeof(int));

  00113	6a 05		 push	 5
  00115	68 00 00 00 00	 push	 OFFSET ?btnId@?1??joinChannelWN@@YAXXZ@4PAHA
  0011a	e8 00 00 00 00	 call	 ?focusFontId@@YAHPAHH@Z	; focusFontId
  0011f	83 c4 08	 add	 esp, 8
  00122	89 85 68 fb ff
	ff		 mov	 DWORD PTR _selId$[ebp], eax

; 4834 : 			selgraId = focusGraId(graId, sizeof(graId) / sizeof(int));

  00128	6a 01		 push	 1
  0012a	68 00 00 00 00	 push	 OFFSET ?graId@?1??joinChannelWN@@YAXXZ@4PAHA
  0012f	e8 00 00 00 00	 call	 ?focusGraId@@YAHPAHH@Z	; focusGraId
  00134	83 c4 08	 add	 esp, 8
  00137	89 85 5c fb ff
	ff		 mov	 DWORD PTR _selgraId$[ebp], eax

; 4835 : 			
; 4836 : 			if (mouse.onceState & MOUSE_LEFT_CRICK)

  0013d	a1 2c 00 00 00	 mov	 eax, DWORD PTR ?mouse@@3UMOUSE@@A+44
  00142	83 e0 01	 and	 eax, 1
  00145	0f 84 a1 01 00
	00		 je	 $LN17@joinChanne

; 4837 : 			{
; 4838 : 				if (selgraId == 0)

  0014b	83 bd 5c fb ff
	ff 00		 cmp	 DWORD PTR _selgraId$[ebp], 0
  00152	75 21		 jne	 SHORT $LN18@joinChanne

; 4839 : 				{
; 4840 : 					closeJoinChannelWN();

  00154	e8 00 00 00 00	 call	 ?closeJoinChannelWN@@YAXXZ ; closeJoinChannelWN

; 4841 : 					play_se(203, 320, 240);

  00159	68 f0 00 00 00	 push	 240			; 000000f0H
  0015e	68 40 01 00 00	 push	 320			; 00000140H
  00163	68 cb 00 00 00	 push	 203			; 000000cbH
  00168	e8 00 00 00 00	 call	 ?play_se@@YAHHHH@Z	; play_se
  0016d	83 c4 0c	 add	 esp, 12			; 0000000cH

; 4842 : 					return;

  00170	e9 5b 04 00 00	 jmp	 $LN1@joinChanne
$LN18@joinChanne:

; 4843 : 				}
; 4844 : #ifndef _FM_MODIFY
; 4845 : 				switch (selId)
; 4846 : 				{
; 4847 : 				case 0:
; 4848 : 					sprintf(buf, "S|D2", selId);
; 4849 : 					break;
; 4850 : 				case 1:
; 4851 : 				case 2:
; 4852 : 				case 3:
; 4853 : 					sprintf(buf, "C|L|%d", selId);
; 4854 : 					break;
; 4855 : 				case 5:
; 4856 : 	#ifdef _FMVER21
; 4857 : 					if (pc.familyleader != FMMEMBER_LEADER)
; 4858 : 						return;
; 4859 : 	#else
; 4860 : 					if (pc.familyleader != 1)
; 4861 : 						return;
; 4862 : 	#endif
; 4863 : 					sprintf(buf, "C|J|5");
; 4864 : 					closeJoinChannelWN();
; 4865 : 					play_se(203, 320, 240);
; 4866 : 					break;
; 4867 : 				case 6:
; 4868 : 					sprintf(buf, "C|J|-1");
; 4869 : 					closeJoinChannelWN();
; 4870 : 					play_se(203, 320, 240);
; 4871 : 					break;
; 4872 : 				case 7:
; 4873 : 					DeathAction(ptActChannel2Win);
; 4874 : 					ptActChannel2Win = NULL;
; 4875 : 					joinChannel2Proc = 2000;
; 4876 : 					play_se(203, 320, 240);
; 4877 : 					return;
; 4878 : 				case 8:
; 4879 : 					sprintf(buf, "S|SELF");
; 4880 : 					closeJoinChannelWN();
; 4881 : 					play_se(203, 320, 240);
; 4882 : 					break;
; 4883 : 				}
; 4884 : #else
; 4885 : 				switch (selId)

  00175	8b 85 68 fb ff
	ff		 mov	 eax, DWORD PTR _selId$[ebp]
  0017b	89 85 14 f9 ff
	ff		 mov	 DWORD PTR tv132[ebp], eax
  00181	83 bd 14 f9 ff
	ff 03		 cmp	 DWORD PTR tv132[ebp], 3
  00188	0f 87 19 01 00
	00		 ja	 $LN5@joinChanne
  0018e	8b 8d 14 f9 ff
	ff		 mov	 ecx, DWORD PTR tv132[ebp]
  00194	ff 24 8d 00 00
	00 00		 jmp	 DWORD PTR $LN45@joinChanne[ecx*4]
$LN19@joinChanne:

; 4886 : 				{
; 4887 : 				case 0:
; 4888 : 					sprintf(buf, "S|D2", selId);

  0019b	8b 85 68 fb ff
	ff		 mov	 eax, DWORD PTR _selId$[ebp]
  001a1	50		 push	 eax
  001a2	68 00 00 00 00	 push	 OFFSET ??_C@_04PNGENDLA@S?$HMD2?$AA@
  001a7	8d 8d bc fb ff
	ff		 lea	 ecx, DWORD PTR _buf$[ebp]
  001ad	51		 push	 ecx
  001ae	e8 00 00 00 00	 call	 _sprintf
  001b3	83 c4 0c	 add	 esp, 12			; 0000000cH

; 4889 : 					break;

  001b6	e9 ec 00 00 00	 jmp	 $LN5@joinChanne
$LN20@joinChanne:

; 4890 : 				case 1:
; 4891 : 					DeathAction(ptActChannel2Win);

  001bb	a1 00 00 00 00	 mov	 eax, DWORD PTR ?ptActChannel2Win@@3PAUaction@@A
  001c0	50		 push	 eax
  001c1	e8 00 00 00 00	 call	 ?DeathAction@@YAXPAUaction@@@Z ; DeathAction
  001c6	83 c4 04	 add	 esp, 4

; 4892 : 					ptActChannel2Win = NULL;

  001c9	c7 05 00 00 00
	00 00 00 00 00	 mov	 DWORD PTR ?ptActChannel2Win@@3PAUaction@@A, 0

; 4893 : 					joinChannel2Proc = 2000;

  001d3	b8 d0 07 00 00	 mov	 eax, 2000		; 000007d0H
  001d8	66 a3 00 00 00
	00		 mov	 WORD PTR ?joinChannel2Proc@@3FA, ax

; 4894 : 					play_se(203, 320, 240);

  001de	68 f0 00 00 00	 push	 240			; 000000f0H
  001e3	68 40 01 00 00	 push	 320			; 00000140H
  001e8	68 cb 00 00 00	 push	 203			; 000000cbH
  001ed	e8 00 00 00 00	 call	 ?play_se@@YAHHHH@Z	; play_se
  001f2	83 c4 0c	 add	 esp, 12			; 0000000cH

; 4895 : 					return;

  001f5	e9 d6 03 00 00	 jmp	 $LN1@joinChanne
$LN21@joinChanne:

; 4896 : 				case 2:
; 4897 : 					sprintf(buf, "D");

  001fa	68 00 00 00 00	 push	 OFFSET ??_C@_01CKDDGHAB@D?$AA@
  001ff	8d 85 bc fb ff
	ff		 lea	 eax, DWORD PTR _buf$[ebp]
  00205	50		 push	 eax
  00206	e8 00 00 00 00	 call	 _sprintf
  0020b	83 c4 08	 add	 esp, 8

; 4898 : 					closeJoinChannelWN();

  0020e	e8 00 00 00 00	 call	 ?closeJoinChannelWN@@YAXXZ ; closeJoinChannelWN

; 4899 : 					play_se(203, 320, 240);

  00213	68 f0 00 00 00	 push	 240			; 000000f0H
  00218	68 40 01 00 00	 push	 320			; 00000140H
  0021d	68 cb 00 00 00	 push	 203			; 000000cbH
  00222	e8 00 00 00 00	 call	 ?play_se@@YAHHHH@Z	; play_se
  00227	83 c4 0c	 add	 esp, 12			; 0000000cH

; 4900 : 					break;

  0022a	eb 7b		 jmp	 SHORT $LN5@joinChanne
$LN22@joinChanne:

; 4901 : 				case 3:
; 4902 : 					sprintf(buf, "C|J|-1");

  0022c	68 00 00 00 00	 push	 OFFSET ??_C@_06KOPCAPBC@C?$HMJ?$HM?91?$AA@
  00231	8d 85 bc fb ff
	ff		 lea	 eax, DWORD PTR _buf$[ebp]
  00237	50		 push	 eax
  00238	e8 00 00 00 00	 call	 _sprintf
  0023d	83 c4 08	 add	 esp, 8

; 4903 : 					if (bNewServer)

  00240	83 3d 00 00 00
	00 00		 cmp	 DWORD PTR ?bNewServer@@3HA, 0 ; bNewServer
  00247	74 18		 je	 SHORT $LN23@joinChanne

; 4904 : 						lssproto_FM_send(sockfd, buf);

  00249	8d 85 bc fb ff
	ff		 lea	 eax, DWORD PTR _buf$[ebp]
  0024f	50		 push	 eax
  00250	8b 0d 00 00 00
	00		 mov	 ecx, DWORD PTR ?sockfd@@3IA ; sockfd
  00256	51		 push	 ecx
  00257	e8 00 00 00 00	 call	 ?lssproto_FM_send@@YAXHPAD@Z ; lssproto_FM_send
  0025c	83 c4 08	 add	 esp, 8

; 4905 : 					else

  0025f	eb 16		 jmp	 SHORT $LN24@joinChanne
$LN23@joinChanne:

; 4906 : 						old_lssproto_FM_send(sockfd, buf);

  00261	8d 85 bc fb ff
	ff		 lea	 eax, DWORD PTR _buf$[ebp]
  00267	50		 push	 eax
  00268	8b 0d 00 00 00
	00		 mov	 ecx, DWORD PTR ?sockfd@@3IA ; sockfd
  0026e	51		 push	 ecx
  0026f	e8 00 00 00 00	 call	 ?old_lssproto_FM_send@@YAXHPAD@Z ; old_lssproto_FM_send
  00274	83 c4 08	 add	 esp, 8
$LN24@joinChanne:

; 4907 : 					sprintf(buf, "S|SELF");

  00277	68 00 00 00 00	 push	 OFFSET ??_C@_06JEJPCC@S?$HMSELF?$AA@
  0027c	8d 85 bc fb ff
	ff		 lea	 eax, DWORD PTR _buf$[ebp]
  00282	50		 push	 eax
  00283	e8 00 00 00 00	 call	 _sprintf
  00288	83 c4 08	 add	 esp, 8

; 4908 : 					closeJoinChannelWN();

  0028b	e8 00 00 00 00	 call	 ?closeJoinChannelWN@@YAXXZ ; closeJoinChannelWN

; 4909 : 					play_se(203, 320, 240);

  00290	68 f0 00 00 00	 push	 240			; 000000f0H
  00295	68 40 01 00 00	 push	 320			; 00000140H
  0029a	68 cb 00 00 00	 push	 203			; 000000cbH
  0029f	e8 00 00 00 00	 call	 ?play_se@@YAHHHH@Z	; play_se
  002a4	83 c4 0c	 add	 esp, 12			; 0000000cH
$LN5@joinChanne:

; 4910 : 					break;
; 4911 : 				}
; 4912 : #endif
; 4913 : 				if (selId != -1)

  002a7	83 bd 68 fb ff
	ff ff		 cmp	 DWORD PTR _selId$[ebp], -1
  002ae	74 3c		 je	 SHORT $LN17@joinChanne

; 4914 : 				{
; 4915 : 					if (bNewServer)

  002b0	83 3d 00 00 00
	00 00		 cmp	 DWORD PTR ?bNewServer@@3HA, 0 ; bNewServer
  002b7	74 18		 je	 SHORT $LN26@joinChanne

; 4916 : 						lssproto_FM_send(sockfd, buf);

  002b9	8d 85 bc fb ff
	ff		 lea	 eax, DWORD PTR _buf$[ebp]
  002bf	50		 push	 eax
  002c0	8b 0d 00 00 00
	00		 mov	 ecx, DWORD PTR ?sockfd@@3IA ; sockfd
  002c6	51		 push	 ecx
  002c7	e8 00 00 00 00	 call	 ?lssproto_FM_send@@YAXHPAD@Z ; lssproto_FM_send
  002cc	83 c4 08	 add	 esp, 8

; 4917 : 					else

  002cf	eb 16		 jmp	 SHORT $LN27@joinChanne
$LN26@joinChanne:

; 4918 : 						old_lssproto_FM_send(sockfd, buf);

  002d1	8d 85 bc fb ff
	ff		 lea	 eax, DWORD PTR _buf$[ebp]
  002d7	50		 push	 eax
  002d8	8b 0d 00 00 00
	00		 mov	 ecx, DWORD PTR ?sockfd@@3IA ; sockfd
  002de	51		 push	 ecx
  002df	e8 00 00 00 00	 call	 ?old_lssproto_FM_send@@YAXHPAD@Z ; old_lssproto_FM_send
  002e4	83 c4 08	 add	 esp, 8
$LN27@joinChanne:

; 4919 : 					return;

  002e7	e9 e4 02 00 00	 jmp	 $LN1@joinChanne
$LN17@joinChanne:

; 4920 : 				}
; 4921 : 			}
; 4922 : 			
; 4923 : 			strcpy(buf2, "");

  002ec	68 00 00 00 00	 push	 OFFSET ??_C@_00CNPNBAHC@?$AA@
  002f1	8d 85 74 fb ff
	ff		 lea	 eax, DWORD PTR _buf2$[ebp]
  002f7	50		 push	 eax
  002f8	e8 00 00 00 00	 call	 _strcpy
  002fd	83 c4 08	 add	 esp, 8

; 4924 : 			for (i= 0; i < (int)(16 - strlen(pc.familyName)) / 2; i++)

  00300	c7 45 c4 00 00
	00 00		 mov	 DWORD PTR _i$[ebp], 0
  00307	eb 09		 jmp	 SHORT $LN9@joinChanne
$LN7@joinChanne:
  00309	8b 45 c4	 mov	 eax, DWORD PTR _i$[ebp]
  0030c	83 c0 01	 add	 eax, 1
  0030f	89 45 c4	 mov	 DWORD PTR _i$[ebp], eax
$LN9@joinChanne:
  00312	68 f6 50 00 00	 push	 OFFSET ?pc@@3UPC@@A+20726
  00317	e8 00 00 00 00	 call	 _strlen
  0031c	83 c4 04	 add	 esp, 4
  0031f	b9 10 00 00 00	 mov	 ecx, 16			; 00000010H
  00324	2b c8		 sub	 ecx, eax
  00326	8b c1		 mov	 eax, ecx
  00328	99		 cdq
  00329	2b c2		 sub	 eax, edx
  0032b	d1 f8		 sar	 eax, 1
  0032d	39 45 c4	 cmp	 DWORD PTR _i$[ebp], eax
  00330	7d 16		 jge	 SHORT $LN8@joinChanne

; 4925 : 				strcat(buf2, " ");

  00332	68 00 00 00 00	 push	 OFFSET ??_C@_01CLKCMJKC@?5?$AA@
  00337	8d 85 74 fb ff
	ff		 lea	 eax, DWORD PTR _buf2$[ebp]
  0033d	50		 push	 eax
  0033e	e8 00 00 00 00	 call	 _strcat
  00343	83 c4 08	 add	 esp, 8
  00346	eb c1		 jmp	 SHORT $LN7@joinChanne
$LN8@joinChanne:

; 4926 : 			strcat(buf2, pc.familyName);

  00348	68 f6 50 00 00	 push	 OFFSET ?pc@@3UPC@@A+20726
  0034d	8d 85 74 fb ff
	ff		 lea	 eax, DWORD PTR _buf2$[ebp]
  00353	50		 push	 eax
  00354	e8 00 00 00 00	 call	 _strcat
  00359	83 c4 08	 add	 esp, 8

; 4927 : 
; 4928 : #ifndef _FM_MODIFY
; 4929 : 			btnId[8] = StockFontBuffer(x + 7, y + 30, FONT_PRIO_FRONT, FONT_PAL_GREEN, buf2, 0);
; 4930 : #else
; 4931 : 			btnId[4] = StockFontBuffer(x + 7, y + 30, FONT_PRIO_FRONT, FONT_PAL_GREEN, buf2, 0);

  0035c	6a 00		 push	 0
  0035e	8d 85 74 fb ff
	ff		 lea	 eax, DWORD PTR _buf2$[ebp]
  00364	50		 push	 eax
  00365	6a 05		 push	 5
  00367	6a 01		 push	 1
  00369	8b 4d e8	 mov	 ecx, DWORD PTR _y$[ebp]
  0036c	83 c1 1e	 add	 ecx, 30			; 0000001eH
  0036f	51		 push	 ecx
  00370	8b 55 f4	 mov	 edx, DWORD PTR _x$[ebp]
  00373	83 c2 07	 add	 edx, 7
  00376	52		 push	 edx
  00377	e8 00 00 00 00	 call	 ?StockFontBuffer@@YAHHHDHPADH@Z ; StockFontBuffer
  0037c	83 c4 18	 add	 esp, 24			; 00000018H
  0037f	b9 04 00 00 00	 mov	 ecx, 4
  00384	c1 e1 02	 shl	 ecx, 2
  00387	89 81 00 00 00
	00		 mov	 DWORD PTR ?btnId@?1??joinChannelWN@@YAXXZ@4PAHA[ecx], eax

; 4932 : 			btnId[2] = StockFontBuffer(x + 25, y + 65 + 36 * 2, FONT_PRIO_FRONT, FONT_PAL_WHITE, channelName[2], 2);

  0038d	6a 02		 push	 2
  0038f	b8 14 00 00 00	 mov	 eax, 20			; 00000014H
  00394	d1 e0		 shl	 eax, 1
  00396	05 00 00 00 00	 add	 eax, OFFSET ?channelName@@3PAY0BE@DA ; channelName
  0039b	50		 push	 eax
  0039c	6a 00		 push	 0
  0039e	6a 01		 push	 1
  003a0	8b 4d e8	 mov	 ecx, DWORD PTR _y$[ebp]
  003a3	81 c1 89 00 00
	00		 add	 ecx, 137		; 00000089H
  003a9	51		 push	 ecx
  003aa	8b 55 f4	 mov	 edx, DWORD PTR _x$[ebp]
  003ad	83 c2 19	 add	 edx, 25			; 00000019H
  003b0	52		 push	 edx
  003b1	e8 00 00 00 00	 call	 ?StockFontBuffer@@YAHHHDHPADH@Z ; StockFontBuffer
  003b6	83 c4 18	 add	 esp, 24			; 00000018H
  003b9	b9 04 00 00 00	 mov	 ecx, 4
  003be	d1 e1		 shl	 ecx, 1
  003c0	89 81 00 00 00
	00		 mov	 DWORD PTR ?btnId@?1??joinChannelWN@@YAXXZ@4PAHA[ecx], eax

; 4933 : #endif
; 4934 : 			btnId[0] = StockFontBuffer(x + 25, y + 65, FONT_PRIO_FRONT, FONT_PAL_WHITE, channelName[0], 2);

  003c6	6a 02		 push	 2
  003c8	b8 14 00 00 00	 mov	 eax, 20			; 00000014H
  003cd	6b c8 00	 imul	 ecx, eax, 0
  003d0	81 c1 00 00 00
	00		 add	 ecx, OFFSET ?channelName@@3PAY0BE@DA ; channelName
  003d6	51		 push	 ecx
  003d7	6a 00		 push	 0
  003d9	6a 01		 push	 1
  003db	8b 55 e8	 mov	 edx, DWORD PTR _y$[ebp]
  003de	83 c2 41	 add	 edx, 65			; 00000041H
  003e1	52		 push	 edx
