; Listing generated by Microsoft (R) Optimizing Compiler Version 19.00.24215.1 

	TITLE	C:\Users\Administrator\Desktop\????? ??\????? ??\Client Source Code\system\field.cpp
	.686P
	.XMM
	include listing.inc
	.model	flat

INCLUDELIB MSVCRTD
INCLUDELIB OLDNAMES

PUBLIC	?chatRoomBtn@@3FA				; chatRoomBtn
PUBLIC	?SelRoomBtn@@3FA				; SelRoomBtn
PUBLIC	?angelFlag@@3HA					; angelFlag
PUBLIC	?angelRecvType@@3HA				; angelRecvType
PUBLIC	?angelRecvButton@@3HA				; angelRecvButton
PUBLIC	?angelMsg@@3PADA				; angelMsg
PUBLIC	?drawTimeAnimeFlag@@3FA				; drawTimeAnimeFlag
PUBLIC	?etcSendFlag@@3FA				; etcSendFlag
PUBLIC	?actBtn@@3FA					; actBtn
PUBLIC	?menuBtn@@3FA					; menuBtn
PUBLIC	?mailLamp@@3FA					; mailLamp
PUBLIC	?fieldInfoTime@@3IA				; fieldInfoTime
PUBLIC	?serverAliveTime@@3PAUtm@@A			; serverAliveTime
PUBLIC	?serverAliveLongTime@@3_JA			; serverAliveLongTime
PUBLIC	?GM管理开关@@3_NA				; GM管理开关
PUBLIC	?战骑信息开关@@3HA				; 战骑信息开关
PUBLIC	?功能列表开关@@3HA				; 功能列表开关
PUBLIC	?左菜单开关@@3HA				; 左菜单开关
PUBLIC	?顶部新按钮索引@@3PAHA				; 顶部新按钮索引
PUBLIC	?drawFieldButtonFlag@@3FA			; drawFieldButtonFlag
PUBLIC	?fieldBtnHitId@@3PAHA				; fieldBtnHitId
PUBLIC	?in817flag@@3_NA				; in817flag
PUBLIC	?BattlingFlag@@3HA				; BattlingFlag
PUBLIC	?jobdaily@@3PAUJOBDAILY@@A			; jobdaily
PUBLIC	?JobdailyGetFlag@@3HA				; JobdailyGetFlag
PUBLIC	?JobdailyGetMax@@3HA				; JobdailyGetMax
PUBLIC	?ani_num@@3HA					; ani_num
PUBLIC	?breadAniFlag@@3HA				; breadAniFlag
PUBLIC	?SPACT@@3PAPAUaction@@A				; SPACT
PUBLIC	?ProduceXY@@3PAY06HA				; ProduceXY
PUBLIC	?delFlag@@3_NA					; delFlag
PUBLIC	?flag22@@3_NA					; flag22
PUBLIC	?Timeflag2@@3_NA				; Timeflag2
PUBLIC	?TimeTick2@@3HA					; TimeTick2
PUBLIC	?TimeTickMax2@@3HA				; TimeTickMax2
PUBLIC	?Timeflag@@3PA_NA				; Timeflag
PUBLIC	?TimeTick@@3PAHA				; TimeTick
PUBLIC	?TimeTickMax@@3PAHA				; TimeTickMax
PUBLIC	?AniFlag@@3_NA					; AniFlag
PUBLIC	?Updownflag@@3_NA				; Updownflag
PUBLIC	?XYposition@@3PAY06HA				; XYposition
PUBLIC	?iOldGX@@3HA					; iOldGX
PUBLIC	?iOldGY@@3HA					; iOldGY
PUBLIC	?pActStreetVendorWnd@@3PAUaction@@A		; pActStreetVendorWnd
PUBLIC	?pActStreetVendorBuyWnd@@3PAUaction@@A		; pActStreetVendorBuyWnd
PUBLIC	?sStreetVendorBtn@@3FA				; sStreetVendorBtn
PUBLIC	?sStreetVendorBuyBtn@@3FA			; sStreetVendorBuyBtn
PUBLIC	?sStreetVendorBtnFocus@@3FA			; sStreetVendorBtnFocus
PUBLIC	?sStreetVendorBtnGraNo@@3PAHA			; sStreetVendorBtnGraNo
PUBLIC	?pShowPet@@3PAUaction@@A			; pShowPet
PUBLIC	?ShowSellItem@@3PAU_Show_Sell_Item@@A		; ShowSellItem
PUBLIC	?str_bufferVendorName@@3USTR_BUFFER@@A		; str_bufferVendorName
PUBLIC	?onlinegmProcNo@@3FA				; onlinegmProcNo
PUBLIC	?ShowVendorItem@@3PAU_Show_Vendor_Item@@A	; ShowVendorItem
PUBLIC	?channelName@@3PAY0BE@DA			; channelName
PUBLIC	?pChatRoomWnd@@3PAUaction@@A			; pChatRoomWnd
PUBLIC	?chatRoomBtnFocus@@3FA				; chatRoomBtnFocus
PUBLIC	?chatRoomBtnGraNo@@3PAHA			; chatRoomBtnGraNo
PUBLIC	?menuBtnFocus@@3FA				; menuBtnFocus
PUBLIC	?menuBtnGraNo@@3PAHA				; menuBtnGraNo
PUBLIC	?cardBtn@@3FA					; cardBtn
PUBLIC	?cardBtnFocus@@3FA				; cardBtnFocus
PUBLIC	?cardBtnGraNo@@3PAHA				; cardBtnGraNo
PUBLIC	?tradeBtn@@3FA					; tradeBtn
PUBLIC	?tradeBtnFocus@@3FA				; tradeBtnFocus
PUBLIC	?tradeBtnGraNo@@3PAHA				; tradeBtnGraNo
PUBLIC	?angelLampDrawFlag@@3FA				; angelLampDrawFlag
PUBLIC	?angelLampFlashTime@@3IA			; angelLampFlashTime
PUBLIC	?angelBtn@@3FA					; angelBtn
PUBLIC	?angelBtnFocus@@3FA				; angelBtnFocus
PUBLIC	?angelBtnGraNo@@3PAHA				; angelBtnGraNo
PUBLIC	?channelBtn@@3FA				; channelBtn
PUBLIC	?channelBtnFocus@@3FA				; channelBtnFocus
PUBLIC	?channelWNFlag@@3FA				; channelWNFlag
PUBLIC	?channelBtnGraNo@@3PAHA				; channelBtnGraNo
PUBLIC	?partyBtn@@3FA					; partyBtn
PUBLIC	?partyBtnFocus@@3FA				; partyBtnFocus
PUBLIC	?partyBtnEnableFlag@@3FA			; partyBtnEnableFlag
PUBLIC	?partyBtnGraNo@@3PAHA				; partyBtnGraNo
PUBLIC	?mailLampDrawFlag@@3FA				; mailLampDrawFlag
PUBLIC	?helpBtnGraNo@@3PAHA				; helpBtnGraNo
PUBLIC	?helpBtn@@3FA					; helpBtn
PUBLIC	?helpBtnFocus@@3FA				; helpBtnFocus
PUBLIC	?mailLampFlashTime@@3IA				; mailLampFlashTime
PUBLIC	?joinBattleBtn@@3FA				; joinBattleBtn
PUBLIC	?joinBattleBtnFocus@@3FA			; joinBattleBtnFocus
PUBLIC	?joinBattleBtnEnableFlag@@3FA			; joinBattleBtnEnableFlag
PUBLIC	?joinBattleHelpMsgFlag@@3FA			; joinBattleHelpMsgFlag
PUBLIC	?joinBattleBtnGraNo@@3PAHA			; joinBattleBtnGraNo
PUBLIC	?duelBtn@@3FA					; duelBtn
PUBLIC	?duelBtnFocus@@3FA				; duelBtnFocus
PUBLIC	?duelBtnGraNo@@3PAHA				; duelBtnGraNo
PUBLIC	?actBtnForcus@@3FA				; actBtnForcus
PUBLIC	?actBtnUpTime@@3HA				; actBtnUpTime
PUBLIC	?nowActMode@@3HA				; nowActMode
PUBLIC	?actBtnGraNo@@3PAHA				; actBtnGraNo
PUBLIC	?charActionAnimeChangeProcNo@@3FA		; charActionAnimeChangeProcNo
PUBLIC	?charActionAnimeChangeWindowFlag@@3FA		; charActionAnimeChangeWindowFlag
PUBLIC	?etcSwitchProcNo@@3FA				; etcSwitchProcNo
PUBLIC	?etcSwitchChangeFlag@@3FA			; etcSwitchChangeFlag
PUBLIC	?amPmAnimeTime@@3HA				; amPmAnimeTime
PUBLIC	?amPmAnimeX@@3HA				; amPmAnimeX
PUBLIC	?amPmAnimeGraNoIndex0@@3HA			; amPmAnimeGraNoIndex0
PUBLIC	?amPmAnimeGraNoIndex1@@3HA			; amPmAnimeGraNoIndex1
PUBLIC	?amPmAnimeGraNo@@3PAHA				; amPmAnimeGraNo
PUBLIC	?ridelistBtn@@3FA				; ridelistBtn
PUBLIC	?ridelistBtnFocus@@3FA				; ridelistBtnFocus
PUBLIC	?ridelistBtnGraNo@@3PAHA			; ridelistBtnGraNo
PUBLIC	?vipshopBtn@@3FA				; vipshopBtn
PUBLIC	?vipshopBtnFocus@@3FA				; vipshopBtnFocus
PUBLIC	?vipshopBtnGraNo@@3PAHA				; vipshopBtnGraNo
PUBLIC	?sTeacherSystemBtn@@3FA				; sTeacherSystemBtn
PUBLIC	?sTeacherSystemBtnFocus@@3FA			; sTeacherSystemBtnFocus
PUBLIC	?iTeacherSystemBtnGraNo@@3PAHA			; iTeacherSystemBtnGraNo
PUBLIC	?nowFieldMenuOpenFlag@@3FA			; nowFieldMenuOpenFlag
PUBLIC	?fieldBtnPushTime@@3IA				; fieldBtnPushTime
PUBLIC	?pageStr@@3PAY09DA				; pageStr
_BSS	SEGMENT
?iOnline@?1??TeacherSystemWndfunc@@YAXHPAD@Z@4HA DD 01H DUP (?) ; `TeacherSystemWndfunc'::`2'::iOnline
?iGetNum@?1??TeacherSystemWndfunc@@YAXHPAD@Z@4HA DD 01H DUP (?) ; `TeacherSystemWndfunc'::`2'::iGetNum
?pActTeacherSystemWnd@?1??TeacherSystemWndfunc@@YAXHPAD@Z@4PAUaction@@A DD 01H DUP (?) ; `TeacherSystemWndfunc'::`2'::pActTeacherSystemWnd
?bOpen@?1??TeacherSystemWndfunc@@YAXHPAD@Z@4HA DD 01H DUP (?) ; `TeacherSystemWndfunc'::`2'::bOpen
?chatRoomBtn@@3FA DW 01H DUP (?)			; chatRoomBtn
	ALIGN	4

?SelRoomBtn@@3FA DW 01H DUP (?)				; SelRoomBtn
	ALIGN	4

?angelFlag@@3HA DD 01H DUP (?)				; angelFlag
?angelRecvType@@3HA DD 01H DUP (?)			; angelRecvType
?angelRecvButton@@3HA DD 01H DUP (?)			; angelRecvButton
?angelMsg@@3PADA DB 02800H DUP (?)			; angelMsg
?drawTimeAnimeFlag@@3FA DW 01H DUP (?)			; drawTimeAnimeFlag
	ALIGN	4

?etcSendFlag@@3FA DW 01H DUP (?)			; etcSendFlag
	ALIGN	4

?actBtn@@3FA DW	01H DUP (?)				; actBtn
	ALIGN	4

?menuBtn@@3FA DW 01H DUP (?)				; menuBtn
	ALIGN	4

?mailLamp@@3FA DW 01H DUP (?)				; mailLamp
	ALIGN	4

?fieldInfoTime@@3IA DD 01H DUP (?)			; fieldInfoTime
?serverAliveTime@@3PAUtm@@A DD 01H DUP (?)		; serverAliveTime
?serverAliveLongTime@@3_JA DQ 01H DUP (?)		; serverAliveLongTime
?GM管理开关@@3_NA DB 01H DUP (?)			; GM管理开关
	ALIGN	4

?战骑信息开关@@3HA DD 01H DUP (?)			; 战骑信息开关
?功能列表开关@@3HA DD 01H DUP (?)			; 功能列表开关
?左菜单开关@@3HA DD 01H DUP (?)				; 左菜单开关
?顶部新按钮索引@@3PAHA DD 0aH DUP (?)			; 顶部新按钮索引
?fieldBtnHitId@@3PAHA DD 0dH DUP (?)			; fieldBtnHitId
?in817flag@@3_NA DB 01H DUP (?)				; in817flag
	ALIGN	4

?BattlingFlag@@3HA DD 01H DUP (?)			; BattlingFlag
?jobdaily@@3PAUJOBDAILY@@A DB 0fd20H DUP (?)		; jobdaily
?JobdailyGetFlag@@3HA DD 01H DUP (?)			; JobdailyGetFlag
?JobdailyGetMax@@3HA DD 01H DUP (?)			; JobdailyGetMax
?ani_num@@3HA DD 01H DUP (?)				; ani_num
?breadAniFlag@@3HA DD 01H DUP (?)			; breadAniFlag
?SPACT@@3PAPAUaction@@A DD 0100H DUP (?)		; SPACT
?delFlag@@3_NA DB 01H DUP (?)				; delFlag
	ALIGN	4

?Timeflag2@@3_NA DB 01H DUP (?)				; Timeflag2
	ALIGN	4

?TimeTick2@@3HA DD 01H DUP (?)				; TimeTick2
?TimeTickMax2@@3HA DD 01H DUP (?)			; TimeTickMax2
?Timeflag@@3PA_NA DB 032H DUP (?)			; Timeflag
	ALIGN	4

?TimeTick@@3PAHA DD 032H DUP (?)			; TimeTick
?TimeTickMax@@3PAHA DD 032H DUP (?)			; TimeTickMax
?AniFlag@@3_NA DB 01H DUP (?)				; AniFlag
	ALIGN	4

?Updownflag@@3_NA DB 01H DUP (?)			; Updownflag
	ALIGN	4

?iOldGX@@3HA DD	01H DUP (?)				; iOldGX
?iOldGY@@3HA DD	01H DUP (?)				; iOldGY
?pActStreetVendorWnd@@3PAUaction@@A DD 01H DUP (?)	; pActStreetVendorWnd
?pActStreetVendorBuyWnd@@3PAUaction@@A DD 01H DUP (?)	; pActStreetVendorBuyWnd
?sStreetVendorBtn@@3FA DW 01H DUP (?)			; sStreetVendorBtn
	ALIGN	4

?sStreetVendorBuyBtn@@3FA DW 01H DUP (?)		; sStreetVendorBuyBtn
	ALIGN	4

?sStreetVendorBtnFocus@@3FA DW 01H DUP (?)		; sStreetVendorBtnFocus
	ALIGN	4

?pActSellPriceWnd@@3PAUaction@@A DD 01H DUP (?)		; pActSellPriceWnd
?pShowPet@@3PAUaction@@A DD 01H DUP (?)			; pShowPet
?ShowSellItem@@3PAU_Show_Sell_Item@@A DB 05f0H DUP (?)	; ShowSellItem
?str_bufferVendorName@@3USTR_BUFFER@@A DB 0128H DUP (?)	; str_bufferVendorName
?ptActMenuWin@?1??charActionAnimeChange@@YAHXZ@4PAUaction@@A DD 01H DUP (?) ; `charActionAnimeChange'::`2'::ptActMenuWin
?pItem@?1??StreetVendorWndfunc@@YAX_NPAD@Z@4PAUITEM@@A DD 01H DUP (?) ; `StreetVendorWndfunc'::`2'::pItem
?bRunSellPrice@?1??StreetVendorWndfunc@@YAX_NPAD@Z@4_NA DB 01H DUP (?) ; `StreetVendorWndfunc'::`2'::bRunSellPrice
	ALIGN	4

?pShowSellItem@?1??StreetVendorWndfunc@@YAX_NPAD@Z@4PAU_Show_Sell_Item@@A DD 01H DUP (?) ; `StreetVendorWndfunc'::`2'::pShowSellItem
?onlinegmProcNo@@3FA DW 01H DUP (?)			; onlinegmProcNo
	ALIGN	4

?ptActMenuWin@?1??etcSwitch@@YAHXZ@4PAUaction@@A DD 01H DUP (?) ; `etcSwitch'::`2'::ptActMenuWin
?pActChannelWin@?1??etcSwitch@@YAHXZ@4PAUaction@@A DD 01H DUP (?) ; `etcSwitch'::`2'::pActChannelWin
?ShowVendorItem@@3PAU_Show_Vendor_Item@@A DB 06c20H DUP (?) ; ShowVendorItem
?bViewPetItem@?1??StreetVendorBuyWndfunc@@YAXPAD@Z@4HA DD 01H DUP (?) ; `StreetVendorBuyWndfunc'::`2'::bViewPetItem
?ptActMenuWin@?1??disconnectServer@@YAHXZ@4PAUaction@@A DD 01H DUP (?) ; `disconnectServer'::`2'::ptActMenuWin
?ptActMenuWin@?1??drawFieldInfoWin@@YAXXZ@4PAUaction@@A DD 01H DUP (?) ; `drawFieldInfoWin'::`2'::ptActMenuWin
?ptActChannelWin@@3PAUaction@@A DD 01H DUP (?)		; ptActChannelWin
?ptActChannel2Win@@3PAUaction@@A DD 01H DUP (?)		; ptActChannel2Win
?ptActLeaderFuncWin@@3PAUaction@@A DD 01H DUP (?)	; ptActLeaderFuncWin
?pChatRoomWnd@@3PAUaction@@A DD 01H DUP (?)		; pChatRoomWnd
?chatRoomBtnFocus@@3FA DW 01H DUP (?)			; chatRoomBtnFocus
	ALIGN	4

?menuBtnFocus@@3FA DW 01H DUP (?)			; menuBtnFocus
	ALIGN	4

?cardBtn@@3FA DW 01H DUP (?)				; cardBtn
	ALIGN	4

?cardBtnFocus@@3FA DW 01H DUP (?)			; cardBtnFocus
	ALIGN	4

?tradeBtn@@3FA DW 01H DUP (?)				; tradeBtn
	ALIGN	4

?tradeBtnFocus@@3FA DW 01H DUP (?)			; tradeBtnFocus
	ALIGN	4

?angelLampDrawFlag@@3FA DW 01H DUP (?)			; angelLampDrawFlag
	ALIGN	4

?angelLampFlashTime@@3IA DD 01H DUP (?)			; angelLampFlashTime
?angelBtn@@3FA DW 01H DUP (?)				; angelBtn
	ALIGN	4

?angelBtnFocus@@3FA DW 01H DUP (?)			; angelBtnFocus
	ALIGN	4

?channelBtn@@3FA DW 01H DUP (?)				; channelBtn
	ALIGN	4

?channelBtnFocus@@3FA DW 01H DUP (?)			; channelBtnFocus
	ALIGN	4

?partyBtn@@3FA DW 01H DUP (?)				; partyBtn
	ALIGN	4

?partyBtnFocus@@3FA DW 01H DUP (?)			; partyBtnFocus
	ALIGN	4

?mailLampDrawFlag@@3FA DW 01H DUP (?)			; mailLampDrawFlag
	ALIGN	4

?helpBtn@@3FA DW 01H DUP (?)				; helpBtn
	ALIGN	4

?helpBtnFocus@@3FA DW 01H DUP (?)			; helpBtnFocus
	ALIGN	4

?mailLampFlashTime@@3IA DD 01H DUP (?)			; mailLampFlashTime
?joinBattleBtn@@3FA DW 01H DUP (?)			; joinBattleBtn
	ALIGN	4

?joinBattleBtnFocus@@3FA DW 01H DUP (?)			; joinBattleBtnFocus
	ALIGN	4

?duelBtn@@3FA DW 01H DUP (?)				; duelBtn
	ALIGN	4

?duelBtnFocus@@3FA DW 01H DUP (?)			; duelBtnFocus
	ALIGN	4

?actBtnForcus@@3FA DW 01H DUP (?)			; actBtnForcus
	ALIGN	4

?actBtnUpTime@@3HA DD 01H DUP (?)			; actBtnUpTime
?nowActMode@@3HA DD 01H DUP (?)				; nowActMode
?charActionAnimeChangeProcNo@@3FA DW 01H DUP (?)	; charActionAnimeChangeProcNo
	ALIGN	4

?charActionAnimeChangeWindowFlag@@3FA DW 01H DUP (?)	; charActionAnimeChangeWindowFlag
	ALIGN	4

?etcSwitchProcNo@@3FA DW 01H DUP (?)			; etcSwitchProcNo
	ALIGN	4

?etcSwitchChangeFlag@@3FA DW 01H DUP (?)		; etcSwitchChangeFlag
	ALIGN	4

?amPmAnimeTime@@3HA DD 01H DUP (?)			; amPmAnimeTime
?amPmAnimeX@@3HA DD 01H DUP (?)				; amPmAnimeX
?amPmAnimeGraNoIndex0@@3HA DD 01H DUP (?)		; amPmAnimeGraNoIndex0
?amPmAnimeGraNoIndex1@@3HA DD 01H DUP (?)		; amPmAnimeGraNoIndex1
?ridelistBtn@@3FA DW 01H DUP (?)			; ridelistBtn
	ALIGN	4

?ridelistBtnFocus@@3FA DW 01H DUP (?)			; ridelistBtnFocus
	ALIGN	4

?vipshopBtn@@3FA DW 01H DUP (?)				; vipshopBtn
	ALIGN	4

?vipshopBtnFocus@@3FA DW 01H DUP (?)			; vipshopBtnFocus
	ALIGN	4

?sTeacherSystemBtn@@3FA DW 01H DUP (?)			; sTeacherSystemBtn
	ALIGN	4

?sTeacherSystemBtnFocus@@3FA DW 01H DUP (?)		; sTeacherSystemBtnFocus
	ALIGN	4

?nowFieldMenuOpenFlag@@3FA DW 01H DUP (?)		; nowFieldMenuOpenFlag
	ALIGN	4

?fieldBtnPushTime@@3IA DD 01H DUP (?)			; fieldBtnPushTime
?joinChannel2Proc@@3FA DW 01H DUP (?)			; joinChannel2Proc
_BSS	ENDS
_DATA	SEGMENT
?drawFieldButtonFlag@@3FA DW 01H			; drawFieldButtonFlag
?flag22@@3_NA DB 01H					; flag22
?bChangePet@?1??StreetVendorWndfunc@@YAX_NPAD@Z@4_NA DB 01H ; `StreetVendorWndfunc'::`2'::bChangePet
?iMakePetAni@?1??StreetVendorBuyWndfunc@@YAXPAD@Z@4HA DD 0ffffffffH ; `StreetVendorBuyWndfunc'::`2'::iMakePetAni
?ProduceXY@@3PAY06HA DD 0ffffffffH			; ProduceXY
	ORG $+7164
?XYposition@@3PAY06HA DD 0fcH				; XYposition
	DD	0ffH
	DD	018c87H
	DD	00H
	DD	0ffffffffH
	DD	01H
	DD	00H
	DD	0e9H
	DD	010cH
	DD	018c86H
	DD	00H
	DD	0ffffffffH
	DD	01H
	DD	00H
	DD	0e3H
	DD	0101H
	DD	018c8cH
	DD	00H
	DD	0ffffffffH
	DD	01H
	DD	00H
	DD	0d1H
	DD	0feH
	DD	018c87H
	DD	00H
	DD	0ffffffffH
	DD	01H
	DD	00H
	DD	0134H
	DD	085H
	DD	018c87H
	DD	00H
	DD	0ffffffffH
	DD	01H
	DD	00H
	DD	0131H
	DD	065H
	DD	018c8eH
	DD	00H
	DD	0ffffffffH
	DD	01H
	DD	00H
	DD	013cH
	DD	079H
	DD	018c86H
	DD	00H
	DD	0ffffffffH
	DD	01H
	DD	00H
	DD	012fH
	DD	068H
	DD	018c87H
	DD	00H
	DD	0ffffffffH
	DD	01H
	DD	00H
	DD	011fH
	DD	07aH
	DD	018c86H
	DD	00H
	DD	0ffffffffH
	DD	01H
	DD	00H
	DD	0fdH
	DD	035H
	DD	018c86H
	DD	00H
	DD	0ffffffffH
	DD	01H
	DD	00H
	DD	06dH
	DD	062H
	DD	018c8cH
	DD	00H
	DD	0ffffffffH
	DD	01H
	DD	00H
	DD	090H
	DD	059H
	DD	018c87H
	DD	00H
	DD	0ffffffffH
	DD	01H
	DD	00H
	DD	072H
	DD	056H
	DD	018c86H
	DD	00H
	DD	0ffffffffH
	DD	01H
	DD	00H
	DD	065H
	DD	054H
	DD	018c8dH
	DD	00H
	DD	0ffffffffH
	DD	01H
	DD	00H
	DD	05eH
	DD	05dH
	DD	018c86H
	DD	00H
	DD	0ffffffffH
	DD	01H
	DD	00H
	DD	0173H
	DD	06cH
	DD	018c87H
	DD	00H
	DD	0ffffffffH
	DD	01H
	DD	00H
	DD	0b7H
	DD	078H
	DD	018c86H
	DD	00H
	DD	0ffffffffH
	DD	01H
	DD	00H
	DD	0d2H
	DD	0bbH
	DD	018c86H
	DD	00H
	DD	0ffffffffH
	DD	01H
	DD	00H
	DD	017eH
	DD	0bbH
	DD	018c8fH
	DD	00H
	DD	0ffffffffH
	DD	01H
	DD	00H
	DD	0e1H
	DD	0b2H
	DD	018c86H
	DD	00H
	DD	0ffffffffH
	DD	01H
	DD	00H
	DD	0163H
	DD	0ceH
	DD	018c87H
	DD	00H
	DD	0ffffffffH
	DD	01H
	DD	00H
	DD	016cH
	DD	0d9H
	DD	018c8dH
	DD	00H
	DD	0ffffffffH
	DD	01H
	DD	00H
	DD	0efH
	DD	096H
	DD	018c86H
	DD	00H
	DD	0ffffffffH
	DD	01H
	DD	00H
	DD	0157H
	DD	0d9H
	DD	018c87H
	DD	00H
	DD	0ffffffffH
	DD	01H
	DD	00H
	DD	0f5H
	DD	08bH
	DD	018c86H
	DD	00H
	DD	0ffffffffH
	DD	01H
	DD	00H
	DD	014eH
	DD	0f2H
	DD	018c8cH
	DD	00H
	DD	0ffffffffH
	DD	01H
	DD	00H
	DD	0144H
	DD	0daH
	DD	018c8dH
	DD	00H
	DD	0ffffffffH
	DD	01H
	DD	00H
	DD	0104H
	DD	07cH
	DD	018c8eH
	DD	00H
	DD	0ffffffffH
	DD	01H
	DD	00H
	DD	012dH
	DD	0f6H
	DD	018c86H
	DD	00H
	DD	0ffffffffH
	DD	01H
	DD	00H
	DD	0120H
	DD	0109H
	DD	018c86H
	DD	00H
	DD	0ffffffffH
	DD	01H
	DD	00H
	DD	0116H
	DD	010bH
	DD	018c87H
	DD	00H
	DD	0ffffffffH
	DD	01H
	DD	00H
	DD	0e2H
	DD	017H
	DD	018c86H
	DD	00H
	DD	0ffffffffH
	DD	01H
	DD	00H
	DD	0158H
	DD	02bH
	DD	018c87H
	DD	00H
	DD	0ffffffffH
	DD	01H
	DD	00H
	DD	0170H
	DD	06eH
	DD	018c8cH
	DD	00H
	DD	0ffffffffH
	DD	01H
	DD	00H
	DD	0168H
	DD	091H
	DD	018c86H
	DD	00H
	DD	0ffffffffH
	DD	01H
	DD	00H
	DD	015bH
	DD	0e8H
	DD	018c86H
	DD	00H
	DD	0ffffffffH
	DD	01H
	DD	00H
	DD	0147H
	DD	0e6H
	DD	018c8fH
	DD	00H
	DD	0ffffffffH
	DD	01H
	DD	00H
	DD	093H
	DD	017H
	DD	018c8eH
	DD	00H
	DD	0ffffffffH
	DD	01H
	DD	00H
	DD	093H
	DD	02aH
	DD	018c8dH
	DD	00H
	DD	0ffffffffH
	DD	01H
	DD	00H
	DD	0118H
	DD	026H
	DD	018c86H
	DD	00H
	DD	0ffffffffH
	DD	01H
	DD	00H
	DD	09eH
	DD	02cH
	DD	018c86H
	DD	00H
	DD	0ffffffffH
	DD	01H
	DD	00H
	DD	091H
	DD	044H
	DD	018c86H
	DD	00H
	DD	0ffffffffH
	DD	01H
	DD	00H
	DD	0bdH
	DD	042H
	DD	018c86H
	DD	00H
	DD	0ffffffffH
	DD	01H
	DD	00H
	DD	0ccH
	DD	037H
	DD	018c87H
	DD	00H
	DD	0ffffffffH
	DD	01H
	DD	00H
	DD	0c7H
	DD	037H
	DD	018c86H
	DD	00H
	DD	0ffffffffH
	DD	01H
	DD	00H
	DD	0ebH
	DD	034H
	DD	018c87H
	DD	00H
	DD	0ffffffffH
	DD	01H
	DD	00H
	DD	0fdH
	DD	022H
	DD	018c86H
	DD	00H
	DD	0ffffffffH
	DD	01H
	DD	00H
	DD	0120H
	DD	033H
	DD	018c86H
	DD	00H
	DD	0ffffffffH
	DD	01H
	DD	00H
	DD	012aH
	DD	03eH
	DD	018c87H
	DD	00H
	DD	0ffffffffH
	DD	01H
	DD	00H
	DD	012bH
	DD	048H
	DD	018c86H
	DD	00H
	DD	0ffffffffH
	DD	01H
	DD	00H
	DD	0100H
	DD	05eH
	DD	018c87H
	DD	00H
	DD	0ffffffffH
	DD	01H
	DD	00H
	DD	011cH
	DD	06aH
	DD	018c8cH
	DD	00H
	DD	0ffffffffH
	DD	01H
	DD	00H
	DD	0158H
	DD	02aH
	DD	018c8eH
	DD	00H
	DD	0ffffffffH
	DD	01H
	DD	00H
	DD	0149H
	DD	048H
	DD	018c8fH
	DD	00H
	DD	0ffffffffH
	DD	01H
	DD	00H
	DD	015fH
	DD	052H
	DD	018c8cH
	DD	00H
	DD	0ffffffffH
	DD	01H
	DD	00H
	DD	017bH
	DD	052H
	DD	018c8dH
	DD	00H
	DD	0ffffffffH
	DD	01H
	DD	00H
	DD	0a4H
	DD	0108H
	DD	018c8fH
	DD	00H
	DD	0ffffffffH
	DD	01H
	DD	00H
	DD	09bH
	DD	0107H
	DD	018c86H
	DD	00H
	DD	0ffffffffH
	DD	01H
	DD	00H
	DD	07cH
	DD	010bH
	DD	018c87H
	DD	00H
	DD	0ffffffffH
	DD	01H
	DD	00H
	DD	07dH
	DD	010aH
	DD	018c86H
	DD	00H
	DD	0ffffffffH
	DD	01H
	DD	00H
	DD	070H
	DD	0122H
	DD	018c87H
	DD	00H
	DD	0ffffffffH
	DD	01H
	DD	00H
	DD	066H
	DD	011fH
	DD	018c86H
	DD	00H
	DD	0ffffffffH
	DD	01H
	DD	00H
	DD	05fH
	DD	0134H
	DD	018c87H
	DD	00H
	DD	0ffffffffH
	DD	01H
	DD	00H
	DD	041H
	DD	014fH
	DD	018c87H
	DD	00H
	DD	0ffffffffH
	DD	01H
	DD	00H
	DD	032H
	DD	014fH
	DD	018c8cH
	DD	00H
	DD	0ffffffffH
	DD	01H
	DD	00H
	DD	030H
	DD	016eH
	DD	018c86H
	DD	00H
	DD	0ffffffffH
	DD	01H
	DD	00H
	DD	048H
	DD	0162H
	DD	018c8dH
	DD	00H
	DD	0ffffffffH
	DD	01H
	DD	00H
	DD	04fH
	DD	0178H
	DD	018c87H
	DD	00H
	DD	0ffffffffH
	DD	01H
	DD	00H
	DD	070H
	DD	0174H
	DD	018c8eH
	DD	00H
	DD	0ffffffffH
	DD	01H
	DD	00H
	DD	081H
	DD	019bH
	DD	018c86H
	DD	00H
	DD	0ffffffffH
	DD	01H
	DD	00H
	DD	086H
	DD	01a5H
	DD	018c8fH
	DD	00H
	DD	0ffffffffH
	DD	01H
	DD	00H
	DD	0a9H
	DD	01a0H
	DD	018c86H
	DD	00H
	DD	0ffffffffH
	DD	01H
	DD	00H
	DD	0c9H
	DD	01a2H
	DD	018c87H
	DD	00H
	DD	0ffffffffH
	DD	01H
	DD	00H
	DD	0c4H
	DD	0178H
	DD	018c8cH
	DD	00H
	DD	0ffffffffH
	DD	01H
	DD	00H
	DD	0ceH
	DD	016eH
	DD	018c86H
	DD	00H
	DD	0ffffffffH
	DD	01H
	DD	00H
	DD	0caH
	DD	0156H
	DD	018c8dH
	DD	00H
	DD	0ffffffffH
	DD	01H
	DD	00H
	DD	0acH
	DD	014eH
	DD	018c87H
	DD	00H
	DD	0ffffffffH
	DD	01H
	DD	00H
	DD	0c0H
	DD	0143H
	DD	018c86H
	DD	00H
	DD	0ffffffffH
	DD	01H
	DD	00H
	DD	09bH
	DD	0151H
	DD	018c86H
	DD	00H
	DD	0ffffffffH
	DD	01H
	DD	00H
	DD	084H
	DD	02dH
	DD	018c87H
	DD	00H
	DD	0ffffffffH
	DD	01H
	DD	00H
	DD	063H
	DD	01e9H
	DD	018c86H
	DD	00H
	DD	0ffffffffH
	DD	01H
	DD	00H
	DD	063H
	DD	01d2H
	DD	018c87H
	DD	00H
	DD	0ffffffffH
	DD	01H
	DD	00H
	DD	072H
	DD	01b3H
	DD	018c86H
	DD	00H
	DD	0ffffffffH
	DD	01H
	DD	00H
	DD	077H
	DD	01d1H
	DD	018c8cH
	DD	00H
	DD	0ffffffffH
	DD	01H
	DD	00H
	DD	08eH
	DD	01b3H
	DD	018c86H
	DD	00H
	DD	0ffffffffH
	DD	01H
	DD	00H
	DD	0a6H
	DD	01abH
	DD	018c8dH
	DD	00H
	DD	0ffffffffH
	DD	01H
	DD	00H
	DD	09fH
	DD	017fH
	DD	018c8eH
	DD	00H
	DD	0ffffffffH
	DD	01H
	DD	00H
	DD	02fH
	DD	09cH
	DD	018c86H
	DD	00H
	DD	0ffffffffH
	DD	01H
	DD	00H
	DD	02fH
	DD	084H
	DD	018c8fH
	DD	00H
	DD	0ffffffffH
	DD	01H
	DD	00H
	DD	024H
	DD	07bH
	DD	018c86H
	DD	00H
	DD	0ffffffffH
	DD	01H
	DD	00H
	DD	03dH
	DD	0a2H
	DD	018c8dH
	DD	00H
	DD	0ffffffffH
	DD	01H
	DD	00H
	DD	04fH
	DD	091H
	DD	018c86H
	DD	00H
	DD	0ffffffffH
	DD	01H
	DD	00H
	DD	05dH
	DD	09dH
	DD	018c86H
	DD	00H
	DD	0ffffffffH
	DD	01H
	DD	00H
	DD	06bH
	DD	09aH
	DD	018c87H
	DD	00H
	DD	0ffffffffH
	DD	01H
	DD	00H
	DD	076H
	DD	0a5H
	DD	018c86H
	DD	00H
	DD	0ffffffffH
	DD	01H
	DD	00H
	DD	085H
	DD	0a4H
	DD	018c8fH
	DD	00H
	DD	0ffffffffH
	DD	01H
	DD	00H
	DD	08aH
	DD	0b0H
	DD	018c86H
	DD	00H
	DD	0ffffffffH
	DD	01H
	DD	00H
	DD	092H
	DD	0cdH
	DD	018c86H
	DD	00H
	DD	0ffffffffH
	DD	01H
	DD	00H
	DD	0a2H
	DD	0d3H
	DD	018c8cH
	DD	00H
	DD	0ffffffffH
	DD	01H
	DD	00H
	DD	0aaH
	DD	0caH
	DD	018c86H
	DD	00H
	DD	0ffffffffH
	DD	01H
	DD	00H
	DD	082H
	DD	0b5H
	DD	018cdbH
	DD	00H
	DD	0ffffffffH
	DD	02H
	DD	00H
	DD	0113H
	DD	0ffH
	DD	018cddH
	DD	00H
	DD	0ffffffffH
	DD	02H
	DD	00H
	DD	07cH
	DD	0a1H
	DD	018cdbH
	DD	00H
	DD	0ffffffffH
	DD	02H
	DD	00H
	DD	0105H
	DD	0109H
	DD	018cddH
	DD	00H
	DD	0ffffffffH
	DD	02H
	DD	00H
	DD	0f3H
	DD	05aH
	DD	018cdbH
	DD	00H
	DD	0ffffffffH
	DD	02H
	DD	00H
	DD	0e2H
	DD	0faH
	DD	018cddH
	DD	00H
	DD	0ffffffffH
	DD	02H
	DD	00H
	DD	010dH
	DD	049H
	DD	018cdbH
	DD	00H
	DD	0ffffffffH
	DD	02H
	DD	00H
	DD	0d4H
	DD	0f9H
	DD	018cddH
	DD	00H
	DD	0ffffffffH
	DD	02H
	DD	00H
	DD	0124H
	DD	037H
	DD	018cdbH
	DD	00H
	DD	0ffffffffH
	DD	02H
	DD	00H
	DD	0b6H
	DD	0faH
	DD	018cddH
	DD	00H
	DD	0ffffffffH
	DD	02H
	DD	00H
	DD	0133H
	DD	06cH
	DD	018cdbH
	DD	00H
	DD	0ffffffffH
	DD	02H
	DD	00H
	DD	0a9H
	DD	0104H
	DD	018cddH
	DD	00H
	DD	0ffffffffH
	DD	02H
	DD	00H
	DD	0133H
	DD	066H
	DD	018cdbH
	DD	00H
	DD	0ffffffffH
	DD	02H
	DD	00H
	DD	093H
	DD	0106H
	DD	018cddH
	DD	00H
	DD	0ffffffffH
	DD	02H
	DD	00H
	DD	0b7H
	DD	05fH
	DD	018cdbH
	DD	00H
	DD	0ffffffffH
	DD	02H
	DD	00H
	DD	079H
	DD	0119H
	DD	018cddH
	DD	00H
	DD	0ffffffffH
	DD	02H
	DD	00H
	DD	09cH
	DD	038H
	DD	018cdbH
	DD	00H
	DD	0ffffffffH
	DD	02H
	DD	00H
	DD	06dH
	DD	0121H
	DD	018cddH
	DD	00H
	DD	0ffffffffH
	DD	02H
	DD	00H
	DD	089H
	DD	0b7H
	DD	018cdbH
	DD	00H
	DD	0ffffffffH
	DD	02H
	DD	00H
	DD	067H
	DD	0129H
	DD	018cddH
	DD	00H
	DD	0ffffffffH
	DD	02H
	DD	00H
	DD	085H
	DD	0a7H
	DD	018cdbH
	DD	00H
	DD	0ffffffffH
	DD	02H
	DD	00H
	DD	02eH
	DD	0140H
	DD	018cddH
	DD	00H
	DD	0ffffffffH
	DD	02H
	DD	00H
	DD	082H
	DD	0a3H
	DD	018cdbH
	DD	00H
	DD	0ffffffffH
	DD	02H
	DD	00H
	DD	03fH
	DD	0152H
	DD	018cddH
	DD	00H
	DD	0ffffffffH
	DD	02H
	DD	00H
	DD	070H
	DD	0a4H
	DD	018cdbH
	DD	00H
	DD	0ffffffffH
	DD	02H
	DD	00H
	DD	032H
	DD	0168H
	DD	018cddH
	DD	00H
	DD	0ffffffffH
	DD	02H
	DD	00H
	DD	052H
	DD	097H
	DD	018cdbH
	DD	00H
	DD	0ffffffffH
	DD	02H
	DD	00H
	DD	05cH
	DD	016dH
	DD	018cddH
	DD	00H
	DD	0ffffffffH
	DD	02H
	DD	00H
	DD	042H
	DD	09aH
	DD	018cdbH
	DD	00H
	DD	0ffffffffH
	DD	02H
	DD	00H
	DD	07aH
	DD	017cH
	DD	018cddH
	DD	00H
	DD	0ffffffffH
	DD	02H
	DD	00H
	DD	02fH
	DD	084H
	DD	018cdbH
	DD	00H
	DD	0ffffffffH
	DD	02H
	DD	00H
	DD	097H
	DD	0199H
	DD	018cddH
	DD	00H
	DD	0ffffffffH
	DD	02H
	DD	00H
	DD	02bH
	DD	082H
	DD	018cdbH
	DD	00H
	DD	0ffffffffH
	DD	02H
	DD	00H
	DD	0a2H
	DD	01a0H
	DD	018cddH
	DD	00H
	DD	0ffffffffH
	DD	02H
	DD	00H
	DD	034H
	DD	08cH
	DD	018cdbH
	DD	00H
	DD	0ffffffffH
	DD	02H
	DD	00H
	DD	0d1H
	DD	0171H
	DD	018cddH
	DD	00H
	DD	0ffffffffH
	DD	02H
	DD	00H
	DD	04cH
	DD	09bH
	DD	018cdbH
	DD	00H
	DD	0ffffffffH
	DD	02H
	DD	00H
	DD	0c0H
	DD	0152H
	DD	018cddH
	DD	00H
	DD	0ffffffffH
	DD	02H
	DD	00H
	DD	078H
	DD	0a9H
	DD	018cdbH
	DD	00H
	DD	0ffffffffH
	DD	02H
	DD	00H
	DD	0a5H
	DD	013bH
	DD	018cddH
	DD	00H
	DD	0ffffffffH
	DD	02H
	DD	00H
	DD	094H
	DD	0dcH
	DD	018cdbH
	DD	00H
	DD	0ffffffffH
	DD	02H
	DD	00H
	DD	0a6H
	DD	0157H
	DD	018cddH
	DD	00H
	DD	0ffffffffH
	DD	02H
	DD	00H
	DD	0e1H
	DD	0afH
	DD	018cdbH
	DD	00H
	DD	0ffffffffH
	DD	02H
	DD	00H
	DD	0c7H
	DD	0193H
	DD	018cddH
	DD	00H
	DD	0ffffffffH
	DD	02H
	DD	00H
	DD	0f4H
	DD	090H
	DD	018cdbH
	DD	00H
	DD	0ffffffffH
	DD	02H
	DD	00H
	DD	0abH
	DD	0198H
	DD	018cddH
	DD	00H
	DD	0ffffffffH
	DD	02H
	DD	00H
	DD	0e5H
	DD	067H
	DD	018cdbH
	DD	00H
	DD	0ffffffffH
	DD	02H
	DD	00H
	DD	091H
	DD	0196H
	DD	018cddH
	DD	00H
	DD	0ffffffffH
	DD	02H
	DD	00H
	DD	0eeH
	DD	06eH
	DD	018cdbH
	DD	00H
	DD	0ffffffffH
	DD	02H
	DD	00H
	DD	0a4H
	DD	01cdH
	DD	018cddH
	DD	00H
	DD	0ffffffffH
	DD	02H
	DD	00H
	DD	063H
	DD	058H
	DD	018cdbH
	DD	00H
	DD	0ffffffffH
	DD	02H
	DD	00H
	DD	0bcH
	DD	01fcH
	DD	018cddH
	DD	00H
	DD	0ffffffffH
	DD	02H
	DD	00H
	DD	086H
	DD	050H
	DD	018cdbH
	DD	00H
	DD	0ffffffffH
	DD	02H
	DD	00H
	DD	09eH
	DD	01c9H
	DD	018cddH
	DD	00H
	DD	0ffffffffH
	DD	02H
	DD	00H
	DD	0cfH
	DD	02eH
	DD	018cdbH
	DD	00H
	DD	0ffffffffH
	DD	02H
	DD	00H
	DD	094H
	DD	01e7H
	DD	018cddH
	DD	00H
	DD	0ffffffffH
	DD	02H
	DD	00H
	DD	013bH
	DD	02bH
	DD	018cdbH
	DD	00H
	DD	0ffffffffH
	DD	02H
	DD	00H
	DD	067H
	DD	01ccH
	DD	018cddH
	DD	00H
	DD	0ffffffffH
	DD	02H
	DD	00H
	DD	0151H
	DD	024H
	DD	018cdbH
	DD	00H
	DD	0ffffffffH
	DD	02H
	DD	00H
	DD	06fH
	DD	01beH
	DD	018cddH
	DD	00H
	DD	0ffffffffH
	DD	02H
	DD	00H
	DD	0161H
	DD	04bH
	DD	018cdbH
	DD	00H
	DD	0ffffffffH
	DD	02H
	DD	00H
	DD	07eH
	DD	01bbH
	DD	018cddH
	DD	00H
	DD	0ffffffffH
	DD	02H
	DD	00H
	DD	0167H
	DD	05aH
	DD	018cdbH
	DD	00H
	DD	0ffffffffH
	DD	02H
	DD	00H
	DD	084H
	DD	0199H
	DD	018cddH
	DD	00H
	DD	0ffffffffH
	DD	02H
	DD	00H
	DD	0167H
	DD	064H
	DD	018cdbH
	DD	00H
	DD	0ffffffffH
	DD	02H
	DD	00H
	DD	06eH
	DD	017eH
	DD	018cddH
	DD	00H
	DD	0ffffffffH
	DD	02H
	DD	00H
	DD	0163H
	DD	064H
	DD	018cdbH
	DD	00H
	DD	0ffffffffH
	DD	02H
	DD	00H
	DD	017aH
	DD	0baH
	DD	018cddH
	DD	00H
	DD	0ffffffffH
	DD	02H
	DD	00H
	DD	015fH
	DD	098H
	DD	018cdbH
	DD	00H
	DD	0ffffffffH
	DD	02H
	DD	00H
	DD	0172H
	DD	0d1H
	DD	018cddH
	DD	00H
	DD	0ffffffffH
	DD	02H
	DD	00H
	DD	0168H
	DD	09dH
	DD	018cdbH
	DD	00H
	DD	0ffffffffH
	DD	02H
	DD	00H
	DD	015dH
	DD	0e1H
	DD	018cddH
	DD	00H
	DD	0ffffffffH
	DD	02H
	DD	00H
	DD	0172H
	DD	0aaH
	DD	018cdbH
	DD	00H
	DD	0ffffffffH
	DD	02H
	DD	00H
	DD	0155H
	DD	0eaH
	DD	018cddH
	DD	00H
	DD	0ffffffffH
	DD	02H
	DD	00H
	DD	012cH
	DD	0feH
	DD	018cdbH
	DD	00H
	DD	0ffffffffH
	DD	02H
	DD	00H
	DD	0137H
	DD	0efH
	DD	018cddH
	DD	00H
	DD	0ffffffffH
	DD	02H
	DD	00H
	DD	081H
	DD	0b9H
	DD	018cdaH
	DD	00H
	DD	0ffffffffH
	DD	02H
	DD	00H
	DD	016fH
	DD	0ccH
	DD	018cdcH
	DD	00H
	DD	0ffffffffH
	DD	02H
	DD	00H
	DD	085H
	DD	0a0H
	DD	018cdaH
	DD	00H
	DD	0ffffffffH
	DD	02H
	DD	00H
	DD	0154H
	DD	0ddH
	DD	018cdcH
	DD	00H
	DD	0ffffffffH
	DD	02H
	DD	00H
	DD	0f8H
	DD	057H
	DD	018cdaH
	DD	00H
	DD	0ffffffffH
	DD	02H
	DD	00H
	DD	014aH
	DD	0e3H
	DD	018cdcH
	DD	00H
	DD	0ffffffffH
	DD	02H
	DD	00H
	DD	0106H
	DD	024H
	DD	018cdaH
	DD	00H
	DD	0ffffffffH
	DD	02H
	DD	00H
	DD	013cH
	DD	0faH
	DD	018cdcH
	DD	00H
	DD	0ffffffffH
	DD	02H
	DD	00H
	DD	0100H
	DD	053H
	DD	018cdaH
	DD	00H
	DD	0ffffffffH
	DD	02H
	DD	00H
	DD	0123H
	DD	0faH
	DD	018cdcH
	DD	00H
	DD	0ffffffffH
	DD	02H
	DD	00H
	DD	0139H
	DD	073H
	DD	018cdaH
	DD	00H
	DD	0ffffffffH
	DD	02H
	DD	00H
	DD	0114H
	DD	0105H
	DD	018cdcH
	DD	00H
	DD	0ffffffffH
	DD	02H
	DD	00H
	DD	012fH
	DD	06eH
	DD	018cdaH
	DD	00H
	DD	0ffffffffH
	DD	02H
	DD	00H
	DD	0fcH
	DD	0105H
	DD	018cdcH
	DD	00H
	DD	0ffffffffH
	DD	02H
	DD	00H
	DD	0adH
	DD	053H
	DD	018cdaH
	DD	00H
	DD	0ffffffffH
	DD	02H
	DD	00H
	DD	0deH
	DD	0f9H
	DD	018cdcH
	DD	00H
	DD	0ffffffffH
	DD	02H
	DD	00H
	DD	08eH
	DD	057H
	DD	018cdaH
	DD	00H
	DD	0ffffffffH
	DD	02H
	DD	00H
	DD	0d1H
	DD	0f9H
	DD	018cdcH
	DD	00H
	DD	0ffffffffH
	DD	02H
	DD	00H
	DD	0fcH
	DD	07eH
	DD	018cdaH
	DD	00H
	DD	0ffffffffH
	DD	02H
	DD	00H
	DD	0b3H
	DD	0f8H
	DD	018cdcH
	DD	00H
	DD	0ffffffffH
	DD	02H
	DD	00H
	DD	0ddH
	DD	0b3H
	DD	018cdaH
	DD	00H
	DD	0ffffffffH
	DD	02H
	DD	00H
	DD	0a7H
	DD	0100H
	DD	018cdcH
	DD	00H
	DD	0ffffffffH
	DD	02H
	DD	00H
	DD	0c7H
	DD	0b6H
	DD	018cdaH
	DD	00H
	DD	0ffffffffH
	DD	02H
	DD	00H
	DD	08eH
	DD	0105H
	DD	018cdcH
	DD	00H
	DD	0ffffffffH
	DD	02H
	DD	00H
	DD	060H
	DD	095H
	DD	018cdaH
	DD	00H
	DD	0ffffffffH
	DD	02H
	DD	00H
	DD	071H
	DD	0116H
	DD	018cdcH
	DD	00H
	DD	0ffffffffH
	DD	02H
	DD	00H
	DD	055H
	DD	08dH
	DD	018cdaH
	DD	00H
	DD	0ffffffffH
	DD	02H
	DD	00H
	DD	067H
	DD	0120H
	DD	018cdcH
	DD	00H
	DD	0ffffffffH
	DD	02H
	DD	00H
	DD	03dH
	DD	09dH
	DD	018cdaH
	DD	00H
	DD	0ffffffffH
	DD	02H
	DD	00H
	DD	054H
	DD	0133H
	DD	018cdcH
	DD	00H
	DD	0ffffffffH
	DD	02H
	DD	00H
	DD	027H
	DD	087H
	DD	018cdaH
	DD	00H
	DD	0ffffffffH
	DD	02H
	DD	00H
	DD	02eH
	DD	0144H
	DD	018cdcH
	DD	00H
	DD	0ffffffffH
	DD	02H
	DD	00H
	DD	028H
	DD	083H
	DD	018cdaH
	DD	00H
	DD	0ffffffffH
	DD	02H
	DD	00H
	DD	03fH
	DD	0157H
	DD	018cdcH
	DD	00H
	DD	0ffffffffH
	DD	02H
	DD	00H
	DD	037H
	DD	094H
	DD	018cdaH
	DD	00H
	DD	0ffffffffH
	DD	02H
	DD	00H
	DD	035H
	DD	016bH
	DD	018cdcH
	DD	00H
	DD	0ffffffffH
	DD	02H
	DD	00H
	DD	05cH
	DD	093H
	DD	018cdaH
	DD	00H
	DD	0ffffffffH
	DD	02H
	DD	00H
	DD	064H
	DD	0171H
	DD	018cdcH
	DD	00H
	DD	0ffffffffH
	DD	02H
	DD	00H
	DD	081H
	DD	0b0H
	DD	018cdaH
	DD	00H
	DD	0ffffffffH
	DD	02H
	DD	00H
	DD	087H
	DD	0186H
	DD	018cdcH
	DD	00H
	DD	0ffffffffH
	DD	02H
	DD	00H
	DD	097H
	DD	0d0H
	DD	018cdaH
	DD	00H
	DD	0ffffffffH
	DD	02H
	DD	00H
	DD	099H
	DD	0197H
	DD	018cdcH
	DD	00H
	DD	0ffffffffH
	DD	02H
	DD	00H
	DD	0e5H
	DD	0a6H
	DD	018cdaH
	DD	00H
	DD	0ffffffffH
	DD	02H
	DD	00H
	DD	0a9H
	DD	01a3H
	DD	018cdcH
	DD	00H
	DD	0ffffffffH
	DD	02H
	DD	00H
	DD	0feH
	DD	084H
	DD	018cdaH
	DD	00H
	DD	0ffffffffH
	DD	02H
	DD	00H
	DD	0d4H
	DD	0172H
	DD	018cdcH
	DD	00H
	DD	0ffffffffH
	DD	02H
	DD	00H
	DD	0135H
	DD	06dH
	DD	018cdaH
	DD	00H
	DD	0ffffffffH
	DD	02H
	DD	00H
	DD	0c4H
	DD	0152H
	DD	018cdcH
	DD	00H
	DD	0ffffffffH
	DD	02H
	DD	00H
	DD	0ecH
	DD	04cH
	DD	018cdaH
	DD	00H
	DD	0ffffffffH
	DD	02H
	DD	00H
	DD	0a1H
	DD	0141H
	DD	018cdcH
	DD	00H
	DD	0ffffffffH
	DD	02H
	DD	00H
	DD	06fH
	DD	059H
	DD	018cdaH
	DD	00H
	DD	0ffffffffH
	DD	02H
	DD	00H
	DD	0b8H
	DD	014fH
	DD	018cdcH
	DD	00H
	DD	0ffffffffH
	DD	02H
	DD	00H
	DD	089H
	DD	04cH
	DD	018cdaH
	DD	00H
	DD	0ffffffffH
	DD	02H
	DD	00H
	DD	0b6H
	DD	019aH
	DD	018cdcH
	DD	00H
	DD	0ffffffffH
	DD	02H
	DD	00H
	DD	010dH
	DD	039H
	DD	018cdaH
	DD	00H
	DD	0ffffffffH
	DD	02H
	DD	00H
	DD	0b3H
	DD	01a9H
	DD	018cdcH
	DD	00H
	DD	0ffffffffH
	DD	02H
	DD	00H
	DD	0134H
	DD	028H
	DD	018cdaH
	DD	00H
	DD	0ffffffffH
	DD	02H
	DD	00H
	DD	097H
	DD	018fH
	DD	018cdcH
	DD	00H
	DD	0ffffffffH
	DD	02H
	DD	00H
	DD	0159H
	DD	03cH
	DD	018cdaH
	DD	00H
	DD	0ffffffffH
	DD	02H
	DD	00H
	DD	0a7H
	DD	01e7H
	DD	018cdcH
	DD	00H
	DD	0ffffffffH
	DD	02H
	DD	00H
	DD	015aH
	DD	04fH
	DD	018cdaH
	DD	00H
	DD	0ffffffffH
	DD	02H
	DD	00H
	DD	0bbH
	DD	0204H
	DD	018cdcH
	DD	00H
	DD	0ffffffffH
	DD	02H
	DD	00H
	DD	0167H
	DD	062H
	DD	018cdaH
	DD	00H
	DD	0ffffffffH
	DD	02H
	DD	00H
	DD	06aH
	DD	01e8H
	DD	018cdcH
	DD	00H
	DD	0ffffffffH
	DD	02H
	DD	00H
	DD	0175H
	DD	06eH
	DD	018cdaH
	DD	00H
	DD	0ffffffffH
	DD	02H
	DD	00H
	DD	08fH
	DD	01e7H
	DD	018cdcH
	DD	00H
	DD	0ffffffffH
	DD	02H
	DD	00H
	DD	0175H
	DD	06aH
	DD	018cdaH
	DD	00H
	DD	0ffffffffH
	DD	02H
	DD	00H
	DD	06aH
	DD	01c7H
	DD	018cdcH
	DD	00H
	DD	0ffffffffH
	DD	02H
	DD	00H
	DD	0164H
	DD	098H
	DD	018cdaH
	DD	00H
	DD	0ffffffffH
	DD	02H
	DD	00H
	DD	068H
	DD	01caH
	DD	018cdcH
	DD	00H
	DD	0ffffffffH
	DD	02H
	DD	00H
	DD	016dH
	DD	09aH
	DD	018cdaH
	DD	00H
	DD	0ffffffffH
	DD	02H
	DD	00H
	DD	092H
	DD	01acH
	DD	018cdcH
	DD	00H
	DD	0ffffffffH
	DD	02H
	DD	00H
	DD	0168H
	DD	0a9H
	DD	018cdaH
	DD	00H
	DD	0ffffffffH
	DD	02H
	DD	00H
	DD	080H
	DD	0195H
	DD	018cdcH
	DD	00H
	DD	0ffffffffH
	DD	02H
	DD	00H
	DD	0175H
	DD	0baH
	DD	018cdaH
	DD	00H
	DD	0ffffffffH
	DD	02H
	DD	00H
	DD	05cH
	DD	017dH
	DD	018cdcH
	DD	00H
	DD	0ffffffffH
	DD	02H
	DD	00H
	DD	094H
	DD	0c7H
	DD	018cdeH
	DD	00H
	DD	0ffffffffH
	DD	02H
	DD	00H
	DD	0164H
	DD	0daH
	DD	018ce0H
	DD	00H
	DD	0ffffffffH
	DD	02H
	DD	00H
	DD	078H
	DD	09eH
	DD	018cdeH
	DD	00H
	DD	0ffffffffH
	DD	02H
	DD	00H
	DD	0151H
	DD	0deH
	DD	018ce0H
	DD	00H
	DD	0ffffffffH
	DD	02H
	DD	00H
	DD	0ebH
	DD	04eH
	DD	018cdeH
	DD	00H
	DD	0ffffffffH
	DD	02H
	DD	00H
	DD	013fH
	DD	0e9H
	DD	018ce0H
	DD	00H
	DD	0ffffffffH
	DD	02H
	DD	00H
	DD	011eH
	DD	031H
	DD	018cdeH
	DD	00H
	DD	0ffffffffH
	DD	02H
	DD	00H
	DD	0131H
	DD	0f2H
	DD	018ce0H
	DD	00H
	DD	0ffffffffH
	DD	02H
	DD	00H
	DD	0174H
	DD	079H
	DD	018cdeH
	DD	00H
	DD	0ffffffffH
	DD	02H
	DD	00H
	DD	0119H
	DD	0104H
	DD	018ce0H
	DD	00H
	DD	0ffffffffH
	DD	02H
	DD	00H
	DD	015aH
	DD	03eH
	DD	018cdeH
	DD	00H
	DD	0ffffffffH
	DD	02H
	DD	00H
	DD	010fH
	DD	0106H
	DD	018ce0H
	DD	00H
	DD	0ffffffffH
	DD	02H
	DD	00H
	DD	0145H
	DD	050H
	DD	018cdeH
	DD	00H
	DD	0ffffffffH
	DD	02H
	DD	00H
	DD	0f3H
	DD	0f6H
	DD	018ce0H
	DD	00H
	DD	0ffffffffH
	DD	02H
	DD	00H
	DD	09cH
	DD	034H
	DD	018cdeH
	DD	00H
	DD	0ffffffffH
	DD	02H
	DD	00H
	DD	0dfH
	DD	0faH
	DD	018ce0H
	DD	00H
	DD	0ffffffffH
	DD	02H
	DD	00H
	DD	09fH
	DD	04aH
	DD	018cdeH
	DD	00H
	DD	0ffffffffH
	DD	02H
	DD	00H
	DD	0caH
	DD	0f7H
	DD	018ce0H
	DD	00H
	DD	0ffffffffH
	DD	02H
	DD	00H
	DD	0f0H
	DD	099H
	DD	018cdeH
	DD	00H
	DD	0ffffffffH
	DD	02H
	DD	00H
	DD	0afH
	DD	0101H
	DD	018ce0H
	DD	00H
	DD	0ffffffffH
	DD	02H
	DD	00H
	DD	0ccH
	DD	0b0H
	DD	018cdeH
	DD	00H
	DD	0ffffffffH
	DD	02H
	DD	00H
	DD	0a3H
	DD	0100H
	DD	018ce0H
	DD	00H
	DD	0ffffffffH
	DD	02H
	DD	00H
	DD	0bdH
	DD	0bdH
	DD	018cdeH
	DD	00H
	DD	0ffffffffH
	DD	02H
	DD	00H
	DD	087H
	DD	0107H
	DD	018ce0H
	DD	00H
	DD	0ffffffffH
	DD	02H
	DD	00H
	DD	058H
	DD	08eH
	DD	018cdeH
	DD	00H
	DD	0ffffffffH
	DD	02H
	DD	00H
	DD	071H
	DD	0120H
	DD	018ce0H
	DD	00H
	DD	0ffffffffH
	DD	02H
	DD	00H
	DD	04cH
	DD	093H
	DD	018cdeH
	DD	00H
	DD	0ffffffffH
	DD	02H
	DD	00H
	DD	063H
	DD	0123H
	DD	018ce0H
	DD	00H
	DD	0ffffffffH
	DD	02H
	DD	00H
	DD	03aH
	DD	08cH
	DD	018cdeH
	DD	00H
	DD	0ffffffffH
	DD	02H
	DD	00H
	DD	04cH
	DD	013eH
	DD	018ce0H
	DD	00H
	DD	0ffffffffH
	DD	02H
	DD	00H
	DD	027H
	DD	077H
	DD	018cdeH
	DD	00H
	DD	0ffffffffH
	DD	02H
	DD	00H
	DD	045H
	DD	0145H
	DD	018ce0H
	DD	00H
	DD	0ffffffffH
	DD	02H
	DD	00H
	DD	01bH
	DD	07dH
	DD	018cdeH
	DD	00H
	DD	0ffffffffH
	DD	02H
	DD	00H
	DD	04aH
	DD	0162H
	DD	018ce0H
	DD	00H
	DD	0ffffffffH
	DD	02H
	DD	00H
	DD	03cH
	DD	09eH
	DD	018cdeH
	DD	00H
	DD	0ffffffffH
	DD	02H
	DD	00H
	DD	04dH
	DD	0165H
	DD	018ce0H
	DD	00H
	DD	0ffffffffH
	DD	02H
	DD	00H
	DD	064H
	DD	09dH
	DD	018cdeH
	DD	00H
	DD	0ffffffffH
	DD	02H
	DD	00H
	DD	064H
	DD	0177H
	DD	018ce0H
	DD	00H
	DD	0ffffffffH
	DD	02H
	DD	00H
	DD	08dH
	DD	0c0H
	DD	018cdeH
	DD	00H
	DD	0ffffffffH
	DD	02H
	DD	00H
	DD	07eH
	DD	0193H
	DD	018ce0H
	DD	00H
	DD	0ffffffffH
	DD	02H
	DD	00H
	DD	0bdH
	DD	0c4H
	DD	018cdeH
	DD	00H
	DD	0ffffffffH
	DD	02H
	DD	00H
	DD	0a0H
	DD	018fH
	DD	018ce0H
	DD	00H
	DD	0ffffffffH
	DD	02H
	DD	00H
	DD	0f4H
	DD	0a0H
	DD	018cdeH
	DD	00H
	DD	0ffffffffH
	DD	02H
	DD	00H
	DD	0b0H
	DD	01b1H
	DD	018ce0H
	DD	00H
	DD	0ffffffffH
	DD	02H
	DD	00H
	DD	0102H
	DD	074H
	DD	018cdeH
	DD	00H
	DD	0ffffffffH
	DD	02H
	DD	00H
	DD	0cdH
	DD	016cH
	DD	018ce0H
	DD	00H
	DD	0ffffffffH
	DD	02H
	DD	00H
	DD	0131H
	DD	071H
	DD	018cdeH
	DD	00H
	DD	0ffffffffH
	DD	02H
	DD	00H
	DD	0bfH
	DD	014aH
	DD	018ce0H
	DD	00H
	DD	0ffffffffH
	DD	02H
	DD	00H
	DD	0a9H
	DD	067H
	DD	018cdeH
	DD	00H
	DD	0ffffffffH
	DD	02H
	DD	00H
	DD	096H
	DD	0149H
	DD	018ce0H
	DD	00H
	DD	0ffffffffH
	DD	02H
	DD	00H
	DD	083H
	DD	054H
	DD	018cdeH
	DD	00H
	DD	0ffffffffH
	DD	02H
	DD	00H
	DD	0baH
	DD	0158H
	DD	018ce0H
	DD	00H
	DD	0ffffffffH
	DD	02H
	DD	00H
	DD	0c4H
	DD	061H
	DD	018cdeH
	DD	00H
	DD	0ffffffffH
	DD	02H
	DD	00H
	DD	0b7H
	DD	019dH
	DD	018ce0H
	DD	00H
	DD	0ffffffffH
	DD	02H
	DD	00H
	DD	011dH
	DD	031H
	DD	018cdeH
	DD	00H
	DD	0ffffffffH
	DD	02H
	DD	00H
	DD	0afH
	DD	01b2H
	DD	018ce0H
	DD	00H
	DD	0ffffffffH
	DD	02H
	DD	00H
	DD	014aH
	DD	018H
	DD	018cdeH
	DD	00H
	DD	0ffffffffH
	DD	02H
	DD	00H
	DD	0a2H
	DD	01ceH
	DD	018ce0H
	DD	00H
	DD	0ffffffffH
	DD	02H
	DD	00H
	DD	0163H
	DD	046H
	DD	018cdeH
	DD	00H
	DD	0ffffffffH
	DD	02H
	DD	00H
	DD	0a5H
	DD	01f4H
	DD	018ce0H
	DD	00H
	DD	0ffffffffH
	DD	02H
	DD	00H
	DD	0148H
	DD	03cH
	DD	018cdeH
	DD	00H
	DD	0ffffffffH
	DD	02H
	DD	00H
	DD	0b4H
	DD	01feH
	DD	018ce0H
	DD	00H
	DD	0ffffffffH
	DD	02H
	DD	00H
	DD	0170H
	DD	068H
	DD	018cdeH
	DD	00H
	DD	0ffffffffH
	DD	02H
	DD	00H
	DD	089H
	DD	01e9H
	DD	018ce0H
	DD	00H
	DD	0ffffffffH
	DD	02H
	DD	00H
	DD	0173H
	DD	076H
	DD	018cdeH
	DD	00H
	DD	0ffffffffH
	DD	02H
	DD	00H
	DD	082H
	DD	01ebH
	DD	018ce0H
	DD	00H
	DD	0ffffffffH
	DD	02H
	DD	00H
	DD	0167H
	DD	08aH
	DD	018cdeH
	DD	00H
	DD	0ffffffffH
	DD	02H
	DD	00H
	DD	072H
	DD	01bbH
	DD	018ce0H
	DD	00H
	DD	0ffffffffH
	DD	02H
	DD	00H
	DD	0167H
	DD	0aaH
	DD	018cdeH
	DD	00H
	DD	0ffffffffH
	DD	02H
	DD	00H
	DD	063H
	DD	01d6H
	DD	018ce0H
	DD	00H
	DD	0ffffffffH
	DD	02H
	DD	00H
	DD	015dH
	DD	083H
	DD	018cdeH
	DD	00H
	DD	0ffffffffH
	DD	02H
	DD	00H
	DD	084H
	DD	019eH
	DD	018ce0H
	DD	00H
	DD	0ffffffffH
	DD	02H
	DD	00H
	DD	0174H
	DD	0b1H
	DD	018cdeH
	DD	00H
	DD	0ffffffffH
	DD	02H
	DD	00H
	DD	089H
	DD	0188H
	DD	018ce0H
	DD	00H
	DD	0ffffffffH
	DD	02H
	DD	00H
	DD	017dH
	DD	0cbH
	DD	018cdeH
	DD	00H
	DD	0ffffffffH
	DD	02H
	DD	00H
	DD	04fH
	DD	0176H
	DD	018ce0H
	DD	00H
	DD	0ffffffffH
	DD	02H
	DD	00H
	DD	08dH
	DD	0caH
	DD	018cdfH
	DD	00H
	DD	0ffffffffH
	DD	02H
	DD	00H
	DD	0166H
	DD	0d2H
	DD	018ce1H
	DD	00H
	DD	0ffffffffH
	DD	02H
	DD	00H
	DD	07dH
	DD	0a2H
	DD	018cdfH
	DD	00H
	DD	0ffffffffH
	DD	02H
	DD	00H
	DD	0158H
	DD	0e6H
	DD	018ce1H
	DD	00H
	DD	0ffffffffH
	DD	02H
	DD	00H
	DD	0f3H
	DD	05eH
	DD	018cdfH
	DD	00H
	DD	0ffffffffH
	DD	02H
	DD	00H
	DD	0146H
	DD	0e5H
	DD	018ce1H
	DD	00H
	DD	0ffffffffH
	DD	02H
	DD	00H
	DD	011cH
	DD	02eH
	DD	018cdfH
	DD	00H
	DD	0ffffffffH
	DD	02H
	DD	00H
	DD	013eH
	DD	0f8H
	DD	018ce1H
	DD	00H
	DD	0ffffffffH
	DD	02H
	DD	00H
	DD	013dH
	DD	07eH
	DD	018cdfH
	DD	00H
	DD	0ffffffffH
	DD	02H
	DD	00H
	DD	0120H
	DD	0fcH
	DD	018ce1H
	DD	00H
	DD	0ffffffffH
	DD	02H
	DD	00H
	DD	0162H
	DD	04bH
	DD	018cdfH
	DD	00H
	DD	0ffffffffH
	DD	02H
	DD	00H
	DD	0112H
	DD	0ffH
	DD	018ce1H
	DD	00H
	DD	0ffffffffH
	DD	02H
	DD	00H
	DD	013bH
	DD	074H
	DD	018cdfH
	DD	00H
	DD	0ffffffffH
	DD	02H
	DD	00H
	DD	0f3H
	DD	0107H
	DD	018ce1H
	DD	00H
	DD	0ffffffffH
	DD	02H
	DD	00H
	DD	09bH
	DD	049H
	DD	018cdfH
	DD	00H
	DD	0ffffffffH
	DD	02H
	DD	00H
	DD	0e0H
	DD	0fdH
	DD	018ce1H
	DD	00H
	DD	0ffffffffH
	DD	02H
	DD	00H
	DD	0a1H
	DD	04eH
	DD	018cdfH
	DD	00H
	DD	0ffffffffH
	DD	02H
	DD	00H
	DD	0d0H
	DD	0fcH
	DD	018ce1H
	DD	00H
	DD	0ffffffffH
	DD	02H
	DD	00H
	DD	0faH
	DD	08bH
	DD	018cdfH
	DD	00H
	DD	0ffffffffH
	DD	02H
	DD	00H
	DD	0b2H
	DD	0feH
	DD	018ce1H
	DD	00H
	DD	0ffffffffH
	DD	02H
	DD	00H
	DD	0ceH
	DD	0c5H
	DD	018cdfH
	DD	00H
	DD	0ffffffffH
	DD	02H
	DD	00H
	DD	0a0H
	DD	0104H
	DD	018ce1H
	DD	00H
	DD	0ffffffffH
	DD	02H
	DD	00H
	DD	0c3H
	DD	0c0H
	DD	018cdfH
	DD	00H
	DD	0ffffffffH
	DD	02H
	DD	00H
	DD	087H
	DD	0108H
	DD	018ce1H
	DD	00H
	DD	0ffffffffH
	DD	02H
	DD	00H
	DD	05eH
	DD	09bH
	DD	018cdfH
	DD	00H
	DD	0ffffffffH
	DD	02H
	DD	00H
	DD	070H
	DD	0119H
	DD	018ce1H
	DD	00H
	DD	0ffffffffH
	DD	02H
	DD	00H
	DD	04dH
	DD	099H
	DD	018cdfH
	DD	00H
	DD	0ffffffffH
	DD	02H
	DD	00H
	DD	067H
	DD	0128H
	DD	018ce1H
	DD	00H
	DD	0ffffffffH
	DD	02H
	DD	00H
	DD	037H
	DD	092H
	DD	018cdfH
	DD	00H
	DD	0ffffffffH
	DD	02H
	DD	00H
	DD	04fH
	DD	0136H
	DD	018ce1H
	DD	00H
	DD	0ffffffffH
	DD	02H
	DD	00H
	DD	02dH
	DD	07aH
	DD	018cdfH
	DD	00H
	DD	0ffffffffH
	DD	02H
	DD	00H
	DD	042H
	DD	0148H
	DD	018ce1H
	DD	00H
	DD	0ffffffffH
	DD	02H
	DD	00H
	DD	027H
	DD	078H
	DD	018cdfH
	DD	00H
	DD	0ffffffffH
	DD	02H
	DD	00H
	DD	044H
	DD	015fH
	DD	018ce1H
	DD	00H
	DD	0ffffffffH
	DD	02H
	DD	00H
	DD	030H
	DD	09dH
	DD	018cdfH
	DD	00H
	DD	0ffffffffH
	DD	02H
	DD	00H
	DD	04aH
	DD	0161H
	DD	018ce1H
	DD	00H
	DD	0ffffffffH
	DD	02H
	DD	00H
	DD	063H
	DD	097H
	DD	018cdfH
	DD	00H
	DD	0ffffffffH
	DD	02H
	DD	00H
	DD	06bH
	DD	0176H
	DD	018ce1H
	DD	00H
	DD	0ffffffffH
	DD	02H
	DD	00H
	DD	088H
	DD	0b6H
	DD	018cdfH
	DD	00H
	DD	0ffffffffH
	DD	02H
	DD	00H
	DD	08aH
	DD	0189H
	DD	018ce1H
	DD	00H
	DD	0ffffffffH
	DD	02H
	DD	00H
	DD	0adH
	DD	0cbH
	DD	018cdfH
	DD	00H
	DD	0ffffffffH
	DD	02H
	DD	00H
	DD	0a3H
	DD	018fH
	DD	018ce1H
	DD	00H
	DD	0ffffffffH
	DD	02H
	DD	00H
	DD	0dfH
	DD	0a0H
	DD	018cdfH
	DD	00H
	DD	0ffffffffH
	DD	02H
	DD	00H
	DD	0abH
	DD	019bH
	DD	018ce1H
	DD	00H
	DD	0ffffffffH
	DD	02H
	DD	00H
	DD	0feH
	DD	079H
	DD	018cdfH
	DD	00H
	DD	0ffffffffH
	DD	02H
	DD	00H
	DD	0d6H
	DD	017fH
	DD	018ce1H
	DD	00H
	DD	0ffffffffH
	DD	02H
	DD	00H
	DD	013bH
	DD	076H
	DD	018cdfH
	DD	00H
	DD	0ffffffffH
	DD	02H
	DD	00H
	DD	0c0H
	DD	014aH
	DD	018ce1H
	DD	00H
	DD	0ffffffffH
	DD	02H
	DD	00H
	DD	0eaH
	DD	045H
	DD	018cdfH
	DD	00H
	DD	0ffffffffH
	DD	02H
	DD	00H
	DD	09bH
	DD	0142H
	DD	018ce1H
	DD	00H
	DD	0ffffffffH
	DD	02H
	DD	00H
	DD	07bH
	DD	058H
	DD	018cdfH
	DD	00H
	DD	0ffffffffH
	DD	02H
	DD	00H
	DD	0b7H
	DD	0150H
	DD	018ce1H
	DD	00H
	DD	0ffffffffH
	DD	02H
	DD	00H
	DD	0a4H
	DD	050H
	DD	018cdfH
	DD	00H
	DD	0ffffffffH
	DD	02H
	DD	00H
	DD	0b6H
	DD	01a5H
	DD	018ce1H
	DD	00H
	DD	0ffffffffH
	DD	02H
	DD	00H
	DD	011cH
	DD	02dH
	DD	018cdfH
	DD	00H
	DD	0ffffffffH
	DD	02H
	DD	00H
	DD	0afH
	DD	01aeH
	DD	018ce1H
	DD	00H
	DD	0ffffffffH
	DD	02H
	DD	00H
	DD	014dH
	DD	01eH
	DD	018cdfH
	DD	00H
	DD	0ffffffffH
	DD	02H
	DD	00H
	DD	096H
	DD	019fH
	DD	018ce1H
	DD	00H
	DD	0ffffffffH
	DD	02H
	DD	00H
	DD	0160H
	DD	03eH
	DD	018cdfH
	DD	00H
	DD	0ffffffffH
	DD	02H
	DD	00H
	DD	0a9H
	DD	01f2H
	DD	018ce1H
	DD	00H
	DD	0ffffffffH
	DD	02H
	DD	00H
	DD	014fH
	DD	053H
	DD	018cdfH
	DD	00H
	DD	0ffffffffH
	DD	02H
	DD	00H
	DD	0bcH
	DD	0205H
	DD	018ce1H
	DD	00H
	DD	0ffffffffH
	DD	02H
	DD	00H
	DD	016bH
	DD	064H
	DD	018cdfH
	DD	00H
	DD	0ffffffffH
	DD	02H
	DD	00H
	DD	076H
	DD	01ecH
	DD	018ce1H
	DD	00H
	DD	0ffffffffH
	DD	02H
	DD	00H
	DD	0172H
	DD	067H
	DD	018cdfH
	DD	00H
	DD	0ffffffffH
	DD	02H
	DD	00H
	DD	088H
	DD	01eaH
	DD	018ce1H
	DD	00H
	DD	0ffffffffH
	DD	02H
	DD	00H
	DD	0152H
	DD	05bH
	DD	018cdfH
	DD	00H
	DD	0ffffffffH
	DD	02H
	DD	00H
	DD	071H
	DD	01beH
	DD	018ce1H
	DD	00H
	DD	0ffffffffH
	DD	02H
	DD	00H
	DD	0167H
	DD	099H
	DD	018cdfH
	DD	00H
	DD	0ffffffffH
	DD	02H
	DD	00H
	DD	06eH
	DD	01d0H
	DD	018ce1H
	DD	00H
	DD	0ffffffffH
	DD	02H
	DD	00H
	DD	016bH
	DD	0a2H
	DD	018cdfH
	DD	00H
	DD	0ffffffffH
	DD	02H
	DD	00H
	DD	086H
	DD	01a8H
	DD	018ce1H
	DD	00H
	DD	0ffffffffH
	DD	02H
	DD	00H
	DD	0175H
	DD	0abH
	DD	018cdfH
	DD	00H
	DD	0ffffffffH
	DD	02H
	DD	00H
	DD	07fH
	DD	0193H
	DD	018ce1H
	DD	00H
	DD	0ffffffffH
	DD	02H
	DD	00H
	DD	0181H
	DD	0c0H
	DD	018cdfH
	DD	00H
	DD	0ffffffffH
	DD	02H
	DD	00H
	DD	055H
	DD	0179H
	DD	018ce1H
	DD	00H
	DD	0ffffffffH
	DD	02H
	DD	00H
	DD	088H
	DD	0adH
	DD	018ce3H
	DD	00H
	DD	0ffffffffH
	DD	02H
	DD	00H
	DD	015dH
	DD	0d5H
	DD	018ce5H
	DD	00H
	DD	0ffffffffH
	DD	02H
	DD	00H
	DD	076H
	DD	09eH
	DD	018ce3H
	DD	00H
	DD	0ffffffffH
	DD	02H
	DD	00H
	DD	0153H
	DD	0e1H
	DD	018ce5H
	DD	00H
	DD	0ffffffffH
	DD	02H
	DD	00H
	DD	0e3H
	DD	04bH
	DD	018ce3H
	DD	00H
	DD	0ffffffffH
	DD	02H
	DD	00H
	DD	0142H
	DD	0f4H
	DD	018ce5H
	DD	00H
	DD	0ffffffffH
	DD	02H
	DD	00H
	DD	011eH
	DD	039H
	DD	018ce3H
	DD	00H
	DD	0ffffffffH
	DD	02H
	DD	00H
	DD	012bH
	DD	0f7H
	DD	018ce5H
	DD	00H
	DD	0ffffffffH
	DD	02H
	DD	00H
	DD	0161H
	DD	05aH
	DD	018ce3H
	DD	00H
	DD	0ffffffffH
	DD	02H
	DD	00H
	DD	0119H
	DD	0102H
	DD	018ce5H
	DD	00H
	DD	0ffffffffH
	DD	02H
	DD	00H
	DD	0142H
	DD	046H
	DD	018ce3H
	DD	00H
	DD	0ffffffffH
	DD	02H
	DD	00H
	DD	0110H
	DD	0100H
	DD	018ce5H
	DD	00H
	DD	0ffffffffH
	DD	02H
	DD	00H
	DD	0160H
	DD	028H
	DD	018ce3H
	DD	00H
	DD	0ffffffffH
	DD	02H
	DD	00H
	DD	0e6H
	DD	0f9H
	DD	018ce5H
	DD	00H
	DD	0ffffffffH
	DD	02H
	DD	00H
	DD	09bH
	DD	034H
	DD	018ce3H
	DD	00H
	DD	0ffffffffH
	DD	02H
	DD	00H
	DD	0d8H
	DD	0f8H
	DD	018ce5H
	DD	00H
	DD	0ffffffffH
	DD	02H
	DD	00H
	DD	098H
	DD	047H
	DD	018ce3H
	DD	00H
	DD	0ffffffffH
	DD	02H
	DD	00H
	DD	0beH
	DD	0f3H
	DD	018ce5H
	DD	00H
	DD	0ffffffffH
	DD	02H
	DD	00H
	DD	0eaH
	DD	0a8H
	DD	018ce3H
	DD	00H
	DD	0ffffffffH
	DD	02H
	DD	00H
	DD	0acH
	DD	0ffH
	DD	018ce5H
	DD	00H
	DD	0ffffffffH
	DD	02H
	DD	00H
	DD	0c7H
	DD	0beH
	DD	018ce3H
	DD	00H
	DD	0ffffffffH
	DD	02H
	DD	00H
	DD	096H
	DD	0102H
	DD	018ce5H
	DD	00H
	DD	0ffffffffH
	DD	02H
	DD	00H
	DD	0afH
	DD	0cbH
	DD	018ce3H
	DD	00H
	DD	0ffffffffH
	DD	02H
	DD	00H
	DD	075H
	DD	010fH
	DD	018ce5H
	DD	00H
	DD	0ffffffffH
	DD	02H
	DD	00H
	DD	055H
	DD	08dH
	DD	018ce3H
	DD	00H
	DD	0ffffffffH
	DD	02H
	DD	00H
	DD	06dH
	DD	011cH
	DD	018ce5H
	DD	00H
	DD	0ffffffffH
	DD	02H
	DD	00H
	DD	048H
	DD	097H
	DD	018ce3H
	DD	00H
	DD	0ffffffffH
	DD	02H
	DD	00H
	DD	064H
	DD	012dH
	DD	018ce5H
	DD	00H
	DD	0ffffffffH
	DD	02H
	DD	00H
	DD	02cH
	DD	08bH
	DD	018ce3H
	DD	00H
	DD	0ffffffffH
	DD	02H
	DD	00H
	DD	04bH
	DD	013bH
	DD	018ce5H
	DD	00H
	DD	0ffffffffH
	DD	02H
	DD	00H
	DD	02dH
	DD	07aH
	DD	018ce3H
	DD	00H
	DD	0ffffffffH
	DD	02H
	DD	00H
	DD	04aH
	DD	0137H
	DD	018ce5H
	DD	00H
	DD	0ffffffffH
	DD	02H
	DD	00H
	DD	01dH
	DD	074H
	DD	018ce3H
	DD	00H
	DD	0ffffffffH
	DD	02H
	DD	00H
	DD	03dH
	DD	016fH
	DD	018ce5H
	DD	00H
	DD	0ffffffffH
	DD	02H
	DD	00H
	DD	048H
	DD	097H
	DD	018ce3H
	DD	00H
	DD	0ffffffffH
	DD	02H
	DD	00H
	DD	030H
	DD	015aH
	DD	018ce5H
	DD	00H
	DD	0ffffffffH
	DD	02H
	DD	00H
	DD	073H
	DD	09dH
	DD	018ce3H
	DD	00H
	DD	0ffffffffH
	DD	02H
	DD	00H
	DD	06fH
	DD	0178H
	DD	018ce5H
	DD	00H
	DD	0ffffffffH
	DD	02H
	DD	00H
	DD	09aH
	DD	0caH
	DD	018ce3H
	DD	00H
	DD	0ffffffffH
	DD	02H
	DD	00H
	DD	08eH
	DD	018dH
	DD	018ce5H
	DD	00H
	DD	0ffffffffH
	DD	02H
	DD	00H
	DD	0d4H
	DD	0b7H
	DD	018ce3H
	DD	00H
	DD	0ffffffffH
	DD	02H
	DD	00H
	DD	0a2H
	DD	018eH
	DD	018ce5H
	DD	00H
	DD	0ffffffffH
	DD	02H
	DD	00H
	DD	0f4H
	DD	09dH
	DD	018ce3H
	DD	00H
	DD	0ffffffffH
	DD	02H
	DD	00H
	DD	0bcH
	DD	0181H
	DD	018ce5H
	DD	00H
	DD	0ffffffffH
	DD	02H
	DD	00H
	DD	0100H
	DD	069H
	DD	018ce3H
	DD	00H
	DD	0ffffffffH
	DD	02H
	DD	00H
	DD	0c7H
	DD	016bH
	DD	018ce5H
	DD	00H
	DD	0ffffffffH
	DD	02H
	DD	00H
	DD	0119H
	DD	071H
	DD	018ce3H
	DD	00H
	DD	0ffffffffH
	DD	02H
	DD	00H
	DD	0bcH
	DD	0142H
	DD	018ce5H
	DD	00H
	DD	0ffffffffH
	DD	02H
	DD	00H
	DD	09aH
	DD	049H
	DD	018ce3H
	DD	00H
	DD	0ffffffffH
	DD	02H
	DD	00H
	DD	0a1H
	DD	014aH
	DD	018ce5H
	DD	00H
	DD	0ffffffffH
	DD	02H
	DD	00H
	DD	094H
	DD	049H
	DD	018ce3H
	DD	00H
	DD	0ffffffffH
	DD	02H
	DD	00H
	DD	0b9H
	DD	0185H
	DD	018ce5H
	DD	00H
	DD	0ffffffffH
	DD	02H
	DD	00H
	DD	0fcH
	DD	029H
	DD	018ce3H
	DD	00H
	DD	0ffffffffH
	DD	02H
	DD	00H
	DD	0adH
	DD	01aeH
	DD	018ce5H
	DD	00H
	DD	0ffffffffH
	DD	02H
	DD	00H
	DD	0128H
	DD	03bH
	DD	018ce3H
	DD	00H
	DD	0ffffffffH
	DD	02H
	DD	00H
	DD	086H
	DD	01b4H
	DD	018ce5H
	DD	00H
	DD	0ffffffffH
	DD	02H
	DD	00H
	DD	0138H
	DD	043H
	DD	018ce3H
	DD	00H
	DD	0ffffffffH
	DD	02H
	DD	00H
	DD	0bdH
	DD	01d6H
	DD	018ce5H
	DD	00H
	DD	0ffffffffH
	DD	02H
	DD	00H
	DD	0160H
	DD	03eH
	DD	018ce3H
	DD	00H
	DD	0ffffffffH
	DD	02H
	DD	00H
	DD	0b8H
	DD	01faH
	DD	018ce5H
	DD	00H
	DD	0ffffffffH
	DD	02H
	DD	00H
	DD	014dH
	DD	056H
	DD	018ce3H
	DD	00H
	DD	0ffffffffH
	DD	02H
	DD	00H
	DD	0a4H
	DD	01f3H
	DD	018ce5H
	DD	00H
	DD	0ffffffffH
	DD	02H
	DD	00H
	DD	0173H
	DD	071H
	DD	018ce3H
	DD	00H
	DD	0ffffffffH
	DD	02H
	DD	00H
	DD	09cH
	DD	01e6H
	DD	018ce5H
	DD	00H
	DD	0ffffffffH
	DD	02H
	DD	00H
	DD	018dH
	DD	083H
	DD	018ce3H
	DD	00H
	DD	0ffffffffH
	DD	02H
	DD	00H
	DD	06eH
	DD	01ebH
	DD	018ce5H
	DD	00H
	DD	0ffffffffH
	DD	02H
	DD	00H
	DD	0161H
	DD	084H
	DD	018ce3H
	DD	00H
	DD	0ffffffffH
	DD	02H
	DD	00H
	DD	075H
	DD	01b6H
	DD	018ce5H
	DD	00H
	DD	0ffffffffH
	DD	02H
	DD	00H
	DD	016bH
	DD	0a4H
	DD	018ce3H
	DD	00H
	DD	0ffffffffH
	DD	02H
	DD	00H
	DD	063H
	DD	01e0H
	DD	018ce5H
	DD	00H
	DD	0ffffffffH
	DD	02H
	DD	00H
	DD	016dH
	DD	0a5H
	DD	018ce3H
	DD	00H
	DD	0ffffffffH
	DD	02H
	DD	00H
	DD	08eH
	DD	018eH
	DD	018ce5H
	DD	00H
	DD	0ffffffffH
	DD	02H
	DD	00H
	DD	0175H
	DD	0b8H
	DD	018ce3H
	DD	00H
	DD	0ffffffffH
	DD	02H
	DD	00H
	DD	069H
	DD	0181H
	DD	018ce5H
	DD	00H
	DD	0ffffffffH
	DD	02H
	DD	00H
	DD	0174H
	DD	0b9H
	DD	018ce3H
	DD	00H
	DD	0ffffffffH
	DD	02H
	DD	00H
	DD	047H
	DD	0173H
	DD	018ce5H
	DD	00H
	DD	0ffffffffH
	DD	02H
	DD	00H
	DD	09aH
	DD	0c8H
	DD	018ce2H
	DD	00H
	DD	0ffffffffH
	DD	02H
	DD	00H
	DD	015dH
	DD	0d3H
	DD	018ce4H
	DD	00H
	DD	0ffffffffH
	DD	02H
	DD	00H
	DD	077H
	DD	09dH
	DD	018ce2H
	DD	00H
	DD	0ffffffffH
	DD	02H
	DD	00H
	DD	0159H
	DD	0e7H
	DD	018ce4H
	DD	00H
	DD	0ffffffffH
	DD	02H
	DD	00H
	DD	0efH
	DD	052H
	DD	018ce2H
	DD	00H
	DD	0ffffffffH
	DD	02H
	DD	00H
	DD	0146H
	DD	0f3H
	DD	018ce4H
	DD	00H
	DD	0ffffffffH
	DD	02H
	DD	00H
	DD	0122H
	DD	03bH
	DD	018ce2H
	DD	00H
	DD	0ffffffffH
	DD	02H
	DD	00H
	DD	0138H
	DD	0f8H
	DD	018ce4H
	DD	00H
	DD	0ffffffffH
	DD	02H
	DD	00H
	DD	0166H
	DD	063H
	DD	018ce2H
	DD	00H
	DD	0ffffffffH
	DD	02H
	DD	00H
	DD	0119H
	DD	0fdH
	DD	018ce4H
	DD	00H
	DD	0ffffffffH
	DD	02H
	DD	00H
	DD	0148H
	DD	045H
	DD	018ce2H
	DD	00H
	DD	0ffffffffH
	DD	02H
	DD	00H
	DD	0109H
	DD	0101H
	DD	018ce4H
	DD	00H
	DD	0ffffffffH
	DD	02H
	DD	00H
	DD	0102H
	DD	025H
	DD	018ce2H
	DD	00H
	DD	0ffffffffH
	DD	02H
	DD	00H
	DD	0ebH
	DD	0f7H
	DD	018ce4H
	DD	00H
	DD	0ffffffffH
	DD	02H
	DD	00H
	DD	099H
	DD	033H
	DD	018ce2H
	DD	00H
	DD	0ffffffffH
	DD	02H
	DD	00H
	DD	0dbH
	DD	0f8H
	DD	018ce4H
	DD	00H
	DD	0ffffffffH
	DD	02H
	DD	00H
	DD	099H
	DD	048H
	DD	018ce2H
	DD	00H
	DD	0ffffffffH
	DD	02H
	DD	00H
	DD	0c5H
	DD	0f4H
	DD	018ce4H
	DD	00H
	DD	0ffffffffH
	DD	02H
	DD	00H
	DD	084H
	DD	0bbH
	DD	018ce2H
	DD	00H
	DD	0ffffffffH
	DD	02H
	DD	00H
	DD	0aeH
	DD	0fcH
	DD	018ce4H
	DD	00H
	DD	0ffffffffH
	DD	02H
	DD	00H
	DD	083H
	DD	0b3H
	DD	018ce2H
	DD	00H
	DD	0ffffffffH
	DD	02H
	DD	00H
	DD	0a1H
	DD	0101H
	DD	018ce4H
	DD	00H
	DD	0ffffffffH
	DD	02H
	DD	00H
	DD	078H
	DD	0a9H
	DD	018ce2H
	DD	00H
	DD	0ffffffffH
	DD	02H
	DD	00H
	DD	083H
	DD	010fH
	DD	018ce4H
	DD	00H
	DD	0ffffffffH
	DD	02H
	DD	00H
	DD	065H
	DD	097H
	DD	018ce2H
	DD	00H
	DD	0ffffffffH
	DD	02H
	DD	00H
	DD	06cH
	DD	011dH
	DD	018ce4H
	DD	00H
	DD	0ffffffffH
	DD	02H
	DD	00H
	DD	047H
	DD	09eH
	DD	018ce2H
	DD	00H
	DD	0ffffffffH
	DD	02H
	DD	00H
	DD	061H
	DD	0126H
	DD	018ce4H
	DD	00H
	DD	0ffffffffH
	DD	02H
	DD	00H
	DD	03aH
	DD	08bH
	DD	018ce2H
	DD	00H
	DD	0ffffffffH
	DD	02H
	DD	00H
	DD	04bH
	DD	0137H
	DD	018ce4H
	DD	00H
	DD	0ffffffffH
	DD	02H
	DD	00H
	DD	01dH
	DD	080H
	DD	018ce2H
	DD	00H
	DD	0ffffffffH
	DD	02H
	DD	00H
	DD	047H
	DD	0137H
	DD	018ce4H
	DD	00H
	DD	0ffffffffH
	DD	02H
	DD	00H
	DD	014H
	DD	077H
	DD	018ce2H
	DD	00H
	DD	0ffffffffH
	DD	02H
	DD	00H
	DD	04dH
	DD	0164H
	DD	018ce4H
	DD	00H
	DD	0ffffffffH
	DD	02H
	DD	00H
	DD	043H
	DD	09cH
	DD	018ce2H
	DD	00H
	DD	0ffffffffH
	DD	02H
	DD	00H
	DD	02fH
	DD	015dH
	DD	018ce4H
	DD	00H
	DD	0ffffffffH
	DD	02H
	DD	00H
	DD	06cH
	DD	09dH
	DD	018ce2H
	DD	00H
	DD	0ffffffffH
	DD	02H
	DD	00H
	DD	057H
	DD	0174H
	DD	018ce4H
	DD	00H
	DD	0ffffffffH
	DD	02H
	DD	00H
	DD	095H
	DD	0c8H
	DD	018ce2H
	DD	00H
	DD	0ffffffffH
	DD	02H
	DD	00H
	DD	080H
	DD	0196H
	DD	018ce4H
	DD	00H
	DD	0ffffffffH
	DD	02H
	DD	00H
	DD	0bbH
	DD	0beH
	DD	018ce2H
	DD	00H
	DD	0ffffffffH
	DD	02H
	DD	00H
	DD	08dH
	DD	018cH
	DD	018ce4H
	DD	00H
	DD	0ffffffffH
	DD	02H
	DD	00H
	DD	0eeH
	DD	09dH
	DD	018ce2H
	DD	00H
	DD	0ffffffffH
	DD	02H
	DD	00H
	DD	0b0H
	DD	01b2H
	DD	018ce4H
	DD	00H
	DD	0ffffffffH
	DD	02H
	DD	00H
	DD	010eH
	DD	078H
	DD	018ce2H
	DD	00H
	DD	0ffffffffH
	DD	02H
	DD	00H
	DD	0c8H
	DD	0166H
	DD	018ce4H
	DD	00H
	DD	0ffffffffH
	DD	02H
	DD	00H
	DD	010fH
	DD	078H
	DD	018ce2H
	DD	00H
	DD	0ffffffffH
	DD	02H
	DD	00H
	DD	0bbH
	DD	0146H
	DD	018ce4H
	DD	00H
	DD	0ffffffffH
	DD	02H
	DD	00H
	DD	09bH
	DD	039H
	DD	018ce2H
	DD	00H
	DD	0ffffffffH
	DD	02H
	DD	00H
	DD	097H
	DD	014eH
	DD	018ce4H
	DD	00H
	DD	0ffffffffH
	DD	02H
	DD	00H
	DD	08cH
	DD	058H
	DD	018ce2H
	DD	00H
	DD	0ffffffffH
	DD	02H
	DD	00H
	DD	0b6H
	DD	0194H
	DD	018ce4H
	DD	00H
	DD	0ffffffffH
	DD	02H
	DD	00H
	DD	0f0H
	DD	046H
	DD	018ce2H
	DD	00H
	DD	0ffffffffH
	DD	02H
	DD	00H
	DD	0a5H
	DD	01a3H
	DD	018ce4H
	DD	00H
	DD	0ffffffffH
	DD	02H
	DD	00H
	DD	011fH
	DD	033H
	DD	018ce2H
	DD	00H
	DD	0ffffffffH
	DD	02H
	DD	00H
	DD	086H
	DD	01b6H
	DD	018ce4H
	DD	00H
	DD	0ffffffffH
	DD	02H
	DD	00H
	DD	012eH
	DD	039H
	DD	018ce2H
	DD	00H
	DD	0ffffffffH
	DD	02H
	DD	00H
	DD	0b6H
	DD	01d7H
	DD	018ce4H
	DD	00H
	DD	0ffffffffH
	DD	02H
	DD	00H
	DD	0163H
	DD	040H
	DD	018ce2H
	DD	00H
	DD	0ffffffffH
	DD	02H
	DD	00H
	DD	0aeH
	DD	01f7H
	DD	018ce4H
	DD	00H
	DD	0ffffffffH
	DD	02H
	DD	00H
	DD	0156H
	DD	05dH
	DD	018ce2H
	DD	00H
	DD	0ffffffffH
	DD	02H
	DD	00H
	DD	0baH
	DD	01f9H
	DD	018ce4H
	DD	00H
	DD	0ffffffffH
	DD	02H
	DD	00H
	DD	0171H
	DD	06bH
	DD	018ce2H
	DD	00H
	DD	0ffffffffH
	DD	02H
	DD	00H
	DD	094H
	DD	01e7H
	DD	018ce4H
	DD	00H
	DD	0ffffffffH
	DD	02H
	DD	00H
	DD	0174H
	DD	07bH
	DD	018ce2H
	DD	00H
	DD	0ffffffffH
	DD	02H
	DD	00H
	DD	078H
	DD	01ebH
	DD	018ce4H
	DD	00H
	DD	0ffffffffH
	DD	02H
	DD	00H
	DD	0163H
	DD	08aH
	DD	018ce2H
	DD	00H
	DD	0ffffffffH
	DD	02H
	DD	00H
	DD	075H
	DD	01b6H
	DD	018ce4H
	DD	00H
	DD	0ffffffffH
	DD	02H
	DD	00H
	DD	016eH
	DD	0a1H
	DD	018ce2H
	DD	00H
	DD	0ffffffffH
	DD	02H
	DD	00H
	DD	062H
	DD	01dbH
	DD	018ce4H
	DD	00H
	DD	0ffffffffH
	DD	02H
	DD	00H
	DD	016bH
	DD	0a3H
	DD	018ce2H
	DD	00H
	DD	0ffffffffH
	DD	02H
	DD	00H
	DD	084H
	DD	019bH
	DD	018ce4H
	DD	00H
	DD	0ffffffffH
	DD	02H
	DD	00H
	DD	0171H
	DD	0b5H
	DD	018ce2H
	DD	00H
	DD	0ffffffffH
	DD	02H
	DD	00H
	DD	06eH
	DD	0187H
	DD	018ce4H
	DD	00H
	DD	0ffffffffH
	DD	02H
	DD	00H
	DD	0176H
	DD	0bdH
	DD	018ce2H
	DD	00H
	DD	0ffffffffH
	DD	02H
	DD	00H
	DD	051H
	DD	0175H
	DD	018ce4H
	DD	00H
	DD	0ffffffffH
	DD	02H
	DD	00H
	ORG $+112
?sStreetVendorBtnGraNo@@3PAHA DD 0d73dH			; sStreetVendorBtnGraNo
	DD	0d73cH
?ridePetTable@@3PAUtagRidePetTable@@A DD 018a88H	; ridePetTable
	DD	0186a0H
	DD	018800H
	DD	00H
	DD	018a89H
	DD	0186a5H
	DD	018800H
	DD	00H
	DD	018a8aH
	DD	0186aaH
	DD	018800H
	DD	00H
	DD	018a8bH
	DD	0186afH
	DD	018800H
	DD	00H
	DD	018a8cH
	DD	0186a0H
	DD	0187e9H
	DD	00H
	DD	018a8dH
	DD	0186a5H
	DD	0187e7H
	DD	00H
	DD	018a8eH
	DD	0186aaH
	DD	0187eaH
	DD	00H
	DD	018a8fH
	DD	0186afH
	DD	0187e8H
	DD	00H
	DD	018a90H
	DD	01895cH
	DD	018814H
	DD	00H
	DD	018a91H
	DD	018961H
	DD	018815H
	DD	00H
	DD	018e65H
	DD	018961H
	DD	018cc8H
	DD	00H
	DD	018e5aH
	DD	018961H
	DD	018c9cH
	DD	00H
	DD	018a92H
	DD	0186b4H
	DD	01882cH
	DD	00H
	DD	018a93H
	DD	0186b9H
	DD	01882cH
	DD	00H
	DD	018a94H
	DD	0186beH
	DD	01882cH
	DD	00H
	DD	018a95H
	DD	0186c3H
	DD	01882cH
	DD	00H
	DD	018a96H
	DD	0186b4H
	DD	0187e8H
	DD	00H
	DD	018a97H
	DD	0186b9H
	DD	0187e9H
	DD	00H
	DD	018a98H
	DD	0186beH
	DD	0187e7H
	DD	00H
	DD	018a99H
	DD	0186c3H
	DD	0187eaH
	DD	00H
	DD	018a9aH
	DD	018966H
	DD	018814H
	DD	00H
	DD	018a9bH
	DD	01896bH
	DD	018815H
	DD	00H
	DD	018e64H
	DD	01896bH
	DD	018cc8H
	DD	00H
	DD	018e62H
	DD	01896bH
	DD	018c9cH
	DD	00H
	DD	018a9cH
	DD	0186c8H
	DD	0187ffH
	DD	00H
	DD	018a9dH
	DD	0186cdH
	DD	0187ffH
	DD	00H
	DD	018a9eH
	DD	0186d2H
	DD	0187ffH
	DD	00H
	DD	018a9fH
	DD	0186d7H
	DD	0187ffH
	DD	00H
	DD	018aa0H
	DD	0186c8H
	DD	0187e8H
	DD	00H
	DD	018aa1H
	DD	0186cdH
	DD	0187eaH
	DD	00H
	DD	018aa2H
	DD	0186d2H
	DD	0187e7H
	DD	00H
	DD	018aa3H
	DD	0186d7H
	DD	0187e9H
	DD	00H
	DD	018aa4H
	DD	018970H
	DD	018814H
	DD	00H
	DD	018aa5H
	DD	018975H
	DD	018815H
	DD	00H
	DD	018e4dH
	DD	018975H
	DD	018cc8H
	DD	00H
	DD	018e57H
	DD	018975H
	DD	018c9cH
	DD	00H
	DD	018aa6H
	DD	0186dcH
	DD	018801H
	DD	00H
	DD	018aa7H
	DD	0186e1H
	DD	018801H
	DD	00H
	DD	018aa8H
	DD	0186e6H
	DD	018801H
	DD	00H
	DD	018aa9H
	DD	0186ebH
	DD	018801H
	DD	00H
	DD	018aaaH
	DD	0186dcH
	DD	0187e9H
	DD	00H
	DD	018aabH
	DD	0186e1H
	DD	0187e7H
	DD	00H
	DD	018aacH
	DD	0186e6H
	DD	0187eaH
	DD	00H
	DD	018aadH
	DD	0186ebH
	DD	0187e8H
	DD	00H
	DD	018aaeH
	DD	01897aH
	DD	018814H
	DD	00H
	DD	018aafH
	DD	01897fH
	DD	018815H
	DD	00H
	DD	018e4eH
	DD	01897fH
	DD	018cc8H
	DD	00H
	DD	018e58H
	DD	01897fH
	DD	018c9cH
	DD	00H
	DD	018ab0H
	DD	0186f0H
	DD	01882cH
	DD	00H
	DD	018ab1H
	DD	0186f5H
	DD	01882cH
	DD	00H
	DD	018ab2H
	DD	0186faH
	DD	01882cH
	DD	00H
	DD	018ab3H
	DD	0186ffH
	DD	01882cH
	DD	00H
	DD	018ab4H
	DD	0186f0H
	DD	0187e8H
	DD	00H
	DD	018ab5H
	DD	0186f5H
	DD	0187e7H
	DD	00H
	DD	018ab6H
	DD	0186faH
	DD	0187eaH
	DD	00H
	DD	018ab7H
	DD	0186ffH
	DD	0187e9H
	DD	00H
	DD	018ab8H
	DD	018984H
	DD	018814H
	DD	00H
	DD	018ab9H
	DD	018989H
	DD	018815H
	DD	00H
	DD	018e55H
	DD	018989H
	DD	018cc8H
	DD	00H
	DD	018e60H
	DD	018989H
	DD	018c9cH
	DD	00H
	DD	018abaH
	DD	018704H
	DD	018801H
	DD	00H
	DD	018abbH
	DD	018709H
	DD	018801H
	DD	00H
	DD	018abcH
	DD	01870eH
	DD	018801H
	DD	00H
	DD	018abdH
	DD	018713H
	DD	018801H
	DD	00H
	DD	018abeH
	DD	018704H
	DD	0187e9H
	DD	00H
	DD	018abfH
	DD	018709H
	DD	0187e8H
	DD	00H
	DD	018ac0H
	DD	01870eH
	DD	0187eaH
	DD	00H
	DD	018ac1H
	DD	018713H
	DD	0187e7H
	DD	00H
	DD	018ac2H
	DD	01898eH
	DD	018814H
	DD	00H
	DD	018ac3H
	DD	018993H
	DD	018815H
	DD	00H
	DD	018e56H
	DD	018993H
	DD	018cc8H
	DD	00H
	DD	018e61H
	DD	018993H
	DD	018c9cH
	DD	00H
	DD	018ac4H
	DD	018718H
	DD	018802H
	DD	00H
	DD	018ac5H
	DD	01871dH
	DD	018802H
	DD	00H
	DD	018ac6H
	DD	018722H
	DD	018802H
	DD	00H
	DD	018ac7H
	DD	018727H
	DD	018802H
	DD	00H
	DD	018ac8H
	DD	018718H
	DD	0187e7H
	DD	00H
	DD	018ac9H
	DD	01871dH
	DD	0187eaH
	DD	00H
	DD	018acaH
	DD	018722H
	DD	0187e8H
	DD	00H
	DD	018acbH
	DD	018727H
	DD	0187e9H
	DD	00H
	DD	018accH
	DD	018998H
	DD	018814H
	DD	00H
	DD	018acdH
	DD	01899dH
	DD	018815H
	DD	00H
	DD	018e4fH
	DD	01899dH
	DD	018cc8H
	DD	00H
	DD	018e59H
	DD	01899dH
	DD	018c9cH
	DD	00H
	DD	018aceH
	DD	01872cH
	DD	018802H
	DD	00H
	DD	018acfH
	DD	018731H
	DD	018802H
	DD	00H
	DD	018ad0H
	DD	018736H
	DD	018802H
	DD	00H
	DD	018ad1H
	DD	01873bH
	DD	018802H
	DD	00H
	DD	018ad2H
	DD	01872cH
	DD	0187e7H
	DD	00H
	DD	018ad3H
	DD	018731H
	DD	0187e9H
	DD	00H
	DD	018ad4H
	DD	018736H
	DD	0187eaH
	DD	00H
	DD	018ad5H
	DD	01873bH
	DD	0187e8H
	DD	00H
	DD	018ad6H
	DD	0189a2H
	DD	018814H
	DD	00H
	DD	018ad7H
	DD	0189a7H
	DD	018815H
	DD	00H
	DD	018e50H
	DD	0189a7H
	DD	018cc8H
	DD	00H
	DD	018e5bH
	DD	0189a7H
	DD	018c9cH
	DD	00H
	DD	018ad8H
	DD	018740H
	DD	018800H
	DD	00H
	DD	018ad9H
	DD	018745H
	DD	018800H
	DD	00H
	DD	018adaH
	DD	01874aH
	DD	018800H
	DD	00H
	DD	018adbH
	DD	01874fH
	DD	018800H
	DD	00H
	DD	018adcH
	DD	018740H
	DD	0187eaH
	DD	00H
	DD	018addH
	DD	018745H
	DD	0187e9H
	DD	00H
	DD	018adeH
	DD	01874aH
	DD	0187e7H
	DD	00H
	DD	018adfH
	DD	01874fH
	DD	0187e8H
	DD	00H
	DD	018ae0H
	DD	0189acH
	DD	018814H
	DD	00H
	DD	018ae1H
	DD	0189b1H
	DD	018815H
	DD	00H
	DD	018e52H
	DD	0189b1H
	DD	018cc8H
	DD	00H
	DD	018e5dH
	DD	0189b1H
	DD	018c9cH
	DD	00H
	DD	018ae2H
	DD	018754H
	DD	0187ffH
	DD	00H
	DD	018ae3H
	DD	018759H
	DD	0187ffH
	DD	00H
	DD	018ae4H
	DD	01875eH
	DD	0187ffH
	DD	00H
	DD	018ae5H
	DD	018763H
	DD	0187ffH
	DD	00H
	DD	018ae6H
	DD	018754H
	DD	0187e8H
	DD	00H
	DD	018ae7H
	DD	018759H
	DD	0187eaH
	DD	00H
	DD	018ae8H
	DD	01875eH
	DD	0187e9H
	DD	00H
	DD	018ae9H
	DD	018763H
	DD	0187e7H
	DD	00H
	DD	018aeaH
	DD	0189b6H
	DD	018814H
	DD	00H
	DD	018aebH
	DD	0189bbH
	DD	018815H
	DD	00H
	DD	018e51H
	DD	0189bbH
	DD	018cc8H
	DD	00H
	DD	018e5cH
	DD	0189bbH
	DD	018c9cH
	DD	00H
	DD	018aecH
	DD	018768H
	DD	018801H
	DD	00H
	DD	018aedH
	DD	01876dH
	DD	018801H
	DD	00H
	DD	018aeeH
	DD	018772H
	DD	018801H
	DD	00H
	DD	018aefH
	DD	018777H
	DD	018801H
	DD	00H
	DD	018af0H
	DD	018768H
	DD	0187e9H
	DD	00H
	DD	018af1H
	DD	01876dH
	DD	0187e8H
	DD	00H
	DD	018af2H
	DD	018772H
	DD	0187e7H
	DD	00H
	DD	018af3H
	DD	018777H
	DD	0187eaH
	DD	00H
	DD	018af4H
	DD	0189c0H
	DD	018814H
	DD	00H
	DD	018af5H
	DD	0189c5H
	DD	018815H
	DD	00H
	DD	018e54H
	DD	0189c5H
	DD	018cc8H
	DD	00H
	DD	018e5fH
	DD	0189c5H
	DD	018c9cH
	DD	00H
	DD	018af6H
	DD	01877cH
	DD	01882cH
	DD	00H
	DD	018af7H
	DD	018781H
	DD	01882cH
	DD	00H
	DD	018af8H
	DD	018786H
	DD	01882cH
	DD	00H
	DD	018af9H
	DD	01878bH
	DD	01882cH
	DD	00H
	DD	018afaH
	DD	01877cH
	DD	0187eaH
	DD	00H
	DD	018afbH
	DD	018781H
	DD	0187e7H
	DD	00H
	DD	018afcH
	DD	018786H
	DD	0187e9H
	DD	00H
	DD	018afdH
	DD	01878bH
	DD	0187e8H
	DD	00H
	DD	018afeH
	DD	0189caH
	DD	018814H
	DD	00H
	DD	018affH
	DD	0189cfH
	DD	018815H
	DD	00H
	DD	018e53H
	DD	0189cfH
	DD	018cc8H
	DD	00H
	DD	018e5eH
	DD	0189cfH
	DD	018c9cH
	DD	00H
	DD	018b3bH
	DD	018b39H
	DD	018b3aH
	DD	00H
	DD	018b3bH
	DD	018b3aH
	DD	018b39H
	DD	00H
?RideCodeMode@@3PAUtagRideCodeMode@@A DD 018816H	; RideCodeMode
	DD	01H
	DD	018806H
	DD	02H
	DD	01880aH
	DD	04H
	DD	0187b7H
	DD	08H
	DD	0187c0H
	DD	010H
	DD	0187bbH
	DD	020H
	DD	0187faH
	DD	040H
	DD	0187d6H
	DD	080H
	DD	018814H
	DD	0100H
	DD	018815H
	DD	0200H
	DD	018c9cH
	DD	0800H
	DD	018cc8H
	DD	0400H
	DD	018812H
	DD	01000H
	DD	018811H
	DD	02000H
	DD	018a28H
	DD	04000H
	DD	018a2bH
	DD	08000H
	DD	018f30H
	DD	010000H
	DD	018f31H
	DD	020000H
	DD	018f68H
	DD	040000H
	DD	0187fcH
	DD	080000H
	DD	0187d3H
	DD	0100000H
	DD	018fa9H
	DD	0200000H
	DD	018faaH
	DD	0400000H
	DD	018a09H
	DD	0800000H
	DD	018a0aH
	DD	01000000H
	DD	019394H
	DD	02000000H
	DD	0187b2H
	DD	04000000H
?RideNoList@@3PAUtagRideNoList@@A DD 018bb9H		; RideNoList
	DD	018bbaH
	DD	018bbbH
	DD	018bbcH
	DD	018bbdH
	DD	018bbeH
	DD	018bbfH
	DD	018bc0H
	DD	018a90H
	DD	018a91H
	DD	018e5aH
	DD	018e65H
	DD	018849H
	DD	018844H
	DD	01885dH
	DD	018ee5H
	DD	018f0dH
	DD	018f19H
	DD	018f76H
	ORG $+32
	DD	018bc1H
	DD	018bc2H
	DD	018bc3H
	DD	018bc4H
	DD	018bc5H
	DD	018bc6H
	DD	018bc7H
	DD	018bc8H
	DD	018a9aH
	DD	018a9bH
	DD	018e62H
	DD	018e64H
	DD	018849H
	DD	018844H
	DD	01885dH
	DD	018ee6H
	DD	018f0eH
	DD	018f1aH
	DD	018f77H
	ORG $+32
	DD	018bc9H
	DD	018bcaH
	DD	018bcbH
	DD	018bccH
	DD	018bcdH
	DD	018bceH
	DD	018bcfH
	DD	018bd0H
	DD	018aa4H
	DD	018aa5H
	DD	018e57H
	DD	018e4dH
	DD	018849H
	DD	018844H
	DD	01885dH
	DD	018ee7H
	DD	018f0fH
	DD	018f1bH
	DD	018f78H
	ORG $+32
	DD	018bd1H
	DD	018bd2H
	DD	018bd3H
	DD	018bd4H
	DD	018bd5H
	DD	018bd6H
	DD	018bd7H
	DD	018bd8H
	DD	018aaeH
	DD	018aafH
	DD	018e58H
	DD	018e4eH
	DD	018849H
	DD	018844H
	DD	01885dH
	DD	018ee8H
	DD	018f10H
	DD	018f1cH
	DD	018f79H
	ORG $+32
	DD	018bd9H
	DD	018bdaH
	DD	018bdbH
	DD	018bdcH
	DD	018bddH
	DD	018bdeH
	DD	018bdfH
	DD	018be0H
	DD	018ab8H
	DD	018ab9H
	DD	018e60H
	DD	018e55H
	DD	018849H
	DD	018844H
	DD	01885dH
	DD	018ee9H
	DD	018f11H
	DD	018f1dH
	DD	018f7aH
	ORG $+32
	DD	018be1H
	DD	018be2H
	DD	018be3H
	DD	018be4H
	DD	018be5H
	DD	018be6H
	DD	018be7H
	DD	018be8H
	DD	018ac2H
	DD	018ac3H
	DD	018e61H
	DD	018e56H
	DD	018849H
	DD	018844H
	DD	01885dH
	DD	018eeaH
	DD	018f12H
	DD	018f1eH
	DD	018f7bH
	ORG $+32
	DD	018be9H
	DD	018beaH
	DD	018bebH
	DD	018becH
	DD	018bedH
	DD	018beeH
	DD	018befH
	DD	018bf0H
	DD	018accH
	DD	018acdH
	DD	018e59H
	DD	018e4fH
	DD	018849H
	DD	018844H
	DD	01885dH
	DD	018eebH
	DD	018f13H
	DD	018f1fH
	DD	018f7cH
	ORG $+32
	DD	018bf1H
	DD	018bf2H
	DD	018bf3H
	DD	018bf4H
	DD	018bf5H
	DD	018bf6H
	DD	018bf7H
	DD	018bf8H
	DD	018ad6H
	DD	018ad7H
	DD	018e5bH
	DD	018e50H
	DD	018849H
	DD	018844H
	DD	01885dH
	DD	018eecH
	DD	018f14H
	DD	018f20H
	DD	018f7dH
	ORG $+32
	DD	018bf9H
	DD	018bfaH
	DD	018bfbH
	DD	018bfcH
	DD	018bfdH
	DD	018bfeH
	DD	018bffH
	DD	018c00H
	DD	018ae0H
	DD	018ae1H
	DD	018e5dH
	DD	018e52H
	DD	018849H
	DD	018844H
	DD	01885dH
	DD	018eedH
	DD	018f15H
	DD	018f21H
	DD	018f7eH
	ORG $+32
	DD	018c01H
	DD	018c02H
	DD	018c03H
	DD	018c04H
	DD	018c05H
	DD	018c06H
	DD	018c07H
	DD	018c08H
	DD	018aeaH
	DD	018aebH
	DD	018e5cH
	DD	018e51H
	DD	018849H
	DD	018844H
	DD	01885dH
	DD	018eeeH
	DD	018f16H
	DD	018f22H
	DD	018f7fH
	ORG $+32
	DD	018c09H
	DD	018c0aH
	DD	018c0bH
	DD	018c0cH
	DD	018c0dH
	DD	018c0eH
	DD	018c0fH
	DD	018c10H
	DD	018af4H
	DD	018af5H
	DD	018e5fH
	DD	018e54H
	DD	018849H
	DD	018844H
	DD	01885dH
	DD	018eefH
	DD	018f17H
	DD	018f23H
	DD	018f80H
	ORG $+32
	DD	018c11H
	DD	018c12H
	DD	018c13H
	DD	018c14H
	DD	018c15H
	DD	018c16H
	DD	018c17H
	DD	018c18H
	DD	018afeH
	DD	018affH
	DD	018e5eH
	DD	018e53H
	DD	018849H
	DD	018844H
	DD	01885dH
	DD	018ef0H
	DD	018f18H
	DD	018f24H
	DD	018f81H
	ORG $+32
?RPlistMode@@3PAUtagRidePetList@@A DD 0186a0H		; RPlistMode
	DD	00H
	DD	0186a5H
	DD	00H
	DD	0186aaH
	DD	00H
	DD	0186afH
	DD	00H
	DD	0186b4H
	DD	01H
	DD	0186b9H
	DD	01H
	DD	0186beH
	DD	01H
	DD	0186c3H
	DD	01H
	DD	0186c8H
	DD	02H
	DD	0186cdH
	DD	02H
	DD	0186d2H
	DD	02H
	DD	0186d7H
	DD	02H
	DD	0186dcH
	DD	03H
	DD	0186e1H
	DD	03H
	DD	0186e6H
	DD	03H
	DD	0186ebH
	DD	03H
	DD	0186f0H
	DD	04H
	DD	0186f5H
	DD	04H
	DD	0186faH
	DD	04H
	DD	0186ffH
	DD	04H
	DD	018704H
	DD	05H
	DD	018709H
	DD	05H
	DD	01870eH
	DD	05H
	DD	018713H
	DD	05H
	DD	018718H
	DD	06H
	DD	01871dH
	DD	06H
	DD	018722H
	DD	06H
	DD	018727H
	DD	06H
	DD	01872cH
	DD	07H
	DD	018731H
	DD	07H
	DD	018736H
	DD	07H
	DD	01873bH
	DD	07H
	DD	018740H
	DD	08H
	DD	018745H
	DD	08H
	DD	01874aH
	DD	08H
	DD	01874fH
	DD	08H
	DD	018754H
	DD	09H
	DD	018759H
	DD	09H
	DD	01875eH
	DD	09H
	DD	018763H
	DD	09H
	DD	018768H
	DD	0aH
	DD	01876dH
	DD	0aH
	DD	018772H
	DD	0aH
	DD	018777H
	DD	0aH
	DD	01877cH
	DD	0bH
	DD	018781H
	DD	0bH
	DD	018786H
	DD	0bH
	DD	01878bH
	DD	0bH
?channelName@@3PAY0BE@DA DB ' ', 0baH, 0ceH, 0c1H, 0b7H, 0c7H, 0c1H, 0b7H
	DB	0ceH, 0c7H, 0caH, ' ', 00H			; channelName
	ORG $+7
	DB	' ', 0c1H, 0b7H, 0c0H, 0e5H, 0b1H, 0e2H, 0b4H, 0c9H, ' ', 00H
	ORG $+9
	DB	0baH, 0ceH, 0c1H, 0b7H, 0b0H, 0d4H, 0bdH, 0c3H, 0c6H, 0c7H
	DB	00H
	ORG $+9
	DB	' ', 0c3H, 0a4H, ' ', 0b3H, 0ceH, ' ', 0c1H, 0beH, ' ', 0b7H
	DB	0e1H, ' ', 00H
	ORG $+6
	DB	00H
	ORG $+19
?chatRoomBtnGraNo@@3PAHA DD 06756H			; chatRoomBtnGraNo
	DD	06755H
?menuBtnGraNo@@3PAHA DD 065f5H				; menuBtnGraNo
	DD	065f6H
?cardBtnGraNo@@3PAHA DD 065f7H				; cardBtnGraNo
	DD	065f8H
?tradeBtnGraNo@@3PAHA DD 0667aH				; tradeBtnGraNo
	DD	0667bH
?angelBtnGraNo@@3PAHA DD 089c9H				; angelBtnGraNo
	DD	089c8H
?channelWNFlag@@3FA DW 01H				; channelWNFlag
	ORG $+2
?channelBtnGraNo@@3PAHA DD 0667dH			; channelBtnGraNo
	DD	0667eH
?partyBtnEnableFlag@@3FA DW 01H				; partyBtnEnableFlag
	ORG $+2
?partyBtnGraNo@@3PAHA DD 065f9H				; partyBtnGraNo
	DD	065faH
?helpBtnGraNo@@3PAHA DD 0d7c6H				; helpBtnGraNo
	DD	0d7c5H
?joinBattleBtnEnableFlag@@3FA DW 01H			; joinBattleBtnEnableFlag
	ORG $+2
?joinBattleHelpMsgFlag@@3FA DW 01H			; joinBattleHelpMsgFlag
	ORG $+2
?joinBattleBtnGraNo@@3PAHA DD 065ffH			; joinBattleBtnGraNo
	DD	06600H
?duelBtnGraNo@@3PAHA DD 06601H				; duelBtnGraNo
	DD	06602H
?actBtnGraNo@@3PAHA DD 06603H				; actBtnGraNo
	DD	06604H
?amPmAnimeGraNo@@3PAHA DD 06606H			; amPmAnimeGraNo
	DD	06607H
	DD	06608H
	DD	06605H
?ridelistBtnGraNo@@3PAHA DD 0d7c8H			; ridelistBtnGraNo
	DD	0d7c9H
?vipshopBtnGraNo@@3PAHA DD 0d73dH			; vipshopBtnGraNo
	DD	0d73cH
?iTeacherSystemBtnGraNo@@3PAHA DD 06f8bH		; iTeacherSystemBtnGraNo
	DD	06f8aH
?FontPal@@3PAKA DD 0ffffffH				; FontPal
	DD	0ffff00H
	DD	0ff00ffH
	DD	0ff0000H
	DD	0ffffH
	DD	0ff00H
	DD	0ffH
	DD	0a4a0a0H
	DD	0f0caa6H
	DD	0c0dcc0H
	DD	08cffH
	DD	0247fffH
?pageStr@@3PAY09DA DB 0c0H, 0ccH, 0c0H, 0fcH, 00H	; pageStr
	ORG $+5
	DB	0b4H, 0d9H, 0c0H, 0bdH, 00H
	ORG $+5
_DATA	ENDS
PUBLIC	___local_stdio_printf_options
PUBLIC	??$__vcrt_va_start_verify_argument_type@QBD@@YAXXZ ; __vcrt_va_start_verify_argument_type<char const * const>
PUBLIC	__vsnprintf_l
PUBLIC	__vsnprintf
PUBLIC	__vsprintf_l
PUBLIC	_sprintf
PUBLIC	__snprintf
PUBLIC	?initFieldProc@@YAXXZ				; initFieldProc
PUBLIC	?resetFieldProc@@YAXXZ				; resetFieldProc
PUBLIC	?fieldProc@@YAXXZ				; fieldProc
PUBLIC	?fieldProc2@@YAXXZ				; fieldProc2
PUBLIC	?drawField@@YAXXZ				; drawField
PUBLIC	?checkFieldMenuFlag@@YAHXZ			; checkFieldMenuFlag
PUBLIC	?closeCharActionAnimeChange@@YAXXZ		; closeCharActionAnimeChange
PUBLIC	?closeEtcSwitch@@YAXXZ				; closeEtcSwitch
PUBLIC	?closeJoinChannelWN@@YAXXZ			; closeJoinChannelWN
PUBLIC	?disconnectServer@@YAHXZ			; disconnectServer
PUBLIC	?drawFieldInfoWin@@YAXXZ			; drawFieldInfoWin
PUBLIC	?actionShortCutKeyProc@@YAXXZ			; actionShortCutKeyProc
PUBLIC	?SpecAnim@@YAXH@Z				; SpecAnim
PUBLIC	?ReleaseSpecAnim@@YAXXZ				; ReleaseSpecAnim
PUBLIC	?TeacherSystemWndfunc@@YAXHPAD@Z		; TeacherSystemWndfunc
PUBLIC	?SellPriceWndfunc@@YAHXZ			; SellPriceWndfunc
PUBLIC	?GetEmptyShowSellItem@@YAPAU_Show_Sell_Item@@PAU1@@Z ; GetEmptyShowSellItem
PUBLIC	?StreetVendorWndfunc@@YAX_NPAD@Z		; StreetVendorWndfunc
PUBLIC	?StreetVendorBuyWndfunc@@YAXPAD@Z		; StreetVendorBuyWndfunc
PUBLIC	?initCharActionAnimeChange@@YAXXZ		; initCharActionAnimeChange
PUBLIC	?charActionAnimeChange@@YAHXZ			; charActionAnimeChange
PUBLIC	?initEtcSwitch@@YAXXZ				; initEtcSwitch
PUBLIC	?etcSwitch@@YAHXZ				; etcSwitch
PUBLIC	?initJoinChannelWN@@YAXXZ			; initJoinChannelWN
PUBLIC	?joinChannelWN@@YAXXZ				; joinChannelWN
PUBLIC	?initJoinChannel2WN@@YAXPAD@Z			; initJoinChannel2WN
PUBLIC	?closeJoinChannel2WN@@YAXXZ			; closeJoinChannel2WN
PUBLIC	?joinChannel2WN@@YAXXZ				; joinChannel2WN
PUBLIC	?leaderFuncWN@@YAXXZ				; leaderFuncWN
PUBLIC	?crossAniRelease@@YAXXZ				; crossAniRelease
PUBLIC	?ImmobileAniRelease@@YAXXZ			; ImmobileAniRelease
PUBLIC	?AniRandomRelease@@YAXXZ			; AniRandomRelease
PUBLIC	?ReadAniFile@@YAHH@Z				; ReadAniFile
PUBLIC	?_OptionsStorage@?1??__local_stdio_printf_options@@9@4_KA ; `__local_stdio_printf_options'::`2'::_OptionsStorage
PUBLIC	??_C@_02DKCKIIND@?$CFs?$AA@			; `string'
PUBLIC	??_C@_01MMEEDKFM@X?$AA@				; `string'
PUBLIC	??_C@_0O@MNFNNHCK@?$CF?920sx?$CF3d?$CF13s?$AA@	; `string'
PUBLIC	??_C@_0O@MINOFDLM@?$CF?920sx?$CF3d?$CF13d?$AA@	; `string'
PUBLIC	??_C@_03CAPDGGPL@?$DP?K?$MA?$AA@		; `string'
PUBLIC	??_C@_0O@OKDFECEM@?$CF?917s?$CF?912s?$CF8s?$AA@	; `string'
PUBLIC	??_C@_0O@OPLGMGNK@?$CF?917s?$CF?912s?$CF8d?$AA@	; `string'
PUBLIC	??_C@_00CNPNBAHC@?$AA@				; `string'
PUBLIC	??_C@_09CGALFHNJ@?$CFd?$HM?$CFd?$HM?$CFd?$HM?$AA@ ; `string'
PUBLIC	??_C@_0P@DJCPLGCF@?$LO?n?$LM?$KN?$LP?$MA?$LN?J?$LN?C?$LP?$MA?$CB?$CB?$AA@ ; `string'
PUBLIC	??_C@_09KAHBFCEF@S?$HM?$CFd?$HM?$CFs?$CFs?$AA@	; `string'
PUBLIC	??_C@_06EFALBHEL@R?$HMP?$HM?91?$AA@		; `string'
PUBLIC	??_C@_02PFGFFPDM@E?$HM?$AA@			; `string'
PUBLIC	??_C@_04MPOIGBFL@SELL?$AA@			; `string'
PUBLIC	??_C@_03IFADCKOJ@?$CFd?$HM?$AA@			; `string'
PUBLIC	??_C@_07PKADKLEL@B?$HM?$CFd?$HM?$CFs?$AA@	; `string'
PUBLIC	??_C@_02PJDALANN@N?$HM?$AA@			; `string'
PUBLIC	??_C@_09HBDNCLCF@?G?y?$LL?s?5?$LA?$KB?$LA?$NN?$AA@ ; `string'
PUBLIC	??_C@_0L@LDFFIDCJ@?$LD?$LL?$LB?$LI?$LH?B?$CI?$CFs?$CJ?$AA@ ; `string'
PUBLIC	??_C@_07HLBLNMPK@?$CFd?5?H?$LI?$MA?$PM?$AA@	; `string'
PUBLIC	??_C@_06EGBMLAEA@Lv?$KD?$LK?$CFd?$AA@		; `string'
PUBLIC	??_C@_06HJFMPHBK@?$LD?$LL?$KD?$LK?$CFd?$AA@	; `string'
PUBLIC	??_C@_06MBHIJFEF@?$LA?x?$KD?$LK?$CFd?$AA@	; `string'
PUBLIC	??_C@_06GNDMLDHN@?$LJ?f?$KD?$LK?$CFd?$AA@	; `string'
PUBLIC	??_C@_06GNIPPDB@?$LM?x?$KD?$LK?$CFd?$AA@	; `string'
PUBLIC	??_C@_06LBGNCPKK@?A?v?$KD?$LK?$CFd?$AA@		; `string'
PUBLIC	??_C@_06DMNCJOEB@?$LM?v?$KD?$LK?$CFd?$AA@	; `string'
PUBLIC	??_C@_06ECLMJCEN@?H?$KN?$KD?$LK?$CFd?$AA@	; `string'
PUBLIC	??_C@_06INCIIBEP@?G?$LD?$KD?$LK?$CFd?$AA@	; `string'
PUBLIC	??_C@_06CFCEDMBI@?C?f?$KD?$LK?$CFd?$AA@		; `string'
PUBLIC	??_C@_0M@LGAMIGJ@?$LB?b?$LM?z?5?$CFd?$KD?$LK?$CFs?$AA@ ; `string'
PUBLIC	??_C@_0BA@KFKPCCNN@?$LN?$LK?E?f?$MA?L?5?$LK?N?A?$LH?G?X?$KD?$KB?$AA@ ; `string'
PUBLIC	??_C@_0BM@PJIKDD@?$LJ?Y?$LF?p?5?$LO?F?$MA?L?E?$NL?5?$LM?$LN?$LM?G?$MA?L?5?$LK?N?A?$LH?G?X?$KD?$KB?$AA@ ; `string'
PUBLIC	??_C@_0CH@BCAEDIAE@?G?y?A?$KE?5?$LA?$KB?$LA?$NN?5?$LJ?$LA?G?$LA?$MA?$LK?5?$MA?O?$MA?O?$MA?L?5?$LA?m?$LI?$KG?5?$LM?v?5@ ; `string'
PUBLIC	??_C@_05LNGOBBOC@D?$HM?$CFd?$HM?$AA@		; `string'
PUBLIC	??_C@_02DPKJAMEF@?$CFd?$AA@			; `string'
PUBLIC	??_C@_02PIPCNKOK@O?$HM?$AA@			; `string'
PUBLIC	??_C@_02PACKEJLJ@B?$HM?$AA@			; `string'
PUBLIC	??_C@_03DDDPELM@D?$HMD?$AA@			; `string'
PUBLIC	??_C@_0CB@GPKKMDCO@?$LD?k?A?$KB?$LL?s?$LP?$KB?$LM?$KN?5?$LB?$LD?H?$KP?$MA?$LL?5?G?X?$LM?$KN?$LE?B?5?$LO?H?5?$LF?H?$LE?Y@ ; `string'
PUBLIC	??_C@_02OPIIDOKH@P?$HM?$AA@			; `string'
PUBLIC	??_C@_0DA@KIPDLLGN@P?$HM?$LK?N?A?$LH?$LP?$KB?5?$LA?$KB?$MA?T?$LF?G?A?v?5?$LO?J?$LO?F?5?A?$KE?$LK?$LI?$LI?$KG?5?H?$KO@ ; `string'
PUBLIC	??_C@_03OAFDEMMP@S?$HMP?$AA@			; `string'
PUBLIC	??_C@_0CD@HJEPKLDC@?$MA?L?$LA?w?$LP?$KB?$LM?$KN?5?F?D?F?$LM?$LI?$KG?5?$LB?$LI?$LM?$LK?G?R?5?$LM?v?5?$LO?x?$LN?$MA?$LE?O@ ; `string'
PUBLIC	??_C@_0BD@KALKBBEH@?$LI?$NO?$LE?$LK?$LI?$KG?5?$LM?$LD?A?$KE?G?U?$LE?O?$LE?Y?4?$AA@ ; `string'
PUBLIC	??_C@_0BM@BDLIIEIH@?$LL?s?$LE?k?$LJ?f?$LA?z?5?$LI?m?G?T?$MA?$LL?5?$LB?$LD?H?$KP?G?U?$LE?O?$LE?Y?4?$AA@ ; `string'
PUBLIC	??_C@_0BJ@CHLJOFEL@?F?D?F?$LM?$LP?$KB?5?B?$PM?$LP?$KJ?G?R?5?$LM?v?5?$LO?x?$LO?n?$LP?d?4?$AA@ ; `string'
PUBLIC	??_C@_0BM@JPNLKOND@?$LL?s?$LE?k?$LJ?f?$MA?G?5?F?D?F?$LM?$LP?$KB?5?B?$PM?$LP?$KJ?G?U?$LE?O?$LE?Y?4?$AA@ ; `string'
PUBLIC	??_C@_0BO@NDPFBKJO@?$LL?s?$LE?k?$LJ?f?$LP?$KB?$LA?T?5?$LB?$LD?H?$KP?$MA?$LL?5?$LN?E?C?$LL?G?U?$LE?O?$LE?Y?4?$AA@ ; `string'
PUBLIC	??_C@_0BH@CBJDPLHJ@?$LA?$LD?$MA?N?$LL?s?A?$KB?$MA?$LL?5?$LA?$LD?$LM?$LD?G?U?$LE?O?$LE?Y?4?$AA@ ; `string'
PUBLIC	??_C@_0BP@BDKJGMGO@?$LK?N?A?$LH?$LP?$KB?5?$LE?k?G?Q?5?A?$KE?$LK?$LI?$LI?$KG?5?H?$KO?$MA?N?G?U?$LE?O?$LE?Y?4?$AA@ ; `string'
PUBLIC	??_C@_0BO@GJIBCGFI@?$LL?s?$LE?k?$LJ?f?$LP?$KB?$LA?T?5?$LE?k?$MA?$PM?$MA?$LL?5?$LN?E?C?$LL?G?U?$LE?O?$LE?Y?4?$AA@ ; `string'
PUBLIC	??_C@_0BD@KFAJKCNC@?$MA?$PM?E?u?$LP?$KB?5?B?$PM?$LP?$KJ?G?U?$LE?O?$LE?Y?4?$AA@ ; `string'
PUBLIC	??_C@_0BJ@NBCGMCO@?$MA?$PM?E?u?$LP?$KB?5?B?$PM?$LP?$KJ?G?R?5?$LM?v?5?$LO?x?$LO?n?$LP?d?4?$AA@ ; `string'
PUBLIC	??_C@_0BD@KMDDMCEP@?$MA?$PM?E?u?$LI?$KG?5?$LA?$PM?$MA?$PM?G?U?$LE?O?$LE?Y?4?$AA@ ; `string'
PUBLIC	??_C@_0BK@EJDCDLOD@?D?y?$LN?$LK?F?$KO?5?A?$KE?$LK?$LI?$LI?$KG?5?H?$KO?$MA?N?G?U?$LE?O?$LE?Y?4?$AA@ ; `string'
PUBLIC	??_C@_0BP@JAGIJNBP@?D?$LD?$LI?$KP?E?M?5?$LO?W?$LM?G?5?A?$KE?$LK?$LI?$LI?$KG?5?H?$KO?$MA?N?G?U?$LE?O?$LE?Y?4?$AA@ ; `string'
PUBLIC	??_C@_0BN@HEBEENAI@?A?v?$LP?x?5?F?w?$MA?N?F?$KO?5?$LM?$KF?$MA?$LL?5?$LP?$KN?$LG?w?G?U?$LE?O?$LE?Y?4?$AA@ ; `string'
PUBLIC	??_C@_0CB@NCIEAEIK@?D?$LD?$LI?$KP?E?M?$MA?G?5?E?$LO?$LN?B?5?F?d?F?$KO?$LI?$KG?5?H?$KO?$MA?N?G?U?$LE?O?$LE?Y?4@ ; `string'
PUBLIC	??_C@_0CD@LEKAGBMD@?G?X?$LE?g?A?v?$LP?$KK?$LP?$KB?5?$MA?V?$LE?B?5?F?D?F?$LM?$LI?$KG?5?$LA?K?$LL?v?G?U?$LE?O?$LE@ ; `string'
PUBLIC	??_C@_0CM@DKAKKPJM@?$LA?f?G?h?D?$KB?5?$LB?$LI?$LN?$LN?$MA?$LL?5?$LL?g?$LP?k?G?O?$LA?E?$LD?$KK?5?$LL?g?$LP?k?$MA?$LL?5@ ; `string'
PUBLIC	??_C@_0CM@JBJJKLPF@?$LK?$KO?C?$LL?$MA?G?5?$LB?$LI?$LN?$LN?$MA?$LL?5?$LL?g?$LP?k?G?O?$LA?E?$LD?$KK?5?$LL?g?$LP?k?$MA?$LL?5@ ; `string'
PUBLIC	??_C@_0L@LEPHHCI@?5?$LO?I?$KB?$KB?$KB?$KB?$LE?Y?5?$AA@ ; `string'
PUBLIC	??_C@_0L@LOMDAPBP@?5?$MA?O?$LO?n?$LD?$KK?$LE?Y?5?$AA@ ; `string'
PUBLIC	??_C@_0L@FNPFLOKG@?5?$LM?U?H?g?$LF?i?$LE?Y?5?$AA@ ; `string'
PUBLIC	??_C@_0L@CPNFDNI@?5?$LA?H?$KB?$KB?$KB?$KB?$LE?Y?5?$AA@ ; `string'
PUBLIC	??_C@_0L@LFKBOHAB@?5?$MA?N?$LL?g?G?O?$LE?Y?5?$AA@ ; `string'
PUBLIC	??_C@_0L@BBJFHFFA@?5?$LO?$LC?$LH?$KP?A?v?$LE?Y?5?$AA@ ; `string'
PUBLIC	??_C@_0L@HMKFIAIO@?5?$LB?b?$LL?$LF?G?O?$LE?Y?5?$AA@ ; `string'
PUBLIC	??_C@_0L@EPLKDNIL@?5?$LA?x?$LA?$NN?G?O?$LE?Y?5?$AA@ ; `string'
PUBLIC	??_C@_0L@DDIKGKGC@?5?H?$KN?$LI?$KG?$LD?$LL?$LE?Y?5?$AA@ ; `string'
PUBLIC	??_C@_0L@FLKMCCFP@?5?$LJ?f?$LO?n?G?O?$LE?Y?5?$AA@ ; `string'
PUBLIC	??_C@_0L@CHKOFNFO@?5?$LN?$LN?F?$NL?G?O?$LE?Y?5?$AA@ ; `string'
PUBLIC	??_C@_0L@NJDBIKEM@?$LF?$KF?$KB?$KB?$LJ?L?$KB?$KB?A?v?$AA@ ; `string'
PUBLIC	??_C@_0L@GOBFHACF@?$LE?x?$KB?$KB?A?v?$KB?$KB?$LE?Y?$AA@ ; `string'
PUBLIC	??_C@_0CI@DLPPPDPB@?A?$KG?$MA?Z?$LI?$KO?$LP?$KB?5?$LO?I?$LE?B?5?$LO?W?$LM?G?$MA?$LL?5?C?k?G?U?$LE?O?$LE?Y?4?5?$CI@ ; `string'
PUBLIC	??_C@_0CD@HLCPDIKM@?$MA?O?$LO?n?$LM?$KN?$LE?B?5?$LO?W?$LM?G?$MA?$LL?5?C?k?G?U?$LE?O?$LE?Y?4?5?$CICtrl?$CL@ ; `string'
PUBLIC	??_C@_0CG@EHJAFDMH@?$LM?U?$MA?$LL?5?H?g?$LF?e?$LE?B?5?$LO?W?$LM?G?$MA?$LL?5?C?k?G?U?$LE?O?$LE?Y?4?5?$CICt@ ; `string'
PUBLIC	??_C@_0BP@OCLIPLAL@?$LA?H?$LE?B?5?$LO?W?$LM?G?$MA?$LL?5?C?k?G?U?$LE?O?$LE?Y?4?5?$CICtrl?$CL8?$CJ?$AA@ ; `string'
PUBLIC	??_C@_0CD@KEHHLNJC@?$MA?N?$LL?g?G?O?$LE?B?5?$LO?W?$LM?G?$MA?$LL?5?C?k?G?U?$LE?O?$LE?Y?4?5?$CICtrl?$CL@ ; `string'
PUBLIC	??_C@_0CD@JMKADJMO@?$LO?$LC?$LH?$KP?A?v?$LE?B?5?$LO?W?$LM?G?$MA?$LL?5?C?k?G?U?$LE?O?$LE?Y?4?5?$CICtrl?$CL@ ; `string'
PUBLIC	??_C@_0CD@CMMPEHFI@?$LB?b?$LL?$LF?G?O?$LE?B?5?$LO?W?$LM?G?$MA?$LL?5?C?k?G?U?$LE?O?$LE?Y?4?5?$CICtrl?$CL@ ; `string'
PUBLIC	??_C@_0CD@OMLIKOJM@?$LA?x?$LA?$NN?G?O?$LE?B?5?$LO?W?$LM?G?$MA?$LL?5?C?k?G?U?$LE?O?$LE?Y?4?5?$CICtrl?$CL@ ; `string'
PUBLIC	??_C@_0CE@OIDAHAAG@?H?$KN?$LI?$KG?5?$LD?$LL?$LE?B?5?$LO?W?$LM?G?$MA?$LL?5?C?k?G?U?$LE?O?$LE?Y?4?5?$CICtrl@ ; `string'
PUBLIC	??_C@_0CD@MIHLAAOD@?$LJ?f?$LO?n?G?O?$LE?B?5?$LO?W?$LM?G?$MA?$LL?5?C?k?G?U?$LE?O?$LE?Y?4?5?$CICtrl?$CL@ ; `string'
PUBLIC	??_C@_0CD@NKKFDBOL@?$LN?$LN?F?$NL?G?O?$LE?B?5?$LO?W?$LM?G?$MA?$LL?5?C?k?G?U?$LE?O?$LE?Y?4?5?$CICtrl?$CL@ ; `string'
PUBLIC	??_C@_0CG@FILFJCML@?E?$LI?$LA?$NN?$MA?$LL?5?$MA?T?$LE?B?5?$LO?W?$LM?G?$MA?$LL?5?C?k?G?U?$LE?O?$LE?Y?4?5?$CICt@ ; `string'
PUBLIC	??_C@_0CB@DPEEFHJC@?$LE?x?A?v?$LE?B?5?$LO?W?$LM?G?$MA?$LL?5?C?k?G?U?$LE?O?$LE?Y?4?5?$CICtrl?$CL?2?$CJ@ ; `string'
PUBLIC	??_C@_0L@NHKEOPKL@?$MA?$NL?$LO?w?C?$KC?$LE?$NN?$LB?b?$AA@ ; `string'
PUBLIC	??_C@_0L@OLEDJDPG@?F?D?5?5?5?5?F?$LM?$KD?$LK?$AA@ ; `string'
PUBLIC	??_C@_0L@MAOAOHML@?$LF?$OA?5?5?5?5?$LO?s?$KD?$LK?$AA@ ; `string'
PUBLIC	??_C@_0L@POPIGLPO@?$LI?m?G?T?$LB?$LD?H?$KP?$KD?$LK?$AA@ ; `string'
PUBLIC	??_C@_0BF@IDENONED@?C?$KE?5?5?5?5?$LD?N?5?5?5?5?$LJ?v?5?5?5?5?F?$LA?$AA@ ; `string'
PUBLIC	??_C@_0L@HENHCGEF@?$LA?E?5?5?5?5?$LH?$KB?$KD?$LK?$AA@ ; `string'
PUBLIC	??_C@_0L@DMOEEJLK@?G?X?5?$LL?s?5?$LF?$LF?$KD?$LK?$AA@ ; `string'
PUBLIC	??_C@_07MIKFFMHF@?5?$KD?N?5?5?$KD?O?$AA@	; `string'
PUBLIC	??_C@_07CHOGEIED@?5?$KD?Y?$KD?E?$KD?S?$AA@	; `string'
PUBLIC	??_C@_0BJ@NPLNHFNN@?$LE?Y?$LI?$KF?$LL?g?$LG?w?F?$MA?G?U?$LH?y?$LP?$KJ?$LK?N?$LM?$LD?A?$KE?$KB?$KD?$AA@ ; `string'
PUBLIC	??_C@_0BJ@EJIPNKEA@?$LE?Y?$LI?$KF?$LL?g?$LG?w?$LF?$LF?$MA?$PM?$LJ?$NO?$MA?$LL?A?v?$LM?$LD?A?$KE?$KB?$KD?$AA@ ; `string'
PUBLIC	??_C@_0BH@GAKCDBLG@?$LI?m?G?T?$LB?$LD?H?$KP?G?c?$LP?k?$LP?$KJ?$LK?N?$LM?$LD?A?$KE?$KB?$KD?$AA@ ; `string'
PUBLIC	??_C@_0BF@NLHMJPHG@?$LA?$KC?C?$KE?$LD?N?$LM?$LD?A?$KE?$LG?G?$LE?B?G?X?A?$KG?$KB?$KD?$AA@ ; `string'
PUBLIC	??_C@_0BD@DBDDAFOG@?$LA?E?$LH?$KB?$LM?v?$LG?t?$LP?$KJ?$LK?N?$LM?$LD?A?$KE?$KB?$KD?$AA@ ; `string'
PUBLIC	??_C@_0BL@JJOLNGNO@?$LA?T?$MA?S?$MA?N?E?M?F?d?$MA?L?$LN?$LK?G?X?$LL?s?$LF?$LF?$LM?$LD?A?$KE?$KB?$KD?$AA@ ; `string'
PUBLIC	??_C@_06FNJBCBKN@?$LB?S?$LM?S?$LI?$LL?$AA@	; `string'
PUBLIC	??_C@_06IAKMCPJ@?$LA?$KB?A?$LH?$LI?$LL?$AA@	; `string'
PUBLIC	??_C@_08LIEPCPDK@?$LA?f?$LI?E?C?$KE?$LD?N?$AA@	; `string'
PUBLIC	??_C@_08DKNMBPNK@?$LE?k?H?$KN?$MA?z?$MA?e?$AA@	; `string'
PUBLIC	??_C@_0BJ@BCJNPCLP@?$LA?$KB?A?$LH?$LP?$KB?$LA?$KB?$MA?T?G?O?A?v?$LO?J?$LO?R?$LN?$MA?$LE?O?$LE?Y?$AA@ ; `string'
PUBLIC	??_C@_0BD@JIKBMICG@?$LA?m?$LP?k?$LF?G?A?v?$LO?J?$LO?R?$LN?$MA?$LE?O?$LE?Y?$AA@ ; `string'
PUBLIC	??_C@_02CHHAKFFB@w?$CL?$AA@			; `string'
PUBLIC	??_C@_0BB@BLGDDDEM@data?2channel?4dat?$AA@	; `string'
PUBLIC	??_C@_0BJ@DLFHHIDJ@?C?$KE?$LD?N?5?$LM?$LD?A?$KE?5?F?D?$MA?O?5?$MA?P?$LB?b?5?$LN?G?F?P?$AA@ ; `string'
PUBLIC	??_C@_0BI@JGAFKJCL@?$LI?$NO?$LE?$LK?5?$LM?$LD?A?$KE?C?$KC?$MA?$LL?5?$LE?$NN?$LN?$MA?$LE?O?$LE?Y?4?$AA@ ; `string'
PUBLIC	??_C@_0CF@MCKEAICK@?$LD?k?A?$KB?$LP?$KB?$LM?$KN?$LA?E?$LH?$KB?$LP?$KN?$LM?v?$LO?x?$MA?$LN?$KB?$KC?F?D?F?$LM?$LJ?W?$MA?$PM?E?u@ ; `string'
PUBLIC	??_C@_0N@NBGJJJHP@?$LI?$NO?$LE?$LK?C?$KC?$LE?$NN?$LB?b?$KB?$KD?$AA@ ; `string'
PUBLIC	??_C@_0L@OCGDIFAB@?5640?5x?5480?$AA@		; `string'
PUBLIC	??_C@_0L@FCDLGIBD@?5320?5x?5280?$AA@		; `string'
PUBLIC	??_C@_0L@FFMHNIN@?5800?5x?5600?$AA@		; `string'
PUBLIC	??_C@_0L@KHKHJBNB@1024?5x?5768?$AA@		; `string'
PUBLIC	??_C@_04HDOCAJNK@?$CFs?$CFs?$AA@		; `string'
PUBLIC	??_C@_0CA@MLBEKKLD@?$LM?$KN?$LJ?v?$LP?M?$MA?G?5?$LP?$KM?$LA?a?$MA?L?5?A?$LO?$LH?a?$LF?G?$LO?z?$LN?$MA?$LE?O?$LE?Y?4?$AA@ ; `string'
PUBLIC	??_C@_0BD@KHIHNLHO@?$LF?$LJ?$LO?F?$LA?$KB?$LN?C?$LA?Z?$LN?$MA?$LE?O?$LB?n?$KD?$LP?$AA@ ; `string'
PUBLIC	??_C@_04IJNKKJEO@?H?$KO?$MA?N?$AA@		; `string'
PUBLIC	??_C@_04PNGENDLA@S?$HMD2?$AA@			; `string'
PUBLIC	??_C@_01CKDDGHAB@D?$AA@				; `string'
PUBLIC	??_C@_06KOPCAPBC@C?$HMJ?$HM?91?$AA@		; `string'
PUBLIC	??_C@_06JEJPCC@S?$HMSELF?$AA@			; `string'
PUBLIC	??_C@_01CLKCMJKC@?5?$AA@			; `string'
PUBLIC	??_C@_0BD@CBGDDGMA@?$LA?$KB?A?$LH?$LM?$LM?$LK?N?A?$KE?$LK?$LI?$LK?$LI?$LB?b?$KB?$KD?$AA@ ; `string'
PUBLIC	??_C@_0BF@MBHIEFGB@?C?$OA?$LK?$LJ?$LL?g?$MA?G?F?$KP?$LK?$LA?G?Q?$LB?b?$LE?I?$KB?$KD?$AA@ ; `string'
PUBLIC	??_C@_0BF@EKJBMCBD@?$LK?N?A?$LH?$LA?T?$LN?C?F?G?$LB?b?$LE?I?$LL?g?$LP?k?$KB?$KD?$AA@ ; `string'
PUBLIC	??_C@_0BD@BKOBNADD@?A?$LH?$MA?e?$LJ?f?$LM?$NL?$LB?b?$LE?I?$LC?t?$LB?b?$KB?$KD?$AA@ ; `string'
PUBLIC	??_C@_0BJ@MOILBLMI@?C?$KE?F?C?C?$KE?$LD?N?$LI?$NO?$LE?$LK?$LP?$KB?$LM?$KN?$LD?$KK?$LA?$KB?$LB?b?$KB?$KD?$AA@ ; `string'
PUBLIC	??_C@_0P@CBBBPELI@?$MA?L?C?$KE?$LD?N?$LP?$KB?$LA?$KB?$MA?T?$KB?$KD?$AA@ ; `string'
PUBLIC	??_C@_0L@EIKLEHBI@?$MA?L?C?$KC?$LE?$NN?$LB?b?$KB?$KD?$AA@ ; `string'
PUBLIC	??_C@_06GHCNPHLL@C?$HMJ?$HM?$CFd?$AA@		; `string'
PUBLIC	??_C@_08JGHLAOEI@?5?B?$PM?5?5?$LA?$KB?5?$AA@	; `string'
PUBLIC	??_C@_08CMINFIIP@?5?E?$LL?5?5?E?p?5?$AA@	; `string'
PUBLIC	??_C@_0BA@FLCLDJN@?$FL?5?C?$KE?5?$LD?N?5?H?$LI?5?$LP?x?5?$FN?$AA@ ; `string'
PUBLIC	??_C@_0BI@COJOKGGA@?G?v?$MA?g?5?$CFd?5?$MA?L?$LK?N?A?$LH?$MA?G?5?$LA?$KB?A?$LH?$KB?$KD?$AA@ ; `string'
PUBLIC	??_C@_0BJ@BJPJPJLI@?$MA?V?$LE?Y?5?$CFd?5?$MA?L?C?$KE?$LD?N?$MA?G?$LL?g?$LG?w?$LF?i?$KB?$KD?$AA@ ; `string'
PUBLIC	??_C@_05PAKAMAIL@C?$HMJ?$HM5?$AA@		; `string'
PUBLIC	??_C@_05CPEMAIOC@L?$HMF?$HM1?$AA@		; `string'
PUBLIC	??_C@_05EAPBOIIG@L?$HML?$HM1?$AA@		; `string'
PUBLIC	??_C@_05GLNMLLEF@L?$HML?$HM2?$AA@		; `string'
PUBLIC	??_C@_0L@CJCIOOAN@L?$HMCHANGE?$HML?$AA@		; `string'
PUBLIC	??_C@_0N@NIGFCJOO@?5?5?A?$LH?$MA?e?$LJ?f?$LM?$NL?5?5?$AA@ ; `string'
PUBLIC	??_C@_0P@OGFFOIDE@?$LK?N?A?$LH?$LB?$LI?$LM?$LK?$LP?x?$LA?$PM?$LI?$KO?$AA@ ; `string'
PUBLIC	??_C@_0L@DOBBGKCH@?5?$LK?N?A?$LH?C?J?$LE?k?5?$AA@ ; `string'
PUBLIC	??_C@_0L@MJPGOABE@?5?$LP?$KM?$LB?$LI?$LF?$LP?$MA?G?5?$AA@ ; `string'
PUBLIC	??_C@_0BB@BPLOID@?5?5?A?$LH?$MA?e?$LB?G?G?Q?$LK?N?$LP?$KJ?5?5?$AA@ ; `string'
PUBLIC	??_C@_0CD@LJIHMIMO@?A?$LH?$MA?e?$MA?$LK?5?$LK?N?A?$LH?$LP?x?$MA?$PM?C?$LM?$LP?$KB?$LA?T?5?$LA?x?A?v?G?U?$LE?O?$LE?Y@ ; `string'
PUBLIC	??_C@_0BB@MGNAPNJL@?$LK?N?A?$LH?$LB?$LI?$LM?$LK?$LP?x?$LI?q?$LH?O?$KB?$KD?$AA@ ; `string'
PUBLIC	??_C@_0BF@CGFLPMMC@?$LK?N?A?$LH?$LJ?f?$LJ?$KO?C?J?C?$LL?$MA?e?$MA?$NL?$LM?$LK?$KB?$KD?$AA@ ; `string'
PUBLIC	??_C@_0BL@EJEFDMMK@?E?$LO?$LN?B?$LJ?h?$LP?l?$LB?b?$MA?$KH?G?Q?$LF?$LP?$MA?G?$LM?$KN?$MA?$NL?$LM?$LK?$KB?$KD?$AA@ ; `string'
PUBLIC	??_C@_0L@MGMKLDIO@map?2?$CFd?4ani?$AA@		; `string'
PUBLIC	??_C@_0BK@GGAGFANJ@?$LE?g?$LN?E?$MA?$LK?$LN?D?$LK?$LA?G?R?$LM?v?$MA?V?$LN?$MA?$LE?O?$LB?n?5?$CFs?$AA@ ; `string'
PUBLIC	??_C@_0BD@KCELJCBE@?$LI?$OA?E?d?$LA?$KB?$LF?G?$LO?n?$LK?$LI?$LM?$LM?$LP?d?$KD?$LP?$AA@ ; `string'
PUBLIC	??_C@_06BLFCGNEJ@?H?$KO?5?5?$MA?N?$AA@		; `string'
PUBLIC	??_C@_06PNFMGOAF@?C?k?5?5?$LM?R?$AA@		; `string'
PUBLIC	??_C@_04PNIAPCPG@O?$HM?$CFd?$AA@		; `string'
PUBLIC	??_C@_0BJ@HGNGOOJL@?$LI?$OA?E?d?$LH?N?5?$LE?$KJ?$LB?$LM?5?$LM?$LB?E?C?G?U?$LE?O?$LB?n?$KD?$LP?$AA@ ; `string'
PUBLIC	??_C@_08OHAGCECG@?$LI?$OA?E?d?$LL?s?E?B?$AA@	; `string'
PUBLIC	??_C@_0N@FGGIBINO@?$LI?$OA?E?d?$MA?L?$LI?$KH?$KD?$LK?$CFs?$AA@ ; `string'
PUBLIC	??_C@_06OLECLEEB@?$LL?s?E?B?$KD?$LK?$AA@	; `string'
PUBLIC	??_C@_06KCABBADG@Online?$AA@			; `string'
PUBLIC	??_C@_07BMIEDOEC@Offline?$AA@			; `string'
PUBLIC	??_C@_06KFNAOAIJ@?$MA?$LK?G?O?$KD?$LK?$AA@	; `string'
PUBLIC	??_C@_04ELDJJCAA@?$LO?F?$LE?O?$AA@		; `string'
PUBLIC	??_C@_06MOLOGMLJ@?A?$LO?5?5?$LH?a?$AA@		; `string'
PUBLIC	??_C@_0M@KOAEBMHD@?$LI?$OA?E?d?$MA?G?5?$LN?G?$LA?$NN?$AA@ ; `string'
PUBLIC	??_C@_0CF@CIJBHHMG@?$LI?$OA?E?d?$LI?$KG?C?k?$LM?R?G?O?$LI?i?$LI?E?$LH?B?$LA?$KB?D?$KB?$LA?$KB?$LA?$KI?$LM?R?G?U?$LE?O@ ; `string'
PUBLIC	??_C@_0BJ@NKJNALFN@?$LI?$OA?E?d?$LI?$KG?C?k?$LM?R?G?O?$LN?C?$LA?Z?$LN?$MA?$LE?O?$LB?n?$KD?$LP?$AA@ ; `string'
PUBLIC	??_C@_02PBOICDIO@C?$HM?$AA@			; `string'
PUBLIC	__real@00000000
PUBLIC	__real@3f000000
PUBLIC	__real@3fe0000000000000
PUBLIC	__real@4000000000000000
PUBLIC	__real@4008000000000000
PUBLIC	__real@4010000000000000
PUBLIC	__real@4014000000000000
PUBLIC	__real@4018000000000000
PUBLIC	__real@401c000000000000
PUBLIC	__real@4020000000000000
PUBLIC	__real@4028000000000000
PUBLIC	__real@4072d00000000000
PUBLIC	__real@4077d00000000000
PUBLIC	__real@4082780000000000
PUBLIC	__real@408f480000000000
PUBLIC	__real@40e0000000000000
PUBLIC	__real@42800000
EXTRN	___report_rangecheckfailure:PROC
EXTRN	__imp__fclose:PROC
EXTRN	__imp__fopen:PROC
EXTRN	__imp__fwrite:PROC
EXTRN	__imp____stdio_common_vsprintf:PROC
EXTRN	__imp__rand:PROC
EXTRN	__imp__atoi:PROC
EXTRN	__imp__itoa:PROC
EXTRN	_memset:PROC
EXTRN	_strcat:PROC
EXTRN	_strcmp:PROC
EXTRN	_strcpy:PROC
EXTRN	_strlen:PROC
EXTRN	__imp__strncpy:PROC
EXTRN	?TimeGetTime@@YAIXZ:PROC			; TimeGetTime
EXTRN	__imp__CreateFileA@28:PROC
EXTRN	__imp__ReadFile@20:PROC
EXTRN	__imp__CloseHandle@4:PROC
EXTRN	__imp__SendMessageA@16:PROC
EXTRN	?GetAction@@YAPAUaction@@EI@Z:PROC		; GetAction
EXTRN	?DeathAction@@YAXPAUaction@@@Z:PROC		; DeathAction
EXTRN	?StockDispBuffer@@YAHHHEHH@Z:PROC		; StockDispBuffer
EXTRN	?StockBoxDispBuffer@@YAXHHHHEHH@Z:PROC		; StockBoxDispBuffer
EXTRN	?rand2@@YAHXZ:PROC				; rand2
EXTRN	?StockChatBufferLine@@YAXPADEH@Z:PROC		; StockChatBufferLine
EXTRN	?GetStrLastByte@@YAHPAD@Z:PROC			; GetStrLastByte
EXTRN	?GetKeyInputFocus@@YAXPAUSTR_BUFFER@@@Z:PROC	; GetKeyInputFocus
EXTRN	?StockFontBuffer@@YAHHHDHPADH@Z:PROC		; StockFontBuffer
EXTRN	?StockFontBuffer2@@YAXPAUSTR_BUFFER@@@Z:PROC	; StockFontBuffer2
EXTRN	?pattern@@YAHPAUaction@@HH@Z:PROC		; pattern
EXTRN	?openServerWindow@@YAXHHHHPAD@Z:PROC		; openServerWindow
EXTRN	?selGraId@@YAHPAHH@Z:PROC			; selGraId
EXTRN	?pushGraId@@YAHPAHH@Z:PROC			; pushGraId
EXTRN	?selFontId@@YAHPAHH@Z:PROC			; selFontId
EXTRN	?focusGraId@@YAHPAHH@Z:PROC			; focusGraId
EXTRN	?focusFontId@@YAHPAHH@Z:PROC			; focusFontId
EXTRN	?setPcAction@@YAXH@Z:PROC			; setPcAction
EXTRN	?InitItem@@YAXHHH@Z:PROC			; InitItem
EXTRN	?InitMenu2@@YAXXZ:PROC				; InitMenu2
EXTRN	?CheckMenuFlag@@YAHXZ:PROC			; CheckMenuFlag
EXTRN	?MakeWindowDisp@@YAPAUaction@@HHHHHH@Z:PROC	; MakeWindowDisp
EXTRN	?MakeHitBox@@YAHHHHHH@Z:PROC			; MakeHitBox
EXTRN	?MakeAnimDisp@@YAPAUaction@@HHHH@Z:PROC		; MakeAnimDisp
EXTRN	?SelectChatRoom@@YAXXZ:PROC			; SelectChatRoom
EXTRN	?ChatRoomWnd@@YAXXZ:PROC			; ChatRoomWnd
EXTRN	?getRouteData@@YAXHPAH0@Z:PROC			; getRouteData
EXTRN	?camMapToGamen@@YAXMMPAM0@Z:PROC		; camMapToGamen
EXTRN	?lssproto_SaMenu_send@@YAXHHHH@Z:PROC		; lssproto_SaMenu_send
EXTRN	?lssproto_Expup_send@@YAXH@Z:PROC		; lssproto_Expup_send
EXTRN	?lssproto_Noenemy_send@@YAXH@Z:PROC		; lssproto_Noenemy_send
EXTRN	?lssproto_Partyauto_send@@YAXH@Z:PROC		; lssproto_Partyauto_send
EXTRN	?lssproto_DU_send@@YAXHHH@Z:PROC		; lssproto_DU_send
EXTRN	?lssproto_JB_send@@YAXHHH@Z:PROC		; lssproto_JB_send
EXTRN	?lssproto_LB_send@@YAXHHH@Z:PROC		; lssproto_LB_send
EXTRN	?lssproto_AAB_send@@YAXHHH@Z:PROC		; lssproto_AAB_send
EXTRN	?lssproto_TK_recv@@YAXHHPADH@Z:PROC		; lssproto_TK_recv
EXTRN	?lssproto_FS_send@@YAXHH@Z:PROC			; lssproto_FS_send
EXTRN	?lssproto_PR_send@@YAXHHHH@Z:PROC		; lssproto_PR_send
EXTRN	?lssproto_AC_send@@YAXHHHH@Z:PROC		; lssproto_AC_send
EXTRN	?lssproto_TD_send@@YAXHPAD@Z:PROC		; lssproto_TD_send
EXTRN	?lssproto_FM_send@@YAXHPAD@Z:PROC		; lssproto_FM_send
EXTRN	?lssproto_PETST_send@@YAXHHH@Z:PROC		; lssproto_PETST_send
EXTRN	?lssproto_CHATROOM_send@@YAXHPAD@Z:PROC		; lssproto_CHATROOM_send
EXTRN	?lssproto_STREET_VENDOR_send@@YAXHPAD@Z:PROC	; lssproto_STREET_VENDOR_send
EXTRN	?lssproto_TEACHER_SYSTEM_send@@YAXHPAD@Z:PROC	; lssproto_TEACHER_SYSTEM_send
EXTRN	?old_lssproto_DU_send@@YAXHHH@Z:PROC		; old_lssproto_DU_send
EXTRN	?old_lssproto_JB_send@@YAXHHH@Z:PROC		; old_lssproto_JB_send
EXTRN	?old_lssproto_AAB_send@@YAXHHH@Z:PROC		; old_lssproto_AAB_send
EXTRN	?old_lssproto_FS_send@@YAXHH@Z:PROC		; old_lssproto_FS_send
EXTRN	?old_lssproto_PR_send@@YAXHHHH@Z:PROC		; old_lssproto_PR_send
EXTRN	?old_lssproto_AC_send@@YAXHHHH@Z:PROC		; old_lssproto_AC_send
EXTRN	?old_lssproto_TD_send@@YAXHPAD@Z:PROC		; old_lssproto_TD_send
EXTRN	?old_lssproto_FM_send@@YAXHPAD@Z:PROC		; old_lssproto_FM_send
EXTRN	?createWaterAnimation@@YAPAUaction@@HHHH@Z:PROC	; createWaterAnimation
EXTRN	?checkCharObjPoint@@YAHHHF@Z:PROC		; checkCharObjPoint
EXTRN	?checkCharObjPointStatus@@YAHHHFI@Z:PROC	; checkCharObjPointStatus
EXTRN	?checkCharObjPointNotStatus@@YAHHHFI@Z:PROC	; checkCharObjPointNotStatus
EXTRN	?GetImeString@@YAPADXZ:PROC			; GetImeString
EXTRN	?ShowBottomLineString@@YAXHPAD@Z:PROC		; ShowBottomLineString
EXTRN	?play_se@@YAHHHH@Z:PROC				; play_se
EXTRN	?getStringToken@@YAHPADDHH0@Z:PROC		; getStringToken
EXTRN	?makeStringFromEscaped@@YAPADPAD@Z:PROC		; makeStringFromEscaped
EXTRN	?CheckNumber@@YAXPADH@Z:PROC			; CheckNumber
EXTRN	?CheckSpace@@YAXPAD@Z:PROC			; CheckSpace
EXTRN	?HelpProc@@YAHXZ:PROC				; HelpProc
EXTRN	?SaveChatData@@YAXPADD_N@Z:PROC			; SaveChatData
EXTRN	?JL_RESOMODE@@YAXH@Z:PROC			; JL_RESOMODE
EXTRN	?SetResoMode@@YAXH@Z:PROC			; SetResoMode
EXTRN	?ChangeWindowMode@@YAXXZ:PROC			; ChangeWindowMode
EXTRN	?RecoverDirectDraw@@YAXXZ:PROC			; RecoverDirectDraw
EXTRN	@_RTC_CheckStackVars@8:PROC
EXTRN	@__security_check_cookie@4:PROC
EXTRN	__RTC_CheckEsp:PROC
EXTRN	__RTC_InitBase:PROC
EXTRN	__RTC_Shutdown:PROC
EXTRN	?DISPLACEMENT_X@@3HA:DWORD			; DISPLACEMENT_X
EXTRN	?DEF_APPSIZEX@@3HA:DWORD			; DEF_APPSIZEX
EXTRN	?hWnd@@3PAUHWND__@@A:DWORD			; hWnd
EXTRN	?ResoMode@@3HA:DWORD				; ResoMode
EXTRN	?gmsv@@3PAUgameserver@@A:BYTE			; gmsv
EXTRN	?ProcNo@@3IA:DWORD				; ProcNo
EXTRN	?joy_trg@@3PAKA:QWORD				; joy_trg
EXTRN	?MyChatBuffer@@3USTR_BUFFER@@A:BYTE		; MyChatBuffer
EXTRN	?mouse@@3UMOUSE@@A:BYTE				; mouse
EXTRN	?HitFontNo@@3HA:DWORD				; HitFontNo
EXTRN	?HitDispNo@@3HA:DWORD				; HitDispNo
EXTRN	?CG_FIELD_SV_SELL_PANEL@@3HA:DWORD		; CG_FIELD_SV_SELL_PANEL
EXTRN	?CG_FIELD_SV_SELL_PRICE_PANEL@@3HA:DWORD	; CG_FIELD_SV_SELL_PRICE_PANEL
EXTRN	?windowTypeWN@@3HA:DWORD			; windowTypeWN
EXTRN	?pc@@3UPC@@A:BYTE				; pc
EXTRN	?prSendMode@@3FA:WORD				; prSendMode
EXTRN	?prSendFlag@@3FA:WORD				; prSendFlag
EXTRN	?jbSendFlag@@3FA:WORD				; jbSendFlag
EXTRN	?duelSendFlag@@3FA:WORD				; duelSendFlag
EXTRN	?tradeFlag@@3FA:WORD				; tradeFlag
EXTRN	?pet@@3PAUPET@@A:BYTE				; pet
EXTRN	?partyModeFlag@@3FA:WORD			; partyModeFlag
EXTRN	?MenuToggleFlag@@3IA:DWORD			; MenuToggleFlag
EXTRN	?ItemBuffer@@3PAUITEM_BUFFER@@A:BYTE		; ItemBuffer
EXTRN	?MapWmdFlagBak@@3HA:DWORD			; MapWmdFlagBak
EXTRN	?TalkMode@@3HA:DWORD				; TalkMode
EXTRN	?pChtChanlWnd@@3PAUaction@@A:DWORD		; pChtChanlWnd
EXTRN	?pSelChanlWnd@@3PAUaction@@A:DWORD		; pSelChanlWnd
EXTRN	?nowFloorName@@3PADA:BYTE			; nowFloorName
EXTRN	?nowFloor@@3HA:DWORD				; nowFloor
EXTRN	?nowGx@@3HA:DWORD				; nowGx
EXTRN	?nowGy@@3HA:DWORD				; nowGy
EXTRN	?nowVx@@3MA:DWORD				; nowVx
EXTRN	?nowVy@@3MA:DWORD				; nowVy
EXTRN	?moveRouteCnt@@3FA:WORD				; moveRouteCnt
EXTRN	?sendEnFlag@@3FA:WORD				; sendEnFlag
EXTRN	?eventWarpSendFlag@@3FA:WORD			; eventWarpSendFlag
EXTRN	?eventEnemySendFlag@@3FA:WORD			; eventEnemySendFlag
EXTRN	?bNewServer@@3HA:DWORD				; bNewServer
EXTRN	?sockfd@@3IA:DWORD				; sockfd
EXTRN	?disconnectServerFlag@@3HA:DWORD		; disconnectServerFlag
EXTRN	?SaTime@@3UtagLSTIME@@A:BYTE			; SaTime
EXTRN	?SaTimeZoneNo@@3HA:DWORD			; SaTimeZoneNo
EXTRN	?nPetItemEquipBmpNumber@@3PAY01HA:BYTE		; nPetItemEquipBmpNumber
EXTRN	?HelpProcNo@@3FA:WORD				; HelpProcNo
EXTRN	?jumpHelpPage@@3FA:WORD				; jumpHelpPage
EXTRN	?jumpHelpSeg@@3FA:WORD				; jumpHelpSeg
EXTRN	?自动登陆是否开启@@3HA:DWORD			; 自动登陆是否开启
EXTRN	___security_cookie:DWORD
EXTRN	__fltused:DWORD
;	COMDAT ?_OptionsStorage@?1??__local_stdio_printf_options@@9@4_KA
_BSS	SEGMENT
?_OptionsStorage@?1??__local_stdio_printf_options@@9@4_KA DQ 01H DUP (?) ; `__local_stdio_printf_options'::`2'::_OptionsStorage
_BSS	ENDS
_BSS	SEGMENT
	ALIGN	4

?WaterAct2@@3PAUaction@@A DD 01H DUP (?)		; WaterAct2
?WaterAct@@3PAPAUaction@@A DD 032H DUP (?)		; WaterAct
?WaterAct3@@3PAPAUaction@@A DD 01eH DUP (?)		; WaterAct3
?str_bufferMoney@?1??SellPriceWndfunc@@YAHXZ@4USTR_BUFFER@@A DB 0128H DUP (?) ; `SellPriceWndfunc'::`2'::str_bufferMoney
?iBtn@?1??StreetVendorWndfunc@@YAX_NPAD@Z@4PAHA DD 07H DUP (?) ; `StreetVendorWndfunc'::`2'::iBtn
?iSellItemBtn@?1??StreetVendorWndfunc@@YAX_NPAD@Z@4PAHA DD 014H DUP (?) ; `StreetVendorWndfunc'::`2'::iSellItemBtn
?iItemOnSell@?1??StreetVendorWndfunc@@YAX_NPAD@Z@4PAHA DD 0fH DUP (?) ; `StreetVendorWndfunc'::`2'::iItemOnSell
?iShowPet@?1??StreetVendorWndfunc@@YAX_NPAD@Z@4HA DD 01H DUP (?) ; `StreetVendorWndfunc'::`2'::iShowPet
?iPetOnSell@?1??StreetVendorWndfunc@@YAX_NPAD@Z@4PAHA DD 05H DUP (?) ; `StreetVendorWndfunc'::`2'::iPetOnSell
?iGetSellPrice@?1??StreetVendorWndfunc@@YAX_NPAD@Z@4HA DD 01H DUP (?) ; `StreetVendorWndfunc'::`2'::iGetSellPrice
?iListStart@?1??StreetVendorWndfunc@@YAX_NPAD@Z@4HA DD 01H DUP (?) ; `StreetVendorWndfunc'::`2'::iListStart
?iBtn@?1??StreetVendorBuyWndfunc@@YAXPAD@Z@4PAHA DD 05H DUP (?) ; `StreetVendorBuyWndfunc'::`2'::iBtn
?iBuyItemBtn@?1??StreetVendorBuyWndfunc@@YAXPAD@Z@4PAHA DD 014H DUP (?) ; `StreetVendorBuyWndfunc'::`2'::iBuyItemBtn
?iListStart@?1??StreetVendorBuyWndfunc@@YAXPAD@Z@4HA DD 01H DUP (?) ; `StreetVendorBuyWndfunc'::`2'::iListStart
?iTotalBuy@?1??StreetVendorBuyWndfunc@@YAXPAD@Z@4PAHA DD 02H DUP (?) ; `StreetVendorBuyWndfunc'::`2'::iTotalBuy
?iEmptyNum@?1??StreetVendorBuyWndfunc@@YAXPAD@Z@4PAHA DD 02H DUP (?) ; `StreetVendorBuyWndfunc'::`2'::iEmptyNum
?iCurrentShow@?1??StreetVendorBuyWndfunc@@YAXPAD@Z@4HA DD 01H DUP (?) ; `StreetVendorBuyWndfunc'::`2'::iCurrentShow
?iTotalBuyMoney@?1??StreetVendorBuyWndfunc@@YAXPAD@Z@4HA DD 01H DUP (?) ; `StreetVendorBuyWndfunc'::`2'::iTotalBuyMoney
?x@?1??charActionAnimeChange@@YAHXZ@4HA DD 01H DUP (?)	; `charActionAnimeChange'::`2'::x
?y@?1??charActionAnimeChange@@YAHXZ@4HA DD 01H DUP (?)	; `charActionAnimeChange'::`2'::y
?w@?1??charActionAnimeChange@@YAHXZ@4HA DD 01H DUP (?)	; `charActionAnimeChange'::`2'::w
?h@?1??charActionAnimeChange@@YAHXZ@4HA DD 01H DUP (?)	; `charActionAnimeChange'::`2'::h
?btnId@?1??charActionAnimeChange@@YAHXZ@4PAHA DD 0dH DUP (?) ; `charActionAnimeChange'::`2'::btnId
?iChannelbtnId@?1??etcSwitch@@YAHXZ@4PAHA DD 04H DUP (?) ; `etcSwitch'::`2'::iChannelbtnId
?x@?1??etcSwitch@@YAHXZ@4HA DD 01H DUP (?)		; `etcSwitch'::`2'::x
?y@?1??etcSwitch@@YAHXZ@4HA DD 01H DUP (?)		; `etcSwitch'::`2'::y
?w@?1??etcSwitch@@YAHXZ@4HA DD 01H DUP (?)		; `etcSwitch'::`2'::w
?h@?1??etcSwitch@@YAHXZ@4HA DD 01H DUP (?)		; `etcSwitch'::`2'::h
?btnId@?1??etcSwitch@@YAHXZ@4PAHA DD 05H DUP (?)	; `etcSwitch'::`2'::btnId
?x@?1??disconnectServer@@YAHXZ@4HA DD 01H DUP (?)	; `disconnectServer'::`2'::x
?y@?1??disconnectServer@@YAHXZ@4HA DD 01H DUP (?)	; `disconnectServer'::`2'::y
?w@?1??disconnectServer@@YAHXZ@4HA DD 01H DUP (?)	; `disconnectServer'::`2'::w
?h@?1??disconnectServer@@YAHXZ@4HA DD 01H DUP (?)	; `disconnectServer'::`2'::h
?btnId@?1??disconnectServer@@YAHXZ@4PAHA DD 01H DUP (?)	; `disconnectServer'::`2'::btnId
?x@?1??drawFieldInfoWin@@YAXXZ@4HA DD 01H DUP (?)	; `drawFieldInfoWin'::`2'::x
?y@?1??drawFieldInfoWin@@YAXXZ@4HA DD 01H DUP (?)	; `drawFieldInfoWin'::`2'::y
?w@?1??drawFieldInfoWin@@YAXXZ@4HA DD 01H DUP (?)	; `drawFieldInfoWin'::`2'::w
?h@?1??drawFieldInfoWin@@YAXXZ@4HA DD 01H DUP (?)	; `drawFieldInfoWin'::`2'::h
?btnId@?1??joinChannelWN@@YAXXZ@4PAHA DD 05H DUP (?)	; `joinChannelWN'::`2'::btnId
?graId@?1??joinChannelWN@@YAXXZ@4PAHA DD 01H DUP (?)	; `joinChannelWN'::`2'::graId
?channelData@@3UTchannelData@@A DB 096cH DUP (?)	; channelData
?pageNum@@3HA DD 01H DUP (?)				; pageNum
?fontBtnId@?1??joinChannel2WN@@YAXXZ@4PAHA DD 04H DUP (?) ; `joinChannel2WN'::`2'::fontBtnId
?btnId@?1??leaderFuncWN@@YAXXZ@4PAHA DD 09H DUP (?)	; `leaderFuncWN'::`2'::btnId
?graId@?1??leaderFuncWN@@YAXXZ@4PAHA DD 01H DUP (?)	; `leaderFuncWN'::`2'::graId
?winX@?1??TeacherSystemWndfunc@@YAXHPAD@Z@4HA DD 01H DUP (?) ; `TeacherSystemWndfunc'::`2'::winX
?winY@?1??TeacherSystemWndfunc@@YAXHPAD@Z@4HA DD 01H DUP (?) ; `TeacherSystemWndfunc'::`2'::winY
?winW@?1??TeacherSystemWndfunc@@YAXHPAD@Z@4HA DD 01H DUP (?) ; `TeacherSystemWndfunc'::`2'::winW
?winH@?1??TeacherSystemWndfunc@@YAXHPAD@Z@4HA DD 01H DUP (?) ; `TeacherSystemWndfunc'::`2'::winH
?iFontId@?1??TeacherSystemWndfunc@@YAXHPAD@Z@4PAHA DD 07H DUP (?) ; `TeacherSystemWndfunc'::`2'::iFontId
?iIndex@?1??TeacherSystemWndfunc@@YAXHPAD@Z@4PAHA DD 05H DUP (?) ; `TeacherSystemWndfunc'::`2'::iIndex
?szBuf@?1??TeacherSystemWndfunc@@YAXHPAD@Z@4PAY0CA@DA DB 0c0H DUP (?) ; `TeacherSystemWndfunc'::`2'::szBuf
_BSS	ENDS
;	COMDAT __real@42800000
CONST	SEGMENT
__real@42800000 DD 042800000r			; 64
CONST	ENDS
;	COMDAT __real@40e0000000000000
CONST	SEGMENT
__real@40e0000000000000 DQ 040e0000000000000r	; 32768
CONST	ENDS
;	COMDAT __real@408f480000000000
CONST	SEGMENT
__real@408f480000000000 DQ 0408f480000000000r	; 1001
CONST	ENDS
;	COMDAT __real@4082780000000000
CONST	SEGMENT
__real@4082780000000000 DQ 04082780000000000r	; 591
CONST	ENDS
;	COMDAT __real@4077d00000000000
CONST	SEGMENT
__real@4077d00000000000 DQ 04077d00000000000r	; 381
CONST	ENDS
;	COMDAT __real@4072d00000000000
CONST	SEGMENT
__real@4072d00000000000 DQ 04072d00000000000r	; 301
CONST	ENDS
;	COMDAT __real@4028000000000000
CONST	SEGMENT
__real@4028000000000000 DQ 04028000000000000r	; 12
CONST	ENDS
;	COMDAT __real@4020000000000000
CONST	SEGMENT
__real@4020000000000000 DQ 04020000000000000r	; 8
CONST	ENDS
;	COMDAT __real@401c000000000000
CONST	SEGMENT
__real@401c000000000000 DQ 0401c000000000000r	; 7
CONST	ENDS
;	COMDAT __real@4018000000000000
CONST	SEGMENT
__real@4018000000000000 DQ 04018000000000000r	; 6
CONST	ENDS
;	COMDAT __real@4014000000000000
CONST	SEGMENT
__real@4014000000000000 DQ 04014000000000000r	; 5
CONST	ENDS
;	COMDAT __real@4010000000000000
CONST	SEGMENT
__real@4010000000000000 DQ 04010000000000000r	; 4
CONST	ENDS
;	COMDAT __real@4008000000000000
CONST	SEGMENT
__real@4008000000000000 DQ 04008000000000000r	; 3
CONST	ENDS
;	COMDAT __real@4000000000000000
CONST	SEGMENT
__real@4000000000000000 DQ 04000000000000000r	; 2
CONST	ENDS
;	COMDAT __real@3fe0000000000000
CONST	SEGMENT
__real@3fe0000000000000 DQ 03fe0000000000000r	; 0.5
CONST	ENDS
;	COMDAT __real@3f000000
CONST	SEGMENT
__real@3f000000 DD 03f000000r			; 0.5
CONST	ENDS
;	COMDAT __real@00000000
CONST	SEGMENT
__real@00000000 DD 000000000r			; 0
CONST	ENDS
;	COMDAT rtc$TMZ
rtc$TMZ	SEGMENT
__RTC_Shutdown.rtc$TMZ DD FLAT:__RTC_Shutdown
rtc$TMZ	ENDS
;	COMDAT rtc$IMZ
rtc$IMZ	SEGMENT
__RTC_InitBase.rtc$IMZ DD FLAT:__RTC_InitBase
rtc$IMZ	ENDS
;	COMDAT ??_C@_02PBOICDIO@C?$HM?$AA@
CONST	SEGMENT
??_C@_02PBOICDIO@C?$HM?$AA@ DB 'C|', 00H		; `string'
CONST	ENDS
;	COMDAT ??_C@_0BJ@NKJNALFN@?$LI?$OA?E?d?$LI?$KG?C?k?$LM?R?G?O?$LN?C?$LA?Z?$LN?$MA?$LE?O?$LB?n?$KD?$LP?$AA@
CONST	SEGMENT
??_C@_0BJ@NKJNALFN@?$LI?$OA?E?d?$LI?$KG?C?k?$LM?R?G?O?$LN?C?$LA?Z?$LN?$MA?$LE?O?$LB?n?$KD?$LP?$AA@ DB 0b8H
	DB	0e0H, 0c5H, 0e4H, 0b8H, 0a6H, 0c3H, 0ebH, 0bcH, 0d2H, 0c7H, 0cfH
	DB	0bdH, 0c3H, 0b0H, 0daH, 0bdH, 0c0H, 0b4H, 0cfH, 0b1H, 0eeH, 0a3H
	DB	0bfH, 00H					; `string'
CONST	ENDS
;	COMDAT ??_C@_0CF@CIJBHHMG@?$LI?$OA?E?d?$LI?$KG?C?k?$LM?R?G?O?$LI?i?$LI?E?$LH?B?$LA?$KB?D?$KB?$LA?$KB?$LA?$KI?$LM?R?G?U?$LE?O@
CONST	SEGMENT
??_C@_0CF@CIJBHHMG@?$LI?$OA?E?d?$LI?$KG?C?k?$LM?R?G?O?$LI?i?$LI?E?$LH?B?$LA?$KB?D?$KB?$LA?$KB?$LA?$KI?$LM?R?G?U?$LE?O@ DB 0b8H
	DB	0e0H, 0c5H, 0e4H, 0b8H, 0a6H, 0c3H, 0ebH, 0bcH, 0d2H, 0c7H, 0cfH
	DB	0b8H, 0e9H, 0b8H, 0c5H, 0b7H, 0c2H, 0b0H, 0a1H, 0c4H, 0a1H, 0b0H
	DB	0a1H, 0b0H, 0a8H, 0bcH, 0d2H, 0c7H, 0d5H, 0b4H, 0cfH, 0b4H, 0d9H
	DB	0a3H, 0acH, 00H				; `string'
CONST	ENDS
;	COMDAT ??_C@_0M@KOAEBMHD@?$LI?$OA?E?d?$MA?G?5?$LN?G?$LA?$NN?$AA@
CONST	SEGMENT
??_C@_0M@KOAEBMHD@?$LI?$OA?E?d?$MA?G?5?$LN?G?$LA?$NN?$AA@ DB 0b8H, 0e0H, 0c5H
	DB	0e4H, 0c0H, 0c7H, ' ', 0bdH, 0c7H, 0b0H, 0ddH, 00H ; `string'
CONST	ENDS
;	COMDAT ??_C@_06MOLOGMLJ@?A?$LO?5?5?$LH?a?$AA@
CONST	SEGMENT
??_C@_06MOLOGMLJ@?A?$LO?5?5?$LH?a?$AA@ DB 0c1H, 0beH, '  ', 0b7H, 0e1H, 00H ; `string'
CONST	ENDS
;	COMDAT ??_C@_04ELDJJCAA@?$LO?F?$LE?O?$AA@
CONST	SEGMENT
??_C@_04ELDJJCAA@?$LO?F?$LE?O?$AA@ DB 0beH, 0c6H, 0b4H, 0cfH, 00H ; `string'
CONST	ENDS
;	COMDAT ??_C@_06KFNAOAIJ@?$MA?$LK?G?O?$KD?$LK?$AA@
CONST	SEGMENT
??_C@_06KFNAOAIJ@?$MA?$LK?G?O?$KD?$LK?$AA@ DB 0c0H, 0baH, 0c7H, 0cfH, 0a3H
	DB	0baH, 00H					; `string'
CONST	ENDS
;	COMDAT ??_C@_07BMIEDOEC@Offline?$AA@
CONST	SEGMENT
??_C@_07BMIEDOEC@Offline?$AA@ DB 'Offline', 00H		; `string'
CONST	ENDS
;	COMDAT ??_C@_06KCABBADG@Online?$AA@
CONST	SEGMENT
??_C@_06KCABBADG@Online?$AA@ DB 'Online', 00H		; `string'
CONST	ENDS
;	COMDAT ??_C@_06OLECLEEB@?$LL?s?E?B?$KD?$LK?$AA@
CONST	SEGMENT
??_C@_06OLECLEEB@?$LL?s?E?B?$KD?$LK?$AA@ DB 0bbH, 0f3H, 0c5H, 0c2H, 0a3H, 0baH
	DB	00H						; `string'
CONST	ENDS
;	COMDAT ??_C@_0N@FGGIBINO@?$LI?$OA?E?d?$MA?L?$LI?$KH?$KD?$LK?$CFs?$AA@
CONST	SEGMENT
??_C@_0N@FGGIBINO@?$LI?$OA?E?d?$MA?L?$LI?$KH?$KD?$LK?$CFs?$AA@ DB 0b8H, 0e0H
	DB	0c5H, 0e4H, 0c0H, 0ccH, 0b8H, 0a7H, 0a3H, 0baH, '%s', 00H ; `string'
CONST	ENDS
;	COMDAT ??_C@_08OHAGCECG@?$LI?$OA?E?d?$LL?s?E?B?$AA@
CONST	SEGMENT
??_C@_08OHAGCECG@?$LI?$OA?E?d?$LL?s?E?B?$AA@ DB 0b8H, 0e0H, 0c5H, 0e4H, 0bbH
	DB	0f3H, 0c5H, 0c2H, 00H			; `string'
CONST	ENDS
;	COMDAT ??_C@_0BJ@HGNGOOJL@?$LI?$OA?E?d?$LH?N?5?$LE?$KJ?$LB?$LM?5?$LM?$LB?E?C?G?U?$LE?O?$LB?n?$KD?$LP?$AA@
CONST	SEGMENT
??_C@_0BJ@HGNGOOJL@?$LI?$OA?E?d?$LH?N?5?$LE?$KJ?$LB?$LM?5?$LM?$LB?E?C?G?U?$LE?O?$LB?n?$KD?$LP?$AA@ DB 0b8H
	DB	0e0H, 0c5H, 0e4H, 0b7H, 0ceH, ' ', 0b4H, 0a9H, 0b1H, 0bcH, ' ', 0bcH
	DB	0b1H, 0c5H, 0c3H, 0c7H, 0d5H, 0b4H, 0cfH, 0b1H, 0eeH, 0a3H, 0bfH
	DB	00H						; `string'
CONST	ENDS
;	COMDAT ??_C@_04PNIAPCPG@O?$HM?$CFd?$AA@
CONST	SEGMENT
??_C@_04PNIAPCPG@O?$HM?$CFd?$AA@ DB 'O|%d', 00H		; `string'
CONST	ENDS
;	COMDAT ??_C@_06PNFMGOAF@?C?k?5?5?$LM?R?$AA@
CONST	SEGMENT
??_C@_06PNFMGOAF@?C?k?5?5?$LM?R?$AA@ DB 0c3H, 0ebH, '  ', 0bcH, 0d2H, 00H ; `string'
CONST	ENDS
;	COMDAT ??_C@_06BLFCGNEJ@?H?$KO?5?5?$MA?N?$AA@
CONST	SEGMENT
??_C@_06BLFCGNEJ@?H?$KO?5?5?$MA?N?$AA@ DB 0c8H, 0aeH, '  ', 0c0H, 0ceH, 00H ; `string'
CONST	ENDS
;	COMDAT ??_C@_0BD@KCELJCBE@?$LI?$OA?E?d?$LA?$KB?$LF?G?$LO?n?$LK?$LI?$LM?$LM?$LP?d?$KD?$LP?$AA@
CONST	SEGMENT
??_C@_0BD@KCELJCBE@?$LI?$OA?E?d?$LA?$KB?$LF?G?$LO?n?$LK?$LI?$LM?$LM?$LP?d?$KD?$LP?$AA@ DB 0b8H
	DB	0e0H, 0c5H, 0e4H, 0b0H, 0a1H, 0b5H, 0c7H, 0beH, 0eeH, 0baH, 0b8H
	DB	0bcH, 0bcH, 0bfH, 0e4H, 0a3H, 0bfH, 00H	; `string'
CONST	ENDS
;	COMDAT ??_C@_0BK@GGAGFANJ@?$LE?g?$LN?E?$MA?$LK?$LN?D?$LK?$LA?G?R?$LM?v?$MA?V?$LN?$MA?$LE?O?$LB?n?5?$CFs?$AA@
CONST	SEGMENT
??_C@_0BK@GGAGFANJ@?$LE?g?$LN?E?$MA?$LK?$LN?D?$LK?$LA?G?R?$LM?v?$MA?V?$LN?$MA?$LE?O?$LB?n?5?$CFs?$AA@ DB 0b4H
	DB	0e7H, 0bdH, 0c5H, 0c0H, 0baH, 0bdH, 0c4H, 0baH, 0b0H, 0c7H, 0d2H
	DB	0bcH, 0f6H, 0c0H, 0d6H, 0bdH, 0c0H, 0b4H, 0cfH, 0b1H, 0eeH, ' '
	DB	'%s', 00H					; `string'
CONST	ENDS
;	COMDAT ??_C@_0L@MGMKLDIO@map?2?$CFd?4ani?$AA@
CONST	SEGMENT
??_C@_0L@MGMKLDIO@map?2?$CFd?4ani?$AA@ DB 'map\%d.ani', 00H ; `string'
CONST	ENDS
;	COMDAT ??_C@_0BL@EJEFDMMK@?E?$LO?$LN?B?$LJ?h?$LP?l?$LB?b?$MA?$KH?G?Q?$LF?$LP?$MA?G?$LM?$KN?$MA?$NL?$LM?$LK?$KB?$KD?$AA@
CONST	SEGMENT
??_C@_0BL@EJEFDMMK@?E?$LO?$LN?B?$LJ?h?$LP?l?$LB?b?$MA?$KH?G?Q?$LF?$LP?$MA?G?$LM?$KN?$MA?$NL?$LM?$LK?$KB?$KD?$AA@ DB 0c5H
	DB	0beH, 0bdH, 0c2H, 0b9H, 0e8H, 0bfH, 0ecH, 0b1H, 0e2H, 0c0H, 0a7H
	DB	0c7H, 0d1H, 0b5H, 0bfH, 0c0H, 0c7H, 0bcH, 0adH, 0c0H, 0dbH, 0bcH
	DB	0baH, 0a1H, 0a3H, 00H			; `string'
CONST	ENDS
;	COMDAT ??_C@_0BF@CGFLPMMC@?$LK?N?A?$LH?$LJ?f?$LJ?$KO?C?J?C?$LL?$MA?e?$MA?$NL?$LM?$LK?$KB?$KD?$AA@
CONST	SEGMENT
??_C@_0BF@CGFLPMMC@?$LK?N?A?$LH?$LJ?f?$LJ?$KO?C?J?C?$LL?$MA?e?$MA?$NL?$LM?$LK?$KB?$KD?$AA@ DB 0baH
	DB	0ceH, 0c1H, 0b7H, 0b9H, 0e6H, 0b9H, 0aeH, 0c3H, 0caH, 0c3H, 0bbH
	DB	0c0H, 0e5H, 0c0H, 0dbH, 0bcH, 0baH, 0a1H, 0a3H, 00H ; `string'
CONST	ENDS
;	COMDAT ??_C@_0BB@MGNAPNJL@?$LK?N?A?$LH?$LB?$LI?$LM?$LK?$LP?x?$LI?q?$LH?O?$KB?$KD?$AA@
CONST	SEGMENT
??_C@_0BB@MGNAPNJL@?$LK?N?A?$LH?$LB?$LI?$LM?$LK?$LP?x?$LI?q?$LH?O?$KB?$KD?$AA@ DB 0baH
	DB	0ceH, 0c1H, 0b7H, 0b1H, 0b8H, 0bcH, 0baH, 0bfH, 0f8H, 0b8H, 0f1H
	DB	0b7H, 0cfH, 0a1H, 0a3H, 00H			; `string'
CONST	ENDS
;	COMDAT ??_C@_0CD@LJIHMIMO@?A?$LH?$MA?e?$MA?$LK?5?$LK?N?A?$LH?$LP?x?$MA?$PM?C?$LM?$LP?$KB?$LA?T?5?$LA?x?A?v?G?U?$LE?O?$LE?Y@
CONST	SEGMENT
??_C@_0CD@LJIHMIMO@?A?$LH?$MA?e?$MA?$LK?5?$LK?N?A?$LH?$LP?x?$MA?$PM?C?$LM?$LP?$KB?$LA?T?5?$LA?x?A?v?G?U?$LE?O?$LE?Y@ DB 0c1H
	DB	0b7H, 0c0H, 0e5H, 0c0H, 0baH, ' ', 0baH, 0ceH, 0c1H, 0b7H, 0bfH
	DB	0f8H, 0c0H, 0fcH, 0c3H, 0bcH, 0bfH, 0a1H, 0b0H, 0d4H, ' ', 0b0H
	DB	0f8H, 0c1H, 0f6H, 0c7H, 0d5H, 0b4H, 0cfH, 0b4H, 0d9H, 0a1H, 0a3H
	DB	00H						; `string'
CONST	ENDS
;	COMDAT ??_C@_0BB@BPLOID@?5?5?A?$LH?$MA?e?$LB?G?G?Q?$LK?N?$LP?$KJ?5?5?$AA@
CONST	SEGMENT
??_C@_0BB@BPLOID@?5?5?A?$LH?$MA?e?$LB?G?G?Q?$LK?N?$LP?$KJ?5?5?$AA@ DB '  '
	DB	0c1H, 0b7H, 0c0H, 0e5H, 0b1H, 0c7H, 0c7H, 0d1H, 0baH, 0ceH, 0bfH
	DB	0a9H, '  ', 00H				; `string'
CONST	ENDS
;	COMDAT ??_C@_0L@MJPGOABE@?5?$LP?$KM?$LB?$LI?$LF?$LP?$MA?G?5?$AA@
CONST	SEGMENT
??_C@_0L@MJPGOABE@?5?$LP?$KM?$LB?$LI?$LF?$LP?$MA?G?5?$AA@ DB ' ', 0bfH, 0acH
	DB	0b1H, 0b8H, 0b5H, 0bfH, 0c0H, 0c7H, ' ', 00H	; `string'
CONST	ENDS
;	COMDAT ??_C@_0L@DOBBGKCH@?5?$LK?N?A?$LH?C?J?$LE?k?5?$AA@
CONST	SEGMENT
??_C@_0L@DOBBGKCH@?5?$LK?N?A?$LH?C?J?$LE?k?5?$AA@ DB ' ', 0baH, 0ceH, 0c1H
	DB	0b7H, 0c3H, 0caH, 0b4H, 0ebH, ' ', 00H	; `string'
CONST	ENDS
;	COMDAT ??_C@_0P@OGFFOIDE@?$LK?N?A?$LH?$LB?$LI?$LM?$LK?$LP?x?$LA?$PM?$LI?$KO?$AA@
CONST	SEGMENT
??_C@_0P@OGFFOIDE@?$LK?N?A?$LH?$LB?$LI?$LM?$LK?$LP?x?$LA?$PM?$LI?$KO?$AA@ DB 0baH
	DB	0ceH, 0c1H, 0b7H, 0b1H, 0b8H, 0bcH, 0baH, 0bfH, 0f8H, 0b0H, 0fcH
	DB	0b8H, 0aeH, 00H				; `string'
CONST	ENDS
;	COMDAT ??_C@_0N@NIGFCJOO@?5?5?A?$LH?$MA?e?$LJ?f?$LM?$NL?5?5?$AA@
CONST	SEGMENT
??_C@_0N@NIGFCJOO@?5?5?A?$LH?$MA?e?$LJ?f?$LM?$NL?5?5?$AA@ DB '  ', 0c1H, 0b7H
	DB	0c0H, 0e5H, 0b9H, 0e6H, 0bcH, 0dbH, '  ', 00H ; `string'
CONST	ENDS
;	COMDAT ??_C@_0L@CJCIOOAN@L?$HMCHANGE?$HML?$AA@
CONST	SEGMENT
??_C@_0L@CJCIOOAN@L?$HMCHANGE?$HML?$AA@ DB 'L|CHANGE|L', 00H ; `string'
CONST	ENDS
;	COMDAT ??_C@_05GLNMLLEF@L?$HML?$HM2?$AA@
CONST	SEGMENT
??_C@_05GLNMLLEF@L?$HML?$HM2?$AA@ DB 'L|L|2', 00H	; `string'
CONST	ENDS
;	COMDAT ??_C@_05EAPBOIIG@L?$HML?$HM1?$AA@
CONST	SEGMENT
??_C@_05EAPBOIIG@L?$HML?$HM1?$AA@ DB 'L|L|1', 00H	; `string'
CONST	ENDS
;	COMDAT ??_C@_05CPEMAIOC@L?$HMF?$HM1?$AA@
CONST	SEGMENT
??_C@_05CPEMAIOC@L?$HMF?$HM1?$AA@ DB 'L|F|1', 00H	; `string'
CONST	ENDS
;	COMDAT ??_C@_05PAKAMAIL@C?$HMJ?$HM5?$AA@
CONST	SEGMENT
??_C@_05PAKAMAIL@C?$HMJ?$HM5?$AA@ DB 'C|J|5', 00H	; `string'
CONST	ENDS
;	COMDAT ??_C@_0BJ@BJPJPJLI@?$MA?V?$LE?Y?5?$CFd?5?$MA?L?C?$KE?$LD?N?$MA?G?$LL?g?$LG?w?$LF?i?$KB?$KD?$AA@
CONST	SEGMENT
??_C@_0BJ@BJPJPJLI@?$MA?V?$LE?Y?5?$CFd?5?$MA?L?C?$KE?$LD?N?$MA?G?$LL?g?$LG?w?$LF?i?$KB?$KD?$AA@ DB 0c0H
	DB	0d6H, 0b4H, 0d9H, ' %d ', 0c0H, 0ccH, 0c3H, 0a4H, 0b3H, 0ceH, 0c0H
	DB	0c7H, 0bbH, 0e7H, 0b6H, 0f7H, 0b5H, 0e9H, 0a1H, 0a3H, 00H ; `string'
CONST	ENDS
;	COMDAT ??_C@_0BI@COJOKGGA@?G?v?$MA?g?5?$CFd?5?$MA?L?$LK?N?A?$LH?$MA?G?5?$LA?$KB?A?$LH?$KB?$KD?$AA@
CONST	SEGMENT
??_C@_0BI@COJOKGGA@?G?v?$MA?g?5?$CFd?5?$MA?L?$LK?N?A?$LH?$MA?G?5?$LA?$KB?A?$LH?$KB?$KD?$AA@ DB 0c7H
	DB	0f6H, 0c0H, 0e7H, ' %d ', 0c0H, 0ccH, 0baH, 0ceH, 0c1H, 0b7H, 0c0H
	DB	0c7H, ' ', 0b0H, 0a1H, 0c1H, 0b7H, 0a1H, 0a3H, 00H ; `string'
CONST	ENDS
;	COMDAT ??_C@_0BA@FLCLDJN@?$FL?5?C?$KE?5?$LD?N?5?H?$LI?5?$LP?x?5?$FN?$AA@
CONST	SEGMENT
??_C@_0BA@FLCLDJN@?$FL?5?C?$KE?5?$LD?N?5?H?$LI?5?$LP?x?5?$FN?$AA@ DB '[ ', 0c3H
	DB	0a4H, ' ', 0b3H, 0ceH, ' ', 0c8H, 0b8H, ' ', 0bfH, 0f8H, ' ]', 00H ; `string'
CONST	ENDS
;	COMDAT ??_C@_08CMINFIIP@?5?E?$LL?5?5?E?p?5?$AA@
CONST	SEGMENT
??_C@_08CMINFIIP@?5?E?$LL?5?5?E?p?5?$AA@ DB ' ', 0c5H, 0bbH, '  ', 0c5H, 0f0H
	DB	' ', 00H					; `string'
CONST	ENDS
;	COMDAT ??_C@_08JGHLAOEI@?5?B?$PM?5?5?$LA?$KB?5?$AA@
CONST	SEGMENT
??_C@_08JGHLAOEI@?5?B?$PM?5?5?$LA?$KB?5?$AA@ DB ' ', 0c2H, 0fcH, '  ', 0b0H
	DB	0a1H, ' ', 00H				; `string'
CONST	ENDS
;	COMDAT ??_C@_06GHCNPHLL@C?$HMJ?$HM?$CFd?$AA@
CONST	SEGMENT
??_C@_06GHCNPHLL@C?$HMJ?$HM?$CFd?$AA@ DB 'C|J|%d', 00H	; `string'
CONST	ENDS
;	COMDAT ??_C@_0L@EIKLEHBI@?$MA?L?C?$KC?$LE?$NN?$LB?b?$KB?$KD?$AA@
CONST	SEGMENT
??_C@_0L@EIKLEHBI@?$MA?L?C?$KC?$LE?$NN?$LB?b?$KB?$KD?$AA@ DB 0c0H, 0ccH, 0c3H
	DB	0a2H, 0b4H, 0ddH, 0b1H, 0e2H, 0a1H, 0a3H, 00H ; `string'
CONST	ENDS
;	COMDAT ??_C@_0P@CBBBPELI@?$MA?L?C?$KE?$LD?N?$LP?$KB?$LA?$KB?$MA?T?$KB?$KD?$AA@
CONST	SEGMENT
??_C@_0P@CBBBPELI@?$MA?L?C?$KE?$LD?N?$LP?$KB?$LA?$KB?$MA?T?$KB?$KD?$AA@ DB 0c0H
	DB	0ccH, 0c3H, 0a4H, 0b3H, 0ceH, 0bfH, 0a1H, 0b0H, 0a1H, 0c0H, 0d4H
	DB	0a1H, 0a3H, 00H				; `string'
CONST	ENDS
;	COMDAT ??_C@_0BJ@MOILBLMI@?C?$KE?F?C?C?$KE?$LD?N?$LI?$NO?$LE?$LK?$LP?$KB?$LM?$KN?$LD?$KK?$LA?$KB?$LB?b?$KB?$KD?$AA@
CONST	SEGMENT
??_C@_0BJ@MOILBLMI@?C?$KE?F?C?C?$KE?$LD?N?$LI?$NO?$LE?$LK?$LP?$KB?$LM?$KN?$LD?$KK?$LA?$KB?$LB?b?$KB?$KD?$AA@ DB 0c3H
	DB	0a4H, 0c6H, 0c3H, 0c3H, 0a4H, 0b3H, 0ceH, 0b8H, 0deH, 0b4H, 0baH
	DB	0bfH, 0a1H, 0bcH, 0adH, 0b3H, 0aaH, 0b0H, 0a1H, 0b1H, 0e2H, 0a1H
	DB	0a3H, 00H					; `string'
CONST	ENDS
;	COMDAT ??_C@_0BD@BKOBNADD@?A?$LH?$MA?e?$LJ?f?$LM?$NL?$LB?b?$LE?I?$LC?t?$LB?b?$KB?$KD?$AA@
CONST	SEGMENT
??_C@_0BD@BKOBNADD@?A?$LH?$MA?e?$LJ?f?$LM?$NL?$LB?b?$LE?I?$LC?t?$LB?b?$KB?$KD?$AA@ DB 0c1H
	DB	0b7H, 0c0H, 0e5H, 0b9H, 0e6H, 0bcH, 0dbH, 0b1H, 0e2H, 0b4H, 0c9H
	DB	0b2H, 0f4H, 0b1H, 0e2H, 0a1H, 0a3H, 00H	; `string'
CONST	ENDS
;	COMDAT ??_C@_0BF@EKJBMCBD@?$LK?N?A?$LH?$LA?T?$LN?C?F?G?$LB?b?$LE?I?$LL?g?$LP?k?$KB?$KD?$AA@
CONST	SEGMENT
??_C@_0BF@EKJBMCBD@?$LK?N?A?$LH?$LA?T?$LN?C?F?G?$LB?b?$LE?I?$LL?g?$LP?k?$KB?$KD?$AA@ DB 0baH
	DB	0ceH, 0c1H, 0b7H, 0b0H, 0d4H, 0bdH, 0c3H, 0c6H, 0c7H, 0b1H, 0e2H
	DB	0b4H, 0c9H, 0bbH, 0e7H, 0bfH, 0ebH, 0a1H, 0a3H, 00H ; `string'
CONST	ENDS
;	COMDAT ??_C@_0BF@MBHIEFGB@?C?$OA?$LK?$LJ?$LL?g?$MA?G?F?$KP?$LK?$LA?G?Q?$LB?b?$LE?I?$KB?$KD?$AA@
CONST	SEGMENT
??_C@_0BF@MBHIEFGB@?C?$OA?$LK?$LJ?$LL?g?$MA?G?F?$KP?$LK?$LA?G?Q?$LB?b?$LE?I?$KB?$KD?$AA@ DB 0c3H
	DB	0e0H, 0baH, 0b9H, 0bbH, 0e7H, 0c0H, 0c7H, 0c6H, 0afH, 0baH, 0b0H
	DB	0c7H, 0d1H, 0b1H, 0e2H, 0b4H, 0c9H, 0a1H, 0a3H, 00H ; `string'
CONST	ENDS
;	COMDAT ??_C@_0BD@CBGDDGMA@?$LA?$KB?A?$LH?$LM?$LM?$LK?N?A?$KE?$LK?$LI?$LK?$LI?$LB?b?$KB?$KD?$AA@
CONST	SEGMENT
??_C@_0BD@CBGDDGMA@?$LA?$KB?A?$LH?$LM?$LM?$LK?N?A?$KE?$LK?$LI?$LK?$LI?$LB?b?$KB?$KD?$AA@ DB 0b0H
	DB	0a1H, 0c1H, 0b7H, 0bcH, 0bcH, 0baH, 0ceH, 0c1H, 0a4H, 0baH, 0b8H
	DB	0baH, 0b8H, 0b1H, 0e2H, 0a1H, 0a3H, 00H	; `string'
CONST	ENDS
;	COMDAT ??_C@_01CLKCMJKC@?5?$AA@
CONST	SEGMENT
??_C@_01CLKCMJKC@?5?$AA@ DB ' ', 00H			; `string'
CONST	ENDS
;	COMDAT ??_C@_06JEJPCC@S?$HMSELF?$AA@
CONST	SEGMENT
??_C@_06JEJPCC@S?$HMSELF?$AA@ DB 'S|SELF', 00H		; `string'
CONST	ENDS
;	COMDAT ??_C@_06KOPCAPBC@C?$HMJ?$HM?91?$AA@
CONST	SEGMENT
??_C@_06KOPCAPBC@C?$HMJ?$HM?91?$AA@ DB 'C|J|-1', 00H	; `string'
CONST	ENDS
;	COMDAT ??_C@_01CKDDGHAB@D?$AA@
CONST	SEGMENT
??_C@_01CKDDGHAB@D?$AA@ DB 'D', 00H			; `string'
CONST	ENDS
;	COMDAT ??_C@_04PNGENDLA@S?$HMD2?$AA@
CONST	SEGMENT
??_C@_04PNGENDLA@S?$HMD2?$AA@ DB 'S|D2', 00H		; `string'
CONST	ENDS
;	COMDAT ??_C@_04IJNKKJEO@?H?$KO?$MA?N?$AA@
CONST	SEGMENT
??_C@_04IJNKKJEO@?H?$KO?$MA?N?$AA@ DB 0c8H, 0aeH, 0c0H, 0ceH, 00H ; `string'
CONST	ENDS
;	COMDAT ??_C@_0BD@KHIHNLHO@?$LF?$LJ?$LO?F?$LA?$KB?$LN?C?$LA?Z?$LN?$MA?$LE?O?$LB?n?$KD?$LP?$AA@
CONST	SEGMENT
??_C@_0BD@KHIHNLHO@?$LF?$LJ?$LO?F?$LA?$KB?$LN?C?$LA?Z?$LN?$MA?$LE?O?$LB?n?$KD?$LP?$AA@ DB 0b5H
	DB	0b9H, 0beH, 0c6H, 0b0H, 0a1H, 0bdH, 0c3H, 0b0H, 0daH, 0bdH, 0c0H
	DB	0b4H, 0cfH, 0b1H, 0eeH, 0a3H, 0bfH, 00H	; `string'
CONST	ENDS
;	COMDAT ??_C@_0CA@MLBEKKLD@?$LM?$KN?$LJ?v?$LP?M?$MA?G?5?$LP?$KM?$LA?a?$MA?L?5?A?$LO?$LH?a?$LF?G?$LO?z?$LN?$MA?$LE?O?$LE?Y?4?$AA@
CONST	SEGMENT
??_C@_0CA@MLBEKKLD@?$LM?$KN?$LJ?v?$LP?M?$MA?G?5?$LP?$KM?$LA?a?$MA?L?5?A?$LO?$LH?a?$LF?G?$LO?z?$LN?$MA?$LE?O?$LE?Y?4?$AA@ DB 0bcH
	DB	0adH, 0b9H, 0f6H, 0bfH, 0cdH, 0c0H, 0c7H, ' ', 0bfH, 0acH, 0b0H
	DB	0e1H, 0c0H, 0ccH, ' ', 0c1H, 0beH, 0b7H, 0e1H, 0b5H, 0c7H, 0beH
	DB	0faH, 0bdH, 0c0H, 0b4H, 0cfH, 0b4H, 0d9H, '.', 00H ; `string'
CONST	ENDS
;	COMDAT ??_C@_04HDOCAJNK@?$CFs?$CFs?$AA@
CONST	SEGMENT
??_C@_04HDOCAJNK@?$CFs?$CFs?$AA@ DB '%s%s', 00H		; `string'
CONST	ENDS
;	COMDAT ??_C@_0L@KHKHJBNB@1024?5x?5768?$AA@
CONST	SEGMENT
??_C@_0L@KHKHJBNB@1024?5x?5768?$AA@ DB '1024 x 768', 00H ; `string'
CONST	ENDS
;	COMDAT ??_C@_0L@FFMHNIN@?5800?5x?5600?$AA@
CONST	SEGMENT
??_C@_0L@FFMHNIN@?5800?5x?5600?$AA@ DB ' 800 x 600', 00H ; `string'
CONST	ENDS
;	COMDAT ??_C@_0L@FCDLGIBD@?5320?5x?5280?$AA@
CONST	SEGMENT
??_C@_0L@FCDLGIBD@?5320?5x?5280?$AA@ DB ' 320 x 280', 00H ; `string'
CONST	ENDS
;	COMDAT ??_C@_0L@OCGDIFAB@?5640?5x?5480?$AA@
CONST	SEGMENT
??_C@_0L@OCGDIFAB@?5640?5x?5480?$AA@ DB ' 640 x 480', 00H ; `string'
CONST	ENDS
;	COMDAT ??_C@_0N@NBGJJJHP@?$LI?$NO?$LE?$LK?C?$KC?$LE?$NN?$LB?b?$KB?$KD?$AA@
CONST	SEGMENT
??_C@_0N@NBGJJJHP@?$LI?$NO?$LE?$LK?C?$KC?$LE?$NN?$LB?b?$KB?$KD?$AA@ DB 0b8H
	DB	0deH, 0b4H, 0baH, 0c3H, 0a2H, 0b4H, 0ddH, 0b1H, 0e2H, 0a1H, 0a3H
	DB	00H						; `string'
CONST	ENDS
;	COMDAT ??_C@_0CF@MCKEAICK@?$LD?k?A?$KB?$LP?$KB?$LM?$KN?$LA?E?$LH?$KB?$LP?$KN?$LM?v?$LO?x?$MA?$LN?$KB?$KC?F?D?F?$LM?$LJ?W?$MA?$PM?E?u@
CONST	SEGMENT
??_C@_0CF@MCKEAICK@?$LD?k?A?$KB?$LP?$KB?$LM?$KN?$LA?E?$LH?$KB?$LP?$KN?$LM?v?$LO?x?$MA?$LN?$KB?$KC?F?D?F?$LM?$LJ?W?$MA?$PM?E?u@ DB 0b3H
	DB	0ebH, 0c1H, 0a1H, 0bfH, 0a1H, 0bcH, 0adH, 0b0H, 0c5H, 0b7H, 0a1H
	DB	0bfH, 0adH, 0bcH, 0f6H, 0beH, 0f8H, 0c0H, 0bdH, 0a1H, 0a2H, 0c6H
	DB	0c4H, 0c6H, 0bcH, 0b9H, 0d7H, 0c0H, 0fcH, 0c5H, 0f5H, 0b1H, 0e2H
	DB	0b4H, 0c9H, 00H				; `string'
CONST	ENDS
;	COMDAT ??_C@_0BI@JGAFKJCL@?$LI?$NO?$LE?$LK?5?$LM?$LD?A?$KE?C?$KC?$MA?$LL?5?$LE?$NN?$LN?$MA?$LE?O?$LE?Y?4?$AA@
CONST	SEGMENT
??_C@_0BI@JGAFKJCL@?$LI?$NO?$LE?$LK?5?$LM?$LD?A?$KE?C?$KC?$MA?$LL?5?$LE?$NN?$LN?$MA?$LE?O?$LE?Y?4?$AA@ DB 0b8H
	DB	0deH, 0b4H, 0baH, ' ', 0bcH, 0b3H, 0c1H, 0a4H, 0c3H, 0a2H, 0c0H
	DB	0bbH, ' ', 0b4H, 0ddH, 0bdH, 0c0H, 0b4H, 0cfH, 0b4H, 0d9H, '.', 00H ; `string'
CONST	ENDS
;	COMDAT ??_C@_0BJ@DLFHHIDJ@?C?$KE?$LD?N?5?$LM?$LD?A?$KE?5?F?D?$MA?O?5?$MA?P?$LB?b?5?$LN?G?F?P?$AA@
CONST	SEGMENT
??_C@_0BJ@DLFHHIDJ@?C?$KE?$LD?N?5?$LM?$LD?A?$KE?5?F?D?$MA?O?5?$MA?P?$LB?b?5?$LN?G?F?P?$AA@ DB 0c3H
	DB	0a4H, 0b3H, 0ceH, ' ', 0bcH, 0b3H, 0c1H, 0a4H, ' ', 0c6H, 0c4H
	DB	0c0H, 0cfH, ' ', 0c0H, 0d0H, 0b1H, 0e2H, ' ', 0bdH, 0c7H, 0c6H
	DB	0d0H, 00H					; `string'
CONST	ENDS
;	COMDAT ??_C@_0BB@BLGDDDEM@data?2channel?4dat?$AA@
CONST	SEGMENT
??_C@_0BB@BLGDDDEM@data?2channel?4dat?$AA@ DB 'data\channel.dat', 00H ; `string'
CONST	ENDS
;	COMDAT ??_C@_02CHHAKFFB@w?$CL?$AA@
CONST	SEGMENT
??_C@_02CHHAKFFB@w?$CL?$AA@ DB 'w+', 00H		; `string'
CONST	ENDS
;	COMDAT ??_C@_0BD@JIKBMICG@?$LA?m?$LP?k?$LF?G?A?v?$LO?J?$LO?R?$LN?$MA?$LE?O?$LE?Y?$AA@
CONST	SEGMENT
??_C@_0BD@JIKBMICG@?$LA?m?$LP?k?$LF?G?A?v?$LO?J?$LO?R?$LN?$MA?$LE?O?$LE?Y?$AA@ DB 0b0H
	DB	0edH, 0bfH, 0ebH, 0b5H, 0c7H, 0c1H, 0f6H, 0beH, 0caH, 0beH, 0d2H
	DB	0bdH, 0c0H, 0b4H, 0cfH, 0b4H, 0d9H, 00H	; `string'
CONST	ENDS
;	COMDAT ??_C@_0BJ@BCJNPCLP@?$LA?$KB?A?$LH?$LP?$KB?$LA?$KB?$MA?T?G?O?A?v?$LO?J?$LO?R?$LN?$MA?$LE?O?$LE?Y?$AA@
CONST	SEGMENT
??_C@_0BJ@BCJNPCLP@?$LA?$KB?A?$LH?$LP?$KB?$LA?$KB?$MA?T?G?O?A?v?$LO?J?$LO?R?$LN?$MA?$LE?O?$LE?Y?$AA@ DB 0b0H
	DB	0a1H, 0c1H, 0b7H, 0bfH, 0a1H, 0b0H, 0a1H, 0c0H, 0d4H, 0c7H, 0cfH
	DB	0c1H, 0f6H, 0beH, 0caH, 0beH, 0d2H, 0bdH, 0c0H, 0b4H, 0cfH, 0b4H
	DB	0d9H, 00H					; `string'
CONST	ENDS
;	COMDAT ??_C@_08DKNMBPNK@?$LE?k?H?$KN?$MA?z?$MA?e?$AA@
CONST	SEGMENT
??_C@_08DKNMBPNK@?$LE?k?H?$KN?$MA?z?$MA?e?$AA@ DB 0b4H, 0ebH, 0c8H, 0adH, 0c0H
	DB	0faH, 0c0H, 0e5H, 00H			; `string'
CONST	ENDS
;	COMDAT ??_C@_08LIEPCPDK@?$LA?f?$LI?E?C?$KE?$LD?N?$AA@
CONST	SEGMENT
??_C@_08LIEPCPDK@?$LA?f?$LI?E?C?$KE?$LD?N?$AA@ DB 0b0H, 0e6H, 0b8H, 0c5H, 0c3H
	DB	0a4H, 0b3H, 0ceH, 00H			; `string'
CONST	ENDS
;	COMDAT ??_C@_06IAKMCPJ@?$LA?$KB?A?$LH?$LI?$LL?$AA@
CONST	SEGMENT
??_C@_06IAKMCPJ@?$LA?$KB?A?$LH?$LI?$LL?$AA@ DB 0b0H, 0a1H, 0c1H, 0b7H, 0b8H
	DB	0bbH, 00H					; `string'
CONST	ENDS
;	COMDAT ??_C@_06FNJBCBKN@?$LB?S?$LM?S?$LI?$LL?$AA@
CONST	SEGMENT
??_C@_06FNJBCBKN@?$LB?S?$LM?S?$LI?$LL?$AA@ DB 0b1H, 0d3H, 0bcH, 0d3H, 0b8H
	DB	0bbH, 00H					; `string'
CONST	ENDS
;	COMDAT ??_C@_0BL@JJOLNGNO@?$LA?T?$MA?S?$MA?N?E?M?F?d?$MA?L?$LN?$LK?G?X?$LL?s?$LF?$LF?$LM?$LD?A?$KE?$KB?$KD?$AA@
CONST	SEGMENT
??_C@_0BL@JJOLNGNO@?$LA?T?$MA?S?$MA?N?E?M?F?d?$MA?L?$LN?$LK?G?X?$LL?s?$LF?$LF?$LM?$LD?A?$KE?$KB?$KD?$AA@ DB 0b0H
	DB	0d4H, 0c0H, 0d3H, 0c0H, 0ceH, 0c5H, 0cdH, 0c6H, 0e4H, 0c0H, 0ccH
	DB	0bdH, 0baH, 0c7H, 0d8H, 0bbH, 0f3H, 0b5H, 0b5H, 0bcH, 0b3H, 0c1H
	DB	0a4H, 0a1H, 0a3H, 00H			; `string'
CONST	ENDS
;	COMDAT ??_C@_0BD@DBDDAFOG@?$LA?E?$LH?$KB?$LM?v?$LG?t?$LP?$KJ?$LK?N?$LM?$LD?A?$KE?$KB?$KD?$AA@
CONST	SEGMENT
??_C@_0BD@DBDDAFOG@?$LA?E?$LH?$KB?$LM?v?$LG?t?$LP?$KJ?$LK?N?$LM?$LD?A?$KE?$KB?$KD?$AA@ DB 0b0H
	DB	0c5H, 0b7H, 0a1H, 0bcH, 0f6H, 0b6H, 0f4H, 0bfH, 0a9H, 0baH, 0ceH
	DB	0bcH, 0b3H, 0c1H, 0a4H, 0a1H, 0a3H, 00H	; `string'
CONST	ENDS
;	COMDAT ??_C@_0BF@NLHMJPHG@?$LA?$KC?C?$KE?$LD?N?$LM?$LD?A?$KE?$LG?G?$LE?B?G?X?A?$KG?$KB?$KD?$AA@
CONST	SEGMENT
??_C@_0BF@NLHMJPHG@?$LA?$KC?C?$KE?$LD?N?$LM?$LD?A?$KE?$LG?G?$LE?B?G?X?A?$KG?$KB?$KD?$AA@ DB 0b0H
	DB	0a2H, 0c3H, 0a4H, 0b3H, 0ceH, 0bcH, 0b3H, 0c1H, 0a4H, 0b6H, 0c7H
	DB	0b4H, 0c2H, 0c7H, 0d8H, 0c1H, 0a6H, 0a1H, 0a3H, 00H ; `string'
CONST	ENDS
;	COMDAT ??_C@_0BH@GAKCDBLG@?$LI?m?G?T?$LB?$LD?H?$KP?G?c?$LP?k?$LP?$KJ?$LK?N?$LM?$LD?A?$KE?$KB?$KD?$AA@
CONST	SEGMENT
??_C@_0BH@GAKCDBLG@?$LI?m?G?T?$LB?$LD?H?$KP?G?c?$LP?k?$LP?$KJ?$LK?N?$LM?$LD?A?$KE?$KB?$KD?$AA@ DB 0b8H
	DB	0edH, 0c7H, 0d4H, 0b1H, 0b3H, 0c8H, 0afH, 0c7H, 0e3H, 0bfH, 0ebH
	DB	0bfH, 0a9H, 0baH, 0ceH, 0bcH, 0b3H, 0c1H, 0a4H, 0a1H, 0a3H, 00H ; `string'
CONST	ENDS
;	COMDAT ??_C@_0BJ@EJIPNKEA@?$LE?Y?$LI?$KF?$LL?g?$LG?w?$LF?$LF?$MA?$PM?$LJ?$NO?$MA?$LL?A?v?$LM?$LD?A?$KE?$KB?$KD?$AA@
CONST	SEGMENT
??_C@_0BJ@EJIPNKEA@?$LE?Y?$LI?$KF?$LL?g?$LG?w?$LF?$LF?$MA?$PM?$LJ?$NO?$MA?$LL?A?v?$LM?$LD?A?$KE?$KB?$KD?$AA@ DB 0b4H
	DB	0d9H, 0b8H, 0a5H, 0bbH, 0e7H, 0b6H, 0f7H, 0b5H, 0b5H, 0c0H, 0fcH
	DB	0b9H, 0deH, 0c0H, 0bbH, 0c1H, 0f6H, 0bcH, 0b3H, 0c1H, 0a4H, 0a1H
	DB	0a3H, 00H					; `string'
CONST	ENDS
;	COMDAT ??_C@_0BJ@NPLNHFNN@?$LE?Y?$LI?$KF?$LL?g?$LG?w?F?$MA?G?U?$LH?y?$LP?$KJ?$LK?N?$LM?$LD?A?$KE?$KB?$KD?$AA@
CONST	SEGMENT
??_C@_0BJ@NPLNHFNN@?$LE?Y?$LI?$KF?$LL?g?$LG?w?F?$MA?G?U?$LH?y?$LP?$KJ?$LK?N?$LM?$LD?A?$KE?$KB?$KD?$AA@ DB 0b4H
	DB	0d9H, 0b8H, 0a5H, 0bbH, 0e7H, 0b6H, 0f7H, 0c6H, 0c0H, 0c7H, 0d5H
	DB	0b7H, 0f9H, 0bfH, 0a9H, 0baH, 0ceH, 0bcH, 0b3H, 0c1H, 0a4H, 0a1H
	DB	0a3H, 00H					; `string'
CONST	ENDS
;	COMDAT ??_C@_07CHOGEIED@?5?$KD?Y?$KD?E?$KD?S?$AA@
CONST	SEGMENT
??_C@_07CHOGEIED@?5?$KD?Y?$KD?E?$KD?S?$AA@ DB ' ', 0a3H, 0d9H, 0a3H, 0c5H
	DB	0a3H, 0d3H, 00H				; `string'
CONST	ENDS
;	COMDAT ??_C@_07MIKFFMHF@?5?$KD?N?5?5?$KD?O?$AA@
CONST	SEGMENT
??_C@_07MIKFFMHF@?5?$KD?N?5?5?$KD?O?$AA@ DB ' ', 0a3H, 0ceH, '  ', 0a3H, 0cfH
	DB	00H						; `string'
CONST	ENDS
;	COMDAT ??_C@_0L@DMOEEJLK@?G?X?5?$LL?s?5?$LF?$LF?$KD?$LK?$AA@
CONST	SEGMENT
??_C@_0L@DMOEEJLK@?G?X?5?$LL?s?5?$LF?$LF?$KD?$LK?$AA@ DB 0c7H, 0d8H, ' ', 0bbH
	DB	0f3H, ' ', 0b5H, 0b5H, 0a3H, 0baH, 00H	; `string'
CONST	ENDS
;	COMDAT ??_C@_0L@HENHCGEF@?$LA?E?5?5?5?5?$LH?$KB?$KD?$LK?$AA@
CONST	SEGMENT
??_C@_0L@HENHCGEF@?$LA?E?5?5?5?5?$LH?$KB?$KD?$LK?$AA@ DB 0b0H, 0c5H, '   '
	DB	' ', 0b7H, 0a1H, 0a3H, 0baH, 00H		; `string'
CONST	ENDS
;	COMDAT ??_C@_0BF@IDENONED@?C?$KE?5?5?5?5?$LD?N?5?5?5?5?$LJ?v?5?5?5?5?F?$LA?$AA@
CONST	SEGMENT
??_C@_0BF@IDENONED@?C?$KE?5?5?5?5?$LD?N?5?5?5?5?$LJ?v?5?5?5?5?F?$LA?$AA@ DB 0c3H
	DB	0a4H, '    ', 0b3H, 0ceH, '    ', 0b9H, 0f6H, '    ', 0c6H, 0b0H
	DB	00H						; `string'
CONST	ENDS
;	COMDAT ??_C@_0L@POPIGLPO@?$LI?m?G?T?$LB?$LD?H?$KP?$KD?$LK?$AA@
CONST	SEGMENT
??_C@_0L@POPIGLPO@?$LI?m?G?T?$LB?$LD?H?$KP?$KD?$LK?$AA@ DB 0b8H, 0edH, 0c7H
	DB	0d4H, 0b1H, 0b3H, 0c8H, 0afH, 0a3H, 0baH, 00H ; `string'
CONST	ENDS
;	COMDAT ??_C@_0L@MAOAOHML@?$LF?$OA?5?5?5?5?$LO?s?$KD?$LK?$AA@
CONST	SEGMENT
??_C@_0L@MAOAOHML@?$LF?$OA?5?5?5?5?$LO?s?$KD?$LK?$AA@ DB 0b5H, 0e0H, '   '
	DB	' ', 0beH, 0f3H, 0a3H, 0baH, 00H		; `string'
CONST	ENDS
;	COMDAT ??_C@_0L@OLEDJDPG@?F?D?5?5?5?5?F?$LM?$KD?$LK?$AA@
CONST	SEGMENT
??_C@_0L@OLEDJDPG@?F?D?5?5?5?5?F?$LM?$KD?$LK?$AA@ DB 0c6H, 0c4H, '    ', 0c6H
	DB	0bcH, 0a3H, 0baH, 00H			; `string'
CONST	ENDS
;	COMDAT ??_C@_0L@NHKEOPKL@?$MA?$NL?$LO?w?C?$KC?$LE?$NN?$LB?b?$AA@
CONST	SEGMENT
??_C@_0L@NHKEOPKL@?$MA?$NL?$LO?w?C?$KC?$LE?$NN?$LB?b?$AA@ DB 0c0H, 0dbH, 0beH
	DB	0f7H, 0c3H, 0a2H, 0b4H, 0ddH, 0b1H, 0e2H, 00H ; `string'
CONST	ENDS
;	COMDAT ??_C@_0CB@DPEEFHJC@?$LE?x?A?v?$LE?B?5?$LO?W?$LM?G?$MA?$LL?5?C?k?G?U?$LE?O?$LE?Y?4?5?$CICtrl?$CL?2?$CJ@
CONST	SEGMENT
??_C@_0CB@DPEEFHJC@?$LE?x?A?v?$LE?B?5?$LO?W?$LM?G?$MA?$LL?5?C?k?G?U?$LE?O?$LE?Y?4?5?$CICtrl?$CL?2?$CJ@ DB 0b4H
	DB	0f8H, 0c1H, 0f6H, 0b4H, 0c2H, ' ', 0beH, 0d7H, 0bcH, 0c7H, 0c0H
	DB	0bbH, ' ', 0c3H, 0ebH, 0c7H, 0d5H, 0b4H, 0cfH, 0b4H, 0d9H, '. '
	DB	'(Ctrl+\)', 00H				; `string'
CONST	ENDS
;	COMDAT ??_C@_0CG@FILFJCML@?E?$LI?$LA?$NN?$MA?$LL?5?$MA?T?$LE?B?5?$LO?W?$LM?G?$MA?$LL?5?C?k?G?U?$LE?O?$LE?Y?4?5?$CICt@
CONST	SEGMENT
??_C@_0CG@FILFJCML@?E?$LI?$LA?$NN?$MA?$LL?5?$MA?T?$LE?B?5?$LO?W?$LM?G?$MA?$LL?5?C?k?G?U?$LE?O?$LE?Y?4?5?$CICt@ DB 0c5H
	DB	0b8H, 0b0H, 0ddH, 0c0H, 0bbH, ' ', 0c0H, 0d4H, 0b4H, 0c2H, ' ', 0beH
	DB	0d7H, 0bcH, 0c7H, 0c0H, 0bbH, ' ', 0c3H, 0ebH, 0c7H, 0d5H, 0b4H
	DB	0cfH, 0b4H, 0d9H, '. (Ctrl+=)', 00H		; `string'
CONST	ENDS
;	COMDAT ??_C@_0CD@NKKFDBOL@?$LN?$LN?F?$NL?G?O?$LE?B?5?$LO?W?$LM?G?$MA?$LL?5?C?k?G?U?$LE?O?$LE?Y?4?5?$CICtrl?$CL@
CONST	SEGMENT
??_C@_0CD@NKKFDBOL@?$LN?$LN?F?$NL?G?O?$LE?B?5?$LO?W?$LM?G?$MA?$LL?5?C?k?G?U?$LE?O?$LE?Y?4?5?$CICtrl?$CL@ DB 0bdH
	DB	0bdH, 0c6H, 0dbH, 0c7H, 0cfH, 0b4H, 0c2H, ' ', 0beH, 0d7H, 0bcH
	DB	0c7H, 0c0H, 0bbH, ' ', 0c3H, 0ebH, 0c7H, 0d5H, 0b4H, 0cfH, 0b4H
	DB	0d9H, '. (Ctrl+6)', 00H			; `string'
CONST	ENDS
;	COMDAT ??_C@_0CD@MIHLAAOD@?$LJ?f?$LO?n?G?O?$LE?B?5?$LO?W?$LM?G?$MA?$LL?5?C?k?G?U?$LE?O?$LE?Y?4?5?$CICtrl?$CL@
CONST	SEGMENT
??_C@_0CD@MIHLAAOD@?$LJ?f?$LO?n?G?O?$LE?B?5?$LO?W?$LM?G?$MA?$LL?5?C?k?G?U?$LE?O?$LE?Y?4?5?$CICtrl?$CL@ DB 0b9H
	DB	0e6H, 0beH, 0eeH, 0c7H, 0cfH, 0b4H, 0c2H, ' ', 0beH, 0d7H, 0bcH
	DB	0c7H, 0c0H, 0bbH, ' ', 0c3H, 0ebH, 0c7H, 0d5H, 0b4H, 0cfH, 0b4H
	DB	0d9H, '. (Ctrl+-)', 00H			; `string'
CONST	ENDS
;	COMDAT ??_C@_0CE@OIDAHAAG@?H?$KN?$LI?$KG?5?$LD?$LL?$LE?B?5?$LO?W?$LM?G?$MA?$LL?5?C?k?G?U?$LE?O?$LE?Y?4?5?$CICtrl@
CONST	SEGMENT
??_C@_0CE@OIDAHAAG@?H?$KN?$LI?$KG?5?$LD?$LL?$LE?B?5?$LO?W?$LM?G?$MA?$LL?5?C?k?G?U?$LE?O?$LE?Y?4?5?$CICtrl@ DB 0c8H
	DB	0adH, 0b8H, 0a6H, ' ', 0b3H, 0bbH, 0b4H, 0c2H, ' ', 0beH, 0d7H
	DB	0bcH, 0c7H, 0c0H, 0bbH, ' ', 0c3H, 0ebH, 0c7H, 0d5H, 0b4H, 0cfH
	DB	0b4H, 0d9H, '. (Ctrl+5)', 00H		; `string'
CONST	ENDS
;	COMDAT ??_C@_0CD@OMLIKOJM@?$LA?x?$LA?$NN?G?O?$LE?B?5?$LO?W?$LM?G?$MA?$LL?5?C?k?G?U?$LE?O?$LE?Y?4?5?$CICtrl?$CL@
CONST	SEGMENT
??_C@_0CD@OMLIKOJM@?$LA?x?$LA?$NN?G?O?$LE?B?5?$LO?W?$LM?G?$MA?$LL?5?C?k?G?U?$LE?O?$LE?Y?4?5?$CICtrl?$CL@ DB 0b0H
	DB	0f8H, 0b0H, 0ddH, 0c7H, 0cfH, 0b4H, 0c2H, ' ', 0beH, 0d7H, 0bcH
	DB	0c7H, 0c0H, 0bbH, ' ', 0c3H, 0ebH, 0c7H, 0d5H, 0b4H, 0cfH, 0b4H
	DB	0d9H, '. (Ctrl+0)', 00H			; `string'
CONST	ENDS
;	COMDAT ??_C@_0CD@CMMPEHFI@?$LB?b?$LL?$LF?G?O?$LE?B?5?$LO?W?$LM?G?$MA?$LL?5?C?k?G?U?$LE?O?$LE?Y?4?5?$CICtrl?$CL@
CONST	SEGMENT
??_C@_0CD@CMMPEHFI@?$LB?b?$LL?$LF?G?O?$LE?B?5?$LO?W?$LM?G?$MA?$LL?5?C?k?G?U?$LE?O?$LE?Y?4?5?$CICtrl?$CL@ DB 0b1H
	DB	0e2H, 0bbH, 0b5H, 0c7H, 0cfH, 0b4H, 0c2H, ' ', 0beH, 0d7H, 0bcH
	DB	0c7H, 0c0H, 0bbH, ' ', 0c3H, 0ebH, 0c7H, 0d5H, 0b4H, 0cfH, 0b4H
	DB	0d9H, '. (Ctrl+4)', 00H			; `string'
CONST	ENDS
;	COMDAT ??_C@_0CD@JMKADJMO@?$LO?$LC?$LH?$KP?A?v?$LE?B?5?$LO?W?$LM?G?$MA?$LL?5?C?k?G?U?$LE?O?$LE?Y?4?5?$CICtrl?$CL@
CONST	SEGMENT
??_C@_0CD@JMKADJMO@?$LO?$LC?$LH?$KP?A?v?$LE?B?5?$LO?W?$LM?G?$MA?$LL?5?C?k?G?U?$LE?O?$LE?Y?4?5?$CICtrl?$CL@ DB 0beH
	DB	0b2H, 0b7H, 0afH, 0c1H, 0f6H, 0b4H, 0c2H, ' ', 0beH, 0d7H, 0bcH
	DB	0c7H, 0c0H, 0bbH, ' ', 0c3H, 0ebH, 0c7H, 0d5H, 0b4H, 0cfH, 0b4H
	DB	0d9H, '. (Ctrl+9)', 00H			; `string'
CONST	ENDS
;	COMDAT ??_C@_0CD@KEHHLNJC@?$MA?N?$LL?g?G?O?$LE?B?5?$LO?W?$LM?G?$MA?$LL?5?C?k?G?U?$LE?O?$LE?Y?4?5?$CICtrl?$CL@
CONST	SEGMENT
??_C@_0CD@KEHHLNJC@?$MA?N?$LL?g?G?O?$LE?B?5?$LO?W?$LM?G?$MA?$LL?5?C?k?G?U?$LE?O?$LE?Y?4?5?$CICtrl?$CL@ DB 0c0H
	DB	0ceH, 0bbH, 0e7H, 0c7H, 0cfH, 0b4H, 0c2H, ' ', 0beH, 0d7H, 0bcH
	DB	0c7H, 0c0H, 0bbH, ' ', 0c3H, 0ebH, 0c7H, 0d5H, 0b4H, 0cfH, 0b4H
	DB	0d9H, '. (Ctrl+3)', 00H			; `string'
CONST	ENDS
;	COMDAT ??_C@_0BP@OCLIPLAL@?$LA?H?$LE?B?5?$LO?W?$LM?G?$MA?$LL?5?C?k?G?U?$LE?O?$LE?Y?4?5?$CICtrl?$CL8?$CJ?$AA@
CONST	SEGMENT
??_C@_0BP@OCLIPLAL@?$LA?H?$LE?B?5?$LO?W?$LM?G?$MA?$LL?5?C?k?G?U?$LE?O?$LE?Y?4?5?$CICtrl?$CL8?$CJ?$AA@ DB 0b0H
	DB	0c8H, 0b4H, 0c2H, ' ', 0beH, 0d7H, 0bcH, 0c7H, 0c0H, 0bbH, ' ', 0c3H
	DB	0ebH, 0c7H, 0d5H, 0b4H, 0cfH, 0b4H, 0d9H, '. (Ctrl+8)', 00H ; `string'
CONST	ENDS
;	COMDAT ??_C@_0CG@EHJAFDMH@?$LM?U?$MA?$LL?5?H?g?$LF?e?$LE?B?5?$LO?W?$LM?G?$MA?$LL?5?C?k?G?U?$LE?O?$LE?Y?4?5?$CICt@
CONST	SEGMENT
??_C@_0CG@EHJAFDMH@?$LM?U?$MA?$LL?5?H?g?$LF?e?$LE?B?5?$LO?W?$LM?G?$MA?$LL?5?C?k?G?U?$LE?O?$LE?Y?4?5?$CICt@ DB 0bcH
	DB	0d5H, 0c0H, 0bbH, ' ', 0c8H, 0e7H, 0b5H, 0e5H, 0b4H, 0c2H, ' ', 0beH
	DB	0d7H, 0bcH, 0c7H, 0c0H, 0bbH, ' ', 0c3H, 0ebH, 0c7H, 0d5H, 0b4H
	DB	0cfH, 0b4H, 0d9H, '. (Ctrl+2)', 00H		; `string'
CONST	ENDS
;	COMDAT ??_C@_0CD@HLCPDIKM@?$MA?O?$LO?n?$LM?$KN?$LE?B?5?$LO?W?$LM?G?$MA?$LL?5?C?k?G?U?$LE?O?$LE?Y?4?5?$CICtrl?$CL@
CONST	SEGMENT
??_C@_0CD@HLCPDIKM@?$MA?O?$LO?n?$LM?$KN?$LE?B?5?$LO?W?$LM?G?$MA?$LL?5?C?k?G?U?$LE?O?$LE?Y?4?5?$CICtrl?$CL@ DB 0c0H
	DB	0cfH, 0beH, 0eeH, 0bcH, 0adH, 0b4H, 0c2H, ' ', 0beH, 0d7H, 0bcH
	DB	0c7H, 0c0H, 0bbH, ' ', 0c3H, 0ebH, 0c7H, 0d5H, 0b4H, 0cfH, 0b4H
	DB	0d9H, '. (Ctrl+7)', 00H			; `string'
CONST	ENDS
;	COMDAT ??_C@_0CI@DLPPPDPB@?A?$KG?$MA?Z?$LI?$KO?$LP?$KB?5?$LO?I?$LE?B?5?$LO?W?$LM?G?$MA?$LL?5?C?k?G?U?$LE?O?$LE?Y?4?5?$CI@
CONST	SEGMENT
??_C@_0CI@DLPPPDPB@?A?$KG?$MA?Z?$LI?$KO?$LP?$KB?5?$LO?I?$LE?B?5?$LO?W?$LM?G?$MA?$LL?5?C?k?G?U?$LE?O?$LE?Y?4?5?$CI@ DB 0c1H
	DB	0a6H, 0c0H, 0daH, 0b8H, 0aeH, 0bfH, 0a1H, ' ', 0beH, 0c9H, 0b4H
	DB	0c2H, ' ', 0beH, 0d7H, 0bcH, 0c7H, 0c0H, 0bbH, ' ', 0c3H, 0ebH
	DB	0c7H, 0d5H, 0b4H, 0cfH, 0b4H, 0d9H, '. (Ctrl+1)', 00H ; `string'
CONST	ENDS
;	COMDAT ??_C@_0L@GOBFHACF@?$LE?x?$KB?$KB?A?v?$KB?$KB?$LE?Y?$AA@
CONST	SEGMENT
??_C@_0L@GOBFHACF@?$LE?x?$KB?$KB?A?v?$KB?$KB?$LE?Y?$AA@ DB 0b4H, 0f8H, 0a1H
	DB	0a1H, 0c1H, 0f6H, 0a1H, 0a1H, 0b4H, 0d9H, 00H ; `string'
CONST	ENDS
;	COMDAT ??_C@_0L@NJDBIKEM@?$LF?$KF?$KB?$KB?$LJ?L?$KB?$KB?A?v?$AA@
CONST	SEGMENT
??_C@_0L@NJDBIKEM@?$LF?$KF?$KB?$KB?$LJ?L?$KB?$KB?A?v?$AA@ DB 0b5H, 0a5H, 0a1H
	DB	0a1H, 0b9H, 0ccH, 0a1H, 0a1H, 0c1H, 0f6H, 00H ; `string'
CONST	ENDS
;	COMDAT ??_C@_0L@CHKOFNFO@?5?$LN?$LN?F?$NL?G?O?$LE?Y?5?$AA@
CONST	SEGMENT
??_C@_0L@CHKOFNFO@?5?$LN?$LN?F?$NL?G?O?$LE?Y?5?$AA@ DB ' ', 0bdH, 0bdH, 0c6H
	DB	0dbH, 0c7H, 0cfH, 0b4H, 0d9H, ' ', 00H	; `string'
CONST	ENDS
;	COMDAT ??_C@_0L@FLKMCCFP@?5?$LJ?f?$LO?n?G?O?$LE?Y?5?$AA@
CONST	SEGMENT
??_C@_0L@FLKMCCFP@?5?$LJ?f?$LO?n?G?O?$LE?Y?5?$AA@ DB ' ', 0b9H, 0e6H, 0beH
	DB	0eeH, 0c7H, 0cfH, 0b4H, 0d9H, ' ', 00H	; `string'
CONST	ENDS
;	COMDAT ??_C@_0L@DDIKGKGC@?5?H?$KN?$LI?$KG?$LD?$LL?$LE?Y?5?$AA@
CONST	SEGMENT
??_C@_0L@DDIKGKGC@?5?H?$KN?$LI?$KG?$LD?$LL?$LE?Y?5?$AA@ DB ' ', 0c8H, 0adH
	DB	0b8H, 0a6H, 0b3H, 0bbH, 0b4H, 0d9H, ' ', 00H	; `string'
CONST	ENDS
;	COMDAT ??_C@_0L@EPLKDNIL@?5?$LA?x?$LA?$NN?G?O?$LE?Y?5?$AA@
CONST	SEGMENT
??_C@_0L@EPLKDNIL@?5?$LA?x?$LA?$NN?G?O?$LE?Y?5?$AA@ DB ' ', 0b0H, 0f8H, 0b0H
	DB	0ddH, 0c7H, 0cfH, 0b4H, 0d9H, ' ', 00H	; `string'
CONST	ENDS
;	COMDAT ??_C@_0L@HMKFIAIO@?5?$LB?b?$LL?$LF?G?O?$LE?Y?5?$AA@
CONST	SEGMENT
??_C@_0L@HMKFIAIO@?5?$LB?b?$LL?$LF?G?O?$LE?Y?5?$AA@ DB ' ', 0b1H, 0e2H, 0bbH
	DB	0b5H, 0c7H, 0cfH, 0b4H, 0d9H, ' ', 00H	; `string'
CONST	ENDS
;	COMDAT ??_C@_0L@BBJFHFFA@?5?$LO?$LC?$LH?$KP?A?v?$LE?Y?5?$AA@
CONST	SEGMENT
??_C@_0L@BBJFHFFA@?5?$LO?$LC?$LH?$KP?A?v?$LE?Y?5?$AA@ DB ' ', 0beH, 0b2H, 0b7H
	DB	0afH, 0c1H, 0f6H, 0b4H, 0d9H, ' ', 00H	; `string'
CONST	ENDS
;	COMDAT ??_C@_0L@LFKBOHAB@?5?$MA?N?$LL?g?G?O?$LE?Y?5?$AA@
CONST	SEGMENT
??_C@_0L@LFKBOHAB@?5?$MA?N?$LL?g?G?O?$LE?Y?5?$AA@ DB ' ', 0c0H, 0ceH, 0bbH
	DB	0e7H, 0c7H, 0cfH, 0b4H, 0d9H, ' ', 00H	; `string'
CONST	ENDS
;	COMDAT ??_C@_0L@CPNFDNI@?5?$LA?H?$KB?$KB?$KB?$KB?$LE?Y?5?$AA@
CONST	SEGMENT
??_C@_0L@CPNFDNI@?5?$LA?H?$KB?$KB?$KB?$KB?$LE?Y?5?$AA@ DB ' ', 0b0H, 0c8H
	DB	0a1H, 0a1H, 0a1H, 0a1H, 0b4H, 0d9H, ' ', 00H	; `string'
CONST	ENDS
;	COMDAT ??_C@_0L@FNPFLOKG@?5?$LM?U?H?g?$LF?i?$LE?Y?5?$AA@
CONST	SEGMENT
??_C@_0L@FNPFLOKG@?5?$LM?U?H?g?$LF?i?$LE?Y?5?$AA@ DB ' ', 0bcH, 0d5H, 0c8H
	DB	0e7H, 0b5H, 0e9H, 0b4H, 0d9H, ' ', 00H	; `string'
CONST	ENDS
;	COMDAT ??_C@_0L@LOMDAPBP@?5?$MA?O?$LO?n?$LD?$KK?$LE?Y?5?$AA@
CONST	SEGMENT
??_C@_0L@LOMDAPBP@?5?$MA?O?$LO?n?$LD?$KK?$LE?Y?5?$AA@ DB ' ', 0c0H, 0cfH, 0beH
	DB	0eeH, 0b3H, 0aaH, 0b4H, 0d9H, ' ', 00H	; `string'
CONST	ENDS
;	COMDAT ??_C@_0L@LEPHHCI@?5?$LO?I?$KB?$KB?$KB?$KB?$LE?Y?5?$AA@
CONST	SEGMENT
??_C@_0L@LEPHHCI@?5?$LO?I?$KB?$KB?$KB?$KB?$LE?Y?5?$AA@ DB ' ', 0beH, 0c9H
	DB	0a1H, 0a1H, 0a1H, 0a1H, 0b4H, 0d9H, ' ', 00H	; `string'
CONST	ENDS
;	COMDAT ??_C@_0CM@JBJJKLPF@?$LK?$KO?C?$LL?$MA?G?5?$LB?$LI?$LN?$LN?$MA?$LL?5?$LL?g?$LP?k?G?O?$LA?E?$LD?$KK?5?$LL?g?$LP?k?$MA?$LL?5@
CONST	SEGMENT
??_C@_0CM@JBJJKLPF@?$LK?$KO?C?$LL?$MA?G?5?$LB?$LI?$LN?$LN?$MA?$LL?5?$LL?g?$LP?k?G?O?$LA?E?$LD?$KK?5?$LL?g?$LP?k?$MA?$LL?5@ DB 0baH
	DB	0aeH, 0c3H, 0bbH, 0c0H, 0c7H, ' ', 0b1H, 0b8H, 0bdH, 0bdH, 0c0H
	DB	0bbH, ' ', 0bbH, 0e7H, 0bfH, 0ebH, 0c7H, 0cfH, 0b0H, 0c5H, 0b3H
	DB	0aaH, ' ', 0bbH, 0e7H, 0bfH, 0ebH, 0c0H, 0bbH, ' ', 0c1H, 0beH
	DB	0b7H, 0e1H, 0c7H, 0d5H, 0b4H, 0cfH, 0b4H, 0d9H, '.', 00H ; `string'
CONST	ENDS
;	COMDAT ??_C@_0CM@DKAKKPJM@?$LA?f?G?h?D?$KB?5?$LB?$LI?$LN?$LN?$MA?$LL?5?$LL?g?$LP?k?G?O?$LA?E?$LD?$KK?5?$LL?g?$LP?k?$MA?$LL?5@
CONST	SEGMENT
??_C@_0CM@DKAKKPJM@?$LA?f?G?h?D?$KB?5?$LB?$LI?$LN?$LN?$MA?$LL?5?$LL?g?$LP?k?G?O?$LA?E?$LD?$KK?5?$LL?g?$LP?k?$MA?$LL?5@ DB 0b0H
	DB	0e6H, 0c7H, 0e8H, 0c4H, 0a1H, ' ', 0b1H, 0b8H, 0bdH, 0bdH, 0c0H
	DB	0bbH, ' ', 0bbH, 0e7H, 0bfH, 0ebH, 0c7H, 0cfH, 0b0H, 0c5H, 0b3H
	DB	0aaH, ' ', 0bbH, 0e7H, 0bfH, 0ebH, 0c0H, 0bbH, ' ', 0c1H, 0beH
	DB	0b7H, 0e1H, 0c7H, 0d5H, 0b4H, 0cfH, 0b4H, 0d9H, '.', 00H ; `string'
CONST	ENDS
;	COMDAT ??_C@_0CD@LEKAGBMD@?G?X?$LE?g?A?v?$LP?$KK?$LP?$KB?5?$MA?V?$LE?B?5?F?D?F?$LM?$LI?$KG?5?$LA?K?$LL?v?G?U?$LE?O?$LE@
CONST	SEGMENT
??_C@_0CD@LEKAGBMD@?G?X?$LE?g?A?v?$LP?$KK?$LP?$KB?5?$MA?V?$LE?B?5?F?D?F?$LM?$LI?$KG?5?$LA?K?$LL?v?G?U?$LE?O?$LE@ DB 0c7H
	DB	0d8H, 0b4H, 0e7H, 0c1H, 0f6H, 0bfH, 0aaH, 0bfH, 0a1H, ' ', 0c0H
	DB	0d6H, 0b4H, 0c2H, ' ', 0c6H, 0c4H, 0c6H, 0bcH, 0b8H, 0a6H, ' ', 0b0H
	DB	0cbH, 0bbH, 0f6H, 0c7H, 0d5H, 0b4H, 0cfH, 0b4H, 0d9H, '.', 00H ; `string'
CONST	ENDS
;	COMDAT ??_C@_0CB@NCIEAEIK@?D?$LD?$LI?$KP?E?M?$MA?G?5?E?$LO?$LN?B?5?F?d?F?$KO?$LI?$KG?5?H?$KO?$MA?N?G?U?$LE?O?$LE?Y?4@
CONST	SEGMENT
??_C@_0CB@NCIEAEIK@?D?$LD?$LI?$KP?E?M?$MA?G?5?E?$LO?$LN?B?5?F?d?F?$KO?$LI?$KG?5?H?$KO?$MA?N?G?U?$LE?O?$LE?Y?4@ DB 0c4H
	DB	0b3H, 0b8H, 0afH, 0c5H, 0cdH, 0c0H, 0c7H, ' ', 0c5H, 0beH, 0bdH
	DB	0c2H, ' ', 0c6H, 0e4H, 0c6H, 0aeH, 0b8H, 0a6H, ' ', 0c8H, 0aeH
	DB	0c0H, 0ceH, 0c7H, 0d5H, 0b4H, 0cfH, 0b4H, 0d9H, '.', 00H ; `string'
CONST	ENDS
;	COMDAT ??_C@_0BN@HEBEENAI@?A?v?$LP?x?5?F?w?$MA?N?F?$KO?5?$LM?$KF?$MA?$LL?5?$LP?$KN?$LG?w?G?U?$LE?O?$LE?Y?4?$AA@
CONST	SEGMENT
??_C@_0BN@HEBEENAI@?A?v?$LP?x?5?F?w?$MA?N?F?$KO?5?$LM?$KF?$MA?$LL?5?$LP?$KN?$LG?w?G?U?$LE?O?$LE?Y?4?$AA@ DB 0c1H
	DB	0f6H, 0bfH, 0f8H, ' ', 0c6H, 0f7H, 0c0H, 0ceH, 0c6H, 0aeH, ' ', 0bcH
	DB	0a5H, 0c0H, 0bbH, ' ', 0bfH, 0adH, 0b6H, 0f7H, 0c7H, 0d5H, 0b4H
	DB	0cfH, 0b4H, 0d9H, '.', 00H			; `string'
CONST	ENDS
;	COMDAT ??_C@_0BP@JAGIJNBP@?D?$LD?$LI?$KP?E?M?5?$LO?W?$LM?G?5?A?$KE?$LK?$LI?$LI?$KG?5?H?$KO?$MA?N?G?U?$LE?O?$LE?Y?4?$AA@
CONST	SEGMENT
??_C@_0BP@JAGIJNBP@?D?$LD?$LI?$KP?E?M?5?$LO?W?$LM?G?5?A?$KE?$LK?$LI?$LI?$KG?5?H?$KO?$MA?N?G?U?$LE?O?$LE?Y?4?$AA@ DB 0c4H
	DB	0b3H, 0b8H, 0afH, 0c5H, 0cdH, ' ', 0beH, 0d7H, 0bcH, 0c7H, ' ', 0c1H
	DB	0a4H, 0baH, 0b8H, 0b8H, 0a6H, ' ', 0c8H, 0aeH, 0c0H, 0ceH, 0c7H
	DB	0d5H, 0b4H, 0cfH, 0b4H, 0d9H, '.', 00H	; `string'
CONST	ENDS
;	COMDAT ??_C@_0BK@EJDCDLOD@?D?y?$LN?$LK?F?$KO?5?A?$KE?$LK?$LI?$LI?$KG?5?H?$KO?$MA?N?G?U?$LE?O?$LE?Y?4?$AA@
CONST	SEGMENT
??_C@_0BK@EJDCDLOD@?D?y?$LN?$LK?F?$KO?5?A?$KE?$LK?$LI?$LI?$KG?5?H?$KO?$MA?N?G?U?$LE?O?$LE?Y?4?$AA@ DB 0c4H
	DB	0f9H, 0bdH, 0baH, 0c6H, 0aeH, ' ', 0c1H, 0a4H, 0baH, 0b8H, 0b8H
	DB	0a6H, ' ', 0c8H, 0aeH, 0c0H, 0ceH, 0c7H, 0d5H, 0b4H, 0cfH, 0b4H
	DB	0d9H, '.', 00H				; `string'
CONST	ENDS
;	COMDAT ??_C@_0BD@KMDDMCEP@?$MA?$PM?E?u?$LI?$KG?5?$LA?$PM?$MA?$PM?G?U?$LE?O?$LE?Y?4?$AA@
CONST	SEGMENT
??_C@_0BD@KMDDMCEP@?$MA?$PM?E?u?$LI?$KG?5?$LA?$PM?$MA?$PM?G?U?$LE?O?$LE?Y?4?$AA@ DB 0c0H
	DB	0fcH, 0c5H, 0f5H, 0b8H, 0a6H, ' ', 0b0H, 0fcH, 0c0H, 0fcH, 0c7H
	DB	0d5H, 0b4H, 0cfH, 0b4H, 0d9H, '.', 00H	; `string'
CONST	ENDS
;	COMDAT ??_C@_0BJ@NBCGMCO@?$MA?$PM?E?u?$LP?$KB?5?B?$PM?$LP?$KJ?G?R?5?$LM?v?5?$LO?x?$LO?n?$LP?d?4?$AA@
CONST	SEGMENT
??_C@_0BJ@NBCGMCO@?$MA?$PM?E?u?$LP?$KB?5?B?$PM?$LP?$KJ?G?R?5?$LM?v?5?$LO?x?$LO?n?$LP?d?4?$AA@ DB 0c0H
	DB	0fcH, 0c5H, 0f5H, 0bfH, 0a1H, ' ', 0c2H, 0fcH, 0bfH, 0a9H, 0c7H
	DB	0d2H, ' ', 0bcH, 0f6H, ' ', 0beH, 0f8H, 0beH, 0eeH, 0bfH, 0e4H
	DB	'.', 00H					; `string'
CONST	ENDS
;	COMDAT ??_C@_0BD@KFAJKCNC@?$MA?$PM?E?u?$LP?$KB?5?B?$PM?$LP?$KJ?G?U?$LE?O?$LE?Y?4?$AA@
CONST	SEGMENT
??_C@_0BD@KFAJKCNC@?$MA?$PM?E?u?$LP?$KB?5?B?$PM?$LP?$KJ?G?U?$LE?O?$LE?Y?4?$AA@ DB 0c0H
	DB	0fcH, 0c5H, 0f5H, 0bfH, 0a1H, ' ', 0c2H, 0fcH, 0bfH, 0a9H, 0c7H
	DB	0d5H, 0b4H, 0cfH, 0b4H, 0d9H, '.', 00H	; `string'
CONST	ENDS
;	COMDAT ??_C@_0BO@GJIBCGFI@?$LL?s?$LE?k?$LJ?f?$LP?$KB?$LA?T?5?$LE?k?$MA?$PM?$MA?$LL?5?$LN?E?C?$LL?G?U?$LE?O?$LE?Y?4?$AA@
CONST	SEGMENT
??_C@_0BO@GJIBCGFI@?$LL?s?$LE?k?$LJ?f?$LP?$KB?$LA?T?5?$LE?k?$MA?$PM?$MA?$LL?5?$LN?E?C?$LL?G?U?$LE?O?$LE?Y?4?$AA@ DB 0bbH
	DB	0f3H, 0b4H, 0ebH, 0b9H, 0e6H, 0bfH, 0a1H, 0b0H, 0d4H, ' ', 0b4H
	DB	0ebH, 0c0H, 0fcH, 0c0H, 0bbH, ' ', 0bdH, 0c5H, 0c3H, 0bbH, 0c7H
	DB	0d5H, 0b4H, 0cfH, 0b4H, 0d9H, '.', 00H	; `string'
CONST	ENDS
;	COMDAT ??_C@_0BP@BDKJGMGO@?$LK?N?A?$LH?$LP?$KB?5?$LE?k?G?Q?5?A?$KE?$LK?$LI?$LI?$KG?5?H?$KO?$MA?N?G?U?$LE?O?$LE?Y?4?$AA@
CONST	SEGMENT
??_C@_0BP@BDKJGMGO@?$LK?N?A?$LH?$LP?$KB?5?$LE?k?G?Q?5?A?$KE?$LK?$LI?$LI?$KG?5?H?$KO?$MA?N?G?U?$LE?O?$LE?Y?4?$AA@ DB 0baH
	DB	0ceH, 0c1H, 0b7H, 0bfH, 0a1H, ' ', 0b4H, 0ebH, 0c7H, 0d1H, ' ', 0c1H
	DB	0a4H, 0baH, 0b8H, 0b8H, 0a6H, ' ', 0c8H, 0aeH, 0c0H, 0ceH, 0c7H
	DB	0d5H, 0b4H, 0cfH, 0b4H, 0d9H, '.', 00H	; `string'
CONST	ENDS
;	COMDAT ??_C@_0BH@CBJDPLHJ@?$LA?$LD?$MA?N?$LL?s?A?$KB?$MA?$LL?5?$LA?$LD?$LM?$LD?G?U?$LE?O?$LE?Y?4?$AA@
CONST	SEGMENT
??_C@_0BH@CBJDPLHJ@?$LA?$LD?$MA?N?$LL?s?A?$KB?$MA?$LL?5?$LA?$LD?$LM?$LD?G?U?$LE?O?$LE?Y?4?$AA@ DB 0b0H
	DB	0b3H, 0c0H, 0ceH, 0bbH, 0f3H, 0c1H, 0a1H, 0c0H, 0bbH, ' ', 0b0H
	DB	0b3H, 0bcH, 0b3H, 0c7H, 0d5H, 0b4H, 0cfH, 0b4H, 0d9H, '.', 00H ; `string'
CONST	ENDS
;	COMDAT ??_C@_0BO@NDPFBKJO@?$LL?s?$LE?k?$LJ?f?$LP?$KB?$LA?T?5?$LB?$LD?H?$KP?$MA?$LL?5?$LN?E?C?$LL?G?U?$LE?O?$LE?Y?4?$AA@
CONST	SEGMENT
??_C@_0BO@NDPFBKJO@?$LL?s?$LE?k?$LJ?f?$LP?$KB?$LA?T?5?$LB?$LD?H?$KP?$MA?$LL?5?$LN?E?C?$LL?G?U?$LE?O?$LE?Y?4?$AA@ DB 0bbH
	DB	0f3H, 0b4H, 0ebH, 0b9H, 0e6H, 0bfH, 0a1H, 0b0H, 0d4H, ' ', 0b1H
	DB	0b3H, 0c8H, 0afH, 0c0H, 0bbH, ' ', 0bdH, 0c5H, 0c3H, 0bbH, 0c7H
	DB	0d5H, 0b4H, 0cfH, 0b4H, 0d9H, '.', 00H	; `string'
CONST	ENDS
;	COMDAT ??_C@_0BM@JPNLKOND@?$LL?s?$LE?k?$LJ?f?$MA?G?5?F?D?F?$LM?$LP?$KB?5?B?$PM?$LP?$KJ?G?U?$LE?O?$LE?Y?4?$AA@
CONST	SEGMENT
??_C@_0BM@JPNLKOND@?$LL?s?$LE?k?$LJ?f?$MA?G?5?F?D?F?$LM?$LP?$KB?5?B?$PM?$LP?$KJ?G?U?$LE?O?$LE?Y?4?$AA@ DB 0bbH
	DB	0f3H, 0b4H, 0ebH, 0b9H, 0e6H, 0c0H, 0c7H, ' ', 0c6H, 0c4H, 0c6H
	DB	0bcH, 0bfH, 0a1H, ' ', 0c2H, 0fcH, 0bfH, 0a9H, 0c7H, 0d5H, 0b4H
	DB	0cfH, 0b4H, 0d9H, '.', 00H			; `string'
CONST	ENDS
;	COMDAT ??_C@_0BJ@CHLJOFEL@?F?D?F?$LM?$LP?$KB?5?B?$PM?$LP?$KJ?G?R?5?$LM?v?5?$LO?x?$LO?n?$LP?d?4?$AA@
CONST	SEGMENT
??_C@_0BJ@CHLJOFEL@?F?D?F?$LM?$LP?$KB?5?B?$PM?$LP?$KJ?G?R?5?$LM?v?5?$LO?x?$LO?n?$LP?d?4?$AA@ DB 0c6H
	DB	0c4H, 0c6H, 0bcH, 0bfH, 0a1H, ' ', 0c2H, 0fcH, 0bfH, 0a9H, 0c7H
	DB	0d2H, ' ', 0bcH, 0f6H, ' ', 0beH, 0f8H, 0beH, 0eeH, 0bfH, 0e4H
	DB	'.', 00H					; `string'
CONST	ENDS
;	COMDAT ??_C@_0BM@BDLIIEIH@?$LL?s?$LE?k?$LJ?f?$LA?z?5?$LI?m?G?T?$MA?$LL?5?$LB?$LD?H?$KP?G?U?$LE?O?$LE?Y?4?$AA@
CONST	SEGMENT
??_C@_0BM@BDLIIEIH@?$LL?s?$LE?k?$LJ?f?$LA?z?5?$LI?m?G?T?$MA?$LL?5?$LB?$LD?H?$KP?G?U?$LE?O?$LE?Y?4?$AA@ DB 0bbH
	DB	0f3H, 0b4H, 0ebH, 0b9H, 0e6H, 0b0H, 0faH, ' ', 0b8H, 0edH, 0c7H
	DB	0d4H, 0c0H, 0bbH, ' ', 0b1H, 0b3H, 0c8H, 0afH, 0c7H, 0d5H, 0b4H
	DB	0cfH, 0b4H, 0d9H, '.', 00H			; `string'
CONST	ENDS
;	COMDAT ??_C@_0BD@KALKBBEH@?$LI?$NO?$LE?$LK?$LI?$KG?5?$LM?$LD?A?$KE?G?U?$LE?O?$LE?Y?4?$AA@
CONST	SEGMENT
??_C@_0BD@KALKBBEH@?$LI?$NO?$LE?$LK?$LI?$KG?5?$LM?$LD?A?$KE?G?U?$LE?O?$LE?Y?4?$AA@ DB 0b8H
	DB	0deH, 0b4H, 0baH, 0b8H, 0a6H, ' ', 0bcH, 0b3H, 0c1H, 0a4H, 0c7H
	DB	0d5H, 0b4H, 0cfH, 0b4H, 0d9H, '.', 00H	; `string'
CONST	ENDS
;	COMDAT ??_C@_0CD@HJEPKLDC@?$MA?L?$LA?w?$LP?$KB?$LM?$KN?5?F?D?F?$LM?$LI?$KG?5?$LB?$LI?$LM?$LK?G?R?5?$LM?v?5?$LO?x?$LN?$MA?$LE?O@
CONST	SEGMENT
??_C@_0CD@HJEPKLDC@?$MA?L?$LA?w?$LP?$KB?$LM?$KN?5?F?D?F?$LM?$LI?$KG?5?$LB?$LI?$LM?$LK?G?R?5?$LM?v?5?$LO?x?$LN?$MA?$LE?O@ DB 0c0H
	DB	0ccH, 0b0H, 0f7H, 0bfH, 0a1H, 0bcH, 0adH, ' ', 0c6H, 0c4H, 0c6H
	DB	0bcH, 0b8H, 0a6H, ' ', 0b1H, 0b8H, 0bcH, 0baH, 0c7H, 0d2H, ' ', 0bcH
	DB	0f6H, ' ', 0beH, 0f8H, 0bdH, 0c0H, 0b4H, 0cfH, 0b4H, 0d9H, 00H ; `string'
CONST	ENDS
;	COMDAT ??_C@_03OAFDEMMP@S?$HMP?$AA@
CONST	SEGMENT
??_C@_03OAFDEMMP@S?$HMP?$AA@ DB 'S|P', 00H		; `string'
CONST	ENDS
;	COMDAT ??_C@_0DA@KIPDLLGN@P?$HM?$LK?N?A?$LH?$LP?$KB?5?$LA?$KB?$MA?T?$LF?G?A?v?5?$LO?J?$LO?F?5?A?$KE?$LK?$LI?$LI?$KG?5?H?$KO@
CONST	SEGMENT
??_C@_0DA@KIPDLLGN@P?$HM?$LK?N?A?$LH?$LP?$KB?5?$LA?$KB?$MA?T?$LF?G?A?v?5?$LO?J?$LO?F?5?A?$KE?$LK?$LI?$LI?$KG?5?H?$KO@ DB 'P'
	DB	'|', 0baH, 0ceH, 0c1H, 0b7H, 0bfH, 0a1H, ' ', 0b0H, 0a1H, 0c0H
	DB	0d4H, 0b5H, 0c7H, 0c1H, 0f6H, ' ', 0beH, 0caH, 0beH, 0c6H, ' ', 0c1H
	DB	0a4H, 0baH, 0b8H, 0b8H, 0a6H, ' ', 0c8H, 0aeH, 0c0H, 0ceH, 0c7H
	DB	0d2H, ' ', 0bcH, 0f6H, ' ', 0beH, 0f8H, 0beH, 0eeH, 0bfH, 0e4H
	DB	'.', 00H					; `string'
CONST	ENDS
;	COMDAT ??_C@_02OPIIDOKH@P?$HM?$AA@
CONST	SEGMENT
??_C@_02OPIIDOKH@P?$HM?$AA@ DB 'P|', 00H		; `string'
CONST	ENDS
;	COMDAT ??_C@_0CB@GPKKMDCO@?$LD?k?A?$KB?$LL?s?$LP?$KB?$LM?$KN?5?$LB?$LD?H?$KP?$MA?$LL?5?G?X?$LM?$KN?$LE?B?5?$LO?H?5?$LF?H?$LE?Y@
CONST	SEGMENT
??_C@_0CB@GPKKMDCO@?$LD?k?A?$KB?$LL?s?$LP?$KB?$LM?$KN?5?$LB?$LD?H?$KP?$MA?$LL?5?G?X?$LM?$KN?$LE?B?5?$LO?H?5?$LF?H?$LE?Y@ DB 0b3H
	DB	0ebH, 0c1H, 0a1H, 0bbH, 0f3H, 0bfH, 0a1H, 0bcH, 0adH, ' ', 0b1H
	DB	0b3H, 0c8H, 0afH, 0c0H, 0bbH, ' ', 0c7H, 0d8H, 0bcH, 0adH, 0b4H
	DB	0c2H, ' ', 0beH, 0c8H, ' ', 0b5H, 0c8H, 0b4H, 0d9H, 00H ; `string'
CONST	ENDS
;	COMDAT ??_C@_03DDDPELM@D?$HMD?$AA@
CONST	SEGMENT
??_C@_03DDDPELM@D?$HMD?$AA@ DB 'D|D', 00H		; `string'
CONST	ENDS
;	COMDAT ??_C@_02PACKEJLJ@B?$HM?$AA@
CONST	SEGMENT
??_C@_02PACKEJLJ@B?$HM?$AA@ DB 'B|', 00H		; `string'
CONST	ENDS
;	COMDAT ??_C@_02PIPCNKOK@O?$HM?$AA@
CONST	SEGMENT
??_C@_02PIPCNKOK@O?$HM?$AA@ DB 'O|', 00H		; `string'
CONST	ENDS
;	COMDAT ??_C@_02DPKJAMEF@?$CFd?$AA@
CONST	SEGMENT
??_C@_02DPKJAMEF@?$CFd?$AA@ DB '%d', 00H		; `string'
CONST	ENDS
;	COMDAT ??_C@_05LNGOBBOC@D?$HM?$CFd?$HM?$AA@
CONST	SEGMENT
??_C@_05LNGOBBOC@D?$HM?$CFd?$HM?$AA@ DB 'D|%d|', 00H	; `string'
CONST	ENDS
;	COMDAT ??_C@_0CH@BCAEDIAE@?G?y?A?$KE?5?$LA?$KB?$LA?$NN?5?$LJ?$LA?G?$LA?$MA?$LK?5?$MA?O?$MA?O?$MA?L?5?$LA?m?$LI?$KG?5?$LM?v?5@
CONST	SEGMENT
??_C@_0CH@BCAEDIAE@?G?y?A?$KE?5?$LA?$KB?$LA?$NN?5?$LJ?$LA?G?$LA?$MA?$LK?5?$MA?O?$MA?O?$MA?L?5?$LA?m?$LI?$KG?5?$LM?v?5@ DB 0c7H
	DB	0f9H, 0c1H, 0a4H, ' ', 0b0H, 0a1H, 0b0H, 0ddH, ' ', 0b9H, 0b0H
	DB	0c7H, 0b0H, 0c0H, 0baH, ' ', 0c0H, 0cfH, 0c0H, 0cfH, 0c0H, 0ccH
	DB	' ', 0b0H, 0edH, 0b8H, 0a6H, ' ', 0bcH, 0f6H, ' ', 0beH, 0f8H, 0b4H
	DB	0d9H, 0a3H, 0a1H, 00H			; `string'
CONST	ENDS
;	COMDAT ??_C@_0BM@PJIKDD@?$LJ?Y?$LF?p?5?$LO?F?$MA?L?E?$NL?5?$LM?$LN?$LM?G?$MA?L?5?$LK?N?A?$LH?G?X?$KD?$KB?$AA@
CONST	SEGMENT
??_C@_0BM@PJIKDD@?$LJ?Y?$LF?p?5?$LO?F?$MA?L?E?$NL?5?$LM?$LN?$LM?G?$MA?L?5?$LK?N?A?$LH?G?X?$KD?$KB?$AA@ DB 0b9H
	DB	0d9H, 0b5H, 0f0H, ' ', 0beH, 0c6H, 0c0H, 0ccH, 0c5H, 0dbH, ' ', 0bcH
	DB	0bdH, 0bcH, 0c7H, 0c0H, 0ccH, ' ', 0baH, 0ceH, 0c1H, 0b7H, 0c7H
	DB	0d8H, 0a3H, 0a1H, 00H			; `string'
CONST	ENDS
;	COMDAT ??_C@_0BA@KFKPCCNN@?$LN?$LK?E?f?$MA?L?5?$LK?N?A?$LH?G?X?$KD?$KB?$AA@
CONST	SEGMENT
??_C@_0BA@KFKPCCNN@?$LN?$LK?E?f?$MA?L?5?$LK?N?A?$LH?G?X?$KD?$KB?$AA@ DB 0bdH
	DB	0baH, 0c5H, 0e6H, 0c0H, 0ccH, ' ', 0baH, 0ceH, 0c1H, 0b7H, 0c7H
	DB	0d8H, 0a3H, 0a1H, 00H			; `string'
CONST	ENDS
;	COMDAT ??_C@_0M@LGAMIGJ@?$LB?b?$LM?z?5?$CFd?$KD?$LK?$CFs?$AA@
CONST	SEGMENT
??_C@_0M@LGAMIGJ@?$LB?b?$LM?z?5?$CFd?$KD?$LK?$CFs?$AA@ DB 0b1H, 0e2H, 0bcH
	DB	0faH, ' %d', 0a3H, 0baH, '%s', 00H		; `string'
CONST	ENDS
;	COMDAT ??_C@_06CFCEDMBI@?C?f?$KD?$LK?$CFd?$AA@
CONST	SEGMENT
??_C@_06CFCEDMBI@?C?f?$KD?$LK?$CFd?$AA@ DB 0c3H, 0e6H, 0a3H, 0baH, '%d', 00H ; `string'
CONST	ENDS
;	COMDAT ??_C@_06INCIIBEP@?G?$LD?$KD?$LK?$CFd?$AA@
CONST	SEGMENT
??_C@_06INCIIBEP@?G?$LD?$KD?$LK?$CFd?$AA@ DB 0c7H, 0b3H, 0a3H, 0baH, '%d', 00H ; `string'
CONST	ENDS
;	COMDAT ??_C@_06ECLMJCEN@?H?$KN?$KD?$LK?$CFd?$AA@
CONST	SEGMENT
??_C@_06ECLMJCEN@?H?$KN?$KD?$LK?$CFd?$AA@ DB 0c8H, 0adH, 0a3H, 0baH, '%d', 00H ; `string'
CONST	ENDS
;	COMDAT ??_C@_06DMNCJOEB@?$LM?v?$KD?$LK?$CFd?$AA@
CONST	SEGMENT
??_C@_06DMNCJOEB@?$LM?v?$KD?$LK?$CFd?$AA@ DB 0bcH, 0f6H, 0a3H, 0baH, '%d', 00H ; `string'
CONST	ENDS
;	COMDAT ??_C@_06LBGNCPKK@?A?v?$KD?$LK?$CFd?$AA@
CONST	SEGMENT
??_C@_06LBGNCPKK@?A?v?$KD?$LK?$CFd?$AA@ DB 0c1H, 0f6H, 0a3H, 0baH, '%d', 00H ; `string'
CONST	ENDS
;	COMDAT ??_C@_06GNIPPDB@?$LM?x?$KD?$LK?$CFd?$AA@
CONST	SEGMENT
??_C@_06GNIPPDB@?$LM?x?$KD?$LK?$CFd?$AA@ DB 0bcH, 0f8H, 0a3H, 0baH, '%d', 00H ; `string'
CONST	ENDS
;	COMDAT ??_C@_06GNDMLDHN@?$LJ?f?$KD?$LK?$CFd?$AA@
CONST	SEGMENT
??_C@_06GNDMLDHN@?$LJ?f?$KD?$LK?$CFd?$AA@ DB 0b9H, 0e6H, 0a3H, 0baH, '%d', 00H ; `string'
CONST	ENDS
;	COMDAT ??_C@_06MBHIJFEF@?$LA?x?$KD?$LK?$CFd?$AA@
CONST	SEGMENT
??_C@_06MBHIJFEF@?$LA?x?$KD?$LK?$CFd?$AA@ DB 0b0H, 0f8H, 0a3H, 0baH, '%d', 00H ; `string'
CONST	ENDS
;	COMDAT ??_C@_06HJFMPHBK@?$LD?$LL?$KD?$LK?$CFd?$AA@
CONST	SEGMENT
??_C@_06HJFMPHBK@?$LD?$LL?$KD?$LK?$CFd?$AA@ DB 0b3H, 0bbH, 0a3H, 0baH, '%'
	DB	'd', 00H					; `string'
CONST	ENDS
;	COMDAT ??_C@_06EGBMLAEA@Lv?$KD?$LK?$CFd?$AA@
CONST	SEGMENT
??_C@_06EGBMLAEA@Lv?$KD?$LK?$CFd?$AA@ DB 'Lv', 0a3H, 0baH, '%d', 00H ; `string'
CONST	ENDS
;	COMDAT ??_C@_07HLBLNMPK@?$CFd?5?H?$LI?$MA?$PM?$AA@
CONST	SEGMENT
??_C@_07HLBLNMPK@?$CFd?5?H?$LI?$MA?$PM?$AA@ DB '%d ', 0c8H, 0b8H, 0c0H, 0fcH
	DB	00H						; `string'
CONST	ENDS
;	COMDAT ??_C@_0L@LDFFIDCJ@?$LD?$LL?$LB?$LI?$LH?B?$CI?$CFs?$CJ?$AA@
CONST	SEGMENT
??_C@_0L@LDFFIDCJ@?$LD?$LL?$LB?$LI?$LH?B?$CI?$CFs?$CJ?$AA@ DB 0b3H, 0bbH, 0b1H
	DB	0b8H, 0b7H, 0c2H, '(%s)', 00H		; `string'
CONST	ENDS
;	COMDAT ??_C@_09HBDNCLCF@?G?y?$LL?s?5?$LA?$KB?$LA?$NN?$AA@
CONST	SEGMENT
??_C@_09HBDNCLCF@?G?y?$LL?s?5?$LA?$KB?$LA?$NN?$AA@ DB 0c7H, 0f9H, 0bbH, 0f3H
	DB	' ', 0b0H, 0a1H, 0b0H, 0ddH, 00H		; `string'
CONST	ENDS
;	COMDAT ??_C@_02PJDALANN@N?$HM?$AA@
CONST	SEGMENT
??_C@_02PJDALANN@N?$HM?$AA@ DB 'N|', 00H		; `string'
CONST	ENDS
;	COMDAT ??_C@_07PKADKLEL@B?$HM?$CFd?$HM?$CFs?$AA@
CONST	SEGMENT
??_C@_07PKADKLEL@B?$HM?$CFd?$HM?$CFs?$AA@ DB 'B|%d|%s', 00H ; `string'
CONST	ENDS
;	COMDAT ??_C@_03IFADCKOJ@?$CFd?$HM?$AA@
CONST	SEGMENT
??_C@_03IFADCKOJ@?$CFd?$HM?$AA@ DB '%d|', 00H		; `string'
CONST	ENDS
;	COMDAT ??_C@_04MPOIGBFL@SELL?$AA@
CONST	SEGMENT
??_C@_04MPOIGBFL@SELL?$AA@ DB 'SELL', 00H		; `string'
CONST	ENDS
;	COMDAT ??_C@_02PFGFFPDM@E?$HM?$AA@
CONST	SEGMENT
??_C@_02PFGFFPDM@E?$HM?$AA@ DB 'E|', 00H		; `string'
CONST	ENDS
;	COMDAT ??_C@_06EFALBHEL@R?$HMP?$HM?91?$AA@
CONST	SEGMENT
??_C@_06EFALBHEL@R?$HMP?$HM?91?$AA@ DB 'R|P|-1', 00H	; `string'
CONST	ENDS
;	COMDAT ??_C@_09KAHBFCEF@S?$HM?$CFd?$HM?$CFs?$CFs?$AA@
CONST	SEGMENT
??_C@_09KAHBFCEF@S?$HM?$CFd?$HM?$CFs?$CFs?$AA@ DB 'S|%d|%s%s', 00H ; `string'
CONST	ENDS
;	COMDAT ??_C@_0P@DJCPLGCF@?$LO?n?$LM?$KN?$LP?$MA?$LN?J?$LN?C?$LP?$MA?$CB?$CB?$AA@
CONST	SEGMENT
??_C@_0P@DJCPLGCF@?$LO?n?$LM?$KN?$LP?$MA?$LN?J?$LN?C?$LP?$MA?$CB?$CB?$AA@ DB 0beH
	DB	0eeH, 0bcH, 0adH, 0bfH, 0c0H, 0bdH, 0caH, 0bdH, 0c3H, 0bfH, 0c0H
	DB	'!!', 00H					; `string'
CONST	ENDS
;	COMDAT ??_C@_09CGALFHNJ@?$CFd?$HM?$CFd?$HM?$CFd?$HM?$AA@
CONST	SEGMENT
??_C@_09CGALFHNJ@?$CFd?$HM?$CFd?$HM?$CFd?$HM?$AA@ DB '%d|%d|%d|', 00H ; `string'
CONST	ENDS
;	COMDAT ??_C@_00CNPNBAHC@?$AA@
CONST	SEGMENT
??_C@_00CNPNBAHC@?$AA@ DB 00H				; `string'
CONST	ENDS
;	COMDAT ??_C@_0O@OPLGMGNK@?$CF?917s?$CF?912s?$CF8d?$AA@
CONST	SEGMENT
??_C@_0O@OPLGMGNK@?$CF?917s?$CF?912s?$CF8d?$AA@ DB '%-17s%-12s%8d', 00H ; `string'
CONST	ENDS
;	COMDAT ??_C@_0O@OKDFECEM@?$CF?917s?$CF?912s?$CF8s?$AA@
CONST	SEGMENT
??_C@_0O@OKDFECEM@?$CF?917s?$CF?912s?$CF8s?$AA@ DB '%-17s%-12s%8s', 00H ; `string'
CONST	ENDS
;	COMDAT ??_C@_03CAPDGGPL@?$DP?K?$MA?$AA@
CONST	SEGMENT
??_C@_03CAPDGGPL@?$DP?K?$MA?$AA@ DB '?', 0cbH, 0c0H, 00H ; `string'
CONST	ENDS
;	COMDAT ??_C@_0O@MINOFDLM@?$CF?920sx?$CF3d?$CF13d?$AA@
CONST	SEGMENT
??_C@_0O@MINOFDLM@?$CF?920sx?$CF3d?$CF13d?$AA@ DB '%-20sx%3d%13d', 00H ; `string'
CONST	ENDS
;	COMDAT ??_C@_0O@MNFNNHCK@?$CF?920sx?$CF3d?$CF13s?$AA@
CONST	SEGMENT
??_C@_0O@MNFNNHCK@?$CF?920sx?$CF3d?$CF13s?$AA@ DB '%-20sx%3d%13s', 00H ; `string'
CONST	ENDS
;	COMDAT ??_C@_01MMEEDKFM@X?$AA@
CONST	SEGMENT
??_C@_01MMEEDKFM@X?$AA@ DB 'X', 00H			; `string'
CONST	ENDS
;	COMDAT ??_C@_02DKCKIIND@?$CFs?$AA@
CONST	SEGMENT
??_C@_02DKCKIIND@?$CFs?$AA@ DB '%s', 00H		; `string'
CONST	ENDS
; Function compile flags: /Odtp /RTCsu /ZI
; File c:\users\administrator\desktop\????? ??\????? ??\client source code\system\field.cpp
;	COMDAT ?ReadAniFile@@YAHH@Z
_TEXT	SEGMENT
_i$1 = -100						; size = 4
_row$ = -88						; size = 4
_col$ = -76						; size = 4
_fileName$ = -64					; size = 32
_readbyte$ = -24					; size = 4
_hFile$ = -12						; size = 4
__$ArrayPad$ = -4					; size = 4
_floor$ = 8						; size = 4
?ReadAniFile@@YAHH@Z PROC				; ReadAniFile, COMDAT

; 5399 : {

  00000	55		 push	 ebp
  00001	8b ec		 mov	 ebp, esp
  00003	81 ec 28 01 00
	00		 sub	 esp, 296		; 00000128H
  00009	53		 push	 ebx
  0000a	56		 push	 esi
  0000b	57		 push	 edi
  0000c	8d bd d8 fe ff
	ff		 lea	 edi, DWORD PTR [ebp-296]
  00012	b9 4a 00 00 00	 mov	 ecx, 74			; 0000004aH
  00017	b8 cc cc cc cc	 mov	 eax, -858993460		; ccccccccH
  0001c	f3 ab		 rep stosd
  0001e	a1 00 00 00 00	 mov	 eax, DWORD PTR ___security_cookie
  00023	33 c5		 xor	 eax, ebp
  00025	89 45 fc	 mov	 DWORD PTR __$ArrayPad$[ebp], eax

; 5400 : 	HANDLE hFile;
; 5401 : 	DWORD readbyte;
; 5402 : 	char fileName[32];
; 5403 : 	ani_num = 0;

  00028	c7 05 00 00 00
	00 00 00 00 00	 mov	 DWORD PTR ?ani_num@@3HA, 0 ; ani_num

; 5404 : 	int col = 0, row = 0; 

  00032	c7 45 b4 00 00
	00 00		 mov	 DWORD PTR _col$[ebp], 0
  00039	c7 45 a8 00 00
	00 00		 mov	 DWORD PTR _row$[ebp], 0

; 5405 : 	breadAniFlag = TRUE;  //璇诲妗ｆ

  00040	c7 05 00 00 00
	00 01 00 00 00	 mov	 DWORD PTR ?breadAniFlag@@3HA, 1 ; breadAniFlag

; 5406 : 	sprintf(fileName, "map\\%d.ani", floor);

  0004a	8b 45 08	 mov	 eax, DWORD PTR _floor$[ebp]
  0004d	50		 push	 eax
  0004e	68 00 00 00 00	 push	 OFFSET ??_C@_0L@MGMKLDIO@map?2?$CFd?4ani?$AA@
  00053	8d 4d c0	 lea	 ecx, DWORD PTR _fileName$[ebp]
  00056	51		 push	 ecx
  00057	e8 00 00 00 00	 call	 _sprintf
  0005c	83 c4 0c	 add	 esp, 12			; 0000000cH

; 5407 : 	for (int i = 0; i < MAX_ANIM; i++)

  0005f	c7 45 9c 00 00
	00 00		 mov	 DWORD PTR _i$1[ebp], 0
  00066	eb 09		 jmp	 SHORT $LN4@ReadAniFil
$LN2@ReadAniFil:
  00068	8b 45 9c	 mov	 eax, DWORD PTR _i$1[ebp]
  0006b	83 c0 01	 add	 eax, 1
  0006e	89 45 9c	 mov	 DWORD PTR _i$1[ebp], eax
$LN4@ReadAniFil:
  00071	81 7d 9c 00 01
	00 00		 cmp	 DWORD PTR _i$1[ebp], 256 ; 00000100H
  00078	7d 30		 jge	 SHORT $LN3@ReadAniFil

; 5408 : 	{
; 5409 : 		ProduceXY[i][5] = -2 ; 

  0007a	6b 45 9c 1c	 imul	 eax, DWORD PTR _i$1[ebp], 28
  0007e	b9 04 00 00 00	 mov	 ecx, 4
  00083	6b d1 05	 imul	 edx, ecx, 5
  00086	c7 84 10 00 00
	00 00 fe ff ff
	ff		 mov	 DWORD PTR ?ProduceXY@@3PAY06HA[eax+edx], -2 ; fffffffeH

; 5410 : 		ProduceXY[i][6] = -1 ; 

  00091	6b 45 9c 1c	 imul	 eax, DWORD PTR _i$1[ebp], 28
  00095	b9 04 00 00 00	 mov	 ecx, 4
  0009a	6b d1 06	 imul	 edx, ecx, 6
  0009d	c7 84 10 00 00
	00 00 ff ff ff
	ff		 mov	 DWORD PTR ?ProduceXY@@3PAY06HA[eax+edx], -1

; 5411 : 	}

  000a8	eb be		 jmp	 SHORT $LN2@ReadAniFil
$LN3@ReadAniFil:

; 5412 : 	if ((hFile = CreateFile(fileName, GENERIC_READ, FILE_SHARE_READ, NULL,OPEN_EXISTING, NULL, NULL)) == INVALID_HANDLE_VALUE)

  000aa	8b f4		 mov	 esi, esp
  000ac	6a 00		 push	 0
  000ae	6a 00		 push	 0
  000b0	6a 03		 push	 3
  000b2	6a 00		 push	 0
  000b4	6a 01		 push	 1
  000b6	68 00 00 00 80	 push	 -2147483648		; 80000000H
  000bb	8d 45 c0	 lea	 eax, DWORD PTR _fileName$[ebp]
  000be	50		 push	 eax
  000bf	ff 15 00 00 00
	00		 call	 DWORD PTR __imp__CreateFileA@28
  000c5	3b f4		 cmp	 esi, esp
  000c7	e8 00 00 00 00	 call	 __RTC_CheckEsp
  000cc	89 45 f4	 mov	 DWORD PTR _hFile$[ebp], eax
  000cf	83 7d f4 ff	 cmp	 DWORD PTR _hFile$[ebp], -1
  000d3	75 05		 jne	 SHORT $LN5@ReadAniFil

; 5413 : 		return -1;

  000d5	83 c8 ff	 or	 eax, -1
  000d8	eb 72		 jmp	 SHORT $LN1@ReadAniFil
$LN5@ReadAniFil:

; 5414 : 
; 5415 : 	while (ReadFile(hFile, &ProduceXY[row], sizeof(int) * 5, &readbyte, NULL) && readbyte)

  000da	8b f4		 mov	 esi, esp
  000dc	6a 00		 push	 0
  000de	8d 45 e8	 lea	 eax, DWORD PTR _readbyte$[ebp]
  000e1	50		 push	 eax
  000e2	6a 14		 push	 20			; 00000014H
  000e4	6b 4d a8 1c	 imul	 ecx, DWORD PTR _row$[ebp], 28
  000e8	81 c1 00 00 00
	00		 add	 ecx, OFFSET ?ProduceXY@@3PAY06HA ; ProduceXY
  000ee	51		 push	 ecx
  000ef	8b 55 f4	 mov	 edx, DWORD PTR _hFile$[ebp]
  000f2	52		 push	 edx
  000f3	ff 15 00 00 00
	00		 call	 DWORD PTR __imp__ReadFile@20
  000f9	3b f4		 cmp	 esi, esp
  000fb	e8 00 00 00 00	 call	 __RTC_CheckEsp
  00100	85 c0		 test	 eax, eax
  00102	74 28		 je	 SHORT $LN6@ReadAniFil
  00104	83 7d e8 00	 cmp	 DWORD PTR _readbyte$[ebp], 0
  00108	74 22		 je	 SHORT $LN6@ReadAniFil

; 5416 : 	{
; 5417 : 		ProduceXY[row][5] = 0 ; 

  0010a	6b 45 a8 1c	 imul	 eax, DWORD PTR _row$[ebp], 28
  0010e	b9 04 00 00 00	 mov	 ecx, 4
  00113	6b d1 05	 imul	 edx, ecx, 5
  00116	c7 84 10 00 00
	00 00 00 00 00
	00		 mov	 DWORD PTR ?ProduceXY@@3PAY06HA[eax+edx], 0

; 5418 : 		row++;

  00121	8b 45 a8	 mov	 eax, DWORD PTR _row$[ebp]
  00124	83 c0 01	 add	 eax, 1
  00127	89 45 a8	 mov	 DWORD PTR _row$[ebp], eax

; 5419 : 	}

  0012a	eb ae		 jmp	 SHORT $LN5@ReadAniFil
$LN6@ReadAniFil:

; 5420 : 	ani_num = row; //璇ュ板炬诲ㄧ绘

  0012c	8b 45 a8	 mov	 eax, DWORD PTR _row$[ebp]
  0012f	a3 00 00 00 00	 mov	 DWORD PTR ?ani_num@@3HA, eax ; ani_num

; 5421 : 	CloseHandle(hFile);

  00134	8b f4		 mov	 esi, esp
  00136	8b 45 f4	 mov	 eax, DWORD PTR _hFile$[ebp]
  00139	50		 push	 eax
  0013a	ff 15 00 00 00
	00		 call	 DWORD PTR __imp__CloseHandle@4
  00140	3b f4		 cmp	 esi, esp
  00142	e8 00 00 00 00	 call	 __RTC_CheckEsp

; 5422 : 
; 5423 : 	return 1;

  00147	b8 01 00 00 00	 mov	 eax, 1
$LN1@ReadAniFil:

; 5424 : }

  0014c	52		 push	 edx
  0014d	8b cd		 mov	 ecx, ebp
  0014f	50		 push	 eax
  00150	8d 15 00 00 00
	00		 lea	 edx, DWORD PTR $LN12@ReadAniFil
  00156	e8 00 00 00 00	 call	 @_RTC_CheckStackVars@8
  0015b	58		 pop	 eax
  0015c	5a		 pop	 edx
  0015d	5f		 pop	 edi
  0015e	5e		 pop	 esi
  0015f	5b		 pop	 ebx
  00160	8b 4d fc	 mov	 ecx, DWORD PTR __$ArrayPad$[ebp]
  00163	33 cd		 xor	 ecx, ebp
  00165	e8 00 00 00 00	 call	 @__security_check_cookie@4
  0016a	81 c4 28 01 00
	00		 add	 esp, 296		; 00000128H
  00170	3b ec		 cmp	 ebp, esp
  00172	e8 00 00 00 00	 call	 __RTC_CheckEsp
  00177	8b e5		 mov	 esp, ebp
  00179	5d		 pop	 ebp
  0017a	c3		 ret	 0
  0017b	90		 npad	 1
$LN12@ReadAniFil:
  0017c	02 00 00 00	 DD	 2
  00180	00 00 00 00	 DD	 $LN11@ReadAniFil
$LN11@ReadAniFil:
  00184	e8 ff ff ff	 DD	 -24			; ffffffe8H
  00188	04 00 00 00	 DD	 4
  0018c	00 00 00 00	 DD	 $LN9@ReadAniFil
  00190	c0 ff ff ff	 DD	 -64			; ffffffc0H
  00194	20 00 00 00	 DD	 32			; 00000020H
  00198	00 00 00 00	 DD	 $LN10@ReadAniFil
$LN10@ReadAniFil:
  0019c	66		 DB	 102			; 00000066H
  0019d	69		 DB	 105			; 00000069H
  0019e	6c		 DB	 108			; 0000006cH
  0019f	65		 DB	 101			; 00000065H
  001a0	4e		 DB	 78			; 0000004eH
  001a1	61		 DB	 97			; 00000061H
  001a2	6d		 DB	 109			; 0000006dH
  001a3	65		 DB	 101			; 00000065H
  001a4	00		 DB	 0
$LN9@ReadAniFil:
  001a5	72		 DB	 114			; 00000072H
  001a6	65		 DB	 101			; 00000065H
  001a7	61		 DB	 97			; 00000061H
  001a8	64		 DB	 100			; 00000064H
  001a9	62		 DB	 98			; 00000062H
  001aa	79		 DB	 121			; 00000079H
  001ab	74		 DB	 116			; 00000074H
  001ac	65		 DB	 101			; 00000065H
  001ad	00		 DB	 0
?ReadAniFile@@YAHH@Z ENDP				; ReadAniFile
_TEXT	ENDS
; Function compile flags: /Odtp /RTCsu /ZI
; File c:\users\administrator\desktop\????? ??\????? ??\client source code\system\field.cpp
;	COMDAT ?AniRandomRelease@@YAXXZ
_TEXT	SEGMENT
_i$1 = -8						; size = 4
?AniRandomRelease@@YAXXZ PROC				; AniRandomRelease, COMDAT

; 3029 : {

  00000	55		 push	 ebp
  00001	8b ec		 mov	 ebp, esp
  00003	81 ec cc 00 00
	00		 sub	 esp, 204		; 000000ccH
  00009	53		 push	 ebx
  0000a	56		 push	 esi
  0000b	57		 push	 edi
  0000c	8d bd 34 ff ff
	ff		 lea	 edi, DWORD PTR [ebp-204]
  00012	b9 33 00 00 00	 mov	 ecx, 51			; 00000033H
  00017	b8 cc cc cc cc	 mov	 eax, -858993460		; ccccccccH
  0001c	f3 ab		 rep stosd

; 3030 : 	for (int i = 0; i < 50; i ++)

  0001e	c7 45 f8 00 00
	00 00		 mov	 DWORD PTR _i$1[ebp], 0
  00025	eb 09		 jmp	 SHORT $LN4@AniRandomR
$LN2@AniRandomR:
  00027	8b 45 f8	 mov	 eax, DWORD PTR _i$1[ebp]
  0002a	83 c0 01	 add	 eax, 1
  0002d	89 45 f8	 mov	 DWORD PTR _i$1[ebp], eax
$LN4@AniRandomR:
  00030	83 7d f8 32	 cmp	 DWORD PTR _i$1[ebp], 50	; 00000032H
  00034	7d 30		 jge	 SHORT $LN1@AniRandomR

; 3031 : 	{
; 3032 : 		if (WaterAct[i] != NULL)

  00036	8b 45 f8	 mov	 eax, DWORD PTR _i$1[ebp]
  00039	83 3c 85 00 00
	00 00 00	 cmp	 DWORD PTR ?WaterAct@@3PAPAUaction@@A[eax*4], 0
  00041	74 21		 je	 SHORT $LN5@AniRandomR

; 3033 : 		{
; 3034 : 			DeathAction(WaterAct[i]);

  00043	8b 45 f8	 mov	 eax, DWORD PTR _i$1[ebp]
  00046	8b 0c 85 00 00
	00 00		 mov	 ecx, DWORD PTR ?WaterAct@@3PAPAUaction@@A[eax*4]
  0004d	51		 push	 ecx
  0004e	e8 00 00 00 00	 call	 ?DeathAction@@YAXPAUaction@@@Z ; DeathAction
  00053	83 c4 04	 add	 esp, 4

; 3035 : 			WaterAct[i] = NULL;

  00056	8b 45 f8	 mov	 eax, DWORD PTR _i$1[ebp]
  00059	c7 04 85 00 00
	00 00 00 00 00
	00		 mov	 DWORD PTR ?WaterAct@@3PAPAUaction@@A[eax*4], 0
$LN5@AniRandomR:

; 3036 : 		}
; 3037 : 	}

  00064	eb c1		 jmp	 SHORT $LN2@AniRandomR
$LN1@AniRandomR:

; 3038 : }

  00066	5f		 pop	 edi
  00067	5e		 pop	 esi
  00068	5b		 pop	 ebx
  00069	81 c4 cc 00 00
	00		 add	 esp, 204		; 000000ccH
  0006f	3b ec		 cmp	 ebp, esp
  00071	e8 00 00 00 00	 call	 __RTC_CheckEsp
  00076	8b e5		 mov	 esp, ebp
  00078	5d		 pop	 ebp
  00079	c3		 ret	 0
?AniRandomRelease@@YAXXZ ENDP				; AniRandomRelease
_TEXT	ENDS
; Function compile flags: /Odtp /RTCsu /ZI
; File c:\users\administrator\desktop\????? ??\????? ??\client source code\system\field.cpp
;	COMDAT ?ImmobileAniRelease@@YAXXZ
_TEXT	SEGMENT
_i$1 = -8						; size = 4
?ImmobileAniRelease@@YAXXZ PROC				; ImmobileAniRelease, COMDAT

; 3007 : {

  00000	55		 push	 ebp
  00001	8b ec		 mov	 ebp, esp
  00003	81 ec cc 00 00
	00		 sub	 esp, 204		; 000000ccH
  00009	53		 push	 ebx
  0000a	56		 push	 esi
  0000b	57		 push	 edi
  0000c	8d bd 34 ff ff
	ff		 lea	 edi, DWORD PTR [ebp-204]
  00012	b9 33 00 00 00	 mov	 ecx, 51			; 00000033H
  00017	b8 cc cc cc cc	 mov	 eax, -858993460		; ccccccccH
  0001c	f3 ab		 rep stosd

; 3008 : 	Updownflag = false;

  0001e	c6 05 00 00 00
	00 00		 mov	 BYTE PTR ?Updownflag@@3_NA, 0 ; Updownflag

; 3009 : 	for (int i = 0; i < 560; i++)

  00025	c7 45 f8 00 00
	00 00		 mov	 DWORD PTR _i$1[ebp], 0
  0002c	eb 09		 jmp	 SHORT $LN4@ImmobileAn
$LN2@ImmobileAn:
  0002e	8b 45 f8	 mov	 eax, DWORD PTR _i$1[ebp]
  00031	83 c0 01	 add	 eax, 1
  00034	89 45 f8	 mov	 DWORD PTR _i$1[ebp], eax
$LN4@ImmobileAn:
  00037	81 7d f8 30 02
	00 00		 cmp	 DWORD PTR _i$1[ebp], 560 ; 00000230H
  0003e	0f 8d c6 00 00
	00		 jge	 $LN1@ImmobileAn

; 3010 : 	{
; 3011 : 		if (XYposition[i][3] == 1)

  00044	6b 45 f8 1c	 imul	 eax, DWORD PTR _i$1[ebp], 28
  00048	b9 04 00 00 00	 mov	 ecx, 4
  0004d	6b d1 03	 imul	 edx, ecx, 3
  00050	83 bc 10 00 00
	00 00 01	 cmp	 DWORD PTR ?XYposition@@3PAY06HA[eax+edx], 1
  00058	0f 85 a7 00 00
	00		 jne	 $LN5@ImmobileAn

; 3012 : 		{
; 3013 : 			if (WaterAct3[XYposition[i][4]] != NULL)

  0005e	6b 45 f8 1c	 imul	 eax, DWORD PTR _i$1[ebp], 28
  00062	b9 04 00 00 00	 mov	 ecx, 4
  00067	c1 e1 02	 shl	 ecx, 2
  0006a	8b 94 08 00 00
	00 00		 mov	 edx, DWORD PTR ?XYposition@@3PAY06HA[eax+ecx]
  00071	83 3c 95 00 00
	00 00 00	 cmp	 DWORD PTR ?WaterAct3@@3PAPAUaction@@A[edx*4], 0
  00079	0f 84 86 00 00
	00		 je	 $LN5@ImmobileAn

; 3014 : 			{
; 3015 : 				DeathAction(WaterAct3[XYposition[i][4]]);

  0007f	6b 45 f8 1c	 imul	 eax, DWORD PTR _i$1[ebp], 28
  00083	b9 04 00 00 00	 mov	 ecx, 4
  00088	c1 e1 02	 shl	 ecx, 2
  0008b	8b 94 08 00 00
	00 00		 mov	 edx, DWORD PTR ?XYposition@@3PAY06HA[eax+ecx]
  00092	8b 04 95 00 00
	00 00		 mov	 eax, DWORD PTR ?WaterAct3@@3PAPAUaction@@A[edx*4]
  00099	50		 push	 eax
  0009a	e8 00 00 00 00	 call	 ?DeathAction@@YAXPAUaction@@@Z ; DeathAction
  0009f	83 c4 04	 add	 esp, 4

; 3016 : 				WaterAct3[XYposition[i][4]] = NULL;

  000a2	6b 45 f8 1c	 imul	 eax, DWORD PTR _i$1[ebp], 28
  000a6	b9 04 00 00 00	 mov	 ecx, 4
  000ab	c1 e1 02	 shl	 ecx, 2
  000ae	8b 94 08 00 00
	00 00		 mov	 edx, DWORD PTR ?XYposition@@3PAY06HA[eax+ecx]
  000b5	c7 04 95 00 00
	00 00 00 00 00
	00		 mov	 DWORD PTR ?WaterAct3@@3PAPAUaction@@A[edx*4], 0

; 3017 : 				XYposition[i][3] = 0  ;

  000c0	6b 45 f8 1c	 imul	 eax, DWORD PTR _i$1[ebp], 28
  000c4	b9 04 00 00 00	 mov	 ecx, 4
  000c9	6b d1 03	 imul	 edx, ecx, 3
  000cc	c7 84 10 00 00
	00 00 00 00 00
	00		 mov	 DWORD PTR ?XYposition@@3PAY06HA[eax+edx], 0

; 3018 : 				XYposition[i][4] = -1 ;

  000d7	6b 45 f8 1c	 imul	 eax, DWORD PTR _i$1[ebp], 28
  000db	b9 04 00 00 00	 mov	 ecx, 4
  000e0	c1 e1 02	 shl	 ecx, 2
  000e3	c7 84 08 00 00
	00 00 ff ff ff
	ff		 mov	 DWORD PTR ?XYposition@@3PAY06HA[eax+ecx], -1

; 3019 : //				XYposition[i][5] = 1  ; //板涓婕娴2锛涓
; 3020 : 				XYposition[i][6] = 0  ;

  000ee	6b 45 f8 1c	 imul	 eax, DWORD PTR _i$1[ebp], 28
  000f2	b9 04 00 00 00	 mov	 ecx, 4
  000f7	6b d1 06	 imul	 edx, ecx, 6
  000fa	c7 84 10 00 00
	00 00 00 00 00
	00		 mov	 DWORD PTR ?XYposition@@3PAY06HA[eax+edx], 0
$LN5@ImmobileAn:

; 3021 : 			}
; 3022 : 		}
; 3023 : 	}

  00105	e9 24 ff ff ff	 jmp	 $LN2@ImmobileAn
$LN1@ImmobileAn:

; 3024 : }

  0010a	5f		 pop	 edi
  0010b	5e		 pop	 esi
  0010c	5b		 pop	 ebx
  0010d	81 c4 cc 00 00
	00		 add	 esp, 204		; 000000ccH
  00113	3b ec		 cmp	 ebp, esp
  00115	e8 00 00 00 00	 call	 __RTC_CheckEsp
  0011a	8b e5		 mov	 esp, ebp
  0011c	5d		 pop	 ebp
  0011d	c3		 ret	 0
?ImmobileAniRelease@@YAXXZ ENDP				; ImmobileAniRelease
_TEXT	ENDS
; Function compile flags: /Odtp /RTCsu /ZI
; File c:\users\administrator\desktop\????? ??\????? ??\client source code\system\field.cpp
;	COMDAT ?crossAniRelease@@YAXXZ
_TEXT	SEGMENT
?crossAniRelease@@YAXXZ PROC				; crossAniRelease, COMDAT

; 2996 : void crossAniRelease(){

  00000	55		 push	 ebp
  00001	8b ec		 mov	 ebp, esp
  00003	81 ec c0 00 00
	00		 sub	 esp, 192		; 000000c0H
  00009	53		 push	 ebx
  0000a	56		 push	 esi
  0000b	57		 push	 edi
  0000c	8d bd 40 ff ff
	ff		 lea	 edi, DWORD PTR [ebp-192]
  00012	b9 30 00 00 00	 mov	 ecx, 48			; 00000030H
  00017	b8 cc cc cc cc	 mov	 eax, -858993460		; ccccccccH
  0001c	f3 ab		 rep stosd

; 2997 : 	if (WaterAct2 != NULL){

  0001e	83 3d 00 00 00
	00 00		 cmp	 DWORD PTR ?WaterAct2@@3PAUaction@@A, 0
  00025	74 1f		 je	 SHORT $LN1@crossAniRe

; 2998 : 		DeathAction(WaterAct2);

  00027	a1 00 00 00 00	 mov	 eax, DWORD PTR ?WaterAct2@@3PAUaction@@A
  0002c	50		 push	 eax
  0002d	e8 00 00 00 00	 call	 ?DeathAction@@YAXPAUaction@@@Z ; DeathAction
  00032	83 c4 04	 add	 esp, 4

; 2999 : 		WaterAct2 = NULL;

  00035	c7 05 00 00 00
	00 00 00 00 00	 mov	 DWORD PTR ?WaterAct2@@3PAUaction@@A, 0

; 3000 : 		Timeflag2 = false;

  0003f	c6 05 00 00 00
	00 00		 mov	 BYTE PTR ?Timeflag2@@3_NA, 0 ; Timeflag2
$LN1@crossAniRe:

; 3001 : 	}
; 3002 : }

  00046	5f		 pop	 edi
  00047	5e		 pop	 esi
  00048	5b		 pop	 ebx
  00049	81 c4 c0 00 00
	00		 add	 esp, 192		; 000000c0H
  0004f	3b ec		 cmp	 ebp, esp
  00051	e8 00 00 00 00	 call	 __RTC_CheckEsp
  00056	8b e5		 mov	 esp, ebp
  00058	5d		 pop	 ebp
  00059	c3		 ret	 0
?crossAniRelease@@YAXXZ ENDP				; crossAniRelease
_TEXT	ENDS
; Function compile flags: /Odtp /RTCsu /ZI
; File c:\users\administrator\desktop\????? ??\????? ??\client source code\system\field.cpp
;	COMDAT ?leaderFuncWN@@YAXXZ
_TEXT	SEGMENT
_临时补X$1 = -1116					; size = 4
_selgraId$ = -1104					; size = 4
_selId$ = -1092						; size = 4
_buf$ = -1080						; size = 1024
_h$ = -48						; size = 4
_w$ = -36						; size = 4
_y$ = -24						; size = 4
_x$ = -12						; size = 4
__$ArrayPad$ = -4					; size = 4
?leaderFuncWN@@YAXXZ PROC				; leaderFuncWN, COMDAT

; 5223 : {

  00000	55		 push	 ebp
  00001	8b ec		 mov	 ebp, esp
  00003	81 ec a0 06 00
	00		 sub	 esp, 1696		; 000006a0H
  00009	53		 push	 ebx
  0000a	56		 push	 esi
  0000b	57		 push	 edi
  0000c	8d bd 60 f9 ff
	ff		 lea	 edi, DWORD PTR [ebp-1696]
  00012	b9 a8 01 00 00	 mov	 ecx, 424		; 000001a8H
  00017	b8 cc cc cc cc	 mov	 eax, -858993460		; ccccccccH
  0001c	f3 ab		 rep stosd
  0001e	a1 00 00 00 00	 mov	 eax, DWORD PTR ___security_cookie
  00023	33 c5		 xor	 eax, ebp
  00025	89 45 fc	 mov	 DWORD PTR __$ArrayPad$[ebp], eax

; 5224 : 	//static ACTION *ptActMenuWin = NULL;
; 5225 : 	int x, y, w, h;
; 5226 : 	static int btnId[9];
; 5227 : 	static int graId[1];
; 5228 : 	char buf[1024];
; 5229 : 	int selId;
; 5230 : 	int selgraId;
; 5231 : 
; 5232 : 	x = 160;

  00028	c7 45 f4 a0 00
	00 00		 mov	 DWORD PTR _x$[ebp], 160	; 000000a0H

; 5233 : 	y = 30;

  0002f	c7 45 e8 1e 00
	00 00		 mov	 DWORD PTR _y$[ebp], 30	; 0000001eH

; 5234 : 	w = 2;

  00036	c7 45 dc 02 00
	00 00		 mov	 DWORD PTR _w$[ebp], 2

; 5235 : 	h = 7;

  0003d	c7 45 d0 07 00
	00 00		 mov	 DWORD PTR _h$[ebp], 7

; 5236 : 
; 5237 : 	if (ptActLeaderFuncWin == NULL)

  00044	83 3d 00 00 00
	00 00		 cmp	 DWORD PTR ?ptActLeaderFuncWin@@3PAUaction@@A, 0
  0004b	75 3c		 jne	 SHORT $LN2@leaderFunc

; 5238 : 	{
; 5239 : 		ptActLeaderFuncWin = MakeWindowDisp(x, y, w, h, NULL, 1);

  0004d	6a 01		 push	 1
  0004f	6a 00		 push	 0
  00051	8b 45 d0	 mov	 eax, DWORD PTR _h$[ebp]
  00054	50		 push	 eax
  00055	8b 4d dc	 mov	 ecx, DWORD PTR _w$[ebp]
  00058	51		 push	 ecx
  00059	8b 55 e8	 mov	 edx, DWORD PTR _y$[ebp]
  0005c	52		 push	 edx
  0005d	8b 45 f4	 mov	 eax, DWORD PTR _x$[ebp]
  00060	50		 push	 eax
  00061	e8 00 00 00 00	 call	 ?MakeWindowDisp@@YAPAUaction@@HHHHHH@Z ; MakeWindowDisp
  00066	83 c4 18	 add	 esp, 24			; 00000018H
  00069	a3 00 00 00 00	 mov	 DWORD PTR ?ptActLeaderFuncWin@@3PAUaction@@A, eax

; 5240 : #ifdef _NEW_RESOMODE  //800 600妯″
; 5241 : 		x = ptActLeaderFuncWin->x;

  0006e	a1 00 00 00 00	 mov	 eax, DWORD PTR ?ptActLeaderFuncWin@@3PAUaction@@A
  00073	8b 48 18	 mov	 ecx, DWORD PTR [eax+24]
  00076	89 4d f4	 mov	 DWORD PTR _x$[ebp], ecx

; 5242 : 		y = ptActLeaderFuncWin->y;

  00079	a1 00 00 00 00	 mov	 eax, DWORD PTR ?ptActLeaderFuncWin@@3PAUaction@@A
  0007e	8b 48 1c	 mov	 ecx, DWORD PTR [eax+28]
  00081	89 4d e8	 mov	 DWORD PTR _y$[ebp], ecx
  00084	e9 00 06 00 00	 jmp	 $LN1@leaderFunc
$LN2@leaderFunc:

; 5243 : #endif
; 5244 : 	}
; 5245 : 	else if (ptActLeaderFuncWin->hp >= 1)

  00089	a1 00 00 00 00	 mov	 eax, DWORD PTR ?ptActLeaderFuncWin@@3PAUaction@@A
  0008e	83 78 78 01	 cmp	 DWORD PTR [eax+120], 1
  00092	0f 8c f1 05 00
	00		 jl	 $LN1@leaderFunc

; 5246 : 	{
; 5247 : 		// ESC????????
; 5248 : 		if (((joy_trg[0] & JOY_ESC) && GetImeString() == NULL))

  00098	b8 04 00 00 00	 mov	 eax, 4
  0009d	6b c8 00	 imul	 ecx, eax, 0
  000a0	8b 91 00 00 00
	00		 mov	 edx, DWORD PTR ?joy_trg@@3PAKA[ecx]
  000a6	81 e2 00 00 00
	80		 and	 edx, -2147483648	; 80000000H
  000ac	74 25		 je	 SHORT $LN5@leaderFunc
  000ae	e8 00 00 00 00	 call	 ?GetImeString@@YAPADXZ	; GetImeString
  000b3	85 c0		 test	 eax, eax
  000b5	75 1c		 jne	 SHORT $LN5@leaderFunc

; 5249 : 		{
; 5250 : 			closeJoinChannelWN();

  000b7	e8 00 00 00 00	 call	 ?closeJoinChannelWN@@YAXXZ ; closeJoinChannelWN

; 5251 : 			play_se(203, 320, 240);	// ????????

  000bc	68 f0 00 00 00	 push	 240			; 000000f0H
  000c1	68 40 01 00 00	 push	 320			; 00000140H
  000c6	68 cb 00 00 00	 push	 203			; 000000cbH
  000cb	e8 00 00 00 00	 call	 ?play_se@@YAHHHH@Z	; play_se
  000d0	83 c4 0c	 add	 esp, 12			; 0000000cH
$LN5@leaderFunc:

; 5252 : 		}
; 5253 : 		if (CheckMenuFlag())

  000d3	e8 00 00 00 00	 call	 ?CheckMenuFlag@@YAHXZ	; CheckMenuFlag
  000d8	85 c0		 test	 eax, eax
  000da	74 05		 je	 SHORT $LN6@leaderFunc

; 5254 : 			closeJoinChannelWN();

  000dc	e8 00 00 00 00	 call	 ?closeJoinChannelWN@@YAXXZ ; closeJoinChannelWN
$LN6@leaderFunc:

; 5255 : 
; 5256 : 		selId = focusFontId(btnId, sizeof(btnId) / sizeof(int));

  000e1	6a 09		 push	 9
  000e3	68 00 00 00 00	 push	 OFFSET ?btnId@?1??leaderFuncWN@@YAXXZ@4PAHA
  000e8	e8 00 00 00 00	 call	 ?focusFontId@@YAHPAHH@Z	; focusFontId
  000ed	83 c4 08	 add	 esp, 8
  000f0	89 85 bc fb ff
	ff		 mov	 DWORD PTR _selId$[ebp], eax

; 5257 : 		selgraId = focusGraId(graId, sizeof(graId) / sizeof(int));

  000f6	6a 01		 push	 1
  000f8	68 00 00 00 00	 push	 OFFSET ?graId@?1??leaderFuncWN@@YAXXZ@4PAHA
  000fd	e8 00 00 00 00	 call	 ?focusGraId@@YAHPAHH@Z	; focusGraId
  00102	83 c4 08	 add	 esp, 8
  00105	89 85 b0 fb ff
	ff		 mov	 DWORD PTR _selgraId$[ebp], eax

; 5258 : 				
; 5259 : 		if (mouse.onceState & MOUSE_LEFT_CRICK)

  0010b	a1 2c 00 00 00	 mov	 eax, DWORD PTR ?mouse@@3UMOUSE@@A+44
  00110	83 e0 01	 and	 eax, 1
  00113	0f 84 57 02 00
	00		 je	 $LN7@leaderFunc

; 5260 : 		{
; 5261 : 			if (selId == 1)

  00119	83 bd bc fb ff
	ff 01		 cmp	 DWORD PTR _selId$[ebp], 1
  00120	75 7a		 jne	 SHORT $LN8@leaderFunc

; 5262 : 			{
; 5263 : #ifdef _FMVER21
; 5264 : 				if (pc.familyleader != FMMEMBER_LEADER)

  00122	83 3d 08 51 00
	00 03		 cmp	 DWORD PTR ?pc@@3UPC@@A+20744, 3
  00129	74 05		 je	 SHORT $LN9@leaderFunc

; 5265 : #else
; 5266 : 				if (pc.familyleader != 1)
; 5267 : #endif
; 5268 : 					return;

  0012b	e9 59 05 00 00	 jmp	 $LN1@leaderFunc
$LN9@leaderFunc:

; 5269 : 				sprintf(buf, "C|J|5");

  00130	68 00 00 00 00	 push	 OFFSET ??_C@_05PAKAMAIL@C?$HMJ?$HM5?$AA@
  00135	8d 85 c8 fb ff
	ff		 lea	 eax, DWORD PTR _buf$[ebp]
  0013b	50		 push	 eax
  0013c	e8 00 00 00 00	 call	 _sprintf
  00141	83 c4 08	 add	 esp, 8

; 5270 : 				if (bNewServer)

  00144	83 3d 00 00 00
	00 00		 cmp	 DWORD PTR ?bNewServer@@3HA, 0 ; bNewServer
  0014b	74 18		 je	 SHORT $LN10@leaderFunc

; 5271 : 					lssproto_FM_send(sockfd, buf);

  0014d	8d 85 c8 fb ff
	ff		 lea	 eax, DWORD PTR _buf$[ebp]
  00153	50		 push	 eax
  00154	8b 0d 00 00 00
	00		 mov	 ecx, DWORD PTR ?sockfd@@3IA ; sockfd
  0015a	51		 push	 ecx
  0015b	e8 00 00 00 00	 call	 ?lssproto_FM_send@@YAXHPAD@Z ; lssproto_FM_send
  00160	83 c4 08	 add	 esp, 8

; 5272 : 				else

  00163	eb 16		 jmp	 SHORT $LN11@leaderFunc
$LN10@leaderFunc:

; 5273 : 					old_lssproto_FM_send(sockfd, buf);

  00165	8d 85 c8 fb ff
	ff		 lea	 eax, DWORD PTR _buf$[ebp]
  0016b	50		 push	 eax
  0016c	8b 0d 00 00 00
	00		 mov	 ecx, DWORD PTR ?sockfd@@3IA ; sockfd
  00172	51		 push	 ecx
  00173	e8 00 00 00 00	 call	 ?old_lssproto_FM_send@@YAXHPAD@Z ; old_lssproto_FM_send
  00178	83 c4 08	 add	 esp, 8
$LN11@leaderFunc:

; 5274 : 				closeJoinChannelWN();

  0017b	e8 00 00 00 00	 call	 ?closeJoinChannelWN@@YAXXZ ; closeJoinChannelWN

; 5275 : 				play_se(203, 320, 240);	// ????????

  00180	68 f0 00 00 00	 push	 240			; 000000f0H
  00185	68 40 01 00 00	 push	 320			; 00000140H
  0018a	68 cb 00 00 00	 push	 203			; 000000cbH
  0018f	e8 00 00 00 00	 call	 ?play_se@@YAHHHH@Z	; play_se
  00194	83 c4 0c	 add	 esp, 12			; 0000000cH

; 5276 : 				return;

  00197	e9 ed 04 00 00	 jmp	 $LN1@leaderFunc
$LN8@leaderFunc:

; 5277 : 			}
; 5278 : 			if (selId == 2)

  0019c	83 bd bc fb ff
	ff 02		 cmp	 DWORD PTR _selId$[ebp], 2
  001a3	75 6c		 jne	 SHORT $LN12@leaderFunc

; 5279 : 			{
; 5280 : 				sprintf(buf, "L|F|1");

  001a5	68 00 00 00 00	 push	 OFFSET ??_C@_05CPEMAIOC@L?$HMF?$HM1?$AA@
  001aa	8d 85 c8 fb ff
	ff		 lea	 eax, DWORD PTR _buf$[ebp]
  001b0	50		 push	 eax
  001b1	e8 00 00 00 00	 call	 _sprintf
  001b6	83 c4 08	 add	 esp, 8

; 5281 : 				if (bNewServer)

  001b9	83 3d 00 00 00
	00 00		 cmp	 DWORD PTR ?bNewServer@@3HA, 0 ; bNewServer
  001c0	74 18		 je	 SHORT $LN13@leaderFunc

; 5282 : 					lssproto_FM_send(sockfd, buf);

  001c2	8d 85 c8 fb ff
	ff		 lea	 eax, DWORD PTR _buf$[ebp]
  001c8	50		 push	 eax
  001c9	8b 0d 00 00 00
	00		 mov	 ecx, DWORD PTR ?sockfd@@3IA ; sockfd
  001cf	51		 push	 ecx
  001d0	e8 00 00 00 00	 call	 ?lssproto_FM_send@@YAXHPAD@Z ; lssproto_FM_send
  001d5	83 c4 08	 add	 esp, 8

; 5283 : 				else

  001d8	eb 16		 jmp	 SHORT $LN14@leaderFunc
$LN13@leaderFunc:

; 5284 : 					old_lssproto_FM_send(sockfd, buf);

  001da	8d 85 c8 fb ff
	ff		 lea	 eax, DWORD PTR _buf$[ebp]
  001e0	50		 push	 eax
  001e1	8b 0d 00 00 00
	00		 mov	 ecx, DWORD PTR ?sockfd@@3IA ; sockfd
  001e7	51		 push	 ecx
  001e8	e8 00 00 00 00	 call	 ?old_lssproto_FM_send@@YAXHPAD@Z ; old_lssproto_FM_send
  001ed	83 c4 08	 add	 esp, 8
$LN14@leaderFunc:

; 5285 : 				closeJoinChannelWN();

  001f0	e8 00 00 00 00	 call	 ?closeJoinChannelWN@@YAXXZ ; closeJoinChannelWN

; 5286 : 				play_se(203, 320, 240);	// ????????

  001f5	68 f0 00 00 00	 push	 240			; 000000f0H
  001fa	68 40 01 00 00	 push	 320			; 00000140H
  001ff	68 cb 00 00 00	 push	 203			; 000000cbH
  00204	e8 00 00 00 00	 call	 ?play_se@@YAHHHH@Z	; play_se
  00209	83 c4 0c	 add	 esp, 12			; 0000000cH

; 5287 : 				return;

  0020c	e9 78 04 00 00	 jmp	 $LN1@leaderFunc
$LN12@leaderFunc:

; 5288 : 			}
; 5289 : 
; 5290 : 			if (selId == 3)

  00211	83 bd bc fb ff
	ff 03		 cmp	 DWORD PTR _selId$[ebp], 3
  00218	75 6c		 jne	 SHORT $LN15@leaderFunc

; 5291 : 			{
; 5292 : 				sprintf(buf, "L|L|1");

  0021a	68 00 00 00 00	 push	 OFFSET ??_C@_05EAPBOIIG@L?$HML?$HM1?$AA@
  0021f	8d 85 c8 fb ff
	ff		 lea	 eax, DWORD PTR _buf$[ebp]
  00225	50		 push	 eax
  00226	e8 00 00 00 00	 call	 _sprintf
  0022b	83 c4 08	 add	 esp, 8

; 5293 : 				if (bNewServer)

  0022e	83 3d 00 00 00
	00 00		 cmp	 DWORD PTR ?bNewServer@@3HA, 0 ; bNewServer
  00235	74 18		 je	 SHORT $LN16@leaderFunc

; 5294 : 					lssproto_FM_send(sockfd, buf);

  00237	8d 85 c8 fb ff
	ff		 lea	 eax, DWORD PTR _buf$[ebp]
  0023d	50		 push	 eax
  0023e	8b 0d 00 00 00
	00		 mov	 ecx, DWORD PTR ?sockfd@@3IA ; sockfd
  00244	51		 push	 ecx
  00245	e8 00 00 00 00	 call	 ?lssproto_FM_send@@YAXHPAD@Z ; lssproto_FM_send
  0024a	83 c4 08	 add	 esp, 8

; 5295 : 				else

  0024d	eb 16		 jmp	 SHORT $LN17@leaderFunc
$LN16@leaderFunc:

; 5296 : 					old_lssproto_FM_send(sockfd, buf);

  0024f	8d 85 c8 fb ff
	ff		 lea	 eax, DWORD PTR _buf$[ebp]
  00255	50		 push	 eax
  00256	8b 0d 00 00 00
	00		 mov	 ecx, DWORD PTR ?sockfd@@3IA ; sockfd
  0025c	51		 push	 ecx
  0025d	e8 00 00 00 00	 call	 ?old_lssproto_FM_send@@YAXHPAD@Z ; old_lssproto_FM_send
  00262	83 c4 08	 add	 esp, 8
$LN17@leaderFunc:

; 5297 : 				closeJoinChannelWN();

  00265	e8 00 00 00 00	 call	 ?closeJoinChannelWN@@YAXXZ ; closeJoinChannelWN

; 5298 : 				play_se(203, 320, 240);	// ????????

  0026a	68 f0 00 00 00	 push	 240			; 000000f0H
  0026f	68 40 01 00 00	 push	 320			; 00000140H
  00274	68 cb 00 00 00	 push	 203			; 000000cbH
  00279	e8 00 00 00 00	 call	 ?play_se@@YAHHHH@Z	; play_se
  0027e	83 c4 0c	 add	 esp, 12			; 0000000cH

; 5299 : 				return;

  00281	e9 03 04 00 00	 jmp	 $LN1@leaderFunc
$LN15@leaderFunc:

; 5300 : 			}
; 5301 : 			if (selId == 4)

  00286	83 bd bc fb ff
	ff 04		 cmp	 DWORD PTR _selId$[ebp], 4
  0028d	75 6c		 jne	 SHORT $LN18@leaderFunc

; 5302 : 			{
; 5303 : 				sprintf(buf, "L|L|2");

  0028f	68 00 00 00 00	 push	 OFFSET ??_C@_05GLNMLLEF@L?$HML?$HM2?$AA@
  00294	8d 85 c8 fb ff
	ff		 lea	 eax, DWORD PTR _buf$[ebp]
  0029a	50		 push	 eax
  0029b	e8 00 00 00 00	 call	 _sprintf
  002a0	83 c4 08	 add	 esp, 8

; 5304 : 				if (bNewServer)

  002a3	83 3d 00 00 00
	00 00		 cmp	 DWORD PTR ?bNewServer@@3HA, 0 ; bNewServer
  002aa	74 18		 je	 SHORT $LN19@leaderFunc

; 5305 : 					lssproto_FM_send(sockfd, buf);

  002ac	8d 85 c8 fb ff
	ff		 lea	 eax, DWORD PTR _buf$[ebp]
  002b2	50		 push	 eax
  002b3	8b 0d 00 00 00
	00		 mov	 ecx, DWORD PTR ?sockfd@@3IA ; sockfd
  002b9	51		 push	 ecx
  002ba	e8 00 00 00 00	 call	 ?lssproto_FM_send@@YAXHPAD@Z ; lssproto_FM_send
  002bf	83 c4 08	 add	 esp, 8

; 5306 : 				else

  002c2	eb 16		 jmp	 SHORT $LN20@leaderFunc
$LN19@leaderFunc:

; 5307 : 					old_lssproto_FM_send(sockfd, buf);

  002c4	8d 85 c8 fb ff
	ff		 lea	 eax, DWORD PTR _buf$[ebp]
  002ca	50		 push	 eax
  002cb	8b 0d 00 00 00
	00		 mov	 ecx, DWORD PTR ?sockfd@@3IA ; sockfd
  002d1	51		 push	 ecx
  002d2	e8 00 00 00 00	 call	 ?old_lssproto_FM_send@@YAXHPAD@Z ; old_lssproto_FM_send
  002d7	83 c4 08	 add	 esp, 8
$LN20@leaderFunc:

; 5308 : 				closeJoinChannelWN();

  002da	e8 00 00 00 00	 call	 ?closeJoinChannelWN@@YAXXZ ; closeJoinChannelWN

; 5309 : 				play_se(203, 320, 240);	// ????????

  002df	68 f0 00 00 00	 push	 240			; 000000f0H
  002e4	68 40 01 00 00	 push	 320			; 00000140H
  002e9	68 cb 00 00 00	 push	 203			; 000000cbH
  002ee	e8 00 00 00 00	 call	 ?play_se@@YAHHHH@Z	; play_se
  002f3	83 c4 0c	 add	 esp, 12			; 0000000cH

; 5310 : 				return;

  002f6	e9 8e 03 00 00	 jmp	 $LN1@leaderFunc
$LN18@leaderFunc:

; 5311 : 			}
; 5312 : 
; 5313 : 			if (selId == 5)

  002fb	83 bd bc fb ff
	ff 05		 cmp	 DWORD PTR _selId$[ebp], 5
  00302	75 6c		 jne	 SHORT $LN7@leaderFunc

; 5314 : 			{
; 5315 : 				sprintf(buf, "L|CHANGE|L");

  00304	68 00 00 00 00	 push	 OFFSET ??_C@_0L@CJCIOOAN@L?$HMCHANGE?$HML?$AA@
  00309	8d 85 c8 fb ff
	ff		 lea	 eax, DWORD PTR _buf$[ebp]
  0030f	50		 push	 eax
  00310	e8 00 00 00 00	 call	 _sprintf
  00315	83 c4 08	 add	 esp, 8

; 5316 : 				if (bNewServer)

  00318	83 3d 00 00 00
	00 00		 cmp	 DWORD PTR ?bNewServer@@3HA, 0 ; bNewServer
  0031f	74 18		 je	 SHORT $LN22@leaderFunc

; 5317 : 					lssproto_FM_send(sockfd, buf);

  00321	8d 85 c8 fb ff
	ff		 lea	 eax, DWORD PTR _buf$[ebp]
  00327	50		 push	 eax
  00328	8b 0d 00 00 00
	00		 mov	 ecx, DWORD PTR ?sockfd@@3IA ; sockfd
  0032e	51		 push	 ecx
  0032f	e8 00 00 00 00	 call	 ?lssproto_FM_send@@YAXHPAD@Z ; lssproto_FM_send
  00334	83 c4 08	 add	 esp, 8

; 5318 : 				else

  00337	eb 16		 jmp	 SHORT $LN23@leaderFunc
$LN22@leaderFunc:

; 5319 : 					old_lssproto_FM_send(sockfd, buf);

  00339	8d 85 c8 fb ff
	ff		 lea	 eax, DWORD PTR _buf$[ebp]
  0033f	50		 push	 eax
  00340	8b 0d 00 00 00
	00		 mov	 ecx, DWORD PTR ?sockfd@@3IA ; sockfd
  00346	51		 push	 ecx
  00347	e8 00 00 00 00	 call	 ?old_lssproto_FM_send@@YAXHPAD@Z ; old_lssproto_FM_send
  0034c	83 c4 08	 add	 esp, 8
$LN23@leaderFunc:

; 5320 : 				closeJoinChannelWN();

  0034f	e8 00 00 00 00	 call	 ?closeJoinChannelWN@@YAXXZ ; closeJoinChannelWN

; 5321 : 				play_se(203, 320, 240);	// ????????

  00354	68 f0 00 00 00	 push	 240			; 000000f0H
  00359	68 40 01 00 00	 push	 320			; 00000140H
  0035e	68 cb 00 00 00	 push	 203			; 000000cbH
  00363	e8 00 00 00 00	 call	 ?play_se@@YAHHHH@Z	; play_se
  00368	83 c4 0c	 add	 esp, 12			; 0000000cH

; 5322 : 				return;

  0036b	e9 19 03 00 00	 jmp	 $LN1@leaderFunc
$LN7@leaderFunc:

; 5323 : 			}
; 5324 : #ifdef	_ADD_FAMILY_TAX		// WON ADD 澧搴绋
; 5325 : 			if (selId == 6) 
; 5326 : 			{
; 5327 : 				sprintf(buf, "L|FMTAX|W");
; 5328 : 				if (bNewServer)
; 5329 : 					lssproto_FM_send(sockfd, buf);
; 5330 : 				else
; 5331 : 					old_lssproto_FM_send(sockfd, buf);
; 5332 : 				closeJoinChannelWN();
; 5333 : 				play_se(203, 320, 240);	// ????????
; 5334 : 				return;
; 5335 : 			}
; 5336 : #endif
; 5337 : 		}
; 5338 : 		int 涓存惰ˉX = 0;

  00370	c7 85 a4 fb ff
	ff 00 00 00 00	 mov	 DWORD PTR _临时补X$1[ebp], 0

; 5339 : 		if (ResoMode == 杈ㄧ::mode800){

  0037a	83 3d 00 00 00
	00 03		 cmp	 DWORD PTR ?ResoMode@@3HA, 3 ; ResoMode
  00381	75 0c		 jne	 SHORT $LN24@leaderFunc

; 5340 : 			涓存惰ˉX = 80;

  00383	c7 85 a4 fb ff
	ff 50 00 00 00	 mov	 DWORD PTR _临时补X$1[ebp], 80 ; 00000050H
  0038d	eb 13		 jmp	 SHORT $LN25@leaderFunc
$LN24@leaderFunc:

; 5341 : 		}else if (ResoMode == 杈ㄧ::mode1024){

  0038f	83 3d 00 00 00
	00 04		 cmp	 DWORD PTR ?ResoMode@@3HA, 4 ; ResoMode
  00396	75 0a		 jne	 SHORT $LN25@leaderFunc

; 5342 : 			涓存惰ˉX = 190;

  00398	c7 85 a4 fb ff
	ff be 00 00 00	 mov	 DWORD PTR _临时补X$1[ebp], 190 ; 000000beH
$LN25@leaderFunc:

; 5343 : 		}
; 5344 : #ifdef _FMVER21
; 5345 : 		if (pc.familyleader == FMMEMBER_LEADER)

  003a2	83 3d 08 51 00
	00 03		 cmp	 DWORD PTR ?pc@@3UPC@@A+20744, 3
  003a9	0f 85 54 01 00
	00		 jne	 $LN27@leaderFunc

; 5346 : #else
; 5347 : 		if (pc.familyleader == 1)
; 5348 : #endif
; 5349 : 		{
; 5350 : 			if (pc.channel == 5)

  003af	83 3d 0c 51 00
	00 05		 cmp	 DWORD PTR ?pc@@3UPC@@A+20748, 5
  003b6	75 38		 jne	 SHORT $LN28@leaderFunc

; 5351 : 				btnId[1] = StockFontBuffer(x + 涓存惰ˉX + 22, y + 65 + 36 * 0, FONT_PRIO_FRONT, FONT_PAL_YELLOW, "  臁膘ル癌  ", 2);

  003b8	6a 02		 push	 2
  003ba	68 00 00 00 00	 push	 OFFSET ??_C@_0N@NIGFCJOO@?5?5?A?$LH?$MA?e?$LJ?f?$LM?$NL?5?5?$AA@
  003bf	6a 04		 push	 4
  003c1	6a 01		 push	 1
  003c3	8b 45 e8	 mov	 eax, DWORD PTR _y$[ebp]
  003c6	83 c0 41	 add	 eax, 65			; 00000041H
  003c9	50		 push	 eax
  003ca	8b 8d a4 fb ff
	ff		 mov	 ecx, DWORD PTR _临时补X$1[ebp]
  003d0	8b 55 f4	 mov	 edx, DWORD PTR _x$[ebp]
  003d3	8d 44 0a 16	 lea	 eax, DWORD PTR [edx+ecx+22]
  003d7	50		 push	 eax
  003d8	e8 00 00 00 00	 call	 ?StockFontBuffer@@YAHHHDHPADH@Z ; StockFontBuffer
  003dd	83 c4 18	 add	 esp, 24			; 00000018H
  003e0	b9 04 00 00 00	 mov	 ecx, 4
  003e5	c1 e1 00	 shl	 ecx, 0
  003e8	89 81 00 00 00
	00		 mov	 DWORD PTR ?btnId@?1??leaderFuncWN@@YAXXZ@4PAHA[ecx], eax

; 5352 : 			else

  003ee	eb 36		 jmp	 SHORT $LN29@leaderFunc
$LN28@leaderFunc:

; 5353 : 				btnId[1] = StockFontBuffer(x + 涓存惰ˉX + 22, y + 65 + 36 * 0, FONT_PRIO_FRONT, FONT_PAL_WHITE, "  臁膘ル癌  ", 2);

  003f0	6a 02		 push	 2
  003f2	68 00 00 00 00	 push	 OFFSET ??_C@_0N@NIGFCJOO@?5?5?A?$LH?$MA?e?$LJ?f?$LM?$NL?5?5?$AA@
  003f7	6a 00		 push	 0
  003f9	6a 01		 push	 1
  003fb	8b 45 e8	 mov	 eax, DWORD PTR _y$[ebp]
  003fe	83 c0 41	 add	 eax, 65			; 00000041H
  00401	50		 push	 eax
  00402	8b 8d a4 fb ff
	ff		 mov	 ecx, DWORD PTR _临时补X$1[ebp]
  00408	8b 55 f4	 mov	 edx, DWORD PTR _x$[ebp]
  0040b	8d 44 0a 16	 lea	 eax, DWORD PTR [edx+ecx+22]
  0040f	50		 push	 eax
  00410	e8 00 00 00 00	 call	 ?StockFontBuffer@@YAHHHDHPADH@Z ; StockFontBuffer
  00415	83 c4 18	 add	 esp, 24			; 00000018H
  00418	b9 04 00 00 00	 mov	 ecx, 4
  0041d	c1 e1 00	 shl	 ecx, 0
  00420	89 81 00 00 00
	00		 mov	 DWORD PTR ?btnId@?1??leaderFuncWN@@YAXXZ@4PAHA[ecx], eax
$LN29@leaderFunc:

; 5354 : 
; 5355 : 			btnId[2] = StockFontBuffer(x + 涓存惰ˉX + 22, y + 65 + 36 * 1, FONT_PRIO_FRONT, FONT_PAL_WHITE, "攵臁标惮膘甏毽", 2);

  00426	6a 02		 push	 2
  00428	68 00 00 00 00	 push	 OFFSET ??_C@_0P@OGFFOIDE@?$LK?N?A?$LH?$LB?$LI?$LM?$LK?$LP?x?$LA?$PM?$LI?$KO?$AA@
  0042d	6a 00		 push	 0
  0042f	6a 01		 push	 1
  00431	8b 45 e8	 mov	 eax, DWORD PTR _y$[ebp]
  00434	83 c0 65	 add	 eax, 101		; 00000065H
  00437	50		 push	 eax
  00438	8b 8d a4 fb ff
	ff		 mov	 ecx, DWORD PTR _临时补X$1[ebp]
  0043e	8b 55 f4	 mov	 edx, DWORD PTR _x$[ebp]
  00441	8d 44 0a 16	 lea	 eax, DWORD PTR [edx+ecx+22]
  00445	50		 push	 eax
  00446	e8 00 00 00 00	 call	 ?StockFontBuffer@@YAHHHDHPADH@Z ; StockFontBuffer
  0044b	83 c4 18	 add	 esp, 24			; 00000018H
  0044e	b9 04 00 00 00	 mov	 ecx, 4
  00453	d1 e1		 shl	 ecx, 1
  00455	89 81 00 00 00
	00		 mov	 DWORD PTR ?btnId@?1??leaderFuncWN@@YAXXZ@4PAHA[ecx], eax

; 5356 : 
; 5357 : 			btnId[3] = StockFontBuffer(x + 涓存惰ˉX + 22, y + 65 + 36 * 2, FONT_PRIO_FRONT, FONT_PAL_WHITE, " 攵臁膘 ", 2);

  0045b	6a 02		 push	 2
  0045d	68 00 00 00 00	 push	 OFFSET ??_C@_0L@DOBBGKCH@?5?$LK?N?A?$LH?C?J?$LE?k?5?$AA@
  00462	6a 00		 push	 0
  00464	6a 01		 push	 1
  00466	8b 45 e8	 mov	 eax, DWORD PTR _y$[ebp]
  00469	05 89 00 00 00	 add	 eax, 137		; 00000089H
  0046e	50		 push	 eax
  0046f	8b 8d a4 fb ff
	ff		 mov	 ecx, DWORD PTR _临时补X$1[ebp]
  00475	8b 55 f4	 mov	 edx, DWORD PTR _x$[ebp]
  00478	8d 44 0a 16	 lea	 eax, DWORD PTR [edx+ecx+22]
  0047c	50		 push	 eax
  0047d	e8 00 00 00 00	 call	 ?StockFontBuffer@@YAHHHDHPADH@Z ; StockFontBuffer
  00482	83 c4 18	 add	 esp, 24			; 00000018H
  00485	b9 04 00 00 00	 mov	 ecx, 4
  0048a	6b d1 03	 imul	 edx, ecx, 3
  0048d	89 82 00 00 00
	00		 mov	 DWORD PTR ?btnId@?1??leaderFuncWN@@YAXXZ@4PAHA[edx], eax

; 5358 : 			btnId[4] = StockFontBuffer(x + 涓存惰ˉX + 22, y + 65 + 36 * 3, FONT_PRIO_FRONT, FONT_PAL_WHITE, " 瓣惮 ", 2);

  00493	6a 02		 push	 2
  00495	68 00 00 00 00	 push	 OFFSET ??_C@_0L@MJPGOABE@?5?$LP?$KM?$LB?$LI?$LF?$LP?$MA?G?5?$AA@
  0049a	6a 00		 push	 0
  0049c	6a 01		 push	 1
  0049e	8b 45 e8	 mov	 eax, DWORD PTR _y$[ebp]
  004a1	05 ad 00 00 00	 add	 eax, 173		; 000000adH
  004a6	50		 push	 eax
  004a7	8b 8d a4 fb ff
	ff		 mov	 ecx, DWORD PTR _临时补X$1[ebp]
  004ad	8b 55 f4	 mov	 edx, DWORD PTR _x$[ebp]
  004b0	8d 44 0a 16	 lea	 eax, DWORD PTR [edx+ecx+22]
  004b4	50		 push	 eax
  004b5	e8 00 00 00 00	 call	 ?StockFontBuffer@@YAHHHDHPADH@Z ; StockFontBuffer
  004ba	83 c4 18	 add	 esp, 24			; 00000018H
  004bd	b9 04 00 00 00	 mov	 ecx, 4
  004c2	c1 e1 02	 shl	 ecx, 2
  004c5	89 81 00 00 00
	00		 mov	 DWORD PTR ?btnId@?1??leaderFuncWN@@YAXXZ@4PAHA[ecx], eax

; 5359 : 			btnId[5] = StockFontBuffer(x + 涓存惰ˉX + 22, y + 65 + 36 * 4, FONT_PRIO_FRONT, FONT_PAL_WHITE, "  臁膘リ攵  ", 2);

  004cb	6a 02		 push	 2
  004cd	68 00 00 00 00	 push	 OFFSET ??_C@_0BB@BPLOID@?5?5?A?$LH?$MA?e?$LB?G?G?Q?$LK?N?$LP?$KJ?5?5?$AA@
  004d2	6a 00		 push	 0
  004d4	6a 01		 push	 1
  004d6	8b 45 e8	 mov	 eax, DWORD PTR _y$[ebp]
  004d9	05 d1 00 00 00	 add	 eax, 209		; 000000d1H
  004de	50		 push	 eax
  004df	8b 8d a4 fb ff
	ff		 mov	 ecx, DWORD PTR _临时补X$1[ebp]
  004e5	8b 55 f4	 mov	 edx, DWORD PTR _x$[ebp]
  004e8	8d 44 0a 16	 lea	 eax, DWORD PTR [edx+ecx+22]
  004ec	50		 push	 eax
  004ed	e8 00 00 00 00	 call	 ?StockFontBuffer@@YAHHHDHPADH@Z ; StockFontBuffer
  004f2	83 c4 18	 add	 esp, 24			; 00000018H
  004f5	b9 04 00 00 00	 mov	 ecx, 4
  004fa	6b d1 05	 imul	 edx, ecx, 5
  004fd	89 82 00 00 00
	00		 mov	 DWORD PTR ?btnId@?1??leaderFuncWN@@YAXXZ@4PAHA[edx], eax
$LN27@leaderFunc:

; 5360 : #ifdef	_ADD_FAMILY_TAX		// WON ADD 澧搴绋
; 5361 : 			btnId[6] = StockFontBuffer(x + 涓存惰ˉX + 22, y + 65 + 36 * 5, FONT_PRIO_FRONT, FONT_PAL_WHITE, "办胳臁办", 2);
; 5362 : #endif
; 5363 : 		}
; 5364 : // shan begin
; 5365 : #ifdef _FMVER21
; 5366 : 		if (pc.familyleader == FMMEMBER_ELDER)

  00503	83 3d 08 51 00
	00 04		 cmp	 DWORD PTR ?pc@@3UPC@@A+20744, 4
  0050a	0f 85 13 01 00
	00		 jne	 $LN30@leaderFunc

; 5367 : 		{
; 5368 : 			btnId[1] = StockFontBuffer(x + 涓存惰ˉX + 22, y + 65 + 36 * 0, FONT_PRIO_FRONT, FONT_PAL_GRAY, "  臁膘ル癌  ", 0);

  00510	6a 00		 push	 0
  00512	68 00 00 00 00	 push	 OFFSET ??_C@_0N@NIGFCJOO@?5?5?A?$LH?$MA?e?$LJ?f?$LM?$NL?5?5?$AA@
  00517	6a 07		 push	 7
  00519	6a 01		 push	 1
  0051b	8b 45 e8	 mov	 eax, DWORD PTR _y$[ebp]
  0051e	83 c0 41	 add	 eax, 65			; 00000041H
  00521	50		 push	 eax
  00522	8b 8d a4 fb ff
	ff		 mov	 ecx, DWORD PTR _临时补X$1[ebp]
  00528	8b 55 f4	 mov	 edx, DWORD PTR _x$[ebp]
  0052b	8d 44 0a 16	 lea	 eax, DWORD PTR [edx+ecx+22]
  0052f	50		 push	 eax
  00530	e8 00 00 00 00	 call	 ?StockFontBuffer@@YAHHHDHPADH@Z ; StockFontBuffer
  00535	83 c4 18	 add	 esp, 24			; 00000018H
  00538	b9 04 00 00 00	 mov	 ecx, 4
  0053d	c1 e1 00	 shl	 ecx, 0
  00540	89 81 00 00 00
	00		 mov	 DWORD PTR ?btnId@?1??leaderFuncWN@@YAXXZ@4PAHA[ecx], eax

; 5369 : 			btnId[2] = StockFontBuffer(x + 涓存惰ˉX + 22, y + 65 + 36 * 1, FONT_PRIO_FRONT, FONT_PAL_WHITE, "攵臁标惮膘甏毽", 2);

  00546	6a 02		 push	 2
  00548	68 00 00 00 00	 push	 OFFSET ??_C@_0P@OGFFOIDE@?$LK?N?A?$LH?$LB?$LI?$LM?$LK?$LP?x?$LA?$PM?$LI?$KO?$AA@
  0054d	6a 00		 push	 0
  0054f	6a 01		 push	 1
  00551	8b 45 e8	 mov	 eax, DWORD PTR _y$[ebp]
  00554	83 c0 65	 add	 eax, 101		; 00000065H
  00557	50		 push	 eax
  00558	8b 8d a4 fb ff
	ff		 mov	 ecx, DWORD PTR _临时补X$1[ebp]
  0055e	8b 55 f4	 mov	 edx, DWORD PTR _x$[ebp]
  00561	8d 44 0a 16	 lea	 eax, DWORD PTR [edx+ecx+22]
  00565	50		 push	 eax
  00566	e8 00 00 00 00	 call	 ?StockFontBuffer@@YAHHHDHPADH@Z ; StockFontBuffer
  0056b	83 c4 18	 add	 esp, 24			; 00000018H
  0056e	b9 04 00 00 00	 mov	 ecx, 4
  00573	d1 e1		 shl	 ecx, 1
  00575	89 81 00 00 00
	00		 mov	 DWORD PTR ?btnId@?1??leaderFuncWN@@YAXXZ@4PAHA[ecx], eax

; 5370 : 
; 5371 : 			btnId[3] = StockFontBuffer(x + 涓存惰ˉX + 22, y + 65 + 36 * 2, FONT_PRIO_FRONT, FONT_PAL_WHITE, " 攵臁膘 ", 2);

  0057b	6a 02		 push	 2
  0057d	68 00 00 00 00	 push	 OFFSET ??_C@_0L@DOBBGKCH@?5?$LK?N?A?$LH?C?J?$LE?k?5?$AA@
  00582	6a 00		 push	 0
  00584	6a 01		 push	 1
  00586	8b 45 e8	 mov	 eax, DWORD PTR _y$[ebp]
  00589	05 89 00 00 00	 add	 eax, 137		; 00000089H
  0058e	50		 push	 eax
  0058f	8b 8d a4 fb ff
	ff		 mov	 ecx, DWORD PTR _临时补X$1[ebp]
  00595	8b 55 f4	 mov	 edx, DWORD PTR _x$[ebp]
  00598	8d 44 0a 16	 lea	 eax, DWORD PTR [edx+ecx+22]
  0059c	50		 push	 eax
  0059d	e8 00 00 00 00	 call	 ?StockFontBuffer@@YAHHHDHPADH@Z ; StockFontBuffer
  005a2	83 c4 18	 add	 esp, 24			; 00000018H
  005a5	b9 04 00 00 00	 mov	 ecx, 4
  005aa	6b d1 03	 imul	 edx, ecx, 3
  005ad	89 82 00 00 00
	00		 mov	 DWORD PTR ?btnId@?1??leaderFuncWN@@YAXXZ@4PAHA[edx], eax

; 5372 : 			btnId[4] = StockFontBuffer(x + 涓存惰ˉX + 22, y + 65 + 36 * 3, FONT_PRIO_FRONT, FONT_PAL_WHITE, " 瓣惮 ", 2);

  005b3	6a 02		 push	 2
  005b5	68 00 00 00 00	 push	 OFFSET ??_C@_0L@MJPGOABE@?5?$LP?$KM?$LB?$LI?$LF?$LP?$MA?G?5?$AA@
  005ba	6a 00		 push	 0
  005bc	6a 01		 push	 1
  005be	8b 45 e8	 mov	 eax, DWORD PTR _y$[ebp]
  005c1	05 ad 00 00 00	 add	 eax, 173		; 000000adH
  005c6	50		 push	 eax
  005c7	8b 8d a4 fb ff
	ff		 mov	 ecx, DWORD PTR _临时补X$1[ebp]
  005cd	8b 55 f4	 mov	 edx, DWORD PTR _x$[ebp]
  005d0	8d 44 0a 16	 lea	 eax, DWORD PTR [edx+ecx+22]
  005d4	50		 push	 eax
  005d5	e8 00 00 00 00	 call	 ?StockFontBuffer@@YAHHHDHPADH@Z ; StockFontBuffer
  005da	83 c4 18	 add	 esp, 24			; 00000018H
  005dd	b9 04 00 00 00	 mov	 ecx, 4
  005e2	c1 e1 02	 shl	 ecx, 2
  005e5	89 81 00 00 00
	00		 mov	 DWORD PTR ?btnId@?1??leaderFuncWN@@YAXXZ@4PAHA[ecx], eax

; 5373 : 			btnId[5] = StockFontBuffer(x + 涓存惰ˉX + 22, y + 65 + 36 * 4, FONT_PRIO_FRONT, FONT_PAL_GRAY, "  臁膘リ攵  ", 0);

  005eb	6a 00		 push	 0
  005ed	68 00 00 00 00	 push	 OFFSET ??_C@_0BB@BPLOID@?5?5?A?$LH?$MA?e?$LB?G?G?Q?$LK?N?$LP?$KJ?5?5?$AA@
  005f2	6a 07		 push	 7
  005f4	6a 01		 push	 1
  005f6	8b 45 e8	 mov	 eax, DWORD PTR _y$[ebp]
  005f9	05 d1 00 00 00	 add	 eax, 209		; 000000d1H
  005fe	50		 push	 eax
  005ff	8b 8d a4 fb ff
	ff		 mov	 ecx, DWORD PTR _临时补X$1[ebp]
  00605	8b 55 f4	 mov	 edx, DWORD PTR _x$[ebp]
  00608	8d 44 0a 16	 lea	 eax, DWORD PTR [edx+ecx+22]
  0060c	50		 push	 eax
  0060d	e8 00 00 00 00	 call	 ?StockFontBuffer@@YAHHHDHPADH@Z ; StockFontBuffer
  00612	83 c4 18	 add	 esp, 24			; 00000018H
  00615	b9 04 00 00 00	 mov	 ecx, 4
  0061a	6b d1 05	 imul	 edx, ecx, 5
  0061d	89 82 00 00 00
	00		 mov	 DWORD PTR ?btnId@?1??leaderFuncWN@@YAXXZ@4PAHA[edx], eax
$LN30@leaderFunc:

; 5374 : 
; 5375 : #ifdef	_ADD_FAMILY_TAX		// WON ADD 澧搴绋
; 5376 : 			btnId[6] = StockFontBuffer(x + 涓存惰ˉX + 22, y + 65 + 36 * 5, FONT_PRIO_FRONT, FONT_PAL_GRAY, "  办胳臁办  ", 0);
; 5377 : #endif
; 5378 : 		}
; 5379 : #endif
; 5380 : // shan end
; 5381 : 		if (selId == 1)

  00623	83 bd bc fb ff
	ff 01		 cmp	 DWORD PTR _selId$[ebp], 1
  0062a	75 11		 jne	 SHORT $LN31@leaderFunc

; 5382 : 			ShowBottomLineString(FONT_PAL_WHITE, "臁膘レ 攵臁膘觳挫瓴 瓿奠╇ゃ");

  0062c	68 00 00 00 00	 push	 OFFSET ??_C@_0CD@LJIHMIMO@?A?$LH?$MA?e?$MA?$LK?5?$LK?N?A?$LH?$LP?x?$MA?$PM?C?$LM?$LP?$KB?$LA?T?5?$LA?x?A?v?G?U?$LE?O?$LE?Y@
  00631	6a 00		 push	 0
  00633	e8 00 00 00 00	 call	 ?ShowBottomLineString@@YAXHPAD@Z ; ShowBottomLineString
  00638	83 c4 08	 add	 esp, 8
  0063b	eb 4c		 jmp	 SHORT $LN1@leaderFunc
$LN31@leaderFunc:

; 5383 : 		else if (selId == 2)

  0063d	83 bd bc fb ff
	ff 02		 cmp	 DWORD PTR _selId$[ebp], 2
  00644	75 11		 jne	 SHORT $LN33@leaderFunc

; 5384 : 			ShowBottomLineString(FONT_PAL_WHITE, "攵臁标惮膘氇╇");

  00646	68 00 00 00 00	 push	 OFFSET ??_C@_0BB@MGNAPNJL@?$LK?N?A?$LH?$LB?$LI?$LM?$LK?$LP?x?$LI?q?$LH?O?$KB?$KD?$AA@
  0064b	6a 00		 push	 0
  0064d	e8 00 00 00 00	 call	 ?ShowBottomLineString@@YAXHPAD@Z ; ShowBottomLineString
  00652	83 c4 08	 add	 esp, 8
  00655	eb 32		 jmp	 SHORT $LN1@leaderFunc
$LN33@leaderFunc:

; 5385 : 		else if (selId == 3)

  00657	83 bd bc fb ff
	ff 03		 cmp	 DWORD PTR _selId$[ebp], 3
  0065e	75 11		 jne	 SHORT $LN35@leaderFunc

; 5386 : 			ShowBottomLineString(FONT_PAL_WHITE, "攵臁彪癌氍胳觳レ便");

  00660	68 00 00 00 00	 push	 OFFSET ??_C@_0BF@CGFLPMMC@?$LK?N?A?$LH?$LJ?f?$LJ?$KO?C?J?C?$LL?$MA?e?$MA?$NL?$LM?$LK?$KB?$KD?$AA@
  00665	6a 00		 push	 0
  00667	e8 00 00 00 00	 call	 ?ShowBottomLineString@@YAXHPAD@Z ; ShowBottomLineString
  0066c	83 c4 08	 add	 esp, 8
  0066f	eb 18		 jmp	 SHORT $LN1@leaderFunc
$LN35@leaderFunc:

; 5387 : 		else if (selId == 4)

  00671	83 bd bc fb ff
	ff 04		 cmp	 DWORD PTR _selId$[ebp], 4
  00678	75 0f		 jne	 SHORT $LN1@leaderFunc

; 5388 : 			ShowBottomLineString(FONT_PAL_WHITE, "闺鞍瓣赴便");

  0067a	68 00 00 00 00	 push	 OFFSET ??_C@_0BL@EJEFDMMK@?E?$LO?$LN?B?$LJ?h?$LP?l?$LB?b?$MA?$KH?G?Q?$LF?$LP?$MA?G?$LM?$KN?$MA?$NL?$LM?$LK?$KB?$KD?$AA@
  0067f	6a 00		 push	 0
  00681	e8 00 00 00 00	 call	 ?ShowBottomLineString@@YAXHPAD@Z ; ShowBottomLineString
  00686	83 c4 08	 add	 esp, 8
$LN1@leaderFunc:

; 5389 : #ifdef	_ADD_FAMILY_TAX		// WON ADD 澧搴绋
; 5390 : 		else if (selId == 6)
; 5391 : 			ShowBottomLineString(FONT_PAL_WHITE, "攵绊氇╈戈臁办");
; 5392 : #endif
; 5393 : 	}
; 5394 : 
; 5395 : }

  00689	52		 push	 edx
  0068a	8b cd		 mov	 ecx, ebp
  0068c	50		 push	 eax
  0068d	8d 15 00 00 00
	00		 lea	 edx, DWORD PTR $LN41@leaderFunc
  00693	e8 00 00 00 00	 call	 @_RTC_CheckStackVars@8
  00698	58		 pop	 eax
  00699	5a		 pop	 edx
  0069a	5f		 pop	 edi
  0069b	5e		 pop	 esi
  0069c	5b		 pop	 ebx
  0069d	8b 4d fc	 mov	 ecx, DWORD PTR __$ArrayPad$[ebp]
  006a0	33 cd		 xor	 ecx, ebp
  006a2	e8 00 00 00 00	 call	 @__security_check_cookie@4
  006a7	81 c4 a0 06 00
	00		 add	 esp, 1696		; 000006a0H
  006ad	3b ec		 cmp	 ebp, esp
  006af	e8 00 00 00 00	 call	 __RTC_CheckEsp
  006b4	8b e5		 mov	 esp, ebp
  006b6	5d		 pop	 ebp
  006b7	c3		 ret	 0
$LN41@leaderFunc:
  006b8	01 00 00 00	 DD	 1
  006bc	00 00 00 00	 DD	 $LN40@leaderFunc
$LN40@leaderFunc:
  006c0	c8 fb ff ff	 DD	 -1080			; fffffbc8H
  006c4	00 04 00 00	 DD	 1024			; 00000400H
  006c8	00 00 00 00	 DD	 $LN39@leaderFunc
$LN39@leaderFunc:
  006cc	62		 DB	 98			; 00000062H
  006cd	75		 DB	 117			; 00000075H
  006ce	66		 DB	 102			; 00000066H
  006cf	00		 DB	 0
?leaderFuncWN@@YAXXZ ENDP				; leaderFuncWN
_TEXT	ENDS
; Function compile flags: /Odtp /RTCsu /ZI
; File c:\users\administrator\desktop\????? ??\????? ??\client source code\system\field.cpp
;	COMDAT ?joinChannel2WN@@YAXXZ
_TEXT	SEGMENT
tv171 = -1700						; size = 4
tv89 = -1700						; size = 4
tv80 = -1700						; size = 4
_color$1 = -1116					; size = 4
_selId$ = -1104						; size = 4
_buf$ = -1092						; size = 1024
_i$ = -60						; size = 4
_h$ = -48						; size = 4
_w$ = -36						; size = 4
_y$ = -24						; size = 4
_x$ = -12						; size = 4
__$ArrayPad$ = -4					; size = 4
?joinChannel2WN@@YAXXZ PROC				; joinChannel2WN, COMDAT

; 5082 : {

  00000	55		 push	 ebp
  00001	8b ec		 mov	 ebp, esp
  00003	81 ec a4 06 00
	00		 sub	 esp, 1700		; 000006a4H
  00009	53		 push	 ebx
  0000a	56		 push	 esi
  0000b	57		 push	 edi
  0000c	8d bd 5c f9 ff
	ff		 lea	 edi, DWORD PTR [ebp-1700]
  00012	b9 a9 01 00 00	 mov	 ecx, 425		; 000001a9H
  00017	b8 cc cc cc cc	 mov	 eax, -858993460		; ccccccccH
  0001c	f3 ab		 rep stosd
  0001e	a1 00 00 00 00	 mov	 eax, DWORD PTR ___security_cookie
  00023	33 c5		 xor	 eax, ebp
  00025	89 45 fc	 mov	 DWORD PTR __$ArrayPad$[ebp], eax

; 5083 : 	//static ACTION *ptActMenuWin = NULL;
; 5084 : 	int x, y, w, h, i;
; 5085 : 	static int fontBtnId[4];
; 5086 : 	char buf[1024];
; 5087 : 	int selId;
; 5088 : 	
; 5089 : 	x = 160;

  00028	c7 45 f4 a0 00
	00 00		 mov	 DWORD PTR _x$[ebp], 160	; 000000a0H

; 5090 : 	y = 30;

  0002f	c7 45 e8 1e 00
	00 00		 mov	 DWORD PTR _y$[ebp], 30	; 0000001eH

; 5091 : 	w = 7;

  00036	c7 45 dc 07 00
	00 00		 mov	 DWORD PTR _w$[ebp], 7

; 5092 : 	h = 8;

  0003d	c7 45 d0 08 00
	00 00		 mov	 DWORD PTR _h$[ebp], 8

; 5093 : 
; 5094 : 	if (ptActChannel2Win == NULL)

  00044	83 3d 00 00 00
	00 00		 cmp	 DWORD PTR ?ptActChannel2Win@@3PAUaction@@A, 0
  0004b	75 54		 jne	 SHORT $LN11@joinChanne

; 5095 : 	{
; 5096 : 		DeathAction(ptActLeaderFuncWin);

  0004d	a1 00 00 00 00	 mov	 eax, DWORD PTR ?ptActLeaderFuncWin@@3PAUaction@@A
  00052	50		 push	 eax
  00053	e8 00 00 00 00	 call	 ?DeathAction@@YAXPAUaction@@@Z ; DeathAction
  00058	83 c4 04	 add	 esp, 4

; 5097 : 		ptActLeaderFuncWin = NULL;

  0005b	c7 05 00 00 00
	00 00 00 00 00	 mov	 DWORD PTR ?ptActLeaderFuncWin@@3PAUaction@@A, 0

; 5098 : 		ptActChannel2Win = MakeWindowDisp(x, y, w, h, NULL, 1);

  00065	6a 01		 push	 1
  00067	6a 00		 push	 0
  00069	8b 45 d0	 mov	 eax, DWORD PTR _h$[ebp]
  0006c	50		 push	 eax
  0006d	8b 4d dc	 mov	 ecx, DWORD PTR _w$[ebp]
  00070	51		 push	 ecx
  00071	8b 55 e8	 mov	 edx, DWORD PTR _y$[ebp]
  00074	52		 push	 edx
  00075	8b 45 f4	 mov	 eax, DWORD PTR _x$[ebp]
  00078	50		 push	 eax
  00079	e8 00 00 00 00	 call	 ?MakeWindowDisp@@YAPAUaction@@HHHHHH@Z ; MakeWindowDisp
  0007e	83 c4 18	 add	 esp, 24			; 00000018H
  00081	a3 00 00 00 00	 mov	 DWORD PTR ?ptActChannel2Win@@3PAUaction@@A, eax

; 5099 : #ifdef _NEW_RESOMODE  //800 600妯″
; 5100 : 		x = ptActChannel2Win->x;

  00086	a1 00 00 00 00	 mov	 eax, DWORD PTR ?ptActChannel2Win@@3PAUaction@@A
  0008b	8b 48 18	 mov	 ecx, DWORD PTR [eax+24]
  0008e	89 4d f4	 mov	 DWORD PTR _x$[ebp], ecx

; 5101 : 		y = ptActChannel2Win->y;

  00091	a1 00 00 00 00	 mov	 eax, DWORD PTR ?ptActChannel2Win@@3PAUaction@@A
  00096	8b 48 1c	 mov	 ecx, DWORD PTR [eax+28]
  00099	89 4d e8	 mov	 DWORD PTR _y$[ebp], ecx
  0009c	e9 dc 06 00 00	 jmp	 $LN1@joinChanne
$LN11@joinChanne:

; 5102 : #endif
; 5103 : 	}
; 5104 : 	else if (ptActChannel2Win->hp >= 1)

  000a1	a1 00 00 00 00	 mov	 eax, DWORD PTR ?ptActChannel2Win@@3PAUaction@@A
  000a6	83 78 78 01	 cmp	 DWORD PTR [eax+120], 1
  000aa	0f 8c cd 06 00
	00		 jl	 $LN1@joinChanne

; 5105 : 	{
; 5106 : 		selId = focusFontId(fontBtnId, sizeof(fontBtnId) / sizeof(int));

  000b0	6a 04		 push	 4
  000b2	68 00 00 00 00	 push	 OFFSET ?fontBtnId@?1??joinChannel2WN@@YAXXZ@4PAHA
  000b7	e8 00 00 00 00	 call	 ?focusFontId@@YAHPAHH@Z	; focusFontId
  000bc	83 c4 08	 add	 esp, 8
  000bf	89 85 b0 fb ff
	ff		 mov	 DWORD PTR _selId$[ebp], eax

; 5107 : 
; 5108 : 		switch (selId)

  000c5	8b 85 b0 fb ff
	ff		 mov	 eax, DWORD PTR _selId$[ebp]
  000cb	89 85 5c f9 ff
	ff		 mov	 DWORD PTR tv80[ebp], eax
  000d1	83 bd 5c f9 ff
	ff 00		 cmp	 DWORD PTR tv80[ebp], 0
  000d8	74 0b		 je	 SHORT $LN14@joinChanne
  000da	83 bd 5c f9 ff
	ff 01		 cmp	 DWORD PTR tv80[ebp], 1
  000e1	74 13		 je	 SHORT $LN15@joinChanne
  000e3	eb 20		 jmp	 SHORT $LN2@joinChanne
$LN14@joinChanne:

; 5109 : 		{
; 5110 : 		case 0:
; 5111 : 			ShowBottomLineString(FONT_PAL_WHITE, "挫臧");

  000e5	68 00 00 00 00	 push	 OFFSET ??_C@_0P@CBBBPELI@?$MA?L?C?$KE?$LD?N?$LP?$KB?$LA?$KB?$MA?T?$KB?$KD?$AA@
  000ea	6a 00		 push	 0
  000ec	e8 00 00 00 00	 call	 ?ShowBottomLineString@@YAXHPAD@Z ; ShowBottomLineString
  000f1	83 c4 08	 add	 esp, 8

; 5112 : 			break;

  000f4	eb 0f		 jmp	 SHORT $LN2@joinChanne
$LN15@joinChanne:

; 5113 : 		case 1:
; 5114 : 			ShowBottomLineString(FONT_PAL_WHITE, "挫敖旮般");

  000f6	68 00 00 00 00	 push	 OFFSET ??_C@_0L@EIKLEHBI@?$MA?L?C?$KC?$LE?$NN?$LB?b?$KB?$KD?$AA@
  000fb	6a 00		 push	 0
  000fd	e8 00 00 00 00	 call	 ?ShowBottomLineString@@YAXHPAD@Z ; ShowBottomLineString
  00102	83 c4 08	 add	 esp, 8
$LN2@joinChanne:

; 5115 : 			break;
; 5116 : 		}
; 5117 : 
; 5118 : 		if (mouse.onceState & MOUSE_LEFT_CRICK)

  00105	a1 2c 00 00 00	 mov	 eax, DWORD PTR ?mouse@@3UMOUSE@@A+44
  0010a	83 e0 01	 and	 eax, 1
  0010d	0f 84 3c 01 00
	00		 je	 $LN16@joinChanne

; 5119 : 		{
; 5120 : 			switch (selId)

  00113	8b 85 b0 fb ff
	ff		 mov	 eax, DWORD PTR _selId$[ebp]
  00119	89 85 5c f9 ff
	ff		 mov	 DWORD PTR tv89[ebp], eax
  0011f	83 bd 5c f9 ff
	ff 03		 cmp	 DWORD PTR tv89[ebp], 3
  00126	0f 87 23 01 00
	00		 ja	 $LN16@joinChanne
  0012c	8b 8d 5c f9 ff
	ff		 mov	 ecx, DWORD PTR tv89[ebp]
  00132	ff 24 8d 00 00
	00 00		 jmp	 DWORD PTR $LN59@joinChanne[ecx*4]
$LN17@joinChanne:

; 5121 : 			{
; 5122 : 			case 0:
; 5123 : 				sprintf(buf, "C|J|%d", channelData.index);

  00139	a1 00 00 00 00	 mov	 eax, DWORD PTR ?channelData@@3UTchannelData@@A
  0013e	50		 push	 eax
  0013f	68 00 00 00 00	 push	 OFFSET ??_C@_06GHCNPHLL@C?$HMJ?$HM?$CFd?$AA@
  00144	8d 8d bc fb ff
	ff		 lea	 ecx, DWORD PTR _buf$[ebp]
  0014a	51		 push	 ecx
  0014b	e8 00 00 00 00	 call	 _sprintf
  00150	83 c4 0c	 add	 esp, 12			; 0000000cH

; 5124 : 				if (bNewServer)

  00153	83 3d 00 00 00
	00 00		 cmp	 DWORD PTR ?bNewServer@@3HA, 0 ; bNewServer
  0015a	74 18		 je	 SHORT $LN18@joinChanne

; 5125 : 					lssproto_FM_send(sockfd, buf);

  0015c	8d 85 bc fb ff
	ff		 lea	 eax, DWORD PTR _buf$[ebp]
  00162	50		 push	 eax
  00163	8b 0d 00 00 00
	00		 mov	 ecx, DWORD PTR ?sockfd@@3IA ; sockfd
  00169	51		 push	 ecx
  0016a	e8 00 00 00 00	 call	 ?lssproto_FM_send@@YAXHPAD@Z ; lssproto_FM_send
  0016f	83 c4 08	 add	 esp, 8

; 5126 : 				else

  00172	eb 16		 jmp	 SHORT $LN19@joinChanne
$LN18@joinChanne:

; 5127 : 					old_lssproto_FM_send(sockfd, buf);

  00174	8d 85 bc fb ff
	ff		 lea	 eax, DWORD PTR _buf$[ebp]
  0017a	50		 push	 eax
  0017b	8b 0d 00 00 00
	00		 mov	 ecx, DWORD PTR ?sockfd@@3IA ; sockfd
  00181	51		 push	 ecx
  00182	e8 00 00 00 00	 call	 ?old_lssproto_FM_send@@YAXHPAD@Z ; old_lssproto_FM_send
  00187	83 c4 08	 add	 esp, 8
$LN19@joinChanne:

; 5128 : 				closeJoinChannelWN();

  0018a	e8 00 00 00 00	 call	 ?closeJoinChannelWN@@YAXXZ ; closeJoinChannelWN

; 5129 : 				play_se(203, 320, 240);	// ????????

  0018f	68 f0 00 00 00	 push	 240			; 000000f0H
  00194	68 40 01 00 00	 push	 320			; 00000140H
  00199	68 cb 00 00 00	 push	 203			; 000000cbH
  0019e	e8 00 00 00 00	 call	 ?play_se@@YAHHHH@Z	; play_se
  001a3	83 c4 0c	 add	 esp, 12			; 0000000cH

; 5130 : 				break;				

  001a6	e9 a4 00 00 00	 jmp	 $LN16@joinChanne
$LN20@joinChanne:

; 5131 : 			case 1:
; 5132 : 				if (pc.channel == channelData.index)

  001ab	a1 0c 51 00 00	 mov	 eax, DWORD PTR ?pc@@3UPC@@A+20748
  001b0	3b 05 00 00 00
	00		 cmp	 eax, DWORD PTR ?channelData@@3UTchannelData@@A
  001b6	75 4b		 jne	 SHORT $LN21@joinChanne

; 5133 : 				{
; 5134 : 					sprintf(buf, "C|J|-1");

  001b8	68 00 00 00 00	 push	 OFFSET ??_C@_06KOPCAPBC@C?$HMJ?$HM?91?$AA@
  001bd	8d 85 bc fb ff
	ff		 lea	 eax, DWORD PTR _buf$[ebp]
  001c3	50		 push	 eax
  001c4	e8 00 00 00 00	 call	 _sprintf
  001c9	83 c4 08	 add	 esp, 8

; 5135 : 					if (bNewServer)

  001cc	83 3d 00 00 00
	00 00		 cmp	 DWORD PTR ?bNewServer@@3HA, 0 ; bNewServer
  001d3	74 18		 je	 SHORT $LN22@joinChanne

; 5136 : 						lssproto_FM_send(sockfd, buf);

  001d5	8d 85 bc fb ff
	ff		 lea	 eax, DWORD PTR _buf$[ebp]
  001db	50		 push	 eax
  001dc	8b 0d 00 00 00
	00		 mov	 ecx, DWORD PTR ?sockfd@@3IA ; sockfd
  001e2	51		 push	 ecx
  001e3	e8 00 00 00 00	 call	 ?lssproto_FM_send@@YAXHPAD@Z ; lssproto_FM_send
  001e8	83 c4 08	 add	 esp, 8

; 5137 : 					else

  001eb	eb 16		 jmp	 SHORT $LN21@joinChanne
$LN22@joinChanne:

; 5138 : 						old_lssproto_FM_send(sockfd, buf);

  001ed	8d 85 bc fb ff
	ff		 lea	 eax, DWORD PTR _buf$[ebp]
  001f3	50		 push	 eax
  001f4	8b 0d 00 00 00
	00		 mov	 ecx, DWORD PTR ?sockfd@@3IA ; sockfd
  001fa	51		 push	 ecx
  001fb	e8 00 00 00 00	 call	 ?old_lssproto_FM_send@@YAXHPAD@Z ; old_lssproto_FM_send
  00200	83 c4 08	 add	 esp, 8
$LN21@joinChanne:

; 5139 : 				}
; 5140 : 				closeJoinChannel2WN();

  00203	e8 00 00 00 00	 call	 ?closeJoinChannel2WN@@YAXXZ ; closeJoinChannel2WN

; 5141 : 				play_se(203, 320, 240);	// ????????

  00208	68 f0 00 00 00	 push	 240			; 000000f0H
  0020d	68 40 01 00 00	 push	 320			; 00000140H
  00212	68 cb 00 00 00	 push	 203			; 000000cbH
  00217	e8 00 00 00 00	 call	 ?play_se@@YAHHHH@Z	; play_se
  0021c	83 c4 0c	 add	 esp, 12			; 0000000cH

; 5142 : 				break;

  0021f	eb 2e		 jmp	 SHORT $LN16@joinChanne
$LN24@joinChanne:

; 5143 : 			case 2:
; 5144 : 				if (pageNum > 0)

  00221	83 3d 00 00 00
	00 00		 cmp	 DWORD PTR ?pageNum@@3HA, 0
  00228	7e 0d		 jle	 SHORT $LN25@joinChanne

; 5145 : 					pageNum--;

  0022a	a1 00 00 00 00	 mov	 eax, DWORD PTR ?pageNum@@3HA
  0022f	83 e8 01	 sub	 eax, 1
  00232	a3 00 00 00 00	 mov	 DWORD PTR ?pageNum@@3HA, eax
$LN25@joinChanne:

; 5146 : 				break;

  00237	eb 16		 jmp	 SHORT $LN16@joinChanne
$LN26@joinChanne:

; 5147 : 			case 3:
; 5148 : 				if (pageNum < 2)

  00239	83 3d 00 00 00
	00 02		 cmp	 DWORD PTR ?pageNum@@3HA, 2
  00240	7d 0d		 jge	 SHORT $LN16@joinChanne

; 5149 : 					pageNum++;

  00242	a1 00 00 00 00	 mov	 eax, DWORD PTR ?pageNum@@3HA
  00247	83 c0 01	 add	 eax, 1
  0024a	a3 00 00 00 00	 mov	 DWORD PTR ?pageNum@@3HA, eax
$LN16@joinChanne:

; 5150 : 				break;
; 5151 : 			}
; 5152 : 		}
; 5153 : 
; 5154 : 		fontBtnId[0] = StockFontBuffer(x + 240, y + 340, FONT_PRIO_FRONT, FONT_PAL_YELLOW, " 彀  臧 ", 2);

  0024f	6a 02		 push	 2
  00251	68 00 00 00 00	 push	 OFFSET ??_C@_08JGHLAOEI@?5?B?$PM?5?5?$LA?$KB?5?$AA@
  00256	6a 04		 push	 4
  00258	6a 01		 push	 1
  0025a	8b 45 e8	 mov	 eax, DWORD PTR _y$[ebp]
  0025d	05 54 01 00 00	 add	 eax, 340		; 00000154H
  00262	50		 push	 eax
  00263	8b 4d f4	 mov	 ecx, DWORD PTR _x$[ebp]
  00266	81 c1 f0 00 00
	00		 add	 ecx, 240		; 000000f0H
  0026c	51		 push	 ecx
  0026d	e8 00 00 00 00	 call	 ?StockFontBuffer@@YAHHHDHPADH@Z ; StockFontBuffer
  00272	83 c4 18	 add	 esp, 24			; 00000018H
  00275	ba 04 00 00 00	 mov	 edx, 4
  0027a	6b ca 00	 imul	 ecx, edx, 0
  0027d	89 81 00 00 00
	00		 mov	 DWORD PTR ?fontBtnId@?1??joinChannel2WN@@YAXXZ@4PAHA[ecx], eax

; 5155 : 		fontBtnId[1] = StockFontBuffer(x + 340, y + 340, FONT_PRIO_FRONT, FONT_PAL_YELLOW, "    ", 2);

  00283	6a 02		 push	 2
  00285	68 00 00 00 00	 push	 OFFSET ??_C@_08CMINFIIP@?5?E?$LL?5?5?E?p?5?$AA@
  0028a	6a 04		 push	 4
  0028c	6a 01		 push	 1
  0028e	8b 45 e8	 mov	 eax, DWORD PTR _y$[ebp]
  00291	05 54 01 00 00	 add	 eax, 340		; 00000154H
  00296	50		 push	 eax
  00297	8b 4d f4	 mov	 ecx, DWORD PTR _x$[ebp]
  0029a	81 c1 54 01 00
	00		 add	 ecx, 340		; 00000154H
  002a0	51		 push	 ecx
  002a1	e8 00 00 00 00	 call	 ?StockFontBuffer@@YAHHHDHPADH@Z ; StockFontBuffer
  002a6	83 c4 18	 add	 esp, 24			; 00000018H
  002a9	ba 04 00 00 00	 mov	 edx, 4
  002ae	c1 e2 00	 shl	 edx, 0
  002b1	89 82 00 00 00
	00		 mov	 DWORD PTR ?fontBtnId@?1??joinChannel2WN@@YAXXZ@4PAHA[edx], eax

; 5156 : 
; 5157 : 		switch (pageNum)

  002b7	a1 00 00 00 00	 mov	 eax, DWORD PTR ?pageNum@@3HA
  002bc	89 85 5c f9 ff
	ff		 mov	 DWORD PTR tv171[ebp], eax
  002c2	83 bd 5c f9 ff
	ff 00		 cmp	 DWORD PTR tv171[ebp], 0
  002c9	74 1b		 je	 SHORT $LN28@joinChanne
  002cb	83 bd 5c f9 ff
	ff 01		 cmp	 DWORD PTR tv171[ebp], 1
  002d2	74 5b		 je	 SHORT $LN30@joinChanne
  002d4	83 bd 5c f9 ff
	ff 02		 cmp	 DWORD PTR tv171[ebp], 2
  002db	0f 84 cf 00 00
	00		 je	 $LN32@joinChanne
  002e1	e9 05 01 00 00	 jmp	 $LN6@joinChanne
$LN28@joinChanne:

; 5158 : 		{
; 5159 : 		case 0:
; 5160 : 			if (channelData.num > 30)

  002e6	83 3d 04 00 00
	00 1e		 cmp	 DWORD PTR ?channelData@@3UTchannelData@@A+4, 30 ; 0000001eH
  002ed	7e 3b		 jle	 SHORT $LN29@joinChanne

; 5161 : 				fontBtnId[3] = StockFontBuffer(x + 120, y + 340, FONT_PRIO_FRONT, FONT_PAL_YELLOW, pageStr[1], 2);

  002ef	6a 02		 push	 2
  002f1	b8 0a 00 00 00	 mov	 eax, 10			; 0000000aH
  002f6	c1 e0 00	 shl	 eax, 0
  002f9	05 00 00 00 00	 add	 eax, OFFSET ?pageStr@@3PAY09DA ; pageStr
  002fe	50		 push	 eax
  002ff	6a 04		 push	 4
  00301	6a 01		 push	 1
  00303	8b 4d e8	 mov	 ecx, DWORD PTR _y$[ebp]
  00306	81 c1 54 01 00
	00		 add	 ecx, 340		; 00000154H
  0030c	51		 push	 ecx
  0030d	8b 55 f4	 mov	 edx, DWORD PTR _x$[ebp]
  00310	83 c2 78	 add	 edx, 120		; 00000078H
  00313	52		 push	 edx
  00314	e8 00 00 00 00	 call	 ?StockFontBuffer@@YAHHHDHPADH@Z ; StockFontBuffer
  00319	83 c4 18	 add	 esp, 24			; 00000018H
  0031c	b9 04 00 00 00	 mov	 ecx, 4
  00321	6b d1 03	 imul	 edx, ecx, 3
  00324	89 82 00 00 00
	00		 mov	 DWORD PTR ?fontBtnId@?1??joinChannel2WN@@YAXXZ@4PAHA[edx], eax
$LN29@joinChanne:

; 5162 : 			break;

  0032a	e9 bc 00 00 00	 jmp	 $LN6@joinChanne
$LN30@joinChanne:

; 5163 : 		case 1:
; 5164 : 			if (channelData.num > 60)

  0032f	83 3d 04 00 00
	00 3c		 cmp	 DWORD PTR ?channelData@@3UTchannelData@@A+4, 60 ; 0000003cH
  00336	7e 3b		 jle	 SHORT $LN31@joinChanne

; 5165 : 				fontBtnId[3] = StockFontBuffer(x + 120, y + 340, FONT_PRIO_FRONT, FONT_PAL_YELLOW, pageStr[1], 2);

  00338	6a 02		 push	 2
  0033a	b8 0a 00 00 00	 mov	 eax, 10			; 0000000aH
  0033f	c1 e0 00	 shl	 eax, 0
  00342	05 00 00 00 00	 add	 eax, OFFSET ?pageStr@@3PAY09DA ; pageStr
  00347	50		 push	 eax
  00348	6a 04		 push	 4
  0034a	6a 01		 push	 1
  0034c	8b 4d e8	 mov	 ecx, DWORD PTR _y$[ebp]
  0034f	81 c1 54 01 00
	00		 add	 ecx, 340		; 00000154H
  00355	51		 push	 ecx
  00356	8b 55 f4	 mov	 edx, DWORD PTR _x$[ebp]
  00359	83 c2 78	 add	 edx, 120		; 00000078H
  0035c	52		 push	 edx
  0035d	e8 00 00 00 00	 call	 ?StockFontBuffer@@YAHHHDHPADH@Z ; StockFontBuffer
  00362	83 c4 18	 add	 esp, 24			; 00000018H
  00365	b9 04 00 00 00	 mov	 ecx, 4
  0036a	6b d1 03	 imul	 edx, ecx, 3
  0036d	89 82 00 00 00
	00		 mov	 DWORD PTR ?fontBtnId@?1??joinChannel2WN@@YAXXZ@4PAHA[edx], eax
$LN31@joinChanne:

; 5166 : 			fontBtnId[2] = StockFontBuffer(x + 50, y + 340, FONT_PRIO_FRONT, FONT_PAL_YELLOW, pageStr[0], 2);

  00373	6a 02		 push	 2
  00375	b8 0a 00 00 00	 mov	 eax, 10			; 0000000aH
  0037a	6b c8 00	 imul	 ecx, eax, 0
  0037d	81 c1 00 00 00
	00		 add	 ecx, OFFSET ?pageStr@@3PAY09DA ; pageStr
  00383	51		 push	 ecx
  00384	6a 04		 push	 4
  00386	6a 01		 push	 1
  00388	8b 55 e8	 mov	 edx, DWORD PTR _y$[ebp]
  0038b	81 c2 54 01 00
	00		 add	 edx, 340		; 00000154H
  00391	52		 push	 edx
  00392	8b 45 f4	 mov	 eax, DWORD PTR _x$[ebp]
  00395	83 c0 32	 add	 eax, 50			; 00000032H
  00398	50		 push	 eax
  00399	e8 00 00 00 00	 call	 ?StockFontBuffer@@YAHHHDHPADH@Z ; StockFontBuffer
  0039e	83 c4 18	 add	 esp, 24			; 00000018H
  003a1	b9 04 00 00 00	 mov	 ecx, 4
  003a6	d1 e1		 shl	 ecx, 1
  003a8	89 81 00 00 00
	00		 mov	 DWORD PTR ?fontBtnId@?1??joinChannel2WN@@YAXXZ@4PAHA[ecx], eax

; 5167 : 			break;

  003ae	eb 3b		 jmp	 SHORT $LN6@joinChanne
$LN32@joinChanne:

; 5168 : 		case 2:
; 5169 : 			fontBtnId[2] = StockFontBuffer(x + 50, y + 340, FONT_PRIO_FRONT, FONT_PAL_YELLOW, pageStr[0], 2);

  003b0	6a 02		 push	 2
  003b2	b8 0a 00 00 00	 mov	 eax, 10			; 0000000aH
  003b7	6b c8 00	 imul	 ecx, eax, 0
  003ba	81 c1 00 00 00
	00		 add	 ecx, OFFSET ?pageStr@@3PAY09DA ; pageStr
  003c0	51		 push	 ecx
  003c1	6a 04		 push	 4
  003c3	6a 01		 push	 1
  003c5	8b 55 e8	 mov	 edx, DWORD PTR _y$[ebp]
  003c8	81 c2 54 01 00
	00		 add	 edx, 340		; 00000154H
  003ce	52		 push	 edx
  003cf	8b 45 f4	 mov	 eax, DWORD PTR _x$[ebp]
  003d2	83 c0 32	 add	 eax, 50			; 00000032H
  003d5	50		 push	 eax
  003d6	e8 00 00 00 00	 call	 ?StockFontBuffer@@YAHHHDHPADH@Z ; StockFontBuffer
  003db	83 c4 18	 add	 esp, 24			; 00000018H
  003de	b9 04 00 00 00	 mov	 ecx, 4
  003e3	d1 e1		 shl	 ecx, 1
  003e5	89 81 00 00 00
	00		 mov	 DWORD PTR ?fontBtnId@?1??joinChannel2WN@@YAXXZ@4PAHA[ecx], eax
$LN6@joinChanne:

; 5170 : 			break;
; 5171 : 		}
; 5172 : 		StockFontBuffer(x + 25, y + 25, FONT_PRIO_FRONT, FONT_PAL_WHITE, channelName[channelData.index], 0);

  003eb	6a 00		 push	 0
  003ed	6b 05 00 00 00
	00 14		 imul	 eax, DWORD PTR ?channelData@@3UTchannelData@@A, 20
  003f4	05 00 00 00 00	 add	 eax, OFFSET ?channelName@@3PAY0BE@DA ; channelName
  003f9	50		 push	 eax
  003fa	6a 00		 push	 0
  003fc	6a 01		 push	 1
  003fe	8b 4d e8	 mov	 ecx, DWORD PTR _y$[ebp]
  00401	83 c1 19	 add	 ecx, 25			; 00000019H
  00404	51		 push	 ecx
  00405	8b 55 f4	 mov	 edx, DWORD PTR _x$[ebp]
  00408	83 c2 19	 add	 edx, 25			; 00000019H
  0040b	52		 push	 edx
  0040c	e8 00 00 00 00	 call	 ?StockFontBuffer@@YAHHHDHPADH@Z ; StockFontBuffer
  00411	83 c4 18	 add	 esp, 24			; 00000018H

; 5173 : 
; 5174 : 		StockFontBuffer(x + 25, y + 50, FONT_PRIO_FRONT, FONT_PAL_WHITE, "[ 毂    ]", 0);

  00414	6a 00		 push	 0
  00416	68 00 00 00 00	 push	 OFFSET ??_C@_0BA@FLCLDJN@?$FL?5?C?$KE?5?$LD?N?5?H?$LI?5?$LP?x?5?$FN?$AA@
  0041b	6a 00		 push	 0
  0041d	6a 01		 push	 1
  0041f	8b 45 e8	 mov	 eax, DWORD PTR _y$[ebp]
  00422	83 c0 32	 add	 eax, 50			; 00000032H
  00425	50		 push	 eax
  00426	8b 4d f4	 mov	 ecx, DWORD PTR _x$[ebp]
  00429	83 c1 19	 add	 ecx, 25			; 00000019H
  0042c	51		 push	 ecx
  0042d	e8 00 00 00 00	 call	 ?StockFontBuffer@@YAHHHDHPADH@Z ; StockFontBuffer
  00432	83 c4 18	 add	 esp, 24			; 00000018H

; 5175 : 		
; 5176 : 		sprintf(buf, " %d 措臁膘 臧臁便", channelData.num);

  00435	a1 04 00 00 00	 mov	 eax, DWORD PTR ?channelData@@3UTchannelData@@A+4
  0043a	50		 push	 eax
  0043b	68 00 00 00 00	 push	 OFFSET ??_C@_0BI@COJOKGGA@?G?v?$MA?g?5?$CFd?5?$MA?L?$LK?N?A?$LH?$MA?G?5?$LA?$KB?A?$LH?$KB?$KD?$AA@
  00440	8d 8d bc fb ff
	ff		 lea	 ecx, DWORD PTR _buf$[ebp]
  00446	51		 push	 ecx
  00447	e8 00 00 00 00	 call	 _sprintf
  0044c	83 c4 0c	 add	 esp, 12			; 0000000cH

; 5177 : 		StockFontBuffer(x + 200, y + 25, FONT_PRIO_FRONT, FONT_PAL_WHITE, buf, 0);

  0044f	6a 00		 push	 0
  00451	8d 85 bc fb ff
	ff		 lea	 eax, DWORD PTR _buf$[ebp]
  00457	50		 push	 eax
  00458	6a 00		 push	 0
  0045a	6a 01		 push	 1
  0045c	8b 4d e8	 mov	 ecx, DWORD PTR _y$[ebp]
  0045f	83 c1 19	 add	 ecx, 25			; 00000019H
  00462	51		 push	 ecx
  00463	8b 55 f4	 mov	 edx, DWORD PTR _x$[ebp]
  00466	81 c2 c8 00 00
	00		 add	 edx, 200		; 000000c8H
  0046c	52		 push	 edx
  0046d	e8 00 00 00 00	 call	 ?StockFontBuffer@@YAHHHDHPADH@Z ; StockFontBuffer
  00472	83 c4 18	 add	 esp, 24			; 00000018H

; 5178 : 		sprintf(buf, " %d 挫ゃ", channelData.joinNum);

  00475	a1 98 01 00 00	 mov	 eax, DWORD PTR ?channelData@@3UTchannelData@@A+408
  0047a	50		 push	 eax
  0047b	68 00 00 00 00	 push	 OFFSET ??_C@_0BJ@BJPJPJLI@?$MA?V?$LE?Y?5?$CFd?5?$MA?L?C?$KE?$LD?N?$MA?G?$LL?g?$LG?w?$LF?i?$KB?$KD?$AA@
  00480	8d 8d bc fb ff
	ff		 lea	 ecx, DWORD PTR _buf$[ebp]
  00486	51		 push	 ecx
  00487	e8 00 00 00 00	 call	 _sprintf
  0048c	83 c4 0c	 add	 esp, 12			; 0000000cH

; 5179 : 		StockFontBuffer(x + 280, y + 50, FONT_PRIO_FRONT, FONT_PAL_WHITE, buf, 0);

  0048f	6a 00		 push	 0
  00491	8d 85 bc fb ff
	ff		 lea	 eax, DWORD PTR _buf$[ebp]
  00497	50		 push	 eax
  00498	6a 00		 push	 0
  0049a	6a 01		 push	 1
  0049c	8b 4d e8	 mov	 ecx, DWORD PTR _y$[ebp]
  0049f	83 c1 32	 add	 ecx, 50			; 00000032H
  004a2	51		 push	 ecx
  004a3	8b 55 f4	 mov	 edx, DWORD PTR _x$[ebp]
  004a6	81 c2 18 01 00
	00		 add	 edx, 280		; 00000118H
  004ac	52		 push	 edx
  004ad	e8 00 00 00 00	 call	 ?StockFontBuffer@@YAHHHDHPADH@Z ; StockFontBuffer
  004b2	83 c4 18	 add	 esp, 24			; 00000018H

; 5180 : 
; 5181 : 		for (i = 0 ; i < channelData.num; i++)

  004b5	c7 45 c4 00 00
	00 00		 mov	 DWORD PTR _i$[ebp], 0
  004bc	eb 09		 jmp	 SHORT $LN10@joinChanne
$LN8@joinChanne:
  004be	8b 45 c4	 mov	 eax, DWORD PTR _i$[ebp]
  004c1	83 c0 01	 add	 eax, 1
  004c4	89 45 c4	 mov	 DWORD PTR _i$[ebp], eax
$LN10@joinChanne:
  004c7	8b 45 c4	 mov	 eax, DWORD PTR _i$[ebp]
  004ca	3b 05 04 00 00
	00		 cmp	 eax, DWORD PTR ?channelData@@3UTchannelData@@A+4
  004d0	0f 8d a7 02 00
	00		 jge	 $LN1@joinChanne

; 5182 : 		{
; 5183 : 			int color;
; 5184 : 
; 5185 : 			if (channelData.join[i] == 1)

  004d6	8b 45 c4	 mov	 eax, DWORD PTR _i$[ebp]
  004d9	83 3c 85 08 00
	00 00 01	 cmp	 DWORD PTR ?channelData@@3UTchannelData@@A[eax*4+8], 1
  004e1	75 0c		 jne	 SHORT $LN33@joinChanne

; 5186 : 				color = FONT_PAL_WHITE;

  004e3	c7 85 a4 fb ff
	ff 00 00 00 00	 mov	 DWORD PTR _color$1[ebp], 0

; 5187 : 			else

  004ed	eb 0a		 jmp	 SHORT $LN34@joinChanne
$LN33@joinChanne:

; 5188 : 				color = FONT_PAL_GRAY;

  004ef	c7 85 a4 fb ff
	ff 07 00 00 00	 mov	 DWORD PTR _color$1[ebp], 7
$LN34@joinChanne:

; 5189 : 
; 5190 : 			if (pageNum == 0 && i < 30)

  004f9	83 3d 00 00 00
	00 00		 cmp	 DWORD PTR ?pageNum@@3HA, 0
  00500	0f 85 c3 00 00
	00		 jne	 $LN35@joinChanne
  00506	83 7d c4 1e	 cmp	 DWORD PTR _i$[ebp], 30	; 0000001eH
  0050a	0f 8d b9 00 00
	00		 jge	 $LN35@joinChanne

; 5191 : 			{
; 5192 : 				if (i < 10)

  00510	83 7d c4 0a	 cmp	 DWORD PTR _i$[ebp], 10	; 0000000aH
  00514	7d 32		 jge	 SHORT $LN37@joinChanne

; 5193 : 					StockFontBuffer(x + 25, y + 80 + i * 25, FONT_PRIO_FRONT, color, channelData.name[i], 0);

  00516	6a 00		 push	 0
  00518	6b 45 c4 14	 imul	 eax, DWORD PTR _i$[ebp], 20
  0051c	05 9c 01 00 00	 add	 eax, OFFSET ?channelData@@3UTchannelData@@A+412
  00521	50		 push	 eax
  00522	8b 8d a4 fb ff
	ff		 mov	 ecx, DWORD PTR _color$1[ebp]
  00528	51		 push	 ecx
  00529	6a 01		 push	 1
  0052b	6b 55 c4 19	 imul	 edx, DWORD PTR _i$[ebp], 25
  0052f	8b 45 e8	 mov	 eax, DWORD PTR _y$[ebp]
  00532	8d 4c 10 50	 lea	 ecx, DWORD PTR [eax+edx+80]
  00536	51		 push	 ecx
  00537	8b 55 f4	 mov	 edx, DWORD PTR _x$[ebp]
  0053a	83 c2 19	 add	 edx, 25			; 00000019H
  0053d	52		 push	 edx
  0053e	e8 00 00 00 00	 call	 ?StockFontBuffer@@YAHHHDHPADH@Z ; StockFontBuffer
  00543	83 c4 18	 add	 esp, 24			; 00000018H
  00546	eb 7c		 jmp	 SHORT $LN38@joinChanne
$LN37@joinChanne:

; 5194 : 				else if(i < 20)

  00548	83 7d c4 14	 cmp	 DWORD PTR _i$[ebp], 20	; 00000014H
  0054c	7d 39		 jge	 SHORT $LN39@joinChanne

; 5195 : 					StockFontBuffer(x + 25 + 140, y + 80 + (i - 10) * 25, FONT_PRIO_FRONT, color, channelData.name[i], 0);

  0054e	6a 00		 push	 0
  00550	6b 45 c4 14	 imul	 eax, DWORD PTR _i$[ebp], 20
  00554	05 9c 01 00 00	 add	 eax, OFFSET ?channelData@@3UTchannelData@@A+412
  00559	50		 push	 eax
  0055a	8b 8d a4 fb ff
	ff		 mov	 ecx, DWORD PTR _color$1[ebp]
  00560	51		 push	 ecx
  00561	6a 01		 push	 1
  00563	8b 55 c4	 mov	 edx, DWORD PTR _i$[ebp]
  00566	83 ea 0a	 sub	 edx, 10			; 0000000aH
  00569	6b c2 19	 imul	 eax, edx, 25
  0056c	8b 4d e8	 mov	 ecx, DWORD PTR _y$[ebp]
  0056f	8d 54 01 50	 lea	 edx, DWORD PTR [ecx+eax+80]
  00573	52		 push	 edx
  00574	8b 45 f4	 mov	 eax, DWORD PTR _x$[ebp]
  00577	05 a5 00 00 00	 add	 eax, 165		; 000000a5H
  0057c	50		 push	 eax
  0057d	e8 00 00 00 00	 call	 ?StockFontBuffer@@YAHHHDHPADH@Z ; StockFontBuffer
  00582	83 c4 18	 add	 esp, 24			; 00000018H
  00585	eb 3d		 jmp	 SHORT $LN38@joinChanne
$LN39@joinChanne:

; 5196 : 				else if(i < 30)

  00587	83 7d c4 1e	 cmp	 DWORD PTR _i$[ebp], 30	; 0000001eH
  0058b	7d 37		 jge	 SHORT $LN38@joinChanne

; 5197 : 					StockFontBuffer(x + 25 + 280, y + 80 + (i - 20) * 25, FONT_PRIO_FRONT, color, channelData.name[i], 0);

  0058d	6a 00		 push	 0
  0058f	6b 45 c4 14	 imul	 eax, DWORD PTR _i$[ebp], 20
  00593	05 9c 01 00 00	 add	 eax, OFFSET ?channelData@@3UTchannelData@@A+412
  00598	50		 push	 eax
  00599	8b 8d a4 fb ff
	ff		 mov	 ecx, DWORD PTR _color$1[ebp]
  0059f	51		 push	 ecx
  005a0	6a 01		 push	 1
  005a2	8b 55 c4	 mov	 edx, DWORD PTR _i$[ebp]
  005a5	83 ea 14	 sub	 edx, 20			; 00000014H
  005a8	6b c2 19	 imul	 eax, edx, 25
  005ab	8b 4d e8	 mov	 ecx, DWORD PTR _y$[ebp]
  005ae	8d 54 01 50	 lea	 edx, DWORD PTR [ecx+eax+80]
  005b2	52		 push	 edx
  005b3	8b 45 f4	 mov	 eax, DWORD PTR _x$[ebp]
  005b6	05 31 01 00 00	 add	 eax, 305		; 00000131H
  005bb	50		 push	 eax
  005bc	e8 00 00 00 00	 call	 ?StockFontBuffer@@YAHHHDHPADH@Z ; StockFontBuffer
  005c1	83 c4 18	 add	 esp, 24			; 00000018H
$LN38@joinChanne:

; 5198 : 			}

  005c4	e9 af 01 00 00	 jmp	 $LN36@joinChanne
$LN35@joinChanne:

; 5199 : 			else if (pageNum == 1 && i >= 30 && i < 60)

  005c9	83 3d 00 00 00
	00 01		 cmp	 DWORD PTR ?pageNum@@3HA, 1
  005d0	0f 85 d2 00 00
	00		 jne	 $LN42@joinChanne
  005d6	83 7d c4 1e	 cmp	 DWORD PTR _i$[ebp], 30	; 0000001eH
  005da	0f 8c c8 00 00
	00		 jl	 $LN42@joinChanne
  005e0	83 7d c4 3c	 cmp	 DWORD PTR _i$[ebp], 60	; 0000003cH
  005e4	0f 8d be 00 00
	00		 jge	 $LN42@joinChanne

; 5200 : 			{
; 5201 : 				if (i < 40)

  005ea	83 7d c4 28	 cmp	 DWORD PTR _i$[ebp], 40	; 00000028H
  005ee	7d 37		 jge	 SHORT $LN44@joinChanne

; 5202 : 					StockFontBuffer(x + 25, y + 80 + (i - 30) * 25, FONT_PRIO_FRONT, color, channelData.name[i], 0);

  005f0	6a 00		 push	 0
  005f2	6b 45 c4 14	 imul	 eax, DWORD PTR _i$[ebp], 20
  005f6	05 9c 01 00 00	 add	 eax, OFFSET ?channelData@@3UTchannelData@@A+412
  005fb	50		 push	 eax
  005fc	8b 8d a4 fb ff
	ff		 mov	 ecx, DWORD PTR _color$1[ebp]
  00602	51		 push	 ecx
  00603	6a 01		 push	 1
  00605	8b 55 c4	 mov	 edx, DWORD PTR _i$[ebp]
  00608	83 ea 1e	 sub	 edx, 30			; 0000001eH
  0060b	6b c2 19	 imul	 eax, edx, 25
  0060e	8b 4d e8	 mov	 ecx, DWORD PTR _y$[ebp]
  00611	8d 54 01 50	 lea	 edx, DWORD PTR [ecx+eax+80]
  00615	52		 push	 edx
  00616	8b 45 f4	 mov	 eax, DWORD PTR _x$[ebp]
  00619	83 c0 19	 add	 eax, 25			; 00000019H
  0061c	50		 push	 eax
  0061d	e8 00 00 00 00	 call	 ?StockFontBuffer@@YAHHHDHPADH@Z ; StockFontBuffer
  00622	83 c4 18	 add	 esp, 24			; 00000018H
  00625	eb 7c		 jmp	 SHORT $LN45@joinChanne
$LN44@joinChanne:

; 5203 : 				else if (i < 50)

  00627	83 7d c4 32	 cmp	 DWORD PTR _i$[ebp], 50	; 00000032H
  0062b	7d 39		 jge	 SHORT $LN46@joinChanne

; 5204 : 					StockFontBuffer(x + 25 + 140, y + 80 + (i - 40) * 25, FONT_PRIO_FRONT, color, channelData.name[i], 0);

  0062d	6a 00		 push	 0
  0062f	6b 45 c4 14	 imul	 eax, DWORD PTR _i$[ebp], 20
  00633	05 9c 01 00 00	 add	 eax, OFFSET ?channelData@@3UTchannelData@@A+412
  00638	50		 push	 eax
  00639	8b 8d a4 fb ff
	ff		 mov	 ecx, DWORD PTR _color$1[ebp]
  0063f	51		 push	 ecx
  00640	6a 01		 push	 1
  00642	8b 55 c4	 mov	 edx, DWORD PTR _i$[ebp]
  00645	83 ea 28	 sub	 edx, 40			; 00000028H
  00648	6b c2 19	 imul	 eax, edx, 25
  0064b	8b 4d e8	 mov	 ecx, DWORD PTR _y$[ebp]
  0064e	8d 54 01 50	 lea	 edx, DWORD PTR [ecx+eax+80]
  00652	52		 push	 edx
  00653	8b 45 f4	 mov	 eax, DWORD PTR _x$[ebp]
  00656	05 a5 00 00 00	 add	 eax, 165		; 000000a5H
  0065b	50		 push	 eax
  0065c	e8 00 00 00 00	 call	 ?StockFontBuffer@@YAHHHDHPADH@Z ; StockFontBuffer
  00661	83 c4 18	 add	 esp, 24			; 00000018H
  00664	eb 3d		 jmp	 SHORT $LN45@joinChanne
$LN46@joinChanne:

; 5205 : 				else if (i < 60)

  00666	83 7d c4 3c	 cmp	 DWORD PTR _i$[ebp], 60	; 0000003cH
  0066a	7d 37		 jge	 SHORT $LN45@joinChanne

; 5206 : 					StockFontBuffer(x + 25 + 280, y + 80 + (i - 50) * 25, FONT_PRIO_FRONT, color, channelData.name[i], 0);

  0066c	6a 00		 push	 0
  0066e	6b 45 c4 14	 imul	 eax, DWORD PTR _i$[ebp], 20
  00672	05 9c 01 00 00	 add	 eax, OFFSET ?channelData@@3UTchannelData@@A+412
  00677	50		 push	 eax
  00678	8b 8d a4 fb ff
	ff		 mov	 ecx, DWORD PTR _color$1[ebp]
  0067e	51		 push	 ecx
  0067f	6a 01		 push	 1
  00681	8b 55 c4	 mov	 edx, DWORD PTR _i$[ebp]
  00684	83 ea 32	 sub	 edx, 50			; 00000032H
  00687	6b c2 19	 imul	 eax, edx, 25
  0068a	8b 4d e8	 mov	 ecx, DWORD PTR _y$[ebp]
  0068d	8d 54 01 50	 lea	 edx, DWORD PTR [ecx+eax+80]
  00691	52		 push	 edx
  00692	8b 45 f4	 mov	 eax, DWORD PTR _x$[ebp]
  00695	05 31 01 00 00	 add	 eax, 305		; 00000131H
  0069a	50		 push	 eax
  0069b	e8 00 00 00 00	 call	 ?StockFontBuffer@@YAHHHDHPADH@Z ; StockFontBuffer
  006a0	83 c4 18	 add	 esp, 24			; 00000018H
$LN45@joinChanne:

; 5207 : 			}

  006a3	e9 d0 00 00 00	 jmp	 $LN36@joinChanne
$LN42@joinChanne:

; 5208 : 			else if (pageNum == 2 && i >= 60)

  006a8	83 3d 00 00 00
	00 02		 cmp	 DWORD PTR ?pageNum@@3HA, 2
  006af	0f 85 c3 00 00
	00		 jne	 $LN36@joinChanne
  006b5	83 7d c4 3c	 cmp	 DWORD PTR _i$[ebp], 60	; 0000003cH
  006b9	0f 8c b9 00 00
	00		 jl	 $LN36@joinChanne

; 5209 : 			{
; 5210 : 				if (i < 70)

  006bf	83 7d c4 46	 cmp	 DWORD PTR _i$[ebp], 70	; 00000046H
  006c3	7d 37		 jge	 SHORT $LN50@joinChanne

; 5211 : 					StockFontBuffer(x + 25, y + 80 + (i - 60) * 25, FONT_PRIO_FRONT, color, channelData.name[i], 0);

  006c5	6a 00		 push	 0
  006c7	6b 45 c4 14	 imul	 eax, DWORD PTR _i$[ebp], 20
  006cb	05 9c 01 00 00	 add	 eax, OFFSET ?channelData@@3UTchannelData@@A+412
  006d0	50		 push	 eax
  006d1	8b 8d a4 fb ff
	ff		 mov	 ecx, DWORD PTR _color$1[ebp]
  006d7	51		 push	 ecx
  006d8	6a 01		 push	 1
  006da	8b 55 c4	 mov	 edx, DWORD PTR _i$[ebp]
  006dd	83 ea 3c	 sub	 edx, 60			; 0000003cH
  006e0	6b c2 19	 imul	 eax, edx, 25
  006e3	8b 4d e8	 mov	 ecx, DWORD PTR _y$[ebp]
  006e6	8d 54 01 50	 lea	 edx, DWORD PTR [ecx+eax+80]
  006ea	52		 push	 edx
  006eb	8b 45 f4	 mov	 eax, DWORD PTR _x$[ebp]
  006ee	83 c0 19	 add	 eax, 25			; 00000019H
  006f1	50		 push	 eax
  006f2	e8 00 00 00 00	 call	 ?StockFontBuffer@@YAHHHDHPADH@Z ; StockFontBuffer
  006f7	83 c4 18	 add	 esp, 24			; 00000018H
  006fa	eb 7c		 jmp	 SHORT $LN36@joinChanne
$LN50@joinChanne:

; 5212 : 				else if (i < 80)

  006fc	83 7d c4 50	 cmp	 DWORD PTR _i$[ebp], 80	; 00000050H
  00700	7d 39		 jge	 SHORT $LN52@joinChanne

; 5213 : 					StockFontBuffer(x + 25 + 140, y + 80 + (i - 70) * 25, FONT_PRIO_FRONT, color, channelData.name[i], 0);

  00702	6a 00		 push	 0
  00704	6b 45 c4 14	 imul	 eax, DWORD PTR _i$[ebp], 20
  00708	05 9c 01 00 00	 add	 eax, OFFSET ?channelData@@3UTchannelData@@A+412
  0070d	50		 push	 eax
  0070e	8b 8d a4 fb ff
	ff		 mov	 ecx, DWORD PTR _color$1[ebp]
  00714	51		 push	 ecx
  00715	6a 01		 push	 1
  00717	8b 55 c4	 mov	 edx, DWORD PTR _i$[ebp]
  0071a	83 ea 46	 sub	 edx, 70			; 00000046H
  0071d	6b c2 19	 imul	 eax, edx, 25
  00720	8b 4d e8	 mov	 ecx, DWORD PTR _y$[ebp]
  00723	8d 54 01 50	 lea	 edx, DWORD PTR [ecx+eax+80]
  00727	52		 push	 edx
  00728	8b 45 f4	 mov	 eax, DWORD PTR _x$[ebp]
  0072b	05 a5 00 00 00	 add	 eax, 165		; 000000a5H
  00730	50		 push	 eax
  00731	e8 00 00 00 00	 call	 ?StockFontBuffer@@YAHHHDHPADH@Z ; StockFontBuffer
  00736	83 c4 18	 add	 esp, 24			; 00000018H
  00739	eb 3d		 jmp	 SHORT $LN36@joinChanne
$LN52@joinChanne:

; 5214 : 				else if (i < 90)

  0073b	83 7d c4 5a	 cmp	 DWORD PTR _i$[ebp], 90	; 0000005aH
  0073f	7d 37		 jge	 SHORT $LN36@joinChanne

; 5215 : 					StockFontBuffer(x + 25 + 280, y + 80 + (i - 80) * 25, FONT_PRIO_FRONT, color, channelData.name[i], 0);

  00741	6a 00		 push	 0
  00743	6b 45 c4 14	 imul	 eax, DWORD PTR _i$[ebp], 20
  00747	05 9c 01 00 00	 add	 eax, OFFSET ?channelData@@3UTchannelData@@A+412
  0074c	50		 push	 eax
  0074d	8b 8d a4 fb ff
	ff		 mov	 ecx, DWORD PTR _color$1[ebp]
  00753	51		 push	 ecx
  00754	6a 01		 push	 1
  00756	8b 55 c4	 mov	 edx, DWORD PTR _i$[ebp]
  00759	83 ea 50	 sub	 edx, 80			; 00000050H
  0075c	6b c2 19	 imul	 eax, edx, 25
  0075f	8b 4d e8	 mov	 ecx, DWORD PTR _y$[ebp]
  00762	8d 54 01 50	 lea	 edx, DWORD PTR [ecx+eax+80]
  00766	52		 push	 edx
  00767	8b 45 f4	 mov	 eax, DWORD PTR _x$[ebp]
  0076a	05 31 01 00 00	 add	 eax, 305		; 00000131H
  0076f	50		 push	 eax
  00770	e8 00 00 00 00	 call	 ?StockFontBuffer@@YAHHHDHPADH@Z ; StockFontBuffer
  00775	83 c4 18	 add	 esp, 24			; 00000018H
$LN36@joinChanne:

; 5216 : 			}
; 5217 : 		}

  00778	e9 41 fd ff ff	 jmp	 $LN8@joinChanne
$LN1@joinChanne:

; 5218 : 	}
; 5219 : }

  0077d	52		 push	 edx
  0077e	8b cd		 mov	 ecx, ebp
  00780	50		 push	 eax
  00781	8d 15 00 00 00
	00		 lea	 edx, DWORD PTR $LN58@joinChanne
  00787	e8 00 00 00 00	 call	 @_RTC_CheckStackVars@8
  0078c	58		 pop	 eax
  0078d	5a		 pop	 edx
  0078e	5f		 pop	 edi
  0078f	5e		 pop	 esi
  00790	5b		 pop	 ebx
  00791	8b 4d fc	 mov	 ecx, DWORD PTR __$ArrayPad$[ebp]
  00794	33 cd		 xor	 ecx, ebp
  00796	e8 00 00 00 00	 call	 @__security_check_cookie@4
  0079b	81 c4 a4 06 00
	00		 add	 esp, 1700		; 000006a4H
  007a1	3b ec		 cmp	 ebp, esp
  007a3	e8 00 00 00 00	 call	 __RTC_CheckEsp
  007a8	8b e5		 mov	 esp, ebp
  007aa	5d		 pop	 ebp
  007ab	c3		 ret	 0
$LN58@joinChanne:
  007ac	01 00 00 00	 DD	 1
  007b0	00 00 00 00	 DD	 $LN57@joinChanne
$LN57@joinChanne:
  007b4	bc fb ff ff	 DD	 -1092			; fffffbbcH
  007b8	00 04 00 00	 DD	 1024			; 00000400H
  007bc	00 00 00 00	 DD	 $LN56@joinChanne
$LN56@joinChanne:
  007c0	62		 DB	 98			; 00000062H
  007c1	75		 DB	 117			; 00000075H
  007c2	66		 DB	 102			; 00000066H
  007c3	00		 DB	 0
$LN59@joinChanne:
  007c4	00 00 00 00	 DD	 $LN17@joinChanne
  007c8	00 00 00 00	 DD	 $LN20@joinChanne
  007cc	00 00 00 00	 DD	 $LN24@joinChanne
  007d0	00 00 00 00	 DD	 $LN26@joinChanne
?joinChannel2WN@@YAXXZ ENDP				; joinChannel2WN
_TEXT	ENDS
; Function compile flags: /Odtp /RTCsu /ZI
; File c:\users\administrator\desktop\????? ??\????? ??\client source code\system\field.cpp
;	COMDAT ?closeJoinChannel2WN@@YAXXZ
_TEXT	SEGMENT
?closeJoinChannel2WN@@YAXXZ PROC			; closeJoinChannel2WN, COMDAT

; 5075 : {

  00000	55		 push	 ebp
  00001	8b ec		 mov	 ebp, esp
  00003	81 ec c0 00 00
	00		 sub	 esp, 192		; 000000c0H
  00009	53		 push	 ebx
  0000a	56		 push	 esi
  0000b	57		 push	 edi
  0000c	8d bd 40 ff ff
	ff		 lea	 edi, DWORD PTR [ebp-192]
  00012	b9 30 00 00 00	 mov	 ecx, 48			; 00000030H
  00017	b8 cc cc cc cc	 mov	 eax, -858993460		; ccccccccH
  0001c	f3 ab		 rep stosd

; 5076 : 	joinChannel2Proc = 0;

  0001e	33 c0		 xor	 eax, eax
  00020	66 a3 00 00 00
	00		 mov	 WORD PTR ?joinChannel2Proc@@3FA, ax

; 5077 : 	DeathAction(ptActChannel2Win);

  00026	a1 00 00 00 00	 mov	 eax, DWORD PTR ?ptActChannel2Win@@3PAUaction@@A
  0002b	50		 push	 eax
  0002c	e8 00 00 00 00	 call	 ?DeathAction@@YAXPAUaction@@@Z ; DeathAction
  00031	83 c4 04	 add	 esp, 4

; 5078 : 	ptActChannel2Win = NULL;

  00034	c7 05 00 00 00
	00 00 00 00 00	 mov	 DWORD PTR ?ptActChannel2Win@@3PAUaction@@A, 0

; 5079 : }

  0003e	5f		 pop	 edi
  0003f	5e		 pop	 esi
  00040	5b		 pop	 ebx
  00041	81 c4 c0 00 00
	00		 add	 esp, 192		; 000000c0H
  00047	3b ec		 cmp	 ebp, esp
  00049	e8 00 00 00 00	 call	 __RTC_CheckEsp
  0004e	8b e5		 mov	 esp, ebp
  00050	5d		 pop	 ebp
  00051	c3		 ret	 0
?closeJoinChannel2WN@@YAXXZ ENDP			; closeJoinChannel2WN
_TEXT	ENDS
; Function compile flags: /Odtp /RTCsu /ZI
; File c:\users\administrator\desktop\????? ??\????? ??\client source code\system\field.cpp
;	COMDAT ?initJoinChannel2WN@@YAXPAD@Z
_TEXT	SEGMENT
_buf$ = -276						; size = 256
_i$ = -12						; size = 4
__$ArrayPad$ = -4					; size = 4
_data$ = 8						; size = 4
?initJoinChannel2WN@@YAXPAD@Z PROC			; initJoinChannel2WN, COMDAT

; 5045 : {

  00000	55		 push	 ebp
  00001	8b ec		 mov	 ebp, esp
  00003	81 ec d8 01 00
	00		 sub	 esp, 472		; 000001d8H
  00009	53		 push	 ebx
  0000a	56		 push	 esi
  0000b	57		 push	 edi
  0000c	8d bd 28 fe ff
	ff		 lea	 edi, DWORD PTR [ebp-472]
  00012	b9 76 00 00 00	 mov	 ecx, 118		; 00000076H
  00017	b8 cc cc cc cc	 mov	 eax, -858993460		; ccccccccH
  0001c	f3 ab		 rep stosd
  0001e	a1 00 00 00 00	 mov	 eax, DWORD PTR ___security_cookie
  00023	33 c5		 xor	 eax, ebp
  00025	89 45 fc	 mov	 DWORD PTR __$ArrayPad$[ebp], eax

; 5046 : 	int i;
; 5047 : 	char buf[256];
; 5048 : 	
; 5049 : 	channelData.joinNum = 0;

  00028	c7 05 98 01 00
	00 00 00 00 00	 mov	 DWORD PTR ?channelData@@3UTchannelData@@A+408, 0

; 5050 : 	getStringToken(data, '|', 3, sizeof(buf) - 1, buf);

  00032	8d 85 ec fe ff
	ff		 lea	 eax, DWORD PTR _buf$[ebp]
  00038	50		 push	 eax
  00039	68 ff 00 00 00	 push	 255			; 000000ffH
  0003e	6a 03		 push	 3
  00040	6a 7c		 push	 124			; 0000007cH
  00042	8b 4d 08	 mov	 ecx, DWORD PTR _data$[ebp]
  00045	51		 push	 ecx
  00046	e8 00 00 00 00	 call	 ?getStringToken@@YAHPADDHH0@Z ; getStringToken
  0004b	83 c4 14	 add	 esp, 20			; 00000014H

; 5051 : 	channelData.index = atoi(buf);

  0004e	8b f4		 mov	 esi, esp
  00050	8d 85 ec fe ff
	ff		 lea	 eax, DWORD PTR _buf$[ebp]
  00056	50		 push	 eax
  00057	ff 15 00 00 00
	00		 call	 DWORD PTR __imp__atoi
  0005d	83 c4 04	 add	 esp, 4
  00060	3b f4		 cmp	 esi, esp
  00062	e8 00 00 00 00	 call	 __RTC_CheckEsp
  00067	a3 00 00 00 00	 mov	 DWORD PTR ?channelData@@3UTchannelData@@A, eax

; 5052 : 	getStringToken(data, '|', 4, sizeof(buf) - 1, buf);

  0006c	8d 85 ec fe ff
	ff		 lea	 eax, DWORD PTR _buf$[ebp]
  00072	50		 push	 eax
  00073	68 ff 00 00 00	 push	 255			; 000000ffH
  00078	6a 04		 push	 4
  0007a	6a 7c		 push	 124			; 0000007cH
  0007c	8b 4d 08	 mov	 ecx, DWORD PTR _data$[ebp]
  0007f	51		 push	 ecx
  00080	e8 00 00 00 00	 call	 ?getStringToken@@YAHPADDHH0@Z ; getStringToken
  00085	83 c4 14	 add	 esp, 20			; 00000014H

; 5053 : 	channelData.num = atoi(buf);

  00088	8b f4		 mov	 esi, esp
  0008a	8d 85 ec fe ff
	ff		 lea	 eax, DWORD PTR _buf$[ebp]
  00090	50		 push	 eax
  00091	ff 15 00 00 00
	00		 call	 DWORD PTR __imp__atoi
  00097	83 c4 04	 add	 esp, 4
  0009a	3b f4		 cmp	 esi, esp
  0009c	e8 00 00 00 00	 call	 __RTC_CheckEsp
  000a1	a3 04 00 00 00	 mov	 DWORD PTR ?channelData@@3UTchannelData@@A+4, eax

; 5054 : 	
; 5055 : 	if (channelData.num > 0)

  000a6	83 3d 04 00 00
	00 00		 cmp	 DWORD PTR ?channelData@@3UTchannelData@@A+4, 0
  000ad	0f 8e da 00 00
	00		 jle	 $LN5@initJoinCh

; 5056 : 	{
; 5057 : 		for (i = 0; i < channelData.num && i < FAMILY_MAXMEMBER; i++)

  000b3	c7 45 f4 00 00
	00 00		 mov	 DWORD PTR _i$[ebp], 0
  000ba	eb 09		 jmp	 SHORT $LN4@initJoinCh
$LN2@initJoinCh:
  000bc	8b 45 f4	 mov	 eax, DWORD PTR _i$[ebp]
  000bf	83 c0 01	 add	 eax, 1
  000c2	89 45 f4	 mov	 DWORD PTR _i$[ebp], eax
$LN4@initJoinCh:
  000c5	8b 45 f4	 mov	 eax, DWORD PTR _i$[ebp]
  000c8	3b 05 04 00 00
	00		 cmp	 eax, DWORD PTR ?channelData@@3UTchannelData@@A+4
  000ce	0f 8d b9 00 00
	00		 jge	 $LN5@initJoinCh
  000d4	83 7d f4 64	 cmp	 DWORD PTR _i$[ebp], 100	; 00000064H
  000d8	0f 8d af 00 00
	00		 jge	 $LN5@initJoinCh

; 5058 : 		{
; 5059 : 			getStringToken(data, '|', 4 + (i * 2) + 1, sizeof(buf) - 1, buf);

  000de	8d 85 ec fe ff
	ff		 lea	 eax, DWORD PTR _buf$[ebp]
  000e4	50		 push	 eax
  000e5	68 ff 00 00 00	 push	 255			; 000000ffH
  000ea	8b 4d f4	 mov	 ecx, DWORD PTR _i$[ebp]
  000ed	8d 54 09 05	 lea	 edx, DWORD PTR [ecx+ecx+5]
  000f1	52		 push	 edx
  000f2	6a 7c		 push	 124			; 0000007cH
  000f4	8b 45 08	 mov	 eax, DWORD PTR _data$[ebp]
  000f7	50		 push	 eax
  000f8	e8 00 00 00 00	 call	 ?getStringToken@@YAHPADDHH0@Z ; getStringToken
  000fd	83 c4 14	 add	 esp, 20			; 00000014H

; 5060 : 			channelData.join[i] = atoi(buf);

  00100	8b f4		 mov	 esi, esp
  00102	8d 85 ec fe ff
	ff		 lea	 eax, DWORD PTR _buf$[ebp]
  00108	50		 push	 eax
  00109	ff 15 00 00 00
	00		 call	 DWORD PTR __imp__atoi
  0010f	83 c4 04	 add	 esp, 4
  00112	3b f4		 cmp	 esi, esp
  00114	e8 00 00 00 00	 call	 __RTC_CheckEsp
  00119	8b 4d f4	 mov	 ecx, DWORD PTR _i$[ebp]
  0011c	89 04 8d 08 00
	00 00		 mov	 DWORD PTR ?channelData@@3UTchannelData@@A[ecx*4+8], eax

; 5061 : 			if (channelData.join[i] == 1)

  00123	8b 45 f4	 mov	 eax, DWORD PTR _i$[ebp]
  00126	83 3c 85 08 00
	00 00 01	 cmp	 DWORD PTR ?channelData@@3UTchannelData@@A[eax*4+8], 1
  0012e	75 0d		 jne	 SHORT $LN6@initJoinCh

; 5062 : 				channelData.joinNum++;

  00130	a1 98 01 00 00	 mov	 eax, DWORD PTR ?channelData@@3UTchannelData@@A+408
  00135	83 c0 01	 add	 eax, 1
  00138	a3 98 01 00 00	 mov	 DWORD PTR ?channelData@@3UTchannelData@@A+408, eax
$LN6@initJoinCh:

; 5063 : 			getStringToken(data, '|', 4 + (i * 2) + 2, sizeof(buf) - 1, buf);

  0013d	8d 85 ec fe ff
	ff		 lea	 eax, DWORD PTR _buf$[ebp]
  00143	50		 push	 eax
  00144	68 ff 00 00 00	 push	 255			; 000000ffH
  00149	8b 4d f4	 mov	 ecx, DWORD PTR _i$[ebp]
  0014c	8d 54 09 06	 lea	 edx, DWORD PTR [ecx+ecx+6]
  00150	52		 push	 edx
  00151	6a 7c		 push	 124			; 0000007cH
  00153	8b 45 08	 mov	 eax, DWORD PTR _data$[ebp]
  00156	50		 push	 eax
  00157	e8 00 00 00 00	 call	 ?getStringToken@@YAHPADDHH0@Z ; getStringToken
  0015c	83 c4 14	 add	 esp, 20			; 00000014H

; 5064 : 			makeStringFromEscaped(buf);

  0015f	8d 85 ec fe ff
	ff		 lea	 eax, DWORD PTR _buf$[ebp]
  00165	50		 push	 eax
  00166	e8 00 00 00 00	 call	 ?makeStringFromEscaped@@YAPADPAD@Z ; makeStringFromEscaped
  0016b	83 c4 04	 add	 esp, 4

; 5065 : 			strcpy(channelData.name[i], buf);

  0016e	8d 85 ec fe ff
	ff		 lea	 eax, DWORD PTR _buf$[ebp]
  00174	50		 push	 eax
  00175	6b 4d f4 14	 imul	 ecx, DWORD PTR _i$[ebp], 20
  00179	81 c1 9c 01 00
	00		 add	 ecx, OFFSET ?channelData@@3UTchannelData@@A+412
  0017f	51		 push	 ecx
  00180	e8 00 00 00 00	 call	 _strcpy
  00185	83 c4 08	 add	 esp, 8

; 5066 : 		}

  00188	e9 2f ff ff ff	 jmp	 $LN2@initJoinCh
$LN5@initJoinCh:

; 5067 : 	}
; 5068 : 	pageNum = 0;

  0018d	c7 05 00 00 00
	00 00 00 00 00	 mov	 DWORD PTR ?pageNum@@3HA, 0

; 5069 : 	play_se(202, 320, 240);	// ????????

  00197	68 f0 00 00 00	 push	 240			; 000000f0H
  0019c	68 40 01 00 00	 push	 320			; 00000140H
  001a1	68 ca 00 00 00	 push	 202			; 000000caH
  001a6	e8 00 00 00 00	 call	 ?play_se@@YAHHHH@Z	; play_se
  001ab	83 c4 0c	 add	 esp, 12			; 0000000cH

; 5070 : 	joinChannel2Proc = 1000;

  001ae	b8 e8 03 00 00	 mov	 eax, 1000		; 000003e8H
  001b3	66 a3 00 00 00
	00		 mov	 WORD PTR ?joinChannel2Proc@@3FA, ax

; 5071 : 
; 5072 : }

  001b9	52		 push	 edx
  001ba	8b cd		 mov	 ecx, ebp
  001bc	50		 push	 eax
  001bd	8d 15 00 00 00
	00		 lea	 edx, DWORD PTR $LN10@initJoinCh
  001c3	e8 00 00 00 00	 call	 @_RTC_CheckStackVars@8
  001c8	58		 pop	 eax
  001c9	5a		 pop	 edx
  001ca	5f		 pop	 edi
  001cb	5e		 pop	 esi
  001cc	5b		 pop	 ebx
  001cd	8b 4d fc	 mov	 ecx, DWORD PTR __$ArrayPad$[ebp]
  001d0	33 cd		 xor	 ecx, ebp
  001d2	e8 00 00 00 00	 call	 @__security_check_cookie@4
  001d7	81 c4 d8 01 00
	00		 add	 esp, 472		; 000001d8H
  001dd	3b ec		 cmp	 ebp, esp
  001df	e8 00 00 00 00	 call	 __RTC_CheckEsp
  001e4	8b e5		 mov	 esp, ebp
  001e6	5d		 pop	 ebp
  001e7	c3		 ret	 0
$LN10@initJoinCh:
  001e8	01 00 00 00	 DD	 1
  001ec	00 00 00 00	 DD	 $LN9@initJoinCh
$LN9@initJoinCh:
  001f0	ec fe ff ff	 DD	 -276			; fffffeecH
  001f4	00 01 00 00	 DD	 256			; 00000100H
  001f8	00 00 00 00	 DD	 $LN8@initJoinCh
$LN8@initJoinCh:
  001fc	62		 DB	 98			; 00000062H
  001fd	75		 DB	 117			; 00000075H
  001fe	66		 DB	 102			; 00000066H
  001ff	00		 DB	 0
?initJoinChannel2WN@@YAXPAD@Z ENDP			; initJoinChannel2WN
_TEXT	ENDS
; Function compile flags: /Odtp /RTCsu /ZI
; File c:\users\administrator\desktop\????? ??\????? ??\client source code\system\field.cpp
;	COMDAT ?joinChannelWN@@YAXXZ
_TEXT	SEGMENT
tv286 = -1772						; size = 4
tv132 = -1772						; size = 4
_selgraId$ = -1188					; size = 4
_selId$ = -1176						; size = 4
_buf2$ = -1164						; size = 64
_buf$ = -1092						; size = 1024
_i$ = -60						; size = 4
_h$ = -48						; size = 4
_w$ = -36						; size = 4
_y$ = -24						; size = 4
_x$ = -12						; size = 4
__$ArrayPad$ = -4					; size = 4
?joinChannelWN@@YAXXZ PROC				; joinChannelWN, COMDAT

; 4787 : {

  00000	55		 push	 ebp
  00001	8b ec		 mov	 ebp, esp
  00003	81 ec ec 06 00
	00		 sub	 esp, 1772		; 000006ecH
  00009	53		 push	 ebx
  0000a	56		 push	 esi
  0000b	57		 push	 edi
  0000c	8d bd 14 f9 ff
	ff		 lea	 edi, DWORD PTR [ebp-1772]
  00012	b9 bb 01 00 00	 mov	 ecx, 443		; 000001bbH
  00017	b8 cc cc cc cc	 mov	 eax, -858993460		; ccccccccH
  0001c	f3 ab		 rep stosd
  0001e	a1 00 00 00 00	 mov	 eax, DWORD PTR ___security_cookie
  00023	33 c5		 xor	 eax, ebp
  00025	89 45 fc	 mov	 DWORD PTR __$ArrayPad$[ebp], eax

; 4788 : 	//static ACTION *ptActMenuWin = NULL;
; 4789 : 	int x, y, w, h, i;
; 4790 : #ifndef _FM_MODIFY
; 4791 : 	static int btnId[9];
; 4792 : #else
; 4793 : 	static int btnId[5];
; 4794 : #endif
; 4795 : 	static int graId[1];
; 4796 : 	char buf[1024], buf2[64];
; 4797 : 	int selId = 0;

  00028	c7 85 68 fb ff
	ff 00 00 00 00	 mov	 DWORD PTR _selId$[ebp], 0

; 4798 : 	int selgraId;
; 4799 : 
; 4800 : 	x = 20;

  00032	c7 45 f4 14 00
	00 00		 mov	 DWORD PTR _x$[ebp], 20	; 00000014H

; 4801 : 	y = 30;

  00039	c7 45 e8 1e 00
	00 00		 mov	 DWORD PTR _y$[ebp], 30	; 0000001eH

; 4802 : 	w = 2;

  00040	c7 45 dc 02 00
	00 00		 mov	 DWORD PTR _w$[ebp], 2

; 4803 : #ifndef _FM_MODIFY
; 4804 : 	h = 8;
; 4805 : #else
; 4806 : 	h = 5;

  00047	c7 45 d0 05 00
	00 00		 mov	 DWORD PTR _h$[ebp], 5

; 4807 : #endif
; 4808 : 
; 4809 : 
; 4810 : 	if (ptActChannelWin == NULL)

  0004e	83 3d 00 00 00
	00 00		 cmp	 DWORD PTR ?ptActChannelWin@@3PAUaction@@A, 0
  00055	75 64		 jne	 SHORT $LN12@joinChanne

; 4811 : 	{
; 4812 : 		ptActChannelWin = MakeWindowDisp(x, y, w, h, NULL, 1);

  00057	6a 01		 push	 1
  00059	6a 00		 push	 0
  0005b	8b 45 d0	 mov	 eax, DWORD PTR _h$[ebp]
  0005e	50		 push	 eax
  0005f	8b 4d dc	 mov	 ecx, DWORD PTR _w$[ebp]
  00062	51		 push	 ecx
  00063	8b 55 e8	 mov	 edx, DWORD PTR _y$[ebp]
  00066	52		 push	 edx
  00067	8b 45 f4	 mov	 eax, DWORD PTR _x$[ebp]
  0006a	50		 push	 eax
  0006b	e8 00 00 00 00	 call	 ?MakeWindowDisp@@YAPAUaction@@HHHHHH@Z ; MakeWindowDisp
  00070	83 c4 18	 add	 esp, 24			; 00000018H
  00073	a3 00 00 00 00	 mov	 DWORD PTR ?ptActChannelWin@@3PAUaction@@A, eax

; 4813 : #ifdef _NEW_RESOMODE  //800 600妯″
; 4814 : 		x = ptActChannelWin->x;

  00078	a1 00 00 00 00	 mov	 eax, DWORD PTR ?ptActChannelWin@@3PAUaction@@A
  0007d	8b 48 18	 mov	 ecx, DWORD PTR [eax+24]
  00080	89 4d f4	 mov	 DWORD PTR _x$[ebp], ecx

; 4815 : 		y = ptActChannelWin->y;

  00083	a1 00 00 00 00	 mov	 eax, DWORD PTR ?ptActChannelWin@@3PAUaction@@A
  00088	8b 48 1c	 mov	 ecx, DWORD PTR [eax+28]
  0008b	89 4d e8	 mov	 DWORD PTR _y$[ebp], ecx

; 4816 : #endif
; 4817 : 		for (i = 0; i < sizeof(btnId) / sizeof(int); i++)

  0008e	c7 45 c4 00 00
	00 00		 mov	 DWORD PTR _i$[ebp], 0
  00095	eb 09		 jmp	 SHORT $LN4@joinChanne
$LN2@joinChanne:
  00097	8b 45 c4	 mov	 eax, DWORD PTR _i$[ebp]
  0009a	83 c0 01	 add	 eax, 1
  0009d	89 45 c4	 mov	 DWORD PTR _i$[ebp], eax
$LN4@joinChanne:
  000a0	83 7d c4 05	 cmp	 DWORD PTR _i$[ebp], 5
  000a4	73 10		 jae	 SHORT $LN3@joinChanne

; 4818 : 			btnId[i] = -2;

  000a6	8b 45 c4	 mov	 eax, DWORD PTR _i$[ebp]
  000a9	c7 04 85 00 00
	00 00 fe ff ff
	ff		 mov	 DWORD PTR ?btnId@?1??joinChannelWN@@YAXXZ@4PAHA[eax*4], -2 ; fffffffeH
  000b4	eb e1		 jmp	 SHORT $LN2@joinChanne
$LN3@joinChanne:

; 4819 : 	}
; 4820 : 	else

  000b6	e9 15 05 00 00	 jmp	 $LN1@joinChanne
$LN12@joinChanne:

; 4821 : 	{
; 4822 : 		if (ptActChannelWin->hp >= 1)

  000bb	a1 00 00 00 00	 mov	 eax, DWORD PTR ?ptActChannelWin@@3PAUaction@@A
  000c0	83 78 78 01	 cmp	 DWORD PTR [eax+120], 1
  000c4	0f 8c 06 05 00
	00		 jl	 $LN1@joinChanne

; 4823 : 		{
; 4824 : 			// ESC????????
; 4825 : 			if (((joy_trg[0] & JOY_ESC) && GetImeString() == NULL))

  000ca	b8 04 00 00 00	 mov	 eax, 4
  000cf	6b c8 00	 imul	 ecx, eax, 0
  000d2	8b 91 00 00 00
	00		 mov	 edx, DWORD PTR ?joy_trg@@3PAKA[ecx]
  000d8	81 e2 00 00 00
	80		 and	 edx, -2147483648	; 80000000H
  000de	74 25		 je	 SHORT $LN15@joinChanne
  000e0	e8 00 00 00 00	 call	 ?GetImeString@@YAPADXZ	; GetImeString
  000e5	85 c0		 test	 eax, eax
  000e7	75 1c		 jne	 SHORT $LN15@joinChanne

; 4826 : 			{
; 4827 : 				closeJoinChannelWN();

  000e9	e8 00 00 00 00	 call	 ?closeJoinChannelWN@@YAXXZ ; closeJoinChannelWN

; 4828 : 				play_se(203, 320, 240);	// ????????

  000ee	68 f0 00 00 00	 push	 240			; 000000f0H
  000f3	68 40 01 00 00	 push	 320			; 00000140H
  000f8	68 cb 00 00 00	 push	 203			; 000000cbH
  000fd	e8 00 00 00 00	 call	 ?play_se@@YAHHHH@Z	; play_se
  00102	83 c4 0c	 add	 esp, 12			; 0000000cH
$LN15@joinChanne:

; 4829 : 			}
; 4830 : 			if (CheckMenuFlag())

  00105	e8 00 00 00 00	 call	 ?CheckMenuFlag@@YAHXZ	; CheckMenuFlag
  0010a	85 c0		 test	 eax, eax
  0010c	74 05		 je	 SHORT $LN16@joinChanne

; 4831 : 				closeJoinChannelWN();

  0010e	e8 00 00 00 00	 call	 ?closeJoinChannelWN@@YAXXZ ; closeJoinChannelWN
$LN16@joinChanne:

; 4832 : 			
; 4833 : 			selId = focusFontId(btnId, sizeof(btnId) / sizeof(int));

  00113	6a 05		 push	 5
  00115	68 00 00 00 00	 push	 OFFSET ?btnId@?1??joinChannelWN@@YAXXZ@4PAHA
  0011a	e8 00 00 00 00	 call	 ?focusFontId@@YAHPAHH@Z	; focusFontId
  0011f	83 c4 08	 add	 esp, 8
  00122	89 85 68 fb ff
	ff		 mov	 DWORD PTR _selId$[ebp], eax

; 4834 : 			selgraId = focusGraId(graId, sizeof(graId) / sizeof(int));

  00128	6a 01		 push	 1
  0012a	68 00 00 00 00	 push	 OFFSET ?graId@?1??joinChannelWN@@YAXXZ@4PAHA
  0012f	e8 00 00 00 00	 call	 ?focusGraId@@YAHPAHH@Z	; focusGraId
  00134	83 c4 08	 add	 esp, 8
  00137	89 85 5c fb ff
	ff		 mov	 DWORD PTR _selgraId$[ebp], eax

; 4835 : 			
; 4836 : 			if (mouse.onceState & MOUSE_LEFT_CRICK)

  0013d	a1 2c 00 00 00	 mov	 eax, DWORD PTR ?mouse@@3UMOUSE@@A+44
  00142	83 e0 01	 and	 eax, 1
  00145	0f 84 a1 01 00
	00		 je	 $LN17@joinChanne

; 4837 : 			{
; 4838 : 				if (selgraId == 0)

  0014b	83 bd 5c fb ff
	ff 00		 cmp	 DWORD PTR _selgraId$[ebp], 0
  00152	75 21		 jne	 SHORT $LN18@joinChanne

; 4839 : 				{
; 4840 : 					closeJoinChannelWN();

  00154	e8 00 00 00 00	 call	 ?closeJoinChannelWN@@YAXXZ ; closeJoinChannelWN

; 4841 : 					play_se(203, 320, 240);

  00159	68 f0 00 00 00	 push	 240			; 000000f0H
  0015e	68 40 01 00 00	 push	 320			; 00000140H
  00163	68 cb 00 00 00	 push	 203			; 000000cbH
  00168	e8 00 00 00 00	 call	 ?play_se@@YAHHHH@Z	; play_se
  0016d	83 c4 0c	 add	 esp, 12			; 0000000cH

; 4842 : 					return;

  00170	e9 5b 04 00 00	 jmp	 $LN1@joinChanne
$LN18@joinChanne:

; 4843 : 				}
; 4844 : #ifndef _FM_MODIFY
; 4845 : 				switch (selId)
; 4846 : 				{
; 4847 : 				case 0:
; 4848 : 					sprintf(buf, "S|D2", selId);
; 4849 : 					break;
; 4850 : 				case 1:
; 4851 : 				case 2:
; 4852 : 				case 3:
; 4853 : 					sprintf(buf, "C|L|%d", selId);
; 4854 : 					break;
; 4855 : 				case 5:
; 4856 : 	#ifdef _FMVER21
; 4857 : 					if (pc.familyleader != FMMEMBER_LEADER)
; 4858 : 						return;
; 4859 : 	#else
; 4860 : 					if (pc.familyleader != 1)
; 4861 : 						return;
; 4862 : 	#endif
; 4863 : 					sprintf(buf, "C|J|5");
; 4864 : 					closeJoinChannelWN();
; 4865 : 					play_se(203, 320, 240);
; 4866 : 					break;
; 4867 : 				case 6:
; 4868 : 					sprintf(buf, "C|J|-1");
; 4869 : 					closeJoinChannelWN();
; 4870 : 					play_se(203, 320, 240);
; 4871 : 					break;
; 4872 : 				case 7:
; 4873 : 					DeathAction(ptActChannel2Win);
; 4874 : 					ptActChannel2Win = NULL;
; 4875 : 					joinChannel2Proc = 2000;
; 4876 : 					play_se(203, 320, 240);
; 4877 : 					return;
; 4878 : 				case 8:
; 4879 : 					sprintf(buf, "S|SELF");
; 4880 : 					closeJoinChannelWN();
; 4881 : 					play_se(203, 320, 240);
; 4882 : 					break;
; 4883 : 				}
; 4884 : #else
; 4885 : 				switch (selId)

  00175	8b 85 68 fb ff
	ff		 mov	 eax, DWORD PTR _selId$[ebp]
  0017b	89 85 14 f9 ff
	ff		 mov	 DWORD PTR tv132[ebp], eax
  00181	83 bd 14 f9 ff
	ff 03		 cmp	 DWORD PTR tv132[ebp], 3
  00188	0f 87 19 01 00
	00		 ja	 $LN5@joinChanne
  0018e	8b 8d 14 f9 ff
	ff		 mov	 ecx, DWORD PTR tv132[ebp]
  00194	ff 24 8d 00 00
	00 00		 jmp	 DWORD PTR $LN45@joinChanne[ecx*4]
$LN19@joinChanne:

; 4886 : 				{
; 4887 : 				case 0:
; 4888 : 					sprintf(buf, "S|D2", selId);

  0019b	8b 85 68 fb ff
	ff		 mov	 eax, DWORD PTR _selId$[ebp]
  001a1	50		 push	 eax
  001a2	68 00 00 00 00	 push	 OFFSET ??_C@_04PNGENDLA@S?$HMD2?$AA@
  001a7	8d 8d bc fb ff
	ff		 lea	 ecx, DWORD PTR _buf$[ebp]
  001ad	51		 push	 ecx
  001ae	e8 00 00 00 00	 call	 _sprintf
  001b3	83 c4 0c	 add	 esp, 12			; 0000000cH

; 4889 : 					break;

  001b6	e9 ec 00 00 00	 jmp	 $LN5@joinChanne
$LN20@joinChanne:

; 4890 : 				case 1:
; 4891 : 					DeathAction(ptActChannel2Win);

  001bb	a1 00 00 00 00	 mov	 eax, DWORD PTR ?ptActChannel2Win@@3PAUaction@@A
  001c0	50		 push	 eax
  001c1	e8 00 00 00 00	 call	 ?DeathAction@@YAXPAUaction@@@Z ; DeathAction
  001c6	83 c4 04	 add	 esp, 4

; 4892 : 					ptActChannel2Win = NULL;

  001c9	c7 05 00 00 00
	00 00 00 00 00	 mov	 DWORD PTR ?ptActChannel2Win@@3PAUaction@@A, 0

; 4893 : 					joinChannel2Proc = 2000;

  001d3	b8 d0 07 00 00	 mov	 eax, 2000		; 000007d0H
  001d8	66 a3 00 00 00
	00		 mov	 WORD PTR ?joinChannel2Proc@@3FA, ax

; 4894 : 					play_se(203, 320, 240);

  001de	68 f0 00 00 00	 push	 240			; 000000f0H
  001e3	68 40 01 00 00	 push	 320			; 00000140H
  001e8	68 cb 00 00 00	 push	 203			; 000000cbH
  001ed	e8 00 00 00 00	 call	 ?play_se@@YAHHHH@Z	; play_se
  001f2	83 c4 0c	 add	 esp, 12			; 0000000cH

; 4895 : 					return;

  001f5	e9 d6 03 00 00	 jmp	 $LN1@joinChanne
$LN21@joinChanne:

; 4896 : 				case 2:
; 4897 : 					sprintf(buf, "D");

  001fa	68 00 00 00 00	 push	 OFFSET ??_C@_01CKDDGHAB@D?$AA@
  001ff	8d 85 bc fb ff
	ff		 lea	 eax, DWORD PTR _buf$[ebp]
  00205	50		 push	 eax
  00206	e8 00 00 00 00	 call	 _sprintf
  0020b	83 c4 08	 add	 esp, 8

; 4898 : 					closeJoinChannelWN();

  0020e	e8 00 00 00 00	 call	 ?closeJoinChannelWN@@YAXXZ ; closeJoinChannelWN

; 4899 : 					play_se(203, 320, 240);

  00213	68 f0 00 00 00	 push	 240			; 000000f0H
  00218	68 40 01 00 00	 push	 320			; 00000140H
  0021d	68 cb 00 00 00	 push	 203			; 000000cbH
  00222	e8 00 00 00 00	 call	 ?play_se@@YAHHHH@Z	; play_se
  00227	83 c4 0c	 add	 esp, 12			; 0000000cH

; 4900 : 					break;

  0022a	eb 7b		 jmp	 SHORT $LN5@joinChanne
$LN22@joinChanne:

; 4901 : 				case 3:
; 4902 : 					sprintf(buf, "C|J|-1");

  0022c	68 00 00 00 00	 push	 OFFSET ??_C@_06KOPCAPBC@C?$HMJ?$HM?91?$AA@
  00231	8d 85 bc fb ff
	ff		 lea	 eax, DWORD PTR _buf$[ebp]
  00237	50		 push	 eax
  00238	e8 00 00 00 00	 call	 _sprintf
  0023d	83 c4 08	 add	 esp, 8

; 4903 : 					if (bNewServer)

  00240	83 3d 00 00 00
	00 00		 cmp	 DWORD PTR ?bNewServer@@3HA, 0 ; bNewServer
  00247	74 18		 je	 SHORT $LN23@joinChanne

; 4904 : 						lssproto_FM_send(sockfd, buf);

  00249	8d 85 bc fb ff
	ff		 lea	 eax, DWORD PTR _buf$[ebp]
  0024f	50		 push	 eax
  00250	8b 0d 00 00 00
	00		 mov	 ecx, DWORD PTR ?sockfd@@3IA ; sockfd
  00256	51		 push	 ecx
  00257	e8 00 00 00 00	 call	 ?lssproto_FM_send@@YAXHPAD@Z ; lssproto_FM_send
  0025c	83 c4 08	 add	 esp, 8

; 4905 : 					else

  0025f	eb 16		 jmp	 SHORT $LN24@joinChanne
$LN23@joinChanne:

; 4906 : 						old_lssproto_FM_send(sockfd, buf);

  00261	8d 85 bc fb ff
	ff		 lea	 eax, DWORD PTR _buf$[ebp]
  00267	50		 push	 eax
  00268	8b 0d 00 00 00
	00		 mov	 ecx, DWORD PTR ?sockfd@@3IA ; sockfd
  0026e	51		 push	 ecx
  0026f	e8 00 00 00 00	 call	 ?old_lssproto_FM_send@@YAXHPAD@Z ; old_lssproto_FM_send
  00274	83 c4 08	 add	 esp, 8
$LN24@joinChanne:

; 4907 : 					sprintf(buf, "S|SELF");

  00277	68 00 00 00 00	 push	 OFFSET ??_C@_06JEJPCC@S?$HMSELF?$AA@
  0027c	8d 85 bc fb ff
	ff		 lea	 eax, DWORD PTR _buf$[ebp]
  00282	50		 push	 eax
  00283	e8 00 00 00 00	 call	 _sprintf
  00288	83 c4 08	 add	 esp, 8

; 4908 : 					closeJoinChannelWN();

  0028b	e8 00 00 00 00	 call	 ?closeJoinChannelWN@@YAXXZ ; closeJoinChannelWN

; 4909 : 					play_se(203, 320, 240);

  00290	68 f0 00 00 00	 push	 240			; 000000f0H
  00295	68 40 01 00 00	 push	 320			; 00000140H
  0029a	68 cb 00 00 00	 push	 203			; 000000cbH
  0029f	e8 00 00 00 00	 call	 ?play_se@@YAHHHH@Z	; play_se
  002a4	83 c4 0c	 add	 esp, 12			; 0000000cH
$LN5@joinChanne:

; 4910 : 					break;
; 4911 : 				}
; 4912 : #endif
; 4913 : 				if (selId != -1)

  002a7	83 bd 68 fb ff
	ff ff		 cmp	 DWORD PTR _selId$[ebp], -1
  002ae	74 3c		 je	 SHORT $LN17@joinChanne

; 4914 : 				{
; 4915 : 					if (bNewServer)

  002b0	83 3d 00 00 00
	00 00		 cmp	 DWORD PTR ?bNewServer@@3HA, 0 ; bNewServer
  002b7	74 18		 je	 SHORT $LN26@joinChanne

; 4916 : 						lssproto_FM_send(sockfd, buf);

  002b9	8d 85 bc fb ff
	ff		 lea	 eax, DWORD PTR _buf$[ebp]
  002bf	50		 push	 eax
  002c0	8b 0d 00 00 00
	00		 mov	 ecx, DWORD PTR ?sockfd@@3IA ; sockfd
  002c6	51		 push	 ecx
  002c7	e8 00 00 00 00	 call	 ?lssproto_FM_send@@YAXHPAD@Z ; lssproto_FM_send
  002cc	83 c4 08	 add	 esp, 8

; 4917 : 					else

  002cf	eb 16		 jmp	 SHORT $LN27@joinChanne
$LN26@joinChanne:

; 4918 : 						old_lssproto_FM_send(sockfd, buf);

  002d1	8d 85 bc fb ff
	ff		 lea	 eax, DWORD PTR _buf$[ebp]
  002d7	50		 push	 eax
  002d8	8b 0d 00 00 00
	00		 mov	 ecx, DWORD PTR ?sockfd@@3IA ; sockfd
  002de	51		 push	 ecx
  002df	e8 00 00 00 00	 call	 ?old_lssproto_FM_send@@YAXHPAD@Z ; old_lssproto_FM_send
  002e4	83 c4 08	 add	 esp, 8
$LN27@joinChanne:

; 4919 : 					return;

  002e7	e9 e4 02 00 00	 jmp	 $LN1@joinChanne
$LN17@joinChanne:

; 4920 : 				}
; 4921 : 			}
; 4922 : 			
; 4923 : 			strcpy(buf2, "");

  002ec	68 00 00 00 00	 push	 OFFSET ??_C@_00CNPNBAHC@?$AA@
  002f1	8d 85 74 fb ff
	ff		 lea	 eax, DWORD PTR _buf2$[ebp]
  002f7	50		 push	 eax
  002f8	e8 00 00 00 00	 call	 _strcpy
  002fd	83 c4 08	 add	 esp, 8

; 4924 : 			for (i= 0; i < (int)(16 - strlen(pc.familyName)) / 2; i++)

  00300	c7 45 c4 00 00
	00 00		 mov	 DWORD PTR _i$[ebp], 0
  00307	eb 09		 jmp	 SHORT $LN9@joinChanne
$LN7@joinChanne:
  00309	8b 45 c4	 mov	 eax, DWORD PTR _i$[ebp]
  0030c	83 c0 01	 add	 eax, 1
  0030f	89 45 c4	 mov	 DWORD PTR _i$[ebp], eax
$LN9@joinChanne:
  00312	68 f6 50 00 00	 push	 OFFSET ?pc@@3UPC@@A+20726
  00317	e8 00 00 00 00	 call	 _strlen
  0031c	83 c4 04	 add	 esp, 4
  0031f	b9 10 00 00 00	 mov	 ecx, 16			; 00000010H
  00324	2b c8		 sub	 ecx, eax
  00326	8b c1		 mov	 eax, ecx
  00328	99		 cdq
  00329	2b c2		 sub	 eax, edx
  0032b	d1 f8		 sar	 eax, 1
  0032d	39 45 c4	 cmp	 DWORD PTR _i$[ebp], eax
  00330	7d 16		 jge	 SHORT $LN8@joinChanne

; 4925 : 				strcat(buf2, " ");

  00332	68 00 00 00 00	 push	 OFFSET ??_C@_01CLKCMJKC@?5?$AA@
  00337	8d 85 74 fb ff
	ff		 lea	 eax, DWORD PTR _buf2$[ebp]
  0033d	50		 push	 eax
  0033e	e8 00 00 00 00	 call	 _strcat
  00343	83 c4 08	 add	 esp, 8
  00346	eb c1		 jmp	 SHORT $LN7@joinChanne
$LN8@joinChanne:

; 4926 : 			strcat(buf2, pc.familyName);

  00348	68 f6 50 00 00	 push	 OFFSET ?pc@@3UPC@@A+20726
  0034d	8d 85 74 fb ff
	ff		 lea	 eax, DWORD PTR _buf2$[ebp]
  00353	50		 push	 eax
  00354	e8 00 00 00 00	 call	 _strcat
  00359	83 c4 08	 add	 esp, 8

; 4927 : 
; 4928 : #ifndef _FM_MODIFY
; 4929 : 			btnId[8] = StockFontBuffer(x + 7, y + 30, FONT_PRIO_FRONT, FONT_PAL_GREEN, buf2, 0);
; 4930 : #else
; 4931 : 			btnId[4] = StockFontBuffer(x + 7, y + 30, FONT_PRIO_FRONT, FONT_PAL_GREEN, buf2, 0);

  0035c	6a 00		 push	 0
  0035e	8d 85 74 fb ff
	ff		 lea	 eax, DWORD PTR _buf2$[ebp]
  00364	50		 push	 eax
  00365	6a 05		 push	 5
  00367	6a 01		 push	 1
  00369	8b 4d e8	 mov	 ecx, DWORD PTR _y$[ebp]
  0036c	83 c1 1e	 add	 ecx, 30			; 0000001eH
  0036f	51		 push	 ecx
  00370	8b 55 f4	 mov	 edx, DWORD PTR _x$[ebp]
  00373	83 c2 07	 add	 edx, 7
  00376	52		 push	 edx
  00377	e8 00 00 00 00	 call	 ?StockFontBuffer@@YAHHHDHPADH@Z ; StockFontBuffer
  0037c	83 c4 18	 add	 esp, 24			; 00000018H
  0037f	b9 04 00 00 00	 mov	 ecx, 4
  00384	c1 e1 02	 shl	 ecx, 2
  00387	89 81 00 00 00
	00		 mov	 DWORD PTR ?btnId@?1??joinChannelWN@@YAXXZ@4PAHA[ecx], eax

; 4932 : 			btnId[2] = StockFontBuffer(x + 25, y + 65 + 36 * 2, FONT_PRIO_FRONT, FONT_PAL_WHITE, channelName[2], 2);

  0038d	6a 02		 push	 2
  0038f	b8 14 00 00 00	 mov	 eax, 20			; 00000014H
  00394	d1 e0		 shl	 eax, 1
  00396	05 00 00 00 00	 add	 eax, OFFSET ?channelName@@3PAY0BE@DA ; channelName
  0039b	50		 push	 eax
  0039c	6a 00		 push	 0
  0039e	6a 01		 push	 1
  003a0	8b 4d e8	 mov	 ecx, DWORD PTR _y$[ebp]
  003a3	81 c1 89 00 00
	00		 add	 ecx, 137		; 00000089H
  003a9	51		 push	 ecx
  003aa	8b 55 f4	 mov	 edx, DWORD PTR _x$[ebp]
  003ad	83 c2 19	 add	 edx, 25			; 00000019H
  003b0	52		 push	 edx
  003b1	e8 00 00 00 00	 call	 ?StockFontBuffer@@YAHHHDHPADH@Z ; StockFontBuffer
  003b6	83 c4 18	 add	 esp, 24			; 00000018H
  003b9	b9 04 00 00 00	 mov	 ecx, 4
  003be	d1 e1		 shl	 ecx, 1
  003c0	89 81 00 00 00
	00		 mov	 DWORD PTR ?btnId@?1??joinChannelWN@@YAXXZ@4PAHA[ecx], eax

; 4933 : #endif
; 4934 : 			btnId[0] = StockFontBuffer(x + 25, y + 65, FONT_PRIO_FRONT, FONT_PAL_WHITE, channelName[0], 2);

  003c6	6a 02		 push	 2
  003c8	b8 14 00 00 00	 mov	 eax, 20			; 00000014H
  003cd	6b c8 00	 imul	 ecx, eax, 0
  003d0	81 c1 00 00 00
	00		 add	 ecx, OFFSET ?channelName@@3PAY0BE@DA ; channelName
  003d6	51		 push	 ecx
  003d7	6a 00		 push	 0
  003d9	6a 01		 push	 1
  003db	8b 55 e8	 mov	 edx, DWORD PTR _y$[ebp]
  003de	83 c2 41	 add	 edx, 65			; 00000041H
  003e1	52		 push	 edx
  003e2	8b 45 f4	 mov	 eax, DWORD PTR _x$[ebp]
  003e5	83 c0 19	 add	 eax, 25			; 00000019H
  003e8	50		 push	 eax
  003e9	e8 00 00 00 00	 call	 ?StockFontBuffer@@YAHHHDHPADH@Z ; StockFontBuffer
  003ee	83 c4 18	 add	 esp, 24			; 00000018H
  003f1	b9 04 00 00 00	 mov	 ecx, 4
  003f6	6b d1 00	 imul	 edx, ecx, 0
  003f9	89 82 00 00 00
	00		 mov	 DWORD PTR ?btnId@?1??joinChannelWN@@YAXXZ@4PAHA[edx], eax

; 4935 : 
; 4936 : #ifndef _FM_MODIFY
; 4937 : 			for (i = 1; i < 4; i++)
; 4938 : 			{
; 4939 : 				if (pc.channel == i)
; 4940 : 					btnId[i] = StockFontBuffer(x + 25, y + 65 + 36 * i, FONT_PRIO_FRONT, FONT_PAL_YELLOW, channelName[i], 2);
; 4941 : 				else
; 4942 : 					btnId[i] = StockFontBuffer(x + 25, y + 65 + 36 * i, FONT_PRIO_FRONT, FONT_PAL_WHITE, channelName[i], 2);
; 4943 : 			}
; 4944 : 			btnId[6] = StockFontBuffer(x + 25, y + 65 + 36 * 4, FONT_PRIO_FRONT, FONT_PAL_WHITE, channelName[6], 2);
; 4945 : #endif
; 4946 : #ifdef _FMVER21
; 4947 : 			// shan add		
; 4948 : 			if (pc.familyleader == FMMEMBER_LEADER || pc.familyleader == FMMEMBER_ELDER)

  003ff	83 3d 08 51 00
	00 03		 cmp	 DWORD PTR ?pc@@3UPC@@A+20744, 3
  00406	74 09		 je	 SHORT $LN30@joinChanne
  00408	83 3d 08 51 00
	00 04		 cmp	 DWORD PTR ?pc@@3UPC@@A+20744, 4
  0040f	75 76		 jne	 SHORT $LN28@joinChanne
$LN30@joinChanne:

; 4949 : #else
; 4950 : 			if (pc.familyleader == 1)
; 4951 : #endif
; 4952 : #ifndef _FM_MODIFY
; 4953 : 				btnId[7] = StockFontBuffer(x + 25, y + 65 + 36 * 5, FONT_PRIO_FRONT, FONT_PAL_WHITE, channelName[7], 2);
; 4954 : 			else
; 4955 : 				btnId[7] = StockFontBuffer(x + 25, y + 65 + 36 * 5, FONT_PRIO_FRONT, FONT_PAL_GRAY, channelName[7], 0);
; 4956 : 				graId[0] = StockDispBuffer(x + 65, y + 13 + 320, DISP_PRIO_IME3, CG_CLOSE_BTN, 2);
; 4957 : #else
; 4958 : 			{
; 4959 : 				btnId[1] = StockFontBuffer(x + 25, y + 65 + 36, FONT_PRIO_FRONT, FONT_PAL_WHITE, channelName[1], 2);

  00411	6a 02		 push	 2
  00413	b8 14 00 00 00	 mov	 eax, 20			; 00000014H
  00418	c1 e0 00	 shl	 eax, 0
  0041b	05 00 00 00 00	 add	 eax, OFFSET ?channelName@@3PAY0BE@DA ; channelName
  00420	50		 push	 eax
  00421	6a 00		 push	 0
  00423	6a 01		 push	 1
  00425	8b 4d e8	 mov	 ecx, DWORD PTR _y$[ebp]
  00428	83 c1 65	 add	 ecx, 101		; 00000065H
  0042b	51		 push	 ecx
  0042c	8b 55 f4	 mov	 edx, DWORD PTR _x$[ebp]
  0042f	83 c2 19	 add	 edx, 25			; 00000019H
  00432	52		 push	 edx
  00433	e8 00 00 00 00	 call	 ?StockFontBuffer@@YAHHHDHPADH@Z ; StockFontBuffer
  00438	83 c4 18	 add	 esp, 24			; 00000018H
  0043b	b9 04 00 00 00	 mov	 ecx, 4
  00440	c1 e1 00	 shl	 ecx, 0
  00443	89 81 00 00 00
	00		 mov	 DWORD PTR ?btnId@?1??joinChannelWN@@YAXXZ@4PAHA[ecx], eax

; 4960 : 				btnId[3] = StockFontBuffer(x + 25, y + 65 + 36 * 3, FONT_PRIO_FRONT, FONT_PAL_WHITE, channelName[3], 2);

  00449	6a 02		 push	 2
  0044b	b8 14 00 00 00	 mov	 eax, 20			; 00000014H
  00450	6b c8 03	 imul	 ecx, eax, 3
  00453	81 c1 00 00 00
	00		 add	 ecx, OFFSET ?channelName@@3PAY0BE@DA ; channelName
  00459	51		 push	 ecx
  0045a	6a 00		 push	 0
  0045c	6a 01		 push	 1
  0045e	8b 55 e8	 mov	 edx, DWORD PTR _y$[ebp]
  00461	81 c2 ad 00 00
	00		 add	 edx, 173		; 000000adH
  00467	52		 push	 edx
  00468	8b 45 f4	 mov	 eax, DWORD PTR _x$[ebp]
  0046b	83 c0 19	 add	 eax, 25			; 00000019H
  0046e	50		 push	 eax
  0046f	e8 00 00 00 00	 call	 ?StockFontBuffer@@YAHHHDHPADH@Z ; StockFontBuffer
  00474	83 c4 18	 add	 esp, 24			; 00000018H
  00477	b9 04 00 00 00	 mov	 ecx, 4
  0047c	6b d1 03	 imul	 edx, ecx, 3
  0047f	89 82 00 00 00
	00		 mov	 DWORD PTR ?btnId@?1??joinChannelWN@@YAXXZ@4PAHA[edx], eax

; 4961 : 			}
; 4962 : 			else

  00485	eb 74		 jmp	 SHORT $LN29@joinChanne
$LN28@joinChanne:

; 4963 : 			{
; 4964 : 				btnId[1] = StockFontBuffer(x + 25, y + 65 + 36, FONT_PRIO_FRONT, FONT_PAL_GRAY, channelName[1], 0);

  00487	6a 00		 push	 0
  00489	b8 14 00 00 00	 mov	 eax, 20			; 00000014H
  0048e	c1 e0 00	 shl	 eax, 0
  00491	05 00 00 00 00	 add	 eax, OFFSET ?channelName@@3PAY0BE@DA ; channelName
  00496	50		 push	 eax
  00497	6a 07		 push	 7
  00499	6a 01		 push	 1
  0049b	8b 4d e8	 mov	 ecx, DWORD PTR _y$[ebp]
  0049e	83 c1 65	 add	 ecx, 101		; 00000065H
  004a1	51		 push	 ecx
  004a2	8b 55 f4	 mov	 edx, DWORD PTR _x$[ebp]
  004a5	83 c2 19	 add	 edx, 25			; 00000019H
  004a8	52		 push	 edx
  004a9	e8 00 00 00 00	 call	 ?StockFontBuffer@@YAHHHDHPADH@Z ; StockFontBuffer
  004ae	83 c4 18	 add	 esp, 24			; 00000018H
  004b1	b9 04 00 00 00	 mov	 ecx, 4
  004b6	c1 e1 00	 shl	 ecx, 0
  004b9	89 81 00 00 00
	00		 mov	 DWORD PTR ?btnId@?1??joinChannelWN@@YAXXZ@4PAHA[ecx], eax

; 4965 : 				btnId[3] = StockFontBuffer(x + 25, y + 65 + 36 * 3, FONT_PRIO_FRONT, FONT_PAL_GRAY, channelName[3], 0);

  004bf	6a 00		 push	 0
  004c1	b8 14 00 00 00	 mov	 eax, 20			; 00000014H
  004c6	6b c8 03	 imul	 ecx, eax, 3
  004c9	81 c1 00 00 00
	00		 add	 ecx, OFFSET ?channelName@@3PAY0BE@DA ; channelName
  004cf	51		 push	 ecx
  004d0	6a 07		 push	 7
  004d2	6a 01		 push	 1
  004d4	8b 55 e8	 mov	 edx, DWORD PTR _y$[ebp]
  004d7	81 c2 ad 00 00
	00		 add	 edx, 173		; 000000adH
  004dd	52		 push	 edx
  004de	8b 45 f4	 mov	 eax, DWORD PTR _x$[ebp]
  004e1	83 c0 19	 add	 eax, 25			; 00000019H
  004e4	50		 push	 eax
  004e5	e8 00 00 00 00	 call	 ?StockFontBuffer@@YAHHHDHPADH@Z ; StockFontBuffer
  004ea	83 c4 18	 add	 esp, 24			; 00000018H
  004ed	b9 04 00 00 00	 mov	 ecx, 4
  004f2	6b d1 03	 imul	 edx, ecx, 3
  004f5	89 82 00 00 00
	00		 mov	 DWORD PTR ?btnId@?1??joinChannelWN@@YAXXZ@4PAHA[edx], eax
$LN29@joinChanne:

; 4966 : 			}
; 4967 : 			graId[0] = StockDispBuffer(x + 65, y + 13 + 200, DISP_PRIO_IME3, CG_CLOSE_BTN, 2);

  004fb	6a 02		 push	 2
  004fd	68 ba 65 00 00	 push	 26042			; 000065baH
  00502	6a 69		 push	 105			; 00000069H
  00504	8b 45 e8	 mov	 eax, DWORD PTR _y$[ebp]
  00507	05 d5 00 00 00	 add	 eax, 213		; 000000d5H
  0050c	50		 push	 eax
  0050d	8b 4d f4	 mov	 ecx, DWORD PTR _x$[ebp]
  00510	83 c1 41	 add	 ecx, 65			; 00000041H
  00513	51		 push	 ecx
  00514	e8 00 00 00 00	 call	 ?StockDispBuffer@@YAHHHEHH@Z ; StockDispBuffer
  00519	83 c4 14	 add	 esp, 20			; 00000014H
  0051c	ba 04 00 00 00	 mov	 edx, 4
  00521	6b ca 00	 imul	 ecx, edx, 0
  00524	89 81 00 00 00
	00		 mov	 DWORD PTR ?graId@?1??joinChannelWN@@YAXXZ@4PAHA[ecx], eax

; 4968 : #endif
; 4969 : 	
; 4970 : #ifndef _FM_MODIFY
; 4971 : 			switch (selId)
; 4972 : 			{
; 4973 : 			case 0:
; 4974 : 				ShowBottomLineString(FONT_PAL_WHITE, "攵臁膘鸽氤措炒旮般");
; 4975 : 				break;
; 4976 : 			case 1:
; 4977 : 			case 2:
; 4978 : 			case 3:
; 4979 : 				if (pc.channel == selId)
; 4980 : 					sprintf(buf, "毂惦ゃ");
; 4981 : 				else
; 4982 : 					sprintf(buf, "毂 毂氤搓赴");
; 4983 : 				ShowBottomLineString(FONT_PAL_WHITE, buf);
; 4984 : 				break;
; 4985 : 			case 5:
; 4986 : 				ShowBottomLineString(FONT_PAL_WHITE, "攵臁膘レ 攵臁膘 觳挫瓴 氚╈°");
; 4987 : 				break;
; 4988 : 			case 6:
; 4989 : 				ShowBottomLineString(FONT_PAL_WHITE, "毂膦耄");
; 4990 : 				break;
; 4991 : 			case 7:
; 4992 : 				ShowBottomLineString(FONT_PAL_WHITE, "於氤奠闺旮半ャ");
; 4993 : 				break;
; 4994 : 			default:
; 4995 : 				if (selgraId == 0)
; 4996 : 					ShowBottomLineString(FONT_PAL_WHITE, "毂毂氅挫臧旮般");
; 4997 : 				break;
; 4998 : 			}
; 4999 : #else
; 5000 : 			switch (selId)

  0052a	8b 85 68 fb ff
	ff		 mov	 eax, DWORD PTR _selId$[ebp]
  00530	89 85 14 f9 ff
	ff		 mov	 DWORD PTR tv286[ebp], eax
  00536	83 bd 14 f9 ff
	ff 03		 cmp	 DWORD PTR tv286[ebp], 3
  0053d	77 51		 ja	 SHORT $LN35@joinChanne
  0053f	8b 8d 14 f9 ff
	ff		 mov	 ecx, DWORD PTR tv286[ebp]
  00545	ff 24 8d 00 00
	00 00		 jmp	 DWORD PTR $LN46@joinChanne[ecx*4]
$LN31@joinChanne:

; 5001 : 			{
; 5002 : 			case 0:
; 5003 : 				ShowBottomLineString(FONT_PAL_WHITE, "臧臁膘鸽氤措炒旮般");

  0054c	68 00 00 00 00	 push	 OFFSET ??_C@_0BD@CBGDDGMA@?$LA?$KB?A?$LH?$LM?$LM?$LK?N?A?$KE?$LK?$LI?$LK?$LI?$LB?b?$KB?$KD?$AA@
  00551	6a 00		 push	 0
  00553	e8 00 00 00 00	 call	 ?ShowBottomLineString@@YAXHPAD@Z ; ShowBottomLineString
  00558	83 c4 08	 add	 esp, 8

; 5004 : 				break;

  0055b	eb 4b		 jmp	 SHORT $LN10@joinChanne
$LN32@joinChanne:

; 5005 : 			case 1:
; 5006 : 				ShowBottomLineString(FONT_PAL_WHITE, "於氤奠闺旮半ャ");

  0055d	68 00 00 00 00	 push	 OFFSET ??_C@_0BF@MBHIEFGB@?C?$OA?$LK?$LJ?$LL?g?$MA?G?F?$KP?$LK?$LA?G?Q?$LB?b?$LE?I?$KB?$KD?$AA@
  00562	6a 00		 push	 0
  00564	e8 00 00 00 00	 call	 ?ShowBottomLineString@@YAXHPAD@Z ; ShowBottomLineString
  00569	83 c4 08	 add	 esp, 8

; 5007 : 				break;

  0056c	eb 3a		 jmp	 SHORT $LN10@joinChanne
$LN33@joinChanne:

; 5008 : 			case 2:
; 5009 : 				ShowBottomLineString(FONT_PAL_WHITE, "攵臁标旮半レ┿");

  0056e	68 00 00 00 00	 push	 OFFSET ??_C@_0BF@EKJBMCBD@?$LK?N?A?$LH?$LA?T?$LN?C?F?G?$LB?b?$LE?I?$LL?g?$LP?k?$KB?$KD?$AA@
  00573	6a 00		 push	 0
  00575	e8 00 00 00 00	 call	 ?ShowBottomLineString@@YAXHPAD@Z ; ShowBottomLineString
  0057a	83 c4 08	 add	 esp, 8

; 5010 : 				break;

  0057d	eb 29		 jmp	 SHORT $LN10@joinChanne
$LN34@joinChanne:

; 5011 : 			case 3:
; 5012 : 				ShowBottomLineString(FONT_PAL_WHITE, "臁膘ル癌￡赴ル旮般");

  0057f	68 00 00 00 00	 push	 OFFSET ??_C@_0BD@BKOBNADD@?A?$LH?$MA?e?$LJ?f?$LM?$NL?$LB?b?$LE?I?$LC?t?$LB?b?$KB?$KD?$AA@
  00584	6a 00		 push	 0
  00586	e8 00 00 00 00	 call	 ?ShowBottomLineString@@YAXHPAD@Z ; ShowBottomLineString
  0058b	83 c4 08	 add	 esp, 8

; 5013 : 				break;

  0058e	eb 18		 jmp	 SHORT $LN10@joinChanne
$LN35@joinChanne:

; 5014 : 			default:
; 5015 : 				if (selgraId == 0)

  00590	83 bd 5c fb ff
	ff 00		 cmp	 DWORD PTR _selgraId$[ebp], 0
  00597	75 0f		 jne	 SHORT $LN10@joinChanne

; 5016 : 					ShowBottomLineString(FONT_PAL_WHITE, "毂毂氅挫臧旮般");

  00599	68 00 00 00 00	 push	 OFFSET ??_C@_0BJ@MOILBLMI@?C?$KE?F?C?C?$KE?$LD?N?$LI?$NO?$LE?$LK?$LP?$KB?$LM?$KN?$LD?$KK?$LA?$KB?$LB?b?$KB?$KD?$AA@
  0059e	6a 00		 push	 0
  005a0	e8 00 00 00 00	 call	 ?ShowBottomLineString@@YAXHPAD@Z ; ShowBottomLineString
  005a5	83 c4 08	 add	 esp, 8
$LN10@joinChanne:

; 5017 : 				break;
; 5018 : 			}
; 5019 : #endif
; 5020 : 			if (joinChannel2Proc == 1000)

  005a8	0f bf 05 00 00
	00 00		 movsx	 eax, WORD PTR ?joinChannel2Proc@@3FA
  005af	3d e8 03 00 00	 cmp	 eax, 1000		; 000003e8H
  005b4	75 07		 jne	 SHORT $LN37@joinChanne

; 5021 : 				joinChannel2WN();

  005b6	e8 00 00 00 00	 call	 ?joinChannel2WN@@YAXXZ	; joinChannel2WN
  005bb	eb 13		 jmp	 SHORT $LN1@joinChanne
$LN37@joinChanne:

; 5022 : 			else if (joinChannel2Proc == 2000)

  005bd	0f bf 05 00 00
	00 00		 movsx	 eax, WORD PTR ?joinChannel2Proc@@3FA
  005c4	3d d0 07 00 00	 cmp	 eax, 2000		; 000007d0H
  005c9	75 05		 jne	 SHORT $LN1@joinChanne

; 5023 : 				leaderFuncWN();

  005cb	e8 00 00 00 00	 call	 ?leaderFuncWN@@YAXXZ	; leaderFuncWN
$LN1@joinChanne:

; 5024 : 		}
; 5025 : 	}
; 5026 : }

  005d0	52		 push	 edx
  005d1	8b cd		 mov	 ecx, ebp
  005d3	50		 push	 eax
  005d4	8d 15 00 00 00
	00		 lea	 edx, DWORD PTR $LN44@joinChanne
  005da	e8 00 00 00 00	 call	 @_RTC_CheckStackVars@8
  005df	58		 pop	 eax
  005e0	5a		 pop	 edx
  005e1	5f		 pop	 edi
  005e2	5e		 pop	 esi
  005e3	5b		 pop	 ebx
  005e4	8b 4d fc	 mov	 ecx, DWORD PTR __$ArrayPad$[ebp]
  005e7	33 cd		 xor	 ecx, ebp
  005e9	e8 00 00 00 00	 call	 @__security_check_cookie@4
  005ee	81 c4 ec 06 00
	00		 add	 esp, 1772		; 000006ecH
  005f4	3b ec		 cmp	 ebp, esp
  005f6	e8 00 00 00 00	 call	 __RTC_CheckEsp
  005fb	8b e5		 mov	 esp, ebp
  005fd	5d		 pop	 ebp
  005fe	c3		 ret	 0
  005ff	90		 npad	 1
$LN44@joinChanne:
  00600	02 00 00 00	 DD	 2
  00604	00 00 00 00	 DD	 $LN43@joinChanne
$LN43@joinChanne:
  00608	bc fb ff ff	 DD	 -1092			; fffffbbcH
  0060c	00 04 00 00	 DD	 1024			; 00000400H
  00610	00 00 00 00	 DD	 $LN41@joinChanne
  00614	74 fb ff ff	 DD	 -1164			; fffffb74H
  00618	40 00 00 00	 DD	 64			; 00000040H
  0061c	00 00 00 00	 DD	 $LN42@joinChanne
$LN42@joinChanne:
  00620	62		 DB	 98			; 00000062H
  00621	75		 DB	 117			; 00000075H
  00622	66		 DB	 102			; 00000066H
  00623	32		 DB	 50			; 00000032H
  00624	00		 DB	 0
$LN41@joinChanne:
  00625	62		 DB	 98			; 00000062H
  00626	75		 DB	 117			; 00000075H
  00627	66		 DB	 102			; 00000066H
  00628	00		 DB	 0
  00629	0f 1f 00	 npad	 3
$LN45@joinChanne:
  0062c	00 00 00 00	 DD	 $LN19@joinChanne
  00630	00 00 00 00	 DD	 $LN20@joinChanne
  00634	00 00 00 00	 DD	 $LN21@joinChanne
  00638	00 00 00 00	 DD	 $LN22@joinChanne
$LN46@joinChanne:
  0063c	00 00 00 00	 DD	 $LN31@joinChanne
  00640	00 00 00 00	 DD	 $LN32@joinChanne
  00644	00 00 00 00	 DD	 $LN33@joinChanne
  00648	00 00 00 00	 DD	 $LN34@joinChanne
?joinChannelWN@@YAXXZ ENDP				; joinChannelWN
_TEXT	ENDS
; Function compile flags: /Odtp /RTCsu /ZI
; File c:\users\administrator\desktop\????? ??\????? ??\client source code\system\field.cpp
;	COMDAT ?initJoinChannelWN@@YAXXZ
_TEXT	SEGMENT
?initJoinChannelWN@@YAXXZ PROC				; initJoinChannelWN, COMDAT

; 4752 : {

  00000	55		 push	 ebp
  00001	8b ec		 mov	 ebp, esp
  00003	81 ec c0 00 00
	00		 sub	 esp, 192		; 000000c0H
  00009	53		 push	 ebx
  0000a	56		 push	 esi
  0000b	57		 push	 edi
  0000c	8d bd 40 ff ff
	ff		 lea	 edi, DWORD PTR [ebp-192]
  00012	b9 30 00 00 00	 mov	 ecx, 48			; 00000030H
  00017	b8 cc cc cc cc	 mov	 eax, -858993460		; ccccccccH
  0001c	f3 ab		 rep stosd

; 4753 : 	channelWNFlag = 1;

  0001e	b8 01 00 00 00	 mov	 eax, 1
  00023	66 a3 00 00 00
	00		 mov	 WORD PTR ?channelWNFlag@@3FA, ax ; channelWNFlag

; 4754 : 	//joinChannelProc = 1000;
; 4755 : }

  00029	5f		 pop	 edi
  0002a	5e		 pop	 esi
  0002b	5b		 pop	 ebx
  0002c	8b e5		 mov	 esp, ebp
  0002e	5d		 pop	 ebp
  0002f	c3		 ret	 0
?initJoinChannelWN@@YAXXZ ENDP				; initJoinChannelWN
_TEXT	ENDS
; Function compile flags: /Odtp /RTCsu /ZI
; File c:\users\administrator\desktop\????? ??\????? ??\client source code\system\field.cpp
;	COMDAT ?etcSwitch@@YAHXZ
_TEXT	SEGMENT
tv626 = -564						; size = 4
tv403 = -564						; size = 4
tv362 = -564						; size = 4
tv355 = -564						; size = 4
tv316 = -564						; size = 4
tv218 = -564						; size = 4
_buf$1 = -364						; size = 64
_ResoModeMsg$2 = -292					; size = 20
_buf$3 = -264						; size = 3
_y2$ = -252						; size = 4
_x2$ = -240						; size = 4
_y1$ = -228						; size = 4
_x1$ = -216						; size = 4
_i$ = -204						; size = 4
_iChannelSwitch$ = -192					; size = 16
_pszChannel$ = -168					; size = 16
_mask$ = -144						; size = 20
_msg4$ = -116						; size = 24
_msg2$ = -84						; size = 8
_msg$ = -68						; size = 24
_focusId$ = -36						; size = 4
_id$ = -24						; size = 4
_pf$ = -12						; size = 4
__$ArrayPad$ = -4					; size = 4
?etcSwitch@@YAHXZ PROC					; etcSwitch, COMDAT

; 4139 : int etcSwitch(void){

  00000	55		 push	 ebp
  00001	8b ec		 mov	 ebp, esp
  00003	81 ec 34 02 00
	00		 sub	 esp, 564		; 00000234H
  00009	53		 push	 ebx
  0000a	56		 push	 esi
  0000b	57		 push	 edi
  0000c	8d bd cc fd ff
	ff		 lea	 edi, DWORD PTR [ebp-564]
  00012	b9 8d 00 00 00	 mov	 ecx, 141		; 0000008dH
  00017	b8 cc cc cc cc	 mov	 eax, -858993460		; ccccccccH
  0001c	f3 ab		 rep stosd
  0001e	a1 00 00 00 00	 mov	 eax, DWORD PTR ___security_cookie
  00023	33 c5		 xor	 eax, ebp
  00025	89 45 fc	 mov	 DWORD PTR __$ArrayPad$[ebp], eax

; 4140 : 	static ACTION *ptActMenuWin = NULL;
; 4141 : #ifdef _CHANNEL_MODIFY
; 4142 : 	static ACTION *pActChannelWin = NULL;
; 4143 : 	static int iChannelbtnId[4];
; 4144 : 	FILE *pf = NULL;

  00028	c7 45 f4 00 00
	00 00		 mov	 DWORD PTR _pf$[ebp], 0

; 4145 : #endif
; 4146 : 	static int x, y, w, h;
; 4147 : #ifdef _AUCPROTOCOL				// (涓寮) Syu ADD 棰寮Protocol
; 4148 : 	static int btnId[6];
; 4149 : #else
; 4150 : 	static int btnId[5];
; 4151 : #endif
; 4152 : 	int id = 0;

  0002f	c7 45 e8 00 00
	00 00		 mov	 DWORD PTR _id$[ebp], 0

; 4153 : 	int focusId = 0;

  00036	c7 45 dc 00 00
	00 00		 mov	 DWORD PTR _focusId$[ebp], 0

; 4154 : 	char *msg[] =
; 4155 : 	{
; 4156 : 		"    帮",

  0003d	c7 45 bc 00 00
	00 00		 mov	 DWORD PTR _msg$[ebp], OFFSET ??_C@_0L@OLEDJDPG@?F?D?5?5?5?5?F?$LM?$KD?$LK?$AA@

; 4157 : 		"    硷",

  00044	c7 45 c0 00 00
	00 00		 mov	 DWORD PTR _msg$[ebp+4], OFFSET ??_C@_0L@MAOAOHML@?$LF?$OA?5?5?5?5?$LO?s?$KD?$LK?$AA@

; 4158 : 		"氇甑锛",

  0004b	c7 45 c4 00 00
	00 00		 mov	 DWORD PTR _msg$[ebp+8], OFFSET ??_C@_0L@POPIGLPO@?$LI?m?G?T?$LB?$LD?H?$KP?$KD?$LK?$AA@

; 4159 : #ifndef _CHANNEL_MODIFY
; 4160 : 		"毂旮帮",
; 4161 : #else
; 4162 : 		"毂        氩    ",

  00052	c7 45 c8 00 00
	00 00		 mov	 DWORD PTR _msg$[ebp+12], OFFSET ??_C@_0BF@IDENONED@?C?$KE?5?5?5?5?$LD?N?5?5?5?5?$LJ?v?5?5?5?5?F?$LA?$AA@

; 4163 : #endif
; 4164 : 		"瓯    锛",

  00059	c7 45 cc 00 00
	00 00		 mov	 DWORD PTR _msg$[ebp+16], OFFSET ??_C@_0L@HENHCGEF@?$LA?E?5?5?5?5?$LH?$KB?$KD?$LK?$AA@

; 4165 : #ifdef _AUCPROTOCOL				// (涓寮) Syu ADD 棰寮Protocol
; 4166 : 		"瓴姐毵わ",
; 4167 : #endif
; 4168 : #ifdef _NB_SetResoMode
; 4169 : 		"  锛",//5

  00060	c7 45 d0 00 00
	00 00		 mov	 DWORD PTR _msg$[ebp+20], OFFSET ??_C@_0L@DMOEEJLK@?G?X?5?$LL?s?5?$LF?$LF?$KD?$LK?$AA@

; 4170 : #endif
; 4171 : 	};
; 4172 : 
; 4173 : 	char *msg2[] =
; 4174 : 	{
; 4175 : 		" 锛  锛",

  00067	c7 45 ac 00 00
	00 00		 mov	 DWORD PTR _msg2$[ebp], OFFSET ??_C@_07MIKFFMHF@?5?$KD?N?5?5?$KD?O?$AA@

; 4176 : 		" 锛癸讥锛",

  0006e	c7 45 b0 00 00
	00 00		 mov	 DWORD PTR _msg2$[ebp+4], OFFSET ??_C@_07CHOGEIED@?5?$KD?Y?$KD?E?$KD?S?$AA@

; 4177 : 		//" Other"
; 4178 : 	};
; 4179 : #ifndef _CHANNEL_MODIFY
; 4180 : 	char *msg3[] =
; 4181 : 	{
; 4182 : 		" 歆",
; 4183 : 		" 5  "
; 4184 : 	};
; 4185 : #endif
; 4186 : 	char *msg4[] =
; 4187 : 	{
; 4188 : 		"るジ╇攵れ",

  00075	c7 45 8c 00 00
	00 00		 mov	 DWORD PTR _msg4$[ebp], OFFSET ??_C@_0BJ@NPLNHFNN@?$LE?Y?$LI?$KF?$LL?g?$LG?w?F?$MA?G?U?$LH?y?$LP?$KJ?$LK?N?$LM?$LD?A?$KE?$KB?$KD?$AA@

; 4189 : 		"るジ氚歆れ",

  0007c	c7 45 90 00 00
	00 00		 mov	 DWORD PTR _msg4$[ebp+4], OFFSET ??_C@_0BJ@EJIPNKEA@?$LE?Y?$LI?$KF?$LL?g?$LG?w?$LF?$LF?$MA?$PM?$LJ?$NO?$MA?$LL?A?v?$LM?$LD?A?$KE?$KB?$KD?$AA@

; 4190 : 		"氇甑╈攵れ",

  00083	c7 45 94 00 00
	00 00		 mov	 DWORD PTR _msg4$[ebp+8], OFFSET ??_C@_0BH@GAKCDBLG@?$LI?m?G?T?$LB?$LD?H?$KP?G?c?$LP?k?$LP?$KJ?$LK?N?$LM?$LD?A?$KE?$KB?$KD?$AA@

; 4191 : #ifndef _CHANNEL_MODIFY
; 4192 : 		"毂挫╈れ氩れ",
; 4193 : #else
; 4194 : 		"臧毂れ挫",

  0008a	c7 45 98 00 00
	00 00		 mov	 DWORD PTR _msg4$[ebp+12], OFFSET ??_C@_0BF@NLHMJPHG@?$LA?$KC?C?$KE?$LD?N?$LM?$LD?A?$KE?$LG?G?$LE?B?G?X?A?$KG?$KB?$KD?$AA@

; 4195 : #endif
; 4196 : 		"瓯半届攵れ"

  00091	c7 45 9c 00 00
	00 00		 mov	 DWORD PTR _msg4$[ebp+16], OFFSET ??_C@_0BD@DBDDAFOG@?$LA?E?$LH?$KB?$LM?v?$LG?t?$LP?$KJ?$LK?N?$LM?$LD?A?$KE?$KB?$KD?$AA@

; 4197 : #ifdef _AUCPROTOCOL				// (涓寮) Syu ADD 棰寮Protocol
; 4198 : 		,
; 4199 : 		"瓴诫Г毂氅歆攵"
; 4200 : #endif
; 4201 : #ifdef _NB_SetResoMode
; 4202 : 		,"瓴疙绊挫ろ挫れ"//5

  00098	c7 45 a0 00 00
	00 00		 mov	 DWORD PTR _msg4$[ebp+20], OFFSET ??_C@_0BL@JJOLNGNO@?$LA?T?$MA?S?$MA?N?E?M?F?d?$MA?L?$LN?$LK?G?X?$LL?s?$LF?$LF?$LM?$LD?A?$KE?$KB?$KD?$AA@

; 4203 : #endif
; 4204 : 
; 4205 : 	};
; 4206 : 
; 4207 : 	int mask[] =
; 4208 : 	{
; 4209 : 		PC_ETCFLAG_PARTY,

  0009f	c7 85 70 ff ff
	ff 01 00 00 00	 mov	 DWORD PTR _mask$[ebp], 1

; 4210 : 		PC_ETCFLAG_DUEL,

  000a9	c7 85 74 ff ff
	ff 04 00 00 00	 mov	 DWORD PTR _mask$[ebp+4], 4

; 4211 : 		PC_ETCFLAG_MAIL,

  000b3	c7 85 78 ff ff
	ff 10 00 00 00	 mov	 DWORD PTR _mask$[ebp+8], 16 ; 00000010H

; 4212 : #ifndef _CHANNEL_MODIFY
; 4213 : 		PC_ETCFLAG_CHAT_MODE,
; 4214 : #else
; 4215 : 		0,

  000bd	c7 85 7c ff ff
	ff 00 00 00 00	 mov	 DWORD PTR _mask$[ebp+12], 0

; 4216 : #endif
; 4217 : 		PC_ETCFLAG_TRADE

  000c7	c7 45 80 20 00
	00 00		 mov	 DWORD PTR _mask$[ebp+16], 32 ; 00000020H

; 4218 : #ifdef _AUCPROTOCOL				// (涓寮) Syu ADD 棰寮Protocol
; 4219 : 		,PC_ETCFLAG_AUC
; 4220 : #endif
; 4221 : 
; 4222 : 	};
; 4223 : #ifdef _CHANNEL_MODIFY
; 4224 : 	char *pszChannel[] = {
; 4225 : 		"攴毵",

  000ce	c7 85 58 ff ff
	ff 00 00 00 00	 mov	 DWORD PTR _pszChannel$[ebp], OFFSET ??_C@_06FNJBCBKN@?$LB?S?$LM?S?$LI?$LL?$AA@

; 4226 : 		"臧臁彪",

  000d8	c7 85 5c ff ff
	ff 00 00 00 00	 mov	 DWORD PTR _pszChannel$[ebp+4], OFFSET ??_C@_06IAKMCPJ@?$LA?$KB?A?$LH?$LI?$LL?$AA@

; 4227 : 		"瓴诫Г毂",

  000e2	c7 85 60 ff ff
	ff 00 00 00 00	 mov	 DWORD PTR _pszChannel$[ebp+8], OFFSET ??_C@_08LIEPCPDK@?$LA?f?$LI?E?C?$KE?$LD?N?$AA@

; 4228 : 		""

  000ec	c7 85 64 ff ff
	ff 00 00 00 00	 mov	 DWORD PTR _pszChannel$[ebp+12], OFFSET ??_C@_08DKNMBPNK@?$LE?k?H?$KN?$MA?z?$MA?e?$AA@

; 4229 : 	};
; 4230 : 	int iChannelSwitch[] = {
; 4231 : 		PC_ETCFLAG_CHAT_TELL,

  000f6	c7 85 40 ff ff
	ff 40 00 00 00	 mov	 DWORD PTR _iChannelSwitch$[ebp], 64 ; 00000040H

; 4232 : 		PC_ETCFLAG_CHAT_FM,

  00100	c7 85 44 ff ff
	ff 80 00 00 00	 mov	 DWORD PTR _iChannelSwitch$[ebp+4], 128 ; 00000080H

; 4233 : 		PC_ETCFLAG_CHAT_OCC,

  0010a	c7 85 48 ff ff
	ff 00 01 00 00	 mov	 DWORD PTR _iChannelSwitch$[ebp+8], 256 ; 00000100H

; 4234 : 		PC_ETCFLAG_CHAT_SAVE

  00114	c7 85 4c ff ff
	ff 00 02 00 00	 mov	 DWORD PTR _iChannelSwitch$[ebp+12], 512 ; 00000200H

; 4235 : 	};
; 4236 : #endif
; 4237 : 
; 4238 : /*#ifdef _JOBDAILY
; 4239 : 	char *msg5[] = {
; 4240 : 		"膦  耄",
; 4241 : 		"挫挫",
; 4242 : 		"れ挫"
; 4243 : 	};
; 4244 : #endif*/
; 4245 : 
; 4246 : 	int i;
; 4247 : 	int x1, y1, x2, y2;
; 4248 : 
; 4249 : 	if (etcSwitchProcNo == 0)

  0011e	0f bf 05 00 00
	00 00		 movsx	 eax, WORD PTR ?etcSwitchProcNo@@3FA ; etcSwitchProcNo
  00125	85 c0		 test	 eax, eax
  00127	0f 85 b6 00 00
	00		 jne	 $LN19@etcSwitch

; 4250 : 	{
; 4251 : 		for (i = 0; i < sizeof(btnId) / sizeof(int); i++)

  0012d	c7 85 34 ff ff
	ff 00 00 00 00	 mov	 DWORD PTR _i$[ebp], 0
  00137	eb 0f		 jmp	 SHORT $LN4@etcSwitch
$LN2@etcSwitch:
  00139	8b 85 34 ff ff
	ff		 mov	 eax, DWORD PTR _i$[ebp]
  0013f	83 c0 01	 add	 eax, 1
  00142	89 85 34 ff ff
	ff		 mov	 DWORD PTR _i$[ebp], eax
$LN4@etcSwitch:
  00148	83 bd 34 ff ff
	ff 05		 cmp	 DWORD PTR _i$[ebp], 5
  0014f	73 13		 jae	 SHORT $LN3@etcSwitch

; 4252 : 			btnId[i] = -2;

  00151	8b 85 34 ff ff
	ff		 mov	 eax, DWORD PTR _i$[ebp]
  00157	c7 04 85 00 00
	00 00 fe ff ff
	ff		 mov	 DWORD PTR ?btnId@?1??etcSwitch@@YAHXZ@4PAHA[eax*4], -2 ; fffffffeH
  00162	eb d5		 jmp	 SHORT $LN2@etcSwitch
$LN3@etcSwitch:

; 4253 : 
; 4254 : 		// ??????
; 4255 : 		w = 3;

  00164	c7 05 00 00 00
	00 03 00 00 00	 mov	 DWORD PTR ?w@?1??etcSwitch@@YAHXZ@4HA, 3

; 4256 : 		h = 5;

  0016e	c7 05 00 00 00
	00 05 00 00 00	 mov	 DWORD PTR ?h@?1??etcSwitch@@YAHXZ@4HA, 5

; 4257 : 		x = 5;

  00178	c7 05 00 00 00
	00 05 00 00 00	 mov	 DWORD PTR ?x@?1??etcSwitch@@YAHXZ@4HA, 5

; 4258 : 		//x = 440;
; 4259 : 		//y = 72;
; 4260 : 		y = 5;

  00182	c7 05 00 00 00
	00 05 00 00 00	 mov	 DWORD PTR ?y@?1??etcSwitch@@YAHXZ@4HA, 5

; 4261 : 		ptActMenuWin = MakeWindowDisp(x, y, w, h, NULL, 1); //ptActMenuWin = MakeWindowDisp(x, y, w, h+1, NULL, 1);

  0018c	6a 01		 push	 1
  0018e	6a 00		 push	 0
  00190	a1 00 00 00 00	 mov	 eax, DWORD PTR ?h@?1??etcSwitch@@YAHXZ@4HA
  00195	50		 push	 eax
  00196	8b 0d 00 00 00
	00		 mov	 ecx, DWORD PTR ?w@?1??etcSwitch@@YAHXZ@4HA
  0019c	51		 push	 ecx
  0019d	8b 15 00 00 00
	00		 mov	 edx, DWORD PTR ?y@?1??etcSwitch@@YAHXZ@4HA
  001a3	52		 push	 edx
  001a4	a1 00 00 00 00	 mov	 eax, DWORD PTR ?x@?1??etcSwitch@@YAHXZ@4HA
  001a9	50		 push	 eax
  001aa	e8 00 00 00 00	 call	 ?MakeWindowDisp@@YAPAUaction@@HHHHHH@Z ; MakeWindowDisp
  001af	83 c4 18	 add	 esp, 24			; 00000018H
  001b2	a3 00 00 00 00	 mov	 DWORD PTR ?ptActMenuWin@?1??etcSwitch@@YAHXZ@4PAUaction@@A, eax

; 4262 : #ifdef _NEW_RESOMODE  //800 600妯″
; 4263 : 		x = ptActMenuWin->x;

  001b7	a1 00 00 00 00	 mov	 eax, DWORD PTR ?ptActMenuWin@?1??etcSwitch@@YAHXZ@4PAUaction@@A
  001bc	8b 48 18	 mov	 ecx, DWORD PTR [eax+24]
  001bf	89 0d 00 00 00
	00		 mov	 DWORD PTR ?x@?1??etcSwitch@@YAHXZ@4HA, ecx

; 4264 : 		y = ptActMenuWin->y;

  001c5	a1 00 00 00 00	 mov	 eax, DWORD PTR ?ptActMenuWin@?1??etcSwitch@@YAHXZ@4PAUaction@@A
  001ca	8b 48 1c	 mov	 ecx, DWORD PTR [eax+28]
  001cd	89 0d 00 00 00
	00		 mov	 DWORD PTR ?y@?1??etcSwitch@@YAHXZ@4HA, ecx

; 4265 : #endif
; 4266 : 		etcSwitchProcNo++;

  001d3	66 a1 00 00 00
	00		 mov	 ax, WORD PTR ?etcSwitchProcNo@@3FA ; etcSwitchProcNo
  001d9	66 83 c0 01	 add	 ax, 1
  001dd	66 a3 00 00 00
	00		 mov	 WORD PTR ?etcSwitchProcNo@@3FA, ax ; etcSwitchProcNo
$LN19@etcSwitch:

; 4267 : 	}
; 4268 : #ifdef _CHANNEL_MODIFY
; 4269 : 	// [毂  れ旃]
; 4270 : 	if (etcSwitchProcNo == 100)

  001e3	0f bf 05 00 00
	00 00		 movsx	 eax, WORD PTR ?etcSwitchProcNo@@3FA ; etcSwitchProcNo
  001ea	83 f8 64	 cmp	 eax, 100		; 00000064H
  001ed	75 63		 jne	 SHORT $LN20@etcSwitch

; 4271 : 	{
; 4272 : 		w = 3;

  001ef	c7 05 00 00 00
	00 03 00 00 00	 mov	 DWORD PTR ?w@?1??etcSwitch@@YAHXZ@4HA, 3

; 4273 : 		h = 4;

  001f9	c7 05 00 00 00
	00 04 00 00 00	 mov	 DWORD PTR ?h@?1??etcSwitch@@YAHXZ@4HA, 4

; 4274 : 		x = 16;

  00203	c7 05 00 00 00
	00 10 00 00 00	 mov	 DWORD PTR ?x@?1??etcSwitch@@YAHXZ@4HA, 16 ; 00000010H

; 4275 : 		y = 16;

  0020d	c7 05 00 00 00
	00 10 00 00 00	 mov	 DWORD PTR ?y@?1??etcSwitch@@YAHXZ@4HA, 16 ; 00000010H

; 4276 : 		pActChannelWin = MakeWindowDisp(x, y, w, h, NULL, 1);

  00217	6a 01		 push	 1
  00219	6a 00		 push	 0
  0021b	a1 00 00 00 00	 mov	 eax, DWORD PTR ?h@?1??etcSwitch@@YAHXZ@4HA
  00220	50		 push	 eax
  00221	8b 0d 00 00 00
	00		 mov	 ecx, DWORD PTR ?w@?1??etcSwitch@@YAHXZ@4HA
  00227	51		 push	 ecx
  00228	8b 15 00 00 00
	00		 mov	 edx, DWORD PTR ?y@?1??etcSwitch@@YAHXZ@4HA
  0022e	52		 push	 edx
  0022f	a1 00 00 00 00	 mov	 eax, DWORD PTR ?x@?1??etcSwitch@@YAHXZ@4HA
  00234	50		 push	 eax
  00235	e8 00 00 00 00	 call	 ?MakeWindowDisp@@YAPAUaction@@HHHHHH@Z ; MakeWindowDisp
  0023a	83 c4 18	 add	 esp, 24			; 00000018H
  0023d	a3 00 00 00 00	 mov	 DWORD PTR ?pActChannelWin@?1??etcSwitch@@YAHXZ@4PAUaction@@A, eax

; 4277 : 		etcSwitchProcNo++;

  00242	66 a1 00 00 00
	00		 mov	 ax, WORD PTR ?etcSwitchProcNo@@3FA ; etcSwitchProcNo
  00248	66 83 c0 01	 add	 ax, 1
  0024c	66 a3 00 00 00
	00		 mov	 WORD PTR ?etcSwitchProcNo@@3FA, ax ; etcSwitchProcNo
$LN20@etcSwitch:

; 4278 : 	}
; 4279 : 
; 4280 : 	if (pActChannelWin != NULL)

  00252	83 3d 00 00 00
	00 00		 cmp	 DWORD PTR ?pActChannelWin@?1??etcSwitch@@YAHXZ@4PAUaction@@A, 0
  00259	0f 84 a8 05 00
	00		 je	 $LN21@etcSwitch

; 4281 : 	{
; 4282 : 		id = -1;

  0025f	c7 45 e8 ff ff
	ff ff		 mov	 DWORD PTR _id$[ebp], -1

; 4283 : 		focusId = -1;

  00266	c7 45 dc ff ff
	ff ff		 mov	 DWORD PTR _focusId$[ebp], -1

; 4284 : 		if (pActChannelWin->hp >= 1)

  0026d	a1 00 00 00 00	 mov	 eax, DWORD PTR ?pActChannelWin@?1??etcSwitch@@YAHXZ@4PAUaction@@A
  00272	83 78 78 01	 cmp	 DWORD PTR [eax+120], 1
  00276	0f 8c 8b 05 00
	00		 jl	 $LN21@etcSwitch

; 4285 : 		{
; 4286 : 			id = selGraId(iChannelbtnId, sizeof(iChannelbtnId) / sizeof(int));

  0027c	6a 04		 push	 4
  0027e	68 00 00 00 00	 push	 OFFSET ?iChannelbtnId@?1??etcSwitch@@YAHXZ@4PAHA
  00283	e8 00 00 00 00	 call	 ?selGraId@@YAHPAHH@Z	; selGraId
  00288	83 c4 08	 add	 esp, 8
  0028b	89 45 e8	 mov	 DWORD PTR _id$[ebp], eax

; 4287 : 			focusId = focusGraId(iChannelbtnId, sizeof(iChannelbtnId) / sizeof(int));

  0028e	6a 04		 push	 4
  00290	68 00 00 00 00	 push	 OFFSET ?iChannelbtnId@?1??etcSwitch@@YAHXZ@4PAHA
  00295	e8 00 00 00 00	 call	 ?focusGraId@@YAHPAHH@Z	; focusGraId
  0029a	83 c4 08	 add	 esp, 8
  0029d	89 45 dc	 mov	 DWORD PTR _focusId$[ebp], eax

; 4288 : 			for (i = 0; i < sizeof(pszChannel) / sizeof(char*); i++)

  002a0	c7 85 34 ff ff
	ff 00 00 00 00	 mov	 DWORD PTR _i$[ebp], 0
  002aa	eb 0f		 jmp	 SHORT $LN7@etcSwitch
$LN5@etcSwitch:
  002ac	8b 85 34 ff ff
	ff		 mov	 eax, DWORD PTR _i$[ebp]
  002b2	83 c0 01	 add	 eax, 1
  002b5	89 85 34 ff ff
	ff		 mov	 DWORD PTR _i$[ebp], eax
$LN7@etcSwitch:
  002bb	83 bd 34 ff ff
	ff 04		 cmp	 DWORD PTR _i$[ebp], 4
  002c2	0f 83 96 00 00
	00		 jae	 $LN6@etcSwitch

; 4289 : 			{
; 4290 : 				x1 = x + 18;

  002c8	a1 00 00 00 00	 mov	 eax, DWORD PTR ?x@?1??etcSwitch@@YAHXZ@4HA
  002cd	83 c0 12	 add	 eax, 18			; 00000012H
  002d0	89 85 28 ff ff
	ff		 mov	 DWORD PTR _x1$[ebp], eax

; 4291 : 				y1 = y + i * 30 + 23;

  002d6	6b 85 34 ff ff
	ff 1e		 imul	 eax, DWORD PTR _i$[ebp], 30
  002dd	8b 0d 00 00 00
	00		 mov	 ecx, DWORD PTR ?y@?1??etcSwitch@@YAHXZ@4HA
  002e3	8d 54 01 17	 lea	 edx, DWORD PTR [ecx+eax+23]
  002e7	89 95 1c ff ff
	ff		 mov	 DWORD PTR _y1$[ebp], edx

; 4292 : 				x2 = x1 + 157;

  002ed	8b 85 28 ff ff
	ff		 mov	 eax, DWORD PTR _x1$[ebp]
  002f3	05 9d 00 00 00	 add	 eax, 157		; 0000009dH
  002f8	89 85 10 ff ff
	ff		 mov	 DWORD PTR _x2$[ebp], eax

; 4293 : 				y2 = y1 + 22;

  002fe	8b 85 1c ff ff
	ff		 mov	 eax, DWORD PTR _y1$[ebp]
  00304	83 c0 16	 add	 eax, 22			; 00000016H
  00307	89 85 04 ff ff
	ff		 mov	 DWORD PTR _y2$[ebp], eax

; 4294 : 				if (MakeHitBox(x1, y1, x2, y2, DISP_PRIO_BOX2))

  0030d	6a 6b		 push	 107			; 0000006bH
  0030f	8b 85 04 ff ff
	ff		 mov	 eax, DWORD PTR _y2$[ebp]
  00315	50		 push	 eax
  00316	8b 8d 10 ff ff
	ff		 mov	 ecx, DWORD PTR _x2$[ebp]
  0031c	51		 push	 ecx
  0031d	8b 95 1c ff ff
	ff		 mov	 edx, DWORD PTR _y1$[ebp]
  00323	52		 push	 edx
  00324	8b 85 28 ff ff
	ff		 mov	 eax, DWORD PTR _x1$[ebp]
  0032a	50		 push	 eax
  0032b	e8 00 00 00 00	 call	 ?MakeHitBox@@YAHHHHHH@Z	; MakeHitBox
  00330	83 c4 14	 add	 esp, 20			; 00000014H
  00333	85 c0		 test	 eax, eax
  00335	74 22		 je	 SHORT $LN23@etcSwitch

; 4295 : 				{
; 4296 : 					if (mouse.onceState & MOUSE_LEFT_CRICK)

  00337	a1 2c 00 00 00	 mov	 eax, DWORD PTR ?mouse@@3UMOUSE@@A+44
  0033c	83 e0 01	 and	 eax, 1
  0033f	74 0c		 je	 SHORT $LN24@etcSwitch

; 4297 : 						id = i + 1;

  00341	8b 85 34 ff ff
	ff		 mov	 eax, DWORD PTR _i$[ebp]
  00347	83 c0 01	 add	 eax, 1
  0034a	89 45 e8	 mov	 DWORD PTR _id$[ebp], eax
$LN24@etcSwitch:

; 4298 : 					focusId = i + 1;

  0034d	8b 85 34 ff ff
	ff		 mov	 eax, DWORD PTR _i$[ebp]
  00353	83 c0 01	 add	 eax, 1
  00356	89 45 dc	 mov	 DWORD PTR _focusId$[ebp], eax
$LN23@etcSwitch:

; 4299 : 				}
; 4300 : 			}

  00359	e9 4e ff ff ff	 jmp	 $LN5@etcSwitch
$LN6@etcSwitch:

; 4301 : 			
; 4302 : 			if (CheckMenuFlag())

  0035e	e8 00 00 00 00	 call	 ?CheckMenuFlag@@YAHXZ	; CheckMenuFlag
  00363	85 c0		 test	 eax, eax
  00365	74 09		 je	 SHORT $LN25@etcSwitch

; 4303 : 				id = 100;

  00367	c7 45 e8 64 00
	00 00		 mov	 DWORD PTR _id$[ebp], 100 ; 00000064H
  0036e	eb 54		 jmp	 SHORT $LN26@etcSwitch
$LN25@etcSwitch:

; 4304 : 			else if (((joy_trg[0] & JOY_ESC) && GetImeString() == NULL))

  00370	b8 04 00 00 00	 mov	 eax, 4
  00375	6b c8 00	 imul	 ecx, eax, 0
  00378	8b 91 00 00 00
	00		 mov	 edx, DWORD PTR ?joy_trg@@3PAKA[ecx]
  0037e	81 e2 00 00 00
	80		 and	 edx, -2147483648	; 80000000H
  00384	74 29		 je	 SHORT $LN27@etcSwitch
  00386	e8 00 00 00 00	 call	 ?GetImeString@@YAPADXZ	; GetImeString
  0038b	85 c0		 test	 eax, eax
  0038d	75 20		 jne	 SHORT $LN27@etcSwitch

; 4305 : 			{
; 4306 : 				id = 100;

  0038f	c7 45 e8 64 00
	00 00		 mov	 DWORD PTR _id$[ebp], 100 ; 00000064H

; 4307 : 				play_se(203, 320, 240);

  00396	68 f0 00 00 00	 push	 240			; 000000f0H
  0039b	68 40 01 00 00	 push	 320			; 00000140H
  003a0	68 cb 00 00 00	 push	 203			; 000000cbH
  003a5	e8 00 00 00 00	 call	 ?play_se@@YAHHHH@Z	; play_se
  003aa	83 c4 0c	 add	 esp, 12			; 0000000cH
  003ad	eb 15		 jmp	 SHORT $LN26@etcSwitch
$LN27@etcSwitch:

; 4308 : 			}
; 4309 : 			else if (etcSwitchProcNo == 1000)

  003af	0f bf 05 00 00
	00 00		 movsx	 eax, WORD PTR ?etcSwitchProcNo@@3FA ; etcSwitchProcNo
  003b6	3d e8 03 00 00	 cmp	 eax, 1000		; 000003e8H
  003bb	75 07		 jne	 SHORT $LN26@etcSwitch

; 4310 : 				id = 100;

  003bd	c7 45 e8 64 00
	00 00		 mov	 DWORD PTR _id$[ebp], 100 ; 00000064H
$LN26@etcSwitch:

; 4311 : 
; 4312 : 			if (id == 0)

  003c4	83 7d e8 00	 cmp	 DWORD PTR _id$[ebp], 0
  003c8	75 1c		 jne	 SHORT $LN30@etcSwitch

; 4313 : 				play_se(203, 320, 240);

  003ca	68 f0 00 00 00	 push	 240			; 000000f0H
  003cf	68 40 01 00 00	 push	 320			; 00000140H
  003d4	68 cb 00 00 00	 push	 203			; 000000cbH
  003d9	e8 00 00 00 00	 call	 ?play_se@@YAHHHH@Z	; play_se
  003de	83 c4 0c	 add	 esp, 12			; 0000000cH
  003e1	e9 cd 01 00 00	 jmp	 $LN31@etcSwitch
$LN30@etcSwitch:

; 4314 : 			else if (1 <= id && id <= sizeof(msg) / sizeof(char*))

  003e6	83 7d e8 01	 cmp	 DWORD PTR _id$[ebp], 1
  003ea	0f 8c c3 01 00
	00		 jl	 $LN31@etcSwitch
  003f0	83 7d e8 06	 cmp	 DWORD PTR _id$[ebp], 6
  003f4	0f 87 b9 01 00
	00		 ja	 $LN31@etcSwitch

; 4315 : 			{
; 4316 : 				id--;

  003fa	8b 45 e8	 mov	 eax, DWORD PTR _id$[ebp]
  003fd	83 e8 01	 sub	 eax, 1
  00400	89 45 e8	 mov	 DWORD PTR _id$[ebp], eax

; 4317 : 				if (pc.etcFlag & iChannelSwitch[id])

  00403	0f b7 05 a8 00
	00 00		 movzx	 eax, WORD PTR ?pc@@3UPC@@A+168
  0040a	8b 4d e8	 mov	 ecx, DWORD PTR _id$[ebp]
  0040d	23 84 8d 40 ff
	ff ff		 and	 eax, DWORD PTR _iChannelSwitch$[ebp+ecx*4]
  00414	74 28		 je	 SHORT $LN33@etcSwitch

; 4318 : 				{
; 4319 : 					pc.etcFlag &= ~iChannelSwitch[id];

  00416	8b 45 e8	 mov	 eax, DWORD PTR _id$[ebp]
  00419	8b 8c 85 40 ff
	ff ff		 mov	 ecx, DWORD PTR _iChannelSwitch$[ebp+eax*4]
  00420	f7 d1		 not	 ecx
  00422	0f b7 15 a8 00
	00 00		 movzx	 edx, WORD PTR ?pc@@3UPC@@A+168
  00429	23 d1		 and	 edx, ecx
  0042b	66 89 15 a8 00
	00 00		 mov	 WORD PTR ?pc@@3UPC@@A+168, dx

; 4320 : 					TalkMode = 0;

  00432	c7 05 00 00 00
	00 00 00 00 00	 mov	 DWORD PTR ?TalkMode@@3HA, 0 ; TalkMode

; 4321 : 				}
; 4322 : 				else

  0043c	eb 17		 jmp	 SHORT $LN34@etcSwitch
$LN33@etcSwitch:

; 4323 : 					pc.etcFlag |= iChannelSwitch[id];

  0043e	0f b7 05 a8 00
	00 00		 movzx	 eax, WORD PTR ?pc@@3UPC@@A+168
  00445	8b 4d e8	 mov	 ecx, DWORD PTR _id$[ebp]
  00448	0b 84 8d 40 ff
	ff ff		 or	 eax, DWORD PTR _iChannelSwitch$[ebp+ecx*4]
  0044f	66 a3 a8 00 00
	00		 mov	 WORD PTR ?pc@@3UPC@@A+168, ax
$LN34@etcSwitch:

; 4324 : 				switch (id)

  00455	8b 45 e8	 mov	 eax, DWORD PTR _id$[ebp]
  00458	89 85 cc fd ff
	ff		 mov	 DWORD PTR tv218[ebp], eax
  0045e	83 bd cc fd ff
	ff 01		 cmp	 DWORD PTR tv218[ebp], 1
  00465	74 17		 je	 SHORT $LN35@etcSwitch
  00467	83 bd cc fd ff
	ff 02		 cmp	 DWORD PTR tv218[ebp], 2
  0046e	74 46		 je	 SHORT $LN37@etcSwitch
  00470	83 bd cc fd ff
	ff 03		 cmp	 DWORD PTR tv218[ebp], 3
  00477	74 75		 je	 SHORT $LN39@etcSwitch
  00479	e9 91 00 00 00	 jmp	 $LN8@etcSwitch
$LN35@etcSwitch:

; 4325 : 				{
; 4326 : 					case 1:
; 4327 : 						if (pc.familyleader <= 0)

  0047e	83 3d 08 51 00
	00 00		 cmp	 DWORD PTR ?pc@@3UPC@@A+20744, 0
  00485	7f 2d		 jg	 SHORT $LN36@etcSwitch

; 4328 : 						{
; 4329 : 							StockChatBufferLine("臧臁膘臧歆惦", FONT_PAL_RED);

  00487	6a 00		 push	 0
  00489	6a 06		 push	 6
  0048b	68 00 00 00 00	 push	 OFFSET ??_C@_0BJ@BCJNPCLP@?$LA?$KB?A?$LH?$LP?$KB?$LA?$KB?$MA?T?G?O?A?v?$LO?J?$LO?R?$LN?$MA?$LE?O?$LE?Y?$AA@
  00490	e8 00 00 00 00	 call	 ?StockChatBufferLine@@YAXPADEH@Z ; StockChatBufferLine
  00495	83 c4 0c	 add	 esp, 12			; 0000000cH

; 4330 : 							pc.etcFlag &= ~iChannelSwitch[id];	

  00498	8b 45 e8	 mov	 eax, DWORD PTR _id$[ebp]
  0049b	8b 8c 85 40 ff
	ff ff		 mov	 ecx, DWORD PTR _iChannelSwitch$[ebp+eax*4]
  004a2	f7 d1		 not	 ecx
  004a4	0f b7 15 a8 00
	00 00		 movzx	 edx, WORD PTR ?pc@@3UPC@@A+168
  004ab	23 d1		 and	 edx, ecx
  004ad	66 89 15 a8 00
	00 00		 mov	 WORD PTR ?pc@@3UPC@@A+168, dx
$LN36@etcSwitch:

; 4331 : 						}
; 4332 : 						break;

  004b4	eb 59		 jmp	 SHORT $LN8@etcSwitch
$LN37@etcSwitch:

; 4333 : 						//2.5婚よ涓稿冲
; 4334 : 
; 4335 : 					case 2:
; 4336 : 						if (pc.profession_class == 0)

  004b6	83 3d 84 a1 00
	00 00		 cmp	 DWORD PTR ?pc@@3UPC@@A+41348, 0
  004bd	75 2d		 jne	 SHORT $LN38@etcSwitch

; 4337 : 						{
; 4338 : 							StockChatBufferLine("瓿╇歆惦", FONT_PAL_RED);

  004bf	6a 00		 push	 0
  004c1	6a 06		 push	 6
  004c3	68 00 00 00 00	 push	 OFFSET ??_C@_0BD@JIKBMICG@?$LA?m?$LP?k?$LF?G?A?v?$LO?J?$LO?R?$LN?$MA?$LE?O?$LE?Y?$AA@
  004c8	e8 00 00 00 00	 call	 ?StockChatBufferLine@@YAXPADEH@Z ; StockChatBufferLine
  004cd	83 c4 0c	 add	 esp, 12			; 0000000cH

; 4339 : 							pc.etcFlag &= ~iChannelSwitch[id];

  004d0	8b 45 e8	 mov	 eax, DWORD PTR _id$[ebp]
  004d3	8b 8c 85 40 ff
	ff ff		 mov	 ecx, DWORD PTR _iChannelSwitch$[ebp+eax*4]
  004da	f7 d1		 not	 ecx
  004dc	0f b7 15 a8 00
	00 00		 movzx	 edx, WORD PTR ?pc@@3UPC@@A+168
  004e3	23 d1		 and	 edx, ecx
  004e5	66 89 15 a8 00
	00 00		 mov	 WORD PTR ?pc@@3UPC@@A+168, dx
$LN38@etcSwitch:

; 4340 : 						}
; 4341 : 						break;

  004ec	eb 21		 jmp	 SHORT $LN8@etcSwitch
$LN39@etcSwitch:

; 4342 : 					case 3:
; 4343 : 						if (!(pc.etcFlag & iChannelSwitch[id]))

  004ee	0f b7 05 a8 00
	00 00		 movzx	 eax, WORD PTR ?pc@@3UPC@@A+168
  004f5	8b 4d e8	 mov	 ecx, DWORD PTR _id$[ebp]
  004f8	23 84 8d 40 ff
	ff ff		 and	 eax, DWORD PTR _iChannelSwitch$[ebp+ecx*4]
  004ff	75 0e		 jne	 SHORT $LN8@etcSwitch

; 4344 : 							SaveChatData(NULL, 0, true);

  00501	6a 01		 push	 1
  00503	6a 00		 push	 0
  00505	6a 00		 push	 0
  00507	e8 00 00 00 00	 call	 ?SaveChatData@@YAXPADD_N@Z ; SaveChatData
  0050c	83 c4 0c	 add	 esp, 12			; 0000000cH
$LN8@etcSwitch:

; 4345 : 						break;
; 4346 : 				}
; 4347 : 				if (eventWarpSendFlag == 0 && eventEnemySendFlag == 0 && sendEnFlag == 0)

  0050f	0f bf 05 00 00
	00 00		 movsx	 eax, WORD PTR ?eventWarpSendFlag@@3FA ; eventWarpSendFlag
  00516	85 c0		 test	 eax, eax
  00518	75 7b		 jne	 SHORT $LN41@etcSwitch
  0051a	0f bf 05 00 00
	00 00		 movsx	 eax, WORD PTR ?eventEnemySendFlag@@3FA ; eventEnemySendFlag
  00521	85 c0		 test	 eax, eax
  00523	75 70		 jne	 SHORT $LN41@etcSwitch
  00525	0f bf 05 00 00
	00 00		 movsx	 eax, WORD PTR ?sendEnFlag@@3FA ; sendEnFlag
  0052c	85 c0		 test	 eax, eax
  0052e	75 65		 jne	 SHORT $LN41@etcSwitch

; 4348 : 				{
; 4349 : 					if (fieldBtnPushTime + FIELD_BTN_PUSH_WAIT < TimeGetTime())

  00530	8b 35 00 00 00
	00		 mov	 esi, DWORD PTR ?fieldBtnPushTime@@3IA ; fieldBtnPushTime
  00536	81 c6 f4 01 00
	00		 add	 esi, 500		; 000001f4H
  0053c	e8 00 00 00 00	 call	 ?TimeGetTime@@YAIXZ	; TimeGetTime
  00541	3b f0		 cmp	 esi, eax
  00543	73 45		 jae	 SHORT $LN42@etcSwitch

; 4350 : 					{
; 4351 : 						if (bNewServer)

  00545	83 3d 00 00 00
	00 00		 cmp	 DWORD PTR ?bNewServer@@3HA, 0 ; bNewServer
  0054c	74 19		 je	 SHORT $LN44@etcSwitch

; 4352 : 							lssproto_FS_send(sockfd, pc.etcFlag);

  0054e	0f b7 05 a8 00
	00 00		 movzx	 eax, WORD PTR ?pc@@3UPC@@A+168
  00555	50		 push	 eax
  00556	8b 0d 00 00 00
	00		 mov	 ecx, DWORD PTR ?sockfd@@3IA ; sockfd
  0055c	51		 push	 ecx
  0055d	e8 00 00 00 00	 call	 ?lssproto_FS_send@@YAXHH@Z ; lssproto_FS_send
  00562	83 c4 08	 add	 esp, 8

; 4353 : 						else

  00565	eb 17		 jmp	 SHORT $LN45@etcSwitch
$LN44@etcSwitch:

; 4354 : 							old_lssproto_FS_send(sockfd, pc.etcFlag);

  00567	0f b7 05 a8 00
	00 00		 movzx	 eax, WORD PTR ?pc@@3UPC@@A+168
  0056e	50		 push	 eax
  0056f	8b 0d 00 00 00
	00		 mov	 ecx, DWORD PTR ?sockfd@@3IA ; sockfd
  00575	51		 push	 ecx
  00576	e8 00 00 00 00	 call	 ?old_lssproto_FS_send@@YAXHH@Z ; old_lssproto_FS_send
  0057b	83 c4 08	 add	 esp, 8
$LN45@etcSwitch:

; 4355 : 
; 4356 : 						fieldBtnPushTime = TimeGetTime();

  0057e	e8 00 00 00 00	 call	 ?TimeGetTime@@YAIXZ	; TimeGetTime
  00583	a3 00 00 00 00	 mov	 DWORD PTR ?fieldBtnPushTime@@3IA, eax ; fieldBtnPushTime

; 4357 : 					}
; 4358 : 					else

  00588	eb 0b		 jmp	 SHORT $LN41@etcSwitch
$LN42@etcSwitch:

; 4359 : 						etcSwitchChangeFlag = 1;

  0058a	b8 01 00 00 00	 mov	 eax, 1
  0058f	66 a3 00 00 00
	00		 mov	 WORD PTR ?etcSwitchChangeFlag@@3FA, ax ; etcSwitchChangeFlag
$LN41@etcSwitch:

; 4360 : 				}
; 4361 : 				id = -1;

  00595	c7 45 e8 ff ff
	ff ff		 mov	 DWORD PTR _id$[ebp], -1

; 4362 : 				play_se(217, 320, 240);

  0059c	68 f0 00 00 00	 push	 240			; 000000f0H
  005a1	68 40 01 00 00	 push	 320			; 00000140H
  005a6	68 d9 00 00 00	 push	 217			; 000000d9H
  005ab	e8 00 00 00 00	 call	 ?play_se@@YAHHHH@Z	; play_se
  005b0	83 c4 0c	 add	 esp, 12			; 0000000cH
$LN31@etcSwitch:

; 4363 : 			}
; 4364 : 			if (id >= 0){

  005b3	83 7d e8 00	 cmp	 DWORD PTR _id$[ebp], 0
  005b7	0f 8c 3c 01 00
	00		 jl	 $LN46@etcSwitch

; 4365 : 				DeathAction(pActChannelWin);

  005bd	a1 00 00 00 00	 mov	 eax, DWORD PTR ?pActChannelWin@?1??etcSwitch@@YAHXZ@4PAUaction@@A
  005c2	50		 push	 eax
  005c3	e8 00 00 00 00	 call	 ?DeathAction@@YAXPAUaction@@@Z ; DeathAction
  005c8	83 c4 04	 add	 esp, 4

; 4366 : 				pActChannelWin = NULL;

  005cb	c7 05 00 00 00
	00 00 00 00 00	 mov	 DWORD PTR ?pActChannelWin@?1??etcSwitch@@YAHXZ@4PAUaction@@A, 0

; 4367 : 				if ((pf = fopen("data\\channel.dat","w+")) == NULL)

  005d5	8b f4		 mov	 esi, esp
  005d7	68 00 00 00 00	 push	 OFFSET ??_C@_02CHHAKFFB@w?$CL?$AA@
  005dc	68 00 00 00 00	 push	 OFFSET ??_C@_0BB@BLGDDDEM@data?2channel?4dat?$AA@
  005e1	ff 15 00 00 00
	00		 call	 DWORD PTR __imp__fopen
  005e7	83 c4 08	 add	 esp, 8
  005ea	3b f4		 cmp	 esi, esp
  005ec	e8 00 00 00 00	 call	 __RTC_CheckEsp
  005f1	89 45 f4	 mov	 DWORD PTR _pf$[ebp], eax
  005f4	83 7d f4 00	 cmp	 DWORD PTR _pf$[ebp], 0
  005f8	75 16		 jne	 SHORT $LN47@etcSwitch

; 4368 : 					StockChatBufferLine("毂 れ  疥赴 ろ", FONT_PAL_RED);

  005fa	6a 00		 push	 0
  005fc	6a 06		 push	 6
  005fe	68 00 00 00 00	 push	 OFFSET ??_C@_0BJ@DLFHHIDJ@?C?$KE?$LD?N?5?$LM?$LD?A?$KE?5?F?D?$MA?O?5?$MA?P?$LB?b?5?$LN?G?F?P?$AA@
  00603	e8 00 00 00 00	 call	 ?StockChatBufferLine@@YAXPADEH@Z ; StockChatBufferLine
  00608	83 c4 0c	 add	 esp, 12			; 0000000cH

; 4369 : 				else{

  0060b	e9 df 00 00 00	 jmp	 $LN48@etcSwitch
$LN47@etcSwitch:

; 4370 : 					char buf[3];
; 4371 : 
; 4372 : 					buf[0] = (pc.etcFlag & PC_ETCFLAG_CHAT_TELL) ? 1:0;

  00610	0f b7 05 a8 00
	00 00		 movzx	 eax, WORD PTR ?pc@@3UPC@@A+168
  00617	83 e0 40	 and	 eax, 64			; 00000040H
  0061a	74 0c		 je	 SHORT $LN92@etcSwitch
  0061c	c7 85 cc fd ff
	ff 01 00 00 00	 mov	 DWORD PTR tv316[ebp], 1
  00626	eb 0a		 jmp	 SHORT $LN93@etcSwitch
$LN92@etcSwitch:
  00628	c7 85 cc fd ff
	ff 00 00 00 00	 mov	 DWORD PTR tv316[ebp], 0
$LN93@etcSwitch:
  00632	b9 01 00 00 00	 mov	 ecx, 1
  00637	6b d1 00	 imul	 edx, ecx, 0
  0063a	8a 85 cc fd ff
	ff		 mov	 al, BYTE PTR tv316[ebp]
  00640	88 84 15 f8 fe
	ff ff		 mov	 BYTE PTR _buf$3[ebp+edx], al

; 4373 : 					buf[1] = (pc.etcFlag & PC_ETCFLAG_CHAT_SAVE) ? 1:0;

  00647	0f b7 05 a8 00
	00 00		 movzx	 eax, WORD PTR ?pc@@3UPC@@A+168
  0064e	25 00 02 00 00	 and	 eax, 512		; 00000200H
  00653	74 0c		 je	 SHORT $LN94@etcSwitch
  00655	c7 85 cc fd ff
	ff 01 00 00 00	 mov	 DWORD PTR tv355[ebp], 1
  0065f	eb 0a		 jmp	 SHORT $LN95@etcSwitch
$LN94@etcSwitch:
  00661	c7 85 cc fd ff
	ff 00 00 00 00	 mov	 DWORD PTR tv355[ebp], 0
$LN95@etcSwitch:
  0066b	b9 01 00 00 00	 mov	 ecx, 1
  00670	c1 e1 00	 shl	 ecx, 0
  00673	8a 95 cc fd ff
	ff		 mov	 dl, BYTE PTR tv355[ebp]
  00679	88 94 0d f8 fe
	ff ff		 mov	 BYTE PTR _buf$3[ebp+ecx], dl

; 4374 : 					buf[2] = (pc.etcFlag & PC_ETCFLAG_CHAT_OCC) ? 1:0;

  00680	0f b7 05 a8 00
	00 00		 movzx	 eax, WORD PTR ?pc@@3UPC@@A+168
  00687	25 00 01 00 00	 and	 eax, 256		; 00000100H
  0068c	74 0c		 je	 SHORT $LN96@etcSwitch
  0068e	c7 85 cc fd ff
	ff 01 00 00 00	 mov	 DWORD PTR tv362[ebp], 1
  00698	eb 0a		 jmp	 SHORT $LN97@etcSwitch
$LN96@etcSwitch:
  0069a	c7 85 cc fd ff
	ff 00 00 00 00	 mov	 DWORD PTR tv362[ebp], 0
$LN97@etcSwitch:
  006a4	b9 01 00 00 00	 mov	 ecx, 1
  006a9	d1 e1		 shl	 ecx, 1
  006ab	8a 95 cc fd ff
	ff		 mov	 dl, BYTE PTR tv362[ebp]
  006b1	88 94 0d f8 fe
	ff ff		 mov	 BYTE PTR _buf$3[ebp+ecx], dl

; 4375 : 					fwrite(buf, 1, sizeof(buf), pf);

  006b8	8b f4		 mov	 esi, esp
  006ba	8b 45 f4	 mov	 eax, DWORD PTR _pf$[ebp]
  006bd	50		 push	 eax
  006be	6a 03		 push	 3
  006c0	6a 01		 push	 1
  006c2	8d 8d f8 fe ff
	ff		 lea	 ecx, DWORD PTR _buf$3[ebp]
  006c8	51		 push	 ecx
  006c9	ff 15 00 00 00
	00		 call	 DWORD PTR __imp__fwrite
  006cf	83 c4 10	 add	 esp, 16			; 00000010H
  006d2	3b f4		 cmp	 esi, esp
  006d4	e8 00 00 00 00	 call	 __RTC_CheckEsp

; 4376 : 					fclose(pf);

  006d9	8b f4		 mov	 esi, esp
  006db	8b 45 f4	 mov	 eax, DWORD PTR _pf$[ebp]
  006de	50		 push	 eax
  006df	ff 15 00 00 00
	00		 call	 DWORD PTR __imp__fclose
  006e5	83 c4 04	 add	 esp, 4
  006e8	3b f4		 cmp	 esi, esp
  006ea	e8 00 00 00 00	 call	 __RTC_CheckEsp
$LN48@etcSwitch:

; 4377 : 				}
; 4378 : 				return 1;

  006ef	b8 01 00 00 00	 mov	 eax, 1
  006f4	e9 26 07 00 00	 jmp	 $LN1@etcSwitch
$LN46@etcSwitch:

; 4379 : 			}
; 4380 : 			
; 4381 : 			iChannelbtnId[0] = StockDispBuffer(x + 96, y + 160, DISP_PRIO_IME3, CG_CLOSE_BTN, 2);

  006f9	6a 02		 push	 2
  006fb	68 ba 65 00 00	 push	 26042			; 000065baH
  00700	6a 69		 push	 105			; 00000069H
  00702	a1 00 00 00 00	 mov	 eax, DWORD PTR ?y@?1??etcSwitch@@YAHXZ@4HA
  00707	05 a0 00 00 00	 add	 eax, 160		; 000000a0H
  0070c	50		 push	 eax
  0070d	8b 0d 00 00 00
	00		 mov	 ecx, DWORD PTR ?x@?1??etcSwitch@@YAHXZ@4HA
  00713	83 c1 60	 add	 ecx, 96			; 00000060H
  00716	51		 push	 ecx
  00717	e8 00 00 00 00	 call	 ?StockDispBuffer@@YAHHHEHH@Z ; StockDispBuffer
  0071c	83 c4 14	 add	 esp, 20			; 00000014H
  0071f	ba 04 00 00 00	 mov	 edx, 4
  00724	6b ca 00	 imul	 ecx, edx, 0
  00727	89 81 00 00 00
	00		 mov	 DWORD PTR ?iChannelbtnId@?1??etcSwitch@@YAHXZ@4PAHA[ecx], eax

; 4382 : 			if (focusId == 0)

  0072d	83 7d dc 00	 cmp	 DWORD PTR _focusId$[ebp], 0
  00731	75 0f		 jne	 SHORT $LN49@etcSwitch

; 4383 : 				ShowBottomLineString(FONT_PAL_WHITE, "氅 れ彀届 惦.");

  00733	68 00 00 00 00	 push	 OFFSET ??_C@_0BI@JGAFKJCL@?$LI?$NO?$LE?$LK?5?$LM?$LD?A?$KE?C?$KC?$MA?$LL?5?$LE?$NN?$LN?$MA?$LE?O?$LE?Y?4?$AA@
  00738	6a 00		 push	 0
  0073a	e8 00 00 00 00	 call	 ?ShowBottomLineString@@YAXHPAD@Z ; ShowBottomLineString
  0073f	83 c4 08	 add	 esp, 8
$LN49@etcSwitch:

; 4384 : 			for (i = 0; i < sizeof(pszChannel) / sizeof(char*); i++){

  00742	c7 85 34 ff ff
	ff 00 00 00 00	 mov	 DWORD PTR _i$[ebp], 0
  0074c	eb 0f		 jmp	 SHORT $LN12@etcSwitch
$LN10@etcSwitch:
  0074e	8b 85 34 ff ff
	ff		 mov	 eax, DWORD PTR _i$[ebp]
  00754	83 c0 01	 add	 eax, 1
  00757	89 85 34 ff ff
	ff		 mov	 DWORD PTR _i$[ebp], eax
$LN12@etcSwitch:
  0075d	83 bd 34 ff ff
	ff 04		 cmp	 DWORD PTR _i$[ebp], 4
  00764	0f 83 9d 00 00
	00		 jae	 $LN21@etcSwitch

; 4385 : 				StockFontBuffer(x + 20, y + i * 30 + 26, FONT_PRIO_FRONT, FONT_PAL_WHITE, pszChannel[i], 0);

  0076a	6a 00		 push	 0
  0076c	8b 85 34 ff ff
	ff		 mov	 eax, DWORD PTR _i$[ebp]
  00772	8b 8c 85 58 ff
	ff ff		 mov	 ecx, DWORD PTR _pszChannel$[ebp+eax*4]
  00779	51		 push	 ecx
  0077a	6a 00		 push	 0
  0077c	6a 01		 push	 1
  0077e	6b 95 34 ff ff
	ff 1e		 imul	 edx, DWORD PTR _i$[ebp], 30
  00785	a1 00 00 00 00	 mov	 eax, DWORD PTR ?y@?1??etcSwitch@@YAHXZ@4HA
  0078a	8d 4c 10 1a	 lea	 ecx, DWORD PTR [eax+edx+26]
  0078e	51		 push	 ecx
  0078f	8b 15 00 00 00
	00		 mov	 edx, DWORD PTR ?x@?1??etcSwitch@@YAHXZ@4HA
  00795	83 c2 14	 add	 edx, 20			; 00000014H
  00798	52		 push	 edx
  00799	e8 00 00 00 00	 call	 ?StockFontBuffer@@YAHHHDHPADH@Z ; StockFontBuffer
  0079e	83 c4 18	 add	 esp, 24			; 00000018H

; 4386 : 				StockFontBuffer(x + 105, y + i * 30 + 26, FONT_PRIO_FRONT, FONT_PAL_WHITE, msg2[((pc.etcFlag & iChannelSwitch[i]) ? 1:0)], 0);

  007a1	0f b7 05 a8 00
	00 00		 movzx	 eax, WORD PTR ?pc@@3UPC@@A+168
  007a8	8b 8d 34 ff ff
	ff		 mov	 ecx, DWORD PTR _i$[ebp]
  007ae	23 84 8d 40 ff
	ff ff		 and	 eax, DWORD PTR _iChannelSwitch$[ebp+ecx*4]
  007b5	74 0c		 je	 SHORT $LN98@etcSwitch
  007b7	c7 85 cc fd ff
	ff 01 00 00 00	 mov	 DWORD PTR tv403[ebp], 1
  007c1	eb 0a		 jmp	 SHORT $LN99@etcSwitch
$LN98@etcSwitch:
  007c3	c7 85 cc fd ff
	ff 00 00 00 00	 mov	 DWORD PTR tv403[ebp], 0
$LN99@etcSwitch:
  007cd	6a 00		 push	 0
  007cf	8b 95 cc fd ff
	ff		 mov	 edx, DWORD PTR tv403[ebp]
  007d5	8b 44 95 ac	 mov	 eax, DWORD PTR _msg2$[ebp+edx*4]
  007d9	50		 push	 eax
  007da	6a 00		 push	 0
  007dc	6a 01		 push	 1
  007de	6b 8d 34 ff ff
	ff 1e		 imul	 ecx, DWORD PTR _i$[ebp], 30
  007e5	8b 15 00 00 00
	00		 mov	 edx, DWORD PTR ?y@?1??etcSwitch@@YAHXZ@4HA
  007eb	8d 44 0a 1a	 lea	 eax, DWORD PTR [edx+ecx+26]
  007ef	50		 push	 eax
  007f0	8b 0d 00 00 00
	00		 mov	 ecx, DWORD PTR ?x@?1??etcSwitch@@YAHXZ@4HA
  007f6	83 c1 69	 add	 ecx, 105		; 00000069H
  007f9	51		 push	 ecx
  007fa	e8 00 00 00 00	 call	 ?StockFontBuffer@@YAHHHDHPADH@Z ; StockFontBuffer
  007ff	83 c4 18	 add	 esp, 24			; 00000018H

; 4387 : 			}

  00802	e9 47 ff ff ff	 jmp	 $LN10@etcSwitch
$LN21@etcSwitch:

; 4388 : 		}
; 4389 : 	}
; 4390 : #endif
; 4391 : 
; 4392 : 
; 4393 : 	
; 4394 : 
; 4395 : 	if (ptActMenuWin != NULL)

  00807	83 3d 00 00 00
	00 00		 cmp	 DWORD PTR ?ptActMenuWin@?1??etcSwitch@@YAHXZ@4PAUaction@@A, 0
  0080e	0f 84 09 06 00
	00		 je	 $LN50@etcSwitch

; 4396 : 	{
; 4397 : 		id = -1;

  00814	c7 45 e8 ff ff
	ff ff		 mov	 DWORD PTR _id$[ebp], -1

; 4398 : 		focusId = -1;

  0081b	c7 45 dc ff ff
	ff ff		 mov	 DWORD PTR _focusId$[ebp], -1

; 4399 : 		if (ptActMenuWin->hp >= 1)

  00822	a1 00 00 00 00	 mov	 eax, DWORD PTR ?ptActMenuWin@?1??etcSwitch@@YAHXZ@4PAUaction@@A
  00827	83 78 78 01	 cmp	 DWORD PTR [eax+120], 1
  0082b	0f 8c e2 00 00
	00		 jl	 $LN51@etcSwitch

; 4400 : 		{
; 4401 : 			// ????鳖额
; 4402 : 			id = selGraId(btnId, sizeof(btnId) / sizeof(int));

  00831	6a 05		 push	 5
  00833	68 00 00 00 00	 push	 OFFSET ?btnId@?1??etcSwitch@@YAHXZ@4PAHA
  00838	e8 00 00 00 00	 call	 ?selGraId@@YAHPAHH@Z	; selGraId
  0083d	83 c4 08	 add	 esp, 8
  00840	89 45 e8	 mov	 DWORD PTR _id$[ebp], eax

; 4403 : 			focusId = focusGraId(btnId, sizeof(btnId) / sizeof(int));

  00843	6a 05		 push	 5
  00845	68 00 00 00 00	 push	 OFFSET ?btnId@?1??etcSwitch@@YAHXZ@4PAHA
  0084a	e8 00 00 00 00	 call	 ?focusGraId@@YAHPAHH@Z	; focusGraId
  0084f	83 c4 08	 add	 esp, 8
  00852	89 45 dc	 mov	 DWORD PTR _focusId$[ebp], eax

; 4404 : 
; 4405 : 			for (i = 0; i < sizeof(msg) / sizeof(char*); i++)

  00855	c7 85 34 ff ff
	ff 00 00 00 00	 mov	 DWORD PTR _i$[ebp], 0
  0085f	eb 0f		 jmp	 SHORT $LN15@etcSwitch
$LN13@etcSwitch:
  00861	8b 85 34 ff ff
	ff		 mov	 eax, DWORD PTR _i$[ebp]
  00867	83 c0 01	 add	 eax, 1
  0086a	89 85 34 ff ff
	ff		 mov	 DWORD PTR _i$[ebp], eax
$LN15@etcSwitch:
  00870	83 bd 34 ff ff
	ff 06		 cmp	 DWORD PTR _i$[ebp], 6
  00877	0f 83 96 00 00
	00		 jae	 $LN51@etcSwitch

; 4406 : 			{
; 4407 : 				x1 = x+18;

  0087d	a1 00 00 00 00	 mov	 eax, DWORD PTR ?x@?1??etcSwitch@@YAHXZ@4HA
  00882	83 c0 12	 add	 eax, 18			; 00000012H
  00885	89 85 28 ff ff
	ff		 mov	 DWORD PTR _x1$[ebp], eax

; 4408 : 				y1 = y+i*30+23;

  0088b	6b 85 34 ff ff
	ff 1e		 imul	 eax, DWORD PTR _i$[ebp], 30
  00892	8b 0d 00 00 00
	00		 mov	 ecx, DWORD PTR ?y@?1??etcSwitch@@YAHXZ@4HA
  00898	8d 54 01 17	 lea	 edx, DWORD PTR [ecx+eax+23]
  0089c	89 95 1c ff ff
	ff		 mov	 DWORD PTR _y1$[ebp], edx

; 4409 : 				x2 = x1 + 157;

  008a2	8b 85 28 ff ff
	ff		 mov	 eax, DWORD PTR _x1$[ebp]
  008a8	05 9d 00 00 00	 add	 eax, 157		; 0000009dH
  008ad	89 85 10 ff ff
	ff		 mov	 DWORD PTR _x2$[ebp], eax

; 4410 : 				y2 = y1 + 22;

  008b3	8b 85 1c ff ff
	ff		 mov	 eax, DWORD PTR _y1$[ebp]
  008b9	83 c0 16	 add	 eax, 22			; 00000016H
  008bc	89 85 04 ff ff
	ff		 mov	 DWORD PTR _y2$[ebp], eax

; 4411 : 				if (MakeHitBox(x1, y1, x2, y2, DISP_PRIO_BOX2))

  008c2	6a 6b		 push	 107			; 0000006bH
  008c4	8b 85 04 ff ff
	ff		 mov	 eax, DWORD PTR _y2$[ebp]
  008ca	50		 push	 eax
  008cb	8b 8d 10 ff ff
	ff		 mov	 ecx, DWORD PTR _x2$[ebp]
  008d1	51		 push	 ecx
  008d2	8b 95 1c ff ff
	ff		 mov	 edx, DWORD PTR _y1$[ebp]
  008d8	52		 push	 edx
  008d9	8b 85 28 ff ff
	ff		 mov	 eax, DWORD PTR _x1$[ebp]
  008df	50		 push	 eax
  008e0	e8 00 00 00 00	 call	 ?MakeHitBox@@YAHHHHHH@Z	; MakeHitBox
  008e5	83 c4 14	 add	 esp, 20			; 00000014H
  008e8	85 c0		 test	 eax, eax
  008ea	74 22		 je	 SHORT $LN52@etcSwitch

; 4412 : 				{
; 4413 : 					if (mouse.onceState & MOUSE_LEFT_CRICK)

  008ec	a1 2c 00 00 00	 mov	 eax, DWORD PTR ?mouse@@3UMOUSE@@A+44
  008f1	83 e0 01	 and	 eax, 1
  008f4	74 0c		 je	 SHORT $LN53@etcSwitch

; 4414 : 						id = i + 1;

  008f6	8b 85 34 ff ff
	ff		 mov	 eax, DWORD PTR _i$[ebp]
  008fc	83 c0 01	 add	 eax, 1
  008ff	89 45 e8	 mov	 DWORD PTR _id$[ebp], eax
$LN53@etcSwitch:

; 4415 : 					focusId = i + 1;

  00902	8b 85 34 ff ff
	ff		 mov	 eax, DWORD PTR _i$[ebp]
  00908	83 c0 01	 add	 eax, 1
  0090b	89 45 dc	 mov	 DWORD PTR _focusId$[ebp], eax
$LN52@etcSwitch:

; 4416 : 				}
; 4417 : 			}

  0090e	e9 4e ff ff ff	 jmp	 $LN13@etcSwitch
$LN51@etcSwitch:

; 4418 : 		}
; 4419 : 		if (CheckMenuFlag())

  00913	e8 00 00 00 00	 call	 ?CheckMenuFlag@@YAHXZ	; CheckMenuFlag
  00918	85 c0		 test	 eax, eax
  0091a	74 09		 je	 SHORT $LN54@etcSwitch

; 4420 : 			id = 100;

  0091c	c7 45 e8 64 00
	00 00		 mov	 DWORD PTR _id$[ebp], 100 ; 00000064H
  00923	eb 54		 jmp	 SHORT $LN55@etcSwitch
$LN54@etcSwitch:

; 4421 : 		else if (((joy_trg[0] & JOY_ESC) && GetImeString() == NULL)){

  00925	b8 04 00 00 00	 mov	 eax, 4
  0092a	6b c8 00	 imul	 ecx, eax, 0
  0092d	8b 91 00 00 00
	00		 mov	 edx, DWORD PTR ?joy_trg@@3PAKA[ecx]
  00933	81 e2 00 00 00
	80		 and	 edx, -2147483648	; 80000000H
  00939	74 29		 je	 SHORT $LN56@etcSwitch
  0093b	e8 00 00 00 00	 call	 ?GetImeString@@YAPADXZ	; GetImeString
  00940	85 c0		 test	 eax, eax
  00942	75 20		 jne	 SHORT $LN56@etcSwitch

; 4422 : 			id = 100;

  00944	c7 45 e8 64 00
	00 00		 mov	 DWORD PTR _id$[ebp], 100 ; 00000064H

; 4423 : 			play_se(203, 320, 240);

  0094b	68 f0 00 00 00	 push	 240			; 000000f0H
  00950	68 40 01 00 00	 push	 320			; 00000140H
  00955	68 cb 00 00 00	 push	 203			; 000000cbH
  0095a	e8 00 00 00 00	 call	 ?play_se@@YAHHHH@Z	; play_se
  0095f	83 c4 0c	 add	 esp, 12			; 0000000cH
  00962	eb 15		 jmp	 SHORT $LN55@etcSwitch
$LN56@etcSwitch:

; 4424 : 		}
; 4425 : 		else if (etcSwitchProcNo == 1000)

  00964	0f bf 05 00 00
	00 00		 movsx	 eax, WORD PTR ?etcSwitchProcNo@@3FA ; etcSwitchProcNo
  0096b	3d e8 03 00 00	 cmp	 eax, 1000		; 000003e8H
  00970	75 07		 jne	 SHORT $LN55@etcSwitch

; 4426 : 			id = 100;

  00972	c7 45 e8 64 00
	00 00		 mov	 DWORD PTR _id$[ebp], 100 ; 00000064H
$LN55@etcSwitch:

; 4427 : 		if (id == 0)

  00979	83 7d e8 00	 cmp	 DWORD PTR _id$[ebp], 0
  0097d	75 1c		 jne	 SHORT $LN59@etcSwitch

; 4428 : 			play_se( 203, 320, 240 );

  0097f	68 f0 00 00 00	 push	 240			; 000000f0H
  00984	68 40 01 00 00	 push	 320			; 00000140H
  00989	68 cb 00 00 00	 push	 203			; 000000cbH
  0098e	e8 00 00 00 00	 call	 ?play_se@@YAHHHH@Z	; play_se
  00993	83 c4 0c	 add	 esp, 12			; 0000000cH

; 4429 : 		else

  00996	e9 68 02 00 00	 jmp	 $LN60@etcSwitch
$LN59@etcSwitch:

; 4430 : #ifdef _CHANNEL_MODIFY
; 4431 : 		if (id == 4)

  0099b	83 7d e8 04	 cmp	 DWORD PTR _id$[ebp], 4
  0099f	75 2f		 jne	 SHORT $LN61@etcSwitch

; 4432 : 		{
; 4433 : 			DeathAction(ptActMenuWin);

  009a1	a1 00 00 00 00	 mov	 eax, DWORD PTR ?ptActMenuWin@?1??etcSwitch@@YAHXZ@4PAUaction@@A
  009a6	50		 push	 eax
  009a7	e8 00 00 00 00	 call	 ?DeathAction@@YAXPAUaction@@@Z ; DeathAction
  009ac	83 c4 04	 add	 esp, 4

; 4434 : 			ptActMenuWin = NULL;

  009af	c7 05 00 00 00
	00 00 00 00 00	 mov	 DWORD PTR ?ptActMenuWin@?1??etcSwitch@@YAHXZ@4PAUaction@@A, 0

; 4435 : 			etcSwitchProcNo = 100;

  009b9	b8 64 00 00 00	 mov	 eax, 100		; 00000064H
  009be	66 a3 00 00 00
	00		 mov	 WORD PTR ?etcSwitchProcNo@@3FA, ax ; etcSwitchProcNo

; 4436 : 			return 0;

  009c4	33 c0		 xor	 eax, eax
  009c6	e9 54 04 00 00	 jmp	 $LN1@etcSwitch

; 4437 : 		}
; 4438 : 		else

  009cb	e9 33 02 00 00	 jmp	 $LN60@etcSwitch
$LN61@etcSwitch:

; 4439 : #endif
; 4440 : #ifdef _NB_SetResoMode
; 4441 : 		if (id == 6){

  009d0	83 7d e8 06	 cmp	 DWORD PTR _id$[ebp], 6
  009d4	0f 85 b8 00 00
	00		 jne	 $LN63@etcSwitch

; 4442 : 			if (ProcNo == PROC_BATTLE) {

  009da	83 3d 00 00 00
	00 0a		 cmp	 DWORD PTR ?ProcNo@@3IA, 10 ; ProcNo, 0000000aH
  009e1	75 07		 jne	 SHORT $LN65@etcSwitch

; 4443 : 				return 0;

  009e3	33 c0		 xor	 eax, eax
  009e5	e9 35 04 00 00	 jmp	 $LN1@etcSwitch
$LN65@etcSwitch:

; 4444 : 			}
; 4445 : 			if (ResoMode == 0){

  009ea	83 3d 00 00 00
	00 00		 cmp	 DWORD PTR ?ResoMode@@3HA, 0 ; ResoMode
  009f1	75 0c		 jne	 SHORT $LN66@etcSwitch

; 4446 : 				ResoMode = 3;

  009f3	c7 05 00 00 00
	00 03 00 00 00	 mov	 DWORD PTR ?ResoMode@@3HA, 3 ; ResoMode
  009fd	eb 1f		 jmp	 SHORT $LN67@etcSwitch
$LN66@etcSwitch:

; 4447 : 			}else if(ResoMode == 3){

  009ff	83 3d 00 00 00
	00 03		 cmp	 DWORD PTR ?ResoMode@@3HA, 3 ; ResoMode
  00a06	75 0c		 jne	 SHORT $LN68@etcSwitch

; 4448 : 				ResoMode = 4;

  00a08	c7 05 00 00 00
	00 04 00 00 00	 mov	 DWORD PTR ?ResoMode@@3HA, 4 ; ResoMode

; 4449 : 			}else{

  00a12	eb 0a		 jmp	 SHORT $LN67@etcSwitch
$LN68@etcSwitch:

; 4450 : 				ResoMode = 0;

  00a14	c7 05 00 00 00
	00 00 00 00 00	 mov	 DWORD PTR ?ResoMode@@3HA, 0 ; ResoMode
$LN67@etcSwitch:

; 4451 : 			}
; 4452 : 			JL_RESOMODE(ResoMode);

  00a1e	a1 00 00 00 00	 mov	 eax, DWORD PTR ?ResoMode@@3HA ; ResoMode
  00a23	50		 push	 eax
  00a24	e8 00 00 00 00	 call	 ?JL_RESOMODE@@YAXH@Z	; JL_RESOMODE
  00a29	83 c4 04	 add	 esp, 4

; 4453 : 			SetResoMode(ResoMode);

  00a2c	a1 00 00 00 00	 mov	 eax, DWORD PTR ?ResoMode@@3HA ; ResoMode
  00a31	50		 push	 eax
  00a32	e8 00 00 00 00	 call	 ?SetResoMode@@YAXH@Z	; SetResoMode
  00a37	83 c4 04	 add	 esp, 4

; 4454 : 			ChangeWindowMode();

  00a3a	e8 00 00 00 00	 call	 ?ChangeWindowMode@@YAXXZ ; ChangeWindowMode

; 4455 : 			RecoverDirectDraw();

  00a3f	e8 00 00 00 00	 call	 ?RecoverDirectDraw@@YAXXZ ; RecoverDirectDraw

; 4456 : 			SendMessage(hWnd,WM_SYSCOMMAND,SC_MINIMIZE,0);

  00a44	8b f4		 mov	 esi, esp
  00a46	6a 00		 push	 0
  00a48	68 20 f0 00 00	 push	 61472			; 0000f020H
  00a4d	68 12 01 00 00	 push	 274			; 00000112H
  00a52	a1 00 00 00 00	 mov	 eax, DWORD PTR ?hWnd@@3PAUHWND__@@A ; hWnd
  00a57	50		 push	 eax
  00a58	ff 15 00 00 00
	00		 call	 DWORD PTR __imp__SendMessageA@16
  00a5e	3b f4		 cmp	 esi, esp
  00a60	e8 00 00 00 00	 call	 __RTC_CheckEsp

; 4457 : 			SendMessage(hWnd,WM_SYSCOMMAND,SC_RESTORE,0);

  00a65	8b f4		 mov	 esi, esp
  00a67	6a 00		 push	 0
  00a69	68 20 f1 00 00	 push	 61728			; 0000f120H
  00a6e	68 12 01 00 00	 push	 274			; 00000112H
  00a73	a1 00 00 00 00	 mov	 eax, DWORD PTR ?hWnd@@3PAUHWND__@@A ; hWnd
  00a78	50		 push	 eax
  00a79	ff 15 00 00 00
	00		 call	 DWORD PTR __imp__SendMessageA@16
  00a7f	3b f4		 cmp	 esi, esp
  00a81	e8 00 00 00 00	 call	 __RTC_CheckEsp

; 4458 : 			return 0;

  00a86	33 c0		 xor	 eax, eax
  00a88	e9 92 03 00 00	 jmp	 $LN1@etcSwitch

; 4459 : 		}else

  00a8d	e9 71 01 00 00	 jmp	 $LN60@etcSwitch
$LN63@etcSwitch:

; 4460 : #endif
; 4461 : 		if (1 <= id && id <= sizeof(msg) / sizeof(char*)){

  00a92	83 7d e8 01	 cmp	 DWORD PTR _id$[ebp], 1
  00a96	0f 8c 67 01 00
	00		 jl	 $LN60@etcSwitch
  00a9c	83 7d e8 06	 cmp	 DWORD PTR _id$[ebp], 6
  00aa0	0f 87 5d 01 00
	00		 ja	 $LN60@etcSwitch

; 4462 : 			id--;

  00aa6	8b 45 e8	 mov	 eax, DWORD PTR _id$[ebp]
  00aa9	83 e8 01	 sub	 eax, 1
  00aac	89 45 e8	 mov	 DWORD PTR _id$[ebp], eax

; 4463 : 			if (pc.etcFlag & mask[id])

  00aaf	0f b7 05 a8 00
	00 00		 movzx	 eax, WORD PTR ?pc@@3UPC@@A+168
  00ab6	8b 4d e8	 mov	 ecx, DWORD PTR _id$[ebp]
  00ab9	23 84 8d 70 ff
	ff ff		 and	 eax, DWORD PTR _mask$[ebp+ecx*4]
  00ac0	74 1e		 je	 SHORT $LN71@etcSwitch

; 4464 : 				pc.etcFlag &= ~mask[id];

  00ac2	8b 45 e8	 mov	 eax, DWORD PTR _id$[ebp]
  00ac5	8b 8c 85 70 ff
	ff ff		 mov	 ecx, DWORD PTR _mask$[ebp+eax*4]
  00acc	f7 d1		 not	 ecx
  00ace	0f b7 15 a8 00
	00 00		 movzx	 edx, WORD PTR ?pc@@3UPC@@A+168
  00ad5	23 d1		 and	 edx, ecx
  00ad7	66 89 15 a8 00
	00 00		 mov	 WORD PTR ?pc@@3UPC@@A+168, dx

; 4465 : 			else{

  00ade	eb 7f		 jmp	 SHORT $LN72@etcSwitch
$LN71@etcSwitch:

; 4466 : #ifdef _STREET_VENDOR
; 4467 : 				if (pc.iOnStreetVendor == 1 || sStreetVendorBuyBtn == 2)

  00ae0	83 3d b8 a1 00
	00 01		 cmp	 DWORD PTR ?pc@@3UPC@@A+41400, 1
  00ae7	74 0c		 je	 SHORT $LN75@etcSwitch
  00ae9	0f bf 05 00 00
	00 00		 movsx	 eax, WORD PTR ?sStreetVendorBuyBtn@@3FA ; sStreetVendorBuyBtn
  00af0	83 f8 02	 cmp	 eax, 2
  00af3	75 53		 jne	 SHORT $LN73@etcSwitch
$LN75@etcSwitch:

; 4468 : 				{
; 4469 : 					if (mask[id] == PC_ETCFLAG_TRADE || mask[id] == PC_ETCFLAG_PARTY || mask[id] == PC_ETCFLAG_DUEL)

  00af5	8b 45 e8	 mov	 eax, DWORD PTR _id$[ebp]
  00af8	83 bc 85 70 ff
	ff ff 20	 cmp	 DWORD PTR _mask$[ebp+eax*4], 32 ; 00000020H
  00b00	74 1a		 je	 SHORT $LN78@etcSwitch
  00b02	8b 45 e8	 mov	 eax, DWORD PTR _id$[ebp]
  00b05	83 bc 85 70 ff
	ff ff 01	 cmp	 DWORD PTR _mask$[ebp+eax*4], 1
  00b0d	74 0d		 je	 SHORT $LN78@etcSwitch
  00b0f	8b 45 e8	 mov	 eax, DWORD PTR _id$[ebp]
  00b12	83 bc 85 70 ff
	ff ff 04	 cmp	 DWORD PTR _mask$[ebp+eax*4], 4
  00b1a	75 13		 jne	 SHORT $LN76@etcSwitch
$LN78@etcSwitch:

; 4470 : 						StockChatBufferLine("胳瓯半挫半旮半", FONT_PAL_RED);

  00b1c	6a 00		 push	 0
  00b1e	6a 06		 push	 6
  00b20	68 00 00 00 00	 push	 OFFSET ??_C@_0CF@MCKEAICK@?$LD?k?A?$KB?$LP?$KB?$LM?$KN?$LA?E?$LH?$KB?$LP?$KN?$LM?v?$LO?x?$MA?$LN?$KB?$KC?F?D?F?$LM?$LJ?W?$MA?$PM?E?u@
  00b25	e8 00 00 00 00	 call	 ?StockChatBufferLine@@YAXPADEH@Z ; StockChatBufferLine
  00b2a	83 c4 0c	 add	 esp, 12			; 0000000cH

; 4471 : 					else

  00b2d	eb 17		 jmp	 SHORT $LN77@etcSwitch
$LN76@etcSwitch:

; 4472 : 						pc.etcFlag |= mask[id];

  00b2f	0f b7 05 a8 00
	00 00		 movzx	 eax, WORD PTR ?pc@@3UPC@@A+168
  00b36	8b 4d e8	 mov	 ecx, DWORD PTR _id$[ebp]
  00b39	0b 84 8d 70 ff
	ff ff		 or	 eax, DWORD PTR _mask$[ebp+ecx*4]
  00b40	66 a3 a8 00 00
	00		 mov	 WORD PTR ?pc@@3UPC@@A+168, ax
$LN77@etcSwitch:

; 4473 : 				}
; 4474 : 				else

  00b46	eb 17		 jmp	 SHORT $LN72@etcSwitch
$LN73@etcSwitch:

; 4475 : 					pc.etcFlag |= mask[id];

  00b48	0f b7 05 a8 00
	00 00		 movzx	 eax, WORD PTR ?pc@@3UPC@@A+168
  00b4f	8b 4d e8	 mov	 ecx, DWORD PTR _id$[ebp]
  00b52	0b 84 8d 70 ff
	ff ff		 or	 eax, DWORD PTR _mask$[ebp+ecx*4]
  00b59	66 a3 a8 00 00
	00		 mov	 WORD PTR ?pc@@3UPC@@A+168, ax
$LN72@etcSwitch:

; 4476 : #else
; 4477 : 				pc.etcFlag |= mask[id];
; 4478 : #endif
; 4479 : 			}
; 4480 : 			if (eventWarpSendFlag == 0 && eventEnemySendFlag == 0 && sendEnFlag == 0)

  00b5f	0f bf 05 00 00
	00 00		 movsx	 eax, WORD PTR ?eventWarpSendFlag@@3FA ; eventWarpSendFlag
  00b66	85 c0		 test	 eax, eax
  00b68	75 7b		 jne	 SHORT $LN79@etcSwitch
  00b6a	0f bf 05 00 00
	00 00		 movsx	 eax, WORD PTR ?eventEnemySendFlag@@3FA ; eventEnemySendFlag
  00b71	85 c0		 test	 eax, eax
  00b73	75 70		 jne	 SHORT $LN79@etcSwitch
  00b75	0f bf 05 00 00
	00 00		 movsx	 eax, WORD PTR ?sendEnFlag@@3FA ; sendEnFlag
  00b7c	85 c0		 test	 eax, eax
  00b7e	75 65		 jne	 SHORT $LN79@etcSwitch

; 4481 : 			{
; 4482 : 				if (fieldBtnPushTime + FIELD_BTN_PUSH_WAIT < TimeGetTime())// ??

  00b80	8b 35 00 00 00
	00		 mov	 esi, DWORD PTR ?fieldBtnPushTime@@3IA ; fieldBtnPushTime
  00b86	81 c6 f4 01 00
	00		 add	 esi, 500		; 000001f4H
  00b8c	e8 00 00 00 00	 call	 ?TimeGetTime@@YAIXZ	; TimeGetTime
  00b91	3b f0		 cmp	 esi, eax
  00b93	73 45		 jae	 SHORT $LN80@etcSwitch

; 4483 : 				{
; 4484 : 					if (bNewServer)

  00b95	83 3d 00 00 00
	00 00		 cmp	 DWORD PTR ?bNewServer@@3HA, 0 ; bNewServer
  00b9c	74 19		 je	 SHORT $LN82@etcSwitch

; 4485 : 						lssproto_FS_send(sockfd, pc.etcFlag);

  00b9e	0f b7 05 a8 00
	00 00		 movzx	 eax, WORD PTR ?pc@@3UPC@@A+168
  00ba5	50		 push	 eax
  00ba6	8b 0d 00 00 00
	00		 mov	 ecx, DWORD PTR ?sockfd@@3IA ; sockfd
  00bac	51		 push	 ecx
  00bad	e8 00 00 00 00	 call	 ?lssproto_FS_send@@YAXHH@Z ; lssproto_FS_send
  00bb2	83 c4 08	 add	 esp, 8

; 4486 : 					else

  00bb5	eb 17		 jmp	 SHORT $LN83@etcSwitch
$LN82@etcSwitch:

; 4487 : 						old_lssproto_FS_send(sockfd, pc.etcFlag);

  00bb7	0f b7 05 a8 00
	00 00		 movzx	 eax, WORD PTR ?pc@@3UPC@@A+168
  00bbe	50		 push	 eax
  00bbf	8b 0d 00 00 00
	00		 mov	 ecx, DWORD PTR ?sockfd@@3IA ; sockfd
  00bc5	51		 push	 ecx
  00bc6	e8 00 00 00 00	 call	 ?old_lssproto_FS_send@@YAXHH@Z ; old_lssproto_FS_send
  00bcb	83 c4 08	 add	 esp, 8
$LN83@etcSwitch:

; 4488 : 					fieldBtnPushTime = TimeGetTime();

  00bce	e8 00 00 00 00	 call	 ?TimeGetTime@@YAIXZ	; TimeGetTime
  00bd3	a3 00 00 00 00	 mov	 DWORD PTR ?fieldBtnPushTime@@3IA, eax ; fieldBtnPushTime
  00bd8	eb 0b		 jmp	 SHORT $LN79@etcSwitch
$LN80@etcSwitch:

; 4489 : 				}
; 4490 : 				else etcSwitchChangeFlag = 1;

  00bda	b8 01 00 00 00	 mov	 eax, 1
  00bdf	66 a3 00 00 00
	00		 mov	 WORD PTR ?etcSwitchChangeFlag@@3FA, ax ; etcSwitchChangeFlag
$LN79@etcSwitch:

; 4491 : 			}
; 4492 : 			id = -1;

  00be5	c7 45 e8 ff ff
	ff ff		 mov	 DWORD PTR _id$[ebp], -1

; 4493 : 			play_se(217, 320, 240);

  00bec	68 f0 00 00 00	 push	 240			; 000000f0H
  00bf1	68 40 01 00 00	 push	 320			; 00000140H
  00bf6	68 d9 00 00 00	 push	 217			; 000000d9H
  00bfb	e8 00 00 00 00	 call	 ?play_se@@YAHHHH@Z	; play_se
  00c00	83 c4 0c	 add	 esp, 12			; 0000000cH
$LN60@etcSwitch:

; 4494 : 		}
; 4495 : 
; 4496 : 		if (id >= 0){

  00c03	83 7d e8 00	 cmp	 DWORD PTR _id$[ebp], 0
  00c07	7c 22		 jl	 SHORT $LN84@etcSwitch

; 4497 : 			DeathAction(ptActMenuWin);

  00c09	a1 00 00 00 00	 mov	 eax, DWORD PTR ?ptActMenuWin@?1??etcSwitch@@YAHXZ@4PAUaction@@A
  00c0e	50		 push	 eax
  00c0f	e8 00 00 00 00	 call	 ?DeathAction@@YAXPAUaction@@@Z ; DeathAction
  00c14	83 c4 04	 add	 esp, 4

; 4498 : 			ptActMenuWin = NULL;

  00c17	c7 05 00 00 00
	00 00 00 00 00	 mov	 DWORD PTR ?ptActMenuWin@?1??etcSwitch@@YAHXZ@4PAUaction@@A, 0

; 4499 : 			return 1;

  00c21	b8 01 00 00 00	 mov	 eax, 1
  00c26	e9 f4 01 00 00	 jmp	 $LN1@etcSwitch
$LN84@etcSwitch:

; 4500 : 		}
; 4501 : 
; 4502 : 		if (ptActMenuWin->hp >= 1){

  00c2b	a1 00 00 00 00	 mov	 eax, DWORD PTR ?ptActMenuWin@?1??etcSwitch@@YAHXZ@4PAUaction@@A
  00c30	83 78 78 01	 cmp	 DWORD PTR [eax+120], 1
  00c34	0f 8c e3 01 00
	00		 jl	 $LN50@etcSwitch

; 4503 : 			btnId[0] = StockDispBuffer(x + 96, y + 210, DISP_PRIO_IME3, CG_CLOSE_BTN, 2);

  00c3a	6a 02		 push	 2
  00c3c	68 ba 65 00 00	 push	 26042			; 000065baH
  00c41	6a 69		 push	 105			; 00000069H
  00c43	a1 00 00 00 00	 mov	 eax, DWORD PTR ?y@?1??etcSwitch@@YAHXZ@4HA
  00c48	05 d2 00 00 00	 add	 eax, 210		; 000000d2H
  00c4d	50		 push	 eax
  00c4e	8b 0d 00 00 00
	00		 mov	 ecx, DWORD PTR ?x@?1??etcSwitch@@YAHXZ@4HA
  00c54	83 c1 60	 add	 ecx, 96			; 00000060H
  00c57	51		 push	 ecx
  00c58	e8 00 00 00 00	 call	 ?StockDispBuffer@@YAHHHEHH@Z ; StockDispBuffer
  00c5d	83 c4 14	 add	 esp, 20			; 00000014H
  00c60	ba 04 00 00 00	 mov	 edx, 4
  00c65	6b ca 00	 imul	 ecx, edx, 0
  00c68	89 81 00 00 00
	00		 mov	 DWORD PTR ?btnId@?1??etcSwitch@@YAHXZ@4PAHA[ecx], eax

; 4504 : 			if (focusId == 0)

  00c6e	83 7d dc 00	 cmp	 DWORD PTR _focusId$[ebp], 0
  00c72	75 0f		 jne	 SHORT $LN86@etcSwitch

; 4505 : 				ShowBottomLineString(FONT_PAL_WHITE, "氅挫敖旮般");

  00c74	68 00 00 00 00	 push	 OFFSET ??_C@_0N@NBGJJJHP@?$LI?$NO?$LE?$LK?C?$KC?$LE?$NN?$LB?b?$KB?$KD?$AA@
  00c79	6a 00		 push	 0
  00c7b	e8 00 00 00 00	 call	 ?ShowBottomLineString@@YAXHPAD@Z ; ShowBottomLineString
  00c80	83 c4 08	 add	 esp, 8
$LN86@etcSwitch:

; 4506 : 			for (i = 0; i < sizeof(msg) / sizeof(char*); i++){

  00c83	c7 85 34 ff ff
	ff 00 00 00 00	 mov	 DWORD PTR _i$[ebp], 0
  00c8d	eb 0f		 jmp	 SHORT $LN18@etcSwitch
$LN16@etcSwitch:
  00c8f	8b 85 34 ff ff
	ff		 mov	 eax, DWORD PTR _i$[ebp]
  00c95	83 c0 01	 add	 eax, 1
  00c98	89 85 34 ff ff
	ff		 mov	 DWORD PTR _i$[ebp], eax
$LN18@etcSwitch:
  00c9e	83 bd 34 ff ff
	ff 06		 cmp	 DWORD PTR _i$[ebp], 6
  00ca5	0f 83 72 01 00
	00		 jae	 $LN50@etcSwitch

; 4507 : #ifdef _NB_SetResoMode
; 4508 : 				char *ResoModeMsg[] = { " 640 x 480"

  00cab	c7 85 dc fe ff
	ff 00 00 00 00	 mov	 DWORD PTR _ResoModeMsg$2[ebp], OFFSET ??_C@_0L@OCGDIFAB@?5640?5x?5480?$AA@

; 4509 : 										," 320 x 280"

  00cb5	c7 85 e0 fe ff
	ff 00 00 00 00	 mov	 DWORD PTR _ResoModeMsg$2[ebp+4], OFFSET ??_C@_0L@FCDLGIBD@?5320?5x?5280?$AA@

; 4510 : 										," 640 x 480"

  00cbf	c7 85 e4 fe ff
	ff 00 00 00 00	 mov	 DWORD PTR _ResoModeMsg$2[ebp+8], OFFSET ??_C@_0L@OCGDIFAB@?5640?5x?5480?$AA@

; 4511 : 										," 800 x 600"

  00cc9	c7 85 e8 fe ff
	ff 00 00 00 00	 mov	 DWORD PTR _ResoModeMsg$2[ebp+12], OFFSET ??_C@_0L@FFMHNIN@?5800?5x?5600?$AA@

; 4512 : 										,"1024 x 768"};

  00cd3	c7 85 ec fe ff
	ff 00 00 00 00	 mov	 DWORD PTR _ResoModeMsg$2[ebp+16], OFFSET ??_C@_0L@KHKHJBNB@1024?5x?5768?$AA@

; 4513 : #endif
; 4514 : 				if (i==5){

  00cdd	83 bd 34 ff ff
	ff 05		 cmp	 DWORD PTR _i$[ebp], 5
  00ce4	75 5f		 jne	 SHORT $LN87@etcSwitch

; 4515 : 					char buf[64];
; 4516 : 					sprintf(buf, "%s%s", msg[i],ResoModeMsg[ResoMode]);

  00ce6	a1 00 00 00 00	 mov	 eax, DWORD PTR ?ResoMode@@3HA ; ResoMode
  00ceb	8b 8c 85 dc fe
	ff ff		 mov	 ecx, DWORD PTR _ResoModeMsg$2[ebp+eax*4]
  00cf2	51		 push	 ecx
  00cf3	8b 95 34 ff ff
	ff		 mov	 edx, DWORD PTR _i$[ebp]
  00cf9	8b 44 95 bc	 mov	 eax, DWORD PTR _msg$[ebp+edx*4]
  00cfd	50		 push	 eax
  00cfe	68 00 00 00 00	 push	 OFFSET ??_C@_04HDOCAJNK@?$CFs?$CFs?$AA@
  00d03	8d 8d 94 fe ff
	ff		 lea	 ecx, DWORD PTR _buf$1[ebp]
  00d09	51		 push	 ecx
  00d0a	e8 00 00 00 00	 call	 _sprintf
  00d0f	83 c4 10	 add	 esp, 16			; 00000010H

; 4517 : 					StockFontBuffer(x + 20, y + i * 30 + 26, FONT_PRIO_FRONT, 1, buf, 0);

  00d12	6a 00		 push	 0
  00d14	8d 85 94 fe ff
	ff		 lea	 eax, DWORD PTR _buf$1[ebp]
  00d1a	50		 push	 eax
  00d1b	6a 01		 push	 1
  00d1d	6a 01		 push	 1
  00d1f	6b 8d 34 ff ff
	ff 1e		 imul	 ecx, DWORD PTR _i$[ebp], 30
  00d26	8b 15 00 00 00
	00		 mov	 edx, DWORD PTR ?y@?1??etcSwitch@@YAHXZ@4HA
  00d2c	8d 44 0a 1a	 lea	 eax, DWORD PTR [edx+ecx+26]
  00d30	50		 push	 eax
  00d31	8b 0d 00 00 00
	00		 mov	 ecx, DWORD PTR ?x@?1??etcSwitch@@YAHXZ@4HA
  00d37	83 c1 14	 add	 ecx, 20			; 00000014H
  00d3a	51		 push	 ecx
  00d3b	e8 00 00 00 00	 call	 ?StockFontBuffer@@YAHHHDHPADH@Z ; StockFontBuffer
  00d40	83 c4 18	 add	 esp, 24			; 00000018H

; 4518 : 				}else{

  00d43	eb 34		 jmp	 SHORT $LN88@etcSwitch
$LN87@etcSwitch:

; 4519 : 					StockFontBuffer(x + 20, y + i * 30 + 26, FONT_PRIO_FRONT, FONT_PAL_WHITE, msg[i], 0);

  00d45	6a 00		 push	 0
  00d47	8b 85 34 ff ff
	ff		 mov	 eax, DWORD PTR _i$[ebp]
  00d4d	8b 4c 85 bc	 mov	 ecx, DWORD PTR _msg$[ebp+eax*4]
  00d51	51		 push	 ecx
  00d52	6a 00		 push	 0
  00d54	6a 01		 push	 1
  00d56	6b 95 34 ff ff
	ff 1e		 imul	 edx, DWORD PTR _i$[ebp], 30
  00d5d	a1 00 00 00 00	 mov	 eax, DWORD PTR ?y@?1??etcSwitch@@YAHXZ@4HA
  00d62	8d 4c 10 1a	 lea	 ecx, DWORD PTR [eax+edx+26]
  00d66	51		 push	 ecx
  00d67	8b 15 00 00 00
	00		 mov	 edx, DWORD PTR ?x@?1??etcSwitch@@YAHXZ@4HA
  00d6d	83 c2 14	 add	 edx, 20			; 00000014H
  00d70	52		 push	 edx
  00d71	e8 00 00 00 00	 call	 ?StockFontBuffer@@YAHHHDHPADH@Z ; StockFontBuffer
  00d76	83 c4 18	 add	 esp, 24			; 00000018H
$LN88@etcSwitch:

; 4520 : 				}
; 4521 : 				if (i != 3 && i != 5 && i != 6)    //[欤检 毳   氚 欤检挫 ]

  00d79	83 bd 34 ff ff
	ff 03		 cmp	 DWORD PTR _i$[ebp], 3
  00d80	74 73		 je	 SHORT $LN89@etcSwitch
  00d82	83 bd 34 ff ff
	ff 05		 cmp	 DWORD PTR _i$[ebp], 5
  00d89	74 6a		 je	 SHORT $LN89@etcSwitch
  00d8b	83 bd 34 ff ff
	ff 06		 cmp	 DWORD PTR _i$[ebp], 6
  00d92	74 61		 je	 SHORT $LN89@etcSwitch

; 4522 : 					StockFontBuffer(x + 105, y + i * 30 + 26, FONT_PRIO_FRONT, FONT_PAL_WHITE, msg2[((pc.etcFlag & mask[i]) ? 1:0)], 0);

  00d94	0f b7 05 a8 00
	00 00		 movzx	 eax, WORD PTR ?pc@@3UPC@@A+168
  00d9b	8b 8d 34 ff ff
	ff		 mov	 ecx, DWORD PTR _i$[ebp]
  00da1	23 84 8d 70 ff
	ff ff		 and	 eax, DWORD PTR _mask$[ebp+ecx*4]
  00da8	74 0c		 je	 SHORT $LN100@etcSwitch
  00daa	c7 85 cc fd ff
	ff 01 00 00 00	 mov	 DWORD PTR tv626[ebp], 1
  00db4	eb 0a		 jmp	 SHORT $LN101@etcSwitch
$LN100@etcSwitch:
  00db6	c7 85 cc fd ff
	ff 00 00 00 00	 mov	 DWORD PTR tv626[ebp], 0
$LN101@etcSwitch:
  00dc0	6a 00		 push	 0
  00dc2	8b 95 cc fd ff
	ff		 mov	 edx, DWORD PTR tv626[ebp]
  00dc8	8b 44 95 ac	 mov	 eax, DWORD PTR _msg2$[ebp+edx*4]
  00dcc	50		 push	 eax
  00dcd	6a 00		 push	 0
  00dcf	6a 01		 push	 1
  00dd1	6b 8d 34 ff ff
	ff 1e		 imul	 ecx, DWORD PTR _i$[ebp], 30
  00dd8	8b 15 00 00 00
	00		 mov	 edx, DWORD PTR ?y@?1??etcSwitch@@YAHXZ@4HA
  00dde	8d 44 0a 1a	 lea	 eax, DWORD PTR [edx+ecx+26]
  00de2	50		 push	 eax
  00de3	8b 0d 00 00 00
	00		 mov	 ecx, DWORD PTR ?x@?1??etcSwitch@@YAHXZ@4HA
  00de9	83 c1 69	 add	 ecx, 105		; 00000069H
  00dec	51		 push	 ecx
  00ded	e8 00 00 00 00	 call	 ?StockFontBuffer@@YAHHHDHPADH@Z ; StockFontBuffer
  00df2	83 c4 18	 add	 esp, 24			; 00000018H
$LN89@etcSwitch:

; 4523 : #ifndef _CHANNEL_MODIFY
; 4524 : 				else
; 4525 : 					StockFontBuffer(x + 105, y + i * 30 + 26, FONT_PRIO_FRONT, FONT_PAL_WHITE, msg3[((pc.etcFlag & mask[i]) ? 1:0)], 0);
; 4526 : #endif
; 4527 : 				if (i == focusId - 1)

  00df5	8b 45 dc	 mov	 eax, DWORD PTR _focusId$[ebp]
  00df8	83 e8 01	 sub	 eax, 1
  00dfb	39 85 34 ff ff
	ff		 cmp	 DWORD PTR _i$[ebp], eax
  00e01	75 15		 jne	 SHORT $LN90@etcSwitch

; 4528 : 					ShowBottomLineString(FONT_PAL_WHITE, msg4[i]);

  00e03	8b 85 34 ff ff
	ff		 mov	 eax, DWORD PTR _i$[ebp]
  00e09	8b 4c 85 8c	 mov	 ecx, DWORD PTR _msg4$[ebp+eax*4]
  00e0d	51		 push	 ecx
  00e0e	6a 00		 push	 0
  00e10	e8 00 00 00 00	 call	 ?ShowBottomLineString@@YAXHPAD@Z ; ShowBottomLineString
  00e15	83 c4 08	 add	 esp, 8
$LN90@etcSwitch:

; 4529 : 			}

  00e18	e9 72 fe ff ff	 jmp	 $LN16@etcSwitch
$LN50@etcSwitch:

; 4530 : 		}
; 4531 : 	}
; 4532 : 
; 4533 : 	return 0;

  00e1d	33 c0		 xor	 eax, eax
$LN1@etcSwitch:

; 4534 : }

  00e1f	52		 push	 edx
  00e20	8b cd		 mov	 ecx, ebp
  00e22	50		 push	 eax
  00e23	8d 15 00 00 00
	00		 lea	 edx, DWORD PTR $LN112@etcSwitch
  00e29	e8 00 00 00 00	 call	 @_RTC_CheckStackVars@8
  00e2e	58		 pop	 eax
  00e2f	5a		 pop	 edx
  00e30	5f		 pop	 edi
  00e31	5e		 pop	 esi
  00e32	5b		 pop	 ebx
  00e33	8b 4d fc	 mov	 ecx, DWORD PTR __$ArrayPad$[ebp]
  00e36	33 cd		 xor	 ecx, ebp
  00e38	e8 00 00 00 00	 call	 @__security_check_cookie@4
  00e3d	81 c4 34 02 00
	00		 add	 esp, 564		; 00000234H
  00e43	3b ec		 cmp	 ebp, esp
  00e45	e8 00 00 00 00	 call	 __RTC_CheckEsp
  00e4a	8b e5		 mov	 esp, ebp
  00e4c	5d		 pop	 ebp
  00e4d	c3		 ret	 0
  00e4e	66 90		 npad	 2
$LN112@etcSwitch:
  00e50	09 00 00 00	 DD	 9
  00e54	00 00 00 00	 DD	 $LN111@etcSwitch
$LN111@etcSwitch:
  00e58	bc ff ff ff	 DD	 -68			; ffffffbcH
  00e5c	18 00 00 00	 DD	 24			; 00000018H
  00e60	00 00 00 00	 DD	 $LN102@etcSwitch
  00e64	ac ff ff ff	 DD	 -84			; ffffffacH
  00e68	08 00 00 00	 DD	 8
  00e6c	00 00 00 00	 DD	 $LN103@etcSwitch
  00e70	8c ff ff ff	 DD	 -116			; ffffff8cH
  00e74	18 00 00 00	 DD	 24			; 00000018H
  00e78	00 00 00 00	 DD	 $LN104@etcSwitch
  00e7c	70 ff ff ff	 DD	 -144			; ffffff70H
  00e80	14 00 00 00	 DD	 20			; 00000014H
  00e84	00 00 00 00	 DD	 $LN105@etcSwitch
  00e88	58 ff ff ff	 DD	 -168			; ffffff58H
  00e8c	10 00 00 00	 DD	 16			; 00000010H
  00e90	00 00 00 00	 DD	 $LN106@etcSwitch
  00e94	40 ff ff ff	 DD	 -192			; ffffff40H
  00e98	10 00 00 00	 DD	 16			; 00000010H
  00e9c	00 00 00 00	 DD	 $LN107@etcSwitch
  00ea0	f8 fe ff ff	 DD	 -264			; fffffef8H
  00ea4	03 00 00 00	 DD	 3
  00ea8	00 00 00 00	 DD	 $LN108@etcSwitch
  00eac	dc fe ff ff	 DD	 -292			; fffffedcH
  00eb0	14 00 00 00	 DD	 20			; 00000014H
  00eb4	00 00 00 00	 DD	 $LN109@etcSwitch
  00eb8	94 fe ff ff	 DD	 -364			; fffffe94H
  00ebc	40 00 00 00	 DD	 64			; 00000040H
  00ec0	00 00 00 00	 DD	 $LN110@etcSwitch
$LN110@etcSwitch:
  00ec4	62		 DB	 98			; 00000062H
  00ec5	75		 DB	 117			; 00000075H
  00ec6	66		 DB	 102			; 00000066H
  00ec7	00		 DB	 0
$LN109@etcSwitch:
  00ec8	52		 DB	 82			; 00000052H
  00ec9	65		 DB	 101			; 00000065H
  00eca	73		 DB	 115			; 00000073H
  00ecb	6f		 DB	 111			; 0000006fH
  00ecc	4d		 DB	 77			; 0000004dH
  00ecd	6f		 DB	 111			; 0000006fH
  00ece	64		 DB	 100			; 00000064H
  00ecf	65		 DB	 101			; 00000065H
  00ed0	4d		 DB	 77			; 0000004dH
  00ed1	73		 DB	 115			; 00000073H
  00ed2	67		 DB	 103			; 00000067H
  00ed3	00		 DB	 0
$LN108@etcSwitch:
  00ed4	62		 DB	 98			; 00000062H
  00ed5	75		 DB	 117			; 00000075H
  00ed6	66		 DB	 102			; 00000066H
  00ed7	00		 DB	 0
$LN107@etcSwitch:
  00ed8	69		 DB	 105			; 00000069H
  00ed9	43		 DB	 67			; 00000043H
  00eda	68		 DB	 104			; 00000068H
  00edb	61		 DB	 97			; 00000061H
  00edc	6e		 DB	 110			; 0000006eH
  00edd	6e		 DB	 110			; 0000006eH
  00ede	65		 DB	 101			; 00000065H
  00edf	6c		 DB	 108			; 0000006cH
  00ee0	53		 DB	 83			; 00000053H
  00ee1	77		 DB	 119			; 00000077H
  00ee2	69		 DB	 105			; 00000069H
  00ee3	74		 DB	 116			; 00000074H
  00ee4	63		 DB	 99			; 00000063H
  00ee5	68		 DB	 104			; 00000068H
  00ee6	00		 DB	 0
$LN106@etcSwitch:
  00ee7	70		 DB	 112			; 00000070H
  00ee8	73		 DB	 115			; 00000073H
  00ee9	7a		 DB	 122			; 0000007aH
  00eea	43		 DB	 67			; 00000043H
  00eeb	68		 DB	 104			; 00000068H
  00eec	61		 DB	 97			; 00000061H
  00eed	6e		 DB	 110			; 0000006eH
  00eee	6e		 DB	 110			; 0000006eH
  00eef	65		 DB	 101			; 00000065H
  00ef0	6c		 DB	 108			; 0000006cH
  00ef1	00		 DB	 0
$LN105@etcSwitch:
  00ef2	6d		 DB	 109			; 0000006dH
  00ef3	61		 DB	 97			; 00000061H
  00ef4	73		 DB	 115			; 00000073H
  00ef5	6b		 DB	 107			; 0000006bH
  00ef6	00		 DB	 0
$LN104@etcSwitch:
  00ef7	6d		 DB	 109			; 0000006dH
  00ef8	73		 DB	 115			; 00000073H
  00ef9	67		 DB	 103			; 00000067H
  00efa	34		 DB	 52			; 00000034H
  00efb	00		 DB	 0
$LN103@etcSwitch:
  00efc	6d		 DB	 109			; 0000006dH
  00efd	73		 DB	 115			; 00000073H
  00efe	67		 DB	 103			; 00000067H
  00eff	32		 DB	 50			; 00000032H
  00f00	00		 DB	 0
$LN102@etcSwitch:
  00f01	6d		 DB	 109			; 0000006dH
  00f02	73		 DB	 115			; 00000073H
  00f03	67		 DB	 103			; 00000067H
  00f04	00		 DB	 0
?etcSwitch@@YAHXZ ENDP					; etcSwitch
_TEXT	ENDS
; Function compile flags: /Odtp /RTCsu /ZI
; File c:\users\administrator\desktop\????? ??\????? ??\client source code\system\field.cpp
;	COMDAT ?initEtcSwitch@@YAXXZ
_TEXT	SEGMENT
?initEtcSwitch@@YAXXZ PROC				; initEtcSwitch, COMDAT

; 4113 : {

  00000	55		 push	 ebp
  00001	8b ec		 mov	 ebp, esp
  00003	81 ec c0 00 00
	00		 sub	 esp, 192		; 000000c0H
  00009	53		 push	 ebx
  0000a	56		 push	 esi
  0000b	57		 push	 edi
  0000c	8d bd 40 ff ff
	ff		 lea	 edi, DWORD PTR [ebp-192]
  00012	b9 30 00 00 00	 mov	 ecx, 48			; 00000030H
  00017	b8 cc cc cc cc	 mov	 eax, -858993460		; ccccccccH
  0001c	f3 ab		 rep stosd

; 4114 : 	etcSwitchProcNo = 0;

  0001e	33 c0		 xor	 eax, eax
  00020	66 a3 00 00 00
	00		 mov	 WORD PTR ?etcSwitchProcNo@@3FA, ax ; etcSwitchProcNo

; 4115 : }

  00026	5f		 pop	 edi
  00027	5e		 pop	 esi
  00028	5b		 pop	 ebx
  00029	8b e5		 mov	 esp, ebp
  0002b	5d		 pop	 ebp
  0002c	c3		 ret	 0
?initEtcSwitch@@YAXXZ ENDP				; initEtcSwitch
_TEXT	ENDS
; Function compile flags: /Odtp /RTCsu /ZI
; File c:\users\administrator\desktop\????? ??\????? ??\client source code\system\field.cpp
;	COMDAT ?charActionAnimeChange@@YAHXZ
_TEXT	SEGMENT
_chgTbl$ = -276						; size = 52
_y2$ = -216						; size = 4
_x2$ = -204						; size = 4
_y1$ = -192						; size = 4
_x1$ = -180						; size = 4
_j$ = -168						; size = 4
_i$ = -156						; size = 4
_msg2$ = -144						; size = 52
_msg$ = -84						; size = 52
_focusId$ = -24						; size = 4
_id$ = -12						; size = 4
__$ArrayPad$ = -4					; size = 4
?charActionAnimeChange@@YAHXZ PROC			; charActionAnimeChange, COMDAT

; 3894 : {

  00000	55		 push	 ebp
  00001	8b ec		 mov	 ebp, esp
  00003	81 ec d8 01 00
	00		 sub	 esp, 472		; 000001d8H
  00009	53		 push	 ebx
  0000a	56		 push	 esi
  0000b	57		 push	 edi
  0000c	8d bd 28 fe ff
	ff		 lea	 edi, DWORD PTR [ebp-472]
  00012	b9 76 00 00 00	 mov	 ecx, 118		; 00000076H
  00017	b8 cc cc cc cc	 mov	 eax, -858993460		; ccccccccH
  0001c	f3 ab		 rep stosd
  0001e	a1 00 00 00 00	 mov	 eax, DWORD PTR ___security_cookie
  00023	33 c5		 xor	 eax, ebp
  00025	89 45 fc	 mov	 DWORD PTR __$ArrayPad$[ebp], eax

; 3895 : 	static ACTION *ptActMenuWin = NULL;
; 3896 : 	static int x, y, w, h;
; 3897 : 	static int btnId[13];
; 3898 : 	int id = 0;

  00028	c7 45 f4 00 00
	00 00		 mov	 DWORD PTR _id$[ebp], 0

; 3899 : 	int focusId = 0;

  0002f	c7 45 e8 00 00
	00 00		 mov	 DWORD PTR _focusId$[ebp], 0

; 3900 : 	char *msg[] =
; 3901 : 	{
; 3902 : 		"  ",

  00036	c7 45 ac 00 00
	00 00		 mov	 DWORD PTR _msg$[ebp], OFFSET ??_C@_0L@LEPHHCI@?5?$LO?I?$KB?$KB?$KB?$KB?$LE?Y?5?$AA@

; 3903 : 		" 检措 ",

  0003d	c7 45 b0 00 00
	00 00		 mov	 DWORD PTR _msg$[ebp+4], OFFSET ??_C@_0L@LOMDAPBP@?5?$MA?O?$LO?n?$LD?$KK?$LE?Y?5?$AA@

; 3904 : 		" る ",

  00044	c7 45 b4 00 00
	00 00		 mov	 DWORD PTR _msg$[ebp+8], OFFSET ??_C@_0L@FNPFLOKG@?5?$LM?U?H?g?$LF?i?$LE?Y?5?$AA@

; 3905 : 		" 瓯枫 ",

  0004b	c7 45 b8 00 00
	00 00		 mov	 DWORD PTR _msg$[ebp+12], OFFSET ??_C@_0L@CPNFDNI@?5?$LA?H?$KB?$KB?$KB?$KB?$LE?Y?5?$AA@

; 3906 : 		" 胳 ",

  00052	c7 45 bc 00 00
	00 00		 mov	 DWORD PTR _msg$[ebp+16], OFFSET ??_C@_0L@LFKBOHAB@?5?$MA?N?$LL?g?G?O?$LE?Y?5?$AA@

; 3907 : 		" 半歆 ",

  00059	c7 45 c0 00 00
	00 00		 mov	 DWORD PTR _msg$[ebp+20], OFFSET ??_C@_0L@BBJFHFFA@?5?$LO?$LC?$LH?$KP?A?v?$LE?Y?5?$AA@

; 3908 : 		" 旮半 ",

  00060	c7 45 c4 00 00
	00 00		 mov	 DWORD PTR _msg$[ebp+24], OFFSET ??_C@_0L@HMKFIAIO@?5?$LB?b?$LL?$LF?G?O?$LE?Y?5?$AA@

; 3909 : 		" 瓿店博 ",

  00067	c7 45 c8 00 00
	00 00		 mov	 DWORD PTR _msg$[ebp+28], OFFSET ??_C@_0L@EPLKDNIL@?5?$LA?x?$LA?$NN?G?O?$LE?Y?5?$AA@

; 3910 : 		" 毳茧措 ",

  0006e	c7 45 cc 00 00
	00 00		 mov	 DWORD PTR _msg$[ebp+32], OFFSET ??_C@_0L@DDIKGKGC@?5?H?$KN?$LI?$KG?$LD?$LL?$LE?Y?5?$AA@

; 3911 : 		" 氚╈错 ",

  00075	c7 45 d0 00 00
	00 00		 mov	 DWORD PTR _msg$[ebp+36], OFFSET ??_C@_0L@FLKMCCFP@?5?$LJ?f?$LO?n?G?O?$LE?Y?5?$AA@

; 3912 : 		" 柬 ",

  0007c	c7 45 d4 00 00
	00 00		 mov	 DWORD PTR _msg$[ebp+40], OFFSET ??_C@_0L@CHKOFNFO@?5?$LN?$LN?F?$NL?G?O?$LE?Y?5?$AA@

; 3913 : 		"般氙搞歆",

  00083	c7 45 d8 00 00
	00 00		 mov	 DWORD PTR _msg$[ebp+44], OFFSET ??_C@_0L@NJDBIKEM@?$LF?$KF?$KB?$KB?$LJ?L?$KB?$KB?A?v?$AA@

; 3914 : 		"歆"

  0008a	c7 45 dc 00 00
	00 00		 mov	 DWORD PTR _msg$[ebp+48], OFFSET ??_C@_0L@GOBFHACF@?$LE?x?$KB?$KB?A?v?$KB?$KB?$LE?Y?$AA@

; 3915 : #ifdef __EMOTION
; 3916 : 		,"  "
; 3917 : 		," 旖§ "
; 3918 : #endif
; 3919 : 	};
; 3920 : 	char *msg2[] =
; 3921 : 	{
; 3922 : 		"毽  § 旆╇. (Ctrl+1)",

  00091	c7 85 70 ff ff
	ff 00 00 00 00	 mov	 DWORD PTR _msg2$[ebp], OFFSET ??_C@_0CI@DLPPPDPB@?A?$KG?$MA?Z?$LI?$KO?$LP?$KB?5?$LO?I?$LE?B?5?$LO?W?$LM?G?$MA?$LL?5?C?k?G?U?$LE?O?$LE?Y?4?5?$CI@

; 3923 : 		"检挫 § 旆╇. (Ctrl+7)",

  0009b	c7 85 74 ff ff
	ff 00 00 00 00	 mov	 DWORD PTR _msg2$[ebp+4], OFFSET ??_C@_0CD@HLCPDIKM@?$MA?O?$LO?n?$LM?$KN?$LE?B?5?$LO?W?$LM?G?$MA?$LL?5?C?k?G?U?$LE?O?$LE?Y?4?5?$CICtrl?$CL@

; 3924 : 		"  § 旆╇. (Ctrl+2)",

  000a5	c7 85 78 ff ff
	ff 00 00 00 00	 mov	 DWORD PTR _msg2$[ebp+8], OFFSET ??_C@_0CG@EHJAFDMH@?$LM?U?$MA?$LL?5?H?g?$LF?e?$LE?B?5?$LO?W?$LM?G?$MA?$LL?5?C?k?G?U?$LE?O?$LE?Y?4?5?$CICt@

; 3925 : 		"瓯冯 § 旆╇. (Ctrl+8)",

  000af	c7 85 7c ff ff
	ff 00 00 00 00	 mov	 DWORD PTR _msg2$[ebp+12], OFFSET ??_C@_0BP@OCLIPLAL@?$LA?H?$LE?B?5?$LO?W?$LM?G?$MA?$LL?5?C?k?G?U?$LE?O?$LE?Y?4?5?$CICtrl?$CL8?$CJ?$AA@

; 3926 : 		"胳 § 旆╇. (Ctrl+3)",

  000b9	c7 45 80 00 00
	00 00		 mov	 DWORD PTR _msg2$[ebp+16], OFFSET ??_C@_0CD@KEHHLNJC@?$MA?N?$LL?g?G?O?$LE?B?5?$LO?W?$LM?G?$MA?$LL?5?C?k?G?U?$LE?O?$LE?Y?4?5?$CICtrl?$CL@

; 3927 : 		"半歆 § 旆╇. (Ctrl+9)",

  000c0	c7 45 84 00 00
	00 00		 mov	 DWORD PTR _msg2$[ebp+20], OFFSET ??_C@_0CD@JMKADJMO@?$LO?$LC?$LH?$KP?A?v?$LE?B?5?$LO?W?$LM?G?$MA?$LL?5?C?k?G?U?$LE?O?$LE?Y?4?5?$CICtrl?$CL@

; 3928 : 		"旮半 § 旆╇. (Ctrl+4)",

  000c7	c7 45 88 00 00
	00 00		 mov	 DWORD PTR _msg2$[ebp+24], OFFSET ??_C@_0CD@CMMPEHFI@?$LB?b?$LL?$LF?G?O?$LE?B?5?$LO?W?$LM?G?$MA?$LL?5?C?k?G?U?$LE?O?$LE?Y?4?5?$CICtrl?$CL@

; 3929 : 		"瓿店博 § 旆╇. (Ctrl+0)",

  000ce	c7 45 8c 00 00
	00 00		 mov	 DWORD PTR _msg2$[ebp+28], OFFSET ??_C@_0CD@OMLIKOJM@?$LA?x?$LA?$NN?G?O?$LE?B?5?$LO?W?$LM?G?$MA?$LL?5?C?k?G?U?$LE?O?$LE?Y?4?5?$CICtrl?$CL@

; 3930 : 		"毳 措 § 旆╇. (Ctrl+5)",

  000d5	c7 45 90 00 00
	00 00		 mov	 DWORD PTR _msg2$[ebp+32], OFFSET ??_C@_0CE@OIDAHAAG@?H?$KN?$LI?$KG?5?$LD?$LL?$LE?B?5?$LO?W?$LM?G?$MA?$LL?5?C?k?G?U?$LE?O?$LE?Y?4?5?$CICtrl@

; 3931 : 		"氚╈错 § 旆╇. (Ctrl+-)",

  000dc	c7 45 94 00 00
	00 00		 mov	 DWORD PTR _msg2$[ebp+36], OFFSET ??_C@_0CD@MIHLAAOD@?$LJ?f?$LO?n?G?O?$LE?B?5?$LO?W?$LM?G?$MA?$LL?5?C?k?G?U?$LE?O?$LE?Y?4?5?$CICtrl?$CL@

; 3932 : 		"柬 § 旆╇. (Ctrl+6)",

  000e3	c7 45 98 00 00
	00 00		 mov	 DWORD PTR _msg2$[ebp+40], OFFSET ??_C@_0CD@NKKFDBOL@?$LN?$LN?F?$NL?G?O?$LE?B?5?$LO?W?$LM?G?$MA?$LL?5?C?k?G?U?$LE?O?$LE?Y?4?5?$CICtrl?$CL@

; 3933 : 		"瓴╈  § 旆╇. (Ctrl+=)",

  000ea	c7 45 9c 00 00
	00 00		 mov	 DWORD PTR _msg2$[ebp+44], OFFSET ??_C@_0CG@FILFJCML@?E?$LI?$LA?$NN?$MA?$LL?5?$MA?T?$LE?B?5?$LO?W?$LM?G?$MA?$LL?5?C?k?G?U?$LE?O?$LE?Y?4?5?$CICt@

; 3934 : 		"歆 § 旆╇. (Ctrl+\\)"

  000f1	c7 45 a0 00 00
	00 00		 mov	 DWORD PTR _msg2$[ebp+48], OFFSET ??_C@_0CB@DPEEFHJC@?$LE?x?A?v?$LE?B?5?$LO?W?$LM?G?$MA?$LL?5?C?k?G?U?$LE?O?$LE?Y?4?5?$CICtrl?$CL?2?$CJ@

; 3935 : #ifdef __EMOTION
; 3936 : 		,""
; 3937 : 		,"旖§"
; 3938 : #endif
; 3939 : 	};
; 3940 : 	int i, j;
; 3941 : 	int x1, y1, x2, y2;
; 3942 : 	int chgTbl[] =
; 3943 : 	{
; 3944 : 	   5,	//  ?  ? 

  000f8	c7 85 ec fe ff
	ff 05 00 00 00	 mov	 DWORD PTR _chgTbl$[ebp], 5

; 3945 : 	   3,	//  ?  ? 

  00102	c7 85 f0 fe ff
	ff 03 00 00 00	 mov	 DWORD PTR _chgTbl$[ebp+4], 3

; 3946 : 	   6,	// ??

  0010c	c7 85 f4 fe ff
	ff 06 00 00 00	 mov	 DWORD PTR _chgTbl$[ebp+8], 6

; 3947 : 	   4,	//    ? 

  00116	c7 85 f8 fe ff
	ff 04 00 00 00	 mov	 DWORD PTR _chgTbl$[ebp+12], 4

; 3948 : 	  11,	// ????

  00120	c7 85 fc fe ff
	ff 0b 00 00 00	 mov	 DWORD PTR _chgTbl$[ebp+16], 11 ; 0000000bH

; 3949 : 	   2,	//  ?? 

  0012a	c7 85 00 ff ff
	ff 02 00 00 00	 mov	 DWORD PTR _chgTbl$[ebp+20], 2

; 3950 : 	   7,	//  ?  ? 

  00134	c7 85 04 ff ff
	ff 07 00 00 00	 mov	 DWORD PTR _chgTbl$[ebp+24], 7

; 3951 : 	   0,	//  ?  ? 

  0013e	c7 85 08 ff ff
	ff 00 00 00 00	 mov	 DWORD PTR _chgTbl$[ebp+28], 0

; 3952 : 	   8,	//    ? 

  00148	c7 85 0c ff ff
	ff 08 00 00 00	 mov	 DWORD PTR _chgTbl$[ebp+32], 8

; 3953 : 	  10,	//  ??? 

  00152	c7 85 10 ff ff
	ff 0a 00 00 00	 mov	 DWORD PTR _chgTbl$[ebp+36], 10 ; 0000000aH

; 3954 : 	   9,	//  ?? 

  0015c	c7 85 14 ff ff
	ff 09 00 00 00	 mov	 DWORD PTR _chgTbl$[ebp+40], 9

; 3955 : 	   1,	// ????

  00166	c7 85 18 ff ff
	ff 01 00 00 00	 mov	 DWORD PTR _chgTbl$[ebp+44], 1

; 3956 : 	  12	// ???

  00170	c7 85 1c ff ff
	ff 0c 00 00 00	 mov	 DWORD PTR _chgTbl$[ebp+48], 12 ; 0000000cH

; 3957 : 	};
; 3958 : #ifdef __EMOTION
; 3959 : 	int emotion[] = { SPR_sleep, SPR_stone};
; 3960 : #endif
; 3961 : 
; 3962 : 	if (charActionAnimeChangeProcNo == 0)

  0017a	0f bf 05 00 00
	00 00		 movsx	 eax, WORD PTR ?charActionAnimeChangeProcNo@@3FA ; charActionAnimeChangeProcNo
  00181	85 c0		 test	 eax, eax
  00183	0f 85 b6 00 00
	00		 jne	 $LN17@charAction

; 3963 : 	{
; 3964 : 		for (i = 0; i < sizeof(btnId) / sizeof(int); i++)

  00189	c7 85 64 ff ff
	ff 00 00 00 00	 mov	 DWORD PTR _i$[ebp], 0
  00193	eb 0f		 jmp	 SHORT $LN4@charAction
$LN2@charAction:
  00195	8b 85 64 ff ff
	ff		 mov	 eax, DWORD PTR _i$[ebp]
  0019b	83 c0 01	 add	 eax, 1
  0019e	89 85 64 ff ff
	ff		 mov	 DWORD PTR _i$[ebp], eax
$LN4@charAction:
  001a4	83 bd 64 ff ff
	ff 0d		 cmp	 DWORD PTR _i$[ebp], 13	; 0000000dH
  001ab	73 13		 jae	 SHORT $LN3@charAction

; 3965 : 			btnId[i] = -2;

  001ad	8b 85 64 ff ff
	ff		 mov	 eax, DWORD PTR _i$[ebp]
  001b3	c7 04 85 00 00
	00 00 fe ff ff
	ff		 mov	 DWORD PTR ?btnId@?1??charActionAnimeChange@@YAHXZ@4PAHA[eax*4], -2 ; fffffffeH
  001be	eb d5		 jmp	 SHORT $LN2@charAction
$LN3@charAction:

; 3966 : 
; 3967 : 		// ??????
; 3968 : 		w = 3;

  001c0	c7 05 00 00 00
	00 03 00 00 00	 mov	 DWORD PTR ?w@?1??charActionAnimeChange@@YAHXZ@4HA, 3

; 3969 : 		h = 6;

  001ca	c7 05 00 00 00
	00 06 00 00 00	 mov	 DWORD PTR ?h@?1??charActionAnimeChange@@YAHXZ@4HA, 6

; 3970 : 		x = 440;

  001d4	c7 05 00 00 00
	00 b8 01 00 00	 mov	 DWORD PTR ?x@?1??charActionAnimeChange@@YAHXZ@4HA, 440 ; 000001b8H

; 3971 : 		y = 16;

  001de	c7 05 00 00 00
	00 10 00 00 00	 mov	 DWORD PTR ?y@?1??charActionAnimeChange@@YAHXZ@4HA, 16 ; 00000010H

; 3972 : 		ptActMenuWin = MakeWindowDisp(x, y, w, h, NULL, 1);

  001e8	6a 01		 push	 1
  001ea	6a 00		 push	 0
  001ec	a1 00 00 00 00	 mov	 eax, DWORD PTR ?h@?1??charActionAnimeChange@@YAHXZ@4HA
  001f1	50		 push	 eax
  001f2	8b 0d 00 00 00
	00		 mov	 ecx, DWORD PTR ?w@?1??charActionAnimeChange@@YAHXZ@4HA
  001f8	51		 push	 ecx
  001f9	8b 15 00 00 00
	00		 mov	 edx, DWORD PTR ?y@?1??charActionAnimeChange@@YAHXZ@4HA
  001ff	52		 push	 edx
  00200	a1 00 00 00 00	 mov	 eax, DWORD PTR ?x@?1??charActionAnimeChange@@YAHXZ@4HA
  00205	50		 push	 eax
  00206	e8 00 00 00 00	 call	 ?MakeWindowDisp@@YAPAUaction@@HHHHHH@Z ; MakeWindowDisp
  0020b	83 c4 18	 add	 esp, 24			; 00000018H
  0020e	a3 00 00 00 00	 mov	 DWORD PTR ?ptActMenuWin@?1??charActionAnimeChange@@YAHXZ@4PAUaction@@A, eax

; 3973 : #ifdef _NEW_RESOMODE  //800 600妯″
; 3974 : 		x = ptActMenuWin->x;

  00213	a1 00 00 00 00	 mov	 eax, DWORD PTR ?ptActMenuWin@?1??charActionAnimeChange@@YAHXZ@4PAUaction@@A
  00218	8b 48 18	 mov	 ecx, DWORD PTR [eax+24]
  0021b	89 0d 00 00 00
	00		 mov	 DWORD PTR ?x@?1??charActionAnimeChange@@YAHXZ@4HA, ecx

; 3975 : 		y = ptActMenuWin->y;

  00221	a1 00 00 00 00	 mov	 eax, DWORD PTR ?ptActMenuWin@?1??charActionAnimeChange@@YAHXZ@4PAUaction@@A
  00226	8b 48 1c	 mov	 ecx, DWORD PTR [eax+28]
  00229	89 0d 00 00 00
	00		 mov	 DWORD PTR ?y@?1??charActionAnimeChange@@YAHXZ@4HA, ecx

; 3976 : #endif
; 3977 : 		charActionAnimeChangeProcNo++;

  0022f	66 a1 00 00 00
	00		 mov	 ax, WORD PTR ?charActionAnimeChangeProcNo@@3FA ; charActionAnimeChangeProcNo
  00235	66 83 c0 01	 add	 ax, 1
  00239	66 a3 00 00 00
	00		 mov	 WORD PTR ?charActionAnimeChangeProcNo@@3FA, ax ; charActionAnimeChangeProcNo
$LN17@charAction:

; 3978 : 	}
; 3979 : 
; 3980 : 	if (ptActMenuWin != NULL)

  0023f	83 3d 00 00 00
	00 00		 cmp	 DWORD PTR ?ptActMenuWin@?1??charActionAnimeChange@@YAHXZ@4PAUaction@@A, 0
  00246	0f 84 53 05 00
	00		 je	 $LN18@charAction

; 3981 : 	{
; 3982 : 		id = -1;

  0024c	c7 45 f4 ff ff
	ff ff		 mov	 DWORD PTR _id$[ebp], -1

; 3983 : 		focusId = -1;

  00253	c7 45 e8 ff ff
	ff ff		 mov	 DWORD PTR _focusId$[ebp], -1

; 3984 : 		if (ptActMenuWin->hp >= 1)

  0025a	a1 00 00 00 00	 mov	 eax, DWORD PTR ?ptActMenuWin@?1??charActionAnimeChange@@YAHXZ@4PAUaction@@A
  0025f	83 78 78 01	 cmp	 DWORD PTR [eax+120], 1
  00263	0f 8c d5 01 00
	00		 jl	 $LN19@charAction

; 3985 : 		{
; 3986 : 			// ????鳖额
; 3987 : 			id = selGraId(btnId, sizeof(btnId) / sizeof(int));

  00269	6a 0d		 push	 13			; 0000000dH
  0026b	68 00 00 00 00	 push	 OFFSET ?btnId@?1??charActionAnimeChange@@YAHXZ@4PAHA
  00270	e8 00 00 00 00	 call	 ?selGraId@@YAHPAHH@Z	; selGraId
  00275	83 c4 08	 add	 esp, 8
  00278	89 45 f4	 mov	 DWORD PTR _id$[ebp], eax

; 3988 : 			focusId = focusGraId(btnId, sizeof(btnId) / sizeof(int));

  0027b	6a 0d		 push	 13			; 0000000dH
  0027d	68 00 00 00 00	 push	 OFFSET ?btnId@?1??charActionAnimeChange@@YAHXZ@4PAHA
  00282	e8 00 00 00 00	 call	 ?focusGraId@@YAHPAHH@Z	; focusGraId
  00287	83 c4 08	 add	 esp, 8
  0028a	89 45 e8	 mov	 DWORD PTR _focusId$[ebp], eax

; 3989 : 
; 3990 : #ifdef __EMOTION
; 3991 : 			for (i = 0; i < 7; i++)
; 3992 : #else
; 3993 : 			for (i = 0; i < 6; i++)

  0028d	c7 85 64 ff ff
	ff 00 00 00 00	 mov	 DWORD PTR _i$[ebp], 0
  00297	eb 0f		 jmp	 SHORT $LN7@charAction
$LN5@charAction:
  00299	8b 85 64 ff ff
	ff		 mov	 eax, DWORD PTR _i$[ebp]
  0029f	83 c0 01	 add	 eax, 1
  002a2	89 85 64 ff ff
	ff		 mov	 DWORD PTR _i$[ebp], eax
$LN7@charAction:
  002a8	83 bd 64 ff ff
	ff 06		 cmp	 DWORD PTR _i$[ebp], 6
  002af	0f 8d d8 00 00
	00		 jge	 $LN6@charAction

; 3994 : #endif
; 3995 : 			{
; 3996 : 				for (j = 0; j < 2; j++)

  002b5	c7 85 58 ff ff
	ff 00 00 00 00	 mov	 DWORD PTR _j$[ebp], 0
  002bf	eb 0f		 jmp	 SHORT $LN10@charAction
$LN8@charAction:
  002c1	8b 85 58 ff ff
	ff		 mov	 eax, DWORD PTR _j$[ebp]
  002c7	83 c0 01	 add	 eax, 1
  002ca	89 85 58 ff ff
	ff		 mov	 DWORD PTR _j$[ebp], eax
$LN10@charAction:
  002d0	83 bd 58 ff ff
	ff 02		 cmp	 DWORD PTR _j$[ebp], 2
  002d7	0f 8d ab 00 00
	00		 jge	 $LN9@charAction

; 3997 : 				{
; 3998 : 					x1 = x + 84 * j + 18;

  002dd	6b 85 58 ff ff
	ff 54		 imul	 eax, DWORD PTR _j$[ebp], 84
  002e4	8b 0d 00 00 00
	00		 mov	 ecx, DWORD PTR ?x@?1??charActionAnimeChange@@YAHXZ@4HA
  002ea	8d 54 01 12	 lea	 edx, DWORD PTR [ecx+eax+18]
  002ee	89 95 4c ff ff
	ff		 mov	 DWORD PTR _x1$[ebp], edx

; 3999 : 					y1 = y + i * 30 + 21;

  002f4	6b 85 64 ff ff
	ff 1e		 imul	 eax, DWORD PTR _i$[ebp], 30
  002fb	8b 0d 00 00 00
	00		 mov	 ecx, DWORD PTR ?y@?1??charActionAnimeChange@@YAHXZ@4HA
  00301	8d 54 01 15	 lea	 edx, DWORD PTR [ecx+eax+21]
  00305	89 95 40 ff ff
	ff		 mov	 DWORD PTR _y1$[ebp], edx

; 4000 : 					x2 = x1 + 73;

  0030b	8b 85 4c ff ff
	ff		 mov	 eax, DWORD PTR _x1$[ebp]
  00311	83 c0 49	 add	 eax, 73			; 00000049H
  00314	89 85 34 ff ff
	ff		 mov	 DWORD PTR _x2$[ebp], eax

; 4001 : 					y2 = y1 + 22;

  0031a	8b 85 40 ff ff
	ff		 mov	 eax, DWORD PTR _y1$[ebp]
  00320	83 c0 16	 add	 eax, 22			; 00000016H
  00323	89 85 28 ff ff
	ff		 mov	 DWORD PTR _y2$[ebp], eax

; 4002 : 					if (MakeHitBox(x1, y1, x2, y2, DISP_PRIO_BOX2))

  00329	6a 6b		 push	 107			; 0000006bH
  0032b	8b 85 28 ff ff
	ff		 mov	 eax, DWORD PTR _y2$[ebp]
  00331	50		 push	 eax
  00332	8b 8d 34 ff ff
	ff		 mov	 ecx, DWORD PTR _x2$[ebp]
  00338	51		 push	 ecx
  00339	8b 95 40 ff ff
	ff		 mov	 edx, DWORD PTR _y1$[ebp]
  0033f	52		 push	 edx
  00340	8b 85 4c ff ff
	ff		 mov	 eax, DWORD PTR _x1$[ebp]
  00346	50		 push	 eax
  00347	e8 00 00 00 00	 call	 ?MakeHitBox@@YAHHHHHH@Z	; MakeHitBox
  0034c	83 c4 14	 add	 esp, 20			; 00000014H
  0034f	85 c0		 test	 eax, eax
  00351	74 30		 je	 SHORT $LN20@charAction

; 4003 : 					{
; 4004 : 						if (mouse.onceState & MOUSE_LEFT_CRICK)

  00353	a1 2c 00 00 00	 mov	 eax, DWORD PTR ?mouse@@3UMOUSE@@A+44
  00358	83 e0 01	 and	 eax, 1
  0035b	74 13		 je	 SHORT $LN21@charAction

; 4005 : 							id = i * 2 + j + 1;

  0035d	8b 85 64 ff ff
	ff		 mov	 eax, DWORD PTR _i$[ebp]
  00363	8b 8d 58 ff ff
	ff		 mov	 ecx, DWORD PTR _j$[ebp]
  00369	8d 54 41 01	 lea	 edx, DWORD PTR [ecx+eax*2+1]
  0036d	89 55 f4	 mov	 DWORD PTR _id$[ebp], edx
$LN21@charAction:

; 4006 : 						focusId = i * 2 + j + 1;

  00370	8b 85 64 ff ff
	ff		 mov	 eax, DWORD PTR _i$[ebp]
  00376	8b 8d 58 ff ff
	ff		 mov	 ecx, DWORD PTR _j$[ebp]
  0037c	8d 54 41 01	 lea	 edx, DWORD PTR [ecx+eax*2+1]
  00380	89 55 e8	 mov	 DWORD PTR _focusId$[ebp], edx
$LN20@charAction:

; 4007 : 					}
; 4008 : 				}

  00383	e9 39 ff ff ff	 jmp	 $LN8@charAction
$LN9@charAction:

; 4009 : 			}

  00388	e9 0c ff ff ff	 jmp	 $LN5@charAction
$LN6@charAction:

; 4010 : 
; 4011 : #ifdef __EMOTION
; 4012 : 			i = 7;
; 4013 : #else
; 4014 : 			i = 6;

  0038d	c7 85 64 ff ff
	ff 06 00 00 00	 mov	 DWORD PTR _i$[ebp], 6

; 4015 : #endif
; 4016 : 			j = 0;

  00397	c7 85 58 ff ff
	ff 00 00 00 00	 mov	 DWORD PTR _j$[ebp], 0

; 4017 : 			x1 = x + 42 + 18;

  003a1	a1 00 00 00 00	 mov	 eax, DWORD PTR ?x@?1??charActionAnimeChange@@YAHXZ@4HA
  003a6	83 c0 3c	 add	 eax, 60			; 0000003cH
  003a9	89 85 4c ff ff
	ff		 mov	 DWORD PTR _x1$[ebp], eax

; 4018 : 			y1 = y + i * 30 + 21;

  003af	6b 85 64 ff ff
	ff 1e		 imul	 eax, DWORD PTR _i$[ebp], 30
  003b6	8b 0d 00 00 00
	00		 mov	 ecx, DWORD PTR ?y@?1??charActionAnimeChange@@YAHXZ@4HA
  003bc	8d 54 01 15	 lea	 edx, DWORD PTR [ecx+eax+21]
  003c0	89 95 40 ff ff
	ff		 mov	 DWORD PTR _y1$[ebp], edx

; 4019 : 			x2 = x1 + 73;

  003c6	8b 85 4c ff ff
	ff		 mov	 eax, DWORD PTR _x1$[ebp]
  003cc	83 c0 49	 add	 eax, 73			; 00000049H
  003cf	89 85 34 ff ff
	ff		 mov	 DWORD PTR _x2$[ebp], eax

; 4020 : 			y2 = y1 + 22;

  003d5	8b 85 40 ff ff
	ff		 mov	 eax, DWORD PTR _y1$[ebp]
  003db	83 c0 16	 add	 eax, 22			; 00000016H
  003de	89 85 28 ff ff
	ff		 mov	 DWORD PTR _y2$[ebp], eax

; 4021 : 			if (MakeHitBox(x1, y1, x2, y2, DISP_PRIO_BOX2))

  003e4	6a 6b		 push	 107			; 0000006bH
  003e6	8b 85 28 ff ff
	ff		 mov	 eax, DWORD PTR _y2$[ebp]
  003ec	50		 push	 eax
  003ed	8b 8d 34 ff ff
	ff		 mov	 ecx, DWORD PTR _x2$[ebp]
  003f3	51		 push	 ecx
  003f4	8b 95 40 ff ff
	ff		 mov	 edx, DWORD PTR _y1$[ebp]
  003fa	52		 push	 edx
  003fb	8b 85 4c ff ff
	ff		 mov	 eax, DWORD PTR _x1$[ebp]
  00401	50		 push	 eax
  00402	e8 00 00 00 00	 call	 ?MakeHitBox@@YAHHHHHH@Z	; MakeHitBox
  00407	83 c4 14	 add	 esp, 20			; 00000014H
  0040a	85 c0		 test	 eax, eax
  0040c	74 30		 je	 SHORT $LN19@charAction

; 4022 : 			{
; 4023 : 				if (mouse.onceState & MOUSE_LEFT_CRICK)

  0040e	a1 2c 00 00 00	 mov	 eax, DWORD PTR ?mouse@@3UMOUSE@@A+44
  00413	83 e0 01	 and	 eax, 1
  00416	74 13		 je	 SHORT $LN23@charAction

; 4024 : 					id = i * 2 + j + 1;

  00418	8b 85 64 ff ff
	ff		 mov	 eax, DWORD PTR _i$[ebp]
  0041e	8b 8d 58 ff ff
	ff		 mov	 ecx, DWORD PTR _j$[ebp]
  00424	8d 54 41 01	 lea	 edx, DWORD PTR [ecx+eax*2+1]
  00428	89 55 f4	 mov	 DWORD PTR _id$[ebp], edx
$LN23@charAction:

; 4025 : 				focusId = i * 2 + j + 1;

  0042b	8b 85 64 ff ff
	ff		 mov	 eax, DWORD PTR _i$[ebp]
  00431	8b 8d 58 ff ff
	ff		 mov	 ecx, DWORD PTR _j$[ebp]
  00437	8d 54 41 01	 lea	 edx, DWORD PTR [ecx+eax*2+1]
  0043b	89 55 e8	 mov	 DWORD PTR _focusId$[ebp], edx
$LN19@charAction:

; 4026 : 			}
; 4027 : 		}
; 4028 : 
; 4029 : 		// ?????????????????????
; 4030 : 		if (CheckMenuFlag())

  0043e	e8 00 00 00 00	 call	 ?CheckMenuFlag@@YAHXZ	; CheckMenuFlag
  00443	85 c0		 test	 eax, eax
  00445	74 09		 je	 SHORT $LN24@charAction

; 4031 : 			id = 100;

  00447	c7 45 f4 64 00
	00 00		 mov	 DWORD PTR _id$[ebp], 100 ; 00000064H
  0044e	eb 54		 jmp	 SHORT $LN25@charAction
$LN24@charAction:

; 4032 : 		else if ((joy_trg[0] & JOY_ESC) && GetImeString() == NULL)	// ESC????????

  00450	b8 04 00 00 00	 mov	 eax, 4
  00455	6b c8 00	 imul	 ecx, eax, 0
  00458	8b 91 00 00 00
	00		 mov	 edx, DWORD PTR ?joy_trg@@3PAKA[ecx]
  0045e	81 e2 00 00 00
	80		 and	 edx, -2147483648	; 80000000H
  00464	74 29		 je	 SHORT $LN26@charAction
  00466	e8 00 00 00 00	 call	 ?GetImeString@@YAPADXZ	; GetImeString
  0046b	85 c0		 test	 eax, eax
  0046d	75 20		 jne	 SHORT $LN26@charAction

; 4033 : 		{
; 4034 : 			id = 100;

  0046f	c7 45 f4 64 00
	00 00		 mov	 DWORD PTR _id$[ebp], 100 ; 00000064H

; 4035 : 			play_se(203, 320, 240);	// ????????

  00476	68 f0 00 00 00	 push	 240			; 000000f0H
  0047b	68 40 01 00 00	 push	 320			; 00000140H
  00480	68 cb 00 00 00	 push	 203			; 000000cbH
  00485	e8 00 00 00 00	 call	 ?play_se@@YAHHHH@Z	; play_se
  0048a	83 c4 0c	 add	 esp, 12			; 0000000cH
  0048d	eb 15		 jmp	 SHORT $LN25@charAction
$LN26@charAction:

; 4036 : 		}
; 4037 : 		else if (charActionAnimeChangeProcNo == 1000)	// ???????????

  0048f	0f bf 05 00 00
	00 00		 movsx	 eax, WORD PTR ?charActionAnimeChangeProcNo@@3FA ; charActionAnimeChangeProcNo
  00496	3d e8 03 00 00	 cmp	 eax, 1000		; 000003e8H
  0049b	75 07		 jne	 SHORT $LN25@charAction

; 4038 : 			id = 100;

  0049d	c7 45 f4 64 00
	00 00		 mov	 DWORD PTR _id$[ebp], 100 ; 00000064H
$LN25@charAction:

; 4039 : 
; 4040 : 		// ?????
; 4041 : 		if (id == 0)

  004a4	83 7d f4 00	 cmp	 DWORD PTR _id$[ebp], 0
  004a8	75 1c		 jne	 SHORT $LN29@charAction

; 4042 : 			play_se(203, 320, 240);	// ????????

  004aa	68 f0 00 00 00	 push	 240			; 000000f0H
  004af	68 40 01 00 00	 push	 320			; 00000140H
  004b4	68 cb 00 00 00	 push	 203			; 000000cbH
  004b9	e8 00 00 00 00	 call	 ?play_se@@YAHHHH@Z	; play_se
  004be	83 c4 0c	 add	 esp, 12			; 0000000cH
  004c1	e9 f3 00 00 00	 jmp	 $LN30@charAction
$LN29@charAction:

; 4043 : 		else if (1 <= id && id <= 13)

  004c6	83 7d f4 01	 cmp	 DWORD PTR _id$[ebp], 1
  004ca	0f 8c e9 00 00
	00		 jl	 $LN30@charAction
  004d0	83 7d f4 0d	 cmp	 DWORD PTR _id$[ebp], 13	; 0000000dH
  004d4	0f 8f df 00 00
	00		 jg	 $LN30@charAction

; 4044 : 		{
; 4045 : 			id--;

  004da	8b 45 f4	 mov	 eax, DWORD PTR _id$[ebp]
  004dd	83 e8 01	 sub	 eax, 1
  004e0	89 45 f4	 mov	 DWORD PTR _id$[ebp], eax

; 4046 : 			if (eventWarpSendFlag == 0 && eventEnemySendFlag == 0 && sendEnFlag == 0)

  004e3	0f bf 05 00 00
	00 00		 movsx	 eax, WORD PTR ?eventWarpSendFlag@@3FA ; eventWarpSendFlag
  004ea	85 c0		 test	 eax, eax
  004ec	0f 85 a9 00 00
	00		 jne	 $LN32@charAction
  004f2	0f bf 05 00 00
	00 00		 movsx	 eax, WORD PTR ?eventEnemySendFlag@@3FA ; eventEnemySendFlag
  004f9	85 c0		 test	 eax, eax
  004fb	0f 85 9a 00 00
	00		 jne	 $LN32@charAction
  00501	0f bf 05 00 00
	00 00		 movsx	 eax, WORD PTR ?sendEnFlag@@3FA ; sendEnFlag
  00508	85 c0		 test	 eax, eax
  0050a	0f 85 8b 00 00
	00		 jne	 $LN32@charAction

; 4047 : 			{
; 4048 : 				if (fieldBtnPushTime + FIELD_BTN_PUSH_WAIT < TimeGetTime())// ??

  00510	8b 35 00 00 00
	00		 mov	 esi, DWORD PTR ?fieldBtnPushTime@@3IA ; fieldBtnPushTime
  00516	81 c6 f4 01 00
	00		 add	 esi, 500		; 000001f4H
  0051c	e8 00 00 00 00	 call	 ?TimeGetTime@@YAIXZ	; TimeGetTime
  00521	3b f0		 cmp	 esi, eax
  00523	73 76		 jae	 SHORT $LN32@charAction

; 4049 : 				{
; 4050 : 					if (bNewServer)

  00525	83 3d 00 00 00
	00 00		 cmp	 DWORD PTR ?bNewServer@@3HA, 0 ; bNewServer
  0052c	74 29		 je	 SHORT $LN34@charAction

; 4051 : 						lssproto_AC_send(sockfd, nowGx, nowGy, chgTbl[id]);

  0052e	8b 45 f4	 mov	 eax, DWORD PTR _id$[ebp]
  00531	8b 8c 85 ec fe
	ff ff		 mov	 ecx, DWORD PTR _chgTbl$[ebp+eax*4]
  00538	51		 push	 ecx
  00539	8b 15 00 00 00
	00		 mov	 edx, DWORD PTR ?nowGy@@3HA ; nowGy
  0053f	52		 push	 edx
  00540	a1 00 00 00 00	 mov	 eax, DWORD PTR ?nowGx@@3HA ; nowGx
  00545	50		 push	 eax
  00546	8b 0d 00 00 00
	00		 mov	 ecx, DWORD PTR ?sockfd@@3IA ; sockfd
  0054c	51		 push	 ecx
  0054d	e8 00 00 00 00	 call	 ?lssproto_AC_send@@YAXHHHH@Z ; lssproto_AC_send
  00552	83 c4 10	 add	 esp, 16			; 00000010H

; 4052 : 					else

  00555	eb 27		 jmp	 SHORT $LN35@charAction
$LN34@charAction:

; 4053 : 						old_lssproto_AC_send(sockfd, nowGx, nowGy, chgTbl[id]);

  00557	8b 45 f4	 mov	 eax, DWORD PTR _id$[ebp]
  0055a	8b 8c 85 ec fe
	ff ff		 mov	 ecx, DWORD PTR _chgTbl$[ebp+eax*4]
  00561	51		 push	 ecx
  00562	8b 15 00 00 00
	00		 mov	 edx, DWORD PTR ?nowGy@@3HA ; nowGy
  00568	52		 push	 edx
  00569	a1 00 00 00 00	 mov	 eax, DWORD PTR ?nowGx@@3HA ; nowGx
  0056e	50		 push	 eax
  0056f	8b 0d 00 00 00
	00		 mov	 ecx, DWORD PTR ?sockfd@@3IA ; sockfd
  00575	51		 push	 ecx
  00576	e8 00 00 00 00	 call	 ?old_lssproto_AC_send@@YAXHHHH@Z ; old_lssproto_AC_send
  0057b	83 c4 10	 add	 esp, 16			; 00000010H
$LN35@charAction:

; 4054 : 					setPcAction(chgTbl[id]);

  0057e	8b 45 f4	 mov	 eax, DWORD PTR _id$[ebp]
  00581	8b 8c 85 ec fe
	ff ff		 mov	 ecx, DWORD PTR _chgTbl$[ebp+eax*4]
  00588	51		 push	 ecx
  00589	e8 00 00 00 00	 call	 ?setPcAction@@YAXH@Z	; setPcAction
  0058e	83 c4 04	 add	 esp, 4

; 4055 : 					fieldBtnPushTime = TimeGetTime();

  00591	e8 00 00 00 00	 call	 ?TimeGetTime@@YAIXZ	; TimeGetTime
  00596	a3 00 00 00 00	 mov	 DWORD PTR ?fieldBtnPushTime@@3IA, eax ; fieldBtnPushTime
$LN32@charAction:

; 4056 : 				}
; 4057 : 			}
; 4058 : 			// ?????????????????????????
; 4059 : 			id = -1;

  0059b	c7 45 f4 ff ff
	ff ff		 mov	 DWORD PTR _id$[ebp], -1

; 4060 : 			play_se(217, 320, 240);	// ?????

  005a2	68 f0 00 00 00	 push	 240			; 000000f0H
  005a7	68 40 01 00 00	 push	 320			; 00000140H
  005ac	68 d9 00 00 00	 push	 217			; 000000d9H
  005b1	e8 00 00 00 00	 call	 ?play_se@@YAHHHH@Z	; play_se
  005b6	83 c4 0c	 add	 esp, 12			; 0000000cH
$LN30@charAction:

; 4061 : 		}
; 4062 : #ifdef __EMOTION
; 4063 : 		if (14 <= id && id <= 15)
; 4064 : 		{
; 4065 : 			id -= 14;
; 4066 : 			setPcEmotion(emotion[id]);
; 4067 : 			id = -1;
; 4068 : 			play_se(217, 320, 240);	// ?????
; 4069 : 		}
; 4070 : #endif
; 4071 : 		if (id >= 0)

  005b9	83 7d f4 00	 cmp	 DWORD PTR _id$[ebp], 0
  005bd	7c 22		 jl	 SHORT $LN36@charAction

; 4072 : 		{
; 4073 : 			DeathAction(ptActMenuWin);

  005bf	a1 00 00 00 00	 mov	 eax, DWORD PTR ?ptActMenuWin@?1??charActionAnimeChange@@YAHXZ@4PAUaction@@A
  005c4	50		 push	 eax
  005c5	e8 00 00 00 00	 call	 ?DeathAction@@YAXPAUaction@@@Z ; DeathAction
  005ca	83 c4 04	 add	 esp, 4

; 4074 : 			ptActMenuWin = NULL;

  005cd	c7 05 00 00 00
	00 00 00 00 00	 mov	 DWORD PTR ?ptActMenuWin@?1??charActionAnimeChange@@YAHXZ@4PAUaction@@A, 0

; 4075 : 			return 1;

  005d7	b8 01 00 00 00	 mov	 eax, 1
  005dc	e9 c0 01 00 00	 jmp	 $LN1@charAction
$LN36@charAction:

; 4076 : 		}
; 4077 : 		if (ptActMenuWin->hp >= 1)

  005e1	a1 00 00 00 00	 mov	 eax, DWORD PTR ?ptActMenuWin@?1??charActionAnimeChange@@YAHXZ@4PAUaction@@A
  005e6	83 78 78 01	 cmp	 DWORD PTR [eax+120], 1
  005ea	0f 8c af 01 00
	00		 jl	 $LN18@charAction

; 4078 : 		{
; 4079 : 			btnId[0] = StockDispBuffer(x + 96, y + 258, DISP_PRIO_MENU, CG_CLOSE_BTN, 2);

  005f0	6a 02		 push	 2
  005f2	68 ba 65 00 00	 push	 26042			; 000065baH
  005f7	6a 68		 push	 104			; 00000068H
  005f9	a1 00 00 00 00	 mov	 eax, DWORD PTR ?y@?1??charActionAnimeChange@@YAHXZ@4HA
  005fe	05 02 01 00 00	 add	 eax, 258		; 00000102H
  00603	50		 push	 eax
  00604	8b 0d 00 00 00
	00		 mov	 ecx, DWORD PTR ?x@?1??charActionAnimeChange@@YAHXZ@4HA
  0060a	83 c1 60	 add	 ecx, 96			; 00000060H
  0060d	51		 push	 ecx
  0060e	e8 00 00 00 00	 call	 ?StockDispBuffer@@YAHHHEHH@Z ; StockDispBuffer
  00613	83 c4 14	 add	 esp, 20			; 00000014H
  00616	ba 04 00 00 00	 mov	 edx, 4
  0061b	6b ca 00	 imul	 ecx, edx, 0
  0061e	89 81 00 00 00
	00		 mov	 DWORD PTR ?btnId@?1??charActionAnimeChange@@YAHXZ@4PAHA[ecx], eax

; 4080 : 			if (focusId == 0)

  00624	83 7d e8 00	 cmp	 DWORD PTR _focusId$[ebp], 0
  00628	75 0f		 jne	 SHORT $LN38@charAction

; 4081 : 				ShowBottomLineString(FONT_PAL_WHITE, "彀诫旮");

  0062a	68 00 00 00 00	 push	 OFFSET ??_C@_0L@NHKEOPKL@?$MA?$NL?$LO?w?C?$KC?$LE?$NN?$LB?b?$AA@
  0062f	6a 00		 push	 0
  00631	e8 00 00 00 00	 call	 ?ShowBottomLineString@@YAXHPAD@Z ; ShowBottomLineString
  00636	83 c4 08	 add	 esp, 8
$LN38@charAction:

; 4082 : #ifdef __EMOTION
; 4083 : 			for (i = 0; i < 7; i++)
; 4084 : #else
; 4085 : 			for (i = 0; i < 6; i++)

  00639	c7 85 64 ff ff
	ff 00 00 00 00	 mov	 DWORD PTR _i$[ebp], 0
  00643	eb 0f		 jmp	 SHORT $LN13@charAction
$LN11@charAction:
  00645	8b 85 64 ff ff
	ff		 mov	 eax, DWORD PTR _i$[ebp]
  0064b	83 c0 01	 add	 eax, 1
  0064e	89 85 64 ff ff
	ff		 mov	 DWORD PTR _i$[ebp], eax
$LN13@charAction:
  00654	83 bd 64 ff ff
	ff 06		 cmp	 DWORD PTR _i$[ebp], 6
  0065b	0f 8d b2 00 00
	00		 jge	 $LN12@charAction

; 4086 : #endif
; 4087 : 			{
; 4088 : 				for (j = 0; j < 2; j++)

  00661	c7 85 58 ff ff
	ff 00 00 00 00	 mov	 DWORD PTR _j$[ebp], 0
  0066b	eb 0f		 jmp	 SHORT $LN16@charAction
$LN14@charAction:
  0066d	8b 85 58 ff ff
	ff		 mov	 eax, DWORD PTR _j$[ebp]
  00673	83 c0 01	 add	 eax, 1
  00676	89 85 58 ff ff
	ff		 mov	 DWORD PTR _j$[ebp], eax
$LN16@charAction:
  0067c	83 bd 58 ff ff
	ff 02		 cmp	 DWORD PTR _j$[ebp], 2
  00683	0f 8d 85 00 00
	00		 jge	 $LN15@charAction

; 4089 : 				{
; 4090 : 					StockFontBuffer(x + 84 * j + 20, y + i * 30 + 24, FONT_PRIO_FRONT, FONT_PAL_WHITE, msg[i * 2 + j], 0);

  00689	6a 00		 push	 0
  0068b	8b 85 64 ff ff
	ff		 mov	 eax, DWORD PTR _i$[ebp]
  00691	8b 8d 58 ff ff
	ff		 mov	 ecx, DWORD PTR _j$[ebp]
  00697	8d 14 41	 lea	 edx, DWORD PTR [ecx+eax*2]
  0069a	8b 44 95 ac	 mov	 eax, DWORD PTR _msg$[ebp+edx*4]
  0069e	50		 push	 eax
  0069f	6a 00		 push	 0
  006a1	6a 01		 push	 1
  006a3	6b 8d 64 ff ff
	ff 1e		 imul	 ecx, DWORD PTR _i$[ebp], 30
  006aa	8b 15 00 00 00
	00		 mov	 edx, DWORD PTR ?y@?1??charActionAnimeChange@@YAHXZ@4HA
  006b0	8d 44 0a 18	 lea	 eax, DWORD PTR [edx+ecx+24]
  006b4	50		 push	 eax
  006b5	6b 8d 58 ff ff
	ff 54		 imul	 ecx, DWORD PTR _j$[ebp], 84
  006bc	8b 15 00 00 00
	00		 mov	 edx, DWORD PTR ?x@?1??charActionAnimeChange@@YAHXZ@4HA
  006c2	8d 44 0a 14	 lea	 eax, DWORD PTR [edx+ecx+20]
  006c6	50		 push	 eax
  006c7	e8 00 00 00 00	 call	 ?StockFontBuffer@@YAHHHDHPADH@Z ; StockFontBuffer
  006cc	83 c4 18	 add	 esp, 24			; 00000018H

; 4091 : 					if ((i * 2 + j) == (focusId - 1))

  006cf	8b 85 64 ff ff
	ff		 mov	 eax, DWORD PTR _i$[ebp]
  006d5	8b 8d 58 ff ff
	ff		 mov	 ecx, DWORD PTR _j$[ebp]
  006db	8d 14 41	 lea	 edx, DWORD PTR [ecx+eax*2]
  006de	8b 45 e8	 mov	 eax, DWORD PTR _focusId$[ebp]
  006e1	83 e8 01	 sub	 eax, 1
  006e4	3b d0		 cmp	 edx, eax
  006e6	75 21		 jne	 SHORT $LN39@charAction

; 4092 : 						ShowBottomLineString(FONT_PAL_WHITE, msg2[i * 2 + j]);

  006e8	8b 85 64 ff ff
	ff		 mov	 eax, DWORD PTR _i$[ebp]
  006ee	8b 8d 58 ff ff
	ff		 mov	 ecx, DWORD PTR _j$[ebp]
  006f4	8d 14 41	 lea	 edx, DWORD PTR [ecx+eax*2]
  006f7	8b 84 95 70 ff
	ff ff		 mov	 eax, DWORD PTR _msg2$[ebp+edx*4]
  006fe	50		 push	 eax
  006ff	6a 00		 push	 0
  00701	e8 00 00 00 00	 call	 ?ShowBottomLineString@@YAXHPAD@Z ; ShowBottomLineString
  00706	83 c4 08	 add	 esp, 8
$LN39@charAction:

; 4093 : 				}

  00709	e9 5f ff ff ff	 jmp	 $LN14@charAction
$LN15@charAction:

; 4094 : 			}

  0070e	e9 32 ff ff ff	 jmp	 $LN11@charAction
$LN12@charAction:

; 4095 : #ifdef __EMOTION
; 4096 : 			i = 7;
; 4097 : #else
; 4098 : 			i = 6;

  00713	c7 85 64 ff ff
	ff 06 00 00 00	 mov	 DWORD PTR _i$[ebp], 6

; 4099 : #endif
; 4100 : 			j = 0;

  0071d	c7 85 58 ff ff
	ff 00 00 00 00	 mov	 DWORD PTR _j$[ebp], 0

; 4101 : 			StockFontBuffer(x + 42 + 20, y + i * 30 + 24, FONT_PRIO_FRONT, FONT_PAL_WHITE, msg[i * 2 + j], 0);

  00727	6a 00		 push	 0
  00729	8b 85 64 ff ff
	ff		 mov	 eax, DWORD PTR _i$[ebp]
  0072f	8b 8d 58 ff ff
	ff		 mov	 ecx, DWORD PTR _j$[ebp]
  00735	8d 14 41	 lea	 edx, DWORD PTR [ecx+eax*2]
  00738	8b 44 95 ac	 mov	 eax, DWORD PTR _msg$[ebp+edx*4]
  0073c	50		 push	 eax
  0073d	6a 00		 push	 0
  0073f	6a 01		 push	 1
  00741	6b 8d 64 ff ff
	ff 1e		 imul	 ecx, DWORD PTR _i$[ebp], 30
  00748	8b 15 00 00 00
	00		 mov	 edx, DWORD PTR ?y@?1??charActionAnimeChange@@YAHXZ@4HA
  0074e	8d 44 0a 18	 lea	 eax, DWORD PTR [edx+ecx+24]
  00752	50		 push	 eax
  00753	8b 0d 00 00 00
	00		 mov	 ecx, DWORD PTR ?x@?1??charActionAnimeChange@@YAHXZ@4HA
  00759	83 c1 3e	 add	 ecx, 62			; 0000003eH
  0075c	51		 push	 ecx
  0075d	e8 00 00 00 00	 call	 ?StockFontBuffer@@YAHHHDHPADH@Z ; StockFontBuffer
  00762	83 c4 18	 add	 esp, 24			; 00000018H

; 4102 : 			if ((i * 2 + j) == (focusId - 1))

  00765	8b 85 64 ff ff
	ff		 mov	 eax, DWORD PTR _i$[ebp]
  0076b	8b 8d 58 ff ff
	ff		 mov	 ecx, DWORD PTR _j$[ebp]
  00771	8d 14 41	 lea	 edx, DWORD PTR [ecx+eax*2]
  00774	8b 45 e8	 mov	 eax, DWORD PTR _focusId$[ebp]
  00777	83 e8 01	 sub	 eax, 1
  0077a	3b d0		 cmp	 edx, eax
  0077c	75 21		 jne	 SHORT $LN18@charAction

; 4103 : 				ShowBottomLineString(FONT_PAL_WHITE, msg2[i * 2 + j]);

  0077e	8b 85 64 ff ff
	ff		 mov	 eax, DWORD PTR _i$[ebp]
  00784	8b 8d 58 ff ff
	ff		 mov	 ecx, DWORD PTR _j$[ebp]
  0078a	8d 14 41	 lea	 edx, DWORD PTR [ecx+eax*2]
  0078d	8b 84 95 70 ff
	ff ff		 mov	 eax, DWORD PTR _msg2$[ebp+edx*4]
  00794	50		 push	 eax
  00795	6a 00		 push	 0
  00797	e8 00 00 00 00	 call	 ?ShowBottomLineString@@YAXHPAD@Z ; ShowBottomLineString
  0079c	83 c4 08	 add	 esp, 8
$LN18@charAction:

; 4104 : 		}
; 4105 : 	}
; 4106 : 
; 4107 : 	return 0;

  0079f	33 c0		 xor	 eax, eax
$LN1@charAction:

; 4108 : }

  007a1	52		 push	 edx
  007a2	8b cd		 mov	 ecx, ebp
  007a4	50		 push	 eax
  007a5	8d 15 00 00 00
	00		 lea	 edx, DWORD PTR $LN46@charAction
  007ab	e8 00 00 00 00	 call	 @_RTC_CheckStackVars@8
  007b0	58		 pop	 eax
  007b1	5a		 pop	 edx
  007b2	5f		 pop	 edi
  007b3	5e		 pop	 esi
  007b4	5b		 pop	 ebx
  007b5	8b 4d fc	 mov	 ecx, DWORD PTR __$ArrayPad$[ebp]
  007b8	33 cd		 xor	 ecx, ebp
  007ba	e8 00 00 00 00	 call	 @__security_check_cookie@4
  007bf	81 c4 d8 01 00
	00		 add	 esp, 472		; 000001d8H
  007c5	3b ec		 cmp	 ebp, esp
  007c7	e8 00 00 00 00	 call	 __RTC_CheckEsp
  007cc	8b e5		 mov	 esp, ebp
  007ce	5d		 pop	 ebp
  007cf	c3		 ret	 0
$LN46@charAction:
  007d0	03 00 00 00	 DD	 3
  007d4	00 00 00 00	 DD	 $LN45@charAction
$LN45@charAction:
  007d8	ac ff ff ff	 DD	 -84			; ffffffacH
  007dc	34 00 00 00	 DD	 52			; 00000034H
  007e0	00 00 00 00	 DD	 $LN42@charAction
  007e4	70 ff ff ff	 DD	 -144			; ffffff70H
  007e8	34 00 00 00	 DD	 52			; 00000034H
  007ec	00 00 00 00	 DD	 $LN43@charAction
  007f0	ec fe ff ff	 DD	 -276			; fffffeecH
  007f4	34 00 00 00	 DD	 52			; 00000034H
  007f8	00 00 00 00	 DD	 $LN44@charAction
$LN44@charAction:
  007fc	63		 DB	 99			; 00000063H
  007fd	68		 DB	 104			; 00000068H
  007fe	67		 DB	 103			; 00000067H
  007ff	54		 DB	 84			; 00000054H
  00800	62		 DB	 98			; 00000062H
  00801	6c		 DB	 108			; 0000006cH
  00802	00		 DB	 0
$LN43@charAction:
  00803	6d		 DB	 109			; 0000006dH
  00804	73		 DB	 115			; 00000073H
  00805	67		 DB	 103			; 00000067H
  00806	32		 DB	 50			; 00000032H
  00807	00		 DB	 0
$LN42@charAction:
  00808	6d		 DB	 109			; 0000006dH
  00809	73		 DB	 115			; 00000073H
  0080a	67		 DB	 103			; 00000067H
  0080b	00		 DB	 0
?charActionAnimeChange@@YAHXZ ENDP			; charActionAnimeChange
_TEXT	ENDS
; Function compile flags: /Odtp /RTCsu /ZI
; File c:\users\administrator\desktop\????? ??\????? ??\client source code\system\field.cpp
;	COMDAT ?initCharActionAnimeChange@@YAXXZ
_TEXT	SEGMENT
?initCharActionAnimeChange@@YAXXZ PROC			; initCharActionAnimeChange, COMDAT

; 3880 : {

  00000	55		 push	 ebp
  00001	8b ec		 mov	 ebp, esp
  00003	81 ec c0 00 00
	00		 sub	 esp, 192		; 000000c0H
  00009	53		 push	 ebx
  0000a	56		 push	 esi
  0000b	57		 push	 edi
  0000c	8d bd 40 ff ff
	ff		 lea	 edi, DWORD PTR [ebp-192]
  00012	b9 30 00 00 00	 mov	 ecx, 48			; 00000030H
  00017	b8 cc cc cc cc	 mov	 eax, -858993460		; ccccccccH
  0001c	f3 ab		 rep stosd

; 3881 : 	charActionAnimeChangeProcNo = 0;

  0001e	33 c0		 xor	 eax, eax
  00020	66 a3 00 00 00
	00		 mov	 WORD PTR ?charActionAnimeChangeProcNo@@3FA, ax ; charActionAnimeChangeProcNo

; 3882 : }

  00026	5f		 pop	 edi
  00027	5e		 pop	 esi
  00028	5b		 pop	 ebx
  00029	8b e5		 mov	 esp, ebp
  0002b	5d		 pop	 ebp
  0002c	c3		 ret	 0
?initCharActionAnimeChange@@YAXXZ ENDP			; initCharActionAnimeChange
_TEXT	ENDS
; Function compile flags: /Odtp /RTCsu /ZI
; File c:\users\administrator\desktop\????? ??\????? ??\client source code\system\field.cpp
;	COMDAT ?StreetVendorBuyWndfunc@@YAXPAD@Z
_TEXT	SEGMENT
tv279 = -2396						; size = 4
tv232 = -2396						; size = 4
$T1 = -2388						; size = 4
$T2 = -2376						; size = 4
$T3 = -2364						; size = 4
$T4 = -2352						; size = 4
$T5 = -2340						; size = 4
$T6 = -2328						; size = 4
_j$7 = -1548						; size = 4
_size$8 = -1536						; size = 4
_nPetItemPlace$9 = -1524				; size = 4
_index$10 = -1512					; size = 4
_count$11 = -1500					; size = 4
_kind$12 = -1488					; size = 4
_splitPoint$13 = -1476					; size = 4
_nColor$14 = -1464					; size = 4
_nY$15 = -1452						; size = 4
_splitPoint$16 = -1440					; size = 4
_color$17 = -1428					; size = 4
_iy$18 = -1416						; size = 4
_szTemp1$19 = -1404					; size = 8
_szTemp$20 = -1388					; size = 128
_szMsg$21 = -1252					; size = 128
_count$22 = -1116					; size = 4
_szMsg$ = -1104						; size = 1024
_iMaxBtnNum$ = -72					; size = 4
_selId$ = -60						; size = 4
_y$ = -48						; size = 4
_x$ = -36						; size = 4
_j$ = -24						; size = 4
_i$ = -12						; size = 4
__$ArrayPad$ = -4					; size = 4
_data$ = 8						; size = 4
?StreetVendorBuyWndfunc@@YAXPAD@Z PROC			; StreetVendorBuyWndfunc, COMDAT

; 1043 : {

  00000	55		 push	 ebp
  00001	8b ec		 mov	 ebp, esp
  00003	81 ec 5c 09 00
	00		 sub	 esp, 2396		; 0000095cH
  00009	53		 push	 ebx
  0000a	56		 push	 esi
  0000b	57		 push	 edi
  0000c	8d bd a4 f6 ff
	ff		 lea	 edi, DWORD PTR [ebp-2396]
  00012	b9 57 02 00 00	 mov	 ecx, 599		; 00000257H
  00017	b8 cc cc cc cc	 mov	 eax, -858993460		; ccccccccH
  0001c	f3 ab		 rep stosd
  0001e	a1 00 00 00 00	 mov	 eax, DWORD PTR ___security_cookie
  00023	33 c5		 xor	 eax, ebp
  00025	89 45 fc	 mov	 DWORD PTR __$ArrayPad$[ebp], eax

; 1044 : 	int i,j,x,y,selId = 0;

  00028	c7 45 c4 00 00
	00 00		 mov	 DWORD PTR _selId$[ebp], 0

; 1045 : 	const int	iMaxBtnNum = 5;

  0002f	c7 45 b8 05 00
	00 00		 mov	 DWORD PTR _iMaxBtnNum$[ebp], 5

; 1046 : 	static int	iBtn[iMaxBtnNum],iBuyItemBtn[MAX_SELL_ITEM],iListStart,iTotalBuy[2]; //iTotalBuy[0]:涔板ラ锋伴 iTotalBuy[1]:瀹╀拱ユ伴 [ 甑毵れ]
; 1047 : 	static int	iEmptyNum[2],iCurrentShow,iTotalBuyMoney; // iEmptyNum[0]:韬涓锋绌轰伴 iEmptyNum[1]:瀹╂绌轰伴 [ 旃 瓿奠 ]
; 1048 : 	static int	iMakePetAni = -1;
; 1049 : #ifdef _PET_ITEM
; 1050 : 	static BOOL	bViewPetItem = FALSE;
; 1051 : #endif
; 1052 : 	char szMsg[1024];
; 1053 : 
; 1054 : 	if (pActStreetVendorBuyWnd == NULL)

  00036	83 3d 00 00 00
	00 00		 cmp	 DWORD PTR ?pActStreetVendorBuyWnd@@3PAUaction@@A, 0 ; pActStreetVendorBuyWnd
  0003d	0f 85 ab 01 00
	00		 jne	 $LN47@StreetVend

; 1055 : 	{
; 1056 : 		pActStreetVendorBuyWnd = MakeWindowDisp((DEF_APPSIZEX >> 1) - (617 >> 1), 0, 617, 405, CG_FIELD_SV_BUY_PANEL, -1);

  00043	6a ff		 push	 -1
  00045	68 a8 89 00 00	 push	 35240			; 000089a8H
  0004a	68 95 01 00 00	 push	 405			; 00000195H
  0004f	68 69 02 00 00	 push	 617			; 00000269H
  00054	6a 00		 push	 0
  00056	a1 00 00 00 00	 mov	 eax, DWORD PTR ?DEF_APPSIZEX@@3HA ; DEF_APPSIZEX
  0005b	d1 f8		 sar	 eax, 1
  0005d	2d 34 01 00 00	 sub	 eax, 308		; 00000134H
  00062	50		 push	 eax
  00063	e8 00 00 00 00	 call	 ?MakeWindowDisp@@YAPAUaction@@HHHHHH@Z ; MakeWindowDisp
  00068	83 c4 18	 add	 esp, 24			; 00000018H
  0006b	a3 00 00 00 00	 mov	 DWORD PTR ?pActStreetVendorBuyWnd@@3PAUaction@@A, eax ; pActStreetVendorBuyWnd

; 1057 : 		memset(ShowVendorItem, 0, sizeof(ShowVendorItem));

  00070	68 20 6c 00 00	 push	 27680			; 00006c20H
  00075	6a 00		 push	 0
  00077	68 00 00 00 00	 push	 OFFSET ?ShowVendorItem@@3PAU_Show_Vendor_Item@@A ; ShowVendorItem
  0007c	e8 00 00 00 00	 call	 _memset
  00081	83 c4 0c	 add	 esp, 12			; 0000000cH

; 1058 : 		memset(iBuyItemBtn, 0, sizeof(iBuyItemBtn));

  00084	6a 50		 push	 80			; 00000050H
  00086	6a 00		 push	 0
  00088	68 00 00 00 00	 push	 OFFSET ?iBuyItemBtn@?1??StreetVendorBuyWndfunc@@YAXPAD@Z@4PAHA
  0008d	e8 00 00 00 00	 call	 _memset
  00092	83 c4 0c	 add	 esp, 12			; 0000000cH

; 1059 : 		iTotalBuy[0] = iTotalBuy[1] = iListStart = iEmptyNum[0] = iEmptyNum[1] = iCurrentShow = iTotalBuyMoney = 0;

  00095	c7 05 00 00 00
	00 00 00 00 00	 mov	 DWORD PTR ?iTotalBuyMoney@?1??StreetVendorBuyWndfunc@@YAXPAD@Z@4HA, 0
  0009f	a1 00 00 00 00	 mov	 eax, DWORD PTR ?iTotalBuyMoney@?1??StreetVendorBuyWndfunc@@YAXPAD@Z@4HA
  000a4	a3 00 00 00 00	 mov	 DWORD PTR ?iCurrentShow@?1??StreetVendorBuyWndfunc@@YAXPAD@Z@4HA, eax
  000a9	b9 04 00 00 00	 mov	 ecx, 4
  000ae	c1 e1 00	 shl	 ecx, 0
  000b1	8b 15 00 00 00
	00		 mov	 edx, DWORD PTR ?iCurrentShow@?1??StreetVendorBuyWndfunc@@YAXPAD@Z@4HA
  000b7	89 91 00 00 00
	00		 mov	 DWORD PTR ?iEmptyNum@?1??StreetVendorBuyWndfunc@@YAXPAD@Z@4PAHA[ecx], edx
  000bd	b8 04 00 00 00	 mov	 eax, 4
  000c2	6b c8 00	 imul	 ecx, eax, 0
  000c5	8b 15 00 00 00
	00		 mov	 edx, DWORD PTR ?iCurrentShow@?1??StreetVendorBuyWndfunc@@YAXPAD@Z@4HA
  000cb	89 91 00 00 00
	00		 mov	 DWORD PTR ?iEmptyNum@?1??StreetVendorBuyWndfunc@@YAXPAD@Z@4PAHA[ecx], edx
  000d1	a1 00 00 00 00	 mov	 eax, DWORD PTR ?iCurrentShow@?1??StreetVendorBuyWndfunc@@YAXPAD@Z@4HA
  000d6	a3 00 00 00 00	 mov	 DWORD PTR ?iListStart@?1??StreetVendorBuyWndfunc@@YAXPAD@Z@4HA, eax
  000db	b9 04 00 00 00	 mov	 ecx, 4
  000e0	c1 e1 00	 shl	 ecx, 0
  000e3	8b 15 00 00 00
	00		 mov	 edx, DWORD PTR ?iListStart@?1??StreetVendorBuyWndfunc@@YAXPAD@Z@4HA
  000e9	89 91 00 00 00
	00		 mov	 DWORD PTR ?iTotalBuy@?1??StreetVendorBuyWndfunc@@YAXPAD@Z@4PAHA[ecx], edx
  000ef	b8 04 00 00 00	 mov	 eax, 4
  000f4	6b c8 00	 imul	 ecx, eax, 0
  000f7	8b 15 00 00 00
	00		 mov	 edx, DWORD PTR ?iListStart@?1??StreetVendorBuyWndfunc@@YAXPAD@Z@4HA
  000fd	89 91 00 00 00
	00		 mov	 DWORD PTR ?iTotalBuy@?1??StreetVendorBuyWndfunc@@YAXPAD@Z@4PAHA[ecx], edx

; 1060 : 		iMakePetAni = -1;

  00103	c7 05 00 00 00
	00 ff ff ff ff	 mov	 DWORD PTR ?iMakePetAni@?1??StreetVendorBuyWndfunc@@YAXPAD@Z@4HA, -1

; 1061 : 		for (i = MAX_ITEMSTART; i < MAX_ITEM; i++)

  0010d	c7 45 f4 09 00
	00 00		 mov	 DWORD PTR _i$[ebp], 9
  00114	eb 09		 jmp	 SHORT $LN4@StreetVend
$LN2@StreetVend:
  00116	8b 45 f4	 mov	 eax, DWORD PTR _i$[ebp]
  00119	83 c0 01	 add	 eax, 1
  0011c	89 45 f4	 mov	 DWORD PTR _i$[ebp], eax
$LN4@StreetVend:
  0011f	83 7d f4 36	 cmp	 DWORD PTR _i$[ebp], 54	; 00000036H
  00123	7d 33		 jge	 SHORT $LN3@StreetVend

; 1062 : 		{
; 1063 : 			if (pc.item[i].useFlag == FALSE) 

  00125	69 45 f4 7c 01
	00 00		 imul	 eax, DWORD PTR _i$[ebp], 380
  0012c	0f bf 88 a0 01
	00 00		 movsx	 ecx, WORD PTR ?pc@@3UPC@@A[eax+416]
  00133	85 c9		 test	 ecx, ecx
  00135	75 1f		 jne	 SHORT $LN49@StreetVend

; 1064 : 				iEmptyNum[0]++;

  00137	b8 04 00 00 00	 mov	 eax, 4
  0013c	6b c8 00	 imul	 ecx, eax, 0
  0013f	8b 91 00 00 00
	00		 mov	 edx, DWORD PTR ?iEmptyNum@?1??StreetVendorBuyWndfunc@@YAXPAD@Z@4PAHA[ecx]
  00145	83 c2 01	 add	 edx, 1
  00148	b8 04 00 00 00	 mov	 eax, 4
  0014d	6b c8 00	 imul	 ecx, eax, 0
  00150	89 91 00 00 00
	00		 mov	 DWORD PTR ?iEmptyNum@?1??StreetVendorBuyWndfunc@@YAXPAD@Z@4PAHA[ecx], edx
$LN49@StreetVend:

; 1065 : 		}

  00156	eb be		 jmp	 SHORT $LN2@StreetVend
$LN3@StreetVend:

; 1066 : 		for (i = 0; i < MAX_PET; i++)

  00158	c7 45 f4 00 00
	00 00		 mov	 DWORD PTR _i$[ebp], 0
  0015f	eb 09		 jmp	 SHORT $LN7@StreetVend
$LN5@StreetVend:
  00161	8b 45 f4	 mov	 eax, DWORD PTR _i$[ebp]
  00164	83 c0 01	 add	 eax, 1
  00167	89 45 f4	 mov	 DWORD PTR _i$[ebp], eax
$LN7@StreetVend:
  0016a	83 7d f4 05	 cmp	 DWORD PTR _i$[ebp], 5
  0016e	7d 33		 jge	 SHORT $LN6@StreetVend

; 1067 : 		{
; 1068 : 			if (pet[i].useFlag == 0)

  00170	69 45 f4 20 0b
	00 00		 imul	 eax, DWORD PTR _i$[ebp], 2848
  00177	0f bf 88 76 00
	00 00		 movsx	 ecx, WORD PTR ?pet@@3PAUPET@@A[eax+118]
  0017e	85 c9		 test	 ecx, ecx
  00180	75 1f		 jne	 SHORT $LN50@StreetVend

; 1069 : 				iEmptyNum[1]++;

  00182	b8 04 00 00 00	 mov	 eax, 4
  00187	c1 e0 00	 shl	 eax, 0
  0018a	8b 88 00 00 00
	00		 mov	 ecx, DWORD PTR ?iEmptyNum@?1??StreetVendorBuyWndfunc@@YAXPAD@Z@4PAHA[eax]
  00190	83 c1 01	 add	 ecx, 1
  00193	ba 04 00 00 00	 mov	 edx, 4
  00198	c1 e2 00	 shl	 edx, 0
  0019b	89 8a 00 00 00
	00		 mov	 DWORD PTR ?iEmptyNum@?1??StreetVendorBuyWndfunc@@YAXPAD@Z@4PAHA[edx], ecx
$LN50@StreetVend:

; 1070 : 		}

  001a1	eb be		 jmp	 SHORT $LN5@StreetVend
$LN6@StreetVend:

; 1071 : 		if (pShowPet != NULL)

  001a3	83 3d 00 00 00
	00 00		 cmp	 DWORD PTR ?pShowPet@@3PAUaction@@A, 0 ; pShowPet
  001aa	74 18		 je	 SHORT $LN51@StreetVend

; 1072 : 		{
; 1073 : 			DeathAction(pShowPet);

  001ac	a1 00 00 00 00	 mov	 eax, DWORD PTR ?pShowPet@@3PAUaction@@A ; pShowPet
  001b1	50		 push	 eax
  001b2	e8 00 00 00 00	 call	 ?DeathAction@@YAXPAUaction@@@Z ; DeathAction
  001b7	83 c4 04	 add	 esp, 4

; 1074 : 			pShowPet = NULL;

  001ba	c7 05 00 00 00
	00 00 00 00 00	 mov	 DWORD PTR ?pShowPet@@3PAUaction@@A, 0 ; pShowPet
$LN51@StreetVend:

; 1075 : 		}
; 1076 : #ifdef _PET_ITEM
; 1077 : 		InitItem(pActStreetVendorBuyWnd->x + 310, pActStreetVendorBuyWnd->y + 20, TRUE);

  001c4	6a 01		 push	 1
  001c6	a1 00 00 00 00	 mov	 eax, DWORD PTR ?pActStreetVendorBuyWnd@@3PAUaction@@A ; pActStreetVendorBuyWnd
  001cb	8b 48 1c	 mov	 ecx, DWORD PTR [eax+28]
  001ce	83 c1 14	 add	 ecx, 20			; 00000014H
  001d1	51		 push	 ecx
  001d2	8b 15 00 00 00
	00		 mov	 edx, DWORD PTR ?pActStreetVendorBuyWnd@@3PAUaction@@A ; pActStreetVendorBuyWnd
  001d8	8b 42 18	 mov	 eax, DWORD PTR [edx+24]
  001db	05 36 01 00 00	 add	 eax, 310		; 00000136H
  001e0	50		 push	 eax
  001e1	e8 00 00 00 00	 call	 ?InitItem@@YAXHHH@Z	; InitItem
  001e6	83 c4 0c	 add	 esp, 12			; 0000000cH

; 1078 : #endif
; 1079 : 	}
; 1080 : 	else

  001e9	e9 a6 14 00 00	 jmp	 $LN48@StreetVend
$LN47@StreetVend:

; 1081 : 	{
; 1082 : 		if (pActStreetVendorBuyWnd->hp > 0)

  001ee	a1 00 00 00 00	 mov	 eax, DWORD PTR ?pActStreetVendorBuyWnd@@3PAUaction@@A ; pActStreetVendorBuyWnd
  001f3	83 78 78 00	 cmp	 DWORD PTR [eax+120], 0
  001f7	0f 8e 97 14 00
	00		 jle	 $LN48@StreetVend

; 1083 : 		{
; 1084 : 			x = pActStreetVendorBuyWnd->x;

  001fd	a1 00 00 00 00	 mov	 eax, DWORD PTR ?pActStreetVendorBuyWnd@@3PAUaction@@A ; pActStreetVendorBuyWnd
  00202	8b 48 18	 mov	 ecx, DWORD PTR [eax+24]
  00205	89 4d dc	 mov	 DWORD PTR _x$[ebp], ecx

; 1085 : 			y = pActStreetVendorBuyWnd->y;

  00208	a1 00 00 00 00	 mov	 eax, DWORD PTR ?pActStreetVendorBuyWnd@@3PAUaction@@A ; pActStreetVendorBuyWnd
  0020d	8b 48 1c	 mov	 ecx, DWORD PTR [eax+28]
  00210	89 4d d0	 mov	 DWORD PTR _y$[ebp], ecx

; 1086 : 			selId = focusFontId(iBuyItemBtn, sizeof(iBuyItemBtn) / sizeof(int));

  00213	6a 14		 push	 20			; 00000014H
  00215	68 00 00 00 00	 push	 OFFSET ?iBuyItemBtn@?1??StreetVendorBuyWndfunc@@YAXPAD@Z@4PAHA
  0021a	e8 00 00 00 00	 call	 ?focusFontId@@YAHPAHH@Z	; focusFontId
  0021f	83 c4 08	 add	 esp, 8
  00222	89 45 c4	 mov	 DWORD PTR _selId$[ebp], eax

; 1087 : 			// [button  旃  氚 れ]
; 1088 : 			// []
; 1089 : 			iBtn[0] = StockDispBuffer(x + 410, y + 378, DISP_PRIO_IME3, 26289, 2);

  00225	6a 02		 push	 2
  00227	68 b1 66 00 00	 push	 26289			; 000066b1H
  0022c	6a 69		 push	 105			; 00000069H
  0022e	8b 45 d0	 mov	 eax, DWORD PTR _y$[ebp]
  00231	05 7a 01 00 00	 add	 eax, 378		; 0000017aH
  00236	50		 push	 eax
  00237	8b 4d dc	 mov	 ecx, DWORD PTR _x$[ebp]
  0023a	81 c1 9a 01 00
	00		 add	 ecx, 410		; 0000019aH
  00240	51		 push	 ecx
  00241	e8 00 00 00 00	 call	 ?StockDispBuffer@@YAHHHEHH@Z ; StockDispBuffer
  00246	83 c4 14	 add	 esp, 20			; 00000014H
  00249	ba 04 00 00 00	 mov	 edx, 4
  0024e	6b ca 00	 imul	 ecx, edx, 0
  00251	89 81 00 00 00
	00		 mov	 DWORD PTR ?iBtn@?1??StreetVendorBuyWndfunc@@YAXPAD@Z@4PAHA[ecx], eax

; 1090 : 			// [旆]
; 1091 : 			iBtn[1] = StockDispBuffer(x + 535, y + 378, DISP_PRIO_IME3, 26291, 2);

  00257	6a 02		 push	 2
  00259	68 b3 66 00 00	 push	 26291			; 000066b3H
  0025e	6a 69		 push	 105			; 00000069H
  00260	8b 45 d0	 mov	 eax, DWORD PTR _y$[ebp]
  00263	05 7a 01 00 00	 add	 eax, 378		; 0000017aH
  00268	50		 push	 eax
  00269	8b 4d dc	 mov	 ecx, DWORD PTR _x$[ebp]
  0026c	81 c1 17 02 00
	00		 add	 ecx, 535		; 00000217H
  00272	51		 push	 ecx
  00273	e8 00 00 00 00	 call	 ?StockDispBuffer@@YAHHHEHH@Z ; StockDispBuffer
  00278	83 c4 14	 add	 esp, 20			; 00000014H
  0027b	ba 04 00 00 00	 mov	 edx, 4
  00280	c1 e2 00	 shl	 edx, 0
  00283	89 82 00 00 00
	00		 mov	 DWORD PTR ?iBtn@?1??StreetVendorBuyWndfunc@@YAXPAD@Z@4PAHA[edx], eax

; 1092 : 			// [甓 错]
; 1093 : 			iBtn[2] = StockDispBuffer(x + 300, y + 34, DISP_PRIO_IME3, 26331, 2);

  00289	6a 02		 push	 2
  0028b	68 db 66 00 00	 push	 26331			; 000066dbH
  00290	6a 69		 push	 105			; 00000069H
  00292	8b 45 d0	 mov	 eax, DWORD PTR _y$[ebp]
  00295	83 c0 22	 add	 eax, 34			; 00000022H
  00298	50		 push	 eax
  00299	8b 4d dc	 mov	 ecx, DWORD PTR _x$[ebp]
  0029c	81 c1 2c 01 00
	00		 add	 ecx, 300		; 0000012cH
  002a2	51		 push	 ecx
  002a3	e8 00 00 00 00	 call	 ?StockDispBuffer@@YAHHHEHH@Z ; StockDispBuffer
  002a8	83 c4 14	 add	 esp, 20			; 00000014H
  002ab	ba 04 00 00 00	 mov	 edx, 4
  002b0	d1 e2		 shl	 edx, 1
  002b2	89 82 00 00 00
	00		 mov	 DWORD PTR ?iBtn@?1??StreetVendorBuyWndfunc@@YAXPAD@Z@4PAHA[edx], eax

; 1094 : 			// [甓 错]
; 1095 : 			iBtn[3] = StockDispBuffer(x + 300, y + 374, DISP_PRIO_IME3, 26332, 2);

  002b8	6a 02		 push	 2
  002ba	68 dc 66 00 00	 push	 26332			; 000066dcH
  002bf	6a 69		 push	 105			; 00000069H
  002c1	8b 45 d0	 mov	 eax, DWORD PTR _y$[ebp]
  002c4	05 76 01 00 00	 add	 eax, 374		; 00000176H
  002c9	50		 push	 eax
  002ca	8b 4d dc	 mov	 ecx, DWORD PTR _x$[ebp]
  002cd	81 c1 2c 01 00
	00		 add	 ecx, 300		; 0000012cH
  002d3	51		 push	 ecx
  002d4	e8 00 00 00 00	 call	 ?StockDispBuffer@@YAHHHEHH@Z ; StockDispBuffer
  002d9	83 c4 14	 add	 esp, 20			; 00000014H
  002dc	ba 04 00 00 00	 mov	 edx, 4
  002e1	6b ca 03	 imul	 ecx, edx, 3
  002e4	89 81 00 00 00
	00		 mov	 DWORD PTR ?iBtn@?1??StreetVendorBuyWndfunc@@YAXPAD@Z@4PAHA[ecx], eax

; 1096 : #ifdef _PET_ITEM
; 1097 : 			if (bViewPetItem)

  002ea	83 3d 00 00 00
	00 00		 cmp	 DWORD PTR ?bViewPetItem@?1??StreetVendorBuyWndfunc@@YAXPAD@Z@4HA, 0
  002f1	74 34		 je	 SHORT $LN53@StreetVend

; 1098 : 				iBtn[4] = StockDispBuffer(x + 560, y + 318, DISP_PRIO_IME3, 26472, 2);

  002f3	6a 02		 push	 2
  002f5	68 68 67 00 00	 push	 26472			; 00006768H
  002fa	6a 69		 push	 105			; 00000069H
  002fc	8b 45 d0	 mov	 eax, DWORD PTR _y$[ebp]
  002ff	05 3e 01 00 00	 add	 eax, 318		; 0000013eH
  00304	50		 push	 eax
  00305	8b 4d dc	 mov	 ecx, DWORD PTR _x$[ebp]
  00308	81 c1 30 02 00
	00		 add	 ecx, 560		; 00000230H
  0030e	51		 push	 ecx
  0030f	e8 00 00 00 00	 call	 ?StockDispBuffer@@YAHHHEHH@Z ; StockDispBuffer
  00314	83 c4 14	 add	 esp, 20			; 00000014H
  00317	ba 04 00 00 00	 mov	 edx, 4
  0031c	c1 e2 02	 shl	 edx, 2
  0031f	89 82 00 00 00
	00		 mov	 DWORD PTR ?iBtn@?1??StreetVendorBuyWndfunc@@YAXPAD@Z@4PAHA[edx], eax

; 1099 : 			else

  00325	eb 32		 jmp	 SHORT $LN54@StreetVend
$LN53@StreetVend:

; 1100 : 				iBtn[4] = StockDispBuffer(x + 560, y + 318, DISP_PRIO_IME3, 26471, 2);

  00327	6a 02		 push	 2
  00329	68 67 67 00 00	 push	 26471			; 00006767H
  0032e	6a 69		 push	 105			; 00000069H
  00330	8b 45 d0	 mov	 eax, DWORD PTR _y$[ebp]
  00333	05 3e 01 00 00	 add	 eax, 318		; 0000013eH
  00338	50		 push	 eax
  00339	8b 4d dc	 mov	 ecx, DWORD PTR _x$[ebp]
  0033c	81 c1 30 02 00
	00		 add	 ecx, 560		; 00000230H
  00342	51		 push	 ecx
  00343	e8 00 00 00 00	 call	 ?StockDispBuffer@@YAHHHEHH@Z ; StockDispBuffer
  00348	83 c4 14	 add	 esp, 20			; 00000014H
  0034b	ba 04 00 00 00	 mov	 edx, 4
  00350	c1 e2 02	 shl	 edx, 2
  00353	89 82 00 00 00
	00		 mov	 DWORD PTR ?iBtn@?1??StreetVendorBuyWndfunc@@YAXPAD@Z@4PAHA[edx], eax
$LN54@StreetVend:

; 1101 : #endif
; 1102 : 			for (i = 0; i < iMaxBtnNum; i++)

  00359	c7 45 f4 00 00
	00 00		 mov	 DWORD PTR _i$[ebp], 0
  00360	eb 09		 jmp	 SHORT $LN10@StreetVend
$LN8@StreetVend:
  00362	8b 45 f4	 mov	 eax, DWORD PTR _i$[ebp]
  00365	83 c0 01	 add	 eax, 1
  00368	89 45 f4	 mov	 DWORD PTR _i$[ebp], eax
$LN10@StreetVend:
  0036b	83 7d f4 05	 cmp	 DWORD PTR _i$[ebp], 5
  0036f	0f 8d 38 02 00
	00		 jge	 $LN9@StreetVend

; 1103 : 			{
; 1104 : 				if (mouse.onceState & MOUSE_LEFT_CRICK)

  00375	a1 2c 00 00 00	 mov	 eax, DWORD PTR ?mouse@@3UMOUSE@@A+44
  0037a	83 e0 01	 and	 eax, 1
  0037d	0f 84 25 02 00
	00		 je	 $LN55@StreetVend

; 1105 : 				{
; 1106 : 					if (HitDispNo == iBtn[i])

  00383	8b 45 f4	 mov	 eax, DWORD PTR _i$[ebp]
  00386	8b 0d 00 00 00
	00		 mov	 ecx, DWORD PTR ?HitDispNo@@3HA ; HitDispNo
  0038c	3b 0c 85 00 00
	00 00		 cmp	 ecx, DWORD PTR ?iBtn@?1??StreetVendorBuyWndfunc@@YAXPAD@Z@4PAHA[eax*4]
  00393	0f 85 0f 02 00
	00		 jne	 $LN55@StreetVend

; 1107 : 					{
; 1108 : 						play_se(217, 320, 240);

  00399	68 f0 00 00 00	 push	 240			; 000000f0H
  0039e	68 40 01 00 00	 push	 320			; 00000140H
  003a3	68 d9 00 00 00	 push	 217			; 000000d9H
  003a8	e8 00 00 00 00	 call	 ?play_se@@YAHHHH@Z	; play_se
  003ad	83 c4 0c	 add	 esp, 12			; 0000000cH

; 1109 : 						switch (i)

  003b0	8b 45 f4	 mov	 eax, DWORD PTR _i$[ebp]
  003b3	89 85 a4 f6 ff
	ff		 mov	 DWORD PTR tv232[ebp], eax
  003b9	83 bd a4 f6 ff
	ff 04		 cmp	 DWORD PTR tv232[ebp], 4
  003c0	0f 87 e0 01 00
	00		 ja	 $LN11@StreetVend
  003c6	8b 8d a4 f6 ff
	ff		 mov	 ecx, DWORD PTR tv232[ebp]
  003cc	ff 24 8d 00 00
	00 00		 jmp	 DWORD PTR $LN152@StreetVend[ecx*4]
$LN57@StreetVend:

; 1110 : 						{
; 1111 : 						// []
; 1112 : 						case 0:
; 1113 : 							{
; 1114 : 								int count = 0;

  003d3	c7 85 a4 fb ff
	ff 00 00 00 00	 mov	 DWORD PTR _count$22[ebp], 0

; 1115 : 								char szMsg[128], szTemp[128], szTemp1[8];
; 1116 : 								
; 1117 : 								memset(szMsg, 0, sizeof(szMsg));

  003dd	68 80 00 00 00	 push	 128			; 00000080H
  003e2	6a 00		 push	 0
  003e4	8d 85 1c fb ff
	ff		 lea	 eax, DWORD PTR _szMsg$21[ebp]
  003ea	50		 push	 eax
  003eb	e8 00 00 00 00	 call	 _memset
  003f0	83 c4 0c	 add	 esp, 12			; 0000000cH

; 1118 : 								memset(szTemp, 0, sizeof(szTemp));

  003f3	68 80 00 00 00	 push	 128			; 00000080H
  003f8	6a 00		 push	 0
  003fa	8d 85 94 fa ff
	ff		 lea	 eax, DWORD PTR _szTemp$20[ebp]
  00400	50		 push	 eax
  00401	e8 00 00 00 00	 call	 _memset
  00406	83 c4 0c	 add	 esp, 12			; 0000000cH

; 1119 : 								// [る 氍缄贝 胳 server瓴 .]
; 1120 : 								for(j = 0; j < MAX_SELL_ITEM; j++)

  00409	c7 45 e8 00 00
	00 00		 mov	 DWORD PTR _j$[ebp], 0
  00410	eb 09		 jmp	 SHORT $LN15@StreetVend
$LN13@StreetVend:
  00412	8b 45 e8	 mov	 eax, DWORD PTR _j$[ebp]
  00415	83 c0 01	 add	 eax, 1
  00418	89 45 e8	 mov	 DWORD PTR _j$[ebp], eax
$LN15@StreetVend:
  0041b	83 7d e8 14	 cmp	 DWORD PTR _j$[ebp], 20	; 00000014H
  0041f	7d 5b		 jge	 SHORT $LN14@StreetVend

; 1121 : 								{
; 1122 : 									if (ShowVendorItem[j].bBuy)

  00421	69 45 e8 68 05
	00 00		 imul	 eax, DWORD PTR _j$[ebp], 1384
  00428	0f b6 88 41 00
	00 00		 movzx	 ecx, BYTE PTR ?ShowVendorItem@@3PAU_Show_Vendor_Item@@A[eax+65]
  0042f	85 c9		 test	 ecx, ecx
  00431	74 47		 je	 SHORT $LN58@StreetVend

; 1123 : 									{
; 1124 : 										sprintf(szTemp1, "%d|", ShowVendorItem[j].index);

  00433	69 45 e8 68 05
	00 00		 imul	 eax, DWORD PTR _j$[ebp], 1384
  0043a	8b 88 3c 00 00
	00		 mov	 ecx, DWORD PTR ?ShowVendorItem@@3PAU_Show_Vendor_Item@@A[eax+60]
  00440	51		 push	 ecx
  00441	68 00 00 00 00	 push	 OFFSET ??_C@_03IFADCKOJ@?$CFd?$HM?$AA@
  00446	8d 95 84 fa ff
	ff		 lea	 edx, DWORD PTR _szTemp1$19[ebp]
  0044c	52		 push	 edx
  0044d	e8 00 00 00 00	 call	 _sprintf
  00452	83 c4 0c	 add	 esp, 12			; 0000000cH

; 1125 : 										strcat(szTemp, szTemp1);

  00455	8d 85 84 fa ff
	ff		 lea	 eax, DWORD PTR _szTemp1$19[ebp]
  0045b	50		 push	 eax
  0045c	8d 8d 94 fa ff
	ff		 lea	 ecx, DWORD PTR _szTemp$20[ebp]
  00462	51		 push	 ecx
  00463	e8 00 00 00 00	 call	 _strcat
  00468	83 c4 08	 add	 esp, 8

; 1126 : 										count++;	//[齑店]

  0046b	8b 85 a4 fb ff
	ff		 mov	 eax, DWORD PTR _count$22[ebp]
  00471	83 c0 01	 add	 eax, 1
  00474	89 85 a4 fb ff
	ff		 mov	 DWORD PTR _count$22[ebp], eax
$LN58@StreetVend:

; 1127 : 									}
; 1128 : 								}

  0047a	eb 96		 jmp	 SHORT $LN13@StreetVend
$LN14@StreetVend:

; 1129 : 								if (count != 0)

  0047c	83 bd a4 fb ff
	ff 00		 cmp	 DWORD PTR _count$22[ebp], 0
  00483	74 3a		 je	 SHORT $LN59@StreetVend

; 1130 : 								{
; 1131 : 									sprintf(szMsg, "B|%d|%s", count, szTemp);

  00485	8d 85 94 fa ff
	ff		 lea	 eax, DWORD PTR _szTemp$20[ebp]
  0048b	50		 push	 eax
  0048c	8b 8d a4 fb ff
	ff		 mov	 ecx, DWORD PTR _count$22[ebp]
  00492	51		 push	 ecx
  00493	68 00 00 00 00	 push	 OFFSET ??_C@_07PKADKLEL@B?$HM?$CFd?$HM?$CFs?$AA@
  00498	8d 95 1c fb ff
	ff		 lea	 edx, DWORD PTR _szMsg$21[ebp]
  0049e	52		 push	 edx
  0049f	e8 00 00 00 00	 call	 _sprintf
  004a4	83 c4 10	 add	 esp, 16			; 00000010H

; 1132 : 									lssproto_STREET_VENDOR_send(sockfd, szMsg);

  004a7	8d 85 1c fb ff
	ff		 lea	 eax, DWORD PTR _szMsg$21[ebp]
  004ad	50		 push	 eax
  004ae	8b 0d 00 00 00
	00		 mov	 ecx, DWORD PTR ?sockfd@@3IA ; sockfd
  004b4	51		 push	 ecx
  004b5	e8 00 00 00 00	 call	 ?lssproto_STREET_VENDOR_send@@YAXHPAD@Z ; lssproto_STREET_VENDOR_send
  004ba	83 c4 08	 add	 esp, 8

; 1133 : 								}
; 1134 : 								else

  004bd	eb 13		 jmp	 SHORT $LN61@StreetVend
$LN59@StreetVend:

; 1135 : 									lssproto_STREET_VENDOR_send(sockfd, "N|");

  004bf	68 00 00 00 00	 push	 OFFSET ??_C@_02PJDALANN@N?$HM?$AA@
  004c4	a1 00 00 00 00	 mov	 eax, DWORD PTR ?sockfd@@3IA ; sockfd
  004c9	50		 push	 eax
  004ca	e8 00 00 00 00	 call	 ?lssproto_STREET_VENDOR_send@@YAXHPAD@Z ; lssproto_STREET_VENDOR_send
  004cf	83 c4 08	 add	 esp, 8
$LN61@StreetVend:

; 1136 : 							}
; 1137 : 						// [旆]
; 1138 : 						case 1:
; 1139 : 							if (i == 1)

  004d2	83 7d f4 01	 cmp	 DWORD PTR _i$[ebp], 1
  004d6	75 13		 jne	 SHORT $LN62@StreetVend

; 1140 : 								lssproto_STREET_VENDOR_send(sockfd, "N|");

  004d8	68 00 00 00 00	 push	 OFFSET ??_C@_02PJDALANN@N?$HM?$AA@
  004dd	a1 00 00 00 00	 mov	 eax, DWORD PTR ?sockfd@@3IA ; sockfd
  004e2	50		 push	 eax
  004e3	e8 00 00 00 00	 call	 ?lssproto_STREET_VENDOR_send@@YAXHPAD@Z ; lssproto_STREET_VENDOR_send
  004e8	83 c4 08	 add	 esp, 8
$LN62@StreetVend:

; 1141 : 							sStreetVendorBuyBtn = 0;

  004eb	33 c0		 xor	 eax, eax
  004ed	66 a3 00 00 00
	00		 mov	 WORD PTR ?sStreetVendorBuyBtn@@3FA, ax ; sStreetVendorBuyBtn

; 1142 : 							actBtn = 0;

  004f3	33 c0		 xor	 eax, eax
  004f5	66 a3 00 00 00
	00		 mov	 WORD PTR ?actBtn@@3FA, ax ; actBtn

; 1143 : 							if (pShowPet != NULL)

  004fb	83 3d 00 00 00
	00 00		 cmp	 DWORD PTR ?pShowPet@@3PAUaction@@A, 0 ; pShowPet
  00502	74 18		 je	 SHORT $LN63@StreetVend

; 1144 : 							{
; 1145 : 								DeathAction(pShowPet);

  00504	a1 00 00 00 00	 mov	 eax, DWORD PTR ?pShowPet@@3PAUaction@@A ; pShowPet
  00509	50		 push	 eax
  0050a	e8 00 00 00 00	 call	 ?DeathAction@@YAXPAUaction@@@Z ; DeathAction
  0050f	83 c4 04	 add	 esp, 4

; 1146 : 								pShowPet = NULL;

  00512	c7 05 00 00 00
	00 00 00 00 00	 mov	 DWORD PTR ?pShowPet@@3PAUaction@@A, 0 ; pShowPet
$LN63@StreetVend:

; 1147 : 							}
; 1148 : 							if (pActSellPriceWnd != NULL)

  0051c	83 3d 00 00 00
	00 00		 cmp	 DWORD PTR ?pActSellPriceWnd@@3PAUaction@@A, 0
  00523	74 0e		 je	 SHORT $LN64@StreetVend

; 1149 : 								DeathAction(pActSellPriceWnd);

  00525	a1 00 00 00 00	 mov	 eax, DWORD PTR ?pActSellPriceWnd@@3PAUaction@@A
  0052a	50		 push	 eax
  0052b	e8 00 00 00 00	 call	 ?DeathAction@@YAXPAUaction@@@Z ; DeathAction
  00530	83 c4 04	 add	 esp, 4
$LN64@StreetVend:

; 1150 : 							pActSellPriceWnd = NULL;

  00533	c7 05 00 00 00
	00 00 00 00 00	 mov	 DWORD PTR ?pActSellPriceWnd@@3PAUaction@@A, 0

; 1151 : 							break;

  0053d	eb 67		 jmp	 SHORT $LN11@StreetVend
$LN65@StreetVend:

; 1152 : 						// [甓]
; 1153 : 						case 2:
; 1154 : 							iListStart--;

  0053f	a1 00 00 00 00	 mov	 eax, DWORD PTR ?iListStart@?1??StreetVendorBuyWndfunc@@YAXPAD@Z@4HA
  00544	83 e8 01	 sub	 eax, 1
  00547	a3 00 00 00 00	 mov	 DWORD PTR ?iListStart@?1??StreetVendorBuyWndfunc@@YAXPAD@Z@4HA, eax

; 1155 : 							if (iListStart < 0)

  0054c	79 0a		 jns	 SHORT $LN66@StreetVend

; 1156 : 								iListStart = 0;

  0054e	c7 05 00 00 00
	00 00 00 00 00	 mov	 DWORD PTR ?iListStart@?1??StreetVendorBuyWndfunc@@YAXPAD@Z@4HA, 0
$LN66@StreetVend:

; 1157 : 							break;

  00558	eb 4c		 jmp	 SHORT $LN11@StreetVend
$LN67@StreetVend:

; 1158 : 						// [甓]
; 1159 : 						case 3:
; 1160 : 							iListStart++;

  0055a	a1 00 00 00 00	 mov	 eax, DWORD PTR ?iListStart@?1??StreetVendorBuyWndfunc@@YAXPAD@Z@4HA
  0055f	83 c0 01	 add	 eax, 1
  00562	a3 00 00 00 00	 mov	 DWORD PTR ?iListStart@?1??StreetVendorBuyWndfunc@@YAXPAD@Z@4HA, eax

; 1161 : 							if (iListStart > 13)

  00567	83 3d 00 00 00
	00 0d		 cmp	 DWORD PTR ?iListStart@?1??StreetVendorBuyWndfunc@@YAXPAD@Z@4HA, 13 ; 0000000dH
  0056e	7e 0a		 jle	 SHORT $LN68@StreetVend

; 1162 : 								iListStart = 13;

  00570	c7 05 00 00 00
	00 0d 00 00 00	 mov	 DWORD PTR ?iListStart@?1??StreetVendorBuyWndfunc@@YAXPAD@Z@4HA, 13 ; 0000000dH
$LN68@StreetVend:

; 1163 : 							break;

  0057a	eb 2a		 jmp	 SHORT $LN11@StreetVend
$LN69@StreetVend:

; 1164 : #ifdef _PET_ITEM
; 1165 : 						case 4:
; 1166 : 							bViewPetItem = !bViewPetItem;

  0057c	83 3d 00 00 00
	00 00		 cmp	 DWORD PTR ?bViewPetItem@?1??StreetVendorBuyWndfunc@@YAXPAD@Z@4HA, 0
  00583	75 0c		 jne	 SHORT $LN132@StreetVend
  00585	c7 85 a4 f6 ff
	ff 01 00 00 00	 mov	 DWORD PTR tv279[ebp], 1
  0058f	eb 0a		 jmp	 SHORT $LN133@StreetVend
$LN132@StreetVend:
  00591	c7 85 a4 f6 ff
	ff 00 00 00 00	 mov	 DWORD PTR tv279[ebp], 0
$LN133@StreetVend:
  0059b	8b 85 a4 f6 ff
	ff		 mov	 eax, DWORD PTR tv279[ebp]
  005a1	a3 00 00 00 00	 mov	 DWORD PTR ?bViewPetItem@?1??StreetVendorBuyWndfunc@@YAXPAD@Z@4HA, eax
$LN11@StreetVend:

; 1167 : 							break;
; 1168 : #endif
; 1169 : 						}
; 1170 : 						break;

  005a6	eb 05		 jmp	 SHORT $LN9@StreetVend
$LN55@StreetVend:

; 1171 : 					}
; 1172 : 				}
; 1173 : 			}

  005a8	e9 b5 fd ff ff	 jmp	 $LN8@StreetVend
$LN9@StreetVend:

; 1174 : 
; 1175 : 			// [检届  氍缄贝 氇╇ ]
; 1176 : 			for (i = iListStart, j = 0; i < iListStart + 13; i++, j++)

  005ad	a1 00 00 00 00	 mov	 eax, DWORD PTR ?iListStart@?1??StreetVendorBuyWndfunc@@YAXPAD@Z@4HA
  005b2	89 45 f4	 mov	 DWORD PTR _i$[ebp], eax
  005b5	c7 45 e8 00 00
	00 00		 mov	 DWORD PTR _j$[ebp], 0
  005bc	eb 12		 jmp	 SHORT $LN18@StreetVend
$LN16@StreetVend:
  005be	8b 45 f4	 mov	 eax, DWORD PTR _i$[ebp]
  005c1	83 c0 01	 add	 eax, 1
  005c4	89 45 f4	 mov	 DWORD PTR _i$[ebp], eax
  005c7	8b 4d e8	 mov	 ecx, DWORD PTR _j$[ebp]
  005ca	83 c1 01	 add	 ecx, 1
  005cd	89 4d e8	 mov	 DWORD PTR _j$[ebp], ecx
$LN18@StreetVend:
  005d0	a1 00 00 00 00	 mov	 eax, DWORD PTR ?iListStart@?1??StreetVendorBuyWndfunc@@YAXPAD@Z@4HA
  005d5	83 c0 0d	 add	 eax, 13			; 0000000dH
  005d8	39 45 f4	 cmp	 DWORD PTR _i$[ebp], eax
  005db	0f 8d ed 01 00
	00		 jge	 $LN17@StreetVend

; 1177 : 			{
; 1178 : 				if (ShowVendorItem[i].usage)

  005e1	69 45 f4 68 05
	00 00		 imul	 eax, DWORD PTR _i$[ebp], 1384
  005e8	0f b6 88 40 00
	00 00		 movzx	 ecx, BYTE PTR ?ShowVendorItem@@3PAU_Show_Vendor_Item@@A[eax+64]
  005ef	85 c9		 test	 ecx, ecx
  005f1	0f 84 a2 01 00
	00		 je	 $LN70@StreetVend

; 1179 : 				{
; 1180 : 					if (ShowVendorItem[i].kind == 0)

  005f7	69 45 f4 68 05
	00 00		 imul	 eax, DWORD PTR _i$[ebp], 1384
  005fe	0f be 88 91 01
	00 00		 movsx	 ecx, BYTE PTR ?ShowVendorItem@@3PAU_Show_Vendor_Item@@A[eax+401]
  00605	85 c9		 test	 ecx, ecx
  00607	0f 85 8a 00 00
	00		 jne	 $LN72@StreetVend

; 1181 : 					{
; 1182 : 						if (ShowVendorItem[i].price == 0)

  0060d	69 45 f4 68 05
	00 00		 imul	 eax, DWORD PTR _i$[ebp], 1384
  00614	83 b8 08 00 00
	00 00		 cmp	 DWORD PTR ?ShowVendorItem@@3PAU_Show_Vendor_Item@@A[eax+8], 0
  0061b	75 37		 jne	 SHORT $LN74@StreetVend

; 1183 : 							sprintf(szMsg, "%-20sx%3d%13s", ShowVendorItem[i].name, ShowVendorItem[i].pile, " 臧瓴");

  0061d	68 00 00 00 00	 push	 OFFSET ??_C@_09HBDNCLCF@?G?y?$LL?s?5?$LA?$KB?$LA?$NN?$AA@
  00622	69 45 f4 68 05
	00 00		 imul	 eax, DWORD PTR _i$[ebp], 1384
  00629	8b 88 04 00 00
	00		 mov	 ecx, DWORD PTR ?ShowVendorItem@@3PAU_Show_Vendor_Item@@A[eax+4]
  0062f	51		 push	 ecx
  00630	69 55 f4 68 05
	00 00		 imul	 edx, DWORD PTR _i$[ebp], 1384
  00637	81 c2 43 00 00
	00		 add	 edx, OFFSET ?ShowVendorItem@@3PAU_Show_Vendor_Item@@A+67
  0063d	52		 push	 edx
  0063e	68 00 00 00 00	 push	 OFFSET ??_C@_0O@MNFNNHCK@?$CF?920sx?$CF3d?$CF13s?$AA@
  00643	8d 85 b0 fb ff
	ff		 lea	 eax, DWORD PTR _szMsg$[ebp]
  00649	50		 push	 eax
  0064a	e8 00 00 00 00	 call	 _sprintf
  0064f	83 c4 14	 add	 esp, 20			; 00000014H

; 1184 : 						else

  00652	eb 3e		 jmp	 SHORT $LN75@StreetVend
$LN74@StreetVend:

; 1185 : 							sprintf(szMsg, "%-20sx%3d%13d", ShowVendorItem[i].name, ShowVendorItem[i].pile, ShowVendorItem[i].price);

  00654	69 45 f4 68 05
	00 00		 imul	 eax, DWORD PTR _i$[ebp], 1384
  0065b	8b 88 08 00 00
	00		 mov	 ecx, DWORD PTR ?ShowVendorItem@@3PAU_Show_Vendor_Item@@A[eax+8]
  00661	51		 push	 ecx
  00662	69 55 f4 68 05
	00 00		 imul	 edx, DWORD PTR _i$[ebp], 1384
  00669	8b 82 04 00 00
	00		 mov	 eax, DWORD PTR ?ShowVendorItem@@3PAU_Show_Vendor_Item@@A[edx+4]
  0066f	50		 push	 eax
  00670	69 4d f4 68 05
	00 00		 imul	 ecx, DWORD PTR _i$[ebp], 1384
  00677	81 c1 43 00 00
	00		 add	 ecx, OFFSET ?ShowVendorItem@@3PAU_Show_Vendor_Item@@A+67
  0067d	51		 push	 ecx
  0067e	68 00 00 00 00	 push	 OFFSET ??_C@_0O@MINOFDLM@?$CF?920sx?$CF3d?$CF13d?$AA@
  00683	8d 95 b0 fb ff
	ff		 lea	 edx, DWORD PTR _szMsg$[ebp]
  00689	52		 push	 edx
  0068a	e8 00 00 00 00	 call	 _sprintf
  0068f	83 c4 14	 add	 esp, 20			; 00000014H
$LN75@StreetVend:

; 1186 : 					}
; 1187 : 					else

  00692	e9 83 00 00 00	 jmp	 $LN73@StreetVend
$LN72@StreetVend:

; 1188 : 					{
; 1189 : 						if (ShowVendorItem[i].price == 0)

  00697	69 45 f4 68 05
	00 00		 imul	 eax, DWORD PTR _i$[ebp], 1384
  0069e	83 b8 08 00 00
	00 00		 cmp	 DWORD PTR ?ShowVendorItem@@3PAU_Show_Vendor_Item@@A[eax+8], 0
  006a5	75 36		 jne	 SHORT $LN76@StreetVend

; 1190 : 							sprintf(szMsg, "%-17s%-12s%8s", ShowVendorItem[i].name, ShowVendorItem[i].freeName, " 臧瓴");

  006a7	68 00 00 00 00	 push	 OFFSET ??_C@_09HBDNCLCF@?G?y?$LL?s?5?$LA?$KB?$LA?$NN?$AA@
  006ac	69 45 f4 68 05
	00 00		 imul	 eax, DWORD PTR _i$[ebp], 1384
  006b3	05 60 00 00 00	 add	 eax, OFFSET ?ShowVendorItem@@3PAU_Show_Vendor_Item@@A+96
  006b8	50		 push	 eax
  006b9	69 4d f4 68 05
	00 00		 imul	 ecx, DWORD PTR _i$[ebp], 1384
  006c0	81 c1 43 00 00
	00		 add	 ecx, OFFSET ?ShowVendorItem@@3PAU_Show_Vendor_Item@@A+67
  006c6	51		 push	 ecx
  006c7	68 00 00 00 00	 push	 OFFSET ??_C@_0O@OKDFECEM@?$CF?917s?$CF?912s?$CF8s?$AA@
  006cc	8d 95 b0 fb ff
	ff		 lea	 edx, DWORD PTR _szMsg$[ebp]
  006d2	52		 push	 edx
  006d3	e8 00 00 00 00	 call	 _sprintf
  006d8	83 c4 14	 add	 esp, 20			; 00000014H

; 1191 : 						else

  006db	eb 3d		 jmp	 SHORT $LN73@StreetVend
$LN76@StreetVend:

; 1192 : 							sprintf(szMsg, "%-17s%-12s%8d", ShowVendorItem[i].name, ShowVendorItem[i].freeName, ShowVendorItem[i].price);

  006dd	69 45 f4 68 05
	00 00		 imul	 eax, DWORD PTR _i$[ebp], 1384
  006e4	8b 88 08 00 00
	00		 mov	 ecx, DWORD PTR ?ShowVendorItem@@3PAU_Show_Vendor_Item@@A[eax+8]
  006ea	51		 push	 ecx
  006eb	69 55 f4 68 05
	00 00		 imul	 edx, DWORD PTR _i$[ebp], 1384
  006f2	81 c2 60 00 00
	00		 add	 edx, OFFSET ?ShowVendorItem@@3PAU_Show_Vendor_Item@@A+96
  006f8	52		 push	 edx
  006f9	69 45 f4 68 05
	00 00		 imul	 eax, DWORD PTR _i$[ebp], 1384
  00700	05 43 00 00 00	 add	 eax, OFFSET ?ShowVendorItem@@3PAU_Show_Vendor_Item@@A+67
  00705	50		 push	 eax
  00706	68 00 00 00 00	 push	 OFFSET ??_C@_0O@OPLGMGNK@?$CF?917s?$CF?912s?$CF8d?$AA@
  0070b	8d 8d b0 fb ff
	ff		 lea	 ecx, DWORD PTR _szMsg$[ebp]
  00711	51		 push	 ecx
  00712	e8 00 00 00 00	 call	 _sprintf
  00717	83 c4 14	 add	 esp, 20			; 00000014H
$LN73@StreetVend:

; 1193 : 					}
; 1194 : 					iBuyItemBtn[j] = StockFontBuffer(x + 20, y + 22 + 28 * j, FONT_PRIO_FRONT, FONT_PAL_WHITE, szMsg, 2);

  0071a	6a 02		 push	 2
  0071c	8d 85 b0 fb ff
	ff		 lea	 eax, DWORD PTR _szMsg$[ebp]
  00722	50		 push	 eax
  00723	6a 00		 push	 0
  00725	6a 01		 push	 1
  00727	6b 4d e8 1c	 imul	 ecx, DWORD PTR _j$[ebp], 28
  0072b	8b 55 d0	 mov	 edx, DWORD PTR _y$[ebp]
  0072e	8d 44 0a 16	 lea	 eax, DWORD PTR [edx+ecx+22]
  00732	50		 push	 eax
  00733	8b 4d dc	 mov	 ecx, DWORD PTR _x$[ebp]
  00736	83 c1 14	 add	 ecx, 20			; 00000014H
  00739	51		 push	 ecx
  0073a	e8 00 00 00 00	 call	 ?StockFontBuffer@@YAHHHDHPADH@Z ; StockFontBuffer
  0073f	83 c4 18	 add	 esp, 24			; 00000018H
  00742	8b 55 e8	 mov	 edx, DWORD PTR _j$[ebp]
  00745	89 04 95 00 00
	00 00		 mov	 DWORD PTR ?iBuyItemBtn@?1??StreetVendorBuyWndfunc@@YAXPAD@Z@4PAHA[edx*4], eax

; 1195 : 					if (ShowVendorItem[i].bBuy) 

  0074c	69 45 f4 68 05
	00 00		 imul	 eax, DWORD PTR _i$[ebp], 1384
  00753	0f b6 88 41 00
	00 00		 movzx	 ecx, BYTE PTR ?ShowVendorItem@@3PAU_Show_Vendor_Item@@A[eax+65]
  0075a	85 c9		 test	 ecx, ecx
  0075c	74 39		 je	 SHORT $LN78@StreetVend

; 1196 : 						StockBoxDispBuffer(x + 18, y + 19 + 28 * j, x + 280, y + 39 + 28 * j, DISP_PRIO_BOX2, SYSTEM_PAL_RED, 0);

  0075e	6a 00		 push	 0
  00760	68 f9 00 00 00	 push	 249			; 000000f9H
  00765	6a 6b		 push	 107			; 0000006bH
  00767	6b 45 e8 1c	 imul	 eax, DWORD PTR _j$[ebp], 28
  0076b	8b 4d d0	 mov	 ecx, DWORD PTR _y$[ebp]
  0076e	8d 54 01 27	 lea	 edx, DWORD PTR [ecx+eax+39]
  00772	52		 push	 edx
  00773	8b 45 dc	 mov	 eax, DWORD PTR _x$[ebp]
  00776	05 18 01 00 00	 add	 eax, 280		; 00000118H
  0077b	50		 push	 eax
  0077c	6b 4d e8 1c	 imul	 ecx, DWORD PTR _j$[ebp], 28
  00780	8b 55 d0	 mov	 edx, DWORD PTR _y$[ebp]
  00783	8d 44 0a 13	 lea	 eax, DWORD PTR [edx+ecx+19]
  00787	50		 push	 eax
  00788	8b 4d dc	 mov	 ecx, DWORD PTR _x$[ebp]
  0078b	83 c1 12	 add	 ecx, 18			; 00000012H
  0078e	51		 push	 ecx
  0078f	e8 00 00 00 00	 call	 ?StockBoxDispBuffer@@YAXHHHHEHH@Z ; StockBoxDispBuffer
  00794	83 c4 1c	 add	 esp, 28			; 0000001cH
$LN78@StreetVend:

; 1197 : 				}
; 1198 : 				else 

  00797	eb 30		 jmp	 SHORT $LN71@StreetVend
$LN70@StreetVend:

; 1199 : 					iBuyItemBtn[j] = StockFontBuffer(x + 20, y + 22 + 28 * j, FONT_PRIO_FRONT, FONT_PAL_WHITE, "", 0);

  00799	6a 00		 push	 0
  0079b	68 00 00 00 00	 push	 OFFSET ??_C@_00CNPNBAHC@?$AA@
  007a0	6a 00		 push	 0
  007a2	6a 01		 push	 1
  007a4	6b 45 e8 1c	 imul	 eax, DWORD PTR _j$[ebp], 28
  007a8	8b 4d d0	 mov	 ecx, DWORD PTR _y$[ebp]
  007ab	8d 54 01 16	 lea	 edx, DWORD PTR [ecx+eax+22]
  007af	52		 push	 edx
  007b0	8b 45 dc	 mov	 eax, DWORD PTR _x$[ebp]
  007b3	83 c0 14	 add	 eax, 20			; 00000014H
  007b6	50		 push	 eax
  007b7	e8 00 00 00 00	 call	 ?StockFontBuffer@@YAHHHDHPADH@Z ; StockFontBuffer
  007bc	83 c4 18	 add	 esp, 24			; 00000018H
  007bf	8b 4d e8	 mov	 ecx, DWORD PTR _j$[ebp]
  007c2	89 04 8d 00 00
	00 00		 mov	 DWORD PTR ?iBuyItemBtn@?1??StreetVendorBuyWndfunc@@YAXPAD@Z@4PAHA[ecx*4], eax
$LN71@StreetVend:

; 1200 : 			}

  007c9	e9 f0 fd ff ff	 jmp	 $LN16@StreetVend
$LN17@StreetVend:

; 1201 : 
; 1202 : 			// [搿  耄 ]
; 1203 : 			if (ShowVendorItem[iCurrentShow].bGetData){

  007ce	69 05 00 00 00
	00 68 05 00 00	 imul	 eax, DWORD PTR ?iCurrentShow@?1??StreetVendorBuyWndfunc@@YAXPAD@Z@4HA, 1384
  007d8	0f b6 88 42 00
	00 00		 movzx	 ecx, BYTE PTR ?ShowVendorItem@@3PAU_Show_Vendor_Item@@A[eax+66]
  007df	85 c9		 test	 ecx, ecx
  007e1	0f 84 da 0a 00
	00		 je	 $LN79@StreetVend

; 1204 : 				// [  耄 ]
; 1205 : 				if (ShowVendorItem[iCurrentShow].kind == 0){

  007e7	69 05 00 00 00
	00 68 05 00 00	 imul	 eax, DWORD PTR ?iCurrentShow@?1??StreetVendorBuyWndfunc@@YAXPAD@Z@4HA, 1384
  007f1	0f be 88 91 01
	00 00		 movsx	 ecx, BYTE PTR ?ShowVendorItem@@3PAU_Show_Vendor_Item@@A[eax+401]
  007f8	85 c9		 test	 ecx, ecx
  007fa	0f 85 b2 02 00
	00		 jne	 $LN80@StreetVend

; 1206 : 					int		iy = y + 198, color = ShowVendorItem[iCurrentShow].color;

  00800	8b 45 d0	 mov	 eax, DWORD PTR _y$[ebp]
  00803	05 c6 00 00 00	 add	 eax, 198		; 000000c6H
  00808	89 85 78 fa ff
	ff		 mov	 DWORD PTR _iy$18[ebp], eax
  0080e	69 05 00 00 00
	00 68 05 00 00	 imul	 eax, DWORD PTR ?iCurrentShow@?1??StreetVendorBuyWndfunc@@YAXPAD@Z@4HA, 1384
  00818	8b 88 0c 00 00
	00		 mov	 ecx, DWORD PTR ?ShowVendorItem@@3PAU_Show_Vendor_Item@@A[eax+12]
  0081e	89 8d 6c fa ff
	ff		 mov	 DWORD PTR _color$17[ebp], ecx

; 1207 : 					char	*splitPoint = ShowVendorItem[iCurrentShow].memo;

  00824	69 05 00 00 00
	00 68 05 00 00	 imul	 eax, DWORD PTR ?iCurrentShow@?1??StreetVendorBuyWndfunc@@YAXPAD@Z@4HA, 1384
  0082e	05 7d 00 00 00	 add	 eax, OFFSET ?ShowVendorItem@@3PAU_Show_Vendor_Item@@A+125
  00833	89 85 60 fa ff
	ff		 mov	 DWORD PTR _splitPoint$16[ebp], eax

; 1208 : 					// [氍 瓯半]
; 1209 : 					if (pShowPet != NULL){

  00839	83 3d 00 00 00
	00 00		 cmp	 DWORD PTR ?pShowPet@@3PAUaction@@A, 0 ; pShowPet
  00840	74 18		 je	 SHORT $LN82@StreetVend

; 1210 : 						DeathAction(pShowPet);

  00842	a1 00 00 00 00	 mov	 eax, DWORD PTR ?pShowPet@@3PAUaction@@A ; pShowPet
  00847	50		 push	 eax
  00848	e8 00 00 00 00	 call	 ?DeathAction@@YAXPAUaction@@@Z ; DeathAction
  0084d	83 c4 04	 add	 esp, 4

; 1211 : 						pShowPet = NULL;

  00850	c7 05 00 00 00
	00 00 00 00 00	 mov	 DWORD PTR ?pShowPet@@3PAUaction@@A, 0 ; pShowPet
$LN82@StreetVend:

; 1212 : 					}
; 1213 : 					// [ろ 甑]
; 1214 : 					StockDispBuffer(x + 415, y + 100, DISP_PRIO_ITEM, ShowVendorItem[iCurrentShow].bmpNo, 0);

  0085a	6a 00		 push	 0
  0085c	69 05 00 00 00
	00 68 05 00 00	 imul	 eax, DWORD PTR ?iCurrentShow@?1??StreetVendorBuyWndfunc@@YAXPAD@Z@4HA, 1384
  00866	8b 88 00 00 00
	00		 mov	 ecx, DWORD PTR ?ShowVendorItem@@3PAU_Show_Vendor_Item@@A[eax]
  0086c	51		 push	 ecx
  0086d	6a 6c		 push	 108			; 0000006cH
  0086f	8b 55 d0	 mov	 edx, DWORD PTR _y$[ebp]
  00872	83 c2 64	 add	 edx, 100		; 00000064H
  00875	52		 push	 edx
  00876	8b 45 dc	 mov	 eax, DWORD PTR _x$[ebp]
  00879	05 9f 01 00 00	 add	 eax, 415		; 0000019fH
  0087e	50		 push	 eax
  0087f	e8 00 00 00 00	 call	 ?StockDispBuffer@@YAHHHEHH@Z ; StockDispBuffer
  00884	83 c4 14	 add	 esp, 20			; 00000014H

; 1215 : 					// [甑 氚氚レ 措 ]
; 1216 : 					StockDispBuffer(x + 415, y + 100, DISP_PRIO_IME3, 26269, 0);

  00887	6a 00		 push	 0
  00889	68 9d 66 00 00	 push	 26269			; 0000669dH
  0088e	6a 69		 push	 105			; 00000069H
  00890	8b 45 d0	 mov	 eax, DWORD PTR _y$[ebp]
  00893	83 c0 64	 add	 eax, 100		; 00000064H
  00896	50		 push	 eax
  00897	8b 4d dc	 mov	 ecx, DWORD PTR _x$[ebp]
  0089a	81 c1 9f 01 00
	00		 add	 ecx, 415		; 0000019fH
  008a0	51		 push	 ecx
  008a1	e8 00 00 00 00	 call	 ?StockDispBuffer@@YAHHHEHH@Z ; StockDispBuffer
  008a6	83 c4 14	 add	 esp, 20			; 00000014H

; 1217 : 					// [ろ 甑 措]
; 1218 : 					StockFontBuffer(x + 325, y + 150, FONT_PRIO_FRONT, color, ShowVendorItem[iCurrentShow].name, 0);

  008a9	6a 00		 push	 0
  008ab	69 05 00 00 00
	00 68 05 00 00	 imul	 eax, DWORD PTR ?iCurrentShow@?1??StreetVendorBuyWndfunc@@YAXPAD@Z@4HA, 1384
  008b5	05 43 00 00 00	 add	 eax, OFFSET ?ShowVendorItem@@3PAU_Show_Vendor_Item@@A+67
  008ba	50		 push	 eax
  008bb	8b 8d 6c fa ff
	ff		 mov	 ecx, DWORD PTR _color$17[ebp]
  008c1	51		 push	 ecx
  008c2	6a 01		 push	 1
  008c4	8b 55 d0	 mov	 edx, DWORD PTR _y$[ebp]
  008c7	81 c2 96 00 00
	00		 add	 edx, 150		; 00000096H
  008cd	52		 push	 edx
  008ce	8b 45 dc	 mov	 eax, DWORD PTR _x$[ebp]
  008d1	05 45 01 00 00	 add	 eax, 325		; 00000145H
  008d6	50		 push	 eax
  008d7	e8 00 00 00 00	 call	 ?StockFontBuffer@@YAHHHDHPADH@Z ; StockFontBuffer
  008dc	83 c4 18	 add	 esp, 24			; 00000018H

; 1219 : 
; 1220 : 
; 1221 : 					// [甑 搓惮 ]
; 1222 : 					sprintf(szMsg, "搓惮(%s)", ShowVendorItem[iCurrentShow].damage);

  008df	69 05 00 00 00
	00 68 05 00 00	 imul	 eax, DWORD PTR ?iCurrentShow@?1??StreetVendorBuyWndfunc@@YAXPAD@Z@4HA, 1384
  008e9	05 d2 00 00 00	 add	 eax, OFFSET ?ShowVendorItem@@3PAU_Show_Vendor_Item@@A+210
  008ee	50		 push	 eax
  008ef	68 00 00 00 00	 push	 OFFSET ??_C@_0L@LDFFIDCJ@?$LD?$LL?$LB?$LI?$LH?B?$CI?$CFs?$CJ?$AA@
  008f4	8d 8d b0 fb ff
	ff		 lea	 ecx, DWORD PTR _szMsg$[ebp]
  008fa	51		 push	 ecx
  008fb	e8 00 00 00 00	 call	 _sprintf
  00900	83 c4 0c	 add	 esp, 12			; 0000000cH

; 1223 : 					StockFontBuffer(x + 325, y + 174, FONT_PRIO_FRONT, color, szMsg, 0);

  00903	6a 00		 push	 0
  00905	8d 85 b0 fb ff
	ff		 lea	 eax, DWORD PTR _szMsg$[ebp]
  0090b	50		 push	 eax
  0090c	8b 8d 6c fa ff
	ff		 mov	 ecx, DWORD PTR _color$17[ebp]
  00912	51		 push	 ecx
  00913	6a 01		 push	 1
  00915	8b 55 d0	 mov	 edx, DWORD PTR _y$[ebp]
  00918	81 c2 ae 00 00
	00		 add	 edx, 174		; 000000aeH
  0091e	52		 push	 edx
  0091f	8b 45 dc	 mov	 eax, DWORD PTR _x$[ebp]
  00922	05 45 01 00 00	 add	 eax, 325		; 00000145H
  00927	50		 push	 eax
  00928	e8 00 00 00 00	 call	 ?StockFontBuffer@@YAHHHDHPADH@Z ; StockFontBuffer
  0092d	83 c4 18	 add	 esp, 24			; 00000018H
$LN19@StreetVend:

; 1224 : 
; 1225 : 					// [ろ 甑 ]
; 1226 : 					while (1){

  00930	b8 01 00 00 00	 mov	 eax, 1
  00935	85 c0		 test	 eax, eax
  00937	0f 84 70 01 00
	00		 je	 $LN20@StreetVend

; 1227 : 						if (strlen(splitPoint) > 28){

  0093d	8b 85 60 fa ff
	ff		 mov	 eax, DWORD PTR _splitPoint$16[ebp]
  00943	50		 push	 eax
  00944	e8 00 00 00 00	 call	 _strlen
  00949	83 c4 04	 add	 esp, 4
  0094c	83 f8 1c	 cmp	 eax, 28			; 0000001cH
  0094f	0f 86 15 01 00
	00		 jbe	 $LN83@StreetVend

; 1228 : 							_snprintf(szMsg, 28, "%s", splitPoint);

  00955	8b 85 60 fa ff
	ff		 mov	 eax, DWORD PTR _splitPoint$16[ebp]
  0095b	50		 push	 eax
  0095c	68 00 00 00 00	 push	 OFFSET ??_C@_02DKCKIIND@?$CFs?$AA@
  00961	6a 1c		 push	 28			; 0000001cH
  00963	8d 8d b0 fb ff
	ff		 lea	 ecx, DWORD PTR _szMsg$[ebp]
  00969	51		 push	 ecx
  0096a	e8 00 00 00 00	 call	 __snprintf
  0096f	83 c4 10	 add	 esp, 16			; 00000010H

; 1229 : 							szMsg[28] = NULL;

  00972	b8 01 00 00 00	 mov	 eax, 1
  00977	6b c8 1c	 imul	 ecx, eax, 28
  0097a	89 8d e8 f6 ff
	ff		 mov	 DWORD PTR $T6[ebp], ecx
  00980	81 bd e8 f6 ff
	ff 00 04 00 00	 cmp	 DWORD PTR $T6[ebp], 1024 ; 00000400H
  0098a	73 02		 jae	 SHORT $LN134@StreetVend
  0098c	eb 05		 jmp	 SHORT $LN135@StreetVend
$LN134@StreetVend:
  0098e	e8 00 00 00 00	 call	 ___report_rangecheckfailure
$LN135@StreetVend:
  00993	8b 95 e8 f6 ff
	ff		 mov	 edx, DWORD PTR $T6[ebp]
  00999	c6 84 15 b0 fb
	ff ff 00	 mov	 BYTE PTR _szMsg$[ebp+edx], 0

; 1230 : 							if (GetStrLastByte(szMsg) == 3){

  009a1	8d 85 b0 fb ff
	ff		 lea	 eax, DWORD PTR _szMsg$[ebp]
  009a7	50		 push	 eax
  009a8	e8 00 00 00 00	 call	 ?GetStrLastByte@@YAHPAD@Z ; GetStrLastByte
  009ad	83 c4 04	 add	 esp, 4
  009b0	83 f8 03	 cmp	 eax, 3
  009b3	75 40		 jne	 SHORT $LN85@StreetVend

; 1231 : 								szMsg[27] = NULL;

  009b5	b8 01 00 00 00	 mov	 eax, 1
  009ba	6b c8 1b	 imul	 ecx, eax, 27
  009bd	89 8d dc f6 ff
	ff		 mov	 DWORD PTR $T5[ebp], ecx
  009c3	81 bd dc f6 ff
	ff 00 04 00 00	 cmp	 DWORD PTR $T5[ebp], 1024 ; 00000400H
  009cd	73 02		 jae	 SHORT $LN136@StreetVend
  009cf	eb 05		 jmp	 SHORT $LN137@StreetVend
$LN136@StreetVend:
  009d1	e8 00 00 00 00	 call	 ___report_rangecheckfailure
$LN137@StreetVend:
  009d6	8b 95 dc f6 ff
	ff		 mov	 edx, DWORD PTR $T5[ebp]
  009dc	c6 84 15 b0 fb
	ff ff 00	 mov	 BYTE PTR _szMsg$[ebp+edx], 0

; 1232 : 								splitPoint += 27;

  009e4	8b 85 60 fa ff
	ff		 mov	 eax, DWORD PTR _splitPoint$16[ebp]
  009ea	83 c0 1b	 add	 eax, 27			; 0000001bH
  009ed	89 85 60 fa ff
	ff		 mov	 DWORD PTR _splitPoint$16[ebp], eax

; 1233 : 							}else{

  009f3	eb 3e		 jmp	 SHORT $LN86@StreetVend
$LN85@StreetVend:

; 1234 : 								szMsg[28] = NULL;

  009f5	b8 01 00 00 00	 mov	 eax, 1
  009fa	6b c8 1c	 imul	 ecx, eax, 28
  009fd	89 8d d0 f6 ff
	ff		 mov	 DWORD PTR $T4[ebp], ecx
  00a03	81 bd d0 f6 ff
	ff 00 04 00 00	 cmp	 DWORD PTR $T4[ebp], 1024 ; 00000400H
  00a0d	73 02		 jae	 SHORT $LN138@StreetVend
  00a0f	eb 05		 jmp	 SHORT $LN139@StreetVend
$LN138@StreetVend:
  00a11	e8 00 00 00 00	 call	 ___report_rangecheckfailure
$LN139@StreetVend:
  00a16	8b 95 d0 f6 ff
	ff		 mov	 edx, DWORD PTR $T4[ebp]
  00a1c	c6 84 15 b0 fb
	ff ff 00	 mov	 BYTE PTR _szMsg$[ebp+edx], 0

; 1235 : 								splitPoint += 28;

  00a24	8b 85 60 fa ff
	ff		 mov	 eax, DWORD PTR _splitPoint$16[ebp]
  00a2a	83 c0 1c	 add	 eax, 28			; 0000001cH
  00a2d	89 85 60 fa ff
	ff		 mov	 DWORD PTR _splitPoint$16[ebp], eax
$LN86@StreetVend:

; 1236 : 							}
; 1237 : 							StockFontBuffer(x + 325, iy, FONT_PRIO_FRONT, 0, szMsg, 0);

  00a33	6a 00		 push	 0
  00a35	8d 85 b0 fb ff
	ff		 lea	 eax, DWORD PTR _szMsg$[ebp]
  00a3b	50		 push	 eax
  00a3c	6a 00		 push	 0
  00a3e	6a 01		 push	 1
  00a40	8b 8d 78 fa ff
	ff		 mov	 ecx, DWORD PTR _iy$18[ebp]
  00a46	51		 push	 ecx
  00a47	8b 55 dc	 mov	 edx, DWORD PTR _x$[ebp]
  00a4a	81 c2 45 01 00
	00		 add	 edx, 325		; 00000145H
  00a50	52		 push	 edx
  00a51	e8 00 00 00 00	 call	 ?StockFontBuffer@@YAHHHDHPADH@Z ; StockFontBuffer
  00a56	83 c4 18	 add	 esp, 24			; 00000018H

; 1238 : 							iy += 24;

  00a59	8b 85 78 fa ff
	ff		 mov	 eax, DWORD PTR _iy$18[ebp]
  00a5f	83 c0 18	 add	 eax, 24			; 00000018H
  00a62	89 85 78 fa ff
	ff		 mov	 DWORD PTR _iy$18[ebp], eax

; 1239 : 						}else{

  00a68	eb 3e		 jmp	 SHORT $LN84@StreetVend
$LN83@StreetVend:

; 1240 : 							strcpy(szMsg, splitPoint);

  00a6a	8b 85 60 fa ff
	ff		 mov	 eax, DWORD PTR _splitPoint$16[ebp]
  00a70	50		 push	 eax
  00a71	8d 8d b0 fb ff
	ff		 lea	 ecx, DWORD PTR _szMsg$[ebp]
  00a77	51		 push	 ecx
  00a78	e8 00 00 00 00	 call	 _strcpy
  00a7d	83 c4 08	 add	 esp, 8

; 1241 : 							StockFontBuffer(x + 325, iy, FONT_PRIO_FRONT, 0, szMsg, 0);

  00a80	6a 00		 push	 0
  00a82	8d 85 b0 fb ff
	ff		 lea	 eax, DWORD PTR _szMsg$[ebp]
  00a88	50		 push	 eax
  00a89	6a 00		 push	 0
  00a8b	6a 01		 push	 1
  00a8d	8b 8d 78 fa ff
	ff		 mov	 ecx, DWORD PTR _iy$18[ebp]
  00a93	51		 push	 ecx
  00a94	8b 55 dc	 mov	 edx, DWORD PTR _x$[ebp]
  00a97	81 c2 45 01 00
	00		 add	 edx, 325		; 00000145H
  00a9d	52		 push	 edx
  00a9e	e8 00 00 00 00	 call	 ?StockFontBuffer@@YAHHHDHPADH@Z ; StockFontBuffer
  00aa3	83 c4 18	 add	 esp, 24			; 00000018H

; 1242 : 							break;

  00aa6	eb 05		 jmp	 SHORT $LN20@StreetVend
$LN84@StreetVend:

; 1243 : 						}
; 1244 : 					}

  00aa8	e9 83 fe ff ff	 jmp	 $LN19@StreetVend
$LN20@StreetVend:

; 1245 : 				}else{// [  耄 ]

  00aad	e9 0f 08 00 00	 jmp	 $LN79@StreetVend
$LN80@StreetVend:

; 1246 : 					if (pShowPet != NULL){

  00ab2	83 3d 00 00 00
	00 00		 cmp	 DWORD PTR ?pShowPet@@3PAUaction@@A, 0 ; pShowPet
  00ab9	0f 84 02 08 00
	00		 je	 $LN79@StreetVend

; 1247 : #ifdef _PET_ITEM
; 1248 : 						// [胳 氇疙 甑毳 ]
; 1249 : 						if (bViewPetItem){

  00abf	83 3d 00 00 00
	00 00		 cmp	 DWORD PTR ?bViewPetItem@?1??StreetVendorBuyWndfunc@@YAXPAD@Z@4HA, 0
  00ac6	0f 84 a9 03 00
	00		 je	 $LN88@StreetVend

; 1250 : 							int		nY = 251, nColor;

  00acc	c7 85 54 fa ff
	ff fb 00 00 00	 mov	 DWORD PTR _nY$15[ebp], 251 ; 000000fbH

; 1251 : 							char	*splitPoint;
; 1252 : 
; 1253 : 							// [ ル 欷 氚攴鸽 氚 ル]
; 1254 : 							for (i = 0; i < PET_EQUIPNUM; i++){	

  00ad6	c7 45 f4 00 00
	00 00		 mov	 DWORD PTR _i$[ebp], 0
  00add	eb 09		 jmp	 SHORT $LN23@StreetVend
$LN21@StreetVend:
  00adf	8b 45 f4	 mov	 eax, DWORD PTR _i$[ebp]
  00ae2	83 c0 01	 add	 eax, 1
  00ae5	89 45 f4	 mov	 DWORD PTR _i$[ebp], eax
$LN23@StreetVend:
  00ae8	83 7d f4 07	 cmp	 DWORD PTR _i$[ebp], 7
  00aec	0f 8d 98 00 00
	00		 jge	 $LN22@StreetVend

; 1255 : 								StockDispBuffer(ItemBuffer[i].defX, ItemBuffer[i].defY, DISP_PRIO_IME3, nPetItemEquipBmpNumber[i][0], 0);

  00af2	6a 00		 push	 0
  00af4	b8 04 00 00 00	 mov	 eax, 4
  00af9	6b c8 00	 imul	 ecx, eax, 0
  00afc	8b 55 f4	 mov	 edx, DWORD PTR _i$[ebp]
  00aff	8b 84 d1 00 00
	00 00		 mov	 eax, DWORD PTR ?nPetItemEquipBmpNumber@@3PAY01HA[ecx+edx*8]
  00b06	50		 push	 eax
  00b07	6a 69		 push	 105			; 00000069H
  00b09	8b 4d f4	 mov	 ecx, DWORD PTR _i$[ebp]
  00b0c	c1 e1 05	 shl	 ecx, 5
  00b0f	8b 91 0c 00 00
	00		 mov	 edx, DWORD PTR ?ItemBuffer@@3PAUITEM_BUFFER@@A[ecx+12]
  00b15	52		 push	 edx
  00b16	8b 45 f4	 mov	 eax, DWORD PTR _i$[ebp]
  00b19	c1 e0 05	 shl	 eax, 5
  00b1c	8b 88 08 00 00
	00		 mov	 ecx, DWORD PTR ?ItemBuffer@@3PAUITEM_BUFFER@@A[eax+8]
  00b22	51		 push	 ecx
  00b23	e8 00 00 00 00	 call	 ?StockDispBuffer@@YAHHHEHH@Z ; StockDispBuffer
  00b28	83 c4 14	 add	 esp, 20			; 00000014H

; 1256 : 								if (ShowVendorItem[iCurrentShow].oPetItemInfo[i].bmpNo > 0)

  00b2b	69 05 00 00 00
	00 68 05 00 00	 imul	 eax, DWORD PTR ?iCurrentShow@?1??StreetVendorBuyWndfunc@@YAXPAD@Z@4HA, 1384
  00b35	69 4d f4 8c 00
	00 00		 imul	 ecx, DWORD PTR _i$[ebp], 140
  00b3c	83 bc 08 94 01
	00 00 00	 cmp	 DWORD PTR ?ShowVendorItem@@3PAU_Show_Vendor_Item@@A[eax+ecx+404], 0
  00b44	7e 3f		 jle	 SHORT $LN90@StreetVend

; 1257 : 									StockDispBuffer(ItemBuffer[i].defX, ItemBuffer[i].defY, DISP_PRIO_ITEM, ShowVendorItem[iCurrentShow].oPetItemInfo[i].bmpNo, 0);

  00b46	6a 00		 push	 0
  00b48	69 05 00 00 00
	00 68 05 00 00	 imul	 eax, DWORD PTR ?iCurrentShow@?1??StreetVendorBuyWndfunc@@YAXPAD@Z@4HA, 1384
  00b52	69 4d f4 8c 00
	00 00		 imul	 ecx, DWORD PTR _i$[ebp], 140
  00b59	8b 94 08 94 01
	00 00		 mov	 edx, DWORD PTR ?ShowVendorItem@@3PAU_Show_Vendor_Item@@A[eax+ecx+404]
  00b60	52		 push	 edx
  00b61	6a 6c		 push	 108			; 0000006cH
  00b63	8b 45 f4	 mov	 eax, DWORD PTR _i$[ebp]
  00b66	c1 e0 05	 shl	 eax, 5
  00b69	8b 88 0c 00 00
	00		 mov	 ecx, DWORD PTR ?ItemBuffer@@3PAUITEM_BUFFER@@A[eax+12]
  00b6f	51		 push	 ecx
  00b70	8b 55 f4	 mov	 edx, DWORD PTR _i$[ebp]
  00b73	c1 e2 05	 shl	 edx, 5
  00b76	8b 82 08 00 00
	00		 mov	 eax, DWORD PTR ?ItemBuffer@@3PAUITEM_BUFFER@@A[edx+8]
  00b7c	50		 push	 eax
  00b7d	e8 00 00 00 00	 call	 ?StockDispBuffer@@YAHHHEHH@Z ; StockDispBuffer
  00b82	83 c4 14	 add	 esp, 20			; 00000014H
$LN90@StreetVend:

; 1258 : 							}

  00b85	e9 55 ff ff ff	 jmp	 $LN21@StreetVend
$LN22@StreetVend:

; 1259 : 							for (i = 0; i < PET_EQUIPNUM; i++){

  00b8a	c7 45 f4 00 00
	00 00		 mov	 DWORD PTR _i$[ebp], 0
  00b91	eb 09		 jmp	 SHORT $LN26@StreetVend
$LN24@StreetVend:
  00b93	8b 45 f4	 mov	 eax, DWORD PTR _i$[ebp]
  00b96	83 c0 01	 add	 eax, 1
  00b99	89 45 f4	 mov	 DWORD PTR _i$[ebp], eax
$LN26@StreetVend:
  00b9c	83 7d f4 07	 cmp	 DWORD PTR _i$[ebp], 7
  00ba0	0f 8d ca 02 00
	00		 jge	 $LN25@StreetVend

; 1260 : 								// ろ ル 挫]
; 1261 : 								if (MakeHitBox( ItemBuffer[i].defX - 26, ItemBuffer[i].defY - 26,ItemBuffer[i].defX + 26, ItemBuffer[i].defY + 23, DISP_PRIO_IME3) == TRUE){

  00ba6	6a 69		 push	 105			; 00000069H
  00ba8	8b 45 f4	 mov	 eax, DWORD PTR _i$[ebp]
  00bab	c1 e0 05	 shl	 eax, 5
  00bae	8b 88 0c 00 00
	00		 mov	 ecx, DWORD PTR ?ItemBuffer@@3PAUITEM_BUFFER@@A[eax+12]
  00bb4	83 c1 17	 add	 ecx, 23			; 00000017H
  00bb7	51		 push	 ecx
  00bb8	8b 55 f4	 mov	 edx, DWORD PTR _i$[ebp]
  00bbb	c1 e2 05	 shl	 edx, 5
  00bbe	8b 82 08 00 00
	00		 mov	 eax, DWORD PTR ?ItemBuffer@@3PAUITEM_BUFFER@@A[edx+8]
  00bc4	83 c0 1a	 add	 eax, 26			; 0000001aH
  00bc7	50		 push	 eax
  00bc8	8b 4d f4	 mov	 ecx, DWORD PTR _i$[ebp]
  00bcb	c1 e1 05	 shl	 ecx, 5
  00bce	8b 91 0c 00 00
	00		 mov	 edx, DWORD PTR ?ItemBuffer@@3PAUITEM_BUFFER@@A[ecx+12]
  00bd4	83 ea 1a	 sub	 edx, 26			; 0000001aH
  00bd7	52		 push	 edx
  00bd8	8b 45 f4	 mov	 eax, DWORD PTR _i$[ebp]
  00bdb	c1 e0 05	 shl	 eax, 5
  00bde	8b 88 08 00 00
	00		 mov	 ecx, DWORD PTR ?ItemBuffer@@3PAUITEM_BUFFER@@A[eax+8]
  00be4	83 e9 1a	 sub	 ecx, 26			; 0000001aH
  00be7	51		 push	 ecx
  00be8	e8 00 00 00 00	 call	 ?MakeHitBox@@YAHHHHHH@Z	; MakeHitBox
  00bed	83 c4 14	 add	 esp, 20			; 00000014H
  00bf0	83 f8 01	 cmp	 eax, 1
  00bf3	0f 85 72 02 00
	00		 jne	 $LN91@StreetVend

; 1262 : 									if (ShowVendorItem[iCurrentShow].oPetItemInfo[i].bmpNo > 0){

  00bf9	69 05 00 00 00
	00 68 05 00 00	 imul	 eax, DWORD PTR ?iCurrentShow@?1??StreetVendorBuyWndfunc@@YAXPAD@Z@4HA, 1384
  00c03	69 4d f4 8c 00
	00 00		 imul	 ecx, DWORD PTR _i$[ebp], 140
  00c0a	83 bc 08 94 01
	00 00 00	 cmp	 DWORD PTR ?ShowVendorItem@@3PAU_Show_Vendor_Item@@A[eax+ecx+404], 0
  00c12	0f 8e 53 02 00
	00		 jle	 $LN91@StreetVend

; 1263 : 										nColor = ShowVendorItem[iCurrentShow].oPetItemInfo[i].color;

  00c18	69 05 00 00 00
	00 68 05 00 00	 imul	 eax, DWORD PTR ?iCurrentShow@?1??StreetVendorBuyWndfunc@@YAXPAD@Z@4HA, 1384
  00c22	69 4d f4 8c 00
	00 00		 imul	 ecx, DWORD PTR _i$[ebp], 140
  00c29	8b 94 08 98 01
	00 00		 mov	 edx, DWORD PTR ?ShowVendorItem@@3PAU_Show_Vendor_Item@@A[eax+ecx+408]
  00c30	89 95 48 fa ff
	ff		 mov	 DWORD PTR _nColor$14[ebp], edx

; 1264 : 										splitPoint = ShowVendorItem[iCurrentShow].oPetItemInfo[i].memo;

  00c36	69 05 00 00 00
	00 68 05 00 00	 imul	 eax, DWORD PTR ?iCurrentShow@?1??StreetVendorBuyWndfunc@@YAXPAD@Z@4HA, 1384
  00c40	69 4d f4 8c 00
	00 00		 imul	 ecx, DWORD PTR _i$[ebp], 140
  00c47	8d 94 08 9c 01
	00 00		 lea	 edx, DWORD PTR ?ShowVendorItem@@3PAU_Show_Vendor_Item@@A[eax+ecx+412]
  00c4e	89 95 3c fa ff
	ff		 mov	 DWORD PTR _splitPoint$13[ebp], edx

; 1265 : 										// [ル氇旃]
; 1266 : 										StockFontBuffer(x + 325, y + 195, FONT_PRIO_FRONT, nColor, ShowVendorItem[iCurrentShow].oPetItemInfo[i].name,0);

  00c54	6a 00		 push	 0
  00c56	69 05 00 00 00
	00 68 05 00 00	 imul	 eax, DWORD PTR ?iCurrentShow@?1??StreetVendorBuyWndfunc@@YAXPAD@Z@4HA, 1384
  00c60	69 4d f4 8c 00
	00 00		 imul	 ecx, DWORD PTR _i$[ebp], 140
  00c67	8d 94 08 f1 01
	00 00		 lea	 edx, DWORD PTR ?ShowVendorItem@@3PAU_Show_Vendor_Item@@A[eax+ecx+497]
  00c6e	52		 push	 edx
  00c6f	8b 85 48 fa ff
	ff		 mov	 eax, DWORD PTR _nColor$14[ebp]
  00c75	50		 push	 eax
  00c76	6a 01		 push	 1
  00c78	8b 4d d0	 mov	 ecx, DWORD PTR _y$[ebp]
  00c7b	81 c1 c3 00 00
	00		 add	 ecx, 195		; 000000c3H
  00c81	51		 push	 ecx
  00c82	8b 55 dc	 mov	 edx, DWORD PTR _x$[ebp]
  00c85	81 c2 45 01 00
	00		 add	 edx, 325		; 00000145H
  00c8b	52		 push	 edx
  00c8c	e8 00 00 00 00	 call	 ?StockFontBuffer@@YAHHHDHPADH@Z ; StockFontBuffer
  00c91	83 c4 18	 add	 esp, 24			; 00000018H

; 1267 : 										// [搓惮]
; 1268 : 										sprintf(szMsg, "搓惮(%s)", ShowVendorItem[iCurrentShow].oPetItemInfo[i].damage);

  00c94	69 05 00 00 00
	00 68 05 00 00	 imul	 eax, DWORD PTR ?iCurrentShow@?1??StreetVendorBuyWndfunc@@YAXPAD@Z@4HA, 1384
  00c9e	69 4d f4 8c 00
	00 00		 imul	 ecx, DWORD PTR _i$[ebp], 140
  00ca5	8d 94 08 0e 02
	00 00		 lea	 edx, DWORD PTR ?ShowVendorItem@@3PAU_Show_Vendor_Item@@A[eax+ecx+526]
  00cac	52		 push	 edx
  00cad	68 00 00 00 00	 push	 OFFSET ??_C@_0L@LDFFIDCJ@?$LD?$LL?$LB?$LI?$LH?B?$CI?$CFs?$CJ?$AA@
  00cb2	8d 85 b0 fb ff
	ff		 lea	 eax, DWORD PTR _szMsg$[ebp]
  00cb8	50		 push	 eax
  00cb9	e8 00 00 00 00	 call	 _sprintf
  00cbe	83 c4 0c	 add	 esp, 12			; 0000000cH

; 1269 : 										StockFontBuffer(x + 325, y + 215, FONT_PRIO_FRONT, nColor, szMsg, 0);

  00cc1	6a 00		 push	 0
  00cc3	8d 85 b0 fb ff
	ff		 lea	 eax, DWORD PTR _szMsg$[ebp]
  00cc9	50		 push	 eax
  00cca	8b 8d 48 fa ff
	ff		 mov	 ecx, DWORD PTR _nColor$14[ebp]
  00cd0	51		 push	 ecx
  00cd1	6a 01		 push	 1
  00cd3	8b 55 d0	 mov	 edx, DWORD PTR _y$[ebp]
  00cd6	81 c2 d7 00 00
	00		 add	 edx, 215		; 000000d7H
  00cdc	52		 push	 edx
  00cdd	8b 45 dc	 mov	 eax, DWORD PTR _x$[ebp]
  00ce0	05 45 01 00 00	 add	 eax, 325		; 00000145H
  00ce5	50		 push	 eax
  00ce6	e8 00 00 00 00	 call	 ?StockFontBuffer@@YAHHHDHPADH@Z ; StockFontBuffer
  00ceb	83 c4 18	 add	 esp, 24			; 00000018H
$LN27@StreetVend:

; 1270 : 										// [ろ 甑 ]
; 1271 : 										while (1)

  00cee	b8 01 00 00 00	 mov	 eax, 1
  00cf3	85 c0		 test	 eax, eax
  00cf5	0f 84 70 01 00
	00		 je	 $LN91@StreetVend

; 1272 : 										{
; 1273 : 											if (strlen(splitPoint) > 28)

  00cfb	8b 85 3c fa ff
	ff		 mov	 eax, DWORD PTR _splitPoint$13[ebp]
  00d01	50		 push	 eax
  00d02	e8 00 00 00 00	 call	 _strlen
  00d07	83 c4 04	 add	 esp, 4
  00d0a	83 f8 1c	 cmp	 eax, 28			; 0000001cH
  00d0d	0f 86 15 01 00
	00		 jbe	 $LN93@StreetVend

; 1274 : 											{
; 1275 : 												_snprintf(szMsg, 28, "%s", splitPoint);

  00d13	8b 85 3c fa ff
	ff		 mov	 eax, DWORD PTR _splitPoint$13[ebp]
  00d19	50		 push	 eax
  00d1a	68 00 00 00 00	 push	 OFFSET ??_C@_02DKCKIIND@?$CFs?$AA@
  00d1f	6a 1c		 push	 28			; 0000001cH
  00d21	8d 8d b0 fb ff
	ff		 lea	 ecx, DWORD PTR _szMsg$[ebp]
  00d27	51		 push	 ecx
  00d28	e8 00 00 00 00	 call	 __snprintf
  00d2d	83 c4 10	 add	 esp, 16			; 00000010H

; 1276 : 												szMsg[28] = NULL;

  00d30	b8 01 00 00 00	 mov	 eax, 1
  00d35	6b c8 1c	 imul	 ecx, eax, 28
  00d38	89 8d c4 f6 ff
	ff		 mov	 DWORD PTR $T3[ebp], ecx
  00d3e	81 bd c4 f6 ff
	ff 00 04 00 00	 cmp	 DWORD PTR $T3[ebp], 1024 ; 00000400H
  00d48	73 02		 jae	 SHORT $LN140@StreetVend
  00d4a	eb 05		 jmp	 SHORT $LN141@StreetVend
$LN140@StreetVend:
  00d4c	e8 00 00 00 00	 call	 ___report_rangecheckfailure
$LN141@StreetVend:
  00d51	8b 95 c4 f6 ff
	ff		 mov	 edx, DWORD PTR $T3[ebp]
  00d57	c6 84 15 b0 fb
	ff ff 00	 mov	 BYTE PTR _szMsg$[ebp+edx], 0

; 1277 : 												if (GetStrLastByte(szMsg) == 3)

  00d5f	8d 85 b0 fb ff
	ff		 lea	 eax, DWORD PTR _szMsg$[ebp]
  00d65	50		 push	 eax
  00d66	e8 00 00 00 00	 call	 ?GetStrLastByte@@YAHPAD@Z ; GetStrLastByte
  00d6b	83 c4 04	 add	 esp, 4
  00d6e	83 f8 03	 cmp	 eax, 3
  00d71	75 40		 jne	 SHORT $LN95@StreetVend

; 1278 : 												{
; 1279 : 													szMsg[27] = NULL;

  00d73	b8 01 00 00 00	 mov	 eax, 1
  00d78	6b c8 1b	 imul	 ecx, eax, 27
  00d7b	89 8d b8 f6 ff
	ff		 mov	 DWORD PTR $T2[ebp], ecx
  00d81	81 bd b8 f6 ff
	ff 00 04 00 00	 cmp	 DWORD PTR $T2[ebp], 1024 ; 00000400H
  00d8b	73 02		 jae	 SHORT $LN142@StreetVend
  00d8d	eb 05		 jmp	 SHORT $LN143@StreetVend
$LN142@StreetVend:
  00d8f	e8 00 00 00 00	 call	 ___report_rangecheckfailure
$LN143@StreetVend:
  00d94	8b 95 b8 f6 ff
	ff		 mov	 edx, DWORD PTR $T2[ebp]
  00d9a	c6 84 15 b0 fb
	ff ff 00	 mov	 BYTE PTR _szMsg$[ebp+edx], 0

; 1280 : 													splitPoint += 27;

  00da2	8b 85 3c fa ff
	ff		 mov	 eax, DWORD PTR _splitPoint$13[ebp]
  00da8	83 c0 1b	 add	 eax, 27			; 0000001bH
  00dab	89 85 3c fa ff
	ff		 mov	 DWORD PTR _splitPoint$13[ebp], eax

; 1281 : 												}
; 1282 : 												else

  00db1	eb 3e		 jmp	 SHORT $LN96@StreetVend
$LN95@StreetVend:

; 1283 : 												{
; 1284 : 													szMsg[28] = NULL;

  00db3	b8 01 00 00 00	 mov	 eax, 1
  00db8	6b c8 1c	 imul	 ecx, eax, 28
  00dbb	89 8d ac f6 ff
	ff		 mov	 DWORD PTR $T1[ebp], ecx
  00dc1	81 bd ac f6 ff
	ff 00 04 00 00	 cmp	 DWORD PTR $T1[ebp], 1024 ; 00000400H
  00dcb	73 02		 jae	 SHORT $LN144@StreetVend
  00dcd	eb 05		 jmp	 SHORT $LN145@StreetVend
$LN144@StreetVend:
  00dcf	e8 00 00 00 00	 call	 ___report_rangecheckfailure
$LN145@StreetVend:
  00dd4	8b 95 ac f6 ff
	ff		 mov	 edx, DWORD PTR $T1[ebp]
  00dda	c6 84 15 b0 fb
	ff ff 00	 mov	 BYTE PTR _szMsg$[ebp+edx], 0

; 1285 : 													splitPoint += 28;

  00de2	8b 85 3c fa ff
	ff		 mov	 eax, DWORD PTR _splitPoint$13[ebp]
  00de8	83 c0 1c	 add	 eax, 28			; 0000001cH
  00deb	89 85 3c fa ff
	ff		 mov	 DWORD PTR _splitPoint$13[ebp], eax
$LN96@StreetVend:

; 1286 : 												}
; 1287 : 												StockFontBuffer(x + 325, nY, FONT_PRIO_FRONT, 0, szMsg, 0);

  00df1	6a 00		 push	 0
  00df3	8d 85 b0 fb ff
	ff		 lea	 eax, DWORD PTR _szMsg$[ebp]
  00df9	50		 push	 eax
  00dfa	6a 00		 push	 0
  00dfc	6a 01		 push	 1
  00dfe	8b 8d 54 fa ff
	ff		 mov	 ecx, DWORD PTR _nY$15[ebp]
  00e04	51		 push	 ecx
  00e05	8b 55 dc	 mov	 edx, DWORD PTR _x$[ebp]
  00e08	81 c2 45 01 00
	00		 add	 edx, 325		; 00000145H
  00e0e	52		 push	 edx
  00e0f	e8 00 00 00 00	 call	 ?StockFontBuffer@@YAHHHDHPADH@Z ; StockFontBuffer
  00e14	83 c4 18	 add	 esp, 24			; 00000018H

; 1288 : 												nY += 24;

  00e17	8b 85 54 fa ff
	ff		 mov	 eax, DWORD PTR _nY$15[ebp]
  00e1d	83 c0 18	 add	 eax, 24			; 00000018H
  00e20	89 85 54 fa ff
	ff		 mov	 DWORD PTR _nY$15[ebp], eax

; 1289 : 											}
; 1290 : 											else

  00e26	eb 3e		 jmp	 SHORT $LN94@StreetVend
$LN93@StreetVend:

; 1291 : 											{
; 1292 : 												strcpy(szMsg, splitPoint);

  00e28	8b 85 3c fa ff
	ff		 mov	 eax, DWORD PTR _splitPoint$13[ebp]
  00e2e	50		 push	 eax
  00e2f	8d 8d b0 fb ff
	ff		 lea	 ecx, DWORD PTR _szMsg$[ebp]
  00e35	51		 push	 ecx
  00e36	e8 00 00 00 00	 call	 _strcpy
  00e3b	83 c4 08	 add	 esp, 8

; 1293 : 												StockFontBuffer(x + 325, nY, FONT_PRIO_FRONT, 0, szMsg, 0);

  00e3e	6a 00		 push	 0
  00e40	8d 85 b0 fb ff
	ff		 lea	 eax, DWORD PTR _szMsg$[ebp]
  00e46	50		 push	 eax
  00e47	6a 00		 push	 0
  00e49	6a 01		 push	 1
  00e4b	8b 8d 54 fa ff
	ff		 mov	 ecx, DWORD PTR _nY$15[ebp]
  00e51	51		 push	 ecx
  00e52	8b 55 dc	 mov	 edx, DWORD PTR _x$[ebp]
  00e55	81 c2 45 01 00
	00		 add	 edx, 325		; 00000145H
  00e5b	52		 push	 edx
  00e5c	e8 00 00 00 00	 call	 ?StockFontBuffer@@YAHHHDHPADH@Z ; StockFontBuffer
  00e61	83 c4 18	 add	 esp, 24			; 00000018H

; 1294 : 												break;

  00e64	eb 05		 jmp	 SHORT $LN91@StreetVend
$LN94@StreetVend:

; 1295 : 											}
; 1296 : 										}

  00e66	e9 83 fe ff ff	 jmp	 $LN27@StreetVend
$LN91@StreetVend:

; 1297 : 									}
; 1298 : 								}
; 1299 : 							}

  00e6b	e9 23 fd ff ff	 jmp	 $LN24@StreetVend
$LN25@StreetVend:

; 1300 : 						}
; 1301 : 						else

  00e70	e9 4c 04 00 00	 jmp	 $LN79@StreetVend
$LN88@StreetVend:

; 1302 : #endif
; 1303 : 						{
; 1304 : 							// [ 措 ]
; 1305 : 							StockFontBuffer(x + 325, y + 35, FONT_PRIO_FRONT, FONT_PAL_WHITE, ShowVendorItem[iCurrentShow].name, 0);

  00e75	6a 00		 push	 0
  00e77	69 05 00 00 00
	00 68 05 00 00	 imul	 eax, DWORD PTR ?iCurrentShow@?1??StreetVendorBuyWndfunc@@YAXPAD@Z@4HA, 1384
  00e81	05 43 00 00 00	 add	 eax, OFFSET ?ShowVendorItem@@3PAU_Show_Vendor_Item@@A+67
  00e86	50		 push	 eax
  00e87	6a 00		 push	 0
  00e89	6a 01		 push	 1
  00e8b	8b 4d d0	 mov	 ecx, DWORD PTR _y$[ebp]
  00e8e	83 c1 23	 add	 ecx, 35			; 00000023H
  00e91	51		 push	 ecx
  00e92	8b 55 dc	 mov	 edx, DWORD PTR _x$[ebp]
  00e95	81 c2 45 01 00
	00		 add	 edx, 325		; 00000145H
  00e9b	52		 push	 edx
  00e9c	e8 00 00 00 00	 call	 ?StockFontBuffer@@YAHHHDHPADH@Z ; StockFontBuffer
  00ea1	83 c4 18	 add	 esp, 24			; 00000018H

; 1306 : 							// [  毳 ]
; 1307 : 							sprintf(szMsg, "%d ", ShowVendorItem[iCurrentShow].trans);

  00ea4	69 05 00 00 00
	00 68 05 00 00	 imul	 eax, DWORD PTR ?iCurrentShow@?1??StreetVendorBuyWndfunc@@YAXPAD@Z@4HA, 1384
  00eae	0f be 88 92 01
	00 00		 movsx	 ecx, BYTE PTR ?ShowVendorItem@@3PAU_Show_Vendor_Item@@A[eax+402]
  00eb5	51		 push	 ecx
  00eb6	68 00 00 00 00	 push	 OFFSET ??_C@_07HLBLNMPK@?$CFd?5?H?$LI?$MA?$PM?$AA@
  00ebb	8d 95 b0 fb ff
	ff		 lea	 edx, DWORD PTR _szMsg$[ebp]
  00ec1	52		 push	 edx
  00ec2	e8 00 00 00 00	 call	 _sprintf
  00ec7	83 c4 0c	 add	 esp, 12			; 0000000cH

; 1308 : 							StockFontBuffer(x + 570, y + 35, FONT_PRIO_FRONT, FONT_PAL_WHITE, szMsg, 0);

  00eca	6a 00		 push	 0
  00ecc	8d 85 b0 fb ff
	ff		 lea	 eax, DWORD PTR _szMsg$[ebp]
  00ed2	50		 push	 eax
  00ed3	6a 00		 push	 0
  00ed5	6a 01		 push	 1
  00ed7	8b 4d d0	 mov	 ecx, DWORD PTR _y$[ebp]
  00eda	83 c1 23	 add	 ecx, 35			; 00000023H
  00edd	51		 push	 ecx
  00ede	8b 55 dc	 mov	 edx, DWORD PTR _x$[ebp]
  00ee1	81 c2 3a 02 00
	00		 add	 edx, 570		; 0000023aH
  00ee7	52		 push	 edx
  00ee8	e8 00 00 00 00	 call	 ?StockFontBuffer@@YAHHHDHPADH@Z ; StockFontBuffer
  00eed	83 c4 18	 add	 esp, 24			; 00000018H

; 1309 : 							// [ 臧毳 措 措]
; 1310 : 							StockFontBuffer(x + 325, y + 55, FONT_PRIO_FRONT, FONT_PAL_RED, ShowVendorItem[iCurrentShow].freeName, 0);

  00ef0	6a 00		 push	 0
  00ef2	69 05 00 00 00
	00 68 05 00 00	 imul	 eax, DWORD PTR ?iCurrentShow@?1??StreetVendorBuyWndfunc@@YAXPAD@Z@4HA, 1384
  00efc	05 60 00 00 00	 add	 eax, OFFSET ?ShowVendorItem@@3PAU_Show_Vendor_Item@@A+96
  00f01	50		 push	 eax
  00f02	6a 06		 push	 6
  00f04	6a 01		 push	 1
  00f06	8b 4d d0	 mov	 ecx, DWORD PTR _y$[ebp]
  00f09	83 c1 37	 add	 ecx, 55			; 00000037H
  00f0c	51		 push	 ecx
  00f0d	8b 55 dc	 mov	 edx, DWORD PTR _x$[ebp]
  00f10	81 c2 45 01 00
	00		 add	 edx, 325		; 00000145H
  00f16	52		 push	 edx
  00f17	e8 00 00 00 00	 call	 ?StockFontBuffer@@YAHHHDHPADH@Z ; StockFontBuffer
  00f1c	83 c4 18	 add	 esp, 24			; 00000018H

; 1311 : 							// [ 标, 搓惮, 瓿店博, 氚, 氙  臧歆 膘 .]
; 1312 : 							sprintf(szMsg, "Lv锛%d", ShowVendorItem[iCurrentShow].level);

  00f1f	69 05 00 00 00
	00 68 05 00 00	 imul	 eax, DWORD PTR ?iCurrentShow@?1??StreetVendorBuyWndfunc@@YAXPAD@Z@4HA, 1384
  00f29	8b 88 10 00 00
	00		 mov	 ecx, DWORD PTR ?ShowVendorItem@@3PAU_Show_Vendor_Item@@A[eax+16]
  00f2f	51		 push	 ecx
  00f30	68 00 00 00 00	 push	 OFFSET ??_C@_06EGBMLAEA@Lv?$KD?$LK?$CFd?$AA@
  00f35	8d 95 b0 fb ff
	ff		 lea	 edx, DWORD PTR _szMsg$[ebp]
  00f3b	52		 push	 edx
  00f3c	e8 00 00 00 00	 call	 _sprintf
  00f41	83 c4 0c	 add	 esp, 12			; 0000000cH

; 1313 : 							StockFontBuffer(x + 325, y + 80, FONT_PRIO_FRONT, FONT_PAL_WHITE, szMsg, 0);

  00f44	6a 00		 push	 0
  00f46	8d 85 b0 fb ff
	ff		 lea	 eax, DWORD PTR _szMsg$[ebp]
  00f4c	50		 push	 eax
  00f4d	6a 00		 push	 0
  00f4f	6a 01		 push	 1
  00f51	8b 4d d0	 mov	 ecx, DWORD PTR _y$[ebp]
  00f54	83 c1 50	 add	 ecx, 80			; 00000050H
  00f57	51		 push	 ecx
  00f58	8b 55 dc	 mov	 edx, DWORD PTR _x$[ebp]
  00f5b	81 c2 45 01 00
	00		 add	 edx, 325		; 00000145H
  00f61	52		 push	 edx
  00f62	e8 00 00 00 00	 call	 ?StockFontBuffer@@YAHHHDHPADH@Z ; StockFontBuffer
  00f67	83 c4 18	 add	 esp, 24			; 00000018H

; 1314 : 							sprintf(szMsg, "达%d", ShowVendorItem[iCurrentShow].maxhp);

  00f6a	69 05 00 00 00
	00 68 05 00 00	 imul	 eax, DWORD PTR ?iCurrentShow@?1??StreetVendorBuyWndfunc@@YAXPAD@Z@4HA, 1384
  00f74	8b 88 14 00 00
	00		 mov	 ecx, DWORD PTR ?ShowVendorItem@@3PAU_Show_Vendor_Item@@A[eax+20]
  00f7a	51		 push	 ecx
  00f7b	68 00 00 00 00	 push	 OFFSET ??_C@_06HJFMPHBK@?$LD?$LL?$KD?$LK?$CFd?$AA@
  00f80	8d 95 b0 fb ff
	ff		 lea	 edx, DWORD PTR _szMsg$[ebp]
  00f86	52		 push	 edx
  00f87	e8 00 00 00 00	 call	 _sprintf
  00f8c	83 c4 0c	 add	 esp, 12			; 0000000cH

; 1315 : 							StockFontBuffer(x + 325, y + 100, FONT_PRIO_FRONT, FONT_PAL_WHITE, szMsg, 0);

  00f8f	6a 00		 push	 0
  00f91	8d 85 b0 fb ff
	ff		 lea	 eax, DWORD PTR _szMsg$[ebp]
  00f97	50		 push	 eax
  00f98	6a 00		 push	 0
  00f9a	6a 01		 push	 1
  00f9c	8b 4d d0	 mov	 ecx, DWORD PTR _y$[ebp]
  00f9f	83 c1 64	 add	 ecx, 100		; 00000064H
  00fa2	51		 push	 ecx
  00fa3	8b 55 dc	 mov	 edx, DWORD PTR _x$[ebp]
  00fa6	81 c2 45 01 00
	00		 add	 edx, 325		; 00000145H
  00fac	52		 push	 edx
  00fad	e8 00 00 00 00	 call	 ?StockFontBuffer@@YAHHHDHPADH@Z ; StockFontBuffer
  00fb2	83 c4 18	 add	 esp, 24			; 00000018H

; 1316 : 							sprintf(szMsg, "瓿碉%d", ShowVendorItem[iCurrentShow].attack);

  00fb5	69 05 00 00 00
	00 68 05 00 00	 imul	 eax, DWORD PTR ?iCurrentShow@?1??StreetVendorBuyWndfunc@@YAXPAD@Z@4HA, 1384
  00fbf	8b 88 18 00 00
	00		 mov	 ecx, DWORD PTR ?ShowVendorItem@@3PAU_Show_Vendor_Item@@A[eax+24]
  00fc5	51		 push	 ecx
  00fc6	68 00 00 00 00	 push	 OFFSET ??_C@_06MBHIJFEF@?$LA?x?$KD?$LK?$CFd?$AA@
  00fcb	8d 95 b0 fb ff
	ff		 lea	 edx, DWORD PTR _szMsg$[ebp]
  00fd1	52		 push	 edx
  00fd2	e8 00 00 00 00	 call	 _sprintf
  00fd7	83 c4 0c	 add	 esp, 12			; 0000000cH

; 1317 : 							StockFontBuffer(x + 325, y + 120, FONT_PRIO_FRONT, FONT_PAL_WHITE, szMsg, 0);

  00fda	6a 00		 push	 0
  00fdc	8d 85 b0 fb ff
	ff		 lea	 eax, DWORD PTR _szMsg$[ebp]
  00fe2	50		 push	 eax
  00fe3	6a 00		 push	 0
  00fe5	6a 01		 push	 1
  00fe7	8b 4d d0	 mov	 ecx, DWORD PTR _y$[ebp]
  00fea	83 c1 78	 add	 ecx, 120		; 00000078H
  00fed	51		 push	 ecx
  00fee	8b 55 dc	 mov	 edx, DWORD PTR _x$[ebp]
  00ff1	81 c2 45 01 00
	00		 add	 edx, 325		; 00000145H
  00ff7	52		 push	 edx
  00ff8	e8 00 00 00 00	 call	 ?StockFontBuffer@@YAHHHDHPADH@Z ; StockFontBuffer
  00ffd	83 c4 18	 add	 esp, 24			; 00000018H

; 1318 : 							sprintf(szMsg, "氚╋%d", ShowVendorItem[iCurrentShow].defence);

  01000	69 05 00 00 00
	00 68 05 00 00	 imul	 eax, DWORD PTR ?iCurrentShow@?1??StreetVendorBuyWndfunc@@YAXPAD@Z@4HA, 1384
  0100a	8b 88 1c 00 00
	00		 mov	 ecx, DWORD PTR ?ShowVendorItem@@3PAU_Show_Vendor_Item@@A[eax+28]
  01010	51		 push	 ecx
  01011	68 00 00 00 00	 push	 OFFSET ??_C@_06GNDMLDHN@?$LJ?f?$KD?$LK?$CFd?$AA@
  01016	8d 95 b0 fb ff
	ff		 lea	 edx, DWORD PTR _szMsg$[ebp]
  0101c	52		 push	 edx
  0101d	e8 00 00 00 00	 call	 _sprintf
  01022	83 c4 0c	 add	 esp, 12			; 0000000cH

; 1319 : 							StockFontBuffer(x + 325, y + 140, FONT_PRIO_FRONT, FONT_PAL_WHITE, szMsg, 0);

  01025	6a 00		 push	 0
  01027	8d 85 b0 fb ff
	ff		 lea	 eax, DWORD PTR _szMsg$[ebp]
  0102d	50		 push	 eax
  0102e	6a 00		 push	 0
  01030	6a 01		 push	 1
  01032	8b 4d d0	 mov	 ecx, DWORD PTR _y$[ebp]
  01035	81 c1 8c 00 00
	00		 add	 ecx, 140		; 0000008cH
  0103b	51		 push	 ecx
  0103c	8b 55 dc	 mov	 edx, DWORD PTR _x$[ebp]
  0103f	81 c2 45 01 00
	00		 add	 edx, 325		; 00000145H
  01045	52		 push	 edx
  01046	e8 00 00 00 00	 call	 ?StockFontBuffer@@YAHHHDHPADH@Z ; StockFontBuffer
  0104b	83 c4 18	 add	 esp, 24			; 00000018H

; 1320 : 							sprintf(szMsg, "锛%d", ShowVendorItem[iCurrentShow].dex);

  0104e	69 05 00 00 00
	00 68 05 00 00	 imul	 eax, DWORD PTR ?iCurrentShow@?1??StreetVendorBuyWndfunc@@YAXPAD@Z@4HA, 1384
  01058	8b 88 20 00 00
	00		 mov	 ecx, DWORD PTR ?ShowVendorItem@@3PAU_Show_Vendor_Item@@A[eax+32]
  0105e	51		 push	 ecx
  0105f	68 00 00 00 00	 push	 OFFSET ??_C@_06GNIPPDB@?$LM?x?$KD?$LK?$CFd?$AA@
  01064	8d 95 b0 fb ff
	ff		 lea	 edx, DWORD PTR _szMsg$[ebp]
  0106a	52		 push	 edx
  0106b	e8 00 00 00 00	 call	 _sprintf
  01070	83 c4 0c	 add	 esp, 12			; 0000000cH

; 1321 : 							StockFontBuffer(x + 325, y + 160, FONT_PRIO_FRONT, FONT_PAL_WHITE, szMsg, 0);

  01073	6a 00		 push	 0
  01075	8d 85 b0 fb ff
	ff		 lea	 eax, DWORD PTR _szMsg$[ebp]
  0107b	50		 push	 eax
  0107c	6a 00		 push	 0
  0107e	6a 01		 push	 1
  01080	8b 4d d0	 mov	 ecx, DWORD PTR _y$[ebp]
  01083	81 c1 a0 00 00
	00		 add	 ecx, 160		; 000000a0H
  01089	51		 push	 ecx
  0108a	8b 55 dc	 mov	 edx, DWORD PTR _x$[ebp]
  0108d	81 c2 45 01 00
	00		 add	 edx, 325		; 00000145H
  01093	52		 push	 edx
  01094	e8 00 00 00 00	 call	 ?StockFontBuffer@@YAHHHDHPADH@Z ; StockFontBuffer
  01099	83 c4 18	 add	 esp, 24			; 00000018H

; 1322 : 							sprintf(szMsg, "歆锛%d", ShowVendorItem[iCurrentShow].earth/10);

  0109c	69 05 00 00 00
	00 68 05 00 00	 imul	 eax, DWORD PTR ?iCurrentShow@?1??StreetVendorBuyWndfunc@@YAXPAD@Z@4HA, 1384
  010a6	8b 80 24 00 00
	00		 mov	 eax, DWORD PTR ?ShowVendorItem@@3PAU_Show_Vendor_Item@@A[eax+36]
  010ac	99		 cdq
  010ad	b9 0a 00 00 00	 mov	 ecx, 10			; 0000000aH
  010b2	f7 f9		 idiv	 ecx
  010b4	50		 push	 eax
  010b5	68 00 00 00 00	 push	 OFFSET ??_C@_06LBGNCPKK@?A?v?$KD?$LK?$CFd?$AA@
  010ba	8d 95 b0 fb ff
	ff		 lea	 edx, DWORD PTR _szMsg$[ebp]
  010c0	52		 push	 edx
  010c1	e8 00 00 00 00	 call	 _sprintf
  010c6	83 c4 0c	 add	 esp, 12			; 0000000cH

; 1323 : 							StockFontBuffer(x + 390, y + 80, FONT_PRIO_FRONT, FONT_PAL_GREEN, szMsg, 0);

  010c9	6a 00		 push	 0
  010cb	8d 85 b0 fb ff
	ff		 lea	 eax, DWORD PTR _szMsg$[ebp]
  010d1	50		 push	 eax
  010d2	6a 05		 push	 5
  010d4	6a 01		 push	 1
  010d6	8b 4d d0	 mov	 ecx, DWORD PTR _y$[ebp]
  010d9	83 c1 50	 add	 ecx, 80			; 00000050H
  010dc	51		 push	 ecx
  010dd	8b 55 dc	 mov	 edx, DWORD PTR _x$[ebp]
  010e0	81 c2 86 01 00
	00		 add	 edx, 390		; 00000186H
  010e6	52		 push	 edx
  010e7	e8 00 00 00 00	 call	 ?StockFontBuffer@@YAHHHDHPADH@Z ; StockFontBuffer
  010ec	83 c4 18	 add	 esp, 24			; 00000018H

; 1324 : 							sprintf(szMsg, "锛%d", ShowVendorItem[iCurrentShow].water/10);

  010ef	69 05 00 00 00
	00 68 05 00 00	 imul	 eax, DWORD PTR ?iCurrentShow@?1??StreetVendorBuyWndfunc@@YAXPAD@Z@4HA, 1384
  010f9	8b 80 28 00 00
	00		 mov	 eax, DWORD PTR ?ShowVendorItem@@3PAU_Show_Vendor_Item@@A[eax+40]
  010ff	99		 cdq
  01100	b9 0a 00 00 00	 mov	 ecx, 10			; 0000000aH
  01105	f7 f9		 idiv	 ecx
  01107	50		 push	 eax
  01108	68 00 00 00 00	 push	 OFFSET ??_C@_06DMNCJOEB@?$LM?v?$KD?$LK?$CFd?$AA@
  0110d	8d 95 b0 fb ff
	ff		 lea	 edx, DWORD PTR _szMsg$[ebp]
  01113	52		 push	 edx
  01114	e8 00 00 00 00	 call	 _sprintf
  01119	83 c4 0c	 add	 esp, 12			; 0000000cH

; 1325 : 							StockFontBuffer(x + 390, y + 100, FONT_PRIO_FRONT, FONT_PAL_BLUE, szMsg, 0);

  0111c	6a 00		 push	 0
  0111e	8d 85 b0 fb ff
	ff		 lea	 eax, DWORD PTR _szMsg$[ebp]
  01124	50		 push	 eax
  01125	6a 03		 push	 3
  01127	6a 01		 push	 1
  01129	8b 4d d0	 mov	 ecx, DWORD PTR _y$[ebp]
  0112c	83 c1 64	 add	 ecx, 100		; 00000064H
  0112f	51		 push	 ecx
  01130	8b 55 dc	 mov	 edx, DWORD PTR _x$[ebp]
  01133	81 c2 86 01 00
	00		 add	 edx, 390		; 00000186H
  01139	52		 push	 edx
  0113a	e8 00 00 00 00	 call	 ?StockFontBuffer@@YAHHHDHPADH@Z ; StockFontBuffer
  0113f	83 c4 18	 add	 esp, 24			; 00000018H

; 1326 : 							sprintf(szMsg, "锛%d", ShowVendorItem[iCurrentShow].fire/10);

  01142	69 05 00 00 00
	00 68 05 00 00	 imul	 eax, DWORD PTR ?iCurrentShow@?1??StreetVendorBuyWndfunc@@YAXPAD@Z@4HA, 1384
  0114c	8b 80 2c 00 00
	00		 mov	 eax, DWORD PTR ?ShowVendorItem@@3PAU_Show_Vendor_Item@@A[eax+44]
  01152	99		 cdq
  01153	b9 0a 00 00 00	 mov	 ecx, 10			; 0000000aH
  01158	f7 f9		 idiv	 ecx
  0115a	50		 push	 eax
  0115b	68 00 00 00 00	 push	 OFFSET ??_C@_06ECLMJCEN@?H?$KN?$KD?$LK?$CFd?$AA@
  01160	8d 95 b0 fb ff
	ff		 lea	 edx, DWORD PTR _szMsg$[ebp]
  01166	52		 push	 edx
  01167	e8 00 00 00 00	 call	 _sprintf
  0116c	83 c4 0c	 add	 esp, 12			; 0000000cH

; 1327 : 							StockFontBuffer(x + 390, y + 120, FONT_PRIO_FRONT, FONT_PAL_RED, szMsg, 0);

  0116f	6a 00		 push	 0
  01171	8d 85 b0 fb ff
	ff		 lea	 eax, DWORD PTR _szMsg$[ebp]
  01177	50		 push	 eax
  01178	6a 06		 push	 6
  0117a	6a 01		 push	 1
  0117c	8b 4d d0	 mov	 ecx, DWORD PTR _y$[ebp]
  0117f	83 c1 78	 add	 ecx, 120		; 00000078H
  01182	51		 push	 ecx
  01183	8b 55 dc	 mov	 edx, DWORD PTR _x$[ebp]
  01186	81 c2 86 01 00
	00		 add	 edx, 390		; 00000186H
  0118c	52		 push	 edx
  0118d	e8 00 00 00 00	 call	 ?StockFontBuffer@@YAHHHDHPADH@Z ; StockFontBuffer
  01192	83 c4 18	 add	 esp, 24			; 00000018H

; 1328 : 							sprintf(szMsg, "锛%d", ShowVendorItem[iCurrentShow].wind/10);

  01195	69 05 00 00 00
	00 68 05 00 00	 imul	 eax, DWORD PTR ?iCurrentShow@?1??StreetVendorBuyWndfunc@@YAXPAD@Z@4HA, 1384
  0119f	8b 80 30 00 00
	00		 mov	 eax, DWORD PTR ?ShowVendorItem@@3PAU_Show_Vendor_Item@@A[eax+48]
  011a5	99		 cdq
  011a6	b9 0a 00 00 00	 mov	 ecx, 10			; 0000000aH
  011ab	f7 f9		 idiv	 ecx
  011ad	50		 push	 eax
  011ae	68 00 00 00 00	 push	 OFFSET ??_C@_06INCIIBEP@?G?$LD?$KD?$LK?$CFd?$AA@
  011b3	8d 95 b0 fb ff
	ff		 lea	 edx, DWORD PTR _szMsg$[ebp]
  011b9	52		 push	 edx
  011ba	e8 00 00 00 00	 call	 _sprintf
  011bf	83 c4 0c	 add	 esp, 12			; 0000000cH

; 1329 : 							StockFontBuffer(x + 390, y + 140, FONT_PRIO_FRONT, FONT_PAL_YELLOW, szMsg, 0);

  011c2	6a 00		 push	 0
  011c4	8d 85 b0 fb ff
	ff		 lea	 eax, DWORD PTR _szMsg$[ebp]
  011ca	50		 push	 eax
  011cb	6a 04		 push	 4
  011cd	6a 01		 push	 1
  011cf	8b 4d d0	 mov	 ecx, DWORD PTR _y$[ebp]
  011d2	81 c1 8c 00 00
	00		 add	 ecx, 140		; 0000008cH
  011d8	51		 push	 ecx
  011d9	8b 55 dc	 mov	 edx, DWORD PTR _x$[ebp]
  011dc	81 c2 86 01 00
	00		 add	 edx, 390		; 00000186H
  011e2	52		 push	 edx
  011e3	e8 00 00 00 00	 call	 ?StockFontBuffer@@YAHHHDHPADH@Z ; StockFontBuffer
  011e8	83 c4 18	 add	 esp, 24			; 00000018H

; 1330 : 							sprintf(szMsg, "於╋%d", ShowVendorItem[iCurrentShow].fidelity);

  011eb	69 05 00 00 00
	00 68 05 00 00	 imul	 eax, DWORD PTR ?iCurrentShow@?1??StreetVendorBuyWndfunc@@YAXPAD@Z@4HA, 1384
  011f5	8b 88 34 00 00
	00		 mov	 ecx, DWORD PTR ?ShowVendorItem@@3PAU_Show_Vendor_Item@@A[eax+52]
  011fb	51		 push	 ecx
  011fc	68 00 00 00 00	 push	 OFFSET ??_C@_06CFCEDMBI@?C?f?$KD?$LK?$CFd?$AA@
  01201	8d 95 b0 fb ff
	ff		 lea	 edx, DWORD PTR _szMsg$[ebp]
  01207	52		 push	 edx
  01208	e8 00 00 00 00	 call	 _sprintf
  0120d	83 c4 0c	 add	 esp, 12			; 0000000cH

; 1331 : 							StockFontBuffer(x + 390, y + 160, FONT_PRIO_FRONT, FONT_PAL_WHITE, szMsg, 0);

  01210	6a 00		 push	 0
  01212	8d 85 b0 fb ff
	ff		 lea	 eax, DWORD PTR _szMsg$[ebp]
  01218	50		 push	 eax
  01219	6a 00		 push	 0
  0121b	6a 01		 push	 1
  0121d	8b 4d d0	 mov	 ecx, DWORD PTR _y$[ebp]
  01220	81 c1 a0 00 00
	00		 add	 ecx, 160		; 000000a0H
  01226	51		 push	 ecx
  01227	8b 55 dc	 mov	 edx, DWORD PTR _x$[ebp]
  0122a	81 c2 86 01 00
	00		 add	 edx, 390		; 00000186H
  01230	52		 push	 edx
  01231	e8 00 00 00 00	 call	 ?StockFontBuffer@@YAHHHDHPADH@Z ; StockFontBuffer
  01236	83 c4 18	 add	 esp, 24			; 00000018H

; 1332 : 							// [齑毳 瓿检]
; 1333 : 							for (i = 0; i < ShowVendorItem[iCurrentShow].maxSkill; i++)

  01239	c7 45 f4 00 00
	00 00		 mov	 DWORD PTR _i$[ebp], 0
  01240	eb 09		 jmp	 SHORT $LN31@StreetVend
$LN29@StreetVend:
  01242	8b 45 f4	 mov	 eax, DWORD PTR _i$[ebp]
  01245	83 c0 01	 add	 eax, 1
  01248	89 45 f4	 mov	 DWORD PTR _i$[ebp], eax
$LN31@StreetVend:
  0124b	69 05 00 00 00
	00 68 05 00 00	 imul	 eax, DWORD PTR ?iCurrentShow@?1??StreetVendorBuyWndfunc@@YAXPAD@Z@4HA, 1384
  01255	8b 4d f4	 mov	 ecx, DWORD PTR _i$[ebp]
  01258	3b 88 38 00 00
	00		 cmp	 ecx, DWORD PTR ?ShowVendorItem@@3PAU_Show_Vendor_Item@@A[eax+56]
  0125e	7d 61		 jge	 SHORT $LN79@StreetVend

; 1334 : 							{
; 1335 : 								sprintf(szMsg, "旮办 %d锛%s", i + 1, ShowVendorItem[iCurrentShow].skillname[i]);

  01260	69 05 00 00 00
	00 68 05 00 00	 imul	 eax, DWORD PTR ?iCurrentShow@?1??StreetVendorBuyWndfunc@@YAXPAD@Z@4HA, 1384
  0126a	6b 4d f4 19	 imul	 ecx, DWORD PTR _i$[ebp], 25
  0126e	8d 94 08 e2 00
	00 00		 lea	 edx, DWORD PTR ?ShowVendorItem@@3PAU_Show_Vendor_Item@@A[eax+ecx+226]
  01275	52		 push	 edx
  01276	8b 45 f4	 mov	 eax, DWORD PTR _i$[ebp]
  01279	83 c0 01	 add	 eax, 1
  0127c	50		 push	 eax
  0127d	68 00 00 00 00	 push	 OFFSET ??_C@_0M@LGAMIGJ@?$LB?b?$LM?z?5?$CFd?$KD?$LK?$CFs?$AA@
  01282	8d 8d b0 fb ff
	ff		 lea	 ecx, DWORD PTR _szMsg$[ebp]
  01288	51		 push	 ecx
  01289	e8 00 00 00 00	 call	 _sprintf
  0128e	83 c4 10	 add	 esp, 16			; 00000010H

; 1336 : 								StockFontBuffer(x + 325, y + 190 + i * 20, FONT_PRIO_FRONT, FONT_PAL_WHITE, szMsg, 0);

  01291	6a 00		 push	 0
  01293	8d 85 b0 fb ff
	ff		 lea	 eax, DWORD PTR _szMsg$[ebp]
  01299	50		 push	 eax
  0129a	6a 00		 push	 0
  0129c	6a 01		 push	 1
  0129e	6b 4d f4 14	 imul	 ecx, DWORD PTR _i$[ebp], 20
  012a2	8b 55 d0	 mov	 edx, DWORD PTR _y$[ebp]
  012a5	8d 84 0a be 00
	00 00		 lea	 eax, DWORD PTR [edx+ecx+190]
  012ac	50		 push	 eax
  012ad	8b 4d dc	 mov	 ecx, DWORD PTR _x$[ebp]
  012b0	81 c1 45 01 00
	00		 add	 ecx, 325		; 00000145H
  012b6	51		 push	 ecx
  012b7	e8 00 00 00 00	 call	 ?StockFontBuffer@@YAHHHDHPADH@Z ; StockFontBuffer
  012bc	83 c4 18	 add	 esp, 24			; 00000018H

; 1337 : 							}

  012bf	eb 81		 jmp	 SHORT $LN29@StreetVend
$LN79@StreetVend:

; 1338 : 						}
; 1339 : 					}
; 1340 : 				}
; 1341 : 			}
; 1342 : 
; 1343 : 			// [膦旄 氇╈ 觳毽]
; 1344 : 			int kind;
; 1345 : 
; 1346 : 			for (i = 0; i < 13; i++)

  012c1	c7 45 f4 00 00
	00 00		 mov	 DWORD PTR _i$[ebp], 0
  012c8	eb 09		 jmp	 SHORT $LN34@StreetVend
$LN32@StreetVend:
  012ca	8b 45 f4	 mov	 eax, DWORD PTR _i$[ebp]
  012cd	83 c0 01	 add	 eax, 1
  012d0	89 45 f4	 mov	 DWORD PTR _i$[ebp], eax
$LN34@StreetVend:
  012d3	83 7d f4 0d	 cmp	 DWORD PTR _i$[ebp], 13	; 0000000dH
  012d7	0f 8d c2 02 00
	00		 jge	 $LN33@StreetVend

; 1347 : 			{
; 1348 : 				// [毵れ毳 ]
; 1349 : 				if (mouse.onceState & MOUSE_LEFT_CRICK)

  012dd	a1 2c 00 00 00	 mov	 eax, DWORD PTR ?mouse@@3UMOUSE@@A+44
  012e2	83 e0 01	 and	 eax, 1
  012e5	0f 84 bd 01 00
	00		 je	 $LN97@StreetVend

; 1350 : 				{
; 1351 : 					if (selId == iBuyItemBtn[i])

  012eb	8b 45 f4	 mov	 eax, DWORD PTR _i$[ebp]
  012ee	8b 4d c4	 mov	 ecx, DWORD PTR _selId$[ebp]
  012f1	3b 0c 85 00 00
	00 00		 cmp	 ecx, DWORD PTR ?iBuyItemBtn@?1??StreetVendorBuyWndfunc@@YAXPAD@Z@4PAHA[eax*4]
  012f8	0f 85 a5 01 00
	00		 jne	 $LN99@StreetVend

; 1352 : 					{
; 1353 : 						kind = ShowVendorItem[i + iListStart].kind;

  012fe	8b 45 f4	 mov	 eax, DWORD PTR _i$[ebp]
  01301	03 05 00 00 00
	00		 add	 eax, DWORD PTR ?iListStart@?1??StreetVendorBuyWndfunc@@YAXPAD@Z@4HA
  01307	69 c8 68 05 00
	00		 imul	 ecx, eax, 1384
  0130d	0f be 91 91 01
	00 00		 movsx	 edx, BYTE PTR ?ShowVendorItem@@3PAU_Show_Vendor_Item@@A[ecx+401]
  01314	89 95 30 fa ff
	ff		 mov	 DWORD PTR _kind$12[ebp], edx

; 1354 : 						
; 1355 : 						// [措 る┐ 旆]
; 1356 : 						if (ShowVendorItem[i + iListStart].bBuy)

  0131a	8b 45 f4	 mov	 eax, DWORD PTR _i$[ebp]
  0131d	03 05 00 00 00
	00		 add	 eax, DWORD PTR ?iListStart@?1??StreetVendorBuyWndfunc@@YAXPAD@Z@4HA
  01323	69 c8 68 05 00
	00		 imul	 ecx, eax, 1384
  01329	0f b6 91 41 00
	00 00		 movzx	 edx, BYTE PTR ?ShowVendorItem@@3PAU_Show_Vendor_Item@@A[ecx+65]
  01330	85 d2		 test	 edx, edx
  01332	74 59		 je	 SHORT $LN100@StreetVend

; 1357 : 						{
; 1358 : 							ShowVendorItem[i + iListStart].bBuy = false;

  01334	8b 45 f4	 mov	 eax, DWORD PTR _i$[ebp]
  01337	03 05 00 00 00
	00		 add	 eax, DWORD PTR ?iListStart@?1??StreetVendorBuyWndfunc@@YAXPAD@Z@4HA
  0133d	69 c8 68 05 00
	00		 imul	 ecx, eax, 1384
  01343	c6 81 41 00 00
	00 00		 mov	 BYTE PTR ?ShowVendorItem@@3PAU_Show_Vendor_Item@@A[ecx+65], 0

; 1359 : 							iTotalBuy[kind]--;

  0134a	8b 85 30 fa ff
	ff		 mov	 eax, DWORD PTR _kind$12[ebp]
  01350	8b 0c 85 00 00
	00 00		 mov	 ecx, DWORD PTR ?iTotalBuy@?1??StreetVendorBuyWndfunc@@YAXPAD@Z@4PAHA[eax*4]
  01357	83 e9 01	 sub	 ecx, 1
  0135a	8b 95 30 fa ff
	ff		 mov	 edx, DWORD PTR _kind$12[ebp]
  01360	89 0c 95 00 00
	00 00		 mov	 DWORD PTR ?iTotalBuy@?1??StreetVendorBuyWndfunc@@YAXPAD@Z@4PAHA[edx*4], ecx

; 1360 : 							iTotalBuyMoney -= ShowVendorItem[i + iListStart].price;

  01367	8b 45 f4	 mov	 eax, DWORD PTR _i$[ebp]
  0136a	03 05 00 00 00
	00		 add	 eax, DWORD PTR ?iListStart@?1??StreetVendorBuyWndfunc@@YAXPAD@Z@4HA
  01370	69 c8 68 05 00
	00		 imul	 ecx, eax, 1384
  01376	8b 15 00 00 00
	00		 mov	 edx, DWORD PTR ?iTotalBuyMoney@?1??StreetVendorBuyWndfunc@@YAXPAD@Z@4HA
  0137c	2b 91 08 00 00
	00		 sub	 edx, DWORD PTR ?ShowVendorItem@@3PAU_Show_Vendor_Item@@A[ecx+8]
  01382	89 15 00 00 00
	00		 mov	 DWORD PTR ?iTotalBuyMoney@?1??StreetVendorBuyWndfunc@@YAXPAD@Z@4HA, edx
  01388	e9 11 01 00 00	 jmp	 $LN101@StreetVend
$LN100@StreetVend:

; 1361 : 						}
; 1362 : 						// [臧瓴╆舶 氇╈胳 攵]
; 1363 : 						else if (ShowVendorItem[i + iListStart].price > 0)

  0138d	8b 45 f4	 mov	 eax, DWORD PTR _i$[ebp]
  01390	03 05 00 00 00
	00		 add	 eax, DWORD PTR ?iListStart@?1??StreetVendorBuyWndfunc@@YAXPAD@Z@4HA
  01396	69 c8 68 05 00
	00		 imul	 ecx, eax, 1384
  0139c	83 b9 08 00 00
	00 00		 cmp	 DWORD PTR ?ShowVendorItem@@3PAU_Show_Vendor_Item@@A[ecx+8], 0
  013a3	0f 8e e4 00 00
	00		 jle	 $LN102@StreetVend

; 1364 : 						{
; 1365 : 							// [氇胳 歆 牍 毽臧 ]
; 1366 : 							if (iEmptyNum[kind] > iTotalBuy[kind])

  013a9	8b 85 30 fa ff
	ff		 mov	 eax, DWORD PTR _kind$12[ebp]
  013af	8b 8d 30 fa ff
	ff		 mov	 ecx, DWORD PTR _kind$12[ebp]
  013b5	8b 14 85 00 00
	00 00		 mov	 edx, DWORD PTR ?iEmptyNum@?1??StreetVendorBuyWndfunc@@YAXPAD@Z@4PAHA[eax*4]
  013bc	3b 14 8d 00 00
	00 00		 cmp	 edx, DWORD PTR ?iTotalBuy@?1??StreetVendorBuyWndfunc@@YAXPAD@Z@4PAHA[ecx*4]
  013c3	0f 8e 8c 00 00
	00		 jle	 $LN104@StreetVend

; 1367 : 							{
; 1368 : 								// [氇胳  於╇]
; 1369 : 								if ((iTotalBuyMoney + ShowVendorItem[i + iListStart].price) <= pc.gold)

  013c9	8b 45 f4	 mov	 eax, DWORD PTR _i$[ebp]
  013cc	03 05 00 00 00
	00		 add	 eax, DWORD PTR ?iListStart@?1??StreetVendorBuyWndfunc@@YAXPAD@Z@4HA
  013d2	69 c8 68 05 00
	00		 imul	 ecx, eax, 1384
  013d8	8b 15 00 00 00
	00		 mov	 edx, DWORD PTR ?iTotalBuyMoney@?1??StreetVendorBuyWndfunc@@YAXPAD@Z@4HA
  013de	03 91 08 00 00
	00		 add	 edx, DWORD PTR ?ShowVendorItem@@3PAU_Show_Vendor_Item@@A[ecx+8]
  013e4	3b 15 60 00 00
	00		 cmp	 edx, DWORD PTR ?pc@@3UPC@@A+96
  013ea	7f 56		 jg	 SHORT $LN106@StreetVend

; 1370 : 								{
; 1371 : 									// [旌毽瓣 鸽炒 标 歆 疙] 鸽标
; 1372 : 									//if (kind == 1 && (ShowVendorItem[i + iListStart].level > (pc.level + 5) && pc.transmigration < 1))
; 1373 : 									//{
; 1374 : 									//	StockChatBufferLine("轨  鸽ゼ ╉达", FONT_PAL_RED);
; 1375 : 									//	break;
; 1376 : 									//}
; 1377 : 									ShowVendorItem[i + iListStart].bBuy = true;

  013ec	8b 45 f4	 mov	 eax, DWORD PTR _i$[ebp]
  013ef	03 05 00 00 00
	00		 add	 eax, DWORD PTR ?iListStart@?1??StreetVendorBuyWndfunc@@YAXPAD@Z@4HA
  013f5	69 c8 68 05 00
	00		 imul	 ecx, eax, 1384
  013fb	c6 81 41 00 00
	00 01		 mov	 BYTE PTR ?ShowVendorItem@@3PAU_Show_Vendor_Item@@A[ecx+65], 1

; 1378 : 									iTotalBuy[kind]++;

  01402	8b 85 30 fa ff
	ff		 mov	 eax, DWORD PTR _kind$12[ebp]
  01408	8b 0c 85 00 00
	00 00		 mov	 ecx, DWORD PTR ?iTotalBuy@?1??StreetVendorBuyWndfunc@@YAXPAD@Z@4PAHA[eax*4]
  0140f	83 c1 01	 add	 ecx, 1
  01412	8b 95 30 fa ff
	ff		 mov	 edx, DWORD PTR _kind$12[ebp]
  01418	89 0c 95 00 00
	00 00		 mov	 DWORD PTR ?iTotalBuy@?1??StreetVendorBuyWndfunc@@YAXPAD@Z@4PAHA[edx*4], ecx

; 1379 : 									iTotalBuyMoney += ShowVendorItem[i + iListStart].price;

  0141f	8b 45 f4	 mov	 eax, DWORD PTR _i$[ebp]
  01422	03 05 00 00 00
	00		 add	 eax, DWORD PTR ?iListStart@?1??StreetVendorBuyWndfunc@@YAXPAD@Z@4HA
  01428	69 c8 68 05 00
	00		 imul	 ecx, eax, 1384
  0142e	8b 15 00 00 00
	00		 mov	 edx, DWORD PTR ?iTotalBuyMoney@?1??StreetVendorBuyWndfunc@@YAXPAD@Z@4HA
  01434	03 91 08 00 00
	00		 add	 edx, DWORD PTR ?ShowVendorItem@@3PAU_Show_Vendor_Item@@A[ecx+8]
  0143a	89 15 00 00 00
	00		 mov	 DWORD PTR ?iTotalBuyMoney@?1??StreetVendorBuyWndfunc@@YAXPAD@Z@4HA, edx

; 1380 : 								}
; 1381 : 								else

  01440	eb 11		 jmp	 SHORT $LN107@StreetVend
$LN106@StreetVend:

; 1382 : 									StockChatBufferLine("ろれ 攵臁表达", FONT_PAL_RED);

  01442	6a 00		 push	 0
  01444	6a 06		 push	 6
  01446	68 00 00 00 00	 push	 OFFSET ??_C@_0BA@KFKPCCNN@?$LN?$LK?E?f?$MA?L?5?$LK?N?A?$LH?G?X?$KD?$KB?$AA@
  0144b	e8 00 00 00 00	 call	 ?StockChatBufferLine@@YAXPADEH@Z ; StockChatBufferLine
  01450	83 c4 0c	 add	 esp, 12			; 0000000cH
$LN107@StreetVend:

; 1383 : 							}
; 1384 : 							else

  01453	eb 36		 jmp	 SHORT $LN105@StreetVend
$LN104@StreetVend:

; 1385 : 							{
; 1386 : 								if (kind == 0)

  01455	83 bd 30 fa ff
	ff 00		 cmp	 DWORD PTR _kind$12[ebp], 0
  0145c	75 13		 jne	 SHORT $LN108@StreetVend

; 1387 : 									StockChatBufferLine("氚 错 轨 攵臁表达", FONT_PAL_RED);

  0145e	6a 00		 push	 0
  01460	6a 06		 push	 6
  01462	68 00 00 00 00	 push	 OFFSET ??_C@_0BM@PJIKDD@?$LJ?Y?$LF?p?5?$LO?F?$MA?L?E?$NL?5?$LM?$LN?$LM?G?$MA?L?5?$LK?N?A?$LH?G?X?$KD?$KB?$AA@
  01467	e8 00 00 00 00	 call	 ?StockChatBufferLine@@YAXPADEH@Z ; StockChatBufferLine
  0146c	83 c4 0c	 add	 esp, 12			; 0000000cH
  0146f	eb 1a		 jmp	 SHORT $LN105@StreetVend
$LN108@StreetVend:

; 1388 : 								else if (kind == 1)

  01471	83 bd 30 fa ff
	ff 01		 cmp	 DWORD PTR _kind$12[ebp], 1
  01478	75 11		 jne	 SHORT $LN105@StreetVend

; 1389 : 									StockChatBufferLine("氚 错 轨 攵臁表达", FONT_PAL_RED);

  0147a	6a 00		 push	 0
  0147c	6a 06		 push	 6
  0147e	68 00 00 00 00	 push	 OFFSET ??_C@_0BM@PJIKDD@?$LJ?Y?$LF?p?5?$LO?F?$MA?L?E?$NL?5?$LM?$LN?$LM?G?$MA?L?5?$LK?N?A?$LH?G?X?$KD?$KB?$AA@
  01483	e8 00 00 00 00	 call	 ?StockChatBufferLine@@YAXPADEH@Z ; StockChatBufferLine
  01488	83 c4 0c	 add	 esp, 12			; 0000000cH
$LN105@StreetVend:

; 1390 : 							}
; 1391 : 						}
; 1392 : 						else 

  0148b	eb 11		 jmp	 SHORT $LN101@StreetVend
$LN102@StreetVend:

; 1393 : 							StockChatBufferLine(" 臧瓴 氍柬 检检 瓿毳  わ", FONT_PAL_RED);

  0148d	6a 00		 push	 0
  0148f	6a 06		 push	 6
  01491	68 00 00 00 00	 push	 OFFSET ??_C@_0CH@BCAEDIAE@?G?y?A?$KE?5?$LA?$KB?$LA?$NN?5?$LJ?$LA?G?$LA?$MA?$LK?5?$MA?O?$MA?O?$MA?L?5?$LA?m?$LI?$KG?5?$LM?v?5@
  01496	e8 00 00 00 00	 call	 ?StockChatBufferLine@@YAXPADEH@Z ; StockChatBufferLine
  0149b	83 c4 0c	 add	 esp, 12			; 0000000cH
$LN101@StreetVend:

; 1394 : 						break;

  0149e	e9 fc 00 00 00	 jmp	 $LN33@StreetVend
$LN99@StreetVend:

; 1395 : 					}
; 1396 : 				}

  014a3	e9 f2 00 00 00	 jmp	 $LN98@StreetVend
$LN97@StreetVend:

; 1397 : 				// 椤圭瀹
; 1398 : 				else if (mouse.onceState & MOUSE_RIGHT_CRICK)

  014a8	a1 2c 00 00 00	 mov	 eax, DWORD PTR ?mouse@@3UMOUSE@@A+44
  014ad	83 e0 02	 and	 eax, 2
  014b0	0f 84 e4 00 00
	00		 je	 $LN98@StreetVend

; 1399 : 				{
; 1400 : 					if (selId == iBuyItemBtn[i])

  014b6	8b 45 f4	 mov	 eax, DWORD PTR _i$[ebp]
  014b9	8b 4d c4	 mov	 ecx, DWORD PTR _selId$[ebp]
  014bc	3b 0c 85 00 00
	00 00		 cmp	 ecx, DWORD PTR ?iBuyItemBtn@?1??StreetVendorBuyWndfunc@@YAXPAD@Z@4PAHA[eax*4]
  014c3	0f 85 d1 00 00
	00		 jne	 $LN98@StreetVend

; 1401 : 					{
; 1402 : 						if (!ShowVendorItem[i+iListStart].bGetData)

  014c9	8b 45 f4	 mov	 eax, DWORD PTR _i$[ebp]
  014cc	03 05 00 00 00
	00		 add	 eax, DWORD PTR ?iListStart@?1??StreetVendorBuyWndfunc@@YAXPAD@Z@4HA
  014d2	69 c8 68 05 00
	00		 imul	 ecx, eax, 1384
  014d8	0f b6 91 42 00
	00 00		 movzx	 edx, BYTE PTR ?ShowVendorItem@@3PAU_Show_Vendor_Item@@A[ecx+66]
  014df	85 d2		 test	 edx, edx
  014e1	75 42		 jne	 SHORT $LN113@StreetVend

; 1403 : 						{
; 1404 : 							sprintf(szMsg, "D|%d|", ShowVendorItem[i + iListStart].index);

  014e3	8b 45 f4	 mov	 eax, DWORD PTR _i$[ebp]
  014e6	03 05 00 00 00
	00		 add	 eax, DWORD PTR ?iListStart@?1??StreetVendorBuyWndfunc@@YAXPAD@Z@4HA
  014ec	69 c8 68 05 00
	00		 imul	 ecx, eax, 1384
  014f2	8b 91 3c 00 00
	00		 mov	 edx, DWORD PTR ?ShowVendorItem@@3PAU_Show_Vendor_Item@@A[ecx+60]
  014f8	52		 push	 edx
  014f9	68 00 00 00 00	 push	 OFFSET ??_C@_05LNGOBBOC@D?$HM?$CFd?$HM?$AA@
  014fe	8d 85 b0 fb ff
	ff		 lea	 eax, DWORD PTR _szMsg$[ebp]
  01504	50		 push	 eax
  01505	e8 00 00 00 00	 call	 _sprintf
  0150a	83 c4 0c	 add	 esp, 12			; 0000000cH

; 1405 : 							lssproto_STREET_VENDOR_send(sockfd, szMsg);

  0150d	8d 85 b0 fb ff
	ff		 lea	 eax, DWORD PTR _szMsg$[ebp]
  01513	50		 push	 eax
  01514	8b 0d 00 00 00
	00		 mov	 ecx, DWORD PTR ?sockfd@@3IA ; sockfd
  0151a	51		 push	 ecx
  0151b	e8 00 00 00 00	 call	 ?lssproto_STREET_VENDOR_send@@YAXHPAD@Z ; lssproto_STREET_VENDOR_send
  01520	83 c4 08	 add	 esp, 8
  01523	eb 5b		 jmp	 SHORT $LN114@StreetVend
$LN113@StreetVend:

; 1406 : 						}
; 1407 : 						else if (ShowVendorItem[i + iListStart].kind == 1)

  01525	8b 45 f4	 mov	 eax, DWORD PTR _i$[ebp]
  01528	03 05 00 00 00
	00		 add	 eax, DWORD PTR ?iListStart@?1??StreetVendorBuyWndfunc@@YAXPAD@Z@4HA
  0152e	69 c8 68 05 00
	00		 imul	 ecx, eax, 1384
  01534	0f be 91 91 01
	00 00		 movsx	 edx, BYTE PTR ?ShowVendorItem@@3PAU_Show_Vendor_Item@@A[ecx+401]
  0153b	83 fa 01	 cmp	 edx, 1
  0153e	75 40		 jne	 SHORT $LN114@StreetVend

; 1408 : 						{
; 1409 : 							if (iCurrentShow != i + iListStart)

  01540	8b 45 f4	 mov	 eax, DWORD PTR _i$[ebp]
  01543	03 05 00 00 00
	00		 add	 eax, DWORD PTR ?iListStart@?1??StreetVendorBuyWndfunc@@YAXPAD@Z@4HA
  01549	39 05 00 00 00
	00		 cmp	 DWORD PTR ?iCurrentShow@?1??StreetVendorBuyWndfunc@@YAXPAD@Z@4HA, eax
  0154f	74 2f		 je	 SHORT $LN114@StreetVend

; 1410 : 							{
; 1411 : 								if (pShowPet != NULL)

  01551	83 3d 00 00 00
	00 00		 cmp	 DWORD PTR ?pShowPet@@3PAUaction@@A, 0 ; pShowPet
  01558	74 18		 je	 SHORT $LN117@StreetVend

; 1412 : 								{
; 1413 : 									DeathAction(pShowPet);

  0155a	a1 00 00 00 00	 mov	 eax, DWORD PTR ?pShowPet@@3PAUaction@@A ; pShowPet
  0155f	50		 push	 eax
  01560	e8 00 00 00 00	 call	 ?DeathAction@@YAXPAUaction@@@Z ; DeathAction
  01565	83 c4 04	 add	 esp, 4

; 1414 : 									pShowPet = NULL;

  01568	c7 05 00 00 00
	00 00 00 00 00	 mov	 DWORD PTR ?pShowPet@@3PAUaction@@A, 0 ; pShowPet
$LN117@StreetVend:

; 1415 : 								}
; 1416 : 								iMakePetAni = i + iListStart;

  01572	8b 45 f4	 mov	 eax, DWORD PTR _i$[ebp]
  01575	03 05 00 00 00
	00		 add	 eax, DWORD PTR ?iListStart@?1??StreetVendorBuyWndfunc@@YAXPAD@Z@4HA
  0157b	a3 00 00 00 00	 mov	 DWORD PTR ?iMakePetAni@?1??StreetVendorBuyWndfunc@@YAXPAD@Z@4HA, eax
$LN114@StreetVend:

; 1417 : 							}
; 1418 : 						}
; 1419 : 						iCurrentShow = i + iListStart;

  01580	8b 45 f4	 mov	 eax, DWORD PTR _i$[ebp]
  01583	03 05 00 00 00
	00		 add	 eax, DWORD PTR ?iListStart@?1??StreetVendorBuyWndfunc@@YAXPAD@Z@4HA
  01589	a3 00 00 00 00	 mov	 DWORD PTR ?iCurrentShow@?1??StreetVendorBuyWndfunc@@YAXPAD@Z@4HA, eax

; 1420 : #ifdef _PET_ITEM
; 1421 : 						bViewPetItem = FALSE;

  0158e	c7 05 00 00 00
	00 00 00 00 00	 mov	 DWORD PTR ?bViewPetItem@?1??StreetVendorBuyWndfunc@@YAXPAD@Z@4HA, 0

; 1422 : #endif
; 1423 : 						break;

  01598	eb 05		 jmp	 SHORT $LN33@StreetVend
$LN98@StreetVend:

; 1424 : 					}
; 1425 : 				}
; 1426 : 			}

  0159a	e9 2b fd ff ff	 jmp	 $LN32@StreetVend
$LN33@StreetVend:

; 1427 : 
; 1428 : 			// [氇胳 歆瓿   瓿检]
; 1429 : 			sprintf(szMsg, "%d", pc.gold);

  0159f	a1 60 00 00 00	 mov	 eax, DWORD PTR ?pc@@3UPC@@A+96
  015a4	50		 push	 eax
  015a5	68 00 00 00 00	 push	 OFFSET ??_C@_02DPKJAMEF@?$CFd?$AA@
  015aa	8d 8d b0 fb ff
	ff		 lea	 ecx, DWORD PTR _szMsg$[ebp]
  015b0	51		 push	 ecx
  015b1	e8 00 00 00 00	 call	 _sprintf
  015b6	83 c4 0c	 add	 esp, 12			; 0000000cH

; 1430 : 			StockFontBuffer(x + 380, y + 336, FONT_PRIO_FRONT, FONT_PAL_WHITE, szMsg, 0);

  015b9	6a 00		 push	 0
  015bb	8d 85 b0 fb ff
	ff		 lea	 eax, DWORD PTR _szMsg$[ebp]
  015c1	50		 push	 eax
  015c2	6a 00		 push	 0
  015c4	6a 01		 push	 1
  015c6	8b 4d d0	 mov	 ecx, DWORD PTR _y$[ebp]
  015c9	81 c1 50 01 00
	00		 add	 ecx, 336		; 00000150H
  015cf	51		 push	 ecx
  015d0	8b 55 dc	 mov	 edx, DWORD PTR _x$[ebp]
  015d3	81 c2 7c 01 00
	00		 add	 edx, 380		; 0000017cH
  015d9	52		 push	 edx
  015da	e8 00 00 00 00	 call	 ?StockFontBuffer@@YAHHHDHPADH@Z ; StockFontBuffer
  015df	83 c4 18	 add	 esp, 24			; 00000018H

; 1431 : 			//  氇╈ 齑臧瓴╈ ╇.
; 1432 : 			sprintf(szMsg, "%d", iTotalBuyMoney);

  015e2	a1 00 00 00 00	 mov	 eax, DWORD PTR ?iTotalBuyMoney@?1??StreetVendorBuyWndfunc@@YAXPAD@Z@4HA
  015e7	50		 push	 eax
  015e8	68 00 00 00 00	 push	 OFFSET ??_C@_02DPKJAMEF@?$CFd?$AA@
  015ed	8d 8d b0 fb ff
	ff		 lea	 ecx, DWORD PTR _szMsg$[ebp]
  015f3	51		 push	 ecx
  015f4	e8 00 00 00 00	 call	 _sprintf
  015f9	83 c4 0c	 add	 esp, 12			; 0000000cH

; 1433 : 			StockFontBuffer(x + 525, y + 336, FONT_PRIO_FRONT, FONT_PAL_WHITE, szMsg, 0);

  015fc	6a 00		 push	 0
  015fe	8d 85 b0 fb ff
	ff		 lea	 eax, DWORD PTR _szMsg$[ebp]
  01604	50		 push	 eax
  01605	6a 00		 push	 0
  01607	6a 01		 push	 1
  01609	8b 4d d0	 mov	 ecx, DWORD PTR _y$[ebp]
  0160c	81 c1 50 01 00
	00		 add	 ecx, 336		; 00000150H
  01612	51		 push	 ecx
  01613	8b 55 dc	 mov	 edx, DWORD PTR _x$[ebp]
  01616	81 c2 0d 02 00
	00		 add	 edx, 525		; 0000020dH
  0161c	52		 push	 edx
  0161d	e8 00 00 00 00	 call	 ?StockFontBuffer@@YAHHHDHPADH@Z ; StockFontBuffer
  01622	83 c4 18	 add	 esp, 24			; 00000018H

; 1434 : 			if (iMakePetAni > -1)

  01625	83 3d 00 00 00
	00 ff		 cmp	 DWORD PTR ?iMakePetAni@?1??StreetVendorBuyWndfunc@@YAXPAD@Z@4HA, -1
  0162c	7e 3d		 jle	 SHORT $LN118@StreetVend

; 1435 : 			{
; 1436 : 				pShowPet = MakeAnimDisp(x + 520, y + 230, ShowVendorItem[iMakePetAni].bmpNo, 0);

  0162e	6a 00		 push	 0
  01630	69 05 00 00 00
	00 68 05 00 00	 imul	 eax, DWORD PTR ?iMakePetAni@?1??StreetVendorBuyWndfunc@@YAXPAD@Z@4HA, 1384
  0163a	8b 88 00 00 00
	00		 mov	 ecx, DWORD PTR ?ShowVendorItem@@3PAU_Show_Vendor_Item@@A[eax]
  01640	51		 push	 ecx
  01641	8b 55 d0	 mov	 edx, DWORD PTR _y$[ebp]
  01644	81 c2 e6 00 00
	00		 add	 edx, 230		; 000000e6H
  0164a	52		 push	 edx
  0164b	8b 45 dc	 mov	 eax, DWORD PTR _x$[ebp]
  0164e	05 08 02 00 00	 add	 eax, 520		; 00000208H
  01653	50		 push	 eax
  01654	e8 00 00 00 00	 call	 ?MakeAnimDisp@@YAPAUaction@@HHHH@Z ; MakeAnimDisp
  01659	83 c4 10	 add	 esp, 16			; 00000010H
  0165c	a3 00 00 00 00	 mov	 DWORD PTR ?pShowPet@@3PAUaction@@A, eax ; pShowPet

; 1437 : 				iMakePetAni = -1;

  01661	c7 05 00 00 00
	00 ff ff ff ff	 mov	 DWORD PTR ?iMakePetAni@?1??StreetVendorBuyWndfunc@@YAXPAD@Z@4HA, -1
$LN118@StreetVend:

; 1438 : 			}
; 1439 : 			StockDispBuffer(((WINDOW_DISP *)pActStreetVendorBuyWnd->pYobi)->mx,

  0166b	6a 01		 push	 1
  0166d	68 a8 89 00 00	 push	 35240			; 000089a8H
  01672	6a 68		 push	 104			; 00000068H
  01674	a1 00 00 00 00	 mov	 eax, DWORD PTR ?pActStreetVendorBuyWnd@@3PAUaction@@A ; pActStreetVendorBuyWnd
  01679	8b 48 0c	 mov	 ecx, DWORD PTR [eax+12]
  0167c	8b 51 18	 mov	 edx, DWORD PTR [ecx+24]
  0167f	52		 push	 edx
  01680	a1 00 00 00 00	 mov	 eax, DWORD PTR ?pActStreetVendorBuyWnd@@3PAUaction@@A ; pActStreetVendorBuyWnd
  01685	8b 48 0c	 mov	 ecx, DWORD PTR [eax+12]
  01688	8b 51 14	 mov	 edx, DWORD PTR [ecx+20]
  0168b	52		 push	 edx
  0168c	e8 00 00 00 00	 call	 ?StockDispBuffer@@YAHHHEHH@Z ; StockDispBuffer
  01691	83 c4 14	 add	 esp, 20			; 00000014H
$LN48@StreetVend:

; 1440 : 							((WINDOW_DISP *)pActStreetVendorBuyWnd->pYobi)->my,
; 1441 : 							DISP_PRIO_MENU, CG_FIELD_SV_BUY_PANEL, 1);
; 1442 : 		}
; 1443 : 	}
; 1444 : 	if (data != NULL)

  01694	83 7d 08 00	 cmp	 DWORD PTR _data$[ebp], 0
  01698	0f 84 af 0a 00
	00		 je	 $LN131@StreetVend

; 1445 : 	{
; 1446 : 		int count, index;
; 1447 : #ifdef _PET_ITEM
; 1448 : 		int nPetItemPlace;
; 1449 : #endif
; 1450 : 		getStringToken(data, '|', 1, sizeof(szMsg) - 1, szMsg);

  0169e	8d 85 b0 fb ff
	ff		 lea	 eax, DWORD PTR _szMsg$[ebp]
  016a4	50		 push	 eax
  016a5	68 ff 03 00 00	 push	 1023			; 000003ffH
  016aa	6a 01		 push	 1
  016ac	6a 7c		 push	 124			; 0000007cH
  016ae	8b 4d 08	 mov	 ecx, DWORD PTR _data$[ebp]
  016b1	51		 push	 ecx
  016b2	e8 00 00 00 00	 call	 ?getStringToken@@YAHPADDHH0@Z ; getStringToken
  016b7	83 c4 14	 add	 esp, 20			; 00000014H

; 1451 : 		// [毵る 旮半掣 耄]
; 1452 : 		if (szMsg[0] == 'B')

  016ba	b8 01 00 00 00	 mov	 eax, 1
  016bf	6b c8 00	 imul	 ecx, eax, 0
  016c2	0f be 94 0d b0
	fb ff ff	 movsx	 edx, BYTE PTR _szMsg$[ebp+ecx]
  016ca	83 fa 42	 cmp	 edx, 66			; 00000042H
  016cd	0f 85 1c 02 00
	00		 jne	 $LN120@StreetVend

; 1453 : 		{
; 1454 : 			getStringToken(data, '|', 2, sizeof(szMsg) - 1, szMsg);

  016d3	8d 85 b0 fb ff
	ff		 lea	 eax, DWORD PTR _szMsg$[ebp]
  016d9	50		 push	 eax
  016da	68 ff 03 00 00	 push	 1023			; 000003ffH
  016df	6a 02		 push	 2
  016e1	6a 7c		 push	 124			; 0000007cH
  016e3	8b 4d 08	 mov	 ecx, DWORD PTR _data$[ebp]
  016e6	51		 push	 ecx
  016e7	e8 00 00 00 00	 call	 ?getStringToken@@YAHPADDHH0@Z ; getStringToken
  016ec	83 c4 14	 add	 esp, 20			; 00000014H

; 1455 : 			count = atoi(szMsg);

  016ef	8b f4		 mov	 esi, esp
  016f1	8d 85 b0 fb ff
	ff		 lea	 eax, DWORD PTR _szMsg$[ebp]
  016f7	50		 push	 eax
  016f8	ff 15 00 00 00
	00		 call	 DWORD PTR __imp__atoi
  016fe	83 c4 04	 add	 esp, 4
  01701	3b f4		 cmp	 esi, esp
  01703	e8 00 00 00 00	 call	 __RTC_CheckEsp
  01708	89 85 24 fa ff
	ff		 mov	 DWORD PTR _count$11[ebp], eax

; 1456 : 			for (i = 0; i < count; i++)

  0170e	c7 45 f4 00 00
	00 00		 mov	 DWORD PTR _i$[ebp], 0
  01715	eb 09		 jmp	 SHORT $LN37@StreetVend
$LN35@StreetVend:
  01717	8b 45 f4	 mov	 eax, DWORD PTR _i$[ebp]
  0171a	83 c0 01	 add	 eax, 1
  0171d	89 45 f4	 mov	 DWORD PTR _i$[ebp], eax
$LN37@StreetVend:
  01720	8b 45 f4	 mov	 eax, DWORD PTR _i$[ebp]
  01723	3b 85 24 fa ff
	ff		 cmp	 eax, DWORD PTR _count$11[ebp]
  01729	0f 8d bb 01 00
	00		 jge	 $LN36@StreetVend

; 1457 : 			{
; 1458 : 				getStringToken(data, '|', 3 + i * 5, sizeof(szMsg) - 1, szMsg);

  0172f	8d 85 b0 fb ff
	ff		 lea	 eax, DWORD PTR _szMsg$[ebp]
  01735	50		 push	 eax
  01736	68 ff 03 00 00	 push	 1023			; 000003ffH
  0173b	6b 4d f4 05	 imul	 ecx, DWORD PTR _i$[ebp], 5
  0173f	83 c1 03	 add	 ecx, 3
  01742	51		 push	 ecx
  01743	6a 7c		 push	 124			; 0000007cH
  01745	8b 55 08	 mov	 edx, DWORD PTR _data$[ebp]
  01748	52		 push	 edx
  01749	e8 00 00 00 00	 call	 ?getStringToken@@YAHPADDHH0@Z ; getStringToken
  0174e	83 c4 14	 add	 esp, 20			; 00000014H

; 1459 : 				ShowVendorItem[i].kind = atoi(szMsg);

  01751	8b f4		 mov	 esi, esp
  01753	8d 85 b0 fb ff
	ff		 lea	 eax, DWORD PTR _szMsg$[ebp]
  01759	50		 push	 eax
  0175a	ff 15 00 00 00
	00		 call	 DWORD PTR __imp__atoi
  01760	83 c4 04	 add	 esp, 4
  01763	3b f4		 cmp	 esi, esp
  01765	e8 00 00 00 00	 call	 __RTC_CheckEsp
  0176a	69 4d f4 68 05
	00 00		 imul	 ecx, DWORD PTR _i$[ebp], 1384
  01771	88 81 91 01 00
	00		 mov	 BYTE PTR ?ShowVendorItem@@3PAU_Show_Vendor_Item@@A[ecx+401], al

; 1460 : 				getStringToken(data, '|', 4 + i * 5, sizeof(szMsg) - 1, szMsg);

  01777	8d 85 b0 fb ff
	ff		 lea	 eax, DWORD PTR _szMsg$[ebp]
  0177d	50		 push	 eax
  0177e	68 ff 03 00 00	 push	 1023			; 000003ffH
  01783	6b 4d f4 05	 imul	 ecx, DWORD PTR _i$[ebp], 5
  01787	83 c1 04	 add	 ecx, 4
  0178a	51		 push	 ecx
  0178b	6a 7c		 push	 124			; 0000007cH
  0178d	8b 55 08	 mov	 edx, DWORD PTR _data$[ebp]
  01790	52		 push	 edx
  01791	e8 00 00 00 00	 call	 ?getStringToken@@YAHPADDHH0@Z ; getStringToken
  01796	83 c4 14	 add	 esp, 20			; 00000014H

; 1461 : 				ShowVendorItem[i].price = atoi(szMsg);

  01799	8b f4		 mov	 esi, esp
  0179b	8d 85 b0 fb ff
	ff		 lea	 eax, DWORD PTR _szMsg$[ebp]
  017a1	50		 push	 eax
  017a2	ff 15 00 00 00
	00		 call	 DWORD PTR __imp__atoi
  017a8	83 c4 04	 add	 esp, 4
  017ab	3b f4		 cmp	 esi, esp
  017ad	e8 00 00 00 00	 call	 __RTC_CheckEsp
  017b2	69 4d f4 68 05
	00 00		 imul	 ecx, DWORD PTR _i$[ebp], 1384
  017b9	89 81 08 00 00
	00		 mov	 DWORD PTR ?ShowVendorItem@@3PAU_Show_Vendor_Item@@A[ecx+8], eax

; 1462 : 				getStringToken(data, '|', 5 + i * 5, sizeof(szMsg) - 1, szMsg);

  017bf	8d 85 b0 fb ff
	ff		 lea	 eax, DWORD PTR _szMsg$[ebp]
  017c5	50		 push	 eax
  017c6	68 ff 03 00 00	 push	 1023			; 000003ffH
  017cb	6b 4d f4 05	 imul	 ecx, DWORD PTR _i$[ebp], 5
  017cf	83 c1 05	 add	 ecx, 5
  017d2	51		 push	 ecx
  017d3	6a 7c		 push	 124			; 0000007cH
  017d5	8b 55 08	 mov	 edx, DWORD PTR _data$[ebp]
  017d8	52		 push	 edx
  017d9	e8 00 00 00 00	 call	 ?getStringToken@@YAHPADDHH0@Z ; getStringToken
  017de	83 c4 14	 add	 esp, 20			; 00000014H

; 1463 : 				strncpy(ShowVendorItem[i].name, szMsg, sizeof(ShowVendorItem[i].name));

  017e1	8b f4		 mov	 esi, esp
  017e3	6a 1d		 push	 29			; 0000001dH
  017e5	8d 85 b0 fb ff
	ff		 lea	 eax, DWORD PTR _szMsg$[ebp]
  017eb	50		 push	 eax
  017ec	69 4d f4 68 05
	00 00		 imul	 ecx, DWORD PTR _i$[ebp], 1384
  017f3	81 c1 43 00 00
	00		 add	 ecx, OFFSET ?ShowVendorItem@@3PAU_Show_Vendor_Item@@A+67
  017f9	51		 push	 ecx
  017fa	ff 15 00 00 00
	00		 call	 DWORD PTR __imp__strncpy
  01800	83 c4 0c	 add	 esp, 12			; 0000000cH
  01803	3b f4		 cmp	 esi, esp
  01805	e8 00 00 00 00	 call	 __RTC_CheckEsp

; 1464 : 				getStringToken(data, '|', 6 + i * 5, sizeof(szMsg) - 1, szMsg);

  0180a	8d 85 b0 fb ff
	ff		 lea	 eax, DWORD PTR _szMsg$[ebp]
  01810	50		 push	 eax
  01811	68 ff 03 00 00	 push	 1023			; 000003ffH
  01816	6b 4d f4 05	 imul	 ecx, DWORD PTR _i$[ebp], 5
  0181a	83 c1 06	 add	 ecx, 6
  0181d	51		 push	 ecx
  0181e	6a 7c		 push	 124			; 0000007cH
  01820	8b 55 08	 mov	 edx, DWORD PTR _data$[ebp]
  01823	52		 push	 edx
  01824	e8 00 00 00 00	 call	 ?getStringToken@@YAHPADDHH0@Z ; getStringToken
  01829	83 c4 14	 add	 esp, 20			; 00000014H

; 1465 : 				if (ShowVendorItem[i].kind == 0)

  0182c	69 45 f4 68 05
	00 00		 imul	 eax, DWORD PTR _i$[ebp], 1384
  01833	0f be 88 91 01
	00 00		 movsx	 ecx, BYTE PTR ?ShowVendorItem@@3PAU_Show_Vendor_Item@@A[eax+401]
  0183a	85 c9		 test	 ecx, ecx
  0183c	75 28		 jne	 SHORT $LN122@StreetVend

; 1466 : 					ShowVendorItem[i].pile = atoi(szMsg);

  0183e	8b f4		 mov	 esi, esp
  01840	8d 85 b0 fb ff
	ff		 lea	 eax, DWORD PTR _szMsg$[ebp]
  01846	50		 push	 eax
  01847	ff 15 00 00 00
	00		 call	 DWORD PTR __imp__atoi
  0184d	83 c4 04	 add	 esp, 4
  01850	3b f4		 cmp	 esi, esp
  01852	e8 00 00 00 00	 call	 __RTC_CheckEsp
  01857	69 4d f4 68 05
	00 00		 imul	 ecx, DWORD PTR _i$[ebp], 1384
  0185e	89 81 04 00 00
	00		 mov	 DWORD PTR ?ShowVendorItem@@3PAU_Show_Vendor_Item@@A[ecx+4], eax

; 1467 : 				else

  01864	eb 29		 jmp	 SHORT $LN123@StreetVend
$LN122@StreetVend:

; 1468 : 					strncpy(ShowVendorItem[i].freeName, szMsg, sizeof(ShowVendorItem[i].freeName));

  01866	8b f4		 mov	 esi, esp
  01868	6a 1d		 push	 29			; 0000001dH
  0186a	8d 85 b0 fb ff
	ff		 lea	 eax, DWORD PTR _szMsg$[ebp]
  01870	50		 push	 eax
  01871	69 4d f4 68 05
	00 00		 imul	 ecx, DWORD PTR _i$[ebp], 1384
  01878	81 c1 60 00 00
	00		 add	 ecx, OFFSET ?ShowVendorItem@@3PAU_Show_Vendor_Item@@A+96
  0187e	51		 push	 ecx
  0187f	ff 15 00 00 00
	00		 call	 DWORD PTR __imp__strncpy
  01885	83 c4 0c	 add	 esp, 12			; 0000000cH
  01888	3b f4		 cmp	 esi, esp
  0188a	e8 00 00 00 00	 call	 __RTC_CheckEsp
$LN123@StreetVend:

; 1469 : 				getStringToken(data, '|', 7 + i * 5, sizeof(szMsg) - 1, szMsg);

  0188f	8d 85 b0 fb ff
	ff		 lea	 eax, DWORD PTR _szMsg$[ebp]
  01895	50		 push	 eax
  01896	68 ff 03 00 00	 push	 1023			; 000003ffH
  0189b	6b 4d f4 05	 imul	 ecx, DWORD PTR _i$[ebp], 5
  0189f	83 c1 07	 add	 ecx, 7
  018a2	51		 push	 ecx
  018a3	6a 7c		 push	 124			; 0000007cH
  018a5	8b 55 08	 mov	 edx, DWORD PTR _data$[ebp]
  018a8	52		 push	 edx
  018a9	e8 00 00 00 00	 call	 ?getStringToken@@YAHPADDHH0@Z ; getStringToken
  018ae	83 c4 14	 add	 esp, 20			; 00000014H

; 1470 : 				ShowVendorItem[i].index = atoi(szMsg);

  018b1	8b f4		 mov	 esi, esp
  018b3	8d 85 b0 fb ff
	ff		 lea	 eax, DWORD PTR _szMsg$[ebp]
  018b9	50		 push	 eax
  018ba	ff 15 00 00 00
	00		 call	 DWORD PTR __imp__atoi
  018c0	83 c4 04	 add	 esp, 4
  018c3	3b f4		 cmp	 esi, esp
  018c5	e8 00 00 00 00	 call	 __RTC_CheckEsp
  018ca	69 4d f4 68 05
	00 00		 imul	 ecx, DWORD PTR _i$[ebp], 1384
  018d1	89 81 3c 00 00
	00		 mov	 DWORD PTR ?ShowVendorItem@@3PAU_Show_Vendor_Item@@A[ecx+60], eax

; 1471 : 				ShowVendorItem[i].usage = true;

  018d7	69 45 f4 68 05
	00 00		 imul	 eax, DWORD PTR _i$[ebp], 1384
  018de	c6 80 40 00 00
	00 01		 mov	 BYTE PTR ?ShowVendorItem@@3PAU_Show_Vendor_Item@@A[eax+64], 1

; 1472 : 			}

  018e5	e9 2d fe ff ff	 jmp	 $LN35@StreetVend
$LN36@StreetVend:

; 1473 : 		}
; 1474 : 		// [毵る  耄]
; 1475 : 		else if (szMsg[0] == 'D')

  018ea	e9 5e 08 00 00	 jmp	 $LN131@StreetVend
$LN120@StreetVend:
  018ef	b8 01 00 00 00	 mov	 eax, 1
  018f4	6b c8 00	 imul	 ecx, eax, 0
  018f7	0f be 94 0d b0
	fb ff ff	 movsx	 edx, BYTE PTR _szMsg$[ebp+ecx]
  018ff	83 fa 44	 cmp	 edx, 68			; 00000044H
  01902	0f 85 45 08 00
	00		 jne	 $LN131@StreetVend

; 1476 : 		{
; 1477 : 			getStringToken(data, '|', 2, sizeof(szMsg) - 1, szMsg);

  01908	8d 85 b0 fb ff
	ff		 lea	 eax, DWORD PTR _szMsg$[ebp]
  0190e	50		 push	 eax
  0190f	68 ff 03 00 00	 push	 1023			; 000003ffH
  01914	6a 02		 push	 2
  01916	6a 7c		 push	 124			; 0000007cH
  01918	8b 4d 08	 mov	 ecx, DWORD PTR _data$[ebp]
  0191b	51		 push	 ecx
  0191c	e8 00 00 00 00	 call	 ?getStringToken@@YAHPADDHH0@Z ; getStringToken
  01921	83 c4 14	 add	 esp, 20			; 00000014H

; 1478 : 			index = atoi(szMsg);

  01924	8b f4		 mov	 esi, esp
  01926	8d 85 b0 fb ff
	ff		 lea	 eax, DWORD PTR _szMsg$[ebp]
  0192c	50		 push	 eax
  0192d	ff 15 00 00 00
	00		 call	 DWORD PTR __imp__atoi
  01933	83 c4 04	 add	 esp, 4
  01936	3b f4		 cmp	 esi, esp
  01938	e8 00 00 00 00	 call	 __RTC_CheckEsp
  0193d	89 85 18 fa ff
	ff		 mov	 DWORD PTR _index$10[ebp], eax

; 1479 : 			for (i = 0; i < MAX_SELL_ITEM; i++)

  01943	c7 45 f4 00 00
	00 00		 mov	 DWORD PTR _i$[ebp], 0
  0194a	eb 09		 jmp	 SHORT $LN40@StreetVend
$LN38@StreetVend:
  0194c	8b 45 f4	 mov	 eax, DWORD PTR _i$[ebp]
  0194f	83 c0 01	 add	 eax, 1
  01952	89 45 f4	 mov	 DWORD PTR _i$[ebp], eax
$LN40@StreetVend:
  01955	83 7d f4 14	 cmp	 DWORD PTR _i$[ebp], 20	; 00000014H
  01959	7d 34		 jge	 SHORT $LN39@StreetVend

; 1480 : 			{
; 1481 : 				if (ShowVendorItem[i].usage && ShowVendorItem[i].index == index)

  0195b	69 45 f4 68 05
	00 00		 imul	 eax, DWORD PTR _i$[ebp], 1384
  01962	0f b6 88 40 00
	00 00		 movzx	 ecx, BYTE PTR ?ShowVendorItem@@3PAU_Show_Vendor_Item@@A[eax+64]
  01969	85 c9		 test	 ecx, ecx
  0196b	74 20		 je	 SHORT $LN125@StreetVend
  0196d	69 45 f4 68 05
	00 00		 imul	 eax, DWORD PTR _i$[ebp], 1384
  01974	8b 88 3c 00 00
	00		 mov	 ecx, DWORD PTR ?ShowVendorItem@@3PAU_Show_Vendor_Item@@A[eax+60]
  0197a	3b 8d 18 fa ff
	ff		 cmp	 ecx, DWORD PTR _index$10[ebp]
  01980	75 0b		 jne	 SHORT $LN125@StreetVend

; 1482 : 				{
; 1483 : 					index = i;

  01982	8b 45 f4	 mov	 eax, DWORD PTR _i$[ebp]
  01985	89 85 18 fa ff
	ff		 mov	 DWORD PTR _index$10[ebp], eax

; 1484 : 					break;

  0198b	eb 02		 jmp	 SHORT $LN39@StreetVend
$LN125@StreetVend:

; 1485 : 				}
; 1486 : 			}

  0198d	eb bd		 jmp	 SHORT $LN38@StreetVend
$LN39@StreetVend:

; 1487 : 			if (index >= 0 && index < MAX_SELL_ITEM)

  0198f	83 bd 18 fa ff
	ff 00		 cmp	 DWORD PTR _index$10[ebp], 0
  01996	0f 8c b1 07 00
	00		 jl	 $LN131@StreetVend
  0199c	83 bd 18 fa ff
	ff 14		 cmp	 DWORD PTR _index$10[ebp], 20 ; 00000014H
  019a3	0f 8d a4 07 00
	00		 jge	 $LN131@StreetVend

; 1488 : 			{
; 1489 : 				if (ShowVendorItem[index].kind == 0)

  019a9	69 85 18 fa ff
	ff 68 05 00 00	 imul	 eax, DWORD PTR _index$10[ebp], 1384
  019b3	0f be 88 91 01
	00 00		 movsx	 ecx, BYTE PTR ?ShowVendorItem@@3PAU_Show_Vendor_Item@@A[eax+401]
  019ba	85 c9		 test	 ecx, ecx
  019bc	0f 85 1f 01 00
	00		 jne	 $LN127@StreetVend

; 1490 : 				{
; 1491 : 					getStringToken(data, '|', 3, sizeof(szMsg) - 1, szMsg);

  019c2	8d 85 b0 fb ff
	ff		 lea	 eax, DWORD PTR _szMsg$[ebp]
  019c8	50		 push	 eax
  019c9	68 ff 03 00 00	 push	 1023			; 000003ffH
  019ce	6a 03		 push	 3
  019d0	6a 7c		 push	 124			; 0000007cH
  019d2	8b 4d 08	 mov	 ecx, DWORD PTR _data$[ebp]
  019d5	51		 push	 ecx
  019d6	e8 00 00 00 00	 call	 ?getStringToken@@YAHPADDHH0@Z ; getStringToken
  019db	83 c4 14	 add	 esp, 20			; 00000014H

; 1492 : 					strncpy(ShowVendorItem[index].memo, szMsg, sizeof(ShowVendorItem[index].memo));

  019de	8b f4		 mov	 esi, esp
  019e0	6a 55		 push	 85			; 00000055H
  019e2	8d 85 b0 fb ff
	ff		 lea	 eax, DWORD PTR _szMsg$[ebp]
  019e8	50		 push	 eax
  019e9	69 8d 18 fa ff
	ff 68 05 00 00	 imul	 ecx, DWORD PTR _index$10[ebp], 1384
  019f3	81 c1 7d 00 00
	00		 add	 ecx, OFFSET ?ShowVendorItem@@3PAU_Show_Vendor_Item@@A+125
  019f9	51		 push	 ecx
  019fa	ff 15 00 00 00
	00		 call	 DWORD PTR __imp__strncpy
  01a00	83 c4 0c	 add	 esp, 12			; 0000000cH
  01a03	3b f4		 cmp	 esi, esp
  01a05	e8 00 00 00 00	 call	 __RTC_CheckEsp

; 1493 : 					getStringToken(data, '|', 4, sizeof(szMsg) - 1, szMsg);

  01a0a	8d 85 b0 fb ff
	ff		 lea	 eax, DWORD PTR _szMsg$[ebp]
  01a10	50		 push	 eax
  01a11	68 ff 03 00 00	 push	 1023			; 000003ffH
  01a16	6a 04		 push	 4
  01a18	6a 7c		 push	 124			; 0000007cH
  01a1a	8b 4d 08	 mov	 ecx, DWORD PTR _data$[ebp]
  01a1d	51		 push	 ecx
  01a1e	e8 00 00 00 00	 call	 ?getStringToken@@YAHPADDHH0@Z ; getStringToken
  01a23	83 c4 14	 add	 esp, 20			; 00000014H

; 1494 : 					strncpy(ShowVendorItem[index].damage, szMsg, sizeof(ShowVendorItem[index].damage));

  01a26	8b f4		 mov	 esi, esp
  01a28	6a 10		 push	 16			; 00000010H
  01a2a	8d 85 b0 fb ff
	ff		 lea	 eax, DWORD PTR _szMsg$[ebp]
  01a30	50		 push	 eax
  01a31	69 8d 18 fa ff
	ff 68 05 00 00	 imul	 ecx, DWORD PTR _index$10[ebp], 1384
  01a3b	81 c1 d2 00 00
	00		 add	 ecx, OFFSET ?ShowVendorItem@@3PAU_Show_Vendor_Item@@A+210
  01a41	51		 push	 ecx
  01a42	ff 15 00 00 00
	00		 call	 DWORD PTR __imp__strncpy
  01a48	83 c4 0c	 add	 esp, 12			; 0000000cH
  01a4b	3b f4		 cmp	 esi, esp
  01a4d	e8 00 00 00 00	 call	 __RTC_CheckEsp

; 1495 : 					getStringToken(data, '|', 5, sizeof(szMsg) - 1, szMsg);

  01a52	8d 85 b0 fb ff
	ff		 lea	 eax, DWORD PTR _szMsg$[ebp]
  01a58	50		 push	 eax
  01a59	68 ff 03 00 00	 push	 1023			; 000003ffH
  01a5e	6a 05		 push	 5
  01a60	6a 7c		 push	 124			; 0000007cH
  01a62	8b 4d 08	 mov	 ecx, DWORD PTR _data$[ebp]
  01a65	51		 push	 ecx
  01a66	e8 00 00 00 00	 call	 ?getStringToken@@YAHPADDHH0@Z ; getStringToken
  01a6b	83 c4 14	 add	 esp, 20			; 00000014H

; 1496 : 					ShowVendorItem[index].color = atoi(szMsg);

  01a6e	8b f4		 mov	 esi, esp
  01a70	8d 85 b0 fb ff
	ff		 lea	 eax, DWORD PTR _szMsg$[ebp]
  01a76	50		 push	 eax
  01a77	ff 15 00 00 00
	00		 call	 DWORD PTR __imp__atoi
  01a7d	83 c4 04	 add	 esp, 4
  01a80	3b f4		 cmp	 esi, esp
  01a82	e8 00 00 00 00	 call	 __RTC_CheckEsp
  01a87	69 8d 18 fa ff
	ff 68 05 00 00	 imul	 ecx, DWORD PTR _index$10[ebp], 1384
  01a91	89 81 0c 00 00
	00		 mov	 DWORD PTR ?ShowVendorItem@@3PAU_Show_Vendor_Item@@A[ecx+12], eax

; 1497 : 					getStringToken(data, '|', 6, sizeof(szMsg) - 1, szMsg);

  01a97	8d 85 b0 fb ff
	ff		 lea	 eax, DWORD PTR _szMsg$[ebp]
  01a9d	50		 push	 eax
  01a9e	68 ff 03 00 00	 push	 1023			; 000003ffH
  01aa3	6a 06		 push	 6
  01aa5	6a 7c		 push	 124			; 0000007cH
  01aa7	8b 4d 08	 mov	 ecx, DWORD PTR _data$[ebp]
  01aaa	51		 push	 ecx
  01aab	e8 00 00 00 00	 call	 ?getStringToken@@YAHPADDHH0@Z ; getStringToken
  01ab0	83 c4 14	 add	 esp, 20			; 00000014H

; 1498 : 					ShowVendorItem[index].bmpNo = atoi(szMsg);

  01ab3	8b f4		 mov	 esi, esp
  01ab5	8d 85 b0 fb ff
	ff		 lea	 eax, DWORD PTR _szMsg$[ebp]
  01abb	50		 push	 eax
  01abc	ff 15 00 00 00
	00		 call	 DWORD PTR __imp__atoi
  01ac2	83 c4 04	 add	 esp, 4
  01ac5	3b f4		 cmp	 esi, esp
  01ac7	e8 00 00 00 00	 call	 __RTC_CheckEsp
  01acc	69 8d 18 fa ff
	ff 68 05 00 00	 imul	 ecx, DWORD PTR _index$10[ebp], 1384
  01ad6	89 81 00 00 00
	00		 mov	 DWORD PTR ?ShowVendorItem@@3PAU_Show_Vendor_Item@@A[ecx], eax

; 1499 : 				}
; 1500 : 				else

  01adc	e9 5b 06 00 00	 jmp	 $LN128@StreetVend
$LN127@StreetVend:

; 1501 : 				{
; 1502 : 					int size = sizeof(ShowVendorItem[index].skillname[0]);

  01ae1	c7 85 00 fa ff
	ff 19 00 00 00	 mov	 DWORD PTR _size$8[ebp], 25 ; 00000019H

; 1503 : 
; 1504 : 					getStringToken(data, '|', 3, sizeof(szMsg) - 1, szMsg);

  01aeb	8d 85 b0 fb ff
	ff		 lea	 eax, DWORD PTR _szMsg$[ebp]
  01af1	50		 push	 eax
  01af2	68 ff 03 00 00	 push	 1023			; 000003ffH
  01af7	6a 03		 push	 3
  01af9	6a 7c		 push	 124			; 0000007cH
  01afb	8b 4d 08	 mov	 ecx, DWORD PTR _data$[ebp]
  01afe	51		 push	 ecx
  01aff	e8 00 00 00 00	 call	 ?getStringToken@@YAHPADDHH0@Z ; getStringToken
  01b04	83 c4 14	 add	 esp, 20			; 00000014H

; 1505 : 					count = atoi(szMsg);

  01b07	8b f4		 mov	 esi, esp
  01b09	8d 85 b0 fb ff
	ff		 lea	 eax, DWORD PTR _szMsg$[ebp]
  01b0f	50		 push	 eax
  01b10	ff 15 00 00 00
	00		 call	 DWORD PTR __imp__atoi
  01b16	83 c4 04	 add	 esp, 4
  01b19	3b f4		 cmp	 esi, esp
  01b1b	e8 00 00 00 00	 call	 __RTC_CheckEsp
  01b20	89 85 24 fa ff
	ff		 mov	 DWORD PTR _count$11[ebp], eax

; 1506 : 					for (i = 0; i < count; i++)

  01b26	c7 45 f4 00 00
	00 00		 mov	 DWORD PTR _i$[ebp], 0
  01b2d	eb 09		 jmp	 SHORT $LN43@StreetVend
$LN41@StreetVend:
  01b2f	8b 45 f4	 mov	 eax, DWORD PTR _i$[ebp]
  01b32	83 c0 01	 add	 eax, 1
  01b35	89 45 f4	 mov	 DWORD PTR _i$[ebp], eax
$LN43@StreetVend:
  01b38	8b 45 f4	 mov	 eax, DWORD PTR _i$[ebp]
  01b3b	3b 85 24 fa ff
	ff		 cmp	 eax, DWORD PTR _count$11[ebp]
  01b41	7d 59		 jge	 SHORT $LN42@StreetVend

; 1507 : 					{
; 1508 : 						getStringToken(data, '|', 4 + i, sizeof(szMsg) - 1, szMsg);

  01b43	8d 85 b0 fb ff
	ff		 lea	 eax, DWORD PTR _szMsg$[ebp]
  01b49	50		 push	 eax
  01b4a	68 ff 03 00 00	 push	 1023			; 000003ffH
  01b4f	8b 4d f4	 mov	 ecx, DWORD PTR _i$[ebp]
  01b52	83 c1 04	 add	 ecx, 4
  01b55	51		 push	 ecx
  01b56	6a 7c		 push	 124			; 0000007cH
  01b58	8b 55 08	 mov	 edx, DWORD PTR _data$[ebp]
  01b5b	52		 push	 edx
  01b5c	e8 00 00 00 00	 call	 ?getStringToken@@YAHPADDHH0@Z ; getStringToken
  01b61	83 c4 14	 add	 esp, 20			; 00000014H

; 1509 : 						strncpy(ShowVendorItem[index].skillname[i], szMsg, size);

  01b64	8b f4		 mov	 esi, esp
  01b66	8b 85 00 fa ff
	ff		 mov	 eax, DWORD PTR _size$8[ebp]
  01b6c	50		 push	 eax
  01b6d	8d 8d b0 fb ff
	ff		 lea	 ecx, DWORD PTR _szMsg$[ebp]
  01b73	51		 push	 ecx
  01b74	69 95 18 fa ff
	ff 68 05 00 00	 imul	 edx, DWORD PTR _index$10[ebp], 1384
  01b7e	6b 45 f4 19	 imul	 eax, DWORD PTR _i$[ebp], 25
  01b82	8d 8c 02 e2 00
	00 00		 lea	 ecx, DWORD PTR ?ShowVendorItem@@3PAU_Show_Vendor_Item@@A[edx+eax+226]
  01b89	51		 push	 ecx
  01b8a	ff 15 00 00 00
	00		 call	 DWORD PTR __imp__strncpy
  01b90	83 c4 0c	 add	 esp, 12			; 0000000cH
  01b93	3b f4		 cmp	 esi, esp
  01b95	e8 00 00 00 00	 call	 __RTC_CheckEsp

; 1510 : 					}

  01b9a	eb 93		 jmp	 SHORT $LN41@StreetVend
$LN42@StreetVend:

; 1511 : 					ShowVendorItem[index].maxSkill = count;

  01b9c	69 85 18 fa ff
	ff 68 05 00 00	 imul	 eax, DWORD PTR _index$10[ebp], 1384
  01ba6	8b 8d 24 fa ff
	ff		 mov	 ecx, DWORD PTR _count$11[ebp]
  01bac	89 88 38 00 00
	00		 mov	 DWORD PTR ?ShowVendorItem@@3PAU_Show_Vendor_Item@@A[eax+56], ecx

; 1512 : 					getStringToken(data, '|', 4 + i, sizeof(szMsg) - 1, szMsg);

  01bb2	8d 85 b0 fb ff
	ff		 lea	 eax, DWORD PTR _szMsg$[ebp]
  01bb8	50		 push	 eax
  01bb9	68 ff 03 00 00	 push	 1023			; 000003ffH
  01bbe	8b 4d f4	 mov	 ecx, DWORD PTR _i$[ebp]
  01bc1	83 c1 04	 add	 ecx, 4
  01bc4	51		 push	 ecx
  01bc5	6a 7c		 push	 124			; 0000007cH
  01bc7	8b 55 08	 mov	 edx, DWORD PTR _data$[ebp]
  01bca	52		 push	 edx
  01bcb	e8 00 00 00 00	 call	 ?getStringToken@@YAHPADDHH0@Z ; getStringToken
  01bd0	83 c4 14	 add	 esp, 20			; 00000014H

; 1513 : 					ShowVendorItem[index].level = atoi(szMsg);

  01bd3	8b f4		 mov	 esi, esp
  01bd5	8d 85 b0 fb ff
	ff		 lea	 eax, DWORD PTR _szMsg$[ebp]
  01bdb	50		 push	 eax
  01bdc	ff 15 00 00 00
	00		 call	 DWORD PTR __imp__atoi
  01be2	83 c4 04	 add	 esp, 4
  01be5	3b f4		 cmp	 esi, esp
  01be7	e8 00 00 00 00	 call	 __RTC_CheckEsp
  01bec	69 8d 18 fa ff
	ff 68 05 00 00	 imul	 ecx, DWORD PTR _index$10[ebp], 1384
  01bf6	89 81 10 00 00
	00		 mov	 DWORD PTR ?ShowVendorItem@@3PAU_Show_Vendor_Item@@A[ecx+16], eax

; 1514 : 					getStringToken(data, '|', 5 + i, sizeof(szMsg) - 1, szMsg);

  01bfc	8d 85 b0 fb ff
	ff		 lea	 eax, DWORD PTR _szMsg$[ebp]
  01c02	50		 push	 eax
  01c03	68 ff 03 00 00	 push	 1023			; 000003ffH
  01c08	8b 4d f4	 mov	 ecx, DWORD PTR _i$[ebp]
  01c0b	83 c1 05	 add	 ecx, 5
  01c0e	51		 push	 ecx
  01c0f	6a 7c		 push	 124			; 0000007cH
  01c11	8b 55 08	 mov	 edx, DWORD PTR _data$[ebp]
  01c14	52		 push	 edx
  01c15	e8 00 00 00 00	 call	 ?getStringToken@@YAHPADDHH0@Z ; getStringToken
  01c1a	83 c4 14	 add	 esp, 20			; 00000014H

; 1515 : 					ShowVendorItem[index].maxhp = atoi(szMsg);

  01c1d	8b f4		 mov	 esi, esp
  01c1f	8d 85 b0 fb ff
	ff		 lea	 eax, DWORD PTR _szMsg$[ebp]
  01c25	50		 push	 eax
  01c26	ff 15 00 00 00
	00		 call	 DWORD PTR __imp__atoi
  01c2c	83 c4 04	 add	 esp, 4
  01c2f	3b f4		 cmp	 esi, esp
  01c31	e8 00 00 00 00	 call	 __RTC_CheckEsp
  01c36	69 8d 18 fa ff
	ff 68 05 00 00	 imul	 ecx, DWORD PTR _index$10[ebp], 1384
  01c40	89 81 14 00 00
	00		 mov	 DWORD PTR ?ShowVendorItem@@3PAU_Show_Vendor_Item@@A[ecx+20], eax

; 1516 : 					getStringToken(data, '|', 6 + i, sizeof(szMsg) - 1, szMsg);

  01c46	8d 85 b0 fb ff
	ff		 lea	 eax, DWORD PTR _szMsg$[ebp]
  01c4c	50		 push	 eax
  01c4d	68 ff 03 00 00	 push	 1023			; 000003ffH
  01c52	8b 4d f4	 mov	 ecx, DWORD PTR _i$[ebp]
  01c55	83 c1 06	 add	 ecx, 6
  01c58	51		 push	 ecx
  01c59	6a 7c		 push	 124			; 0000007cH
  01c5b	8b 55 08	 mov	 edx, DWORD PTR _data$[ebp]
  01c5e	52		 push	 edx
  01c5f	e8 00 00 00 00	 call	 ?getStringToken@@YAHPADDHH0@Z ; getStringToken
  01c64	83 c4 14	 add	 esp, 20			; 00000014H

; 1517 : 					ShowVendorItem[index].attack = atoi(szMsg);

  01c67	8b f4		 mov	 esi, esp
  01c69	8d 85 b0 fb ff
	ff		 lea	 eax, DWORD PTR _szMsg$[ebp]
  01c6f	50		 push	 eax
  01c70	ff 15 00 00 00
	00		 call	 DWORD PTR __imp__atoi
  01c76	83 c4 04	 add	 esp, 4
  01c79	3b f4		 cmp	 esi, esp
  01c7b	e8 00 00 00 00	 call	 __RTC_CheckEsp
  01c80	69 8d 18 fa ff
	ff 68 05 00 00	 imul	 ecx, DWORD PTR _index$10[ebp], 1384
  01c8a	89 81 18 00 00
	00		 mov	 DWORD PTR ?ShowVendorItem@@3PAU_Show_Vendor_Item@@A[ecx+24], eax

; 1518 : 					getStringToken(data, '|', 7 + i, sizeof(szMsg) - 1, szMsg);

  01c90	8d 85 b0 fb ff
	ff		 lea	 eax, DWORD PTR _szMsg$[ebp]
  01c96	50		 push	 eax
  01c97	68 ff 03 00 00	 push	 1023			; 000003ffH
  01c9c	8b 4d f4	 mov	 ecx, DWORD PTR _i$[ebp]
  01c9f	83 c1 07	 add	 ecx, 7
  01ca2	51		 push	 ecx
  01ca3	6a 7c		 push	 124			; 0000007cH
  01ca5	8b 55 08	 mov	 edx, DWORD PTR _data$[ebp]
  01ca8	52		 push	 edx
  01ca9	e8 00 00 00 00	 call	 ?getStringToken@@YAHPADDHH0@Z ; getStringToken
  01cae	83 c4 14	 add	 esp, 20			; 00000014H

; 1519 : 					ShowVendorItem[index].defence = atoi(szMsg);

  01cb1	8b f4		 mov	 esi, esp
  01cb3	8d 85 b0 fb ff
	ff		 lea	 eax, DWORD PTR _szMsg$[ebp]
  01cb9	50		 push	 eax
  01cba	ff 15 00 00 00
	00		 call	 DWORD PTR __imp__atoi
  01cc0	83 c4 04	 add	 esp, 4
  01cc3	3b f4		 cmp	 esi, esp
  01cc5	e8 00 00 00 00	 call	 __RTC_CheckEsp
  01cca	69 8d 18 fa ff
	ff 68 05 00 00	 imul	 ecx, DWORD PTR _index$10[ebp], 1384
  01cd4	89 81 1c 00 00
	00		 mov	 DWORD PTR ?ShowVendorItem@@3PAU_Show_Vendor_Item@@A[ecx+28], eax

; 1520 : 					getStringToken(data, '|', 8 + i, sizeof(szMsg) - 1, szMsg);

  01cda	8d 85 b0 fb ff
	ff		 lea	 eax, DWORD PTR _szMsg$[ebp]
  01ce0	50		 push	 eax
  01ce1	68 ff 03 00 00	 push	 1023			; 000003ffH
  01ce6	8b 4d f4	 mov	 ecx, DWORD PTR _i$[ebp]
  01ce9	83 c1 08	 add	 ecx, 8
  01cec	51		 push	 ecx
  01ced	6a 7c		 push	 124			; 0000007cH
  01cef	8b 55 08	 mov	 edx, DWORD PTR _data$[ebp]
  01cf2	52		 push	 edx
  01cf3	e8 00 00 00 00	 call	 ?getStringToken@@YAHPADDHH0@Z ; getStringToken
  01cf8	83 c4 14	 add	 esp, 20			; 00000014H

; 1521 : 					ShowVendorItem[index].dex = atoi(szMsg);

  01cfb	8b f4		 mov	 esi, esp
  01cfd	8d 85 b0 fb ff
	ff		 lea	 eax, DWORD PTR _szMsg$[ebp]
  01d03	50		 push	 eax
  01d04	ff 15 00 00 00
	00		 call	 DWORD PTR __imp__atoi
  01d0a	83 c4 04	 add	 esp, 4
  01d0d	3b f4		 cmp	 esi, esp
  01d0f	e8 00 00 00 00	 call	 __RTC_CheckEsp
  01d14	69 8d 18 fa ff
	ff 68 05 00 00	 imul	 ecx, DWORD PTR _index$10[ebp], 1384
  01d1e	89 81 20 00 00
	00		 mov	 DWORD PTR ?ShowVendorItem@@3PAU_Show_Vendor_Item@@A[ecx+32], eax

; 1522 : 					getStringToken(data, '|', 9 + i, sizeof(szMsg) - 1, szMsg);

  01d24	8d 85 b0 fb ff
	ff		 lea	 eax, DWORD PTR _szMsg$[ebp]
  01d2a	50		 push	 eax
  01d2b	68 ff 03 00 00	 push	 1023			; 000003ffH
  01d30	8b 4d f4	 mov	 ecx, DWORD PTR _i$[ebp]
  01d33	83 c1 09	 add	 ecx, 9
  01d36	51		 push	 ecx
  01d37	6a 7c		 push	 124			; 0000007cH
  01d39	8b 55 08	 mov	 edx, DWORD PTR _data$[ebp]
  01d3c	52		 push	 edx
  01d3d	e8 00 00 00 00	 call	 ?getStringToken@@YAHPADDHH0@Z ; getStringToken
  01d42	83 c4 14	 add	 esp, 20			; 00000014H

; 1523 : 					ShowVendorItem[index].earth = atoi(szMsg);

  01d45	8b f4		 mov	 esi, esp
  01d47	8d 85 b0 fb ff
	ff		 lea	 eax, DWORD PTR _szMsg$[ebp]
  01d4d	50		 push	 eax
  01d4e	ff 15 00 00 00
	00		 call	 DWORD PTR __imp__atoi
  01d54	83 c4 04	 add	 esp, 4
  01d57	3b f4		 cmp	 esi, esp
  01d59	e8 00 00 00 00	 call	 __RTC_CheckEsp
  01d5e	69 8d 18 fa ff
	ff 68 05 00 00	 imul	 ecx, DWORD PTR _index$10[ebp], 1384
  01d68	89 81 24 00 00
	00		 mov	 DWORD PTR ?ShowVendorItem@@3PAU_Show_Vendor_Item@@A[ecx+36], eax

; 1524 : 					getStringToken(data, '|', 10 + i, sizeof(szMsg) - 1, szMsg);

  01d6e	8d 85 b0 fb ff
	ff		 lea	 eax, DWORD PTR _szMsg$[ebp]
  01d74	50		 push	 eax
  01d75	68 ff 03 00 00	 push	 1023			; 000003ffH
  01d7a	8b 4d f4	 mov	 ecx, DWORD PTR _i$[ebp]
  01d7d	83 c1 0a	 add	 ecx, 10			; 0000000aH
  01d80	51		 push	 ecx
  01d81	6a 7c		 push	 124			; 0000007cH
  01d83	8b 55 08	 mov	 edx, DWORD PTR _data$[ebp]
  01d86	52		 push	 edx
  01d87	e8 00 00 00 00	 call	 ?getStringToken@@YAHPADDHH0@Z ; getStringToken
  01d8c	83 c4 14	 add	 esp, 20			; 00000014H

; 1525 : 					ShowVendorItem[index].water = atoi(szMsg);

  01d8f	8b f4		 mov	 esi, esp
  01d91	8d 85 b0 fb ff
	ff		 lea	 eax, DWORD PTR _szMsg$[ebp]
  01d97	50		 push	 eax
  01d98	ff 15 00 00 00
	00		 call	 DWORD PTR __imp__atoi
  01d9e	83 c4 04	 add	 esp, 4
  01da1	3b f4		 cmp	 esi, esp
  01da3	e8 00 00 00 00	 call	 __RTC_CheckEsp
  01da8	69 8d 18 fa ff
	ff 68 05 00 00	 imul	 ecx, DWORD PTR _index$10[ebp], 1384
  01db2	89 81 28 00 00
	00		 mov	 DWORD PTR ?ShowVendorItem@@3PAU_Show_Vendor_Item@@A[ecx+40], eax

; 1526 : 					getStringToken(data, '|', 11 + i, sizeof(szMsg) - 1, szMsg);

  01db8	8d 85 b0 fb ff
	ff		 lea	 eax, DWORD PTR _szMsg$[ebp]
  01dbe	50		 push	 eax
  01dbf	68 ff 03 00 00	 push	 1023			; 000003ffH
  01dc4	8b 4d f4	 mov	 ecx, DWORD PTR _i$[ebp]
  01dc7	83 c1 0b	 add	 ecx, 11			; 0000000bH
  01dca	51		 push	 ecx
  01dcb	6a 7c		 push	 124			; 0000007cH
  01dcd	8b 55 08	 mov	 edx, DWORD PTR _data$[ebp]
  01dd0	52		 push	 edx
  01dd1	e8 00 00 00 00	 call	 ?getStringToken@@YAHPADDHH0@Z ; getStringToken
  01dd6	83 c4 14	 add	 esp, 20			; 00000014H

; 1527 : 					ShowVendorItem[index].fire = atoi(szMsg);

  01dd9	8b f4		 mov	 esi, esp
  01ddb	8d 85 b0 fb ff
	ff		 lea	 eax, DWORD PTR _szMsg$[ebp]
  01de1	50		 push	 eax
  01de2	ff 15 00 00 00
	00		 call	 DWORD PTR __imp__atoi
  01de8	83 c4 04	 add	 esp, 4
  01deb	3b f4		 cmp	 esi, esp
  01ded	e8 00 00 00 00	 call	 __RTC_CheckEsp
  01df2	69 8d 18 fa ff
	ff 68 05 00 00	 imul	 ecx, DWORD PTR _index$10[ebp], 1384
  01dfc	89 81 2c 00 00
	00		 mov	 DWORD PTR ?ShowVendorItem@@3PAU_Show_Vendor_Item@@A[ecx+44], eax

; 1528 : 					getStringToken(data, '|', 12 + i, sizeof(szMsg) - 1, szMsg);

  01e02	8d 85 b0 fb ff
	ff		 lea	 eax, DWORD PTR _szMsg$[ebp]
  01e08	50		 push	 eax
  01e09	68 ff 03 00 00	 push	 1023			; 000003ffH
  01e0e	8b 4d f4	 mov	 ecx, DWORD PTR _i$[ebp]
  01e11	83 c1 0c	 add	 ecx, 12			; 0000000cH
  01e14	51		 push	 ecx
  01e15	6a 7c		 push	 124			; 0000007cH
  01e17	8b 55 08	 mov	 edx, DWORD PTR _data$[ebp]
  01e1a	52		 push	 edx
  01e1b	e8 00 00 00 00	 call	 ?getStringToken@@YAHPADDHH0@Z ; getStringToken
  01e20	83 c4 14	 add	 esp, 20			; 00000014H

; 1529 : 					ShowVendorItem[index].wind = atoi(szMsg);

  01e23	8b f4		 mov	 esi, esp
  01e25	8d 85 b0 fb ff
	ff		 lea	 eax, DWORD PTR _szMsg$[ebp]
  01e2b	50		 push	 eax
  01e2c	ff 15 00 00 00
	00		 call	 DWORD PTR __imp__atoi
  01e32	83 c4 04	 add	 esp, 4
  01e35	3b f4		 cmp	 esi, esp
  01e37	e8 00 00 00 00	 call	 __RTC_CheckEsp
  01e3c	69 8d 18 fa ff
	ff 68 05 00 00	 imul	 ecx, DWORD PTR _index$10[ebp], 1384
  01e46	89 81 30 00 00
	00		 mov	 DWORD PTR ?ShowVendorItem@@3PAU_Show_Vendor_Item@@A[ecx+48], eax

; 1530 : 					getStringToken(data, '|', 13 + i, sizeof(szMsg) - 1, szMsg);

  01e4c	8d 85 b0 fb ff
	ff		 lea	 eax, DWORD PTR _szMsg$[ebp]
  01e52	50		 push	 eax
  01e53	68 ff 03 00 00	 push	 1023			; 000003ffH
  01e58	8b 4d f4	 mov	 ecx, DWORD PTR _i$[ebp]
  01e5b	83 c1 0d	 add	 ecx, 13			; 0000000dH
  01e5e	51		 push	 ecx
  01e5f	6a 7c		 push	 124			; 0000007cH
  01e61	8b 55 08	 mov	 edx, DWORD PTR _data$[ebp]
  01e64	52		 push	 edx
  01e65	e8 00 00 00 00	 call	 ?getStringToken@@YAHPADDHH0@Z ; getStringToken
  01e6a	83 c4 14	 add	 esp, 20			; 00000014H

; 1531 : 					ShowVendorItem[index].fidelity = atoi(szMsg);

  01e6d	8b f4		 mov	 esi, esp
  01e6f	8d 85 b0 fb ff
	ff		 lea	 eax, DWORD PTR _szMsg$[ebp]
  01e75	50		 push	 eax
  01e76	ff 15 00 00 00
	00		 call	 DWORD PTR __imp__atoi
  01e7c	83 c4 04	 add	 esp, 4
  01e7f	3b f4		 cmp	 esi, esp
  01e81	e8 00 00 00 00	 call	 __RTC_CheckEsp
  01e86	69 8d 18 fa ff
	ff 68 05 00 00	 imul	 ecx, DWORD PTR _index$10[ebp], 1384
  01e90	89 81 34 00 00
	00		 mov	 DWORD PTR ?ShowVendorItem@@3PAU_Show_Vendor_Item@@A[ecx+52], eax

; 1532 : 					getStringToken(data, '|', 14 + i, sizeof(szMsg) - 1, szMsg);

  01e96	8d 85 b0 fb ff
	ff		 lea	 eax, DWORD PTR _szMsg$[ebp]
  01e9c	50		 push	 eax
  01e9d	68 ff 03 00 00	 push	 1023			; 000003ffH
  01ea2	8b 4d f4	 mov	 ecx, DWORD PTR _i$[ebp]
  01ea5	83 c1 0e	 add	 ecx, 14			; 0000000eH
  01ea8	51		 push	 ecx
  01ea9	6a 7c		 push	 124			; 0000007cH
  01eab	8b 55 08	 mov	 edx, DWORD PTR _data$[ebp]
  01eae	52		 push	 edx
  01eaf	e8 00 00 00 00	 call	 ?getStringToken@@YAHPADDHH0@Z ; getStringToken
  01eb4	83 c4 14	 add	 esp, 20			; 00000014H

; 1533 : 					ShowVendorItem[index].trans = atoi(szMsg);

  01eb7	8b f4		 mov	 esi, esp
  01eb9	8d 85 b0 fb ff
	ff		 lea	 eax, DWORD PTR _szMsg$[ebp]
  01ebf	50		 push	 eax
  01ec0	ff 15 00 00 00
	00		 call	 DWORD PTR __imp__atoi
  01ec6	83 c4 04	 add	 esp, 4
  01ec9	3b f4		 cmp	 esi, esp
  01ecb	e8 00 00 00 00	 call	 __RTC_CheckEsp
  01ed0	69 8d 18 fa ff
	ff 68 05 00 00	 imul	 ecx, DWORD PTR _index$10[ebp], 1384
  01eda	88 81 92 01 00
	00		 mov	 BYTE PTR ?ShowVendorItem@@3PAU_Show_Vendor_Item@@A[ecx+402], al

; 1534 : 					getStringToken(data, '|', 15 + i, sizeof(szMsg) - 1, szMsg);

  01ee0	8d 85 b0 fb ff
	ff		 lea	 eax, DWORD PTR _szMsg$[ebp]
  01ee6	50		 push	 eax
  01ee7	68 ff 03 00 00	 push	 1023			; 000003ffH
  01eec	8b 4d f4	 mov	 ecx, DWORD PTR _i$[ebp]
  01eef	83 c1 0f	 add	 ecx, 15			; 0000000fH
  01ef2	51		 push	 ecx
  01ef3	6a 7c		 push	 124			; 0000007cH
  01ef5	8b 55 08	 mov	 edx, DWORD PTR _data$[ebp]
  01ef8	52		 push	 edx
  01ef9	e8 00 00 00 00	 call	 ?getStringToken@@YAHPADDHH0@Z ; getStringToken
  01efe	83 c4 14	 add	 esp, 20			; 00000014H

; 1535 : 					ShowVendorItem[index].bmpNo = atoi(szMsg);

  01f01	8b f4		 mov	 esi, esp
  01f03	8d 85 b0 fb ff
	ff		 lea	 eax, DWORD PTR _szMsg$[ebp]
  01f09	50		 push	 eax
  01f0a	ff 15 00 00 00
	00		 call	 DWORD PTR __imp__atoi
  01f10	83 c4 04	 add	 esp, 4
  01f13	3b f4		 cmp	 esi, esp
  01f15	e8 00 00 00 00	 call	 __RTC_CheckEsp
  01f1a	69 8d 18 fa ff
	ff 68 05 00 00	 imul	 ecx, DWORD PTR _index$10[ebp], 1384
  01f24	89 81 00 00 00
	00		 mov	 DWORD PTR ?ShowVendorItem@@3PAU_Show_Vendor_Item@@A[ecx], eax

; 1536 : 					if (pShowPet != NULL)

  01f2a	83 3d 00 00 00
	00 00		 cmp	 DWORD PTR ?pShowPet@@3PAUaction@@A, 0 ; pShowPet
  01f31	74 18		 je	 SHORT $LN129@StreetVend

; 1537 : 					{
; 1538 : 						DeathAction(pShowPet);

  01f33	a1 00 00 00 00	 mov	 eax, DWORD PTR ?pShowPet@@3PAUaction@@A ; pShowPet
  01f38	50		 push	 eax
  01f39	e8 00 00 00 00	 call	 ?DeathAction@@YAXPAUaction@@@Z ; DeathAction
  01f3e	83 c4 04	 add	 esp, 4

; 1539 : 						pShowPet = NULL;

  01f41	c7 05 00 00 00
	00 00 00 00 00	 mov	 DWORD PTR ?pShowPet@@3PAUaction@@A, 0 ; pShowPet
$LN129@StreetVend:

; 1540 : 					}
; 1541 : 					iMakePetAni = index;

  01f4b	8b 85 18 fa ff
	ff		 mov	 eax, DWORD PTR _index$10[ebp]
  01f51	a3 00 00 00 00	 mov	 DWORD PTR ?iMakePetAni@?1??StreetVendorBuyWndfunc@@YAXPAD@Z@4HA, eax

; 1542 : #ifdef _PET_ITEM
; 1543 : 					for (int j = 0; j < MAX_PET_ITEM; j++)

  01f56	c7 85 f4 f9 ff
	ff 00 00 00 00	 mov	 DWORD PTR _j$7[ebp], 0
  01f60	eb 0f		 jmp	 SHORT $LN46@StreetVend
$LN44@StreetVend:
  01f62	8b 85 f4 f9 ff
	ff		 mov	 eax, DWORD PTR _j$7[ebp]
  01f68	83 c0 01	 add	 eax, 1
  01f6b	89 85 f4 f9 ff
	ff		 mov	 DWORD PTR _j$7[ebp], eax
$LN46@StreetVend:
  01f71	83 bd f4 f9 ff
	ff 07		 cmp	 DWORD PTR _j$7[ebp], 7
  01f78	0f 8d be 01 00
	00		 jge	 $LN128@StreetVend

; 1544 : 					{
; 1545 : 						// [ル旃]
; 1546 : 						if (getStringToken(data, '|', 16 + i + j * 6, sizeof(szMsg) - 1, szMsg))

  01f7e	8d 85 b0 fb ff
	ff		 lea	 eax, DWORD PTR _szMsg$[ebp]
  01f84	50		 push	 eax
  01f85	68 ff 03 00 00	 push	 1023			; 000003ffH
  01f8a	6b 8d f4 f9 ff
	ff 06		 imul	 ecx, DWORD PTR _j$7[ebp], 6
  01f91	8b 55 f4	 mov	 edx, DWORD PTR _i$[ebp]
  01f94	8d 44 0a 10	 lea	 eax, DWORD PTR [edx+ecx+16]
  01f98	50		 push	 eax
  01f99	6a 7c		 push	 124			; 0000007cH
  01f9b	8b 4d 08	 mov	 ecx, DWORD PTR _data$[ebp]
  01f9e	51		 push	 ecx
  01f9f	e8 00 00 00 00	 call	 ?getStringToken@@YAHPADDHH0@Z ; getStringToken
  01fa4	83 c4 14	 add	 esp, 20			; 00000014H
  01fa7	85 c0		 test	 eax, eax
  01fa9	74 02		 je	 SHORT $LN130@StreetVend

; 1547 : 							continue;

  01fab	eb b5		 jmp	 SHORT $LN44@StreetVend
$LN130@StreetVend:

; 1548 : 						nPetItemPlace = atoi(szMsg);

  01fad	8b f4		 mov	 esi, esp
  01faf	8d 85 b0 fb ff
	ff		 lea	 eax, DWORD PTR _szMsg$[ebp]
  01fb5	50		 push	 eax
  01fb6	ff 15 00 00 00
	00		 call	 DWORD PTR __imp__atoi
  01fbc	83 c4 04	 add	 esp, 4
  01fbf	3b f4		 cmp	 esi, esp
  01fc1	e8 00 00 00 00	 call	 __RTC_CheckEsp
  01fc6	89 85 0c fa ff
	ff		 mov	 DWORD PTR _nPetItemPlace$9[ebp], eax

; 1549 : 						// 措
; 1550 : 						getStringToken(data, '|', 17 + i + j * 6,

  01fcc	69 85 18 fa ff
	ff 68 05 00 00	 imul	 eax, DWORD PTR _index$10[ebp], 1384
  01fd6	69 8d 0c fa ff
	ff 8c 00 00 00	 imul	 ecx, DWORD PTR _nPetItemPlace$9[ebp], 140
  01fe0	8d 94 08 f1 01
	00 00		 lea	 edx, DWORD PTR ?ShowVendorItem@@3PAU_Show_Vendor_Item@@A[eax+ecx+497]
  01fe7	52		 push	 edx
  01fe8	6a 1c		 push	 28			; 0000001cH
  01fea	6b 85 f4 f9 ff
	ff 06		 imul	 eax, DWORD PTR _j$7[ebp], 6
  01ff1	8b 4d f4	 mov	 ecx, DWORD PTR _i$[ebp]
  01ff4	8d 54 01 11	 lea	 edx, DWORD PTR [ecx+eax+17]
  01ff8	52		 push	 edx
  01ff9	6a 7c		 push	 124			; 0000007cH
  01ffb	8b 45 08	 mov	 eax, DWORD PTR _data$[ebp]
  01ffe	50		 push	 eax
  01fff	e8 00 00 00 00	 call	 ?getStringToken@@YAHPADDHH0@Z ; getStringToken
  02004	83 c4 14	 add	 esp, 20			; 00000014H

; 1551 : 							sizeof(ShowVendorItem[index].oPetItemInfo[nPetItemPlace].name) - 1,
; 1552 : 							ShowVendorItem[index].oPetItemInfo[nPetItemPlace].name);
; 1553 : 						// 旮办
; 1554 : 						getStringToken(data, '|', 18 + i + j * 6,

  02007	69 85 18 fa ff
	ff 68 05 00 00	 imul	 eax, DWORD PTR _index$10[ebp], 1384
  02011	69 8d 0c fa ff
	ff 8c 00 00 00	 imul	 ecx, DWORD PTR _nPetItemPlace$9[ebp], 140
  0201b	8d 94 08 9c 01
	00 00		 lea	 edx, DWORD PTR ?ShowVendorItem@@3PAU_Show_Vendor_Item@@A[eax+ecx+412]
  02022	52		 push	 edx
  02023	6a 54		 push	 84			; 00000054H
  02025	6b 85 f4 f9 ff
	ff 06		 imul	 eax, DWORD PTR _j$7[ebp], 6
  0202c	8b 4d f4	 mov	 ecx, DWORD PTR _i$[ebp]
  0202f	8d 54 01 12	 lea	 edx, DWORD PTR [ecx+eax+18]
  02033	52		 push	 edx
  02034	6a 7c		 push	 124			; 0000007cH
  02036	8b 45 08	 mov	 eax, DWORD PTR _data$[ebp]
  02039	50		 push	 eax
  0203a	e8 00 00 00 00	 call	 ?getStringToken@@YAHPADDHH0@Z ; getStringToken
  0203f	83 c4 14	 add	 esp, 20			; 00000014H

; 1555 : 							sizeof(ShowVendorItem[index].oPetItemInfo[nPetItemPlace].memo) - 1,
; 1556 : 							ShowVendorItem[index].oPetItemInfo[nPetItemPlace].memo);
; 1557 : 						// 搓惮
; 1558 : 						getStringToken(data, '|', 19 + i + j * 6,

  02042	69 85 18 fa ff
	ff 68 05 00 00	 imul	 eax, DWORD PTR _index$10[ebp], 1384
  0204c	69 8d 0c fa ff
	ff 8c 00 00 00	 imul	 ecx, DWORD PTR _nPetItemPlace$9[ebp], 140
  02056	8d 94 08 0e 02
	00 00		 lea	 edx, DWORD PTR ?ShowVendorItem@@3PAU_Show_Vendor_Item@@A[eax+ecx+526]
  0205d	52		 push	 edx
  0205e	6a 0f		 push	 15			; 0000000fH
  02060	6b 85 f4 f9 ff
	ff 06		 imul	 eax, DWORD PTR _j$7[ebp], 6
  02067	8b 4d f4	 mov	 ecx, DWORD PTR _i$[ebp]
  0206a	8d 54 01 13	 lea	 edx, DWORD PTR [ecx+eax+19]
  0206e	52		 push	 edx
  0206f	6a 7c		 push	 124			; 0000007cH
  02071	8b 45 08	 mov	 eax, DWORD PTR _data$[ebp]
  02074	50		 push	 eax
  02075	e8 00 00 00 00	 call	 ?getStringToken@@YAHPADDHH0@Z ; getStringToken
  0207a	83 c4 14	 add	 esp, 20			; 00000014H

; 1559 : 							sizeof(ShowVendorItem[index].oPetItemInfo[nPetItemPlace].damage) - 1,
; 1560 : 							ShowVendorItem[index].oPetItemInfo[nPetItemPlace].damage);
; 1561 : 						// ろ胳
; 1562 : 						getStringToken(data, '|', 20 + i + j * 6, sizeof(szMsg) - 1, szMsg);

  0207d	8d 85 b0 fb ff
	ff		 lea	 eax, DWORD PTR _szMsg$[ebp]
  02083	50		 push	 eax
  02084	68 ff 03 00 00	 push	 1023			; 000003ffH
  02089	6b 8d f4 f9 ff
	ff 06		 imul	 ecx, DWORD PTR _j$7[ebp], 6
  02090	8b 55 f4	 mov	 edx, DWORD PTR _i$[ebp]
  02093	8d 44 0a 14	 lea	 eax, DWORD PTR [edx+ecx+20]
  02097	50		 push	 eax
  02098	6a 7c		 push	 124			; 0000007cH
  0209a	8b 4d 08	 mov	 ecx, DWORD PTR _data$[ebp]
  0209d	51		 push	 ecx
  0209e	e8 00 00 00 00	 call	 ?getStringToken@@YAHPADDHH0@Z ; getStringToken
  020a3	83 c4 14	 add	 esp, 20			; 00000014H

; 1563 : 						ShowVendorItem[index].oPetItemInfo[nPetItemPlace].color	= atoi(szMsg);

  020a6	8b f4		 mov	 esi, esp
  020a8	8d 85 b0 fb ff
	ff		 lea	 eax, DWORD PTR _szMsg$[ebp]
  020ae	50		 push	 eax
  020af	ff 15 00 00 00
	00		 call	 DWORD PTR __imp__atoi
  020b5	83 c4 04	 add	 esp, 4
  020b8	3b f4		 cmp	 esi, esp
  020ba	e8 00 00 00 00	 call	 __RTC_CheckEsp
  020bf	69 8d 18 fa ff
	ff 68 05 00 00	 imul	 ecx, DWORD PTR _index$10[ebp], 1384
  020c9	69 95 0c fa ff
	ff 8c 00 00 00	 imul	 edx, DWORD PTR _nPetItemPlace$9[ebp], 140
  020d3	89 84 11 98 01
	00 00		 mov	 DWORD PTR ?ShowVendorItem@@3PAU_Show_Vendor_Item@@A[ecx+edx+408], eax

; 1564 : 						// 氅措
; 1565 : 						getStringToken(data, '|', 21 + i + j * 6, sizeof(szMsg) - 1, szMsg);

  020da	8d 85 b0 fb ff
	ff		 lea	 eax, DWORD PTR _szMsg$[ebp]
  020e0	50		 push	 eax
  020e1	68 ff 03 00 00	 push	 1023			; 000003ffH
  020e6	6b 8d f4 f9 ff
	ff 06		 imul	 ecx, DWORD PTR _j$7[ebp], 6
  020ed	8b 55 f4	 mov	 edx, DWORD PTR _i$[ebp]
  020f0	8d 44 0a 15	 lea	 eax, DWORD PTR [edx+ecx+21]
  020f4	50		 push	 eax
  020f5	6a 7c		 push	 124			; 0000007cH
  020f7	8b 4d 08	 mov	 ecx, DWORD PTR _data$[ebp]
  020fa	51		 push	 ecx
  020fb	e8 00 00 00 00	 call	 ?getStringToken@@YAHPADDHH0@Z ; getStringToken
  02100	83 c4 14	 add	 esp, 20			; 00000014H

; 1566 : 						ShowVendorItem[index].oPetItemInfo[nPetItemPlace].bmpNo	= atoi(szMsg);

  02103	8b f4		 mov	 esi, esp
  02105	8d 85 b0 fb ff
	ff		 lea	 eax, DWORD PTR _szMsg$[ebp]
  0210b	50		 push	 eax
  0210c	ff 15 00 00 00
	00		 call	 DWORD PTR __imp__atoi
  02112	83 c4 04	 add	 esp, 4
  02115	3b f4		 cmp	 esi, esp
  02117	e8 00 00 00 00	 call	 __RTC_CheckEsp
  0211c	69 8d 18 fa ff
	ff 68 05 00 00	 imul	 ecx, DWORD PTR _index$10[ebp], 1384
  02126	69 95 0c fa ff
	ff 8c 00 00 00	 imul	 edx, DWORD PTR _nPetItemPlace$9[ebp], 140
  02130	89 84 11 94 01
	00 00		 mov	 DWORD PTR ?ShowVendorItem@@3PAU_Show_Vendor_Item@@A[ecx+edx+404], eax

; 1567 : 					}

  02137	e9 26 fe ff ff	 jmp	 $LN44@StreetVend
$LN128@StreetVend:

; 1568 : #endif
; 1569 : 				}
; 1570 : 				ShowVendorItem[index].bGetData = true;

  0213c	69 85 18 fa ff
	ff 68 05 00 00	 imul	 eax, DWORD PTR _index$10[ebp], 1384
  02146	c6 80 42 00 00
	00 01		 mov	 BYTE PTR ?ShowVendorItem@@3PAU_Show_Vendor_Item@@A[eax+66], 1
$LN131@StreetVend:

; 1571 : 			}
; 1572 : 		}
; 1573 : 	}
; 1574 : }

  0214d	52		 push	 edx
  0214e	8b cd		 mov	 ecx, ebp
  02150	50		 push	 eax
  02151	8d 15 00 00 00
	00		 lea	 edx, DWORD PTR $LN151@StreetVend
  02157	e8 00 00 00 00	 call	 @_RTC_CheckStackVars@8
  0215c	58		 pop	 eax
  0215d	5a		 pop	 edx
  0215e	5f		 pop	 edi
  0215f	5e		 pop	 esi
  02160	5b		 pop	 ebx
  02161	8b 4d fc	 mov	 ecx, DWORD PTR __$ArrayPad$[ebp]
  02164	33 cd		 xor	 ecx, ebp
  02166	e8 00 00 00 00	 call	 @__security_check_cookie@4
  0216b	81 c4 5c 09 00
	00		 add	 esp, 2396		; 0000095cH
  02171	3b ec		 cmp	 ebp, esp
  02173	e8 00 00 00 00	 call	 __RTC_CheckEsp
  02178	8b e5		 mov	 esp, ebp
  0217a	5d		 pop	 ebp
  0217b	c3		 ret	 0
$LN151@StreetVend:
  0217c	04 00 00 00	 DD	 4
  02180	00 00 00 00	 DD	 $LN150@StreetVend
$LN150@StreetVend:
  02184	b0 fb ff ff	 DD	 -1104			; fffffbb0H
  02188	00 04 00 00	 DD	 1024			; 00000400H
  0218c	00 00 00 00	 DD	 $LN146@StreetVend
  02190	1c fb ff ff	 DD	 -1252			; fffffb1cH
  02194	80 00 00 00	 DD	 128			; 00000080H
  02198	00 00 00 00	 DD	 $LN147@StreetVend
  0219c	94 fa ff ff	 DD	 -1388			; fffffa94H
  021a0	80 00 00 00	 DD	 128			; 00000080H
  021a4	00 00 00 00	 DD	 $LN148@StreetVend
  021a8	84 fa ff ff	 DD	 -1404			; fffffa84H
  021ac	08 00 00 00	 DD	 8
  021b0	00 00 00 00	 DD	 $LN149@StreetVend
$LN149@StreetVend:
  021b4	73		 DB	 115			; 00000073H
  021b5	7a		 DB	 122			; 0000007aH
  021b6	54		 DB	 84			; 00000054H
  021b7	65		 DB	 101			; 00000065H
  021b8	6d		 DB	 109			; 0000006dH
  021b9	70		 DB	 112			; 00000070H
  021ba	31		 DB	 49			; 00000031H
  021bb	00		 DB	 0
$LN148@StreetVend:
  021bc	73		 DB	 115			; 00000073H
  021bd	7a		 DB	 122			; 0000007aH
  021be	54		 DB	 84			; 00000054H
  021bf	65		 DB	 101			; 00000065H
  021c0	6d		 DB	 109			; 0000006dH
  021c1	70		 DB	 112			; 00000070H
  021c2	00		 DB	 0
$LN147@StreetVend:
  021c3	73		 DB	 115			; 00000073H
  021c4	7a		 DB	 122			; 0000007aH
  021c5	4d		 DB	 77			; 0000004dH
  021c6	73		 DB	 115			; 00000073H
  021c7	67		 DB	 103			; 00000067H
  021c8	00		 DB	 0
$LN146@StreetVend:
  021c9	73		 DB	 115			; 00000073H
  021ca	7a		 DB	 122			; 0000007aH
  021cb	4d		 DB	 77			; 0000004dH
  021cc	73		 DB	 115			; 00000073H
  021cd	67		 DB	 103			; 00000067H
  021ce	00		 DB	 0
  021cf	90		 npad	 1
$LN152@StreetVend:
  021d0	00 00 00 00	 DD	 $LN57@StreetVend
  021d4	00 00 00 00	 DD	 $LN61@StreetVend
  021d8	00 00 00 00	 DD	 $LN65@StreetVend
  021dc	00 00 00 00	 DD	 $LN67@StreetVend
  021e0	00 00 00 00	 DD	 $LN69@StreetVend
?StreetVendorBuyWndfunc@@YAXPAD@Z ENDP			; StreetVendorBuyWndfunc
_TEXT	ENDS
; Function compile flags: /Odtp /RTCsu /ZI
; File c:\users\administrator\desktop\????? ??\????? ??\client source code\system\field.cpp
;	COMDAT ?StreetVendorWndfunc@@YAX_NPAD@Z
_TEXT	SEGMENT
tv870 = -2040						; size = 4
tv866 = -2040						; size = 4
tv859 = -2040						; size = 4
tv628 = -2040						; size = 4
tv622 = -2040						; size = 4
tv479 = -2040						; size = 4
_buf$1 = -1456						; size = 64
_szTemp1$2 = -1384					; size = 16
_szTemp$3 = -1360					; size = 512
_szMsg$4 = -840						; size = 512
_count$5 = -320						; size = 4
_price$6 = -308						; size = 4
_index$7 = -296						; size = 4
_kind$8 = -284						; size = 4
_count$9 = -272						; size = 4
_tempY$10 = -260					; size = 4
_tempX$11 = -248					; size = 4
_szMsg$ = -236						; size = 128
_temp$ = -100						; size = 8
_selId$ = -84						; size = 4
_itemy$ = -72						; size = 4
_itemx$ = -60						; size = 4
_y$ = -48						; size = 4
_x$ = -36						; size = 4
_j$ = -24						; size = 4
_i$ = -12						; size = 4
__$ArrayPad$ = -4					; size = 4
_bReset$ = 8						; size = 1
_data$ = 12						; size = 4
?StreetVendorWndfunc@@YAX_NPAD@Z PROC			; StreetVendorWndfunc, COMDAT

; 581  : {

  00000	55		 push	 ebp
  00001	8b ec		 mov	 ebp, esp
  00003	81 ec f8 07 00
	00		 sub	 esp, 2040		; 000007f8H
  00009	53		 push	 ebx
  0000a	56		 push	 esi
  0000b	57		 push	 edi
  0000c	8d bd 08 f8 ff
	ff		 lea	 edi, DWORD PTR [ebp-2040]
  00012	b9 fe 01 00 00	 mov	 ecx, 510		; 000001feH
  00017	b8 cc cc cc cc	 mov	 eax, -858993460		; ccccccccH
  0001c	f3 ab		 rep stosd
  0001e	a1 00 00 00 00	 mov	 eax, DWORD PTR ___security_cookie
  00023	33 c5		 xor	 eax, ebp
  00025	89 45 fc	 mov	 DWORD PTR __$ArrayPad$[ebp], eax

; 582  : 	int i,j,x,y,itemx,itemy,selId = 0;

  00028	c7 45 ac 00 00
	00 00		 mov	 DWORD PTR _selId$[ebp], 0

; 583  : 	char temp[8],szMsg[128];
; 584  : 	static int iBtn[7],iSellItemBtn[MAX_SELL_ITEM],iItemOnSell[15],iShowPet,iPetOnSell[MAX_PET],iGetSellPrice,iListStart;
; 585  : 	static ITEM *pItem = NULL;
; 586  : 	static bool bChangePet = true,bRunSellPrice = false;
; 587  : 	static Show_Sell_Item *pShowSellItem = NULL;
; 588  : 	
; 589  : 	if (pActStreetVendorWnd == NULL)

  0002f	83 3d 00 00 00
	00 00		 cmp	 DWORD PTR ?pActStreetVendorWnd@@3PAUaction@@A, 0 ; pActStreetVendorWnd
  00036	0f 85 ce 04 00
	00		 jne	 $LN34@StreetVend

; 590  : 	{
; 591  : 		//JL800600
; 592  : 		int tempX,tempY;
; 593  : 		if (DISPLACEMENT_X ==0)

  0003c	83 3d 00 00 00
	00 00		 cmp	 DWORD PTR ?DISPLACEMENT_X@@3HA, 0 ; DISPLACEMENT_X
  00043	75 1e		 jne	 SHORT $LN36@StreetVend

; 594  : 		{
; 595  : 			tempX = (DEF_APPSIZEX >> 1) - (622 >> 1);

  00045	a1 00 00 00 00	 mov	 eax, DWORD PTR ?DEF_APPSIZEX@@3HA ; DEF_APPSIZEX
  0004a	d1 f8		 sar	 eax, 1
  0004c	2d 37 01 00 00	 sub	 eax, 311		; 00000137H
  00051	89 85 08 ff ff
	ff		 mov	 DWORD PTR _tempX$11[ebp], eax

; 596  : 			tempY = 20;

  00057	c7 85 fc fe ff
	ff 14 00 00 00	 mov	 DWORD PTR _tempY$10[ebp], 20 ; 00000014H

; 597  : 		}
; 598  : 		else

  00061	eb 14		 jmp	 SHORT $LN37@StreetVend
$LN36@StreetVend:

; 599  : 		{
; 600  : 			tempX = 41;

  00063	c7 85 08 ff ff
	ff 29 00 00 00	 mov	 DWORD PTR _tempX$11[ebp], 41 ; 00000029H

; 601  : 			tempY = 41;

  0006d	c7 85 fc fe ff
	ff 29 00 00 00	 mov	 DWORD PTR _tempY$10[ebp], 41 ; 00000029H
$LN37@StreetVend:

; 602  : 		}
; 603  : 
; 604  : 		pActStreetVendorWnd = MakeWindowDisp(tempX, tempY, 622, 413, CG_FIELD_SV_SELL_PANEL, -1);

  00077	6a ff		 push	 -1
  00079	a1 00 00 00 00	 mov	 eax, DWORD PTR ?CG_FIELD_SV_SELL_PANEL@@3HA ; CG_FIELD_SV_SELL_PANEL
  0007e	50		 push	 eax
  0007f	68 9d 01 00 00	 push	 413			; 0000019dH
  00084	68 6e 02 00 00	 push	 622			; 0000026eH
  00089	8b 8d fc fe ff
	ff		 mov	 ecx, DWORD PTR _tempY$10[ebp]
  0008f	51		 push	 ecx
  00090	8b 95 08 ff ff
	ff		 mov	 edx, DWORD PTR _tempX$11[ebp]
  00096	52		 push	 edx
  00097	e8 00 00 00 00	 call	 ?MakeWindowDisp@@YAPAUaction@@HHHHHH@Z ; MakeWindowDisp
  0009c	83 c4 18	 add	 esp, 24			; 00000018H
  0009f	a3 00 00 00 00	 mov	 DWORD PTR ?pActStreetVendorWnd@@3PAUaction@@A, eax ; pActStreetVendorWnd

; 605  : 
; 606  : 
; 607  : 		memset(iBtn, -1, sizeof(iBtn));

  000a4	6a 1c		 push	 28			; 0000001cH
  000a6	6a ff		 push	 -1
  000a8	68 00 00 00 00	 push	 OFFSET ?iBtn@?1??StreetVendorWndfunc@@YAX_NPAD@Z@4PAHA
  000ad	e8 00 00 00 00	 call	 _memset
  000b2	83 c4 0c	 add	 esp, 12			; 0000000cH

; 608  : 		memset(iItemOnSell, -1, sizeof(iItemOnSell));

  000b5	6a 3c		 push	 60			; 0000003cH
  000b7	6a ff		 push	 -1
  000b9	68 00 00 00 00	 push	 OFFSET ?iItemOnSell@?1??StreetVendorWndfunc@@YAX_NPAD@Z@4PAHA
  000be	e8 00 00 00 00	 call	 _memset
  000c3	83 c4 0c	 add	 esp, 12			; 0000000cH

; 609  : 		memset(iPetOnSell, -1, sizeof(iPetOnSell));

  000c6	6a 14		 push	 20			; 00000014H
  000c8	6a ff		 push	 -1
  000ca	68 00 00 00 00	 push	 OFFSET ?iPetOnSell@?1??StreetVendorWndfunc@@YAX_NPAD@Z@4PAHA
  000cf	e8 00 00 00 00	 call	 _memset
  000d4	83 c4 0c	 add	 esp, 12			; 0000000cH

; 610  : 		for (i = 0; i < MAX_SELL_ITEM; i++)

  000d7	c7 45 f4 00 00
	00 00		 mov	 DWORD PTR _i$[ebp], 0
  000de	eb 09		 jmp	 SHORT $LN4@StreetVend
$LN2@StreetVend:
  000e0	8b 45 f4	 mov	 eax, DWORD PTR _i$[ebp]
  000e3	83 c0 01	 add	 eax, 1
  000e6	89 45 f4	 mov	 DWORD PTR _i$[ebp], eax
$LN4@StreetVend:
  000e9	83 7d f4 14	 cmp	 DWORD PTR _i$[ebp], 20	; 00000014H
  000ed	7d 78		 jge	 SHORT $LN3@StreetVend

; 611  : 		{
; 612  : 			ShowSellItem[i].name[0] = '\0';

  000ef	6b 45 f4 4c	 imul	 eax, DWORD PTR _i$[ebp], 76
  000f3	b9 01 00 00 00	 mov	 ecx, 1
  000f8	6b d1 00	 imul	 edx, ecx, 0
  000fb	c6 84 10 0e 00
	00 00 00	 mov	 BYTE PTR ?ShowSellItem@@3PAU_Show_Sell_Item@@A[eax+edx+14], 0

; 613  : 			ShowSellItem[i].freeName[0] = '\0';

  00103	6b 45 f4 4c	 imul	 eax, DWORD PTR _i$[ebp], 76
  00107	b9 01 00 00 00	 mov	 ecx, 1
  0010c	6b d1 00	 imul	 edx, ecx, 0
  0010f	c6 84 10 2b 00
	00 00 00	 mov	 BYTE PTR ?ShowSellItem@@3PAU_Show_Sell_Item@@A[eax+edx+43], 0

; 614  : 			ShowSellItem[i].needGetPrice = false;

  00117	6b 45 f4 4c	 imul	 eax, DWORD PTR _i$[ebp], 76
  0011b	c6 80 0c 00 00
	00 00		 mov	 BYTE PTR ?ShowSellItem@@3PAU_Show_Sell_Item@@A[eax+12], 0

; 615  : 			ShowSellItem[i].pile = 0;

  00122	6b 45 f4 4c	 imul	 eax, DWORD PTR _i$[ebp], 76
  00126	c7 80 04 00 00
	00 00 00 00 00	 mov	 DWORD PTR ?ShowSellItem@@3PAU_Show_Sell_Item@@A[eax+4], 0

; 616  : 			ShowSellItem[i].price = 0;

  00130	6b 45 f4 4c	 imul	 eax, DWORD PTR _i$[ebp], 76
  00134	c7 80 08 00 00
	00 00 00 00 00	 mov	 DWORD PTR ?ShowSellItem@@3PAU_Show_Sell_Item@@A[eax+8], 0

; 617  : 			ShowSellItem[i].usage = false;

  0013e	6b 45 f4 4c	 imul	 eax, DWORD PTR _i$[ebp], 76
  00142	c6 80 0d 00 00
	00 00		 mov	 BYTE PTR ?ShowSellItem@@3PAU_Show_Sell_Item@@A[eax+13], 0

; 618  : 			ShowSellItem[i].kind = -1;

  00149	6b 45 f4 4c	 imul	 eax, DWORD PTR _i$[ebp], 76
  0014d	c6 80 48 00 00
	00 ff		 mov	 BYTE PTR ?ShowSellItem@@3PAU_Show_Sell_Item@@A[eax+72], -1

; 619  : 			ShowSellItem[i].index = -1;

  00154	6b 45 f4 4c	 imul	 eax, DWORD PTR _i$[ebp], 76
  00158	c7 80 00 00 00
	00 ff ff ff ff	 mov	 DWORD PTR ?ShowSellItem@@3PAU_Show_Sell_Item@@A[eax], -1

; 620  : 		}

  00162	e9 79 ff ff ff	 jmp	 $LN2@StreetVend
$LN3@StreetVend:

; 621  : 		if (bReset)

  00167	0f b6 45 08	 movzx	 eax, BYTE PTR _bReset$[ebp]
  0016b	85 c0		 test	 eax, eax
  0016d	74 6d		 je	 SHORT $LN38@StreetVend

; 622  : 		{
; 623  : 			//[ 氍胳 齑旮绊]
; 624  : 			ZeroMemory(str_bufferVendorName.buffer, sizeof(str_bufferVendorName.buffer));

  0016f	68 04 01 00 00	 push	 260			; 00000104H
  00174	6a 00		 push	 0
  00176	68 00 00 00 00	 push	 OFFSET ?str_bufferVendorName@@3USTR_BUFFER@@A ; str_bufferVendorName
  0017b	e8 00 00 00 00	 call	 _memset
  00180	83 c4 0c	 add	 esp, 12			; 0000000cH

; 625  : 			str_bufferVendorName.cnt		= 0;

  00183	c6 05 07 01 00
	00 00		 mov	 BYTE PTR ?str_bufferVendorName@@3USTR_BUFFER@@A+263, 0

; 626  : 			str_bufferVendorName.cursor		= 0;

  0018a	c6 05 09 01 00
	00 00		 mov	 BYTE PTR ?str_bufferVendorName@@3USTR_BUFFER@@A+265, 0

; 627  : 			str_bufferVendorName.color		= 0;

  00191	c6 05 08 01 00
	00 00		 mov	 BYTE PTR ?str_bufferVendorName@@3USTR_BUFFER@@A+264, 0

; 628  : 			str_bufferVendorName.len		= 20;

  00198	c6 05 04 01 00
	00 14		 mov	 BYTE PTR ?str_bufferVendorName@@3USTR_BUFFER@@A+260, 20 ; 00000014H

; 629  : 			str_bufferVendorName.lineLen	= 20;

  0019f	c6 05 05 01 00
	00 14		 mov	 BYTE PTR ?str_bufferVendorName@@3USTR_BUFFER@@A+261, 20 ; 00000014H

; 630  : 			str_bufferVendorName.lineDist	= 0;

  001a6	c6 05 06 01 00
	00 00		 mov	 BYTE PTR ?str_bufferVendorName@@3USTR_BUFFER@@A+262, 0

; 631  : 			str_bufferVendorName.x			= pActStreetVendorWnd->x + 25;

  001ad	a1 00 00 00 00	 mov	 eax, DWORD PTR ?pActStreetVendorWnd@@3PAUaction@@A ; pActStreetVendorWnd
  001b2	8b 48 18	 mov	 ecx, DWORD PTR [eax+24]
  001b5	83 c1 19	 add	 ecx, 25			; 00000019H
  001b8	89 0d 0c 01 00
	00		 mov	 DWORD PTR ?str_bufferVendorName@@3USTR_BUFFER@@A+268, ecx

; 632  : 			str_bufferVendorName.y			= pActStreetVendorWnd->y + 346;

  001be	a1 00 00 00 00	 mov	 eax, DWORD PTR ?pActStreetVendorWnd@@3PAUaction@@A ; pActStreetVendorWnd
  001c3	8b 48 1c	 mov	 ecx, DWORD PTR [eax+28]
  001c6	81 c1 5a 01 00
	00		 add	 ecx, 346		; 0000015aH
  001cc	89 0d 10 01 00
	00		 mov	 DWORD PTR ?str_bufferVendorName@@3USTR_BUFFER@@A+272, ecx

; 633  : 			str_bufferVendorName.fontPrio	= FONT_PRIO_FRONT;

  001d2	c7 05 1c 01 00
	00 01 00 00 00	 mov	 DWORD PTR ?str_bufferVendorName@@3USTR_BUFFER@@A+284, 1
$LN38@StreetVend:

; 634  : 		}
; 635  : 		pItem = pc.item;

  001dc	c7 05 00 00 00
	00 c4 00 00 00	 mov	 DWORD PTR ?pItem@?1??StreetVendorWndfunc@@YAX_NPAD@Z@4PAUITEM@@A, OFFSET ?pc@@3UPC@@A+196

; 636  : 		iShowPet = 0;

  001e6	c7 05 00 00 00
	00 00 00 00 00	 mov	 DWORD PTR ?iShowPet@?1??StreetVendorWndfunc@@YAX_NPAD@Z@4HA, 0

; 637  : 		iListStart = 0;

  001f0	c7 05 00 00 00
	00 00 00 00 00	 mov	 DWORD PTR ?iListStart@?1??StreetVendorWndfunc@@YAX_NPAD@Z@4HA, 0

; 638  : 		bChangePet = true;

  001fa	c6 05 00 00 00
	00 01		 mov	 BYTE PTR ?bChangePet@?1??StreetVendorWndfunc@@YAX_NPAD@Z@4_NA, 1

; 639  : 		bRunSellPrice = false;

  00201	c6 05 00 00 00
	00 00		 mov	 BYTE PTR ?bRunSellPrice@?1??StreetVendorWndfunc@@YAX_NPAD@Z@4_NA, 0

; 640  : 		if (pShowPet != NULL)

  00208	83 3d 00 00 00
	00 00		 cmp	 DWORD PTR ?pShowPet@@3PAUaction@@A, 0 ; pShowPet
  0020f	74 18		 je	 SHORT $LN39@StreetVend

; 641  : 		{
; 642  : 			DeathAction(pShowPet);

  00211	a1 00 00 00 00	 mov	 eax, DWORD PTR ?pShowPet@@3PAUaction@@A ; pShowPet
  00216	50		 push	 eax
  00217	e8 00 00 00 00	 call	 ?DeathAction@@YAXPAUaction@@@Z ; DeathAction
  0021c	83 c4 04	 add	 esp, 4

; 643  : 			pShowPet = NULL;

  0021f	c7 05 00 00 00
	00 00 00 00 00	 mov	 DWORD PTR ?pShowPet@@3PAUaction@@A, 0 ; pShowPet
$LN39@StreetVend:

; 644  : 		}
; 645  : 		pShowSellItem = NULL;

  00229	c7 05 00 00 00
	00 00 00 00 00	 mov	 DWORD PTR ?pShowSellItem@?1??StreetVendorWndfunc@@YAX_NPAD@Z@4PAU_Show_Sell_Item@@A, 0

; 646  : 		if (data != NULL)

  00233	83 7d 0c 00	 cmp	 DWORD PTR _data$[ebp], 0
  00237	0f 84 c8 02 00
	00		 je	 $LN40@StreetVend

; 647  : 		{
; 648  : 			int count = 0, kind, index, price;

  0023d	c7 85 f0 fe ff
	ff 00 00 00 00	 mov	 DWORD PTR _count$9[ebp], 0

; 649  : 
; 650  : 			getStringToken(data, '|', 2, sizeof(szMsg) - 1, szMsg);

  00247	8d 85 14 ff ff
	ff		 lea	 eax, DWORD PTR _szMsg$[ebp]
  0024d	50		 push	 eax
  0024e	6a 7f		 push	 127			; 0000007fH
  00250	6a 02		 push	 2
  00252	6a 7c		 push	 124			; 0000007cH
  00254	8b 4d 0c	 mov	 ecx, DWORD PTR _data$[ebp]
  00257	51		 push	 ecx
  00258	e8 00 00 00 00	 call	 ?getStringToken@@YAHPADDHH0@Z ; getStringToken
  0025d	83 c4 14	 add	 esp, 20			; 00000014H

; 651  : 			count = atoi(szMsg);

  00260	8b f4		 mov	 esi, esp
  00262	8d 85 14 ff ff
	ff		 lea	 eax, DWORD PTR _szMsg$[ebp]
  00268	50		 push	 eax
  00269	ff 15 00 00 00
	00		 call	 DWORD PTR __imp__atoi
  0026f	83 c4 04	 add	 esp, 4
  00272	3b f4		 cmp	 esi, esp
  00274	e8 00 00 00 00	 call	 __RTC_CheckEsp
  00279	89 85 f0 fe ff
	ff		 mov	 DWORD PTR _count$9[ebp], eax

; 652  : 			for (i = 0; i < count; i++)

  0027f	c7 45 f4 00 00
	00 00		 mov	 DWORD PTR _i$[ebp], 0
  00286	eb 09		 jmp	 SHORT $LN7@StreetVend
$LN5@StreetVend:
  00288	8b 45 f4	 mov	 eax, DWORD PTR _i$[ebp]
  0028b	83 c0 01	 add	 eax, 1
  0028e	89 45 f4	 mov	 DWORD PTR _i$[ebp], eax
$LN7@StreetVend:
  00291	8b 45 f4	 mov	 eax, DWORD PTR _i$[ebp]
  00294	3b 85 f0 fe ff
	ff		 cmp	 eax, DWORD PTR _count$9[ebp]
  0029a	0f 8d 65 02 00
	00		 jge	 $LN40@StreetVend

; 653  : 			{
; 654  : 				getStringToken(data, '|', 3 + i * 3, sizeof(szMsg) - 1, szMsg);

  002a0	8d 85 14 ff ff
	ff		 lea	 eax, DWORD PTR _szMsg$[ebp]
  002a6	50		 push	 eax
  002a7	6a 7f		 push	 127			; 0000007fH
  002a9	6b 4d f4 03	 imul	 ecx, DWORD PTR _i$[ebp], 3
  002ad	83 c1 03	 add	 ecx, 3
  002b0	51		 push	 ecx
  002b1	6a 7c		 push	 124			; 0000007cH
  002b3	8b 55 0c	 mov	 edx, DWORD PTR _data$[ebp]
  002b6	52		 push	 edx
  002b7	e8 00 00 00 00	 call	 ?getStringToken@@YAHPADDHH0@Z ; getStringToken
  002bc	83 c4 14	 add	 esp, 20			; 00000014H

; 655  : 				kind = atoi(szMsg);

  002bf	8b f4		 mov	 esi, esp
  002c1	8d 85 14 ff ff
	ff		 lea	 eax, DWORD PTR _szMsg$[ebp]
  002c7	50		 push	 eax
  002c8	ff 15 00 00 00
	00		 call	 DWORD PTR __imp__atoi
  002ce	83 c4 04	 add	 esp, 4
  002d1	3b f4		 cmp	 esi, esp
  002d3	e8 00 00 00 00	 call	 __RTC_CheckEsp
  002d8	89 85 e4 fe ff
	ff		 mov	 DWORD PTR _kind$8[ebp], eax

; 656  : 				getStringToken(data, '|', 4 + i * 3, sizeof(szMsg) - 1, szMsg);

  002de	8d 85 14 ff ff
	ff		 lea	 eax, DWORD PTR _szMsg$[ebp]
  002e4	50		 push	 eax
  002e5	6a 7f		 push	 127			; 0000007fH
  002e7	6b 4d f4 03	 imul	 ecx, DWORD PTR _i$[ebp], 3
  002eb	83 c1 04	 add	 ecx, 4
  002ee	51		 push	 ecx
  002ef	6a 7c		 push	 124			; 0000007cH
  002f1	8b 55 0c	 mov	 edx, DWORD PTR _data$[ebp]
  002f4	52		 push	 edx
  002f5	e8 00 00 00 00	 call	 ?getStringToken@@YAHPADDHH0@Z ; getStringToken
  002fa	83 c4 14	 add	 esp, 20			; 00000014H

; 657  : 				index = atoi(szMsg);

  002fd	8b f4		 mov	 esi, esp
  002ff	8d 85 14 ff ff
	ff		 lea	 eax, DWORD PTR _szMsg$[ebp]
  00305	50		 push	 eax
  00306	ff 15 00 00 00
	00		 call	 DWORD PTR __imp__atoi
  0030c	83 c4 04	 add	 esp, 4
  0030f	3b f4		 cmp	 esi, esp
  00311	e8 00 00 00 00	 call	 __RTC_CheckEsp
  00316	89 85 d8 fe ff
	ff		 mov	 DWORD PTR _index$7[ebp], eax

; 658  : 				getStringToken(data, '|', 5 + i * 3, sizeof(szMsg) - 1, szMsg);

  0031c	8d 85 14 ff ff
	ff		 lea	 eax, DWORD PTR _szMsg$[ebp]
  00322	50		 push	 eax
  00323	6a 7f		 push	 127			; 0000007fH
  00325	6b 4d f4 03	 imul	 ecx, DWORD PTR _i$[ebp], 3
  00329	83 c1 05	 add	 ecx, 5
  0032c	51		 push	 ecx
  0032d	6a 7c		 push	 124			; 0000007cH
  0032f	8b 55 0c	 mov	 edx, DWORD PTR _data$[ebp]
  00332	52		 push	 edx
  00333	e8 00 00 00 00	 call	 ?getStringToken@@YAHPADDHH0@Z ; getStringToken
  00338	83 c4 14	 add	 esp, 20			; 00000014H

; 659  : 				price = atoi(szMsg);

  0033b	8b f4		 mov	 esi, esp
  0033d	8d 85 14 ff ff
	ff		 lea	 eax, DWORD PTR _szMsg$[ebp]
  00343	50		 push	 eax
  00344	ff 15 00 00 00
	00		 call	 DWORD PTR __imp__atoi
  0034a	83 c4 04	 add	 esp, 4
  0034d	3b f4		 cmp	 esi, esp
  0034f	e8 00 00 00 00	 call	 __RTC_CheckEsp
  00354	89 85 cc fe ff
	ff		 mov	 DWORD PTR _price$6[ebp], eax

; 660  : 				pShowSellItem = GetEmptyShowSellItem(ShowSellItem);

  0035a	68 00 00 00 00	 push	 OFFSET ?ShowSellItem@@3PAU_Show_Sell_Item@@A
  0035f	e8 00 00 00 00	 call	 ?GetEmptyShowSellItem@@YAPAU_Show_Sell_Item@@PAU1@@Z ; GetEmptyShowSellItem
  00364	83 c4 04	 add	 esp, 4
  00367	a3 00 00 00 00	 mov	 DWORD PTR ?pShowSellItem@?1??StreetVendorWndfunc@@YAX_NPAD@Z@4PAU_Show_Sell_Item@@A, eax

; 661  : 				if (pShowSellItem != NULL)

  0036c	83 3d 00 00 00
	00 00		 cmp	 DWORD PTR ?pShowSellItem@?1??StreetVendorWndfunc@@YAX_NPAD@Z@4PAU_Show_Sell_Item@@A, 0
  00373	0f 84 87 01 00
	00		 je	 $LN41@StreetVend

; 662  : 				{
; 663  : 					// 
; 664  : 					if (kind == 0 && pItem[index].useFlag)

  00379	83 bd e4 fe ff
	ff 00		 cmp	 DWORD PTR _kind$8[ebp], 0
  00380	0f 85 b5 00 00
	00		 jne	 $LN42@StreetVend
  00386	69 85 d8 fe ff
	ff 7c 01 00 00	 imul	 eax, DWORD PTR _index$7[ebp], 380
  00390	8b 0d 00 00 00
	00		 mov	 ecx, DWORD PTR ?pItem@?1??StreetVendorWndfunc@@YAX_NPAD@Z@4PAUITEM@@A
  00396	0f bf 94 01 dc
	00 00 00	 movsx	 edx, WORD PTR [ecx+eax+220]
  0039e	85 d2		 test	 edx, edx
  003a0	0f 84 95 00 00
	00		 je	 $LN42@StreetVend

; 665  : 					{
; 666  : 						pShowSellItem->kind = kind;

  003a6	a1 00 00 00 00	 mov	 eax, DWORD PTR ?pShowSellItem@?1??StreetVendorWndfunc@@YAX_NPAD@Z@4PAU_Show_Sell_Item@@A
  003ab	8a 8d e4 fe ff
	ff		 mov	 cl, BYTE PTR _kind$8[ebp]
  003b1	88 48 48	 mov	 BYTE PTR [eax+72], cl

; 667  : 						pShowSellItem->index = index;

  003b4	a1 00 00 00 00	 mov	 eax, DWORD PTR ?pShowSellItem@?1??StreetVendorWndfunc@@YAX_NPAD@Z@4PAU_Show_Sell_Item@@A
  003b9	8b 8d d8 fe ff
	ff		 mov	 ecx, DWORD PTR _index$7[ebp]
  003bf	89 08		 mov	 DWORD PTR [eax], ecx

; 668  : 						pShowSellItem->price = price;

  003c1	a1 00 00 00 00	 mov	 eax, DWORD PTR ?pShowSellItem@?1??StreetVendorWndfunc@@YAX_NPAD@Z@4PAU_Show_Sell_Item@@A
  003c6	8b 8d cc fe ff
	ff		 mov	 ecx, DWORD PTR _price$6[ebp]
  003cc	89 48 08	 mov	 DWORD PTR [eax+8], ecx

; 669  : 						sprintf(pShowSellItem->name, "%s", pItem[index].name);

  003cf	69 85 d8 fe ff
	ff 7c 01 00 00	 imul	 eax, DWORD PTR _index$7[ebp], 380
  003d9	8b 0d 00 00 00
	00		 mov	 ecx, DWORD PTR ?pItem@?1??StreetVendorWndfunc@@YAX_NPAD@Z@4PAUITEM@@A
  003df	8d 94 01 e6 00
	00 00		 lea	 edx, DWORD PTR [ecx+eax+230]
  003e6	52		 push	 edx
  003e7	68 00 00 00 00	 push	 OFFSET ??_C@_02DKCKIIND@?$CFs?$AA@
  003ec	a1 00 00 00 00	 mov	 eax, DWORD PTR ?pShowSellItem@?1??StreetVendorWndfunc@@YAX_NPAD@Z@4PAU_Show_Sell_Item@@A
  003f1	83 c0 0e	 add	 eax, 14			; 0000000eH
  003f4	50		 push	 eax
  003f5	e8 00 00 00 00	 call	 _sprintf
  003fa	83 c4 0c	 add	 esp, 12			; 0000000cH

; 670  : 						pShowSellItem->pile = pItem[index].pile;

  003fd	69 85 d8 fe ff
	ff 7c 01 00 00	 imul	 eax, DWORD PTR _index$7[ebp], 380
  00407	8b 0d 00 00 00
	00		 mov	 ecx, DWORD PTR ?pShowSellItem@?1??StreetVendorWndfunc@@YAX_NPAD@Z@4PAU_Show_Sell_Item@@A
  0040d	8b 15 00 00 00
	00		 mov	 edx, DWORD PTR ?pItem@?1??StreetVendorWndfunc@@YAX_NPAD@Z@4PAUITEM@@A
  00413	8b 44 02 0c	 mov	 eax, DWORD PTR [edx+eax+12]
  00417	89 41 04	 mov	 DWORD PTR [ecx+4], eax

; 671  : 						pShowSellItem->usage = true;

  0041a	a1 00 00 00 00	 mov	 eax, DWORD PTR ?pShowSellItem@?1??StreetVendorWndfunc@@YAX_NPAD@Z@4PAU_Show_Sell_Item@@A
  0041f	c6 40 0d 01	 mov	 BYTE PTR [eax+13], 1

; 672  : 						iItemOnSell[index - 9] = index;

  00423	8b 85 d8 fe ff
	ff		 mov	 eax, DWORD PTR _index$7[ebp]
  00429	8b 8d d8 fe ff
	ff		 mov	 ecx, DWORD PTR _index$7[ebp]
  0042f	89 0c 85 dc ff
	ff ff		 mov	 DWORD PTR ?iItemOnSell@?1??StreetVendorWndfunc@@YAX_NPAD@Z@4PAHA[eax*4-36], ecx
  00436	e9 c5 00 00 00	 jmp	 $LN41@StreetVend
$LN42@StreetVend:

; 673  : 					}
; 674  : 					// 
; 675  : 					else if(kind == 1 && pet[index].useFlag)

  0043b	83 bd e4 fe ff
	ff 01		 cmp	 DWORD PTR _kind$8[ebp], 1
  00442	0f 85 b8 00 00
	00		 jne	 $LN41@StreetVend
  00448	69 85 d8 fe ff
	ff 20 0b 00 00	 imul	 eax, DWORD PTR _index$7[ebp], 2848
  00452	0f bf 88 76 00
	00 00		 movsx	 ecx, WORD PTR ?pet@@3PAUPET@@A[eax+118]
  00459	85 c9		 test	 ecx, ecx
  0045b	0f 84 9f 00 00
	00		 je	 $LN41@StreetVend

; 676  : 					{
; 677  : 						pShowSellItem->kind = kind;

  00461	a1 00 00 00 00	 mov	 eax, DWORD PTR ?pShowSellItem@?1??StreetVendorWndfunc@@YAX_NPAD@Z@4PAU_Show_Sell_Item@@A
  00466	8a 8d e4 fe ff
	ff		 mov	 cl, BYTE PTR _kind$8[ebp]
  0046c	88 48 48	 mov	 BYTE PTR [eax+72], cl

; 678  : 						pShowSellItem->index = index;

  0046f	a1 00 00 00 00	 mov	 eax, DWORD PTR ?pShowSellItem@?1??StreetVendorWndfunc@@YAX_NPAD@Z@4PAU_Show_Sell_Item@@A
  00474	8b 8d d8 fe ff
	ff		 mov	 ecx, DWORD PTR _index$7[ebp]
  0047a	89 08		 mov	 DWORD PTR [eax], ecx

; 679  : 						pShowSellItem->price = price;

  0047c	a1 00 00 00 00	 mov	 eax, DWORD PTR ?pShowSellItem@?1??StreetVendorWndfunc@@YAX_NPAD@Z@4PAU_Show_Sell_Item@@A
  00481	8b 8d cc fe ff
	ff		 mov	 ecx, DWORD PTR _price$6[ebp]
  00487	89 48 08	 mov	 DWORD PTR [eax+8], ecx

; 680  : 						sprintf(pShowSellItem->name, "%s", pet[index].name);

  0048a	69 85 d8 fe ff
	ff 20 0b 00 00	 imul	 eax, DWORD PTR _index$7[ebp], 2848
  00494	05 54 00 00 00	 add	 eax, OFFSET ?pet@@3PAUPET@@A+84
  00499	50		 push	 eax
  0049a	68 00 00 00 00	 push	 OFFSET ??_C@_02DKCKIIND@?$CFs?$AA@
  0049f	8b 0d 00 00 00
	00		 mov	 ecx, DWORD PTR ?pShowSellItem@?1??StreetVendorWndfunc@@YAX_NPAD@Z@4PAU_Show_Sell_Item@@A
  004a5	83 c1 0e	 add	 ecx, 14			; 0000000eH
  004a8	51		 push	 ecx
  004a9	e8 00 00 00 00	 call	 _sprintf
  004ae	83 c4 0c	 add	 esp, 12			; 0000000cH

; 681  : 						sprintf(pShowSellItem->freeName, "%s", pet[index].freeName);

  004b1	69 85 d8 fe ff
	ff 20 0b 00 00	 imul	 eax, DWORD PTR _index$7[ebp], 2848
  004bb	05 65 00 00 00	 add	 eax, OFFSET ?pet@@3PAUPET@@A+101
  004c0	50		 push	 eax
  004c1	68 00 00 00 00	 push	 OFFSET ??_C@_02DKCKIIND@?$CFs?$AA@
  004c6	8b 0d 00 00 00
	00		 mov	 ecx, DWORD PTR ?pShowSellItem@?1??StreetVendorWndfunc@@YAX_NPAD@Z@4PAU_Show_Sell_Item@@A
  004cc	83 c1 2b	 add	 ecx, 43			; 0000002bH
  004cf	51		 push	 ecx
  004d0	e8 00 00 00 00	 call	 _sprintf
  004d5	83 c4 0c	 add	 esp, 12			; 0000000cH

; 682  : 						pShowSellItem->pile = 1;

  004d8	a1 00 00 00 00	 mov	 eax, DWORD PTR ?pShowSellItem@?1??StreetVendorWndfunc@@YAX_NPAD@Z@4PAU_Show_Sell_Item@@A
  004dd	c7 40 04 01 00
	00 00		 mov	 DWORD PTR [eax+4], 1

; 683  : 						pShowSellItem->usage = true;

  004e4	a1 00 00 00 00	 mov	 eax, DWORD PTR ?pShowSellItem@?1??StreetVendorWndfunc@@YAX_NPAD@Z@4PAU_Show_Sell_Item@@A
  004e9	c6 40 0d 01	 mov	 BYTE PTR [eax+13], 1

; 684  : 						iPetOnSell[index] = index;

  004ed	8b 85 d8 fe ff
	ff		 mov	 eax, DWORD PTR _index$7[ebp]
  004f3	8b 8d d8 fe ff
	ff		 mov	 ecx, DWORD PTR _index$7[ebp]
  004f9	89 0c 85 00 00
	00 00		 mov	 DWORD PTR ?iPetOnSell@?1??StreetVendorWndfunc@@YAX_NPAD@Z@4PAHA[eax*4], ecx
$LN41@StreetVend:

; 685  : 					}
; 686  : 				}
; 687  : 			}

  00500	e9 83 fd ff ff	 jmp	 $LN5@StreetVend
$LN40@StreetVend:

; 688  : 		}
; 689  : 	}
; 690  : 	else

  00505	e9 0b 11 00 00	 jmp	 $LN1@StreetVend
$LN34@StreetVend:

; 691  : 	{
; 692  : 		if (pActStreetVendorWnd->hp > 0)

  0050a	a1 00 00 00 00	 mov	 eax, DWORD PTR ?pActStreetVendorWnd@@3PAUaction@@A ; pActStreetVendorWnd
  0050f	83 78 78 00	 cmp	 DWORD PTR [eax+120], 0
  00513	0f 8e fc 10 00
	00		 jle	 $LN1@StreetVend

; 693  : 		{
; 694  : 			if (bRunSellPrice)

  00519	0f b6 05 00 00
	00 00		 movzx	 eax, BYTE PTR ?bRunSellPrice@?1??StreetVendorWndfunc@@YAX_NPAD@Z@4_NA
  00520	85 c0		 test	 eax, eax
  00522	74 5e		 je	 SHORT $LN46@StreetVend

; 695  : 			{
; 696  : 				iGetSellPrice = SellPriceWndfunc();

  00524	e8 00 00 00 00	 call	 ?SellPriceWndfunc@@YAHXZ ; SellPriceWndfunc
  00529	a3 00 00 00 00	 mov	 DWORD PTR ?iGetSellPrice@?1??StreetVendorWndfunc@@YAX_NPAD@Z@4HA, eax

; 697  : 				if (iGetSellPrice != -1)

  0052e	83 3d 00 00 00
	00 ff		 cmp	 DWORD PTR ?iGetSellPrice@?1??StreetVendorWndfunc@@YAX_NPAD@Z@4HA, -1
  00535	74 4b		 je	 SHORT $LN46@StreetVend

; 698  : 				{
; 699  : 					for(i = 0; i <MAX_SELL_ITEM; i++)

  00537	c7 45 f4 00 00
	00 00		 mov	 DWORD PTR _i$[ebp], 0
  0053e	eb 09		 jmp	 SHORT $LN10@StreetVend
$LN8@StreetVend:
  00540	8b 45 f4	 mov	 eax, DWORD PTR _i$[ebp]
  00543	83 c0 01	 add	 eax, 1
  00546	89 45 f4	 mov	 DWORD PTR _i$[ebp], eax
$LN10@StreetVend:
  00549	83 7d f4 14	 cmp	 DWORD PTR _i$[ebp], 20	; 00000014H
  0054d	7d 2c		 jge	 SHORT $LN9@StreetVend

; 700  : 					{
; 701  : 						if (ShowSellItem[i].needGetPrice)

  0054f	6b 45 f4 4c	 imul	 eax, DWORD PTR _i$[ebp], 76
  00553	0f b6 88 0c 00
	00 00		 movzx	 ecx, BYTE PTR ?ShowSellItem@@3PAU_Show_Sell_Item@@A[eax+12]
  0055a	85 c9		 test	 ecx, ecx
  0055c	74 1b		 je	 SHORT $LN48@StreetVend

; 702  : 						{
; 703  : 							ShowSellItem[i].price = iGetSellPrice;

  0055e	6b 45 f4 4c	 imul	 eax, DWORD PTR _i$[ebp], 76
  00562	8b 0d 00 00 00
	00		 mov	 ecx, DWORD PTR ?iGetSellPrice@?1??StreetVendorWndfunc@@YAX_NPAD@Z@4HA
  00568	89 88 08 00 00
	00		 mov	 DWORD PTR ?ShowSellItem@@3PAU_Show_Sell_Item@@A[eax+8], ecx

; 704  : 							ShowSellItem[i].needGetPrice = false;

  0056e	6b 45 f4 4c	 imul	 eax, DWORD PTR _i$[ebp], 76
  00572	c6 80 0c 00 00
	00 00		 mov	 BYTE PTR ?ShowSellItem@@3PAU_Show_Sell_Item@@A[eax+12], 0
$LN48@StreetVend:

; 705  : 						}
; 706  : 					}

  00579	eb c5		 jmp	 SHORT $LN8@StreetVend
$LN9@StreetVend:

; 707  : 					bRunSellPrice = false;

  0057b	c6 05 00 00 00
	00 00		 mov	 BYTE PTR ?bRunSellPrice@?1??StreetVendorWndfunc@@YAX_NPAD@Z@4_NA, 0
$LN46@StreetVend:

; 708  : 				}
; 709  : 			}
; 710  : 			x = pActStreetVendorWnd->x;

  00582	a1 00 00 00 00	 mov	 eax, DWORD PTR ?pActStreetVendorWnd@@3PAUaction@@A ; pActStreetVendorWnd
  00587	8b 48 18	 mov	 ecx, DWORD PTR [eax+24]
  0058a	89 4d dc	 mov	 DWORD PTR _x$[ebp], ecx

; 711  : 			y = pActStreetVendorWnd->y;

  0058d	a1 00 00 00 00	 mov	 eax, DWORD PTR ?pActStreetVendorWnd@@3PAUaction@@A ; pActStreetVendorWnd
  00592	8b 48 1c	 mov	 ecx, DWORD PTR [eax+28]
  00595	89 4d d0	 mov	 DWORD PTR _y$[ebp], ecx

; 712  : 			selId = focusFontId(iSellItemBtn, sizeof(iSellItemBtn) / sizeof(int));

  00598	6a 14		 push	 20			; 00000014H
  0059a	68 00 00 00 00	 push	 OFFSET ?iSellItemBtn@?1??StreetVendorWndfunc@@YAX_NPAD@Z@4PAHA
  0059f	e8 00 00 00 00	 call	 ?focusFontId@@YAHPAHH@Z	; focusFontId
  005a4	83 c4 08	 add	 esp, 8
  005a7	89 45 ac	 mov	 DWORD PTR _selId$[ebp], eax

; 713  : 			
; 714  : 			// [button  旃  氚 れ]
; 715  : 			// []
; 716  : 			iBtn[0] = StockDispBuffer(x + 80, y + 388, DISP_PRIO_IME3, 26289, 2);

  005aa	6a 02		 push	 2
  005ac	68 b1 66 00 00	 push	 26289			; 000066b1H
  005b1	6a 69		 push	 105			; 00000069H
  005b3	8b 45 d0	 mov	 eax, DWORD PTR _y$[ebp]
  005b6	05 84 01 00 00	 add	 eax, 388		; 00000184H
  005bb	50		 push	 eax
  005bc	8b 4d dc	 mov	 ecx, DWORD PTR _x$[ebp]
  005bf	83 c1 50	 add	 ecx, 80			; 00000050H
  005c2	51		 push	 ecx
  005c3	e8 00 00 00 00	 call	 ?StockDispBuffer@@YAHHHEHH@Z ; StockDispBuffer
  005c8	83 c4 14	 add	 esp, 20			; 00000014H
  005cb	ba 04 00 00 00	 mov	 edx, 4
  005d0	6b ca 00	 imul	 ecx, edx, 0
  005d3	89 81 00 00 00
	00		 mov	 DWORD PTR ?iBtn@?1??StreetVendorWndfunc@@YAX_NPAD@Z@4PAHA[ecx], eax

; 717  : 			// [旆]
; 718  : 			iBtn[1] = StockDispBuffer(x + 230, y + 388, DISP_PRIO_IME3, 26291, 2);

  005d9	6a 02		 push	 2
  005db	68 b3 66 00 00	 push	 26291			; 000066b3H
  005e0	6a 69		 push	 105			; 00000069H
  005e2	8b 45 d0	 mov	 eax, DWORD PTR _y$[ebp]
  005e5	05 84 01 00 00	 add	 eax, 388		; 00000184H
  005ea	50		 push	 eax
  005eb	8b 4d dc	 mov	 ecx, DWORD PTR _x$[ebp]
  005ee	81 c1 e6 00 00
	00		 add	 ecx, 230		; 000000e6H
  005f4	51		 push	 ecx
  005f5	e8 00 00 00 00	 call	 ?StockDispBuffer@@YAHHHEHH@Z ; StockDispBuffer
  005fa	83 c4 14	 add	 esp, 20			; 00000014H
  005fd	ba 04 00 00 00	 mov	 edx, 4
  00602	c1 e2 00	 shl	 edx, 0
  00605	89 82 00 00 00
	00		 mov	 DWORD PTR ?iBtn@?1??StreetVendorWndfunc@@YAX_NPAD@Z@4PAHA[edx], eax

; 719  : 			// [甓 错]
; 720  : 			iBtn[2] = StockDispBuffer(x + 305, y + 44, DISP_PRIO_IME3, 26331, 2);

  0060b	6a 02		 push	 2
  0060d	68 db 66 00 00	 push	 26331			; 000066dbH
  00612	6a 69		 push	 105			; 00000069H
  00614	8b 45 d0	 mov	 eax, DWORD PTR _y$[ebp]
  00617	83 c0 2c	 add	 eax, 44			; 0000002cH
  0061a	50		 push	 eax
  0061b	8b 4d dc	 mov	 ecx, DWORD PTR _x$[ebp]
  0061e	81 c1 31 01 00
	00		 add	 ecx, 305		; 00000131H
  00624	51		 push	 ecx
  00625	e8 00 00 00 00	 call	 ?StockDispBuffer@@YAHHHEHH@Z ; StockDispBuffer
  0062a	83 c4 14	 add	 esp, 20			; 00000014H
  0062d	ba 04 00 00 00	 mov	 edx, 4
  00632	d1 e2		 shl	 edx, 1
  00634	89 82 00 00 00
	00		 mov	 DWORD PTR ?iBtn@?1??StreetVendorWndfunc@@YAX_NPAD@Z@4PAHA[edx], eax

; 721  : 			// [甓 错]
; 722  : 			iBtn[3] = StockDispBuffer(x + 305, y + 304, DISP_PRIO_IME3, 26332, 2);

  0063a	6a 02		 push	 2
  0063c	68 dc 66 00 00	 push	 26332			; 000066dcH
  00641	6a 69		 push	 105			; 00000069H
  00643	8b 45 d0	 mov	 eax, DWORD PTR _y$[ebp]
  00646	05 30 01 00 00	 add	 eax, 304		; 00000130H
  0064b	50		 push	 eax
  0064c	8b 4d dc	 mov	 ecx, DWORD PTR _x$[ebp]
  0064f	81 c1 31 01 00
	00		 add	 ecx, 305		; 00000131H
  00655	51		 push	 ecx
  00656	e8 00 00 00 00	 call	 ?StockDispBuffer@@YAHHHEHH@Z ; StockDispBuffer
  0065b	83 c4 14	 add	 esp, 20			; 00000014H
  0065e	ba 04 00 00 00	 mov	 edx, 4
  00663	6b ca 03	 imul	 ecx, edx, 3
  00666	89 81 00 00 00
	00		 mov	 DWORD PTR ?iBtn@?1??StreetVendorWndfunc@@YAX_NPAD@Z@4PAHA[ecx], eax

; 723  : 			// [氚╈ 氩]
; 724  : 			iBtn[4] = StockDispBuffer(x + 335, y + 300, DISP_PRIO_IME3, 26062, 2);

  0066c	6a 02		 push	 2
  0066e	68 ce 65 00 00	 push	 26062			; 000065ceH
  00673	6a 69		 push	 105			; 00000069H
  00675	8b 45 d0	 mov	 eax, DWORD PTR _y$[ebp]
  00678	05 2c 01 00 00	 add	 eax, 300		; 0000012cH
  0067d	50		 push	 eax
  0067e	8b 4d dc	 mov	 ecx, DWORD PTR _x$[ebp]
  00681	81 c1 4f 01 00
	00		 add	 ecx, 335		; 0000014fH
  00687	51		 push	 ecx
  00688	e8 00 00 00 00	 call	 ?StockDispBuffer@@YAHHHEHH@Z ; StockDispBuffer
  0068d	83 c4 14	 add	 esp, 20			; 00000014H
  00690	ba 04 00 00 00	 mov	 edx, 4
  00695	c1 e2 02	 shl	 edx, 2
  00698	89 82 00 00 00
	00		 mov	 DWORD PTR ?iBtn@?1??StreetVendorWndfunc@@YAX_NPAD@Z@4PAHA[edx], eax

; 725  : 			// [检 错]
; 726  : 			iBtn[5] = StockDispBuffer(x + 520, y + 60, DISP_PRIO_IME3, 26047, 2);

  0069e	6a 02		 push	 2
  006a0	68 bf 65 00 00	 push	 26047			; 000065bfH
  006a5	6a 69		 push	 105			; 00000069H
  006a7	8b 45 d0	 mov	 eax, DWORD PTR _y$[ebp]
  006aa	83 c0 3c	 add	 eax, 60			; 0000003cH
  006ad	50		 push	 eax
  006ae	8b 4d dc	 mov	 ecx, DWORD PTR _x$[ebp]
  006b1	81 c1 08 02 00
	00		 add	 ecx, 520		; 00000208H
  006b7	51		 push	 ecx
  006b8	e8 00 00 00 00	 call	 ?StockDispBuffer@@YAHHHEHH@Z ; StockDispBuffer
  006bd	83 c4 14	 add	 esp, 20			; 00000014H
  006c0	ba 04 00 00 00	 mov	 edx, 4
  006c5	6b ca 05	 imul	 ecx, edx, 5
  006c8	89 81 00 00 00
	00		 mov	 DWORD PTR ?iBtn@?1??StreetVendorWndfunc@@YAX_NPAD@Z@4PAHA[ecx], eax

; 727  : 			// [るジ飒 错]
; 728  : 			iBtn[6] = StockDispBuffer(x + 570, y + 60, DISP_PRIO_IME3, 26048, 2);

  006ce	6a 02		 push	 2
  006d0	68 c0 65 00 00	 push	 26048			; 000065c0H
  006d5	6a 69		 push	 105			; 00000069H
  006d7	8b 45 d0	 mov	 eax, DWORD PTR _y$[ebp]
  006da	83 c0 3c	 add	 eax, 60			; 0000003cH
  006dd	50		 push	 eax
  006de	8b 4d dc	 mov	 ecx, DWORD PTR _x$[ebp]
  006e1	81 c1 3a 02 00
	00		 add	 ecx, 570		; 0000023aH
  006e7	51		 push	 ecx
  006e8	e8 00 00 00 00	 call	 ?StockDispBuffer@@YAHHHEHH@Z ; StockDispBuffer
  006ed	83 c4 14	 add	 esp, 20			; 00000014H
  006f0	ba 04 00 00 00	 mov	 edx, 4
  006f5	6b ca 06	 imul	 ecx, edx, 6
  006f8	89 81 00 00 00
	00		 mov	 DWORD PTR ?iBtn@?1??StreetVendorWndfunc@@YAX_NPAD@Z@4PAHA[ecx], eax

; 729  : 
; 730  : 			// [检届  氍缄贝 氇╇ ]
; 731  : 			for (i = iListStart, j = 0; i < iListStart + 10; i++, j++)

  006fe	a1 00 00 00 00	 mov	 eax, DWORD PTR ?iListStart@?1??StreetVendorWndfunc@@YAX_NPAD@Z@4HA
  00703	89 45 f4	 mov	 DWORD PTR _i$[ebp], eax
  00706	c7 45 e8 00 00
	00 00		 mov	 DWORD PTR _j$[ebp], 0
  0070d	eb 12		 jmp	 SHORT $LN13@StreetVend
$LN11@StreetVend:
  0070f	8b 45 f4	 mov	 eax, DWORD PTR _i$[ebp]
  00712	83 c0 01	 add	 eax, 1
  00715	89 45 f4	 mov	 DWORD PTR _i$[ebp], eax
  00718	8b 4d e8	 mov	 ecx, DWORD PTR _j$[ebp]
  0071b	83 c1 01	 add	 ecx, 1
  0071e	89 4d e8	 mov	 DWORD PTR _j$[ebp], ecx
$LN13@StreetVend:
  00721	a1 00 00 00 00	 mov	 eax, DWORD PTR ?iListStart@?1??StreetVendorWndfunc@@YAX_NPAD@Z@4HA
  00726	83 c0 0a	 add	 eax, 10			; 0000000aH
  00729	39 45 f4	 cmp	 DWORD PTR _i$[ebp], eax
  0072c	0f 8d 71 01 00
	00		 jge	 $LN12@StreetVend

; 732  : 			{
; 733  : 				if (ShowSellItem[i].usage)

  00732	6b 45 f4 4c	 imul	 eax, DWORD PTR _i$[ebp], 76
  00736	0f b6 88 0d 00
	00 00		 movzx	 ecx, BYTE PTR ?ShowSellItem@@3PAU_Show_Sell_Item@@A[eax+13]
  0073d	85 c9		 test	 ecx, ecx
  0073f	0f 84 29 01 00
	00		 je	 $LN49@StreetVend

; 734  : 				{
; 735  : 					if (ShowSellItem[i].kind == 0)

  00745	6b 45 f4 4c	 imul	 eax, DWORD PTR _i$[ebp], 76
  00749	0f be 88 48 00
	00 00		 movsx	 ecx, BYTE PTR ?ShowSellItem@@3PAU_Show_Sell_Item@@A[eax+72]
  00750	85 c9		 test	 ecx, ecx
  00752	75 75		 jne	 SHORT $LN51@StreetVend

; 736  : 					{
; 737  : 						if (ShowSellItem[i].price == 0)

  00754	6b 45 f4 4c	 imul	 eax, DWORD PTR _i$[ebp], 76
  00758	83 b8 08 00 00
	00 00		 cmp	 DWORD PTR ?ShowSellItem@@3PAU_Show_Sell_Item@@A[eax+8], 0
  0075f	75 31		 jne	 SHORT $LN53@StreetVend

; 738  : 							sprintf(szMsg, "%-20sx%3d%13s", ShowSellItem[i].name, ShowSellItem[i].pile, "X");

  00761	68 00 00 00 00	 push	 OFFSET ??_C@_01MMEEDKFM@X?$AA@
  00766	6b 45 f4 4c	 imul	 eax, DWORD PTR _i$[ebp], 76
  0076a	8b 88 04 00 00
	00		 mov	 ecx, DWORD PTR ?ShowSellItem@@3PAU_Show_Sell_Item@@A[eax+4]
  00770	51		 push	 ecx
  00771	6b 55 f4 4c	 imul	 edx, DWORD PTR _i$[ebp], 76
  00775	81 c2 0e 00 00
	00		 add	 edx, OFFSET ?ShowSellItem@@3PAU_Show_Sell_Item@@A+14
  0077b	52		 push	 edx
  0077c	68 00 00 00 00	 push	 OFFSET ??_C@_0O@MNFNNHCK@?$CF?920sx?$CF3d?$CF13s?$AA@
  00781	8d 85 14 ff ff
	ff		 lea	 eax, DWORD PTR _szMsg$[ebp]
  00787	50		 push	 eax
  00788	e8 00 00 00 00	 call	 _sprintf
  0078d	83 c4 14	 add	 esp, 20			; 00000014H

; 739  : 						else

  00790	eb 35		 jmp	 SHORT $LN54@StreetVend
$LN53@StreetVend:

; 740  : 							sprintf(szMsg, "%-20sx%3d%13d", ShowSellItem[i].name, ShowSellItem[i].pile, ShowSellItem[i].price);

  00792	6b 45 f4 4c	 imul	 eax, DWORD PTR _i$[ebp], 76
  00796	8b 88 08 00 00
	00		 mov	 ecx, DWORD PTR ?ShowSellItem@@3PAU_Show_Sell_Item@@A[eax+8]
  0079c	51		 push	 ecx
  0079d	6b 55 f4 4c	 imul	 edx, DWORD PTR _i$[ebp], 76
  007a1	8b 82 04 00 00
	00		 mov	 eax, DWORD PTR ?ShowSellItem@@3PAU_Show_Sell_Item@@A[edx+4]
  007a7	50		 push	 eax
  007a8	6b 4d f4 4c	 imul	 ecx, DWORD PTR _i$[ebp], 76
  007ac	81 c1 0e 00 00
	00		 add	 ecx, OFFSET ?ShowSellItem@@3PAU_Show_Sell_Item@@A+14
  007b2	51		 push	 ecx
  007b3	68 00 00 00 00	 push	 OFFSET ??_C@_0O@MINOFDLM@?$CF?920sx?$CF3d?$CF13d?$AA@
  007b8	8d 95 14 ff ff
	ff		 lea	 edx, DWORD PTR _szMsg$[ebp]
  007be	52		 push	 edx
  007bf	e8 00 00 00 00	 call	 _sprintf
  007c4	83 c4 14	 add	 esp, 20			; 00000014H
$LN54@StreetVend:

; 741  : 					}
; 742  : 					else

  007c7	eb 71		 jmp	 SHORT $LN52@StreetVend
$LN51@StreetVend:

; 743  : 					{
; 744  : 						if (ShowSellItem[i].price == 0)

  007c9	6b 45 f4 4c	 imul	 eax, DWORD PTR _i$[ebp], 76
  007cd	83 b8 08 00 00
	00 00		 cmp	 DWORD PTR ?ShowSellItem@@3PAU_Show_Sell_Item@@A[eax+8], 0
  007d4	75 30		 jne	 SHORT $LN55@StreetVend

; 745  : 							sprintf(szMsg, "%-17s%-12s%8s", ShowSellItem[i].name, ShowSellItem[i].freeName, "璁浠");

  007d6	68 00 00 00 00	 push	 OFFSET ??_C@_03CAPDGGPL@?$DP?K?$MA?$AA@
  007db	6b 45 f4 4c	 imul	 eax, DWORD PTR _i$[ebp], 76
  007df	05 2b 00 00 00	 add	 eax, OFFSET ?ShowSellItem@@3PAU_Show_Sell_Item@@A+43
  007e4	50		 push	 eax
  007e5	6b 4d f4 4c	 imul	 ecx, DWORD PTR _i$[ebp], 76
  007e9	81 c1 0e 00 00
	00		 add	 ecx, OFFSET ?ShowSellItem@@3PAU_Show_Sell_Item@@A+14
  007ef	51		 push	 ecx
  007f0	68 00 00 00 00	 push	 OFFSET ??_C@_0O@OKDFECEM@?$CF?917s?$CF?912s?$CF8s?$AA@
  007f5	8d 95 14 ff ff
	ff		 lea	 edx, DWORD PTR _szMsg$[ebp]
  007fb	52		 push	 edx
  007fc	e8 00 00 00 00	 call	 _sprintf
  00801	83 c4 14	 add	 esp, 20			; 00000014H

; 746  : 						else

  00804	eb 34		 jmp	 SHORT $LN52@StreetVend
$LN55@StreetVend:

; 747  : 							sprintf(szMsg, "%-17s%-12s%8d", ShowSellItem[i].name, ShowSellItem[i].freeName, ShowSellItem[i].price);

  00806	6b 45 f4 4c	 imul	 eax, DWORD PTR _i$[ebp], 76
  0080a	8b 88 08 00 00
	00		 mov	 ecx, DWORD PTR ?ShowSellItem@@3PAU_Show_Sell_Item@@A[eax+8]
  00810	51		 push	 ecx
  00811	6b 55 f4 4c	 imul	 edx, DWORD PTR _i$[ebp], 76
  00815	81 c2 2b 00 00
	00		 add	 edx, OFFSET ?ShowSellItem@@3PAU_Show_Sell_Item@@A+43
  0081b	52		 push	 edx
  0081c	6b 45 f4 4c	 imul	 eax, DWORD PTR _i$[ebp], 76
  00820	05 0e 00 00 00	 add	 eax, OFFSET ?ShowSellItem@@3PAU_Show_Sell_Item@@A+14
  00825	50		 push	 eax
  00826	68 00 00 00 00	 push	 OFFSET ??_C@_0O@OPLGMGNK@?$CF?917s?$CF?912s?$CF8d?$AA@
  0082b	8d 8d 14 ff ff
	ff		 lea	 ecx, DWORD PTR _szMsg$[ebp]
  00831	51		 push	 ecx
  00832	e8 00 00 00 00	 call	 _sprintf
  00837	83 c4 14	 add	 esp, 20			; 00000014H
$LN52@StreetVend:

; 748  : 					}
; 749  : 					iSellItemBtn[j] = StockFontBuffer(x + 20, y + 32 + 28 * j, FONT_PRIO_FRONT, FONT_PAL_WHITE, szMsg, 2);

  0083a	6a 02		 push	 2
  0083c	8d 85 14 ff ff
	ff		 lea	 eax, DWORD PTR _szMsg$[ebp]
  00842	50		 push	 eax
  00843	6a 00		 push	 0
  00845	6a 01		 push	 1
  00847	6b 4d e8 1c	 imul	 ecx, DWORD PTR _j$[ebp], 28
  0084b	8b 55 d0	 mov	 edx, DWORD PTR _y$[ebp]
  0084e	8d 44 0a 20	 lea	 eax, DWORD PTR [edx+ecx+32]
  00852	50		 push	 eax
  00853	8b 4d dc	 mov	 ecx, DWORD PTR _x$[ebp]
  00856	83 c1 14	 add	 ecx, 20			; 00000014H
  00859	51		 push	 ecx
  0085a	e8 00 00 00 00	 call	 ?StockFontBuffer@@YAHHHDHPADH@Z ; StockFontBuffer
  0085f	83 c4 18	 add	 esp, 24			; 00000018H
  00862	8b 55 e8	 mov	 edx, DWORD PTR _j$[ebp]
  00865	89 04 95 00 00
	00 00		 mov	 DWORD PTR ?iSellItemBtn@?1??StreetVendorWndfunc@@YAX_NPAD@Z@4PAHA[edx*4], eax

; 750  : 				}
; 751  : 				else

  0086c	eb 30		 jmp	 SHORT $LN50@StreetVend
$LN49@StreetVend:

; 752  : 					iSellItemBtn[j] = StockFontBuffer(x + 20, y + 32 + 28 * j, FONT_PRIO_FRONT, FONT_PAL_WHITE, "", 0);

  0086e	6a 00		 push	 0
  00870	68 00 00 00 00	 push	 OFFSET ??_C@_00CNPNBAHC@?$AA@
  00875	6a 00		 push	 0
  00877	6a 01		 push	 1
  00879	6b 45 e8 1c	 imul	 eax, DWORD PTR _j$[ebp], 28
  0087d	8b 4d d0	 mov	 ecx, DWORD PTR _y$[ebp]
  00880	8d 54 01 20	 lea	 edx, DWORD PTR [ecx+eax+32]
  00884	52		 push	 edx
  00885	8b 45 dc	 mov	 eax, DWORD PTR _x$[ebp]
  00888	83 c0 14	 add	 eax, 20			; 00000014H
  0088b	50		 push	 eax
  0088c	e8 00 00 00 00	 call	 ?StockFontBuffer@@YAHHHDHPADH@Z ; StockFontBuffer
  00891	83 c4 18	 add	 esp, 24			; 00000018H
  00894	8b 4d e8	 mov	 ecx, DWORD PTR _j$[ebp]
  00897	89 04 8d 00 00
	00 00		 mov	 DWORD PTR ?iSellItemBtn@?1??StreetVendorWndfunc@@YAX_NPAD@Z@4PAHA[ecx*4], eax
$LN50@StreetVend:

; 753  : 			}

  0089e	e9 6c fe ff ff	 jmp	 $LN11@StreetVend
$LN12@StreetVend:

; 754  : 
; 755  : 			for (i = 0; i < 7; i++)

  008a3	c7 45 f4 00 00
	00 00		 mov	 DWORD PTR _i$[ebp], 0
  008aa	eb 09		 jmp	 SHORT $LN16@StreetVend
$LN14@StreetVend:
  008ac	8b 45 f4	 mov	 eax, DWORD PTR _i$[ebp]
  008af	83 c0 01	 add	 eax, 1
  008b2	89 45 f4	 mov	 DWORD PTR _i$[ebp], eax
$LN16@StreetVend:
  008b5	83 7d f4 07	 cmp	 DWORD PTR _i$[ebp], 7
  008b9	0f 8d 81 04 00
	00		 jge	 $LN15@StreetVend

; 756  : 			{
; 757  : 				if (mouse.onceState & MOUSE_LEFT_CRICK)

  008bf	a1 2c 00 00 00	 mov	 eax, DWORD PTR ?mouse@@3UMOUSE@@A+44
  008c4	83 e0 01	 and	 eax, 1
  008c7	0f 84 6e 04 00
	00		 je	 $LN57@StreetVend

; 758  : 				{
; 759  : 					if (HitDispNo == iBtn[i])

  008cd	8b 45 f4	 mov	 eax, DWORD PTR _i$[ebp]
  008d0	8b 0d 00 00 00
	00		 mov	 ecx, DWORD PTR ?HitDispNo@@3HA ; HitDispNo
  008d6	3b 0c 85 00 00
	00 00		 cmp	 ecx, DWORD PTR ?iBtn@?1??StreetVendorWndfunc@@YAX_NPAD@Z@4PAHA[eax*4]
  008dd	0f 85 58 04 00
	00		 jne	 $LN57@StreetVend

; 760  : 					{
; 761  : 						play_se(217, 320, 240);

  008e3	68 f0 00 00 00	 push	 240			; 000000f0H
  008e8	68 40 01 00 00	 push	 320			; 00000140H
  008ed	68 d9 00 00 00	 push	 217			; 000000d9H
  008f2	e8 00 00 00 00	 call	 ?play_se@@YAHHHH@Z	; play_se
  008f7	83 c4 0c	 add	 esp, 12			; 0000000cH

; 762  : 						switch (i)

  008fa	8b 45 f4	 mov	 eax, DWORD PTR _i$[ebp]
  008fd	89 85 08 f8 ff
	ff		 mov	 DWORD PTR tv479[ebp], eax
  00903	83 bd 08 f8 ff
	ff 06		 cmp	 DWORD PTR tv479[ebp], 6
  0090a	0f 87 29 04 00
	00		 ja	 $LN17@StreetVend
  00910	8b 8d 08 f8 ff
	ff		 mov	 ecx, DWORD PTR tv479[ebp]
  00916	ff 24 8d 00 00
	00 00		 jmp	 DWORD PTR $LN136@StreetVend[ecx*4]
$LN59@StreetVend:

; 763  : 						{
; 764  : 						// []
; 765  : 						case 0:
; 766  : 							if (!bRunSellPrice)

  0091d	0f b6 05 00 00
	00 00		 movzx	 eax, BYTE PTR ?bRunSellPrice@?1??StreetVendorWndfunc@@YAX_NPAD@Z@4_NA
  00924	85 c0		 test	 eax, eax
  00926	0f 85 c5 01 00
	00		 jne	 $LN60@StreetVend

; 767  : 							{
; 768  : 								int count = 0;

  0092c	c7 85 c0 fe ff
	ff 00 00 00 00	 mov	 DWORD PTR _count$5[ebp], 0

; 769  : 								char szMsg[512], szTemp[512], szTemp1[16];
; 770  : 
; 771  : 								memset(szMsg, 0, sizeof(szMsg));

  00936	68 00 02 00 00	 push	 512			; 00000200H
  0093b	6a 00		 push	 0
  0093d	8d 85 b8 fc ff
	ff		 lea	 eax, DWORD PTR _szMsg$4[ebp]
  00943	50		 push	 eax
  00944	e8 00 00 00 00	 call	 _memset
  00949	83 c4 0c	 add	 esp, 12			; 0000000cH

; 772  : 								memset(szTemp, 0, sizeof(szTemp));

  0094c	68 00 02 00 00	 push	 512			; 00000200H
  00951	6a 00		 push	 0
  00953	8d 85 b0 fa ff
	ff		 lea	 eax, DWORD PTR _szTemp$3[ebp]
  00959	50		 push	 eax
  0095a	e8 00 00 00 00	 call	 _memset
  0095f	83 c4 0c	 add	 esp, 12			; 0000000cH

; 773  : 								//[り  氍缄贝 胳 server瓴 ]
; 774  : 								for (j = 0; j < MAX_SELL_ITEM; j++)

  00962	c7 45 e8 00 00
	00 00		 mov	 DWORD PTR _j$[ebp], 0
  00969	eb 09		 jmp	 SHORT $LN21@StreetVend
$LN19@StreetVend:
  0096b	8b 45 e8	 mov	 eax, DWORD PTR _j$[ebp]
  0096e	83 c0 01	 add	 eax, 1
  00971	89 45 e8	 mov	 DWORD PTR _j$[ebp], eax
$LN21@StreetVend:
  00974	83 7d e8 14	 cmp	 DWORD PTR _j$[ebp], 20	; 00000014H
  00978	7d 6c		 jge	 SHORT $LN20@StreetVend

; 775  : 								{
; 776  : 									if (ShowSellItem[j].usage)

  0097a	6b 45 e8 4c	 imul	 eax, DWORD PTR _j$[ebp], 76
  0097e	0f b6 88 0d 00
	00 00		 movzx	 ecx, BYTE PTR ?ShowSellItem@@3PAU_Show_Sell_Item@@A[eax+13]
  00985	85 c9		 test	 ecx, ecx
  00987	74 5b		 je	 SHORT $LN62@StreetVend

; 777  : 									{
; 778  : 										sprintf(szTemp1, "%d|%d|%d|", ShowSellItem[j].kind, ShowSellItem[j].index, ShowSellItem[j].price);

  00989	6b 45 e8 4c	 imul	 eax, DWORD PTR _j$[ebp], 76
  0098d	8b 88 08 00 00
	00		 mov	 ecx, DWORD PTR ?ShowSellItem@@3PAU_Show_Sell_Item@@A[eax+8]
  00993	51		 push	 ecx
  00994	6b 55 e8 4c	 imul	 edx, DWORD PTR _j$[ebp], 76
  00998	8b 82 00 00 00
	00		 mov	 eax, DWORD PTR ?ShowSellItem@@3PAU_Show_Sell_Item@@A[edx]
  0099e	50		 push	 eax
  0099f	6b 4d e8 4c	 imul	 ecx, DWORD PTR _j$[ebp], 76
  009a3	0f be 91 48 00
	00 00		 movsx	 edx, BYTE PTR ?ShowSellItem@@3PAU_Show_Sell_Item@@A[ecx+72]
  009aa	52		 push	 edx
  009ab	68 00 00 00 00	 push	 OFFSET ??_C@_09CGALFHNJ@?$CFd?$HM?$CFd?$HM?$CFd?$HM?$AA@
  009b0	8d 85 98 fa ff
	ff		 lea	 eax, DWORD PTR _szTemp1$2[ebp]
  009b6	50		 push	 eax
  009b7	e8 00 00 00 00	 call	 _sprintf
  009bc	83 c4 14	 add	 esp, 20			; 00000014H

; 779  : 										strcat(szTemp, szTemp1);

  009bf	8d 85 98 fa ff
	ff		 lea	 eax, DWORD PTR _szTemp1$2[ebp]
  009c5	50		 push	 eax
  009c6	8d 8d b0 fa ff
	ff		 lea	 ecx, DWORD PTR _szTemp$3[ebp]
  009cc	51		 push	 ecx
  009cd	e8 00 00 00 00	 call	 _strcat
  009d2	83 c4 08	 add	 esp, 8

; 780  : 										count++;	// [齑店]

  009d5	8b 85 c0 fe ff
	ff		 mov	 eax, DWORD PTR _count$5[ebp]
  009db	83 c0 01	 add	 eax, 1
  009de	89 85 c0 fe ff
	ff		 mov	 DWORD PTR _count$5[ebp], eax
$LN62@StreetVend:

; 781  : 									}
; 782  : 								}

  009e4	eb 85		 jmp	 SHORT $LN19@StreetVend
$LN20@StreetVend:

; 783  : 								if (count != 0)

  009e6	83 bd c0 fe ff
	ff 00		 cmp	 DWORD PTR _count$5[ebp], 0
  009ed	0f 84 df 00 00
	00		 je	 $LN63@StreetVend

; 784  : 								{
; 785  : 									if (str_bufferVendorName.cnt == 0)

  009f3	0f b6 05 07 01
	00 00		 movzx	 eax, BYTE PTR ?str_bufferVendorName@@3USTR_BUFFER@@A+263
  009fa	85 c0		 test	 eax, eax
  009fc	75 19		 jne	 SHORT $LN65@StreetVend

; 786  : 									{
; 787  : 										sprintf(str_bufferVendorName.buffer, "挫れ!!");

  009fe	68 00 00 00 00	 push	 OFFSET ??_C@_0P@DJCPLGCF@?$LO?n?$LM?$KN?$LP?$MA?$LN?J?$LN?C?$LP?$MA?$CB?$CB?$AA@
  00a03	68 00 00 00 00	 push	 OFFSET ?str_bufferVendorName@@3USTR_BUFFER@@A ; str_bufferVendorName
  00a08	e8 00 00 00 00	 call	 _sprintf
  00a0d	83 c4 08	 add	 esp, 8

; 788  : 										str_bufferVendorName.cnt = 10;

  00a10	c6 05 07 01 00
	00 0a		 mov	 BYTE PTR ?str_bufferVendorName@@3USTR_BUFFER@@A+263, 10 ; 0000000aH
$LN65@StreetVend:

; 789  : 									}
; 790  : 									sprintf(szMsg, "S|%d|%s%s", count, szTemp, str_bufferVendorName.buffer);

  00a17	68 00 00 00 00	 push	 OFFSET ?str_bufferVendorName@@3USTR_BUFFER@@A ; str_bufferVendorName
  00a1c	8d 85 b0 fa ff
	ff		 lea	 eax, DWORD PTR _szTemp$3[ebp]
  00a22	50		 push	 eax
  00a23	8b 8d c0 fe ff
	ff		 mov	 ecx, DWORD PTR _count$5[ebp]
  00a29	51		 push	 ecx
  00a2a	68 00 00 00 00	 push	 OFFSET ??_C@_09KAHBFCEF@S?$HM?$CFd?$HM?$CFs?$CFs?$AA@
  00a2f	8d 95 b8 fc ff
	ff		 lea	 edx, DWORD PTR _szMsg$4[ebp]
  00a35	52		 push	 edx
  00a36	e8 00 00 00 00	 call	 _sprintf
  00a3b	83 c4 14	 add	 esp, 20			; 00000014H

; 791  : 									lssproto_STREET_VENDOR_send(sockfd, szMsg);

  00a3e	8d 85 b8 fc ff
	ff		 lea	 eax, DWORD PTR _szMsg$4[ebp]
  00a44	50		 push	 eax
  00a45	8b 0d 00 00 00
	00		 mov	 ecx, DWORD PTR ?sockfd@@3IA ; sockfd
  00a4b	51		 push	 ecx
  00a4c	e8 00 00 00 00	 call	 ?lssproto_STREET_VENDOR_send@@YAXHPAD@Z ; lssproto_STREET_VENDOR_send
  00a51	83 c4 08	 add	 esp, 8

; 792  : 									// [胳 氩 瓿 毵 措れ ]
; 793  : 									if (pc.ridePetNo > -1)

  00a54	83 3d 18 51 00
	00 ff		 cmp	 DWORD PTR ?pc@@3UPC@@A+20760, -1
  00a5b	7e 73		 jle	 SHORT $LN66@StreetVend

; 794  : 									{
; 795  : 										char buf[64];
; 796  : 
; 797  : 										sprintf(buf, "R|P|-1");

  00a5d	68 00 00 00 00	 push	 OFFSET ??_C@_06EFALBHEL@R?$HMP?$HM?91?$AA@
  00a62	8d 85 50 fa ff
	ff		 lea	 eax, DWORD PTR _buf$1[ebp]
  00a68	50		 push	 eax
  00a69	e8 00 00 00 00	 call	 _sprintf
  00a6e	83 c4 08	 add	 esp, 8

; 798  : 										if (bNewServer) 

  00a71	83 3d 00 00 00
	00 00		 cmp	 DWORD PTR ?bNewServer@@3HA, 0 ; bNewServer
  00a78	74 18		 je	 SHORT $LN67@StreetVend

; 799  : 											lssproto_FM_send(sockfd, buf);

  00a7a	8d 85 50 fa ff
	ff		 lea	 eax, DWORD PTR _buf$1[ebp]
  00a80	50		 push	 eax
  00a81	8b 0d 00 00 00
	00		 mov	 ecx, DWORD PTR ?sockfd@@3IA ; sockfd
  00a87	51		 push	 ecx
  00a88	e8 00 00 00 00	 call	 ?lssproto_FM_send@@YAXHPAD@Z ; lssproto_FM_send
  00a8d	83 c4 08	 add	 esp, 8

; 800  : 										else 

  00a90	eb 16		 jmp	 SHORT $LN68@StreetVend
$LN67@StreetVend:

; 801  : 											lssproto_FM_send(sockfd, buf);

  00a92	8d 85 50 fa ff
	ff		 lea	 eax, DWORD PTR _buf$1[ebp]
  00a98	50		 push	 eax
  00a99	8b 0d 00 00 00
	00		 mov	 ecx, DWORD PTR ?sockfd@@3IA ; sockfd
  00a9f	51		 push	 ecx
  00aa0	e8 00 00 00 00	 call	 ?lssproto_FM_send@@YAXHPAD@Z ; lssproto_FM_send
  00aa5	83 c4 08	 add	 esp, 8
$LN68@StreetVend:

; 802  : 										if ((bNewServer & 0xf000000) == 0xf000000)

  00aa8	a1 00 00 00 00	 mov	 eax, DWORD PTR ?bNewServer@@3HA ; bNewServer
  00aad	25 00 00 00 0f	 and	 eax, 251658240		; 0f000000H
  00ab2	3d 00 00 00 0f	 cmp	 eax, 251658240		; 0f000000H
  00ab7	75 17		 jne	 SHORT $LN66@StreetVend

; 803  : 											lssproto_PETST_send(sockfd, pc.ridePetNo, 0);

  00ab9	6a 00		 push	 0
  00abb	a1 18 51 00 00	 mov	 eax, DWORD PTR ?pc@@3UPC@@A+20760
  00ac0	50		 push	 eax
  00ac1	8b 0d 00 00 00
	00		 mov	 ecx, DWORD PTR ?sockfd@@3IA ; sockfd
  00ac7	51		 push	 ecx
  00ac8	e8 00 00 00 00	 call	 ?lssproto_PETST_send@@YAXHHH@Z ; lssproto_PETST_send
  00acd	83 c4 0c	 add	 esp, 12			; 0000000cH
$LN66@StreetVend:

; 804  : 									}
; 805  : 								}
; 806  : 								else

  00ad0	eb 1d		 jmp	 SHORT $LN64@StreetVend
$LN63@StreetVend:

; 807  : 								{
; 808  : 									lssproto_STREET_VENDOR_send(sockfd, "E|");

  00ad2	68 00 00 00 00	 push	 OFFSET ??_C@_02PFGFFPDM@E?$HM?$AA@
  00ad7	a1 00 00 00 00	 mov	 eax, DWORD PTR ?sockfd@@3IA ; sockfd
  00adc	50		 push	 eax
  00add	e8 00 00 00 00	 call	 ?lssproto_STREET_VENDOR_send@@YAXHPAD@Z ; lssproto_STREET_VENDOR_send
  00ae2	83 c4 08	 add	 esp, 8

; 809  : 									pc.iOnStreetVendor = 0;

  00ae5	c7 05 b8 a1 00
	00 00 00 00 00	 mov	 DWORD PTR ?pc@@3UPC@@A+41400, 0
$LN64@StreetVend:

; 810  : 								}
; 811  : 							}
; 812  : 							else

  00aef	eb 05		 jmp	 SHORT $LN70@StreetVend
$LN60@StreetVend:

; 813  : 								break;

  00af1	e9 43 02 00 00	 jmp	 $LN17@StreetVend
$LN70@StreetVend:

; 814  : 						// [旆]
; 815  : 						case 1:
; 816  : 							if (i == 1)

  00af6	83 7d f4 01	 cmp	 DWORD PTR _i$[ebp], 1
  00afa	75 1d		 jne	 SHORT $LN71@StreetVend

; 817  : 							{
; 818  : 								lssproto_STREET_VENDOR_send(sockfd, "E|");

  00afc	68 00 00 00 00	 push	 OFFSET ??_C@_02PFGFFPDM@E?$HM?$AA@
  00b01	a1 00 00 00 00	 mov	 eax, DWORD PTR ?sockfd@@3IA ; sockfd
  00b06	50		 push	 eax
  00b07	e8 00 00 00 00	 call	 ?lssproto_STREET_VENDOR_send@@YAXHPAD@Z ; lssproto_STREET_VENDOR_send
  00b0c	83 c4 08	 add	 esp, 8

; 819  : 								pc.iOnStreetVendor = 0;

  00b0f	c7 05 b8 a1 00
	00 00 00 00 00	 mov	 DWORD PTR ?pc@@3UPC@@A+41400, 0
$LN71@StreetVend:

; 820  : 							}
; 821  : 							sStreetVendorBtn = 0;

  00b19	33 c0		 xor	 eax, eax
  00b1b	66 a3 00 00 00
	00		 mov	 WORD PTR ?sStreetVendorBtn@@3FA, ax ; sStreetVendorBtn

; 822  : 							actBtn = 0;

  00b21	33 c0		 xor	 eax, eax
  00b23	66 a3 00 00 00
	00		 mov	 WORD PTR ?actBtn@@3FA, ax ; actBtn

; 823  : 							if (pShowPet != NULL)

  00b29	83 3d 00 00 00
	00 00		 cmp	 DWORD PTR ?pShowPet@@3PAUaction@@A, 0 ; pShowPet
  00b30	74 18		 je	 SHORT $LN72@StreetVend

; 824  : 							{
; 825  : 								DeathAction(pShowPet);

  00b32	a1 00 00 00 00	 mov	 eax, DWORD PTR ?pShowPet@@3PAUaction@@A ; pShowPet
  00b37	50		 push	 eax
  00b38	e8 00 00 00 00	 call	 ?DeathAction@@YAXPAUaction@@@Z ; DeathAction
  00b3d	83 c4 04	 add	 esp, 4

; 826  : 								pShowPet = NULL;

  00b40	c7 05 00 00 00
	00 00 00 00 00	 mov	 DWORD PTR ?pShowPet@@3PAUaction@@A, 0 ; pShowPet
$LN72@StreetVend:

; 827  : 							}
; 828  : 							if (pActSellPriceWnd != NULL)

  00b4a	83 3d 00 00 00
	00 00		 cmp	 DWORD PTR ?pActSellPriceWnd@@3PAUaction@@A, 0
  00b51	74 0e		 je	 SHORT $LN73@StreetVend

; 829  : 								DeathAction(pActSellPriceWnd);

  00b53	a1 00 00 00 00	 mov	 eax, DWORD PTR ?pActSellPriceWnd@@3PAUaction@@A
  00b58	50		 push	 eax
  00b59	e8 00 00 00 00	 call	 ?DeathAction@@YAXPAUaction@@@Z ; DeathAction
  00b5e	83 c4 04	 add	 esp, 4
$LN73@StreetVend:

; 830  : 							pActSellPriceWnd = NULL;

  00b61	c7 05 00 00 00
	00 00 00 00 00	 mov	 DWORD PTR ?pActSellPriceWnd@@3PAUaction@@A, 0

; 831  : 							GetKeyInputFocus(&MyChatBuffer);

  00b6b	68 00 00 00 00	 push	 OFFSET ?MyChatBuffer@@3USTR_BUFFER@@A ; MyChatBuffer
  00b70	e8 00 00 00 00	 call	 ?GetKeyInputFocus@@YAXPAUSTR_BUFFER@@@Z ; GetKeyInputFocus
  00b75	83 c4 04	 add	 esp, 4

; 832  : 							break;

  00b78	e9 bc 01 00 00	 jmp	 $LN17@StreetVend
$LN74@StreetVend:

; 833  : 						// [甓]
; 834  : 						case 2:
; 835  : 							iListStart--;

  00b7d	a1 00 00 00 00	 mov	 eax, DWORD PTR ?iListStart@?1??StreetVendorWndfunc@@YAX_NPAD@Z@4HA
  00b82	83 e8 01	 sub	 eax, 1
  00b85	a3 00 00 00 00	 mov	 DWORD PTR ?iListStart@?1??StreetVendorWndfunc@@YAX_NPAD@Z@4HA, eax

; 836  : 							if (iListStart < 0)

  00b8a	79 0a		 jns	 SHORT $LN75@StreetVend

; 837  : 								iListStart = 0;

  00b8c	c7 05 00 00 00
	00 00 00 00 00	 mov	 DWORD PTR ?iListStart@?1??StreetVendorWndfunc@@YAX_NPAD@Z@4HA, 0
$LN75@StreetVend:

; 838  : 							break;

  00b96	e9 9e 01 00 00	 jmp	 $LN17@StreetVend
$LN76@StreetVend:

; 839  : 						// [甓]
; 840  : 						case 3:
; 841  : 							iListStart++;

  00b9b	a1 00 00 00 00	 mov	 eax, DWORD PTR ?iListStart@?1??StreetVendorWndfunc@@YAX_NPAD@Z@4HA
  00ba0	83 c0 01	 add	 eax, 1
  00ba3	a3 00 00 00 00	 mov	 DWORD PTR ?iListStart@?1??StreetVendorWndfunc@@YAX_NPAD@Z@4HA, eax

; 842  : 							if (iListStart > 10)

  00ba8	83 3d 00 00 00
	00 0a		 cmp	 DWORD PTR ?iListStart@?1??StreetVendorWndfunc@@YAX_NPAD@Z@4HA, 10 ; 0000000aH
  00baf	7e 0a		 jle	 SHORT $LN77@StreetVend

; 843  : 								iListStart = 10;

  00bb1	c7 05 00 00 00
	00 0a 00 00 00	 mov	 DWORD PTR ?iListStart@?1??StreetVendorWndfunc@@YAX_NPAD@Z@4HA, 10 ; 0000000aH
$LN77@StreetVend:

; 844  : 							break;

  00bbb	e9 79 01 00 00	 jmp	 $LN17@StreetVend
$LN78@StreetVend:

; 845  : 						// [氚╈]
; 846  : 						case 4:
; 847  : 							if (!bRunSellPrice)

  00bc0	0f b6 05 00 00
	00 00		 movzx	 eax, BYTE PTR ?bRunSellPrice@?1??StreetVendorWndfunc@@YAX_NPAD@Z@4_NA
  00bc7	85 c0		 test	 eax, eax
  00bc9	0f 85 da 00 00
	00		 jne	 $LN79@StreetVend

; 848  : 							{
; 849  : 								pShowSellItem = GetEmptyShowSellItem(ShowSellItem);

  00bcf	68 00 00 00 00	 push	 OFFSET ?ShowSellItem@@3PAU_Show_Sell_Item@@A
  00bd4	e8 00 00 00 00	 call	 ?GetEmptyShowSellItem@@YAPAU_Show_Sell_Item@@PAU1@@Z ; GetEmptyShowSellItem
  00bd9	83 c4 04	 add	 esp, 4
  00bdc	a3 00 00 00 00	 mov	 DWORD PTR ?pShowSellItem@?1??StreetVendorWndfunc@@YAX_NPAD@Z@4PAU_Show_Sell_Item@@A, eax

; 850  : 								// [攴鸽Μ瓿    瓿店 ]
; 851  : 								if (pShowSellItem != NULL && iPetOnSell[iShowPet] == -1 && pShowPet != NULL)

  00be1	83 3d 00 00 00
	00 00		 cmp	 DWORD PTR ?pShowSellItem@?1??StreetVendorWndfunc@@YAX_NPAD@Z@4PAU_Show_Sell_Item@@A, 0
  00be8	0f 84 bb 00 00
	00		 je	 $LN79@StreetVend
  00bee	a1 00 00 00 00	 mov	 eax, DWORD PTR ?iShowPet@?1??StreetVendorWndfunc@@YAX_NPAD@Z@4HA
  00bf3	83 3c 85 00 00
	00 00 ff	 cmp	 DWORD PTR ?iPetOnSell@?1??StreetVendorWndfunc@@YAX_NPAD@Z@4PAHA[eax*4], -1
  00bfb	0f 85 a8 00 00
	00		 jne	 $LN79@StreetVend
  00c01	83 3d 00 00 00
	00 00		 cmp	 DWORD PTR ?pShowPet@@3PAUaction@@A, 0 ; pShowPet
  00c08	0f 84 9b 00 00
	00		 je	 $LN79@StreetVend

; 852  : 								{
; 853  : 									iPetOnSell[iShowPet] = iShowPet;

  00c0e	a1 00 00 00 00	 mov	 eax, DWORD PTR ?iShowPet@?1??StreetVendorWndfunc@@YAX_NPAD@Z@4HA
  00c13	8b 0d 00 00 00
	00		 mov	 ecx, DWORD PTR ?iShowPet@?1??StreetVendorWndfunc@@YAX_NPAD@Z@4HA
  00c19	89 0c 85 00 00
	00 00		 mov	 DWORD PTR ?iPetOnSell@?1??StreetVendorWndfunc@@YAX_NPAD@Z@4PAHA[eax*4], ecx

; 854  : 									bRunSellPrice = true;

  00c20	c6 05 00 00 00
	00 01		 mov	 BYTE PTR ?bRunSellPrice@?1??StreetVendorWndfunc@@YAX_NPAD@Z@4_NA, 1

; 855  : 									pShowSellItem->usage = true;

  00c27	a1 00 00 00 00	 mov	 eax, DWORD PTR ?pShowSellItem@?1??StreetVendorWndfunc@@YAX_NPAD@Z@4PAU_Show_Sell_Item@@A
  00c2c	c6 40 0d 01	 mov	 BYTE PTR [eax+13], 1

; 856  : 									pShowSellItem->needGetPrice = true;

  00c30	a1 00 00 00 00	 mov	 eax, DWORD PTR ?pShowSellItem@?1??StreetVendorWndfunc@@YAX_NPAD@Z@4PAU_Show_Sell_Item@@A
  00c35	c6 40 0c 01	 mov	 BYTE PTR [eax+12], 1

; 857  : 									sprintf(pShowSellItem->name, "%s", pet[iShowPet].name);

  00c39	69 05 00 00 00
	00 20 0b 00 00	 imul	 eax, DWORD PTR ?iShowPet@?1??StreetVendorWndfunc@@YAX_NPAD@Z@4HA, 2848
  00c43	05 54 00 00 00	 add	 eax, OFFSET ?pet@@3PAUPET@@A+84
  00c48	50		 push	 eax
  00c49	68 00 00 00 00	 push	 OFFSET ??_C@_02DKCKIIND@?$CFs?$AA@
  00c4e	8b 0d 00 00 00
	00		 mov	 ecx, DWORD PTR ?pShowSellItem@?1??StreetVendorWndfunc@@YAX_NPAD@Z@4PAU_Show_Sell_Item@@A
  00c54	83 c1 0e	 add	 ecx, 14			; 0000000eH
  00c57	51		 push	 ecx
  00c58	e8 00 00 00 00	 call	 _sprintf
  00c5d	83 c4 0c	 add	 esp, 12			; 0000000cH

; 858  : 									sprintf(pShowSellItem->freeName, "%s", pet[iShowPet].freeName);

  00c60	69 05 00 00 00
	00 20 0b 00 00	 imul	 eax, DWORD PTR ?iShowPet@?1??StreetVendorWndfunc@@YAX_NPAD@Z@4HA, 2848
  00c6a	05 65 00 00 00	 add	 eax, OFFSET ?pet@@3PAUPET@@A+101
  00c6f	50		 push	 eax
  00c70	68 00 00 00 00	 push	 OFFSET ??_C@_02DKCKIIND@?$CFs?$AA@
  00c75	8b 0d 00 00 00
	00		 mov	 ecx, DWORD PTR ?pShowSellItem@?1??StreetVendorWndfunc@@YAX_NPAD@Z@4PAU_Show_Sell_Item@@A
  00c7b	83 c1 2b	 add	 ecx, 43			; 0000002bH
  00c7e	51		 push	 ecx
  00c7f	e8 00 00 00 00	 call	 _sprintf
  00c84	83 c4 0c	 add	 esp, 12			; 0000000cH

; 859  : 									pShowSellItem->pile = 1;

  00c87	a1 00 00 00 00	 mov	 eax, DWORD PTR ?pShowSellItem@?1??StreetVendorWndfunc@@YAX_NPAD@Z@4PAU_Show_Sell_Item@@A
  00c8c	c7 40 04 01 00
	00 00		 mov	 DWORD PTR [eax+4], 1

; 860  : 									pShowSellItem->kind = 1;

  00c93	a1 00 00 00 00	 mov	 eax, DWORD PTR ?pShowSellItem@?1??StreetVendorWndfunc@@YAX_NPAD@Z@4PAU_Show_Sell_Item@@A
  00c98	c6 40 48 01	 mov	 BYTE PTR [eax+72], 1

; 861  : 									pShowSellItem->index = iShowPet;

  00c9c	a1 00 00 00 00	 mov	 eax, DWORD PTR ?pShowSellItem@?1??StreetVendorWndfunc@@YAX_NPAD@Z@4PAU_Show_Sell_Item@@A
  00ca1	8b 0d 00 00 00
	00		 mov	 ecx, DWORD PTR ?iShowPet@?1??StreetVendorWndfunc@@YAX_NPAD@Z@4HA
  00ca7	89 08		 mov	 DWORD PTR [eax], ecx
$LN79@StreetVend:

; 862  : 								}
; 863  : 							}
; 864  : 							break;

  00ca9	e9 8b 00 00 00	 jmp	 $LN17@StreetVend
$LN81@StreetVend:

; 865  : 						// [检 错]
; 866  : 						case 5:
; 867  : 							if (!bRunSellPrice)

  00cae	0f b6 05 00 00
	00 00		 movzx	 eax, BYTE PTR ?bRunSellPrice@?1??StreetVendorWndfunc@@YAX_NPAD@Z@4_NA
  00cb5	85 c0		 test	 eax, eax
  00cb7	75 3b		 jne	 SHORT $LN82@StreetVend

; 868  : 							{
; 869  : 								iShowPet = (iShowPet + 1 > 4 ? 0:iShowPet + 1);

  00cb9	a1 00 00 00 00	 mov	 eax, DWORD PTR ?iShowPet@?1??StreetVendorWndfunc@@YAX_NPAD@Z@4HA
  00cbe	83 c0 01	 add	 eax, 1
  00cc1	83 f8 04	 cmp	 eax, 4
  00cc4	7e 0c		 jle	 SHORT $LN118@StreetVend
  00cc6	c7 85 08 f8 ff
	ff 00 00 00 00	 mov	 DWORD PTR tv622[ebp], 0
  00cd0	eb 0f		 jmp	 SHORT $LN119@StreetVend
$LN118@StreetVend:
  00cd2	8b 0d 00 00 00
	00		 mov	 ecx, DWORD PTR ?iShowPet@?1??StreetVendorWndfunc@@YAX_NPAD@Z@4HA
  00cd8	83 c1 01	 add	 ecx, 1
  00cdb	89 8d 08 f8 ff
	ff		 mov	 DWORD PTR tv622[ebp], ecx
$LN119@StreetVend:
  00ce1	8b 95 08 f8 ff
	ff		 mov	 edx, DWORD PTR tv622[ebp]
  00ce7	89 15 00 00 00
	00		 mov	 DWORD PTR ?iShowPet@?1??StreetVendorWndfunc@@YAX_NPAD@Z@4HA, edx

; 870  : 								bChangePet = true;

  00ced	c6 05 00 00 00
	00 01		 mov	 BYTE PTR ?bChangePet@?1??StreetVendorWndfunc@@YAX_NPAD@Z@4_NA, 1
$LN82@StreetVend:

; 871  : 							}
; 872  : 							break;

  00cf4	eb 43		 jmp	 SHORT $LN17@StreetVend
$LN83@StreetVend:

; 873  : 						// [るジ飒 错]
; 874  : 						case 6:
; 875  : 							if (!bRunSellPrice)

  00cf6	0f b6 05 00 00
	00 00		 movzx	 eax, BYTE PTR ?bRunSellPrice@?1??StreetVendorWndfunc@@YAX_NPAD@Z@4_NA
  00cfd	85 c0		 test	 eax, eax
  00cff	75 38		 jne	 SHORT $LN17@StreetVend

; 876  : 							{
; 877  : 								iShowPet = (iShowPet - 1 < 0 ? 4:iShowPet - 1);

  00d01	a1 00 00 00 00	 mov	 eax, DWORD PTR ?iShowPet@?1??StreetVendorWndfunc@@YAX_NPAD@Z@4HA
  00d06	83 e8 01	 sub	 eax, 1
  00d09	79 0c		 jns	 SHORT $LN120@StreetVend
  00d0b	c7 85 08 f8 ff
	ff 04 00 00 00	 mov	 DWORD PTR tv628[ebp], 4
  00d15	eb 0f		 jmp	 SHORT $LN121@StreetVend
$LN120@StreetVend:
  00d17	8b 0d 00 00 00
	00		 mov	 ecx, DWORD PTR ?iShowPet@?1??StreetVendorWndfunc@@YAX_NPAD@Z@4HA
  00d1d	83 e9 01	 sub	 ecx, 1
  00d20	89 8d 08 f8 ff
	ff		 mov	 DWORD PTR tv628[ebp], ecx
$LN121@StreetVend:
  00d26	8b 95 08 f8 ff
	ff		 mov	 edx, DWORD PTR tv628[ebp]
  00d2c	89 15 00 00 00
	00		 mov	 DWORD PTR ?iShowPet@?1??StreetVendorWndfunc@@YAX_NPAD@Z@4HA, edx

; 878  : 								bChangePet = true;

  00d32	c6 05 00 00 00
	00 01		 mov	 BYTE PTR ?bChangePet@?1??StreetVendorWndfunc@@YAX_NPAD@Z@4_NA, 1
$LN17@StreetVend:

; 879  : 							}
; 880  : 							break;
; 881  : 						}
; 882  : 						break;

  00d39	eb 05		 jmp	 SHORT $LN15@StreetVend
$LN57@StreetVend:

; 883  : 					}
; 884  : 				}
; 885  : 			}

  00d3b	e9 6c fb ff ff	 jmp	 $LN14@StreetVend
$LN15@StreetVend:

; 886  : 			if (!bRunSellPrice)

  00d40	0f b6 05 00 00
	00 00		 movzx	 eax, BYTE PTR ?bRunSellPrice@?1??StreetVendorWndfunc@@YAX_NPAD@Z@4_NA
  00d47	85 c0		 test	 eax, eax
  00d49	0f 85 87 01 00
	00		 jne	 $LN85@StreetVend

; 887  : 			{
; 888  : 				for (i = 0; i < 10; i++)

  00d4f	c7 45 f4 00 00
	00 00		 mov	 DWORD PTR _i$[ebp], 0
  00d56	eb 09		 jmp	 SHORT $LN24@StreetVend
$LN22@StreetVend:
  00d58	8b 45 f4	 mov	 eax, DWORD PTR _i$[ebp]
  00d5b	83 c0 01	 add	 eax, 1
  00d5e	89 45 f4	 mov	 DWORD PTR _i$[ebp], eax
$LN24@StreetVend:
  00d61	83 7d f4 0a	 cmp	 DWORD PTR _i$[ebp], 10	; 0000000aH
  00d65	0f 8d 6b 01 00
	00		 jge	 $LN85@StreetVend

; 889  : 				{
; 890  : 					// [臧瓴╈]
; 891  : 					if (mouse.onceState & MOUSE_LEFT_CRICK)

  00d6b	a1 2c 00 00 00	 mov	 eax, DWORD PTR ?mouse@@3UMOUSE@@A+44
  00d70	83 e0 01	 and	 eax, 1
  00d73	74 33		 je	 SHORT $LN86@StreetVend

; 892  : 					{
; 893  : 						if (selId == iSellItemBtn[i])

  00d75	8b 45 f4	 mov	 eax, DWORD PTR _i$[ebp]
  00d78	8b 4d ac	 mov	 ecx, DWORD PTR _selId$[ebp]
  00d7b	3b 0c 85 00 00
	00 00		 cmp	 ecx, DWORD PTR ?iSellItemBtn@?1??StreetVendorWndfunc@@YAX_NPAD@Z@4PAHA[eax*4]
  00d82	75 1f		 jne	 SHORT $LN88@StreetVend

; 894  : 						{
; 895  : 							ShowSellItem[i + iListStart].needGetPrice = true;

  00d84	8b 45 f4	 mov	 eax, DWORD PTR _i$[ebp]
  00d87	03 05 00 00 00
	00		 add	 eax, DWORD PTR ?iListStart@?1??StreetVendorWndfunc@@YAX_NPAD@Z@4HA
  00d8d	6b c8 4c	 imul	 ecx, eax, 76
  00d90	c6 81 0c 00 00
	00 01		 mov	 BYTE PTR ?ShowSellItem@@3PAU_Show_Sell_Item@@A[ecx+12], 1

; 896  : 							bRunSellPrice = true;

  00d97	c6 05 00 00 00
	00 01		 mov	 BYTE PTR ?bRunSellPrice@?1??StreetVendorWndfunc@@YAX_NPAD@Z@4_NA, 1

; 897  : 							break;

  00d9e	e9 33 01 00 00	 jmp	 $LN85@StreetVend
$LN88@StreetVend:

; 898  : 						}
; 899  : 					}

  00da3	e9 29 01 00 00	 jmp	 $LN87@StreetVend
$LN86@StreetVend:

; 900  : 					// [旆攵毵]
; 901  : 					else if (mouse.onceState & MOUSE_RIGHT_CRICK)

  00da8	a1 2c 00 00 00	 mov	 eax, DWORD PTR ?mouse@@3UMOUSE@@A+44
  00dad	83 e0 02	 and	 eax, 2
  00db0	0f 84 1b 01 00
	00		 je	 $LN87@StreetVend

; 902  : 					{
; 903  : 						if (selId == iSellItemBtn[i])

  00db6	8b 45 f4	 mov	 eax, DWORD PTR _i$[ebp]
  00db9	8b 4d ac	 mov	 ecx, DWORD PTR _selId$[ebp]
  00dbc	3b 0c 85 00 00
	00 00		 cmp	 ecx, DWORD PTR ?iSellItemBtn@?1??StreetVendorWndfunc@@YAX_NPAD@Z@4PAHA[eax*4]
  00dc3	0f 85 08 01 00
	00		 jne	 $LN87@StreetVend

; 904  : 						{
; 905  : 							if (ShowSellItem[i + iListStart].kind == 0)

  00dc9	8b 45 f4	 mov	 eax, DWORD PTR _i$[ebp]
  00dcc	03 05 00 00 00
	00		 add	 eax, DWORD PTR ?iListStart@?1??StreetVendorWndfunc@@YAX_NPAD@Z@4HA
  00dd2	6b c8 4c	 imul	 ecx, eax, 76
  00dd5	0f be 91 48 00
	00 00		 movsx	 edx, BYTE PTR ?ShowSellItem@@3PAU_Show_Sell_Item@@A[ecx+72]
  00ddc	85 d2		 test	 edx, edx
  00dde	75 1f		 jne	 SHORT $LN91@StreetVend

; 906  : 								iItemOnSell[ShowSellItem[i + iListStart].index - 9] = -1;

  00de0	8b 45 f4	 mov	 eax, DWORD PTR _i$[ebp]
  00de3	03 05 00 00 00
	00		 add	 eax, DWORD PTR ?iListStart@?1??StreetVendorWndfunc@@YAX_NPAD@Z@4HA
  00de9	6b c8 4c	 imul	 ecx, eax, 76
  00dec	8b 91 00 00 00
	00		 mov	 edx, DWORD PTR ?ShowSellItem@@3PAU_Show_Sell_Item@@A[ecx]
  00df2	c7 04 95 dc ff
	ff ff ff ff ff
	ff		 mov	 DWORD PTR ?iItemOnSell@?1??StreetVendorWndfunc@@YAX_NPAD@Z@4PAHA[edx*4-36], -1

; 907  : 							else

  00dfd	eb 1d		 jmp	 SHORT $LN92@StreetVend
$LN91@StreetVend:

; 908  : 								iPetOnSell[ShowSellItem[i + iListStart].index] = -1;

  00dff	8b 45 f4	 mov	 eax, DWORD PTR _i$[ebp]
  00e02	03 05 00 00 00
	00		 add	 eax, DWORD PTR ?iListStart@?1??StreetVendorWndfunc@@YAX_NPAD@Z@4HA
  00e08	6b c8 4c	 imul	 ecx, eax, 76
  00e0b	8b 91 00 00 00
	00		 mov	 edx, DWORD PTR ?ShowSellItem@@3PAU_Show_Sell_Item@@A[ecx]
  00e11	c7 04 95 00 00
	00 00 ff ff ff
	ff		 mov	 DWORD PTR ?iPetOnSell@?1??StreetVendorWndfunc@@YAX_NPAD@Z@4PAHA[edx*4], -1
$LN92@StreetVend:

; 909  : 							ShowSellItem[i+iListStart].name[0] = '\0';

  00e1c	8b 45 f4	 mov	 eax, DWORD PTR _i$[ebp]
  00e1f	03 05 00 00 00
	00		 add	 eax, DWORD PTR ?iListStart@?1??StreetVendorWndfunc@@YAX_NPAD@Z@4HA
  00e25	6b c8 4c	 imul	 ecx, eax, 76
  00e28	ba 01 00 00 00	 mov	 edx, 1
  00e2d	6b c2 00	 imul	 eax, edx, 0
  00e30	c6 84 01 0e 00
	00 00 00	 mov	 BYTE PTR ?ShowSellItem@@3PAU_Show_Sell_Item@@A[ecx+eax+14], 0

; 910  : 							ShowSellItem[i+iListStart].freeName[0] = '\0';

  00e38	8b 45 f4	 mov	 eax, DWORD PTR _i$[ebp]
  00e3b	03 05 00 00 00
	00		 add	 eax, DWORD PTR ?iListStart@?1??StreetVendorWndfunc@@YAX_NPAD@Z@4HA
  00e41	6b c8 4c	 imul	 ecx, eax, 76
  00e44	ba 01 00 00 00	 mov	 edx, 1
  00e49	6b c2 00	 imul	 eax, edx, 0
  00e4c	c6 84 01 2b 00
	00 00 00	 mov	 BYTE PTR ?ShowSellItem@@3PAU_Show_Sell_Item@@A[ecx+eax+43], 0

; 911  : 							ShowSellItem[i+iListStart].needGetPrice = false;

  00e54	8b 45 f4	 mov	 eax, DWORD PTR _i$[ebp]
  00e57	03 05 00 00 00
	00		 add	 eax, DWORD PTR ?iListStart@?1??StreetVendorWndfunc@@YAX_NPAD@Z@4HA
  00e5d	6b c8 4c	 imul	 ecx, eax, 76
  00e60	c6 81 0c 00 00
	00 00		 mov	 BYTE PTR ?ShowSellItem@@3PAU_Show_Sell_Item@@A[ecx+12], 0

; 912  : 							ShowSellItem[i+iListStart].pile = 0;

  00e67	8b 45 f4	 mov	 eax, DWORD PTR _i$[ebp]
  00e6a	03 05 00 00 00
	00		 add	 eax, DWORD PTR ?iListStart@?1??StreetVendorWndfunc@@YAX_NPAD@Z@4HA
  00e70	6b c8 4c	 imul	 ecx, eax, 76
  00e73	c7 81 04 00 00
	00 00 00 00 00	 mov	 DWORD PTR ?ShowSellItem@@3PAU_Show_Sell_Item@@A[ecx+4], 0

; 913  : 							ShowSellItem[i+iListStart].price = 0;

  00e7d	8b 45 f4	 mov	 eax, DWORD PTR _i$[ebp]
  00e80	03 05 00 00 00
	00		 add	 eax, DWORD PTR ?iListStart@?1??StreetVendorWndfunc@@YAX_NPAD@Z@4HA
  00e86	6b c8 4c	 imul	 ecx, eax, 76
  00e89	c7 81 08 00 00
	00 00 00 00 00	 mov	 DWORD PTR ?ShowSellItem@@3PAU_Show_Sell_Item@@A[ecx+8], 0

; 914  : 							ShowSellItem[i+iListStart].usage = false;

  00e93	8b 45 f4	 mov	 eax, DWORD PTR _i$[ebp]
  00e96	03 05 00 00 00
	00		 add	 eax, DWORD PTR ?iListStart@?1??StreetVendorWndfunc@@YAX_NPAD@Z@4HA
  00e9c	6b c8 4c	 imul	 ecx, eax, 76
  00e9f	c6 81 0d 00 00
	00 00		 mov	 BYTE PTR ?ShowSellItem@@3PAU_Show_Sell_Item@@A[ecx+13], 0

; 915  : 							ShowSellItem[i+iListStart].kind = -1;

  00ea6	8b 45 f4	 mov	 eax, DWORD PTR _i$[ebp]
  00ea9	03 05 00 00 00
	00		 add	 eax, DWORD PTR ?iListStart@?1??StreetVendorWndfunc@@YAX_NPAD@Z@4HA
  00eaf	6b c8 4c	 imul	 ecx, eax, 76
  00eb2	c6 81 48 00 00
	00 ff		 mov	 BYTE PTR ?ShowSellItem@@3PAU_Show_Sell_Item@@A[ecx+72], -1

; 916  : 							ShowSellItem[i+iListStart].index = -1;

  00eb9	8b 45 f4	 mov	 eax, DWORD PTR _i$[ebp]
  00ebc	03 05 00 00 00
	00		 add	 eax, DWORD PTR ?iListStart@?1??StreetVendorWndfunc@@YAX_NPAD@Z@4HA
  00ec2	6b c8 4c	 imul	 ecx, eax, 76
  00ec5	c7 81 00 00 00
	00 ff ff ff ff	 mov	 DWORD PTR ?ShowSellItem@@3PAU_Show_Sell_Item@@A[ecx], -1

; 917  : 							break;

  00ecf	eb 05		 jmp	 SHORT $LN85@StreetVend
$LN87@StreetVend:

; 918  : 						}
; 919  : 					}
; 920  : 				}

  00ed1	e9 82 fe ff ff	 jmp	 $LN22@StreetVend
$LN85@StreetVend:

; 921  : 			}
; 922  : 			for (j = 0; j < 3; j++)

  00ed6	c7 45 e8 00 00
	00 00		 mov	 DWORD PTR _j$[ebp], 0
  00edd	eb 09		 jmp	 SHORT $LN27@StreetVend
$LN25@StreetVend:
  00edf	8b 45 e8	 mov	 eax, DWORD PTR _j$[ebp]
  00ee2	83 c0 01	 add	 eax, 1
  00ee5	89 45 e8	 mov	 DWORD PTR _j$[ebp], eax
$LN27@StreetVend:
  00ee8	83 7d e8 03	 cmp	 DWORD PTR _j$[ebp], 3
  00eec	0f 8d 7f 02 00
	00		 jge	 $LN26@StreetVend

; 923  : 			{
; 924  : 				for (i = 0; i < 5; i++)

  00ef2	c7 45 f4 00 00
	00 00		 mov	 DWORD PTR _i$[ebp], 0
  00ef9	eb 09		 jmp	 SHORT $LN30@StreetVend
$LN28@StreetVend:
  00efb	8b 45 f4	 mov	 eax, DWORD PTR _i$[ebp]
  00efe	83 c0 01	 add	 eax, 1
  00f01	89 45 f4	 mov	 DWORD PTR _i$[ebp], eax
$LN30@StreetVend:
  00f04	83 7d f4 05	 cmp	 DWORD PTR _i$[ebp], 5
  00f08	0f 8d 5e 02 00
	00		 jge	 $LN29@StreetVend

; 925  : 				{
; 926  : 					itemx = x + 323 + i * 51;

  00f0e	6b 45 f4 33	 imul	 eax, DWORD PTR _i$[ebp], 51
  00f12	8b 4d dc	 mov	 ecx, DWORD PTR _x$[ebp]
  00f15	8d 94 01 43 01
	00 00		 lea	 edx, DWORD PTR [ecx+eax+323]
  00f1c	89 55 c4	 mov	 DWORD PTR _itemx$[ebp], edx

; 927  : 					itemy = y + 247 + j * 48;

  00f1f	6b 45 e8 30	 imul	 eax, DWORD PTR _j$[ebp], 48
  00f23	8b 4d d0	 mov	 ecx, DWORD PTR _y$[ebp]
  00f26	8d 94 01 f7 00
	00 00		 lea	 edx, DWORD PTR [ecx+eax+247]
  00f2d	89 55 b8	 mov	 DWORD PTR _itemy$[ebp], edx

; 928  : 					// [挫挫 氇疙奠 氤挫欤茧 ]
; 929  : 					if (pItem[j * 5 + i + 9].useFlag)

  00f30	6b 45 e8 05	 imul	 eax, DWORD PTR _j$[ebp], 5
  00f34	8b 4d f4	 mov	 ecx, DWORD PTR _i$[ebp]
  00f37	8d 54 08 09	 lea	 edx, DWORD PTR [eax+ecx+9]
  00f3b	69 c2 7c 01 00
	00		 imul	 eax, edx, 380
  00f41	8b 0d 00 00 00
	00		 mov	 ecx, DWORD PTR ?pItem@?1??StreetVendorWndfunc@@YAX_NPAD@Z@4PAUITEM@@A
  00f47	0f bf 94 01 dc
	00 00 00	 movsx	 edx, WORD PTR [ecx+eax+220]
  00f4f	85 d2		 test	 edx, edx
  00f51	74 79		 je	 SHORT $LN93@StreetVend

; 930  : 					{
; 931  : 						if (!bRunSellPrice)

  00f53	0f b6 05 00 00
	00 00		 movzx	 eax, BYTE PTR ?bRunSellPrice@?1??StreetVendorWndfunc@@YAX_NPAD@Z@4_NA
  00f5a	85 c0		 test	 eax, eax
  00f5c	75 38		 jne	 SHORT $LN94@StreetVend

; 932  : 							StockDispBuffer(itemx + 25, itemy + 25, DISP_PRIO_ITEM, pItem[j * 5 + i + 9].graNo, 0);

  00f5e	6a 00		 push	 0
  00f60	6b 45 e8 05	 imul	 eax, DWORD PTR _j$[ebp], 5
  00f64	8b 4d f4	 mov	 ecx, DWORD PTR _i$[ebp]
  00f67	8d 54 08 09	 lea	 edx, DWORD PTR [eax+ecx+9]
  00f6b	69 c2 7c 01 00
	00		 imul	 eax, edx, 380
  00f71	8b 0d 00 00 00
	00		 mov	 ecx, DWORD PTR ?pItem@?1??StreetVendorWndfunc@@YAX_NPAD@Z@4PAUITEM@@A
  00f77	8b 54 01 04	 mov	 edx, DWORD PTR [ecx+eax+4]
  00f7b	52		 push	 edx
  00f7c	6a 6c		 push	 108			; 0000006cH
  00f7e	8b 45 b8	 mov	 eax, DWORD PTR _itemy$[ebp]
  00f81	83 c0 19	 add	 eax, 25			; 00000019H
  00f84	50		 push	 eax
  00f85	8b 4d c4	 mov	 ecx, DWORD PTR _itemx$[ebp]
  00f88	83 c1 19	 add	 ecx, 25			; 00000019H
  00f8b	51		 push	 ecx
  00f8c	e8 00 00 00 00	 call	 ?StockDispBuffer@@YAHHHEHH@Z ; StockDispBuffer
  00f91	83 c4 14	 add	 esp, 20			; 00000014H

; 933  : 						// [臧瓴  瓣 措Μ氅 disp_prio menu搿 れ挫 臧瓴 办 else毳 挫办 .]
; 934  : 						else

  00f94	eb 36		 jmp	 SHORT $LN93@StreetVend
$LN94@StreetVend:

; 935  : 							StockDispBuffer(itemx + 25, itemy + 25, DISP_PRIO_MENU, pItem[j * 5 + i + 9].graNo, 0);

  00f96	6a 00		 push	 0
  00f98	6b 45 e8 05	 imul	 eax, DWORD PTR _j$[ebp], 5
  00f9c	8b 4d f4	 mov	 ecx, DWORD PTR _i$[ebp]
  00f9f	8d 54 08 09	 lea	 edx, DWORD PTR [eax+ecx+9]
  00fa3	69 c2 7c 01 00
	00		 imul	 eax, edx, 380
  00fa9	8b 0d 00 00 00
	00		 mov	 ecx, DWORD PTR ?pItem@?1??StreetVendorWndfunc@@YAX_NPAD@Z@4PAUITEM@@A
  00faf	8b 54 01 04	 mov	 edx, DWORD PTR [ecx+eax+4]
  00fb3	52		 push	 edx
  00fb4	6a 68		 push	 104			; 00000068H
  00fb6	8b 45 b8	 mov	 eax, DWORD PTR _itemy$[ebp]
  00fb9	83 c0 19	 add	 eax, 25			; 00000019H
  00fbc	50		 push	 eax
  00fbd	8b 4d c4	 mov	 ecx, DWORD PTR _itemx$[ebp]
  00fc0	83 c1 19	 add	 ecx, 25			; 00000019H
  00fc3	51		 push	 ecx
  00fc4	e8 00 00 00 00	 call	 ?StockDispBuffer@@YAHHHEHH@Z ; StockDispBuffer
  00fc9	83 c4 14	 add	 esp, 20			; 00000014H
$LN93@StreetVend:

; 936  : 					}
; 937  : 					if (iItemOnSell[j * 5 + i] != -1)

  00fcc	6b 45 e8 05	 imul	 eax, DWORD PTR _j$[ebp], 5
  00fd0	03 45 f4	 add	 eax, DWORD PTR _i$[ebp]
  00fd3	83 3c 85 00 00
	00 00 ff	 cmp	 DWORD PTR ?iItemOnSell@?1??StreetVendorWndfunc@@YAX_NPAD@Z@4PAHA[eax*4], -1
  00fdb	74 2c		 je	 SHORT $LN96@StreetVend

; 938  : 					{
; 939  : 						// [臧瓴  瓣 措Μ氅  歆 ]
; 940  : 						if (!bRunSellPrice)

  00fdd	0f b6 05 00 00
	00 00		 movzx	 eax, BYTE PTR ?bRunSellPrice@?1??StreetVendorWndfunc@@YAX_NPAD@Z@4_NA
  00fe4	85 c0		 test	 eax, eax
  00fe6	75 21		 jne	 SHORT $LN96@StreetVend

; 941  : 							StockFontBuffer(itemx + 25, itemy + 25, FONT_PRIO_FRONT, FONT_PAL_RED, "SELL", 0);

  00fe8	6a 00		 push	 0
  00fea	68 00 00 00 00	 push	 OFFSET ??_C@_04MPOIGBFL@SELL?$AA@
  00fef	6a 06		 push	 6
  00ff1	6a 01		 push	 1
  00ff3	8b 45 b8	 mov	 eax, DWORD PTR _itemy$[ebp]
  00ff6	83 c0 19	 add	 eax, 25			; 00000019H
  00ff9	50		 push	 eax
  00ffa	8b 4d c4	 mov	 ecx, DWORD PTR _itemx$[ebp]
  00ffd	83 c1 19	 add	 ecx, 25			; 00000019H
  01000	51		 push	 ecx
  01001	e8 00 00 00 00	 call	 ?StockFontBuffer@@YAHHHDHPADH@Z ; StockFontBuffer
  01006	83 c4 18	 add	 esp, 24			; 00000018H
$LN96@StreetVend:

; 942  : 					}
; 943  : 					if (!bRunSellPrice)

  01009	0f b6 05 00 00
	00 00		 movzx	 eax, BYTE PTR ?bRunSellPrice@?1??StreetVendorWndfunc@@YAX_NPAD@Z@4_NA
  01010	85 c0		 test	 eax, eax
  01012	0f 85 4f 01 00
	00		 jne	 $LN98@StreetVend

; 944  : 					{
; 945  : 						if (MakeHitBox(itemx, itemy, itemx + 50, itemy + 47, DISP_PRIO_IME3) == TRUE)

  01018	6a 69		 push	 105			; 00000069H
  0101a	8b 45 b8	 mov	 eax, DWORD PTR _itemy$[ebp]
  0101d	83 c0 2f	 add	 eax, 47			; 0000002fH
  01020	50		 push	 eax
  01021	8b 4d c4	 mov	 ecx, DWORD PTR _itemx$[ebp]
  01024	83 c1 32	 add	 ecx, 50			; 00000032H
  01027	51		 push	 ecx
  01028	8b 55 b8	 mov	 edx, DWORD PTR _itemy$[ebp]
  0102b	52		 push	 edx
  0102c	8b 45 c4	 mov	 eax, DWORD PTR _itemx$[ebp]
  0102f	50		 push	 eax
  01030	e8 00 00 00 00	 call	 ?MakeHitBox@@YAHHHHHH@Z	; MakeHitBox
  01035	83 c4 14	 add	 esp, 20			; 00000014H
  01038	83 f8 01	 cmp	 eax, 1
  0103b	0f 85 26 01 00
	00		 jne	 $LN98@StreetVend

; 946  : 						{
; 947  : 							// [ 甑臧 ]
; 948  : 							if (pItem[j * 5 + i + 9].useFlag &&
; 949  : 								// [甑臧 歆 攵毳 ]
; 950  : 								 (mouse.onceState & MOUSE_LEFT_DBL_CRICK) &&

  01041	6b 45 e8 05	 imul	 eax, DWORD PTR _j$[ebp], 5
  01045	8b 4d f4	 mov	 ecx, DWORD PTR _i$[ebp]
  01048	8d 54 08 09	 lea	 edx, DWORD PTR [eax+ecx+9]
  0104c	69 c2 7c 01 00
	00		 imul	 eax, edx, 380
  01052	8b 0d 00 00 00
	00		 mov	 ecx, DWORD PTR ?pItem@?1??StreetVendorWndfunc@@YAX_NPAD@Z@4PAUITEM@@A
  01058	0f bf 94 01 dc
	00 00 00	 movsx	 edx, WORD PTR [ecx+eax+220]
  01060	85 d2		 test	 edx, edx
  01062	0f 84 ff 00 00
	00		 je	 $LN98@StreetVend
  01068	a1 2c 00 00 00	 mov	 eax, DWORD PTR ?mouse@@3UMOUSE@@A+44
  0106d	83 e0 10	 and	 eax, 16			; 00000010H
  01070	0f 84 f1 00 00
	00		 je	 $LN98@StreetVend
  01076	6b 45 e8 05	 imul	 eax, DWORD PTR _j$[ebp], 5
  0107a	03 45 f4	 add	 eax, DWORD PTR _i$[ebp]
  0107d	83 3c 85 00 00
	00 00 ff	 cmp	 DWORD PTR ?iItemOnSell@?1??StreetVendorWndfunc@@YAX_NPAD@Z@4PAHA[eax*4], -1
  01085	0f 85 dc 00 00
	00		 jne	 $LN98@StreetVend

; 951  : 								//  [歆 歆]
; 952  : 								 (iItemOnSell[j * 5 + i] == -1)
; 953  : 								)
; 954  : 							{
; 955  : 								pShowSellItem = GetEmptyShowSellItem(ShowSellItem);

  0108b	68 00 00 00 00	 push	 OFFSET ?ShowSellItem@@3PAU_Show_Sell_Item@@A
  01090	e8 00 00 00 00	 call	 ?GetEmptyShowSellItem@@YAPAU_Show_Sell_Item@@PAU1@@Z ; GetEmptyShowSellItem
  01095	83 c4 04	 add	 esp, 4
  01098	a3 00 00 00 00	 mov	 DWORD PTR ?pShowSellItem@?1??StreetVendorWndfunc@@YAX_NPAD@Z@4PAU_Show_Sell_Item@@A, eax

; 956  : 								// [攴鸽Μ瓿    瓿店 ]
; 957  : 								if (pShowSellItem != NULL)

  0109d	83 3d 00 00 00
	00 00		 cmp	 DWORD PTR ?pShowSellItem@?1??StreetVendorWndfunc@@YAX_NPAD@Z@4PAU_Show_Sell_Item@@A, 0
  010a4	0f 84 bd 00 00
	00		 je	 $LN98@StreetVend

; 958  : 								{
; 959  : 									iItemOnSell[j * 5 + i] = j * 5 + i + 9; //[旮半茧 攴 甑臧 毽 瓴 臧]

  010aa	6b 45 e8 05	 imul	 eax, DWORD PTR _j$[ebp], 5
  010ae	8b 4d f4	 mov	 ecx, DWORD PTR _i$[ebp]
  010b1	8d 54 08 09	 lea	 edx, DWORD PTR [eax+ecx+9]
  010b5	6b 45 e8 05	 imul	 eax, DWORD PTR _j$[ebp], 5
  010b9	03 45 f4	 add	 eax, DWORD PTR _i$[ebp]
  010bc	89 14 85 00 00
	00 00		 mov	 DWORD PTR ?iItemOnSell@?1??StreetVendorWndfunc@@YAX_NPAD@Z@4PAHA[eax*4], edx

; 960  : 									play_se(217,320,240);

  010c3	68 f0 00 00 00	 push	 240			; 000000f0H
  010c8	68 40 01 00 00	 push	 320			; 00000140H
  010cd	68 d9 00 00 00	 push	 217			; 000000d9H
  010d2	e8 00 00 00 00	 call	 ?play_se@@YAHHHH@Z	; play_se
  010d7	83 c4 0c	 add	 esp, 12			; 0000000cH

; 961  : 									bRunSellPrice = true;

  010da	c6 05 00 00 00
	00 01		 mov	 BYTE PTR ?bRunSellPrice@?1??StreetVendorWndfunc@@YAX_NPAD@Z@4_NA, 1

; 962  : 									pShowSellItem->usage = true;

  010e1	a1 00 00 00 00	 mov	 eax, DWORD PTR ?pShowSellItem@?1??StreetVendorWndfunc@@YAX_NPAD@Z@4PAU_Show_Sell_Item@@A
  010e6	c6 40 0d 01	 mov	 BYTE PTR [eax+13], 1

; 963  : 									pShowSellItem->needGetPrice = true;

  010ea	a1 00 00 00 00	 mov	 eax, DWORD PTR ?pShowSellItem@?1??StreetVendorWndfunc@@YAX_NPAD@Z@4PAU_Show_Sell_Item@@A
  010ef	c6 40 0c 01	 mov	 BYTE PTR [eax+12], 1

; 964  : 									sprintf(pShowSellItem->name, "%s", pItem[j * 5 + i + 9].name);

  010f3	6b 45 e8 05	 imul	 eax, DWORD PTR _j$[ebp], 5
  010f7	8b 4d f4	 mov	 ecx, DWORD PTR _i$[ebp]
  010fa	8d 54 08 09	 lea	 edx, DWORD PTR [eax+ecx+9]
  010fe	69 c2 7c 01 00
	00		 imul	 eax, edx, 380
  01104	8b 0d 00 00 00
	00		 mov	 ecx, DWORD PTR ?pItem@?1??StreetVendorWndfunc@@YAX_NPAD@Z@4PAUITEM@@A
  0110a	8d 94 01 e6 00
	00 00		 lea	 edx, DWORD PTR [ecx+eax+230]
  01111	52		 push	 edx
  01112	68 00 00 00 00	 push	 OFFSET ??_C@_02DKCKIIND@?$CFs?$AA@
  01117	a1 00 00 00 00	 mov	 eax, DWORD PTR ?pShowSellItem@?1??StreetVendorWndfunc@@YAX_NPAD@Z@4PAU_Show_Sell_Item@@A
  0111c	83 c0 0e	 add	 eax, 14			; 0000000eH
  0111f	50		 push	 eax
  01120	e8 00 00 00 00	 call	 _sprintf
  01125	83 c4 0c	 add	 esp, 12			; 0000000cH

; 965  : 									pShowSellItem->pile = pItem[j * 5 + i + 9].pile;

  01128	6b 45 e8 05	 imul	 eax, DWORD PTR _j$[ebp], 5
  0112c	8b 4d f4	 mov	 ecx, DWORD PTR _i$[ebp]
  0112f	8d 54 08 09	 lea	 edx, DWORD PTR [eax+ecx+9]
  01133	69 c2 7c 01 00
	00		 imul	 eax, edx, 380
  01139	8b 0d 00 00 00
	00		 mov	 ecx, DWORD PTR ?pShowSellItem@?1??StreetVendorWndfunc@@YAX_NPAD@Z@4PAU_Show_Sell_Item@@A
  0113f	8b 15 00 00 00
	00		 mov	 edx, DWORD PTR ?pItem@?1??StreetVendorWndfunc@@YAX_NPAD@Z@4PAUITEM@@A
  01145	8b 44 02 0c	 mov	 eax, DWORD PTR [edx+eax+12]
  01149	89 41 04	 mov	 DWORD PTR [ecx+4], eax

; 966  : 									pShowSellItem->kind = 0;

  0114c	a1 00 00 00 00	 mov	 eax, DWORD PTR ?pShowSellItem@?1??StreetVendorWndfunc@@YAX_NPAD@Z@4PAU_Show_Sell_Item@@A
  01151	c6 40 48 00	 mov	 BYTE PTR [eax+72], 0

; 967  : 									pShowSellItem->index = j * 5 + i + 9;

  01155	6b 45 e8 05	 imul	 eax, DWORD PTR _j$[ebp], 5
  01159	8b 4d f4	 mov	 ecx, DWORD PTR _i$[ebp]
  0115c	8d 54 08 09	 lea	 edx, DWORD PTR [eax+ecx+9]
  01160	a1 00 00 00 00	 mov	 eax, DWORD PTR ?pShowSellItem@?1??StreetVendorWndfunc@@YAX_NPAD@Z@4PAU_Show_Sell_Item@@A
  01165	89 10		 mov	 DWORD PTR [eax], edx
$LN98@StreetVend:

; 968  : 								}
; 969  : 							}
; 970  : 						}
; 971  : 					}
; 972  : 				}

  01167	e9 8f fd ff ff	 jmp	 $LN28@StreetVend
$LN29@StreetVend:

; 973  : 			}

  0116c	e9 6e fd ff ff	 jmp	 $LN25@StreetVend
$LN26@StreetVend:

; 974  : 			// 鸽炒旮
; 975  : 			for (i = 0; i < MAX_PET; i++){

  01171	c7 45 f4 00 00
	00 00		 mov	 DWORD PTR _i$[ebp], 0
  01178	eb 09		 jmp	 SHORT $LN33@StreetVend
$LN31@StreetVend:
  0117a	8b 45 f4	 mov	 eax, DWORD PTR _i$[ebp]
  0117d	83 c0 01	 add	 eax, 1
  01180	89 45 f4	 mov	 DWORD PTR _i$[ebp], eax
$LN33@StreetVend:
  01183	83 7d f4 05	 cmp	 DWORD PTR _i$[ebp], 5
  01187	0f 8d ca 03 00
	00		 jge	 $LN32@StreetVend

; 976  : 				if (bChangePet && !bRunSellPrice){

  0118d	0f b6 05 00 00
	00 00		 movzx	 eax, BYTE PTR ?bChangePet@?1??StreetVendorWndfunc@@YAX_NPAD@Z@4_NA
  01194	85 c0		 test	 eax, eax
  01196	0f 84 73 01 00
	00		 je	 $LN102@StreetVend
  0119c	0f b6 05 00 00
	00 00		 movzx	 eax, BYTE PTR ?bRunSellPrice@?1??StreetVendorWndfunc@@YAX_NPAD@Z@4_NA
  011a3	85 c0		 test	 eax, eax
  011a5	0f 85 64 01 00
	00		 jne	 $LN102@StreetVend

; 977  : 					// [措瓴 齑毳 氚 瓴 旮办 氚 れ 挫 齑毳 氚 瓴 ]
; 978  : 					if (pet[iShowPet].useFlag == 1 && (pc.ridePetNo != iShowPet) && (pc.mailPetNo != iShowPet)){

  011ab	69 05 00 00 00
	00 20 0b 00 00	 imul	 eax, DWORD PTR ?iShowPet@?1??StreetVendorWndfunc@@YAX_NPAD@Z@4HA, 2848
  011b5	0f bf 88 76 00
	00 00		 movsx	 ecx, WORD PTR ?pet@@3PAUPET@@A[eax+118]
  011bc	83 f9 01	 cmp	 ecx, 1
  011bf	0f 85 81 00 00
	00		 jne	 $LN103@StreetVend
  011c5	a1 18 51 00 00	 mov	 eax, DWORD PTR ?pc@@3UPC@@A+20760
  011ca	3b 05 00 00 00
	00		 cmp	 eax, DWORD PTR ?iShowPet@?1??StreetVendorWndfunc@@YAX_NPAD@Z@4HA
  011d0	74 74		 je	 SHORT $LN103@StreetVend
  011d2	0f bf 05 b6 00
	00 00		 movsx	 eax, WORD PTR ?pc@@3UPC@@A+182
  011d9	3b 05 00 00 00
	00		 cmp	 eax, DWORD PTR ?iShowPet@?1??StreetVendorWndfunc@@YAX_NPAD@Z@4HA
  011df	74 65		 je	 SHORT $LN103@StreetVend

; 979  : 						if (pShowPet != NULL){

  011e1	83 3d 00 00 00
	00 00		 cmp	 DWORD PTR ?pShowPet@@3PAUaction@@A, 0 ; pShowPet
  011e8	74 18		 je	 SHORT $LN105@StreetVend

; 980  : 							DeathAction(pShowPet);

  011ea	a1 00 00 00 00	 mov	 eax, DWORD PTR ?pShowPet@@3PAUaction@@A ; pShowPet
  011ef	50		 push	 eax
  011f0	e8 00 00 00 00	 call	 ?DeathAction@@YAXPAUaction@@@Z ; DeathAction
  011f5	83 c4 04	 add	 esp, 4

; 981  : 							pShowPet = NULL;

  011f8	c7 05 00 00 00
	00 00 00 00 00	 mov	 DWORD PTR ?pShowPet@@3PAUaction@@A, 0 ; pShowPet
$LN105@StreetVend:

; 982  : 						}
; 983  : 						pShowPet = MakeAnimDisp(x + 396, y + 170, pet[iShowPet].graNo, 0);

  01202	6a 00		 push	 0
  01204	69 05 00 00 00
	00 20 0b 00 00	 imul	 eax, DWORD PTR ?iShowPet@?1??StreetVendorWndfunc@@YAX_NPAD@Z@4HA, 2848
  0120e	8b 88 04 00 00
	00		 mov	 ecx, DWORD PTR ?pet@@3PAUPET@@A[eax+4]
  01214	51		 push	 ecx
  01215	8b 55 d0	 mov	 edx, DWORD PTR _y$[ebp]
  01218	81 c2 aa 00 00
	00		 add	 edx, 170		; 000000aaH
  0121e	52		 push	 edx
  0121f	8b 45 dc	 mov	 eax, DWORD PTR _x$[ebp]
  01222	05 8c 01 00 00	 add	 eax, 396		; 0000018cH
  01227	50		 push	 eax
  01228	e8 00 00 00 00	 call	 ?MakeAnimDisp@@YAPAUaction@@HHHH@Z ; MakeAnimDisp
  0122d	83 c4 10	 add	 esp, 16			; 00000010H
  01230	a3 00 00 00 00	 mov	 DWORD PTR ?pShowPet@@3PAUaction@@A, eax ; pShowPet

; 984  : 						bChangePet = false;

  01235	c6 05 00 00 00
	00 00		 mov	 BYTE PTR ?bChangePet@?1??StreetVendorWndfunc@@YAX_NPAD@Z@4_NA, 0

; 985  : 						break;

  0123c	e9 16 03 00 00	 jmp	 $LN32@StreetVend

; 986  : 					}else{

  01241	e9 c9 00 00 00	 jmp	 $LN102@StreetVend
$LN103@StreetVend:

; 987  : 						if (HitDispNo == iBtn[5])

  01246	b8 04 00 00 00	 mov	 eax, 4
  0124b	6b c8 05	 imul	 ecx, eax, 5
  0124e	8b 15 00 00 00
	00		 mov	 edx, DWORD PTR ?HitDispNo@@3HA ; HitDispNo
  01254	3b 91 00 00 00
	00		 cmp	 edx, DWORD PTR ?iBtn@?1??StreetVendorWndfunc@@YAX_NPAD@Z@4PAHA[ecx]
  0125a	75 36		 jne	 SHORT $LN106@StreetVend

; 988  : 							iShowPet = (iShowPet + 1 > 4 ? 0:iShowPet + 1);

  0125c	a1 00 00 00 00	 mov	 eax, DWORD PTR ?iShowPet@?1??StreetVendorWndfunc@@YAX_NPAD@Z@4HA
  01261	83 c0 01	 add	 eax, 1
  01264	83 f8 04	 cmp	 eax, 4
  01267	7e 0c		 jle	 SHORT $LN122@StreetVend
  01269	c7 85 08 f8 ff
	ff 00 00 00 00	 mov	 DWORD PTR tv859[ebp], 0
  01273	eb 0f		 jmp	 SHORT $LN123@StreetVend
$LN122@StreetVend:
  01275	8b 0d 00 00 00
	00		 mov	 ecx, DWORD PTR ?iShowPet@?1??StreetVendorWndfunc@@YAX_NPAD@Z@4HA
  0127b	83 c1 01	 add	 ecx, 1
  0127e	89 8d 08 f8 ff
	ff		 mov	 DWORD PTR tv859[ebp], ecx
$LN123@StreetVend:
  01284	8b 95 08 f8 ff
	ff		 mov	 edx, DWORD PTR tv859[ebp]
  0128a	89 15 00 00 00
	00		 mov	 DWORD PTR ?iShowPet@?1??StreetVendorWndfunc@@YAX_NPAD@Z@4HA, edx
  01290	eb 7d		 jmp	 SHORT $LN102@StreetVend
$LN106@StreetVend:

; 989  : 						else if (HitDispNo == iBtn[6])

  01292	b8 04 00 00 00	 mov	 eax, 4
  01297	6b c8 06	 imul	 ecx, eax, 6
  0129a	8b 15 00 00 00
	00		 mov	 edx, DWORD PTR ?HitDispNo@@3HA ; HitDispNo
  012a0	3b 91 00 00 00
	00		 cmp	 edx, DWORD PTR ?iBtn@?1??StreetVendorWndfunc@@YAX_NPAD@Z@4PAHA[ecx]
  012a6	75 33		 jne	 SHORT $LN108@StreetVend

; 990  : 							iShowPet = (iShowPet - 1 < 0 ? 4:iShowPet - 1);

  012a8	a1 00 00 00 00	 mov	 eax, DWORD PTR ?iShowPet@?1??StreetVendorWndfunc@@YAX_NPAD@Z@4HA
  012ad	83 e8 01	 sub	 eax, 1
  012b0	79 0c		 jns	 SHORT $LN124@StreetVend
  012b2	c7 85 08 f8 ff
	ff 04 00 00 00	 mov	 DWORD PTR tv866[ebp], 4
  012bc	eb 0f		 jmp	 SHORT $LN125@StreetVend
$LN124@StreetVend:
  012be	8b 0d 00 00 00
	00		 mov	 ecx, DWORD PTR ?iShowPet@?1??StreetVendorWndfunc@@YAX_NPAD@Z@4HA
  012c4	83 e9 01	 sub	 ecx, 1
  012c7	89 8d 08 f8 ff
	ff		 mov	 DWORD PTR tv866[ebp], ecx
$LN125@StreetVend:
  012cd	8b 95 08 f8 ff
	ff		 mov	 edx, DWORD PTR tv866[ebp]
  012d3	89 15 00 00 00
	00		 mov	 DWORD PTR ?iShowPet@?1??StreetVendorWndfunc@@YAX_NPAD@Z@4HA, edx

; 991  : 						else

  012d9	eb 34		 jmp	 SHORT $LN102@StreetVend
$LN108@StreetVend:

; 992  : 							iShowPet = (iShowPet + 1 > 4 ? 0:iShowPet + 1);

  012db	a1 00 00 00 00	 mov	 eax, DWORD PTR ?iShowPet@?1??StreetVendorWndfunc@@YAX_NPAD@Z@4HA
  012e0	83 c0 01	 add	 eax, 1
  012e3	83 f8 04	 cmp	 eax, 4
  012e6	7e 0c		 jle	 SHORT $LN126@StreetVend
  012e8	c7 85 08 f8 ff
	ff 00 00 00 00	 mov	 DWORD PTR tv870[ebp], 0
  012f2	eb 0f		 jmp	 SHORT $LN127@StreetVend
$LN126@StreetVend:
  012f4	8b 0d 00 00 00
	00		 mov	 ecx, DWORD PTR ?iShowPet@?1??StreetVendorWndfunc@@YAX_NPAD@Z@4HA
  012fa	83 c1 01	 add	 ecx, 1
  012fd	89 8d 08 f8 ff
	ff		 mov	 DWORD PTR tv870[ebp], ecx
$LN127@StreetVend:
  01303	8b 95 08 f8 ff
	ff		 mov	 edx, DWORD PTR tv870[ebp]
  01309	89 15 00 00 00
	00		 mov	 DWORD PTR ?iShowPet@?1??StreetVendorWndfunc@@YAX_NPAD@Z@4HA, edx
$LN102@StreetVend:

; 993  : 					}
; 994  : 				}
; 995  : 				if (pShowPet != NULL){

  0130f	83 3d 00 00 00
	00 00		 cmp	 DWORD PTR ?pShowPet@@3PAUaction@@A, 0 ; pShowPet
  01316	0f 84 36 02 00
	00		 je	 $LN110@StreetVend

; 996  : 					// 胳氤措炒旮
; 997  : 					if (iPetOnSell[iShowPet] != -1) 

  0131c	a1 00 00 00 00	 mov	 eax, DWORD PTR ?iShowPet@?1??StreetVendorWndfunc@@YAX_NPAD@Z@4HA
  01321	83 3c 85 00 00
	00 00 ff	 cmp	 DWORD PTR ?iPetOnSell@?1??StreetVendorWndfunc@@YAX_NPAD@Z@4PAHA[eax*4], -1
  01329	74 26		 je	 SHORT $LN111@StreetVend

; 998  : 						StockFontBuffer(x + 440, y + 195, FONT_PRIO_FRONT, FONT_PAL_RED, "SELL", 0);

  0132b	6a 00		 push	 0
  0132d	68 00 00 00 00	 push	 OFFSET ??_C@_04MPOIGBFL@SELL?$AA@
  01332	6a 06		 push	 6
  01334	6a 01		 push	 1
  01336	8b 45 d0	 mov	 eax, DWORD PTR _y$[ebp]
  01339	05 c3 00 00 00	 add	 eax, 195		; 000000c3H
  0133e	50		 push	 eax
  0133f	8b 4d dc	 mov	 ecx, DWORD PTR _x$[ebp]
  01342	81 c1 b8 01 00
	00		 add	 ecx, 440		; 000001b8H
  01348	51		 push	 ecx
  01349	e8 00 00 00 00	 call	 ?StockFontBuffer@@YAHHHDHPADH@Z ; StockFontBuffer
  0134e	83 c4 18	 add	 esp, 24			; 00000018H
$LN111@StreetVend:

; 999  : 					// 胳措
; 1000 : 					if (strlen(pet[iShowPet].freeName) > 0)

  01351	69 05 00 00 00
	00 20 0b 00 00	 imul	 eax, DWORD PTR ?iShowPet@?1??StreetVendorWndfunc@@YAX_NPAD@Z@4HA, 2848
  0135b	05 65 00 00 00	 add	 eax, OFFSET ?pet@@3PAUPET@@A+101
  01360	50		 push	 eax
  01361	e8 00 00 00 00	 call	 _strlen
  01366	83 c4 04	 add	 esp, 4
  01369	85 c0		 test	 eax, eax
  0136b	76 31		 jbe	 SHORT $LN112@StreetVend

; 1001 : 						StockFontBuffer(x + 336, y + 28, FONT_PRIO_FRONT, 0, pet[iShowPet].freeName, 0);

  0136d	6a 00		 push	 0
  0136f	69 05 00 00 00
	00 20 0b 00 00	 imul	 eax, DWORD PTR ?iShowPet@?1??StreetVendorWndfunc@@YAX_NPAD@Z@4HA, 2848
  01379	05 65 00 00 00	 add	 eax, OFFSET ?pet@@3PAUPET@@A+101
  0137e	50		 push	 eax
  0137f	6a 00		 push	 0
  01381	6a 01		 push	 1
  01383	8b 4d d0	 mov	 ecx, DWORD PTR _y$[ebp]
  01386	83 c1 1c	 add	 ecx, 28			; 0000001cH
  01389	51		 push	 ecx
  0138a	8b 55 dc	 mov	 edx, DWORD PTR _x$[ebp]
  0138d	81 c2 50 01 00
	00		 add	 edx, 336		; 00000150H
  01393	52		 push	 edx
  01394	e8 00 00 00 00	 call	 ?StockFontBuffer@@YAHHHDHPADH@Z ; StockFontBuffer
  01399	83 c4 18	 add	 esp, 24			; 00000018H

; 1002 : 					else 

  0139c	eb 2f		 jmp	 SHORT $LN113@StreetVend
$LN112@StreetVend:

; 1003 : 						StockFontBuffer(x + 336, y + 28, FONT_PRIO_FRONT, 0, pet[iShowPet].name, 0);

  0139e	6a 00		 push	 0
  013a0	69 05 00 00 00
	00 20 0b 00 00	 imul	 eax, DWORD PTR ?iShowPet@?1??StreetVendorWndfunc@@YAX_NPAD@Z@4HA, 2848
  013aa	05 54 00 00 00	 add	 eax, OFFSET ?pet@@3PAUPET@@A+84
  013af	50		 push	 eax
  013b0	6a 00		 push	 0
  013b2	6a 01		 push	 1
  013b4	8b 4d d0	 mov	 ecx, DWORD PTR _y$[ebp]
  013b7	83 c1 1c	 add	 ecx, 28			; 0000001cH
  013ba	51		 push	 ecx
  013bb	8b 55 dc	 mov	 edx, DWORD PTR _x$[ebp]
  013be	81 c2 50 01 00
	00		 add	 edx, 336		; 00000150H
  013c4	52		 push	 edx
  013c5	e8 00 00 00 00	 call	 ?StockFontBuffer@@YAHHHDHPADH@Z ; StockFontBuffer
  013ca	83 c4 18	 add	 esp, 24			; 00000018H
$LN113@StreetVend:

; 1004 : 					// 胳彪炒旮
; 1005 : 					itoa(pet[iShowPet].level, temp, 10);

  013cd	8b f4		 mov	 esi, esp
  013cf	6a 0a		 push	 10			; 0000000aH
  013d1	8d 45 9c	 lea	 eax, DWORD PTR _temp$[ebp]
  013d4	50		 push	 eax
  013d5	69 0d 00 00 00
	00 20 0b 00 00	 imul	 ecx, DWORD PTR ?iShowPet@?1??StreetVendorWndfunc@@YAX_NPAD@Z@4HA, 2848
  013df	8b 91 20 00 00
	00		 mov	 edx, DWORD PTR ?pet@@3PAUPET@@A[ecx+32]
  013e5	52		 push	 edx
  013e6	ff 15 00 00 00
	00		 call	 DWORD PTR __imp__itoa
  013ec	83 c4 0c	 add	 esp, 12			; 0000000cH
  013ef	3b f4		 cmp	 esi, esp
  013f1	e8 00 00 00 00	 call	 __RTC_CheckEsp

; 1006 : 					StockFontBuffer(x + 542, y + 92    , FONT_PRIO_FRONT, FONT_PAL_WHITE, temp, 0);

  013f6	6a 00		 push	 0
  013f8	8d 45 9c	 lea	 eax, DWORD PTR _temp$[ebp]
  013fb	50		 push	 eax
  013fc	6a 00		 push	 0
  013fe	6a 01		 push	 1
  01400	8b 4d d0	 mov	 ecx, DWORD PTR _y$[ebp]
  01403	83 c1 5c	 add	 ecx, 92			; 0000005cH
  01406	51		 push	 ecx
  01407	8b 55 dc	 mov	 edx, DWORD PTR _x$[ebp]
  0140a	81 c2 1e 02 00
	00		 add	 edx, 542		; 0000021eH
  01410	52		 push	 edx
  01411	e8 00 00 00 00	 call	 ?StockFontBuffer@@YAHHHDHPADH@Z ; StockFontBuffer
  01416	83 c4 18	 add	 esp, 24			; 00000018H

; 1007 : 					itoa(pet[iShowPet].atk, temp, 10);

  01419	8b f4		 mov	 esi, esp
  0141b	6a 0a		 push	 10			; 0000000aH
  0141d	8d 45 9c	 lea	 eax, DWORD PTR _temp$[ebp]
  01420	50		 push	 eax
  01421	69 0d 00 00 00
	00 20 0b 00 00	 imul	 ecx, DWORD PTR ?iShowPet@?1??StreetVendorWndfunc@@YAX_NPAD@Z@4HA, 2848
  0142b	8b 91 24 00 00
	00		 mov	 edx, DWORD PTR ?pet@@3PAUPET@@A[ecx+36]
  01431	52		 push	 edx
  01432	ff 15 00 00 00
	00		 call	 DWORD PTR __imp__itoa
  01438	83 c4 0c	 add	 esp, 12			; 0000000cH
  0143b	3b f4		 cmp	 esi, esp
  0143d	e8 00 00 00 00	 call	 __RTC_CheckEsp

; 1008 : 					StockFontBuffer(x + 542, y + 92 + 25, FONT_PRIO_FRONT, FONT_PAL_WHITE, temp, 0);

  01442	6a 00		 push	 0
  01444	8d 45 9c	 lea	 eax, DWORD PTR _temp$[ebp]
  01447	50		 push	 eax
  01448	6a 00		 push	 0
  0144a	6a 01		 push	 1
  0144c	8b 4d d0	 mov	 ecx, DWORD PTR _y$[ebp]
  0144f	83 c1 75	 add	 ecx, 117		; 00000075H
  01452	51		 push	 ecx
  01453	8b 55 dc	 mov	 edx, DWORD PTR _x$[ebp]
  01456	81 c2 1e 02 00
	00		 add	 edx, 542		; 0000021eH
  0145c	52		 push	 edx
  0145d	e8 00 00 00 00	 call	 ?StockFontBuffer@@YAHHHDHPADH@Z ; StockFontBuffer
  01462	83 c4 18	 add	 esp, 24			; 00000018H

; 1009 : 					itoa(pet[iShowPet].def, temp, 10);

  01465	8b f4		 mov	 esi, esp
  01467	6a 0a		 push	 10			; 0000000aH
  01469	8d 45 9c	 lea	 eax, DWORD PTR _temp$[ebp]
  0146c	50		 push	 eax
  0146d	69 0d 00 00 00
	00 20 0b 00 00	 imul	 ecx, DWORD PTR ?iShowPet@?1??StreetVendorWndfunc@@YAX_NPAD@Z@4HA, 2848
  01477	8b 91 28 00 00
	00		 mov	 edx, DWORD PTR ?pet@@3PAUPET@@A[ecx+40]
  0147d	52		 push	 edx
  0147e	ff 15 00 00 00
	00		 call	 DWORD PTR __imp__itoa
  01484	83 c4 0c	 add	 esp, 12			; 0000000cH
  01487	3b f4		 cmp	 esi, esp
  01489	e8 00 00 00 00	 call	 __RTC_CheckEsp

; 1010 : 					StockFontBuffer(x + 542, y + 92 + 50, FONT_PRIO_FRONT, FONT_PAL_WHITE, temp, 0);

  0148e	6a 00		 push	 0
  01490	8d 45 9c	 lea	 eax, DWORD PTR _temp$[ebp]
  01493	50		 push	 eax
  01494	6a 00		 push	 0
  01496	6a 01		 push	 1
  01498	8b 4d d0	 mov	 ecx, DWORD PTR _y$[ebp]
  0149b	81 c1 8e 00 00
	00		 add	 ecx, 142		; 0000008eH
  014a1	51		 push	 ecx
  014a2	8b 55 dc	 mov	 edx, DWORD PTR _x$[ebp]
  014a5	81 c2 1e 02 00
	00		 add	 edx, 542		; 0000021eH
  014ab	52		 push	 edx
  014ac	e8 00 00 00 00	 call	 ?StockFontBuffer@@YAHHHDHPADH@Z ; StockFontBuffer
  014b1	83 c4 18	 add	 esp, 24			; 00000018H

; 1011 : 					itoa(pet[iShowPet].quick, temp, 10);

  014b4	8b f4		 mov	 esi, esp
  014b6	6a 0a		 push	 10			; 0000000aH
  014b8	8d 45 9c	 lea	 eax, DWORD PTR _temp$[ebp]
  014bb	50		 push	 eax
  014bc	69 0d 00 00 00
	00 20 0b 00 00	 imul	 ecx, DWORD PTR ?iShowPet@?1??StreetVendorWndfunc@@YAX_NPAD@Z@4HA, 2848
  014c6	8b 91 2c 00 00
	00		 mov	 edx, DWORD PTR ?pet@@3PAUPET@@A[ecx+44]
  014cc	52		 push	 edx
  014cd	ff 15 00 00 00
	00		 call	 DWORD PTR __imp__itoa
  014d3	83 c4 0c	 add	 esp, 12			; 0000000cH
  014d6	3b f4		 cmp	 esi, esp
  014d8	e8 00 00 00 00	 call	 __RTC_CheckEsp

; 1012 : 					StockFontBuffer(x + 542, y + 92 + 73, FONT_PRIO_FRONT, FONT_PAL_WHITE, temp, 0);

  014dd	6a 00		 push	 0
  014df	8d 45 9c	 lea	 eax, DWORD PTR _temp$[ebp]
  014e2	50		 push	 eax
  014e3	6a 00		 push	 0
  014e5	6a 01		 push	 1
  014e7	8b 4d d0	 mov	 ecx, DWORD PTR _y$[ebp]
  014ea	81 c1 a5 00 00
	00		 add	 ecx, 165		; 000000a5H
  014f0	51		 push	 ecx
  014f1	8b 55 dc	 mov	 edx, DWORD PTR _x$[ebp]
  014f4	81 c2 1e 02 00
	00		 add	 edx, 542		; 0000021eH
  014fa	52		 push	 edx
  014fb	e8 00 00 00 00	 call	 ?StockFontBuffer@@YAHHHDHPADH@Z ; StockFontBuffer
  01500	83 c4 18	 add	 esp, 24			; 00000018H

; 1013 : 					itoa(pet[iShowPet].maxHp, temp, 10);

  01503	8b f4		 mov	 esi, esp
  01505	6a 0a		 push	 10			; 0000000aH
  01507	8d 45 9c	 lea	 eax, DWORD PTR _temp$[ebp]
  0150a	50		 push	 eax
  0150b	69 0d 00 00 00
	00 20 0b 00 00	 imul	 ecx, DWORD PTR ?iShowPet@?1??StreetVendorWndfunc@@YAX_NPAD@Z@4HA, 2848
  01515	8b 91 0c 00 00
	00		 mov	 edx, DWORD PTR ?pet@@3PAUPET@@A[ecx+12]
  0151b	52		 push	 edx
  0151c	ff 15 00 00 00
	00		 call	 DWORD PTR __imp__itoa
  01522	83 c4 0c	 add	 esp, 12			; 0000000cH
  01525	3b f4		 cmp	 esi, esp
  01527	e8 00 00 00 00	 call	 __RTC_CheckEsp

; 1014 : 					StockFontBuffer(x + 542, y + 92 + 97, FONT_PRIO_FRONT, FONT_PAL_WHITE, temp, 0);

  0152c	6a 00		 push	 0
  0152e	8d 45 9c	 lea	 eax, DWORD PTR _temp$[ebp]
  01531	50		 push	 eax
  01532	6a 00		 push	 0
  01534	6a 01		 push	 1
  01536	8b 4d d0	 mov	 ecx, DWORD PTR _y$[ebp]
  01539	81 c1 bd 00 00
	00		 add	 ecx, 189		; 000000bdH
  0153f	51		 push	 ecx
  01540	8b 55 dc	 mov	 edx, DWORD PTR _x$[ebp]
  01543	81 c2 1e 02 00
	00		 add	 edx, 542		; 0000021eH
  01549	52		 push	 edx
  0154a	e8 00 00 00 00	 call	 ?StockFontBuffer@@YAHHHDHPADH@Z ; StockFontBuffer
  0154f	83 c4 18	 add	 esp, 24			; 00000018H
$LN110@StreetVend:

; 1015 : 				}
; 1016 : 			}

  01552	e9 23 fc ff ff	 jmp	 $LN31@StreetVend
$LN32@StreetVend:

; 1017 : 			// [氇胳 齑臧 .]
; 1018 : 			if (i == MAX_PET && bChangePet){

  01557	83 7d f4 05	 cmp	 DWORD PTR _i$[ebp], 5
  0155b	75 33		 jne	 SHORT $LN114@StreetVend
  0155d	0f b6 05 00 00
	00 00		 movzx	 eax, BYTE PTR ?bChangePet@?1??StreetVendorWndfunc@@YAX_NPAD@Z@4_NA
  01564	85 c0		 test	 eax, eax
  01566	74 28		 je	 SHORT $LN114@StreetVend

; 1019 : 				bChangePet = false;

  01568	c6 05 00 00 00
	00 00		 mov	 BYTE PTR ?bChangePet@?1??StreetVendorWndfunc@@YAX_NPAD@Z@4_NA, 0

; 1020 : 				if (pShowPet != NULL){

  0156f	83 3d 00 00 00
	00 00		 cmp	 DWORD PTR ?pShowPet@@3PAUaction@@A, 0 ; pShowPet
  01576	74 18		 je	 SHORT $LN114@StreetVend

; 1021 : 					DeathAction(pShowPet);

  01578	a1 00 00 00 00	 mov	 eax, DWORD PTR ?pShowPet@@3PAUaction@@A ; pShowPet
  0157d	50		 push	 eax
  0157e	e8 00 00 00 00	 call	 ?DeathAction@@YAXPAUaction@@@Z ; DeathAction
  01583	83 c4 04	 add	 esp, 4

; 1022 : 					pShowPet = NULL;

  01586	c7 05 00 00 00
	00 00 00 00 00	 mov	 DWORD PTR ?pShowPet@@3PAUaction@@A, 0 ; pShowPet
$LN114@StreetVend:

; 1023 : 				}
; 1024 : 			}
; 1025 : 			// [毵办る 氇甑 挫 ]
; 1026 : 			if (MakeHitBox(str_bufferVendorName.x, str_bufferVendorName.y, str_bufferVendorName.x + 250,
; 1027 : 						   str_bufferVendorName.y + 24, DISP_PRIO_BOX2) == TRUE)

  01590	6a 6b		 push	 107			; 0000006bH
  01592	a1 10 01 00 00	 mov	 eax, DWORD PTR ?str_bufferVendorName@@3USTR_BUFFER@@A+272
  01597	83 c0 18	 add	 eax, 24			; 00000018H
  0159a	50		 push	 eax
  0159b	8b 0d 0c 01 00
	00		 mov	 ecx, DWORD PTR ?str_bufferVendorName@@3USTR_BUFFER@@A+268
  015a1	81 c1 fa 00 00
	00		 add	 ecx, 250		; 000000faH
  015a7	51		 push	 ecx
  015a8	8b 15 10 01 00
	00		 mov	 edx, DWORD PTR ?str_bufferVendorName@@3USTR_BUFFER@@A+272
  015ae	52		 push	 edx
  015af	a1 0c 01 00 00	 mov	 eax, DWORD PTR ?str_bufferVendorName@@3USTR_BUFFER@@A+268
  015b4	50		 push	 eax
  015b5	e8 00 00 00 00	 call	 ?MakeHitBox@@YAHHHHHH@Z	; MakeHitBox
  015ba	83 c4 14	 add	 esp, 20			; 00000014H
  015bd	83 f8 01	 cmp	 eax, 1
  015c0	75 0d		 jne	 SHORT $LN116@StreetVend

; 1028 : 				GetKeyInputFocus(&str_bufferVendorName);

  015c2	68 00 00 00 00	 push	 OFFSET ?str_bufferVendorName@@3USTR_BUFFER@@A ; str_bufferVendorName
  015c7	e8 00 00 00 00	 call	 ?GetKeyInputFocus@@YAXPAUSTR_BUFFER@@@Z ; GetKeyInputFocus
  015cc	83 c4 04	 add	 esp, 4
$LN116@StreetVend:

; 1029 : 			CheckSpace(str_bufferVendorName.buffer);

  015cf	68 00 00 00 00	 push	 OFFSET ?str_bufferVendorName@@3USTR_BUFFER@@A ; str_bufferVendorName
  015d4	e8 00 00 00 00	 call	 ?CheckSpace@@YAXPAD@Z	; CheckSpace
  015d9	83 c4 04	 add	 esp, 4

; 1030 : 			// 措
; 1031 : 			StockFontBuffer2(&str_bufferVendorName);

  015dc	68 00 00 00 00	 push	 OFFSET ?str_bufferVendorName@@3USTR_BUFFER@@A ; str_bufferVendorName
  015e1	e8 00 00 00 00	 call	 ?StockFontBuffer2@@YAXPAUSTR_BUFFER@@@Z ; StockFontBuffer2
  015e6	83 c4 04	 add	 esp, 4

; 1032 : 			StockDispBuffer(((WINDOW_DISP *)pActStreetVendorWnd->pYobi)->mx,

  015e9	6a 01		 push	 1
  015eb	a1 00 00 00 00	 mov	 eax, DWORD PTR ?CG_FIELD_SV_SELL_PANEL@@3HA ; CG_FIELD_SV_SELL_PANEL
  015f0	50		 push	 eax
  015f1	6a 68		 push	 104			; 00000068H
  015f3	8b 0d 00 00 00
	00		 mov	 ecx, DWORD PTR ?pActStreetVendorWnd@@3PAUaction@@A ; pActStreetVendorWnd
  015f9	8b 51 0c	 mov	 edx, DWORD PTR [ecx+12]
  015fc	8b 42 18	 mov	 eax, DWORD PTR [edx+24]
  015ff	50		 push	 eax
  01600	8b 0d 00 00 00
	00		 mov	 ecx, DWORD PTR ?pActStreetVendorWnd@@3PAUaction@@A ; pActStreetVendorWnd
  01606	8b 51 0c	 mov	 edx, DWORD PTR [ecx+12]
  01609	8b 42 14	 mov	 eax, DWORD PTR [edx+20]
  0160c	50		 push	 eax
  0160d	e8 00 00 00 00	 call	 ?StockDispBuffer@@YAHHHEHH@Z ; StockDispBuffer
  01612	83 c4 14	 add	 esp, 20			; 00000014H
$LN1@StreetVend:

; 1033 : 							((WINDOW_DISP *)pActStreetVendorWnd->pYobi)->my,
; 1034 : 							DISP_PRIO_MENU, CG_FIELD_SV_SELL_PANEL, 1);
; 1035 : 		}
; 1036 : 	}
; 1037 : }

  01615	52		 push	 edx
  01616	8b cd		 mov	 ecx, ebp
  01618	50		 push	 eax
  01619	8d 15 00 00 00
	00		 lea	 edx, DWORD PTR $LN135@StreetVend
  0161f	e8 00 00 00 00	 call	 @_RTC_CheckStackVars@8
  01624	58		 pop	 eax
  01625	5a		 pop	 edx
  01626	5f		 pop	 edi
  01627	5e		 pop	 esi
  01628	5b		 pop	 ebx
  01629	8b 4d fc	 mov	 ecx, DWORD PTR __$ArrayPad$[ebp]
  0162c	33 cd		 xor	 ecx, ebp
  0162e	e8 00 00 00 00	 call	 @__security_check_cookie@4
  01633	81 c4 f8 07 00
	00		 add	 esp, 2040		; 000007f8H
  01639	3b ec		 cmp	 ebp, esp
  0163b	e8 00 00 00 00	 call	 __RTC_CheckEsp
  01640	8b e5		 mov	 esp, ebp
  01642	5d		 pop	 ebp
  01643	c3		 ret	 0
$LN135@StreetVend:
  01644	06 00 00 00	 DD	 6
  01648	00 00 00 00	 DD	 $LN134@StreetVend
$LN134@StreetVend:
  0164c	9c ff ff ff	 DD	 -100			; ffffff9cH
  01650	08 00 00 00	 DD	 8
  01654	00 00 00 00	 DD	 $LN128@StreetVend
  01658	14 ff ff ff	 DD	 -236			; ffffff14H
  0165c	80 00 00 00	 DD	 128			; 00000080H
  01660	00 00 00 00	 DD	 $LN129@StreetVend
  01664	b8 fc ff ff	 DD	 -840			; fffffcb8H
  01668	00 02 00 00	 DD	 512			; 00000200H
  0166c	00 00 00 00	 DD	 $LN130@StreetVend
  01670	b0 fa ff ff	 DD	 -1360			; fffffab0H
  01674	00 02 00 00	 DD	 512			; 00000200H
  01678	00 00 00 00	 DD	 $LN131@StreetVend
  0167c	98 fa ff ff	 DD	 -1384			; fffffa98H
  01680	10 00 00 00	 DD	 16			; 00000010H
  01684	00 00 00 00	 DD	 $LN132@StreetVend
  01688	50 fa ff ff	 DD	 -1456			; fffffa50H
  0168c	40 00 00 00	 DD	 64			; 00000040H
  01690	00 00 00 00	 DD	 $LN133@StreetVend
$LN133@StreetVend:
  01694	62		 DB	 98			; 00000062H
  01695	75		 DB	 117			; 00000075H
  01696	66		 DB	 102			; 00000066H
  01697	00		 DB	 0
$LN132@StreetVend:
  01698	73		 DB	 115			; 00000073H
  01699	7a		 DB	 122			; 0000007aH
  0169a	54		 DB	 84			; 00000054H
  0169b	65		 DB	 101			; 00000065H
  0169c	6d		 DB	 109			; 0000006dH
  0169d	70		 DB	 112			; 00000070H
  0169e	31		 DB	 49			; 00000031H
  0169f	00		 DB	 0
$LN131@StreetVend:
  016a0	73		 DB	 115			; 00000073H
  016a1	7a		 DB	 122			; 0000007aH
  016a2	54		 DB	 84			; 00000054H
  016a3	65		 DB	 101			; 00000065H
  016a4	6d		 DB	 109			; 0000006dH
  016a5	70		 DB	 112			; 00000070H
  016a6	00		 DB	 0
$LN130@StreetVend:
  016a7	73		 DB	 115			; 00000073H
  016a8	7a		 DB	 122			; 0000007aH
  016a9	4d		 DB	 77			; 0000004dH
  016aa	73		 DB	 115			; 00000073H
  016ab	67		 DB	 103			; 00000067H
  016ac	00		 DB	 0
$LN129@StreetVend:
  016ad	73		 DB	 115			; 00000073H
  016ae	7a		 DB	 122			; 0000007aH
  016af	4d		 DB	 77			; 0000004dH
  016b0	73		 DB	 115			; 00000073H
  016b1	67		 DB	 103			; 00000067H
  016b2	00		 DB	 0
$LN128@StreetVend:
  016b3	74		 DB	 116			; 00000074H
  016b4	65		 DB	 101			; 00000065H
  016b5	6d		 DB	 109			; 0000006dH
  016b6	70		 DB	 112			; 00000070H
  016b7	00		 DB	 0
$LN136@StreetVend:
  016b8	00 00 00 00	 DD	 $LN59@StreetVend
  016bc	00 00 00 00	 DD	 $LN70@StreetVend
  016c0	00 00 00 00	 DD	 $LN74@StreetVend
  016c4	00 00 00 00	 DD	 $LN76@StreetVend
  016c8	00 00 00 00	 DD	 $LN78@StreetVend
  016cc	00 00 00 00	 DD	 $LN81@StreetVend
  016d0	00 00 00 00	 DD	 $LN83@StreetVend
?StreetVendorWndfunc@@YAX_NPAD@Z ENDP			; StreetVendorWndfunc
_TEXT	ENDS
; Function compile flags: /Odtp /RTCsu /ZI
; File c:\users\administrator\desktop\????? ??\????? ??\client source code\system\field.cpp
;	COMDAT ?GetEmptyShowSellItem@@YAPAU_Show_Sell_Item@@PAU1@@Z
_TEXT	SEGMENT
_i$1 = -8						; size = 4
_ShowSellItem$ = 8					; size = 4
?GetEmptyShowSellItem@@YAPAU_Show_Sell_Item@@PAU1@@Z PROC ; GetEmptyShowSellItem, COMDAT

; 571  : {

  00000	55		 push	 ebp
  00001	8b ec		 mov	 ebp, esp
  00003	81 ec cc 00 00
	00		 sub	 esp, 204		; 000000ccH
  00009	53		 push	 ebx
  0000a	56		 push	 esi
  0000b	57		 push	 edi
  0000c	8d bd 34 ff ff
	ff		 lea	 edi, DWORD PTR [ebp-204]
  00012	b9 33 00 00 00	 mov	 ecx, 51			; 00000033H
  00017	b8 cc cc cc cc	 mov	 eax, -858993460		; ccccccccH
  0001c	f3 ab		 rep stosd

; 572  : 	for (int i = 0; i < MAX_SELL_ITEM; i++)

  0001e	c7 45 f8 00 00
	00 00		 mov	 DWORD PTR _i$1[ebp], 0
  00025	eb 09		 jmp	 SHORT $LN4@GetEmptySh
$LN2@GetEmptySh:
  00027	8b 45 f8	 mov	 eax, DWORD PTR _i$1[ebp]
  0002a	83 c0 01	 add	 eax, 1
  0002d	89 45 f8	 mov	 DWORD PTR _i$1[ebp], eax
$LN4@GetEmptySh:
  00030	83 7d f8 14	 cmp	 DWORD PTR _i$1[ebp], 20	; 00000014H
  00034	7d 1b		 jge	 SHORT $LN3@GetEmptySh

; 573  : 	{
; 574  : 		if (ShowSellItem[i].usage == false)

  00036	6b 45 f8 4c	 imul	 eax, DWORD PTR _i$1[ebp], 76
  0003a	8b 4d 08	 mov	 ecx, DWORD PTR _ShowSellItem$[ebp]
  0003d	0f b6 54 01 0d	 movzx	 edx, BYTE PTR [ecx+eax+13]
  00042	85 d2		 test	 edx, edx
  00044	75 09		 jne	 SHORT $LN5@GetEmptySh

; 575  : 			return ShowSellItem + i;

  00046	6b 45 f8 4c	 imul	 eax, DWORD PTR _i$1[ebp], 76
  0004a	03 45 08	 add	 eax, DWORD PTR _ShowSellItem$[ebp]
  0004d	eb 04		 jmp	 SHORT $LN1@GetEmptySh
$LN5@GetEmptySh:

; 576  : 	}

  0004f	eb d6		 jmp	 SHORT $LN2@GetEmptySh
$LN3@GetEmptySh:

; 577  : 	return NULL;

  00051	33 c0		 xor	 eax, eax
$LN1@GetEmptySh:

; 578  : }

  00053	5f		 pop	 edi
  00054	5e		 pop	 esi
  00055	5b		 pop	 ebx
  00056	8b e5		 mov	 esp, ebp
  00058	5d		 pop	 ebp
  00059	c3		 ret	 0
?GetEmptyShowSellItem@@YAPAU_Show_Sell_Item@@PAU1@@Z ENDP ; GetEmptyShowSellItem
_TEXT	ENDS
; Function compile flags: /Odtp /RTCsu /ZI
; File c:\users\administrator\desktop\????? ??\????? ??\client source code\system\field.cpp
;	COMDAT ?SellPriceWndfunc@@YAHXZ
_TEXT	SEGMENT
_iConfirm$ = -32					; size = 4
_y$ = -20						; size = 4
_x$ = -8						; size = 4
?SellPriceWndfunc@@YAHXZ PROC				; SellPriceWndfunc, COMDAT

; 511  : {

  00000	55		 push	 ebp
  00001	8b ec		 mov	 ebp, esp
  00003	81 ec e4 00 00
	00		 sub	 esp, 228		; 000000e4H
  00009	53		 push	 ebx
  0000a	56		 push	 esi
  0000b	57		 push	 edi
  0000c	8d bd 1c ff ff
	ff		 lea	 edi, DWORD PTR [ebp-228]
  00012	b9 39 00 00 00	 mov	 ecx, 57			; 00000039H
  00017	b8 cc cc cc cc	 mov	 eax, -858993460		; ccccccccH
  0001c	f3 ab		 rep stosd

; 512  : 	static STR_BUFFER str_bufferMoney;		// [毵り瓴 ル, 斓 觳毵措.]
; 513  : 	int x,y,iConfirm;
; 514  : 
; 515  : 	if (pActSellPriceWnd == NULL)

  0001e	83 3d 00 00 00
	00 00		 cmp	 DWORD PTR ?pActSellPriceWnd@@3PAUaction@@A, 0
  00025	0f 85 a6 00 00
	00		 jne	 $LN2@SellPriceW

; 516  : 	{
; 517  : 		pActSellPriceWnd = MakeWindowDisp((DEF_APPSIZEX >> 1) - (106 >> 1) + 10, 350,

  0002b	6a ff		 push	 -1
  0002d	a1 00 00 00 00	 mov	 eax, DWORD PTR ?CG_FIELD_SV_SELL_PRICE_PANEL@@3HA ; CG_FIELD_SV_SELL_PRICE_PANEL
  00032	50		 push	 eax
  00033	6a 50		 push	 80			; 00000050H
  00035	6a 6a		 push	 106			; 0000006aH
  00037	68 5e 01 00 00	 push	 350			; 0000015eH
  0003c	8b 0d 00 00 00
	00		 mov	 ecx, DWORD PTR ?DEF_APPSIZEX@@3HA ; DEF_APPSIZEX
  00042	d1 f9		 sar	 ecx, 1
  00044	83 e9 2b	 sub	 ecx, 43			; 0000002bH
  00047	51		 push	 ecx
  00048	e8 00 00 00 00	 call	 ?MakeWindowDisp@@YAPAUaction@@HHHHHH@Z ; MakeWindowDisp
  0004d	83 c4 18	 add	 esp, 24			; 00000018H
  00050	a3 00 00 00 00	 mov	 DWORD PTR ?pActSellPriceWnd@@3PAUaction@@A, eax

; 518  : 										  106, 80, CG_FIELD_SV_SELL_PRICE_PANEL, -1);
; 519  : 		//[毵り瓴╇胳齑旮绊]
; 520  : 		ZeroMemory(str_bufferMoney.buffer, sizeof(str_bufferMoney.buffer));

  00055	68 04 01 00 00	 push	 260			; 00000104H
  0005a	6a 00		 push	 0
  0005c	68 00 00 00 00	 push	 OFFSET ?str_bufferMoney@?1??SellPriceWndfunc@@YAHXZ@4USTR_BUFFER@@A
  00061	e8 00 00 00 00	 call	 _memset
  00066	83 c4 0c	 add	 esp, 12			; 0000000cH

; 521  : 		str_bufferMoney.cnt      = 0;

  00069	c6 05 07 01 00
	00 00		 mov	 BYTE PTR ?str_bufferMoney@?1??SellPriceWndfunc@@YAHXZ@4USTR_BUFFER@@A+263, 0

; 522  : 		str_bufferMoney.cursor   = 0;

  00070	c6 05 09 01 00
	00 00		 mov	 BYTE PTR ?str_bufferMoney@?1??SellPriceWndfunc@@YAHXZ@4USTR_BUFFER@@A+265, 0

; 523  : 		str_bufferMoney.color	 = 0;

  00077	c6 05 08 01 00
	00 00		 mov	 BYTE PTR ?str_bufferMoney@?1??SellPriceWndfunc@@YAHXZ@4USTR_BUFFER@@A+264, 0

; 524  : 		str_bufferMoney.len      = 8;

  0007e	c6 05 04 01 00
	00 08		 mov	 BYTE PTR ?str_bufferMoney@?1??SellPriceWndfunc@@YAHXZ@4USTR_BUFFER@@A+260, 8

; 525  : 		str_bufferMoney.lineLen  = 8;

  00085	c6 05 05 01 00
	00 08		 mov	 BYTE PTR ?str_bufferMoney@?1??SellPriceWndfunc@@YAHXZ@4USTR_BUFFER@@A+261, 8

; 526  : 		str_bufferMoney.lineDist = 0;

  0008c	c6 05 06 01 00
	00 00		 mov	 BYTE PTR ?str_bufferMoney@?1??SellPriceWndfunc@@YAHXZ@4USTR_BUFFER@@A+262, 0

; 527  : 		str_bufferMoney.x		 = pActSellPriceWnd->x + 10;

  00093	a1 00 00 00 00	 mov	 eax, DWORD PTR ?pActSellPriceWnd@@3PAUaction@@A
  00098	8b 48 18	 mov	 ecx, DWORD PTR [eax+24]
  0009b	83 c1 0a	 add	 ecx, 10			; 0000000aH
  0009e	89 0d 0c 01 00
	00		 mov	 DWORD PTR ?str_bufferMoney@?1??SellPriceWndfunc@@YAHXZ@4USTR_BUFFER@@A+268, ecx

; 528  : 		str_bufferMoney.y		 = pActSellPriceWnd->y + 28;

  000a4	a1 00 00 00 00	 mov	 eax, DWORD PTR ?pActSellPriceWnd@@3PAUaction@@A
  000a9	8b 48 1c	 mov	 ecx, DWORD PTR [eax+28]
  000ac	83 c1 1c	 add	 ecx, 28			; 0000001cH
  000af	89 0d 10 01 00
	00		 mov	 DWORD PTR ?str_bufferMoney@?1??SellPriceWndfunc@@YAHXZ@4USTR_BUFFER@@A+272, ecx

; 529  : 		str_bufferMoney.fontPrio = FONT_PRIO_FRONT;

  000b5	c7 05 1c 01 00
	00 01 00 00 00	 mov	 DWORD PTR ?str_bufferMoney@?1??SellPriceWndfunc@@YAHXZ@4USTR_BUFFER@@A+284, 1

; 530  : 		GetKeyInputFocus(&str_bufferMoney);

  000bf	68 00 00 00 00	 push	 OFFSET ?str_bufferMoney@?1??SellPriceWndfunc@@YAHXZ@4USTR_BUFFER@@A
  000c4	e8 00 00 00 00	 call	 ?GetKeyInputFocus@@YAXPAUSTR_BUFFER@@@Z ; GetKeyInputFocus
  000c9	83 c4 04	 add	 esp, 4

; 531  : 	}
; 532  : 	else

  000cc	e9 20 01 00 00	 jmp	 $LN3@SellPriceW
$LN2@SellPriceW:

; 533  : 	{
; 534  : 		if (pActSellPriceWnd->hp > 0)

  000d1	a1 00 00 00 00	 mov	 eax, DWORD PTR ?pActSellPriceWnd@@3PAUaction@@A
  000d6	83 78 78 00	 cmp	 DWORD PTR [eax+120], 0
  000da	0f 8e 11 01 00
	00		 jle	 $LN3@SellPriceW

; 535  : 		{
; 536  : 			x = pActSellPriceWnd->x;

  000e0	a1 00 00 00 00	 mov	 eax, DWORD PTR ?pActSellPriceWnd@@3PAUaction@@A
  000e5	8b 48 18	 mov	 ecx, DWORD PTR [eax+24]
  000e8	89 4d f8	 mov	 DWORD PTR _x$[ebp], ecx

; 537  : 			y = pActSellPriceWnd->y;

  000eb	a1 00 00 00 00	 mov	 eax, DWORD PTR ?pActSellPriceWnd@@3PAUaction@@A
  000f0	8b 48 1c	 mov	 ecx, DWORD PTR [eax+28]
  000f3	89 4d ec	 mov	 DWORD PTR _y$[ebp], ecx

; 538  : 			StockDispBuffer(((WINDOW_DISP *)pActSellPriceWnd->pYobi)->mx,

  000f6	6a 01		 push	 1
  000f8	a1 00 00 00 00	 mov	 eax, DWORD PTR ?CG_FIELD_SV_SELL_PRICE_PANEL@@3HA ; CG_FIELD_SV_SELL_PRICE_PANEL
  000fd	50		 push	 eax
  000fe	6a 68		 push	 104			; 00000068H
  00100	8b 0d 00 00 00
	00		 mov	 ecx, DWORD PTR ?pActSellPriceWnd@@3PAUaction@@A
  00106	8b 51 0c	 mov	 edx, DWORD PTR [ecx+12]
  00109	8b 42 18	 mov	 eax, DWORD PTR [edx+24]
  0010c	50		 push	 eax
  0010d	8b 0d 00 00 00
	00		 mov	 ecx, DWORD PTR ?pActSellPriceWnd@@3PAUaction@@A
  00113	8b 51 0c	 mov	 edx, DWORD PTR [ecx+12]
  00116	8b 42 14	 mov	 eax, DWORD PTR [edx+20]
  00119	50		 push	 eax
  0011a	e8 00 00 00 00	 call	 ?StockDispBuffer@@YAHHHEHH@Z ; StockDispBuffer
  0011f	83 c4 14	 add	 esp, 20			; 00000014H

; 539  : 							((WINDOW_DISP *)pActSellPriceWnd->pYobi)->my,
; 540  : 							DISP_PRIO_MENU, CG_FIELD_SV_SELL_PRICE_PANEL, 1);
; 541  : 			iConfirm = StockDispBuffer(x + 55,y + 67, DISP_PRIO_IME3, 26289, 2);

  00122	6a 02		 push	 2
  00124	68 b1 66 00 00	 push	 26289			; 000066b1H
  00129	6a 69		 push	 105			; 00000069H
  0012b	8b 45 ec	 mov	 eax, DWORD PTR _y$[ebp]
  0012e	83 c0 43	 add	 eax, 67			; 00000043H
  00131	50		 push	 eax
  00132	8b 4d f8	 mov	 ecx, DWORD PTR _x$[ebp]
  00135	83 c1 37	 add	 ecx, 55			; 00000037H
  00138	51		 push	 ecx
  00139	e8 00 00 00 00	 call	 ?StockDispBuffer@@YAHHHEHH@Z ; StockDispBuffer
  0013e	83 c4 14	 add	 esp, 20			; 00000014H
  00141	89 45 e0	 mov	 DWORD PTR _iConfirm$[ebp], eax

; 542  : 
; 543  : 			//[胳 毳措]
; 544  : 			if ((mouse.onceState & MOUSE_LEFT_CRICK) && HitDispNo == iConfirm)

  00144	a1 2c 00 00 00	 mov	 eax, DWORD PTR ?mouse@@3UMOUSE@@A+44
  00149	83 e0 01	 and	 eax, 1
  0014c	74 48		 je	 SHORT $LN5@SellPriceW
  0014e	a1 00 00 00 00	 mov	 eax, DWORD PTR ?HitDispNo@@3HA ; HitDispNo
  00153	3b 45 e0	 cmp	 eax, DWORD PTR _iConfirm$[ebp]
  00156	75 3e		 jne	 SHORT $LN5@SellPriceW

; 545  : 			{
; 546  : 				DeathAction(pActSellPriceWnd);

  00158	a1 00 00 00 00	 mov	 eax, DWORD PTR ?pActSellPriceWnd@@3PAUaction@@A
  0015d	50		 push	 eax
  0015e	e8 00 00 00 00	 call	 ?DeathAction@@YAXPAUaction@@@Z ; DeathAction
  00163	83 c4 04	 add	 esp, 4

; 547  : 				pActSellPriceWnd = NULL;

  00166	c7 05 00 00 00
	00 00 00 00 00	 mov	 DWORD PTR ?pActSellPriceWnd@@3PAUaction@@A, 0

; 548  : 				GetKeyInputFocus(&MyChatBuffer);

  00170	68 00 00 00 00	 push	 OFFSET ?MyChatBuffer@@3USTR_BUFFER@@A ; MyChatBuffer
  00175	e8 00 00 00 00	 call	 ?GetKeyInputFocus@@YAXPAUSTR_BUFFER@@@Z ; GetKeyInputFocus
  0017a	83 c4 04	 add	 esp, 4

; 549  : 				return atoi(str_bufferMoney.buffer);

  0017d	8b f4		 mov	 esi, esp
  0017f	68 00 00 00 00	 push	 OFFSET ?str_bufferMoney@?1??SellPriceWndfunc@@YAHXZ@4USTR_BUFFER@@A
  00184	ff 15 00 00 00
	00		 call	 DWORD PTR __imp__atoi
  0018a	83 c4 04	 add	 esp, 4
  0018d	3b f4		 cmp	 esi, esp
  0018f	e8 00 00 00 00	 call	 __RTC_CheckEsp
  00194	eb 5e		 jmp	 SHORT $LN1@SellPriceW
$LN5@SellPriceW:

; 550  : 			}
; 551  : 			//[毵办る 毵り瓴 甑挫 ]
; 552  : 			if (MakeHitBox(str_bufferMoney.x, str_bufferMoney.y, str_bufferMoney.x + 88, str_bufferMoney.y + 22, DISP_PRIO_BOX2) == TRUE)

  00196	6a 6b		 push	 107			; 0000006bH
  00198	a1 10 01 00 00	 mov	 eax, DWORD PTR ?str_bufferMoney@?1??SellPriceWndfunc@@YAHXZ@4USTR_BUFFER@@A+272
  0019d	83 c0 16	 add	 eax, 22			; 00000016H
  001a0	50		 push	 eax
  001a1	8b 0d 0c 01 00
	00		 mov	 ecx, DWORD PTR ?str_bufferMoney@?1??SellPriceWndfunc@@YAHXZ@4USTR_BUFFER@@A+268
  001a7	83 c1 58	 add	 ecx, 88			; 00000058H
  001aa	51		 push	 ecx
  001ab	8b 15 10 01 00
	00		 mov	 edx, DWORD PTR ?str_bufferMoney@?1??SellPriceWndfunc@@YAHXZ@4USTR_BUFFER@@A+272
  001b1	52		 push	 edx
  001b2	a1 0c 01 00 00	 mov	 eax, DWORD PTR ?str_bufferMoney@?1??SellPriceWndfunc@@YAHXZ@4USTR_BUFFER@@A+268
  001b7	50		 push	 eax
  001b8	e8 00 00 00 00	 call	 ?MakeHitBox@@YAHHHHHH@Z	; MakeHitBox
  001bd	83 c4 14	 add	 esp, 20			; 00000014H
  001c0	83 f8 01	 cmp	 eax, 1
  001c3	75 0d		 jne	 SHORT $LN6@SellPriceW

; 553  : 				GetKeyInputFocus(&str_bufferMoney);

  001c5	68 00 00 00 00	 push	 OFFSET ?str_bufferMoney@?1??SellPriceWndfunc@@YAHXZ@4USTR_BUFFER@@A
  001ca	e8 00 00 00 00	 call	 ?GetKeyInputFocus@@YAXPAUSTR_BUFFER@@@Z ; GetKeyInputFocus
  001cf	83 c4 04	 add	 esp, 4
$LN6@SellPriceW:

; 554  : 			CheckNumber(str_bufferMoney.buffer, 10000000);

  001d2	68 80 96 98 00	 push	 10000000		; 00989680H
  001d7	68 00 00 00 00	 push	 OFFSET ?str_bufferMoney@?1??SellPriceWndfunc@@YAHXZ@4USTR_BUFFER@@A
  001dc	e8 00 00 00 00	 call	 ?CheckNumber@@YAXPADH@Z	; CheckNumber
  001e1	83 c4 08	 add	 esp, 8

; 555  : 			// [臧瓴]
; 556  : 			StockFontBuffer2(&str_bufferMoney);

  001e4	68 00 00 00 00	 push	 OFFSET ?str_bufferMoney@?1??SellPriceWndfunc@@YAHXZ@4USTR_BUFFER@@A
  001e9	e8 00 00 00 00	 call	 ?StockFontBuffer2@@YAXPAUSTR_BUFFER@@@Z ; StockFontBuffer2
  001ee	83 c4 04	 add	 esp, 4
$LN3@SellPriceW:

; 557  : 		}
; 558  : 	}
; 559  : 
; 560  : 	return -1;

  001f1	83 c8 ff	 or	 eax, -1
$LN1@SellPriceW:

; 561  : }

  001f4	5f		 pop	 edi
  001f5	5e		 pop	 esi
  001f6	5b		 pop	 ebx
  001f7	81 c4 e4 00 00
	00		 add	 esp, 228		; 000000e4H
  001fd	3b ec		 cmp	 ebp, esp
  001ff	e8 00 00 00 00	 call	 __RTC_CheckEsp
  00204	8b e5		 mov	 esp, ebp
  00206	5d		 pop	 ebp
  00207	c3		 ret	 0
?SellPriceWndfunc@@YAHXZ ENDP				; SellPriceWndfunc
_TEXT	ENDS
; Function compile flags: /Odtp /RTCsu /ZI
; File c:\users\administrator\desktop\????? ??\????? ??\client source code\system\field.cpp
;	COMDAT ?TeacherSystemWndfunc@@YAXHPAD@Z
_TEXT	SEGMENT
tv421 = -352						; size = 4
tv418 = -348						; size = 4
tv65 = -348						; size = 4
_szMsg$ = -148						; size = 128
_i$ = -12						; size = 4
__$ArrayPad$ = -4					; size = 4
_flag$ = 8						; size = 4
_data$ = 12						; size = 4
?TeacherSystemWndfunc@@YAXHPAD@Z PROC			; TeacherSystemWndfunc, COMDAT

; 5609 : {

  00000	55		 push	 ebp
  00001	8b ec		 mov	 ebp, esp
  00003	81 ec 60 01 00
	00		 sub	 esp, 352		; 00000160H
  00009	53		 push	 ebx
  0000a	56		 push	 esi
  0000b	57		 push	 edi
  0000c	8d bd a0 fe ff
	ff		 lea	 edi, DWORD PTR [ebp-352]
  00012	b9 58 00 00 00	 mov	 ecx, 88			; 00000058H
  00017	b8 cc cc cc cc	 mov	 eax, -858993460		; ccccccccH
  0001c	f3 ab		 rep stosd
  0001e	a1 00 00 00 00	 mov	 eax, DWORD PTR ___security_cookie
  00023	33 c5		 xor	 eax, ebp
  00025	89 45 fc	 mov	 DWORD PTR __$ArrayPad$[ebp], eax

; 5610 : 	int i;
; 5611 : 	static int winX, winY, winW, winH, iOnline = 0, iGetNum = 0;
; 5612 : 	static int iFontId[7], iIndex[5];
; 5613 : 	static ACTION *pActTeacherSystemWnd = NULL;
; 5614 : 	static char szBuf[6][32];
; 5615 : 	static BOOL bOpen = FALSE;
; 5616 : 	char szMsg[128];
; 5617 : 
; 5618 : 	if (pActTeacherSystemWnd == NULL)

  00028	83 3d 00 00 00
	00 00		 cmp	 DWORD PTR ?pActTeacherSystemWnd@?1??TeacherSystemWndfunc@@YAXHPAD@Z@4PAUaction@@A, 0
  0002f	0f 85 06 03 00
	00		 jne	 $LN25@TeacherSys

; 5619 : 	{
; 5620 : 		memset(iFontId, -1, sizeof(iFontId));

  00035	6a 1c		 push	 28			; 0000001cH
  00037	6a ff		 push	 -1
  00039	68 00 00 00 00	 push	 OFFSET ?iFontId@?1??TeacherSystemWndfunc@@YAXHPAD@Z@4PAHA
  0003e	e8 00 00 00 00	 call	 _memset
  00043	83 c4 0c	 add	 esp, 12			; 0000000cH

; 5621 : 		memset(iIndex, -1, sizeof(iIndex));

  00046	6a 14		 push	 20			; 00000014H
  00048	6a ff		 push	 -1
  0004a	68 00 00 00 00	 push	 OFFSET ?iIndex@?1??TeacherSystemWndfunc@@YAXHPAD@Z@4PAHA
  0004f	e8 00 00 00 00	 call	 _memset
  00054	83 c4 0c	 add	 esp, 12			; 0000000cH

; 5622 : 		memset(szBuf, 0, sizeof(szBuf));

  00057	68 c0 00 00 00	 push	 192			; 000000c0H
  0005c	6a 00		 push	 0
  0005e	68 00 00 00 00	 push	 OFFSET ?szBuf@?1??TeacherSystemWndfunc@@YAXHPAD@Z@4PAY0CA@DA
  00063	e8 00 00 00 00	 call	 _memset
  00068	83 c4 0c	 add	 esp, 12			; 0000000cH

; 5623 : 		switch (flag)

  0006b	8b 45 08	 mov	 eax, DWORD PTR _flag$[ebp]
  0006e	89 85 a4 fe ff
	ff		 mov	 DWORD PTR tv65[ebp], eax
  00074	83 bd a4 fe ff
	ff 03		 cmp	 DWORD PTR tv65[ebp], 3
  0007b	0f 87 41 02 00
	00		 ja	 $LN2@TeacherSys
  00081	8b 8d a4 fe ff
	ff		 mov	 ecx, DWORD PTR tv65[ebp]
  00087	ff 24 8d 00 00
	00 00		 jmp	 DWORD PTR $LN69@TeacherSys[ecx*4]
$LN27@TeacherSys:

; 5624 : 		{
; 5625 : 			// 涓涓浜
; 5626 : 			case 0:
; 5627 : 				winW = 5;

  0008e	c7 05 00 00 00
	00 05 00 00 00	 mov	 DWORD PTR ?winW@?1??TeacherSystemWndfunc@@YAXHPAD@Z@4HA, 5

; 5628 : 				winH = 2;

  00098	c7 05 00 00 00
	00 02 00 00 00	 mov	 DWORD PTR ?winH@?1??TeacherSystemWndfunc@@YAXHPAD@Z@4HA, 2

; 5629 : 				// get name
; 5630 : 				getStringToken(data, '|', 2, sizeof(szBuf[0]) - 1, szBuf[0]); // 瀛瀵煎瀛

  000a2	b8 20 00 00 00	 mov	 eax, 32			; 00000020H
  000a7	6b c8 00	 imul	 ecx, eax, 0
  000aa	81 c1 00 00 00
	00		 add	 ecx, OFFSET ?szBuf@?1??TeacherSystemWndfunc@@YAXHPAD@Z@4PAY0CA@DA
  000b0	51		 push	 ecx
  000b1	6a 1f		 push	 31			; 0000001fH
  000b3	6a 02		 push	 2
  000b5	6a 7c		 push	 124			; 0000007cH
  000b7	8b 55 0c	 mov	 edx, DWORD PTR _data$[ebp]
  000ba	52		 push	 edx
  000bb	e8 00 00 00 00	 call	 ?getStringToken@@YAHPADDHH0@Z ; getStringToken
  000c0	83 c4 14	 add	 esp, 20			; 00000014H

; 5631 : 				getStringToken(data, '|', 3, sizeof(szBuf[6]) - 1, szBuf[6]); // 哄煎 index

  000c3	b8 20 00 00 00	 mov	 eax, 32			; 00000020H
  000c8	6b c8 06	 imul	 ecx, eax, 6
  000cb	81 c1 00 00 00
	00		 add	 ecx, OFFSET ?szBuf@?1??TeacherSystemWndfunc@@YAXHPAD@Z@4PAY0CA@DA
  000d1	51		 push	 ecx
  000d2	6a 1f		 push	 31			; 0000001fH
  000d4	6a 03		 push	 3
  000d6	6a 7c		 push	 124			; 0000007cH
  000d8	8b 55 0c	 mov	 edx, DWORD PTR _data$[ebp]
  000db	52		 push	 edx
  000dc	e8 00 00 00 00	 call	 ?getStringToken@@YAHPADDHH0@Z ; getStringToken
  000e1	83 c4 14	 add	 esp, 20			; 00000014H

; 5632 : 				iIndex[0] = atoi(szBuf[6]);

  000e4	b8 20 00 00 00	 mov	 eax, 32			; 00000020H
  000e9	6b c8 06	 imul	 ecx, eax, 6
  000ec	81 c1 00 00 00
	00		 add	 ecx, OFFSET ?szBuf@?1??TeacherSystemWndfunc@@YAXHPAD@Z@4PAY0CA@DA
  000f2	8b f4		 mov	 esi, esp
  000f4	51		 push	 ecx
  000f5	ff 15 00 00 00
	00		 call	 DWORD PTR __imp__atoi
  000fb	83 c4 04	 add	 esp, 4
  000fe	3b f4		 cmp	 esi, esp
  00100	e8 00 00 00 00	 call	 __RTC_CheckEsp
  00105	ba 04 00 00 00	 mov	 edx, 4
  0010a	6b ca 00	 imul	 ecx, edx, 0
  0010d	89 81 00 00 00
	00		 mov	 DWORD PTR ?iIndex@?1??TeacherSystemWndfunc@@YAXHPAD@Z@4PAHA[ecx], eax

; 5633 : 				break;

  00113	e9 aa 01 00 00	 jmp	 $LN2@TeacherSys
$LN28@TeacherSys:

; 5634 : 			// 涓浜轰互涓ㄥ涓
; 5635 : 			case 1:
; 5636 : 				winW = 5;

  00118	c7 05 00 00 00
	00 05 00 00 00	 mov	 DWORD PTR ?winW@?1??TeacherSystemWndfunc@@YAXHPAD@Z@4HA, 5

; 5637 : 				winH = 5;

  00122	c7 05 00 00 00
	00 05 00 00 00	 mov	 DWORD PTR ?winH@?1??TeacherSystemWndfunc@@YAXHPAD@Z@4HA, 5

; 5638 : 				getStringToken(data, '|', 2, sizeof(szBuf[6]) - 1, szBuf[6]);

  0012c	b8 20 00 00 00	 mov	 eax, 32			; 00000020H
  00131	6b c8 06	 imul	 ecx, eax, 6
  00134	81 c1 00 00 00
	00		 add	 ecx, OFFSET ?szBuf@?1??TeacherSystemWndfunc@@YAXHPAD@Z@4PAY0CA@DA
  0013a	51		 push	 ecx
  0013b	6a 1f		 push	 31			; 0000001fH
  0013d	6a 02		 push	 2
  0013f	6a 7c		 push	 124			; 0000007cH
  00141	8b 55 0c	 mov	 edx, DWORD PTR _data$[ebp]
  00144	52		 push	 edx
  00145	e8 00 00 00 00	 call	 ?getStringToken@@YAHPADDHH0@Z ; getStringToken
  0014a	83 c4 14	 add	 esp, 20			; 00000014H

; 5639 : 				iGetNum = atoi(szBuf[6]);

  0014d	b8 20 00 00 00	 mov	 eax, 32			; 00000020H
  00152	6b c8 06	 imul	 ecx, eax, 6
  00155	81 c1 00 00 00
	00		 add	 ecx, OFFSET ?szBuf@?1??TeacherSystemWndfunc@@YAXHPAD@Z@4PAY0CA@DA
  0015b	8b f4		 mov	 esi, esp
  0015d	51		 push	 ecx
  0015e	ff 15 00 00 00
	00		 call	 DWORD PTR __imp__atoi
  00164	83 c4 04	 add	 esp, 4
  00167	3b f4		 cmp	 esi, esp
  00169	e8 00 00 00 00	 call	 __RTC_CheckEsp
  0016e	a3 00 00 00 00	 mov	 DWORD PTR ?iGetNum@?1??TeacherSystemWndfunc@@YAXHPAD@Z@4HA, eax

; 5640 : 				// get name
; 5641 : 				for (i = 0; i < iGetNum; i++)

  00173	c7 45 f4 00 00
	00 00		 mov	 DWORD PTR _i$[ebp], 0
  0017a	eb 09		 jmp	 SHORT $LN6@TeacherSys
$LN4@TeacherSys:
  0017c	8b 45 f4	 mov	 eax, DWORD PTR _i$[ebp]
  0017f	83 c0 01	 add	 eax, 1
  00182	89 45 f4	 mov	 DWORD PTR _i$[ebp], eax
$LN6@TeacherSys:
  00185	8b 45 f4	 mov	 eax, DWORD PTR _i$[ebp]
  00188	3b 05 00 00 00
	00		 cmp	 eax, DWORD PTR ?iGetNum@?1??TeacherSystemWndfunc@@YAXHPAD@Z@4HA
  0018e	7d 7b		 jge	 SHORT $LN5@TeacherSys

; 5642 : 				{
; 5643 : 					getStringToken(data, '|', 3 + i * 2, sizeof(szBuf[i]) - 1, szBuf[i]); // 瀛瀵煎瀛

  00190	8b 45 f4	 mov	 eax, DWORD PTR _i$[ebp]
  00193	c1 e0 05	 shl	 eax, 5
  00196	05 00 00 00 00	 add	 eax, OFFSET ?szBuf@?1??TeacherSystemWndfunc@@YAXHPAD@Z@4PAY0CA@DA
  0019b	50		 push	 eax
  0019c	6a 1f		 push	 31			; 0000001fH
  0019e	8b 4d f4	 mov	 ecx, DWORD PTR _i$[ebp]
  001a1	8d 54 09 03	 lea	 edx, DWORD PTR [ecx+ecx+3]
  001a5	52		 push	 edx
  001a6	6a 7c		 push	 124			; 0000007cH
  001a8	8b 45 0c	 mov	 eax, DWORD PTR _data$[ebp]
  001ab	50		 push	 eax
  001ac	e8 00 00 00 00	 call	 ?getStringToken@@YAHPADDHH0@Z ; getStringToken
  001b1	83 c4 14	 add	 esp, 20			; 00000014H

; 5644 : 					getStringToken(data, '|', 4 + i * 2, sizeof(szBuf[6]) - 1, szBuf[6]); // 哄煎 index

  001b4	b8 20 00 00 00	 mov	 eax, 32			; 00000020H
  001b9	6b c8 06	 imul	 ecx, eax, 6
  001bc	81 c1 00 00 00
	00		 add	 ecx, OFFSET ?szBuf@?1??TeacherSystemWndfunc@@YAXHPAD@Z@4PAY0CA@DA
  001c2	51		 push	 ecx
  001c3	6a 1f		 push	 31			; 0000001fH
  001c5	8b 55 f4	 mov	 edx, DWORD PTR _i$[ebp]
  001c8	8d 44 12 04	 lea	 eax, DWORD PTR [edx+edx+4]
  001cc	50		 push	 eax
  001cd	6a 7c		 push	 124			; 0000007cH
  001cf	8b 4d 0c	 mov	 ecx, DWORD PTR _data$[ebp]
  001d2	51		 push	 ecx
  001d3	e8 00 00 00 00	 call	 ?getStringToken@@YAHPADDHH0@Z ; getStringToken
  001d8	83 c4 14	 add	 esp, 20			; 00000014H

; 5645 : 					iIndex[i] = atoi(szBuf[6]);

  001db	b8 20 00 00 00	 mov	 eax, 32			; 00000020H
  001e0	6b c8 06	 imul	 ecx, eax, 6
  001e3	81 c1 00 00 00
	00		 add	 ecx, OFFSET ?szBuf@?1??TeacherSystemWndfunc@@YAXHPAD@Z@4PAY0CA@DA
  001e9	8b f4		 mov	 esi, esp
  001eb	51		 push	 ecx
  001ec	ff 15 00 00 00
	00		 call	 DWORD PTR __imp__atoi
  001f2	83 c4 04	 add	 esp, 4
  001f5	3b f4		 cmp	 esi, esp
  001f7	e8 00 00 00 00	 call	 __RTC_CheckEsp
  001fc	8b 55 f4	 mov	 edx, DWORD PTR _i$[ebp]
  001ff	89 04 95 00 00
	00 00		 mov	 DWORD PTR ?iIndex@?1??TeacherSystemWndfunc@@YAXHPAD@Z@4PAHA[edx*4], eax

; 5646 : 				}

  00206	e9 71 ff ff ff	 jmp	 $LN4@TeacherSys
$LN5@TeacherSys:

; 5647 : 				break;

  0020b	e9 b2 00 00 00	 jmp	 $LN2@TeacherSys
$LN29@TeacherSys:

; 5648 : 			// 剧ず瀵煎璧
; 5649 : 			case 2:
; 5650 : 				winW = 5;

  00210	c7 05 00 00 00
	00 05 00 00 00	 mov	 DWORD PTR ?winW@?1??TeacherSystemWndfunc@@YAXHPAD@Z@4HA, 5

; 5651 : 				winH = 3;

  0021a	c7 05 00 00 00
	00 03 00 00 00	 mov	 DWORD PTR ?winH@?1??TeacherSystemWndfunc@@YAXHPAD@Z@4HA, 3

; 5652 : 				getStringToken(data, '|', 2, sizeof(szBuf[0]) - 1, szBuf[0]);	// 瀛瀵煎瀛

  00224	b8 20 00 00 00	 mov	 eax, 32			; 00000020H
  00229	6b c8 00	 imul	 ecx, eax, 0
  0022c	81 c1 00 00 00
	00		 add	 ecx, OFFSET ?szBuf@?1??TeacherSystemWndfunc@@YAXHPAD@Z@4PAY0CA@DA
  00232	51		 push	 ecx
  00233	6a 1f		 push	 31			; 0000001fH
  00235	6a 02		 push	 2
  00237	6a 7c		 push	 124			; 0000007cH
  00239	8b 55 0c	 mov	 edx, DWORD PTR _data$[ebp]
  0023c	52		 push	 edx
  0023d	e8 00 00 00 00	 call	 ?getStringToken@@YAHPADDHH0@Z ; getStringToken
  00242	83 c4 14	 add	 esp, 20			; 00000014H

; 5653 : 				getStringToken(data, '|', 3, sizeof(szBuf[6]) - 1, szBuf[6]); // 哄ㄤㄧ嚎舵

  00245	b8 20 00 00 00	 mov	 eax, 32			; 00000020H
  0024a	6b c8 06	 imul	 ecx, eax, 6
  0024d	81 c1 00 00 00
	00		 add	 ecx, OFFSET ?szBuf@?1??TeacherSystemWndfunc@@YAXHPAD@Z@4PAY0CA@DA
  00253	51		 push	 ecx
  00254	6a 1f		 push	 31			; 0000001fH
  00256	6a 03		 push	 3
  00258	6a 7c		 push	 124			; 0000007cH
  0025a	8b 55 0c	 mov	 edx, DWORD PTR _data$[ebp]
  0025d	52		 push	 edx
  0025e	e8 00 00 00 00	 call	 ?getStringToken@@YAHPADDHH0@Z ; getStringToken
  00263	83 c4 14	 add	 esp, 20			; 00000014H

; 5654 : 				iOnline = atoi(szBuf[6]);

  00266	b8 20 00 00 00	 mov	 eax, 32			; 00000020H
  0026b	6b c8 06	 imul	 ecx, eax, 6
  0026e	81 c1 00 00 00
	00		 add	 ecx, OFFSET ?szBuf@?1??TeacherSystemWndfunc@@YAXHPAD@Z@4PAY0CA@DA
  00274	8b f4		 mov	 esi, esp
  00276	51		 push	 ecx
  00277	ff 15 00 00 00
	00		 call	 DWORD PTR __imp__atoi
  0027d	83 c4 04	 add	 esp, 4
  00280	3b f4		 cmp	 esi, esp
  00282	e8 00 00 00 00	 call	 __RTC_CheckEsp
  00287	a3 00 00 00 00	 mov	 DWORD PTR ?iOnline@?1??TeacherSystemWndfunc@@YAXHPAD@Z@4HA, eax

; 5655 : 				getStringToken(data, '|', 4, sizeof(szBuf[1]) - 1, szBuf[1]); // 瀛绯 ip

  0028c	b8 20 00 00 00	 mov	 eax, 32			; 00000020H
  00291	c1 e0 00	 shl	 eax, 0
  00294	05 00 00 00 00	 add	 eax, OFFSET ?szBuf@?1??TeacherSystemWndfunc@@YAXHPAD@Z@4PAY0CA@DA
  00299	50		 push	 eax
  0029a	6a 1f		 push	 31			; 0000001fH
  0029c	6a 04		 push	 4
  0029e	6a 7c		 push	 124			; 0000007cH
  002a0	8b 4d 0c	 mov	 ecx, DWORD PTR _data$[ebp]
  002a3	51		 push	 ecx
  002a4	e8 00 00 00 00	 call	 ?getStringToken@@YAHPADDHH0@Z ; getStringToken
  002a9	83 c4 14	 add	 esp, 20			; 00000014H

; 5656 : 				break;

  002ac	eb 14		 jmp	 SHORT $LN2@TeacherSys
$LN30@TeacherSys:

; 5657 : 			case 3:
; 5658 : 				winW = 5;

  002ae	c7 05 00 00 00
	00 05 00 00 00	 mov	 DWORD PTR ?winW@?1??TeacherSystemWndfunc@@YAXHPAD@Z@4HA, 5

; 5659 : 				winH = 2;

  002b8	c7 05 00 00 00
	00 02 00 00 00	 mov	 DWORD PTR ?winH@?1??TeacherSystemWndfunc@@YAXHPAD@Z@4HA, 2
$LN2@TeacherSys:

; 5660 : 				break;
; 5661 : 		}
; 5662 : 		iOldGX = nowGx;

  002c2	a1 00 00 00 00	 mov	 eax, DWORD PTR ?nowGx@@3HA ; nowGx
  002c7	a3 00 00 00 00	 mov	 DWORD PTR ?iOldGX@@3HA, eax ; iOldGX

; 5663 : 		iOldGY = nowGy;

  002cc	a1 00 00 00 00	 mov	 eax, DWORD PTR ?nowGy@@3HA ; nowGy
  002d1	a3 00 00 00 00	 mov	 DWORD PTR ?iOldGY@@3HA, eax ; iOldGY

; 5664 : 		winX = (640 - winW * 64) / 2;

  002d6	a1 00 00 00 00	 mov	 eax, DWORD PTR ?winW@?1??TeacherSystemWndfunc@@YAXHPAD@Z@4HA
  002db	c1 e0 06	 shl	 eax, 6
  002de	b9 80 02 00 00	 mov	 ecx, 640		; 00000280H
  002e3	2b c8		 sub	 ecx, eax
  002e5	8b c1		 mov	 eax, ecx
  002e7	99		 cdq
  002e8	2b c2		 sub	 eax, edx
  002ea	d1 f8		 sar	 eax, 1
  002ec	a3 00 00 00 00	 mov	 DWORD PTR ?winX@?1??TeacherSystemWndfunc@@YAXHPAD@Z@4HA, eax

; 5665 : 		winY = (456 - winH * 48) / 2;

  002f1	6b 05 00 00 00
	00 30		 imul	 eax, DWORD PTR ?winH@?1??TeacherSystemWndfunc@@YAXHPAD@Z@4HA, 48
  002f8	b9 c8 01 00 00	 mov	 ecx, 456		; 000001c8H
  002fd	2b c8		 sub	 ecx, eax
  002ff	8b c1		 mov	 eax, ecx
  00301	99		 cdq
  00302	2b c2		 sub	 eax, edx
  00304	d1 f8		 sar	 eax, 1
  00306	a3 00 00 00 00	 mov	 DWORD PTR ?winY@?1??TeacherSystemWndfunc@@YAXHPAD@Z@4HA, eax

; 5666 : 		pActTeacherSystemWnd = MakeWindowDisp(winX, winY, winW, winH, NULL, 1);

  0030b	6a 01		 push	 1
  0030d	6a 00		 push	 0
  0030f	a1 00 00 00 00	 mov	 eax, DWORD PTR ?winH@?1??TeacherSystemWndfunc@@YAXHPAD@Z@4HA
  00314	50		 push	 eax
  00315	8b 0d 00 00 00
	00		 mov	 ecx, DWORD PTR ?winW@?1??TeacherSystemWndfunc@@YAXHPAD@Z@4HA
  0031b	51		 push	 ecx
  0031c	8b 15 00 00 00
	00		 mov	 edx, DWORD PTR ?winY@?1??TeacherSystemWndfunc@@YAXHPAD@Z@4HA
  00322	52		 push	 edx
  00323	a1 00 00 00 00	 mov	 eax, DWORD PTR ?winX@?1??TeacherSystemWndfunc@@YAXHPAD@Z@4HA
  00328	50		 push	 eax
  00329	e8 00 00 00 00	 call	 ?MakeWindowDisp@@YAPAUaction@@HHHHHH@Z ; MakeWindowDisp
  0032e	83 c4 18	 add	 esp, 24			; 00000018H
  00331	a3 00 00 00 00	 mov	 DWORD PTR ?pActTeacherSystemWnd@?1??TeacherSystemWndfunc@@YAXHPAD@Z@4PAUaction@@A, eax

; 5667 : 	}
; 5668 : 	else

  00336	e9 e4 08 00 00	 jmp	 $LN1@TeacherSys
$LN25@TeacherSys:

; 5669 : 	{
; 5670 : 		// close window
; 5671 : 		if (CheckMenuFlag() || (joy_trg[0] & JOY_ESC) || actBtn == 1 || menuBtn == 1 ||
; 5672 : 			disconnectServerFlag == TRUE || (iOldGX != nowGx || iOldGY != nowGy))

  0033b	e8 00 00 00 00	 call	 ?CheckMenuFlag@@YAHXZ	; CheckMenuFlag
  00340	85 c0		 test	 eax, eax
  00342	75 51		 jne	 SHORT $LN32@TeacherSys
  00344	b8 04 00 00 00	 mov	 eax, 4
  00349	6b c8 00	 imul	 ecx, eax, 0
  0034c	8b 91 00 00 00
	00		 mov	 edx, DWORD PTR ?joy_trg@@3PAKA[ecx]
  00352	81 e2 00 00 00
	80		 and	 edx, -2147483648	; 80000000H
  00358	75 3b		 jne	 SHORT $LN32@TeacherSys
  0035a	0f bf 05 00 00
	00 00		 movsx	 eax, WORD PTR ?actBtn@@3FA ; actBtn
  00361	83 f8 01	 cmp	 eax, 1
  00364	74 2f		 je	 SHORT $LN32@TeacherSys
  00366	0f bf 05 00 00
	00 00		 movsx	 eax, WORD PTR ?menuBtn@@3FA ; menuBtn
  0036d	83 f8 01	 cmp	 eax, 1
  00370	74 23		 je	 SHORT $LN32@TeacherSys
  00372	83 3d 00 00 00
	00 01		 cmp	 DWORD PTR ?disconnectServerFlag@@3HA, 1 ; disconnectServerFlag
  00379	74 1a		 je	 SHORT $LN32@TeacherSys
  0037b	a1 00 00 00 00	 mov	 eax, DWORD PTR ?iOldGX@@3HA ; iOldGX
  00380	3b 05 00 00 00
	00		 cmp	 eax, DWORD PTR ?nowGx@@3HA ; nowGx
  00386	75 0d		 jne	 SHORT $LN32@TeacherSys
  00388	a1 00 00 00 00	 mov	 eax, DWORD PTR ?iOldGY@@3HA ; iOldGY
  0038d	3b 05 00 00 00
	00		 cmp	 eax, DWORD PTR ?nowGy@@3HA ; nowGy
  00393	74 2f		 je	 SHORT $LN31@TeacherSys
$LN32@TeacherSys:

; 5673 : 		{
; 5674 : 			DeathAction(pActTeacherSystemWnd);

  00395	a1 00 00 00 00	 mov	 eax, DWORD PTR ?pActTeacherSystemWnd@?1??TeacherSystemWndfunc@@YAXHPAD@Z@4PAUaction@@A
  0039a	50		 push	 eax
  0039b	e8 00 00 00 00	 call	 ?DeathAction@@YAXPAUaction@@@Z ; DeathAction
  003a0	83 c4 04	 add	 esp, 4

; 5675 : 			pActTeacherSystemWnd = NULL;

  003a3	c7 05 00 00 00
	00 00 00 00 00	 mov	 DWORD PTR ?pActTeacherSystemWnd@?1??TeacherSystemWndfunc@@YAXHPAD@Z@4PAUaction@@A, 0

; 5676 : 			sTeacherSystemBtn = 0;

  003ad	33 c0		 xor	 eax, eax
  003af	66 a3 00 00 00
	00		 mov	 WORD PTR ?sTeacherSystemBtn@@3FA, ax ; sTeacherSystemBtn

; 5677 : 			bOpen = FALSE;

  003b5	c7 05 00 00 00
	00 00 00 00 00	 mov	 DWORD PTR ?bOpen@?1??TeacherSystemWndfunc@@YAXHPAD@Z@4HA, 0

; 5678 : 			return;

  003bf	e9 5b 08 00 00	 jmp	 $LN1@TeacherSys
$LN31@TeacherSys:

; 5679 : 		}
; 5680 : 		if (pActTeacherSystemWnd->hp >= 1)

  003c4	a1 00 00 00 00	 mov	 eax, DWORD PTR ?pActTeacherSystemWnd@?1??TeacherSystemWndfunc@@YAXHPAD@Z@4PAUaction@@A
  003c9	83 78 78 01	 cmp	 DWORD PTR [eax+120], 1
  003cd	0f 8c 19 08 00
	00		 jl	 $LN34@TeacherSys

; 5681 : 		{
; 5682 : 			if (!bOpen)

  003d3	83 3d 00 00 00
	00 00		 cmp	 DWORD PTR ?bOpen@?1??TeacherSystemWndfunc@@YAXHPAD@Z@4HA, 0
  003da	75 0a		 jne	 SHORT $LN36@TeacherSys

; 5683 : 				bOpen = TRUE;

  003dc	c7 05 00 00 00
	00 01 00 00 00	 mov	 DWORD PTR ?bOpen@?1??TeacherSystemWndfunc@@YAXHPAD@Z@4HA, 1
$LN36@TeacherSys:

; 5684 : 			// 涓涓浜鸿㈤瑕瀵规瑰浣瀵煎
; 5685 : 			if (flag == 0)

  003e6	83 7d 08 00	 cmp	 DWORD PTR _flag$[ebp], 0
  003ea	0f 85 bc 01 00
	00		 jne	 $LN37@TeacherSys

; 5686 : 			{
; 5687 : 				sprintf(szMsg, "轨氤惦旯 %s", szBuf[0]);

  003f0	b8 20 00 00 00	 mov	 eax, 32			; 00000020H
  003f5	6b c8 00	 imul	 ecx, eax, 0
  003f8	81 c1 00 00 00
	00		 add	 ecx, OFFSET ?szBuf@?1??TeacherSystemWndfunc@@YAXHPAD@Z@4PAY0CA@DA
  003fe	51		 push	 ecx
  003ff	68 00 00 00 00	 push	 OFFSET ??_C@_0BK@GGAGFANJ@?$LE?g?$LN?E?$MA?$LK?$LN?D?$LK?$LA?G?R?$LM?v?$MA?V?$LN?$MA?$LE?O?$LB?n?5?$CFs?$AA@
  00404	8d 95 6c ff ff
	ff		 lea	 edx, DWORD PTR _szMsg$[ebp]
  0040a	52		 push	 edx
  0040b	e8 00 00 00 00	 call	 _sprintf
  00410	83 c4 0c	 add	 esp, 12			; 0000000cH

; 5688 : 				StockFontBuffer(winX + 20, winY + 20, FONT_PRIO_FRONT, FONT_PAL_WHITE, szMsg, 0);

  00413	6a 00		 push	 0
  00415	8d 85 6c ff ff
	ff		 lea	 eax, DWORD PTR _szMsg$[ebp]
  0041b	50		 push	 eax
  0041c	6a 00		 push	 0
  0041e	6a 01		 push	 1
  00420	8b 0d 00 00 00
	00		 mov	 ecx, DWORD PTR ?winY@?1??TeacherSystemWndfunc@@YAXHPAD@Z@4HA
  00426	83 c1 14	 add	 ecx, 20			; 00000014H
  00429	51		 push	 ecx
  0042a	8b 15 00 00 00
	00		 mov	 edx, DWORD PTR ?winX@?1??TeacherSystemWndfunc@@YAXHPAD@Z@4HA
  00430	83 c2 14	 add	 edx, 20			; 00000014H
  00433	52		 push	 edx
  00434	e8 00 00 00 00	 call	 ?StockFontBuffer@@YAHHHDHPADH@Z ; StockFontBuffer
  00439	83 c4 18	 add	 esp, 24			; 00000018H

; 5689 : 				StockFontBuffer(winX + 20, winY + 36, FONT_PRIO_FRONT, FONT_PAL_WHITE, "氅臧措炒胳锛", 0);

  0043c	6a 00		 push	 0
  0043e	68 00 00 00 00	 push	 OFFSET ??_C@_0BD@KCELJCBE@?$LI?$OA?E?d?$LA?$KB?$LF?G?$LO?n?$LK?$LI?$LM?$LM?$LP?d?$KD?$LP?$AA@
  00443	6a 00		 push	 0
  00445	6a 01		 push	 1
  00447	a1 00 00 00 00	 mov	 eax, DWORD PTR ?winY@?1??TeacherSystemWndfunc@@YAXHPAD@Z@4HA
  0044c	83 c0 24	 add	 eax, 36			; 00000024H
  0044f	50		 push	 eax
  00450	8b 0d 00 00 00
	00		 mov	 ecx, DWORD PTR ?winX@?1??TeacherSystemWndfunc@@YAXHPAD@Z@4HA
  00456	83 c1 14	 add	 ecx, 20			; 00000014H
  00459	51		 push	 ecx
  0045a	e8 00 00 00 00	 call	 ?StockFontBuffer@@YAHHHDHPADH@Z ; StockFontBuffer
  0045f	83 c4 18	 add	 esp, 24			; 00000018H

; 5690 : 				iFontId[0] = StockFontBuffer(winX + 64, winY + winH * 30, FONT_PRIO_FRONT, FONT_PAL_YELLOW, "  ", 2);

  00462	6a 02		 push	 2
  00464	68 00 00 00 00	 push	 OFFSET ??_C@_06BLFCGNEJ@?H?$KO?5?5?$MA?N?$AA@
  00469	6a 04		 push	 4
  0046b	6a 01		 push	 1
  0046d	6b 05 00 00 00
	00 1e		 imul	 eax, DWORD PTR ?winH@?1??TeacherSystemWndfunc@@YAXHPAD@Z@4HA, 30
  00474	03 05 00 00 00
	00		 add	 eax, DWORD PTR ?winY@?1??TeacherSystemWndfunc@@YAXHPAD@Z@4HA
  0047a	50		 push	 eax
  0047b	8b 0d 00 00 00
	00		 mov	 ecx, DWORD PTR ?winX@?1??TeacherSystemWndfunc@@YAXHPAD@Z@4HA
  00481	83 c1 40	 add	 ecx, 64			; 00000040H
  00484	51		 push	 ecx
  00485	e8 00 00 00 00	 call	 ?StockFontBuffer@@YAHHHDHPADH@Z ; StockFontBuffer
  0048a	83 c4 18	 add	 esp, 24			; 00000018H
  0048d	ba 04 00 00 00	 mov	 edx, 4
  00492	6b ca 00	 imul	 ecx, edx, 0
  00495	89 81 00 00 00
	00		 mov	 DWORD PTR ?iFontId@?1??TeacherSystemWndfunc@@YAXHPAD@Z@4PAHA[ecx], eax

; 5691 : 				iFontId[1] = StockFontBuffer(winX + (winW + 1) * 32, winY + winH * 30, FONT_PRIO_FRONT, FONT_PAL_YELLOW, "旆  ", 2);

  0049b	6a 02		 push	 2
  0049d	68 00 00 00 00	 push	 OFFSET ??_C@_06PNFMGOAF@?C?k?5?5?$LM?R?$AA@
  004a2	6a 04		 push	 4
  004a4	6a 01		 push	 1
  004a6	6b 05 00 00 00
	00 1e		 imul	 eax, DWORD PTR ?winH@?1??TeacherSystemWndfunc@@YAXHPAD@Z@4HA, 30
  004ad	03 05 00 00 00
	00		 add	 eax, DWORD PTR ?winY@?1??TeacherSystemWndfunc@@YAXHPAD@Z@4HA
  004b3	50		 push	 eax
  004b4	8b 0d 00 00 00
	00		 mov	 ecx, DWORD PTR ?winW@?1??TeacherSystemWndfunc@@YAXHPAD@Z@4HA
  004ba	83 c1 01	 add	 ecx, 1
  004bd	c1 e1 05	 shl	 ecx, 5
  004c0	03 0d 00 00 00
	00		 add	 ecx, DWORD PTR ?winX@?1??TeacherSystemWndfunc@@YAXHPAD@Z@4HA
  004c6	51		 push	 ecx
  004c7	e8 00 00 00 00	 call	 ?StockFontBuffer@@YAHHHDHPADH@Z ; StockFontBuffer
  004cc	83 c4 18	 add	 esp, 24			; 00000018H
  004cf	ba 04 00 00 00	 mov	 edx, 4
  004d4	c1 e2 00	 shl	 edx, 0
  004d7	89 82 00 00 00
	00		 mov	 DWORD PTR ?iFontId@?1??TeacherSystemWndfunc@@YAXHPAD@Z@4PAHA[edx], eax

; 5692 : 				if (mouse.onceState & MOUSE_LEFT_CRICK)

  004dd	a1 2c 00 00 00	 mov	 eax, DWORD PTR ?mouse@@3UMOUSE@@A+44
  004e2	83 e0 01	 and	 eax, 1
  004e5	0f 84 bc 00 00
	00		 je	 $LN39@TeacherSys

; 5693 : 				{
; 5694 : 					for (i = 0; i < 2; i++)

  004eb	c7 45 f4 00 00
	00 00		 mov	 DWORD PTR _i$[ebp], 0
  004f2	eb 09		 jmp	 SHORT $LN9@TeacherSys
$LN7@TeacherSys:
  004f4	8b 45 f4	 mov	 eax, DWORD PTR _i$[ebp]
  004f7	83 c0 01	 add	 eax, 1
  004fa	89 45 f4	 mov	 DWORD PTR _i$[ebp], eax
$LN9@TeacherSys:
  004fd	83 7d f4 02	 cmp	 DWORD PTR _i$[ebp], 2
  00501	0f 8d a0 00 00
	00		 jge	 $LN39@TeacherSys

; 5695 : 					{
; 5696 : 						if (HitFontNo == iFontId[i])

  00507	8b 45 f4	 mov	 eax, DWORD PTR _i$[ebp]
  0050a	8b 0d 00 00 00
	00		 mov	 ecx, DWORD PTR ?HitFontNo@@3HA ; HitFontNo
  00510	3b 0c 85 00 00
	00 00		 cmp	 ecx, DWORD PTR ?iFontId@?1??TeacherSystemWndfunc@@YAXHPAD@Z@4PAHA[eax*4]
  00517	0f 85 85 00 00
	00		 jne	 $LN40@TeacherSys

; 5697 : 						{
; 5698 : 							play_se(217, 320, 240);

  0051d	68 f0 00 00 00	 push	 240			; 000000f0H
  00522	68 40 01 00 00	 push	 320			; 00000140H
  00527	68 d9 00 00 00	 push	 217			; 000000d9H
  0052c	e8 00 00 00 00	 call	 ?play_se@@YAHHHH@Z	; play_se
  00531	83 c4 0c	 add	 esp, 12			; 0000000cH

; 5699 : 							// 
; 5700 : 							if (i == 0)

  00534	83 7d f4 00	 cmp	 DWORD PTR _i$[ebp], 0
  00538	75 39		 jne	 SHORT $LN41@TeacherSys

; 5701 : 							{
; 5702 : 								sprintf(szMsg, "O|%d", iIndex[0]);

  0053a	b8 04 00 00 00	 mov	 eax, 4
  0053f	6b c8 00	 imul	 ecx, eax, 0
  00542	8b 91 00 00 00
	00		 mov	 edx, DWORD PTR ?iIndex@?1??TeacherSystemWndfunc@@YAXHPAD@Z@4PAHA[ecx]
  00548	52		 push	 edx
  00549	68 00 00 00 00	 push	 OFFSET ??_C@_04PNIAPCPG@O?$HM?$CFd?$AA@
  0054e	8d 85 6c ff ff
	ff		 lea	 eax, DWORD PTR _szMsg$[ebp]
  00554	50		 push	 eax
  00555	e8 00 00 00 00	 call	 _sprintf
  0055a	83 c4 0c	 add	 esp, 12			; 0000000cH

; 5703 : 								lssproto_TEACHER_SYSTEM_send(sockfd, szMsg);

  0055d	8d 85 6c ff ff
	ff		 lea	 eax, DWORD PTR _szMsg$[ebp]
  00563	50		 push	 eax
  00564	8b 0d 00 00 00
	00		 mov	 ecx, DWORD PTR ?sockfd@@3IA ; sockfd
  0056a	51		 push	 ecx
  0056b	e8 00 00 00 00	 call	 ?lssproto_TEACHER_SYSTEM_send@@YAXHPAD@Z ; lssproto_TEACHER_SYSTEM_send
  00570	83 c4 08	 add	 esp, 8
$LN41@TeacherSys:

; 5704 : 							}
; 5705 : 							DeathAction(pActTeacherSystemWnd);

  00573	a1 00 00 00 00	 mov	 eax, DWORD PTR ?pActTeacherSystemWnd@?1??TeacherSystemWndfunc@@YAXHPAD@Z@4PAUaction@@A
  00578	50		 push	 eax
  00579	e8 00 00 00 00	 call	 ?DeathAction@@YAXPAUaction@@@Z ; DeathAction
  0057e	83 c4 04	 add	 esp, 4

; 5706 : 							pActTeacherSystemWnd = NULL;

  00581	c7 05 00 00 00
	00 00 00 00 00	 mov	 DWORD PTR ?pActTeacherSystemWnd@?1??TeacherSystemWndfunc@@YAXHPAD@Z@4PAUaction@@A, 0

; 5707 : 							sTeacherSystemBtn = 0;

  0058b	33 c0		 xor	 eax, eax
  0058d	66 a3 00 00 00
	00		 mov	 WORD PTR ?sTeacherSystemBtn@@3FA, ax ; sTeacherSystemBtn

; 5708 : 							bOpen = FALSE;

  00593	c7 05 00 00 00
	00 00 00 00 00	 mov	 DWORD PTR ?bOpen@?1??TeacherSystemWndfunc@@YAXHPAD@Z@4HA, 0

; 5709 : 							return;

  0059d	e9 7d 06 00 00	 jmp	 $LN1@TeacherSys
$LN40@TeacherSys:

; 5710 : 						}
; 5711 : 					}

  005a2	e9 4d ff ff ff	 jmp	 $LN7@TeacherSys
$LN39@TeacherSys:

; 5712 : 				}
; 5713 : 			}

  005a7	e9 3e 06 00 00	 jmp	 $LN38@TeacherSys
$LN37@TeacherSys:

; 5714 : 			// 涓浜轰互涓ㄥ涓艰㈤瑕瀵规瑰浣瀵煎
; 5715 : 			else if (flag == 1)

  005ac	83 7d 08 01	 cmp	 DWORD PTR _flag$[ebp], 1
  005b0	0f 85 ab 01 00
	00		 jne	 $LN42@TeacherSys

; 5716 : 			{
; 5717 : 				sprintf(szMsg, "氅搿 甑 ╇旯锛");

  005b6	68 00 00 00 00	 push	 OFFSET ??_C@_0BJ@HGNGOOJL@?$LI?$OA?E?d?$LH?N?5?$LE?$KJ?$LB?$LM?5?$LM?$LB?E?C?G?U?$LE?O?$LB?n?$KD?$LP?$AA@
  005bb	8d 85 6c ff ff
	ff		 lea	 eax, DWORD PTR _szMsg$[ebp]
  005c1	50		 push	 eax
  005c2	e8 00 00 00 00	 call	 _sprintf
  005c7	83 c4 08	 add	 esp, 8

; 5718 : 				StockFontBuffer(winX + 20, winY + 20, FONT_PRIO_FRONT, FONT_PAL_WHITE, szMsg, 0);

  005ca	6a 00		 push	 0
  005cc	8d 85 6c ff ff
	ff		 lea	 eax, DWORD PTR _szMsg$[ebp]
  005d2	50		 push	 eax
  005d3	6a 00		 push	 0
  005d5	6a 01		 push	 1
  005d7	8b 0d 00 00 00
	00		 mov	 ecx, DWORD PTR ?winY@?1??TeacherSystemWndfunc@@YAXHPAD@Z@4HA
  005dd	83 c1 14	 add	 ecx, 20			; 00000014H
  005e0	51		 push	 ecx
  005e1	8b 15 00 00 00
	00		 mov	 edx, DWORD PTR ?winX@?1??TeacherSystemWndfunc@@YAXHPAD@Z@4HA
  005e7	83 c2 14	 add	 edx, 20			; 00000014H
  005ea	52		 push	 edx
  005eb	e8 00 00 00 00	 call	 ?StockFontBuffer@@YAHHHDHPADH@Z ; StockFontBuffer
  005f0	83 c4 18	 add	 esp, 24			; 00000018H

; 5719 : 				iFontId[0] = StockFontBuffer(winX + winW / 2 * 64, winY + (winH - 1)* 48, FONT_PRIO_FRONT, FONT_PAL_YELLOW, "旆  ", 2);

  005f3	6a 02		 push	 2
  005f5	68 00 00 00 00	 push	 OFFSET ??_C@_06PNFMGOAF@?C?k?5?5?$LM?R?$AA@
  005fa	6a 04		 push	 4
  005fc	6a 01		 push	 1
  005fe	a1 00 00 00 00	 mov	 eax, DWORD PTR ?winH@?1??TeacherSystemWndfunc@@YAXHPAD@Z@4HA
  00603	83 e8 01	 sub	 eax, 1
  00606	6b c8 30	 imul	 ecx, eax, 48
  00609	03 0d 00 00 00
	00		 add	 ecx, DWORD PTR ?winY@?1??TeacherSystemWndfunc@@YAXHPAD@Z@4HA
  0060f	51		 push	 ecx
  00610	a1 00 00 00 00	 mov	 eax, DWORD PTR ?winW@?1??TeacherSystemWndfunc@@YAXHPAD@Z@4HA
  00615	99		 cdq
  00616	2b c2		 sub	 eax, edx
  00618	d1 f8		 sar	 eax, 1
  0061a	c1 e0 06	 shl	 eax, 6
  0061d	03 05 00 00 00
	00		 add	 eax, DWORD PTR ?winX@?1??TeacherSystemWndfunc@@YAXHPAD@Z@4HA
  00623	50		 push	 eax
  00624	e8 00 00 00 00	 call	 ?StockFontBuffer@@YAHHHDHPADH@Z ; StockFontBuffer
  00629	83 c4 18	 add	 esp, 24			; 00000018H
  0062c	ba 04 00 00 00	 mov	 edx, 4
  00631	6b ca 00	 imul	 ecx, edx, 0
  00634	89 81 00 00 00
	00		 mov	 DWORD PTR ?iFontId@?1??TeacherSystemWndfunc@@YAXHPAD@Z@4PAHA[ecx], eax

; 5720 : 				for (i = 0; i < iGetNum; i++)

  0063a	c7 45 f4 00 00
	00 00		 mov	 DWORD PTR _i$[ebp], 0
  00641	eb 09		 jmp	 SHORT $LN12@TeacherSys
$LN10@TeacherSys:
  00643	8b 45 f4	 mov	 eax, DWORD PTR _i$[ebp]
  00646	83 c0 01	 add	 eax, 1
  00649	89 45 f4	 mov	 DWORD PTR _i$[ebp], eax
$LN12@TeacherSys:
  0064c	8b 45 f4	 mov	 eax, DWORD PTR _i$[ebp]
  0064f	3b 05 00 00 00
	00		 cmp	 eax, DWORD PTR ?iGetNum@?1??TeacherSystemWndfunc@@YAXHPAD@Z@4HA
  00655	7d 3f		 jge	 SHORT $LN11@TeacherSys

; 5721 : 					iFontId[i+1] = StockFontBuffer(winX + 20, winY + 46 + i * 24, FONT_PRIO_FRONT, FONT_PAL_WHITE, szBuf[i], 2);

  00657	6a 02		 push	 2
  00659	8b 45 f4	 mov	 eax, DWORD PTR _i$[ebp]
  0065c	c1 e0 05	 shl	 eax, 5
  0065f	05 00 00 00 00	 add	 eax, OFFSET ?szBuf@?1??TeacherSystemWndfunc@@YAXHPAD@Z@4PAY0CA@DA
  00664	50		 push	 eax
  00665	6a 00		 push	 0
  00667	6a 01		 push	 1
  00669	6b 4d f4 18	 imul	 ecx, DWORD PTR _i$[ebp], 24
  0066d	8b 15 00 00 00
	00		 mov	 edx, DWORD PTR ?winY@?1??TeacherSystemWndfunc@@YAXHPAD@Z@4HA
  00673	8d 44 0a 2e	 lea	 eax, DWORD PTR [edx+ecx+46]
  00677	50		 push	 eax
  00678	8b 0d 00 00 00
	00		 mov	 ecx, DWORD PTR ?winX@?1??TeacherSystemWndfunc@@YAXHPAD@Z@4HA
  0067e	83 c1 14	 add	 ecx, 20			; 00000014H
  00681	51		 push	 ecx
  00682	e8 00 00 00 00	 call	 ?StockFontBuffer@@YAHHHDHPADH@Z ; StockFontBuffer
  00687	83 c4 18	 add	 esp, 24			; 00000018H
  0068a	8b 55 f4	 mov	 edx, DWORD PTR _i$[ebp]
  0068d	89 04 95 04 00
	00 00		 mov	 DWORD PTR ?iFontId@?1??TeacherSystemWndfunc@@YAXHPAD@Z@4PAHA[edx*4+4], eax
  00694	eb ad		 jmp	 SHORT $LN10@TeacherSys
$LN11@TeacherSys:

; 5722 : 				if (mouse.onceState & MOUSE_LEFT_CRICK)

  00696	a1 2c 00 00 00	 mov	 eax, DWORD PTR ?mouse@@3UMOUSE@@A+44
  0069b	83 e0 01	 and	 eax, 1
  0069e	0f 84 b8 00 00
	00		 je	 $LN44@TeacherSys

; 5723 : 				{
; 5724 : 					for (i = 0; i < 7; i++)

  006a4	c7 45 f4 00 00
	00 00		 mov	 DWORD PTR _i$[ebp], 0
  006ab	eb 09		 jmp	 SHORT $LN15@TeacherSys
$LN13@TeacherSys:
  006ad	8b 45 f4	 mov	 eax, DWORD PTR _i$[ebp]
  006b0	83 c0 01	 add	 eax, 1
  006b3	89 45 f4	 mov	 DWORD PTR _i$[ebp], eax
$LN15@TeacherSys:
  006b6	83 7d f4 07	 cmp	 DWORD PTR _i$[ebp], 7
  006ba	0f 8d 9c 00 00
	00		 jge	 $LN44@TeacherSys

; 5725 : 					{
; 5726 : 						if (HitFontNo == iFontId[i])

  006c0	8b 45 f4	 mov	 eax, DWORD PTR _i$[ebp]
  006c3	8b 0d 00 00 00
	00		 mov	 ecx, DWORD PTR ?HitFontNo@@3HA ; HitFontNo
  006c9	3b 0c 85 00 00
	00 00		 cmp	 ecx, DWORD PTR ?iFontId@?1??TeacherSystemWndfunc@@YAXHPAD@Z@4PAHA[eax*4]
  006d0	0f 85 81 00 00
	00		 jne	 $LN45@TeacherSys

; 5727 : 						{
; 5728 : 							play_se(217,320,240);

  006d6	68 f0 00 00 00	 push	 240			; 000000f0H
  006db	68 40 01 00 00	 push	 320			; 00000140H
  006e0	68 d9 00 00 00	 push	 217			; 000000d9H
  006e5	e8 00 00 00 00	 call	 ?play_se@@YAHHHH@Z	; play_se
  006ea	83 c4 0c	 add	 esp, 12			; 0000000cH

; 5729 : 							// 濂戒瀵煎
; 5730 : 							if (i != 0)

  006ed	83 7d f4 00	 cmp	 DWORD PTR _i$[ebp], 0
  006f1	74 35		 je	 SHORT $LN46@TeacherSys

; 5731 : 							{
; 5732 : 								sprintf(szMsg, "O|%d", iIndex[i-1]);

  006f3	8b 45 f4	 mov	 eax, DWORD PTR _i$[ebp]
  006f6	8b 0c 85 fc ff
	ff ff		 mov	 ecx, DWORD PTR ?iIndex@?1??TeacherSystemWndfunc@@YAXHPAD@Z@4PAHA[eax*4-4]
  006fd	51		 push	 ecx
  006fe	68 00 00 00 00	 push	 OFFSET ??_C@_04PNIAPCPG@O?$HM?$CFd?$AA@
  00703	8d 95 6c ff ff
	ff		 lea	 edx, DWORD PTR _szMsg$[ebp]
  00709	52		 push	 edx
  0070a	e8 00 00 00 00	 call	 _sprintf
  0070f	83 c4 0c	 add	 esp, 12			; 0000000cH

; 5733 : 								lssproto_TEACHER_SYSTEM_send(sockfd, szMsg);

  00712	8d 85 6c ff ff
	ff		 lea	 eax, DWORD PTR _szMsg$[ebp]
  00718	50		 push	 eax
  00719	8b 0d 00 00 00
	00		 mov	 ecx, DWORD PTR ?sockfd@@3IA ; sockfd
  0071f	51		 push	 ecx
  00720	e8 00 00 00 00	 call	 ?lssproto_TEACHER_SYSTEM_send@@YAXHPAD@Z ; lssproto_TEACHER_SYSTEM_send
  00725	83 c4 08	 add	 esp, 8
$LN46@TeacherSys:

; 5734 : 							}
; 5735 : 							DeathAction(pActTeacherSystemWnd);

  00728	a1 00 00 00 00	 mov	 eax, DWORD PTR ?pActTeacherSystemWnd@?1??TeacherSystemWndfunc@@YAXHPAD@Z@4PAUaction@@A
  0072d	50		 push	 eax
  0072e	e8 00 00 00 00	 call	 ?DeathAction@@YAXPAUaction@@@Z ; DeathAction
  00733	83 c4 04	 add	 esp, 4

; 5736 : 							pActTeacherSystemWnd = NULL;

  00736	c7 05 00 00 00
	00 00 00 00 00	 mov	 DWORD PTR ?pActTeacherSystemWnd@?1??TeacherSystemWndfunc@@YAXHPAD@Z@4PAUaction@@A, 0

; 5737 : 							sTeacherSystemBtn = 0;

  00740	33 c0		 xor	 eax, eax
  00742	66 a3 00 00 00
	00		 mov	 WORD PTR ?sTeacherSystemBtn@@3FA, ax ; sTeacherSystemBtn

; 5738 : 							bOpen = FALSE;

  00748	c7 05 00 00 00
	00 00 00 00 00	 mov	 DWORD PTR ?bOpen@?1??TeacherSystemWndfunc@@YAXHPAD@Z@4HA, 0

; 5739 : 							return;

  00752	e9 c8 04 00 00	 jmp	 $LN1@TeacherSys
$LN45@TeacherSys:

; 5740 : 						}
; 5741 : 					}

  00757	e9 51 ff ff ff	 jmp	 $LN13@TeacherSys
$LN44@TeacherSys:

; 5742 : 				}
; 5743 : 			}

  0075c	e9 89 04 00 00	 jmp	 $LN38@TeacherSys
$LN42@TeacherSys:

; 5744 : 			// 剧ず瀵煎璧
; 5745 : 			else if (flag == 2)

  00761	83 7d 08 02	 cmp	 DWORD PTR _flag$[ebp], 2
  00765	0f 85 18 03 00
	00		 jne	 $LN47@TeacherSys

; 5746 : 			{
; 5747 : 				sprintf(szMsg, "氅");

  0076b	68 00 00 00 00	 push	 OFFSET ??_C@_08OHAGCECG@?$LI?$OA?E?d?$LL?s?E?B?$AA@
  00770	8d 85 6c ff ff
	ff		 lea	 eax, DWORD PTR _szMsg$[ebp]
  00776	50		 push	 eax
  00777	e8 00 00 00 00	 call	 _sprintf
  0077c	83 c4 08	 add	 esp, 8

; 5748 : 				StockFontBuffer(winX + 130, winY + 20, FONT_PRIO_FRONT, FONT_PAL_WHITE, szMsg, 0);

  0077f	6a 00		 push	 0
  00781	8d 85 6c ff ff
	ff		 lea	 eax, DWORD PTR _szMsg$[ebp]
  00787	50		 push	 eax
  00788	6a 00		 push	 0
  0078a	6a 01		 push	 1
  0078c	8b 0d 00 00 00
	00		 mov	 ecx, DWORD PTR ?winY@?1??TeacherSystemWndfunc@@YAXHPAD@Z@4HA
  00792	83 c1 14	 add	 ecx, 20			; 00000014H
  00795	51		 push	 ecx
  00796	8b 15 00 00 00
	00		 mov	 edx, DWORD PTR ?winX@?1??TeacherSystemWndfunc@@YAXHPAD@Z@4HA
  0079c	81 c2 82 00 00
	00		 add	 edx, 130		; 00000082H
  007a2	52		 push	 edx
  007a3	e8 00 00 00 00	 call	 ?StockFontBuffer@@YAHHHDHPADH@Z ; StockFontBuffer
  007a8	83 c4 18	 add	 esp, 24			; 00000018H

; 5749 : 				sprintf(szMsg, "氅措锛%s", szBuf[0]);

  007ab	b8 20 00 00 00	 mov	 eax, 32			; 00000020H
  007b0	6b c8 00	 imul	 ecx, eax, 0
  007b3	81 c1 00 00 00
	00		 add	 ecx, OFFSET ?szBuf@?1??TeacherSystemWndfunc@@YAXHPAD@Z@4PAY0CA@DA
  007b9	51		 push	 ecx
  007ba	68 00 00 00 00	 push	 OFFSET ??_C@_0N@FGGIBINO@?$LI?$OA?E?d?$MA?L?$LI?$KH?$KD?$LK?$CFs?$AA@
  007bf	8d 95 6c ff ff
	ff		 lea	 edx, DWORD PTR _szMsg$[ebp]
  007c5	52		 push	 edx
  007c6	e8 00 00 00 00	 call	 _sprintf
  007cb	83 c4 0c	 add	 esp, 12			; 0000000cH

; 5750 : 				StockFontBuffer(winX + 20, winY + 36, FONT_PRIO_FRONT, FONT_PAL_WHITE, szMsg, 0);

  007ce	6a 00		 push	 0
  007d0	8d 85 6c ff ff
	ff		 lea	 eax, DWORD PTR _szMsg$[ebp]
  007d6	50		 push	 eax
  007d7	6a 00		 push	 0
  007d9	6a 01		 push	 1
  007db	8b 0d 00 00 00
	00		 mov	 ecx, DWORD PTR ?winY@?1??TeacherSystemWndfunc@@YAXHPAD@Z@4HA
  007e1	83 c1 24	 add	 ecx, 36			; 00000024H
  007e4	51		 push	 ecx
  007e5	8b 15 00 00 00
	00		 mov	 edx, DWORD PTR ?winX@?1??TeacherSystemWndfunc@@YAXHPAD@Z@4HA
  007eb	83 c2 14	 add	 edx, 20			; 00000014H
  007ee	52		 push	 edx
  007ef	e8 00 00 00 00	 call	 ?StockFontBuffer@@YAHHHDHPADH@Z ; StockFontBuffer
  007f4	83 c4 18	 add	 esp, 24			; 00000018H

; 5751 : 				StockFontBuffer(winX + 20, winY + 52, FONT_PRIO_FRONT, FONT_PAL_WHITE, "锛", 0);

  007f7	6a 00		 push	 0
  007f9	68 00 00 00 00	 push	 OFFSET ??_C@_06OLECLEEB@?$LL?s?E?B?$KD?$LK?$AA@
  007fe	6a 00		 push	 0
  00800	6a 01		 push	 1
  00802	a1 00 00 00 00	 mov	 eax, DWORD PTR ?winY@?1??TeacherSystemWndfunc@@YAXHPAD@Z@4HA
  00807	83 c0 34	 add	 eax, 52			; 00000034H
  0080a	50		 push	 eax
  0080b	8b 0d 00 00 00
	00		 mov	 ecx, DWORD PTR ?winX@?1??TeacherSystemWndfunc@@YAXHPAD@Z@4HA
  00811	83 c1 14	 add	 ecx, 20			; 00000014H
  00814	51		 push	 ecx
  00815	e8 00 00 00 00	 call	 ?StockFontBuffer@@YAHHHDHPADH@Z ; StockFontBuffer
  0081a	83 c4 18	 add	 esp, 24			; 00000018H

; 5752 : 				StockFontBuffer(winX + 66, winY + 52, FONT_PRIO_FRONT,

  0081d	83 3d 00 00 00
	00 01		 cmp	 DWORD PTR ?iOnline@?1??TeacherSystemWndfunc@@YAXHPAD@Z@4HA, 1
  00824	75 0c		 jne	 SHORT $LN62@TeacherSys
  00826	c7 85 a4 fe ff
	ff 00 00 00 00	 mov	 DWORD PTR tv418[ebp], OFFSET ??_C@_06KCABBADG@Online?$AA@
  00830	eb 0a		 jmp	 SHORT $LN63@TeacherSys
$LN62@TeacherSys:
  00832	c7 85 a4 fe ff
	ff 00 00 00 00	 mov	 DWORD PTR tv418[ebp], OFFSET ??_C@_07BMIEDOEC@Offline?$AA@
$LN63@TeacherSys:
  0083c	83 3d 00 00 00
	00 01		 cmp	 DWORD PTR ?iOnline@?1??TeacherSystemWndfunc@@YAXHPAD@Z@4HA, 1
  00843	75 0c		 jne	 SHORT $LN64@TeacherSys
  00845	c7 85 a0 fe ff
	ff 04 00 00 00	 mov	 DWORD PTR tv421[ebp], 4
  0084f	eb 0a		 jmp	 SHORT $LN65@TeacherSys
$LN64@TeacherSys:
  00851	c7 85 a0 fe ff
	ff 06 00 00 00	 mov	 DWORD PTR tv421[ebp], 6
$LN65@TeacherSys:
  0085b	6a 00		 push	 0
  0085d	8b 85 a4 fe ff
	ff		 mov	 eax, DWORD PTR tv418[ebp]
  00863	50		 push	 eax
  00864	8b 8d a0 fe ff
	ff		 mov	 ecx, DWORD PTR tv421[ebp]
  0086a	51		 push	 ecx
  0086b	6a 01		 push	 1
  0086d	8b 15 00 00 00
	00		 mov	 edx, DWORD PTR ?winY@?1??TeacherSystemWndfunc@@YAXHPAD@Z@4HA
  00873	83 c2 34	 add	 edx, 52			; 00000034H
  00876	52		 push	 edx
  00877	a1 00 00 00 00	 mov	 eax, DWORD PTR ?winX@?1??TeacherSystemWndfunc@@YAXHPAD@Z@4HA
  0087c	83 c0 42	 add	 eax, 66			; 00000042H
  0087f	50		 push	 eax
  00880	e8 00 00 00 00	 call	 ?StockFontBuffer@@YAHHHDHPADH@Z ; StockFontBuffer
  00885	83 c4 18	 add	 esp, 24			; 00000018H

; 5753 : 								iOnline == 1 ? FONT_PAL_YELLOW : FONT_PAL_RED, iOnline == 1 ? "Online" : "Offline", 0);
; 5754 : 				StockFontBuffer(winX + 148, winY + 52, FONT_PRIO_FRONT, FONT_PAL_WHITE, "锛", 0);

  00888	6a 00		 push	 0
  0088a	68 00 00 00 00	 push	 OFFSET ??_C@_06KFNAOAIJ@?$MA?$LK?G?O?$KD?$LK?$AA@
  0088f	6a 00		 push	 0
  00891	6a 01		 push	 1
  00893	a1 00 00 00 00	 mov	 eax, DWORD PTR ?winY@?1??TeacherSystemWndfunc@@YAXHPAD@Z@4HA
  00898	83 c0 34	 add	 eax, 52			; 00000034H
  0089b	50		 push	 eax
  0089c	8b 0d 00 00 00
	00		 mov	 ecx, DWORD PTR ?winX@?1??TeacherSystemWndfunc@@YAXHPAD@Z@4HA
  008a2	81 c1 94 00 00
	00		 add	 ecx, 148		; 00000094H
  008a8	51		 push	 ecx
  008a9	e8 00 00 00 00	 call	 ?StockFontBuffer@@YAHHHDHPADH@Z ; StockFontBuffer
  008ae	83 c4 18	 add	 esp, 24			; 00000018H

; 5755 : 				if (iOnline == 1)

  008b1	83 3d 00 00 00
	00 01		 cmp	 DWORD PTR ?iOnline@?1??TeacherSystemWndfunc@@YAXHPAD@Z@4HA, 1
  008b8	0f 85 8b 00 00
	00		 jne	 $LN49@TeacherSys

; 5756 : 				{
; 5757 : 					for (i = 0; i < MAX_GMSV; i++)

  008be	c7 45 f4 00 00
	00 00		 mov	 DWORD PTR _i$[ebp], 0
  008c5	eb 09		 jmp	 SHORT $LN18@TeacherSys
$LN16@TeacherSys:
  008c7	8b 45 f4	 mov	 eax, DWORD PTR _i$[ebp]
  008ca	83 c0 01	 add	 eax, 1
  008cd	89 45 f4	 mov	 DWORD PTR _i$[ebp], eax
$LN18@TeacherSys:
  008d0	81 7d f4 96 00
	00 00		 cmp	 DWORD PTR _i$[ebp], 150	; 00000096H
  008d7	7d 6e		 jge	 SHORT $LN17@TeacherSys

; 5758 : 					{
; 5759 : 						if (gmsv[i].used == '1')

  008d9	8b 45 f4	 mov	 eax, DWORD PTR _i$[ebp]
  008dc	c1 e0 08	 shl	 eax, 8
  008df	0f be 88 00 00
	00 00		 movsx	 ecx, BYTE PTR ?gmsv@@3PAUgameserver@@A[eax]
  008e6	83 f9 31	 cmp	 ecx, 49			; 00000031H
  008e9	75 5a		 jne	 SHORT $LN51@TeacherSys

; 5760 : 						{
; 5761 : 							if (strcmp(szBuf[1], gmsv[i].ipaddr) == 0)

  008eb	8b 45 f4	 mov	 eax, DWORD PTR _i$[ebp]
  008ee	c1 e0 08	 shl	 eax, 8
  008f1	05 01 00 00 00	 add	 eax, OFFSET ?gmsv@@3PAUgameserver@@A+1
  008f6	50		 push	 eax
  008f7	b9 20 00 00 00	 mov	 ecx, 32			; 00000020H
  008fc	c1 e1 00	 shl	 ecx, 0
  008ff	81 c1 00 00 00
	00		 add	 ecx, OFFSET ?szBuf@?1??TeacherSystemWndfunc@@YAXHPAD@Z@4PAY0CA@DA
  00905	51		 push	 ecx
  00906	e8 00 00 00 00	 call	 _strcmp
  0090b	83 c4 08	 add	 esp, 8
  0090e	85 c0		 test	 eax, eax
  00910	75 33		 jne	 SHORT $LN51@TeacherSys

; 5762 : 							{
; 5763 : 								StockFontBuffer(winX + 190, winY + 52, FONT_PRIO_FRONT, FONT_PAL_GREEN, gmsv[i].name, 0);

  00912	6a 00		 push	 0
  00914	8b 45 f4	 mov	 eax, DWORD PTR _i$[ebp]
  00917	c1 e0 08	 shl	 eax, 8
  0091a	05 c0 00 00 00	 add	 eax, OFFSET ?gmsv@@3PAUgameserver@@A+192
  0091f	50		 push	 eax
  00920	6a 05		 push	 5
  00922	6a 01		 push	 1
  00924	8b 0d 00 00 00
	00		 mov	 ecx, DWORD PTR ?winY@?1??TeacherSystemWndfunc@@YAXHPAD@Z@4HA
  0092a	83 c1 34	 add	 ecx, 52			; 00000034H
  0092d	51		 push	 ecx
  0092e	8b 15 00 00 00
	00		 mov	 edx, DWORD PTR ?winX@?1??TeacherSystemWndfunc@@YAXHPAD@Z@4HA
  00934	81 c2 be 00 00
	00		 add	 edx, 190		; 000000beH
  0093a	52		 push	 edx
  0093b	e8 00 00 00 00	 call	 ?StockFontBuffer@@YAHHHDHPADH@Z ; StockFontBuffer
  00940	83 c4 18	 add	 esp, 24			; 00000018H

; 5764 : 								break;

  00943	eb 02		 jmp	 SHORT $LN17@TeacherSys
$LN51@TeacherSys:

; 5765 : 							}
; 5766 : 						}
; 5767 : 					}

  00945	eb 80		 jmp	 SHORT $LN16@TeacherSys
$LN17@TeacherSys:

; 5768 : 				}
; 5769 : 				else

  00947	eb 29		 jmp	 SHORT $LN50@TeacherSys
$LN49@TeacherSys:

; 5770 : 					StockFontBuffer(winX + 190, winY + 52, FONT_PRIO_FRONT, FONT_PAL_WHITE, "", 0);

  00949	6a 00		 push	 0
  0094b	68 00 00 00 00	 push	 OFFSET ??_C@_04ELDJJCAA@?$LO?F?$LE?O?$AA@
  00950	6a 00		 push	 0
  00952	6a 01		 push	 1
  00954	a1 00 00 00 00	 mov	 eax, DWORD PTR ?winY@?1??TeacherSystemWndfunc@@YAXHPAD@Z@4HA
  00959	83 c0 34	 add	 eax, 52			; 00000034H
  0095c	50		 push	 eax
  0095d	8b 0d 00 00 00
	00		 mov	 ecx, DWORD PTR ?winX@?1??TeacherSystemWndfunc@@YAXHPAD@Z@4HA
  00963	81 c1 be 00 00
	00		 add	 ecx, 190		; 000000beH
  00969	51		 push	 ecx
  0096a	e8 00 00 00 00	 call	 ?StockFontBuffer@@YAHHHDHPADH@Z ; StockFontBuffer
  0096f	83 c4 18	 add	 esp, 24			; 00000018H
$LN50@TeacherSys:

; 5771 : 				iFontId[0] = StockFontBuffer(winX + 64, winY + winH * 30, FONT_PRIO_FRONT, FONT_PAL_YELLOW, "膦  耄", 2);

  00972	6a 02		 push	 2
  00974	68 00 00 00 00	 push	 OFFSET ??_C@_06MOLOGMLJ@?A?$LO?5?5?$LH?a?$AA@
  00979	6a 04		 push	 4
  0097b	6a 01		 push	 1
  0097d	6b 05 00 00 00
	00 1e		 imul	 eax, DWORD PTR ?winH@?1??TeacherSystemWndfunc@@YAXHPAD@Z@4HA, 30
  00984	03 05 00 00 00
	00		 add	 eax, DWORD PTR ?winY@?1??TeacherSystemWndfunc@@YAXHPAD@Z@4HA
  0098a	50		 push	 eax
  0098b	8b 0d 00 00 00
	00		 mov	 ecx, DWORD PTR ?winX@?1??TeacherSystemWndfunc@@YAXHPAD@Z@4HA
  00991	83 c1 40	 add	 ecx, 64			; 00000040H
  00994	51		 push	 ecx
  00995	e8 00 00 00 00	 call	 ?StockFontBuffer@@YAHHHDHPADH@Z ; StockFontBuffer
  0099a	83 c4 18	 add	 esp, 24			; 00000018H
  0099d	ba 04 00 00 00	 mov	 edx, 4
  009a2	6b ca 00	 imul	 ecx, edx, 0
  009a5	89 81 00 00 00
	00		 mov	 DWORD PTR ?iFontId@?1??TeacherSystemWndfunc@@YAXHPAD@Z@4PAHA[ecx], eax

; 5772 : 				iFontId[1] = StockFontBuffer(winX + (winW + 1) * 32, winY + winH * 30, FONT_PRIO_FRONT, FONT_PAL_YELLOW, "氅 り博", 2);

  009ab	6a 02		 push	 2
  009ad	68 00 00 00 00	 push	 OFFSET ??_C@_0M@KOAEBMHD@?$LI?$OA?E?d?$MA?G?5?$LN?G?$LA?$NN?$AA@
  009b2	6a 04		 push	 4
  009b4	6a 01		 push	 1
  009b6	6b 05 00 00 00
	00 1e		 imul	 eax, DWORD PTR ?winH@?1??TeacherSystemWndfunc@@YAXHPAD@Z@4HA, 30
  009bd	03 05 00 00 00
	00		 add	 eax, DWORD PTR ?winY@?1??TeacherSystemWndfunc@@YAXHPAD@Z@4HA
  009c3	50		 push	 eax
  009c4	8b 0d 00 00 00
	00		 mov	 ecx, DWORD PTR ?winW@?1??TeacherSystemWndfunc@@YAXHPAD@Z@4HA
  009ca	83 c1 01	 add	 ecx, 1
  009cd	c1 e1 05	 shl	 ecx, 5
  009d0	03 0d 00 00 00
	00		 add	 ecx, DWORD PTR ?winX@?1??TeacherSystemWndfunc@@YAXHPAD@Z@4HA
  009d6	51		 push	 ecx
  009d7	e8 00 00 00 00	 call	 ?StockFontBuffer@@YAHHHDHPADH@Z ; StockFontBuffer
  009dc	83 c4 18	 add	 esp, 24			; 00000018H
  009df	ba 04 00 00 00	 mov	 edx, 4
  009e4	c1 e2 00	 shl	 edx, 0
  009e7	89 82 00 00 00
	00		 mov	 DWORD PTR ?iFontId@?1??TeacherSystemWndfunc@@YAXHPAD@Z@4PAHA[edx], eax

; 5773 : 				if (mouse.onceState & MOUSE_LEFT_CRICK)

  009ed	a1 2c 00 00 00	 mov	 eax, DWORD PTR ?mouse@@3UMOUSE@@A+44
  009f2	83 e0 01	 and	 eax, 1
  009f5	0f 84 83 00 00
	00		 je	 $LN53@TeacherSys

; 5774 : 				{
; 5775 : 					for (i = 0; i < 2; i++)

  009fb	c7 45 f4 00 00
	00 00		 mov	 DWORD PTR _i$[ebp], 0
  00a02	eb 09		 jmp	 SHORT $LN21@TeacherSys
$LN19@TeacherSys:
  00a04	8b 45 f4	 mov	 eax, DWORD PTR _i$[ebp]
  00a07	83 c0 01	 add	 eax, 1
  00a0a	89 45 f4	 mov	 DWORD PTR _i$[ebp], eax
$LN21@TeacherSys:
  00a0d	83 7d f4 02	 cmp	 DWORD PTR _i$[ebp], 2
  00a11	7d 6b		 jge	 SHORT $LN53@TeacherSys

; 5776 : 					{
; 5777 : 						if (HitFontNo == iFontId[i])

  00a13	8b 45 f4	 mov	 eax, DWORD PTR _i$[ebp]
  00a16	8b 0d 00 00 00
	00		 mov	 ecx, DWORD PTR ?HitFontNo@@3HA ; HitFontNo
  00a1c	3b 0c 85 00 00
	00 00		 cmp	 ecx, DWORD PTR ?iFontId@?1??TeacherSystemWndfunc@@YAXHPAD@Z@4PAHA[eax*4]
  00a23	75 57		 jne	 SHORT $LN54@TeacherSys

; 5778 : 						{
; 5779 : 							play_se(217,320,240);

  00a25	68 f0 00 00 00	 push	 240			; 000000f0H
  00a2a	68 40 01 00 00	 push	 320			; 00000140H
  00a2f	68 d9 00 00 00	 push	 217			; 000000d9H
  00a34	e8 00 00 00 00	 call	 ?play_se@@YAHHHH@Z	; play_se
  00a39	83 c4 0c	 add	 esp, 12			; 0000000cH

; 5780 : 							sTeacherSystemBtn = 0;

  00a3c	33 c0		 xor	 eax, eax
  00a3e	66 a3 00 00 00
	00		 mov	 WORD PTR ?sTeacherSystemBtn@@3FA, ax ; sTeacherSystemBtn

; 5781 : 							// 旆瀵煎璧
; 5782 : 							if (i != 0)

  00a44	83 7d f4 00	 cmp	 DWORD PTR _i$[ebp], 0
  00a48	74 0b		 je	 SHORT $LN55@TeacherSys

; 5783 : 								sTeacherSystemBtn = 5;

  00a4a	b8 05 00 00 00	 mov	 eax, 5
  00a4f	66 a3 00 00 00
	00		 mov	 WORD PTR ?sTeacherSystemBtn@@3FA, ax ; sTeacherSystemBtn
$LN55@TeacherSys:

; 5784 : 							DeathAction(pActTeacherSystemWnd);

  00a55	a1 00 00 00 00	 mov	 eax, DWORD PTR ?pActTeacherSystemWnd@?1??TeacherSystemWndfunc@@YAXHPAD@Z@4PAUaction@@A
  00a5a	50		 push	 eax
  00a5b	e8 00 00 00 00	 call	 ?DeathAction@@YAXPAUaction@@@Z ; DeathAction
  00a60	83 c4 04	 add	 esp, 4

; 5785 : 							pActTeacherSystemWnd = NULL;

  00a63	c7 05 00 00 00
	00 00 00 00 00	 mov	 DWORD PTR ?pActTeacherSystemWnd@?1??TeacherSystemWndfunc@@YAXHPAD@Z@4PAUaction@@A, 0

; 5786 : 							bOpen = FALSE;

  00a6d	c7 05 00 00 00
	00 00 00 00 00	 mov	 DWORD PTR ?bOpen@?1??TeacherSystemWndfunc@@YAXHPAD@Z@4HA, 0

; 5787 : 							return;

  00a77	e9 a3 01 00 00	 jmp	 $LN1@TeacherSys
$LN54@TeacherSys:

; 5788 : 						}
; 5789 : 					}

  00a7c	eb 86		 jmp	 SHORT $LN19@TeacherSys
$LN53@TeacherSys:

; 5790 : 				}
; 5791 : 			}

  00a7e	e9 67 01 00 00	 jmp	 $LN38@TeacherSys
$LN47@TeacherSys:

; 5792 : 			// 纭璁ゆ瑕旆瀵煎
; 5793 : 			else if (flag == 3)

  00a83	83 7d 08 03	 cmp	 DWORD PTR _flag$[ebp], 3
  00a87	0f 85 5d 01 00
	00		 jne	 $LN38@TeacherSys

; 5794 : 			{
; 5795 : 				StockFontBuffer(winX + 20, winY + 20, FONT_PRIO_FRONT, FONT_PAL_WHITE, "氅毳检法氅措Гリ旃臧臧╇わ", 0);

  00a8d	6a 00		 push	 0
  00a8f	68 00 00 00 00	 push	 OFFSET ??_C@_0CF@CIJBHHMG@?$LI?$OA?E?d?$LI?$KG?C?k?$LM?R?G?O?$LI?i?$LI?E?$LH?B?$LA?$KB?D?$KB?$LA?$KB?$LA?$KI?$LM?R?G?U?$LE?O@
  00a94	6a 00		 push	 0
  00a96	6a 01		 push	 1
  00a98	a1 00 00 00 00	 mov	 eax, DWORD PTR ?winY@?1??TeacherSystemWndfunc@@YAXHPAD@Z@4HA
  00a9d	83 c0 14	 add	 eax, 20			; 00000014H
  00aa0	50		 push	 eax
  00aa1	8b 0d 00 00 00
	00		 mov	 ecx, DWORD PTR ?winX@?1??TeacherSystemWndfunc@@YAXHPAD@Z@4HA
  00aa7	83 c1 14	 add	 ecx, 20			; 00000014H
  00aaa	51		 push	 ecx
  00aab	e8 00 00 00 00	 call	 ?StockFontBuffer@@YAHHHDHPADH@Z ; StockFontBuffer
  00ab0	83 c4 18	 add	 esp, 24			; 00000018H

; 5796 : 				StockFontBuffer(winX + 20, winY + 40, FONT_PRIO_FRONT, FONT_PAL_WHITE, "氅毳检法瓴惦旯锛", 0);

  00ab3	6a 00		 push	 0
  00ab5	68 00 00 00 00	 push	 OFFSET ??_C@_0BJ@NKJNALFN@?$LI?$OA?E?d?$LI?$KG?C?k?$LM?R?G?O?$LN?C?$LA?Z?$LN?$MA?$LE?O?$LB?n?$KD?$LP?$AA@
  00aba	6a 00		 push	 0
  00abc	6a 01		 push	 1
  00abe	a1 00 00 00 00	 mov	 eax, DWORD PTR ?winY@?1??TeacherSystemWndfunc@@YAXHPAD@Z@4HA
  00ac3	83 c0 28	 add	 eax, 40			; 00000028H
  00ac6	50		 push	 eax
  00ac7	8b 0d 00 00 00
	00		 mov	 ecx, DWORD PTR ?winX@?1??TeacherSystemWndfunc@@YAXHPAD@Z@4HA
  00acd	83 c1 14	 add	 ecx, 20			; 00000014H
  00ad0	51		 push	 ecx
  00ad1	e8 00 00 00 00	 call	 ?StockFontBuffer@@YAHHHDHPADH@Z ; StockFontBuffer
  00ad6	83 c4 18	 add	 esp, 24			; 00000018H

; 5797 : 				iFontId[0] = StockFontBuffer(winX + 64, winY + winH * 30, FONT_PRIO_FRONT, FONT_PAL_YELLOW, "  ", 2);

  00ad9	6a 02		 push	 2
  00adb	68 00 00 00 00	 push	 OFFSET ??_C@_06BLFCGNEJ@?H?$KO?5?5?$MA?N?$AA@
  00ae0	6a 04		 push	 4
  00ae2	6a 01		 push	 1
  00ae4	6b 05 00 00 00
	00 1e		 imul	 eax, DWORD PTR ?winH@?1??TeacherSystemWndfunc@@YAXHPAD@Z@4HA, 30
  00aeb	03 05 00 00 00
	00		 add	 eax, DWORD PTR ?winY@?1??TeacherSystemWndfunc@@YAXHPAD@Z@4HA
  00af1	50		 push	 eax
  00af2	8b 0d 00 00 00
	00		 mov	 ecx, DWORD PTR ?winX@?1??TeacherSystemWndfunc@@YAXHPAD@Z@4HA
  00af8	83 c1 40	 add	 ecx, 64			; 00000040H
  00afb	51		 push	 ecx
  00afc	e8 00 00 00 00	 call	 ?StockFontBuffer@@YAHHHDHPADH@Z ; StockFontBuffer
  00b01	83 c4 18	 add	 esp, 24			; 00000018H
  00b04	ba 04 00 00 00	 mov	 edx, 4
  00b09	6b ca 00	 imul	 ecx, edx, 0
  00b0c	89 81 00 00 00
	00		 mov	 DWORD PTR ?iFontId@?1??TeacherSystemWndfunc@@YAXHPAD@Z@4PAHA[ecx], eax

; 5798 : 				iFontId[1] = StockFontBuffer(winX + (winW + 1) * 32, winY + winH * 30, FONT_PRIO_FRONT, FONT_PAL_YELLOW, "旆  ", 2);

  00b12	6a 02		 push	 2
  00b14	68 00 00 00 00	 push	 OFFSET ??_C@_06PNFMGOAF@?C?k?5?5?$LM?R?$AA@
  00b19	6a 04		 push	 4
  00b1b	6a 01		 push	 1
  00b1d	6b 05 00 00 00
	00 1e		 imul	 eax, DWORD PTR ?winH@?1??TeacherSystemWndfunc@@YAXHPAD@Z@4HA, 30
  00b24	03 05 00 00 00
	00		 add	 eax, DWORD PTR ?winY@?1??TeacherSystemWndfunc@@YAXHPAD@Z@4HA
  00b2a	50		 push	 eax
  00b2b	8b 0d 00 00 00
	00		 mov	 ecx, DWORD PTR ?winW@?1??TeacherSystemWndfunc@@YAXHPAD@Z@4HA
  00b31	83 c1 01	 add	 ecx, 1
  00b34	c1 e1 05	 shl	 ecx, 5
  00b37	03 0d 00 00 00
	00		 add	 ecx, DWORD PTR ?winX@?1??TeacherSystemWndfunc@@YAXHPAD@Z@4HA
  00b3d	51		 push	 ecx
  00b3e	e8 00 00 00 00	 call	 ?StockFontBuffer@@YAHHHDHPADH@Z ; StockFontBuffer
  00b43	83 c4 18	 add	 esp, 24			; 00000018H
  00b46	ba 04 00 00 00	 mov	 edx, 4
  00b4b	c1 e2 00	 shl	 edx, 0
  00b4e	89 82 00 00 00
	00		 mov	 DWORD PTR ?iFontId@?1??TeacherSystemWndfunc@@YAXHPAD@Z@4PAHA[edx], eax

; 5799 : 				if (mouse.onceState & MOUSE_LEFT_CRICK)

  00b54	a1 2c 00 00 00	 mov	 eax, DWORD PTR ?mouse@@3UMOUSE@@A+44
  00b59	83 e0 01	 and	 eax, 1
  00b5c	0f 84 88 00 00
	00		 je	 $LN38@TeacherSys

; 5800 : 				{
; 5801 : 					for (i = 0; i < 2; i++)

  00b62	c7 45 f4 00 00
	00 00		 mov	 DWORD PTR _i$[ebp], 0
  00b69	eb 09		 jmp	 SHORT $LN24@TeacherSys
$LN22@TeacherSys:
  00b6b	8b 45 f4	 mov	 eax, DWORD PTR _i$[ebp]
  00b6e	83 c0 01	 add	 eax, 1
  00b71	89 45 f4	 mov	 DWORD PTR _i$[ebp], eax
$LN24@TeacherSys:
  00b74	83 7d f4 02	 cmp	 DWORD PTR _i$[ebp], 2
  00b78	7d 70		 jge	 SHORT $LN38@TeacherSys

; 5802 : 					{
; 5803 : 						if (HitFontNo == iFontId[i])

  00b7a	8b 45 f4	 mov	 eax, DWORD PTR _i$[ebp]
  00b7d	8b 0d 00 00 00
	00		 mov	 ecx, DWORD PTR ?HitFontNo@@3HA ; HitFontNo
  00b83	3b 0c 85 00 00
	00 00		 cmp	 ecx, DWORD PTR ?iFontId@?1??TeacherSystemWndfunc@@YAXHPAD@Z@4PAHA[eax*4]
  00b8a	75 5c		 jne	 SHORT $LN58@TeacherSys

; 5804 : 						{
; 5805 : 							play_se(217,320,240);

  00b8c	68 f0 00 00 00	 push	 240			; 000000f0H
  00b91	68 40 01 00 00	 push	 320			; 00000140H
  00b96	68 d9 00 00 00	 push	 217			; 000000d9H
  00b9b	e8 00 00 00 00	 call	 ?play_se@@YAHHHH@Z	; play_se
  00ba0	83 c4 0c	 add	 esp, 12			; 0000000cH

; 5806 : 							// 旆瀵煎璧
; 5807 : 							if (i == 0)

  00ba3	83 7d f4 00	 cmp	 DWORD PTR _i$[ebp], 0
  00ba7	75 13		 jne	 SHORT $LN59@TeacherSys

; 5808 : 								lssproto_TEACHER_SYSTEM_send(sockfd, "C|");

  00ba9	68 00 00 00 00	 push	 OFFSET ??_C@_02PBOICDIO@C?$HM?$AA@
  00bae	a1 00 00 00 00	 mov	 eax, DWORD PTR ?sockfd@@3IA ; sockfd
  00bb3	50		 push	 eax
  00bb4	e8 00 00 00 00	 call	 ?lssproto_TEACHER_SYSTEM_send@@YAXHPAD@Z ; lssproto_TEACHER_SYSTEM_send
  00bb9	83 c4 08	 add	 esp, 8
$LN59@TeacherSys:

; 5809 : 							DeathAction(pActTeacherSystemWnd);

  00bbc	a1 00 00 00 00	 mov	 eax, DWORD PTR ?pActTeacherSystemWnd@?1??TeacherSystemWndfunc@@YAXHPAD@Z@4PAUaction@@A
  00bc1	50		 push	 eax
  00bc2	e8 00 00 00 00	 call	 ?DeathAction@@YAXPAUaction@@@Z ; DeathAction
  00bc7	83 c4 04	 add	 esp, 4

; 5810 : 							pActTeacherSystemWnd = NULL;

  00bca	c7 05 00 00 00
	00 00 00 00 00	 mov	 DWORD PTR ?pActTeacherSystemWnd@?1??TeacherSystemWndfunc@@YAXHPAD@Z@4PAUaction@@A, 0

; 5811 : 							sTeacherSystemBtn = 0;

  00bd4	33 c0		 xor	 eax, eax
  00bd6	66 a3 00 00 00
	00		 mov	 WORD PTR ?sTeacherSystemBtn@@3FA, ax ; sTeacherSystemBtn

; 5812 : 							bOpen = FALSE;

  00bdc	c7 05 00 00 00
	00 00 00 00 00	 mov	 DWORD PTR ?bOpen@?1??TeacherSystemWndfunc@@YAXHPAD@Z@4HA, 0

; 5813 : 							return;

  00be6	eb 37		 jmp	 SHORT $LN1@TeacherSys
$LN58@TeacherSys:

; 5814 : 						}
; 5815 : 					}

  00be8	eb 81		 jmp	 SHORT $LN22@TeacherSys
$LN38@TeacherSys:

; 5816 : 				}
; 5817 : 			}
; 5818 : 		}
; 5819 : 		else

  00bea	eb 33		 jmp	 SHORT $LN1@TeacherSys
$LN34@TeacherSys:

; 5820 : 		{
; 5821 : 			if (bOpen)

  00bec	83 3d 00 00 00
	00 00		 cmp	 DWORD PTR ?bOpen@?1??TeacherSystemWndfunc@@YAXHPAD@Z@4HA, 0
  00bf3	74 2a		 je	 SHORT $LN1@TeacherSys

; 5822 : 			{
; 5823 : 				bOpen = FALSE;

  00bf5	c7 05 00 00 00
	00 00 00 00 00	 mov	 DWORD PTR ?bOpen@?1??TeacherSystemWndfunc@@YAXHPAD@Z@4HA, 0

; 5824 : 				DeathAction(pActTeacherSystemWnd);

  00bff	a1 00 00 00 00	 mov	 eax, DWORD PTR ?pActTeacherSystemWnd@?1??TeacherSystemWndfunc@@YAXHPAD@Z@4PAUaction@@A
  00c04	50		 push	 eax
  00c05	e8 00 00 00 00	 call	 ?DeathAction@@YAXPAUaction@@@Z ; DeathAction
  00c0a	83 c4 04	 add	 esp, 4

; 5825 : 				pActTeacherSystemWnd = NULL;

  00c0d	c7 05 00 00 00
	00 00 00 00 00	 mov	 DWORD PTR ?pActTeacherSystemWnd@?1??TeacherSystemWndfunc@@YAXHPAD@Z@4PAUaction@@A, 0

; 5826 : 				sTeacherSystemBtn = 0;

  00c17	33 c0		 xor	 eax, eax
  00c19	66 a3 00 00 00
	00		 mov	 WORD PTR ?sTeacherSystemBtn@@3FA, ax ; sTeacherSystemBtn
$LN1@TeacherSys:

; 5827 : 			}
; 5828 : 		}
; 5829 : 	}
; 5830 : }

  00c1f	52		 push	 edx
  00c20	8b cd		 mov	 ecx, ebp
  00c22	50		 push	 eax
  00c23	8d 15 00 00 00
	00		 lea	 edx, DWORD PTR $LN68@TeacherSys
  00c29	e8 00 00 00 00	 call	 @_RTC_CheckStackVars@8
  00c2e	58		 pop	 eax
  00c2f	5a		 pop	 edx
  00c30	5f		 pop	 edi
  00c31	5e		 pop	 esi
  00c32	5b		 pop	 ebx
  00c33	8b 4d fc	 mov	 ecx, DWORD PTR __$ArrayPad$[ebp]
  00c36	33 cd		 xor	 ecx, ebp
  00c38	e8 00 00 00 00	 call	 @__security_check_cookie@4
  00c3d	81 c4 60 01 00
	00		 add	 esp, 352		; 00000160H
  00c43	3b ec		 cmp	 ebp, esp
  00c45	e8 00 00 00 00	 call	 __RTC_CheckEsp
  00c4a	8b e5		 mov	 esp, ebp
  00c4c	5d		 pop	 ebp
  00c4d	c3		 ret	 0
  00c4e	66 90		 npad	 2
$LN68@TeacherSys:
  00c50	01 00 00 00	 DD	 1
  00c54	00 00 00 00	 DD	 $LN67@TeacherSys
$LN67@TeacherSys:
  00c58	6c ff ff ff	 DD	 -148			; ffffff6cH
  00c5c	80 00 00 00	 DD	 128			; 00000080H
  00c60	00 00 00 00	 DD	 $LN66@TeacherSys
$LN66@TeacherSys:
  00c64	73		 DB	 115			; 00000073H
  00c65	7a		 DB	 122			; 0000007aH
  00c66	4d		 DB	 77			; 0000004dH
  00c67	73		 DB	 115			; 00000073H
  00c68	67		 DB	 103			; 00000067H
  00c69	00		 DB	 0
  00c6a	66 90		 npad	 2
$LN69@TeacherSys:
  00c6c	00 00 00 00	 DD	 $LN27@TeacherSys
  00c70	00 00 00 00	 DD	 $LN28@TeacherSys
  00c74	00 00 00 00	 DD	 $LN29@TeacherSys
  00c78	00 00 00 00	 DD	 $LN30@TeacherSys
?TeacherSystemWndfunc@@YAXHPAD@Z ENDP			; TeacherSystemWndfunc
_TEXT	ENDS
; Function compile flags: /Odtp /RTCsu /ZI
; File c:\users\administrator\desktop\????? ??\????? ??\client source code\system\field.cpp
;	COMDAT ?ReleaseSpecAnim@@YAXXZ
_TEXT	SEGMENT
_i$1 = -8						; size = 4
?ReleaseSpecAnim@@YAXXZ PROC				; ReleaseSpecAnim, COMDAT

; 5509 : {

  00000	55		 push	 ebp
  00001	8b ec		 mov	 ebp, esp
  00003	81 ec cc 00 00
	00		 sub	 esp, 204		; 000000ccH
  00009	53		 push	 ebx
  0000a	56		 push	 esi
  0000b	57		 push	 edi
  0000c	8d bd 34 ff ff
	ff		 lea	 edi, DWORD PTR [ebp-204]
  00012	b9 33 00 00 00	 mov	 ecx, 51			; 00000033H
  00017	b8 cc cc cc cc	 mov	 eax, -858993460		; ccccccccH
  0001c	f3 ab		 rep stosd

; 5510 : 	breadAniFlag = FALSE;

  0001e	c7 05 00 00 00
	00 00 00 00 00	 mov	 DWORD PTR ?breadAniFlag@@3HA, 0 ; breadAniFlag

; 5511 : 	for (int i = 0; i < ani_num; i++)

  00028	c7 45 f8 00 00
	00 00		 mov	 DWORD PTR _i$1[ebp], 0
  0002f	eb 09		 jmp	 SHORT $LN4@ReleaseSpe
$LN2@ReleaseSpe:
  00031	8b 45 f8	 mov	 eax, DWORD PTR _i$1[ebp]
  00034	83 c0 01	 add	 eax, 1
  00037	89 45 f8	 mov	 DWORD PTR _i$1[ebp], eax
$LN4@ReleaseSpe:
  0003a	8b 45 f8	 mov	 eax, DWORD PTR _i$1[ebp]
  0003d	3b 05 00 00 00
	00		 cmp	 eax, DWORD PTR ?ani_num@@3HA ; ani_num
  00043	0f 8d ab 00 00
	00		 jge	 $LN1@ReleaseSpe

; 5512 : 	{
; 5513 : 		if (ProduceXY[i][5] == 1)

  00049	6b 45 f8 1c	 imul	 eax, DWORD PTR _i$1[ebp], 28
  0004d	b9 04 00 00 00	 mov	 ecx, 4
  00052	6b d1 05	 imul	 edx, ecx, 5
  00055	83 bc 10 00 00
	00 00 01	 cmp	 DWORD PTR ?ProduceXY@@3PAY06HA[eax+edx], 1
  0005d	0f 85 8c 00 00
	00		 jne	 $LN5@ReleaseSpe

; 5514 : 		{
; 5515 : 			if (SPACT[ProduceXY[i][6]] != NULL)

  00063	6b 45 f8 1c	 imul	 eax, DWORD PTR _i$1[ebp], 28
  00067	b9 04 00 00 00	 mov	 ecx, 4
  0006c	6b d1 06	 imul	 edx, ecx, 6
  0006f	8b 84 10 00 00
	00 00		 mov	 eax, DWORD PTR ?ProduceXY@@3PAY06HA[eax+edx]
  00076	83 3c 85 00 00
	00 00 00	 cmp	 DWORD PTR ?SPACT@@3PAPAUaction@@A[eax*4], 0
  0007e	74 6f		 je	 SHORT $LN5@ReleaseSpe

; 5516 : 			{
; 5517 : 				DeathAction(SPACT[ProduceXY[i][6]]);

  00080	6b 45 f8 1c	 imul	 eax, DWORD PTR _i$1[ebp], 28
  00084	b9 04 00 00 00	 mov	 ecx, 4
  00089	6b d1 06	 imul	 edx, ecx, 6
  0008c	8b 84 10 00 00
	00 00		 mov	 eax, DWORD PTR ?ProduceXY@@3PAY06HA[eax+edx]
  00093	8b 0c 85 00 00
	00 00		 mov	 ecx, DWORD PTR ?SPACT@@3PAPAUaction@@A[eax*4]
  0009a	51		 push	 ecx
  0009b	e8 00 00 00 00	 call	 ?DeathAction@@YAXPAUaction@@@Z ; DeathAction
  000a0	83 c4 04	 add	 esp, 4

; 5518 : 				SPACT[ProduceXY[i][6]] = NULL ;

  000a3	6b 45 f8 1c	 imul	 eax, DWORD PTR _i$1[ebp], 28
  000a7	b9 04 00 00 00	 mov	 ecx, 4
  000ac	6b d1 06	 imul	 edx, ecx, 6
  000af	8b 84 10 00 00
	00 00		 mov	 eax, DWORD PTR ?ProduceXY@@3PAY06HA[eax+edx]
  000b6	c7 04 85 00 00
	00 00 00 00 00
	00		 mov	 DWORD PTR ?SPACT@@3PAPAUaction@@A[eax*4], 0

; 5519 : 				ProduceXY[i][6] = -1 ; 

  000c1	6b 45 f8 1c	 imul	 eax, DWORD PTR _i$1[ebp], 28
  000c5	b9 04 00 00 00	 mov	 ecx, 4
  000ca	6b d1 06	 imul	 edx, ecx, 6
  000cd	c7 84 10 00 00
	00 00 ff ff ff
	ff		 mov	 DWORD PTR ?ProduceXY@@3PAY06HA[eax+edx], -1

; 5520 : 				ProduceXY[i][5] = 0 ; 

  000d8	6b 45 f8 1c	 imul	 eax, DWORD PTR _i$1[ebp], 28
  000dc	b9 04 00 00 00	 mov	 ecx, 4
  000e1	6b d1 05	 imul	 edx, ecx, 5
  000e4	c7 84 10 00 00
	00 00 00 00 00
	00		 mov	 DWORD PTR ?ProduceXY@@3PAY06HA[eax+edx], 0
$LN5@ReleaseSpe:

; 5521 : 			}
; 5522 : 		}
; 5523 : 	}

  000ef	e9 3d ff ff ff	 jmp	 $LN2@ReleaseSpe
$LN1@ReleaseSpe:

; 5524 : }

  000f4	5f		 pop	 edi
  000f5	5e		 pop	 esi
  000f6	5b		 pop	 ebx
  000f7	81 c4 cc 00 00
	00		 add	 esp, 204		; 000000ccH
  000fd	3b ec		 cmp	 ebp, esp
  000ff	e8 00 00 00 00	 call	 __RTC_CheckEsp
  00104	8b e5		 mov	 esp, ebp
  00106	5d		 pop	 ebp
  00107	c3		 ret	 0
?ReleaseSpecAnim@@YAXXZ ENDP				; ReleaseSpecAnim
_TEXT	ENDS
; Function compile flags: /Odtp /RTCsu /ZI
; File c:\users\administrator\desktop\????? ??\????? ??\client source code\system\field.cpp
;	COMDAT ?SpecAnim@@YAXH@Z
_TEXT	SEGMENT
tv76 = -244						; size = 4
_my$1 = -44						; size = 4
_mx$2 = -32						; size = 4
_i$3 = -20						; size = 4
_j$ = -8						; size = 4
_floor$ = 8						; size = 4
?SpecAnim@@YAXH@Z PROC					; SpecAnim, COMDAT

; 5426 : {

  00000	55		 push	 ebp
  00001	8b ec		 mov	 ebp, esp
  00003	81 ec f4 00 00
	00		 sub	 esp, 244		; 000000f4H
  00009	53		 push	 ebx
  0000a	56		 push	 esi
  0000b	57		 push	 edi
  0000c	8d bd 0c ff ff
	ff		 lea	 edi, DWORD PTR [ebp-244]
  00012	b9 3d 00 00 00	 mov	 ecx, 61			; 0000003dH
  00017	b8 cc cc cc cc	 mov	 eax, -858993460		; ccccccccH
  0001c	f3 ab		 rep stosd

; 5427 : 	int j = 0;

  0001e	c7 45 f8 00 00
	00 00		 mov	 DWORD PTR _j$[ebp], 0

; 5428 : 
; 5429 : 	if (breadAniFlag && ProduceXY[0][5] == -2)

  00025	83 3d 00 00 00
	00 00		 cmp	 DWORD PTR ?breadAniFlag@@3HA, 0 ; breadAniFlag
  0002c	74 21		 je	 SHORT $LN10@SpecAnim
  0002e	b8 1c 00 00 00	 mov	 eax, 28			; 0000001cH
  00033	6b c8 00	 imul	 ecx, eax, 0
  00036	ba 04 00 00 00	 mov	 edx, 4
  0003b	6b c2 05	 imul	 eax, edx, 5
  0003e	83 bc 01 00 00
	00 00 fe	 cmp	 DWORD PTR ?ProduceXY@@3PAY06HA[ecx+eax], -2 ; fffffffeH
  00046	75 07		 jne	 SHORT $LN10@SpecAnim

; 5430 : 		return;

  00048	e9 66 05 00 00	 jmp	 $LN1@SpecAnim
  0004d	eb 1f		 jmp	 SHORT $LN12@SpecAnim
$LN10@SpecAnim:

; 5431 : 	else if (breadAniFlag == FALSE && ReadAniFile(floor) == -1)

  0004f	83 3d 00 00 00
	00 00		 cmp	 DWORD PTR ?breadAniFlag@@3HA, 0 ; breadAniFlag
  00056	75 16		 jne	 SHORT $LN12@SpecAnim
  00058	8b 45 08	 mov	 eax, DWORD PTR _floor$[ebp]
  0005b	50		 push	 eax
  0005c	e8 00 00 00 00	 call	 ?ReadAniFile@@YAHH@Z	; ReadAniFile
  00061	83 c4 04	 add	 esp, 4
  00064	83 f8 ff	 cmp	 eax, -1
  00067	75 05		 jne	 SHORT $LN12@SpecAnim

; 5432 : 		return;

  00069	e9 45 05 00 00	 jmp	 $LN1@SpecAnim
$LN12@SpecAnim:

; 5433 : 
; 5434 : 	for (int i = 0; i < ani_num; i ++)

  0006e	c7 45 ec 00 00
	00 00		 mov	 DWORD PTR _i$3[ebp], 0
  00075	eb 09		 jmp	 SHORT $LN4@SpecAnim
$LN2@SpecAnim:
  00077	8b 45 ec	 mov	 eax, DWORD PTR _i$3[ebp]
  0007a	83 c0 01	 add	 eax, 1
  0007d	89 45 ec	 mov	 DWORD PTR _i$3[ebp], eax
$LN4@SpecAnim:
  00080	8b 45 ec	 mov	 eax, DWORD PTR _i$3[ebp]
  00083	3b 05 00 00 00
	00		 cmp	 eax, DWORD PTR ?ani_num@@3HA ; ani_num
  00089	0f 8d 24 05 00
	00		 jge	 $LN3@SpecAnim

; 5435 : 	{
; 5436 : 		switch (SaTimeZoneNo)

  0008f	a1 00 00 00 00	 mov	 eax, DWORD PTR ?SaTimeZoneNo@@3HA ; SaTimeZoneNo
  00094	89 85 0c ff ff
	ff		 mov	 DWORD PTR tv76[ebp], eax
  0009a	83 bd 0c ff ff
	ff 03		 cmp	 DWORD PTR tv76[ebp], 3
  000a1	0f 87 1c 02 00
	00		 ja	 $LN5@SpecAnim
  000a7	8b 8d 0c ff ff
	ff		 mov	 ecx, DWORD PTR tv76[ebp]
  000ad	ff 24 8d 00 00
	00 00		 jmp	 DWORD PTR $LN31@SpecAnim[ecx*4]
$LN13@SpecAnim:

; 5437 : 		{
; 5438 : 		case LS_NIGHT:
; 5439 : 			if (ProduceXY[i][3] == 1 && ProduceXY[i][5] == 1)

  000b4	6b 45 ec 1c	 imul	 eax, DWORD PTR _i$3[ebp], 28
  000b8	b9 04 00 00 00	 mov	 ecx, 4
  000bd	6b d1 03	 imul	 edx, ecx, 3
  000c0	83 bc 10 00 00
	00 00 01	 cmp	 DWORD PTR ?ProduceXY@@3PAY06HA[eax+edx], 1
  000c8	0f 85 a8 00 00
	00		 jne	 $LN14@SpecAnim
  000ce	6b 45 ec 1c	 imul	 eax, DWORD PTR _i$3[ebp], 28
  000d2	b9 04 00 00 00	 mov	 ecx, 4
  000d7	6b d1 05	 imul	 edx, ecx, 5
  000da	83 bc 10 00 00
	00 00 01	 cmp	 DWORD PTR ?ProduceXY@@3PAY06HA[eax+edx], 1
  000e2	0f 85 8e 00 00
	00		 jne	 $LN14@SpecAnim

; 5440 : 			{
; 5441 : 				if (SPACT[ProduceXY[i][6]] != NULL)

  000e8	6b 45 ec 1c	 imul	 eax, DWORD PTR _i$3[ebp], 28
  000ec	b9 04 00 00 00	 mov	 ecx, 4
  000f1	6b d1 06	 imul	 edx, ecx, 6
  000f4	8b 84 10 00 00
	00 00		 mov	 eax, DWORD PTR ?ProduceXY@@3PAY06HA[eax+edx]
  000fb	83 3c 85 00 00
	00 00 00	 cmp	 DWORD PTR ?SPACT@@3PAPAUaction@@A[eax*4], 0
  00103	74 58		 je	 SHORT $LN16@SpecAnim

; 5442 : 				{
; 5443 : 					DeathAction(SPACT[ProduceXY[i][6]]);

  00105	6b 45 ec 1c	 imul	 eax, DWORD PTR _i$3[ebp], 28
  00109	b9 04 00 00 00	 mov	 ecx, 4
  0010e	6b d1 06	 imul	 edx, ecx, 6
  00111	8b 84 10 00 00
	00 00		 mov	 eax, DWORD PTR ?ProduceXY@@3PAY06HA[eax+edx]
  00118	8b 0c 85 00 00
	00 00		 mov	 ecx, DWORD PTR ?SPACT@@3PAPAUaction@@A[eax*4]
  0011f	51		 push	 ecx
  00120	e8 00 00 00 00	 call	 ?DeathAction@@YAXPAUaction@@@Z ; DeathAction
  00125	83 c4 04	 add	 esp, 4

; 5444 : 					SPACT[ProduceXY[i][6]] = NULL ;

  00128	6b 45 ec 1c	 imul	 eax, DWORD PTR _i$3[ebp], 28
  0012c	b9 04 00 00 00	 mov	 ecx, 4
  00131	6b d1 06	 imul	 edx, ecx, 6
  00134	8b 84 10 00 00
	00 00		 mov	 eax, DWORD PTR ?ProduceXY@@3PAY06HA[eax+edx]
  0013b	c7 04 85 00 00
	00 00 00 00 00
	00		 mov	 DWORD PTR ?SPACT@@3PAPAUaction@@A[eax*4], 0

; 5445 : 					ProduceXY[i][6] = -1 ; 

  00146	6b 45 ec 1c	 imul	 eax, DWORD PTR _i$3[ebp], 28
  0014a	b9 04 00 00 00	 mov	 ecx, 4
  0014f	6b d1 06	 imul	 edx, ecx, 6
  00152	c7 84 10 00 00
	00 00 ff ff ff
	ff		 mov	 DWORD PTR ?ProduceXY@@3PAY06HA[eax+edx], -1
$LN16@SpecAnim:

; 5446 : 				}
; 5447 : 				ProduceXY[i][5] = -1;

  0015d	6b 45 ec 1c	 imul	 eax, DWORD PTR _i$3[ebp], 28
  00161	b9 04 00 00 00	 mov	 ecx, 4
  00166	6b d1 05	 imul	 edx, ecx, 5
  00169	c7 84 10 00 00
	00 00 ff ff ff
	ff		 mov	 DWORD PTR ?ProduceXY@@3PAY06HA[eax+edx], -1
  00174	eb 43		 jmp	 SHORT $LN17@SpecAnim
$LN14@SpecAnim:

; 5448 : 			}
; 5449 : 			else if (ProduceXY[i][3] == 2 && ProduceXY[i][5] == -1)

  00176	6b 45 ec 1c	 imul	 eax, DWORD PTR _i$3[ebp], 28
  0017a	b9 04 00 00 00	 mov	 ecx, 4
  0017f	6b d1 03	 imul	 edx, ecx, 3
  00182	83 bc 10 00 00
	00 00 02	 cmp	 DWORD PTR ?ProduceXY@@3PAY06HA[eax+edx], 2
  0018a	75 2d		 jne	 SHORT $LN17@SpecAnim
  0018c	6b 45 ec 1c	 imul	 eax, DWORD PTR _i$3[ebp], 28
  00190	b9 04 00 00 00	 mov	 ecx, 4
  00195	6b d1 05	 imul	 edx, ecx, 5
  00198	83 bc 10 00 00
	00 00 ff	 cmp	 DWORD PTR ?ProduceXY@@3PAY06HA[eax+edx], -1
  001a0	75 17		 jne	 SHORT $LN17@SpecAnim

; 5450 : 				ProduceXY[i][5] = 0;

  001a2	6b 45 ec 1c	 imul	 eax, DWORD PTR _i$3[ebp], 28
  001a6	b9 04 00 00 00	 mov	 ecx, 4
  001ab	6b d1 05	 imul	 edx, ecx, 5
  001ae	c7 84 10 00 00
	00 00 00 00 00
	00		 mov	 DWORD PTR ?ProduceXY@@3PAY06HA[eax+edx], 0
$LN17@SpecAnim:

; 5451 : 			break;

  001b9	e9 05 01 00 00	 jmp	 $LN5@SpecAnim
$LN18@SpecAnim:

; 5452 : 		case LS_MORNING:
; 5453 : 		case LS_NOON:
; 5454 : 		case LS_EVENING:
; 5455 : 			if (ProduceXY[i][3] == 2 && ProduceXY[i][5] == 1)

  001be	6b 45 ec 1c	 imul	 eax, DWORD PTR _i$3[ebp], 28
  001c2	b9 04 00 00 00	 mov	 ecx, 4
  001c7	6b d1 03	 imul	 edx, ecx, 3
  001ca	83 bc 10 00 00
	00 00 02	 cmp	 DWORD PTR ?ProduceXY@@3PAY06HA[eax+edx], 2
  001d2	0f 85 a8 00 00
	00		 jne	 $LN19@SpecAnim
  001d8	6b 45 ec 1c	 imul	 eax, DWORD PTR _i$3[ebp], 28
  001dc	b9 04 00 00 00	 mov	 ecx, 4
  001e1	6b d1 05	 imul	 edx, ecx, 5
  001e4	83 bc 10 00 00
	00 00 01	 cmp	 DWORD PTR ?ProduceXY@@3PAY06HA[eax+edx], 1
  001ec	0f 85 8e 00 00
	00		 jne	 $LN19@SpecAnim

; 5456 : 			{
; 5457 : 				if (SPACT[ProduceXY[i][6]] != NULL)

  001f2	6b 45 ec 1c	 imul	 eax, DWORD PTR _i$3[ebp], 28
  001f6	b9 04 00 00 00	 mov	 ecx, 4
  001fb	6b d1 06	 imul	 edx, ecx, 6
  001fe	8b 84 10 00 00
	00 00		 mov	 eax, DWORD PTR ?ProduceXY@@3PAY06HA[eax+edx]
  00205	83 3c 85 00 00
	00 00 00	 cmp	 DWORD PTR ?SPACT@@3PAPAUaction@@A[eax*4], 0
  0020d	74 58		 je	 SHORT $LN21@SpecAnim

; 5458 : 				{
; 5459 : 					DeathAction(SPACT[ProduceXY[i][6]]);

  0020f	6b 45 ec 1c	 imul	 eax, DWORD PTR _i$3[ebp], 28
  00213	b9 04 00 00 00	 mov	 ecx, 4
  00218	6b d1 06	 imul	 edx, ecx, 6
  0021b	8b 84 10 00 00
	00 00		 mov	 eax, DWORD PTR ?ProduceXY@@3PAY06HA[eax+edx]
  00222	8b 0c 85 00 00
	00 00		 mov	 ecx, DWORD PTR ?SPACT@@3PAPAUaction@@A[eax*4]
  00229	51		 push	 ecx
  0022a	e8 00 00 00 00	 call	 ?DeathAction@@YAXPAUaction@@@Z ; DeathAction
  0022f	83 c4 04	 add	 esp, 4

; 5460 : 					SPACT[ProduceXY[i][6]] = NULL ;

  00232	6b 45 ec 1c	 imul	 eax, DWORD PTR _i$3[ebp], 28
  00236	b9 04 00 00 00	 mov	 ecx, 4
  0023b	6b d1 06	 imul	 edx, ecx, 6
  0023e	8b 84 10 00 00
	00 00		 mov	 eax, DWORD PTR ?ProduceXY@@3PAY06HA[eax+edx]
  00245	c7 04 85 00 00
	00 00 00 00 00
	00		 mov	 DWORD PTR ?SPACT@@3PAPAUaction@@A[eax*4], 0

; 5461 : 					ProduceXY[i][6] = -1 ; 

  00250	6b 45 ec 1c	 imul	 eax, DWORD PTR _i$3[ebp], 28
  00254	b9 04 00 00 00	 mov	 ecx, 4
  00259	6b d1 06	 imul	 edx, ecx, 6
  0025c	c7 84 10 00 00
	00 00 ff ff ff
	ff		 mov	 DWORD PTR ?ProduceXY@@3PAY06HA[eax+edx], -1
$LN21@SpecAnim:

; 5462 : 				}
; 5463 : 				ProduceXY[i][5] = -1;

  00267	6b 45 ec 1c	 imul	 eax, DWORD PTR _i$3[ebp], 28
  0026b	b9 04 00 00 00	 mov	 ecx, 4
  00270	6b d1 05	 imul	 edx, ecx, 5
  00273	c7 84 10 00 00
	00 00 ff ff ff
	ff		 mov	 DWORD PTR ?ProduceXY@@3PAY06HA[eax+edx], -1
  0027e	eb 43		 jmp	 SHORT $LN22@SpecAnim
$LN19@SpecAnim:

; 5464 : 			}
; 5465 : 			else if(ProduceXY[i][3] == 1 && ProduceXY[i][5] == -1)

  00280	6b 45 ec 1c	 imul	 eax, DWORD PTR _i$3[ebp], 28
  00284	b9 04 00 00 00	 mov	 ecx, 4
  00289	6b d1 03	 imul	 edx, ecx, 3
  0028c	83 bc 10 00 00
	00 00 01	 cmp	 DWORD PTR ?ProduceXY@@3PAY06HA[eax+edx], 1
  00294	75 2d		 jne	 SHORT $LN22@SpecAnim
  00296	6b 45 ec 1c	 imul	 eax, DWORD PTR _i$3[ebp], 28
  0029a	b9 04 00 00 00	 mov	 ecx, 4
  0029f	6b d1 05	 imul	 edx, ecx, 5
  002a2	83 bc 10 00 00
	00 00 ff	 cmp	 DWORD PTR ?ProduceXY@@3PAY06HA[eax+edx], -1
  002aa	75 17		 jne	 SHORT $LN22@SpecAnim

; 5466 : 				ProduceXY[i][5] = 0;

  002ac	6b 45 ec 1c	 imul	 eax, DWORD PTR _i$3[ebp], 28
  002b0	b9 04 00 00 00	 mov	 ecx, 4
  002b5	6b d1 05	 imul	 edx, ecx, 5
  002b8	c7 84 10 00 00
	00 00 00 00 00
	00		 mov	 DWORD PTR ?ProduceXY@@3PAY06HA[eax+edx], 0
$LN22@SpecAnim:
$LN5@SpecAnim:

; 5467 : 			break;
; 5468 : 		}
; 5469 : 		
; 5470 : 		if (ProduceXY[i][5] == 0)

  002c3	6b 45 ec 1c	 imul	 eax, DWORD PTR _i$3[ebp], 28
  002c7	b9 04 00 00 00	 mov	 ecx, 4
  002cc	6b d1 05	 imul	 edx, ecx, 5
  002cf	83 bc 10 00 00
	00 00 00	 cmp	 DWORD PTR ?ProduceXY@@3PAY06HA[eax+edx], 0
  002d7	0f 85 d1 02 00
	00		 jne	 $LN8@SpecAnim

; 5471 : 		{
; 5472 : 			for (j = 0; j < MAX_ANIM; j ++)

  002dd	c7 45 f8 00 00
	00 00		 mov	 DWORD PTR _j$[ebp], 0
  002e4	eb 09		 jmp	 SHORT $LN9@SpecAnim
$LN7@SpecAnim:
  002e6	8b 45 f8	 mov	 eax, DWORD PTR _j$[ebp]
  002e9	83 c0 01	 add	 eax, 1
  002ec	89 45 f8	 mov	 DWORD PTR _j$[ebp], eax
$LN9@SpecAnim:
  002ef	81 7d f8 00 01
	00 00		 cmp	 DWORD PTR _j$[ebp], 256	; 00000100H
  002f6	0f 8d b2 02 00
	00		 jge	 $LN8@SpecAnim

; 5473 : 			{
; 5474 : 				if (SPACT[j] == NULL)

  002fc	8b 45 f8	 mov	 eax, DWORD PTR _j$[ebp]
  002ff	83 3c 85 00 00
	00 00 00	 cmp	 DWORD PTR ?SPACT@@3PAPAUaction@@A[eax*4], 0
  00307	0f 85 9c 02 00
	00		 jne	 $LN24@SpecAnim

; 5475 : 				{
; 5476 : 					float mx, my;
; 5477 : 					//SPACT[j] = createWaterAnimation( ProduceXY[i][0] , ProduceXY[i][1] , ProduceXY[i][2] , ProduceXY[i][4] );
; 5478 : 					SPACT[j] = GetAction(DISP_PRIO_BOX3,sizeof(CHAREXTRA));

  0030d	6a 34		 push	 52			; 00000034H
  0030f	6a 6f		 push	 111			; 0000006fH
  00311	e8 00 00 00 00	 call	 ?GetAction@@YAPAUaction@@EI@Z ; GetAction
  00316	83 c4 08	 add	 esp, 8
  00319	8b 4d f8	 mov	 ecx, DWORD PTR _j$[ebp]
  0031c	89 04 8d 00 00
	00 00		 mov	 DWORD PTR ?SPACT@@3PAPAUaction@@A[ecx*4], eax

; 5479 : 					if (SPACT[j] == NULL)

  00323	8b 45 f8	 mov	 eax, DWORD PTR _j$[ebp]
  00326	83 3c 85 00 00
	00 00 00	 cmp	 DWORD PTR ?SPACT@@3PAPAUaction@@A[eax*4], 0
  0032e	75 05		 jne	 SHORT $LN25@SpecAnim

; 5480 : 						break;

  00330	e9 79 02 00 00	 jmp	 $LN8@SpecAnim
$LN25@SpecAnim:

; 5481 : 					SPACT[j]->anim_chr_no = ProduceXY[i][0];

  00335	6b 45 ec 1c	 imul	 eax, DWORD PTR _i$3[ebp], 28
  00339	b9 04 00 00 00	 mov	 ecx, 4
  0033e	6b d1 00	 imul	 edx, ecx, 0
  00341	8b 4d f8	 mov	 ecx, DWORD PTR _j$[ebp]
  00344	8b 0c 8d 00 00
	00 00		 mov	 ecx, DWORD PTR ?SPACT@@3PAPAUaction@@A[ecx*4]
  0034b	8b 94 10 00 00
	00 00		 mov	 edx, DWORD PTR ?ProduceXY@@3PAY06HA[eax+edx]
  00352	89 91 44 01 00
	00		 mov	 DWORD PTR [ecx+324], edx

; 5482 : 					SPACT[j]->anim_no = ANIM_STAND;

  00358	8b 45 f8	 mov	 eax, DWORD PTR _j$[ebp]
  0035b	8b 0c 85 00 00
	00 00		 mov	 ecx, DWORD PTR ?SPACT@@3PAPAUaction@@A[eax*4]
  00362	c7 81 4c 01 00
	00 03 00 00 00	 mov	 DWORD PTR [ecx+332], 3

; 5483 : 					SPACT[j]->anim_ang = 1;

  0036c	8b 45 f8	 mov	 eax, DWORD PTR _j$[ebp]
  0036f	8b 0c 85 00 00
	00 00		 mov	 ecx, DWORD PTR ?SPACT@@3PAPAUaction@@A[eax*4]
  00376	c7 81 54 01 00
	00 01 00 00 00	 mov	 DWORD PTR [ecx+340], 1

; 5484 : 					SPACT[j]->dispPrio = ProduceXY[i][4];

  00380	6b 45 ec 1c	 imul	 eax, DWORD PTR _i$3[ebp], 28
  00384	b9 04 00 00 00	 mov	 ecx, 4
  00389	c1 e1 02	 shl	 ecx, 2
  0038c	8b 55 f8	 mov	 edx, DWORD PTR _j$[ebp]
  0038f	8b 14 95 00 00
	00 00		 mov	 edx, DWORD PTR ?SPACT@@3PAPAUaction@@A[edx*4]
  00396	8a 84 08 00 00
	00 00		 mov	 al, BYTE PTR ?ProduceXY@@3PAY06HA[eax+ecx]
  0039d	88 42 15	 mov	 BYTE PTR [edx+21], al

; 5485 : 					SPACT[j]->atr |= ACT_ATR_HIT;

  003a0	8b 45 f8	 mov	 eax, DWORD PTR _j$[ebp]
  003a3	8b 0c 85 00 00
	00 00		 mov	 ecx, DWORD PTR ?SPACT@@3PAPAUaction@@A[eax*4]
  003aa	8b 91 a4 00 00
	00		 mov	 edx, DWORD PTR [ecx+164]
  003b0	83 ca 04	 or	 edx, 4
  003b3	8b 45 f8	 mov	 eax, DWORD PTR _j$[ebp]
  003b6	8b 0c 85 00 00
	00 00		 mov	 ecx, DWORD PTR ?SPACT@@3PAPAUaction@@A[eax*4]
  003bd	89 91 a4 00 00
	00		 mov	 DWORD PTR [ecx+164], edx

; 5486 : 					SPACT[j]->nextGx = ProduceXY[i][1];	

  003c3	6b 45 ec 1c	 imul	 eax, DWORD PTR _i$3[ebp], 28
  003c7	b9 04 00 00 00	 mov	 ecx, 4
  003cc	c1 e1 00	 shl	 ecx, 0
  003cf	8b 55 f8	 mov	 edx, DWORD PTR _j$[ebp]
  003d2	8b 14 95 00 00
	00 00		 mov	 edx, DWORD PTR ?SPACT@@3PAPAUaction@@A[edx*4]
  003d9	8b 84 08 00 00
	00 00		 mov	 eax, DWORD PTR ?ProduceXY@@3PAY06HA[eax+ecx]
  003e0	89 82 bc 00 00
	00		 mov	 DWORD PTR [edx+188], eax

; 5487 : 					SPACT[j]->nextGy = ProduceXY[i][2];

  003e6	6b 45 ec 1c	 imul	 eax, DWORD PTR _i$3[ebp], 28
  003ea	b9 04 00 00 00	 mov	 ecx, 4
  003ef	d1 e1		 shl	 ecx, 1
  003f1	8b 55 f8	 mov	 edx, DWORD PTR _j$[ebp]
  003f4	8b 14 95 00 00
	00 00		 mov	 edx, DWORD PTR ?SPACT@@3PAPAUaction@@A[edx*4]
  003fb	8b 84 08 00 00
	00 00		 mov	 eax, DWORD PTR ?ProduceXY@@3PAY06HA[eax+ecx]
  00402	89 82 c0 00 00
	00		 mov	 DWORD PTR [edx+192], eax

; 5488 : 					SPACT[j]->bufCount = 0;

  00408	8b 45 f8	 mov	 eax, DWORD PTR _j$[ebp]
  0040b	8b 0c 85 00 00
	00 00		 mov	 ecx, DWORD PTR ?SPACT@@3PAPAUaction@@A[eax*4]
  00412	33 d2		 xor	 edx, edx
  00414	66 89 91 14 01
	00 00		 mov	 WORD PTR [ecx+276], dx

; 5489 : 					SPACT[j]->gx = ProduceXY[i][1];

  0041b	6b 45 ec 1c	 imul	 eax, DWORD PTR _i$3[ebp], 28
  0041f	b9 04 00 00 00	 mov	 ecx, 4
  00424	c1 e1 00	 shl	 ecx, 0
  00427	8b 55 f8	 mov	 edx, DWORD PTR _j$[ebp]
  0042a	8b 14 95 00 00
	00 00		 mov	 edx, DWORD PTR ?SPACT@@3PAPAUaction@@A[edx*4]
  00431	8b 84 08 00 00
	00 00		 mov	 eax, DWORD PTR ?ProduceXY@@3PAY06HA[eax+ecx]
  00438	89 82 b4 00 00
	00		 mov	 DWORD PTR [edx+180], eax

; 5490 : 					SPACT[j]->gy = ProduceXY[i][2];

  0043e	6b 45 ec 1c	 imul	 eax, DWORD PTR _i$3[ebp], 28
  00442	b9 04 00 00 00	 mov	 ecx, 4
  00447	d1 e1		 shl	 ecx, 1
  00449	8b 55 f8	 mov	 edx, DWORD PTR _j$[ebp]
  0044c	8b 14 95 00 00
	00 00		 mov	 edx, DWORD PTR ?SPACT@@3PAPAUaction@@A[edx*4]
  00453	8b 84 08 00 00
	00 00		 mov	 eax, DWORD PTR ?ProduceXY@@3PAY06HA[eax+ecx]
  0045a	89 82 b8 00 00
	00		 mov	 DWORD PTR [edx+184], eax

; 5491 : 					SPACT[j]->mx = (float)ProduceXY[i][1] * GRID_SIZE;	

  00460	6b 45 ec 1c	 imul	 eax, DWORD PTR _i$3[ebp], 28
  00464	b9 04 00 00 00	 mov	 ecx, 4
  00469	c1 e1 00	 shl	 ecx, 0
  0046c	f3 0f 2a 84 08
	00 00 00 00	 cvtsi2ss xmm0, DWORD PTR ?ProduceXY@@3PAY06HA[eax+ecx]
  00475	f3 0f 59 05 00
	00 00 00	 mulss	 xmm0, DWORD PTR __real@42800000
  0047d	8b 55 f8	 mov	 edx, DWORD PTR _j$[ebp]
  00480	8b 04 95 00 00
	00 00		 mov	 eax, DWORD PTR ?SPACT@@3PAPAUaction@@A[edx*4]
  00487	f3 0f 11 80 18
	01 00 00	 movss	 DWORD PTR [eax+280], xmm0

; 5492 : 					SPACT[j]->my = (float)ProduceXY[i][2] * GRID_SIZE;

  0048f	6b 45 ec 1c	 imul	 eax, DWORD PTR _i$3[ebp], 28
  00493	b9 04 00 00 00	 mov	 ecx, 4
  00498	d1 e1		 shl	 ecx, 1
  0049a	f3 0f 2a 84 08
	00 00 00 00	 cvtsi2ss xmm0, DWORD PTR ?ProduceXY@@3PAY06HA[eax+ecx]
  004a3	f3 0f 59 05 00
	00 00 00	 mulss	 xmm0, DWORD PTR __real@42800000
  004ab	8b 55 f8	 mov	 edx, DWORD PTR _j$[ebp]
  004ae	8b 04 95 00 00
	00 00		 mov	 eax, DWORD PTR ?SPACT@@3PAPAUaction@@A[edx*4]
  004b5	f3 0f 11 80 1c
	01 00 00	 movss	 DWORD PTR [eax+284], xmm0

; 5493 : 					SPACT[j]->vx = 0;			

  004bd	8b 45 f8	 mov	 eax, DWORD PTR _j$[ebp]
  004c0	8b 0c 85 00 00
	00 00		 mov	 ecx, DWORD PTR ?SPACT@@3PAPAUaction@@A[eax*4]
  004c7	0f 57 c0	 xorps	 xmm0, xmm0
  004ca	f3 0f 11 81 20
	01 00 00	 movss	 DWORD PTR [ecx+288], xmm0

; 5494 : 					SPACT[j]->vy = 0;

  004d2	8b 45 f8	 mov	 eax, DWORD PTR _j$[ebp]
  004d5	8b 0c 85 00 00
	00 00		 mov	 ecx, DWORD PTR ?SPACT@@3PAPAUaction@@A[eax*4]
  004dc	0f 57 c0	 xorps	 xmm0, xmm0
  004df	f3 0f 11 81 24
	01 00 00	 movss	 DWORD PTR [ecx+292], xmm0

; 5495 : 					camMapToGamen(SPACT[j]->mx, SPACT[j]->my, &mx, &my);

  004e7	8d 45 d4	 lea	 eax, DWORD PTR _my$1[ebp]
  004ea	50		 push	 eax
  004eb	8d 4d e0	 lea	 ecx, DWORD PTR _mx$2[ebp]
  004ee	51		 push	 ecx
  004ef	8b 55 f8	 mov	 edx, DWORD PTR _j$[ebp]
  004f2	8b 04 95 00 00
	00 00		 mov	 eax, DWORD PTR ?SPACT@@3PAPAUaction@@A[edx*4]
  004f9	51		 push	 ecx
  004fa	f3 0f 10 80 1c
	01 00 00	 movss	 xmm0, DWORD PTR [eax+284]
  00502	f3 0f 11 04 24	 movss	 DWORD PTR [esp], xmm0
  00507	8b 4d f8	 mov	 ecx, DWORD PTR _j$[ebp]
  0050a	8b 14 8d 00 00
	00 00		 mov	 edx, DWORD PTR ?SPACT@@3PAPAUaction@@A[ecx*4]
  00511	51		 push	 ecx
  00512	f3 0f 10 82 18
	01 00 00	 movss	 xmm0, DWORD PTR [edx+280]
  0051a	f3 0f 11 04 24	 movss	 DWORD PTR [esp], xmm0
  0051f	e8 00 00 00 00	 call	 ?camMapToGamen@@YAXMMPAM0@Z ; camMapToGamen
  00524	83 c4 10	 add	 esp, 16			; 00000010H

; 5496 : 					SPACT[j]->x = (int)(mx+.5);

  00527	f3 0f 5a 45 e0	 cvtss2sd xmm0, DWORD PTR _mx$2[ebp]
  0052c	f2 0f 58 05 00
	00 00 00	 addsd	 xmm0, QWORD PTR __real@3fe0000000000000
  00534	f2 0f 2c c0	 cvttsd2si eax, xmm0
  00538	8b 4d f8	 mov	 ecx, DWORD PTR _j$[ebp]
  0053b	8b 14 8d 00 00
	00 00		 mov	 edx, DWORD PTR ?SPACT@@3PAPAUaction@@A[ecx*4]
  00542	89 42 18	 mov	 DWORD PTR [edx+24], eax

; 5497 : 					SPACT[j]->y = (int)(my+.5);

  00545	f3 0f 5a 45 d4	 cvtss2sd xmm0, DWORD PTR _my$1[ebp]
  0054a	f2 0f 58 05 00
	00 00 00	 addsd	 xmm0, QWORD PTR __real@3fe0000000000000
  00552	f2 0f 2c c0	 cvttsd2si eax, xmm0
  00556	8b 4d f8	 mov	 ecx, DWORD PTR _j$[ebp]
  00559	8b 14 8d 00 00
	00 00		 mov	 edx, DWORD PTR ?SPACT@@3PAPAUaction@@A[ecx*4]
  00560	89 42 1c	 mov	 DWORD PTR [edx+28], eax

; 5498 : 					pattern(SPACT[j],ANM_NOMAL_SPD,ANM_LOOP);

  00563	6a 00		 push	 0
  00565	6a 00		 push	 0
  00567	8b 45 f8	 mov	 eax, DWORD PTR _j$[ebp]
  0056a	8b 0c 85 00 00
	00 00		 mov	 ecx, DWORD PTR ?SPACT@@3PAPAUaction@@A[eax*4]
  00571	51		 push	 ecx
  00572	e8 00 00 00 00	 call	 ?pattern@@YAHPAUaction@@HH@Z ; pattern
  00577	83 c4 0c	 add	 esp, 12			; 0000000cH

; 5499 : 					ProduceXY[i][5] = 1;

  0057a	6b 45 ec 1c	 imul	 eax, DWORD PTR _i$3[ebp], 28
  0057e	b9 04 00 00 00	 mov	 ecx, 4
  00583	6b d1 05	 imul	 edx, ecx, 5
  00586	c7 84 10 00 00
	00 00 01 00 00
	00		 mov	 DWORD PTR ?ProduceXY@@3PAY06HA[eax+edx], 1

; 5500 : 					ProduceXY[i][6] = j;

  00591	6b 45 ec 1c	 imul	 eax, DWORD PTR _i$3[ebp], 28
  00595	b9 04 00 00 00	 mov	 ecx, 4
  0059a	6b d1 06	 imul	 edx, ecx, 6
  0059d	8b 4d f8	 mov	 ecx, DWORD PTR _j$[ebp]
  005a0	89 8c 10 00 00
	00 00		 mov	 DWORD PTR ?ProduceXY@@3PAY06HA[eax+edx], ecx

; 5501 : 					break;

  005a7	eb 05		 jmp	 SHORT $LN8@SpecAnim
$LN24@SpecAnim:

; 5502 : 				}
; 5503 : 			}

  005a9	e9 38 fd ff ff	 jmp	 $LN7@SpecAnim
$LN8@SpecAnim:

; 5504 : 		}
; 5505 : 	}

  005ae	e9 c4 fa ff ff	 jmp	 $LN2@SpecAnim
$LN3@SpecAnim:
$LN1@SpecAnim:

; 5506 : }

  005b3	52		 push	 edx
  005b4	8b cd		 mov	 ecx, ebp
  005b6	50		 push	 eax
  005b7	8d 15 00 00 00
	00		 lea	 edx, DWORD PTR $LN30@SpecAnim
  005bd	e8 00 00 00 00	 call	 @_RTC_CheckStackVars@8
  005c2	58		 pop	 eax
  005c3	5a		 pop	 edx
  005c4	5f		 pop	 edi
  005c5	5e		 pop	 esi
  005c6	5b		 pop	 ebx
  005c7	81 c4 f4 00 00
	00		 add	 esp, 244		; 000000f4H
  005cd	3b ec		 cmp	 ebp, esp
  005cf	e8 00 00 00 00	 call	 __RTC_CheckEsp
  005d4	8b e5		 mov	 esp, ebp
  005d6	5d		 pop	 ebp
  005d7	c3		 ret	 0
$LN30@SpecAnim:
  005d8	02 00 00 00	 DD	 2
  005dc	00 00 00 00	 DD	 $LN29@SpecAnim
$LN29@SpecAnim:
  005e0	e0 ff ff ff	 DD	 -32			; ffffffe0H
  005e4	04 00 00 00	 DD	 4
  005e8	00 00 00 00	 DD	 $LN27@SpecAnim
  005ec	d4 ff ff ff	 DD	 -44			; ffffffd4H
  005f0	04 00 00 00	 DD	 4
  005f4	00 00 00 00	 DD	 $LN28@SpecAnim
$LN28@SpecAnim:
  005f8	6d		 DB	 109			; 0000006dH
  005f9	79		 DB	 121			; 00000079H
  005fa	00		 DB	 0
$LN27@SpecAnim:
  005fb	6d		 DB	 109			; 0000006dH
  005fc	78		 DB	 120			; 00000078H
  005fd	00		 DB	 0
  005fe	66 90		 npad	 2
$LN31@SpecAnim:
  00600	00 00 00 00	 DD	 $LN18@SpecAnim
  00604	00 00 00 00	 DD	 $LN18@SpecAnim
  00608	00 00 00 00	 DD	 $LN13@SpecAnim
  0060c	00 00 00 00	 DD	 $LN18@SpecAnim
?SpecAnim@@YAXH@Z ENDP					; SpecAnim
_TEXT	ENDS
; Function compile flags: /Odtp /RTCsu /ZI
; File c:\users\administrator\desktop\????? ??\????? ??\client source code\system\field.cpp
;	COMDAT ?actionShortCutKeyProc@@YAXXZ
_TEXT	SEGMENT
_pushFlag$ = -84					; size = 4
_i$ = -72						; size = 4
_key$ = -60						; size = 52
__$ArrayPad$ = -4					; size = 4
?actionShortCutKeyProc@@YAXXZ PROC			; actionShortCutKeyProc, COMDAT

; 4673 : {

  00000	55		 push	 ebp
  00001	8b ec		 mov	 ebp, esp
  00003	81 ec 18 01 00
	00		 sub	 esp, 280		; 00000118H
  00009	53		 push	 ebx
  0000a	56		 push	 esi
  0000b	57		 push	 edi
  0000c	8d bd e8 fe ff
	ff		 lea	 edi, DWORD PTR [ebp-280]
  00012	b9 46 00 00 00	 mov	 ecx, 70			; 00000046H
  00017	b8 cc cc cc cc	 mov	 eax, -858993460		; ccccccccH
  0001c	f3 ab		 rep stosd
  0001e	a1 00 00 00 00	 mov	 eax, DWORD PTR ___security_cookie
  00023	33 c5		 xor	 eax, ebp
  00025	89 45 fc	 mov	 DWORD PTR __$ArrayPad$[ebp], eax

; 4674 : 	unsigned int key[] =
; 4675 : 	{
; 4676 : 		JOY_CTRL_0,				// 0

  00028	c7 45 c4 00 00
	20 00		 mov	 DWORD PTR _key$[ebp], 2097152 ; 00200000H

; 4677 : 		JOY_CTRL_CIRCUMFLEX,	// 1

  0002f	c7 45 c8 00 00
	80 00		 mov	 DWORD PTR _key$[ebp+4], 8388608 ; 00800000H

; 4678 : 		JOY_CTRL_9,				// 2

  00036	c7 45 cc 00 00
	10 00		 mov	 DWORD PTR _key$[ebp+8], 1048576 ; 00100000H

; 4679 : 		JOY_CTRL_7,				// 3

  0003d	c7 45 d0 00 00
	04 00		 mov	 DWORD PTR _key$[ebp+12], 262144 ; 00040000H

; 4680 : 		JOY_CTRL_8,				// 4

  00044	c7 45 d4 00 00
	08 00		 mov	 DWORD PTR _key$[ebp+16], 524288 ; 00080000H

; 4681 : 		JOY_CTRL_1,				// 5

  0004b	c7 45 d8 00 10
	00 00		 mov	 DWORD PTR _key$[ebp+20], 4096 ; 00001000H

; 4682 : 		JOY_CTRL_2,				// 6

  00052	c7 45 dc 00 20
	00 00		 mov	 DWORD PTR _key$[ebp+24], 8192 ; 00002000H

; 4683 : 		JOY_CTRL_4,				// 7

  00059	c7 45 e0 00 80
	00 00		 mov	 DWORD PTR _key$[ebp+28], 32768 ; 00008000H

; 4684 : 		JOY_CTRL_5,				// 8

  00060	c7 45 e4 00 00
	01 00		 mov	 DWORD PTR _key$[ebp+32], 65536 ; 00010000H

; 4685 : 		JOY_CTRL_6,				// 9

  00067	c7 45 e8 00 00
	02 00		 mov	 DWORD PTR _key$[ebp+36], 131072 ; 00020000H

; 4686 : 		JOY_CTRL_MINUS,			// 10

  0006e	c7 45 ec 00 00
	40 00		 mov	 DWORD PTR _key$[ebp+40], 4194304 ; 00400000H

; 4687 : 		JOY_CTRL_3,				// 11

  00075	c7 45 f0 00 40
	00 00		 mov	 DWORD PTR _key$[ebp+44], 16384 ; 00004000H

; 4688 : 		JOY_CTRL_YEN			// 12

  0007c	c7 45 f4 00 00
	00 10		 mov	 DWORD PTR _key$[ebp+48], 268435456 ; 10000000H

; 4689 : 	};
; 4690 : 	int i;
; 4691 : 	BOOL pushFlag = FALSE;

  00083	c7 45 ac 00 00
	00 00		 mov	 DWORD PTR _pushFlag$[ebp], 0

; 4692 : 
; 4693 : 	// ??????????????
; 4694 : 	if (moveRouteCnt != 0 || nowVx != 0 || nowVy != 0)

  0008a	0f bf 05 00 00
	00 00		 movsx	 eax, WORD PTR ?moveRouteCnt@@3FA ; moveRouteCnt
  00091	85 c0		 test	 eax, eax
  00093	75 2a		 jne	 SHORT $LN6@actionShor
  00095	f3 0f 10 05 00
	00 00 00	 movss	 xmm0, DWORD PTR ?nowVx@@3MA
  0009d	0f 2e 05 00 00
	00 00		 ucomiss xmm0, DWORD PTR __real@00000000
  000a4	9f		 lahf
  000a5	f6 c4 44	 test	 ah, 68			; 00000044H
  000a8	7a 15		 jp	 SHORT $LN6@actionShor
  000aa	f3 0f 10 05 00
	00 00 00	 movss	 xmm0, DWORD PTR ?nowVy@@3MA
  000b2	0f 2e 05 00 00
	00 00		 ucomiss xmm0, DWORD PTR __real@00000000
  000b9	9f		 lahf
  000ba	f6 c4 44	 test	 ah, 68			; 00000044H
  000bd	7b 05		 jnp	 SHORT $LN5@actionShor
$LN6@actionShor:

; 4695 : 		return;

  000bf	e9 e4 00 00 00	 jmp	 $LN1@actionShor
$LN5@actionShor:

; 4696 : 
; 4697 : 	for (i = 0; i < sizeof(key) / sizeof(unsigned int); i++)

  000c4	c7 45 b8 00 00
	00 00		 mov	 DWORD PTR _i$[ebp], 0
  000cb	eb 09		 jmp	 SHORT $LN4@actionShor
$LN2@actionShor:
  000cd	8b 45 b8	 mov	 eax, DWORD PTR _i$[ebp]
  000d0	83 c0 01	 add	 eax, 1
  000d3	89 45 b8	 mov	 DWORD PTR _i$[ebp], eax
$LN4@actionShor:
  000d6	83 7d b8 0d	 cmp	 DWORD PTR _i$[ebp], 13	; 0000000dH
  000da	73 22		 jae	 SHORT $LN3@actionShor

; 4698 : 	{
; 4699 : 		if (joy_trg[1] & key[i])

  000dc	b8 04 00 00 00	 mov	 eax, 4
  000e1	c1 e0 00	 shl	 eax, 0
  000e4	8b 4d b8	 mov	 ecx, DWORD PTR _i$[ebp]
  000e7	8b 90 00 00 00
	00		 mov	 edx, DWORD PTR ?joy_trg@@3PAKA[eax]
  000ed	23 54 8d c4	 and	 edx, DWORD PTR _key$[ebp+ecx*4]
  000f1	74 09		 je	 SHORT $LN7@actionShor

; 4700 : 		{
; 4701 : 			pushFlag = TRUE;

  000f3	c7 45 ac 01 00
	00 00		 mov	 DWORD PTR _pushFlag$[ebp], 1

; 4702 : 			break;

  000fa	eb 02		 jmp	 SHORT $LN3@actionShor
$LN7@actionShor:

; 4703 : 		}
; 4704 : 	}

  000fc	eb cf		 jmp	 SHORT $LN2@actionShor
$LN3@actionShor:

; 4705 : 
; 4706 : 	if (!pushFlag)

  000fe	83 7d ac 00	 cmp	 DWORD PTR _pushFlag$[ebp], 0
  00102	75 05		 jne	 SHORT $LN8@actionShor

; 4707 : 		return;

  00104	e9 9f 00 00 00	 jmp	 $LN1@actionShor
$LN8@actionShor:

; 4708 : 
; 4709 : 	if (eventWarpSendFlag == 0 && eventEnemySendFlag == 0 && sendEnFlag == 0)

  00109	0f bf 05 00 00
	00 00		 movsx	 eax, WORD PTR ?eventWarpSendFlag@@3FA ; eventWarpSendFlag
  00110	85 c0		 test	 eax, eax
  00112	0f 85 90 00 00
	00		 jne	 $LN10@actionShor
  00118	0f bf 05 00 00
	00 00		 movsx	 eax, WORD PTR ?eventEnemySendFlag@@3FA ; eventEnemySendFlag
  0011f	85 c0		 test	 eax, eax
  00121	0f 85 81 00 00
	00		 jne	 $LN10@actionShor
  00127	0f bf 05 00 00
	00 00		 movsx	 eax, WORD PTR ?sendEnFlag@@3FA ; sendEnFlag
  0012e	85 c0		 test	 eax, eax
  00130	75 76		 jne	 SHORT $LN10@actionShor

; 4710 : 	{
; 4711 : 		if (fieldBtnPushTime + FIELD_BTN_PUSH_WAIT < TimeGetTime())// ??

  00132	8b 35 00 00 00
	00		 mov	 esi, DWORD PTR ?fieldBtnPushTime@@3IA ; fieldBtnPushTime
  00138	81 c6 f4 01 00
	00		 add	 esi, 500		; 000001f4H
  0013e	e8 00 00 00 00	 call	 ?TimeGetTime@@YAIXZ	; TimeGetTime
  00143	3b f0		 cmp	 esi, eax
  00145	73 61		 jae	 SHORT $LN10@actionShor

; 4712 : 		{
; 4713 : 			if (bNewServer)

  00147	83 3d 00 00 00
	00 00		 cmp	 DWORD PTR ?bNewServer@@3HA, 0 ; bNewServer
  0014e	74 22		 je	 SHORT $LN11@actionShor

; 4714 : 				lssproto_AC_send(sockfd, nowGx, nowGy, i);

  00150	8b 45 b8	 mov	 eax, DWORD PTR _i$[ebp]
  00153	50		 push	 eax
  00154	8b 0d 00 00 00
	00		 mov	 ecx, DWORD PTR ?nowGy@@3HA ; nowGy
  0015a	51		 push	 ecx
  0015b	8b 15 00 00 00
	00		 mov	 edx, DWORD PTR ?nowGx@@3HA ; nowGx
  00161	52		 push	 edx
  00162	a1 00 00 00 00	 mov	 eax, DWORD PTR ?sockfd@@3IA ; sockfd
  00167	50		 push	 eax
  00168	e8 00 00 00 00	 call	 ?lssproto_AC_send@@YAXHHHH@Z ; lssproto_AC_send
  0016d	83 c4 10	 add	 esp, 16			; 00000010H

; 4715 : 			else

  00170	eb 20		 jmp	 SHORT $LN12@actionShor
$LN11@actionShor:

; 4716 : 				old_lssproto_AC_send(sockfd, nowGx, nowGy, i);

  00172	8b 45 b8	 mov	 eax, DWORD PTR _i$[ebp]
  00175	50		 push	 eax
  00176	8b 0d 00 00 00
	00		 mov	 ecx, DWORD PTR ?nowGy@@3HA ; nowGy
  0017c	51		 push	 ecx
  0017d	8b 15 00 00 00
	00		 mov	 edx, DWORD PTR ?nowGx@@3HA ; nowGx
  00183	52		 push	 edx
  00184	a1 00 00 00 00	 mov	 eax, DWORD PTR ?sockfd@@3IA ; sockfd
  00189	50		 push	 eax
  0018a	e8 00 00 00 00	 call	 ?old_lssproto_AC_send@@YAXHHHH@Z ; old_lssproto_AC_send
  0018f	83 c4 10	 add	 esp, 16			; 00000010H
$LN12@actionShor:

; 4717 : 			setPcAction(i);

  00192	8b 45 b8	 mov	 eax, DWORD PTR _i$[ebp]
  00195	50		 push	 eax
  00196	e8 00 00 00 00	 call	 ?setPcAction@@YAXH@Z	; setPcAction
  0019b	83 c4 04	 add	 esp, 4

; 4718 : 			fieldBtnPushTime = TimeGetTime();

  0019e	e8 00 00 00 00	 call	 ?TimeGetTime@@YAIXZ	; TimeGetTime
  001a3	a3 00 00 00 00	 mov	 DWORD PTR ?fieldBtnPushTime@@3IA, eax ; fieldBtnPushTime
$LN10@actionShor:
$LN1@actionShor:

; 4719 : 		}
; 4720 : 	}
; 4721 : }

  001a8	52		 push	 edx
  001a9	8b cd		 mov	 ecx, ebp
  001ab	50		 push	 eax
  001ac	8d 15 00 00 00
	00		 lea	 edx, DWORD PTR $LN16@actionShor
  001b2	e8 00 00 00 00	 call	 @_RTC_CheckStackVars@8
  001b7	58		 pop	 eax
  001b8	5a		 pop	 edx
  001b9	5f		 pop	 edi
  001ba	5e		 pop	 esi
  001bb	5b		 pop	 ebx
  001bc	8b 4d fc	 mov	 ecx, DWORD PTR __$ArrayPad$[ebp]
  001bf	33 cd		 xor	 ecx, ebp
  001c1	e8 00 00 00 00	 call	 @__security_check_cookie@4
  001c6	81 c4 18 01 00
	00		 add	 esp, 280		; 00000118H
  001cc	3b ec		 cmp	 ebp, esp
  001ce	e8 00 00 00 00	 call	 __RTC_CheckEsp
  001d3	8b e5		 mov	 esp, ebp
  001d5	5d		 pop	 ebp
  001d6	c3		 ret	 0
  001d7	90		 npad	 1
$LN16@actionShor:
  001d8	01 00 00 00	 DD	 1
  001dc	00 00 00 00	 DD	 $LN15@actionShor
$LN15@actionShor:
  001e0	c4 ff ff ff	 DD	 -60			; ffffffc4H
  001e4	34 00 00 00	 DD	 52			; 00000034H
  001e8	00 00 00 00	 DD	 $LN14@actionShor
$LN14@actionShor:
  001ec	6b		 DB	 107			; 0000006bH
  001ed	65		 DB	 101			; 00000065H
  001ee	79		 DB	 121			; 00000079H
  001ef	00		 DB	 0
?actionShortCutKeyProc@@YAXXZ ENDP			; actionShortCutKeyProc
_TEXT	ENDS
; Function compile flags: /Odtp /RTCsu /ZI
; File c:\users\administrator\desktop\????? ??\????? ??\client source code\system\field.cpp
;	COMDAT ?drawFieldInfoWin@@YAXXZ
_TEXT	SEGMENT
_yy$ = -20						; size = 4
_xx$ = -8						; size = 4
?drawFieldInfoWin@@YAXXZ PROC				; drawFieldInfoWin, COMDAT

; 4616 : {

  00000	55		 push	 ebp
  00001	8b ec		 mov	 ebp, esp
  00003	81 ec d8 00 00
	00		 sub	 esp, 216		; 000000d8H
  00009	53		 push	 ebx
  0000a	56		 push	 esi
  0000b	57		 push	 edi
  0000c	8d bd 28 ff ff
	ff		 lea	 edi, DWORD PTR [ebp-216]
  00012	b9 36 00 00 00	 mov	 ecx, 54			; 00000036H
  00017	b8 cc cc cc cc	 mov	 eax, -858993460		; ccccccccH
  0001c	f3 ab		 rep stosd

; 4617 : 	static ACTION *ptActMenuWin = NULL;
; 4618 : 	static int x, y, w, h;
; 4619 : 	int xx, yy;
; 4620 : 
; 4621 : 	if (fieldInfoTime == 0){

  0001e	83 3d 00 00 00
	00 00		 cmp	 DWORD PTR ?fieldInfoTime@@3IA, 0 ; fieldInfoTime
  00025	75 26		 jne	 SHORT $LN2@drawFieldI

; 4622 : 		if (ptActMenuWin != NULL){

  00027	83 3d 00 00 00
	00 00		 cmp	 DWORD PTR ?ptActMenuWin@?1??drawFieldInfoWin@@YAXXZ@4PAUaction@@A, 0
  0002e	74 18		 je	 SHORT $LN3@drawFieldI

; 4623 : 			DeathAction(ptActMenuWin);

  00030	a1 00 00 00 00	 mov	 eax, DWORD PTR ?ptActMenuWin@?1??drawFieldInfoWin@@YAXXZ@4PAUaction@@A
  00035	50		 push	 eax
  00036	e8 00 00 00 00	 call	 ?DeathAction@@YAXPAUaction@@@Z ; DeathAction
  0003b	83 c4 04	 add	 esp, 4

; 4624 : 			ptActMenuWin = NULL;

  0003e	c7 05 00 00 00
	00 00 00 00 00	 mov	 DWORD PTR ?ptActMenuWin@?1??drawFieldInfoWin@@YAXXZ@4PAUaction@@A, 0
$LN3@drawFieldI:

; 4625 : 		}
; 4626 : 		return;

  00048	e9 ca 01 00 00	 jmp	 $LN1@drawFieldI
$LN2@drawFieldI:

; 4627 : 	}
; 4628 : 
; 4629 : 	if (MapWmdFlagBak)

  0004d	83 3d 00 00 00
	00 00		 cmp	 DWORD PTR ?MapWmdFlagBak@@3HA, 0 ; MapWmdFlagBak
  00054	74 05		 je	 SHORT $LN4@drawFieldI

; 4630 : 		return;

  00056	e9 bc 01 00 00	 jmp	 $LN1@drawFieldI
$LN4@drawFieldI:

; 4631 : 
; 4632 : 	if (ptActMenuWin == NULL){

  0005b	83 3d 00 00 00
	00 00		 cmp	 DWORD PTR ?ptActMenuWin@?1??drawFieldInfoWin@@YAXXZ@4PAUaction@@A, 0
  00062	0f 85 da 00 00
	00		 jne	 $LN5@drawFieldI

; 4633 : 		if (CheckMenuFlag()){

  00068	e8 00 00 00 00	 call	 ?CheckMenuFlag@@YAHXZ	; CheckMenuFlag
  0006d	85 c0		 test	 eax, eax
  0006f	74 1b		 je	 SHORT $LN6@drawFieldI

; 4634 : 			if (MenuToggleFlag & JOY_CTRL_M)

  00071	a1 00 00 00 00	 mov	 eax, DWORD PTR ?MenuToggleFlag@@3IA ; MenuToggleFlag
  00076	25 00 00 00 40	 and	 eax, 1073741824		; 40000000H
  0007b	74 0a		 je	 SHORT $LN7@drawFieldI

; 4635 : 				MapWmdFlagBak = TRUE;

  0007d	c7 05 00 00 00
	00 01 00 00 00	 mov	 DWORD PTR ?MapWmdFlagBak@@3HA, 1 ; MapWmdFlagBak
$LN7@drawFieldI:

; 4636 : 			InitMenu2();

  00087	e8 00 00 00 00	 call	 ?InitMenu2@@YAXXZ	; InitMenu2
$LN6@drawFieldI:

; 4637 : 		}
; 4638 : 		closeEtcSwitch();

  0008c	e8 00 00 00 00	 call	 ?closeEtcSwitch@@YAXXZ	; closeEtcSwitch

; 4639 : 		closeCharActionAnimeChange();

  00091	e8 00 00 00 00	 call	 ?closeCharActionAnimeChange@@YAXXZ ; closeCharActionAnimeChange

; 4640 : 		closeJoinChannelWN();

  00096	e8 00 00 00 00	 call	 ?closeJoinChannelWN@@YAXXZ ; closeJoinChannelWN

; 4641 : 
; 4642 : 		// ??????
; 4643 : 		w = 4;

  0009b	c7 05 00 00 00
	00 04 00 00 00	 mov	 DWORD PTR ?w@?1??drawFieldInfoWin@@YAXXZ@4HA, 4

; 4644 : 		h = 2;

  000a5	c7 05 00 00 00
	00 02 00 00 00	 mov	 DWORD PTR ?h@?1??drawFieldInfoWin@@YAXXZ@4HA, 2

; 4645 : 		x = (640 - w * 64) / 2;

  000af	a1 00 00 00 00	 mov	 eax, DWORD PTR ?w@?1??drawFieldInfoWin@@YAXXZ@4HA
  000b4	c1 e0 06	 shl	 eax, 6
  000b7	b9 80 02 00 00	 mov	 ecx, 640		; 00000280H
  000bc	2b c8		 sub	 ecx, eax
  000be	8b c1		 mov	 eax, ecx
  000c0	99		 cdq
  000c1	2b c2		 sub	 eax, edx
  000c3	d1 f8		 sar	 eax, 1
  000c5	a3 00 00 00 00	 mov	 DWORD PTR ?x@?1??drawFieldInfoWin@@YAXXZ@4HA, eax

; 4646 : 		y = (456 - h * 48) / 2;

  000ca	6b 05 00 00 00
	00 30		 imul	 eax, DWORD PTR ?h@?1??drawFieldInfoWin@@YAXXZ@4HA, 48
  000d1	b9 c8 01 00 00	 mov	 ecx, 456		; 000001c8H
  000d6	2b c8		 sub	 ecx, eax
  000d8	8b c1		 mov	 eax, ecx
  000da	99		 cdq
  000db	2b c2		 sub	 eax, edx
  000dd	d1 f8		 sar	 eax, 1
  000df	a3 00 00 00 00	 mov	 DWORD PTR ?y@?1??drawFieldInfoWin@@YAXXZ@4HA, eax

; 4647 : 		ptActMenuWin = MakeWindowDisp(x, y, w, h, NULL, 3);

  000e4	6a 03		 push	 3
  000e6	6a 00		 push	 0
  000e8	a1 00 00 00 00	 mov	 eax, DWORD PTR ?h@?1??drawFieldInfoWin@@YAXXZ@4HA
  000ed	50		 push	 eax
  000ee	8b 0d 00 00 00
	00		 mov	 ecx, DWORD PTR ?w@?1??drawFieldInfoWin@@YAXXZ@4HA
  000f4	51		 push	 ecx
  000f5	8b 15 00 00 00
	00		 mov	 edx, DWORD PTR ?y@?1??drawFieldInfoWin@@YAXXZ@4HA
  000fb	52		 push	 edx
  000fc	a1 00 00 00 00	 mov	 eax, DWORD PTR ?x@?1??drawFieldInfoWin@@YAXXZ@4HA
  00101	50		 push	 eax
  00102	e8 00 00 00 00	 call	 ?MakeWindowDisp@@YAPAUaction@@HHHHHH@Z ; MakeWindowDisp
  00107	83 c4 18	 add	 esp, 24			; 00000018H
  0010a	a3 00 00 00 00	 mov	 DWORD PTR ?ptActMenuWin@?1??drawFieldInfoWin@@YAXXZ@4PAUaction@@A, eax

; 4648 : #ifdef _NEW_RESOMODE  //800 600妯″
; 4649 : 		x = ptActMenuWin->x;

  0010f	a1 00 00 00 00	 mov	 eax, DWORD PTR ?ptActMenuWin@?1??drawFieldInfoWin@@YAXXZ@4PAUaction@@A
  00114	8b 48 18	 mov	 ecx, DWORD PTR [eax+24]
  00117	89 0d 00 00 00
	00		 mov	 DWORD PTR ?x@?1??drawFieldInfoWin@@YAXXZ@4HA, ecx

; 4650 : 		y = ptActMenuWin->y;

  0011d	a1 00 00 00 00	 mov	 eax, DWORD PTR ?ptActMenuWin@?1??drawFieldInfoWin@@YAXXZ@4PAUaction@@A
  00122	8b 48 1c	 mov	 ecx, DWORD PTR [eax+28]
  00125	89 0d 00 00 00
	00		 mov	 DWORD PTR ?y@?1??drawFieldInfoWin@@YAXXZ@4HA, ecx

; 4651 : #endif
; 4652 : 		play_se(202, 320, 240);	// ????????

  0012b	68 f0 00 00 00	 push	 240			; 000000f0H
  00130	68 40 01 00 00	 push	 320			; 00000140H
  00135	68 ca 00 00 00	 push	 202			; 000000caH
  0013a	e8 00 00 00 00	 call	 ?play_se@@YAHHHH@Z	; play_se
  0013f	83 c4 0c	 add	 esp, 12			; 0000000cH
$LN5@drawFieldI:

; 4653 : 	}
; 4654 : 
; 4655 : 	if (ptActMenuWin != NULL){

  00142	83 3d 00 00 00
	00 00		 cmp	 DWORD PTR ?ptActMenuWin@?1??drawFieldInfoWin@@YAXXZ@4PAUaction@@A, 0
  00149	0f 84 c8 00 00
	00		 je	 $LN1@drawFieldI

; 4656 : 		if (fieldInfoTime + 2000 <= TimeGetTime() || CheckMenuFlag() || windowTypeWN > -1 || actBtn == 1 || menuBtn == 1){

  0014f	8b 35 00 00 00
	00		 mov	 esi, DWORD PTR ?fieldInfoTime@@3IA ; fieldInfoTime
  00155	81 c6 d0 07 00
	00		 add	 esi, 2000		; 000007d0H
  0015b	e8 00 00 00 00	 call	 ?TimeGetTime@@YAIXZ	; TimeGetTime
  00160	3b f0		 cmp	 esi, eax
  00162	76 2a		 jbe	 SHORT $LN10@drawFieldI
  00164	e8 00 00 00 00	 call	 ?CheckMenuFlag@@YAHXZ	; CheckMenuFlag
  00169	85 c0		 test	 eax, eax
  0016b	75 21		 jne	 SHORT $LN10@drawFieldI
  0016d	83 3d 00 00 00
	00 ff		 cmp	 DWORD PTR ?windowTypeWN@@3HA, -1 ; windowTypeWN
  00174	7f 18		 jg	 SHORT $LN10@drawFieldI
  00176	0f bf 05 00 00
	00 00		 movsx	 eax, WORD PTR ?actBtn@@3FA ; actBtn
  0017d	83 f8 01	 cmp	 eax, 1
  00180	74 0c		 je	 SHORT $LN10@drawFieldI
  00182	0f bf 05 00 00
	00 00		 movsx	 eax, WORD PTR ?menuBtn@@3FA ; menuBtn
  00189	83 f8 01	 cmp	 eax, 1
  0018c	75 24		 jne	 SHORT $LN9@drawFieldI
$LN10@drawFieldI:

; 4657 : 			DeathAction(ptActMenuWin);

  0018e	a1 00 00 00 00	 mov	 eax, DWORD PTR ?ptActMenuWin@?1??drawFieldInfoWin@@YAXXZ@4PAUaction@@A
  00193	50		 push	 eax
  00194	e8 00 00 00 00	 call	 ?DeathAction@@YAXPAUaction@@@Z ; DeathAction
  00199	83 c4 04	 add	 esp, 4

; 4658 : 			ptActMenuWin = NULL;

  0019c	c7 05 00 00 00
	00 00 00 00 00	 mov	 DWORD PTR ?ptActMenuWin@?1??drawFieldInfoWin@@YAXXZ@4PAUaction@@A, 0

; 4659 : 			fieldInfoTime = 0;

  001a6	c7 05 00 00 00
	00 00 00 00 00	 mov	 DWORD PTR ?fieldInfoTime@@3IA, 0 ; fieldInfoTime

; 4660 : 			return;

  001b0	eb 65		 jmp	 SHORT $LN1@drawFieldI
$LN9@drawFieldI:

; 4661 : 		}
; 4662 : 		if (ptActMenuWin->hp >= 1){

  001b2	a1 00 00 00 00	 mov	 eax, DWORD PTR ?ptActMenuWin@?1??drawFieldInfoWin@@YAXXZ@4PAUaction@@A
  001b7	83 78 78 01	 cmp	 DWORD PTR [eax+120], 1
  001bb	7c 5a		 jl	 SHORT $LN1@drawFieldI

; 4663 : 			xx = (w * 64 - strlen(nowFloorName) / 2 * 17) / 2;

  001bd	8b 35 00 00 00
	00		 mov	 esi, DWORD PTR ?w@?1??drawFieldInfoWin@@YAXXZ@4HA
  001c3	c1 e6 06	 shl	 esi, 6
  001c6	68 00 00 00 00	 push	 OFFSET ?nowFloorName@@3PADA ; nowFloorName
  001cb	e8 00 00 00 00	 call	 _strlen
  001d0	83 c4 04	 add	 esp, 4
  001d3	d1 e8		 shr	 eax, 1
  001d5	6b c0 11	 imul	 eax, eax, 17
  001d8	2b f0		 sub	 esi, eax
  001da	d1 ee		 shr	 esi, 1
  001dc	89 75 f8	 mov	 DWORD PTR _xx$[ebp], esi

; 4664 : 			yy = (h * 48 - 16) / 2;

  001df	6b 05 00 00 00
	00 30		 imul	 eax, DWORD PTR ?h@?1??drawFieldInfoWin@@YAXXZ@4HA, 48
  001e6	83 e8 10	 sub	 eax, 16			; 00000010H
  001e9	99		 cdq
  001ea	2b c2		 sub	 eax, edx
  001ec	d1 f8		 sar	 eax, 1
  001ee	89 45 ec	 mov	 DWORD PTR _yy$[ebp], eax

; 4665 : 			StockFontBuffer(x + xx, y + yy, FONT_PRIO_FRONT, FONT_PAL_WHITE, nowFloorName, 0);

  001f1	6a 00		 push	 0
  001f3	68 00 00 00 00	 push	 OFFSET ?nowFloorName@@3PADA ; nowFloorName
  001f8	6a 00		 push	 0
  001fa	6a 01		 push	 1
  001fc	a1 00 00 00 00	 mov	 eax, DWORD PTR ?y@?1??drawFieldInfoWin@@YAXXZ@4HA
  00201	03 45 ec	 add	 eax, DWORD PTR _yy$[ebp]
  00204	50		 push	 eax
  00205	8b 0d 00 00 00
	00		 mov	 ecx, DWORD PTR ?x@?1??drawFieldInfoWin@@YAXXZ@4HA
  0020b	03 4d f8	 add	 ecx, DWORD PTR _xx$[ebp]
  0020e	51		 push	 ecx
  0020f	e8 00 00 00 00	 call	 ?StockFontBuffer@@YAHHHDHPADH@Z ; StockFontBuffer
  00214	83 c4 18	 add	 esp, 24			; 00000018H
$LN1@drawFieldI:

; 4666 : 		}
; 4667 : 	}
; 4668 : 	
; 4669 : }

  00217	5f		 pop	 edi
  00218	5e		 pop	 esi
  00219	5b		 pop	 ebx
  0021a	81 c4 d8 00 00
	00		 add	 esp, 216		; 000000d8H
  00220	3b ec		 cmp	 ebp, esp
  00222	e8 00 00 00 00	 call	 __RTC_CheckEsp
  00227	8b e5		 mov	 esp, ebp
  00229	5d		 pop	 ebp
  0022a	c3		 ret	 0
?drawFieldInfoWin@@YAXXZ ENDP				; drawFieldInfoWin
_TEXT	ENDS
; Function compile flags: /Odtp /RTCsu /ZI
; File c:\users\administrator\desktop\????? ??\????? ??\client source code\system\field.cpp
;	COMDAT ?disconnectServer@@YAHXZ
_TEXT	SEGMENT
_yy$ = -72						; size = 4
_xx$ = -60						; size = 4
_ret$ = -48						; size = 4
_i$ = -36						; size = 4
_msg$ = -24						; size = 8
_id$ = -8						; size = 4
?disconnectServer@@YAHXZ PROC				; disconnectServer, COMDAT

; 4537 : {

  00000	55		 push	 ebp
  00001	8b ec		 mov	 ebp, esp
  00003	81 ec 0c 01 00
	00		 sub	 esp, 268		; 0000010cH
  00009	53		 push	 ebx
  0000a	56		 push	 esi
  0000b	57		 push	 edi
  0000c	8d bd f4 fe ff
	ff		 lea	 edi, DWORD PTR [ebp-268]
  00012	b9 43 00 00 00	 mov	 ecx, 67			; 00000043H
  00017	b8 cc cc cc cc	 mov	 eax, -858993460		; ccccccccH
  0001c	f3 ab		 rep stosd

; 4538 : 	static ACTION *ptActMenuWin = NULL;
; 4539 : 	static int x, y, w, h;
; 4540 : 	static int btnId[1];
; 4541 : 	int id = 0;

  0001e	c7 45 f8 00 00
	00 00		 mov	 DWORD PTR _id$[ebp], 0

; 4542 : 	char *msg[] =
; 4543 : 	{
; 4544 : 		"氩 瓣舶 膦耄惦.",

  00025	c7 45 e8 00 00
	00 00		 mov	 DWORD PTR _msg$[ebp], OFFSET ??_C@_0CA@MLBEKKLD@?$LM?$KN?$LJ?v?$LP?M?$MA?G?5?$LP?$KM?$LA?a?$MA?L?5?A?$LO?$LH?a?$LF?G?$LO?z?$LN?$MA?$LE?O?$LE?Y?4?$AA@

; 4545 : 		"臧瓴惦旯锛"

  0002c	c7 45 ec 00 00
	00 00		 mov	 DWORD PTR _msg$[ebp+4], OFFSET ??_C@_0BD@KHIHNLHO@?$LF?$LJ?$LO?F?$LA?$KB?$LN?C?$LA?Z?$LN?$MA?$LE?O?$LB?n?$KD?$LP?$AA@

; 4546 : 	};
; 4547 : 	int i;
; 4548 : 	int ret = 0;

  00033	c7 45 d0 00 00
	00 00		 mov	 DWORD PTR _ret$[ebp], 0

; 4549 : 	int xx, yy;
; 4550 : 
; 4551 : 	if (ptActMenuWin == NULL)

  0003a	83 3d 00 00 00
	00 00		 cmp	 DWORD PTR ?ptActMenuWin@?1??disconnectServer@@YAHXZ@4PAUaction@@A, 0
  00041	0f 85 d5 00 00
	00		 jne	 $LN8@disconnect

; 4552 : 	{
; 4553 : 		if (CheckMenuFlag()){

  00047	e8 00 00 00 00	 call	 ?CheckMenuFlag@@YAHXZ	; CheckMenuFlag
  0004c	85 c0		 test	 eax, eax
  0004e	74 05		 je	 SHORT $LN9@disconnect

; 4554 : 			InitMenu2();

  00050	e8 00 00 00 00	 call	 ?InitMenu2@@YAXXZ	; InitMenu2
$LN9@disconnect:

; 4555 : 		}
; 4556 : 		closeEtcSwitch();

  00055	e8 00 00 00 00	 call	 ?closeEtcSwitch@@YAXXZ	; closeEtcSwitch

; 4557 : 		closeCharActionAnimeChange();

  0005a	e8 00 00 00 00	 call	 ?closeCharActionAnimeChange@@YAXXZ ; closeCharActionAnimeChange

; 4558 : 		closeJoinChannelWN();

  0005f	e8 00 00 00 00	 call	 ?closeJoinChannelWN@@YAXXZ ; closeJoinChannelWN

; 4559 : 
; 4560 : 		for (i = 0; i < sizeof(btnId) / sizeof(int); i++){

  00064	c7 45 dc 00 00
	00 00		 mov	 DWORD PTR _i$[ebp], 0
  0006b	eb 09		 jmp	 SHORT $LN4@disconnect
$LN2@disconnect:
  0006d	8b 45 dc	 mov	 eax, DWORD PTR _i$[ebp]
  00070	83 c0 01	 add	 eax, 1
  00073	89 45 dc	 mov	 DWORD PTR _i$[ebp], eax
$LN4@disconnect:
  00076	83 7d dc 01	 cmp	 DWORD PTR _i$[ebp], 1
  0007a	73 10		 jae	 SHORT $LN3@disconnect

; 4561 : 			btnId[i] = -2;

  0007c	8b 45 dc	 mov	 eax, DWORD PTR _i$[ebp]
  0007f	c7 04 85 00 00
	00 00 fe ff ff
	ff		 mov	 DWORD PTR ?btnId@?1??disconnectServer@@YAHXZ@4PAHA[eax*4], -2 ; fffffffeH

; 4562 : 		}

  0008a	eb e1		 jmp	 SHORT $LN2@disconnect
$LN3@disconnect:

; 4563 : 		w = 5;

  0008c	c7 05 00 00 00
	00 05 00 00 00	 mov	 DWORD PTR ?w@?1??disconnectServer@@YAHXZ@4HA, 5

; 4564 : 		h = 3;

  00096	c7 05 00 00 00
	00 03 00 00 00	 mov	 DWORD PTR ?h@?1??disconnectServer@@YAHXZ@4HA, 3

; 4565 : 		x = (640 - w * 64) / 2;

  000a0	a1 00 00 00 00	 mov	 eax, DWORD PTR ?w@?1??disconnectServer@@YAHXZ@4HA
  000a5	c1 e0 06	 shl	 eax, 6
  000a8	b9 80 02 00 00	 mov	 ecx, 640		; 00000280H
  000ad	2b c8		 sub	 ecx, eax
  000af	8b c1		 mov	 eax, ecx
  000b1	99		 cdq
  000b2	2b c2		 sub	 eax, edx
  000b4	d1 f8		 sar	 eax, 1
  000b6	a3 00 00 00 00	 mov	 DWORD PTR ?x@?1??disconnectServer@@YAHXZ@4HA, eax

; 4566 : 		y = (456 - h * 48) / 2;

  000bb	6b 05 00 00 00
	00 30		 imul	 eax, DWORD PTR ?h@?1??disconnectServer@@YAHXZ@4HA, 48
  000c2	b9 c8 01 00 00	 mov	 ecx, 456		; 000001c8H
  000c7	2b c8		 sub	 ecx, eax
  000c9	8b c1		 mov	 eax, ecx
  000cb	99		 cdq
  000cc	2b c2		 sub	 eax, edx
  000ce	d1 f8		 sar	 eax, 1
  000d0	a3 00 00 00 00	 mov	 DWORD PTR ?y@?1??disconnectServer@@YAHXZ@4HA, eax

; 4567 : 		ptActMenuWin = MakeWindowDisp(x, y, w, h, NULL, 1);

  000d5	6a 01		 push	 1
  000d7	6a 00		 push	 0
  000d9	a1 00 00 00 00	 mov	 eax, DWORD PTR ?h@?1??disconnectServer@@YAHXZ@4HA
  000de	50		 push	 eax
  000df	8b 0d 00 00 00
	00		 mov	 ecx, DWORD PTR ?w@?1??disconnectServer@@YAHXZ@4HA
  000e5	51		 push	 ecx
  000e6	8b 15 00 00 00
	00		 mov	 edx, DWORD PTR ?y@?1??disconnectServer@@YAHXZ@4HA
  000ec	52		 push	 edx
  000ed	a1 00 00 00 00	 mov	 eax, DWORD PTR ?x@?1??disconnectServer@@YAHXZ@4HA
  000f2	50		 push	 eax
  000f3	e8 00 00 00 00	 call	 ?MakeWindowDisp@@YAPAUaction@@HHHHHH@Z ; MakeWindowDisp
  000f8	83 c4 18	 add	 esp, 24			; 00000018H
  000fb	a3 00 00 00 00	 mov	 DWORD PTR ?ptActMenuWin@?1??disconnectServer@@YAHXZ@4PAUaction@@A, eax

; 4568 : #ifdef _NEW_RESOMODE  //800 600妯″
; 4569 : 		x = ptActMenuWin->x;

  00100	a1 00 00 00 00	 mov	 eax, DWORD PTR ?ptActMenuWin@?1??disconnectServer@@YAHXZ@4PAUaction@@A
  00105	8b 48 18	 mov	 ecx, DWORD PTR [eax+24]
  00108	89 0d 00 00 00
	00		 mov	 DWORD PTR ?x@?1??disconnectServer@@YAHXZ@4HA, ecx

; 4570 : 		y = ptActMenuWin->y;

  0010e	a1 00 00 00 00	 mov	 eax, DWORD PTR ?ptActMenuWin@?1??disconnectServer@@YAHXZ@4PAUaction@@A
  00113	8b 48 1c	 mov	 ecx, DWORD PTR [eax+28]
  00116	89 0d 00 00 00
	00		 mov	 DWORD PTR ?y@?1??disconnectServer@@YAHXZ@4HA, ecx
$LN8@disconnect:

; 4571 : #endif
; 4572 : 	}
; 4573 : #ifdef _NB_绾胯ㄩ杩
; 4574 : 	extern int ㄧ婚寮;
; 4575 : #endif
; 4576 : 	if (ptActMenuWin != NULL){

  0011c	83 3d 00 00 00
	00 00		 cmp	 DWORD PTR ?ptActMenuWin@?1??disconnectServer@@YAHXZ@4PAUaction@@A, 0
  00123	0f 84 30 01 00
	00		 je	 $LN10@disconnect

; 4577 : 		id = -1;

  00129	c7 45 f8 ff ff
	ff ff		 mov	 DWORD PTR _id$[ebp], -1

; 4578 : 		if (ptActMenuWin->hp >= 1){

  00130	a1 00 00 00 00	 mov	 eax, DWORD PTR ?ptActMenuWin@?1??disconnectServer@@YAHXZ@4PAUaction@@A
  00135	83 78 78 01	 cmp	 DWORD PTR [eax+120], 1
  00139	0f 8c 1a 01 00
	00		 jl	 $LN10@disconnect

; 4579 : 			//JL add 绾胯ㄧOK
; 4580 : #ifdef _NB_绾胯ㄩ杩
; 4581 : 			id = selFontId(btnId, sizeof(btnId) / sizeof(int));

  0013f	6a 01		 push	 1
  00141	68 00 00 00 00	 push	 OFFSET ?btnId@?1??disconnectServer@@YAHXZ@4PAHA
  00146	e8 00 00 00 00	 call	 ?selFontId@@YAHPAHH@Z	; selFontId
  0014b	83 c4 08	 add	 esp, 8
  0014e	89 45 f8	 mov	 DWORD PTR _id$[ebp], eax

; 4582 : #else
; 4583 : 			int JL_绾胯ㄧOK();
; 4584 : 
; 4585 : 			id = JL_绾胯ㄧOK();
; 4586 : 			if (id == -1){
; 4587 : 				id = selFontId(btnId, sizeof(btnId) / sizeof(int));
; 4588 : 			}
; 4589 : 			
; 4590 : #endif
; 4591 : 			if (id >= 0
; 4592 : #ifdef _NB_绾胯ㄩ杩
; 4593 : 				|| ㄧ婚寮

  00151	83 7d f8 00	 cmp	 DWORD PTR _id$[ebp], 0
  00155	7d 09		 jge	 SHORT $LN13@disconnect
  00157	83 3d 00 00 00
	00 00		 cmp	 DWORD PTR ?自动登陆是否开启@@3HA, 0 ; 自动登陆是否开启
  0015e	74 1f		 je	 SHORT $LN12@disconnect
$LN13@disconnect:

; 4594 : #endif
; 4595 : 				){
; 4596 : 				DeathAction(ptActMenuWin);

  00160	a1 00 00 00 00	 mov	 eax, DWORD PTR ?ptActMenuWin@?1??disconnectServer@@YAHXZ@4PAUaction@@A
  00165	50		 push	 eax
  00166	e8 00 00 00 00	 call	 ?DeathAction@@YAXPAUaction@@@Z ; DeathAction
  0016b	83 c4 04	 add	 esp, 4

; 4597 : 				ptActMenuWin = NULL;

  0016e	c7 05 00 00 00
	00 00 00 00 00	 mov	 DWORD PTR ?ptActMenuWin@?1??disconnectServer@@YAHXZ@4PAUaction@@A, 0

; 4598 : 				ret = 1;

  00178	c7 45 d0 01 00
	00 00		 mov	 DWORD PTR _ret$[ebp], 1
$LN12@disconnect:

; 4599 : 			}
; 4600 : 
; 4601 : 			yy = (h * 48) / 4;

  0017f	6b 05 00 00 00
	00 30		 imul	 eax, DWORD PTR ?h@?1??disconnectServer@@YAHXZ@4HA, 48
  00186	99		 cdq
  00187	83 e2 03	 and	 edx, 3
  0018a	03 c2		 add	 eax, edx
  0018c	c1 f8 02	 sar	 eax, 2
  0018f	89 45 b8	 mov	 DWORD PTR _yy$[ebp], eax

; 4602 : 			for (i = 0; i < sizeof(msg) / sizeof(char*); i++){

  00192	c7 45 dc 00 00
	00 00		 mov	 DWORD PTR _i$[ebp], 0
  00199	eb 09		 jmp	 SHORT $LN7@disconnect
$LN5@disconnect:
  0019b	8b 45 dc	 mov	 eax, DWORD PTR _i$[ebp]
  0019e	83 c0 01	 add	 eax, 1
  001a1	89 45 dc	 mov	 DWORD PTR _i$[ebp], eax
$LN7@disconnect:
  001a4	83 7d dc 02	 cmp	 DWORD PTR _i$[ebp], 2
  001a8	73 57		 jae	 SHORT $LN6@disconnect

; 4603 : 				xx = (w * 64 - strlen(msg[i]) / 2 * 17) / 2;

  001aa	8b 35 00 00 00
	00		 mov	 esi, DWORD PTR ?w@?1??disconnectServer@@YAHXZ@4HA
  001b0	c1 e6 06	 shl	 esi, 6
  001b3	8b 45 dc	 mov	 eax, DWORD PTR _i$[ebp]
  001b6	8b 4c 85 e8	 mov	 ecx, DWORD PTR _msg$[ebp+eax*4]
  001ba	51		 push	 ecx
  001bb	e8 00 00 00 00	 call	 _strlen
  001c0	83 c4 04	 add	 esp, 4
  001c3	d1 e8		 shr	 eax, 1
  001c5	6b d0 11	 imul	 edx, eax, 17
  001c8	2b f2		 sub	 esi, edx
  001ca	d1 ee		 shr	 esi, 1
  001cc	89 75 c4	 mov	 DWORD PTR _xx$[ebp], esi

; 4604 : 				StockFontBuffer(x+ xx, y + (i + 1) * yy, FONT_PRIO_FRONT, FONT_PAL_WHITE, msg[i], 0);

  001cf	6a 00		 push	 0
  001d1	8b 45 dc	 mov	 eax, DWORD PTR _i$[ebp]
  001d4	8b 4c 85 e8	 mov	 ecx, DWORD PTR _msg$[ebp+eax*4]
  001d8	51		 push	 ecx
  001d9	6a 00		 push	 0
  001db	6a 01		 push	 1
  001dd	8b 55 dc	 mov	 edx, DWORD PTR _i$[ebp]
  001e0	83 c2 01	 add	 edx, 1
  001e3	0f af 55 b8	 imul	 edx, DWORD PTR _yy$[ebp]
  001e7	03 15 00 00 00
	00		 add	 edx, DWORD PTR ?y@?1??disconnectServer@@YAHXZ@4HA
  001ed	52		 push	 edx
  001ee	a1 00 00 00 00	 mov	 eax, DWORD PTR ?x@?1??disconnectServer@@YAHXZ@4HA
  001f3	03 45 c4	 add	 eax, DWORD PTR _xx$[ebp]
  001f6	50		 push	 eax
  001f7	e8 00 00 00 00	 call	 ?StockFontBuffer@@YAHHHDHPADH@Z ; StockFontBuffer
  001fc	83 c4 18	 add	 esp, 24			; 00000018H

; 4605 : 			}

  001ff	eb 9a		 jmp	 SHORT $LN5@disconnect
$LN6@disconnect:

; 4606 : 
; 4607 : 			xx = (w * 64 - strlen("") / 2 * 17) / 2;

  00201	8b 35 00 00 00
	00		 mov	 esi, DWORD PTR ?w@?1??disconnectServer@@YAHXZ@4HA
  00207	c1 e6 06	 shl	 esi, 6
  0020a	68 00 00 00 00	 push	 OFFSET ??_C@_04IJNKKJEO@?H?$KO?$MA?N?$AA@
  0020f	e8 00 00 00 00	 call	 _strlen
  00214	83 c4 04	 add	 esp, 4
  00217	d1 e8		 shr	 eax, 1
  00219	6b c0 11	 imul	 eax, eax, 17
  0021c	2b f0		 sub	 esi, eax
  0021e	d1 ee		 shr	 esi, 1
  00220	89 75 c4	 mov	 DWORD PTR _xx$[ebp], esi

; 4608 : 			btnId[0] = StockFontBuffer(x + xx, y + 3 * yy, FONT_PRIO_FRONT, FONT_PAL_YELLOW, "", 2);

  00223	6a 02		 push	 2
  00225	68 00 00 00 00	 push	 OFFSET ??_C@_04IJNKKJEO@?H?$KO?$MA?N?$AA@
  0022a	6a 04		 push	 4
  0022c	6a 01		 push	 1
  0022e	6b 45 b8 03	 imul	 eax, DWORD PTR _yy$[ebp], 3
  00232	03 05 00 00 00
	00		 add	 eax, DWORD PTR ?y@?1??disconnectServer@@YAHXZ@4HA
  00238	50		 push	 eax
  00239	8b 0d 00 00 00
	00		 mov	 ecx, DWORD PTR ?x@?1??disconnectServer@@YAHXZ@4HA
  0023f	03 4d c4	 add	 ecx, DWORD PTR _xx$[ebp]
  00242	51		 push	 ecx
  00243	e8 00 00 00 00	 call	 ?StockFontBuffer@@YAHHHDHPADH@Z ; StockFontBuffer
  00248	83 c4 18	 add	 esp, 24			; 00000018H
  0024b	ba 04 00 00 00	 mov	 edx, 4
  00250	6b ca 00	 imul	 ecx, edx, 0
  00253	89 81 00 00 00
	00		 mov	 DWORD PTR ?btnId@?1??disconnectServer@@YAHXZ@4PAHA[ecx], eax
$LN10@disconnect:

; 4609 : 		}
; 4610 : 	}
; 4611 : 
; 4612 : 	return ret;

  00259	8b 45 d0	 mov	 eax, DWORD PTR _ret$[ebp]

; 4613 : }

  0025c	52		 push	 edx
  0025d	8b cd		 mov	 ecx, ebp
  0025f	50		 push	 eax
  00260	8d 15 00 00 00
	00		 lea	 edx, DWORD PTR $LN17@disconnect
  00266	e8 00 00 00 00	 call	 @_RTC_CheckStackVars@8
  0026b	58		 pop	 eax
  0026c	5a		 pop	 edx
  0026d	5f		 pop	 edi
  0026e	5e		 pop	 esi
  0026f	5b		 pop	 ebx
  00270	81 c4 0c 01 00
	00		 add	 esp, 268		; 0000010cH
  00276	3b ec		 cmp	 ebp, esp
  00278	e8 00 00 00 00	 call	 __RTC_CheckEsp
  0027d	8b e5		 mov	 esp, ebp
  0027f	5d		 pop	 ebp
  00280	c3		 ret	 0
  00281	0f 1f 00	 npad	 3
$LN17@disconnect:
  00284	01 00 00 00	 DD	 1
  00288	00 00 00 00	 DD	 $LN16@disconnect
$LN16@disconnect:
  0028c	e8 ff ff ff	 DD	 -24			; ffffffe8H
  00290	08 00 00 00	 DD	 8
  00294	00 00 00 00	 DD	 $LN15@disconnect
$LN15@disconnect:
  00298	6d		 DB	 109			; 0000006dH
  00299	73		 DB	 115			; 00000073H
  0029a	67		 DB	 103			; 00000067H
  0029b	00		 DB	 0
?disconnectServer@@YAHXZ ENDP				; disconnectServer
_TEXT	ENDS
; Function compile flags: /Odtp /RTCsu /ZI
; File c:\users\administrator\desktop\????? ??\????? ??\client source code\system\field.cpp
;	COMDAT ?closeJoinChannelWN@@YAXXZ
_TEXT	SEGMENT
?closeJoinChannelWN@@YAXXZ PROC				; closeJoinChannelWN, COMDAT

; 4758 : {

  00000	55		 push	 ebp
  00001	8b ec		 mov	 ebp, esp
  00003	81 ec c0 00 00
	00		 sub	 esp, 192		; 000000c0H
  00009	53		 push	 ebx
  0000a	56		 push	 esi
  0000b	57		 push	 edi
  0000c	8d bd 40 ff ff
	ff		 lea	 edi, DWORD PTR [ebp-192]
  00012	b9 30 00 00 00	 mov	 ecx, 48			; 00000030H
  00017	b8 cc cc cc cc	 mov	 eax, -858993460		; ccccccccH
  0001c	f3 ab		 rep stosd

; 4759 : 	channelWNFlag = 0;

  0001e	33 c0		 xor	 eax, eax
  00020	66 a3 00 00 00
	00		 mov	 WORD PTR ?channelWNFlag@@3FA, ax ; channelWNFlag

; 4760 : 	//joinChannelProc = 0;
; 4761 : 	DeathAction(ptActChannelWin);

  00026	a1 00 00 00 00	 mov	 eax, DWORD PTR ?ptActChannelWin@@3PAUaction@@A
  0002b	50		 push	 eax
  0002c	e8 00 00 00 00	 call	 ?DeathAction@@YAXPAUaction@@@Z ; DeathAction
  00031	83 c4 04	 add	 esp, 4

; 4762 : 	ptActChannelWin = NULL;

  00034	c7 05 00 00 00
	00 00 00 00 00	 mov	 DWORD PTR ?ptActChannelWin@@3PAUaction@@A, 0

; 4763 : 	joinChannel2Proc = 0;

  0003e	33 c0		 xor	 eax, eax
  00040	66 a3 00 00 00
	00		 mov	 WORD PTR ?joinChannel2Proc@@3FA, ax

; 4764 : 	DeathAction(ptActChannel2Win);

  00046	a1 00 00 00 00	 mov	 eax, DWORD PTR ?ptActChannel2Win@@3PAUaction@@A
  0004b	50		 push	 eax
  0004c	e8 00 00 00 00	 call	 ?DeathAction@@YAXPAUaction@@@Z ; DeathAction
  00051	83 c4 04	 add	 esp, 4

; 4765 : 	ptActChannel2Win = NULL;

  00054	c7 05 00 00 00
	00 00 00 00 00	 mov	 DWORD PTR ?ptActChannel2Win@@3PAUaction@@A, 0

; 4766 : 	DeathAction(ptActLeaderFuncWin);

  0005e	a1 00 00 00 00	 mov	 eax, DWORD PTR ?ptActLeaderFuncWin@@3PAUaction@@A
  00063	50		 push	 eax
  00064	e8 00 00 00 00	 call	 ?DeathAction@@YAXPAUaction@@@Z ; DeathAction
  00069	83 c4 04	 add	 esp, 4

; 4767 : 	ptActLeaderFuncWin = NULL;

  0006c	c7 05 00 00 00
	00 00 00 00 00	 mov	 DWORD PTR ?ptActLeaderFuncWin@@3PAUaction@@A, 0

; 4768 : #ifdef _FRIENDCHANNEL
; 4769 : 	chatRoomBtn = 0;

  00076	33 c0		 xor	 eax, eax
  00078	66 a3 00 00 00
	00		 mov	 WORD PTR ?chatRoomBtn@@3FA, ax ; chatRoomBtn

; 4770 : 	SelRoomBtn = 0;

  0007e	33 c0		 xor	 eax, eax
  00080	66 a3 00 00 00
	00		 mov	 WORD PTR ?SelRoomBtn@@3FA, ax ; SelRoomBtn

; 4771 : 	#ifdef _STREET_VENDOR
; 4772 : 		if (sStreetVendorBtn != 3)

  00086	0f bf 05 00 00
	00 00		 movsx	 eax, WORD PTR ?sStreetVendorBtn@@3FA ; sStreetVendorBtn
  0008d	83 f8 03	 cmp	 eax, 3
  00090	74 18		 je	 SHORT $LN1@closeJoinC

; 4773 : 		{
; 4774 : 			DeathAction(pActStreetVendorWnd);

  00092	a1 00 00 00 00	 mov	 eax, DWORD PTR ?pActStreetVendorWnd@@3PAUaction@@A ; pActStreetVendorWnd
  00097	50		 push	 eax
  00098	e8 00 00 00 00	 call	 ?DeathAction@@YAXPAUaction@@@Z ; DeathAction
  0009d	83 c4 04	 add	 esp, 4

; 4775 : 			pActStreetVendorWnd = NULL;

  000a0	c7 05 00 00 00
	00 00 00 00 00	 mov	 DWORD PTR ?pActStreetVendorWnd@@3PAUaction@@A, 0 ; pActStreetVendorWnd
$LN1@closeJoinC:

; 4776 : 		}
; 4777 : 	#else
; 4778 : 		#ifdef _TABLEOFSKILL
; 4779 : 			DeathAction(pActSkillWnd);
; 4780 : 			pActSkillWnd = NULL;
; 4781 : 		#endif
; 4782 : 	#endif
; 4783 : #endif
; 4784 : }

  000aa	5f		 pop	 edi
  000ab	5e		 pop	 esi
  000ac	5b		 pop	 ebx
  000ad	81 c4 c0 00 00
	00		 add	 esp, 192		; 000000c0H
  000b3	3b ec		 cmp	 ebp, esp
  000b5	e8 00 00 00 00	 call	 __RTC_CheckEsp
  000ba	8b e5		 mov	 esp, ebp
  000bc	5d		 pop	 ebp
  000bd	c3		 ret	 0
?closeJoinChannelWN@@YAXXZ ENDP				; closeJoinChannelWN
_TEXT	ENDS
; Function compile flags: /Odtp /RTCsu /ZI
; File c:\users\administrator\desktop\????? ??\????? ??\client source code\system\field.cpp
;	COMDAT ?closeEtcSwitch@@YAXXZ
_TEXT	SEGMENT
?closeEtcSwitch@@YAXXZ PROC				; closeEtcSwitch, COMDAT

; 4119 : {

  00000	55		 push	 ebp
  00001	8b ec		 mov	 ebp, esp
  00003	81 ec c0 00 00
	00		 sub	 esp, 192		; 000000c0H
  00009	53		 push	 ebx
  0000a	56		 push	 esi
  0000b	57		 push	 edi
  0000c	8d bd 40 ff ff
	ff		 lea	 edi, DWORD PTR [ebp-192]
  00012	b9 30 00 00 00	 mov	 ecx, 48			; 00000030H
  00017	b8 cc cc cc cc	 mov	 eax, -858993460		; ccccccccH
  0001c	f3 ab		 rep stosd

; 4120 : 	etcSwitchProcNo = 1000;

  0001e	b8 e8 03 00 00	 mov	 eax, 1000		; 000003e8H
  00023	66 a3 00 00 00
	00		 mov	 WORD PTR ?etcSwitchProcNo@@3FA, ax ; etcSwitchProcNo

; 4121 : }

  00029	5f		 pop	 edi
  0002a	5e		 pop	 esi
  0002b	5b		 pop	 ebx
  0002c	8b e5		 mov	 esp, ebp
  0002e	5d		 pop	 ebp
  0002f	c3		 ret	 0
?closeEtcSwitch@@YAXXZ ENDP				; closeEtcSwitch
_TEXT	ENDS
; Function compile flags: /Odtp /RTCsu /ZI
; File c:\users\administrator\desktop\????? ??\????? ??\client source code\system\field.cpp
;	COMDAT ?closeCharActionAnimeChange@@YAXXZ
_TEXT	SEGMENT
?closeCharActionAnimeChange@@YAXXZ PROC			; closeCharActionAnimeChange, COMDAT

; 3886 : {

  00000	55		 push	 ebp
  00001	8b ec		 mov	 ebp, esp
  00003	81 ec c0 00 00
	00		 sub	 esp, 192		; 000000c0H
  00009	53		 push	 ebx
  0000a	56		 push	 esi
  0000b	57		 push	 edi
  0000c	8d bd 40 ff ff
	ff		 lea	 edi, DWORD PTR [ebp-192]
  00012	b9 30 00 00 00	 mov	 ecx, 48			; 00000030H
  00017	b8 cc cc cc cc	 mov	 eax, -858993460		; ccccccccH
  0001c	f3 ab		 rep stosd

; 3887 : 	charActionAnimeChangeProcNo = 1000;

  0001e	b8 e8 03 00 00	 mov	 eax, 1000		; 000003e8H
  00023	66 a3 00 00 00
	00		 mov	 WORD PTR ?charActionAnimeChangeProcNo@@3FA, ax ; charActionAnimeChangeProcNo

; 3888 : }

  00029	5f		 pop	 edi
  0002a	5e		 pop	 esi
  0002b	5b		 pop	 ebx
  0002c	8b e5		 mov	 esp, ebp
  0002e	5d		 pop	 ebp
  0002f	c3		 ret	 0
?closeCharActionAnimeChange@@YAXXZ ENDP			; closeCharActionAnimeChange
_TEXT	ENDS
; Function compile flags: /Odtp /RTCsu /ZI
; File c:\users\administrator\desktop\????? ??\????? ??\client source code\system\field.cpp
;	COMDAT ?checkFieldMenuFlag@@YAHXZ
_TEXT	SEGMENT
?checkFieldMenuFlag@@YAHXZ PROC				; checkFieldMenuFlag, COMDAT

; 3875 : BOOL checkFieldMenuFlag(void){

  00000	55		 push	 ebp
  00001	8b ec		 mov	 ebp, esp
  00003	81 ec c0 00 00
	00		 sub	 esp, 192		; 000000c0H
  00009	53		 push	 ebx
  0000a	56		 push	 esi
  0000b	57		 push	 edi
  0000c	8d bd 40 ff ff
	ff		 lea	 edi, DWORD PTR [ebp-192]
  00012	b9 30 00 00 00	 mov	 ecx, 48			; 00000030H
  00017	b8 cc cc cc cc	 mov	 eax, -858993460		; ccccccccH
  0001c	f3 ab		 rep stosd

; 3876 : 	return nowFieldMenuOpenFlag;

  0001e	0f bf 05 00 00
	00 00		 movsx	 eax, WORD PTR ?nowFieldMenuOpenFlag@@3FA ; nowFieldMenuOpenFlag

; 3877 : }

  00025	5f		 pop	 edi
  00026	5e		 pop	 esi
  00027	5b		 pop	 ebx
  00028	8b e5		 mov	 esp, ebp
  0002a	5d		 pop	 ebp
  0002b	c3		 ret	 0
?checkFieldMenuFlag@@YAHXZ ENDP				; checkFieldMenuFlag
_TEXT	ENDS
; Function compile flags: /Odtp /RTCsu /ZI
; File c:\users\administrator\desktop\????? ??\????? ??\client source code\system\field.cpp
;	COMDAT ?drawField@@YAXXZ
_TEXT	SEGMENT
tv1567 = -928						; size = 8
tv1565 = -928						; size = 8
$T1 = -916						; size = 4
_临时图标Y$ = -164					; size = 4
_临时图标X$ = -152					; size = 4
_j$2 = -140						; size = 4
_y2$ = -128						; size = 4
_x2$ = -116						; size = 4
_y1$ = -104						; size = 4
_x1$ = -92						; size = 4
_RandAnimate$ = -80					; size = 4
_Createflag$ = -68					; size = 4
_i$ = -56						; size = 4
_rightUpPanelY$ = -44					; size = 4
_rightUpPanelX$ = -32					; size = 4
_leftUpPanelY$ = -20					; size = 4
_leftUpPanelX$ = -8					; size = 4
?drawField@@YAXXZ PROC					; drawField, COMDAT

; 3044 : {

  00000	55		 push	 ebp
  00001	8b ec		 mov	 ebp, esp
  00003	81 ec a0 03 00
	00		 sub	 esp, 928		; 000003a0H
  00009	53		 push	 ebx
  0000a	56		 push	 esi
  0000b	57		 push	 edi
  0000c	8d bd 60 fc ff
	ff		 lea	 edi, DWORD PTR [ebp-928]
  00012	b9 e8 00 00 00	 mov	 ecx, 232		; 000000e8H
  00017	b8 cc cc cc cc	 mov	 eax, -858993460		; ccccccccH
  0001c	f3 ab		 rep stosd

; 3045 : 	int leftUpPanelX = 0;		// ????????

  0001e	c7 45 f8 00 00
	00 00		 mov	 DWORD PTR _leftUpPanelX$[ebp], 0

; 3046 : 	int leftUpPanelY = 0;

  00025	c7 45 ec 00 00
	00 00		 mov	 DWORD PTR _leftUpPanelY$[ebp], 0

; 3047 : 	int rightUpPanelX = 504 + DISPLACEMENT_X ;	// ????????

  0002c	a1 00 00 00 00	 mov	 eax, DWORD PTR ?DISPLACEMENT_X@@3HA ; DISPLACEMENT_X
  00031	05 f8 01 00 00	 add	 eax, 504		; 000001f8H
  00036	89 45 e0	 mov	 DWORD PTR _rightUpPanelX$[ebp], eax

; 3048 : 	int rightUpPanelY = 0;

  00039	c7 45 d4 00 00
	00 00		 mov	 DWORD PTR _rightUpPanelY$[ebp], 0

; 3049 : 	int i;
; 3050 : #ifdef _WATERANIMATION //Syu ADD 娉涔娴峰ㄧ诲
; 3051 : 	int Createflag = 0;

  00040	c7 45 bc 00 00
	00 00		 mov	 DWORD PTR _Createflag$[ebp], 0

; 3052 : 	int RandAnimate = 0 ;

  00047	c7 45 b0 00 00
	00 00		 mov	 DWORD PTR _RandAnimate$[ebp], 0

; 3053 : #endif
; 3054 : #ifdef _AniRandom   // Syu ADD 轰骇澧ㄧ
; 3055 : 	int x1 , y1;
; 3056 : #endif
; 3057 : #ifdef _AniCrossFrame	  // Syu ADD ㄧ诲娓歌婚㈢
; 3058 : 	int x2 , y2;
; 3059 : #endif
; 3060 : 
; 3061 : #if 0
; 3062 : #ifdef  _STONDEBUG__MSG
; 3063 : 
; 3064 : 	char msg[256];
; 3065 : 	// ?????Echo?㈩?????????割
; 3066 : 	//  ???????????????????????
; 3067 : 	sprintf(msg, "%s Server Alive -> %02d/%02d/%02d %02d:%02d:%02d",
; 3068 : 			selectServerName2[selectServerIndex],
; 3069 : 			(serverAliveTime->tm_year % 100), serverAliveTime->tm_mon+1, serverAliveTime->tm_mday,
; 3070 : 			serverAliveTime->tm_hour, serverAliveTime->tm_min, serverAliveTime->tm_sec);
; 3071 : 	StockFontBuffer( 108, 8, FONT_PRIO_FRONT, 0, msg, 0 );
; 3072 : 
; 3073 : #endif
; 3074 : #endif
; 3075 : 
; 3076 : #ifdef _SPECIALSPACEANIM	// Syu ADD 规烘ㄧ婚缃
; 3077 : 	SpecAnim(nowFloor);

  0004e	a1 00 00 00 00	 mov	 eax, DWORD PTR ?nowFloor@@3HA ; nowFloor
  00053	50		 push	 eax
  00054	e8 00 00 00 00	 call	 ?SpecAnim@@YAXH@Z	; SpecAnim
  00059	83 c4 04	 add	 esp, 4

; 3078 : #endif
; 3079 : #ifdef _AniCrossFrame	  // Syu ADD ㄧ诲娓歌婚㈢
; 3080 : 	if ((nowFloor == 817) || (nowFloor == 8007) || (nowFloor == 8101) || (nowFloor == 8100) ||
; 3081 : 		(nowFloor == 8027) || (nowFloor == 8028) || (nowFloor == 8029) || (nowFloor == 8015) || (nowFloor == 8113) || (nowFloor == 8114) )

  0005c	81 3d 00 00 00
	00 31 03 00 00	 cmp	 DWORD PTR ?nowFloor@@3HA, 817 ; nowFloor, 00000331H
  00066	74 70		 je	 SHORT $LN24@drawField
  00068	81 3d 00 00 00
	00 47 1f 00 00	 cmp	 DWORD PTR ?nowFloor@@3HA, 8007 ; nowFloor, 00001f47H
  00072	74 64		 je	 SHORT $LN24@drawField
  00074	81 3d 00 00 00
	00 a5 1f 00 00	 cmp	 DWORD PTR ?nowFloor@@3HA, 8101 ; nowFloor, 00001fa5H
  0007e	74 58		 je	 SHORT $LN24@drawField
  00080	81 3d 00 00 00
	00 a4 1f 00 00	 cmp	 DWORD PTR ?nowFloor@@3HA, 8100 ; nowFloor, 00001fa4H
  0008a	74 4c		 je	 SHORT $LN24@drawField
  0008c	81 3d 00 00 00
	00 5b 1f 00 00	 cmp	 DWORD PTR ?nowFloor@@3HA, 8027 ; nowFloor, 00001f5bH
  00096	74 40		 je	 SHORT $LN24@drawField
  00098	81 3d 00 00 00
	00 5c 1f 00 00	 cmp	 DWORD PTR ?nowFloor@@3HA, 8028 ; nowFloor, 00001f5cH
  000a2	74 34		 je	 SHORT $LN24@drawField
  000a4	81 3d 00 00 00
	00 5d 1f 00 00	 cmp	 DWORD PTR ?nowFloor@@3HA, 8029 ; nowFloor, 00001f5dH
  000ae	74 28		 je	 SHORT $LN24@drawField
  000b0	81 3d 00 00 00
	00 4f 1f 00 00	 cmp	 DWORD PTR ?nowFloor@@3HA, 8015 ; nowFloor, 00001f4fH
  000ba	74 1c		 je	 SHORT $LN24@drawField
  000bc	81 3d 00 00 00
	00 b1 1f 00 00	 cmp	 DWORD PTR ?nowFloor@@3HA, 8113 ; nowFloor, 00001fb1H
  000c6	74 10		 je	 SHORT $LN24@drawField
  000c8	81 3d 00 00 00
	00 b2 1f 00 00	 cmp	 DWORD PTR ?nowFloor@@3HA, 8114 ; nowFloor, 00001fb2H
  000d2	0f 85 94 05 00
	00		 jne	 $LN57@drawField
$LN24@drawField:

; 3082 : 	{
; 3083 : 		//娓歌婚㈠ㄧ Start
; 3084 : 		if (flag22 == false)

  000d8	0f b6 05 00 00
	00 00		 movzx	 eax, BYTE PTR ?flag22@@3_NA ; flag22
  000df	85 c0		 test	 eax, eax
  000e1	75 64		 jne	 SHORT $LN26@drawField

; 3085 : 		{
; 3086 : 			if (WaterAct2 != NULL && Timeflag2 == false)

  000e3	83 3d 00 00 00
	00 00		 cmp	 DWORD PTR ?WaterAct2@@3PAUaction@@A, 0
  000ea	74 5b		 je	 SHORT $LN26@drawField
  000ec	0f b6 05 00 00
	00 00		 movzx	 eax, BYTE PTR ?Timeflag2@@3_NA ; Timeflag2
  000f3	85 c0		 test	 eax, eax
  000f5	75 50		 jne	 SHORT $LN26@drawField

; 3087 : 			{
; 3088 : 				DeathAction(WaterAct2);

  000f7	a1 00 00 00 00	 mov	 eax, DWORD PTR ?WaterAct2@@3PAUaction@@A
  000fc	50		 push	 eax
  000fd	e8 00 00 00 00	 call	 ?DeathAction@@YAXPAUaction@@@Z ; DeathAction
  00102	83 c4 04	 add	 esp, 4

; 3089 : 				WaterAct2 = NULL;

  00105	c7 05 00 00 00
	00 00 00 00 00	 mov	 DWORD PTR ?WaterAct2@@3PAUaction@@A, 0

; 3090 : 				Timeflag2 = true;

  0010f	c6 05 00 00 00
	00 01		 mov	 BYTE PTR ?Timeflag2@@3_NA, 1 ; Timeflag2

; 3091 : 				//缁涓涓娆″虹扮绛寰堕
; 3092 : 				TimeTickMax2 = RAND(500, 1500);

  00116	8b f4		 mov	 esi, esp
  00118	ff 15 00 00 00
	00		 call	 DWORD PTR __imp__rand
  0011e	3b f4		 cmp	 esi, esp
  00120	e8 00 00 00 00	 call	 __RTC_CheckEsp
  00125	f2 0f 2a c0	 cvtsi2sd xmm0, eax
  00129	f2 0f 59 05 00
	00 00 00	 mulsd	 xmm0, QWORD PTR __real@408f480000000000
  00131	f2 0f 5e 05 00
	00 00 00	 divsd	 xmm0, QWORD PTR __real@40e0000000000000
  00139	f2 0f 2c c0	 cvttsd2si eax, xmm0
  0013d	05 f4 01 00 00	 add	 eax, 500		; 000001f4H
  00142	a3 00 00 00 00	 mov	 DWORD PTR ?TimeTickMax2@@3HA, eax ; TimeTickMax2
$LN26@drawField:

; 3093 : 			}
; 3094 : 		}
; 3095 : 		if (Timeflag2 == true)

  00147	0f b6 05 00 00
	00 00		 movzx	 eax, BYTE PTR ?Timeflag2@@3_NA ; Timeflag2
  0014e	83 f8 01	 cmp	 eax, 1
  00151	75 2b		 jne	 SHORT $LN28@drawField

; 3096 : 		{
; 3097 : 			TimeTick2 ++;

  00153	a1 00 00 00 00	 mov	 eax, DWORD PTR ?TimeTick2@@3HA ; TimeTick2
  00158	83 c0 01	 add	 eax, 1
  0015b	a3 00 00 00 00	 mov	 DWORD PTR ?TimeTick2@@3HA, eax ; TimeTick2

; 3098 : 			if (TimeTick2 > TimeTickMax2)

  00160	a1 00 00 00 00	 mov	 eax, DWORD PTR ?TimeTick2@@3HA ; TimeTick2
  00165	3b 05 00 00 00
	00		 cmp	 eax, DWORD PTR ?TimeTickMax2@@3HA ; TimeTickMax2
  0016b	7e 11		 jle	 SHORT $LN28@drawField

; 3099 : 			{
; 3100 : 				Timeflag2 = false;

  0016d	c6 05 00 00 00
	00 00		 mov	 BYTE PTR ?Timeflag2@@3_NA, 0 ; Timeflag2

; 3101 : 				TimeTick2 = 0 ;

  00174	c7 05 00 00 00
	00 00 00 00 00	 mov	 DWORD PTR ?TimeTick2@@3HA, 0 ; TimeTick2
$LN28@drawField:

; 3102 : 			}
; 3103 : 		}
; 3104 : 		if (WaterAct2 == NULL || delFlag == false)

  0017e	83 3d 00 00 00
	00 00		 cmp	 DWORD PTR ?WaterAct2@@3PAUaction@@A, 0
  00185	74 0f		 je	 SHORT $LN30@drawField
  00187	0f b6 05 00 00
	00 00		 movzx	 eax, BYTE PTR ?delFlag@@3_NA ; delFlag
  0018e	85 c0		 test	 eax, eax
  00190	0f 85 d6 04 00
	00		 jne	 $LN57@drawField
$LN30@drawField:

; 3105 : 		{
; 3106 : 			delFlag = true;

  00196	c6 05 00 00 00
	00 01		 mov	 BYTE PTR ?delFlag@@3_NA, 1 ; delFlag

; 3107 : 			flag22 = true;

  0019d	c6 05 00 00 00
	00 01		 mov	 BYTE PTR ?flag22@@3_NA, 1 ; flag22

; 3108 : 			x2 = RAND(0, 1);

  001a4	8b f4		 mov	 esi, esp
  001a6	ff 15 00 00 00
	00		 call	 DWORD PTR __imp__rand
  001ac	3b f4		 cmp	 esi, esp
  001ae	e8 00 00 00 00	 call	 __RTC_CheckEsp
  001b3	f2 0f 2a c0	 cvtsi2sd xmm0, eax
  001b7	f2 0f 59 05 00
	00 00 00	 mulsd	 xmm0, QWORD PTR __real@4000000000000000
  001bf	f2 0f 5e 05 00
	00 00 00	 divsd	 xmm0, QWORD PTR __real@40e0000000000000
  001c7	f2 0f 2c c0	 cvttsd2si eax, xmm0
  001cb	89 45 8c	 mov	 DWORD PTR _x2$[ebp], eax

; 3109 : 			RandAnimate = RAND(0, 2);

  001ce	8b f4		 mov	 esi, esp
  001d0	ff 15 00 00 00
	00		 call	 DWORD PTR __imp__rand
  001d6	3b f4		 cmp	 esi, esp
  001d8	e8 00 00 00 00	 call	 __RTC_CheckEsp
  001dd	f2 0f 2a c0	 cvtsi2sd xmm0, eax
  001e1	f2 0f 59 05 00
	00 00 00	 mulsd	 xmm0, QWORD PTR __real@4008000000000000
  001e9	f2 0f 5e 05 00
	00 00 00	 divsd	 xmm0, QWORD PTR __real@40e0000000000000
  001f1	f2 0f 2c c0	 cvttsd2si eax, xmm0
  001f5	89 45 b0	 mov	 DWORD PTR _RandAnimate$[ebp], eax

; 3110 : 			if (RandAnimate > 1)

  001f8	83 7d b0 01	 cmp	 DWORD PTR _RandAnimate$[ebp], 1
  001fc	7e 34		 jle	 SHORT $LN31@drawField

; 3111 : 				RandAnimate = RAND(101512, 101515);

  001fe	8b f4		 mov	 esi, esp
  00200	ff 15 00 00 00
	00		 call	 DWORD PTR __imp__rand
  00206	3b f4		 cmp	 esi, esp
  00208	e8 00 00 00 00	 call	 __RTC_CheckEsp
  0020d	f2 0f 2a c0	 cvtsi2sd xmm0, eax
  00211	f2 0f 59 05 00
	00 00 00	 mulsd	 xmm0, QWORD PTR __real@4010000000000000
  00219	f2 0f 5e 05 00
	00 00 00	 divsd	 xmm0, QWORD PTR __real@40e0000000000000
  00221	f2 0f 2c c0	 cvttsd2si eax, xmm0
  00225	05 88 8c 01 00	 add	 eax, 101512		; 00018c88H
  0022a	89 45 b0	 mov	 DWORD PTR _RandAnimate$[ebp], eax

; 3112 : 			//充宸涓充宸涓涓瑰
; 3113 : 			else

  0022d	e9 78 01 00 00	 jmp	 $LN41@drawField
$LN31@drawField:

; 3114 : 			{
; 3115 : 				RandAnimate = RAND(0, 4);

  00232	8b f4		 mov	 esi, esp
  00234	ff 15 00 00 00
	00		 call	 DWORD PTR __imp__rand
  0023a	3b f4		 cmp	 esi, esp
  0023c	e8 00 00 00 00	 call	 __RTC_CheckEsp
  00241	f2 0f 2a c0	 cvtsi2sd xmm0, eax
  00245	f2 0f 59 05 00
	00 00 00	 mulsd	 xmm0, QWORD PTR __real@4014000000000000
  0024d	f2 0f 5e 05 00
	00 00 00	 divsd	 xmm0, QWORD PTR __real@40e0000000000000
  00255	f2 0f 2c c0	 cvttsd2si eax, xmm0
  00259	89 45 b0	 mov	 DWORD PTR _RandAnimate$[ebp], eax

; 3116 : 				if (RandAnimate > 2)

  0025c	83 7d b0 02	 cmp	 DWORD PTR _RandAnimate$[ebp], 2
  00260	7e 31		 jle	 SHORT $LN33@drawField

; 3117 : 					RandAnimate = RAND(101582, 101593);

  00262	8b f4		 mov	 esi, esp
  00264	ff 15 00 00 00
	00		 call	 DWORD PTR __imp__rand
  0026a	3b f4		 cmp	 esi, esp
  0026c	e8 00 00 00 00	 call	 __RTC_CheckEsp
  00271	f2 0f 2a c0	 cvtsi2sd xmm0, eax
  00275	f2 0f 59 05 00
	00 00 00	 mulsd	 xmm0, QWORD PTR __real@4028000000000000
  0027d	f2 0f 5e 05 00
	00 00 00	 divsd	 xmm0, QWORD PTR __real@40e0000000000000
  00285	f2 0f 2c c0	 cvttsd2si eax, xmm0
  00289	05 ce 8c 01 00	 add	 eax, 101582		; 00018cceH
  0028e	89 45 b0	 mov	 DWORD PTR _RandAnimate$[ebp], eax

; 3118 : 				else

  00291	eb 2f		 jmp	 SHORT $LN34@drawField
$LN33@drawField:

; 3119 : 					RandAnimate = RAND(101516, 101523);

  00293	8b f4		 mov	 esi, esp
  00295	ff 15 00 00 00
	00		 call	 DWORD PTR __imp__rand
  0029b	3b f4		 cmp	 esi, esp
  0029d	e8 00 00 00 00	 call	 __RTC_CheckEsp
  002a2	f2 0f 2a c0	 cvtsi2sd xmm0, eax
  002a6	f2 0f 59 05 00
	00 00 00	 mulsd	 xmm0, QWORD PTR __real@4020000000000000
  002ae	f2 0f 5e 05 00
	00 00 00	 divsd	 xmm0, QWORD PTR __real@40e0000000000000
  002b6	f2 0f 2c c0	 cvttsd2si eax, xmm0
  002ba	05 8c 8c 01 00	 add	 eax, 101516		; 00018c8cH
  002bf	89 45 b0	 mov	 DWORD PTR _RandAnimate$[ebp], eax
$LN34@drawField:

; 3120 : 				if (RandAnimate == 101516 || RandAnimate == 101518)

  002c2	81 7d b0 8c 8c
	01 00		 cmp	 DWORD PTR _RandAnimate$[ebp], 101516 ; 00018c8cH
  002c9	74 09		 je	 SHORT $LN37@drawField
  002cb	81 7d b0 8e 8c
	01 00		 cmp	 DWORD PTR _RandAnimate$[ebp], 101518 ; 00018c8eH
  002d2	75 32		 jne	 SHORT $LN35@drawField
$LN37@drawField:

; 3121 : 					x2 = RAND(2, 3);

  002d4	8b f4		 mov	 esi, esp
  002d6	ff 15 00 00 00
	00		 call	 DWORD PTR __imp__rand
  002dc	3b f4		 cmp	 esi, esp
  002de	e8 00 00 00 00	 call	 __RTC_CheckEsp
  002e3	f2 0f 2a c0	 cvtsi2sd xmm0, eax
  002e7	f2 0f 59 05 00
	00 00 00	 mulsd	 xmm0, QWORD PTR __real@4000000000000000
  002ef	f2 0f 5e 05 00
	00 00 00	 divsd	 xmm0, QWORD PTR __real@40e0000000000000
  002f7	f2 0f 2c c0	 cvttsd2si eax, xmm0
  002fb	83 c0 02	 add	 eax, 2
  002fe	89 45 8c	 mov	 DWORD PTR _x2$[ebp], eax
  00301	e9 a4 00 00 00	 jmp	 $LN41@drawField
$LN35@drawField:

; 3122 : 				else if (RandAnimate == 101521 || RandAnimate == 101523 ||

  00306	81 7d b0 91 8c
	01 00		 cmp	 DWORD PTR _RandAnimate$[ebp], 101521 ; 00018c91H
  0030d	74 1b		 je	 SHORT $LN40@drawField
  0030f	81 7d b0 93 8c
	01 00		 cmp	 DWORD PTR _RandAnimate$[ebp], 101523 ; 00018c93H
  00316	74 12		 je	 SHORT $LN40@drawField
  00318	81 7d b0 d3 8c
	01 00		 cmp	 DWORD PTR _RandAnimate$[ebp], 101587 ; 00018cd3H
  0031f	7f 38		 jg	 SHORT $LN38@drawField
  00321	81 7d b0 ce 8c
	01 00		 cmp	 DWORD PTR _RandAnimate$[ebp], 101582 ; 00018cceH
  00328	7c 2f		 jl	 SHORT $LN38@drawField
$LN40@drawField:

; 3123 : 						(RandAnimate <= 101587 && RandAnimate >= 101582))
; 3124 : 					x2 = RAND(4, 5); //宸涓

  0032a	8b f4		 mov	 esi, esp
  0032c	ff 15 00 00 00
	00		 call	 DWORD PTR __imp__rand
  00332	3b f4		 cmp	 esi, esp
  00334	e8 00 00 00 00	 call	 __RTC_CheckEsp
  00339	f2 0f 2a c0	 cvtsi2sd xmm0, eax
  0033d	f2 0f 59 05 00
	00 00 00	 mulsd	 xmm0, QWORD PTR __real@4000000000000000
  00345	f2 0f 5e 05 00
	00 00 00	 divsd	 xmm0, QWORD PTR __real@40e0000000000000
  0034d	f2 0f 2c c0	 cvttsd2si eax, xmm0
  00351	83 c0 04	 add	 eax, 4
  00354	89 45 8c	 mov	 DWORD PTR _x2$[ebp], eax
  00357	eb 51		 jmp	 SHORT $LN41@drawField
$LN38@drawField:

; 3125 : 				else if (RandAnimate == 101522 || RandAnimate == 101520 ||

  00359	81 7d b0 92 8c
	01 00		 cmp	 DWORD PTR _RandAnimate$[ebp], 101522 ; 00018c92H
  00360	74 1b		 je	 SHORT $LN42@drawField
  00362	81 7d b0 90 8c
	01 00		 cmp	 DWORD PTR _RandAnimate$[ebp], 101520 ; 00018c90H
  00369	74 12		 je	 SHORT $LN42@drawField
  0036b	81 7d b0 d9 8c
	01 00		 cmp	 DWORD PTR _RandAnimate$[ebp], 101593 ; 00018cd9H
  00372	7f 36		 jg	 SHORT $LN41@drawField
  00374	81 7d b0 d4 8c
	01 00		 cmp	 DWORD PTR _RandAnimate$[ebp], 101588 ; 00018cd4H
  0037b	7c 2d		 jl	 SHORT $LN41@drawField
$LN42@drawField:

; 3126 : 						(RandAnimate <= 101593 && RandAnimate >= 101588))
; 3127 : 					x2 = RAND(6, 7); //充

  0037d	8b f4		 mov	 esi, esp
  0037f	ff 15 00 00 00
	00		 call	 DWORD PTR __imp__rand
  00385	3b f4		 cmp	 esi, esp
  00387	e8 00 00 00 00	 call	 __RTC_CheckEsp
  0038c	f2 0f 2a c0	 cvtsi2sd xmm0, eax
  00390	f2 0f 59 05 00
	00 00 00	 mulsd	 xmm0, QWORD PTR __real@4000000000000000
  00398	f2 0f 5e 05 00
	00 00 00	 divsd	 xmm0, QWORD PTR __real@40e0000000000000
  003a0	f2 0f 2c c0	 cvttsd2si eax, xmm0
  003a4	83 c0 06	 add	 eax, 6
  003a7	89 45 8c	 mov	 DWORD PTR _x2$[ebp], eax
$LN41@drawField:

; 3128 : 			}
; 3129 : 			//瓴办杩ョ婚㈢浣缃
; 3130 : 			if (x2 == 0)  // 宸涓

  003aa	83 7d 8c 00	 cmp	 DWORD PTR _x2$[ebp], 0
  003ae	75 54		 jne	 SHORT $LN43@drawField

; 3131 : 			{
; 3132 : 				x2 = RAND(50, 640);

  003b0	8b f4		 mov	 esi, esp
  003b2	ff 15 00 00 00
	00		 call	 DWORD PTR __imp__rand
  003b8	3b f4		 cmp	 esi, esp
  003ba	e8 00 00 00 00	 call	 __RTC_CheckEsp
  003bf	f2 0f 2a c0	 cvtsi2sd xmm0, eax
  003c3	f2 0f 59 05 00
	00 00 00	 mulsd	 xmm0, QWORD PTR __real@4082780000000000
  003cb	f2 0f 5e 05 00
	00 00 00	 divsd	 xmm0, QWORD PTR __real@40e0000000000000
  003d3	f2 0f 2c c0	 cvttsd2si eax, xmm0
  003d7	83 c0 32	 add	 eax, 50			; 00000032H
  003da	89 45 8c	 mov	 DWORD PTR _x2$[ebp], eax

; 3133 : 				y2 = 0 ;

  003dd	c7 45 80 00 00
	00 00		 mov	 DWORD PTR _y2$[ebp], 0

; 3134 :  				WaterAct2 = MakeAnimDisp(x2, y2, RandAnimate, 18);

  003e4	6a 12		 push	 18			; 00000012H
  003e6	8b 45 b0	 mov	 eax, DWORD PTR _RandAnimate$[ebp]
  003e9	50		 push	 eax
  003ea	8b 4d 80	 mov	 ecx, DWORD PTR _y2$[ebp]
  003ed	51		 push	 ecx
  003ee	8b 55 8c	 mov	 edx, DWORD PTR _x2$[ebp]
  003f1	52		 push	 edx
  003f2	e8 00 00 00 00	 call	 ?MakeAnimDisp@@YAPAUaction@@HHHH@Z ; MakeAnimDisp
  003f7	83 c4 10	 add	 esp, 16			; 00000010H
  003fa	a3 00 00 00 00	 mov	 DWORD PTR ?WaterAct2@@3PAUaction@@A, eax
  003ff	e9 68 02 00 00	 jmp	 $LN57@drawField
$LN43@drawField:

; 3135 : 			}
; 3136 : 			else if (x2 == 1)

  00404	83 7d 8c 01	 cmp	 DWORD PTR _x2$[ebp], 1
  00408	75 54		 jne	 SHORT $LN45@drawField

; 3137 : 			{
; 3138 : 				x2 = 640 ;

  0040a	c7 45 8c 80 02
	00 00		 mov	 DWORD PTR _x2$[ebp], 640 ; 00000280H

; 3139 : 				y2 = RAND(50, 430);

  00411	8b f4		 mov	 esi, esp
  00413	ff 15 00 00 00
	00		 call	 DWORD PTR __imp__rand
  00419	3b f4		 cmp	 esi, esp
  0041b	e8 00 00 00 00	 call	 __RTC_CheckEsp
  00420	f2 0f 2a c0	 cvtsi2sd xmm0, eax
  00424	f2 0f 59 05 00
	00 00 00	 mulsd	 xmm0, QWORD PTR __real@4077d00000000000
  0042c	f2 0f 5e 05 00
	00 00 00	 divsd	 xmm0, QWORD PTR __real@40e0000000000000
  00434	f2 0f 2c c0	 cvttsd2si eax, xmm0
  00438	83 c0 32	 add	 eax, 50			; 00000032H
  0043b	89 45 80	 mov	 DWORD PTR _y2$[ebp], eax

; 3140 : 				WaterAct2 = MakeAnimDisp(x2, y2, RandAnimate, 18);

  0043e	6a 12		 push	 18			; 00000012H
  00440	8b 45 b0	 mov	 eax, DWORD PTR _RandAnimate$[ebp]
  00443	50		 push	 eax
  00444	8b 4d 80	 mov	 ecx, DWORD PTR _y2$[ebp]
  00447	51		 push	 ecx
  00448	8b 55 8c	 mov	 edx, DWORD PTR _x2$[ebp]
  0044b	52		 push	 edx
  0044c	e8 00 00 00 00	 call	 ?MakeAnimDisp@@YAPAUaction@@HHHH@Z ; MakeAnimDisp
  00451	83 c4 10	 add	 esp, 16			; 00000010H
  00454	a3 00 00 00 00	 mov	 DWORD PTR ?WaterAct2@@3PAUaction@@A, eax
  00459	e9 0e 02 00 00	 jmp	 $LN57@drawField
$LN45@drawField:

; 3141 : 			}
; 3142 : 			else if (x2 == 2) // 充 

  0045e	83 7d 8c 02	 cmp	 DWORD PTR _x2$[ebp], 2
  00462	75 51		 jne	 SHORT $LN47@drawField

; 3143 : 			{
; 3144 : 				x2 = RAND(0, 590);

  00464	8b f4		 mov	 esi, esp
  00466	ff 15 00 00 00
	00		 call	 DWORD PTR __imp__rand
  0046c	3b f4		 cmp	 esi, esp
  0046e	e8 00 00 00 00	 call	 __RTC_CheckEsp
  00473	f2 0f 2a c0	 cvtsi2sd xmm0, eax
  00477	f2 0f 59 05 00
	00 00 00	 mulsd	 xmm0, QWORD PTR __real@4082780000000000
  0047f	f2 0f 5e 05 00
	00 00 00	 divsd	 xmm0, QWORD PTR __real@40e0000000000000
  00487	f2 0f 2c c0	 cvttsd2si eax, xmm0
  0048b	89 45 8c	 mov	 DWORD PTR _x2$[ebp], eax

; 3145 : 				y2 = 0 ;

  0048e	c7 45 80 00 00
	00 00		 mov	 DWORD PTR _y2$[ebp], 0

; 3146 : 				WaterAct2 = MakeAnimDisp(x2, y2, RandAnimate, 18);

  00495	6a 12		 push	 18			; 00000012H
  00497	8b 45 b0	 mov	 eax, DWORD PTR _RandAnimate$[ebp]
  0049a	50		 push	 eax
  0049b	8b 4d 80	 mov	 ecx, DWORD PTR _y2$[ebp]
  0049e	51		 push	 ecx
  0049f	8b 55 8c	 mov	 edx, DWORD PTR _x2$[ebp]
  004a2	52		 push	 edx
  004a3	e8 00 00 00 00	 call	 ?MakeAnimDisp@@YAPAUaction@@HHHH@Z ; MakeAnimDisp
  004a8	83 c4 10	 add	 esp, 16			; 00000010H
  004ab	a3 00 00 00 00	 mov	 DWORD PTR ?WaterAct2@@3PAUaction@@A, eax
  004b0	e9 b7 01 00 00	 jmp	 $LN57@drawField
$LN47@drawField:

; 3147 : 			}
; 3148 : 			else if (x2 == 3)

  004b5	83 7d 8c 03	 cmp	 DWORD PTR _x2$[ebp], 3
  004b9	75 54		 jne	 SHORT $LN49@drawField

; 3149 : 			{
; 3150 : 				x2 = 0 ;

  004bb	c7 45 8c 00 00
	00 00		 mov	 DWORD PTR _x2$[ebp], 0

; 3151 : 				y2 = RAND(50, 430);

  004c2	8b f4		 mov	 esi, esp
  004c4	ff 15 00 00 00
	00		 call	 DWORD PTR __imp__rand
  004ca	3b f4		 cmp	 esi, esp
  004cc	e8 00 00 00 00	 call	 __RTC_CheckEsp
  004d1	f2 0f 2a c0	 cvtsi2sd xmm0, eax
  004d5	f2 0f 59 05 00
	00 00 00	 mulsd	 xmm0, QWORD PTR __real@4077d00000000000
  004dd	f2 0f 5e 05 00
	00 00 00	 divsd	 xmm0, QWORD PTR __real@40e0000000000000
  004e5	f2 0f 2c c0	 cvttsd2si eax, xmm0
  004e9	83 c0 32	 add	 eax, 50			; 00000032H
  004ec	89 45 80	 mov	 DWORD PTR _y2$[ebp], eax

; 3152 : 				WaterAct2 = MakeAnimDisp(x2, y2, RandAnimate, 18);

  004ef	6a 12		 push	 18			; 00000012H
  004f1	8b 45 b0	 mov	 eax, DWORD PTR _RandAnimate$[ebp]
  004f4	50		 push	 eax
  004f5	8b 4d 80	 mov	 ecx, DWORD PTR _y2$[ebp]
  004f8	51		 push	 ecx
  004f9	8b 55 8c	 mov	 edx, DWORD PTR _x2$[ebp]
  004fc	52		 push	 edx
  004fd	e8 00 00 00 00	 call	 ?MakeAnimDisp@@YAPAUaction@@HHHH@Z ; MakeAnimDisp
  00502	83 c4 10	 add	 esp, 16			; 00000010H
  00505	a3 00 00 00 00	 mov	 DWORD PTR ?WaterAct2@@3PAUaction@@A, eax
  0050a	e9 5d 01 00 00	 jmp	 $LN57@drawField
$LN49@drawField:

; 3153 : 			}
; 3154 : 			else if (x2 == 4) // 宸涓

  0050f	83 7d 8c 04	 cmp	 DWORD PTR _x2$[ebp], 4
  00513	75 54		 jne	 SHORT $LN51@drawField

; 3155 : 			{
; 3156 : 				x2 = RAND(50, 640);

  00515	8b f4		 mov	 esi, esp
  00517	ff 15 00 00 00
	00		 call	 DWORD PTR __imp__rand
  0051d	3b f4		 cmp	 esi, esp
  0051f	e8 00 00 00 00	 call	 __RTC_CheckEsp
  00524	f2 0f 2a c0	 cvtsi2sd xmm0, eax
  00528	f2 0f 59 05 00
	00 00 00	 mulsd	 xmm0, QWORD PTR __real@4082780000000000
  00530	f2 0f 5e 05 00
	00 00 00	 divsd	 xmm0, QWORD PTR __real@40e0000000000000
  00538	f2 0f 2c c0	 cvttsd2si eax, xmm0
  0053c	83 c0 32	 add	 eax, 50			; 00000032H
  0053f	89 45 8c	 mov	 DWORD PTR _x2$[ebp], eax

; 3157 : 				y2 = 480 ;

  00542	c7 45 80 e0 01
	00 00		 mov	 DWORD PTR _y2$[ebp], 480 ; 000001e0H

; 3158 :  				WaterAct2 = MakeAnimDisp(x2, y2, RandAnimate, 18);

  00549	6a 12		 push	 18			; 00000012H
  0054b	8b 45 b0	 mov	 eax, DWORD PTR _RandAnimate$[ebp]
  0054e	50		 push	 eax
  0054f	8b 4d 80	 mov	 ecx, DWORD PTR _y2$[ebp]
  00552	51		 push	 ecx
  00553	8b 55 8c	 mov	 edx, DWORD PTR _x2$[ebp]
  00556	52		 push	 edx
  00557	e8 00 00 00 00	 call	 ?MakeAnimDisp@@YAPAUaction@@HHHH@Z ; MakeAnimDisp
  0055c	83 c4 10	 add	 esp, 16			; 00000010H
  0055f	a3 00 00 00 00	 mov	 DWORD PTR ?WaterAct2@@3PAUaction@@A, eax
  00564	e9 03 01 00 00	 jmp	 $LN57@drawField
$LN51@drawField:

; 3159 : 			}
; 3160 : 			else if (x2 == 5)

  00569	83 7d 8c 05	 cmp	 DWORD PTR _x2$[ebp], 5
  0056d	75 54		 jne	 SHORT $LN53@drawField

; 3161 : 			{
; 3162 : 				x2 = 640 ;

  0056f	c7 45 8c 80 02
	00 00		 mov	 DWORD PTR _x2$[ebp], 640 ; 00000280H

; 3163 : 				y2 = RAND(50, 430);

  00576	8b f4		 mov	 esi, esp
  00578	ff 15 00 00 00
	00		 call	 DWORD PTR __imp__rand
  0057e	3b f4		 cmp	 esi, esp
  00580	e8 00 00 00 00	 call	 __RTC_CheckEsp
  00585	f2 0f 2a c0	 cvtsi2sd xmm0, eax
  00589	f2 0f 59 05 00
	00 00 00	 mulsd	 xmm0, QWORD PTR __real@4077d00000000000
  00591	f2 0f 5e 05 00
	00 00 00	 divsd	 xmm0, QWORD PTR __real@40e0000000000000
  00599	f2 0f 2c c0	 cvttsd2si eax, xmm0
  0059d	83 c0 32	 add	 eax, 50			; 00000032H
  005a0	89 45 80	 mov	 DWORD PTR _y2$[ebp], eax

; 3164 : 				WaterAct2 = MakeAnimDisp(x2, y2, RandAnimate, 18);

  005a3	6a 12		 push	 18			; 00000012H
  005a5	8b 45 b0	 mov	 eax, DWORD PTR _RandAnimate$[ebp]
  005a8	50		 push	 eax
  005a9	8b 4d 80	 mov	 ecx, DWORD PTR _y2$[ebp]
  005ac	51		 push	 ecx
  005ad	8b 55 8c	 mov	 edx, DWORD PTR _x2$[ebp]
  005b0	52		 push	 edx
  005b1	e8 00 00 00 00	 call	 ?MakeAnimDisp@@YAPAUaction@@HHHH@Z ; MakeAnimDisp
  005b6	83 c4 10	 add	 esp, 16			; 00000010H
  005b9	a3 00 00 00 00	 mov	 DWORD PTR ?WaterAct2@@3PAUaction@@A, eax
  005be	e9 a9 00 00 00	 jmp	 $LN57@drawField
$LN53@drawField:

; 3165 : 			}
; 3166 : 			else if (x2 == 6) // 充

  005c3	83 7d 8c 06	 cmp	 DWORD PTR _x2$[ebp], 6
  005c7	75 51		 jne	 SHORT $LN55@drawField

; 3167 : 			{
; 3168 : 				x2 = 0 ;

  005c9	c7 45 8c 00 00
	00 00		 mov	 DWORD PTR _x2$[ebp], 0

; 3169 : 				y2 = RAND(50, 430);

  005d0	8b f4		 mov	 esi, esp
  005d2	ff 15 00 00 00
	00		 call	 DWORD PTR __imp__rand
  005d8	3b f4		 cmp	 esi, esp
  005da	e8 00 00 00 00	 call	 __RTC_CheckEsp
  005df	f2 0f 2a c0	 cvtsi2sd xmm0, eax
  005e3	f2 0f 59 05 00
	00 00 00	 mulsd	 xmm0, QWORD PTR __real@4077d00000000000
  005eb	f2 0f 5e 05 00
	00 00 00	 divsd	 xmm0, QWORD PTR __real@40e0000000000000
  005f3	f2 0f 2c c0	 cvttsd2si eax, xmm0
  005f7	83 c0 32	 add	 eax, 50			; 00000032H
  005fa	89 45 80	 mov	 DWORD PTR _y2$[ebp], eax

; 3170 : 				WaterAct2 = MakeAnimDisp(x2, y2, RandAnimate, 18);

  005fd	6a 12		 push	 18			; 00000012H
  005ff	8b 45 b0	 mov	 eax, DWORD PTR _RandAnimate$[ebp]
  00602	50		 push	 eax
  00603	8b 4d 80	 mov	 ecx, DWORD PTR _y2$[ebp]
  00606	51		 push	 ecx
  00607	8b 55 8c	 mov	 edx, DWORD PTR _x2$[ebp]
  0060a	52		 push	 edx
  0060b	e8 00 00 00 00	 call	 ?MakeAnimDisp@@YAPAUaction@@HHHH@Z ; MakeAnimDisp
  00610	83 c4 10	 add	 esp, 16			; 00000010H
  00613	a3 00 00 00 00	 mov	 DWORD PTR ?WaterAct2@@3PAUaction@@A, eax
  00618	eb 52		 jmp	 SHORT $LN57@drawField
$LN55@drawField:

; 3171 : 			}
; 3172 : 			else if (x2 == 7)

  0061a	83 7d 8c 07	 cmp	 DWORD PTR _x2$[ebp], 7
  0061e	75 4c		 jne	 SHORT $LN57@drawField

; 3173 : 			{
; 3174 : 				x2 = RAND(0, 590);

  00620	8b f4		 mov	 esi, esp
  00622	ff 15 00 00 00
	00		 call	 DWORD PTR __imp__rand
  00628	3b f4		 cmp	 esi, esp
  0062a	e8 00 00 00 00	 call	 __RTC_CheckEsp
  0062f	f2 0f 2a c0	 cvtsi2sd xmm0, eax
  00633	f2 0f 59 05 00
	00 00 00	 mulsd	 xmm0, QWORD PTR __real@4082780000000000
  0063b	f2 0f 5e 05 00
	00 00 00	 divsd	 xmm0, QWORD PTR __real@40e0000000000000
  00643	f2 0f 2c c0	 cvttsd2si eax, xmm0
  00647	89 45 8c	 mov	 DWORD PTR _x2$[ebp], eax

; 3175 : 				y2 = 480 ;

  0064a	c7 45 80 e0 01
	00 00		 mov	 DWORD PTR _y2$[ebp], 480 ; 000001e0H

; 3176 :  				WaterAct2 = MakeAnimDisp(x2, y2, RandAnimate, 18);

  00651	6a 12		 push	 18			; 00000012H
  00653	8b 45 b0	 mov	 eax, DWORD PTR _RandAnimate$[ebp]
  00656	50		 push	 eax
  00657	8b 4d 80	 mov	 ecx, DWORD PTR _y2$[ebp]
  0065a	51		 push	 ecx
  0065b	8b 55 8c	 mov	 edx, DWORD PTR _x2$[ebp]
  0065e	52		 push	 edx
  0065f	e8 00 00 00 00	 call	 ?MakeAnimDisp@@YAPAUaction@@HHHH@Z ; MakeAnimDisp
  00664	83 c4 10	 add	 esp, 16			; 00000010H
  00667	a3 00 00 00 00	 mov	 DWORD PTR ?WaterAct2@@3PAUaction@@A, eax
$LN57@drawField:

; 3177 : 			}
; 3178 : 		}
; 3179 : 	}
; 3180 : 	if ((nowFloor != 817 ) && (nowFloor != 8007) && (nowFloor != 8100) && (nowFloor != 8101) && 
; 3181 : 		(nowFloor != 8027) && (nowFloor != 8028) && (nowFloor != 8029) && (nowFloor != 8015) && (nowFloor != 8113) && (nowFloor != 8114) )

  0066c	81 3d 00 00 00
	00 31 03 00 00	 cmp	 DWORD PTR ?nowFloor@@3HA, 817 ; nowFloor, 00000331H
  00676	0f 84 81 00 00
	00		 je	 $LN58@drawField
  0067c	81 3d 00 00 00
	00 47 1f 00 00	 cmp	 DWORD PTR ?nowFloor@@3HA, 8007 ; nowFloor, 00001f47H
  00686	74 75		 je	 SHORT $LN58@drawField
  00688	81 3d 00 00 00
	00 a4 1f 00 00	 cmp	 DWORD PTR ?nowFloor@@3HA, 8100 ; nowFloor, 00001fa4H
  00692	74 69		 je	 SHORT $LN58@drawField
  00694	81 3d 00 00 00
	00 a5 1f 00 00	 cmp	 DWORD PTR ?nowFloor@@3HA, 8101 ; nowFloor, 00001fa5H
  0069e	74 5d		 je	 SHORT $LN58@drawField
  006a0	81 3d 00 00 00
	00 5b 1f 00 00	 cmp	 DWORD PTR ?nowFloor@@3HA, 8027 ; nowFloor, 00001f5bH
  006aa	74 51		 je	 SHORT $LN58@drawField
  006ac	81 3d 00 00 00
	00 5c 1f 00 00	 cmp	 DWORD PTR ?nowFloor@@3HA, 8028 ; nowFloor, 00001f5cH
  006b6	74 45		 je	 SHORT $LN58@drawField
  006b8	81 3d 00 00 00
	00 5d 1f 00 00	 cmp	 DWORD PTR ?nowFloor@@3HA, 8029 ; nowFloor, 00001f5dH
  006c2	74 39		 je	 SHORT $LN58@drawField
  006c4	81 3d 00 00 00
	00 4f 1f 00 00	 cmp	 DWORD PTR ?nowFloor@@3HA, 8015 ; nowFloor, 00001f4fH
  006ce	74 2d		 je	 SHORT $LN58@drawField
  006d0	81 3d 00 00 00
	00 b1 1f 00 00	 cmp	 DWORD PTR ?nowFloor@@3HA, 8113 ; nowFloor, 00001fb1H
  006da	74 21		 je	 SHORT $LN58@drawField
  006dc	81 3d 00 00 00
	00 b2 1f 00 00	 cmp	 DWORD PTR ?nowFloor@@3HA, 8114 ; nowFloor, 00001fb2H
  006e6	74 15		 je	 SHORT $LN58@drawField

; 3182 : 	{
; 3183 : 		delFlag = false;

  006e8	c6 05 00 00 00
	00 00		 mov	 BYTE PTR ?delFlag@@3_NA, 0 ; delFlag

; 3184 : 		flag22 = true;

  006ef	c6 05 00 00 00
	00 01		 mov	 BYTE PTR ?flag22@@3_NA, 1 ; flag22

; 3185 : 		Timeflag2 = false;	

  006f6	c6 05 00 00 00
	00 00		 mov	 BYTE PTR ?Timeflag2@@3_NA, 0 ; Timeflag2
$LN58@drawField:

; 3186 : 	}
; 3187 : #endif
; 3188 : 
; 3189 : #ifdef _AniImmobile	 // Syu ADD 瀹逛骇瑰ㄧ
; 3190 : 	if (nowFloor == 817)

  006fd	81 3d 00 00 00
	00 31 03 00 00	 cmp	 DWORD PTR ?nowFloor@@3HA, 817 ; nowFloor, 00000331H
  00707	0f 85 28 05 00
	00		 jne	 $LN59@drawField

; 3191 : 	{
; 3192 : 		in817flag = true ;

  0070d	c6 05 00 00 00
	00 01		 mov	 BYTE PTR ?in817flag@@3_NA, 1 ; in817flag

; 3193 : 		for (i = 0; i < 560; i++)  

  00714	c7 45 c8 00 00
	00 00		 mov	 DWORD PTR _i$[ebp], 0
  0071b	eb 09		 jmp	 SHORT $LN4@drawField
$LN2@drawField:
  0071d	8b 45 c8	 mov	 eax, DWORD PTR _i$[ebp]
  00720	83 c0 01	 add	 eax, 1
  00723	89 45 c8	 mov	 DWORD PTR _i$[ebp], eax
$LN4@drawField:
  00726	81 7d c8 30 02
	00 00		 cmp	 DWORD PTR _i$[ebp], 560	; 00000230H
  0072d	0f 8d fd 04 00
	00		 jge	 $LN3@drawField

; 3194 : 		{
; 3195 : 			//ゆ瀹瑰ㄧ讳骇规ㄤ汉 32 * 32村
; 3196 : 			if ((nowGx > XYposition[i][0] - 16) && (nowGx < XYposition[i][0] + 16) && 
; 3197 : 				(nowGy > XYposition[i][1] - 16) && (nowGy < XYposition[i][1] + 16))

  00733	6b 45 c8 1c	 imul	 eax, DWORD PTR _i$[ebp], 28
  00737	b9 04 00 00 00	 mov	 ecx, 4
  0073c	6b d1 00	 imul	 edx, ecx, 0
  0073f	8b 84 10 00 00
	00 00		 mov	 eax, DWORD PTR ?XYposition@@3PAY06HA[eax+edx]
  00746	83 e8 10	 sub	 eax, 16			; 00000010H
  00749	39 05 00 00 00
	00		 cmp	 DWORD PTR ?nowGx@@3HA, eax ; nowGx
  0074f	0f 8e cf 03 00
	00		 jle	 $LN73@drawField
  00755	6b 45 c8 1c	 imul	 eax, DWORD PTR _i$[ebp], 28
  00759	b9 04 00 00 00	 mov	 ecx, 4
  0075e	6b d1 00	 imul	 edx, ecx, 0
  00761	8b 84 10 00 00
	00 00		 mov	 eax, DWORD PTR ?XYposition@@3PAY06HA[eax+edx]
  00768	83 c0 10	 add	 eax, 16			; 00000010H
  0076b	39 05 00 00 00
	00		 cmp	 DWORD PTR ?nowGx@@3HA, eax ; nowGx
  00771	0f 8d ad 03 00
	00		 jge	 $LN73@drawField
  00777	6b 45 c8 1c	 imul	 eax, DWORD PTR _i$[ebp], 28
  0077b	b9 04 00 00 00	 mov	 ecx, 4
  00780	c1 e1 00	 shl	 ecx, 0
  00783	8b 94 08 00 00
	00 00		 mov	 edx, DWORD PTR ?XYposition@@3PAY06HA[eax+ecx]
  0078a	83 ea 10	 sub	 edx, 16			; 00000010H
  0078d	39 15 00 00 00
	00		 cmp	 DWORD PTR ?nowGy@@3HA, edx ; nowGy
  00793	0f 8e 8b 03 00
	00		 jle	 $LN73@drawField
  00799	6b 45 c8 1c	 imul	 eax, DWORD PTR _i$[ebp], 28
  0079d	b9 04 00 00 00	 mov	 ecx, 4
  007a2	c1 e1 00	 shl	 ecx, 0
  007a5	8b 94 08 00 00
	00 00		 mov	 edx, DWORD PTR ?XYposition@@3PAY06HA[eax+ecx]
  007ac	83 c2 10	 add	 edx, 16			; 00000010H
  007af	39 15 00 00 00
	00		 cmp	 DWORD PTR ?nowGy@@3HA, edx ; nowGy
  007b5	0f 8d 69 03 00
	00		 jge	 $LN73@drawField

; 3198 : 			{
; 3199 : 				//ゆ宸蹭骇
; 3200 : 				if (XYposition[i][3] == 0)

  007bb	6b 45 c8 1c	 imul	 eax, DWORD PTR _i$[ebp], 28
  007bf	b9 04 00 00 00	 mov	 ecx, 4
  007c4	6b d1 03	 imul	 edx, ecx, 3
  007c7	83 bc 10 00 00
	00 00 00	 cmp	 DWORD PTR ?XYposition@@3PAY06HA[eax+edx], 0
  007cf	0f 85 34 01 00
	00		 jne	 $LN62@drawField

; 3201 : 				{
; 3202 : 					//缃ACTION
; 3203 : 					for (int j = 0; j < 30; j++)

  007d5	c7 85 74 ff ff
	ff 00 00 00 00	 mov	 DWORD PTR _j$2[ebp], 0
  007df	eb 0f		 jmp	 SHORT $LN7@drawField
$LN5@drawField:
  007e1	8b 85 74 ff ff
	ff		 mov	 eax, DWORD PTR _j$2[ebp]
  007e7	83 c0 01	 add	 eax, 1
  007ea	89 85 74 ff ff
	ff		 mov	 DWORD PTR _j$2[ebp], eax
$LN7@drawField:
  007f0	83 bd 74 ff ff
	ff 1e		 cmp	 DWORD PTR _j$2[ebp], 30	; 0000001eH
  007f7	0f 8d 07 01 00
	00		 jge	 $LN6@drawField

; 3204 : 					{
; 3205 : 						if (WaterAct3[j] == NULL)

  007fd	8b 85 74 ff ff
	ff		 mov	 eax, DWORD PTR _j$2[ebp]
  00803	83 3c 85 00 00
	00 00 00	 cmp	 DWORD PTR ?WaterAct3@@3PAPAUaction@@A[eax*4], 0
  0080b	0f 85 ee 00 00
	00		 jne	 $LN64@drawField

; 3206 : 						{
; 3207 : 							if (XYposition[i][5] == 2)

  00811	6b 45 c8 1c	 imul	 eax, DWORD PTR _i$[ebp], 28
  00815	b9 04 00 00 00	 mov	 ecx, 4
  0081a	6b d1 05	 imul	 edx, ecx, 5
  0081d	83 bc 10 00 00
	00 00 02	 cmp	 DWORD PTR ?XYposition@@3PAY06HA[eax+edx], 2
  00825	75 54		 jne	 SHORT $LN65@drawField

; 3208 : 								WaterAct3[j] = createWaterAnimation(XYposition[i][2], XYposition[i][0], XYposition[i][1], 0);

  00827	6a 00		 push	 0
  00829	6b 45 c8 1c	 imul	 eax, DWORD PTR _i$[ebp], 28
  0082d	b9 04 00 00 00	 mov	 ecx, 4
  00832	c1 e1 00	 shl	 ecx, 0
  00835	8b 94 08 00 00
	00 00		 mov	 edx, DWORD PTR ?XYposition@@3PAY06HA[eax+ecx]
  0083c	52		 push	 edx
  0083d	6b 45 c8 1c	 imul	 eax, DWORD PTR _i$[ebp], 28
  00841	b9 04 00 00 00	 mov	 ecx, 4
  00846	6b d1 00	 imul	 edx, ecx, 0
  00849	8b 84 10 00 00
	00 00		 mov	 eax, DWORD PTR ?XYposition@@3PAY06HA[eax+edx]
  00850	50		 push	 eax
  00851	6b 4d c8 1c	 imul	 ecx, DWORD PTR _i$[ebp], 28
  00855	ba 04 00 00 00	 mov	 edx, 4
  0085a	d1 e2		 shl	 edx, 1
  0085c	8b 84 11 00 00
	00 00		 mov	 eax, DWORD PTR ?XYposition@@3PAY06HA[ecx+edx]
  00863	50		 push	 eax
  00864	e8 00 00 00 00	 call	 ?createWaterAnimation@@YAPAUaction@@HHHH@Z ; createWaterAnimation
  00869	83 c4 10	 add	 esp, 16			; 00000010H
  0086c	8b 8d 74 ff ff
	ff		 mov	 ecx, DWORD PTR _j$2[ebp]
  00872	89 04 8d 00 00
	00 00		 mov	 DWORD PTR ?WaterAct3@@3PAPAUaction@@A[ecx*4], eax

; 3209 : 							else

  00879	eb 52		 jmp	 SHORT $LN66@drawField
$LN65@drawField:

; 3210 : 								WaterAct3[j] = createWaterAnimation(XYposition[i][2], XYposition[i][0], XYposition[i][1], 30);

  0087b	6a 1e		 push	 30			; 0000001eH
  0087d	6b 45 c8 1c	 imul	 eax, DWORD PTR _i$[ebp], 28
  00881	b9 04 00 00 00	 mov	 ecx, 4
  00886	c1 e1 00	 shl	 ecx, 0
  00889	8b 94 08 00 00
	00 00		 mov	 edx, DWORD PTR ?XYposition@@3PAY06HA[eax+ecx]
  00890	52		 push	 edx
  00891	6b 45 c8 1c	 imul	 eax, DWORD PTR _i$[ebp], 28
  00895	b9 04 00 00 00	 mov	 ecx, 4
  0089a	6b d1 00	 imul	 edx, ecx, 0
  0089d	8b 84 10 00 00
	00 00		 mov	 eax, DWORD PTR ?XYposition@@3PAY06HA[eax+edx]
  008a4	50		 push	 eax
  008a5	6b 4d c8 1c	 imul	 ecx, DWORD PTR _i$[ebp], 28
  008a9	ba 04 00 00 00	 mov	 edx, 4
  008ae	d1 e2		 shl	 edx, 1
  008b0	8b 84 11 00 00
	00 00		 mov	 eax, DWORD PTR ?XYposition@@3PAY06HA[ecx+edx]
  008b7	50		 push	 eax
  008b8	e8 00 00 00 00	 call	 ?createWaterAnimation@@YAPAUaction@@HHHH@Z ; createWaterAnimation
  008bd	83 c4 10	 add	 esp, 16			; 00000010H
  008c0	8b 8d 74 ff ff
	ff		 mov	 ecx, DWORD PTR _j$2[ebp]
  008c6	89 04 8d 00 00
	00 00		 mov	 DWORD PTR ?WaterAct3@@3PAPAUaction@@A[ecx*4], eax
$LN66@drawField:

; 3211 : 							XYposition[i][3] = 1;

  008cd	6b 45 c8 1c	 imul	 eax, DWORD PTR _i$[ebp], 28
  008d1	b9 04 00 00 00	 mov	 ecx, 4
  008d6	6b d1 03	 imul	 edx, ecx, 3
  008d9	c7 84 10 00 00
	00 00 01 00 00
	00		 mov	 DWORD PTR ?XYposition@@3PAY06HA[eax+edx], 1

; 3212 : 							XYposition[i][4] = j;

  008e4	6b 45 c8 1c	 imul	 eax, DWORD PTR _i$[ebp], 28
  008e8	b9 04 00 00 00	 mov	 ecx, 4
  008ed	c1 e1 02	 shl	 ecx, 2
  008f0	8b 95 74 ff ff
	ff		 mov	 edx, DWORD PTR _j$2[ebp]
  008f6	89 94 08 00 00
	00 00		 mov	 DWORD PTR ?XYposition@@3PAY06HA[eax+ecx], edx

; 3213 : 							break;

  008fd	eb 05		 jmp	 SHORT $LN6@drawField
$LN64@drawField:

; 3214 : 						}
; 3215 : 					}

  008ff	e9 dd fe ff ff	 jmp	 $LN5@drawField
$LN6@drawField:

; 3216 : 				}
; 3217 : 				else 

  00904	e9 1b 02 00 00	 jmp	 $LN73@drawField
$LN62@drawField:

; 3218 : 				{
; 3219 : 					//瀹瑰ㄧ荤婕娴
; 3220 : 					XYposition[i][6]++;

  00909	b8 04 00 00 00	 mov	 eax, 4
  0090e	6b c8 06	 imul	 ecx, eax, 6
  00911	6b 55 c8 1c	 imul	 edx, DWORD PTR _i$[ebp], 28
  00915	8b 84 0a 00 00
	00 00		 mov	 eax, DWORD PTR ?XYposition@@3PAY06HA[edx+ecx]
  0091c	83 c0 01	 add	 eax, 1
  0091f	b9 04 00 00 00	 mov	 ecx, 4
  00924	6b d1 06	 imul	 edx, ecx, 6
  00927	6b 4d c8 1c	 imul	 ecx, DWORD PTR _i$[ebp], 28
  0092b	89 84 11 00 00
	00 00		 mov	 DWORD PTR ?XYposition@@3PAY06HA[ecx+edx], eax

; 3221 : 					//堕村哄
; 3222 : 					if (XYposition[i][6] > 65)

  00932	6b 45 c8 1c	 imul	 eax, DWORD PTR _i$[ebp], 28
  00936	b9 04 00 00 00	 mov	 ecx, 4
  0093b	6b d1 06	 imul	 edx, ecx, 6
  0093e	83 bc 10 00 00
	00 00 41	 cmp	 DWORD PTR ?XYposition@@3PAY06HA[eax+edx], 65 ; 00000041H
  00946	7e 73		 jle	 SHORT $LN70@drawField

; 3223 : 					{
; 3224 : 						XYposition[i][6] = 0;	

  00948	6b 45 c8 1c	 imul	 eax, DWORD PTR _i$[ebp], 28
  0094c	b9 04 00 00 00	 mov	 ecx, 4
  00951	6b d1 06	 imul	 edx, ecx, 6
  00954	c7 84 10 00 00
	00 00 00 00 00
	00		 mov	 DWORD PTR ?XYposition@@3PAY06HA[eax+edx], 0

; 3225 : 						//(XYposition[i][5]== 1 ) ? 0 : 1;
; 3226 : 						if (XYposition[i][5] == 1)

  0095f	6b 45 c8 1c	 imul	 eax, DWORD PTR _i$[ebp], 28
  00963	b9 04 00 00 00	 mov	 ecx, 4
  00968	6b d1 05	 imul	 edx, ecx, 5
  0096b	83 bc 10 00 00
	00 00 01	 cmp	 DWORD PTR ?XYposition@@3PAY06HA[eax+edx], 1
  00973	75 19		 jne	 SHORT $LN68@drawField

; 3227 : 							XYposition[i][5] = 0;

  00975	6b 45 c8 1c	 imul	 eax, DWORD PTR _i$[ebp], 28
  00979	b9 04 00 00 00	 mov	 ecx, 4
  0097e	6b d1 05	 imul	 edx, ecx, 5
  00981	c7 84 10 00 00
	00 00 00 00 00
	00		 mov	 DWORD PTR ?XYposition@@3PAY06HA[eax+edx], 0
  0098c	eb 2d		 jmp	 SHORT $LN70@drawField
$LN68@drawField:

; 3228 : 						else if (XYposition[i][5] == 0)

  0098e	6b 45 c8 1c	 imul	 eax, DWORD PTR _i$[ebp], 28
  00992	b9 04 00 00 00	 mov	 ecx, 4
  00997	6b d1 05	 imul	 edx, ecx, 5
  0099a	83 bc 10 00 00
	00 00 00	 cmp	 DWORD PTR ?XYposition@@3PAY06HA[eax+edx], 0
  009a2	75 17		 jne	 SHORT $LN70@drawField

; 3229 : 							XYposition[i][5] = 1;

  009a4	6b 45 c8 1c	 imul	 eax, DWORD PTR _i$[ebp], 28
  009a8	b9 04 00 00 00	 mov	 ecx, 4
  009ad	6b d1 05	 imul	 edx, ecx, 5
  009b0	c7 84 10 00 00
	00 00 01 00 00
	00		 mov	 DWORD PTR ?XYposition@@3PAY06HA[eax+edx], 1
$LN70@drawField:

; 3230 : 					}
; 3231 : 					if (XYposition[i][5] == 1)

  009bb	6b 45 c8 1c	 imul	 eax, DWORD PTR _i$[ebp], 28
  009bf	b9 04 00 00 00	 mov	 ecx, 4
  009c4	6b d1 05	 imul	 edx, ecx, 5
  009c7	83 bc 10 00 00
	00 00 01	 cmp	 DWORD PTR ?XYposition@@3PAY06HA[eax+edx], 1
  009cf	0f 85 9d 00 00
	00		 jne	 $LN71@drawField

; 3232 : 					{
; 3233 : 						WaterAct3[XYposition[i][4]]->mx = WaterAct3[XYposition[i][4]]->mx + float(0.5);

  009d5	6b 45 c8 1c	 imul	 eax, DWORD PTR _i$[ebp], 28
  009d9	b9 04 00 00 00	 mov	 ecx, 4
  009de	c1 e1 02	 shl	 ecx, 2
  009e1	8b 94 08 00 00
	00 00		 mov	 edx, DWORD PTR ?XYposition@@3PAY06HA[eax+ecx]
  009e8	8b 04 95 00 00
	00 00		 mov	 eax, DWORD PTR ?WaterAct3@@3PAPAUaction@@A[edx*4]
  009ef	f3 0f 10 80 18
	01 00 00	 movss	 xmm0, DWORD PTR [eax+280]
  009f7	f3 0f 58 05 00
	00 00 00	 addss	 xmm0, DWORD PTR __real@3f000000
  009ff	6b 4d c8 1c	 imul	 ecx, DWORD PTR _i$[ebp], 28
  00a03	ba 04 00 00 00	 mov	 edx, 4
  00a08	c1 e2 02	 shl	 edx, 2
  00a0b	8b 84 11 00 00
	00 00		 mov	 eax, DWORD PTR ?XYposition@@3PAY06HA[ecx+edx]
  00a12	8b 0c 85 00 00
	00 00		 mov	 ecx, DWORD PTR ?WaterAct3@@3PAPAUaction@@A[eax*4]
  00a19	f3 0f 11 81 18
	01 00 00	 movss	 DWORD PTR [ecx+280], xmm0

; 3234 : 						WaterAct3[XYposition[i][4]]->my = WaterAct3[XYposition[i][4]]->my - float(0.5);

  00a21	6b 45 c8 1c	 imul	 eax, DWORD PTR _i$[ebp], 28
  00a25	b9 04 00 00 00	 mov	 ecx, 4
  00a2a	c1 e1 02	 shl	 ecx, 2
  00a2d	8b 94 08 00 00
	00 00		 mov	 edx, DWORD PTR ?XYposition@@3PAY06HA[eax+ecx]
  00a34	8b 04 95 00 00
	00 00		 mov	 eax, DWORD PTR ?WaterAct3@@3PAPAUaction@@A[edx*4]
  00a3b	f3 0f 10 80 1c
	01 00 00	 movss	 xmm0, DWORD PTR [eax+284]
  00a43	f3 0f 5c 05 00
	00 00 00	 subss	 xmm0, DWORD PTR __real@3f000000
  00a4b	6b 4d c8 1c	 imul	 ecx, DWORD PTR _i$[ebp], 28
  00a4f	ba 04 00 00 00	 mov	 edx, 4
  00a54	c1 e2 02	 shl	 edx, 2
  00a57	8b 84 11 00 00
	00 00		 mov	 eax, DWORD PTR ?XYposition@@3PAY06HA[ecx+edx]
  00a5e	8b 0c 85 00 00
	00 00		 mov	 ecx, DWORD PTR ?WaterAct3@@3PAPAUaction@@A[eax*4]
  00a65	f3 0f 11 81 1c
	01 00 00	 movss	 DWORD PTR [ecx+284], xmm0
  00a6d	e9 b2 00 00 00	 jmp	 $LN73@drawField
$LN71@drawField:

; 3235 : 					}
; 3236 : 					else if (XYposition[i][5] == 0)

  00a72	6b 45 c8 1c	 imul	 eax, DWORD PTR _i$[ebp], 28
  00a76	b9 04 00 00 00	 mov	 ecx, 4
  00a7b	6b d1 05	 imul	 edx, ecx, 5
  00a7e	83 bc 10 00 00
	00 00 00	 cmp	 DWORD PTR ?XYposition@@3PAY06HA[eax+edx], 0
  00a86	0f 85 98 00 00
	00		 jne	 $LN73@drawField

; 3237 : 					{
; 3238 : 						WaterAct3[XYposition[i][4]]->mx = WaterAct3[XYposition[i][4]]->mx - float(0.5);

  00a8c	6b 45 c8 1c	 imul	 eax, DWORD PTR _i$[ebp], 28
  00a90	b9 04 00 00 00	 mov	 ecx, 4
  00a95	c1 e1 02	 shl	 ecx, 2
  00a98	8b 94 08 00 00
	00 00		 mov	 edx, DWORD PTR ?XYposition@@3PAY06HA[eax+ecx]
  00a9f	8b 04 95 00 00
	00 00		 mov	 eax, DWORD PTR ?WaterAct3@@3PAPAUaction@@A[edx*4]
  00aa6	f3 0f 10 80 18
	01 00 00	 movss	 xmm0, DWORD PTR [eax+280]
  00aae	f3 0f 5c 05 00
	00 00 00	 subss	 xmm0, DWORD PTR __real@3f000000
  00ab6	6b 4d c8 1c	 imul	 ecx, DWORD PTR _i$[ebp], 28
  00aba	ba 04 00 00 00	 mov	 edx, 4
  00abf	c1 e2 02	 shl	 edx, 2
  00ac2	8b 84 11 00 00
	00 00		 mov	 eax, DWORD PTR ?XYposition@@3PAY06HA[ecx+edx]
  00ac9	8b 0c 85 00 00
	00 00		 mov	 ecx, DWORD PTR ?WaterAct3@@3PAPAUaction@@A[eax*4]
  00ad0	f3 0f 11 81 18
	01 00 00	 movss	 DWORD PTR [ecx+280], xmm0

; 3239 : 						WaterAct3[XYposition[i][4]]->my = WaterAct3[XYposition[i][4]]->my + float(0.5);

  00ad8	6b 45 c8 1c	 imul	 eax, DWORD PTR _i$[ebp], 28
  00adc	b9 04 00 00 00	 mov	 ecx, 4
  00ae1	c1 e1 02	 shl	 ecx, 2
  00ae4	8b 94 08 00 00
	00 00		 mov	 edx, DWORD PTR ?XYposition@@3PAY06HA[eax+ecx]
  00aeb	8b 04 95 00 00
	00 00		 mov	 eax, DWORD PTR ?WaterAct3@@3PAPAUaction@@A[edx*4]
  00af2	f3 0f 10 80 1c
	01 00 00	 movss	 xmm0, DWORD PTR [eax+284]
  00afa	f3 0f 58 05 00
	00 00 00	 addss	 xmm0, DWORD PTR __real@3f000000
  00b02	6b 4d c8 1c	 imul	 ecx, DWORD PTR _i$[ebp], 28
  00b06	ba 04 00 00 00	 mov	 edx, 4
  00b0b	c1 e2 02	 shl	 edx, 2
  00b0e	8b 84 11 00 00
	00 00		 mov	 eax, DWORD PTR ?XYposition@@3PAY06HA[ecx+edx]
  00b15	8b 0c 85 00 00
	00 00		 mov	 ecx, DWORD PTR ?WaterAct3@@3PAPAUaction@@A[eax*4]
  00b1c	f3 0f 11 81 1c
	01 00 00	 movss	 DWORD PTR [ecx+284], xmm0
$LN73@drawField:

; 3240 : 					}
; 3241 : 				}
; 3242 : 			}
; 3243 : // 骞
; 3244 : 			if (XYposition[i][3] == 1)

  00b24	6b 45 c8 1c	 imul	 eax, DWORD PTR _i$[ebp], 28
  00b28	b9 04 00 00 00	 mov	 ecx, 4
  00b2d	6b d1 03	 imul	 edx, ecx, 3
  00b30	83 bc 10 00 00
	00 00 01	 cmp	 DWORD PTR ?XYposition@@3PAY06HA[eax+edx], 1
  00b38	0f 85 ed 00 00
	00		 jne	 $LN77@drawField

; 3245 : 			{
; 3246 : 				if ((nowGx < XYposition[i][0] - 16) || (nowGx > XYposition[i][0] + 16 ) ||
; 3247 : 					(nowGy < XYposition[i][1] - 16) || (nowGy > XYposition[i][1] + 16))

  00b3e	6b 45 c8 1c	 imul	 eax, DWORD PTR _i$[ebp], 28
  00b42	b9 04 00 00 00	 mov	 ecx, 4
  00b47	6b d1 00	 imul	 edx, ecx, 0
  00b4a	8b 84 10 00 00
	00 00		 mov	 eax, DWORD PTR ?XYposition@@3PAY06HA[eax+edx]
  00b51	83 e8 10	 sub	 eax, 16			; 00000010H
  00b54	39 05 00 00 00
	00		 cmp	 DWORD PTR ?nowGx@@3HA, eax ; nowGx
  00b5a	7c 5a		 jl	 SHORT $LN76@drawField
  00b5c	6b 45 c8 1c	 imul	 eax, DWORD PTR _i$[ebp], 28
  00b60	b9 04 00 00 00	 mov	 ecx, 4
  00b65	6b d1 00	 imul	 edx, ecx, 0
  00b68	8b 84 10 00 00
	00 00		 mov	 eax, DWORD PTR ?XYposition@@3PAY06HA[eax+edx]
  00b6f	83 c0 10	 add	 eax, 16			; 00000010H
  00b72	39 05 00 00 00
	00		 cmp	 DWORD PTR ?nowGx@@3HA, eax ; nowGx
  00b78	7f 3c		 jg	 SHORT $LN76@drawField
  00b7a	6b 45 c8 1c	 imul	 eax, DWORD PTR _i$[ebp], 28
  00b7e	b9 04 00 00 00	 mov	 ecx, 4
  00b83	c1 e1 00	 shl	 ecx, 0
  00b86	8b 94 08 00 00
	00 00		 mov	 edx, DWORD PTR ?XYposition@@3PAY06HA[eax+ecx]
  00b8d	83 ea 10	 sub	 edx, 16			; 00000010H
  00b90	39 15 00 00 00
	00		 cmp	 DWORD PTR ?nowGy@@3HA, edx ; nowGy
  00b96	7c 1e		 jl	 SHORT $LN76@drawField
  00b98	6b 45 c8 1c	 imul	 eax, DWORD PTR _i$[ebp], 28
  00b9c	b9 04 00 00 00	 mov	 ecx, 4
  00ba1	c1 e1 00	 shl	 ecx, 0
  00ba4	8b 94 08 00 00
	00 00		 mov	 edx, DWORD PTR ?XYposition@@3PAY06HA[eax+ecx]
  00bab	83 c2 10	 add	 edx, 16			; 00000010H
  00bae	39 15 00 00 00
	00		 cmp	 DWORD PTR ?nowGy@@3HA, edx ; nowGy
  00bb4	7e 75		 jle	 SHORT $LN77@drawField
$LN76@drawField:

; 3248 : 				{
; 3249 : 					if (WaterAct3[XYposition[i][4]] != NULL)

  00bb6	6b 45 c8 1c	 imul	 eax, DWORD PTR _i$[ebp], 28
  00bba	b9 04 00 00 00	 mov	 ecx, 4
  00bbf	c1 e1 02	 shl	 ecx, 2
  00bc2	8b 94 08 00 00
	00 00		 mov	 edx, DWORD PTR ?XYposition@@3PAY06HA[eax+ecx]
  00bc9	83 3c 95 00 00
	00 00 00	 cmp	 DWORD PTR ?WaterAct3@@3PAPAUaction@@A[edx*4], 0
  00bd1	74 58		 je	 SHORT $LN77@drawField

; 3250 : 					{
; 3251 : 						DeathAction(WaterAct3[XYposition[i][4]]);

  00bd3	6b 45 c8 1c	 imul	 eax, DWORD PTR _i$[ebp], 28
  00bd7	b9 04 00 00 00	 mov	 ecx, 4
  00bdc	c1 e1 02	 shl	 ecx, 2
  00bdf	8b 94 08 00 00
	00 00		 mov	 edx, DWORD PTR ?XYposition@@3PAY06HA[eax+ecx]
  00be6	8b 04 95 00 00
	00 00		 mov	 eax, DWORD PTR ?WaterAct3@@3PAPAUaction@@A[edx*4]
  00bed	50		 push	 eax
  00bee	e8 00 00 00 00	 call	 ?DeathAction@@YAXPAUaction@@@Z ; DeathAction
  00bf3	83 c4 04	 add	 esp, 4

; 3252 : 						WaterAct3[XYposition[i][4]] = NULL;

  00bf6	6b 45 c8 1c	 imul	 eax, DWORD PTR _i$[ebp], 28
  00bfa	b9 04 00 00 00	 mov	 ecx, 4
  00bff	c1 e1 02	 shl	 ecx, 2
  00c02	8b 94 08 00 00
	00 00		 mov	 edx, DWORD PTR ?XYposition@@3PAY06HA[eax+ecx]
  00c09	c7 04 95 00 00
	00 00 00 00 00
	00		 mov	 DWORD PTR ?WaterAct3@@3PAPAUaction@@A[edx*4], 0

; 3253 : 						XYposition[i][3] = 0;

  00c14	6b 45 c8 1c	 imul	 eax, DWORD PTR _i$[ebp], 28
  00c18	b9 04 00 00 00	 mov	 ecx, 4
  00c1d	6b d1 03	 imul	 edx, ecx, 3
  00c20	c7 84 10 00 00
	00 00 00 00 00
	00		 mov	 DWORD PTR ?XYposition@@3PAY06HA[eax+edx], 0
$LN77@drawField:

; 3254 : 					}
; 3255 : 				}
; 3256 : 			}
; 3257 : 		}

  00c2b	e9 ed fa ff ff	 jmp	 $LN2@drawField
$LN3@drawField:

; 3258 : 	}else{

  00c30	e9 c6 00 00 00	 jmp	 $LN78@drawField
$LN59@drawField:

; 3259 : 		if (in817flag == true){

  00c35	0f b6 05 00 00
	00 00		 movzx	 eax, BYTE PTR ?in817flag@@3_NA ; in817flag
  00c3c	83 f8 01	 cmp	 eax, 1
  00c3f	0f 85 b6 00 00
	00		 jne	 $LN78@drawField

; 3260 : 			for (i = 0; i < 560; i++){

  00c45	c7 45 c8 00 00
	00 00		 mov	 DWORD PTR _i$[ebp], 0
  00c4c	eb 09		 jmp	 SHORT $LN10@drawField
$LN8@drawField:
  00c4e	8b 45 c8	 mov	 eax, DWORD PTR _i$[ebp]
  00c51	83 c0 01	 add	 eax, 1
  00c54	89 45 c8	 mov	 DWORD PTR _i$[ebp], eax
$LN10@drawField:
  00c57	81 7d c8 30 02
	00 00		 cmp	 DWORD PTR _i$[ebp], 560	; 00000230H
  00c5e	0f 8d 90 00 00
	00		 jge	 $LN9@drawField

; 3261 : 				if (XYposition[i][3] == 1){

  00c64	6b 45 c8 1c	 imul	 eax, DWORD PTR _i$[ebp], 28
  00c68	b9 04 00 00 00	 mov	 ecx, 4
  00c6d	6b d1 03	 imul	 edx, ecx, 3
  00c70	83 bc 10 00 00
	00 00 01	 cmp	 DWORD PTR ?XYposition@@3PAY06HA[eax+edx], 1
  00c78	75 75		 jne	 SHORT $LN80@drawField

; 3262 : 					if (WaterAct3[XYposition[i][4]] != NULL){

  00c7a	6b 45 c8 1c	 imul	 eax, DWORD PTR _i$[ebp], 28
  00c7e	b9 04 00 00 00	 mov	 ecx, 4
  00c83	c1 e1 02	 shl	 ecx, 2
  00c86	8b 94 08 00 00
	00 00		 mov	 edx, DWORD PTR ?XYposition@@3PAY06HA[eax+ecx]
  00c8d	83 3c 95 00 00
	00 00 00	 cmp	 DWORD PTR ?WaterAct3@@3PAPAUaction@@A[edx*4], 0
  00c95	74 58		 je	 SHORT $LN80@drawField

; 3263 : 						DeathAction(WaterAct3[XYposition[i][4]]);

  00c97	6b 45 c8 1c	 imul	 eax, DWORD PTR _i$[ebp], 28
  00c9b	b9 04 00 00 00	 mov	 ecx, 4
  00ca0	c1 e1 02	 shl	 ecx, 2
  00ca3	8b 94 08 00 00
	00 00		 mov	 edx, DWORD PTR ?XYposition@@3PAY06HA[eax+ecx]
  00caa	8b 04 95 00 00
	00 00		 mov	 eax, DWORD PTR ?WaterAct3@@3PAPAUaction@@A[edx*4]
  00cb1	50		 push	 eax
  00cb2	e8 00 00 00 00	 call	 ?DeathAction@@YAXPAUaction@@@Z ; DeathAction
  00cb7	83 c4 04	 add	 esp, 4

; 3264 : 						WaterAct3[XYposition[i][4]] = NULL;

  00cba	6b 45 c8 1c	 imul	 eax, DWORD PTR _i$[ebp], 28
  00cbe	b9 04 00 00 00	 mov	 ecx, 4
  00cc3	c1 e1 02	 shl	 ecx, 2
  00cc6	8b 94 08 00 00
	00 00		 mov	 edx, DWORD PTR ?XYposition@@3PAY06HA[eax+ecx]
  00ccd	c7 04 95 00 00
	00 00 00 00 00
	00		 mov	 DWORD PTR ?WaterAct3@@3PAPAUaction@@A[edx*4], 0

; 3265 : 						XYposition[i][3] = 0;

  00cd8	6b 45 c8 1c	 imul	 eax, DWORD PTR _i$[ebp], 28
  00cdc	b9 04 00 00 00	 mov	 ecx, 4
  00ce1	6b d1 03	 imul	 edx, ecx, 3
  00ce4	c7 84 10 00 00
	00 00 00 00 00
	00		 mov	 DWORD PTR ?XYposition@@3PAY06HA[eax+edx], 0
$LN80@drawField:

; 3266 : 					}
; 3267 : 				}
; 3268 : 			}

  00cef	e9 5a ff ff ff	 jmp	 $LN8@drawField
$LN9@drawField:

; 3269 : 			in817flag = false ; 

  00cf4	c6 05 00 00 00
	00 00		 mov	 BYTE PTR ?in817flag@@3_NA, 0 ; in817flag
$LN78@drawField:

; 3270 : 		}
; 3271 : 	}
; 3272 : #endif
; 3273 : 
; 3274 : #ifdef _AniRandom   // Syu ADD 轰骇澧ㄧ
; 3275 : 	if ((nowFloor == 817) || (nowFloor == 8007) || (nowFloor == 8100) || (nowFloor == 8101) ||
; 3276 : 		(nowFloor == 8029) || (nowFloor == 8028) || (nowFloor == 8027) || (nowFloor == 8015) || (nowFloor == 8113) || (nowFloor == 8114) )  //ゆ板

  00cfb	81 3d 00 00 00
	00 31 03 00 00	 cmp	 DWORD PTR ?nowFloor@@3HA, 817 ; nowFloor, 00000331H
  00d05	74 70		 je	 SHORT $LN83@drawField
  00d07	81 3d 00 00 00
	00 47 1f 00 00	 cmp	 DWORD PTR ?nowFloor@@3HA, 8007 ; nowFloor, 00001f47H
  00d11	74 64		 je	 SHORT $LN83@drawField
  00d13	81 3d 00 00 00
	00 a4 1f 00 00	 cmp	 DWORD PTR ?nowFloor@@3HA, 8100 ; nowFloor, 00001fa4H
  00d1d	74 58		 je	 SHORT $LN83@drawField
  00d1f	81 3d 00 00 00
	00 a5 1f 00 00	 cmp	 DWORD PTR ?nowFloor@@3HA, 8101 ; nowFloor, 00001fa5H
  00d29	74 4c		 je	 SHORT $LN83@drawField
  00d2b	81 3d 00 00 00
	00 5d 1f 00 00	 cmp	 DWORD PTR ?nowFloor@@3HA, 8029 ; nowFloor, 00001f5dH
  00d35	74 40		 je	 SHORT $LN83@drawField
  00d37	81 3d 00 00 00
	00 5c 1f 00 00	 cmp	 DWORD PTR ?nowFloor@@3HA, 8028 ; nowFloor, 00001f5cH
  00d41	74 34		 je	 SHORT $LN83@drawField
  00d43	81 3d 00 00 00
	00 5b 1f 00 00	 cmp	 DWORD PTR ?nowFloor@@3HA, 8027 ; nowFloor, 00001f5bH
  00d4d	74 28		 je	 SHORT $LN83@drawField
  00d4f	81 3d 00 00 00
	00 4f 1f 00 00	 cmp	 DWORD PTR ?nowFloor@@3HA, 8015 ; nowFloor, 00001f4fH
  00d59	74 1c		 je	 SHORT $LN83@drawField
  00d5b	81 3d 00 00 00
	00 b1 1f 00 00	 cmp	 DWORD PTR ?nowFloor@@3HA, 8113 ; nowFloor, 00001fb1H
  00d65	74 10		 je	 SHORT $LN83@drawField
  00d67	81 3d 00 00 00
	00 b2 1f 00 00	 cmp	 DWORD PTR ?nowFloor@@3HA, 8114 ; nowFloor, 00001fb2H
  00d71	0f 85 12 03 00
	00		 jne	 $LN81@drawField
$LN83@drawField:

; 3277 : 	{
; 3278 : 		AniFlag = true;

  00d77	c6 05 00 00 00
	00 01		 mov	 BYTE PTR ?AniFlag@@3_NA, 1 ; AniFlag

; 3279 : 		for (i = 0; i < 50; i++) 

  00d7e	c7 45 c8 00 00
	00 00		 mov	 DWORD PTR _i$[ebp], 0
  00d85	eb 09		 jmp	 SHORT $LN13@drawField
$LN11@drawField:
  00d87	8b 45 c8	 mov	 eax, DWORD PTR _i$[ebp]
  00d8a	83 c0 01	 add	 eax, 1
  00d8d	89 45 c8	 mov	 DWORD PTR _i$[ebp], eax
$LN13@drawField:
  00d90	83 7d c8 32	 cmp	 DWORD PTR _i$[ebp], 50	; 00000032H
  00d94	0f 8d 38 02 00
	00		 jge	 $LN12@drawField

; 3280 : 		{
; 3281 : 			if (Timeflag[i] == false)

  00d9a	8b 45 c8	 mov	 eax, DWORD PTR _i$[ebp]
  00d9d	0f b6 88 00 00
	00 00		 movzx	 ecx, BYTE PTR ?Timeflag@@3PA_NA[eax]
  00da4	85 c9		 test	 ecx, ecx
  00da6	0f 85 21 02 00
	00		 jne	 $LN86@drawField

; 3282 : 			{
; 3283 : 				//宏舶浜х涓锛涓璁轰戒骇绛寰堕
; 3284 :  				Createflag = RAND(0, 3);

  00dac	8b f4		 mov	 esi, esp
  00dae	ff 15 00 00 00
	00		 call	 DWORD PTR __imp__rand
  00db4	3b f4		 cmp	 esi, esp
  00db6	e8 00 00 00 00	 call	 __RTC_CheckEsp
  00dbb	f2 0f 2a c0	 cvtsi2sd xmm0, eax
  00dbf	f2 0f 59 05 00
	00 00 00	 mulsd	 xmm0, QWORD PTR __real@4010000000000000
  00dc7	f2 0f 5e 05 00
	00 00 00	 divsd	 xmm0, QWORD PTR __real@40e0000000000000
  00dcf	f2 0f 2c c0	 cvttsd2si eax, xmm0
  00dd3	89 45 bc	 mov	 DWORD PTR _Createflag$[ebp], eax

; 3285 : 				if (Createflag > 0) 

  00dd6	83 7d bc 00	 cmp	 DWORD PTR _Createflag$[ebp], 0
  00dda	0f 8e ad 01 00
	00		 jle	 $LN85@drawField

; 3286 : 				{
; 3287 : 					if (WaterAct[i] == NULL)

  00de0	8b 45 c8	 mov	 eax, DWORD PTR _i$[ebp]
  00de3	83 3c 85 00 00
	00 00 00	 cmp	 DWORD PTR ?WaterAct@@3PAPAUaction@@A[eax*4], 0
  00deb	0f 85 9a 01 00
	00		 jne	 $LN87@drawField

; 3288 : 					{
; 3289 : 						//浜х村ㄤ汉 30 * 30 翠腑
; 3290 : 						x1 = RAND(nowGx - 15, nowGx + 15);

  00df1	a1 00 00 00 00	 mov	 eax, DWORD PTR ?nowGx@@3HA ; nowGx
  00df6	83 c0 0f	 add	 eax, 15			; 0000000fH
  00df9	8b 0d 00 00 00
	00		 mov	 ecx, DWORD PTR ?nowGx@@3HA ; nowGx
  00dff	83 e9 10	 sub	 ecx, 16			; 00000010H
  00e02	2b c1		 sub	 eax, ecx
  00e04	f2 0f 2a c0	 cvtsi2sd xmm0, eax
  00e08	8b f4		 mov	 esi, esp
  00e0a	f2 0f 11 85 60
	fc ff ff	 movsd	 QWORD PTR tv1565[ebp], xmm0
  00e12	ff 15 00 00 00
	00		 call	 DWORD PTR __imp__rand
  00e18	3b f4		 cmp	 esi, esp
  00e1a	e8 00 00 00 00	 call	 __RTC_CheckEsp
  00e1f	f2 0f 2a c0	 cvtsi2sd xmm0, eax
  00e23	f2 0f 10 8d 60
	fc ff ff	 movsd	 xmm1, QWORD PTR tv1565[ebp]
  00e2b	f2 0f 59 c8	 mulsd	 xmm1, xmm0
  00e2f	f2 0f 5e 0d 00
	00 00 00	 divsd	 xmm1, QWORD PTR __real@40e0000000000000
  00e37	f2 0f 2c d1	 cvttsd2si edx, xmm1
  00e3b	a1 00 00 00 00	 mov	 eax, DWORD PTR ?nowGx@@3HA ; nowGx
  00e40	8d 4c 10 f1	 lea	 ecx, DWORD PTR [eax+edx-15]
  00e44	89 4d a4	 mov	 DWORD PTR _x1$[ebp], ecx

; 3291 : 						y1 = RAND(nowGy - 15, nowGy + 15);

  00e47	a1 00 00 00 00	 mov	 eax, DWORD PTR ?nowGy@@3HA ; nowGy
  00e4c	83 c0 0f	 add	 eax, 15			; 0000000fH
  00e4f	8b 0d 00 00 00
	00		 mov	 ecx, DWORD PTR ?nowGy@@3HA ; nowGy
  00e55	83 e9 10	 sub	 ecx, 16			; 00000010H
  00e58	2b c1		 sub	 eax, ecx
  00e5a	f2 0f 2a c0	 cvtsi2sd xmm0, eax
  00e5e	8b f4		 mov	 esi, esp
  00e60	f2 0f 11 85 60
	fc ff ff	 movsd	 QWORD PTR tv1567[ebp], xmm0
  00e68	ff 15 00 00 00
	00		 call	 DWORD PTR __imp__rand
  00e6e	3b f4		 cmp	 esi, esp
  00e70	e8 00 00 00 00	 call	 __RTC_CheckEsp
  00e75	f2 0f 2a c0	 cvtsi2sd xmm0, eax
  00e79	f2 0f 10 8d 60
	fc ff ff	 movsd	 xmm1, QWORD PTR tv1567[ebp]
  00e81	f2 0f 59 c8	 mulsd	 xmm1, xmm0
  00e85	f2 0f 5e 0d 00
	00 00 00	 divsd	 xmm1, QWORD PTR __real@40e0000000000000
  00e8d	f2 0f 2c d1	 cvttsd2si edx, xmm1
  00e91	a1 00 00 00 00	 mov	 eax, DWORD PTR ?nowGy@@3HA ; nowGy
  00e96	8d 4c 10 f1	 lea	 ecx, DWORD PTR [eax+edx-15]
  00e9a	89 4d 98	 mov	 DWORD PTR _y1$[ebp], ecx

; 3292 : 						RandAnimate = RAND(0, 6);

  00e9d	8b f4		 mov	 esi, esp
  00e9f	ff 15 00 00 00
	00		 call	 DWORD PTR __imp__rand
  00ea5	3b f4		 cmp	 esi, esp
  00ea7	e8 00 00 00 00	 call	 __RTC_CheckEsp
  00eac	f2 0f 2a c0	 cvtsi2sd xmm0, eax
  00eb0	f2 0f 59 05 00
	00 00 00	 mulsd	 xmm0, QWORD PTR __real@401c000000000000
  00eb8	f2 0f 5e 05 00
	00 00 00	 divsd	 xmm0, QWORD PTR __real@40e0000000000000
  00ec0	f2 0f 2c c0	 cvttsd2si eax, xmm0
  00ec4	89 45 b0	 mov	 DWORD PTR _RandAnimate$[ebp], eax

; 3293 : 						if (RandAnimate > 2)

  00ec7	83 7d b0 02	 cmp	 DWORD PTR _RandAnimate$[ebp], 2
  00ecb	7e 31		 jle	 SHORT $LN88@drawField

; 3294 : 							RandAnimate = RAND(101502, 101509);

  00ecd	8b f4		 mov	 esi, esp
  00ecf	ff 15 00 00 00
	00		 call	 DWORD PTR __imp__rand
  00ed5	3b f4		 cmp	 esi, esp
  00ed7	e8 00 00 00 00	 call	 __RTC_CheckEsp
  00edc	f2 0f 2a c0	 cvtsi2sd xmm0, eax
  00ee0	f2 0f 59 05 00
	00 00 00	 mulsd	 xmm0, QWORD PTR __real@4020000000000000
  00ee8	f2 0f 5e 05 00
	00 00 00	 divsd	 xmm0, QWORD PTR __real@40e0000000000000
  00ef0	f2 0f 2c c0	 cvttsd2si eax, xmm0
  00ef4	05 7e 8c 01 00	 add	 eax, 101502		; 00018c7eH
  00ef9	89 45 b0	 mov	 DWORD PTR _RandAnimate$[ebp], eax

; 3295 : 						else

  00efc	eb 2f		 jmp	 SHORT $LN89@drawField
$LN88@drawField:

; 3296 : 							RandAnimate = RAND(101524, 101529);

  00efe	8b f4		 mov	 esi, esp
  00f00	ff 15 00 00 00
	00		 call	 DWORD PTR __imp__rand
  00f06	3b f4		 cmp	 esi, esp
  00f08	e8 00 00 00 00	 call	 __RTC_CheckEsp
  00f0d	f2 0f 2a c0	 cvtsi2sd xmm0, eax
  00f11	f2 0f 59 05 00
	00 00 00	 mulsd	 xmm0, QWORD PTR __real@4018000000000000
  00f19	f2 0f 5e 05 00
	00 00 00	 divsd	 xmm0, QWORD PTR __real@40e0000000000000
  00f21	f2 0f 2c c0	 cvttsd2si eax, xmm0
  00f25	05 94 8c 01 00	 add	 eax, 101524		; 00018c94H
  00f2a	89 45 b0	 mov	 DWORD PTR _RandAnimate$[ebp], eax
$LN89@drawField:

; 3297 : 						WaterAct[i]=createWaterAnimation(RandAnimate, x1, y1, 103);

  00f2d	6a 67		 push	 103			; 00000067H
  00f2f	8b 45 98	 mov	 eax, DWORD PTR _y1$[ebp]
  00f32	50		 push	 eax
  00f33	8b 4d a4	 mov	 ecx, DWORD PTR _x1$[ebp]
  00f36	51		 push	 ecx
  00f37	8b 55 b0	 mov	 edx, DWORD PTR _RandAnimate$[ebp]
  00f3a	52		 push	 edx
  00f3b	e8 00 00 00 00	 call	 ?createWaterAnimation@@YAPAUaction@@HHHH@Z ; createWaterAnimation
  00f40	83 c4 10	 add	 esp, 16			; 00000010H
  00f43	8b 4d c8	 mov	 ecx, DWORD PTR _i$[ebp]
  00f46	89 04 8d 00 00
	00 00		 mov	 DWORD PTR ?WaterAct@@3PAPAUaction@@A[ecx*4], eax

; 3298 : 						Timeflag[i] = true;

  00f4d	8b 45 c8	 mov	 eax, DWORD PTR _i$[ebp]
  00f50	c6 80 00 00 00
	00 01		 mov	 BYTE PTR ?Timeflag@@3PA_NA[eax], 1

; 3299 : 						TimeTickMax[i] = RAND(100, 400);

  00f57	8b f4		 mov	 esi, esp
  00f59	ff 15 00 00 00
	00		 call	 DWORD PTR __imp__rand
  00f5f	3b f4		 cmp	 esi, esp
  00f61	e8 00 00 00 00	 call	 __RTC_CheckEsp
  00f66	f2 0f 2a c0	 cvtsi2sd xmm0, eax
  00f6a	f2 0f 59 05 00
	00 00 00	 mulsd	 xmm0, QWORD PTR __real@4072d00000000000
  00f72	f2 0f 5e 05 00
	00 00 00	 divsd	 xmm0, QWORD PTR __real@40e0000000000000
  00f7a	f2 0f 2c c0	 cvttsd2si eax, xmm0
  00f7e	83 c0 64	 add	 eax, 100		; 00000064H
  00f81	8b 4d c8	 mov	 ecx, DWORD PTR _i$[ebp]
  00f84	89 04 8d 00 00
	00 00		 mov	 DWORD PTR ?TimeTickMax@@3PAHA[ecx*4], eax
$LN87@drawField:

; 3300 : 					}
; 3301 : 				}
; 3302 : 				else

  00f8b	eb 40		 jmp	 SHORT $LN86@drawField
$LN85@drawField:

; 3303 : 				{
; 3304 : 					Timeflag[i] = true;

  00f8d	8b 45 c8	 mov	 eax, DWORD PTR _i$[ebp]
  00f90	c6 80 00 00 00
	00 01		 mov	 BYTE PTR ?Timeflag@@3PA_NA[eax], 1

; 3305 : 					TimeTickMax[i] = RAND(300, 600);

  00f97	8b f4		 mov	 esi, esp
  00f99	ff 15 00 00 00
	00		 call	 DWORD PTR __imp__rand
  00f9f	3b f4		 cmp	 esi, esp
  00fa1	e8 00 00 00 00	 call	 __RTC_CheckEsp
  00fa6	f2 0f 2a c0	 cvtsi2sd xmm0, eax
  00faa	f2 0f 59 05 00
	00 00 00	 mulsd	 xmm0, QWORD PTR __real@4072d00000000000
  00fb2	f2 0f 5e 05 00
	00 00 00	 divsd	 xmm0, QWORD PTR __real@40e0000000000000
  00fba	f2 0f 2c c0	 cvttsd2si eax, xmm0
  00fbe	05 2c 01 00 00	 add	 eax, 300		; 0000012cH
  00fc3	8b 4d c8	 mov	 ecx, DWORD PTR _i$[ebp]
  00fc6	89 04 8d 00 00
	00 00		 mov	 DWORD PTR ?TimeTickMax@@3PAHA[ecx*4], eax
$LN86@drawField:

; 3306 : 				}
; 3307 : 			}
; 3308 : 		}

  00fcd	e9 b5 fd ff ff	 jmp	 $LN11@drawField
$LN12@drawField:

; 3309 : 		//娲荤澧ㄧ昏℃
; 3310 : 		for (i = 0; i < 50; i++)

  00fd2	c7 45 c8 00 00
	00 00		 mov	 DWORD PTR _i$[ebp], 0
  00fd9	eb 09		 jmp	 SHORT $LN16@drawField
$LN14@drawField:
  00fdb	8b 45 c8	 mov	 eax, DWORD PTR _i$[ebp]
  00fde	83 c0 01	 add	 eax, 1
  00fe1	89 45 c8	 mov	 DWORD PTR _i$[ebp], eax
$LN16@drawField:
  00fe4	83 7d c8 32	 cmp	 DWORD PTR _i$[ebp], 50	; 00000032H
  00fe8	0f 8d 96 00 00
	00		 jge	 $LN15@drawField

; 3311 : 		{
; 3312 : 			if (Timeflag[i] == true)

  00fee	8b 45 c8	 mov	 eax, DWORD PTR _i$[ebp]
  00ff1	0f b6 88 00 00
	00 00		 movzx	 ecx, BYTE PTR ?Timeflag@@3PA_NA[eax]
  00ff8	83 f9 01	 cmp	 ecx, 1
  00ffb	75 17		 jne	 SHORT $LN90@drawField

; 3313 : 				TimeTick[i]++;

  00ffd	8b 45 c8	 mov	 eax, DWORD PTR _i$[ebp]
  01000	8b 0c 85 00 00
	00 00		 mov	 ecx, DWORD PTR ?TimeTick@@3PAHA[eax*4]
  01007	83 c1 01	 add	 ecx, 1
  0100a	8b 55 c8	 mov	 edx, DWORD PTR _i$[ebp]
  0100d	89 0c 95 00 00
	00 00		 mov	 DWORD PTR ?TimeTick@@3PAHA[edx*4], ecx
$LN90@drawField:

; 3314 : 			if (TimeTick[i] > TimeTickMax[i])

  01014	8b 45 c8	 mov	 eax, DWORD PTR _i$[ebp]
  01017	8b 4d c8	 mov	 ecx, DWORD PTR _i$[ebp]
  0101a	8b 14 85 00 00
	00 00		 mov	 edx, DWORD PTR ?TimeTick@@3PAHA[eax*4]
  01021	3b 14 8d 00 00
	00 00		 cmp	 edx, DWORD PTR ?TimeTickMax@@3PAHA[ecx*4]
  01028	7e 55		 jle	 SHORT $LN91@drawField

; 3315 : 			{
; 3316 : 				TimeTick[i] = -100;

  0102a	8b 45 c8	 mov	 eax, DWORD PTR _i$[ebp]
  0102d	c7 04 85 00 00
	00 00 9c ff ff
	ff		 mov	 DWORD PTR ?TimeTick@@3PAHA[eax*4], -100 ; ffffff9cH

; 3317 : 				Timeflag[i] = false;

  01038	8b 45 c8	 mov	 eax, DWORD PTR _i$[ebp]
  0103b	89 85 6c fc ff
	ff		 mov	 DWORD PTR $T1[ebp], eax
  01041	83 bd 6c fc ff
	ff 32		 cmp	 DWORD PTR $T1[ebp], 50	; 00000032H
  01048	73 02		 jae	 SHORT $LN131@drawField
  0104a	eb 05		 jmp	 SHORT $LN132@drawField
$LN131@drawField:
  0104c	e8 00 00 00 00	 call	 ___report_rangecheckfailure
$LN132@drawField:
  01051	8b 8d 6c fc ff
	ff		 mov	 ecx, DWORD PTR $T1[ebp]
  01057	c6 81 00 00 00
	00 00		 mov	 BYTE PTR ?Timeflag@@3PA_NA[ecx], 0

; 3318 : 				DeathAction(WaterAct[i]);

  0105e	8b 45 c8	 mov	 eax, DWORD PTR _i$[ebp]
  01061	8b 0c 85 00 00
	00 00		 mov	 ecx, DWORD PTR ?WaterAct@@3PAPAUaction@@A[eax*4]
  01068	51		 push	 ecx
  01069	e8 00 00 00 00	 call	 ?DeathAction@@YAXPAUaction@@@Z ; DeathAction
  0106e	83 c4 04	 add	 esp, 4

; 3319 : 				WaterAct[i] = NULL;

  01071	8b 45 c8	 mov	 eax, DWORD PTR _i$[ebp]
  01074	c7 04 85 00 00
	00 00 00 00 00
	00		 mov	 DWORD PTR ?WaterAct@@3PAPAUaction@@A[eax*4], 0
$LN91@drawField:

; 3320 : 			}
; 3321 : 		}

  0107f	e9 57 ff ff ff	 jmp	 $LN14@drawField
$LN15@drawField:

; 3322 : 	}
; 3323 : 	//娑ㄧ
; 3324 : 	else if (((nowFloor != 817) && (nowFloor != 8007) && (nowFloor != 8100) && (nowFloor != 8101) && (nowFloor != 8113) && (nowFloor != 8114) &&

  01084	e9 eb 00 00 00	 jmp	 $LN18@drawField
$LN81@drawField:

; 3325 : 			(nowFloor != 8027) && (nowFloor != 8028) && (nowFloor != 8029) && (nowFloor != 8015)) && (AniFlag == true))

  01089	81 3d 00 00 00
	00 31 03 00 00	 cmp	 DWORD PTR ?nowFloor@@3HA, 817 ; nowFloor, 00000331H
  01093	0f 84 db 00 00
	00		 je	 $LN18@drawField
  01099	81 3d 00 00 00
	00 47 1f 00 00	 cmp	 DWORD PTR ?nowFloor@@3HA, 8007 ; nowFloor, 00001f47H
  010a3	0f 84 cb 00 00
	00		 je	 $LN18@drawField
  010a9	81 3d 00 00 00
	00 a4 1f 00 00	 cmp	 DWORD PTR ?nowFloor@@3HA, 8100 ; nowFloor, 00001fa4H
  010b3	0f 84 bb 00 00
	00		 je	 $LN18@drawField
  010b9	81 3d 00 00 00
	00 a5 1f 00 00	 cmp	 DWORD PTR ?nowFloor@@3HA, 8101 ; nowFloor, 00001fa5H
  010c3	0f 84 ab 00 00
	00		 je	 $LN18@drawField
  010c9	81 3d 00 00 00
	00 b1 1f 00 00	 cmp	 DWORD PTR ?nowFloor@@3HA, 8113 ; nowFloor, 00001fb1H
  010d3	0f 84 9b 00 00
	00		 je	 $LN18@drawField
  010d9	81 3d 00 00 00
	00 b2 1f 00 00	 cmp	 DWORD PTR ?nowFloor@@3HA, 8114 ; nowFloor, 00001fb2H
  010e3	0f 84 8b 00 00
	00		 je	 $LN18@drawField
  010e9	81 3d 00 00 00
	00 5b 1f 00 00	 cmp	 DWORD PTR ?nowFloor@@3HA, 8027 ; nowFloor, 00001f5bH
  010f3	74 7f		 je	 SHORT $LN18@drawField
  010f5	81 3d 00 00 00
	00 5c 1f 00 00	 cmp	 DWORD PTR ?nowFloor@@3HA, 8028 ; nowFloor, 00001f5cH
  010ff	74 73		 je	 SHORT $LN18@drawField
  01101	81 3d 00 00 00
	00 5d 1f 00 00	 cmp	 DWORD PTR ?nowFloor@@3HA, 8029 ; nowFloor, 00001f5dH
  0110b	74 67		 je	 SHORT $LN18@drawField
  0110d	81 3d 00 00 00
	00 4f 1f 00 00	 cmp	 DWORD PTR ?nowFloor@@3HA, 8015 ; nowFloor, 00001f4fH
  01117	74 5b		 je	 SHORT $LN18@drawField
  01119	0f b6 05 00 00
	00 00		 movzx	 eax, BYTE PTR ?AniFlag@@3_NA ; AniFlag
  01120	83 f8 01	 cmp	 eax, 1
  01123	75 4f		 jne	 SHORT $LN18@drawField

; 3326 : 	{
; 3327 : 		AniFlag = false;

  01125	c6 05 00 00 00
	00 00		 mov	 BYTE PTR ?AniFlag@@3_NA, 0 ; AniFlag

; 3328 : 		for (i = 0; i < 50; i++)

  0112c	c7 45 c8 00 00
	00 00		 mov	 DWORD PTR _i$[ebp], 0
  01133	eb 09		 jmp	 SHORT $LN19@drawField
$LN17@drawField:
  01135	8b 45 c8	 mov	 eax, DWORD PTR _i$[ebp]
  01138	83 c0 01	 add	 eax, 1
  0113b	89 45 c8	 mov	 DWORD PTR _i$[ebp], eax
$LN19@drawField:
  0113e	83 7d c8 32	 cmp	 DWORD PTR _i$[ebp], 50	; 00000032H
  01142	7d 30		 jge	 SHORT $LN18@drawField

; 3329 : 		{
; 3330 : 			if (WaterAct[i] != NULL)

  01144	8b 45 c8	 mov	 eax, DWORD PTR _i$[ebp]
  01147	83 3c 85 00 00
	00 00 00	 cmp	 DWORD PTR ?WaterAct@@3PAPAUaction@@A[eax*4], 0
  0114f	74 21		 je	 SHORT $LN93@drawField

; 3331 : 			{
; 3332 : 				DeathAction(WaterAct[i]);

  01151	8b 45 c8	 mov	 eax, DWORD PTR _i$[ebp]
  01154	8b 0c 85 00 00
	00 00		 mov	 ecx, DWORD PTR ?WaterAct@@3PAPAUaction@@A[eax*4]
  0115b	51		 push	 ecx
  0115c	e8 00 00 00 00	 call	 ?DeathAction@@YAXPAUaction@@@Z ; DeathAction
  01161	83 c4 04	 add	 esp, 4

; 3333 : 				WaterAct[i] = NULL;

  01164	8b 45 c8	 mov	 eax, DWORD PTR _i$[ebp]
  01167	c7 04 85 00 00
	00 00 00 00 00
	00		 mov	 DWORD PTR ?WaterAct@@3PAPAUaction@@A[eax*4], 0
$LN93@drawField:

; 3334 : 			}
; 3335 : 		}

  01172	eb c1		 jmp	 SHORT $LN17@drawField
$LN18@drawField:

; 3336 : 	}
; 3337 : #endif
; 3338 : 	int 涓存跺炬X,涓存跺炬Y;					//[ 挫X,  挫Y]
; 3339 : 	if (ResoMode == 杈ㄧ::mode800){			//[挫]

  01174	83 3d 00 00 00
	00 03		 cmp	 DWORD PTR ?ResoMode@@3HA, 3 ; ResoMode
  0117b	75 16		 jne	 SHORT $LN94@drawField

; 3340 : 		涓存跺炬X = 785;						//[ 挫]

  0117d	c7 85 68 ff ff
	ff 11 03 00 00	 mov	 DWORD PTR _临时图标X$[ebp], 785 ; 00000311H

; 3341 : 		涓存跺炬Y = 505;						//[ 挫]

  01187	c7 85 5c ff ff
	ff f9 01 00 00	 mov	 DWORD PTR _临时图标Y$[ebp], 505 ; 000001f9H
  01191	eb 33		 jmp	 SHORT $LN97@drawField
$LN94@drawField:

; 3342 : 	}else if (ResoMode == 杈ㄧ::mode1024){	//[挫]

  01193	83 3d 00 00 00
	00 04		 cmp	 DWORD PTR ?ResoMode@@3HA, 4 ; ResoMode
  0119a	75 16		 jne	 SHORT $LN96@drawField

; 3343 : 		涓存跺炬X = 1009;						//[ 挫]

  0119c	c7 85 68 ff ff
	ff f1 03 00 00	 mov	 DWORD PTR _临时图标X$[ebp], 1009 ; 000003f1H

; 3344 : 		涓存跺炬Y = 673;						//[ 挫]

  011a6	c7 85 5c ff ff
	ff a1 02 00 00	 mov	 DWORD PTR _临时图标Y$[ebp], 673 ; 000002a1H

; 3345 : 	}else{

  011b0	eb 14		 jmp	 SHORT $LN97@drawField
$LN96@drawField:

; 3346 : 		涓存跺炬X = 625;						//[ 挫]

  011b2	c7 85 68 ff ff
	ff 71 02 00 00	 mov	 DWORD PTR _临时图标X$[ebp], 625 ; 00000271H

; 3347 : 		涓存跺炬Y = 385;						//[ 挫]

  011bc	c7 85 5c ff ff
	ff 81 01 00 00	 mov	 DWORD PTR _临时图标Y$[ebp], 385 ; 00000181H
$LN97@drawField:

; 3348 : 	}
; 3349 : 	if (drawFieldButtonFlag){

  011c6	0f bf 05 00 00
	00 00		 movsx	 eax, WORD PTR ?drawFieldButtonFlag@@3FA ; drawFieldButtonFlag
  011cd	85 c0		 test	 eax, eax
  011cf	0f 84 84 07 00
	00		 je	 $LN98@drawField

; 3350 : #ifdef _NB_SA_LIAOTIAN
; 3351 : 	static int 澶╃舵1=0;						//[毂  1]
; 3352 : 	static int 澶╃舵2=0;						//[毂 1]
; 3353 : 	static int 澶╃舵3=0;						//[毂 2]
; 3354 : 	char 澶╂绀[128];							//[毂 ]
; 3355 : 	int 澶╀复;								//[毂 臧]
; 3356 : 	/*澶╀复 = StockDispBuffer(涓存跺炬X, 涓存跺炬Y, DISP_PRIO_IME3, 52001, 2);			//[ 挫X,  挫]
; 3357 : 	if( HitDispNo == 澶╀复){
; 3358 : 		sprintf(澶╂绀,"澶╀俊涓,褰澶╀俊浣缃%d锛",NowChatLine);				//[毂 , " 毂 氅歆 毽旮,  毂 氅歆 
; 3359 : 		ShowBottomLineString(FONT_PAL_WHITE, 澶╂绀);				//[毂 ]
; 3360 : 		if( mouse.onceState & MOUSE_LEFT_CRICK ){
; 3361 : 			if(NowChatLine > NowMaxChatLine){
; 3362 : 				NowChatLine--;
; 3363 : 				if (NowChatLine <= 0){
; 3364 : 					NowChatLine = 1;
; 3365 : 				}
; 3366 : 			}
; 3367 : 			play_se(203, 320, 240);
; 3368 : 		}
; 3369 : 	}*/
; 3370 : 	
; 3371 : 	澶╀复 = StockDispBuffer(涓存跺炬X, 涓存跺炬Y+25, DISP_PRIO_IME3, 52002, 2);
; 3372 : 	if( HitDispNo == 澶╀复){
; 3373 : 		sprintf(澶╂绀,"毂 氤 搿 れ,  毂 氤 旃%d锛",NowChatLine);
; 3374 : 		ShowBottomLineString(FONT_PAL_WHITE, 澶╂绀);	
; 3375 : 		if( mouse.onceState & MOUSE_LEFT_CRICK ){
; 3376 : 			if(*ChatBuffer[ NowChatLine].buffer){
; 3377 : 				NowChatLine++;
; 3378 : 				if (NowChatLine > MAX_CHAT_LINE)
; 3379 : 					NowChatLine = MAX_CHAT_LINE;
; 3380 : 			}
; 3381 : 			play_se(203, 320, 240);
; 3382 : 		}
; 3383 : 	}
; 3384 : 
; 3385 : 	澶╀复 = StockDispBuffer(涓存跺炬X, 涓存跺炬Y+50, DISP_PRIO_IME3, 52003, 2);
; 3386 : 	if( HitDispNo == 澶╀复){
; 3387 : 		sprintf(澶╂绀,"毂 氤 搿 れ,  毂 氤 旃%d锛",NowChatLine);
; 3388 : 		ShowBottomLineString(FONT_PAL_WHITE, 澶╂绀);	
; 3389 : 		if( mouse.onceState & MOUSE_LEFT_CRICK ){
; 3390 : 			extern int NowChatLine_Bak;
; 3391 : 			NowChatLine=NowChatLine_Bak;
; 3392 : 			play_se(203, 320, 240);
; 3393 : 		}
; 3394 : 	}
; 3395 : #endif
; 3396 : 
; 3397 : /*#ifdef _NB_绠＄妯″				//[#ifdef _NB_甏毽氇]
; 3398 : VMProtectBegin("GmMake");
; 3399 : 		int GM绠＄椤[6];
; 3400 : 		if (GM绠＄寮){
; 3401 : 			GM绠＄椤[0] = StockDispBuffer(涓存跺炬X-145, leftUpPanelY+20, DISP_PRIO_MENU, IMAGE_剁撼, 2);
; 3402 : 		}else{
; 3403 : 			GM绠＄椤[0] = StockDispBuffer(涓存跺炬X-145, leftUpPanelY+20, DISP_PRIO_MENU, IMAGE_剁撼, 2);
; 3404 : 		}
; 3405 : 		if( HitDispNo == GM绠＄椤[0]){
; 3406 : 			ShowBottomLineString(11, "牍氚旮半ワ");	
; 3407 : 			if( mouse.onceState & MOUSE_LEFT_CRICK ){
; 3408 : 				GM绠＄寮 = !GM绠＄寮;
; 3409 : 			}
; 3410 : 			HitDispNo = -1;
; 3411 : 		}
; 3412 : 		if (GM绠＄寮){
; 3413 : 			GM绠＄椤[1] = StockFontBuffer( leftUpPanelX + 120, leftUpPanelY +80, FONT_PRIO_FRONT, 1, "措检挫疙胳搿瓿旃LUA",2);
; 3414 : 			GM绠＄椤[2] = StockFontBuffer( leftUpPanelX + 120, leftUpPanelY +100, FONT_PRIO_FRONT, 1, "氇GM甓锛れ瓿缄挫れGM",2);
; 3415 : 			GM绠＄椤[3] = StockFontBuffer( leftUpPanelX + 120, leftUpPanelY +120, FONT_PRIO_FRONT, 1, "歆旮GM甓锛れ瓿缄挫れGM",2);
; 3416 : 			GM绠＄椤[4] = StockFontBuffer( leftUpPanelX + 120, leftUpPanelY +140, FONT_PRIO_FRONT, 1, "氅挫氤挫魂赴",2);
; 3417 : 			GM绠＄椤[5] = StockFontBuffer( leftUpPanelX + 120, leftUpPanelY +160, FONT_PRIO_FRONT, 1, "缄荡臧胳り赴NPC惦",2);
; 3418 : 			if( mouse.onceState & MOUSE_LEFT_CRICK ){
; 3419 : 				if( HitFontNo == GM绠＄椤[1]){
; 3420 : 					ReLoadStoneAgeLUA(_LUA_PATCH_);
; 3421 : 					StockChatBufferLine("措检挫疙胳疥赴LUA锛", 4);
; 3422 : 					GM绠＄寮 = false;
; 3423 : 					HitFontNo = -1;
; 3424 : 				}
; 3425 : 				if( HitFontNo == GM绠＄椤[2]){
; 3426 : 					lssproto_Gmset_send(sockfd,1,"New Version");
; 3427 : 					StockChatBufferLine("氇GM甓锛れ瓿缄挫れGM锛", 4);
; 3428 : 					GM绠＄寮 = false;
; 3429 : 					HitFontNo = -1;
; 3430 : 				}
; 3431 : 				if( HitFontNo == GM绠＄椤[3]){
; 3432 : 					lssproto_Gmset_send(sockfd,2,"New Version");
; 3433 : 					StockChatBufferLine("歆旮GM甓锛れ瓿缄挫れGM锛", 4);
; 3434 : 					GM绠＄寮 = false;
; 3435 : 					HitFontNo = -1;
; 3436 : 				}
; 3437 : 				if( HitFontNo == GM绠＄椤[4]){
; 3438 : 					lssproto_Gmset_send(sockfd,3,"");
; 3439 : 					GM绠＄寮 = false;
; 3440 : 					HitFontNo = -1;
; 3441 : 				}
; 3442 : 				if( HitFontNo == GM绠＄椤[5]){
; 3443 : 					lssproto_Gmset_send(sockfd,4,"");
; 3444 : 					GM绠＄寮 = false;
; 3445 : 					HitFontNo = -1;DISP_PRIO_IME3
; 3446 : 				}
; 3447 : 			}
; 3448 : 			StockDispBuffer(leftUpPanelX+300, leftUpPanelY+200, DISP_PRIO_MENU, 26258, 1);
; 3449 : 		}
; 3450 : VMProtectEnd();
; 3451 : #endif*/
; 3452 : 
; 3453 : #ifdef _NB_椤堕ㄨ
; 3454 : 		char moji[128];
; 3455 : 		char 椤堕ㄤ俊绀[128];
; 3456 : 	//	if (宸寮){
; 3457 : 		//	椤堕ㄦ版绱㈠[0] = StockDispBuffer(leftUpPanelX+20, leftUpPanelY+20, DISP_PRIO_MENU, IMAGE_剁撼, 2);
; 3458 : 			StockDispBuffer(leftUpPanelX + 148, leftUpPanelY + 27, DISP_PRIO_MENU, IMAGE_LEFTMENU, 0);

  011d5	6a 00		 push	 0
  011d7	68 89 6f 00 00	 push	 28553			; 00006f89H
  011dc	6a 68		 push	 104			; 00000068H
  011de	8b 45 ec	 mov	 eax, DWORD PTR _leftUpPanelY$[ebp]
  011e1	83 c0 1b	 add	 eax, 27			; 0000001bH
  011e4	50		 push	 eax
  011e5	8b 4d f8	 mov	 ecx, DWORD PTR _leftUpPanelX$[ebp]
  011e8	81 c1 94 00 00
	00		 add	 ecx, 148		; 00000094H
  011ee	51		 push	 ecx
  011ef	e8 00 00 00 00	 call	 ?StockDispBuffer@@YAHHHEHH@Z ; StockDispBuffer
  011f4	83 c4 14	 add	 esp, 20			; 00000014H

; 3459 : 	/*	}else{
; 3460 : 			椤堕ㄦ版绱㈠[0] = StockDispBuffer(leftUpPanelX+20, leftUpPanelY+20, DISP_PRIO_MENU, IMAGE_剁撼, 2);
; 3461 : 		}
; 3462 : 		if (椤堕ㄦ版绱㈠[0]){
; 3463 : 			if( HitDispNo == 椤堕ㄦ版绱㈠[0]){
; 3464 : 				ShowBottomLineString(11, "旮半レ奠");
; 3465 : 				//sprintf(椤堕ㄤ俊绀,"介椤癸");
; 3466 : 				//NewShowBottomLineString(11, 椤堕ㄤ俊绀);	
; 3467 : 				if( mouse.onceState & MOUSE_LEFT_CRICK ){
; 3468 : 					宸寮 = !宸寮;
; 3469 : 				}
; 3470 : 				if (!宸寮){
; 3471 : 					for (i = 0; i < FIELD_FUNC_END; i++){
; 3472 : 						fieldBtnHitId[i] = -2;
; 3473 : 					}
; 3474 : 				}
; 3475 : 				HitDispNo = -1;
; 3476 : 			}
; 3477 : 		}
; 3478 : 		if (宸寮){ */
; 3479 : 		/*char mapname[128];
; 3480 : 		sprintf(mapname, "[%s]:%d :%d", nowFloorName , nowGx, nowGy);
; 3481 : 		StockFontBuffer(leftUpPanelX + 380, leftUpPanelY + 580, FONT_PRIO_FRONT, 4, mapname, 0);*/
; 3482 : 
; 3483 : 			fieldBtnHitId[FIELD_FUNC_MENU] = StockDispBuffer(leftUpPanelX+52, leftUpPanelY + 27, DISP_PRIO_IME3, menuBtnGraNo[menuBtn], 2);

  011f7	6a 02		 push	 2
  011f9	0f bf 05 00 00
	00 00		 movsx	 eax, WORD PTR ?menuBtn@@3FA ; menuBtn
  01200	8b 0c 85 00 00
	00 00		 mov	 ecx, DWORD PTR ?menuBtnGraNo@@3PAHA[eax*4]
  01207	51		 push	 ecx
  01208	6a 69		 push	 105			; 00000069H
  0120a	8b 55 ec	 mov	 edx, DWORD PTR _leftUpPanelY$[ebp]
  0120d	83 c2 1b	 add	 edx, 27			; 0000001bH
  01210	52		 push	 edx
  01211	8b 45 f8	 mov	 eax, DWORD PTR _leftUpPanelX$[ebp]
  01214	83 c0 34	 add	 eax, 52			; 00000034H
  01217	50		 push	 eax
  01218	e8 00 00 00 00	 call	 ?StockDispBuffer@@YAHHHEHH@Z ; StockDispBuffer
  0121d	83 c4 14	 add	 esp, 20			; 00000014H
  01220	b9 04 00 00 00	 mov	 ecx, 4
  01225	6b d1 00	 imul	 edx, ecx, 0
  01228	89 82 00 00 00
	00		 mov	 DWORD PTR ?fieldBtnHitId@@3PAHA[edx], eax

; 3484 : 			if( HitDispNo == fieldBtnHitId[FIELD_FUNC_MENU]){

  0122e	b8 04 00 00 00	 mov	 eax, 4
  01233	6b c8 00	 imul	 ecx, eax, 0
  01236	8b 15 00 00 00
	00		 mov	 edx, DWORD PTR ?HitDispNo@@3HA ; HitDispNo
  0123c	3b 91 00 00 00
	00		 cmp	 edx, DWORD PTR ?fieldBtnHitId@@3PAHA[ecx]
  01242	75 0f		 jne	 SHORT $LN100@drawField

; 3485 : 				ShowBottomLineString(0, "氅措ゼ れ╇.");

  01244	68 00 00 00 00	 push	 OFFSET ??_C@_0BD@KALKBBEH@?$LI?$NO?$LE?$LK?$LI?$KG?5?$LM?$LD?A?$KE?G?U?$LE?O?$LE?Y?4?$AA@
  01249	6a 00		 push	 0
  0124b	e8 00 00 00 00	 call	 ?ShowBottomLineString@@YAXHPAD@Z ; ShowBottomLineString
  01250	83 c4 08	 add	 esp, 8
$LN100@drawField:

; 3486 : 			}
; 3487 : 			fieldBtnHitId[FIELD_FUNC_CARD] = StockDispBuffer(leftUpPanelX+52, leftUpPanelY + 27, DISP_PRIO_IME3, cardBtnGraNo[cardBtn], 2);

  01253	6a 02		 push	 2
  01255	0f bf 05 00 00
	00 00		 movsx	 eax, WORD PTR ?cardBtn@@3FA ; cardBtn
  0125c	8b 0c 85 00 00
	00 00		 mov	 ecx, DWORD PTR ?cardBtnGraNo@@3PAHA[eax*4]
  01263	51		 push	 ecx
  01264	6a 69		 push	 105			; 00000069H
  01266	8b 55 ec	 mov	 edx, DWORD PTR _leftUpPanelY$[ebp]
  01269	83 c2 1b	 add	 edx, 27			; 0000001bH
  0126c	52		 push	 edx
  0126d	8b 45 f8	 mov	 eax, DWORD PTR _leftUpPanelX$[ebp]
  01270	83 c0 34	 add	 eax, 52			; 00000034H
  01273	50		 push	 eax
  01274	e8 00 00 00 00	 call	 ?StockDispBuffer@@YAHHHEHH@Z ; StockDispBuffer
  01279	83 c4 14	 add	 esp, 20			; 00000014H
  0127c	b9 04 00 00 00	 mov	 ecx, 4
  01281	c1 e1 00	 shl	 ecx, 0
  01284	89 81 00 00 00
	00		 mov	 DWORD PTR ?fieldBtnHitId@@3PAHA[ecx], eax

; 3488 : 			if( HitDispNo == fieldBtnHitId[FIELD_FUNC_CARD]){

  0128a	b8 04 00 00 00	 mov	 eax, 4
  0128f	c1 e0 00	 shl	 eax, 0
  01292	8b 0d 00 00 00
	00		 mov	 ecx, DWORD PTR ?HitDispNo@@3HA ; HitDispNo
  01298	3b 88 00 00 00
	00		 cmp	 ecx, DWORD PTR ?fieldBtnHitId@@3PAHA[eax]
  0129e	75 0f		 jne	 SHORT $LN101@drawField

; 3489 : 				ShowBottomLineString(0, "氚╆臣 氇 甑╇.");

  012a0	68 00 00 00 00	 push	 OFFSET ??_C@_0BM@BDLIIEIH@?$LL?s?$LE?k?$LJ?f?$LA?z?5?$LI?m?G?T?$MA?$LL?5?$LB?$LD?H?$KP?G?U?$LE?O?$LE?Y?4?$AA@
  012a5	6a 00		 push	 0
  012a7	e8 00 00 00 00	 call	 ?ShowBottomLineString@@YAXHPAD@Z ; ShowBottomLineString
  012ac	83 c4 08	 add	 esp, 8
$LN101@drawField:

; 3490 : 			}
; 3491 : 			fieldBtnHitId[FIELD_FUNC_PARTY] = StockDispBuffer(leftUpPanelX+52, leftUpPanelY + 27, DISP_PRIO_IME3, partyBtnGraNo[partyBtn], 2);

  012af	6a 02		 push	 2
  012b1	0f bf 05 00 00
	00 00		 movsx	 eax, WORD PTR ?partyBtn@@3FA ; partyBtn
  012b8	8b 0c 85 00 00
	00 00		 mov	 ecx, DWORD PTR ?partyBtnGraNo@@3PAHA[eax*4]
  012bf	51		 push	 ecx
  012c0	6a 69		 push	 105			; 00000069H
  012c2	8b 55 ec	 mov	 edx, DWORD PTR _leftUpPanelY$[ebp]
  012c5	83 c2 1b	 add	 edx, 27			; 0000001bH
  012c8	52		 push	 edx
  012c9	8b 45 f8	 mov	 eax, DWORD PTR _leftUpPanelX$[ebp]
  012cc	83 c0 34	 add	 eax, 52			; 00000034H
  012cf	50		 push	 eax
  012d0	e8 00 00 00 00	 call	 ?StockDispBuffer@@YAHHHEHH@Z ; StockDispBuffer
  012d5	83 c4 14	 add	 esp, 20			; 00000014H
  012d8	b9 04 00 00 00	 mov	 ecx, 4
  012dd	d1 e1		 shl	 ecx, 1
  012df	89 81 00 00 00
	00		 mov	 DWORD PTR ?fieldBtnHitId@@3PAHA[ecx], eax

; 3492 : 			if( HitDispNo == fieldBtnHitId[FIELD_FUNC_PARTY]){

  012e5	b8 04 00 00 00	 mov	 eax, 4
  012ea	d1 e0		 shl	 eax, 1
  012ec	8b 0d 00 00 00
	00		 mov	 ecx, DWORD PTR ?HitDispNo@@3HA ; HitDispNo
  012f2	3b 88 00 00 00
	00		 cmp	 ecx, DWORD PTR ?fieldBtnHitId@@3PAHA[eax]
  012f8	75 2b		 jne	 SHORT $LN104@drawField

; 3493 : 				if (partyBtnEnableFlag == 0){

  012fa	0f bf 05 00 00
	00 00		 movsx	 eax, WORD PTR ?partyBtnEnableFlag@@3FA ; partyBtnEnableFlag
  01301	85 c0		 test	 eax, eax
  01303	75 11		 jne	 SHORT $LN103@drawField

; 3494 : 					ShowBottomLineString(6, "办 彀胳  挫.");

  01305	68 00 00 00 00	 push	 OFFSET ??_C@_0BJ@CHLJOFEL@?F?D?F?$LM?$LP?$KB?5?B?$PM?$LP?$KJ?G?R?5?$LM?v?5?$LO?x?$LO?n?$LP?d?4?$AA@
  0130a	6a 06		 push	 6
  0130c	e8 00 00 00 00	 call	 ?ShowBottomLineString@@YAXHPAD@Z ; ShowBottomLineString
  01311	83 c4 08	 add	 esp, 8

; 3495 : 				}else{

  01314	eb 0f		 jmp	 SHORT $LN104@drawField
$LN103@drawField:

; 3496 : 					ShowBottomLineString(0, "氚╈ 办 彀胳╇.");

  01316	68 00 00 00 00	 push	 OFFSET ??_C@_0BM@JPNLKOND@?$LL?s?$LE?k?$LJ?f?$MA?G?5?F?D?F?$LM?$LP?$KB?5?B?$PM?$LP?$KJ?G?U?$LE?O?$LE?Y?4?$AA@
  0131b	6a 00		 push	 0
  0131d	e8 00 00 00 00	 call	 ?ShowBottomLineString@@YAXHPAD@Z ; ShowBottomLineString
  01322	83 c4 08	 add	 esp, 8
$LN104@drawField:

; 3497 : 				}
; 3498 : 			}
; 3499 : 			fieldBtnHitId[FIELD_FUNC_TRADE] = StockDispBuffer(leftUpPanelX+114, leftUpPanelY + 17, DISP_PRIO_IME3, tradeBtnGraNo[tradeBtn], 2);

  01325	6a 02		 push	 2
  01327	0f bf 05 00 00
	00 00		 movsx	 eax, WORD PTR ?tradeBtn@@3FA ; tradeBtn
  0132e	8b 0c 85 00 00
	00 00		 mov	 ecx, DWORD PTR ?tradeBtnGraNo@@3PAHA[eax*4]
  01335	51		 push	 ecx
  01336	6a 69		 push	 105			; 00000069H
  01338	8b 55 ec	 mov	 edx, DWORD PTR _leftUpPanelY$[ebp]
  0133b	83 c2 11	 add	 edx, 17			; 00000011H
  0133e	52		 push	 edx
  0133f	8b 45 f8	 mov	 eax, DWORD PTR _leftUpPanelX$[ebp]
  01342	83 c0 72	 add	 eax, 114		; 00000072H
  01345	50		 push	 eax
  01346	e8 00 00 00 00	 call	 ?StockDispBuffer@@YAHHHEHH@Z ; StockDispBuffer
  0134b	83 c4 14	 add	 esp, 20			; 00000014H
  0134e	b9 04 00 00 00	 mov	 ecx, 4
  01353	6b d1 06	 imul	 edx, ecx, 6
  01356	89 82 00 00 00
	00		 mov	 DWORD PTR ?fieldBtnHitId@@3PAHA[edx], eax

; 3500 : 			if( HitDispNo == fieldBtnHitId[FIELD_FUNC_TRADE]){

  0135c	b8 04 00 00 00	 mov	 eax, 4
  01361	6b c8 06	 imul	 ecx, eax, 6
  01364	8b 15 00 00 00
	00		 mov	 edx, DWORD PTR ?HitDispNo@@3HA ; HitDispNo
  0136a	3b 91 00 00 00
	00		 cmp	 edx, DWORD PTR ?fieldBtnHitId@@3PAHA[ecx]
  01370	75 0f		 jne	 SHORT $LN105@drawField

; 3501 : 				ShowBottomLineString(0, "氚╈瓴 甑 觳╇.");

  01372	68 00 00 00 00	 push	 OFFSET ??_C@_0BO@NDPFBKJO@?$LL?s?$LE?k?$LJ?f?$LP?$KB?$LA?T?5?$LB?$LD?H?$KP?$MA?$LL?5?$LN?E?C?$LL?G?U?$LE?O?$LE?Y?4?$AA@
  01377	6a 00		 push	 0
  01379	e8 00 00 00 00	 call	 ?ShowBottomLineString@@YAXHPAD@Z ; ShowBottomLineString
  0137e	83 c4 08	 add	 esp, 8
$LN105@drawField:

; 3502 : 			}
; 3503 : 			fieldBtnHitId[FIELD_FUNC_STREET_VENDOR] = StockDispBuffer(leftUpPanelX+175, leftUpPanelY + 18, DISP_PRIO_IME3, sStreetVendorBtnGraNo[pc.iOnStreetVendor], 2);

  01381	6a 02		 push	 2
  01383	a1 b8 a1 00 00	 mov	 eax, DWORD PTR ?pc@@3UPC@@A+41400
  01388	8b 0c 85 00 00
	00 00		 mov	 ecx, DWORD PTR ?sStreetVendorBtnGraNo@@3PAHA[eax*4]
  0138f	51		 push	 ecx
  01390	6a 69		 push	 105			; 00000069H
  01392	8b 55 ec	 mov	 edx, DWORD PTR _leftUpPanelY$[ebp]
  01395	83 c2 12	 add	 edx, 18			; 00000012H
  01398	52		 push	 edx
  01399	8b 45 f8	 mov	 eax, DWORD PTR _leftUpPanelX$[ebp]
  0139c	05 af 00 00 00	 add	 eax, 175		; 000000afH
  013a1	50		 push	 eax
  013a2	e8 00 00 00 00	 call	 ?StockDispBuffer@@YAHHHEHH@Z ; StockDispBuffer
  013a7	83 c4 14	 add	 esp, 20			; 00000014H
  013aa	b9 04 00 00 00	 mov	 ecx, 4
  013af	6b d1 09	 imul	 edx, ecx, 9
  013b2	89 82 00 00 00
	00		 mov	 DWORD PTR ?fieldBtnHitId@@3PAHA[edx], eax

; 3504 : 			if( HitDispNo == fieldBtnHitId[FIELD_FUNC_STREET_VENDOR]){

  013b8	b8 04 00 00 00	 mov	 eax, 4
  013bd	6b c8 09	 imul	 ecx, eax, 9
  013c0	8b 15 00 00 00
	00		 mov	 edx, DWORD PTR ?HitDispNo@@3HA ; HitDispNo
  013c6	3b 91 00 00 00
	00		 cmp	 edx, DWORD PTR ?fieldBtnHitId@@3PAHA[ecx]
  013cc	75 0f		 jne	 SHORT $LN106@drawField

; 3505 : 				ShowBottomLineString(0, "臧胳 臧ろ╇.");

  013ce	68 00 00 00 00	 push	 OFFSET ??_C@_0BH@CBJDPLHJ@?$LA?$LD?$MA?N?$LL?s?A?$KB?$MA?$LL?5?$LA?$LD?$LM?$LD?G?U?$LE?O?$LE?Y?4?$AA@
  013d3	6a 00		 push	 0
  013d5	e8 00 00 00 00	 call	 ?ShowBottomLineString@@YAXHPAD@Z ; ShowBottomLineString
  013da	83 c4 08	 add	 esp, 8
$LN106@drawField:

; 3506 : 			}
; 3507 : 			fieldBtnHitId[FIELD_FUNC_CHANNEL] = StockDispBuffer(leftUpPanelX+115, leftUpPanelY + 27, DISP_PRIO_IME3, channelBtnGraNo[channelBtn], 2);

  013dd	6a 02		 push	 2
  013df	0f bf 05 00 00
	00 00		 movsx	 eax, WORD PTR ?channelBtn@@3FA ; channelBtn
  013e6	8b 0c 85 00 00
	00 00		 mov	 ecx, DWORD PTR ?channelBtnGraNo@@3PAHA[eax*4]
  013ed	51		 push	 ecx
  013ee	6a 69		 push	 105			; 00000069H
  013f0	8b 55 ec	 mov	 edx, DWORD PTR _leftUpPanelY$[ebp]
  013f3	83 c2 1b	 add	 edx, 27			; 0000001bH
  013f6	52		 push	 edx
  013f7	8b 45 f8	 mov	 eax, DWORD PTR _leftUpPanelX$[ebp]
  013fa	83 c0 73	 add	 eax, 115		; 00000073H
  013fd	50		 push	 eax
  013fe	e8 00 00 00 00	 call	 ?StockDispBuffer@@YAHHHEHH@Z ; StockDispBuffer
  01403	83 c4 14	 add	 esp, 20			; 00000014H
  01406	b9 04 00 00 00	 mov	 ecx, 4
  0140b	6b d1 07	 imul	 edx, ecx, 7
  0140e	89 82 00 00 00
	00		 mov	 DWORD PTR ?fieldBtnHitId@@3PAHA[edx], eax

; 3508 : 			if( HitDispNo == fieldBtnHitId[FIELD_FUNC_CHANNEL]){

  01414	b8 04 00 00 00	 mov	 eax, 4
  01419	6b c8 07	 imul	 ecx, eax, 7
  0141c	8b 15 00 00 00
	00		 mov	 edx, DWORD PTR ?HitDispNo@@3HA ; HitDispNo
  01422	3b 91 00 00 00
	00		 cmp	 edx, DWORD PTR ?fieldBtnHitId@@3PAHA[ecx]
  01428	75 0f		 jne	 SHORT $LN107@drawField

; 3509 : 				ShowBottomLineString(0, "攵臁膘  氤措ゼ 疙╇.");

  0142a	68 00 00 00 00	 push	 OFFSET ??_C@_0BP@BDKJGMGO@?$LK?N?A?$LH?$LP?$KB?5?$LE?k?G?Q?5?A?$KE?$LK?$LI?$LI?$KG?5?H?$KO?$MA?N?G?U?$LE?O?$LE?Y?4?$AA@
  0142f	6a 00		 push	 0
  01431	e8 00 00 00 00	 call	 ?ShowBottomLineString@@YAXHPAD@Z ; ShowBottomLineString
  01436	83 c4 08	 add	 esp, 8
$LN107@drawField:

; 3510 : 			}
; 3511 : 
; 3512 : 			StockDispBuffer(rightUpPanelX + 55, rightUpPanelY + 31, DISP_PRIO_MENU, CG_FIELD_MENU_RIGHT, 0);

  01439	6a 00		 push	 0
  0143b	68 94 66 00 00	 push	 26260			; 00006694H
  01440	6a 68		 push	 104			; 00000068H
  01442	8b 45 d4	 mov	 eax, DWORD PTR _rightUpPanelY$[ebp]
  01445	83 c0 1f	 add	 eax, 31			; 0000001fH
  01448	50		 push	 eax
  01449	8b 4d e0	 mov	 ecx, DWORD PTR _rightUpPanelX$[ebp]
  0144c	83 c1 37	 add	 ecx, 55			; 00000037H
  0144f	51		 push	 ecx
  01450	e8 00 00 00 00	 call	 ?StockDispBuffer@@YAHHHEHH@Z ; StockDispBuffer
  01455	83 c4 14	 add	 esp, 20			; 00000014H

; 3513 : 			StockDispBuffer(rightUpPanelX + 106 - amPmAnimeX, rightUpPanelY + 19, DISP_PRIO_MENU, amPmAnimeGraNo[amPmAnimeGraNoIndex0], 0);

  01458	6a 00		 push	 0
  0145a	a1 00 00 00 00	 mov	 eax, DWORD PTR ?amPmAnimeGraNoIndex0@@3HA ; amPmAnimeGraNoIndex0
  0145f	8b 0c 85 00 00
	00 00		 mov	 ecx, DWORD PTR ?amPmAnimeGraNo@@3PAHA[eax*4]
  01466	51		 push	 ecx
  01467	6a 68		 push	 104			; 00000068H
  01469	8b 55 d4	 mov	 edx, DWORD PTR _rightUpPanelY$[ebp]
  0146c	83 c2 13	 add	 edx, 19			; 00000013H
  0146f	52		 push	 edx
  01470	8b 45 e0	 mov	 eax, DWORD PTR _rightUpPanelX$[ebp]
  01473	83 c0 6a	 add	 eax, 106		; 0000006aH
  01476	2b 05 00 00 00
	00		 sub	 eax, DWORD PTR ?amPmAnimeX@@3HA ; amPmAnimeX
  0147c	50		 push	 eax
  0147d	e8 00 00 00 00	 call	 ?StockDispBuffer@@YAHHHEHH@Z ; StockDispBuffer
  01482	83 c4 14	 add	 esp, 20			; 00000014H

; 3514 : 			StockDispBuffer(rightUpPanelX + 106 + 64 - amPmAnimeX, rightUpPanelY + 19, DISP_PRIO_MENU, amPmAnimeGraNo[amPmAnimeGraNoIndex1], 0);

  01485	6a 00		 push	 0
  01487	a1 00 00 00 00	 mov	 eax, DWORD PTR ?amPmAnimeGraNoIndex1@@3HA ; amPmAnimeGraNoIndex1
  0148c	8b 0c 85 00 00
	00 00		 mov	 ecx, DWORD PTR ?amPmAnimeGraNo@@3PAHA[eax*4]
  01493	51		 push	 ecx
  01494	6a 68		 push	 104			; 00000068H
  01496	8b 55 d4	 mov	 edx, DWORD PTR _rightUpPanelY$[ebp]
  01499	83 c2 13	 add	 edx, 19			; 00000013H
  0149c	52		 push	 edx
  0149d	8b 45 e0	 mov	 eax, DWORD PTR _rightUpPanelX$[ebp]
  014a0	05 aa 00 00 00	 add	 eax, 170		; 000000aaH
  014a5	2b 05 00 00 00
	00		 sub	 eax, DWORD PTR ?amPmAnimeX@@3HA ; amPmAnimeX
  014ab	50		 push	 eax
  014ac	e8 00 00 00 00	 call	 ?StockDispBuffer@@YAHHHEHH@Z ; StockDispBuffer
  014b1	83 c4 14	 add	 esp, 20			; 00000014H

; 3515 : 
; 3516 : 			fieldBtnHitId[FIELD_FUNC_DUEL] = StockDispBuffer(rightUpPanelX+38, rightUpPanelY + 31, DISP_PRIO_IME3, duelBtnGraNo[duelBtn], 2);

  014b4	6a 02		 push	 2
  014b6	0f bf 05 00 00
	00 00		 movsx	 eax, WORD PTR ?duelBtn@@3FA ; duelBtn
  014bd	8b 0c 85 00 00
	00 00		 mov	 ecx, DWORD PTR ?duelBtnGraNo@@3PAHA[eax*4]
  014c4	51		 push	 ecx
  014c5	6a 69		 push	 105			; 00000069H
  014c7	8b 55 d4	 mov	 edx, DWORD PTR _rightUpPanelY$[ebp]
  014ca	83 c2 1f	 add	 edx, 31			; 0000001fH
  014cd	52		 push	 edx
  014ce	8b 45 e0	 mov	 eax, DWORD PTR _rightUpPanelX$[ebp]
  014d1	83 c0 26	 add	 eax, 38			; 00000026H
  014d4	50		 push	 eax
  014d5	e8 00 00 00 00	 call	 ?StockDispBuffer@@YAHHHEHH@Z ; StockDispBuffer
  014da	83 c4 14	 add	 esp, 20			; 00000014H
  014dd	b9 04 00 00 00	 mov	 ecx, 4
  014e2	c1 e1 02	 shl	 ecx, 2
  014e5	89 81 00 00 00
	00		 mov	 DWORD PTR ?fieldBtnHitId@@3PAHA[ecx], eax

; 3517 : 			if( HitDispNo == fieldBtnHitId[FIELD_FUNC_DUEL]){

  014eb	b8 04 00 00 00	 mov	 eax, 4
  014f0	c1 e0 02	 shl	 eax, 2
  014f3	8b 0d 00 00 00
	00		 mov	 ecx, DWORD PTR ?HitDispNo@@3HA ; HitDispNo
  014f9	3b 88 00 00 00
	00		 cmp	 ecx, DWORD PTR ?fieldBtnHitId@@3PAHA[eax]
  014ff	75 0f		 jne	 SHORT $LN108@drawField

; 3518 : 				ShowBottomLineString(0, "氚╈瓴  觳╇.");

  01501	68 00 00 00 00	 push	 OFFSET ??_C@_0BO@GJIBCGFI@?$LL?s?$LE?k?$LJ?f?$LP?$KB?$LA?T?5?$LE?k?$MA?$PM?$MA?$LL?5?$LN?E?C?$LL?G?U?$LE?O?$LE?Y?4?$AA@
  01506	6a 00		 push	 0
  01508	e8 00 00 00 00	 call	 ?ShowBottomLineString@@YAXHPAD@Z ; ShowBottomLineString
  0150d	83 c4 08	 add	 esp, 8
$LN108@drawField:

; 3519 : 			}
; 3520 : 			fieldBtnHitId[FIELD_FUNC_JOIN_BATTLE] = StockDispBuffer(rightUpPanelX+38, rightUpPanelY + 31, DISP_PRIO_IME3, joinBattleBtnGraNo[joinBattleBtn], 2);

  01510	6a 02		 push	 2
  01512	0f bf 05 00 00
	00 00		 movsx	 eax, WORD PTR ?joinBattleBtn@@3FA ; joinBattleBtn
  01519	8b 0c 85 00 00
	00 00		 mov	 ecx, DWORD PTR ?joinBattleBtnGraNo@@3PAHA[eax*4]
  01520	51		 push	 ecx
  01521	6a 69		 push	 105			; 00000069H
  01523	8b 55 d4	 mov	 edx, DWORD PTR _rightUpPanelY$[ebp]
  01526	83 c2 1f	 add	 edx, 31			; 0000001fH
  01529	52		 push	 edx
  0152a	8b 45 e0	 mov	 eax, DWORD PTR _rightUpPanelX$[ebp]
  0152d	83 c0 26	 add	 eax, 38			; 00000026H
  01530	50		 push	 eax
  01531	e8 00 00 00 00	 call	 ?StockDispBuffer@@YAHHHEHH@Z ; StockDispBuffer
  01536	83 c4 14	 add	 esp, 20			; 00000014H
  01539	b9 04 00 00 00	 mov	 ecx, 4
  0153e	6b d1 03	 imul	 edx, ecx, 3
  01541	89 82 00 00 00
	00		 mov	 DWORD PTR ?fieldBtnHitId@@3PAHA[edx], eax

; 3521 : 			if( HitDispNo == fieldBtnHitId[FIELD_FUNC_JOIN_BATTLE]){

  01547	b8 04 00 00 00	 mov	 eax, 4
  0154c	6b c8 03	 imul	 ecx, eax, 3
  0154f	8b 15 00 00 00
	00		 mov	 edx, DWORD PTR ?HitDispNo@@3HA ; HitDispNo
  01555	3b 91 00 00 00
	00		 cmp	 edx, DWORD PTR ?fieldBtnHitId@@3PAHA[ecx]
  0155b	75 49		 jne	 SHORT $LN113@drawField

; 3522 : 				if (joinBattleHelpMsgFlag == 1){

  0155d	0f bf 05 00 00
	00 00		 movsx	 eax, WORD PTR ?joinBattleHelpMsgFlag@@3FA ; joinBattleHelpMsgFlag
  01564	83 f8 01	 cmp	 eax, 1
  01567	75 11		 jne	 SHORT $LN110@drawField

; 3523 : 					ShowBottomLineString(0, " 彀胳╇.");

  01569	68 00 00 00 00	 push	 OFFSET ??_C@_0BD@KFAJKCNC@?$MA?$PM?E?u?$LP?$KB?5?B?$PM?$LP?$KJ?G?U?$LE?O?$LE?Y?4?$AA@
  0156e	6a 00		 push	 0
  01570	e8 00 00 00 00	 call	 ?ShowBottomLineString@@YAXHPAD@Z ; ShowBottomLineString
  01575	83 c4 08	 add	 esp, 8
  01578	eb 2c		 jmp	 SHORT $LN113@drawField
$LN110@drawField:

; 3524 : 				}else if (joinBattleHelpMsgFlag == 2){

  0157a	0f bf 05 00 00
	00 00		 movsx	 eax, WORD PTR ?joinBattleHelpMsgFlag@@3FA ; joinBattleHelpMsgFlag
  01581	83 f8 02	 cmp	 eax, 2
  01584	75 11		 jne	 SHORT $LN112@drawField

; 3525 : 					ShowBottomLineString(6, " 彀胳  挫.");

  01586	68 00 00 00 00	 push	 OFFSET ??_C@_0BJ@NBCGMCO@?$MA?$PM?E?u?$LP?$KB?5?B?$PM?$LP?$KJ?G?R?5?$LM?v?5?$LO?x?$LO?n?$LP?d?4?$AA@
  0158b	6a 06		 push	 6
  0158d	e8 00 00 00 00	 call	 ?ShowBottomLineString@@YAXHPAD@Z ; ShowBottomLineString
  01592	83 c4 08	 add	 esp, 8

; 3526 : 				}else{

  01595	eb 0f		 jmp	 SHORT $LN113@drawField
$LN112@drawField:

; 3527 : 					ShowBottomLineString(0,"毳 甏╇.");

  01597	68 00 00 00 00	 push	 OFFSET ??_C@_0BD@KMDDMCEP@?$MA?$PM?E?u?$LI?$KG?5?$LA?$PM?$MA?$PM?G?U?$LE?O?$LE?Y?4?$AA@
  0159c	6a 00		 push	 0
  0159e	e8 00 00 00 00	 call	 ?ShowBottomLineString@@YAXHPAD@Z ; ShowBottomLineString
  015a3	83 c4 08	 add	 esp, 8
$LN113@drawField:

; 3528 : 				}
; 3529 : 			}
; 3530 : 			fieldBtnHitId[FIELD_FUNC_HELP] = StockDispBuffer(rightUpPanelX+115, rightUpPanelY+32, DISP_PRIO_IME3, helpBtnGraNo[helpBtn], 2);

  015a6	6a 02		 push	 2
  015a8	0f bf 05 00 00
	00 00		 movsx	 eax, WORD PTR ?helpBtn@@3FA ; helpBtn
  015af	8b 0c 85 00 00
	00 00		 mov	 ecx, DWORD PTR ?helpBtnGraNo@@3PAHA[eax*4]
  015b6	51		 push	 ecx
  015b7	6a 69		 push	 105			; 00000069H
  015b9	8b 55 d4	 mov	 edx, DWORD PTR _rightUpPanelY$[ebp]
  015bc	83 c2 20	 add	 edx, 32			; 00000020H
  015bf	52		 push	 edx
  015c0	8b 45 e0	 mov	 eax, DWORD PTR _rightUpPanelX$[ebp]
  015c3	83 c0 73	 add	 eax, 115		; 00000073H
  015c6	50		 push	 eax
  015c7	e8 00 00 00 00	 call	 ?StockDispBuffer@@YAHHHEHH@Z ; StockDispBuffer
  015cc	83 c4 14	 add	 esp, 20			; 00000014H
  015cf	b9 04 00 00 00	 mov	 ecx, 4
  015d4	c1 e1 03	 shl	 ecx, 3
  015d7	89 81 00 00 00
	00		 mov	 DWORD PTR ?fieldBtnHitId@@3PAHA[ecx], eax

; 3531 : 			if( HitDispNo == fieldBtnHitId[FIELD_FUNC_HELP]){

  015dd	b8 04 00 00 00	 mov	 eax, 4
  015e2	c1 e0 03	 shl	 eax, 3
  015e5	8b 0d 00 00 00
	00		 mov	 ecx, DWORD PTR ?HitDispNo@@3HA ; HitDispNo
  015eb	3b 88 00 00 00
	00		 cmp	 ecx, DWORD PTR ?fieldBtnHitId@@3PAHA[eax]
  015f1	75 0f		 jne	 SHORT $LN114@drawField

; 3532 : 				ShowBottomLineString(5, "ろ 氤措ゼ 疙╇.");

  015f3	68 00 00 00 00	 push	 OFFSET ??_C@_0BK@EJDCDLOD@?D?y?$LN?$LK?F?$KO?5?A?$KE?$LK?$LI?$LI?$KG?5?H?$KO?$MA?N?G?U?$LE?O?$LE?Y?4?$AA@
  015f8	6a 05		 push	 5
  015fa	e8 00 00 00 00	 call	 ?ShowBottomLineString@@YAXHPAD@Z ; ShowBottomLineString
  015ff	83 c4 08	 add	 esp, 8
$LN114@drawField:

; 3533 : 			}
; 3534 : 			
; 3535 : 			fieldBtnHitId[FIELD_FUNC_ACT] = StockDispBuffer(rightUpPanelX+68, rightUpPanelY+30, DISP_PRIO_IME3, actBtnGraNo[actBtn], 2);

  01602	6a 02		 push	 2
  01604	0f bf 05 00 00
	00 00		 movsx	 eax, WORD PTR ?actBtn@@3FA ; actBtn
  0160b	8b 0c 85 00 00
	00 00		 mov	 ecx, DWORD PTR ?actBtnGraNo@@3PAHA[eax*4]
  01612	51		 push	 ecx
  01613	6a 69		 push	 105			; 00000069H
  01615	8b 55 d4	 mov	 edx, DWORD PTR _rightUpPanelY$[ebp]
  01618	83 c2 1e	 add	 edx, 30			; 0000001eH
  0161b	52		 push	 edx
  0161c	8b 45 e0	 mov	 eax, DWORD PTR _rightUpPanelX$[ebp]
  0161f	83 c0 44	 add	 eax, 68			; 00000044H
  01622	50		 push	 eax
  01623	e8 00 00 00 00	 call	 ?StockDispBuffer@@YAHHHEHH@Z ; StockDispBuffer
  01628	83 c4 14	 add	 esp, 20			; 00000014H
  0162b	b9 04 00 00 00	 mov	 ecx, 4
  01630	6b d1 05	 imul	 edx, ecx, 5
  01633	89 82 00 00 00
	00		 mov	 DWORD PTR ?fieldBtnHitId@@3PAHA[edx], eax

; 3536 : 			if( HitDispNo == fieldBtnHitId[FIELD_FUNC_ACT]){

  01639	b8 04 00 00 00	 mov	 eax, 4
  0163e	6b c8 05	 imul	 ecx, eax, 5
  01641	8b 15 00 00 00
	00		 mov	 edx, DWORD PTR ?HitDispNo@@3HA ; HitDispNo
  01647	3b 91 00 00 00
	00		 cmp	 edx, DWORD PTR ?fieldBtnHitId@@3PAHA[ecx]
  0164d	75 0f		 jne	 SHORT $LN115@drawField

; 3537 : 				ShowBottomLineString(0, "旌毽 § 氤措ゼ 疙╇.");

  0164f	68 00 00 00 00	 push	 OFFSET ??_C@_0BP@JAGIJNBP@?D?$LD?$LI?$KP?E?M?5?$LO?W?$LM?G?5?A?$KE?$LK?$LI?$LI?$KG?5?H?$KO?$MA?N?G?U?$LE?O?$LE?Y?4?$AA@
  01654	6a 00		 push	 0
  01656	e8 00 00 00 00	 call	 ?ShowBottomLineString@@YAXHPAD@Z ; ShowBottomLineString
  0165b	83 c4 08	 add	 esp, 8
$LN115@drawField:

; 3538 : 			}
; 3539 : 
; 3540 : 			/*椤堕ㄦ版绱㈠[1] = StockDispBuffer(leftUpPanelX+20, leftUpPanelY + 220, DISP_PRIO_IME3,IMAGE_瑙, 2);
; 3541 : 			if( HitDispNo == 椤堕ㄦ版绱㈠[1]){
; 3542 : 				ShowBottomLineString(11, "甏");
; 3543 : 				if( mouse.onceState & MOUSE_LEFT_CRICK ){
; 3544 : 					lssproto_SaMenu_send(sockfd,3, 4, 0);
; 3545 : 					play_se(217, 320, 240);
; 3546 : 				}
; 3547 : 			}*/
; 3548 : 
; 3549 : 			椤堕ㄦ版绱㈠[2] = StockDispBuffer(rightUpPanelX-400, rightUpPanelY + 19, DISP_PRIO_IME3, 60012, 2);

  0165e	6a 02		 push	 2
  01660	68 6c ea 00 00	 push	 60012			; 0000ea6cH
  01665	6a 69		 push	 105			; 00000069H
  01667	8b 45 d4	 mov	 eax, DWORD PTR _rightUpPanelY$[ebp]
  0166a	83 c0 13	 add	 eax, 19			; 00000013H
  0166d	50		 push	 eax
  0166e	8b 4d e0	 mov	 ecx, DWORD PTR _rightUpPanelX$[ebp]
  01671	81 e9 90 01 00
	00		 sub	 ecx, 400		; 00000190H
  01677	51		 push	 ecx
  01678	e8 00 00 00 00	 call	 ?StockDispBuffer@@YAHHHEHH@Z ; StockDispBuffer
  0167d	83 c4 14	 add	 esp, 20			; 00000014H
  01680	ba 04 00 00 00	 mov	 edx, 4
  01685	d1 e2		 shl	 edx, 1
  01687	89 82 00 00 00
	00		 mov	 DWORD PTR ?顶部新按钮索引@@3PAHA[edx], eax

; 3550 : 			if( HitDispNo == 椤堕ㄦ版绱㈠[2]){

  0168d	b8 04 00 00 00	 mov	 eax, 4
  01692	d1 e0		 shl	 eax, 1
  01694	8b 0d 00 00 00
	00		 mov	 ecx, DWORD PTR ?HitDispNo@@3HA ; HitDispNo
  0169a	3b 88 00 00 00
	00		 cmp	 ecx, DWORD PTR ?顶部新按钮索引@@3PAHA[eax]
  016a0	75 44		 jne	 SHORT $LN117@drawField

; 3551 : 				ShowBottomLineString(4, "歆 疙 奠 措╇.");

  016a2	68 00 00 00 00	 push	 OFFSET ??_C@_0BN@HEBEENAI@?A?v?$LP?x?5?F?w?$MA?N?F?$KO?5?$LM?$KF?$MA?$LL?5?$LP?$KN?$LG?w?G?U?$LE?O?$LE?Y?4?$AA@
  016a7	6a 04		 push	 4
  016a9	e8 00 00 00 00	 call	 ?ShowBottomLineString@@YAXHPAD@Z ; ShowBottomLineString
  016ae	83 c4 08	 add	 esp, 8

; 3552 : 				if( mouse.onceState & MOUSE_LEFT_CRICK ){

  016b1	a1 2c 00 00 00	 mov	 eax, DWORD PTR ?mouse@@3UMOUSE@@A+44
  016b6	83 e0 01	 and	 eax, 1
  016b9	74 2b		 je	 SHORT $LN117@drawField

; 3553 : 					lssproto_SaMenu_send(sockfd,3, 2, 0);

  016bb	6a 00		 push	 0
  016bd	6a 02		 push	 2
  016bf	6a 03		 push	 3
  016c1	a1 00 00 00 00	 mov	 eax, DWORD PTR ?sockfd@@3IA ; sockfd
  016c6	50		 push	 eax
  016c7	e8 00 00 00 00	 call	 ?lssproto_SaMenu_send@@YAXHHHH@Z ; lssproto_SaMenu_send
  016cc	83 c4 10	 add	 esp, 16			; 00000010H

; 3554 : 					play_se(217, 320, 240);

  016cf	68 f0 00 00 00	 push	 240			; 000000f0H
  016d4	68 40 01 00 00	 push	 320			; 00000140H
  016d9	68 d9 00 00 00	 push	 217			; 000000d9H
  016de	e8 00 00 00 00	 call	 ?play_se@@YAHHHH@Z	; play_se
  016e3	83 c4 0c	 add	 esp, 12			; 0000000cH
$LN117@drawField:

; 3555 : 				}
; 3556 : 			}
; 3557 : 
; 3558 : 			椤堕ㄦ版绱㈠[3] = StockDispBuffer(leftUpPanelX+206, leftUpPanelY + 18, DISP_PRIO_IME3, ridelistBtnGraNo[ridelistBtn], 2);

  016e6	6a 02		 push	 2
  016e8	0f bf 05 00 00
	00 00		 movsx	 eax, WORD PTR ?ridelistBtn@@3FA ; ridelistBtn
  016ef	8b 0c 85 00 00
	00 00		 mov	 ecx, DWORD PTR ?ridelistBtnGraNo@@3PAHA[eax*4]
  016f6	51		 push	 ecx
  016f7	6a 69		 push	 105			; 00000069H
  016f9	8b 55 ec	 mov	 edx, DWORD PTR _leftUpPanelY$[ebp]
  016fc	83 c2 12	 add	 edx, 18			; 00000012H
  016ff	52		 push	 edx
  01700	8b 45 f8	 mov	 eax, DWORD PTR _leftUpPanelX$[ebp]
  01703	05 ce 00 00 00	 add	 eax, 206		; 000000ceH
  01708	50		 push	 eax
  01709	e8 00 00 00 00	 call	 ?StockDispBuffer@@YAHHHEHH@Z ; StockDispBuffer
  0170e	83 c4 14	 add	 esp, 20			; 00000014H
  01711	b9 04 00 00 00	 mov	 ecx, 4
  01716	6b d1 03	 imul	 edx, ecx, 3
  01719	89 82 00 00 00
	00		 mov	 DWORD PTR ?顶部新按钮索引@@3PAHA[edx], eax

; 3559 : 			if( HitDispNo == 椤堕ㄦ版绱㈠[3]){

  0171f	b8 04 00 00 00	 mov	 eax, 4
  01724	6b c8 03	 imul	 ecx, eax, 3
  01727	8b 15 00 00 00
	00		 mov	 edx, DWORD PTR ?HitDispNo@@3HA ; HitDispNo
  0172d	3b 91 00 00 00
	00		 cmp	 edx, DWORD PTR ?顶部新按钮索引@@3PAHA[ecx]
  01733	75 44		 jne	 SHORT $LN119@drawField

; 3560 : 				ShowBottomLineString(0, "旌毽办  鸽ゼ 疙╇.");

  01735	68 00 00 00 00	 push	 OFFSET ??_C@_0CB@NCIEAEIK@?D?$LD?$LI?$KP?E?M?$MA?G?5?E?$LO?$LN?B?5?F?d?F?$KO?$LI?$KG?5?H?$KO?$MA?N?G?U?$LE?O?$LE?Y?4@
  0173a	6a 00		 push	 0
  0173c	e8 00 00 00 00	 call	 ?ShowBottomLineString@@YAXHPAD@Z ; ShowBottomLineString
  01741	83 c4 08	 add	 esp, 8

; 3561 : 				if( mouse.onceState & MOUSE_LEFT_CRICK ){

  01744	a1 2c 00 00 00	 mov	 eax, DWORD PTR ?mouse@@3UMOUSE@@A+44
  01749	83 e0 01	 and	 eax, 1
  0174c	74 2b		 je	 SHORT $LN119@drawField

; 3562 : 					lssproto_SaMenu_send(sockfd,3, 1, 0);

  0174e	6a 00		 push	 0
  01750	6a 01		 push	 1
  01752	6a 03		 push	 3
  01754	a1 00 00 00 00	 mov	 eax, DWORD PTR ?sockfd@@3IA ; sockfd
  01759	50		 push	 eax
  0175a	e8 00 00 00 00	 call	 ?lssproto_SaMenu_send@@YAXHHHH@Z ; lssproto_SaMenu_send
  0175f	83 c4 10	 add	 esp, 16			; 00000010H

; 3563 : 					play_se(217, 320, 240);

  01762	68 f0 00 00 00	 push	 240			; 000000f0H
  01767	68 40 01 00 00	 push	 320			; 00000140H
  0176c	68 d9 00 00 00	 push	 217			; 000000d9H
  01771	e8 00 00 00 00	 call	 ?play_se@@YAHHHH@Z	; play_se
  01776	83 c4 0c	 add	 esp, 12			; 0000000cH
$LN119@drawField:

; 3564 : 				}
; 3565 : 			}
; 3566 : 			椤堕ㄦ版绱㈠[4] = StockDispBuffer(leftUpPanelX + 632, leftUpPanelY + 18, DISP_PRIO_IME3, 60011, 2);

  01779	6a 02		 push	 2
  0177b	68 6b ea 00 00	 push	 60011			; 0000ea6bH
  01780	6a 69		 push	 105			; 00000069H
  01782	8b 45 ec	 mov	 eax, DWORD PTR _leftUpPanelY$[ebp]
  01785	83 c0 12	 add	 eax, 18			; 00000012H
  01788	50		 push	 eax
  01789	8b 4d f8	 mov	 ecx, DWORD PTR _leftUpPanelX$[ebp]
  0178c	81 c1 78 02 00
	00		 add	 ecx, 632		; 00000278H
  01792	51		 push	 ecx
  01793	e8 00 00 00 00	 call	 ?StockDispBuffer@@YAHHHEHH@Z ; StockDispBuffer
  01798	83 c4 14	 add	 esp, 20			; 00000014H
  0179b	ba 04 00 00 00	 mov	 edx, 4
  017a0	c1 e2 02	 shl	 edx, 2
  017a3	89 82 00 00 00
	00		 mov	 DWORD PTR ?顶部新按钮索引@@3PAHA[edx], eax

; 3567 : 			if (HitDispNo == 椤堕ㄦ版绱㈠[4]) {

  017a9	b8 04 00 00 00	 mov	 eax, 4
  017ae	c1 e0 02	 shl	 eax, 2
  017b1	8b 0d 00 00 00
	00		 mov	 ecx, DWORD PTR ?HitDispNo@@3HA ; HitDispNo
  017b7	3b 88 00 00 00
	00		 cmp	 ecx, DWORD PTR ?顶部新按钮索引@@3PAHA[eax]
  017bd	75 3e		 jne	 SHORT $LN121@drawField

; 3568 : 				ShowBottomLineString(0, "措轨  半ゼ 瓴╇.");

  017bf	68 00 00 00 00	 push	 OFFSET ??_C@_0CD@LEKAGBMD@?G?X?$LE?g?A?v?$LP?$KK?$LP?$KB?5?$MA?V?$LE?B?5?F?D?F?$LM?$LI?$KG?5?$LA?K?$LL?v?G?U?$LE?O?$LE@
  017c4	6a 00		 push	 0
  017c6	e8 00 00 00 00	 call	 ?ShowBottomLineString@@YAXHPAD@Z ; ShowBottomLineString
  017cb	83 c4 08	 add	 esp, 8

; 3569 : 				if (mouse.onceState & MOUSE_LEFT_CRICK) {

  017ce	a1 2c 00 00 00	 mov	 eax, DWORD PTR ?mouse@@3UMOUSE@@A+44
  017d3	83 e0 01	 and	 eax, 1
  017d6	74 25		 je	 SHORT $LN121@drawField

; 3570 : 					lssproto_Partyauto_send(sockfd);

  017d8	a1 00 00 00 00	 mov	 eax, DWORD PTR ?sockfd@@3IA ; sockfd
  017dd	50		 push	 eax
  017de	e8 00 00 00 00	 call	 ?lssproto_Partyauto_send@@YAXH@Z ; lssproto_Partyauto_send
  017e3	83 c4 04	 add	 esp, 4

; 3571 : 					play_se(217, 320, 240);

  017e6	68 f0 00 00 00	 push	 240			; 000000f0H
  017eb	68 40 01 00 00	 push	 320			; 00000140H
  017f0	68 d9 00 00 00	 push	 217			; 000000d9H
  017f5	e8 00 00 00 00	 call	 ?play_se@@YAHHHH@Z	; play_se
  017fa	83 c4 0c	 add	 esp, 12			; 0000000cH
$LN121@drawField:

; 3572 : 				}
; 3573 : 			}
; 3574 : 			椤堕ㄦ版绱㈠[5] = StockDispBuffer(leftUpPanelX + 340, leftUpPanelY + 20, DISP_PRIO_IME3, 56040, 2);

  017fd	6a 02		 push	 2
  017ff	68 e8 da 00 00	 push	 56040			; 0000dae8H
  01804	6a 69		 push	 105			; 00000069H
  01806	8b 45 ec	 mov	 eax, DWORD PTR _leftUpPanelY$[ebp]
  01809	83 c0 14	 add	 eax, 20			; 00000014H
  0180c	50		 push	 eax
  0180d	8b 4d f8	 mov	 ecx, DWORD PTR _leftUpPanelX$[ebp]
  01810	81 c1 54 01 00
	00		 add	 ecx, 340		; 00000154H
  01816	51		 push	 ecx
  01817	e8 00 00 00 00	 call	 ?StockDispBuffer@@YAHHHEHH@Z ; StockDispBuffer
  0181c	83 c4 14	 add	 esp, 20			; 00000014H
  0181f	ba 04 00 00 00	 mov	 edx, 4
  01824	6b ca 05	 imul	 ecx, edx, 5
  01827	89 81 00 00 00
	00		 mov	 DWORD PTR ?顶部新按钮索引@@3PAHA[ecx], eax

; 3575 : 			if (HitDispNo == 椤堕ㄦ版绱㈠[5]) {

  0182d	b8 04 00 00 00	 mov	 eax, 4
  01832	6b c8 05	 imul	 ecx, eax, 5
  01835	8b 15 00 00 00
	00		 mov	 edx, DWORD PTR ?HitDispNo@@3HA ; HitDispNo
  0183b	3b 91 00 00 00
	00		 cmp	 edx, DWORD PTR ?顶部新按钮索引@@3PAHA[ecx]
  01841	75 3e		 jne	 SHORT $LN123@drawField

; 3576 : 				ShowBottomLineString(0, "瓴巾旃 甑 ╉瓯半 ╈ 膦耄╇.");

  01843	68 00 00 00 00	 push	 OFFSET ??_C@_0CM@DKAKKPJM@?$LA?f?G?h?D?$KB?5?$LB?$LI?$LN?$LN?$MA?$LL?5?$LL?g?$LP?k?G?O?$LA?E?$LD?$KK?5?$LL?g?$LP?k?$MA?$LL?5@
  01848	6a 00		 push	 0
  0184a	e8 00 00 00 00	 call	 ?ShowBottomLineString@@YAXHPAD@Z ; ShowBottomLineString
  0184f	83 c4 08	 add	 esp, 8

; 3577 : 				if (mouse.onceState & MOUSE_LEFT_CRICK) {

  01852	a1 2c 00 00 00	 mov	 eax, DWORD PTR ?mouse@@3UMOUSE@@A+44
  01857	83 e0 01	 and	 eax, 1
  0185a	74 25		 je	 SHORT $LN123@drawField

; 3578 : 					lssproto_Expup_send(sockfd);

  0185c	a1 00 00 00 00	 mov	 eax, DWORD PTR ?sockfd@@3IA ; sockfd
  01861	50		 push	 eax
  01862	e8 00 00 00 00	 call	 ?lssproto_Expup_send@@YAXH@Z ; lssproto_Expup_send
  01867	83 c4 04	 add	 esp, 4

; 3579 : 					play_se(217, 320, 240);

  0186a	68 f0 00 00 00	 push	 240			; 000000f0H
  0186f	68 40 01 00 00	 push	 320			; 00000140H
  01874	68 d9 00 00 00	 push	 217			; 000000d9H
  01879	e8 00 00 00 00	 call	 ?play_se@@YAHHHH@Z	; play_se
  0187e	83 c4 0c	 add	 esp, 12			; 0000000cH
$LN123@drawField:

; 3580 : 				}
; 3581 : 			}
; 3582 : 			椤堕ㄦ版绱㈠[6] = StockDispBuffer(leftUpPanelX + 450, leftUpPanelY + 20, DISP_PRIO_IME3, 56039, 2);

  01881	6a 02		 push	 2
  01883	68 e7 da 00 00	 push	 56039			; 0000dae7H
  01888	6a 69		 push	 105			; 00000069H
  0188a	8b 45 ec	 mov	 eax, DWORD PTR _leftUpPanelY$[ebp]
  0188d	83 c0 14	 add	 eax, 20			; 00000014H
  01890	50		 push	 eax
  01891	8b 4d f8	 mov	 ecx, DWORD PTR _leftUpPanelX$[ebp]
  01894	81 c1 c2 01 00
	00		 add	 ecx, 450		; 000001c2H
  0189a	51		 push	 ecx
  0189b	e8 00 00 00 00	 call	 ?StockDispBuffer@@YAHHHEHH@Z ; StockDispBuffer
  018a0	83 c4 14	 add	 esp, 20			; 00000014H
  018a3	ba 04 00 00 00	 mov	 edx, 4
  018a8	6b ca 06	 imul	 ecx, edx, 6
  018ab	89 81 00 00 00
	00		 mov	 DWORD PTR ?顶部新按钮索引@@3PAHA[ecx], eax

; 3583 : 			if (HitDispNo == 椤堕ㄦ版绱㈠[6]) {

  018b1	b8 04 00 00 00	 mov	 eax, 4
  018b6	6b c8 06	 imul	 ecx, eax, 6
  018b9	8b 15 00 00 00
	00		 mov	 edx, DWORD PTR ?HitDispNo@@3HA ; HitDispNo
  018bf	3b 91 00 00 00
	00		 cmp	 edx, DWORD PTR ?顶部新按钮索引@@3PAHA[ecx]
  018c5	75 3e		 jne	 SHORT $LN125@drawField

; 3584 : 				ShowBottomLineString(0, "氩届箔 甑 ╉瓯半 ╈ 膦耄╇.");

  018c7	68 00 00 00 00	 push	 OFFSET ??_C@_0CM@JBJJKLPF@?$LK?$KO?C?$LL?$MA?G?5?$LB?$LI?$LN?$LN?$MA?$LL?5?$LL?g?$LP?k?G?O?$LA?E?$LD?$KK?5?$LL?g?$LP?k?$MA?$LL?5@
  018cc	6a 00		 push	 0
  018ce	e8 00 00 00 00	 call	 ?ShowBottomLineString@@YAXHPAD@Z ; ShowBottomLineString
  018d3	83 c4 08	 add	 esp, 8

; 3585 : 				if (mouse.onceState & MOUSE_LEFT_CRICK) {

  018d6	a1 2c 00 00 00	 mov	 eax, DWORD PTR ?mouse@@3UMOUSE@@A+44
  018db	83 e0 01	 and	 eax, 1
  018de	74 25		 je	 SHORT $LN125@drawField

; 3586 : 					lssproto_Noenemy_send(sockfd);

  018e0	a1 00 00 00 00	 mov	 eax, DWORD PTR ?sockfd@@3IA ; sockfd
  018e5	50		 push	 eax
  018e6	e8 00 00 00 00	 call	 ?lssproto_Noenemy_send@@YAXH@Z ; lssproto_Noenemy_send
  018eb	83 c4 04	 add	 esp, 4

; 3587 : 					play_se(217, 320, 240);

  018ee	68 f0 00 00 00	 push	 240			; 000000f0H
  018f3	68 40 01 00 00	 push	 320			; 00000140H
  018f8	68 d9 00 00 00	 push	 217			; 000000d9H
  018fd	e8 00 00 00 00	 call	 ?play_se@@YAHHHH@Z	; play_se
  01902	83 c4 0c	 add	 esp, 12			; 0000000cH
$LN125@drawField:

; 3588 : 				}
; 3589 : 			}
; 3590 : 			
; 3591 : 			/*椤堕ㄦ版绱㈠[4] = StockDispBuffer(leftUpPanelX+340, leftUpPanelY+20, DISP_PRIO_IME3, IMAGE_淇＄, 2);//板
; 3592 : 			if( HitDispNo == 椤堕ㄦ版绱㈠[4]){
; 3593 : 				ShowBottomLineString(11, "绊搞");
; 3594 : 				if( mouse.onceState & MOUSE_LEFT_CRICK ){
; 3595 : 					lssproto_SaMenu_send(sockfd,3, 5, 0);
; 3596 : 					play_se(217, 320, 240);
; 3597 : 				}
; 3598 : 			}*/
; 3599 : #ifdef _NB_绾㈠绯荤
; 3600 : 			/*椤堕ㄦ版绱㈠[5] = StockDispBuffer(leftUpPanelX+380, leftUpPanelY+20, DISP_PRIO_IME3, IMAGE_绾㈠, 2);//绾㈠
; 3601 : 			if( HitDispNo == 椤堕ㄦ版绱㈠[5]){
; 3602 : 				ShowBottomLineString(11, "牍臧氪");
; 3603 : 				if( mouse.onceState & MOUSE_LEFT_CRICK ){
; 3604 : 					lssproto_SaMenu_send(sockfd,3, 6, 0);
; 3605 : 					play_se(217, 320, 240);
; 3606 : 				}
; 3607 : 			}*/
; 3608 : #endif
; 3609 : 	/*	}else{
; 3610 : 			extern int 舵剧ず寮;
; 3611 : 			if (舵剧ず寮){
; 3612 : 				sprintf( moji,"[旌毽]%-s Lv:%d",pc.name, pc.level);
; 3613 : 				StockFontBuffer( leftUpPanelX + 6, leftUpPanelY +60, FONT_PRIO_FRONT, 1, moji, 0 );//扮绾
; 3614 : 
; 3615 : 				int 琛惧姣 = (int)float(pc.hp)/float(pc.maxHp)*100;
; 3616 : 				sprintf( moji,"HP:%d/%d(%d%%)",pc.hp,pc.maxHp,琛惧姣);
; 3617 : 				StockFontBuffer( leftUpPanelX + 6, leftUpPanelY + 76, FONT_PRIO_FRONT, 4, moji, 0 );
; 3618 : 				//StockBoxDispBuffer( leftUpPanelX + 114, leftUpPanelY+27,leftUpPanelX+114 + 琛惧姣, leftUpPanelY + 27 + 12, DISP_PRIO_IME3, SYSTEM_PAL_RED, 1 );
; 3619 : 		
; 3620 : 				int 姘惧姣 = (int)float(pc.mp)/float(pc.maxMp)*100;
; 3621 : 				sprintf( moji,"MP:%d/%d(%d%%)",pc.mp,pc.maxMp,姘惧姣);
; 3622 : 				StockFontBuffer( leftUpPanelX + 6, leftUpPanelY + 92, FONT_PRIO_FRONT, 4, moji, 0 );
; 3623 : 				//StockBoxDispBuffer( leftUpPanelX + 114, leftUpPanelY+45,leftUpPanelX+114 + 姘惧姣, leftUpPanelY + 45 + 12, DISP_PRIO_IME3, SYSTEM_PAL_AQUA, 1 );
; 3624 : 				
; 3625 : 				int 缁楠惧姣 = (int)float(pc.exp)/float(pc.maxExp)*100;
; 3626 : 				if (pc.maxExp == -1){
; 3627 : 					sprintf( moji,"Exp:Max");
; 3628 : 				}else{
; 3629 : 					sprintf( moji,"Exp:%d%%", 缁楠惧姣);
; 3630 : 				}
; 3631 : 				
; 3632 : 				StockFontBuffer( leftUpPanelX + 6, leftUpPanelY + 108, FONT_PRIO_FRONT, 4, moji, 0 );
; 3633 : 				//StockBoxDispBuffer( leftUpPanelX + 114, leftUpPanelY+63,leftUpPanelX+114 + 缁楠惧姣, leftUpPanelY + 63 + 12, DISP_PRIO_IME3, SYSTEM_PAL_YELLOW, 1 );
; 3634 : 		
; 3635 : 				if (pc.battlePetNo >= 0){
; 3636 : 					sprintf( moji,"[]%s Lv:%d",pet[pc.battlePetNo].name,pet[pc.battlePetNo].level);//版瀹瀛
; 3637 : 					StockFontBuffer( leftUpPanelX+6, leftUpPanelY + 124, FONT_PRIO_FRONT, 1, moji, 0 );
; 3638 : 			
; 3639 : 					int 涓存剁惧姣 = (int)float(pet[pc.battlePetNo].hp)/float(pet[pc.battlePetNo].maxHp)*100;
; 3640 : 					sprintf( moji,"HP:%d%/%d(%d%%)", pet[pc.battlePetNo].hp,pet[pc.battlePetNo].maxHp,涓存剁惧姣);
; 3641 : 					StockFontBuffer( leftUpPanelX+6, leftUpPanelY + 140, FONT_PRIO_FRONT, 4, moji, 0 );
; 3642 : 					if (pet[pc.battlePetNo].maxExp == -1){
; 3643 : 						sprintf( moji,"Exp:Max");
; 3644 : 					}else{
; 3645 : 						涓存剁惧姣 = (int)float(pet[pc.battlePetNo].exp)/float(pet[pc.battlePetNo].maxExp)*100;
; 3646 : 						sprintf( moji,"Exp:%d%%", 涓存剁惧姣);
; 3647 : 					}
; 3648 : 					StockFontBuffer( leftUpPanelX+6, leftUpPanelY + 156, FONT_PRIO_FRONT, 4, moji, 0 );
; 3649 : 				}
; 3650 : 				//伴瀹淇℃
; 3651 : 				if (pc.ridePetNo >= 0){
; 3652 : 					sprintf( moji,"[]%s Lv:%d",pet[pc.ridePetNo].name,pet[pc.ridePetNo].level);
; 3653 : 					StockFontBuffer( leftUpPanelX+6, leftUpPanelY + 172, FONT_PRIO_FRONT, 1, moji, 0 );
; 3654 : 			
; 3655 : 					int 涓存剁惧姣 = (int)float(pet[pc.ridePetNo].hp)/float(pet[pc.ridePetNo].maxHp)*100;
; 3656 : 					sprintf( moji,"HP:%d%/%d(%d%%)", pet[pc.ridePetNo].hp,pet[pc.ridePetNo].maxHp,涓存剁惧姣);
; 3657 : 					StockFontBuffer( leftUpPanelX+6, leftUpPanelY + 188, FONT_PRIO_FRONT, 4, moji, 0 );
; 3658 : 					
; 3659 : 					if (pet[pc.ridePetNo].maxExp == -1){
; 3660 : 						sprintf( moji,"Exp:Max");
; 3661 : 					}else{
; 3662 : 						涓存剁惧姣 = (int)float(pet[pc.ridePetNo].exp)/float(pet[pc.ridePetNo].maxExp)*100;
; 3663 : 						sprintf( moji,"Exp:%d%%", 涓存剁惧姣);
; 3664 : 					}
; 3665 : 					StockFontBuffer( leftUpPanelX+6, leftUpPanelY + 204, FONT_PRIO_FRONT, 4, moji, 0 );
; 3666 : 				}
; 3667 : 			}
; 3668 : 
; 3669 : 
; 3670 : 		}*/
; 3671 : 
; 3672 : 		//るジ飒届 旮半ル
; 3673 : 		if (ResoMode == 杈ㄧ::mode800){

  01905	83 3d 00 00 00
	00 03		 cmp	 DWORD PTR ?ResoMode@@3HA, 3 ; ResoMode
  0190c	75 16		 jne	 SHORT $LN126@drawField

; 3674 : 			涓存跺炬X = 784;

  0190e	c7 85 68 ff ff
	ff 10 03 00 00	 mov	 DWORD PTR _临时图标X$[ebp], 784 ; 00000310H

; 3675 : 			涓存跺炬Y = 60;

  01918	c7 85 5c ff ff
	ff 3c 00 00 00	 mov	 DWORD PTR _临时图标Y$[ebp], 60 ; 0000003cH
  01922	eb 33		 jmp	 SHORT $LN129@drawField
$LN126@drawField:

; 3676 : 		}else if (ResoMode == 杈ㄧ::mode1024){

  01924	83 3d 00 00 00
	00 04		 cmp	 DWORD PTR ?ResoMode@@3HA, 4 ; ResoMode
  0192b	75 16		 jne	 SHORT $LN128@drawField

; 3677 : 			涓存跺炬X = 1008;

  0192d	c7 85 68 ff ff
	ff f0 03 00 00	 mov	 DWORD PTR _临时图标X$[ebp], 1008 ; 000003f0H

; 3678 : 			涓存跺炬Y = 60;

  01937	c7 85 5c ff ff
	ff 3c 00 00 00	 mov	 DWORD PTR _临时图标Y$[ebp], 60 ; 0000003cH

; 3679 : 		}else{

  01941	eb 14		 jmp	 SHORT $LN129@drawField
$LN128@drawField:

; 3680 : 			涓存跺炬X = 624;

  01943	c7 85 68 ff ff
	ff 70 02 00 00	 mov	 DWORD PTR _临时图标X$[ebp], 624 ; 00000270H

; 3681 : 			涓存跺炬Y = 60;

  0194d	c7 85 5c ff ff
	ff 3c 00 00 00	 mov	 DWORD PTR _临时图标Y$[ebp], 60 ; 0000003cH
$LN129@drawField:

; 3682 : 		}
; 3683 : 		//剧ずPING
; 3684 : 		char tmp[64];
; 3685 : 		/*
; 3686 : 		if( dwPingState & 0x80000000){
; 3687 : 			wsprintf( tmp, "PING:%d", dwPingTime);
; 3688 : 			dwPingState++;
; 3689 : 			if( (dwPingState&0xff) > 40)
; 3690 : 				dwPingState = 0;
; 3691 : 		}else{
; 3692 : 			wsprintf( tmp, "PING:%d", dwPingTime);
; 3693 : 		}
; 3694 : 		if (dwPingTime > 125){
; 3695 : 			StockFontBuffer( 涓存跺炬X-100, 涓存跺炬Y -58, FONT_PRIO_FRONT, 4, tmp, 0 );
; 3696 : 		}else if (dwPingTime > 180){
; 3697 : 			StockFontBuffer( 涓存跺炬X-100, 涓存跺炬Y -58, FONT_PRIO_FRONT, 6, tmp, 0 );
; 3698 : 		}else{
; 3699 : 			StockFontBuffer( 涓存跺炬X-100, 涓存跺炬Y -58, FONT_PRIO_FRONT, 5, tmp, 0 );
; 3700 : 		}*/
; 3701 : 		//,nowGx,nowGy
; 3702 : 		//wsprintf( tmp, ":%d", nowGx);
; 3703 : 		//StockFontBuffer(涓存跺炬X-95, 涓存跺炬Y-54, FONT_PRIO_FRONT, 1, tmp, 0);
; 3704 : 		//wsprintf( tmp, ":%d", nowGy);
; 3705 : 		//StockFontBuffer(涓存跺炬X-95, 涓存跺炬Y-40, FONT_PRIO_FRONT, 1, tmp, 0);
; 3706 : 		//wsprintf(tmp, "Time:%d", SaTime.hour * 24 / 1200);
; 3707 : 		//StockFontBuffer( 涓存跺炬X-100, 涓存跺炬Y -40, FONT_PRIO_FRONT, 4, tmp, 0 );
; 3708 : 
; 3709 : 
; 3710 : 		//臧旮
; 3711 : 		//StockDispBuffer(涓存跺炬X-54, 涓存跺炬Y-38, DISP_PRIO_MENU, 52108, 0);
; 3712 : 		//if (drawTimeAnimeFlag){歆甏瓿挫臧]
; 3713 : 			//StockDispBuffer(rightUpPanelX + 106 - amPmAnimeX, rightUpPanelY + 20, DISP_PRIO_MENU, amPmAnimeGraNo[amPmAnimeGraNoIndex0], 0);
; 3714 : 			//StockDispBuffer(rightUpPanelX + 106 + 64 - amPmAnimeX, rightUpPanelY + 20, DISP_PRIO_MENU, amPmAnimeGraNo[amPmAnimeGraNoIndex1], 0);
; 3715 : 		
; 3716 : 		//}else{
; 3717 : 			//StockDispBuffer(rightUpPanelX + 68, rightUpPanelY + 31, DISP_PRIO_MENU, CG_FIELD_MENU_RIGHT_BACK, 0);
; 3718 : 		//}
; 3719 : 
; 3720 : #else
; 3721 : #ifdef __PHONEMESSAGE
; 3722 : // LeiBoy 2002 Jan.26 --- Cell Phone's Messages Button -- BEGIN
; 3723 : 	#ifdef _TABLEOFSKILL
; 3724 : 		#ifdef _ANGEL_SUMMON
; 3725 : 			#ifdef _TEACHER_SYSTEM
; 3726 : 				StockDispBuffer(leftUpPanelX + 148, leftUpPanelY + 25, DISP_PRIO_MENU, CG_FIELD_TS_LEFT_MENU, 0);
; 3727 : 			#else
; 3728 : 				StockDispBuffer(leftUpPanelX + 150, leftUpPanelY + 27, DISP_PRIO_MENU, CG_FIELD_MENU_LEFT_75, 0);
; 3729 : 			#endif
; 3730 : 			if (angelLampDrawFlag)
; 3731 : 				StockDispBuffer(leftUpPanelX + 64, leftUpPanelY + 42, DISP_PRIO_IME3, CG_FIELD_ANGEL_LAMP, 0);
; 3732 : 		#else
; 3733 : 			#ifdef _FRIENDCHANNEL
; 3734 : 				StockDispBuffer(leftUpPanelX + 141, leftUpPanelY + 27, DISP_PRIO_MENU, CG_FIELD_CHANNEL_MENU, 0);
; 3735 : 			#else
; 3736 : 				StockDispBuffer(leftUpPanelX + 141, leftUpPanelY + 27, DISP_PRIO_MENU, CG_FIELD_SKILL_MENU, 0);
; 3737 : 			#endif
; 3738 : 		#endif
; 3739 : 	#else
; 3740 : 		StockDispBuffer(leftUpPanelX + 100, leftUpPanelY + 26, DISP_PRIO_MENU, CG_FIELD_MENU_LEFT, 0);
; 3741 : 	#endif
; 3742 : // LeiBoy 2002 Jan.26 --- Cell Phone's Messages Button -- END
; 3743 : #else
; 3744 : 
; 3745 : //#ifdef __FAMILY_UI_
; 3746 : 		if (bNewServer)
; 3747 : 			StockDispBuffer(leftUpPanelX + 140, leftUpPanelY + 27, DISP_PRIO_MENU, CG_FIELD_MENU_LEFT_NEW, 0);
; 3748 : 		else
; 3749 : //#else
; 3750 : 			StockDispBuffer(leftUpPanelX + 26 + 52, leftUpPanelY + 28, DISP_PRIO_MENU, CG_FIELD_MENU_LEFT, 0);
; 3751 : //#endif
; 3752 : #endif
; 3753 : 
; 3754 : 
; 3755 : 		// 瓴れ氩
; 3756 : 		fieldBtnHitId[FIELD_FUNC_MENU] = StockDispBuffer(leftUpPanelX + 52, leftUpPanelY + 25, DISP_PRIO_IME3, menuBtnGraNo[menuBtn], 2);
; 3757 : 		if (menuBtnFocus)
; 3758 : 			ShowBottomLineString(FONT_PAL_WHITE, "瓴れ");
; 3759 : 		// 氇甑氩
; 3760 : 		fieldBtnHitId[FIELD_FUNC_CARD] = StockDispBuffer(leftUpPanelX + 52, leftUpPanelY + 25, DISP_PRIO_IME3, cardBtnGraNo[cardBtn], 2);
; 3761 : 		if (cardBtnFocus)
; 3762 : 			ShowBottomLineString(FONT_PAL_WHITE, "氇甑");
; 3763 : 
; 3764 : 		// 办案氩
; 3765 : 		fieldBtnHitId[FIELD_FUNC_PARTY] = StockDispBuffer(leftUpPanelX + 52, leftUpPanelY + 25, DISP_PRIO_IME3, partyBtnGraNo[partyBtn], 2);
; 3766 : 		if (partyBtnFocus){
; 3767 : 			if (partyBtnEnableFlag == 0)
; 3768 : 				ShowBottomLineString(FONT_PAL_WHITE, "绊╇攵臧");
; 3769 : 			else
; 3770 : 				ShowBottomLineString(FONT_PAL_WHITE, "绊╇");
; 3771 : 		}
; 3772 : 		// 瓯半旮半
; 3773 : 		fieldBtnHitId[FIELD_FUNC_TRADE] = StockDispBuffer(leftUpPanelX + 104 + 10, leftUpPanelY + 25 - 10, DISP_PRIO_IME3, tradeBtnGraNo[tradeBtn], 2);
; 3774 : 		if (tradeBtnFocus)
; 3775 : 			ShowBottomLineString(FONT_PAL_WHITE, "瓯半");
; 3776 : 		
; 3777 : 		// 臧臁标赴ル
; 3778 : 		if (bNewServer){
; 3779 : #ifndef _CHANNEL_MODIFY
; 3780 : 			if (pc.channel != -1)
; 3781 : 				channelBtn = 1;
; 3782 : 			else
; 3783 : 				channelBtn = 0;
; 3784 : #else
; 3785 : 			if (pc.channel == 5)
; 3786 : 				channelBtn = 1;
; 3787 : 			else
; 3788 : 				channelBtn = 0;
; 3789 : #endif
; 3790 : 			fieldBtnHitId[FIELD_FUNC_CHANNEL] = StockDispBuffer(leftUpPanelX + 115, leftUpPanelY + 25, DISP_PRIO_IME3, channelBtnGraNo[channelBtn], 2);
; 3791 : 			if (channelBtnFocus)
; 3792 : 				ShowBottomLineString(FONT_PAL_WHITE, "臧臁标赴ャ");
; 3793 : 		}
; 3794 : 		
; 3795 : 
; 3796 : #ifdef _STREET_VENDOR
; 3797 : 		// ろ旮半ル
; 3798 : 		fieldBtnHitId[FIELD_FUNC_STREET_VENDOR] = StockDispBuffer(leftUpPanelX + 176, leftUpPanelY + 16, DISP_PRIO_IME3, sStreetVendorBtnGraNo[pc.iOnStreetVendor], 2);
; 3799 : 		if (sStreetVendorBtnFocus)
; 3800 : 			ShowBottomLineString(FONT_PAL_WHITE, "胳旮半ャ");
; 3801 : #else
; 3802 : 	#ifdef _TABLEOFSKILL
; 3803 : 		fieldBtnHitId[FIELD_FUNC_SKILL] = StockDispBuffer(leftUpPanelX + 108, leftUpPanelY + 26, DISP_PRIO_IME3, skillBtnGraNo[skillBtn], 2);
; 3804 : 		if (skillBtnFocus)
; 3805 : 			ShowBottomLineString(FONT_PAL_WHITE, "歆旮半ャ");
; 3806 : 	#endif
; 3807 : #endif
; 3808 : #ifdef __PHONEMESSAGE
; 3809 : // LeiBoy 2002 Jan.26 --- Cell Phone's Messages Button -- BEGIN
; 3810 : #ifdef _TABLEOFSKILL
; 3811 : 		fieldBtnHitId[FIELD_FUNC_MSG] = StockDispBuffer(leftUpPanelX + 132, leftUpPanelY + 28, DISP_PRIO_IME3, msgBtnGraNo[msgBtn], 2);
; 3812 : #else
; 3813 : 		fieldBtnHitId[FIELD_FUNC_MSG] = StockDispBuffer(leftUpPanelX + 101, leftUpPanelY + 28, DISP_PRIO_IME3, msgBtnGraNo[msgBtn], 2);
; 3814 : #endif
; 3815 : #endif
; 3816 : 
; 3817 : 		if (mailLampDrawFlag)
; 3818 : 			StockDispBuffer(leftUpPanelX + 52, leftUpPanelY + 26, DISP_PRIO_IME3, CG_FIELD_MAIL_LAMP, 0);
; 3819 : 
; 3820 : 		StockDispBuffer(rightUpPanelX + 24, rightUpPanelY + 30, DISP_PRIO_MENU, CG_FIELD_MENU_RIGHT, 0);
; 3821 : 		fieldBtnHitId[FIELD_FUNC_JOIN_BATTLE] = StockDispBuffer(rightUpPanelX + 38, rightUpPanelY + 30, DISP_PRIO_IME3, joinBattleBtnGraNo[joinBattleBtn], 2);
; 3822 : 		if (joinBattleBtnFocus){
; 3823 : 			if (joinBattleHelpMsgFlag == 1)
; 3824 : 				ShowBottomLineString(FONT_PAL_WHITE, "彀胳");
; 3825 : 			else if (joinBattleHelpMsgFlag == 2)
; 3826 : 				ShowBottomLineString(FONT_PAL_WHITE, "彀胳攵臧");
; 3827 : 			else
; 3828 : 				ShowBottomLineString(FONT_PAL_WHITE,"甏");
; 3829 : 		}
; 3830 : 
; 3831 : 		fieldBtnHitId[FIELD_FUNC_DUEL] = StockDispBuffer(rightUpPanelX + 38, rightUpPanelY + 30, DISP_PRIO_IME3, duelBtnGraNo[duelBtn], 2);
; 3832 : 		if (duelBtnFocus)
; 3833 : 			ShowBottomLineString(FONT_PAL_WHITE, "检觳");
; 3834 : 
; 3835 : 		fieldBtnHitId[FIELD_FUNC_HELP] = StockDispBuffer(rightUpPanelX + 115, rightUpPanelY + 31, DISP_PRIO_IME3, helpBtnGraNo[helpBtn], 2);
; 3836 : 		if (helpBtnFocus)
; 3837 : 			ShowBottomLineString(FONT_PAL_WHITE, "瓴臧措");
; 3838 : 		
; 3839 : 		fieldBtnHitId[FIELD_FUNC_ACT] = StockDispBuffer(rightUpPanelX + 68, rightUpPanelY + 30, DISP_PRIO_IME3, actBtnGraNo[actBtn], 2);
; 3840 : 		if (actBtnForcus)
; 3841 : 			ShowBottomLineString(FONT_PAL_WHITE, "旌毽办§");
; 3842 : 
; 3843 : 		if (drawTimeAnimeFlag){
; 3844 : 			StockDispBuffer(rightUpPanelX + 106 - amPmAnimeX, rightUpPanelY + 19, DISP_PRIO_MENU, amPmAnimeGraNo[amPmAnimeGraNoIndex0], 0);
; 3845 : 			StockDispBuffer(rightUpPanelX + 106 + 64 - amPmAnimeX, rightUpPanelY + 19, DISP_PRIO_MENU, amPmAnimeGraNo[amPmAnimeGraNoIndex1], 0);
; 3846 : 		}
; 3847 : 		else
; 3848 : 			// ??????割?????????????????????
; 3849 : 			StockDispBuffer(rightUpPanelX + 68, rightUpPanelY + 30, DISP_PRIO_MENU, CG_FIELD_MENU_RIGHT_BACK, 0);
; 3850 : 
; 3851 : #ifdef _ANGEL_SUMMON
; 3852 : 		/*
; 3853 : 		fieldBtnHitId[FIELD_FUNC_ANGEL] = StockDispBuffer(leftUpPanelX + 207, leftUpPanelY + 19, DISP_PRIO_IME3, angelBtnGraNo[angelBtn], 2);
; 3854 : 		if (angelBtnFocus)
; 3855 : 			ShowBottomLineString(FONT_PAL_WHITE, "绮剧电ゃ");
; 3856 : 		*/
; 3857 : #endif
; 3858 : #ifdef _TEACHER_SYSTEM//涓235
; 3859 : 		/*
; 3860 : 		fieldBtnHitId[FIELD_FUNC_TEACHER] = StockDispBuffer(leftUpPanelX + 238, leftUpPanelY + 20, DISP_PRIO_IME3, iTeacherSystemBtnGraNo[sTeacherSystemBtn > 0 ? 1:0], 2);
; 3861 : 		if (sTeacherSystemBtnFocus)
; 3862 : 			ShowBottomLineString(FONT_PAL_WHITE, "瀵煎绯荤");
; 3863 : 		*/
; 3864 : #endif
; 3865 : 
; 3866 : 
; 3867 : #endif
; 3868 : 	}else{

  01957	eb 28		 jmp	 SHORT $LN21@drawField
$LN98@drawField:

; 3869 : 		for (i = 0; i < FIELD_FUNC_END; i++)

  01959	c7 45 c8 00 00
	00 00		 mov	 DWORD PTR _i$[ebp], 0
  01960	eb 09		 jmp	 SHORT $LN22@drawField
$LN20@drawField:
  01962	8b 45 c8	 mov	 eax, DWORD PTR _i$[ebp]
  01965	83 c0 01	 add	 eax, 1
  01968	89 45 c8	 mov	 DWORD PTR _i$[ebp], eax
$LN22@drawField:
  0196b	83 7d c8 0d	 cmp	 DWORD PTR _i$[ebp], 13	; 0000000dH
  0196f	7d 10		 jge	 SHORT $LN21@drawField

; 3870 : 			fieldBtnHitId[i] = -2;

  01971	8b 45 c8	 mov	 eax, DWORD PTR _i$[ebp]
  01974	c7 04 85 00 00
	00 00 fe ff ff
	ff		 mov	 DWORD PTR ?fieldBtnHitId@@3PAHA[eax*4], -2 ; fffffffeH
  0197f	eb e1		 jmp	 SHORT $LN20@drawField
$LN21@drawField:
$LN1@drawField:

; 3871 : 	}
; 3872 : 
; 3873 : }

  01981	52		 push	 edx
  01982	8b cd		 mov	 ecx, ebp
  01984	50		 push	 eax
  01985	8d 15 00 00 00
	00		 lea	 edx, DWORD PTR $LN138@drawField
  0198b	e8 00 00 00 00	 call	 @_RTC_CheckStackVars@8
  01990	58		 pop	 eax
  01991	5a		 pop	 edx
  01992	5f		 pop	 edi
  01993	5e		 pop	 esi
  01994	5b		 pop	 ebx
  01995	81 c4 a0 03 00
	00		 add	 esp, 928		; 000003a0H
  0199b	3b ec		 cmp	 ebp, esp
  0199d	e8 00 00 00 00	 call	 __RTC_CheckEsp
  019a2	8b e5		 mov	 esp, ebp
  019a4	5d		 pop	 ebp
  019a5	c3		 ret	 0
  019a6	66 90		 npad	 2
$LN138@drawField:
  019a8	04 00 00 00	 DD	 4
  019ac	00 00 00 00	 DD	 $LN137@drawField
$LN137@drawField:
  019b0	d4 fe ff ff	 DD	 -300			; fffffed4H
  019b4	80 00 00 00	 DD	 128			; 00000080H
  019b8	00 00 00 00	 DD	 $LN133@drawField
  019bc	4c fe ff ff	 DD	 -436			; fffffe4cH
  019c0	80 00 00 00	 DD	 128			; 00000080H
  019c4	00 00 00 00	 DD	 $LN134@drawField
  019c8	04 fe ff ff	 DD	 -508			; fffffe04H
  019cc	40 00 00 00	 DD	 64			; 00000040H
  019d0	00 00 00 00	 DD	 $LN135@drawField
  019d4	f8 fd ff ff	 DD	 -520			; fffffdf8H
  019d8	04 00 00 00	 DD	 4
  019dc	00 00 00 00	 DD	 $LN136@drawField
$LN136@drawField:
  019e0	5f		 DB	 95			; 0000005fH
  019e1	24		 DB	 36			; 00000024H
  019e2	41		 DB	 65			; 00000041H
  019e3	72		 DB	 114			; 00000072H
  019e4	72		 DB	 114			; 00000072H
  019e5	61		 DB	 97			; 00000061H
  019e6	79		 DB	 121			; 00000079H
  019e7	50		 DB	 80			; 00000050H
  019e8	61		 DB	 97			; 00000061H
  019e9	64		 DB	 100			; 00000064H
  019ea	00		 DB	 0
$LN135@drawField:
  019eb	74		 DB	 116			; 00000074H
  019ec	6d		 DB	 109			; 0000006dH
  019ed	70		 DB	 112			; 00000070H
  019ee	00		 DB	 0
$LN134@drawField:
  019ef	e9		 DB	 -23			; ffffffe9H
  019f0	a1		 DB	 -95			; ffffffa1H
  019f1	b6		 DB	 -74			; ffffffb6H
  019f2	e9		 DB	 -23			; ffffffe9H
  019f3	83		 DB	 -125			; ffffff83H
  019f4	a8		 DB	 -88			; ffffffa8H
  019f5	e4		 DB	 -28			; ffffffe4H
  019f6	bf		 DB	 -65			; ffffffbfH
  019f7	a1		 DB	 -95			; ffffffa1H
  019f8	e6		 DB	 -26			; ffffffe6H
  019f9	81		 DB	 -127			; ffffff81H
  019fa	af		 DB	 -81			; ffffffafH
  019fb	e6		 DB	 -26			; ffffffe6H
  019fc	8f		 DB	 -113			; ffffff8fH
  019fd	90		 DB	 -112			; ffffff90H
  019fe	e7		 DB	 -25			; ffffffe7H
  019ff	a4		 DB	 -92			; ffffffa4H
  01a00	ba		 DB	 -70			; ffffffbaH
  01a01	00		 DB	 0
$LN133@drawField:
  01a02	6d		 DB	 109			; 0000006dH
  01a03	6f		 DB	 111			; 0000006fH
  01a04	6a		 DB	 106			; 0000006aH
  01a05	69		 DB	 105			; 00000069H
  01a06	00		 DB	 0
?drawField@@YAXXZ ENDP					; drawField
_TEXT	ENDS
; Function compile flags: /Odtp /RTCsu /ZI
; File c:\users\administrator\desktop\????? ??\????? ??\client source code\system\field.cpp
;	COMDAT ?fieldProc2@@YAXXZ
_TEXT	SEGMENT
?fieldProc2@@YAXXZ PROC					; fieldProc2, COMDAT

; 2978 : void fieldProc2(void){

  00000	55		 push	 ebp
  00001	8b ec		 mov	 ebp, esp
  00003	81 ec c0 00 00
	00		 sub	 esp, 192		; 000000c0H
  00009	53		 push	 ebx
  0000a	56		 push	 esi
  0000b	57		 push	 edi
  0000c	8d bd 40 ff ff
	ff		 lea	 edi, DWORD PTR [ebp-192]
  00012	b9 30 00 00 00	 mov	 ecx, 48			; 00000030H
  00017	b8 cc cc cc cc	 mov	 eax, -858993460		; ccccccccH
  0001c	f3 ab		 rep stosd

; 2979 : 	if ((joy_trg[1] & JOY_CTRL_Q)){

  0001e	b8 04 00 00 00	 mov	 eax, 4
  00023	c1 e0 00	 shl	 eax, 0
  00026	8b 88 00 00 00
	00		 mov	 ecx, DWORD PTR ?joy_trg@@3PAKA[eax]
  0002c	81 e1 00 00 00
	20		 and	 ecx, 536870912		; 20000000H
  00032	74 51		 je	 SHORT $LN2@fieldProc2

; 2980 : 		if (menuBtn == 0){

  00034	0f bf 05 00 00
	00 00		 movsx	 eax, WORD PTR ?menuBtn@@3FA ; menuBtn
  0003b	85 c0		 test	 eax, eax
  0003d	75 41		 jne	 SHORT $LN3@fieldProc2

; 2981 : 			closeCharActionAnimeChange();

  0003f	e8 00 00 00 00	 call	 ?closeCharActionAnimeChange@@YAXXZ ; closeCharActionAnimeChange

; 2982 : 			closeJoinChannelWN();

  00044	e8 00 00 00 00	 call	 ?closeJoinChannelWN@@YAXXZ ; closeJoinChannelWN

; 2983 : 			if (CheckMenuFlag())

  00049	e8 00 00 00 00	 call	 ?CheckMenuFlag@@YAHXZ	; CheckMenuFlag
  0004e	85 c0		 test	 eax, eax
  00050	74 05		 je	 SHORT $LN5@fieldProc2

; 2984 : 				InitMenu2();

  00052	e8 00 00 00 00	 call	 ?InitMenu2@@YAXXZ	; InitMenu2
$LN5@fieldProc2:

; 2985 : 			initEtcSwitch();

  00057	e8 00 00 00 00	 call	 ?initEtcSwitch@@YAXXZ	; initEtcSwitch

; 2986 : 			menuBtn = 1;

  0005c	b8 01 00 00 00	 mov	 eax, 1
  00061	66 a3 00 00 00
	00		 mov	 WORD PTR ?menuBtn@@3FA, ax ; menuBtn

; 2987 : 			play_se(202, 320, 240);

  00067	68 f0 00 00 00	 push	 240			; 000000f0H
  0006c	68 40 01 00 00	 push	 320			; 00000140H
  00071	68 ca 00 00 00	 push	 202			; 000000caH
  00076	e8 00 00 00 00	 call	 ?play_se@@YAHHHH@Z	; play_se
  0007b	83 c4 0c	 add	 esp, 12			; 0000000cH

; 2988 : 		}else

  0007e	eb 05		 jmp	 SHORT $LN2@fieldProc2
$LN3@fieldProc2:

; 2989 : 			closeEtcSwitch();

  00080	e8 00 00 00 00	 call	 ?closeEtcSwitch@@YAXXZ	; closeEtcSwitch
$LN2@fieldProc2:

; 2990 : 	}
; 2991 : 	if (menuBtn == 1 && etcSwitch())

  00085	0f bf 05 00 00
	00 00		 movsx	 eax, WORD PTR ?menuBtn@@3FA ; menuBtn
  0008c	83 f8 01	 cmp	 eax, 1
  0008f	75 11		 jne	 SHORT $LN1@fieldProc2
  00091	e8 00 00 00 00	 call	 ?etcSwitch@@YAHXZ	; etcSwitch
  00096	85 c0		 test	 eax, eax
  00098	74 08		 je	 SHORT $LN1@fieldProc2

; 2992 : 		menuBtn = 0;

  0009a	33 c0		 xor	 eax, eax
  0009c	66 a3 00 00 00
	00		 mov	 WORD PTR ?menuBtn@@3FA, ax ; menuBtn
$LN1@fieldProc2:

; 2993 : }

  000a2	5f		 pop	 edi
  000a3	5e		 pop	 esi
  000a4	5b		 pop	 ebx
  000a5	81 c4 c0 00 00
	00		 add	 esp, 192		; 000000c0H
  000ab	3b ec		 cmp	 ebp, esp
  000ad	e8 00 00 00 00	 call	 __RTC_CheckEsp
  000b2	8b e5		 mov	 esp, ebp
  000b4	5d		 pop	 ebp
  000b5	c3		 ret	 0
?fieldProc2@@YAXXZ ENDP					; fieldProc2
_TEXT	ENDS
; Function compile flags: /Odtp /RTCsu /ZI
; File c:\users\administrator\desktop\????? ??\????? ??\client source code\system\field.cpp
;	COMDAT ?fieldProc@@YAXXZ
_TEXT	SEGMENT
_flag$1 = -300						; size = 4
_dy$2 = -288						; size = 4
_dx$3 = -276						; size = 4
_flag$4 = -264						; size = 4
_dy$5 = -252						; size = 4
_dx$6 = -240						; size = 4
_flag$7 = -228						; size = 4
_dy$8 = -216						; size = 4
_dx$9 = -204						; size = 4
_buf$10 = -192						; size = 64
_flag$11 = -120						; size = 4
_dy$12 = -108						; size = 4
_dx$13 = -96						; size = 4
_flag$14 = -84						; size = 4
_dy$15 = -72						; size = 4
_dx$16 = -60						; size = 4
_walkFlag$ = -48					; size = 4
_focusId$ = -36						; size = 4
_pushId$ = -24						; size = 4
_selId$ = -12						; size = 4
__$ArrayPad$ = -4					; size = 4
?fieldProc@@YAXXZ PROC					; fieldProc, COMDAT

; 2113 : {

  00000	55		 push	 ebp
  00001	8b ec		 mov	 ebp, esp
  00003	81 ec f0 01 00
	00		 sub	 esp, 496		; 000001f0H
  00009	53		 push	 ebx
  0000a	56		 push	 esi
  0000b	57		 push	 edi
  0000c	8d bd 10 fe ff
	ff		 lea	 edi, DWORD PTR [ebp-496]
  00012	b9 7c 00 00 00	 mov	 ecx, 124		; 0000007cH
  00017	b8 cc cc cc cc	 mov	 eax, -858993460		; ccccccccH
  0001c	f3 ab		 rep stosd
  0001e	a1 00 00 00 00	 mov	 eax, DWORD PTR ___security_cookie
  00023	33 c5		 xor	 eax, ebp
  00025	89 45 fc	 mov	 DWORD PTR __$ArrayPad$[ebp], eax

; 2114 : 	int selId;
; 2115 : 	int pushId;
; 2116 : 	int focusId;
; 2117 : 	BOOL walkFlag = FALSE;

  00028	c7 45 d0 00 00
	00 00		 mov	 DWORD PTR _walkFlag$[ebp], 0

; 2118 : 	rand2();

  0002f	e8 00 00 00 00	 call	 ?rand2@@YAHXZ		; rand2

; 2119 : 	actionShortCutKeyProc();

  00034	e8 00 00 00 00	 call	 ?actionShortCutKeyProc@@YAXXZ ; actionShortCutKeyProc

; 2120 : 	if (etcSwitchChangeFlag && eventWarpSendFlag == 0 && eventEnemySendFlag == 0 && sendEnFlag == 0){

  00039	0f bf 05 00 00
	00 00		 movsx	 eax, WORD PTR ?etcSwitchChangeFlag@@3FA ; etcSwitchChangeFlag
  00040	85 c0		 test	 eax, eax
  00042	0f 84 81 00 00
	00		 je	 $LN3@fieldProc
  00048	0f bf 05 00 00
	00 00		 movsx	 eax, WORD PTR ?eventWarpSendFlag@@3FA ; eventWarpSendFlag
  0004f	85 c0		 test	 eax, eax
  00051	75 76		 jne	 SHORT $LN3@fieldProc
  00053	0f bf 05 00 00
	00 00		 movsx	 eax, WORD PTR ?eventEnemySendFlag@@3FA ; eventEnemySendFlag
  0005a	85 c0		 test	 eax, eax
  0005c	75 6b		 jne	 SHORT $LN3@fieldProc
  0005e	0f bf 05 00 00
	00 00		 movsx	 eax, WORD PTR ?sendEnFlag@@3FA ; sendEnFlag
  00065	85 c0		 test	 eax, eax
  00067	75 60		 jne	 SHORT $LN3@fieldProc

; 2121 : 		if (fieldBtnPushTime+FIELD_BTN_PUSH_WAIT < TimeGetTime()){

  00069	8b 35 00 00 00
	00		 mov	 esi, DWORD PTR ?fieldBtnPushTime@@3IA ; fieldBtnPushTime
  0006f	81 c6 f4 01 00
	00		 add	 esi, 500		; 000001f4H
  00075	e8 00 00 00 00	 call	 ?TimeGetTime@@YAIXZ	; TimeGetTime
  0007a	3b f0		 cmp	 esi, eax
  0007c	73 4b		 jae	 SHORT $LN3@fieldProc

; 2122 : 			if (bNewServer)

  0007e	83 3d 00 00 00
	00 00		 cmp	 DWORD PTR ?bNewServer@@3HA, 0 ; bNewServer
  00085	74 19		 je	 SHORT $LN4@fieldProc

; 2123 : 				lssproto_FS_send(sockfd, pc.etcFlag);

  00087	0f b7 05 a8 00
	00 00		 movzx	 eax, WORD PTR ?pc@@3UPC@@A+168
  0008e	50		 push	 eax
  0008f	8b 0d 00 00 00
	00		 mov	 ecx, DWORD PTR ?sockfd@@3IA ; sockfd
  00095	51		 push	 ecx
  00096	e8 00 00 00 00	 call	 ?lssproto_FS_send@@YAXHH@Z ; lssproto_FS_send
  0009b	83 c4 08	 add	 esp, 8

; 2124 : 			else

  0009e	eb 17		 jmp	 SHORT $LN5@fieldProc
$LN4@fieldProc:

; 2125 : 				old_lssproto_FS_send(sockfd, pc.etcFlag);

  000a0	0f b7 05 a8 00
	00 00		 movzx	 eax, WORD PTR ?pc@@3UPC@@A+168
  000a7	50		 push	 eax
  000a8	8b 0d 00 00 00
	00		 mov	 ecx, DWORD PTR ?sockfd@@3IA ; sockfd
  000ae	51		 push	 ecx
  000af	e8 00 00 00 00	 call	 ?old_lssproto_FS_send@@YAXHH@Z ; old_lssproto_FS_send
  000b4	83 c4 08	 add	 esp, 8
$LN5@fieldProc:

; 2126 : 			fieldBtnPushTime = TimeGetTime();

  000b7	e8 00 00 00 00	 call	 ?TimeGetTime@@YAIXZ	; TimeGetTime
  000bc	a3 00 00 00 00	 mov	 DWORD PTR ?fieldBtnPushTime@@3IA, eax ; fieldBtnPushTime

; 2127 : 			etcSwitchChangeFlag = 0;

  000c1	33 c0		 xor	 eax, eax
  000c3	66 a3 00 00 00
	00		 mov	 WORD PTR ?etcSwitchChangeFlag@@3FA, ax ; etcSwitchChangeFlag
$LN3@fieldProc:

; 2128 : 		}
; 2129 : 	}
; 2130 : 	if (CheckMenuFlag() || windowTypeWN > -1 || actBtn == 1 || menuBtn == 1 || channelWNFlag == 1)

  000c9	e8 00 00 00 00	 call	 ?CheckMenuFlag@@YAHXZ	; CheckMenuFlag
  000ce	85 c0		 test	 eax, eax
  000d0	75 2d		 jne	 SHORT $LN8@fieldProc
  000d2	83 3d 00 00 00
	00 ff		 cmp	 DWORD PTR ?windowTypeWN@@3HA, -1 ; windowTypeWN
  000d9	7f 24		 jg	 SHORT $LN8@fieldProc
  000db	0f bf 05 00 00
	00 00		 movsx	 eax, WORD PTR ?actBtn@@3FA ; actBtn
  000e2	83 f8 01	 cmp	 eax, 1
  000e5	74 18		 je	 SHORT $LN8@fieldProc
  000e7	0f bf 05 00 00
	00 00		 movsx	 eax, WORD PTR ?menuBtn@@3FA ; menuBtn
  000ee	83 f8 01	 cmp	 eax, 1
  000f1	74 0c		 je	 SHORT $LN8@fieldProc
  000f3	0f bf 05 00 00
	00 00		 movsx	 eax, WORD PTR ?channelWNFlag@@3FA ; channelWNFlag
  000fa	83 f8 01	 cmp	 eax, 1
  000fd	75 0a		 jne	 SHORT $LN6@fieldProc
$LN8@fieldProc:

; 2131 : 		drawFieldButtonFlag = 0;

  000ff	33 c0		 xor	 eax, eax
  00101	66 a3 00 00 00
	00		 mov	 WORD PTR ?drawFieldButtonFlag@@3FA, ax ; drawFieldButtonFlag

; 2132 : 	else

  00107	eb 0b		 jmp	 SHORT $LN7@fieldProc
$LN6@fieldProc:

; 2133 : 		drawFieldButtonFlag = 1;

  00109	b8 01 00 00 00	 mov	 eax, 1
  0010e	66 a3 00 00 00
	00		 mov	 WORD PTR ?drawFieldButtonFlag@@3FA, ax ; drawFieldButtonFlag
$LN7@fieldProc:

; 2134 : 
; 2135 : 	nowFieldMenuOpenFlag = 0;

  00114	33 c0		 xor	 eax, eax
  00116	66 a3 00 00 00
	00		 mov	 WORD PTR ?nowFieldMenuOpenFlag@@3FA, ax ; nowFieldMenuOpenFlag

; 2136 : 	if (windowTypeWN != -1)

  0011c	83 3d 00 00 00
	00 ff		 cmp	 DWORD PTR ?windowTypeWN@@3HA, -1 ; windowTypeWN
  00123	74 0b		 je	 SHORT $LN9@fieldProc

; 2137 : 		nowFieldMenuOpenFlag = 1;

  00125	b8 01 00 00 00	 mov	 eax, 1
  0012a	66 a3 00 00 00
	00		 mov	 WORD PTR ?nowFieldMenuOpenFlag@@3FA, ax ; nowFieldMenuOpenFlag
$LN9@fieldProc:

; 2138 : 	if (actBtn == 1)

  00130	0f bf 05 00 00
	00 00		 movsx	 eax, WORD PTR ?actBtn@@3FA ; actBtn
  00137	83 f8 01	 cmp	 eax, 1
  0013a	75 0b		 jne	 SHORT $LN10@fieldProc

; 2139 : 		nowFieldMenuOpenFlag = 1;

  0013c	b8 01 00 00 00	 mov	 eax, 1
  00141	66 a3 00 00 00
	00		 mov	 WORD PTR ?nowFieldMenuOpenFlag@@3FA, ax ; nowFieldMenuOpenFlag
$LN10@fieldProc:

; 2140 : 	if (menuBtn == 1)

  00147	0f bf 05 00 00
	00 00		 movsx	 eax, WORD PTR ?menuBtn@@3FA ; menuBtn
  0014e	83 f8 01	 cmp	 eax, 1
  00151	75 0b		 jne	 SHORT $LN11@fieldProc

; 2141 : 		nowFieldMenuOpenFlag = 1;

  00153	b8 01 00 00 00	 mov	 eax, 1
  00158	66 a3 00 00 00
	00		 mov	 WORD PTR ?nowFieldMenuOpenFlag@@3FA, ax ; nowFieldMenuOpenFlag
$LN11@fieldProc:

; 2142 : 	amPmAnimeTime = (SaTime.hour + 832) % 1024;

  0015e	a1 08 00 00 00	 mov	 eax, DWORD PTR ?SaTime@@3UtagLSTIME@@A+8
  00163	05 40 03 00 00	 add	 eax, 832		; 00000340H
  00168	25 ff 03 00 80	 and	 eax, -2147482625	; 800003ffH
  0016d	79 07		 jns	 SHORT $LN239@fieldProc
  0016f	48		 dec	 eax
  00170	0d 00 fc ff ff	 or	 eax, -1024		; fffffc00H
  00175	40		 inc	 eax
$LN239@fieldProc:
  00176	a3 00 00 00 00	 mov	 DWORD PTR ?amPmAnimeTime@@3HA, eax ; amPmAnimeTime

; 2143 : 	amPmAnimeGraNoIndex0 = amPmAnimeTime / 256;

  0017b	a1 00 00 00 00	 mov	 eax, DWORD PTR ?amPmAnimeTime@@3HA ; amPmAnimeTime
  00180	99		 cdq
  00181	81 e2 ff 00 00
	00		 and	 edx, 255		; 000000ffH
  00187	03 c2		 add	 eax, edx
  00189	c1 f8 08	 sar	 eax, 8
  0018c	a3 00 00 00 00	 mov	 DWORD PTR ?amPmAnimeGraNoIndex0@@3HA, eax ; amPmAnimeGraNoIndex0

; 2144 : 	amPmAnimeGraNoIndex1 = (amPmAnimeGraNoIndex0 + 1) % 4;

  00191	a1 00 00 00 00	 mov	 eax, DWORD PTR ?amPmAnimeGraNoIndex0@@3HA ; amPmAnimeGraNoIndex0
  00196	83 c0 01	 add	 eax, 1
  00199	25 03 00 00 80	 and	 eax, -2147483645	; 80000003H
  0019e	79 05		 jns	 SHORT $LN240@fieldProc
  001a0	48		 dec	 eax
  001a1	83 c8 fc	 or	 eax, -4			; fffffffcH
  001a4	40		 inc	 eax
$LN240@fieldProc:
  001a5	a3 00 00 00 00	 mov	 DWORD PTR ?amPmAnimeGraNoIndex1@@3HA, eax ; amPmAnimeGraNoIndex1

; 2145 : 	amPmAnimeX = (amPmAnimeTime % 256) / 4;

  001aa	a1 00 00 00 00	 mov	 eax, DWORD PTR ?amPmAnimeTime@@3HA ; amPmAnimeTime
  001af	25 ff 00 00 80	 and	 eax, -2147483393	; 800000ffH
  001b4	79 07		 jns	 SHORT $LN241@fieldProc
  001b6	48		 dec	 eax
  001b7	0d 00 ff ff ff	 or	 eax, -256		; ffffff00H
  001bc	40		 inc	 eax
$LN241@fieldProc:
  001bd	99		 cdq
  001be	83 e2 03	 and	 edx, 3
  001c1	03 c2		 add	 eax, edx
  001c3	c1 f8 02	 sar	 eax, 2
  001c6	a3 00 00 00 00	 mov	 DWORD PTR ?amPmAnimeX@@3HA, eax ; amPmAnimeX

; 2146 : 
; 2147 : 	if (nowVx != 0 || nowVy != 0)

  001cb	f3 0f 10 05 00
	00 00 00	 movss	 xmm0, DWORD PTR ?nowVx@@3MA
  001d3	0f 2e 05 00 00
	00 00		 ucomiss xmm0, DWORD PTR __real@00000000
  001da	9f		 lahf
  001db	f6 c4 44	 test	 ah, 68			; 00000044H
  001de	7a 15		 jp	 SHORT $LN13@fieldProc
  001e0	f3 0f 10 05 00
	00 00 00	 movss	 xmm0, DWORD PTR ?nowVy@@3MA
  001e8	0f 2e 05 00 00
	00 00		 ucomiss xmm0, DWORD PTR __real@00000000
  001ef	9f		 lahf
  001f0	f6 c4 44	 test	 ah, 68			; 00000044H
  001f3	7b 07		 jnp	 SHORT $LN12@fieldProc
$LN13@fieldProc:

; 2148 : 		walkFlag = TRUE;

  001f5	c7 45 d0 01 00
	00 00		 mov	 DWORD PTR _walkFlag$[ebp], 1
$LN12@fieldProc:

; 2149 : 
; 2150 : 	if (etcSendFlag)

  001fc	0f bf 05 00 00
	00 00		 movsx	 eax, WORD PTR ?etcSendFlag@@3FA ; etcSendFlag
  00203	85 c0		 test	 eax, eax
  00205	74 36		 je	 SHORT $LN16@fieldProc

; 2151 : 	{
; 2152 : 		if (prSendFlag == 0 && jbSendFlag == 0 && duelSendFlag == 0)

  00207	0f bf 05 00 00
	00 00		 movsx	 eax, WORD PTR ?prSendFlag@@3FA ; prSendFlag
  0020e	85 c0		 test	 eax, eax
  00210	75 20		 jne	 SHORT $LN15@fieldProc
  00212	0f bf 05 00 00
	00 00		 movsx	 eax, WORD PTR ?jbSendFlag@@3FA ; jbSendFlag
  00219	85 c0		 test	 eax, eax
  0021b	75 15		 jne	 SHORT $LN15@fieldProc
  0021d	0f bf 05 00 00
	00 00		 movsx	 eax, WORD PTR ?duelSendFlag@@3FA ; duelSendFlag
  00224	85 c0		 test	 eax, eax
  00226	75 0a		 jne	 SHORT $LN15@fieldProc

; 2153 : 			etcSendFlag = 0;

  00228	33 c0		 xor	 eax, eax
  0022a	66 a3 00 00 00
	00		 mov	 WORD PTR ?etcSendFlag@@3FA, ax ; etcSendFlag

; 2154 : 		else

  00230	eb 0b		 jmp	 SHORT $LN16@fieldProc
$LN15@fieldProc:

; 2155 : 			etcSendFlag = 1;

  00232	b8 01 00 00 00	 mov	 eax, 1
  00237	66 a3 00 00 00
	00		 mov	 WORD PTR ?etcSendFlag@@3FA, ax ; etcSendFlag
$LN16@fieldProc:

; 2156 : 	}
; 2157 : #if 1
; 2158 : 	selId = selGraId(fieldBtnHitId, sizeof(fieldBtnHitId) / sizeof(int));

  0023d	6a 0d		 push	 13			; 0000000dH
  0023f	68 00 00 00 00	 push	 OFFSET ?fieldBtnHitId@@3PAHA ; fieldBtnHitId
  00244	e8 00 00 00 00	 call	 ?selGraId@@YAHPAHH@Z	; selGraId
  00249	83 c4 08	 add	 esp, 8
  0024c	89 45 f4	 mov	 DWORD PTR _selId$[ebp], eax

; 2159 : 	pushId = pushGraId(fieldBtnHitId, sizeof(fieldBtnHitId) / sizeof(int));

  0024f	6a 0d		 push	 13			; 0000000dH
  00251	68 00 00 00 00	 push	 OFFSET ?fieldBtnHitId@@3PAHA ; fieldBtnHitId
  00256	e8 00 00 00 00	 call	 ?pushGraId@@YAHPAHH@Z	; pushGraId
  0025b	83 c4 08	 add	 esp, 8
  0025e	89 45 e8	 mov	 DWORD PTR _pushId$[ebp], eax

; 2160 : 	focusId = focusGraId(fieldBtnHitId, sizeof(fieldBtnHitId) / sizeof(int));

  00261	6a 0d		 push	 13			; 0000000dH
  00263	68 00 00 00 00	 push	 OFFSET ?fieldBtnHitId@@3PAHA ; fieldBtnHitId
  00268	e8 00 00 00 00	 call	 ?focusGraId@@YAHPAHH@Z	; focusGraId
  0026d	83 c4 08	 add	 esp, 8
  00270	89 45 dc	 mov	 DWORD PTR _focusId$[ebp], eax

; 2161 : 	if (etcSendFlag != 0 || (walkFlag != FALSE && selId != FIELD_FUNC_PARTY))

  00273	0f bf 05 00 00
	00 00		 movsx	 eax, WORD PTR ?etcSendFlag@@3FA ; etcSendFlag
  0027a	85 c0		 test	 eax, eax
  0027c	75 0c		 jne	 SHORT $LN18@fieldProc
  0027e	83 7d d0 00	 cmp	 DWORD PTR _walkFlag$[ebp], 0
  00282	74 0d		 je	 SHORT $LN17@fieldProc
  00284	83 7d f4 02	 cmp	 DWORD PTR _selId$[ebp], 2
  00288	74 07		 je	 SHORT $LN17@fieldProc
$LN18@fieldProc:

; 2162 : 		selId = -1;

  0028a	c7 45 f4 ff ff
	ff ff		 mov	 DWORD PTR _selId$[ebp], -1
$LN17@fieldProc:

; 2163 : #else
; 2164 : 	if (etcSendFlag == 0 && walkFlag == FALSE)
; 2165 : 	{
; 2166 : 		selId = selGraId(fieldBtnHitId, sizeof(fieldBtnHitId) / sizeof(int));
; 2167 : 		pushId = pushGraId(fieldBtnHitId, sizeof(fieldBtnHitId) / sizeof(int));
; 2168 : 		focusId = focusGraId(fieldBtnHitId, sizeof(fieldBtnHitId) / sizeof(int));
; 2169 : 	}
; 2170 : 	else
; 2171 : 		selId = -1;
; 2172 : #endif
; 2173 : 	if (/* nowFloor == 32021
; 2174 : 		||	*/nowFloor == 31706 || nowFloor == 10204 || (10601 <= nowFloor && nowFloor <= 10605)
; 2175 : 		|| nowFloor == 10919 || nowFloor == 10920 || nowFloor == 20711 || nowFloor == 20712
; 2176 : 		|| nowFloor == 1008 || nowFloor == 1021 || nowFloor == 3008 || nowFloor == 3021 
; 2177 : #ifdef _LOCKPARTYFLOOR				// (寮) Syu ADD 澧涓缁板剧
; 2178 : 		|| ( nowFloor <= 8213 && nowFloor >= 8200 )
; 2179 : #endif
; 2180 : 		|| ( nowFloor >= 30017 && nowFloor <= 30021 ) || ( nowFloor == 7025  )	// 妫瀹娲诲

  00291	81 3d 00 00 00
	00 da 7b 00 00	 cmp	 DWORD PTR ?nowFloor@@3HA, 31706 ; nowFloor, 00007bdaH
  0029b	0f 84 d0 00 00
	00		 je	 $LN21@fieldProc
  002a1	81 3d 00 00 00
	00 dc 27 00 00	 cmp	 DWORD PTR ?nowFloor@@3HA, 10204 ; nowFloor, 000027dcH
  002ab	0f 84 c0 00 00
	00		 je	 $LN21@fieldProc
  002b1	81 3d 00 00 00
	00 69 29 00 00	 cmp	 DWORD PTR ?nowFloor@@3HA, 10601 ; nowFloor, 00002969H
  002bb	7c 10		 jl	 SHORT $LN22@fieldProc
  002bd	81 3d 00 00 00
	00 6d 29 00 00	 cmp	 DWORD PTR ?nowFloor@@3HA, 10605 ; nowFloor, 0000296dH
  002c7	0f 8e a4 00 00
	00		 jle	 $LN21@fieldProc
$LN22@fieldProc:
  002cd	81 3d 00 00 00
	00 a7 2a 00 00	 cmp	 DWORD PTR ?nowFloor@@3HA, 10919 ; nowFloor, 00002aa7H
  002d7	0f 84 94 00 00
	00		 je	 $LN21@fieldProc
  002dd	81 3d 00 00 00
	00 a8 2a 00 00	 cmp	 DWORD PTR ?nowFloor@@3HA, 10920 ; nowFloor, 00002aa8H
  002e7	0f 84 84 00 00
	00		 je	 $LN21@fieldProc
  002ed	81 3d 00 00 00
	00 e7 50 00 00	 cmp	 DWORD PTR ?nowFloor@@3HA, 20711 ; nowFloor, 000050e7H
  002f7	74 78		 je	 SHORT $LN21@fieldProc
  002f9	81 3d 00 00 00
	00 e8 50 00 00	 cmp	 DWORD PTR ?nowFloor@@3HA, 20712 ; nowFloor, 000050e8H
  00303	74 6c		 je	 SHORT $LN21@fieldProc
  00305	81 3d 00 00 00
	00 f0 03 00 00	 cmp	 DWORD PTR ?nowFloor@@3HA, 1008 ; nowFloor, 000003f0H
  0030f	74 60		 je	 SHORT $LN21@fieldProc
  00311	81 3d 00 00 00
	00 fd 03 00 00	 cmp	 DWORD PTR ?nowFloor@@3HA, 1021 ; nowFloor, 000003fdH
  0031b	74 54		 je	 SHORT $LN21@fieldProc
  0031d	81 3d 00 00 00
	00 c0 0b 00 00	 cmp	 DWORD PTR ?nowFloor@@3HA, 3008 ; nowFloor, 00000bc0H
  00327	74 48		 je	 SHORT $LN21@fieldProc
  00329	81 3d 00 00 00
	00 cd 0b 00 00	 cmp	 DWORD PTR ?nowFloor@@3HA, 3021 ; nowFloor, 00000bcdH
  00333	74 3c		 je	 SHORT $LN21@fieldProc
  00335	81 3d 00 00 00
	00 15 20 00 00	 cmp	 DWORD PTR ?nowFloor@@3HA, 8213 ; nowFloor, 00002015H
  0033f	7f 0c		 jg	 SHORT $LN23@fieldProc
  00341	81 3d 00 00 00
	00 08 20 00 00	 cmp	 DWORD PTR ?nowFloor@@3HA, 8200 ; nowFloor, 00002008H
  0034b	7d 24		 jge	 SHORT $LN21@fieldProc
$LN23@fieldProc:
  0034d	81 3d 00 00 00
	00 41 75 00 00	 cmp	 DWORD PTR ?nowFloor@@3HA, 30017 ; nowFloor, 00007541H
  00357	7c 0c		 jl	 SHORT $LN24@fieldProc
  00359	81 3d 00 00 00
	00 45 75 00 00	 cmp	 DWORD PTR ?nowFloor@@3HA, 30021 ; nowFloor, 00007545H
  00363	7e 0c		 jle	 SHORT $LN21@fieldProc
$LN24@fieldProc:
  00365	81 3d 00 00 00
	00 71 1b 00 00	 cmp	 DWORD PTR ?nowFloor@@3HA, 7025 ; nowFloor, 00001b71H
  0036f	75 0a		 jne	 SHORT $LN19@fieldProc
$LN21@fieldProc:

; 2181 : 	)
; 2182 : 		partyBtnEnableFlag = 0;

  00371	33 c0		 xor	 eax, eax
  00373	66 a3 00 00 00
	00		 mov	 WORD PTR ?partyBtnEnableFlag@@3FA, ax ; partyBtnEnableFlag

; 2183 : 	else

  00379	eb 0b		 jmp	 SHORT $LN20@fieldProc
$LN19@fieldProc:

; 2184 : 		partyBtnEnableFlag = 1;

  0037b	b8 01 00 00 00	 mov	 eax, 1
  00380	66 a3 00 00 00
	00		 mov	 WORD PTR ?partyBtnEnableFlag@@3FA, ax ; partyBtnEnableFlag
$LN20@fieldProc:

; 2185 : 	
; 2186 : 	if (nowFloor < 10000 && (nowFloor / 1000 > 0) && (nowFloor % 1000 == 7) || nowFloor == 130)

  00386	81 3d 00 00 00
	00 10 27 00 00	 cmp	 DWORD PTR ?nowFloor@@3HA, 10000 ; nowFloor, 00002710H
  00390	7d 23		 jge	 SHORT $LN28@fieldProc
  00392	a1 00 00 00 00	 mov	 eax, DWORD PTR ?nowFloor@@3HA ; nowFloor
  00397	99		 cdq
  00398	b9 e8 03 00 00	 mov	 ecx, 1000		; 000003e8H
  0039d	f7 f9		 idiv	 ecx
  0039f	85 c0		 test	 eax, eax
  003a1	7e 12		 jle	 SHORT $LN28@fieldProc
  003a3	a1 00 00 00 00	 mov	 eax, DWORD PTR ?nowFloor@@3HA ; nowFloor
  003a8	99		 cdq
  003a9	b9 e8 03 00 00	 mov	 ecx, 1000		; 000003e8H
  003ae	f7 f9		 idiv	 ecx
  003b0	83 fa 07	 cmp	 edx, 7
  003b3	74 0c		 je	 SHORT $LN27@fieldProc
$LN28@fieldProc:
  003b5	81 3d 00 00 00
	00 82 00 00 00	 cmp	 DWORD PTR ?nowFloor@@3HA, 130 ; nowFloor, 00000082H
  003bf	75 18		 jne	 SHORT $LN25@fieldProc
$LN27@fieldProc:

; 2187 : 	{
; 2188 : 		joinBattleHelpMsgFlag = 0;

  003c1	33 c0		 xor	 eax, eax
  003c3	66 a3 00 00 00
	00		 mov	 WORD PTR ?joinBattleHelpMsgFlag@@3FA, ax ; joinBattleHelpMsgFlag

; 2189 : 		joinBattleBtnEnableFlag = 1;

  003c9	b8 01 00 00 00	 mov	 eax, 1
  003ce	66 a3 00 00 00
	00		 mov	 WORD PTR ?joinBattleBtnEnableFlag@@3FA, ax ; joinBattleBtnEnableFlag

; 2190 : 	}
; 2191 : 	else

  003d4	e9 97 00 00 00	 jmp	 $LN30@fieldProc
$LN25@fieldProc:

; 2192 : 	if (nowFloor == 1008 || nowFloor == 1021 || nowFloor == 3008 || nowFloor == 3021
; 2193 : 			|| nowFloor == 10919 || nowFloor == 10920 || nowFloor == 20711 || nowFloor == 20712
; 2194 : 			|| nowFloor == 10204)

  003d9	81 3d 00 00 00
	00 f0 03 00 00	 cmp	 DWORD PTR ?nowFloor@@3HA, 1008 ; nowFloor, 000003f0H
  003e3	74 60		 je	 SHORT $LN31@fieldProc
  003e5	81 3d 00 00 00
	00 fd 03 00 00	 cmp	 DWORD PTR ?nowFloor@@3HA, 1021 ; nowFloor, 000003fdH
  003ef	74 54		 je	 SHORT $LN31@fieldProc
  003f1	81 3d 00 00 00
	00 c0 0b 00 00	 cmp	 DWORD PTR ?nowFloor@@3HA, 3008 ; nowFloor, 00000bc0H
  003fb	74 48		 je	 SHORT $LN31@fieldProc
  003fd	81 3d 00 00 00
	00 cd 0b 00 00	 cmp	 DWORD PTR ?nowFloor@@3HA, 3021 ; nowFloor, 00000bcdH
  00407	74 3c		 je	 SHORT $LN31@fieldProc
  00409	81 3d 00 00 00
	00 a7 2a 00 00	 cmp	 DWORD PTR ?nowFloor@@3HA, 10919 ; nowFloor, 00002aa7H
  00413	74 30		 je	 SHORT $LN31@fieldProc
  00415	81 3d 00 00 00
	00 a8 2a 00 00	 cmp	 DWORD PTR ?nowFloor@@3HA, 10920 ; nowFloor, 00002aa8H
  0041f	74 24		 je	 SHORT $LN31@fieldProc
  00421	81 3d 00 00 00
	00 e7 50 00 00	 cmp	 DWORD PTR ?nowFloor@@3HA, 20711 ; nowFloor, 000050e7H
  0042b	74 18		 je	 SHORT $LN31@fieldProc
  0042d	81 3d 00 00 00
	00 e8 50 00 00	 cmp	 DWORD PTR ?nowFloor@@3HA, 20712 ; nowFloor, 000050e8H
  00437	74 0c		 je	 SHORT $LN31@fieldProc
  00439	81 3d 00 00 00
	00 dc 27 00 00	 cmp	 DWORD PTR ?nowFloor@@3HA, 10204 ; nowFloor, 000027dcH
  00443	75 15		 jne	 SHORT $LN29@fieldProc
$LN31@fieldProc:

; 2195 : 	{
; 2196 : 		joinBattleHelpMsgFlag = 2;

  00445	b8 02 00 00 00	 mov	 eax, 2
  0044a	66 a3 00 00 00
	00		 mov	 WORD PTR ?joinBattleHelpMsgFlag@@3FA, ax ; joinBattleHelpMsgFlag

; 2197 : 		joinBattleBtnEnableFlag = 0;

  00450	33 c0		 xor	 eax, eax
  00452	66 a3 00 00 00
	00		 mov	 WORD PTR ?joinBattleBtnEnableFlag@@3FA, ax ; joinBattleBtnEnableFlag

; 2198 : 	}
; 2199 : 	else

  00458	eb 16		 jmp	 SHORT $LN30@fieldProc
$LN29@fieldProc:

; 2200 : 	{
; 2201 : 		joinBattleHelpMsgFlag = 1;	// ㈩睢

  0045a	b8 01 00 00 00	 mov	 eax, 1
  0045f	66 a3 00 00 00
	00		 mov	 WORD PTR ?joinBattleHelpMsgFlag@@3FA, ax ; joinBattleHelpMsgFlag

; 2202 : 		joinBattleBtnEnableFlag = 1;

  00465	b8 01 00 00 00	 mov	 eax, 1
  0046a	66 a3 00 00 00
	00		 mov	 WORD PTR ?joinBattleBtnEnableFlag@@3FA, ax ; joinBattleBtnEnableFlag
$LN30@fieldProc:

; 2203 : 	}
; 2204 : 	if (selId == FIELD_FUNC_MENU || (joy_trg[1] & JOY_CTRL_Q)

  00470	83 7d f4 00	 cmp	 DWORD PTR _selId$[ebp], 0
  00474	74 37		 je	 SHORT $LN33@fieldProc
  00476	b8 04 00 00 00	 mov	 eax, 4
  0047b	c1 e0 00	 shl	 eax, 0
  0047e	8b 88 00 00 00
	00		 mov	 ecx, DWORD PTR ?joy_trg@@3PAKA[eax]
  00484	81 e1 00 00 00
	20		 and	 ecx, 536870912		; 20000000H
  0048a	74 72		 je	 SHORT $LN35@fieldProc
  0048c	0f bf 05 00 00
	00 00		 movsx	 eax, WORD PTR ?sStreetVendorBtn@@3FA ; sStreetVendorBtn
  00493	85 c0		 test	 eax, eax
  00495	75 67		 jne	 SHORT $LN35@fieldProc
  00497	0f bf 05 00 00
	00 00		 movsx	 eax, WORD PTR ?sStreetVendorBuyBtn@@3FA ; sStreetVendorBuyBtn
  0049e	85 c0		 test	 eax, eax
  004a0	75 5c		 jne	 SHORT $LN35@fieldProc
  004a2	0f bf 05 00 00
	00 00		 movsx	 eax, WORD PTR ?helpBtn@@3FA ; helpBtn
  004a9	85 c0		 test	 eax, eax
  004ab	75 51		 jne	 SHORT $LN35@fieldProc
$LN33@fieldProc:

; 2205 : #ifdef __PHONEMESSAGE
; 2206 : 		&& msgBtn == 0 
; 2207 : #endif
; 2208 : #ifdef _STREET_VENDOR
; 2209 : 		&& sStreetVendorBtn == 0
; 2210 : 		&& sStreetVendorBuyBtn == 0
; 2211 : #endif
; 2212 : 
; 2213 : 		&& helpBtn == 0
; 2214 : 	)
; 2215 : 	{
; 2216 : 		if (menuBtn == 0){

  004ad	0f bf 05 00 00
	00 00		 movsx	 eax, WORD PTR ?menuBtn@@3FA ; menuBtn
  004b4	85 c0		 test	 eax, eax
  004b6	75 41		 jne	 SHORT $LN34@fieldProc

; 2217 : 			closeCharActionAnimeChange();

  004b8	e8 00 00 00 00	 call	 ?closeCharActionAnimeChange@@YAXXZ ; closeCharActionAnimeChange

; 2218 : 			closeJoinChannelWN();

  004bd	e8 00 00 00 00	 call	 ?closeJoinChannelWN@@YAXXZ ; closeJoinChannelWN

; 2219 : 			if (CheckMenuFlag())

  004c2	e8 00 00 00 00	 call	 ?CheckMenuFlag@@YAHXZ	; CheckMenuFlag
  004c7	85 c0		 test	 eax, eax
  004c9	74 05		 je	 SHORT $LN36@fieldProc

; 2220 : 				InitMenu2();

  004cb	e8 00 00 00 00	 call	 ?InitMenu2@@YAXXZ	; InitMenu2
$LN36@fieldProc:

; 2221 : 
; 2222 : 			initEtcSwitch();

  004d0	e8 00 00 00 00	 call	 ?initEtcSwitch@@YAXXZ	; initEtcSwitch

; 2223 : 			menuBtn = 1;

  004d5	b8 01 00 00 00	 mov	 eax, 1
  004da	66 a3 00 00 00
	00		 mov	 WORD PTR ?menuBtn@@3FA, ax ; menuBtn

; 2224 : 			play_se(202, 320, 240);

  004e0	68 f0 00 00 00	 push	 240			; 000000f0H
  004e5	68 40 01 00 00	 push	 320			; 00000140H
  004ea	68 ca 00 00 00	 push	 202			; 000000caH
  004ef	e8 00 00 00 00	 call	 ?play_se@@YAHHHH@Z	; play_se
  004f4	83 c4 0c	 add	 esp, 12			; 0000000cH

; 2225 : 		}else

  004f7	eb 05		 jmp	 SHORT $LN35@fieldProc
$LN34@fieldProc:

; 2226 : 			closeEtcSwitch();

  004f9	e8 00 00 00 00	 call	 ?closeEtcSwitch@@YAXXZ	; closeEtcSwitch
$LN35@fieldProc:

; 2227 : 	}
; 2228 : 	if (menuBtn == 1 && etcSwitch())

  004fe	0f bf 05 00 00
	00 00		 movsx	 eax, WORD PTR ?menuBtn@@3FA ; menuBtn
  00505	83 f8 01	 cmp	 eax, 1
  00508	75 11		 jne	 SHORT $LN37@fieldProc
  0050a	e8 00 00 00 00	 call	 ?etcSwitch@@YAHXZ	; etcSwitch
  0050f	85 c0		 test	 eax, eax
  00511	74 08		 je	 SHORT $LN37@fieldProc

; 2229 : 		menuBtn = 0;

  00513	33 c0		 xor	 eax, eax
  00515	66 a3 00 00 00
	00		 mov	 WORD PTR ?menuBtn@@3FA, ax ; menuBtn
$LN37@fieldProc:

; 2230 : 	if (focusId == FIELD_FUNC_MENU)

  0051b	83 7d dc 00	 cmp	 DWORD PTR _focusId$[ebp], 0
  0051f	75 0d		 jne	 SHORT $LN38@fieldProc

; 2231 : 		menuBtnFocus = 1;

  00521	b8 01 00 00 00	 mov	 eax, 1
  00526	66 a3 00 00 00
	00		 mov	 WORD PTR ?menuBtnFocus@@3FA, ax ; menuBtnFocus

; 2232 : 	else

  0052c	eb 08		 jmp	 SHORT $LN39@fieldProc
$LN38@fieldProc:

; 2233 : 		menuBtnFocus = 0;

  0052e	33 c0		 xor	 eax, eax
  00530	66 a3 00 00 00
	00		 mov	 WORD PTR ?menuBtnFocus@@3FA, ax ; menuBtnFocus
$LN39@fieldProc:

; 2234 : #ifdef _STREET_VENDOR
; 2235 : 	if (pushId == FIELD_FUNC_STREET_VENDOR){

  00536	83 7d e8 09	 cmp	 DWORD PTR _pushId$[ebp], 9
  0053a	75 38		 jne	 SHORT $LN41@fieldProc

; 2236 : 		if (selId == FIELD_FUNC_STREET_VENDOR){

  0053c	83 7d f4 09	 cmp	 DWORD PTR _selId$[ebp], 9
  00540	75 32		 jne	 SHORT $LN41@fieldProc

; 2237 : 			{
; 2238 : 
; 2239 : 				{
; 2240 : 				play_se( 202, 320, 240 );

  00542	68 f0 00 00 00	 push	 240			; 000000f0H
  00547	68 40 01 00 00	 push	 320			; 00000140H
  0054c	68 ca 00 00 00	 push	 202			; 000000caH
  00551	e8 00 00 00 00	 call	 ?play_se@@YAHHHH@Z	; play_se
  00556	83 c4 0c	 add	 esp, 12			; 0000000cH

; 2241 : 				lssproto_STREET_VENDOR_send(sockfd, "O|");

  00559	68 00 00 00 00	 push	 OFFSET ??_C@_02PIPCNKOK@O?$HM?$AA@
  0055e	a1 00 00 00 00	 mov	 eax, DWORD PTR ?sockfd@@3IA ; sockfd
  00563	50		 push	 eax
  00564	e8 00 00 00 00	 call	 ?lssproto_STREET_VENDOR_send@@YAXHPAD@Z ; lssproto_STREET_VENDOR_send
  00569	83 c4 08	 add	 esp, 8

; 2242 : 				sStreetVendorBtn = 0;

  0056c	33 c0		 xor	 eax, eax
  0056e	66 a3 00 00 00
	00		 mov	 WORD PTR ?sStreetVendorBtn@@3FA, ax ; sStreetVendorBtn
$LN41@fieldProc:

; 2243 : 				}
; 2244 : 			}
; 2245 : 		}
; 2246 : 	}
; 2247 : 	if (sStreetVendorBtn == 1 || sStreetVendorBtn == 3)

  00574	0f bf 05 00 00
	00 00		 movsx	 eax, WORD PTR ?sStreetVendorBtn@@3FA ; sStreetVendorBtn
  0057b	83 f8 01	 cmp	 eax, 1
  0057e	74 10		 je	 SHORT $LN44@fieldProc
  00580	0f bf 05 00 00
	00 00		 movsx	 eax, WORD PTR ?sStreetVendorBtn@@3FA ; sStreetVendorBtn
  00587	83 f8 03	 cmp	 eax, 3
  0058a	0f 85 b0 00 00
	00		 jne	 $LN42@fieldProc
$LN44@fieldProc:

; 2248 : 	{
; 2249 : 		actBtn = 1;

  00590	b8 01 00 00 00	 mov	 eax, 1
  00595	66 a3 00 00 00
	00		 mov	 WORD PTR ?actBtn@@3FA, ax ; actBtn

; 2250 : 		closeEtcSwitch();

  0059b	e8 00 00 00 00	 call	 ?closeEtcSwitch@@YAXXZ	; closeEtcSwitch

; 2251 : 		closeJoinChannelWN();

  005a0	e8 00 00 00 00	 call	 ?closeJoinChannelWN@@YAXXZ ; closeJoinChannelWN

; 2252 : 		if (CheckMenuFlag())

  005a5	e8 00 00 00 00	 call	 ?CheckMenuFlag@@YAHXZ	; CheckMenuFlag
  005aa	85 c0		 test	 eax, eax
  005ac	74 05		 je	 SHORT $LN45@fieldProc

; 2253 : 			InitMenu2();

  005ae	e8 00 00 00 00	 call	 ?InitMenu2@@YAXXZ	; InitMenu2
$LN45@fieldProc:

; 2254 : 		sStreetVendorBtn = 2;

  005b3	b8 02 00 00 00	 mov	 eax, 2
  005b8	66 a3 00 00 00
	00		 mov	 WORD PTR ?sStreetVendorBtn@@3FA, ax ; sStreetVendorBtn

; 2255 : 		iOldGX = nowGx;

  005be	a1 00 00 00 00	 mov	 eax, DWORD PTR ?nowGx@@3HA ; nowGx
  005c3	a3 00 00 00 00	 mov	 DWORD PTR ?iOldGX@@3HA, eax ; iOldGX

; 2256 : 		iOldGY = nowGy;

  005c8	a1 00 00 00 00	 mov	 eax, DWORD PTR ?nowGy@@3HA ; nowGy
  005cd	a3 00 00 00 00	 mov	 DWORD PTR ?iOldGY@@3HA, eax ; iOldGY

; 2257 : 		// 浜ゆ缁PK椤瑰抽
; 2258 : 		pc.etcFlag &= ~PC_ETCFLAG_TRADE;

  005d2	0f b7 05 a8 00
	00 00		 movzx	 eax, WORD PTR ?pc@@3UPC@@A+168
  005d9	83 e0 df	 and	 eax, -33		; ffffffdfH
  005dc	66 a3 a8 00 00
	00		 mov	 WORD PTR ?pc@@3UPC@@A+168, ax

; 2259 : 		pc.etcFlag &= ~PC_ETCFLAG_PARTY;

  005e2	0f b7 05 a8 00
	00 00		 movzx	 eax, WORD PTR ?pc@@3UPC@@A+168
  005e9	83 e0 fe	 and	 eax, -2			; fffffffeH
  005ec	66 a3 a8 00 00
	00		 mov	 WORD PTR ?pc@@3UPC@@A+168, ax

; 2260 : 		pc.etcFlag &= ~PC_ETCFLAG_DUEL;

  005f2	0f b7 05 a8 00
	00 00		 movzx	 eax, WORD PTR ?pc@@3UPC@@A+168
  005f9	83 e0 fb	 and	 eax, -5			; fffffffbH
  005fc	66 a3 a8 00 00
	00		 mov	 WORD PTR ?pc@@3UPC@@A+168, ax

; 2261 : 		if (bNewServer)

  00602	83 3d 00 00 00
	00 00		 cmp	 DWORD PTR ?bNewServer@@3HA, 0 ; bNewServer
  00609	74 19		 je	 SHORT $LN46@fieldProc

; 2262 : 			lssproto_FS_send(sockfd, pc.etcFlag);

  0060b	0f b7 05 a8 00
	00 00		 movzx	 eax, WORD PTR ?pc@@3UPC@@A+168
  00612	50		 push	 eax
  00613	8b 0d 00 00 00
	00		 mov	 ecx, DWORD PTR ?sockfd@@3IA ; sockfd
  00619	51		 push	 ecx
  0061a	e8 00 00 00 00	 call	 ?lssproto_FS_send@@YAXHH@Z ; lssproto_FS_send
  0061f	83 c4 08	 add	 esp, 8

; 2263 : 		else

  00622	eb 17		 jmp	 SHORT $LN47@fieldProc
$LN46@fieldProc:

; 2264 : 			old_lssproto_FS_send(sockfd, pc.etcFlag);

  00624	0f b7 05 a8 00
	00 00		 movzx	 eax, WORD PTR ?pc@@3UPC@@A+168
  0062b	50		 push	 eax
  0062c	8b 0d 00 00 00
	00		 mov	 ecx, DWORD PTR ?sockfd@@3IA ; sockfd
  00632	51		 push	 ecx
  00633	e8 00 00 00 00	 call	 ?old_lssproto_FS_send@@YAXHH@Z ; old_lssproto_FS_send
  00638	83 c4 08	 add	 esp, 8
$LN47@fieldProc:

; 2265 : 	}
; 2266 : 	else

  0063b	e9 cc 00 00 00	 jmp	 $LN55@fieldProc
$LN42@fieldProc:

; 2267 : 	if (sStreetVendorBtn == 2)

  00640	0f bf 05 00 00
	00 00		 movsx	 eax, WORD PTR ?sStreetVendorBtn@@3FA ; sStreetVendorBtn
  00647	83 f8 02	 cmp	 eax, 2
  0064a	75 5d		 jne	 SHORT $LN48@fieldProc

; 2268 : 	{
; 2269 : 		StreetVendorWndfunc(true, NULL);

  0064c	6a 00		 push	 0
  0064e	6a 01		 push	 1
  00650	e8 00 00 00 00	 call	 ?StreetVendorWndfunc@@YAX_NPAD@Z ; StreetVendorWndfunc
  00655	83 c4 08	 add	 esp, 8

; 2270 : 		if (((joy_trg[0] & JOY_ESC) && GetImeString() == NULL) || CheckMenuFlag())

  00658	b8 04 00 00 00	 mov	 eax, 4
  0065d	6b c8 00	 imul	 ecx, eax, 0
  00660	8b 91 00 00 00
	00		 mov	 edx, DWORD PTR ?joy_trg@@3PAKA[ecx]
  00666	81 e2 00 00 00
	80		 and	 edx, -2147483648	; 80000000H
  0066c	74 09		 je	 SHORT $LN52@fieldProc
  0066e	e8 00 00 00 00	 call	 ?GetImeString@@YAPADXZ	; GetImeString
  00673	85 c0		 test	 eax, eax
  00675	74 09		 je	 SHORT $LN51@fieldProc
$LN52@fieldProc:
  00677	e8 00 00 00 00	 call	 ?CheckMenuFlag@@YAHXZ	; CheckMenuFlag
  0067c	85 c0		 test	 eax, eax
  0067e	74 27		 je	 SHORT $LN50@fieldProc
$LN51@fieldProc:

; 2271 : 		{
; 2272 : 			play_se(203, 320, 240);

  00680	68 f0 00 00 00	 push	 240			; 000000f0H
  00685	68 40 01 00 00	 push	 320			; 00000140H
  0068a	68 cb 00 00 00	 push	 203			; 000000cbH
  0068f	e8 00 00 00 00	 call	 ?play_se@@YAHHHH@Z	; play_se
  00694	83 c4 0c	 add	 esp, 12			; 0000000cH

; 2273 : 			sStreetVendorBtn = 0;

  00697	33 c0		 xor	 eax, eax
  00699	66 a3 00 00 00
	00		 mov	 WORD PTR ?sStreetVendorBtn@@3FA, ax ; sStreetVendorBtn

; 2274 : 			actBtn = 0;

  0069f	33 c0		 xor	 eax, eax
  006a1	66 a3 00 00 00
	00		 mov	 WORD PTR ?actBtn@@3FA, ax ; actBtn
$LN50@fieldProc:

; 2275 : 		}
; 2276 : 	}
; 2277 : 	else

  006a7	eb 63		 jmp	 SHORT $LN55@fieldProc
$LN48@fieldProc:

; 2278 : 	{
; 2279 : 		if (pActStreetVendorWnd)

  006a9	83 3d 00 00 00
	00 00		 cmp	 DWORD PTR ?pActStreetVendorWnd@@3PAUaction@@A, 0 ; pActStreetVendorWnd
  006b0	74 39		 je	 SHORT $LN54@fieldProc

; 2280 : 		{
; 2281 : 			DeathAction(pActStreetVendorWnd);

  006b2	a1 00 00 00 00	 mov	 eax, DWORD PTR ?pActStreetVendorWnd@@3PAUaction@@A ; pActStreetVendorWnd
  006b7	50		 push	 eax
  006b8	e8 00 00 00 00	 call	 ?DeathAction@@YAXPAUaction@@@Z ; DeathAction
  006bd	83 c4 04	 add	 esp, 4

; 2282 : 			pActStreetVendorWnd = NULL;

  006c0	c7 05 00 00 00
	00 00 00 00 00	 mov	 DWORD PTR ?pActStreetVendorWnd@@3PAUaction@@A, 0 ; pActStreetVendorWnd

; 2283 : 			if (pShowPet != NULL)

  006ca	83 3d 00 00 00
	00 00		 cmp	 DWORD PTR ?pShowPet@@3PAUaction@@A, 0 ; pShowPet
  006d1	74 18		 je	 SHORT $LN54@fieldProc

; 2284 : 			{
; 2285 : 				DeathAction(pShowPet);

  006d3	a1 00 00 00 00	 mov	 eax, DWORD PTR ?pShowPet@@3PAUaction@@A ; pShowPet
  006d8	50		 push	 eax
  006d9	e8 00 00 00 00	 call	 ?DeathAction@@YAXPAUaction@@@Z ; DeathAction
  006de	83 c4 04	 add	 esp, 4

; 2286 : 				pShowPet = NULL;

  006e1	c7 05 00 00 00
	00 00 00 00 00	 mov	 DWORD PTR ?pShowPet@@3PAUaction@@A, 0 ; pShowPet
$LN54@fieldProc:

; 2287 : 			}
; 2288 : 		}
; 2289 : 		if (pActSellPriceWnd)

  006eb	83 3d 00 00 00
	00 00		 cmp	 DWORD PTR ?pActSellPriceWnd@@3PAUaction@@A, 0
  006f2	74 18		 je	 SHORT $LN55@fieldProc

; 2290 : 		{
; 2291 : 			DeathAction(pActSellPriceWnd);

  006f4	a1 00 00 00 00	 mov	 eax, DWORD PTR ?pActSellPriceWnd@@3PAUaction@@A
  006f9	50		 push	 eax
  006fa	e8 00 00 00 00	 call	 ?DeathAction@@YAXPAUaction@@@Z ; DeathAction
  006ff	83 c4 04	 add	 esp, 4

; 2292 : 			pActSellPriceWnd = NULL;

  00702	c7 05 00 00 00
	00 00 00 00 00	 mov	 DWORD PTR ?pActSellPriceWnd@@3PAUaction@@A, 0
$LN55@fieldProc:

; 2293 : 		}
; 2294 : 	}
; 2295 : 	if (sStreetVendorBuyBtn == 1)

  0070c	0f bf 05 00 00
	00 00		 movsx	 eax, WORD PTR ?sStreetVendorBuyBtn@@3FA ; sStreetVendorBuyBtn
  00713	83 f8 01	 cmp	 eax, 1
  00716	75 47		 jne	 SHORT $LN56@fieldProc

; 2296 : 	{
; 2297 : 		actBtn = 1;

  00718	b8 01 00 00 00	 mov	 eax, 1
  0071d	66 a3 00 00 00
	00		 mov	 WORD PTR ?actBtn@@3FA, ax ; actBtn

; 2298 : 		closeEtcSwitch();

  00723	e8 00 00 00 00	 call	 ?closeEtcSwitch@@YAXXZ	; closeEtcSwitch

; 2299 : 		closeJoinChannelWN();

  00728	e8 00 00 00 00	 call	 ?closeJoinChannelWN@@YAXXZ ; closeJoinChannelWN

; 2300 : 		if (CheckMenuFlag())

  0072d	e8 00 00 00 00	 call	 ?CheckMenuFlag@@YAHXZ	; CheckMenuFlag
  00732	85 c0		 test	 eax, eax
  00734	74 05		 je	 SHORT $LN58@fieldProc

; 2301 : 			InitMenu2();

  00736	e8 00 00 00 00	 call	 ?InitMenu2@@YAXXZ	; InitMenu2
$LN58@fieldProc:

; 2302 : 		sStreetVendorBuyBtn = 2;

  0073b	b8 02 00 00 00	 mov	 eax, 2
  00740	66 a3 00 00 00
	00		 mov	 WORD PTR ?sStreetVendorBuyBtn@@3FA, ax ; sStreetVendorBuyBtn

; 2303 : 		iOldGX = nowGx;

  00746	a1 00 00 00 00	 mov	 eax, DWORD PTR ?nowGx@@3HA ; nowGx
  0074b	a3 00 00 00 00	 mov	 DWORD PTR ?iOldGX@@3HA, eax ; iOldGX

; 2304 : 		iOldGY = nowGy;

  00750	a1 00 00 00 00	 mov	 eax, DWORD PTR ?nowGy@@3HA ; nowGy
  00755	a3 00 00 00 00	 mov	 DWORD PTR ?iOldGY@@3HA, eax ; iOldGY

; 2305 : 	}
; 2306 : 	else

  0075a	e9 c4 00 00 00	 jmp	 $LN64@fieldProc
$LN56@fieldProc:

; 2307 : 	if (sStreetVendorBuyBtn == 2)

  0075f	0f bf 05 00 00
	00 00		 movsx	 eax, WORD PTR ?sStreetVendorBuyBtn@@3FA ; sStreetVendorBuyBtn
  00766	83 f8 02	 cmp	 eax, 2
  00769	75 5b		 jne	 SHORT $LN59@fieldProc

; 2308 : 	{
; 2309 : 		StreetVendorBuyWndfunc(NULL);

  0076b	6a 00		 push	 0
  0076d	e8 00 00 00 00	 call	 ?StreetVendorBuyWndfunc@@YAXPAD@Z ; StreetVendorBuyWndfunc
  00772	83 c4 04	 add	 esp, 4

; 2310 : 		if (((joy_trg[0] & JOY_ESC) && GetImeString() == NULL) || CheckMenuFlag())

  00775	b8 04 00 00 00	 mov	 eax, 4
  0077a	6b c8 00	 imul	 ecx, eax, 0
  0077d	8b 91 00 00 00
	00		 mov	 edx, DWORD PTR ?joy_trg@@3PAKA[ecx]
  00783	81 e2 00 00 00
	80		 and	 edx, -2147483648	; 80000000H
  00789	74 09		 je	 SHORT $LN63@fieldProc
  0078b	e8 00 00 00 00	 call	 ?GetImeString@@YAPADXZ	; GetImeString
  00790	85 c0		 test	 eax, eax
  00792	74 09		 je	 SHORT $LN62@fieldProc
$LN63@fieldProc:
  00794	e8 00 00 00 00	 call	 ?CheckMenuFlag@@YAHXZ	; CheckMenuFlag
  00799	85 c0		 test	 eax, eax
  0079b	74 27		 je	 SHORT $LN61@fieldProc
$LN62@fieldProc:

; 2311 : 		{
; 2312 : 			play_se(203, 320, 240);

  0079d	68 f0 00 00 00	 push	 240			; 000000f0H
  007a2	68 40 01 00 00	 push	 320			; 00000140H
  007a7	68 cb 00 00 00	 push	 203			; 000000cbH
  007ac	e8 00 00 00 00	 call	 ?play_se@@YAHHHH@Z	; play_se
  007b1	83 c4 0c	 add	 esp, 12			; 0000000cH

; 2313 : 			sStreetVendorBuyBtn = 0;

  007b4	33 c0		 xor	 eax, eax
  007b6	66 a3 00 00 00
	00		 mov	 WORD PTR ?sStreetVendorBuyBtn@@3FA, ax ; sStreetVendorBuyBtn

; 2314 : 			actBtn = 0;

  007bc	33 c0		 xor	 eax, eax
  007be	66 a3 00 00 00
	00		 mov	 WORD PTR ?actBtn@@3FA, ax ; actBtn
$LN61@fieldProc:

; 2315 : 		}
; 2316 : 	}
; 2317 : 	else

  007c4	eb 5d		 jmp	 SHORT $LN64@fieldProc
$LN59@fieldProc:

; 2318 : 	{
; 2319 : 		if (pActStreetVendorBuyWnd)

  007c6	83 3d 00 00 00
	00 00		 cmp	 DWORD PTR ?pActStreetVendorBuyWnd@@3PAUaction@@A, 0 ; pActStreetVendorBuyWnd
  007cd	74 54		 je	 SHORT $LN64@fieldProc

; 2320 : 		{
; 2321 : 			DeathAction(pActStreetVendorBuyWnd);

  007cf	a1 00 00 00 00	 mov	 eax, DWORD PTR ?pActStreetVendorBuyWnd@@3PAUaction@@A ; pActStreetVendorBuyWnd
  007d4	50		 push	 eax
  007d5	e8 00 00 00 00	 call	 ?DeathAction@@YAXPAUaction@@@Z ; DeathAction
  007da	83 c4 04	 add	 esp, 4

; 2322 : 			pActStreetVendorBuyWnd = NULL;

  007dd	c7 05 00 00 00
	00 00 00 00 00	 mov	 DWORD PTR ?pActStreetVendorBuyWnd@@3PAUaction@@A, 0 ; pActStreetVendorBuyWnd

; 2323 : 			actBtn = 0;

  007e7	33 c0		 xor	 eax, eax
  007e9	66 a3 00 00 00
	00		 mov	 WORD PTR ?actBtn@@3FA, ax ; actBtn

; 2324 : 			if (pShowPet != NULL)

  007ef	83 3d 00 00 00
	00 00		 cmp	 DWORD PTR ?pShowPet@@3PAUaction@@A, 0 ; pShowPet
  007f6	74 18		 je	 SHORT $LN65@fieldProc

; 2325 : 			{
; 2326 : 				DeathAction(pShowPet);

  007f8	a1 00 00 00 00	 mov	 eax, DWORD PTR ?pShowPet@@3PAUaction@@A ; pShowPet
  007fd	50		 push	 eax
  007fe	e8 00 00 00 00	 call	 ?DeathAction@@YAXPAUaction@@@Z ; DeathAction
  00803	83 c4 04	 add	 esp, 4

; 2327 : 				pShowPet = NULL;

  00806	c7 05 00 00 00
	00 00 00 00 00	 mov	 DWORD PTR ?pShowPet@@3PAUaction@@A, 0 ; pShowPet
$LN65@fieldProc:

; 2328 : 			}
; 2329 : 			lssproto_STREET_VENDOR_send(sockfd, "N|");

  00810	68 00 00 00 00	 push	 OFFSET ??_C@_02PJDALANN@N?$HM?$AA@
  00815	a1 00 00 00 00	 mov	 eax, DWORD PTR ?sockfd@@3IA ; sockfd
  0081a	50		 push	 eax
  0081b	e8 00 00 00 00	 call	 ?lssproto_STREET_VENDOR_send@@YAXHPAD@Z ; lssproto_STREET_VENDOR_send
  00820	83 c4 08	 add	 esp, 8
$LN64@fieldProc:

; 2330 : 		}
; 2331 : 	}
; 2332 : 	// ㄦ浜鸿喘涔版惰蛋ㄥ旆
; 2333 : 	if ((pc.iOnStreetVendor == 1 || sStreetVendorBuyBtn == 2) && (iOldGX != nowGx || iOldGY != nowGy))

  00823	83 3d b8 a1 00
	00 01		 cmp	 DWORD PTR ?pc@@3UPC@@A+41400, 1
  0082a	74 0c		 je	 SHORT $LN67@fieldProc
  0082c	0f bf 05 00 00
	00 00		 movsx	 eax, WORD PTR ?sStreetVendorBuyBtn@@3FA ; sStreetVendorBuyBtn
  00833	83 f8 02	 cmp	 eax, 2
  00836	75 7c		 jne	 SHORT $LN66@fieldProc
$LN67@fieldProc:
  00838	a1 00 00 00 00	 mov	 eax, DWORD PTR ?iOldGX@@3HA ; iOldGX
  0083d	3b 05 00 00 00
	00		 cmp	 eax, DWORD PTR ?nowGx@@3HA ; nowGx
  00843	75 0d		 jne	 SHORT $LN68@fieldProc
  00845	a1 00 00 00 00	 mov	 eax, DWORD PTR ?iOldGY@@3HA ; iOldGY
  0084a	3b 05 00 00 00
	00		 cmp	 eax, DWORD PTR ?nowGy@@3HA ; nowGy
  00850	74 62		 je	 SHORT $LN66@fieldProc
$LN68@fieldProc:

; 2334 : 	{
; 2335 : 		if (pc.iOnStreetVendor == 1)

  00852	83 3d b8 a1 00
	00 01		 cmp	 DWORD PTR ?pc@@3UPC@@A+41400, 1
  00859	75 13		 jne	 SHORT $LN69@fieldProc

; 2336 : 			lssproto_STREET_VENDOR_send(sockfd, "E|");

  0085b	68 00 00 00 00	 push	 OFFSET ??_C@_02PFGFFPDM@E?$HM?$AA@
  00860	a1 00 00 00 00	 mov	 eax, DWORD PTR ?sockfd@@3IA ; sockfd
  00865	50		 push	 eax
  00866	e8 00 00 00 00	 call	 ?lssproto_STREET_VENDOR_send@@YAXHPAD@Z ; lssproto_STREET_VENDOR_send
  0086b	83 c4 08	 add	 esp, 8
$LN69@fieldProc:

; 2337 : 		if (sStreetVendorBuyBtn == 2)

  0086e	0f bf 05 00 00
	00 00		 movsx	 eax, WORD PTR ?sStreetVendorBuyBtn@@3FA ; sStreetVendorBuyBtn
  00875	83 f8 02	 cmp	 eax, 2
  00878	75 13		 jne	 SHORT $LN70@fieldProc

; 2338 : 			lssproto_STREET_VENDOR_send(sockfd, "N|");

  0087a	68 00 00 00 00	 push	 OFFSET ??_C@_02PJDALANN@N?$HM?$AA@
  0087f	a1 00 00 00 00	 mov	 eax, DWORD PTR ?sockfd@@3IA ; sockfd
  00884	50		 push	 eax
  00885	e8 00 00 00 00	 call	 ?lssproto_STREET_VENDOR_send@@YAXHPAD@Z ; lssproto_STREET_VENDOR_send
  0088a	83 c4 08	 add	 esp, 8
$LN70@fieldProc:

; 2339 : 		pc.iOnStreetVendor = 0;

  0088d	c7 05 b8 a1 00
	00 00 00 00 00	 mov	 DWORD PTR ?pc@@3UPC@@A+41400, 0

; 2340 : 		sStreetVendorBtn = 0;

  00897	33 c0		 xor	 eax, eax
  00899	66 a3 00 00 00
	00		 mov	 WORD PTR ?sStreetVendorBtn@@3FA, ax ; sStreetVendorBtn

; 2341 : 		sStreetVendorBuyBtn = 0;

  0089f	33 c0		 xor	 eax, eax
  008a1	66 a3 00 00 00
	00		 mov	 WORD PTR ?sStreetVendorBuyBtn@@3FA, ax ; sStreetVendorBuyBtn

; 2342 : 		actBtn = 0;

  008a7	33 c0		 xor	 eax, eax
  008a9	66 a3 00 00 00
	00		 mov	 WORD PTR ?actBtn@@3FA, ax ; actBtn

; 2343 : 		closeCharActionAnimeChange();

  008af	e8 00 00 00 00	 call	 ?closeCharActionAnimeChange@@YAXXZ ; closeCharActionAnimeChange
$LN66@fieldProc:

; 2344 : 	}
; 2345 : 		
; 2346 : 	if (focusId == FIELD_FUNC_STREET_VENDOR)

  008b4	83 7d dc 09	 cmp	 DWORD PTR _focusId$[ebp], 9
  008b8	75 0d		 jne	 SHORT $LN71@fieldProc

; 2347 : 		sStreetVendorBtnFocus = 1;

  008ba	b8 01 00 00 00	 mov	 eax, 1
  008bf	66 a3 00 00 00
	00		 mov	 WORD PTR ?sStreetVendorBtnFocus@@3FA, ax ; sStreetVendorBtnFocus

; 2348 : 	else

  008c5	eb 08		 jmp	 SHORT $LN72@fieldProc
$LN71@fieldProc:

; 2349 : 		sStreetVendorBtnFocus = 0;

  008c7	33 c0		 xor	 eax, eax
  008c9	66 a3 00 00 00
	00		 mov	 WORD PTR ?sStreetVendorBtnFocus@@3FA, ax ; sStreetVendorBtnFocus
$LN72@fieldProc:

; 2350 : #else
; 2351 : #ifndef _BACK_VERSION
; 2352 : #ifdef _TABLEOFSKILL
; 2353 : 	if (pushId == FIELD_FUNC_SKILL)
; 2354 : 	{
; 2355 : 		if (selId == FIELD_FUNC_SKILL)
; 2356 : 		{
; 2357 : 			closeEtcSwitch();
; 2358 : 			closeJoinChannelWN();
; 2359 : 			if (CheckMenuFlag())
; 2360 : 				InitMenu2();
; 2361 : 			play_se(202, 320, 240);
; 2362 : 			actBtn = 1;
; 2363 : 			skillBtn = 1 ; 
; 2364 : 		}
; 2365 : 	}
; 2366 : 	if (skillBtn == 1)
; 2367 : 	{
; 2368 : 		//涓昏借绐藉
; 2369 : 		SkillWndfunc();
; 2370 : 		if (((joy_trg[0] & JOY_ESC) && GetImeString() == NULL) || CheckMenuFlag())
; 2371 : 		{
; 2372 : 			play_se(203, 320, 240);
; 2373 : 			skillBtn = 0 ; 
; 2374 : 			actBtn = 0 ; 
; 2375 : 		}
; 2376 : 	}
; 2377 : 	else
; 2378 : 	{
; 2379 : 		if (pActSkillWnd)
; 2380 : 		{
; 2381 : 			DeathAction(pActSkillWnd);
; 2382 : 			pActSkillWnd = NULL;
; 2383 : 		}
; 2384 : 	}		
; 2385 : 	if (focusId == FIELD_FUNC_SKILL)
; 2386 : 		skillBtnFocus = 1;
; 2387 : 	else 
; 2388 : 		skillBtnFocus = 0;
; 2389 : #endif //_TABLEOFSKILL
; 2390 : #endif //_BACK_VERSION
; 2391 : #endif //_STREET_VENDOR
; 2392 : 	if (pushId == FIELD_FUNC_CARD){

  008cf	83 7d e8 01	 cmp	 DWORD PTR _pushId$[ebp], 1
  008d3	0f 85 01 01 00
	00		 jne	 $LN73@fieldProc

; 2393 : 		cardBtn = 1;

  008d9	b8 01 00 00 00	 mov	 eax, 1
  008de	66 a3 00 00 00
	00		 mov	 WORD PTR ?cardBtn@@3FA, ax ; cardBtn

; 2394 : 		
; 2395 : 		if (selId == FIELD_FUNC_CARD){

  008e4	83 7d f4 01	 cmp	 DWORD PTR _selId$[ebp], 1
  008e8	0f 85 ea 00 00
	00		 jne	 $LN75@fieldProc

; 2396 : 			int dx, dy;
; 2397 : 			int flag;
; 2398 : 			getRouteData(pc.dir, &dx, &dy);

  008ee	8d 45 b8	 lea	 eax, DWORD PTR _dy$15[ebp]
  008f1	50		 push	 eax
  008f2	8d 4d c4	 lea	 ecx, DWORD PTR _dx$16[ebp]
  008f5	51		 push	 ecx
  008f6	8b 15 0c 00 00
	00		 mov	 edx, DWORD PTR ?pc@@3UPC@@A+12
  008fc	52		 push	 edx
  008fd	e8 00 00 00 00	 call	 ?getRouteData@@YAXHPAH0@Z ; getRouteData
  00902	83 c4 0c	 add	 esp, 12			; 0000000cH

; 2399 : 			flag = checkCharObjPoint(nowGx+dx, nowGy+dy, CHAROBJ_TYPE_USER_NPC);

  00905	6a 08		 push	 8
  00907	a1 00 00 00 00	 mov	 eax, DWORD PTR ?nowGy@@3HA ; nowGy
  0090c	03 45 b8	 add	 eax, DWORD PTR _dy$15[ebp]
  0090f	50		 push	 eax
  00910	8b 0d 00 00 00
	00		 mov	 ecx, DWORD PTR ?nowGx@@3HA ; nowGx
  00916	03 4d c4	 add	 ecx, DWORD PTR _dx$16[ebp]
  00919	51		 push	 ecx
  0091a	e8 00 00 00 00	 call	 ?checkCharObjPoint@@YAHHHF@Z ; checkCharObjPoint
  0091f	83 c4 0c	 add	 esp, 12			; 0000000cH
  00922	89 45 ac	 mov	 DWORD PTR _flag$14[ebp], eax

; 2400 : 			if (partyModeFlag == 0 && flag == TRUE && eventWarpSendFlag == 0 && eventEnemySendFlag == 0 && sendEnFlag == 0){

  00925	0f bf 05 00 00
	00 00		 movsx	 eax, WORD PTR ?partyModeFlag@@3FA ; partyModeFlag
  0092c	85 c0		 test	 eax, eax
  0092e	0f 85 8d 00 00
	00		 jne	 $LN77@fieldProc
  00934	83 7d ac 01	 cmp	 DWORD PTR _flag$14[ebp], 1
  00938	0f 85 83 00 00
	00		 jne	 $LN77@fieldProc
  0093e	0f bf 05 00 00
	00 00		 movsx	 eax, WORD PTR ?eventWarpSendFlag@@3FA ; eventWarpSendFlag
  00945	85 c0		 test	 eax, eax
  00947	75 78		 jne	 SHORT $LN77@fieldProc
  00949	0f bf 05 00 00
	00 00		 movsx	 eax, WORD PTR ?eventEnemySendFlag@@3FA ; eventEnemySendFlag
  00950	85 c0		 test	 eax, eax
  00952	75 6d		 jne	 SHORT $LN77@fieldProc
  00954	0f bf 05 00 00
	00 00		 movsx	 eax, WORD PTR ?sendEnFlag@@3FA ; sendEnFlag
  0095b	85 c0		 test	 eax, eax
  0095d	75 62		 jne	 SHORT $LN77@fieldProc

; 2401 : 				if (fieldBtnPushTime+FIELD_BTN_PUSH_WAIT < TimeGetTime()){

  0095f	8b 35 00 00 00
	00		 mov	 esi, DWORD PTR ?fieldBtnPushTime@@3IA ; fieldBtnPushTime
  00965	81 c6 f4 01 00
	00		 add	 esi, 500		; 000001f4H
  0096b	e8 00 00 00 00	 call	 ?TimeGetTime@@YAIXZ	; TimeGetTime
  00970	3b f0		 cmp	 esi, eax
  00972	73 4d		 jae	 SHORT $LN77@fieldProc

; 2402 : 					if (bNewServer)

  00974	83 3d 00 00 00
	00 00		 cmp	 DWORD PTR ?bNewServer@@3HA, 0 ; bNewServer
  0097b	74 1e		 je	 SHORT $LN78@fieldProc

; 2403 : 						lssproto_AAB_send(sockfd, nowGx, nowGy);

  0097d	a1 00 00 00 00	 mov	 eax, DWORD PTR ?nowGy@@3HA ; nowGy
  00982	50		 push	 eax
  00983	8b 0d 00 00 00
	00		 mov	 ecx, DWORD PTR ?nowGx@@3HA ; nowGx
  00989	51		 push	 ecx
  0098a	8b 15 00 00 00
	00		 mov	 edx, DWORD PTR ?sockfd@@3IA ; sockfd
  00990	52		 push	 edx
  00991	e8 00 00 00 00	 call	 ?lssproto_AAB_send@@YAXHHH@Z ; lssproto_AAB_send
  00996	83 c4 0c	 add	 esp, 12			; 0000000cH

; 2404 : 					else

  00999	eb 1c		 jmp	 SHORT $LN79@fieldProc
$LN78@fieldProc:

; 2405 : 						old_lssproto_AAB_send(sockfd, nowGx, nowGy);

  0099b	a1 00 00 00 00	 mov	 eax, DWORD PTR ?nowGy@@3HA ; nowGy
  009a0	50		 push	 eax
  009a1	8b 0d 00 00 00
	00		 mov	 ecx, DWORD PTR ?nowGx@@3HA ; nowGx
  009a7	51		 push	 ecx
  009a8	8b 15 00 00 00
	00		 mov	 edx, DWORD PTR ?sockfd@@3IA ; sockfd
  009ae	52		 push	 edx
  009af	e8 00 00 00 00	 call	 ?old_lssproto_AAB_send@@YAXHHH@Z ; old_lssproto_AAB_send
  009b4	83 c4 0c	 add	 esp, 12			; 0000000cH
$LN79@fieldProc:

; 2406 : 					fieldBtnPushTime = TimeGetTime();

  009b7	e8 00 00 00 00	 call	 ?TimeGetTime@@YAIXZ	; TimeGetTime
  009bc	a3 00 00 00 00	 mov	 DWORD PTR ?fieldBtnPushTime@@3IA, eax ; fieldBtnPushTime
$LN77@fieldProc:

; 2407 : 				}
; 2408 : 			}
; 2409 : 			play_se(217, 320, 240);	// ?????

  009c1	68 f0 00 00 00	 push	 240			; 000000f0H
  009c6	68 40 01 00 00	 push	 320			; 00000140H
  009cb	68 d9 00 00 00	 push	 217			; 000000d9H
  009d0	e8 00 00 00 00	 call	 ?play_se@@YAHHHH@Z	; play_se
  009d5	83 c4 0c	 add	 esp, 12			; 0000000cH
$LN75@fieldProc:

; 2410 : 		}
; 2411 : 	}
; 2412 : 	else

  009d8	eb 08		 jmp	 SHORT $LN74@fieldProc
$LN73@fieldProc:

; 2413 : 		cardBtn = 0;

  009da	33 c0		 xor	 eax, eax
  009dc	66 a3 00 00 00
	00		 mov	 WORD PTR ?cardBtn@@3FA, ax ; cardBtn
$LN74@fieldProc:

; 2414 : 	if (focusId == FIELD_FUNC_CARD)

  009e2	83 7d dc 01	 cmp	 DWORD PTR _focusId$[ebp], 1
  009e6	75 0d		 jne	 SHORT $LN80@fieldProc

; 2415 : 		cardBtnFocus = 1;		// ???????????????

  009e8	b8 01 00 00 00	 mov	 eax, 1
  009ed	66 a3 00 00 00
	00		 mov	 WORD PTR ?cardBtnFocus@@3FA, ax ; cardBtnFocus

; 2416 : 	else

  009f3	eb 08		 jmp	 SHORT $LN81@fieldProc
$LN80@fieldProc:

; 2417 : 		cardBtnFocus = 0;

  009f5	33 c0		 xor	 eax, eax
  009f7	66 a3 00 00 00
	00		 mov	 WORD PTR ?cardBtnFocus@@3FA, ax ; cardBtnFocus
$LN81@fieldProc:

; 2418 : 
; 2419 : #ifdef _FRIENDCHANNEL			//ROG ADD 濂藉棰
; 2420 : 	if (pushId == FIELD_FUNC_CHATROOM){

  009fd	83 7d e8 0a	 cmp	 DWORD PTR _pushId$[ebp], 10 ; 0000000aH
  00a01	0f 85 d4 00 00
	00		 jne	 $LN93@fieldProc

; 2421 : 		if( selId == FIELD_FUNC_CHATROOM){

  00a07	83 7d f4 0a	 cmp	 DWORD PTR _selId$[ebp], 10 ; 0000000aH
  00a0b	0f 85 ca 00 00
	00		 jne	 $LN93@fieldProc

; 2422 : 			closeEtcSwitch();

  00a11	e8 00 00 00 00	 call	 ?closeEtcSwitch@@YAXXZ	; closeEtcSwitch

; 2423 : 			closeJoinChannelWN();

  00a16	e8 00 00 00 00	 call	 ?closeJoinChannelWN@@YAXXZ ; closeJoinChannelWN

; 2424 : 			if (CheckMenuFlag())

  00a1b	e8 00 00 00 00	 call	 ?CheckMenuFlag@@YAHXZ	; CheckMenuFlag
  00a20	85 c0		 test	 eax, eax
  00a22	74 05		 je	 SHORT $LN84@fieldProc

; 2425 : 				InitMenu2();

  00a24	e8 00 00 00 00	 call	 ?InitMenu2@@YAXXZ	; InitMenu2
$LN84@fieldProc:

; 2426 : 			
; 2427 : 			if (strcmp(pc.chatRoomNum, "") == 0){

  00a29	68 00 00 00 00	 push	 OFFSET ??_C@_00CNPNBAHC@?$AA@
  00a2e	68 b4 a1 00 00	 push	 OFFSET ?pc@@3UPC@@A+41396
  00a33	e8 00 00 00 00	 call	 _strcmp
  00a38	83 c4 08	 add	 esp, 8
  00a3b	85 c0		 test	 eax, eax
  00a3d	75 34		 jne	 SHORT $LN85@fieldProc

; 2428 : 				if (SelRoomBtn == 1 || pSelChanlWnd != NULL)

  00a3f	0f bf 05 00 00
	00 00		 movsx	 eax, WORD PTR ?SelRoomBtn@@3FA ; SelRoomBtn
  00a46	83 f8 01	 cmp	 eax, 1
  00a49	74 09		 je	 SHORT $LN89@fieldProc
  00a4b	83 3d 00 00 00
	00 00		 cmp	 DWORD PTR ?pSelChanlWnd@@3PAUaction@@A, 0 ; pSelChanlWnd
  00a52	74 0a		 je	 SHORT $LN87@fieldProc
$LN89@fieldProc:

; 2429 : 					SelRoomBtn = 0;

  00a54	33 c0		 xor	 eax, eax
  00a56	66 a3 00 00 00
	00		 mov	 WORD PTR ?SelRoomBtn@@3FA, ax ; SelRoomBtn

; 2430 : 				else

  00a5c	eb 13		 jmp	 SHORT $LN88@fieldProc
$LN87@fieldProc:

; 2431 : 				{
; 2432 : 				/*
; 2433 : 				// WON ADD	叉浼澶棰绻
; 2434 : 				{
; 2435 : 				unsigned int now_time = (unsigned int)time(NULL);
; 2436 : 				static unsigned int old_time = 0;
; 2437 : 				
; 2438 : 				  chatRoomBtn = 1;
; 2439 : 				  
; 2440 : 					if( now_time > old_time ){
; 2441 : 					
; 2442 : 					  old_time = now_time + 10;
; 2443 : 					  
; 2444 : 						lssproto_CHATROOM_send( sockfd,"B|");
; 2445 : 						}
; 2446 : 						}
; 2447 : 						
; 2448 : 						  old_time = now_time + 10;
; 2449 : 					*/
; 2450 : #ifdef _CHATROOMPROTOCOL
; 2451 : 					lssproto_CHATROOM_send(sockfd, "B|");

  00a5e	68 00 00 00 00	 push	 OFFSET ??_C@_02PACKEJLJ@B?$HM?$AA@
  00a63	a1 00 00 00 00	 mov	 eax, DWORD PTR ?sockfd@@3IA ; sockfd
  00a68	50		 push	 eax
  00a69	e8 00 00 00 00	 call	 ?lssproto_CHATROOM_send@@YAXHPAD@Z ; lssproto_CHATROOM_send
  00a6e	83 c4 08	 add	 esp, 8
$LN88@fieldProc:

; 2452 : #endif
; 2453 : 				}
; 2454 : 			}else{

  00a71	eb 2a		 jmp	 SHORT $LN91@fieldProc
$LN85@fieldProc:

; 2455 : 				if (chatRoomBtn == 1 || pChtChanlWnd != NULL)

  00a73	0f bf 05 00 00
	00 00		 movsx	 eax, WORD PTR ?chatRoomBtn@@3FA ; chatRoomBtn
  00a7a	83 f8 01	 cmp	 eax, 1
  00a7d	74 09		 je	 SHORT $LN92@fieldProc
  00a7f	83 3d 00 00 00
	00 00		 cmp	 DWORD PTR ?pChtChanlWnd@@3PAUaction@@A, 0 ; pChtChanlWnd
  00a86	74 0a		 je	 SHORT $LN90@fieldProc
$LN92@fieldProc:

; 2456 : 					chatRoomBtn = 0;

  00a88	33 c0		 xor	 eax, eax
  00a8a	66 a3 00 00 00
	00		 mov	 WORD PTR ?chatRoomBtn@@3FA, ax ; chatRoomBtn

; 2457 : 				else

  00a90	eb 0b		 jmp	 SHORT $LN91@fieldProc
$LN90@fieldProc:

; 2458 : 					chatRoomBtn = 1;

  00a92	b8 01 00 00 00	 mov	 eax, 1
  00a97	66 a3 00 00 00
	00		 mov	 WORD PTR ?chatRoomBtn@@3FA, ax ; chatRoomBtn
$LN91@fieldProc:

; 2459 : 			}
; 2460 : 			if ((joy_trg[0] & JOY_ESC) || CheckMenuFlag())

  00a9d	b8 04 00 00 00	 mov	 eax, 4
  00aa2	6b c8 00	 imul	 ecx, eax, 0
  00aa5	8b 91 00 00 00
	00		 mov	 edx, DWORD PTR ?joy_trg@@3PAKA[ecx]
  00aab	81 e2 00 00 00
	80		 and	 edx, -2147483648	; 80000000H
  00ab1	75 09		 jne	 SHORT $LN94@fieldProc
  00ab3	e8 00 00 00 00	 call	 ?CheckMenuFlag@@YAHXZ	; CheckMenuFlag
  00ab8	85 c0		 test	 eax, eax
  00aba	74 1f		 je	 SHORT $LN93@fieldProc
$LN94@fieldProc:

; 2461 : 			{
; 2462 : 				play_se(203, 320, 240);

  00abc	68 f0 00 00 00	 push	 240			; 000000f0H
  00ac1	68 40 01 00 00	 push	 320			; 00000140H
  00ac6	68 cb 00 00 00	 push	 203			; 000000cbH
  00acb	e8 00 00 00 00	 call	 ?play_se@@YAHHHH@Z	; play_se
  00ad0	83 c4 0c	 add	 esp, 12			; 0000000cH

; 2463 : 				chatRoomBtn = 0 ; 

  00ad3	33 c0		 xor	 eax, eax
  00ad5	66 a3 00 00 00
	00		 mov	 WORD PTR ?chatRoomBtn@@3FA, ax ; chatRoomBtn
$LN93@fieldProc:

; 2464 : 			}
; 2465 : 		}
; 2466 : 	}
; 2467 : 		
; 2468 : 	if(SelRoomBtn == 1)

  00adb	0f bf 05 00 00
	00 00		 movsx	 eax, WORD PTR ?SelRoomBtn@@3FA ; SelRoomBtn
  00ae2	83 f8 01	 cmp	 eax, 1
  00ae5	75 51		 jne	 SHORT $LN95@fieldProc

; 2469 : 	{
; 2470 : 		SelectChatRoom();

  00ae7	e8 00 00 00 00	 call	 ?SelectChatRoom@@YAXXZ	; SelectChatRoom

; 2471 : 		if (((joy_trg[0] & JOY_ESC) && GetImeString() == NULL) || CheckMenuFlag())

  00aec	b8 04 00 00 00	 mov	 eax, 4
  00af1	6b c8 00	 imul	 ecx, eax, 0
  00af4	8b 91 00 00 00
	00		 mov	 edx, DWORD PTR ?joy_trg@@3PAKA[ecx]
  00afa	81 e2 00 00 00
	80		 and	 edx, -2147483648	; 80000000H
  00b00	74 09		 je	 SHORT $LN99@fieldProc
  00b02	e8 00 00 00 00	 call	 ?GetImeString@@YAPADXZ	; GetImeString
  00b07	85 c0		 test	 eax, eax
  00b09	74 09		 je	 SHORT $LN98@fieldProc
$LN99@fieldProc:
  00b0b	e8 00 00 00 00	 call	 ?CheckMenuFlag@@YAHXZ	; CheckMenuFlag
  00b10	85 c0		 test	 eax, eax
  00b12	74 1f		 je	 SHORT $LN97@fieldProc
$LN98@fieldProc:

; 2472 : 		{
; 2473 : 			play_se(203, 320, 240);

  00b14	68 f0 00 00 00	 push	 240			; 000000f0H
  00b19	68 40 01 00 00	 push	 320			; 00000140H
  00b1e	68 cb 00 00 00	 push	 203			; 000000cbH
  00b23	e8 00 00 00 00	 call	 ?play_se@@YAHHHH@Z	; play_se
  00b28	83 c4 0c	 add	 esp, 12			; 0000000cH

; 2474 : 			SelRoomBtn = 0 ; 

  00b2b	33 c0		 xor	 eax, eax
  00b2d	66 a3 00 00 00
	00		 mov	 WORD PTR ?SelRoomBtn@@3FA, ax ; SelRoomBtn
$LN97@fieldProc:

; 2475 : 		}
; 2476 : 	}

  00b33	e9 9c 00 00 00	 jmp	 $LN106@fieldProc
$LN95@fieldProc:

; 2477 : 	else if(chatRoomBtn == 1)

  00b38	0f bf 05 00 00
	00 00		 movsx	 eax, WORD PTR ?chatRoomBtn@@3FA ; chatRoomBtn
  00b3f	83 f8 01	 cmp	 eax, 1
  00b42	75 4e		 jne	 SHORT $LN100@fieldProc

; 2478 : 	{
; 2479 : 		ChatRoomWnd();

  00b44	e8 00 00 00 00	 call	 ?ChatRoomWnd@@YAXXZ	; ChatRoomWnd

; 2480 : 		if (((joy_trg[0] & JOY_ESC) && GetImeString() == NULL) || CheckMenuFlag())

  00b49	b8 04 00 00 00	 mov	 eax, 4
  00b4e	6b c8 00	 imul	 ecx, eax, 0
  00b51	8b 91 00 00 00
	00		 mov	 edx, DWORD PTR ?joy_trg@@3PAKA[ecx]
  00b57	81 e2 00 00 00
	80		 and	 edx, -2147483648	; 80000000H
  00b5d	74 09		 je	 SHORT $LN104@fieldProc
  00b5f	e8 00 00 00 00	 call	 ?GetImeString@@YAPADXZ	; GetImeString
  00b64	85 c0		 test	 eax, eax
  00b66	74 09		 je	 SHORT $LN103@fieldProc
$LN104@fieldProc:
  00b68	e8 00 00 00 00	 call	 ?CheckMenuFlag@@YAHXZ	; CheckMenuFlag
  00b6d	85 c0		 test	 eax, eax
  00b6f	74 1f		 je	 SHORT $LN102@fieldProc
$LN103@fieldProc:

; 2481 : 		{
; 2482 : 			play_se(203, 320, 240);

  00b71	68 f0 00 00 00	 push	 240			; 000000f0H
  00b76	68 40 01 00 00	 push	 320			; 00000140H
  00b7b	68 cb 00 00 00	 push	 203			; 000000cbH
  00b80	e8 00 00 00 00	 call	 ?play_se@@YAHHHH@Z	; play_se
  00b85	83 c4 0c	 add	 esp, 12			; 0000000cH

; 2483 : 			chatRoomBtn = 0 ; 

  00b88	33 c0		 xor	 eax, eax
  00b8a	66 a3 00 00 00
	00		 mov	 WORD PTR ?chatRoomBtn@@3FA, ax ; chatRoomBtn
$LN102@fieldProc:

; 2484 : 		}
; 2485 : 	}
; 2486 : 	else

  00b90	eb 42		 jmp	 SHORT $LN106@fieldProc
$LN100@fieldProc:

; 2487 : 	{
; 2488 : 		if (pChtChanlWnd)

  00b92	83 3d 00 00 00
	00 00		 cmp	 DWORD PTR ?pChtChanlWnd@@3PAUaction@@A, 0 ; pChtChanlWnd
  00b99	74 18		 je	 SHORT $LN105@fieldProc

; 2489 : 		{
; 2490 : 			DeathAction(pChtChanlWnd);

  00b9b	a1 00 00 00 00	 mov	 eax, DWORD PTR ?pChtChanlWnd@@3PAUaction@@A ; pChtChanlWnd
  00ba0	50		 push	 eax
  00ba1	e8 00 00 00 00	 call	 ?DeathAction@@YAXPAUaction@@@Z ; DeathAction
  00ba6	83 c4 04	 add	 esp, 4

; 2491 : 			pChtChanlWnd = NULL;

  00ba9	c7 05 00 00 00
	00 00 00 00 00	 mov	 DWORD PTR ?pChtChanlWnd@@3PAUaction@@A, 0 ; pChtChanlWnd
$LN105@fieldProc:

; 2492 : 		}
; 2493 : 		if( pSelChanlWnd)

  00bb3	83 3d 00 00 00
	00 00		 cmp	 DWORD PTR ?pSelChanlWnd@@3PAUaction@@A, 0 ; pSelChanlWnd
  00bba	74 18		 je	 SHORT $LN106@fieldProc

; 2494 : 		{
; 2495 : 			DeathAction(pSelChanlWnd);

  00bbc	a1 00 00 00 00	 mov	 eax, DWORD PTR ?pSelChanlWnd@@3PAUaction@@A ; pSelChanlWnd
  00bc1	50		 push	 eax
  00bc2	e8 00 00 00 00	 call	 ?DeathAction@@YAXPAUaction@@@Z ; DeathAction
  00bc7	83 c4 04	 add	 esp, 4

; 2496 : 			pSelChanlWnd = NULL;

  00bca	c7 05 00 00 00
	00 00 00 00 00	 mov	 DWORD PTR ?pSelChanlWnd@@3PAUaction@@A, 0 ; pSelChanlWnd
$LN106@fieldProc:

; 2497 : 		}
; 2498 : 	}	
; 2499 : 		
; 2500 : 	if (focusId == FIELD_FUNC_CHATROOM)

  00bd4	83 7d dc 0a	 cmp	 DWORD PTR _focusId$[ebp], 10 ; 0000000aH
  00bd8	75 0d		 jne	 SHORT $LN107@fieldProc

; 2501 : 		chatRoomBtnFocus = 1;

  00bda	b8 01 00 00 00	 mov	 eax, 1
  00bdf	66 a3 00 00 00
	00		 mov	 WORD PTR ?chatRoomBtnFocus@@3FA, ax ; chatRoomBtnFocus

; 2502 : 	else

  00be5	eb 08		 jmp	 SHORT $LN108@fieldProc
$LN107@fieldProc:

; 2503 : 		chatRoomBtnFocus = 0;	

  00be7	33 c0		 xor	 eax, eax
  00be9	66 a3 00 00 00
	00		 mov	 WORD PTR ?chatRoomBtnFocus@@3FA, ax ; chatRoomBtnFocus
$LN108@fieldProc:

; 2504 : #endif
; 2505 : 	
; 2506 : 	// Robin 04/11 Trade
; 2507 : 	if (pushId == FIELD_FUNC_TRADE)

  00bef	83 7d e8 06	 cmp	 DWORD PTR _pushId$[ebp], 6
  00bf3	0f 85 2d 01 00
	00		 jne	 $LN109@fieldProc

; 2508 : 	{
; 2509 : 		tradeBtn = 1;

  00bf9	b8 01 00 00 00	 mov	 eax, 1
  00bfe	66 a3 00 00 00
	00		 mov	 WORD PTR ?tradeBtn@@3FA, ax ; tradeBtn

; 2510 : 		
; 2511 : 		if (selId == FIELD_FUNC_TRADE)

  00c04	83 7d f4 06	 cmp	 DWORD PTR _selId$[ebp], 6
  00c08	0f 85 16 01 00
	00		 jne	 $LN111@fieldProc

; 2512 : 		{
; 2513 : 			int dx, dy;
; 2514 : 			int flag;
; 2515 : 			
; 2516 : 			// ?睢??????????
; 2517 : 			getRouteData(pc.dir, &dx, &dy);

  00c0e	8d 45 94	 lea	 eax, DWORD PTR _dy$12[ebp]
  00c11	50		 push	 eax
  00c12	8d 4d a0	 lea	 ecx, DWORD PTR _dx$13[ebp]
  00c15	51		 push	 ecx
  00c16	8b 15 0c 00 00
	00		 mov	 edx, DWORD PTR ?pc@@3UPC@@A+12
  00c1c	52		 push	 edx
  00c1d	e8 00 00 00 00	 call	 ?getRouteData@@YAXHPAH0@Z ; getRouteData
  00c22	83 c4 0c	 add	 esp, 12			; 0000000cH

; 2518 : 			flag = checkCharObjPoint(nowGx+dx, nowGy+dy, CHAROBJ_TYPE_USER_NPC);

  00c25	6a 08		 push	 8
  00c27	a1 00 00 00 00	 mov	 eax, DWORD PTR ?nowGy@@3HA ; nowGy
  00c2c	03 45 94	 add	 eax, DWORD PTR _dy$12[ebp]
  00c2f	50		 push	 eax
  00c30	8b 0d 00 00 00
	00		 mov	 ecx, DWORD PTR ?nowGx@@3HA ; nowGx
  00c36	03 4d a0	 add	 ecx, DWORD PTR _dx$13[ebp]
  00c39	51		 push	 ecx
  00c3a	e8 00 00 00 00	 call	 ?checkCharObjPoint@@YAHHHF@Z ; checkCharObjPoint
  00c3f	83 c4 0c	 add	 esp, 12			; 0000000cH
  00c42	89 45 88	 mov	 DWORD PTR _flag$11[ebp], eax

; 2519 : 			// ???????????睢???????
; 2520 : 			if (partyModeFlag == 0 && flag == TRUE && eventWarpSendFlag == 0 && eventEnemySendFlag == 0
; 2521 : 				&& sendEnFlag == 0 && tradeFlag == 0
; 2522 : #ifdef _STREET_VENDOR
; 2523 : 				&& (pc.iOnStreetVendor == 0 || sStreetVendorBuyBtn == 2)

  00c45	0f bf 05 00 00
	00 00		 movsx	 eax, WORD PTR ?partyModeFlag@@3FA ; partyModeFlag
  00c4c	85 c0		 test	 eax, eax
  00c4e	0f 85 9f 00 00
	00		 jne	 $LN114@fieldProc
  00c54	83 7d 88 01	 cmp	 DWORD PTR _flag$11[ebp], 1
  00c58	0f 85 95 00 00
	00		 jne	 $LN114@fieldProc
  00c5e	0f bf 05 00 00
	00 00		 movsx	 eax, WORD PTR ?eventWarpSendFlag@@3FA ; eventWarpSendFlag
  00c65	85 c0		 test	 eax, eax
  00c67	0f 85 86 00 00
	00		 jne	 $LN114@fieldProc
  00c6d	0f bf 05 00 00
	00 00		 movsx	 eax, WORD PTR ?eventEnemySendFlag@@3FA ; eventEnemySendFlag
  00c74	85 c0		 test	 eax, eax
  00c76	75 7b		 jne	 SHORT $LN114@fieldProc
  00c78	0f bf 05 00 00
	00 00		 movsx	 eax, WORD PTR ?sendEnFlag@@3FA ; sendEnFlag
  00c7f	85 c0		 test	 eax, eax
  00c81	75 70		 jne	 SHORT $LN114@fieldProc
  00c83	0f bf 05 00 00
	00 00		 movsx	 eax, WORD PTR ?tradeFlag@@3FA ; tradeFlag
  00c8a	85 c0		 test	 eax, eax
  00c8c	75 65		 jne	 SHORT $LN114@fieldProc
  00c8e	83 3d b8 a1 00
	00 00		 cmp	 DWORD PTR ?pc@@3UPC@@A+41400, 0
  00c95	74 0c		 je	 SHORT $LN113@fieldProc
  00c97	0f bf 05 00 00
	00 00		 movsx	 eax, WORD PTR ?sStreetVendorBuyBtn@@3FA ; sStreetVendorBuyBtn
  00c9e	83 f8 02	 cmp	 eax, 2
  00ca1	75 50		 jne	 SHORT $LN114@fieldProc
$LN113@fieldProc:

; 2524 : #endif
; 2525 : 
; 2526 : 			)
; 2527 : 			{
; 2528 : 				if (fieldBtnPushTime+FIELD_BTN_PUSH_WAIT < TimeGetTime())// ??

  00ca3	8b 35 00 00 00
	00		 mov	 esi, DWORD PTR ?fieldBtnPushTime@@3IA ; fieldBtnPushTime
  00ca9	81 c6 f4 01 00
	00		 add	 esi, 500		; 000001f4H
  00caf	e8 00 00 00 00	 call	 ?TimeGetTime@@YAIXZ	; TimeGetTime
  00cb4	3b f0		 cmp	 esi, eax
  00cb6	73 3b		 jae	 SHORT $LN114@fieldProc

; 2529 : 				{
; 2530 : 					if (bNewServer)

  00cb8	83 3d 00 00 00
	00 00		 cmp	 DWORD PTR ?bNewServer@@3HA, 0 ; bNewServer
  00cbf	74 15		 je	 SHORT $LN115@fieldProc

; 2531 : 						lssproto_TD_send(sockfd, "D|D");

  00cc1	68 00 00 00 00	 push	 OFFSET ??_C@_03DDDPELM@D?$HMD?$AA@
  00cc6	a1 00 00 00 00	 mov	 eax, DWORD PTR ?sockfd@@3IA ; sockfd
  00ccb	50		 push	 eax
  00ccc	e8 00 00 00 00	 call	 ?lssproto_TD_send@@YAXHPAD@Z ; lssproto_TD_send
  00cd1	83 c4 08	 add	 esp, 8

; 2532 : 					else

  00cd4	eb 13		 jmp	 SHORT $LN116@fieldProc
$LN115@fieldProc:

; 2533 : 						old_lssproto_TD_send(sockfd, "D|D");

  00cd6	68 00 00 00 00	 push	 OFFSET ??_C@_03DDDPELM@D?$HMD?$AA@
  00cdb	a1 00 00 00 00	 mov	 eax, DWORD PTR ?sockfd@@3IA ; sockfd
  00ce0	50		 push	 eax
  00ce1	e8 00 00 00 00	 call	 ?old_lssproto_TD_send@@YAXHPAD@Z ; old_lssproto_TD_send
  00ce6	83 c4 08	 add	 esp, 8
$LN116@fieldProc:

; 2534 : 					fieldBtnPushTime = TimeGetTime();

  00ce9	e8 00 00 00 00	 call	 ?TimeGetTime@@YAIXZ	; TimeGetTime
  00cee	a3 00 00 00 00	 mov	 DWORD PTR ?fieldBtnPushTime@@3IA, eax ; fieldBtnPushTime
$LN114@fieldProc:

; 2535 : 				}
; 2536 : 			}
; 2537 : #ifdef _STREET_VENDOR
; 2538 : 			if (pc.iOnStreetVendor == 1)

  00cf3	83 3d b8 a1 00
	00 01		 cmp	 DWORD PTR ?pc@@3UPC@@A+41400, 1
  00cfa	75 11		 jne	 SHORT $LN117@fieldProc

; 2539 : 				StockChatBufferLine("胳 甑 挫  ", FONT_PAL_RED);

  00cfc	6a 00		 push	 0
  00cfe	6a 06		 push	 6
  00d00	68 00 00 00 00	 push	 OFFSET ??_C@_0CB@GPKKMDCO@?$LD?k?A?$KB?$LL?s?$LP?$KB?$LM?$KN?5?$LB?$LD?H?$KP?$MA?$LL?5?G?X?$LM?$KN?$LE?B?5?$LO?H?5?$LF?H?$LE?Y@
  00d05	e8 00 00 00 00	 call	 ?StockChatBufferLine@@YAXPADEH@Z ; StockChatBufferLine
  00d0a	83 c4 0c	 add	 esp, 12			; 0000000cH
$LN117@fieldProc:

; 2540 : #endif
; 2541 : 			play_se(217, 320, 240);	// ?????

  00d0d	68 f0 00 00 00	 push	 240			; 000000f0H
  00d12	68 40 01 00 00	 push	 320			; 00000140H
  00d17	68 d9 00 00 00	 push	 217			; 000000d9H
  00d1c	e8 00 00 00 00	 call	 ?play_se@@YAHHHH@Z	; play_se
  00d21	83 c4 0c	 add	 esp, 12			; 0000000cH
$LN111@fieldProc:

; 2542 : 		}
; 2543 : 	}
; 2544 : 	else

  00d24	eb 08		 jmp	 SHORT $LN110@fieldProc
$LN109@fieldProc:

; 2545 : 		tradeBtn = 0;

  00d26	33 c0		 xor	 eax, eax
  00d28	66 a3 00 00 00
	00		 mov	 WORD PTR ?tradeBtn@@3FA, ax ; tradeBtn
$LN110@fieldProc:

; 2546 : 	if (focusId == FIELD_FUNC_TRADE)

  00d2e	83 7d dc 06	 cmp	 DWORD PTR _focusId$[ebp], 6
  00d32	75 0d		 jne	 SHORT $LN118@fieldProc

; 2547 : 		tradeBtnFocus = 1;		// ???????????????

  00d34	b8 01 00 00 00	 mov	 eax, 1
  00d39	66 a3 00 00 00
	00		 mov	 WORD PTR ?tradeBtnFocus@@3FA, ax ; tradeBtnFocus

; 2548 : 	else

  00d3f	eb 08		 jmp	 SHORT $LN119@fieldProc
$LN118@fieldProc:

; 2549 : 		tradeBtnFocus = 0;

  00d41	33 c0		 xor	 eax, eax
  00d43	66 a3 00 00 00
	00		 mov	 WORD PTR ?tradeBtnFocus@@3FA, ax ; tradeBtnFocus
$LN119@fieldProc:

; 2550 : #ifdef _ANGEL_SUMMON
; 2551 : 	if (pushId == FIELD_FUNC_ANGEL)

  00d49	83 7d e8 0b	 cmp	 DWORD PTR _pushId$[ebp], 11 ; 0000000bH
  00d4d	0f 85 f5 00 00
	00		 jne	 $LN120@fieldProc

; 2552 : 	{
; 2553 : 		angelBtn = 1;

  00d53	b8 01 00 00 00	 mov	 eax, 1
  00d58	66 a3 00 00 00
	00		 mov	 WORD PTR ?angelBtn@@3FA, ax ; angelBtn

; 2554 : 		
; 2555 : 		if (selId == FIELD_FUNC_ANGEL)

  00d5e	83 7d f4 0b	 cmp	 DWORD PTR _selId$[ebp], 11 ; 0000000bH
  00d62	0f 85 de 00 00
	00		 jne	 $LN122@fieldProc

; 2556 : 		{
; 2557 : 			if (fieldBtnPushTime+FIELD_BTN_PUSH_WAIT < TimeGetTime())// ??

  00d68	8b 35 00 00 00
	00		 mov	 esi, DWORD PTR ?fieldBtnPushTime@@3IA ; fieldBtnPushTime
  00d6e	81 c6 f4 01 00
	00		 add	 esi, 500		; 000001f4H
  00d74	e8 00 00 00 00	 call	 ?TimeGetTime@@YAIXZ	; TimeGetTime
  00d79	3b f0		 cmp	 esi, eax
  00d7b	0f 83 ae 00 00
	00		 jae	 $LN123@fieldProc

; 2558 : 			{
; 2559 : 				//lssproto_WN_send( sockfd, nowGx, nowGy, WINDOW_MESSAGETYPE_ANGELMESSAGE, , WINDOW_BUTTONTYPE_YES, msg ) ;
; 2560 : 				if (angelFlag)

  00d81	83 3d 00 00 00
	00 00		 cmp	 DWORD PTR ?angelFlag@@3HA, 0 ; angelFlag
  00d88	74 20		 je	 SHORT $LN124@fieldProc

; 2561 : 					openServerWindow(WINDOW_MESSAGETYPE_MESSAGE, angelRecvButton, angelRecvType, -1, angelMsg);

  00d8a	68 00 00 00 00	 push	 OFFSET ?angelMsg@@3PADA	; angelMsg
  00d8f	6a ff		 push	 -1
  00d91	a1 00 00 00 00	 mov	 eax, DWORD PTR ?angelRecvType@@3HA ; angelRecvType
  00d96	50		 push	 eax
  00d97	8b 0d 00 00 00
	00		 mov	 ecx, DWORD PTR ?angelRecvButton@@3HA ; angelRecvButton
  00d9d	51		 push	 ecx
  00d9e	6a 00		 push	 0
  00da0	e8 00 00 00 00	 call	 ?openServerWindow@@YAXHHHHPAD@Z ; openServerWindow
  00da5	83 c4 14	 add	 esp, 20			; 00000014H

; 2562 : 				else

  00da8	eb 7b		 jmp	 SHORT $LN127@fieldProc
$LN124@fieldProc:

; 2563 : 				{
; 2564 : 					if (helpBtn == 0)

  00daa	0f bf 05 00 00
	00 00		 movsx	 eax, WORD PTR ?helpBtn@@3FA ; helpBtn
  00db1	85 c0		 test	 eax, eax
  00db3	75 65		 jne	 SHORT $LN126@fieldProc

; 2565 : 					{
; 2566 : 						// ???㈩?锛锛???????????????????????
; 2567 : 						// ???????????睢??
; 2568 : 						closeEtcSwitch();

  00db5	e8 00 00 00 00	 call	 ?closeEtcSwitch@@YAXXZ	; closeEtcSwitch

; 2569 : 						closeJoinChannelWN();

  00dba	e8 00 00 00 00	 call	 ?closeJoinChannelWN@@YAXXZ ; closeJoinChannelWN

; 2570 : 						// ???????????
; 2571 : 						if (CheckMenuFlag())

  00dbf	e8 00 00 00 00	 call	 ?CheckMenuFlag@@YAHXZ	; CheckMenuFlag
  00dc4	85 c0		 test	 eax, eax
  00dc6	74 05		 je	 SHORT $LN128@fieldProc

; 2572 : 							InitMenu2();

  00dc8	e8 00 00 00 00	 call	 ?InitMenu2@@YAXXZ	; InitMenu2
$LN128@fieldProc:

; 2573 : 						HelpProcNo = 0;

  00dcd	33 c0		 xor	 eax, eax
  00dcf	66 a3 00 00 00
	00		 mov	 WORD PTR ?HelpProcNo@@3FA, ax ; HelpProcNo

; 2574 : 						helpBtn = 1;

  00dd5	b8 01 00 00 00	 mov	 eax, 1
  00dda	66 a3 00 00 00
	00		 mov	 WORD PTR ?helpBtn@@3FA, ax ; helpBtn

; 2575 : 						actBtn = 1;

  00de0	b8 01 00 00 00	 mov	 eax, 1
  00de5	66 a3 00 00 00
	00		 mov	 WORD PTR ?actBtn@@3FA, ax ; actBtn

; 2576 : 						jumpHelpPage = 52;

  00deb	b8 34 00 00 00	 mov	 eax, 52			; 00000034H
  00df0	66 a3 00 00 00
	00		 mov	 WORD PTR ?jumpHelpPage@@3FA, ax ; jumpHelpPage

; 2577 : 						jumpHelpSeg = 29;

  00df6	b8 1d 00 00 00	 mov	 eax, 29			; 0000001dH
  00dfb	66 a3 00 00 00
	00		 mov	 WORD PTR ?jumpHelpSeg@@3FA, ax ; jumpHelpSeg

; 2578 : 						play_se( 202, 320, 240 );	// ????????

  00e01	68 f0 00 00 00	 push	 240			; 000000f0H
  00e06	68 40 01 00 00	 push	 320			; 00000140H
  00e0b	68 ca 00 00 00	 push	 202			; 000000caH
  00e10	e8 00 00 00 00	 call	 ?play_se@@YAHHHH@Z	; play_se
  00e15	83 c4 0c	 add	 esp, 12			; 0000000cH

; 2579 : 					}
; 2580 : 					else

  00e18	eb 0b		 jmp	 SHORT $LN127@fieldProc
$LN126@fieldProc:

; 2581 : 						HelpProcNo = 1000;

  00e1a	b8 e8 03 00 00	 mov	 eax, 1000		; 000003e8H
  00e1f	66 a3 00 00 00
	00		 mov	 WORD PTR ?HelpProcNo@@3FA, ax ; HelpProcNo
$LN127@fieldProc:

; 2582 : 				}
; 2583 : 				fieldBtnPushTime = TimeGetTime();

  00e25	e8 00 00 00 00	 call	 ?TimeGetTime@@YAIXZ	; TimeGetTime
  00e2a	a3 00 00 00 00	 mov	 DWORD PTR ?fieldBtnPushTime@@3IA, eax ; fieldBtnPushTime
$LN123@fieldProc:

; 2584 : 			}
; 2585 : 			play_se(217, 320, 240);	// ?????

  00e2f	68 f0 00 00 00	 push	 240			; 000000f0H
  00e34	68 40 01 00 00	 push	 320			; 00000140H
  00e39	68 d9 00 00 00	 push	 217			; 000000d9H
  00e3e	e8 00 00 00 00	 call	 ?play_se@@YAHHHH@Z	; play_se
  00e43	83 c4 0c	 add	 esp, 12			; 0000000cH
$LN122@fieldProc:

; 2586 : 		}
; 2587 : 	}
; 2588 : 	else

  00e46	eb 08		 jmp	 SHORT $LN121@fieldProc
$LN120@fieldProc:

; 2589 : 		angelBtn = 0;

  00e48	33 c0		 xor	 eax, eax
  00e4a	66 a3 00 00 00
	00		 mov	 WORD PTR ?angelBtn@@3FA, ax ; angelBtn
$LN121@fieldProc:

; 2590 : 	if (focusId == FIELD_FUNC_ANGEL)

  00e50	83 7d dc 0b	 cmp	 DWORD PTR _focusId$[ebp], 11 ; 0000000bH
  00e54	75 0d		 jne	 SHORT $LN129@fieldProc

; 2591 : 		angelBtnFocus = 1;		// ???????????????

  00e56	b8 01 00 00 00	 mov	 eax, 1
  00e5b	66 a3 00 00 00
	00		 mov	 WORD PTR ?angelBtnFocus@@3FA, ax ; angelBtnFocus

; 2592 : 	else

  00e61	eb 08		 jmp	 SHORT $LN130@fieldProc
$LN129@fieldProc:

; 2593 : 		angelBtnFocus = 0;

  00e63	33 c0		 xor	 eax, eax
  00e65	66 a3 00 00 00
	00		 mov	 WORD PTR ?angelBtnFocus@@3FA, ax ; angelBtnFocus
$LN130@fieldProc:

; 2594 : 		
; 2595 : 	if (angelFlag){

  00e6b	83 3d 00 00 00
	00 00		 cmp	 DWORD PTR ?angelFlag@@3HA, 0 ; angelFlag
  00e72	74 61		 je	 SHORT $LN131@fieldProc

; 2596 : 		if (angelLampFlashTime == 0 )

  00e74	83 3d 00 00 00
	00 00		 cmp	 DWORD PTR ?angelLampFlashTime@@3IA, 0 ; angelLampFlashTime
  00e7b	75 17		 jne	 SHORT $LN133@fieldProc

; 2597 : 		{
; 2598 : 			angelLampDrawFlag = 1;

  00e7d	b8 01 00 00 00	 mov	 eax, 1
  00e82	66 a3 00 00 00
	00		 mov	 WORD PTR ?angelLampDrawFlag@@3FA, ax ; angelLampDrawFlag

; 2599 : 			angelLampFlashTime = TimeGetTime();

  00e88	e8 00 00 00 00	 call	 ?TimeGetTime@@YAIXZ	; TimeGetTime
  00e8d	a3 00 00 00 00	 mov	 DWORD PTR ?angelLampFlashTime@@3IA, eax ; angelLampFlashTime
  00e92	eb 3f		 jmp	 SHORT $LN135@fieldProc
$LN133@fieldProc:

; 2600 : 		}
; 2601 : 		else if (angelLampFlashTime+FIELD_MAIL_LAMP_FLASH_TIME < TimeGetTime())

  00e94	8b 35 00 00 00
	00		 mov	 esi, DWORD PTR ?angelLampFlashTime@@3IA ; angelLampFlashTime
  00e9a	81 c6 e8 03 00
	00		 add	 esi, 1000		; 000003e8H
  00ea0	e8 00 00 00 00	 call	 ?TimeGetTime@@YAIXZ	; TimeGetTime
  00ea5	3b f0		 cmp	 esi, eax
  00ea7	73 2a		 jae	 SHORT $LN135@fieldProc

; 2602 : 		{
; 2603 : 			angelLampDrawFlag++;

  00ea9	66 a1 00 00 00
	00		 mov	 ax, WORD PTR ?angelLampDrawFlag@@3FA ; angelLampDrawFlag
  00eaf	66 83 c0 01	 add	 ax, 1
  00eb3	66 a3 00 00 00
	00		 mov	 WORD PTR ?angelLampDrawFlag@@3FA, ax ; angelLampDrawFlag

; 2604 : 			angelLampDrawFlag &= 1;

  00eb9	0f bf 05 00 00
	00 00		 movsx	 eax, WORD PTR ?angelLampDrawFlag@@3FA ; angelLampDrawFlag
  00ec0	83 e0 01	 and	 eax, 1
  00ec3	66 a3 00 00 00
	00		 mov	 WORD PTR ?angelLampDrawFlag@@3FA, ax ; angelLampDrawFlag

; 2605 : 			angelLampFlashTime = TimeGetTime();

  00ec9	e8 00 00 00 00	 call	 ?TimeGetTime@@YAIXZ	; TimeGetTime
  00ece	a3 00 00 00 00	 mov	 DWORD PTR ?angelLampFlashTime@@3IA, eax ; angelLampFlashTime
$LN135@fieldProc:

; 2606 : 		}
; 2607 : 	}
; 2608 : 	else

  00ed3	eb 12		 jmp	 SHORT $LN132@fieldProc
$LN131@fieldProc:

; 2609 : 	{
; 2610 : 		angelLampDrawFlag = 0;

  00ed5	33 c0		 xor	 eax, eax
  00ed7	66 a3 00 00 00
	00		 mov	 WORD PTR ?angelLampDrawFlag@@3FA, ax ; angelLampDrawFlag

; 2611 : 		angelLampFlashTime = 0;

  00edd	c7 05 00 00 00
	00 00 00 00 00	 mov	 DWORD PTR ?angelLampFlashTime@@3IA, 0 ; angelLampFlashTime
$LN132@fieldProc:

; 2612 : 	}
; 2613 : #endif
; 2614 : 
; 2615 : #ifdef 椤堕ㄧО锋	//[ 胳弓 氩]
; 2616 : 
; 2617 : 	static ACTION *pAct绉板Wnd = NULL;
; 2618 : 
; 2619 : 	if (pushId == FIELD_FUNC_绉板 && selId == FIELD_FUNC_绉板)
; 2620 : 	{
; 2621 : 		if (fieldBtnPushTime + FIELD_BTN_PUSH_WAIT < TimeGetTime())  //[措Ν 臧瓴╈ 500ms挫挫 ]
; 2622 : 		{
; 2623 : 			play_se(202, 320, 240);
; 2624 : 		//	lssproto_TEACHER_SYSTEM_send(sockfd, "P|");
; 2625 : 			fieldBtnPushTime = TimeGetTime();
; 2626 : 
; 2627 : 			//[彀疥惮毳 毵る]
; 2628 : 			pAct绉板Wnd = MakeWindowDisp(0, 0, 0, 0, 0, -1); 
; 2629 : 
; 2630 : 			s绉板SystemBtn = 0;
; 2631 : 		}
; 2632 : 	}
; 2633 : 
; 2634 : 	if (pAct绉板Wnd && pAct绉板Wnd->hp > 0)
; 2635 : 	{
; 2636 : 		//[彀届 攴鸽る措]
; 2637 : 		StockDispBuffer缁瀵逛缃(180, 70, DISP_PRIO_MENU, 绉板风, 1);
; 2638 : 	}
; 2639 : 
; 2640 : 	if (focusId == FIELD_FUNC_绉板)  //focus浜锛[氚 措 毽 氍胳]
; 2641 : 		s绉板SystemBtnFocus = 1;
; 2642 : 	else
; 2643 : 		s绉板SystemBtnFocus = 0;
; 2644 : 
; 2645 : #endif
; 2646 : 
; 2647 : 
; 2648 : #ifdef _TEACHER_SYSTEM
; 2649 : 	if (pushId == FIELD_FUNC_TEACHER  && selId == FIELD_FUNC_TEACHER)

  00ee7	83 7d e8 0c	 cmp	 DWORD PTR _pushId$[ebp], 12 ; 0000000cH
  00eeb	75 57		 jne	 SHORT $LN137@fieldProc
  00eed	83 7d f4 0c	 cmp	 DWORD PTR _selId$[ebp], 12 ; 0000000cH
  00ef1	75 51		 jne	 SHORT $LN137@fieldProc

; 2650 : 	{
; 2651 : 		if (fieldBtnPushTime + FIELD_BTN_PUSH_WAIT < TimeGetTime())

  00ef3	8b 35 00 00 00
	00		 mov	 esi, DWORD PTR ?fieldBtnPushTime@@3IA ; fieldBtnPushTime
  00ef9	81 c6 f4 01 00
	00		 add	 esi, 500		; 000001f4H
  00eff	e8 00 00 00 00	 call	 ?TimeGetTime@@YAIXZ	; TimeGetTime
  00f04	3b f0		 cmp	 esi, eax
  00f06	73 3c		 jae	 SHORT $LN137@fieldProc

; 2652 : 		{
; 2653 : 			play_se(202, 320, 240);

  00f08	68 f0 00 00 00	 push	 240			; 000000f0H
  00f0d	68 40 01 00 00	 push	 320			; 00000140H
  00f12	68 ca 00 00 00	 push	 202			; 000000caH
  00f17	e8 00 00 00 00	 call	 ?play_se@@YAHHHH@Z	; play_se
  00f1c	83 c4 0c	 add	 esp, 12			; 0000000cH

; 2654 : 			lssproto_TEACHER_SYSTEM_send(sockfd, "P|");

  00f1f	68 00 00 00 00	 push	 OFFSET ??_C@_02OPIIDOKH@P?$HM?$AA@
  00f24	a1 00 00 00 00	 mov	 eax, DWORD PTR ?sockfd@@3IA ; sockfd
  00f29	50		 push	 eax
  00f2a	e8 00 00 00 00	 call	 ?lssproto_TEACHER_SYSTEM_send@@YAXHPAD@Z ; lssproto_TEACHER_SYSTEM_send
  00f2f	83 c4 08	 add	 esp, 8

; 2655 : 			fieldBtnPushTime = TimeGetTime();

  00f32	e8 00 00 00 00	 call	 ?TimeGetTime@@YAIXZ	; TimeGetTime
  00f37	a3 00 00 00 00	 mov	 DWORD PTR ?fieldBtnPushTime@@3IA, eax ; fieldBtnPushTime

; 2656 : 			sTeacherSystemBtn = 0;

  00f3c	33 c0		 xor	 eax, eax
  00f3e	66 a3 00 00 00
	00		 mov	 WORD PTR ?sTeacherSystemBtn@@3FA, ax ; sTeacherSystemBtn
$LN137@fieldProc:

; 2657 : 		}
; 2658 : 	}
; 2659 : 	if (sTeacherSystemBtn == 1)

  00f44	0f bf 05 00 00
	00 00		 movsx	 eax, WORD PTR ?sTeacherSystemBtn@@3FA ; sTeacherSystemBtn
  00f4b	83 f8 01	 cmp	 eax, 1
  00f4e	0f 85 85 00 00
	00		 jne	 $LN138@fieldProc

; 2660 : 	{
; 2661 : 		if (helpBtn == 0)

  00f54	0f bf 05 00 00
	00 00		 movsx	 eax, WORD PTR ?helpBtn@@3FA ; helpBtn
  00f5b	85 c0		 test	 eax, eax
  00f5d	75 65		 jne	 SHORT $LN140@fieldProc

; 2662 : 		{
; 2663 : 			closeEtcSwitch();

  00f5f	e8 00 00 00 00	 call	 ?closeEtcSwitch@@YAXXZ	; closeEtcSwitch

; 2664 : 			closeJoinChannelWN();

  00f64	e8 00 00 00 00	 call	 ?closeJoinChannelWN@@YAXXZ ; closeJoinChannelWN

; 2665 : 			if (CheckMenuFlag())

  00f69	e8 00 00 00 00	 call	 ?CheckMenuFlag@@YAHXZ	; CheckMenuFlag
  00f6e	85 c0		 test	 eax, eax
  00f70	74 05		 je	 SHORT $LN142@fieldProc

; 2666 : 				InitMenu2();

  00f72	e8 00 00 00 00	 call	 ?InitMenu2@@YAXXZ	; InitMenu2
$LN142@fieldProc:

; 2667 : 			HelpProcNo = 0;

  00f77	33 c0		 xor	 eax, eax
  00f79	66 a3 00 00 00
	00		 mov	 WORD PTR ?HelpProcNo@@3FA, ax ; HelpProcNo

; 2668 : 			helpBtn = 1;

  00f7f	b8 01 00 00 00	 mov	 eax, 1
  00f84	66 a3 00 00 00
	00		 mov	 WORD PTR ?helpBtn@@3FA, ax ; helpBtn

; 2669 : 			actBtn = 1;

  00f8a	b8 01 00 00 00	 mov	 eax, 1
  00f8f	66 a3 00 00 00
	00		 mov	 WORD PTR ?actBtn@@3FA, ax ; actBtn

; 2670 : 			jumpHelpPage = 54+1;

  00f95	b8 37 00 00 00	 mov	 eax, 55			; 00000037H
  00f9a	66 a3 00 00 00
	00		 mov	 WORD PTR ?jumpHelpPage@@3FA, ax ; jumpHelpPage

; 2671 : 			jumpHelpSeg = 30;

  00fa0	b8 1e 00 00 00	 mov	 eax, 30			; 0000001eH
  00fa5	66 a3 00 00 00
	00		 mov	 WORD PTR ?jumpHelpSeg@@3FA, ax ; jumpHelpSeg

; 2672 : 			play_se(202,320,240);

  00fab	68 f0 00 00 00	 push	 240			; 000000f0H
  00fb0	68 40 01 00 00	 push	 320			; 00000140H
  00fb5	68 ca 00 00 00	 push	 202			; 000000caH
  00fba	e8 00 00 00 00	 call	 ?play_se@@YAHHHH@Z	; play_se
  00fbf	83 c4 0c	 add	 esp, 12			; 0000000cH

; 2673 : 		}
; 2674 : 		else

  00fc2	eb 0b		 jmp	 SHORT $LN141@fieldProc
$LN140@fieldProc:

; 2675 : 			HelpProcNo = 1000;

  00fc4	b8 e8 03 00 00	 mov	 eax, 1000		; 000003e8H
  00fc9	66 a3 00 00 00
	00		 mov	 WORD PTR ?HelpProcNo@@3FA, ax ; HelpProcNo
$LN141@fieldProc:

; 2676 : 		sTeacherSystemBtn = 0;

  00fcf	33 c0		 xor	 eax, eax
  00fd1	66 a3 00 00 00
	00		 mov	 WORD PTR ?sTeacherSystemBtn@@3FA, ax ; sTeacherSystemBtn
  00fd7	eb 66		 jmp	 SHORT $LN149@fieldProc
$LN138@fieldProc:

; 2677 : 	}
; 2678 : 	else if (sTeacherSystemBtn == 2)

  00fd9	0f bf 05 00 00
	00 00		 movsx	 eax, WORD PTR ?sTeacherSystemBtn@@3FA ; sTeacherSystemBtn
  00fe0	83 f8 02	 cmp	 eax, 2
  00fe3	75 0e		 jne	 SHORT $LN143@fieldProc

; 2679 : 		TeacherSystemWndfunc(0,NULL);

  00fe5	6a 00		 push	 0
  00fe7	6a 00		 push	 0
  00fe9	e8 00 00 00 00	 call	 ?TeacherSystemWndfunc@@YAXHPAD@Z ; TeacherSystemWndfunc
  00fee	83 c4 08	 add	 esp, 8
  00ff1	eb 4c		 jmp	 SHORT $LN149@fieldProc
$LN143@fieldProc:

; 2680 : 	else if (sTeacherSystemBtn == 3)

  00ff3	0f bf 05 00 00
	00 00		 movsx	 eax, WORD PTR ?sTeacherSystemBtn@@3FA ; sTeacherSystemBtn
  00ffa	83 f8 03	 cmp	 eax, 3
  00ffd	75 0e		 jne	 SHORT $LN145@fieldProc

; 2681 : 		TeacherSystemWndfunc(1,NULL);

  00fff	6a 00		 push	 0
  01001	6a 01		 push	 1
  01003	e8 00 00 00 00	 call	 ?TeacherSystemWndfunc@@YAXHPAD@Z ; TeacherSystemWndfunc
  01008	83 c4 08	 add	 esp, 8
  0100b	eb 32		 jmp	 SHORT $LN149@fieldProc
$LN145@fieldProc:

; 2682 : 	else if (sTeacherSystemBtn == 4)

  0100d	0f bf 05 00 00
	00 00		 movsx	 eax, WORD PTR ?sTeacherSystemBtn@@3FA ; sTeacherSystemBtn
  01014	83 f8 04	 cmp	 eax, 4
  01017	75 0e		 jne	 SHORT $LN147@fieldProc

; 2683 : 		TeacherSystemWndfunc(2,NULL);

  01019	6a 00		 push	 0
  0101b	6a 02		 push	 2
  0101d	e8 00 00 00 00	 call	 ?TeacherSystemWndfunc@@YAXHPAD@Z ; TeacherSystemWndfunc
  01022	83 c4 08	 add	 esp, 8
  01025	eb 18		 jmp	 SHORT $LN149@fieldProc
$LN147@fieldProc:

; 2684 : 	else if (sTeacherSystemBtn == 5)

  01027	0f bf 05 00 00
	00 00		 movsx	 eax, WORD PTR ?sTeacherSystemBtn@@3FA ; sTeacherSystemBtn
  0102e	83 f8 05	 cmp	 eax, 5
  01031	75 0c		 jne	 SHORT $LN149@fieldProc

; 2685 : 		TeacherSystemWndfunc(3,NULL);

  01033	6a 00		 push	 0
  01035	6a 03		 push	 3
  01037	e8 00 00 00 00	 call	 ?TeacherSystemWndfunc@@YAXHPAD@Z ; TeacherSystemWndfunc
  0103c	83 c4 08	 add	 esp, 8
$LN149@fieldProc:

; 2686 : 	if (focusId == FIELD_FUNC_TEACHER)

  0103f	83 7d dc 0c	 cmp	 DWORD PTR _focusId$[ebp], 12 ; 0000000cH
  01043	75 0d		 jne	 SHORT $LN150@fieldProc

; 2687 : 		sTeacherSystemBtnFocus = 1;

  01045	b8 01 00 00 00	 mov	 eax, 1
  0104a	66 a3 00 00 00
	00		 mov	 WORD PTR ?sTeacherSystemBtnFocus@@3FA, ax ; sTeacherSystemBtnFocus

; 2688 : 	else

  01050	eb 08		 jmp	 SHORT $LN151@fieldProc
$LN150@fieldProc:

; 2689 : 		sTeacherSystemBtnFocus = 0;

  01052	33 c0		 xor	 eax, eax
  01054	66 a3 00 00 00
	00		 mov	 WORD PTR ?sTeacherSystemBtnFocus@@3FA, ax ; sTeacherSystemBtnFocus
$LN151@fieldProc:

; 2690 : #endif
; 2691 : 	// Robin 06/01 Channel
; 2692 : 	if (selId == FIELD_FUNC_CHANNEL)

  0105a	83 7d f4 07	 cmp	 DWORD PTR _selId$[ebp], 7
  0105e	0f 85 ca 00 00
	00		 jne	 $LN157@fieldProc

; 2693 : 	{
; 2694 : #ifdef _FRIENDCHANNEL
; 2695 : 		closeJoinChannelWN();

  01064	e8 00 00 00 00	 call	 ?closeJoinChannelWN@@YAXXZ ; closeJoinChannelWN

; 2696 : #endif
; 2697 : 		if (pc.familyName[0] == NULL)

  01069	b8 01 00 00 00	 mov	 eax, 1
  0106e	6b c8 00	 imul	 ecx, eax, 0
  01071	0f be 91 f6 50
	00 00		 movsx	 edx, BYTE PTR ?pc@@3UPC@@A[ecx+20726]
  01078	85 d2		 test	 edx, edx
  0107a	75 6b		 jne	 SHORT $LN153@fieldProc

; 2698 : 		{
; 2699 : 			char buf[64];
; 2700 : 
; 2701 : 			lssproto_TK_recv(sockfd, 0, "P|攵臁膘 臧歆  氤措ゼ 疙  挫.", 6);

  0107c	6a 06		 push	 6
  0107e	68 00 00 00 00	 push	 OFFSET ??_C@_0DA@KIPDLLGN@P?$HM?$LK?N?A?$LH?$LP?$KB?5?$LA?$KB?$MA?T?$LF?G?A?v?5?$LO?J?$LO?F?5?A?$KE?$LK?$LI?$LI?$KG?5?H?$KO@
  01083	6a 00		 push	 0
  01085	a1 00 00 00 00	 mov	 eax, DWORD PTR ?sockfd@@3IA ; sockfd
  0108a	50		 push	 eax
  0108b	e8 00 00 00 00	 call	 ?lssproto_TK_recv@@YAXHHPADH@Z ; lssproto_TK_recv
  01090	83 c4 10	 add	 esp, 16			; 00000010H

; 2702 : 			sprintf(buf, "S|P", selId);

  01093	8b 45 f4	 mov	 eax, DWORD PTR _selId$[ebp]
  01096	50		 push	 eax
  01097	68 00 00 00 00	 push	 OFFSET ??_C@_03OAFDEMMP@S?$HMP?$AA@
  0109c	8d 8d 40 ff ff
	ff		 lea	 ecx, DWORD PTR _buf$10[ebp]
  010a2	51		 push	 ecx
  010a3	e8 00 00 00 00	 call	 _sprintf
  010a8	83 c4 0c	 add	 esp, 12			; 0000000cH

; 2703 : 			if (bNewServer)

  010ab	83 3d 00 00 00
	00 00		 cmp	 DWORD PTR ?bNewServer@@3HA, 0 ; bNewServer
  010b2	74 18		 je	 SHORT $LN154@fieldProc

; 2704 : 				lssproto_FM_send(sockfd, buf);

  010b4	8d 85 40 ff ff
	ff		 lea	 eax, DWORD PTR _buf$10[ebp]
  010ba	50		 push	 eax
  010bb	8b 0d 00 00 00
	00		 mov	 ecx, DWORD PTR ?sockfd@@3IA ; sockfd
  010c1	51		 push	 ecx
  010c2	e8 00 00 00 00	 call	 ?lssproto_FM_send@@YAXHPAD@Z ; lssproto_FM_send
  010c7	83 c4 08	 add	 esp, 8

; 2705 : 			else

  010ca	eb 16		 jmp	 SHORT $LN155@fieldProc
$LN154@fieldProc:

; 2706 : 				old_lssproto_FM_send(sockfd, buf);

  010cc	8d 85 40 ff ff
	ff		 lea	 eax, DWORD PTR _buf$10[ebp]
  010d2	50		 push	 eax
  010d3	8b 0d 00 00 00
	00		 mov	 ecx, DWORD PTR ?sockfd@@3IA ; sockfd
  010d9	51		 push	 ecx
  010da	e8 00 00 00 00	 call	 ?old_lssproto_FM_send@@YAXHPAD@Z ; old_lssproto_FM_send
  010df	83 c4 08	 add	 esp, 8
$LN155@fieldProc:

; 2707 : 			return;

  010e2	e9 31 08 00 00	 jmp	 $LN1@fieldProc
$LN153@fieldProc:

; 2708 : 		}
; 2709 : 		if (channelWNFlag == 0)

  010e7	0f bf 05 00 00
	00 00		 movsx	 eax, WORD PTR ?channelWNFlag@@3FA ; channelWNFlag
  010ee	85 c0		 test	 eax, eax
  010f0	75 37		 jne	 SHORT $LN156@fieldProc

; 2710 : 		{
; 2711 : 			if (CheckMenuFlag())

  010f2	e8 00 00 00 00	 call	 ?CheckMenuFlag@@YAHXZ	; CheckMenuFlag
  010f7	85 c0		 test	 eax, eax
  010f9	74 05		 je	 SHORT $LN158@fieldProc

; 2712 : 				InitMenu2();

  010fb	e8 00 00 00 00	 call	 ?InitMenu2@@YAXXZ	; InitMenu2
$LN158@fieldProc:

; 2713 : 			channelWNFlag = 1;

  01100	b8 01 00 00 00	 mov	 eax, 1
  01105	66 a3 00 00 00
	00		 mov	 WORD PTR ?channelWNFlag@@3FA, ax ; channelWNFlag

; 2714 : 			initJoinChannelWN();

  0110b	e8 00 00 00 00	 call	 ?initJoinChannelWN@@YAXXZ ; initJoinChannelWN

; 2715 : 			play_se(202, 320, 240);

  01110	68 f0 00 00 00	 push	 240			; 000000f0H
  01115	68 40 01 00 00	 push	 320			; 00000140H
  0111a	68 ca 00 00 00	 push	 202			; 000000caH
  0111f	e8 00 00 00 00	 call	 ?play_se@@YAHHHH@Z	; play_se
  01124	83 c4 0c	 add	 esp, 12			; 0000000cH

; 2716 : 		}
; 2717 : 		else

  01127	eb 05		 jmp	 SHORT $LN157@fieldProc
$LN156@fieldProc:

; 2718 : 			closeJoinChannelWN();

  01129	e8 00 00 00 00	 call	 ?closeJoinChannelWN@@YAXXZ ; closeJoinChannelWN
$LN157@fieldProc:

; 2719 : 	}
; 2720 : 	if (focusId == FIELD_FUNC_CHANNEL)

  0112e	83 7d dc 07	 cmp	 DWORD PTR _focusId$[ebp], 7
  01132	75 0d		 jne	 SHORT $LN159@fieldProc

; 2721 : 		channelBtnFocus = 1;

  01134	b8 01 00 00 00	 mov	 eax, 1
  01139	66 a3 00 00 00
	00		 mov	 WORD PTR ?channelBtnFocus@@3FA, ax ; channelBtnFocus

; 2722 : 	else

  0113f	eb 08		 jmp	 SHORT $LN160@fieldProc
$LN159@fieldProc:

; 2723 : 		channelBtnFocus = 0;

  01141	33 c0		 xor	 eax, eax
  01143	66 a3 00 00 00
	00		 mov	 WORD PTR ?channelBtnFocus@@3FA, ax ; channelBtnFocus
$LN160@fieldProc:

; 2724 : 		
; 2725 : 	if (channelWNFlag == 1)

  01149	0f bf 05 00 00
	00 00		 movsx	 eax, WORD PTR ?channelWNFlag@@3FA ; channelWNFlag
  01150	83 f8 01	 cmp	 eax, 1
  01153	75 05		 jne	 SHORT $LN161@fieldProc

; 2726 : 		joinChannelWN();

  01155	e8 00 00 00 00	 call	 ?joinChannelWN@@YAXXZ	; joinChannelWN
$LN161@fieldProc:

; 2727 : 		
; 2728 : #ifndef _CHANNEL_MODIFY
; 2729 : 	if (bNewServer && joy_trg[1] & JOY_CTRL_C)
; 2730 : 	{
; 2731 : 		char buf[64];
; 2732 : 
; 2733 : 		if (pc.channel == -1)
; 2734 : 		{
; 2735 : 			if ((pc.quickChannel != -1) && (pc.familyName[0] != NULL))
; 2736 : 			{
; 2737 : 				sprintf(buf, "C|J|%d", pc.quickChannel);
; 2738 : 				if (bNewServer)
; 2739 : 					lssproto_FM_send(sockfd, buf);
; 2740 : 				else
; 2741 : 					old_lssproto_FM_send(sockfd, buf);
; 2742 : 			}
; 2743 : 		}
; 2744 : 		else
; 2745 : 		{
; 2746 : 			if (bNewServer)
; 2747 : 				lssproto_FM_send(sockfd, "C|J|-1");
; 2748 : 			else
; 2749 : 				old_lssproto_FM_send(sockfd, "C|J|-1");
; 2750 : 		}
; 2751 : 	}
; 2752 : #endif
; 2753 : 	if (pushId == FIELD_FUNC_PARTY){

  0115a	83 7d e8 02	 cmp	 DWORD PTR _pushId$[ebp], 2
  0115e	0f 85 6b 02 00
	00		 jne	 $LN162@fieldProc

; 2754 : 		partyBtn = 1;

  01164	b8 01 00 00 00	 mov	 eax, 1
  01169	66 a3 00 00 00
	00		 mov	 WORD PTR ?partyBtn@@3FA, ax ; partyBtn

; 2755 : 		if (partyBtnEnableFlag == 0){

  0116f	0f bf 05 00 00
	00 00		 movsx	 eax, WORD PTR ?partyBtnEnableFlag@@3FA ; partyBtnEnableFlag
  01176	85 c0		 test	 eax, eax
  01178	75 24		 jne	 SHORT $LN164@fieldProc

; 2756 : 			partyBtn = 0;

  0117a	33 c0		 xor	 eax, eax
  0117c	66 a3 00 00 00
	00		 mov	 WORD PTR ?partyBtn@@3FA, ax ; partyBtn

; 2757 : 			play_se(220, 320, 240);

  01182	68 f0 00 00 00	 push	 240			; 000000f0H
  01187	68 40 01 00 00	 push	 320			; 00000140H
  0118c	68 dc 00 00 00	 push	 220			; 000000dcH
  01191	e8 00 00 00 00	 call	 ?play_se@@YAHHHH@Z	; play_se
  01196	83 c4 0c	 add	 esp, 12			; 0000000cH
  01199	e9 2f 02 00 00	 jmp	 $LN166@fieldProc
$LN164@fieldProc:

; 2758 : 		}else if (selId == FIELD_FUNC_PARTY){

  0119e	83 7d f4 02	 cmp	 DWORD PTR _selId$[ebp], 2
  011a2	0f 85 25 02 00
	00		 jne	 $LN166@fieldProc

; 2759 : 			if (partyModeFlag == 0){

  011a8	0f bf 05 00 00
	00 00		 movsx	 eax, WORD PTR ?partyModeFlag@@3FA ; partyModeFlag
  011af	85 c0		 test	 eax, eax
  011b1	0f 85 44 01 00
	00		 jne	 $LN167@fieldProc

; 2760 : 				int dx, dy;
; 2761 : 				int flag;
; 2762 : 				getRouteData(pc.dir, &dx, &dy);

  011b7	8d 85 28 ff ff
	ff		 lea	 eax, DWORD PTR _dy$8[ebp]
  011bd	50		 push	 eax
  011be	8d 8d 34 ff ff
	ff		 lea	 ecx, DWORD PTR _dx$9[ebp]
  011c4	51		 push	 ecx
  011c5	8b 15 0c 00 00
	00		 mov	 edx, DWORD PTR ?pc@@3UPC@@A+12
  011cb	52		 push	 edx
  011cc	e8 00 00 00 00	 call	 ?getRouteData@@YAXHPAH0@Z ; getRouteData
  011d1	83 c4 0c	 add	 esp, 12			; 0000000cH

; 2763 : 				flag = checkCharObjPointNotStatus(nowGx+dx, nowGy+dy, (CHAROBJ_TYPE_USER_NPC | CHAROBJ_TYPE_PARTY_OK), CHR_STATUS_BATTLE);

  011d4	68 00 04 00 00	 push	 1024			; 00000400H
  011d9	6a 28		 push	 40			; 00000028H
  011db	a1 00 00 00 00	 mov	 eax, DWORD PTR ?nowGy@@3HA ; nowGy
  011e0	03 85 28 ff ff
	ff		 add	 eax, DWORD PTR _dy$8[ebp]
  011e6	50		 push	 eax
  011e7	8b 0d 00 00 00
	00		 mov	 ecx, DWORD PTR ?nowGx@@3HA ; nowGx
  011ed	03 8d 34 ff ff
	ff		 add	 ecx, DWORD PTR _dx$9[ebp]
  011f3	51		 push	 ecx
  011f4	e8 00 00 00 00	 call	 ?checkCharObjPointNotStatus@@YAHHHFI@Z ; checkCharObjPointNotStatus
  011f9	83 c4 10	 add	 esp, 16			; 00000010H
  011fc	89 85 1c ff ff
	ff		 mov	 DWORD PTR _flag$7[ebp], eax

; 2764 : 				if (flag == 1 && eventWarpSendFlag == 0 && eventEnemySendFlag == 0 && sendEnFlag == 0
; 2765 : #ifdef _STREET_VENDOR
; 2766 : 					&& (pc.iOnStreetVendor == 0 || sStreetVendorBuyBtn == 2)

  01202	83 bd 1c ff ff
	ff 01		 cmp	 DWORD PTR _flag$7[ebp], 1
  01209	0f 85 cd 00 00
	00		 jne	 $LN171@fieldProc
  0120f	0f bf 05 00 00
	00 00		 movsx	 eax, WORD PTR ?eventWarpSendFlag@@3FA ; eventWarpSendFlag
  01216	85 c0		 test	 eax, eax
  01218	0f 85 be 00 00
	00		 jne	 $LN171@fieldProc
  0121e	0f bf 05 00 00
	00 00		 movsx	 eax, WORD PTR ?eventEnemySendFlag@@3FA ; eventEnemySendFlag
  01225	85 c0		 test	 eax, eax
  01227	0f 85 af 00 00
	00		 jne	 $LN171@fieldProc
  0122d	0f bf 05 00 00
	00 00		 movsx	 eax, WORD PTR ?sendEnFlag@@3FA ; sendEnFlag
  01234	85 c0		 test	 eax, eax
  01236	0f 85 a0 00 00
	00		 jne	 $LN171@fieldProc
  0123c	83 3d b8 a1 00
	00 00		 cmp	 DWORD PTR ?pc@@3UPC@@A+41400, 0
  01243	74 10		 je	 SHORT $LN170@fieldProc
  01245	0f bf 05 00 00
	00 00		 movsx	 eax, WORD PTR ?sStreetVendorBuyBtn@@3FA ; sStreetVendorBuyBtn
  0124c	83 f8 02	 cmp	 eax, 2
  0124f	0f 85 87 00 00
	00		 jne	 $LN171@fieldProc
$LN170@fieldProc:

; 2767 : #endif
; 2768 : 
; 2769 : 				)
; 2770 : 				{
; 2771 : 					if (fieldBtnPushTime+FIELD_BTN_PUSH_WAIT < TimeGetTime())// ??

  01255	8b 35 00 00 00
	00		 mov	 esi, DWORD PTR ?fieldBtnPushTime@@3IA ; fieldBtnPushTime
  0125b	81 c6 f4 01 00
	00		 add	 esi, 500		; 000001f4H
  01261	e8 00 00 00 00	 call	 ?TimeGetTime@@YAIXZ	; TimeGetTime
  01266	3b f0		 cmp	 esi, eax
  01268	73 72		 jae	 SHORT $LN171@fieldProc

; 2772 : 					{
; 2773 : 						// ?????????????????????????
; 2774 : 						if (bNewServer)

  0126a	83 3d 00 00 00
	00 00		 cmp	 DWORD PTR ?bNewServer@@3HA, 0 ; bNewServer
  01271	74 20		 je	 SHORT $LN172@fieldProc

; 2775 : 							lssproto_PR_send(sockfd, nowGx, nowGy, 1);

  01273	6a 01		 push	 1
  01275	a1 00 00 00 00	 mov	 eax, DWORD PTR ?nowGy@@3HA ; nowGy
  0127a	50		 push	 eax
  0127b	8b 0d 00 00 00
	00		 mov	 ecx, DWORD PTR ?nowGx@@3HA ; nowGx
  01281	51		 push	 ecx
  01282	8b 15 00 00 00
	00		 mov	 edx, DWORD PTR ?sockfd@@3IA ; sockfd
  01288	52		 push	 edx
  01289	e8 00 00 00 00	 call	 ?lssproto_PR_send@@YAXHHHH@Z ; lssproto_PR_send
  0128e	83 c4 10	 add	 esp, 16			; 00000010H

; 2776 : 						else

  01291	eb 1e		 jmp	 SHORT $LN173@fieldProc
$LN172@fieldProc:

; 2777 : 							old_lssproto_PR_send(sockfd, nowGx, nowGy, 1);

  01293	6a 01		 push	 1
  01295	a1 00 00 00 00	 mov	 eax, DWORD PTR ?nowGy@@3HA ; nowGy
  0129a	50		 push	 eax
  0129b	8b 0d 00 00 00
	00		 mov	 ecx, DWORD PTR ?nowGx@@3HA ; nowGx
  012a1	51		 push	 ecx
  012a2	8b 15 00 00 00
	00		 mov	 edx, DWORD PTR ?sockfd@@3IA ; sockfd
  012a8	52		 push	 edx
  012a9	e8 00 00 00 00	 call	 ?old_lssproto_PR_send@@YAXHHHH@Z ; old_lssproto_PR_send
  012ae	83 c4 10	 add	 esp, 16			; 00000010H
$LN173@fieldProc:

; 2778 : 						prSendMode = 1;

  012b1	b8 01 00 00 00	 mov	 eax, 1
  012b6	66 a3 00 00 00
	00		 mov	 WORD PTR ?prSendMode@@3FA, ax ; prSendMode

; 2779 : 						prSendFlag = 1;

  012bc	b8 01 00 00 00	 mov	 eax, 1
  012c1	66 a3 00 00 00
	00		 mov	 WORD PTR ?prSendFlag@@3FA, ax ; prSendFlag

; 2780 : 						etcSendFlag = 1;

  012c7	b8 01 00 00 00	 mov	 eax, 1
  012cc	66 a3 00 00 00
	00		 mov	 WORD PTR ?etcSendFlag@@3FA, ax ; etcSendFlag

; 2781 : 						fieldBtnPushTime = TimeGetTime();

  012d2	e8 00 00 00 00	 call	 ?TimeGetTime@@YAIXZ	; TimeGetTime
  012d7	a3 00 00 00 00	 mov	 DWORD PTR ?fieldBtnPushTime@@3IA, eax ; fieldBtnPushTime
$LN171@fieldProc:

; 2782 : 					}
; 2783 : 				}
; 2784 : #ifdef _STREET_VENDOR
; 2785 : 				if (pc.iOnStreetVendor == 1)

  012dc	83 3d b8 a1 00
	00 01		 cmp	 DWORD PTR ?pc@@3UPC@@A+41400, 1
  012e3	75 11		 jne	 SHORT $LN174@fieldProc

; 2786 : 					StockChatBufferLine("搓吵 半ゼ 甑表  惦", FONT_PAL_RED);

  012e5	6a 00		 push	 0
  012e7	6a 06		 push	 6
  012e9	68 00 00 00 00	 push	 OFFSET ??_C@_0CD@HJEPKLDC@?$MA?L?$LA?w?$LP?$KB?$LM?$KN?5?F?D?F?$LM?$LI?$KG?5?$LB?$LI?$LM?$LK?G?R?5?$LM?v?5?$LO?x?$LN?$MA?$LE?O@
  012ee	e8 00 00 00 00	 call	 ?StockChatBufferLine@@YAXPADEH@Z ; StockChatBufferLine
  012f3	83 c4 0c	 add	 esp, 12			; 0000000cH
$LN174@fieldProc:

; 2787 : #endif
; 2788 : 			}else{

  012f6	e9 bb 00 00 00	 jmp	 $LN176@fieldProc
$LN167@fieldProc:

; 2789 : 				if (eventWarpSendFlag == 0 && eventEnemySendFlag == 0 && sendEnFlag == 0){

  012fb	0f bf 05 00 00
	00 00		 movsx	 eax, WORD PTR ?eventWarpSendFlag@@3FA ; eventWarpSendFlag
  01302	85 c0		 test	 eax, eax
  01304	0f 85 ac 00 00
	00		 jne	 $LN176@fieldProc
  0130a	0f bf 05 00 00
	00 00		 movsx	 eax, WORD PTR ?eventEnemySendFlag@@3FA ; eventEnemySendFlag
  01311	85 c0		 test	 eax, eax
  01313	0f 85 9d 00 00
	00		 jne	 $LN176@fieldProc
  01319	0f bf 05 00 00
	00 00		 movsx	 eax, WORD PTR ?sendEnFlag@@3FA ; sendEnFlag
  01320	85 c0		 test	 eax, eax
  01322	0f 85 8e 00 00
	00		 jne	 $LN176@fieldProc

; 2790 : 					if (fieldBtnPushTime + FIELD_BTN_PUSH_WAIT < TimeGetTime()){

  01328	8b 35 00 00 00
	00		 mov	 esi, DWORD PTR ?fieldBtnPushTime@@3IA ; fieldBtnPushTime
  0132e	81 c6 f4 01 00
	00		 add	 esi, 500		; 000001f4H
  01334	e8 00 00 00 00	 call	 ?TimeGetTime@@YAIXZ	; TimeGetTime
  01339	3b f0		 cmp	 esi, eax
  0133b	73 79		 jae	 SHORT $LN176@fieldProc

; 2791 : 						if (bNewServer)

  0133d	83 3d 00 00 00
	00 00		 cmp	 DWORD PTR ?bNewServer@@3HA, 0 ; bNewServer
  01344	74 20		 je	 SHORT $LN177@fieldProc

; 2792 : 							lssproto_PR_send(sockfd, nowGx, nowGy, 0);

  01346	6a 00		 push	 0
  01348	a1 00 00 00 00	 mov	 eax, DWORD PTR ?nowGy@@3HA ; nowGy
  0134d	50		 push	 eax
  0134e	8b 0d 00 00 00
	00		 mov	 ecx, DWORD PTR ?nowGx@@3HA ; nowGx
  01354	51		 push	 ecx
  01355	8b 15 00 00 00
	00		 mov	 edx, DWORD PTR ?sockfd@@3IA ; sockfd
  0135b	52		 push	 edx
  0135c	e8 00 00 00 00	 call	 ?lssproto_PR_send@@YAXHHHH@Z ; lssproto_PR_send
  01361	83 c4 10	 add	 esp, 16			; 00000010H

; 2793 : 						else

  01364	eb 1e		 jmp	 SHORT $LN178@fieldProc
$LN177@fieldProc:

; 2794 : 							old_lssproto_PR_send(sockfd, nowGx, nowGy, 0);

  01366	6a 00		 push	 0
  01368	a1 00 00 00 00	 mov	 eax, DWORD PTR ?nowGy@@3HA ; nowGy
  0136d	50		 push	 eax
  0136e	8b 0d 00 00 00
	00		 mov	 ecx, DWORD PTR ?nowGx@@3HA ; nowGx
  01374	51		 push	 ecx
  01375	8b 15 00 00 00
	00		 mov	 edx, DWORD PTR ?sockfd@@3IA ; sockfd
  0137b	52		 push	 edx
  0137c	e8 00 00 00 00	 call	 ?old_lssproto_PR_send@@YAXHHHH@Z ; old_lssproto_PR_send
  01381	83 c4 10	 add	 esp, 16			; 00000010H
$LN178@fieldProc:

; 2795 : 						prSendMode = 0;

  01384	33 c0		 xor	 eax, eax
  01386	66 a3 00 00 00
	00		 mov	 WORD PTR ?prSendMode@@3FA, ax ; prSendMode

; 2796 : 						prSendFlag = 1;

  0138c	b8 01 00 00 00	 mov	 eax, 1
  01391	66 a3 00 00 00
	00		 mov	 WORD PTR ?prSendFlag@@3FA, ax ; prSendFlag

; 2797 : 						etcSendFlag = 1;

  01397	b8 01 00 00 00	 mov	 eax, 1
  0139c	66 a3 00 00 00
	00		 mov	 WORD PTR ?etcSendFlag@@3FA, ax ; etcSendFlag

; 2798 : 						fieldBtnPushTime = TimeGetTime();

  013a2	e8 00 00 00 00	 call	 ?TimeGetTime@@YAIXZ	; TimeGetTime
  013a7	a3 00 00 00 00	 mov	 DWORD PTR ?fieldBtnPushTime@@3IA, eax ; fieldBtnPushTime

; 2799 : #ifdef _CHANNEL_MODIFY
; 2800 : 						TalkMode = 0;

  013ac	c7 05 00 00 00
	00 00 00 00 00	 mov	 DWORD PTR ?TalkMode@@3HA, 0 ; TalkMode
$LN176@fieldProc:

; 2801 : #endif
; 2802 : 					}
; 2803 : 				}
; 2804 : 			}
; 2805 : 			play_se(217, 320, 240);

  013b6	68 f0 00 00 00	 push	 240			; 000000f0H
  013bb	68 40 01 00 00	 push	 320			; 00000140H
  013c0	68 d9 00 00 00	 push	 217			; 000000d9H
  013c5	e8 00 00 00 00	 call	 ?play_se@@YAHHHH@Z	; play_se
  013ca	83 c4 0c	 add	 esp, 12			; 0000000cH
$LN166@fieldProc:

; 2806 : 		}
; 2807 : 	}else

  013cd	eb 08		 jmp	 SHORT $LN163@fieldProc
$LN162@fieldProc:

; 2808 : 		partyBtn = 0;

  013cf	33 c0		 xor	 eax, eax
  013d1	66 a3 00 00 00
	00		 mov	 WORD PTR ?partyBtn@@3FA, ax ; partyBtn
$LN163@fieldProc:

; 2809 : 
; 2810 : 	if (focusId == FIELD_FUNC_PARTY)

  013d7	83 7d dc 02	 cmp	 DWORD PTR _focusId$[ebp], 2
  013db	75 0d		 jne	 SHORT $LN179@fieldProc

; 2811 : 		partyBtnFocus = 1;

  013dd	b8 01 00 00 00	 mov	 eax, 1
  013e2	66 a3 00 00 00
	00		 mov	 WORD PTR ?partyBtnFocus@@3FA, ax ; partyBtnFocus

; 2812 : 	else

  013e8	eb 08		 jmp	 SHORT $LN180@fieldProc
$LN179@fieldProc:

; 2813 : 		partyBtnFocus = 0;

  013ea	33 c0		 xor	 eax, eax
  013ec	66 a3 00 00 00
	00		 mov	 WORD PTR ?partyBtnFocus@@3FA, ax ; partyBtnFocus
$LN180@fieldProc:

; 2814 : #ifdef __PHONEMESSAGE
; 2815 : 		// LeiBoy 2002 Feb. 2 --- Cell Phone's Messages Button -- BEGIN
; 2816 : 	if (focusId == FIELD_FUNC_MSG)
; 2817 : 		msgBtnFocus = 1;
; 2818 : 	else
; 2819 : 		msgBtnFocus = 0;
; 2820 : 	if (pushId == FIELD_FUNC_MSG)
; 2821 : 	{
; 2822 : 		extern int MsgID;
; 2823 : 
; 2824 : 		if (selId == FIELD_FUNC_MSG)
; 2825 : 		{
; 2826 : 			if (msgBtn==0)
; 2827 : 			{
; 2828 : 				/*closeEtcSwitch();
; 2829 : 				closeJoinChannelWN();
; 2830 : 				if (CheckMenuFlag())
; 2831 : 					InitMenu2();
; 2832 : 				MsgID = 0;
; 2833 : 				msgBtn = 1;
; 2834 : 				play_se(202, 320, 240);
; 2835 : 				actBtn = 1;*/
; 2836 : 
; 2837 : 				::ShellExecute(hWnd, NULL, "http://www.waei.com/", NULL, NULL, SW_SHOW );
; 2838 : 			}
; 2839 : 		}
; 2840 : 	}
; 2841 : 
; 2842 : 	//if (msgBtn == 1)
; 2843 : 	//{
; 2844 : 	//	extern int MsgProc();
; 2845 : 
; 2846 : 	//	int msgret = MsgProc();
; 2847 : 
; 2848 : 	//	if (msgret)
; 2849 : 	//	{
; 2850 : 	//		msgBtn = 0;
; 2851 : 	//		actBtn = 0;
; 2852 : 	//		GetKeyInputFocus(&MyChatBuffer);
; 2853 : 	//	}
; 2854 : 	//}
; 2855 : 	// LeiBoy 2002 Feb. 2 --- Cell Phone's Messages Button -- END
; 2856 : #endif
; 2857 : 	helpBtnFocus = 0;

  013f2	33 c0		 xor	 eax, eax
  013f4	66 a3 00 00 00
	00		 mov	 WORD PTR ?helpBtnFocus@@3FA, ax ; helpBtnFocus

; 2858 : 	if (focusId == FIELD_FUNC_HELP)

  013fa	83 7d dc 08	 cmp	 DWORD PTR _focusId$[ebp], 8
  013fe	75 0b		 jne	 SHORT $LN181@fieldProc

; 2859 : 		helpBtnFocus = 1;

  01400	b8 01 00 00 00	 mov	 eax, 1
  01405	66 a3 00 00 00
	00		 mov	 WORD PTR ?helpBtnFocus@@3FA, ax ; helpBtnFocus
$LN181@fieldProc:

; 2860 : 	if (selId == FIELD_FUNC_HELP){

  0140b	83 7d f4 08	 cmp	 DWORD PTR _selId$[ebp], 8
  0140f	75 65		 jne	 SHORT $LN184@fieldProc

; 2861 : 		extern short HelpProcNo;
; 2862 : 		if (helpBtn == 0){

  01411	0f bf 05 00 00
	00 00		 movsx	 eax, WORD PTR ?helpBtn@@3FA ; helpBtn
  01418	85 c0		 test	 eax, eax
  0141a	75 4f		 jne	 SHORT $LN183@fieldProc

; 2863 : 			closeEtcSwitch();

  0141c	e8 00 00 00 00	 call	 ?closeEtcSwitch@@YAXXZ	; closeEtcSwitch

; 2864 : 			closeJoinChannelWN();

  01421	e8 00 00 00 00	 call	 ?closeJoinChannelWN@@YAXXZ ; closeJoinChannelWN

; 2865 : 			if (CheckMenuFlag())

  01426	e8 00 00 00 00	 call	 ?CheckMenuFlag@@YAHXZ	; CheckMenuFlag
  0142b	85 c0		 test	 eax, eax
  0142d	74 05		 je	 SHORT $LN185@fieldProc

; 2866 : 				InitMenu2();

  0142f	e8 00 00 00 00	 call	 ?InitMenu2@@YAXXZ	; InitMenu2
$LN185@fieldProc:

; 2867 : 			HelpProcNo = 0;

  01434	33 c0		 xor	 eax, eax
  01436	66 a3 00 00 00
	00		 mov	 WORD PTR ?HelpProcNo@@3FA, ax ; HelpProcNo

; 2868 : 			helpBtn = 1;

  0143c	b8 01 00 00 00	 mov	 eax, 1
  01441	66 a3 00 00 00
	00		 mov	 WORD PTR ?helpBtn@@3FA, ax ; helpBtn

; 2869 : 			actBtn = 1;

  01447	b8 01 00 00 00	 mov	 eax, 1
  0144c	66 a3 00 00 00
	00		 mov	 WORD PTR ?actBtn@@3FA, ax ; actBtn

; 2870 : 			play_se( 202, 320, 240 );	// ????????

  01452	68 f0 00 00 00	 push	 240			; 000000f0H
  01457	68 40 01 00 00	 push	 320			; 00000140H
  0145c	68 ca 00 00 00	 push	 202			; 000000caH
  01461	e8 00 00 00 00	 call	 ?play_se@@YAHHHH@Z	; play_se
  01466	83 c4 0c	 add	 esp, 12			; 0000000cH

; 2871 : 		}else

  01469	eb 0b		 jmp	 SHORT $LN184@fieldProc
$LN183@fieldProc:

; 2872 : 			HelpProcNo = 1000;

  0146b	b8 e8 03 00 00	 mov	 eax, 1000		; 000003e8H
  01470	66 a3 00 00 00
	00		 mov	 WORD PTR ?HelpProcNo@@3FA, ax ; HelpProcNo
$LN184@fieldProc:

; 2873 : 	}
; 2874 : 	if (helpBtn == 1){

  01476	0f bf 05 00 00
	00 00		 movsx	 eax, WORD PTR ?helpBtn@@3FA ; helpBtn
  0147d	83 f8 01	 cmp	 eax, 1
  01480	75 19		 jne	 SHORT $LN187@fieldProc

; 2875 : 		extern int HelpProc();
; 2876 : 		if (HelpProc()){

  01482	e8 00 00 00 00	 call	 ?HelpProc@@YAHXZ	; HelpProc
  01487	85 c0		 test	 eax, eax
  01489	74 10		 je	 SHORT $LN187@fieldProc

; 2877 : 			helpBtn = 0;

  0148b	33 c0		 xor	 eax, eax
  0148d	66 a3 00 00 00
	00		 mov	 WORD PTR ?helpBtn@@3FA, ax ; helpBtn

; 2878 : 			actBtn = 0;

  01493	33 c0		 xor	 eax, eax
  01495	66 a3 00 00 00
	00		 mov	 WORD PTR ?actBtn@@3FA, ax ; actBtn
$LN187@fieldProc:

; 2879 : 		}
; 2880 : 	}
; 2881 : 	if (pushId == FIELD_FUNC_JOIN_BATTLE){

  0149b	83 7d e8 03	 cmp	 DWORD PTR _pushId$[ebp], 3
  0149f	0f 85 b3 01 00
	00		 jne	 $LN188@fieldProc

; 2882 : 		joinBattleBtn = 1;

  014a5	b8 01 00 00 00	 mov	 eax, 1
  014aa	66 a3 00 00 00
	00		 mov	 WORD PTR ?joinBattleBtn@@3FA, ax ; joinBattleBtn

; 2883 : 		if (joinBattleBtnEnableFlag == 0){

  014b0	0f bf 05 00 00
	00 00		 movsx	 eax, WORD PTR ?joinBattleBtnEnableFlag@@3FA ; joinBattleBtnEnableFlag
  014b7	85 c0		 test	 eax, eax
  014b9	75 24		 jne	 SHORT $LN190@fieldProc

; 2884 : 			joinBattleBtn = 0;

  014bb	33 c0		 xor	 eax, eax
  014bd	66 a3 00 00 00
	00		 mov	 WORD PTR ?joinBattleBtn@@3FA, ax ; joinBattleBtn

; 2885 : 			play_se(220, 320, 240);

  014c3	68 f0 00 00 00	 push	 240			; 000000f0H
  014c8	68 40 01 00 00	 push	 320			; 00000140H
  014cd	68 dc 00 00 00	 push	 220			; 000000dcH
  014d2	e8 00 00 00 00	 call	 ?play_se@@YAHHHH@Z	; play_se
  014d7	83 c4 0c	 add	 esp, 12			; 0000000cH
  014da	e9 77 01 00 00	 jmp	 $LN192@fieldProc
$LN190@fieldProc:

; 2886 : 		}else if (selId == FIELD_FUNC_JOIN_BATTLE){

  014df	83 7d f4 03	 cmp	 DWORD PTR _selId$[ebp], 3
  014e3	0f 85 6d 01 00
	00		 jne	 $LN192@fieldProc

; 2887 : 			int dx, dy;
; 2888 : 			int flag;
; 2889 : 			getRouteData(pc.dir, &dx, &dy);

  014e9	8d 85 04 ff ff
	ff		 lea	 eax, DWORD PTR _dy$5[ebp]
  014ef	50		 push	 eax
  014f0	8d 8d 10 ff ff
	ff		 lea	 ecx, DWORD PTR _dx$6[ebp]
  014f6	51		 push	 ecx
  014f7	8b 15 0c 00 00
	00		 mov	 edx, DWORD PTR ?pc@@3UPC@@A+12
  014fd	52		 push	 edx
  014fe	e8 00 00 00 00	 call	 ?getRouteData@@YAXHPAH0@Z ; getRouteData
  01503	83 c4 0c	 add	 esp, 12			; 0000000cH

; 2890 : 			flag = checkCharObjPointStatus(nowGx+dx, nowGy+dy, CHAROBJ_TYPE_USER_NPC, CHR_STATUS_BATTLE | CHR_STATUS_WATCH);

  01506	68 00 44 00 00	 push	 17408			; 00004400H
  0150b	6a 08		 push	 8
  0150d	a1 00 00 00 00	 mov	 eax, DWORD PTR ?nowGy@@3HA ; nowGy
  01512	03 85 04 ff ff
	ff		 add	 eax, DWORD PTR _dy$5[ebp]
  01518	50		 push	 eax
  01519	8b 0d 00 00 00
	00		 mov	 ecx, DWORD PTR ?nowGx@@3HA ; nowGx
  0151f	03 8d 10 ff ff
	ff		 add	 ecx, DWORD PTR _dx$6[ebp]
  01525	51		 push	 ecx
  01526	e8 00 00 00 00	 call	 ?checkCharObjPointStatus@@YAHHHFI@Z ; checkCharObjPointStatus
  0152b	83 c4 10	 add	 esp, 16			; 00000010H
  0152e	89 85 f8 fe ff
	ff		 mov	 DWORD PTR _flag$4[ebp], eax

; 2891 : 			if ((partyModeFlag == 0 || (partyModeFlag == 1 && (pc.status & CHR_STATUS_LEADER) != 0))
; 2892 : 				&& flag == 1 && eventWarpSendFlag == 0 && eventEnemySendFlag == 0 && sendEnFlag == 0){

  01534	0f bf 05 00 00
	00 00		 movsx	 eax, WORD PTR ?partyModeFlag@@3FA ; partyModeFlag
  0153b	85 c0		 test	 eax, eax
  0153d	74 20		 je	 SHORT $LN194@fieldProc
  0153f	0f bf 05 00 00
	00 00		 movsx	 eax, WORD PTR ?partyModeFlag@@3FA ; partyModeFlag
  01546	83 f8 01	 cmp	 eax, 1
  01549	0f 85 f0 00 00
	00		 jne	 $LN195@fieldProc
  0154f	a1 a4 00 00 00	 mov	 eax, DWORD PTR ?pc@@3UPC@@A+164
  01554	25 00 01 00 00	 and	 eax, 256		; 00000100H
  01559	0f 84 e0 00 00
	00		 je	 $LN195@fieldProc
$LN194@fieldProc:
  0155f	83 bd f8 fe ff
	ff 01		 cmp	 DWORD PTR _flag$4[ebp], 1
  01566	0f 85 d3 00 00
	00		 jne	 $LN195@fieldProc
  0156c	0f bf 05 00 00
	00 00		 movsx	 eax, WORD PTR ?eventWarpSendFlag@@3FA ; eventWarpSendFlag
  01573	85 c0		 test	 eax, eax
  01575	0f 85 c4 00 00
	00		 jne	 $LN195@fieldProc
  0157b	0f bf 05 00 00
	00 00		 movsx	 eax, WORD PTR ?eventEnemySendFlag@@3FA ; eventEnemySendFlag
  01582	85 c0		 test	 eax, eax
  01584	0f 85 b5 00 00
	00		 jne	 $LN195@fieldProc
  0158a	0f bf 05 00 00
	00 00		 movsx	 eax, WORD PTR ?sendEnFlag@@3FA ; sendEnFlag
  01591	85 c0		 test	 eax, eax
  01593	0f 85 a6 00 00
	00		 jne	 $LN195@fieldProc

; 2893 : 				if (fieldBtnPushTime + FIELD_BTN_PUSH_WAIT < TimeGetTime()){

  01599	8b 35 00 00 00
	00		 mov	 esi, DWORD PTR ?fieldBtnPushTime@@3IA ; fieldBtnPushTime
  0159f	81 c6 f4 01 00
	00		 add	 esi, 500		; 000001f4H
  015a5	e8 00 00 00 00	 call	 ?TimeGetTime@@YAIXZ	; TimeGetTime
  015aa	3b f0		 cmp	 esi, eax
  015ac	0f 83 8d 00 00
	00		 jae	 $LN195@fieldProc

; 2894 : 					if (bNewServer){

  015b2	83 3d 00 00 00
	00 00		 cmp	 DWORD PTR ?bNewServer@@3HA, 0 ; bNewServer
  015b9	74 48		 je	 SHORT $LN196@fieldProc

; 2895 : 						if (nowFloor == 9000)

  015bb	81 3d 00 00 00
	00 28 23 00 00	 cmp	 DWORD PTR ?nowFloor@@3HA, 9000 ; nowFloor, 00002328H
  015c5	75 1e		 jne	 SHORT $LN198@fieldProc

; 2896 : 							lssproto_LB_send(sockfd, nowGx, nowGy);

  015c7	a1 00 00 00 00	 mov	 eax, DWORD PTR ?nowGy@@3HA ; nowGy
  015cc	50		 push	 eax
  015cd	8b 0d 00 00 00
	00		 mov	 ecx, DWORD PTR ?nowGx@@3HA ; nowGx
  015d3	51		 push	 ecx
  015d4	8b 15 00 00 00
	00		 mov	 edx, DWORD PTR ?sockfd@@3IA ; sockfd
  015da	52		 push	 edx
  015db	e8 00 00 00 00	 call	 ?lssproto_LB_send@@YAXHHH@Z ; lssproto_LB_send
  015e0	83 c4 0c	 add	 esp, 12			; 0000000cH

; 2897 : 						else

  015e3	eb 1c		 jmp	 SHORT $LN199@fieldProc
$LN198@fieldProc:

; 2898 : 							lssproto_JB_send(sockfd, nowGx, nowGy);

  015e5	a1 00 00 00 00	 mov	 eax, DWORD PTR ?nowGy@@3HA ; nowGy
  015ea	50		 push	 eax
  015eb	8b 0d 00 00 00
	00		 mov	 ecx, DWORD PTR ?nowGx@@3HA ; nowGx
  015f1	51		 push	 ecx
  015f2	8b 15 00 00 00
	00		 mov	 edx, DWORD PTR ?sockfd@@3IA ; sockfd
  015f8	52		 push	 edx
  015f9	e8 00 00 00 00	 call	 ?lssproto_JB_send@@YAXHHH@Z ; lssproto_JB_send
  015fe	83 c4 0c	 add	 esp, 12			; 0000000cH
$LN199@fieldProc:

; 2899 : 					}else

  01601	eb 1c		 jmp	 SHORT $LN197@fieldProc
$LN196@fieldProc:

; 2900 : 						old_lssproto_JB_send(sockfd, nowGx, nowGy);

  01603	a1 00 00 00 00	 mov	 eax, DWORD PTR ?nowGy@@3HA ; nowGy
  01608	50		 push	 eax
  01609	8b 0d 00 00 00
	00		 mov	 ecx, DWORD PTR ?nowGx@@3HA ; nowGx
  0160f	51		 push	 ecx
  01610	8b 15 00 00 00
	00		 mov	 edx, DWORD PTR ?sockfd@@3IA ; sockfd
  01616	52		 push	 edx
  01617	e8 00 00 00 00	 call	 ?old_lssproto_JB_send@@YAXHHH@Z ; old_lssproto_JB_send
  0161c	83 c4 0c	 add	 esp, 12			; 0000000cH
$LN197@fieldProc:

; 2901 : 					jbSendFlag = 1;

  0161f	b8 01 00 00 00	 mov	 eax, 1
  01624	66 a3 00 00 00
	00		 mov	 WORD PTR ?jbSendFlag@@3FA, ax ; jbSendFlag

; 2902 : 					etcSendFlag = 1;

  0162a	b8 01 00 00 00	 mov	 eax, 1
  0162f	66 a3 00 00 00
	00		 mov	 WORD PTR ?etcSendFlag@@3FA, ax ; etcSendFlag

; 2903 : 					fieldBtnPushTime = TimeGetTime();

  01635	e8 00 00 00 00	 call	 ?TimeGetTime@@YAIXZ	; TimeGetTime
  0163a	a3 00 00 00 00	 mov	 DWORD PTR ?fieldBtnPushTime@@3IA, eax ; fieldBtnPushTime
$LN195@fieldProc:

; 2904 : 				}
; 2905 : 			}
; 2906 : 			play_se(217, 320, 240);

  0163f	68 f0 00 00 00	 push	 240			; 000000f0H
  01644	68 40 01 00 00	 push	 320			; 00000140H
  01649	68 d9 00 00 00	 push	 217			; 000000d9H
  0164e	e8 00 00 00 00	 call	 ?play_se@@YAHHHH@Z	; play_se
  01653	83 c4 0c	 add	 esp, 12			; 0000000cH
$LN192@fieldProc:

; 2907 : 		}
; 2908 : 	}
; 2909 : 	else

  01656	eb 08		 jmp	 SHORT $LN189@fieldProc
$LN188@fieldProc:

; 2910 : 		joinBattleBtn = 0;

  01658	33 c0		 xor	 eax, eax
  0165a	66 a3 00 00 00
	00		 mov	 WORD PTR ?joinBattleBtn@@3FA, ax ; joinBattleBtn
$LN189@fieldProc:

; 2911 : 	if (focusId == FIELD_FUNC_JOIN_BATTLE)

  01660	83 7d dc 03	 cmp	 DWORD PTR _focusId$[ebp], 3
  01664	75 0d		 jne	 SHORT $LN200@fieldProc

; 2912 : 		joinBattleBtnFocus = 1;

  01666	b8 01 00 00 00	 mov	 eax, 1
  0166b	66 a3 00 00 00
	00		 mov	 WORD PTR ?joinBattleBtnFocus@@3FA, ax ; joinBattleBtnFocus

; 2913 : 	else

  01671	eb 08		 jmp	 SHORT $LN201@fieldProc
$LN200@fieldProc:

; 2914 : 		joinBattleBtnFocus = 0;

  01673	33 c0		 xor	 eax, eax
  01675	66 a3 00 00 00
	00		 mov	 WORD PTR ?joinBattleBtnFocus@@3FA, ax ; joinBattleBtnFocus
$LN201@fieldProc:

; 2915 : 
; 2916 : 	if (pushId == FIELD_FUNC_DUEL){

  0167b	83 7d e8 04	 cmp	 DWORD PTR _pushId$[ebp], 4
  0167f	0f 85 4d 01 00
	00		 jne	 $LN202@fieldProc

; 2917 : 		duelBtn = 1;

  01685	b8 01 00 00 00	 mov	 eax, 1
  0168a	66 a3 00 00 00
	00		 mov	 WORD PTR ?duelBtn@@3FA, ax ; duelBtn

; 2918 : 		if (selId == FIELD_FUNC_DUEL){

  01690	83 7d f4 04	 cmp	 DWORD PTR _selId$[ebp], 4
  01694	0f 85 36 01 00
	00		 jne	 $LN204@fieldProc

; 2919 : 			int dx, dy;
; 2920 : 			int flag;
; 2921 : 			getRouteData(pc.dir, &dx, &dy);

  0169a	8d 85 e0 fe ff
	ff		 lea	 eax, DWORD PTR _dy$2[ebp]
  016a0	50		 push	 eax
  016a1	8d 8d ec fe ff
	ff		 lea	 ecx, DWORD PTR _dx$3[ebp]
  016a7	51		 push	 ecx
  016a8	8b 15 0c 00 00
	00		 mov	 edx, DWORD PTR ?pc@@3UPC@@A+12
  016ae	52		 push	 edx
  016af	e8 00 00 00 00	 call	 ?getRouteData@@YAXHPAH0@Z ; getRouteData
  016b4	83 c4 0c	 add	 esp, 12			; 0000000cH

; 2922 : 			flag = checkCharObjPoint(nowGx+dx, nowGy+dy, CHAROBJ_TYPE_USER_NPC);

  016b7	6a 08		 push	 8
  016b9	a1 00 00 00 00	 mov	 eax, DWORD PTR ?nowGy@@3HA ; nowGy
  016be	03 85 e0 fe ff
	ff		 add	 eax, DWORD PTR _dy$2[ebp]
  016c4	50		 push	 eax
  016c5	8b 0d 00 00 00
	00		 mov	 ecx, DWORD PTR ?nowGx@@3HA ; nowGx
  016cb	03 8d ec fe ff
	ff		 add	 ecx, DWORD PTR _dx$3[ebp]
  016d1	51		 push	 ecx
  016d2	e8 00 00 00 00	 call	 ?checkCharObjPoint@@YAHHHF@Z ; checkCharObjPoint
  016d7	83 c4 0c	 add	 esp, 12			; 0000000cH
  016da	89 85 d4 fe ff
	ff		 mov	 DWORD PTR _flag$1[ebp], eax

; 2923 : 			if ((partyModeFlag == 0 || (partyModeFlag == 1 && (pc.status & CHR_STATUS_LEADER) != 0))
; 2924 : 				&& flag == TRUE && eventWarpSendFlag == 0 && eventEnemySendFlag == 0 && sendEnFlag == 0){

  016e0	0f bf 05 00 00
	00 00		 movsx	 eax, WORD PTR ?partyModeFlag@@3FA ; partyModeFlag
  016e7	85 c0		 test	 eax, eax
  016e9	74 20		 je	 SHORT $LN206@fieldProc
  016eb	0f bf 05 00 00
	00 00		 movsx	 eax, WORD PTR ?partyModeFlag@@3FA ; partyModeFlag
  016f2	83 f8 01	 cmp	 eax, 1
  016f5	0f 85 be 00 00
	00		 jne	 $LN207@fieldProc
  016fb	a1 a4 00 00 00	 mov	 eax, DWORD PTR ?pc@@3UPC@@A+164
  01700	25 00 01 00 00	 and	 eax, 256		; 00000100H
  01705	0f 84 ae 00 00
	00		 je	 $LN207@fieldProc
$LN206@fieldProc:
  0170b	83 bd d4 fe ff
	ff 01		 cmp	 DWORD PTR _flag$1[ebp], 1
  01712	0f 85 a1 00 00
	00		 jne	 $LN207@fieldProc
  01718	0f bf 05 00 00
	00 00		 movsx	 eax, WORD PTR ?eventWarpSendFlag@@3FA ; eventWarpSendFlag
  0171f	85 c0		 test	 eax, eax
  01721	0f 85 92 00 00
	00		 jne	 $LN207@fieldProc
  01727	0f bf 05 00 00
	00 00		 movsx	 eax, WORD PTR ?eventEnemySendFlag@@3FA ; eventEnemySendFlag
  0172e	85 c0		 test	 eax, eax
  01730	0f 85 83 00 00
	00		 jne	 $LN207@fieldProc
  01736	0f bf 05 00 00
	00 00		 movsx	 eax, WORD PTR ?sendEnFlag@@3FA ; sendEnFlag
  0173d	85 c0		 test	 eax, eax
  0173f	75 78		 jne	 SHORT $LN207@fieldProc

; 2925 : 				if (fieldBtnPushTime + FIELD_BTN_PUSH_WAIT < TimeGetTime()){

  01741	8b 35 00 00 00
	00		 mov	 esi, DWORD PTR ?fieldBtnPushTime@@3IA ; fieldBtnPushTime
  01747	81 c6 f4 01 00
	00		 add	 esi, 500		; 000001f4H
  0174d	e8 00 00 00 00	 call	 ?TimeGetTime@@YAIXZ	; TimeGetTime
  01752	3b f0		 cmp	 esi, eax
  01754	73 63		 jae	 SHORT $LN207@fieldProc

; 2926 : 					if (bNewServer)

  01756	83 3d 00 00 00
	00 00		 cmp	 DWORD PTR ?bNewServer@@3HA, 0 ; bNewServer
  0175d	74 1e		 je	 SHORT $LN208@fieldProc

; 2927 : 						lssproto_DU_send(sockfd, nowGx, nowGy);

  0175f	a1 00 00 00 00	 mov	 eax, DWORD PTR ?nowGy@@3HA ; nowGy
  01764	50		 push	 eax
  01765	8b 0d 00 00 00
	00		 mov	 ecx, DWORD PTR ?nowGx@@3HA ; nowGx
  0176b	51		 push	 ecx
  0176c	8b 15 00 00 00
	00		 mov	 edx, DWORD PTR ?sockfd@@3IA ; sockfd
  01772	52		 push	 edx
  01773	e8 00 00 00 00	 call	 ?lssproto_DU_send@@YAXHHH@Z ; lssproto_DU_send
  01778	83 c4 0c	 add	 esp, 12			; 0000000cH

; 2928 : 					else

  0177b	eb 1c		 jmp	 SHORT $LN209@fieldProc
$LN208@fieldProc:

; 2929 : 						old_lssproto_DU_send(sockfd, nowGx, nowGy);

  0177d	a1 00 00 00 00	 mov	 eax, DWORD PTR ?nowGy@@3HA ; nowGy
  01782	50		 push	 eax
  01783	8b 0d 00 00 00
	00		 mov	 ecx, DWORD PTR ?nowGx@@3HA ; nowGx
  01789	51		 push	 ecx
  0178a	8b 15 00 00 00
	00		 mov	 edx, DWORD PTR ?sockfd@@3IA ; sockfd
  01790	52		 push	 edx
  01791	e8 00 00 00 00	 call	 ?old_lssproto_DU_send@@YAXHHH@Z ; old_lssproto_DU_send
  01796	83 c4 0c	 add	 esp, 12			; 0000000cH
$LN209@fieldProc:

; 2930 : 					duelSendFlag = 1;

  01799	b8 01 00 00 00	 mov	 eax, 1
  0179e	66 a3 00 00 00
	00		 mov	 WORD PTR ?duelSendFlag@@3FA, ax ; duelSendFlag

; 2931 : 					etcSendFlag = 1;

  017a4	b8 01 00 00 00	 mov	 eax, 1
  017a9	66 a3 00 00 00
	00		 mov	 WORD PTR ?etcSendFlag@@3FA, ax ; etcSendFlag

; 2932 : 					fieldBtnPushTime = TimeGetTime();

  017af	e8 00 00 00 00	 call	 ?TimeGetTime@@YAIXZ	; TimeGetTime
  017b4	a3 00 00 00 00	 mov	 DWORD PTR ?fieldBtnPushTime@@3IA, eax ; fieldBtnPushTime
$LN207@fieldProc:

; 2933 : 				}
; 2934 : 			}
; 2935 : 			play_se(217, 320, 240);

  017b9	68 f0 00 00 00	 push	 240			; 000000f0H
  017be	68 40 01 00 00	 push	 320			; 00000140H
  017c3	68 d9 00 00 00	 push	 217			; 000000d9H
  017c8	e8 00 00 00 00	 call	 ?play_se@@YAHHHH@Z	; play_se
  017cd	83 c4 0c	 add	 esp, 12			; 0000000cH
$LN204@fieldProc:

; 2936 : 		}
; 2937 : 	}
; 2938 : 	else

  017d0	eb 08		 jmp	 SHORT $LN203@fieldProc
$LN202@fieldProc:

; 2939 : 		duelBtn = 0;

  017d2	33 c0		 xor	 eax, eax
  017d4	66 a3 00 00 00
	00		 mov	 WORD PTR ?duelBtn@@3FA, ax ; duelBtn
$LN203@fieldProc:

; 2940 : 	if (focusId == FIELD_FUNC_DUEL)

  017da	83 7d dc 04	 cmp	 DWORD PTR _focusId$[ebp], 4
  017de	75 0d		 jne	 SHORT $LN210@fieldProc

; 2941 : 		duelBtnFocus = 1;

  017e0	b8 01 00 00 00	 mov	 eax, 1
  017e5	66 a3 00 00 00
	00		 mov	 WORD PTR ?duelBtnFocus@@3FA, ax ; duelBtnFocus

; 2942 : 	else

  017eb	eb 08		 jmp	 SHORT $LN211@fieldProc
$LN210@fieldProc:

; 2943 : 		duelBtnFocus = 0;

  017ed	33 c0		 xor	 eax, eax
  017ef	66 a3 00 00 00
	00		 mov	 WORD PTR ?duelBtnFocus@@3FA, ax ; duelBtnFocus
$LN211@fieldProc:

; 2944 : 	if (selId == FIELD_FUNC_ACT || (joy_trg[1] & JOY_CTRL_W)){

  017f5	83 7d f4 05	 cmp	 DWORD PTR _selId$[ebp], 5
  017f9	74 16		 je	 SHORT $LN213@fieldProc
  017fb	b8 04 00 00 00	 mov	 eax, 4
  01800	c1 e0 00	 shl	 eax, 0
  01803	8b 88 00 00 00
	00		 mov	 ecx, DWORD PTR ?joy_trg@@3PAKA[eax]
  01809	81 e1 00 00 00
	40		 and	 ecx, 1073741824		; 40000000H
  0180f	74 51		 je	 SHORT $LN215@fieldProc
$LN213@fieldProc:

; 2945 : 		if (actBtn == 0){

  01811	0f bf 05 00 00
	00 00		 movsx	 eax, WORD PTR ?actBtn@@3FA ; actBtn
  01818	85 c0		 test	 eax, eax
  0181a	75 41		 jne	 SHORT $LN214@fieldProc

; 2946 : 			closeEtcSwitch();

  0181c	e8 00 00 00 00	 call	 ?closeEtcSwitch@@YAXXZ	; closeEtcSwitch

; 2947 : 			closeJoinChannelWN();

  01821	e8 00 00 00 00	 call	 ?closeJoinChannelWN@@YAXXZ ; closeJoinChannelWN

; 2948 : 			if (CheckMenuFlag())

  01826	e8 00 00 00 00	 call	 ?CheckMenuFlag@@YAHXZ	; CheckMenuFlag
  0182b	85 c0		 test	 eax, eax
  0182d	74 05		 je	 SHORT $LN216@fieldProc

; 2949 : 				InitMenu2();

  0182f	e8 00 00 00 00	 call	 ?InitMenu2@@YAXXZ	; InitMenu2
$LN216@fieldProc:

; 2950 : 			initCharActionAnimeChange();

  01834	e8 00 00 00 00	 call	 ?initCharActionAnimeChange@@YAXXZ ; initCharActionAnimeChange

; 2951 : 			actBtn = 1;

  01839	b8 01 00 00 00	 mov	 eax, 1
  0183e	66 a3 00 00 00
	00		 mov	 WORD PTR ?actBtn@@3FA, ax ; actBtn

; 2952 : 			play_se(202, 320, 240);

  01844	68 f0 00 00 00	 push	 240			; 000000f0H
  01849	68 40 01 00 00	 push	 320			; 00000140H
  0184e	68 ca 00 00 00	 push	 202			; 000000caH
  01853	e8 00 00 00 00	 call	 ?play_se@@YAHHHH@Z	; play_se
  01858	83 c4 0c	 add	 esp, 12			; 0000000cH

; 2953 : 		}else

  0185b	eb 05		 jmp	 SHORT $LN215@fieldProc
$LN214@fieldProc:

; 2954 : 			closeCharActionAnimeChange();

  0185d	e8 00 00 00 00	 call	 ?closeCharActionAnimeChange@@YAXXZ ; closeCharActionAnimeChange
$LN215@fieldProc:

; 2955 : 	}
; 2956 : 	if (actBtn == 1 && charActionAnimeChange())

  01862	0f bf 05 00 00
	00 00		 movsx	 eax, WORD PTR ?actBtn@@3FA ; actBtn
  01869	83 f8 01	 cmp	 eax, 1
  0186c	75 11		 jne	 SHORT $LN217@fieldProc
  0186e	e8 00 00 00 00	 call	 ?charActionAnimeChange@@YAHXZ ; charActionAnimeChange
  01873	85 c0		 test	 eax, eax
  01875	74 08		 je	 SHORT $LN217@fieldProc

; 2957 : 		actBtn = 0;

  01877	33 c0		 xor	 eax, eax
  01879	66 a3 00 00 00
	00		 mov	 WORD PTR ?actBtn@@3FA, ax ; actBtn
$LN217@fieldProc:

; 2958 : 	if (focusId == FIELD_FUNC_ACT)

  0187f	83 7d dc 05	 cmp	 DWORD PTR _focusId$[ebp], 5
  01883	75 0d		 jne	 SHORT $LN218@fieldProc

; 2959 : 		actBtnForcus = 1;

  01885	b8 01 00 00 00	 mov	 eax, 1
  0188a	66 a3 00 00 00
	00		 mov	 WORD PTR ?actBtnForcus@@3FA, ax ; actBtnForcus

; 2960 : 	else

  01890	eb 08		 jmp	 SHORT $LN219@fieldProc
$LN218@fieldProc:

; 2961 : 		actBtnForcus = 0;

  01892	33 c0		 xor	 eax, eax
  01894	66 a3 00 00 00
	00		 mov	 WORD PTR ?actBtnForcus@@3FA, ax ; actBtnForcus
$LN219@fieldProc:

; 2962 : 
; 2963 : 	if (mailLamp){

  0189a	0f bf 05 00 00
	00 00		 movsx	 eax, WORD PTR ?mailLamp@@3FA ; mailLamp
  018a1	85 c0		 test	 eax, eax
  018a3	74 61		 je	 SHORT $LN220@fieldProc

; 2964 : 		if (mailLampFlashTime == 0){

  018a5	83 3d 00 00 00
	00 00		 cmp	 DWORD PTR ?mailLampFlashTime@@3IA, 0 ; mailLampFlashTime
  018ac	75 17		 jne	 SHORT $LN222@fieldProc

; 2965 : 			mailLampDrawFlag = 1;

  018ae	b8 01 00 00 00	 mov	 eax, 1
  018b3	66 a3 00 00 00
	00		 mov	 WORD PTR ?mailLampDrawFlag@@3FA, ax ; mailLampDrawFlag

; 2966 : 			mailLampFlashTime = TimeGetTime();

  018b9	e8 00 00 00 00	 call	 ?TimeGetTime@@YAIXZ	; TimeGetTime
  018be	a3 00 00 00 00	 mov	 DWORD PTR ?mailLampFlashTime@@3IA, eax ; mailLampFlashTime
  018c3	eb 3f		 jmp	 SHORT $LN224@fieldProc
$LN222@fieldProc:

; 2967 : 		}else if (mailLampFlashTime + FIELD_MAIL_LAMP_FLASH_TIME < TimeGetTime()){

  018c5	8b 35 00 00 00
	00		 mov	 esi, DWORD PTR ?mailLampFlashTime@@3IA ; mailLampFlashTime
  018cb	81 c6 e8 03 00
	00		 add	 esi, 1000		; 000003e8H
  018d1	e8 00 00 00 00	 call	 ?TimeGetTime@@YAIXZ	; TimeGetTime
  018d6	3b f0		 cmp	 esi, eax
  018d8	73 2a		 jae	 SHORT $LN224@fieldProc

; 2968 : 			mailLampDrawFlag++;

  018da	66 a1 00 00 00
	00		 mov	 ax, WORD PTR ?mailLampDrawFlag@@3FA ; mailLampDrawFlag
  018e0	66 83 c0 01	 add	 ax, 1
  018e4	66 a3 00 00 00
	00		 mov	 WORD PTR ?mailLampDrawFlag@@3FA, ax ; mailLampDrawFlag

; 2969 : 			mailLampDrawFlag &= 1;

  018ea	0f bf 05 00 00
	00 00		 movsx	 eax, WORD PTR ?mailLampDrawFlag@@3FA ; mailLampDrawFlag
  018f1	83 e0 01	 and	 eax, 1
  018f4	66 a3 00 00 00
	00		 mov	 WORD PTR ?mailLampDrawFlag@@3FA, ax ; mailLampDrawFlag

; 2970 : 			mailLampFlashTime = TimeGetTime();

  018fa	e8 00 00 00 00	 call	 ?TimeGetTime@@YAIXZ	; TimeGetTime
  018ff	a3 00 00 00 00	 mov	 DWORD PTR ?mailLampFlashTime@@3IA, eax ; mailLampFlashTime
$LN224@fieldProc:

; 2971 : 		}
; 2972 : 	}else{

  01904	eb 12		 jmp	 SHORT $LN221@fieldProc
$LN220@fieldProc:

; 2973 : 		mailLampDrawFlag = 0;

  01906	33 c0		 xor	 eax, eax
  01908	66 a3 00 00 00
	00		 mov	 WORD PTR ?mailLampDrawFlag@@3FA, ax ; mailLampDrawFlag

; 2974 : 		mailLampFlashTime = 0;

  0190e	c7 05 00 00 00
	00 00 00 00 00	 mov	 DWORD PTR ?mailLampFlashTime@@3IA, 0 ; mailLampFlashTime
$LN221@fieldProc:
$LN1@fieldProc:

; 2975 : 	}
; 2976 : }

  01918	52		 push	 edx
  01919	8b cd		 mov	 ecx, ebp
  0191b	50		 push	 eax
  0191c	8d 15 00 00 00
	00		 lea	 edx, DWORD PTR $LN238@fieldProc
  01922	e8 00 00 00 00	 call	 @_RTC_CheckStackVars@8
  01927	58		 pop	 eax
  01928	5a		 pop	 edx
  01929	5f		 pop	 edi
  0192a	5e		 pop	 esi
  0192b	5b		 pop	 ebx
  0192c	8b 4d fc	 mov	 ecx, DWORD PTR __$ArrayPad$[ebp]
  0192f	33 cd		 xor	 ecx, ebp
  01931	e8 00 00 00 00	 call	 @__security_check_cookie@4
  01936	81 c4 f0 01 00
	00		 add	 esp, 496		; 000001f0H
  0193c	3b ec		 cmp	 ebp, esp
  0193e	e8 00 00 00 00	 call	 __RTC_CheckEsp
  01943	8b e5		 mov	 esp, ebp
  01945	5d		 pop	 ebp
  01946	c3		 ret	 0
  01947	90		 npad	 1
$LN238@fieldProc:
  01948	0b 00 00 00	 DD	 11			; 0000000bH
  0194c	00 00 00 00	 DD	 $LN237@fieldProc
$LN237@fieldProc:
  01950	c4 ff ff ff	 DD	 -60			; ffffffc4H
  01954	04 00 00 00	 DD	 4
  01958	00 00 00 00	 DD	 $LN226@fieldProc
  0195c	b8 ff ff ff	 DD	 -72			; ffffffb8H
  01960	04 00 00 00	 DD	 4
  01964	00 00 00 00	 DD	 $LN227@fieldProc
  01968	a0 ff ff ff	 DD	 -96			; ffffffa0H
  0196c	04 00 00 00	 DD	 4
  01970	00 00 00 00	 DD	 $LN228@fieldProc
  01974	94 ff ff ff	 DD	 -108			; ffffff94H
  01978	04 00 00 00	 DD	 4
  0197c	00 00 00 00	 DD	 $LN229@fieldProc
  01980	40 ff ff ff	 DD	 -192			; ffffff40H
  01984	40 00 00 00	 DD	 64			; 00000040H
  01988	00 00 00 00	 DD	 $LN230@fieldProc
  0198c	34 ff ff ff	 DD	 -204			; ffffff34H
  01990	04 00 00 00	 DD	 4
  01994	00 00 00 00	 DD	 $LN231@fieldProc
  01998	28 ff ff ff	 DD	 -216			; ffffff28H
  0199c	04 00 00 00	 DD	 4
  019a0	00 00 00 00	 DD	 $LN232@fieldProc
  019a4	10 ff ff ff	 DD	 -240			; ffffff10H
  019a8	04 00 00 00	 DD	 4
  019ac	00 00 00 00	 DD	 $LN233@fieldProc
  019b0	04 ff ff ff	 DD	 -252			; ffffff04H
  019b4	04 00 00 00	 DD	 4
  019b8	00 00 00 00	 DD	 $LN234@fieldProc
  019bc	ec fe ff ff	 DD	 -276			; fffffeecH
  019c0	04 00 00 00	 DD	 4
  019c4	00 00 00 00	 DD	 $LN235@fieldProc
  019c8	e0 fe ff ff	 DD	 -288			; fffffee0H
  019cc	04 00 00 00	 DD	 4
  019d0	00 00 00 00	 DD	 $LN236@fieldProc
$LN236@fieldProc:
  019d4	64		 DB	 100			; 00000064H
  019d5	79		 DB	 121			; 00000079H
  019d6	00		 DB	 0
$LN235@fieldProc:
  019d7	64		 DB	 100			; 00000064H
  019d8	78		 DB	 120			; 00000078H
  019d9	00		 DB	 0
$LN234@fieldProc:
  019da	64		 DB	 100			; 00000064H
  019db	79		 DB	 121			; 00000079H
  019dc	00		 DB	 0
$LN233@fieldProc:
  019dd	64		 DB	 100			; 00000064H
  019de	78		 DB	 120			; 00000078H
  019df	00		 DB	 0
$LN232@fieldProc:
  019e0	64		 DB	 100			; 00000064H
  019e1	79		 DB	 121			; 00000079H
  019e2	00		 DB	 0
$LN231@fieldProc:
  019e3	64		 DB	 100			; 00000064H
  019e4	78		 DB	 120			; 00000078H
  019e5	00		 DB	 0
$LN230@fieldProc:
  019e6	62		 DB	 98			; 00000062H
  019e7	75		 DB	 117			; 00000075H
  019e8	66		 DB	 102			; 00000066H
  019e9	00		 DB	 0
$LN229@fieldProc:
  019ea	64		 DB	 100			; 00000064H
  019eb	79		 DB	 121			; 00000079H
  019ec	00		 DB	 0
$LN228@fieldProc:
  019ed	64		 DB	 100			; 00000064H
  019ee	78		 DB	 120			; 00000078H
  019ef	00		 DB	 0
$LN227@fieldProc:
  019f0	64		 DB	 100			; 00000064H
  019f1	79		 DB	 121			; 00000079H
  019f2	00		 DB	 0
$LN226@fieldProc:
  019f3	64		 DB	 100			; 00000064H
  019f4	78		 DB	 120			; 00000078H
  019f5	00		 DB	 0
?fieldProc@@YAXXZ ENDP					; fieldProc
_TEXT	ENDS
; Function compile flags: /Odtp /RTCsu /ZI
; File c:\users\administrator\desktop\????? ??\????? ??\client source code\system\field.cpp
;	COMDAT ?resetFieldProc@@YAXXZ
_TEXT	SEGMENT
?resetFieldProc@@YAXXZ PROC				; resetFieldProc, COMDAT

; 2093 : {

  00000	55		 push	 ebp
  00001	8b ec		 mov	 ebp, esp
  00003	81 ec c0 00 00
	00		 sub	 esp, 192		; 000000c0H
  00009	53		 push	 ebx
  0000a	56		 push	 esi
  0000b	57		 push	 edi
  0000c	8d bd 40 ff ff
	ff		 lea	 edi, DWORD PTR [ebp-192]
  00012	b9 30 00 00 00	 mov	 ecx, 48			; 00000030H
  00017	b8 cc cc cc cc	 mov	 eax, -858993460		; ccccccccH
  0001c	f3 ab		 rep stosd

; 2094 : 	actBtn = 0;

  0001e	33 c0		 xor	 eax, eax
  00020	66 a3 00 00 00
	00		 mov	 WORD PTR ?actBtn@@3FA, ax ; actBtn

; 2095 : 	menuBtn = 0;

  00026	33 c0		 xor	 eax, eax
  00028	66 a3 00 00 00
	00		 mov	 WORD PTR ?menuBtn@@3FA, ax ; menuBtn

; 2096 : 	fieldInfoTime = 0;

  0002e	c7 05 00 00 00
	00 00 00 00 00	 mov	 DWORD PTR ?fieldInfoTime@@3IA, 0 ; fieldInfoTime

; 2097 : #ifdef __PHONEMESSAGE
; 2098 : 	msgBtn = 0;
; 2099 : #endif
; 2100 : 	channelWNFlag = 0;

  00038	33 c0		 xor	 eax, eax
  0003a	66 a3 00 00 00
	00		 mov	 WORD PTR ?channelWNFlag@@3FA, ax ; channelWNFlag

; 2101 : #ifdef _STREET_VENDOR
; 2102 : 	sStreetVendorBtn = 0;

  00040	33 c0		 xor	 eax, eax
  00042	66 a3 00 00 00
	00		 mov	 WORD PTR ?sStreetVendorBtn@@3FA, ax ; sStreetVendorBtn

; 2103 : 	sStreetVendorBuyBtn = 0;

  00048	33 c0		 xor	 eax, eax
  0004a	66 a3 00 00 00
	00		 mov	 WORD PTR ?sStreetVendorBuyBtn@@3FA, ax ; sStreetVendorBuyBtn

; 2104 : #else
; 2105 : 	#ifdef _TABLEOFSKILL
; 2106 : 	skillBtn = 0 ; 
; 2107 : 	#endif
; 2108 : #endif
; 2109 : 	helpBtn = 0;

  00050	33 c0		 xor	 eax, eax
  00052	66 a3 00 00 00
	00		 mov	 WORD PTR ?helpBtn@@3FA, ax ; helpBtn

; 2110 : }

  00058	5f		 pop	 edi
  00059	5e		 pop	 esi
  0005a	5b		 pop	 ebx
  0005b	8b e5		 mov	 esp, ebp
  0005d	5d		 pop	 ebp
  0005e	c3		 ret	 0
?resetFieldProc@@YAXXZ ENDP				; resetFieldProc
_TEXT	ENDS
; Function compile flags: /Odtp /RTCsu /ZI
; File c:\users\administrator\desktop\????? ??\????? ??\client source code\system\field.cpp
;	COMDAT ?initFieldProc@@YAXXZ
_TEXT	SEGMENT
_i$ = -8						; size = 4
?initFieldProc@@YAXXZ PROC				; initFieldProc, COMDAT

; 2045 : {

  00000	55		 push	 ebp
  00001	8b ec		 mov	 ebp, esp
  00003	81 ec cc 00 00
	00		 sub	 esp, 204		; 000000ccH
  00009	53		 push	 ebx
  0000a	56		 push	 esi
  0000b	57		 push	 edi
  0000c	8d bd 34 ff ff
	ff		 lea	 edi, DWORD PTR [ebp-204]
  00012	b9 33 00 00 00	 mov	 ecx, 51			; 00000033H
  00017	b8 cc cc cc cc	 mov	 eax, -858993460		; ccccccccH
  0001c	f3 ab		 rep stosd

; 2046 : 	int i;
; 2047 : 
; 2048 : 	drawFieldButtonFlag = 1;

  0001e	b8 01 00 00 00	 mov	 eax, 1
  00023	66 a3 00 00 00
	00		 mov	 WORD PTR ?drawFieldButtonFlag@@3FA, ax ; drawFieldButtonFlag

; 2049 : 	menuBtn = 0;

  00029	33 c0		 xor	 eax, eax
  0002b	66 a3 00 00 00
	00		 mov	 WORD PTR ?menuBtn@@3FA, ax ; menuBtn

; 2050 : 	cardBtn = 0;

  00031	33 c0		 xor	 eax, eax
  00033	66 a3 00 00 00
	00		 mov	 WORD PTR ?cardBtn@@3FA, ax ; cardBtn

; 2051 : 	partyBtn = 0;

  00039	33 c0		 xor	 eax, eax
  0003b	66 a3 00 00 00
	00		 mov	 WORD PTR ?partyBtn@@3FA, ax ; partyBtn

; 2052 : 	tradeBtn = 0;

  00041	33 c0		 xor	 eax, eax
  00043	66 a3 00 00 00
	00		 mov	 WORD PTR ?tradeBtn@@3FA, ax ; tradeBtn

; 2053 : // initPcAll()?割?????????????????
; 2054 : //	mailLamp = 0;
; 2055 : #ifdef __PHONEMESSAGE
; 2056 : 	msgBtn = 0;  //LeiBoy 2002 Jan.26
; 2057 : #endif
; 2058 : #ifdef _STREET_VENDOR
; 2059 : 	sStreetVendorBtn = 0;

  00049	33 c0		 xor	 eax, eax
  0004b	66 a3 00 00 00
	00		 mov	 WORD PTR ?sStreetVendorBtn@@3FA, ax ; sStreetVendorBtn

; 2060 : 	sStreetVendorBuyBtn = 0;

  00051	33 c0		 xor	 eax, eax
  00053	66 a3 00 00 00
	00		 mov	 WORD PTR ?sStreetVendorBuyBtn@@3FA, ax ; sStreetVendorBuyBtn

; 2061 : #else
; 2062 : 	#ifdef _TABLEOFSKILL				// (涓寮) Syu ADD 7.0 板浜虹╂借〃
; 2063 : 	skillBtn = 0 ; 
; 2064 : 	#endif
; 2065 : #endif
; 2066 : #ifdef _FRIENDCHANNEL      //ROG ADD 濂藉棰
; 2067 : 	chatRoomBtn = 0;

  00059	33 c0		 xor	 eax, eax
  0005b	66 a3 00 00 00
	00		 mov	 WORD PTR ?chatRoomBtn@@3FA, ax ; chatRoomBtn

; 2068 : 	SelRoomBtn = 0;

  00061	33 c0		 xor	 eax, eax
  00063	66 a3 00 00 00
	00		 mov	 WORD PTR ?SelRoomBtn@@3FA, ax ; SelRoomBtn

; 2069 : 	TalkMode = 0;

  00069	c7 05 00 00 00
	00 00 00 00 00	 mov	 DWORD PTR ?TalkMode@@3HA, 0 ; TalkMode

; 2070 : #endif
; 2071 : 	mailLampDrawFlag = 0;

  00073	33 c0		 xor	 eax, eax
  00075	66 a3 00 00 00
	00		 mov	 WORD PTR ?mailLampDrawFlag@@3FA, ax ; mailLampDrawFlag

; 2072 : 	mailLampFlashTime = 0;

  0007b	c7 05 00 00 00
	00 00 00 00 00	 mov	 DWORD PTR ?mailLampFlashTime@@3IA, 0 ; mailLampFlashTime

; 2073 : 	joinBattleBtn = 0;

  00085	33 c0		 xor	 eax, eax
  00087	66 a3 00 00 00
	00		 mov	 WORD PTR ?joinBattleBtn@@3FA, ax ; joinBattleBtn

; 2074 : 	duelBtn = 0;

  0008d	33 c0		 xor	 eax, eax
  0008f	66 a3 00 00 00
	00		 mov	 WORD PTR ?duelBtn@@3FA, ax ; duelBtn

; 2075 : 	actBtn = 0;

  00095	33 c0		 xor	 eax, eax
  00097	66 a3 00 00 00
	00		 mov	 WORD PTR ?actBtn@@3FA, ax ; actBtn

; 2076 : 	actBtnForcus = 0;

  0009d	33 c0		 xor	 eax, eax
  0009f	66 a3 00 00 00
	00		 mov	 WORD PTR ?actBtnForcus@@3FA, ax ; actBtnForcus

; 2077 : 	nowActMode = 0;

  000a5	c7 05 00 00 00
	00 00 00 00 00	 mov	 DWORD PTR ?nowActMode@@3HA, 0 ; nowActMode

; 2078 : 	drawTimeAnimeFlag = 1;

  000af	b8 01 00 00 00	 mov	 eax, 1
  000b4	66 a3 00 00 00
	00		 mov	 WORD PTR ?drawTimeAnimeFlag@@3FA, ax ; drawTimeAnimeFlag

; 2079 : 
; 2080 : 	for (i = 0; i < FIELD_FUNC_END; i++)

  000ba	c7 45 f8 00 00
	00 00		 mov	 DWORD PTR _i$[ebp], 0
  000c1	eb 09		 jmp	 SHORT $LN4@initFieldP
$LN2@initFieldP:
  000c3	8b 45 f8	 mov	 eax, DWORD PTR _i$[ebp]
  000c6	83 c0 01	 add	 eax, 1
  000c9	89 45 f8	 mov	 DWORD PTR _i$[ebp], eax
$LN4@initFieldP:
  000cc	83 7d f8 0d	 cmp	 DWORD PTR _i$[ebp], 13	; 0000000dH
  000d0	7d 10		 jge	 SHORT $LN3@initFieldP

; 2081 : 		fieldBtnHitId[i] = -2;

  000d2	8b 45 f8	 mov	 eax, DWORD PTR _i$[ebp]
  000d5	c7 04 85 00 00
	00 00 fe ff ff
	ff		 mov	 DWORD PTR ?fieldBtnHitId@@3PAHA[eax*4], -2 ; fffffffeH
  000e0	eb e1		 jmp	 SHORT $LN2@initFieldP
$LN3@initFieldP:

; 2082 : 	etcSendFlag = 0;

  000e2	33 c0		 xor	 eax, eax
  000e4	66 a3 00 00 00
	00		 mov	 WORD PTR ?etcSendFlag@@3FA, ax ; etcSendFlag

; 2083 : 	etcSwitchChangeFlag = 0;

  000ea	33 c0		 xor	 eax, eax
  000ec	66 a3 00 00 00
	00		 mov	 WORD PTR ?etcSwitchChangeFlag@@3FA, ax ; etcSwitchChangeFlag

; 2084 : 	fieldInfoTime = 0;

  000f2	c7 05 00 00 00
	00 00 00 00 00	 mov	 DWORD PTR ?fieldInfoTime@@3IA, 0 ; fieldInfoTime

; 2085 : 	partyBtnEnableFlag = 1;

  000fc	b8 01 00 00 00	 mov	 eax, 1
  00101	66 a3 00 00 00
	00		 mov	 WORD PTR ?partyBtnEnableFlag@@3FA, ax ; partyBtnEnableFlag

; 2086 : 	joinBattleBtnEnableFlag = 1;

  00107	b8 01 00 00 00	 mov	 eax, 1
  0010c	66 a3 00 00 00
	00		 mov	 WORD PTR ?joinBattleBtnEnableFlag@@3FA, ax ; joinBattleBtnEnableFlag

; 2087 : 	joinBattleHelpMsgFlag = 1;

  00112	b8 01 00 00 00	 mov	 eax, 1
  00117	66 a3 00 00 00
	00		 mov	 WORD PTR ?joinBattleHelpMsgFlag@@3FA, ax ; joinBattleHelpMsgFlag

; 2088 : 	//tradeBtnEnableFlag = 1;
; 2089 : }

  0011d	5f		 pop	 edi
  0011e	5e		 pop	 esi
  0011f	5b		 pop	 ebx
  00120	8b e5		 mov	 esp, ebp
  00122	5d		 pop	 ebp
  00123	c3		 ret	 0
?initFieldProc@@YAXXZ ENDP				; initFieldProc
_TEXT	ENDS
; Function compile flags: /Odtp /RTCsu /ZI
; File c:\program files (x86)\windows kits\10\include\10.0.10240.0\ucrt\stdio.h
;	COMDAT __snprintf
_TEXT	SEGMENT
__ArgList$ = -20					; size = 4
__Result$ = -8						; size = 4
__Buffer$ = 8						; size = 4
__BufferCount$ = 12					; size = 4
__Format$ = 16						; size = 4
__snprintf PROC						; COMDAT

; 1960 : {

  00000	55		 push	 ebp
  00001	8b ec		 mov	 ebp, esp
  00003	81 ec d8 00 00
	00		 sub	 esp, 216		; 000000d8H
  00009	53		 push	 ebx
  0000a	56		 push	 esi
  0000b	57		 push	 edi
  0000c	8d bd 28 ff ff
	ff		 lea	 edi, DWORD PTR [ebp-216]
  00012	b9 36 00 00 00	 mov	 ecx, 54			; 00000036H
  00017	b8 cc cc cc cc	 mov	 eax, -858993460		; ccccccccH
  0001c	f3 ab		 rep stosd

; 1961 :     int _Result;
; 1962 :     va_list _ArgList;
; 1963 :     __crt_va_start(_ArgList, _Format);

  0001e	e8 00 00 00 00	 call	 ??$__vcrt_va_start_verify_argument_type@QBD@@YAXXZ ; __vcrt_va_start_verify_argument_type<char const * const>
  00023	8d 45 14	 lea	 eax, DWORD PTR __Format$[ebp+4]
  00026	89 45 ec	 mov	 DWORD PTR __ArgList$[ebp], eax

; 1964 : #pragma warning(suppress:28719)    // __WARNING_BANNED_API_USAGE
; 1965 :     _Result = _vsnprintf(_Buffer, _BufferCount, _Format, _ArgList);

  00029	8b 45 ec	 mov	 eax, DWORD PTR __ArgList$[ebp]
  0002c	50		 push	 eax
  0002d	8b 4d 10	 mov	 ecx, DWORD PTR __Format$[ebp]
  00030	51		 push	 ecx
  00031	8b 55 0c	 mov	 edx, DWORD PTR __BufferCount$[ebp]
  00034	52		 push	 edx
  00035	8b 45 08	 mov	 eax, DWORD PTR __Buffer$[ebp]
  00038	50		 push	 eax
  00039	e8 00 00 00 00	 call	 __vsnprintf
  0003e	83 c4 10	 add	 esp, 16			; 00000010H
  00041	89 45 f8	 mov	 DWORD PTR __Result$[ebp], eax

; 1966 :     __crt_va_end(_ArgList);

  00044	c7 45 ec 00 00
	00 00		 mov	 DWORD PTR __ArgList$[ebp], 0

; 1967 :     return _Result;

  0004b	8b 45 f8	 mov	 eax, DWORD PTR __Result$[ebp]

; 1968 : }

  0004e	5f		 pop	 edi
  0004f	5e		 pop	 esi
  00050	5b		 pop	 ebx
  00051	81 c4 d8 00 00
	00		 add	 esp, 216		; 000000d8H
  00057	3b ec		 cmp	 ebp, esp
  00059	e8 00 00 00 00	 call	 __RTC_CheckEsp
  0005e	8b e5		 mov	 esp, ebp
  00060	5d		 pop	 ebp
  00061	c3		 ret	 0
__snprintf ENDP
_TEXT	ENDS
; Function compile flags: /Odtp /RTCsu /ZI
; File c:\program files (x86)\windows kits\10\include\10.0.10240.0\ucrt\stdio.h
;	COMDAT _sprintf
_TEXT	SEGMENT
__ArgList$ = -20					; size = 4
__Result$ = -8						; size = 4
__Buffer$ = 8						; size = 4
__Format$ = 12						; size = 4
_sprintf PROC						; COMDAT

; 1776 : {

  00000	55		 push	 ebp
  00001	8b ec		 mov	 ebp, esp
  00003	81 ec d8 00 00
	00		 sub	 esp, 216		; 000000d8H
  00009	53		 push	 ebx
  0000a	56		 push	 esi
  0000b	57		 push	 edi
  0000c	8d bd 28 ff ff
	ff		 lea	 edi, DWORD PTR [ebp-216]
  00012	b9 36 00 00 00	 mov	 ecx, 54			; 00000036H
  00017	b8 cc cc cc cc	 mov	 eax, -858993460		; ccccccccH
  0001c	f3 ab		 rep stosd

; 1777 :     int _Result;
; 1778 :     va_list _ArgList;
; 1779 :     __crt_va_start(_ArgList, _Format);

  0001e	e8 00 00 00 00	 call	 ??$__vcrt_va_start_verify_argument_type@QBD@@YAXXZ ; __vcrt_va_start_verify_argument_type<char const * const>
  00023	8d 45 10	 lea	 eax, DWORD PTR __Format$[ebp+4]
  00026	89 45 ec	 mov	 DWORD PTR __ArgList$[ebp], eax

; 1780 : 
; 1781 :     #pragma warning(push)
; 1782 :     #pragma warning(disable: 4996) // Deprecation
; 1783 :     _Result = _vsprintf_l(_Buffer, _Format, NULL, _ArgList);

  00029	8b 45 ec	 mov	 eax, DWORD PTR __ArgList$[ebp]
  0002c	50		 push	 eax
  0002d	6a 00		 push	 0
  0002f	8b 4d 0c	 mov	 ecx, DWORD PTR __Format$[ebp]
  00032	51		 push	 ecx
  00033	8b 55 08	 mov	 edx, DWORD PTR __Buffer$[ebp]
  00036	52		 push	 edx
  00037	e8 00 00 00 00	 call	 __vsprintf_l
  0003c	83 c4 10	 add	 esp, 16			; 00000010H
  0003f	89 45 f8	 mov	 DWORD PTR __Result$[ebp], eax

; 1784 :     #pragma warning(pop)
; 1785 : 
; 1786 :     __crt_va_end(_ArgList);

  00042	c7 45 ec 00 00
	00 00		 mov	 DWORD PTR __ArgList$[ebp], 0

; 1787 :     return _Result;

  00049	8b 45 f8	 mov	 eax, DWORD PTR __Result$[ebp]

; 1788 : }

  0004c	5f		 pop	 edi
  0004d	5e		 pop	 esi
  0004e	5b		 pop	 ebx
  0004f	81 c4 d8 00 00
	00		 add	 esp, 216		; 000000d8H
  00055	3b ec		 cmp	 ebp, esp
  00057	e8 00 00 00 00	 call	 __RTC_CheckEsp
  0005c	8b e5		 mov	 esp, ebp
  0005e	5d		 pop	 ebp
  0005f	c3		 ret	 0
_sprintf ENDP
_TEXT	ENDS
; Function compile flags: /Odtp /RTCsu /ZI
; File c:\program files (x86)\windows kits\10\include\10.0.10240.0\ucrt\stdio.h
;	COMDAT __vsprintf_l
_TEXT	SEGMENT
__Buffer$ = 8						; size = 4
__Format$ = 12						; size = 4
__Locale$ = 16						; size = 4
__ArgList$ = 20						; size = 4
__vsprintf_l PROC					; COMDAT

; 1455 : {

  00000	55		 push	 ebp
  00001	8b ec		 mov	 ebp, esp
  00003	81 ec c0 00 00
	00		 sub	 esp, 192		; 000000c0H
  00009	53		 push	 ebx
  0000a	56		 push	 esi
  0000b	57		 push	 edi
  0000c	8d bd 40 ff ff
	ff		 lea	 edi, DWORD PTR [ebp-192]
  00012	b9 30 00 00 00	 mov	 ecx, 48			; 00000030H
  00017	b8 cc cc cc cc	 mov	 eax, -858993460		; ccccccccH
  0001c	f3 ab		 rep stosd

; 1456 :     #pragma warning(push)
; 1457 :     #pragma warning(disable: 4996) // Deprecation
; 1458 :     return _vsnprintf_l(_Buffer, (size_t)-1, _Format, _Locale, _ArgList);

  0001e	8b 45 14	 mov	 eax, DWORD PTR __ArgList$[ebp]
  00021	50		 push	 eax
  00022	8b 4d 10	 mov	 ecx, DWORD PTR __Locale$[ebp]
  00025	51		 push	 ecx
  00026	8b 55 0c	 mov	 edx, DWORD PTR __Format$[ebp]
  00029	52		 push	 edx
  0002a	6a ff		 push	 -1
  0002c	8b 45 08	 mov	 eax, DWORD PTR __Buffer$[ebp]
  0002f	50		 push	 eax
  00030	e8 00 00 00 00	 call	 __vsnprintf_l
  00035	83 c4 14	 add	 esp, 20			; 00000014H

; 1459 :     #pragma warning(pop)
; 1460 : }

  00038	5f		 pop	 edi
  00039	5e		 pop	 esi
  0003a	5b		 pop	 ebx
  0003b	81 c4 c0 00 00
	00		 add	 esp, 192		; 000000c0H
  00041	3b ec		 cmp	 ebp, esp
  00043	e8 00 00 00 00	 call	 __RTC_CheckEsp
  00048	8b e5		 mov	 esp, ebp
  0004a	5d		 pop	 ebp
  0004b	c3		 ret	 0
__vsprintf_l ENDP
_TEXT	ENDS
; Function compile flags: /Odtp /RTCsu /ZI
; File c:\program files (x86)\windows kits\10\include\10.0.10240.0\ucrt\stdio.h
;	COMDAT __vsnprintf
_TEXT	SEGMENT
__Buffer$ = 8						; size = 4
__BufferCount$ = 12					; size = 4
__Format$ = 16						; size = 4
__ArgList$ = 20						; size = 4
__vsnprintf PROC					; COMDAT

; 1405 : {

  00000	55		 push	 ebp
  00001	8b ec		 mov	 ebp, esp
  00003	81 ec c0 00 00
	00		 sub	 esp, 192		; 000000c0H
  00009	53		 push	 ebx
  0000a	56		 push	 esi
  0000b	57		 push	 edi
  0000c	8d bd 40 ff ff
	ff		 lea	 edi, DWORD PTR [ebp-192]
  00012	b9 30 00 00 00	 mov	 ecx, 48			; 00000030H
  00017	b8 cc cc cc cc	 mov	 eax, -858993460		; ccccccccH
  0001c	f3 ab		 rep stosd

; 1406 :     #pragma warning(push)
; 1407 :     #pragma warning(disable: 4996) // Deprecation
; 1408 :     return _vsnprintf_l(_Buffer, _BufferCount, _Format, NULL, _ArgList);

  0001e	8b 45 14	 mov	 eax, DWORD PTR __ArgList$[ebp]
  00021	50		 push	 eax
  00022	6a 00		 push	 0
  00024	8b 4d 10	 mov	 ecx, DWORD PTR __Format$[ebp]
  00027	51		 push	 ecx
  00028	8b 55 0c	 mov	 edx, DWORD PTR __BufferCount$[ebp]
  0002b	52		 push	 edx
  0002c	8b 45 08	 mov	 eax, DWORD PTR __Buffer$[ebp]
  0002f	50		 push	 eax
  00030	e8 00 00 00 00	 call	 __vsnprintf_l
  00035	83 c4 14	 add	 esp, 20			; 00000014H

; 1409 :     #pragma warning(pop)
; 1410 : }

  00038	5f		 pop	 edi
  00039	5e		 pop	 esi
  0003a	5b		 pop	 ebx
  0003b	81 c4 c0 00 00
	00		 add	 esp, 192		; 000000c0H
  00041	3b ec		 cmp	 ebp, esp
  00043	e8 00 00 00 00	 call	 __RTC_CheckEsp
  00048	8b e5		 mov	 esp, ebp
  0004a	5d		 pop	 ebp
  0004b	c3		 ret	 0
__vsnprintf ENDP
_TEXT	ENDS
; Function compile flags: /Odtp /RTCsu /ZI
; File c:\program files (x86)\windows kits\10\include\10.0.10240.0\ucrt\stdio.h
;	COMDAT __vsnprintf_l
_TEXT	SEGMENT
tv74 = -208						; size = 4
__Result$ = -8						; size = 4
__Buffer$ = 8						; size = 4
__BufferCount$ = 12					; size = 4
__Format$ = 16						; size = 4
__Locale$ = 20						; size = 4
__ArgList$ = 24						; size = 4
__vsnprintf_l PROC					; COMDAT

; 1385 : {

  00000	55		 push	 ebp
  00001	8b ec		 mov	 ebp, esp
  00003	81 ec d0 00 00
	00		 sub	 esp, 208		; 000000d0H
  00009	53		 push	 ebx
  0000a	56		 push	 esi
  0000b	57		 push	 edi
  0000c	8d bd 30 ff ff
	ff		 lea	 edi, DWORD PTR [ebp-208]
  00012	b9 34 00 00 00	 mov	 ecx, 52			; 00000034H
  00017	b8 cc cc cc cc	 mov	 eax, -858993460		; ccccccccH
  0001c	f3 ab		 rep stosd

; 1386 :     int const _Result = __stdio_common_vsprintf(

  0001e	8b f4		 mov	 esi, esp
  00020	8b 45 18	 mov	 eax, DWORD PTR __ArgList$[ebp]
  00023	50		 push	 eax
  00024	8b 4d 14	 mov	 ecx, DWORD PTR __Locale$[ebp]
  00027	51		 push	 ecx
  00028	8b 55 10	 mov	 edx, DWORD PTR __Format$[ebp]
  0002b	52		 push	 edx
  0002c	8b 45 0c	 mov	 eax, DWORD PTR __BufferCount$[ebp]
  0002f	50		 push	 eax
  00030	8b 4d 08	 mov	 ecx, DWORD PTR __Buffer$[ebp]
  00033	51		 push	 ecx
  00034	e8 00 00 00 00	 call	 ___local_stdio_printf_options
  00039	8b 10		 mov	 edx, DWORD PTR [eax]
  0003b	83 ca 01	 or	 edx, 1
  0003e	8b 40 04	 mov	 eax, DWORD PTR [eax+4]
  00041	50		 push	 eax
  00042	52		 push	 edx
  00043	ff 15 00 00 00
	00		 call	 DWORD PTR __imp____stdio_common_vsprintf
  00049	83 c4 1c	 add	 esp, 28			; 0000001cH
  0004c	3b f4		 cmp	 esi, esp
  0004e	e8 00 00 00 00	 call	 __RTC_CheckEsp
  00053	89 45 f8	 mov	 DWORD PTR __Result$[ebp], eax

; 1387 :         _CRT_INTERNAL_LOCAL_PRINTF_OPTIONS | _CRT_INTERNAL_PRINTF_LEGACY_VSPRINTF_NULL_TERMINATION,
; 1388 :         _Buffer, _BufferCount, _Format, _Locale, _ArgList);
; 1389 : 
; 1390 :     return _Result < 0 ? -1 : _Result;

  00056	83 7d f8 00	 cmp	 DWORD PTR __Result$[ebp], 0
  0005a	7d 0c		 jge	 SHORT $LN3@vsnprintf_
  0005c	c7 85 30 ff ff
	ff ff ff ff ff	 mov	 DWORD PTR tv74[ebp], -1
  00066	eb 09		 jmp	 SHORT $LN4@vsnprintf_
$LN3@vsnprintf_:
  00068	8b 45 f8	 mov	 eax, DWORD PTR __Result$[ebp]
  0006b	89 85 30 ff ff
	ff		 mov	 DWORD PTR tv74[ebp], eax
$LN4@vsnprintf_:
  00071	8b 85 30 ff ff
	ff		 mov	 eax, DWORD PTR tv74[ebp]

; 1391 : }

  00077	5f		 pop	 edi
  00078	5e		 pop	 esi
  00079	5b		 pop	 ebx
  0007a	81 c4 d0 00 00
	00		 add	 esp, 208		; 000000d0H
  00080	3b ec		 cmp	 ebp, esp
  00082	e8 00 00 00 00	 call	 __RTC_CheckEsp
  00087	8b e5		 mov	 esp, ebp
  00089	5d		 pop	 ebp
  0008a	c3		 ret	 0
__vsnprintf_l ENDP
_TEXT	ENDS
; Function compile flags: /Odtp /RTCsu /ZI
; File c:\program files (x86)\microsoft visual studio 14.0\vc\include\vadefs.h
;	COMDAT ??$__vcrt_va_start_verify_argument_type@QBD@@YAXXZ
_TEXT	SEGMENT
??$__vcrt_va_start_verify_argument_type@QBD@@YAXXZ PROC	; __vcrt_va_start_verify_argument_type<char const * const>, COMDAT

; 144  :         {

  00000	55		 push	 ebp
  00001	8b ec		 mov	 ebp, esp
  00003	81 ec c0 00 00
	00		 sub	 esp, 192		; 000000c0H
  00009	53		 push	 ebx
  0000a	56		 push	 esi
  0000b	57		 push	 edi
  0000c	8d bd 40 ff ff
	ff		 lea	 edi, DWORD PTR [ebp-192]
  00012	b9 30 00 00 00	 mov	 ecx, 48			; 00000030H
  00017	b8 cc cc cc cc	 mov	 eax, -858993460		; ccccccccH
  0001c	f3 ab		 rep stosd

; 145  :             static_assert(!__vcrt_va_list_is_reference<_Ty>::__the_value, "va_start argument must not have reference type and must not be parenthesized");
; 146  :         }

  0001e	5f		 pop	 edi
  0001f	5e		 pop	 esi
  00020	5b		 pop	 ebx
  00021	8b e5		 mov	 esp, ebp
  00023	5d		 pop	 ebp
  00024	c3		 ret	 0
??$__vcrt_va_start_verify_argument_type@QBD@@YAXXZ ENDP	; __vcrt_va_start_verify_argument_type<char const * const>
_TEXT	ENDS
; Function compile flags: /Odtp /RTCsu /ZI
; File c:\program files (x86)\windows kits\10\include\10.0.10240.0\ucrt\corecrt_stdio_config.h
;	COMDAT ___local_stdio_printf_options
_TEXT	SEGMENT
___local_stdio_printf_options PROC			; COMDAT

; 73   : {

  00000	55		 push	 ebp
  00001	8b ec		 mov	 ebp, esp
  00003	81 ec c0 00 00
	00		 sub	 esp, 192		; 000000c0H
  00009	53		 push	 ebx
  0000a	56		 push	 esi
  0000b	57		 push	 edi
  0000c	8d bd 40 ff ff
	ff		 lea	 edi, DWORD PTR [ebp-192]
  00012	b9 30 00 00 00	 mov	 ecx, 48			; 00000030H
  00017	b8 cc cc cc cc	 mov	 eax, -858993460		; ccccccccH
  0001c	f3 ab		 rep stosd

; 74   :     static unsigned __int64 _OptionsStorage;
; 75   :     return &_OptionsStorage;

  0001e	b8 00 00 00 00	 mov	 eax, OFFSET ?_OptionsStorage@?1??__local_stdio_printf_options@@9@4_KA ; `__local_stdio_printf_options'::`2'::_OptionsStorage

; 76   : }

  00023	5f		 pop	 edi
  00024	5e		 pop	 esi
  00025	5b		 pop	 ebx
  00026	8b e5		 mov	 esp, ebp
  00028	5d		 pop	 ebp
  00029	c3		 ret	 0
___local_stdio_printf_options ENDP
_TEXT	ENDS
END
