; Listing generated by Microsoft (R) Optimizing Compiler Version 19.00.24215.1 

	TITLE	C:\Users\Administrator\Desktop\????? ??\????? ??\Client Source Code\system\font.cpp
	.686P
	.XMM
	include listing.inc
	.model	flat

INCLUDELIB MSVCRTD
INCLUDELIB OLDNAMES

PUBLIC	?FontZenkauWidth@@3HA				; FontZenkauWidth
PUBLIC	?FontHankakuWidth@@3HA				; FontHankakuWidth
PUBLIC	?FontBuffer@@3PAUFONT_BUFFER@@A			; FontBuffer
PUBLIC	?FontCnt@@3HA					; FontCnt
PUBLIC	?FontSizeHdc@@3PAUHDC__@@A			; FontSizeHdc
PUBLIC	?hScrDC@@3PAUHDC__@@A				; hScrDC
_BSS	SEGMENT
?FontZenkauWidth@@3HA DD 01H DUP (?)			; FontZenkauWidth
?FontHankakuWidth@@3HA DD 01H DUP (?)			; FontHankakuWidth
?FontBuffer@@3PAUFONT_BUFFER@@A DB 044000H DUP (?)	; FontBuffer
?FontCnt@@3HA DD 01H DUP (?)				; FontCnt
?FontSizeHdc@@3PAUHDC__@@A DD 01H DUP (?)		; FontSizeHdc
?hScrDC@@3PAUHDC__@@A DD 01H DUP (?)			; hScrDC
_BSS	ENDS
PUBLIC	___local_stdio_printf_options
PUBLIC	??$__vcrt_va_start_verify_argument_type@QBD@@YAXXZ ; __vcrt_va_start_verify_argument_type<char const * const>
PUBLIC	__vsnprintf_l
PUBLIC	__vsprintf_l
PUBLIC	_sprintf
PUBLIC	?sunday@@YAPADPAD0@Z				; sunday
PUBLIC	?NewStockFontBuffer@@YAXPAU_CHAT_BUFFER@@HEPADHH@Z ; NewStockFontBuffer
PUBLIC	?delFontBuffer@@YAXPAU_CHAT_BUFFER@@@Z		; delFontBuffer
PUBLIC	?StockFontBuffer@@YAHHHDHPADH@Z			; StockFontBuffer
PUBLIC	?StockFontBufferExt@@YAHHHDHPADHH@Z		; StockFontBufferExt
PUBLIC	?StockFontBuffer2@@YAXPAUSTR_BUFFER@@@Z		; StockFontBuffer2
PUBLIC	?StockFontBuffer3@@YAHPAUSTR_BUFFER@@@Z		; StockFontBuffer3
PUBLIC	?CreatFontHdc@@YAXXZ				; CreatFontHdc
PUBLIC	?getTextLength@@YAHPAD@Z			; getTextLength
PUBLIC	?getStrColor@@YAHPAD@Z				; getStrColor
PUBLIC	?getStrStr@@YAXPAD0@Z				; getStrStr
PUBLIC	?getStrPos@@YA_NPADPAU_CHAT_BUFFER@@@Z		; getStrPos
PUBLIC	?getStrPetindex@@YAHPAD@Z			; getStrPetindex
PUBLIC	?getStrPet@@YA_NPADPAU_CHAT_BUFFER@@@Z		; getStrPet
PUBLIC	?getStrExtraData@@YA_NPAD0@Z			; getStrExtraData
PUBLIC	?MyNewStockFontBuffer@@YAXPAU_CHAT_BUFFER@@HEPADHH@Z ; MyNewStockFontBuffer
PUBLIC	??$strncpy_s@$0BAA@@@YAHAAY0BAA@DPBDI@Z		; strncpy_s<256>
PUBLIC	?StockFontBufferFamily@@YAXPAUSTR_BUFFER@@@Z	; StockFontBufferFamily
PUBLIC	?_OptionsStorage@?1??__local_stdio_printf_options@@9@4_KA ; `__local_stdio_printf_options'::`2'::_OptionsStorage
PUBLIC	??_C@_07GJNDNEJP@FontHdc?$AA@			; `string'
PUBLIC	??_C@_0BD@HLAEMJFN@Microsoft?5JhengHei?$AA@	; `string'
PUBLIC	??_C@_04FOGALLPG@?$LB?$LM?$LI?$LC?$AA@		; `string'
PUBLIC	??_C@_0BB@NLNMPB@?$KD?S?$KD?t?$KD?o?$KD?n?$KD?e?$KD?A?$KD?g?$KD?e?$AA@ ; `string'
PUBLIC	??_C@_0L@GONBBDGE@?$DP?K?oHDC?$DP?$DP?$KD?$KB?$AA@ ; `string'
PUBLIC	??_C@_06CDHFECOP@color?$DN?$AA@			; `string'
PUBLIC	??_C@_04FOGPFBLG@str?$DN?$AA@			; `string'
PUBLIC	??_C@_01CELHOKLL@?$HN?$AA@			; `string'
PUBLIC	?__LINE__Var@?0??getStrPos@@YA_NPADPAU_CHAT_BUFFER@@@Z@4JA ; `getStrPos'::`1'::__LINE__Var
PUBLIC	??_C@_04JPBFJBMP@pos?$DN?$AA@			; `string'
PUBLIC	??_C@_0GC@GJNKFFLF@c?3?2users?2administrator?2desktop?2?$LN@ ; `string'
PUBLIC	??_C@_04PFOHGHCO@pet?$DN?$AA@			; `string'
PUBLIC	?__LINE__Var@?0??getStrPet@@YA_NPADPAU_CHAT_BUFFER@@@Z@4JA ; `getStrPet'::`1'::__LINE__Var
PUBLIC	??_C@_01HCONENDN@?$HL?$AA@			; `string'
PUBLIC	??_C@_05ELILFBDN@item?$DN?$AA@			; `string'
PUBLIC	??_C@_01IPJKGB@?$CD?$AA@			; `string'
EXTRN	??_V@YAXPAX@Z:PROC				; operator delete[]
EXTRN	___report_rangecheckfailure:PROC
EXTRN	??_U@YAPAXIHPBDH@Z:PROC				; operator new[]
EXTRN	_memcpy:PROC
EXTRN	_memset:PROC
EXTRN	__imp__strncpy_s:PROC
EXTRN	_strcpy:PROC
EXTRN	_strlen:PROC
EXTRN	__imp__lstrlenA@4:PROC
EXTRN	__imp__CreateCompatibleDC@4:PROC
EXTRN	__imp__CreateDCA@16:PROC
EXTRN	__imp__CreateFontA@56:PROC
EXTRN	__imp__GetTextExtentPoint32A@16:PROC
EXTRN	__imp__SelectObject@8:PROC
EXTRN	__imp__LCMapStringA@24:PROC
EXTRN	__imp__calloc:PROC
EXTRN	__imp__free:PROC
EXTRN	__imp__exit:PROC
EXTRN	__imp__atoi:PROC
EXTRN	__imp____stdio_common_vsprintf:PROC
EXTRN	?split_damage@@YAHPADDPAHI@Z:PROC		; split_damage
EXTRN	?GetStrLastByte@@YAHPAD@Z:PROC			; GetStrLastByte
EXTRN	?MessageBoxNew@@YAHPAUHWND__@@PBD1I@Z:PROC	; MessageBoxNew
EXTRN	?GB2312ToBIG5@@YAPADPBD@Z:PROC			; GB2312ToBIG5
EXTRN	?GB2312ToBIG5@@YAPADPBD@Z:PROC			; GB2312ToBIG5
EXTRN	?GB2312ToBIG5@@YAPADPBD@Z:PROC			; GB2312ToBIG5
EXTRN	?GB2312ToBIG5@@YAPADPBD@Z:PROC			; GB2312ToBIG5
EXTRN	@_RTC_CheckStackVars@8:PROC
EXTRN	@__security_check_cookie@4:PROC
EXTRN	__RTC_CheckEsp:PROC
EXTRN	__RTC_InitBase:PROC
EXTRN	__RTC_Shutdown:PROC
EXTRN	_memset:PROC
EXTRN	?±‡¬Î@@3HA:DWORD				; ±‡¬Î
EXTRN	?∑±ÃÂø™πÿ@@3HA:DWORD				; ∑±ÃÂø™πÿ
EXTRN	?±‡¬Î@@3HA:DWORD				; ±‡¬Î
EXTRN	?±‡¬Î@@3HA:DWORD				; ±‡¬Î
EXTRN	?±‡¬Î@@3HA:DWORD				; ±‡¬Î
EXTRN	___security_cookie:DWORD
;	COMDAT ?_OptionsStorage@?1??__local_stdio_printf_options@@9@4_KA
_BSS	SEGMENT
?_OptionsStorage@?1??__local_stdio_printf_options@@9@4_KA DQ 01H DUP (?) ; `__local_stdio_printf_options'::`2'::_OptionsStorage
_BSS	ENDS
;	COMDAT rtc$TMZ
rtc$TMZ	SEGMENT
__RTC_Shutdown.rtc$TMZ DD FLAT:__RTC_Shutdown
rtc$TMZ	ENDS
;	COMDAT rtc$IMZ
rtc$IMZ	SEGMENT
__RTC_InitBase.rtc$IMZ DD FLAT:__RTC_InitBase
rtc$IMZ	ENDS
;	COMDAT ??_C@_01IPJKGB@?$CD?$AA@
CONST	SEGMENT
??_C@_01IPJKGB@?$CD?$AA@ DB '#', 00H			; `string'
CONST	ENDS
;	COMDAT ??_C@_05ELILFBDN@item?$DN?$AA@
CONST	SEGMENT
??_C@_05ELILFBDN@item?$DN?$AA@ DB 'item=', 00H		; `string'
CONST	ENDS
;	COMDAT ??_C@_01HCONENDN@?$HL?$AA@
CONST	SEGMENT
??_C@_01HCONENDN@?$HL?$AA@ DB '{', 00H			; `string'
CONST	ENDS
;	COMDAT ?__LINE__Var@?0??getStrPet@@YA_NPADPAU_CHAT_BUFFER@@@Z@4JA
_DATA	SEGMENT
?__LINE__Var@?0??getStrPet@@YA_NPADPAU_CHAT_BUFFER@@@Z@4JA DD 0d9H ; `getStrPet'::`1'::__LINE__Var
_DATA	ENDS
;	COMDAT ??_C@_04PFOHGHCO@pet?$DN?$AA@
CONST	SEGMENT
??_C@_04PFOHGHCO@pet?$DN?$AA@ DB 'pet=', 00H		; `string'
CONST	ENDS
;	COMDAT ??_C@_0GC@GJNKFFLF@c?3?2users?2administrator?2desktop?2?$LN@
CONST	SEGMENT
??_C@_0GC@GJNKFFLF@c?3?2users?2administrator?2desktop?2?$LN@ DB 'c:\users'
	DB	'\administrator\desktop\', 0bdH, 0baH, 0c5H, 0e6H, 0bfH, 0a1H, 0c0H
	DB	0ccH, 0c1H, 0f6H, ' ', 0c0H, 0daH, 0b7H, 0e1H, '\', 0c5H, 0acH
	DB	0b6H, 0f3H, 0c0H, 0ccH, 0beH, 0f0H, 0c6H, 0aeH, ' ', 0c0H, 0daH
	DB	0b7H, 0e1H, '\client source code\system\font.cpp', 00H ; `string'
CONST	ENDS
;	COMDAT ??_C@_04JPBFJBMP@pos?$DN?$AA@
CONST	SEGMENT
??_C@_04JPBFJBMP@pos?$DN?$AA@ DB 'pos=', 00H		; `string'
CONST	ENDS
;	COMDAT ?__LINE__Var@?0??getStrPos@@YA_NPADPAU_CHAT_BUFFER@@@Z@4JA
_DATA	SEGMENT
?__LINE__Var@?0??getStrPos@@YA_NPADPAU_CHAT_BUFFER@@@Z@4JA DD 0bbH ; `getStrPos'::`1'::__LINE__Var
_DATA	ENDS
;	COMDAT ??_C@_01CELHOKLL@?$HN?$AA@
CONST	SEGMENT
??_C@_01CELHOKLL@?$HN?$AA@ DB '}', 00H			; `string'
CONST	ENDS
;	COMDAT ??_C@_04FOGPFBLG@str?$DN?$AA@
CONST	SEGMENT
??_C@_04FOGPFBLG@str?$DN?$AA@ DB 'str=', 00H		; `string'
CONST	ENDS
;	COMDAT ??_C@_06CDHFECOP@color?$DN?$AA@
CONST	SEGMENT
??_C@_06CDHFECOP@color?$DN?$AA@ DB 'color=', 00H	; `string'
CONST	ENDS
;	COMDAT ??_C@_0L@GONBBDGE@?$DP?K?oHDC?$DP?$DP?$KD?$KB?$AA@
CONST	SEGMENT
??_C@_0L@GONBBDGE@?$DP?K?oHDC?$DP?$DP?$KD?$KB?$AA@ DB '?', 0cbH, 0efH, 'H'
	DB	'DC??', 0a3H, 0a1H, 00H			; `string'
CONST	ENDS
;	COMDAT ??_C@_0BB@NLNMPB@?$KD?S?$KD?t?$KD?o?$KD?n?$KD?e?$KD?A?$KD?g?$KD?e?$AA@
CONST	SEGMENT
??_C@_0BB@NLNMPB@?$KD?S?$KD?t?$KD?o?$KD?n?$KD?e?$KD?A?$KD?g?$KD?e?$AA@ DB 0a3H
	DB	0d3H, 0a3H, 0f4H, 0a3H, 0efH, 0a3H, 0eeH, 0a3H, 0e5H, 0a3H, 0c1H
	DB	0a3H, 0e7H, 0a3H, 0e5H, 00H			; `string'
CONST	ENDS
;	COMDAT ??_C@_04FOGALLPG@?$LB?$LM?$LI?$LC?$AA@
CONST	SEGMENT
??_C@_04FOGALLPG@?$LB?$LM?$LI?$LC?$AA@ DB 0b1H, 0bcH, 0b8H, 0b2H, 00H ; `string'
CONST	ENDS
;	COMDAT ??_C@_0BD@HLAEMJFN@Microsoft?5JhengHei?$AA@
CONST	SEGMENT
??_C@_0BD@HLAEMJFN@Microsoft?5JhengHei?$AA@ DB 'Microsoft JhengHei', 00H ; `string'
CONST	ENDS
;	COMDAT ??_C@_07GJNDNEJP@FontHdc?$AA@
CONST	SEGMENT
??_C@_07GJNDNEJP@FontHdc?$AA@ DB 'FontHdc', 00H		; `string'
CONST	ENDS
; Function compile flags: /Odtp /RTCsu /ZI
; File c:\users\administrator\desktop\????? ??\????? ??\client source code\system\font.cpp
;	COMDAT ?StockFontBufferFamily@@YAXPAUSTR_BUFFER@@@Z
_TEXT	SEGMENT
_i$1 = -348						; size = 4
_––◊÷ ˝$ = -336						; size = 4
_splitStr$ = -324					; size = 256
_SetCursor$ = -60					; size = 4
_cursor$ = -48						; size = 4
_bakSplitPoint$ = -36					; size = 4
_splitPoint$ = -24					; size = 4
_lineDist$ = -12					; size = 4
__$ArrayPad$ = -4					; size = 4
_strBuffer$ = 8						; size = 4
?StockFontBufferFamily@@YAXPAUSTR_BUFFER@@@Z PROC	; StockFontBufferFamily, COMDAT

; 593  : void StockFontBufferFamily(STR_BUFFER *strBuffer){

  00000	55		 push	 ebp
  00001	8b ec		 mov	 ebp, esp
  00003	81 ec 20 02 00
	00		 sub	 esp, 544		; 00000220H
  00009	53		 push	 ebx
  0000a	56		 push	 esi
  0000b	57		 push	 edi
  0000c	8d bd e0 fd ff
	ff		 lea	 edi, DWORD PTR [ebp-544]
  00012	b9 88 00 00 00	 mov	 ecx, 136		; 00000088H
  00017	b8 cc cc cc cc	 mov	 eax, -858993460		; ccccccccH
  0001c	f3 ab		 rep stosd
  0001e	a1 00 00 00 00	 mov	 eax, DWORD PTR ___security_cookie
  00023	33 c5		 xor	 eax, ebp
  00025	89 45 fc	 mov	 DWORD PTR __$ArrayPad$[ebp], eax

; 594  : 	int lineDist = 0; //Ë°åË∑ù

  00028	c7 45 f4 00 00
	00 00		 mov	 DWORD PTR _lineDist$[ebp], 0

; 595  : 	int splitPoint = 0;

  0002f	c7 45 e8 00 00
	00 00		 mov	 DWORD PTR _splitPoint$[ebp], 0

; 596  : 	int bakSplitPoint, cursor;
; 597  : 	BOOL SetCursor = FALSE;

  00036	c7 45 c4 00 00
	00 00		 mov	 DWORD PTR _SetCursor$[ebp], 0

; 598  : 	char splitStr[256];
; 599  : 	if (FontCnt >= FONT_BUFFER_SIZE) {

  0003d	81 3d 00 00 00
	00 00 04 00 00	 cmp	 DWORD PTR ?FontCnt@@3HA, 1024 ; FontCnt, 00000400H
  00047	7c 12		 jl	 SHORT $LN7@StockFontB

; 600  : 		strBuffer->hitFontNo = -2;

  00049	8b 45 08	 mov	 eax, DWORD PTR _strBuffer$[ebp]
  0004c	c7 80 24 01 00
	00 fe ff ff ff	 mov	 DWORD PTR [eax+292], -2	; fffffffeH

; 601  : 		return;

  00056	e9 69 04 00 00	 jmp	 $LN1@StockFontB
$LN7@StockFontB:

; 602  : 	}
; 603  : 	int Ë°åÂ≠óÊï∞;
; 604  : 	if (strBuffer->lineLen != 0) {

  0005b	8b 45 08	 mov	 eax, DWORD PTR _strBuffer$[ebp]
  0005e	0f b6 88 05 01
	00 00		 movzx	 ecx, BYTE PTR [eax+261]
  00065	85 c9		 test	 ecx, ecx
  00067	0f 84 b6 02 00
	00		 je	 $LN8@StockFontB

; 605  : 		cursor = strBuffer->cursor;

  0006d	8b 45 08	 mov	 eax, DWORD PTR _strBuffer$[ebp]
  00070	0f b6 88 09 01
	00 00		 movzx	 ecx, BYTE PTR [eax+265]
  00077	89 4d d0	 mov	 DWORD PTR _cursor$[ebp], ecx

; 606  : 		if (lineDist) Ë°åÂ≠óÊï∞ = strBuffer->lineLen;

  0007a	83 7d f4 00	 cmp	 DWORD PTR _lineDist$[ebp], 0
  0007e	74 12		 je	 SHORT $LN10@StockFontB
  00080	8b 45 08	 mov	 eax, DWORD PTR _strBuffer$[ebp]
  00083	0f b6 88 05 01
	00 00		 movzx	 ecx, BYTE PTR [eax+261]
  0008a	89 8d b0 fe ff
	ff		 mov	 DWORD PTR _––◊÷ ˝$[ebp], ecx
  00090	eb 0a		 jmp	 SHORT $LN2@StockFontB
$LN10@StockFontB:

; 607  : 		else Ë°åÂ≠óÊï∞ = 38;

  00092	c7 85 b0 fe ff
	ff 26 00 00 00	 mov	 DWORD PTR _––◊÷ ˝$[ebp], 38 ; 00000026H
$LN2@StockFontB:

; 608  : 		while (strlen(strBuffer->buffer + splitPoint) >= Ë°åÂ≠óÊï∞) {

  0009c	8b 45 08	 mov	 eax, DWORD PTR _strBuffer$[ebp]
  0009f	03 45 e8	 add	 eax, DWORD PTR _splitPoint$[ebp]
  000a2	50		 push	 eax
  000a3	e8 00 00 00 00	 call	 _strlen
  000a8	83 c4 04	 add	 esp, 4
  000ab	3b 85 b0 fe ff
	ff		 cmp	 eax, DWORD PTR _––◊÷ ˝$[ebp]
  000b1	0f 82 87 01 00
	00		 jb	 $LN3@StockFontB

; 609  : 			bakSplitPoint = splitPoint;

  000b7	8b 45 e8	 mov	 eax, DWORD PTR _splitPoint$[ebp]
  000ba	89 45 dc	 mov	 DWORD PTR _bakSplitPoint$[ebp], eax

; 610  : 			//copy‰∏ÄË°åÁöÑÂ≠ó‰∏≤
; 611  : 			strncpy_s(splitStr, strBuffer->buffer + splitPoint, Ë°åÂ≠óÊï∞);

  000bd	8b 85 b0 fe ff
	ff		 mov	 eax, DWORD PTR _––◊÷ ˝$[ebp]
  000c3	50		 push	 eax
  000c4	8b 4d 08	 mov	 ecx, DWORD PTR _strBuffer$[ebp]
  000c7	03 4d e8	 add	 ecx, DWORD PTR _splitPoint$[ebp]
  000ca	51		 push	 ecx
  000cb	8d 95 bc fe ff
	ff		 lea	 edx, DWORD PTR _splitStr$[ebp]
  000d1	52		 push	 edx
  000d2	e8 00 00 00 00	 call	 ??$strncpy_s@$0BAA@@@YAHAAY0BAA@DPBDI@Z ; strncpy_s<256>
  000d7	83 c4 0c	 add	 esp, 12			; 0000000cH

; 612  : 			*(splitStr + Ë°åÂ≠óÊï∞) = NULL;

  000da	8b 85 b0 fe ff
	ff		 mov	 eax, DWORD PTR _––◊÷ ˝$[ebp]
  000e0	c6 84 05 bc fe
	ff ff 00	 mov	 BYTE PTR _splitStr$[ebp+eax], 0

; 613  : 			if (GetStrLastByte(splitStr) == 3) {

  000e8	8d 85 bc fe ff
	ff		 lea	 eax, DWORD PTR _splitStr$[ebp]
  000ee	50		 push	 eax
  000ef	e8 00 00 00 00	 call	 ?GetStrLastByte@@YAHPAD@Z ; GetStrLastByte
  000f4	83 c4 04	 add	 esp, 4
  000f7	83 f8 03	 cmp	 eax, 3
  000fa	75 20		 jne	 SHORT $LN12@StockFontB

; 614  : 				//ÂàÜÂâ≤Âà∞‰∏≠DBCSÊó∂ÔºåÈÄÄÂõû‰∏Ä‰∏™byte
; 615  : 				splitPoint = Ë°åÂ≠óÊï∞ - 1 + splitPoint;

  000fc	8b 45 e8	 mov	 eax, DWORD PTR _splitPoint$[ebp]
  000ff	8b 8d b0 fe ff
	ff		 mov	 ecx, DWORD PTR _––◊÷ ˝$[ebp]
  00105	8d 54 01 ff	 lea	 edx, DWORD PTR [ecx+eax-1]
  00109	89 55 e8	 mov	 DWORD PTR _splitPoint$[ebp], edx

; 616  : 				*(splitStr + Ë°åÂ≠óÊï∞ - 1) = NULL;

  0010c	8b 85 b0 fe ff
	ff		 mov	 eax, DWORD PTR _––◊÷ ˝$[ebp]
  00112	c6 84 05 bb fe
	ff ff 00	 mov	 BYTE PTR _splitStr$[ebp+eax-1], 0

; 617  : 			}else

  0011a	eb 0c		 jmp	 SHORT $LN13@StockFontB
$LN12@StockFontB:

; 618  : 				splitPoint = Ë°åÂ≠óÊï∞ + splitPoint;

  0011c	8b 85 b0 fe ff
	ff		 mov	 eax, DWORD PTR _––◊÷ ˝$[ebp]
  00122	03 45 e8	 add	 eax, DWORD PTR _splitPoint$[ebp]
  00125	89 45 e8	 mov	 DWORD PTR _splitPoint$[ebp], eax
$LN13@StockFontB:

; 619  : 			if (lineDist)

  00128	83 7d f4 00	 cmp	 DWORD PTR _lineDist$[ebp], 0
  0012c	74 3a		 je	 SHORT $LN14@StockFontB

; 620  : 				StockFontBuffer(strBuffer->x - 60, strBuffer->y + lineDist, strBuffer->fontPrio, 0, splitStr, 0);

  0012e	6a 00		 push	 0
  00130	8d 85 bc fe ff
	ff		 lea	 eax, DWORD PTR _splitStr$[ebp]
  00136	50		 push	 eax
  00137	6a 00		 push	 0
  00139	8b 4d 08	 mov	 ecx, DWORD PTR _strBuffer$[ebp]
  0013c	0f b6 91 1c 01
	00 00		 movzx	 edx, BYTE PTR [ecx+284]
  00143	52		 push	 edx
  00144	8b 45 08	 mov	 eax, DWORD PTR _strBuffer$[ebp]
  00147	8b 88 10 01 00
	00		 mov	 ecx, DWORD PTR [eax+272]
  0014d	03 4d f4	 add	 ecx, DWORD PTR _lineDist$[ebp]
  00150	51		 push	 ecx
  00151	8b 55 08	 mov	 edx, DWORD PTR _strBuffer$[ebp]
  00154	8b 82 0c 01 00
	00		 mov	 eax, DWORD PTR [edx+268]
  0015a	83 e8 3c	 sub	 eax, 60			; 0000003cH
  0015d	50		 push	 eax
  0015e	e8 00 00 00 00	 call	 ?StockFontBuffer@@YAHHHDHPADH@Z ; StockFontBuffer
  00163	83 c4 18	 add	 esp, 24			; 00000018H

; 621  : 			else

  00166	eb 35		 jmp	 SHORT $LN15@StockFontB
$LN14@StockFontB:

; 622  : 				StockFontBuffer(strBuffer->x, strBuffer->y + lineDist, strBuffer->fontPrio, 0, splitStr, 0);

  00168	6a 00		 push	 0
  0016a	8d 85 bc fe ff
	ff		 lea	 eax, DWORD PTR _splitStr$[ebp]
  00170	50		 push	 eax
  00171	6a 00		 push	 0
  00173	8b 4d 08	 mov	 ecx, DWORD PTR _strBuffer$[ebp]
  00176	0f b6 91 1c 01
	00 00		 movzx	 edx, BYTE PTR [ecx+284]
  0017d	52		 push	 edx
  0017e	8b 45 08	 mov	 eax, DWORD PTR _strBuffer$[ebp]
  00181	8b 88 10 01 00
	00		 mov	 ecx, DWORD PTR [eax+272]
  00187	03 4d f4	 add	 ecx, DWORD PTR _lineDist$[ebp]
  0018a	51		 push	 ecx
  0018b	8b 55 08	 mov	 edx, DWORD PTR _strBuffer$[ebp]
  0018e	8b 82 0c 01 00
	00		 mov	 eax, DWORD PTR [edx+268]
  00194	50		 push	 eax
  00195	e8 00 00 00 00	 call	 ?StockFontBuffer@@YAHHHDHPADH@Z ; StockFontBuffer
  0019a	83 c4 18	 add	 esp, 24			; 00000018H
$LN15@StockFontB:

; 623  : 			if (cursor >= bakSplitPoint && cursor<splitPoint) {

  0019d	8b 45 d0	 mov	 eax, DWORD PTR _cursor$[ebp]
  001a0	3b 45 dc	 cmp	 eax, DWORD PTR _bakSplitPoint$[ebp]
  001a3	7c 66		 jl	 SHORT $LN16@StockFontB
  001a5	8b 45 d0	 mov	 eax, DWORD PTR _cursor$[ebp]
  001a8	3b 45 e8	 cmp	 eax, DWORD PTR _splitPoint$[ebp]
  001ab	7d 5e		 jge	 SHORT $LN16@StockFontB

; 624  : 				if (lineDist)

  001ad	83 7d f4 00	 cmp	 DWORD PTR _lineDist$[ebp], 0
  001b1	74 21		 je	 SHORT $LN17@StockFontB

; 625  : 					strBuffer->imeX = strBuffer->x - 60 + (cursor - bakSplitPoint)*(FONT_SIZE >> 1);

  001b3	8b 45 08	 mov	 eax, DWORD PTR _strBuffer$[ebp]
  001b6	8b 88 0c 01 00
	00		 mov	 ecx, DWORD PTR [eax+268]
  001bc	8b 55 d0	 mov	 edx, DWORD PTR _cursor$[ebp]
  001bf	2b 55 dc	 sub	 edx, DWORD PTR _bakSplitPoint$[ebp]
  001c2	6b c2 07	 imul	 eax, edx, 7
  001c5	8d 4c 01 c4	 lea	 ecx, DWORD PTR [ecx+eax-60]
  001c9	8b 55 08	 mov	 edx, DWORD PTR _strBuffer$[ebp]
  001cc	89 8a 14 01 00
	00		 mov	 DWORD PTR [edx+276], ecx

; 626  : 				else

  001d2	eb 1b		 jmp	 SHORT $LN18@StockFontB
$LN17@StockFontB:

; 627  : 					strBuffer->imeX = strBuffer->x + (cursor - bakSplitPoint)*(FONT_SIZE >> 1);

  001d4	8b 45 d0	 mov	 eax, DWORD PTR _cursor$[ebp]
  001d7	2b 45 dc	 sub	 eax, DWORD PTR _bakSplitPoint$[ebp]
  001da	6b c8 07	 imul	 ecx, eax, 7
  001dd	8b 55 08	 mov	 edx, DWORD PTR _strBuffer$[ebp]
  001e0	03 8a 0c 01 00
	00		 add	 ecx, DWORD PTR [edx+268]
  001e6	8b 45 08	 mov	 eax, DWORD PTR _strBuffer$[ebp]
  001e9	89 88 14 01 00
	00		 mov	 DWORD PTR [eax+276], ecx
$LN18@StockFontB:

; 628  : 				strBuffer->imeY = strBuffer->y + lineDist;

  001ef	8b 45 08	 mov	 eax, DWORD PTR _strBuffer$[ebp]
  001f2	8b 88 10 01 00
	00		 mov	 ecx, DWORD PTR [eax+272]
  001f8	03 4d f4	 add	 ecx, DWORD PTR _lineDist$[ebp]
  001fb	8b 55 08	 mov	 edx, DWORD PTR _strBuffer$[ebp]
  001fe	89 8a 18 01 00
	00		 mov	 DWORD PTR [edx+280], ecx

; 629  : 				SetCursor = TRUE;

  00204	c7 45 c4 01 00
	00 00		 mov	 DWORD PTR _SetCursor$[ebp], 1
$LN16@StockFontB:

; 630  : 			}
; 631  : 			lineDist += strBuffer->lineDist;

  0020b	8b 45 08	 mov	 eax, DWORD PTR _strBuffer$[ebp]
  0020e	0f b6 88 06 01
	00 00		 movzx	 ecx, BYTE PTR [eax+262]
  00215	03 4d f4	 add	 ecx, DWORD PTR _lineDist$[ebp]
  00218	89 4d f4	 mov	 DWORD PTR _lineDist$[ebp], ecx

; 632  : 			if (lineDist) Ë°åÂ≠óÊï∞ = strBuffer->lineLen;

  0021b	74 12		 je	 SHORT $LN19@StockFontB
  0021d	8b 45 08	 mov	 eax, DWORD PTR _strBuffer$[ebp]
  00220	0f b6 88 05 01
	00 00		 movzx	 ecx, BYTE PTR [eax+261]
  00227	89 8d b0 fe ff
	ff		 mov	 DWORD PTR _––◊÷ ˝$[ebp], ecx
  0022d	eb 0a		 jmp	 SHORT $LN20@StockFontB
$LN19@StockFontB:

; 633  : 			else Ë°åÂ≠óÊï∞ = 38;

  0022f	c7 85 b0 fe ff
	ff 26 00 00 00	 mov	 DWORD PTR _––◊÷ ˝$[ebp], 38 ; 00000026H
$LN20@StockFontB:

; 634  : 		}

  00239	e9 5e fe ff ff	 jmp	 $LN2@StockFontB
$LN3@StockFontB:

; 635  : 		if (!SetCursor) {

  0023e	83 7d c4 00	 cmp	 DWORD PTR _SetCursor$[ebp], 0
  00242	75 65		 jne	 SHORT $LN21@StockFontB

; 636  : 			if (lineDist)

  00244	83 7d f4 00	 cmp	 DWORD PTR _lineDist$[ebp], 0
  00248	74 28		 je	 SHORT $LN22@StockFontB

; 637  : 				strBuffer->imeX = strBuffer->x - 60 + (strBuffer->cursor - splitPoint)*(FONT_SIZE >> 1);

  0024a	8b 45 08	 mov	 eax, DWORD PTR _strBuffer$[ebp]
  0024d	8b 88 0c 01 00
	00		 mov	 ecx, DWORD PTR [eax+268]
  00253	8b 55 08	 mov	 edx, DWORD PTR _strBuffer$[ebp]
  00256	0f b6 82 09 01
	00 00		 movzx	 eax, BYTE PTR [edx+265]
  0025d	2b 45 e8	 sub	 eax, DWORD PTR _splitPoint$[ebp]
  00260	6b d0 07	 imul	 edx, eax, 7
  00263	8d 44 11 c4	 lea	 eax, DWORD PTR [ecx+edx-60]
  00267	8b 4d 08	 mov	 ecx, DWORD PTR _strBuffer$[ebp]
  0026a	89 81 14 01 00
	00		 mov	 DWORD PTR [ecx+276], eax

; 638  : 			else

  00270	eb 22		 jmp	 SHORT $LN23@StockFontB
$LN22@StockFontB:

; 639  : 				strBuffer->imeX = strBuffer->x + (strBuffer->cursor - splitPoint)*(FONT_SIZE >> 1);

  00272	8b 45 08	 mov	 eax, DWORD PTR _strBuffer$[ebp]
  00275	0f b6 88 09 01
	00 00		 movzx	 ecx, BYTE PTR [eax+265]
  0027c	2b 4d e8	 sub	 ecx, DWORD PTR _splitPoint$[ebp]
  0027f	6b d1 07	 imul	 edx, ecx, 7
  00282	8b 45 08	 mov	 eax, DWORD PTR _strBuffer$[ebp]
  00285	03 90 0c 01 00
	00		 add	 edx, DWORD PTR [eax+268]
  0028b	8b 4d 08	 mov	 ecx, DWORD PTR _strBuffer$[ebp]
  0028e	89 91 14 01 00
	00		 mov	 DWORD PTR [ecx+276], edx
$LN23@StockFontB:

; 640  : 			strBuffer->imeY = strBuffer->y + lineDist;

  00294	8b 45 08	 mov	 eax, DWORD PTR _strBuffer$[ebp]
  00297	8b 88 10 01 00
	00		 mov	 ecx, DWORD PTR [eax+272]
  0029d	03 4d f4	 add	 ecx, DWORD PTR _lineDist$[ebp]
  002a0	8b 55 08	 mov	 edx, DWORD PTR _strBuffer$[ebp]
  002a3	89 8a 18 01 00
	00		 mov	 DWORD PTR [edx+280], ecx
$LN21@StockFontB:

; 641  : 		}
; 642  : 		if (lineDist)

  002a9	83 7d f4 00	 cmp	 DWORD PTR _lineDist$[ebp], 0
  002ad	74 3a		 je	 SHORT $LN24@StockFontB

; 643  : 			StockFontBuffer(strBuffer->x - 60, strBuffer->y + lineDist, strBuffer->fontPrio, 0, strBuffer->buffer + splitPoint, 0);

  002af	6a 00		 push	 0
  002b1	8b 45 08	 mov	 eax, DWORD PTR _strBuffer$[ebp]
  002b4	03 45 e8	 add	 eax, DWORD PTR _splitPoint$[ebp]
  002b7	50		 push	 eax
  002b8	6a 00		 push	 0
  002ba	8b 4d 08	 mov	 ecx, DWORD PTR _strBuffer$[ebp]
  002bd	0f b6 91 1c 01
	00 00		 movzx	 edx, BYTE PTR [ecx+284]
  002c4	52		 push	 edx
  002c5	8b 45 08	 mov	 eax, DWORD PTR _strBuffer$[ebp]
  002c8	8b 88 10 01 00
	00		 mov	 ecx, DWORD PTR [eax+272]
  002ce	03 4d f4	 add	 ecx, DWORD PTR _lineDist$[ebp]
  002d1	51		 push	 ecx
  002d2	8b 55 08	 mov	 edx, DWORD PTR _strBuffer$[ebp]
  002d5	8b 82 0c 01 00
	00		 mov	 eax, DWORD PTR [edx+268]
  002db	83 e8 3c	 sub	 eax, 60			; 0000003cH
  002de	50		 push	 eax
  002df	e8 00 00 00 00	 call	 ?StockFontBuffer@@YAHHHDHPADH@Z ; StockFontBuffer
  002e4	83 c4 18	 add	 esp, 24			; 00000018H

; 644  : 		else

  002e7	eb 35		 jmp	 SHORT $LN25@StockFontB
$LN24@StockFontB:

; 645  : 			StockFontBuffer(strBuffer->x, strBuffer->y + lineDist, strBuffer->fontPrio, 0, strBuffer->buffer + splitPoint, 0);

  002e9	6a 00		 push	 0
  002eb	8b 45 08	 mov	 eax, DWORD PTR _strBuffer$[ebp]
  002ee	03 45 e8	 add	 eax, DWORD PTR _splitPoint$[ebp]
  002f1	50		 push	 eax
  002f2	6a 00		 push	 0
  002f4	8b 4d 08	 mov	 ecx, DWORD PTR _strBuffer$[ebp]
  002f7	0f b6 91 1c 01
	00 00		 movzx	 edx, BYTE PTR [ecx+284]
  002fe	52		 push	 edx
  002ff	8b 45 08	 mov	 eax, DWORD PTR _strBuffer$[ebp]
  00302	8b 88 10 01 00
	00		 mov	 ecx, DWORD PTR [eax+272]
  00308	03 4d f4	 add	 ecx, DWORD PTR _lineDist$[ebp]
  0030b	51		 push	 ecx
  0030c	8b 55 08	 mov	 edx, DWORD PTR _strBuffer$[ebp]
  0030f	8b 82 0c 01 00
	00		 mov	 eax, DWORD PTR [edx+268]
  00315	50		 push	 eax
  00316	e8 00 00 00 00	 call	 ?StockFontBuffer@@YAHHHDHPADH@Z ; StockFontBuffer
  0031b	83 c4 18	 add	 esp, 24			; 00000018H
$LN25@StockFontB:

; 646  : 	}else {

  0031e	e9 a1 01 00 00	 jmp	 $LN1@StockFontB
$LN8@StockFontB:

; 647  : 		FontBuffer[FontCnt].x = strBuffer->x;

  00323	69 05 00 00 00
	00 10 01 00 00	 imul	 eax, DWORD PTR ?FontCnt@@3HA, 272 ; FontCnt
  0032d	8b 4d 08	 mov	 ecx, DWORD PTR _strBuffer$[ebp]
  00330	66 8b 91 0c 01
	00 00		 mov	 dx, WORD PTR [ecx+268]
  00337	66 89 90 00 00
	00 00		 mov	 WORD PTR ?FontBuffer@@3PAUFONT_BUFFER@@A[eax], dx

; 648  : 		FontBuffer[FontCnt].y = strBuffer->y;

  0033e	69 05 00 00 00
	00 10 01 00 00	 imul	 eax, DWORD PTR ?FontCnt@@3HA, 272 ; FontCnt
  00348	8b 4d 08	 mov	 ecx, DWORD PTR _strBuffer$[ebp]
  0034b	66 8b 91 10 01
	00 00		 mov	 dx, WORD PTR [ecx+272]
  00352	66 89 90 02 00
	00 00		 mov	 WORD PTR ?FontBuffer@@3PAUFONT_BUFFER@@A[eax+2], dx

; 649  : 		FontBuffer[FontCnt].fontPrio = strBuffer->fontPrio;

  00359	69 05 00 00 00
	00 10 01 00 00	 imul	 eax, DWORD PTR ?FontCnt@@3HA, 272 ; FontCnt
  00363	8b 4d 08	 mov	 ecx, DWORD PTR _strBuffer$[ebp]
  00366	8a 91 1c 01 00
	00		 mov	 dl, BYTE PTR [ecx+284]
  0036c	88 90 05 01 00
	00		 mov	 BYTE PTR ?FontBuffer@@3PAUFONT_BUFFER@@A[eax+261], dl

; 650  : 		FontBuffer[FontCnt].color = strBuffer->color;

  00372	69 05 00 00 00
	00 10 01 00 00	 imul	 eax, DWORD PTR ?FontCnt@@3HA, 272 ; FontCnt
  0037c	8b 4d 08	 mov	 ecx, DWORD PTR _strBuffer$[ebp]
  0037f	8a 91 08 01 00
	00		 mov	 dl, BYTE PTR [ecx+264]
  00385	88 90 04 00 00
	00		 mov	 BYTE PTR ?FontBuffer@@3PAUFONT_BUFFER@@A[eax+4], dl

; 651  : 		FontBuffer[FontCnt].hitFlag = 0;

  0038b	69 05 00 00 00
	00 10 01 00 00	 imul	 eax, DWORD PTR ?FontCnt@@3HA, 272 ; FontCnt
  00395	c7 80 08 01 00
	00 00 00 00 00	 mov	 DWORD PTR ?FontBuffer@@3PAUFONT_BUFFER@@A[eax+264], 0

; 652  : #ifdef _FONT_SIZE
; 653  : 		FontBuffer[FontCnt].size = 0;

  0039f	69 05 00 00 00
	00 10 01 00 00	 imul	 eax, DWORD PTR ?FontCnt@@3HA, 272 ; FontCnt
  003a9	c7 80 0c 01 00
	00 00 00 00 00	 mov	 DWORD PTR ?FontBuffer@@3PAUFONT_BUFFER@@A[eax+268], 0

; 654  : #endif
; 655  : 		//ÂÆö‰πâHook_typeÁî®Êù•Â§ÑÁêÜÊòüÂè∑‰∫ßÁîü
; 656  : #ifdef _SAHOOK //Syu ADD HookÁ®ãÂºè
; 657  : 		if (strBuffer->filterFlag == HOOK_TYPE) {
; 658  : 			extern int HOOK_PASSWD_NUM;
; 659  : 			for (int i = 0; i < HOOK_PASSWD_NUM; i++)
; 660  : 				FontBuffer[FontCnt].str[i] = '*';
; 661  : 			FontBuffer[FontCnt].str[i] = NULL;
; 662  : 			strBuffer->cursor = HOOK_PASSWD_NUM;
; 663  : 		}
; 664  : 		else if (strBuffer->filterFlag == BLIND_TYPE) {
; 665  : #else
; 666  : 		if (strBuffer->filterFlag == BLIND_TYPE) {

  003b3	8b 45 08	 mov	 eax, DWORD PTR _strBuffer$[ebp]
  003b6	83 b8 20 01 00
	00 01		 cmp	 DWORD PTR [eax+288], 1
  003bd	75 61		 jne	 SHORT $LN26@StockFontB

; 667  : #endif
; 668  : 			int i;
; 669  : 			for (i = 0; i < strBuffer->cnt; i++)

  003bf	c7 85 a4 fe ff
	ff 00 00 00 00	 mov	 DWORD PTR _i$1[ebp], 0
  003c9	eb 0f		 jmp	 SHORT $LN6@StockFontB
$LN4@StockFontB:
  003cb	8b 85 a4 fe ff
	ff		 mov	 eax, DWORD PTR _i$1[ebp]
  003d1	83 c0 01	 add	 eax, 1
  003d4	89 85 a4 fe ff
	ff		 mov	 DWORD PTR _i$1[ebp], eax
$LN6@StockFontB:
  003da	8b 45 08	 mov	 eax, DWORD PTR _strBuffer$[ebp]
  003dd	0f b6 88 07 01
	00 00		 movzx	 ecx, BYTE PTR [eax+263]
  003e4	39 8d a4 fe ff
	ff		 cmp	 DWORD PTR _i$1[ebp], ecx
  003ea	7d 1a		 jge	 SHORT $LN5@StockFontB

; 670  : 				FontBuffer[FontCnt].str[i] = '*';

  003ec	69 05 00 00 00
	00 10 01 00 00	 imul	 eax, DWORD PTR ?FontCnt@@3HA, 272 ; FontCnt
  003f6	8b 8d a4 fe ff
	ff		 mov	 ecx, DWORD PTR _i$1[ebp]
  003fc	c6 84 08 05 00
	00 00 2a	 mov	 BYTE PTR ?FontBuffer@@3PAUFONT_BUFFER@@A[eax+ecx+5], 42 ; 0000002aH
  00404	eb c5		 jmp	 SHORT $LN4@StockFontB
$LN5@StockFontB:

; 671  : 			FontBuffer[FontCnt].str[i] = NULL;

  00406	69 05 00 00 00
	00 10 01 00 00	 imul	 eax, DWORD PTR ?FontCnt@@3HA, 272 ; FontCnt
  00410	8b 8d a4 fe ff
	ff		 mov	 ecx, DWORD PTR _i$1[ebp]
  00416	c6 84 08 05 00
	00 00 00	 mov	 BYTE PTR ?FontBuffer@@3PAUFONT_BUFFER@@A[eax+ecx+5], 0

; 672  : 		}
; 673  : 		else {

  0041e	eb 51		 jmp	 SHORT $LN27@StockFontB
$LN26@StockFontB:

; 674  : 			extern int ÁºñÁ†Å;
; 675  : 			if (ÁºñÁ†Å == 950) {

  00420	81 3d 00 00 00
	00 b6 03 00 00	 cmp	 DWORD PTR ?±‡¬Î@@3HA, 950 ; ±‡¬Î, 000003b6H
  0042a	75 28		 jne	 SHORT $LN28@StockFontB

; 676  : 				extern char* GB2312ToBIG5(const char* szBIG5String);
; 677  : 				strcpy(FontBuffer[FontCnt].str, GB2312ToBIG5((const char *)strBuffer->buffer));

  0042c	8b 45 08	 mov	 eax, DWORD PTR _strBuffer$[ebp]
  0042f	50		 push	 eax
  00430	e8 00 00 00 00	 call	 ?GB2312ToBIG5@@YAPADPBD@Z ; GB2312ToBIG5
  00435	83 c4 04	 add	 esp, 4
  00438	50		 push	 eax
  00439	69 0d 00 00 00
	00 10 01 00 00	 imul	 ecx, DWORD PTR ?FontCnt@@3HA, 272 ; FontCnt
  00443	81 c1 05 00 00
	00		 add	 ecx, OFFSET ?FontBuffer@@3PAUFONT_BUFFER@@A+5
  00449	51		 push	 ecx
  0044a	e8 00 00 00 00	 call	 _strcpy
  0044f	83 c4 08	 add	 esp, 8

; 678  : 			}
; 679  : 			else

  00452	eb 1d		 jmp	 SHORT $LN27@StockFontB
$LN28@StockFontB:

; 680  : 				strcpy(FontBuffer[FontCnt].str, strBuffer->buffer);

  00454	8b 45 08	 mov	 eax, DWORD PTR _strBuffer$[ebp]
  00457	50		 push	 eax
  00458	69 0d 00 00 00
	00 10 01 00 00	 imul	 ecx, DWORD PTR ?FontCnt@@3HA, 272 ; FontCnt
  00462	81 c1 05 00 00
	00		 add	 ecx, OFFSET ?FontBuffer@@3PAUFONT_BUFFER@@A+5
  00468	51		 push	 ecx
  00469	e8 00 00 00 00	 call	 _strcpy
  0046e	83 c4 08	 add	 esp, 8
$LN27@StockFontB:

; 681  : 		}
; 682  : 		strBuffer->imeX = strBuffer->x - 60 + strBuffer->cursor*(FONT_SIZE >> 1);

  00471	8b 45 08	 mov	 eax, DWORD PTR _strBuffer$[ebp]
  00474	8b 88 0c 01 00
	00		 mov	 ecx, DWORD PTR [eax+268]
  0047a	8b 55 08	 mov	 edx, DWORD PTR _strBuffer$[ebp]
  0047d	0f b6 82 09 01
	00 00		 movzx	 eax, BYTE PTR [edx+265]
  00484	6b d0 07	 imul	 edx, eax, 7
  00487	8d 44 11 c4	 lea	 eax, DWORD PTR [ecx+edx-60]
  0048b	8b 4d 08	 mov	 ecx, DWORD PTR _strBuffer$[ebp]
  0048e	89 81 14 01 00
	00		 mov	 DWORD PTR [ecx+276], eax

; 683  : 		strBuffer->imeY = strBuffer->y;

  00494	8b 45 08	 mov	 eax, DWORD PTR _strBuffer$[ebp]
  00497	8b 4d 08	 mov	 ecx, DWORD PTR _strBuffer$[ebp]
  0049a	8b 91 10 01 00
	00		 mov	 edx, DWORD PTR [ecx+272]
  004a0	89 90 18 01 00
	00		 mov	 DWORD PTR [eax+280], edx

; 684  : 		strBuffer->hitFontNo = FontCnt++;

  004a6	8b 45 08	 mov	 eax, DWORD PTR _strBuffer$[ebp]
  004a9	8b 0d 00 00 00
	00		 mov	 ecx, DWORD PTR ?FontCnt@@3HA ; FontCnt
  004af	89 88 24 01 00
	00		 mov	 DWORD PTR [eax+292], ecx
  004b5	8b 15 00 00 00
	00		 mov	 edx, DWORD PTR ?FontCnt@@3HA ; FontCnt
  004bb	83 c2 01	 add	 edx, 1
  004be	89 15 00 00 00
	00		 mov	 DWORD PTR ?FontCnt@@3HA, edx ; FontCnt
$LN1@StockFontB:

; 685  : 		}
; 686  : 	}

  004c4	52		 push	 edx
  004c5	8b cd		 mov	 ecx, ebp
  004c7	50		 push	 eax
  004c8	8d 15 00 00 00
	00		 lea	 edx, DWORD PTR $LN33@StockFontB
  004ce	e8 00 00 00 00	 call	 @_RTC_CheckStackVars@8
  004d3	58		 pop	 eax
  004d4	5a		 pop	 edx
  004d5	5f		 pop	 edi
  004d6	5e		 pop	 esi
  004d7	5b		 pop	 ebx
  004d8	8b 4d fc	 mov	 ecx, DWORD PTR __$ArrayPad$[ebp]
  004db	33 cd		 xor	 ecx, ebp
  004dd	e8 00 00 00 00	 call	 @__security_check_cookie@4
  004e2	81 c4 20 02 00
	00		 add	 esp, 544		; 00000220H
  004e8	3b ec		 cmp	 ebp, esp
  004ea	e8 00 00 00 00	 call	 __RTC_CheckEsp
  004ef	8b e5		 mov	 esp, ebp
  004f1	5d		 pop	 ebp
  004f2	c3		 ret	 0
  004f3	90		 npad	 1
$LN33@StockFontB:
  004f4	01 00 00 00	 DD	 1
  004f8	00 00 00 00	 DD	 $LN32@StockFontB
$LN32@StockFontB:
  004fc	bc fe ff ff	 DD	 -324			; fffffebcH
  00500	00 01 00 00	 DD	 256			; 00000100H
  00504	00 00 00 00	 DD	 $LN31@StockFontB
$LN31@StockFontB:
  00508	73		 DB	 115			; 00000073H
  00509	70		 DB	 112			; 00000070H
  0050a	6c		 DB	 108			; 0000006cH
  0050b	69		 DB	 105			; 00000069H
  0050c	74		 DB	 116			; 00000074H
  0050d	53		 DB	 83			; 00000053H
  0050e	74		 DB	 116			; 00000074H
  0050f	72		 DB	 114			; 00000072H
  00510	00		 DB	 0
?StockFontBufferFamily@@YAXPAUSTR_BUFFER@@@Z ENDP	; StockFontBufferFamily
_TEXT	ENDS
; Function compile flags: /Odtp /RTCsu /ZI
; File c:\program files (x86)\windows kits\10\include\10.0.10240.0\ucrt\string.h
;	COMDAT ??$strncpy_s@$0BAA@@@YAHAAY0BAA@DPBDI@Z
_TEXT	SEGMENT
__Destination$ = 8					; size = 4
__Source$ = 12						; size = 4
__Count$ = 16						; size = 4
??$strncpy_s@$0BAA@@@YAHAAY0BAA@DPBDI@Z PROC		; strncpy_s<256>, COMDAT

; 338  :     )

  00000	55		 push	 ebp
  00001	8b ec		 mov	 ebp, esp
  00003	81 ec c0 00 00
	00		 sub	 esp, 192		; 000000c0H
  00009	53		 push	 ebx
  0000a	56		 push	 esi
  0000b	57		 push	 edi
  0000c	8d bd 40 ff ff
	ff		 lea	 edi, DWORD PTR [ebp-192]
  00012	b9 30 00 00 00	 mov	 ecx, 48			; 00000030H
  00017	b8 cc cc cc cc	 mov	 eax, -858993460		; ccccccccH
  0001c	f3 ab		 rep stosd

; 333  : __DEFINE_CPP_OVERLOAD_SECURE_FUNC_0_2(

  0001e	8b f4		 mov	 esi, esp
  00020	8b 45 10	 mov	 eax, DWORD PTR __Count$[ebp]
  00023	50		 push	 eax
  00024	8b 4d 0c	 mov	 ecx, DWORD PTR __Source$[ebp]
  00027	51		 push	 ecx
  00028	68 00 01 00 00	 push	 256			; 00000100H
  0002d	8b 55 08	 mov	 edx, DWORD PTR __Destination$[ebp]
  00030	52		 push	 edx
  00031	ff 15 00 00 00
	00		 call	 DWORD PTR __imp__strncpy_s
  00037	83 c4 10	 add	 esp, 16			; 00000010H
  0003a	3b f4		 cmp	 esi, esp
  0003c	e8 00 00 00 00	 call	 __RTC_CheckEsp
  00041	5f		 pop	 edi
  00042	5e		 pop	 esi
  00043	5b		 pop	 ebx
  00044	81 c4 c0 00 00
	00		 add	 esp, 192		; 000000c0H
  0004a	3b ec		 cmp	 ebp, esp
  0004c	e8 00 00 00 00	 call	 __RTC_CheckEsp
  00051	8b e5		 mov	 esp, ebp
  00053	5d		 pop	 ebp
  00054	c3		 ret	 0
??$strncpy_s@$0BAA@@@YAHAAY0BAA@DPBDI@Z ENDP		; strncpy_s<256>
_TEXT	ENDS
; Function compile flags: /Odtp /RTCsu /ZI
; File c:\users\administrator\desktop\????? ??\????? ??\client source code\system\font.cpp
;	COMDAT ?MyNewStockFontBuffer@@YAXPAU_CHAT_BUFFER@@HEPADHH@Z
_TEXT	SEGMENT
$T1 = -1204						; size = 4
$T2 = -1192						; size = 4
$T3 = -1180						; size = 4
$T4 = -1168						; size = 4
_fontsize$5 = -772					; size = 8
_strl$6 = -756						; size = 4
_fontsize$7 = -744					; size = 8
_≥ËŒÔÀ˜“˝$8 = -728					; size = 4
_fontsize$9 = -716					; size = 8
_fontsize$10 = -700					; size = 8
_fontsize$11 = -684					; size = 8
_pTextItem$12 = -668					; size = 4
_pTextPet$13 = -656					; size = 4
_pTextPos$14 = -644					; size = 4
_pTextStr$15 = -632					; size = 4
_c$16 = -620						; size = 4
_fontsize$17 = -608					; size = 8
_i$18 = -592						; size = 4
_cnt_int$19 = -580					; size = 4
_pStr$20 = -568						; size = 4
_strl$21 = -556						; size = 4
_temp2$22 = -544					; size = 4
_temp1$ = -532						; size = 4
_outText$ = -520					; size = 512
__$ArrayPad$ = -4					; size = 4
_chatbuffer$ = 8					; size = 4
_x$ = 12						; size = 4
_color$ = 16						; size = 1
_str$ = 20						; size = 4
_size$ = 24						; size = 4
_id$ = 28						; size = 4
?MyNewStockFontBuffer@@YAXPAU_CHAT_BUFFER@@HEPADHH@Z PROC ; MyNewStockFontBuffer, COMDAT

; 248  : void MyNewStockFontBuffer(CHAT_BUFFER *chatbuffer, int x, unsigned char color, char *str, int size, int id){

  00000	55		 push	 ebp
  00001	8b ec		 mov	 ebp, esp
  00003	81 ec b8 04 00
	00		 sub	 esp, 1208		; 000004b8H
  00009	53		 push	 ebx
  0000a	56		 push	 esi
  0000b	57		 push	 edi
  0000c	8d bd 48 fb ff
	ff		 lea	 edi, DWORD PTR [ebp-1208]
  00012	b9 2e 01 00 00	 mov	 ecx, 302		; 0000012eH
  00017	b8 cc cc cc cc	 mov	 eax, -858993460		; ccccccccH
  0001c	f3 ab		 rep stosd
  0001e	a1 00 00 00 00	 mov	 eax, DWORD PTR ___security_cookie
  00023	33 c5		 xor	 eax, ebp
  00025	89 45 fc	 mov	 DWORD PTR __$ArrayPad$[ebp], eax

; 249  : 	//  1„ÄÅ‰πãÂâçÁöÑË°®ÊÉÖ #1 Âèò‰∏∫{ #1 }
; 250  : 	//	3„ÄÅ{ c = 2,pet = Í≥†Î•¥Í≥†Î•¥ | Áß∞Âè∑ | Êîª | Èò≤...,str = ÂçñÎπ®Í∞Ñ Ìò∏ÎûëÏù¥ } Ë°®Á§∫Ôºöc‰∏∫colorÔºåstr‰∏∫ÊòæÁ§∫ÊñáÂ≠óÔºåpet‰∏∫Èº†Ê†áÁßªÂä®‰∏äÂéªÔºåÊòæÁ§∫Áõ∏ÂÖ≥ÁöÑÂõæÊ°£ÂèäÈôÑÂä†‰ø°ÊÅØ
; 251  : 	//	3„ÄÅ{ c = 2,item = Â∞èÁöÑÊû™ | Áß∞Âè∑ | Êîª | Èò≤...,str = Â∞èÁöÑÊû™ } Ë°®Á§∫Ôºöc‰∏∫colorÔºåstr‰∏∫ÊòæÁ§∫ÊñáÂ≠óÔºåitem‰∏∫Èº†Ê†áÁßªÂä®‰∏äÂéªÔºåÊòæÁ§∫Áõ∏ÂÖ≥ÁöÑÂõæÊ°£ÂèäÈôÑÂä†‰ø°ÊÅØ
; 252  : 	//	4„ÄÅ{ c = 2,pos = map,x,y,str = xxÂùêÊ†á } Ë°®Á§∫Ôºöc‰∏∫colorÔºåstr‰∏∫ÊòæÁ§∫ÊñáÂ≠óÔºåpos‰∏∫Èº†Ê†áÁÇπÂáªÂèØÂØªË∑Ø
; 253  : 
; 254  : 	if (!str[0])return;

  00028	b8 01 00 00 00	 mov	 eax, 1
  0002d	6b c8 00	 imul	 ecx, eax, 0
  00030	8b 55 14	 mov	 edx, DWORD PTR _str$[ebp]
  00033	0f be 04 0a	 movsx	 eax, BYTE PTR [edx+ecx]
  00037	85 c0		 test	 eax, eax
  00039	75 05		 jne	 SHORT $LN5@MyNewStock
  0003b	e9 47 09 00 00	 jmp	 $LN28@MyNewStock
$LN5@MyNewStock:

; 255  : 	memset(chatbuffer, 0, sizeof(CHAT_BUFFER));

  00040	68 4c 01 00 00	 push	 332			; 0000014cH
  00045	6a 00		 push	 0
  00047	8b 45 08	 mov	 eax, DWORD PTR _chatbuffer$[ebp]
  0004a	50		 push	 eax
  0004b	e8 00 00 00 00	 call	 _memset
  00050	83 c4 0c	 add	 esp, 12			; 0000000cH

; 256  : 	chatbuffer->fontsize = size;

  00053	8b 45 08	 mov	 eax, DWORD PTR _chatbuffer$[ebp]
  00056	8b 4d 18	 mov	 ecx, DWORD PTR _size$[ebp]
  00059	89 88 48 01 00
	00		 mov	 DWORD PTR [eax+328], ecx

; 257  : 	chatbuffer->id = id;

  0005f	8b 45 08	 mov	 eax, DWORD PTR _chatbuffer$[ebp]
  00062	8b 4d 1c	 mov	 ecx, DWORD PTR _id$[ebp]
  00065	89 88 08 01 00
	00		 mov	 DWORD PTR [eax+264], ecx

; 258  : 	char outText[512];
; 259  : 	//Êü•Êâæ { 
; 260  : 	char *temp1 = sunday(str, "{");

  0006b	68 00 00 00 00	 push	 OFFSET ??_C@_01HCONENDN@?$HL?$AA@
  00070	8b 45 14	 mov	 eax, DWORD PTR _str$[ebp]
  00073	50		 push	 eax
  00074	e8 00 00 00 00	 call	 ?sunday@@YAPADPAD0@Z	; sunday
  00079	83 c4 08	 add	 esp, 8
  0007c	89 85 ec fd ff
	ff		 mov	 DWORD PTR _temp1$[ebp], eax

; 261  : 	if (temp1){

  00082	83 bd ec fd ff
	ff 00		 cmp	 DWORD PTR _temp1$[ebp], 0
  00089	0f 84 d0 08 00
	00		 je	 $LN6@MyNewStock

; 262  : 		if (temp1 == str){

  0008f	8b 85 ec fd ff
	ff		 mov	 eax, DWORD PTR _temp1$[ebp]
  00095	3b 45 14	 cmp	 eax, DWORD PTR _str$[ebp]
  00098	0f 85 b1 07 00
	00		 jne	 $LN8@MyNewStock

; 263  : 			char *temp2 = sunday(str, "}");

  0009e	68 00 00 00 00	 push	 OFFSET ??_C@_01CELHOKLL@?$HN?$AA@
  000a3	8b 45 14	 mov	 eax, DWORD PTR _str$[ebp]
  000a6	50		 push	 eax
  000a7	e8 00 00 00 00	 call	 ?sunday@@YAPADPAD0@Z	; sunday
  000ac	83 c4 08	 add	 esp, 8
  000af	89 85 e0 fd ff
	ff		 mov	 DWORD PTR _temp2$22[ebp], eax

; 264  : 			if (temp2){

  000b5	83 bd e0 fd ff
	ff 00		 cmp	 DWORD PTR _temp2$22[ebp], 0
  000bc	0f 84 8c 07 00
	00		 je	 $LN9@MyNewStock

; 265  : 				int strl = temp2 - str;

  000c2	8b 85 e0 fd ff
	ff		 mov	 eax, DWORD PTR _temp2$22[ebp]
  000c8	2b 45 14	 sub	 eax, DWORD PTR _str$[ebp]
  000cb	89 85 d4 fd ff
	ff		 mov	 DWORD PTR _strl$21[ebp], eax

; 266  : 				memcpy(outText, str + 1, strl );   //outText‰∏∫#‰πãÂâçÁöÑÊã∑Ë¥ù

  000d1	8b 85 d4 fd ff
	ff		 mov	 eax, DWORD PTR _strl$21[ebp]
  000d7	50		 push	 eax
  000d8	8b 4d 14	 mov	 ecx, DWORD PTR _str$[ebp]
  000db	83 c1 01	 add	 ecx, 1
  000de	51		 push	 ecx
  000df	8d 95 f8 fd ff
	ff		 lea	 edx, DWORD PTR _outText$[ebp]
  000e5	52		 push	 edx
  000e6	e8 00 00 00 00	 call	 _memcpy
  000eb	83 c4 0c	 add	 esp, 12			; 0000000cH

; 267  : 				outText[strl-1] = 0x0;

  000ee	8b 85 d4 fd ff
	ff		 mov	 eax, DWORD PTR _strl$21[ebp]
  000f4	83 e8 01	 sub	 eax, 1
  000f7	89 85 70 fb ff
	ff		 mov	 DWORD PTR $T4[ebp], eax
  000fd	81 bd 70 fb ff
	ff 00 02 00 00	 cmp	 DWORD PTR $T4[ebp], 512	; 00000200H
  00107	73 02		 jae	 SHORT $LN29@MyNewStock
  00109	eb 05		 jmp	 SHORT $LN30@MyNewStock
$LN29@MyNewStock:
  0010b	e8 00 00 00 00	 call	 ___report_rangecheckfailure
$LN30@MyNewStock:
  00110	8b 8d 70 fb ff
	ff		 mov	 ecx, DWORD PTR $T4[ebp]
  00116	c6 84 0d f8 fd
	ff ff 00	 mov	 BYTE PTR _outText$[ebp+ecx], 0

; 268  : 				char* pStr = outText;

  0011e	8d 85 f8 fd ff
	ff		 lea	 eax, DWORD PTR _outText$[ebp]
  00124	89 85 c8 fd ff
	ff		 mov	 DWORD PTR _pStr$20[ebp], eax

; 269  : 				if (*pStr == '#'){

  0012a	8b 85 c8 fd ff
	ff		 mov	 eax, DWORD PTR _pStr$20[ebp]
  00130	0f be 08	 movsx	 ecx, BYTE PTR [eax]
  00133	83 f9 23	 cmp	 ecx, 35			; 00000023H
  00136	0f 85 3e 02 00
	00		 jne	 $LN10@MyNewStock

; 270  : 					//Ê£ÄÊµãË°®ÊÉÖ
; 271  : 					int cnt_int = 0;

  0013c	c7 85 bc fd ff
	ff 00 00 00 00	 mov	 DWORD PTR _cnt_int$19[ebp], 0

; 272  : 					int i = 1;

  00146	c7 85 b0 fd ff
	ff 01 00 00 00	 mov	 DWORD PTR _i$18[ebp], 1

; 273  : 					for (i; i<4; i++) {

  00150	eb 0f		 jmp	 SHORT $LN4@MyNewStock
$LN2@MyNewStock:
  00152	8b 85 b0 fd ff
	ff		 mov	 eax, DWORD PTR _i$18[ebp]
  00158	83 c0 01	 add	 eax, 1
  0015b	89 85 b0 fd ff
	ff		 mov	 DWORD PTR _i$18[ebp], eax
$LN4@MyNewStock:
  00161	83 bd b0 fd ff
	ff 04		 cmp	 DWORD PTR _i$18[ebp], 4
  00168	7d 5a		 jge	 SHORT $LN3@MyNewStock

; 274  : 						if (pStr[i] >= '0'&& pStr[i] <= '9') {

  0016a	8b 85 c8 fd ff
	ff		 mov	 eax, DWORD PTR _pStr$20[ebp]
  00170	03 85 b0 fd ff
	ff		 add	 eax, DWORD PTR _i$18[ebp]
  00176	0f be 08	 movsx	 ecx, BYTE PTR [eax]
  00179	83 f9 30	 cmp	 ecx, 48			; 00000030H
  0017c	7c 42		 jl	 SHORT $LN12@MyNewStock
  0017e	8b 85 c8 fd ff
	ff		 mov	 eax, DWORD PTR _pStr$20[ebp]
  00184	03 85 b0 fd ff
	ff		 add	 eax, DWORD PTR _i$18[ebp]
  0018a	0f be 08	 movsx	 ecx, BYTE PTR [eax]
  0018d	83 f9 39	 cmp	 ecx, 57			; 00000039H
  00190	7f 2e		 jg	 SHORT $LN12@MyNewStock

; 275  : 							cnt_int *= 10;

  00192	6b 85 bc fd ff
	ff 0a		 imul	 eax, DWORD PTR _cnt_int$19[ebp], 10
  00199	89 85 bc fd ff
	ff		 mov	 DWORD PTR _cnt_int$19[ebp], eax

; 276  : 							cnt_int += pStr[i] - '0';

  0019f	8b 85 c8 fd ff
	ff		 mov	 eax, DWORD PTR _pStr$20[ebp]
  001a5	03 85 b0 fd ff
	ff		 add	 eax, DWORD PTR _i$18[ebp]
  001ab	0f be 08	 movsx	 ecx, BYTE PTR [eax]
  001ae	8b 95 bc fd ff
	ff		 mov	 edx, DWORD PTR _cnt_int$19[ebp]
  001b4	8d 44 0a d0	 lea	 eax, DWORD PTR [edx+ecx-48]
  001b8	89 85 bc fd ff
	ff		 mov	 DWORD PTR _cnt_int$19[ebp], eax

; 277  : 						}else{

  001be	eb 02		 jmp	 SHORT $LN13@MyNewStock
$LN12@MyNewStock:

; 278  : 							break;

  001c0	eb 02		 jmp	 SHORT $LN3@MyNewStock
$LN13@MyNewStock:

; 279  : 						}
; 280  : 					}

  001c2	eb 8e		 jmp	 SHORT $LN2@MyNewStock
$LN3@MyNewStock:

; 281  : 
; 282  : 					if (cnt_int>0 && cnt_int <= EXPRESSION_NOID_NUM + 1) {

  001c4	83 bd bc fd ff
	ff 00		 cmp	 DWORD PTR _cnt_int$19[ebp], 0
  001cb	0f 8e a3 00 00
	00		 jle	 $LN14@MyNewStock
  001d1	83 bd bc fd ff
	ff 63		 cmp	 DWORD PTR _cnt_int$19[ebp], 99 ; 00000063H
  001d8	0f 8f 96 00 00
	00		 jg	 $LN14@MyNewStock

; 283  : 						chatbuffer->x = x;

  001de	8b 45 08	 mov	 eax, DWORD PTR _chatbuffer$[ebp]
  001e1	8b 4d 0c	 mov	 ecx, DWORD PTR _x$[ebp]
  001e4	89 88 10 01 00
	00		 mov	 DWORD PTR [eax+272], ecx

; 284  : 						chatbuffer->BmpNo = EXPRESSION_NOID_START + cnt_int - 1;

  001ea	8b 85 bc fd ff
	ff		 mov	 eax, DWORD PTR _cnt_int$19[ebp]
  001f0	05 4c d7 00 00	 add	 eax, 55116		; 0000d74cH
  001f5	8b 4d 08	 mov	 ecx, DWORD PTR _chatbuffer$[ebp]
  001f8	89 81 0c 01 00
	00		 mov	 DWORD PTR [ecx+268], eax

; 285  : 						pStr += i;

  001fe	8b 85 c8 fd ff
	ff		 mov	 eax, DWORD PTR _pStr$20[ebp]
  00204	03 85 b0 fd ff
	ff		 add	 eax, DWORD PTR _i$18[ebp]
  0020a	89 85 c8 fd ff
	ff		 mov	 DWORD PTR _pStr$20[ebp], eax

; 286  : 						x += 26;   //Ë°®ÊÉÖÁöÑÂÆΩÂ∫¶

  00210	8b 45 0c	 mov	 eax, DWORD PTR _x$[ebp]
  00213	83 c0 1a	 add	 eax, 26			; 0000001aH
  00216	89 45 0c	 mov	 DWORD PTR _x$[ebp], eax

; 287  : 						chatbuffer->NextChatBuffer = (CHAT_BUFFER *)calloc(1, sizeof(CHAT_BUFFER));

  00219	8b f4		 mov	 esi, esp
  0021b	68 4c 01 00 00	 push	 332			; 0000014cH
  00220	6a 01		 push	 1
  00222	ff 15 00 00 00
	00		 call	 DWORD PTR __imp__calloc
  00228	83 c4 08	 add	 esp, 8
  0022b	3b f4		 cmp	 esi, esp
  0022d	e8 00 00 00 00	 call	 __RTC_CheckEsp
  00232	8b 4d 08	 mov	 ecx, DWORD PTR _chatbuffer$[ebp]
  00235	89 81 14 01 00
	00		 mov	 DWORD PTR [ecx+276], eax

; 288  : 						MyNewStockFontBuffer(chatbuffer->NextChatBuffer, x , color, temp1 + strl + 1, size, id);  //Â∞ÜÂêéÁª≠ÊñáÂ≠óÁªßÁª≠ÈÅçÂéÜËæìÂá∫

  0023b	8b 45 1c	 mov	 eax, DWORD PTR _id$[ebp]
  0023e	50		 push	 eax
  0023f	8b 4d 18	 mov	 ecx, DWORD PTR _size$[ebp]
  00242	51		 push	 ecx
  00243	8b 95 d4 fd ff
	ff		 mov	 edx, DWORD PTR _strl$21[ebp]
  00249	8b 85 ec fd ff
	ff		 mov	 eax, DWORD PTR _temp1$[ebp]
  0024f	8d 4c 10 01	 lea	 ecx, DWORD PTR [eax+edx+1]
  00253	51		 push	 ecx
  00254	0f b6 55 10	 movzx	 edx, BYTE PTR _color$[ebp]
  00258	52		 push	 edx
  00259	8b 45 0c	 mov	 eax, DWORD PTR _x$[ebp]
  0025c	50		 push	 eax
  0025d	8b 4d 08	 mov	 ecx, DWORD PTR _chatbuffer$[ebp]
  00260	8b 91 14 01 00
	00		 mov	 edx, DWORD PTR [ecx+276]
  00266	52		 push	 edx
  00267	e8 00 00 00 00	 call	 ?MyNewStockFontBuffer@@YAXPAU_CHAT_BUFFER@@HEPADHH@Z ; MyNewStockFontBuffer
  0026c	83 c4 18	 add	 esp, 24			; 00000018H

; 289  : 					}else{

  0026f	e9 01 01 00 00	 jmp	 $LN15@MyNewStock
$LN14@MyNewStock:

; 290  : 						//Â¶ÇÊûú‰∏çÊòØË°®ÊÉÖÔºåÂàôÊää{#xxx}ËæìÂá∫
; 291  : 						memcpy(outText, str, strl+1);   

  00274	8b 85 d4 fd ff
	ff		 mov	 eax, DWORD PTR _strl$21[ebp]
  0027a	83 c0 01	 add	 eax, 1
  0027d	50		 push	 eax
  0027e	8b 4d 14	 mov	 ecx, DWORD PTR _str$[ebp]
  00281	51		 push	 ecx
  00282	8d 95 f8 fd ff
	ff		 lea	 edx, DWORD PTR _outText$[ebp]
  00288	52		 push	 edx
  00289	e8 00 00 00 00	 call	 _memcpy
  0028e	83 c4 0c	 add	 esp, 12			; 0000000cH

; 292  : 						outText[strl+1] = 0x0;

  00291	8b 85 d4 fd ff
	ff		 mov	 eax, DWORD PTR _strl$21[ebp]
  00297	83 c0 01	 add	 eax, 1
  0029a	89 85 64 fb ff
	ff		 mov	 DWORD PTR $T3[ebp], eax
  002a0	81 bd 64 fb ff
	ff 00 02 00 00	 cmp	 DWORD PTR $T3[ebp], 512	; 00000200H
  002aa	73 02		 jae	 SHORT $LN31@MyNewStock
  002ac	eb 05		 jmp	 SHORT $LN32@MyNewStock
$LN31@MyNewStock:
  002ae	e8 00 00 00 00	 call	 ___report_rangecheckfailure
$LN32@MyNewStock:
  002b3	8b 8d 64 fb ff
	ff		 mov	 ecx, DWORD PTR $T3[ebp]
  002b9	c6 84 0d f8 fd
	ff ff 00	 mov	 BYTE PTR _outText$[ebp+ecx], 0

; 293  : 						SIZE fontsize;
; 294  : 						GetTextExtentPoint32(FontSizeHdc, (LPCSTR)outText, strl+1, (LPSIZE)&fontsize);

  002c1	8b f4		 mov	 esi, esp
  002c3	8d 85 a0 fd ff
	ff		 lea	 eax, DWORD PTR _fontsize$17[ebp]
  002c9	50		 push	 eax
  002ca	8b 8d d4 fd ff
	ff		 mov	 ecx, DWORD PTR _strl$21[ebp]
  002d0	83 c1 01	 add	 ecx, 1
  002d3	51		 push	 ecx
  002d4	8d 95 f8 fd ff
	ff		 lea	 edx, DWORD PTR _outText$[ebp]
  002da	52		 push	 edx
  002db	a1 00 00 00 00	 mov	 eax, DWORD PTR ?FontSizeHdc@@3PAUHDC__@@A ; FontSizeHdc
  002e0	50		 push	 eax
  002e1	ff 15 00 00 00
	00		 call	 DWORD PTR __imp__GetTextExtentPoint32A@16
  002e7	3b f4		 cmp	 esi, esp
  002e9	e8 00 00 00 00	 call	 __RTC_CheckEsp

; 295  : 						chatbuffer->color = color;

  002ee	8b 45 08	 mov	 eax, DWORD PTR _chatbuffer$[ebp]
  002f1	8a 4d 10	 mov	 cl, BYTE PTR _color$[ebp]
  002f4	88 88 05 01 00
	00		 mov	 BYTE PTR [eax+261], cl

; 296  : 						chatbuffer->x = x;

  002fa	8b 45 08	 mov	 eax, DWORD PTR _chatbuffer$[ebp]
  002fd	8b 4d 0c	 mov	 ecx, DWORD PTR _x$[ebp]
  00300	89 88 10 01 00
	00		 mov	 DWORD PTR [eax+272], ecx

; 297  : 						strcpy(chatbuffer->buffer, outText);

  00306	8d 85 f8 fd ff
	ff		 lea	 eax, DWORD PTR _outText$[ebp]
  0030c	50		 push	 eax
  0030d	8b 4d 08	 mov	 ecx, DWORD PTR _chatbuffer$[ebp]
  00310	51		 push	 ecx
  00311	e8 00 00 00 00	 call	 _strcpy
  00316	83 c4 08	 add	 esp, 8

; 298  : 						chatbuffer->NextChatBuffer = (CHAT_BUFFER *)calloc(1, sizeof(CHAT_BUFFER));

  00319	8b f4		 mov	 esi, esp
  0031b	68 4c 01 00 00	 push	 332			; 0000014cH
  00320	6a 01		 push	 1
  00322	ff 15 00 00 00
	00		 call	 DWORD PTR __imp__calloc
  00328	83 c4 08	 add	 esp, 8
  0032b	3b f4		 cmp	 esi, esp
  0032d	e8 00 00 00 00	 call	 __RTC_CheckEsp
  00332	8b 4d 08	 mov	 ecx, DWORD PTR _chatbuffer$[ebp]
  00335	89 81 14 01 00
	00		 mov	 DWORD PTR [ecx+276], eax

; 299  : 						MyNewStockFontBuffer(chatbuffer->NextChatBuffer, x + fontsize.cx, color, temp1+ strl+1, size, id);  //Â∞ÜÂêéÁª≠ÊñáÂ≠óÁªßÁª≠ÈÅçÂéÜËæìÂá∫

  0033b	8b 45 1c	 mov	 eax, DWORD PTR _id$[ebp]
  0033e	50		 push	 eax
  0033f	8b 4d 18	 mov	 ecx, DWORD PTR _size$[ebp]
  00342	51		 push	 ecx
  00343	8b 95 d4 fd ff
	ff		 mov	 edx, DWORD PTR _strl$21[ebp]
  00349	8b 85 ec fd ff
	ff		 mov	 eax, DWORD PTR _temp1$[ebp]
  0034f	8d 4c 10 01	 lea	 ecx, DWORD PTR [eax+edx+1]
  00353	51		 push	 ecx
  00354	0f b6 55 10	 movzx	 edx, BYTE PTR _color$[ebp]
  00358	52		 push	 edx
  00359	8b 45 0c	 mov	 eax, DWORD PTR _x$[ebp]
  0035c	03 85 a0 fd ff
	ff		 add	 eax, DWORD PTR _fontsize$17[ebp]
  00362	50		 push	 eax
  00363	8b 4d 08	 mov	 ecx, DWORD PTR _chatbuffer$[ebp]
  00366	8b 91 14 01 00
	00		 mov	 edx, DWORD PTR [ecx+276]
  0036c	52		 push	 edx
  0036d	e8 00 00 00 00	 call	 ?MyNewStockFontBuffer@@YAXPAU_CHAT_BUFFER@@HEPADHH@Z ; MyNewStockFontBuffer
  00372	83 c4 18	 add	 esp, 24			; 00000018H
$LN15@MyNewStock:

; 300  : 					}
; 301  : 				}else{

  00375	e9 d4 04 00 00	 jmp	 $LN9@MyNewStock
$LN10@MyNewStock:

; 302  : 					//Â¶ÇÊûú‰∏çÊòØË°®ÊÉÖÁöÑ#
; 303  : 					int c = getStrColor(outText);

  0037a	8d 85 f8 fd ff
	ff		 lea	 eax, DWORD PTR _outText$[ebp]
  00380	50		 push	 eax
  00381	e8 00 00 00 00	 call	 ?getStrColor@@YAHPAD@Z	; getStrColor
  00386	83 c4 04	 add	 esp, 4
  00389	89 85 94 fd ff
	ff		 mov	 DWORD PTR _c$16[ebp], eax

; 304  : 					if (c == -1)c = color;

  0038f	83 bd 94 fd ff
	ff ff		 cmp	 DWORD PTR _c$16[ebp], -1
  00396	75 0a		 jne	 SHORT $LN16@MyNewStock
  00398	0f b6 45 10	 movzx	 eax, BYTE PTR _color$[ebp]
  0039c	89 85 94 fd ff
	ff		 mov	 DWORD PTR _c$16[ebp], eax
$LN16@MyNewStock:

; 305  : 					char* pTextStr = sunday(str, "str=");

  003a2	68 00 00 00 00	 push	 OFFSET ??_C@_04FOGPFBLG@str?$DN?$AA@
  003a7	8b 45 14	 mov	 eax, DWORD PTR _str$[ebp]
  003aa	50		 push	 eax
  003ab	e8 00 00 00 00	 call	 ?sunday@@YAPADPAD0@Z	; sunday
  003b0	83 c4 08	 add	 esp, 8
  003b3	89 85 88 fd ff
	ff		 mov	 DWORD PTR _pTextStr$15[ebp], eax

; 306  : 					char* pTextPos = sunday(str, "pos=");

  003b9	68 00 00 00 00	 push	 OFFSET ??_C@_04JPBFJBMP@pos?$DN?$AA@
  003be	8b 45 14	 mov	 eax, DWORD PTR _str$[ebp]
  003c1	50		 push	 eax
  003c2	e8 00 00 00 00	 call	 ?sunday@@YAPADPAD0@Z	; sunday
  003c7	83 c4 08	 add	 esp, 8
  003ca	89 85 7c fd ff
	ff		 mov	 DWORD PTR _pTextPos$14[ebp], eax

; 307  : #ifdef _NB_ÁßÄÂÆ†Áâ©
; 308  : 					char* pTextPet = sunday(str, "pet=");

  003d0	68 00 00 00 00	 push	 OFFSET ??_C@_04PFOHGHCO@pet?$DN?$AA@
  003d5	8b 45 14	 mov	 eax, DWORD PTR _str$[ebp]
  003d8	50		 push	 eax
  003d9	e8 00 00 00 00	 call	 ?sunday@@YAPADPAD0@Z	; sunday
  003de	83 c4 08	 add	 esp, 8
  003e1	89 85 70 fd ff
	ff		 mov	 DWORD PTR _pTextPet$13[ebp], eax

; 309  : #endif
; 310  : 					char* pTextItem = sunday(str, "item=");

  003e7	68 00 00 00 00	 push	 OFFSET ??_C@_05ELILFBDN@item?$DN?$AA@
  003ec	8b 45 14	 mov	 eax, DWORD PTR _str$[ebp]
  003ef	50		 push	 eax
  003f0	e8 00 00 00 00	 call	 ?sunday@@YAPADPAD0@Z	; sunday
  003f5	83 c4 08	 add	 esp, 8
  003f8	89 85 64 fd ff
	ff		 mov	 DWORD PTR _pTextItem$12[ebp], eax

; 311  : 
; 312  : 					if (!pTextPos && !pTextPet && !pTextItem && pTextStr){

  003fe	83 bd 7c fd ff
	ff 00		 cmp	 DWORD PTR _pTextPos$14[ebp], 0
  00405	0f 85 03 01 00
	00		 jne	 $LN17@MyNewStock
  0040b	83 bd 70 fd ff
	ff 00		 cmp	 DWORD PTR _pTextPet$13[ebp], 0
  00412	0f 85 f6 00 00
	00		 jne	 $LN17@MyNewStock
  00418	83 bd 64 fd ff
	ff 00		 cmp	 DWORD PTR _pTextItem$12[ebp], 0
  0041f	0f 85 e9 00 00
	00		 jne	 $LN17@MyNewStock
  00425	83 bd 88 fd ff
	ff 00		 cmp	 DWORD PTR _pTextStr$15[ebp], 0
  0042c	0f 84 dc 00 00
	00		 je	 $LN17@MyNewStock

; 313  : 						//Â¶ÇÊûúÂè™ÊúâstrÔºåÂàôÂèòËâ≤ËæìÂá∫
; 314  : 						getStrStr(str, outText);

  00432	8d 85 f8 fd ff
	ff		 lea	 eax, DWORD PTR _outText$[ebp]
  00438	50		 push	 eax
  00439	8b 4d 14	 mov	 ecx, DWORD PTR _str$[ebp]
  0043c	51		 push	 ecx
  0043d	e8 00 00 00 00	 call	 ?getStrStr@@YAXPAD0@Z	; getStrStr
  00442	83 c4 08	 add	 esp, 8

; 315  : 						SIZE fontsize;
; 316  : 						GetTextExtentPoint32(FontSizeHdc, (LPCSTR)outText, lstrlen(outText), (LPSIZE)&fontsize);

  00445	8b f4		 mov	 esi, esp
  00447	8d 85 54 fd ff
	ff		 lea	 eax, DWORD PTR _fontsize$11[ebp]
  0044d	50		 push	 eax
  0044e	8b fc		 mov	 edi, esp
  00450	8d 8d f8 fd ff
	ff		 lea	 ecx, DWORD PTR _outText$[ebp]
  00456	51		 push	 ecx
  00457	ff 15 00 00 00
	00		 call	 DWORD PTR __imp__lstrlenA@4
  0045d	3b fc		 cmp	 edi, esp
  0045f	e8 00 00 00 00	 call	 __RTC_CheckEsp
  00464	50		 push	 eax
  00465	8d 95 f8 fd ff
	ff		 lea	 edx, DWORD PTR _outText$[ebp]
  0046b	52		 push	 edx
  0046c	a1 00 00 00 00	 mov	 eax, DWORD PTR ?FontSizeHdc@@3PAUHDC__@@A ; FontSizeHdc
  00471	50		 push	 eax
  00472	ff 15 00 00 00
	00		 call	 DWORD PTR __imp__GetTextExtentPoint32A@16
  00478	3b f4		 cmp	 esi, esp
  0047a	e8 00 00 00 00	 call	 __RTC_CheckEsp

; 317  : 						chatbuffer->color = c;

  0047f	8b 45 08	 mov	 eax, DWORD PTR _chatbuffer$[ebp]
  00482	8a 8d 94 fd ff
	ff		 mov	 cl, BYTE PTR _c$16[ebp]
  00488	88 88 05 01 00
	00		 mov	 BYTE PTR [eax+261], cl

; 318  : 						chatbuffer->x = x;

  0048e	8b 45 08	 mov	 eax, DWORD PTR _chatbuffer$[ebp]
  00491	8b 4d 0c	 mov	 ecx, DWORD PTR _x$[ebp]
  00494	89 88 10 01 00
	00		 mov	 DWORD PTR [eax+272], ecx

; 319  : 						strcpy(chatbuffer->buffer, outText);

  0049a	8d 85 f8 fd ff
	ff		 lea	 eax, DWORD PTR _outText$[ebp]
  004a0	50		 push	 eax
  004a1	8b 4d 08	 mov	 ecx, DWORD PTR _chatbuffer$[ebp]
  004a4	51		 push	 ecx
  004a5	e8 00 00 00 00	 call	 _strcpy
  004aa	83 c4 08	 add	 esp, 8

; 320  : 						chatbuffer->NextChatBuffer = (CHAT_BUFFER *)calloc(1, sizeof(CHAT_BUFFER));

  004ad	8b f4		 mov	 esi, esp
  004af	68 4c 01 00 00	 push	 332			; 0000014cH
  004b4	6a 01		 push	 1
  004b6	ff 15 00 00 00
	00		 call	 DWORD PTR __imp__calloc
  004bc	83 c4 08	 add	 esp, 8
  004bf	3b f4		 cmp	 esi, esp
  004c1	e8 00 00 00 00	 call	 __RTC_CheckEsp
  004c6	8b 4d 08	 mov	 ecx, DWORD PTR _chatbuffer$[ebp]
  004c9	89 81 14 01 00
	00		 mov	 DWORD PTR [ecx+276], eax

; 321  : 						MyNewStockFontBuffer(chatbuffer->NextChatBuffer, x + fontsize.cx, color, temp1 + strl + 1, size, id);  //Â∞ÜÂêéÁª≠ÊñáÂ≠óÁªßÁª≠ÈÅçÂéÜËæìÂá∫

  004cf	8b 45 1c	 mov	 eax, DWORD PTR _id$[ebp]
  004d2	50		 push	 eax
  004d3	8b 4d 18	 mov	 ecx, DWORD PTR _size$[ebp]
  004d6	51		 push	 ecx
  004d7	8b 95 d4 fd ff
	ff		 mov	 edx, DWORD PTR _strl$21[ebp]
  004dd	8b 85 ec fd ff
	ff		 mov	 eax, DWORD PTR _temp1$[ebp]
  004e3	8d 4c 10 01	 lea	 ecx, DWORD PTR [eax+edx+1]
  004e7	51		 push	 ecx
  004e8	0f b6 55 10	 movzx	 edx, BYTE PTR _color$[ebp]
  004ec	52		 push	 edx
  004ed	8b 45 0c	 mov	 eax, DWORD PTR _x$[ebp]
  004f0	03 85 54 fd ff
	ff		 add	 eax, DWORD PTR _fontsize$11[ebp]
  004f6	50		 push	 eax
  004f7	8b 4d 08	 mov	 ecx, DWORD PTR _chatbuffer$[ebp]
  004fa	8b 91 14 01 00
	00		 mov	 edx, DWORD PTR [ecx+276]
  00500	52		 push	 edx
  00501	e8 00 00 00 00	 call	 ?MyNewStockFontBuffer@@YAXPAU_CHAT_BUFFER@@HEPADHH@Z ; MyNewStockFontBuffer
  00506	83 c4 18	 add	 esp, 24			; 00000018H

; 322  : 						return;

  00509	e9 79 04 00 00	 jmp	 $LN28@MyNewStock
$LN17@MyNewStock:

; 323  : 					}
; 324  : 
; 325  : 					if (!pTextPos && !pTextPet && !pTextItem || pTextStr == NULL){

  0050e	83 bd 7c fd ff
	ff 00		 cmp	 DWORD PTR _pTextPos$14[ebp], 0
  00515	75 12		 jne	 SHORT $LN20@MyNewStock
  00517	83 bd 70 fd ff
	ff 00		 cmp	 DWORD PTR _pTextPet$13[ebp], 0
  0051e	75 09		 jne	 SHORT $LN20@MyNewStock
  00520	83 bd 64 fd ff
	ff 00		 cmp	 DWORD PTR _pTextItem$12[ebp], 0
  00527	74 0d		 je	 SHORT $LN19@MyNewStock
$LN20@MyNewStock:
  00529	83 bd 88 fd ff
	ff 00		 cmp	 DWORD PTR _pTextStr$15[ebp], 0
  00530	0f 85 09 01 00
	00		 jne	 $LN18@MyNewStock
$LN19@MyNewStock:

; 326  : 						//Â¶ÇÊûúÊâæ‰∏çÂà∞ÂØπÂ∫îÊñáÊú¨ÔºåÂàôËßÜ‰∏∫ÊôÆÈÄöÁöÑÊñáÊú¨ÔºåÁÖßÂ∏∏ËæìÂá∫
; 327  : 						memcpy(outText, str, strl + 1);   

  00536	8b 85 d4 fd ff
	ff		 mov	 eax, DWORD PTR _strl$21[ebp]
  0053c	83 c0 01	 add	 eax, 1
  0053f	50		 push	 eax
  00540	8b 4d 14	 mov	 ecx, DWORD PTR _str$[ebp]
  00543	51		 push	 ecx
  00544	8d 95 f8 fd ff
	ff		 lea	 edx, DWORD PTR _outText$[ebp]
  0054a	52		 push	 edx
  0054b	e8 00 00 00 00	 call	 _memcpy
  00550	83 c4 0c	 add	 esp, 12			; 0000000cH

; 328  : 						outText[strl + 1] = 0x0;

  00553	8b 85 d4 fd ff
	ff		 mov	 eax, DWORD PTR _strl$21[ebp]
  00559	83 c0 01	 add	 eax, 1
  0055c	89 85 58 fb ff
	ff		 mov	 DWORD PTR $T2[ebp], eax
  00562	81 bd 58 fb ff
	ff 00 02 00 00	 cmp	 DWORD PTR $T2[ebp], 512	; 00000200H
  0056c	73 02		 jae	 SHORT $LN33@MyNewStock
  0056e	eb 05		 jmp	 SHORT $LN34@MyNewStock
$LN33@MyNewStock:
  00570	e8 00 00 00 00	 call	 ___report_rangecheckfailure
$LN34@MyNewStock:
  00575	8b 8d 58 fb ff
	ff		 mov	 ecx, DWORD PTR $T2[ebp]
  0057b	c6 84 0d f8 fd
	ff ff 00	 mov	 BYTE PTR _outText$[ebp+ecx], 0

; 329  : 						SIZE fontsize;
; 330  : 						GetTextExtentPoint32(FontSizeHdc, (LPCSTR)outText, strl + 1, (LPSIZE)&fontsize);

  00583	8b f4		 mov	 esi, esp
  00585	8d 85 44 fd ff
	ff		 lea	 eax, DWORD PTR _fontsize$10[ebp]
  0058b	50		 push	 eax
  0058c	8b 8d d4 fd ff
	ff		 mov	 ecx, DWORD PTR _strl$21[ebp]
  00592	83 c1 01	 add	 ecx, 1
  00595	51		 push	 ecx
  00596	8d 95 f8 fd ff
	ff		 lea	 edx, DWORD PTR _outText$[ebp]
  0059c	52		 push	 edx
  0059d	a1 00 00 00 00	 mov	 eax, DWORD PTR ?FontSizeHdc@@3PAUHDC__@@A ; FontSizeHdc
  005a2	50		 push	 eax
  005a3	ff 15 00 00 00
	00		 call	 DWORD PTR __imp__GetTextExtentPoint32A@16
  005a9	3b f4		 cmp	 esi, esp
  005ab	e8 00 00 00 00	 call	 __RTC_CheckEsp

; 331  : 						chatbuffer->color = c;

  005b0	8b 45 08	 mov	 eax, DWORD PTR _chatbuffer$[ebp]
  005b3	8a 8d 94 fd ff
	ff		 mov	 cl, BYTE PTR _c$16[ebp]
  005b9	88 88 05 01 00
	00		 mov	 BYTE PTR [eax+261], cl

; 332  : 						chatbuffer->x = x;

  005bf	8b 45 08	 mov	 eax, DWORD PTR _chatbuffer$[ebp]
  005c2	8b 4d 0c	 mov	 ecx, DWORD PTR _x$[ebp]
  005c5	89 88 10 01 00
	00		 mov	 DWORD PTR [eax+272], ecx

; 333  : 						strcpy(chatbuffer->buffer, outText);

  005cb	8d 85 f8 fd ff
	ff		 lea	 eax, DWORD PTR _outText$[ebp]
  005d1	50		 push	 eax
  005d2	8b 4d 08	 mov	 ecx, DWORD PTR _chatbuffer$[ebp]
  005d5	51		 push	 ecx
  005d6	e8 00 00 00 00	 call	 _strcpy
  005db	83 c4 08	 add	 esp, 8

; 334  : 						chatbuffer->NextChatBuffer = (CHAT_BUFFER *)calloc(1, sizeof(CHAT_BUFFER));

  005de	8b f4		 mov	 esi, esp
  005e0	68 4c 01 00 00	 push	 332			; 0000014cH
  005e5	6a 01		 push	 1
  005e7	ff 15 00 00 00
	00		 call	 DWORD PTR __imp__calloc
  005ed	83 c4 08	 add	 esp, 8
  005f0	3b f4		 cmp	 esi, esp
  005f2	e8 00 00 00 00	 call	 __RTC_CheckEsp
  005f7	8b 4d 08	 mov	 ecx, DWORD PTR _chatbuffer$[ebp]
  005fa	89 81 14 01 00
	00		 mov	 DWORD PTR [ecx+276], eax

; 335  : 						MyNewStockFontBuffer(chatbuffer->NextChatBuffer, x + fontsize.cx, color, temp1 + strl + 1, size, id);  //Â∞ÜÂêéÁª≠ÊñáÂ≠óÁªßÁª≠ÈÅçÂéÜËæìÂá∫

  00600	8b 45 1c	 mov	 eax, DWORD PTR _id$[ebp]
  00603	50		 push	 eax
  00604	8b 4d 18	 mov	 ecx, DWORD PTR _size$[ebp]
  00607	51		 push	 ecx
  00608	8b 95 d4 fd ff
	ff		 mov	 edx, DWORD PTR _strl$21[ebp]
  0060e	8b 85 ec fd ff
	ff		 mov	 eax, DWORD PTR _temp1$[ebp]
  00614	8d 4c 10 01	 lea	 ecx, DWORD PTR [eax+edx+1]
  00618	51		 push	 ecx
  00619	0f b6 55 10	 movzx	 edx, BYTE PTR _color$[ebp]
  0061d	52		 push	 edx
  0061e	8b 45 0c	 mov	 eax, DWORD PTR _x$[ebp]
  00621	03 85 44 fd ff
	ff		 add	 eax, DWORD PTR _fontsize$10[ebp]
  00627	50		 push	 eax
  00628	8b 4d 08	 mov	 ecx, DWORD PTR _chatbuffer$[ebp]
  0062b	8b 91 14 01 00
	00		 mov	 edx, DWORD PTR [ecx+276]
  00631	52		 push	 edx
  00632	e8 00 00 00 00	 call	 ?MyNewStockFontBuffer@@YAXPAU_CHAT_BUFFER@@HEPADHH@Z ; MyNewStockFontBuffer
  00637	83 c4 18	 add	 esp, 24			; 00000018H

; 336  : 						return;

  0063a	e9 48 03 00 00	 jmp	 $LN28@MyNewStock
$LN18@MyNewStock:

; 337  : 					}
; 338  : 
; 339  : 					if (pTextPos){

  0063f	83 bd 7c fd ff
	ff 00		 cmp	 DWORD PTR _pTextPos$14[ebp], 0
  00646	0f 84 fc 00 00
	00		 je	 $LN21@MyNewStock

; 340  : 						//Ëé∑ÂèñÂùêÊ†á
; 341  : 						if (getStrPos(str, chatbuffer)){

  0064c	8b 45 08	 mov	 eax, DWORD PTR _chatbuffer$[ebp]
  0064f	50		 push	 eax
  00650	8b 4d 14	 mov	 ecx, DWORD PTR _str$[ebp]
  00653	51		 push	 ecx
  00654	e8 00 00 00 00	 call	 ?getStrPos@@YA_NPADPAU_CHAT_BUFFER@@@Z ; getStrPos
  00659	83 c4 08	 add	 esp, 8
  0065c	0f b6 d0	 movzx	 edx, al
  0065f	85 d2		 test	 edx, edx
  00661	0f 84 dc 00 00
	00		 je	 $LN23@MyNewStock

; 342  : 							getStrStr(str, outText);

  00667	8d 85 f8 fd ff
	ff		 lea	 eax, DWORD PTR _outText$[ebp]
  0066d	50		 push	 eax
  0066e	8b 4d 14	 mov	 ecx, DWORD PTR _str$[ebp]
  00671	51		 push	 ecx
  00672	e8 00 00 00 00	 call	 ?getStrStr@@YAXPAD0@Z	; getStrStr
  00677	83 c4 08	 add	 esp, 8

; 343  : 							SIZE fontsize;
; 344  : 							GetTextExtentPoint32(FontSizeHdc, (LPCSTR)outText, lstrlen(outText), (LPSIZE)&fontsize);

  0067a	8b f4		 mov	 esi, esp
  0067c	8d 85 34 fd ff
	ff		 lea	 eax, DWORD PTR _fontsize$9[ebp]
  00682	50		 push	 eax
  00683	8b fc		 mov	 edi, esp
  00685	8d 8d f8 fd ff
	ff		 lea	 ecx, DWORD PTR _outText$[ebp]
  0068b	51		 push	 ecx
  0068c	ff 15 00 00 00
	00		 call	 DWORD PTR __imp__lstrlenA@4
  00692	3b fc		 cmp	 edi, esp
  00694	e8 00 00 00 00	 call	 __RTC_CheckEsp
  00699	50		 push	 eax
  0069a	8d 95 f8 fd ff
	ff		 lea	 edx, DWORD PTR _outText$[ebp]
  006a0	52		 push	 edx
  006a1	a1 00 00 00 00	 mov	 eax, DWORD PTR ?FontSizeHdc@@3PAUHDC__@@A ; FontSizeHdc
  006a6	50		 push	 eax
  006a7	ff 15 00 00 00
	00		 call	 DWORD PTR __imp__GetTextExtentPoint32A@16
  006ad	3b f4		 cmp	 esi, esp
  006af	e8 00 00 00 00	 call	 __RTC_CheckEsp

; 345  : 							chatbuffer->color = c;

  006b4	8b 45 08	 mov	 eax, DWORD PTR _chatbuffer$[ebp]
  006b7	8a 8d 94 fd ff
	ff		 mov	 cl, BYTE PTR _c$16[ebp]
  006bd	88 88 05 01 00
	00		 mov	 BYTE PTR [eax+261], cl

; 346  : 							chatbuffer->x = x;

  006c3	8b 45 08	 mov	 eax, DWORD PTR _chatbuffer$[ebp]
  006c6	8b 4d 0c	 mov	 ecx, DWORD PTR _x$[ebp]
  006c9	89 88 10 01 00
	00		 mov	 DWORD PTR [eax+272], ecx

; 347  : 							strcpy(chatbuffer->buffer, outText);

  006cf	8d 85 f8 fd ff
	ff		 lea	 eax, DWORD PTR _outText$[ebp]
  006d5	50		 push	 eax
  006d6	8b 4d 08	 mov	 ecx, DWORD PTR _chatbuffer$[ebp]
  006d9	51		 push	 ecx
  006da	e8 00 00 00 00	 call	 _strcpy
  006df	83 c4 08	 add	 esp, 8

; 348  : 							chatbuffer->NextChatBuffer = (CHAT_BUFFER *)calloc(1, sizeof(CHAT_BUFFER));

  006e2	8b f4		 mov	 esi, esp
  006e4	68 4c 01 00 00	 push	 332			; 0000014cH
  006e9	6a 01		 push	 1
  006eb	ff 15 00 00 00
	00		 call	 DWORD PTR __imp__calloc
  006f1	83 c4 08	 add	 esp, 8
  006f4	3b f4		 cmp	 esi, esp
  006f6	e8 00 00 00 00	 call	 __RTC_CheckEsp
  006fb	8b 4d 08	 mov	 ecx, DWORD PTR _chatbuffer$[ebp]
  006fe	89 81 14 01 00
	00		 mov	 DWORD PTR [ecx+276], eax

; 349  : 							MyNewStockFontBuffer(chatbuffer->NextChatBuffer, x + fontsize.cx, color, temp1 + strl + 1, size, id);  //Â∞ÜÂêéÁª≠ÊñáÂ≠óÁªßÁª≠ÈÅçÂéÜËæìÂá∫

  00704	8b 45 1c	 mov	 eax, DWORD PTR _id$[ebp]
  00707	50		 push	 eax
  00708	8b 4d 18	 mov	 ecx, DWORD PTR _size$[ebp]
  0070b	51		 push	 ecx
  0070c	8b 95 d4 fd ff
	ff		 mov	 edx, DWORD PTR _strl$21[ebp]
  00712	8b 85 ec fd ff
	ff		 mov	 eax, DWORD PTR _temp1$[ebp]
  00718	8d 4c 10 01	 lea	 ecx, DWORD PTR [eax+edx+1]
  0071c	51		 push	 ecx
  0071d	0f b6 55 10	 movzx	 edx, BYTE PTR _color$[ebp]
  00721	52		 push	 edx
  00722	8b 45 0c	 mov	 eax, DWORD PTR _x$[ebp]
  00725	03 85 34 fd ff
	ff		 add	 eax, DWORD PTR _fontsize$9[ebp]
  0072b	50		 push	 eax
  0072c	8b 4d 08	 mov	 ecx, DWORD PTR _chatbuffer$[ebp]
  0072f	8b 91 14 01 00
	00		 mov	 edx, DWORD PTR [ecx+276]
  00735	52		 push	 edx
  00736	e8 00 00 00 00	 call	 ?MyNewStockFontBuffer@@YAXPAU_CHAT_BUFFER@@HEPADHH@Z ; MyNewStockFontBuffer
  0073b	83 c4 18	 add	 esp, 24			; 00000018H

; 350  : 							return;

  0073e	e9 44 02 00 00	 jmp	 $LN28@MyNewStock
$LN23@MyNewStock:

; 351  : 						}

  00743	e9 05 01 00 00	 jmp	 $LN22@MyNewStock
$LN21@MyNewStock:

; 352  : #ifdef _NB_ÁßÄÂÆ†Áâ©
; 353  : 					}else if (pTextPet){//Ëé∑ÂèñÂÆ†Áâ©

  00748	83 bd 70 fd ff
	ff 00		 cmp	 DWORD PTR _pTextPet$13[ebp], 0
  0074f	0f 84 f8 00 00
	00		 je	 $LN22@MyNewStock

; 354  : 						int ÂÆ†Áâ©Á¥¢Âºï = getStrPetindex(str);

  00755	8b 45 14	 mov	 eax, DWORD PTR _str$[ebp]
  00758	50		 push	 eax
  00759	e8 00 00 00 00	 call	 ?getStrPetindex@@YAHPAD@Z ; getStrPetindex
  0075e	83 c4 04	 add	 esp, 4
  00761	89 85 28 fd ff
	ff		 mov	 DWORD PTR _≥ËŒÔÀ˜“˝$8[ebp], eax

; 355  : 						getStrStr(str, outText);

  00767	8d 85 f8 fd ff
	ff		 lea	 eax, DWORD PTR _outText$[ebp]
  0076d	50		 push	 eax
  0076e	8b 4d 14	 mov	 ecx, DWORD PTR _str$[ebp]
  00771	51		 push	 ecx
  00772	e8 00 00 00 00	 call	 ?getStrStr@@YAXPAD0@Z	; getStrStr
  00777	83 c4 08	 add	 esp, 8

; 356  : 						chatbuffer->image = ÂÆ†Áâ©Á¥¢Âºï;

  0077a	8b 45 08	 mov	 eax, DWORD PTR _chatbuffer$[ebp]
  0077d	8b 8d 28 fd ff
	ff		 mov	 ecx, DWORD PTR _≥ËŒÔÀ˜“˝$8[ebp]
  00783	89 88 40 01 00
	00		 mov	 DWORD PTR [eax+320], ecx

; 357  : 						SIZE fontsize;
; 358  : 						GetTextExtentPoint32(FontSizeHdc, (LPCSTR)outText, lstrlen(outText), (LPSIZE)&fontsize);

  00789	8b f4		 mov	 esi, esp
  0078b	8d 85 18 fd ff
	ff		 lea	 eax, DWORD PTR _fontsize$7[ebp]
  00791	50		 push	 eax
  00792	8b fc		 mov	 edi, esp
  00794	8d 8d f8 fd ff
	ff		 lea	 ecx, DWORD PTR _outText$[ebp]
  0079a	51		 push	 ecx
  0079b	ff 15 00 00 00
	00		 call	 DWORD PTR __imp__lstrlenA@4
  007a1	3b fc		 cmp	 edi, esp
  007a3	e8 00 00 00 00	 call	 __RTC_CheckEsp
  007a8	50		 push	 eax
  007a9	8d 95 f8 fd ff
	ff		 lea	 edx, DWORD PTR _outText$[ebp]
  007af	52		 push	 edx
  007b0	a1 00 00 00 00	 mov	 eax, DWORD PTR ?FontSizeHdc@@3PAUHDC__@@A ; FontSizeHdc
  007b5	50		 push	 eax
  007b6	ff 15 00 00 00
	00		 call	 DWORD PTR __imp__GetTextExtentPoint32A@16
  007bc	3b f4		 cmp	 esi, esp
  007be	e8 00 00 00 00	 call	 __RTC_CheckEsp

; 359  : 						chatbuffer->color = 11;

  007c3	8b 45 08	 mov	 eax, DWORD PTR _chatbuffer$[ebp]
  007c6	c6 80 05 01 00
	00 0b		 mov	 BYTE PTR [eax+261], 11	; 0000000bH

; 360  : 						chatbuffer->x = x;

  007cd	8b 45 08	 mov	 eax, DWORD PTR _chatbuffer$[ebp]
  007d0	8b 4d 0c	 mov	 ecx, DWORD PTR _x$[ebp]
  007d3	89 88 10 01 00
	00		 mov	 DWORD PTR [eax+272], ecx

; 361  : 						strcpy(chatbuffer->buffer, outText);

  007d9	8d 85 f8 fd ff
	ff		 lea	 eax, DWORD PTR _outText$[ebp]
  007df	50		 push	 eax
  007e0	8b 4d 08	 mov	 ecx, DWORD PTR _chatbuffer$[ebp]
  007e3	51		 push	 ecx
  007e4	e8 00 00 00 00	 call	 _strcpy
  007e9	83 c4 08	 add	 esp, 8

; 362  : 						chatbuffer->NextChatBuffer = (CHAT_BUFFER *)calloc(1, sizeof(CHAT_BUFFER));

  007ec	8b f4		 mov	 esi, esp
  007ee	68 4c 01 00 00	 push	 332			; 0000014cH
  007f3	6a 01		 push	 1
  007f5	ff 15 00 00 00
	00		 call	 DWORD PTR __imp__calloc
  007fb	83 c4 08	 add	 esp, 8
  007fe	3b f4		 cmp	 esi, esp
  00800	e8 00 00 00 00	 call	 __RTC_CheckEsp
  00805	8b 4d 08	 mov	 ecx, DWORD PTR _chatbuffer$[ebp]
  00808	89 81 14 01 00
	00		 mov	 DWORD PTR [ecx+276], eax

; 363  : 						MyNewStockFontBuffer(chatbuffer->NextChatBuffer, x + fontsize.cx, color, temp1 + strl + 1, size, id);  //Â∞ÜÂêéÁª≠ÊñáÂ≠óÁªßÁª≠ÈÅçÂéÜËæìÂá∫

  0080e	8b 45 1c	 mov	 eax, DWORD PTR _id$[ebp]
  00811	50		 push	 eax
  00812	8b 4d 18	 mov	 ecx, DWORD PTR _size$[ebp]
  00815	51		 push	 ecx
  00816	8b 95 d4 fd ff
	ff		 mov	 edx, DWORD PTR _strl$21[ebp]
  0081c	8b 85 ec fd ff
	ff		 mov	 eax, DWORD PTR _temp1$[ebp]
  00822	8d 4c 10 01	 lea	 ecx, DWORD PTR [eax+edx+1]
  00826	51		 push	 ecx
  00827	0f b6 55 10	 movzx	 edx, BYTE PTR _color$[ebp]
  0082b	52		 push	 edx
  0082c	8b 45 0c	 mov	 eax, DWORD PTR _x$[ebp]
  0082f	03 85 18 fd ff
	ff		 add	 eax, DWORD PTR _fontsize$7[ebp]
  00835	50		 push	 eax
  00836	8b 4d 08	 mov	 ecx, DWORD PTR _chatbuffer$[ebp]
  00839	8b 91 14 01 00
	00		 mov	 edx, DWORD PTR [ecx+276]
  0083f	52		 push	 edx
  00840	e8 00 00 00 00	 call	 ?MyNewStockFontBuffer@@YAXPAU_CHAT_BUFFER@@HEPADHH@Z ; MyNewStockFontBuffer
  00845	83 c4 18	 add	 esp, 24			; 00000018H

; 364  : 						return;

  00848	e9 3a 01 00 00	 jmp	 $LN28@MyNewStock
$LN22@MyNewStock:

; 365  : #endif
; 366  : 					}else if (pTextItem){//Ëé∑ÂèñÈÅìÂÖ∑
; 367  : 					}
; 368  : 					__asm nop;

  0084d	90		 npad	 1
$LN9@MyNewStock:

; 369  : 				}
; 370  : 
; 371  : 			
; 372  : 			}
; 373  : 			__asm nop;

  0084e	90		 npad	 1
$LN8@MyNewStock:

; 374  : 		}
; 375  : 		if (temp1 != str){//Â¶ÇÊûú‰∏çÁõ∏Á≠âÔºåÂàô{‰πãÂâçÁöÑÊñáÂ≠óË¶ÅÂÖàËæìÂá∫

  0084f	8b 85 ec fd ff
	ff		 mov	 eax, DWORD PTR _temp1$[ebp]
  00855	3b 45 14	 cmp	 eax, DWORD PTR _str$[ebp]
  00858	0f 84 ff 00 00
	00		 je	 $LN27@MyNewStock

; 376  : 			int strl = temp1 - str;

  0085e	8b 85 ec fd ff
	ff		 mov	 eax, DWORD PTR _temp1$[ebp]
  00864	2b 45 14	 sub	 eax, DWORD PTR _str$[ebp]
  00867	89 85 0c fd ff
	ff		 mov	 DWORD PTR _strl$6[ebp], eax

; 377  : 			memcpy(outText, str, strl);   //outText‰∏∫#‰πãÂâçÁöÑÊã∑Ë¥ù

  0086d	8b 85 0c fd ff
	ff		 mov	 eax, DWORD PTR _strl$6[ebp]
  00873	50		 push	 eax
  00874	8b 4d 14	 mov	 ecx, DWORD PTR _str$[ebp]
  00877	51		 push	 ecx
  00878	8d 95 f8 fd ff
	ff		 lea	 edx, DWORD PTR _outText$[ebp]
  0087e	52		 push	 edx
  0087f	e8 00 00 00 00	 call	 _memcpy
  00884	83 c4 0c	 add	 esp, 12			; 0000000cH

; 378  : 			outText[strl] = 0x0;

  00887	8b 85 0c fd ff
	ff		 mov	 eax, DWORD PTR _strl$6[ebp]
  0088d	89 85 4c fb ff
	ff		 mov	 DWORD PTR $T1[ebp], eax
  00893	81 bd 4c fb ff
	ff 00 02 00 00	 cmp	 DWORD PTR $T1[ebp], 512	; 00000200H
  0089d	73 02		 jae	 SHORT $LN35@MyNewStock
  0089f	eb 05		 jmp	 SHORT $LN36@MyNewStock
$LN35@MyNewStock:
  008a1	e8 00 00 00 00	 call	 ___report_rangecheckfailure
$LN36@MyNewStock:
  008a6	8b 8d 4c fb ff
	ff		 mov	 ecx, DWORD PTR $T1[ebp]
  008ac	c6 84 0d f8 fd
	ff ff 00	 mov	 BYTE PTR _outText$[ebp+ecx], 0

; 379  : 			SIZE fontsize;
; 380  : 			GetTextExtentPoint32(FontSizeHdc, (LPCSTR)outText, strl, (LPSIZE)&fontsize);

  008b4	8b f4		 mov	 esi, esp
  008b6	8d 85 fc fc ff
	ff		 lea	 eax, DWORD PTR _fontsize$5[ebp]
  008bc	50		 push	 eax
  008bd	8b 8d 0c fd ff
	ff		 mov	 ecx, DWORD PTR _strl$6[ebp]
  008c3	51		 push	 ecx
  008c4	8d 95 f8 fd ff
	ff		 lea	 edx, DWORD PTR _outText$[ebp]
  008ca	52		 push	 edx
  008cb	a1 00 00 00 00	 mov	 eax, DWORD PTR ?FontSizeHdc@@3PAUHDC__@@A ; FontSizeHdc
  008d0	50		 push	 eax
  008d1	ff 15 00 00 00
	00		 call	 DWORD PTR __imp__GetTextExtentPoint32A@16
  008d7	3b f4		 cmp	 esi, esp
  008d9	e8 00 00 00 00	 call	 __RTC_CheckEsp

; 381  : 			chatbuffer->color = color;

  008de	8b 45 08	 mov	 eax, DWORD PTR _chatbuffer$[ebp]
  008e1	8a 4d 10	 mov	 cl, BYTE PTR _color$[ebp]
  008e4	88 88 05 01 00
	00		 mov	 BYTE PTR [eax+261], cl

; 382  : 			chatbuffer->x = x;

  008ea	8b 45 08	 mov	 eax, DWORD PTR _chatbuffer$[ebp]
  008ed	8b 4d 0c	 mov	 ecx, DWORD PTR _x$[ebp]
  008f0	89 88 10 01 00
	00		 mov	 DWORD PTR [eax+272], ecx

; 383  : 			strcpy(chatbuffer->buffer, outText);

  008f6	8d 85 f8 fd ff
	ff		 lea	 eax, DWORD PTR _outText$[ebp]
  008fc	50		 push	 eax
  008fd	8b 4d 08	 mov	 ecx, DWORD PTR _chatbuffer$[ebp]
  00900	51		 push	 ecx
  00901	e8 00 00 00 00	 call	 _strcpy
  00906	83 c4 08	 add	 esp, 8

; 384  : 			chatbuffer->NextChatBuffer = (CHAT_BUFFER *)calloc(1, sizeof(CHAT_BUFFER));

  00909	8b f4		 mov	 esi, esp
  0090b	68 4c 01 00 00	 push	 332			; 0000014cH
  00910	6a 01		 push	 1
  00912	ff 15 00 00 00
	00		 call	 DWORD PTR __imp__calloc
  00918	83 c4 08	 add	 esp, 8
  0091b	3b f4		 cmp	 esi, esp
  0091d	e8 00 00 00 00	 call	 __RTC_CheckEsp
  00922	8b 4d 08	 mov	 ecx, DWORD PTR _chatbuffer$[ebp]
  00925	89 81 14 01 00
	00		 mov	 DWORD PTR [ecx+276], eax

; 385  : 			MyNewStockFontBuffer(chatbuffer->NextChatBuffer, x + fontsize.cx, color, temp1, size, id);  //Â∞ÜÂêéÁª≠ÊñáÂ≠óÁªßÁª≠ÈÅçÂéÜËæìÂá∫

  0092b	8b 45 1c	 mov	 eax, DWORD PTR _id$[ebp]
  0092e	50		 push	 eax
  0092f	8b 4d 18	 mov	 ecx, DWORD PTR _size$[ebp]
  00932	51		 push	 ecx
  00933	8b 95 ec fd ff
	ff		 mov	 edx, DWORD PTR _temp1$[ebp]
  00939	52		 push	 edx
  0093a	0f b6 45 10	 movzx	 eax, BYTE PTR _color$[ebp]
  0093e	50		 push	 eax
  0093f	8b 4d 0c	 mov	 ecx, DWORD PTR _x$[ebp]
  00942	03 8d fc fc ff
	ff		 add	 ecx, DWORD PTR _fontsize$5[ebp]
  00948	51		 push	 ecx
  00949	8b 55 08	 mov	 edx, DWORD PTR _chatbuffer$[ebp]
  0094c	8b 82 14 01 00
	00		 mov	 eax, DWORD PTR [edx+276]
  00952	50		 push	 eax
  00953	e8 00 00 00 00	 call	 ?MyNewStockFontBuffer@@YAXPAU_CHAT_BUFFER@@HEPADHH@Z ; MyNewStockFontBuffer
  00958	83 c4 18	 add	 esp, 24			; 00000018H

; 386  : 			return;

  0095b	eb 2a		 jmp	 SHORT $LN28@MyNewStock
$LN27@MyNewStock:

; 387  : 		}
; 388  : 	}else{

  0095d	eb 28		 jmp	 SHORT $LN28@MyNewStock
$LN6@MyNewStock:

; 389  : 		//Â¶ÇÊûúÊ≤°Êúâ{ÂàôÊ≠£Â∏∏ËæìÂá∫ËØ•ÊÆµÊñáÂ≠ó
; 390  : 		chatbuffer->color = color;

  0095f	8b 45 08	 mov	 eax, DWORD PTR _chatbuffer$[ebp]
  00962	8a 4d 10	 mov	 cl, BYTE PTR _color$[ebp]
  00965	88 88 05 01 00
	00		 mov	 BYTE PTR [eax+261], cl

; 391  : 		chatbuffer->x = x;

  0096b	8b 45 08	 mov	 eax, DWORD PTR _chatbuffer$[ebp]
  0096e	8b 4d 0c	 mov	 ecx, DWORD PTR _x$[ebp]
  00971	89 88 10 01 00
	00		 mov	 DWORD PTR [eax+272], ecx

; 392  : 		strcpy(chatbuffer->buffer, str);

  00977	8b 45 14	 mov	 eax, DWORD PTR _str$[ebp]
  0097a	50		 push	 eax
  0097b	8b 4d 08	 mov	 ecx, DWORD PTR _chatbuffer$[ebp]
  0097e	51		 push	 ecx
  0097f	e8 00 00 00 00	 call	 _strcpy
  00984	83 c4 08	 add	 esp, 8
$LN28@MyNewStock:

; 393  : 	}
; 394  : 
; 395  : 
; 396  : }

  00987	52		 push	 edx
  00988	8b cd		 mov	 ecx, ebp
  0098a	50		 push	 eax
  0098b	8d 15 00 00 00
	00		 lea	 edx, DWORD PTR $LN45@MyNewStock
  00991	e8 00 00 00 00	 call	 @_RTC_CheckStackVars@8
  00996	58		 pop	 eax
  00997	5a		 pop	 edx
  00998	5f		 pop	 edi
  00999	5e		 pop	 esi
  0099a	5b		 pop	 ebx
  0099b	8b 4d fc	 mov	 ecx, DWORD PTR __$ArrayPad$[ebp]
  0099e	33 cd		 xor	 ecx, ebp
  009a0	e8 00 00 00 00	 call	 @__security_check_cookie@4
  009a5	81 c4 b8 04 00
	00		 add	 esp, 1208		; 000004b8H
  009ab	3b ec		 cmp	 ebp, esp
  009ad	e8 00 00 00 00	 call	 __RTC_CheckEsp
  009b2	8b e5		 mov	 esp, ebp
  009b4	5d		 pop	 ebp
  009b5	c3		 ret	 0
  009b6	66 90		 npad	 2
$LN45@MyNewStock:
  009b8	07 00 00 00	 DD	 7
  009bc	00 00 00 00	 DD	 $LN44@MyNewStock
$LN44@MyNewStock:
  009c0	f8 fd ff ff	 DD	 -520			; fffffdf8H
  009c4	00 02 00 00	 DD	 512			; 00000200H
  009c8	00 00 00 00	 DD	 $LN37@MyNewStock
  009cc	a0 fd ff ff	 DD	 -608			; fffffda0H
  009d0	08 00 00 00	 DD	 8
  009d4	00 00 00 00	 DD	 $LN38@MyNewStock
  009d8	54 fd ff ff	 DD	 -684			; fffffd54H
  009dc	08 00 00 00	 DD	 8
  009e0	00 00 00 00	 DD	 $LN39@MyNewStock
  009e4	44 fd ff ff	 DD	 -700			; fffffd44H
  009e8	08 00 00 00	 DD	 8
  009ec	00 00 00 00	 DD	 $LN40@MyNewStock
  009f0	34 fd ff ff	 DD	 -716			; fffffd34H
  009f4	08 00 00 00	 DD	 8
  009f8	00 00 00 00	 DD	 $LN41@MyNewStock
  009fc	18 fd ff ff	 DD	 -744			; fffffd18H
  00a00	08 00 00 00	 DD	 8
  00a04	00 00 00 00	 DD	 $LN42@MyNewStock
  00a08	fc fc ff ff	 DD	 -772			; fffffcfcH
  00a0c	08 00 00 00	 DD	 8
  00a10	00 00 00 00	 DD	 $LN43@MyNewStock
$LN43@MyNewStock:
  00a14	66		 DB	 102			; 00000066H
  00a15	6f		 DB	 111			; 0000006fH
  00a16	6e		 DB	 110			; 0000006eH
  00a17	74		 DB	 116			; 00000074H
  00a18	73		 DB	 115			; 00000073H
  00a19	69		 DB	 105			; 00000069H
  00a1a	7a		 DB	 122			; 0000007aH
  00a1b	65		 DB	 101			; 00000065H
  00a1c	00		 DB	 0
$LN42@MyNewStock:
  00a1d	66		 DB	 102			; 00000066H
  00a1e	6f		 DB	 111			; 0000006fH
  00a1f	6e		 DB	 110			; 0000006eH
  00a20	74		 DB	 116			; 00000074H
  00a21	73		 DB	 115			; 00000073H
  00a22	69		 DB	 105			; 00000069H
  00a23	7a		 DB	 122			; 0000007aH
  00a24	65		 DB	 101			; 00000065H
  00a25	00		 DB	 0
$LN41@MyNewStock:
  00a26	66		 DB	 102			; 00000066H
  00a27	6f		 DB	 111			; 0000006fH
  00a28	6e		 DB	 110			; 0000006eH
  00a29	74		 DB	 116			; 00000074H
  00a2a	73		 DB	 115			; 00000073H
  00a2b	69		 DB	 105			; 00000069H
  00a2c	7a		 DB	 122			; 0000007aH
  00a2d	65		 DB	 101			; 00000065H
  00a2e	00		 DB	 0
$LN40@MyNewStock:
  00a2f	66		 DB	 102			; 00000066H
  00a30	6f		 DB	 111			; 0000006fH
  00a31	6e		 DB	 110			; 0000006eH
  00a32	74		 DB	 116			; 00000074H
  00a33	73		 DB	 115			; 00000073H
  00a34	69		 DB	 105			; 00000069H
  00a35	7a		 DB	 122			; 0000007aH
  00a36	65		 DB	 101			; 00000065H
  00a37	00		 DB	 0
$LN39@MyNewStock:
  00a38	66		 DB	 102			; 00000066H
  00a39	6f		 DB	 111			; 0000006fH
  00a3a	6e		 DB	 110			; 0000006eH
  00a3b	74		 DB	 116			; 00000074H
  00a3c	73		 DB	 115			; 00000073H
  00a3d	69		 DB	 105			; 00000069H
  00a3e	7a		 DB	 122			; 0000007aH
  00a3f	65		 DB	 101			; 00000065H
  00a40	00		 DB	 0
$LN38@MyNewStock:
  00a41	66		 DB	 102			; 00000066H
  00a42	6f		 DB	 111			; 0000006fH
  00a43	6e		 DB	 110			; 0000006eH
  00a44	74		 DB	 116			; 00000074H
  00a45	73		 DB	 115			; 00000073H
  00a46	69		 DB	 105			; 00000069H
  00a47	7a		 DB	 122			; 0000007aH
  00a48	65		 DB	 101			; 00000065H
  00a49	00		 DB	 0
$LN37@MyNewStock:
  00a4a	6f		 DB	 111			; 0000006fH
  00a4b	75		 DB	 117			; 00000075H
  00a4c	74		 DB	 116			; 00000074H
  00a4d	54		 DB	 84			; 00000054H
  00a4e	65		 DB	 101			; 00000065H
  00a4f	78		 DB	 120			; 00000078H
  00a50	74		 DB	 116			; 00000074H
  00a51	00		 DB	 0
?MyNewStockFontBuffer@@YAXPAU_CHAT_BUFFER@@HEPADHH@Z ENDP ; MyNewStockFontBuffer
_TEXT	ENDS
; Function compile flags: /Odtp /RTCsu /ZI
; File c:\users\administrator\desktop\????? ??\????? ??\client source code\system\font.cpp
;	COMDAT ?getStrExtraData@@YA_NPAD0@Z
_TEXT	SEGMENT
_strIn$ = 8						; size = 4
_strOut$ = 12						; size = 4
?getStrExtraData@@YA_NPAD0@Z PROC			; getStrExtraData, COMDAT

; 243  : bool getStrExtraData(char* strIn, char* strOut){

  00000	55		 push	 ebp
  00001	8b ec		 mov	 ebp, esp
  00003	81 ec c0 00 00
	00		 sub	 esp, 192		; 000000c0H
  00009	53		 push	 ebx
  0000a	56		 push	 esi
  0000b	57		 push	 edi
  0000c	8d bd 40 ff ff
	ff		 lea	 edi, DWORD PTR [ebp-192]
  00012	b9 30 00 00 00	 mov	 ecx, 48			; 00000030H
  00017	b8 cc cc cc cc	 mov	 eax, -858993460		; ccccccccH
  0001c	f3 ab		 rep stosd

; 244  : 	return false;

  0001e	32 c0		 xor	 al, al

; 245  : }

  00020	5f		 pop	 edi
  00021	5e		 pop	 esi
  00022	5b		 pop	 ebx
  00023	8b e5		 mov	 esp, ebp
  00025	5d		 pop	 ebp
  00026	c3		 ret	 0
?getStrExtraData@@YA_NPAD0@Z ENDP			; getStrExtraData
_TEXT	ENDS
; Function compile flags: /Odtp /RTCsu /ZI
; File c:\users\administrator\desktop\????? ??\????? ??\client source code\system\font.cpp
;	COMDAT ?getStrPet@@YA_NPADPAU_CHAT_BUFFER@@@Z
_TEXT	SEGMENT
$T1 = -312						; size = 4
$T2 = -300						; size = 4
_count$ = -96						; size = 4
_array$ = -84						; size = 40
_pbuf$ = -36						; size = 4
_len$ = -24						; size = 4
_temp1$ = -12						; size = 4
__$ArrayPad$ = -4					; size = 4
_str$ = 8						; size = 4
_chatbuffer$ = 12					; size = 4
?getStrPet@@YA_NPADPAU_CHAT_BUFFER@@@Z PROC		; getStrPet, COMDAT

; 217  : bool getStrPet(char* str, CHAT_BUFFER *chatbuffer){

  00000	55		 push	 ebp
  00001	8b ec		 mov	 ebp, esp
  00003	81 ec 3c 01 00
	00		 sub	 esp, 316		; 0000013cH
  00009	53		 push	 ebx
  0000a	56		 push	 esi
  0000b	57		 push	 edi
  0000c	8d bd c4 fe ff
	ff		 lea	 edi, DWORD PTR [ebp-316]
  00012	b9 4f 00 00 00	 mov	 ecx, 79			; 0000004fH
  00017	b8 cc cc cc cc	 mov	 eax, -858993460		; ccccccccH
  0001c	f3 ab		 rep stosd
  0001e	a1 00 00 00 00	 mov	 eax, DWORD PTR ___security_cookie
  00023	33 c5		 xor	 eax, ebp
  00025	89 45 fc	 mov	 DWORD PTR __$ArrayPad$[ebp], eax

; 218  : 	//Áß∞Âè∑|100872|0|140|1735|452|202|258|,str=‰Ω©Èú≤Â§è}
; 219  : 	char *temp1 = sunday(str, "pet=");

  00028	68 00 00 00 00	 push	 OFFSET ??_C@_04PFOHGHCO@pet?$DN?$AA@
  0002d	8b 45 08	 mov	 eax, DWORD PTR _str$[ebp]
  00030	50		 push	 eax
  00031	e8 00 00 00 00	 call	 ?sunday@@YAPADPAD0@Z	; sunday
  00036	83 c4 08	 add	 esp, 8
  00039	89 45 f4	 mov	 DWORD PTR _temp1$[ebp], eax

; 220  : 	int len = lstrlen(str);

  0003c	8b f4		 mov	 esi, esp
  0003e	8b 45 08	 mov	 eax, DWORD PTR _str$[ebp]
  00041	50		 push	 eax
  00042	ff 15 00 00 00
	00		 call	 DWORD PTR __imp__lstrlenA@4
  00048	3b f4		 cmp	 esi, esp
  0004a	e8 00 00 00 00	 call	 __RTC_CheckEsp
  0004f	89 45 e8	 mov	 DWORD PTR _len$[ebp], eax

; 221  : 	char *pbuf = new char[len + 1];

  00052	a1 00 00 00 00	 mov	 eax, DWORD PTR ?__LINE__Var@?0??getStrPet@@YA_NPADPAU_CHAT_BUFFER@@@Z@4JA
  00057	83 c0 04	 add	 eax, 4
  0005a	50		 push	 eax
  0005b	68 00 00 00 00	 push	 OFFSET ??_C@_0GC@GJNKFFLF@c?3?2users?2administrator?2desktop?2?$LN@
  00060	6a 01		 push	 1
  00062	8b 4d e8	 mov	 ecx, DWORD PTR _len$[ebp]
  00065	83 c1 01	 add	 ecx, 1
  00068	51		 push	 ecx
  00069	e8 00 00 00 00	 call	 ??_U@YAPAXIHPBDH@Z	; operator new[]
  0006e	83 c4 10	 add	 esp, 16			; 00000010H
  00071	89 85 d4 fe ff
	ff		 mov	 DWORD PTR $T2[ebp], eax
  00077	8b 95 d4 fe ff
	ff		 mov	 edx, DWORD PTR $T2[ebp]
  0007d	89 55 dc	 mov	 DWORD PTR _pbuf$[ebp], edx

; 222  : 	memset(pbuf, 0, len + 1);

  00080	8b 45 e8	 mov	 eax, DWORD PTR _len$[ebp]
  00083	83 c0 01	 add	 eax, 1
  00086	50		 push	 eax
  00087	6a 00		 push	 0
  00089	8b 4d dc	 mov	 ecx, DWORD PTR _pbuf$[ebp]
  0008c	51		 push	 ecx
  0008d	e8 00 00 00 00	 call	 _memset
  00092	83 c4 0c	 add	 esp, 12			; 0000000cH

; 223  : 	memcpy(pbuf, str, len);

  00095	8b 45 e8	 mov	 eax, DWORD PTR _len$[ebp]
  00098	50		 push	 eax
  00099	8b 4d 08	 mov	 ecx, DWORD PTR _str$[ebp]
  0009c	51		 push	 ecx
  0009d	8b 55 dc	 mov	 edx, DWORD PTR _pbuf$[ebp]
  000a0	52		 push	 edx
  000a1	e8 00 00 00 00	 call	 _memcpy
  000a6	83 c4 0c	 add	 esp, 12			; 0000000cH

; 224  : 
; 225  : 	char* array[10];
; 226  : 	int count = split_damage(pbuf + 5, '|', (int*)array, 8);

  000a9	6a 08		 push	 8
  000ab	8d 45 ac	 lea	 eax, DWORD PTR _array$[ebp]
  000ae	50		 push	 eax
  000af	6a 7c		 push	 124			; 0000007cH
  000b1	8b 4d dc	 mov	 ecx, DWORD PTR _pbuf$[ebp]
  000b4	83 c1 05	 add	 ecx, 5
  000b7	51		 push	 ecx
  000b8	e8 00 00 00 00	 call	 ?split_damage@@YAHPADDPAHI@Z ; split_damage
  000bd	83 c4 10	 add	 esp, 16			; 00000010H
  000c0	89 45 a0	 mov	 DWORD PTR _count$[ebp], eax

; 227  : 	if (count != 8){

  000c3	83 7d a0 08	 cmp	 DWORD PTR _count$[ebp], 8
  000c7	74 1f		 je	 SHORT $LN2@getStrPet

; 228  : 		delete[] pbuf;

  000c9	8b 45 dc	 mov	 eax, DWORD PTR _pbuf$[ebp]
  000cc	89 85 c8 fe ff
	ff		 mov	 DWORD PTR $T1[ebp], eax
  000d2	8b 8d c8 fe ff
	ff		 mov	 ecx, DWORD PTR $T1[ebp]
  000d8	51		 push	 ecx
  000d9	e8 00 00 00 00	 call	 ??_V@YAXPAX@Z		; operator delete[]
  000de	83 c4 04	 add	 esp, 4

; 229  : 		return false;

  000e1	32 c0		 xor	 al, al
  000e3	e9 1f 01 00 00	 jmp	 $LN1@getStrPet
$LN2@getStrPet:

; 230  : 	}
; 231  : 	chatbuffer->image = atoi(array[1]);

  000e8	b8 04 00 00 00	 mov	 eax, 4
  000ed	c1 e0 00	 shl	 eax, 0
  000f0	8b f4		 mov	 esi, esp
  000f2	8b 4c 05 ac	 mov	 ecx, DWORD PTR _array$[ebp+eax]
  000f6	51		 push	 ecx
  000f7	ff 15 00 00 00
	00		 call	 DWORD PTR __imp__atoi
  000fd	83 c4 04	 add	 esp, 4
  00100	3b f4		 cmp	 esi, esp
  00102	e8 00 00 00 00	 call	 __RTC_CheckEsp
  00107	8b 55 0c	 mov	 edx, DWORD PTR _chatbuffer$[ebp]
  0010a	89 82 40 01 00
	00		 mov	 DWORD PTR [edx+320], eax

; 232  : 	chatbuffer->reborn = atoi(array[2]);

  00110	b8 04 00 00 00	 mov	 eax, 4
  00115	d1 e0		 shl	 eax, 1
  00117	8b f4		 mov	 esi, esp
  00119	8b 4c 05 ac	 mov	 ecx, DWORD PTR _array$[ebp+eax]
  0011d	51		 push	 ecx
  0011e	ff 15 00 00 00
	00		 call	 DWORD PTR __imp__atoi
  00124	83 c4 04	 add	 esp, 4
  00127	3b f4		 cmp	 esi, esp
  00129	e8 00 00 00 00	 call	 __RTC_CheckEsp
  0012e	8b 55 0c	 mov	 edx, DWORD PTR _chatbuffer$[ebp]
  00131	66 89 82 34 01
	00 00		 mov	 WORD PTR [edx+308], ax

; 233  : 	chatbuffer->lv = atoi(array[3]);

  00138	b8 04 00 00 00	 mov	 eax, 4
  0013d	6b c8 03	 imul	 ecx, eax, 3
  00140	8b f4		 mov	 esi, esp
  00142	8b 54 0d ac	 mov	 edx, DWORD PTR _array$[ebp+ecx]
  00146	52		 push	 edx
  00147	ff 15 00 00 00
	00		 call	 DWORD PTR __imp__atoi
  0014d	83 c4 04	 add	 esp, 4
  00150	3b f4		 cmp	 esi, esp
  00152	e8 00 00 00 00	 call	 __RTC_CheckEsp
  00157	8b 4d 0c	 mov	 ecx, DWORD PTR _chatbuffer$[ebp]
  0015a	66 89 81 36 01
	00 00		 mov	 WORD PTR [ecx+310], ax

; 234  : 	chatbuffer->hp = atoi(array[4]);

  00161	b8 04 00 00 00	 mov	 eax, 4
  00166	c1 e0 02	 shl	 eax, 2
  00169	8b f4		 mov	 esi, esp
  0016b	8b 4c 05 ac	 mov	 ecx, DWORD PTR _array$[ebp+eax]
  0016f	51		 push	 ecx
  00170	ff 15 00 00 00
	00		 call	 DWORD PTR __imp__atoi
  00176	83 c4 04	 add	 esp, 4
  00179	3b f4		 cmp	 esi, esp
  0017b	e8 00 00 00 00	 call	 __RTC_CheckEsp
  00180	8b 55 0c	 mov	 edx, DWORD PTR _chatbuffer$[ebp]
  00183	66 89 82 38 01
	00 00		 mov	 WORD PTR [edx+312], ax

; 235  : 	chatbuffer->gong = atoi(array[5]);

  0018a	b8 04 00 00 00	 mov	 eax, 4
  0018f	6b c8 05	 imul	 ecx, eax, 5
  00192	8b f4		 mov	 esi, esp
  00194	8b 54 0d ac	 mov	 edx, DWORD PTR _array$[ebp+ecx]
  00198	52		 push	 edx
  00199	ff 15 00 00 00
	00		 call	 DWORD PTR __imp__atoi
  0019f	83 c4 04	 add	 esp, 4
  001a2	3b f4		 cmp	 esi, esp
  001a4	e8 00 00 00 00	 call	 __RTC_CheckEsp
  001a9	8b 4d 0c	 mov	 ecx, DWORD PTR _chatbuffer$[ebp]
  001ac	66 89 81 3a 01
	00 00		 mov	 WORD PTR [ecx+314], ax

; 236  : 	chatbuffer->fang = atoi(array[6]);

  001b3	b8 04 00 00 00	 mov	 eax, 4
  001b8	6b c8 06	 imul	 ecx, eax, 6
  001bb	8b f4		 mov	 esi, esp
  001bd	8b 54 0d ac	 mov	 edx, DWORD PTR _array$[ebp+ecx]
  001c1	52		 push	 edx
  001c2	ff 15 00 00 00
	00		 call	 DWORD PTR __imp__atoi
  001c8	83 c4 04	 add	 esp, 4
  001cb	3b f4		 cmp	 esi, esp
  001cd	e8 00 00 00 00	 call	 __RTC_CheckEsp
  001d2	8b 4d 0c	 mov	 ecx, DWORD PTR _chatbuffer$[ebp]
  001d5	66 89 81 3c 01
	00 00		 mov	 WORD PTR [ecx+316], ax

; 237  : 	chatbuffer->min = atoi(array[7]);

  001dc	b8 04 00 00 00	 mov	 eax, 4
  001e1	6b c8 07	 imul	 ecx, eax, 7
  001e4	8b f4		 mov	 esi, esp
  001e6	8b 54 0d ac	 mov	 edx, DWORD PTR _array$[ebp+ecx]
  001ea	52		 push	 edx
  001eb	ff 15 00 00 00
	00		 call	 DWORD PTR __imp__atoi
  001f1	83 c4 04	 add	 esp, 4
  001f4	3b f4		 cmp	 esi, esp
  001f6	e8 00 00 00 00	 call	 __RTC_CheckEsp
  001fb	8b 4d 0c	 mov	 ecx, DWORD PTR _chatbuffer$[ebp]
  001fe	66 89 81 3e 01
	00 00		 mov	 WORD PTR [ecx+318], ax

; 238  : 
; 239  : 	return true;

  00205	b0 01		 mov	 al, 1
$LN1@getStrPet:

; 240  : 
; 241  : }

  00207	52		 push	 edx
  00208	8b cd		 mov	 ecx, ebp
  0020a	50		 push	 eax
  0020b	8d 15 00 00 00
	00		 lea	 edx, DWORD PTR $LN6@getStrPet
  00211	e8 00 00 00 00	 call	 @_RTC_CheckStackVars@8
  00216	58		 pop	 eax
  00217	5a		 pop	 edx
  00218	5f		 pop	 edi
  00219	5e		 pop	 esi
  0021a	5b		 pop	 ebx
  0021b	8b 4d fc	 mov	 ecx, DWORD PTR __$ArrayPad$[ebp]
  0021e	33 cd		 xor	 ecx, ebp
  00220	e8 00 00 00 00	 call	 @__security_check_cookie@4
  00225	81 c4 3c 01 00
	00		 add	 esp, 316		; 0000013cH
  0022b	3b ec		 cmp	 ebp, esp
  0022d	e8 00 00 00 00	 call	 __RTC_CheckEsp
  00232	8b e5		 mov	 esp, ebp
  00234	5d		 pop	 ebp
  00235	c3		 ret	 0
  00236	66 90		 npad	 2
$LN6@getStrPet:
  00238	01 00 00 00	 DD	 1
  0023c	00 00 00 00	 DD	 $LN5@getStrPet
$LN5@getStrPet:
  00240	ac ff ff ff	 DD	 -84			; ffffffacH
  00244	28 00 00 00	 DD	 40			; 00000028H
  00248	00 00 00 00	 DD	 $LN4@getStrPet
$LN4@getStrPet:
  0024c	61		 DB	 97			; 00000061H
  0024d	72		 DB	 114			; 00000072H
  0024e	72		 DB	 114			; 00000072H
  0024f	61		 DB	 97			; 00000061H
  00250	79		 DB	 121			; 00000079H
  00251	00		 DB	 0
?getStrPet@@YA_NPADPAU_CHAT_BUFFER@@@Z ENDP		; getStrPet
_TEXT	ENDS
; Function compile flags: /Odtp /RTCsu /ZI
; File c:\users\administrator\desktop\????? ??\????? ??\client source code\system\font.cpp
;	COMDAT ?getStrPetindex@@YAHPAD@Z
_TEXT	SEGMENT
_temp1$ = -20						; size = 4
_index$ = -8						; size = 4
_str$ = 8						; size = 4
?getStrPetindex@@YAHPAD@Z PROC				; getStrPetindex, COMDAT

; 208  : int getStrPetindex(char* str){

  00000	55		 push	 ebp
  00001	8b ec		 mov	 ebp, esp
  00003	81 ec d8 00 00
	00		 sub	 esp, 216		; 000000d8H
  00009	53		 push	 ebx
  0000a	56		 push	 esi
  0000b	57		 push	 edi
  0000c	8d bd 28 ff ff
	ff		 lea	 edi, DWORD PTR [ebp-216]
  00012	b9 36 00 00 00	 mov	 ecx, 54			; 00000036H
  00017	b8 cc cc cc cc	 mov	 eax, -858993460		; ccccccccH
  0001c	f3 ab		 rep stosd

; 209  : 	int index = -1;

  0001e	c7 45 f8 ff ff
	ff ff		 mov	 DWORD PTR _index$[ebp], -1

; 210  : 	char *temp1 = sunday(str, "pet=");

  00025	68 00 00 00 00	 push	 OFFSET ??_C@_04PFOHGHCO@pet?$DN?$AA@
  0002a	8b 45 08	 mov	 eax, DWORD PTR _str$[ebp]
  0002d	50		 push	 eax
  0002e	e8 00 00 00 00	 call	 ?sunday@@YAPADPAD0@Z	; sunday
  00033	83 c4 08	 add	 esp, 8
  00036	89 45 ec	 mov	 DWORD PTR _temp1$[ebp], eax

; 211  : 	if (temp1){

  00039	83 7d ec 00	 cmp	 DWORD PTR _temp1$[ebp], 0
  0003d	74 1c		 je	 SHORT $LN2@getStrPeti

; 212  : 		index = atoi(temp1 + 4);

  0003f	8b 45 ec	 mov	 eax, DWORD PTR _temp1$[ebp]
  00042	83 c0 04	 add	 eax, 4
  00045	8b f4		 mov	 esi, esp
  00047	50		 push	 eax
  00048	ff 15 00 00 00
	00		 call	 DWORD PTR __imp__atoi
  0004e	83 c4 04	 add	 esp, 4
  00051	3b f4		 cmp	 esi, esp
  00053	e8 00 00 00 00	 call	 __RTC_CheckEsp
  00058	89 45 f8	 mov	 DWORD PTR _index$[ebp], eax
$LN2@getStrPeti:

; 213  : 	}
; 214  : 	return index;

  0005b	8b 45 f8	 mov	 eax, DWORD PTR _index$[ebp]

; 215  : }

  0005e	5f		 pop	 edi
  0005f	5e		 pop	 esi
  00060	5b		 pop	 ebx
  00061	81 c4 d8 00 00
	00		 add	 esp, 216		; 000000d8H
  00067	3b ec		 cmp	 ebp, esp
  00069	e8 00 00 00 00	 call	 __RTC_CheckEsp
  0006e	8b e5		 mov	 esp, ebp
  00070	5d		 pop	 ebp
  00071	c3		 ret	 0
?getStrPetindex@@YAHPAD@Z ENDP				; getStrPetindex
_TEXT	ENDS
; Function compile flags: /Odtp /RTCsu /ZI
; File c:\users\administrator\desktop\????? ??\????? ??\client source code\system\font.cpp
;	COMDAT ?getStrPos@@YA_NPADPAU_CHAT_BUFFER@@@Z
_TEXT	SEGMENT
$T1 = -304						; size = 4
$T2 = -292						; size = 4
$T3 = -280						; size = 4
_count$ = -76						; size = 4
_array$ = -64						; size = 20
_pbuf$ = -36						; size = 4
_len$ = -24						; size = 4
_temp1$ = -12						; size = 4
__$ArrayPad$ = -4					; size = 4
_str$ = 8						; size = 4
_chatbuffer$ = 12					; size = 4
?getStrPos@@YA_NPADPAU_CHAT_BUFFER@@@Z PROC		; getStrPos, COMDAT

; 187  : bool getStrPos(char* str, CHAT_BUFFER *chatbuffer){

  00000	55		 push	 ebp
  00001	8b ec		 mov	 ebp, esp
  00003	81 ec 34 01 00
	00		 sub	 esp, 308		; 00000134H
  00009	53		 push	 ebx
  0000a	56		 push	 esi
  0000b	57		 push	 edi
  0000c	8d bd cc fe ff
	ff		 lea	 edi, DWORD PTR [ebp-308]
  00012	b9 4d 00 00 00	 mov	 ecx, 77			; 0000004dH
  00017	b8 cc cc cc cc	 mov	 eax, -858993460		; ccccccccH
  0001c	f3 ab		 rep stosd
  0001e	a1 00 00 00 00	 mov	 eax, DWORD PTR ___security_cookie
  00023	33 c5		 xor	 eax, ebp
  00025	89 45 fc	 mov	 DWORD PTR __$ArrayPad$[ebp], eax

; 188  : 	//printf("\n%s",str);
; 189  : 	char *temp1 = sunday(str, "pos=");

  00028	68 00 00 00 00	 push	 OFFSET ??_C@_04JPBFJBMP@pos?$DN?$AA@
  0002d	8b 45 08	 mov	 eax, DWORD PTR _str$[ebp]
  00030	50		 push	 eax
  00031	e8 00 00 00 00	 call	 ?sunday@@YAPADPAD0@Z	; sunday
  00036	83 c4 08	 add	 esp, 8
  00039	89 45 f4	 mov	 DWORD PTR _temp1$[ebp], eax

; 190  : 	int len = lstrlen(str);

  0003c	8b f4		 mov	 esi, esp
  0003e	8b 45 08	 mov	 eax, DWORD PTR _str$[ebp]
  00041	50		 push	 eax
  00042	ff 15 00 00 00
	00		 call	 DWORD PTR __imp__lstrlenA@4
  00048	3b f4		 cmp	 esi, esp
  0004a	e8 00 00 00 00	 call	 __RTC_CheckEsp
  0004f	89 45 e8	 mov	 DWORD PTR _len$[ebp], eax

; 191  : 	char *pbuf = new char[len + 1];

  00052	a1 00 00 00 00	 mov	 eax, DWORD PTR ?__LINE__Var@?0??getStrPos@@YA_NPADPAU_CHAT_BUFFER@@@Z@4JA
  00057	83 c0 04	 add	 eax, 4
  0005a	50		 push	 eax
  0005b	68 00 00 00 00	 push	 OFFSET ??_C@_0GC@GJNKFFLF@c?3?2users?2administrator?2desktop?2?$LN@
  00060	6a 01		 push	 1
  00062	8b 4d e8	 mov	 ecx, DWORD PTR _len$[ebp]
  00065	83 c1 01	 add	 ecx, 1
  00068	51		 push	 ecx
  00069	e8 00 00 00 00	 call	 ??_U@YAPAXIHPBDH@Z	; operator new[]
  0006e	83 c4 10	 add	 esp, 16			; 00000010H
  00071	89 85 e8 fe ff
	ff		 mov	 DWORD PTR $T3[ebp], eax
  00077	8b 95 e8 fe ff
	ff		 mov	 edx, DWORD PTR $T3[ebp]
  0007d	89 55 dc	 mov	 DWORD PTR _pbuf$[ebp], edx

; 192  : 	memset(pbuf, 0, len + 1);

  00080	8b 45 e8	 mov	 eax, DWORD PTR _len$[ebp]
  00083	83 c0 01	 add	 eax, 1
  00086	50		 push	 eax
  00087	6a 00		 push	 0
  00089	8b 4d dc	 mov	 ecx, DWORD PTR _pbuf$[ebp]
  0008c	51		 push	 ecx
  0008d	e8 00 00 00 00	 call	 _memset
  00092	83 c4 0c	 add	 esp, 12			; 0000000cH

; 193  : 	memcpy(pbuf, str, len);

  00095	8b 45 e8	 mov	 eax, DWORD PTR _len$[ebp]
  00098	50		 push	 eax
  00099	8b 4d 08	 mov	 ecx, DWORD PTR _str$[ebp]
  0009c	51		 push	 ecx
  0009d	8b 55 dc	 mov	 edx, DWORD PTR _pbuf$[ebp]
  000a0	52		 push	 edx
  000a1	e8 00 00 00 00	 call	 _memcpy
  000a6	83 c4 0c	 add	 esp, 12			; 0000000cH

; 194  : 
; 195  : 	char* array[5];
; 196  : 	int count = split_damage(pbuf + 4, ',', (int*)array, 3);

  000a9	6a 03		 push	 3
  000ab	8d 45 c0	 lea	 eax, DWORD PTR _array$[ebp]
  000ae	50		 push	 eax
  000af	6a 2c		 push	 44			; 0000002cH
  000b1	8b 4d dc	 mov	 ecx, DWORD PTR _pbuf$[ebp]
  000b4	83 c1 04	 add	 ecx, 4
  000b7	51		 push	 ecx
  000b8	e8 00 00 00 00	 call	 ?split_damage@@YAHPADDPAHI@Z ; split_damage
  000bd	83 c4 10	 add	 esp, 16			; 00000010H
  000c0	89 45 b4	 mov	 DWORD PTR _count$[ebp], eax

; 197  : 	if (count != 3){

  000c3	83 7d b4 03	 cmp	 DWORD PTR _count$[ebp], 3
  000c7	74 1f		 je	 SHORT $LN2@getStrPos

; 198  : 		delete[] pbuf;

  000c9	8b 45 dc	 mov	 eax, DWORD PTR _pbuf$[ebp]
  000cc	89 85 dc fe ff
	ff		 mov	 DWORD PTR $T2[ebp], eax
  000d2	8b 8d dc fe ff
	ff		 mov	 ecx, DWORD PTR $T2[ebp]
  000d8	51		 push	 ecx
  000d9	e8 00 00 00 00	 call	 ??_V@YAXPAX@Z		; operator delete[]
  000de	83 c4 04	 add	 esp, 4

; 199  : 		return false;

  000e1	32 c0		 xor	 al, al
  000e3	e9 96 00 00 00	 jmp	 $LN1@getStrPos
$LN2@getStrPos:

; 200  : 	}
; 201  : 	chatbuffer->map = atoi(array[0]+1);  //Ë∑≥Ëøá=Á¨¶Âè∑

  000e8	b8 04 00 00 00	 mov	 eax, 4
  000ed	6b c8 00	 imul	 ecx, eax, 0
  000f0	8b 54 0d c0	 mov	 edx, DWORD PTR _array$[ebp+ecx]
  000f4	83 c2 01	 add	 edx, 1
  000f7	8b f4		 mov	 esi, esp
  000f9	52		 push	 edx
  000fa	ff 15 00 00 00
	00		 call	 DWORD PTR __imp__atoi
  00100	83 c4 04	 add	 esp, 4
  00103	3b f4		 cmp	 esi, esp
  00105	e8 00 00 00 00	 call	 __RTC_CheckEsp
  0010a	8b 4d 0c	 mov	 ecx, DWORD PTR _chatbuffer$[ebp]
  0010d	89 81 18 01 00
	00		 mov	 DWORD PTR [ecx+280], eax

; 202  : 	chatbuffer->posx = atoi(array[1]);

  00113	b8 04 00 00 00	 mov	 eax, 4
  00118	c1 e0 00	 shl	 eax, 0
  0011b	8b f4		 mov	 esi, esp
  0011d	8b 4c 05 c0	 mov	 ecx, DWORD PTR _array$[ebp+eax]
  00121	51		 push	 ecx
  00122	ff 15 00 00 00
	00		 call	 DWORD PTR __imp__atoi
  00128	83 c4 04	 add	 esp, 4
  0012b	3b f4		 cmp	 esi, esp
  0012d	e8 00 00 00 00	 call	 __RTC_CheckEsp
  00132	8b 55 0c	 mov	 edx, DWORD PTR _chatbuffer$[ebp]
  00135	66 89 82 1c 01
	00 00		 mov	 WORD PTR [edx+284], ax

; 203  : 	chatbuffer->posy = atoi(array[2]);

  0013c	b8 04 00 00 00	 mov	 eax, 4
  00141	d1 e0		 shl	 eax, 1
  00143	8b f4		 mov	 esi, esp
  00145	8b 4c 05 c0	 mov	 ecx, DWORD PTR _array$[ebp+eax]
  00149	51		 push	 ecx
  0014a	ff 15 00 00 00
	00		 call	 DWORD PTR __imp__atoi
  00150	83 c4 04	 add	 esp, 4
  00153	3b f4		 cmp	 esi, esp
  00155	e8 00 00 00 00	 call	 __RTC_CheckEsp
  0015a	8b 55 0c	 mov	 edx, DWORD PTR _chatbuffer$[ebp]
  0015d	66 89 82 1e 01
	00 00		 mov	 WORD PTR [edx+286], ax

; 204  : 	delete[] pbuf;

  00164	8b 45 dc	 mov	 eax, DWORD PTR _pbuf$[ebp]
  00167	89 85 d0 fe ff
	ff		 mov	 DWORD PTR $T1[ebp], eax
  0016d	8b 8d d0 fe ff
	ff		 mov	 ecx, DWORD PTR $T1[ebp]
  00173	51		 push	 ecx
  00174	e8 00 00 00 00	 call	 ??_V@YAXPAX@Z		; operator delete[]
  00179	83 c4 04	 add	 esp, 4

; 205  : 	return true;

  0017c	b0 01		 mov	 al, 1
$LN1@getStrPos:

; 206  : }

  0017e	52		 push	 edx
  0017f	8b cd		 mov	 ecx, ebp
  00181	50		 push	 eax
  00182	8d 15 00 00 00
	00		 lea	 edx, DWORD PTR $LN6@getStrPos
  00188	e8 00 00 00 00	 call	 @_RTC_CheckStackVars@8
  0018d	58		 pop	 eax
  0018e	5a		 pop	 edx
  0018f	5f		 pop	 edi
  00190	5e		 pop	 esi
  00191	5b		 pop	 ebx
  00192	8b 4d fc	 mov	 ecx, DWORD PTR __$ArrayPad$[ebp]
  00195	33 cd		 xor	 ecx, ebp
  00197	e8 00 00 00 00	 call	 @__security_check_cookie@4
  0019c	81 c4 34 01 00
	00		 add	 esp, 308		; 00000134H
  001a2	3b ec		 cmp	 ebp, esp
  001a4	e8 00 00 00 00	 call	 __RTC_CheckEsp
  001a9	8b e5		 mov	 esp, ebp
  001ab	5d		 pop	 ebp
  001ac	c3		 ret	 0
  001ad	0f 1f 00	 npad	 3
$LN6@getStrPos:
  001b0	01 00 00 00	 DD	 1
  001b4	00 00 00 00	 DD	 $LN5@getStrPos
$LN5@getStrPos:
  001b8	c0 ff ff ff	 DD	 -64			; ffffffc0H
  001bc	14 00 00 00	 DD	 20			; 00000014H
  001c0	00 00 00 00	 DD	 $LN4@getStrPos
$LN4@getStrPos:
  001c4	61		 DB	 97			; 00000061H
  001c5	72		 DB	 114			; 00000072H
  001c6	72		 DB	 114			; 00000072H
  001c7	61		 DB	 97			; 00000061H
  001c8	79		 DB	 121			; 00000079H
  001c9	00		 DB	 0
?getStrPos@@YA_NPADPAU_CHAT_BUFFER@@@Z ENDP		; getStrPos
_TEXT	ENDS
; Function compile flags: /Odtp /RTCsu /ZI
; File c:\users\administrator\desktop\????? ??\????? ??\client source code\system\font.cpp
;	COMDAT ?getStrStr@@YAXPAD0@Z
_TEXT	SEGMENT
_a$ = -32						; size = 4
_temp2$ = -20						; size = 4
_temp1$ = -8						; size = 4
_strIn$ = 8						; size = 4
_strOut$ = 12						; size = 4
?getStrStr@@YAXPAD0@Z PROC				; getStrStr, COMDAT

; 179  : void getStrStr(char* strIn, char* strOut){

  00000	55		 push	 ebp
  00001	8b ec		 mov	 ebp, esp
  00003	81 ec e4 00 00
	00		 sub	 esp, 228		; 000000e4H
  00009	53		 push	 ebx
  0000a	56		 push	 esi
  0000b	57		 push	 edi
  0000c	8d bd 1c ff ff
	ff		 lea	 edi, DWORD PTR [ebp-228]
  00012	b9 39 00 00 00	 mov	 ecx, 57			; 00000039H
  00017	b8 cc cc cc cc	 mov	 eax, -858993460		; ccccccccH
  0001c	f3 ab		 rep stosd

; 180  : 	char *temp1 = sunday(strIn, "str=");

  0001e	68 00 00 00 00	 push	 OFFSET ??_C@_04FOGPFBLG@str?$DN?$AA@
  00023	8b 45 08	 mov	 eax, DWORD PTR _strIn$[ebp]
  00026	50		 push	 eax
  00027	e8 00 00 00 00	 call	 ?sunday@@YAPADPAD0@Z	; sunday
  0002c	83 c4 08	 add	 esp, 8
  0002f	89 45 f8	 mov	 DWORD PTR _temp1$[ebp], eax

; 181  : 	char* temp2 = sunday(temp1, "}");

  00032	68 00 00 00 00	 push	 OFFSET ??_C@_01CELHOKLL@?$HN?$AA@
  00037	8b 45 f8	 mov	 eax, DWORD PTR _temp1$[ebp]
  0003a	50		 push	 eax
  0003b	e8 00 00 00 00	 call	 ?sunday@@YAPADPAD0@Z	; sunday
  00040	83 c4 08	 add	 esp, 8
  00043	89 45 ec	 mov	 DWORD PTR _temp2$[ebp], eax

; 182  : 	int a = temp2 - temp1 - 4;

  00046	8b 45 ec	 mov	 eax, DWORD PTR _temp2$[ebp]
  00049	2b 45 f8	 sub	 eax, DWORD PTR _temp1$[ebp]
  0004c	83 e8 04	 sub	 eax, 4
  0004f	89 45 e0	 mov	 DWORD PTR _a$[ebp], eax

; 183  : 	memcpy(strOut, temp1+4,a);

  00052	8b 45 e0	 mov	 eax, DWORD PTR _a$[ebp]
  00055	50		 push	 eax
  00056	8b 4d f8	 mov	 ecx, DWORD PTR _temp1$[ebp]
  00059	83 c1 04	 add	 ecx, 4
  0005c	51		 push	 ecx
  0005d	8b 55 0c	 mov	 edx, DWORD PTR _strOut$[ebp]
  00060	52		 push	 edx
  00061	e8 00 00 00 00	 call	 _memcpy
  00066	83 c4 0c	 add	 esp, 12			; 0000000cH

; 184  : 	strOut[a] = 0;

  00069	8b 45 0c	 mov	 eax, DWORD PTR _strOut$[ebp]
  0006c	03 45 e0	 add	 eax, DWORD PTR _a$[ebp]
  0006f	c6 00 00	 mov	 BYTE PTR [eax], 0

; 185  : }

  00072	5f		 pop	 edi
  00073	5e		 pop	 esi
  00074	5b		 pop	 ebx
  00075	81 c4 e4 00 00
	00		 add	 esp, 228		; 000000e4H
  0007b	3b ec		 cmp	 ebp, esp
  0007d	e8 00 00 00 00	 call	 __RTC_CheckEsp
  00082	8b e5		 mov	 esp, ebp
  00084	5d		 pop	 ebp
  00085	c3		 ret	 0
?getStrStr@@YAXPAD0@Z ENDP				; getStrStr
_TEXT	ENDS
; Function compile flags: /Odtp /RTCsu /ZI
; File c:\users\administrator\desktop\????? ??\????? ??\client source code\system\font.cpp
;	COMDAT ?getStrColor@@YAHPAD@Z
_TEXT	SEGMENT
_temp1$ = -20						; size = 4
_color$ = -8						; size = 4
_str$ = 8						; size = 4
?getStrColor@@YAHPAD@Z PROC				; getStrColor, COMDAT

; 169  : int getStrColor(char* str){

  00000	55		 push	 ebp
  00001	8b ec		 mov	 ebp, esp
  00003	81 ec d8 00 00
	00		 sub	 esp, 216		; 000000d8H
  00009	53		 push	 ebx
  0000a	56		 push	 esi
  0000b	57		 push	 edi
  0000c	8d bd 28 ff ff
	ff		 lea	 edi, DWORD PTR [ebp-216]
  00012	b9 36 00 00 00	 mov	 ecx, 54			; 00000036H
  00017	b8 cc cc cc cc	 mov	 eax, -858993460		; ccccccccH
  0001c	f3 ab		 rep stosd

; 170  : 	int color = -1;

  0001e	c7 45 f8 ff ff
	ff ff		 mov	 DWORD PTR _color$[ebp], -1

; 171  : 	char *temp1 = sunday(str, "color=");

  00025	68 00 00 00 00	 push	 OFFSET ??_C@_06CDHFECOP@color?$DN?$AA@
  0002a	8b 45 08	 mov	 eax, DWORD PTR _str$[ebp]
  0002d	50		 push	 eax
  0002e	e8 00 00 00 00	 call	 ?sunday@@YAPADPAD0@Z	; sunday
  00033	83 c4 08	 add	 esp, 8
  00036	89 45 ec	 mov	 DWORD PTR _temp1$[ebp], eax

; 172  : 	if (temp1){

  00039	83 7d ec 00	 cmp	 DWORD PTR _temp1$[ebp], 0
  0003d	74 1c		 je	 SHORT $LN2@getStrColo

; 173  : 		color = atoi(temp1 + 6);

  0003f	8b 45 ec	 mov	 eax, DWORD PTR _temp1$[ebp]
  00042	83 c0 06	 add	 eax, 6
  00045	8b f4		 mov	 esi, esp
  00047	50		 push	 eax
  00048	ff 15 00 00 00
	00		 call	 DWORD PTR __imp__atoi
  0004e	83 c4 04	 add	 esp, 4
  00051	3b f4		 cmp	 esi, esp
  00053	e8 00 00 00 00	 call	 __RTC_CheckEsp
  00058	89 45 f8	 mov	 DWORD PTR _color$[ebp], eax
$LN2@getStrColo:

; 174  : 	}
; 175  : 
; 176  : 	return color;

  0005b	8b 45 f8	 mov	 eax, DWORD PTR _color$[ebp]

; 177  : }

  0005e	5f		 pop	 edi
  0005f	5e		 pop	 esi
  00060	5b		 pop	 ebx
  00061	81 c4 d8 00 00
	00		 add	 esp, 216		; 000000d8H
  00067	3b ec		 cmp	 ebp, esp
  00069	e8 00 00 00 00	 call	 __RTC_CheckEsp
  0006e	8b e5		 mov	 esp, ebp
  00070	5d		 pop	 ebp
  00071	c3		 ret	 0
?getStrColor@@YAHPAD@Z ENDP				; getStrColor
_TEXT	ENDS
; Function compile flags: /Odtp /RTCsu /ZI
; File c:\users\administrator\desktop\????? ??\????? ??\client source code\system\font.cpp
;	COMDAT ?getTextLength@@YAHPAD@Z
_TEXT	SEGMENT
_fontsize$ = -12					; size = 8
_str$ = 8						; size = 4
?getTextLength@@YAHPAD@Z PROC				; getTextLength, COMDAT

; 148  : int getTextLength(char * str){

  00000	55		 push	 ebp
  00001	8b ec		 mov	 ebp, esp
  00003	81 ec d0 00 00
	00		 sub	 esp, 208		; 000000d0H
  00009	53		 push	 ebx
  0000a	56		 push	 esi
  0000b	57		 push	 edi
  0000c	8d bd 30 ff ff
	ff		 lea	 edi, DWORD PTR [ebp-208]
  00012	b9 34 00 00 00	 mov	 ecx, 52			; 00000034H
  00017	b8 cc cc cc cc	 mov	 eax, -858993460		; ccccccccH
  0001c	f3 ab		 rep stosd

; 149  : 	SIZE fontsize;
; 150  : 	GetTextExtentPoint32(FontSizeHdc, (LPCSTR)str, strlen(str), (LPSIZE)&fontsize);

  0001e	8b f4		 mov	 esi, esp
  00020	8d 45 f4	 lea	 eax, DWORD PTR _fontsize$[ebp]
  00023	50		 push	 eax
  00024	8b 4d 08	 mov	 ecx, DWORD PTR _str$[ebp]
  00027	51		 push	 ecx
  00028	e8 00 00 00 00	 call	 _strlen
  0002d	83 c4 04	 add	 esp, 4
  00030	50		 push	 eax
  00031	8b 55 08	 mov	 edx, DWORD PTR _str$[ebp]
  00034	52		 push	 edx
  00035	a1 00 00 00 00	 mov	 eax, DWORD PTR ?FontSizeHdc@@3PAUHDC__@@A ; FontSizeHdc
  0003a	50		 push	 eax
  0003b	ff 15 00 00 00
	00		 call	 DWORD PTR __imp__GetTextExtentPoint32A@16
  00041	3b f4		 cmp	 esi, esp
  00043	e8 00 00 00 00	 call	 __RTC_CheckEsp

; 151  : 	return fontsize.cx;

  00048	8b 45 f4	 mov	 eax, DWORD PTR _fontsize$[ebp]

; 152  : }

  0004b	52		 push	 edx
  0004c	8b cd		 mov	 ecx, ebp
  0004e	50		 push	 eax
  0004f	8d 15 00 00 00
	00		 lea	 edx, DWORD PTR $LN5@getTextLen
  00055	e8 00 00 00 00	 call	 @_RTC_CheckStackVars@8
  0005a	58		 pop	 eax
  0005b	5a		 pop	 edx
  0005c	5f		 pop	 edi
  0005d	5e		 pop	 esi
  0005e	5b		 pop	 ebx
  0005f	81 c4 d0 00 00
	00		 add	 esp, 208		; 000000d0H
  00065	3b ec		 cmp	 ebp, esp
  00067	e8 00 00 00 00	 call	 __RTC_CheckEsp
  0006c	8b e5		 mov	 esp, ebp
  0006e	5d		 pop	 ebp
  0006f	c3		 ret	 0
$LN5@getTextLen:
  00070	01 00 00 00	 DD	 1
  00074	00 00 00 00	 DD	 $LN4@getTextLen
$LN4@getTextLen:
  00078	f4 ff ff ff	 DD	 -12			; fffffff4H
  0007c	08 00 00 00	 DD	 8
  00080	00 00 00 00	 DD	 $LN3@getTextLen
$LN3@getTextLen:
  00084	66		 DB	 102			; 00000066H
  00085	6f		 DB	 111			; 0000006fH
  00086	6e		 DB	 110			; 0000006eH
  00087	74		 DB	 116			; 00000074H
  00088	73		 DB	 115			; 00000073H
  00089	69		 DB	 105			; 00000069H
  0008a	7a		 DB	 122			; 0000007aH
  0008b	65		 DB	 101			; 00000065H
  0008c	00		 DB	 0
?getTextLength@@YAHPAD@Z ENDP				; getTextLength
_TEXT	ENDS
; Function compile flags: /Odtp /RTCsu /ZI
; File c:\users\administrator\desktop\????? ??\????? ??\client source code\system\font.cpp
;	COMDAT ?CreatFontHdc@@YAXXZ
_TEXT	SEGMENT
_font$1 = -148						; size = 4
_strfame$2 = -136					; size = 128
__$ArrayPad$ = -4					; size = 4
?CreatFontHdc@@YAXXZ PROC				; CreatFontHdc, COMDAT

; 106  : void CreatFontHdc(){

  00000	55		 push	 ebp
  00001	8b ec		 mov	 ebp, esp
  00003	81 ec 58 01 00
	00		 sub	 esp, 344		; 00000158H
  00009	53		 push	 ebx
  0000a	56		 push	 esi
  0000b	57		 push	 edi
  0000c	8d bd a8 fe ff
	ff		 lea	 edi, DWORD PTR [ebp-344]
  00012	b9 56 00 00 00	 mov	 ecx, 86			; 00000056H
  00017	b8 cc cc cc cc	 mov	 eax, -858993460		; ccccccccH
  0001c	f3 ab		 rep stosd
  0001e	a1 00 00 00 00	 mov	 eax, DWORD PTR ___security_cookie
  00023	33 c5		 xor	 eax, ebp
  00025	89 45 fc	 mov	 DWORD PTR __$ArrayPad$[ebp], eax

; 107  : 	hScrDC = CreateDC("FontHdc", NULL, NULL, NULL);

  00028	8b f4		 mov	 esi, esp
  0002a	6a 00		 push	 0
  0002c	6a 00		 push	 0
  0002e	6a 00		 push	 0
  00030	68 00 00 00 00	 push	 OFFSET ??_C@_07GJNDNEJP@FontHdc?$AA@
  00035	ff 15 00 00 00
	00		 call	 DWORD PTR __imp__CreateDCA@16
  0003b	3b f4		 cmp	 esi, esp
  0003d	e8 00 00 00 00	 call	 __RTC_CheckEsp
  00042	a3 00 00 00 00	 mov	 DWORD PTR ?hScrDC@@3PAUHDC__@@A, eax ; hScrDC

; 108  : 	FontSizeHdc = CreateCompatibleDC(hScrDC);

  00047	8b f4		 mov	 esi, esp
  00049	a1 00 00 00 00	 mov	 eax, DWORD PTR ?hScrDC@@3PAUHDC__@@A ; hScrDC
  0004e	50		 push	 eax
  0004f	ff 15 00 00 00
	00		 call	 DWORD PTR __imp__CreateCompatibleDC@4
  00055	3b f4		 cmp	 esi, esp
  00057	e8 00 00 00 00	 call	 __RTC_CheckEsp
  0005c	a3 00 00 00 00	 mov	 DWORD PTR ?FontSizeHdc@@3PAUHDC__@@A, eax ; FontSizeHdc

; 109  : 	if (FontSizeHdc) {

  00061	83 3d 00 00 00
	00 00		 cmp	 DWORD PTR ?FontSizeHdc@@3PAUHDC__@@A, 0 ; FontSizeHdc
  00068	0f 84 b5 00 00
	00		 je	 $LN2@CreatFontH

; 110  : #ifdef _NEWFONT_
; 111  : 		extern int ÁºñÁ†Å;
; 112  : 		char strfame[128];
; 113  : 		if (ÁºñÁ†Å == 950) {
; 114  : 			sprintf(strfame, "Microsoft JhengHei");
; 115  : 		}
; 116  : 		else {
; 117  : 			sprintf(strfame, "Microsoft JhengHei");
; 118  : 		}
; 119  : 		HFONT font = CreateFont(FONT_SIZE1, 0, 0, 0, FW_NORMAL, FALSE, FALSE, FALSE, 1,
; 120  : 			0, 0, 0, 17, (LPCTSTR)strfame);
; 121  : #else
; 122  : 		extern int ÁºñÁ†Å;
; 123  : 		char strfame[128];
; 124  : 		HFONT font;
; 125  : 		if (ÁºñÁ†Å == 950) {

  0006e	81 3d 00 00 00
	00 b6 03 00 00	 cmp	 DWORD PTR ?±‡¬Î@@3HA, 950 ; ±‡¬Î, 000003b6H
  00078	75 50		 jne	 SHORT $LN4@CreatFontH

; 126  : 			sprintf(strfame, "Microsoft JhengHei");

  0007a	68 00 00 00 00	 push	 OFFSET ??_C@_0BD@HLAEMJFN@Microsoft?5JhengHei?$AA@
  0007f	8d 85 78 ff ff
	ff		 lea	 eax, DWORD PTR _strfame$2[ebp]
  00085	50		 push	 eax
  00086	e8 00 00 00 00	 call	 _sprintf
  0008b	83 c4 08	 add	 esp, 8

; 127  : 			font = CreateFont(FONT_SIZE2, 0, 0, 0, FW_NORMAL, HANGUL_CHARSET, FALSE, FALSE, 1,

  0008e	8b f4		 mov	 esi, esp
  00090	68 00 00 00 00	 push	 OFFSET ??_C@_04FOGALLPG@?$LB?$LM?$LI?$LC?$AA@
  00095	6a 11		 push	 17			; 00000011H
  00097	6a 00		 push	 0
  00099	6a 00		 push	 0
  0009b	6a 00		 push	 0
  0009d	6a 01		 push	 1
  0009f	6a 00		 push	 0
  000a1	6a 00		 push	 0
  000a3	68 81 00 00 00	 push	 129			; 00000081H
  000a8	68 90 01 00 00	 push	 400			; 00000190H
  000ad	6a 00		 push	 0
  000af	6a 00		 push	 0
  000b1	6a 00		 push	 0
  000b3	6a 13		 push	 19			; 00000013H
  000b5	ff 15 00 00 00
	00		 call	 DWORD PTR __imp__CreateFontA@56
  000bb	3b f4		 cmp	 esi, esp
  000bd	e8 00 00 00 00	 call	 __RTC_CheckEsp
  000c2	89 85 6c ff ff
	ff		 mov	 DWORD PTR _font$1[ebp], eax

; 128  : 				0, 0, 0, 17, TEXT("Íµ¥Î¶º"));
; 129  : 		}
; 130  : 		else {

  000c8	eb 3a		 jmp	 SHORT $LN5@CreatFontH
$LN4@CreatFontH:

; 131  : #ifdef Âä†ËΩΩÊñ∞Â≠ó‰Ωì
; 132  : 			HFONT JL_FONT();
; 133  : 			font = JL_FONT();
; 134  : #else
; 135  : 			//font = CreateFont(FONT_SIZE1, 8, 0, 0, 200, FALSE, FALSE, FALSE, 134,OUT_DEFAULT_PRECIS, CLIP_DEFAULT_PRECIS, DEFAULT_QUALITY, DEFAULT_PITCH | FF_MODERN, (LPCTSTR)"Ê•∑‰Ωì");
; 136  : 			font = CreateFont(FONT_SIZE1, 0, 0, 0, 400, FALSE, FALSE, FALSE, HANGUL_CHARSET,OUT_DEFAULT_PRECIS, CLIP_DEFAULT_PRECIS, DEFAULT_QUALITY, FIXED_PITCH | FF_ROMAN, TEXT("Íµ¥Î¶º"));

  000ca	8b f4		 mov	 esi, esp
  000cc	68 00 00 00 00	 push	 OFFSET ??_C@_04FOGALLPG@?$LB?$LM?$LI?$LC?$AA@
  000d1	6a 11		 push	 17			; 00000011H
  000d3	6a 00		 push	 0
  000d5	6a 00		 push	 0
  000d7	6a 00		 push	 0
  000d9	68 81 00 00 00	 push	 129			; 00000081H
  000de	6a 00		 push	 0
  000e0	6a 00		 push	 0
  000e2	6a 00		 push	 0
  000e4	68 90 01 00 00	 push	 400			; 00000190H
  000e9	6a 00		 push	 0
  000eb	6a 00		 push	 0
  000ed	6a 00		 push	 0
  000ef	6a 0e		 push	 14			; 0000000eH
  000f1	ff 15 00 00 00
	00		 call	 DWORD PTR __imp__CreateFontA@56
  000f7	3b f4		 cmp	 esi, esp
  000f9	e8 00 00 00 00	 call	 __RTC_CheckEsp
  000fe	89 85 6c ff ff
	ff		 mov	 DWORD PTR _font$1[ebp], eax
$LN5@CreatFontH:

; 137  : #endif
; 138  : 		}
; 139  : 
; 140  : 
; 141  : #endif
; 142  : 		SelectObject(FontSizeHdc, font);

  00104	8b f4		 mov	 esi, esp
  00106	8b 85 6c ff ff
	ff		 mov	 eax, DWORD PTR _font$1[ebp]
  0010c	50		 push	 eax
  0010d	8b 0d 00 00 00
	00		 mov	 ecx, DWORD PTR ?FontSizeHdc@@3PAUHDC__@@A ; FontSizeHdc
  00113	51		 push	 ecx
  00114	ff 15 00 00 00
	00		 call	 DWORD PTR __imp__SelectObject@8
  0011a	3b f4		 cmp	 esi, esp
  0011c	e8 00 00 00 00	 call	 __RTC_CheckEsp

; 143  : 	}else {

  00121	eb 27		 jmp	 SHORT $LN6@CreatFontH
$LN2@CreatFontH:

; 144  : 		MessageBoxNew(NULL, "ÂàõÂª∫HDCÈîôËØØÔºÅ", "Ôº≥ÔΩîÔΩèÔΩéÔΩÖÔº°ÔΩáÔΩÖ", NULL);

  00123	6a 00		 push	 0
  00125	68 00 00 00 00	 push	 OFFSET ??_C@_0BB@NLNMPB@?$KD?S?$KD?t?$KD?o?$KD?n?$KD?e?$KD?A?$KD?g?$KD?e?$AA@
  0012a	68 00 00 00 00	 push	 OFFSET ??_C@_0L@GONBBDGE@?$DP?K?oHDC?$DP?$DP?$KD?$KB?$AA@
  0012f	6a 00		 push	 0
  00131	e8 00 00 00 00	 call	 ?MessageBoxNew@@YAHPAUHWND__@@PBD1I@Z ; MessageBoxNew
  00136	83 c4 10	 add	 esp, 16			; 00000010H

; 145  : 		exit(0);

  00139	8b f4		 mov	 esi, esp
  0013b	6a 00		 push	 0
  0013d	ff 15 00 00 00
	00		 call	 DWORD PTR __imp__exit
  00143	3b f4		 cmp	 esi, esp
  00145	e8 00 00 00 00	 call	 __RTC_CheckEsp
$LN6@CreatFontH:

; 146  : 	}
; 147  : }

  0014a	52		 push	 edx
  0014b	8b cd		 mov	 ecx, ebp
  0014d	50		 push	 eax
  0014e	8d 15 00 00 00
	00		 lea	 edx, DWORD PTR $LN9@CreatFontH
  00154	e8 00 00 00 00	 call	 @_RTC_CheckStackVars@8
  00159	58		 pop	 eax
  0015a	5a		 pop	 edx
  0015b	5f		 pop	 edi
  0015c	5e		 pop	 esi
  0015d	5b		 pop	 ebx
  0015e	8b 4d fc	 mov	 ecx, DWORD PTR __$ArrayPad$[ebp]
  00161	33 cd		 xor	 ecx, ebp
  00163	e8 00 00 00 00	 call	 @__security_check_cookie@4
  00168	81 c4 58 01 00
	00		 add	 esp, 344		; 00000158H
  0016e	3b ec		 cmp	 ebp, esp
  00170	e8 00 00 00 00	 call	 __RTC_CheckEsp
  00175	8b e5		 mov	 esp, ebp
  00177	5d		 pop	 ebp
  00178	c3		 ret	 0
  00179	0f 1f 00	 npad	 3
$LN9@CreatFontH:
  0017c	01 00 00 00	 DD	 1
  00180	00 00 00 00	 DD	 $LN8@CreatFontH
$LN8@CreatFontH:
  00184	78 ff ff ff	 DD	 -136			; ffffff78H
  00188	80 00 00 00	 DD	 128			; 00000080H
  0018c	00 00 00 00	 DD	 $LN7@CreatFontH
$LN7@CreatFontH:
  00190	73		 DB	 115			; 00000073H
  00191	74		 DB	 116			; 00000074H
  00192	72		 DB	 114			; 00000072H
  00193	66		 DB	 102			; 00000066H
  00194	61		 DB	 97			; 00000061H
  00195	6d		 DB	 109			; 0000006dH
  00196	65		 DB	 101			; 00000065H
  00197	00		 DB	 0
?CreatFontHdc@@YAXXZ ENDP				; CreatFontHdc
_TEXT	ENDS
; Function compile flags: /Odtp /RTCsu /ZI
; File c:\users\administrator\desktop\????? ??\????? ??\client source code\system\font.cpp
;	COMDAT ?StockFontBuffer3@@YAHPAUSTR_BUFFER@@@Z
_TEXT	SEGMENT
_splitStr$ = -324					; size = 256
_SetCursor$ = -60					; size = 4
_cursor$ = -48						; size = 4
_bakSplitPoint$ = -36					; size = 4
_splitPoint$ = -24					; size = 4
_lineDist$ = -12					; size = 4
__$ArrayPad$ = -4					; size = 4
_strBuffer$ = 8						; size = 4
?StockFontBuffer3@@YAHPAUSTR_BUFFER@@@Z PROC		; StockFontBuffer3, COMDAT

; 560  : int StockFontBuffer3(STR_BUFFER *strBuffer){

  00000	55		 push	 ebp
  00001	8b ec		 mov	 ebp, esp
  00003	81 ec 08 02 00
	00		 sub	 esp, 520		; 00000208H
  00009	53		 push	 ebx
  0000a	56		 push	 esi
  0000b	57		 push	 edi
  0000c	8d bd f8 fd ff
	ff		 lea	 edi, DWORD PTR [ebp-520]
  00012	b9 82 00 00 00	 mov	 ecx, 130		; 00000082H
  00017	b8 cc cc cc cc	 mov	 eax, -858993460		; ccccccccH
  0001c	f3 ab		 rep stosd
  0001e	a1 00 00 00 00	 mov	 eax, DWORD PTR ___security_cookie
  00023	33 c5		 xor	 eax, ebp
  00025	89 45 fc	 mov	 DWORD PTR __$ArrayPad$[ebp], eax

; 561  : 	int lineDist = 0; //Ë°åË∑ù

  00028	c7 45 f4 00 00
	00 00		 mov	 DWORD PTR _lineDist$[ebp], 0

; 562  : 	int splitPoint = 0;

  0002f	c7 45 e8 00 00
	00 00		 mov	 DWORD PTR _splitPoint$[ebp], 0

; 563  : 	int bakSplitPoint, cursor;
; 564  : 	BOOL SetCursor = FALSE;

  00036	c7 45 c4 00 00
	00 00		 mov	 DWORD PTR _SetCursor$[ebp], 0

; 565  : 	char splitStr[256];
; 566  : 
; 567  : 	cursor = strBuffer->cursor;

  0003d	8b 45 08	 mov	 eax, DWORD PTR _strBuffer$[ebp]
  00040	0f b6 88 09 01
	00 00		 movzx	 ecx, BYTE PTR [eax+265]
  00047	89 4d d0	 mov	 DWORD PTR _cursor$[ebp], ecx
$LN2@StockFontB:

; 568  : 	//ÈúÄË¶ÅÂàÜË°åÊó∂
; 569  : 	while (strlen(strBuffer->buffer + splitPoint) >= (unsigned)strBuffer->lineLen - 1) {

  0004a	8b 45 08	 mov	 eax, DWORD PTR _strBuffer$[ebp]
  0004d	03 45 e8	 add	 eax, DWORD PTR _splitPoint$[ebp]
  00050	50		 push	 eax
  00051	e8 00 00 00 00	 call	 _strlen
  00056	83 c4 04	 add	 esp, 4
  00059	8b 4d 08	 mov	 ecx, DWORD PTR _strBuffer$[ebp]
  0005c	0f b6 91 05 01
	00 00		 movzx	 edx, BYTE PTR [ecx+261]
  00063	83 ea 01	 sub	 edx, 1
  00066	3b c2		 cmp	 eax, edx
  00068	0f 82 d3 00 00
	00		 jb	 $LN3@StockFontB

; 570  : 		bakSplitPoint = splitPoint;

  0006e	8b 45 e8	 mov	 eax, DWORD PTR _splitPoint$[ebp]
  00071	89 45 dc	 mov	 DWORD PTR _bakSplitPoint$[ebp], eax

; 571  : 		strcpy(splitStr, strBuffer->buffer + splitPoint);  //‰∏Ä‰∏™Â≠ó

  00074	8b 45 08	 mov	 eax, DWORD PTR _strBuffer$[ebp]
  00077	03 45 e8	 add	 eax, DWORD PTR _splitPoint$[ebp]
  0007a	50		 push	 eax
  0007b	8d 8d bc fe ff
	ff		 lea	 ecx, DWORD PTR _splitStr$[ebp]
  00081	51		 push	 ecx
  00082	e8 00 00 00 00	 call	 _strcpy
  00087	83 c4 08	 add	 esp, 8

; 572  : 		*(splitStr + strBuffer->lineLen) = NULL;  //ÊåáÂêëÊúÄÂêé

  0008a	8b 45 08	 mov	 eax, DWORD PTR _strBuffer$[ebp]
  0008d	0f b6 88 05 01
	00 00		 movzx	 ecx, BYTE PTR [eax+261]
  00094	c6 84 0d bc fe
	ff ff 00	 mov	 BYTE PTR _splitStr$[ebp+ecx], 0

; 573  : 		splitPoint = strBuffer->lineLen + splitPoint;

  0009c	8b 45 08	 mov	 eax, DWORD PTR _strBuffer$[ebp]
  0009f	0f b6 88 05 01
	00 00		 movzx	 ecx, BYTE PTR [eax+261]
  000a6	03 4d e8	 add	 ecx, DWORD PTR _splitPoint$[ebp]
  000a9	89 4d e8	 mov	 DWORD PTR _splitPoint$[ebp], ecx

; 574  : 		StockFontBuffer(strBuffer->x, strBuffer->y, strBuffer->fontPrio, 0, splitStr, 0);

  000ac	6a 00		 push	 0
  000ae	8d 85 bc fe ff
	ff		 lea	 eax, DWORD PTR _splitStr$[ebp]
  000b4	50		 push	 eax
  000b5	6a 00		 push	 0
  000b7	8b 4d 08	 mov	 ecx, DWORD PTR _strBuffer$[ebp]
  000ba	0f b6 91 1c 01
	00 00		 movzx	 edx, BYTE PTR [ecx+284]
  000c1	52		 push	 edx
  000c2	8b 45 08	 mov	 eax, DWORD PTR _strBuffer$[ebp]
  000c5	8b 88 10 01 00
	00		 mov	 ecx, DWORD PTR [eax+272]
  000cb	51		 push	 ecx
  000cc	8b 55 08	 mov	 edx, DWORD PTR _strBuffer$[ebp]
  000cf	8b 82 0c 01 00
	00		 mov	 eax, DWORD PTR [edx+268]
  000d5	50		 push	 eax
  000d6	e8 00 00 00 00	 call	 ?StockFontBuffer@@YAHHHDHPADH@Z ; StockFontBuffer
  000db	83 c4 18	 add	 esp, 24			; 00000018H

; 575  : 
; 576  : 		if (cursor >= bakSplitPoint && cursor<splitPoint) {

  000de	8b 45 d0	 mov	 eax, DWORD PTR _cursor$[ebp]
  000e1	3b 45 dc	 cmp	 eax, DWORD PTR _bakSplitPoint$[ebp]
  000e4	7c 3f		 jl	 SHORT $LN4@StockFontB
  000e6	8b 45 d0	 mov	 eax, DWORD PTR _cursor$[ebp]
  000e9	3b 45 e8	 cmp	 eax, DWORD PTR _splitPoint$[ebp]
  000ec	7d 37		 jge	 SHORT $LN4@StockFontB

; 577  : 			strBuffer->imeX = strBuffer->x + (cursor - bakSplitPoint)*(FONT_SIZE >> 1);

  000ee	8b 45 d0	 mov	 eax, DWORD PTR _cursor$[ebp]
  000f1	2b 45 dc	 sub	 eax, DWORD PTR _bakSplitPoint$[ebp]
  000f4	6b c8 07	 imul	 ecx, eax, 7
  000f7	8b 55 08	 mov	 edx, DWORD PTR _strBuffer$[ebp]
  000fa	03 8a 0c 01 00
	00		 add	 ecx, DWORD PTR [edx+268]
  00100	8b 45 08	 mov	 eax, DWORD PTR _strBuffer$[ebp]
  00103	89 88 14 01 00
	00		 mov	 DWORD PTR [eax+276], ecx

; 578  : 			strBuffer->imeY = strBuffer->y + lineDist;

  00109	8b 45 08	 mov	 eax, DWORD PTR _strBuffer$[ebp]
  0010c	8b 88 10 01 00
	00		 mov	 ecx, DWORD PTR [eax+272]
  00112	03 4d f4	 add	 ecx, DWORD PTR _lineDist$[ebp]
  00115	8b 55 08	 mov	 edx, DWORD PTR _strBuffer$[ebp]
  00118	89 8a 18 01 00
	00		 mov	 DWORD PTR [edx+280], ecx

; 579  : 			SetCursor = TRUE;

  0011e	c7 45 c4 01 00
	00 00		 mov	 DWORD PTR _SetCursor$[ebp], 1
$LN4@StockFontB:

; 580  : 		}
; 581  : 		lineDist += strBuffer->lineDist;

  00125	8b 45 08	 mov	 eax, DWORD PTR _strBuffer$[ebp]
  00128	0f b6 88 06 01
	00 00		 movzx	 ecx, BYTE PTR [eax+262]
  0012f	03 4d f4	 add	 ecx, DWORD PTR _lineDist$[ebp]
  00132	89 4d f4	 mov	 DWORD PTR _lineDist$[ebp], ecx

; 582  : 		return 1;

  00135	b8 01 00 00 00	 mov	 eax, 1
  0013a	eb 79		 jmp	 SHORT $LN1@StockFontB

; 583  : 	}

  0013c	e9 09 ff ff ff	 jmp	 $LN2@StockFontB
$LN3@StockFontB:

; 584  : 	if (!SetCursor) {  // Ê∏∏Ê†á‰∏çÈúÄÊç¢Ë°å

  00141	83 7d c4 00	 cmp	 DWORD PTR _SetCursor$[ebp], 0
  00145	75 37		 jne	 SHORT $LN5@StockFontB

; 585  : 		strBuffer->imeX = strBuffer->x + (strBuffer->cursor - splitPoint)*(FONT_SIZE >> 1);

  00147	8b 45 08	 mov	 eax, DWORD PTR _strBuffer$[ebp]
  0014a	0f b6 88 09 01
	00 00		 movzx	 ecx, BYTE PTR [eax+265]
  00151	2b 4d e8	 sub	 ecx, DWORD PTR _splitPoint$[ebp]
  00154	6b d1 07	 imul	 edx, ecx, 7
  00157	8b 45 08	 mov	 eax, DWORD PTR _strBuffer$[ebp]
  0015a	03 90 0c 01 00
	00		 add	 edx, DWORD PTR [eax+268]
  00160	8b 4d 08	 mov	 ecx, DWORD PTR _strBuffer$[ebp]
  00163	89 91 14 01 00
	00		 mov	 DWORD PTR [ecx+276], edx

; 586  : 		strBuffer->imeY = strBuffer->y + lineDist;

  00169	8b 45 08	 mov	 eax, DWORD PTR _strBuffer$[ebp]
  0016c	8b 88 10 01 00
	00		 mov	 ecx, DWORD PTR [eax+272]
  00172	03 4d f4	 add	 ecx, DWORD PTR _lineDist$[ebp]
  00175	8b 55 08	 mov	 edx, DWORD PTR _strBuffer$[ebp]
  00178	89 8a 18 01 00
	00		 mov	 DWORD PTR [edx+280], ecx
$LN5@StockFontB:

; 587  : 	}
; 588  : 	StockFontBuffer(strBuffer->x, strBuffer->y + lineDist, strBuffer->fontPrio, 0, strBuffer->buffer + splitPoint, 0);

  0017e	6a 00		 push	 0
  00180	8b 45 08	 mov	 eax, DWORD PTR _strBuffer$[ebp]
  00183	03 45 e8	 add	 eax, DWORD PTR _splitPoint$[ebp]
  00186	50		 push	 eax
  00187	6a 00		 push	 0
  00189	8b 4d 08	 mov	 ecx, DWORD PTR _strBuffer$[ebp]
  0018c	0f b6 91 1c 01
	00 00		 movzx	 edx, BYTE PTR [ecx+284]
  00193	52		 push	 edx
  00194	8b 45 08	 mov	 eax, DWORD PTR _strBuffer$[ebp]
  00197	8b 88 10 01 00
	00		 mov	 ecx, DWORD PTR [eax+272]
  0019d	03 4d f4	 add	 ecx, DWORD PTR _lineDist$[ebp]
  001a0	51		 push	 ecx
  001a1	8b 55 08	 mov	 edx, DWORD PTR _strBuffer$[ebp]
  001a4	8b 82 0c 01 00
	00		 mov	 eax, DWORD PTR [edx+268]
  001aa	50		 push	 eax
  001ab	e8 00 00 00 00	 call	 ?StockFontBuffer@@YAHHHDHPADH@Z ; StockFontBuffer
  001b0	83 c4 18	 add	 esp, 24			; 00000018H

; 589  : 	return 0;

  001b3	33 c0		 xor	 eax, eax
$LN1@StockFontB:

; 590  : }

  001b5	52		 push	 edx
  001b6	8b cd		 mov	 ecx, ebp
  001b8	50		 push	 eax
  001b9	8d 15 00 00 00
	00		 lea	 edx, DWORD PTR $LN9@StockFontB
  001bf	e8 00 00 00 00	 call	 @_RTC_CheckStackVars@8
  001c4	58		 pop	 eax
  001c5	5a		 pop	 edx
  001c6	5f		 pop	 edi
  001c7	5e		 pop	 esi
  001c8	5b		 pop	 ebx
  001c9	8b 4d fc	 mov	 ecx, DWORD PTR __$ArrayPad$[ebp]
  001cc	33 cd		 xor	 ecx, ebp
  001ce	e8 00 00 00 00	 call	 @__security_check_cookie@4
  001d3	81 c4 08 02 00
	00		 add	 esp, 520		; 00000208H
  001d9	3b ec		 cmp	 ebp, esp
  001db	e8 00 00 00 00	 call	 __RTC_CheckEsp
  001e0	8b e5		 mov	 esp, ebp
  001e2	5d		 pop	 ebp
  001e3	c3		 ret	 0
$LN9@StockFontB:
  001e4	01 00 00 00	 DD	 1
  001e8	00 00 00 00	 DD	 $LN8@StockFontB
$LN8@StockFontB:
  001ec	bc fe ff ff	 DD	 -324			; fffffebcH
  001f0	00 01 00 00	 DD	 256			; 00000100H
  001f4	00 00 00 00	 DD	 $LN7@StockFontB
$LN7@StockFontB:
  001f8	73		 DB	 115			; 00000073H
  001f9	70		 DB	 112			; 00000070H
  001fa	6c		 DB	 108			; 0000006cH
  001fb	69		 DB	 105			; 00000069H
  001fc	74		 DB	 116			; 00000074H
  001fd	53		 DB	 83			; 00000053H
  001fe	74		 DB	 116			; 00000074H
  001ff	72		 DB	 114			; 00000072H
  00200	00		 DB	 0
?StockFontBuffer3@@YAHPAUSTR_BUFFER@@@Z ENDP		; StockFontBuffer3
_TEXT	ENDS
; Function compile flags: /Odtp /RTCsu /ZI
; File c:\users\administrator\desktop\????? ??\????? ??\client source code\system\font.cpp
;	COMDAT ?StockFontBuffer2@@YAXPAUSTR_BUFFER@@@Z
_TEXT	SEGMENT
_i$1 = -336						; size = 4
_splitStr$ = -324					; size = 256
_SetCursor$ = -60					; size = 4
_cursor$ = -48						; size = 4
_bakSplitPoint$ = -36					; size = 4
_splitPoint$ = -24					; size = 4
_lineDist$ = -12					; size = 4
__$ArrayPad$ = -4					; size = 4
_strBuffer$ = 8						; size = 4
?StockFontBuffer2@@YAXPAUSTR_BUFFER@@@Z PROC		; StockFontBuffer2, COMDAT

; 461  : void StockFontBuffer2(STR_BUFFER *strBuffer){

  00000	55		 push	 ebp
  00001	8b ec		 mov	 ebp, esp
  00003	81 ec 14 02 00
	00		 sub	 esp, 532		; 00000214H
  00009	53		 push	 ebx
  0000a	56		 push	 esi
  0000b	57		 push	 edi
  0000c	8d bd ec fd ff
	ff		 lea	 edi, DWORD PTR [ebp-532]
  00012	b9 85 00 00 00	 mov	 ecx, 133		; 00000085H
  00017	b8 cc cc cc cc	 mov	 eax, -858993460		; ccccccccH
  0001c	f3 ab		 rep stosd
  0001e	a1 00 00 00 00	 mov	 eax, DWORD PTR ___security_cookie
  00023	33 c5		 xor	 eax, ebp
  00025	89 45 fc	 mov	 DWORD PTR __$ArrayPad$[ebp], eax

; 462  : 	int lineDist = 0; //Ë°åË∑ù

  00028	c7 45 f4 00 00
	00 00		 mov	 DWORD PTR _lineDist$[ebp], 0

; 463  : 	int splitPoint = 0;

  0002f	c7 45 e8 00 00
	00 00		 mov	 DWORD PTR _splitPoint$[ebp], 0

; 464  : 	int bakSplitPoint, cursor;
; 465  : 	BOOL SetCursor = FALSE;

  00036	c7 45 c4 00 00
	00 00		 mov	 DWORD PTR _SetCursor$[ebp], 0

; 466  : 	char splitStr[256];
; 467  : 	if (FontCnt >= FONT_BUFFER_SIZE) {

  0003d	81 3d 00 00 00
	00 00 04 00 00	 cmp	 DWORD PTR ?FontCnt@@3HA, 1024 ; FontCnt, 00000400H
  00047	7c 12		 jl	 SHORT $LN7@StockFontB

; 468  : 		strBuffer->hitFontNo = -2;

  00049	8b 45 08	 mov	 eax, DWORD PTR _strBuffer$[ebp]
  0004c	c7 80 24 01 00
	00 fe ff ff ff	 mov	 DWORD PTR [eax+292], -2	; fffffffeH

; 469  : 		return;

  00056	e9 6a 03 00 00	 jmp	 $LN1@StockFontB
$LN7@StockFontB:

; 470  : 	}
; 471  : 	//ÈúÄË¶ÅÂàÜË°åÊó∂
; 472  : 	if (strBuffer->lineLen != 0) {

  0005b	8b 45 08	 mov	 eax, DWORD PTR _strBuffer$[ebp]
  0005e	0f b6 88 05 01
	00 00		 movzx	 ecx, BYTE PTR [eax+261]
  00065	85 c9		 test	 ecx, ecx
  00067	0f 84 bb 01 00
	00		 je	 $LN8@StockFontB

; 473  : 		cursor = strBuffer->cursor;

  0006d	8b 45 08	 mov	 eax, DWORD PTR _strBuffer$[ebp]
  00070	0f b6 88 09 01
	00 00		 movzx	 ecx, BYTE PTR [eax+265]
  00077	89 4d d0	 mov	 DWORD PTR _cursor$[ebp], ecx
$LN2@StockFontB:

; 474  : 		while (strlen(strBuffer->buffer + splitPoint) >= strBuffer->lineLen) {

  0007a	8b 45 08	 mov	 eax, DWORD PTR _strBuffer$[ebp]
  0007d	03 45 e8	 add	 eax, DWORD PTR _splitPoint$[ebp]
  00080	50		 push	 eax
  00081	e8 00 00 00 00	 call	 _strlen
  00086	83 c4 04	 add	 esp, 4
  00089	8b 4d 08	 mov	 ecx, DWORD PTR _strBuffer$[ebp]
  0008c	0f b6 91 05 01
	00 00		 movzx	 edx, BYTE PTR [ecx+261]
  00093	3b c2		 cmp	 eax, edx
  00095	0f 82 16 01 00
	00		 jb	 $LN3@StockFontB

; 475  : 			bakSplitPoint = splitPoint;

  0009b	8b 45 e8	 mov	 eax, DWORD PTR _splitPoint$[ebp]
  0009e	89 45 dc	 mov	 DWORD PTR _bakSplitPoint$[ebp], eax

; 476  : 			//copy‰∏ÄË°åÁöÑÂ≠ó‰∏≤
; 477  : 			strncpy_s(splitStr, strBuffer->buffer + splitPoint, strBuffer->lineLen);

  000a1	8b 45 08	 mov	 eax, DWORD PTR _strBuffer$[ebp]
  000a4	0f b6 88 05 01
	00 00		 movzx	 ecx, BYTE PTR [eax+261]
  000ab	51		 push	 ecx
  000ac	8b 55 08	 mov	 edx, DWORD PTR _strBuffer$[ebp]
  000af	03 55 e8	 add	 edx, DWORD PTR _splitPoint$[ebp]
  000b2	52		 push	 edx
  000b3	8d 85 bc fe ff
	ff		 lea	 eax, DWORD PTR _splitStr$[ebp]
  000b9	50		 push	 eax
  000ba	e8 00 00 00 00	 call	 ??$strncpy_s@$0BAA@@@YAHAAY0BAA@DPBDI@Z ; strncpy_s<256>
  000bf	83 c4 0c	 add	 esp, 12			; 0000000cH

; 478  : 			*(splitStr + strBuffer->lineLen) = NULL;

  000c2	8b 45 08	 mov	 eax, DWORD PTR _strBuffer$[ebp]
  000c5	0f b6 88 05 01
	00 00		 movzx	 ecx, BYTE PTR [eax+261]
  000cc	c6 84 0d bc fe
	ff ff 00	 mov	 BYTE PTR _splitStr$[ebp+ecx], 0

; 479  : 			if (GetStrLastByte(splitStr) == 3) {

  000d4	8d 85 bc fe ff
	ff		 lea	 eax, DWORD PTR _splitStr$[ebp]
  000da	50		 push	 eax
  000db	e8 00 00 00 00	 call	 ?GetStrLastByte@@YAHPAD@Z ; GetStrLastByte
  000e0	83 c4 04	 add	 esp, 4
  000e3	83 f8 03	 cmp	 eax, 3
  000e6	75 28		 jne	 SHORT $LN10@StockFontB

; 480  : 				//ÂàÜÂâ≤Âà∞‰∏≠DBCSÊó∂ÔºåÈÄÄÂõû‰∏Ä‰∏™byte
; 481  : 				splitPoint = strBuffer->lineLen - 1 + splitPoint;

  000e8	8b 45 08	 mov	 eax, DWORD PTR _strBuffer$[ebp]
  000eb	0f b6 88 05 01
	00 00		 movzx	 ecx, BYTE PTR [eax+261]
  000f2	8b 55 e8	 mov	 edx, DWORD PTR _splitPoint$[ebp]
  000f5	8d 44 11 ff	 lea	 eax, DWORD PTR [ecx+edx-1]
  000f9	89 45 e8	 mov	 DWORD PTR _splitPoint$[ebp], eax

; 482  : 				*(splitStr + strBuffer->lineLen - 1) = NULL;

  000fc	8b 45 08	 mov	 eax, DWORD PTR _strBuffer$[ebp]
  000ff	0f b6 88 05 01
	00 00		 movzx	 ecx, BYTE PTR [eax+261]
  00106	c6 84 0d bb fe
	ff ff 00	 mov	 BYTE PTR _splitStr$[ebp+ecx-1], 0

; 483  : 			}
; 484  : 			else

  0010e	eb 10		 jmp	 SHORT $LN11@StockFontB
$LN10@StockFontB:

; 485  : 				splitPoint = strBuffer->lineLen + splitPoint;

  00110	8b 45 08	 mov	 eax, DWORD PTR _strBuffer$[ebp]
  00113	0f b6 88 05 01
	00 00		 movzx	 ecx, BYTE PTR [eax+261]
  0011a	03 4d e8	 add	 ecx, DWORD PTR _splitPoint$[ebp]
  0011d	89 4d e8	 mov	 DWORD PTR _splitPoint$[ebp], ecx
$LN11@StockFontB:

; 486  : 			StockFontBuffer(strBuffer->x, strBuffer->y + lineDist, strBuffer->fontPrio, 0, splitStr, 0);

  00120	6a 00		 push	 0
  00122	8d 85 bc fe ff
	ff		 lea	 eax, DWORD PTR _splitStr$[ebp]
  00128	50		 push	 eax
  00129	6a 00		 push	 0
  0012b	8b 4d 08	 mov	 ecx, DWORD PTR _strBuffer$[ebp]
  0012e	0f b6 91 1c 01
	00 00		 movzx	 edx, BYTE PTR [ecx+284]
  00135	52		 push	 edx
  00136	8b 45 08	 mov	 eax, DWORD PTR _strBuffer$[ebp]
  00139	8b 88 10 01 00
	00		 mov	 ecx, DWORD PTR [eax+272]
  0013f	03 4d f4	 add	 ecx, DWORD PTR _lineDist$[ebp]
  00142	51		 push	 ecx
  00143	8b 55 08	 mov	 edx, DWORD PTR _strBuffer$[ebp]
  00146	8b 82 0c 01 00
	00		 mov	 eax, DWORD PTR [edx+268]
  0014c	50		 push	 eax
  0014d	e8 00 00 00 00	 call	 ?StockFontBuffer@@YAHHHDHPADH@Z ; StockFontBuffer
  00152	83 c4 18	 add	 esp, 24			; 00000018H

; 487  : 			if (cursor >= bakSplitPoint && cursor<splitPoint) {

  00155	8b 45 d0	 mov	 eax, DWORD PTR _cursor$[ebp]
  00158	3b 45 dc	 cmp	 eax, DWORD PTR _bakSplitPoint$[ebp]
  0015b	7c 3f		 jl	 SHORT $LN12@StockFontB
  0015d	8b 45 d0	 mov	 eax, DWORD PTR _cursor$[ebp]
  00160	3b 45 e8	 cmp	 eax, DWORD PTR _splitPoint$[ebp]
  00163	7d 37		 jge	 SHORT $LN12@StockFontB

; 488  : 				strBuffer->imeX = strBuffer->x + (cursor - bakSplitPoint)*(FONT_SIZE >> 1);

  00165	8b 45 d0	 mov	 eax, DWORD PTR _cursor$[ebp]
  00168	2b 45 dc	 sub	 eax, DWORD PTR _bakSplitPoint$[ebp]
  0016b	6b c8 07	 imul	 ecx, eax, 7
  0016e	8b 55 08	 mov	 edx, DWORD PTR _strBuffer$[ebp]
  00171	03 8a 0c 01 00
	00		 add	 ecx, DWORD PTR [edx+268]
  00177	8b 45 08	 mov	 eax, DWORD PTR _strBuffer$[ebp]
  0017a	89 88 14 01 00
	00		 mov	 DWORD PTR [eax+276], ecx

; 489  : 				strBuffer->imeY = strBuffer->y + lineDist;

  00180	8b 45 08	 mov	 eax, DWORD PTR _strBuffer$[ebp]
  00183	8b 88 10 01 00
	00		 mov	 ecx, DWORD PTR [eax+272]
  00189	03 4d f4	 add	 ecx, DWORD PTR _lineDist$[ebp]
  0018c	8b 55 08	 mov	 edx, DWORD PTR _strBuffer$[ebp]
  0018f	89 8a 18 01 00
	00		 mov	 DWORD PTR [edx+280], ecx

; 490  : 				SetCursor = TRUE;

  00195	c7 45 c4 01 00
	00 00		 mov	 DWORD PTR _SetCursor$[ebp], 1
$LN12@StockFontB:

; 491  : 			}
; 492  : 			lineDist += strBuffer->lineDist;

  0019c	8b 45 08	 mov	 eax, DWORD PTR _strBuffer$[ebp]
  0019f	0f b6 88 06 01
	00 00		 movzx	 ecx, BYTE PTR [eax+262]
  001a6	03 4d f4	 add	 ecx, DWORD PTR _lineDist$[ebp]
  001a9	89 4d f4	 mov	 DWORD PTR _lineDist$[ebp], ecx

; 493  : 		}

  001ac	e9 c9 fe ff ff	 jmp	 $LN2@StockFontB
$LN3@StockFontB:

; 494  : 		if (!SetCursor) {

  001b1	83 7d c4 00	 cmp	 DWORD PTR _SetCursor$[ebp], 0
  001b5	75 37		 jne	 SHORT $LN13@StockFontB

; 495  : 			strBuffer->imeX = strBuffer->x + (strBuffer->cursor - splitPoint)*(FONT_SIZE >> 1);

  001b7	8b 45 08	 mov	 eax, DWORD PTR _strBuffer$[ebp]
  001ba	0f b6 88 09 01
	00 00		 movzx	 ecx, BYTE PTR [eax+265]
  001c1	2b 4d e8	 sub	 ecx, DWORD PTR _splitPoint$[ebp]
  001c4	6b d1 07	 imul	 edx, ecx, 7
  001c7	8b 45 08	 mov	 eax, DWORD PTR _strBuffer$[ebp]
  001ca	03 90 0c 01 00
	00		 add	 edx, DWORD PTR [eax+268]
  001d0	8b 4d 08	 mov	 ecx, DWORD PTR _strBuffer$[ebp]
  001d3	89 91 14 01 00
	00		 mov	 DWORD PTR [ecx+276], edx

; 496  : 			strBuffer->imeY = strBuffer->y + lineDist;

  001d9	8b 45 08	 mov	 eax, DWORD PTR _strBuffer$[ebp]
  001dc	8b 88 10 01 00
	00		 mov	 ecx, DWORD PTR [eax+272]
  001e2	03 4d f4	 add	 ecx, DWORD PTR _lineDist$[ebp]
  001e5	8b 55 08	 mov	 edx, DWORD PTR _strBuffer$[ebp]
  001e8	89 8a 18 01 00
	00		 mov	 DWORD PTR [edx+280], ecx
$LN13@StockFontB:

; 497  : 		}
; 498  : 		StockFontBuffer(strBuffer->x, strBuffer->y + lineDist, strBuffer->fontPrio, 0, strBuffer->buffer + splitPoint, 0);

  001ee	6a 00		 push	 0
  001f0	8b 45 08	 mov	 eax, DWORD PTR _strBuffer$[ebp]
  001f3	03 45 e8	 add	 eax, DWORD PTR _splitPoint$[ebp]
  001f6	50		 push	 eax
  001f7	6a 00		 push	 0
  001f9	8b 4d 08	 mov	 ecx, DWORD PTR _strBuffer$[ebp]
  001fc	0f b6 91 1c 01
	00 00		 movzx	 edx, BYTE PTR [ecx+284]
  00203	52		 push	 edx
  00204	8b 45 08	 mov	 eax, DWORD PTR _strBuffer$[ebp]
  00207	8b 88 10 01 00
	00		 mov	 ecx, DWORD PTR [eax+272]
  0020d	03 4d f4	 add	 ecx, DWORD PTR _lineDist$[ebp]
  00210	51		 push	 ecx
  00211	8b 55 08	 mov	 edx, DWORD PTR _strBuffer$[ebp]
  00214	8b 82 0c 01 00
	00		 mov	 eax, DWORD PTR [edx+268]
  0021a	50		 push	 eax
  0021b	e8 00 00 00 00	 call	 ?StockFontBuffer@@YAHHHDHPADH@Z ; StockFontBuffer
  00220	83 c4 18	 add	 esp, 24			; 00000018H

; 499  : 	}else {

  00223	e9 9d 01 00 00	 jmp	 $LN1@StockFontB
$LN8@StockFontB:

; 500  : 		FontBuffer[FontCnt].x = strBuffer->x;

  00228	69 05 00 00 00
	00 10 01 00 00	 imul	 eax, DWORD PTR ?FontCnt@@3HA, 272 ; FontCnt
  00232	8b 4d 08	 mov	 ecx, DWORD PTR _strBuffer$[ebp]
  00235	66 8b 91 0c 01
	00 00		 mov	 dx, WORD PTR [ecx+268]
  0023c	66 89 90 00 00
	00 00		 mov	 WORD PTR ?FontBuffer@@3PAUFONT_BUFFER@@A[eax], dx

; 501  : 		FontBuffer[FontCnt].y = strBuffer->y;

  00243	69 05 00 00 00
	00 10 01 00 00	 imul	 eax, DWORD PTR ?FontCnt@@3HA, 272 ; FontCnt
  0024d	8b 4d 08	 mov	 ecx, DWORD PTR _strBuffer$[ebp]
  00250	66 8b 91 10 01
	00 00		 mov	 dx, WORD PTR [ecx+272]
  00257	66 89 90 02 00
	00 00		 mov	 WORD PTR ?FontBuffer@@3PAUFONT_BUFFER@@A[eax+2], dx

; 502  : 		FontBuffer[FontCnt].fontPrio = strBuffer->fontPrio;

  0025e	69 05 00 00 00
	00 10 01 00 00	 imul	 eax, DWORD PTR ?FontCnt@@3HA, 272 ; FontCnt
  00268	8b 4d 08	 mov	 ecx, DWORD PTR _strBuffer$[ebp]
  0026b	8a 91 1c 01 00
	00		 mov	 dl, BYTE PTR [ecx+284]
  00271	88 90 05 01 00
	00		 mov	 BYTE PTR ?FontBuffer@@3PAUFONT_BUFFER@@A[eax+261], dl

; 503  : 		FontBuffer[FontCnt].color = strBuffer->color;

  00277	69 05 00 00 00
	00 10 01 00 00	 imul	 eax, DWORD PTR ?FontCnt@@3HA, 272 ; FontCnt
  00281	8b 4d 08	 mov	 ecx, DWORD PTR _strBuffer$[ebp]
  00284	8a 91 08 01 00
	00		 mov	 dl, BYTE PTR [ecx+264]
  0028a	88 90 04 00 00
	00		 mov	 BYTE PTR ?FontBuffer@@3PAUFONT_BUFFER@@A[eax+4], dl

; 504  : 		FontBuffer[FontCnt].hitFlag = 0;

  00290	69 05 00 00 00
	00 10 01 00 00	 imul	 eax, DWORD PTR ?FontCnt@@3HA, 272 ; FontCnt
  0029a	c7 80 08 01 00
	00 00 00 00 00	 mov	 DWORD PTR ?FontBuffer@@3PAUFONT_BUFFER@@A[eax+264], 0

; 505  : #ifdef _FONT_SIZE
; 506  : 		FontBuffer[FontCnt].size = 0;

  002a4	69 05 00 00 00
	00 10 01 00 00	 imul	 eax, DWORD PTR ?FontCnt@@3HA, 272 ; FontCnt
  002ae	c7 80 0c 01 00
	00 00 00 00 00	 mov	 DWORD PTR ?FontBuffer@@3PAUFONT_BUFFER@@A[eax+268], 0

; 507  : #endif
; 508  : 		//ÂÆö‰πâHook_typeÁî®Êù•Â§ÑÁêÜÊòüÂè∑‰∫ßÁîü
; 509  : #ifdef _SAHOOK //Syu ADD HookÁ®ãÂºè
; 510  : 		if (strBuffer->filterFlag == HOOK_TYPE) {
; 511  : 			extern int HOOK_PASSWD_NUM;
; 512  : 			for (int i = 0; i < HOOK_PASSWD_NUM; i++)
; 513  : 				FontBuffer[FontCnt].str[i] = '*';
; 514  : 			FontBuffer[FontCnt].str[i] = NULL;
; 515  : 			strBuffer->cursor = HOOK_PASSWD_NUM;
; 516  : 		}
; 517  : 		else if (strBuffer->filterFlag == BLIND_TYPE) {
; 518  : #else
; 519  : 		if (strBuffer->filterFlag == BLIND_TYPE) {

  002b8	8b 45 08	 mov	 eax, DWORD PTR _strBuffer$[ebp]
  002bb	83 b8 20 01 00
	00 01		 cmp	 DWORD PTR [eax+288], 1
  002c2	75 61		 jne	 SHORT $LN14@StockFontB

; 520  : #endif
; 521  : 			int i;
; 522  : 			for (i = 0; i < strBuffer->cnt; i++)

  002c4	c7 85 b0 fe ff
	ff 00 00 00 00	 mov	 DWORD PTR _i$1[ebp], 0
  002ce	eb 0f		 jmp	 SHORT $LN6@StockFontB
$LN4@StockFontB:
  002d0	8b 85 b0 fe ff
	ff		 mov	 eax, DWORD PTR _i$1[ebp]
  002d6	83 c0 01	 add	 eax, 1
  002d9	89 85 b0 fe ff
	ff		 mov	 DWORD PTR _i$1[ebp], eax
$LN6@StockFontB:
  002df	8b 45 08	 mov	 eax, DWORD PTR _strBuffer$[ebp]
  002e2	0f b6 88 07 01
	00 00		 movzx	 ecx, BYTE PTR [eax+263]
  002e9	39 8d b0 fe ff
	ff		 cmp	 DWORD PTR _i$1[ebp], ecx
  002ef	7d 1a		 jge	 SHORT $LN5@StockFontB

; 523  : 				FontBuffer[FontCnt].str[i] = '*';

  002f1	69 05 00 00 00
	00 10 01 00 00	 imul	 eax, DWORD PTR ?FontCnt@@3HA, 272 ; FontCnt
  002fb	8b 8d b0 fe ff
	ff		 mov	 ecx, DWORD PTR _i$1[ebp]
  00301	c6 84 08 05 00
	00 00 2a	 mov	 BYTE PTR ?FontBuffer@@3PAUFONT_BUFFER@@A[eax+ecx+5], 42 ; 0000002aH
  00309	eb c5		 jmp	 SHORT $LN4@StockFontB
$LN5@StockFontB:

; 524  : 			FontBuffer[FontCnt].str[i] = NULL;

  0030b	69 05 00 00 00
	00 10 01 00 00	 imul	 eax, DWORD PTR ?FontCnt@@3HA, 272 ; FontCnt
  00315	8b 8d b0 fe ff
	ff		 mov	 ecx, DWORD PTR _i$1[ebp]
  0031b	c6 84 08 05 00
	00 00 00	 mov	 BYTE PTR ?FontBuffer@@3PAUFONT_BUFFER@@A[eax+ecx+5], 0

; 525  : 		}else {

  00323	eb 51		 jmp	 SHORT $LN15@StockFontB
$LN14@StockFontB:

; 526  : 			extern int ÁºñÁ†Å;
; 527  : 			if (ÁºñÁ†Å == 950) {

  00325	81 3d 00 00 00
	00 b6 03 00 00	 cmp	 DWORD PTR ?±‡¬Î@@3HA, 950 ; ±‡¬Î, 000003b6H
  0032f	75 28		 jne	 SHORT $LN16@StockFontB

; 528  : 				extern char* GB2312ToBIG5(const char* szBIG5String);
; 529  : 				strcpy(FontBuffer[FontCnt].str, GB2312ToBIG5((const char *)strBuffer->buffer));

  00331	8b 45 08	 mov	 eax, DWORD PTR _strBuffer$[ebp]
  00334	50		 push	 eax
  00335	e8 00 00 00 00	 call	 ?GB2312ToBIG5@@YAPADPBD@Z ; GB2312ToBIG5
  0033a	83 c4 04	 add	 esp, 4
  0033d	50		 push	 eax
  0033e	69 0d 00 00 00
	00 10 01 00 00	 imul	 ecx, DWORD PTR ?FontCnt@@3HA, 272 ; FontCnt
  00348	81 c1 05 00 00
	00		 add	 ecx, OFFSET ?FontBuffer@@3PAUFONT_BUFFER@@A+5
  0034e	51		 push	 ecx
  0034f	e8 00 00 00 00	 call	 _strcpy
  00354	83 c4 08	 add	 esp, 8

; 530  : 			}
; 531  : 			else

  00357	eb 1d		 jmp	 SHORT $LN15@StockFontB
$LN16@StockFontB:

; 532  : 				strcpy(FontBuffer[FontCnt].str, strBuffer->buffer);

  00359	8b 45 08	 mov	 eax, DWORD PTR _strBuffer$[ebp]
  0035c	50		 push	 eax
  0035d	69 0d 00 00 00
	00 10 01 00 00	 imul	 ecx, DWORD PTR ?FontCnt@@3HA, 272 ; FontCnt
  00367	81 c1 05 00 00
	00		 add	 ecx, OFFSET ?FontBuffer@@3PAUFONT_BUFFER@@A+5
  0036d	51		 push	 ecx
  0036e	e8 00 00 00 00	 call	 _strcpy
  00373	83 c4 08	 add	 esp, 8
$LN15@StockFontB:

; 533  : 		}
; 534  : #ifdef _NEWFONT_
; 535  : 		char strtemp[512];
; 536  : 		char *ptempstr;
; 537  : 		if (strBuffer->filterFlag == BLIND_TYPE) {
; 538  : 			ptempstr = FontBuffer[FontCnt].str;
; 539  : 		}
; 540  : 		else {
; 541  : 			ptempstr = strBuffer->buffer;
; 542  : 		}
; 543  : 		if (strBuffer->cursor == 0) {
; 544  : 			strBuffer->imeX = strBuffer->x;
; 545  : 		}
; 546  : 		else {
; 547  : 			memcpy(strtemp, ptempstr, strBuffer->cursor);
; 548  : 			strtemp[strBuffer->cursor] = 0;
; 549  : 			strBuffer->imeX = strBuffer->x + GetStrWidth(strtemp);
; 550  : 
; 551  : 		}
; 552  : #else
; 553  : 		strBuffer->imeX = strBuffer->x + strBuffer->cursor*(FONT_SIZE >> 1);

  00376	8b 45 08	 mov	 eax, DWORD PTR _strBuffer$[ebp]
  00379	0f b6 88 09 01
	00 00		 movzx	 ecx, BYTE PTR [eax+265]
  00380	6b d1 07	 imul	 edx, ecx, 7
  00383	8b 45 08	 mov	 eax, DWORD PTR _strBuffer$[ebp]
  00386	03 90 0c 01 00
	00		 add	 edx, DWORD PTR [eax+268]
  0038c	8b 4d 08	 mov	 ecx, DWORD PTR _strBuffer$[ebp]
  0038f	89 91 14 01 00
	00		 mov	 DWORD PTR [ecx+276], edx

; 554  : #endif
; 555  : 		strBuffer->imeY = strBuffer->y;

  00395	8b 45 08	 mov	 eax, DWORD PTR _strBuffer$[ebp]
  00398	8b 4d 08	 mov	 ecx, DWORD PTR _strBuffer$[ebp]
  0039b	8b 91 10 01 00
	00		 mov	 edx, DWORD PTR [ecx+272]
  003a1	89 90 18 01 00
	00		 mov	 DWORD PTR [eax+280], edx

; 556  : 		strBuffer->hitFontNo = FontCnt++;

  003a7	8b 45 08	 mov	 eax, DWORD PTR _strBuffer$[ebp]
  003aa	8b 0d 00 00 00
	00		 mov	 ecx, DWORD PTR ?FontCnt@@3HA ; FontCnt
  003b0	89 88 24 01 00
	00		 mov	 DWORD PTR [eax+292], ecx
  003b6	8b 15 00 00 00
	00		 mov	 edx, DWORD PTR ?FontCnt@@3HA ; FontCnt
  003bc	83 c2 01	 add	 edx, 1
  003bf	89 15 00 00 00
	00		 mov	 DWORD PTR ?FontCnt@@3HA, edx ; FontCnt
$LN1@StockFontB:

; 557  : 		}
; 558  : 	}

  003c5	52		 push	 edx
  003c6	8b cd		 mov	 ecx, ebp
  003c8	50		 push	 eax
  003c9	8d 15 00 00 00
	00		 lea	 edx, DWORD PTR $LN21@StockFontB
  003cf	e8 00 00 00 00	 call	 @_RTC_CheckStackVars@8
  003d4	58		 pop	 eax
  003d5	5a		 pop	 edx
  003d6	5f		 pop	 edi
  003d7	5e		 pop	 esi
  003d8	5b		 pop	 ebx
  003d9	8b 4d fc	 mov	 ecx, DWORD PTR __$ArrayPad$[ebp]
  003dc	33 cd		 xor	 ecx, ebp
  003de	e8 00 00 00 00	 call	 @__security_check_cookie@4
  003e3	81 c4 14 02 00
	00		 add	 esp, 532		; 00000214H
  003e9	3b ec		 cmp	 ebp, esp
  003eb	e8 00 00 00 00	 call	 __RTC_CheckEsp
  003f0	8b e5		 mov	 esp, ebp
  003f2	5d		 pop	 ebp
  003f3	c3		 ret	 0
$LN21@StockFontB:
  003f4	01 00 00 00	 DD	 1
  003f8	00 00 00 00	 DD	 $LN20@StockFontB
$LN20@StockFontB:
  003fc	bc fe ff ff	 DD	 -324			; fffffebcH
  00400	00 01 00 00	 DD	 256			; 00000100H
  00404	00 00 00 00	 DD	 $LN19@StockFontB
$LN19@StockFontB:
  00408	73		 DB	 115			; 00000073H
  00409	70		 DB	 112			; 00000070H
  0040a	6c		 DB	 108			; 0000006cH
  0040b	69		 DB	 105			; 00000069H
  0040c	74		 DB	 116			; 00000074H
  0040d	53		 DB	 83			; 00000053H
  0040e	74		 DB	 116			; 00000074H
  0040f	72		 DB	 114			; 00000072H
  00410	00		 DB	 0
?StockFontBuffer2@@YAXPAUSTR_BUFFER@@@Z ENDP		; StockFontBuffer2
_TEXT	ENDS
; Function compile flags: /Odtp /RTCsu /ZI
; File c:\users\administrator\desktop\????? ??\????? ??\client source code\system\font.cpp
;	COMDAT ?StockFontBufferExt@@YAHHHDHPADHH@Z
_TEXT	SEGMENT
tv154 = -1616						; size = 4
_∑±ÃÂ$1 = -1032						; size = 1024
__$ArrayPad$ = -4					; size = 4
_x$ = 8							; size = 4
_y$ = 12						; size = 4
_fontPrio$ = 16						; size = 1
_color$ = 20						; size = 4
_str$ = 24						; size = 4
_hitFlag$ = 28						; size = 4
_size$ = 32						; size = 4
?StockFontBufferExt@@YAHHHDHPADHH@Z PROC		; StockFontBufferExt, COMDAT

; 48   : int StockFontBufferExt(int x, int y, char fontPrio, int color, char *str, BOOL hitFlag, int size){

  00000	55		 push	 ebp
  00001	8b ec		 mov	 ebp, esp
  00003	81 ec 50 06 00
	00		 sub	 esp, 1616		; 00000650H
  00009	53		 push	 ebx
  0000a	56		 push	 esi
  0000b	57		 push	 edi
  0000c	8d bd b0 f9 ff
	ff		 lea	 edi, DWORD PTR [ebp-1616]
  00012	b9 94 01 00 00	 mov	 ecx, 404		; 00000194H
  00017	b8 cc cc cc cc	 mov	 eax, -858993460		; ccccccccH
  0001c	f3 ab		 rep stosd
  0001e	a1 00 00 00 00	 mov	 eax, DWORD PTR ___security_cookie
  00023	33 c5		 xor	 eax, ebp
  00025	89 45 fc	 mov	 DWORD PTR __$ArrayPad$[ebp], eax

; 49   : 	if (FontCnt >= FONT_BUFFER_SIZE) return -2;

  00028	81 3d 00 00 00
	00 00 04 00 00	 cmp	 DWORD PTR ?FontCnt@@3HA, 1024 ; FontCnt, 00000400H
  00032	7c 0a		 jl	 SHORT $LN2@StockFontB
  00034	b8 fe ff ff ff	 mov	 eax, -2			; fffffffeH
  00039	e9 a0 01 00 00	 jmp	 $LN1@StockFontB
$LN2@StockFontB:

; 50   : 	FontBuffer[FontCnt].x = x;

  0003e	69 05 00 00 00
	00 10 01 00 00	 imul	 eax, DWORD PTR ?FontCnt@@3HA, 272 ; FontCnt
  00048	66 8b 4d 08	 mov	 cx, WORD PTR _x$[ebp]
  0004c	66 89 88 00 00
	00 00		 mov	 WORD PTR ?FontBuffer@@3PAUFONT_BUFFER@@A[eax], cx

; 51   : 	FontBuffer[FontCnt].y = y;

  00053	69 05 00 00 00
	00 10 01 00 00	 imul	 eax, DWORD PTR ?FontCnt@@3HA, 272 ; FontCnt
  0005d	66 8b 4d 0c	 mov	 cx, WORD PTR _y$[ebp]
  00061	66 89 88 02 00
	00 00		 mov	 WORD PTR ?FontBuffer@@3PAUFONT_BUFFER@@A[eax+2], cx

; 52   : 	FontBuffer[FontCnt].fontPrio = fontPrio;

  00068	69 05 00 00 00
	00 10 01 00 00	 imul	 eax, DWORD PTR ?FontCnt@@3HA, 272 ; FontCnt
  00072	8a 4d 10	 mov	 cl, BYTE PTR _fontPrio$[ebp]
  00075	88 88 05 01 00
	00		 mov	 BYTE PTR ?FontBuffer@@3PAUFONT_BUFFER@@A[eax+261], cl

; 53   : 	FontBuffer[FontCnt].color = color;

  0007b	69 05 00 00 00
	00 10 01 00 00	 imul	 eax, DWORD PTR ?FontCnt@@3HA, 272 ; FontCnt
  00085	8a 4d 14	 mov	 cl, BYTE PTR _color$[ebp]
  00088	88 88 04 00 00
	00		 mov	 BYTE PTR ?FontBuffer@@3PAUFONT_BUFFER@@A[eax+4], cl

; 54   : 	FontBuffer[FontCnt].hitFlag = hitFlag;

  0008e	69 05 00 00 00
	00 10 01 00 00	 imul	 eax, DWORD PTR ?FontCnt@@3HA, 272 ; FontCnt
  00098	8b 4d 1c	 mov	 ecx, DWORD PTR _hitFlag$[ebp]
  0009b	89 88 08 01 00
	00		 mov	 DWORD PTR ?FontBuffer@@3PAUFONT_BUFFER@@A[eax+264], ecx

; 55   : 	extern int ÁºñÁ†Å;
; 56   : 	extern int ÁπÅ‰ΩìÂºÄÂÖ≥;
; 57   : 	if (ÁπÅ‰ΩìÂºÄÂÖ≥) {

  000a1	83 3d 00 00 00
	00 00		 cmp	 DWORD PTR ?∑±ÃÂø™πÿ@@3HA, 0 ; ∑±ÃÂø™πÿ
  000a8	0f 84 ac 00 00
	00		 je	 $LN3@StockFontB

; 58   : 		char ÁπÅ‰Ωì[1024] = { 0 };

  000ae	c6 85 f8 fb ff
	ff 00		 mov	 BYTE PTR _∑±ÃÂ$1[ebp], 0
  000b5	68 ff 03 00 00	 push	 1023			; 000003ffH
  000ba	6a 00		 push	 0
  000bc	8d 85 f9 fb ff
	ff		 lea	 eax, DWORD PTR _∑±ÃÂ$1[ebp+1]
  000c2	50		 push	 eax
  000c3	e8 00 00 00 00	 call	 _memset
  000c8	83 c4 0c	 add	 esp, 12			; 0000000cH

; 59   : 		LCMapString(0x804, 0x4000000, str, strlen(str), ÁπÅ‰Ωì, 1024);

  000cb	8b f4		 mov	 esi, esp
  000cd	68 00 04 00 00	 push	 1024			; 00000400H
  000d2	8d 85 f8 fb ff
	ff		 lea	 eax, DWORD PTR _∑±ÃÂ$1[ebp]
  000d8	50		 push	 eax
  000d9	8b 4d 18	 mov	 ecx, DWORD PTR _str$[ebp]
  000dc	51		 push	 ecx
  000dd	e8 00 00 00 00	 call	 _strlen
  000e2	83 c4 04	 add	 esp, 4
  000e5	50		 push	 eax
  000e6	8b 55 18	 mov	 edx, DWORD PTR _str$[ebp]
  000e9	52		 push	 edx
  000ea	68 00 00 00 04	 push	 67108864		; 04000000H
  000ef	68 04 08 00 00	 push	 2052			; 00000804H
  000f4	ff 15 00 00 00
	00		 call	 DWORD PTR __imp__LCMapStringA@24
  000fa	3b f4		 cmp	 esi, esp
  000fc	e8 00 00 00 00	 call	 __RTC_CheckEsp

; 60   : 		if (ÁºñÁ†Å == 950) {

  00101	81 3d 00 00 00
	00 b6 03 00 00	 cmp	 DWORD PTR ?±‡¬Î@@3HA, 950 ; ±‡¬Î, 000003b6H
  0010b	75 2b		 jne	 SHORT $LN5@StockFontB

; 61   : 			extern char* GB2312ToBIG5(const char* szBIG5String);
; 62   : 			strcpy(FontBuffer[FontCnt].str, GB2312ToBIG5((const char *)ÁπÅ‰Ωì));

  0010d	8d 85 f8 fb ff
	ff		 lea	 eax, DWORD PTR _∑±ÃÂ$1[ebp]
  00113	50		 push	 eax
  00114	e8 00 00 00 00	 call	 ?GB2312ToBIG5@@YAPADPBD@Z ; GB2312ToBIG5
  00119	83 c4 04	 add	 esp, 4
  0011c	50		 push	 eax
  0011d	69 0d 00 00 00
	00 10 01 00 00	 imul	 ecx, DWORD PTR ?FontCnt@@3HA, 272 ; FontCnt
  00127	81 c1 05 00 00
	00		 add	 ecx, OFFSET ?FontBuffer@@3PAUFONT_BUFFER@@A+5
  0012d	51		 push	 ecx
  0012e	e8 00 00 00 00	 call	 _strcpy
  00133	83 c4 08	 add	 esp, 8

; 63   : 		}
; 64   : 		else

  00136	eb 20		 jmp	 SHORT $LN6@StockFontB
$LN5@StockFontB:

; 65   : 			strcpy(FontBuffer[FontCnt].str, ÁπÅ‰Ωì);

  00138	8d 85 f8 fb ff
	ff		 lea	 eax, DWORD PTR _∑±ÃÂ$1[ebp]
  0013e	50		 push	 eax
  0013f	69 0d 00 00 00
	00 10 01 00 00	 imul	 ecx, DWORD PTR ?FontCnt@@3HA, 272 ; FontCnt
  00149	81 c1 05 00 00
	00		 add	 ecx, OFFSET ?FontBuffer@@3PAUFONT_BUFFER@@A+5
  0014f	51		 push	 ecx
  00150	e8 00 00 00 00	 call	 _strcpy
  00155	83 c4 08	 add	 esp, 8
$LN6@StockFontB:

; 66   : 	}else {

  00158	eb 51		 jmp	 SHORT $LN4@StockFontB
$LN3@StockFontB:

; 67   : 		if (ÁºñÁ†Å == 950) {

  0015a	81 3d 00 00 00
	00 b6 03 00 00	 cmp	 DWORD PTR ?±‡¬Î@@3HA, 950 ; ±‡¬Î, 000003b6H
  00164	75 28		 jne	 SHORT $LN7@StockFontB

; 68   : 			extern char* GB2312ToBIG5(const char* szBIG5String);
; 69   : 			strcpy(FontBuffer[FontCnt].str, GB2312ToBIG5((const char *)str));

  00166	8b 45 18	 mov	 eax, DWORD PTR _str$[ebp]
  00169	50		 push	 eax
  0016a	e8 00 00 00 00	 call	 ?GB2312ToBIG5@@YAPADPBD@Z ; GB2312ToBIG5
  0016f	83 c4 04	 add	 esp, 4
  00172	50		 push	 eax
  00173	69 0d 00 00 00
	00 10 01 00 00	 imul	 ecx, DWORD PTR ?FontCnt@@3HA, 272 ; FontCnt
  0017d	81 c1 05 00 00
	00		 add	 ecx, OFFSET ?FontBuffer@@3PAUFONT_BUFFER@@A+5
  00183	51		 push	 ecx
  00184	e8 00 00 00 00	 call	 _strcpy
  00189	83 c4 08	 add	 esp, 8

; 70   : 		}
; 71   : 		else

  0018c	eb 1d		 jmp	 SHORT $LN4@StockFontB
$LN7@StockFontB:

; 72   : 			strcpy(FontBuffer[FontCnt].str, str);

  0018e	8b 45 18	 mov	 eax, DWORD PTR _str$[ebp]
  00191	50		 push	 eax
  00192	69 0d 00 00 00
	00 10 01 00 00	 imul	 ecx, DWORD PTR ?FontCnt@@3HA, 272 ; FontCnt
  0019c	81 c1 05 00 00
	00		 add	 ecx, OFFSET ?FontBuffer@@3PAUFONT_BUFFER@@A+5
  001a2	51		 push	 ecx
  001a3	e8 00 00 00 00	 call	 _strcpy
  001a8	83 c4 08	 add	 esp, 8
$LN4@StockFontB:

; 73   : 	}
; 74   : 	FontBuffer[FontCnt].size = size;

  001ab	69 05 00 00 00
	00 10 01 00 00	 imul	 eax, DWORD PTR ?FontCnt@@3HA, 272 ; FontCnt
  001b5	8b 4d 20	 mov	 ecx, DWORD PTR _size$[ebp]
  001b8	89 88 0c 01 00
	00		 mov	 DWORD PTR ?FontBuffer@@3PAUFONT_BUFFER@@A[eax+268], ecx

; 75   : 	return FontCnt++;

  001be	a1 00 00 00 00	 mov	 eax, DWORD PTR ?FontCnt@@3HA ; FontCnt
  001c3	89 85 b0 f9 ff
	ff		 mov	 DWORD PTR tv154[ebp], eax
  001c9	8b 0d 00 00 00
	00		 mov	 ecx, DWORD PTR ?FontCnt@@3HA ; FontCnt
  001cf	83 c1 01	 add	 ecx, 1
  001d2	89 0d 00 00 00
	00		 mov	 DWORD PTR ?FontCnt@@3HA, ecx ; FontCnt
  001d8	8b 85 b0 f9 ff
	ff		 mov	 eax, DWORD PTR tv154[ebp]
$LN1@StockFontB:

; 76   : }

  001de	52		 push	 edx
  001df	8b cd		 mov	 ecx, ebp
  001e1	50		 push	 eax
  001e2	8d 15 00 00 00
	00		 lea	 edx, DWORD PTR $LN12@StockFontB
  001e8	e8 00 00 00 00	 call	 @_RTC_CheckStackVars@8
  001ed	58		 pop	 eax
  001ee	5a		 pop	 edx
  001ef	5f		 pop	 edi
  001f0	5e		 pop	 esi
  001f1	5b		 pop	 ebx
  001f2	8b 4d fc	 mov	 ecx, DWORD PTR __$ArrayPad$[ebp]
  001f5	33 cd		 xor	 ecx, ebp
  001f7	e8 00 00 00 00	 call	 @__security_check_cookie@4
  001fc	81 c4 50 06 00
	00		 add	 esp, 1616		; 00000650H
  00202	3b ec		 cmp	 ebp, esp
  00204	e8 00 00 00 00	 call	 __RTC_CheckEsp
  00209	8b e5		 mov	 esp, ebp
  0020b	5d		 pop	 ebp
  0020c	c3		 ret	 0
  0020d	0f 1f 00	 npad	 3
$LN12@StockFontB:
  00210	01 00 00 00	 DD	 1
  00214	00 00 00 00	 DD	 $LN11@StockFontB
$LN11@StockFontB:
  00218	f8 fb ff ff	 DD	 -1032			; fffffbf8H
  0021c	00 04 00 00	 DD	 1024			; 00000400H
  00220	00 00 00 00	 DD	 $LN10@StockFontB
$LN10@StockFontB:
  00224	e7		 DB	 -25			; ffffffe7H
  00225	b9		 DB	 -71			; ffffffb9H
  00226	81		 DB	 -127			; ffffff81H
  00227	e4		 DB	 -28			; ffffffe4H
  00228	bd		 DB	 -67			; ffffffbdH
  00229	93		 DB	 -109			; ffffff93H
  0022a	00		 DB	 0
?StockFontBufferExt@@YAHHHDHPADHH@Z ENDP		; StockFontBufferExt
_TEXT	ENDS
; Function compile flags: /Odtp /RTCsu /ZI
; File c:\users\administrator\desktop\????? ??\????? ??\client source code\system\font.cpp
;	COMDAT ?StockFontBuffer@@YAHHHDHPADH@Z
_TEXT	SEGMENT
_x$ = 8							; size = 4
_y$ = 12						; size = 4
_fontPrio$ = 16						; size = 1
_color$ = 20						; size = 4
_str$ = 24						; size = 4
_hitFlag$ = 28						; size = 4
?StockFontBuffer@@YAHHHDHPADH@Z PROC			; StockFontBuffer, COMDAT

; 78   : int StockFontBuffer(int x, int y, char fontPrio, int color, char *str, BOOL hitFlag){

  00000	55		 push	 ebp
  00001	8b ec		 mov	 ebp, esp
  00003	81 ec c0 00 00
	00		 sub	 esp, 192		; 000000c0H
  00009	53		 push	 ebx
  0000a	56		 push	 esi
  0000b	57		 push	 edi
  0000c	8d bd 40 ff ff
	ff		 lea	 edi, DWORD PTR [ebp-192]
  00012	b9 30 00 00 00	 mov	 ecx, 48			; 00000030H
  00017	b8 cc cc cc cc	 mov	 eax, -858993460		; ccccccccH
  0001c	f3 ab		 rep stosd

; 79   : 	return StockFontBufferExt(x, y, fontPrio, color, str, hitFlag, 0);

  0001e	6a 00		 push	 0
  00020	8b 45 1c	 mov	 eax, DWORD PTR _hitFlag$[ebp]
  00023	50		 push	 eax
  00024	8b 4d 18	 mov	 ecx, DWORD PTR _str$[ebp]
  00027	51		 push	 ecx
  00028	8b 55 14	 mov	 edx, DWORD PTR _color$[ebp]
  0002b	52		 push	 edx
  0002c	0f b6 45 10	 movzx	 eax, BYTE PTR _fontPrio$[ebp]
  00030	50		 push	 eax
  00031	8b 4d 0c	 mov	 ecx, DWORD PTR _y$[ebp]
  00034	51		 push	 ecx
  00035	8b 55 08	 mov	 edx, DWORD PTR _x$[ebp]
  00038	52		 push	 edx
  00039	e8 00 00 00 00	 call	 ?StockFontBufferExt@@YAHHHDHPADHH@Z ; StockFontBufferExt
  0003e	83 c4 1c	 add	 esp, 28			; 0000001cH

; 80   : }

  00041	5f		 pop	 edi
  00042	5e		 pop	 esi
  00043	5b		 pop	 ebx
  00044	81 c4 c0 00 00
	00		 add	 esp, 192		; 000000c0H
  0004a	3b ec		 cmp	 ebp, esp
  0004c	e8 00 00 00 00	 call	 __RTC_CheckEsp
  00051	8b e5		 mov	 esp, ebp
  00053	5d		 pop	 ebp
  00054	c3		 ret	 0
?StockFontBuffer@@YAHHHDHPADH@Z ENDP			; StockFontBuffer
_TEXT	ENDS
; Function compile flags: /Odtp /RTCsu /ZI
; File c:\users\administrator\desktop\????? ??\????? ??\client source code\system\font.cpp
;	COMDAT ?delFontBuffer@@YAXPAU_CHAT_BUFFER@@@Z
_TEXT	SEGMENT
_pTemp$1 = -20						; size = 4
_pNextBuffer$ = -8					; size = 4
_chatbuffer$ = 8					; size = 4
?delFontBuffer@@YAXPAU_CHAT_BUFFER@@@Z PROC		; delFontBuffer, COMDAT

; 156  : void delFontBuffer(CHAT_BUFFER *chatbuffer){

  00000	55		 push	 ebp
  00001	8b ec		 mov	 ebp, esp
  00003	81 ec d8 00 00
	00		 sub	 esp, 216		; 000000d8H
  00009	53		 push	 ebx
  0000a	56		 push	 esi
  0000b	57		 push	 edi
  0000c	8d bd 28 ff ff
	ff		 lea	 edi, DWORD PTR [ebp-216]
  00012	b9 36 00 00 00	 mov	 ecx, 54			; 00000036H
  00017	b8 cc cc cc cc	 mov	 eax, -858993460		; ccccccccH
  0001c	f3 ab		 rep stosd

; 157  : 
; 158  : 	CHAT_BUFFER *pNextBuffer = chatbuffer->NextChatBuffer;

  0001e	8b 45 08	 mov	 eax, DWORD PTR _chatbuffer$[ebp]
  00021	8b 88 14 01 00
	00		 mov	 ecx, DWORD PTR [eax+276]
  00027	89 4d f8	 mov	 DWORD PTR _pNextBuffer$[ebp], ecx
$LN2@delFontBuf:

; 159  : 	while (pNextBuffer){//Â¶ÇÊûúÈìæ‰∏≠ËøòÂ≠òÂú®ÁªìÁÇπ

  0002a	83 7d f8 00	 cmp	 DWORD PTR _pNextBuffer$[ebp], 0
  0002e	74 31		 je	 SHORT $LN3@delFontBuf

; 160  : 		CHAT_BUFFER* pTemp;
; 161  : 		pTemp = pNextBuffer;

  00030	8b 45 f8	 mov	 eax, DWORD PTR _pNextBuffer$[ebp]
  00033	89 45 ec	 mov	 DWORD PTR _pTemp$1[ebp], eax

; 162  : 		pNextBuffer = pNextBuffer->NextChatBuffer;

  00036	8b 45 f8	 mov	 eax, DWORD PTR _pNextBuffer$[ebp]
  00039	8b 88 14 01 00
	00		 mov	 ecx, DWORD PTR [eax+276]
  0003f	89 4d f8	 mov	 DWORD PTR _pNextBuffer$[ebp], ecx

; 163  : 		free(pTemp);

  00042	8b f4		 mov	 esi, esp
  00044	8b 45 ec	 mov	 eax, DWORD PTR _pTemp$1[ebp]
  00047	50		 push	 eax
  00048	ff 15 00 00 00
	00		 call	 DWORD PTR __imp__free
  0004e	83 c4 04	 add	 esp, 4
  00051	3b f4		 cmp	 esi, esp
  00053	e8 00 00 00 00	 call	 __RTC_CheckEsp

; 164  : 		pTemp = NULL;

  00058	c7 45 ec 00 00
	00 00		 mov	 DWORD PTR _pTemp$1[ebp], 0

; 165  : 	}

  0005f	eb c9		 jmp	 SHORT $LN2@delFontBuf
$LN3@delFontBuf:

; 166  : 	chatbuffer->NextChatBuffer = NULL;

  00061	8b 45 08	 mov	 eax, DWORD PTR _chatbuffer$[ebp]
  00064	c7 80 14 01 00
	00 00 00 00 00	 mov	 DWORD PTR [eax+276], 0

; 167  : }

  0006e	5f		 pop	 edi
  0006f	5e		 pop	 esi
  00070	5b		 pop	 ebx
  00071	81 c4 d8 00 00
	00		 add	 esp, 216		; 000000d8H
  00077	3b ec		 cmp	 ebp, esp
  00079	e8 00 00 00 00	 call	 __RTC_CheckEsp
  0007e	8b e5		 mov	 esp, ebp
  00080	5d		 pop	 ebp
  00081	c3		 ret	 0
?delFontBuffer@@YAXPAU_CHAT_BUFFER@@@Z ENDP		; delFontBuffer
_TEXT	ENDS
; Function compile flags: /Odtp /RTCsu /ZI
; File c:\users\administrator\desktop\????? ??\????? ??\client source code\system\font.cpp
;	COMDAT ?NewStockFontBuffer@@YAXPAU_CHAT_BUFFER@@HEPADHH@Z
_TEXT	SEGMENT
$T1 = -1008						; size = 4
$T2 = -996						; size = 4
_fontsize$3 = -600					; size = 8
_i$4 = -584						; size = 4
_cnt_int$5 = -572					; size = 4
_fontsize$6 = -560					; size = 8
_strl$7 = -544						; size = 4
_temp$ = -532						; size = 4
_outText$ = -520					; size = 512
__$ArrayPad$ = -4					; size = 4
_chatbuffer$ = 8					; size = 4
_x$ = 12						; size = 4
_color$ = 16						; size = 1
_str$ = 20						; size = 4
_size$ = 24						; size = 4
_id$ = 28						; size = 4
?NewStockFontBuffer@@YAXPAU_CHAT_BUFFER@@HEPADHH@Z PROC	; NewStockFontBuffer, COMDAT

; 399  : void NewStockFontBuffer(CHAT_BUFFER *chatbuffer, int x, unsigned char color, char *str, int size,int id){

  00000	55		 push	 ebp
  00001	8b ec		 mov	 ebp, esp
  00003	81 ec f4 03 00
	00		 sub	 esp, 1012		; 000003f4H
  00009	53		 push	 ebx
  0000a	56		 push	 esi
  0000b	57		 push	 edi
  0000c	8d bd 0c fc ff
	ff		 lea	 edi, DWORD PTR [ebp-1012]
  00012	b9 fd 00 00 00	 mov	 ecx, 253		; 000000fdH
  00017	b8 cc cc cc cc	 mov	 eax, -858993460		; ccccccccH
  0001c	f3 ab		 rep stosd
  0001e	a1 00 00 00 00	 mov	 eax, DWORD PTR ___security_cookie
  00023	33 c5		 xor	 eax, ebp
  00025	89 45 fc	 mov	 DWORD PTR __$ArrayPad$[ebp], eax

; 400  : 	MyNewStockFontBuffer(chatbuffer, x, color, str, size, id);

  00028	8b 45 1c	 mov	 eax, DWORD PTR _id$[ebp]
  0002b	50		 push	 eax
  0002c	8b 4d 18	 mov	 ecx, DWORD PTR _size$[ebp]
  0002f	51		 push	 ecx
  00030	8b 55 14	 mov	 edx, DWORD PTR _str$[ebp]
  00033	52		 push	 edx
  00034	0f b6 45 10	 movzx	 eax, BYTE PTR _color$[ebp]
  00038	50		 push	 eax
  00039	8b 4d 0c	 mov	 ecx, DWORD PTR _x$[ebp]
  0003c	51		 push	 ecx
  0003d	8b 55 08	 mov	 edx, DWORD PTR _chatbuffer$[ebp]
  00040	52		 push	 edx
  00041	e8 00 00 00 00	 call	 ?MyNewStockFontBuffer@@YAXPAU_CHAT_BUFFER@@HEPADHH@Z ; MyNewStockFontBuffer
  00046	83 c4 18	 add	 esp, 24			; 00000018H

; 401  : 	return;

  00049	e9 85 03 00 00	 jmp	 $LN14@NewStockFo

; 402  : 	if (!str[0]) {

  0004e	b8 01 00 00 00	 mov	 eax, 1
  00053	6b c8 00	 imul	 ecx, eax, 0
  00056	8b 55 14	 mov	 edx, DWORD PTR _str$[ebp]
  00059	0f be 04 0a	 movsx	 eax, BYTE PTR [edx+ecx]
  0005d	85 c0		 test	 eax, eax
  0005f	75 05		 jne	 SHORT $LN5@NewStockFo

; 403  : 		return;

  00061	e9 6d 03 00 00	 jmp	 $LN14@NewStockFo
$LN5@NewStockFo:

; 404  : 	}
; 405  : 	memset(chatbuffer, 0, sizeof(CHAT_BUFFER));

  00066	68 4c 01 00 00	 push	 332			; 0000014cH
  0006b	6a 00		 push	 0
  0006d	8b 45 08	 mov	 eax, DWORD PTR _chatbuffer$[ebp]
  00070	50		 push	 eax
  00071	e8 00 00 00 00	 call	 _memset
  00076	83 c4 0c	 add	 esp, 12			; 0000000cH

; 406  : 	chatbuffer->fontsize = size;

  00079	8b 45 08	 mov	 eax, DWORD PTR _chatbuffer$[ebp]
  0007c	8b 4d 18	 mov	 ecx, DWORD PTR _size$[ebp]
  0007f	89 88 48 01 00
	00		 mov	 DWORD PTR [eax+328], ecx

; 407  : 	chatbuffer->id = id;

  00085	8b 45 08	 mov	 eax, DWORD PTR _chatbuffer$[ebp]
  00088	8b 4d 1c	 mov	 ecx, DWORD PTR _id$[ebp]
  0008b	89 88 08 01 00
	00		 mov	 DWORD PTR [eax+264], ecx

; 408  : 	char outText[512];
; 409  : 	char *temp = sunday(str, "#");

  00091	68 00 00 00 00	 push	 OFFSET ??_C@_01IPJKGB@?$CD?$AA@
  00096	8b 45 14	 mov	 eax, DWORD PTR _str$[ebp]
  00099	50		 push	 eax
  0009a	e8 00 00 00 00	 call	 ?sunday@@YAPADPAD0@Z	; sunday
  0009f	83 c4 08	 add	 esp, 8
  000a2	89 85 ec fd ff
	ff		 mov	 DWORD PTR _temp$[ebp], eax

; 410  : 	if (temp) {

  000a8	83 bd ec fd ff
	ff 00		 cmp	 DWORD PTR _temp$[ebp], 0
  000af	0f 84 f6 02 00
	00		 je	 $LN6@NewStockFo

; 411  : 		if (temp != str) {

  000b5	8b 85 ec fd ff
	ff		 mov	 eax, DWORD PTR _temp$[ebp]
  000bb	3b 45 14	 cmp	 eax, DWORD PTR _str$[ebp]
  000be	0f 84 02 01 00
	00		 je	 $LN8@NewStockFo

; 412  : 			int strl = temp - str;

  000c4	8b 85 ec fd ff
	ff		 mov	 eax, DWORD PTR _temp$[ebp]
  000ca	2b 45 14	 sub	 eax, DWORD PTR _str$[ebp]
  000cd	89 85 e0 fd ff
	ff		 mov	 DWORD PTR _strl$7[ebp], eax

; 413  : 			memcpy(outText, str, strl);   //outText‰∏∫#‰πãÂâçÁöÑÊã∑Ë¥ù

  000d3	8b 85 e0 fd ff
	ff		 mov	 eax, DWORD PTR _strl$7[ebp]
  000d9	50		 push	 eax
  000da	8b 4d 14	 mov	 ecx, DWORD PTR _str$[ebp]
  000dd	51		 push	 ecx
  000de	8d 95 f8 fd ff
	ff		 lea	 edx, DWORD PTR _outText$[ebp]
  000e4	52		 push	 edx
  000e5	e8 00 00 00 00	 call	 _memcpy
  000ea	83 c4 0c	 add	 esp, 12			; 0000000cH

; 414  : 			outText[strl] = 0x0;

  000ed	8b 85 e0 fd ff
	ff		 mov	 eax, DWORD PTR _strl$7[ebp]
  000f3	89 85 1c fc ff
	ff		 mov	 DWORD PTR $T2[ebp], eax
  000f9	81 bd 1c fc ff
	ff 00 02 00 00	 cmp	 DWORD PTR $T2[ebp], 512	; 00000200H
  00103	73 02		 jae	 SHORT $LN15@NewStockFo
  00105	eb 05		 jmp	 SHORT $LN16@NewStockFo
$LN15@NewStockFo:
  00107	e8 00 00 00 00	 call	 ___report_rangecheckfailure
$LN16@NewStockFo:
  0010c	8b 8d 1c fc ff
	ff		 mov	 ecx, DWORD PTR $T2[ebp]
  00112	c6 84 0d f8 fd
	ff ff 00	 mov	 BYTE PTR _outText$[ebp+ecx], 0

; 415  : 			SIZE fontsize;
; 416  : 			GetTextExtentPoint32(FontSizeHdc, (LPCSTR)outText, strl, (LPSIZE)&fontsize);

  0011a	8b f4		 mov	 esi, esp
  0011c	8d 85 d0 fd ff
	ff		 lea	 eax, DWORD PTR _fontsize$6[ebp]
  00122	50		 push	 eax
  00123	8b 8d e0 fd ff
	ff		 mov	 ecx, DWORD PTR _strl$7[ebp]
  00129	51		 push	 ecx
  0012a	8d 95 f8 fd ff
	ff		 lea	 edx, DWORD PTR _outText$[ebp]
  00130	52		 push	 edx
  00131	a1 00 00 00 00	 mov	 eax, DWORD PTR ?FontSizeHdc@@3PAUHDC__@@A ; FontSizeHdc
  00136	50		 push	 eax
  00137	ff 15 00 00 00
	00		 call	 DWORD PTR __imp__GetTextExtentPoint32A@16
  0013d	3b f4		 cmp	 esi, esp
  0013f	e8 00 00 00 00	 call	 __RTC_CheckEsp

; 417  : 			chatbuffer->color = color;

  00144	8b 45 08	 mov	 eax, DWORD PTR _chatbuffer$[ebp]
  00147	8a 4d 10	 mov	 cl, BYTE PTR _color$[ebp]
  0014a	88 88 05 01 00
	00		 mov	 BYTE PTR [eax+261], cl

; 418  : 			chatbuffer->x = x;

  00150	8b 45 08	 mov	 eax, DWORD PTR _chatbuffer$[ebp]
  00153	8b 4d 0c	 mov	 ecx, DWORD PTR _x$[ebp]
  00156	89 88 10 01 00
	00		 mov	 DWORD PTR [eax+272], ecx

; 419  : 			strcpy(chatbuffer->buffer, outText);

  0015c	8d 85 f8 fd ff
	ff		 lea	 eax, DWORD PTR _outText$[ebp]
  00162	50		 push	 eax
  00163	8b 4d 08	 mov	 ecx, DWORD PTR _chatbuffer$[ebp]
  00166	51		 push	 ecx
  00167	e8 00 00 00 00	 call	 _strcpy
  0016c	83 c4 08	 add	 esp, 8

; 420  : 			chatbuffer->NextChatBuffer = (CHAT_BUFFER *)calloc(1, sizeof(CHAT_BUFFER));

  0016f	8b f4		 mov	 esi, esp
  00171	68 4c 01 00 00	 push	 332			; 0000014cH
  00176	6a 01		 push	 1
  00178	ff 15 00 00 00
	00		 call	 DWORD PTR __imp__calloc
  0017e	83 c4 08	 add	 esp, 8
  00181	3b f4		 cmp	 esi, esp
  00183	e8 00 00 00 00	 call	 __RTC_CheckEsp
  00188	8b 4d 08	 mov	 ecx, DWORD PTR _chatbuffer$[ebp]
  0018b	89 81 14 01 00
	00		 mov	 DWORD PTR [ecx+276], eax

; 421  : 			NewStockFontBuffer(chatbuffer->NextChatBuffer, x + fontsize.cx, color, temp, size,id);

  00191	8b 45 1c	 mov	 eax, DWORD PTR _id$[ebp]
  00194	50		 push	 eax
  00195	8b 4d 18	 mov	 ecx, DWORD PTR _size$[ebp]
  00198	51		 push	 ecx
  00199	8b 95 ec fd ff
	ff		 mov	 edx, DWORD PTR _temp$[ebp]
  0019f	52		 push	 edx
  001a0	0f b6 45 10	 movzx	 eax, BYTE PTR _color$[ebp]
  001a4	50		 push	 eax
  001a5	8b 4d 0c	 mov	 ecx, DWORD PTR _x$[ebp]
  001a8	03 8d d0 fd ff
	ff		 add	 ecx, DWORD PTR _fontsize$6[ebp]
  001ae	51		 push	 ecx
  001af	8b 55 08	 mov	 edx, DWORD PTR _chatbuffer$[ebp]
  001b2	8b 82 14 01 00
	00		 mov	 eax, DWORD PTR [edx+276]
  001b8	50		 push	 eax
  001b9	e8 00 00 00 00	 call	 ?NewStockFontBuffer@@YAXPAU_CHAT_BUFFER@@HEPADHH@Z ; NewStockFontBuffer
  001be	83 c4 18	 add	 esp, 24			; 00000018H

; 422  : 		}else{

  001c1	e9 e3 01 00 00	 jmp	 $LN9@NewStockFo
$LN8@NewStockFo:

; 423  : 			int cnt_int = 0;

  001c6	c7 85 c4 fd ff
	ff 00 00 00 00	 mov	 DWORD PTR _cnt_int$5[ebp], 0

; 424  : 			int i = 1;

  001d0	c7 85 b8 fd ff
	ff 01 00 00 00	 mov	 DWORD PTR _i$4[ebp], 1

; 425  : 			for (i; i<4; i++) {

  001da	eb 0f		 jmp	 SHORT $LN4@NewStockFo
$LN2@NewStockFo:
  001dc	8b 85 b8 fd ff
	ff		 mov	 eax, DWORD PTR _i$4[ebp]
  001e2	83 c0 01	 add	 eax, 1
  001e5	89 85 b8 fd ff
	ff		 mov	 DWORD PTR _i$4[ebp], eax
$LN4@NewStockFo:
  001eb	83 bd b8 fd ff
	ff 04		 cmp	 DWORD PTR _i$4[ebp], 4
  001f2	7d 5a		 jge	 SHORT $LN3@NewStockFo

; 426  : 				if (temp[i] >= '0'&& temp[i] <= '9') {

  001f4	8b 85 ec fd ff
	ff		 mov	 eax, DWORD PTR _temp$[ebp]
  001fa	03 85 b8 fd ff
	ff		 add	 eax, DWORD PTR _i$4[ebp]
  00200	0f be 08	 movsx	 ecx, BYTE PTR [eax]
  00203	83 f9 30	 cmp	 ecx, 48			; 00000030H
  00206	7c 42		 jl	 SHORT $LN10@NewStockFo
  00208	8b 85 ec fd ff
	ff		 mov	 eax, DWORD PTR _temp$[ebp]
  0020e	03 85 b8 fd ff
	ff		 add	 eax, DWORD PTR _i$4[ebp]
  00214	0f be 08	 movsx	 ecx, BYTE PTR [eax]
  00217	83 f9 39	 cmp	 ecx, 57			; 00000039H
  0021a	7f 2e		 jg	 SHORT $LN10@NewStockFo

; 427  : 					cnt_int *= 10;

  0021c	6b 85 c4 fd ff
	ff 0a		 imul	 eax, DWORD PTR _cnt_int$5[ebp], 10
  00223	89 85 c4 fd ff
	ff		 mov	 DWORD PTR _cnt_int$5[ebp], eax

; 428  : 					cnt_int += temp[i] - '0';

  00229	8b 85 ec fd ff
	ff		 mov	 eax, DWORD PTR _temp$[ebp]
  0022f	03 85 b8 fd ff
	ff		 add	 eax, DWORD PTR _i$4[ebp]
  00235	0f be 08	 movsx	 ecx, BYTE PTR [eax]
  00238	8b 95 c4 fd ff
	ff		 mov	 edx, DWORD PTR _cnt_int$5[ebp]
  0023e	8d 44 0a d0	 lea	 eax, DWORD PTR [edx+ecx-48]
  00242	89 85 c4 fd ff
	ff		 mov	 DWORD PTR _cnt_int$5[ebp], eax

; 429  : 				}
; 430  : 				else {

  00248	eb 02		 jmp	 SHORT $LN11@NewStockFo
$LN10@NewStockFo:

; 431  : 					break;

  0024a	eb 02		 jmp	 SHORT $LN3@NewStockFo
$LN11@NewStockFo:

; 432  : 				}
; 433  : 			}

  0024c	eb 8e		 jmp	 SHORT $LN2@NewStockFo
$LN3@NewStockFo:

; 434  : 			if (cnt_int>0 && cnt_int <= EXPRESSION_NOID_NUM + 1) {

  0024e	83 bd c4 fd ff
	ff 00		 cmp	 DWORD PTR _cnt_int$5[ebp], 0
  00255	7e 49		 jle	 SHORT $LN12@NewStockFo
  00257	83 bd c4 fd ff
	ff 63		 cmp	 DWORD PTR _cnt_int$5[ebp], 99 ; 00000063H
  0025e	7f 40		 jg	 SHORT $LN12@NewStockFo

; 435  : 				chatbuffer->x = x;

  00260	8b 45 08	 mov	 eax, DWORD PTR _chatbuffer$[ebp]
  00263	8b 4d 0c	 mov	 ecx, DWORD PTR _x$[ebp]
  00266	89 88 10 01 00
	00		 mov	 DWORD PTR [eax+272], ecx

; 436  : 				chatbuffer->BmpNo = EXPRESSION_NOID_START + cnt_int - 1;

  0026c	8b 85 c4 fd ff
	ff		 mov	 eax, DWORD PTR _cnt_int$5[ebp]
  00272	05 4c d7 00 00	 add	 eax, 55116		; 0000d74cH
  00277	8b 4d 08	 mov	 ecx, DWORD PTR _chatbuffer$[ebp]
  0027a	89 81 0c 01 00
	00		 mov	 DWORD PTR [ecx+268], eax

; 437  : 				temp += i;

  00280	8b 85 ec fd ff
	ff		 mov	 eax, DWORD PTR _temp$[ebp]
  00286	03 85 b8 fd ff
	ff		 add	 eax, DWORD PTR _i$4[ebp]
  0028c	89 85 ec fd ff
	ff		 mov	 DWORD PTR _temp$[ebp], eax

; 438  : 				x += 26;   //Ë°®ÊÉÖÁöÑÂÆΩÂ∫¶

  00292	8b 45 0c	 mov	 eax, DWORD PTR _x$[ebp]
  00295	83 c0 1a	 add	 eax, 26			; 0000001aH
  00298	89 45 0c	 mov	 DWORD PTR _x$[ebp], eax

; 439  : 			}else{

  0029b	e9 bd 00 00 00	 jmp	 $LN13@NewStockFo
$LN12@NewStockFo:

; 440  : 				memcpy(outText, temp, i);

  002a0	8b 85 b8 fd ff
	ff		 mov	 eax, DWORD PTR _i$4[ebp]
  002a6	50		 push	 eax
  002a7	8b 8d ec fd ff
	ff		 mov	 ecx, DWORD PTR _temp$[ebp]
  002ad	51		 push	 ecx
  002ae	8d 95 f8 fd ff
	ff		 lea	 edx, DWORD PTR _outText$[ebp]
  002b4	52		 push	 edx
  002b5	e8 00 00 00 00	 call	 _memcpy
  002ba	83 c4 0c	 add	 esp, 12			; 0000000cH

; 441  : 				outText[i] = 0x0;

  002bd	8b 85 b8 fd ff
	ff		 mov	 eax, DWORD PTR _i$4[ebp]
  002c3	89 85 10 fc ff
	ff		 mov	 DWORD PTR $T1[ebp], eax
  002c9	81 bd 10 fc ff
	ff 00 02 00 00	 cmp	 DWORD PTR $T1[ebp], 512	; 00000200H
  002d3	73 02		 jae	 SHORT $LN17@NewStockFo
  002d5	eb 05		 jmp	 SHORT $LN18@NewStockFo
$LN17@NewStockFo:
  002d7	e8 00 00 00 00	 call	 ___report_rangecheckfailure
$LN18@NewStockFo:
  002dc	8b 8d 10 fc ff
	ff		 mov	 ecx, DWORD PTR $T1[ebp]
  002e2	c6 84 0d f8 fd
	ff ff 00	 mov	 BYTE PTR _outText$[ebp+ecx], 0

; 442  : 				SIZE fontsize;
; 443  : 				GetTextExtentPoint32(FontSizeHdc, (LPCSTR)outText, i, (LPSIZE)&fontsize);

  002ea	8b f4		 mov	 esi, esp
  002ec	8d 85 a8 fd ff
	ff		 lea	 eax, DWORD PTR _fontsize$3[ebp]
  002f2	50		 push	 eax
  002f3	8b 8d b8 fd ff
	ff		 mov	 ecx, DWORD PTR _i$4[ebp]
  002f9	51		 push	 ecx
  002fa	8d 95 f8 fd ff
	ff		 lea	 edx, DWORD PTR _outText$[ebp]
  00300	52		 push	 edx
  00301	a1 00 00 00 00	 mov	 eax, DWORD PTR ?FontSizeHdc@@3PAUHDC__@@A ; FontSizeHdc
  00306	50		 push	 eax
  00307	ff 15 00 00 00
	00		 call	 DWORD PTR __imp__GetTextExtentPoint32A@16
  0030d	3b f4		 cmp	 esi, esp
  0030f	e8 00 00 00 00	 call	 __RTC_CheckEsp

; 444  : 				chatbuffer->color = color;

  00314	8b 45 08	 mov	 eax, DWORD PTR _chatbuffer$[ebp]
  00317	8a 4d 10	 mov	 cl, BYTE PTR _color$[ebp]
  0031a	88 88 05 01 00
	00		 mov	 BYTE PTR [eax+261], cl

; 445  : 				chatbuffer->x = x;

  00320	8b 45 08	 mov	 eax, DWORD PTR _chatbuffer$[ebp]
  00323	8b 4d 0c	 mov	 ecx, DWORD PTR _x$[ebp]
  00326	89 88 10 01 00
	00		 mov	 DWORD PTR [eax+272], ecx

; 446  : 				strcpy(chatbuffer->buffer, outText);

  0032c	8d 85 f8 fd ff
	ff		 lea	 eax, DWORD PTR _outText$[ebp]
  00332	50		 push	 eax
  00333	8b 4d 08	 mov	 ecx, DWORD PTR _chatbuffer$[ebp]
  00336	51		 push	 ecx
  00337	e8 00 00 00 00	 call	 _strcpy
  0033c	83 c4 08	 add	 esp, 8

; 447  : 				x += fontsize.cx;

  0033f	8b 45 0c	 mov	 eax, DWORD PTR _x$[ebp]
  00342	03 85 a8 fd ff
	ff		 add	 eax, DWORD PTR _fontsize$3[ebp]
  00348	89 45 0c	 mov	 DWORD PTR _x$[ebp], eax

; 448  : 				temp += i;

  0034b	8b 85 ec fd ff
	ff		 mov	 eax, DWORD PTR _temp$[ebp]
  00351	03 85 b8 fd ff
	ff		 add	 eax, DWORD PTR _i$4[ebp]
  00357	89 85 ec fd ff
	ff		 mov	 DWORD PTR _temp$[ebp], eax
$LN13@NewStockFo:

; 449  : 			}
; 450  : 			chatbuffer->NextChatBuffer = (CHAT_BUFFER *)calloc(1, sizeof(CHAT_BUFFER));

  0035d	8b f4		 mov	 esi, esp
  0035f	68 4c 01 00 00	 push	 332			; 0000014cH
  00364	6a 01		 push	 1
  00366	ff 15 00 00 00
	00		 call	 DWORD PTR __imp__calloc
  0036c	83 c4 08	 add	 esp, 8
  0036f	3b f4		 cmp	 esi, esp
  00371	e8 00 00 00 00	 call	 __RTC_CheckEsp
  00376	8b 4d 08	 mov	 ecx, DWORD PTR _chatbuffer$[ebp]
  00379	89 81 14 01 00
	00		 mov	 DWORD PTR [ecx+276], eax

; 451  : 			NewStockFontBuffer(chatbuffer->NextChatBuffer, x, color, temp, size,id);

  0037f	8b 45 1c	 mov	 eax, DWORD PTR _id$[ebp]
  00382	50		 push	 eax
  00383	8b 4d 18	 mov	 ecx, DWORD PTR _size$[ebp]
  00386	51		 push	 ecx
  00387	8b 95 ec fd ff
	ff		 mov	 edx, DWORD PTR _temp$[ebp]
  0038d	52		 push	 edx
  0038e	0f b6 45 10	 movzx	 eax, BYTE PTR _color$[ebp]
  00392	50		 push	 eax
  00393	8b 4d 0c	 mov	 ecx, DWORD PTR _x$[ebp]
  00396	51		 push	 ecx
  00397	8b 55 08	 mov	 edx, DWORD PTR _chatbuffer$[ebp]
  0039a	8b 82 14 01 00
	00		 mov	 eax, DWORD PTR [edx+276]
  003a0	50		 push	 eax
  003a1	e8 00 00 00 00	 call	 ?NewStockFontBuffer@@YAXPAU_CHAT_BUFFER@@HEPADHH@Z ; NewStockFontBuffer
  003a6	83 c4 18	 add	 esp, 24			; 00000018H
$LN9@NewStockFo:

; 452  : 		}
; 453  : 	}else{

  003a9	eb 28		 jmp	 SHORT $LN14@NewStockFo
$LN6@NewStockFo:

; 454  : 		chatbuffer->color = color;

  003ab	8b 45 08	 mov	 eax, DWORD PTR _chatbuffer$[ebp]
  003ae	8a 4d 10	 mov	 cl, BYTE PTR _color$[ebp]
  003b1	88 88 05 01 00
	00		 mov	 BYTE PTR [eax+261], cl

; 455  : 		chatbuffer->x = x;

  003b7	8b 45 08	 mov	 eax, DWORD PTR _chatbuffer$[ebp]
  003ba	8b 4d 0c	 mov	 ecx, DWORD PTR _x$[ebp]
  003bd	89 88 10 01 00
	00		 mov	 DWORD PTR [eax+272], ecx

; 456  : 		strcpy(chatbuffer->buffer, str);

  003c3	8b 45 14	 mov	 eax, DWORD PTR _str$[ebp]
  003c6	50		 push	 eax
  003c7	8b 4d 08	 mov	 ecx, DWORD PTR _chatbuffer$[ebp]
  003ca	51		 push	 ecx
  003cb	e8 00 00 00 00	 call	 _strcpy
  003d0	83 c4 08	 add	 esp, 8
$LN14@NewStockFo:

; 457  : 	}
; 458  : }

  003d3	52		 push	 edx
  003d4	8b cd		 mov	 ecx, ebp
  003d6	50		 push	 eax
  003d7	8d 15 00 00 00
	00		 lea	 edx, DWORD PTR $LN23@NewStockFo
  003dd	e8 00 00 00 00	 call	 @_RTC_CheckStackVars@8
  003e2	58		 pop	 eax
  003e3	5a		 pop	 edx
  003e4	5f		 pop	 edi
  003e5	5e		 pop	 esi
  003e6	5b		 pop	 ebx
  003e7	8b 4d fc	 mov	 ecx, DWORD PTR __$ArrayPad$[ebp]
  003ea	33 cd		 xor	 ecx, ebp
  003ec	e8 00 00 00 00	 call	 @__security_check_cookie@4
  003f1	81 c4 f4 03 00
	00		 add	 esp, 1012		; 000003f4H
  003f7	3b ec		 cmp	 ebp, esp
  003f9	e8 00 00 00 00	 call	 __RTC_CheckEsp
  003fe	8b e5		 mov	 esp, ebp
  00400	5d		 pop	 ebp
  00401	c3		 ret	 0
  00402	66 90		 npad	 2
$LN23@NewStockFo:
  00404	03 00 00 00	 DD	 3
  00408	00 00 00 00	 DD	 $LN22@NewStockFo
$LN22@NewStockFo:
  0040c	f8 fd ff ff	 DD	 -520			; fffffdf8H
  00410	00 02 00 00	 DD	 512			; 00000200H
  00414	00 00 00 00	 DD	 $LN19@NewStockFo
  00418	d0 fd ff ff	 DD	 -560			; fffffdd0H
  0041c	08 00 00 00	 DD	 8
  00420	00 00 00 00	 DD	 $LN20@NewStockFo
  00424	a8 fd ff ff	 DD	 -600			; fffffda8H
  00428	08 00 00 00	 DD	 8
  0042c	00 00 00 00	 DD	 $LN21@NewStockFo
$LN21@NewStockFo:
  00430	66		 DB	 102			; 00000066H
  00431	6f		 DB	 111			; 0000006fH
  00432	6e		 DB	 110			; 0000006eH
  00433	74		 DB	 116			; 00000074H
  00434	73		 DB	 115			; 00000073H
  00435	69		 DB	 105			; 00000069H
  00436	7a		 DB	 122			; 0000007aH
  00437	65		 DB	 101			; 00000065H
  00438	00		 DB	 0
$LN20@NewStockFo:
  00439	66		 DB	 102			; 00000066H
  0043a	6f		 DB	 111			; 0000006fH
  0043b	6e		 DB	 110			; 0000006eH
  0043c	74		 DB	 116			; 00000074H
  0043d	73		 DB	 115			; 00000073H
  0043e	69		 DB	 105			; 00000069H
  0043f	7a		 DB	 122			; 0000007aH
  00440	65		 DB	 101			; 00000065H
  00441	00		 DB	 0
$LN19@NewStockFo:
  00442	6f		 DB	 111			; 0000006fH
  00443	75		 DB	 117			; 00000075H
  00444	74		 DB	 116			; 00000074H
  00445	54		 DB	 84			; 00000054H
  00446	65		 DB	 101			; 00000065H
  00447	78		 DB	 120			; 00000078H
  00448	74		 DB	 116			; 00000074H
  00449	00		 DB	 0
?NewStockFontBuffer@@YAXPAU_CHAT_BUFFER@@HEPADHH@Z ENDP	; NewStockFontBuffer
_TEXT	ENDS
; Function compile flags: /Odtp /RTCsu /ZI
; File c:\users\administrator\desktop\????? ??\????? ??\client source code\system\font.cpp
;	COMDAT ?sunday@@YAPADPAD0@Z
_TEXT	SEGMENT
_pos$ = -1104						; size = 4
_j$ = -1092						; size = 4
_i$ = -1080						; size = 4
_subLen$ = -1068					; size = 4
_strLen$ = -1056					; size = 4
_next$ = -1044						; size = 1024
_maxSize$ = -12						; size = 4
__$ArrayPad$ = -4					; size = 4
_str$ = 8						; size = 4
_subStr$ = 12						; size = 4
?sunday@@YAPADPAD0@Z PROC				; sunday, COMDAT

; 16   : char* sunday(char* str, char* subStr){

  00000	55		 push	 ebp
  00001	8b ec		 mov	 ebp, esp
  00003	81 ec 94 06 00
	00		 sub	 esp, 1684		; 00000694H
  00009	53		 push	 ebx
  0000a	56		 push	 esi
  0000b	57		 push	 edi
  0000c	8d bd 6c f9 ff
	ff		 lea	 edi, DWORD PTR [ebp-1684]
  00012	b9 a5 01 00 00	 mov	 ecx, 421		; 000001a5H
  00017	b8 cc cc cc cc	 mov	 eax, -858993460		; ccccccccH
  0001c	f3 ab		 rep stosd
  0001e	a1 00 00 00 00	 mov	 eax, DWORD PTR ___security_cookie
  00023	33 c5		 xor	 eax, ebp
  00025	89 45 fc	 mov	 DWORD PTR __$ArrayPad$[ebp], eax

; 17   : 	const int maxSize = 256;

  00028	c7 45 f4 00 01
	00 00		 mov	 DWORD PTR _maxSize$[ebp], 256 ; 00000100H

; 18   : 	int next[maxSize];
; 19   : 	int strLen = strlen(str);

  0002f	8b 45 08	 mov	 eax, DWORD PTR _str$[ebp]
  00032	50		 push	 eax
  00033	e8 00 00 00 00	 call	 _strlen
  00038	83 c4 04	 add	 esp, 4
  0003b	89 85 e0 fb ff
	ff		 mov	 DWORD PTR _strLen$[ebp], eax

; 20   : 	int subLen = strlen(subStr);

  00041	8b 45 0c	 mov	 eax, DWORD PTR _subStr$[ebp]
  00044	50		 push	 eax
  00045	e8 00 00 00 00	 call	 _strlen
  0004a	83 c4 04	 add	 esp, 4
  0004d	89 85 d4 fb ff
	ff		 mov	 DWORD PTR _subLen$[ebp], eax

; 21   : 	int i, j, pos;
; 22   : 	for (i = 0; i<maxSize; i++){

  00053	c7 85 c8 fb ff
	ff 00 00 00 00	 mov	 DWORD PTR _i$[ebp], 0
  0005d	eb 0f		 jmp	 SHORT $LN4@sunday
$LN2@sunday:
  0005f	8b 85 c8 fb ff
	ff		 mov	 eax, DWORD PTR _i$[ebp]
  00065	83 c0 01	 add	 eax, 1
  00068	89 85 c8 fb ff
	ff		 mov	 DWORD PTR _i$[ebp], eax
$LN4@sunday:
  0006e	81 bd c8 fb ff
	ff 00 01 00 00	 cmp	 DWORD PTR _i$[ebp], 256	; 00000100H
  00078	7d 18		 jge	 SHORT $LN3@sunday

; 23   : 		next[i] = subLen + 1;

  0007a	8b 85 d4 fb ff
	ff		 mov	 eax, DWORD PTR _subLen$[ebp]
  00080	83 c0 01	 add	 eax, 1
  00083	8b 8d c8 fb ff
	ff		 mov	 ecx, DWORD PTR _i$[ebp]
  00089	89 84 8d ec fb
	ff ff		 mov	 DWORD PTR _next$[ebp+ecx*4], eax

; 24   : 	}

  00090	eb cd		 jmp	 SHORT $LN2@sunday
$LN3@sunday:

; 25   : 	for (i = 0; i<subLen; i++){

  00092	c7 85 c8 fb ff
	ff 00 00 00 00	 mov	 DWORD PTR _i$[ebp], 0
  0009c	eb 0f		 jmp	 SHORT $LN7@sunday
$LN5@sunday:
  0009e	8b 85 c8 fb ff
	ff		 mov	 eax, DWORD PTR _i$[ebp]
  000a4	83 c0 01	 add	 eax, 1
  000a7	89 85 c8 fb ff
	ff		 mov	 DWORD PTR _i$[ebp], eax
$LN7@sunday:
  000ad	8b 85 c8 fb ff
	ff		 mov	 eax, DWORD PTR _i$[ebp]
  000b3	3b 85 d4 fb ff
	ff		 cmp	 eax, DWORD PTR _subLen$[ebp]
  000b9	7d 21		 jge	 SHORT $LN6@sunday

; 26   : 		next[(unsigned char)subStr[i]] = subLen - i;//ËÆ°ÁÆóÂ≠ê‰∏≤‰∏≠ÁöÑÂ≠óÁ¨¶Âà∞Â≠óÁ¨¶‰∏≤ÁªìÂ∞æÁöÑ\0‰πãÈó¥ÁöÑË∑ùÁ¶ª

  000bb	8b 85 d4 fb ff
	ff		 mov	 eax, DWORD PTR _subLen$[ebp]
  000c1	2b 85 c8 fb ff
	ff		 sub	 eax, DWORD PTR _i$[ebp]
  000c7	8b 4d 0c	 mov	 ecx, DWORD PTR _subStr$[ebp]
  000ca	03 8d c8 fb ff
	ff		 add	 ecx, DWORD PTR _i$[ebp]
  000d0	0f b6 11	 movzx	 edx, BYTE PTR [ecx]
  000d3	89 84 95 ec fb
	ff ff		 mov	 DWORD PTR _next$[ebp+edx*4], eax

; 27   : 	}

  000da	eb c2		 jmp	 SHORT $LN5@sunday
$LN6@sunday:

; 28   : 	pos = 0;

  000dc	c7 85 b0 fb ff
	ff 00 00 00 00	 mov	 DWORD PTR _pos$[ebp], 0
$LN8@sunday:

; 29   : 	while (pos <= (strLen - subLen)){

  000e6	8b 85 e0 fb ff
	ff		 mov	 eax, DWORD PTR _strLen$[ebp]
  000ec	2b 85 d4 fb ff
	ff		 sub	 eax, DWORD PTR _subLen$[ebp]
  000f2	39 85 b0 fb ff
	ff		 cmp	 DWORD PTR _pos$[ebp], eax
  000f8	0f 8f a8 00 00
	00		 jg	 $LN9@sunday

; 30   : 		i = pos;

  000fe	8b 85 b0 fb ff
	ff		 mov	 eax, DWORD PTR _pos$[ebp]
  00104	89 85 c8 fb ff
	ff		 mov	 DWORD PTR _i$[ebp], eax

; 31   : 		for (j = 0; j<subLen; j++, i++){

  0010a	c7 85 bc fb ff
	ff 00 00 00 00	 mov	 DWORD PTR _j$[ebp], 0
  00114	eb 1e		 jmp	 SHORT $LN12@sunday
$LN10@sunday:
  00116	8b 85 bc fb ff
	ff		 mov	 eax, DWORD PTR _j$[ebp]
  0011c	83 c0 01	 add	 eax, 1
  0011f	89 85 bc fb ff
	ff		 mov	 DWORD PTR _j$[ebp], eax
  00125	8b 8d c8 fb ff
	ff		 mov	 ecx, DWORD PTR _i$[ebp]
  0012b	83 c1 01	 add	 ecx, 1
  0012e	89 8d c8 fb ff
	ff		 mov	 DWORD PTR _i$[ebp], ecx
$LN12@sunday:
  00134	8b 85 bc fb ff
	ff		 mov	 eax, DWORD PTR _j$[ebp]
  0013a	3b 85 d4 fb ff
	ff		 cmp	 eax, DWORD PTR _subLen$[ebp]
  00140	7d 46		 jge	 SHORT $LN11@sunday

; 32   : 			if (str[i] != subStr[j]){

  00142	8b 45 08	 mov	 eax, DWORD PTR _str$[ebp]
  00145	03 85 c8 fb ff
	ff		 add	 eax, DWORD PTR _i$[ebp]
  0014b	0f be 08	 movsx	 ecx, BYTE PTR [eax]
  0014e	8b 55 0c	 mov	 edx, DWORD PTR _subStr$[ebp]
  00151	03 95 bc fb ff
	ff		 add	 edx, DWORD PTR _j$[ebp]
  00157	0f be 02	 movsx	 eax, BYTE PTR [edx]
  0015a	3b c8		 cmp	 ecx, eax
  0015c	74 28		 je	 SHORT $LN13@sunday

; 33   : 				pos += next[(unsigned char)str[pos + subLen]];//ÂêëÂêéÁßªÂä®

  0015e	8b 85 b0 fb ff
	ff		 mov	 eax, DWORD PTR _pos$[ebp]
  00164	03 85 d4 fb ff
	ff		 add	 eax, DWORD PTR _subLen$[ebp]
  0016a	8b 4d 08	 mov	 ecx, DWORD PTR _str$[ebp]
  0016d	0f b6 14 01	 movzx	 edx, BYTE PTR [ecx+eax]
  00171	8b 85 b0 fb ff
	ff		 mov	 eax, DWORD PTR _pos$[ebp]
  00177	03 84 95 ec fb
	ff ff		 add	 eax, DWORD PTR _next$[ebp+edx*4]
  0017e	89 85 b0 fb ff
	ff		 mov	 DWORD PTR _pos$[ebp], eax

; 34   : 				break;

  00184	eb 02		 jmp	 SHORT $LN11@sunday
$LN13@sunday:

; 35   : 			}
; 36   : 
; 37   : 		}

  00186	eb 8e		 jmp	 SHORT $LN10@sunday
$LN11@sunday:

; 38   : 		if (j == subLen){//ÊâæÂà∞Â≠ó‰∏≤ÔºåËøîÂõû

  00188	8b 85 bc fb ff
	ff		 mov	 eax, DWORD PTR _j$[ebp]
  0018e	3b 85 d4 fb ff
	ff		 cmp	 eax, DWORD PTR _subLen$[ebp]
  00194	75 0b		 jne	 SHORT $LN14@sunday

; 39   : 			return str + pos;

  00196	8b 45 08	 mov	 eax, DWORD PTR _str$[ebp]
  00199	03 85 b0 fb ff
	ff		 add	 eax, DWORD PTR _pos$[ebp]
  0019f	eb 07		 jmp	 SHORT $LN1@sunday
$LN14@sunday:

; 40   : 		}
; 41   : 	}

  001a1	e9 40 ff ff ff	 jmp	 $LN8@sunday
$LN9@sunday:

; 42   : 	return NULL;

  001a6	33 c0		 xor	 eax, eax
$LN1@sunday:

; 43   : }

  001a8	52		 push	 edx
  001a9	8b cd		 mov	 ecx, ebp
  001ab	50		 push	 eax
  001ac	8d 15 00 00 00
	00		 lea	 edx, DWORD PTR $LN18@sunday
  001b2	e8 00 00 00 00	 call	 @_RTC_CheckStackVars@8
  001b7	58		 pop	 eax
  001b8	5a		 pop	 edx
  001b9	5f		 pop	 edi
  001ba	5e		 pop	 esi
  001bb	5b		 pop	 ebx
  001bc	8b 4d fc	 mov	 ecx, DWORD PTR __$ArrayPad$[ebp]
  001bf	33 cd		 xor	 ecx, ebp
  001c1	e8 00 00 00 00	 call	 @__security_check_cookie@4
  001c6	81 c4 94 06 00
	00		 add	 esp, 1684		; 00000694H
  001cc	3b ec		 cmp	 ebp, esp
  001ce	e8 00 00 00 00	 call	 __RTC_CheckEsp
  001d3	8b e5		 mov	 esp, ebp
  001d5	5d		 pop	 ebp
  001d6	c3		 ret	 0
  001d7	90		 npad	 1
$LN18@sunday:
  001d8	01 00 00 00	 DD	 1
  001dc	00 00 00 00	 DD	 $LN17@sunday
$LN17@sunday:
  001e0	ec fb ff ff	 DD	 -1044			; fffffbecH
  001e4	00 04 00 00	 DD	 1024			; 00000400H
  001e8	00 00 00 00	 DD	 $LN16@sunday
$LN16@sunday:
  001ec	6e		 DB	 110			; 0000006eH
  001ed	65		 DB	 101			; 00000065H
  001ee	78		 DB	 120			; 00000078H
  001ef	74		 DB	 116			; 00000074H
  001f0	00		 DB	 0
?sunday@@YAPADPAD0@Z ENDP				; sunday
_TEXT	ENDS
; Function compile flags: /Odtp /RTCsu /ZI
; File c:\program files (x86)\windows kits\10\include\10.0.10240.0\ucrt\stdio.h
;	COMDAT _sprintf
_TEXT	SEGMENT
__ArgList$ = -20					; size = 4
__Result$ = -8						; size = 4
__Buffer$ = 8						; size = 4
__Format$ = 12						; size = 4
_sprintf PROC						; COMDAT

; 1776 : {

  00000	55		 push	 ebp
  00001	8b ec		 mov	 ebp, esp
  00003	81 ec d8 00 00
	00		 sub	 esp, 216		; 000000d8H
  00009	53		 push	 ebx
  0000a	56		 push	 esi
  0000b	57		 push	 edi
  0000c	8d bd 28 ff ff
	ff		 lea	 edi, DWORD PTR [ebp-216]
  00012	b9 36 00 00 00	 mov	 ecx, 54			; 00000036H
  00017	b8 cc cc cc cc	 mov	 eax, -858993460		; ccccccccH
  0001c	f3 ab		 rep stosd

; 1777 :     int _Result;
; 1778 :     va_list _ArgList;
; 1779 :     __crt_va_start(_ArgList, _Format);

  0001e	e8 00 00 00 00	 call	 ??$__vcrt_va_start_verify_argument_type@QBD@@YAXXZ ; __vcrt_va_start_verify_argument_type<char const * const>
  00023	8d 45 10	 lea	 eax, DWORD PTR __Format$[ebp+4]
  00026	89 45 ec	 mov	 DWORD PTR __ArgList$[ebp], eax

; 1780 : 
; 1781 :     #pragma warning(push)
; 1782 :     #pragma warning(disable: 4996) // Deprecation
; 1783 :     _Result = _vsprintf_l(_Buffer, _Format, NULL, _ArgList);

  00029	8b 45 ec	 mov	 eax, DWORD PTR __ArgList$[ebp]
  0002c	50		 push	 eax
  0002d	6a 00		 push	 0
  0002f	8b 4d 0c	 mov	 ecx, DWORD PTR __Format$[ebp]
  00032	51		 push	 ecx
  00033	8b 55 08	 mov	 edx, DWORD PTR __Buffer$[ebp]
  00036	52		 push	 edx
  00037	e8 00 00 00 00	 call	 __vsprintf_l
  0003c	83 c4 10	 add	 esp, 16			; 00000010H
  0003f	89 45 f8	 mov	 DWORD PTR __Result$[ebp], eax

; 1784 :     #pragma warning(pop)
; 1785 : 
; 1786 :     __crt_va_end(_ArgList);

  00042	c7 45 ec 00 00
	00 00		 mov	 DWORD PTR __ArgList$[ebp], 0

; 1787 :     return _Result;

  00049	8b 45 f8	 mov	 eax, DWORD PTR __Result$[ebp]

; 1788 : }

  0004c	5f		 pop	 edi
  0004d	5e		 pop	 esi
  0004e	5b		 pop	 ebx
  0004f	81 c4 d8 00 00
	00		 add	 esp, 216		; 000000d8H
  00055	3b ec		 cmp	 ebp, esp
  00057	e8 00 00 00 00	 call	 __RTC_CheckEsp
  0005c	8b e5		 mov	 esp, ebp
  0005e	5d		 pop	 ebp
  0005f	c3		 ret	 0
_sprintf ENDP
_TEXT	ENDS
; Function compile flags: /Odtp /RTCsu /ZI
; File c:\program files (x86)\windows kits\10\include\10.0.10240.0\ucrt\stdio.h
;	COMDAT __vsprintf_l
_TEXT	SEGMENT
__Buffer$ = 8						; size = 4
__Format$ = 12						; size = 4
__Locale$ = 16						; size = 4
__ArgList$ = 20						; size = 4
__vsprintf_l PROC					; COMDAT

; 1455 : {

  00000	55		 push	 ebp
  00001	8b ec		 mov	 ebp, esp
  00003	81 ec c0 00 00
	00		 sub	 esp, 192		; 000000c0H
  00009	53		 push	 ebx
  0000a	56		 push	 esi
  0000b	57		 push	 edi
  0000c	8d bd 40 ff ff
	ff		 lea	 edi, DWORD PTR [ebp-192]
  00012	b9 30 00 00 00	 mov	 ecx, 48			; 00000030H
  00017	b8 cc cc cc cc	 mov	 eax, -858993460		; ccccccccH
  0001c	f3 ab		 rep stosd

; 1456 :     #pragma warning(push)
; 1457 :     #pragma warning(disable: 4996) // Deprecation
; 1458 :     return _vsnprintf_l(_Buffer, (size_t)-1, _Format, _Locale, _ArgList);

  0001e	8b 45 14	 mov	 eax, DWORD PTR __ArgList$[ebp]
  00021	50		 push	 eax
  00022	8b 4d 10	 mov	 ecx, DWORD PTR __Locale$[ebp]
  00025	51		 push	 ecx
  00026	8b 55 0c	 mov	 edx, DWORD PTR __Format$[ebp]
  00029	52		 push	 edx
  0002a	6a ff		 push	 -1
  0002c	8b 45 08	 mov	 eax, DWORD PTR __Buffer$[ebp]
  0002f	50		 push	 eax
  00030	e8 00 00 00 00	 call	 __vsnprintf_l
  00035	83 c4 14	 add	 esp, 20			; 00000014H

; 1459 :     #pragma warning(pop)
; 1460 : }

  00038	5f		 pop	 edi
  00039	5e		 pop	 esi
  0003a	5b		 pop	 ebx
  0003b	81 c4 c0 00 00
	00		 add	 esp, 192		; 000000c0H
  00041	3b ec		 cmp	 ebp, esp
  00043	e8 00 00 00 00	 call	 __RTC_CheckEsp
  00048	8b e5		 mov	 esp, ebp
  0004a	5d		 pop	 ebp
  0004b	c3		 ret	 0
__vsprintf_l ENDP
_TEXT	ENDS
; Function compile flags: /Odtp /RTCsu /ZI
; File c:\program files (x86)\windows kits\10\include\10.0.10240.0\ucrt\stdio.h
;	COMDAT __vsnprintf_l
_TEXT	SEGMENT
tv74 = -208						; size = 4
__Result$ = -8						; size = 4
__Buffer$ = 8						; size = 4
__BufferCount$ = 12					; size = 4
__Format$ = 16						; size = 4
__Locale$ = 20						; size = 4
__ArgList$ = 24						; size = 4
__vsnprintf_l PROC					; COMDAT

; 1385 : {

  00000	55		 push	 ebp
  00001	8b ec		 mov	 ebp, esp
  00003	81 ec d0 00 00
	00		 sub	 esp, 208		; 000000d0H
  00009	53		 push	 ebx
  0000a	56		 push	 esi
  0000b	57		 push	 edi
  0000c	8d bd 30 ff ff
	ff		 lea	 edi, DWORD PTR [ebp-208]
  00012	b9 34 00 00 00	 mov	 ecx, 52			; 00000034H
  00017	b8 cc cc cc cc	 mov	 eax, -858993460		; ccccccccH
  0001c	f3 ab		 rep stosd

; 1386 :     int const _Result = __stdio_common_vsprintf(

  0001e	8b f4		 mov	 esi, esp
  00020	8b 45 18	 mov	 eax, DWORD PTR __ArgList$[ebp]
  00023	50		 push	 eax
  00024	8b 4d 14	 mov	 ecx, DWORD PTR __Locale$[ebp]
  00027	51		 push	 ecx
  00028	8b 55 10	 mov	 edx, DWORD PTR __Format$[ebp]
  0002b	52		 push	 edx
  0002c	8b 45 0c	 mov	 eax, DWORD PTR __BufferCount$[ebp]
  0002f	50		 push	 eax
  00030	8b 4d 08	 mov	 ecx, DWORD PTR __Buffer$[ebp]
  00033	51		 push	 ecx
  00034	e8 00 00 00 00	 call	 ___local_stdio_printf_options
  00039	8b 10		 mov	 edx, DWORD PTR [eax]
  0003b	83 ca 01	 or	 edx, 1
  0003e	8b 40 04	 mov	 eax, DWORD PTR [eax+4]
  00041	50		 push	 eax
  00042	52		 push	 edx
  00043	ff 15 00 00 00
	00		 call	 DWORD PTR __imp____stdio_common_vsprintf
  00049	83 c4 1c	 add	 esp, 28			; 0000001cH
  0004c	3b f4		 cmp	 esi, esp
  0004e	e8 00 00 00 00	 call	 __RTC_CheckEsp
  00053	89 45 f8	 mov	 DWORD PTR __Result$[ebp], eax

; 1387 :         _CRT_INTERNAL_LOCAL_PRINTF_OPTIONS | _CRT_INTERNAL_PRINTF_LEGACY_VSPRINTF_NULL_TERMINATION,
; 1388 :         _Buffer, _BufferCount, _Format, _Locale, _ArgList);
; 1389 : 
; 1390 :     return _Result < 0 ? -1 : _Result;

  00056	83 7d f8 00	 cmp	 DWORD PTR __Result$[ebp], 0
  0005a	7d 0c		 jge	 SHORT $LN3@vsnprintf_
  0005c	c7 85 30 ff ff
	ff ff ff ff ff	 mov	 DWORD PTR tv74[ebp], -1
  00066	eb 09		 jmp	 SHORT $LN4@vsnprintf_
$LN3@vsnprintf_:
  00068	8b 45 f8	 mov	 eax, DWORD PTR __Result$[ebp]
  0006b	89 85 30 ff ff
	ff		 mov	 DWORD PTR tv74[ebp], eax
$LN4@vsnprintf_:
  00071	8b 85 30 ff ff
	ff		 mov	 eax, DWORD PTR tv74[ebp]

; 1391 : }

  00077	5f		 pop	 edi
  00078	5e		 pop	 esi
  00079	5b		 pop	 ebx
  0007a	81 c4 d0 00 00
	00		 add	 esp, 208		; 000000d0H
  00080	3b ec		 cmp	 ebp, esp
  00082	e8 00 00 00 00	 call	 __RTC_CheckEsp
  00087	8b e5		 mov	 esp, ebp
  00089	5d		 pop	 ebp
  0008a	c3		 ret	 0
__vsnprintf_l ENDP
_TEXT	ENDS
; Function compile flags: /Odtp /RTCsu /ZI
; File c:\program files (x86)\microsoft visual studio 14.0\vc\include\vadefs.h
;	COMDAT ??$__vcrt_va_start_verify_argument_type@QBD@@YAXXZ
_TEXT	SEGMENT
??$__vcrt_va_start_verify_argument_type@QBD@@YAXXZ PROC	; __vcrt_va_start_verify_argument_type<char const * const>, COMDAT

; 144  :         {

  00000	55		 push	 ebp
  00001	8b ec		 mov	 ebp, esp
  00003	81 ec c0 00 00
	00		 sub	 esp, 192		; 000000c0H
  00009	53		 push	 ebx
  0000a	56		 push	 esi
  0000b	57		 push	 edi
  0000c	8d bd 40 ff ff
	ff		 lea	 edi, DWORD PTR [ebp-192]
  00012	b9 30 00 00 00	 mov	 ecx, 48			; 00000030H
  00017	b8 cc cc cc cc	 mov	 eax, -858993460		; ccccccccH
  0001c	f3 ab		 rep stosd

; 145  :             static_assert(!__vcrt_va_list_is_reference<_Ty>::__the_value, "va_start argument must not have reference type and must not be parenthesized");
; 146  :         }

  0001e	5f		 pop	 edi
  0001f	5e		 pop	 esi
  00020	5b		 pop	 ebx
  00021	8b e5		 mov	 esp, ebp
  00023	5d		 pop	 ebp
  00024	c3		 ret	 0
??$__vcrt_va_start_verify_argument_type@QBD@@YAXXZ ENDP	; __vcrt_va_start_verify_argument_type<char const * const>
_TEXT	ENDS
; Function compile flags: /Odtp /RTCsu /ZI
; File c:\program files (x86)\windows kits\10\include\10.0.10240.0\ucrt\corecrt_stdio_config.h
;	COMDAT ___local_stdio_printf_options
_TEXT	SEGMENT
___local_stdio_printf_options PROC			; COMDAT

; 73   : {

  00000	55		 push	 ebp
  00001	8b ec		 mov	 ebp, esp
  00003	81 ec c0 00 00
	00		 sub	 esp, 192		; 000000c0H
  00009	53		 push	 ebx
  0000a	56		 push	 esi
  0000b	57		 push	 edi
  0000c	8d bd 40 ff ff
	ff		 lea	 edi, DWORD PTR [ebp-192]
  00012	b9 30 00 00 00	 mov	 ecx, 48			; 00000030H
  00017	b8 cc cc cc cc	 mov	 eax, -858993460		; ccccccccH
  0001c	f3 ab		 rep stosd

; 74   :     static unsigned __int64 _OptionsStorage;
; 75   :     return &_OptionsStorage;

  0001e	b8 00 00 00 00	 mov	 eax, OFFSET ?_OptionsStorage@?1??__local_stdio_printf_options@@9@4_KA ; `__local_stdio_printf_options'::`2'::_OptionsStorage

; 76   : }

  00023	5f		 pop	 edi
  00024	5e		 pop	 esi
  00025	5b		 pop	 ebx
  00026	8b e5		 mov	 esp, ebp
  00028	5d		 pop	 ebp
  00029	c3		 ret	 0
___local_stdio_printf_options ENDP
_TEXT	ENDS
END
