; Listing generated by Microsoft (R) Optimizing Compiler Version 19.00.24215.1 

	TITLE	C:\Users\Administrator\Desktop\????? ??\????? ??\Client Source Code\system\gamemain.cpp
	.686P
	.XMM
	include listing.inc
	.model	flat

INCLUDELIB MSVCRTD
INCLUDELIB OLDNAMES

PUBLIC	?是否重开登组队_1@@3HA				; 是否重开登组队_1
PUBLIC	?NO_DRAW_MAX_CNT@@3HA				; NO_DRAW_MAX_CNT
PUBLIC	?testCnt@@3HA					; testCnt
PUBLIC	?no_wait_cnt@@3DA				; no_wait_cnt
PUBLIC	?debug_info_flag@@3HA				; debug_info_flag
PUBLIC	?FrameRate@@3HA					; FrameRate
PUBLIC	?DrawFrameCnt@@3HA				; DrawFrameCnt
PUBLIC	?DrawFrameTime@@3KA				; DrawFrameTime
PUBLIC	?ProcTime@@3KA					; ProcTime
PUBLIC	?SystemTime@@3KA				; SystemTime
PUBLIC	?NoDrawCnt@@3HA					; NoDrawCnt
PUBLIC	?公告数量@@3HA					; 公告数量
PUBLIC	?公告内容@@3PADA				; 公告内容
PUBLIC	?公告颜色@@3HA					; 公告颜色
PUBLIC	?公告时间@@3HA					; 公告时间
PUBLIC	?dis@@3HA					; dis
PUBLIC	?GameSpeedFlag@@3HA				; GameSpeedFlag
PUBLIC	?HideSa@@3HA					; HideSa
PUBLIC	?sz@@3PADA					; sz
PUBLIC	?编码@@3HA					; 编码
PUBLIC	?BackBufferDrawType@@3HA			; BackBufferDrawType
PUBLIC	?GameState@@3HA					; GameState
PUBLIC	?NowTime@@3KA					; NowTime
_BSS	SEGMENT
?是否重开登组队_1@@3HA DD 01H DUP (?)			; 是否重开登组队_1
?testCnt@@3HA DD 01H DUP (?)				; testCnt
?no_wait_cnt@@3DA DB 01H DUP (?)			; no_wait_cnt
	ALIGN	4

?debug_info_flag@@3HA DD 01H DUP (?)			; debug_info_flag
?FrameRate@@3HA DD 01H DUP (?)				; FrameRate
?DrawFrameCnt@@3HA DD 01H DUP (?)			; DrawFrameCnt
?DrawFrameTime@@3KA DD 01H DUP (?)			; DrawFrameTime
?公告数量@@3HA DD 01H DUP (?)				; 公告数量
?公告内容@@3PADA DB 0200H DUP (?)			; 公告内容
?公告时间@@3HA DD 01H DUP (?)				; 公告时间
?dis@@3HA DD	01H DUP (?)				; dis
?GameSpeedFlag@@3HA DD 01H DUP (?)			; GameSpeedFlag
?HideSa@@3HA DD	01H DUP (?)				; HideSa
?sz@@3PADA DB	020H DUP (?)				; sz
?编码@@3HA DD	01H DUP (?)				; 编码
?prePushTime@?P@??GameMain@@YAHXZ@4IA DD 01H DUP (?)	; `GameMain'::`15'::prePushTime
?重新登陆原地开始时间@?6??GameMain@@YAHXZ@4HA DD 01H DUP (?) ; `GameMain'::`7'::重新登陆原地开始时间
?重新登陆AI开始时间@?6??GameMain@@YAHXZ@4HA DD 01H DUP (?) ; `GameMain'::`7'::重新登陆AI开始时间
?重新登陆方向开始时间@?6??GameMain@@YAHXZ@4HA DD 01H DUP (?) ; `GameMain'::`7'::重新登陆方向开始时间
?重新登陆组队开始时间@?6??GameMain@@YAHXZ@4HA DD 01H DUP (?) ; `GameMain'::`7'::重新登陆组队开始时间
?重新登陆喊话开始时间@?6??GameMain@@YAHXZ@4HA DD 01H DUP (?) ; `GameMain'::`7'::重新登陆喊话开始时间
?开组队开始时间@?6??GameMain@@YAHXZ@4HA DD 01H DUP (?)	; `GameMain'::`7'::开组队开始时间
?BackBufferDrawType@@3HA DD 01H DUP (?)			; BackBufferDrawType
?GameState@@3HA DD 01H DUP (?)				; GameState
?NowTime@@3KA DD 01H DUP (?)				; NowTime
_BSS	ENDS
_DATA	SEGMENT
?ridePetTable@@3PAUtagRidePetTable@@A DD 018a88H	; ridePetTable
	DD	0186a0H
	DD	018800H
	DD	00H
	DD	018a89H
	DD	0186a5H
	DD	018800H
	DD	00H
	DD	018a8aH
	DD	0186aaH
	DD	018800H
	DD	00H
	DD	018a8bH
	DD	0186afH
	DD	018800H
	DD	00H
	DD	018a8cH
	DD	0186a0H
	DD	0187e9H
	DD	00H
	DD	018a8dH
	DD	0186a5H
	DD	0187e7H
	DD	00H
	DD	018a8eH
	DD	0186aaH
	DD	0187eaH
	DD	00H
	DD	018a8fH
	DD	0186afH
	DD	0187e8H
	DD	00H
	DD	018a90H
	DD	01895cH
	DD	018814H
	DD	00H
	DD	018a91H
	DD	018961H
	DD	018815H
	DD	00H
	DD	018e65H
	DD	018961H
	DD	018cc8H
	DD	00H
	DD	018e5aH
	DD	018961H
	DD	018c9cH
	DD	00H
	DD	018a92H
	DD	0186b4H
	DD	01882cH
	DD	00H
	DD	018a93H
	DD	0186b9H
	DD	01882cH
	DD	00H
	DD	018a94H
	DD	0186beH
	DD	01882cH
	DD	00H
	DD	018a95H
	DD	0186c3H
	DD	01882cH
	DD	00H
	DD	018a96H
	DD	0186b4H
	DD	0187e8H
	DD	00H
	DD	018a97H
	DD	0186b9H
	DD	0187e9H
	DD	00H
	DD	018a98H
	DD	0186beH
	DD	0187e7H
	DD	00H
	DD	018a99H
	DD	0186c3H
	DD	0187eaH
	DD	00H
	DD	018a9aH
	DD	018966H
	DD	018814H
	DD	00H
	DD	018a9bH
	DD	01896bH
	DD	018815H
	DD	00H
	DD	018e64H
	DD	01896bH
	DD	018cc8H
	DD	00H
	DD	018e62H
	DD	01896bH
	DD	018c9cH
	DD	00H
	DD	018a9cH
	DD	0186c8H
	DD	0187ffH
	DD	00H
	DD	018a9dH
	DD	0186cdH
	DD	0187ffH
	DD	00H
	DD	018a9eH
	DD	0186d2H
	DD	0187ffH
	DD	00H
	DD	018a9fH
	DD	0186d7H
	DD	0187ffH
	DD	00H
	DD	018aa0H
	DD	0186c8H
	DD	0187e8H
	DD	00H
	DD	018aa1H
	DD	0186cdH
	DD	0187eaH
	DD	00H
	DD	018aa2H
	DD	0186d2H
	DD	0187e7H
	DD	00H
	DD	018aa3H
	DD	0186d7H
	DD	0187e9H
	DD	00H
	DD	018aa4H
	DD	018970H
	DD	018814H
	DD	00H
	DD	018aa5H
	DD	018975H
	DD	018815H
	DD	00H
	DD	018e4dH
	DD	018975H
	DD	018cc8H
	DD	00H
	DD	018e57H
	DD	018975H
	DD	018c9cH
	DD	00H
	DD	018aa6H
	DD	0186dcH
	DD	018801H
	DD	00H
	DD	018aa7H
	DD	0186e1H
	DD	018801H
	DD	00H
	DD	018aa8H
	DD	0186e6H
	DD	018801H
	DD	00H
	DD	018aa9H
	DD	0186ebH
	DD	018801H
	DD	00H
	DD	018aaaH
	DD	0186dcH
	DD	0187e9H
	DD	00H
	DD	018aabH
	DD	0186e1H
	DD	0187e7H
	DD	00H
	DD	018aacH
	DD	0186e6H
	DD	0187eaH
	DD	00H
	DD	018aadH
	DD	0186ebH
	DD	0187e8H
	DD	00H
	DD	018aaeH
	DD	01897aH
	DD	018814H
	DD	00H
	DD	018aafH
	DD	01897fH
	DD	018815H
	DD	00H
	DD	018e4eH
	DD	01897fH
	DD	018cc8H
	DD	00H
	DD	018e58H
	DD	01897fH
	DD	018c9cH
	DD	00H
	DD	018ab0H
	DD	0186f0H
	DD	01882cH
	DD	00H
	DD	018ab1H
	DD	0186f5H
	DD	01882cH
	DD	00H
	DD	018ab2H
	DD	0186faH
	DD	01882cH
	DD	00H
	DD	018ab3H
	DD	0186ffH
	DD	01882cH
	DD	00H
	DD	018ab4H
	DD	0186f0H
	DD	0187e8H
	DD	00H
	DD	018ab5H
	DD	0186f5H
	DD	0187e7H
	DD	00H
	DD	018ab6H
	DD	0186faH
	DD	0187eaH
	DD	00H
	DD	018ab7H
	DD	0186ffH
	DD	0187e9H
	DD	00H
	DD	018ab8H
	DD	018984H
	DD	018814H
	DD	00H
	DD	018ab9H
	DD	018989H
	DD	018815H
	DD	00H
	DD	018e55H
	DD	018989H
	DD	018cc8H
	DD	00H
	DD	018e60H
	DD	018989H
	DD	018c9cH
	DD	00H
	DD	018abaH
	DD	018704H
	DD	018801H
	DD	00H
	DD	018abbH
	DD	018709H
	DD	018801H
	DD	00H
	DD	018abcH
	DD	01870eH
	DD	018801H
	DD	00H
	DD	018abdH
	DD	018713H
	DD	018801H
	DD	00H
	DD	018abeH
	DD	018704H
	DD	0187e9H
	DD	00H
	DD	018abfH
	DD	018709H
	DD	0187e8H
	DD	00H
	DD	018ac0H
	DD	01870eH
	DD	0187eaH
	DD	00H
	DD	018ac1H
	DD	018713H
	DD	0187e7H
	DD	00H
	DD	018ac2H
	DD	01898eH
	DD	018814H
	DD	00H
	DD	018ac3H
	DD	018993H
	DD	018815H
	DD	00H
	DD	018e56H
	DD	018993H
	DD	018cc8H
	DD	00H
	DD	018e61H
	DD	018993H
	DD	018c9cH
	DD	00H
	DD	018ac4H
	DD	018718H
	DD	018802H
	DD	00H
	DD	018ac5H
	DD	01871dH
	DD	018802H
	DD	00H
	DD	018ac6H
	DD	018722H
	DD	018802H
	DD	00H
	DD	018ac7H
	DD	018727H
	DD	018802H
	DD	00H
	DD	018ac8H
	DD	018718H
	DD	0187e7H
	DD	00H
	DD	018ac9H
	DD	01871dH
	DD	0187eaH
	DD	00H
	DD	018acaH
	DD	018722H
	DD	0187e8H
	DD	00H
	DD	018acbH
	DD	018727H
	DD	0187e9H
	DD	00H
	DD	018accH
	DD	018998H
	DD	018814H
	DD	00H
	DD	018acdH
	DD	01899dH
	DD	018815H
	DD	00H
	DD	018e4fH
	DD	01899dH
	DD	018cc8H
	DD	00H
	DD	018e59H
	DD	01899dH
	DD	018c9cH
	DD	00H
	DD	018aceH
	DD	01872cH
	DD	018802H
	DD	00H
	DD	018acfH
	DD	018731H
	DD	018802H
	DD	00H
	DD	018ad0H
	DD	018736H
	DD	018802H
	DD	00H
	DD	018ad1H
	DD	01873bH
	DD	018802H
	DD	00H
	DD	018ad2H
	DD	01872cH
	DD	0187e7H
	DD	00H
	DD	018ad3H
	DD	018731H
	DD	0187e9H
	DD	00H
	DD	018ad4H
	DD	018736H
	DD	0187eaH
	DD	00H
	DD	018ad5H
	DD	01873bH
	DD	0187e8H
	DD	00H
	DD	018ad6H
	DD	0189a2H
	DD	018814H
	DD	00H
	DD	018ad7H
	DD	0189a7H
	DD	018815H
	DD	00H
	DD	018e50H
	DD	0189a7H
	DD	018cc8H
	DD	00H
	DD	018e5bH
	DD	0189a7H
	DD	018c9cH
	DD	00H
	DD	018ad8H
	DD	018740H
	DD	018800H
	DD	00H
	DD	018ad9H
	DD	018745H
	DD	018800H
	DD	00H
	DD	018adaH
	DD	01874aH
	DD	018800H
	DD	00H
	DD	018adbH
	DD	01874fH
	DD	018800H
	DD	00H
	DD	018adcH
	DD	018740H
	DD	0187eaH
	DD	00H
	DD	018addH
	DD	018745H
	DD	0187e9H
	DD	00H
	DD	018adeH
	DD	01874aH
	DD	0187e7H
	DD	00H
	DD	018adfH
	DD	01874fH
	DD	0187e8H
	DD	00H
	DD	018ae0H
	DD	0189acH
	DD	018814H
	DD	00H
	DD	018ae1H
	DD	0189b1H
	DD	018815H
	DD	00H
	DD	018e52H
	DD	0189b1H
	DD	018cc8H
	DD	00H
	DD	018e5dH
	DD	0189b1H
	DD	018c9cH
	DD	00H
	DD	018ae2H
	DD	018754H
	DD	0187ffH
	DD	00H
	DD	018ae3H
	DD	018759H
	DD	0187ffH
	DD	00H
	DD	018ae4H
	DD	01875eH
	DD	0187ffH
	DD	00H
	DD	018ae5H
	DD	018763H
	DD	0187ffH
	DD	00H
	DD	018ae6H
	DD	018754H
	DD	0187e8H
	DD	00H
	DD	018ae7H
	DD	018759H
	DD	0187eaH
	DD	00H
	DD	018ae8H
	DD	01875eH
	DD	0187e9H
	DD	00H
	DD	018ae9H
	DD	018763H
	DD	0187e7H
	DD	00H
	DD	018aeaH
	DD	0189b6H
	DD	018814H
	DD	00H
	DD	018aebH
	DD	0189bbH
	DD	018815H
	DD	00H
	DD	018e51H
	DD	0189bbH
	DD	018cc8H
	DD	00H
	DD	018e5cH
	DD	0189bbH
	DD	018c9cH
	DD	00H
	DD	018aecH
	DD	018768H
	DD	018801H
	DD	00H
	DD	018aedH
	DD	01876dH
	DD	018801H
	DD	00H
	DD	018aeeH
	DD	018772H
	DD	018801H
	DD	00H
	DD	018aefH
	DD	018777H
	DD	018801H
	DD	00H
	DD	018af0H
	DD	018768H
	DD	0187e9H
	DD	00H
	DD	018af1H
	DD	01876dH
	DD	0187e8H
	DD	00H
	DD	018af2H
	DD	018772H
	DD	0187e7H
	DD	00H
	DD	018af3H
	DD	018777H
	DD	0187eaH
	DD	00H
	DD	018af4H
	DD	0189c0H
	DD	018814H
	DD	00H
	DD	018af5H
	DD	0189c5H
	DD	018815H
	DD	00H
	DD	018e54H
	DD	0189c5H
	DD	018cc8H
	DD	00H
	DD	018e5fH
	DD	0189c5H
	DD	018c9cH
	DD	00H
	DD	018af6H
	DD	01877cH
	DD	01882cH
	DD	00H
	DD	018af7H
	DD	018781H
	DD	01882cH
	DD	00H
	DD	018af8H
	DD	018786H
	DD	01882cH
	DD	00H
	DD	018af9H
	DD	01878bH
	DD	01882cH
	DD	00H
	DD	018afaH
	DD	01877cH
	DD	0187eaH
	DD	00H
	DD	018afbH
	DD	018781H
	DD	0187e7H
	DD	00H
	DD	018afcH
	DD	018786H
	DD	0187e9H
	DD	00H
	DD	018afdH
	DD	01878bH
	DD	0187e8H
	DD	00H
	DD	018afeH
	DD	0189caH
	DD	018814H
	DD	00H
	DD	018affH
	DD	0189cfH
	DD	018815H
	DD	00H
	DD	018e53H
	DD	0189cfH
	DD	018cc8H
	DD	00H
	DD	018e5eH
	DD	0189cfH
	DD	018c9cH
	DD	00H
	DD	018b3bH
	DD	018b39H
	DD	018b3aH
	DD	00H
	DD	018b3bH
	DD	018b3aH
	DD	018b39H
	DD	00H
?RideCodeMode@@3PAUtagRideCodeMode@@A DD 018816H	; RideCodeMode
	DD	01H
	DD	018806H
	DD	02H
	DD	01880aH
	DD	04H
	DD	0187b7H
	DD	08H
	DD	0187c0H
	DD	010H
	DD	0187bbH
	DD	020H
	DD	0187faH
	DD	040H
	DD	0187d6H
	DD	080H
	DD	018814H
	DD	0100H
	DD	018815H
	DD	0200H
	DD	018c9cH
	DD	0800H
	DD	018cc8H
	DD	0400H
	DD	018812H
	DD	01000H
	DD	018811H
	DD	02000H
	DD	018a28H
	DD	04000H
	DD	018a2bH
	DD	08000H
	DD	018f30H
	DD	010000H
	DD	018f31H
	DD	020000H
	DD	018f68H
	DD	040000H
	DD	0187fcH
	DD	080000H
	DD	0187d3H
	DD	0100000H
	DD	018fa9H
	DD	0200000H
	DD	018faaH
	DD	0400000H
	DD	018a09H
	DD	0800000H
	DD	018a0aH
	DD	01000000H
	DD	019394H
	DD	02000000H
	DD	0187b2H
	DD	04000000H
?RideNoList@@3PAUtagRideNoList@@A DD 018bb9H		; RideNoList
	DD	018bbaH
	DD	018bbbH
	DD	018bbcH
	DD	018bbdH
	DD	018bbeH
	DD	018bbfH
	DD	018bc0H
	DD	018a90H
	DD	018a91H
	DD	018e5aH
	DD	018e65H
	DD	018849H
	DD	018844H
	DD	01885dH
	DD	018ee5H
	DD	018f0dH
	DD	018f19H
	DD	018f76H
	ORG $+32
	DD	018bc1H
	DD	018bc2H
	DD	018bc3H
	DD	018bc4H
	DD	018bc5H
	DD	018bc6H
	DD	018bc7H
	DD	018bc8H
	DD	018a9aH
	DD	018a9bH
	DD	018e62H
	DD	018e64H
	DD	018849H
	DD	018844H
	DD	01885dH
	DD	018ee6H
	DD	018f0eH
	DD	018f1aH
	DD	018f77H
	ORG $+32
	DD	018bc9H
	DD	018bcaH
	DD	018bcbH
	DD	018bccH
	DD	018bcdH
	DD	018bceH
	DD	018bcfH
	DD	018bd0H
	DD	018aa4H
	DD	018aa5H
	DD	018e57H
	DD	018e4dH
	DD	018849H
	DD	018844H
	DD	01885dH
	DD	018ee7H
	DD	018f0fH
	DD	018f1bH
	DD	018f78H
	ORG $+32
	DD	018bd1H
	DD	018bd2H
	DD	018bd3H
	DD	018bd4H
	DD	018bd5H
	DD	018bd6H
	DD	018bd7H
	DD	018bd8H
	DD	018aaeH
	DD	018aafH
	DD	018e58H
	DD	018e4eH
	DD	018849H
	DD	018844H
	DD	01885dH
	DD	018ee8H
	DD	018f10H
	DD	018f1cH
	DD	018f79H
	ORG $+32
	DD	018bd9H
	DD	018bdaH
	DD	018bdbH
	DD	018bdcH
	DD	018bddH
	DD	018bdeH
	DD	018bdfH
	DD	018be0H
	DD	018ab8H
	DD	018ab9H
	DD	018e60H
	DD	018e55H
	DD	018849H
	DD	018844H
	DD	01885dH
	DD	018ee9H
	DD	018f11H
	DD	018f1dH
	DD	018f7aH
	ORG $+32
	DD	018be1H
	DD	018be2H
	DD	018be3H
	DD	018be4H
	DD	018be5H
	DD	018be6H
	DD	018be7H
	DD	018be8H
	DD	018ac2H
	DD	018ac3H
	DD	018e61H
	DD	018e56H
	DD	018849H
	DD	018844H
	DD	01885dH
	DD	018eeaH
	DD	018f12H
	DD	018f1eH
	DD	018f7bH
	ORG $+32
	DD	018be9H
	DD	018beaH
	DD	018bebH
	DD	018becH
	DD	018bedH
	DD	018beeH
	DD	018befH
	DD	018bf0H
	DD	018accH
	DD	018acdH
	DD	018e59H
	DD	018e4fH
	DD	018849H
	DD	018844H
	DD	01885dH
	DD	018eebH
	DD	018f13H
	DD	018f1fH
	DD	018f7cH
	ORG $+32
	DD	018bf1H
	DD	018bf2H
	DD	018bf3H
	DD	018bf4H
	DD	018bf5H
	DD	018bf6H
	DD	018bf7H
	DD	018bf8H
	DD	018ad6H
	DD	018ad7H
	DD	018e5bH
	DD	018e50H
	DD	018849H
	DD	018844H
	DD	01885dH
	DD	018eecH
	DD	018f14H
	DD	018f20H
	DD	018f7dH
	ORG $+32
	DD	018bf9H
	DD	018bfaH
	DD	018bfbH
	DD	018bfcH
	DD	018bfdH
	DD	018bfeH
	DD	018bffH
	DD	018c00H
	DD	018ae0H
	DD	018ae1H
	DD	018e5dH
	DD	018e52H
	DD	018849H
	DD	018844H
	DD	01885dH
	DD	018eedH
	DD	018f15H
	DD	018f21H
	DD	018f7eH
	ORG $+32
	DD	018c01H
	DD	018c02H
	DD	018c03H
	DD	018c04H
	DD	018c05H
	DD	018c06H
	DD	018c07H
	DD	018c08H
	DD	018aeaH
	DD	018aebH
	DD	018e5cH
	DD	018e51H
	DD	018849H
	DD	018844H
	DD	01885dH
	DD	018eeeH
	DD	018f16H
	DD	018f22H
	DD	018f7fH
	ORG $+32
	DD	018c09H
	DD	018c0aH
	DD	018c0bH
	DD	018c0cH
	DD	018c0dH
	DD	018c0eH
	DD	018c0fH
	DD	018c10H
	DD	018af4H
	DD	018af5H
	DD	018e5fH
	DD	018e54H
	DD	018849H
	DD	018844H
	DD	01885dH
	DD	018eefH
	DD	018f17H
	DD	018f23H
	DD	018f80H
	ORG $+32
	DD	018c11H
	DD	018c12H
	DD	018c13H
	DD	018c14H
	DD	018c15H
	DD	018c16H
	DD	018c17H
	DD	018c18H
	DD	018afeH
	DD	018affH
	DD	018e5eH
	DD	018e53H
	DD	018849H
	DD	018844H
	DD	01885dH
	DD	018ef0H
	DD	018f18H
	DD	018f24H
	DD	018f81H
	ORG $+32
?RPlistMode@@3PAUtagRidePetList@@A DD 0186a0H		; RPlistMode
	DD	00H
	DD	0186a5H
	DD	00H
	DD	0186aaH
	DD	00H
	DD	0186afH
	DD	00H
	DD	0186b4H
	DD	01H
	DD	0186b9H
	DD	01H
	DD	0186beH
	DD	01H
	DD	0186c3H
	DD	01H
	DD	0186c8H
	DD	02H
	DD	0186cdH
	DD	02H
	DD	0186d2H
	DD	02H
	DD	0186d7H
	DD	02H
	DD	0186dcH
	DD	03H
	DD	0186e1H
	DD	03H
	DD	0186e6H
	DD	03H
	DD	0186ebH
	DD	03H
	DD	0186f0H
	DD	04H
	DD	0186f5H
	DD	04H
	DD	0186faH
	DD	04H
	DD	0186ffH
	DD	04H
	DD	018704H
	DD	05H
	DD	018709H
	DD	05H
	DD	01870eH
	DD	05H
	DD	018713H
	DD	05H
	DD	018718H
	DD	06H
	DD	01871dH
	DD	06H
	DD	018722H
	DD	06H
	DD	018727H
	DD	06H
	DD	01872cH
	DD	07H
	DD	018731H
	DD	07H
	DD	018736H
	DD	07H
	DD	01873bH
	DD	07H
	DD	018740H
	DD	08H
	DD	018745H
	DD	08H
	DD	01874aH
	DD	08H
	DD	01874fH
	DD	08H
	DD	018754H
	DD	09H
	DD	018759H
	DD	09H
	DD	01875eH
	DD	09H
	DD	018763H
	DD	09H
	DD	018768H
	DD	0aH
	DD	01876dH
	DD	0aH
	DD	018772H
	DD	0aH
	DD	018777H
	DD	0aH
	DD	01877cH
	DD	0bH
	DD	018781H
	DD	0bH
	DD	018786H
	DD	0bH
	DD	01878bH
	DD	0bH
?NO_DRAW_MAX_CNT@@3HA DD 02H				; NO_DRAW_MAX_CNT
?ProcTime@@3KA DD 05H					; ProcTime
?SystemTime@@3KA DD 0eH					; SystemTime
?NoDrawCnt@@3HA DD 01H					; NoDrawCnt
?公告颜色@@3HA DD 0ffffffffH				; 公告颜色
?FontPal@@3PAKA DD 0ffffffH				; FontPal
	DD	0ffff00H
	DD	0ff00ffH
	DD	0ff0000H
	DD	0ffffH
	DD	0ff00H
	DD	0ffH
	DD	0a4a0a0H
	DD	0f0caa6H
	DD	0c0dcc0H
	DD	08cffH
	DD	0247fffH
?flip@?6??GameMain@@YAHXZ@4KA DD 01H			; `GameMain'::`7'::flip
_DATA	ENDS
PUBLIC	___local_stdio_printf_options
PUBLIC	??$__vcrt_va_start_verify_argument_type@QBD@@YAXXZ ; __vcrt_va_start_verify_argument_type<char const * const>
PUBLIC	__vsnprintf_l
PUBLIC	__vsprintf_l
PUBLIC	__vsprintf_s_l
PUBLIC	_vsprintf_s
PUBLIC	_sprintf
PUBLIC	?GameMain@@YAHXZ				; GameMain
PUBLIC	?InitGame@@YAHXZ				; InitGame
PUBLIC	?EndGame@@YAXXZ					; EndGame
PUBLIC	?getMAC@@YAHPAD@Z				; getMAC
PUBLIC	?getCpuId@@YAHPAD@Z				; getCpuId
PUBLIC	?GetSysInfo@@YA_NPAD@Z				; GetSysInfo
PUBLIC	?DisplayFrameRate@@YAXXZ			; DisplayFrameRate
PUBLIC	?announce@@YAXXZ				; announce
PUBLIC	??$sprintf_s@$0EAA@@@YAHAAY0EAA@DPBDZZ		; sprintf_s<1024>
PUBLIC	?PutLogo@@YAXXZ					; PutLogo
PUBLIC	?GameErrorMessage@@YAXPAD@Z			; GameErrorMessage
PUBLIC	??$__vcrt_va_start_verify_argument_type@PBD@@YAXXZ ; __vcrt_va_start_verify_argument_type<char const *>
PUBLIC	?_OptionsStorage@?1??__local_stdio_printf_options@@9@4_KA ; `__local_stdio_printf_options'::`2'::_OptionsStorage
PUBLIC	??_C@_02HHFHKOHM@?$DP?$DP?$AA@			; `string'
PUBLIC	??_C@_0BC@BAOBCJF@?j?$PN?$DP?$DP?o?R?t?x?c?$LH?$PL?y?c?w?$DP?$KD?$KB?$AA@ ; `string'
PUBLIC	??_C@_0N@CNEFEEOF@?$DP?$DP?$KD?A?$KD?I?Y?$LM?c?R?$KD?$KB?$AA@ ; `string'
PUBLIC	??_C@_0EF@OJCAAKED@P?$HM?$DP?j?H?$PL?$LP?c?$PN?l?Q?R?v?$DP?d?$LC?$DP?$DP?$DP?$KB?$KD?$DP?S?$PM?$DP?q?l?c?f?T?t?$DP@ ; `string'
PUBLIC	??_C@_0CA@CMHGGOJD@?o?a?n?$KE?m?$LL?$DP?T?t?$DP?q?i?0?d?NF9?J?$KG?o?N?r?$KN?m?$LL?$DP?T?t?$DP?$KD?$KB?$AA@ ; `string'
PUBLIC	??_C@_0BC@IEKMBCNM@?d?NF9?J?$KG?m?$LL?$DP?T?t?$DP?j?$PN?$DP?$KD?$KB?$AA@ ; `string'
PUBLIC	??_C@_01NBENCBCI@?$CK?$AA@			; `string'
PUBLIC	??_C@_0BO@GHBLPFMO@?$CF02X?9?$CF02X?9?$CF02X?9?$CF02X?9?$CF02X?9?$CF02X?$AA@ ; `string'
PUBLIC	??_C@_0BB@BPIBEBLC@?$CF08X?$CF08X?$CF08X?$CF08X?$AA@ ; `string'
PUBLIC	??_C@_0BG@KOBCOCEJ@?t?x?c?$LH?$PL?yDirectDraw?c?w?$DP?$KD?$KB?$AA@ ; `string'
PUBLIC	??_C@_0BO@JNDLJLE@?t?x?c?$LH?$PL?yOff?5Screan?5Surface?c?w?$DP?$KD?$KB?$AA@ ; `string'
PUBLIC	??_C@_0BA@FBJLMDLE@?$DP?$DPReal?4bin?c?w?$DP?$KD?$KB?$AA@ ; `string'
PUBLIC	??_C@_0P@OCIHCKAB@?$DP?$DPSpr?4bin?c?w?$DP?$KD?$KB?$AA@ ; `string'
PUBLIC	??_C@_09PBPPCBH@?4?1?1sabin1?$AA@		; `string'
PUBLIC	??_C@_09KBLMODGM@?4?1?1salua1?$AA@		; `string'
PUBLIC	??_C@_0BB@BMPFHBPA@?t?x?c?$LH?$PL?y?$DP?l?$PN?$NL?v?c?w?$DP?$KD?$KB?$AA@ ; `string'
PUBLIC	??_C@_0CO@HNPNNIBJ@?$DP?v?$KC?$DP?p?m?$DP?d?P?c?w?$DP?$KB?$KD?$CIcode?5?$DN?5?$CFd?$CJ?5?$DP?$DP?p?$LGsa@ ; `string'
PUBLIC	??_C@_0BG@MCAODPHE@net_readbuf?5Init?5?c?w?$DP?$CB?$AA@ ; `string'
PUBLIC	??_C@_0BH@BBOIGEMF@net_writebuf?5Init?5?c?w?$DP?$CB?$AA@ ; `string'
PUBLIC	??_C@_05KPHDFNJG@chat?2?$AA@			; `string'
EXTRN	___report_rangecheckfailure:PROC
EXTRN	__Init_thread_header:PROC
EXTRN	__Init_thread_abort:PROC
EXTRN	__Init_thread_footer:PROC
EXTRN	?TimeGetTime@@YAIXZ:PROC			; TimeGetTime
EXTRN	_memcpy:PROC
EXTRN	_memset:PROC
EXTRN	_strcpy:PROC
EXTRN	_strlen:PROC
EXTRN	__imp__CreateDirectoryA@8:PROC
EXTRN	__imp__CloseHandle@4:PROC
EXTRN	__imp__ReleaseMutex@4:PROC
EXTRN	__imp__Sleep@4:PROC
EXTRN	__imp__TerminateThread@8:PROC
EXTRN	__imp__VirtualAlloc@16:PROC
EXTRN	__imp__VirtualFree@12:PROC
EXTRN	__imp__VirtualProtect@16:PROC
EXTRN	__imp__DeleteObject@4:PROC
EXTRN	__imp__PostMessageA@16:PROC
EXTRN	__imp__MessageBoxA@16:PROC
EXTRN	__imp__ShowCursor@4:PROC
EXTRN	_Netbios@4:PROC
EXTRN	_closesocket@4:PROC
EXTRN	__imp__srand:PROC
EXTRN	__imp__rand:PROC
EXTRN	__imp____stdio_common_vsprintf:PROC
EXTRN	__imp____stdio_common_vsprintf_s:PROC
EXTRN	?InitOffScreenSurface@@YAHXZ:PROC		; InitOffScreenSurface
EXTRN	?InitSurfaceInfo@@YAXXZ:PROC			; InitSurfaceInfo
EXTRN	?InitSpriteInfo@@YAXXZ:PROC			; InitSpriteInfo
EXTRN	?InitDirectDraw@@YAHXZ:PROC			; InitDirectDraw
EXTRN	?InitPalette@@YAHXZ:PROC			; InitPalette
EXTRN	?ClearBackSurface@@YAXXZ:PROC			; ClearBackSurface
EXTRN	?Flip@@YAXXZ:PROC				; Flip
EXTRN	?ReleaseDirectDraw@@YAXXZ:PROC			; ReleaseDirectDraw
EXTRN	?InitFont@@YAXH@Z:PROC				; InitFont
EXTRN	?PaletteProc@@YAXXZ:PROC			; PaletteProc
EXTRN	?snapShot@@YAXXZ:PROC				; snapShot
EXTRN	?SystemTask@@YAHXZ:PROC				; SystemTask
EXTRN	?Process@@YAXXZ:PROC				; Process
EXTRN	?repairMap@@YAXXZ:PROC				; repairMap
EXTRN	?AniProc@@YAXXZ:PROC				; AniProc
EXTRN	?util_Init@@YAXXZ:PROC				; util_Init
EXTRN	?util_Release@@YAXXZ:PROC			; util_Release
EXTRN	?InitAction@@YAXXZ:PROC				; InitAction
EXTRN	?EndAction@@YAXXZ:PROC				; EndAction
EXTRN	?SortDispBuffer@@YAXXZ:PROC			; SortDispBuffer
EXTRN	?PutBmp@@YAXXZ:PROC				; PutBmp
EXTRN	?StockDispBuffer@@YAHHHEHH@Z:PROC		; StockDispBuffer
EXTRN	?initRand2@@YAXXZ:PROC				; initRand2
EXTRN	?StockChatBufferLine@@YAXPADEH@Z:PROC		; StockChatBufferLine
EXTRN	?StrToNowStrBuffer@@YAXPAD@Z:PROC		; StrToNowStrBuffer
EXTRN	?StockFontBuffer@@YAHHHDHPADH@Z:PROC		; StockFontBuffer
EXTRN	?MouseInit@@YAXXZ:PROC				; MouseInit
EXTRN	?MouseProc@@YAXXZ:PROC				; MouseProc
EXTRN	?HitMouseCursor@@YAXXZ:PROC			; HitMouseCursor
EXTRN	?initAutoMapColor@@YAXPAD@Z:PROC		; initAutoMapColor
EXTRN	?cleanupRealbin@@YAXXZ:PROC			; cleanupRealbin
EXTRN	?InitSprBinFileOpen@@YAHPAD0@Z:PROC		; InitSprBinFileOpen
EXTRN	?joy_read@@YAXXZ:PROC				; joy_read
EXTRN	?InitDInput@@YAHXZ:PROC				; InitDInput
EXTRN	?EndDInput@@YAHXZ:PROC				; EndDInput
EXTRN	?InitIme@@YAHPAUHWND__@@P6AXPAD@Z@Z:PROC	; InitIme
EXTRN	?EndIme@@YAXXZ:PROC				; EndIme
EXTRN	?ReadBattleMap@@YAHH@Z:PROC			; ReadBattleMap
EXTRN	?networkLoop@@YAXXZ:PROC			; networkLoop
EXTRN	?cleanupNetwork@@YAXXZ:PROC			; cleanupNetwork
EXTRN	?saveUserSetting@@YAHXZ:PROC			; saveUserSetting
EXTRN	?loadUserSetting@@YAHXZ:PROC			; loadUserSetting
EXTRN	?t_music_init@@YAHXZ:PROC			; t_music_init
EXTRN	?t_music_end@@YAXXZ:PROC			; t_music_end
EXTRN	?cdda_play@@YA_NH@Z:PROC			; cdda_play
EXTRN	?cdda_stop@@YA_NXZ:PROC				; cdda_stop
EXTRN	?setPcDir@@YAXH@Z:PROC				; setPcDir
EXTRN	?walkSendForServer@@YAXHHPAD@Z:PROC		; walkSendForServer
EXTRN	?SaveChatRegistyStr@@YAHXZ:PROC			; SaveChatRegistyStr
EXTRN	?LoadChatRegistyStr@@YAHXZ:PROC			; LoadChatRegistyStr
EXTRN	?RealTimeToSATime@@YAXPAUtagLSTIME@@@Z:PROC	; RealTimeToSATime
EXTRN	?InitPteernSeparationBin@@YAXPBD@Z:PROC		; InitPteernSeparationBin
EXTRN	?cnvServDir@@YADHH@Z:PROC			; cnvServDir
EXTRN	?lssproto_SaMenu_send@@YAXHHHH@Z:PROC		; lssproto_SaMenu_send
EXTRN	?lssproto_TK_send@@YAXHHHPADHH@Z:PROC		; lssproto_TK_send
EXTRN	?lssproto_FS_send@@YAXHH@Z:PROC			; lssproto_FS_send
EXTRN	?lssproto_PR_send@@YAXHHHH@Z:PROC		; lssproto_PR_send
EXTRN	?LoadStoneAgeLUA@@YAXPAD@Z:PROC			; LoadStoneAgeLUA
EXTRN	?ChangeWindowMode@@YAXXZ:PROC			; ChangeWindowMode
EXTRN	?SetResoMode@@YAXH@Z:PROC			; SetResoMode
EXTRN	?CreatFontHdc@@YAXXZ:PROC			; CreatFontHdc
EXTRN	?LSTimeToRealTime@@YAXPAUtagLSTIME@@PAJ@Z:PROC	; LSTimeToRealTime
EXTRN	?屏幕文字点击@@YAXXZ:PROC			; 屏幕文字点击
EXTRN	?AI_Save@@YAHXZ:PROC				; AI_Save
EXTRN	?AI_Save@@YAHXZ:PROC				; AI_Save
EXTRN	?initRealbinFileOpen@@YAHPAD0@Z:PROC		; initRealbinFileOpen
EXTRN	?SaveChatData@@YAXPADD_N@Z:PROC			; SaveChatData
EXTRN	@_RTC_CheckStackVars@8:PROC
EXTRN	@__security_check_cookie@4:PROC
EXTRN	__RTC_CheckEsp:PROC
EXTRN	__RTC_InitBase:PROC
EXTRN	__RTC_Shutdown:PROC
EXTRN	___CxxFrameHandler3:PROC
EXTRN	__Init_thread_epoch:DWORD
EXTRN	?SurfaceDate@@3IA:DWORD				; SurfaceDate
EXTRN	?Palette@@3PAUtagPALETTEENTRY@@A:BYTE		; Palette
EXTRN	?lpDraw@@3PAUDIRECT_DRAW@@A:DWORD		; lpDraw
EXTRN	?hFont@@3PAUHFONT__@@A:DWORD			; hFont
EXTRN	?PalChangeFlag@@3HA:DWORD			; PalChangeFlag
EXTRN	?hWnd@@3PAUHWND__@@A:DWORD			; hWnd
EXTRN	?WindowMode@@3HA:DWORD				; WindowMode
EXTRN	?ResoMode@@3HA:DWORD				; ResoMode
EXTRN	?LowResoCmdFlag@@3HA:DWORD			; LowResoCmdFlag
EXTRN	?hMutex@@3PAXA:DWORD				; hMutex
EXTRN	?realBinName@@3PADA:BYTE			; realBinName
EXTRN	?adrnBinName@@3PADA:BYTE			; adrnBinName
EXTRN	?sprBinName@@3PADA:BYTE				; sprBinName
EXTRN	?sprAdrnBinName@@3PADA:BYTE			; sprAdrnBinName
EXTRN	?offlineFlag@@3HA:DWORD				; offlineFlag
EXTRN	?ProcNo@@3IA:DWORD				; ProcNo
EXTRN	?ProcNo2@@3HA:DWORD				; ProcNo2
EXTRN	?DispBuffer@@3UDISP_BUFFER@@A:BYTE		; DispBuffer
EXTRN	?joy_trg@@3PAKA:QWORD				; joy_trg
EXTRN	?di_key@@3PAEA:BYTE				; di_key
EXTRN	?NowMaxVoice@@3HA:DWORD				; NowMaxVoice
EXTRN	?FontCnt@@3HA:DWORD				; FontCnt
EXTRN	?BattleMapNo@@3HA:DWORD				; BattleMapNo
EXTRN	?net_writebuf@@3PADA:DWORD			; net_writebuf
EXTRN	?net_readbuf@@3PADA:DWORD			; net_readbuf
EXTRN	?net_readbuflen@@3HA:DWORD			; net_readbuflen
EXTRN	?net_writebuflen@@3HA:DWORD			; net_writebuflen
EXTRN	?sockfd@@3IA:DWORD				; sockfd
EXTRN	?savedataErrorCode@@3EA:BYTE			; savedataErrorCode
EXTRN	?cdda_no@@3HA:DWORD				; cdda_no
EXTRN	?pc@@3UPC@@A:BYTE				; pc
EXTRN	?partyModeFlag@@3FA:WORD			; partyModeFlag
EXTRN	?MouseCursorFlag@@3HA:DWORD			; MouseCursorFlag
EXTRN	?SaTime@@3UtagLSTIME@@A:BYTE			; SaTime
EXTRN	?AI@@3HA:DWORD					; AI
EXTRN	?nameOverTheHeadFlag@@3FA:WORD			; nameOverTheHeadFlag
EXTRN	?nowGx@@3HA:DWORD				; nowGx
EXTRN	?nowGy@@3HA:DWORD				; nowGy
EXTRN	?fastDrawTile@@3FB:WORD				; fastDrawTile
EXTRN	?fastDrawTileFlag@@3FA:WORD			; fastDrawTileFlag
EXTRN	?nowXFastDraw@@3HA:DWORD			; nowXFastDraw
EXTRN	?nowYFastDraw@@3HA:DWORD			; nowYFastDraw
EXTRN	?baseXFastDraw@@3HA:DWORD			; baseXFastDraw
EXTRN	?baseYFastDraw@@3HA:DWORD			; baseYFastDraw
EXTRN	?nowXFastDraw2@@3HA:DWORD			; nowXFastDraw2
EXTRN	?nowYFastDraw2@@3HA:DWORD			; nowYFastDraw2
EXTRN	?baseXFastDraw2@@3HA:DWORD			; baseXFastDraw2
EXTRN	?baseYFastDraw2@@3HA:DWORD			; baseYFastDraw2
EXTRN	?actBtn@@3FA:WORD				; actBtn
EXTRN	?PcLanded@@3ULanded@@A:BYTE			; PcLanded
EXTRN	?g_hideSA@@3HA:DWORD				; g_hideSA
EXTRN	?是否重登战斗了@@3HA:DWORD			; 是否重登战斗了
EXTRN	?是否重登人物方向@@3HA:DWORD			; 是否重登人物方向
EXTRN	?是否重登AI模式@@3HA:DWORD			; 是否重登AI模式
EXTRN	?是否重登组队@@3HA:DWORD			; 是否重登组队
EXTRN	?是否重登喊话@@3HA:DWORD			; 是否重登喊话
EXTRN	?自动登陆是否开启@@3HA:DWORD			; 自动登陆是否开启
EXTRN	?displayBpp@@3HA:DWORD				; displayBpp
EXTRN	?rBitLShift@@3HA:DWORD				; rBitLShift
EXTRN	?gBitLShift@@3HA:DWORD				; gBitLShift
EXTRN	?bBitLShift@@3HA:DWORD				; bBitLShift
EXTRN	?rBitRShift@@3HA:DWORD				; rBitRShift
EXTRN	?gBitRShift@@3HA:DWORD				; gBitRShift
EXTRN	?bBitRShift@@3HA:DWORD				; bBitRShift
EXTRN	?highColorPalette@@3PAGA:BYTE			; highColorPalette
EXTRN	?hPing@@3PAXA:DWORD				; hPing
EXTRN	?sockRaw@@3IA:DWORD				; sockRaw
EXTRN	___security_cookie:DWORD
EXTRN	__fltused:DWORD
EXTRN	__tls_array:DWORD
EXTRN	__tls_index:DWORD
;	COMDAT ?_OptionsStorage@?1??__local_stdio_printf_options@@9@4_KA
_BSS	SEGMENT
?_OptionsStorage@?1??__local_stdio_printf_options@@9@4_KA DQ 01H DUP (?) ; `__local_stdio_printf_options'::`2'::_OptionsStorage
_BSS	ENDS
_BSS	SEGMENT
?reset@?6??GameMain@@YAHXZ@4KA DD 01H DUP (?)		; `GameMain'::`7'::reset
?$TSS0@?6??GameMain@@YAHXZ@4HA DD 01H DUP (?)		; TSS0<`template-parameter-7',meMain,int, ?? &>
?OldTime@?6??GameMain@@YAHXZ@4KA DD 01H DUP (?)		; `GameMain'::`7'::OldTime
?$TSS1@?6??GameMain@@YAHXZ@4HA DD 01H DUP (?)		; TSS1<`template-parameter-7',meMain,int, ?? &>
?switchmodetime@?LD@??GameMain@@YAHXZ@4KA DD 01H DUP (?) ; `GameMain'::`179'::switchmodetime
?$TSS2@?LD@??GameMain@@YAHXZ@4HA DD 01H DUP (?)		; TSS2<`template-parameter-179',meMain,int, ?? &>
?switchmodetime@?LP@??GameMain@@YAHXZ@4KA DD 01H DUP (?) ; `GameMain'::`191'::switchmodetime
?$TSS3@?LP@??GameMain@@YAHXZ@4HA DD 01H DUP (?)		; TSS3<`template-parameter-191',meMain,int, ?? &>
_BSS	ENDS
;	COMDAT rtc$TMZ
rtc$TMZ	SEGMENT
__RTC_Shutdown.rtc$TMZ DD FLAT:__RTC_Shutdown
rtc$TMZ	ENDS
;	COMDAT rtc$IMZ
rtc$IMZ	SEGMENT
__RTC_InitBase.rtc$IMZ DD FLAT:__RTC_InitBase
rtc$IMZ	ENDS
;	COMDAT ??_C@_05KPHDFNJG@chat?2?$AA@
CONST	SEGMENT
??_C@_05KPHDFNJG@chat?2?$AA@ DB 'chat\', 00H		; `string'
CONST	ENDS
;	COMDAT ??_C@_0BH@BBOIGEMF@net_writebuf?5Init?5?c?w?$DP?$CB?$AA@
CONST	SEGMENT
??_C@_0BH@BBOIGEMF@net_writebuf?5Init?5?c?w?$DP?$CB?$AA@ DB 'net_writebuf'
	DB	' Init ', 0e3H, 0f7H, '?!', 00H		; `string'
CONST	ENDS
;	COMDAT ??_C@_0BG@MCAODPHE@net_readbuf?5Init?5?c?w?$DP?$CB?$AA@
CONST	SEGMENT
??_C@_0BG@MCAODPHE@net_readbuf?5Init?5?c?w?$DP?$CB?$AA@ DB 'net_readbuf I'
	DB	'nit ', 0e3H, 0f7H, '?!', 00H		; `string'
CONST	ENDS
;	COMDAT ??_C@_0CO@HNPNNIBJ@?$DP?v?$KC?$DP?p?m?$DP?d?P?c?w?$DP?$KB?$KD?$CIcode?5?$DN?5?$CFd?$CJ?5?$DP?$DP?p?$LGsa@
CONST	SEGMENT
??_C@_0CO@HNPNNIBJ@?$DP?v?$KC?$DP?p?m?$DP?d?P?c?w?$DP?$KB?$KD?$CIcode?5?$DN?5?$CFd?$CJ?5?$DP?$DP?p?$LGsa@ DB '?'
	DB	0f6H, 0a2H, '?', 0f0H, 0edH, '?', 0e4H, 0d0H, 0e3H, 0f7H, '?', 0a1H
	DB	0a3H, '(code = %d) ??', 0f0H, 0b6H, 'savedata.dat', 0eeH, 0a2H
	DB	'?', 00H					; `string'
CONST	ENDS
;	COMDAT ??_C@_0BB@BMPFHBPA@?t?x?c?$LH?$PL?y?$DP?l?$PN?$NL?v?c?w?$DP?$KD?$KB?$AA@
CONST	SEGMENT
??_C@_0BB@BMPFHBPA@?t?x?c?$LH?$PL?y?$DP?l?$PN?$NL?v?c?w?$DP?$KD?$KB?$AA@ DB 0f4H
	DB	0f8H, 0e3H, 0b7H, 0fbH, 0f9H, '?', 0ecH, 0fdH, 0dbH, 0f6H, 0e3H
	DB	0f7H, '?', 0a3H, 0a1H, 00H			; `string'
CONST	ENDS
;	COMDAT ??_C@_09KBLMODGM@?4?1?1salua1?$AA@
CONST	SEGMENT
??_C@_09KBLMODGM@?4?1?1salua1?$AA@ DB './/salua1', 00H	; `string'
CONST	ENDS
;	COMDAT ??_C@_09PBPPCBH@?4?1?1sabin1?$AA@
CONST	SEGMENT
??_C@_09PBPPCBH@?4?1?1sabin1?$AA@ DB './/sabin1', 00H	; `string'
CONST	ENDS
;	COMDAT ??_C@_0P@OCIHCKAB@?$DP?$DPSpr?4bin?c?w?$DP?$KD?$KB?$AA@
CONST	SEGMENT
??_C@_0P@OCIHCKAB@?$DP?$DPSpr?4bin?c?w?$DP?$KD?$KB?$AA@ DB '??Spr.bin', 0e3H
	DB	0f7H, '?', 0a3H, 0a1H, 00H			; `string'
CONST	ENDS
;	COMDAT ??_C@_0BA@FBJLMDLE@?$DP?$DPReal?4bin?c?w?$DP?$KD?$KB?$AA@
CONST	SEGMENT
??_C@_0BA@FBJLMDLE@?$DP?$DPReal?4bin?c?w?$DP?$KD?$KB?$AA@ DB '??Real.bin', 0e3H
	DB	0f7H, '?', 0a3H, 0a1H, 00H			; `string'
CONST	ENDS
;	COMDAT ??_C@_0BO@JNDLJLE@?t?x?c?$LH?$PL?yOff?5Screan?5Surface?c?w?$DP?$KD?$KB?$AA@
CONST	SEGMENT
??_C@_0BO@JNDLJLE@?t?x?c?$LH?$PL?yOff?5Screan?5Surface?c?w?$DP?$KD?$KB?$AA@ DB 0f4H
	DB	0f8H, 0e3H, 0b7H, 0fbH, 0f9H, 'Off Screan Surface', 0e3H, 0f7H
	DB	'?', 0a3H, 0a1H, 00H				; `string'
CONST	ENDS
;	COMDAT ??_C@_0BG@KOBCOCEJ@?t?x?c?$LH?$PL?yDirectDraw?c?w?$DP?$KD?$KB?$AA@
CONST	SEGMENT
??_C@_0BG@KOBCOCEJ@?t?x?c?$LH?$PL?yDirectDraw?c?w?$DP?$KD?$KB?$AA@ DB 0f4H
	DB	0f8H, 0e3H, 0b7H, 0fbH, 0f9H, 'DirectDraw', 0e3H, 0f7H, '?', 0a3H
	DB	0a1H, 00H					; `string'
CONST	ENDS
;	COMDAT ??_C@_0BB@BPIBEBLC@?$CF08X?$CF08X?$CF08X?$CF08X?$AA@
CONST	SEGMENT
??_C@_0BB@BPIBEBLC@?$CF08X?$CF08X?$CF08X?$CF08X?$AA@ DB '%08X%08X%08X%08X'
	DB	00H						; `string'
CONST	ENDS
;	COMDAT ??_C@_0BO@GHBLPFMO@?$CF02X?9?$CF02X?9?$CF02X?9?$CF02X?9?$CF02X?9?$CF02X?$AA@
CONST	SEGMENT
??_C@_0BO@GHBLPFMO@?$CF02X?9?$CF02X?9?$CF02X?9?$CF02X?9?$CF02X?9?$CF02X?$AA@ DB '%'
	DB	'02X-%02X-%02X-%02X-%02X-%02X', 00H		; `string'
CONST	ENDS
;	COMDAT ??_C@_01NBENCBCI@?$CK?$AA@
CONST	SEGMENT
??_C@_01NBENCBCI@?$CK?$AA@ DB '*', 00H			; `string'
CONST	ENDS
;	COMDAT ??_C@_0BC@IEKMBCNM@?d?NF9?J?$KG?m?$LL?$DP?T?t?$DP?j?$PN?$DP?$KD?$KB?$AA@
CONST	SEGMENT
??_C@_0BC@IEKMBCNM@?d?NF9?J?$KG?m?$LL?$DP?T?t?$DP?j?$PN?$DP?$KD?$KB?$AA@ DB 0e4H
	DB	0ceH, 'F9', 0caH, 0a6H, 0edH, 0bbH, '?', 0d4H, 0f4H, '?', 0eaH
	DB	0fdH, '?', 0a3H, 0a1H, 00H			; `string'
CONST	ENDS
;	COMDAT ??_C@_0CA@CMHGGOJD@?o?a?n?$KE?m?$LL?$DP?T?t?$DP?q?i?0?d?NF9?J?$KG?o?N?r?$KN?m?$LL?$DP?T?t?$DP?$KD?$KB?$AA@
CONST	SEGMENT
??_C@_0CA@CMHGGOJD@?o?a?n?$KE?m?$LL?$DP?T?t?$DP?q?i?0?d?NF9?J?$KG?o?N?r?$KN?m?$LL?$DP?T?t?$DP?$KD?$KB?$AA@ DB 0efH
	DB	0e1H, 0eeH, 0a4H, 0edH, 0bbH, '?', 0d4H, 0f4H, '?', 0f1H, 0e9H
	DB	',', 0e4H, 0ceH, 'F9', 0caH, 0a6H, 0efH, 0ceH, 0f2H, 0adH, 0edH
	DB	0bbH, '?', 0d4H, 0f4H, '?', 0a3H, 0a1H, 00H	; `string'
CONST	ENDS
;	COMDAT ??_C@_0EF@OJCAAKED@P?$HM?$DP?j?H?$PL?$LP?c?$PN?l?Q?R?v?$DP?d?$LC?$DP?$DP?$DP?$KB?$KD?$DP?S?$PM?$DP?q?l?c?f?T?t?$DP@
CONST	SEGMENT
??_C@_0EF@OJCAAKED@P?$HM?$DP?j?H?$PL?$LP?c?$PN?l?Q?R?v?$DP?d?$LC?$DP?$DP?$DP?$KB?$KD?$DP?S?$PM?$DP?q?l?c?f?T?t?$DP@ DB 'P'
	DB	'|?', 0eaH, 0c8H, 0fbH, 0bfH, 0e3H, 0fdH, 0ecH, 0d1H, 0d2H, 0f6H
	DB	'?', 0e4H, 0b2H, '???', 0a1H, 0a3H, '?', 0d3H, 0fcH, '?', 0f1H
	DB	0ecH, 0e3H, 0e6H, 0d4H, 0f4H, '?', 0a3H, 0acH, 0cfH, 0b4H, 0fbH
	DB	0bfH, 0e3H, 0fdH, 0ecH, 0d1H, 0f3H, 0d7H, 0e4H, 0b2H, 0d8H, 0fcH
	DB	0eeH, 0f1H, '?', 0e4H, 0b2H, '??', 0a3H, 0a1H, 0eaH, 0c8H, 0f6H
	DB	0c7H, '(%d,%d)', 00H				; `string'
CONST	ENDS
;	COMDAT ??_C@_0N@CNEFEEOF@?$DP?$DP?$KD?A?$KD?I?Y?$LM?c?R?$KD?$KB?$AA@
CONST	SEGMENT
??_C@_0N@CNEFEEOF@?$DP?$DP?$KD?A?$KD?I?Y?$LM?c?R?$KD?$KB?$AA@ DB '??', 0a3H
	DB	0c1H, 0a3H, 0c9H, 0d9H, 0bcH, 0e3H, 0d2H, 0a3H, 0a1H, 00H ; `string'
CONST	ENDS
;	COMDAT ??_C@_0BC@BAOBCJF@?j?$PN?$DP?$DP?o?R?t?x?c?$LH?$PL?y?c?w?$DP?$KD?$KB?$AA@
CONST	SEGMENT
??_C@_0BC@BAOBCJF@?j?$PN?$DP?$DP?o?R?t?x?c?$LH?$PL?y?c?w?$DP?$KD?$KB?$AA@ DB 0eaH
	DB	0fdH, '??', 0efH, 0d2H, 0f4H, 0f8H, 0e3H, 0b7H, 0fbH, 0f9H, 0e3H
	DB	0f7H, '?', 0a3H, 0a1H, 00H			; `string'
CONST	ENDS
;	COMDAT ??_C@_02HHFHKOHM@?$DP?$DP?$AA@
CONST	SEGMENT
??_C@_02HHFHKOHM@?$DP?$DP?$AA@ DB '??', 00H		; `string'
CONST	ENDS
;	COMDAT xdata$x
xdata$x	SEGMENT
__unwindtable$?GameMain@@YAHXZ DD 0ffffffffH
	DD	FLAT:__unwindfunclet$?GameMain@@YAHXZ$0
	DD	0ffffffffH
	DD	FLAT:__unwindfunclet$?GameMain@@YAHXZ$1
	DD	0ffffffffH
	DD	FLAT:__unwindfunclet$?GameMain@@YAHXZ$2
	DD	0ffffffffH
	DD	FLAT:__unwindfunclet$?GameMain@@YAHXZ$3
__ehfuncinfo$?GameMain@@YAHXZ DD 019930522H
	DD	04H
	DD	FLAT:__unwindtable$?GameMain@@YAHXZ
	DD	2 DUP(00H)
	DD	2 DUP(00H)
	DD	00H
	DD	00H
xdata$x	ENDS
; Function compile flags: /Odtp /RTCsu /ZI
; File c:\program files (x86)\microsoft visual studio 14.0\vc\include\vadefs.h
;	COMDAT ??$__vcrt_va_start_verify_argument_type@PBD@@YAXXZ
_TEXT	SEGMENT
??$__vcrt_va_start_verify_argument_type@PBD@@YAXXZ PROC	; __vcrt_va_start_verify_argument_type<char const *>, COMDAT

; 144  :         {

  00000	55		 push	 ebp
  00001	8b ec		 mov	 ebp, esp
  00003	81 ec c0 00 00
	00		 sub	 esp, 192		; 000000c0H
  00009	53		 push	 ebx
  0000a	56		 push	 esi
  0000b	57		 push	 edi
  0000c	8d bd 40 ff ff
	ff		 lea	 edi, DWORD PTR [ebp-192]
  00012	b9 30 00 00 00	 mov	 ecx, 48			; 00000030H
  00017	b8 cc cc cc cc	 mov	 eax, -858993460		; ccccccccH
  0001c	f3 ab		 rep stosd

; 145  :             static_assert(!__vcrt_va_list_is_reference<_Ty>::__the_value, "va_start argument must not have reference type and must not be parenthesized");
; 146  :         }

  0001e	5f		 pop	 edi
  0001f	5e		 pop	 esi
  00020	5b		 pop	 ebx
  00021	8b e5		 mov	 esp, ebp
  00023	5d		 pop	 ebp
  00024	c3		 ret	 0
??$__vcrt_va_start_verify_argument_type@PBD@@YAXXZ ENDP	; __vcrt_va_start_verify_argument_type<char const *>
_TEXT	ENDS
; Function compile flags: /Odtp /RTCsu /ZI
; File c:\users\administrator\desktop\????? ??\????? ??\client source code\system\gamemain.cpp
;	COMDAT ?GameErrorMessage@@YAXPAD@Z
_TEXT	SEGMENT
_buf$ = 8						; size = 4
?GameErrorMessage@@YAXPAD@Z PROC			; GameErrorMessage, COMDAT

; 930  : {

  00000	55		 push	 ebp
  00001	8b ec		 mov	 ebp, esp
  00003	81 ec c0 00 00
	00		 sub	 esp, 192		; 000000c0H
  00009	53		 push	 ebx
  0000a	56		 push	 esi
  0000b	57		 push	 edi
  0000c	8d bd 40 ff ff
	ff		 lea	 edi, DWORD PTR [ebp-192]
  00012	b9 30 00 00 00	 mov	 ecx, 48			; 00000030H
  00017	b8 cc cc cc cc	 mov	 eax, -858993460		; ccccccccH
  0001c	f3 ab		 rep stosd

; 931  : #ifdef _STONDEBUG_
; 932  : 	FILE *fp = NULL;
; 933  : 
; 934  : 	if( (fp = fopen( "err.log","a+"))==NULL ) return;
; 935  : 	if( buf != NULL )
; 936  : 		fprintf( fp, "%s\n", buf);
; 937  : 	fclose( fp);
; 938  : #endif
; 939  : }

  0001e	5f		 pop	 edi
  0001f	5e		 pop	 esi
  00020	5b		 pop	 ebx
  00021	8b e5		 mov	 esp, ebp
  00023	5d		 pop	 ebp
  00024	c3		 ret	 0
?GameErrorMessage@@YAXPAD@Z ENDP			; GameErrorMessage
_TEXT	ENDS
; Function compile flags: /Odtp /RTCsu /ZI
; File c:\users\administrator\desktop\????? ??\????? ??\client source code\system\gamemain.cpp
;	COMDAT ?PutLogo@@YAXXZ
_TEXT	SEGMENT
?PutLogo@@YAXXZ PROC					; PutLogo, COMDAT

; 921  : {

  00000	55		 push	 ebp
  00001	8b ec		 mov	 ebp, esp
  00003	81 ec c0 00 00
	00		 sub	 esp, 192		; 000000c0H
  00009	53		 push	 ebx
  0000a	56		 push	 esi
  0000b	57		 push	 edi
  0000c	8d bd 40 ff ff
	ff		 lea	 edi, DWORD PTR [ebp-192]
  00012	b9 30 00 00 00	 mov	 ecx, 48			; 00000030H
  00017	b8 cc cc cc cc	 mov	 eax, -858993460		; ccccccccH
  0001c	f3 ab		 rep stosd

; 922  : 	DispBuffer.DispCnt = 0;

  0001e	33 c0		 xor	 eax, eax
  00020	66 a3 00 c0 01
	00		 mov	 WORD PTR ?DispBuffer@@3UDISP_BUFFER@@A+114688, ax

; 923  : 	StockDispBuffer( 320, 240, DISP_PRIO_TOP, CG_LOGO, 0 );

  00026	6a 00		 push	 0
  00028	68 be 89 00 00	 push	 35262			; 000089beH
  0002d	68 ff 00 00 00	 push	 255			; 000000ffH
  00032	68 f0 00 00 00	 push	 240			; 000000f0H
  00037	68 40 01 00 00	 push	 320			; 00000140H
  0003c	e8 00 00 00 00	 call	 ?StockDispBuffer@@YAHHHEHH@Z ; StockDispBuffer
  00041	83 c4 14	 add	 esp, 20			; 00000014H

; 924  : 	ClearBackSurface();	// ???????????????

  00044	e8 00 00 00 00	 call	 ?ClearBackSurface@@YAXXZ ; ClearBackSurface

; 925  : 	PutBmp();			// ????????????????

  00049	e8 00 00 00 00	 call	 ?PutBmp@@YAXXZ		; PutBmp

; 926  : 	Flip();				//

  0004e	e8 00 00 00 00	 call	 ?Flip@@YAXXZ		; Flip

; 927  : }	

  00053	5f		 pop	 edi
  00054	5e		 pop	 esi
  00055	5b		 pop	 ebx
  00056	81 c4 c0 00 00
	00		 add	 esp, 192		; 000000c0H
  0005c	3b ec		 cmp	 ebp, esp
  0005e	e8 00 00 00 00	 call	 __RTC_CheckEsp
  00063	8b e5		 mov	 esp, ebp
  00065	5d		 pop	 ebp
  00066	c3		 ret	 0
?PutLogo@@YAXXZ ENDP					; PutLogo
_TEXT	ENDS
; Function compile flags: /Odtp /RTCsu /ZI
; File c:\program files (x86)\windows kits\10\include\10.0.10240.0\ucrt\stdio.h
;	COMDAT ??$sprintf_s@$0EAA@@@YAHAAY0EAA@DPBDZZ
_TEXT	SEGMENT
__ArgList$ = -8						; size = 4
__Buffer$ = 8						; size = 4
__Format$ = 12						; size = 4
??$sprintf_s@$0EAA@@@YAHAAY0EAA@DPBDZZ PROC		; sprintf_s<1024>, COMDAT

; 1850 :     )

  00000	55		 push	 ebp
  00001	8b ec		 mov	 ebp, esp
  00003	81 ec cc 00 00
	00		 sub	 esp, 204		; 000000ccH
  00009	53		 push	 ebx
  0000a	56		 push	 esi
  0000b	57		 push	 edi
  0000c	8d bd 34 ff ff
	ff		 lea	 edi, DWORD PTR [ebp-204]
  00012	b9 33 00 00 00	 mov	 ecx, 51			; 00000033H
  00017	b8 cc cc cc cc	 mov	 eax, -858993460		; ccccccccH
  0001c	f3 ab		 rep stosd

; 1846 : __DEFINE_CPP_OVERLOAD_SECURE_FUNC_0_1_ARGLIST(

  0001e	e8 00 00 00 00	 call	 ??$__vcrt_va_start_verify_argument_type@PBD@@YAXXZ ; __vcrt_va_start_verify_argument_type<char const *>
  00023	8d 45 10	 lea	 eax, DWORD PTR __Format$[ebp+4]
  00026	89 45 f8	 mov	 DWORD PTR __ArgList$[ebp], eax
  00029	8b 45 f8	 mov	 eax, DWORD PTR __ArgList$[ebp]
  0002c	50		 push	 eax
  0002d	8b 4d 0c	 mov	 ecx, DWORD PTR __Format$[ebp]
  00030	51		 push	 ecx
  00031	68 00 04 00 00	 push	 1024			; 00000400H
  00036	8b 55 08	 mov	 edx, DWORD PTR __Buffer$[ebp]
  00039	52		 push	 edx
  0003a	e8 00 00 00 00	 call	 _vsprintf_s
  0003f	83 c4 10	 add	 esp, 16			; 00000010H
  00042	5f		 pop	 edi
  00043	5e		 pop	 esi
  00044	5b		 pop	 ebx
  00045	81 c4 cc 00 00
	00		 add	 esp, 204		; 000000ccH
  0004b	3b ec		 cmp	 ebp, esp
  0004d	e8 00 00 00 00	 call	 __RTC_CheckEsp
  00052	8b e5		 mov	 esp, ebp
  00054	5d		 pop	 ebp
  00055	c3		 ret	 0
??$sprintf_s@$0EAA@@@YAHAAY0EAA@DPBDZZ ENDP		; sprintf_s<1024>
_TEXT	ENDS
; Function compile flags: /Odtp /RTCsu /ZI
; File c:\users\administrator\desktop\????? ??\????? ??\client source code\system\gamemain.cpp
;	COMDAT ?announce@@YAXXZ
_TEXT	SEGMENT
tv68 = -232						; size = 4
_showcolor$ = -32					; size = 4
_x$ = -20						; size = 4
_len$ = -8						; size = 4
?announce@@YAXXZ PROC					; announce, COMDAT

; 126  : void announce(){

  00000	55		 push	 ebp
  00001	8b ec		 mov	 ebp, esp
  00003	81 ec e8 00 00
	00		 sub	 esp, 232		; 000000e8H
  00009	53		 push	 ebx
  0000a	56		 push	 esi
  0000b	57		 push	 edi
  0000c	8d bd 18 ff ff
	ff		 lea	 edi, DWORD PTR [ebp-232]
  00012	b9 3a 00 00 00	 mov	 ecx, 58			; 0000003aH
  00017	b8 cc cc cc cc	 mov	 eax, -858993460		; ccccccccH
  0001c	f3 ab		 rep stosd

; 127  : 	if (公告数量 == 0) return;

  0001e	83 3d 00 00 00
	00 00		 cmp	 DWORD PTR ?公告数量@@3HA, 0 ; 公告数量
  00025	75 05		 jne	 SHORT $LN4@announce
  00027	e9 2e 01 00 00	 jmp	 $LN1@announce
$LN4@announce:

; 128  : 	dis += 4;

  0002c	a1 00 00 00 00	 mov	 eax, DWORD PTR ?dis@@3HA ; dis
  00031	83 c0 04	 add	 eax, 4
  00034	a3 00 00 00 00	 mov	 DWORD PTR ?dis@@3HA, eax ; dis

; 129  : 	int len = strlen(公告内容);

  00039	68 00 00 00 00	 push	 OFFSET ?公告内容@@3PADA	; 公告内容
  0003e	e8 00 00 00 00	 call	 _strlen
  00043	83 c4 04	 add	 esp, 4
  00046	89 45 f8	 mov	 DWORD PTR _len$[ebp], eax

; 130  : 	int x;
; 131  : 	int showcolor;
; 132  : 	switch (ResoMode){

  00049	a1 00 00 00 00	 mov	 eax, DWORD PTR ?ResoMode@@3HA ; ResoMode
  0004e	89 85 18 ff ff
	ff		 mov	 DWORD PTR tv68[ebp], eax
  00054	83 bd 18 ff ff
	ff 03		 cmp	 DWORD PTR tv68[ebp], 3
  0005b	74 31		 je	 SHORT $LN6@announce
  0005d	83 bd 18 ff ff
	ff 04		 cmp	 DWORD PTR tv68[ebp], 4
  00064	74 02		 je	 SHORT $LN5@announce
  00066	eb 4c		 jmp	 SHORT $LN7@announce
$LN5@announce:

; 133  : 		case 分辨率::mode1024:
; 134  : 			x = 976 - ((dis / 25) % (976 + (len * 8)));

  00068	a1 00 00 00 00	 mov	 eax, DWORD PTR ?dis@@3HA ; dis
  0006d	99		 cdq
  0006e	b9 19 00 00 00	 mov	 ecx, 25			; 00000019H
  00073	f7 f9		 idiv	 ecx
  00075	8b 55 f8	 mov	 edx, DWORD PTR _len$[ebp]
  00078	8d 0c d5 d0 03
	00 00		 lea	 ecx, DWORD PTR [edx*8+976]
  0007f	99		 cdq
  00080	f7 f9		 idiv	 ecx
  00082	b8 d0 03 00 00	 mov	 eax, 976		; 000003d0H
  00087	2b c2		 sub	 eax, edx
  00089	89 45 ec	 mov	 DWORD PTR _x$[ebp], eax

; 135  : 			break;

  0008c	eb 4a		 jmp	 SHORT $LN2@announce
$LN6@announce:

; 136  : 		case 分辨率::mode800:
; 137  : 			x = 752 - ((dis / 25) % (752 + (len * 8)));

  0008e	a1 00 00 00 00	 mov	 eax, DWORD PTR ?dis@@3HA ; dis
  00093	99		 cdq
  00094	b9 19 00 00 00	 mov	 ecx, 25			; 00000019H
  00099	f7 f9		 idiv	 ecx
  0009b	8b 55 f8	 mov	 edx, DWORD PTR _len$[ebp]
  0009e	8d 0c d5 f0 02
	00 00		 lea	 ecx, DWORD PTR [edx*8+752]
  000a5	99		 cdq
  000a6	f7 f9		 idiv	 ecx
  000a8	b8 f0 02 00 00	 mov	 eax, 752		; 000002f0H
  000ad	2b c2		 sub	 eax, edx
  000af	89 45 ec	 mov	 DWORD PTR _x$[ebp], eax

; 138  : 			break;

  000b2	eb 24		 jmp	 SHORT $LN2@announce
$LN7@announce:

; 139  : 		default:
; 140  : 			x = 592 - ((dis / 25) % (592 + (len * 8)));

  000b4	a1 00 00 00 00	 mov	 eax, DWORD PTR ?dis@@3HA ; dis
  000b9	99		 cdq
  000ba	b9 19 00 00 00	 mov	 ecx, 25			; 00000019H
  000bf	f7 f9		 idiv	 ecx
  000c1	8b 55 f8	 mov	 edx, DWORD PTR _len$[ebp]
  000c4	8d 0c d5 50 02
	00 00		 lea	 ecx, DWORD PTR [edx*8+592]
  000cb	99		 cdq
  000cc	f7 f9		 idiv	 ecx
  000ce	b8 50 02 00 00	 mov	 eax, 592		; 00000250H
  000d3	2b c2		 sub	 eax, edx
  000d5	89 45 ec	 mov	 DWORD PTR _x$[ebp], eax
$LN2@announce:

; 141  : 			break;
; 142  : 	}
; 143  : 	if (公告颜色 == -1){

  000d8	83 3d 00 00 00
	00 ff		 cmp	 DWORD PTR ?公告颜色@@3HA, -1 ; 公告颜色
  000df	75 1c		 jne	 SHORT $LN8@announce

; 144  : 		showcolor = rand() % 10;

  000e1	8b f4		 mov	 esi, esp
  000e3	ff 15 00 00 00
	00		 call	 DWORD PTR __imp__rand
  000e9	3b f4		 cmp	 esi, esp
  000eb	e8 00 00 00 00	 call	 __RTC_CheckEsp
  000f0	99		 cdq
  000f1	b9 0a 00 00 00	 mov	 ecx, 10			; 0000000aH
  000f6	f7 f9		 idiv	 ecx
  000f8	89 55 e0	 mov	 DWORD PTR _showcolor$[ebp], edx

; 145  : 	}else{

  000fb	eb 08		 jmp	 SHORT $LN9@announce
$LN8@announce:

; 146  : 		showcolor = 公告颜色;

  000fd	a1 00 00 00 00	 mov	 eax, DWORD PTR ?公告颜色@@3HA ; 公告颜色
  00102	89 45 e0	 mov	 DWORD PTR _showcolor$[ebp], eax
$LN9@announce:

; 147  : 	}
; 148  : 	
; 149  : 	if (x < 0){

  00105	83 7d ec 00	 cmp	 DWORD PTR _x$[ebp], 0
  00109	7d 19		 jge	 SHORT $LN10@announce

; 150  : 		公告数量--;

  0010b	a1 00 00 00 00	 mov	 eax, DWORD PTR ?公告数量@@3HA ; 公告数量
  00110	83 e8 01	 sub	 eax, 1
  00113	a3 00 00 00 00	 mov	 DWORD PTR ?公告数量@@3HA, eax ; 公告数量

; 151  : 		dis = 0;

  00118	c7 05 00 00 00
	00 00 00 00 00	 mov	 DWORD PTR ?dis@@3HA, 0	; dis

; 152  : 		return;

  00122	eb 36		 jmp	 SHORT $LN1@announce
$LN10@announce:

; 153  : 	}
; 154  : 	StockFontBuffer(x+48, 48, 1, showcolor, 公告内容, 0);

  00124	6a 00		 push	 0
  00126	68 00 00 00 00	 push	 OFFSET ?公告内容@@3PADA	; 公告内容
  0012b	8b 45 e0	 mov	 eax, DWORD PTR _showcolor$[ebp]
  0012e	50		 push	 eax
  0012f	6a 01		 push	 1
  00131	6a 30		 push	 48			; 00000030H
  00133	8b 4d ec	 mov	 ecx, DWORD PTR _x$[ebp]
  00136	83 c1 30	 add	 ecx, 48			; 00000030H
  00139	51		 push	 ecx
  0013a	e8 00 00 00 00	 call	 ?StockFontBuffer@@YAHHHDHPADH@Z ; StockFontBuffer
  0013f	83 c4 18	 add	 esp, 24			; 00000018H

; 155  : 	StockDispBuffer(560-48, 55, DISP_PRIO_MENU, IMAGE_下任务栏, 0);

  00142	6a 00		 push	 0
  00144	68 23 cb 00 00	 push	 52003			; 0000cb23H
  00149	6a 68		 push	 104			; 00000068H
  0014b	6a 37		 push	 55			; 00000037H
  0014d	68 00 02 00 00	 push	 512			; 00000200H
  00152	e8 00 00 00 00	 call	 ?StockDispBuffer@@YAHHHEHH@Z ; StockDispBuffer
  00157	83 c4 14	 add	 esp, 20			; 00000014H
$LN1@announce:

; 156  : }

  0015a	5f		 pop	 edi
  0015b	5e		 pop	 esi
  0015c	5b		 pop	 ebx
  0015d	81 c4 e8 00 00
	00		 add	 esp, 232		; 000000e8H
  00163	3b ec		 cmp	 ebp, esp
  00165	e8 00 00 00 00	 call	 __RTC_CheckEsp
  0016a	8b e5		 mov	 esp, ebp
  0016c	5d		 pop	 ebp
  0016d	c3		 ret	 0
?announce@@YAXXZ ENDP					; announce
_TEXT	ENDS
; Function compile flags: /Odtp /RTCsu /ZI
; File c:\users\administrator\desktop\????? ??\????? ??\client source code\system\gamemain.cpp
;	COMDAT ?DisplayFrameRate@@YAXXZ
_TEXT	SEGMENT
?DisplayFrameRate@@YAXXZ PROC				; DisplayFrameRate, COMDAT

; 907  : {

  00000	55		 push	 ebp
  00001	8b ec		 mov	 ebp, esp
  00003	81 ec c0 00 00
	00		 sub	 esp, 192		; 000000c0H
  00009	53		 push	 ebx
  0000a	56		 push	 esi
  0000b	57		 push	 edi
  0000c	8d bd 40 ff ff
	ff		 lea	 edi, DWORD PTR [ebp-192]
  00012	b9 30 00 00 00	 mov	 ecx, 48			; 00000030H
  00017	b8 cc cc cc cc	 mov	 eax, -858993460		; ccccccccH
  0001c	f3 ab		 rep stosd

; 908  : 	// ??????
; 909  :     if( TimeGetTime() - DrawFrameTime >= 1000 ){

  0001e	e8 00 00 00 00	 call	 ?TimeGetTime@@YAIXZ	; TimeGetTime
  00023	2b 05 00 00 00
	00		 sub	 eax, DWORD PTR ?DrawFrameTime@@3KA ; DrawFrameTime
  00029	3d e8 03 00 00	 cmp	 eax, 1000		; 000003e8H
  0002e	72 1e		 jb	 SHORT $LN1@DisplayFra

; 910  : 	
; 911  : 		// ??????????
; 912  :         FrameRate = DrawFrameCnt;

  00030	a1 00 00 00 00	 mov	 eax, DWORD PTR ?DrawFrameCnt@@3HA ; DrawFrameCnt
  00035	a3 00 00 00 00	 mov	 DWORD PTR ?FrameRate@@3HA, eax ; FrameRate

; 913  : 		// ???????
; 914  :         DrawFrameTime = TimeGetTime();

  0003a	e8 00 00 00 00	 call	 ?TimeGetTime@@YAIXZ	; TimeGetTime
  0003f	a3 00 00 00 00	 mov	 DWORD PTR ?DrawFrameTime@@3KA, eax ; DrawFrameTime

; 915  : 		// ????????????
; 916  :         DrawFrameCnt = 0;

  00044	c7 05 00 00 00
	00 00 00 00 00	 mov	 DWORD PTR ?DrawFrameCnt@@3HA, 0 ; DrawFrameCnt
$LN1@DisplayFra:

; 917  :     }
; 918  : }

  0004e	5f		 pop	 edi
  0004f	5e		 pop	 esi
  00050	5b		 pop	 ebx
  00051	81 c4 c0 00 00
	00		 add	 esp, 192		; 000000c0H
  00057	3b ec		 cmp	 ebp, esp
  00059	e8 00 00 00 00	 call	 __RTC_CheckEsp
  0005e	8b e5		 mov	 esp, ebp
  00060	5d		 pop	 ebp
  00061	c3		 ret	 0
?DisplayFrameRate@@YAXXZ ENDP				; DisplayFrameRate
_TEXT	ENDS
; Function compile flags: /Odtp /RTCsu /ZI
; File c:\users\administrator\desktop\????? ??\????? ??\client source code\system\gamemain.cpp
;	COMDAT ?GetSysInfo@@YA_NPAD@Z
_TEXT	SEGMENT
_out$ = 8						; size = 4
?GetSysInfo@@YA_NPAD@Z PROC				; GetSysInfo, COMDAT

; 1021 : {

  00000	55		 push	 ebp
  00001	8b ec		 mov	 ebp, esp
  00003	81 ec c0 00 00
	00		 sub	 esp, 192		; 000000c0H
  00009	53		 push	 ebx
  0000a	56		 push	 esi
  0000b	57		 push	 edi
  0000c	8d bd 40 ff ff
	ff		 lea	 edi, DWORD PTR [ebp-192]
  00012	b9 30 00 00 00	 mov	 ecx, 48			; 00000030H
  00017	b8 cc cc cc cc	 mov	 eax, -858993460		; ccccccccH
  0001c	f3 ab		 rep stosd

; 1022 : 
; 1023 : 	//VMProtectBegin("GetSysInfo");
; 1024 : 	
; 1025 : 	//VMProtectEnd();
; 1026 : 	return true;

  0001e	b0 01		 mov	 al, 1

; 1027 : }

  00020	5f		 pop	 edi
  00021	5e		 pop	 esi
  00022	5b		 pop	 ebx
  00023	8b e5		 mov	 esp, ebp
  00025	5d		 pop	 ebp
  00026	c3		 ret	 0
?GetSysInfo@@YA_NPAD@Z ENDP				; GetSysInfo
_TEXT	ENDS
; Function compile flags: /Odtp /RTCsu /ZI
; File c:\users\administrator\desktop\????? ??\????? ??\client source code\system\gamemain.cpp
;	COMDAT ?getCpuId@@YAHPAD@Z
_TEXT	SEGMENT
_s4$ = -44						; size = 4
_s3$ = -32						; size = 4
_s2$ = -20						; size = 4
_s1$ = -8						; size = 4
_cpuid$ = 8						; size = 4
?getCpuId@@YAHPAD@Z PROC				; getCpuId, COMDAT

; 1005 : int getCpuId(char * cpuid){

  00000	55		 push	 ebp
  00001	8b ec		 mov	 ebp, esp
  00003	81 ec f0 00 00
	00		 sub	 esp, 240		; 000000f0H
  00009	53		 push	 ebx
  0000a	56		 push	 esi
  0000b	57		 push	 edi
  0000c	8d bd 10 ff ff
	ff		 lea	 edi, DWORD PTR [ebp-240]
  00012	b9 3c 00 00 00	 mov	 ecx, 60			; 0000003cH
  00017	b8 cc cc cc cc	 mov	 eax, -858993460		; ccccccccH
  0001c	f3 ab		 rep stosd

; 1006 : 	unsigned long s1,s2, s3, s4;
; 1007 : 	__asm{
; 1008 : 		mov eax,01h

  0001e	b8 01 00 00 00	 mov	 eax, 1

; 1009 : 		xor edx,edx

  00023	33 d2		 xor	 edx, edx

; 1010 : 		cpuid

  00025	0f a2		 cpuid

; 1011 : 		mov s1,eax

  00027	89 45 f8	 mov	 DWORD PTR _s1$[ebp], eax

; 1012 : 		mov s2,ebx

  0002a	89 5d ec	 mov	 DWORD PTR _s2$[ebp], ebx

; 1013 : 		mov s3,ecx

  0002d	89 4d e0	 mov	 DWORD PTR _s3$[ebp], ecx

; 1014 : 		mov s4,edx

  00030	89 55 d4	 mov	 DWORD PTR _s4$[ebp], edx

; 1015 : 	}
; 1016 : 	sprintf(cpuid, "%08X%08X%08X%08X",s1,(s2&0xF0FFFFFF),s3,s4);

  00033	8b 45 d4	 mov	 eax, DWORD PTR _s4$[ebp]
  00036	50		 push	 eax
  00037	8b 4d e0	 mov	 ecx, DWORD PTR _s3$[ebp]
  0003a	51		 push	 ecx
  0003b	8b 55 ec	 mov	 edx, DWORD PTR _s2$[ebp]
  0003e	81 e2 ff ff ff
	f0		 and	 edx, -251658241		; f0ffffffH
  00044	52		 push	 edx
  00045	8b 45 f8	 mov	 eax, DWORD PTR _s1$[ebp]
  00048	50		 push	 eax
  00049	68 00 00 00 00	 push	 OFFSET ??_C@_0BB@BPIBEBLC@?$CF08X?$CF08X?$CF08X?$CF08X?$AA@
  0004e	8b 4d 08	 mov	 ecx, DWORD PTR _cpuid$[ebp]
  00051	51		 push	 ecx
  00052	e8 00 00 00 00	 call	 _sprintf
  00057	83 c4 18	 add	 esp, 24			; 00000018H

; 1017 : }

  0005a	5f		 pop	 edi
  0005b	5e		 pop	 esi
  0005c	5b		 pop	 ebx
  0005d	81 c4 f0 00 00
	00		 add	 esp, 240		; 000000f0H
  00063	3b ec		 cmp	 ebp, esp
  00065	e8 00 00 00 00	 call	 __RTC_CheckEsp
  0006a	8b e5		 mov	 esp, ebp
  0006c	5d		 pop	 ebp
  0006d	c3		 ret	 0
?getCpuId@@YAHPAD@Z ENDP				; getCpuId
_TEXT	ENDS
; Function compile flags: /Odtp /RTCsu /ZI
; File c:\users\administrator\desktop\????? ??\????? ??\client source code\system\gamemain.cpp
;	COMDAT ?getMAC@@YAHPAD@Z
_TEXT	SEGMENT
_lana$1 = -968						; size = 4
_uRetCode$ = -953					; size = 1
_lana_enum$ = -944					; size = 255
_Adapter$ = -680					; size = 600
_ncb$ = -72						; size = 64
__$ArrayPad$ = -4					; size = 4
_mac$ = 8						; size = 4
?getMAC@@YAHPAD@Z PROC					; getMAC, COMDAT

; 943  : {     

  00000	55		 push	 ebp
  00001	8b ec		 mov	 ebp, esp
  00003	81 ec 4c 05 00
	00		 sub	 esp, 1356		; 0000054cH
  00009	53		 push	 ebx
  0000a	56		 push	 esi
  0000b	57		 push	 edi
  0000c	8d bd b4 fa ff
	ff		 lea	 edi, DWORD PTR [ebp-1356]
  00012	b9 53 01 00 00	 mov	 ecx, 339		; 00000153H
  00017	b8 cc cc cc cc	 mov	 eax, -858993460		; ccccccccH
  0001c	f3 ab		 rep stosd
  0001e	a1 00 00 00 00	 mov	 eax, DWORD PTR ___security_cookie
  00023	33 c5		 xor	 eax, ebp
  00025	89 45 fc	 mov	 DWORD PTR __$ArrayPad$[ebp], eax

; 944  : 	NCB ncb;
; 945  : 	typedef struct _ASTAT_
; 946  : 	{
; 947  : 		ADAPTER_STATUS   adapt;
; 948  : 		NAME_BUFFER   NameBuff   [30];
; 949  : 	}ASTAT,*PASTAT;
; 950  : 
; 951  : 	ASTAT Adapter;   
; 952  : 
; 953  : 	typedef struct _LANA_ENUM
; 954  : 	{
; 955  : 		UCHAR   length;
; 956  : 		UCHAR   lana[MAX_LANA];
; 957  : 	}LANA_ENUM;
; 958  : 
; 959  : 	LANA_ENUM lana_enum;    
; 960  : 	UCHAR uRetCode;
; 961  : 	memset(&ncb, 0, sizeof(ncb));

  00028	6a 40		 push	 64			; 00000040H
  0002a	6a 00		 push	 0
  0002c	8d 45 b8	 lea	 eax, DWORD PTR _ncb$[ebp]
  0002f	50		 push	 eax
  00030	e8 00 00 00 00	 call	 _memset
  00035	83 c4 0c	 add	 esp, 12			; 0000000cH

; 962  : 	memset(&lana_enum, 0, sizeof(lana_enum));    

  00038	68 ff 00 00 00	 push	 255			; 000000ffH
  0003d	6a 00		 push	 0
  0003f	8d 85 50 fc ff
	ff		 lea	 eax, DWORD PTR _lana_enum$[ebp]
  00045	50		 push	 eax
  00046	e8 00 00 00 00	 call	 _memset
  0004b	83 c4 0c	 add	 esp, 12			; 0000000cH

; 963  : 	ncb.ncb_command = NCBENUM;

  0004e	c6 45 b8 37	 mov	 BYTE PTR _ncb$[ebp], 55	; 00000037H

; 964  : 	ncb.ncb_buffer = (unsigned char *)&lana_enum;

  00052	8d 85 50 fc ff
	ff		 lea	 eax, DWORD PTR _lana_enum$[ebp]
  00058	89 45 bc	 mov	 DWORD PTR _ncb$[ebp+4], eax

; 965  : 	ncb.ncb_length = sizeof(LANA_ENUM);

  0005b	b8 ff 00 00 00	 mov	 eax, 255		; 000000ffH
  00060	66 89 45 c0	 mov	 WORD PTR _ncb$[ebp+8], ax

; 966  : 	uRetCode = Netbios(&ncb);

  00064	8d 45 b8	 lea	 eax, DWORD PTR _ncb$[ebp]
  00067	50		 push	 eax
  00068	e8 00 00 00 00	 call	 _Netbios@4
  0006d	88 85 47 fc ff
	ff		 mov	 BYTE PTR _uRetCode$[ebp], al

; 967  : 
; 968  : 	if(uRetCode != NRC_GOODRET)     

  00073	0f b6 85 47 fc
	ff ff		 movzx	 eax, BYTE PTR _uRetCode$[ebp]
  0007a	85 c0		 test	 eax, eax
  0007c	74 0c		 je	 SHORT $LN5@getMAC

; 969  : 		return uRetCode;     

  0007e	0f b6 85 47 fc
	ff ff		 movzx	 eax, BYTE PTR _uRetCode$[ebp]
  00085	e9 57 01 00 00	 jmp	 $LN1@getMAC
$LN5@getMAC:

; 970  : 
; 971  : 	for(int lana=0; lana<lana_enum.length; lana++)     

  0008a	c7 85 38 fc ff
	ff 00 00 00 00	 mov	 DWORD PTR _lana$1[ebp], 0
  00094	eb 0f		 jmp	 SHORT $LN4@getMAC
$LN2@getMAC:
  00096	8b 85 38 fc ff
	ff		 mov	 eax, DWORD PTR _lana$1[ebp]
  0009c	83 c0 01	 add	 eax, 1
  0009f	89 85 38 fc ff
	ff		 mov	 DWORD PTR _lana$1[ebp], eax
$LN4@getMAC:
  000a5	0f b6 85 50 fc
	ff ff		 movzx	 eax, BYTE PTR _lana_enum$[ebp]
  000ac	39 85 38 fc ff
	ff		 cmp	 DWORD PTR _lana$1[ebp], eax
  000b2	7d 32		 jge	 SHORT $LN3@getMAC

; 972  : 	{
; 973  : 		ncb.ncb_command = NCBRESET;

  000b4	c6 45 b8 32	 mov	 BYTE PTR _ncb$[ebp], 50	; 00000032H

; 974  : 		ncb.ncb_lana_num = lana_enum.lana[lana];

  000b8	8b 85 38 fc ff
	ff		 mov	 eax, DWORD PTR _lana$1[ebp]
  000be	8a 8c 05 51 fc
	ff ff		 mov	 cl, BYTE PTR _lana_enum$[ebp+eax+1]
  000c5	88 4d e8	 mov	 BYTE PTR _ncb$[ebp+48], cl

; 975  : 		uRetCode = Netbios(&ncb); 

  000c8	8d 45 b8	 lea	 eax, DWORD PTR _ncb$[ebp]
  000cb	50		 push	 eax
  000cc	e8 00 00 00 00	 call	 _Netbios@4
  000d1	88 85 47 fc ff
	ff		 mov	 BYTE PTR _uRetCode$[ebp], al

; 976  : 		if(uRetCode == NRC_GOODRET)

  000d7	0f b6 85 47 fc
	ff ff		 movzx	 eax, BYTE PTR _uRetCode$[ebp]
  000de	85 c0		 test	 eax, eax
  000e0	75 02		 jne	 SHORT $LN6@getMAC

; 977  : 			break; 

  000e2	eb 02		 jmp	 SHORT $LN3@getMAC
$LN6@getMAC:

; 978  : 	}

  000e4	eb b0		 jmp	 SHORT $LN2@getMAC
$LN3@getMAC:

; 979  : 
; 980  : 	if(uRetCode != NRC_GOODRET)

  000e6	0f b6 85 47 fc
	ff ff		 movzx	 eax, BYTE PTR _uRetCode$[ebp]
  000ed	85 c0		 test	 eax, eax
  000ef	74 0c		 je	 SHORT $LN7@getMAC

; 981  : 		return uRetCode;     

  000f1	0f b6 85 47 fc
	ff ff		 movzx	 eax, BYTE PTR _uRetCode$[ebp]
  000f8	e9 e4 00 00 00	 jmp	 $LN1@getMAC
$LN7@getMAC:

; 982  : 
; 983  : 	memset(&ncb, 0, sizeof(ncb));

  000fd	6a 40		 push	 64			; 00000040H
  000ff	6a 00		 push	 0
  00101	8d 45 b8	 lea	 eax, DWORD PTR _ncb$[ebp]
  00104	50		 push	 eax
  00105	e8 00 00 00 00	 call	 _memset
  0010a	83 c4 0c	 add	 esp, 12			; 0000000cH

; 984  : 	ncb.ncb_command = NCBASTAT;

  0010d	c6 45 b8 33	 mov	 BYTE PTR _ncb$[ebp], 51	; 00000033H

; 985  : 	ncb.ncb_lana_num = lana_enum.lana[0];

  00111	b8 01 00 00 00	 mov	 eax, 1
  00116	6b c8 00	 imul	 ecx, eax, 0
  00119	8a 94 0d 51 fc
	ff ff		 mov	 dl, BYTE PTR _lana_enum$[ebp+ecx+1]
  00120	88 55 e8	 mov	 BYTE PTR _ncb$[ebp+48], dl

; 986  : 	strcpy((char*)ncb.ncb_callname, "*");

  00123	68 00 00 00 00	 push	 OFFSET ??_C@_01NBENCBCI@?$CK?$AA@
  00128	8d 45 c2	 lea	 eax, DWORD PTR _ncb$[ebp+10]
  0012b	50		 push	 eax
  0012c	e8 00 00 00 00	 call	 _strcpy
  00131	83 c4 08	 add	 esp, 8

; 987  : 	ncb.ncb_buffer = (unsigned char *)&Adapter;

  00134	8d 85 58 fd ff
	ff		 lea	 eax, DWORD PTR _Adapter$[ebp]
  0013a	89 45 bc	 mov	 DWORD PTR _ncb$[ebp+4], eax

; 988  : 	ncb.ncb_length = sizeof(Adapter);

  0013d	b8 58 02 00 00	 mov	 eax, 600		; 00000258H
  00142	66 89 45 c0	 mov	 WORD PTR _ncb$[ebp+8], ax

; 989  : 	uRetCode = Netbios(&ncb);

  00146	8d 45 b8	 lea	 eax, DWORD PTR _ncb$[ebp]
  00149	50		 push	 eax
  0014a	e8 00 00 00 00	 call	 _Netbios@4
  0014f	88 85 47 fc ff
	ff		 mov	 BYTE PTR _uRetCode$[ebp], al

; 990  : 
; 991  : 	if(uRetCode != NRC_GOODRET)

  00155	0f b6 85 47 fc
	ff ff		 movzx	 eax, BYTE PTR _uRetCode$[ebp]
  0015c	85 c0		 test	 eax, eax
  0015e	74 09		 je	 SHORT $LN8@getMAC

; 992  : 		return uRetCode;

  00160	0f b6 85 47 fc
	ff ff		 movzx	 eax, BYTE PTR _uRetCode$[ebp]
  00167	eb 78		 jmp	 SHORT $LN1@getMAC
$LN8@getMAC:

; 993  : 
; 994  : 	sprintf(mac,"%02X-%02X-%02X-%02X-%02X-%02X",

  00169	b8 01 00 00 00	 mov	 eax, 1
  0016e	6b c8 05	 imul	 ecx, eax, 5
  00171	0f b6 94 0d 58
	fd ff ff	 movzx	 edx, BYTE PTR _Adapter$[ebp+ecx]
  00179	52		 push	 edx
  0017a	b8 01 00 00 00	 mov	 eax, 1
  0017f	c1 e0 02	 shl	 eax, 2
  00182	0f b6 8c 05 58
	fd ff ff	 movzx	 ecx, BYTE PTR _Adapter$[ebp+eax]
  0018a	51		 push	 ecx
  0018b	ba 01 00 00 00	 mov	 edx, 1
  00190	6b c2 03	 imul	 eax, edx, 3
  00193	0f b6 8c 05 58
	fd ff ff	 movzx	 ecx, BYTE PTR _Adapter$[ebp+eax]
  0019b	51		 push	 ecx
  0019c	ba 01 00 00 00	 mov	 edx, 1
  001a1	d1 e2		 shl	 edx, 1
  001a3	0f b6 84 15 58
	fd ff ff	 movzx	 eax, BYTE PTR _Adapter$[ebp+edx]
  001ab	50		 push	 eax
  001ac	b9 01 00 00 00	 mov	 ecx, 1
  001b1	c1 e1 00	 shl	 ecx, 0
  001b4	0f b6 94 0d 58
	fd ff ff	 movzx	 edx, BYTE PTR _Adapter$[ebp+ecx]
  001bc	52		 push	 edx
  001bd	b8 01 00 00 00	 mov	 eax, 1
  001c2	6b c8 00	 imul	 ecx, eax, 0
  001c5	0f b6 94 0d 58
	fd ff ff	 movzx	 edx, BYTE PTR _Adapter$[ebp+ecx]
  001cd	52		 push	 edx
  001ce	68 00 00 00 00	 push	 OFFSET ??_C@_0BO@GHBLPFMO@?$CF02X?9?$CF02X?9?$CF02X?9?$CF02X?9?$CF02X?9?$CF02X?$AA@
  001d3	8b 45 08	 mov	 eax, DWORD PTR _mac$[ebp]
  001d6	50		 push	 eax
  001d7	e8 00 00 00 00	 call	 _sprintf
  001dc	83 c4 20	 add	 esp, 32			; 00000020H

; 995  : 		Adapter.adapt.adapter_address[0],
; 996  : 		Adapter.adapt.adapter_address[1],
; 997  : 		Adapter.adapt.adapter_address[2],
; 998  : 		Adapter.adapt.adapter_address[3],
; 999  : 		Adapter.adapt.adapter_address[4],
; 1000 : 		Adapter.adapt.adapter_address[5]);
; 1001 : 
; 1002 : 	return 0;   

  001df	33 c0		 xor	 eax, eax
$LN1@getMAC:

; 1003 : }

  001e1	52		 push	 edx
  001e2	8b cd		 mov	 ecx, ebp
  001e4	50		 push	 eax
  001e5	8d 15 00 00 00
	00		 lea	 edx, DWORD PTR $LN14@getMAC
  001eb	e8 00 00 00 00	 call	 @_RTC_CheckStackVars@8
  001f0	58		 pop	 eax
  001f1	5a		 pop	 edx
  001f2	5f		 pop	 edi
  001f3	5e		 pop	 esi
  001f4	5b		 pop	 ebx
  001f5	8b 4d fc	 mov	 ecx, DWORD PTR __$ArrayPad$[ebp]
  001f8	33 cd		 xor	 ecx, ebp
  001fa	e8 00 00 00 00	 call	 @__security_check_cookie@4
  001ff	81 c4 4c 05 00
	00		 add	 esp, 1356		; 0000054cH
  00205	3b ec		 cmp	 ebp, esp
  00207	e8 00 00 00 00	 call	 __RTC_CheckEsp
  0020c	8b e5		 mov	 esp, ebp
  0020e	5d		 pop	 ebp
  0020f	c3		 ret	 0
$LN14@getMAC:
  00210	03 00 00 00	 DD	 3
  00214	00 00 00 00	 DD	 $LN13@getMAC
$LN13@getMAC:
  00218	b8 ff ff ff	 DD	 -72			; ffffffb8H
  0021c	40 00 00 00	 DD	 64			; 00000040H
  00220	00 00 00 00	 DD	 $LN10@getMAC
  00224	58 fd ff ff	 DD	 -680			; fffffd58H
  00228	58 02 00 00	 DD	 600			; 00000258H
  0022c	00 00 00 00	 DD	 $LN11@getMAC
  00230	50 fc ff ff	 DD	 -944			; fffffc50H
  00234	ff 00 00 00	 DD	 255			; 000000ffH
  00238	00 00 00 00	 DD	 $LN12@getMAC
$LN12@getMAC:
  0023c	6c		 DB	 108			; 0000006cH
  0023d	61		 DB	 97			; 00000061H
  0023e	6e		 DB	 110			; 0000006eH
  0023f	61		 DB	 97			; 00000061H
  00240	5f		 DB	 95			; 0000005fH
  00241	65		 DB	 101			; 00000065H
  00242	6e		 DB	 110			; 0000006eH
  00243	75		 DB	 117			; 00000075H
  00244	6d		 DB	 109			; 0000006dH
  00245	00		 DB	 0
$LN11@getMAC:
  00246	41		 DB	 65			; 00000041H
  00247	64		 DB	 100			; 00000064H
  00248	61		 DB	 97			; 00000061H
  00249	70		 DB	 112			; 00000070H
  0024a	74		 DB	 116			; 00000074H
  0024b	65		 DB	 101			; 00000065H
  0024c	72		 DB	 114			; 00000072H
  0024d	00		 DB	 0
$LN10@getMAC:
  0024e	6e		 DB	 110			; 0000006eH
  0024f	63		 DB	 99			; 00000063H
  00250	62		 DB	 98			; 00000062H
  00251	00		 DB	 0
?getMAC@@YAHPAD@Z ENDP					; getMAC
_TEXT	ENDS
; Function compile flags: /Odtp /RTCsu /ZI
; File c:\users\administrator\desktop\????? ??\????? ??\client source code\system\gamemain.cpp
;	COMDAT ?EndGame@@YAXXZ
_TEXT	SEGMENT
?EndGame@@YAXXZ PROC					; EndGame, COMDAT

; 1204 : {

  00000	55		 push	 ebp
  00001	8b ec		 mov	 ebp, esp
  00003	81 ec c0 00 00
	00		 sub	 esp, 192		; 000000c0H
  00009	53		 push	 ebx
  0000a	56		 push	 esi
  0000b	57		 push	 edi
  0000c	8d bd 40 ff ff
	ff		 lea	 edi, DWORD PTR [ebp-192]
  00012	b9 30 00 00 00	 mov	 ecx, 48			; 00000030H
  00017	b8 cc cc cc cc	 mov	 eax, -858993460		; ccccccccH
  0001c	f3 ab		 rep stosd

; 1205 : #ifdef __NEW_CLIENT
; 1206 : 	extern HANDLE hPing;
; 1207 : 	extern SOCKET sockRaw;
; 1208 : 	if( hPing){

  0001e	83 3d 00 00 00
	00 00		 cmp	 DWORD PTR ?hPing@@3PAXA, 0 ; hPing
  00025	74 4b		 je	 SHORT $LN2@EndGame

; 1209 : 		closesocket( sockRaw);

  00027	a1 00 00 00 00	 mov	 eax, DWORD PTR ?sockRaw@@3IA ; sockRaw
  0002c	50		 push	 eax
  0002d	e8 00 00 00 00	 call	 _closesocket@4

; 1210 : 		sockRaw = INVALID_SOCKET;

  00032	c7 05 00 00 00
	00 ff ff ff ff	 mov	 DWORD PTR ?sockRaw@@3IA, -1 ; sockRaw

; 1211 : 		TerminateThread( hPing, 0);

  0003c	8b f4		 mov	 esi, esp
  0003e	6a 00		 push	 0
  00040	a1 00 00 00 00	 mov	 eax, DWORD PTR ?hPing@@3PAXA ; hPing
  00045	50		 push	 eax
  00046	ff 15 00 00 00
	00		 call	 DWORD PTR __imp__TerminateThread@8
  0004c	3b f4		 cmp	 esi, esp
  0004e	e8 00 00 00 00	 call	 __RTC_CheckEsp

; 1212 : 		CloseHandle( hPing);

  00053	8b f4		 mov	 esi, esp
  00055	a1 00 00 00 00	 mov	 eax, DWORD PTR ?hPing@@3PAXA ; hPing
  0005a	50		 push	 eax
  0005b	ff 15 00 00 00
	00		 call	 DWORD PTR __imp__CloseHandle@4
  00061	3b f4		 cmp	 esi, esp
  00063	e8 00 00 00 00	 call	 __RTC_CheckEsp

; 1213 : 		hPing = NULL;

  00068	c7 05 00 00 00
	00 00 00 00 00	 mov	 DWORD PTR ?hPing@@3PAXA, 0 ; hPing
$LN2@EndGame:

; 1214 : 	}
; 1215 : #endif
; 1216 : 	if( net_readbuf){

  00072	83 3d 00 00 00
	00 00		 cmp	 DWORD PTR ?net_readbuf@@3PADA, 0 ; net_readbuf
  00079	74 26		 je	 SHORT $LN3@EndGame

; 1217 : 		VirtualFree( net_readbuf, NULL, MEM_RELEASE);

  0007b	8b f4		 mov	 esi, esp
  0007d	68 00 80 00 00	 push	 32768			; 00008000H
  00082	6a 00		 push	 0
  00084	a1 00 00 00 00	 mov	 eax, DWORD PTR ?net_readbuf@@3PADA ; net_readbuf
  00089	50		 push	 eax
  0008a	ff 15 00 00 00
	00		 call	 DWORD PTR __imp__VirtualFree@12
  00090	3b f4		 cmp	 esi, esp
  00092	e8 00 00 00 00	 call	 __RTC_CheckEsp

; 1218 : 		net_readbuf = NULL;

  00097	c7 05 00 00 00
	00 00 00 00 00	 mov	 DWORD PTR ?net_readbuf@@3PADA, 0 ; net_readbuf
$LN3@EndGame:

; 1219 : 	}
; 1220 : 	if( net_writebuf){

  000a1	83 3d 00 00 00
	00 00		 cmp	 DWORD PTR ?net_writebuf@@3PADA, 0 ; net_writebuf
  000a8	74 26		 je	 SHORT $LN4@EndGame

; 1221 : 		VirtualFree( net_writebuf, NULL, MEM_RELEASE);

  000aa	8b f4		 mov	 esi, esp
  000ac	68 00 80 00 00	 push	 32768			; 00008000H
  000b1	6a 00		 push	 0
  000b3	a1 00 00 00 00	 mov	 eax, DWORD PTR ?net_writebuf@@3PADA ; net_writebuf
  000b8	50		 push	 eax
  000b9	ff 15 00 00 00
	00		 call	 DWORD PTR __imp__VirtualFree@12
  000bf	3b f4		 cmp	 esi, esp
  000c1	e8 00 00 00 00	 call	 __RTC_CheckEsp

; 1222 : 		net_writebuf = NULL;

  000c6	c7 05 00 00 00
	00 00 00 00 00	 mov	 DWORD PTR ?net_writebuf@@3PADA, 0 ; net_writebuf
$LN4@EndGame:

; 1223 : 	}
; 1224 : 	//DirectDraw ?
; 1225 : 	ReleaseDirectDraw();

  000d0	e8 00 00 00 00	 call	 ?ReleaseDirectDraw@@YAXXZ ; ReleaseDirectDraw

; 1226 : 	// ???????????
; 1227 : 	EndDInput();

  000d5	e8 00 00 00 00	 call	 ?EndDInput@@YAHXZ	; EndDInput

; 1228 : 	// DirectSound ?
; 1229 : 	t_music_end();

  000da	e8 00 00 00 00	 call	 ?t_music_end@@YAXXZ	; t_music_end

; 1230 : 	// ????_
; 1231 : 	cdda_stop();

  000df	e8 00 00 00 00	 call	 ?cdda_stop@@YA_NXZ	; cdda_stop

; 1232 : 	// Rialbin ??
; 1233 : 	cleanupRealbin();

  000e4	e8 00 00 00 00	 call	 ?cleanupRealbin@@YAXXZ	; cleanupRealbin

; 1234 : 	// ????????????
; 1235 : 	DeleteObject( hFont );

  000e9	8b f4		 mov	 esi, esp
  000eb	a1 00 00 00 00	 mov	 eax, DWORD PTR ?hFont@@3PAUHFONT__@@A ; hFont
  000f0	50		 push	 eax
  000f1	ff 15 00 00 00
	00		 call	 DWORD PTR __imp__DeleteObject@4
  000f7	3b f4		 cmp	 esi, esp
  000f9	e8 00 00 00 00	 call	 __RTC_CheckEsp

; 1236 : 	// ?????
; 1237 : 	EndIme();

  000fe	e8 00 00 00 00	 call	 ?EndIme@@YAXXZ		; EndIme

; 1238 : 	// ????????
; 1239 : 	EndAction();

  00103	e8 00 00 00 00	 call	 ?EndAction@@YAXXZ	; EndAction

; 1240 : 	// ?????????
; 1241 : 	cleanupNetwork();

  00108	e8 00 00 00 00	 call	 ?cleanupNetwork@@YAXXZ	; cleanupNetwork

; 1242 : 	// i??h???????????
; 1243 : 	ReleaseMutex( hMutex );

  0010d	8b f4		 mov	 esi, esp
  0010f	a1 00 00 00 00	 mov	 eax, DWORD PTR ?hMutex@@3PAXA ; hMutex
  00114	50		 push	 eax
  00115	ff 15 00 00 00
	00		 call	 DWORD PTR __imp__ReleaseMutex@4
  0011b	3b f4		 cmp	 esi, esp
  0011d	e8 00 00 00 00	 call	 __RTC_CheckEsp

; 1244 : 	// ????????
; 1245 : 	saveUserSetting();

  00122	e8 00 00 00 00	 call	 ?saveUserSetting@@YAHXZ	; saveUserSetting

; 1246 : 	// ?????K???颌V
; 1247 : 	SaveChatRegistyStr();

  00127	e8 00 00 00 00	 call	 ?SaveChatRegistyStr@@YAHXZ ; SaveChatRegistyStr

; 1248 : 	
; 1249 : 	// ?????
; 1250 : //	timeKillEvent(timerId);
; 1251 : 	
; 1252 : 	//{
; 1253 : 		// ALT+TAB ?????
; 1254 : 	//	int nOldVal;
; 1255 : 	//	SystemParametersInfo (SPI_SCREENSAVERRUNNING, FALSE, &nOldVal, 0);
; 1256 : 	//}
; 1257 : #ifdef _CHANNEL_MODIFY
; 1258 : 	SaveChatData(NULL,0,true);

  0012c	6a 01		 push	 1
  0012e	6a 00		 push	 0
  00130	6a 00		 push	 0
  00132	e8 00 00 00 00	 call	 ?SaveChatData@@YAXPADD_N@Z ; SaveChatData
  00137	83 c4 0c	 add	 esp, 12			; 0000000cH

; 1259 : #endif
; 1260 : #ifdef _REMAKE_20
; 1261 : #ifndef _STONDEBUG_
; 1262 : 	UnregisterHotKey(hWnd,0);
; 1263 : 	UnregisterHotKey(hWnd,1);
; 1264 : #endif
; 1265 : #endif
; 1266 : 	util_Release();

  0013a	e8 00 00 00 00	 call	 ?util_Release@@YAXXZ	; util_Release

; 1267 : }

  0013f	5f		 pop	 edi
  00140	5e		 pop	 esi
  00141	5b		 pop	 ebx
  00142	81 c4 c0 00 00
	00		 add	 esp, 192		; 000000c0H
  00148	3b ec		 cmp	 ebp, esp
  0014a	e8 00 00 00 00	 call	 __RTC_CheckEsp
  0014f	8b e5		 mov	 esp, ebp
  00151	5d		 pop	 ebp
  00152	c3		 ret	 0
?EndGame@@YAXXZ ENDP					; EndGame
_TEXT	ENDS
; Function compile flags: /Odtp /RTCsu /ZI
; File c:\users\administrator\desktop\????? ??\????? ??\client source code\system\gamemain.cpp
;	COMDAT ?InitGame@@YAHXZ
_TEXT	SEGMENT
_msg$1 = -1168						; size = 1024
__$ArrayPad$ = -4					; size = 4
?InitGame@@YAHXZ PROC					; InitGame, COMDAT

; 1030 : {

  00000	55		 push	 ebp
  00001	8b ec		 mov	 ebp, esp
  00003	81 ec d4 06 00
	00		 sub	 esp, 1748		; 000006d4H
  00009	53		 push	 ebx
  0000a	56		 push	 esi
  0000b	57		 push	 edi
  0000c	8d bd 2c f9 ff
	ff		 lea	 edi, DWORD PTR [ebp-1748]
  00012	b9 b5 01 00 00	 mov	 ecx, 437		; 000001b5H
  00017	b8 cc cc cc cc	 mov	 eax, -858993460		; ccccccccH
  0001c	f3 ab		 rep stosd
  0001e	a1 00 00 00 00	 mov	 eax, DWORD PTR ___security_cookie
  00023	33 c5		 xor	 eax, ebp
  00025	89 45 fc	 mov	 DWORD PTR __$ArrayPad$[ebp], eax

; 1031 : 	char token[128];	
; 1032 : 	InitDInput();

  00028	e8 00 00 00 00	 call	 ?InitDInput@@YAHXZ	; InitDInput

; 1033 : 
; 1034 : 	/*if(!LoadReadSayShield())
; 1035 : 		return FALSE;
; 1036 : 	if(!LoadReadNameShield())
; 1037 : 		return FALSE;*/
; 1038 : #ifdef _READ16BITBMP
; 1039 : 	unsigned int testMMX = 0;
; 1040 : 	// 测试cpu是否有MMX指令集
; 1041 : 	__asm{
; 1042 : 		push eax
; 1043 : 		mov eax,1
; 1044 : 		CPUID
; 1045 : 		mov testMMX,edx
; 1046 : 		pop eax
; 1047 : 	}
; 1048 : 	// 第23个位元若为1表示有MMX
; 1049 : 	if(testMMX & 0x00800000) g_bMMXMode = true;
; 1050 : 	else g_bMMXMode = false;
; 1051 : #endif
; 1052 : #ifdef _STONDEBUG_
; 1053 : 	#ifdef _READ16BITBMP
; 1054 : 	QueryPerformanceFrequency(&tf);
; 1055 : 	iTotalProcTime = 0;
; 1056 : 	iTotalRunCount = 0;
; 1057 : 	#endif
; 1058 : #endif
; 1059 : 	util_Init();

  0002d	e8 00 00 00 00	 call	 ?util_Init@@YAXXZ	; util_Init

; 1060 : 	if( InitDirectDraw() == FALSE ){

  00032	e8 00 00 00 00	 call	 ?InitDirectDraw@@YAHXZ	; InitDirectDraw
  00037	85 c0		 test	 eax, eax
  00039	75 28		 jne	 SHORT $LN2@InitGame

; 1061 : 		MessageBox( hWnd, "初始化DirectDraw失败！", "??", MB_OK | MB_ICONSTOP );

  0003b	8b f4		 mov	 esi, esp
  0003d	6a 10		 push	 16			; 00000010H
  0003f	68 00 00 00 00	 push	 OFFSET ??_C@_02HHFHKOHM@?$DP?$DP?$AA@
  00044	68 00 00 00 00	 push	 OFFSET ??_C@_0BG@KOBCOCEJ@?t?x?c?$LH?$PL?yDirectDraw?c?w?$DP?$KD?$KB?$AA@
  00049	a1 00 00 00 00	 mov	 eax, DWORD PTR ?hWnd@@3PAUHWND__@@A ; hWnd
  0004e	50		 push	 eax
  0004f	ff 15 00 00 00
	00		 call	 DWORD PTR __imp__MessageBoxA@16
  00055	3b f4		 cmp	 esi, esp
  00057	e8 00 00 00 00	 call	 __RTC_CheckEsp

; 1062 : 		return FALSE;

  0005c	33 c0		 xor	 eax, eax
  0005e	e9 b3 02 00 00	 jmp	 $LN1@InitGame
$LN2@InitGame:

; 1063 : 	}
; 1064 : 	if( InitOffScreenSurface() == FALSE ){

  00063	e8 00 00 00 00	 call	 ?InitOffScreenSurface@@YAHXZ ; InitOffScreenSurface
  00068	85 c0		 test	 eax, eax
  0006a	75 28		 jne	 SHORT $LN3@InitGame

; 1065 : 		MessageBox( hWnd, "初始化Off Screan Surface失败！", "??", MB_OK | MB_ICONSTOP );

  0006c	8b f4		 mov	 esi, esp
  0006e	6a 10		 push	 16			; 00000010H
  00070	68 00 00 00 00	 push	 OFFSET ??_C@_02HHFHKOHM@?$DP?$DP?$AA@
  00075	68 00 00 00 00	 push	 OFFSET ??_C@_0BO@JNDLJLE@?t?x?c?$LH?$PL?yOff?5Screan?5Surface?c?w?$DP?$KD?$KB?$AA@
  0007a	a1 00 00 00 00	 mov	 eax, DWORD PTR ?hWnd@@3PAUHWND__@@A ; hWnd
  0007f	50		 push	 eax
  00080	ff 15 00 00 00
	00		 call	 DWORD PTR __imp__MessageBoxA@16
  00086	3b f4		 cmp	 esi, esp
  00088	e8 00 00 00 00	 call	 __RTC_CheckEsp

; 1066 : 		return FALSE;

  0008d	33 c0		 xor	 eax, eax
  0008f	e9 82 02 00 00	 jmp	 $LN1@InitGame
$LN3@InitGame:

; 1067 : 	}
; 1068 : 	if( InitPalette() == FALSE )

  00094	e8 00 00 00 00	 call	 ?InitPalette@@YAHXZ	; InitPalette
  00099	85 c0		 test	 eax, eax
  0009b	75 07		 jne	 SHORT $LN4@InitGame

; 1069 : 		return FALSE;

  0009d	33 c0		 xor	 eax, eax
  0009f	e9 72 02 00 00	 jmp	 $LN1@InitGame
$LN4@InitGame:

; 1070 : 
; 1071 : 	BOOL initRealbinFileOpen(char *realbinfilename, char *addrbinfilename);
; 1072 : 	if( initRealbinFileOpen( realBinName, adrnBinName ) == FALSE ) {

  000a4	68 00 00 00 00	 push	 OFFSET ?adrnBinName@@3PADA ; adrnBinName
  000a9	68 00 00 00 00	 push	 OFFSET ?realBinName@@3PADA ; realBinName
  000ae	e8 00 00 00 00	 call	 ?initRealbinFileOpen@@YAHPAD0@Z ; initRealbinFileOpen
  000b3	83 c4 08	 add	 esp, 8
  000b6	85 c0		 test	 eax, eax
  000b8	75 28		 jne	 SHORT $LN5@InitGame

; 1073 : 		MessageBox( hWnd, "开启Real.bin失败！", "??", MB_OK | MB_ICONSTOP );

  000ba	8b f4		 mov	 esi, esp
  000bc	6a 10		 push	 16			; 00000010H
  000be	68 00 00 00 00	 push	 OFFSET ??_C@_02HHFHKOHM@?$DP?$DP?$AA@
  000c3	68 00 00 00 00	 push	 OFFSET ??_C@_0BA@FBJLMDLE@?$DP?$DPReal?4bin?c?w?$DP?$KD?$KB?$AA@
  000c8	a1 00 00 00 00	 mov	 eax, DWORD PTR ?hWnd@@3PAUHWND__@@A ; hWnd
  000cd	50		 push	 eax
  000ce	ff 15 00 00 00
	00		 call	 DWORD PTR __imp__MessageBoxA@16
  000d4	3b f4		 cmp	 esi, esp
  000d6	e8 00 00 00 00	 call	 __RTC_CheckEsp

; 1074 : 		return FALSE;

  000db	33 c0		 xor	 eax, eax
  000dd	e9 34 02 00 00	 jmp	 $LN1@InitGame
$LN5@InitGame:

; 1075 : 	}
; 1076 : 	//  [10/22/2010 %WXY%]
; 1077 : 	//q庋LOGO
; 1078 : //#ifndef _STONDEBUG_
; 1079 : //	PutLogo();
; 1080 : //#endif
; 1081 : 	//--------------------
; 1082 : 
; 1083 : //	GameErrorMessage( "initAutoMapColor()");
; 1084 : #ifndef PROFILE_TEST
; 1085 : 	initAutoMapColor( adrnBinName );

  000e2	68 00 00 00 00	 push	 OFFSET ?adrnBinName@@3PADA ; adrnBinName
  000e7	e8 00 00 00 00	 call	 ?initAutoMapColor@@YAXPAD@Z ; initAutoMapColor
  000ec	83 c4 04	 add	 esp, 4

; 1086 : #else
; 1087 : 	initAutoMapColor( "d:\\sa\\data\\adrn_66.bin" );
; 1088 : #endif
; 1089 : 
; 1090 : //	GameErrorMessage( "InitSprBinFileOpen()");
; 1091 : #ifndef PROFILE_TEST
; 1092 : 	if( InitSprBinFileOpen( sprBinName, sprAdrnBinName ) == FALSE ){

  000ef	68 00 00 00 00	 push	 OFFSET ?sprAdrnBinName@@3PADA ; sprAdrnBinName
  000f4	68 00 00 00 00	 push	 OFFSET ?sprBinName@@3PADA ; sprBinName
  000f9	e8 00 00 00 00	 call	 ?InitSprBinFileOpen@@YAHPAD0@Z ; InitSprBinFileOpen
  000fe	83 c4 08	 add	 esp, 8
  00101	85 c0		 test	 eax, eax
  00103	75 28		 jne	 SHORT $LN6@InitGame

; 1093 : #else
; 1094 : 	if( InitSprBinFileOpen( "d:\\sa\\data\\spr_47.bin","d:\\sa\\data\\spradrn_47.bin" ) == FALSE ){
; 1095 : #endif
; 1096 : 		MessageBox( hWnd, "开启Spr.bin失败！", "??", MB_OK | MB_ICONSTOP );

  00105	8b f4		 mov	 esi, esp
  00107	6a 10		 push	 16			; 00000010H
  00109	68 00 00 00 00	 push	 OFFSET ??_C@_02HHFHKOHM@?$DP?$DP?$AA@
  0010e	68 00 00 00 00	 push	 OFFSET ??_C@_0P@OCIHCKAB@?$DP?$DPSpr?4bin?c?w?$DP?$KD?$KB?$AA@
  00113	a1 00 00 00 00	 mov	 eax, DWORD PTR ?hWnd@@3PAUHWND__@@A ; hWnd
  00118	50		 push	 eax
  00119	ff 15 00 00 00
	00		 call	 DWORD PTR __imp__MessageBoxA@16
  0011f	3b f4		 cmp	 esi, esp
  00121	e8 00 00 00 00	 call	 __RTC_CheckEsp

; 1097 : 		return FALSE;

  00126	33 c0		 xor	 eax, eax
  00128	e9 e9 01 00 00	 jmp	 $LN1@InitGame
$LN6@InitGame:

; 1098 : 	}
; 1099 : 
; 1100 : #ifdef _READ16BITBMP
; 1101 : 	int ref;
; 1102 : #ifndef PROFILE_TEST
; 1103 : 	if((ref = InitRealTruebinFileOpen(realtrueBinName,adrntrueBinName)) < 0){
; 1104 : #else
; 1105 : 	if((ref = InitRealTruebinFileOpen("d:\\sa\\data\\realtrue_7.bin","d:\\sa\\data\\adrntrue_2.bin")) < 0){
; 1106 : #endif
; 1107 : 		if(ref == -1) MessageBox(hWnd,"开启 adrntrue.bin 失败！","??",MB_OK | MB_ICONSTOP);
; 1108 : 		else if(ref == -2) MessageBox(hWnd,"开启 realtrue.bin 失败！","??",MB_OK | MB_ICONSTOP);
; 1109 : 		return FALSE;
; 1110 : 	}
; 1111 : #endif
; 1112 : 
; 1113 : 	//分离补丁加载
; 1114 : 	InitPteernSeparationBin(_分离补丁目录);

  0012d	68 00 00 00 00	 push	 OFFSET ??_C@_09PBPPCBH@?4?1?1sabin1?$AA@
  00132	e8 00 00 00 00	 call	 ?InitPteernSeparationBin@@YAXPBD@Z ; InitPteernSeparationBin
  00137	83 c4 04	 add	 esp, 4

; 1115 : #ifdef 加载新字体
; 1116 : 	int a = AddFontResourceEx(".//data//font//hkyt.ttf", FR_PRIVATE,0);
; 1117 : 	InitFont(2);
; 1118 : #else
; 1119 : 	InitFont(0);

  0013a	6a 00		 push	 0
  0013c	e8 00 00 00 00	 call	 ?InitFont@@YAXH@Z	; InitFont
  00141	83 c4 04	 add	 esp, 4

; 1120 : #endif
; 1121 : 	InitAction();

  00144	e8 00 00 00 00	 call	 ?InitAction@@YAXXZ	; InitAction

; 1122 : 
; 1123 : 	srand( TimeGetTime() );

  00149	e8 00 00 00 00	 call	 ?TimeGetTime@@YAIXZ	; TimeGetTime
  0014e	8b f4		 mov	 esi, esp
  00150	50		 push	 eax
  00151	ff 15 00 00 00
	00		 call	 DWORD PTR __imp__srand
  00157	83 c4 04	 add	 esp, 4
  0015a	3b f4		 cmp	 esi, esp
  0015c	e8 00 00 00 00	 call	 __RTC_CheckEsp

; 1124 : 	initRand2();

  00161	e8 00 00 00 00	 call	 ?initRand2@@YAXXZ	; initRand2

; 1125 : 	t_music_init();

  00166	e8 00 00 00 00	 call	 ?t_music_init@@YAHXZ	; t_music_init

; 1126 : #ifdef _WIN_LUAJIT_
; 1127 : 	//memset(gmsv, 0, sizeof(gameserver)*MAX_GMSV);
; 1128 : 	//memset(gmgroup, 0, sizeof(gamegroup)*MAX_GMGROUP);
; 1129 : 	extern void LoadStoneAgeLUA(char *path);
; 1130 : 	LoadStoneAgeLUA(_LUA_PATCH_);

  0016b	68 00 00 00 00	 push	 OFFSET ??_C@_09KBLMODGM@?4?1?1salua1?$AA@
  00170	e8 00 00 00 00	 call	 ?LoadStoneAgeLUA@@YAXPAD@Z ; LoadStoneAgeLUA
  00175	83 c4 04	 add	 esp, 4

; 1131 : #endif
; 1132 : 	if(!InitIme(hWnd,StrToNowStrBuffer)){

  00178	68 00 00 00 00	 push	 OFFSET ?StrToNowStrBuffer@@YAXPAD@Z ; StrToNowStrBuffer
  0017d	a1 00 00 00 00	 mov	 eax, DWORD PTR ?hWnd@@3PAUHWND__@@A ; hWnd
  00182	50		 push	 eax
  00183	e8 00 00 00 00	 call	 ?InitIme@@YAHPAUHWND__@@P6AXPAD@Z@Z ; InitIme
  00188	83 c4 08	 add	 esp, 8
  0018b	85 c0		 test	 eax, eax
  0018d	75 28		 jne	 SHORT $LN7@InitGame

; 1133 : 		MessageBox( hWnd, "初始化输入法失败！", "??", MB_OK | MB_ICONSTOP );

  0018f	8b f4		 mov	 esi, esp
  00191	6a 10		 push	 16			; 00000010H
  00193	68 00 00 00 00	 push	 OFFSET ??_C@_02HHFHKOHM@?$DP?$DP?$AA@
  00198	68 00 00 00 00	 push	 OFFSET ??_C@_0BB@BMPFHBPA@?t?x?c?$LH?$PL?y?$DP?l?$PN?$NL?v?c?w?$DP?$KD?$KB?$AA@
  0019d	a1 00 00 00 00	 mov	 eax, DWORD PTR ?hWnd@@3PAUHWND__@@A ; hWnd
  001a2	50		 push	 eax
  001a3	ff 15 00 00 00
	00		 call	 DWORD PTR __imp__MessageBoxA@16
  001a9	3b f4		 cmp	 esi, esp
  001ab	e8 00 00 00 00	 call	 __RTC_CheckEsp

; 1134 : 		return FALSE;

  001b0	33 c0		 xor	 eax, eax
  001b2	e9 5f 01 00 00	 jmp	 $LN1@InitGame
$LN7@InitGame:

; 1135 : 	}
; 1136 : 	MouseInit();

  001b7	e8 00 00 00 00	 call	 ?MouseInit@@YAXXZ	; MouseInit

; 1137 : 	if( loadUserSetting() == FALSE ){

  001bc	e8 00 00 00 00	 call	 ?loadUserSetting@@YAHXZ	; loadUserSetting
  001c1	85 c0		 test	 eax, eax
  001c3	75 47		 jne	 SHORT $LN8@InitGame

; 1138 : 		char msg[1024];
; 1139 : 		sprintf( msg, SAVE_ERRMSG_loadNowState, savedataErrorCode );

  001c5	0f b6 05 00 00
	00 00		 movzx	 eax, BYTE PTR ?savedataErrorCode@@3EA ; savedataErrorCode
  001cc	50		 push	 eax
  001cd	68 00 00 00 00	 push	 OFFSET ??_C@_0CO@HNPNNIBJ@?$DP?v?$KC?$DP?p?m?$DP?d?P?c?w?$DP?$KB?$KD?$CIcode?5?$DN?5?$CFd?$CJ?5?$DP?$DP?p?$LGsa@
  001d2	8d 8d 70 fb ff
	ff		 lea	 ecx, DWORD PTR _msg$1[ebp]
  001d8	51		 push	 ecx
  001d9	e8 00 00 00 00	 call	 _sprintf
  001de	83 c4 0c	 add	 esp, 12			; 0000000cH

; 1140 : 		MessageBox( hWnd, msg, "??", MB_OK | MB_ICONSTOP );

  001e1	8b f4		 mov	 esi, esp
  001e3	6a 10		 push	 16			; 00000010H
  001e5	68 00 00 00 00	 push	 OFFSET ??_C@_02HHFHKOHM@?$DP?$DP?$AA@
  001ea	8d 85 70 fb ff
	ff		 lea	 eax, DWORD PTR _msg$1[ebp]
  001f0	50		 push	 eax
  001f1	8b 0d 00 00 00
	00		 mov	 ecx, DWORD PTR ?hWnd@@3PAUHWND__@@A ; hWnd
  001f7	51		 push	 ecx
  001f8	ff 15 00 00 00
	00		 call	 DWORD PTR __imp__MessageBoxA@16
  001fe	3b f4		 cmp	 esi, esp
  00200	e8 00 00 00 00	 call	 __RTC_CheckEsp

; 1141 : 		return FALSE;

  00205	33 c0		 xor	 eax, eax
  00207	e9 0a 01 00 00	 jmp	 $LN1@InitGame
$LN8@InitGame:

; 1142 : 	}
; 1143 : 	LoadChatRegistyStr();

  0020c	e8 00 00 00 00	 call	 ?LoadChatRegistyStr@@YAHXZ ; LoadChatRegistyStr

; 1144 : 	NowTime = TimeGetTime();

  00211	e8 00 00 00 00	 call	 ?TimeGetTime@@YAIXZ	; TimeGetTime
  00216	a3 00 00 00 00	 mov	 DWORD PTR ?NowTime@@3KA, eax ; NowTime

; 1145 : 	DrawFrameTime = TimeGetTime();

  0021b	e8 00 00 00 00	 call	 ?TimeGetTime@@YAIXZ	; TimeGetTime
  00220	a3 00 00 00 00	 mov	 DWORD PTR ?DrawFrameTime@@3KA, eax ; DrawFrameTime

; 1146 : 	if( MouseCursorFlag == FALSE ){

  00225	83 3d 00 00 00
	00 00		 cmp	 DWORD PTR ?MouseCursorFlag@@3HA, 0 ; MouseCursorFlag
  0022c	75 11		 jne	 SHORT $LN9@InitGame

; 1147 : #ifdef _TALK_WINDOW
; 1148 : 		g_iCursorCount = ShowCursor( FALSE );
; 1149 : #else
; 1150 : 		ShowCursor( FALSE );

  0022e	8b f4		 mov	 esi, esp
  00230	6a 00		 push	 0
  00232	ff 15 00 00 00
	00		 call	 DWORD PTR __imp__ShowCursor@4
  00238	3b f4		 cmp	 esi, esp
  0023a	e8 00 00 00 00	 call	 __RTC_CheckEsp
$LN9@InitGame:

; 1151 : #endif
; 1152 : 	}
; 1153 : 
; 1154 : 
; 1155 : 	ProcNo2 = -1;

  0023f	c7 05 00 00 00
	00 ff ff ff ff	 mov	 DWORD PTR ?ProcNo2@@3HA, -1 ; ProcNo2

; 1156 : #ifdef __NEW_CLIENT_MEM
; 1157 : #ifndef __NEW_CLIENT_ONLY_WRITE
; 1158 : 	if( !net_readbuf){

  00249	83 3d 00 00 00
	00 00		 cmp	 DWORD PTR ?net_readbuf@@3PADA, 0 ; net_readbuf
  00250	75 50		 jne	 SHORT $LN10@InitGame

; 1159 : 		if( !(net_readbuf=(char*)VirtualAlloc( NULL, NETBUFSIZ, MEM_COMMIT, PAGE_READWRITE))){

  00252	8b f4		 mov	 esi, esp
  00254	6a 04		 push	 4
  00256	68 00 10 00 00	 push	 4096			; 00001000H
  0025b	68 00 40 00 00	 push	 16384			; 00004000H
  00260	6a 00		 push	 0
  00262	ff 15 00 00 00
	00		 call	 DWORD PTR __imp__VirtualAlloc@16
  00268	3b f4		 cmp	 esi, esp
  0026a	e8 00 00 00 00	 call	 __RTC_CheckEsp
  0026f	a3 00 00 00 00	 mov	 DWORD PTR ?net_readbuf@@3PADA, eax ; net_readbuf
  00274	83 3d 00 00 00
	00 00		 cmp	 DWORD PTR ?net_readbuf@@3PADA, 0 ; net_readbuf
  0027b	75 25		 jne	 SHORT $LN10@InitGame

; 1160 : 			MessageBox( hWnd, "net_readbuf Init 失败!", "??", MB_OK | MB_ICONSTOP );

  0027d	8b f4		 mov	 esi, esp
  0027f	6a 10		 push	 16			; 00000010H
  00281	68 00 00 00 00	 push	 OFFSET ??_C@_02HHFHKOHM@?$DP?$DP?$AA@
  00286	68 00 00 00 00	 push	 OFFSET ??_C@_0BG@MCAODPHE@net_readbuf?5Init?5?c?w?$DP?$CB?$AA@
  0028b	a1 00 00 00 00	 mov	 eax, DWORD PTR ?hWnd@@3PAUHWND__@@A ; hWnd
  00290	50		 push	 eax
  00291	ff 15 00 00 00
	00		 call	 DWORD PTR __imp__MessageBoxA@16
  00297	3b f4		 cmp	 esi, esp
  00299	e8 00 00 00 00	 call	 __RTC_CheckEsp

; 1161 : 			return FALSE;

  0029e	33 c0		 xor	 eax, eax
  002a0	eb 74		 jmp	 SHORT $LN1@InitGame
$LN10@InitGame:

; 1162 : 		}
; 1163 : 	}
; 1164 : #else
; 1165 : 	if( !net_readbuf){
; 1166 : 		if( !(net_readbuf=(char*)VirtualAlloc( NULL, NETBUFSIZ, MEM_COMMIT, PAGE_NOACCESS))){
; 1167 : 			MessageBox( hWnd, "net_readbuf Init 失败!", "??", MB_OK | MB_ICONSTOP );
; 1168 : 			return FALSE;
; 1169 : 		}
; 1170 : 	}
; 1171 : #endif
; 1172 : 	if( !net_writebuf){

  002a2	83 3d 00 00 00
	00 00		 cmp	 DWORD PTR ?net_writebuf@@3PADA, 0 ; net_writebuf
  002a9	75 50		 jne	 SHORT $LN12@InitGame

; 1173 : 		if( !(net_writebuf=(char*)VirtualAlloc( NULL, NETBUFSIZ, MEM_COMMIT, PAGE_NOACCESS))){

  002ab	8b f4		 mov	 esi, esp
  002ad	6a 01		 push	 1
  002af	68 00 10 00 00	 push	 4096			; 00001000H
  002b4	68 00 40 00 00	 push	 16384			; 00004000H
  002b9	6a 00		 push	 0
  002bb	ff 15 00 00 00
	00		 call	 DWORD PTR __imp__VirtualAlloc@16
  002c1	3b f4		 cmp	 esi, esp
  002c3	e8 00 00 00 00	 call	 __RTC_CheckEsp
  002c8	a3 00 00 00 00	 mov	 DWORD PTR ?net_writebuf@@3PADA, eax ; net_writebuf
  002cd	83 3d 00 00 00
	00 00		 cmp	 DWORD PTR ?net_writebuf@@3PADA, 0 ; net_writebuf
  002d4	75 25		 jne	 SHORT $LN12@InitGame

; 1174 : 			MessageBox( hWnd, "net_writebuf Init 失败!", "??", MB_OK | MB_ICONSTOP );

  002d6	8b f4		 mov	 esi, esp
  002d8	6a 10		 push	 16			; 00000010H
  002da	68 00 00 00 00	 push	 OFFSET ??_C@_02HHFHKOHM@?$DP?$DP?$AA@
  002df	68 00 00 00 00	 push	 OFFSET ??_C@_0BH@BBOIGEMF@net_writebuf?5Init?5?c?w?$DP?$CB?$AA@
  002e4	a1 00 00 00 00	 mov	 eax, DWORD PTR ?hWnd@@3PAUHWND__@@A ; hWnd
  002e9	50		 push	 eax
  002ea	ff 15 00 00 00
	00		 call	 DWORD PTR __imp__MessageBoxA@16
  002f0	3b f4		 cmp	 esi, esp
  002f2	e8 00 00 00 00	 call	 __RTC_CheckEsp

; 1175 : 			return FALSE;

  002f7	33 c0		 xor	 eax, eax
  002f9	eb 1b		 jmp	 SHORT $LN1@InitGame
$LN12@InitGame:

; 1176 : 		}
; 1177 : 	}
; 1178 : #else
; 1179 : 	if( !net_readbuf){
; 1180 : 		if( !(net_readbuf=(char*)VirtualAlloc( NULL, NETBUFSIZ, MEM_COMMIT, PAGE_READWRITE))){
; 1181 : 			MessageBox( hWnd, "net_readbuf Init 失败!", "??", MB_OK | MB_ICONSTOP );
; 1182 : 			return FALSE;
; 1183 : 		}
; 1184 : 	}
; 1185 : 	if( !net_writebuf){
; 1186 : 		if( !(net_writebuf=(char*)VirtualAlloc( NULL, NETBUFSIZ, MEM_COMMIT, PAGE_READWRITE))){
; 1187 : 			MessageBox( hWnd, "net_writebuf Init 失败!", "??", MB_OK | MB_ICONSTOP );
; 1188 : 			return FALSE;
; 1189 : 		}
; 1190 : 	}
; 1191 : #endif
; 1192 : #ifdef _CHANNEL_MODIFY
; 1193 : 	CreateDirectory("chat\\",NULL);

  002fb	8b f4		 mov	 esi, esp
  002fd	6a 00		 push	 0
  002ff	68 00 00 00 00	 push	 OFFSET ??_C@_05KPHDFNJG@chat?2?$AA@
  00304	ff 15 00 00 00
	00		 call	 DWORD PTR __imp__CreateDirectoryA@8
  0030a	3b f4		 cmp	 esi, esp
  0030c	e8 00 00 00 00	 call	 __RTC_CheckEsp

; 1194 : #endif
; 1195 : 
; 1196 : 	return TRUE;

  00311	b8 01 00 00 00	 mov	 eax, 1
$LN1@InitGame:

; 1197 : }	

  00316	52		 push	 edx
  00317	8b cd		 mov	 ecx, ebp
  00319	50		 push	 eax
  0031a	8d 15 00 00 00
	00		 lea	 edx, DWORD PTR $LN18@InitGame
  00320	e8 00 00 00 00	 call	 @_RTC_CheckStackVars@8
  00325	58		 pop	 eax
  00326	5a		 pop	 edx
  00327	5f		 pop	 edi
  00328	5e		 pop	 esi
  00329	5b		 pop	 ebx
  0032a	8b 4d fc	 mov	 ecx, DWORD PTR __$ArrayPad$[ebp]
  0032d	33 cd		 xor	 ecx, ebp
  0032f	e8 00 00 00 00	 call	 @__security_check_cookie@4
  00334	81 c4 d4 06 00
	00		 add	 esp, 1748		; 000006d4H
  0033a	3b ec		 cmp	 ebp, esp
  0033c	e8 00 00 00 00	 call	 __RTC_CheckEsp
  00341	8b e5		 mov	 esp, ebp
  00343	5d		 pop	 ebp
  00344	c3		 ret	 0
  00345	0f 1f 00	 npad	 3
$LN18@InitGame:
  00348	02 00 00 00	 DD	 2
  0034c	00 00 00 00	 DD	 $LN17@InitGame
$LN17@InitGame:
  00350	78 ff ff ff	 DD	 -136			; ffffff78H
  00354	80 00 00 00	 DD	 128			; 00000080H
  00358	00 00 00 00	 DD	 $LN15@InitGame
  0035c	70 fb ff ff	 DD	 -1168			; fffffb70H
  00360	00 04 00 00	 DD	 1024			; 00000400H
  00364	00 00 00 00	 DD	 $LN16@InitGame
$LN16@InitGame:
  00368	6d		 DB	 109			; 0000006dH
  00369	73		 DB	 115			; 00000073H
  0036a	67		 DB	 103			; 00000067H
  0036b	00		 DB	 0
$LN15@InitGame:
  0036c	74		 DB	 116			; 00000074H
  0036d	6f		 DB	 111			; 0000006fH
  0036e	6b		 DB	 107			; 0000006bH
  0036f	65		 DB	 101			; 00000065H
  00370	6e		 DB	 110			; 0000006eH
  00371	00		 DB	 0
?InitGame@@YAHXZ ENDP					; InitGame
_TEXT	ENDS
; Function compile flags: /Odtp /RTCsu /ZI
; File c:\users\administrator\desktop\????? ??\????? ??\client source code\system\gamemain.cpp
;	COMDAT ?GameMain@@YAHXZ
_TEXT	SEGMENT
tv287 = -1800						; size = 4
tv150 = -1800						; size = 4
tv129 = -1798						; size = 2
$T2 = -1792						; size = 4
_i$3 = -1204						; size = 4
_newwrite$4 = -1192					; size = 4
_newread$5 = -1180					; size = 4
_oldprotect$6 = -1168					; size = 4
_m$7 = -1156						; size = 1024
_dir2$8 = -124						; size = 2
_t$9 = -112						; size = 4
_satime$10 = -100					; size = 4
_nowttime3$ = -88					; size = 4
_nowttime1$ = -76					; size = 4
_nowtime$ = -64						; size = 4
__$ArrayPad$ = -16					; size = 4
__$EHRec$ = -12						; size = 12
?GameMain@@YAHXZ PROC					; GameMain, COMDAT

; 165  : {

  00000	55		 push	 ebp
  00001	8b ec		 mov	 ebp, esp
  00003	6a ff		 push	 -1
  00005	68 00 00 00 00	 push	 __ehhandler$?GameMain@@YAHXZ
  0000a	64 a1 00 00 00
	00		 mov	 eax, DWORD PTR fs:0
  00010	50		 push	 eax
  00011	81 ec fc 06 00
	00		 sub	 esp, 1788		; 000006fcH
  00017	53		 push	 ebx
  00018	56		 push	 esi
  00019	57		 push	 edi
  0001a	8d bd f8 f8 ff
	ff		 lea	 edi, DWORD PTR [ebp-1800]
  00020	b9 bf 01 00 00	 mov	 ecx, 447		; 000001bfH
  00025	b8 cc cc cc cc	 mov	 eax, -858993460		; ccccccccH
  0002a	f3 ab		 rep stosd
  0002c	a1 00 00 00 00	 mov	 eax, DWORD PTR ___security_cookie
  00031	33 c5		 xor	 eax, ebp
  00033	89 45 f0	 mov	 DWORD PTR __$ArrayPad$[ebp], eax
  00036	50		 push	 eax
  00037	8d 45 f4	 lea	 eax, DWORD PTR __$EHRec$[ebp]
  0003a	64 a3 00 00 00
	00		 mov	 DWORD PTR fs:0, eax

; 166  : 	if (InitGame() == FALSE) {

  00040	e8 00 00 00 00	 call	 ?InitGame@@YAHXZ	; InitGame
  00045	85 c0		 test	 eax, eax
  00047	75 28		 jne	 SHORT $LN13@GameMain

; 167  : 		MessageBox(hWnd, "游戏设定初始化失败！", "??", MB_OK | MB_ICONSTOP);

  00049	8b f4		 mov	 esi, esp
  0004b	6a 10		 push	 16			; 00000010H
  0004d	68 00 00 00 00	 push	 OFFSET ??_C@_02HHFHKOHM@?$DP?$DP?$AA@
  00052	68 00 00 00 00	 push	 OFFSET ??_C@_0BC@BAOBCJF@?j?$PN?$DP?$DP?o?R?t?x?c?$LH?$PL?y?c?w?$DP?$KD?$KB?$AA@
  00057	a1 00 00 00 00	 mov	 eax, DWORD PTR ?hWnd@@3PAUHWND__@@A ; hWnd
  0005c	50		 push	 eax
  0005d	ff 15 00 00 00
	00		 call	 DWORD PTR __imp__MessageBoxA@16
  00063	3b f4		 cmp	 esi, esp
  00065	e8 00 00 00 00	 call	 __RTC_CheckEsp

; 168  : 		return FALSE;

  0006a	33 c0		 xor	 eax, eax
  0006c	e9 ed 0e 00 00	 jmp	 $LN1@GameMain
$LN13@GameMain:

; 169  : 	}
; 170  : 	char sz[32];
; 171  : 	DWORD nowtime;
; 172  : 	DWORD nowttime1 = TimeGetTime();

  00071	e8 00 00 00 00	 call	 ?TimeGetTime@@YAIXZ	; TimeGetTime
  00076	89 45 b4	 mov	 DWORD PTR _nowttime1$[ebp], eax

; 173  : 	DWORD nowttime3 = TimeGetTime();

  00079	e8 00 00 00 00	 call	 ?TimeGetTime@@YAIXZ	; TimeGetTime
  0007e	89 45 a8	 mov	 DWORD PTR _nowttime3$[ebp], eax

; 174  : 	//_itoa_s( nowttime1^0xffffbcde, sz, 10);
; 175  : 
; 176  : #ifdef	_OPTIMIZATIONFLIP_
; 177  : 	BOOL finishLoop = TRUE;
; 178  : 	unsigned int startloopTime = TimeGetTime();
; 179  : 	unsigned int endloopTime;
; 180  : 	unsigned int endProcTime;
; 181  : 
; 182  : 	unsigned int loopAmend = 0;
; 183  : 	unsigned int skipAmend = 0;
; 184  : 	extern BOOL  isXP();
; 185  : 	BOOL isXPSystem = isXP();
; 186  : #endif
; 187  : 
; 188  : 	void CreatFontHdc();
; 189  : 	CreatFontHdc();

  00081	e8 00 00 00 00	 call	 ?CreatFontHdc@@YAXXZ	; CreatFontHdc
$LN108@GameMain:

; 190  : 
; 191  : 	while (1) {

  00086	b8 01 00 00 00	 mov	 eax, 1
  0008b	85 c0		 test	 eax, eax
  0008d	0f 84 c9 0e 00
	00		 je	 $LN3@GameMain

; 192  : 		if (SystemTask() == FALSE) {

  00093	e8 00 00 00 00	 call	 ?SystemTask@@YAHXZ	; SystemTask
  00098	85 c0		 test	 eax, eax
  0009a	75 0c		 jne	 SHORT $LN14@GameMain

; 193  : 			EndGame();

  0009c	e8 00 00 00 00	 call	 ?EndGame@@YAXXZ		; EndGame

; 194  : 			return FALSE;

  000a1	33 c0		 xor	 eax, eax
  000a3	e9 b6 0e 00 00	 jmp	 $LN1@GameMain
$LN14@GameMain:

; 195  : 		}
; 196  : 
; 197  : #ifdef	_OPTIMIZATIONFLIP_
; 198  : 		if (finishLoop)
; 199  : 		{
; 200  : 			startloopTime = TimeGetTime();
; 201  : 			endloopTime = startloopTime + SystemTime;
; 202  : 			endProcTime = startloopTime + ProcTime;
; 203  : 			finishLoop = FALSE;
; 204  : 		}
; 205  : #endif
; 206  : 		RealTimeToSATime(&SaTime);

  000a8	68 00 00 00 00	 push	 OFFSET ?SaTime@@3UtagLSTIME@@A ; SaTime
  000ad	e8 00 00 00 00	 call	 ?RealTimeToSATime@@YAXPAUtagLSTIME@@@Z ; RealTimeToSATime
  000b2	83 c4 04	 add	 esp, 4

; 207  : 		float satime = SaTime.hour * 24 / 1200;

  000b5	6b 05 08 00 00
	00 18		 imul	 eax, DWORD PTR ?SaTime@@3UtagLSTIME@@A+8, 24
  000bc	99		 cdq
  000bd	b9 b0 04 00 00	 mov	 ecx, 1200		; 000004b0H
  000c2	f7 f9		 idiv	 ecx
  000c4	f3 0f 2a c0	 cvtsi2ss xmm0, eax
  000c8	f3 0f 11 45 9c	 movss	 DWORD PTR _satime$10[ebp], xmm0

; 208  : 
; 209  : 		void LSTimeToRealTime(LSTIME *lstime, long *t);
; 210  : 		long t;
; 211  : 		LSTimeToRealTime(&SaTime,&t);

  000cd	8d 45 90	 lea	 eax, DWORD PTR _t$9[ebp]
  000d0	50		 push	 eax
  000d1	68 00 00 00 00	 push	 OFFSET ?SaTime@@3UtagLSTIME@@A ; SaTime
  000d6	e8 00 00 00 00	 call	 ?LSTimeToRealTime@@YAXPAUtagLSTIME@@PAJ@Z ; LSTimeToRealTime
  000db	83 c4 08	 add	 esp, 8

; 212  : 
; 213  : 		DispBuffer.DispCnt = 0;

  000de	33 c0		 xor	 eax, eax
  000e0	66 a3 00 c0 01
	00		 mov	 WORD PTR ?DispBuffer@@3UDISP_BUFFER@@A+114688, ax

; 214  : 		FontCnt = 0;

  000e6	c7 05 00 00 00
	00 00 00 00 00	 mov	 DWORD PTR ?FontCnt@@3HA, 0 ; FontCnt

; 215  : 
; 216  : 		if (!offlineFlag)

  000f0	83 3d 00 00 00
	00 00		 cmp	 DWORD PTR ?offlineFlag@@3HA, 0 ; offlineFlag
  000f7	75 05		 jne	 SHORT $LN15@GameMain

; 217  : 			networkLoop();

  000f9	e8 00 00 00 00	 call	 ?networkLoop@@YAXXZ	; networkLoop
$LN15@GameMain:

; 218  : 
; 219  : 		cdda_play(cdda_no);

  000fe	a1 00 00 00 00	 mov	 eax, DWORD PTR ?cdda_no@@3HA ; cdda_no
  00103	50		 push	 eax
  00104	e8 00 00 00 00	 call	 ?cdda_play@@YA_NH@Z	; cdda_play
  00109	83 c4 04	 add	 esp, 4

; 220  : 		joy_read();

  0010c	e8 00 00 00 00	 call	 ?joy_read@@YAXXZ	; joy_read

; 221  : #if 1
; 222  : 		if (joy_trg[1] & JOY_F12) {

  00111	b8 04 00 00 00	 mov	 eax, 4
  00116	c1 e0 00	 shl	 eax, 0
  00119	8b 88 00 00 00
	00		 mov	 ecx, DWORD PTR ?joy_trg@@3PAKA[eax]
  0011f	81 e1 00 08 00
	00		 and	 ecx, 2048		; 00000800H
  00125	74 24		 je	 SHORT $LN17@GameMain

; 223  : 			static unsigned int prePushTime = 0;
; 224  : 			if (prePushTime + 500 <= TimeGetTime()) {

  00127	8b 35 00 00 00
	00		 mov	 esi, DWORD PTR ?prePushTime@?P@??GameMain@@YAHXZ@4IA
  0012d	81 c6 f4 01 00
	00		 add	 esi, 500		; 000001f4H
  00133	e8 00 00 00 00	 call	 ?TimeGetTime@@YAIXZ	; TimeGetTime
  00138	3b f0		 cmp	 esi, eax
  0013a	77 0f		 ja	 SHORT $LN17@GameMain

; 225  : 				snapShot();

  0013c	e8 00 00 00 00	 call	 ?snapShot@@YAXXZ	; snapShot

; 226  : 				prePushTime = TimeGetTime();

  00141	e8 00 00 00 00	 call	 ?TimeGetTime@@YAIXZ	; TimeGetTime
  00146	a3 00 00 00 00	 mov	 DWORD PTR ?prePushTime@?P@??GameMain@@YAHXZ@4IA, eax
$LN17@GameMain:

; 227  : 			}
; 228  : 		}
; 229  : #endif
; 230  : 		if (joy_trg[1] & JOY_F11)

  0014b	b8 04 00 00 00	 mov	 eax, 4
  00150	c1 e0 00	 shl	 eax, 0
  00153	8b 88 00 00 00
	00		 mov	 ecx, DWORD PTR ?joy_trg@@3PAKA[eax]
  00159	81 e1 00 04 00
	00		 and	 ecx, 1024		; 00000400H
  0015f	74 2f		 je	 SHORT $LN18@GameMain

; 231  : 			nameOverTheHeadFlag = !nameOverTheHeadFlag;

  00161	0f bf 05 00 00
	00 00		 movsx	 eax, WORD PTR ?nameOverTheHeadFlag@@3FA ; nameOverTheHeadFlag
  00168	85 c0		 test	 eax, eax
  0016a	75 0e		 jne	 SHORT $LN96@GameMain
  0016c	b9 01 00 00 00	 mov	 ecx, 1
  00171	66 89 8d fa f8
	ff ff		 mov	 WORD PTR tv129[ebp], cx
  00178	eb 09		 jmp	 SHORT $LN97@GameMain
$LN96@GameMain:
  0017a	33 d2		 xor	 edx, edx
  0017c	66 89 95 fa f8
	ff ff		 mov	 WORD PTR tv129[ebp], dx
$LN97@GameMain:
  00183	66 8b 85 fa f8
	ff ff		 mov	 ax, WORD PTR tv129[ebp]
  0018a	66 a3 00 00 00
	00		 mov	 WORD PTR ?nameOverTheHeadFlag@@3FA, ax ; nameOverTheHeadFlag
$LN18@GameMain:

; 232  : 
; 233  : 		Process();

  00190	e8 00 00 00 00	 call	 ?Process@@YAXXZ		; Process

; 234  : 
; 235  : 		void 屏幕文字点击();
; 236  : 		屏幕文字点击();

  00195	e8 00 00 00 00	 call	 ?屏幕文字点击@@YAXXZ	; 屏幕文字点击

; 237  : 
; 238  : 
; 239  : 		MouseProc();

  0019a	e8 00 00 00 00	 call	 ?MouseProc@@YAXXZ	; MouseProc

; 240  : 
; 241  : 
; 242  : #ifdef _SURFACE_ANIM
; 243  : 		AniProc();

  0019f	e8 00 00 00 00	 call	 ?AniProc@@YAXXZ		; AniProc

; 244  : #endif
; 245  : #ifdef _NB_公告系统
; 246  : 		if (ProcNo == PROC_GAME) {

  001a4	83 3d 00 00 00
	00 09		 cmp	 DWORD PTR ?ProcNo@@3IA, 9 ; ProcNo
  001ab	75 10		 jne	 SHORT $LN20@GameMain

; 247  : 			if (!actBtn) {

  001ad	0f bf 05 00 00
	00 00		 movsx	 eax, WORD PTR ?actBtn@@3FA ; actBtn
  001b4	85 c0		 test	 eax, eax
  001b6	75 05		 jne	 SHORT $LN20@GameMain

; 248  : 				announce();

  001b8	e8 00 00 00 00	 call	 ?announce@@YAXXZ	; announce
$LN20@GameMain:

; 249  : 			}
; 250  : 		}
; 251  : #endif
; 252  : 		SortDispBuffer();

  001bd	e8 00 00 00 00	 call	 ?SortDispBuffer@@YAXXZ	; SortDispBuffer

; 253  : 		HitMouseCursor();

  001c2	e8 00 00 00 00	 call	 ?HitMouseCursor@@YAXXZ	; HitMouseCursor

; 254  : 		PaletteProc();

  001c7	e8 00 00 00 00	 call	 ?PaletteProc@@YAXXZ	; PaletteProc

; 255  : #ifdef _NB_断线自动重连
; 256  : 		static int 重新登陆原地开始时间 = 0;
; 257  : 		static int 重新登陆AI开始时间 = 0;
; 258  : 		static int 重新登陆方向开始时间 = 0;
; 259  : 		static int 重新登陆组队开始时间 = 0;
; 260  : 		static int 重新登陆喊话开始时间 = 0;
; 261  : 		extern int 是否重登战斗了;
; 262  : 		extern int 是否重登人物方向;
; 263  : 		extern int 是否重登AI模式;
; 264  : 		extern int 是否重登组队;
; 265  : 		extern int 是否重登喊话;
; 266  : 		static int 开组队开始时间 = 0;
; 267  : 
; 268  : 		if (ProcNo == PROC_GAME){

  001cc	83 3d 00 00 00
	00 09		 cmp	 DWORD PTR ?ProcNo@@3IA, 9 ; ProcNo
  001d3	0f 85 89 03 00
	00		 jne	 $LN41@GameMain

; 269  : 			if (PcLanded.队模 == 0){

  001d9	83 3d 04 00 00
	00 00		 cmp	 DWORD PTR ?PcLanded@@3ULanded@@A+4, 0
  001e0	75 50		 jne	 SHORT $LN22@GameMain

; 270  : 				if (是否重登AI模式){

  001e2	83 3d 00 00 00
	00 00		 cmp	 DWORD PTR ?是否重登AI模式@@3HA, 0 ; 是否重登AI模式
  001e9	74 1d		 je	 SHORT $LN25@GameMain

; 271  : 					if (是否重开登组队_1){

  001eb	83 3d 00 00 00
	00 00		 cmp	 DWORD PTR ?是否重开登组队_1@@3HA, 0 ; 是否重开登组队_1
  001f2	74 14		 je	 SHORT $LN25@GameMain

; 272  : 						是否重开登组队_1 = FALSE;

  001f4	c7 05 00 00 00
	00 00 00 00 00	 mov	 DWORD PTR ?是否重开登组队_1@@3HA, 0 ; 是否重开登组队_1

; 273  : 						开组队开始时间 = TimeGetTime();

  001fe	e8 00 00 00 00	 call	 ?TimeGetTime@@YAIXZ	; TimeGetTime
  00203	a3 00 00 00 00	 mov	 DWORD PTR ?开组队开始时间@?6??GameMain@@YAHXZ@4HA, eax
$LN25@GameMain:

; 274  : 					}
; 275  : 				}
; 276  : 				if (partyModeFlag){//多一人的时候则登陆

  00208	0f bf 05 00 00
	00 00		 movsx	 eax, WORD PTR ?partyModeFlag@@3FA ; partyModeFlag
  0020f	85 c0		 test	 eax, eax
  00211	74 1d		 je	 SHORT $LN27@GameMain

; 277  : 					if (是否重登战斗了){

  00213	83 3d 00 00 00
	00 00		 cmp	 DWORD PTR ?是否重登战斗了@@3HA, 0 ; 是否重登战斗了
  0021a	74 14		 je	 SHORT $LN27@GameMain

; 278  : 						是否重登战斗了 = FALSE;

  0021c	c7 05 00 00 00
	00 00 00 00 00	 mov	 DWORD PTR ?是否重登战斗了@@3HA, 0 ; 是否重登战斗了

; 279  : 						重新登陆原地开始时间 = TimeGetTime();

  00226	e8 00 00 00 00	 call	 ?TimeGetTime@@YAIXZ	; TimeGetTime
  0022b	a3 00 00 00 00	 mov	 DWORD PTR ?重新登陆原地开始时间@?6??GameMain@@YAHXZ@4HA, eax
$LN27@GameMain:

; 280  : 					}
; 281  : 				}
; 282  : 			}
; 283  : 			else{

  00230	eb 1d		 jmp	 SHORT $LN28@GameMain
$LN22@GameMain:

; 284  : 				if (是否重登战斗了){

  00232	83 3d 00 00 00
	00 00		 cmp	 DWORD PTR ?是否重登战斗了@@3HA, 0 ; 是否重登战斗了
  00239	74 14		 je	 SHORT $LN28@GameMain

; 285  : 					是否重登战斗了 = FALSE;

  0023b	c7 05 00 00 00
	00 00 00 00 00	 mov	 DWORD PTR ?是否重登战斗了@@3HA, 0 ; 是否重登战斗了

; 286  : 					重新登陆原地开始时间 = TimeGetTime();

  00245	e8 00 00 00 00	 call	 ?TimeGetTime@@YAIXZ	; TimeGetTime
  0024a	a3 00 00 00 00	 mov	 DWORD PTR ?重新登陆原地开始时间@?6??GameMain@@YAHXZ@4HA, eax
$LN28@GameMain:

; 287  : 				}
; 288  : 			}
; 289  : 			if (开组队开始时间){

  0024f	83 3d 00 00 00
	00 00		 cmp	 DWORD PTR ?开组队开始时间@?6??GameMain@@YAHXZ@4HA, 0
  00256	74 68		 je	 SHORT $LN31@GameMain

; 290  : 				if (TimeGetTime() > 开组队开始时间 + 500){

  00258	e8 00 00 00 00	 call	 ?TimeGetTime@@YAIXZ	; TimeGetTime
  0025d	8b 0d 00 00 00
	00		 mov	 ecx, DWORD PTR ?开组队开始时间@?6??GameMain@@YAHXZ@4HA
  00263	81 c1 f4 01 00
	00		 add	 ecx, 500		; 000001f4H
  00269	3b c1		 cmp	 eax, ecx
  0026b	76 53		 jbe	 SHORT $LN31@GameMain

; 291  : 					extern unsigned int sockfd;
; 292  : 					if(!pc.etcFlag &PC_ETCFLAG_PARTY){

  0026d	0f b7 05 a8 00
	00 00		 movzx	 eax, WORD PTR ?pc@@3UPC@@A+168
  00274	85 c0		 test	 eax, eax
  00276	75 0c		 jne	 SHORT $LN98@GameMain
  00278	c7 85 f8 f8 ff
	ff 01 00 00 00	 mov	 DWORD PTR tv150[ebp], 1
  00282	eb 0a		 jmp	 SHORT $LN99@GameMain
$LN98@GameMain:
  00284	c7 85 f8 f8 ff
	ff 00 00 00 00	 mov	 DWORD PTR tv150[ebp], 0
$LN99@GameMain:
  0028e	8b 8d f8 f8 ff
	ff		 mov	 ecx, DWORD PTR tv150[ebp]
  00294	83 e1 01	 and	 ecx, 1
  00297	74 27		 je	 SHORT $LN31@GameMain

; 293  : 						pc.etcFlag |= PC_ETCFLAG_PARTY;

  00299	0f b7 05 a8 00
	00 00		 movzx	 eax, WORD PTR ?pc@@3UPC@@A+168
  002a0	83 c8 01	 or	 eax, 1
  002a3	66 a3 a8 00 00
	00		 mov	 WORD PTR ?pc@@3UPC@@A+168, ax

; 294  : 						lssproto_FS_send(sockfd, pc.etcFlag);

  002a9	0f b7 05 a8 00
	00 00		 movzx	 eax, WORD PTR ?pc@@3UPC@@A+168
  002b0	50		 push	 eax
  002b1	8b 0d 00 00 00
	00		 mov	 ecx, DWORD PTR ?sockfd@@3IA ; sockfd
  002b7	51		 push	 ecx
  002b8	e8 00 00 00 00	 call	 ?lssproto_FS_send@@YAXHH@Z ; lssproto_FS_send
  002bd	83 c4 08	 add	 esp, 8
$LN31@GameMain:

; 295  : 					}
; 296  : 				}
; 297  : 			}
; 298  : 			if (重新登陆原地开始时间){

  002c0	83 3d 00 00 00
	00 00		 cmp	 DWORD PTR ?重新登陆原地开始时间@?6??GameMain@@YAHXZ@4HA, 0
  002c7	74 33		 je	 SHORT $LN33@GameMain

; 299  : 				if (TimeGetTime() > 重新登陆原地开始时间 + 2000){

  002c9	e8 00 00 00 00	 call	 ?TimeGetTime@@YAIXZ	; TimeGetTime
  002ce	8b 0d 00 00 00
	00		 mov	 ecx, DWORD PTR ?重新登陆原地开始时间@?6??GameMain@@YAHXZ@4HA
  002d4	81 c1 d0 07 00
	00		 add	 ecx, 2000		; 000007d0H
  002da	3b c1		 cmp	 eax, ecx
  002dc	76 1e		 jbe	 SHORT $LN33@GameMain

; 300  : 					重新登陆原地开始时间 = 0;

  002de	c7 05 00 00 00
	00 00 00 00 00	 mov	 DWORD PTR ?重新登陆原地开始时间@?6??GameMain@@YAHXZ@4HA, 0

; 301  : 					extern unsigned int sockfd;
; 302  : 					lssproto_SaMenu_send(sockfd, 1,4,1);

  002e8	6a 01		 push	 1
  002ea	6a 04		 push	 4
  002ec	6a 01		 push	 1
  002ee	a1 00 00 00 00	 mov	 eax, DWORD PTR ?sockfd@@3IA ; sockfd
  002f3	50		 push	 eax
  002f4	e8 00 00 00 00	 call	 ?lssproto_SaMenu_send@@YAXHHHH@Z ; lssproto_SaMenu_send
  002f9	83 c4 10	 add	 esp, 16			; 00000010H
$LN33@GameMain:

; 303  : 				}
; 304  : 			}
; 305  : 			if (是否重登AI模式){

  002fc	83 3d 00 00 00
	00 00		 cmp	 DWORD PTR ?是否重登AI模式@@3HA, 0 ; 是否重登AI模式
  00303	74 14		 je	 SHORT $LN34@GameMain

; 306  : 				重新登陆AI开始时间 = TimeGetTime();

  00305	e8 00 00 00 00	 call	 ?TimeGetTime@@YAIXZ	; TimeGetTime
  0030a	a3 00 00 00 00	 mov	 DWORD PTR ?重新登陆AI开始时间@?6??GameMain@@YAHXZ@4HA, eax

; 307  : 				是否重登AI模式 = FALSE;

  0030f	c7 05 00 00 00
	00 00 00 00 00	 mov	 DWORD PTR ?是否重登AI模式@@3HA, 0 ; 是否重登AI模式
$LN34@GameMain:

; 308  : 			}
; 309  : 			if (重新登陆AI开始时间){

  00319	83 3d 00 00 00
	00 00		 cmp	 DWORD PTR ?重新登陆AI开始时间@?6??GameMain@@YAHXZ@4HA, 0
  00320	74 63		 je	 SHORT $LN36@GameMain

; 310  : 				if (TimeGetTime() > 重新登陆AI开始时间 + 500){

  00322	e8 00 00 00 00	 call	 ?TimeGetTime@@YAIXZ	; TimeGetTime
  00327	8b 0d 00 00 00
	00		 mov	 ecx, DWORD PTR ?重新登陆AI开始时间@?6??GameMain@@YAHXZ@4HA
  0032d	81 c1 f4 01 00
	00		 add	 ecx, 500		; 000001f4H
  00333	3b c1		 cmp	 eax, ecx
  00335	76 4e		 jbe	 SHORT $LN36@GameMain

; 311  : 					重新登陆AI开始时间 = 0;

  00337	c7 05 00 00 00
	00 00 00 00 00	 mov	 DWORD PTR ?重新登陆AI开始时间@?6??GameMain@@YAHXZ@4HA, 0

; 312  : 					AI = AI_SELECT;

  00341	c7 05 00 00 00
	00 03 00 00 00	 mov	 DWORD PTR ?AI@@3HA, 3	; AI

; 313  : 					StockChatBufferLine("开启ＡＩ模式！", FONT_PAL_RED);

  0034b	6a 00		 push	 0
  0034d	6a 06		 push	 6
  0034f	68 00 00 00 00	 push	 OFFSET ??_C@_0N@CNEFEEOF@?$DP?$DP?$KD?A?$KD?I?Y?$LM?c?R?$KD?$KB?$AA@
  00354	e8 00 00 00 00	 call	 ?StockChatBufferLine@@YAXPADEH@Z ; StockChatBufferLine
  00359	83 c4 0c	 add	 esp, 12			; 0000000cH

; 314  : 					pc.etcFlag |= PC_AI_MOD;

  0035c	0f b7 05 a8 00
	00 00		 movzx	 eax, WORD PTR ?pc@@3UPC@@A+168
  00363	0d 00 40 00 00	 or	 eax, 16384		; 00004000H
  00368	66 a3 a8 00 00
	00		 mov	 WORD PTR ?pc@@3UPC@@A+168, ax

; 315  : 					lssproto_FS_send(sockfd, pc.etcFlag);

  0036e	0f b7 05 a8 00
	00 00		 movzx	 eax, WORD PTR ?pc@@3UPC@@A+168
  00375	50		 push	 eax
  00376	8b 0d 00 00 00
	00		 mov	 ecx, DWORD PTR ?sockfd@@3IA ; sockfd
  0037c	51		 push	 ecx
  0037d	e8 00 00 00 00	 call	 ?lssproto_FS_send@@YAXHH@Z ; lssproto_FS_send
  00382	83 c4 08	 add	 esp, 8
$LN36@GameMain:

; 316  : 				}
; 317  : 			}
; 318  : 			if (是否重登人物方向){

  00385	83 3d 00 00 00
	00 00		 cmp	 DWORD PTR ?是否重登人物方向@@3HA, 0 ; 是否重登人物方向
  0038c	74 14		 je	 SHORT $LN37@GameMain

; 319  : 				是否重登人物方向 = FALSE;

  0038e	c7 05 00 00 00
	00 00 00 00 00	 mov	 DWORD PTR ?是否重登人物方向@@3HA, 0 ; 是否重登人物方向

; 320  : 				重新登陆方向开始时间 = TimeGetTime();

  00398	e8 00 00 00 00	 call	 ?TimeGetTime@@YAIXZ	; TimeGetTime
  0039d	a3 00 00 00 00	 mov	 DWORD PTR ?重新登陆方向开始时间@?6??GameMain@@YAHXZ@4HA, eax
$LN37@GameMain:

; 321  : 			}
; 322  : 			if (重新登陆方向开始时间){

  003a2	83 3d 00 00 00
	00 00		 cmp	 DWORD PTR ?重新登陆方向开始时间@?6??GameMain@@YAHXZ@4HA, 0
  003a9	0f 84 88 00 00
	00		 je	 $LN39@GameMain

; 323  : 				if (TimeGetTime() > 重新登陆方向开始时间 + 500){

  003af	e8 00 00 00 00	 call	 ?TimeGetTime@@YAIXZ	; TimeGetTime
  003b4	8b 0d 00 00 00
	00		 mov	 ecx, DWORD PTR ?重新登陆方向开始时间@?6??GameMain@@YAHXZ@4HA
  003ba	81 c1 f4 01 00
	00		 add	 ecx, 500		; 000001f4H
  003c0	3b c1		 cmp	 eax, ecx
  003c2	76 73		 jbe	 SHORT $LN39@GameMain

; 324  : 					重新登陆方向开始时间 = 0;

  003c4	c7 05 00 00 00
	00 00 00 00 00	 mov	 DWORD PTR ?重新登陆方向开始时间@?6??GameMain@@YAHXZ@4HA, 0

; 325  : 					char dir2[2];
; 326  : 					setPcDir(PcLanded.人物方向);

  003ce	a1 18 00 00 00	 mov	 eax, DWORD PTR ?PcLanded@@3ULanded@@A+24
  003d3	50		 push	 eax
  003d4	e8 00 00 00 00	 call	 ?setPcDir@@YAXH@Z	; setPcDir
  003d9	83 c4 04	 add	 esp, 4

; 327  : 					dir2[0] = cnvServDir(PcLanded.人物方向, 1);

  003dc	6a 01		 push	 1
  003de	a1 18 00 00 00	 mov	 eax, DWORD PTR ?PcLanded@@3ULanded@@A+24
  003e3	50		 push	 eax
  003e4	e8 00 00 00 00	 call	 ?cnvServDir@@YADHH@Z	; cnvServDir
  003e9	83 c4 08	 add	 esp, 8
  003ec	b9 01 00 00 00	 mov	 ecx, 1
  003f1	6b d1 00	 imul	 edx, ecx, 0
  003f4	88 44 15 84	 mov	 BYTE PTR _dir2$8[ebp+edx], al

; 328  : 					dir2[1] = '\0';

  003f8	c7 85 00 f9 ff
	ff 01 00 00 00	 mov	 DWORD PTR $T2[ebp], 1
  00402	83 bd 00 f9 ff
	ff 02		 cmp	 DWORD PTR $T2[ebp], 2
  00409	73 02		 jae	 SHORT $LN100@GameMain
  0040b	eb 05		 jmp	 SHORT $LN101@GameMain
$LN100@GameMain:
  0040d	e8 00 00 00 00	 call	 ___report_rangecheckfailure
$LN101@GameMain:
  00412	8b 85 00 f9 ff
	ff		 mov	 eax, DWORD PTR $T2[ebp]
  00418	c6 44 05 84 00	 mov	 BYTE PTR _dir2$8[ebp+eax], 0

; 329  : 					walkSendForServer(nowGx, nowGy, dir2);

  0041d	8d 45 84	 lea	 eax, DWORD PTR _dir2$8[ebp]
  00420	50		 push	 eax
  00421	8b 0d 00 00 00
	00		 mov	 ecx, DWORD PTR ?nowGy@@3HA ; nowGy
  00427	51		 push	 ecx
  00428	8b 15 00 00 00
	00		 mov	 edx, DWORD PTR ?nowGx@@3HA ; nowGx
  0042e	52		 push	 edx
  0042f	e8 00 00 00 00	 call	 ?walkSendForServer@@YAXHHPAD@Z ; walkSendForServer
  00434	83 c4 0c	 add	 esp, 12			; 0000000cH
$LN39@GameMain:

; 330  : 				}
; 331  : 			}
; 332  : 			extern int 自动登陆是否开启;
; 333  : 			if (是否重登组队&&!是否重登人物方向&&!重新登陆方向开始时间&&!partyModeFlag){

  00437	83 3d 00 00 00
	00 00		 cmp	 DWORD PTR ?是否重登组队@@3HA, 0 ; 是否重登组队
  0043e	0f 84 0a 01 00
	00		 je	 $LN40@GameMain
  00444	83 3d 00 00 00
	00 00		 cmp	 DWORD PTR ?是否重登人物方向@@3HA, 0 ; 是否重登人物方向
  0044b	0f 85 fd 00 00
	00		 jne	 $LN40@GameMain
  00451	83 3d 00 00 00
	00 00		 cmp	 DWORD PTR ?重新登陆方向开始时间@?6??GameMain@@YAHXZ@4HA, 0
  00458	0f 85 f0 00 00
	00		 jne	 $LN40@GameMain
  0045e	0f bf 05 00 00
	00 00		 movsx	 eax, WORD PTR ?partyModeFlag@@3FA ; partyModeFlag
  00465	85 c0		 test	 eax, eax
  00467	0f 85 e1 00 00
	00		 jne	 $LN40@GameMain

; 334  : 				if (!重新登陆组队开始时间){

  0046d	83 3d 00 00 00
	00 00		 cmp	 DWORD PTR ?重新登陆组队开始时间@?6??GameMain@@YAHXZ@4HA, 0
  00474	75 0c		 jne	 SHORT $LN42@GameMain

; 335  : 					重新登陆组队开始时间 = TimeGetTime();

  00476	e8 00 00 00 00	 call	 ?TimeGetTime@@YAIXZ	; TimeGetTime
  0047b	a3 00 00 00 00	 mov	 DWORD PTR ?重新登陆组队开始时间@?6??GameMain@@YAHXZ@4HA, eax

; 336  : 				}
; 337  : 				else{

  00480	eb 3d		 jmp	 SHORT $LN44@GameMain
$LN42@GameMain:

; 338  : 					if (TimeGetTime() > 重新登陆组队开始时间 + FIELD_BTN_PUSH_WAIT){

  00482	e8 00 00 00 00	 call	 ?TimeGetTime@@YAIXZ	; TimeGetTime
  00487	8b 0d 00 00 00
	00		 mov	 ecx, DWORD PTR ?重新登陆组队开始时间@?6??GameMain@@YAHXZ@4HA
  0048d	81 c1 f4 01 00
	00		 add	 ecx, 500		; 000001f4H
  00493	3b c1		 cmp	 eax, ecx
  00495	76 28		 jbe	 SHORT $LN44@GameMain

; 339  : 						重新登陆组队开始时间 = 0;

  00497	c7 05 00 00 00
	00 00 00 00 00	 mov	 DWORD PTR ?重新登陆组队开始时间@?6??GameMain@@YAHXZ@4HA, 0

; 340  : 						lssproto_PR_send(sockfd, nowGx, nowGy, 1);

  004a1	6a 01		 push	 1
  004a3	a1 00 00 00 00	 mov	 eax, DWORD PTR ?nowGy@@3HA ; nowGy
  004a8	50		 push	 eax
  004a9	8b 0d 00 00 00
	00		 mov	 ecx, DWORD PTR ?nowGx@@3HA ; nowGx
  004af	51		 push	 ecx
  004b0	8b 15 00 00 00
	00		 mov	 edx, DWORD PTR ?sockfd@@3IA ; sockfd
  004b6	52		 push	 edx
  004b7	e8 00 00 00 00	 call	 ?lssproto_PR_send@@YAXHHHH@Z ; lssproto_PR_send
  004bc	83 c4 10	 add	 esp, 16			; 00000010H
$LN44@GameMain:

; 341  : 					}
; 342  : 				}
; 343  : 				if (是否重登喊话){

  004bf	83 3d 00 00 00
	00 00		 cmp	 DWORD PTR ?是否重登喊话@@3HA, 0 ; 是否重登喊话
  004c6	0f 84 80 00 00
	00		 je	 $LN48@GameMain

; 344  : 					if (!重新登陆喊话开始时间){

  004cc	83 3d 00 00 00
	00 00		 cmp	 DWORD PTR ?重新登陆喊话开始时间@?6??GameMain@@YAHXZ@4HA, 0
  004d3	75 0c		 jne	 SHORT $LN46@GameMain

; 345  : 						重新登陆喊话开始时间 = TimeGetTime();

  004d5	e8 00 00 00 00	 call	 ?TimeGetTime@@YAIXZ	; TimeGetTime
  004da	a3 00 00 00 00	 mov	 DWORD PTR ?重新登陆喊话开始时间@?6??GameMain@@YAHXZ@4HA, eax

; 346  : 					}
; 347  : 					else{

  004df	eb 6b		 jmp	 SHORT $LN48@GameMain
$LN46@GameMain:

; 348  : 						if (TimeGetTime() > 重新登陆喊话开始时间 + 1000 * 60){

  004e1	e8 00 00 00 00	 call	 ?TimeGetTime@@YAIXZ	; TimeGetTime
  004e6	8b 0d 00 00 00
	00		 mov	 ecx, DWORD PTR ?重新登陆喊话开始时间@?6??GameMain@@YAHXZ@4HA
  004ec	81 c1 60 ea 00
	00		 add	 ecx, 60000		; 0000ea60H
  004f2	3b c1		 cmp	 eax, ecx
  004f4	76 56		 jbe	 SHORT $LN48@GameMain

; 349  : 							重新登陆喊话开始时间 = 0;

  004f6	c7 05 00 00 00
	00 00 00 00 00	 mov	 DWORD PTR ?重新登陆喊话开始时间@?6??GameMain@@YAHXZ@4HA, 0

; 350  : 							char m[1024];
; 351  : 							sprintf_s(m, "P|哪位好心人能带我练级哟。刚掉线重新登陆，求好心人站我面前带我练级！位置(%d,%d)", nowGx, nowGy);

  00500	a1 00 00 00 00	 mov	 eax, DWORD PTR ?nowGy@@3HA ; nowGy
  00505	50		 push	 eax
  00506	8b 0d 00 00 00
	00		 mov	 ecx, DWORD PTR ?nowGx@@3HA ; nowGx
  0050c	51		 push	 ecx
  0050d	68 00 00 00 00	 push	 OFFSET ??_C@_0EF@OJCAAKED@P?$HM?$DP?j?H?$PL?$LP?c?$PN?l?Q?R?v?$DP?d?$LC?$DP?$DP?$DP?$KB?$KD?$DP?S?$PM?$DP?q?l?c?f?T?t?$DP@
  00512	8d 95 7c fb ff
	ff		 lea	 edx, DWORD PTR _m$7[ebp]
  00518	52		 push	 edx
  00519	e8 00 00 00 00	 call	 ??$sprintf_s@$0EAA@@@YAHAAY0EAA@DPBDZZ ; sprintf_s<1024>
  0051e	83 c4 10	 add	 esp, 16			; 00000010H

; 352  : 							lssproto_TK_send(sockfd, nowGx, nowGy, m, 0, NowMaxVoice);

  00521	a1 00 00 00 00	 mov	 eax, DWORD PTR ?NowMaxVoice@@3HA ; NowMaxVoice
  00526	50		 push	 eax
  00527	6a 00		 push	 0
  00529	8d 8d 7c fb ff
	ff		 lea	 ecx, DWORD PTR _m$7[ebp]
  0052f	51		 push	 ecx
  00530	8b 15 00 00 00
	00		 mov	 edx, DWORD PTR ?nowGy@@3HA ; nowGy
  00536	52		 push	 edx
  00537	a1 00 00 00 00	 mov	 eax, DWORD PTR ?nowGx@@3HA ; nowGx
  0053c	50		 push	 eax
  0053d	8b 0d 00 00 00
	00		 mov	 ecx, DWORD PTR ?sockfd@@3IA ; sockfd
  00543	51		 push	 ecx
  00544	e8 00 00 00 00	 call	 ?lssproto_TK_send@@YAXHHHPADHH@Z ; lssproto_TK_send
  00549	83 c4 18	 add	 esp, 24			; 00000018H
$LN48@GameMain:

; 353  : 						}
; 354  : 					}
; 355  : 				}
; 356  : 			}
; 357  : 			else{

  0054c	eb 14		 jmp	 SHORT $LN41@GameMain
$LN40@GameMain:

; 358  : 				重新登陆组队开始时间 = 0;

  0054e	c7 05 00 00 00
	00 00 00 00 00	 mov	 DWORD PTR ?重新登陆组队开始时间@?6??GameMain@@YAHXZ@4HA, 0

; 359  : 				重新登陆喊话开始时间 = 0;

  00558	c7 05 00 00 00
	00 00 00 00 00	 mov	 DWORD PTR ?重新登陆喊话开始时间@?6??GameMain@@YAHXZ@4HA, 0
$LN41@GameMain:

; 360  : 			}
; 361  : 		}
; 362  : 		extern int 自动登陆是否开启;
; 363  : 		if (ProcNo >= 1 && ProcNo <= 3){

  00562	83 3d 00 00 00
	00 01		 cmp	 DWORD PTR ?ProcNo@@3IA, 1 ; ProcNo
  00569	72 63		 jb	 SHORT $LN52@GameMain
  0056b	83 3d 00 00 00
	00 03		 cmp	 DWORD PTR ?ProcNo@@3IA, 3 ; ProcNo
  00572	77 5a		 ja	 SHORT $LN52@GameMain

; 364  : 			if (PcLanded.大区 != -1 && PcLanded.小区 != -1 && PcLanded.人物 != -1){

  00574	83 3d 00 00 00
	00 ff		 cmp	 DWORD PTR ?PcLanded@@3ULanded@@A, -1
  0057b	74 51		 je	 SHORT $LN52@GameMain
  0057d	83 3d 08 00 00
	00 ff		 cmp	 DWORD PTR ?PcLanded@@3ULanded@@A+8, -1
  00584	74 48		 je	 SHORT $LN52@GameMain
  00586	83 3d 0c 00 00
	00 ff		 cmp	 DWORD PTR ?PcLanded@@3ULanded@@A+12, -1
  0058d	74 3f		 je	 SHORT $LN52@GameMain

; 365  : 				if (自动登陆是否开启)

  0058f	83 3d 00 00 00
	00 00		 cmp	 DWORD PTR ?自动登陆是否开启@@3HA, 0 ; 自动登陆是否开启
  00596	74 1c		 je	 SHORT $LN51@GameMain

; 366  : 					StockFontBuffer(10, 550, FONT_PRIO_FRONT, FONT_PAL_RED, "正在自动登陆中,按F9可停止自动登陆！", 0);

  00598	6a 00		 push	 0
  0059a	68 00 00 00 00	 push	 OFFSET ??_C@_0CA@CMHGGOJD@?o?a?n?$KE?m?$LL?$DP?T?t?$DP?q?i?0?d?NF9?J?$KG?o?N?r?$KN?m?$LL?$DP?T?t?$DP?$KD?$KB?$AA@
  0059f	6a 06		 push	 6
  005a1	6a 01		 push	 1
  005a3	68 26 02 00 00	 push	 550			; 00000226H
  005a8	6a 0a		 push	 10			; 0000000aH
  005aa	e8 00 00 00 00	 call	 ?StockFontBuffer@@YAHHHDHPADH@Z ; StockFontBuffer
  005af	83 c4 18	 add	 esp, 24			; 00000018H

; 367  : 				else

  005b2	eb 1a		 jmp	 SHORT $LN52@GameMain
$LN51@GameMain:

; 368  : 					StockFontBuffer(10, 550, FONT_PRIO_FRONT, FONT_PAL_RED, "按F9可自动登陆游戏！", 0);

  005b4	6a 00		 push	 0
  005b6	68 00 00 00 00	 push	 OFFSET ??_C@_0BC@IEKMBCNM@?d?NF9?J?$KG?m?$LL?$DP?T?t?$DP?j?$PN?$DP?$KD?$KB?$AA@
  005bb	6a 06		 push	 6
  005bd	6a 01		 push	 1
  005bf	68 26 02 00 00	 push	 550			; 00000226H
  005c4	6a 0a		 push	 10			; 0000000aH
  005c6	e8 00 00 00 00	 call	 ?StockFontBuffer@@YAHHHDHPADH@Z ; StockFontBuffer
  005cb	83 c4 18	 add	 esp, 24			; 00000018H
$LN52@GameMain:

; 369  : 			}
; 370  : 		}
; 371  : 		if (joy_trg[1] & JOY_F9&&ProcNo >= 1 && ProcNo <= 3)

  005ce	b8 04 00 00 00	 mov	 eax, 4
  005d3	c1 e0 00	 shl	 eax, 0
  005d6	8b 88 00 00 00
	00		 mov	 ecx, DWORD PTR ?joy_trg@@3PAKA[eax]
  005dc	81 e1 00 01 00
	00		 and	 ecx, 256		; 00000100H
  005e2	74 6c		 je	 SHORT $LN56@GameMain
  005e4	83 3d 00 00 00
	00 01		 cmp	 DWORD PTR ?ProcNo@@3IA, 1 ; ProcNo
  005eb	72 63		 jb	 SHORT $LN56@GameMain
  005ed	83 3d 00 00 00
	00 03		 cmp	 DWORD PTR ?ProcNo@@3IA, 3 ; ProcNo
  005f4	77 5a		 ja	 SHORT $LN56@GameMain

; 372  : 		{
; 373  : 			if (自动登陆是否开启) 自动登陆是否开启 = !自动登陆是否开启;

  005f6	83 3d 00 00 00
	00 00		 cmp	 DWORD PTR ?自动登陆是否开启@@3HA, 0 ; 自动登陆是否开启
  005fd	74 2c		 je	 SHORT $LN54@GameMain
  005ff	83 3d 00 00 00
	00 00		 cmp	 DWORD PTR ?自动登陆是否开启@@3HA, 0 ; 自动登陆是否开启
  00606	75 0c		 jne	 SHORT $LN102@GameMain
  00608	c7 85 f8 f8 ff
	ff 01 00 00 00	 mov	 DWORD PTR tv287[ebp], 1
  00612	eb 0a		 jmp	 SHORT $LN103@GameMain
$LN102@GameMain:
  00614	c7 85 f8 f8 ff
	ff 00 00 00 00	 mov	 DWORD PTR tv287[ebp], 0
$LN103@GameMain:
  0061e	8b 85 f8 f8 ff
	ff		 mov	 eax, DWORD PTR tv287[ebp]
  00624	a3 00 00 00 00	 mov	 DWORD PTR ?自动登陆是否开启@@3HA, eax ; 自动登陆是否开启

; 374  : 			else{

  00629	eb 25		 jmp	 SHORT $LN56@GameMain
$LN54@GameMain:

; 375  : 				if (PcLanded.大区 != -1 && PcLanded.小区 != -1 && PcLanded.人物 != -1)

  0062b	83 3d 00 00 00
	00 ff		 cmp	 DWORD PTR ?PcLanded@@3ULanded@@A, -1
  00632	74 1c		 je	 SHORT $LN56@GameMain
  00634	83 3d 08 00 00
	00 ff		 cmp	 DWORD PTR ?PcLanded@@3ULanded@@A+8, -1
  0063b	74 13		 je	 SHORT $LN56@GameMain
  0063d	83 3d 0c 00 00
	00 ff		 cmp	 DWORD PTR ?PcLanded@@3ULanded@@A+12, -1
  00644	74 0a		 je	 SHORT $LN56@GameMain

; 376  : 					自动登陆是否开启 = TRUE;

  00646	c7 05 00 00 00
	00 01 00 00 00	 mov	 DWORD PTR ?自动登陆是否开启@@3HA, 1 ; 自动登陆是否开启
$LN56@GameMain:

; 377  : 			}
; 378  : 		}
; 379  : #endif
; 380  : #ifdef _STONDEBUG_
; 381  : 		if (joy_trg[1] & JOY_F9  && WindowMode) {
; 382  : #else			
; 383  : 		if (joy_trg[1] & JOY_F9  && WindowMode && LowResoCmdFlag) {

  00650	b8 04 00 00 00	 mov	 eax, 4
  00655	c1 e0 00	 shl	 eax, 0
  00658	8b 88 00 00 00
	00		 mov	 ecx, DWORD PTR ?joy_trg@@3PAKA[eax]
  0065e	81 e1 00 01 00
	00		 and	 ecx, 256		; 00000100H
  00664	0f 84 21 01 00
	00		 je	 $LN63@GameMain
  0066a	83 3d 00 00 00
	00 00		 cmp	 DWORD PTR ?WindowMode@@3HA, 0 ; WindowMode
  00671	0f 84 14 01 00
	00		 je	 $LN63@GameMain
  00677	83 3d 00 00 00
	00 00		 cmp	 DWORD PTR ?LowResoCmdFlag@@3HA, 0 ; LowResoCmdFlag
  0067e	0f 84 07 01 00
	00		 je	 $LN63@GameMain

; 384  : #endif
; 385  : 
; 386  : 			if (BackBufferDrawType != DRAW_BACK_PRODUCE) {

  00684	83 3d 00 00 00
	00 02		 cmp	 DWORD PTR ?BackBufferDrawType@@3HA, 2 ; BackBufferDrawType
  0068b	0f 84 fa 00 00
	00		 je	 $LN63@GameMain

; 387  : 				if (lpDraw != NULL) {

  00691	83 3d 00 00 00
	00 00		 cmp	 DWORD PTR ?lpDraw@@3PAUDIRECT_DRAW@@A, 0 ; lpDraw
  00698	0f 84 ed 00 00
	00		 je	 $LN63@GameMain

; 388  : 					// DirectDraw ?
; 389  : 					ReleaseDirectDraw();

  0069e	e8 00 00 00 00	 call	 ?ReleaseDirectDraw@@YAXXZ ; ReleaseDirectDraw

; 390  : 					DeleteObject(hFont);

  006a3	8b f4		 mov	 esi, esp
  006a5	a1 00 00 00 00	 mov	 eax, DWORD PTR ?hFont@@3PAUHFONT__@@A ; hFont
  006aa	50		 push	 eax
  006ab	ff 15 00 00 00
	00		 call	 DWORD PTR __imp__DeleteObject@4
  006b1	3b f4		 cmp	 esi, esp
  006b3	e8 00 00 00 00	 call	 __RTC_CheckEsp

; 391  : 					SetResoMode(((ResoMode + 1) % 5));

  006b8	a1 00 00 00 00	 mov	 eax, DWORD PTR ?ResoMode@@3HA ; ResoMode
  006bd	83 c0 01	 add	 eax, 1
  006c0	99		 cdq
  006c1	b9 05 00 00 00	 mov	 ecx, 5
  006c6	f7 f9		 idiv	 ecx
  006c8	52		 push	 edx
  006c9	e8 00 00 00 00	 call	 ?SetResoMode@@YAXH@Z	; SetResoMode
  006ce	83 c4 04	 add	 esp, 4

; 392  : 					InitDirectDraw();

  006d1	e8 00 00 00 00	 call	 ?InitDirectDraw@@YAHXZ	; InitDirectDraw

; 393  : 					InitOffScreenSurface();

  006d6	e8 00 00 00 00	 call	 ?InitOffScreenSurface@@YAHXZ ; InitOffScreenSurface

; 394  : 					InitFont(0);

  006db	6a 00		 push	 0
  006dd	e8 00 00 00 00	 call	 ?InitFont@@YAXH@Z	; InitFont
  006e2	83 c4 04	 add	 esp, 4

; 395  : 					ChangeWindowMode();

  006e5	e8 00 00 00 00	 call	 ?ChangeWindowMode@@YAXXZ ; ChangeWindowMode

; 396  : 					if (InitPalette() == FALSE) {

  006ea	e8 00 00 00 00	 call	 ?InitPalette@@YAHXZ	; InitPalette
  006ef	85 c0		 test	 eax, eax
  006f1	75 1b		 jne	 SHORT $LN60@GameMain

; 397  : 						PostMessage(hWnd, WM_CLOSE, 0, 0L);

  006f3	8b f4		 mov	 esi, esp
  006f5	6a 00		 push	 0
  006f7	6a 00		 push	 0
  006f9	6a 10		 push	 16			; 00000010H
  006fb	a1 00 00 00 00	 mov	 eax, DWORD PTR ?hWnd@@3PAUHWND__@@A ; hWnd
  00700	50		 push	 eax
  00701	ff 15 00 00 00
	00		 call	 DWORD PTR __imp__PostMessageA@16
  00707	3b f4		 cmp	 esi, esp
  00709	e8 00 00 00 00	 call	 __RTC_CheckEsp
$LN60@GameMain:

; 398  : 					}
; 399  : 					if (ProcNo == PROC_BATTLE) {

  0070e	83 3d 00 00 00
	00 0a		 cmp	 DWORD PTR ?ProcNo@@3IA, 10 ; ProcNo, 0000000aH
  00715	75 5b		 jne	 SHORT $LN61@GameMain

; 400  : 						DispBuffer.DispCnt = 0;

  00717	33 c0		 xor	 eax, eax
  00719	66 a3 00 c0 01
	00		 mov	 WORD PTR ?DispBuffer@@3UDISP_BUFFER@@A+114688, ax

; 401  : 						FontCnt = 0;

  0071f	c7 05 00 00 00
	00 00 00 00 00	 mov	 DWORD PTR ?FontCnt@@3HA, 0 ; FontCnt

; 402  : 						ReadBattleMap(BattleMapNo);

  00729	a1 00 00 00 00	 mov	 eax, DWORD PTR ?BattleMapNo@@3HA ; BattleMapNo
  0072e	50		 push	 eax
  0072f	e8 00 00 00 00	 call	 ?ReadBattleMap@@YAHH@Z	; ReadBattleMap
  00734	83 c4 04	 add	 esp, 4

; 403  : 						ClearBackSurface();

  00737	e8 00 00 00 00	 call	 ?ClearBackSurface@@YAXXZ ; ClearBackSurface

; 404  : #ifdef __SKYISLAND
; 405  : 						fastDrawTileFlag = 0;

  0073c	33 c0		 xor	 eax, eax
  0073e	66 a3 00 00 00
	00		 mov	 WORD PTR ?fastDrawTileFlag@@3FA, ax ; fastDrawTileFlag

; 406  : 						PutBmp();

  00744	e8 00 00 00 00	 call	 ?PutBmp@@YAXXZ		; PutBmp

; 407  : 						fastDrawTileFlag = 1;

  00749	b8 01 00 00 00	 mov	 eax, 1
  0074e	66 a3 00 00 00
	00		 mov	 WORD PTR ?fastDrawTileFlag@@3FA, ax ; fastDrawTileFlag

; 408  : #else
; 409  : 						PutBmp();
; 410  : 						lpBattleSurface->BltFast(0, 0, lpDraw->lpBACKBUFFER, NULL, DDBLTFAST_WAIT);
; 411  : #endif
; 412  : 						DispBuffer.DispCnt = 0;

  00754	33 c0		 xor	 eax, eax
  00756	66 a3 00 c0 01
	00		 mov	 WORD PTR ?DispBuffer@@3UDISP_BUFFER@@A+114688, ax

; 413  : 						FontCnt = 0;

  0075c	c7 05 00 00 00
	00 00 00 00 00	 mov	 DWORD PTR ?FontCnt@@3HA, 0 ; FontCnt

; 414  : 						NowTime = TimeGetTime();

  00766	e8 00 00 00 00	 call	 ?TimeGetTime@@YAIXZ	; TimeGetTime
  0076b	a3 00 00 00 00	 mov	 DWORD PTR ?NowTime@@3KA, eax ; NowTime

; 415  : 					}
; 416  : 					else

  00770	eb 19		 jmp	 SHORT $LN63@GameMain
$LN61@GameMain:

; 417  : 						if (fastDrawTile && ProcNo == PROC_GAME) {

  00772	0f bf 05 00 00
	00 00		 movsx	 eax, WORD PTR ?fastDrawTile@@3FB ; fastDrawTile
  00779	85 c0		 test	 eax, eax
  0077b	74 0e		 je	 SHORT $LN63@GameMain
  0077d	83 3d 00 00 00
	00 09		 cmp	 DWORD PTR ?ProcNo@@3IA, 9 ; ProcNo
  00784	75 05		 jne	 SHORT $LN63@GameMain

; 418  : 							repairMap();

  00786	e8 00 00 00 00	 call	 ?repairMap@@YAXXZ	; repairMap
$LN63@GameMain:

; 419  : 						}
; 420  : 				}
; 421  : 			}
; 422  : 		}
; 423  : 
; 424  : 
; 425  : #ifdef __NEW_CLIENT_MEM
; 426  : #ifndef __NEW_CLIENT_ONLY_WRITE
; 427  : 		static DWORD reset = TimeGetTime() + 120000;

  0078b	a1 00 00 00 00	 mov	 eax, DWORD PTR __tls_index
  00790	64 8b 0d 00 00
	00 00		 mov	 ecx, DWORD PTR fs:__tls_array
  00797	8b 14 81	 mov	 edx, DWORD PTR [ecx+eax*4]
  0079a	a1 00 00 00 00	 mov	 eax, DWORD PTR ?$TSS0@?6??GameMain@@YAHXZ@4HA
  0079f	3b 82 00 00 00
	00		 cmp	 eax, DWORD PTR __Init_thread_epoch[edx]
  007a5	7e 40		 jle	 SHORT $LN4@GameMain
  007a7	68 00 00 00 00	 push	 OFFSET ?$TSS0@?6??GameMain@@YAHXZ@4HA
  007ac	e8 00 00 00 00	 call	 __Init_thread_header
  007b1	83 c4 04	 add	 esp, 4
  007b4	83 3d 00 00 00
	00 ff		 cmp	 DWORD PTR ?$TSS0@?6??GameMain@@YAHXZ@4HA, -1
  007bb	75 2a		 jne	 SHORT $LN4@GameMain
  007bd	c7 45 fc 00 00
	00 00		 mov	 DWORD PTR __$EHRec$[ebp+8], 0
  007c4	e8 00 00 00 00	 call	 ?TimeGetTime@@YAIXZ	; TimeGetTime
  007c9	05 c0 d4 01 00	 add	 eax, 120000		; 0001d4c0H
  007ce	a3 00 00 00 00	 mov	 DWORD PTR ?reset@?6??GameMain@@YAHXZ@4KA, eax
  007d3	c7 45 fc ff ff
	ff ff		 mov	 DWORD PTR __$EHRec$[ebp+8], -1
  007da	68 00 00 00 00	 push	 OFFSET ?$TSS0@?6??GameMain@@YAHXZ@4HA
  007df	e8 00 00 00 00	 call	 __Init_thread_footer
  007e4	83 c4 04	 add	 esp, 4
$LN4@GameMain:

; 428  : 		static DWORD flip = 1;
; 429  : 		DWORD oldprotect;
; 430  : 		if (reset < TimeGetTime()) {

  007e7	e8 00 00 00 00	 call	 ?TimeGetTime@@YAIXZ	; TimeGetTime
  007ec	39 05 00 00 00
	00		 cmp	 DWORD PTR ?reset@?6??GameMain@@YAHXZ@4KA, eax
  007f2	0f 83 b2 01 00
	00		 jae	 $LN69@GameMain

; 431  : 			char *newread, *newwrite;
; 432  : 			reset += 120000;

  007f8	a1 00 00 00 00	 mov	 eax, DWORD PTR ?reset@?6??GameMain@@YAHXZ@4KA
  007fd	05 c0 d4 01 00	 add	 eax, 120000		; 0001d4c0H
  00802	a3 00 00 00 00	 mov	 DWORD PTR ?reset@?6??GameMain@@YAHXZ@4KA, eax

; 433  : 			flip = (flip + 1) & 1;

  00807	a1 00 00 00 00	 mov	 eax, DWORD PTR ?flip@?6??GameMain@@YAHXZ@4KA
  0080c	83 c0 01	 add	 eax, 1
  0080f	83 e0 01	 and	 eax, 1
  00812	a3 00 00 00 00	 mov	 DWORD PTR ?flip@?6??GameMain@@YAHXZ@4KA, eax

; 434  : 			if (flip == 1) {

  00817	0f 84 c9 00 00
	00		 je	 $LN65@GameMain

; 435  : 				if ((newread = (char*)VirtualAlloc(NULL, NETBUFSIZ, MEM_COMMIT, PAGE_READWRITE))) {

  0081d	8b f4		 mov	 esi, esp
  0081f	6a 04		 push	 4
  00821	68 00 10 00 00	 push	 4096			; 00001000H
  00826	68 00 40 00 00	 push	 16384			; 00004000H
  0082b	6a 00		 push	 0
  0082d	ff 15 00 00 00
	00		 call	 DWORD PTR __imp__VirtualAlloc@16
  00833	3b f4		 cmp	 esi, esp
  00835	e8 00 00 00 00	 call	 __RTC_CheckEsp
  0083a	89 85 64 fb ff
	ff		 mov	 DWORD PTR _newread$5[ebp], eax
  00840	83 bd 64 fb ff
	ff 00		 cmp	 DWORD PTR _newread$5[ebp], 0
  00847	0f 84 94 00 00
	00		 je	 $LN67@GameMain

; 436  : 					if (net_readbuflen) {

  0084d	83 3d 00 00 00
	00 00		 cmp	 DWORD PTR ?net_readbuflen@@3HA, 0 ; net_readbuflen
  00854	74 40		 je	 SHORT $LN68@GameMain

; 437  : 						VirtualProtect(net_readbuf, NETBUFSIZ, PAGE_READWRITE, &oldprotect);

  00856	8b f4		 mov	 esi, esp
  00858	8d 85 70 fb ff
	ff		 lea	 eax, DWORD PTR _oldprotect$6[ebp]
  0085e	50		 push	 eax
  0085f	6a 04		 push	 4
  00861	68 00 40 00 00	 push	 16384			; 00004000H
  00866	8b 0d 00 00 00
	00		 mov	 ecx, DWORD PTR ?net_readbuf@@3PADA ; net_readbuf
  0086c	51		 push	 ecx
  0086d	ff 15 00 00 00
	00		 call	 DWORD PTR __imp__VirtualProtect@16
  00873	3b f4		 cmp	 esi, esp
  00875	e8 00 00 00 00	 call	 __RTC_CheckEsp

; 438  : 						CopyMemory(newread, net_readbuf, net_readbuflen);

  0087a	a1 00 00 00 00	 mov	 eax, DWORD PTR ?net_readbuflen@@3HA ; net_readbuflen
  0087f	50		 push	 eax
  00880	8b 0d 00 00 00
	00		 mov	 ecx, DWORD PTR ?net_readbuf@@3PADA ; net_readbuf
  00886	51		 push	 ecx
  00887	8b 95 64 fb ff
	ff		 mov	 edx, DWORD PTR _newread$5[ebp]
  0088d	52		 push	 edx
  0088e	e8 00 00 00 00	 call	 _memcpy
  00893	83 c4 0c	 add	 esp, 12			; 0000000cH
$LN68@GameMain:

; 439  : 					}
; 440  : 					VirtualFree(net_readbuf, NULL, MEM_RELEASE);

  00896	8b f4		 mov	 esi, esp
  00898	68 00 80 00 00	 push	 32768			; 00008000H
  0089d	6a 00		 push	 0
  0089f	a1 00 00 00 00	 mov	 eax, DWORD PTR ?net_readbuf@@3PADA ; net_readbuf
  008a4	50		 push	 eax
  008a5	ff 15 00 00 00
	00		 call	 DWORD PTR __imp__VirtualFree@12
  008ab	3b f4		 cmp	 esi, esp
  008ad	e8 00 00 00 00	 call	 __RTC_CheckEsp

; 441  : 					net_readbuf = newread;

  008b2	8b 85 64 fb ff
	ff		 mov	 eax, DWORD PTR _newread$5[ebp]
  008b8	a3 00 00 00 00	 mov	 DWORD PTR ?net_readbuf@@3PADA, eax ; net_readbuf

; 442  : 					VirtualProtect(net_readbuf, NETBUFSIZ, PAGE_NOACCESS, &oldprotect);

  008bd	8b f4		 mov	 esi, esp
  008bf	8d 85 70 fb ff
	ff		 lea	 eax, DWORD PTR _oldprotect$6[ebp]
  008c5	50		 push	 eax
  008c6	6a 01		 push	 1
  008c8	68 00 40 00 00	 push	 16384			; 00004000H
  008cd	8b 0d 00 00 00
	00		 mov	 ecx, DWORD PTR ?net_readbuf@@3PADA ; net_readbuf
  008d3	51		 push	 ecx
  008d4	ff 15 00 00 00
	00		 call	 DWORD PTR __imp__VirtualProtect@16
  008da	3b f4		 cmp	 esi, esp
  008dc	e8 00 00 00 00	 call	 __RTC_CheckEsp
$LN67@GameMain:

; 443  : 				}
; 444  : 			}
; 445  : 			else {

  008e1	e9 c4 00 00 00	 jmp	 $LN69@GameMain
$LN65@GameMain:

; 446  : 				if ((newwrite = (char*)VirtualAlloc(NULL, NETBUFSIZ, MEM_COMMIT, PAGE_READWRITE))) {

  008e6	8b f4		 mov	 esi, esp
  008e8	6a 04		 push	 4
  008ea	68 00 10 00 00	 push	 4096			; 00001000H
  008ef	68 00 40 00 00	 push	 16384			; 00004000H
  008f4	6a 00		 push	 0
  008f6	ff 15 00 00 00
	00		 call	 DWORD PTR __imp__VirtualAlloc@16
  008fc	3b f4		 cmp	 esi, esp
  008fe	e8 00 00 00 00	 call	 __RTC_CheckEsp
  00903	89 85 58 fb ff
	ff		 mov	 DWORD PTR _newwrite$4[ebp], eax
  00909	83 bd 58 fb ff
	ff 00		 cmp	 DWORD PTR _newwrite$4[ebp], 0
  00910	0f 84 94 00 00
	00		 je	 $LN69@GameMain

; 447  : 					if (net_writebuflen) {

  00916	83 3d 00 00 00
	00 00		 cmp	 DWORD PTR ?net_writebuflen@@3HA, 0 ; net_writebuflen
  0091d	74 40		 je	 SHORT $LN70@GameMain

; 448  : 						VirtualProtect(net_writebuf, NETBUFSIZ, PAGE_READWRITE, &oldprotect);

  0091f	8b f4		 mov	 esi, esp
  00921	8d 85 70 fb ff
	ff		 lea	 eax, DWORD PTR _oldprotect$6[ebp]
  00927	50		 push	 eax
  00928	6a 04		 push	 4
  0092a	68 00 40 00 00	 push	 16384			; 00004000H
  0092f	8b 0d 00 00 00
	00		 mov	 ecx, DWORD PTR ?net_writebuf@@3PADA ; net_writebuf
  00935	51		 push	 ecx
  00936	ff 15 00 00 00
	00		 call	 DWORD PTR __imp__VirtualProtect@16
  0093c	3b f4		 cmp	 esi, esp
  0093e	e8 00 00 00 00	 call	 __RTC_CheckEsp

; 449  : 						CopyMemory(newwrite, net_writebuf, net_writebuflen);

  00943	a1 00 00 00 00	 mov	 eax, DWORD PTR ?net_writebuflen@@3HA ; net_writebuflen
  00948	50		 push	 eax
  00949	8b 0d 00 00 00
	00		 mov	 ecx, DWORD PTR ?net_writebuf@@3PADA ; net_writebuf
  0094f	51		 push	 ecx
  00950	8b 95 58 fb ff
	ff		 mov	 edx, DWORD PTR _newwrite$4[ebp]
  00956	52		 push	 edx
  00957	e8 00 00 00 00	 call	 _memcpy
  0095c	83 c4 0c	 add	 esp, 12			; 0000000cH
$LN70@GameMain:

; 450  : 					}
; 451  : 					VirtualFree(net_writebuf, NULL, MEM_RELEASE);

  0095f	8b f4		 mov	 esi, esp
  00961	68 00 80 00 00	 push	 32768			; 00008000H
  00966	6a 00		 push	 0
  00968	a1 00 00 00 00	 mov	 eax, DWORD PTR ?net_writebuf@@3PADA ; net_writebuf
  0096d	50		 push	 eax
  0096e	ff 15 00 00 00
	00		 call	 DWORD PTR __imp__VirtualFree@12
  00974	3b f4		 cmp	 esi, esp
  00976	e8 00 00 00 00	 call	 __RTC_CheckEsp

; 452  : 					net_writebuf = newwrite;

  0097b	8b 85 58 fb ff
	ff		 mov	 eax, DWORD PTR _newwrite$4[ebp]
  00981	a3 00 00 00 00	 mov	 DWORD PTR ?net_writebuf@@3PADA, eax ; net_writebuf

; 453  : 					VirtualProtect(net_writebuf, NETBUFSIZ, PAGE_NOACCESS, &oldprotect);

  00986	8b f4		 mov	 esi, esp
  00988	8d 85 70 fb ff
	ff		 lea	 eax, DWORD PTR _oldprotect$6[ebp]
  0098e	50		 push	 eax
  0098f	6a 01		 push	 1
  00991	68 00 40 00 00	 push	 16384			; 00004000H
  00996	8b 0d 00 00 00
	00		 mov	 ecx, DWORD PTR ?net_writebuf@@3PADA ; net_writebuf
  0099c	51		 push	 ecx
  0099d	ff 15 00 00 00
	00		 call	 DWORD PTR __imp__VirtualProtect@16
  009a3	3b f4		 cmp	 esi, esp
  009a5	e8 00 00 00 00	 call	 __RTC_CheckEsp
$LN69@GameMain:

; 454  : 				}
; 455  : 			}
; 456  : 		}
; 457  : #else
; 458  : 		static DWORD reset = TimeGetTime() + 120000;
; 459  : 		DWORD oldprotect;
; 460  : 		if (reset < TimeGetTime()) {
; 461  : 			char *newwrite;
; 462  : 			reset += 120000;
; 463  : 			if ((newwrite = (char*)VirtualAlloc(NULL, NETBUFSIZ, MEM_COMMIT, PAGE_READWRITE))) {
; 464  : 				VirtualProtect(net_writebuf, NETBUFSIZ, PAGE_READWRITE, &oldprotect);
; 465  : 				CopyMemory(newwrite, net_writebuf, net_writebuflen);
; 466  : 				VirtualFree(net_writebuf, NULL, MEM_RELEASE);
; 467  : 				net_writebuf = newwrite;
; 468  : 				VirtualProtect(net_writebuf, NETBUFSIZ, PAGE_NOACCESS, &oldprotect);
; 469  : 				newwrite = NULL;
; 470  : 			}
; 471  : 		}
; 472  : #endif
; 473  : #endif
; 474  : 
; 475  : #ifdef _STONEAGE_NG
; 476  : 
; 477  : #else
; 478  : 
; 479  : #ifdef _OPTIMIZATIONFLIP_
; 480  : 		if (endProcTime > TimeGetTime())
; 481  : 		{
; 482  : 			//修正最大跳帧数
; 483  : 			if (NoDrawCnt < NO_DRAW_MAX_CNT + skipAmend)
; 484  : 			{
; 485  : 				NoDrawCnt++;
; 486  : 				continue;
; 487  : 			}
; 488  : 			else
; 489  : 			{
; 490  : 				while (endProcTime > TimeGetTime())
; 491  : 				{
; 492  : 					std::this_thread::sleep_for(std::chrono::microseconds(10));
; 493  : 				}
; 494  : 			}
; 495  : 		}
; 496  : #ifdef _MO_SHOW_FPS
; 497  : 		sprintf(sz, "skip frames: %d", skipAmend);
; 498  : 		StockFontBuffer(380, 10, 1, 1, sz, false);
; 499  : #endif
; 500  : 
; 501  : #else
; 502  : 		NowTime = TimeGetTime();//获取当前的时间 毫秒

  009aa	e8 00 00 00 00	 call	 ?TimeGetTime@@YAIXZ	; TimeGetTime
  009af	a3 00 00 00 00	 mov	 DWORD PTR ?NowTime@@3KA, eax ; NowTime

; 503  : 		nowtime = nowttime1;

  009b4	8b 45 b4	 mov	 eax, DWORD PTR _nowttime1$[ebp]
  009b7	89 45 c0	 mov	 DWORD PTR _nowtime$[ebp], eax

; 504  : 		//nowtime ^= 0xffffbcde;
; 505  : 		static DWORD OldTime = nowttime1;

  009ba	a1 00 00 00 00	 mov	 eax, DWORD PTR __tls_index
  009bf	64 8b 0d 00 00
	00 00		 mov	 ecx, DWORD PTR fs:__tls_array
  009c6	8b 14 81	 mov	 edx, DWORD PTR [ecx+eax*4]
  009c9	a1 00 00 00 00	 mov	 eax, DWORD PTR ?$TSS1@?6??GameMain@@YAHXZ@4HA
  009ce	3b 82 00 00 00
	00		 cmp	 eax, DWORD PTR __Init_thread_epoch[edx]
  009d4	7e 39		 jle	 SHORT $LN5@GameMain
  009d6	68 00 00 00 00	 push	 OFFSET ?$TSS1@?6??GameMain@@YAHXZ@4HA
  009db	e8 00 00 00 00	 call	 __Init_thread_header
  009e0	83 c4 04	 add	 esp, 4
  009e3	83 3d 00 00 00
	00 ff		 cmp	 DWORD PTR ?$TSS1@?6??GameMain@@YAHXZ@4HA, -1
  009ea	75 23		 jne	 SHORT $LN5@GameMain
  009ec	c7 45 fc 01 00
	00 00		 mov	 DWORD PTR __$EHRec$[ebp+8], 1
  009f3	8b 45 b4	 mov	 eax, DWORD PTR _nowttime1$[ebp]
  009f6	a3 00 00 00 00	 mov	 DWORD PTR ?OldTime@?6??GameMain@@YAHXZ@4KA, eax
  009fb	c7 45 fc ff ff
	ff ff		 mov	 DWORD PTR __$EHRec$[ebp+8], -1
  00a02	68 00 00 00 00	 push	 OFFSET ?$TSS1@?6??GameMain@@YAHXZ@4HA
  00a07	e8 00 00 00 00	 call	 __Init_thread_footer
  00a0c	83 c4 04	 add	 esp, 4
$LN5@GameMain:

; 506  : 		if (NowTime > (nowtime + ProcTime)) {

  00a0f	8b 45 c0	 mov	 eax, DWORD PTR _nowtime$[ebp]
  00a12	03 05 00 00 00
	00		 add	 eax, DWORD PTR ?ProcTime@@3KA ; ProcTime
  00a18	39 05 00 00 00
	00		 cmp	 DWORD PTR ?NowTime@@3KA, eax ; NowTime
  00a1e	0f 86 83 00 00
	00		 jbe	 $LN73@GameMain

; 507  : 			//OldTime^= 0x855ff55f;
; 508  : 			if (OldTime != nowtime) {

  00a24	a1 00 00 00 00	 mov	 eax, DWORD PTR ?OldTime@?6??GameMain@@YAHXZ@4KA
  00a29	3b 45 c0	 cmp	 eax, DWORD PTR _nowtime$[ebp]
  00a2c	74 79		 je	 SHORT $LN73@GameMain

; 509  : 				OldTime = nowtime;

  00a2e	8b 45 c0	 mov	 eax, DWORD PTR _nowtime$[ebp]
  00a31	a3 00 00 00 00	 mov	 DWORD PTR ?OldTime@?6??GameMain@@YAHXZ@4KA, eax

; 510  : 				if (NoDrawCnt < NO_DRAW_MAX_CNT) {

  00a36	a1 00 00 00 00	 mov	 eax, DWORD PTR ?NoDrawCnt@@3HA ; NoDrawCnt
  00a3b	3b 05 00 00 00
	00		 cmp	 eax, DWORD PTR ?NO_DRAW_MAX_CNT@@3HA ; NO_DRAW_MAX_CNT
  00a41	7d 64		 jge	 SHORT $LN73@GameMain

; 511  : 					if (NowTime > nowttime3 + 2000) {

  00a43	8b 45 a8	 mov	 eax, DWORD PTR _nowttime3$[ebp]
  00a46	05 d0 07 00 00	 add	 eax, 2000		; 000007d0H
  00a4b	39 05 00 00 00
	00		 cmp	 DWORD PTR ?NowTime@@3KA, eax ; NowTime
  00a51	76 18		 jbe	 SHORT $LN74@GameMain

; 512  : 						nowttime3 = NowTime;

  00a53	a1 00 00 00 00	 mov	 eax, DWORD PTR ?NowTime@@3KA ; NowTime
  00a58	89 45 a8	 mov	 DWORD PTR _nowttime3$[ebp], eax

; 513  : 						nowtime = NowTime + SystemTime;

  00a5b	a1 00 00 00 00	 mov	 eax, DWORD PTR ?NowTime@@3KA ; NowTime
  00a60	03 05 00 00 00
	00		 add	 eax, DWORD PTR ?SystemTime@@3KA ; SystemTime
  00a66	89 45 c0	 mov	 DWORD PTR _nowtime$[ebp], eax

; 514  : 					}
; 515  : 					else

  00a69	eb 0c		 jmp	 SHORT $LN75@GameMain
$LN74@GameMain:

; 516  : 						nowtime += (SystemTime);

  00a6b	8b 45 c0	 mov	 eax, DWORD PTR _nowtime$[ebp]
  00a6e	03 05 00 00 00
	00		 add	 eax, DWORD PTR ?SystemTime@@3KA ; SystemTime
  00a74	89 45 c0	 mov	 DWORD PTR _nowtime$[ebp], eax
$LN75@GameMain:

; 517  : 					nowttime1 = nowtime;

  00a77	8b 45 c0	 mov	 eax, DWORD PTR _nowtime$[ebp]
  00a7a	89 45 b4	 mov	 DWORD PTR _nowttime1$[ebp], eax

; 518  : 					//_itoa_s( nowtime^0xffffbcde, sz, 10);
; 519  : 					nowtime = 0;

  00a7d	c7 45 c0 00 00
	00 00		 mov	 DWORD PTR _nowtime$[ebp], 0

; 520  : 					NoDrawCnt++;

  00a84	a1 00 00 00 00	 mov	 eax, DWORD PTR ?NoDrawCnt@@3HA ; NoDrawCnt
  00a89	83 c0 01	 add	 eax, 1
  00a8c	a3 00 00 00 00	 mov	 DWORD PTR ?NoDrawCnt@@3HA, eax ; NoDrawCnt

; 521  : 					Sleep(0);

  00a91	8b f4		 mov	 esi, esp
  00a93	6a 00		 push	 0
  00a95	ff 15 00 00 00
	00		 call	 DWORD PTR __imp__Sleep@4
  00a9b	3b f4		 cmp	 esi, esp
  00a9d	e8 00 00 00 00	 call	 __RTC_CheckEsp

; 522  : 					continue;

  00aa2	e9 df f5 ff ff	 jmp	 $LN108@GameMain
$LN73@GameMain:

; 523  : 				}
; 524  : 			}//else
; 525  : 			 //OldTime^= 0x855ff55f;
; 526  : 		}
; 527  : #endif
; 528  : #endif
; 529  : 		nowtime = 0;

  00aa7	c7 45 c0 00 00
	00 00		 mov	 DWORD PTR _nowtime$[ebp], 0

; 530  : #ifdef __AI
; 531  : 		if (di_key[DIK_NEXT] & 0x80){

  00aae	b8 01 00 00 00	 mov	 eax, 1
  00ab3	69 c8 d1 00 00
	00		 imul	 ecx, eax, 209
  00ab9	0f b6 91 00 00
	00 00		 movzx	 edx, BYTE PTR ?di_key@@3PAEA[ecx]
  00ac0	81 e2 80 00 00
	00		 and	 edx, 128		; 00000080H
  00ac6	0f 84 1b 01 00
	00		 je	 $LN76@GameMain

; 532  : 			di_key[DIK_NEXT] &= ~0x80;

  00acc	b8 01 00 00 00	 mov	 eax, 1
  00ad1	69 c8 d1 00 00
	00		 imul	 ecx, eax, 209
  00ad7	0f b6 91 00 00
	00 00		 movzx	 edx, BYTE PTR ?di_key@@3PAEA[ecx]
  00ade	81 e2 7f ff ff
	ff		 and	 edx, -129		; ffffff7fH
  00ae4	b8 01 00 00 00	 mov	 eax, 1
  00ae9	69 c8 d1 00 00
	00		 imul	 ecx, eax, 209
  00aef	88 91 00 00 00
	00		 mov	 BYTE PTR ?di_key@@3PAEA[ecx], dl

; 533  : 			static DWORD switchmodetime = TimeGetTime();

  00af5	a1 00 00 00 00	 mov	 eax, DWORD PTR __tls_index
  00afa	64 8b 0d 00 00
	00 00		 mov	 ecx, DWORD PTR fs:__tls_array
  00b01	8b 14 81	 mov	 edx, DWORD PTR [ecx+eax*4]
  00b04	a1 00 00 00 00	 mov	 eax, DWORD PTR ?$TSS2@?LD@??GameMain@@YAHXZ@4HA
  00b09	3b 82 00 00 00
	00		 cmp	 eax, DWORD PTR __Init_thread_epoch[edx]
  00b0f	7e 3b		 jle	 SHORT $LN6@GameMain
  00b11	68 00 00 00 00	 push	 OFFSET ?$TSS2@?LD@??GameMain@@YAHXZ@4HA
  00b16	e8 00 00 00 00	 call	 __Init_thread_header
  00b1b	83 c4 04	 add	 esp, 4
  00b1e	83 3d 00 00 00
	00 ff		 cmp	 DWORD PTR ?$TSS2@?LD@??GameMain@@YAHXZ@4HA, -1
  00b25	75 25		 jne	 SHORT $LN6@GameMain
  00b27	c7 45 fc 02 00
	00 00		 mov	 DWORD PTR __$EHRec$[ebp+8], 2
  00b2e	e8 00 00 00 00	 call	 ?TimeGetTime@@YAIXZ	; TimeGetTime
  00b33	a3 00 00 00 00	 mov	 DWORD PTR ?switchmodetime@?LD@??GameMain@@YAHXZ@4KA, eax
  00b38	c7 45 fc ff ff
	ff ff		 mov	 DWORD PTR __$EHRec$[ebp+8], -1
  00b3f	68 00 00 00 00	 push	 OFFSET ?$TSS2@?LD@??GameMain@@YAHXZ@4HA
  00b44	e8 00 00 00 00	 call	 __Init_thread_footer
  00b49	83 c4 04	 add	 esp, 4
$LN6@GameMain:

; 534  : 			if ((switchmodetime + 500) < NowTime){

  00b4c	a1 00 00 00 00	 mov	 eax, DWORD PTR ?switchmodetime@?LD@??GameMain@@YAHXZ@4KA
  00b51	05 f4 01 00 00	 add	 eax, 500		; 000001f4H
  00b56	3b 05 00 00 00
	00		 cmp	 eax, DWORD PTR ?NowTime@@3KA ; NowTime
  00b5c	0f 83 80 00 00
	00		 jae	 $LN78@GameMain

; 535  : 				switchmodetime = NowTime;

  00b62	a1 00 00 00 00	 mov	 eax, DWORD PTR ?NowTime@@3KA ; NowTime
  00b67	a3 00 00 00 00	 mov	 DWORD PTR ?switchmodetime@?LD@??GameMain@@YAHXZ@4KA, eax

; 536  : 				if (AI == AI_SELECT){

  00b6c	83 3d 00 00 00
	00 03		 cmp	 DWORD PTR ?AI@@3HA, 3	; AI
  00b73	75 35		 jne	 SHORT $LN79@GameMain

; 537  : 					AI = AI_NONE;

  00b75	c7 05 00 00 00
	00 00 00 00 00	 mov	 DWORD PTR ?AI@@3HA, 0	; AI

; 538  : 					pc.etcFlag &= (~PC_AI_MOD);

  00b7f	0f b7 05 a8 00
	00 00		 movzx	 eax, WORD PTR ?pc@@3UPC@@A+168
  00b86	25 ff bf ff ff	 and	 eax, -16385		; ffffbfffH
  00b8b	66 a3 a8 00 00
	00		 mov	 WORD PTR ?pc@@3UPC@@A+168, ax

; 539  : 					lssproto_FS_send(sockfd, pc.etcFlag);

  00b91	0f b7 05 a8 00
	00 00		 movzx	 eax, WORD PTR ?pc@@3UPC@@A+168
  00b98	50		 push	 eax
  00b99	8b 0d 00 00 00
	00		 mov	 ecx, DWORD PTR ?sockfd@@3IA ; sockfd
  00b9f	51		 push	 ecx
  00ba0	e8 00 00 00 00	 call	 ?lssproto_FS_send@@YAXHH@Z ; lssproto_FS_send
  00ba5	83 c4 08	 add	 esp, 8

; 540  : 					// 修复战斗AI转换的BUG  AI->玩家
; 541  : #ifdef _FIX_BATTLE_AI
; 542  : 					battleMenuFix();
; 543  : #endif
; 544  : 				}else{

  00ba8	eb 33		 jmp	 SHORT $LN80@GameMain
$LN79@GameMain:

; 545  : 					AI = AI_SELECT;

  00baa	c7 05 00 00 00
	00 03 00 00 00	 mov	 DWORD PTR ?AI@@3HA, 3	; AI

; 546  : 					pc.etcFlag |= PC_AI_MOD;

  00bb4	0f b7 05 a8 00
	00 00		 movzx	 eax, WORD PTR ?pc@@3UPC@@A+168
  00bbb	0d 00 40 00 00	 or	 eax, 16384		; 00004000H
  00bc0	66 a3 a8 00 00
	00		 mov	 WORD PTR ?pc@@3UPC@@A+168, ax

; 547  : 					lssproto_FS_send(sockfd, pc.etcFlag);

  00bc6	0f b7 05 a8 00
	00 00		 movzx	 eax, WORD PTR ?pc@@3UPC@@A+168
  00bcd	50		 push	 eax
  00bce	8b 0d 00 00 00
	00		 mov	 ecx, DWORD PTR ?sockfd@@3IA ; sockfd
  00bd4	51		 push	 ecx
  00bd5	e8 00 00 00 00	 call	 ?lssproto_FS_send@@YAXHH@Z ; lssproto_FS_send
  00bda	83 c4 08	 add	 esp, 8
$LN80@GameMain:

; 548  : 				}
; 549  : 				extern BOOL AI_Save();
; 550  : 				AI_Save();

  00bdd	e8 00 00 00 00	 call	 ?AI_Save@@YAHXZ		; AI_Save
$LN78@GameMain:

; 551  : 			}

  00be2	e9 34 01 00 00	 jmp	 $LN82@GameMain
$LN76@GameMain:

; 552  : 		}else if (di_key[DIK_PRIOR] & 0x80){

  00be7	b8 01 00 00 00	 mov	 eax, 1
  00bec	69 c8 c9 00 00
	00		 imul	 ecx, eax, 201
  00bf2	0f b6 91 00 00
	00 00		 movzx	 edx, BYTE PTR ?di_key@@3PAEA[ecx]
  00bf9	81 e2 80 00 00
	00		 and	 edx, 128		; 00000080H
  00bff	0f 84 16 01 00
	00		 je	 $LN82@GameMain

; 553  : 			di_key[DIK_PRIOR] &= ~0x80;

  00c05	b8 01 00 00 00	 mov	 eax, 1
  00c0a	69 c8 c9 00 00
	00		 imul	 ecx, eax, 201
  00c10	0f b6 91 00 00
	00 00		 movzx	 edx, BYTE PTR ?di_key@@3PAEA[ecx]
  00c17	81 e2 7f ff ff
	ff		 and	 edx, -129		; ffffff7fH
  00c1d	b8 01 00 00 00	 mov	 eax, 1
  00c22	69 c8 c9 00 00
	00		 imul	 ecx, eax, 201
  00c28	88 91 00 00 00
	00		 mov	 BYTE PTR ?di_key@@3PAEA[ecx], dl

; 554  : 			static DWORD switchmodetime = TimeGetTime();

  00c2e	a1 00 00 00 00	 mov	 eax, DWORD PTR __tls_index
  00c33	64 8b 0d 00 00
	00 00		 mov	 ecx, DWORD PTR fs:__tls_array
  00c3a	8b 14 81	 mov	 edx, DWORD PTR [ecx+eax*4]
  00c3d	a1 00 00 00 00	 mov	 eax, DWORD PTR ?$TSS3@?LP@??GameMain@@YAHXZ@4HA
  00c42	3b 82 00 00 00
	00		 cmp	 eax, DWORD PTR __Init_thread_epoch[edx]
  00c48	7e 3b		 jle	 SHORT $LN7@GameMain
  00c4a	68 00 00 00 00	 push	 OFFSET ?$TSS3@?LP@??GameMain@@YAHXZ@4HA
  00c4f	e8 00 00 00 00	 call	 __Init_thread_header
  00c54	83 c4 04	 add	 esp, 4
  00c57	83 3d 00 00 00
	00 ff		 cmp	 DWORD PTR ?$TSS3@?LP@??GameMain@@YAHXZ@4HA, -1
  00c5e	75 25		 jne	 SHORT $LN7@GameMain
  00c60	c7 45 fc 03 00
	00 00		 mov	 DWORD PTR __$EHRec$[ebp+8], 3
  00c67	e8 00 00 00 00	 call	 ?TimeGetTime@@YAIXZ	; TimeGetTime
  00c6c	a3 00 00 00 00	 mov	 DWORD PTR ?switchmodetime@?LP@??GameMain@@YAHXZ@4KA, eax
  00c71	c7 45 fc ff ff
	ff ff		 mov	 DWORD PTR __$EHRec$[ebp+8], -1
  00c78	68 00 00 00 00	 push	 OFFSET ?$TSS3@?LP@??GameMain@@YAHXZ@4HA
  00c7d	e8 00 00 00 00	 call	 __Init_thread_footer
  00c82	83 c4 04	 add	 esp, 4
$LN7@GameMain:

; 555  : 			if ((switchmodetime + 500) < NowTime){

  00c85	a1 00 00 00 00	 mov	 eax, DWORD PTR ?switchmodetime@?LP@??GameMain@@YAHXZ@4KA
  00c8a	05 f4 01 00 00	 add	 eax, 500		; 000001f4H
  00c8f	3b 05 00 00 00
	00		 cmp	 eax, DWORD PTR ?NowTime@@3KA ; NowTime
  00c95	0f 83 80 00 00
	00		 jae	 $LN82@GameMain

; 556  : 				switchmodetime = NowTime;

  00c9b	a1 00 00 00 00	 mov	 eax, DWORD PTR ?NowTime@@3KA ; NowTime
  00ca0	a3 00 00 00 00	 mov	 DWORD PTR ?switchmodetime@?LP@??GameMain@@YAHXZ@4KA, eax

; 557  : 				if (AI == AI_SELECT){

  00ca5	83 3d 00 00 00
	00 03		 cmp	 DWORD PTR ?AI@@3HA, 3	; AI
  00cac	75 35		 jne	 SHORT $LN83@GameMain

; 558  : 					AI = AI_NONE;

  00cae	c7 05 00 00 00
	00 00 00 00 00	 mov	 DWORD PTR ?AI@@3HA, 0	; AI

; 559  : 					// 修复战斗AI转换的BUG  玩家->AI
; 560  : #ifdef _FIX_BATTLE_AI
; 561  : 					battleMenuFix();
; 562  : #endif
; 563  : 					pc.etcFlag &= (~PC_AI_MOD);

  00cb8	0f b7 05 a8 00
	00 00		 movzx	 eax, WORD PTR ?pc@@3UPC@@A+168
  00cbf	25 ff bf ff ff	 and	 eax, -16385		; ffffbfffH
  00cc4	66 a3 a8 00 00
	00		 mov	 WORD PTR ?pc@@3UPC@@A+168, ax

; 564  : 					lssproto_FS_send(sockfd, pc.etcFlag);

  00cca	0f b7 05 a8 00
	00 00		 movzx	 eax, WORD PTR ?pc@@3UPC@@A+168
  00cd1	50		 push	 eax
  00cd2	8b 0d 00 00 00
	00		 mov	 ecx, DWORD PTR ?sockfd@@3IA ; sockfd
  00cd8	51		 push	 ecx
  00cd9	e8 00 00 00 00	 call	 ?lssproto_FS_send@@YAXHH@Z ; lssproto_FS_send
  00cde	83 c4 08	 add	 esp, 8

; 565  : 				}
; 566  : 				else{

  00ce1	eb 33		 jmp	 SHORT $LN84@GameMain
$LN83@GameMain:

; 567  : 					AI = AI_SELECT;

  00ce3	c7 05 00 00 00
	00 03 00 00 00	 mov	 DWORD PTR ?AI@@3HA, 3	; AI

; 568  : 					pc.etcFlag |= PC_AI_MOD;

  00ced	0f b7 05 a8 00
	00 00		 movzx	 eax, WORD PTR ?pc@@3UPC@@A+168
  00cf4	0d 00 40 00 00	 or	 eax, 16384		; 00004000H
  00cf9	66 a3 a8 00 00
	00		 mov	 WORD PTR ?pc@@3UPC@@A+168, ax

; 569  : 					lssproto_FS_send(sockfd, pc.etcFlag);

  00cff	0f b7 05 a8 00
	00 00		 movzx	 eax, WORD PTR ?pc@@3UPC@@A+168
  00d06	50		 push	 eax
  00d07	8b 0d 00 00 00
	00		 mov	 ecx, DWORD PTR ?sockfd@@3IA ; sockfd
  00d0d	51		 push	 ecx
  00d0e	e8 00 00 00 00	 call	 ?lssproto_FS_send@@YAXHH@Z ; lssproto_FS_send
  00d13	83 c4 08	 add	 esp, 8
$LN84@GameMain:

; 570  : 				}
; 571  : 				extern BOOL AI_Save();
; 572  : 				AI_Save();

  00d16	e8 00 00 00 00	 call	 ?AI_Save@@YAHXZ		; AI_Save
$LN82@GameMain:

; 573  : 			}
; 574  : 		}
; 575  : #endif
; 576  : 		if (BackBufferDrawType != DRAW_BACK_PRODUCE) {

  00d1b	83 3d 00 00 00
	00 02		 cmp	 DWORD PTR ?BackBufferDrawType@@3HA, 2 ; BackBufferDrawType
  00d22	74 51		 je	 SHORT $LN85@GameMain

; 577  : 
; 578  : #ifdef _STONDEBUG_
; 579  : 
; 580  : #else
; 581  : #ifdef _NEW_SPEED_
; 582  : 			no_wait_cnt++;

  00d24	a0 00 00 00 00	 mov	 al, BYTE PTR ?no_wait_cnt@@3DA ; no_wait_cnt
  00d29	04 01		 add	 al, 1
  00d2b	a2 00 00 00 00	 mov	 BYTE PTR ?no_wait_cnt@@3DA, al ; no_wait_cnt

; 583  : 			no_wait_cnt &= 3;

  00d30	0f be 05 00 00
	00 00		 movsx	 eax, BYTE PTR ?no_wait_cnt@@3DA ; no_wait_cnt
  00d37	83 e0 03	 and	 eax, 3
  00d3a	a2 00 00 00 00	 mov	 BYTE PTR ?no_wait_cnt@@3DA, al ; no_wait_cnt

; 584  : #ifdef _OPTIMIZATIONFLIP_
; 585  : 			loopAmend = TimeGetTime();
; 586  : #endif
; 587  : 			//JL hook
; 588  : 			extern int g_hideSA;
; 589  : 			if (g_hideSA == false)

  00d3f	83 3d 00 00 00
	00 00		 cmp	 DWORD PTR ?g_hideSA@@3HA, 0 ; g_hideSA
  00d46	75 05		 jne	 SHORT $LN86@GameMain

; 590  : 			{
; 591  : 				PutBmp();

  00d48	e8 00 00 00 00	 call	 ?PutBmp@@YAXXZ		; PutBmp
$LN86@GameMain:

; 592  : 			}
; 593  : #ifdef _OPTIMIZATIONFLIP_
; 594  : 			loopAmend = TimeGetTime() - loopAmend;
; 595  : 			if (loopAmend < 8)
; 596  : 			{
; 597  : 				skipAmend = 0;
; 598  : 			}
; 599  : 			else if (loopAmend >= 8)
; 600  : 			{
; 601  : 				skipAmend = 1;
; 602  : 			}
; 603  : #endif
; 604  : 			baseXFastDraw = nowXFastDraw;

  00d4d	a1 00 00 00 00	 mov	 eax, DWORD PTR ?nowXFastDraw@@3HA ; nowXFastDraw
  00d52	a3 00 00 00 00	 mov	 DWORD PTR ?baseXFastDraw@@3HA, eax ; baseXFastDraw

; 605  : 			baseYFastDraw = nowYFastDraw;

  00d57	a1 00 00 00 00	 mov	 eax, DWORD PTR ?nowYFastDraw@@3HA ; nowYFastDraw
  00d5c	a3 00 00 00 00	 mov	 DWORD PTR ?baseYFastDraw@@3HA, eax ; baseYFastDraw

; 606  : 			baseXFastDraw2 = nowXFastDraw2;

  00d61	a1 00 00 00 00	 mov	 eax, DWORD PTR ?nowXFastDraw2@@3HA ; nowXFastDraw2
  00d66	a3 00 00 00 00	 mov	 DWORD PTR ?baseXFastDraw2@@3HA, eax ; baseXFastDraw2

; 607  : 			baseYFastDraw2 = nowYFastDraw2;

  00d6b	a1 00 00 00 00	 mov	 eax, DWORD PTR ?nowYFastDraw2@@3HA ; nowYFastDraw2
  00d70	a3 00 00 00 00	 mov	 DWORD PTR ?baseYFastDraw2@@3HA, eax ; baseYFastDraw2
$LN85@GameMain:

; 608  : 
; 609  : #else
; 610  : 			PutBmp();
; 611  : 			baseXFastDraw = nowXFastDraw;
; 612  : 			baseYFastDraw = nowYFastDraw;
; 613  : 			baseXFastDraw2 = nowXFastDraw2;
; 614  : 			baseYFastDraw2 = nowYFastDraw2;
; 615  : 
; 616  : #endif //_SPEED
; 617  : #endif	
; 618  : #ifdef __SKYISLAND
; 619  : 		}
; 620  : #endif
; 621  : 
; 622  : 
; 623  : 
; 624  : 		Flip();	// ?i?_???v???

  00d75	e8 00 00 00 00	 call	 ?Flip@@YAXXZ		; Flip

; 625  : 
; 626  : 
; 627  : #ifdef _STONDEBUG_		
; 628  : 		DrawDebugLine(249);
; 629  : #endif
; 630  : 
; 631  : #ifdef _STONDEBUG_	
; 632  : 		if (GetAsyncKeyState(0x10) & 0x8000) {		//???????????
; 633  : 			nowtime = TimeGetTime();
; 634  : 			_itoa_s(nowtime ^ 0xffffbcde, sz, 10);
; 635  : 		}
; 636  : 		else {
; 637  : 			nowtime = atoi(sz);
; 638  : 			nowtime ^= 0xffffbcde;
; 639  : 			while (nowtime >= TimeGetTime()) {
; 640  : 				if (WindowMode) {
; 641  : 					Sleep(1);
; 642  : 				}
; 643  : 			}
; 644  : 		}
; 645  : #else
; 646  : #ifdef _NEW_SPEED_
; 647  : 		//nowtime = atoi( sz);
; 648  : 		//nowtime ^= 0xffffbcde;
; 649  : #ifndef _OPTIMIZATIONFLIP_
; 650  : 		nowtime = nowttime1;

  00d7a	8b 45 b4	 mov	 eax, DWORD PTR _nowttime1$[ebp]
  00d7d	89 45 c0	 mov	 DWORD PTR _nowtime$[ebp], eax
$LN8@GameMain:

; 651  : 		while (nowtime >= TimeGetTime()) {

  00d80	e8 00 00 00 00	 call	 ?TimeGetTime@@YAIXZ	; TimeGetTime
  00d85	39 45 c0	 cmp	 DWORD PTR _nowtime$[ebp], eax
  00d88	72 13		 jb	 SHORT $LN9@GameMain

; 652  : 			Sleep(1);

  00d8a	8b f4		 mov	 esi, esp
  00d8c	6a 01		 push	 1
  00d8e	ff 15 00 00 00
	00		 call	 DWORD PTR __imp__Sleep@4
  00d94	3b f4		 cmp	 esi, esp
  00d96	e8 00 00 00 00	 call	 __RTC_CheckEsp

; 653  : 		}

  00d9b	eb e3		 jmp	 SHORT $LN8@GameMain
$LN9@GameMain:

; 654  : 		nowtime = 0;

  00d9d	c7 45 c0 00 00
	00 00		 mov	 DWORD PTR _nowtime$[ebp], 0

; 655  : #endif
; 656  : #else
; 657  : 		nowtime = atoi(sz);
; 658  : 		nowtime ^= 0xffffbcde;
; 659  : 		while (nowtime >= TimeGetTime()) {
; 660  : 			Sleep(1);
; 661  : 		}
; 662  : 		nowtime = 0;
; 663  : 
; 664  : #endif
; 665  : #endif
; 666  : 
; 667  : 		if (PalChangeFlag == TRUE) {

  00da4	83 3d 00 00 00
	00 01		 cmp	 DWORD PTR ?PalChangeFlag@@3HA, 1 ; PalChangeFlag
  00dab	0f 85 4a 01 00
	00		 jne	 $LN87@GameMain

; 668  : 
; 669  : 			extern int displayBpp;
; 670  : 			extern int rBitLShift, gBitLShift, bBitLShift;
; 671  : 			extern int rBitRShift, gBitRShift, bBitRShift;
; 672  : 			if (displayBpp >= 16) {

  00db1	83 3d 00 00 00
	00 10		 cmp	 DWORD PTR ?displayBpp@@3HA, 16 ; displayBpp, 00000010H
  00db8	0f 8c f4 00 00
	00		 jl	 $LN88@GameMain

; 673  : 				//此处高彩导致地图颜色读取不正常。关闭即可
; 674  : #ifndef _CAX_STOP_TEXIAO
; 675  : #ifdef _HI_COLOR_32
; 676  : 				//if (displayBpp == 32) {
; 677  : 				//	extern unsigned int highColor32Palette[256];
; 678  : 				//	for (int i = 1; i < 256; i++) {
; 679  : 				//		highColor32Palette[i] =
; 680  : 				//			//cary 2001 10 16
; 681  : 				//			((Palette[i].peBlue >> bBitRShift) << bBitLShift)
; 682  : 				//			+ ((Palette[i].peGreen >> gBitRShift) << gBitLShift)
; 683  : 				//			+ ((Palette[i].peRed >> rBitRShift) << rBitLShift);
; 684  : 				//	}
; 685  : 				//}
; 686  : 				//else
; 687  : #endif
; 688  : #endif
; 689  : 					if (displayBpp == 16) {

  00dbe	83 3d 00 00 00
	00 10		 cmp	 DWORD PTR ?displayBpp@@3HA, 16 ; displayBpp, 00000010H
  00dc5	0f 85 9b 00 00
	00		 jne	 $LN11@GameMain

; 690  : 						extern unsigned short highColorPalette[256];
; 691  : 						for (int i = 1; i < 256; i++) {

  00dcb	c7 85 4c fb ff
	ff 01 00 00 00	 mov	 DWORD PTR _i$3[ebp], 1
  00dd5	eb 0f		 jmp	 SHORT $LN12@GameMain
$LN10@GameMain:
  00dd7	8b 85 4c fb ff
	ff		 mov	 eax, DWORD PTR _i$3[ebp]
  00ddd	83 c0 01	 add	 eax, 1
  00de0	89 85 4c fb ff
	ff		 mov	 DWORD PTR _i$3[ebp], eax
$LN12@GameMain:
  00de6	81 bd 4c fb ff
	ff 00 01 00 00	 cmp	 DWORD PTR _i$3[ebp], 256 ; 00000100H
  00df0	7d 74		 jge	 SHORT $LN11@GameMain

; 692  : 							highColorPalette[i] =

  00df2	8b 85 4c fb ff
	ff		 mov	 eax, DWORD PTR _i$3[ebp]
  00df8	0f b6 14 85 02
	00 00 00	 movzx	 edx, BYTE PTR ?Palette@@3PAUtagPALETTEENTRY@@A[eax*4+2]
  00e00	8b 0d 00 00 00
	00		 mov	 ecx, DWORD PTR ?bBitRShift@@3HA ; bBitRShift
  00e06	d3 fa		 sar	 edx, cl
  00e08	8b 0d 00 00 00
	00		 mov	 ecx, DWORD PTR ?bBitLShift@@3HA ; bBitLShift
  00e0e	d3 e2		 shl	 edx, cl
  00e10	8b 85 4c fb ff
	ff		 mov	 eax, DWORD PTR _i$3[ebp]
  00e16	0f b6 04 85 01
	00 00 00	 movzx	 eax, BYTE PTR ?Palette@@3PAUtagPALETTEENTRY@@A[eax*4+1]
  00e1e	8b 0d 00 00 00
	00		 mov	 ecx, DWORD PTR ?gBitRShift@@3HA ; gBitRShift
  00e24	d3 f8		 sar	 eax, cl
  00e26	83 c8 01	 or	 eax, 1
  00e29	8b 0d 00 00 00
	00		 mov	 ecx, DWORD PTR ?gBitLShift@@3HA ; gBitLShift
  00e2f	d3 e0		 shl	 eax, cl
  00e31	03 d0		 add	 edx, eax
  00e33	8b 8d 4c fb ff
	ff		 mov	 ecx, DWORD PTR _i$3[ebp]
  00e39	0f b6 04 8d 00
	00 00 00	 movzx	 eax, BYTE PTR ?Palette@@3PAUtagPALETTEENTRY@@A[ecx*4]
  00e41	8b 0d 00 00 00
	00		 mov	 ecx, DWORD PTR ?rBitRShift@@3HA ; rBitRShift
  00e47	d3 f8		 sar	 eax, cl
  00e49	8b 0d 00 00 00
	00		 mov	 ecx, DWORD PTR ?rBitLShift@@3HA ; rBitLShift
  00e4f	d3 e0		 shl	 eax, cl
  00e51	03 d0		 add	 edx, eax
  00e53	8b 8d 4c fb ff
	ff		 mov	 ecx, DWORD PTR _i$3[ebp]
  00e59	66 89 14 4d 00
	00 00 00	 mov	 WORD PTR ?highColorPalette@@3PAGA[ecx*2], dx

; 693  : 								((Palette[i].peBlue >> bBitRShift) << bBitLShift)
; 694  : 								+ (((Palette[i].peGreen >> gBitRShift) | 1) << gBitLShift)
; 695  : 								+ ((Palette[i].peRed >> rBitRShift) << rBitLShift);
; 696  : 						}

  00e61	e9 71 ff ff ff	 jmp	 $LN10@GameMain
$LN11@GameMain:

; 697  : 					}
; 698  : #ifdef __HI_COLOR
; 699  : 				InitSpriteInfo();

  00e66	e8 00 00 00 00	 call	 ?InitSpriteInfo@@YAXXZ	; InitSpriteInfo

; 700  : 				InitSurfaceInfo();

  00e6b	e8 00 00 00 00	 call	 ?InitSurfaceInfo@@YAXXZ	; InitSurfaceInfo

; 701  : 				extern int BackBufferDrawType;
; 702  : 				if (BackBufferDrawType == DRAW_BACK_BATTLE) {

  00e70	83 3d 00 00 00
	00 03		 cmp	 DWORD PTR ?BackBufferDrawType@@3HA, 3 ; BackBufferDrawType
  00e77	75 32		 jne	 SHORT $LN91@GameMain

; 703  : #ifdef _NEW_RESOMODE
; 704  : 					//drawMap();
; 705  : 					ReadBattleMap(BattleMapNo);

  00e79	a1 00 00 00 00	 mov	 eax, DWORD PTR ?BattleMapNo@@3HA ; BattleMapNo
  00e7e	50		 push	 eax
  00e7f	e8 00 00 00 00	 call	 ?ReadBattleMap@@YAHH@Z	; ReadBattleMap
  00e84	83 c4 04	 add	 esp, 4

; 706  : #else
; 707  : 					ReadBattleMap(BattleMapNo);
; 708  : #endif
; 709  : 					SortDispBuffer();

  00e87	e8 00 00 00 00	 call	 ?SortDispBuffer@@YAXXZ	; SortDispBuffer

; 710  : 					ClearBackSurface();

  00e8c	e8 00 00 00 00	 call	 ?ClearBackSurface@@YAXXZ ; ClearBackSurface

; 711  : 					fastDrawTileFlag = 0;

  00e91	33 c0		 xor	 eax, eax
  00e93	66 a3 00 00 00
	00		 mov	 WORD PTR ?fastDrawTileFlag@@3FA, ax ; fastDrawTileFlag

; 712  : 					PutBmp();

  00e99	e8 00 00 00 00	 call	 ?PutBmp@@YAXXZ		; PutBmp

; 713  : 					fastDrawTileFlag = 1;

  00e9e	b8 01 00 00 00	 mov	 eax, 1
  00ea3	66 a3 00 00 00
	00		 mov	 WORD PTR ?fastDrawTileFlag@@3FA, ax ; fastDrawTileFlag
  00ea9	eb 05		 jmp	 SHORT $LN92@GameMain
$LN91@GameMain:

; 714  : 				}
; 715  : 				else repairMap();

  00eab	e8 00 00 00 00	 call	 ?repairMap@@YAXXZ	; repairMap
$LN92@GameMain:
  00eb0	eb 3f		 jmp	 SHORT $LN93@GameMain
$LN88@GameMain:

; 716  : #endif
; 717  : #ifdef __CARYTEST
; 718  : 				extern LPREALBIN	g_lpRealHead;
; 719  : 				LPREALBIN node = g_lpRealHead;
; 720  : 				while (node) {
; 721  : 					node->state = 0;
; 722  : 				}
; 723  : #endif
; 724  : 			}
; 725  : 			else if (displayBpp == 8) {

  00eb2	83 3d 00 00 00
	00 08		 cmp	 DWORD PTR ?displayBpp@@3HA, 8 ; displayBpp
  00eb9	75 36		 jne	 SHORT $LN93@GameMain

; 726  : 				lpDraw->lpPALETTE->SetEntries(0, 0, 256, Palette);

  00ebb	8b f4		 mov	 esi, esp
  00ebd	68 00 00 00 00	 push	 OFFSET ?Palette@@3PAUtagPALETTEENTRY@@A ; Palette
  00ec2	68 00 01 00 00	 push	 256			; 00000100H
  00ec7	6a 00		 push	 0
  00ec9	6a 00		 push	 0
  00ecb	a1 00 00 00 00	 mov	 eax, DWORD PTR ?lpDraw@@3PAUDIRECT_DRAW@@A ; lpDraw
  00ed0	8b 88 80 00 00
	00		 mov	 ecx, DWORD PTR [eax+128]
  00ed6	8b 15 00 00 00
	00		 mov	 edx, DWORD PTR ?lpDraw@@3PAUDIRECT_DRAW@@A ; lpDraw
  00edc	8b 82 80 00 00
	00		 mov	 eax, DWORD PTR [edx+128]
  00ee2	8b 09		 mov	 ecx, DWORD PTR [ecx]
  00ee4	50		 push	 eax
  00ee5	8b 51 18	 mov	 edx, DWORD PTR [ecx+24]
  00ee8	ff d2		 call	 edx
  00eea	3b f4		 cmp	 esi, esp
  00eec	e8 00 00 00 00	 call	 __RTC_CheckEsp
$LN93@GameMain:

; 727  : 			}
; 728  : 			PalChangeFlag = FALSE;

  00ef1	c7 05 00 00 00
	00 00 00 00 00	 mov	 DWORD PTR ?PalChangeFlag@@3HA, 0 ; PalChangeFlag
$LN87@GameMain:

; 729  : 		}
; 730  : #ifdef _NEW_SPEED_
; 731  : 		if (GameSpeedFlag) {

  00efb	83 3d 00 00 00
	00 00		 cmp	 DWORD PTR ?GameSpeedFlag@@3HA, 0 ; GameSpeedFlag
  00f02	74 18		 je	 SHORT $LN94@GameMain

; 732  : 			nowtime = TimeGetTime();

  00f04	e8 00 00 00 00	 call	 ?TimeGetTime@@YAIXZ	; TimeGetTime
  00f09	89 45 c0	 mov	 DWORD PTR _nowtime$[ebp], eax

; 733  : 			nowttime1 = nowtime;

  00f0c	8b 45 c0	 mov	 eax, DWORD PTR _nowtime$[ebp]
  00f0f	89 45 b4	 mov	 DWORD PTR _nowttime1$[ebp], eax

; 734  : 			//_itoa_s( nowtime^0xffffbcde, sz, 10);
; 735  : 			GameSpeedFlag = FALSE;

  00f12	c7 05 00 00 00
	00 00 00 00 00	 mov	 DWORD PTR ?GameSpeedFlag@@3HA, 0 ; GameSpeedFlag
$LN94@GameMain:

; 736  : 		}
; 737  : #endif
; 738  : 		//nowtime = atoi( sz);
; 739  : 		//nowtime ^= 0xffffbcde;
; 740  : 
; 741  : #ifdef	_OPTIMIZATIONFLIP_
; 742  : 		finishLoop = TRUE;
; 743  : 		NoDrawCnt = 1;
; 744  : 
; 745  : 		while (endloopTime > TimeGetTime()) {
; 746  : 			std::this_thread::sleep_for(std::chrono::microseconds(10));
; 747  : 		}
; 748  : 
; 749  : #else
; 750  : 		nowttime1 += SystemTime;

  00f1c	8b 45 b4	 mov	 eax, DWORD PTR _nowttime1$[ebp]
  00f1f	03 05 00 00 00
	00		 add	 eax, DWORD PTR ?SystemTime@@3KA ; SystemTime
  00f25	89 45 b4	 mov	 DWORD PTR _nowttime1$[ebp], eax

; 751  : 		nowtime = 0;

  00f28	c7 45 c0 00 00
	00 00		 mov	 DWORD PTR _nowtime$[ebp], 0

; 752  : 		Sleep(1);

  00f2f	8b f4		 mov	 esi, esp
  00f31	6a 01		 push	 1
  00f33	ff 15 00 00 00
	00		 call	 DWORD PTR __imp__Sleep@4
  00f39	3b f4		 cmp	 esi, esp
  00f3b	e8 00 00 00 00	 call	 __RTC_CheckEsp

; 753  : 		NoDrawCnt = 1;

  00f40	c7 05 00 00 00
	00 01 00 00 00	 mov	 DWORD PTR ?NoDrawCnt@@3HA, 1 ; NoDrawCnt

; 754  : #endif
; 755  : 
; 756  : #ifdef _STONDEBUG_		
; 757  : 		// ?????????????
; 758  : 		DrawFrameCnt++;
; 759  : #endif
; 760  : 		SurfaceDate++;

  00f4a	a1 00 00 00 00	 mov	 eax, DWORD PTR ?SurfaceDate@@3IA ; SurfaceDate
  00f4f	83 c0 01	 add	 eax, 1
  00f52	a3 00 00 00 00	 mov	 DWORD PTR ?SurfaceDate@@3IA, eax ; SurfaceDate

; 761  : 	}

  00f57	e9 2a f1 ff ff	 jmp	 $LN108@GameMain
$LN3@GameMain:

; 762  : 
; 763  : 	return FALSE;

  00f5c	33 c0		 xor	 eax, eax
$LN1@GameMain:

; 764  : }

  00f5e	52		 push	 edx
  00f5f	8b cd		 mov	 ecx, ebp
  00f61	50		 push	 eax
  00f62	8d 15 00 00 00
	00		 lea	 edx, DWORD PTR $LN116@GameMain
  00f68	e8 00 00 00 00	 call	 @_RTC_CheckStackVars@8
  00f6d	58		 pop	 eax
  00f6e	5a		 pop	 edx
  00f6f	8b 4d f4	 mov	 ecx, DWORD PTR __$EHRec$[ebp]
  00f72	64 89 0d 00 00
	00 00		 mov	 DWORD PTR fs:0, ecx
  00f79	59		 pop	 ecx
  00f7a	5f		 pop	 edi
  00f7b	5e		 pop	 esi
  00f7c	5b		 pop	 ebx
  00f7d	8b 4d f0	 mov	 ecx, DWORD PTR __$ArrayPad$[ebp]
  00f80	33 cd		 xor	 ecx, ebp
  00f82	e8 00 00 00 00	 call	 @__security_check_cookie@4
  00f87	81 c4 08 07 00
	00		 add	 esp, 1800		; 00000708H
  00f8d	3b ec		 cmp	 ebp, esp
  00f8f	e8 00 00 00 00	 call	 __RTC_CheckEsp
  00f94	8b e5		 mov	 esp, ebp
  00f96	5d		 pop	 ebp
  00f97	c3		 ret	 0
$LN116@GameMain:
  00f98	05 00 00 00	 DD	 5
  00f9c	00 00 00 00	 DD	 $LN115@GameMain
$LN115@GameMain:
  00fa0	cc ff ff ff	 DD	 -52			; ffffffccH
  00fa4	20 00 00 00	 DD	 32			; 00000020H
  00fa8	00 00 00 00	 DD	 $LN109@GameMain
  00fac	90 ff ff ff	 DD	 -112			; ffffff90H
  00fb0	04 00 00 00	 DD	 4
  00fb4	00 00 00 00	 DD	 $LN110@GameMain
  00fb8	84 ff ff ff	 DD	 -124			; ffffff84H
  00fbc	02 00 00 00	 DD	 2
  00fc0	00 00 00 00	 DD	 $LN111@GameMain
  00fc4	7c fb ff ff	 DD	 -1156			; fffffb7cH
  00fc8	00 04 00 00	 DD	 1024			; 00000400H
  00fcc	00 00 00 00	 DD	 $LN112@GameMain
  00fd0	70 fb ff ff	 DD	 -1168			; fffffb70H
  00fd4	04 00 00 00	 DD	 4
  00fd8	00 00 00 00	 DD	 $LN113@GameMain
$LN113@GameMain:
  00fdc	6f		 DB	 111			; 0000006fH
  00fdd	6c		 DB	 108			; 0000006cH
  00fde	64		 DB	 100			; 00000064H
  00fdf	70		 DB	 112			; 00000070H
  00fe0	72		 DB	 114			; 00000072H
  00fe1	6f		 DB	 111			; 0000006fH
  00fe2	74		 DB	 116			; 00000074H
  00fe3	65		 DB	 101			; 00000065H
  00fe4	63		 DB	 99			; 00000063H
  00fe5	74		 DB	 116			; 00000074H
  00fe6	00		 DB	 0
$LN112@GameMain:
  00fe7	6d		 DB	 109			; 0000006dH
  00fe8	00		 DB	 0
$LN111@GameMain:
  00fe9	64		 DB	 100			; 00000064H
  00fea	69		 DB	 105			; 00000069H
  00feb	72		 DB	 114			; 00000072H
  00fec	32		 DB	 50			; 00000032H
  00fed	00		 DB	 0
$LN110@GameMain:
  00fee	74		 DB	 116			; 00000074H
  00fef	00		 DB	 0
$LN109@GameMain:
  00ff0	73		 DB	 115			; 00000073H
  00ff1	7a		 DB	 122			; 0000007aH
  00ff2	00		 DB	 0
_TEXT	ENDS
;	COMDAT text$x
text$x	SEGMENT
__unwindfunclet$?GameMain@@YAHXZ$0:
  00000	68 00 00 00 00	 push	 OFFSET ?$TSS0@?6??GameMain@@YAHXZ@4HA
  00005	e8 00 00 00 00	 call	 __Init_thread_abort
  0000a	59		 pop	 ecx
  0000b	c3		 ret	 0
__unwindfunclet$?GameMain@@YAHXZ$1:
  0000c	68 00 00 00 00	 push	 OFFSET ?$TSS1@?6??GameMain@@YAHXZ@4HA
  00011	e8 00 00 00 00	 call	 __Init_thread_abort
  00016	59		 pop	 ecx
  00017	c3		 ret	 0
__unwindfunclet$?GameMain@@YAHXZ$2:
  00018	68 00 00 00 00	 push	 OFFSET ?$TSS2@?LD@??GameMain@@YAHXZ@4HA
  0001d	e8 00 00 00 00	 call	 __Init_thread_abort
  00022	59		 pop	 ecx
  00023	c3		 ret	 0
__unwindfunclet$?GameMain@@YAHXZ$3:
  00024	68 00 00 00 00	 push	 OFFSET ?$TSS3@?LP@??GameMain@@YAHXZ@4HA
  00029	e8 00 00 00 00	 call	 __Init_thread_abort
  0002e	59		 pop	 ecx
  0002f	c3		 ret	 0
__ehhandler$?GameMain@@YAHXZ:
  00030	8b 54 24 08	 mov	 edx, DWORD PTR [esp+8]
  00034	8d 42 0c	 lea	 eax, DWORD PTR [edx+12]
  00037	8b 8a f4 f8 ff
	ff		 mov	 ecx, DWORD PTR [edx-1804]
  0003d	33 c8		 xor	 ecx, eax
  0003f	e8 00 00 00 00	 call	 @__security_check_cookie@4
  00044	8b 4a fc	 mov	 ecx, DWORD PTR [edx-4]
  00047	33 c8		 xor	 ecx, eax
  00049	e8 00 00 00 00	 call	 @__security_check_cookie@4
  0004e	b8 00 00 00 00	 mov	 eax, OFFSET __ehfuncinfo$?GameMain@@YAHXZ
  00053	e9 00 00 00 00	 jmp	 ___CxxFrameHandler3
text$x	ENDS
?GameMain@@YAHXZ ENDP					; GameMain
; Function compile flags: /Odtp /RTCsu /ZI
; File c:\program files (x86)\windows kits\10\include\10.0.10240.0\ucrt\stdio.h
;	COMDAT _sprintf
_TEXT	SEGMENT
__ArgList$ = -20					; size = 4
__Result$ = -8						; size = 4
__Buffer$ = 8						; size = 4
__Format$ = 12						; size = 4
_sprintf PROC						; COMDAT

; 1776 : {

  00000	55		 push	 ebp
  00001	8b ec		 mov	 ebp, esp
  00003	81 ec d8 00 00
	00		 sub	 esp, 216		; 000000d8H
  00009	53		 push	 ebx
  0000a	56		 push	 esi
  0000b	57		 push	 edi
  0000c	8d bd 28 ff ff
	ff		 lea	 edi, DWORD PTR [ebp-216]
  00012	b9 36 00 00 00	 mov	 ecx, 54			; 00000036H
  00017	b8 cc cc cc cc	 mov	 eax, -858993460		; ccccccccH
  0001c	f3 ab		 rep stosd

; 1777 :     int _Result;
; 1778 :     va_list _ArgList;
; 1779 :     __crt_va_start(_ArgList, _Format);

  0001e	e8 00 00 00 00	 call	 ??$__vcrt_va_start_verify_argument_type@QBD@@YAXXZ ; __vcrt_va_start_verify_argument_type<char const * const>
  00023	8d 45 10	 lea	 eax, DWORD PTR __Format$[ebp+4]
  00026	89 45 ec	 mov	 DWORD PTR __ArgList$[ebp], eax

; 1780 : 
; 1781 :     #pragma warning(push)
; 1782 :     #pragma warning(disable: 4996) // Deprecation
; 1783 :     _Result = _vsprintf_l(_Buffer, _Format, NULL, _ArgList);

  00029	8b 45 ec	 mov	 eax, DWORD PTR __ArgList$[ebp]
  0002c	50		 push	 eax
  0002d	6a 00		 push	 0
  0002f	8b 4d 0c	 mov	 ecx, DWORD PTR __Format$[ebp]
  00032	51		 push	 ecx
  00033	8b 55 08	 mov	 edx, DWORD PTR __Buffer$[ebp]
  00036	52		 push	 edx
  00037	e8 00 00 00 00	 call	 __vsprintf_l
  0003c	83 c4 10	 add	 esp, 16			; 00000010H
  0003f	89 45 f8	 mov	 DWORD PTR __Result$[ebp], eax

; 1784 :     #pragma warning(pop)
; 1785 : 
; 1786 :     __crt_va_end(_ArgList);

  00042	c7 45 ec 00 00
	00 00		 mov	 DWORD PTR __ArgList$[ebp], 0

; 1787 :     return _Result;

  00049	8b 45 f8	 mov	 eax, DWORD PTR __Result$[ebp]

; 1788 : }

  0004c	5f		 pop	 edi
  0004d	5e		 pop	 esi
  0004e	5b		 pop	 ebx
  0004f	81 c4 d8 00 00
	00		 add	 esp, 216		; 000000d8H
  00055	3b ec		 cmp	 ebp, esp
  00057	e8 00 00 00 00	 call	 __RTC_CheckEsp
  0005c	8b e5		 mov	 esp, ebp
  0005e	5d		 pop	 ebp
  0005f	c3		 ret	 0
_sprintf ENDP
_TEXT	ENDS
; Function compile flags: /Odtp /RTCsu /ZI
; File c:\program files (x86)\windows kits\10\include\10.0.10240.0\ucrt\stdio.h
;	COMDAT _vsprintf_s
_TEXT	SEGMENT
__Buffer$ = 8						; size = 4
__BufferCount$ = 12					; size = 4
__Format$ = 16						; size = 4
__ArgList$ = 20						; size = 4
_vsprintf_s PROC					; COMDAT

; 1515 :     {

  00000	55		 push	 ebp
  00001	8b ec		 mov	 ebp, esp
  00003	81 ec c0 00 00
	00		 sub	 esp, 192		; 000000c0H
  00009	53		 push	 ebx
  0000a	56		 push	 esi
  0000b	57		 push	 edi
  0000c	8d bd 40 ff ff
	ff		 lea	 edi, DWORD PTR [ebp-192]
  00012	b9 30 00 00 00	 mov	 ecx, 48			; 00000030H
  00017	b8 cc cc cc cc	 mov	 eax, -858993460		; ccccccccH
  0001c	f3 ab		 rep stosd

; 1516 :         return _vsprintf_s_l(_Buffer, _BufferCount, _Format, NULL, _ArgList);

  0001e	8b 45 14	 mov	 eax, DWORD PTR __ArgList$[ebp]
  00021	50		 push	 eax
  00022	6a 00		 push	 0
  00024	8b 4d 10	 mov	 ecx, DWORD PTR __Format$[ebp]
  00027	51		 push	 ecx
  00028	8b 55 0c	 mov	 edx, DWORD PTR __BufferCount$[ebp]
  0002b	52		 push	 edx
  0002c	8b 45 08	 mov	 eax, DWORD PTR __Buffer$[ebp]
  0002f	50		 push	 eax
  00030	e8 00 00 00 00	 call	 __vsprintf_s_l
  00035	83 c4 14	 add	 esp, 20			; 00000014H

; 1517 :     }

  00038	5f		 pop	 edi
  00039	5e		 pop	 esi
  0003a	5b		 pop	 ebx
  0003b	81 c4 c0 00 00
	00		 add	 esp, 192		; 000000c0H
  00041	3b ec		 cmp	 ebp, esp
  00043	e8 00 00 00 00	 call	 __RTC_CheckEsp
  00048	8b e5		 mov	 esp, ebp
  0004a	5d		 pop	 ebp
  0004b	c3		 ret	 0
_vsprintf_s ENDP
_TEXT	ENDS
; Function compile flags: /Odtp /RTCsu /ZI
; File c:\program files (x86)\windows kits\10\include\10.0.10240.0\ucrt\stdio.h
;	COMDAT __vsprintf_s_l
_TEXT	SEGMENT
tv73 = -208						; size = 4
__Result$ = -8						; size = 4
__Buffer$ = 8						; size = 4
__BufferCount$ = 12					; size = 4
__Format$ = 16						; size = 4
__Locale$ = 20						; size = 4
__ArgList$ = 24						; size = 4
__vsprintf_s_l PROC					; COMDAT

; 1493 : {

  00000	55		 push	 ebp
  00001	8b ec		 mov	 ebp, esp
  00003	81 ec d0 00 00
	00		 sub	 esp, 208		; 000000d0H
  00009	53		 push	 ebx
  0000a	56		 push	 esi
  0000b	57		 push	 edi
  0000c	8d bd 30 ff ff
	ff		 lea	 edi, DWORD PTR [ebp-208]
  00012	b9 34 00 00 00	 mov	 ecx, 52			; 00000034H
  00017	b8 cc cc cc cc	 mov	 eax, -858993460		; ccccccccH
  0001c	f3 ab		 rep stosd

; 1494 :     int const _Result = __stdio_common_vsprintf_s(

  0001e	8b f4		 mov	 esi, esp
  00020	8b 45 18	 mov	 eax, DWORD PTR __ArgList$[ebp]
  00023	50		 push	 eax
  00024	8b 4d 14	 mov	 ecx, DWORD PTR __Locale$[ebp]
  00027	51		 push	 ecx
  00028	8b 55 10	 mov	 edx, DWORD PTR __Format$[ebp]
  0002b	52		 push	 edx
  0002c	8b 45 0c	 mov	 eax, DWORD PTR __BufferCount$[ebp]
  0002f	50		 push	 eax
  00030	8b 4d 08	 mov	 ecx, DWORD PTR __Buffer$[ebp]
  00033	51		 push	 ecx
  00034	e8 00 00 00 00	 call	 ___local_stdio_printf_options
  00039	8b 50 04	 mov	 edx, DWORD PTR [eax+4]
  0003c	52		 push	 edx
  0003d	8b 00		 mov	 eax, DWORD PTR [eax]
  0003f	50		 push	 eax
  00040	ff 15 00 00 00
	00		 call	 DWORD PTR __imp____stdio_common_vsprintf_s
  00046	83 c4 1c	 add	 esp, 28			; 0000001cH
  00049	3b f4		 cmp	 esi, esp
  0004b	e8 00 00 00 00	 call	 __RTC_CheckEsp
  00050	89 45 f8	 mov	 DWORD PTR __Result$[ebp], eax

; 1495 :         _CRT_INTERNAL_LOCAL_PRINTF_OPTIONS,
; 1496 :         _Buffer, _BufferCount, _Format, _Locale, _ArgList);
; 1497 : 
; 1498 :     return _Result < 0 ? -1 : _Result;

  00053	83 7d f8 00	 cmp	 DWORD PTR __Result$[ebp], 0
  00057	7d 0c		 jge	 SHORT $LN3@vsprintf_s
  00059	c7 85 30 ff ff
	ff ff ff ff ff	 mov	 DWORD PTR tv73[ebp], -1
  00063	eb 09		 jmp	 SHORT $LN4@vsprintf_s
$LN3@vsprintf_s:
  00065	8b 45 f8	 mov	 eax, DWORD PTR __Result$[ebp]
  00068	89 85 30 ff ff
	ff		 mov	 DWORD PTR tv73[ebp], eax
$LN4@vsprintf_s:
  0006e	8b 85 30 ff ff
	ff		 mov	 eax, DWORD PTR tv73[ebp]

; 1499 : }

  00074	5f		 pop	 edi
  00075	5e		 pop	 esi
  00076	5b		 pop	 ebx
  00077	81 c4 d0 00 00
	00		 add	 esp, 208		; 000000d0H
  0007d	3b ec		 cmp	 ebp, esp
  0007f	e8 00 00 00 00	 call	 __RTC_CheckEsp
  00084	8b e5		 mov	 esp, ebp
  00086	5d		 pop	 ebp
  00087	c3		 ret	 0
__vsprintf_s_l ENDP
_TEXT	ENDS
; Function compile flags: /Odtp /RTCsu /ZI
; File c:\program files (x86)\windows kits\10\include\10.0.10240.0\ucrt\stdio.h
;	COMDAT __vsprintf_l
_TEXT	SEGMENT
__Buffer$ = 8						; size = 4
__Format$ = 12						; size = 4
__Locale$ = 16						; size = 4
__ArgList$ = 20						; size = 4
__vsprintf_l PROC					; COMDAT

; 1455 : {

  00000	55		 push	 ebp
  00001	8b ec		 mov	 ebp, esp
  00003	81 ec c0 00 00
	00		 sub	 esp, 192		; 000000c0H
  00009	53		 push	 ebx
  0000a	56		 push	 esi
  0000b	57		 push	 edi
  0000c	8d bd 40 ff ff
	ff		 lea	 edi, DWORD PTR [ebp-192]
  00012	b9 30 00 00 00	 mov	 ecx, 48			; 00000030H
  00017	b8 cc cc cc cc	 mov	 eax, -858993460		; ccccccccH
  0001c	f3 ab		 rep stosd

; 1456 :     #pragma warning(push)
; 1457 :     #pragma warning(disable: 4996) // Deprecation
; 1458 :     return _vsnprintf_l(_Buffer, (size_t)-1, _Format, _Locale, _ArgList);

  0001e	8b 45 14	 mov	 eax, DWORD PTR __ArgList$[ebp]
  00021	50		 push	 eax
  00022	8b 4d 10	 mov	 ecx, DWORD PTR __Locale$[ebp]
  00025	51		 push	 ecx
  00026	8b 55 0c	 mov	 edx, DWORD PTR __Format$[ebp]
  00029	52		 push	 edx
  0002a	6a ff		 push	 -1
  0002c	8b 45 08	 mov	 eax, DWORD PTR __Buffer$[ebp]
  0002f	50		 push	 eax
  00030	e8 00 00 00 00	 call	 __vsnprintf_l
  00035	83 c4 14	 add	 esp, 20			; 00000014H

; 1459 :     #pragma warning(pop)
; 1460 : }

  00038	5f		 pop	 edi
  00039	5e		 pop	 esi
  0003a	5b		 pop	 ebx
  0003b	81 c4 c0 00 00
	00		 add	 esp, 192		; 000000c0H
  00041	3b ec		 cmp	 ebp, esp
  00043	e8 00 00 00 00	 call	 __RTC_CheckEsp
  00048	8b e5		 mov	 esp, ebp
  0004a	5d		 pop	 ebp
  0004b	c3		 ret	 0
__vsprintf_l ENDP
_TEXT	ENDS
; Function compile flags: /Odtp /RTCsu /ZI
; File c:\program files (x86)\windows kits\10\include\10.0.10240.0\ucrt\stdio.h
;	COMDAT __vsnprintf_l
_TEXT	SEGMENT
tv74 = -208						; size = 4
__Result$ = -8						; size = 4
__Buffer$ = 8						; size = 4
__BufferCount$ = 12					; size = 4
__Format$ = 16						; size = 4
__Locale$ = 20						; size = 4
__ArgList$ = 24						; size = 4
__vsnprintf_l PROC					; COMDAT

; 1385 : {

  00000	55		 push	 ebp
  00001	8b ec		 mov	 ebp, esp
  00003	81 ec d0 00 00
	00		 sub	 esp, 208		; 000000d0H
  00009	53		 push	 ebx
  0000a	56		 push	 esi
  0000b	57		 push	 edi
  0000c	8d bd 30 ff ff
	ff		 lea	 edi, DWORD PTR [ebp-208]
  00012	b9 34 00 00 00	 mov	 ecx, 52			; 00000034H
  00017	b8 cc cc cc cc	 mov	 eax, -858993460		; ccccccccH
  0001c	f3 ab		 rep stosd

; 1386 :     int const _Result = __stdio_common_vsprintf(

  0001e	8b f4		 mov	 esi, esp
  00020	8b 45 18	 mov	 eax, DWORD PTR __ArgList$[ebp]
  00023	50		 push	 eax
  00024	8b 4d 14	 mov	 ecx, DWORD PTR __Locale$[ebp]
  00027	51		 push	 ecx
  00028	8b 55 10	 mov	 edx, DWORD PTR __Format$[ebp]
  0002b	52		 push	 edx
  0002c	8b 45 0c	 mov	 eax, DWORD PTR __BufferCount$[ebp]
  0002f	50		 push	 eax
  00030	8b 4d 08	 mov	 ecx, DWORD PTR __Buffer$[ebp]
  00033	51		 push	 ecx
  00034	e8 00 00 00 00	 call	 ___local_stdio_printf_options
  00039	8b 10		 mov	 edx, DWORD PTR [eax]
  0003b	83 ca 01	 or	 edx, 1
  0003e	8b 40 04	 mov	 eax, DWORD PTR [eax+4]
  00041	50		 push	 eax
  00042	52		 push	 edx
  00043	ff 15 00 00 00
	00		 call	 DWORD PTR __imp____stdio_common_vsprintf
  00049	83 c4 1c	 add	 esp, 28			; 0000001cH
  0004c	3b f4		 cmp	 esi, esp
  0004e	e8 00 00 00 00	 call	 __RTC_CheckEsp
  00053	89 45 f8	 mov	 DWORD PTR __Result$[ebp], eax

; 1387 :         _CRT_INTERNAL_LOCAL_PRINTF_OPTIONS | _CRT_INTERNAL_PRINTF_LEGACY_VSPRINTF_NULL_TERMINATION,
; 1388 :         _Buffer, _BufferCount, _Format, _Locale, _ArgList);
; 1389 : 
; 1390 :     return _Result < 0 ? -1 : _Result;

  00056	83 7d f8 00	 cmp	 DWORD PTR __Result$[ebp], 0
  0005a	7d 0c		 jge	 SHORT $LN3@vsnprintf_
  0005c	c7 85 30 ff ff
	ff ff ff ff ff	 mov	 DWORD PTR tv74[ebp], -1
  00066	eb 09		 jmp	 SHORT $LN4@vsnprintf_
$LN3@vsnprintf_:
  00068	8b 45 f8	 mov	 eax, DWORD PTR __Result$[ebp]
  0006b	89 85 30 ff ff
	ff		 mov	 DWORD PTR tv74[ebp], eax
$LN4@vsnprintf_:
  00071	8b 85 30 ff ff
	ff		 mov	 eax, DWORD PTR tv74[ebp]

; 1391 : }

  00077	5f		 pop	 edi
  00078	5e		 pop	 esi
  00079	5b		 pop	 ebx
  0007a	81 c4 d0 00 00
	00		 add	 esp, 208		; 000000d0H
  00080	3b ec		 cmp	 ebp, esp
  00082	e8 00 00 00 00	 call	 __RTC_CheckEsp
  00087	8b e5		 mov	 esp, ebp
  00089	5d		 pop	 ebp
  0008a	c3		 ret	 0
__vsnprintf_l ENDP
_TEXT	ENDS
; Function compile flags: /Odtp /RTCsu /ZI
; File c:\program files (x86)\microsoft visual studio 14.0\vc\include\vadefs.h
;	COMDAT ??$__vcrt_va_start_verify_argument_type@QBD@@YAXXZ
_TEXT	SEGMENT
??$__vcrt_va_start_verify_argument_type@QBD@@YAXXZ PROC	; __vcrt_va_start_verify_argument_type<char const * const>, COMDAT

; 144  :         {

  00000	55		 push	 ebp
  00001	8b ec		 mov	 ebp, esp
  00003	81 ec c0 00 00
	00		 sub	 esp, 192		; 000000c0H
  00009	53		 push	 ebx
  0000a	56		 push	 esi
  0000b	57		 push	 edi
  0000c	8d bd 40 ff ff
	ff		 lea	 edi, DWORD PTR [ebp-192]
  00012	b9 30 00 00 00	 mov	 ecx, 48			; 00000030H
  00017	b8 cc cc cc cc	 mov	 eax, -858993460		; ccccccccH
  0001c	f3 ab		 rep stosd

; 145  :             static_assert(!__vcrt_va_list_is_reference<_Ty>::__the_value, "va_start argument must not have reference type and must not be parenthesized");
; 146  :         }

  0001e	5f		 pop	 edi
  0001f	5e		 pop	 esi
  00020	5b		 pop	 ebx
  00021	8b e5		 mov	 esp, ebp
  00023	5d		 pop	 ebp
  00024	c3		 ret	 0
??$__vcrt_va_start_verify_argument_type@QBD@@YAXXZ ENDP	; __vcrt_va_start_verify_argument_type<char const * const>
_TEXT	ENDS
; Function compile flags: /Odtp /RTCsu /ZI
; File c:\program files (x86)\windows kits\10\include\10.0.10240.0\ucrt\corecrt_stdio_config.h
;	COMDAT ___local_stdio_printf_options
_TEXT	SEGMENT
___local_stdio_printf_options PROC			; COMDAT

; 73   : {

  00000	55		 push	 ebp
  00001	8b ec		 mov	 ebp, esp
  00003	81 ec c0 00 00
	00		 sub	 esp, 192		; 000000c0H
  00009	53		 push	 ebx
  0000a	56		 push	 esi
  0000b	57		 push	 edi
  0000c	8d bd 40 ff ff
	ff		 lea	 edi, DWORD PTR [ebp-192]
  00012	b9 30 00 00 00	 mov	 ecx, 48			; 00000030H
  00017	b8 cc cc cc cc	 mov	 eax, -858993460		; ccccccccH
  0001c	f3 ab		 rep stosd

; 74   :     static unsigned __int64 _OptionsStorage;
; 75   :     return &_OptionsStorage;

  0001e	b8 00 00 00 00	 mov	 eax, OFFSET ?_OptionsStorage@?1??__local_stdio_printf_options@@9@4_KA ; `__local_stdio_printf_options'::`2'::_OptionsStorage

; 76   : }

  00023	5f		 pop	 edi
  00024	5e		 pop	 esi
  00025	5b		 pop	 ebx
  00026	8b e5		 mov	 esp, ebp
  00028	5d		 pop	 ebp
  00029	c3		 ret	 0
___local_stdio_printf_options ENDP
_TEXT	ENDS
END
