; Listing generated by Microsoft (R) Optimizing Compiler Version 19.00.24215.1 

	TITLE	C:\Users\Administrator\Desktop\????? ??\????? ??\Client Source Code\system\Gemini.cpp
	.686P
	.XMM
	include listing.inc
	.model	flat

INCLUDELIB MSVCRTD
INCLUDELIB OLDNAMES

PUBLIC	?DELTA_TBL@@3PAFA				; DELTA_TBL
_DATA	SEGMENT
?DELTA_TBL@@3PAFA DW 00H				; DELTA_TBL
	DW	0ffc0H
	DW	0cH
	DW	0ffc2H
	DW	018H
	DW	0ffc5H
	DW	023H
	DW	0ffcbH
	DW	02dH
	DW	0ffd3H
	DW	035H
	DW	0ffddH
	DW	03bH
	DW	0ffe8H
	DW	03eH
	DW	0fff4H
	DW	040H
	DW	00H
	DW	03eH
	DW	0cH
	DW	03bH
	DW	018H
	DW	035H
	DW	023H
	DW	02dH
	DW	02dH
	DW	023H
	DW	035H
	DW	018H
	DW	03bH
	DW	0cH
	DW	03eH
	DW	00H
	DW	040H
	DW	0fff4H
	DW	03eH
	DW	0ffe8H
	DW	03bH
	DW	0ffddH
	DW	035H
	DW	0ffd3H
	DW	02dH
	DW	0ffcbH
	DW	023H
	DW	0ffc5H
	DW	018H
	DW	0ffc2H
	DW	0cH
	DW	0ffc0H
	DW	00H
	DW	0ffc2H
	DW	0fff4H
	DW	0ffc5H
	DW	0ffe8H
	DW	0ffcbH
	DW	0ffddH
	DW	0ffd3H
	DW	0ffd3H
	DW	0ffddH
	DW	0ffcbH
	DW	0ffe8H
	DW	0ffc5H
	DW	0fff4H
	DW	0ffc2H
	DW	00H
	DW	0ff80H
	DW	018H
	DW	0ff83H
	DW	030H
	DW	0ff8aH
	DW	047H
	DW	0ff96H
	DW	05aH
	DW	0ffa6H
	DW	06aH
	DW	0ffb9H
	DW	076H
	DW	0ffd0H
	DW	07dH
	DW	0ffe8H
	DW	080H
	DW	00H
	DW	07dH
	DW	018H
	DW	076H
	DW	030H
	DW	06aH
	DW	047H
	DW	05aH
	DW	05aH
	DW	047H
	DW	06aH
	DW	030H
	DW	076H
	DW	018H
	DW	07dH
	DW	00H
	DW	080H
	DW	0ffe8H
	DW	07dH
	DW	0ffd0H
	DW	076H
	DW	0ffb9H
	DW	06aH
	DW	0ffa6H
	DW	05aH
	DW	0ff96H
	DW	047H
	DW	0ff8aH
	DW	030H
	DW	0ff83H
	DW	018H
	DW	0ff80H
	DW	00H
	DW	0ff83H
	DW	0ffe8H
	DW	0ff8aH
	DW	0ffd0H
	DW	0ff96H
	DW	0ffb9H
	DW	0ffa6H
	DW	0ffa6H
	DW	0ffb9H
	DW	0ff96H
	DW	0ffd0H
	DW	0ff8aH
	DW	0ffe8H
	DW	0ff83H
	DW	00H
	DW	0ff40H
	DW	025H
	DW	0ff44H
	DW	049H
	DW	0ff4fH
	DW	06aH
	DW	0ff61H
	DW	087H
	DW	0ff79H
	DW	09fH
	DW	0ff96H
	DW	0b1H
	DW	0ffb7H
	DW	0bcH
	DW	0ffdbH
	DW	0c0H
	DW	00H
	DW	0bcH
	DW	025H
	DW	0b1H
	DW	049H
	DW	09fH
	DW	06aH
	DW	087H
	DW	087H
	DW	06aH
	DW	09fH
	DW	049H
	DW	0b1H
	DW	025H
	DW	0bcH
	DW	00H
	DW	0c0H
	DW	0ffdbH
	DW	0bcH
	DW	0ffb7H
	DW	0b1H
	DW	0ff96H
	DW	09fH
	DW	0ff79H
	DW	087H
	DW	0ff61H
	DW	06aH
	DW	0ff4fH
	DW	049H
	DW	0ff44H
	DW	025H
	DW	0ff40H
	DW	00H
	DW	0ff44H
	DW	0ffdbH
	DW	0ff4fH
	DW	0ffb7H
	DW	0ff61H
	DW	0ff96H
	DW	0ff79H
	DW	0ff79H
	DW	0ff96H
	DW	0ff61H
	DW	0ffb7H
	DW	0ff4fH
	DW	0ffdbH
	DW	0ff44H
	DW	00H
	DW	0ff00H
	DW	031H
	DW	0ff05H
	DW	061H
	DW	0ff14H
	DW	08eH
	DW	0ff2cH
	DW	0b5H
	DW	0ff4bH
	DW	0d4H
	DW	0ff72H
	DW	0ecH
	DW	0ff9fH
	DW	0fbH
	DW	0ffcfH
	DW	0100H
	DW	00H
	DW	0fbH
	DW	031H
	DW	0ecH
	DW	061H
	DW	0d4H
	DW	08eH
	DW	0b5H
	DW	0b5H
	DW	08eH
	DW	0d4H
	DW	061H
	DW	0ecH
	DW	031H
	DW	0fbH
	DW	00H
	DW	0100H
	DW	0ffcfH
	DW	0fbH
	DW	0ff9fH
	DW	0ecH
	DW	0ff72H
	DW	0d4H
	DW	0ff4bH
	DW	0b5H
	DW	0ff2cH
	DW	08eH
	DW	0ff14H
	DW	061H
	DW	0ff05H
	DW	031H
	DW	0ff00H
	DW	00H
	DW	0ff05H
	DW	0ffcfH
	DW	0ff14H
	DW	0ff9fH
	DW	0ff2cH
	DW	0ff72H
	DW	0ff4bH
	DW	0ff4bH
	DW	0ff72H
	DW	0ff2cH
	DW	0ff9fH
	DW	0ff14H
	DW	0ffcfH
	DW	0ff05H
	DW	00H
	DW	0fec0H
	DW	03eH
	DW	0fec7H
	DW	07aH
	DW	0fed9H
	DW	0b1H
	DW	0fef6H
	DW	0e2H
	DW	0ff1eH
	DW	010aH
	DW	0ff4fH
	DW	0127H
	DW	0ff86H
	DW	0139H
	DW	0ffc2H
	DW	0140H
	DW	00H
	DW	0139H
	DW	03eH
	DW	0127H
	DW	07aH
	DW	010aH
	DW	0b1H
	DW	0e2H
	DW	0e2H
	DW	0b1H
	DW	010aH
	DW	07aH
	DW	0127H
	DW	03eH
	DW	0139H
	DW	00H
	DW	0140H
	DW	0ffc2H
	DW	0139H
	DW	0ff86H
	DW	0127H
	DW	0ff4fH
	DW	010aH
	DW	0ff1eH
	DW	0e2H
	DW	0fef6H
	DW	0b1H
	DW	0fed9H
	DW	07aH
	DW	0fec7H
	DW	03eH
	DW	0fec0H
	DW	00H
	DW	0fec7H
	DW	0ffc2H
	DW	0fed9H
	DW	0ff86H
	DW	0fef6H
	DW	0ff4fH
	DW	0ff1eH
	DW	0ff1eH
	DW	0ff4fH
	DW	0fef6H
	DW	0ff86H
	DW	0fed9H
	DW	0ffc2H
	DW	0fec7H
	DW	00H
	DW	0fe80H
	DW	04aH
	DW	0fe88H
	DW	092H
	DW	0fe9eH
	DW	0d5H
	DW	0fec1H
	DW	010fH
	DW	0fef1H
	DW	013fH
	DW	0ff2bH
	DW	0162H
	DW	0ff6eH
	DW	0178H
	DW	0ffb6H
	DW	0180H
	DW	00H
	DW	0178H
	DW	04aH
	DW	0162H
	DW	092H
	DW	013fH
	DW	0d5H
	DW	010fH
	DW	010fH
	DW	0d5H
	DW	013fH
	DW	092H
	DW	0162H
	DW	04aH
	DW	0178H
	DW	00H
	DW	0180H
	DW	0ffb6H
	DW	0178H
	DW	0ff6eH
	DW	0162H
	DW	0ff2bH
	DW	013fH
	DW	0fef1H
	DW	010fH
	DW	0fec1H
	DW	0d5H
	DW	0fe9eH
	DW	092H
	DW	0fe88H
	DW	04aH
	DW	0fe80H
	DW	00H
	DW	0fe88H
	DW	0ffb6H
	DW	0fe9eH
	DW	0ff6eH
	DW	0fec1H
	DW	0ff2bH
	DW	0fef1H
	DW	0fef1H
	DW	0ff2bH
	DW	0fec1H
	DW	0ff6eH
	DW	0fe9eH
	DW	0ffb6H
	DW	0fe88H
	DW	00H
	DW	0fe40H
	DW	057H
	DW	0fe49H
	DW	0abH
	DW	0fe63H
	DW	0f8H
	DW	0fe8cH
	DW	013cH
	DW	0fec4H
	DW	0174H
	DW	0ff08H
	DW	019dH
	DW	0ff55H
	DW	01b7H
	DW	0ffa9H
	DW	01c0H
	DW	00H
	DW	01b7H
	DW	057H
	DW	019dH
	DW	0abH
	DW	0174H
	DW	0f8H
	DW	013cH
	DW	013cH
	DW	0f8H
	DW	0174H
	DW	0abH
	DW	019dH
	DW	057H
	DW	01b7H
	DW	00H
	DW	01c0H
	DW	0ffa9H
	DW	01b7H
	DW	0ff55H
	DW	019dH
	DW	0ff08H
	DW	0174H
	DW	0fec4H
	DW	013cH
	DW	0fe8cH
	DW	0f8H
	DW	0fe63H
	DW	0abH
	DW	0fe49H
	DW	057H
	DW	0fe40H
	DW	00H
	DW	0fe49H
	DW	0ffa9H
	DW	0fe63H
	DW	0ff55H
	DW	0fe8cH
	DW	0ff08H
	DW	0fec4H
	DW	0fec4H
	DW	0ff08H
	DW	0fe8cH
	DW	0ff55H
	DW	0fe63H
	DW	0ffa9H
	DW	0fe49H
	DW	00H
	DW	0fe00H
	DW	063H
	DW	0fe0aH
	DW	0c3H
	DW	0fe27H
	DW	011cH
	DW	0fe57H
	DW	016aH
	DW	0fe96H
	DW	01a9H
	DW	0fee4H
	DW	01d9H
	DW	0ff3dH
	DW	01f6H
	DW	0ff9dH
	DW	0200H
	DW	00H
	DW	01f6H
	DW	063H
	DW	01d9H
	DW	0c3H
	DW	01a9H
	DW	011cH
	DW	016aH
	DW	016aH
	DW	011cH
	DW	01a9H
	DW	0c3H
	DW	01d9H
	DW	063H
	DW	01f6H
	DW	00H
	DW	0200H
	DW	0ff9dH
	DW	01f6H
	DW	0ff3dH
	DW	01d9H
	DW	0fee4H
	DW	01a9H
	DW	0fe96H
	DW	016aH
	DW	0fe57H
	DW	011cH
	DW	0fe27H
	DW	0c3H
	DW	0fe0aH
	DW	063H
	DW	0fe00H
	DW	00H
	DW	0fe0aH
	DW	0ff9dH
	DW	0fe27H
	DW	0ff3dH
	DW	0fe57H
	DW	0fee4H
	DW	0fe96H
	DW	0fe96H
	DW	0fee4H
	DW	0fe57H
	DW	0ff3dH
	DW	0fe27H
	DW	0ff9dH
	DW	0fe0aH
	DW	00H
	DW	0fdc0H
	DW	070H
	DW	0fdccH
	DW	0dcH
	DW	0fdecH
	DW	0140H
	DW	0fe22H
	DW	0197H
	DW	0fe69H
	DW	01deH
	DW	0fec0H
	DW	0214H
	DW	0ff24H
	DW	0234H
	DW	0ff90H
	DW	0240H
	DW	00H
	DW	0234H
	DW	070H
	DW	0214H
	DW	0dcH
	DW	01deH
	DW	0140H
	DW	0197H
	DW	0197H
	DW	0140H
	DW	01deH
	DW	0dcH
	DW	0214H
	DW	070H
	DW	0234H
	DW	00H
	DW	0240H
	DW	0ff90H
	DW	0234H
	DW	0ff24H
	DW	0214H
	DW	0fec0H
	DW	01deH
	DW	0fe69H
	DW	0197H
	DW	0fe22H
	DW	0140H
	DW	0fdecH
	DW	0dcH
	DW	0fdccH
	DW	070H
	DW	0fdc0H
	DW	00H
	DW	0fdccH
	DW	0ff90H
	DW	0fdecH
	DW	0ff24H
	DW	0fe22H
	DW	0fec0H
	DW	0fe69H
	DW	0fe69H
	DW	0fec0H
	DW	0fe22H
	DW	0ff24H
	DW	0fdecH
	DW	0ff90H
	DW	0fdccH
	DW	00H
	DW	0fd80H
	DW	07cH
	DW	0fd8dH
	DW	0f4H
	DW	0fdb1H
	DW	0163H
	DW	0fdecH
	DW	01c4H
	DW	0fe3cH
	DW	0214H
	DW	0fe9dH
	DW	024fH
	DW	0ff0cH
	DW	0273H
	DW	0ff84H
	DW	0280H
	DW	00H
	DW	0273H
	DW	07cH
	DW	024fH
	DW	0f4H
	DW	0214H
	DW	0163H
	DW	01c4H
	DW	01c4H
	DW	0163H
	DW	0214H
	DW	0f4H
	DW	024fH
	DW	07cH
	DW	0273H
	DW	00H
	DW	0280H
	DW	0ff84H
	DW	0273H
	DW	0ff0cH
	DW	024fH
	DW	0fe9dH
	DW	0214H
	DW	0fe3cH
	DW	01c4H
	DW	0fdecH
	DW	0163H
	DW	0fdb1H
	DW	0f4H
	DW	0fd8dH
	DW	07cH
	DW	0fd80H
	DW	00H
	DW	0fd8dH
	DW	0ff84H
	DW	0fdb1H
	DW	0ff0cH
	DW	0fdecH
	DW	0fe9dH
	DW	0fe3cH
	DW	0fe3cH
	DW	0fe9dH
	DW	0fdecH
	DW	0ff0cH
	DW	0fdb1H
	DW	0ff84H
	DW	0fd8dH
	DW	00H
	DW	0fd40H
	DW	089H
	DW	0fd4eH
	DW	010dH
	DW	0fd76H
	DW	0187H
	DW	0fdb7H
	DW	01f1H
	DW	0fe0fH
	DW	0249H
	DW	0fe79H
	DW	028aH
	DW	0fef3H
	DW	02b2H
	DW	0ff77H
	DW	02c0H
	DW	00H
	DW	02b2H
	DW	089H
	DW	028aH
	DW	010dH
	DW	0249H
	DW	0187H
	DW	01f1H
	DW	01f1H
	DW	0187H
	DW	0249H
	DW	010dH
	DW	028aH
	DW	089H
	DW	02b2H
	DW	00H
	DW	02c0H
	DW	0ff77H
	DW	02b2H
	DW	0fef3H
	DW	028aH
	DW	0fe79H
	DW	0249H
	DW	0fe0fH
	DW	01f1H
	DW	0fdb7H
	DW	0187H
	DW	0fd76H
	DW	010dH
	DW	0fd4eH
	DW	089H
	DW	0fd40H
	DW	00H
	DW	0fd4eH
	DW	0ff77H
	DW	0fd76H
	DW	0fef3H
	DW	0fdb7H
	DW	0fe79H
	DW	0fe0fH
	DW	0fe0fH
	DW	0fe79H
	DW	0fdb7H
	DW	0fef3H
	DW	0fd76H
	DW	0ff77H
	DW	0fd4eH
	DW	00H
	DW	0fd00H
	DW	095H
	DW	0fd0fH
	DW	0125H
	DW	0fd3bH
	DW	01aaH
	DW	0fd82H
	DW	021fH
	DW	0fde1H
	DW	027eH
	DW	0fe56H
	DW	02c5H
	DW	0fedbH
	DW	02f1H
	DW	0ff6bH
	DW	0300H
	DW	00H
	DW	02f1H
	DW	095H
	DW	02c5H
	DW	0125H
	DW	027eH
	DW	01aaH
	DW	021fH
	DW	021fH
	DW	01aaH
	DW	027eH
	DW	0125H
	DW	02c5H
	DW	095H
	DW	02f1H
	DW	00H
	DW	0300H
	DW	0ff6bH
	DW	02f1H
	DW	0fedbH
	DW	02c5H
	DW	0fe56H
	DW	027eH
	DW	0fde1H
	DW	021fH
	DW	0fd82H
	DW	01aaH
	DW	0fd3bH
	DW	0125H
	DW	0fd0fH
	DW	095H
	DW	0fd00H
	DW	00H
	DW	0fd0fH
	DW	0ff6bH
	DW	0fd3bH
	DW	0fedbH
	DW	0fd82H
	DW	0fe56H
	DW	0fde1H
	DW	0fde1H
	DW	0fe56H
	DW	0fd82H
	DW	0fedbH
	DW	0fd3bH
	DW	0ff6bH
	DW	0fd0fH
	DW	00H
	DW	0fcc0H
	DW	0a2H
	DW	0fcd0H
	DW	013eH
	DW	0fd00H
	DW	01ceH
	DW	0fd4dH
	DW	024cH
	DW	0fdb4H
	DW	02b3H
	DW	0fe32H
	DW	0300H
	DW	0fec2H
	DW	0330H
	DW	0ff5eH
	DW	0340H
	DW	00H
	DW	0330H
	DW	0a2H
	DW	0300H
	DW	013eH
	DW	02b3H
	DW	01ceH
	DW	024cH
	DW	024cH
	DW	01ceH
	DW	02b3H
	DW	013eH
	DW	0300H
	DW	0a2H
	DW	0330H
	DW	00H
	DW	0340H
	DW	0ff5eH
	DW	0330H
	DW	0fec2H
	DW	0300H
	DW	0fe32H
	DW	02b3H
	DW	0fdb4H
	DW	024cH
	DW	0fd4dH
	DW	01ceH
	DW	0fd00H
	DW	013eH
	DW	0fcd0H
	DW	0a2H
	DW	0fcc0H
	DW	00H
	DW	0fcd0H
	DW	0ff5eH
	DW	0fd00H
	DW	0fec2H
	DW	0fd4dH
	DW	0fe32H
	DW	0fdb4H
	DW	0fdb4H
	DW	0fe32H
	DW	0fd4dH
	DW	0fec2H
	DW	0fd00H
	DW	0ff5eH
	DW	0fcd0H
	DW	00H
	DW	0fc80H
	DW	0aeH
	DW	0fc92H
	DW	0156H
	DW	0fcc5H
	DW	01f1H
	DW	0fd18H
	DW	0279H
	DW	0fd87H
	DW	02e8H
	DW	0fe0fH
	DW	033bH
	DW	0feaaH
	DW	036eH
	DW	0ff52H
	DW	0380H
	DW	00H
	DW	036eH
	DW	0aeH
	DW	033bH
	DW	0156H
	DW	02e8H
	DW	01f1H
	DW	0279H
	DW	0279H
	DW	01f1H
	DW	02e8H
	DW	0156H
	DW	033bH
	DW	0aeH
	DW	036eH
	DW	00H
	DW	0380H
	DW	0ff52H
	DW	036eH
	DW	0feaaH
	DW	033bH
	DW	0fe0fH
	DW	02e8H
	DW	0fd87H
	DW	0279H
	DW	0fd18H
	DW	01f1H
	DW	0fcc5H
	DW	0156H
	DW	0fc92H
	DW	0aeH
	DW	0fc80H
	DW	00H
	DW	0fc92H
	DW	0ff52H
	DW	0fcc5H
	DW	0feaaH
	DW	0fd18H
	DW	0fe0fH
	DW	0fd87H
	DW	0fd87H
	DW	0fe0fH
	DW	0fd18H
	DW	0feaaH
	DW	0fcc5H
	DW	0ff52H
	DW	0fc92H
	DW	00H
	DW	0fc40H
	DW	0bbH
	DW	0fc53H
	DW	016fH
	DW	0fc8aH
	DW	0215H
	DW	0fce2H
	DW	02a6H
	DW	0fd5aH
	DW	031eH
	DW	0fdebH
	DW	0376H
	DW	0fe91H
	DW	03adH
	DW	0ff45H
	DW	03c0H
	DW	00H
	DW	03adH
	DW	0bbH
	DW	0376H
	DW	016fH
	DW	031eH
	DW	0215H
	DW	02a6H
	DW	02a6H
	DW	0215H
	DW	031eH
	DW	016fH
	DW	0376H
	DW	0bbH
	DW	03adH
	DW	00H
	DW	03c0H
	DW	0ff45H
	DW	03adH
	DW	0fe91H
	DW	0376H
	DW	0fdebH
	DW	031eH
	DW	0fd5aH
	DW	02a6H
	DW	0fce2H
	DW	0215H
	DW	0fc8aH
	DW	016fH
	DW	0fc53H
	DW	0bbH
	DW	0fc40H
	DW	00H
	DW	0fc53H
	DW	0ff45H
	DW	0fc8aH
	DW	0fe91H
	DW	0fce2H
	DW	0fdebH
	DW	0fd5aH
	DW	0fd5aH
	DW	0fdebH
	DW	0fce2H
	DW	0fe91H
	DW	0fc8aH
	DW	0ff45H
	DW	0fc53H
	DW	00H
	DW	0fc00H
	DW	0c7H
	DW	0fc14H
	DW	0187H
	DW	0fc4eH
	DW	0238H
	DW	0fcadH
	DW	02d4H
	DW	0fd2cH
	DW	0353H
	DW	0fdc8H
	DW	03b2H
	DW	0fe79H
	DW	03ecH
	DW	0ff39H
	DW	0400H
	DW	00H
	DW	03ecH
	DW	0c7H
	DW	03b2H
	DW	0187H
	DW	0353H
	DW	0238H
	DW	02d4H
	DW	02d4H
	DW	0238H
	DW	0353H
	DW	0187H
	DW	03b2H
	DW	0c7H
	DW	03ecH
	DW	00H
	DW	0400H
	DW	0ff39H
	DW	03ecH
	DW	0fe79H
	DW	03b2H
	DW	0fdc8H
	DW	0353H
	DW	0fd2cH
	DW	02d4H
	DW	0fcadH
	DW	0238H
	DW	0fc4eH
	DW	0187H
	DW	0fc14H
	DW	0c7H
	DW	0fc00H
	DW	00H
	DW	0fc14H
	DW	0ff39H
	DW	0fc4eH
	DW	0fe79H
	DW	0fcadH
	DW	0fdc8H
	DW	0fd2cH
	DW	0fd2cH
	DW	0fdc8H
	DW	0fcadH
	DW	0fe79H
	DW	0fc4eH
	DW	0ff39H
	DW	0fc14H
	DW	00H
	DW	0fbc0H
	DW	0d4H
	DW	0fbd5H
	DW	01a0H
	DW	0fc13H
	DW	025cH
	DW	0fc78H
	DW	0301H
	DW	0fcffH
	DW	0388H
	DW	0fda4H
	DW	03edH
	DW	0fe60H
	DW	042bH
	DW	0ff2cH
	DW	0440H
	DW	00H
	DW	042bH
	DW	0d4H
	DW	03edH
	DW	01a0H
	DW	0388H
	DW	025cH
	DW	0301H
	DW	0301H
	DW	025cH
	DW	0388H
	DW	01a0H
	DW	03edH
	DW	0d4H
	DW	042bH
	DW	00H
	DW	0440H
	DW	0ff2cH
	DW	042bH
	DW	0fe60H
	DW	03edH
	DW	0fda4H
	DW	0388H
	DW	0fcffH
	DW	0301H
	DW	0fc78H
	DW	025cH
	DW	0fc13H
	DW	01a0H
	DW	0fbd5H
	DW	0d4H
	DW	0fbc0H
	DW	00H
	DW	0fbd5H
	DW	0ff2cH
	DW	0fc13H
	DW	0fe60H
	DW	0fc78H
	DW	0fda4H
	DW	0fcffH
	DW	0fcffH
	DW	0fda4H
	DW	0fc78H
	DW	0fe60H
	DW	0fc13H
	DW	0ff2cH
	DW	0fbd5H
	DW	00H
	DW	0fb80H
	DW	0e0H
	DW	0fb97H
	DW	01b8H
	DW	0fbd8H
	DW	0280H
	DW	0fc43H
	DW	032eH
	DW	0fcd2H
	DW	03bdH
	DW	0fd80H
	DW	0428H
	DW	0fe48H
	DW	0469H
	DW	0ff20H
	DW	0480H
	DW	00H
	DW	0469H
	DW	0e0H
	DW	0428H
	DW	01b8H
	DW	03bdH
	DW	0280H
	DW	032eH
	DW	032eH
	DW	0280H
	DW	03bdH
	DW	01b8H
	DW	0428H
	DW	0e0H
	DW	0469H
	DW	00H
	DW	0480H
	DW	0ff20H
	DW	0469H
	DW	0fe48H
	DW	0428H
	DW	0fd80H
	DW	03bdH
	DW	0fcd2H
	DW	032eH
	DW	0fc43H
	DW	0280H
	DW	0fbd8H
	DW	01b8H
	DW	0fb97H
	DW	0e0H
	DW	0fb80H
	DW	00H
	DW	0fb97H
	DW	0ff20H
	DW	0fbd8H
	DW	0fe48H
	DW	0fc43H
	DW	0fd80H
	DW	0fcd2H
	DW	0fcd2H
	DW	0fd80H
	DW	0fc43H
	DW	0fe48H
	DW	0fbd8H
	DW	0ff20H
	DW	0fb97H
	DW	00H
	DW	0fb40H
	DW	0edH
	DW	0fb58H
	DW	01d1H
	DW	0fb9dH
	DW	02a3H
	DW	0fc0dH
	DW	035bH
	DW	0fca5H
	DW	03f3H
	DW	0fd5dH
	DW	0463H
	DW	0fe2fH
	DW	04a8H
	DW	0ff13H
	DW	04c0H
	DW	00H
	DW	04a8H
	DW	0edH
	DW	0463H
	DW	01d1H
	DW	03f3H
	DW	02a3H
	DW	035bH
	DW	035bH
	DW	02a3H
	DW	03f3H
	DW	01d1H
	DW	0463H
	DW	0edH
	DW	04a8H
	DW	00H
	DW	04c0H
	DW	0ff13H
	DW	04a8H
	DW	0fe2fH
	DW	0463H
	DW	0fd5dH
	DW	03f3H
	DW	0fca5H
	DW	035bH
	DW	0fc0dH
	DW	02a3H
	DW	0fb9dH
	DW	01d1H
	DW	0fb58H
	DW	0edH
	DW	0fb40H
	DW	00H
	DW	0fb58H
	DW	0ff13H
	DW	0fb9dH
	DW	0fe2fH
	DW	0fc0dH
	DW	0fd5dH
	DW	0fca5H
	DW	0fca5H
	DW	0fd5dH
	DW	0fc0dH
	DW	0fe2fH
	DW	0fb9dH
	DW	0ff13H
	DW	0fb58H
	DW	00H
	DW	0fb00H
	DW	0f9H
	DW	0fb19H
	DW	01e9H
	DW	0fb62H
	DW	02c7H
	DW	0fbd8H
	DW	0389H
	DW	0fc77H
	DW	0428H
	DW	0fd39H
	DW	049eH
	DW	0fe17H
	DW	04e7H
	DW	0ff07H
	DW	0500H
	DW	00H
	DW	04e7H
	DW	0f9H
	DW	049eH
	DW	01e9H
	DW	0428H
	DW	02c7H
	DW	0389H
	DW	0389H
	DW	02c7H
	DW	0428H
	DW	01e9H
	DW	049eH
	DW	0f9H
	DW	04e7H
	DW	00H
	DW	0500H
	DW	0ff07H
	DW	04e7H
	DW	0fe17H
	DW	049eH
	DW	0fd39H
	DW	0428H
	DW	0fc77H
	DW	0389H
	DW	0fbd8H
	DW	02c7H
	DW	0fb62H
	DW	01e9H
	DW	0fb19H
	DW	0f9H
	DW	0fb00H
	DW	00H
	DW	0fb19H
	DW	0ff07H
	DW	0fb62H
	DW	0fe17H
	DW	0fbd8H
	DW	0fd39H
	DW	0fc77H
	DW	0fc77H
	DW	0fd39H
	DW	0fbd8H
	DW	0fe17H
	DW	0fb62H
	DW	0ff07H
	DW	0fb19H
	DW	00H
	DW	0fac0H
	DW	0106H
	DW	0fadaH
	DW	0202H
	DW	0fb27H
	DW	02eaH
	DW	0fba3H
	DW	03b6H
	DW	0fc4aH
	DW	045dH
	DW	0fd16H
	DW	04d9H
	DW	0fdfeH
	DW	0526H
	DW	0fefaH
	DW	0540H
	DW	00H
	DW	0526H
	DW	0106H
	DW	04d9H
	DW	0202H
	DW	045dH
	DW	02eaH
	DW	03b6H
	DW	03b6H
	DW	02eaH
	DW	045dH
	DW	0202H
	DW	04d9H
	DW	0106H
	DW	0526H
	DW	00H
	DW	0540H
	DW	0fefaH
	DW	0526H
	DW	0fdfeH
	DW	04d9H
	DW	0fd16H
	DW	045dH
	DW	0fc4aH
	DW	03b6H
	DW	0fba3H
	DW	02eaH
	DW	0fb27H
	DW	0202H
	DW	0fadaH
	DW	0106H
	DW	0fac0H
	DW	00H
	DW	0fadaH
	DW	0fefaH
	DW	0fb27H
	DW	0fdfeH
	DW	0fba3H
	DW	0fd16H
	DW	0fc4aH
	DW	0fc4aH
	DW	0fd16H
	DW	0fba3H
	DW	0fdfeH
	DW	0fb27H
	DW	0fefaH
	DW	0fadaH
	DW	00H
	DW	0fa80H
	DW	0112H
	DW	0fa9cH
	DW	021aH
	DW	0faecH
	DW	030eH
	DW	0fb6eH
	DW	03e3H
	DW	0fc1dH
	DW	0492H
	DW	0fcf2H
	DW	0514H
	DW	0fde6H
	DW	0564H
	DW	0feeeH
	DW	0580H
	DW	00H
	DW	0564H
	DW	0112H
	DW	0514H
	DW	021aH
	DW	0492H
	DW	030eH
	DW	03e3H
	DW	03e3H
	DW	030eH
	DW	0492H
	DW	021aH
	DW	0514H
	DW	0112H
	DW	0564H
	DW	00H
	DW	0580H
	DW	0feeeH
	DW	0564H
	DW	0fde6H
	DW	0514H
	DW	0fcf2H
	DW	0492H
	DW	0fc1dH
	DW	03e3H
	DW	0fb6eH
	DW	030eH
	DW	0faecH
	DW	021aH
	DW	0fa9cH
	DW	0112H
	DW	0fa80H
	DW	00H
	DW	0fa9cH
	DW	0feeeH
	DW	0faecH
	DW	0fde6H
	DW	0fb6eH
	DW	0fcf2H
	DW	0fc1dH
	DW	0fc1dH
	DW	0fcf2H
	DW	0fb6eH
	DW	0fde6H
	DW	0faecH
	DW	0feeeH
	DW	0fa9cH
	DW	00H
	DW	0fa40H
	DW	011fH
	DW	0fa5dH
	DW	0233H
	DW	0fab1H
	DW	0331H
	DW	0fb39H
	DW	0410H
	DW	0fbf0H
	DW	04c7H
	DW	0fccfH
	DW	054fH
	DW	0fdcdH
	DW	05a3H
	DW	0fee1H
	DW	05c0H
	DW	00H
	DW	05a3H
	DW	011fH
	DW	054fH
	DW	0233H
	DW	04c7H
	DW	0331H
	DW	0410H
	DW	0410H
	DW	0331H
	DW	04c7H
	DW	0233H
	DW	054fH
	DW	011fH
	DW	05a3H
	DW	00H
	DW	05c0H
	DW	0fee1H
	DW	05a3H
	DW	0fdcdH
	DW	054fH
	DW	0fccfH
	DW	04c7H
	DW	0fbf0H
	DW	0410H
	DW	0fb39H
	DW	0331H
	DW	0fab1H
	DW	0233H
	DW	0fa5dH
	DW	011fH
	DW	0fa40H
	DW	00H
	DW	0fa5dH
	DW	0fee1H
	DW	0fab1H
	DW	0fdcdH
	DW	0fb39H
	DW	0fccfH
	DW	0fbf0H
	DW	0fbf0H
	DW	0fccfH
	DW	0fb39H
	DW	0fdcdH
	DW	0fab1H
	DW	0fee1H
	DW	0fa5dH
	DW	00H
	DW	0fa00H
	DW	012bH
	DW	0fa1eH
	DW	024bH
	DW	0fa75H
	DW	0355H
	DW	0fb03H
	DW	043eH
	DW	0fbc2H
	DW	04fdH
	DW	0fcabH
	DW	058bH
	DW	0fdb5H
	DW	05e2H
	DW	0fed5H
	DW	0600H
	DW	00H
	DW	05e2H
	DW	012bH
	DW	058bH
	DW	024bH
	DW	04fdH
	DW	0355H
	DW	043eH
	DW	043eH
	DW	0355H
	DW	04fdH
	DW	024bH
	DW	058bH
	DW	012bH
	DW	05e2H
	DW	00H
	DW	0600H
	DW	0fed5H
	DW	05e2H
	DW	0fdb5H
	DW	058bH
	DW	0fcabH
	DW	04fdH
	DW	0fbc2H
	DW	043eH
	DW	0fb03H
	DW	0355H
	DW	0fa75H
	DW	024bH
	DW	0fa1eH
	DW	012bH
	DW	0fa00H
	DW	00H
	DW	0fa1eH
	DW	0fed5H
	DW	0fa75H
	DW	0fdb5H
	DW	0fb03H
	DW	0fcabH
	DW	0fbc2H
	DW	0fbc2H
	DW	0fcabH
	DW	0fb03H
	DW	0fdb5H
	DW	0fa75H
	DW	0fed5H
	DW	0fa1eH
	DW	00H
	DW	0f9c0H
	DW	0138H
	DW	0f9dfH
	DW	0264H
	DW	0fa3aH
	DW	0378H
	DW	0faceH
	DW	046bH
	DW	0fb95H
	DW	0532H
	DW	0fc88H
	DW	05c6H
	DW	0fd9cH
	DW	0621H
	DW	0fec8H
	DW	0640H
	DW	00H
	DW	0621H
	DW	0138H
	DW	05c6H
	DW	0264H
	DW	0532H
	DW	0378H
	DW	046bH
	DW	046bH
	DW	0378H
	DW	0532H
	DW	0264H
	DW	05c6H
	DW	0138H
	DW	0621H
	DW	00H
	DW	0640H
	DW	0fec8H
	DW	0621H
	DW	0fd9cH
	DW	05c6H
	DW	0fc88H
	DW	0532H
	DW	0fb95H
	DW	046bH
	DW	0faceH
	DW	0378H
	DW	0fa3aH
	DW	0264H
	DW	0f9dfH
	DW	0138H
	DW	0f9c0H
	DW	00H
	DW	0f9dfH
	DW	0fec8H
	DW	0fa3aH
	DW	0fd9cH
	DW	0faceH
	DW	0fc88H
	DW	0fb95H
	DW	0fb95H
	DW	0fc88H
	DW	0faceH
	DW	0fd9cH
	DW	0fa3aH
	DW	0fec8H
	DW	0f9dfH
	DW	00H
	DW	0f980H
	DW	0144H
	DW	0f9a0H
	DW	027cH
	DW	0f9ffH
	DW	039cH
	DW	0fa99H
	DW	0498H
	DW	0fb68H
	DW	0567H
	DW	0fc64H
	DW	0601H
	DW	0fd84H
	DW	0660H
	DW	0febcH
	DW	0680H
	DW	00H
	DW	0660H
	DW	0144H
	DW	0601H
	DW	027cH
	DW	0567H
	DW	039cH
	DW	0498H
	DW	0498H
	DW	039cH
	DW	0567H
	DW	027cH
	DW	0601H
	DW	0144H
	DW	0660H
	DW	00H
	DW	0680H
	DW	0febcH
	DW	0660H
	DW	0fd84H
	DW	0601H
	DW	0fc64H
	DW	0567H
	DW	0fb68H
	DW	0498H
	DW	0fa99H
	DW	039cH
	DW	0f9ffH
	DW	027cH
	DW	0f9a0H
	DW	0144H
	DW	0f980H
	DW	00H
	DW	0f9a0H
	DW	0febcH
	DW	0f9ffH
	DW	0fd84H
	DW	0fa99H
	DW	0fc64H
	DW	0fb68H
	DW	0fb68H
	DW	0fc64H
	DW	0fa99H
	DW	0fd84H
	DW	0f9ffH
	DW	0febcH
	DW	0f9a0H
	DW	00H
	DW	0f940H
	DW	0151H
	DW	0f962H
	DW	0295H
	DW	0f9c4H
	DW	03c0H
	DW	0fa64H
	DW	04c5H
	DW	0fb3bH
	DW	059cH
	DW	0fc40H
	DW	063cH
	DW	0fd6bH
	DW	069eH
	DW	0feafH
	DW	06c0H
	DW	00H
	DW	069eH
	DW	0151H
	DW	063cH
	DW	0295H
	DW	059cH
	DW	03c0H
	DW	04c5H
	DW	04c5H
	DW	03c0H
	DW	059cH
	DW	0295H
	DW	063cH
	DW	0151H
	DW	069eH
	DW	00H
	DW	06c0H
	DW	0feafH
	DW	069eH
	DW	0fd6bH
	DW	063cH
	DW	0fc40H
	DW	059cH
	DW	0fb3bH
	DW	04c5H
	DW	0fa64H
	DW	03c0H
	DW	0f9c4H
	DW	0295H
	DW	0f962H
	DW	0151H
	DW	0f940H
	DW	00H
	DW	0f962H
	DW	0feafH
	DW	0f9c4H
	DW	0fd6bH
	DW	0fa64H
	DW	0fc40H
	DW	0fb3bH
	DW	0fb3bH
	DW	0fc40H
	DW	0fa64H
	DW	0fd6bH
	DW	0f9c4H
	DW	0feafH
	DW	0f962H
	DW	00H
	DW	0f900H
	DW	015dH
	DW	0f923H
	DW	02adH
	DW	0f989H
	DW	03e3H
	DW	0fa2fH
	DW	04f3H
	DW	0fb0dH
	DW	05d1H
	DW	0fc1dH
	DW	0677H
	DW	0fd53H
	DW	06ddH
	DW	0fea3H
	DW	0700H
	DW	00H
	DW	06ddH
	DW	015dH
	DW	0677H
	DW	02adH
	DW	05d1H
	DW	03e3H
	DW	04f3H
	DW	04f3H
	DW	03e3H
	DW	05d1H
	DW	02adH
	DW	0677H
	DW	015dH
	DW	06ddH
	DW	00H
	DW	0700H
	DW	0fea3H
	DW	06ddH
	DW	0fd53H
	DW	0677H
	DW	0fc1dH
	DW	05d1H
	DW	0fb0dH
	DW	04f3H
	DW	0fa2fH
	DW	03e3H
	DW	0f989H
	DW	02adH
	DW	0f923H
	DW	015dH
	DW	0f900H
	DW	00H
	DW	0f923H
	DW	0fea3H
	DW	0f989H
	DW	0fd53H
	DW	0fa2fH
	DW	0fc1dH
	DW	0fb0dH
	DW	0fb0dH
	DW	0fc1dH
	DW	0fa2fH
	DW	0fd53H
	DW	0f989H
	DW	0fea3H
	DW	0f923H
	DW	00H
	DW	0f8c0H
	DW	016aH
	DW	0f8e4H
	DW	02c6H
	DW	0f94eH
	DW	0407H
	DW	0f9f9H
	DW	0520H
	DW	0fae0H
	DW	0607H
	DW	0fbf9H
	DW	06b2H
	DW	0fd3aH
	DW	071cH
	DW	0fe96H
	DW	0740H
	DW	00H
	DW	071cH
	DW	016aH
	DW	06b2H
	DW	02c6H
	DW	0607H
	DW	0407H
	DW	0520H
	DW	0520H
	DW	0407H
	DW	0607H
	DW	02c6H
	DW	06b2H
	DW	016aH
	DW	071cH
	DW	00H
	DW	0740H
	DW	0fe96H
	DW	071cH
	DW	0fd3aH
	DW	06b2H
	DW	0fbf9H
	DW	0607H
	DW	0fae0H
	DW	0520H
	DW	0f9f9H
	DW	0407H
	DW	0f94eH
	DW	02c6H
	DW	0f8e4H
	DW	016aH
	DW	0f8c0H
	DW	00H
	DW	0f8e4H
	DW	0fe96H
	DW	0f94eH
	DW	0fd3aH
	DW	0f9f9H
	DW	0fbf9H
	DW	0fae0H
	DW	0fae0H
	DW	0fbf9H
	DW	0f9f9H
	DW	0fd3aH
	DW	0f94eH
	DW	0fe96H
	DW	0f8e4H
	DW	00H
	DW	0f880H
	DW	0176H
	DW	0f8a5H
	DW	02deH
	DW	0f913H
	DW	042aH
	DW	0f9c4H
	DW	054dH
	DW	0fab3H
	DW	063cH
	DW	0fbd6H
	DW	06edH
	DW	0fd22H
	DW	075bH
	DW	0fe8aH
	DW	0780H
	DW	00H
	DW	075bH
	DW	0176H
	DW	06edH
	DW	02deH
	DW	063cH
	DW	042aH
	DW	054dH
	DW	054dH
	DW	042aH
	DW	063cH
	DW	02deH
	DW	06edH
	DW	0176H
	DW	075bH
	DW	00H
	DW	0780H
	DW	0fe8aH
	DW	075bH
	DW	0fd22H
	DW	06edH
	DW	0fbd6H
	DW	063cH
	DW	0fab3H
	DW	054dH
	DW	0f9c4H
	DW	042aH
	DW	0f913H
	DW	02deH
	DW	0f8a5H
	DW	0176H
	DW	0f880H
	DW	00H
	DW	0f8a5H
	DW	0fe8aH
	DW	0f913H
	DW	0fd22H
	DW	0f9c4H
	DW	0fbd6H
	DW	0fab3H
	DW	0fab3H
	DW	0fbd6H
	DW	0f9c4H
	DW	0fd22H
	DW	0f913H
	DW	0fe8aH
	DW	0f8a5H
	DW	00H
	DW	0f840H
	DW	0183H
	DW	0f867H
	DW	02f7H
	DW	0f8d8H
	DW	044eH
	DW	0f98fH
	DW	057aH
	DW	0fa86H
	DW	0671H
	DW	0fbb2H
	DW	0728H
	DW	0fd09H
	DW	0799H
	DW	0fe7dH
	DW	07c0H
	DW	00H
	DW	0799H
	DW	0183H
	DW	0728H
	DW	02f7H
	DW	0671H
	DW	044eH
	DW	057aH
	DW	057aH
	DW	044eH
	DW	0671H
	DW	02f7H
	DW	0728H
	DW	0183H
	DW	0799H
	DW	00H
	DW	07c0H
	DW	0fe7dH
	DW	0799H
	DW	0fd09H
	DW	0728H
	DW	0fbb2H
	DW	0671H
	DW	0fa86H
	DW	057aH
	DW	0f98fH
	DW	044eH
	DW	0f8d8H
	DW	02f7H
	DW	0f867H
	DW	0183H
	DW	0f840H
	DW	00H
	DW	0f867H
	DW	0fe7dH
	DW	0f8d8H
	DW	0fd09H
	DW	0f98fH
	DW	0fbb2H
	DW	0fa86H
	DW	0fa86H
	DW	0fbb2H
	DW	0f98fH
	DW	0fd09H
	DW	0f8d8H
	DW	0fe7dH
	DW	0f867H
	DW	00H
	DW	0f800H
	DW	018fH
	DW	0f828H
	DW	030fH
	DW	0f89cH
	DW	0471H
	DW	0f95aH
	DW	05a8H
	DW	0fa58H
	DW	06a6H
	DW	0fb8fH
	DW	0764H
	DW	0fcf1H
	DW	07d8H
	DW	0fe71H
	DW	0800H
	DW	00H
	DW	07d8H
	DW	018fH
	DW	0764H
	DW	030fH
	DW	06a6H
	DW	0471H
	DW	05a8H
	DW	05a8H
	DW	0471H
	DW	06a6H
	DW	030fH
	DW	0764H
	DW	018fH
	DW	07d8H
	DW	00H
	DW	0800H
	DW	0fe71H
	DW	07d8H
	DW	0fcf1H
	DW	0764H
	DW	0fb8fH
	DW	06a6H
	DW	0fa58H
	DW	05a8H
	DW	0f95aH
	DW	0471H
	DW	0f89cH
	DW	030fH
	DW	0f828H
	DW	018fH
	DW	0f800H
	DW	00H
	DW	0f828H
	DW	0fe71H
	DW	0f89cH
	DW	0fcf1H
	DW	0f95aH
	DW	0fb8fH
	DW	0fa58H
	DW	0fa58H
	DW	0fb8fH
	DW	0f95aH
	DW	0fcf1H
	DW	0f89cH
	DW	0fe71H
	DW	0f828H
	DW	00H
	DW	0f7c0H
	DW	019cH
	DW	0f7e9H
	DW	0328H
	DW	0f861H
	DW	0495H
	DW	0f924H
	DW	05d5H
	DW	0fa2bH
	DW	06dcH
	DW	0fb6bH
	DW	079fH
	DW	0fcd8H
	DW	0817H
	DW	0fe64H
	DW	0840H
	DW	00H
	DW	0817H
	DW	019cH
	DW	079fH
	DW	0328H
	DW	06dcH
	DW	0495H
	DW	05d5H
	DW	05d5H
	DW	0495H
	DW	06dcH
	DW	0328H
	DW	079fH
	DW	019cH
	DW	0817H
	DW	00H
	DW	0840H
	DW	0fe64H
	DW	0817H
	DW	0fcd8H
	DW	079fH
	DW	0fb6bH
	DW	06dcH
	DW	0fa2bH
	DW	05d5H
	DW	0f924H
	DW	0495H
	DW	0f861H
	DW	0328H
	DW	0f7e9H
	DW	019cH
	DW	0f7c0H
	DW	00H
	DW	0f7e9H
	DW	0fe64H
	DW	0f861H
	DW	0fcd8H
	DW	0f924H
	DW	0fb6bH
	DW	0fa2bH
	DW	0fa2bH
	DW	0fb6bH
	DW	0f924H
	DW	0fcd8H
	DW	0f861H
	DW	0fe64H
	DW	0f7e9H
	DW	00H
	DW	0f780H
	DW	01a8H
	DW	0f7aaH
	DW	0340H
	DW	0f826H
	DW	04b8H
	DW	0f8efH
	DW	0602H
	DW	0f9feH
	DW	0711H
	DW	0fb48H
	DW	07daH
	DW	0fcc0H
	DW	0856H
	DW	0fe58H
	DW	0880H
	DW	00H
	DW	0856H
	DW	01a8H
	DW	07daH
	DW	0340H
	DW	0711H
	DW	04b8H
	DW	0602H
	DW	0602H
	DW	04b8H
	DW	0711H
	DW	0340H
	DW	07daH
	DW	01a8H
	DW	0856H
	DW	00H
	DW	0880H
	DW	0fe58H
	DW	0856H
	DW	0fcc0H
	DW	07daH
	DW	0fb48H
	DW	0711H
	DW	0f9feH
	DW	0602H
	DW	0f8efH
	DW	04b8H
	DW	0f826H
	DW	0340H
	DW	0f7aaH
	DW	01a8H
	DW	0f780H
	DW	00H
	DW	0f7aaH
	DW	0fe58H
	DW	0f826H
	DW	0fcc0H
	DW	0f8efH
	DW	0fb48H
	DW	0f9feH
	DW	0f9feH
	DW	0fb48H
	DW	0f8efH
	DW	0fcc0H
	DW	0f826H
	DW	0fe58H
	DW	0f7aaH
	DW	00H
	DW	0f740H
	DW	01b5H
	DW	0f76cH
	DW	0359H
	DW	0f7ebH
	DW	04dcH
	DW	0f8baH
	DW	062fH
	DW	0f9d1H
	DW	0746H
	DW	0fb24H
	DW	0815H
	DW	0fca7H
	DW	0894H
	DW	0fe4bH
	DW	08c0H
	DW	00H
	DW	0894H
	DW	01b5H
	DW	0815H
	DW	0359H
	DW	0746H
	DW	04dcH
	DW	062fH
	DW	062fH
	DW	04dcH
	DW	0746H
	DW	0359H
	DW	0815H
	DW	01b5H
	DW	0894H
	DW	00H
	DW	08c0H
	DW	0fe4bH
	DW	0894H
	DW	0fca7H
	DW	0815H
	DW	0fb24H
	DW	0746H
	DW	0f9d1H
	DW	062fH
	DW	0f8baH
	DW	04dcH
	DW	0f7ebH
	DW	0359H
	DW	0f76cH
	DW	01b5H
	DW	0f740H
	DW	00H
	DW	0f76cH
	DW	0fe4bH
	DW	0f7ebH
	DW	0fca7H
	DW	0f8baH
	DW	0fb24H
	DW	0f9d1H
	DW	0f9d1H
	DW	0fb24H
	DW	0f8baH
	DW	0fca7H
	DW	0f7ebH
	DW	0fe4bH
	DW	0f76cH
	DW	00H
	DW	0f700H
	DW	01c1H
	DW	0f72dH
	DW	0371H
	DW	0f7b0H
	DW	0500H
	DW	0f885H
	DW	065dH
	DW	0f9a3H
	DW	077bH
	DW	0fb00H
	DW	0850H
	DW	0fc8fH
	DW	08d3H
	DW	0fe3fH
	DW	0900H
	DW	00H
	DW	08d3H
	DW	01c1H
	DW	0850H
	DW	0371H
	DW	077bH
	DW	0500H
	DW	065dH
	DW	065dH
	DW	0500H
	DW	077bH
	DW	0371H
	DW	0850H
	DW	01c1H
	DW	08d3H
	DW	00H
	DW	0900H
	DW	0fe3fH
	DW	08d3H
	DW	0fc8fH
	DW	0850H
	DW	0fb00H
	DW	077bH
	DW	0f9a3H
	DW	065dH
	DW	0f885H
	DW	0500H
	DW	0f7b0H
	DW	0371H
	DW	0f72dH
	DW	01c1H
	DW	0f700H
	DW	00H
	DW	0f72dH
	DW	0fe3fH
	DW	0f7b0H
	DW	0fc8fH
	DW	0f885H
	DW	0fb00H
	DW	0f9a3H
	DW	0f9a3H
	DW	0fb00H
	DW	0f885H
	DW	0fc8fH
	DW	0f7b0H
	DW	0fe3fH
	DW	0f72dH
	DW	00H
	DW	0f6c0H
	DW	01cdH
	DW	0f6eeH
	DW	038aH
	DW	0f775H
	DW	0523H
	DW	0f850H
	DW	068aH
	DW	0f976H
	DW	07b0H
	DW	0faddH
	DW	088bH
	DW	0fc76H
	DW	0912H
	DW	0fe33H
	DW	0940H
	DW	00H
	DW	0912H
	DW	01cdH
	DW	088bH
	DW	038aH
	DW	07b0H
	DW	0523H
	DW	068aH
	DW	068aH
	DW	0523H
	DW	07b0H
	DW	038aH
	DW	088bH
	DW	01cdH
	DW	0912H
	DW	00H
	DW	0940H
	DW	0fe33H
	DW	0912H
	DW	0fc76H
	DW	088bH
	DW	0faddH
	DW	07b0H
	DW	0f976H
	DW	068aH
	DW	0f850H
	DW	0523H
	DW	0f775H
	DW	038aH
	DW	0f6eeH
	DW	01cdH
	DW	0f6c0H
	DW	00H
	DW	0f6eeH
	DW	0fe33H
	DW	0f775H
	DW	0fc76H
	DW	0f850H
	DW	0faddH
	DW	0f976H
	DW	0f976H
	DW	0faddH
	DW	0f850H
	DW	0fc76H
	DW	0f775H
	DW	0fe33H
	DW	0f6eeH
	DW	00H
	DW	0f680H
	DW	01daH
	DW	0f6afH
	DW	03a2H
	DW	0f73aH
	DW	0547H
	DW	0f81aH
	DW	06b7H
	DW	0f949H
	DW	07e6H
	DW	0fab9H
	DW	08c6H
	DW	0fc5eH
	DW	0951H
	DW	0fe26H
	DW	0980H
	DW	00H
	DW	0951H
	DW	01daH
	DW	08c6H
	DW	03a2H
	DW	07e6H
	DW	0547H
	DW	06b7H
	DW	06b7H
	DW	0547H
	DW	07e6H
	DW	03a2H
	DW	08c6H
	DW	01daH
	DW	0951H
	DW	00H
	DW	0980H
	DW	0fe26H
	DW	0951H
	DW	0fc5eH
	DW	08c6H
	DW	0fab9H
	DW	07e6H
	DW	0f949H
	DW	06b7H
	DW	0f81aH
	DW	0547H
	DW	0f73aH
	DW	03a2H
	DW	0f6afH
	DW	01daH
	DW	0f680H
	DW	00H
	DW	0f6afH
	DW	0fe26H
	DW	0f73aH
	DW	0fc5eH
	DW	0f81aH
	DW	0fab9H
	DW	0f949H
	DW	0f949H
	DW	0fab9H
	DW	0f81aH
	DW	0fc5eH
	DW	0f73aH
	DW	0fe26H
	DW	0f6afH
	DW	00H
	DW	0f640H
	DW	01e6H
	DW	0f670H
	DW	03bbH
	DW	0f6feH
	DW	056aH
	DW	0f7e5H
	DW	06e4H
	DW	0f91cH
	DW	081bH
	DW	0fa96H
	DW	0902H
	DW	0fc45H
	DW	0990H
	DW	0fe1aH
	DW	09c0H
	DW	00H
	DW	0990H
	DW	01e6H
	DW	0902H
	DW	03bbH
	DW	081bH
	DW	056aH
	DW	06e4H
	DW	06e4H
	DW	056aH
	DW	081bH
	DW	03bbH
	DW	0902H
	DW	01e6H
	DW	0990H
	DW	00H
	DW	09c0H
	DW	0fe1aH
	DW	0990H
	DW	0fc45H
	DW	0902H
	DW	0fa96H
	DW	081bH
	DW	0f91cH
	DW	06e4H
	DW	0f7e5H
	DW	056aH
	DW	0f6feH
	DW	03bbH
	DW	0f670H
	DW	01e6H
	DW	0f640H
	DW	00H
	DW	0f670H
	DW	0fe1aH
	DW	0f6feH
	DW	0fc45H
	DW	0f7e5H
	DW	0fa96H
	DW	0f91cH
	DW	0f91cH
	DW	0fa96H
	DW	0f7e5H
	DW	0fc45H
	DW	0f6feH
	DW	0fe1aH
	DW	0f670H
	DW	00H
	DW	0f600H
	DW	01f3H
	DW	0f632H
	DW	03d3H
	DW	0f6c3H
	DW	058eH
	DW	0f7b0H
	DW	0712H
	DW	0f8eeH
	DW	0850H
	DW	0fa72H
	DW	093dH
	DW	0fc2dH
	DW	09ceH
	DW	0fe0dH
	DW	0a00H
	DW	00H
	DW	09ceH
	DW	01f3H
	DW	093dH
	DW	03d3H
	DW	0850H
	DW	058eH
	DW	0712H
	DW	0712H
	DW	058eH
	DW	0850H
	DW	03d3H
	DW	093dH
	DW	01f3H
	DW	09ceH
	DW	00H
	DW	0a00H
	DW	0fe0dH
	DW	09ceH
	DW	0fc2dH
	DW	093dH
	DW	0fa72H
	DW	0850H
	DW	0f8eeH
	DW	0712H
	DW	0f7b0H
	DW	058eH
	DW	0f6c3H
	DW	03d3H
	DW	0f632H
	DW	01f3H
	DW	0f600H
	DW	00H
	DW	0f632H
	DW	0fe0dH
	DW	0f6c3H
	DW	0fc2dH
	DW	0f7b0H
	DW	0fa72H
	DW	0f8eeH
	DW	0f8eeH
	DW	0fa72H
	DW	0f7b0H
	DW	0fc2dH
	DW	0f6c3H
	DW	0fe0dH
	DW	0f632H
	DW	00H
	DW	0f5c0H
	DW	01ffH
	DW	0f5f3H
	DW	03ecH
	DW	0f688H
	DW	05b1H
	DW	0f77bH
	DW	073fH
	DW	0f8c1H
	DW	0885H
	DW	0fa4fH
	DW	0978H
	DW	0fc14H
	DW	0a0dH
	DW	0fe01H
	DW	0a40H
	DW	00H
	DW	0a0dH
	DW	01ffH
	DW	0978H
	DW	03ecH
	DW	0885H
	DW	05b1H
	DW	073fH
	DW	073fH
	DW	05b1H
	DW	0885H
	DW	03ecH
	DW	0978H
	DW	01ffH
	DW	0a0dH
	DW	00H
	DW	0a40H
	DW	0fe01H
	DW	0a0dH
	DW	0fc14H
	DW	0978H
	DW	0fa4fH
	DW	0885H
	DW	0f8c1H
	DW	073fH
	DW	0f77bH
	DW	05b1H
	DW	0f688H
	DW	03ecH
	DW	0f5f3H
	DW	01ffH
	DW	0f5c0H
	DW	00H
	DW	0f5f3H
	DW	0fe01H
	DW	0f688H
	DW	0fc14H
	DW	0f77bH
	DW	0fa4fH
	DW	0f8c1H
	DW	0f8c1H
	DW	0fa4fH
	DW	0f77bH
	DW	0fc14H
	DW	0f688H
	DW	0fe01H
	DW	0f5f3H
	DW	00H
	DW	0f580H
	DW	020cH
	DW	0f5b4H
	DW	0404H
	DW	0f64dH
	DW	05d5H
	DW	0f746H
	DW	076cH
	DW	0f894H
	DW	08baH
	DW	0fa2bH
	DW	09b3H
	DW	0fbfcH
	DW	0a4cH
	DW	0fdf4H
	DW	0a80H
	DW	00H
	DW	0a4cH
	DW	020cH
	DW	09b3H
	DW	0404H
	DW	08baH
	DW	05d5H
	DW	076cH
	DW	076cH
	DW	05d5H
	DW	08baH
	DW	0404H
	DW	09b3H
	DW	020cH
	DW	0a4cH
	DW	00H
	DW	0a80H
	DW	0fdf4H
	DW	0a4cH
	DW	0fbfcH
	DW	09b3H
	DW	0fa2bH
	DW	08baH
	DW	0f894H
	DW	076cH
	DW	0f746H
	DW	05d5H
	DW	0f64dH
	DW	0404H
	DW	0f5b4H
	DW	020cH
	DW	0f580H
	DW	00H
	DW	0f5b4H
	DW	0fdf4H
	DW	0f64dH
	DW	0fbfcH
	DW	0f746H
	DW	0fa2bH
	DW	0f894H
	DW	0f894H
	DW	0fa2bH
	DW	0f746H
	DW	0fbfcH
	DW	0f64dH
	DW	0fdf4H
	DW	0f5b4H
	DW	00H
	DW	0f540H
	DW	0218H
	DW	0f575H
	DW	041dH
	DW	0f612H
	DW	05f8H
	DW	0f710H
	DW	0799H
	DW	0f867H
	DW	08f0H
	DW	0fa08H
	DW	09eeH
	DW	0fbe3H
	DW	0a8bH
	DW	0fde8H
	DW	0ac0H
	DW	00H
	DW	0a8bH
	DW	0218H
	DW	09eeH
	DW	041dH
	DW	08f0H
	DW	05f8H
	DW	0799H
	DW	0799H
	DW	05f8H
	DW	08f0H
	DW	041dH
	DW	09eeH
	DW	0218H
	DW	0a8bH
	DW	00H
	DW	0ac0H
	DW	0fde8H
	DW	0a8bH
	DW	0fbe3H
	DW	09eeH
	DW	0fa08H
	DW	08f0H
	DW	0f867H
	DW	0799H
	DW	0f710H
	DW	05f8H
	DW	0f612H
	DW	041dH
	DW	0f575H
	DW	0218H
	DW	0f540H
	DW	00H
	DW	0f575H
	DW	0fde8H
	DW	0f612H
	DW	0fbe3H
	DW	0f710H
	DW	0fa08H
	DW	0f867H
	DW	0f867H
	DW	0fa08H
	DW	0f710H
	DW	0fbe3H
	DW	0f612H
	DW	0fde8H
	DW	0f575H
	DW	00H
	DW	0f500H
	DW	0225H
	DW	0f537H
	DW	0435H
	DW	0f5d7H
	DW	061cH
	DW	0f6dbH
	DW	07c7H
	DW	0f839H
	DW	0925H
	DW	0f9e4H
	DW	0a29H
	DW	0fbcbH
	DW	0ac9H
	DW	0fddbH
	DW	0b00H
	DW	00H
	DW	0ac9H
	DW	0225H
	DW	0a29H
	DW	0435H
	DW	0925H
	DW	061cH
	DW	07c7H
	DW	07c7H
	DW	061cH
	DW	0925H
	DW	0435H
	DW	0a29H
	DW	0225H
	DW	0ac9H
	DW	00H
	DW	0b00H
	DW	0fddbH
	DW	0ac9H
	DW	0fbcbH
	DW	0a29H
	DW	0f9e4H
	DW	0925H
	DW	0f839H
	DW	07c7H
	DW	0f6dbH
	DW	061cH
	DW	0f5d7H
	DW	0435H
	DW	0f537H
	DW	0225H
	DW	0f500H
	DW	00H
	DW	0f537H
	DW	0fddbH
	DW	0f5d7H
	DW	0fbcbH
	DW	0f6dbH
	DW	0f9e4H
	DW	0f839H
	DW	0f839H
	DW	0f9e4H
	DW	0f6dbH
	DW	0fbcbH
	DW	0f5d7H
	DW	0fddbH
	DW	0f537H
	DW	00H
	DW	0f4c0H
	DW	0231H
	DW	0f4f8H
	DW	044eH
	DW	0f59cH
	DW	0640H
	DW	0f6a6H
	DW	07f4H
	DW	0f80cH
	DW	095aH
	DW	0f9c0H
	DW	0a64H
	DW	0fbb2H
	DW	0b08H
	DW	0fdcfH
	DW	0b40H
	DW	00H
	DW	0b08H
	DW	0231H
	DW	0a64H
	DW	044eH
	DW	095aH
	DW	0640H
	DW	07f4H
	DW	07f4H
	DW	0640H
	DW	095aH
	DW	044eH
	DW	0a64H
	DW	0231H
	DW	0b08H
	DW	00H
	DW	0b40H
	DW	0fdcfH
	DW	0b08H
	DW	0fbb2H
	DW	0a64H
	DW	0f9c0H
	DW	095aH
	DW	0f80cH
	DW	07f4H
	DW	0f6a6H
	DW	0640H
	DW	0f59cH
	DW	044eH
	DW	0f4f8H
	DW	0231H
	DW	0f4c0H
	DW	00H
	DW	0f4f8H
	DW	0fdcfH
	DW	0f59cH
	DW	0fbb2H
	DW	0f6a6H
	DW	0f9c0H
	DW	0f80cH
	DW	0f80cH
	DW	0f9c0H
	DW	0f6a6H
	DW	0fbb2H
	DW	0f59cH
	DW	0fdcfH
	DW	0f4f8H
	DW	00H
	DW	0f480H
	DW	023eH
	DW	0f4b9H
	DW	0466H
	DW	0f561H
	DW	0663H
	DW	0f671H
	DW	0821H
	DW	0f7dfH
	DW	098fH
	DW	0f99dH
	DW	0a9fH
	DW	0fb9aH
	DW	0b47H
	DW	0fdc2H
	DW	0b80H
	DW	00H
	DW	0b47H
	DW	023eH
	DW	0a9fH
	DW	0466H
	DW	098fH
	DW	0663H
	DW	0821H
	DW	0821H
	DW	0663H
	DW	098fH
	DW	0466H
	DW	0a9fH
	DW	023eH
	DW	0b47H
	DW	00H
	DW	0b80H
	DW	0fdc2H
	DW	0b47H
	DW	0fb9aH
	DW	0a9fH
	DW	0f99dH
	DW	098fH
	DW	0f7dfH
	DW	0821H
	DW	0f671H
	DW	0663H
	DW	0f561H
	DW	0466H
	DW	0f4b9H
	DW	023eH
	DW	0f480H
	DW	00H
	DW	0f4b9H
	DW	0fdc2H
	DW	0f561H
	DW	0fb9aH
	DW	0f671H
	DW	0f99dH
	DW	0f7dfH
	DW	0f7dfH
	DW	0f99dH
	DW	0f671H
	DW	0fb9aH
	DW	0f561H
	DW	0fdc2H
	DW	0f4b9H
	DW	00H
	DW	0f440H
	DW	024aH
	DW	0f47aH
	DW	047fH
	DW	0f525H
	DW	0687H
	DW	0f63bH
	DW	084eH
	DW	0f7b2H
	DW	09c5H
	DW	0f979H
	DW	0adbH
	DW	0fb81H
	DW	0b86H
	DW	0fdb6H
	DW	0bc0H
	DW	00H
	DW	0b86H
	DW	024aH
	DW	0adbH
	DW	047fH
	DW	09c5H
	DW	0687H
	DW	084eH
	DW	084eH
	DW	0687H
	DW	09c5H
	DW	047fH
	DW	0adbH
	DW	024aH
	DW	0b86H
	DW	00H
	DW	0bc0H
	DW	0fdb6H
	DW	0b86H
	DW	0fb81H
	DW	0adbH
	DW	0f979H
	DW	09c5H
	DW	0f7b2H
	DW	084eH
	DW	0f63bH
	DW	0687H
	DW	0f525H
	DW	047fH
	DW	0f47aH
	DW	024aH
	DW	0f440H
	DW	00H
	DW	0f47aH
	DW	0fdb6H
	DW	0f525H
	DW	0fb81H
	DW	0f63bH
	DW	0f979H
	DW	0f7b2H
	DW	0f7b2H
	DW	0f979H
	DW	0f63bH
	DW	0fb81H
	DW	0f525H
	DW	0fdb6H
	DW	0f47aH
	DW	00H
	DW	0f400H
	DW	0257H
	DW	0f43cH
	DW	0497H
	DW	0f4eaH
	DW	06aaH
	DW	0f606H
	DW	087cH
	DW	0f784H
	DW	09faH
	DW	0f956H
	DW	0b16H
	DW	0fb69H
	DW	0bc4H
	DW	0fda9H
	DW	0c00H
	DW	00H
	DW	0bc4H
	DW	0257H
	DW	0b16H
	DW	0497H
	DW	09faH
	DW	06aaH
	DW	087cH
	DW	087cH
	DW	06aaH
	DW	09faH
	DW	0497H
	DW	0b16H
	DW	0257H
	DW	0bc4H
	DW	00H
	DW	0c00H
	DW	0fda9H
	DW	0bc4H
	DW	0fb69H
	DW	0b16H
	DW	0f956H
	DW	09faH
	DW	0f784H
	DW	087cH
	DW	0f606H
	DW	06aaH
	DW	0f4eaH
	DW	0497H
	DW	0f43cH
	DW	0257H
	DW	0f400H
	DW	00H
	DW	0f43cH
	DW	0fda9H
	DW	0f4eaH
	DW	0fb69H
	DW	0f606H
	DW	0f956H
	DW	0f784H
	DW	0f784H
	DW	0f956H
	DW	0f606H
	DW	0fb69H
	DW	0f4eaH
	DW	0fda9H
	DW	0f43cH
	DW	00H
	DW	0f3c0H
	DW	0263H
	DW	0f3fdH
	DW	04b0H
	DW	0f4afH
	DW	06ceH
	DW	0f5d1H
	DW	08a9H
	DW	0f757H
	DW	0a2fH
	DW	0f932H
	DW	0b51H
	DW	0fb50H
	DW	0c03H
	DW	0fd9dH
	DW	0c40H
	DW	00H
	DW	0c03H
	DW	0263H
	DW	0b51H
	DW	04b0H
	DW	0a2fH
	DW	06ceH
	DW	08a9H
	DW	08a9H
	DW	06ceH
	DW	0a2fH
	DW	04b0H
	DW	0b51H
	DW	0263H
	DW	0c03H
	DW	00H
	DW	0c40H
	DW	0fd9dH
	DW	0c03H
	DW	0fb50H
	DW	0b51H
	DW	0f932H
	DW	0a2fH
	DW	0f757H
	DW	08a9H
	DW	0f5d1H
	DW	06ceH
	DW	0f4afH
	DW	04b0H
	DW	0f3fdH
	DW	0263H
	DW	0f3c0H
	DW	00H
	DW	0f3fdH
	DW	0fd9dH
	DW	0f4afH
	DW	0fb50H
	DW	0f5d1H
	DW	0f932H
	DW	0f757H
	DW	0f757H
	DW	0f932H
	DW	0f5d1H
	DW	0fb50H
	DW	0f4afH
	DW	0fd9dH
	DW	0f3fdH
	DW	00H
	DW	0f380H
	DW	0270H
	DW	0f3beH
	DW	04c8H
	DW	0f474H
	DW	06f1H
	DW	0f59cH
	DW	08d6H
	DW	0f72aH
	DW	0a64H
	DW	0f90fH
	DW	0b8cH
	DW	0fb38H
	DW	0c42H
	DW	0fd90H
	DW	0c80H
	DW	00H
	DW	0c42H
	DW	0270H
	DW	0b8cH
	DW	04c8H
	DW	0a64H
	DW	06f1H
	DW	08d6H
	DW	08d6H
	DW	06f1H
	DW	0a64H
	DW	04c8H
	DW	0b8cH
	DW	0270H
	DW	0c42H
	DW	00H
	DW	0c80H
	DW	0fd90H
	DW	0c42H
	DW	0fb38H
	DW	0b8cH
	DW	0f90fH
	DW	0a64H
	DW	0f72aH
	DW	08d6H
	DW	0f59cH
	DW	06f1H
	DW	0f474H
	DW	04c8H
	DW	0f3beH
	DW	0270H
	DW	0f380H
	DW	00H
	DW	0f3beH
	DW	0fd90H
	DW	0f474H
	DW	0fb38H
	DW	0f59cH
	DW	0f90fH
	DW	0f72aH
	DW	0f72aH
	DW	0f90fH
	DW	0f59cH
	DW	0fb38H
	DW	0f474H
	DW	0fd90H
	DW	0f3beH
	DW	00H
	DW	0f340H
	DW	027cH
	DW	0f37fH
	DW	04e1H
	DW	0f439H
	DW	0715H
	DW	0f567H
	DW	0903H
	DW	0f6fdH
	DW	0a99H
	DW	0f8ebH
	DW	0bc7H
	DW	0fb1fH
	DW	0c81H
	DW	0fd84H
	DW	0cc0H
	DW	00H
	DW	0c81H
	DW	027cH
	DW	0bc7H
	DW	04e1H
	DW	0a99H
	DW	0715H
	DW	0903H
	DW	0903H
	DW	0715H
	DW	0a99H
	DW	04e1H
	DW	0bc7H
	DW	027cH
	DW	0c81H
	DW	00H
	DW	0cc0H
	DW	0fd84H
	DW	0c81H
	DW	0fb1fH
	DW	0bc7H
	DW	0f8ebH
	DW	0a99H
	DW	0f6fdH
	DW	0903H
	DW	0f567H
	DW	0715H
	DW	0f439H
	DW	04e1H
	DW	0f37fH
	DW	027cH
	DW	0f340H
	DW	00H
	DW	0f37fH
	DW	0fd84H
	DW	0f439H
	DW	0fb1fH
	DW	0f567H
	DW	0f8ebH
	DW	0f6fdH
	DW	0f6fdH
	DW	0f8ebH
	DW	0f567H
	DW	0fb1fH
	DW	0f439H
	DW	0fd84H
	DW	0f37fH
	DW	00H
	DW	0f300H
	DW	0289H
	DW	0f340H
	DW	04f9H
	DW	0f3feH
	DW	0738H
	DW	0f531H
	DW	0931H
	DW	0f6cfH
	DW	0acfH
	DW	0f8c8H
	DW	0c02H
	DW	0fb07H
	DW	0cc0H
	DW	0fd77H
	DW	0d00H
	DW	00H
	DW	0cc0H
	DW	0289H
	DW	0c02H
	DW	04f9H
	DW	0acfH
	DW	0738H
	DW	0931H
	DW	0931H
	DW	0738H
	DW	0acfH
	DW	04f9H
	DW	0c02H
	DW	0289H
	DW	0cc0H
	DW	00H
	DW	0d00H
	DW	0fd77H
	DW	0cc0H
	DW	0fb07H
	DW	0c02H
	DW	0f8c8H
	DW	0acfH
	DW	0f6cfH
	DW	0931H
	DW	0f531H
	DW	0738H
	DW	0f3feH
	DW	04f9H
	DW	0f340H
	DW	0289H
	DW	0f300H
	DW	00H
	DW	0f340H
	DW	0fd77H
	DW	0f3feH
	DW	0fb07H
	DW	0f531H
	DW	0f8c8H
	DW	0f6cfH
	DW	0f6cfH
	DW	0f8c8H
	DW	0f531H
	DW	0fb07H
	DW	0f3feH
	DW	0fd77H
	DW	0f340H
	DW	00H
	DW	0f2c0H
	DW	0295H
	DW	0f302H
	DW	0512H
	DW	0f3c3H
	DW	075cH
	DW	0f4fcH
	DW	095eH
	DW	0f6a2H
	DW	0b04H
	DW	0f8a4H
	DW	0c3dH
	DW	0faeeH
	DW	0cfeH
	DW	0fd6bH
	DW	0d40H
	DW	00H
	DW	0cfeH
	DW	0295H
	DW	0c3dH
	DW	0512H
	DW	0b04H
	DW	075cH
	DW	095eH
	DW	095eH
	DW	075cH
	DW	0b04H
	DW	0512H
	DW	0c3dH
	DW	0295H
	DW	0cfeH
	DW	00H
	DW	0d40H
	DW	0fd6bH
	DW	0cfeH
	DW	0faeeH
	DW	0c3dH
	DW	0f8a4H
	DW	0b04H
	DW	0f6a2H
	DW	095eH
	DW	0f4fcH
	DW	075cH
	DW	0f3c3H
	DW	0512H
	DW	0f302H
	DW	0295H
	DW	0f2c0H
	DW	00H
	DW	0f302H
	DW	0fd6bH
	DW	0f3c3H
	DW	0faeeH
	DW	0f4fcH
	DW	0f8a4H
	DW	0f6a2H
	DW	0f6a2H
	DW	0f8a4H
	DW	0f4fcH
	DW	0faeeH
	DW	0f3c3H
	DW	0fd6bH
	DW	0f302H
	DW	00H
	DW	0f280H
	DW	02a2H
	DW	0f2c3H
	DW	052aH
	DW	0f388H
	DW	0780H
	DW	0f4c7H
	DW	098bH
	DW	0f675H
	DW	0b39H
	DW	0f880H
	DW	0c78H
	DW	0fad6H
	DW	0d3dH
	DW	0fd5eH
	DW	0d80H
	DW	00H
	DW	0d3dH
	DW	02a2H
	DW	0c78H
	DW	052aH
	DW	0b39H
	DW	0780H
	DW	098bH
	DW	098bH
	DW	0780H
	DW	0b39H
	DW	052aH
	DW	0c78H
	DW	02a2H
	DW	0d3dH
	DW	00H
	DW	0d80H
	DW	0fd5eH
	DW	0d3dH
	DW	0fad6H
	DW	0c78H
	DW	0f880H
	DW	0b39H
	DW	0f675H
	DW	098bH
	DW	0f4c7H
	DW	0780H
	DW	0f388H
	DW	052aH
	DW	0f2c3H
	DW	02a2H
	DW	0f280H
	DW	00H
	DW	0f2c3H
	DW	0fd5eH
	DW	0f388H
	DW	0fad6H
	DW	0f4c7H
	DW	0f880H
	DW	0f675H
	DW	0f675H
	DW	0f880H
	DW	0f4c7H
	DW	0fad6H
	DW	0f388H
	DW	0fd5eH
	DW	0f2c3H
	DW	00H
	DW	0f240H
	DW	02aeH
	DW	0f284H
	DW	0543H
	DW	0f34cH
	DW	07a3H
	DW	0f492H
	DW	09b9H
	DW	0f647H
	DW	0b6eH
	DW	0f85dH
	DW	0cb4H
	DW	0fabdH
	DW	0d7cH
	DW	0fd52H
	DW	0dc0H
	DW	00H
	DW	0d7cH
	DW	02aeH
	DW	0cb4H
	DW	0543H
	DW	0b6eH
	DW	07a3H
	DW	09b9H
	DW	09b9H
	DW	07a3H
	DW	0b6eH
	DW	0543H
	DW	0cb4H
	DW	02aeH
	DW	0d7cH
	DW	00H
	DW	0dc0H
	DW	0fd52H
	DW	0d7cH
	DW	0fabdH
	DW	0cb4H
	DW	0f85dH
	DW	0b6eH
	DW	0f647H
	DW	09b9H
	DW	0f492H
	DW	07a3H
	DW	0f34cH
	DW	0543H
	DW	0f284H
	DW	02aeH
	DW	0f240H
	DW	00H
	DW	0f284H
	DW	0fd52H
	DW	0f34cH
	DW	0fabdH
	DW	0f492H
	DW	0f85dH
	DW	0f647H
	DW	0f647H
	DW	0f85dH
	DW	0f492H
	DW	0fabdH
	DW	0f34cH
	DW	0fd52H
	DW	0f284H
	DW	00H
	DW	0f200H
	DW	02bbH
	DW	0f245H
	DW	055bH
	DW	0f311H
	DW	07c7H
	DW	0f45dH
	DW	09e6H
	DW	0f61aH
	DW	0ba3H
	DW	0f839H
	DW	0cefH
	DW	0faa5H
	DW	0dbbH
	DW	0fd45H
	DW	0e00H
	DW	00H
	DW	0dbbH
	DW	02bbH
	DW	0cefH
	DW	055bH
	DW	0ba3H
	DW	07c7H
	DW	09e6H
	DW	09e6H
	DW	07c7H
	DW	0ba3H
	DW	055bH
	DW	0cefH
	DW	02bbH
	DW	0dbbH
	DW	00H
	DW	0e00H
	DW	0fd45H
	DW	0dbbH
	DW	0faa5H
	DW	0cefH
	DW	0f839H
	DW	0ba3H
	DW	0f61aH
	DW	09e6H
	DW	0f45dH
	DW	07c7H
	DW	0f311H
	DW	055bH
	DW	0f245H
	DW	02bbH
	DW	0f200H
	DW	00H
	DW	0f245H
	DW	0fd45H
	DW	0f311H
	DW	0faa5H
	DW	0f45dH
	DW	0f839H
	DW	0f61aH
	DW	0f61aH
	DW	0f839H
	DW	0f45dH
	DW	0faa5H
	DW	0f311H
	DW	0fd45H
	DW	0f245H
	DW	00H
	DW	0f1c0H
	DW	02c7H
	DW	0f207H
	DW	0574H
	DW	0f2d6H
	DW	07eaH
	DW	0f427H
	DW	0a13H
	DW	0f5edH
	DW	0bd9H
	DW	0f816H
	DW	0d2aH
	DW	0fa8cH
	DW	0df9H
	DW	0fd39H
	DW	0e40H
	DW	00H
	DW	0df9H
	DW	02c7H
	DW	0d2aH
	DW	0574H
	DW	0bd9H
	DW	07eaH
	DW	0a13H
	DW	0a13H
	DW	07eaH
	DW	0bd9H
	DW	0574H
	DW	0d2aH
	DW	02c7H
	DW	0df9H
	DW	00H
	DW	0e40H
	DW	0fd39H
	DW	0df9H
	DW	0fa8cH
	DW	0d2aH
	DW	0f816H
	DW	0bd9H
	DW	0f5edH
	DW	0a13H
	DW	0f427H
	DW	07eaH
	DW	0f2d6H
	DW	0574H
	DW	0f207H
	DW	02c7H
	DW	0f1c0H
	DW	00H
	DW	0f207H
	DW	0fd39H
	DW	0f2d6H
	DW	0fa8cH
	DW	0f427H
	DW	0f816H
	DW	0f5edH
	DW	0f5edH
	DW	0f816H
	DW	0f427H
	DW	0fa8cH
	DW	0f2d6H
	DW	0fd39H
	DW	0f207H
	DW	00H
	DW	0f180H
	DW	02d4H
	DW	0f1c8H
	DW	058cH
	DW	0f29bH
	DW	080eH
	DW	0f3f2H
	DW	0a40H
	DW	0f5c0H
	DW	0c0eH
	DW	0f7f2H
	DW	0d65H
	DW	0fa74H
	DW	0e38H
	DW	0fd2cH
	DW	0e80H
	DW	00H
	DW	0e38H
	DW	02d4H
	DW	0d65H
	DW	058cH
	DW	0c0eH
	DW	080eH
	DW	0a40H
	DW	0a40H
	DW	080eH
	DW	0c0eH
	DW	058cH
	DW	0d65H
	DW	02d4H
	DW	0e38H
	DW	00H
	DW	0e80H
	DW	0fd2cH
	DW	0e38H
	DW	0fa74H
	DW	0d65H
	DW	0f7f2H
	DW	0c0eH
	DW	0f5c0H
	DW	0a40H
	DW	0f3f2H
	DW	080eH
	DW	0f29bH
	DW	058cH
	DW	0f1c8H
	DW	02d4H
	DW	0f180H
	DW	00H
	DW	0f1c8H
	DW	0fd2cH
	DW	0f29bH
	DW	0fa74H
	DW	0f3f2H
	DW	0f7f2H
	DW	0f5c0H
	DW	0f5c0H
	DW	0f7f2H
	DW	0f3f2H
	DW	0fa74H
	DW	0f29bH
	DW	0fd2cH
	DW	0f1c8H
	DW	00H
	DW	0f140H
	DW	02e0H
	DW	0f189H
	DW	05a5H
	DW	0f260H
	DW	0831H
	DW	0f3bdH
	DW	0a6eH
	DW	0f592H
	DW	0c43H
	DW	0f7cfH
	DW	0da0H
	DW	0fa5bH
	DW	0e77H
	DW	0fd20H
	DW	0ec0H
	DW	00H
	DW	0e77H
	DW	02e0H
	DW	0da0H
	DW	05a5H
	DW	0c43H
	DW	0831H
	DW	0a6eH
	DW	0a6eH
	DW	0831H
	DW	0c43H
	DW	05a5H
	DW	0da0H
	DW	02e0H
	DW	0e77H
	DW	00H
	DW	0ec0H
	DW	0fd20H
	DW	0e77H
	DW	0fa5bH
	DW	0da0H
	DW	0f7cfH
	DW	0c43H
	DW	0f592H
	DW	0a6eH
	DW	0f3bdH
	DW	0831H
	DW	0f260H
	DW	05a5H
	DW	0f189H
	DW	02e0H
	DW	0f140H
	DW	00H
	DW	0f189H
	DW	0fd20H
	DW	0f260H
	DW	0fa5bH
	DW	0f3bdH
	DW	0f7cfH
	DW	0f592H
	DW	0f592H
	DW	0f7cfH
	DW	0f3bdH
	DW	0fa5bH
	DW	0f260H
	DW	0fd20H
	DW	0f189H
	DW	00H
	DW	0f100H
	DW	02edH
	DW	0f14aH
	DW	05bdH
	DW	0f225H
	DW	0855H
	DW	0f388H
	DW	0a9bH
	DW	0f565H
	DW	0c78H
	DW	0f7abH
	DW	0ddbH
	DW	0fa43H
	DW	0eb6H
	DW	0fd13H
	DW	0f00H
	DW	00H
	DW	0eb6H
	DW	02edH
	DW	0ddbH
	DW	05bdH
	DW	0c78H
	DW	0855H
	DW	0a9bH
	DW	0a9bH
	DW	0855H
	DW	0c78H
	DW	05bdH
	DW	0ddbH
	DW	02edH
	DW	0eb6H
	DW	00H
	DW	0f00H
	DW	0fd13H
	DW	0eb6H
	DW	0fa43H
	DW	0ddbH
	DW	0f7abH
	DW	0c78H
	DW	0f565H
	DW	0a9bH
	DW	0f388H
	DW	0855H
	DW	0f225H
	DW	05bdH
	DW	0f14aH
	DW	02edH
	DW	0f100H
	DW	00H
	DW	0f14aH
	DW	0fd13H
	DW	0f225H
	DW	0fa43H
	DW	0f388H
	DW	0f7abH
	DW	0f565H
	DW	0f565H
	DW	0f7abH
	DW	0f388H
	DW	0fa43H
	DW	0f225H
	DW	0fd13H
	DW	0f14aH
	DW	00H
	DW	0f0c0H
	DW	02f9H
	DW	0f10cH
	DW	05d5H
	DW	0f1eaH
	DW	0878H
	DW	0f352H
	DW	0ac8H
	DW	0f538H
	DW	0caeH
	DW	0f788H
	DW	0e16H
	DW	0fa2bH
	DW	0ef4H
	DW	0fd07H
	DW	0f40H
	DW	00H
	DW	0ef4H
	DW	02f9H
	DW	0e16H
	DW	05d5H
	DW	0caeH
	DW	0878H
	DW	0ac8H
	DW	0ac8H
	DW	0878H
	DW	0caeH
	DW	05d5H
	DW	0e16H
	DW	02f9H
	DW	0ef4H
	DW	00H
	DW	0f40H
	DW	0fd07H
	DW	0ef4H
	DW	0fa2bH
	DW	0e16H
	DW	0f788H
	DW	0caeH
	DW	0f538H
	DW	0ac8H
	DW	0f352H
	DW	0878H
	DW	0f1eaH
	DW	05d5H
	DW	0f10cH
	DW	02f9H
	DW	0f0c0H
	DW	00H
	DW	0f10cH
	DW	0fd07H
	DW	0f1eaH
	DW	0fa2bH
	DW	0f352H
	DW	0f788H
	DW	0f538H
	DW	0f538H
	DW	0f788H
	DW	0f352H
	DW	0fa2bH
	DW	0f1eaH
	DW	0fd07H
	DW	0f10cH
	DW	00H
	DW	0f080H
	DW	0306H
	DW	0f0cdH
	DW	05eeH
	DW	0f1afH
	DW	089cH
	DW	0f31dH
	DW	0af5H
	DW	0f50bH
	DW	0ce3H
	DW	0f764H
	DW	0e51H
	DW	0fa12H
	DW	0f33H
	DW	0fcfaH
	DW	0f80H
	DW	00H
	DW	0f33H
	DW	0306H
	DW	0e51H
	DW	05eeH
	DW	0ce3H
	DW	089cH
	DW	0af5H
	DW	0af5H
	DW	089cH
	DW	0ce3H
	DW	05eeH
	DW	0e51H
	DW	0306H
	DW	0f33H
	DW	00H
	DW	0f80H
	DW	0fcfaH
	DW	0f33H
	DW	0fa12H
	DW	0e51H
	DW	0f764H
	DW	0ce3H
	DW	0f50bH
	DW	0af5H
	DW	0f31dH
	DW	089cH
	DW	0f1afH
	DW	05eeH
	DW	0f0cdH
	DW	0306H
	DW	0f080H
	DW	00H
	DW	0f0cdH
	DW	0fcfaH
	DW	0f1afH
	DW	0fa12H
	DW	0f31dH
	DW	0f764H
	DW	0f50bH
	DW	0f50bH
	DW	0f764H
	DW	0f31dH
	DW	0fa12H
	DW	0f1afH
	DW	0fcfaH
	DW	0f0cdH
	DW	00H
	DW	0f040H
	DW	0312H
	DW	0f08eH
	DW	0606H
	DW	0f173H
	DW	08c0H
	DW	0f2e8H
	DW	0b23H
	DW	0f4ddH
	DW	0d18H
	DW	0f740H
	DW	0e8dH
	DW	0f9faH
	DW	0f72H
	DW	0fceeH
	DW	0fc0H
	DW	00H
	DW	0f72H
	DW	0312H
	DW	0e8dH
	DW	0606H
	DW	0d18H
	DW	08c0H
	DW	0b23H
	DW	0b23H
	DW	08c0H
	DW	0d18H
	DW	0606H
	DW	0e8dH
	DW	0312H
	DW	0f72H
	DW	00H
	DW	0fc0H
	DW	0fceeH
	DW	0f72H
	DW	0f9faH
	DW	0e8dH
	DW	0f740H
	DW	0d18H
	DW	0f4ddH
	DW	0b23H
	DW	0f2e8H
	DW	08c0H
	DW	0f173H
	DW	0606H
	DW	0f08eH
	DW	0312H
	DW	0f040H
	DW	00H
	DW	0f08eH
	DW	0fceeH
	DW	0f173H
	DW	0f9faH
	DW	0f2e8H
	DW	0f740H
	DW	0f4ddH
	DW	0f4ddH
	DW	0f740H
	DW	0f2e8H
	DW	0f9faH
	DW	0f173H
	DW	0fceeH
	DW	0f08eH
_DATA	ENDS
PUBLIC	?gemini@@YAXPAUaction@@@Z			; gemini
EXTRN	__RTC_InitBase:PROC
EXTRN	__RTC_Shutdown:PROC
;	COMDAT rtc$TMZ
rtc$TMZ	SEGMENT
__RTC_Shutdown.rtc$TMZ DD FLAT:__RTC_Shutdown
rtc$TMZ	ENDS
;	COMDAT rtc$IMZ
rtc$IMZ	SEGMENT
__RTC_InitBase.rtc$IMZ DD FLAT:__RTC_InitBase
rtc$IMZ	ENDS
; Function compile flags: /Odtp /RTCsu /ZI
; File c:\users\administrator\desktop\????? ??\????? ??\client source code\system\gemini.cpp
;	COMDAT ?gemini@@YAXPAUaction@@@Z
_TEXT	SEGMENT
_a1$ = -92						; size = 2
_d0$ = -80						; size = 4
_d6$ = -68						; size = 4
_d5$ = -56						; size = 4
_d4$ = -44						; size = 4
_d3$ = -32						; size = 4
_d2$ = -20						; size = 4
_d1$ = -8						; size = 4
_a0$ = 8						; size = 4
?gemini@@YAXPAUaction@@@Z PROC				; gemini, COMDAT

; 596  : {

  00000	55		 push	 ebp
  00001	8b ec		 mov	 ebp, esp
  00003	81 ec 20 01 00
	00		 sub	 esp, 288		; 00000120H
  00009	53		 push	 ebx
  0000a	56		 push	 esi
  0000b	57		 push	 edi
  0000c	8d bd e0 fe ff
	ff		 lea	 edi, DWORD PTR [ebp-288]
  00012	b9 48 00 00 00	 mov	 ecx, 72			; 00000048H
  00017	b8 cc cc cc cc	 mov	 eax, -858993460		; ccccccccH
  0001c	f3 ab		 rep stosd

; 597  : 	Sint32 d1,d2,d3,d4,d5,d6;
; 598  : 	Sint32 d0;
; 599  : 	Uint16 a1;
; 600  : 	d5=((Sint32)ATR_H_POS(a0))<<16;

  0001e	8b 45 08	 mov	 eax, DWORD PTR _a0$[ebp]
  00021	8b 48 18	 mov	 ecx, DWORD PTR [eax+24]
  00024	c1 e1 10	 shl	 ecx, 16			; 00000010H
  00027	89 4d c8	 mov	 DWORD PTR _d5$[ebp], ecx

; 601  : 	d6=((Sint32)ATR_V_POS(a0))<<16;

  0002a	8b 45 08	 mov	 eax, DWORD PTR _a0$[ebp]
  0002d	8b 48 1c	 mov	 ecx, DWORD PTR [eax+28]
  00030	c1 e1 10	 shl	 ecx, 16			; 00000010H
  00033	89 4d bc	 mov	 DWORD PTR _d6$[ebp], ecx

; 602  : 	d5+=(Sint32)(ATR_H_MINI(a0))<<8;

  00036	8b 45 08	 mov	 eax, DWORD PTR _a0$[ebp]
  00039	8b 88 3c 01 00
	00		 mov	 ecx, DWORD PTR [eax+316]
  0003f	c1 e1 08	 shl	 ecx, 8
  00042	03 4d c8	 add	 ecx, DWORD PTR _d5$[ebp]
  00045	89 4d c8	 mov	 DWORD PTR _d5$[ebp], ecx

; 603  : 	d6+=(Sint32)(ATR_V_MINI(a0))<<8;

  00048	8b 45 08	 mov	 eax, DWORD PTR _a0$[ebp]
  0004b	8b 88 40 01 00
	00		 mov	 ecx, DWORD PTR [eax+320]
  00051	c1 e1 08	 shl	 ecx, 8
  00054	03 4d bc	 add	 ecx, DWORD PTR _d6$[ebp]
  00057	89 4d bc	 mov	 DWORD PTR _d6$[ebp], ecx

; 604  : 	if(!(d0=ATR_SPD(a0)))

  0005a	8b 45 08	 mov	 eax, DWORD PTR _a0$[ebp]
  0005d	8b 88 34 01 00
	00		 mov	 ecx, DWORD PTR [eax+308]
  00063	89 4d b0	 mov	 DWORD PTR _d0$[ebp], ecx
  00066	83 7d b0 00	 cmp	 DWORD PTR _d0$[ebp], 0
  0006a	75 05		 jne	 SHORT $LN2@gemini

; 605  : 		return;

  0006c	e9 ed 00 00 00	 jmp	 $LN1@gemini
$LN2@gemini:

; 606  : 	d0--;

  00071	8b 45 b0	 mov	 eax, DWORD PTR _d0$[ebp]
  00074	83 e8 01	 sub	 eax, 1
  00077	89 45 b0	 mov	 DWORD PTR _d0$[ebp], eax

; 607  : 	a1=((Uint16)d0)<<6;		/*32(DIR)*2(H/V)*2(BYTE)=128BYTE*/

  0007a	0f b7 45 b0	 movzx	 eax, WORD PTR _d0$[ebp]
  0007e	c1 e0 06	 shl	 eax, 6
  00081	66 89 45 a4	 mov	 WORD PTR _a1$[ebp], ax

; 608  : 	d0=ATR_CRS(a0);			/*COURSE $00 ~ $1F*/

  00085	8b 45 08	 mov	 eax, DWORD PTR _a0$[ebp]
  00088	8b 88 38 01 00
	00		 mov	 ecx, DWORD PTR [eax+312]
  0008e	89 4d b0	 mov	 DWORD PTR _d0$[ebp], ecx

; 609  : 	a1+=((Uint16)d0)*2;

  00091	0f b7 45 b0	 movzx	 eax, WORD PTR _d0$[ebp]
  00095	0f b7 4d a4	 movzx	 ecx, WORD PTR _a1$[ebp]
  00099	8d 14 41	 lea	 edx, DWORD PTR [ecx+eax*2]
  0009c	66 89 55 a4	 mov	 WORD PTR _a1$[ebp], dx

; 610  : 
; 611  : 	d1=(Sint32)(DELTA_TBL[a1]);		/*H DELTA*/

  000a0	0f b7 45 a4	 movzx	 eax, WORD PTR _a1$[ebp]
  000a4	0f bf 0c 45 00
	00 00 00	 movsx	 ecx, WORD PTR ?DELTA_TBL@@3PAFA[eax*2]
  000ac	89 4d f8	 mov	 DWORD PTR _d1$[ebp], ecx

; 612  : 	d1=d1<<8;

  000af	8b 45 f8	 mov	 eax, DWORD PTR _d1$[ebp]
  000b2	c1 e0 08	 shl	 eax, 8
  000b5	89 45 f8	 mov	 DWORD PTR _d1$[ebp], eax

; 613  : 	d5+=d1;

  000b8	8b 45 c8	 mov	 eax, DWORD PTR _d5$[ebp]
  000bb	03 45 f8	 add	 eax, DWORD PTR _d1$[ebp]
  000be	89 45 c8	 mov	 DWORD PTR _d5$[ebp], eax

; 614  : 
; 615  : 	d1=(Sint32)(DELTA_TBL[a1+1]);		/*V DELTA*/

  000c1	0f b7 45 a4	 movzx	 eax, WORD PTR _a1$[ebp]
  000c5	0f bf 0c 45 02
	00 00 00	 movsx	 ecx, WORD PTR ?DELTA_TBL@@3PAFA[eax*2+2]
  000cd	89 4d f8	 mov	 DWORD PTR _d1$[ebp], ecx

; 616  : 	d1=d1<<8;

  000d0	8b 45 f8	 mov	 eax, DWORD PTR _d1$[ebp]
  000d3	c1 e0 08	 shl	 eax, 8
  000d6	89 45 f8	 mov	 DWORD PTR _d1$[ebp], eax

; 617  : 	d6+=d1;

  000d9	8b 45 bc	 mov	 eax, DWORD PTR _d6$[ebp]
  000dc	03 45 f8	 add	 eax, DWORD PTR _d1$[ebp]
  000df	89 45 bc	 mov	 DWORD PTR _d6$[ebp], eax

; 618  : 
; 619  : 	d3=(Sint32)(ATR_H_POS(a0));

  000e2	8b 45 08	 mov	 eax, DWORD PTR _a0$[ebp]
  000e5	8b 48 18	 mov	 ecx, DWORD PTR [eax+24]
  000e8	89 4d e0	 mov	 DWORD PTR _d3$[ebp], ecx

; 620  : 	d4=(Sint32)(ATR_V_POS(a0));

  000eb	8b 45 08	 mov	 eax, DWORD PTR _a0$[ebp]
  000ee	8b 48 1c	 mov	 ecx, DWORD PTR [eax+28]
  000f1	89 4d d4	 mov	 DWORD PTR _d4$[ebp], ecx

; 621  : 	d1=d5>>16;

  000f4	8b 45 c8	 mov	 eax, DWORD PTR _d5$[ebp]
  000f7	c1 f8 10	 sar	 eax, 16			; 00000010H
  000fa	89 45 f8	 mov	 DWORD PTR _d1$[ebp], eax

; 622  : 	d2=d6>>16;

  000fd	8b 45 bc	 mov	 eax, DWORD PTR _d6$[ebp]
  00100	c1 f8 10	 sar	 eax, 16			; 00000010H
  00103	89 45 ec	 mov	 DWORD PTR _d2$[ebp], eax

; 623  : 	d1-=d3;

  00106	8b 45 f8	 mov	 eax, DWORD PTR _d1$[ebp]
  00109	2b 45 e0	 sub	 eax, DWORD PTR _d3$[ebp]
  0010c	89 45 f8	 mov	 DWORD PTR _d1$[ebp], eax

; 624  : 	d2-=d4;

  0010f	8b 45 ec	 mov	 eax, DWORD PTR _d2$[ebp]
  00112	2b 45 d4	 sub	 eax, DWORD PTR _d4$[ebp]
  00115	89 45 ec	 mov	 DWORD PTR _d2$[ebp], eax

; 625  : 	ATR_H_MINI(a0)=(int)((d5>>8)&0x000000ff);

  00118	8b 45 c8	 mov	 eax, DWORD PTR _d5$[ebp]
  0011b	c1 f8 08	 sar	 eax, 8
  0011e	25 ff 00 00 00	 and	 eax, 255		; 000000ffH
  00123	8b 4d 08	 mov	 ecx, DWORD PTR _a0$[ebp]
  00126	89 81 3c 01 00
	00		 mov	 DWORD PTR [ecx+316], eax

; 626  : 	ATR_V_MINI(a0)=(int)((d6>>8)&0x000000ff);

  0012c	8b 45 bc	 mov	 eax, DWORD PTR _d6$[ebp]
  0012f	c1 f8 08	 sar	 eax, 8
  00132	25 ff 00 00 00	 and	 eax, 255		; 000000ffH
  00137	8b 4d 08	 mov	 ecx, DWORD PTR _a0$[ebp]
  0013a	89 81 40 01 00
	00		 mov	 DWORD PTR [ecx+320], eax

; 627  : 	ATR_H_POS(a0)+=(int)d1;

  00140	8b 45 08	 mov	 eax, DWORD PTR _a0$[ebp]
  00143	8b 48 18	 mov	 ecx, DWORD PTR [eax+24]
  00146	03 4d f8	 add	 ecx, DWORD PTR _d1$[ebp]
  00149	8b 55 08	 mov	 edx, DWORD PTR _a0$[ebp]
  0014c	89 4a 18	 mov	 DWORD PTR [edx+24], ecx

; 628  : 	ATR_V_POS(a0)+=(int)d2;

  0014f	8b 45 08	 mov	 eax, DWORD PTR _a0$[ebp]
  00152	8b 48 1c	 mov	 ecx, DWORD PTR [eax+28]
  00155	03 4d ec	 add	 ecx, DWORD PTR _d2$[ebp]
  00158	8b 55 08	 mov	 edx, DWORD PTR _a0$[ebp]
  0015b	89 4a 1c	 mov	 DWORD PTR [edx+28], ecx
$LN1@gemini:

; 629  : }

  0015e	5f		 pop	 edi
  0015f	5e		 pop	 esi
  00160	5b		 pop	 ebx
  00161	8b e5		 mov	 esp, ebp
  00163	5d		 pop	 ebp
  00164	c3		 ret	 0
?gemini@@YAXPAUaction@@@Z ENDP				; gemini
_TEXT	ENDS
END
