; Listing generated by Microsoft (R) Optimizing Compiler Version 19.00.24215.1 

	TITLE	C:\Users\Administrator\Desktop\????? ??\????? ??\Client Source Code\system\Help.cpp
	.686P
	.XMM
	include listing.inc
	.model	flat

INCLUDELIB MSVCRTD
INCLUDELIB OLDNAMES

PUBLIC	?help_bmp@@3PAUHELPBMP@@A			; help_bmp
PUBLIC	?help_desc_1@@3PAUDESC@@A			; help_desc_1
PUBLIC	?help_desc_2@@3PAUDESC@@A			; help_desc_2
PUBLIC	?help_desc_3@@3PAUDESC@@A			; help_desc_3
PUBLIC	?help_desc_4@@3PAUDESC@@A			; help_desc_4
PUBLIC	?help_desc_5@@3PAUDESC@@A			; help_desc_5
PUBLIC	?help_desc_6@@3PAUDESC@@A			; help_desc_6
PUBLIC	?help_desc_7@@3PAUDESC@@A			; help_desc_7
PUBLIC	?help_desc_8@@3PAUDESC@@A			; help_desc_8
PUBLIC	?help_desc_9@@3PAUDESC@@A			; help_desc_9
PUBLIC	?help_desc_10@@3PAUDESC@@A			; help_desc_10
PUBLIC	?help_desc_11@@3PAUDESC@@A			; help_desc_11
PUBLIC	?help_desc_12@@3PAUDESC@@A			; help_desc_12
PUBLIC	?help_desc_13@@3PAUDESC@@A			; help_desc_13
PUBLIC	?help_desc_14@@3PAUDESC@@A			; help_desc_14
PUBLIC	?help_desc_15@@3PAUDESC@@A			; help_desc_15
PUBLIC	?help_desc_16@@3PAUDESC@@A			; help_desc_16
PUBLIC	?help_desc_17@@3PAUDESC@@A			; help_desc_17
PUBLIC	?help_desc_18@@3PAUDESC@@A			; help_desc_18
PUBLIC	?help_desc_19@@3PAUDESC@@A			; help_desc_19
PUBLIC	?help_desc_20@@3PAUDESC@@A			; help_desc_20
PUBLIC	?help_desc_21@@3PAUDESC@@A			; help_desc_21
PUBLIC	?help_desc_22@@3PAUDESC@@A			; help_desc_22
PUBLIC	?help_desc_23@@3PAUDESC@@A			; help_desc_23
PUBLIC	?help_desc_24@@3PAUDESC@@A			; help_desc_24
PUBLIC	?help_desc_25@@3PAUDESC@@A			; help_desc_25
PUBLIC	?help_desc_26@@3PAUDESC@@A			; help_desc_26
PUBLIC	?help_desc_27@@3PAUDESC@@A			; help_desc_27
PUBLIC	?help_desc_28@@3PAUDESC@@A			; help_desc_28
PUBLIC	?help_desc_29@@3PAUDESC@@A			; help_desc_29
PUBLIC	?help_desc_30@@3PAUDESC@@A			; help_desc_30
PUBLIC	?help_desc_31@@3PAUDESC@@A			; help_desc_31
PUBLIC	?help_desc_32@@3PAUDESC@@A			; help_desc_32
PUBLIC	?help_index@@3PAPAUDESC@@A			; help_index
PUBLIC	?help_page@@3PAUPAGE@@A				; help_page
PUBLIC	?help_seg@@3PAUSEG@@A				; help_seg
PUBLIC	?HelpProcNo@@3FA				; HelpProcNo
PUBLIC	?HelpMsg@@3PAY0CA@DA				; HelpMsg
PUBLIC	?jumpHelpPage@@3FA				; jumpHelpPage
PUBLIC	?jumpHelpSeg@@3FA				; jumpHelpSeg
_BSS	SEGMENT
?HelpProcNo@@3FA DW 01H DUP (?)				; HelpProcNo
	ALIGN	4

?jumpHelpPage@@3FA DW 01H DUP (?)			; jumpHelpPage
	ALIGN	4

?jumpHelpSeg@@3FA DW 01H DUP (?)			; jumpHelpSeg
	ALIGN	4

?ptActMenuWin@?1??HelpProc@@YAHXZ@4PAUaction@@A DD 01H DUP (?) ; `HelpProc'::`2'::ptActMenuWin
?seg_index@?1??HelpProc@@YAHXZ@4HA DD 01H DUP (?)	; `HelpProc'::`2'::seg_index
?page_index@?1??HelpProc@@YAHXZ@4HA DD 01H DUP (?)	; `HelpProc'::`2'::page_index
?desc_index@?1??HelpProc@@YAHXZ@4HA DD 01H DUP (?)	; `HelpProc'::`2'::desc_index
?history_index@?1??HelpProc@@YAHXZ@4HA DD 01H DUP (?)	; `HelpProc'::`2'::history_index
_BSS	ENDS
_DATA	SEGMENT
?ridePetTable@@3PAUtagRidePetTable@@A DD 018a88H	; ridePetTable
	DD	0186a0H
	DD	018800H
	DD	00H
	DD	018a89H
	DD	0186a5H
	DD	018800H
	DD	00H
	DD	018a8aH
	DD	0186aaH
	DD	018800H
	DD	00H
	DD	018a8bH
	DD	0186afH
	DD	018800H
	DD	00H
	DD	018a8cH
	DD	0186a0H
	DD	0187e9H
	DD	00H
	DD	018a8dH
	DD	0186a5H
	DD	0187e7H
	DD	00H
	DD	018a8eH
	DD	0186aaH
	DD	0187eaH
	DD	00H
	DD	018a8fH
	DD	0186afH
	DD	0187e8H
	DD	00H
	DD	018a90H
	DD	01895cH
	DD	018814H
	DD	00H
	DD	018a91H
	DD	018961H
	DD	018815H
	DD	00H
	DD	018e65H
	DD	018961H
	DD	018cc8H
	DD	00H
	DD	018e5aH
	DD	018961H
	DD	018c9cH
	DD	00H
	DD	018a92H
	DD	0186b4H
	DD	01882cH
	DD	00H
	DD	018a93H
	DD	0186b9H
	DD	01882cH
	DD	00H
	DD	018a94H
	DD	0186beH
	DD	01882cH
	DD	00H
	DD	018a95H
	DD	0186c3H
	DD	01882cH
	DD	00H
	DD	018a96H
	DD	0186b4H
	DD	0187e8H
	DD	00H
	DD	018a97H
	DD	0186b9H
	DD	0187e9H
	DD	00H
	DD	018a98H
	DD	0186beH
	DD	0187e7H
	DD	00H
	DD	018a99H
	DD	0186c3H
	DD	0187eaH
	DD	00H
	DD	018a9aH
	DD	018966H
	DD	018814H
	DD	00H
	DD	018a9bH
	DD	01896bH
	DD	018815H
	DD	00H
	DD	018e64H
	DD	01896bH
	DD	018cc8H
	DD	00H
	DD	018e62H
	DD	01896bH
	DD	018c9cH
	DD	00H
	DD	018a9cH
	DD	0186c8H
	DD	0187ffH
	DD	00H
	DD	018a9dH
	DD	0186cdH
	DD	0187ffH
	DD	00H
	DD	018a9eH
	DD	0186d2H
	DD	0187ffH
	DD	00H
	DD	018a9fH
	DD	0186d7H
	DD	0187ffH
	DD	00H
	DD	018aa0H
	DD	0186c8H
	DD	0187e8H
	DD	00H
	DD	018aa1H
	DD	0186cdH
	DD	0187eaH
	DD	00H
	DD	018aa2H
	DD	0186d2H
	DD	0187e7H
	DD	00H
	DD	018aa3H
	DD	0186d7H
	DD	0187e9H
	DD	00H
	DD	018aa4H
	DD	018970H
	DD	018814H
	DD	00H
	DD	018aa5H
	DD	018975H
	DD	018815H
	DD	00H
	DD	018e4dH
	DD	018975H
	DD	018cc8H
	DD	00H
	DD	018e57H
	DD	018975H
	DD	018c9cH
	DD	00H
	DD	018aa6H
	DD	0186dcH
	DD	018801H
	DD	00H
	DD	018aa7H
	DD	0186e1H
	DD	018801H
	DD	00H
	DD	018aa8H
	DD	0186e6H
	DD	018801H
	DD	00H
	DD	018aa9H
	DD	0186ebH
	DD	018801H
	DD	00H
	DD	018aaaH
	DD	0186dcH
	DD	0187e9H
	DD	00H
	DD	018aabH
	DD	0186e1H
	DD	0187e7H
	DD	00H
	DD	018aacH
	DD	0186e6H
	DD	0187eaH
	DD	00H
	DD	018aadH
	DD	0186ebH
	DD	0187e8H
	DD	00H
	DD	018aaeH
	DD	01897aH
	DD	018814H
	DD	00H
	DD	018aafH
	DD	01897fH
	DD	018815H
	DD	00H
	DD	018e4eH
	DD	01897fH
	DD	018cc8H
	DD	00H
	DD	018e58H
	DD	01897fH
	DD	018c9cH
	DD	00H
	DD	018ab0H
	DD	0186f0H
	DD	01882cH
	DD	00H
	DD	018ab1H
	DD	0186f5H
	DD	01882cH
	DD	00H
	DD	018ab2H
	DD	0186faH
	DD	01882cH
	DD	00H
	DD	018ab3H
	DD	0186ffH
	DD	01882cH
	DD	00H
	DD	018ab4H
	DD	0186f0H
	DD	0187e8H
	DD	00H
	DD	018ab5H
	DD	0186f5H
	DD	0187e7H
	DD	00H
	DD	018ab6H
	DD	0186faH
	DD	0187eaH
	DD	00H
	DD	018ab7H
	DD	0186ffH
	DD	0187e9H
	DD	00H
	DD	018ab8H
	DD	018984H
	DD	018814H
	DD	00H
	DD	018ab9H
	DD	018989H
	DD	018815H
	DD	00H
	DD	018e55H
	DD	018989H
	DD	018cc8H
	DD	00H
	DD	018e60H
	DD	018989H
	DD	018c9cH
	DD	00H
	DD	018abaH
	DD	018704H
	DD	018801H
	DD	00H
	DD	018abbH
	DD	018709H
	DD	018801H
	DD	00H
	DD	018abcH
	DD	01870eH
	DD	018801H
	DD	00H
	DD	018abdH
	DD	018713H
	DD	018801H
	DD	00H
	DD	018abeH
	DD	018704H
	DD	0187e9H
	DD	00H
	DD	018abfH
	DD	018709H
	DD	0187e8H
	DD	00H
	DD	018ac0H
	DD	01870eH
	DD	0187eaH
	DD	00H
	DD	018ac1H
	DD	018713H
	DD	0187e7H
	DD	00H
	DD	018ac2H
	DD	01898eH
	DD	018814H
	DD	00H
	DD	018ac3H
	DD	018993H
	DD	018815H
	DD	00H
	DD	018e56H
	DD	018993H
	DD	018cc8H
	DD	00H
	DD	018e61H
	DD	018993H
	DD	018c9cH
	DD	00H
	DD	018ac4H
	DD	018718H
	DD	018802H
	DD	00H
	DD	018ac5H
	DD	01871dH
	DD	018802H
	DD	00H
	DD	018ac6H
	DD	018722H
	DD	018802H
	DD	00H
	DD	018ac7H
	DD	018727H
	DD	018802H
	DD	00H
	DD	018ac8H
	DD	018718H
	DD	0187e7H
	DD	00H
	DD	018ac9H
	DD	01871dH
	DD	0187eaH
	DD	00H
	DD	018acaH
	DD	018722H
	DD	0187e8H
	DD	00H
	DD	018acbH
	DD	018727H
	DD	0187e9H
	DD	00H
	DD	018accH
	DD	018998H
	DD	018814H
	DD	00H
	DD	018acdH
	DD	01899dH
	DD	018815H
	DD	00H
	DD	018e4fH
	DD	01899dH
	DD	018cc8H
	DD	00H
	DD	018e59H
	DD	01899dH
	DD	018c9cH
	DD	00H
	DD	018aceH
	DD	01872cH
	DD	018802H
	DD	00H
	DD	018acfH
	DD	018731H
	DD	018802H
	DD	00H
	DD	018ad0H
	DD	018736H
	DD	018802H
	DD	00H
	DD	018ad1H
	DD	01873bH
	DD	018802H
	DD	00H
	DD	018ad2H
	DD	01872cH
	DD	0187e7H
	DD	00H
	DD	018ad3H
	DD	018731H
	DD	0187e9H
	DD	00H
	DD	018ad4H
	DD	018736H
	DD	0187eaH
	DD	00H
	DD	018ad5H
	DD	01873bH
	DD	0187e8H
	DD	00H
	DD	018ad6H
	DD	0189a2H
	DD	018814H
	DD	00H
	DD	018ad7H
	DD	0189a7H
	DD	018815H
	DD	00H
	DD	018e50H
	DD	0189a7H
	DD	018cc8H
	DD	00H
	DD	018e5bH
	DD	0189a7H
	DD	018c9cH
	DD	00H
	DD	018ad8H
	DD	018740H
	DD	018800H
	DD	00H
	DD	018ad9H
	DD	018745H
	DD	018800H
	DD	00H
	DD	018adaH
	DD	01874aH
	DD	018800H
	DD	00H
	DD	018adbH
	DD	01874fH
	DD	018800H
	DD	00H
	DD	018adcH
	DD	018740H
	DD	0187eaH
	DD	00H
	DD	018addH
	DD	018745H
	DD	0187e9H
	DD	00H
	DD	018adeH
	DD	01874aH
	DD	0187e7H
	DD	00H
	DD	018adfH
	DD	01874fH
	DD	0187e8H
	DD	00H
	DD	018ae0H
	DD	0189acH
	DD	018814H
	DD	00H
	DD	018ae1H
	DD	0189b1H
	DD	018815H
	DD	00H
	DD	018e52H
	DD	0189b1H
	DD	018cc8H
	DD	00H
	DD	018e5dH
	DD	0189b1H
	DD	018c9cH
	DD	00H
	DD	018ae2H
	DD	018754H
	DD	0187ffH
	DD	00H
	DD	018ae3H
	DD	018759H
	DD	0187ffH
	DD	00H
	DD	018ae4H
	DD	01875eH
	DD	0187ffH
	DD	00H
	DD	018ae5H
	DD	018763H
	DD	0187ffH
	DD	00H
	DD	018ae6H
	DD	018754H
	DD	0187e8H
	DD	00H
	DD	018ae7H
	DD	018759H
	DD	0187eaH
	DD	00H
	DD	018ae8H
	DD	01875eH
	DD	0187e9H
	DD	00H
	DD	018ae9H
	DD	018763H
	DD	0187e7H
	DD	00H
	DD	018aeaH
	DD	0189b6H
	DD	018814H
	DD	00H
	DD	018aebH
	DD	0189bbH
	DD	018815H
	DD	00H
	DD	018e51H
	DD	0189bbH
	DD	018cc8H
	DD	00H
	DD	018e5cH
	DD	0189bbH
	DD	018c9cH
	DD	00H
	DD	018aecH
	DD	018768H
	DD	018801H
	DD	00H
	DD	018aedH
	DD	01876dH
	DD	018801H
	DD	00H
	DD	018aeeH
	DD	018772H
	DD	018801H
	DD	00H
	DD	018aefH
	DD	018777H
	DD	018801H
	DD	00H
	DD	018af0H
	DD	018768H
	DD	0187e9H
	DD	00H
	DD	018af1H
	DD	01876dH
	DD	0187e8H
	DD	00H
	DD	018af2H
	DD	018772H
	DD	0187e7H
	DD	00H
	DD	018af3H
	DD	018777H
	DD	0187eaH
	DD	00H
	DD	018af4H
	DD	0189c0H
	DD	018814H
	DD	00H
	DD	018af5H
	DD	0189c5H
	DD	018815H
	DD	00H
	DD	018e54H
	DD	0189c5H
	DD	018cc8H
	DD	00H
	DD	018e5fH
	DD	0189c5H
	DD	018c9cH
	DD	00H
	DD	018af6H
	DD	01877cH
	DD	01882cH
	DD	00H
	DD	018af7H
	DD	018781H
	DD	01882cH
	DD	00H
	DD	018af8H
	DD	018786H
	DD	01882cH
	DD	00H
	DD	018af9H
	DD	01878bH
	DD	01882cH
	DD	00H
	DD	018afaH
	DD	01877cH
	DD	0187eaH
	DD	00H
	DD	018afbH
	DD	018781H
	DD	0187e7H
	DD	00H
	DD	018afcH
	DD	018786H
	DD	0187e9H
	DD	00H
	DD	018afdH
	DD	01878bH
	DD	0187e8H
	DD	00H
	DD	018afeH
	DD	0189caH
	DD	018814H
	DD	00H
	DD	018affH
	DD	0189cfH
	DD	018815H
	DD	00H
	DD	018e53H
	DD	0189cfH
	DD	018cc8H
	DD	00H
	DD	018e5eH
	DD	0189cfH
	DD	018c9cH
	DD	00H
	DD	018b3bH
	DD	018b39H
	DD	018b3aH
	DD	00H
	DD	018b3bH
	DD	018b3aH
	DD	018b39H
	DD	00H
?RideCodeMode@@3PAUtagRideCodeMode@@A DD 018816H	; RideCodeMode
	DD	01H
	DD	018806H
	DD	02H
	DD	01880aH
	DD	04H
	DD	0187b7H
	DD	08H
	DD	0187c0H
	DD	010H
	DD	0187bbH
	DD	020H
	DD	0187faH
	DD	040H
	DD	0187d6H
	DD	080H
	DD	018814H
	DD	0100H
	DD	018815H
	DD	0200H
	DD	018c9cH
	DD	0800H
	DD	018cc8H
	DD	0400H
	DD	018812H
	DD	01000H
	DD	018811H
	DD	02000H
	DD	018a28H
	DD	04000H
	DD	018a2bH
	DD	08000H
	DD	018f30H
	DD	010000H
	DD	018f31H
	DD	020000H
	DD	018f68H
	DD	040000H
	DD	0187fcH
	DD	080000H
	DD	0187d3H
	DD	0100000H
	DD	018fa9H
	DD	0200000H
	DD	018faaH
	DD	0400000H
	DD	018a09H
	DD	0800000H
	DD	018a0aH
	DD	01000000H
	DD	019394H
	DD	02000000H
	DD	0187b2H
	DD	04000000H
?RideNoList@@3PAUtagRideNoList@@A DD 018bb9H		; RideNoList
	DD	018bbaH
	DD	018bbbH
	DD	018bbcH
	DD	018bbdH
	DD	018bbeH
	DD	018bbfH
	DD	018bc0H
	DD	018a90H
	DD	018a91H
	DD	018e5aH
	DD	018e65H
	DD	018849H
	DD	018844H
	DD	01885dH
	DD	018ee5H
	DD	018f0dH
	DD	018f19H
	DD	018f76H
	ORG $+32
	DD	018bc1H
	DD	018bc2H
	DD	018bc3H
	DD	018bc4H
	DD	018bc5H
	DD	018bc6H
	DD	018bc7H
	DD	018bc8H
	DD	018a9aH
	DD	018a9bH
	DD	018e62H
	DD	018e64H
	DD	018849H
	DD	018844H
	DD	01885dH
	DD	018ee6H
	DD	018f0eH
	DD	018f1aH
	DD	018f77H
	ORG $+32
	DD	018bc9H
	DD	018bcaH
	DD	018bcbH
	DD	018bccH
	DD	018bcdH
	DD	018bceH
	DD	018bcfH
	DD	018bd0H
	DD	018aa4H
	DD	018aa5H
	DD	018e57H
	DD	018e4dH
	DD	018849H
	DD	018844H
	DD	01885dH
	DD	018ee7H
	DD	018f0fH
	DD	018f1bH
	DD	018f78H
	ORG $+32
	DD	018bd1H
	DD	018bd2H
	DD	018bd3H
	DD	018bd4H
	DD	018bd5H
	DD	018bd6H
	DD	018bd7H
	DD	018bd8H
	DD	018aaeH
	DD	018aafH
	DD	018e58H
	DD	018e4eH
	DD	018849H
	DD	018844H
	DD	01885dH
	DD	018ee8H
	DD	018f10H
	DD	018f1cH
	DD	018f79H
	ORG $+32
	DD	018bd9H
	DD	018bdaH
	DD	018bdbH
	DD	018bdcH
	DD	018bddH
	DD	018bdeH
	DD	018bdfH
	DD	018be0H
	DD	018ab8H
	DD	018ab9H
	DD	018e60H
	DD	018e55H
	DD	018849H
	DD	018844H
	DD	01885dH
	DD	018ee9H
	DD	018f11H
	DD	018f1dH
	DD	018f7aH
	ORG $+32
	DD	018be1H
	DD	018be2H
	DD	018be3H
	DD	018be4H
	DD	018be5H
	DD	018be6H
	DD	018be7H
	DD	018be8H
	DD	018ac2H
	DD	018ac3H
	DD	018e61H
	DD	018e56H
	DD	018849H
	DD	018844H
	DD	01885dH
	DD	018eeaH
	DD	018f12H
	DD	018f1eH
	DD	018f7bH
	ORG $+32
	DD	018be9H
	DD	018beaH
	DD	018bebH
	DD	018becH
	DD	018bedH
	DD	018beeH
	DD	018befH
	DD	018bf0H
	DD	018accH
	DD	018acdH
	DD	018e59H
	DD	018e4fH
	DD	018849H
	DD	018844H
	DD	01885dH
	DD	018eebH
	DD	018f13H
	DD	018f1fH
	DD	018f7cH
	ORG $+32
	DD	018bf1H
	DD	018bf2H
	DD	018bf3H
	DD	018bf4H
	DD	018bf5H
	DD	018bf6H
	DD	018bf7H
	DD	018bf8H
	DD	018ad6H
	DD	018ad7H
	DD	018e5bH
	DD	018e50H
	DD	018849H
	DD	018844H
	DD	01885dH
	DD	018eecH
	DD	018f14H
	DD	018f20H
	DD	018f7dH
	ORG $+32
	DD	018bf9H
	DD	018bfaH
	DD	018bfbH
	DD	018bfcH
	DD	018bfdH
	DD	018bfeH
	DD	018bffH
	DD	018c00H
	DD	018ae0H
	DD	018ae1H
	DD	018e5dH
	DD	018e52H
	DD	018849H
	DD	018844H
	DD	01885dH
	DD	018eedH
	DD	018f15H
	DD	018f21H
	DD	018f7eH
	ORG $+32
	DD	018c01H
	DD	018c02H
	DD	018c03H
	DD	018c04H
	DD	018c05H
	DD	018c06H
	DD	018c07H
	DD	018c08H
	DD	018aeaH
	DD	018aebH
	DD	018e5cH
	DD	018e51H
	DD	018849H
	DD	018844H
	DD	01885dH
	DD	018eeeH
	DD	018f16H
	DD	018f22H
	DD	018f7fH
	ORG $+32
	DD	018c09H
	DD	018c0aH
	DD	018c0bH
	DD	018c0cH
	DD	018c0dH
	DD	018c0eH
	DD	018c0fH
	DD	018c10H
	DD	018af4H
	DD	018af5H
	DD	018e5fH
	DD	018e54H
	DD	018849H
	DD	018844H
	DD	01885dH
	DD	018eefH
	DD	018f17H
	DD	018f23H
	DD	018f80H
	ORG $+32
	DD	018c11H
	DD	018c12H
	DD	018c13H
	DD	018c14H
	DD	018c15H
	DD	018c16H
	DD	018c17H
	DD	018c18H
	DD	018afeH
	DD	018affH
	DD	018e5eH
	DD	018e53H
	DD	018849H
	DD	018844H
	DD	01885dH
	DD	018ef0H
	DD	018f18H
	DD	018f24H
	DD	018f81H
	ORG $+32
?RPlistMode@@3PAUtagRidePetList@@A DD 0186a0H		; RPlistMode
	DD	00H
	DD	0186a5H
	DD	00H
	DD	0186aaH
	DD	00H
	DD	0186afH
	DD	00H
	DD	0186b4H
	DD	01H
	DD	0186b9H
	DD	01H
	DD	0186beH
	DD	01H
	DD	0186c3H
	DD	01H
	DD	0186c8H
	DD	02H
	DD	0186cdH
	DD	02H
	DD	0186d2H
	DD	02H
	DD	0186d7H
	DD	02H
	DD	0186dcH
	DD	03H
	DD	0186e1H
	DD	03H
	DD	0186e6H
	DD	03H
	DD	0186ebH
	DD	03H
	DD	0186f0H
	DD	04H
	DD	0186f5H
	DD	04H
	DD	0186faH
	DD	04H
	DD	0186ffH
	DD	04H
	DD	018704H
	DD	05H
	DD	018709H
	DD	05H
	DD	01870eH
	DD	05H
	DD	018713H
	DD	05H
	DD	018718H
	DD	06H
	DD	01871dH
	DD	06H
	DD	018722H
	DD	06H
	DD	018727H
	DD	06H
	DD	01872cH
	DD	07H
	DD	018731H
	DD	07H
	DD	018736H
	DD	07H
	DD	01873bH
	DD	07H
	DD	018740H
	DD	08H
	DD	018745H
	DD	08H
	DD	01874aH
	DD	08H
	DD	01874fH
	DD	08H
	DD	018754H
	DD	09H
	DD	018759H
	DD	09H
	DD	01875eH
	DD	09H
	DD	018763H
	DD	09H
	DD	018768H
	DD	0aH
	DD	01876dH
	DD	0aH
	DD	018772H
	DD	0aH
	DD	018777H
	DD	0aH
	DD	01877cH
	DD	0bH
	DD	018781H
	DD	0bH
	DD	018786H
	DD	0bH
	DD	01878bH
	DD	0bH
?help_bmp@@3PAUHELPBMP@@A DW 00H			; help_bmp
	DW	00H
	DW	00H
	DW	00H
	DW	0aH
	DW	05H
	DW	06693H
	DW	00H
	DW	02cH
	DW	010H
	DW	065f5H
	DW	00H
	DW	0ffecH
	DW	010H
	DW	065f9H
	DW	00H
	DW	012H
	DW	010H
	DW	06601H
	DW	00H
	DW	0cH
	DW	010H
	DW	065f7H
	DW	00H
	DW	0aH
	DW	06H
	DW	0667aH
	DW	00H
	DW	0fff1H
	DW	0fff7H
	DW	06603H
	DW	00H
	DW	0fff7H
	DW	010H
	DW	0667dH
	DW	00H
	DW	04cH
	DW	020H
	DW	0620cH
	DW	00H
	DW	04cH
	DW	0ffecH
	DW	06214H
	DW	00H
	DW	018H
	DW	020H
	DW	0620eH
	DW	00H
	DW	018H
	DW	0ffecH
	DW	06216H
	DW	00H
	DW	0ffe4H
	DW	020H
	DW	06210H
	DW	00H
	DW	07fH
	DW	0aH
	DW	0621dH
	DW	00H
	DW	0ffe4H
	DW	0ffecH
	DW	06218H
	DW	00H
	DW	0ffb0H
	DW	020H
	DW	06212H
	DW	00H
	DW	0ffb0H
	DW	0ffecH
	DW	0621aH
	DW	00H
	DW	0ccH
	DW	014H
	DW	065ffH
	DW	00H
	DW	019H
	DW	0aH
	DW	0740eH
	DW	00H
	DW	010eH
	DW	032H
	DW	03841H
	DW	00H
	DW	028H
	DW	03cH
	DW	03843H
	DW	00H
	DW	064H
	DW	032H
	DW	03844H
	DW	00H
	DW	0140H
	DW	019H
	DW	03845H
	DW	00H
	DW	03cH
	DW	014H
	DW	05dd1H
	DW	00H
	DW	0c8H
	DW	0ff9cH
	DW	05df2H
	DW	00H
	DW	0f0H
	DW	0fefcH
	DW	06469H
	DW	00H
	DW	05aH
	DW	0ff29H
	DW	0678aH
	DW	00H
?help_desc_1@@3PAUDESC@@A DW 014H			; help_desc_1
	DB	00H
	DB	00H
	DB	00H
	DB	00H
	ORG $+59
	ORG $+1
	DW	015H
	DB	00H
	DB	00H
	DB	00H
	DB	00H
	ORG $+59
	ORG $+1
	DW	016H
	DB	00H
	DB	00H
	DB	00H
	DB	00H
	ORG $+59
	ORG $+1
	DW	017H
	DB	00H
	DB	00H
	DB	00H
	DB	00H
	ORG $+59
	ORG $+1
	DW	018H
	DB	00H
	DB	00H
	DB	00H
	DB	00H
	ORG $+59
	ORG $+1
	DW	00H
	DB	00H
	DB	00H
	DB	00H
	DB	00H
	ORG $+59
	ORG $+1
	DW	01H
	DB	00H
	DB	00H
	DB	00H
	DB	0c4H, 0f9H, 0bdH, 0baH, 0c6H, 0aeH, ' ', 0c1H, 0f8H, 0c7H
	DB	0e0H, ' ', 0bfH, 0a9H, 0baH, 0ceH, 0b8H, 0a6H, ' ', 0c8H, 0aeH
	DB	0c0H, 0ceH, ' ', 0c7H, 0cfH, 0bdH, 0c3H, 0b0H, 0daH, 0bdH, 0c0H
	DB	0b4H, 0cfH, 0b1H, 0eeH, 0a3H, 0bfH, 00H
	ORG $+21
	ORG $+1
	DW	00H
	DB	04H
	DB	01H
	DB	01fH
	DB	0c4H, 0f9H, 0bdH, 0baH, 0c6H, 0aeH, ' ', 0b8H, 0f1H, 0b7H
	DB	0cfH, ' (', 0a3H, 0c3H, 0a3H, 0ccH, 0a3H, 0c9H, 0a3H, 0c3H, 0a3H
	DB	0cbH, 0a3H, 0a1H, ')', 00H
	ORG $+33
	ORG $+1
	DW	019H
	DB	00H
	DB	00H
	DB	00H
	DB	00H
	ORG $+59
	ORG $+1
	DW	01aH
	DB	00H
	DB	00H
	DB	00H
	DB	0c4H, 0f9H, 0bdH, 0baH, 0c6H, 0aeH, ' ', 0c1H, 0a4H, 0baH
	DB	0b8H, 0b4H, 0c2H, ' ', 0c8H, 0a8H, 0c6H, 0e4H, 0c0H, 0ccH, 0c1H
	DB	0f6H, 0b8H, 0a6H, ' ', 0c2H, 0fcH, 0b0H, 0edH, ' ', 0c7H, 0d8H
	DB	0c1H, 0d6H, 0bdH, 0c3H, 0b1H, 0e2H, ' ', 0b9H, 0d9H, 0b6H, 0f8H
	DB	0b4H, 0cfH, 0b4H, 0d9H, '.', 00H
	ORG $+11
	ORG $+1
	DW	01bH
	DB	00H
	DB	00H
	DB	00H
	DB	0c8H, 0a8H, 0c6H, 0e4H, 0c0H, 0ccH, 0c1H, 0f6H, ' ', 0c1H
	DB	0d6H, 0bcH, 0d2H, 0a3H, 0baH, ' http://sasky01.com/', 00H
	ORG $+24
	ORG $+1
	ORG $+2
?help_desc_2@@3PAUDESC@@A DW 00H			; help_desc_2
	DB	00H
	DB	00H
	DB	00H
	DB	'?', 0e3H, 0e6H, 0e2H, 0a2H, 0e8H, 0ccH, 0caH, 0abH, '?', 0e8H
	DB	0c7H, 0ecH, 0d1H, 0daH, 0aaH, 0f1H, 0fdH, 0fdH, 0a8H, 0a3H, 0acH
	DB	0e2H, 0cdH, 0f1H, 0bcH, 0ebH, 0f2H, 0f9H, 0bbH, 0d6H, 0aaH, 0deH
	DB	0c0H, '?', 0ecH, 0a4H, 0dbH, 0b0H, 0f8H, 0b5H, '?', 0cdH, 0edH
	DB	0a3H, 0baH, 00H
	ORG $+13
	ORG $+1
	DW	00H
	DB	00H
	DB	00H
	DB	00H
	DB	'  1.?', 0d4H, 0f5H, '?', 0eeH, 0b8H, '?', 0a3H, 0acH, '?'
	DB	'?', 0d5H, 0e1H, 0eeH, 0a4H, 0f5H, 0bdH, 0edH, 0e4H, 0ddH, 0beH
	DB	0d0H, 0ceH, 0fcH, 0c0H, '?', 0a3H, 0acH, 0ecH, 0a4H, 0dbH, 0c1H
	DB	0ceH, 0d6H, 0daH, 0aaH, 0d4H, 0f5H, '?', 00H
	ORG $+16
	ORG $+1
	DW	00H
	DB	00H
	DB	00H
	DB	00H
	DB	'    ?', 0cdH, 0d4H, 0a3H, 0acH, 0f8H, 0b6H, '?', 0f2H, 0a2H
	DB	'?', 0a3H, 0acH, '??', 0daH, 0e1H, 0d4H, 0d2H, 0faH, 0bcH, 0a1H
	DB	0a3H, 00H
	ORG $+32
	ORG $+1
	DW	00H
	DB	00H
	DB	00H
	DB	00H
	DB	'  2.', 0e5H, 0b4H, '?', 0d4H, 0e0H, 0fdH, 0a8H, '??', 0d2H
	DB	0b1H, 0ceH, 0f9H, 0d5H, 0f4H, 0dcH, 0f4H, 0f0H, 0ebH, 0a3H, 0acH
	DB	0caH, 0a6H, 0ecH, 0a4H, 0fcH, 0deH, 0f5H, 0bdH, 0edH, 0e4H, 0f1H
	DB	0e9H, 0eeH, 0dcH, '?', 0eaH, 0c2H, '?', 0f0H, 0ebH, 00H
	ORG $+14
	ORG $+1
	DW	00H
	DB	00H
	DB	00H
	DB	00H
	DB	'    ', 0a3H, 0acH, 0eeH, 0a4H, 0d4H, 0f5H, '?10', 0ecH, 0a4H
	DB	'?', 0a3H, 0acH, 0e8H, 0ccH, 0caH, 0abH, 0caH, 0a6H, 0d8H, 0f3H
	DB	'??', 0f0H, 0ebH, 0d2H, 0b1H, 0ceH, 0f9H, 0d5H, 0f4H, 0d0H, 0e0H
	DB	'?', 0d5H, 0f4H, 0a3H, 0acH, 0ecH, 0bbH, 00H
	ORG $+14
	ORG $+1
	DW	00H
	DB	00H
	DB	00H
	DB	00H
	DB	'    ?', 0daH, 0aaH, 0eeH, 0a4H, '?', 0eaH, 0c2H, 0f1H, 0e9H
	DB	'?', 0d2H, 0b1H, 0ceH, 0f9H, 0d5H, 0f4H, 0dcH, 0f4H, 0f9H, 0daH
	DB	0d4H, 0f5H, '?', 0d0H, 0b3H, '?', 0d8H, 0f3H, '?', 0a1H, 0a3H, 00H
	ORG $+23
	ORG $+1
	DW	00H
	DB	00H
	DB	00H
	DB	00H
	DB	'  3.?', 0d4H, 0e0H, '?', 0e1H, 0d6H, 0fdH, 0a8H, 0caH, 0a6H
	DB	0ecH, 0a4H, '?', 0cfH, 0f5H, 0d4H, 0f0H, 0d3H, 0f0H, 0ceH, 0d6H
	DB	0daH, 0aaH, 0eeH, 0dcH, 0ebH, 0bfH, 0a3H, 0acH, '?', 0deH, 0c1H
	DB	0ebH, 0bfH, 0caH, 0a6H, 0ecH, 0a4H, 0e9H, 0c4H, '?', 00H
	ORG $+14
	ORG $+1
	DW	00H
	DB	00H
	DB	00H
	DB	00H
	DB	'    ?', 0d2H, 0b1H, 0ceH, 0f9H, 0d5H, 0f4H, 0a3H, 0acH, 0fbH
	DB	0e4H, 0edH, 0baH, 0caH, 0a6H, 0ecH, 0a4H, '?', 0fcH, 0deH, 0f5H
	DB	0bdH, 0d3H, 0f0H, 0ebH, 0bfH, 0efH, 0c1H, '?', 0f5H, 0f3H, 0a3H
	DB	0acH, 0ecH, 0a4H, '?', 0f6H, 0a2H, 0e0H, 0b4H, '?', 00H
	ORG $+14
	ORG $+1
	DW	00H
	DB	00H
	DB	00H
	DB	00H
	DB	'    ', 0a1H, 0a3H, 00H
	ORG $+53
	ORG $+1
	DW	00H
	DB	00H
	DB	00H
	DB	00H
	DB	'  4.', 0e5H, 0b4H, 0e8H, 0ccH, 0caH, 0abH, '?', 0d4H, 0e0H
	DB	0e8H, 0c7H, 0f1H, 0fdH, 0fdH, 0a8H, 0dfH, 0ccH, 0e9H, 0a9H, 0fcH
	DB	0deH, 0f5H, 0bdH, 0ecH, 0bbH, 0dcH, 0f4H, 0f2H, 0b1H, 0d4H, 0b3H
	DB	0d6H, 0d8H, 0a3H, 0acH, 0f1H, 0feH, 0e9H, 0a9H, 0d4H, 0f4H, 0f5H
	DB	0f3H, 0f6H, 0a6H, 00H
	ORG $+10
	ORG $+1
	DW	00H
	DB	00H
	DB	00H
	DB	00H
	DB	'    ??', 0dfH, 0beH, 0fcH, 0deH, 0d3H, 0f0H, 0f5H, 0f3H, 0dfH
	DB	0e6H, 0f2H, 0a2H, 0eeH, 0dcH, 0f5H, 0bdH, '?', 0caH, 0abH, 0a1H
	DB	0a3H, 00H
	ORG $+32
	ORG $+1
	DW	00H
	DB	00H
	DB	00H
	DB	00H
	DB	'  5.?', 0e8H, 0ccH, 0caH, 0abH, 0e3H, 0aeH, '?', 0fdH, 0a8H
	DB	0a3H, 0acH, '??', 0eaH, 0f3H, ' 3', 0efH, 0c3H, 0eeH, 0dcH, 0efH
	DB	0c3H, '?', 0caH, 0a6H, 0ecH, 0a4H, 0edH, 0bbH, 0ebH, 0a6H, 0ddH
	DB	0c2H, 0dbH, 0d5H, 0caH, 0a5H, 0eeH, 0a4H, 00H
	ORG $+14
	ORG $+1
	DW	00H
	DB	00H
	DB	00H
	DB	00H
	DB	'    ?', 0d5H, 0f4H, 0a1H, 0a2H, 0e8H, 0d3H, 0d5H, 0f4H, 0a1H
	DB	0a2H, 0d2H, 0b1H, 0d5H, 0f4H, 0d0H, 0e0H, 0e1H, 0dcH, 0d3H, 0f8H
	DB	0a3H, 0acH, ' 1', 0efH, 0c3H, '?', 0d5H, 0f4H, 0d3H, 0dbH, 0f8H
	DB	0faH, ' 4', 0efH, 0c3H, 0eeH, 0dcH, 0d2H, 0b1H, 0ceH, 0f9H, 00H
	ORG $+11
	ORG $+1
	DW	00H
	DB	00H
	DB	00H
	DB	00H
	DB	'    ', 0d5H, 0f4H, 0a3H, 0acH, ' 1', 0efH, 0c3H, 0e8H, 0d3H
	DB	0d5H, 0f4H, 0d3H, 0dbH, 0f8H, 0faH, ' 1', 0efH, 0c3H, 0cdH, 0f4H
	DB	'?', 0d5H, 0f4H, 0a3H, 0acH, ' 1', 0efH, 0c3H, 0d2H, 0b1H, 0d5H
	DB	0f4H, 0d3H, 0dbH, 0f8H, 0faH, ' 1', 0efH, 0c3H, 0dbH, 0c1H, 00H
	ORG $+10
	ORG $+1
	DW	00H
	DB	00H
	DB	00H
	DB	00H
	DB	'    ', 0e5H, 0d9H, 0d5H, 0f4H, 0a3H, 0acH, ' 1', 0efH, 0c3H
	DB	0e1H, 0dcH, 0d3H, 0f8H, 0d3H, 0dbH, 0f8H, 0faH, ' 1', 0efH, 0c3H
	DB	0daH, 0c2H, 0f4H, 0dfH, 0d5H, 0f4H, 0a1H, 0a3H, 00H
	ORG $+25
	ORG $+1
	DW	00H
	DB	00H
	DB	00H
	DB	00H
	DB	'  6.?', 0e2H, 0cdH, 0e9H, 0a9H, 0deH, 0c5H, 0e9H, 0c4H, 0ebH
	DB	0bfH, '??', 0d2H, 0b1H, 0ceH, 0f9H, 0d5H, 0f4H, '?', 0a3H, 0acH
	DB	'?', 0f6H, 0e8H, '?', 0daH, 0aaH, 0f9H, 0a1H, '?', 0a3H, 0acH, 0eeH
	DB	0a4H, 0ebH, 0bfH, 0dfH, 0beH, 00H
	ORG $+16
	ORG $+1
	DW	00H
	DB	00H
	DB	00H
	DB	00H
	DB	'    ?', 0e4H, 0ceH, 0fcH, 0c1H, 0e0H, 0a9H, 0f1H, 0a7H, '?'
	DB	' 2', 0f9H, 0bbH, 0a3H, 0acH, 0eeH, 0a4H, 0efH, 0c3H, '?', 0e2H
	DB	0cdH, 0e9H, 0a9H, '?', 0d2H, 0b1H, 0ceH, 0f9H, 0d5H, 0f4H, 0eeH
	DB	0dcH, '?', 0dfH, 0daH, '?', 0caH, 0a6H, 00H
	ORG $+15
	ORG $+1
	DW	00H
	DB	00H
	DB	00H
	DB	00H
	DB	'    ', 0a1H, 0a3H, 00H
	ORG $+53
	ORG $+1
	ORG $+4
?help_desc_3@@3PAUDESC@@A DW 01H			; help_desc_3
	DB	00H
	DB	00H
	DB	09H
	DB	'1.?', 0e9H, 0cdH, 0eaH, 0fdH, '?', 0d0H, 0f1H, 0dcH, 0e2H
	DB	0f0H, 0c3H, 0edH, 0c2H, 00H
	ORG $+43
	ORG $+1
	DW	01H
	DB	00H
	DB	00H
	DB	0aH
	DB	'2.?', 0e9H, 0cdH, 0cdH, 0edH, 0d2H, 0f6H, '??', 00H
	ORG $+48
	ORG $+1
	DW	01H
	DB	00H
	DB	00H
	DB	0bH
	DB	'3.?', 0e9H, 0cdH, 0eaH, 0fdH, '??', 0efH, 0d2H, '(MENU)', 00H
	ORG $+42
	ORG $+1
	ORG $+2
?help_desc_4@@3PAUDESC@@A DW 00H			; help_desc_4
	DB	04H
	DB	00H
	DB	00H
	DB	'1.?NPC', 0ceH, 0dfH, '?', 00H
	ORG $+50
	ORG $+1
	DW	00H
	DB	00H
	DB	00H
	DB	00H
	DB	'  ', 0fbH, 0faH, 0f5H, 0bdH, 0ecH, 0d1H, 0d0H, 0e0H, 0efH
	DB	0c1H, '?', 0d4H, 0f5H, ' NPC???', 0a3H, 0acH, '?', 0f3H, 0d7H, 0eeH
	DB	0a4H, 0f5H, 0bdH, 0ecH, 0d1H, 0d0H, 0e0H, 0efH, 0c1H, '?', 0d4H
	DB	0f5H, ' NPC', 00H
	ORG $+15
	ORG $+1
	DW	00H
	DB	00H
	DB	00H
	DB	00H
	DB	'  ', 0eeH, 0f1H, 0dbH, 0b0H, '?', 0d8H, 0fcH, '?', 0f6H, 0e2H
	DB	'??', 0ecH, 0fdH, 0ecH, 0f2H, 0ebH, 0f2H, 0ecH, 0e9H, 0edH, 0aeH
	DB	0eeH, 0a2H, 0e4H, 0ceH, 0f9H, 0bbH, ' ENTER?', 0a3H, 0acH, '?', 0caH
	DB	0a6H, '?', 00H
	ORG $+16
	ORG $+1
	DW	00H
	DB	00H
	DB	00H
	DB	00H
	DB	'  ', 0f5H, 0bdH, 0ecH, 0d1H, 0d0H, 0e0H, 0efH, 0c1H, '?', 0d4H
	DB	0f5H, ' NPC??', 0a1H, 0a3H, ' (', 0e5H, 0b4H, 0d9H, 0e9H, 0dbH
	DB	0f6H, 0ceH, 0dfH, '??', 0a3H, 0acH, '??', 0d6H, 0fdH, 0f4H, 0b8H
	DB	'?', 00H
	ORG $+17
	ORG $+1
	DW	00H
	DB	00H
	DB	00H
	DB	00H
	DB	'  ', 0efH, 0d2H, 0d7H, 0ecH, 0eeH, 0dcH, 0ebH, 0e5H, 0d5H
	DB	0e1H, '?', 0efH, 0d2H, '?', 0efH, 0daH, '? 5 )', 00H
	ORG $+36
	ORG $+1
	DW	00H
	DB	04H
	DB	00H
	DB	00H
	DB	'2.', 0ecH, 0e9H, 0daH, 0f5H, '??', 00H
	ORG $+51
	ORG $+1
	DW	00H
	DB	00H
	DB	00H
	DB	00H
	DB	'  ', 0e9H, 0c4H, '???', 0ecH, 0fdH, 0e9H, 0a9H, '??', 0eeH
	DB	0dcH, 0d9H, 0feH, 0edH, 0aeH, 0a3H, 0acH, '?', 0e4H, 0ceH, 0f9H
	DB	0bbH, ' ENTER?', 0a3H, 0acH, '?', 0caH, 0a6H, '?', 0ddH, 0beH, 00H
	ORG $+18
	ORG $+1
	DW	00H
	DB	00H
	DB	00H
	DB	00H
	DB	'  ', 0d0H, 0ceH, 0eeH, 0dcH, 0e8H, 0ccH, 0caH, 0abH, 0fbH
	DB	0e4H, '???', 0eeH, 0dcH, 0e8H, 0ccH, 0caH, 0abH, '??', 0a1H, 0a3H
	DB	' (', 0e5H, 0b4H, 0d9H, 0e9H, 0dbH, 0f6H, 0ceH, 0dfH, '???', 0d6H
	DB	0fdH, 0f4H, 0b8H, 00H
	ORG $+17
	ORG $+1
	DW	00H
	DB	00H
	DB	00H
	DB	00H
	DB	'  ?', 0efH, 0d2H, 0d7H, 0ecH, 0eeH, 0dcH, 0ebH, 0e5H, 0d5H
	DB	0e1H, '?', 0efH, 0d2H, '?', 0efH, 0daH, '? 5 )', 00H
	ORG $+35
	ORG $+1
	DW	00H
	DB	04H
	DB	00H
	DB	00H
	DB	'3.', 0d9H, 0a3H, 0f8H, 0b8H, 00H
	ORG $+53
	ORG $+1
	DW	00H
	DB	00H
	DB	00H
	DB	00H
	DB	'  ', 0e4H, 0ceH, 0f9H, 0bbH, '?', 0cbH, 0ecH, 0a3H, 0acH
	DB	'??', 0eeH, 0a4H, 0d9H, 0a3H, 0f8H, 0b8H, '?', 0f1H, 0e9H, 0edH
	DB	0bbH, 0d0H, 0f9H, 0e9H, 0a9H, 0ceH, 0dfH, '?', 0eeH, 0dcH, 0e8H
	DB	0ccH, 0caH, 0abH, 0a3H, 0acH, 0eeH, 0a2H, 0e4H, 0ceH, 0f9H, 0bbH
	DB	00H
	ORG $+14
	ORG $+1
	DW	00H
	DB	00H
	DB	00H
	DB	00H
	DB	'  mail', 0a3H, 0acH, 0e9H, 0c4H, '???', 0ecH, 0fdH, 0e9H
	DB	0a9H, '??', 0eeH, 0dcH, 0d9H, 0feH, 0edH, 0aeH, 0fdH, 0a8H, 0a3H
	DB	0acH, 0e4H, 0ceH, 0f9H, 0bbH, '?', 0e1H, 0eaH, '?', 0caH, 0a6H
	DB	'?', 0edH, 0bbH, 00H
	ORG $+17
	ORG $+1
	DW	00H
	DB	00H
	DB	00H
	DB	00H
	DB	'  ', 0d0H, 0f9H, '??', 0eeH, 0dcH, 0e8H, 0ccH, 0caH, 0abH
	DB	0ceH, 0dfH, '?', 0a1H, 0a3H, ' (', 0f9H, 0b1H, '?', 0e9H, 0a9H
	DB	'?', 0e8H, 0ccH, 0caH, 0abH, 0ceH, 0dfH, '?', 0d9H, 0a3H, 0f8H
	DB	0b8H, 0fdH, 0a8H, 0eeH, 0a6H, 0caH, 0a6H, 0deH, 0c5H, 00H
	ORG $+15
	ORG $+1
	DW	00H
	DB	00H
	DB	00H
	DB	00H
	DB	'  ', 0e9H, 0c4H, ' )', 00H
	ORG $+53
	ORG $+1
	DW	00H
	DB	04H
	DB	00H
	DB	00H
	DB	'4.', 0caH, 0abH, 0f0H, 0e9H, '??', 00H
	ORG $+51
	ORG $+1
	DW	08H
	DB	00H
	DB	01H
	DB	00H
	DB	'  ', 0e4H, 0ceH, 0f9H, 0bbH, 0caH, 0abH, 0f0H, 0e9H, 0d6H
	DB	0fdH, 0f4H, 0b8H, 0fdH, 0a8H, 0a3H, 0acH, '??', 0edH, 0bbH, 0d0H
	DB	0f9H, 0dfH, 0ccH, 0e9H, 0a9H, 0eeH, 0dcH, '?', 0d4H, 0b3H, 0a3H
	DB	0acH, 0e4H, 0ceH, 0f9H, 0bbH, 0caH, 0a5H, 00H
	ORG $+18
	ORG $+1
	DW	00H
	DB	00H
	DB	00H
	DB	00H
	DB	'  ', 0ecH, 0fdH, 0fdH, 0a8H, 0a3H, 0acH, 0e9H, 0c4H, '??'
	DB	'?', 0ecH, 0fdH, 0e9H, 0a9H, '??', 0eeH, 0dcH, 0d9H, 0feH, 0edH
	DB	0aeH, 0a3H, 0acH, '?', 0e4H, 0ceH, 0f9H, 0bbH, ' ENTER?', 0a3H
	DB	0acH, '?', 00H
	ORG $+17
	ORG $+1
	DW	00H
	DB	00H
	DB	00H
	DB	00H
	DB	'  ', 0caH, 0a6H, '???', 0d4H, 0b3H, 0eeH, 0dcH, 0e1H, 0b6H
	DB	0eaH, 0f3H, 0ecH, 0d1H, 0ceH, 0dfH, '?', 0a3H, 0acH, 0fbH, 0e4H
	DB	0e3H, 0c0H, 0f2H, 0c1H, 0efH, 0c8H, 0deH, 0c5H, 0e9H, 0c4H, '?'
	DB	'?Ctrl + C', 00H
	ORG $+15
	ORG $+1
	DW	00H
	DB	00H
	DB	00H
	DB	00H
	DB	'  ?', 0caH, 0a6H, 0caH, 0a5H, 0ecH, 0fdH, 0caH, 0abH, 0f0H
	DB	0e9H, 0eeH, 0efH, '?', 0a3H, 0acH, 0e8H, 0ccH, 0caH, 0abH, 0dfH
	DB	0ccH, 0fcH, 0deH, 0d3H, 0f0H, 0ecH, 0e9H, 0daH, 0f5H, '???', 0d4H
	DB	0b3H, 0f1H, 0feH, 0e2H, 0cdH, 0eeH, 0a2H, '?', 00H
	ORG $+15
	ORG $+1
	DW	00H
	DB	00H
	DB	00H
	DB	00H
	DB	'  ??', 0eaH, 0c8H, 0dfH, 0beH, 0caH, 0a5H, 0dfH, 0beH, 0d9H
	DB	0b3H, '? (:)?', 0caH, 0a6H, 0fcH, 0deH, 0dcH, 0ddH, 0ecH, 0e9H
	DB	0daH, 0f5H, 0efH, 0e1H, 0dfH, 0c8H, '???', 0d4H, 0b3H, 0a3H, 0acH
	DB	0caH, 0abH, 00H
	ORG $+16
	ORG $+1
	DW	00H
	DB	00H
	DB	00H
	DB	00H
	DB	'  ', 0f0H, 0e9H, '?', 0d4H, 0b3H, 0f9H, 0b1H, '?', 0eeH, 0a4H
	DB	0d4H, 0d2H, 0ecH, 0e9H, 0e0H, 0f8H, 0cfH, 0b9H, 0eeH, 0a6H, 0d2H
	DB	0f6H, 0deH, 0c5H, 0e9H, 0c4H, 0a1H, 0a3H, 0a3H, 0a8H, 0daH, 0b1H
	DB	0caH, 0a5H, 0ecH, 0fdH, 0caH, 0abH, 0f0H, 0e9H, 0d9H, 0e9H, 0dbH
	DB	0f6H, 0deH, 0c5H, 00H
	ORG $+11
	ORG $+1
	DW	00H
	DB	00H
	DB	00H
	DB	00H
	DB	'  ', 0e9H, 0c4H, 0f3H, 0aeH, 0cdH, 0edH, 0d2H, 0f6H, 0a3H
	DB	0a9H, 00H
	ORG $+47
	ORG $+1
	DW	00H
	DB	04H
	DB	00H
	DB	00H
	DB	'5.', 0f1H, 0ecH, '??', 0e5H, 0ebH, 00H
	ORG $+51
	ORG $+1
	DW	00H
	DB	00H
	DB	00H
	DB	00H
	DB	'  ', 0eaH, 0fdH, '?', 0f1H, 0e9H, 0caH, 0a6H, 0e4H, 0ceH
	DB	0dbH, 0b0H, 0faH, 0beH, '?', 0a1H, 0e8H, 0a1H, 0e9H, '??', 0f1H
	DB	0fdH, 0eeH, 0f1H, 0f1H, 0f4H, '???', 0eeH, 0dcH, '?', 0a3H, 0acH
	DB	0f5H, 0ccH, 0cdH, 0d4H, 0caH, 0a6H, 00H
	ORG $+17
	ORG $+1
	DW	00H
	DB	00H
	DB	00H
	DB	00H
	DB	'  ??', 0f5H, 0ccH, 0d0H, 0ceH, 0e1H, 0b6H, '??', 0eeH, 0dcH
	DB	'60', 0cfH, 0a3H, '?', 0a1H, 0a3H, 0e5H, 0fdH, 0dfH, 0ccH, 0f1H
	DB	0ecH, '?', 0f1H, 0fdH, 0eeH, 0f1H, 0e1H, 0b6H, '??', 0eeH, 0dcH
	DB	'?', 0a3H, 0acH, 00H
	ORG $+18
	ORG $+1
	DW	00H
	DB	00H
	DB	00H
	DB	00H
	DB	'  ', 0caH, 0a6H, 0deH, 0c5H, 0e9H, 0c4H, 0f3H, 0aeH, 0cdH
	DB	0edH, 0d2H, 0f6H, 0a1H, 0a3H, 00H
	ORG $+43
	ORG $+1
	ORG $+4
?help_desc_5@@3PAUDESC@@A DW 01H			; help_desc_5
	DB	00H
	DB	00H
	DB	0cH
	DB	'1.', 0daH, 0aaH, 0f9H, 0a1H, 00H
	ORG $+53
	ORG $+1
	DW	01H
	DB	00H
	DB	00H
	DB	0dH
	DB	'2.?', 0daH, 0aaH, 00H
	ORG $+54
	ORG $+1
	ORG $+4
?help_desc_6@@3PAUDESC@@A DW 01H			; help_desc_6
	DB	00H
	DB	00H
	DB	017H
	DB	'1.', 0ecH, 0e9H, 0daH, 0f5H, '?', 0d4H, 0e0H, 00H
	ORG $+50
	ORG $+1
	DW	01H
	DB	00H
	DB	00H
	DB	018H
	DB	'2.', 0ecH, 0e9H, 0daH, 0f5H, 'PK', 00H
	ORG $+51
	ORG $+1
	DW	01H
	DB	00H
	DB	00H
	DB	019H
	DB	'3.', 0caH, 0abH, 0f0H, 0e9H, 'PK', 00H
	ORG $+51
	ORG $+1
	DW	01H
	DB	00H
	DB	00H
	DB	01aH
	DB	'4.', 0edH, 0e4H, '????', 00H
	ORG $+51
	ORG $+1
	DW	01H
	DB	00H
	DB	00H
	DB	01bH
	DB	'5.?', 0e9H, 0cdH, 0edH, 0bbH, '??', 0d4H, 0e0H, '?', 0efH
	DB	0d2H, 00H
	ORG $+45
	ORG $+1
	ORG $+6
?help_desc_7@@3PAUDESC@@A DW 01H			; help_desc_7
	DB	00H
	DB	00H
	DB	012H
	DB	'1.', 0e0H, 0f7H, 0d8H, 0a1H, '?', 0faH, 0b0H, 0dfH, 0a4H
	DB	00H
	ORG $+48
	ORG $+1
	DW	01H
	DB	00H
	DB	00H
	DB	013H
	DB	'2.', 0caH, 0a5H, 0ecH, 0fdH, 0d0H, 0e0H, 0f7H, 0dcH, 0f5H
	DB	0f3H, 0caH, 0abH, 0f0H, 0e9H, 00H
	ORG $+43
	ORG $+1
	DW	01H
	DB	00H
	DB	00H
	DB	014H
	DB	'3.', 0caH, 0abH, 0f0H, 0e9H, 0d7H, 0baH, 0e5H, 0ebH, 0f7H
	DB	0faH, 00H
	ORG $+47
	ORG $+1
	DW	01H
	DB	00H
	DB	00H
	DB	015H
	DB	'4.', 0f0H, 0e9H, '?', 0cdH, 0edH, 0d2H, 0f6H, 00H
	ORG $+50
	ORG $+1
	DW	01H
	DB	00H
	DB	00H
	DB	016H
	DB	'5.', 0edH, 0e4H, '?', 0f7H, 0e5H, 0e2H, 0a8H, 0cdH, 0edH
	DB	0d2H, 0f6H, 00H
	ORG $+46
	ORG $+1
	ORG $+6
?help_desc_8@@3PAUDESC@@A DW 01H			; help_desc_8
	DB	00H
	DB	00H
	DB	0eH
	DB	'1.', 0ceH, 0c3H, 0d9H, 0a5H, 0efH, 0f1H, '?', 00H
	ORG $+50
	ORG $+1
	DW	01H
	DB	00H
	DB	00H
	DB	0fH
	DB	'2.', 0fdH, 0d9H, 0e4H, 0deH, 0efH, 0f1H, '?', 00H
	ORG $+50
	ORG $+1
	DW	01H
	DB	00H
	DB	00H
	DB	010H
	DB	'3.?', 0e0H, 0f5H, 0efH, 0f1H, '?', 00H
	ORG $+51
	ORG $+1
	DW	01H
	DB	00H
	DB	00H
	DB	011H
	DB	'4.', 0f7H, 0e5H, 0e2H, 0a8H, 0efH, 0f1H, '?', 00H
	ORG $+50
	ORG $+1
	DW	01H
	DB	00H
	DB	00H
	DB	01cH
	DB	'5.', 0d8H, 0aaH, 0dbH, 0f6H, 0efH, 0f1H, '?', 00H
	ORG $+50
	ORG $+1
	ORG $+6
?help_desc_9@@3PAUDESC@@A DW 01H			; help_desc_9
	DB	00H
	DB	00H
	DB	01dH
	DB	0e3H, 0e6H, 0f1H, 0f2H, 0a1H, 0a1H, 0a1H, 0b2H, 0efH, 0f1H
	DB	'?', 0eeH, 0dcH, 0e1H, 0afH, '?', 0a1H, 0b3H, 00H
	ORG $+41
	ORG $+1
	DW	00H
	DB	00H
	DB	00H
	DB	00H
	DB	00H
	ORG $+59
	ORG $+1
	DW	00H
	DB	04H
	DB	00H
	DB	00H
	DB	'1.?', 0e9H, 0cdH, 0d6H, 0f9H, 0d7H, 0e2H, 00H
	ORG $+50
	ORG $+1
	DW	00H
	DB	00H
	DB	00H
	DB	00H
	DB	'      ', 0d6H, 0f9H, 0d7H, 0e2H, 0e3H, 0c0H, 0ebH, 0a6H, '?'
	DB	0daH, 0aaH, '?', 0e8H, 0c7H, 0e0H, 0f7H, 0eeH, 0dcH, 0a3H, 0acH
	DB	0e2H, 0cfH, 0e0H, 0bbH, 0f9H, 0b1H, '?', 0e0H, 0bbH, 0d3H, 0f0H
	DB	0deH, 0ccH, 0d3H, 0deH, 0f5H, 0f3H, 0dfH, 0e6H, 0f2H, 0a2H, 00H
	ORG $+12
	ORG $+1
	DW	00H
	DB	00H
	DB	00H
	DB	00H
	DB	'  ', 0eeH, 0dcH, 0f5H, 0bdH, 0edH, 0adH, 0d7H, 0ecH, 0eeH
	DB	0dcH, '?', 0daH, 0aaH, 0efH, 0c1H, '??', 0daH, 0aaH, '??', 0d6H
	DB	0f9H, 0d7H, 0e2H, 0d0H, 0fcH, 0d2H, 0f6H, 0a3H, 0acH, 0eeH, 0a2H
	DB	0d3H, 0f0H, '??', 0d1H, 0d6H, '?', 00H
	ORG $+17
	ORG $+1
	DW	00H
	DB	00H
	DB	00H
	DB	00H
	DB	'  ', 0d0H, 0e0H, 0caH, 0a5H, 0caH, 0a5H, 0f5H, 0bdH, 0eeH
	DB	0dcH, '24', 0e1H, 0b3H, '?', 0f8H, 0b5H, 0d7H, 0d7H, 0dfH, 0c2H
	DB	0efH, 0c1H, '??', 0d6H, 0f9H, 0d7H, 0e2H, 0e1H, 0b6H, 0e2H, 0cdH
	DB	0eeH, 0dcH, 0e3H, 0ddH, 0eeH, 0a7H, 0a1H, 0a3H, 00H
	ORG $+16
	ORG $+1
	DW	00H
	DB	00H
	DB	00H
	DB	00H
	DB	'      ', 0d6H, 0f9H, 0d7H, 0e2H, 0eeH, 0dcH, 0dbH, 0b0H, 0dbH
	DB	0f6H, 0e3H, 0c0H, 0f2H, 0c1H, 0efH, 0c8H, 0eeH, 0a4H, 0d4H, 0b3H
	DB	0ceH, 0fdH, '?', 0eeH, 0dcH, 0e3H, 0ddH, 0eeH, 0a7H, 0dfH, 0beH
	DB	0e4H, 0ceH, 0fcH, 0c1H, 0e0H, 0a9H, 0e9H, 0d3H, '?', 0a3H, 0acH
	DB	00H
	ORG $+11
	ORG $+1
	DW	00H
	DB	00H
	DB	00H
	DB	00H
	DB	'  ', 0f2H, 0b8H, 0e1H, 0b4H, 0e2H, 0cdH, '???', 0ecH, 0a4H
	DB	0dfH, 0beH, 0e3H, 0ddH, 0eeH, 0a7H, 0eeH, 0a6H, 0d2H, 0f6H, 0d6H
	DB	0f9H, 0d7H, 0e2H, 0a3H, 0acH, '?', 0fbH, 0bfH, 0e3H, 0ddH, 0eeH
	DB	0a7H, 0fdH, 0a8H, '?', 0daH, 0aaH, '??', 00H
	ORG $+16
	ORG $+1
	DW	00H
	DB	00H
	DB	00H
	DB	00H
	DB	'  ', 0edH, 0bbH, '???', 0a3H, 0acH, '???', 0d6H, 0f9H, 0d7H
	DB	0e2H, 0eeH, 0dcH, '?', 0daH, 0aaH, 0eeH, 0a4H, '?', 0daH, 0aaH
	DB	0d9H, 0a3H, '?', 0dfH, 0beH, 0e4H, 0ceH, 0ecH, 0e9H, 0f9H, 0bbH
	DB	0a3H, 0acH, 0eeH, 0a2H, 00H
	ORG $+18
	ORG $+1
	DW	00H
	DB	00H
	DB	00H
	DB	00H
	DB	'  ', 0e4H, 0ceH, 0f9H, 0bbH, '?', 0daH, 0aaH, 0d0H, 0fcH
	DB	0d2H, 0f6H, 0fdH, 0a8H, '?', 0f5H, 0f3H, '??', 0daH, 0aaH, 0d0H
	DB	0fcH, 0d2H, 0f6H, 0ecH, 0e9H, '?', 0f8H, 0faH, 0a3H, 0acH, '??'
	DB	0d6H, 0f9H, 0d7H, 0e2H, 0d0H, 0fcH, 0d2H, 0f6H, 00H
	ORG $+16
	ORG $+1
	DW	00H
	DB	00H
	DB	00H
	DB	00H
	DB	'  ', 0e4H, 0ceH, 0f9H, 0bbH, 0cbH, 0dbH, 0a3H, 0acH, 0f1H
	DB	0fdH, 0fdH, 0a8H, '?', 0daH, 0aaH, 0f6H, 0a6H, '?', 0f5H, 0f3H
	DB	'?', 0daH, 0e6H, '?', 0e3H, 0ddH, 0eeH, 0a7H, '?', 0faH, 0bcH, 0d6H
	DB	0f9H, 0d7H, 0e2H, 0a1H, 0a3H, 00H
	ORG $+20
	ORG $+1
	DW	00H
	DB	04H
	DB	00H
	DB	00H
	DB	'2.?', 0e9H, 0cdH, 0f9H, 0eaH, 0e0H, 0f7H, 00H
	ORG $+50
	ORG $+1
	DW	00H
	DB	00H
	DB	00H
	DB	00H
	DB	'      ', 0f9H, 0eaH, 0e0H, 0f7H, 0e3H, 0c0H, 0ebH, 0a6H, '?'
	DB	0daH, 0aaH, '?', 0e8H, 0c7H, 0e0H, 0f7H, 0eeH, 0dcH, 0a3H, 0acH
	DB	0e2H, 0cfH, 0e0H, 0bbH, 0f9H, 0b1H, '?', 0e0H, 0bbH, 0d3H, 0f0H
	DB	0deH, 0ccH, 0d3H, 0deH, 0f5H, 0f3H, 0dfH, 0e6H, 0f2H, 0a2H, 00H
	ORG $+12
	ORG $+1
	DW	00H
	DB	00H
	DB	00H
	DB	00H
	DB	'  ', 0eeH, 0dcH, 0f5H, 0bdH, 0edH, 0adH, 0d7H, 0ecH, 0eeH
	DB	0dcH, '?', 0daH, 0aaH, 0efH, 0c1H, '??', 0daH, 0aaH, '??', 0caH
	DB	0a5H, 0cdH, 0efH, 0d0H, 0fcH, 0d2H, 0f6H, 0a3H, 0acH, 0eeH, 0a2H
	DB	0d3H, 0f0H, '?', 0d9H, 0b5H, 0d1H, 0ceH, '?', 00H
	ORG $+16
	ORG $+1
	DW	00H
	DB	00H
	DB	00H
	DB	00H
	DB	'  ', 0fbH, 0e4H, '???', 0d1H, 0e1H, 0f5H, 0bdH, '??', 0caH
	DB	0a5H, 0cdH, 0efH, 0e1H, 0b6H, 0e2H, 0cdH, 0eeH, 0dcH, 0e1H, 0c8H
	DB	0eeH, 0a7H, 0a1H, 0a3H, 00H
	ORG $+30
	ORG $+1
	DW	00H
	DB	00H
	DB	00H
	DB	00H
	DB	'      ', 0caH, 0a5H, 0cdH, 0efH, 0ddH, 0c2H, 0e0H, 0f7H, 0dfH
	DB	0b2H, '??', 0a3H, 0acH, 0ecH, 0e9H, '?', 0e3H, 0c0H, 0d4H, 0d2H
	DB	'?', 0e3H, 0c0H, 0e1H, 0c8H, 0eeH, 0a7H, 0a3H, 0acH, 0ecH, 0e9H
	DB	'?', 0e3H, 0c0H, 0d4H, 0d2H, '?', 00H
	ORG $+15
	ORG $+1
	DW	00H
	DB	00H
	DB	00H
	DB	00H
	DB	'  ', 0e3H, 0c0H, 0d4H, 0b3H, 0ceH, 0fdH, 0a3H, 0acH, '?', 0ecH
	DB	0e9H, '?', 0e3H, 0c0H, 0e1H, 0c8H, 0eeH, 0a7H, 0fbH, 0faH, 0d4H
	DB	0b3H, 0ceH, 0fdH, 0eeH, 0dcH, 0caH, 0a5H, 0cdH, 0efH, 0a1H, 0a3H
	DB	0f9H, 0eaH, 0e0H, 0f7H, 0eeH, 0dcH, 0dbH, 0b0H, 0dbH, 0f6H, 0d4H
	DB	0d2H, 0d6H, 0f9H, 00H
	ORG $+11
	ORG $+1
	DW	00H
	DB	00H
	DB	00H
	DB	00H
	DB	'  ', 0d7H, 0e2H, 0eeH, 0dcH, 0dbH, 0b0H, 0dbH, 0f6H, 0a1H
	DB	0a3H, 00H
	ORG $+47
	ORG $+1
	DW	00H
	DB	04H
	DB	00H
	DB	00H
	DB	'3.?', 0e9H, 0cdH, '?', 0ecH, 0fdH, 0dbH, 0f6H, 00H
	ORG $+49
	ORG $+1
	DW	00H
	DB	00H
	DB	00H
	DB	00H
	DB	'  ', 0ecH, 0e9H, '?', 0ecH, 0fdH, 0eaH, 0fdH, '?', 0f4H, 0f8H
	DB	0e3H, 0b7H, 0eeH, 0dcH, '?', 0ecH, 0fdH, 0dbH, 0f6H, 0e3H, 0c0H
	DB	0e7H, 0c8H, '?', 0a3H, 0acH, 0e5H, 0a5H, 0f6H, 0a6H, 0e3H, 0c0H
	DB	0d2H, 0f6H, '?', 0ecH, 0fdH, 0e7H, 0c8H, 0d9H, 0feH, 0fbH, 0faH
	DB	00H
	ORG $+14
	ORG $+1
	DW	00H
	DB	00H
	DB	00H
	DB	00H
	DB	'  ?', 0edH, 0aeH, 0a1H, 0a3H, 0e5H, 0fdH, 0cdH, 0fdH, 0dfH
	DB	0ccH, 0d0H, 0a3H, 0f5H, 0f3H, '?', 0ecH, 0fdH, 0dbH, 0f6H, '?', 0ecH
	DB	0fdH, 0d9H, 0feH, 0edH, 0aeH, 0eeH, 0dcH, '?', 0a3H, 0acH, 0f1H
	DB	0feH, 0e9H, 0a9H, 0e4H, 0ceH, 0f9H, 0bbH, 0f8H, 0c1H, 0dfH, 0c8H
	DB	00H
	ORG $+13
	ORG $+1
	DW	00H
	DB	00H
	DB	00H
	DB	00H
	DB	'  ', 0efH, 0b7H, '??', 0ecH, 0fdH, 0dbH, 0f6H, 0eeH, 0dcH
	DB	'??', 0f6H, 0a6H, 0d2H, 0f6H, 0d0H, 0a3H, 0f5H, 0f3H, '?', 0ecH
	DB	0fdH, 0dbH, 0f6H, 0a3H, 0acH, '?', 0ecH, 0fdH, 0e8H, 0c7H, 0d9H
	DB	0feH, 0edH, 0aeH, 0fdH, 0a8H, 0e4H, 0ceH, 0f9H, 0bbH, 00H
	ORG $+15
	ORG $+1
	DW	00H
	DB	00H
	DB	00H
	DB	00H
	DB	'  enter ', 0f6H, 0a6H, '???', 0e1H, 0b6H, '?', 0ecH, 0fdH
	DB	0eeH, 0dcH, 0d9H, 0feH, 0edH, 0aeH, '?', 0e1H, 0eaH, '?', 0d0H
	DB	0ecH, 0f6H, 0e2H, 0e8H, 0ccH, 0caH, 0abH, '?', 0d3H, 0f0H, 0a1H
	DB	0a3H, 0e9H, 0a9H, 00H
	ORG $+16
	ORG $+1
	DW	00H
	DB	00H
	DB	00H
	DB	00H
	DB	'  ', 0f7H, 0e5H, '?', 0f1H, 0bcH, 0ebH, 0f2H, 0eeH, 0dcH
	DB	0e3H, 0c0H, 0e5H, 0b4H, '?', 0ecH, 0fdH, 0eeH, 0dcH, 0e3H, 0c0H
	DB	0ecH, 0edH, 0d9H, 0feH, 0fbH, 0e4H, '?', 0d9H, 0feH, 0d4H, 0f5H
	DB	0deH, 0aaH, 0f1H, 0e9H, 0d9H, 0feH, 0eeH, 0dcH, 0d9H, 0feH, 0edH
	DB	0aeH, 0d3H, 0f0H, 00H
	ORG $+12
	ORG $+1
	DW	00H
	DB	00H
	DB	00H
	DB	00H
	DB	'  ', 0eaH, 0fdH, '?', 0f1H, 0e9H, 0a3H, 0acH, 0e5H, 0fdH
	DB	0cdH, 0fdH, '?', 0dbH, 0b0H, 0e8H, 0ccH, 0caH, 0abH, 0eeH, 0dcH
	DB	'??', 0d9H, 0e9H, 0ecH, 0edH, 0d9H, 0feH, 0fbH, 0e4H, '?', 0d9H
	DB	0feH, 0d4H, 0f5H, 0deH, 0aaH, 0f1H, 0e9H, 0d9H, 0feH, 0eeH, 0dcH
	DB	00H
	ORG $+14
	ORG $+1
	DW	00H
	DB	00H
	DB	00H
	DB	00H
	DB	'  ', 0edH, 0aeH, 0faH, 0feH, '?', 0a3H, 0acH, '??', 0caH
	DB	0d7H, 0d3H, 0f0H, 0cdH, 0f6H, 0dbH, 0dcH, 0eeH, 0dcH, 0d9H, 0feH
	DB	0edH, 0aeH, 0a1H, 0a3H, 00H
	ORG $+32
	ORG $+1
	DW	00H
	DB	04H
	DB	00H
	DB	00H
	DB	'4.?', 0e9H, 0cdH, '??', 00H
	ORG $+52
	ORG $+1
	DW	07H
	DB	00H
	DB	01H
	DB	00H
	DB	'    ', 0ecH, 0d1H, 0daH, 0aaH, '?', 0edH, 0c2H, 00H
	ORG $+48
	ORG $+1
	DW	00H
	DB	00H
	DB	00H
	DB	00H
	DB	'    Ctrl + 1 ', 0f1H, 0a6H, 0f9H, 0bbH, 00H
	ORG $+42
	ORG $+1
	DW	00H
	DB	00H
	DB	00H
	DB	00H
	DB	'    Ctrl + 2 ?', 0e2H, 0a2H, 00H
	ORG $+43
	ORG $+1
	DW	00H
	DB	00H
	DB	00H
	DB	00H
	DB	'    Ctrl + 3 ', 0efH, 0c3H, '?', 00H
	ORG $+43
	ORG $+1
	DW	00H
	DB	00H
	DB	00H
	DB	00H
	DB	'    Ctrl + 4 ', 0cdH, 0d4H, '?', 00H
	ORG $+43
	ORG $+1
	DW	00H
	DB	00H
	DB	00H
	DB	00H
	DB	'    Ctrl + 5 ', 0dfH, 0e6H, '?', 00H
	ORG $+43
	ORG $+1
	DW	00H
	DB	00H
	DB	00H
	DB	00H
	DB	'    Ctrl + 6 ', 0ddH, 0e8H, '?', 00H
	ORG $+43
	ORG $+1
	DW	00H
	DB	00H
	DB	00H
	DB	00H
	DB	'    Ctrl + 7 ', 0f3H, 0d7H, 0d8H, 0a1H, 00H
	ORG $+42
	ORG $+1
	DW	00H
	DB	00H
	DB	00H
	DB	00H
	DB	'    Ctrl + 8 ', 0f1H, 0cbH, '?', 00H
	ORG $+43
	ORG $+1
	DW	00H
	DB	00H
	DB	00H
	DB	00H
	DB	'    Ctrl + 9 ', 0fbH, 0e7H, 0d3H, 0eeH, 00H
	ORG $+42
	ORG $+1
	DW	00H
	DB	00H
	DB	00H
	DB	00H
	DB	'    Ctrl + 0 ', 0cdH, 0f4H, '?', 00H
	ORG $+43
	ORG $+1
	DW	00H
	DB	00H
	DB	00H
	DB	00H
	DB	'    Ctrl + - ', 0dbH, 0c1H, 0e5H, 0d9H, 00H
	ORG $+42
	ORG $+1
	DW	00H
	DB	00H
	DB	00H
	DB	00H
	DB	'    Ctrl + = ', 0e1H, 0f4H, '?', 00H
	ORG $+43
	ORG $+1
	DW	00H
	DB	04H
	DB	00H
	DB	00H
	DB	'5.', 0efH, 0b7H, '???', 0d9H, 0bcH, 0e3H, 0d2H, 00H
	ORG $+48
	ORG $+1
	DW	00H
	DB	00H
	DB	00H
	DB	00H
	DB	'  ?? ALT + ENTER', 0a1H, 0a3H, 0e5H, 0fdH, 0cdH, 0fdH, 0dfH
	DB	0ccH, 0efH, 0b7H, '?', 0d3H, 0f0H, '??', 0d9H, 0bcH, 0e3H, 0d2H
	DB	'?', 0a3H, 0acH, 0e2H, 0cdH, 0e0H, 0bbH, '?', 00H
	ORG $+16
	ORG $+1
	DW	00H
	DB	00H
	DB	00H
	DB	00H
	DB	'  ??', 0dfH, 0e4H, 0f3H, 0f4H, '?', 0e0H, 0f7H, ' 256', 0dfH
	DB	0e4H, 0a1H, 0a3H, 00H
	ORG $+40
	ORG $+1
	DW	00H
	DB	04H
	DB	00H
	DB	00H
	DB	'6.?', 0e9H, 0cdH, '??', 0f9H, 0a1H, '?', 00H
	ORG $+49
	ORG $+1
	DW	00H
	DB	00H
	DB	00H
	DB	00H
	DB	'  ', 0eaH, 0fdH, '??', 0d8H, 0fcH, 0e9H, 0d3H, 0f9H, 0bbH
	DB	0caH, 0c7H, 0eeH, 0dcH, 0a3H, 0aaH, '?', 0fdH, 0a8H, 0d8H, 0fcH
	DB	0eeH, 0dcH, '?', 0edH, 0aeH, 0e3H, 0c0H, 0d3H, 0dbH, 0f8H, 0faH
	DB	'??', 0eeH, 0dcH, 0f9H, 0a1H, '?', 0a3H, 0acH, 00H
	ORG $+16
	ORG $+1
	DW	00H
	DB	00H
	DB	00H
	DB	00H
	DB	'  ?', 0edH, 0aeH, 0eaH, 0c6H, 0d3H, 0deH, 0d3H, 0dbH, 0f8H
	DB	0faH, '??', 0f9H, 0a1H, '?', 0eaH, 0c6H, 0f3H, 0acH, 0a1H, 0a3H
	DB	00H
	ORG $+35
	ORG $+1
	ORG $+4
?help_desc_10@@3PAUDESC@@A DW 00H			; help_desc_10
	DB	04H
	DB	00H
	DB	00H
	DB	'1.', 0ecH, 0d1H, 0daH, 0aaH, 0ecH, 0b9H, '?', 00H
	ORG $+50
	ORG $+1
	DW	00H
	DB	00H
	DB	00H
	DB	00H
	DB	'  ', 0e4H, 0ceH, 0fcH, 0c1H, 0e0H, 0a9H, 0f1H, 0a7H, '?', 0caH
	DB	0a6H, 0ecH, 0a4H, 0ecH, 0b9H, '?', 0d3H, 0f0H, 0e1H, 0b6H, 0efH
	DB	0c3H, '?', 0eeH, 0dcH, 0f2H, 0a2H, 0dbH, 0b0H, 0a1H, 0a3H, 00H
	ORG $+26
	ORG $+1
	DW	00H
	DB	00H
	DB	00H
	DB	00H
	DB	'  ', 0f2H, 0a5H, '?', 0e4H, 0ceH, 0f1H, 0acH, 0f1H, 0a7H
	DB	'?', 0eeH, 0dcH, '?', 0a3H, 0acH, 0ecH, 0d1H, 0daH, 0aaH, '?', 0e8H
	DB	0d9H, 0e1H, 0b6H, 0f2H, 0a6H, 0eeH, 0dcH, 0dbH, 0b0H, 0faH, 0beH
	DB	0f2H, 0a5H, '?', 0eeH, 0dcH, 0ecH, 0b9H, '?', 0a1H, 0a3H, 00H
	ORG $+15
	ORG $+1
	DW	00H
	DB	04H
	DB	00H
	DB	00H
	DB	'2.', 0ecH, 0d1H, 0daH, 0aaH, '?', 0faH, 0beH, 00H
	ORG $+50
	ORG $+1
	DW	00H
	DB	00H
	DB	00H
	DB	00H
	DB	'  ', 0fcH, 0c1H, 0e0H, 0a9H, 0e9H, 0d3H, '?', 0caH, 0a6H
	DB	0ecH, 0a4H, '??', 0ecH, 0d1H, 0daH, 0aaH, 0eeH, 0dcH, 0dbH, 0b0H
	DB	0faH, 0beH, 0a1H, 0a3H, 00H
	ORG $+32
	ORG $+1
	DW	00H
	DB	04H
	DB	00H
	DB	00H
	DB	'3.', 0e3H, 0a6H, '?', 0d4H, 0b3H, 0ceH, 0fdH, 00H
	ORG $+50
	ORG $+1
	DW	00H
	DB	00H
	DB	00H
	DB	00H
	DB	'  ', 0d3H, 0fcH, 0d5H, 0aaH, 0eeH, 0dcH, '?', 0d9H, 0cdH
	DB	0dbH, 0b1H, '?', 0a3H, 0acH, 0e4H, 0ceH, 0fcH, 0c1H, 0e0H, 0a9H
	DB	0e9H, 0d3H, '?', 0a1H, 0a3H, 00H
	ORG $+32
	ORG $+1
	ORG $+2
?help_desc_11@@3PAUDESC@@A DW 00H			; help_desc_11
	DB	00H
	DB	00H
	DB	00H
	DB	'?', 0eaH, 0fdH, '?', 0ecH, 0b9H, 0f2H, 0b8H, 0eaH, 0fdH, '?'
	DB	'??', 0f5H, 0ccH, 0eeH, 0bcH, 0f9H, 0bbH, 0f6H, 0a6H, '?', 0f5H
	DB	0f3H, '?', 0f9H, 0bbH, 0d6H, 0aaH, 0eeH, 0dcH, '7???', 00H
	ORG $+24
	ORG $+1
	DW	00H
	DB	00H
	DB	00H
	DB	00H
	DB	'  ', 0f2H, 0a2H, '?', 0a3H, 0baH, '??', 0e9H, 0d3H, 0dfH
	DB	0beH, 0caH, 0c7H, 0eeH, 0dcH, 0e1H, 0b3H, 0f2H, 0a2H, '?', 0a1H
	DB	0a3H, 00H
	ORG $+35
	ORG $+1
	DW	00H
	DB	00H
	DB	00H
	DB	00H
	DB	'        ?? Ctrl + M', 00H
	ORG $+40
	ORG $+1
	DW	00H
	DB	00H
	DB	00H
	DB	00H
	DB	'  ??', 0a3H, 0baH, '??', 0ecH, 0d1H, 0daH, 0aaH, '??', 0a1H
	DB	0a3H, 00H
	ORG $+43
	ORG $+1
	DW	00H
	DB	00H
	DB	00H
	DB	00H
	DB	'        ?? Ctrl + S', 00H
	ORG $+40
	ORG $+1
	DW	00H
	DB	00H
	DB	00H
	DB	00H
	DB	'  ?', 0daH, 0aaH, 0a3H, 0baH, '???', 0daH, 0aaH, '?', 0a3H
	DB	0acH, '?', 0caH, 0d7H, '?', 0daH, 0aaH, 0eeH, 0dcH, '??', 0a1H
	DB	0a3H, 00H
	ORG $+32
	ORG $+1
	DW	00H
	DB	00H
	DB	00H
	DB	00H
	DB	'        ?? Ctrl + P', 00H
	ORG $+40
	ORG $+1
	DW	00H
	DB	00H
	DB	00H
	DB	00H
	DB	'  ', 0d4H, 0b3H, 0ceH, 0fdH, 0a3H, 0baH, '??', 0ecH, 0d1H
	DB	0daH, 0aaH, 0eeH, 0dcH, 0d4H, 0b3H, 0ceH, 0fdH, '?', 0ecH, 0a4H
	DB	0d0H, 0e0H, 0ecH, 0d1H, 0daH, 0aaH, 0eeH, 0dcH, '???', 0a1H, 0a3H
	DB	00H
	ORG $+23
	ORG $+1
	DW	00H
	DB	00H
	DB	00H
	DB	00H
	DB	'        ?? Ctrl + I', 00H
	ORG $+40
	ORG $+1
	DW	00H
	DB	00H
	DB	00H
	DB	00H
	DB	'  ?', 0cbH, 0ecH, 0a3H, 0baH, '??', 0ecH, 0d1H, 0daH, 0aaH
	DB	0eeH, 0dcH, 0d9H, 0a3H, 0f8H, 0b8H, '?', 0a1H, 0a3H, 00H
	ORG $+37
	ORG $+1
	DW	00H
	DB	00H
	DB	00H
	DB	00H
	DB	'        ?? Ctrl + E', 00H
	ORG $+40
	ORG $+1
	DW	00H
	DB	00H
	DB	00H
	DB	00H
	DB	'  ', 0dfH, 0d3H, 0ddH, 0adH, 0a3H, 0baH, '???', 0daH, 0aaH
	DB	0dfH, 0d3H, 0ddH, 0adH, 0a1H, 0a3H, 00H
	ORG $+40
	ORG $+1
	DW	00H
	DB	00H
	DB	00H
	DB	00H
	DB	'        ?? Ctrl + A', 00H
	ORG $+40
	ORG $+1
	DW	00H
	DB	00H
	DB	00H
	DB	00H
	DB	'  ', 0cdH, 0a7H, '?', 0a3H, 0baH, '??', 0cdH, 0a7H, '???'
	DB	0a1H, 0a3H, 00H
	ORG $+43
	ORG $+1
	DW	00H
	DB	00H
	DB	00H
	DB	00H
	DB	'        ', 0d4H, 0f4H, 0f5H, 0f3H, 0a3H, 0baH, 0d4H, 0f4H
	DB	0f5H, 0f3H, 0eaH, 0fdH, '?', 0a1H, 0a3H, 00H
	ORG $+36
	ORG $+1
	DW	00H
	DB	00H
	DB	00H
	DB	00H
	DB	'        ', 0eaH, 0abH, 0f2H, 0a2H, 0d4H, 0f4H, 0f5H, 0f3H
	DB	0a3H, 0baH, 0d4H, 0f4H, 0f5H, 0f3H, 0fdH, 0a8H, 0eeH, 0a2H, '?'
	DB	0ecH, 0fdH, 0eaH, 0fdH, '??', 0fcH, 0deH, 0d3H, 0f0H, 0dfH, 0beH
	DB	0f3H, 0adH, 0d4H, 0f4H, 0f5H, 0f3H, 0eeH, 0dcH, 00H
	ORG $+12
	ORG $+1
	DW	00H
	DB	00H
	DB	00H
	DB	00H
	DB	'        ', 0f2H, 0a2H, 0efH, 0c3H, 0a1H, 0a3H, 00H
	ORG $+45
	ORG $+1
	DW	00H
	DB	00H
	DB	00H
	DB	00H
	DB	'        ', 0d6H, 0fdH, 0f4H, 0b8H, '?', 0efH, 0d2H, 0a3H
	DB	0baH, '?', 0e3H, 0c6H, '?', 0d8H, 0fcH, 0dfH, 0beH, 0caH, 0a6H
	DB	'?', 0e3H, 0c6H, 0eeH, 0dcH, 0f5H, 0ccH, 0d3H, 0deH, '??', 0faH
	DB	0bcH, '?', 0a1H, 0a2H, 00H
	ORG $+16
	ORG $+1
	DW	00H
	DB	00H
	DB	00H
	DB	00H
	DB	'                  ', 0cbH, 0c7H, '???', 0eeH, 0dcH, '?', 0dfH
	DB	0e4H, 0a1H, 0a2H, '??', 0eeH, 0dcH, 0dbH, 0f5H, '?', 0ecH, 0a4H
	DB	0d0H, 0e0H, 0caH, 0a6H, 00H
	ORG $+16
	ORG $+1
	DW	00H
	DB	00H
	DB	00H
	DB	00H
	DB	'                  ??', 0dfH, 0c8H, 0e9H, 0c4H, 0eeH, 0dcH
	DB	0d9H, 0feH, 0edH, 0aeH, 0a3H, 0a8H, 'F1~F8', 0a3H, 0a9H, 0a1H, 0a3H
	DB	00H
	ORG $+18
	ORG $+1
	DW	00H
	DB	00H
	DB	00H
	DB	00H
	DB	'        ', 0dbH, 0ceH, 0ccH, 0d8H, 0ebH, 0e5H, '??', 0efH
	DB	0d2H, 0a3H, 0baH, 0caH, 0a6H, 0cbH, 0c7H, '?', 0ebH, 0e5H, '?', 0ebH
	DB	0e5H, 0d5H, 0e1H, 0eeH, 0dcH, 0d3H, 0deH, 0e1H, 0b3H, 0fbH, 0faH
	DB	'?', 0f1H, 0b4H, 0eeH, 0dcH, 00H
	ORG $+14
	ORG $+1
	DW	00H
	DB	00H
	DB	00H
	DB	00H
	DB	'                      ', 0f6H, 0e1H, 0d8H, 0b7H, 0a1H, 0a3H
	DB	00H
	ORG $+31
	ORG $+1
	DW	00H
	DB	00H
	DB	00H
	DB	00H
	DB	'        ', 0ebH, 0e5H, 0fcH, 0f9H, '?', 0efH, 0d2H, 0a3H
	DB	0baH, 0caH, 0a6H, 0cbH, 0c7H, '?', 0ebH, 0e5H, 0fcH, 0f9H, 0ebH
	DB	0e5H, 0d5H, 0e1H, 0eeH, 0dcH, 0d3H, 0deH, 0e1H, 0b3H, 0fbH, 0faH
	DB	0d8H, 0a1H, '??', 0a1H, 0a2H, '?', 00H
	ORG $+14
	ORG $+1
	DW	00H
	DB	00H
	DB	00H
	DB	00H
	DB	'                  ?', 0d4H, 0b3H, 0a1H, 0a3H, 00H
	ORG $+36
	ORG $+1
	DW	00H
	DB	00H
	DB	00H
	DB	00H
	DB	'        ', 0fcH, 0c1H, 0e0H, 0a9H, '?', 0efH, 0d2H, 0a3H
	DB	0baH, '?', 0efH, 0d2H, 0eaH, 0fdH, '??', 0ecH, 0e9H, 0daH, 0f5H
	DB	0fbH, 0e4H, 0f8H, 0c1H, 0fcH, 0c1H, 0a1H, 0a3H, 00H
	ORG $+23
	ORG $+1
	DW	01H
	DB	00H
	DB	02H
	DB	01bH
	DB	0edH, 0bbH, '??', 0d4H, 0e0H, '?', 0efH, 0d2H, 00H
	ORG $+50
	ORG $+1
	ORG $+4
?help_desc_12@@3PAUDESC@@A DW 03H			; help_desc_12
	DB	04H
	DB	00H
	DB	00H
	DB	'1.??', 00H
	ORG $+55
	ORG $+1
	DW	00H
	DB	00H
	DB	00H
	DB	00H
	DB	'      ', 0d8H, 0fcH, '?', 0dfH, 0ccH, 0e9H, 0a9H, 0caH, 0a5H
	DB	0ecH, 0fdH, 0eeH, 0dcH, 0ecH, 0d1H, 0e4H, 0ceH, 0f9H, 0bbH, 0a1H
	DB	0b4H, 0caH, 0a5H, 0ecH, 0fdH, '?', 0e7H, 0eaH, 0a1H, 0b5H, 0eeH
	DB	0dcH, 0e4H, 0ceH, '?', 0f6H, 0a6H, '?', 0caH, 0a5H, 00H
	ORG $+13
	ORG $+1
	DW	00H
	DB	00H
	DB	00H
	DB	00H
	DB	'  ', 0ecH, 0fdH, '?', 0d9H, 0a3H, 0e8H, 0ccH, 0caH, 0abH
	DB	0eeH, 0dcH, '?', 0e7H, 0eaH, 0a1H, 0a3H, 0caH, 0a5H, 0ecH, 0fdH
	DB	'?', 0e7H, 0eaH, 0ecH, 0a4H, 0fdH, 0a8H, 0a3H, 0acH, 0ecH, 0b9H
	DB	'?', 0f6H, 0a6H, 0ebH, 0a6H, '????', 00H
	ORG $+17
	ORG $+1
	DW	00H
	DB	00H
	DB	00H
	DB	00H
	DB	'  ', 0efH, 0d2H, 0a3H, 0acH, '??', 0f6H, 0a6H, 0e3H, 0c0H
	DB	0eeH, 0a4H, '?', 0dfH, 0beH, 0eaH, 0f3H, ' L??', 0eeH, 0dcH, 0ecH
	DB	0d1H, '?', 0a3H, 0a1H, 00H
	ORG $+29
	ORG $+1
	DW	00H
	DB	00H
	DB	00H
	DB	00H
	DB	'      ', 0dfH, 0ccH, '???', 0e7H, 0eaH, 0eeH, 0dcH, '?', 0fdH
	DB	0a6H, 0a3H, 0acH, 0f1H, 0feH, 0e9H, 0a9H, 0eeH, 0a2H, 0e4H, 0ceH
	DB	0ecH, 0e9H, 0f3H, 0adH, 0a1H, 0b4H, 0caH, 0a5H, 0ecH, 0fdH, '?'
	DB	0e7H, 0eaH, 0a1H, 0b5H, 0eeH, 0dcH, 00H
	ORG $+14
	ORG $+1
	DW	00H
	DB	00H
	DB	00H
	DB	00H
	DB	'  ', 0e4H, 0ceH, '?', 0f6H, 0a6H, 0faH, 0bcH, 0d6H, 0f5H
	DB	0a1H, 0a3H, 0eeH, 0a4H, '?', 0d4H, 0e0H, 0f1H, 0e9H, 0d4H, 0b1H
	DB	'?', 0eeH, 0dcH, '???????', 0e7H, 0eaH, 0a3H, 0acH, 0ecH, 0bbH
	DB	0e5H, 0fdH, 00H
	ORG $+19
	ORG $+1
	DW	00H
	DB	00H
	DB	00H
	DB	00H
	DB	'  ', 0cdH, 0fdH, '??', 0d4H, 0b1H, 0f1H, 0cbH, 0eeH, 0dcH
	DB	'?', 0a3H, 0acH, 0d1H, 0e1H, '?', 0e7H, 0eaH, 0f6H, 0a6H, '?', 0edH
	DB	0bbH, '?', 0faH, 0b0H, 0dfH, 0a4H, 0d6H, 0f5H, 0a1H, 0a3H, 00H
	ORG $+25
	ORG $+1
	DW	00H
	DB	00H
	DB	00H
	DB	00H
	DB	'      ', 0e5H, 0fdH, 0cdH, 0fdH, 0e8H, 0ccH, 0caH, 0abH, 0dfH
	DB	0ccH, '???', 0eeH, 0dcH, '?', 0a3H, 0acH, 0f1H, 0feH, 0e9H, 0a9H
	DB	'????', 0e0H, 0f7H, ' YES', 0f6H, 0a6H, 0caH, 0a6H, 00H
	ORG $+17
	ORG $+1
	DW	00H
	DB	00H
	DB	00H
	DB	00H
	DB	'  ', 0ecH, 0a4H, '?', 0d0H, 0ecH, 0f6H, 0e2H, 0eeH, 0dcH
	DB	0e8H, 0ccH, 0caH, 0abH, 0caH, 0a5H, 0ecH, 0fdH, '?', 0eeH, 0dcH
	DB	'?', 0e7H, 0eaH, 0d6H, 0f5H, 0a1H, 0a3H, 00H
	ORG $+30
	ORG $+1
	DW	04H
	DB	04H
	DB	00H
	DB	00H
	DB	'2.?', 0d4H, 0e0H, 00H
	ORG $+54
	ORG $+1
	DW	00H
	DB	00H
	DB	00H
	DB	00H
	DB	'      ?', 0e8H, 0ccH, 0caH, 0abH, 0dfH, 0ccH, 0fbH, 0faH
	DB	0d0H, 0ecH, 0f6H, 0e2H, 0eeH, 0dcH, 0e8H, 0ccH, 0caH, 0abH, 'P'
	DB	'K?', 0a3H, 0acH, 0f1H, 0feH, 0e9H, 0a9H, '??', 0d4H, 0e0H, '?'
	DB	0e0H, 0f7H, ' YES', 00H
	ORG $+14
	ORG $+1
	DW	00H
	DB	00H
	DB	00H
	DB	00H
	DB	'  ', 0e6H, 0d4H, 0fdH, 0a8H, 0d8H, 0fcH, '?', 0d8H, 0fcH
	DB	0a3H, 0acH, 0d0H, 0ecH, 0f1H, 0e9H, 0ecH, 0e9H, 0dbH, 0b0H, 0e4H
	DB	0ceH, 0f9H, 0bbH, 0eaH, 0fdH, '??', 0d8H, 0fcH, 0e9H, 0d3H, 0dfH
	DB	0beH, 0caH, 0c7H, 0eeH, 0dcH, 0a1H, 0b4H, '?', 0d0H, 0ecH, 0f6H
	DB	0e2H, 00H
	ORG $+13
	ORG $+1
	DW	00H
	DB	00H
	DB	00H
	DB	00H
	DB	'  ', 0e8H, 0ccH, 0caH, 0abH, '?', 0d4H, 0e0H, 0a1H, 0b5H
	DB	0eeH, 0dcH, 0e4H, 0ceH, '?', 0f6H, 0a6H, '??', 0ecH, 0fdH, '?', 0d4H
	DB	0e0H, '?', 0d8H, 0fcH, 0d6H, 0f5H, 0a1H, 0a3H, 00H
	ORG $+27
	ORG $+1
	DW	00H
	DB	00H
	DB	00H
	DB	00H
	DB	'      ?', 0e8H, 0e2H, 0a3H, 0acH, '???', 0e7H, 0eaH, 0e5H
	DB	0a5H, 0d2H, 0f6H, 0fbH, 0bbH, 0dfH, 0d3H, 'PK', 0a3H, 0acH, 0f1H
	DB	0feH, 0e9H, 0a9H, '?', 0dbH, 0b0H, '????', 0d4H, 0e0H, 00H
	ORG $+18
	ORG $+1
	DW	00H
	DB	00H
	DB	00H
	DB	00H
	DB	'  ?', 0e0H, 0f7H, ' YES', 0a3H, 0acH, 0e6H, 0d4H, 0fdH, 0a8H
	DB	'?', 0dbH, 0b0H, '??', 0d8H, 0fcH, '?', 0d8H, 0fcH, 0d0H, 0ecH
	DB	0f1H, 0e9H, 0ecH, 0e9H, 0dbH, 0b0H, 0e4H, 0ceH, 0f9H, 0bbH, 0a1H
	DB	0b4H, '?', 0d0H, 0ecH, 0f6H, 0e2H, 00H
	ORG $+15
	ORG $+1
	DW	00H
	DB	00H
	DB	00H
	DB	00H
	DB	'  ', 0e8H, 0ccH, 0caH, 0abH, '?', 0d4H, 0e0H, 0a1H, 0b5H
	DB	0eeH, 0dcH, 0e4H, 0ceH, '?', 0f6H, 0a6H, '??', 0ecH, 0fdH, '?', 0d4H
	DB	0e0H, '?', 0d8H, 0fcH, 0d6H, 0f5H, 0a1H, 0a3H, 'PK?', 0e1H, 0d6H
	DB	0fdH, 0a8H, '?', 0d4H, 0e0H, 00H
	ORG $+17
	ORG $+1
	DW	00H
	DB	00H
	DB	00H
	DB	00H
	DB	'  ??', 0edH, 0bbH, '???NO', 0a1H, 0a3H, 00H
	ORG $+46
	ORG $+1
	DW	05H
	DB	04H
	DB	00H
	DB	00H
	DB	'3.', 0ceH, 0dfH, '?', 0d9H, 0a3H, 0f8H, 0b8H, 00H
	ORG $+50
	ORG $+1
	DW	00H
	DB	00H
	DB	00H
	DB	00H
	DB	'  ?', 0e8H, 0ccH, 0caH, 0abH, '?', 0dfH, 0ccH, 0e9H, 0a9H
	DB	0fbH, 0bbH, 0dfH, 0d3H, 0ceH, 0dfH, '?', 0d9H, 0a3H, 0f8H, 0b8H
	DB	'?', 0a3H, 0acH, 0f1H, 0feH, 0e9H, 0a9H, 0e0H, 0bbH, '?', 0ceH
	DB	0dfH, '?', 0d9H, 0a3H, 0f8H, 0b8H, '?', 0e0H, 0f7H, 00H
	ORG $+16
	ORG $+1
	DW	00H
	DB	00H
	DB	00H
	DB	00H
	DB	'   YES', 0a3H, 0acH, 0e6H, 0d4H, 0fdH, 0a8H, 0d8H, 0fcH, '?'
	DB	0d8H, 0fcH, 0d0H, 0ecH, 0f1H, 0e9H, 0ecH, 0e9H, 0dbH, 0b0H, 0e4H
	DB	0ceH, 0f9H, 0bbH, 0eaH, 0fdH, '??', 0d8H, 0fcH, 0f1H, 0a7H, 0dfH
	DB	0beH, 0caH, 0c7H, 0eeH, 0dcH, 0a1H, 0b4H, 0ceH, 0dfH, 00H
	ORG $+12
	ORG $+1
	DW	00H
	DB	00H
	DB	00H
	DB	00H
	DB	'  ?', 0d9H, 0a3H, 0f8H, 0b8H, 0a1H, 0b5H, 0f6H, 0a6H, 0caH
	DB	0a6H, 0ecH, 0a4H, 0d6H, 0f5H, 0a3H, 0acH, 0f3H, 0aeH, '?', 0d9H
	DB	0a3H, 0f8H, 0b8H, '??', 0d2H, 0fdH, 0ecH, 0e9H, '??', 0dbH, 0b0H
	DB	0e8H, 0ccH, 0caH, 0abH, 0eeH, 0dcH, 0d9H, 0a3H, 00H
	ORG $+15
	ORG $+1
	DW	00H
	DB	00H
	DB	00H
	DB	00H
	DB	'  ', 0f8H, 0b8H, 0a1H, 0a3H, 00H
	ORG $+53
	ORG $+1
	DW	00H
	DB	04H
	DB	00H
	DB	00H
	DB	'4.', 0d6H, 0fdH, 0f4H, 0b8H, 00H
	ORG $+53
	ORG $+1
	DW	00H
	DB	00H
	DB	00H
	DB	00H
	DB	'  ', 0d6H, 0fdH, 0f4H, 0b8H, 0caH, 0a6H, 0ecH, 0a4H, '??'
	DB	0eeH, 0efH, '?', 0fbH, 0faH, '?', 0e7H, 0eaH, 0a1H, 0a3H, 0eeH
	DB	0efH, '?', 0e3H, 0c0H, 0f2H, 0a6H, '?', 0eeH, 0a4H, '????', 0d8H
	DB	0fcH, 0dfH, 0beH, 00H
	ORG $+19
	ORG $+1
	DW	00H
	DB	00H
	DB	00H
	DB	00H
	DB	'  ', 0eeH, 0dcH, 0e8H, 0ccH, 0caH, 0abH, 0d4H, 0b4H, 0caH
	DB	0a6H, 0ecH, 0a4H, '?', 0d3H, 0f0H, '??', 0eeH, 0dcH, '?', 0a3H
	DB	0acH, 0f8H, 0d0H, 0ceH, 0c0H, '? NPC', 0ceH, 0dfH, '?', 0a1H, 0a3H
	DB	'?', 0e7H, 0eaH, 0e3H, 0c0H, 00H
	ORG $+16
	ORG $+1
	DW	00H
	DB	00H
	DB	00H
	DB	00H
	DB	'  ', 0f2H, 0a6H, '???', 0f1H, 0feH, 0eaH, 0f3H, '??', 0ecH
	DB	0e9H, 0d1H, 0c3H, '??', 0eeH, 0dcH, 0e8H, 0ccH, 0caH, 0abH, 0eeH
	DB	0a6H, 0d2H, 0f6H, '?', 0d3H, 0f0H, '?', 0e1H, 0b6H, '?', 0eeH, 0dcH
	DB	'?', 00H
	ORG $+20
	ORG $+1
	DW	06H
	DB	04H
	DB	00H
	DB	00H
	DB	'5.', 0ceH, 0dfH, 0e6H, 0b6H, 00H
	ORG $+53
	ORG $+1
	DW	00H
	DB	00H
	DB	00H
	DB	00H
	DB	'  ?', 0e8H, 0ccH, 0caH, 0abH, 0dfH, 0ccH, '?', 0d0H, 0ecH
	DB	0f6H, 0e2H, 0eeH, 0dcH, 0e8H, 0ccH, 0caH, 0abH, '?', 0faH, 0bcH
	DB	0ceH, 0dfH, 0e6H, 0b6H, '?', 0a3H, 0acH, 0e2H, 0cdH, 0e9H, 0a9H
	DB	0e0H, 0bbH, '?', 0ceH, 0dfH, 0e6H, 0b6H, '?', 0e0H, 0f7H, 00H
	ORG $+15
	ORG $+1
	DW	00H
	DB	00H
	DB	00H
	DB	00H
	DB	'   YES', 0a3H, 0acH, 0e6H, 0d4H, 0fdH, 0a8H, 0d8H, 0fcH, '?'
	DB	0d8H, 0fcH, 0d0H, 0ecH, 0f1H, 0e9H, 0ecH, 0e9H, 0dbH, 0b0H, 0e4H
	DB	0ceH, 0f9H, 0bbH, 0eaH, 0fdH, '??', 0d8H, 0fcH, 0f1H, 0a7H, 0dfH
	DB	0beH, 0caH, 0c7H, 0eeH, 0dcH, 0a1H, 0b4H, 0ceH, 0dfH, 00H
	ORG $+12
	ORG $+1
	DW	00H
	DB	00H
	DB	00H
	DB	00H
	DB	'  ', 0e6H, 0b6H, 0a1H, 0b5H, 0e4H, 0ceH, '?', 0a3H, 0acH
	DB	0f1H, 0fdH, 0fdH, 0a8H, 0eeH, 0a2H, 0dbH, 0afH, 0dfH, 0beH, '?'
	DB	0e1H, 0b6H, 0e9H, 0a9H, 0ceH, 0dfH, 0e6H, 0b6H, 0eeH, 0dcH, 0daH
	DB	0aaH, 0f9H, 0a1H, 0a3H, 0a8H, '?', 0fbH, 0e4H, '?', 0daH, 0aaH
	DB	0fbH, 0e4H, 00H
	ORG $+13
	ORG $+1
	DW	00H
	DB	00H
	DB	00H
	DB	00H
	DB	'  ', 0d4H, 0b3H, 0ceH, 0fdH, 0a3H, 0a9H, 0a3H, 0acH, 0dbH
	DB	0afH, 0fbH, 0bfH, 0ceH, 0dfH, 0e6H, 0b6H, 0daH, 0aaH, 0f9H, 0a1H
	DB	0ecH, 0a4H, 0fdH, 0a8H, 0f1H, 0feH, 0e9H, 0a9H, 0d0H, 0ecH, 0f1H
	DB	0e9H, 0ecH, 0e9H, 0dbH, 0b0H, 0e4H, 0ceH, 0f9H, 0bbH, 'OK?', 0ceH
	DB	0dfH, 0e6H, 0b6H, 00H
	ORG $+10
	ORG $+1
	DW	00H
	DB	00H
	DB	00H
	DB	00H
	DB	'  ', 0f6H, 0a6H, '??', 0efH, 0d2H, 0a3H, 0acH, 0f3H, 0aeH
	DB	'?', 0f6H, 0a6H, 0d9H, 0e9H, 0dbH, 0f6H, 0eeH, 0a2H, 0ccH, 0daH
	DB	'?', 0ceH, 0dfH, 0e6H, 0b6H, 0eeH, 0dcH, 0daH, 0aaH, 0f9H, 0a1H
	DB	0d6H, 0f5H, 0a3H, 0acH, 0f1H, 0feH, 0e9H, 0a9H, '?', 0ecH, 0e9H
	DB	00H
	ORG $+14
	ORG $+1
	DW	00H
	DB	00H
	DB	00H
	DB	00H
	DB	'  ', 0dbH, 0b0H, '??', 0d9H, 0e9H, '?', 0eeH, 0a2H, 0e4H
	DB	0ceH, 0f9H, 0bbH, 'OK?', 0ceH, 0dfH, 0e6H, 0b6H, 0f6H, 0a6H, '?'
	DB	0e8H, 0c7H, 0e0H, 0f7H, 0d6H, 0f5H, 0a1H, 0a3H, 00H
	ORG $+26
	ORG $+1
	DW	00H
	DB	00H
	DB	00H
	DB	00H
	DB	'  ', 0f1H, 0bcH, 0ebH, 0f2H, 0a3H, 0baH, 0ecH, 0e9H, 0f3H
	DB	0adH, 0ceH, 0dfH, 0e6H, 0b6H, 0eeH, 0dcH, 0daH, 0aaH, 0f9H, 0a1H
	DB	0ecH, 0a4H, ' 2??', 0dfH, 0beH, 0f9H, 0daH, 0a3H, 0acH, '?', 0daH
	DB	0aaH, 0ecH, 0e9H, 0f3H, 0adH, 0ecH, 0a4H, ' 1', 0f1H, 0feH, 00H
	ORG $+12
	ORG $+1
	DW	00H
	DB	00H
	DB	00H
	DB	00H
	DB	'        ?', 0dfH, 0beH, 0f9H, 0daH, 0a3H, 0acH, 0e5H, 0b4H
	DB	0eaH, 0f3H, 0ccH, 0daH, 0d2H, 0fdH, 0eeH, 0dcH, 0daH, 0aaH, 0f9H
	DB	0a1H, 0dfH, 0ccH, 0ceH, 0dfH, 0e6H, 0b6H, 0a3H, 0acH, '?', 0f1H
	DB	0ecH, 0dcH, 0ddH, 0ceH, 0dfH, 0e6H, 0b6H, 0a1H, 0a3H, 00H
	ORG $+11
	ORG $+1
	ORG $+2
?help_desc_13@@3PAUDESC@@A DW 00H			; help_desc_13
	DB	04H
	DB	00H
	DB	00H
	DB	'1.', 0d9H, 0ebH, 0d0H, 0efH, 00H
	ORG $+53
	ORG $+1
	DW	00H
	DB	00H
	DB	00H
	DB	00H
	DB	'  ??', 0cdH, 0f4H, '?(?', 0faH, 0aaH, 0d5H, 0f4H, 0d3H, 0deH
	DB	0a1H, 0a2H, 0caH, 0a6H, 0daH, 0e3H, '?)??', 0a3H, 0baH, '?', 0a1H
	DB	0a2H, 0ddH, 0a8H, 0a1H, 0a2H, 0cdH, 0e2H, 0dcH, 0eaH, 0a1H, 0a2H
	DB	0f0H, 0d0H, 00H
	ORG $+17
	ORG $+1
	DW	00H
	DB	00H
	DB	00H
	DB	00H
	DB	'  ??', 0cdH, 0f4H, '?(?', 0faH, 0aaH, 0d5H, 0f4H, 0d3H, 0deH
	DB	0a1H, 0a2H, 0dcH, 0f4H, 0caH, 0a6H, 0daH, 0e3H, '?)??', 0a3H, 0baH
	DB	0e0H, 0b4H, '?', 00H
	ORG $+27
	ORG $+1
	DW	00H
	DB	00H
	DB	00H
	DB	00H
	DB	'  ??', 0cdH, 0f4H, '?(?', 0faH, 0aaH, 0d5H, 0f4H, 0e1H, 0b3H
	DB	0a1H, 0a2H, 0dcH, 0f4H, 0caH, 0a6H, 0daH, 0e3H, '?)??', 0a3H, 0baH
	DB	0cfH, 0e1H, 0a1H, 0a2H, 0fcH, 0deH, 0d5H, 0f4H, '?', 00H
	ORG $+21
	ORG $+1
	DW	00H
	DB	00H
	DB	00H
	DB	00H
	DB	'  ( ', 0cbH, 0cbH, 0ddH, 0c2H, 0eaH, 0f3H, 0efH, 0f1H, '?'
	DB	'?', 0d9H, 0e9H, 0efH, 0f1H, '? 2', 0d3H, 0deH, '?', 0a1H, 0a2H
	DB	0caH, 0c0H, 0f5H, 0bdH, 0e1H, 0b6H, '??', 0eeH, 0dcH, 0daH, 0aaH
	DB	0f9H, 0a1H, 0dcH, 0f4H, '?', 00H
	ORG $+16
	ORG $+1
	DW	00H
	DB	00H
	DB	00H
	DB	00H
	DB	'  ', 0dfH, 0d3H, 0d4H, 0d2H, ' )', 00H
	ORG $+51
	ORG $+1
	DW	00H
	DB	04H
	DB	00H
	DB	00H
	DB	'2.', 0dbH, 0c1H, 0ceH, 0fdH, 00H
	ORG $+53
	ORG $+1
	DW	00H
	DB	00H
	DB	00H
	DB	00H
	DB	'  ?', 0ddH, 0bbH, ': ', 0d4H, 0dfH, 0fbH, 0e4H, 0d9H, 0b6H
	DB	0edH, 0adH, 00H
	ORG $+44
	ORG $+1
	DW	00H
	DB	00H
	DB	00H
	DB	00H
	DB	'  ?', 0ddH, 0bbH, ': ?', 0e3H, 0f3H, 0ddH, 0acH, 0fbH, 0e4H
	DB	0e2H, 0cfH, '?', 00H
	ORG $+42
	ORG $+1
	DW	00H
	DB	00H
	DB	00H
	DB	00H
	DB	'  ', 0e2H, 0a2H, 0ddH, 0bbH, ': ', 0ccH, 0fcH, 0f2H, 0a6H
	DB	0fbH, 0e4H, 0e2H, 0a2H, '?', 00H
	ORG $+42
	ORG $+1
	DW	00H
	DB	00H
	DB	00H
	DB	00H
	DB	'  ', 0e3H, 0f3H, '?: ?', 0fbH, 0e4H, 0dcH, 0d7H, 00H
	ORG $+47
	ORG $+1
	DW	00H
	DB	00H
	DB	00H
	DB	00H
	DB	'  ( ', 0cbH, 0cbH, 0ddH, 0c2H, 0eaH, 0f3H, 0efH, 0f1H, '?'
	DB	'?', 0d9H, 0e9H, 0efH, 0f1H, '? 2', 0d3H, 0deH, '?', 0a1H, 0a2H
	DB	0caH, 0c0H, 0f5H, 0bdH, 0e1H, 0b6H, '??', 0eeH, 0dcH, 0daH, 0aaH
	DB	0f9H, 0a1H, 0dcH, 0f4H, '?', 00H
	ORG $+16
	ORG $+1
	DW	00H
	DB	00H
	DB	00H
	DB	00H
	DB	'  ', 0dfH, 0d3H, 0d4H, 0d2H, ' )', 00H
	ORG $+51
	ORG $+1
	DW	00H
	DB	04H
	DB	00H
	DB	00H
	DB	'3.', 0d4H, 0b3H, 0ceH, 0fdH, 00H
	ORG $+53
	ORG $+1
	DW	00H
	DB	00H
	DB	00H
	DB	00H
	DB	'      ', 0eeH, 0a4H, 0daH, 0aaH, 0f9H, 0a1H, '??', 0eeH, 0dcH
	DB	0cbH, 0cbH, 0caH, 0a6H, '?', 0d4H, 0b3H, 0ceH, 0fdH, 0a3H, 0acH
	DB	0daH, 0aaH, 0f9H, 0a1H, '?', 0eaH, 0c8H, 0ecH, 0e9H, 0cdH, 0ecH
	DB	'15', 0ccH, 0abH, 0a3H, 0acH, 0e5H, 0b4H, 00H
	ORG $+13
	ORG $+1
	DW	00H
	DB	00H
	DB	00H
	DB	00H
	DB	'  ', 0e8H, 0ccH, 0caH, 0abH, '?', 0d4H, 0f0H, 0dcH, 0f4H
	DB	'?', 0e9H, 0c4H, 0fbH, 0e4H, 0eaH, 0f3H, 0f1H, 0ecH, 0e9H, 0a9H
	DB	0daH, 0aaH, 0f9H, 0a1H, '?', 0d6H, 0e7H, '??', 0a3H, 0acH, 0caH
	DB	0a6H, '?', 0edH, 0bbH, 0d0H, 0f9H, '??', 00H
	ORG $+17
	ORG $+1
	DW	00H
	DB	00H
	DB	00H
	DB	00H
	DB	'  ', 0e9H, 0c4H, 0dcH, 0f4H, 0d3H, 0f0H, 0fbH, 0e4H, 0f1H
	DB	0ecH, 0e9H, 0a9H, 0eeH, 0dcH, 0daH, 0aaH, 0f9H, 0a1H, 0d4H, 0b3H
	DB	0ceH, 0fdH, 0f0H, 0edH, 0dbH, 0afH, 0eeH, 0a4H, 0deH, 0ccH, 0d3H
	DB	0deH, 0f5H, 0bdH, ' ( 4?', 0f5H, 0f3H, 0dfH, 0e6H, 0f2H, 0a2H, ')'
	DB	' ', 00H
	ORG $+10
	ORG $+1
	DW	00H
	DB	00H
	DB	00H
	DB	00H
	DB	'  ?', 0eeH, 0dcH, '24', 0dfH, 0c2H, 0efH, 0c1H, '? (', 0caH
	DB	0a6H, 0f0H, 0edH, 0dbH, 0afH, ' 6? )', 0a3H, 0acH, 0e5H, 0a5H, 0caH
	DB	0a6H, 0f2H, 0b8H, 0caH, 0c0H, 0f5H, 0bdH, 0eeH, 0dcH, 0d4H, 0b3H
	DB	0ceH, 0fdH, 0efH, 0c1H, 0a1H, 0a2H, 00H
	ORG $+12
	ORG $+1
	DW	00H
	DB	00H
	DB	00H
	DB	00H
	DB	'  ?', 0eaH, 0c2H, 0a1H, 0a2H, 0e1H, 0c8H, 0eeH, 0a7H, 0efH
	DB	0c1H, '??', 0edH, 0bbH, 0d0H, 0f9H, 0e1H, 0b6H, 0e2H, 0cdH, 0e9H
	DB	0a9H, 0eeH, 0dcH, 0daH, 0aaH, 0f9H, 0a1H, 0a1H, 0a3H, 0e5H, 0fdH
	DB	': ', 0fcH, 0deH, '??', 0a1H, 0a2H, '?', 00H
	ORG $+15
	ORG $+1
	DW	00H
	DB	00H
	DB	00H
	DB	00H
	DB	'  ', 0d5H, 0f4H, 0fcH, 0deH, '??', 0a1H, 0a2H, '?', 0fcH
	DB	0c0H, '?', 0a1H, 0a2H, 0e9H, 0e2H, 0d9H, 0beH, 0a1H, 0a2H, 0efH
	DB	0f1H, '?', 0f5H, 0aeH, 0a1H, 0a6H, 0a1H, 0a6H, 0a1H, 0a6H, 0d4H
	DB	0f5H, 0d4H, 0f5H, 0a1H, 0a3H, '?', 0e8H, 0e2H, 0a3H, 0acH, 00H
	ORG $+15
	ORG $+1
	DW	00H
	DB	00H
	DB	00H
	DB	00H
	DB	'  ', 0f5H, 0bdH, '?', 0eeH, 0dcH, ' NPC', 0f1H, 0e9H, 0e5H
	DB	0a5H, 0eaH, 0f3H, '??', 0daH, 0aaH, 0f9H, 0a1H, 0eeH, 0dcH, 0a3H
	DB	0acH, 0e5H, 0fdH, ' :', 0f7H, 0e5H, '?', 0f9H, 0a1H, '???', 0a1H
	DB	0a3H, 00H
	ORG $+18
	ORG $+1
	DW	00H
	DB	00H
	DB	00H
	DB	00H
	DB	'      ', 0e5H, 0a5H, 0caH, 0a6H, '??', 0daH, 0aaH, '?', 0efH
	DB	0d2H, 0e0H, 0f7H, '?', 0cbH, 0ecH, 0a3H, 0acH, '??', 0edH, 0bbH
	DB	0d0H, 0f9H, 0d9H, 0a3H, 0f8H, 0b8H, 0f1H, 0e9H, 0e1H, 0b6H, 0e9H
	DB	0a9H, 0d0H, 0f6H, 0e3H, 0e1H, 00H
	ORG $+15
	ORG $+1
	DW	00H
	DB	00H
	DB	00H
	DB	00H
	DB	'  ', 0eeH, 0dcH, 0e8H, 0ccH, 0caH, 0abH, 0a3H, 0acH, 0eeH
	DB	0a2H, '???', 0daH, 0aaH, '?', 0cbH, 0ecH, 0a3H, 0acH, 0eeH, 0a2H
	DB	0e4H, 0ceH, 0f9H, 0bbH, 0d4H, 0b3H, 0ceH, 0fdH, '?', 0f7H, 0eaH
	DB	0edH, 0bbH, 0d0H, 0f9H, 0dfH, 0ccH, 0d0H, 0f6H, 0eeH, 0dcH, 00H
	ORG $+14
	ORG $+1
	DW	00H
	DB	00H
	DB	00H
	DB	00H
	DB	'  ', 0daH, 0aaH, 0f9H, 0a1H, 0efH, 0c3H, 0fcH, 0c1H, 0e0H
	DB	0a9H, 0f1H, 0a7H, '? 2', 0f9H, 0bbH, 0a1H, 0a2H, 0ecH, 0a4H, 0dbH
	DB	0afH, 0dfH, 0beH, 0daH, 0aaH, 0f9H, 0a1H, 0a3H, 0acH, 0e6H, 0d4H
	DB	0fdH, 0a8H, 0eeH, 0a2H, '?', 0ecH, 0fdH, 0ecH, 0f2H, 0ebH, 0f2H
	DB	0ecH, 0e9H, 00H
	ORG $+11
	ORG $+1
	DW	00H
	DB	00H
	DB	00H
	DB	00H
	DB	'  ', 0edH, 0aeH, 0fdH, 0a8H, 0e4H, 0ceH, 0f9H, 0bbH, '?', 0e1H
	DB	0eaH, 0a3H, 0acH, '?', 0caH, 0a6H, 0f7H, 0eaH, 0daH, 0aaH, 0f9H
	DB	0a1H, 0d0H, 0f6H, '?', 0edH, 0bbH, 0d0H, 0f9H, 0e1H, 0b6H, '??'
	DB	0d9H, 0a3H, 0f8H, 0b8H, 0f1H, 0e9H, 0eeH, 0dcH, 0e8H, 0ccH, 00H
	ORG $+14
	ORG $+1
	DW	00H
	DB	00H
	DB	00H
	DB	00H
	DB	'  ', 0caH, 0abH, 0a3H, 0acH, 0d3H, 0a3H, 0eaH, 0f3H, ' 2'
	DB	'?', 0e0H, 0bbH, '??', 0cbH, 0ecH, '?', 0dbH, 0b0H, 0eeH, 0a6H
	DB	0d2H, 0f6H, 0e2H, 0a5H, 0d3H, 0f0H, 0edH, 0bbH, 0d0H, 0f9H, 0e1H
	DB	0b6H, 0d0H, 0f6H, 0daH, 0aaH, 0f9H, 0a1H, 0a3H, 0acH, '1.', 00H
	ORG $+13
	ORG $+1
	DW	00H
	DB	00H
	DB	00H
	DB	00H
	DB	'  ', 0f9H, 0b1H, '?', 0eeH, 0a4H, 0d4H, 0d2H, 0e0H, 0f8H
	DB	0cfH, 0b9H, '2.', 0d4H, 0b3H, 0ceH, 0fdH, '?', 0f9H, 0b1H, '?', 0e9H
	DB	0a9H, 0eaH, 0f3H, 0cdH, 0f6H, 0eaH, 0c8H, 0a1H, 0a3H, 0f3H, 0aeH
	DB	0e8H, 0e2H, 0a3H, 0acH, 0eaH, 0f3H, 0deH, 0c1H, 0daH, 0aaH, 0f9H
	DB	0a1H, 00H
	ORG $+12
	ORG $+1
	DW	00H
	DB	00H
	DB	00H
	DB	00H
	DB	'  ', 0e3H, 0c0H, 0dcH, 0f4H, 0d2H, 0f6H, 0d0H, 0f6H, 0dbH
	DB	0afH, '??', 0d0H, 0f6H, 0eeH, 0dcH, 0a1H, 0a3H, 00H
	ORG $+39
	ORG $+1
?help_desc_14@@3PAUDESC@@A DW 00H			; help_desc_14
	DB	00H
	DB	00H
	DB	00H
	DB	'?', 0daH, 0aaH, 0f0H, 0b6H, 0d6H, 0f5H, 0edH, 0bbH, 0faH
	DB	0bcH, 0eeH, 0a4H, '?', 0d4H, 0e0H, 0f1H, 0e9H, 0f8H, 0daH, '?', 0e8H
	DB	0e2H, 0a3H, 0acH, 0e5H, 0a5H, 0caH, 0a6H, 0eeH, 0a4H, '?', 0faH
	DB	0bcH, 0ecH, 0f2H, '?', 0faH, 0b0H, 0daH, 0bbH, 0f1H, 0e9H, '?', 00H
	ORG $+15
	ORG $+1
	DW	00H
	DB	00H
	DB	00H
	DB	00H
	DB	0d4H, 0f0H, 0a3H, 0acH, 0ccH, 0daH, 0caH, 0a6H, 0e9H, 0cdH
	DB	0caH, 0c0H, 0f5H, 0bdH, 0edH, 0e4H, 0f1H, 0e9H, 0eeH, 0dcH, '?'
	DB	0daH, 0aaH, 0efH, 0c1H, 0a3H, 0acH, '?', 0edH, 0bbH, 0d0H, 0f9H
	DB	0eeH, 0dcH, '?', 0faH, 0beH, '?', 0ebH, 0c0H, '???', 00H
	ORG $+16
	ORG $+1
	DW	00H
	DB	00H
	DB	00H
	DB	00H
	DB	0d0H, 0fcH, 0d2H, 0f6H, 0a3H, 0acH, 0caH, 0c0H, 0f5H, 0bdH
	DB	0eeH, 0dcH, '?', 0daH, 0aaH, 0d0H, 0fcH, 0d2H, 0f6H, 0e5H, 0a5H
	DB	0dcH, 0f4H, '?', 0dfH, 0d3H, 0d4H, 0d2H, 0a3H, 0acH, 0f3H, 0aeH
	DB	0e8H, 0e2H, 0a3H, 0acH, 0ccH, 0daH, 0caH, 0a6H, '?', 0edH, 0bbH
	DB	0d0H, 0f9H, '?', 00H
	ORG $+13
	ORG $+1
	DW	00H
	DB	00H
	DB	00H
	DB	00H
	DB	'?', 0e9H, 0c4H, 0dcH, 0f4H, 0d3H, 0f0H, 0fbH, 0e4H, 0f1H
	DB	0ecH, 0e9H, 0a9H, 0a1H, 0a2H, 0fdH, 0ecH, '?', 0eeH, 0dcH, '?', 0daH
	DB	0aaH, 0f0H, 0edH, 0dbH, 0afH, 0eeH, 0a4H, 0deH, 0ccH, 0d3H, 0deH
	DB	0f5H, 0bdH, ' ( 4?', 0f5H, 0f3H, 0dfH, 0e6H, 0f2H, 0a2H, 00H
	ORG $+13
	ORG $+1
	DW	00H
	DB	00H
	DB	00H
	DB	00H
	DB	' )?', 0eeH, 0dcH, '?', 0daH, 0aaH, 0efH, 0c1H, 0f1H, 0e9H
	DB	0a3H, 0acH, 0e3H, 0e6H, 0ecH, 0d1H, 0daH, 0aaH, 0d8H, 0dfH, '?'
	DB	0ecH, 0d1H, 0caH, 0a6H, 0f0H, 0edH, 0dbH, 0afH, ' 5', 0f1H, 0feH
	DB	0a3H, 0acH, '?', 0dfH, 0e6H, 0fdH, 0a8H, 0f5H, 0ccH, 0d2H, 0fdH
	DB	00H
	ORG $+13
	ORG $+1
	DW	00H
	DB	00H
	DB	00H
	DB	00H
	DB	0caH, 0a6H, 0f0H, 0edH, 0dbH, 0afH, '10', 0f1H, 0feH, '?', 0daH
	DB	0aaH, 0a3H, 0acH, 0e5H, 0a5H, 0f6H, 0a6H, 0e3H, 0c0H, 0ecH, 0e9H
	DB	'?', 0ecH, 0d1H, 0daH, 0aaH, 0f5H, 0ccH, 0d2H, 0fdH, '?', 0eaH
	DB	0f3H, '15', 0f1H, 0feH, '?', 0daH, 0aaH, 0a1H, 0a3H, 00H
	ORG $+15
	ORG $+1
	ORG $+4
?help_desc_15@@3PAUDESC@@A DW 00H			; help_desc_15
	DB	00H
	DB	00H
	DB	00H
	DB	0a3H, 0aaH, '??', 0a3H, 0a8H, 0e8H, 0ccH, 0caH, 0abH, 0dcH
	DB	0e2H, 0e3H, 0f3H, 0a3H, 0a9H, 0a1H, 0a2H, 0ecH, 0e9H, '?', 0a3H
	DB	0a8H, 0e8H, 0ccH, 0caH, 0abH, 0fbH, 0e4H, '?', 0daH, 0aaH, 0a3H
	DB	0a9H, 0a1H, 0a2H, 0eeH, 0efH, '?', 0a3H, 0a8H, 0d4H, 0d2H, 0ecH
	DB	0e9H, 00H
	ORG $+14
	ORG $+1
	DW	00H
	DB	00H
	DB	00H
	DB	00H
	DB	'??', 0f1H, 0e9H, 0eeH, 0efH, 0ddH, 0bbH, 0ecH, 0d1H, 0daH
	DB	0aaH, 0d0H, 0e0H, '?', 0daH, 0aaH, 0a3H, 0a9H, 00H
	ORG $+40
	ORG $+1
	DW	00H
	DB	04H
	DB	00H
	DB	00H
	DB	'  ', 0ceH, 0c3H, 0d9H, 0a5H, 0efH, 0f1H, '?', 0a3H, 0adH
	DB	00H
	ORG $+48
	ORG $+1
	DW	00H
	DB	00H
	DB	00H
	DB	00H
	DB	'    ', 0fcH, 0deH, '?', 0efH, 0f1H, '?', 0a3H, 0baH, 0fcH
	DB	0e1H, '?', 0d2H, 0b1H, 0ceH, 0f9H, 0d5H, 0f4H, 0eeH, 0dcH, 0efH
	DB	0f1H, '?', 00H
	ORG $+33
	ORG $+1
	DW	00H
	DB	00H
	DB	00H
	DB	00H
	DB	'      ', 0f9H, 0ebH, '?', 0a3H, 0adH, 0f6H, 0bdH, 0eaH, 0efH
	DB	0eeH, 0dcH, 0efH, 0f1H, '?', 0a3H, 0adH, 0fcH, 0e1H, '???', 0d2H
	DB	0b1H, 0ceH, 0f9H, 0d5H, 0f4H, 0eeH, 0dcH, 0efH, 0f1H, '?', 0a1H
	DB	0a3H, 00H
	ORG $+19
	ORG $+1
	DW	00H
	DB	00H
	DB	00H
	DB	00H
	DB	'      ', 0ddH, 0b3H, 0d6H, 0f4H, 0e4H, 0baH, 0a3H, 0adH, 0edH
	DB	0b2H, '?', 0eeH, 0dcH, 0efH, 0f1H, '?', 0a3H, 0adH, 0fcH, 0e1H
	DB	'?', 0ecH, 0e9H, '?', 0d2H, 0b1H, 0ceH, 0f9H, 0d5H, 0f4H, 0eeH
	DB	0dcH, 0efH, 0f1H, '?', 0a1H, 0a3H, 00H
	ORG $+16
	ORG $+1
	DW	00H
	DB	00H
	DB	00H
	DB	00H
	DB	'      ', 0f0H, 0abH, '?', 0a3H, 0adH, 0ebH, 0daH, 0fbH, 0b3H
	DB	0eeH, 0dcH, 0efH, 0f1H, '?', 0a3H, 0adH, 0fcH, 0e1H, '?', 0eeH
	DB	0efH, '?', 0d2H, 0b1H, 0ceH, 0f9H, 0d5H, 0f4H, 0eeH, 0dcH, 0efH
	DB	0f1H, '?', 0a1H, 0a3H, 00H
	ORG $+18
	ORG $+1
	DW	00H
	DB	00H
	DB	00H
	DB	00H
	DB	'    ?', 0fbH, 0f9H, 0efH, 0f1H, '?', 0a3H, 0baH, 0fcH, 0e1H
	DB	'??', 0dfH, 0c8H, '??', 0eeH, 0dcH, 0efH, 0f1H, '?', 00H
	ORG $+34
	ORG $+1
	DW	00H
	DB	00H
	DB	00H
	DB	00H
	DB	'      ', 0e0H, 0a4H, '?', 0deH, 0a3H, 0e4H, 0baH, 0a3H, 0adH
	DB	0cdH, 0d4H, 0d4H, 0f5H, '?', 0fbH, 0f9H, 0efH, 0f1H, '?', 0a3H
	DB	0adH, 0eeH, 0efH, 0ddH, 0bbH, '???', 0dfH, 0c8H, 0fcH, 0e1H, '?'
	DB	0a1H, 0a3H, 00H
	ORG $+18
	ORG $+1
	DW	00H
	DB	00H
	DB	00H
	DB	00H
	DB	'      ', 0daH, 0b8H, '?', 0deH, 0a3H, 0a3H, 0adH, '?', 0fbH
	DB	0f9H, 0efH, 0f1H, '?', 0a3H, 0a8H, 0d4H, 0b8H, 0a3H, 0a9H, 0a3H
	DB	0adH, 0f1H, 0e9H, 0d4H, 0b8H, '??', 0fcH, 0e1H, '?', 0a1H, 0a3H
	DB	00H
	ORG $+21
	ORG $+1
	DW	00H
	DB	00H
	DB	00H
	DB	00H
	DB	'      ??', 0deH, 0a3H, 0a3H, 0adH, '?', 0fbH, 0f9H, 0efH
	DB	0f1H, '?', 0a3H, 0a8H, 0e0H, 0b4H, 0fbH, 0f9H, 0a3H, 0a9H, 0a3H
	DB	0adH, 0e0H, 0b4H, 0fbH, 0f9H, '??', 0fcH, 0e1H, '?', 0a1H, 0a3H
	DB	00H
	ORG $+20
	ORG $+1
	DW	00H
	DB	00H
	DB	00H
	DB	00H
	DB	'      ', 0e1H, 0b6H, '?', 0deH, 0a3H, 0a3H, 0adH, '?', 0fbH
	DB	0f9H, 0efH, 0f1H, '?', 0a3H, 0a8H, 0fbH, 0e8H, '?', 0a3H, 0a9H
	DB	0a3H, 0adH, 0fbH, 0e8H, '???', 0fcH, 0e1H, '?', 0a1H, 0a3H, 00H
	ORG $+21
	ORG $+1
	DW	00H
	DB	00H
	DB	00H
	DB	00H
	DB	'      ', 0e4H, 0c6H, '?', 0deH, 0a3H, 0a3H, 0adH, '?', 0fbH
	DB	0f9H, 0efH, 0f1H, '?', 0a3H, 0a8H, 0f1H, 0d0H, 0f6H, 0adH, 0a3H
	DB	0a9H, 0a3H, 0adH, 0f1H, 0d0H, 0f6H, 0adH, '??', 0fcH, 0e1H, '?'
	DB	0a1H, 0a3H, 00H
	ORG $+19
	ORG $+1
	DW	00H
	DB	00H
	DB	00H
	DB	00H
	DB	'      ', 0daH, 0b7H, '?', 0deH, 0a3H, 0a3H, 0adH, '?', 0fbH
	DB	0f9H, 0efH, 0f1H, '?', 0a3H, 0a8H, 0fbH, 0e7H, 0e2H, 0b2H, 0a3H
	DB	0a9H, 0a3H, 0adH, 0fbH, 0e7H, 0e2H, 0b2H, '??', 0fcH, 0e1H, '?'
	DB	0a1H, 0a3H, 00H
	ORG $+19
	ORG $+1
	ORG $+4
?help_desc_16@@3PAUDESC@@A DW 00H			; help_desc_16
	DB	00H
	DB	00H
	DB	00H
	DB	0a3H, 0aaH, '??', 0a3H, 0a8H, 0e8H, 0ccH, 0caH, 0abH, 0dcH
	DB	0e2H, 0e3H, 0f3H, 0a3H, 0a9H, 0a1H, 0a2H, 0ecH, 0e9H, '?', 0a3H
	DB	0a8H, 0e8H, 0ccH, 0caH, 0abH, 0fbH, 0e4H, '?', 0daH, 0aaH, 0a3H
	DB	0a9H, 0a1H, 0a2H, 0eeH, 0efH, '?', 0a3H, 0a8H, 0d4H, 0d2H, 0ecH
	DB	0e9H, 00H
	ORG $+14
	ORG $+1
	DW	00H
	DB	00H
	DB	00H
	DB	00H
	DB	'??', 0f1H, 0e9H, 0eeH, 0efH, 0ddH, 0bbH, 0ecH, 0d1H, 0daH
	DB	0aaH, 0d0H, 0e0H, '?', 0daH, 0aaH, 0a3H, 0a9H, 00H
	ORG $+40
	ORG $+1
	DW	00H
	DB	04H
	DB	00H
	DB	00H
	DB	'  ', 0fdH, 0d9H, 0e4H, 0deH, 0efH, 0f1H, '?', 0a3H, 0adH
	DB	0deH, 0c5H, 0ecH, 0d1H, 0daH, 0aaH, 0f9H, 0e8H, 0ecH, 0fdH, '?'
	DB	0dfH, 0c8H, '??', 0eeH, 0dcH, 0efH, 0f1H, '?', 00H
	ORG $+28
	ORG $+1
	DW	00H
	DB	00H
	DB	00H
	DB	00H
	DB	'    ', 0ecH, 0e9H, '??', 0dfH, 0c8H, '??', 0a3H, 0baH, 00H
	ORG $+45
	ORG $+1
	DW	00H
	DB	00H
	DB	00H
	DB	00H
	DB	'      ??', 0daH, 0b8H, 0deH, 0d9H, 0a3H, 0adH, 0d8H, 0edH
	DB	0d4H, 0b8H, 0eeH, 0dcH, 0efH, 0f1H, '?', 0a3H, 0adH, 0deH, 0c5H
	DB	0e8H, 0ccH, 0caH, 0abH, 0f9H, 0e8H, 0ecH, 0fdH, 0f1H, 0e9H, 0d4H
	DB	0b8H, '??', 0a3H, 0acH, 0e8H, 0ccH, 00H
	ORG $+14
	ORG $+1
	DW	00H
	DB	00H
	DB	00H
	DB	00H
	DB	'                ', 0caH, 0abH, 0d8H, 0dfH, 0ecH, 0e9H, 0fcH
	DB	0deH, 0f9H, 0eaH, '?1/10', 0f1H, 0a7H, 0e9H, 0d3H, 0d2H, 0b1H, 0ceH
	DB	0f9H, 0d5H, 0f4H, 0a1H, 0a3H, 00H
	ORG $+16
	ORG $+1
	DW	00H
	DB	00H
	DB	00H
	DB	00H
	DB	'      ', 0eaH, 0ceH, 0d1H, 0d1H, 0d2H, 0f9H, '?', 0a3H, 0adH
	DB	0ccH, 0e3H, 0fbH, 0f9H, 0eeH, 0dcH, 0efH, 0f1H, '?', 0a3H, 0adH
	DB	0deH, 0c5H, 0e8H, 0ccH, 0caH, 0abH, 0f9H, 0e8H, 0ecH, 0fdH, 0e0H
	DB	0b4H, 0fbH, 0f9H, '??', 0a3H, 0acH, 0e8H, 0ccH, 00H
	ORG $+13
	ORG $+1
	DW	00H
	DB	00H
	DB	00H
	DB	00H
	DB	'                ', 0caH, 0abH, 0eeH, 0dcH, 0dbH, 0c1H, 0e5H
	DB	0d9H, 0d5H, 0f4H, '?', 0f0H, 0abH, 0cdH, 0d4H, 0f3H, 0a6H, 0d9H
	DB	0e9H, 0dbH, 0f6H, 0f1H, 0aeH, 0ecH, 0f2H, 0f9H, 0bcH, '?', 0edH
	DB	0c2H, 0a1H, 0a3H, 00H
	ORG $+11
	ORG $+1
	DW	00H
	DB	00H
	DB	00H
	DB	00H
	DB	'      ', 0eeH, 0e8H, 0e1H, 0b6H, 0deH, 0d9H, 0a3H, 0adH, 0fbH
	DB	0e8H, '?', 0eeH, 0dcH, 0efH, 0f1H, '?', 0a3H, 0adH, 0deH, 0c5H
	DB	0e8H, 0ccH, 0caH, 0abH, 0f9H, 0e8H, 0ecH, 0fdH, 0fbH, 0e8H, '?'
	DB	'??', 0a3H, 0acH, 0e8H, 0ccH, 0caH, 0abH, 00H
	ORG $+14
	ORG $+1
	DW	00H
	DB	00H
	DB	00H
	DB	00H
	DB	'              ', 0eeH, 0dcH, 0faH, 0bcH, '??', 0d9H, 0e9H
	DB	0dbH, 0f6H, 0f0H, 0ceH, '?', 0efH, 0d2H, 0eeH, 0dcH, '?', 0faH
	DB	0bcH, 0a3H, 0a8H, 0d6H, 0c7H, 0e5H, 0fdH, '???', 00H
	ORG $+16
	ORG $+1
	DW	00H
	DB	00H
	DB	00H
	DB	00H
	DB	'              ', 0e9H, 0d2H, 0a3H, 0a9H, 0a1H, 0a3H, 00H
	ORG $+39
	ORG $+1
	DW	00H
	DB	00H
	DB	00H
	DB	00H
	DB	'      ?', 0ecH, 0a5H, '?', 0a3H, 0adH, 0f1H, 0d0H, 0eeH, 0dcH
	DB	0efH, 0f1H, '?', 0a3H, 0adH, 0deH, 0c5H, 0e8H, 0ccH, 0caH, 0abH
	DB	0f9H, 0e8H, 0ecH, 0fdH, 0f1H, 0d0H, 0f6H, 0adH, '??', 0a3H, 0acH
	DB	0e8H, 0ccH, 0caH, 0abH, 0eeH, 0dcH, 00H
	ORG $+14
	ORG $+1
	DW	00H
	DB	00H
	DB	00H
	DB	00H
	DB	'              ', 0d9H, 0a4H, 0f1H, 0e9H, 0e1H, 0e3H, '?', 0f9H
	DB	0bbH, 0cbH, 0bdH, 0a1H, 0a3H, 00H
	ORG $+32
	ORG $+1
	DW	00H
	DB	00H
	DB	00H
	DB	00H
	DB	'      ', 0f7H, 0e5H, 0d5H, 0aaH, 0e0H, 0a4H, 0a3H, 0adH, 0e2H
	DB	0b2H, 0d8H, 0f9H, 0eeH, 0dcH, 0efH, 0f1H, '?', 0a3H, 0adH, 0deH
	DB	0c5H, 0e8H, 0ccH, 0caH, 0abH, 0f9H, 0e8H, 0ecH, 0fdH, 0e2H, 0b2H
	DB	0d8H, 0f9H, '??', 0a3H, 0acH, 0e8H, 0ccH, 0caH, 0abH, 00H
	ORG $+12
	ORG $+1
	DW	00H
	DB	00H
	DB	00H
	DB	00H
	DB	'              ?', 0d9H, 0e9H, 0dbH, 0f6H, 0f1H, 0aeH, 0ecH
	DB	0f2H, 0f9H, 0bcH, '?', 0edH, 0c2H, 0a1H, 0a3H, 00H
	ORG $+29
	ORG $+1
	DW	00H
	DB	00H
	DB	00H
	DB	00H
	DB	'    ', 0eeH, 0efH, '??', 0dfH, 0c8H, '??', 0a3H, 0baH, '?'
	DB	0d2H, 0f6H, 0deH, 0c5H, 0eeH, 0efH, '?', 0f1H, 0e9H, 0ecH, 0e9H
	DB	0ddH, 0bbH, 0ddH, 0c2H, 0eeH, 0dcH, 0ecH, 0d1H, 0daH, 0aaH, 0f9H
	DB	0e8H, 0ecH, 0fdH, '?', 0dfH, 0c8H, 00H
	ORG $+16
	ORG $+1
	DW	00H
	DB	00H
	DB	00H
	DB	00H
	DB	'                  ??', 0a1H, 0a3H, 00H
	ORG $+37
	ORG $+1
	DW	00H
	DB	00H
	DB	00H
	DB	00H
	DB	'      ?', 0d5H, 0a6H, '?', 0a3H, 0adH, 0d4H, 0b8H, '?', 0eeH
	DB	0dcH, 0efH, 0f1H, '?', 0a3H, 0adH, 0deH, 0c5H, 0e8H, 0ccH, 0caH
	DB	0abH, 0f9H, 0e8H, 0ecH, 0fdH, 0f1H, 0e9H, 0d4H, 0b8H, '??', 0a1H
	DB	0a3H, 00H
	ORG $+19
	ORG $+1
	DW	00H
	DB	00H
	DB	00H
	DB	00H
	DB	'      ', 0eaH, 0ceH, 0d1H, 0d1H, 0d1H, 0d6H, 0deH, 0d9H, 0a3H
	DB	0adH, 0e0H, 0b4H, 0fbH, 0f9H, 0eeH, 0dcH, 0efH, 0f1H, '?', 0a3H
	DB	0adH, 0deH, 0c5H, 0e8H, 0ccH, 0caH, 0abH, 0f9H, 0e8H, 0ecH, 0fdH
	DB	0e0H, 0b4H, 0fbH, 0f9H, '??', 0a1H, 0a3H, 00H
	ORG $+14
	ORG $+1
	DW	00H
	DB	00H
	DB	00H
	DB	00H
	DB	'      ?', 0e1H, 0b6H, 0d1H, 0d1H, 0a3H, 0adH, 0fbH, 0e8H
	DB	0daH, 0bbH, 0eeH, 0dcH, 0efH, 0f1H, '?', 0a3H, 0adH, 0deH, 0c5H
	DB	0e8H, 0ccH, 0caH, 0abH, 0f9H, 0e8H, 0ecH, 0fdH, 0fbH, 0e8H, '?'
	DB	'??', 0a1H, 0a3H, 00H
	ORG $+18
	ORG $+1
	DW	00H
	DB	00H
	DB	00H
	DB	00H
	DB	'      ?', 0ecH, 0a5H, '?', 0a3H, 0adH, 0d9H, 0aeH, 0efH, 0f8H
	DB	0eeH, 0dcH, 0efH, 0f1H, '?', 0a3H, 0adH, 0deH, 0c5H, 0e8H, 0ccH
	DB	0caH, 0abH, 0f9H, 0e8H, 0ecH, 0fdH, 0f1H, 0d0H, 0f6H, 0adH, '?'
	DB	'?', 0a1H, 0a3H, 00H
	ORG $+18
	ORG $+1
	DW	00H
	DB	00H
	DB	00H
	DB	00H
	DB	'      ', 0f7H, 0e5H, 0d5H, 0a6H, 0d1H, 0d1H, 0a3H, 0adH, 0fbH
	DB	0e7H, 0e2H, 0b2H, 0eeH, 0dcH, 0efH, 0f1H, '?', 0a3H, 0adH, 0deH
	DB	0c5H, 0e8H, 0ccH, 0caH, 0abH, 0f9H, 0e8H, 0ecH, 0fdH, 0e2H, 0b2H
	DB	0d8H, 0f9H, '??', 0a1H, 0a3H, 00H
	ORG $+16
	ORG $+1
	ORG $+4
?help_desc_17@@3PAUDESC@@A DW 00H			; help_desc_17
	DB	00H
	DB	00H
	DB	00H
	DB	0a3H, 0aaH, '??', 0a3H, 0a8H, 0e8H, 0ccH, 0caH, 0abH, 0dcH
	DB	0e2H, 0e3H, 0f3H, 0a3H, 0a9H, 0a1H, 0a2H, 0ecH, 0e9H, '?', 0a3H
	DB	0a8H, 0e8H, 0ccH, 0caH, 0abH, 0fbH, 0e4H, '?', 0daH, 0aaH, 0a3H
	DB	0a9H, 0a1H, 0a2H, 0eeH, 0efH, '?', 0a3H, 0a8H, 0d4H, 0d2H, 0ecH
	DB	0e9H, 00H
	ORG $+14
	ORG $+1
	DW	00H
	DB	00H
	DB	00H
	DB	00H
	DB	'??', 0f1H, 0e9H, 0eeH, 0efH, 0ddH, 0bbH, 0ecH, 0d1H, 0daH
	DB	0aaH, 0d0H, 0e0H, '?', 0daH, 0aaH, 0a3H, 0a9H, 00H
	ORG $+40
	ORG $+1
	DW	00H
	DB	04H
	DB	00H
	DB	00H
	DB	'  ?', 0e0H, 0f5H, 0efH, 0f1H, '?', 0a3H, 0adH, 0deH, 0c5H
	DB	0d9H, 0bbH, 0ecH, 0e9H, 0dbH, 0b0H, 0eeH, 0dcH, '?', 0e0H, 0f5H
	DB	'?', 0dfH, 0e6H, '?', 0fbH, 0f9H, 00H
	ORG $+30
	ORG $+1
	DW	00H
	DB	00H
	DB	00H
	DB	00H
	DB	'    ', 0e4H, 0b9H, '?', 0a3H, 0baH, 0d3H, 0deH, 0f2H, 0a2H
	DB	0eeH, 0dcH, 0efH, 0f1H, '?', 0a3H, 0adH, 0deH, 0c5H, 0e8H, 0ccH
	DB	0caH, 0abH, 0f2H, 0a2H, '?', 0e0H, 0f5H, 0caH, 0a5H, 0cbH, 0adH
	DB	0a1H, 0a3H, 00H
	ORG $+22
	ORG $+1
	DW	00H
	DB	00H
	DB	00H
	DB	00H
	DB	'    ', 0e4H, 0b9H, 0cdH, 0e0H, 0d2H, 0f9H, 0deH, 0d9H, 0a3H
	DB	0baH, 0e2H, 0a9H, 0eeH, 0dcH, 0efH, 0f1H, '?', 0a3H, 0adH, 0deH
	DB	0c5H, 0e8H, 0ccH, 0caH, 0abH, 0e2H, 0a9H, '?', 0e0H, 0f5H, 0caH
	DB	0a5H, 0cbH, 0adH, 0a1H, 0a3H, 00H
	ORG $+19
	ORG $+1
	DW	00H
	DB	00H
	DB	00H
	DB	00H
	DB	'    ', 0ddH, 0b3H, 0d6H, 0f4H, 0daH, 0b8H, 0e4H, 0baH, 0a3H
	DB	0baH, 0fbH, 0fdH, 0e6H, 0faH, 0eeH, 0dcH, 0efH, 0f1H, '?', 0a3H
	DB	0adH, 0deH, 0c5H, 0e8H, 0ccH, 0caH, 0abH, 0fbH, 0fdH, '?', 0e0H
	DB	0f5H, 0caH, 0a5H, 0cbH, 0adH, 0a1H, 0a3H, 00H
	ORG $+17
	ORG $+1
	DW	00H
	DB	00H
	DB	00H
	DB	00H
	DB	'    ???', 0a3H, 0baH, 0f2H, 0f0H, '?', 0eeH, 0dcH, 0efH, 0f1H
	DB	'?', 0a3H, 0adH, 0deH, 0c5H, 0e8H, 0ccH, 0caH, 0abH, '??', 0e0H
	DB	0f5H, 0caH, 0a5H, 0cbH, 0adH, 0a1H, 0a3H, 00H
	ORG $+24
	ORG $+1
	DW	00H
	DB	00H
	DB	00H
	DB	00H
	DB	'    ', 0f9H, 0ebH, 0d8H, 0deH, 0d5H, 0c3H, 0deH, 0d9H, 0a3H
	DB	0baH, '?', 0fbH, 0faH, 0eeH, 0dcH, 0efH, 0f1H, '?', 0a3H, 0adH
	DB	0deH, 0c5H, 0e8H, 0ccH, 0caH, 0abH, 0fcH, 0e1H, '?', 0e0H, 0f7H
	DB	0d9H, 0e9H, '?', 0e0H, 0f5H, 0a1H, 0a3H, 00H
	ORG $+17
	ORG $+1
	DW	00H
	DB	00H
	DB	00H
	DB	00H
	DB	'    ', 0e4H, 0b9H, '?', 0f4H, 0deH, 0d5H, 0c3H, 0a3H, 0baH
	DB	0f3H, 0f4H, 0fbH, 0f6H, 0eeH, 0dcH, 0efH, 0f1H, '?', 0a3H, 0adH
	DB	0deH, 0c5H, 0e8H, 0ccH, 0caH, 0abH, 0ecH, 0e9H, '??', 0e0H, 0f5H
	DB	0daH, 0e3H, '?', 0a1H, 0a3H, 00H
	ORG $+18
	ORG $+1
	DW	00H
	DB	00H
	DB	00H
	DB	00H
	DB	'    ?', 0d6H, 0f4H, 0a3H, 0baH, '??', 0d5H, 0c3H, 0eeH, 0dcH
	DB	0efH, 0f1H, '?', 0a3H, 0a8H, '?', 0ceH, 0c3H, 0eeH, 0dcH, 0efH
	DB	0f1H, '?', 0a3H, 0a9H, 0a3H, 0adH, 0deH, 0c5H, 0e8H, 0ccH, 0caH
	DB	0abH, 0eeH, 0efH, '??', 00H
	ORG $+17
	ORG $+1
	DW	00H
	DB	00H
	DB	00H
	DB	00H
	DB	'          ', 0e0H, 0f5H, 0daH, 0e3H, '?', 0a1H, 0a3H, 00H
	ORG $+42
	ORG $+1
	ORG $+2
?help_desc_18@@3PAUDESC@@A DW 00H			; help_desc_18
	DB	00H
	DB	00H
	DB	00H
	DB	0a3H, 0aaH, '??', 0a3H, 0a8H, 0e8H, 0ccH, 0caH, 0abH, 0dcH
	DB	0e2H, 0e3H, 0f3H, 0a3H, 0a9H, 0a1H, 0a2H, 0ecH, 0e9H, '?', 0a3H
	DB	0a8H, 0e8H, 0ccH, 0caH, 0abH, 0fbH, 0e4H, '?', 0daH, 0aaH, 0a3H
	DB	0a9H, 0a1H, 0a2H, 0eeH, 0efH, '?', 0a3H, 0a8H, 0d4H, 0d2H, 0ecH
	DB	0e9H, 00H
	ORG $+14
	ORG $+1
	DW	00H
	DB	00H
	DB	00H
	DB	00H
	DB	'??', 0f1H, 0e9H, 0eeH, 0efH, 0ddH, 0bbH, 0ecH, 0d1H, 0daH
	DB	0aaH, 0d0H, 0e0H, '?', 0daH, 0aaH, 0a3H, 0a9H, 00H
	ORG $+40
	ORG $+1
	DW	00H
	DB	04H
	DB	00H
	DB	00H
	DB	'  ', 0f7H, 0e5H, 0e2H, 0a8H, 0efH, 0f1H, '?', 0a3H, 0adH
	DB	0d0H, 0b3H, '???', 0efH, 0f1H, '?', 00H
	ORG $+40
	ORG $+1
	DW	00H
	DB	00H
	DB	00H
	DB	00H
	DB	'    ', 0e4H, 0b9H, 0e0H, 0a4H, 0daH, 0b8H, 0d5H, 0c3H, 0a3H
	DB	0baH, 0ceH, 0c3H, 0eeH, 0dcH, 0efH, 0f1H, '?', 0a3H, 0adH, 0cdH
	DB	0f4H, '?', 0fdH, 0e5H, 0e2H, 0a5H, 0ecH, 0e9H, 0f3H, 0adH, 0a3H
	DB	0acH, '??', 0dbH, 0b0H, 0eeH, 0dcH, 0cdH, 0f4H, '?', 00H
	ORG $+14
	ORG $+1
	DW	00H
	DB	00H
	DB	00H
	DB	00H
	DB	'              ??', 0edH, 0bbH, 0d0H, 0f9H, 0eeH, 0dcH, 0d2H
	DB	0b1H, 0ceH, 0f9H, 0d5H, 0f4H, 0a1H, 0a3H, 00H
	ORG $+29
	ORG $+1
	DW	00H
	DB	00H
	DB	00H
	DB	00H
	DB	'    ', 0daH, 0b8H, '?', 0d2H, 0f9H, '?', 0a3H, 0baH, '?', 0eeH
	DB	0dcH, 0efH, 0f1H, '?', 0a3H, 0adH, 0cdH, 0f4H, '?', 0daH, 0e3H
	DB	0deH, 0d2H, 0ecH, 0e9H, 0f3H, 0adH, 0a3H, 0acH, '??', 0dbH, 0b0H
	DB	0eeH, 0dcH, 0cdH, 0f4H, '?', 00H
	ORG $+17
	ORG $+1
	DW	00H
	DB	00H
	DB	00H
	DB	00H
	DB	'              ', 0daH, 0e3H, '??', 0cdH, 0f4H, '??', 0dbH
	DB	0b0H, 0a1H, 0a3H, 00H
	ORG $+33
	ORG $+1
	DW	00H
	DB	00H
	DB	00H
	DB	00H
	DB	'    ', 0ceH, 0a1H, 0e4H, 0baH, 0d5H, 0c3H, 0a3H, 0baH, '?'
	DB	0fcH, 0c0H, 0efH, 0f1H, '?', 0a3H, 0adH, '????', 0fcH, 0e1H, '?'
	DB	0a3H, 0acH, '?', 0deH, 0ddH, 0d8H, 0ccH, 0eeH, 0dcH, 0e8H, 0ccH
	DB	0caH, 0abH, '?', 00H
	ORG $+18
	ORG $+1
	DW	00H
	DB	00H
	DB	00H
	DB	00H
	DB	'            ', 0fcH, 0c0H, '??', 0f5H, 0f6H, 0d0H, 0ecH, 0d2H
	DB	0b1H, 0ceH, 0f9H, 0d5H, 0f4H, 0a1H, 0a3H, 00H
	ORG $+31
	ORG $+1
	DW	00H
	DB	00H
	DB	00H
	DB	00H
	DB	'    ', 0eaH, 0ceH, '?', 0a3H, 0baH, 0e1H, 0faH, '?', 0efH
	DB	0f1H, '?', 0a3H, 0adH, 0cdH, 0f4H, '?', 0d9H, 0e9H, 0fcH, 0f9H
	DB	'?', 0f3H, 0adH, 0a3H, 0acH, '??', 0dbH, 0b0H, 0eeH, 0dcH, 0cdH
	DB	0f4H, '???', 00H
	ORG $+19
	ORG $+1
	DW	00H
	DB	00H
	DB	00H
	DB	00H
	DB	'          ', 0d9H, 0e9H, 0fcH, 0f9H, 0a1H, 0a3H, 00H
	ORG $+43
	ORG $+1
	DW	00H
	DB	00H
	DB	00H
	DB	00H
	DB	'    ?', 0fcH, 0c0H, 0e1H, 0faH, '?', 0efH, 0f1H, '?', 0a3H
	DB	0baH, '????', 0fcH, 0e1H, '?+', 0cdH, 0f4H, '?', 0d9H, 0e9H, 0fcH
	DB	0f9H, '?', 0f3H, 0adH, 0a1H, 0a3H, 00H
	ORG $+24
	ORG $+1
	DW	00H
	DB	00H
	DB	00H
	DB	00H
	DB	'    ?', 0fcH, 0c0H, 0ceH, 0c3H, 0efH, 0f1H, '?', 0a3H, 0baH
	DB	'????', 0fcH, 0e1H, '?+', 0cdH, 0f4H, '?', 0fdH, 0e5H, 0e2H, 0a5H
	DB	0ecH, 0e9H, 0f3H, 0adH, 0a1H, 0a3H, 00H
	ORG $+24
	ORG $+1
	ORG $+6
?help_desc_19@@3PAUDESC@@A DW 00H			; help_desc_19
	DB	04H
	DB	00H
	DB	00H
	DB	'1.', 0e0H, 0f7H, 0d8H, 0a1H, 00H
	ORG $+53
	ORG $+1
	DW	00H
	DB	00H
	DB	00H
	DB	00H
	DB	'  ', 0e8H, 0ccH, 0caH, 0abH, 0e2H, 0cdH, 0d4H, 0f5H, '?', 0f2H
	DB	0b8H, 0e1H, 0b4H, '30?', 0f3H, 0a6H, 0ecH, 0abH, 0faH, 0b0H, 0e0H
	DB	0f7H, 0ecH, 0d1H, '?', 0a3H, 0acH, 0ecH, 0bbH, 0e3H, 0f3H, 0dfH
	DB	0beH, 0eaH, 0f3H, 0ecH, 0e9H, 0d8H, 0b2H, 0eaH, 0aaH, 0edH, 0baH
	DB	00H
	ORG $+12
	ORG $+1
	DW	00H
	DB	00H
	DB	00H
	DB	00H
	DB	'  ', 0a3H, 0acH, '?', 0caH, 0a6H, 0faH, 0beH, 0caH, 0abH
	DB	0f0H, 0e9H, 0ceH, 0b7H, 0d7H, 0e2H, '?', 0a3H, 0a8H, 0eaH, 0c8H
	DB	0e9H, 0cdH, 0caH, 0c0H, 0f5H, 0bdH, 0f5H, 0bdH, '?', 0caH, 0abH
	DB	0a3H, 0a9H, 0e3H, 0e9H, '?', 0e0H, 0f7H, 0d8H, 0a1H, 0caH, 0abH
	DB	0f0H, 0e9H, 00H
	ORG $+13
	ORG $+1
	DW	00H
	DB	00H
	DB	00H
	DB	00H
	DB	'  ', 0a1H, 0a3H, 0e3H, 0e9H, '?', 0e0H, 0f7H, 0d8H, 0a1H
	DB	'?', 0e2H, 0cdH, 0e9H, 0a9H, '??', 0caH, 0abH, 0f0H, 0e9H, 0d9H
	DB	0a3H, '?', 0a3H, 0a8H, 0dcH, 0f4H, 0caH, 0a6H, '?', 0d0H, 0ecH
	DB	0f6H, 0e2H, 0caH, 0abH, 0f0H, 0e9H, 0f1H, 0ecH, '?', 00H
	ORG $+16
	ORG $+1
	DW	00H
	DB	00H
	DB	00H
	DB	00H
	DB	'  ', 0a3H, 0a9H, 0a1H, 0a2H, 0caH, 0abH, 0f0H, 0e9H, 0f1H
	DB	0abH, 0f2H, 0a9H, 0a1H, 0a2H, 0caH, 0abH, 0f0H, 0e9H, 0e1H, 0faH
	DB	'??', 0a3H, 0a8H, 0caH, 0a6H, '??', 0e3H, 0f3H, 0dfH, 0beH, 0eeH
	DB	0dcH, 0d0H, 0ecH, 0f1H, 0e9H, 0ecH, 0e9H, 0f1H, 0feH, '?', 00H
	ORG $+14
	ORG $+1
	DW	00H
	DB	00H
	DB	00H
	DB	00H
	DB	'  ', 0daH, 0aaH, '?', 0e1H, 0faH, '??', 0a3H, 0acH, 0f1H
	DB	0abH, 0e9H, 0a9H, '?', 0f9H, 0eaH, 0e0H, 0f7H, 0d0H, 0e0H, 0d6H
	DB	0f9H, 0d7H, 0e2H, 0edH, 0c2H, 0e9H, 0c4H, 0a3H, 0a9H, 0d0H, 0e0H
	DB	0caH, 0abH, 0f0H, 0e9H, 0efH, 0f1H, '?', 0a3H, 0a8H, 0ceH, 0c3H
	DB	00H
	ORG $+14
	ORG $+1
	DW	00H
	DB	00H
	DB	00H
	DB	00H
	DB	'  ', 0d9H, 0a5H, 0d0H, 0e0H, 0fdH, 0d9H, 0e4H, 0deH, '??'
	DB	0efH, 0f1H, '?', 0a3H, 0a9H, 0a3H, 0acH, 0f3H, 0a6H, '?', 0f6H
	DB	0d2H, 0f4H, 0b8H, '?', 0caH, 0abH, 0f0H, 0e9H, 0ecH, 0d1H, '?', 0eeH
	DB	0a4H, '10', 0ecH, 0d1H, 0ecH, 0a4H, 0dfH, 0beH, 00H
	ORG $+15
	ORG $+1
	DW	00H
	DB	00H
	DB	00H
	DB	00H
	DB	'  ', 0a3H, 0acH, 0caH, 0abH, 0f0H, 0e9H, 0dbH, 0b0H, 0caH
	DB	0a6H, 0efH, 0e1H, 0e3H, 0d2H, 0e0H, 0f7H, 0d8H, 0a1H, 0a3H, 0acH
	DB	0ecH, 0bbH, 0caH, 0abH, 0f0H, 0e9H, 0ecH, 0d1H, '?', 0dfH, 0beH
	DB	0f9H, 0daH, '?100', 0ecH, 0d1H, 0a1H, 0a3H, 00H
	ORG $+16
	ORG $+1
	DW	00H
	DB	04H
	DB	00H
	DB	00H
	DB	'2.', 0faH, 0b0H, 0dfH, 0a4H, 00H
	ORG $+53
	ORG $+1
	DW	00H
	DB	00H
	DB	00H
	DB	00H
	DB	'  ', 0f0H, 0e9H, '?', 0e5H, 0b4H, 0e9H, 0b0H, 0faH, 0b0H
	DB	0dfH, 0a4H, 0caH, 0abH, 0f0H, 0e9H, 0a3H, 0acH, 0caH, 0a6H, 0faH
	DB	0beH, 0caH, 0abH, 0f0H, 0e9H, 0ceH, 0b7H, 0d7H, 0e2H, 0edH, 0baH
	DB	0e3H, 0e9H, '?', 0faH, 0b0H, 0dfH, 0a4H, '?', 0caH, 0a6H, 0a1H
	DB	0a3H, 0caH, 0abH, 00H
	ORG $+12
	ORG $+1
	DW	00H
	DB	00H
	DB	00H
	DB	00H
	DB	'  ', 0f0H, 0e9H, 0faH, 0b0H, 0dfH, 0a4H, 0a3H, 0acH, 0caH
	DB	0abH, 0f0H, 0e9H, 0f0H, 0edH, 0ceH, 0b3H, 0e5H, 0a5H, '?', 0ecH
	DB	0e9H, '??', 0f0H, 0b6H, '!', 00H
	ORG $+31
	ORG $+1
	ORG $+2
?help_desc_20@@3PAUDESC@@A DW 00H			; help_desc_20
	DB	04H
	DB	00H
	DB	00H
	DB	'1.', 0caH, 0a5H, 0ecH, 0fdH, 00H
	ORG $+53
	ORG $+1
	DW	00H
	DB	00H
	DB	00H
	DB	00H
	DB	'  ', 0e8H, 0ccH, 0caH, 0abH, 0e9H, 0b0H, 0caH, 0a5H, 0ecH
	DB	0fdH, 0caH, 0abH, 0f0H, 0e9H, '?', 0faH, 0beH, 0caH, 0abH, 0f0H
	DB	0e9H, 0ceH, 0b7H, 0d7H, 0e2H, '?', 0a3H, 0a8H, 0eaH, 0c8H, 0e9H
	DB	0cdH, 0caH, 0c0H, 0f5H, 0bdH, 0f5H, 0bdH, '?', 0caH, 0abH, 0a3H
	DB	0a9H, 0e3H, 0e9H, 00H
	ORG $+12
	ORG $+1
	DW	00H
	DB	00H
	DB	00H
	DB	00H
	DB	'  ?', 0a3H, 0acH, 0e3H, 0e9H, '???', 0f5H, 0f3H, '?', 0e1H
	DB	0b6H, 0eaH, 0f3H, 0caH, 0abH, 0f0H, 0e9H, 0d6H, 0aaH, 0f8H, 0faH
	DB	0ecH, 0a4H, 0cdH, 0eaH, '??', 0a3H, 0acH, 0e5H, 0b4H, 0d6H, 0aaH
	DB	0f8H, 0faH, 0dfH, 0beH, 0caH, 0abH, 00H
	ORG $+16
	ORG $+1
	DW	00H
	DB	00H
	DB	00H
	DB	00H
	DB	'  ', 0f0H, 0e9H, 0d9H, 0a3H, '???', 0dfH, 0e4H, 0d3H, 0dbH
	DB	0f8H, 0faH, 0f3H, 0aeH, 0caH, 0abH, 0f0H, 0e9H, 0efH, 0ceH, 0f2H
	DB	0adH, 0f4H, 0fdH, 0e2H, 0a5H, 0f0H, 0e9H, '?', 0a3H, 0acH, 0dbH
	DB	0dcH, 0dfH, 0e4H, '?', 0dcH, 0faH, 0a3H, 0acH, 0efH, 0c3H, 00H
	ORG $+14
	ORG $+1
	DW	00H
	DB	00H
	DB	00H
	DB	00H
	DB	'  ?', 0caH, 0abH, 0f0H, 0e9H, 0d9H, 0a3H, '?', 0f1H, 0fdH
	DB	0fdH, 0a8H, 0e4H, 0ceH, 0f9H, 0bbH, '???', 0caH, 0a6H, 0a3H, 0acH
	DB	0d3H, 0a3H, '?', 0deH, 0aaH, 0d3H, 0dbH, 0f8H, 0faH, 0efH, 0e1H
	DB	0e3H, 0d2H, 0caH, 0a5H, 0ecH, 0fdH, 0f3H, 0aeH, 00H
	ORG $+15
	ORG $+1
	DW	00H
	DB	00H
	DB	00H
	DB	00H
	DB	'  ', 0caH, 0abH, 0f0H, 0e9H, 0a3H, 0acH, 0e2H, 0cdH, '?', 0ebH
	DB	0a6H, 0f3H, 0aeH, 0caH, 0abH, 0f0H, 0e9H, 0f0H, 0e9H, '??', 0faH
	DB	0b7H, 0f7H, 0d7H, '?', 0fdH, 0a8H, 0eeH, 0a6H, 0d3H, 0dbH, 0f8H
	DB	0faH, 0efH, 0e1H, 0e3H, 0d2H, 0caH, 0a5H, 0ecH, 0fdH, 0a1H, 0a3H
	DB	00H
	ORG $+13
	ORG $+1
	DW	00H
	DB	04H
	DB	00H
	DB	00H
	DB	'2.', 0f7H, 0dcH, 0f5H, 0f3H, 00H
	ORG $+53
	ORG $+1
	DW	00H
	DB	00H
	DB	00H
	DB	00H
	DB	'  ', 0e8H, 0ccH, 0caH, 0abH, 0e5H, 0b4H, 0e9H, 0b0H, 0f7H
	DB	0dcH, 0f5H, 0f3H, 0caH, 0abH, 0f0H, 0e9H, 0a3H, 0acH, 0faH, 0beH
	DB	0caH, 0abH, 0f0H, 0e9H, 0ceH, 0b7H, 0d7H, 0e2H, '?', 0e3H, 0e9H
	DB	'?', 0f7H, 0dcH, 0f5H, 0f3H, '?', 0caH, 0a6H, 0a1H, 0a3H, 00H
	ORG $+16
	ORG $+1
?help_desc_21@@3PAUDESC@@A DW 00H			; help_desc_21
	DB	04H
	DB	00H
	DB	00H
	DB	'1.', 0caH, 0abH, 0f0H, 0e9H, 0e0H, 0f7H, '?', 0d6H, 0aaH
	DB	0f8H, 0faH, 00H
	ORG $+46
	ORG $+1
	DW	00H
	DB	00H
	DB	00H
	DB	00H
	DB	'  ', 0caH, 0a6H, '?', 0caH, 0d7H, 0edH, 0bbH, 0d0H, 0f9H
	DB	0caH, 0abH, 0f0H, 0e9H, 0e0H, 0f7H, '?', 0eeH, 0dcH, '?', 0d6H
	DB	0f9H, 0a3H, 0a8H, 0f8H, 0d0H, 0f9H, 0dfH, 0e0H, 0f7H, '?', 0dfH
	DB	0beH, '???', 0a1H, 0a2H, 0e0H, 0f3H, 0d9H, 0a3H, 00H
	ORG $+16
	ORG $+1
	DW	00H
	DB	00H
	DB	00H
	DB	00H
	DB	'  ', 0a1H, 0a2H, 0d4H, 0f5H, '?', 0a1H, 0a2H, '?', 0ecH, 0d1H
	DB	'?', 0d8H, 0d0H, 0a3H, 0a9H, 0a1H, 0a3H, 00H
	ORG $+40
	ORG $+1
	DW	00H
	DB	04H
	DB	00H
	DB	00H
	DB	'2.', 0caH, 0abH, 0f0H, 0e9H, 0d7H, 0baH, 0e5H, 0ebH, 00H
	ORG $+49
	ORG $+1
	DW	00H
	DB	00H
	DB	00H
	DB	00H
	DB	'  ?', 0eaH, 0f3H, 0d4H, 0d2H, 0ecH, 0e9H, 0caH, 0abH, 0f0H
	DB	0e9H, 0f1H, 0fdH, '?', 0eeH, 0dcH, 0e0H, 0f7H, '?', 0caH, 0a6H
	DB	0ecH, 0a4H, 0d7H, 0baH, 0e5H, 0ebH, 0a1H, 0a3H, 00H
	ORG $+28
	ORG $+1
	DW	00H
	DB	04H
	DB	00H
	DB	00H
	DB	'3.', 0caH, 0abH, 0f0H, 0e9H, 0f1H, 0fdH, '?', 0d7H, 0baH
	DB	0e5H, 0ebH, 0f7H, 0faH, 00H
	ORG $+44
	ORG $+1
	DW	00H
	DB	00H
	DB	00H
	DB	00H
	DB	'  ?', 0eaH, 0f3H, 0f0H, 0e9H, '?', 0caH, 0a6H, 0ecH, 0a4H
	DB	0d7H, 0baH, 0e5H, 0ebH, 0a1H, 0a3H, 00H
	ORG $+41
	ORG $+1
	DW	00H
	DB	04H
	DB	00H
	DB	00H
	DB	'4.', 0e3H, 0e9H, '?', 0caH, 0abH, 0f0H, 0e9H, 0cbH, 0dfH
	DB	0efH, 0c3H, 00H
	ORG $+46
	ORG $+1
	DW	00H
	DB	00H
	DB	00H
	DB	00H
	DB	'  ?', 0caH, 0abH, 0f0H, 0e9H, 0eeH, 0dcH, '?', 0d8H, 0d0H
	DB	0d3H, 0f0H, '?1000', 0f3H, 0a6H, 0ecH, 0d1H, '?', 0eeH, 0a4H, '3'
	DB	'0', 0ecH, 0d1H, 0ecH, 0a4H, 0dfH, 0beH, 0a3H, 0acH, 0e5H, 0b4H
	DB	0d6H, 0aaH, 0f8H, 0faH, 0dfH, 0beH, 0f8H, 0faH, 00H
	ORG $+13
	ORG $+1
	DW	00H
	DB	00H
	DB	00H
	DB	00H
	DB	'  ', 0e3H, 0c6H, 0edH, 0e4H, '??', 0daH, 0b1H, 0f9H, 0acH
	DB	0e3H, 0e9H, '?', 0a3H, 0acH, '?', 0f0H, 0e9H, '?', 0eaH, 0f3H, '?'
	DB	0d7H, 0d7H, 0eeH, 0a4H, 0f3H, 0aeH, 0e3H, 0e9H, '?', 0a1H, 0a3H
	DB	00H
	ORG $+24
	ORG $+1
	DW	00H
	DB	04H
	DB	00H
	DB	00H
	DB	'5.', 0caH, 0abH, 0f0H, 0e9H, 0f1H, 0fdH, '?', 0cbH, 0adH
	DB	0edH, 0baH, 0f8H, 0faH, 00H
	ORG $+44
	ORG $+1
	DW	00H
	DB	00H
	DB	00H
	DB	00H
	DB	'  ', 0caH, 0a6H, '?', 0caH, 0d7H, 0caH, 0c0H, '?', 0caH, 0abH
	DB	0f0H, 0e9H, '?', 0d8H, 0d0H, 0d6H, 0aaH, 0f8H, 0faH, 0a3H, 0acH
	DB	'?', 0ebH, 0a6H, 0f0H, 0e9H, '?', 0eeH, 0dcH, 0d9H, 0b3H, '?', 0a1H
	DB	0a2H, '?', 0ebH, 0c0H, 0a1H, 0a2H, 0f9H, 0eaH, 00H
	ORG $+16
	ORG $+1
	DW	00H
	DB	00H
	DB	00H
	DB	00H
	DB	'  ', 0e0H, 0f7H, 0a1H, 0a2H, 0d6H, 0f9H, 0d7H, 0e2H, 0ecH
	DB	0a4H, 0d0H, 0e0H, 0caH, 0abH, 0f0H, 0e9H, 0f1H, 0fdH, '?', 0eeH
	DB	0dcH, '?', 0d4H, 0e0H, 0caH, 0a6H, 0ecH, 0a4H, 0f1H, 0f2H, 0caH
	DB	0a5H, 0caH, 0abH, 0f0H, 0e9H, '?', 0d8H, 0d0H, 0a1H, 0a3H, 00H
	ORG $+16
	ORG $+1
	ORG $+6
?help_desc_22@@3PAUDESC@@A DW 00H			; help_desc_22
	DB	04H
	DB	00H
	DB	00H
	DB	'1.', 0f0H, 0e9H, '??', 0f7H, 0ebH, 00H
	ORG $+51
	ORG $+1
	DW	00H
	DB	00H
	DB	00H
	DB	00H
	DB	'  ', 0caH, 0a6H, '?', 0f7H, 0ebH, '?', 0caH, 0abH, 0f0H, 0e9H
	DB	'?', 0e1H, 0b6H, 0eaH, 0f3H, 0e0H, 0f7H, '??', 0a1H, 0a3H, 00H
	ORG $+36
	ORG $+1
	DW	00H
	DB	04H
	DB	00H
	DB	00H
	DB	'2.', 0caH, 0abH, 0f0H, 0e9H, 0e0H, 0f7H, '?', 0ceH, 0b7H
	DB	0d7H, 0e2H, 00H
	ORG $+46
	ORG $+1
	DW	00H
	DB	00H
	DB	00H
	DB	00H
	DB	'  ', 0caH, 0a6H, '?', 0caH, 0d7H, 0e1H, 0b6H, 0eaH, 0f3H
	DB	0f0H, 0e9H, '???', 0a1H, 0a2H, '??', 0e3H, 0c0H, 0dcH, 0faH, '?'
	DB	'?', 0f4H, 0fdH, 0d9H, 0b4H, 0caH, 0abH, 0f0H, 0e9H, 0e0H, 0f7H
	DB	'?', 0a3H, 0acH, '?', 00H
	ORG $+19
	ORG $+1
	DW	00H
	DB	00H
	DB	00H
	DB	00H
	DB	'  ', 0caH, 0a6H, '??', 0f0H, 0e9H, '??', 0ecH, 0f2H, 0eeH
	DB	0dcH, '?', 0eaH, 0c8H, 0a1H, 0a3H, 00H
	ORG $+40
	ORG $+1
	DW	00H
	DB	00H
	DB	00H
	DB	00H
	DB	'  ', 0ecH, 0e9H, '?', 0caH, 0abH, 0f0H, 0e9H, 0caH, 0a6H
	DB	'??', 0e7H, 0e9H, 0eaH, 0c8H, 0e0H, 0f7H, '?', 0f1H, 0aeH, '?', 0caH
	DB	0abH, 0f0H, 0e9H, '?', 0d6H, 0d5H, 0a3H, 0acH, 0ecH, 0bbH, '?', 0d6H
	DB	0d5H, 0f0H, 0b6H, 0d6H, 0f5H, 0d9H, 0e9H, 00H
	ORG $+16
	ORG $+1
	DW	00H
	DB	00H
	DB	00H
	DB	00H
	DB	'  ', 0dbH, 0f6H, '?', 0eaH, 0c8H, 0a1H, 0a2H, 0faH, 0b0H
	DB	0dfH, 0a4H, 0caH, 0abH, 0f0H, 0e9H, 0d0H, 0e0H, '?', 0f5H, 0f3H
	DB	0d0H, 0ecH, '??', 0d6H, 0d5H, 0f1H, 0fdH, 0e8H, 0e2H, 0a3H, 0acH
	DB	0d0H, 0ecH, '?', 0eeH, 0dcH, 0f0H, 0e9H, '?', 0cdH, 0edH, 00H
	ORG $+15
	ORG $+1
	DW	00H
	DB	00H
	DB	00H
	DB	00H
	DB	'  ', 0d2H, 0f6H, '?', 0d6H, 0d5H, 0d4H, 0b4H, 0caH, 0a6H
	DB	0ecH, 0a4H, 0deH, 0c5H, 0e9H, 0c4H, 0a3H, 0acH, 0ecH, 0a4H, '?'
	DB	'?', 0f0H, 0e9H, '?', 0eeH, 0dcH, '??', 0a1H, 0a3H, 00H
	ORG $+27
	ORG $+1
	DW	00H
	DB	04H
	DB	00H
	DB	00H
	DB	'3.', 0f0H, 0e9H, '??', 0eaH, 0c8H, 00H
	ORG $+51
	ORG $+1
	DW	00H
	DB	00H
	DB	00H
	DB	00H
	DB	'  ', 0f0H, 0e9H, '?', 0caH, 0a6H, '??', 0ecH, 0e9H, 0f0H
	DB	0e9H, '?', 0a3H, 0a8H, 0f3H, 0aeH, 0ecH, 0e9H, 0f0H, 0e9H, '?', 0e2H
	DB	0cdH, 0eeH, 0a4H, 0d4H, 0d2H, 0ecH, 0e9H, 0e0H, 0f8H, 0cfH, 0b9H
	DB	0dfH, 0beH, 0a3H, 0acH, '?', 0f3H, 0a6H, 0e3H, 0c0H, 00H
	ORG $+15
	ORG $+1
	DW	00H
	DB	00H
	DB	00H
	DB	00H
	DB	'  online??', 0a3H, 0acH, 0f3H, 0a6H, 0ddH, 0acH, 0f9H, 0eaH
	DB	0f0H, 0e9H, '??', 0ccH, 0abH, 0a3H, 0a9H, 0a3H, 0acH, 0f6H, 0a6H
	DB	0caH, 0a6H, '?', 0f0H, 0e9H, '?', 0eeH, 0dcH, 0eaH, 0c8H, 0f6H
	DB	0c7H, '?', 00H
	ORG $+16
	ORG $+1
	DW	00H
	DB	00H
	DB	00H
	DB	00H
	DB	'  ?', 0f6H, 0e2H, 0a1H, 0a3H, 00H
	ORG $+52
	ORG $+1
?help_desc_23@@3PAUDESC@@A DW 00H			; help_desc_23
	DB	04H
	DB	00H
	DB	00H
	DB	'1.', 0caH, 0abH, 0f0H, 0e9H, '?', 0faH, 0bcH, 00H
	ORG $+50
	ORG $+1
	DW	00H
	DB	00H
	DB	00H
	DB	00H
	DB	'  ', 0eaH, 0c8H, 0e9H, 0cdH, 0edH, 0e4H, '?', 0f1H, 0e9H
	DB	0eeH, 0dcH, 0f0H, 0e9H, '?', 0caH, 0abH, 0a3H, 0acH, 0f0H, 0e9H
	DB	'?', 0caH, 0a6H, 0ecH, 0a4H, '?', 0f0H, 0edH, 0e0H, 0b4H, '?', 0e9H
	DB	0cdH, '?', 0ecH, 0d1H, 0fbH, 0e4H, 0caH, 0abH, 0f0H, 0e9H, 00H
	ORG $+15
	ORG $+1
	DW	00H
	DB	00H
	DB	00H
	DB	00H
	DB	'  ??', 0a3H, 0acH, '?', 0ecH, 0d1H, '??', 0eeH, 0dcH, 0f0H
	DB	0edH, 0ceH, 0b3H, 0dfH, 0beH, 0f9H, 0daH, '?', 0ecH, 0e9H, 0f4H
	DB	0b6H, 0d8H, 0b2H, 0e0H, 0b4H, '?', 0a3H, 0acH, 0ecH, 0bbH, 0caH
	DB	0abH, 0f0H, 0e9H, 0cdH, 0ecH, 0d4H, 0d2H, 00H
	ORG $+16
	ORG $+1
	DW	00H
	DB	00H
	DB	00H
	DB	00H
	DB	'  ??', 0eeH, 0dcH, 0f0H, 0edH, 0ceH, 0b3H, 0dfH, 0beH, 0f9H
	DB	0daH, '?', 0ecH, 0e9H, '?', 0e0H, 0b4H, '?', 0a3H, 0acH, 0ecH, 0bbH
	DB	0f1H, 0feH, 0eaH, 0f3H, 0f0H, 0e9H, '?', 0d0H, 0e0H, '?', 0d6H
	DB	0d5H, '?', 0eeH, 0a6H, 0caH, 0a6H, 00H
	ORG $+17
	ORG $+1
	DW	00H
	DB	00H
	DB	00H
	DB	00H
	DB	'  ?', 0caH, 0abH, 0f0H, 0e9H, 0cdH, 0ecH, 0d4H, 0d2H, '?'
	DB	'?', 0f1H, 0e9H, 0f0H, 0abH, 0f6H, 0a2H, 0e0H, 0b4H, '?', 0a1H
	DB	0a3H, 00H
	ORG $+35
	ORG $+1
	DW	00H
	DB	04H
	DB	00H
	DB	00H
	DB	'2.', 0caH, 0abH, 0f0H, 0e9H, '?', 0deH, 0cdH, 00H
	ORG $+50
	ORG $+1
	DW	00H
	DB	00H
	DB	00H
	DB	00H
	DB	'  ', 0eaH, 0c8H, 0e9H, 0cdH, 0edH, 0e4H, '?', 0f1H, 0e9H
	DB	0f0H, 0e9H, '?', 0caH, 0abH, 0a3H, 0acH, 0f0H, 0e9H, '??', 0d0H
	DB	0ecH, '?', 0daH, 0aaH, 0caH, 0a6H, 0d8H, 0f3H, '??', 0f0H, 0ebH
	DB	0d2H, 0b1H, 0ceH, 0f9H, 0d5H, 0f4H, 0d0H, 0e0H, 00H
	ORG $+16
	ORG $+1
	DW	00H
	DB	00H
	DB	00H
	DB	00H
	DB	'  ?', 0d5H, 0f4H, 0a1H, 0a3H, 00H
	ORG $+52
	ORG $+1
	DW	00H
	DB	04H
	DB	00H
	DB	00H
	DB	'3.?', 0e3H, 0abH, '???', 00H
	ORG $+51
	ORG $+1
	DW	00H
	DB	00H
	DB	00H
	DB	00H
	DB	'  ', 0eaH, 0c8H, 0e9H, 0cdH, 0edH, 0e4H, '?', 0f1H, 0e9H
	DB	0a3H, 0acH, 0caH, 0a6H, '???????', 0a3H, 0acH, '?', 0cdH, 0ecH
	DB	0eaH, 0f3H, 0deH, 0ccH, '??', 0efH, 0efH, 0ebH, 0a6H, 0f4H, 0f8H
	DB	00H
	ORG $+20
	ORG $+1
	DW	00H
	DB	00H
	DB	00H
	DB	00H
	DB	'  ?', 0daH, 0ecH, 0d3H, 0f0H, 0f7H, 0e5H, '?', 0daH, 0ecH
	DB	0a1H, 0a3H, 00H
	ORG $+45
	ORG $+1
	DW	00H
	DB	04H
	DB	00H
	DB	00H
	DB	'4.', 0caH, 0abH, 0f0H, 0e9H, 0e9H, 0adH, '?', 0f9H, 0deH
	DB	00H
	ORG $+48
	ORG $+1
	DW	00H
	DB	00H
	DB	00H
	DB	00H
	DB	'  ?', 0eaH, 0f3H, 0f0H, 0e9H, '?', 0eeH, 0a6H, 0caH, 0a6H
	DB	0f0H, 0a4H, 0edH, 0c2H, 0caH, 0abH, 0f0H, 0e9H, 0e9H, 0adH, '?'
	DB	0f9H, 0deH, 0a3H, 0acH, 0eaH, 0f3H, 0f3H, 0aeH, 0ecH, 0e9H, 0e9H
	DB	0adH, '?', 0f9H, 0deH, '?', 0caH, 0a6H, '?', 0ecH, 0fdH, 00H
	ORG $+15
	ORG $+1
	DW	00H
	DB	00H
	DB	00H
	DB	00H
	DB	'  ', 0f3H, 0aeH, 0ecH, 0e9H, 0edH, 0e4H, '??', 0f0H, 0e9H
	DB	'?', 0eeH, 0dcH, 0caH, 0abH, 0a3H, 0a8H, 0f9H, 0daH, '?', 0d0H
	DB	0f6H, 0a3H, 0a9H, 0a1H, 0a3H, 00H
	ORG $+31
	ORG $+1
	ORG $+4
?help_desc_24@@3PAUDESC@@A DW 00H			; help_desc_24
	DB	00H
	DB	00H
	DB	00H
	DB	'    ', 0e8H, 0ccH, 0caH, 0abH, 0eeH, 0a4H, 0e0H, 0b4H, 0d0H
	DB	0efH, '?', 0d3H, 0deH, 0eeH, 0dcH, 0eaH, 0abH, 0e5H, 0afH, 0dfH
	DB	0beH, '?', 0ecH, 0a4H, '?', 0cfH, 0f5H, 0e9H, 0e7H, '?', 0eeH, 0dcH
	DB	0dbH, 0b0H, 0e3H, 0d2H, 0f5H, 0f3H, '??', 00H
	ORG $+15
	ORG $+1
	DW	00H
	DB	00H
	DB	00H
	DB	00H
	DB	0d4H, 0e0H, 0a3H, 0acH, '?', 0d4H, 0e0H, '?', 0e3H, 0c0H, 0f3H
	DB	0faH, 0fcH, 0deH, 0f9H, 0eaH, 0f0H, 0a4H, 0a3H, 0acH, 0d8H, 0dfH
	DB	0fcH, 0deH, 0f9H, 0eaH, 0e8H, 0ccH, 0caH, 0abH, '?', 0eaH, 0f3H
	DB	0a3H, 0b3H, 0a3H, 0b0H, 0f5H, 0a9H, 0eeH, 0dcH, '??', 0f1H, 0aeH
	DB	00H
	ORG $+14
	ORG $+1
	DW	00H
	DB	00H
	DB	00H
	DB	00H
	DB	'??', 0a3H, 0acH, 0ecH, 0bbH, '?', 0d8H, 0fcH, 0e9H, 0d3H
	DB	0dfH, 0beH, 0dbH, 0b0H, '?', 0f5H, 0f3H, '??', 0d4H, 0e0H, 0f2H
	DB	0a6H, 0d6H, 0b5H, 0d6H, 0aaH, 0f8H, 0faH, 0a3H, 0baH, 00H
	ORG $+27
	ORG $+1
	DW	09H
	DB	04H
	DB	01H
	DB	00H
	DB	0cdH, 0f4H, '?', 00H
	ORG $+56
	ORG $+1
	DW	00H
	DB	00H
	DB	01H
	DB	00H
	DB	'      ', 0e4H, 0ceH, 0f9H, 0bbH, 0cdH, 0f4H, '?', 0fdH, 0a8H
	DB	0efH, 0c3H, '??', 0d8H, 0fcH, 0eeH, 0dcH, '?', 0ecH, 0d1H, '?', 0faH
	DB	0bcH, 0cdH, 0f4H, '?', 0a1H, 0a3H, 00H
	ORG $+25
	ORG $+1
	DW	0aH
	DB	04H
	DB	01H
	DB	00H
	DB	0dbH, 0c1H, 0e5H, 0d9H, 00H
	ORG $+55
	ORG $+1
	DW	00H
	DB	00H
	DB	01H
	DB	00H
	DB	'      ', 0ecH, 0d1H, 0daH, 0aaH, '?', 0eeH, 0a4H, 0f3H, 0aeH
	DB	0fcH, 0deH, 0f9H, 0eaH, '?', 0d4H, 0e0H, 0f1H, 0e9H, '?', 0faH
	DB	0bcH, 0dbH, 0c1H, 0e5H, 0d9H, 0a1H, 0a3H, 00H
	ORG $+26
	ORG $+1
	DW	0bH
	DB	04H
	DB	01H
	DB	00H
	DB	0deH, 0c5H, 0e9H, 0c4H, 0efH, 0f1H, '?', 00H
	ORG $+52
	ORG $+1
	DW	00H
	DB	00H
	DB	01H
	DB	00H
	DB	'      ', 0eeH, 0a4H, '?', 0d4H, 0e0H, 0f1H, 0e9H, 0e4H, 0ceH
	DB	0f3H, 0aeH, 0cdH, 0edH, 0d2H, 0f6H, '?', 0a3H, 0acH, '?', 0ebH
	DB	0eeH, 0f0H, 0ceH, 0e3H, 0f3H, 0dfH, 0beH, '??', 0d4H, 0b3H, 0ceH
	DB	0fdH, 0e1H, 0b6H, 0ddH, 0beH, 00H
	ORG $+16
	ORG $+1
	DW	00H
	DB	00H
	DB	01H
	DB	00H
	DB	'      ', 0eaH, 0f3H, 0eeH, 0dcH, 0efH, 0f1H, '?', 0d6H, 0aaH
	DB	0f8H, 0faH, 0a3H, 0acH, 0e8H, 0ccH, 0caH, 0abH, 0caH, 0a6H, '?'
	DB	'?', 0f8H, 0faH, 0dfH, 0beH, 0eeH, 0dcH, 0efH, 0f1H, '??', 0edH
	DB	0bbH, 0d0H, 0f9H, 0fbH, 0e4H, 00H
	ORG $+16
	ORG $+1
	DW	00H
	DB	00H
	DB	01H
	DB	00H
	DB	'      ?', 0dbH, 0b0H, 0e3H, 0bfH, 0dbH, 0afH, 0a1H, 0a3H
	DB	00H
	ORG $+44
	ORG $+1
	DW	0cH
	DB	04H
	DB	01H
	DB	00H
	DB	0deH, 0c5H, 0e9H, 0c4H, 0d4H, 0b3H, 0ceH, 0fdH, '?', 0eeH
	DB	0dcH, 0daH, 0aaH, 0f9H, 0a1H, 00H
	ORG $+44
	ORG $+1
	DW	00H
	DB	00H
	DB	01H
	DB	00H
	DB	'      ?', 0d4H, 0e0H, 0f1H, 0e9H, 0caH, 0a6H, 0f6H, 0e8H
	DB	'?', 0d4H, 0b3H, 0ceH, 0fdH, '?', 0deH, 0c5H, 0e9H, 0c4H, 0ebH
	DB	0bfH, '?', 0fbH, 0e4H, 0e3H, 0c0H, '???', 0faH, 0ecH, '??', 00H
	ORG $+20
	ORG $+1
	DW	00H
	DB	00H
	DB	01H
	DB	00H
	DB	'      ', 0d5H, 0f4H, 0a3H, 0acH, 0fbH, 0e4H, 0e3H, 0c0H, 0ccH
	DB	0daH, '?', 0d9H, 0cdH, 0eeH, 0f1H, 0e1H, 0b6H, 0deH, 0c5H, 0e9H
	DB	0c4H, 0eeH, 0dcH, 0d9H, 0ebH, 0d0H, 0efH, 0a3H, 0a8H, 0dcH, 0f4H
	DB	0f8H, 0d0H, 0ceH, 0c0H, '??', 0d0H, 0e0H, 00H
	ORG $+14
	ORG $+1
	DW	00H
	DB	00H
	DB	01H
	DB	00H
	DB	'      ', 0e2H, 0cfH, '?', 0a3H, 0a9H, 0a1H, 0a3H, 00H
	ORG $+46
	ORG $+1
	DW	0dH
	DB	04H
	DB	01H
	DB	00H
	DB	0f8H, 0daH, 0f3H, 0b5H, '?', 0daH, 0aaH, 00H
	ORG $+52
	ORG $+1
	DW	00H
	DB	00H
	DB	01H
	DB	00H
	DB	'      ', 0e4H, 0ceH, 0f9H, 0bbH, 0f8H, 0daH, 0f3H, 0b5H, 0fdH
	DB	0a8H, 0efH, 0c3H, '??', 0d8H, 0fcH, 0eeH, 0dcH, '?', 0ecH, 0d1H
	DB	0caH, 0a5H, 0ecH, 0a4H, 0f8H, 0daH, 0f3H, 0b5H, 0a3H, 0acH, '?'
	DB	0ecH, 0d1H, 0daH, 0aaH, 0e3H, 0f3H, 00H
	ORG $+15
	ORG $+1
	DW	00H
	DB	00H
	DB	01H
	DB	00H
	DB	'      ', 0dfH, 0beH, 0ecH, 0abH, 0eaH, 0f3H, 0e7H, 0e9H, 0f1H
	DB	0feH, '?', 0daH, 0aaH, 0eeH, 0dcH, '?', 0fdH, 0a6H, 0a3H, 0acH
	DB	'??', 0e4H, 0ceH, '?', 0eeH, 0a2H, '?', 0d4H, 0e0H, 0f1H, 0e9H
	DB	'??', 00H
	ORG $+19
	ORG $+1
	DW	0eH
	DB	00H
	DB	01H
	DB	00H
	DB	'  ', 0f5H, 0f3H, '?', 0ecH, 0e9H, '?        ', 0a3H, 0acH
	DB	0d3H, 0dbH, 0f8H, 0faH, 0d9H, 0e9H, 0dbH, 0f6H, 0eeH, 0a2H, 0f8H
	DB	0daH, 0f3H, 0b5H, '?', 0daH, 0aaH, 0d6H, 0f5H, 0a1H, 0a3H, 00H
	ORG $+20
	ORG $+1
	DW	0fH
	DB	04H
	DB	01H
	DB	00H
	DB	'?', 0fcH, 0deH, '?', 0daH, 0aaH, 0d0H, 0e0H, 0ccH, 0daH, '?'
	DB	'?', 0daH, 0aaH, 00H
	ORG $+45
	ORG $+1
	DW	00H
	DB	00H
	DB	01H
	DB	00H
	DB	'      ?', 0d4H, 0e0H, 0f1H, 0e9H, 0caH, 0a6H, 0ccH, 0daH
	DB	'?', 0eeH, 0dcH, '?', 0daH, 0aaH, '??', 0daH, 0aaH, '?', 0eaH, 0c8H
	DB	0eeH, 0dcH, 0f2H, 0a2H, 0dbH, 0b0H, 0deH, 0c5H, 0e9H, 0c4H, 0d4H
	DB	0f5H, 0d3H, 0e2H, 00H
	ORG $+17
	ORG $+1
	DW	00H
	DB	00H
	DB	01H
	DB	00H
	DB	'      ', 0eeH, 0dcH, '?', 0daH, 0aaH, 0eeH, 0a6H, 0caH, 0a6H
	DB	0ecH, 0a4H, 0eeH, 0a2H, '?', 0d4H, 0e0H, 0f1H, 0e9H, '?', 0ccH
	DB	0daH, '?', 0a1H, 0a3H, 00H
	ORG $+29
	ORG $+1
	DW	010H
	DB	04H
	DB	01H
	DB	00H
	DB	'?', 0cfH, 0b4H, '?', 0f0H, 0beH, '?', 0d4H, 0e0H, 00H
	ORG $+50
	ORG $+1
	DW	00H
	DB	00H
	DB	01H
	DB	00H
	DB	'      ', 0eeH, 0a2H, '?', 0d4H, 0e0H, 0f1H, 0e9H, 0e5H, 0fdH
	DB	0cdH, 0fdH, 0dfH, 0ccH, '?', 0d0H, 0ecH, 0f6H, 0e2H, 0ecH, 0d1H
	DB	'?', 0f0H, 0beH, '?', 0d4H, 0e0H, 0a3H, 0acH, 0caH, 0a6H, 0efH
	DB	0c3H, '???', 00H
	ORG $+18
	ORG $+1
	DW	00H
	DB	00H
	DB	01H
	DB	00H
	DB	'      ', 0e4H, 0ceH, '?', 0a3H, 0acH, '??', 0dfH, 0ccH, 0caH
	DB	0a5H, 0ecH, 0fdH, 0d0H, 0ecH, '?', 0e8H, 0ccH, 0caH, 0abH, 0eeH
	DB	0dcH, '?', 0d4H, 0e0H, 0f1H, 0e9H, '?', 0a3H, 0a8H, '?', 0caH, 0d7H
	DB	0d3H, 0f0H, 00H
	ORG $+18
	ORG $+1
	DW	00H
	DB	00H
	DB	01H
	DB	00H
	DB	'      ', 0eaH, 0f3H, 0d0H, 0ecH, 0f6H, 0e2H, 0e8H, 0ccH, 0caH
	DB	0abH, '?', 0dfH, 0beH, 0eaH, 0f3H, 'help', 0eeH, 0dcH, '?', 0fdH
	DB	0a6H, 0a3H, 0a9H, 0a3H, 0acH, 0caH, 0a6H, 0e4H, 0ceH, 0f9H, 0bbH
	DB	'?', 0d8H, 0fcH, 0f1H, 0e9H, 00H
	ORG $+14
	ORG $+1
	DW	012H
	DB	00H
	DB	01H
	DB	00H
	DB	'  ', 0e9H, 0d3H, 0dfH, 0beH, 0dbH, 0b0H, 0caH, 0a5H, 0ecH
	DB	0fdH, '?', 0d4H, 0e0H, '      ', 0eeH, 0dcH, 0e4H, 0ceH, '??', 0caH
	DB	0a6H, '?', 0ecH, 0fdH, 0d0H, 0ecH, 0f6H, 0e2H, 0e8H, 0ccH, 0caH
	DB	0abH, 00H
	ORG $+19
	ORG $+1
	DW	00H
	DB	00H
	DB	01H
	DB	00H
	DB	'      ', 0eeH, 0dcH, '?', 0d4H, 0e0H, 0f1H, 0e9H, 0a1H, 0a3H
	DB	00H
	ORG $+44
	ORG $+1
	DW	011H
	DB	04H
	DB	01H
	DB	00H
	DB	0d4H, 0b1H, '?', 00H
	ORG $+56
	ORG $+1
	DW	00H
	DB	00H
	DB	01H
	DB	00H
	DB	'      ?', 0ecH, 0fdH, '?', 0d4H, 0e0H, '?', 0d8H, 0fcH, 0fdH
	DB	0a8H, 0e5H, 0fdH, 0cdH, 0fdH, 0e8H, 0ccH, 0caH, 0abH, 0dcH, 0f4H
	DB	0dfH, 0ccH, '???', 0d4H, 0e0H, 0eeH, 0dcH, '?', 0caH, 0a6H, 0ecH
	DB	0a4H, 00H
	ORG $+18
	ORG $+1
	DW	00H
	DB	00H
	DB	01H
	DB	00H
	DB	'      ', 0efH, 0c3H, '???', 0e4H, 0ceH, '?', 0eeH, 0a2H, '?'
	DB	0d4H, 0e0H, 0f1H, 0e9H, 0d4H, 0b1H, '?', 0a1H, 0a3H, 00H
	ORG $+33
	ORG $+1
	ORG $+2
?help_desc_25@@3PAUDESC@@A DW 00H			; help_desc_25
	DB	00H
	DB	00H
	DB	00H
	DB	0e8H, 0ccH, 0caH, 0abH, 0dfH, 0ccH, 0e9H, 0a9H, '?', 0e8H
	DB	0ccH, 0caH, 0abH, 0ecH, 0d1H, 0daH, 0aaH, '?', 0faH, 0bcH, 'PK'
	DB	0eeH, 0dcH, '?', 0fdH, 0a6H, 0a3H, 0acH, 0e2H, 0cdH, 0e9H, 0a9H
	DB	'??', 0d8H, 0fcH, 0f1H, 0a7H, 0dfH, 0beH, 0caH, 0c7H, 0eeH, 0dcH
	DB	00H
	ORG $+14
	ORG $+1
	DW	00H
	DB	00H
	DB	00H
	DB	00H
	DB	'Menu??', 0f1H, 0e9H, 0eeH, 0dcH, '?', 0d4H, 0e0H, '?', 0f6H
	DB	0c7H, 0e0H, 0f7H, ' YES', 0dbH, 0b0H, 0d2H, 0f6H, '?', 0d0H, 0ecH
	DB	0f6H, 0e2H, 0e8H, 0ccH, 0caH, 0abH, 0ecH, 0d1H, 0daH, 0aaH, '?'
	DB	'?', 0a3H, 0acH, 00H
	ORG $+16
	ORG $+1
	DW	00H
	DB	00H
	DB	00H
	DB	00H
	DB	0eeH, 0a4H, 0e8H, 0ccH, 0caH, 0abH, '?', 0faH, 0bcH, 'PK', 0eeH
	DB	0dcH, '?', 0fdH, 0a6H, 0dcH, 0f4H, 0d2H, 0f6H, 0deH, 0c5H, 0e9H
	DB	0c4H, '?', 0d4H, 0e0H, 0f1H, 0e9H, 0eeH, 0dcH, 0f3H, 0b5H, 0f8H
	DB	0daH, 0ecH, 0a4H, 0d0H, 0e0H, 'HELP', 0eeH, 0dcH, 0e4H, 0ceH, 00H
	ORG $+12
	ORG $+1
	DW	00H
	DB	00H
	DB	00H
	DB	00H
	DB	'?', 0a1H, 0a3H, 00H
	ORG $+56
	ORG $+1
	DW	00H
	DB	00H
	DB	00H
	DB	00H
	DB	0ecH, 0e9H, 0daH, 0f5H, 'PK', 0d3H, 0deH, 0d2H, 0fdH, '?', 0faH
	DB	0bcH, 0eeH, 0a4H, 0deH, 0ccH, 0d3H, 0deH, 0f5H, 0f3H, 0dfH, 0e6H
	DB	0f5H, 0bdH, 0edH, 0adH, 0eeH, 0dcH, 0cdH, 0ecH, 0d4H, 0d2H, '?'
	DB	0d0H, 0fcH, '?', 0a3H, 0acH, 0fbH, 0e4H, 0e3H, 0c0H, 0e8H, 0ccH
	DB	0caH, 0abH, 00H
	ORG $+12
	ORG $+1
	DW	00H
	DB	00H
	DB	00H
	DB	00H
	DB	0caH, 0a6H, 0ecH, 0a4H, 0ecH, 0f2H, 0ebH, 0f2H, '??', 0f2H
	DB	0a2H, 0efH, 0c3H, 0a3H, 0acH, '?', 0faH, 0bcH, 0ecH, 0e9H, 0daH
	DB	0f5H, 'PK', 0a3H, 0acH, 0e8H, 0ccH, 0caH, 0abH, 0f9H, 0b1H, '?'
	DB	0d8H, 0fcH, '?', 0d8H, 0fcH, 0eeH, 0dcH, '?', 0dfH, 0ccH, 00H
	ORG $+15
	ORG $+1
	DW	00H
	DB	00H
	DB	00H
	DB	00H
	DB	0e9H, 0a9H, '?', 0f1H, 0fdH, '??', 0eeH, 0dcH, 0e8H, 0ccH
	DB	0caH, 0abH, 0fbH, 0bbH, 0dfH, 0d3H, '?', 0fbH, 0bfH, '???', 0d4H
	DB	0e0H, 0a3H, 0acH, 0e4H, 0ceH, 0f9H, 0bbH, '?', 0d8H, 0fcH, 0e9H
	DB	0d3H, 0dfH, 0beH, 0caH, 0c7H, 0eeH, 0dcH, 00H
	ORG $+17
	ORG $+1
	DW	04H
	DB	00H
	DB	00H
	DB	00H
	DB	'?', 0caH, 0a6H, '?', 0e8H, 0ccH, 0caH, 0abH, 0ecH, 0d1H, 0daH
	DB	0aaH, '?', 0faH, 0bcH, '??', 0a1H, 0a3H, 00H
	ORG $+40
	ORG $+1
?FontPal@@3PAKA DD 0ffffffH				; FontPal
	DD	0ffff00H
	DD	0ff00ffH
	DD	0ff0000H
	DD	0ffffH
	DD	0ff00H
	DD	0ffH
	DD	0a4a0a0H
	DD	0f0caa6H
	DD	0c0dcc0H
	DD	08cffH
	DD	0247fffH
?help_desc_26@@3PAUDESC@@A DW 00H			; help_desc_26
	DB	00H
	DB	00H
	DB	00H
	DB	'    ', 0caH, 0abH, 0f0H, 0e9H, '?', 0caH, 0abH, 0f0H, 0e9H
	DB	0f1H, 0fdH, '?', 0eeH, 0dcH, 'PK', 0e2H, 0cdH, 0e9H, 0a9H, '?', 0ebH
	DB	0a6H, '?', 0dbH, 0b0H, 0f0H, 0e9H, '??', 0efH, 0d2H, 'PK', 0eeH
	DB	0dcH, '??', 00H
	ORG $+17
	ORG $+1
	DW	00H
	DB	00H
	DB	00H
	DB	00H
	DB	'??', 0a3H, 0acH, '??', 0eeH, 0dcH, '?', 0f2H, 0a2H, 0eeH
	DB	0a4H, 0deH, 0ccH, 0d3H, 0deH, 0f5H, 0f3H, 0dfH, 0e6H, 0f2H, 0a2H
	DB	0f5H, 0bdH, '?', 0eeH, 0dcH, '?', 0d0H, 0fcH, '?', 0d7H, 0ecH, 0d8H
	DB	0fcH, 0eeH, 0dcH, 'PK', 0f6H, 0a9H, 00H
	ORG $+17
	ORG $+1
	DW	00H
	DB	00H
	DB	00H
	DB	00H
	DB	'??', 0a3H, 0acH, '?', 0dbH, 0b0H, 0f0H, 0e9H, '?', 0f9H, 0b1H
	DB	'?', 0e0H, 0bbH, 0eeH, 0a4H, '?', 0f2H, 0a2H, '??', 0ecH, 0d1H
	DB	0d1H, 0e1H, 0d7H, 0ecH, 0d4H, 0f4H, '?', 0dfH, 0ccH, 0e9H, 0a9H
	DB	'PK', 0eeH, 0dcH, '?', 00H
	ORG $+19
	ORG $+1
	DW	00H
	DB	00H
	DB	00H
	DB	00H
	DB	'?', 0a3H, 0acH, 0caH, 0abH, 0f0H, 0e9H, 'PK', 0eeH, 0dcH
	DB	0ecH, 0d1H, '?', 0dfH, 0beH, 0f9H, 0daH, '?', 0a3H, 0b5H, 0a3H
	DB	0b0H, 0ecH, 0d1H, 0a3H, 0acH, 0ecH, 0bbH, 0eaH, 0f3H, 0a3H, 0b2H
	DB	'?', 0dbH, 0b0H, 0e3H, 0d2H, '?', 0f0H, 0abH, 0cdH, 0eaH, 0caH
	DB	0abH, 00H
	ORG $+14
	ORG $+1
	DW	00H
	DB	00H
	DB	00H
	DB	00H
	DB	0f0H, 0e9H, '?', 0dbH, 0b0H, 0caH, 0abH, 0f0H, 0e9H, '???'
	DB	'?', 0a3H, 0acH, 0ecH, 0e9H, '?', 0e3H, 0c0H, 0a1H, 0aeH, '?', 0d4H
	DB	0e0H, 0dfH, 0e6H, 0f0H, 0edH, '?', 0a1H, 0afH, 0a3H, 0acH, 0d0H
	DB	0ecH, 0f6H, 0a2H, '?', 0eeH, 0dcH, 00H
	ORG $+18
	ORG $+1
	DW	00H
	DB	00H
	DB	00H
	DB	00H
	DB	0efH, 0d2H, '??', 0dcH, 0f4H, 0ceH, 0b7H, '??PK', 0eeH, 0dcH
	DB	0ecH, 0d1H, '?', 0d2H, 0fdH, 0cdH, 0fbH, 0a3H, 0acH, 0ecH, 0a4H
	DB	'?', 0efH, 0d2H, '?', 0faH, 0bcH, 'PK', 0eeH, 0dcH, '???', 0d6H
	DB	0f5H, 00H
	ORG $+19
	ORG $+1
	DW	00H
	DB	00H
	DB	00H
	DB	00H
	DB	'?', 0dfH, 0a9H, 0edH, 0a5H, 0e5H, 0f9H, '??', 0eeH, 0dcH
	DB	0ecH, 0d1H, '?', 0a3H, 0acH, 0d2H, 0fdH, 0edH, 0baH, '??', 0dbH
	DB	0b0H, 0a3H, 0bbH, 0d6H, 0b5H, 0ecH, 0e9H, '??', 0a1H, 0aeH, '?'
	DB	'?', 0f6H, 0e8H, '?', 00H
	ORG $+20
	ORG $+1
	DW	00H
	DB	00H
	DB	00H
	DB	00H
	DB	'?', 0a1H, 0afH, 0a3H, 0acH, 0d0H, 0ecH, '??', 0eeH, 0dcH
	DB	0efH, 0d2H, '??', 0dcH, 0f4H, 0ceH, 0b7H, '??', 0eeH, 0dcH, 0ecH
	DB	0d1H, '?', 0d2H, 0fdH, 0cdH, 0fbH, 0a3H, 0acH, 0ecH, 0a4H, '?', 0efH
	DB	0d2H, '?', 0faH, 0bcH, 00H
	ORG $+19
	ORG $+1
	DW	00H
	DB	00H
	DB	00H
	DB	00H
	DB	'PK', 0eeH, 0dcH, '???', 0d6H, 0f5H, '?', 0dfH, 0a9H, 0f9H
	DB	0acH, 0f6H, 0e8H, '???', 0eeH, 0dcH, 0ecH, 0d1H, '?', 0a3H, 0acH
	DB	0d2H, 0fdH, 0edH, 0baH, '??', 0dbH, 0b0H, 0a1H, 0a3H, 0d4H, 0f5H
	DB	0d3H, 0e2H, 00H
	ORG $+19
	ORG $+1
	DW	00H
	DB	00H
	DB	00H
	DB	00H
	DB	0eeH, 0dcH, '??', 0daH, 0b1H, 0d3H, 0f0H, '?', 0e3H, 0c0H
	DB	0d9H, 0e9H, 0dbH, 0f6H, '?', 0ecH, 0fdH, 'PK??', 0eeH, 0dcH, 0a3H
	DB	0acH, 0f3H, 0aeH, '?', 0caH, 0abH, 0f0H, 0e9H, 0eeH, 0dcH, 0f0H
	DB	0e9H, '?', 0caH, 0a6H, 0ecH, 0a4H, 00H
	ORG $+17
	ORG $+1
	DW	00H
	DB	00H
	DB	00H
	DB	00H
	DB	0d7H, 0d7H, 0e9H, 0c4H, 0caH, 0abH, 0f0H, 0e9H, 0e1H, 0afH
	DB	'??', 0fbH, 0bcH, '?', 0caH, 0abH, 0f0H, 0e9H, 0eeH, 0dcH, 0e0H
	DB	0f7H, '?', 0f3H, 0a2H, 0f9H, 0eaH, 0eeH, 0a4H, 0f6H, 0a9H, '??'
	DB	'?', 0a1H, 0a3H, '?', 0ecH, 0fdH, 'PK', 00H
	ORG $+17
	ORG $+1
	DW	00H
	DB	00H
	DB	00H
	DB	00H
	DB	'?', 0fdH, 0a8H, 0d4H, 0f5H, 0d3H, 0e2H, 0d3H, 0eeH, '???'
	DB	0f2H, 0b8H, '??', 0a3H, 0acH, '?', 0d4H, 0e0H, 0eeH, 0dcH, 0f2H
	DB	0a6H, 0d6H, 0b5H, '?', 0edH, 0bbH, '?', 0f6H, 0e8H, '?', 0a3H, 0acH
	DB	'??', 00H
	ORG $+21
	ORG $+1
	DW	00H
	DB	00H
	DB	00H
	DB	00H
	DB	0eeH, 0dcH, 0e8H, 0ccH, 0caH, 0abH, 0efH, 0c3H, 0d3H, 0f0H
	DB	'PK', 0eeH, 0dcH, 0ecH, 0e9H, '?', 0f6H, 0a6H, '?', 0eeH, 0f7H
	DB	'?PK?', 0d6H, 0f5H, 0a3H, 0acH, 0ecH, 0bbH, 0caH, 0abH, 0f0H, 0e9H
	DB	'PK?', 0d7H, 0d7H, 0eeH, 0dcH, 0ecH, 0e9H, 00H
	ORG $+14
	ORG $+1
	DW	00H
	DB	00H
	DB	00H
	DB	00H
	DB	0dbH, 0b0H, 0caH, 0a6H, '?', 0d4H, 0f0H, '?', 0dbH, 0b0H, 0e4H
	DB	0a8H, 0ddH, 0c2H, 0f1H, 0fdH, 0ecH, 0e9H, 0eeH, 0dcH, 0caH, 0abH
	DB	0f0H, 0e9H, '?', 0d8H, 0d0H, 0a1H, 0a3H, 00H
	ORG $+30
	ORG $+1
	ORG $+4
?help_desc_27@@3PAUDESC@@A DW 00H			; help_desc_27
	DB	00H
	DB	00H
	DB	00H
	DB	0caH, 0abH, 0f0H, 0e9H, '?', 0d8H, 0d0H, '?', 0d3H, 0f0H, 0a3H
	DB	0b1H, 0a3H, 0b0H, 0a3H, 0b0H, 0a3H, 0b0H, 0eeH, 0dcH, 0caH, 0abH
	DB	0f0H, 0e9H, 0f0H, 0e9H, '?', 0caH, 0a6H, 0ecH, 0a4H, 0e3H, 0e9H
	DB	'?', 0deH, 0ccH, 0d3H, 0deH, 0edH, 0e4H, '?', 0a3H, 0acH, 0d0H
	DB	0ecH, 00H
	ORG $+14
	ORG $+1
	DW	00H
	DB	00H
	DB	00H
	DB	00H
	DB	0f6H, 0e2H, '?', 0eaH, 0f3H, '?', 0d4H, 0f0H, 0edH, 0e4H, '?'
	DB	0eeH, 0dcH, 0caH, 0abH, 0f0H, 0e9H, 0f9H, 0b1H, '??', 0caH, 0abH
	DB	0f0H, 0e9H, 0eeH, 0dcH, '?', 0d8H, 0d0H, 0f0H, 0abH, 0e3H, 0aeH
	DB	0d3H, 0f0H, 0f5H, 0b1H, '?', 0deH, 0ccH, 0d3H, 0deH, 00H
	ORG $+16
	ORG $+1
	DW	00H
	DB	00H
	DB	00H
	DB	00H
	DB	0edH, 0e4H, '?', 0caH, 0abH, 0f0H, 0e9H, 0eeH, 0dcH, '?', 0d8H
	DB	0d0H, '?', 0caH, 0a6H, 0ecH, 0a4H, '??', 0eeH, 0dcH, 0dbH, 0b0H
	DB	0e3H, 0d2H, 0d3H, 0fbH, '?', 0edH, 0e4H, '?', 0a1H, 0a3H, 00H
	ORG $+26
	ORG $+1
	DW	00H
	DB	00H
	DB	00H
	DB	00H
	DB	0dfH, 0ccH, 0e9H, 0a9H, 0d3H, 0fbH, '?', 0edH, 0e4H, '?', 0eeH
	DB	0dcH, 0caH, 0abH, 0f0H, 0e9H, 0f0H, 0e9H, '??', 0d3H, 0f0H, 0f0H
	DB	0ebH, '?', 0eeH, 0dcH, '?', 0d8H, 0d0H, 0fdH, 0a8H, 0a3H, 0acH
	DB	0f9H, 0b1H, '?', 0d3H, 0f0H, 0dfH, 0ccH, 0e9H, 0a9H, 00H
	ORG $+16
	ORG $+1
	DW	00H
	DB	00H
	DB	00H
	DB	00H
	DB	0d3H, 0fbH, '?', 0eeH, 0dcH, 0edH, 0e4H, '?', 0cbH, 0dbH, '?'
	DB	'??', 0d4H, 0f4H, '?', 0ecH, 0d1H, 0d4H, 0f4H, '???', 0a3H, 0acH
	DB	0d4H, 0f4H, '?', 0fdH, 0a8H, 0eaH, 0f3H, 0a3H, 0b2H, 0a3H, 0b4H
	DB	'?', 0e1H, 0b3H, 00H
	ORG $+20
	ORG $+1
	DW	00H
	DB	00H
	DB	00H
	DB	00H
	DB	'?', 0edH, 0c2H, 0f1H, 0d7H, '?', 0eeH, 0dcH, '??', 0a1H, 0a3H
	DB	'??', 0efH, 0d2H, 0eeH, 0dcH, '??', 0d3H, 0f0H, 0d6H, 0f5H, 0a3H
	DB	0acH, 0f0H, 0e9H, '?', 0caH, 0a6H, 0ecH, 0a4H, 0d3H, 0f0H, 0caH
	DB	0abH, 0f0H, 0e9H, 0e1H, 0afH, 00H
	ORG $+18
	ORG $+1
	DW	00H
	DB	00H
	DB	00H
	DB	00H
	DB	'??', 0fbH, 0bcH, '?', 0caH, 0abH, 0f0H, 0e9H, 0eeH, 0dcH
	DB	0e0H, 0f7H, '?', 0d3H, 0f0H, 0edH, 0e4H, '??', 0f3H, 0a2H, 0f9H
	DB	0eaH, 0f1H, 0d7H, '?', 0a3H, 0a8H, 0e1H, 0afH, '?', 0f1H, 0feH
	DB	0f9H, 0daH, 0e9H, 0cdH, 0d4H, 0d2H, 0ecH, 0e9H, 00H
	ORG $+17
	ORG $+1
	DW	00H
	DB	00H
	DB	00H
	DB	00H
	DB	'?', 0e0H, 0f8H, 0cfH, 0b9H, 0a3H, 0a9H, 0a1H, 0a3H, '?', 0ecH
	DB	0fdH, 'PK?', 0fdH, 0a8H, 0d4H, 0f5H, 0d3H, 0e2H, 0d3H, 0eeH, '?'
	DB	'??', 0f2H, 0b8H, '??', 0a3H, 0acH, '?', 0d4H, 0e0H, 0eeH, 0dcH
	DB	0f2H, 0a6H, 0d6H, 0b5H, 00H
	ORG $+18
	ORG $+1
	DW	00H
	DB	00H
	DB	00H
	DB	00H
	DB	'?', 0edH, 0bbH, '?', 0f6H, 0e8H, '?', 0a3H, 0acH, '??', 0eeH
	DB	0dcH, 0e8H, 0ccH, 0caH, 0abH, 0efH, 0c3H, 0d3H, 0f0H, 'PK', 0eeH
	DB	0dcH, 0ecH, 0e9H, '?', 0f6H, 0a6H, '?', 0eeH, 0f7H, '?PK?', 0d6H
	DB	0f5H, 0a3H, 0acH, 00H
	ORG $+18
	ORG $+1
	DW	00H
	DB	00H
	DB	00H
	DB	00H
	DB	0ecH, 0bbH, 0caH, 0abH, 0f0H, 0e9H, 'PK?', 0d7H, 0d7H, 0eeH
	DB	0dcH, 0ecH, 0e9H, 0dbH, 0b0H, 0caH, 0a6H, '?', 0d4H, 0f0H, '?', 0dbH
	DB	0b0H, 0e4H, 0a8H, 0ddH, 0c2H, 0f1H, 0fdH, 0ecH, 0e9H, 0eeH, 0dcH
	DB	0caH, 0abH, 0f0H, 0e9H, '?', 0d8H, 0d0H, 0a3H, 0acH, '?', 00H
	ORG $+14
	ORG $+1
	DW	00H
	DB	00H
	DB	00H
	DB	00H
	DB	0f6H, 0a2H, 0d4H, 0f0H, '?', 0edH, 0e4H, '?', 0a1H, 0a3H, 00H
	ORG $+49
	ORG $+1
	ORG $+2
?help_desc_28@@3PAUDESC@@A DW 00H			; help_desc_28
	DB	00H
	DB	00H
	DB	00H
	DB	0e4H, 0ceH, 0f9H, 0bbH, '??', 0dfH, 0beH, 0eeH, 0dcH, 'Pa'
	DB	'ge Up', 0fbH, 0faH, 'Page Down ???', 0d4H, 0e0H, 0d9H, 0bcH, 0e3H
	DB	0d2H, 0a3H, 0baH, 00H
	ORG $+19
	ORG $+1
	DW	00H
	DB	04H
	DB	00H
	DB	00H
	DB	'  ', 0e8H, 0ccH, 0caH, 0abH, 0d9H, 0bcH, 0e3H, 0d2H, 0a3H
	DB	0baH, 00H
	ORG $+47
	ORG $+1
	DW	00H
	DB	00H
	DB	00H
	DB	00H
	DB	'    ', 0ebH, 0a6H, 0e8H, 0ccH, 0caH, 0abH, 0edH, 0bbH, 0d0H
	DB	0f9H, '???', 0d4H, 0e0H, '?', 0e1H, 0b6H, 0e9H, 0a9H, 0f1H, 0aeH
	DB	0eeH, 0dcH, '?', 0edH, 0c2H, 0a1H, 0a3H, 00H
	ORG $+26
	ORG $+1
	DW	00H
	DB	04H
	DB	00H
	DB	00H
	DB	'  AI', 0d9H, 0bcH, 0e3H, 0d2H, 0a3H, 0a8H, 0eaH, 0f3H, 0deH
	DB	0ccH, '?', 0cdH, 0edH, 0d2H, 0f6H, 0eeH, 0dcH, '?', 0efH, 0d2H
	DB	0a3H, 0a9H, 0a3H, 0baH, 00H
	ORG $+31
	ORG $+1
	DW	00H
	DB	00H
	DB	00H
	DB	00H
	DB	'    ?', 0faH, 0ecH, 0a3H, 0baH, '?', 0efH, 0d2H, 0deH, 0c5H
	DB	0e9H, 0c4H, 0f9H, 0bcH, '?', 0efH, 0f1H, '?', 0fbH, 0e4H, 0deH
	DB	0c5H, 0e9H, 0c4H, 0d4H, 0b3H, 0ceH, 0fdH, '??', 0faH, 0ecH, 0a3H
	DB	0acH, '?', 0d2H, 0b1H, 0ceH, 0f9H, 00H
	ORG $+16
	ORG $+1
	DW	00H
	DB	00H
	DB	00H
	DB	00H
	DB	'          ', 0d5H, 0f4H, 0eeH, 0b8H, 0e9H, 0cdH, '??', 0eeH
	DB	0dcH, 0dbH, 0ddH, 0ddH, 0c2H, 0ddH, 0efH, '?', 0f6H, 0a6H, '?', 0edH
	DB	0bbH, '??', 0faH, 0ecH, 0a3H, 0a8H, '?', 0e0H, 0bbH, 0deH, 0c5H
	DB	00H
	ORG $+16
	ORG $+1
	DW	00H
	DB	00H
	DB	00H
	DB	00H
	DB	'          ', 0e9H, 0c4H, 0ebH, 0bfH, '??', 0faH, 0ecH, 0a3H
	DB	0a9H, 0a1H, 0a3H, 00H
	ORG $+37
	ORG $+1
	DW	00H
	DB	00H
	DB	00H
	DB	00H
	DB	'    ??', 0a3H, 0baH, '??', 0eeH, 0b8H, 0e9H, 0cdH, '??', 0eeH
	DB	0dcH, 0dbH, 0ddH, 0ddH, 0c2H, 0ddH, 0efH, '?', 0a3H, 0acH, 0f6H
	DB	0a6H, 0deH, 0c5H, 0e9H, 0c4H, 0e3H, 0f3H, 0dfH, 0beH, 0caH, 0a6H
	DB	0ecH, 0a4H, '?', 00H
	ORG $+17
	ORG $+1
	DW	00H
	DB	00H
	DB	00H
	DB	00H
	DB	'          ?', 0eeH, 0dcH, 0d4H, 0b3H, 0ceH, 0fdH, 0fcH, 0e1H
	DB	'??', 0d5H, 0f4H, 0a1H, 0a3H, 00H
	ORG $+34
	ORG $+1
	DW	00H
	DB	00H
	DB	00H
	DB	00H
	DB	'    ', 0e2H, 0cfH, 0f3H, 0adH, 0a3H, 0baH, '?', 0efH, 0d2H
	DB	'?', 0d4H, 0e0H, 0eeH, 0dcH, 0f0H, 0afH, 0ecH, 0e9H, 0fcH, 0deH
	DB	0f9H, 0eaH, 0e9H, 0a9H, 0deH, 0c5H, 0e9H, 0c4H, 0eeH, 0dcH, 0efH
	DB	0f1H, '?', 0fbH, 0e4H, 0d8H, 0aaH, 0dbH, 0f6H, 0a1H, 0a3H, 00H
	ORG $+14
	ORG $+1
	DW	00H
	DB	00H
	DB	00H
	DB	00H
	DB	'    ?', 0fcH, 0c0H, 0a3H, 0baH, '?', 0efH, 0d2H, 0deH, 0c5H
	DB	0e9H, 0c4H, 0f9H, 0bcH, '?', 0efH, 0f1H, '?', 0fbH, 0e4H, 0deH
	DB	0c5H, 0e9H, 0c4H, 0d4H, 0b3H, 0ceH, 0fdH, '??', 0fcH, 0c0H, 0a1H
	DB	0a3H, 00H
	ORG $+21
	ORG $+1
	DW	00H
	DB	00H
	DB	00H
	DB	00H
	DB	'PS', 0a3H, 0baH, 0d8H, 0dfH, '?AI', 0eeH, 0dcH, '?', 0efH
	DB	0d2H, 0d4H, 0b4H, 0caH, 0a6H, '??', 0deH, 0c5H, 0e9H, 0c4H, '?'
	DB	0dfH, 0daH, 0eeH, 0dcH, '?', 0e0H, 0bbH, '?', 0dfH, 0edH, 0a3H
	DB	0bbH, 0f7H, 0e5H, '?', 0f1H, 0bcH, 00H
	ORG $+17
	ORG $+1
	DW	00H
	DB	00H
	DB	00H
	DB	00H
	DB	'    ', 0ebH, 0f2H, 0a3H, 0acH, '??', 0fbH, 0e4H, '?', 0daH
	DB	0aaH, 0eeH, 0dcH, 0faH, 0ecH, 0eeH, 0b8H, 0e9H, 0cdH, 0e9H, 0a9H
	DB	'?', 0faH, 0ecH, 0eeH, 0dcH, 0f9H, 0bbH, 0f9H, 0daH, 0caH, 0bfH
	DB	0d9H, 0e9H, 0dbH, 0f6H, '?', 0faH, 0ecH, 0a3H, 0acH, 00H
	ORG $+14
	ORG $+1
	DW	00H
	DB	00H
	DB	00H
	DB	00H
	DB	'    ', 0fbH, 0e4H, '?', 0daH, 0aaH, 0deH, 0ddH, 0d8H, 0ccH
	DB	0caH, 0bfH, 0d9H, 0e9H, 0dbH, 0f6H, '?', 0fcH, 0c0H, 0a3H, 0acH
	DB	0f6H, 0a6H, '?', 0edH, 0bbH, '?', 0d4H, 0b1H, '?', 0a1H, 0a3H, 00H
	ORG $+24
	ORG $+1
	ORG $+4
?help_desc_29@@3PAUDESC@@A DW 00H			; help_desc_29
	DB	04H
	DB	00H
	DB	00H
	DB	0e4H, 0dbH, 0e0H, 0b4H, 0d3H, 0d5H, '?', 0a3H, 0baH, 00H
	ORG $+50
	ORG $+1
	DW	00H
	DB	00H
	DB	00H
	DB	00H
	DB	'  ', 0d3H, 0deH, 0f2H, 0a2H, 0efH, 0f1H, '?', 0e4H, 0baH
	DB	'??', 0e2H, 0a3H, '??', 0cdH, 0f4H, '??', 0ecH, 0d1H, 0eeH, 0dcH
	DB	0f2H, 0a2H, '?', 0e0H, 0f5H, 0d8H, 0aaH, 0dbH, 0f6H, 0a1H, 0a3H
	DB	00H
	ORG $+23
	ORG $+1
	DW	00H
	DB	04H
	DB	00H
	DB	00H
	DB	0e2H, 0a9H, 0f1H, 0baH, 0a3H, 0baH, 00H
	ORG $+53
	ORG $+1
	DW	00H
	DB	00H
	DB	00H
	DB	00H
	DB	'  ', 0e2H, 0a9H, 0efH, 0f1H, '?', 0e8H, 0bfH, 0d1H, 0adH
	DB	'?', 0e2H, 0a3H, '??', 0cdH, 0f4H, '??', 0ecH, 0d1H, 0eeH, 0dcH
	DB	0e2H, 0a9H, '?', 0e0H, 0f5H, 0d8H, 0aaH, 0dbH, 0f6H, 0a1H, 0a3H
	DB	00H
	ORG $+24
	ORG $+1
	DW	00H
	DB	04H
	DB	00H
	DB	00H
	DB	0fbH, 0fdH, 0cfH, 0b9H, 0a3H, 0baH, 00H
	ORG $+53
	ORG $+1
	DW	00H
	DB	00H
	DB	00H
	DB	00H
	DB	'  ', 0fbH, 0fdH, 0e6H, 0faH, 0efH, 0f1H, '????', 0e2H, 0a3H
	DB	'??', 0cdH, 0f4H, '??', 0ecH, 0d1H, 0eeH, 0dcH, 0fbH, 0fdH, '?'
	DB	0e0H, 0f5H, 0d8H, 0aaH, 0dbH, 0f6H, 0a1H, 0a3H, 00H
	ORG $+24
	ORG $+1
	DW	00H
	DB	04H
	DB	00H
	DB	00H
	DB	'?', 0ecH, 0d3H, 0a3H, 0baH, 00H
	ORG $+54
	ORG $+1
	DW	00H
	DB	00H
	DB	00H
	DB	00H
	DB	'  ', 0f2H, 0f0H, '?', 0efH, 0f1H, '?', 0eaH, 0ceH, 0ebH, 0daH
	DB	0d3H, 0ecH, 0e2H, 0a3H, '??', 0cdH, 0f4H, '??', 0ecH, 0d1H, 0eeH
	DB	0dcH, '??', 0e0H, 0f5H, 0d8H, 0aaH, 0dbH, 0f6H, 0a1H, 0a3H, 00H
	ORG $+23
	ORG $+1
?help_desc_30@@3PAUDESC@@A DW 00H			; help_desc_30
	DB	04H
	DB	00H
	DB	00H
	DB	0efH, 0f1H, '?', 0eeH, 0dcH, 0e1H, 0afH, '??', 0d9H, 0a5H
	DB	00H
	ORG $+48
	ORG $+1
	DW	00H
	DB	00H
	DB	00H
	DB	00H
	DB	'1.?', 0efH, 0f1H, '?', 0e1H, 0afH, '??', 0eeH, 0dcH, '?', 0fdH
	DB	0a6H, 0a3H, 0acH, 0cdH, 0a3H, 0d8H, 0fcH, 0dfH, 0beH, 0eeH, 0dcH
	DB	'CALL?', 0fbH, 0a1H, '???', 0a3H, 0acH, 0e8H, 0ccH, 0caH, 0abH
	DB	00H
	ORG $+18
	ORG $+1
	DW	00H
	DB	00H
	DB	00H
	DB	00H
	DB	'  ', 0f9H, 0b1H, '?', 0efH, 0c3H, '?', 0efH, 0f1H, '?', 0eeH
	DB	0dcH, 0e1H, 0afH, '??', 0fbH, 0a1H, 0a3H, 0acH, 0f6H, 0a6H, 0caH
	DB	0a6H, 0ecH, 0a4H, 0efH, 0c8H, 0e1H, 0f4H, 0efH, 0f1H, '?', 0eeH
	DB	0dcH, 0e1H, 0afH, '?', 0a1H, 0a3H, 00H
	ORG $+18
	ORG $+1
	DW	00H
	DB	00H
	DB	00H
	DB	00H
	DB	'2.', 0efH, 0f1H, '?', 0eeH, 0dcH, 0e1H, 0afH, '?', 0e7H, 0e9H
	DB	0ddH, 0c2H, '??', 0e5H, 0b4H, 0d9H, 0e9H, 0ecH, 0f2H, 0f9H, 0bcH
	DB	0fcH, 0deH, '?', 0a3H, 0acH, '?', 0edH, 0bbH, '???', 0efH, 0f1H
	DB	'?', 0eeH, 0dcH, 00H
	ORG $+19
	ORG $+1
	DW	00H
	DB	00H
	DB	00H
	DB	00H
	DB	'  ', 0e1H, 0afH, '?', 0a1H, 0a3H, 00H
	ORG $+52
	ORG $+1
	DW	00H
	DB	00H
	DB	00H
	DB	00H
	DB	'3.?', 0efH, 0c8H, 0e1H, 0f4H, 0efH, 0f1H, '?', 0eeH, 0dcH
	DB	0e1H, 0afH, '?', 0e9H, 0b8H, 0edH, 0baH, 0f9H, 0b1H, '?', 0e9H
	DB	0cdH, '?', 0f4H, 0b8H, '?', 0e8H, 0c7H, 0e0H, 0f7H, 0ecH, 0f2H
	DB	'?', 0a3H, 0acH, 0dcH, 0faH, '?', 0ecH, 0f2H, 00H
	ORG $+17
	ORG $+1
	DW	00H
	DB	00H
	DB	00H
	DB	00H
	DB	'  ???', 0e1H, 0d6H, 0a3H, 0acH, 0e3H, 0e1H, 0daH, 0aaH, 0cdH
	DB	0edH, 0d2H, 0f6H, 0e3H, 0f7H, 0fcH, 0f9H, 0edH, 0bbH, '?', 0e1H
	DB	0bcH, 0e3H, 0f7H, 0a1H, 0a3H, 00H
	ORG $+29
	ORG $+1
	DW	00H
	DB	00H
	DB	00H
	DB	00H
	DB	'4.?', 0efH, 0f1H, '?', 0e9H, 0b8H, 0edH, 0baH, 0e8H, 0c7H
	DB	0e0H, 0f7H, 0ecH, 0f2H, '?', 0fdH, 0a8H, 0a3H, 0acH, 0e9H, 0b8H
	DB	0edH, 0baH, '?', 0deH, 0c5H, 0edH, 0baH, 0caH, 0a6H, 0ecH, 0a4H
	DB	'?', 0f3H, 0b7H, 0e3H, 0e1H, 0daH, 0aaH, 0eeH, 0f1H, 0e8H, 0d9H
	DB	00H
	ORG $+14
	ORG $+1
	DW	00H
	DB	00H
	DB	00H
	DB	00H
	DB	'  ?', 0f6H, 0a2H, '?', 0f9H, 0a1H, 0a1H, 0a3H, 00H
	ORG $+49
	ORG $+1
	DW	00H
	DB	00H
	DB	00H
	DB	00H
	DB	'5.', 0e3H, 0e1H, 0daH, 0aaH, '?', 0e3H, 0f7H, '?', 0d9H, 0e9H
	DB	0dbH, 0f6H, '?', 0faH, 0bcH, 0ecH, 0f2H, '?', 0a3H, 0acH, '?', 0e3H
	DB	0f7H, 0f3H, 0aeH, 0f3H, 0adH, 0efH, 0f1H, '?', 0eeH, 0dcH, 0e1H
	DB	0afH, '?', 0cfH, 0f5H, '?', 0a3H, 0acH, 00H
	ORG $+17
	ORG $+1
	DW	00H
	DB	00H
	DB	00H
	DB	00H
	DB	'  ?', 0f6H, 0e6H, 0caH, 0a5H, 0dcH, 0c1H, 0ceH, 0b7H, 0e3H
	DB	0e1H, 0daH, 0aaH, 0a1H, 0a3H, 00H
	ORG $+42
	ORG $+1
	DW	00H
	DB	04H
	DB	00H
	DB	00H
	DB	0efH, 0f1H, '?', 0eeH, 0dcH, 0e1H, 0afH, '?', 0d4H, 0b3H, 0ceH
	DB	0fdH, '?', 0d9H, 0a5H, 00H
	ORG $+44
	ORG $+1
	DW	00H
	DB	00H
	DB	00H
	DB	00H
	DB	'1.', 0efH, 0f1H, '?', 0deH, 0c5H, 0edH, 0baH, '??', 0deH
	DB	0c5H, 0edH, 0baH, 0e3H, 0e1H, 0daH, 0aaH, 0fdH, 0a8H, 0dcH, 0f4H
	DB	0e9H, 0e7H, '?', 0a1H, 0a3H, 00H
	ORG $+31
	ORG $+1
	DW	00H
	DB	00H
	DB	00H
	DB	00H
	DB	'2.', 0efH, 0f1H, '?', 0deH, 0c5H, 0edH, 0baH, '??', 0e9H
	DB	0b8H, 0edH, 0baH, 0e3H, 0e1H, 0daH, 0aaH, 0caH, 0a6H, '?', 0e1H
	DB	0eaH, 0f2H, 0b8H, 0e9H, 0b8H, 0edH, 0baH, 0e3H, 0f3H, '?', 0a1H
	DB	0a3H, 00H
	ORG $+24
	ORG $+1
	DW	00H
	DB	00H
	DB	00H
	DB	00H
	DB	'3.', 0efH, 0f1H, '?', 0e9H, 0b8H, 0edH, 0baH, '??', 0e9H
	DB	0b8H, 0edH, 0baH, 0e3H, 0e1H, 0daH, 0aaH, 0fdH, 0a8H, 0caH, 0a6H
	DB	'??', 0ecH, 0f2H, '??', 0e9H, 0bbH, 0a1H, 0a3H, 00H
	ORG $+26
	ORG $+1
	ORG $+2
?help_desc_31@@3PAUDESC@@A DW 00H			; help_desc_31
	DB	00H
	DB	00H
	DB	00H
	DB	'1.??', 0d8H, 0fcH, '?', 0d0H, 0ecH, 0f6H, 0e2H, 0e8H, 0ccH
	DB	0caH, 0abH, '?', 0a3H, 0acH, 0e4H, 0ceH, 0f9H, 0bbH, '??', 0e4H
	DB	0ceH, '?', 0a3H, 0acH, '????', 0e3H, 0c0H, 0dcH, 0faH, '?', 00H
	ORG $+21
	ORG $+1
	DW	00H
	DB	00H
	DB	00H
	DB	00H
	DB	'  ', 0efH, 0d2H, '?', 0dbH, 0b0H, '??', 0eeH, 0dcH, '??', 0a1H
	DB	0a3H, 00H
	ORG $+44
	ORG $+1
	DW	00H
	DB	00H
	DB	00H
	DB	00H
	DB	'2.??', 0dbH, 0b0H, 0e0H, 0f7H, '??', 0eeH, 0dcH, '??', 0f1H
	DB	0fdH, 0fdH, 0a8H, 0a3H, 0acH, '???', 0d4H, 0f0H, '?', 0d8H, 0d0H
	DB	'?', 0a3H, 0acH, '?', 0eeH, 0dcH, '??', 00H
	ORG $+23
	ORG $+1
	DW	00H
	DB	00H
	DB	00H
	DB	00H
	DB	'  ??', 0d4H, 0f0H, 0d3H, 0f0H, '?', 0e1H, 0b6H, '?', 0d4H
	DB	0f0H, 0eeH, 0dcH, '?', 0d8H, 0d0H, 0dbH, 0ddH, 0ddH, 0c2H, 0f1H
	DB	0fdH, 0e7H, 0e9H, 0a3H, 0acH, 0d3H, 0a3H, '?', 0eeH, 0dcH, '?', 0d8H
	DB	0d0H, '?', 0dcH, 0f4H, '?', 00H
	ORG $+18
	ORG $+1
	DW	00H
	DB	00H
	DB	00H
	DB	00H
	DB	'  ', 0ecH, 0d7H, 0f3H, 0aeH, '?', 0e1H, 0b4H, 0a1H, 0a3H
	DB	00H
	ORG $+48
	ORG $+1
	DW	00H
	DB	00H
	DB	00H
	DB	00H
	DB	'3.???', 0d4H, 0f0H, '?', 0d8H, 0d0H, 0eeH, 0dcH, '?', 0cbH
	DB	0ecH, '?', 0f9H, 0b1H, '?', 0eeH, 0a4H, '?', 0dfH, 0e6H, 0f6H, 0a2H
	DB	0d4H, 0f0H, '?', 0d8H, 0d0H, 0eeH, 0dcH, 0d4H, 0d2H, '???', 00H
	ORG $+21
	ORG $+1
	DW	00H
	DB	00H
	DB	00H
	DB	00H
	DB	'  ', 0dfH, 0e6H, 0eeH, 0a4H, 0d4H, 0d2H, 0ecH, 0e9H, 0e0H
	DB	0f8H, 0cfH, 0b9H, 0dfH, 0beH, 0a1H, 0a3H, 00H
	ORG $+41
	ORG $+1
	DW	00H
	DB	00H
	DB	00H
	DB	00H
	DB	'4.', 0e5H, 0b4H, '??', 0dcH, 0f4H, 0eeH, 0a4H, '?', 0fbH
	DB	0e4H, '??', 0dfH, 0e6H, 0ecH, 0abH, 0f6H, 0a2H, 0d4H, 0f0H, '?'
	DB	0d8H, 0d0H, 0fdH, 0a8H, 0eeH, 0a6H, 0dfH, 0beH, '?', 0a3H, 0acH
	DB	'????', 00H
	ORG $+20
	ORG $+1
	DW	00H
	DB	00H
	DB	00H
	DB	00H
	DB	'  ', 0dcH, 0f4H, '?', 0f1H, 0f2H, 0caH, 0a5H, '?', 0d8H, 0d0H
	DB	0a1H, 0a3H, 00H
	ORG $+45
	ORG $+1
	DW	00H
	DB	00H
	DB	00H
	DB	00H
	DB	'5.??', 0eaH, 0f3H, '??', 0fdH, 0a8H, 0a3H, 0acH, 0e4H, 0ceH
	DB	0f3H, 0aeH, 0e4H, 0ceH, '???', 0f5H, 0f3H, '?????', 0a3H, 0acH
	DB	'?', 0f3H, 0a6H, 0caH, 0a6H, 0ecH, 0a4H, 00H
	ORG $+22
	ORG $+1
	DW	00H
	DB	00H
	DB	00H
	DB	00H
	DB	'  ', 0eeH, 0a4H, 0f3H, 0aeH, '???', 0dbH, 0b0H, 0eeH, 0dcH
	DB	'???', 0ccH, 0abH, 0a1H, 0a3H, 00H
	ORG $+39
	ORG $+1
	DW	00H
	DB	00H
	DB	00H
	DB	00H
	DB	'6.???', 0dbH, 0b0H, 0eeH, 0dcH, '???', 0ccH, 0abH, '?', 0a3H
	DB	0acH, 0d4H, 0d2H, '?', 0e5H, 0a5H, '??', 0e1H, 0b4H, 0edH, 0bbH
	DB	0d0H, 0f9H, 0eeH, 0dcH, 0d8H, 0e5H, 0d5H, 0f4H, '?', 0a1H, 0a3H
	DB	00H
	ORG $+20
	ORG $+1
?help_desc_32@@3PAUDESC@@A DW 00H			; help_desc_32
	DB	04H
	DB	00H
	DB	00H
	DB	' ', 0a1H, 0a1H, 0a1H, 0a1H, '                ', 0c4H, 0f9H
	DB	0bdH, 0baH, 0c6H, 0aeH, ' ', 0c0H, 0ccH, 0b8H, 0a7H, '        '
	DB	'               ', 0c7H, 0f6H, 0c8H, 0b2H, 00H
	ORG $+1
	DW	00H
	DB	00H
	DB	00H
	DB	00H
	DB	'jobdaily', 00H
	ORG $+51
	ORG $+1
	DW	00H
	DB	00H
	DB	00H
	DB	00H
	DB	'jobdaily', 00H
	ORG $+51
	ORG $+1
	DW	00H
	DB	00H
	DB	00H
	DB	00H
	DB	'jobdaily', 00H
	ORG $+51
	ORG $+1
	DW	00H
	DB	00H
	DB	00H
	DB	00H
	DB	'jobdaily', 00H
	ORG $+51
	ORG $+1
	DW	00H
	DB	00H
	DB	00H
	DB	00H
	DB	'jobdaily', 00H
	ORG $+51
	ORG $+1
	DW	00H
	DB	00H
	DB	00H
	DB	00H
	DB	'jobdaily', 00H
	ORG $+51
	ORG $+1
	DW	00H
	DB	00H
	DB	00H
	DB	00H
	DB	'jobdaily', 00H
	ORG $+51
	ORG $+1
	DW	00H
	DB	00H
	DB	00H
	DB	00H
	DB	'jobdaily', 00H
	ORG $+51
	ORG $+1
	DW	00H
	DB	00H
	DB	00H
	DB	00H
	DB	'jobdaily', 00H
	ORG $+51
	ORG $+1
	DW	00H
	DB	00H
	DB	00H
	DB	00H
	DB	'jobdaily', 00H
	ORG $+51
	ORG $+1
	ORG $+2
?help_index@@3PAPAUDESC@@A DD FLAT:?help_desc_1@@3PAUDESC@@A ; help_index
	DD	FLAT:?help_desc_2@@3PAUDESC@@A
	DD	FLAT:?help_desc_3@@3PAUDESC@@A
	DD	FLAT:?help_desc_4@@3PAUDESC@@A
	DD	FLAT:?help_desc_5@@3PAUDESC@@A
	DD	FLAT:?help_desc_6@@3PAUDESC@@A
	DD	FLAT:?help_desc_7@@3PAUDESC@@A
	DD	FLAT:?help_desc_8@@3PAUDESC@@A
	DD	FLAT:?help_desc_9@@3PAUDESC@@A
	DD	FLAT:?help_desc_10@@3PAUDESC@@A
	DD	FLAT:?help_desc_11@@3PAUDESC@@A
	DD	FLAT:?help_desc_12@@3PAUDESC@@A
	DD	FLAT:?help_desc_13@@3PAUDESC@@A
	DD	FLAT:?help_desc_14@@3PAUDESC@@A
	DD	FLAT:?help_desc_15@@3PAUDESC@@A
	DD	FLAT:?help_desc_16@@3PAUDESC@@A
	DD	FLAT:?help_desc_17@@3PAUDESC@@A
	DD	FLAT:?help_desc_18@@3PAUDESC@@A
	DD	FLAT:?help_desc_19@@3PAUDESC@@A
	DD	FLAT:?help_desc_20@@3PAUDESC@@A
	DD	FLAT:?help_desc_21@@3PAUDESC@@A
	DD	FLAT:?help_desc_22@@3PAUDESC@@A
	DD	FLAT:?help_desc_23@@3PAUDESC@@A
	DD	FLAT:?help_desc_24@@3PAUDESC@@A
	DD	FLAT:?help_desc_25@@3PAUDESC@@A
	DD	FLAT:?help_desc_26@@3PAUDESC@@A
	DD	FLAT:?help_desc_27@@3PAUDESC@@A
	DD	FLAT:?help_desc_28@@3PAUDESC@@A
	DD	FLAT:?help_desc_29@@3PAUDESC@@A
	DD	FLAT:?help_desc_30@@3PAUDESC@@A
	DD	FLAT:?help_desc_31@@3PAUDESC@@A
	DD	FLAT:?help_desc_32@@3PAUDESC@@A
?help_page@@3PAUPAGE@@A DW 00H				; help_page
	DB	0bH
	DB	00H
	DW	00H
	DB	0bH
	DB	00H
	DW	0bH
	DB	07H
	DB	00H
	DW	00H
	DB	03H
	DB	00H
	DW	00H
	DB	0bH
	DB	00H
	DW	0bH
	DB	0bH
	DB	00H
	DW	016H
	DB	04H
	DB	00H
	DW	00H
	DB	02H
	DB	00H
	DW	00H
	DB	05H
	DB	00H
	DW	00H
	DB	05H
	DB	00H
	DW	00H
	DB	05H
	DB	00H
	DW	00H
	DB	0bH
	DB	00H
	DW	0bH
	DB	0bH
	DB	00H
	DW	016H
	DB	0bH
	DB	00H
	DW	021H
	DB	0bH
	DB	00H
	DW	02cH
	DB	0bH
	DB	00H
	DW	00H
	DB	07H
	DB	00H
	DW	00H
	DB	0bH
	DB	00H
	DW	0bH
	DB	0bH
	DB	00H
	DW	016H
	DB	04H
	DB	00H
	DW	00H
	DB	0bH
	DB	00H
	DW	0bH
	DB	0bH
	DB	00H
	DW	016H
	DB	0bH
	DB	00H
	DW	021H
	DB	02H
	DB	00H
	DW	00H
	DB	0bH
	DB	00H
	DW	0bH
	DB	0bH
	DB	00H
	DW	016H
	DB	06H
	DB	00H
	DW	00H
	DB	06H
	DB	00H
	DW	00H
	DB	0bH
	DB	00H
	DW	0bH
	DB	03H
	DB	00H
	DW	00H
	DB	0bH
	DB	00H
	DW	0bH
	DB	0bH
	DB	00H
	DW	00H
	DB	0bH
	DB	00H
	DW	00H
	DB	0bH
	DB	00H
	DW	0bH
	DB	02H
	DB	00H
	DW	00H
	DB	0bH
	DB	00H
	DW	00H
	DB	08H
	DB	00H
	DW	00H
	DB	0bH
	DB	00H
	DW	0bH
	DB	02H
	DB	00H
	DW	00H
	DB	0bH
	DB	00H
	DW	0bH
	DB	01H
	DB	00H
	DW	00H
	DB	0bH
	DB	00H
	DW	0bH
	DB	03H
	DB	00H
	DW	00H
	DB	0bH
	DB	00H
	DW	0bH
	DB	0bH
	DB	00H
	DW	016H
	DB	09H
	DB	00H
	DW	00H
	DB	08H
	DB	00H
	DW	00H
	DB	0bH
	DB	00H
	DW	0bH
	DB	03H
	DB	00H
	DW	00H
	DB	0bH
	DB	00H
	DW	00H
	DB	0bH
	DB	00H
	DW	0bH
	DB	03H
	DB	00H
	DW	00H
	DB	08H
	DB	00H
	DW	00H
	DB	0bH
	DB	00H
	DW	0bH
	DB	04H
	DB	00H
	DW	00H
	DB	0bH
	DB	00H
	DW	0bH
	DB	01H
	DB	00H
	DW	00H
	DB	0bH
	DB	00H
	DW	00H
	DB	0bH
	DB	00H
	DW	00H
	DB	0bH
	DB	00H
	DW	00H
	DB	0bH
	DB	00H
	DW	00H
	DB	0bH
	DB	00H
	DW	00H
	DB	0bH
	DB	00H
	DW	00H
	DB	0bH
	DB	00H
	DW	00H
	DB	0bH
	DB	00H
	DW	00H
	DB	0bH
	DB	00H
	DW	00H
	DB	0bH
	DB	00H
	DW	00H
	DB	0bH
	DB	00H
	DW	00H
	DB	0bH
	DB	00H
	DW	00H
	DB	0bH
	DB	00H
	DW	00H
	DB	0bH
	DB	00H
	DW	00H
	DB	0bH
	DB	00H
	DW	00H
	DB	0bH
	DB	00H
	DW	00H
	DB	0bH
	DB	00H
	DW	00H
	DB	0bH
	DB	00H
	DW	00H
	DB	0bH
	DB	00H
	DW	00H
	DB	0bH
	DB	00H
	ORG $+4
?help_seg@@3PAUSEG@@A DW 00H				; help_seg
	DB	01H
	DB	0c4H, 0f9H, 0bdH, 0baH, 0c6H, 0aeH, ' ', 0c1H, 0a4H, 0baH
	DB	0b8H, 00H
	ORG $+17
	DW	01H
	DB	02H
	DB	0c4H, 0b3H, 0b8H, 0afH, 0c5H, 0cdH, ' ', 0beH, 0d7H, 0bcH
	DB	0c7H, ' ', 0beH, 0c8H, 0b3H, 0bbH, 00H
	ORG $+12
	DW	03H
	DB	01H
	DB	0c0H, 0ceH, 0c5H, 0cdH, 0c6H, 0e4H, 0c0H, 0ccH, 0bdH, 0baH
	DB	' ', 0beH, 0c8H, 0b3H, 0bbH, 00H
	ORG $+13
	DW	04H
	DB	03H
	DB	0c0H, 0fcH, 0c5H, 0f5H, ' ', 0c4H, 0bfH, 0b8H, 0c7H, 0b5H
	DB	0e5H, ' ', 0beH, 0c8H, 0b3H, 0bbH, 00H
	ORG $+12
	DW	07H
	DB	01H
	DB	'?', 0e9H, 0cdH, 0d4H, 0b3H, 0ceH, 0fdH, '?', 0daH, 0aaH, 00H
	ORG $+18
	DW	08H
	DB	01H
	DB	'?', 0e9H, 0cdH, '?', 0d4H, 0e0H, 00H
	ORG $+22
	DW	09H
	DB	01H
	DB	'?', 0e9H, 0cdH, 0caH, 0abH, 0f0H, 0e9H, 00H
	ORG $+21
	DW	0aH
	DB	01H
	DB	'?', 0e9H, 0cdH, 0efH, 0f1H, '?', 00H
	ORG $+22
	DW	0bH
	DB	05H
	DB	0d0H, 0ecH, 0f6H, 0e2H, 00H
	ORG $+24
	DW	010H
	DB	01H
	DB	'?', 0e9H, 0cdH, 0eaH, 0fdH, '?', 0d0H, 0f1H, 0dcH, 0e2H, 0f0H
	DB	0c3H, 0edH, 0c2H, 00H
	ORG $+14
	DW	011H
	DB	03H
	DB	'?', 0e9H, 0cdH, 0cdH, 0edH, 0d2H, 0f6H, '???', 0a3H, 0a8H
	DB	0f9H, 0bbH, 0dbH, 0b0H, '??', 0d6H, 0aaH, 0a3H, 0a9H, 00H
	ORG $+6
	DW	014H
	DB	04H
	DB	'?', 0e9H, 0cdH, 0eaH, 0fdH, '??', 0efH, 0d2H, 00H
	ORG $+19
	DW	018H
	DB	03H
	DB	0daH, 0aaH, 0f9H, 0a1H, 00H
	ORG $+24
	DW	01bH
	DB	01H
	DB	'?', 0daH, 0aaH, 00H
	ORG $+25
	DW	01cH
	DB	02H
	DB	0ceH, 0c3H, 0d9H, 0a5H, 0efH, 0f1H, '?', 00H
	ORG $+21
	DW	01eH
	DB	02H
	DB	0fdH, 0d9H, 0e4H, 0deH, 0efH, 0f1H, '?', 00H
	ORG $+21
	DW	020H
	DB	01H
	DB	'?', 0e0H, 0f5H, 0efH, 0f1H, '?', 00H
	ORG $+22
	DW	021H
	DB	02H
	DB	0f7H, 0e5H, 0e2H, 0a8H, 0efH, 0f1H, '?', 00H
	ORG $+21
	DW	023H
	DB	01H
	DB	0e0H, 0f7H, 0d8H, 0a1H, '?', 0faH, 0b0H, 0dfH, 0a4H, 00H
	ORG $+19
	DW	024H
	DB	01H
	DB	0caH, 0a5H, 0ecH, 0fdH, 0d0H, 0e0H, 0f7H, 0dcH, 0f5H, 0f3H
	DB	0caH, 0abH, 0f0H, 0e9H, 00H
	ORG $+14
	DW	025H
	DB	02H
	DB	0caH, 0abH, 0f0H, 0e9H, 0d7H, 0baH, 0e5H, 0ebH, 0f7H, 0faH
	DB	00H
	ORG $+18
	DW	027H
	DB	02H
	DB	0f0H, 0e9H, '?', 0cdH, 0edH, 0d2H, 0f6H, 00H
	ORG $+21
	DW	029H
	DB	02H
	DB	0edH, 0e4H, '?', 0f7H, 0e5H, 0e2H, 0a8H, 0cdH, 0edH, 0d2H
	DB	0f6H, 00H
	ORG $+17
	DW	02bH
	DB	03H
	DB	0ecH, 0e9H, 0daH, 0f5H, '?', 0d4H, 0e0H, 00H
	ORG $+21
	DW	02eH
	DB	01H
	DB	0ecH, 0e9H, 0daH, 0f5H, 'PK', 00H
	ORG $+22
	DW	02fH
	DB	02H
	DB	0caH, 0abH, 0f0H, 0e9H, 'PK', 00H
	ORG $+22
	DW	031H
	DB	01H
	DB	0edH, 0e4H, '????', 00H
	ORG $+22
	DW	032H
	DB	02H
	DB	'?', 0e9H, 0cdH, 0edH, 0bbH, '??', 0d4H, 0e0H, '?', 0efH, 0d2H
	DB	00H
	ORG $+16
	DW	034H
	DB	01H
	DB	0d8H, 0aaH, 0dbH, 0f6H, 0efH, 0f1H, '?', 00H
	ORG $+21
	DW	035H
	DB	02H
	DB	0efH, 0f1H, '?', 0eeH, 0dcH, 0e1H, 0afH, '?', 00H
	ORG $+20
	DW	037H
	DB	02H
	DB	'??', 0cdH, 0a7H, '?', 00H
	ORG $+23
	DW	039H
	DB	014H
	DB	0c4H, 0f9H, 0bdH, 0baH, 0c6H, 0aeH, ' ', 0b8H, 0f1H, 0b7H
	DB	0cfH, 00H
	ORG $+17
?HelpMsg@@3PAY0CA@DA DB 0c0H, 0ccH, 0c0H, 0fcH, ' ', 0b4H, 0dcH, 0b0H, 0e8H
	DB	0b7H, 0ceH, ' ', 0c0H, 0ccH, 0b5H, 0bfH, 0c7H, 0d5H, 0b4H, 0cfH
	DB	0b4H, 0d9H, '.', 00H				; HelpMsg
	ORG $+8
	DB	0c0H, 0ccH, 0c0H, 0fcH, ' ', 0c6H, 0e4H, 0c0H, 0ccH, 0c1H
	DB	0f6H, 0b7H, 0ceH, ' ', 0c0H, 0ccH, 0b5H, 0bfH, 0c7H, 0d5H, 0b4H
	DB	0cfH, 0b4H, 0d9H, '.', 00H
	ORG $+6
	DB	0b4H, 0d9H, 0c0H, 0bdH, ' ', 0c6H, 0e4H, 0c0H, 0ccH, 0c1H
	DB	0f6H, 0b7H, 0ceH, ' ', 0c0H, 0ccH, 0b5H, 0bfH, 0c7H, 0d5H, 0b4H
	DB	0cfH, 0b4H, 0d9H, '.', 00H
	ORG $+6
	DB	0c4H, 0f9H, 0bdH, 0baH, 0c6H, 0aeH, ' ', 0c1H, 0a4H, 0baH
	DB	0b8H, ' ', 0bfH, 0adH, 0b6H, 0f7H, 0c0H, 0bbH, ' ', 0c3H, 0ebH
	DB	0bcH, 0d2H, 0c7H, 0d5H, 0b4H, 0cfH, 0b4H, 0d9H, '.', 00H
	ORG $+1
_DATA	ENDS
PUBLIC	___local_stdio_printf_options
PUBLIC	??$__vcrt_va_start_verify_argument_type@QBD@@YAXXZ ; __vcrt_va_start_verify_argument_type<char const * const>
PUBLIC	__vsnprintf_l
PUBLIC	__vsprintf_l
PUBLIC	_sprintf
PUBLIC	?HelpProc@@YAHXZ				; HelpProc
PUBLIC	?_OptionsStorage@?1??__local_stdio_printf_options@@9@4_KA ; `__local_stdio_printf_options'::`2'::_OptionsStorage
PUBLIC	??_C@_06JHHLEACK@dyedye?$AA@			; `string'
PUBLIC	??_C@_08LHAFEHD@jobdaily?$AA@			; `string'
PUBLIC	??_C@_0BA@HOICKKFF@Page?$KD?$LK?$CF02d?1?$CF02d?$AA@ ; `string'
PUBLIC	??_C@_02DPKJAMEF@?$CFd?$AA@			; `string'
EXTRN	___report_rangecheckfailure:PROC
EXTRN	?TimeGetTime@@YAIXZ:PROC			; TimeGetTime
EXTRN	_strcmp:PROC
EXTRN	_strcpy:PROC
EXTRN	__imp__atoi:PROC
EXTRN	__imp____stdio_common_vsprintf:PROC
EXTRN	?DeathAction@@YAXPAUaction@@@Z:PROC		; DeathAction
EXTRN	?StockDispBuffer@@YAHHHEHH@Z:PROC		; StockDispBuffer
EXTRN	?StockFontBuffer@@YAHHHDHPADH@Z:PROC		; StockFontBuffer
EXTRN	?selGraId@@YAHPAHH@Z:PROC			; selGraId
EXTRN	?selFontId@@YAHPAHH@Z:PROC			; selFontId
EXTRN	?focusGraId@@YAHPAHH@Z:PROC			; focusGraId
EXTRN	?CheckMenuFlag@@YAHXZ:PROC			; CheckMenuFlag
EXTRN	?MakeWindowDisp@@YAPAUaction@@HHHHHH@Z:PROC	; MakeWindowDisp
EXTRN	?GetImeString@@YAPADXZ:PROC			; GetImeString
EXTRN	?ShowBottomLineString@@YAXHPAD@Z:PROC		; ShowBottomLineString
EXTRN	?play_se@@YAHHHH@Z:PROC				; play_se
EXTRN	?lssproto_JOBDAILY_send@@YAXHPAD@Z:PROC		; lssproto_JOBDAILY_send
EXTRN	@_RTC_CheckStackVars@8:PROC
EXTRN	@__security_check_cookie@4:PROC
EXTRN	__RTC_CheckEsp:PROC
EXTRN	__RTC_InitBase:PROC
EXTRN	__RTC_Shutdown:PROC
EXTRN	?DISPLACEMENT_X@@3HA:DWORD			; DISPLACEMENT_X
EXTRN	?DISPLACEMENT_Y@@3HA:DWORD			; DISPLACEMENT_Y
EXTRN	?joy_trg@@3PAKA:QWORD				; joy_trg
EXTRN	?CG_FIELD_HELP_WND@@3HA:DWORD			; CG_FIELD_HELP_WND
EXTRN	?sockfd@@3IA:DWORD				; sockfd
EXTRN	?jobdaily@@3PAUJOBDAILY@@A:BYTE			; jobdaily
EXTRN	___security_cookie:DWORD
;	COMDAT ?_OptionsStorage@?1??__local_stdio_printf_options@@9@4_KA
_BSS	SEGMENT
?_OptionsStorage@?1??__local_stdio_printf_options@@9@4_KA DQ 01H DUP (?) ; `__local_stdio_printf_options'::`2'::_OptionsStorage
_BSS	ENDS
_BSS	SEGMENT
?btnId@?1??HelpProc@@YAHXZ@4PAHA DD 010H DUP (?)	; `HelpProc'::`2'::btnId
?seg_history@?1??HelpProc@@YAHXZ@4PAEA DB 010H DUP (?)	; `HelpProc'::`2'::seg_history
?btnState@?1??HelpProc@@YAHXZ@4PAHA DD 04H DUP (?)	; `HelpProc'::`2'::btnState
?dwPressTime@?1??HelpProc@@YAHXZ@4KA DD 01H DUP (?)	; `HelpProc'::`2'::dwPressTime
_BSS	ENDS
;	COMDAT rtc$TMZ
rtc$TMZ	SEGMENT
__RTC_Shutdown.rtc$TMZ DD FLAT:__RTC_Shutdown
rtc$TMZ	ENDS
;	COMDAT rtc$IMZ
rtc$IMZ	SEGMENT
__RTC_InitBase.rtc$IMZ DD FLAT:__RTC_InitBase
rtc$IMZ	ENDS
;	COMDAT ??_C@_02DPKJAMEF@?$CFd?$AA@
CONST	SEGMENT
??_C@_02DPKJAMEF@?$CFd?$AA@ DB '%d', 00H		; `string'
CONST	ENDS
;	COMDAT ??_C@_0BA@HOICKKFF@Page?$KD?$LK?$CF02d?1?$CF02d?$AA@
CONST	SEGMENT
??_C@_0BA@HOICKKFF@Page?$KD?$LK?$CF02d?1?$CF02d?$AA@ DB 'Page', 0a3H, 0baH
	DB	'%02d/%02d', 00H				; `string'
CONST	ENDS
;	COMDAT ??_C@_08LHAFEHD@jobdaily?$AA@
CONST	SEGMENT
??_C@_08LHAFEHD@jobdaily?$AA@ DB 'jobdaily', 00H	; `string'
CONST	ENDS
;	COMDAT ??_C@_06JHHLEACK@dyedye?$AA@
CONST	SEGMENT
??_C@_06JHHLEACK@dyedye?$AA@ DB 'dyedye', 00H		; `string'
CONST	ENDS
; Function compile flags: /Odtp /RTCsu /ZI
; File c:\users\administrator\desktop\????? ??\????? ??\client source code\system\help.cpp
;	COMDAT ?HelpProc@@YAHXZ
_TEXT	SEGMENT
$T1 = -420						; size = 4
_buf$2 = -216						; size = 10
_tmbuf$3 = -196						; size = 48
_xx$4 = -140						; size = 4
_look$5 = -128						; size = 10
_desc$ = -108						; size = 4
_page$ = -96						; size = 4
_seg$ = -84						; size = 4
_j$ = -72						; size = 4
_i$ = -60						; size = 4
_focusId$ = -48						; size = 4
_id$ = -36						; size = 4
_y$ = -24						; size = 4
_x$ = -12						; size = 4
__$ArrayPad$ = -4					; size = 4
?HelpProc@@YAHXZ PROC					; HelpProc, COMDAT

; 778  : int HelpProc(){

  00000	55		 push	 ebp
  00001	8b ec		 mov	 ebp, esp
  00003	81 ec a8 01 00
	00		 sub	 esp, 424		; 000001a8H
  00009	53		 push	 ebx
  0000a	56		 push	 esi
  0000b	57		 push	 edi
  0000c	8d bd 58 fe ff
	ff		 lea	 edi, DWORD PTR [ebp-424]
  00012	b9 6a 00 00 00	 mov	 ecx, 106		; 0000006aH
  00017	b8 cc cc cc cc	 mov	 eax, -858993460		; ccccccccH
  0001c	f3 ab		 rep stosd
  0001e	a1 00 00 00 00	 mov	 eax, DWORD PTR ___security_cookie
  00023	33 c5		 xor	 eax, ebp
  00025	89 45 fc	 mov	 DWORD PTR __$ArrayPad$[ebp], eax

; 779  : 	static int btnId[16];
; 780  : 	static BYTE seg_history[16];
; 781  : 	static ACTION *ptActMenuWin = NULL;
; 782  : 	static int seg_index=0, page_index=0, desc_index=0, history_index=0;
; 783  : 	int x = 110, y = 50;

  00028	c7 45 f4 6e 00
	00 00		 mov	 DWORD PTR _x$[ebp], 110	; 0000006eH
  0002f	c7 45 e8 32 00
	00 00		 mov	 DWORD PTR _y$[ebp], 50	; 00000032H

; 784  : 	static int btnState[4];
; 785  : 	static DWORD dwPressTime;
; 786  : 	int id = 0;

  00036	c7 45 dc 00 00
	00 00		 mov	 DWORD PTR _id$[ebp], 0

; 787  : 	int focusId = 0;

  0003d	c7 45 d0 00 00
	00 00		 mov	 DWORD PTR _focusId$[ebp], 0

; 788  : 	int i, j;
; 789  : 	LPSEG seg;
; 790  : 	LPPAGE page;
; 791  : 	LPDESC desc;
; 792  : 	//
; 793  : 	if( HelpProcNo == 0){

  00044	0f bf 05 00 00
	00 00		 movsx	 eax, WORD PTR ?HelpProcNo@@3FA ; HelpProcNo
  0004b	85 c0		 test	 eax, eax
  0004d	0f 85 19 01 00
	00		 jne	 $LN23@HelpProc

; 794  : 		for( i = 0; i < sizeof(btnId)/sizeof(int); i++)

  00053	c7 45 c4 00 00
	00 00		 mov	 DWORD PTR _i$[ebp], 0
  0005a	eb 09		 jmp	 SHORT $LN4@HelpProc
$LN2@HelpProc:
  0005c	8b 45 c4	 mov	 eax, DWORD PTR _i$[ebp]
  0005f	83 c0 01	 add	 eax, 1
  00062	89 45 c4	 mov	 DWORD PTR _i$[ebp], eax
$LN4@HelpProc:
  00065	83 7d c4 10	 cmp	 DWORD PTR _i$[ebp], 16	; 00000010H
  00069	73 10		 jae	 SHORT $LN3@HelpProc

; 795  : 			btnId[i] = -2;

  0006b	8b 45 c4	 mov	 eax, DWORD PTR _i$[ebp]
  0006e	c7 04 85 00 00
	00 00 fe ff ff
	ff		 mov	 DWORD PTR ?btnId@?1??HelpProc@@YAHXZ@4PAHA[eax*4], -2 ; fffffffeH
  00079	eb e1		 jmp	 SHORT $LN2@HelpProc
$LN3@HelpProc:

; 796  : 		for( i = 0; i < sizeof(btnState)/sizeof(int); i++)

  0007b	c7 45 c4 00 00
	00 00		 mov	 DWORD PTR _i$[ebp], 0
  00082	eb 09		 jmp	 SHORT $LN7@HelpProc
$LN5@HelpProc:
  00084	8b 45 c4	 mov	 eax, DWORD PTR _i$[ebp]
  00087	83 c0 01	 add	 eax, 1
  0008a	89 45 c4	 mov	 DWORD PTR _i$[ebp], eax
$LN7@HelpProc:
  0008d	83 7d c4 04	 cmp	 DWORD PTR _i$[ebp], 4
  00091	73 10		 jae	 SHORT $LN6@HelpProc

; 797  : 			btnState[i] = 0;

  00093	8b 45 c4	 mov	 eax, DWORD PTR _i$[ebp]
  00096	c7 04 85 00 00
	00 00 00 00 00
	00		 mov	 DWORD PTR ?btnState@?1??HelpProc@@YAHXZ@4PAHA[eax*4], 0
  000a1	eb e1		 jmp	 SHORT $LN5@HelpProc
$LN6@HelpProc:

; 798  : 		btnState[3] = 0;

  000a3	b8 04 00 00 00	 mov	 eax, 4
  000a8	6b c8 03	 imul	 ecx, eax, 3
  000ab	c7 81 00 00 00
	00 00 00 00 00	 mov	 DWORD PTR ?btnState@?1??HelpProc@@YAHXZ@4PAHA[ecx], 0

; 799  : 		for( i = 0; i < 3; i++)

  000b5	c7 45 c4 00 00
	00 00		 mov	 DWORD PTR _i$[ebp], 0
  000bc	eb 09		 jmp	 SHORT $LN10@HelpProc
$LN8@HelpProc:
  000be	8b 45 c4	 mov	 eax, DWORD PTR _i$[ebp]
  000c1	83 c0 01	 add	 eax, 1
  000c4	89 45 c4	 mov	 DWORD PTR _i$[ebp], eax
$LN10@HelpProc:
  000c7	83 7d c4 03	 cmp	 DWORD PTR _i$[ebp], 3
  000cb	7d 10		 jge	 SHORT $LN9@HelpProc

; 800  : 			btnState[i] = -1;

  000cd	8b 45 c4	 mov	 eax, DWORD PTR _i$[ebp]
  000d0	c7 04 85 00 00
	00 00 ff ff ff
	ff		 mov	 DWORD PTR ?btnState@?1??HelpProc@@YAHXZ@4PAHA[eax*4], -1
  000db	eb e1		 jmp	 SHORT $LN8@HelpProc
$LN9@HelpProc:

; 801  : 		seg_index = page_index = desc_index = 0;

  000dd	c7 05 00 00 00
	00 00 00 00 00	 mov	 DWORD PTR ?desc_index@?1??HelpProc@@YAHXZ@4HA, 0
  000e7	a1 00 00 00 00	 mov	 eax, DWORD PTR ?desc_index@?1??HelpProc@@YAHXZ@4HA
  000ec	a3 00 00 00 00	 mov	 DWORD PTR ?page_index@?1??HelpProc@@YAHXZ@4HA, eax
  000f1	8b 0d 00 00 00
	00		 mov	 ecx, DWORD PTR ?page_index@?1??HelpProc@@YAHXZ@4HA
  000f7	89 0d 00 00 00
	00		 mov	 DWORD PTR ?seg_index@?1??HelpProc@@YAHXZ@4HA, ecx

; 802  : 
; 803  : 		history_index = 0;				//history

  000fd	c7 05 00 00 00
	00 00 00 00 00	 mov	 DWORD PTR ?history_index@?1??HelpProc@@YAHXZ@4HA, 0

; 804  : 		ptActMenuWin = MakeWindowDisp( x, y, 420, 380, CG_FIELD_HELP_WND, -1);

  00107	6a ff		 push	 -1
  00109	a1 00 00 00 00	 mov	 eax, DWORD PTR ?CG_FIELD_HELP_WND@@3HA ; CG_FIELD_HELP_WND
  0010e	50		 push	 eax
  0010f	68 7c 01 00 00	 push	 380			; 0000017cH
  00114	68 a4 01 00 00	 push	 420			; 000001a4H
  00119	8b 4d e8	 mov	 ecx, DWORD PTR _y$[ebp]
  0011c	51		 push	 ecx
  0011d	8b 55 f4	 mov	 edx, DWORD PTR _x$[ebp]
  00120	52		 push	 edx
  00121	e8 00 00 00 00	 call	 ?MakeWindowDisp@@YAPAUaction@@HHHHHH@Z ; MakeWindowDisp
  00126	83 c4 18	 add	 esp, 24			; 00000018H
  00129	a3 00 00 00 00	 mov	 DWORD PTR ?ptActMenuWin@?1??HelpProc@@YAHXZ@4PAUaction@@A, eax

; 805  : 		HelpProcNo++;

  0012e	66 a1 00 00 00
	00		 mov	 ax, WORD PTR ?HelpProcNo@@3FA ; HelpProcNo
  00134	66 83 c0 01	 add	 ax, 1
  00138	66 a3 00 00 00
	00		 mov	 WORD PTR ?HelpProcNo@@3FA, ax ; HelpProcNo

; 806  : 		dwPressTime = 0;

  0013e	c7 05 00 00 00
	00 00 00 00 00	 mov	 DWORD PTR ?dwPressTime@?1??HelpProc@@YAHXZ@4KA, 0

; 807  : #ifdef _JOBDAILY
; 808  : 		char look[10];
; 809  : 		strcpy(look,"dyedye");

  00148	68 00 00 00 00	 push	 OFFSET ??_C@_06JHHLEACK@dyedye?$AA@
  0014d	8d 45 80	 lea	 eax, DWORD PTR _look$5[ebp]
  00150	50		 push	 eax
  00151	e8 00 00 00 00	 call	 _strcpy
  00156	83 c4 08	 add	 esp, 8

; 810  : 		lssproto_JOBDAILY_send(sockfd,look);

  00159	8d 45 80	 lea	 eax, DWORD PTR _look$5[ebp]
  0015c	50		 push	 eax
  0015d	8b 0d 00 00 00
	00		 mov	 ecx, DWORD PTR ?sockfd@@3IA ; sockfd
  00163	51		 push	 ecx
  00164	e8 00 00 00 00	 call	 ?lssproto_JOBDAILY_send@@YAXHPAD@Z ; lssproto_JOBDAILY_send
  00169	83 c4 08	 add	 esp, 8
$LN23@HelpProc:

; 811  : #endif
; 812  : 	}
; 813  : 	//
; 814  : 	if( ptActMenuWin != NULL){

  0016c	83 3d 00 00 00
	00 00		 cmp	 DWORD PTR ?ptActMenuWin@?1??HelpProc@@YAHXZ@4PAUaction@@A, 0
  00173	0f 84 6a 0c 00
	00		 je	 $LN24@HelpProc

; 815  : 		id = -1;

  00179	c7 45 dc ff ff
	ff ff		 mov	 DWORD PTR _id$[ebp], -1

; 816  : 		focusId = -1;

  00180	c7 45 d0 ff ff
	ff ff		 mov	 DWORD PTR _focusId$[ebp], -1

; 817  : 
; 818  : 		seg = &help_seg[seg_index];

  00187	a1 00 00 00 00	 mov	 eax, DWORD PTR ?seg_index@?1??HelpProc@@YAHXZ@4HA
  0018c	c1 e0 05	 shl	 eax, 5
  0018f	05 00 00 00 00	 add	 eax, OFFSET ?help_seg@@3PAUSEG@@A ; help_seg
  00194	89 45 ac	 mov	 DWORD PTR _seg$[ebp], eax

; 819  : 		page = &help_page[page_index];

  00197	a1 00 00 00 00	 mov	 eax, DWORD PTR ?page_index@?1??HelpProc@@YAHXZ@4HA
  0019c	8d 0c 85 00 00
	00 00		 lea	 ecx, DWORD PTR ?help_page@@3PAUPAGE@@A[eax*4]
  001a3	89 4d a0	 mov	 DWORD PTR _page$[ebp], ecx

; 820  : 		desc = help_index[seg_index]+page->desc_index;

  001a6	8b 45 a0	 mov	 eax, DWORD PTR _page$[ebp]
  001a9	0f bf 08	 movsx	 ecx, WORD PTR [eax]
  001ac	6b d1 42	 imul	 edx, ecx, 66
  001af	a1 00 00 00 00	 mov	 eax, DWORD PTR ?seg_index@?1??HelpProc@@YAHXZ@4HA
  001b4	03 14 85 00 00
	00 00		 add	 edx, DWORD PTR ?help_index@@3PAPAUDESC@@A[eax*4]
  001bb	89 55 94	 mov	 DWORD PTR _desc$[ebp], edx

; 821  : #ifdef _ANGEL_SUMMON
; 822  : 		if( jumpHelpPage != 0 || jumpHelpSeg != 0 ) {

  001be	0f bf 05 00 00
	00 00		 movsx	 eax, WORD PTR ?jumpHelpPage@@3FA ; jumpHelpPage
  001c5	85 c0		 test	 eax, eax
  001c7	75 0f		 jne	 SHORT $LN26@HelpProc
  001c9	0f bf 05 00 00
	00 00		 movsx	 eax, WORD PTR ?jumpHelpSeg@@3FA ; jumpHelpSeg
  001d0	85 c0		 test	 eax, eax
  001d2	0f 84 cc 00 00
	00		 je	 $LN25@HelpProc
$LN26@HelpProc:

; 823  : 			page_index = jumpHelpPage;

  001d8	0f bf 05 00 00
	00 00		 movsx	 eax, WORD PTR ?jumpHelpPage@@3FA ; jumpHelpPage
  001df	a3 00 00 00 00	 mov	 DWORD PTR ?page_index@?1??HelpProc@@YAHXZ@4HA, eax

; 824  : 			seg_index = jumpHelpSeg;

  001e4	0f bf 05 00 00
	00 00		 movsx	 eax, WORD PTR ?jumpHelpSeg@@3FA ; jumpHelpSeg
  001eb	a3 00 00 00 00	 mov	 DWORD PTR ?seg_index@?1??HelpProc@@YAHXZ@4HA, eax

; 825  : 			
; 826  : 			jumpHelpPage = 0;

  001f0	33 c0		 xor	 eax, eax
  001f2	66 a3 00 00 00
	00		 mov	 WORD PTR ?jumpHelpPage@@3FA, ax ; jumpHelpPage

; 827  : 			jumpHelpSeg = 0;

  001f8	33 c0		 xor	 eax, eax
  001fa	66 a3 00 00 00
	00		 mov	 WORD PTR ?jumpHelpSeg@@3FA, ax ; jumpHelpSeg

; 828  : 			
; 829  : 			seg = &help_seg[seg_index];

  00200	a1 00 00 00 00	 mov	 eax, DWORD PTR ?seg_index@?1??HelpProc@@YAHXZ@4HA
  00205	c1 e0 05	 shl	 eax, 5
  00208	05 00 00 00 00	 add	 eax, OFFSET ?help_seg@@3PAUSEG@@A ; help_seg
  0020d	89 45 ac	 mov	 DWORD PTR _seg$[ebp], eax

; 830  : 			page = &help_page[page_index];

  00210	a1 00 00 00 00	 mov	 eax, DWORD PTR ?page_index@?1??HelpProc@@YAHXZ@4HA
  00215	8d 0c 85 00 00
	00 00		 lea	 ecx, DWORD PTR ?help_page@@3PAUPAGE@@A[eax*4]
  0021c	89 4d a0	 mov	 DWORD PTR _page$[ebp], ecx

; 831  : 			desc = help_index[seg_index]+page->desc_index;

  0021f	8b 45 a0	 mov	 eax, DWORD PTR _page$[ebp]
  00222	0f bf 08	 movsx	 ecx, WORD PTR [eax]
  00225	6b d1 42	 imul	 edx, ecx, 66
  00228	a1 00 00 00 00	 mov	 eax, DWORD PTR ?seg_index@?1??HelpProc@@YAHXZ@4HA
  0022d	03 14 85 00 00
	00 00		 add	 edx, DWORD PTR ?help_index@@3PAPAUDESC@@A[eax*4]
  00234	89 55 94	 mov	 DWORD PTR _desc$[ebp], edx

; 832  : 			
; 833  : 			btnState[1] = -1;

  00237	b8 04 00 00 00	 mov	 eax, 4
  0023c	c1 e0 00	 shl	 eax, 0
  0023f	c7 80 00 00 00
	00 ff ff ff ff	 mov	 DWORD PTR ?btnState@?1??HelpProc@@YAHXZ@4PAHA[eax], -1

; 834  : 			if( seg->page_index < page_index)				//"??"

  00249	8b 45 ac	 mov	 eax, DWORD PTR _seg$[ebp]
  0024c	0f bf 08	 movsx	 ecx, WORD PTR [eax]
  0024f	3b 0d 00 00 00
	00		 cmp	 ecx, DWORD PTR ?page_index@?1??HelpProc@@YAHXZ@4HA
  00255	7d 12		 jge	 SHORT $LN27@HelpProc

; 835  : 				btnState[1] = 0;

  00257	b8 04 00 00 00	 mov	 eax, 4
  0025c	c1 e0 00	 shl	 eax, 0
  0025f	c7 80 00 00 00
	00 00 00 00 00	 mov	 DWORD PTR ?btnState@?1??HelpProc@@YAHXZ@4PAHA[eax], 0
$LN27@HelpProc:

; 836  : 			btnState[2] = -1;

  00269	b8 04 00 00 00	 mov	 eax, 4
  0026e	d1 e0		 shl	 eax, 1
  00270	c7 80 00 00 00
	00 ff ff ff ff	 mov	 DWORD PTR ?btnState@?1??HelpProc@@YAHXZ@4PAHA[eax], -1

; 837  : 			if( (seg->page_index+seg->page_num-1) > page_index)//"??"

  0027a	8b 45 ac	 mov	 eax, DWORD PTR _seg$[ebp]
  0027d	0f bf 08	 movsx	 ecx, WORD PTR [eax]
  00280	8b 55 ac	 mov	 edx, DWORD PTR _seg$[ebp]
  00283	0f b6 42 02	 movzx	 eax, BYTE PTR [edx+2]
  00287	8d 4c 01 ff	 lea	 ecx, DWORD PTR [ecx+eax-1]
  0028b	3b 0d 00 00 00
	00		 cmp	 ecx, DWORD PTR ?page_index@?1??HelpProc@@YAHXZ@4HA
  00291	7e 11		 jle	 SHORT $LN25@HelpProc

; 838  : 				btnState[2] = 0;

  00293	b8 04 00 00 00	 mov	 eax, 4
  00298	d1 e0		 shl	 eax, 1
  0029a	c7 80 00 00 00
	00 00 00 00 00	 mov	 DWORD PTR ?btnState@?1??HelpProc@@YAHXZ@4PAHA[eax], 0
$LN25@HelpProc:

; 839  : 		}
; 840  : #endif
; 841  : 
; 842  : 		//
; 843  : 		if( ptActMenuWin->hp >= 1){

  002a4	a1 00 00 00 00	 mov	 eax, DWORD PTR ?ptActMenuWin@?1??HelpProc@@YAHXZ@4PAUaction@@A
  002a9	83 78 78 01	 cmp	 DWORD PTR [eax+120], 1
  002ad	7c 54		 jl	 SHORT $LN29@HelpProc

; 844  : 			//
; 845  : 			id = selGraId( btnId, sizeof(btnId)/sizeof(int));

  002af	6a 10		 push	 16			; 00000010H
  002b1	68 00 00 00 00	 push	 OFFSET ?btnId@?1??HelpProc@@YAHXZ@4PAHA
  002b6	e8 00 00 00 00	 call	 ?selGraId@@YAHPAHH@Z	; selGraId
  002bb	83 c4 08	 add	 esp, 8
  002be	89 45 dc	 mov	 DWORD PTR _id$[ebp], eax

; 846  : 			if( id == -1)

  002c1	83 7d dc ff	 cmp	 DWORD PTR _id$[ebp], -1
  002c5	75 2a		 jne	 SHORT $LN30@HelpProc

; 847  : 				if( (id=selFontId( &btnId[4], sizeof(btnId)/sizeof(int)-4)) >= 0){

  002c7	6a 0c		 push	 12			; 0000000cH
  002c9	b8 04 00 00 00	 mov	 eax, 4
  002ce	c1 e0 02	 shl	 eax, 2
  002d1	05 00 00 00 00	 add	 eax, OFFSET ?btnId@?1??HelpProc@@YAHXZ@4PAHA
  002d6	50		 push	 eax
  002d7	e8 00 00 00 00	 call	 ?selFontId@@YAHPAHH@Z	; selFontId
  002dc	83 c4 08	 add	 esp, 8
  002df	89 45 dc	 mov	 DWORD PTR _id$[ebp], eax
  002e2	83 7d dc 00	 cmp	 DWORD PTR _id$[ebp], 0
  002e6	7c 09		 jl	 SHORT $LN30@HelpProc

; 848  : 					id += 4;

  002e8	8b 45 dc	 mov	 eax, DWORD PTR _id$[ebp]
  002eb	83 c0 04	 add	 eax, 4
  002ee	89 45 dc	 mov	 DWORD PTR _id$[ebp], eax
$LN30@HelpProc:

; 849  : 				}
; 850  : 			focusId = focusGraId( btnId, sizeof(btnId)/sizeof(int));

  002f1	6a 10		 push	 16			; 00000010H
  002f3	68 00 00 00 00	 push	 OFFSET ?btnId@?1??HelpProc@@YAHXZ@4PAHA
  002f8	e8 00 00 00 00	 call	 ?focusGraId@@YAHPAHH@Z	; focusGraId
  002fd	83 c4 08	 add	 esp, 8
  00300	89 45 d0	 mov	 DWORD PTR _focusId$[ebp], eax
$LN29@HelpProc:

; 851  : 		}
; 852  : 		//
; 853  : 		if( CheckMenuFlag()){

  00303	e8 00 00 00 00	 call	 ?CheckMenuFlag@@YAHXZ	; CheckMenuFlag
  00308	85 c0		 test	 eax, eax
  0030a	74 09		 je	 SHORT $LN32@HelpProc

; 854  : 			id = 100;

  0030c	c7 45 dc 64 00
	00 00		 mov	 DWORD PTR _id$[ebp], 100 ; 00000064H

; 855  : 		}else

  00313	eb 54		 jmp	 SHORT $LN33@HelpProc
$LN32@HelpProc:

; 856  : 		//ESC
; 857  : 		if( (joy_trg[ 0 ] & JOY_ESC) && GetImeString() == NULL){

  00315	b8 04 00 00 00	 mov	 eax, 4
  0031a	6b c8 00	 imul	 ecx, eax, 0
  0031d	8b 91 00 00 00
	00		 mov	 edx, DWORD PTR ?joy_trg@@3PAKA[ecx]
  00323	81 e2 00 00 00
	80		 and	 edx, -2147483648	; 80000000H
  00329	74 29		 je	 SHORT $LN34@HelpProc
  0032b	e8 00 00 00 00	 call	 ?GetImeString@@YAPADXZ	; GetImeString
  00330	85 c0		 test	 eax, eax
  00332	75 20		 jne	 SHORT $LN34@HelpProc

; 858  : 			id = 100;

  00334	c7 45 dc 64 00
	00 00		 mov	 DWORD PTR _id$[ebp], 100 ; 00000064H

; 859  : 			play_se( 203, 320, 240);	//

  0033b	68 f0 00 00 00	 push	 240			; 000000f0H
  00340	68 40 01 00 00	 push	 320			; 00000140H
  00345	68 cb 00 00 00	 push	 203			; 000000cbH
  0034a	e8 00 00 00 00	 call	 ?play_se@@YAHHHH@Z	; play_se
  0034f	83 c4 0c	 add	 esp, 12			; 0000000cH

; 860  : 		}else

  00352	eb 15		 jmp	 SHORT $LN33@HelpProc
$LN34@HelpProc:

; 861  : 		//HELP
; 862  : 		if( HelpProcNo == 1000){

  00354	0f bf 05 00 00
	00 00		 movsx	 eax, WORD PTR ?HelpProcNo@@3FA ; HelpProcNo
  0035b	3d e8 03 00 00	 cmp	 eax, 1000		; 000003e8H
  00360	75 07		 jne	 SHORT $LN33@HelpProc

; 863  : 			id = 100;

  00362	c7 45 dc 64 00
	00 00		 mov	 DWORD PTR _id$[ebp], 100 ; 00000064H
$LN33@HelpProc:

; 864  : 		}
; 865  : 
; 866  : 		//event
; 867  : 		if( dwPressTime){

  00369	83 3d 00 00 00
	00 00		 cmp	 DWORD PTR ?dwPressTime@?1??HelpProc@@YAHXZ@4KA, 0
  00370	0f 84 b8 02 00
	00		 je	 $LN37@HelpProc

; 868  : 			if( TimeGetTime()>(dwPressTime+100)){

  00376	e8 00 00 00 00	 call	 ?TimeGetTime@@YAIXZ	; TimeGetTime
  0037b	8b 0d 00 00 00
	00		 mov	 ecx, DWORD PTR ?dwPressTime@?1??HelpProc@@YAHXZ@4KA
  00381	83 c1 64	 add	 ecx, 100		; 00000064H
  00384	3b c1		 cmp	 eax, ecx
  00386	0f 86 9d 02 00
	00		 jbe	 $LN39@HelpProc

; 869  : 				dwPressTime = 0;

  0038c	c7 05 00 00 00
	00 00 00 00 00	 mov	 DWORD PTR ?dwPressTime@?1??HelpProc@@YAHXZ@4KA, 0

; 870  : 				//""
; 871  : 				if( btnState[0] == 1){

  00396	b8 04 00 00 00	 mov	 eax, 4
  0039b	6b c8 00	 imul	 ecx, eax, 0
  0039e	83 b9 00 00 00
	00 01		 cmp	 DWORD PTR ?btnState@?1??HelpProc@@YAHXZ@4PAHA[ecx], 1
  003a5	0f 85 f1 00 00
	00		 jne	 $LN40@HelpProc

; 872  : 					if( history_index > 0){								//""

  003ab	83 3d 00 00 00
	00 00		 cmp	 DWORD PTR ?history_index@?1??HelpProc@@YAHXZ@4HA, 0
  003b2	7e 6e		 jle	 SHORT $LN41@HelpProc

; 873  : 						history_index--;

  003b4	a1 00 00 00 00	 mov	 eax, DWORD PTR ?history_index@?1??HelpProc@@YAHXZ@4HA
  003b9	83 e8 01	 sub	 eax, 1
  003bc	a3 00 00 00 00	 mov	 DWORD PTR ?history_index@?1??HelpProc@@YAHXZ@4HA, eax

; 874  : 						seg_index = seg_history[history_index];			//seg index

  003c1	a1 00 00 00 00	 mov	 eax, DWORD PTR ?history_index@?1??HelpProc@@YAHXZ@4HA
  003c6	0f b6 88 00 00
	00 00		 movzx	 ecx, BYTE PTR ?seg_history@?1??HelpProc@@YAHXZ@4PAEA[eax]
  003cd	89 0d 00 00 00
	00		 mov	 DWORD PTR ?seg_index@?1??HelpProc@@YAHXZ@4HA, ecx

; 875  : 						seg = &help_seg[seg_index];						//seg

  003d3	a1 00 00 00 00	 mov	 eax, DWORD PTR ?seg_index@?1??HelpProc@@YAHXZ@4HA
  003d8	c1 e0 05	 shl	 eax, 5
  003db	05 00 00 00 00	 add	 eax, OFFSET ?help_seg@@3PAUSEG@@A ; help_seg
  003e0	89 45 ac	 mov	 DWORD PTR _seg$[ebp], eax

; 876  : 						page_index = seg->page_index;

  003e3	8b 45 ac	 mov	 eax, DWORD PTR _seg$[ebp]
  003e6	0f bf 08	 movsx	 ecx, WORD PTR [eax]
  003e9	89 0d 00 00 00
	00		 mov	 DWORD PTR ?page_index@?1??HelpProc@@YAHXZ@4HA, ecx

; 877  : 						page = &help_page[page_index];					//segpage

  003ef	a1 00 00 00 00	 mov	 eax, DWORD PTR ?page_index@?1??HelpProc@@YAHXZ@4HA
  003f4	8d 0c 85 00 00
	00 00		 lea	 ecx, DWORD PTR ?help_page@@3PAUPAGE@@A[eax*4]
  003fb	89 4d a0	 mov	 DWORD PTR _page$[ebp], ecx

; 878  : 						desc_index = page->desc_index;

  003fe	8b 45 a0	 mov	 eax, DWORD PTR _page$[ebp]
  00401	0f bf 08	 movsx	 ecx, WORD PTR [eax]
  00404	89 0d 00 00 00
	00		 mov	 DWORD PTR ?desc_index@?1??HelpProc@@YAHXZ@4HA, ecx

; 879  : 						desc = help_index[seg_index]+page->desc_index;	//pagedesc

  0040a	8b 45 a0	 mov	 eax, DWORD PTR _page$[ebp]
  0040d	0f bf 08	 movsx	 ecx, WORD PTR [eax]
  00410	6b d1 42	 imul	 edx, ecx, 66
  00413	a1 00 00 00 00	 mov	 eax, DWORD PTR ?seg_index@?1??HelpProc@@YAHXZ@4HA
  00418	03 14 85 00 00
	00 00		 add	 edx, DWORD PTR ?help_index@@3PAPAUDESC@@A[eax*4]
  0041f	89 55 94	 mov	 DWORD PTR _desc$[ebp], edx
$LN41@HelpProc:

; 880  : 					}
; 881  : 					btnState[0] = -1;

  00422	b8 04 00 00 00	 mov	 eax, 4
  00427	6b c8 00	 imul	 ecx, eax, 0
  0042a	c7 81 00 00 00
	00 ff ff ff ff	 mov	 DWORD PTR ?btnState@?1??HelpProc@@YAHXZ@4PAHA[ecx], -1

; 882  : 					if( history_index > 0)								//""

  00434	83 3d 00 00 00
	00 00		 cmp	 DWORD PTR ?history_index@?1??HelpProc@@YAHXZ@4HA, 0
  0043b	7e 12		 jle	 SHORT $LN42@HelpProc

; 883  : 						btnState[0] = 0;

  0043d	b8 04 00 00 00	 mov	 eax, 4
  00442	6b c8 00	 imul	 ecx, eax, 0
  00445	c7 81 00 00 00
	00 00 00 00 00	 mov	 DWORD PTR ?btnState@?1??HelpProc@@YAHXZ@4PAHA[ecx], 0
$LN42@HelpProc:

; 884  : 					btnState[1] = -1;									//"??"

  0044f	b8 04 00 00 00	 mov	 eax, 4
  00454	c1 e0 00	 shl	 eax, 0
  00457	c7 80 00 00 00
	00 ff ff ff ff	 mov	 DWORD PTR ?btnState@?1??HelpProc@@YAHXZ@4PAHA[eax], -1

; 885  : 					btnState[2] = -1;

  00461	b8 04 00 00 00	 mov	 eax, 4
  00466	d1 e0		 shl	 eax, 1
  00468	c7 80 00 00 00
	00 ff ff ff ff	 mov	 DWORD PTR ?btnState@?1??HelpProc@@YAHXZ@4PAHA[eax], -1

; 886  : 					if( (seg->page_index+seg->page_num-1) > page_index)	//"??"

  00472	8b 45 ac	 mov	 eax, DWORD PTR _seg$[ebp]
  00475	0f bf 08	 movsx	 ecx, WORD PTR [eax]
  00478	8b 55 ac	 mov	 edx, DWORD PTR _seg$[ebp]
  0047b	0f b6 42 02	 movzx	 eax, BYTE PTR [edx+2]
  0047f	8d 4c 01 ff	 lea	 ecx, DWORD PTR [ecx+eax-1]
  00483	3b 0d 00 00 00
	00		 cmp	 ecx, DWORD PTR ?page_index@?1??HelpProc@@YAHXZ@4HA
  00489	7e 11		 jle	 SHORT $LN40@HelpProc

; 887  : 						btnState[2] = 0;

  0048b	b8 04 00 00 00	 mov	 eax, 4
  00490	d1 e0		 shl	 eax, 1
  00492	c7 80 00 00 00
	00 00 00 00 00	 mov	 DWORD PTR ?btnState@?1??HelpProc@@YAHXZ@4PAHA[eax], 0
$LN40@HelpProc:

; 888  : 				}
; 889  : 				//"??"
; 890  : 				if( btnState[1] == 1){

  0049c	b8 04 00 00 00	 mov	 eax, 4
  004a1	c1 e0 00	 shl	 eax, 0
  004a4	83 b8 00 00 00
	00 01		 cmp	 DWORD PTR ?btnState@?1??HelpProc@@YAHXZ@4PAHA[eax], 1
  004ab	0f 85 90 00 00
	00		 jne	 $LN44@HelpProc

; 891  : 					if( seg->page_index < page_index){			//"??"

  004b1	8b 45 ac	 mov	 eax, DWORD PTR _seg$[ebp]
  004b4	0f bf 08	 movsx	 ecx, WORD PTR [eax]
  004b7	3b 0d 00 00 00
	00		 cmp	 ecx, DWORD PTR ?page_index@?1??HelpProc@@YAHXZ@4HA
  004bd	7d 50		 jge	 SHORT $LN45@HelpProc

; 892  : 						page_index--;

  004bf	a1 00 00 00 00	 mov	 eax, DWORD PTR ?page_index@?1??HelpProc@@YAHXZ@4HA
  004c4	83 e8 01	 sub	 eax, 1
  004c7	a3 00 00 00 00	 mov	 DWORD PTR ?page_index@?1??HelpProc@@YAHXZ@4HA, eax

; 893  : 						page = &help_page[page_index];			//??

  004cc	a1 00 00 00 00	 mov	 eax, DWORD PTR ?page_index@?1??HelpProc@@YAHXZ@4HA
  004d1	8d 0c 85 00 00
	00 00		 lea	 ecx, DWORD PTR ?help_page@@3PAUPAGE@@A[eax*4]
  004d8	89 4d a0	 mov	 DWORD PTR _page$[ebp], ecx

; 894  : 						desc_index = page->desc_index;

  004db	8b 45 a0	 mov	 eax, DWORD PTR _page$[ebp]
  004de	0f bf 08	 movsx	 ecx, WORD PTR [eax]
  004e1	89 0d 00 00 00
	00		 mov	 DWORD PTR ?desc_index@?1??HelpProc@@YAHXZ@4HA, ecx

; 895  : 						desc = help_index[seg_index]+desc_index;//desc

  004e7	6b 05 00 00 00
	00 42		 imul	 eax, DWORD PTR ?desc_index@?1??HelpProc@@YAHXZ@4HA, 66
  004ee	8b 0d 00 00 00
	00		 mov	 ecx, DWORD PTR ?seg_index@?1??HelpProc@@YAHXZ@4HA
  004f4	03 04 8d 00 00
	00 00		 add	 eax, DWORD PTR ?help_index@@3PAPAUDESC@@A[ecx*4]
  004fb	89 45 94	 mov	 DWORD PTR _desc$[ebp], eax

; 896  : 						btnState[2] = 0;						//"??"

  004fe	b8 04 00 00 00	 mov	 eax, 4
  00503	d1 e0		 shl	 eax, 1
  00505	c7 80 00 00 00
	00 00 00 00 00	 mov	 DWORD PTR ?btnState@?1??HelpProc@@YAHXZ@4PAHA[eax], 0
$LN45@HelpProc:

; 897  : 					}
; 898  : 					btnState[1] = -1;

  0050f	b8 04 00 00 00	 mov	 eax, 4
  00514	c1 e0 00	 shl	 eax, 0
  00517	c7 80 00 00 00
	00 ff ff ff ff	 mov	 DWORD PTR ?btnState@?1??HelpProc@@YAHXZ@4PAHA[eax], -1

; 899  : 					if( seg->page_index < page_index)			//"??"

  00521	8b 45 ac	 mov	 eax, DWORD PTR _seg$[ebp]
  00524	0f bf 08	 movsx	 ecx, WORD PTR [eax]
  00527	3b 0d 00 00 00
	00		 cmp	 ecx, DWORD PTR ?page_index@?1??HelpProc@@YAHXZ@4HA
  0052d	7d 12		 jge	 SHORT $LN44@HelpProc

; 900  : 						btnState[1] = 0;

  0052f	b8 04 00 00 00	 mov	 eax, 4
  00534	c1 e0 00	 shl	 eax, 0
  00537	c7 80 00 00 00
	00 00 00 00 00	 mov	 DWORD PTR ?btnState@?1??HelpProc@@YAHXZ@4PAHA[eax], 0
$LN44@HelpProc:

; 901  : 				}
; 902  : 				//"??"
; 903  : 				if( btnState[2] == 1){

  00541	b8 04 00 00 00	 mov	 eax, 4
  00546	d1 e0		 shl	 eax, 1
  00548	83 b8 00 00 00
	00 01		 cmp	 DWORD PTR ?btnState@?1??HelpProc@@YAHXZ@4PAHA[eax], 1
  0054f	0f 85 a5 00 00
	00		 jne	 $LN47@HelpProc

; 904  : 					if( (seg->page_index+seg->page_num-1) > page_index){//"??"

  00555	8b 45 ac	 mov	 eax, DWORD PTR _seg$[ebp]
  00558	0f bf 08	 movsx	 ecx, WORD PTR [eax]
  0055b	8b 55 ac	 mov	 edx, DWORD PTR _seg$[ebp]
  0055e	0f b6 42 02	 movzx	 eax, BYTE PTR [edx+2]
  00562	8d 4c 01 ff	 lea	 ecx, DWORD PTR [ecx+eax-1]
  00566	3b 0d 00 00 00
	00		 cmp	 ecx, DWORD PTR ?page_index@?1??HelpProc@@YAHXZ@4HA
  0056c	7e 51		 jle	 SHORT $LN48@HelpProc

; 905  : 						page_index++;

  0056e	a1 00 00 00 00	 mov	 eax, DWORD PTR ?page_index@?1??HelpProc@@YAHXZ@4HA
  00573	83 c0 01	 add	 eax, 1
  00576	a3 00 00 00 00	 mov	 DWORD PTR ?page_index@?1??HelpProc@@YAHXZ@4HA, eax

; 906  : 						page = &help_page[page_index];					//??

  0057b	a1 00 00 00 00	 mov	 eax, DWORD PTR ?page_index@?1??HelpProc@@YAHXZ@4HA
  00580	8d 0c 85 00 00
	00 00		 lea	 ecx, DWORD PTR ?help_page@@3PAUPAGE@@A[eax*4]
  00587	89 4d a0	 mov	 DWORD PTR _page$[ebp], ecx

; 907  : 						desc_index = page->desc_index;

  0058a	8b 45 a0	 mov	 eax, DWORD PTR _page$[ebp]
  0058d	0f bf 08	 movsx	 ecx, WORD PTR [eax]
  00590	89 0d 00 00 00
	00		 mov	 DWORD PTR ?desc_index@?1??HelpProc@@YAHXZ@4HA, ecx

; 908  : 						desc = help_index[seg_index]+desc_index;		//desc

  00596	6b 05 00 00 00
	00 42		 imul	 eax, DWORD PTR ?desc_index@?1??HelpProc@@YAHXZ@4HA, 66
  0059d	8b 0d 00 00 00
	00		 mov	 ecx, DWORD PTR ?seg_index@?1??HelpProc@@YAHXZ@4HA
  005a3	03 04 8d 00 00
	00 00		 add	 eax, DWORD PTR ?help_index@@3PAPAUDESC@@A[ecx*4]
  005aa	89 45 94	 mov	 DWORD PTR _desc$[ebp], eax

; 909  : 						btnState[1] = 0;								//"??"

  005ad	b8 04 00 00 00	 mov	 eax, 4
  005b2	c1 e0 00	 shl	 eax, 0
  005b5	c7 80 00 00 00
	00 00 00 00 00	 mov	 DWORD PTR ?btnState@?1??HelpProc@@YAHXZ@4PAHA[eax], 0
$LN48@HelpProc:

; 910  : 					}
; 911  : 					btnState[2] = -1;

  005bf	b8 04 00 00 00	 mov	 eax, 4
  005c4	d1 e0		 shl	 eax, 1
  005c6	c7 80 00 00 00
	00 ff ff ff ff	 mov	 DWORD PTR ?btnState@?1??HelpProc@@YAHXZ@4PAHA[eax], -1

; 912  : 					if( (seg->page_index+seg->page_num-1) > page_index)	//"??"

  005d0	8b 45 ac	 mov	 eax, DWORD PTR _seg$[ebp]
  005d3	0f bf 08	 movsx	 ecx, WORD PTR [eax]
  005d6	8b 55 ac	 mov	 edx, DWORD PTR _seg$[ebp]
  005d9	0f b6 42 02	 movzx	 eax, BYTE PTR [edx+2]
  005dd	8d 4c 01 ff	 lea	 ecx, DWORD PTR [ecx+eax-1]
  005e1	3b 0d 00 00 00
	00		 cmp	 ecx, DWORD PTR ?page_index@?1??HelpProc@@YAHXZ@4HA
  005e7	7e 11		 jle	 SHORT $LN47@HelpProc

; 913  : 						btnState[2] = 0;

  005e9	b8 04 00 00 00	 mov	 eax, 4
  005ee	d1 e0		 shl	 eax, 1
  005f0	c7 80 00 00 00
	00 00 00 00 00	 mov	 DWORD PTR ?btnState@?1??HelpProc@@YAHXZ@4PAHA[eax], 0
$LN47@HelpProc:

; 914  : 				}
; 915  : 				//""
; 916  : 				if( btnState[3] == 1){

  005fa	b8 04 00 00 00	 mov	 eax, 4
  005ff	6b c8 03	 imul	 ecx, eax, 3
  00602	83 b9 00 00 00
	00 01		 cmp	 DWORD PTR ?btnState@?1??HelpProc@@YAHXZ@4PAHA[ecx], 1
  00609	75 1e		 jne	 SHORT $LN39@HelpProc

; 917  : 					play_se( 203, 320, 240);	//

  0060b	68 f0 00 00 00	 push	 240			; 000000f0H
  00610	68 40 01 00 00	 push	 320			; 00000140H
  00615	68 cb 00 00 00	 push	 203			; 000000cbH
  0061a	e8 00 00 00 00	 call	 ?play_se@@YAHHHH@Z	; play_se
  0061f	83 c4 0c	 add	 esp, 12			; 0000000cH

; 918  : 					id = 100;

  00622	c7 45 dc 64 00
	00 00		 mov	 DWORD PTR _id$[ebp], 100 ; 00000064H
$LN39@HelpProc:

; 919  : 				}
; 920  : 			}
; 921  : 
; 922  : 		}else{

  00629	e9 f4 01 00 00	 jmp	 $LN38@HelpProc
$LN37@HelpProc:

; 923  : 			if( 0 <= id && id <= 3){

  0062e	83 7d dc 00	 cmp	 DWORD PTR _id$[ebp], 0
  00632	7c 41		 jl	 SHORT $LN51@HelpProc
  00634	83 7d dc 03	 cmp	 DWORD PTR _id$[ebp], 3
  00638	7f 3b		 jg	 SHORT $LN51@HelpProc

; 924  : 				//
; 925  : 				btnState[id] = 1;

  0063a	8b 45 dc	 mov	 eax, DWORD PTR _id$[ebp]
  0063d	c7 04 85 00 00
	00 00 01 00 00
	00		 mov	 DWORD PTR ?btnState@?1??HelpProc@@YAHXZ@4PAHA[eax*4], 1

; 926  : 				id = -1;

  00648	c7 45 dc ff ff
	ff ff		 mov	 DWORD PTR _id$[ebp], -1

; 927  : 				dwPressTime = TimeGetTime();

  0064f	e8 00 00 00 00	 call	 ?TimeGetTime@@YAIXZ	; TimeGetTime
  00654	a3 00 00 00 00	 mov	 DWORD PTR ?dwPressTime@?1??HelpProc@@YAHXZ@4KA, eax

; 928  : 				play_se( 217, 320, 240);	//CLICK

  00659	68 f0 00 00 00	 push	 240			; 000000f0H
  0065e	68 40 01 00 00	 push	 320			; 00000140H
  00663	68 d9 00 00 00	 push	 217			; 000000d9H
  00668	e8 00 00 00 00	 call	 ?play_se@@YAHHHH@Z	; play_se
  0066d	83 c4 0c	 add	 esp, 12			; 0000000cH
  00670	e9 ad 01 00 00	 jmp	 $LN38@HelpProc
$LN51@HelpProc:

; 929  : 			}else if( 4 <= id && id <= 15){

  00675	83 7d dc 04	 cmp	 DWORD PTR _id$[ebp], 4
  00679	0f 8c a3 01 00
	00		 jl	 $LN38@HelpProc
  0067f	83 7d dc 0f	 cmp	 DWORD PTR _id$[ebp], 15	; 0000000fH
  00683	0f 8f 99 01 00
	00		 jg	 $LN38@HelpProc

; 930  : 				//
; 931  : 				id -= 4;

  00689	8b 45 dc	 mov	 eax, DWORD PTR _id$[ebp]
  0068c	83 e8 04	 sub	 eax, 4
  0068f	89 45 dc	 mov	 DWORD PTR _id$[ebp], eax

; 932  : 
; 933  : 				for( i = 0; i < page->desc_num; i++){

  00692	c7 45 c4 00 00
	00 00		 mov	 DWORD PTR _i$[ebp], 0
  00699	eb 09		 jmp	 SHORT $LN13@HelpProc
$LN11@HelpProc:
  0069b	8b 45 c4	 mov	 eax, DWORD PTR _i$[ebp]
  0069e	83 c0 01	 add	 eax, 1
  006a1	89 45 c4	 mov	 DWORD PTR _i$[ebp], eax
$LN13@HelpProc:
  006a4	8b 45 a0	 mov	 eax, DWORD PTR _page$[ebp]
  006a7	0f b6 48 02	 movzx	 ecx, BYTE PTR [eax+2]
  006ab	39 4d c4	 cmp	 DWORD PTR _i$[ebp], ecx
  006ae	0f 8d 50 01 00
	00		 jge	 $LN12@HelpProc

; 934  : 					if( id == i){	//

  006b4	8b 45 dc	 mov	 eax, DWORD PTR _id$[ebp]
  006b7	3b 45 c4	 cmp	 eax, DWORD PTR _i$[ebp]
  006ba	0f 85 3f 01 00
	00		 jne	 $LN54@HelpProc

; 935  : 						//buffer
; 936  : 						if( history_index >= 16){

  006c0	83 3d 00 00 00
	00 10		 cmp	 DWORD PTR ?history_index@?1??HelpProc@@YAHXZ@4HA, 16 ; 00000010H
  006c7	7c 36		 jl	 SHORT $LN55@HelpProc

; 937  : 							history_index = 15;

  006c9	c7 05 00 00 00
	00 0f 00 00 00	 mov	 DWORD PTR ?history_index@?1??HelpProc@@YAHXZ@4HA, 15 ; 0000000fH

; 938  : 							for( j = 1; j < 16; j++)

  006d3	c7 45 b8 01 00
	00 00		 mov	 DWORD PTR _j$[ebp], 1
  006da	eb 09		 jmp	 SHORT $LN16@HelpProc
$LN14@HelpProc:
  006dc	8b 45 b8	 mov	 eax, DWORD PTR _j$[ebp]
  006df	83 c0 01	 add	 eax, 1
  006e2	89 45 b8	 mov	 DWORD PTR _j$[ebp], eax
$LN16@HelpProc:
  006e5	83 7d b8 10	 cmp	 DWORD PTR _j$[ebp], 16	; 00000010H
  006e9	7d 14		 jge	 SHORT $LN55@HelpProc

; 939  : 								seg_history[j-1] = seg_history[j];

  006eb	8b 45 b8	 mov	 eax, DWORD PTR _j$[ebp]
  006ee	8b 4d b8	 mov	 ecx, DWORD PTR _j$[ebp]
  006f1	8a 91 00 00 00
	00		 mov	 dl, BYTE PTR ?seg_history@?1??HelpProc@@YAHXZ@4PAEA[ecx]
  006f7	88 90 ff ff ff
	ff		 mov	 BYTE PTR ?seg_history@?1??HelpProc@@YAHXZ@4PAEA[eax-1], dl
  006fd	eb dd		 jmp	 SHORT $LN14@HelpProc
$LN55@HelpProc:

; 940  : 						}
; 941  : 						btnState[0] = 0;	//""

  006ff	b8 04 00 00 00	 mov	 eax, 4
  00704	6b c8 00	 imul	 ecx, eax, 0
  00707	c7 81 00 00 00
	00 00 00 00 00	 mov	 DWORD PTR ?btnState@?1??HelpProc@@YAHXZ@4PAHA[ecx], 0

; 942  : 						seg_history[history_index] = (BYTE)seg_index;	//seg_index

  00711	a1 00 00 00 00	 mov	 eax, DWORD PTR ?history_index@?1??HelpProc@@YAHXZ@4HA
  00716	8a 0d 00 00 00
	00		 mov	 cl, BYTE PTR ?seg_index@?1??HelpProc@@YAHXZ@4HA
  0071c	88 88 00 00 00
	00		 mov	 BYTE PTR ?seg_history@?1??HelpProc@@YAHXZ@4PAEA[eax], cl

; 943  : 						history_index++;

  00722	a1 00 00 00 00	 mov	 eax, DWORD PTR ?history_index@?1??HelpProc@@YAHXZ@4HA
  00727	83 c0 01	 add	 eax, 1
  0072a	a3 00 00 00 00	 mov	 DWORD PTR ?history_index@?1??HelpProc@@YAHXZ@4HA, eax

; 944  : 						seg_index = desc[i].linkto_seg_no;				//seg index

  0072f	6b 45 c4 42	 imul	 eax, DWORD PTR _i$[ebp], 66
  00733	8b 4d 94	 mov	 ecx, DWORD PTR _desc$[ebp]
  00736	0f b6 54 01 04	 movzx	 edx, BYTE PTR [ecx+eax+4]
  0073b	89 15 00 00 00
	00		 mov	 DWORD PTR ?seg_index@?1??HelpProc@@YAHXZ@4HA, edx

; 945  : 						seg = &help_seg[seg_index];						//seg

  00741	a1 00 00 00 00	 mov	 eax, DWORD PTR ?seg_index@?1??HelpProc@@YAHXZ@4HA
  00746	c1 e0 05	 shl	 eax, 5
  00749	05 00 00 00 00	 add	 eax, OFFSET ?help_seg@@3PAUSEG@@A ; help_seg
  0074e	89 45 ac	 mov	 DWORD PTR _seg$[ebp], eax

; 946  : 						page_index = seg->page_index;					//segpage index

  00751	8b 45 ac	 mov	 eax, DWORD PTR _seg$[ebp]
  00754	0f bf 08	 movsx	 ecx, WORD PTR [eax]
  00757	89 0d 00 00 00
	00		 mov	 DWORD PTR ?page_index@?1??HelpProc@@YAHXZ@4HA, ecx

; 947  : 						page = &help_page[page_index];					//page

  0075d	a1 00 00 00 00	 mov	 eax, DWORD PTR ?page_index@?1??HelpProc@@YAHXZ@4HA
  00762	8d 0c 85 00 00
	00 00		 lea	 ecx, DWORD PTR ?help_page@@3PAUPAGE@@A[eax*4]
  00769	89 4d a0	 mov	 DWORD PTR _page$[ebp], ecx

; 948  : 						desc_index = page->desc_index;					//pagedesc index

  0076c	8b 45 a0	 mov	 eax, DWORD PTR _page$[ebp]
  0076f	0f bf 08	 movsx	 ecx, WORD PTR [eax]
  00772	89 0d 00 00 00
	00		 mov	 DWORD PTR ?desc_index@?1??HelpProc@@YAHXZ@4HA, ecx

; 949  : 						desc = help_index[seg_index]+page->desc_index;	//desc

  00778	8b 45 a0	 mov	 eax, DWORD PTR _page$[ebp]
  0077b	0f bf 08	 movsx	 ecx, WORD PTR [eax]
  0077e	6b d1 42	 imul	 edx, ecx, 66
  00781	a1 00 00 00 00	 mov	 eax, DWORD PTR ?seg_index@?1??HelpProc@@YAHXZ@4HA
  00786	03 14 85 00 00
	00 00		 add	 edx, DWORD PTR ?help_index@@3PAPAUDESC@@A[eax*4]
  0078d	89 55 94	 mov	 DWORD PTR _desc$[ebp], edx

; 950  : 						btnState[1] = -1;

  00790	b8 04 00 00 00	 mov	 eax, 4
  00795	c1 e0 00	 shl	 eax, 0
  00798	c7 80 00 00 00
	00 ff ff ff ff	 mov	 DWORD PTR ?btnState@?1??HelpProc@@YAHXZ@4PAHA[eax], -1

; 951  : 						if( seg->page_index < page_index)				//"??"

  007a2	8b 45 ac	 mov	 eax, DWORD PTR _seg$[ebp]
  007a5	0f bf 08	 movsx	 ecx, WORD PTR [eax]
  007a8	3b 0d 00 00 00
	00		 cmp	 ecx, DWORD PTR ?page_index@?1??HelpProc@@YAHXZ@4HA
  007ae	7d 12		 jge	 SHORT $LN56@HelpProc

; 952  : 							btnState[1] = 0;

  007b0	b8 04 00 00 00	 mov	 eax, 4
  007b5	c1 e0 00	 shl	 eax, 0
  007b8	c7 80 00 00 00
	00 00 00 00 00	 mov	 DWORD PTR ?btnState@?1??HelpProc@@YAHXZ@4PAHA[eax], 0
$LN56@HelpProc:

; 953  : 						btnState[2] = -1;

  007c2	b8 04 00 00 00	 mov	 eax, 4
  007c7	d1 e0		 shl	 eax, 1
  007c9	c7 80 00 00 00
	00 ff ff ff ff	 mov	 DWORD PTR ?btnState@?1??HelpProc@@YAHXZ@4PAHA[eax], -1

; 954  : 						if( (seg->page_index+seg->page_num-1) > page_index)//"??"

  007d3	8b 45 ac	 mov	 eax, DWORD PTR _seg$[ebp]
  007d6	0f bf 08	 movsx	 ecx, WORD PTR [eax]
  007d9	8b 55 ac	 mov	 edx, DWORD PTR _seg$[ebp]
  007dc	0f b6 42 02	 movzx	 eax, BYTE PTR [edx+2]
  007e0	8d 4c 01 ff	 lea	 ecx, DWORD PTR [ecx+eax-1]
  007e4	3b 0d 00 00 00
	00		 cmp	 ecx, DWORD PTR ?page_index@?1??HelpProc@@YAHXZ@4HA
  007ea	7e 11		 jle	 SHORT $LN57@HelpProc

; 955  : 							btnState[2] = 0;

  007ec	b8 04 00 00 00	 mov	 eax, 4
  007f1	d1 e0		 shl	 eax, 1
  007f3	c7 80 00 00 00
	00 00 00 00 00	 mov	 DWORD PTR ?btnState@?1??HelpProc@@YAHXZ@4PAHA[eax], 0
$LN57@HelpProc:

; 956  : 						break;

  007fd	eb 05		 jmp	 SHORT $LN12@HelpProc
$LN54@HelpProc:

; 957  : 					}
; 958  : 				}

  007ff	e9 97 fe ff ff	 jmp	 $LN11@HelpProc
$LN12@HelpProc:

; 959  : 				id = -1;

  00804	c7 45 dc ff ff
	ff ff		 mov	 DWORD PTR _id$[ebp], -1

; 960  : 				play_se( 217, 320, 240);	//CLICK

  0080b	68 f0 00 00 00	 push	 240			; 000000f0H
  00810	68 40 01 00 00	 push	 320			; 00000140H
  00815	68 d9 00 00 00	 push	 217			; 000000d9H
  0081a	e8 00 00 00 00	 call	 ?play_se@@YAHHHH@Z	; play_se
  0081f	83 c4 0c	 add	 esp, 12			; 0000000cH
$LN38@HelpProc:

; 961  : 			}
; 962  : 		}
; 963  : 
; 964  : 		//
; 965  : 		if( id >= 0){

  00822	83 7d dc 00	 cmp	 DWORD PTR _id$[ebp], 0
  00826	7c 22		 jl	 SHORT $LN58@HelpProc

; 966  : 			DeathAction( ptActMenuWin);

  00828	a1 00 00 00 00	 mov	 eax, DWORD PTR ?ptActMenuWin@?1??HelpProc@@YAHXZ@4PAUaction@@A
  0082d	50		 push	 eax
  0082e	e8 00 00 00 00	 call	 ?DeathAction@@YAXPAUaction@@@Z ; DeathAction
  00833	83 c4 04	 add	 esp, 4

; 967  : 			ptActMenuWin = NULL;

  00836	c7 05 00 00 00
	00 00 00 00 00	 mov	 DWORD PTR ?ptActMenuWin@?1??HelpProc@@YAHXZ@4PAUaction@@A, 0

; 968  : 			return 1;

  00840	b8 01 00 00 00	 mov	 eax, 1
  00845	e9 9b 05 00 00	 jmp	 $LN71@HelpProc
$LN58@HelpProc:

; 969  : 		}
; 970  : 		if( ptActMenuWin->hp >= 1){

  0084a	a1 00 00 00 00	 mov	 eax, DWORD PTR ?ptActMenuWin@?1??HelpProc@@YAHXZ@4PAUaction@@A
  0084f	83 78 78 01	 cmp	 DWORD PTR [eax+120], 1
  00853	0f 8c 8a 05 00
	00		 jl	 $LN24@HelpProc

; 971  : 			if( 0<=focusId && focusId<=3){

  00859	83 7d d0 00	 cmp	 DWORD PTR _focusId$[ebp], 0
  0085d	7c 1c		 jl	 SHORT $LN60@HelpProc
  0085f	83 7d d0 03	 cmp	 DWORD PTR _focusId$[ebp], 3
  00863	7f 16		 jg	 SHORT $LN60@HelpProc

; 972  : 				//
; 973  : 				ShowBottomLineString( FONT_PAL_WHITE, HelpMsg[focusId]);

  00865	8b 45 d0	 mov	 eax, DWORD PTR _focusId$[ebp]
  00868	c1 e0 05	 shl	 eax, 5
  0086b	05 00 00 00 00	 add	 eax, OFFSET ?HelpMsg@@3PAY0CA@DA ; HelpMsg
  00870	50		 push	 eax
  00871	6a 00		 push	 0
  00873	e8 00 00 00 00	 call	 ?ShowBottomLineString@@YAXHPAD@Z ; ShowBottomLineString
  00878	83 c4 08	 add	 esp, 8
$LN60@HelpProc:

; 974  : 			}
; 975  : 			//
; 976  : 			for( i = 0; i < sizeof(btnId)/sizeof(int); i++)

  0087b	c7 45 c4 00 00
	00 00		 mov	 DWORD PTR _i$[ebp], 0
  00882	eb 09		 jmp	 SHORT $LN19@HelpProc
$LN17@HelpProc:
  00884	8b 45 c4	 mov	 eax, DWORD PTR _i$[ebp]
  00887	83 c0 01	 add	 eax, 1
  0088a	89 45 c4	 mov	 DWORD PTR _i$[ebp], eax
$LN19@HelpProc:
  0088d	83 7d c4 10	 cmp	 DWORD PTR _i$[ebp], 16	; 00000010H
  00891	73 10		 jae	 SHORT $LN18@HelpProc

; 977  : 				btnId[i] = -2;

  00893	8b 45 c4	 mov	 eax, DWORD PTR _i$[ebp]
  00896	c7 04 85 00 00
	00 00 fe ff ff
	ff		 mov	 DWORD PTR ?btnId@?1??HelpProc@@YAHXZ@4PAHA[eax*4], -2 ; fffffffeH
  008a1	eb e1		 jmp	 SHORT $LN17@HelpProc
$LN18@HelpProc:

; 978  : 			//
; 979  : 			StockDispBuffer( ((WINDOW_DISP *)ptActMenuWin->pYobi)->mx, ((WINDOW_DISP *)ptActMenuWin->pYobi)->my, DISP_PRIO_MENU, CG_FIELD_HELP_WND, 1);

  008a3	6a 01		 push	 1
  008a5	a1 00 00 00 00	 mov	 eax, DWORD PTR ?CG_FIELD_HELP_WND@@3HA ; CG_FIELD_HELP_WND
  008aa	50		 push	 eax
  008ab	6a 68		 push	 104			; 00000068H
  008ad	8b 0d 00 00 00
	00		 mov	 ecx, DWORD PTR ?ptActMenuWin@?1??HelpProc@@YAHXZ@4PAUaction@@A
  008b3	8b 51 0c	 mov	 edx, DWORD PTR [ecx+12]
  008b6	8b 42 18	 mov	 eax, DWORD PTR [edx+24]
  008b9	50		 push	 eax
  008ba	8b 0d 00 00 00
	00		 mov	 ecx, DWORD PTR ?ptActMenuWin@?1??HelpProc@@YAHXZ@4PAUaction@@A
  008c0	8b 51 0c	 mov	 edx, DWORD PTR [ecx+12]
  008c3	8b 42 14	 mov	 eax, DWORD PTR [edx+20]
  008c6	50		 push	 eax
  008c7	e8 00 00 00 00	 call	 ?StockDispBuffer@@YAHHHEHH@Z ; StockDispBuffer
  008cc	83 c4 14	 add	 esp, 20			; 00000014H

; 980  : 			//   JL800600
; 981  : 			if( btnState[0] >= 0)

  008cf	b8 04 00 00 00	 mov	 eax, 4
  008d4	6b c8 00	 imul	 ecx, eax, 0
  008d7	83 b9 00 00 00
	00 00		 cmp	 DWORD PTR ?btnState@?1??HelpProc@@YAHXZ@4PAHA[ecx], 0
  008de	7c 59		 jl	 SHORT $LN61@HelpProc

; 982  : 				btnId[0] = StockDispBuffer(x + 121 + 32 + DISPLACEMENT_X / 2, y + 350  + DISPLACEMENT_Y / 2, DISP_PRIO_IME3, CG_FIELD_HELP_PRELAYER + btnState[0], 2);

  008e0	6a 02		 push	 2
  008e2	b8 04 00 00 00	 mov	 eax, 4
  008e7	6b c8 00	 imul	 ecx, eax, 0
  008ea	8b 91 00 00 00
	00		 mov	 edx, DWORD PTR ?btnState@?1??HelpProc@@YAHXZ@4PAHA[ecx]
  008f0	81 c2 8a 66 00
	00		 add	 edx, 26250		; 0000668aH
  008f6	52		 push	 edx
  008f7	6a 69		 push	 105			; 00000069H
  008f9	a1 00 00 00 00	 mov	 eax, DWORD PTR ?DISPLACEMENT_Y@@3HA ; DISPLACEMENT_Y
  008fe	99		 cdq
  008ff	2b c2		 sub	 eax, edx
  00901	d1 f8		 sar	 eax, 1
  00903	8b 4d e8	 mov	 ecx, DWORD PTR _y$[ebp]
  00906	8d 94 01 5e 01
	00 00		 lea	 edx, DWORD PTR [ecx+eax+350]
  0090d	52		 push	 edx
  0090e	a1 00 00 00 00	 mov	 eax, DWORD PTR ?DISPLACEMENT_X@@3HA ; DISPLACEMENT_X
  00913	99		 cdq
  00914	2b c2		 sub	 eax, edx
  00916	d1 f8		 sar	 eax, 1
  00918	8b 4d f4	 mov	 ecx, DWORD PTR _x$[ebp]
  0091b	8d 94 01 99 00
	00 00		 lea	 edx, DWORD PTR [ecx+eax+153]
  00922	52		 push	 edx
  00923	e8 00 00 00 00	 call	 ?StockDispBuffer@@YAHHHEHH@Z ; StockDispBuffer
  00928	83 c4 14	 add	 esp, 20			; 00000014H
  0092b	b9 04 00 00 00	 mov	 ecx, 4
  00930	6b d1 00	 imul	 edx, ecx, 0
  00933	89 82 00 00 00
	00		 mov	 DWORD PTR ?btnId@?1??HelpProc@@YAHXZ@4PAHA[edx], eax
$LN61@HelpProc:

; 983  : 			if( btnState[1] >= 0)

  00939	b8 04 00 00 00	 mov	 eax, 4
  0093e	c1 e0 00	 shl	 eax, 0
  00941	83 b8 00 00 00
	00 00		 cmp	 DWORD PTR ?btnState@?1??HelpProc@@YAHXZ@4PAHA[eax], 0
  00948	7c 59		 jl	 SHORT $LN62@HelpProc

; 984  : 				btnId[1] = StockDispBuffer(x + 192 + 32 + DISPLACEMENT_X / 2, y + 350  + DISPLACEMENT_Y / 2, DISP_PRIO_IME3, CG_FIELD_HELP_PREPAGE + btnState[1], 2);

  0094a	6a 02		 push	 2
  0094c	b8 04 00 00 00	 mov	 eax, 4
  00951	c1 e0 00	 shl	 eax, 0
  00954	8b 88 00 00 00
	00		 mov	 ecx, DWORD PTR ?btnState@?1??HelpProc@@YAHXZ@4PAHA[eax]
  0095a	81 c1 8c 66 00
	00		 add	 ecx, 26252		; 0000668cH
  00960	51		 push	 ecx
  00961	6a 69		 push	 105			; 00000069H
  00963	a1 00 00 00 00	 mov	 eax, DWORD PTR ?DISPLACEMENT_Y@@3HA ; DISPLACEMENT_Y
  00968	99		 cdq
  00969	2b c2		 sub	 eax, edx
  0096b	d1 f8		 sar	 eax, 1
  0096d	8b 55 e8	 mov	 edx, DWORD PTR _y$[ebp]
  00970	8d 84 02 5e 01
	00 00		 lea	 eax, DWORD PTR [edx+eax+350]
  00977	50		 push	 eax
  00978	a1 00 00 00 00	 mov	 eax, DWORD PTR ?DISPLACEMENT_X@@3HA ; DISPLACEMENT_X
  0097d	99		 cdq
  0097e	2b c2		 sub	 eax, edx
  00980	d1 f8		 sar	 eax, 1
  00982	8b 4d f4	 mov	 ecx, DWORD PTR _x$[ebp]
  00985	8d 94 01 e0 00
	00 00		 lea	 edx, DWORD PTR [ecx+eax+224]
  0098c	52		 push	 edx
  0098d	e8 00 00 00 00	 call	 ?StockDispBuffer@@YAHHHEHH@Z ; StockDispBuffer
  00992	83 c4 14	 add	 esp, 20			; 00000014H
  00995	b9 04 00 00 00	 mov	 ecx, 4
  0099a	c1 e1 00	 shl	 ecx, 0
  0099d	89 81 00 00 00
	00		 mov	 DWORD PTR ?btnId@?1??HelpProc@@YAHXZ@4PAHA[ecx], eax
$LN62@HelpProc:

; 985  : 			if( btnState[2] >= 0)

  009a3	b8 04 00 00 00	 mov	 eax, 4
  009a8	d1 e0		 shl	 eax, 1
  009aa	83 b8 00 00 00
	00 00		 cmp	 DWORD PTR ?btnState@?1??HelpProc@@YAHXZ@4PAHA[eax], 0
  009b1	7c 57		 jl	 SHORT $LN63@HelpProc

; 986  : 				btnId[2] = StockDispBuffer(x + 262 + 32 + DISPLACEMENT_X / 2, y + 350  + DISPLACEMENT_Y / 2, DISP_PRIO_IME3, CG_FIELD_HELP_NEXTPAGE + btnState[2], 2);

  009b3	6a 02		 push	 2
  009b5	b8 04 00 00 00	 mov	 eax, 4
  009ba	d1 e0		 shl	 eax, 1
  009bc	8b 88 00 00 00
	00		 mov	 ecx, DWORD PTR ?btnState@?1??HelpProc@@YAHXZ@4PAHA[eax]
  009c2	81 c1 8e 66 00
	00		 add	 ecx, 26254		; 0000668eH
  009c8	51		 push	 ecx
  009c9	6a 69		 push	 105			; 00000069H
  009cb	a1 00 00 00 00	 mov	 eax, DWORD PTR ?DISPLACEMENT_Y@@3HA ; DISPLACEMENT_Y
  009d0	99		 cdq
  009d1	2b c2		 sub	 eax, edx
  009d3	d1 f8		 sar	 eax, 1
  009d5	8b 55 e8	 mov	 edx, DWORD PTR _y$[ebp]
  009d8	8d 84 02 5e 01
	00 00		 lea	 eax, DWORD PTR [edx+eax+350]
  009df	50		 push	 eax
  009e0	a1 00 00 00 00	 mov	 eax, DWORD PTR ?DISPLACEMENT_X@@3HA ; DISPLACEMENT_X
  009e5	99		 cdq
  009e6	2b c2		 sub	 eax, edx
  009e8	d1 f8		 sar	 eax, 1
  009ea	8b 4d f4	 mov	 ecx, DWORD PTR _x$[ebp]
  009ed	8d 94 01 26 01
	00 00		 lea	 edx, DWORD PTR [ecx+eax+294]
  009f4	52		 push	 edx
  009f5	e8 00 00 00 00	 call	 ?StockDispBuffer@@YAHHHEHH@Z ; StockDispBuffer
  009fa	83 c4 14	 add	 esp, 20			; 00000014H
  009fd	b9 04 00 00 00	 mov	 ecx, 4
  00a02	d1 e1		 shl	 ecx, 1
  00a04	89 81 00 00 00
	00		 mov	 DWORD PTR ?btnId@?1??HelpProc@@YAHXZ@4PAHA[ecx], eax
$LN63@HelpProc:

; 987  : 			if( btnState[3] >= 0)

  00a0a	b8 04 00 00 00	 mov	 eax, 4
  00a0f	6b c8 03	 imul	 ecx, eax, 3
  00a12	83 b9 00 00 00
	00 00		 cmp	 DWORD PTR ?btnState@?1??HelpProc@@YAHXZ@4PAHA[ecx], 0
  00a19	7c 59		 jl	 SHORT $LN64@HelpProc

; 988  : 				btnId[3] = StockDispBuffer(x + 332 + 32 + DISPLACEMENT_X / 2, y + 350  + DISPLACEMENT_Y / 2, DISP_PRIO_IME3, CG_FIELD_HELP_EXIT + btnState[3], 2);

  00a1b	6a 02		 push	 2
  00a1d	b8 04 00 00 00	 mov	 eax, 4
  00a22	6b c8 03	 imul	 ecx, eax, 3
  00a25	8b 91 00 00 00
	00		 mov	 edx, DWORD PTR ?btnState@?1??HelpProc@@YAHXZ@4PAHA[ecx]
  00a2b	81 c2 90 66 00
	00		 add	 edx, 26256		; 00006690H
  00a31	52		 push	 edx
  00a32	6a 69		 push	 105			; 00000069H
  00a34	a1 00 00 00 00	 mov	 eax, DWORD PTR ?DISPLACEMENT_Y@@3HA ; DISPLACEMENT_Y
  00a39	99		 cdq
  00a3a	2b c2		 sub	 eax, edx
  00a3c	d1 f8		 sar	 eax, 1
  00a3e	8b 4d e8	 mov	 ecx, DWORD PTR _y$[ebp]
  00a41	8d 94 01 5e 01
	00 00		 lea	 edx, DWORD PTR [ecx+eax+350]
  00a48	52		 push	 edx
  00a49	a1 00 00 00 00	 mov	 eax, DWORD PTR ?DISPLACEMENT_X@@3HA ; DISPLACEMENT_X
  00a4e	99		 cdq
  00a4f	2b c2		 sub	 eax, edx
  00a51	d1 f8		 sar	 eax, 1
  00a53	8b 4d f4	 mov	 ecx, DWORD PTR _x$[ebp]
  00a56	8d 94 01 6c 01
	00 00		 lea	 edx, DWORD PTR [ecx+eax+364]
  00a5d	52		 push	 edx
  00a5e	e8 00 00 00 00	 call	 ?StockDispBuffer@@YAHHHEHH@Z ; StockDispBuffer
  00a63	83 c4 14	 add	 esp, 20			; 00000014H
  00a66	b9 04 00 00 00	 mov	 ecx, 4
  00a6b	6b d1 03	 imul	 edx, ecx, 3
  00a6e	89 82 00 00 00
	00		 mov	 DWORD PTR ?btnId@?1??HelpProc@@YAHXZ@4PAHA[edx], eax
$LN64@HelpProc:

; 989  : 			//title
; 990  : 			StockFontBuffer( x+20 + DISPLACEMENT_X / 2, y+35 + DISPLACEMENT_Y / 2, FONT_PRIO_FRONT, FONT_PAL_GREEN, seg->tile, 0);

  00a74	6a 00		 push	 0
  00a76	8b 45 ac	 mov	 eax, DWORD PTR _seg$[ebp]
  00a79	83 c0 03	 add	 eax, 3
  00a7c	50		 push	 eax
  00a7d	6a 05		 push	 5
  00a7f	6a 01		 push	 1
  00a81	a1 00 00 00 00	 mov	 eax, DWORD PTR ?DISPLACEMENT_Y@@3HA ; DISPLACEMENT_Y
  00a86	99		 cdq
  00a87	2b c2		 sub	 eax, edx
  00a89	d1 f8		 sar	 eax, 1
  00a8b	8b 4d e8	 mov	 ecx, DWORD PTR _y$[ebp]
  00a8e	8d 54 01 23	 lea	 edx, DWORD PTR [ecx+eax+35]
  00a92	52		 push	 edx
  00a93	a1 00 00 00 00	 mov	 eax, DWORD PTR ?DISPLACEMENT_X@@3HA ; DISPLACEMENT_X
  00a98	99		 cdq
  00a99	2b c2		 sub	 eax, edx
  00a9b	d1 f8		 sar	 eax, 1
  00a9d	8b 4d f4	 mov	 ecx, DWORD PTR _x$[ebp]
  00aa0	8d 54 01 14	 lea	 edx, DWORD PTR [ecx+eax+20]
  00aa4	52		 push	 edx
  00aa5	e8 00 00 00 00	 call	 ?StockFontBuffer@@YAHHHDHPADH@Z ; StockFontBuffer
  00aaa	83 c4 18	 add	 esp, 24			; 00000018H

; 991  : 			int xx;
; 992  : 			//
; 993  : 			for( i = 0; i < page->desc_num; i++){

  00aad	c7 45 c4 00 00
	00 00		 mov	 DWORD PTR _i$[ebp], 0
  00ab4	eb 09		 jmp	 SHORT $LN22@HelpProc
$LN20@HelpProc:
  00ab6	8b 45 c4	 mov	 eax, DWORD PTR _i$[ebp]
  00ab9	83 c0 01	 add	 eax, 1
  00abc	89 45 c4	 mov	 DWORD PTR _i$[ebp], eax
$LN22@HelpProc:
  00abf	8b 45 a0	 mov	 eax, DWORD PTR _page$[ebp]
  00ac2	0f b6 48 02	 movzx	 ecx, BYTE PTR [eax+2]
  00ac6	39 4d c4	 cmp	 DWORD PTR _i$[ebp], ecx
  00ac9	0f 8d 14 03 00
	00		 jge	 $LN24@HelpProc

; 994  : 				xx = x + 34 + DISPLACEMENT_X / 2;

  00acf	a1 00 00 00 00	 mov	 eax, DWORD PTR ?DISPLACEMENT_X@@3HA ; DISPLACEMENT_X
  00ad4	99		 cdq
  00ad5	2b c2		 sub	 eax, edx
  00ad7	d1 f8		 sar	 eax, 1
  00ad9	8b 4d f4	 mov	 ecx, DWORD PTR _x$[ebp]
  00adc	8d 54 01 22	 lea	 edx, DWORD PTR [ecx+eax+34]
  00ae0	89 95 74 ff ff
	ff		 mov	 DWORD PTR _xx$4[ebp], edx

; 995  : 				if( desc->bmpno){		//

  00ae6	8b 45 94	 mov	 eax, DWORD PTR _desc$[ebp]
  00ae9	0f bf 08	 movsx	 ecx, WORD PTR [eax]
  00aec	85 c9		 test	 ecx, ecx
  00aee	74 71		 je	 SHORT $LN65@HelpProc

; 996  : 					StockDispBuffer( xx+desc->indent*14+help_bmp[desc->bmpno].x, y+i*25+70+help_bmp[desc->bmpno].y + DISPLACEMENT_Y / 2, DISP_PRIO_IME3, +help_bmp[desc->bmpno].bmpno, 0);

  00af0	6a 00		 push	 0
  00af2	8b 45 94	 mov	 eax, DWORD PTR _desc$[ebp]
  00af5	0f bf 08	 movsx	 ecx, WORD PTR [eax]
  00af8	0f bf 14 cd 04
	00 00 00	 movsx	 edx, WORD PTR ?help_bmp@@3PAUHELPBMP@@A[ecx*8+4]
  00b00	52		 push	 edx
  00b01	6a 69		 push	 105			; 00000069H
  00b03	6b 45 c4 19	 imul	 eax, DWORD PTR _i$[ebp], 25
  00b07	03 45 e8	 add	 eax, DWORD PTR _y$[ebp]
  00b0a	8b 4d 94	 mov	 ecx, DWORD PTR _desc$[ebp]
  00b0d	0f bf 11	 movsx	 edx, WORD PTR [ecx]
  00b10	0f bf 0c d5 02
	00 00 00	 movsx	 ecx, WORD PTR ?help_bmp@@3PAUHELPBMP@@A[edx*8+2]
  00b18	8d 4c 08 46	 lea	 ecx, DWORD PTR [eax+ecx+70]
  00b1c	a1 00 00 00 00	 mov	 eax, DWORD PTR ?DISPLACEMENT_Y@@3HA ; DISPLACEMENT_Y
  00b21	99		 cdq
  00b22	2b c2		 sub	 eax, edx
  00b24	d1 f8		 sar	 eax, 1
  00b26	03 c8		 add	 ecx, eax
  00b28	51		 push	 ecx
  00b29	8b 55 94	 mov	 edx, DWORD PTR _desc$[ebp]
  00b2c	0f b6 42 03	 movzx	 eax, BYTE PTR [edx+3]
  00b30	6b c8 0e	 imul	 ecx, eax, 14
  00b33	03 8d 74 ff ff
	ff		 add	 ecx, DWORD PTR _xx$4[ebp]
  00b39	8b 55 94	 mov	 edx, DWORD PTR _desc$[ebp]
  00b3c	0f bf 02	 movsx	 eax, WORD PTR [edx]
  00b3f	0f bf 14 c5 00
	00 00 00	 movsx	 edx, WORD PTR ?help_bmp@@3PAUHELPBMP@@A[eax*8]
  00b47	03 ca		 add	 ecx, edx
  00b49	51		 push	 ecx
  00b4a	e8 00 00 00 00	 call	 ?StockDispBuffer@@YAHHHEHH@Z ; StockDispBuffer
  00b4f	83 c4 14	 add	 esp, 20			; 00000014H

; 997  : 					xx += 28;

  00b52	8b 85 74 ff ff
	ff		 mov	 eax, DWORD PTR _xx$4[ebp]
  00b58	83 c0 1c	 add	 eax, 28			; 0000001cH
  00b5b	89 85 74 ff ff
	ff		 mov	 DWORD PTR _xx$4[ebp], eax
$LN65@HelpProc:

; 998  : 				}
; 999  : 				xx += desc->indent*14;

  00b61	8b 45 94	 mov	 eax, DWORD PTR _desc$[ebp]
  00b64	0f b6 48 03	 movzx	 ecx, BYTE PTR [eax+3]
  00b68	6b d1 0e	 imul	 edx, ecx, 14
  00b6b	03 95 74 ff ff
	ff		 add	 edx, DWORD PTR _xx$4[ebp]
  00b71	89 95 74 ff ff
	ff		 mov	 DWORD PTR _xx$4[ebp], edx

; 1000 : 
; 1001 : 				if( desc->linkto_seg_no){

  00b77	8b 45 94	 mov	 eax, DWORD PTR _desc$[ebp]
  00b7a	0f b6 48 04	 movzx	 ecx, BYTE PTR [eax+4]
  00b7e	85 c9		 test	 ecx, ecx
  00b80	74 47		 je	 SHORT $LN66@HelpProc

; 1002 : 					//
; 1003 : 					btnId[i+4] = StockFontBuffer( xx, y+i*25+70 + DISPLACEMENT_Y / 2, FONT_PRIO_FRONT, desc->color, desc->description, 2);

  00b82	6a 02		 push	 2
  00b84	8b 45 94	 mov	 eax, DWORD PTR _desc$[ebp]
  00b87	83 c0 05	 add	 eax, 5
  00b8a	50		 push	 eax
  00b8b	8b 4d 94	 mov	 ecx, DWORD PTR _desc$[ebp]
  00b8e	0f b6 51 02	 movzx	 edx, BYTE PTR [ecx+2]
  00b92	52		 push	 edx
  00b93	6a 01		 push	 1
  00b95	6b 4d c4 19	 imul	 ecx, DWORD PTR _i$[ebp], 25
  00b99	03 4d e8	 add	 ecx, DWORD PTR _y$[ebp]
  00b9c	a1 00 00 00 00	 mov	 eax, DWORD PTR ?DISPLACEMENT_Y@@3HA ; DISPLACEMENT_Y
  00ba1	99		 cdq
  00ba2	2b c2		 sub	 eax, edx
  00ba4	d1 f8		 sar	 eax, 1
  00ba6	8d 54 01 46	 lea	 edx, DWORD PTR [ecx+eax+70]
  00baa	52		 push	 edx
  00bab	8b 85 74 ff ff
	ff		 mov	 eax, DWORD PTR _xx$4[ebp]
  00bb1	50		 push	 eax
  00bb2	e8 00 00 00 00	 call	 ?StockFontBuffer@@YAHHHDHPADH@Z ; StockFontBuffer
  00bb7	83 c4 18	 add	 esp, 24			; 00000018H
  00bba	8b 4d c4	 mov	 ecx, DWORD PTR _i$[ebp]
  00bbd	89 04 8d 10 00
	00 00		 mov	 DWORD PTR ?btnId@?1??HelpProc@@YAHXZ@4PAHA[ecx*4+16], eax

; 1004 : 				}else

  00bc4	e9 0c 02 00 00	 jmp	 $LN67@HelpProc
$LN66@HelpProc:

; 1005 : 					if(strcmp(desc->description,"jobdaily") ==0){

  00bc9	68 00 00 00 00	 push	 OFFSET ??_C@_08LHAFEHD@jobdaily?$AA@
  00bce	8b 45 94	 mov	 eax, DWORD PTR _desc$[ebp]
  00bd1	83 c0 05	 add	 eax, 5
  00bd4	50		 push	 eax
  00bd5	e8 00 00 00 00	 call	 _strcmp
  00bda	83 c4 08	 add	 esp, 8
  00bdd	85 c0		 test	 eax, eax
  00bdf	0f 85 b8 01 00
	00		 jne	 $LN68@HelpProc

; 1006 : #ifdef _JOBDAILY
; 1007 : 						char tmbuf[48];
; 1008 : 						sprintf(tmbuf,"Page%02d/%02d",page_index-56,seg->page_index+seg->page_num-57);

  00be5	8b 45 ac	 mov	 eax, DWORD PTR _seg$[ebp]
  00be8	0f bf 08	 movsx	 ecx, WORD PTR [eax]
  00beb	8b 55 ac	 mov	 edx, DWORD PTR _seg$[ebp]
  00bee	0f b6 42 02	 movzx	 eax, BYTE PTR [edx+2]
  00bf2	8d 4c 01 c7	 lea	 ecx, DWORD PTR [ecx+eax-57]
  00bf6	51		 push	 ecx
  00bf7	8b 15 00 00 00
	00		 mov	 edx, DWORD PTR ?page_index@?1??HelpProc@@YAHXZ@4HA
  00bfd	83 ea 38	 sub	 edx, 56			; 00000038H
  00c00	52		 push	 edx
  00c01	68 00 00 00 00	 push	 OFFSET ??_C@_0BA@HOICKKFF@Page?$KD?$LK?$CF02d?1?$CF02d?$AA@
  00c06	8d 85 3c ff ff
	ff		 lea	 eax, DWORD PTR _tmbuf$3[ebp]
  00c0c	50		 push	 eax
  00c0d	e8 00 00 00 00	 call	 _sprintf
  00c12	83 c4 10	 add	 esp, 16			; 00000010H

; 1009 : 						StockFontBuffer( x+25 + DISPLACEMENT_X / 2, y+340 + DISPLACEMENT_Y / 2, FONT_PRIO_FRONT, 1, tmbuf, 0);

  00c15	6a 00		 push	 0
  00c17	8d 85 3c ff ff
	ff		 lea	 eax, DWORD PTR _tmbuf$3[ebp]
  00c1d	50		 push	 eax
  00c1e	6a 01		 push	 1
  00c20	6a 01		 push	 1
  00c22	a1 00 00 00 00	 mov	 eax, DWORD PTR ?DISPLACEMENT_Y@@3HA ; DISPLACEMENT_Y
  00c27	99		 cdq
  00c28	2b c2		 sub	 eax, edx
  00c2a	d1 f8		 sar	 eax, 1
  00c2c	8b 4d e8	 mov	 ecx, DWORD PTR _y$[ebp]
  00c2f	8d 94 01 54 01
	00 00		 lea	 edx, DWORD PTR [ecx+eax+340]
  00c36	52		 push	 edx
  00c37	a1 00 00 00 00	 mov	 eax, DWORD PTR ?DISPLACEMENT_X@@3HA ; DISPLACEMENT_X
  00c3c	99		 cdq
  00c3d	2b c2		 sub	 eax, edx
  00c3f	d1 f8		 sar	 eax, 1
  00c41	8b 4d f4	 mov	 ecx, DWORD PTR _x$[ebp]
  00c44	8d 54 01 19	 lea	 edx, DWORD PTR [ecx+eax+25]
  00c48	52		 push	 edx
  00c49	e8 00 00 00 00	 call	 ?StockFontBuffer@@YAHHHDHPADH@Z ; StockFontBuffer
  00c4e	83 c4 18	 add	 esp, 24			; 00000018H

; 1010 : 
; 1011 : 						char buf[10];
; 1012 : 						sprintf(buf,"%d",jobdaily[(page_index-57)*10+i-1].JobId);

  00c51	a1 00 00 00 00	 mov	 eax, DWORD PTR ?page_index@?1??HelpProc@@YAHXZ@4HA
  00c56	83 e8 39	 sub	 eax, 57			; 00000039H
  00c59	6b c8 0a	 imul	 ecx, eax, 10
  00c5c	8b 55 c4	 mov	 edx, DWORD PTR _i$[ebp]
  00c5f	8d 44 11 ff	 lea	 eax, DWORD PTR [ecx+edx-1]
  00c63	69 c8 d8 00 00
	00		 imul	 ecx, eax, 216
  00c69	8b 91 00 00 00
	00		 mov	 edx, DWORD PTR ?jobdaily@@3PAUJOBDAILY@@A[ecx]
  00c6f	52		 push	 edx
  00c70	68 00 00 00 00	 push	 OFFSET ??_C@_02DPKJAMEF@?$CFd?$AA@
  00c75	8d 85 28 ff ff
	ff		 lea	 eax, DWORD PTR _buf$2[ebp]
  00c7b	50		 push	 eax
  00c7c	e8 00 00 00 00	 call	 _sprintf
  00c81	83 c4 0c	 add	 esp, 12			; 0000000cH

; 1013 : 						if(!atoi(buf))	buf[0] = '\0'; //0

  00c84	8b f4		 mov	 esi, esp
  00c86	8d 85 28 ff ff
	ff		 lea	 eax, DWORD PTR _buf$2[ebp]
  00c8c	50		 push	 eax
  00c8d	ff 15 00 00 00
	00		 call	 DWORD PTR __imp__atoi
  00c93	83 c4 04	 add	 esp, 4
  00c96	3b f4		 cmp	 esi, esp
  00c98	e8 00 00 00 00	 call	 __RTC_CheckEsp
  00c9d	85 c0		 test	 eax, eax
  00c9f	75 2c		 jne	 SHORT $LN70@HelpProc
  00ca1	b8 01 00 00 00	 mov	 eax, 1
  00ca6	6b c8 00	 imul	 ecx, eax, 0
  00ca9	89 8d 5c fe ff
	ff		 mov	 DWORD PTR $T1[ebp], ecx
  00caf	83 bd 5c fe ff
	ff 0a		 cmp	 DWORD PTR $T1[ebp], 10	; 0000000aH
  00cb6	73 02		 jae	 SHORT $LN72@HelpProc
  00cb8	eb 05		 jmp	 SHORT $LN73@HelpProc
$LN72@HelpProc:
  00cba	e8 00 00 00 00	 call	 ___report_rangecheckfailure
$LN73@HelpProc:
  00cbf	8b 95 5c fe ff
	ff		 mov	 edx, DWORD PTR $T1[ebp]
  00cc5	c6 84 15 28 ff
	ff ff 00	 mov	 BYTE PTR _buf$2[ebp+edx], 0
$LN70@HelpProc:

; 1014 : 						StockFontBuffer(xx     ,y+i*25+70 + DISPLACEMENT_Y / 2,FONT_PRIO_FRONT,FONT_PAL_WHITE,buf,0);

  00ccd	6a 00		 push	 0
  00ccf	8d 85 28 ff ff
	ff		 lea	 eax, DWORD PTR _buf$2[ebp]
  00cd5	50		 push	 eax
  00cd6	6a 00		 push	 0
  00cd8	6a 01		 push	 1
  00cda	6b 4d c4 19	 imul	 ecx, DWORD PTR _i$[ebp], 25
  00cde	03 4d e8	 add	 ecx, DWORD PTR _y$[ebp]
  00ce1	a1 00 00 00 00	 mov	 eax, DWORD PTR ?DISPLACEMENT_Y@@3HA ; DISPLACEMENT_Y
  00ce6	99		 cdq
  00ce7	2b c2		 sub	 eax, edx
  00ce9	d1 f8		 sar	 eax, 1
  00ceb	8d 54 01 46	 lea	 edx, DWORD PTR [ecx+eax+70]
  00cef	52		 push	 edx
  00cf0	8b 85 74 ff ff
	ff		 mov	 eax, DWORD PTR _xx$4[ebp]
  00cf6	50		 push	 eax
  00cf7	e8 00 00 00 00	 call	 ?StockFontBuffer@@YAHHHDHPADH@Z ; StockFontBuffer
  00cfc	83 c4 18	 add	 esp, 24			; 00000018H

; 1015 : 						StockFontBuffer(xx+30  ,y+i*25+70 + DISPLACEMENT_Y / 2,FONT_PRIO_FRONT,FONT_PAL_WHITE,jobdaily[(page_index-57)*10+i-1].explain,0);

  00cff	6a 00		 push	 0
  00d01	a1 00 00 00 00	 mov	 eax, DWORD PTR ?page_index@?1??HelpProc@@YAHXZ@4HA
  00d06	83 e8 39	 sub	 eax, 57			; 00000039H
  00d09	6b c8 0a	 imul	 ecx, eax, 10
  00d0c	8b 55 c4	 mov	 edx, DWORD PTR _i$[ebp]
  00d0f	8d 44 11 ff	 lea	 eax, DWORD PTR [ecx+edx-1]
  00d13	69 c8 d8 00 00
	00		 imul	 ecx, eax, 216
  00d19	81 c1 04 00 00
	00		 add	 ecx, OFFSET ?jobdaily@@3PAUJOBDAILY@@A+4
  00d1f	51		 push	 ecx
  00d20	6a 00		 push	 0
  00d22	6a 01		 push	 1
  00d24	6b 4d c4 19	 imul	 ecx, DWORD PTR _i$[ebp], 25
  00d28	03 4d e8	 add	 ecx, DWORD PTR _y$[ebp]
  00d2b	a1 00 00 00 00	 mov	 eax, DWORD PTR ?DISPLACEMENT_Y@@3HA ; DISPLACEMENT_Y
  00d30	99		 cdq
  00d31	2b c2		 sub	 eax, edx
  00d33	d1 f8		 sar	 eax, 1
  00d35	8d 54 01 46	 lea	 edx, DWORD PTR [ecx+eax+70]
  00d39	52		 push	 edx
  00d3a	8b 85 74 ff ff
	ff		 mov	 eax, DWORD PTR _xx$4[ebp]
  00d40	83 c0 1e	 add	 eax, 30			; 0000001eH
  00d43	50		 push	 eax
  00d44	e8 00 00 00 00	 call	 ?StockFontBuffer@@YAHHHDHPADH@Z ; StockFontBuffer
  00d49	83 c4 18	 add	 esp, 24			; 00000018H

; 1016 : 						StockFontBuffer(xx+328 ,y+i*25+70 + DISPLACEMENT_Y / 2,FONT_PRIO_FRONT,FONT_PAL_WHITE,jobdaily[(page_index-57)*10+i-1].state,0);

  00d4c	6a 00		 push	 0
  00d4e	a1 00 00 00 00	 mov	 eax, DWORD PTR ?page_index@?1??HelpProc@@YAHXZ@4HA
  00d53	83 e8 39	 sub	 eax, 57			; 00000039H
  00d56	6b c8 0a	 imul	 ecx, eax, 10
  00d59	8b 55 c4	 mov	 edx, DWORD PTR _i$[ebp]
  00d5c	8d 44 11 ff	 lea	 eax, DWORD PTR [ecx+edx-1]
  00d60	69 c8 d8 00 00
	00		 imul	 ecx, eax, 216
  00d66	81 c1 cc 00 00
	00		 add	 ecx, OFFSET ?jobdaily@@3PAUJOBDAILY@@A+204
  00d6c	51		 push	 ecx
  00d6d	6a 00		 push	 0
  00d6f	6a 01		 push	 1
  00d71	6b 4d c4 19	 imul	 ecx, DWORD PTR _i$[ebp], 25
  00d75	03 4d e8	 add	 ecx, DWORD PTR _y$[ebp]
  00d78	a1 00 00 00 00	 mov	 eax, DWORD PTR ?DISPLACEMENT_Y@@3HA ; DISPLACEMENT_Y
  00d7d	99		 cdq
  00d7e	2b c2		 sub	 eax, edx
  00d80	d1 f8		 sar	 eax, 1
  00d82	8d 54 01 46	 lea	 edx, DWORD PTR [ecx+eax+70]
  00d86	52		 push	 edx
  00d87	8b 85 74 ff ff
	ff		 mov	 eax, DWORD PTR _xx$4[ebp]
  00d8d	05 48 01 00 00	 add	 eax, 328		; 00000148H
  00d92	50		 push	 eax
  00d93	e8 00 00 00 00	 call	 ?StockFontBuffer@@YAHHHDHPADH@Z ; StockFontBuffer
  00d98	83 c4 18	 add	 esp, 24			; 00000018H

; 1017 : #else
; 1018 : 						StockFontBuffer( xx, y+i*25+70, FONT_PRIO_FRONT, desc->color, desc->description, 0);
; 1019 : #endif
; 1020 : 					}else{

  00d9b	eb 38		 jmp	 SHORT $LN67@HelpProc
$LN68@HelpProc:

; 1021 : 						//
; 1022 : 						StockFontBuffer( xx, y+i*25+70 + DISPLACEMENT_Y / 2, FONT_PRIO_FRONT, desc->color, desc->description, 0);

  00d9d	6a 00		 push	 0
  00d9f	8b 45 94	 mov	 eax, DWORD PTR _desc$[ebp]
  00da2	83 c0 05	 add	 eax, 5
  00da5	50		 push	 eax
  00da6	8b 4d 94	 mov	 ecx, DWORD PTR _desc$[ebp]
  00da9	0f b6 51 02	 movzx	 edx, BYTE PTR [ecx+2]
  00dad	52		 push	 edx
  00dae	6a 01		 push	 1
  00db0	6b 4d c4 19	 imul	 ecx, DWORD PTR _i$[ebp], 25
  00db4	03 4d e8	 add	 ecx, DWORD PTR _y$[ebp]
  00db7	a1 00 00 00 00	 mov	 eax, DWORD PTR ?DISPLACEMENT_Y@@3HA ; DISPLACEMENT_Y
  00dbc	99		 cdq
  00dbd	2b c2		 sub	 eax, edx
  00dbf	d1 f8		 sar	 eax, 1
  00dc1	8d 54 01 46	 lea	 edx, DWORD PTR [ecx+eax+70]
  00dc5	52		 push	 edx
  00dc6	8b 85 74 ff ff
	ff		 mov	 eax, DWORD PTR _xx$4[ebp]
  00dcc	50		 push	 eax
  00dcd	e8 00 00 00 00	 call	 ?StockFontBuffer@@YAHHHDHPADH@Z ; StockFontBuffer
  00dd2	83 c4 18	 add	 esp, 24			; 00000018H
$LN67@HelpProc:

; 1023 : 					}
; 1024 : 				desc++;

  00dd5	8b 45 94	 mov	 eax, DWORD PTR _desc$[ebp]
  00dd8	83 c0 42	 add	 eax, 66			; 00000042H
  00ddb	89 45 94	 mov	 DWORD PTR _desc$[ebp], eax

; 1025 : 			}

  00dde	e9 d3 fc ff ff	 jmp	 $LN20@HelpProc
$LN24@HelpProc:

; 1026 : 		}
; 1027 : 	}
; 1028 : 	return 0;

  00de3	33 c0		 xor	 eax, eax
$LN71@HelpProc:

; 1029 : }

  00de5	52		 push	 edx
  00de6	8b cd		 mov	 ecx, ebp
  00de8	50		 push	 eax
  00de9	8d 15 00 00 00
	00		 lea	 edx, DWORD PTR $LN78@HelpProc
  00def	e8 00 00 00 00	 call	 @_RTC_CheckStackVars@8
  00df4	58		 pop	 eax
  00df5	5a		 pop	 edx
  00df6	5f		 pop	 edi
  00df7	5e		 pop	 esi
  00df8	5b		 pop	 ebx
  00df9	8b 4d fc	 mov	 ecx, DWORD PTR __$ArrayPad$[ebp]
  00dfc	33 cd		 xor	 ecx, ebp
  00dfe	e8 00 00 00 00	 call	 @__security_check_cookie@4
  00e03	81 c4 a8 01 00
	00		 add	 esp, 424		; 000001a8H
  00e09	3b ec		 cmp	 ebp, esp
  00e0b	e8 00 00 00 00	 call	 __RTC_CheckEsp
  00e10	8b e5		 mov	 esp, ebp
  00e12	5d		 pop	 ebp
  00e13	c3		 ret	 0
$LN78@HelpProc:
  00e14	03 00 00 00	 DD	 3
  00e18	00 00 00 00	 DD	 $LN77@HelpProc
$LN77@HelpProc:
  00e1c	80 ff ff ff	 DD	 -128			; ffffff80H
  00e20	0a 00 00 00	 DD	 10			; 0000000aH
  00e24	00 00 00 00	 DD	 $LN74@HelpProc
  00e28	3c ff ff ff	 DD	 -196			; ffffff3cH
  00e2c	30 00 00 00	 DD	 48			; 00000030H
  00e30	00 00 00 00	 DD	 $LN75@HelpProc
  00e34	28 ff ff ff	 DD	 -216			; ffffff28H
  00e38	0a 00 00 00	 DD	 10			; 0000000aH
  00e3c	00 00 00 00	 DD	 $LN76@HelpProc
$LN76@HelpProc:
  00e40	62		 DB	 98			; 00000062H
  00e41	75		 DB	 117			; 00000075H
  00e42	66		 DB	 102			; 00000066H
  00e43	00		 DB	 0
$LN75@HelpProc:
  00e44	74		 DB	 116			; 00000074H
  00e45	6d		 DB	 109			; 0000006dH
  00e46	62		 DB	 98			; 00000062H
  00e47	75		 DB	 117			; 00000075H
  00e48	66		 DB	 102			; 00000066H
  00e49	00		 DB	 0
$LN74@HelpProc:
  00e4a	6c		 DB	 108			; 0000006cH
  00e4b	6f		 DB	 111			; 0000006fH
  00e4c	6f		 DB	 111			; 0000006fH
  00e4d	6b		 DB	 107			; 0000006bH
  00e4e	00		 DB	 0
?HelpProc@@YAHXZ ENDP					; HelpProc
_TEXT	ENDS
; Function compile flags: /Odtp /RTCsu /ZI
; File c:\program files (x86)\windows kits\10\include\10.0.10240.0\ucrt\stdio.h
;	COMDAT _sprintf
_TEXT	SEGMENT
__ArgList$ = -20					; size = 4
__Result$ = -8						; size = 4
__Buffer$ = 8						; size = 4
__Format$ = 12						; size = 4
_sprintf PROC						; COMDAT

; 1776 : {

  00000	55		 push	 ebp
  00001	8b ec		 mov	 ebp, esp
  00003	81 ec d8 00 00
	00		 sub	 esp, 216		; 000000d8H
  00009	53		 push	 ebx
  0000a	56		 push	 esi
  0000b	57		 push	 edi
  0000c	8d bd 28 ff ff
	ff		 lea	 edi, DWORD PTR [ebp-216]
  00012	b9 36 00 00 00	 mov	 ecx, 54			; 00000036H
  00017	b8 cc cc cc cc	 mov	 eax, -858993460		; ccccccccH
  0001c	f3 ab		 rep stosd

; 1777 :     int _Result;
; 1778 :     va_list _ArgList;
; 1779 :     __crt_va_start(_ArgList, _Format);

  0001e	e8 00 00 00 00	 call	 ??$__vcrt_va_start_verify_argument_type@QBD@@YAXXZ ; __vcrt_va_start_verify_argument_type<char const * const>
  00023	8d 45 10	 lea	 eax, DWORD PTR __Format$[ebp+4]
  00026	89 45 ec	 mov	 DWORD PTR __ArgList$[ebp], eax

; 1780 : 
; 1781 :     #pragma warning(push)
; 1782 :     #pragma warning(disable: 4996) // Deprecation
; 1783 :     _Result = _vsprintf_l(_Buffer, _Format, NULL, _ArgList);

  00029	8b 45 ec	 mov	 eax, DWORD PTR __ArgList$[ebp]
  0002c	50		 push	 eax
  0002d	6a 00		 push	 0
  0002f	8b 4d 0c	 mov	 ecx, DWORD PTR __Format$[ebp]
  00032	51		 push	 ecx
  00033	8b 55 08	 mov	 edx, DWORD PTR __Buffer$[ebp]
  00036	52		 push	 edx
  00037	e8 00 00 00 00	 call	 __vsprintf_l
  0003c	83 c4 10	 add	 esp, 16			; 00000010H
  0003f	89 45 f8	 mov	 DWORD PTR __Result$[ebp], eax

; 1784 :     #pragma warning(pop)
; 1785 : 
; 1786 :     __crt_va_end(_ArgList);

  00042	c7 45 ec 00 00
	00 00		 mov	 DWORD PTR __ArgList$[ebp], 0

; 1787 :     return _Result;

  00049	8b 45 f8	 mov	 eax, DWORD PTR __Result$[ebp]

; 1788 : }

  0004c	5f		 pop	 edi
  0004d	5e		 pop	 esi
  0004e	5b		 pop	 ebx
  0004f	81 c4 d8 00 00
	00		 add	 esp, 216		; 000000d8H
  00055	3b ec		 cmp	 ebp, esp
  00057	e8 00 00 00 00	 call	 __RTC_CheckEsp
  0005c	8b e5		 mov	 esp, ebp
  0005e	5d		 pop	 ebp
  0005f	c3		 ret	 0
_sprintf ENDP
_TEXT	ENDS
; Function compile flags: /Odtp /RTCsu /ZI
; File c:\program files (x86)\windows kits\10\include\10.0.10240.0\ucrt\stdio.h
;	COMDAT __vsprintf_l
_TEXT	SEGMENT
__Buffer$ = 8						; size = 4
__Format$ = 12						; size = 4
__Locale$ = 16						; size = 4
__ArgList$ = 20						; size = 4
__vsprintf_l PROC					; COMDAT

; 1455 : {

  00000	55		 push	 ebp
  00001	8b ec		 mov	 ebp, esp
  00003	81 ec c0 00 00
	00		 sub	 esp, 192		; 000000c0H
  00009	53		 push	 ebx
  0000a	56		 push	 esi
  0000b	57		 push	 edi
  0000c	8d bd 40 ff ff
	ff		 lea	 edi, DWORD PTR [ebp-192]
  00012	b9 30 00 00 00	 mov	 ecx, 48			; 00000030H
  00017	b8 cc cc cc cc	 mov	 eax, -858993460		; ccccccccH
  0001c	f3 ab		 rep stosd

; 1456 :     #pragma warning(push)
; 1457 :     #pragma warning(disable: 4996) // Deprecation
; 1458 :     return _vsnprintf_l(_Buffer, (size_t)-1, _Format, _Locale, _ArgList);

  0001e	8b 45 14	 mov	 eax, DWORD PTR __ArgList$[ebp]
  00021	50		 push	 eax
  00022	8b 4d 10	 mov	 ecx, DWORD PTR __Locale$[ebp]
  00025	51		 push	 ecx
  00026	8b 55 0c	 mov	 edx, DWORD PTR __Format$[ebp]
  00029	52		 push	 edx
  0002a	6a ff		 push	 -1
  0002c	8b 45 08	 mov	 eax, DWORD PTR __Buffer$[ebp]
  0002f	50		 push	 eax
  00030	e8 00 00 00 00	 call	 __vsnprintf_l
  00035	83 c4 14	 add	 esp, 20			; 00000014H

; 1459 :     #pragma warning(pop)
; 1460 : }

  00038	5f		 pop	 edi
  00039	5e		 pop	 esi
  0003a	5b		 pop	 ebx
  0003b	81 c4 c0 00 00
	00		 add	 esp, 192		; 000000c0H
  00041	3b ec		 cmp	 ebp, esp
  00043	e8 00 00 00 00	 call	 __RTC_CheckEsp
  00048	8b e5		 mov	 esp, ebp
  0004a	5d		 pop	 ebp
  0004b	c3		 ret	 0
__vsprintf_l ENDP
_TEXT	ENDS
; Function compile flags: /Odtp /RTCsu /ZI
; File c:\program files (x86)\windows kits\10\include\10.0.10240.0\ucrt\stdio.h
;	COMDAT __vsnprintf_l
_TEXT	SEGMENT
tv74 = -208						; size = 4
__Result$ = -8						; size = 4
__Buffer$ = 8						; size = 4
__BufferCount$ = 12					; size = 4
__Format$ = 16						; size = 4
__Locale$ = 20						; size = 4
__ArgList$ = 24						; size = 4
__vsnprintf_l PROC					; COMDAT

; 1385 : {

  00000	55		 push	 ebp
  00001	8b ec		 mov	 ebp, esp
  00003	81 ec d0 00 00
	00		 sub	 esp, 208		; 000000d0H
  00009	53		 push	 ebx
  0000a	56		 push	 esi
  0000b	57		 push	 edi
  0000c	8d bd 30 ff ff
	ff		 lea	 edi, DWORD PTR [ebp-208]
  00012	b9 34 00 00 00	 mov	 ecx, 52			; 00000034H
  00017	b8 cc cc cc cc	 mov	 eax, -858993460		; ccccccccH
  0001c	f3 ab		 rep stosd

; 1386 :     int const _Result = __stdio_common_vsprintf(

  0001e	8b f4		 mov	 esi, esp
  00020	8b 45 18	 mov	 eax, DWORD PTR __ArgList$[ebp]
  00023	50		 push	 eax
  00024	8b 4d 14	 mov	 ecx, DWORD PTR __Locale$[ebp]
  00027	51		 push	 ecx
  00028	8b 55 10	 mov	 edx, DWORD PTR __Format$[ebp]
  0002b	52		 push	 edx
  0002c	8b 45 0c	 mov	 eax, DWORD PTR __BufferCount$[ebp]
  0002f	50		 push	 eax
  00030	8b 4d 08	 mov	 ecx, DWORD PTR __Buffer$[ebp]
  00033	51		 push	 ecx
  00034	e8 00 00 00 00	 call	 ___local_stdio_printf_options
  00039	8b 10		 mov	 edx, DWORD PTR [eax]
  0003b	83 ca 01	 or	 edx, 1
  0003e	8b 40 04	 mov	 eax, DWORD PTR [eax+4]
  00041	50		 push	 eax
  00042	52		 push	 edx
  00043	ff 15 00 00 00
	00		 call	 DWORD PTR __imp____stdio_common_vsprintf
  00049	83 c4 1c	 add	 esp, 28			; 0000001cH
  0004c	3b f4		 cmp	 esi, esp
  0004e	e8 00 00 00 00	 call	 __RTC_CheckEsp
  00053	89 45 f8	 mov	 DWORD PTR __Result$[ebp], eax

; 1387 :         _CRT_INTERNAL_LOCAL_PRINTF_OPTIONS | _CRT_INTERNAL_PRINTF_LEGACY_VSPRINTF_NULL_TERMINATION,
; 1388 :         _Buffer, _BufferCount, _Format, _Locale, _ArgList);
; 1389 : 
; 1390 :     return _Result < 0 ? -1 : _Result;

  00056	83 7d f8 00	 cmp	 DWORD PTR __Result$[ebp], 0
  0005a	7d 0c		 jge	 SHORT $LN3@vsnprintf_
  0005c	c7 85 30 ff ff
	ff ff ff ff ff	 mov	 DWORD PTR tv74[ebp], -1
  00066	eb 09		 jmp	 SHORT $LN4@vsnprintf_
$LN3@vsnprintf_:
  00068	8b 45 f8	 mov	 eax, DWORD PTR __Result$[ebp]
  0006b	89 85 30 ff ff
	ff		 mov	 DWORD PTR tv74[ebp], eax
$LN4@vsnprintf_:
  00071	8b 85 30 ff ff
	ff		 mov	 eax, DWORD PTR tv74[ebp]

; 1391 : }

  00077	5f		 pop	 edi
  00078	5e		 pop	 esi
  00079	5b		 pop	 ebx
  0007a	81 c4 d0 00 00
	00		 add	 esp, 208		; 000000d0H
  00080	3b ec		 cmp	 ebp, esp
  00082	e8 00 00 00 00	 call	 __RTC_CheckEsp
  00087	8b e5		 mov	 esp, ebp
  00089	5d		 pop	 ebp
  0008a	c3		 ret	 0
__vsnprintf_l ENDP
_TEXT	ENDS
; Function compile flags: /Odtp /RTCsu /ZI
; File c:\program files (x86)\microsoft visual studio 14.0\vc\include\vadefs.h
;	COMDAT ??$__vcrt_va_start_verify_argument_type@QBD@@YAXXZ
_TEXT	SEGMENT
??$__vcrt_va_start_verify_argument_type@QBD@@YAXXZ PROC	; __vcrt_va_start_verify_argument_type<char const * const>, COMDAT

; 144  :         {

  00000	55		 push	 ebp
  00001	8b ec		 mov	 ebp, esp
  00003	81 ec c0 00 00
	00		 sub	 esp, 192		; 000000c0H
  00009	53		 push	 ebx
  0000a	56		 push	 esi
  0000b	57		 push	 edi
  0000c	8d bd 40 ff ff
	ff		 lea	 edi, DWORD PTR [ebp-192]
  00012	b9 30 00 00 00	 mov	 ecx, 48			; 00000030H
  00017	b8 cc cc cc cc	 mov	 eax, -858993460		; ccccccccH
  0001c	f3 ab		 rep stosd

; 145  :             static_assert(!__vcrt_va_list_is_reference<_Ty>::__the_value, "va_start argument must not have reference type and must not be parenthesized");
; 146  :         }

  0001e	5f		 pop	 edi
  0001f	5e		 pop	 esi
  00020	5b		 pop	 ebx
  00021	8b e5		 mov	 esp, ebp
  00023	5d		 pop	 ebp
  00024	c3		 ret	 0
??$__vcrt_va_start_verify_argument_type@QBD@@YAXXZ ENDP	; __vcrt_va_start_verify_argument_type<char const * const>
_TEXT	ENDS
; Function compile flags: /Odtp /RTCsu /ZI
; File c:\program files (x86)\windows kits\10\include\10.0.10240.0\ucrt\corecrt_stdio_config.h
;	COMDAT ___local_stdio_printf_options
_TEXT	SEGMENT
___local_stdio_printf_options PROC			; COMDAT

; 73   : {

  00000	55		 push	 ebp
  00001	8b ec		 mov	 ebp, esp
  00003	81 ec c0 00 00
	00		 sub	 esp, 192		; 000000c0H
  00009	53		 push	 ebx
  0000a	56		 push	 esi
  0000b	57		 push	 edi
  0000c	8d bd 40 ff ff
	ff		 lea	 edi, DWORD PTR [ebp-192]
  00012	b9 30 00 00 00	 mov	 ecx, 48			; 00000030H
  00017	b8 cc cc cc cc	 mov	 eax, -858993460		; ccccccccH
  0001c	f3 ab		 rep stosd

; 74   :     static unsigned __int64 _OptionsStorage;
; 75   :     return &_OptionsStorage;

  0001e	b8 00 00 00 00	 mov	 eax, OFFSET ?_OptionsStorage@?1??__local_stdio_printf_options@@9@4_KA ; `__local_stdio_printf_options'::`2'::_OptionsStorage

; 76   : }

  00023	5f		 pop	 edi
  00024	5e		 pop	 esi
  00025	5b		 pop	 ebx
  00026	8b e5		 mov	 esp, ebp
  00028	5d		 pop	 ebp
  00029	c3		 ret	 0
___local_stdio_printf_options ENDP
_TEXT	ENDS
END
