; Listing generated by Microsoft (R) Optimizing Compiler Version 19.00.24215.1 

	TITLE	C:\Users\Administrator\Desktop\????? ??\????? ??\Client Source Code\system\loadsprbin.cpp
	.686P
	.XMM
	include listing.inc
	.model	flat

INCLUDELIB MSVCRTD
INCLUDELIB OLDNAMES

PUBLIC	?SpriteData@@3PAUSPRITEDATA@@A			; SpriteData
_BSS	SEGMENT
?SpriteData@@3PAUSPRITEDATA@@A DQ 09c40H DUP (?)	; SpriteData
_BSS	ENDS
_DATA	SEGMENT
?ridePetTable@@3PAUtagRidePetTable@@A DD 018a88H	; ridePetTable
	DD	0186a0H
	DD	018800H
	DD	00H
	DD	018a89H
	DD	0186a5H
	DD	018800H
	DD	00H
	DD	018a8aH
	DD	0186aaH
	DD	018800H
	DD	00H
	DD	018a8bH
	DD	0186afH
	DD	018800H
	DD	00H
	DD	018a8cH
	DD	0186a0H
	DD	0187e9H
	DD	00H
	DD	018a8dH
	DD	0186a5H
	DD	0187e7H
	DD	00H
	DD	018a8eH
	DD	0186aaH
	DD	0187eaH
	DD	00H
	DD	018a8fH
	DD	0186afH
	DD	0187e8H
	DD	00H
	DD	018a90H
	DD	01895cH
	DD	018814H
	DD	00H
	DD	018a91H
	DD	018961H
	DD	018815H
	DD	00H
	DD	018e65H
	DD	018961H
	DD	018cc8H
	DD	00H
	DD	018e5aH
	DD	018961H
	DD	018c9cH
	DD	00H
	DD	018a92H
	DD	0186b4H
	DD	01882cH
	DD	00H
	DD	018a93H
	DD	0186b9H
	DD	01882cH
	DD	00H
	DD	018a94H
	DD	0186beH
	DD	01882cH
	DD	00H
	DD	018a95H
	DD	0186c3H
	DD	01882cH
	DD	00H
	DD	018a96H
	DD	0186b4H
	DD	0187e8H
	DD	00H
	DD	018a97H
	DD	0186b9H
	DD	0187e9H
	DD	00H
	DD	018a98H
	DD	0186beH
	DD	0187e7H
	DD	00H
	DD	018a99H
	DD	0186c3H
	DD	0187eaH
	DD	00H
	DD	018a9aH
	DD	018966H
	DD	018814H
	DD	00H
	DD	018a9bH
	DD	01896bH
	DD	018815H
	DD	00H
	DD	018e64H
	DD	01896bH
	DD	018cc8H
	DD	00H
	DD	018e62H
	DD	01896bH
	DD	018c9cH
	DD	00H
	DD	018a9cH
	DD	0186c8H
	DD	0187ffH
	DD	00H
	DD	018a9dH
	DD	0186cdH
	DD	0187ffH
	DD	00H
	DD	018a9eH
	DD	0186d2H
	DD	0187ffH
	DD	00H
	DD	018a9fH
	DD	0186d7H
	DD	0187ffH
	DD	00H
	DD	018aa0H
	DD	0186c8H
	DD	0187e8H
	DD	00H
	DD	018aa1H
	DD	0186cdH
	DD	0187eaH
	DD	00H
	DD	018aa2H
	DD	0186d2H
	DD	0187e7H
	DD	00H
	DD	018aa3H
	DD	0186d7H
	DD	0187e9H
	DD	00H
	DD	018aa4H
	DD	018970H
	DD	018814H
	DD	00H
	DD	018aa5H
	DD	018975H
	DD	018815H
	DD	00H
	DD	018e4dH
	DD	018975H
	DD	018cc8H
	DD	00H
	DD	018e57H
	DD	018975H
	DD	018c9cH
	DD	00H
	DD	018aa6H
	DD	0186dcH
	DD	018801H
	DD	00H
	DD	018aa7H
	DD	0186e1H
	DD	018801H
	DD	00H
	DD	018aa8H
	DD	0186e6H
	DD	018801H
	DD	00H
	DD	018aa9H
	DD	0186ebH
	DD	018801H
	DD	00H
	DD	018aaaH
	DD	0186dcH
	DD	0187e9H
	DD	00H
	DD	018aabH
	DD	0186e1H
	DD	0187e7H
	DD	00H
	DD	018aacH
	DD	0186e6H
	DD	0187eaH
	DD	00H
	DD	018aadH
	DD	0186ebH
	DD	0187e8H
	DD	00H
	DD	018aaeH
	DD	01897aH
	DD	018814H
	DD	00H
	DD	018aafH
	DD	01897fH
	DD	018815H
	DD	00H
	DD	018e4eH
	DD	01897fH
	DD	018cc8H
	DD	00H
	DD	018e58H
	DD	01897fH
	DD	018c9cH
	DD	00H
	DD	018ab0H
	DD	0186f0H
	DD	01882cH
	DD	00H
	DD	018ab1H
	DD	0186f5H
	DD	01882cH
	DD	00H
	DD	018ab2H
	DD	0186faH
	DD	01882cH
	DD	00H
	DD	018ab3H
	DD	0186ffH
	DD	01882cH
	DD	00H
	DD	018ab4H
	DD	0186f0H
	DD	0187e8H
	DD	00H
	DD	018ab5H
	DD	0186f5H
	DD	0187e7H
	DD	00H
	DD	018ab6H
	DD	0186faH
	DD	0187eaH
	DD	00H
	DD	018ab7H
	DD	0186ffH
	DD	0187e9H
	DD	00H
	DD	018ab8H
	DD	018984H
	DD	018814H
	DD	00H
	DD	018ab9H
	DD	018989H
	DD	018815H
	DD	00H
	DD	018e55H
	DD	018989H
	DD	018cc8H
	DD	00H
	DD	018e60H
	DD	018989H
	DD	018c9cH
	DD	00H
	DD	018abaH
	DD	018704H
	DD	018801H
	DD	00H
	DD	018abbH
	DD	018709H
	DD	018801H
	DD	00H
	DD	018abcH
	DD	01870eH
	DD	018801H
	DD	00H
	DD	018abdH
	DD	018713H
	DD	018801H
	DD	00H
	DD	018abeH
	DD	018704H
	DD	0187e9H
	DD	00H
	DD	018abfH
	DD	018709H
	DD	0187e8H
	DD	00H
	DD	018ac0H
	DD	01870eH
	DD	0187eaH
	DD	00H
	DD	018ac1H
	DD	018713H
	DD	0187e7H
	DD	00H
	DD	018ac2H
	DD	01898eH
	DD	018814H
	DD	00H
	DD	018ac3H
	DD	018993H
	DD	018815H
	DD	00H
	DD	018e56H
	DD	018993H
	DD	018cc8H
	DD	00H
	DD	018e61H
	DD	018993H
	DD	018c9cH
	DD	00H
	DD	018ac4H
	DD	018718H
	DD	018802H
	DD	00H
	DD	018ac5H
	DD	01871dH
	DD	018802H
	DD	00H
	DD	018ac6H
	DD	018722H
	DD	018802H
	DD	00H
	DD	018ac7H
	DD	018727H
	DD	018802H
	DD	00H
	DD	018ac8H
	DD	018718H
	DD	0187e7H
	DD	00H
	DD	018ac9H
	DD	01871dH
	DD	0187eaH
	DD	00H
	DD	018acaH
	DD	018722H
	DD	0187e8H
	DD	00H
	DD	018acbH
	DD	018727H
	DD	0187e9H
	DD	00H
	DD	018accH
	DD	018998H
	DD	018814H
	DD	00H
	DD	018acdH
	DD	01899dH
	DD	018815H
	DD	00H
	DD	018e4fH
	DD	01899dH
	DD	018cc8H
	DD	00H
	DD	018e59H
	DD	01899dH
	DD	018c9cH
	DD	00H
	DD	018aceH
	DD	01872cH
	DD	018802H
	DD	00H
	DD	018acfH
	DD	018731H
	DD	018802H
	DD	00H
	DD	018ad0H
	DD	018736H
	DD	018802H
	DD	00H
	DD	018ad1H
	DD	01873bH
	DD	018802H
	DD	00H
	DD	018ad2H
	DD	01872cH
	DD	0187e7H
	DD	00H
	DD	018ad3H
	DD	018731H
	DD	0187e9H
	DD	00H
	DD	018ad4H
	DD	018736H
	DD	0187eaH
	DD	00H
	DD	018ad5H
	DD	01873bH
	DD	0187e8H
	DD	00H
	DD	018ad6H
	DD	0189a2H
	DD	018814H
	DD	00H
	DD	018ad7H
	DD	0189a7H
	DD	018815H
	DD	00H
	DD	018e50H
	DD	0189a7H
	DD	018cc8H
	DD	00H
	DD	018e5bH
	DD	0189a7H
	DD	018c9cH
	DD	00H
	DD	018ad8H
	DD	018740H
	DD	018800H
	DD	00H
	DD	018ad9H
	DD	018745H
	DD	018800H
	DD	00H
	DD	018adaH
	DD	01874aH
	DD	018800H
	DD	00H
	DD	018adbH
	DD	01874fH
	DD	018800H
	DD	00H
	DD	018adcH
	DD	018740H
	DD	0187eaH
	DD	00H
	DD	018addH
	DD	018745H
	DD	0187e9H
	DD	00H
	DD	018adeH
	DD	01874aH
	DD	0187e7H
	DD	00H
	DD	018adfH
	DD	01874fH
	DD	0187e8H
	DD	00H
	DD	018ae0H
	DD	0189acH
	DD	018814H
	DD	00H
	DD	018ae1H
	DD	0189b1H
	DD	018815H
	DD	00H
	DD	018e52H
	DD	0189b1H
	DD	018cc8H
	DD	00H
	DD	018e5dH
	DD	0189b1H
	DD	018c9cH
	DD	00H
	DD	018ae2H
	DD	018754H
	DD	0187ffH
	DD	00H
	DD	018ae3H
	DD	018759H
	DD	0187ffH
	DD	00H
	DD	018ae4H
	DD	01875eH
	DD	0187ffH
	DD	00H
	DD	018ae5H
	DD	018763H
	DD	0187ffH
	DD	00H
	DD	018ae6H
	DD	018754H
	DD	0187e8H
	DD	00H
	DD	018ae7H
	DD	018759H
	DD	0187eaH
	DD	00H
	DD	018ae8H
	DD	01875eH
	DD	0187e9H
	DD	00H
	DD	018ae9H
	DD	018763H
	DD	0187e7H
	DD	00H
	DD	018aeaH
	DD	0189b6H
	DD	018814H
	DD	00H
	DD	018aebH
	DD	0189bbH
	DD	018815H
	DD	00H
	DD	018e51H
	DD	0189bbH
	DD	018cc8H
	DD	00H
	DD	018e5cH
	DD	0189bbH
	DD	018c9cH
	DD	00H
	DD	018aecH
	DD	018768H
	DD	018801H
	DD	00H
	DD	018aedH
	DD	01876dH
	DD	018801H
	DD	00H
	DD	018aeeH
	DD	018772H
	DD	018801H
	DD	00H
	DD	018aefH
	DD	018777H
	DD	018801H
	DD	00H
	DD	018af0H
	DD	018768H
	DD	0187e9H
	DD	00H
	DD	018af1H
	DD	01876dH
	DD	0187e8H
	DD	00H
	DD	018af2H
	DD	018772H
	DD	0187e7H
	DD	00H
	DD	018af3H
	DD	018777H
	DD	0187eaH
	DD	00H
	DD	018af4H
	DD	0189c0H
	DD	018814H
	DD	00H
	DD	018af5H
	DD	0189c5H
	DD	018815H
	DD	00H
	DD	018e54H
	DD	0189c5H
	DD	018cc8H
	DD	00H
	DD	018e5fH
	DD	0189c5H
	DD	018c9cH
	DD	00H
	DD	018af6H
	DD	01877cH
	DD	01882cH
	DD	00H
	DD	018af7H
	DD	018781H
	DD	01882cH
	DD	00H
	DD	018af8H
	DD	018786H
	DD	01882cH
	DD	00H
	DD	018af9H
	DD	01878bH
	DD	01882cH
	DD	00H
	DD	018afaH
	DD	01877cH
	DD	0187eaH
	DD	00H
	DD	018afbH
	DD	018781H
	DD	0187e7H
	DD	00H
	DD	018afcH
	DD	018786H
	DD	0187e9H
	DD	00H
	DD	018afdH
	DD	01878bH
	DD	0187e8H
	DD	00H
	DD	018afeH
	DD	0189caH
	DD	018814H
	DD	00H
	DD	018affH
	DD	0189cfH
	DD	018815H
	DD	00H
	DD	018e53H
	DD	0189cfH
	DD	018cc8H
	DD	00H
	DD	018e5eH
	DD	0189cfH
	DD	018c9cH
	DD	00H
	DD	018b3bH
	DD	018b39H
	DD	018b3aH
	DD	00H
	DD	018b3bH
	DD	018b3aH
	DD	018b39H
	DD	00H
?RideCodeMode@@3PAUtagRideCodeMode@@A DD 018816H	; RideCodeMode
	DD	01H
	DD	018806H
	DD	02H
	DD	01880aH
	DD	04H
	DD	0187b7H
	DD	08H
	DD	0187c0H
	DD	010H
	DD	0187bbH
	DD	020H
	DD	0187faH
	DD	040H
	DD	0187d6H
	DD	080H
	DD	018814H
	DD	0100H
	DD	018815H
	DD	0200H
	DD	018c9cH
	DD	0800H
	DD	018cc8H
	DD	0400H
	DD	018812H
	DD	01000H
	DD	018811H
	DD	02000H
	DD	018a28H
	DD	04000H
	DD	018a2bH
	DD	08000H
	DD	018f30H
	DD	010000H
	DD	018f31H
	DD	020000H
	DD	018f68H
	DD	040000H
	DD	0187fcH
	DD	080000H
	DD	0187d3H
	DD	0100000H
	DD	018fa9H
	DD	0200000H
	DD	018faaH
	DD	0400000H
	DD	018a09H
	DD	0800000H
	DD	018a0aH
	DD	01000000H
	DD	019394H
	DD	02000000H
	DD	0187b2H
	DD	04000000H
?RideNoList@@3PAUtagRideNoList@@A DD 018bb9H		; RideNoList
	DD	018bbaH
	DD	018bbbH
	DD	018bbcH
	DD	018bbdH
	DD	018bbeH
	DD	018bbfH
	DD	018bc0H
	DD	018a90H
	DD	018a91H
	DD	018e5aH
	DD	018e65H
	DD	018849H
	DD	018844H
	DD	01885dH
	DD	018ee5H
	DD	018f0dH
	DD	018f19H
	DD	018f76H
	ORG $+32
	DD	018bc1H
	DD	018bc2H
	DD	018bc3H
	DD	018bc4H
	DD	018bc5H
	DD	018bc6H
	DD	018bc7H
	DD	018bc8H
	DD	018a9aH
	DD	018a9bH
	DD	018e62H
	DD	018e64H
	DD	018849H
	DD	018844H
	DD	01885dH
	DD	018ee6H
	DD	018f0eH
	DD	018f1aH
	DD	018f77H
	ORG $+32
	DD	018bc9H
	DD	018bcaH
	DD	018bcbH
	DD	018bccH
	DD	018bcdH
	DD	018bceH
	DD	018bcfH
	DD	018bd0H
	DD	018aa4H
	DD	018aa5H
	DD	018e57H
	DD	018e4dH
	DD	018849H
	DD	018844H
	DD	01885dH
	DD	018ee7H
	DD	018f0fH
	DD	018f1bH
	DD	018f78H
	ORG $+32
	DD	018bd1H
	DD	018bd2H
	DD	018bd3H
	DD	018bd4H
	DD	018bd5H
	DD	018bd6H
	DD	018bd7H
	DD	018bd8H
	DD	018aaeH
	DD	018aafH
	DD	018e58H
	DD	018e4eH
	DD	018849H
	DD	018844H
	DD	01885dH
	DD	018ee8H
	DD	018f10H
	DD	018f1cH
	DD	018f79H
	ORG $+32
	DD	018bd9H
	DD	018bdaH
	DD	018bdbH
	DD	018bdcH
	DD	018bddH
	DD	018bdeH
	DD	018bdfH
	DD	018be0H
	DD	018ab8H
	DD	018ab9H
	DD	018e60H
	DD	018e55H
	DD	018849H
	DD	018844H
	DD	01885dH
	DD	018ee9H
	DD	018f11H
	DD	018f1dH
	DD	018f7aH
	ORG $+32
	DD	018be1H
	DD	018be2H
	DD	018be3H
	DD	018be4H
	DD	018be5H
	DD	018be6H
	DD	018be7H
	DD	018be8H
	DD	018ac2H
	DD	018ac3H
	DD	018e61H
	DD	018e56H
	DD	018849H
	DD	018844H
	DD	01885dH
	DD	018eeaH
	DD	018f12H
	DD	018f1eH
	DD	018f7bH
	ORG $+32
	DD	018be9H
	DD	018beaH
	DD	018bebH
	DD	018becH
	DD	018bedH
	DD	018beeH
	DD	018befH
	DD	018bf0H
	DD	018accH
	DD	018acdH
	DD	018e59H
	DD	018e4fH
	DD	018849H
	DD	018844H
	DD	01885dH
	DD	018eebH
	DD	018f13H
	DD	018f1fH
	DD	018f7cH
	ORG $+32
	DD	018bf1H
	DD	018bf2H
	DD	018bf3H
	DD	018bf4H
	DD	018bf5H
	DD	018bf6H
	DD	018bf7H
	DD	018bf8H
	DD	018ad6H
	DD	018ad7H
	DD	018e5bH
	DD	018e50H
	DD	018849H
	DD	018844H
	DD	01885dH
	DD	018eecH
	DD	018f14H
	DD	018f20H
	DD	018f7dH
	ORG $+32
	DD	018bf9H
	DD	018bfaH
	DD	018bfbH
	DD	018bfcH
	DD	018bfdH
	DD	018bfeH
	DD	018bffH
	DD	018c00H
	DD	018ae0H
	DD	018ae1H
	DD	018e5dH
	DD	018e52H
	DD	018849H
	DD	018844H
	DD	01885dH
	DD	018eedH
	DD	018f15H
	DD	018f21H
	DD	018f7eH
	ORG $+32
	DD	018c01H
	DD	018c02H
	DD	018c03H
	DD	018c04H
	DD	018c05H
	DD	018c06H
	DD	018c07H
	DD	018c08H
	DD	018aeaH
	DD	018aebH
	DD	018e5cH
	DD	018e51H
	DD	018849H
	DD	018844H
	DD	01885dH
	DD	018eeeH
	DD	018f16H
	DD	018f22H
	DD	018f7fH
	ORG $+32
	DD	018c09H
	DD	018c0aH
	DD	018c0bH
	DD	018c0cH
	DD	018c0dH
	DD	018c0eH
	DD	018c0fH
	DD	018c10H
	DD	018af4H
	DD	018af5H
	DD	018e5fH
	DD	018e54H
	DD	018849H
	DD	018844H
	DD	01885dH
	DD	018eefH
	DD	018f17H
	DD	018f23H
	DD	018f80H
	ORG $+32
	DD	018c11H
	DD	018c12H
	DD	018c13H
	DD	018c14H
	DD	018c15H
	DD	018c16H
	DD	018c17H
	DD	018c18H
	DD	018afeH
	DD	018affH
	DD	018e5eH
	DD	018e53H
	DD	018849H
	DD	018844H
	DD	01885dH
	DD	018ef0H
	DD	018f18H
	DD	018f24H
	DD	018f81H
	ORG $+32
?RPlistMode@@3PAUtagRidePetList@@A DD 0186a0H		; RPlistMode
	DD	00H
	DD	0186a5H
	DD	00H
	DD	0186aaH
	DD	00H
	DD	0186afH
	DD	00H
	DD	0186b4H
	DD	01H
	DD	0186b9H
	DD	01H
	DD	0186beH
	DD	01H
	DD	0186c3H
	DD	01H
	DD	0186c8H
	DD	02H
	DD	0186cdH
	DD	02H
	DD	0186d2H
	DD	02H
	DD	0186d7H
	DD	02H
	DD	0186dcH
	DD	03H
	DD	0186e1H
	DD	03H
	DD	0186e6H
	DD	03H
	DD	0186ebH
	DD	03H
	DD	0186f0H
	DD	04H
	DD	0186f5H
	DD	04H
	DD	0186faH
	DD	04H
	DD	0186ffH
	DD	04H
	DD	018704H
	DD	05H
	DD	018709H
	DD	05H
	DD	01870eH
	DD	05H
	DD	018713H
	DD	05H
	DD	018718H
	DD	06H
	DD	01871dH
	DD	06H
	DD	018722H
	DD	06H
	DD	018727H
	DD	06H
	DD	01872cH
	DD	07H
	DD	018731H
	DD	07H
	DD	018736H
	DD	07H
	DD	01873bH
	DD	07H
	DD	018740H
	DD	08H
	DD	018745H
	DD	08H
	DD	01874aH
	DD	08H
	DD	01874fH
	DD	08H
	DD	018754H
	DD	09H
	DD	018759H
	DD	09H
	DD	01875eH
	DD	09H
	DD	018763H
	DD	09H
	DD	018768H
	DD	0aH
	DD	01876dH
	DD	0aH
	DD	018772H
	DD	0aH
	DD	018777H
	DD	0aH
	DD	01877cH
	DD	0bH
	DD	018781H
	DD	0bH
	DD	018786H
	DD	0bH
	DD	01878bH
	DD	0bH
?Sprflg@?1??InitSprBinFileOpen@@YAHPAD0@Z@4HA DD 01H	; `InitSprBinFileOpen'::`2'::Sprflg
?Sprflg1@?1??InitSprBinFileOpen@@YAHPAD0@Z@4HA DD 01H	; `InitSprBinFileOpen'::`2'::Sprflg1
_DATA	ENDS
PUBLIC	?InitSprBinFileOpen@@YAHPAD0@Z			; InitSprBinFileOpen
PUBLIC	??_C@_02JDPG@rb?$AA@				; `string'
EXTRN	_memset:PROC
EXTRN	__imp__calloc:PROC
EXTRN	__imp__free:PROC
EXTRN	__imp__fclose:PROC
EXTRN	__imp__feof:PROC
EXTRN	__imp__fopen:PROC
EXTRN	__imp__fread:PROC
EXTRN	__imp__fseek:PROC
EXTRN	@_RTC_CheckStackVars@8:PROC
EXTRN	@__security_check_cookie@4:PROC
EXTRN	__RTC_CheckEsp:PROC
EXTRN	__RTC_InitBase:PROC
EXTRN	__RTC_Shutdown:PROC
EXTRN	?nextMaxAdrnID@@3HA:DWORD			; nextMaxAdrnID
EXTRN	___security_cookie:DWORD
;	COMDAT rtc$TMZ
rtc$TMZ	SEGMENT
__RTC_Shutdown.rtc$TMZ DD FLAT:__RTC_Shutdown
rtc$TMZ	ENDS
;	COMDAT rtc$IMZ
rtc$IMZ	SEGMENT
__RTC_InitBase.rtc$IMZ DD FLAT:__RTC_InitBase
rtc$IMZ	ENDS
;	COMDAT ??_C@_02JDPG@rb?$AA@
CONST	SEGMENT
??_C@_02JDPG@rb?$AA@ DB 'rb', 00H			; `string'
CONST	ENDS
; Function compile flags: /Odtp /RTCsu /ZI
; File c:\users\administrator\desktop\????? ??\????? ??\client source code\system\loadsprbin.cpp
;	COMDAT ?InitSprBinFileOpen@@YAHPAD0@Z
_TEXT	SEGMENT
_kkk$1 = -156						; size = 4
_iTemp$2 = -144						; size = 4
_kk$3 = -132						; size = 4
_no$ = -120						; size = 4
_k$ = -108						; size = 4
_j$ = -96						; size = 4
_fp2$ = -84						; size = 4
_fp1$ = -72						; size = 4
_sprdata$ = -60						; size = 12
_sprhead$ = -40						; size = 12
__spradrn$ = -20					; size = 12
__$ArrayPad$ = -4					; size = 4
_SPR_BIN$ = 8						; size = 4
_SPRADRN_BIN$ = 12					; size = 4
?InitSprBinFileOpen@@YAHPAD0@Z PROC			; InitSprBinFileOpen, COMDAT

; 15   : {

  00000	55		 push	 ebp
  00001	8b ec		 mov	 ebp, esp
  00003	81 ec 60 01 00
	00		 sub	 esp, 352		; 00000160H
  00009	53		 push	 ebx
  0000a	56		 push	 esi
  0000b	57		 push	 edi
  0000c	8d bd a0 fe ff
	ff		 lea	 edi, DWORD PTR [ebp-352]
  00012	b9 58 00 00 00	 mov	 ecx, 88			; 00000058H
  00017	b8 cc cc cc cc	 mov	 eax, -858993460		; ccccccccH
  0001c	f3 ab		 rep stosd
  0001e	a1 00 00 00 00	 mov	 eax, DWORD PTR ___security_cookie
  00023	33 c5		 xor	 eax, ebp
  00025	89 45 fc	 mov	 DWORD PTR __$ArrayPad$[ebp], eax

; 16   : 	SPRADRN _spradrn;
; 17   : 	ANIM_HEADER sprhead;
; 18   : 	FRAMELIST sprdata;
; 19   : 	FILE *fp1, *fp2;
; 20   : 	int j;
; 21   : 	unsigned int k;
; 22   : 	if ((fp1 = fopen(SPR_BIN, "rb")) == NULL)

  00028	8b f4		 mov	 esi, esp
  0002a	68 00 00 00 00	 push	 OFFSET ??_C@_02JDPG@rb?$AA@
  0002f	8b 45 08	 mov	 eax, DWORD PTR _SPR_BIN$[ebp]
  00032	50		 push	 eax
  00033	ff 15 00 00 00
	00		 call	 DWORD PTR __imp__fopen
  00039	83 c4 08	 add	 esp, 8
  0003c	3b f4		 cmp	 esi, esp
  0003e	e8 00 00 00 00	 call	 __RTC_CheckEsp
  00043	89 45 b8	 mov	 DWORD PTR _fp1$[ebp], eax
  00046	83 7d b8 00	 cmp	 DWORD PTR _fp1$[ebp], 0
  0004a	75 07		 jne	 SHORT $LN19@InitSprBin

; 23   : 		return FALSE;

  0004c	33 c0		 xor	 eax, eax
  0004e	e9 2d 12 00 00	 jmp	 $LN1@InitSprBin
$LN19@InitSprBin:

; 24   : 	if ((fp2 = fopen(SPRADRN_BIN, "rb")) == NULL)

  00053	8b f4		 mov	 esi, esp
  00055	68 00 00 00 00	 push	 OFFSET ??_C@_02JDPG@rb?$AA@
  0005a	8b 45 0c	 mov	 eax, DWORD PTR _SPRADRN_BIN$[ebp]
  0005d	50		 push	 eax
  0005e	ff 15 00 00 00
	00		 call	 DWORD PTR __imp__fopen
  00064	83 c4 08	 add	 esp, 8
  00067	3b f4		 cmp	 esi, esp
  00069	e8 00 00 00 00	 call	 __RTC_CheckEsp
  0006e	89 45 ac	 mov	 DWORD PTR _fp2$[ebp], eax
  00071	83 7d ac 00	 cmp	 DWORD PTR _fp2$[ebp], 0
  00075	75 07		 jne	 SHORT $LN20@InitSprBin

; 25   : 		return FALSE;

  00077	33 c0		 xor	 eax, eax
  00079	e9 02 12 00 00	 jmp	 $LN1@InitSprBin
$LN20@InitSprBin:

; 26   : 	static BOOL Sprflg = TRUE;
; 27   : 	static BOOL Sprflg1 = TRUE;
; 28   : 	if (Sprflg) {

  0007e	83 3d 00 00 00
	00 00		 cmp	 DWORD PTR ?Sprflg@?1??InitSprBinFileOpen@@YAHPAD0@Z@4HA, 0
  00085	74 1e		 je	 SHORT $LN21@InitSprBin

; 29   : 		Sprflg = FALSE;

  00087	c7 05 00 00 00
	00 00 00 00 00	 mov	 DWORD PTR ?Sprflg@?1??InitSprBinFileOpen@@YAHPAD0@Z@4HA, 0

; 30   : 		memset(SpriteData, 0, sizeof(SpriteData));

  00091	68 00 e2 04 00	 push	 320000			; 0004e200H
  00096	6a 00		 push	 0
  00098	68 00 00 00 00	 push	 OFFSET ?SpriteData@@3PAUSPRITEDATA@@A ; SpriteData
  0009d	e8 00 00 00 00	 call	 _memset
  000a2	83 c4 0c	 add	 esp, 12			; 0000000cH
$LN21@InitSprBin:

; 31   : 	}
; 32   : 	int no = 0;

  000a5	c7 45 88 00 00
	00 00		 mov	 DWORD PTR _no$[ebp], 0
$LN2@InitSprBin:

; 33   : 	while (TRUE) {

  000ac	b8 01 00 00 00	 mov	 eax, 1
  000b1	85 c0		 test	 eax, eax
  000b3	0f 84 83 11 00
	00		 je	 $LN3@InitSprBin

; 34   : 		fread(&_spradrn, 1, sizeof(_spradrn), fp2);

  000b9	8b f4		 mov	 esi, esp
  000bb	8b 45 ac	 mov	 eax, DWORD PTR _fp2$[ebp]
  000be	50		 push	 eax
  000bf	6a 0c		 push	 12			; 0000000cH
  000c1	6a 01		 push	 1
  000c3	8d 4d ec	 lea	 ecx, DWORD PTR __spradrn$[ebp]
  000c6	51		 push	 ecx
  000c7	ff 15 00 00 00
	00		 call	 DWORD PTR __imp__fread
  000cd	83 c4 10	 add	 esp, 16			; 00000010H
  000d0	3b f4		 cmp	 esi, esp
  000d2	e8 00 00 00 00	 call	 __RTC_CheckEsp

; 35   : 		if (feof(fp2) != 0)

  000d7	8b f4		 mov	 esi, esp
  000d9	8b 45 ac	 mov	 eax, DWORD PTR _fp2$[ebp]
  000dc	50		 push	 eax
  000dd	ff 15 00 00 00
	00		 call	 DWORD PTR __imp__feof
  000e3	83 c4 04	 add	 esp, 4
  000e6	3b f4		 cmp	 esi, esp
  000e8	e8 00 00 00 00	 call	 __RTC_CheckEsp
  000ed	85 c0		 test	 eax, eax
  000ef	74 05		 je	 SHORT $LN22@InitSprBin

; 36   : 			break;

  000f1	e9 46 11 00 00	 jmp	 $LN3@InitSprBin
$LN22@InitSprBin:

; 37   : 		no = _spradrn.sprNo - SPRSTART;

  000f6	8b 45 ec	 mov	 eax, DWORD PTR __spradrn$[ebp]
  000f9	2d a0 86 01 00	 sub	 eax, 100000		; 000186a0H
  000fe	89 45 88	 mov	 DWORD PTR _no$[ebp], eax

; 38   : 		if (no > mxSPRITE) break;

  00101	81 7d 88 40 9c
	00 00		 cmp	 DWORD PTR _no$[ebp], 40000 ; 00009c40H
  00108	7e 05		 jle	 SHORT $LN23@InitSprBin
  0010a	e9 2d 11 00 00	 jmp	 $LN3@InitSprBin
$LN23@InitSprBin:

; 39   : 		SpriteData[no].animSize = _spradrn.animSize;

  0010f	8b 45 88	 mov	 eax, DWORD PTR _no$[ebp]
  00112	66 8b 4d f4	 mov	 cx, WORD PTR __spradrn$[ebp+8]
  00116	66 89 0c c5 00
	00 00 00	 mov	 WORD PTR ?SpriteData@@3PAUSPRITEDATA@@A[eax*8], cx

; 40   : 		SpriteData[no].ptAnimlist = (ANIMLIST*)calloc(SpriteData[no].animSize, sizeof(ANIMLIST));

  0011e	8b f4		 mov	 esi, esp
  00120	6a 10		 push	 16			; 00000010H
  00122	8b 45 88	 mov	 eax, DWORD PTR _no$[ebp]
  00125	0f b7 0c c5 00
	00 00 00	 movzx	 ecx, WORD PTR ?SpriteData@@3PAUSPRITEDATA@@A[eax*8]
  0012d	51		 push	 ecx
  0012e	ff 15 00 00 00
	00		 call	 DWORD PTR __imp__calloc
  00134	83 c4 08	 add	 esp, 8
  00137	3b f4		 cmp	 esi, esp
  00139	e8 00 00 00 00	 call	 __RTC_CheckEsp
  0013e	8b 55 88	 mov	 edx, DWORD PTR _no$[ebp]
  00141	89 04 d5 04 00
	00 00		 mov	 DWORD PTR ?SpriteData@@3PAUSPRITEDATA@@A[edx*8+4], eax

; 41   : 		fseek(fp1, _spradrn.offset, SEEK_SET);

  00148	8b f4		 mov	 esi, esp
  0014a	6a 00		 push	 0
  0014c	8b 45 f0	 mov	 eax, DWORD PTR __spradrn$[ebp+4]
  0014f	50		 push	 eax
  00150	8b 4d b8	 mov	 ecx, DWORD PTR _fp1$[ebp]
  00153	51		 push	 ecx
  00154	ff 15 00 00 00
	00		 call	 DWORD PTR __imp__fseek
  0015a	83 c4 0c	 add	 esp, 12			; 0000000cH
  0015d	3b f4		 cmp	 esi, esp
  0015f	e8 00 00 00 00	 call	 __RTC_CheckEsp

; 42   : 		for (j = 0; j < SpriteData[no].animSize; j++) {

  00164	c7 45 a0 00 00
	00 00		 mov	 DWORD PTR _j$[ebp], 0
  0016b	eb 09		 jmp	 SHORT $LN6@InitSprBin
$LN4@InitSprBin:
  0016d	8b 45 a0	 mov	 eax, DWORD PTR _j$[ebp]
  00170	83 c0 01	 add	 eax, 1
  00173	89 45 a0	 mov	 DWORD PTR _j$[ebp], eax
$LN6@InitSprBin:
  00176	8b 45 88	 mov	 eax, DWORD PTR _no$[ebp]
  00179	0f b7 0c c5 00
	00 00 00	 movzx	 ecx, WORD PTR ?SpriteData@@3PAUSPRITEDATA@@A[eax*8]
  00181	39 4d a0	 cmp	 DWORD PTR _j$[ebp], ecx
  00184	0f 8d c0 01 00
	00		 jge	 $LN5@InitSprBin

; 43   : 			fread(&sprhead, 1, 12, fp1);

  0018a	8b f4		 mov	 esi, esp
  0018c	8b 45 b8	 mov	 eax, DWORD PTR _fp1$[ebp]
  0018f	50		 push	 eax
  00190	6a 0c		 push	 12			; 0000000cH
  00192	6a 01		 push	 1
  00194	8d 4d d8	 lea	 ecx, DWORD PTR _sprhead$[ebp]
  00197	51		 push	 ecx
  00198	ff 15 00 00 00
	00		 call	 DWORD PTR __imp__fread
  0019e	83 c4 10	 add	 esp, 16			; 00000010H
  001a1	3b f4		 cmp	 esi, esp
  001a3	e8 00 00 00 00	 call	 __RTC_CheckEsp

; 44   : 			SpriteData[no].ptAnimlist[j].dir = sprhead.dir;

  001a8	8b 45 a0	 mov	 eax, DWORD PTR _j$[ebp]
  001ab	c1 e0 04	 shl	 eax, 4
  001ae	8b 4d 88	 mov	 ecx, DWORD PTR _no$[ebp]
  001b1	8b 14 cd 04 00
	00 00		 mov	 edx, DWORD PTR ?SpriteData@@3PAUSPRITEDATA@@A[ecx*8+4]
  001b8	66 8b 4d d8	 mov	 cx, WORD PTR _sprhead$[ebp]
  001bc	66 89 0c 02	 mov	 WORD PTR [edx+eax], cx

; 45   : 			SpriteData[no].ptAnimlist[j].no = sprhead.no;

  001c0	8b 45 a0	 mov	 eax, DWORD PTR _j$[ebp]
  001c3	c1 e0 04	 shl	 eax, 4
  001c6	8b 4d 88	 mov	 ecx, DWORD PTR _no$[ebp]
  001c9	8b 14 cd 04 00
	00 00		 mov	 edx, DWORD PTR ?SpriteData@@3PAUSPRITEDATA@@A[ecx*8+4]
  001d0	66 8b 4d da	 mov	 cx, WORD PTR _sprhead$[ebp+2]
  001d4	66 89 4c 02 02	 mov	 WORD PTR [edx+eax+2], cx

; 46   : 			if (!sprhead.frameCnt) SpriteData[no].ptAnimlist[j].dtAnim = 0;

  001d9	83 7d e0 00	 cmp	 DWORD PTR _sprhead$[ebp+8], 0
  001dd	75 1a		 jne	 SHORT $LN24@InitSprBin
  001df	8b 45 a0	 mov	 eax, DWORD PTR _j$[ebp]
  001e2	c1 e0 04	 shl	 eax, 4
  001e5	8b 4d 88	 mov	 ecx, DWORD PTR _no$[ebp]
  001e8	8b 14 cd 04 00
	00 00		 mov	 edx, DWORD PTR ?SpriteData@@3PAUSPRITEDATA@@A[ecx*8+4]
  001ef	c7 44 02 04 00
	00 00 00	 mov	 DWORD PTR [edx+eax+4], 0
  001f7	eb 1f		 jmp	 SHORT $LN25@InitSprBin
$LN24@InitSprBin:

; 47   : 			else SpriteData[no].ptAnimlist[j].dtAnim = sprhead.dtAnim / sprhead.frameCnt / 16;

  001f9	8b 45 dc	 mov	 eax, DWORD PTR _sprhead$[ebp+4]
  001fc	33 d2		 xor	 edx, edx
  001fe	f7 75 e0	 div	 DWORD PTR _sprhead$[ebp+8]
  00201	c1 e8 04	 shr	 eax, 4
  00204	8b 4d a0	 mov	 ecx, DWORD PTR _j$[ebp]
  00207	c1 e1 04	 shl	 ecx, 4
  0020a	8b 55 88	 mov	 edx, DWORD PTR _no$[ebp]
  0020d	8b 14 d5 04 00
	00 00		 mov	 edx, DWORD PTR ?SpriteData@@3PAUSPRITEDATA@@A[edx*8+4]
  00214	89 44 0a 04	 mov	 DWORD PTR [edx+ecx+4], eax
$LN25@InitSprBin:

; 48   : 			SpriteData[no].ptAnimlist[j].frameCnt = sprhead.frameCnt;

  00218	8b 45 a0	 mov	 eax, DWORD PTR _j$[ebp]
  0021b	c1 e0 04	 shl	 eax, 4
  0021e	8b 4d 88	 mov	 ecx, DWORD PTR _no$[ebp]
  00221	8b 14 cd 04 00
	00 00		 mov	 edx, DWORD PTR ?SpriteData@@3PAUSPRITEDATA@@A[ecx*8+4]
  00228	8b 4d e0	 mov	 ecx, DWORD PTR _sprhead$[ebp+8]
  0022b	89 4c 02 08	 mov	 DWORD PTR [edx+eax+8], ecx

; 49   : 			SpriteData[no].ptAnimlist[j].ptFramelist = (FRAMELIST*)calloc(SpriteData[no].ptAnimlist[j].frameCnt, sizeof(FRAMELIST));

  0022f	8b f4		 mov	 esi, esp
  00231	6a 0c		 push	 12			; 0000000cH
  00233	8b 45 a0	 mov	 eax, DWORD PTR _j$[ebp]
  00236	c1 e0 04	 shl	 eax, 4
  00239	8b 4d 88	 mov	 ecx, DWORD PTR _no$[ebp]
  0023c	8b 14 cd 04 00
	00 00		 mov	 edx, DWORD PTR ?SpriteData@@3PAUSPRITEDATA@@A[ecx*8+4]
  00243	8b 44 02 08	 mov	 eax, DWORD PTR [edx+eax+8]
  00247	50		 push	 eax
  00248	ff 15 00 00 00
	00		 call	 DWORD PTR __imp__calloc
  0024e	83 c4 08	 add	 esp, 8
  00251	3b f4		 cmp	 esi, esp
  00253	e8 00 00 00 00	 call	 __RTC_CheckEsp
  00258	8b 4d a0	 mov	 ecx, DWORD PTR _j$[ebp]
  0025b	c1 e1 04	 shl	 ecx, 4
  0025e	8b 55 88	 mov	 edx, DWORD PTR _no$[ebp]
  00261	8b 14 d5 04 00
	00 00		 mov	 edx, DWORD PTR ?SpriteData@@3PAUSPRITEDATA@@A[edx*8+4]
  00268	89 44 0a 0c	 mov	 DWORD PTR [edx+ecx+12], eax

; 50   : 			for (k = 0; k < SpriteData[no].ptAnimlist[j].frameCnt; k++) {

  0026c	c7 45 94 00 00
	00 00		 mov	 DWORD PTR _k$[ebp], 0
  00273	eb 09		 jmp	 SHORT $LN9@InitSprBin
$LN7@InitSprBin:
  00275	8b 45 94	 mov	 eax, DWORD PTR _k$[ebp]
  00278	83 c0 01	 add	 eax, 1
  0027b	89 45 94	 mov	 DWORD PTR _k$[ebp], eax
$LN9@InitSprBin:
  0027e	8b 45 a0	 mov	 eax, DWORD PTR _j$[ebp]
  00281	c1 e0 04	 shl	 eax, 4
  00284	8b 4d 88	 mov	 ecx, DWORD PTR _no$[ebp]
  00287	8b 14 cd 04 00
	00 00		 mov	 edx, DWORD PTR ?SpriteData@@3PAUSPRITEDATA@@A[ecx*8+4]
  0028e	8b 4d 94	 mov	 ecx, DWORD PTR _k$[ebp]
  00291	3b 4c 02 08	 cmp	 ecx, DWORD PTR [edx+eax+8]
  00295	0f 83 aa 00 00
	00		 jae	 $LN8@InitSprBin

; 51   : 				fread(&sprdata, 1, 10, fp1);

  0029b	8b f4		 mov	 esi, esp
  0029d	8b 45 b8	 mov	 eax, DWORD PTR _fp1$[ebp]
  002a0	50		 push	 eax
  002a1	6a 0a		 push	 10			; 0000000aH
  002a3	6a 01		 push	 1
  002a5	8d 4d c4	 lea	 ecx, DWORD PTR _sprdata$[ebp]
  002a8	51		 push	 ecx
  002a9	ff 15 00 00 00
	00		 call	 DWORD PTR __imp__fread
  002af	83 c4 10	 add	 esp, 16			; 00000010H
  002b2	3b f4		 cmp	 esi, esp
  002b4	e8 00 00 00 00	 call	 __RTC_CheckEsp

; 52   : 				SpriteData[no].ptAnimlist[j].ptFramelist[k].BmpNo = sprdata.BmpNo + nextMaxAdrnID;

  002b9	8b 45 c4	 mov	 eax, DWORD PTR _sprdata$[ebp]
  002bc	03 05 00 00 00
	00		 add	 eax, DWORD PTR ?nextMaxAdrnID@@3HA ; nextMaxAdrnID
  002c2	8b 4d a0	 mov	 ecx, DWORD PTR _j$[ebp]
  002c5	c1 e1 04	 shl	 ecx, 4
  002c8	8b 55 88	 mov	 edx, DWORD PTR _no$[ebp]
  002cb	8b 14 d5 04 00
	00 00		 mov	 edx, DWORD PTR ?SpriteData@@3PAUSPRITEDATA@@A[edx*8+4]
  002d2	6b 75 94 0c	 imul	 esi, DWORD PTR _k$[ebp], 12
  002d6	8b 4c 0a 0c	 mov	 ecx, DWORD PTR [edx+ecx+12]
  002da	89 04 31	 mov	 DWORD PTR [ecx+esi], eax

; 53   : 				SpriteData[no].ptAnimlist[j].ptFramelist[k].PosX = sprdata.PosX;

  002dd	8b 45 a0	 mov	 eax, DWORD PTR _j$[ebp]
  002e0	c1 e0 04	 shl	 eax, 4
  002e3	8b 4d 88	 mov	 ecx, DWORD PTR _no$[ebp]
  002e6	8b 14 cd 04 00
	00 00		 mov	 edx, DWORD PTR ?SpriteData@@3PAUSPRITEDATA@@A[ecx*8+4]
  002ed	6b 4d 94 0c	 imul	 ecx, DWORD PTR _k$[ebp], 12
  002f1	8b 54 02 0c	 mov	 edx, DWORD PTR [edx+eax+12]
  002f5	66 8b 45 c8	 mov	 ax, WORD PTR _sprdata$[ebp+4]
  002f9	66 89 44 0a 04	 mov	 WORD PTR [edx+ecx+4], ax

; 54   : 				SpriteData[no].ptAnimlist[j].ptFramelist[k].PosY = sprdata.PosY;

  002fe	8b 45 a0	 mov	 eax, DWORD PTR _j$[ebp]
  00301	c1 e0 04	 shl	 eax, 4
  00304	8b 4d 88	 mov	 ecx, DWORD PTR _no$[ebp]
  00307	8b 14 cd 04 00
	00 00		 mov	 edx, DWORD PTR ?SpriteData@@3PAUSPRITEDATA@@A[ecx*8+4]
  0030e	6b 4d 94 0c	 imul	 ecx, DWORD PTR _k$[ebp], 12
  00312	8b 54 02 0c	 mov	 edx, DWORD PTR [edx+eax+12]
  00316	66 8b 45 ca	 mov	 ax, WORD PTR _sprdata$[ebp+6]
  0031a	66 89 44 0a 06	 mov	 WORD PTR [edx+ecx+6], ax

; 55   : 				SpriteData[no].ptAnimlist[j].ptFramelist[k].SoundNo = sprdata.SoundNo;

  0031f	8b 45 a0	 mov	 eax, DWORD PTR _j$[ebp]
  00322	c1 e0 04	 shl	 eax, 4
  00325	8b 4d 88	 mov	 ecx, DWORD PTR _no$[ebp]
  00328	8b 14 cd 04 00
	00 00		 mov	 edx, DWORD PTR ?SpriteData@@3PAUSPRITEDATA@@A[ecx*8+4]
  0032f	6b 4d 94 0c	 imul	 ecx, DWORD PTR _k$[ebp], 12
  00333	8b 54 02 0c	 mov	 edx, DWORD PTR [edx+eax+12]
  00337	66 8b 45 cc	 mov	 ax, WORD PTR _sprdata$[ebp+8]
  0033b	66 89 44 0a 08	 mov	 WORD PTR [edx+ecx+8], ax

; 56   : 			}

  00340	e9 30 ff ff ff	 jmp	 $LN7@InitSprBin
$LN8@InitSprBin:

; 57   : 		}

  00345	e9 23 fe ff ff	 jmp	 $LN4@InitSprBin
$LN5@InitSprBin:

; 58   : 		if (no == 1059) SpriteData[1059].ptAnimlist[80].ptFramelist[8].BmpNo = 283639;

  0034a	81 7d 88 23 04
	00 00		 cmp	 DWORD PTR _no$[ebp], 1059 ; 00000423H
  00351	75 2c		 jne	 SHORT $LN26@InitSprBin
  00353	b8 08 00 00 00	 mov	 eax, 8
  00358	69 c8 23 04 00
	00		 imul	 ecx, eax, 1059
  0035e	ba 10 00 00 00	 mov	 edx, 16			; 00000010H
  00363	6b c2 50	 imul	 eax, edx, 80
  00366	8b 89 04 00 00
	00		 mov	 ecx, DWORD PTR ?SpriteData@@3PAUSPRITEDATA@@A[ecx+4]
  0036c	ba 0c 00 00 00	 mov	 edx, 12			; 0000000cH
  00371	c1 e2 03	 shl	 edx, 3
  00374	8b 44 01 0c	 mov	 eax, DWORD PTR [ecx+eax+12]
  00378	c7 04 10 f7 53
	04 00		 mov	 DWORD PTR [eax+edx], 283639 ; 000453f7H
$LN26@InitSprBin:

; 59   : 		if (no == 1059) SpriteData[1059].ptAnimlist[93].ptFramelist[8].BmpNo = 283640;

  0037f	81 7d 88 23 04
	00 00		 cmp	 DWORD PTR _no$[ebp], 1059 ; 00000423H
  00386	75 2c		 jne	 SHORT $LN27@InitSprBin
  00388	b8 08 00 00 00	 mov	 eax, 8
  0038d	69 c8 23 04 00
	00		 imul	 ecx, eax, 1059
  00393	ba 10 00 00 00	 mov	 edx, 16			; 00000010H
  00398	6b c2 5d	 imul	 eax, edx, 93
  0039b	8b 89 04 00 00
	00		 mov	 ecx, DWORD PTR ?SpriteData@@3PAUSPRITEDATA@@A[ecx+4]
  003a1	ba 0c 00 00 00	 mov	 edx, 12			; 0000000cH
  003a6	c1 e2 03	 shl	 edx, 3
  003a9	8b 44 01 0c	 mov	 eax, DWORD PTR [ecx+eax+12]
  003ad	c7 04 10 f8 53
	04 00		 mov	 DWORD PTR [eax+edx], 283640 ; 000453f8H
$LN27@InitSprBin:

; 60   : 		if (no == 1283) SpriteData[1283].ptAnimlist[7].ptFramelist[6].SoundNo = 10100;

  003b4	81 7d 88 03 05
	00 00		 cmp	 DWORD PTR _no$[ebp], 1283 ; 00000503H
  003bb	75 2f		 jne	 SHORT $LN28@InitSprBin
  003bd	b8 08 00 00 00	 mov	 eax, 8
  003c2	69 c8 03 05 00
	00		 imul	 ecx, eax, 1283
  003c8	ba 10 00 00 00	 mov	 edx, 16			; 00000010H
  003cd	6b c2 07	 imul	 eax, edx, 7
  003d0	8b 89 04 00 00
	00		 mov	 ecx, DWORD PTR ?SpriteData@@3PAUSPRITEDATA@@A[ecx+4]
  003d6	ba 0c 00 00 00	 mov	 edx, 12			; 0000000cH
  003db	6b d2 06	 imul	 edx, edx, 6
  003de	8b 44 01 0c	 mov	 eax, DWORD PTR [ecx+eax+12]
  003e2	b9 74 27 00 00	 mov	 ecx, 10100		; 00002774H
  003e7	66 89 4c 10 08	 mov	 WORD PTR [eax+edx+8], cx
$LN28@InitSprBin:

; 61   : 		if (no == 1283) SpriteData[1283].ptAnimlist[49].ptFramelist[6].SoundNo = 10100;

  003ec	81 7d 88 03 05
	00 00		 cmp	 DWORD PTR _no$[ebp], 1283 ; 00000503H
  003f3	75 2f		 jne	 SHORT $LN29@InitSprBin
  003f5	b8 08 00 00 00	 mov	 eax, 8
  003fa	69 c8 03 05 00
	00		 imul	 ecx, eax, 1283
  00400	ba 10 00 00 00	 mov	 edx, 16			; 00000010H
  00405	6b c2 31	 imul	 eax, edx, 49
  00408	8b 89 04 00 00
	00		 mov	 ecx, DWORD PTR ?SpriteData@@3PAUSPRITEDATA@@A[ecx+4]
  0040e	ba 0c 00 00 00	 mov	 edx, 12			; 0000000cH
  00413	6b d2 06	 imul	 edx, edx, 6
  00416	8b 44 01 0c	 mov	 eax, DWORD PTR [ecx+eax+12]
  0041a	b9 74 27 00 00	 mov	 ecx, 10100		; 00002774H
  0041f	66 89 4c 10 08	 mov	 WORD PTR [eax+edx+8], cx
$LN29@InitSprBin:

; 62   : 		if (no == 1404) SpriteData[1404].ptAnimlist[0].ptFramelist[6].BmpNo = 284436;

  00424	81 7d 88 7c 05
	00 00		 cmp	 DWORD PTR _no$[ebp], 1404 ; 0000057cH
  0042b	75 2c		 jne	 SHORT $LN30@InitSprBin
  0042d	b8 08 00 00 00	 mov	 eax, 8
  00432	69 c8 7c 05 00
	00		 imul	 ecx, eax, 1404
  00438	ba 10 00 00 00	 mov	 edx, 16			; 00000010H
  0043d	6b c2 00	 imul	 eax, edx, 0
  00440	8b 89 04 00 00
	00		 mov	 ecx, DWORD PTR ?SpriteData@@3PAUSPRITEDATA@@A[ecx+4]
  00446	ba 0c 00 00 00	 mov	 edx, 12			; 0000000cH
  0044b	6b d2 06	 imul	 edx, edx, 6
  0044e	8b 44 01 0c	 mov	 eax, DWORD PTR [ecx+eax+12]
  00452	c7 04 10 14 57
	04 00		 mov	 DWORD PTR [eax+edx], 284436 ; 00045714H
$LN30@InitSprBin:

; 63   : 		if (no == 1409) SpriteData[1409].ptAnimlist[0].ptFramelist[6].BmpNo = 284476;

  00459	81 7d 88 81 05
	00 00		 cmp	 DWORD PTR _no$[ebp], 1409 ; 00000581H
  00460	75 2c		 jne	 SHORT $LN31@InitSprBin
  00462	b8 08 00 00 00	 mov	 eax, 8
  00467	69 c8 81 05 00
	00		 imul	 ecx, eax, 1409
  0046d	ba 10 00 00 00	 mov	 edx, 16			; 00000010H
  00472	6b c2 00	 imul	 eax, edx, 0
  00475	8b 89 04 00 00
	00		 mov	 ecx, DWORD PTR ?SpriteData@@3PAUSPRITEDATA@@A[ecx+4]
  0047b	ba 0c 00 00 00	 mov	 edx, 12			; 0000000cH
  00480	6b d2 06	 imul	 edx, edx, 6
  00483	8b 44 01 0c	 mov	 eax, DWORD PTR [ecx+eax+12]
  00487	c7 04 10 3c 57
	04 00		 mov	 DWORD PTR [eax+edx], 284476 ; 0004573cH
$LN31@InitSprBin:

; 64   : 		if (no == 373)

  0048e	81 7d 88 75 01
	00 00		 cmp	 DWORD PTR _no$[ebp], 373 ; 00000175H
  00495	0f 85 c0 00 00
	00		 jne	 $LN32@InitSprBin

; 65   : 			for (int kk = 0; kk < 8; kk++) {

  0049b	c7 85 7c ff ff
	ff 00 00 00 00	 mov	 DWORD PTR _kk$3[ebp], 0
  004a5	eb 0f		 jmp	 SHORT $LN12@InitSprBin
$LN10@InitSprBin:
  004a7	8b 85 7c ff ff
	ff		 mov	 eax, DWORD PTR _kk$3[ebp]
  004ad	83 c0 01	 add	 eax, 1
  004b0	89 85 7c ff ff
	ff		 mov	 DWORD PTR _kk$3[ebp], eax
$LN12@InitSprBin:
  004b6	83 bd 7c ff ff
	ff 08		 cmp	 DWORD PTR _kk$3[ebp], 8
  004bd	0f 8d 98 00 00
	00		 jge	 $LN32@InitSprBin

; 66   : 				SpriteData[373].ptAnimlist[kk * 7].ptFramelist[8].SoundNo = 254;

  004c3	b8 08 00 00 00	 mov	 eax, 8
  004c8	69 c8 75 01 00
	00		 imul	 ecx, eax, 373
  004ce	6b 95 7c ff ff
	ff 07		 imul	 edx, DWORD PTR _kk$3[ebp], 7
  004d5	c1 e2 04	 shl	 edx, 4
  004d8	8b 81 04 00 00
	00		 mov	 eax, DWORD PTR ?SpriteData@@3PAUSPRITEDATA@@A[ecx+4]
  004de	b9 0c 00 00 00	 mov	 ecx, 12			; 0000000cH
  004e3	c1 e1 03	 shl	 ecx, 3
  004e6	8b 54 10 0c	 mov	 edx, DWORD PTR [eax+edx+12]
  004ea	b8 fe 00 00 00	 mov	 eax, 254		; 000000feH
  004ef	66 89 44 0a 08	 mov	 WORD PTR [edx+ecx+8], ax

; 67   : 				SpriteData[373].ptAnimlist[kk * 7].ptFramelist[10].SoundNo = 254;

  004f4	b8 08 00 00 00	 mov	 eax, 8
  004f9	69 c8 75 01 00
	00		 imul	 ecx, eax, 373
  004ff	6b 95 7c ff ff
	ff 07		 imul	 edx, DWORD PTR _kk$3[ebp], 7
  00506	c1 e2 04	 shl	 edx, 4
  00509	8b 81 04 00 00
	00		 mov	 eax, DWORD PTR ?SpriteData@@3PAUSPRITEDATA@@A[ecx+4]
  0050f	b9 0c 00 00 00	 mov	 ecx, 12			; 0000000cH
  00514	6b c9 0a	 imul	 ecx, ecx, 10
  00517	8b 54 10 0c	 mov	 edx, DWORD PTR [eax+edx+12]
  0051b	b8 fe 00 00 00	 mov	 eax, 254		; 000000feH
  00520	66 89 44 0a 08	 mov	 WORD PTR [edx+ecx+8], ax

; 68   : 				SpriteData[373].ptAnimlist[kk * 7].ptFramelist[15].SoundNo = 250;

  00525	b8 08 00 00 00	 mov	 eax, 8
  0052a	69 c8 75 01 00
	00		 imul	 ecx, eax, 373
  00530	6b 95 7c ff ff
	ff 07		 imul	 edx, DWORD PTR _kk$3[ebp], 7
  00537	c1 e2 04	 shl	 edx, 4
  0053a	8b 81 04 00 00
	00		 mov	 eax, DWORD PTR ?SpriteData@@3PAUSPRITEDATA@@A[ecx+4]
  00540	b9 0c 00 00 00	 mov	 ecx, 12			; 0000000cH
  00545	6b c9 0f	 imul	 ecx, ecx, 15
  00548	8b 54 10 0c	 mov	 edx, DWORD PTR [eax+edx+12]
  0054c	b8 fa 00 00 00	 mov	 eax, 250		; 000000faH
  00551	66 89 44 0a 08	 mov	 WORD PTR [edx+ecx+8], ax

; 69   : 			}

  00556	e9 4c ff ff ff	 jmp	 $LN10@InitSprBin
$LN32@InitSprBin:

; 70   : 		if (no == 102) SpriteData[102].ptAnimlist[82].ptFramelist[0].BmpNo = 126235;

  0055b	83 7d 88 66	 cmp	 DWORD PTR _no$[ebp], 102 ; 00000066H
  0055f	75 29		 jne	 SHORT $LN33@InitSprBin
  00561	b8 08 00 00 00	 mov	 eax, 8
  00566	6b c8 66	 imul	 ecx, eax, 102
  00569	ba 10 00 00 00	 mov	 edx, 16			; 00000010H
  0056e	6b c2 52	 imul	 eax, edx, 82
  00571	8b 89 04 00 00
	00		 mov	 ecx, DWORD PTR ?SpriteData@@3PAUSPRITEDATA@@A[ecx+4]
  00577	ba 0c 00 00 00	 mov	 edx, 12			; 0000000cH
  0057c	6b d2 00	 imul	 edx, edx, 0
  0057f	8b 44 01 0c	 mov	 eax, DWORD PTR [ecx+eax+12]
  00583	c7 04 10 1b ed
	01 00		 mov	 DWORD PTR [eax+edx], 126235 ; 0001ed1bH
$LN33@InitSprBin:

; 71   : 		if (no == 102) SpriteData[102].ptAnimlist[83].ptFramelist[0].BmpNo = 126236;

  0058a	83 7d 88 66	 cmp	 DWORD PTR _no$[ebp], 102 ; 00000066H
  0058e	75 29		 jne	 SHORT $LN34@InitSprBin
  00590	b8 08 00 00 00	 mov	 eax, 8
  00595	6b c8 66	 imul	 ecx, eax, 102
  00598	ba 10 00 00 00	 mov	 edx, 16			; 00000010H
  0059d	6b c2 53	 imul	 eax, edx, 83
  005a0	8b 89 04 00 00
	00		 mov	 ecx, DWORD PTR ?SpriteData@@3PAUSPRITEDATA@@A[ecx+4]
  005a6	ba 0c 00 00 00	 mov	 edx, 12			; 0000000cH
  005ab	6b d2 00	 imul	 edx, edx, 0
  005ae	8b 44 01 0c	 mov	 eax, DWORD PTR [ecx+eax+12]
  005b2	c7 04 10 1c ed
	01 00		 mov	 DWORD PTR [eax+edx], 126236 ; 0001ed1cH
$LN34@InitSprBin:

; 72   : 		if (no == 102) SpriteData[102].ptAnimlist[83].ptFramelist[1].BmpNo = 126237;

  005b9	83 7d 88 66	 cmp	 DWORD PTR _no$[ebp], 102 ; 00000066H
  005bd	75 29		 jne	 SHORT $LN35@InitSprBin
  005bf	b8 08 00 00 00	 mov	 eax, 8
  005c4	6b c8 66	 imul	 ecx, eax, 102
  005c7	ba 10 00 00 00	 mov	 edx, 16			; 00000010H
  005cc	6b c2 53	 imul	 eax, edx, 83
  005cf	8b 89 04 00 00
	00		 mov	 ecx, DWORD PTR ?SpriteData@@3PAUSPRITEDATA@@A[ecx+4]
  005d5	ba 0c 00 00 00	 mov	 edx, 12			; 0000000cH
  005da	c1 e2 00	 shl	 edx, 0
  005dd	8b 44 01 0c	 mov	 eax, DWORD PTR [ecx+eax+12]
  005e1	c7 04 10 1d ed
	01 00		 mov	 DWORD PTR [eax+edx], 126237 ; 0001ed1dH
$LN35@InitSprBin:

; 73   : 		if (no == 102) SpriteData[102].ptAnimlist[84].ptFramelist[1].BmpNo = 126238;

  005e8	83 7d 88 66	 cmp	 DWORD PTR _no$[ebp], 102 ; 00000066H
  005ec	75 29		 jne	 SHORT $LN36@InitSprBin
  005ee	b8 08 00 00 00	 mov	 eax, 8
  005f3	6b c8 66	 imul	 ecx, eax, 102
  005f6	ba 10 00 00 00	 mov	 edx, 16			; 00000010H
  005fb	6b c2 54	 imul	 eax, edx, 84
  005fe	8b 89 04 00 00
	00		 mov	 ecx, DWORD PTR ?SpriteData@@3PAUSPRITEDATA@@A[ecx+4]
  00604	ba 0c 00 00 00	 mov	 edx, 12			; 0000000cH
  00609	c1 e2 00	 shl	 edx, 0
  0060c	8b 44 01 0c	 mov	 eax, DWORD PTR [ecx+eax+12]
  00610	c7 04 10 1e ed
	01 00		 mov	 DWORD PTR [eax+edx], 126238 ; 0001ed1eH
$LN36@InitSprBin:

; 74   : 		if (no == 1058) SpriteData[1058].ptAnimlist[80].ptFramelist[8].BmpNo = 232475;

  00617	81 7d 88 22 04
	00 00		 cmp	 DWORD PTR _no$[ebp], 1058 ; 00000422H
  0061e	75 2c		 jne	 SHORT $LN37@InitSprBin
  00620	b8 08 00 00 00	 mov	 eax, 8
  00625	69 c8 22 04 00
	00		 imul	 ecx, eax, 1058
  0062b	ba 10 00 00 00	 mov	 edx, 16			; 00000010H
  00630	6b c2 50	 imul	 eax, edx, 80
  00633	8b 89 04 00 00
	00		 mov	 ecx, DWORD PTR ?SpriteData@@3PAUSPRITEDATA@@A[ecx+4]
  00639	ba 0c 00 00 00	 mov	 edx, 12			; 0000000cH
  0063e	c1 e2 03	 shl	 edx, 3
  00641	8b 44 01 0c	 mov	 eax, DWORD PTR [ecx+eax+12]
  00645	c7 04 10 1b 8c
	03 00		 mov	 DWORD PTR [eax+edx], 232475 ; 00038c1bH
$LN37@InitSprBin:

; 75   : 		if (no == 1058) SpriteData[1058].ptAnimlist[93].ptFramelist[8].BmpNo = 232476;

  0064c	81 7d 88 22 04
	00 00		 cmp	 DWORD PTR _no$[ebp], 1058 ; 00000422H
  00653	75 2c		 jne	 SHORT $LN38@InitSprBin
  00655	b8 08 00 00 00	 mov	 eax, 8
  0065a	69 c8 22 04 00
	00		 imul	 ecx, eax, 1058
  00660	ba 10 00 00 00	 mov	 edx, 16			; 00000010H
  00665	6b c2 5d	 imul	 eax, edx, 93
  00668	8b 89 04 00 00
	00		 mov	 ecx, DWORD PTR ?SpriteData@@3PAUSPRITEDATA@@A[ecx+4]
  0066e	ba 0c 00 00 00	 mov	 edx, 12			; 0000000cH
  00673	c1 e2 03	 shl	 edx, 3
  00676	8b 44 01 0c	 mov	 eax, DWORD PTR [ecx+eax+12]
  0067a	c7 04 10 1c 8c
	03 00		 mov	 DWORD PTR [eax+edx], 232476 ; 00038c1cH
$LN38@InitSprBin:

; 76   : 
; 77   : 		if (no == 260) SpriteData[260].ptAnimlist[21].ptFramelist[5].SoundNo = 10001;

  00681	81 7d 88 04 01
	00 00		 cmp	 DWORD PTR _no$[ebp], 260 ; 00000104H
  00688	75 2f		 jne	 SHORT $LN39@InitSprBin
  0068a	b8 08 00 00 00	 mov	 eax, 8
  0068f	69 c8 04 01 00
	00		 imul	 ecx, eax, 260
  00695	ba 10 00 00 00	 mov	 edx, 16			; 00000010H
  0069a	6b c2 15	 imul	 eax, edx, 21
  0069d	8b 89 04 00 00
	00		 mov	 ecx, DWORD PTR ?SpriteData@@3PAUSPRITEDATA@@A[ecx+4]
  006a3	ba 0c 00 00 00	 mov	 edx, 12			; 0000000cH
  006a8	6b d2 05	 imul	 edx, edx, 5
  006ab	8b 44 01 0c	 mov	 eax, DWORD PTR [ecx+eax+12]
  006af	b9 11 27 00 00	 mov	 ecx, 10001		; 00002711H
  006b4	66 89 4c 10 08	 mov	 WORD PTR [eax+edx+8], cx
$LN39@InitSprBin:

; 78   : 		if (no == 502) SpriteData[502].animSize = 1;

  006b9	81 7d 88 f6 01
	00 00		 cmp	 DWORD PTR _no$[ebp], 502 ; 000001f6H
  006c0	75 17		 jne	 SHORT $LN40@InitSprBin
  006c2	b8 08 00 00 00	 mov	 eax, 8
  006c7	69 c8 f6 01 00
	00		 imul	 ecx, eax, 502
  006cd	ba 01 00 00 00	 mov	 edx, 1
  006d2	66 89 91 00 00
	00 00		 mov	 WORD PTR ?SpriteData@@3PAUSPRITEDATA@@A[ecx], dx
$LN40@InitSprBin:

; 79   : 		if (no == 502) SpriteData[502].ptAnimlist = (ANIMLIST*)calloc(SpriteData[502].animSize, sizeof(ANIMLIST));

  006d9	81 7d 88 f6 01
	00 00		 cmp	 DWORD PTR _no$[ebp], 502 ; 000001f6H
  006e0	75 38		 jne	 SHORT $LN41@InitSprBin
  006e2	8b f4		 mov	 esi, esp
  006e4	6a 10		 push	 16			; 00000010H
  006e6	b8 08 00 00 00	 mov	 eax, 8
  006eb	69 c8 f6 01 00
	00		 imul	 ecx, eax, 502
  006f1	0f b7 91 00 00
	00 00		 movzx	 edx, WORD PTR ?SpriteData@@3PAUSPRITEDATA@@A[ecx]
  006f8	52		 push	 edx
  006f9	ff 15 00 00 00
	00		 call	 DWORD PTR __imp__calloc
  006ff	83 c4 08	 add	 esp, 8
  00702	3b f4		 cmp	 esi, esp
  00704	e8 00 00 00 00	 call	 __RTC_CheckEsp
  00709	b9 08 00 00 00	 mov	 ecx, 8
  0070e	69 d1 f6 01 00
	00		 imul	 edx, ecx, 502
  00714	89 82 04 00 00
	00		 mov	 DWORD PTR ?SpriteData@@3PAUSPRITEDATA@@A[edx+4], eax
$LN41@InitSprBin:

; 80   : 		if (no == 502) SpriteData[502].ptAnimlist[0].dir = 0;

  0071a	81 7d 88 f6 01
	00 00		 cmp	 DWORD PTR _no$[ebp], 502 ; 000001f6H
  00721	75 1f		 jne	 SHORT $LN42@InitSprBin
  00723	b8 08 00 00 00	 mov	 eax, 8
  00728	69 c8 f6 01 00
	00		 imul	 ecx, eax, 502
  0072e	ba 10 00 00 00	 mov	 edx, 16			; 00000010H
  00733	6b c2 00	 imul	 eax, edx, 0
  00736	8b 89 04 00 00
	00		 mov	 ecx, DWORD PTR ?SpriteData@@3PAUSPRITEDATA@@A[ecx+4]
  0073c	33 d2		 xor	 edx, edx
  0073e	66 89 14 01	 mov	 WORD PTR [ecx+eax], dx
$LN42@InitSprBin:

; 81   : 		if (no == 502) SpriteData[502].ptAnimlist[0].no = 0;

  00742	81 7d 88 f6 01
	00 00		 cmp	 DWORD PTR _no$[ebp], 502 ; 000001f6H
  00749	75 20		 jne	 SHORT $LN43@InitSprBin
  0074b	b8 08 00 00 00	 mov	 eax, 8
  00750	69 c8 f6 01 00
	00		 imul	 ecx, eax, 502
  00756	ba 10 00 00 00	 mov	 edx, 16			; 00000010H
  0075b	6b c2 00	 imul	 eax, edx, 0
  0075e	8b 89 04 00 00
	00		 mov	 ecx, DWORD PTR ?SpriteData@@3PAUSPRITEDATA@@A[ecx+4]
  00764	33 d2		 xor	 edx, edx
  00766	66 89 54 01 02	 mov	 WORD PTR [ecx+eax+2], dx
$LN43@InitSprBin:

; 82   : 		if (no == 502) SpriteData[502].ptAnimlist[0].dtAnim = 4;

  0076b	81 7d 88 f6 01
	00 00		 cmp	 DWORD PTR _no$[ebp], 502 ; 000001f6H
  00772	75 21		 jne	 SHORT $LN44@InitSprBin
  00774	b8 08 00 00 00	 mov	 eax, 8
  00779	69 c8 f6 01 00
	00		 imul	 ecx, eax, 502
  0077f	ba 10 00 00 00	 mov	 edx, 16			; 00000010H
  00784	6b c2 00	 imul	 eax, edx, 0
  00787	8b 89 04 00 00
	00		 mov	 ecx, DWORD PTR ?SpriteData@@3PAUSPRITEDATA@@A[ecx+4]
  0078d	c7 44 01 04 04
	00 00 00	 mov	 DWORD PTR [ecx+eax+4], 4
$LN44@InitSprBin:

; 83   : 		if (no == 502) SpriteData[502].ptAnimlist[0].frameCnt = 3;

  00795	81 7d 88 f6 01
	00 00		 cmp	 DWORD PTR _no$[ebp], 502 ; 000001f6H
  0079c	75 21		 jne	 SHORT $LN45@InitSprBin
  0079e	b8 08 00 00 00	 mov	 eax, 8
  007a3	69 c8 f6 01 00
	00		 imul	 ecx, eax, 502
  007a9	ba 10 00 00 00	 mov	 edx, 16			; 00000010H
  007ae	6b c2 00	 imul	 eax, edx, 0
  007b1	8b 89 04 00 00
	00		 mov	 ecx, DWORD PTR ?SpriteData@@3PAUSPRITEDATA@@A[ecx+4]
  007b7	c7 44 01 08 03
	00 00 00	 mov	 DWORD PTR [ecx+eax+8], 3
$LN45@InitSprBin:

; 84   : 		if (no == 502) SpriteData[502].ptAnimlist[0].ptFramelist = (FRAMELIST*)calloc(SpriteData[502].ptAnimlist[0].frameCnt, sizeof(FRAMELIST));

  007bf	81 7d 88 f6 01
	00 00		 cmp	 DWORD PTR _no$[ebp], 502 ; 000001f6H
  007c6	75 4f		 jne	 SHORT $LN46@InitSprBin
  007c8	8b f4		 mov	 esi, esp
  007ca	6a 0c		 push	 12			; 0000000cH
  007cc	b8 08 00 00 00	 mov	 eax, 8
  007d1	69 c8 f6 01 00
	00		 imul	 ecx, eax, 502
  007d7	ba 10 00 00 00	 mov	 edx, 16			; 00000010H
  007dc	6b c2 00	 imul	 eax, edx, 0
  007df	8b 89 04 00 00
	00		 mov	 ecx, DWORD PTR ?SpriteData@@3PAUSPRITEDATA@@A[ecx+4]
  007e5	8b 54 01 08	 mov	 edx, DWORD PTR [ecx+eax+8]
  007e9	52		 push	 edx
  007ea	ff 15 00 00 00
	00		 call	 DWORD PTR __imp__calloc
  007f0	83 c4 08	 add	 esp, 8
  007f3	3b f4		 cmp	 esi, esp
  007f5	e8 00 00 00 00	 call	 __RTC_CheckEsp
  007fa	b9 08 00 00 00	 mov	 ecx, 8
  007ff	69 d1 f6 01 00
	00		 imul	 edx, ecx, 502
  00805	b9 10 00 00 00	 mov	 ecx, 16			; 00000010H
  0080a	6b c9 00	 imul	 ecx, ecx, 0
  0080d	8b 92 04 00 00
	00		 mov	 edx, DWORD PTR ?SpriteData@@3PAUSPRITEDATA@@A[edx+4]
  00813	89 44 0a 0c	 mov	 DWORD PTR [edx+ecx+12], eax
$LN46@InitSprBin:

; 85   : 		int iTemp = 8590;

  00817	c7 85 70 ff ff
	ff 8e 21 00 00	 mov	 DWORD PTR _iTemp$2[ebp], 8590 ; 0000218eH

; 86   : 		if (no == 382) {

  00821	81 7d 88 7e 01
	00 00		 cmp	 DWORD PTR _no$[ebp], 382 ; 0000017eH
  00828	0f 85 b0 04 00
	00		 jne	 $LN47@InitSprBin

; 87   : 			for (int kkk = 0; kkk < 8; kkk++) {

  0082e	c7 85 64 ff ff
	ff 00 00 00 00	 mov	 DWORD PTR _kkk$1[ebp], 0
  00838	eb 0f		 jmp	 SHORT $LN15@InitSprBin
$LN13@InitSprBin:
  0083a	8b 85 64 ff ff
	ff		 mov	 eax, DWORD PTR _kkk$1[ebp]
  00840	83 c0 01	 add	 eax, 1
  00843	89 85 64 ff ff
	ff		 mov	 DWORD PTR _kkk$1[ebp], eax
$LN15@InitSprBin:
  00849	83 bd 64 ff ff
	ff 08		 cmp	 DWORD PTR _kkk$1[ebp], 8
  00850	0f 8d 88 04 00
	00		 jge	 $LN47@InitSprBin

; 88   : 				SpriteData[382].ptAnimlist[7 * kkk].frameCnt = 14;

  00856	b8 08 00 00 00	 mov	 eax, 8
  0085b	69 c8 7e 01 00
	00		 imul	 ecx, eax, 382
  00861	6b 95 64 ff ff
	ff 07		 imul	 edx, DWORD PTR _kkk$1[ebp], 7
  00868	c1 e2 04	 shl	 edx, 4
  0086b	8b 81 04 00 00
	00		 mov	 eax, DWORD PTR ?SpriteData@@3PAUSPRITEDATA@@A[ecx+4]
  00871	c7 44 10 08 0e
	00 00 00	 mov	 DWORD PTR [eax+edx+8], 14 ; 0000000eH

; 89   : 				free(SpriteData[382].ptAnimlist[7 * kkk].ptFramelist);

  00879	b8 08 00 00 00	 mov	 eax, 8
  0087e	69 c8 7e 01 00
	00		 imul	 ecx, eax, 382
  00884	6b 95 64 ff ff
	ff 07		 imul	 edx, DWORD PTR _kkk$1[ebp], 7
  0088b	c1 e2 04	 shl	 edx, 4
  0088e	8b 81 04 00 00
	00		 mov	 eax, DWORD PTR ?SpriteData@@3PAUSPRITEDATA@@A[ecx+4]
  00894	8b f4		 mov	 esi, esp
  00896	8b 4c 10 0c	 mov	 ecx, DWORD PTR [eax+edx+12]
  0089a	51		 push	 ecx
  0089b	ff 15 00 00 00
	00		 call	 DWORD PTR __imp__free
  008a1	83 c4 04	 add	 esp, 4
  008a4	3b f4		 cmp	 esi, esp
  008a6	e8 00 00 00 00	 call	 __RTC_CheckEsp

; 90   : 				SpriteData[382].ptAnimlist[7 * kkk].ptFramelist = (FRAMELIST*)calloc(SpriteData[382].ptAnimlist[7 * kkk].frameCnt, sizeof(FRAMELIST));

  008ab	8b f4		 mov	 esi, esp
  008ad	6a 0c		 push	 12			; 0000000cH
  008af	b8 08 00 00 00	 mov	 eax, 8
  008b4	69 c8 7e 01 00
	00		 imul	 ecx, eax, 382
  008ba	6b 95 64 ff ff
	ff 07		 imul	 edx, DWORD PTR _kkk$1[ebp], 7
  008c1	c1 e2 04	 shl	 edx, 4
  008c4	8b 81 04 00 00
	00		 mov	 eax, DWORD PTR ?SpriteData@@3PAUSPRITEDATA@@A[ecx+4]
  008ca	8b 4c 10 08	 mov	 ecx, DWORD PTR [eax+edx+8]
  008ce	51		 push	 ecx
  008cf	ff 15 00 00 00
	00		 call	 DWORD PTR __imp__calloc
  008d5	83 c4 08	 add	 esp, 8
  008d8	3b f4		 cmp	 esi, esp
  008da	e8 00 00 00 00	 call	 __RTC_CheckEsp
  008df	ba 08 00 00 00	 mov	 edx, 8
  008e4	69 ca 7e 01 00
	00		 imul	 ecx, edx, 382
  008ea	6b 95 64 ff ff
	ff 07		 imul	 edx, DWORD PTR _kkk$1[ebp], 7
  008f1	c1 e2 04	 shl	 edx, 4
  008f4	8b 89 04 00 00
	00		 mov	 ecx, DWORD PTR ?SpriteData@@3PAUSPRITEDATA@@A[ecx+4]
  008fa	89 44 11 0c	 mov	 DWORD PTR [ecx+edx+12], eax

; 91   : 				SpriteData[382].ptAnimlist[7 * kkk].ptFramelist[4].SoundNo = SpriteData[381].ptAnimlist[0].ptFramelist[4].SoundNo;

  008fe	b8 08 00 00 00	 mov	 eax, 8
  00903	69 c8 7d 01 00
	00		 imul	 ecx, eax, 381
  00909	ba 10 00 00 00	 mov	 edx, 16			; 00000010H
  0090e	6b c2 00	 imul	 eax, edx, 0
  00911	8b 89 04 00 00
	00		 mov	 ecx, DWORD PTR ?SpriteData@@3PAUSPRITEDATA@@A[ecx+4]
  00917	ba 0c 00 00 00	 mov	 edx, 12			; 0000000cH
  0091c	c1 e2 02	 shl	 edx, 2
  0091f	8b 44 01 0c	 mov	 eax, DWORD PTR [ecx+eax+12]
  00923	b9 08 00 00 00	 mov	 ecx, 8
  00928	69 c9 7e 01 00
	00		 imul	 ecx, ecx, 382
  0092e	6b b5 64 ff ff
	ff 07		 imul	 esi, DWORD PTR _kkk$1[ebp], 7
  00935	c1 e6 04	 shl	 esi, 4
  00938	8b 89 04 00 00
	00		 mov	 ecx, DWORD PTR ?SpriteData@@3PAUSPRITEDATA@@A[ecx+4]
  0093e	bf 0c 00 00 00	 mov	 edi, 12			; 0000000cH
  00943	c1 e7 02	 shl	 edi, 2
  00946	8b 4c 31 0c	 mov	 ecx, DWORD PTR [ecx+esi+12]
  0094a	66 8b 54 10 08	 mov	 dx, WORD PTR [eax+edx+8]
  0094f	66 89 54 39 08	 mov	 WORD PTR [ecx+edi+8], dx

; 92   : 				SpriteData[382].ptAnimlist[7 * kkk].ptFramelist[9].SoundNo = SpriteData[381].ptAnimlist[0].ptFramelist[9].SoundNo;

  00954	b8 08 00 00 00	 mov	 eax, 8
  00959	69 c8 7d 01 00
	00		 imul	 ecx, eax, 381
  0095f	ba 10 00 00 00	 mov	 edx, 16			; 00000010H
  00964	6b c2 00	 imul	 eax, edx, 0
  00967	8b 89 04 00 00
	00		 mov	 ecx, DWORD PTR ?SpriteData@@3PAUSPRITEDATA@@A[ecx+4]
  0096d	ba 0c 00 00 00	 mov	 edx, 12			; 0000000cH
  00972	6b d2 09	 imul	 edx, edx, 9
  00975	8b 44 01 0c	 mov	 eax, DWORD PTR [ecx+eax+12]
  00979	b9 08 00 00 00	 mov	 ecx, 8
  0097e	69 c9 7e 01 00
	00		 imul	 ecx, ecx, 382
  00984	6b b5 64 ff ff
	ff 07		 imul	 esi, DWORD PTR _kkk$1[ebp], 7
  0098b	c1 e6 04	 shl	 esi, 4
  0098e	8b 89 04 00 00
	00		 mov	 ecx, DWORD PTR ?SpriteData@@3PAUSPRITEDATA@@A[ecx+4]
  00994	bf 0c 00 00 00	 mov	 edi, 12			; 0000000cH
  00999	6b ff 09	 imul	 edi, edi, 9
  0099c	8b 4c 31 0c	 mov	 ecx, DWORD PTR [ecx+esi+12]
  009a0	66 8b 54 10 08	 mov	 dx, WORD PTR [eax+edx+8]
  009a5	66 89 54 39 08	 mov	 WORD PTR [ecx+edi+8], dx

; 93   : 				SpriteData[382].ptAnimlist[7 * kkk].dtAnim = SpriteData[381].ptAnimlist[0].dtAnim;

  009aa	b8 08 00 00 00	 mov	 eax, 8
  009af	69 c8 7d 01 00
	00		 imul	 ecx, eax, 381
  009b5	ba 10 00 00 00	 mov	 edx, 16			; 00000010H
  009ba	6b c2 00	 imul	 eax, edx, 0
  009bd	8b 89 04 00 00
	00		 mov	 ecx, DWORD PTR ?SpriteData@@3PAUSPRITEDATA@@A[ecx+4]
  009c3	ba 08 00 00 00	 mov	 edx, 8
  009c8	69 d2 7e 01 00
	00		 imul	 edx, edx, 382
  009ce	6b b5 64 ff ff
	ff 07		 imul	 esi, DWORD PTR _kkk$1[ebp], 7
  009d5	c1 e6 04	 shl	 esi, 4
  009d8	8b 92 04 00 00
	00		 mov	 edx, DWORD PTR ?SpriteData@@3PAUSPRITEDATA@@A[edx+4]
  009de	8b 44 01 04	 mov	 eax, DWORD PTR [ecx+eax+4]
  009e2	89 44 32 04	 mov	 DWORD PTR [edx+esi+4], eax

; 94   : 				SpriteData[382].ptAnimlist[7 * kkk].ptFramelist[0].BmpNo = 124604 + kkk * 29;

  009e6	6b 85 64 ff ff
	ff 1d		 imul	 eax, DWORD PTR _kkk$1[ebp], 29
  009ed	05 bc e6 01 00	 add	 eax, 124604		; 0001e6bcH
  009f2	b9 08 00 00 00	 mov	 ecx, 8
  009f7	69 d1 7e 01 00
	00		 imul	 edx, ecx, 382
  009fd	6b 8d 64 ff ff
	ff 07		 imul	 ecx, DWORD PTR _kkk$1[ebp], 7
  00a04	c1 e1 04	 shl	 ecx, 4
  00a07	8b 92 04 00 00
	00		 mov	 edx, DWORD PTR ?SpriteData@@3PAUSPRITEDATA@@A[edx+4]
  00a0d	be 0c 00 00 00	 mov	 esi, 12			; 0000000cH
  00a12	6b f6 00	 imul	 esi, esi, 0
  00a15	8b 4c 0a 0c	 mov	 ecx, DWORD PTR [edx+ecx+12]
  00a19	89 04 31	 mov	 DWORD PTR [ecx+esi], eax

; 95   : 				SpriteData[382].ptAnimlist[7 * kkk].ptFramelist[1].BmpNo = 124605 + kkk * 29;

  00a1c	6b 85 64 ff ff
	ff 1d		 imul	 eax, DWORD PTR _kkk$1[ebp], 29
  00a23	05 bd e6 01 00	 add	 eax, 124605		; 0001e6bdH
  00a28	b9 08 00 00 00	 mov	 ecx, 8
  00a2d	69 d1 7e 01 00
	00		 imul	 edx, ecx, 382
  00a33	6b 8d 64 ff ff
	ff 07		 imul	 ecx, DWORD PTR _kkk$1[ebp], 7
  00a3a	c1 e1 04	 shl	 ecx, 4
  00a3d	8b 92 04 00 00
	00		 mov	 edx, DWORD PTR ?SpriteData@@3PAUSPRITEDATA@@A[edx+4]
  00a43	be 0c 00 00 00	 mov	 esi, 12			; 0000000cH
  00a48	c1 e6 00	 shl	 esi, 0
  00a4b	8b 4c 0a 0c	 mov	 ecx, DWORD PTR [edx+ecx+12]
  00a4f	89 04 31	 mov	 DWORD PTR [ecx+esi], eax

; 96   : 				SpriteData[382].ptAnimlist[7 * kkk].ptFramelist[2].BmpNo = 124606 + kkk * 29;

  00a52	6b 85 64 ff ff
	ff 1d		 imul	 eax, DWORD PTR _kkk$1[ebp], 29
  00a59	05 be e6 01 00	 add	 eax, 124606		; 0001e6beH
  00a5e	b9 08 00 00 00	 mov	 ecx, 8
  00a63	69 d1 7e 01 00
	00		 imul	 edx, ecx, 382
  00a69	6b 8d 64 ff ff
	ff 07		 imul	 ecx, DWORD PTR _kkk$1[ebp], 7
  00a70	c1 e1 04	 shl	 ecx, 4
  00a73	8b 92 04 00 00
	00		 mov	 edx, DWORD PTR ?SpriteData@@3PAUSPRITEDATA@@A[edx+4]
  00a79	be 0c 00 00 00	 mov	 esi, 12			; 0000000cH
  00a7e	d1 e6		 shl	 esi, 1
  00a80	8b 4c 0a 0c	 mov	 ecx, DWORD PTR [edx+ecx+12]
  00a84	89 04 31	 mov	 DWORD PTR [ecx+esi], eax

; 97   : 				SpriteData[382].ptAnimlist[7 * kkk].ptFramelist[3].BmpNo = 124607 + kkk * 29;

  00a87	6b 85 64 ff ff
	ff 1d		 imul	 eax, DWORD PTR _kkk$1[ebp], 29
  00a8e	05 bf e6 01 00	 add	 eax, 124607		; 0001e6bfH
  00a93	b9 08 00 00 00	 mov	 ecx, 8
  00a98	69 d1 7e 01 00
	00		 imul	 edx, ecx, 382
  00a9e	6b 8d 64 ff ff
	ff 07		 imul	 ecx, DWORD PTR _kkk$1[ebp], 7
  00aa5	c1 e1 04	 shl	 ecx, 4
  00aa8	8b 92 04 00 00
	00		 mov	 edx, DWORD PTR ?SpriteData@@3PAUSPRITEDATA@@A[edx+4]
  00aae	be 0c 00 00 00	 mov	 esi, 12			; 0000000cH
  00ab3	6b f6 03	 imul	 esi, esi, 3
  00ab6	8b 4c 0a 0c	 mov	 ecx, DWORD PTR [edx+ecx+12]
  00aba	89 04 31	 mov	 DWORD PTR [ecx+esi], eax

; 98   : 				SpriteData[382].ptAnimlist[7 * kkk].ptFramelist[4].BmpNo = 124608 + kkk * 29;

  00abd	6b 85 64 ff ff
	ff 1d		 imul	 eax, DWORD PTR _kkk$1[ebp], 29
  00ac4	05 c0 e6 01 00	 add	 eax, 124608		; 0001e6c0H
  00ac9	b9 08 00 00 00	 mov	 ecx, 8
  00ace	69 d1 7e 01 00
	00		 imul	 edx, ecx, 382
  00ad4	6b 8d 64 ff ff
	ff 07		 imul	 ecx, DWORD PTR _kkk$1[ebp], 7
  00adb	c1 e1 04	 shl	 ecx, 4
  00ade	8b 92 04 00 00
	00		 mov	 edx, DWORD PTR ?SpriteData@@3PAUSPRITEDATA@@A[edx+4]
  00ae4	be 0c 00 00 00	 mov	 esi, 12			; 0000000cH
  00ae9	c1 e6 02	 shl	 esi, 2
  00aec	8b 4c 0a 0c	 mov	 ecx, DWORD PTR [edx+ecx+12]
  00af0	89 04 31	 mov	 DWORD PTR [ecx+esi], eax

; 99   : 				SpriteData[382].ptAnimlist[7 * kkk].ptFramelist[5].BmpNo = 124609 + kkk * 29;

  00af3	6b 85 64 ff ff
	ff 1d		 imul	 eax, DWORD PTR _kkk$1[ebp], 29
  00afa	05 c1 e6 01 00	 add	 eax, 124609		; 0001e6c1H
  00aff	b9 08 00 00 00	 mov	 ecx, 8
  00b04	69 d1 7e 01 00
	00		 imul	 edx, ecx, 382
  00b0a	6b 8d 64 ff ff
	ff 07		 imul	 ecx, DWORD PTR _kkk$1[ebp], 7
  00b11	c1 e1 04	 shl	 ecx, 4
  00b14	8b 92 04 00 00
	00		 mov	 edx, DWORD PTR ?SpriteData@@3PAUSPRITEDATA@@A[edx+4]
  00b1a	be 0c 00 00 00	 mov	 esi, 12			; 0000000cH
  00b1f	6b f6 05	 imul	 esi, esi, 5
  00b22	8b 4c 0a 0c	 mov	 ecx, DWORD PTR [edx+ecx+12]
  00b26	89 04 31	 mov	 DWORD PTR [ecx+esi], eax

; 100  : 				SpriteData[382].ptAnimlist[7 * kkk].ptFramelist[6].BmpNo = 124610 + kkk * 29;

  00b29	6b 85 64 ff ff
	ff 1d		 imul	 eax, DWORD PTR _kkk$1[ebp], 29
  00b30	05 c2 e6 01 00	 add	 eax, 124610		; 0001e6c2H
  00b35	b9 08 00 00 00	 mov	 ecx, 8
  00b3a	69 d1 7e 01 00
	00		 imul	 edx, ecx, 382
  00b40	6b 8d 64 ff ff
	ff 07		 imul	 ecx, DWORD PTR _kkk$1[ebp], 7
  00b47	c1 e1 04	 shl	 ecx, 4
  00b4a	8b 92 04 00 00
	00		 mov	 edx, DWORD PTR ?SpriteData@@3PAUSPRITEDATA@@A[edx+4]
  00b50	be 0c 00 00 00	 mov	 esi, 12			; 0000000cH
  00b55	6b f6 06	 imul	 esi, esi, 6
  00b58	8b 4c 0a 0c	 mov	 ecx, DWORD PTR [edx+ecx+12]
  00b5c	89 04 31	 mov	 DWORD PTR [ecx+esi], eax

; 101  : 				SpriteData[382].ptAnimlist[7 * kkk].ptFramelist[7].BmpNo = 124611 + kkk * 29;

  00b5f	6b 85 64 ff ff
	ff 1d		 imul	 eax, DWORD PTR _kkk$1[ebp], 29
  00b66	05 c3 e6 01 00	 add	 eax, 124611		; 0001e6c3H
  00b6b	b9 08 00 00 00	 mov	 ecx, 8
  00b70	69 d1 7e 01 00
	00		 imul	 edx, ecx, 382
  00b76	6b 8d 64 ff ff
	ff 07		 imul	 ecx, DWORD PTR _kkk$1[ebp], 7
  00b7d	c1 e1 04	 shl	 ecx, 4
  00b80	8b 92 04 00 00
	00		 mov	 edx, DWORD PTR ?SpriteData@@3PAUSPRITEDATA@@A[edx+4]
  00b86	be 0c 00 00 00	 mov	 esi, 12			; 0000000cH
  00b8b	6b f6 07	 imul	 esi, esi, 7
  00b8e	8b 4c 0a 0c	 mov	 ecx, DWORD PTR [edx+ecx+12]
  00b92	89 04 31	 mov	 DWORD PTR [ecx+esi], eax

; 102  : 				SpriteData[382].ptAnimlist[7 * kkk].ptFramelist[8].BmpNo = 124607 + kkk * 29;

  00b95	6b 85 64 ff ff
	ff 1d		 imul	 eax, DWORD PTR _kkk$1[ebp], 29
  00b9c	05 bf e6 01 00	 add	 eax, 124607		; 0001e6bfH
  00ba1	b9 08 00 00 00	 mov	 ecx, 8
  00ba6	69 d1 7e 01 00
	00		 imul	 edx, ecx, 382
  00bac	6b 8d 64 ff ff
	ff 07		 imul	 ecx, DWORD PTR _kkk$1[ebp], 7
  00bb3	c1 e1 04	 shl	 ecx, 4
  00bb6	8b 92 04 00 00
	00		 mov	 edx, DWORD PTR ?SpriteData@@3PAUSPRITEDATA@@A[edx+4]
  00bbc	be 0c 00 00 00	 mov	 esi, 12			; 0000000cH
  00bc1	c1 e6 03	 shl	 esi, 3
  00bc4	8b 4c 0a 0c	 mov	 ecx, DWORD PTR [edx+ecx+12]
  00bc8	89 04 31	 mov	 DWORD PTR [ecx+esi], eax

; 103  : 				SpriteData[382].ptAnimlist[7 * kkk].ptFramelist[9].BmpNo = 124608 + kkk * 29;

  00bcb	6b 85 64 ff ff
	ff 1d		 imul	 eax, DWORD PTR _kkk$1[ebp], 29
  00bd2	05 c0 e6 01 00	 add	 eax, 124608		; 0001e6c0H
  00bd7	b9 08 00 00 00	 mov	 ecx, 8
  00bdc	69 d1 7e 01 00
	00		 imul	 edx, ecx, 382
  00be2	6b 8d 64 ff ff
	ff 07		 imul	 ecx, DWORD PTR _kkk$1[ebp], 7
  00be9	c1 e1 04	 shl	 ecx, 4
  00bec	8b 92 04 00 00
	00		 mov	 edx, DWORD PTR ?SpriteData@@3PAUSPRITEDATA@@A[edx+4]
  00bf2	be 0c 00 00 00	 mov	 esi, 12			; 0000000cH
  00bf7	6b f6 09	 imul	 esi, esi, 9
  00bfa	8b 4c 0a 0c	 mov	 ecx, DWORD PTR [edx+ecx+12]
  00bfe	89 04 31	 mov	 DWORD PTR [ecx+esi], eax

; 104  : 				SpriteData[382].ptAnimlist[7 * kkk].ptFramelist[10].BmpNo = 124609 + kkk * 29;

  00c01	6b 85 64 ff ff
	ff 1d		 imul	 eax, DWORD PTR _kkk$1[ebp], 29
  00c08	05 c1 e6 01 00	 add	 eax, 124609		; 0001e6c1H
  00c0d	b9 08 00 00 00	 mov	 ecx, 8
  00c12	69 d1 7e 01 00
	00		 imul	 edx, ecx, 382
  00c18	6b 8d 64 ff ff
	ff 07		 imul	 ecx, DWORD PTR _kkk$1[ebp], 7
  00c1f	c1 e1 04	 shl	 ecx, 4
  00c22	8b 92 04 00 00
	00		 mov	 edx, DWORD PTR ?SpriteData@@3PAUSPRITEDATA@@A[edx+4]
  00c28	be 0c 00 00 00	 mov	 esi, 12			; 0000000cH
  00c2d	6b f6 0a	 imul	 esi, esi, 10
  00c30	8b 4c 0a 0c	 mov	 ecx, DWORD PTR [edx+ecx+12]
  00c34	89 04 31	 mov	 DWORD PTR [ecx+esi], eax

; 105  : 				SpriteData[382].ptAnimlist[7 * kkk].ptFramelist[11].BmpNo = 124610 + kkk * 29;

  00c37	6b 85 64 ff ff
	ff 1d		 imul	 eax, DWORD PTR _kkk$1[ebp], 29
  00c3e	05 c2 e6 01 00	 add	 eax, 124610		; 0001e6c2H
  00c43	b9 08 00 00 00	 mov	 ecx, 8
  00c48	69 d1 7e 01 00
	00		 imul	 edx, ecx, 382
  00c4e	6b 8d 64 ff ff
	ff 07		 imul	 ecx, DWORD PTR _kkk$1[ebp], 7
  00c55	c1 e1 04	 shl	 ecx, 4
  00c58	8b 92 04 00 00
	00		 mov	 edx, DWORD PTR ?SpriteData@@3PAUSPRITEDATA@@A[edx+4]
  00c5e	be 0c 00 00 00	 mov	 esi, 12			; 0000000cH
  00c63	6b f6 0b	 imul	 esi, esi, 11
  00c66	8b 4c 0a 0c	 mov	 ecx, DWORD PTR [edx+ecx+12]
  00c6a	89 04 31	 mov	 DWORD PTR [ecx+esi], eax

; 106  : 				SpriteData[382].ptAnimlist[7 * kkk].ptFramelist[12].BmpNo = 124611 + kkk * 29;

  00c6d	6b 85 64 ff ff
	ff 1d		 imul	 eax, DWORD PTR _kkk$1[ebp], 29
  00c74	05 c3 e6 01 00	 add	 eax, 124611		; 0001e6c3H
  00c79	b9 08 00 00 00	 mov	 ecx, 8
  00c7e	69 d1 7e 01 00
	00		 imul	 edx, ecx, 382
  00c84	6b 8d 64 ff ff
	ff 07		 imul	 ecx, DWORD PTR _kkk$1[ebp], 7
  00c8b	c1 e1 04	 shl	 ecx, 4
  00c8e	8b 92 04 00 00
	00		 mov	 edx, DWORD PTR ?SpriteData@@3PAUSPRITEDATA@@A[edx+4]
  00c94	be 0c 00 00 00	 mov	 esi, 12			; 0000000cH
  00c99	6b f6 0c	 imul	 esi, esi, 12
  00c9c	8b 4c 0a 0c	 mov	 ecx, DWORD PTR [edx+ecx+12]
  00ca0	89 04 31	 mov	 DWORD PTR [ecx+esi], eax

; 107  : 				SpriteData[382].ptAnimlist[7 * kkk].ptFramelist[13].BmpNo = 124604 + kkk * 29;

  00ca3	6b 85 64 ff ff
	ff 1d		 imul	 eax, DWORD PTR _kkk$1[ebp], 29
  00caa	05 bc e6 01 00	 add	 eax, 124604		; 0001e6bcH
  00caf	b9 08 00 00 00	 mov	 ecx, 8
  00cb4	69 d1 7e 01 00
	00		 imul	 edx, ecx, 382
  00cba	6b 8d 64 ff ff
	ff 07		 imul	 ecx, DWORD PTR _kkk$1[ebp], 7
  00cc1	c1 e1 04	 shl	 ecx, 4
  00cc4	8b 92 04 00 00
	00		 mov	 edx, DWORD PTR ?SpriteData@@3PAUSPRITEDATA@@A[edx+4]
  00cca	be 0c 00 00 00	 mov	 esi, 12			; 0000000cH
  00ccf	6b f6 0d	 imul	 esi, esi, 13
  00cd2	8b 4c 0a 0c	 mov	 ecx, DWORD PTR [edx+ecx+12]
  00cd6	89 04 31	 mov	 DWORD PTR [ecx+esi], eax

; 108  : 			}

  00cd9	e9 5c fb ff ff	 jmp	 $LN13@InitSprBin
$LN47@InitSprBin:

; 109  : 		}
; 110  : 		if (no == 502)

  00cde	81 7d 88 f6 01
	00 00		 cmp	 DWORD PTR _no$[ebp], 502 ; 000001f6H
  00ce5	0f 85 ee 00 00
	00		 jne	 $LN48@InitSprBin

; 111  : 			for (k = 0; k < SpriteData[502].ptAnimlist[0].frameCnt; k++) {

  00ceb	c7 45 94 00 00
	00 00		 mov	 DWORD PTR _k$[ebp], 0
  00cf2	eb 09		 jmp	 SHORT $LN18@InitSprBin
$LN16@InitSprBin:
  00cf4	8b 45 94	 mov	 eax, DWORD PTR _k$[ebp]
  00cf7	83 c0 01	 add	 eax, 1
  00cfa	89 45 94	 mov	 DWORD PTR _k$[ebp], eax
$LN18@InitSprBin:
  00cfd	b8 08 00 00 00	 mov	 eax, 8
  00d02	69 c8 f6 01 00
	00		 imul	 ecx, eax, 502
  00d08	ba 10 00 00 00	 mov	 edx, 16			; 00000010H
  00d0d	6b c2 00	 imul	 eax, edx, 0
  00d10	8b 89 04 00 00
	00		 mov	 ecx, DWORD PTR ?SpriteData@@3PAUSPRITEDATA@@A[ecx+4]
  00d16	8b 55 94	 mov	 edx, DWORD PTR _k$[ebp]
  00d19	3b 54 01 08	 cmp	 edx, DWORD PTR [ecx+eax+8]
  00d1d	0f 83 b6 00 00
	00		 jae	 $LN48@InitSprBin

; 112  : 				SpriteData[502].ptAnimlist[0].ptFramelist[k].BmpNo = iTemp++;

  00d23	b8 08 00 00 00	 mov	 eax, 8
  00d28	69 c8 f6 01 00
	00		 imul	 ecx, eax, 502
  00d2e	ba 10 00 00 00	 mov	 edx, 16			; 00000010H
  00d33	6b c2 00	 imul	 eax, edx, 0
  00d36	8b 89 04 00 00
	00		 mov	 ecx, DWORD PTR ?SpriteData@@3PAUSPRITEDATA@@A[ecx+4]
  00d3c	6b 55 94 0c	 imul	 edx, DWORD PTR _k$[ebp], 12
  00d40	8b 44 01 0c	 mov	 eax, DWORD PTR [ecx+eax+12]
  00d44	8b 8d 70 ff ff
	ff		 mov	 ecx, DWORD PTR _iTemp$2[ebp]
  00d4a	89 0c 10	 mov	 DWORD PTR [eax+edx], ecx
  00d4d	8b 95 70 ff ff
	ff		 mov	 edx, DWORD PTR _iTemp$2[ebp]
  00d53	83 c2 01	 add	 edx, 1
  00d56	89 95 70 ff ff
	ff		 mov	 DWORD PTR _iTemp$2[ebp], edx

; 113  : 				SpriteData[502].ptAnimlist[0].ptFramelist[k].PosX = 0;

  00d5c	b8 08 00 00 00	 mov	 eax, 8
  00d61	69 c8 f6 01 00
	00		 imul	 ecx, eax, 502
  00d67	ba 10 00 00 00	 mov	 edx, 16			; 00000010H
  00d6c	6b c2 00	 imul	 eax, edx, 0
  00d6f	8b 89 04 00 00
	00		 mov	 ecx, DWORD PTR ?SpriteData@@3PAUSPRITEDATA@@A[ecx+4]
  00d75	6b 55 94 0c	 imul	 edx, DWORD PTR _k$[ebp], 12
  00d79	8b 44 01 0c	 mov	 eax, DWORD PTR [ecx+eax+12]
  00d7d	33 c9		 xor	 ecx, ecx
  00d7f	66 89 4c 10 04	 mov	 WORD PTR [eax+edx+4], cx

; 114  : 				SpriteData[502].ptAnimlist[0].ptFramelist[k].PosY = 0;

  00d84	b8 08 00 00 00	 mov	 eax, 8
  00d89	69 c8 f6 01 00
	00		 imul	 ecx, eax, 502
  00d8f	ba 10 00 00 00	 mov	 edx, 16			; 00000010H
  00d94	6b c2 00	 imul	 eax, edx, 0
  00d97	8b 89 04 00 00
	00		 mov	 ecx, DWORD PTR ?SpriteData@@3PAUSPRITEDATA@@A[ecx+4]
  00d9d	6b 55 94 0c	 imul	 edx, DWORD PTR _k$[ebp], 12
  00da1	8b 44 01 0c	 mov	 eax, DWORD PTR [ecx+eax+12]
  00da5	33 c9		 xor	 ecx, ecx
  00da7	66 89 4c 10 06	 mov	 WORD PTR [eax+edx+6], cx

; 115  : 				SpriteData[502].ptAnimlist[0].ptFramelist[k].SoundNo = 0;

  00dac	b8 08 00 00 00	 mov	 eax, 8
  00db1	69 c8 f6 01 00
	00		 imul	 ecx, eax, 502
  00db7	ba 10 00 00 00	 mov	 edx, 16			; 00000010H
  00dbc	6b c2 00	 imul	 eax, edx, 0
  00dbf	8b 89 04 00 00
	00		 mov	 ecx, DWORD PTR ?SpriteData@@3PAUSPRITEDATA@@A[ecx+4]
  00dc5	6b 55 94 0c	 imul	 edx, DWORD PTR _k$[ebp], 12
  00dc9	8b 44 01 0c	 mov	 eax, DWORD PTR [ecx+eax+12]
  00dcd	33 c9		 xor	 ecx, ecx
  00dcf	66 89 4c 10 08	 mov	 WORD PTR [eax+edx+8], cx

; 116  : 			}

  00dd4	e9 1b ff ff ff	 jmp	 $LN16@InitSprBin
$LN48@InitSprBin:

; 117  : 
; 118  : 
; 119  : 		//Change fix SoundNo,
; 120  : 		if (no >= 1965 && no < 1987) {

  00dd9	81 7d 88 ad 07
	00 00		 cmp	 DWORD PTR _no$[ebp], 1965 ; 000007adH
  00de0	0f 8c 4d 01 00
	00		 jl	 $LN49@InitSprBin
  00de6	81 7d 88 c3 07
	00 00		 cmp	 DWORD PTR _no$[ebp], 1987 ; 000007c3H
  00ded	0f 8d 40 01 00
	00		 jge	 $LN49@InitSprBin

; 121  : 			//for(int kk=1965;kk<1987;kk++)
; 122  : 			//{
; 123  : 			SpriteData[no].ptAnimlist[9].ptFramelist[4].SoundNo = 10006;

  00df3	b8 10 00 00 00	 mov	 eax, 16			; 00000010H
  00df8	6b c8 09	 imul	 ecx, eax, 9
  00dfb	8b 55 88	 mov	 edx, DWORD PTR _no$[ebp]
  00dfe	8b 04 d5 04 00
	00 00		 mov	 eax, DWORD PTR ?SpriteData@@3PAUSPRITEDATA@@A[edx*8+4]
  00e05	ba 0c 00 00 00	 mov	 edx, 12			; 0000000cH
  00e0a	c1 e2 02	 shl	 edx, 2
  00e0d	8b 44 08 0c	 mov	 eax, DWORD PTR [eax+ecx+12]
  00e11	b9 16 27 00 00	 mov	 ecx, 10006		; 00002716H
  00e16	66 89 4c 10 08	 mov	 WORD PTR [eax+edx+8], cx

; 124  : 			SpriteData[no].ptAnimlist[22].ptFramelist[4].SoundNo = 10006;

  00e1b	b8 10 00 00 00	 mov	 eax, 16			; 00000010H
  00e20	6b c8 16	 imul	 ecx, eax, 22
  00e23	8b 55 88	 mov	 edx, DWORD PTR _no$[ebp]
  00e26	8b 04 d5 04 00
	00 00		 mov	 eax, DWORD PTR ?SpriteData@@3PAUSPRITEDATA@@A[edx*8+4]
  00e2d	ba 0c 00 00 00	 mov	 edx, 12			; 0000000cH
  00e32	c1 e2 02	 shl	 edx, 2
  00e35	8b 44 08 0c	 mov	 eax, DWORD PTR [eax+ecx+12]
  00e39	b9 16 27 00 00	 mov	 ecx, 10006		; 00002716H
  00e3e	66 89 4c 10 08	 mov	 WORD PTR [eax+edx+8], cx

; 125  : 			SpriteData[no].ptAnimlist[35].ptFramelist[4].SoundNo = 10006;

  00e43	b8 10 00 00 00	 mov	 eax, 16			; 00000010H
  00e48	6b c8 23	 imul	 ecx, eax, 35
  00e4b	8b 55 88	 mov	 edx, DWORD PTR _no$[ebp]
  00e4e	8b 04 d5 04 00
	00 00		 mov	 eax, DWORD PTR ?SpriteData@@3PAUSPRITEDATA@@A[edx*8+4]
  00e55	ba 0c 00 00 00	 mov	 edx, 12			; 0000000cH
  00e5a	c1 e2 02	 shl	 edx, 2
  00e5d	8b 44 08 0c	 mov	 eax, DWORD PTR [eax+ecx+12]
  00e61	b9 16 27 00 00	 mov	 ecx, 10006		; 00002716H
  00e66	66 89 4c 10 08	 mov	 WORD PTR [eax+edx+8], cx

; 126  : 			SpriteData[no].ptAnimlist[48].ptFramelist[4].SoundNo = 10006;

  00e6b	b8 10 00 00 00	 mov	 eax, 16			; 00000010H
  00e70	6b c8 30	 imul	 ecx, eax, 48
  00e73	8b 55 88	 mov	 edx, DWORD PTR _no$[ebp]
  00e76	8b 04 d5 04 00
	00 00		 mov	 eax, DWORD PTR ?SpriteData@@3PAUSPRITEDATA@@A[edx*8+4]
  00e7d	ba 0c 00 00 00	 mov	 edx, 12			; 0000000cH
  00e82	c1 e2 02	 shl	 edx, 2
  00e85	8b 44 08 0c	 mov	 eax, DWORD PTR [eax+ecx+12]
  00e89	b9 16 27 00 00	 mov	 ecx, 10006		; 00002716H
  00e8e	66 89 4c 10 08	 mov	 WORD PTR [eax+edx+8], cx

; 127  : 			SpriteData[no].ptAnimlist[61].ptFramelist[4].SoundNo = 10006;

  00e93	b8 10 00 00 00	 mov	 eax, 16			; 00000010H
  00e98	6b c8 3d	 imul	 ecx, eax, 61
  00e9b	8b 55 88	 mov	 edx, DWORD PTR _no$[ebp]
  00e9e	8b 04 d5 04 00
	00 00		 mov	 eax, DWORD PTR ?SpriteData@@3PAUSPRITEDATA@@A[edx*8+4]
  00ea5	ba 0c 00 00 00	 mov	 edx, 12			; 0000000cH
  00eaa	c1 e2 02	 shl	 edx, 2
  00ead	8b 44 08 0c	 mov	 eax, DWORD PTR [eax+ecx+12]
  00eb1	b9 16 27 00 00	 mov	 ecx, 10006		; 00002716H
  00eb6	66 89 4c 10 08	 mov	 WORD PTR [eax+edx+8], cx

; 128  : 			SpriteData[no].ptAnimlist[74].ptFramelist[4].SoundNo = 10006;

  00ebb	b8 10 00 00 00	 mov	 eax, 16			; 00000010H
  00ec0	6b c8 4a	 imul	 ecx, eax, 74
  00ec3	8b 55 88	 mov	 edx, DWORD PTR _no$[ebp]
  00ec6	8b 04 d5 04 00
	00 00		 mov	 eax, DWORD PTR ?SpriteData@@3PAUSPRITEDATA@@A[edx*8+4]
  00ecd	ba 0c 00 00 00	 mov	 edx, 12			; 0000000cH
  00ed2	c1 e2 02	 shl	 edx, 2
  00ed5	8b 44 08 0c	 mov	 eax, DWORD PTR [eax+ecx+12]
  00ed9	b9 16 27 00 00	 mov	 ecx, 10006		; 00002716H
  00ede	66 89 4c 10 08	 mov	 WORD PTR [eax+edx+8], cx

; 129  : 			SpriteData[no].ptAnimlist[87].ptFramelist[4].SoundNo = 10006;

  00ee3	b8 10 00 00 00	 mov	 eax, 16			; 00000010H
  00ee8	6b c8 57	 imul	 ecx, eax, 87
  00eeb	8b 55 88	 mov	 edx, DWORD PTR _no$[ebp]
  00eee	8b 04 d5 04 00
	00 00		 mov	 eax, DWORD PTR ?SpriteData@@3PAUSPRITEDATA@@A[edx*8+4]
  00ef5	ba 0c 00 00 00	 mov	 edx, 12			; 0000000cH
  00efa	c1 e2 02	 shl	 edx, 2
  00efd	8b 44 08 0c	 mov	 eax, DWORD PTR [eax+ecx+12]
  00f01	b9 16 27 00 00	 mov	 ecx, 10006		; 00002716H
  00f06	66 89 4c 10 08	 mov	 WORD PTR [eax+edx+8], cx

; 130  : 			SpriteData[no].ptAnimlist[100].ptFramelist[4].SoundNo = 10006;

  00f0b	b8 10 00 00 00	 mov	 eax, 16			; 00000010H
  00f10	6b c8 64	 imul	 ecx, eax, 100
  00f13	8b 55 88	 mov	 edx, DWORD PTR _no$[ebp]
  00f16	8b 04 d5 04 00
	00 00		 mov	 eax, DWORD PTR ?SpriteData@@3PAUSPRITEDATA@@A[edx*8+4]
  00f1d	ba 0c 00 00 00	 mov	 edx, 12			; 0000000cH
  00f22	c1 e2 02	 shl	 edx, 2
  00f25	8b 44 08 0c	 mov	 eax, DWORD PTR [eax+ecx+12]
  00f29	b9 16 27 00 00	 mov	 ecx, 10006		; 00002716H
  00f2e	66 89 4c 10 08	 mov	 WORD PTR [eax+edx+8], cx
$LN49@InitSprBin:

; 131  : 			//}
; 132  : 		}
; 133  : 		if (no >= 1988 && no < 1990) {

  00f33	81 7d 88 c4 07
	00 00		 cmp	 DWORD PTR _no$[ebp], 1988 ; 000007c4H
  00f3a	0f 8c 4d 01 00
	00		 jl	 $LN50@InitSprBin
  00f40	81 7d 88 c6 07
	00 00		 cmp	 DWORD PTR _no$[ebp], 1990 ; 000007c6H
  00f47	0f 8d 40 01 00
	00		 jge	 $LN50@InitSprBin

; 134  : 			//for(int kk=1988;kk<1990;kk++)
; 135  : 			//{
; 136  : 			SpriteData[no].ptAnimlist[9].ptFramelist[4].SoundNo = 10006;

  00f4d	b8 10 00 00 00	 mov	 eax, 16			; 00000010H
  00f52	6b c8 09	 imul	 ecx, eax, 9
  00f55	8b 55 88	 mov	 edx, DWORD PTR _no$[ebp]
  00f58	8b 04 d5 04 00
	00 00		 mov	 eax, DWORD PTR ?SpriteData@@3PAUSPRITEDATA@@A[edx*8+4]
  00f5f	ba 0c 00 00 00	 mov	 edx, 12			; 0000000cH
  00f64	c1 e2 02	 shl	 edx, 2
  00f67	8b 44 08 0c	 mov	 eax, DWORD PTR [eax+ecx+12]
  00f6b	b9 16 27 00 00	 mov	 ecx, 10006		; 00002716H
  00f70	66 89 4c 10 08	 mov	 WORD PTR [eax+edx+8], cx

; 137  : 			SpriteData[no].ptAnimlist[22].ptFramelist[4].SoundNo = 10006;

  00f75	b8 10 00 00 00	 mov	 eax, 16			; 00000010H
  00f7a	6b c8 16	 imul	 ecx, eax, 22
  00f7d	8b 55 88	 mov	 edx, DWORD PTR _no$[ebp]
  00f80	8b 04 d5 04 00
	00 00		 mov	 eax, DWORD PTR ?SpriteData@@3PAUSPRITEDATA@@A[edx*8+4]
  00f87	ba 0c 00 00 00	 mov	 edx, 12			; 0000000cH
  00f8c	c1 e2 02	 shl	 edx, 2
  00f8f	8b 44 08 0c	 mov	 eax, DWORD PTR [eax+ecx+12]
  00f93	b9 16 27 00 00	 mov	 ecx, 10006		; 00002716H
  00f98	66 89 4c 10 08	 mov	 WORD PTR [eax+edx+8], cx

; 138  : 			SpriteData[no].ptAnimlist[35].ptFramelist[4].SoundNo = 10006;

  00f9d	b8 10 00 00 00	 mov	 eax, 16			; 00000010H
  00fa2	6b c8 23	 imul	 ecx, eax, 35
  00fa5	8b 55 88	 mov	 edx, DWORD PTR _no$[ebp]
  00fa8	8b 04 d5 04 00
	00 00		 mov	 eax, DWORD PTR ?SpriteData@@3PAUSPRITEDATA@@A[edx*8+4]
  00faf	ba 0c 00 00 00	 mov	 edx, 12			; 0000000cH
  00fb4	c1 e2 02	 shl	 edx, 2
  00fb7	8b 44 08 0c	 mov	 eax, DWORD PTR [eax+ecx+12]
  00fbb	b9 16 27 00 00	 mov	 ecx, 10006		; 00002716H
  00fc0	66 89 4c 10 08	 mov	 WORD PTR [eax+edx+8], cx

; 139  : 			SpriteData[no].ptAnimlist[48].ptFramelist[4].SoundNo = 10006;

  00fc5	b8 10 00 00 00	 mov	 eax, 16			; 00000010H
  00fca	6b c8 30	 imul	 ecx, eax, 48
  00fcd	8b 55 88	 mov	 edx, DWORD PTR _no$[ebp]
  00fd0	8b 04 d5 04 00
	00 00		 mov	 eax, DWORD PTR ?SpriteData@@3PAUSPRITEDATA@@A[edx*8+4]
  00fd7	ba 0c 00 00 00	 mov	 edx, 12			; 0000000cH
  00fdc	c1 e2 02	 shl	 edx, 2
  00fdf	8b 44 08 0c	 mov	 eax, DWORD PTR [eax+ecx+12]
  00fe3	b9 16 27 00 00	 mov	 ecx, 10006		; 00002716H
  00fe8	66 89 4c 10 08	 mov	 WORD PTR [eax+edx+8], cx

; 140  : 			SpriteData[no].ptAnimlist[61].ptFramelist[4].SoundNo = 10006;

  00fed	b8 10 00 00 00	 mov	 eax, 16			; 00000010H
  00ff2	6b c8 3d	 imul	 ecx, eax, 61
  00ff5	8b 55 88	 mov	 edx, DWORD PTR _no$[ebp]
  00ff8	8b 04 d5 04 00
	00 00		 mov	 eax, DWORD PTR ?SpriteData@@3PAUSPRITEDATA@@A[edx*8+4]
  00fff	ba 0c 00 00 00	 mov	 edx, 12			; 0000000cH
  01004	c1 e2 02	 shl	 edx, 2
  01007	8b 44 08 0c	 mov	 eax, DWORD PTR [eax+ecx+12]
  0100b	b9 16 27 00 00	 mov	 ecx, 10006		; 00002716H
  01010	66 89 4c 10 08	 mov	 WORD PTR [eax+edx+8], cx

; 141  : 			SpriteData[no].ptAnimlist[74].ptFramelist[4].SoundNo = 10006;

  01015	b8 10 00 00 00	 mov	 eax, 16			; 00000010H
  0101a	6b c8 4a	 imul	 ecx, eax, 74
  0101d	8b 55 88	 mov	 edx, DWORD PTR _no$[ebp]
  01020	8b 04 d5 04 00
	00 00		 mov	 eax, DWORD PTR ?SpriteData@@3PAUSPRITEDATA@@A[edx*8+4]
  01027	ba 0c 00 00 00	 mov	 edx, 12			; 0000000cH
  0102c	c1 e2 02	 shl	 edx, 2
  0102f	8b 44 08 0c	 mov	 eax, DWORD PTR [eax+ecx+12]
  01033	b9 16 27 00 00	 mov	 ecx, 10006		; 00002716H
  01038	66 89 4c 10 08	 mov	 WORD PTR [eax+edx+8], cx

; 142  : 			SpriteData[no].ptAnimlist[87].ptFramelist[4].SoundNo = 10006;

  0103d	b8 10 00 00 00	 mov	 eax, 16			; 00000010H
  01042	6b c8 57	 imul	 ecx, eax, 87
  01045	8b 55 88	 mov	 edx, DWORD PTR _no$[ebp]
  01048	8b 04 d5 04 00
	00 00		 mov	 eax, DWORD PTR ?SpriteData@@3PAUSPRITEDATA@@A[edx*8+4]
  0104f	ba 0c 00 00 00	 mov	 edx, 12			; 0000000cH
  01054	c1 e2 02	 shl	 edx, 2
  01057	8b 44 08 0c	 mov	 eax, DWORD PTR [eax+ecx+12]
  0105b	b9 16 27 00 00	 mov	 ecx, 10006		; 00002716H
  01060	66 89 4c 10 08	 mov	 WORD PTR [eax+edx+8], cx

; 143  : 			SpriteData[no].ptAnimlist[100].ptFramelist[4].SoundNo = 10006;

  01065	b8 10 00 00 00	 mov	 eax, 16			; 00000010H
  0106a	6b c8 64	 imul	 ecx, eax, 100
  0106d	8b 55 88	 mov	 edx, DWORD PTR _no$[ebp]
  01070	8b 04 d5 04 00
	00 00		 mov	 eax, DWORD PTR ?SpriteData@@3PAUSPRITEDATA@@A[edx*8+4]
  01077	ba 0c 00 00 00	 mov	 edx, 12			; 0000000cH
  0107c	c1 e2 02	 shl	 edx, 2
  0107f	8b 44 08 0c	 mov	 eax, DWORD PTR [eax+ecx+12]
  01083	b9 16 27 00 00	 mov	 ecx, 10006		; 00002716H
  01088	66 89 4c 10 08	 mov	 WORD PTR [eax+edx+8], cx
$LN50@InitSprBin:

; 144  : 			//}
; 145  : 		}
; 146  : 
; 147  : 		//103347 
; 148  : 		//103348 
; 149  : 		//103349 
; 150  : #ifdef 
; 151  : 		if (no >= 3350 && no <= 3370)

  0108d	81 7d 88 16 0d
	00 00		 cmp	 DWORD PTR _no$[ebp], 3350 ; 00000d16H
  01094	0f 8c 9d 01 00
	00		 jl	 $LN51@InitSprBin
  0109a	81 7d 88 2a 0d
	00 00		 cmp	 DWORD PTR _no$[ebp], 3370 ; 00000d2aH
  010a1	0f 8f 90 01 00
	00		 jg	 $LN51@InitSprBin

; 152  : #else
; 153  : 		if (no >= 3347 && no <= 3370)
; 154  : #endif
; 155  : 		{
; 156  : 			SpriteData[no].ptAnimlist[9].ptFramelist[4].SoundNo = 10006;

  010a7	b8 10 00 00 00	 mov	 eax, 16			; 00000010H
  010ac	6b c8 09	 imul	 ecx, eax, 9
  010af	8b 55 88	 mov	 edx, DWORD PTR _no$[ebp]
  010b2	8b 04 d5 04 00
	00 00		 mov	 eax, DWORD PTR ?SpriteData@@3PAUSPRITEDATA@@A[edx*8+4]
  010b9	ba 0c 00 00 00	 mov	 edx, 12			; 0000000cH
  010be	c1 e2 02	 shl	 edx, 2
  010c1	8b 44 08 0c	 mov	 eax, DWORD PTR [eax+ecx+12]
  010c5	b9 16 27 00 00	 mov	 ecx, 10006		; 00002716H
  010ca	66 89 4c 10 08	 mov	 WORD PTR [eax+edx+8], cx

; 157  : 			SpriteData[no].ptAnimlist[22].ptFramelist[4].SoundNo = 10006;

  010cf	b8 10 00 00 00	 mov	 eax, 16			; 00000010H
  010d4	6b c8 16	 imul	 ecx, eax, 22
  010d7	8b 55 88	 mov	 edx, DWORD PTR _no$[ebp]
  010da	8b 04 d5 04 00
	00 00		 mov	 eax, DWORD PTR ?SpriteData@@3PAUSPRITEDATA@@A[edx*8+4]
  010e1	ba 0c 00 00 00	 mov	 edx, 12			; 0000000cH
  010e6	c1 e2 02	 shl	 edx, 2
  010e9	8b 44 08 0c	 mov	 eax, DWORD PTR [eax+ecx+12]
  010ed	b9 16 27 00 00	 mov	 ecx, 10006		; 00002716H
  010f2	66 89 4c 10 08	 mov	 WORD PTR [eax+edx+8], cx

; 158  : 			SpriteData[no].ptAnimlist[35].ptFramelist[4].SoundNo = 10006;

  010f7	b8 10 00 00 00	 mov	 eax, 16			; 00000010H
  010fc	6b c8 23	 imul	 ecx, eax, 35
  010ff	8b 55 88	 mov	 edx, DWORD PTR _no$[ebp]
  01102	8b 04 d5 04 00
	00 00		 mov	 eax, DWORD PTR ?SpriteData@@3PAUSPRITEDATA@@A[edx*8+4]
  01109	ba 0c 00 00 00	 mov	 edx, 12			; 0000000cH
  0110e	c1 e2 02	 shl	 edx, 2
  01111	8b 44 08 0c	 mov	 eax, DWORD PTR [eax+ecx+12]
  01115	b9 16 27 00 00	 mov	 ecx, 10006		; 00002716H
  0111a	66 89 4c 10 08	 mov	 WORD PTR [eax+edx+8], cx

; 159  : 			SpriteData[no].ptAnimlist[48].ptFramelist[4].SoundNo = 10006;

  0111f	b8 10 00 00 00	 mov	 eax, 16			; 00000010H
  01124	6b c8 30	 imul	 ecx, eax, 48
  01127	8b 55 88	 mov	 edx, DWORD PTR _no$[ebp]
  0112a	8b 04 d5 04 00
	00 00		 mov	 eax, DWORD PTR ?SpriteData@@3PAUSPRITEDATA@@A[edx*8+4]
  01131	ba 0c 00 00 00	 mov	 edx, 12			; 0000000cH
  01136	c1 e2 02	 shl	 edx, 2
  01139	8b 44 08 0c	 mov	 eax, DWORD PTR [eax+ecx+12]
  0113d	b9 16 27 00 00	 mov	 ecx, 10006		; 00002716H
  01142	66 89 4c 10 08	 mov	 WORD PTR [eax+edx+8], cx

; 160  : 			SpriteData[no].ptAnimlist[61].ptFramelist[4].SoundNo = 10006;

  01147	b8 10 00 00 00	 mov	 eax, 16			; 00000010H
  0114c	6b c8 3d	 imul	 ecx, eax, 61
  0114f	8b 55 88	 mov	 edx, DWORD PTR _no$[ebp]
  01152	8b 04 d5 04 00
	00 00		 mov	 eax, DWORD PTR ?SpriteData@@3PAUSPRITEDATA@@A[edx*8+4]
  01159	ba 0c 00 00 00	 mov	 edx, 12			; 0000000cH
  0115e	c1 e2 02	 shl	 edx, 2
  01161	8b 44 08 0c	 mov	 eax, DWORD PTR [eax+ecx+12]
  01165	b9 16 27 00 00	 mov	 ecx, 10006		; 00002716H
  0116a	66 89 4c 10 08	 mov	 WORD PTR [eax+edx+8], cx

; 161  : 			SpriteData[no].ptAnimlist[74].ptFramelist[4].SoundNo = 10006;

  0116f	b8 10 00 00 00	 mov	 eax, 16			; 00000010H
  01174	6b c8 4a	 imul	 ecx, eax, 74
  01177	8b 55 88	 mov	 edx, DWORD PTR _no$[ebp]
  0117a	8b 04 d5 04 00
	00 00		 mov	 eax, DWORD PTR ?SpriteData@@3PAUSPRITEDATA@@A[edx*8+4]
  01181	ba 0c 00 00 00	 mov	 edx, 12			; 0000000cH
  01186	c1 e2 02	 shl	 edx, 2
  01189	8b 44 08 0c	 mov	 eax, DWORD PTR [eax+ecx+12]
  0118d	b9 16 27 00 00	 mov	 ecx, 10006		; 00002716H
  01192	66 89 4c 10 08	 mov	 WORD PTR [eax+edx+8], cx

; 162  : 			SpriteData[no].ptAnimlist[87].ptFramelist[4].SoundNo = 10006;

  01197	b8 10 00 00 00	 mov	 eax, 16			; 00000010H
  0119c	6b c8 57	 imul	 ecx, eax, 87
  0119f	8b 55 88	 mov	 edx, DWORD PTR _no$[ebp]
  011a2	8b 04 d5 04 00
	00 00		 mov	 eax, DWORD PTR ?SpriteData@@3PAUSPRITEDATA@@A[edx*8+4]
  011a9	ba 0c 00 00 00	 mov	 edx, 12			; 0000000cH
  011ae	c1 e2 02	 shl	 edx, 2
  011b1	8b 44 08 0c	 mov	 eax, DWORD PTR [eax+ecx+12]
  011b5	b9 16 27 00 00	 mov	 ecx, 10006		; 00002716H
  011ba	66 89 4c 10 08	 mov	 WORD PTR [eax+edx+8], cx

; 163  : 			SpriteData[no].ptAnimlist[100].ptFramelist[4].SoundNo = 10006;

  011bf	b8 10 00 00 00	 mov	 eax, 16			; 00000010H
  011c4	6b c8 64	 imul	 ecx, eax, 100
  011c7	8b 55 88	 mov	 edx, DWORD PTR _no$[ebp]
  011ca	8b 04 d5 04 00
	00 00		 mov	 eax, DWORD PTR ?SpriteData@@3PAUSPRITEDATA@@A[edx*8+4]
  011d1	ba 0c 00 00 00	 mov	 edx, 12			; 0000000cH
  011d6	c1 e2 02	 shl	 edx, 2
  011d9	8b 44 08 0c	 mov	 eax, DWORD PTR [eax+ecx+12]
  011dd	b9 16 27 00 00	 mov	 ecx, 10006		; 00002716H
  011e2	66 89 4c 10 08	 mov	 WORD PTR [eax+edx+8], cx

; 164  : 			SpriteData[no].ptAnimlist[52].ptFramelist[4].SoundNo = 10006;

  011e7	b8 10 00 00 00	 mov	 eax, 16			; 00000010H
  011ec	6b c8 34	 imul	 ecx, eax, 52
  011ef	8b 55 88	 mov	 edx, DWORD PTR _no$[ebp]
  011f2	8b 04 d5 04 00
	00 00		 mov	 eax, DWORD PTR ?SpriteData@@3PAUSPRITEDATA@@A[edx*8+4]
  011f9	ba 0c 00 00 00	 mov	 edx, 12			; 0000000cH
  011fe	c1 e2 02	 shl	 edx, 2
  01201	8b 44 08 0c	 mov	 eax, DWORD PTR [eax+ecx+12]
  01205	b9 16 27 00 00	 mov	 ecx, 10006		; 00002716H
  0120a	66 89 4c 10 08	 mov	 WORD PTR [eax+edx+8], cx

; 165  : 			SpriteData[no].ptAnimlist[39].ptFramelist[5].SoundNo = 10006;

  0120f	b8 10 00 00 00	 mov	 eax, 16			; 00000010H
  01214	6b c8 27	 imul	 ecx, eax, 39
  01217	8b 55 88	 mov	 edx, DWORD PTR _no$[ebp]
  0121a	8b 04 d5 04 00
	00 00		 mov	 eax, DWORD PTR ?SpriteData@@3PAUSPRITEDATA@@A[edx*8+4]
  01221	ba 0c 00 00 00	 mov	 edx, 12			; 0000000cH
  01226	6b d2 05	 imul	 edx, edx, 5
  01229	8b 44 08 0c	 mov	 eax, DWORD PTR [eax+ecx+12]
  0122d	b9 16 27 00 00	 mov	 ecx, 10006		; 00002716H
  01232	66 89 4c 10 08	 mov	 WORD PTR [eax+edx+8], cx
$LN51@InitSprBin:

; 166  : 		}
; 167  : 	}

  01237	e9 70 ee ff ff	 jmp	 $LN2@InitSprBin
$LN3@InitSprBin:

; 168  : 	fclose(fp1);

  0123c	8b f4		 mov	 esi, esp
  0123e	8b 45 b8	 mov	 eax, DWORD PTR _fp1$[ebp]
  01241	50		 push	 eax
  01242	ff 15 00 00 00
	00		 call	 DWORD PTR __imp__fclose
  01248	83 c4 04	 add	 esp, 4
  0124b	3b f4		 cmp	 esi, esp
  0124d	e8 00 00 00 00	 call	 __RTC_CheckEsp

; 169  : 	fclose(fp2);

  01252	8b f4		 mov	 esi, esp
  01254	8b 45 ac	 mov	 eax, DWORD PTR _fp2$[ebp]
  01257	50		 push	 eax
  01258	ff 15 00 00 00
	00		 call	 DWORD PTR __imp__fclose
  0125e	83 c4 04	 add	 esp, 4
  01261	3b f4		 cmp	 esi, esp
  01263	e8 00 00 00 00	 call	 __RTC_CheckEsp

; 170  : 	if (Sprflg1) {

  01268	83 3d 00 00 00
	00 00		 cmp	 DWORD PTR ?Sprflg1@?1??InitSprBinFileOpen@@YAHPAD0@Z@4HA, 0
  0126f	74 0a		 je	 SHORT $LN52@InitSprBin

; 171  : 		Sprflg1 = FALSE;

  01271	c7 05 00 00 00
	00 00 00 00 00	 mov	 DWORD PTR ?Sprflg1@?1??InitSprBinFileOpen@@YAHPAD0@Z@4HA, 0
$LN52@InitSprBin:

; 172  : 	}
; 173  : 	return TRUE;

  0127b	b8 01 00 00 00	 mov	 eax, 1
$LN1@InitSprBin:

; 174  : }

  01280	52		 push	 edx
  01281	8b cd		 mov	 ecx, ebp
  01283	50		 push	 eax
  01284	8d 15 00 00 00
	00		 lea	 edx, DWORD PTR $LN58@InitSprBin
  0128a	e8 00 00 00 00	 call	 @_RTC_CheckStackVars@8
  0128f	58		 pop	 eax
  01290	5a		 pop	 edx
  01291	5f		 pop	 edi
  01292	5e		 pop	 esi
  01293	5b		 pop	 ebx
  01294	8b 4d fc	 mov	 ecx, DWORD PTR __$ArrayPad$[ebp]
  01297	33 cd		 xor	 ecx, ebp
  01299	e8 00 00 00 00	 call	 @__security_check_cookie@4
  0129e	81 c4 60 01 00
	00		 add	 esp, 352		; 00000160H
  012a4	3b ec		 cmp	 ebp, esp
  012a6	e8 00 00 00 00	 call	 __RTC_CheckEsp
  012ab	8b e5		 mov	 esp, ebp
  012ad	5d		 pop	 ebp
  012ae	c3		 ret	 0
  012af	90		 npad	 1
$LN58@InitSprBin:
  012b0	03 00 00 00	 DD	 3
  012b4	00 00 00 00	 DD	 $LN57@InitSprBin
$LN57@InitSprBin:
  012b8	ec ff ff ff	 DD	 -20			; ffffffecH
  012bc	0c 00 00 00	 DD	 12			; 0000000cH
  012c0	00 00 00 00	 DD	 $LN54@InitSprBin
  012c4	d8 ff ff ff	 DD	 -40			; ffffffd8H
  012c8	0c 00 00 00	 DD	 12			; 0000000cH
  012cc	00 00 00 00	 DD	 $LN55@InitSprBin
  012d0	c4 ff ff ff	 DD	 -60			; ffffffc4H
  012d4	0c 00 00 00	 DD	 12			; 0000000cH
  012d8	00 00 00 00	 DD	 $LN56@InitSprBin
$LN56@InitSprBin:
  012dc	73		 DB	 115			; 00000073H
  012dd	70		 DB	 112			; 00000070H
  012de	72		 DB	 114			; 00000072H
  012df	64		 DB	 100			; 00000064H
  012e0	61		 DB	 97			; 00000061H
  012e1	74		 DB	 116			; 00000074H
  012e2	61		 DB	 97			; 00000061H
  012e3	00		 DB	 0
$LN55@InitSprBin:
  012e4	73		 DB	 115			; 00000073H
  012e5	70		 DB	 112			; 00000070H
  012e6	72		 DB	 114			; 00000072H
  012e7	68		 DB	 104			; 00000068H
  012e8	65		 DB	 101			; 00000065H
  012e9	61		 DB	 97			; 00000061H
  012ea	64		 DB	 100			; 00000064H
  012eb	00		 DB	 0
$LN54@InitSprBin:
  012ec	5f		 DB	 95			; 0000005fH
  012ed	73		 DB	 115			; 00000073H
  012ee	70		 DB	 112			; 00000070H
  012ef	72		 DB	 114			; 00000072H
  012f0	61		 DB	 97			; 00000061H
  012f1	64		 DB	 100			; 00000064H
  012f2	72		 DB	 114			; 00000072H
  012f3	6e		 DB	 110			; 0000006eH
  012f4	00		 DB	 0
?InitSprBinFileOpen@@YAHPAD0@Z ENDP			; InitSprBinFileOpen
_TEXT	ENDS
END
