; Listing generated by Microsoft (R) Optimizing Compiler Version 19.00.24215.1 

	TITLE	C:\Users\Administrator\Desktop\????? ??\????? ??\Client Source Code\system\login.cpp
	.686P
	.XMM
	include listing.inc
	.model	flat

INCLUDELIB MSVCRTD
INCLUDELIB OLDNAMES

PUBLIC	?msgWN_W@@3HA					; msgWN_W
PUBLIC	?msgWN_H@@3HA					; msgWN_H
PUBLIC	?ptActMenuWin@@3PAUaction@@A			; ptActMenuWin
PUBLIC	?selStartLine@@3HA				; selStartLine
PUBLIC	?wnOpenX@@3HA					; wnOpenX
PUBLIC	?wnOpenY@@3HA					; wnOpenY
PUBLIC	?shopWindowMode@@3FA				; shopWindowMode
PUBLIC	?shopWindow1Title@@3PADA			; shopWindow1Title
PUBLIC	?shopWindow1Msg@@3PADA				; shopWindow1Msg
PUBLIC	?menuIndexWN@@3HA				; menuIndexWN
PUBLIC	?shopWindow2Msg@@3PAY0CN@DA			; shopWindow2Msg
PUBLIC	?shopWondow2Page@@3FA				; shopWondow2Page
PUBLIC	?shopWondow2MaxPage@@3FA			; shopWondow2MaxPage
PUBLIC	?sealItem@@3PAUITEM_SHOP@@A			; sealItem
PUBLIC	?selShopItemNo@@3FA				; selShopItemNo
PUBLIC	?shopWindow3Msg@@3PADA				; shopWindow3Msg
PUBLIC	?sealItemCnt@@3FA				; sealItemCnt
PUBLIC	?shopWindow4Msg@@3PAY0CH@DA			; shopWindow4Msg
PUBLIC	?shopWindow5Msg@@3PAY0CH@DA			; shopWindow5Msg
PUBLIC	?shopWindow6Msg@@3PAY0CH@DA			; shopWindow6Msg
PUBLIC	?nowUserItemCnt@@3FA				; nowUserItemCnt
PUBLIC	?shopWindow7Msg@@3PAY0CH@DA			; shopWindow7Msg
PUBLIC	?shopWindow8Msg@@3PAY0CH@DA			; shopWindow8Msg
PUBLIC	?FMmsgWN@@3PAHA					; FMmsgWN
PUBLIC	?FMelderFlag@@3PAHA				; FMelderFlag
PUBLIC	?FMpidWN@@3PAHA					; FMpidWN
PUBLIC	?FMdengonidex@@3HA				; FMdengonidex
PUBLIC	?FMnameWN@@3PAY0BE@DA				; FMnameWN
PUBLIC	?FMHoldTime@@3_JA				; FMHoldTime
PUBLIC	?userItem@@3PAUITEM_SHOP@@A			; userItem
PUBLIC	?buyOffFlag@@3FA				; buyOffFlag
PUBLIC	?sealSkill@@3PAUSKILL_SHOP@@A			; sealSkill
PUBLIC	?skillShopWindowProcNo@@3FA			; skillShopWindowProcNo
PUBLIC	?selShopSkillNo@@3FA				; selShopSkillNo
PUBLIC	?selShopSkillPetNo@@3FA				; selShopSkillPetNo
PUBLIC	?selShopSkillSlotNo@@3FA			; selShopSkillSlotNo
PUBLIC	?restPoolSlot@@3HA				; restPoolSlot
PUBLIC	?poolItem@@3PAUPOOL_SHOP@@A			; poolItem
PUBLIC	?logOutFlag@@3HA				; logOutFlag
PUBLIC	?MsgCooltime@@3IA				; MsgCooltime
PUBLIC	?createCharFlag@@3FA				; createCharFlag
PUBLIC	?windowTypeWN@@3HA				; windowTypeWN
PUBLIC	?wnCloseFlag@@3FA				; wnCloseFlag
PUBLIC	?FMPKDataList@@3PAUFMPKData@@A			; FMPKDataList
PUBLIC	?serverTime@@3HA				; serverTime
PUBLIC	?winStr@@3PAY0BA@DA				; winStr
PUBLIC	?ProfessionShopTitle@@3PADA			; ProfessionShopTitle
PUBLIC	?familyDetail@@3U<unnamed-type-familyDetail>@@A	; familyDetail
PUBLIC	?ProfessionShopMsg@@3PAY0CN@DA			; ProfessionShopMsg
PUBLIC	?skillShopWindow2ProcNo@@3FA			; skillShopWindow2ProcNo
PUBLIC	?nGroup@@3HA					; nGroup
PUBLIC	?nServerGroup@@3HA				; nServerGroup
PUBLIC	?szUser@@3PADA					; szUser
PUBLIC	?szPassword@@3PADA				; szPassword
PUBLIC	?szUser_JL@@3PADA				; szUser_JL
PUBLIC	?szPassword_JL@@3PADA				; szPassword_JL
PUBLIC	?selectGraLocate@@3PAY01HA			; selectGraLocate
PUBLIC	?selectGraHitArea@@3PAY03HA			; selectGraHitArea
PUBLIC	?selCharName@@3USTR_BUFFER@@A			; selCharName
PUBLIC	?LoginAnnounce@@3HA				; LoginAnnounce
PUBLIC	?skillShopWindow3ProcNo@@3FA			; skillShopWindow3ProcNo
PUBLIC	?AnnounceBuf@@3PADA				; AnnounceBuf
PUBLIC	?WinLua@@3PAUlua_State@@A			; WinLua
PUBLIC	?cloasewindows@@3HA				; cloasewindows
PUBLIC	?windows@@3USA_WINDOWS@@A			; windows
PUBLIC	?FMPKSelectData@@3PAUFMPKSelect@@A		; FMPKSelectData
PUBLIC	?FMPKSelectNum@@3HA				; FMPKSelectNum
PUBLIC	?mouseGetName@@3PADA				; mouseGetName
PUBLIC	?shopWindow1ProcNo@@3FA				; shopWindow1ProcNo
PUBLIC	?AuctionStr@@3USTR_BUFFER@@A			; AuctionStr
PUBLIC	?AuctionMoney@@3USTR_BUFFER@@A			; AuctionMoney
PUBLIC	?szpALD@@3PADA					; szpALD
PUBLIC	?bNewData@@3HA					; bNewData
PUBLIC	?shopWindow2ProcNo@@3FA				; shopWindow2ProcNo
PUBLIC	?fmDutyproc@@3HA				; fmDutyproc
PUBLIC	?fmDutyRet@@3HA					; fmDutyRet
PUBLIC	?fmYesNoproc@@3HA				; fmYesNoproc
PUBLIC	?fmYesNoRet@@3HA				; fmYesNoRet
PUBLIC	?BigpBuffer@@3PADA				; BigpBuffer
PUBLIC	?FMPKDetailData@@3UFMPKDetail@@A		; FMPKDetailData
PUBLIC	?contractSign@@3PAUcontractSignTag@@A		; contractSign
PUBLIC	?contractDetail@@3PADA				; contractDetail
PUBLIC	?contractArgnum@@3HA				; contractArgnum
PUBLIC	?contractTime@@3PADA				; contractTime
PUBLIC	?contractSignIndex@@3HA				; contractSignIndex
PUBLIC	?contractSigned@@3HA				; contractSigned
PUBLIC	?skillShopWindow4ProcNo@@3FA			; skillShopWindow4ProcNo
PUBLIC	?skillShopWindow1ProcNo@@3FA			; skillShopWindow1ProcNo
PUBLIC	?shopWindow3ProcNo@@3FA				; shopWindow3ProcNo
PUBLIC	?idKey@@3USTR_BUFFER@@A				; idKey
PUBLIC	?passwd@@3USTR_BUFFER@@A			; passwd
PUBLIC	?idPasswordStr@@3PAUSTR_BUFFER@@A		; idPasswordStr
PUBLIC	?idKeyReturn@@3FA				; idKeyReturn
PUBLIC	?shopWindowProcNo@@3FA				; shopWindowProcNo
PUBLIC	?poolShopWindow1ProcNo@@3FA			; poolShopWindow1ProcNo
PUBLIC	?familyTax@@3HA					; familyTax
PUBLIC	?familyTaxChange@@3HA				; familyTaxChange
PUBLIC	?haveGold@@3HA					; haveGold
PUBLIC	?shopWindow4ProcNo@@3FA				; shopWindow4ProcNo
PUBLIC	?poolShopWindow2ProcNo@@3FA			; poolShopWindow2ProcNo
PUBLIC	?linemsgWN@@3PAY0MI@DA				; linemsgWN
PUBLIC	?ranktitle@@3PADA				; ranktitle
PUBLIC	?PetskillShpwWindowProcNo@@3FA			; PetskillShpwWindowProcNo
PUBLIC	?shopWindow5ProcNo@@3FA				; shopWindow5ProcNo
PUBLIC	?rideablePet@@3PAHA				; rideablePet
PUBLIC	?showNum@@3HA					; showNum
PUBLIC	?shopWindow6ProcNo@@3FA				; shopWindow6ProcNo
PUBLIC	?poolShopWindow3ProcNo@@3FA			; poolShopWindow3ProcNo
PUBLIC	?shopWindow7ProcNo@@3FA				; shopWindow7ProcNo
PUBLIC	?poolShopWindow4ProcNo@@3FA			; poolShopWindow4ProcNo
PUBLIC	?memberName@@3PAY0CE@DA				; memberName
PUBLIC	?memberIndex@@3PAHA				; memberIndex
PUBLIC	?memberNum@@3HA					; memberNum
PUBLIC	?changeWho@@3HA					; changeWho
PUBLIC	?shopWindow8ProcNo@@3FA				; shopWindow8ProcNo
PUBLIC	?oldLeaderName@@3PADA				; oldLeaderName
PUBLIC	?oldLeaderIndex@@3HA				; oldLeaderIndex
PUBLIC	??_C@_00CNPNBAHC@?$AA@				; `string'
PUBLIC	?shopWindow10ProcNo@@3FA			; shopWindow10ProcNo
PUBLIC	?familyElf@@3HA					; familyElf
PUBLIC	?familyNameInput@@3USTR_BUFFER@@A		; familyNameInput
PUBLIC	?familyRuleInput@@3USTR_BUFFER@@A		; familyRuleInput
PUBLIC	?familyRuleShow@@3USTR_BUFFER@@A		; familyRuleShow
PUBLIC	?ptActSelectServerWin@@3PAUaction@@A		; ptActSelectServerWin
PUBLIC	?mineFamily@@3U<unnamed-type-mineFamily>@@A	; mineFamily
PUBLIC	?lnmake@@3FA					; lnmake
PUBLIC	?familyJobName@@3PAPADA				; familyJobName
PUBLIC	??_C@_0L@GHPFLEHL@?$LJ?L?$LA?$KB?$MA?T?$LA?$KB?A?$LH?$AA@ ; `string'
PUBLIC	??_C@_0L@MFGFKAEI@?5?$LK?N?5?A?$LH?5?$LP?x?5?$AA@ ; `string'
PUBLIC	??_C@_08GOJGDLLD@?$MA?S?$LN?C?$LA?$KB?$MA?T?$AA@ ; `string'
PUBLIC	??_C@_08ECFEKNKI@?5?A?$LH?5?5?$MA?e?5?$AA@	; `string'
PUBLIC	??_C@_08PIEEGEIM@?5?$MA?e?5?5?$LH?N?5?$AA@	; `string'
PUBLIC	?familyTownName@@3PAPADA			; familyTownName
PUBLIC	??_C@_0L@HHLJABBI@?$LM?$KE?$LB?b?$LI?$KD?A?$KE?$LP?x?$AA@ ; `string'
PUBLIC	??_C@_0N@KAPGNPPN@?$LI?$LG?$LI?$KO?$LD?J?$LN?$LK?A?$KE?$LP?x?$AA@ ; `string'
PUBLIC	??_C@_08IDMOOHGA@?$MA?p?$MA?p?A?$KE?$LP?x?$AA@	; `string'
PUBLIC	??_C@_0N@NNHNHLEI@?D?$KL?$LH?g?E?$LI?$LD?$KK?A?$KE?$LP?x?$AA@ ; `string'
PUBLIC	?pBankProcWnd@@3PAUaction@@A			; pBankProcWnd
PUBLIC	?AuctionItem@@3USTR_BUFFER@@A			; AuctionItem
PUBLIC	?pActAuctionWT@@3PAUaction@@A			; pActAuctionWT
PUBLIC	?buttonTypeWN@@3HA				; buttonTypeWN
PUBLIC	?indexWN@@3HA					; indexWN
PUBLIC	?idWN@@3HA					; idWN
PUBLIC	?msgWN@@3PAY0BAA@DA				; msgWN
PUBLIC	?msgWNLen@@3HA					; msgWNLen
_BSS	SEGMENT
?msgWN_W@@3HA DD 01H DUP (?)				; msgWN_W
?msgWN_H@@3HA DD 01H DUP (?)				; msgWN_H
?ptActMenuWin@@3PAUaction@@A DD 01H DUP (?)		; ptActMenuWin
?selStartLine@@3HA DD 01H DUP (?)			; selStartLine
?wnOpenX@@3HA DD 01H DUP (?)				; wnOpenX
?wnOpenY@@3HA DD 01H DUP (?)				; wnOpenY
?shopWindowMode@@3FA DW 01H DUP (?)			; shopWindowMode
	ALIGN	4

?shopWindow1Title@@3PADA DB 01bH DUP (?)		; shopWindow1Title
	ALIGN	4

?shopWindow1Msg@@3PADA DB 01bH DUP (?)			; shopWindow1Msg
	ALIGN	4

?menuIndexWN@@3HA DD 01H DUP (?)			; menuIndexWN
?shopWindow2Msg@@3PAY0CN@DA DB 05aH DUP (?)		; shopWindow2Msg
	ALIGN	4

?prevBtn@?1??familyListWN@@YAXXZ@4HA DD 01H DUP (?)	; `familyListWN'::`2'::prevBtn
?shopWondow2Page@@3FA DW 01H DUP (?)			; shopWondow2Page
	ALIGN	4

?shopWondow2MaxPage@@3FA DW 01H DUP (?)			; shopWondow2MaxPage
	ALIGN	4

?nextBtn@?1??familyListWN@@YAXXZ@4HA DD 01H DUP (?)	; `familyListWN'::`2'::nextBtn
?sealItem@@3PAUITEM_SHOP@@A DB 01180H DUP (?)		; sealItem
?selShopItemNo@@3FA DW 01H DUP (?)			; selShopItemNo
	ALIGN	4

?prevBtn10@?1??familyListWN@@YAXXZ@4HA DD 01H DUP (?)	; `familyListWN'::`2'::prevBtn10
?shopWindow3Msg@@3PADA DB 029H DUP (?)			; shopWindow3Msg
	ALIGN	4

?sealItemCnt@@3FA DW 01H DUP (?)			; sealItemCnt
	ALIGN	4

?shopWindow4Msg@@3PAY0CH@DA DB 04eH DUP (?)		; shopWindow4Msg
	ALIGN	4

?nextBtn10@?1??familyListWN@@YAXXZ@4HA DD 01H DUP (?)	; `familyListWN'::`2'::nextBtn10
?shopWindow5Msg@@3PAY0CH@DA DB 04eH DUP (?)		; shopWindow5Msg
	ALIGN	4

?shopWindow6Msg@@3PAY0CH@DA DB 04eH DUP (?)		; shopWindow6Msg
	ALIGN	4

?nowUserItemCnt@@3FA DW 01H DUP (?)			; nowUserItemCnt
	ALIGN	4

?shopWindow7Msg@@3PAY0CH@DA DB 04eH DUP (?)		; shopWindow7Msg
	ALIGN	4

?shopWindow8Msg@@3PAY0CH@DA DB 04eH DUP (?)		; shopWindow8Msg
	ALIGN	4

?FMmsgWN@@3PAHA DD 010H DUP (?)				; FMmsgWN
?FMelderFlag@@3PAHA DD 010H DUP (?)			; FMelderFlag
?FMpidWN@@3PAHA DD 010H DUP (?)				; FMpidWN
?FMdengonidex@@3HA DD 01H DUP (?)			; FMdengonidex
?selects@?1??serverWindowType9@@YAXXZ@4HA DD 01H DUP (?) ; `serverWindowType9'::`2'::selects
?FMnameWN@@3PAY0BE@DA DB 0dcH DUP (?)			; FMnameWN
?FMHoldTime@@3_JA DQ 01H DUP (?)			; FMHoldTime
?userItem@@3PAUITEM_SHOP@@A DB 01180H DUP (?)		; userItem
?buyOffFlag@@3FA DW 01H DUP (?)				; buyOffFlag
	ALIGN	4

?bErr@?1??DelCharGraColorWin@@YAHXZ@4HA DD 01H DUP (?)	; `DelCharGraColorWin'::`2'::bErr
?ptActMenuWin@?1??DelCharGraColorWin@@YAHXZ@4PAUaction@@A DD 01H DUP (?) ; `DelCharGraColorWin'::`2'::ptActMenuWin
?sealSkill@@3PAUSKILL_SHOP@@A DB 02300H DUP (?)		; sealSkill
?skillShopWindowProcNo@@3FA DW 01H DUP (?)		; skillShopWindowProcNo
	ALIGN	4

?selShopSkillNo@@3FA DW 01H DUP (?)			; selShopSkillNo
	ALIGN	4

?selShopSkillPetNo@@3FA DW 01H DUP (?)			; selShopSkillPetNo
	ALIGN	4

?selShopSkillSlotNo@@3FA DW 01H DUP (?)			; selShopSkillSlotNo
	ALIGN	4

?restPoolSlot@@3HA DD 01H DUP (?)			; restPoolSlot
?poolItem@@3PAUPOOL_SHOP@@A DB 03740H DUP (?)		; poolItem
?logOutFlag@@3HA DD 01H DUP (?)				; logOutFlag
?deleteCharacterProcNo@@3FA DW 01H DUP (?)		; deleteCharacterProcNo
	ALIGN	4

?MsgCooltime@@3IA DD 01H DUP (?)			; MsgCooltime
?createCharFlag@@3FA DW 01H DUP (?)			; createCharFlag
	ALIGN	4

?wnCloseFlag@@3FA DW 01H DUP (?)			; wnCloseFlag
	ALIGN	4

?FMPKDataList@@3PAUFMPKData@@A DB 0100H DUP (?)		; FMPKDataList
?serverTime@@3HA DD 01H DUP (?)				; serverTime
?ptActMenuWin@?1??deleteCharacter@@YAHXZ@4PAUaction@@A DD 01H DUP (?) ; `deleteCharacter'::`2'::ptActMenuWin
?ProfessionShopTitle@@3PADA DB 01bH DUP (?)		; ProfessionShopTitle
	ALIGN	4

?familyDetail@@3U<unnamed-type-familyDetail>@@A DB 011cH DUP (?) ; familyDetail
?ProfessionShopMsg@@3PAY0CN@DA DB 05aH DUP (?)		; ProfessionShopMsg
	ALIGN	4

?changeData@@3PAHA DD 02H DUP (?)			; changeData
?downloadCharListProcNo@@3FA DW 01H DUP (?)		; downloadCharListProcNo
	ALIGN	4

?ptActMenuWin@?1??downloadCharList@@YAHXZ@4PAUaction@@A DD 01H DUP (?) ; `downloadCharList'::`2'::ptActMenuWin
?pShowPet@?1??AuctionSurveyModifyWT@@YAXXZ@4PAUaction@@A DD 01H DUP (?) ; `AuctionSurveyModifyWT'::`2'::pShowPet
?skillShopWindow2ProcNo@@3FA DW 01H DUP (?)		; skillShopWindow2ProcNo
	ALIGN	4

?prevBtn@?1??familyDetailWN@@YAHXZ@4HA DD 01H DUP (?)	; `familyDetailWN'::`2'::prevBtn
?nextBtn@?1??familyDetailWN@@YAHXZ@4HA DD 01H DUP (?)	; `familyDetailWN'::`2'::nextBtn
?familyPetIndex@?1??familyDetailWN@@YAHXZ@4HA DD 01H DUP (?) ; `familyDetailWN'::`2'::familyPetIndex
?nGroup@@3HA DD	01H DUP (?)				; nGroup
?nServerGroup@@3HA DD 01H DUP (?)			; nServerGroup
?szUser@@3PADA DB 020H DUP (?)				; szUser
?szPassword@@3PADA DB 020H DUP (?)			; szPassword
?szUser_JL@@3PADA DB 020H DUP (?)			; szUser_JL
?szPassword_JL@@3PADA DB 020H DUP (?)			; szPassword_JL
?selCharName@@3USTR_BUFFER@@A DB 0128H DUP (?)		; selCharName
?LoginAnnounce@@3HA DD 01H DUP (?)			; LoginAnnounce
?skillShopWindow3ProcNo@@3FA DW 01H DUP (?)		; skillShopWindow3ProcNo
	ALIGN	4

?AnnounceBuf@@3PADA DB 02000H DUP (?)			; AnnounceBuf
?WinLua@@3PAUlua_State@@A DD 01H DUP (?)		; WinLua
?cloasewindows@@3HA DD 01H DUP (?)			; cloasewindows
?windows@@3USA_WINDOWS@@A DB 0b58H DUP (?)		; windows
?FMPKSelectData@@3PAUFMPKSelect@@A DB 0c0H DUP (?)	; FMPKSelectData
?FMPKSelectNum@@3HA DD 01H DUP (?)			; FMPKSelectNum
?mouseGetName@@3PADA DB 014H DUP (?)			; mouseGetName
?shopWindow1ProcNo@@3FA DW 01H DUP (?)			; shopWindow1ProcNo
	ALIGN	4

?AuctionStr@@3USTR_BUFFER@@A DB 0128H DUP (?)		; AuctionStr
?AuctionMoney@@3USTR_BUFFER@@A DB 0128H DUP (?)		; AuctionMoney
?szpALD@@3PADA DD 01H DUP (?)				; szpALD
?bNewData@@3HA DD 01H DUP (?)				; bNewData
?shopWindow2ProcNo@@3FA DW 01H DUP (?)			; shopWindow2ProcNo
	ALIGN	4

?fmDutyproc@@3HA DD 01H DUP (?)				; fmDutyproc
?fmDutyRet@@3HA DD 01H DUP (?)				; fmDutyRet
?fmYesNoproc@@3HA DD 01H DUP (?)			; fmYesNoproc
?inBlacklist@?1??showMouseGetNameWN@@YAXXZ@4HA DD 01H DUP (?) ; `showMouseGetNameWN'::`2'::inBlacklist
?fmYesNoRet@@3HA DD 01H DUP (?)				; fmYesNoRet
?BigpBuffer@@3PADA DB 0800H DUP (?)			; BigpBuffer
?FMPKDetailData@@3UFMPKDetail@@A DB 034H DUP (?)	; FMPKDetailData
?contractSign@@3PAUcontractSignTag@@A DB 0110H DUP (?)	; contractSign
?contractDetail@@3PADA DB 0800H DUP (?)			; contractDetail
?contractArgnum@@3HA DD 01H DUP (?)			; contractArgnum
?contractTime@@3PADA DB 0200H DUP (?)			; contractTime
?contractSignIndex@@3HA DD 01H DUP (?)			; contractSignIndex
?contractSigned@@3HA DD 01H DUP (?)			; contractSigned
?ptActMenuWin@?1??selCharGraColorWin@@YAHXZ@4PAUaction@@A DD 01H DUP (?) ; `selCharGraColorWin'::`2'::ptActMenuWin
?page@?1??showContractWN@@YAXXZ@4HA DD 01H DUP (?)	; `showContractWN'::`2'::page
?max_page@?1??showContractWN@@YAXXZ@4HA DD 01H DUP (?)	; `showContractWN'::`2'::max_page
?skillShopWindow4ProcNo@@3FA DW 01H DUP (?)		; skillShopWindow4ProcNo
	ALIGN	4

?skillShopWindow1ProcNo@@3FA DW 01H DUP (?)		; skillShopWindow1ProcNo
	ALIGN	4

?shopWindow3ProcNo@@3FA DW 01H DUP (?)			; shopWindow3ProcNo
	ALIGN	4

?idKey@@3USTR_BUFFER@@A DB 0128H DUP (?)		; idKey
?passwd@@3USTR_BUFFER@@A DB 0128H DUP (?)		; passwd
?idKeyReturn@@3FA DW 01H DUP (?)			; idKeyReturn
	ALIGN	4

?inBlacklist@?1??showContractWN@@YAXXZ@4HA DD 01H DUP (?) ; `showContractWN'::`2'::inBlacklist
?idPasswordFocusSw@@3HA DD 01H DUP (?)			; idPasswordFocusSw
?bAgain@@3HA DD	01H DUP (?)				; bAgain
?ptActMenuWin@?1??idPasswordProc@@YAXXZ@4PAUaction@@A DD 01H DUP (?) ; `idPasswordProc'::`2'::ptActMenuWin
?shopWindowProcNo@@3FA DW 01H DUP (?)			; shopWindowProcNo
	ALIGN	4

?poolShopWindow1ProcNo@@3FA DW 01H DUP (?)		; poolShopWindow1ProcNo
	ALIGN	4

?familyTax@@3HA DD 01H DUP (?)				; familyTax
?familyTaxChange@@3HA DD 01H DUP (?)			; familyTaxChange
?haveGold@@3HA DD 01H DUP (?)				; haveGold
?taxGoldInc@?1??familyTaxWN@@YAXXZ@4HA DD 01H DUP (?)	; `familyTaxWN'::`2'::taxGoldInc
?taxGoldDec@?1??familyTaxWN@@YAXXZ@4HA DD 01H DUP (?)	; `familyTaxWN'::`2'::taxGoldDec
?shopWindow4ProcNo@@3FA DW 01H DUP (?)			; shopWindow4ProcNo
	ALIGN	4

?taxGoldCnt@?1??familyTaxWN@@YAXXZ@4HA DD 01H DUP (?)	; `familyTaxWN'::`2'::taxGoldCnt
?poolShopWindow2ProcNo@@3FA DW 01H DUP (?)		; poolShopWindow2ProcNo
	ALIGN	4

?linemsgWN@@3PAY0MI@DA DB 07d0H DUP (?)			; linemsgWN
?ranktitle@@3PADA DB 03cH DUP (?)			; ranktitle
?PetskillShpwWindowProcNo@@3FA DW 01H DUP (?)		; PetskillShpwWindowProcNo
	ALIGN	4

?flag2@?1??inputIdPassword@@YAHH@Z@4HA DD 01H DUP (?)	; `inputIdPassword'::`2'::flag2
?oldId@?1??inputIdPassword@@YAHH@Z@4HA DD 01H DUP (?)	; `inputIdPassword'::`2'::oldId
?shopWindow5ProcNo@@3FA DW 01H DUP (?)			; shopWindow5ProcNo
	ALIGN	4

?rideablePet@@3PAHA DD 03H DUP (?)			; rideablePet
?showNum@@3HA DD 01H DUP (?)				; showNum
?commonMsgWinProcNo@@3FA DW 01H DUP (?)			; commonMsgWinProcNo
	ALIGN	4

?shopWindow6ProcNo@@3FA DW 01H DUP (?)			; shopWindow6ProcNo
	ALIGN	4

?poolShopWindow3ProcNo@@3FA DW 01H DUP (?)		; poolShopWindow3ProcNo
	ALIGN	4

?ptActMenuWin@?1??commonMsgWin@@YAHPAD@Z@4PAUaction@@A DD 01H DUP (?) ; `commonMsgWin'::`2'::ptActMenuWin
?selects@?1??serverWindowDragonFusion@@YAXXZ@4HA DD 01H DUP (?) ; `serverWindowDragonFusion'::`2'::selects
?shopWindow7ProcNo@@3FA DW 01H DUP (?)			; shopWindow7ProcNo
	ALIGN	4

?poolShopWindow4ProcNo@@3FA DW 01H DUP (?)		; poolShopWindow4ProcNo
	ALIGN	4

?memberName@@3PAY0CE@DA DB 0e10H DUP (?)		; memberName
?memberIndex@@3PAHA DD 064H DUP (?)			; memberIndex
?memberNum@@3HA DD 01H DUP (?)				; memberNum
?changeWho@@3HA DD 01H DUP (?)				; changeWho
?shopWindow8ProcNo@@3FA DW 01H DUP (?)			; shopWindow8ProcNo
	ALIGN	4

?userCertifyErrorMsgWinProcNo@@3FA DW 01H DUP (?)	; userCertifyErrorMsgWinProcNo
	ALIGN	4

?ptActMenuWin@?1??fmselectdetuyWindow@@YAHHHH@Z@4PAUaction@@A DD 01H DUP (?) ; `fmselectdetuyWindow'::`2'::ptActMenuWin
?ptActMenuWin@?1??createChar@@YAHXZ@4PAUaction@@A DD 01H DUP (?) ; `createChar'::`2'::ptActMenuWin
?oldLeaderName@@3PADA DB 024H DUP (?)			; oldLeaderName
?oldLeaderIndex@@3HA DD 01H DUP (?)			; oldLeaderIndex
?shopWindow10ProcNo@@3FA DW 01H DUP (?)			; shopWindow10ProcNo
	ALIGN	4

?familyPetIndex@@3HA DD 01H DUP (?)			; familyPetIndex
?familyNameInput@@3USTR_BUFFER@@A DB 0128H DUP (?)	; familyNameInput
?familyRuleInput@@3USTR_BUFFER@@A DB 0128H DUP (?)	; familyRuleInput
?familyRuleShow@@3USTR_BUFFER@@A DB 0128H DUP (?)	; familyRuleShow
?x@?1??familyAddWN@@YAXXZ@4HA DD 01H DUP (?)		; `familyAddWN'::`2'::x
?y@?1??familyAddWN@@YAXXZ@4HA DD 01H DUP (?)		; `familyAddWN'::`2'::y
?w@?1??familyAddWN@@YAXXZ@4HA DD 01H DUP (?)		; `familyAddWN'::`2'::w
?h@?1??familyAddWN@@YAXXZ@4HA DD 01H DUP (?)		; `familyAddWN'::`2'::h
?prevBtn@?1??familyAddWN@@YAXXZ@4HA DD 01H DUP (?)	; `familyAddWN'::`2'::prevBtn
?ptActMenuWin@?1??fmYesNoWindow@@YAHHHH@Z@4PAUaction@@A DD 01H DUP (?) ; `fmYesNoWindow'::`2'::ptActMenuWin
?nextBtn@?1??familyAddWN@@YAXXZ@4HA DD 01H DUP (?)	; `familyAddWN'::`2'::nextBtn
?Inputforce@?1??familyAddWN@@YAXXZ@4HA DD 01H DUP (?)	; `familyAddWN'::`2'::Inputforce
?ptActSelectServerWin@@3PAUaction@@A DD 01H DUP (?)	; ptActSelectServerWin
?mineFamily@@3U<unnamed-type-mineFamily>@@A DB 0204H DUP (?) ; mineFamily
?lnmake@@3FA DW	01H DUP (?)				; lnmake
	ALIGN	4

?charLoginProcNo@@3FA DW 01H DUP (?)			; charLoginProcNo
	ALIGN	4

?familyListProcNo@@3FA DW 01H DUP (?)			; familyListProcNo
	ALIGN	4

?pagenum@@3HA DD 01H DUP (?)				; pagenum
?familytotal@@3HA DD 01H DUP (?)			; familytotal
?pBankProcWnd@@3PAUaction@@A DD 01H DUP (?)		; pBankProcWnd
?familynum@@3HA DD 01H DUP (?)				; familynum
?ptActMenuWin@?1??charLogin@@YAHXZ@4PAUaction@@A DD 01H DUP (?) ; `charLogin'::`2'::ptActMenuWin
?Gold@?1??BankProc@@YAXXZ@4HA DD 01H DUP (?)		; `BankProc'::`2'::Gold
?BankGoldInc@?1??BankProc@@YAXXZ@4HA DD 01H DUP (?)	; `BankProc'::`2'::BankGoldInc
?BankGoldCnt@?1??BankProc@@YAXXZ@4HA DD 01H DUP (?)	; `BankProc'::`2'::BankGoldCnt
?connecGameServerProcNo@@3FA DW 01H DUP (?)		; connecGameServerProcNo
	ALIGN	4

?ptActMenuWin@?1??connecGameServer@@YAHXZ@4PAUaction@@A DD 01H DUP (?) ; `connecGameServer'::`2'::ptActMenuWin
?produce_vct_no@@3HA DD 01H DUP (?)			; produce_vct_no
?pkListProcNo@@3FA DW 01H DUP (?)			; pkListProcNo
	ALIGN	4

?pkPlayerTotal@@3HA DD 01H DUP (?)			; pkPlayerTotal
?pkPageNum@@3HA DD 01H DUP (?)				; pkPageNum
?pkPlayerNum@@3HA DD 01H DUP (?)			; pkPlayerNum
?pkHistoryListProcNo@@3FA DW 01H DUP (?)		; pkHistoryListProcNo
	ALIGN	4

?pkHistoryMaxSeason@@3HA DD 01H DUP (?)			; pkHistoryMaxSeason
?pkHistoryPageNum@@3HA DD 01H DUP (?)			; pkHistoryPageNum
?pkHistoryPlayerNum@@3HA DD 01H DUP (?)			; pkHistoryPlayerNum
?pkHistoryInfo@@3PADA DB 040H DUP (?)			; pkHistoryInfo
?ptActMenuWin@?1??charLogout@@YAHXZ@4PAUaction@@A DD 01H DUP (?) ; `charLogout'::`2'::ptActMenuWin
?AuctionItem@@3USTR_BUFFER@@A DB 0128H DUP (?)		; AuctionItem
?pActAuctionWT@@3PAUaction@@A DD 01H DUP (?)		; pActAuctionWT
?pShowPet1@?1??AuctionNewWT@@YAXXZ@4PAUaction@@A DD 01H DUP (?) ; `AuctionNewWT'::`2'::pShowPet1
?pShowPet2@?1??AuctionNewWT@@YAXXZ@4PAUaction@@A DD 01H DUP (?) ; `AuctionNewWT'::`2'::pShowPet2
?buttonTypeWN@@3HA DD 01H DUP (?)			; buttonTypeWN
?indexWN@@3HA DD 01H DUP (?)				; indexWN
?idWN@@3HA DD	01H DUP (?)				; idWN
?msgWN@@3PAY0BAA@DA DB 01900H DUP (?)			; msgWN
?msgWNLen@@3HA DD 01H DUP (?)				; msgWNLen
_BSS	ENDS
;	COMDAT ??_C@_0N@NNHNHLEI@?D?$KL?$LH?g?E?$LI?$LD?$KK?A?$KE?$LP?x?$AA@
CONST	SEGMENT
??_C@_0N@NNHNHLEI@?D?$KL?$LH?g?E?$LI?$LD?$KK?A?$KE?$LP?x?$AA@ DB 0c4H, 0abH
	DB	0b7H, 0e7H, 0c5H, 0b8H, 0b3H, 0aaH, 0c1H, 0a4H, 0bfH, 0f8H, 00H ; `string'
CONST	ENDS
;	COMDAT ??_C@_08IDMOOHGA@?$MA?p?$MA?p?A?$KE?$LP?x?$AA@
CONST	SEGMENT
??_C@_08IDMOOHGA@?$MA?p?$MA?p?A?$KE?$LP?x?$AA@ DB 0c0H, 0f0H, 0c0H, 0f0H, 0c1H
	DB	0a4H, 0bfH, 0f8H, 00H			; `string'
CONST	ENDS
;	COMDAT ??_C@_0N@KAPGNPPN@?$LI?$LG?$LI?$KO?$LD?J?$LN?$LK?A?$KE?$LP?x?$AA@
CONST	SEGMENT
??_C@_0N@KAPGNPPN@?$LI?$LG?$LI?$KO?$LD?J?$LN?$LK?A?$KE?$LP?x?$AA@ DB 0b8H
	DB	0b6H, 0b8H, 0aeH, 0b3H, 0caH, 0bdH, 0baH, 0c1H, 0a4H, 0bfH, 0f8H
	DB	00H						; `string'
CONST	ENDS
;	COMDAT ??_C@_0L@HHLJABBI@?$LM?$KE?$LB?b?$LI?$KD?A?$KE?$LP?x?$AA@
CONST	SEGMENT
??_C@_0L@HHLJABBI@?$LM?$KE?$LB?b?$LI?$KD?A?$KE?$LP?x?$AA@ DB 0bcH, 0a4H, 0b1H
	DB	0e2H, 0b8H, 0a3H, 0c1H, 0a4H, 0bfH, 0f8H, 00H ; `string'
CONST	ENDS
;	COMDAT ??_C@_08PIEEGEIM@?5?$MA?e?5?5?$LH?N?5?$AA@
CONST	SEGMENT
??_C@_08PIEEGEIM@?5?$MA?e?5?5?$LH?N?5?$AA@ DB ' ', 0c0H, 0e5H, '  ', 0b7H
	DB	0ceH, ' ', 00H				; `string'
CONST	ENDS
;	COMDAT ??_C@_08ECFEKNKI@?5?A?$LH?5?5?$MA?e?5?$AA@
CONST	SEGMENT
??_C@_08ECFEKNKI@?5?A?$LH?5?5?$MA?e?5?$AA@ DB ' ', 0c1H, 0b7H, '  ', 0c0H
	DB	0e5H, ' ', 00H				; `string'
CONST	ENDS
;	COMDAT ??_C@_08GOJGDLLD@?$MA?S?$LN?C?$LA?$KB?$MA?T?$AA@
CONST	SEGMENT
??_C@_08GOJGDLLD@?$MA?S?$LN?C?$LA?$KB?$MA?T?$AA@ DB 0c0H, 0d3H, 0bdH, 0c3H
	DB	0b0H, 0a1H, 0c0H, 0d4H, 00H			; `string'
CONST	ENDS
;	COMDAT ??_C@_0L@MFGFKAEI@?5?$LK?N?5?A?$LH?5?$LP?x?5?$AA@
CONST	SEGMENT
??_C@_0L@MFGFKAEI@?5?$LK?N?5?A?$LH?5?$LP?x?5?$AA@ DB ' ', 0baH, 0ceH, ' ', 0c1H
	DB	0b7H, ' ', 0bfH, 0f8H, ' ', 00H		; `string'
CONST	ENDS
;	COMDAT ??_C@_0L@GHPFLEHL@?$LJ?L?$LA?$KB?$MA?T?$LA?$KB?A?$LH?$AA@
CONST	SEGMENT
??_C@_0L@GHPFLEHL@?$LJ?L?$LA?$KB?$MA?T?$LA?$KB?A?$LH?$AA@ DB 0b9H, 0ccH, 0b0H
	DB	0a1H, 0c0H, 0d4H, 0b0H, 0a1H, 0c1H, 0b7H, 00H ; `string'
CONST	ENDS
;	COMDAT ??_C@_00CNPNBAHC@?$AA@
CONST	SEGMENT
??_C@_00CNPNBAHC@?$AA@ DB 00H				; `string'
CONST	ENDS
_DATA	SEGMENT
?RideCodeMode@@3PAUtagRideCodeMode@@A DD 018816H	; RideCodeMode
	DD	01H
	DD	018806H
	DD	02H
	DD	01880aH
	DD	04H
	DD	0187b7H
	DD	08H
	DD	0187c0H
	DD	010H
	DD	0187bbH
	DD	020H
	DD	0187faH
	DD	040H
	DD	0187d6H
	DD	080H
	DD	018814H
	DD	0100H
	DD	018815H
	DD	0200H
	DD	018c9cH
	DD	0800H
	DD	018cc8H
	DD	0400H
	DD	018812H
	DD	01000H
	DD	018811H
	DD	02000H
	DD	018a28H
	DD	04000H
	DD	018a2bH
	DD	08000H
	DD	018f30H
	DD	010000H
	DD	018f31H
	DD	020000H
	DD	018f68H
	DD	040000H
	DD	0187fcH
	DD	080000H
	DD	0187d3H
	DD	0100000H
	DD	018fa9H
	DD	0200000H
	DD	018faaH
	DD	0400000H
	DD	018a09H
	DD	0800000H
	DD	018a0aH
	DD	01000000H
	DD	019394H
	DD	02000000H
	DD	0187b2H
	DD	04000000H
?RideNoList@@3PAUtagRideNoList@@A DD 018bb9H		; RideNoList
	DD	018bbaH
	DD	018bbbH
	DD	018bbcH
	DD	018bbdH
	DD	018bbeH
	DD	018bbfH
	DD	018bc0H
	DD	018a90H
	DD	018a91H
	DD	018e5aH
	DD	018e65H
	DD	018849H
	DD	018844H
	DD	01885dH
	DD	018ee5H
	DD	018f0dH
	DD	018f19H
	DD	018f76H
	ORG $+32
	DD	018bc1H
	DD	018bc2H
	DD	018bc3H
	DD	018bc4H
	DD	018bc5H
	DD	018bc6H
	DD	018bc7H
	DD	018bc8H
	DD	018a9aH
	DD	018a9bH
	DD	018e62H
	DD	018e64H
	DD	018849H
	DD	018844H
	DD	01885dH
	DD	018ee6H
	DD	018f0eH
	DD	018f1aH
	DD	018f77H
	ORG $+32
	DD	018bc9H
	DD	018bcaH
	DD	018bcbH
	DD	018bccH
	DD	018bcdH
	DD	018bceH
	DD	018bcfH
	DD	018bd0H
	DD	018aa4H
	DD	018aa5H
	DD	018e57H
	DD	018e4dH
	DD	018849H
	DD	018844H
	DD	01885dH
	DD	018ee7H
	DD	018f0fH
	DD	018f1bH
	DD	018f78H
	ORG $+32
	DD	018bd1H
	DD	018bd2H
	DD	018bd3H
	DD	018bd4H
	DD	018bd5H
	DD	018bd6H
	DD	018bd7H
	DD	018bd8H
	DD	018aaeH
	DD	018aafH
	DD	018e58H
	DD	018e4eH
	DD	018849H
	DD	018844H
	DD	01885dH
	DD	018ee8H
	DD	018f10H
	DD	018f1cH
	DD	018f79H
	ORG $+32
	DD	018bd9H
	DD	018bdaH
	DD	018bdbH
	DD	018bdcH
	DD	018bddH
	DD	018bdeH
	DD	018bdfH
	DD	018be0H
	DD	018ab8H
	DD	018ab9H
	DD	018e60H
	DD	018e55H
	DD	018849H
	DD	018844H
	DD	01885dH
	DD	018ee9H
	DD	018f11H
	DD	018f1dH
	DD	018f7aH
	ORG $+32
	DD	018be1H
	DD	018be2H
	DD	018be3H
	DD	018be4H
	DD	018be5H
	DD	018be6H
	DD	018be7H
	DD	018be8H
	DD	018ac2H
	DD	018ac3H
	DD	018e61H
	DD	018e56H
	DD	018849H
	DD	018844H
	DD	01885dH
	DD	018eeaH
	DD	018f12H
	DD	018f1eH
	DD	018f7bH
	ORG $+32
	DD	018be9H
	DD	018beaH
	DD	018bebH
	DD	018becH
	DD	018bedH
	DD	018beeH
	DD	018befH
	DD	018bf0H
	DD	018accH
	DD	018acdH
	DD	018e59H
	DD	018e4fH
	DD	018849H
	DD	018844H
	DD	01885dH
	DD	018eebH
	DD	018f13H
	DD	018f1fH
	DD	018f7cH
	ORG $+32
	DD	018bf1H
	DD	018bf2H
	DD	018bf3H
	DD	018bf4H
	DD	018bf5H
	DD	018bf6H
	DD	018bf7H
	DD	018bf8H
	DD	018ad6H
	DD	018ad7H
	DD	018e5bH
	DD	018e50H
	DD	018849H
	DD	018844H
	DD	01885dH
	DD	018eecH
	DD	018f14H
	DD	018f20H
	DD	018f7dH
	ORG $+32
	DD	018bf9H
	DD	018bfaH
	DD	018bfbH
	DD	018bfcH
	DD	018bfdH
	DD	018bfeH
	DD	018bffH
	DD	018c00H
	DD	018ae0H
	DD	018ae1H
	DD	018e5dH
	DD	018e52H
	DD	018849H
	DD	018844H
	DD	01885dH
	DD	018eedH
	DD	018f15H
	DD	018f21H
	DD	018f7eH
	ORG $+32
	DD	018c01H
	DD	018c02H
	DD	018c03H
	DD	018c04H
	DD	018c05H
	DD	018c06H
	DD	018c07H
	DD	018c08H
	DD	018aeaH
	DD	018aebH
	DD	018e5cH
	DD	018e51H
	DD	018849H
	DD	018844H
	DD	01885dH
	DD	018eeeH
	DD	018f16H
	DD	018f22H
	DD	018f7fH
	ORG $+32
	DD	018c09H
	DD	018c0aH
	DD	018c0bH
	DD	018c0cH
	DD	018c0dH
	DD	018c0eH
	DD	018c0fH
	DD	018c10H
	DD	018af4H
	DD	018af5H
	DD	018e5fH
	DD	018e54H
	DD	018849H
	DD	018844H
	DD	01885dH
	DD	018eefH
	DD	018f17H
	DD	018f23H
	DD	018f80H
	ORG $+32
	DD	018c11H
	DD	018c12H
	DD	018c13H
	DD	018c14H
	DD	018c15H
	DD	018c16H
	DD	018c17H
	DD	018c18H
	DD	018afeH
	DD	018affH
	DD	018e5eH
	DD	018e53H
	DD	018849H
	DD	018844H
	DD	01885dH
	DD	018ef0H
	DD	018f18H
	DD	018f24H
	DD	018f81H
	ORG $+32
?btnId@?1??serverWindowType9@@YAXXZ@4PAHA DD 0fffffffeH	; `serverWindowType9'::`2'::btnId
	DD	0fffffffeH
	DD	0fffffffeH
	DD	0fffffffeH
	DD	0fffffffeH
	DD	0fffffffeH
?RPlistMode@@3PAUtagRidePetList@@A DD 0186a0H		; RPlistMode
	DD	00H
	DD	0186a5H
	DD	00H
	DD	0186aaH
	DD	00H
	DD	0186afH
	DD	00H
	DD	0186b4H
	DD	01H
	DD	0186b9H
	DD	01H
	DD	0186beH
	DD	01H
	DD	0186c3H
	DD	01H
	DD	0186c8H
	DD	02H
	DD	0186cdH
	DD	02H
	DD	0186d2H
	DD	02H
	DD	0186d7H
	DD	02H
	DD	0186dcH
	DD	03H
	DD	0186e1H
	DD	03H
	DD	0186e6H
	DD	03H
	DD	0186ebH
	DD	03H
	DD	0186f0H
	DD	04H
	DD	0186f5H
	DD	04H
	DD	0186faH
	DD	04H
	DD	0186ffH
	DD	04H
	DD	018704H
	DD	05H
	DD	018709H
	DD	05H
	DD	01870eH
	DD	05H
	DD	018713H
	DD	05H
	DD	018718H
	DD	06H
	DD	01871dH
	DD	06H
	DD	018722H
	DD	06H
	DD	018727H
	DD	06H
	DD	01872cH
	DD	07H
	DD	018731H
	DD	07H
	DD	018736H
	DD	07H
	DD	01873bH
	DD	07H
	DD	018740H
	DD	08H
	DD	018745H
	DD	08H
	DD	01874aH
	DD	08H
	DD	01874fH
	DD	08H
	DD	018754H
	DD	09H
	DD	018759H
	DD	09H
	DD	01875eH
	DD	09H
	DD	018763H
	DD	09H
	DD	018768H
	DD	0aH
	DD	01876dH
	DD	0aH
	DD	018772H
	DD	0aH
	DD	018777H
	DD	0aH
	DD	01877cH
	DD	0bH
	DD	018781H
	DD	0bH
	DD	018786H
	DD	0bH
	DD	01878bH
	DD	0bH
?selectID@?1??serverWindowType9@@YAXXZ@4PAHA DD 0ffffffffH ; `serverWindowType9'::`2'::selectID
	DD	0ffffffffH
	DD	0ffffffffH
?fontId@?1??DelCharGraColorWin@@YAHXZ@4PAHA DD 0fffffffeH ; `DelCharGraColorWin'::`2'::fontId
	DD	0fffffffeH
?windowTypeWN@@3HA DD 0ffffffffH			; windowTypeWN
?winStr@@3PAY0BA@DA DB 0c0H, 0fcH, 0c5H, 0f5H, ' ', 0bbH, 0fdH, 0c1H, 0b8H
	DB	00H						; winStr
	ORG $+6
	DB	0c0H, 0fcH, 0c3H, 0bcH, ' ', 0c0H, 0fcH, 0c5H, 0f5H, 00H
	ORG $+6
?msg@?1??deleteCharacter@@YAHXZ@4PADA DB 0c4H, 0b3H, 0b8H, 0afH, 0c5H, 0cdH
	DB	0bbH, 0e8H, 0c1H, 0a6H, 00H			; `deleteCharacter'::`2'::msg
	ORG $+1
?fontId@?1??FMPKListWN@@YAXH@Z@4PAHA DD 0fffffffeH	; `FMPKListWN'::`2'::fontId
	DD	0fffffffeH
	DD	0fffffffeH
	DD	0fffffffeH
	DD	0fffffffeH
	DD	0fffffffeH
	DD	0fffffffeH
	DD	0fffffffeH
	DD	0fffffffeH
	DD	0fffffffeH
?btnGraId@?1??commonYesNoWindow@@YAHHH@Z@4PAHA DD 0fffffffeH ; `commonYesNoWindow'::`2'::btnGraId
	DD	0fffffffeH
?selectGraNoTbl@@3PAHA DD 0186a0H			; selectGraNoTbl
	DD	0186b4H
	DD	0186c8H
	DD	0186dcH
	DD	0186f0H
	DD	018704H
	DD	018718H
	DD	01872cH
	DD	018740H
	DD	018754H
	DD	018768H
	DD	01877cH
?selCharCanselGraId@?1??selCharGraNo@@YAHXZ@4PAHA DD 0fffffffeH ; `selCharGraNo'::`2'::selCharCanselGraId
?selectGraLocate@@3PAY01HA DD 0c6H			; selectGraLocate
	DD	012dH
	DD	071H
	DD	0102H
	DD	0f8H
	DD	018cH
	DD	082H
	DD	0172H
	DD	089H
	DD	0a0H
	DD	0157H
	DD	017bH
	DD	01dfH
	DD	0173H
	DD	01a4H
	DD	0136H
	DD	0178H
	DD	0e7H
	DD	0129H
	DD	0c6H
	DD	017dH
	DD	092H
	DD	0f2H
	DD	074H
?selectGraHitArea@@3PAY03HA DD 0ffffffe0H		; selectGraHitArea
	DD	0ffffffc8H
	DD	03fH
	DD	041H
	DD	0ffffffebH
	DD	0ffffffb8H
	DD	02aH
	DD	058H
	DD	0ffffffedH
	DD	0ffffffb2H
	DD	026H
	DD	05eH
	DD	0ffffffecH
	DD	0ffffffbdH
	DD	029H
	DD	050H
	DD	0ffffffe2H
	DD	0ffffffb0H
	DD	03cH
	DD	064H
	DD	0ffffffdcH
	DD	0ffffffacH
	DD	048H
	DD	064H
	DD	0ffffffe2H
	DD	0ffffffcdH
	DD	03bH
	DD	040H
	DD	0ffffffedH
	DD	0ffffffb3H
	DD	028H
	DD	058H
	DD	0ffffffeeH
	DD	0ffffffb8H
	DD	022H
	DD	053H
	DD	0ffffffeaH
	DD	0ffffffb8H
	DD	02bH
	DD	059H
	DD	0ffffffeeH
	DD	0ffffffb2H
	DD	023H
	DD	05aH
	DD	0ffffffecH
	DD	0ffffffb4H
	DD	028H
	DD	05aH
?fontId@?1??FMPKSelectWN@@YAXH@Z@4PAHA DD 0fffffffeH	; `FMPKSelectWN'::`2'::fontId
	DD	0fffffffeH
	DD	0fffffffeH
	DD	0fffffffeH
	DD	0fffffffeH
	DD	0fffffffeH
	DD	0fffffffeH
	DD	0fffffffeH
	DD	0fffffffeH
	DD	0fffffffeH
	DD	0fffffffeH
	DD	0fffffffeH
	DD	0fffffffeH
	DD	0fffffffeH
?fontId@?1??showMouseGetNameWN@@YAXXZ@4PAHA DD 0fffffffeH ; `showMouseGetNameWN'::`2'::fontId
	DD	0fffffffeH
	DD	0fffffffeH
	DD	0fffffffeH
?btnId@?1??FMWindowType@@YAXXZ@4PAHA DD 0fffffffeH	; `FMWindowType'::`2'::btnId
	DD	0fffffffeH
	DD	0fffffffeH
	DD	0fffffffeH
	DD	0fffffffeH
	DD	0fffffffeH
?fontId@?1??FMPKDetailWN@@YAXH@Z@4PAHA DD 0fffffffeH	; `FMPKDetailWN'::`2'::fontId
	DD	0fffffffeH
	DD	0fffffffeH
	DD	0fffffffeH
	DD	0fffffffeH
	DD	0fffffffeH
	DD	0fffffffeH
?btnId@?1??FMPKDetailWN@@YAXH@Z@4PAHA DD 0fffffffeH	; `FMPKDetailWN'::`2'::btnId
	DD	0fffffffeH
	DD	0fffffffeH
	DD	0fffffffeH
	DD	0fffffffeH
?fontId@?1??selCharGraColorWin@@YAHXZ@4PAHA DD 0fffffffeH ; `selCharGraColorWin'::`2'::fontId
	DD	0fffffffeH
	DD	0fffffffeH
	DD	0fffffffeH
?fontId@?1??showContractWN@@YAXXZ@4PAHA DD 0fffffffeH	; `showContractWN'::`2'::fontId
	DD	0fffffffeH
	DD	0fffffffeH
	DD	0fffffffeH
	DD	0fffffffeH
	DD	0fffffffeH
	DD	0fffffffeH
	DD	0fffffffeH
?idPasswordFocus@@3PAPAUSTR_BUFFER@@A DD FLAT:?idKey@@3USTR_BUFFER@@A ; idPasswordFocus
	DD	FLAT:?passwd@@3USTR_BUFFER@@A
?idPasswordStr@@3PAUSTR_BUFFER@@A DD FLAT:?idKey@@3USTR_BUFFER@@A ; idPasswordStr
?idPasswordGraId@@3PAHA DD 0fffffffeH			; idPasswordGraId
	DD	0fffffffeH
?szWGSState@?1??idPasswordProc@@YAXXZ@4PADA DB 0b7H, 0ceH, 0b1H, 0d7H, 0c0H
	DB	0ceH, 0c7H, 0cfH, 0bdH, 0caH, 0bdH, 0c3H, 0bfH, 0c0H, '.', 0a3H
	DB	0acH, 0c0H, 0e1H, 0bdH, 0c3H, 0b8H, 0b8H, 0b1H, 0e2H, 0b4H, 0d9H
	DB	0b7H, 0c1H, 0c1H, 0d6H, 0bcH, 0bcH, 0bfH, 0e4H, 0a3H, 0a1H, 00H ; `idPasswordProc'::`2'::szWGSState
	ORG $+2
?fontId@?1??familyTaxWN@@YAXXZ@4PAHA DD 0fffffffeH	; `familyTaxWN'::`2'::fontId
	DD	0fffffffeH
	DD	0fffffffeH
	DD	0fffffffeH
?fontId@?1??commonMsgWin@@YAHPAD@Z@4PAHA DD 0fffffffeH	; `commonMsgWin'::`2'::fontId
?graId@?1??editCharParam@@YAHXZ@4PAHA DD 0fffffffeH	; `editCharParam'::`2'::graId
	DD	0fffffffeH
	DD	0fffffffeH
	DD	0fffffffeH
	DD	0fffffffeH
	DD	0fffffffeH
	DD	0fffffffeH
	DD	0fffffffeH
	DD	0fffffffeH
	DD	0fffffffeH
	DD	0fffffffeH
	DD	0fffffffeH
	DD	0fffffffeH
	DD	0fffffffeH
	DD	0fffffffeH
	DD	0fffffffeH
	DD	0fffffffeH
	DD	0fffffffeH
	DD	0fffffffeH
	DD	0fffffffeH
	DD	0fffffffeH
	DD	0fffffffeH
?btnId@?1??familyTaxWN@@YAXXZ@4PAHA DD 0fffffffeH	; `familyTaxWN'::`2'::btnId
	DD	0fffffffeH
	DD	0fffffffeH
	DD	0fffffffeH
?fontId@?1??FMWindowType1@@YAXXZ@4PAHA DD 0fffffffeH	; `FMWindowType1'::`2'::fontId
	DD	0fffffffeH
	DD	0fffffffeH
	DD	0fffffffeH
	DD	0fffffffeH
	DD	0fffffffeH
?btnId@?1??showRacemanRankWN@@YAXXZ@4PAHA DD 0fffffffeH	; `showRacemanRankWN'::`2'::btnId
	DD	0fffffffeH
	DD	0fffffffeH
	DD	0fffffffeH
	DD	0fffffffeH
	DD	0fffffffeH
?fontId@?1??showRidePetWN@@YAXXZ@4PAHA DD 0fffffffeH	; `showRidePetWN'::`2'::fontId
	DD	0fffffffeH
?btnId@?1??serverWindowDragonFusion@@YAXXZ@4PAHA DD 0fffffffeH ; `serverWindowDragonFusion'::`2'::btnId
	DD	0fffffffeH
	DD	0fffffffeH
	DD	0fffffffeH
	DD	0fffffffeH
	DD	0fffffffeH
?selectID@?1??serverWindowDragonFusion@@YAXXZ@4PAHA DD 0ffffffffH ; `serverWindowDragonFusion'::`2'::selectID
	DD	0ffffffffH
	DD	0ffffffffH
	DD	0ffffffffH
	DD	0ffffffffH
?fontId@?1??serverWindowType0@@YAXH@Z@4PAHA DD 0fffffffeH ; `serverWindowType0'::`2'::fontId
	DD	0fffffffeH
	DD	0fffffffeH
	DD	0fffffffeH
	DD	0fffffffeH
	DD	0fffffffeH
?btnId@?1??FMWindowType2@@YAXXZ@4PAHA DD 0fffffffeH	; `FMWindowType2'::`2'::btnId
	DD	0fffffffeH
	DD	0fffffffeH
	DD	0fffffffeH
	DD	0fffffffeH
	DD	0fffffffeH
	DD	0fffffffeH
	DD	0fffffffeH
	DD	0fffffffeH
	DD	0fffffffeH
	DD	0fffffffeH
	DD	0fffffffeH
?btnId@?1??selHomeTown@@YAHXZ@4PAHA DD 0fffffffeH	; `selHomeTown'::`2'::btnId
	DD	0fffffffeH
	DD	0fffffffeH
	DD	0fffffffeH
	DD	0fffffffeH
?btnId@?1??serverWindowType1@@YAXXZ@4PAHA DD 0fffffffeH	; `serverWindowType1'::`2'::btnId
	DD	0fffffffeH
	DD	0fffffffeH
	DD	0fffffffeH
	DD	0fffffffeH
	DD	0fffffffeH
?btnId@?1??fmselectdetuyWindow@@YAHHHH@Z@4PAHA DD 0fffffffeH ; `fmselectdetuyWindow'::`2'::btnId
	DD	0fffffffeH
	DD	0fffffffeH
	DD	0fffffffeH
?familyElf@@3HA DD 02H					; familyElf
?btnId@?1??serverWindowType2@@YAXXZ@4PAHA DD 0fffffffeH	; `serverWindowType2'::`2'::btnId
	DD	0fffffffeH
	DD	0fffffffeH
	DD	0fffffffeH
	DD	0fffffffeH
	DD	0fffffffeH
?familySpriteName@@3PAY09DA DB 0baH, 0fbH, 0c0H, 0c7H, 0c1H, 0a4H, 0b7H, 0c9H
	DB	00H						; familySpriteName
	ORG $+1
	DB	0beH, 0eeH, 0b5H, 0d2H, 0c1H, 0a4H, 0b7H, 0c9H, 00H
	ORG $+1
	DB	'        ', 00H
	ORG $+1
	ORG $+2
?joinflg@@3HA DD 01H					; joinflg
?btnId@?1??fmYesNoWindow@@YAHHHH@Z@4PAHA DD 0fffffffeH	; `fmYesNoWindow'::`2'::btnId
	DD	0fffffffeH
?fontId@?1??selectGroup@@YAHXZ@4PAHA DD 0fffffffeH	; `selectGroup'::`2'::fontId
	DD	0fffffffeH
	DD	0fffffffeH
	DD	0fffffffeH
	DD	0fffffffeH
	DD	0fffffffeH
	DD	0fffffffeH
	DD	0fffffffeH
	DD	0fffffffeH
	DD	0fffffffeH
	DD	0fffffffeH
	DD	0fffffffeH
?familyJobName@@3PAPADA DD FLAT:??_C@_0L@GHPFLEHL@?$LJ?L?$LA?$KB?$MA?T?$LA?$KB?A?$LH?$AA@ ; familyJobName
	DD	FLAT:??_C@_0L@MFGFKAEI@?5?$LK?N?5?A?$LH?5?$LP?x?5?$AA@
	DD	FLAT:??_C@_08GOJGDLLD@?$MA?S?$LN?C?$LA?$KB?$MA?T?$AA@
	DD	FLAT:??_C@_08ECFEKNKI@?5?A?$LH?5?5?$MA?e?5?$AA@
	DD	FLAT:??_C@_08PIEEGEIM@?5?$MA?e?5?5?$LH?N?5?$AA@
?familyTownName@@3PAPADA DD FLAT:??_C@_00CNPNBAHC@?$AA@	; familyTownName
	DD	FLAT:??_C@_0L@HHLJABBI@?$LM?$KE?$LB?b?$LI?$KD?A?$KE?$LP?x?$AA@
	DD	FLAT:??_C@_0N@KAPGNPPN@?$LI?$LG?$LI?$KO?$LD?J?$LN?$LK?A?$KE?$LP?x?$AA@
	DD	FLAT:??_C@_08IDMOOHGA@?$MA?p?$MA?p?A?$KE?$LP?x?$AA@
	DD	FLAT:??_C@_0N@NNHNHLEI@?D?$KL?$LH?g?E?$LI?$LD?$KK?A?$KE?$LP?x?$AA@
?btnId@?1??serverWindowType3@@YAXXZ@4PAHA DD 0fffffffeH	; `serverWindowType3'::`2'::btnId
	DD	0fffffffeH
	DD	0fffffffeH
	DD	0fffffffeH
	DD	0fffffffeH
	DD	0fffffffeH
?fontId@?1??selectServer@@YAHXZ@4PAHA DD 0fffffffeH	; `selectServer'::`2'::fontId
	DD	0fffffffeH
	DD	0fffffffeH
	DD	0fffffffeH
	DD	0fffffffeH
	DD	0fffffffeH
	DD	0fffffffeH
	DD	0fffffffeH
	DD	0fffffffeH
	DD	0fffffffeH
	DD	0fffffffeH
	DD	0fffffffeH
?btnId@?1??FMWindowType4@@YAXH@Z@4PAHA DD 0fffffffeH	; `FMWindowType4'::`2'::btnId
	DD	0fffffffeH
	DD	0fffffffeH
	DD	0fffffffeH
	DD	0fffffffeH
	DD	0fffffffeH
?msg@?1??charLogin@@YAHXZ@4PADA DB 0bcH, 0adH, 0b8H, 0edH, '/', 0c3H, 0bcH
	DB	0c5H, 0a9H, 0c0H, 0ceH, '/', 0c1H, 0f8H, 0c0H, 0d4H, ' ', 0c1H
	DB	0dfH, 00H					; `charLogin'::`2'::msg
?btnId@?1??serverWindowType4@@YAXXZ@4PAHA DD 0fffffffeH	; `serverWindowType4'::`2'::btnId
	DD	0fffffffeH
	DD	0fffffffeH
	DD	0fffffffeH
	DD	0fffffffeH
	DD	0fffffffeH
?btnGraId@?1??selectCharacterProc@@YAXXZ@4PAHA DD 0fffffffeH ; `selectCharacterProc'::`2'::btnGraId
	DD	0fffffffeH
	DD	0fffffffeH
	DD	0fffffffeH
	DD	0fffffffeH
	DD	0fffffffeH
	DD	0fffffffeH
?ridePetTable@@3PAUtagRidePetTable@@A DD 018a88H	; ridePetTable
	DD	0186a0H
	DD	018800H
	DD	00H
	DD	018a89H
	DD	0186a5H
	DD	018800H
	DD	00H
	DD	018a8aH
	DD	0186aaH
	DD	018800H
	DD	00H
	DD	018a8bH
	DD	0186afH
	DD	018800H
	DD	00H
	DD	018a8cH
	DD	0186a0H
	DD	0187e9H
	DD	00H
	DD	018a8dH
	DD	0186a5H
	DD	0187e7H
	DD	00H
	DD	018a8eH
	DD	0186aaH
	DD	0187eaH
	DD	00H
	DD	018a8fH
	DD	0186afH
	DD	0187e8H
	DD	00H
	DD	018a90H
	DD	01895cH
	DD	018814H
	DD	00H
	DD	018a91H
	DD	018961H
	DD	018815H
	DD	00H
	DD	018e65H
	DD	018961H
	DD	018cc8H
	DD	00H
	DD	018e5aH
	DD	018961H
	DD	018c9cH
	DD	00H
	DD	018a92H
	DD	0186b4H
	DD	01882cH
	DD	00H
	DD	018a93H
	DD	0186b9H
	DD	01882cH
	DD	00H
	DD	018a94H
	DD	0186beH
	DD	01882cH
	DD	00H
	DD	018a95H
	DD	0186c3H
	DD	01882cH
	DD	00H
	DD	018a96H
	DD	0186b4H
	DD	0187e8H
	DD	00H
	DD	018a97H
	DD	0186b9H
	DD	0187e9H
	DD	00H
	DD	018a98H
	DD	0186beH
	DD	0187e7H
	DD	00H
	DD	018a99H
	DD	0186c3H
	DD	0187eaH
	DD	00H
	DD	018a9aH
	DD	018966H
	DD	018814H
	DD	00H
	DD	018a9bH
	DD	01896bH
	DD	018815H
	DD	00H
	DD	018e64H
	DD	01896bH
	DD	018cc8H
	DD	00H
	DD	018e62H
	DD	01896bH
	DD	018c9cH
	DD	00H
	DD	018a9cH
	DD	0186c8H
	DD	0187ffH
	DD	00H
	DD	018a9dH
	DD	0186cdH
	DD	0187ffH
	DD	00H
	DD	018a9eH
	DD	0186d2H
	DD	0187ffH
	DD	00H
	DD	018a9fH
	DD	0186d7H
	DD	0187ffH
	DD	00H
	DD	018aa0H
	DD	0186c8H
	DD	0187e8H
	DD	00H
	DD	018aa1H
	DD	0186cdH
	DD	0187eaH
	DD	00H
	DD	018aa2H
	DD	0186d2H
	DD	0187e7H
	DD	00H
	DD	018aa3H
	DD	0186d7H
	DD	0187e9H
	DD	00H
	DD	018aa4H
	DD	018970H
	DD	018814H
	DD	00H
	DD	018aa5H
	DD	018975H
	DD	018815H
	DD	00H
	DD	018e4dH
	DD	018975H
	DD	018cc8H
	DD	00H
	DD	018e57H
	DD	018975H
	DD	018c9cH
	DD	00H
	DD	018aa6H
	DD	0186dcH
	DD	018801H
	DD	00H
	DD	018aa7H
	DD	0186e1H
	DD	018801H
	DD	00H
	DD	018aa8H
	DD	0186e6H
	DD	018801H
	DD	00H
	DD	018aa9H
	DD	0186ebH
	DD	018801H
	DD	00H
	DD	018aaaH
	DD	0186dcH
	DD	0187e9H
	DD	00H
	DD	018aabH
	DD	0186e1H
	DD	0187e7H
	DD	00H
	DD	018aacH
	DD	0186e6H
	DD	0187eaH
	DD	00H
	DD	018aadH
	DD	0186ebH
	DD	0187e8H
	DD	00H
	DD	018aaeH
	DD	01897aH
	DD	018814H
	DD	00H
	DD	018aafH
	DD	01897fH
	DD	018815H
	DD	00H
	DD	018e4eH
	DD	01897fH
	DD	018cc8H
	DD	00H
	DD	018e58H
	DD	01897fH
	DD	018c9cH
	DD	00H
	DD	018ab0H
	DD	0186f0H
	DD	01882cH
	DD	00H
	DD	018ab1H
	DD	0186f5H
	DD	01882cH
	DD	00H
	DD	018ab2H
	DD	0186faH
	DD	01882cH
	DD	00H
	DD	018ab3H
	DD	0186ffH
	DD	01882cH
	DD	00H
	DD	018ab4H
	DD	0186f0H
	DD	0187e8H
	DD	00H
	DD	018ab5H
	DD	0186f5H
	DD	0187e7H
	DD	00H
	DD	018ab6H
	DD	0186faH
	DD	0187eaH
	DD	00H
	DD	018ab7H
	DD	0186ffH
	DD	0187e9H
	DD	00H
	DD	018ab8H
	DD	018984H
	DD	018814H
	DD	00H
	DD	018ab9H
	DD	018989H
	DD	018815H
	DD	00H
	DD	018e55H
	DD	018989H
	DD	018cc8H
	DD	00H
	DD	018e60H
	DD	018989H
	DD	018c9cH
	DD	00H
	DD	018abaH
	DD	018704H
	DD	018801H
	DD	00H
	DD	018abbH
	DD	018709H
	DD	018801H
	DD	00H
	DD	018abcH
	DD	01870eH
	DD	018801H
	DD	00H
	DD	018abdH
	DD	018713H
	DD	018801H
	DD	00H
	DD	018abeH
	DD	018704H
	DD	0187e9H
	DD	00H
	DD	018abfH
	DD	018709H
	DD	0187e8H
	DD	00H
	DD	018ac0H
	DD	01870eH
	DD	0187eaH
	DD	00H
	DD	018ac1H
	DD	018713H
	DD	0187e7H
	DD	00H
	DD	018ac2H
	DD	01898eH
	DD	018814H
	DD	00H
	DD	018ac3H
	DD	018993H
	DD	018815H
	DD	00H
	DD	018e56H
	DD	018993H
	DD	018cc8H
	DD	00H
	DD	018e61H
	DD	018993H
	DD	018c9cH
	DD	00H
	DD	018ac4H
	DD	018718H
	DD	018802H
	DD	00H
	DD	018ac5H
	DD	01871dH
	DD	018802H
	DD	00H
	DD	018ac6H
	DD	018722H
	DD	018802H
	DD	00H
	DD	018ac7H
	DD	018727H
	DD	018802H
	DD	00H
	DD	018ac8H
	DD	018718H
	DD	0187e7H
	DD	00H
	DD	018ac9H
	DD	01871dH
	DD	0187eaH
	DD	00H
	DD	018acaH
	DD	018722H
	DD	0187e8H
	DD	00H
	DD	018acbH
	DD	018727H
	DD	0187e9H
	DD	00H
	DD	018accH
	DD	018998H
	DD	018814H
	DD	00H
	DD	018acdH
	DD	01899dH
	DD	018815H
	DD	00H
	DD	018e4fH
	DD	01899dH
	DD	018cc8H
	DD	00H
	DD	018e59H
	DD	01899dH
	DD	018c9cH
	DD	00H
	DD	018aceH
	DD	01872cH
	DD	018802H
	DD	00H
	DD	018acfH
	DD	018731H
	DD	018802H
	DD	00H
	DD	018ad0H
	DD	018736H
	DD	018802H
	DD	00H
	DD	018ad1H
	DD	01873bH
	DD	018802H
	DD	00H
	DD	018ad2H
	DD	01872cH
	DD	0187e7H
	DD	00H
	DD	018ad3H
	DD	018731H
	DD	0187e9H
	DD	00H
	DD	018ad4H
	DD	018736H
	DD	0187eaH
	DD	00H
	DD	018ad5H
	DD	01873bH
	DD	0187e8H
	DD	00H
	DD	018ad6H
	DD	0189a2H
	DD	018814H
	DD	00H
	DD	018ad7H
	DD	0189a7H
	DD	018815H
	DD	00H
	DD	018e50H
	DD	0189a7H
	DD	018cc8H
	DD	00H
	DD	018e5bH
	DD	0189a7H
	DD	018c9cH
	DD	00H
	DD	018ad8H
	DD	018740H
	DD	018800H
	DD	00H
	DD	018ad9H
	DD	018745H
	DD	018800H
	DD	00H
	DD	018adaH
	DD	01874aH
	DD	018800H
	DD	00H
	DD	018adbH
	DD	01874fH
	DD	018800H
	DD	00H
	DD	018adcH
	DD	018740H
	DD	0187eaH
	DD	00H
	DD	018addH
	DD	018745H
	DD	0187e9H
	DD	00H
	DD	018adeH
	DD	01874aH
	DD	0187e7H
	DD	00H
	DD	018adfH
	DD	01874fH
	DD	0187e8H
	DD	00H
	DD	018ae0H
	DD	0189acH
	DD	018814H
	DD	00H
	DD	018ae1H
	DD	0189b1H
	DD	018815H
	DD	00H
	DD	018e52H
	DD	0189b1H
	DD	018cc8H
	DD	00H
	DD	018e5dH
	DD	0189b1H
	DD	018c9cH
	DD	00H
	DD	018ae2H
	DD	018754H
	DD	0187ffH
	DD	00H
	DD	018ae3H
	DD	018759H
	DD	0187ffH
	DD	00H
	DD	018ae4H
	DD	01875eH
	DD	0187ffH
	DD	00H
	DD	018ae5H
	DD	018763H
	DD	0187ffH
	DD	00H
	DD	018ae6H
	DD	018754H
	DD	0187e8H
	DD	00H
	DD	018ae7H
	DD	018759H
	DD	0187eaH
	DD	00H
	DD	018ae8H
	DD	01875eH
	DD	0187e9H
	DD	00H
	DD	018ae9H
	DD	018763H
	DD	0187e7H
	DD	00H
	DD	018aeaH
	DD	0189b6H
	DD	018814H
	DD	00H
	DD	018aebH
	DD	0189bbH
	DD	018815H
	DD	00H
	DD	018e51H
	DD	0189bbH
	DD	018cc8H
	DD	00H
	DD	018e5cH
	DD	0189bbH
	DD	018c9cH
	DD	00H
	DD	018aecH
	DD	018768H
	DD	018801H
	DD	00H
	DD	018aedH
	DD	01876dH
	DD	018801H
	DD	00H
	DD	018aeeH
	DD	018772H
	DD	018801H
	DD	00H
	DD	018aefH
	DD	018777H
	DD	018801H
	DD	00H
	DD	018af0H
	DD	018768H
	DD	0187e9H
	DD	00H
	DD	018af1H
	DD	01876dH
	DD	0187e8H
	DD	00H
	DD	018af2H
	DD	018772H
	DD	0187e7H
	DD	00H
	DD	018af3H
	DD	018777H
	DD	0187eaH
	DD	00H
	DD	018af4H
	DD	0189c0H
	DD	018814H
	DD	00H
	DD	018af5H
	DD	0189c5H
	DD	018815H
	DD	00H
	DD	018e54H
	DD	0189c5H
	DD	018cc8H
	DD	00H
	DD	018e5fH
	DD	0189c5H
	DD	018c9cH
	DD	00H
	DD	018af6H
	DD	01877cH
	DD	01882cH
	DD	00H
	DD	018af7H
	DD	018781H
	DD	01882cH
	DD	00H
	DD	018af8H
	DD	018786H
	DD	01882cH
	DD	00H
	DD	018af9H
	DD	01878bH
	DD	01882cH
	DD	00H
	DD	018afaH
	DD	01877cH
	DD	0187eaH
	DD	00H
	DD	018afbH
	DD	018781H
	DD	0187e7H
	DD	00H
	DD	018afcH
	DD	018786H
	DD	0187e9H
	DD	00H
	DD	018afdH
	DD	01878bH
	DD	0187e8H
	DD	00H
	DD	018afeH
	DD	0189caH
	DD	018814H
	DD	00H
	DD	018affH
	DD	0189cfH
	DD	018815H
	DD	00H
	DD	018e53H
	DD	0189cfH
	DD	018cc8H
	DD	00H
	DD	018e5eH
	DD	0189cfH
	DD	018c9cH
	DD	00H
	DD	018b3bH
	DD	018b39H
	DD	018b3aH
	DD	00H
	DD	018b3bH
	DD	018b3aH
	DD	018b39H
	DD	00H
?btnId@?1??FMWindowType3@@YAXH@Z@4PAHA DD 0fffffffeH	; `FMWindowType3'::`2'::btnId
	DD	0fffffffeH
	DD	0fffffffeH
	DD	0fffffffeH
	DD	0fffffffeH
	DD	0fffffffeH
?msg@?1??charLogout@@YAHXZ@4PADA DB 0c3H, 0bcH, 0c5H, 0a9H, ' ', 0beH, 0c6H
	DB	0bfH, 0f4H, 0c1H, 0dfH, 00H			; `charLogout'::`2'::msg
_DATA	ENDS
PUBLIC	?strstr@@YAPADQADQBD@Z				; strstr
PUBLIC	___local_stdio_printf_options
PUBLIC	___local_stdio_scanf_options
PUBLIC	??$__vcrt_va_start_verify_argument_type@QBD@@YAXXZ ; __vcrt_va_start_verify_argument_type<char const * const>
PUBLIC	__vsnprintf_l
PUBLIC	__vsprintf_l
PUBLIC	__vsprintf_s_l
PUBLIC	_vsprintf_s
PUBLIC	_sprintf
PUBLIC	__vsscanf_l
PUBLIC	_sscanf
PUBLIC	?idPasswordProc@@YAXXZ				; idPasswordProc
PUBLIC	?titleProc@@YAXXZ				; titleProc
PUBLIC	?selectCharacterProc@@YAXXZ			; selectCharacterProc
PUBLIC	?characterLoginProc@@YAXXZ			; characterLoginProc
PUBLIC	?makeCharacterProc@@YAXXZ			; makeCharacterProc
PUBLIC	?characterLogoutProc@@YAXXZ			; characterLogoutProc
PUBLIC	?initOpenServerWindow@@YAXXZ			; initOpenServerWindow
PUBLIC	?openServerWindow@@YAXHHHHPAD@Z			; openServerWindow
PUBLIC	?openServerWindowProc@@YAXXZ			; openServerWindowProc
PUBLIC	?selGraId@@YAHPAHH@Z				; selGraId
PUBLIC	?selRepGraId@@YAHPAHH@Z				; selRepGraId
PUBLIC	?pushGraId@@YAHPAHH@Z				; pushGraId
PUBLIC	?selFontId@@YAHPAHH@Z				; selFontId
PUBLIC	?focusGraId@@YAHPAHH@Z				; focusGraId
PUBLIC	?focusFontId@@YAHPAHH@Z				; focusFontId
PUBLIC	?initInputIdPassword@@YAXXZ			; initInputIdPassword
PUBLIC	?inputIdPassword@@YAHH@Z			; inputIdPassword
PUBLIC	?initCommonMsgWin@@YAXXZ			; initCommonMsgWin
PUBLIC	?commonMsgWin@@YAHPAD@Z				; commonMsgWin
PUBLIC	?initSelectServer@@YAXXZ			; initSelectServer
PUBLIC	?selectGroup@@YAHXZ				; selectGroup
PUBLIC	?selectServer@@YAHXZ				; selectServer
PUBLIC	?initConnecGameServer@@YAXXZ			; initConnecGameServer
PUBLIC	?connecGameServer@@YAHXZ			; connecGameServer
PUBLIC	?initDownloadCharList@@YAXXZ			; initDownloadCharList
PUBLIC	?downloadCharList@@YAHXZ			; downloadCharList
PUBLIC	?initDeleteCharacter@@YAXXZ			; initDeleteCharacter
PUBLIC	?deleteCharacter@@YAHXZ				; deleteCharacter
PUBLIC	?commonYesNoWindow@@YAHHH@Z			; commonYesNoWindow
PUBLIC	?fmYesNoWindow@@YAHHHH@Z			; fmYesNoWindow
PUBLIC	?fmselectdetuyWindow@@YAHHHH@Z			; fmselectdetuyWindow
PUBLIC	?initStrBuffer@@YAXPAUSTR_BUFFER@@HHHHH@Z	; initStrBuffer
PUBLIC	?getStrSplit@@YAXPAD0HHH@Z			; getStrSplit
PUBLIC	?DelCharGraColorWin@@YAHXZ			; DelCharGraColorWin
PUBLIC	?BankProc@@YAXXZ				; BankProc
PUBLIC	?AuctionNewWT@@YAXXZ				; AuctionNewWT
PUBLIC	?AuctionListWT@@YAXXZ				; AuctionListWT
PUBLIC	?AuctionSurveyModifyWT@@YAXXZ			; AuctionSurveyModifyWT
PUBLIC	?AuctionGetString@@YAXHPAU_AUCTION_LIST_DATA@@@Z ; AuctionGetString
PUBLIC	?CheckNumber@@YAXPADH@Z				; CheckNumber
PUBLIC	?CheckSpace@@YAXPAD@Z				; CheckSpace
PUBLIC	?GB2312ToUnicode@@YAPA_WPBD@Z			; GB2312ToUnicode
PUBLIC	?UnicodeToBIG5@@YAPADPB_W@Z			; UnicodeToBIG5
PUBLIC	?GB2312ToBIG5@@YAPADPBD@Z			; GB2312ToBIG5
PUBLIC	?BIG5ToUnicode@@YAPA_WPBD@Z			; BIG5ToUnicode
PUBLIC	?UnicodeToGB2312@@YAPADPB_W@Z			; UnicodeToGB2312
PUBLIC	?BIG5ToGB2312@@YAPADPBD@Z			; BIG5ToGB2312
PUBLIC	??$sprintf_s@$0IA@@@YAHAAY0IA@DPBDZZ		; sprintf_s<128>
PUBLIC	?initMakeCharacter@@YAXXZ			; initMakeCharacter
PUBLIC	?initSelCharGraNo@@YAXXZ			; initSelCharGraNo
PUBLIC	?initSelCharGraNo2@@YAXXZ			; initSelCharGraNo2
PUBLIC	?selCharGraNo@@YAHXZ				; selCharGraNo
PUBLIC	?initSelCharGraColorWin@@YAXXZ			; initSelCharGraColorWin
PUBLIC	?selCharGraColorWin@@YAHXZ			; selCharGraColorWin
PUBLIC	?initEditCharParam@@YAXXZ			; initEditCharParam
PUBLIC	?initEditCharParam2@@YAXXZ			; initEditCharParam2
PUBLIC	?editCharParam@@YAHXZ				; editCharParam
PUBLIC	?initCreateChar@@YAXXZ				; initCreateChar
PUBLIC	?createChar@@YAHXZ				; createChar
PUBLIC	?initSelHomeTown@@YAXXZ				; initSelHomeTown
PUBLIC	?selHomeTown@@YAHXZ				; selHomeTown
PUBLIC	?initCharLogin@@YAXXZ				; initCharLogin
PUBLIC	?charLogin@@YAHXZ				; charLogin
PUBLIC	?initCharLogout@@YAXXZ				; initCharLogout
PUBLIC	?charLogout@@YAHXZ				; charLogout
PUBLIC	?initServerWindowType0@@YAXPAD@Z		; initServerWindowType0
PUBLIC	?initServerWindowType1@@YAXPAD@Z		; initServerWindowType1
PUBLIC	?initServerWindowType2@@YAXPAD@Z		; initServerWindowType2
PUBLIC	?initServerWindowType3@@YAXPAD@Z		; initServerWindowType3
PUBLIC	?initServerWindowType4@@YAXPAD@Z		; initServerWindowType4
PUBLIC	?initServerWindowType5@@YAXPAD@Z		; initServerWindowType5
PUBLIC	?initServerWindowType6@@YAXPAD@Z		; initServerWindowType6
PUBLIC	?initServerWindowType7@@YAXPAD@Z		; initServerWindowType7
PUBLIC	?serverWindowType0@@YAXH@Z			; serverWindowType0
PUBLIC	?serverWindowType1@@YAXXZ			; serverWindowType1
PUBLIC	?serverWindowType2@@YAXXZ			; serverWindowType2
PUBLIC	?serverWindowType3@@YAXXZ			; serverWindowType3
PUBLIC	?serverWindowType4@@YAXXZ			; serverWindowType4
PUBLIC	?serverWindowType5@@YAXXZ			; serverWindowType5
PUBLIC	?serverWindowType6@@YAXXZ			; serverWindowType6
PUBLIC	?serverWindowType7@@YAXXZ			; serverWindowType7
PUBLIC	?serverWindowType9@@YAXXZ			; serverWindowType9
PUBLIC	?initServerWindowProfession@@YAXPAD@Z		; initServerWindowProfession
PUBLIC	?profession_windows@@YAXXZ			; profession_windows
PUBLIC	?profession_windows_1@@YAHXZ			; profession_windows_1
PUBLIC	?profession_windows_2@@YAHXZ			; profession_windows_2
PUBLIC	?initPetSkillWindowType1@@YAXPAD@Z		; initPetSkillWindowType1
PUBLIC	?PetSkillShowType1@@YAXXZ			; PetSkillShowType1
PUBLIC	?initFamilyAddWN@@YAXPAD@Z			; initFamilyAddWN
PUBLIC	?familyAddWN@@YAXXZ				; familyAddWN
PUBLIC	?initFamilyList@@YAXPAD@Z			; initFamilyList
PUBLIC	?familyListWN@@YAXXZ				; familyListWN
PUBLIC	?initFamilyDetail@@YAXPAD@Z			; initFamilyDetail
PUBLIC	?familyDetailWN@@YAHXZ				; familyDetailWN
PUBLIC	?initMineFamilyDetail@@YAXPAD@Z			; initMineFamilyDetail
PUBLIC	?mineFamilyDetailWN@@YAXXZ			; mineFamilyDetailWN
PUBLIC	?initFamilyTaxWN@@YAXPAD@Z			; initFamilyTaxWN
PUBLIC	?familyTaxWN@@YAXXZ				; familyTaxWN
PUBLIC	?initFamilyLeaderChange@@YAXPAD@Z		; initFamilyLeaderChange
PUBLIC	?familyLeaderChangeWN@@YAXXZ			; familyLeaderChangeWN
PUBLIC	?familyLeaderChangeQWN@@YAXXZ			; familyLeaderChangeQWN
PUBLIC	?familyLeaderChangeAWN@@YAXXZ			; familyLeaderChangeAWN
PUBLIC	?initFamilyLeaderChangeA@@YAXPAD@Z		; initFamilyLeaderChangeA
PUBLIC	?initFMWindowType@@YAXPAD@Z			; initFMWindowType
PUBLIC	?FMWindowType@@YAXXZ				; FMWindowType
PUBLIC	?initFMWindowType1@@YAXPAD@Z			; initFMWindowType1
PUBLIC	?FMWindowType1@@YAXXZ				; FMWindowType1
PUBLIC	?initFMWindowType2@@YAXPAD@Z			; initFMWindowType2
PUBLIC	?FMWindowType2@@YAXXZ				; FMWindowType2
PUBLIC	?initFMWindowType3@@YAXPAD@Z			; initFMWindowType3
PUBLIC	?FMWindowType3@@YAXH@Z				; FMWindowType3
PUBLIC	?initFMWindowType4@@YAXPADH@Z			; initFMWindowType4
PUBLIC	?FMWindowType4@@YAXH@Z				; FMWindowType4
PUBLIC	?initFMPKListWN@@YAXPAD@Z			; initFMPKListWN
PUBLIC	?FMPKListWN@@YAXH@Z				; FMPKListWN
PUBLIC	?initFMPKSelectWN@@YAXPAD@Z			; initFMPKSelectWN
PUBLIC	?FMPKSelectWN@@YAXH@Z				; FMPKSelectWN
PUBLIC	?initFMPKDetailWN@@YAXPAD@Z			; initFMPKDetailWN
PUBLIC	?FMPKDetailWN@@YAXH@Z				; FMPKDetailWN
PUBLIC	?initShowRidePetWN@@YAXXZ			; initShowRidePetWN
PUBLIC	?showRidePetWN@@YAXXZ				; showRidePetWN
PUBLIC	?initMouseGetNameWN@@YAXPAD@Z			; initMouseGetNameWN
PUBLIC	?showMouseGetNameWN@@YAXXZ			; showMouseGetNameWN
PUBLIC	?initContractWN@@YAXPAD@Z			; initContractWN
PUBLIC	?showContractWN@@YAXXZ				; showContractWN
PUBLIC	?initRacemanRankWN@@YAXPAD@Z			; initRacemanRankWN
PUBLIC	?showRacemanRankWN@@YAXXZ			; showRacemanRankWN
PUBLIC	?serverWindowDragonFusion@@YAXXZ		; serverWindowDragonFusion
PUBLIC	??$sprintf_s@$0BAA@@@YAHAAY0BAA@DPBDZZ		; sprintf_s<256>
PUBLIC	?initShopWindow1@@YAXXZ				; initShopWindow1
PUBLIC	?shopWindow1@@YAHXZ				; shopWindow1
PUBLIC	?initShopWindow2@@YAXXZ				; initShopWindow2
PUBLIC	?shopWindow2@@YAHXZ				; shopWindow2
PUBLIC	?initShopWindow3@@YAXXZ				; initShopWindow3
PUBLIC	?shopWindow3@@YAHXZ				; shopWindow3
PUBLIC	?initShopWindow4@@YAXXZ				; initShopWindow4
PUBLIC	?shopWindow4@@YAHXZ				; shopWindow4
PUBLIC	?initShopWindow5@@YAXXZ				; initShopWindow5
PUBLIC	?shopWindow5@@YAHXZ				; shopWindow5
PUBLIC	?initShopWindow6@@YAXXZ				; initShopWindow6
PUBLIC	?shopWindow6@@YAHXZ				; shopWindow6
PUBLIC	?initShopWindow7@@YAXXZ				; initShopWindow7
PUBLIC	?shopWindow7@@YAHXZ				; shopWindow7
PUBLIC	?initShopWindow8@@YAXXZ				; initShopWindow8
PUBLIC	?shopWindow8@@YAHXZ				; shopWindow8
PUBLIC	?initShopWindow10@@YAXXZ			; initShopWindow10
PUBLIC	?shopWindow10@@YAHXZ				; shopWindow10
PUBLIC	?initSkillShopWindow1@@YAXXZ			; initSkillShopWindow1
PUBLIC	?skillShopWindow1@@YAHXZ			; skillShopWindow1
PUBLIC	?initSkillShopWindow2@@YAXXZ			; initSkillShopWindow2
PUBLIC	?skillShopWindow2@@YAHXZ			; skillShopWindow2
PUBLIC	?initSkillShopWindow3@@YAXXZ			; initSkillShopWindow3
PUBLIC	?skillShopWindow3@@YAHXZ			; skillShopWindow3
PUBLIC	?initSkillShopWindow4@@YAXXZ			; initSkillShopWindow4
PUBLIC	?skillShopWindow4@@YAHXZ			; skillShopWindow4
PUBLIC	?initPoolShopWindow1@@YAXXZ			; initPoolShopWindow1
PUBLIC	?poolShopWindow1@@YAHXZ				; poolShopWindow1
PUBLIC	?initPoolShopWindow2@@YAXXZ			; initPoolShopWindow2
PUBLIC	?poolShopWindow2@@YAHXZ				; poolShopWindow2
PUBLIC	?initPoolShopWindow3@@YAXXZ			; initPoolShopWindow3
PUBLIC	?poolShopWindow3@@YAHXZ				; poolShopWindow3
PUBLIC	?initPoolShopWindow4@@YAXXZ			; initPoolShopWindow4
PUBLIC	?poolShopWindow4@@YAHXZ				; poolShopWindow4
PUBLIC	?StockDispHLine@@YAXHHH@Z			; StockDispHLine
PUBLIC	?StockDispVLine@@YAXHHH@Z			; StockDispVLine
PUBLIC	?closeFamilyAddWN@@YAXXZ			; closeFamilyAddWN
PUBLIC	?closeFamilyList@@YAXXZ				; closeFamilyList
PUBLIC	?closePKList@@YAXXZ				; closePKList
PUBLIC	?closePKHistoryList@@YAXXZ			; closePKHistoryList
PUBLIC	?initPKList@@YAXPAD@Z				; initPKList
PUBLIC	?initPKHistoryList@@YAXPAD@Z			; initPKHistoryList
PUBLIC	?closeFamilyTaxWN@@YAXXZ			; closeFamilyTaxWN
PUBLIC	?closeFamilyLeaderChangeWN@@YAXXZ		; closeFamilyLeaderChangeWN
PUBLIC	?closeMineFamilyDetailWN@@YAXXZ			; closeMineFamilyDetailWN
PUBLIC	?checkInBlacklist@@YAHPAD@Z			; checkInBlacklist
PUBLIC	?addBlacklist@@YAXPAD@Z				; addBlacklist
PUBLIC	?removeBlacklist@@YAXPAD@Z			; removeBlacklist
PUBLIC	?cleanBlacklist@@YAXXZ				; cleanBlacklist
PUBLIC	??$__vcrt_va_start_verify_argument_type@PBD@@YAXXZ ; __vcrt_va_start_verify_argument_type<char const *>
PUBLIC	?_OptionsStorage@?1??__local_stdio_printf_options@@9@4_KA ; `__local_stdio_printf_options'::`2'::_OptionsStorage
PUBLIC	?_OptionsStorage@?1??__local_stdio_scanf_options@@9@4_KA ; `__local_stdio_scanf_options'::`2'::_OptionsStorage
PUBLIC	?__LINE__Var@?0??GB2312ToUnicode@@YAPA_WPBD@Z@4JA ; `GB2312ToUnicode'::`1'::__LINE__Var
PUBLIC	??_C@_0GD@HHKOPMKJ@c?3?2users?2administrator?2desktop?2?$LN@ ; `string'
PUBLIC	?__LINE__Var@?0??GB2312ToBIG5@@YAPADPBD@Z@4JA	; `GB2312ToBIG5'::`1'::__LINE__Var
PUBLIC	?__LINE__Var@?0??BIG5ToUnicode@@YAPA_WPBD@Z@4JA	; `BIG5ToUnicode'::`1'::__LINE__Var
PUBLIC	?__LINE__Var@?0??UnicodeToGB2312@@YAPADPB_W@Z@4JA ; `UnicodeToGB2312'::`1'::__LINE__Var
PUBLIC	??_C@_09BACHGGGK@f?$DLencor1c?$AA@		; `string'
PUBLIC	??_C@_0BP@LOHIDJF@?$LA?h?A?$KE?$LA?z?5?$LK?q?$LJ?P?$LJ?x?H?$KD?$LI?$KG?5?$MA?T?$LH?B?G?O?$LM?$LM?$LP?d?$KD?$KB?$AA@ ; `string'
PUBLIC	??_C@_06BPGFIOAL@?$CFs?$CI?$CFd?$CJ?$AA@	; `string'
PUBLIC	??_C@_0CK@IPKMMLMJ@?$MA?$NP?$LI?x?$LF?H?5?$LA?h?A?$KE?5?$LG?G?$LE?B?5?$LK?q?$LJ?P?$LJ?x?H?$KD?6?$LE?Y?$LN?C?$MA?T@ ; `string'
PUBLIC	??_C@_04NDEEPOEI@?$KD?O?$KD?K?$AA@		; `string'
PUBLIC	??_C@_0BB@NLNMPB@?$KD?S?$KD?t?$KD?o?$KD?n?$KD?e?$KD?A?$KD?g?$KD?e?$AA@ ; `string'
PUBLIC	??_C@_05DNIIFBMG@?$CFs?5?$CFs?$AA@		; `string'
PUBLIC	??_C@_02DKCKIIND@?$CFs?$AA@			; `string'
PUBLIC	??_C@_0O@KDOBPHMN@?$DP?V?X?$DP?Z?$LB?q?W?$DP?$PL?$LP?$KB?$KD?$AA@ ; `string'
PUBLIC	??_C@_0CA@KPEEHOGC@?$FL?$CFs?$FN?$MA?L?$LJ?v?$MA?$PM?$MA?$LK?5?$LL?g?$LP?k?G?R?$LM?v?$LO?x?$LN?$MA?$LE?O?$LE?Y?$KD?$KB?$AA@ ; `string'
PUBLIC	??_C@_03JIHJHPIE@Jan?$AA@			; `string'
PUBLIC	??_C@_03HJBDCHOM@Feb?$AA@			; `string'
PUBLIC	??_C@_03ODNJBKGA@Mar?$AA@			; `string'
PUBLIC	??_C@_03LEOLGMJP@Apr?$AA@			; `string'
PUBLIC	??_C@_03CNMDKL@May?$AA@				; `string'
PUBLIC	??_C@_03IDFGHECI@Jun?$AA@			; `string'
PUBLIC	??_C@_03LBGABGKK@Jul?$AA@			; `string'
PUBLIC	??_C@_03IFJFEIGA@Aug?$AA@			; `string'
PUBLIC	??_C@_03GGCAPAJC@Sep?$AA@			; `string'
PUBLIC	??_C@_03BMAOKBAD@Oct?$AA@			; `string'
PUBLIC	??_C@_03JPJOFNIA@Nov?$AA@			; `string'
PUBLIC	??_C@_03MKABNOCG@Dec?$AA@			; `string'
PUBLIC	??_C@_0M@CPNCGEDN@Jan?5?53?52021?$AA@		; `string'
PUBLIC	??_C@_08JIAEEDMM@?$CFs?5?$CFd?5?$CFd?$AA@	; `string'
PUBLIC	??_C@_0BG@MJOFMAKM@?$FLVer?$KD?$LK?$CF04d?4?$CF02d?4?$CF02d?$FN?$AA@ ; `string'
PUBLIC	??_C@_0L@BGALCGMK@?$CFs?5?$CFs?5?$FL?$CFs?$FN?$AA@ ; `string'
PUBLIC	??_C@_0N@DFLJEJED@?5?5?$LF?$LJ?$LO?F?$LA?$KB?$LB?b?5?5?$AA@ ; `string'
PUBLIC	??_C@_0BF@LJIGADOK@?$FL?$CFs?$FN?$LP?$KB?5?A?$KC?$LM?S?A?$NP?$MA?T?$LE?O?$LE?Y?4?$AA@ ; `string'
PUBLIC	??_C@_0BA@OLIBCMDE@?$LN?$LK?E?f?$LP?$KB?$MA?L?A?v?5?G?O?$LE?C?$AA@ ; `string'
PUBLIC	??_C@_0BG@CKDNBLG@?$FL?$CFs?$FN?$LP?$KB?5?A?$KC?$LM?S?5?A?$NP?$MA?T?$LE?O?$LE?Y?4?$AA@ ; `string'
PUBLIC	??_C@_0BB@DFFIFBLJ@WGS?$LP?M?5?$LP?$KM?$LA?a?$LN?G?F?P?$KD?$KB?$AA@ ; `string'
PUBLIC	??_C@_0CN@CDKJOFHB@?$LD?W?F?$KO?$LP?v?E?$KJ?5?$LL?g?$LP?k?$LH?$KO?$MA?L?$LI?$LJ?$LN?$MA?$LE?O?$LE?Y?$KD?$KM?$LD?$KK?A?$NP?$LP@ ; `string'
PUBLIC	??_C@_0DM@MKPKCFOC@?$LA?h?A?$KE?5?$LG?G?$LE?B?5?$LK?q?$LJ?P?$LJ?x?H?$KD?5?$MA?$NP?$LI?x?$MA?T?$LH?B?$KD?$KM?$LK?q?H@ ; `string'
PUBLIC	??_C@_0EG@HMOFLOCG@GS?5?$LA?T?$MA?S?5?F?w?$MA?N?F?$KO?5?$LL?g?$LP?k?$LP?O?$LH?a?0?5?H?$KN?$MA?L?$LA?T?$MA@ ; `string'
PUBLIC	??_C@_0EM@MKKKOLIM@WGS?5?$LA?T?$MA?S?5?F?w?$MA?N?F?$KO?5?$LL?g?$LP?k?$LP?O?$LH?a?5WGS?5?F?w?$MA@ ; `string'
PUBLIC	??_C@_0ED@GFEEMBM@?$LK?q?$LJ?P?5?$LJ?x?H?$KD?$LI?$KG?5?$MA?T?$LH?B?G?O?$LA?E?$LD?$KK?5?$MA?$NP?$LI?x?$LF?H?5?$LA?h@ ; `string'
PUBLIC	??_C@_0CC@CAOCGFP@?s?$KO?$DP?y?$KB?$DP?Z?$LB?q?$LM?$DP?$KD?$KM?$DP?$OA?$LL?S?p?$DP?$DP?j?$PN?$DP?$DP?h?G?$OA?w?q?$LM?$DP?$KB@ ; `string'
PUBLIC	??_C@_0BG@FCCDGFEH@?$DP?y?$KB?q?$LM?$DP?$NO?E?i?D?s?$KN?$DP?l?$KL?i?D?h?G?$KD?$KB?$AA@ ; `string'
PUBLIC	??_C@_0CH@OACDIMFL@?$LF?$KF?$MA?L?E?M?$MA?z?$MA?e?$LM?R?$LA?$KB?$LL?g?$LP?k?A?$NP?$KD?$KM?$LD?$KK?A?$NP?$LP?$KB?$LE?Y?$LN?C@ ; `string'
PUBLIC	??_C@_0L@CKPMJLEL@?$MA?N?A?u?$LN?G?F?P?$KD?$KB?$AA@ ; `string'
PUBLIC	??_C@_0BD@EJCLNBGJ@?$MA?L?5?$LM?$KN?$LJ?v?$LE?B?5?$LM?v?$LI?$KO?A?$NP?$KB?$KD?$AA@ ; `string'
PUBLIC	??_C@_0DE@DJLFGHLF@?$LE?Y?$LI?$KF?$LD?$LL?$LP?k?$MA?$LL?5?C?$LD?$LI?$KO?A?$NP?$MA?T?$LE?O?$LE?Y?5?$MA?a?$LN?C?H?D?5?$LE@ ; `string'
PUBLIC	??_C@_0EO@GDIJOFL@?$MA?L?5?A?$KG?G?$LA?$MA?$LK?5?$LO?F?A?w?5?$LF?n?$LH?O?$LF?G?A?v?5?$LO?J?$LO?R?$LA?E?$LD?$KK@ ; `string'
PUBLIC	??_C@_0CM@LDMHIANO@101?5?$LF?$KF?$MA?L?E?M?$LK?$KD?$MA?L?$LN?$LK?5?$LM?$KN?$LJ?v?$LP?$KB?5?$LP?$KM?$LA?a?G?R?$LM?v@ ; `string'
PUBLIC	??_C@_0CG@PNGEGPHE@102?5?$LP?C?$LJ?Y?$LI?$KF?5?A?$KE?$LK?$LI?$LI?$KG?5?$LA?$KB?A?$KO?$LP?C?$LM?v?5?$LO?x?$LN?$MA?$LE@ ; `string'
PUBLIC	??_C@_0BH@BELNNDBH@103?5?$LP?$KM?$LA?a?G?R?$LM?v?$LO?x?$LN?$MA?$LE?O?$LE?Y?$KB?$KD?$AA@ ; `string'
PUBLIC	??_C@_0DF@ONGBOPMG@201?5?$LO?F?$MA?L?$LF?p?5?F?P?$LN?$LK?$LP?v?$LF?e?$LA?$KB?5?F?$LC?$LH?H?$LA?E?$LD?$KK?5?$LL@ ; `string'
PUBLIC	??_C@_0BO@FGBMDDDO@202?5?A?$NP?$LK?$LJ?$LH?N?$LB?W?$MA?N?5?$LK?R?$LA?$KB?$LE?I?G?U?$LE?O?$LE?Y?$KB?$KD?$AA@ ; `string'
PUBLIC	??_C@_0DP@GGBCENFH@203?5?$MA?L?$LJ?L?5?$LH?N?$LB?W?$MA?N?A?$NP?$MA?T?$LE?O?$LE?Y?4?5?$LA?h?A?$KE?$MA?L?5@ ; `string'
PUBLIC	??_C@_0CB@OJHBPHKJ@204?5?$LL?g?$LP?k?$MA?Z?$LA?$KB?5?$MA?L?$LJ?L?5?$LA?T?$MA?S?A?$NP?$MA?T?$LE?O?$LE?Y?$KB?$KD@ ; `string'
PUBLIC	??_C@_0DG@JNDCNPGC@205?5?$MA?L?5?$LA?T?$MA?S?$LP?$KB?5?$LH?N?$LB?W?$MA?N?G?O?A?v?5?$LI?x?G?$NP?$LA?E?$LD@ ; `string'
PUBLIC	??_C@_0DM@MBGFAAKE@301?5?$LF?n?$LH?O?$LF?G?A?v?$LO?J?$LE?B?5?$LA?h?A?$KE?$MA?T?$LE?O?$LE?Y?5?$LF?n?$LH?O@ ; `string'
PUBLIC	??_C@_0DO@PIHOLGOA@302?5?$DP?n?$NM?$DP?y?$KB?$NP?m?$DP?$DP?Z?$LB?$DP?$DP?$KD?$KM?$DP?$OA?$LL?$DP?$DP?$DP?n?$NM?$DP?m?$KN?$DP@ ; `string'
PUBLIC	??_C@_0BK@IAPLJHAN@303?5?$DP?y?$KB?q?$LM?$DP?$NO?E?i?D?s?$KN?$DP?l?$KL?i?D?h?G?$KB?$KD?$AA@ ; `string'
PUBLIC	??_C@_0BP@IOOEJBCN@304?5?$LA?T?$MA?S?$LH?$KJ?E?$LH?$MA?$LL?$LO?r?$MA?$LL?$LM?v?$LO?x?$LN?$MA?$LE?O?$LE?Y?$KB?$KD?$AA@ ; `string'
PUBLIC	??_C@_0CI@CNJAOKCA@401?5?$DP?Z?$LB?q?$LM?$DPWGS?o?C?$DP?$DP?$KD?$KM?$DP?$OA?$LL?S?p?$DP?$DP?j?$PN?$DP?$DP?h?G@ ; `string'
PUBLIC	??_C@_0CF@PPIDBOKB@402?5WGS?o?C?$DP?$DP?l?$KL?i?D?h?G?o?C?$DP?$KD?$KM?$DP?S?p?$DP?$DP?j?$PN?$DP?$DP?c@ ; `string'
PUBLIC	??_C@_0BM@LPFLMHNK@?D?$LD?$LI?$KP?E?M?5?$LL?h?A?$KG?$LK?R?$LA?$KB?$KD?$KM?$LE?Y?$LN?C?$LN?C?$LF?$LF?$KD?$KB?$AA@ ; `string'
PUBLIC	??_C@_03GOOLIKIF@?$CF3d?$AA@			; `string'
PUBLIC	??_C@_03GCLOGFGE@?$CF8d?$AA@			; `string'
PUBLIC	??_C@_03GLKEJMAA@?$CF4d?$AA@			; `string'
PUBLIC	??_C@_0BB@IFBIBFPD@?D?$LD?$LI?$KP?$LI?q?$LH?O?$LA?$KB?A?$KO?$LP?$MA?$LB?b?$AA@ ; `string'
PUBLIC	??_C@_0BB@JNLGIAPP@?D?$LD?$LI?$KP?E?M?$LL?$PN?$LM?$LK?$LN?G?F?P?$KB?$KD?$AA@ ; `string'
PUBLIC	??_C@_08LPOAKIII@?$LA?m?$LI?$KD?$LA?m?$LI?$KD?$AA@ ; `string'
PUBLIC	??_C@_08DKKOMJDP@?$LE?Y?$MA?L?$LD?k?$LN?$LK?$AA@ ; `string'
PUBLIC	??_C@_06HEDFNFKJ@?$LK?$KD?$LI?$KD?$LA?$KB?$AA@	; `string'
PUBLIC	??_C@_08CCMJLIMG@?$LD?k?$LI?$KD?$LD?k?$LI?$KD?$AA@ ; `string'
PUBLIC	??_C@_06EBHPHDBE@?$LK?$KD?$LH?g?$LH?g?$AA@	; `string'
PUBLIC	??_C@_08OIJECJJF@?G?A?$LI?$KO?E?d?$LN?$LK?$AA@	; `string'
PUBLIC	??_C@_06CMIENFNO@?$LE?Y?$MA?L?$LD?k?$AA@	; `string'
PUBLIC	??_C@_0L@OOKGIBCN@?G?A?$LG?s?E?$LA?E?d?$LN?$LK?$AA@ ; `string'
PUBLIC	??_C@_08OHLLGBIK@?$LN?$LK?E?Y?E?d?$LN?$LK?$AA@	; `string'
PUBLIC	??_C@_0BI@KIAMPJKG@?$MA?L?$MA?$PM?H?$KN?$LI?i?$MA?$LI?$LH?N?5?$LF?$LJ?$LO?F?$LA?$KB?$LB?b?$KB?$KD?$AA@ ; `string'
PUBLIC	??_C@_0BG@OIHOGAMJ@?D?$LD?$LI?$KP?E?M?$LI?$KG?5?$LM?$LB?E?C?G?O?$LM?$LM?$LP?d?$KB?$KD?$AA@ ; `string'
PUBLIC	??_C@_0L@POIBACII@?5?5?5?$LA?a?A?$KE?5?5?5?$AA@	; `string'
PUBLIC	??_C@_0L@DDKLBPNB@?5?$LL?v?$LL?s?$LK?$KP?$LA?f?5?$AA@ ; `string'
PUBLIC	??_C@_0L@KFACDLLI@?5?$LJ?f?G?b?$MA?$PM?H?$KP?5?$AA@ ; `string'
PUBLIC	??_C@_0L@LJAAMAMF@?5?5?5?C?k?$LM?R?5?5?5?$AA@	; `string'
PUBLIC	??_C@_0CC@NKOCBMEN@?G?v?$MA?g?5?$LM?$LB?E?C?G?Q?5?D?$LD?$LI?$KP?E?M?$LH?N?5?$LA?a?A?$KE?G?U?$LE?O?$LE?Y?$KB@ ; `string'
PUBLIC	??_C@_0BD@GLGANICJ@?D?$LD?$LI?$KP?E?M?5?$LL?v?$LL?s?5?$LK?$KP?$LA?f?$KB?$KD?$AA@ ; `string'
PUBLIC	??_C@_0BB@IBMPLOHE@?D?$LD?$LI?$KP?E?M?$LJ?f?G?b?$MA?$PM?H?$KP?$KB?$KD?$AA@ ; `string'
PUBLIC	??_C@_0BN@JACDIIAG@?D?$LD?$LI?$KP?E?M?$LM?$LB?E?C?H?$KN?$LI?i?$MA?$LI?$LH?N?$LF?$LJ?$LO?F?$LA?$KB?$LB?b?$KB?$KD?$AA@ ; `string'
PUBLIC	??_C@_01CLKCMJKC@?5?$AA@			; `string'
PUBLIC	??_C@_02KNHHEEKP@?5?5?$AA@			; `string'
PUBLIC	??_C@_0BN@MICBHKJB@?$MA?L?$LI?$KH?$MA?$LL?5?$MA?T?$LH?B?G?O?A?v?5?$LO?J?$LO?R?$LN?$MA?$LE?O?$LE?Y?$KD?$KB?$AA@ ; `string'
PUBLIC	??_C@_0CH@NAEAKGPD@?$LA?$LA?$MA?$LK?5?$MA?L?$LI?$KH?$MA?G?5?D?$LD?$LI?$KP?E?M?$LA?$KB?5?$MA?L?$LJ?L?5?A?$LI?$MA?g?G?U@ ; `string'
PUBLIC	??_C@_0CA@HJHEICBF@?$LL?s?E?B?5?F?w?$MA?N?F?$KO?$LI?$KG?5?$LK?P?$LJ?h?5?$LP?O?$LH?a?G?O?$LM?$LM?$LP?d?$KD?$KB?$AA@ ; `string'
PUBLIC	??_C@_0CE@IAICGILF@?$LM?S?$LM?$LK?D?$KB?$CI?1?F?w?$MA?N?F?$KO?$CJ?$LI?$KG?5?$LK?P?$LJ?h?5?$LP?O?$LH?a?G?O?$LM?$LM?$LP@ ; `string'
PUBLIC	??_C@_0BO@DBBPEHG@?$MA?L?$LI?$KH?$LP?$KB?5?$LA?x?$LJ?i?$MA?$LL?5?$LF?Q?$LM?v?5?$LO?x?$LN?$MA?$LE?O?$LE?Y?$KD?$KB?$AA@ ; `string'
PUBLIC	??_C@_0DJ@CMGKIMKM@?$MA?T?$LH?B?G?Q?5?$MA?L?$LI?$KH?$LP?$KB?$LE?B?5?G?c?$LP?k?$LF?G?A?v?5?$LO?J?$LE?B?5?$LJ?$KO@ ; `string'
PUBLIC	??_C@_0BL@DBMJLOIN@?D?$LD?$LI?$KP?E?M?5?$LM?$LD?A?$KE?$MA?$LL?5?$LA?a?A?$KE?G?U?$LE?O?$LE?Y?$KB?$KD?$AA@ ; `string'
PUBLIC	??_C@_0CK@EACHLIEL@?$MA?L?5?G?W?$LI?q?$MA?$LK?5?A?V?$LH?N?5?$LD?$LL?$LB?$LI?$LH?B?$LA?z?5?$LA?$PM?$LH?C?$MA?L?5?$MA@ ; `string'
PUBLIC	??_C@_0CJ@DBPCCGK@?$MA?L?G?W?$LI?q?$MA?$LK?5?A?V?$LH?N?5?$LA?x?$LA?$NN?$LH?B?$LA?z?5?$LA?$PM?$LH?C?$MA?L?5?$MA?V@ ; `string'
PUBLIC	??_C@_0CJ@PBMHJDKK@?$MA?L?G?W?$LI?q?$MA?$LK?5?A?V?$LH?N?5?$LJ?f?$LO?n?$LH?B?$LA?z?5?$LA?$PM?$LH?C?$MA?L?5?$MA?V@ ; `string'
PUBLIC	??_C@_0DA@OOLAIOAA@?$MA?L?G?W?$LI?q?$MA?$LK?5?A?V?$LH?N?5?$LM?x?$LJ?$NP?$LH?B?$LA?z?5?$LA?$PM?$LH?C?$MA?L?5?$LA?$PM@ ; `string'
PUBLIC	??_C@_0DC@DFHCGCAL@?A?v?$LM?S?$LM?$LK?$KB?$KD?$LM?v?$LM?S?$LM?$LK?$MA?G?5?$LL?s?$LE?k?$LP?M?5?$LN?N?$LP?o?5?$LG?$KH?5@ ; `string'
PUBLIC	??_C@_0DC@EIPOCBIG@?$LM?v?$LM?S?$LM?$LK?$KB?$KD?H?$KN?$LM?S?$LM?$LK?$MA?G?5?$LL?s?$LE?k?$LP?M?5?$LN?N?$LP?o?5?$LG?$KH?5@ ; `string'
PUBLIC	??_C@_0DC@DBHNIFJM@?H?$KN?$LM?S?$LM?$LK?$KB?$KD?G?$LD?$LM?S?$LM?$LK?$MA?G?5?$LL?s?$LE?k?$LP?M?5?$LN?N?$LP?o?5?$LG?$KH?5@ ; `string'
PUBLIC	??_C@_0DC@HDKFGPCM@?G?$LD?$LM?S?$LM?$LK?$KB?$KD?A?v?$LM?S?$LM?$LK?$MA?G?5?$LL?s?$LE?k?$LP?M?5?$LN?N?$LP?o?5?$LG?$KH?5@ ; `string'
PUBLIC	??_C@_0P@IMBCCPOD@?$LE?$KL?5?$LI?p?$LO?g?5?$LK?$KP?$LA?f?$KB?$KD?$AA@ ; `string'
PUBLIC	??_C@_0P@PNCOKHHM@?D?Z?5?$LI?p?$LO?g?5?$LK?$KP?$LA?f?$KB?$KD?$AA@ ; `string'
PUBLIC	??_C@_0P@LMMJJHJP@?$MA?T?5?$LI?p?$LO?g?5?$LK?$KP?$LA?f?$KB?$KD?$AA@ ; `string'
PUBLIC	??_C@_0CF@JDHEEBNC@?$MA?L?$LI?$KH?0?5?$LO?s?$LB?$LM?0?5?$LB?b?$LK?$LL?5?$LL?s?E?B?5?$LJ?W?5?$LM?S?$LM?$LK?5?$LM?$LD@ ; `string'
PUBLIC	??_C@_0M@DLFCBPCC@?$LM?$KE?$LB?b?$LI?$KD?5?$LI?$LG?$MA?$LL?$AA@ ; `string'
PUBLIC	??_C@_0O@OLOFEGAL@?$LI?$LG?$LI?$KO?$LD?J?$LN?$LK?5?$LI?$LG?$MA?$LL?$AA@ ; `string'
PUBLIC	??_C@_09GFHIJBMK@?$MA?p?$MA?p?5?$LI?$LG?$MA?$LL?$AA@ ; `string'
PUBLIC	??_C@_0O@FAJDIKKM@?D?$KL?$LH?g?E?$LI?$LD?$KK?5?$LI?$LG?$MA?$LL?$AA@ ; `string'
PUBLIC	??_C@_0CD@OGPAGALA@?$LL?g?$MA?L?$LD?J?$LN?$LK?$MA?G?5?$LF?$LP?B?J?$LP?$KB?5?$MA?$KH?D?$KB?G?X?5?$MA?V?$LN?$MA?$LE?O?$LE@ ; `string'
PUBLIC	??_C@_0BI@IHPDPOHC@4?$LA?$LD?5?$LI?$LG?$MA?$LL?A?$NP?5?$LA?$KB?$MA?e?5?E?$KO?$LE?O?$LE?Y?4?$AA@ ; `string'
PUBLIC	??_C@_0BO@BMBAEGNC@?$LG?G?G?Q?5?$LA?$KB?$MA?e?5?A?z?$LM?$KN?$MA?V?$LE?B?5?$LI?$LG?$MA?$LL?$MA?L?$LE?Y?$KB?$KD?$AA@ ; `string'
PUBLIC	??_C@_0CD@FJDMGMIM@?$LL?g?$MA?L?$LD?J?$LN?$LK?$MA?G?5?$LM?$KN?B?J?$LP?$KB?5?$MA?$KH?D?$KB?G?X?5?$MA?V?$LN?$MA?$LE?O?$LE@ ; `string'
PUBLIC	??_C@_0CL@GOPLDOIL@?$LO?F?$LI?$KH?$LE?Y?$LP?n?5?G?X?$LK?$KP?$MA?$LL?5?$LJ?Y?$LG?s?$LK?$LI?$LA?m?5?$MA?V?$LE?B?5?$LI?$LG@ ; `string'
PUBLIC	??_C@_0CC@DMMCBILE@?$LA?$KB?$LP?l?$LI?$LA?$MA?G?5?$LF?$LP?B?J?$LP?$KB?5?$MA?$KH?D?$KB?G?X?5?$MA?V?$LN?$MA?$LE?O?$LE?Y?$KD@ ; `string'
PUBLIC	??_C@_0BF@DLENCNEM@?$LN?$KD?$MA?$LI?$LH?N?5?$LF?Q?$LH?$KP?5?$LN?W?$LP?$KJ?$MA?V?$LE?B?$AA@ ; `string'
PUBLIC	??_C@_0BF@PENPANFK@?$LN?L?$LB?W?$LH?$KP?$LP?n?5?$LD?l?$LL?v?5?$LI?$LG?$MA?$LL?$KB?$KD?$AA@ ; `string'
PUBLIC	??_C@_0CC@JHAOGAJO@?$LA?$KB?$LP?l?$LI?$LA?$MA?G?5?$LM?$KN?B?J?$LP?$KB?5?$MA?$KH?D?$KB?G?X?5?$MA?V?$LN?$MA?$LE?O?$LE?Y?$KB@ ; `string'
PUBLIC	??_C@_0BB@BHNBHDIA@?$LI?$LG?$MA?$LL?$MA?$LK?5?$MA?$NL?$MA?$LK?5?$LP?$KJ?$LH?$KP?$AA@ ; `string'
PUBLIC	??_C@_0BH@MIIMPKCJ@?$LM?$LG?5?$MA?$KH?$LP?$KB?5?A?v?$LO?n?A?$LD?$LN?$MA?$LE?O?$LE?Y?$KB?$KD?$AA@ ; `string'
PUBLIC	??_C@_0BI@JKLCAMPH@?C?b?$LN?E?A?v?$LI?$KG?5?$LM?$LB?E?C?G?O?$LN?J?$LN?C?$LP?$MA?$KB?$KD?$AA@ ; `string'
PUBLIC	??_C@_0BC@FPKFEPPA@?D?$LD?$LI?$KP?E?M?5?A?$KG?$MA?$NL?5?A?$NP?4?4?4?$AA@ ; `string'
PUBLIC	??_C@_0BA@JFEMHLAM@?T?t?l?$PN?$DP?W?b?$DP?$DP?l?$KL?S?p?$KB?$KD?$AA@ ; `string'
PUBLIC	??_C@_0BH@KKDGIMOK@?C?$LM?E?$KJ?$MA?N?5?C?$LD?$LI?$KO?5?$LN?G?F?P?$CI1001?$CJ?$AA@ ; `string'
PUBLIC	??_C@_0CC@NMDHOJLK@?$LF?$KF?$MA?L?E?M?5?$LM?$KN?$LJ?v?$LP?$KB?5?A?$KC?$LM?S?5?G?R?5?$LM?v?5?$LO?x?$LN?$MA?$LE?O?$LE@ ; `string'
PUBLIC	??_C@_0DB@MPLNGCGC@?$LF?$KF?$MA?L?E?M?$LK?$KD?$MA?L?$LN?$LK?$LP?$KB?$LM?$KN?5?$LP?C?$LJ?Y?$LI?$KF?5?A?$KE?$LK?$LI?$LI?$KG?5?$LA@ ; `string'
PUBLIC	??_C@_0DE@PGOBNCKH@?$LM?$KN?$LJ?v?5?$LL?g?$LP?k?$MA?Z?$LA?$KB?5?$LI?$LJ?$LN?$MA?$LE?O?$LE?Y?4?5?$MA?a?$LN?C?5?H?D?$LP@ ; `string'
PUBLIC	??_C@_0CG@HHMHGCGE@?$MA?T?$LH?B?G?Q?5?$MA?Z?$LH?a?5?G?$PM?$LN?D?$MA?L?5?$LP?C?$LJ?Y?$LI?$KD?A?v?5?$LO?J?$LN?$MA@ ; `string'
PUBLIC	??_C@_0HC@GFFIGLHA@?$MA?$NP?$LI?x?$LF?H?5?$LL?g?$LP?k?$MA?Z?5?$MA?L?$LI?$KH?5?$LG?G?$LE?B?5?$LK?q?$LJ?P?$LJ?x?H?$KD@ ; `string'
PUBLIC	??_C@_0CP@NMMNAJC@?$LF?$LP?$MA?O?G?Q?5?$LL?g?$LP?k?$MA?Z?$LE?B?5?$LJ?$NN?$LK?$LJ?G?O?$LP?$KJ?5?$LH?N?$LB?W?$MA?N?5@ ; `string'
PUBLIC	??_C@_0CB@OGIGLFK@?$LF?$LP?$MA?O?G?Q?5?$LA?h?A?$KE?$MA?L?5?$LP?B?$LG?s?$MA?N?5?$LL?s?E?B?$MA?T?$LE?O?$LE?Y?4@ ; `string'
PUBLIC	??_C@_0BM@JBMHIAK@?$LL?g?$LP?k?$MA?Z?$LA?$KB?5?$MA?L?$LJ?L?5?$LA?T?$MA?S?A?$NP?5?$MA?T?$LE?O?$LE?Y?$AA@ ; `string'
PUBLIC	??_C@_0CC@HINJGBNA@?$LH?N?$LB?W?$MA?N?G?O?A?v?5?$LO?J?$LO?R?$LA?E?$LD?$KK?5?$LH?N?$LB?W?$MA?N?5?$LP?$MA?$LH?y?$MA@ ; `string'
PUBLIC	??_C@_0CE@KOLHMKHB@?$LA?$LA?$MA?$LK?5?$MA?L?$LI?$KH?$MA?G?5?$LA?h?A?$KE?$MA?L?5?$MA?L?$LJ?L?5?A?$LI?$MA?g?G?U?$LE?O@ ; `string'
PUBLIC	??_C@_0BO@HAIDEEBI@?H?$LI?$LP?x?5?$LA?h?A?$KE?$MA?L?5?H?$LA?$LM?$LK?H?$KN?5?$LF?G?$LO?z?$LN?$MA?$LE?O?$LE?Y?$AA@ ; `string'
PUBLIC	??_C@_0BF@NHOPBCJF@?$MA?$NP?$LI?x?$LF?H?5?$LN?C?$MA?$NL?5?$LP?$KB?$LH?$KP?D?Z?$LF?e?$AA@ ; `string'
PUBLIC	??_C@_0CD@NOMGEOJE@?H?$LI?$LP?x?5?$LA?h?A?$KE?$MA?L?5?H?$LA?$LM?$LK?H?$KN?5?$LF?G?A?v?5?$LO?J?$LO?R?$LN?$MA?$LE?O@ ; `string'
PUBLIC	??_C@_0DF@NACPJADM@?$LO?F?$MA?L?$LF?p?$LP?M?5?$LK?q?$LJ?P?$LJ?x?H?$KD?$LE?B?5?$LP?$LF?$LJ?$KO?$LA?z?5?$LM?$PN?$MA?Z?$LI@ ; `string'
PUBLIC	??_C@_0CH@JMACCECP@?$MA?L?5?$LA?h?A?$KE?$MA?$LK?5?A?$KE?A?v?$LF?G?$LO?z?$LN?$MA?$LE?O?$LE?Y?0?5?$LJ?$KO?$MA?G?G?X@ ; `string'
PUBLIC	??_C@_0DE@CGFBMJCB@?$LA?T?$MA?S?$MA?$LL?5?$LN?C?$MA?$NL?G?O?$LB?b?5?$MA?$PM?$LP?$KB?5?$LA?$LD?$MA?N?5?A?$KE?$LK?$LI?$LI?$KG@ ; `string'
PUBLIC	??_C@_0DE@LMMPDPLP@?$LH?N?$LB?W?$MA?N?5?$LN?C?$LA?$KD?$MA?L?5?C?J?$LA?z?$LF?G?$LO?z?$LN?$MA?$LE?O?$LE?Y?4?5?$LE?Y@ ; `string'
PUBLIC	??_C@_0CH@MGAFLNOF@?H?$KI?F?d?$MA?L?A?v?$LP?$KB?5?$LO?F?A?w?5?$LH?N?$LB?W?$MA?N?5?$LF?G?A?v?5?$LO?J?$LO?R@ ; `string'
PUBLIC	??_C@_0CO@LFMOKHEP@?$MA?L?5?$LA?h?A?$KE?$MA?$LK?5?$MA?L?$LJ?L?5?$LL?u?$LH?N?$LP?n?5?H?$LI?$LP?x?$MA?$LI?$LH?N?5?$MA@ ; `string'
PUBLIC	??_C@_0FC@MFALGBLI@?$LA?T?$MA?S?$MA?$LL?5?$LN?C?$MA?$NL?G?O?$LB?b?5?$MA?$PM?$LP?$KB?5Wayi?$LA?T?$MA?S?$LP?$KB?5@ ; `string'
PUBLIC	??_C@_0EC@JANGBCI@?$MA?L?5?A?$KG?G?$LA?$MA?$LK?5?$LO?F?A?w?5?$LF?n?$LH?O?$LF?G?A?v?5?$LO?J?$LO?R?$LN?$MA?$LE?O@ ; `string'
PUBLIC	??_C@_0CL@DHOIGGNA@WGS?o?C?$DP?$DP?l?$KL?i?D?h?G?o?C?$DP?0?5?$DP?$DP?$DP?o?C?$DP?$DP?n?$KC?r?$LI?$DP?$DP?j@ ; `string'
PUBLIC	??_C@_0CE@MIFIPBLG@WGS?o?C?$DP?$NM?t?p?k?0?5?$DP?$DP?$DPWGS?o?C?$DP?$DP?n?$KC?r?$LI?$DP?$DP?j?$PN?$DP?$DP@ ; `string'
PUBLIC	??_C@_0BB@PHBDBDAB@?$MA?N?E?M?$LD?$NN?5?$LP?$KM?$LA?a?5?$LP?$MA?$LH?y?$AA@ ; `string'
PUBLIC	??_C@_0BE@FNJGPFEB@?$DP?l?$KL?n?$KE?P?l?v?b?$OA?x?M?$KH?T?t?l?$PN?$KB?$KD?$AA@ ; `string'
PUBLIC	??_C@_0BB@DDFMPBHB@?$DP?l?$KL?n?$KE?w?$LM?$DP?$OA?x?M?$KH?T?t?l?$PN?$AA@ ; `string'
PUBLIC	??_C@_0BC@BLEFHHCI@?$DP?l?$KL?n?$KE?t?$LI?c?j?$OA?x?M?$KH?T?t?l?$PN?$AA@ ; `string'
PUBLIC	??_C@_0BC@IADOEDAG@?$DP?l?$KL?n?$KE?$NN?A?T?$OA?$OA?x?M?$KH?T?t?l?$PN?$AA@ ; `string'
PUBLIC	??_C@_0BC@EOGDPEGN@?$DP?l?$KL?n?$KE?m?$LJ?Z?$LA?$OA?x?M?$KH?T?t?l?$PN?$AA@ ; `string'
PUBLIC	??_C@_0BA@OCMAIDLN@?$DP?l?$KL?n?$KE?$DP?$DP?$OA?x?M?$KH?T?t?l?$PN?$AA@ ; `string'
PUBLIC	??_C@_0BB@MMGOFGBI@?$DP?l?$KL?n?$KE?$DP?y?A?$OA?x?M?$KH?T?t?l?$PN?$AA@ ; `string'
PUBLIC	??_C@_0BC@NPHDINBL@?$DP?l?$KL?n?$KE?z?E?y?$PL?$OA?x?M?$KH?T?t?l?$PN?$AA@ ; `string'
PUBLIC	??_C@_0BC@ODOFDCOF@?$DP?l?$KL?n?$KE?$OA?x?$DP?$DP?$OA?x?M?$KH?T?t?l?$PN?$AA@ ; `string'
PUBLIC	??_C@_0BF@BFOFAFDI@?$DP?l?$KL?n?$KE?$DP?V?X?J?$KL?o?T?$OA?x?M?$KH?T?t?l?$PN?$AA@ ; `string'
PUBLIC	??_C@_0BB@PEBLFAAD@?$DP?l?$KL?n?$KE?t?$LI?$DP?$OA?x?M?$KH?T?t?l?$PN?$AA@ ; `string'
PUBLIC	??_C@_0BC@LBDONGAD@?$DP?l?$KL?n?$KE?c?f?M?$KD?$OA?x?M?$KH?T?t?l?$PN?$AA@ ; `string'
PUBLIC	??_C@_0BC@IMEAHPED@?$DP?l?$PN?$DP?W?b?c?w?$DP?$KB?$KD?$CI1002?$CJ?$AA@ ; `string'
PUBLIC	??_C@_0BH@OOIMHFEI@?C?$LM?E?$KJ?$MA?N?5?C?$LD?$LI?$KO?5?$LN?G?F?P?$CI?$CFd?$CJ?$KB?$KD?$AA@ ; `string'
PUBLIC	??_C@_0BA@KHEOLEJA@?T?t?u?s?$DP?W?b?$DP?$DP?l?$KL?S?p?$KB?$KD?$AA@ ; `string'
PUBLIC	??_C@_0BG@HHBIODFI@?C?$LM?E?$KJ?5?$LO?F?$LP?t?5?C?$LD?$LI?$KO?5?$LN?G?F?P?$KB?$KD?$AA@ ; `string'
PUBLIC	??_C@_07IBAIKNAL@?$FLstyle?5?$AA@		; `string'
PUBLIC	??_C@_03BBKEAIF@?$DP?$DP?$DP?$AA@		; `string'
PUBLIC	??_C@_06OEDOOLP@?5?$KD?O?$KD?K?5?$AA@		; `string'
PUBLIC	??_C@_06JHILMIHF@CANCEL?$AA@			; `string'
PUBLIC	??_C@_06BLFCGNEJ@?H?$KO?5?5?$MA?N?$AA@		; `string'
PUBLIC	??_C@_06PNFMGOAF@?C?k?5?5?$LM?R?$AA@		; `string'
PUBLIC	??_C@_0M@KLCLPDEC@?$MA?L?$MA?$PM?5?F?d?$MA?L?A?v?$AA@ ; `string'
PUBLIC	??_C@_0M@JKCPDGAE@?$LE?Y?$MA?$LN?5?F?d?$MA?L?A?v?$AA@ ; `string'
PUBLIC	??_C@_02DPKJAMEF@?$CFd?$AA@			; `string'
PUBLIC	??_C@_0DA@BAFAIKKM@?$KD?$LN?$KD?$LN?$KD?$LN?5?5?5?5?5?5?5?5?5?F?j?$MA?$LL?5?$LM?$LB?E?C?G?O?$LN?J?$LN?C?$LP?$MA@ ; `string'
PUBLIC	??_C@_02BAJPEKCM@?$LM?x?$AA@			; `string'
PUBLIC	??_C@_02MCBFLHBI@?$LJ?f?$AA@			; `string'
PUBLIC	??_C@_02BJIFLDEI@?$LA?x?$AA@			; `string'
PUBLIC	??_C@_02MEIMKHMB@HP?$AA@			; `string'
PUBLIC	??_C@_02FLIMDJ@Lv?$AA@				; `string'
PUBLIC	??_C@_04KDDDLIGD@?F?d?F?$KO?$AA@		; `string'
PUBLIC	??_C@_0CF@FLMNJHFI@?$CF?916s?5?5?$CF?93s?5?5?5?$CF?95s?5?5?$CF?95s?5?5?5?$CF?95s?5@ ; `string'
PUBLIC	??_C@_0CF@HCGLMHEH@?$CF?916s?5?5?$CF?93d?5?5?5?$CF?95d?5?5?$CF?95d?5?5?5?$CF?95d?5@ ; `string'
PUBLIC	??_C@_0DC@OGKMBKIN@?$KD?$LN?$KD?$LN?$KD?$LN?5?5?5?5?5?5?5?5?5?F?D?F?$LM?$LP?x?$MA?$LL?5?$LM?$LB?E?C?G?O?$LN?J@ ; `string'
PUBLIC	??_C@_0DC@OEBMFFGI@?$KD?$LN?$KD?$LN?$KD?$LN?5?5?5?5?F?j?5?$LG?G?$LE?B?5?F?D?F?$LM?$LP?x?$MA?$LL?5?$LM?$LB?E?C?G@ ; `string'
PUBLIC	??_C@_0CP@PALAGGON@?$KD?$LN?$KD?$LN?$KD?$LN?5?5?5?5?5?5?5?$LI?$NO?$MA?N?5?F?j?$MA?$LL?5?$LM?$LB?E?C?G?O?$LN?J?$LN@ ; `string'
PUBLIC	??_C@_0CP@GFPMIDDF@?$KD?$LN?$KD?$LN?$KD?$LN?5?5?5?5?5?5?5?$LL?s?$LE?k?5?F?j?$MA?$LL?5?$LM?$LB?E?C?G?O?$LN?J?$LN@ ; `string'
PUBLIC	??_C@_08ILNEEICH@?$CFd?$HM?$CFd?$HM?$CFd?$AA@	; `string'
PUBLIC	??_C@_0CA@ONLNCGPF@?$CF?916s?5?$CF?93s?5?5?$CF?95s?5?$CF?95s?5?5?$CF?95s?5?5?$CFs?$AA@ ; `string'
PUBLIC	??_C@_03BIEHFCNJ@?q?l?$DP?$AA@			; `string'
PUBLIC	??_C@_04BLDHOJBN@?$LI?$NO?$MA?N?$AA@		; `string'
PUBLIC	??_C@_04LFMEPEEF@?$LL?s?$LE?k?$AA@		; `string'
PUBLIC	??_C@_0CA@MOGFGPOH@?$CF?916s?5?$CF?93d?5?5?$CF?95d?5?$CF?95d?5?5?$CF?95d?5?5?$CFd?$AA@ ; `string'
PUBLIC	??_C@_01GBGANLPD@0?$AA@				; `string'
PUBLIC	??_C@_05GLBACONI@?$CFd?$HM?$CFd?$AA@		; `string'
PUBLIC	??_C@_0L@KBBNADAJ@?$LI?m?$LM?$LK?5?$CF8d?$KD?F?$AA@ ; `string'
PUBLIC	??_C@_0M@DBGBFDKA@?$LN?$LK?E?f?5?5?$CF8d?$KD?S?$AA@ ; `string'
PUBLIC	??_C@_0P@DLBADLDH@?$CF2d?1?$CF2d?5?F?d?$MA?L?A?v?$AA@ ; `string'
PUBLIC	??_C@_0L@JBEIEHEP@?$CF8d?$KD?F?$CF8d?$KD?S?$AA@	; `string'
PUBLIC	??_C@_05ENGCCMCP@?$CF8d?$KD?S?$AA@		; `string'
PUBLIC	??_C@_04HNNONBHM@?$CF2d?$DP?$AA@		; `string'
PUBLIC	??_C@_0BE@PBEPDFJI@?$CF8d?$KD?S?5x?5?$CF2d?5?$DN?5?$CF8d?$KD?S?$AA@ ; `string'
PUBLIC	??_C@_0BE@FKIEDAAE@?$CF8d?$KD?F?5x?5?$CF2d?5?$DN?5?$CF8d?$KD?F?$AA@ ; `string'
PUBLIC	??_C@_0L@OCLOEHGJ@?$LN?$LK?E?f?5?$CF8d?$KD?S?$AA@ ; `string'
PUBLIC	??_C@_03EPCHICDI@x?$CFd?$AA@			; `string'
PUBLIC	??_C@_09DPNFCMLK@?Q?Q?$DP?5?$CF8d?$KD?S?$AA@	; `string'
PUBLIC	??_C@_0M@JKOCLGKC@?$CFd?$HM?$CFd?$HM?$CFd?$HM?$CFd?$AA@ ; `string'
PUBLIC	??_C@_09IAMFCDJG@?$CF2d?1?$CF2d?5?$DP?$AA@	; `string'
PUBLIC	??_C@_0L@LCAELECA@?$DP?$FL?$CFs?$FN?$DP?$FL?$CFs?$FN?$AA@ ; `string'
PUBLIC	??_C@_0BB@JCNGIDNP@?$LN?C?$MA?$NL?G?O?$LA?Z?$LN?$MA?$LE?O?$LB?n?$KD?$LP?$AA@ ; `string'
PUBLIC	??_C@_0BC@HIPKKMKB@?$LB?W?$MA?$KH?D?$KB?$LP?$KB?5?G?R?$LB?n?$LP?d?$KD?$LP?$AA@ ; `string'
PUBLIC	??_C@_07BCAPMAGD@?$LB?b?5?$CFd?3?5?$AA@		; `string'
PUBLIC	??_C@_0L@JFOFCMBF@?$CF2d?1?$CF2d?5?B?J?$AA@	; `string'
PUBLIC	??_C@_05HKNHMKDL@?$CF8d?$KD?F?$AA@		; `string'
PUBLIC	??_C@_0BE@HCEHBKKL@?$LE?$KJ?$LB?$LI?G?Q?E?W?5?$LJ?h?$LP?o?$LB?n?$LP?d?$KD?$LP?$AA@ ; `string'
PUBLIC	??_C@_02JPEIBJLC@?$LJ?N?$AA@			; `string'
PUBLIC	??_C@_0BB@BOMDKKC@?$LB?W?$MA?$KH?D?$KB?$LP?$KB?G?R?$LB?n?$LP?d?$KD?$LP?$AA@ ; `string'
PUBLIC	??_C@_0P@HHEBCLLE@?$LO?g?$FL?$CFs?$FN?G?O?$LE?Y?$FL?$CFs?$FN?$AA@ ; `string'
PUBLIC	??_C@_0BE@BNDDJDJA@?$MA?L?$LB?b?$LM?z?$MA?$LL?5?$LJ?h?$LP?o?$LB?n?$LP?d?$KD?$LP?$AA@ ; `string'
PUBLIC	??_C@_0BI@IDKIBNJL@?$LK?N?A?$LH?$MA?L?$LI?$KH?$MA?$LL?5?$MA?T?$LH?B?G?O?$LM?$LM?$LP?d?$KD?$KB?$AA@ ; `string'
PUBLIC	??_C@_0BJ@BIHHOJEL@?$LA?$KB?A?$LH?5?A?$KG?$LI?q?$MA?$LL?5?$MA?T?$LH?B?G?O?$LM?$LM?$LP?d?$KD?$KB?$AA@ ; `string'
PUBLIC	??_C@_0BJ@IAPAGIOC@?$LM?v?H?$KD?5?F?d?F?$KO?$LI?$KG?5?$LM?$LB?E?C?G?O?$LM?$LM?$LP?d?$KD?$KB?$AA@ ; `string'
PUBLIC	??_C@_0BL@ODAGPAJL@?$LA?$KB?A?$LH?5?$LK?$LI?H?$KD?$MA?Z?$LI?$KG?5?$LM?$LB?E?C?G?O?$LM?$LM?$LP?d?$KD?$KB?$AA@ ; `string'
PUBLIC	??_C@_0O@EODKIPCM@A?$HM?$CFs?$HM?$CFd?$HM?$CFd?$HM?$CFs?$AA@ ; `string'
PUBLIC	??_C@_0BD@DPCKNFFI@?5?5?5?5?5?5?5?5?5?5?5?5?5?5?5?5?5?5?$AA@ ; `string'
PUBLIC	??_C@_04EHFFKIEF@?$LO?x?$LE?Y?$AA@		; `string'
PUBLIC	??_C@_03EEBNCBOD@?5?$CFs?$AA@			; `string'
PUBLIC	??_C@_06HHOANBGP@?5?5?$CFs?5?5?$AA@		; `string'
PUBLIC	??_C@_04PMAIGBME@?$CF38s?$AA@			; `string'
PUBLIC	??_C@_08MNCFPICD@S?$HMF?$HM?$CFd?$HM0?$AA@	; `string'
PUBLIC	??_C@_07EFKFLCFA@S?$HMF?$HM1?$HM0?$AA@		; `string'
PUBLIC	??_C@_0N@LDDLKII@S?$HMD?$HM?$CFs?$HM?$CFd?$HM?$CFd?$AA@ ; `string'
PUBLIC	??_C@_08MIMOGKCP@?$LA?$KB?A?$LH?$LI?q?$LH?O?$AA@ ; `string'
PUBLIC	??_C@_0M@GFBBINPB@?$CF3d?5?1?5?$CF3d?5?$DP?$AA@	; `string'
PUBLIC	??_C@_0L@FHLFAEOJ@?$FL?$LA?$KB?A?$LH?$LI?m?$LM?$LK?$FN?$AA@ ; `string'
PUBLIC	??_C@_06PFFPIKHP@?$FL?$MA?N?$LP?x?$FN?$AA@	; `string'
PUBLIC	??_C@_08KKDDPHBL@?$FL?A?$LH?5?5?$MA?e?$FN?$AA@	; `string'
PUBLIC	??_C@_0O@MGCOJGNL@?$FL?$LK?N?5?A?$LH?5?$MA?L?5?$LI?$KH?$FN?$AA@ ; `string'
PUBLIC	??_C@_0BK@DBLHNEOK@?$CF?94s?5?$CF?916s?5?$CF?916s?5?$CF6s?5?$CF10s?$AA@ ; `string'
PUBLIC	??_C@_0BK@IAGNODKB@?$CF4d?3?5?$CF?916s?5?$CF?916s?5?$CF6d?5?$CF10d?$AA@ ; `string'
PUBLIC	??_C@_0CD@GBGODGL@P?$HM?$MA?L?$LJ?L?5?$LE?Y?$LI?$KF?$LK?N?A?$LH?$LP?$KB?5?$LA?$KB?$MA?T?$LF?G?$LO?n?$MA?V?$LO?n?$LP?d@ ; `string'
PUBLIC	??_C@_0O@FBIMKKIN@J?$HM?$CFd?$HM?$CFd?$HM?$CFs?$HM?$CFd?$AA@ ; `string'
PUBLIC	??_C@_06FHOHGHFK@X?$HMR?$HM?$CFs?$AA@		; `string'
PUBLIC	??_C@_06CIKELAKM@X?$HMP?$HM?$CFd?$AA@		; `string'
PUBLIC	??_C@_05PFEBJGGD@?$CFd?5?$LI?m?$AA@		; `string'
PUBLIC	??_C@_04GMJLIJKP@?A?$KC?$LM?S?$AA@		; `string'
PUBLIC	??_C@_06OEBCHFHA@?$LJ?L?A?$KC?$LM?S?$AA@	; `string'
PUBLIC	??_C@_08KOCLKJHI@?$LK?N?5?A?$LH?5?$LP?x?$AA@	; `string'
PUBLIC	??_C@_08HBDNAOJN@?A?$LH?5?5?5?5?$MA?e?$AA@	; `string'
PUBLIC	??_C@_08FGILGNNJ@?$MA?e?5?5?5?5?$LH?N?$AA@	; `string'
PUBLIC	??_C@_08EPNLIAJH@?$LA?$KB?$MA?T?$LN?E?C?$LL?$AA@ ; `string'
PUBLIC	??_C@_08EKAAGOCB@?E?$LL?5?5?5?5?E?p?$AA@	; `string'
PUBLIC	??_C@_0BM@HGDMDEHB@?$CF?99s?$CF?918s?$CF3s?$CF12s?$CF12s?$CF10s?$CF7s?$AA@ ; `string'
PUBLIC	??_C@_09LDBPGJOA@?$LA?$KB?$MA?T?5?$LN?B?$MA?N?$AA@ ; `string'
PUBLIC	??_C@_09IPDOHIGO@?$LA?$KB?$MA?T?5?$LA?E?$LK?N?$AA@ ; `string'
PUBLIC	??_C@_0CC@OOGHFIO@?5?$CF?920s?5?5?5?5?5?5?5?5?5?5?5?5?5?5?5?5?5?5?5?5?5?5?5?5?5?$CF@ ; `string'
PUBLIC	??_C@_04NKANOEFH@?$DP?5?5?$DP?$AA@		; `string'
PUBLIC	??_C@_02HHFHKOHM@?$DP?$DP?$AA@			; `string'
PUBLIC	??_C@_03IKGEINEE@?$CFs?5?$AA@			; `string'
PUBLIC	??_C@_0L@IBINOEKJ@M?$HM?$CFs?$HM?$CFd?$HM?$CFd?$AA@ ; `string'
PUBLIC	??_C@_04OKLAFEGF@T?$HM?$CFd?$AA@		; `string'
PUBLIC	??_C@_0CF@OGEDCEOL@?5?5?5?5?5?5?5?5?5?5?5?5?5?5?5?5?5?5?5?5?5?5?5?5?5?$LK?N?A?$LH?$LP?x?5@ ; `string'
PUBLIC	??_C@_0EI@MNEGDEON@?5?$KD?$NL?A?$KC?$LM?S?$KD?$NN?$KD?$NL?$LE?P?$LD?W?$MA?S?$KD?$NN?5?5?5?5?5?$KD?$NL?$LH?$LJ?$LK?$KH?$KD?$NN@ ; `string'
PUBLIC	??_C@_01DNKMNLPK@?$HM?$AA@			; `string'
PUBLIC	??_C@_05GOJDKKEO@?$CFd?$HM?$CFs?$AA@		; `string'
PUBLIC	??_C@_0BE@BNBIMIKL@?$KB?$KO?$LA?$KB?5?A?$LH?5?$LA?T?5?$LN?C?5?F?G?5?$KB?$KP?$AA@ ; `string'
PUBLIC	??_C@_0L@PNJCCPBJ@?$LM?$KE?$LB?b?$LI?$KD?$LI?$LG?$MA?$LL?$AA@ ; `string'
PUBLIC	??_C@_08FHGEHAHK@?$LI?$LG?$LI?$KO?$LD?J?$LN?$LK?$AA@ ; `string'
PUBLIC	??_C@_08HCKLDHDO@?$MA?p?5?5?5?5?$MA?p?$AA@	; `string'
PUBLIC	??_C@_08IPKKANCP@?D?$KL?$LH?g?E?$LI?$LD?$KK?$AA@ ; `string'
PUBLIC	??_C@_08GDPNKJEK@?$LP?$KB?5?5?5?5?$LF?$KH?$AA@	; `string'
PUBLIC	??_C@_08PLFMPCKD@?E?$LI?5?$LI?$KD?5?E?$LI?$AA@	; `string'
PUBLIC	??_C@_08NFLGLILK@?$LE?O?5?5?5?5?$LN?$LK?$AA@	; `string'
PUBLIC	??_C@_07LHCKFMFL@?$NN?W?5?V?$KN?5?$DP?$AA@	; `string'
PUBLIC	??_C@_08BBBHHHEB@?$LO?$NP?5?$MA?L?5?$LP?$MA?$AA@ ; `string'
PUBLIC	??_C@_06LKHMHEK@?$LO?F?$LN?C?$LO?F?$AA@		; `string'
PUBLIC	??_C@_06OOGDCHLD@?$LJ?L?$LL?g?$LP?k?$AA@	; `string'
PUBLIC	??_C@_0P@HOFHBIDI@?$CF9s?$CF5s?5?$CF5s?$CF18s?$AA@ ; `string'
PUBLIC	??_C@_08CKOJLPBB@?$CFs?$HM?$CFs?$HM?$CFs?$AA@	; `string'
PUBLIC	??_C@_07MEJNJNBN@P?$HM?$CFd?$HM?$CFs?$AA@	; `string'
PUBLIC	??_C@_0CB@EPJNIDND@?5?5?5?5?5?5?5?5?$KB?$KO?$LA?$KB?A?$LH?$LB?b?$LJ?$NN?G?A?$LH?N?$LB?W?$LH?$KF?$LI?q?$LH?O?$KB?$KP@ ; `string'
PUBLIC	??_C@_0CI@NMHOIHGJ@?$KB?$KO?$MA?e?5?$LM?R?$KB?$KP?$KB?$KO?$LF?$LP?$KB?$KP?$KB?$KO?$LD?$LC?$KB?$KP?5?5?5?5?5?5?5?5?$KB?$KO?$LL@ ; `string'
PUBLIC	??_C@_0L@CMOKCILO@?$MA?O?$LJ?$NN?$LK?N?A?$LH?$LP?x?$AA@ ; `string'
PUBLIC	??_C@_08JAKOPBJC@?C?k?5?5?5?5?$LM?R?$AA@	; `string'
PUBLIC	??_C@_0L@DJCDNCBF@?$LM?$LB?E?C?G?O?$LM?$LM?$LP?d?$AA@ ; `string'
PUBLIC	??_C@_04KMMDIKEB@?5?$CFs?5?$AA@			; `string'
PUBLIC	??_C@_0L@GOKAMOPJ@?$LI?C?$MA?$LK?A?w?C?$KF?$KD?$LK?$AA@ ; `string'
PUBLIC	??_C@_0BF@MDCNOKLO@?$DP?$DP?5?$CFs?5?A?$KG?$LI?m?$LN?C?E?$LD?$LB?n?$LP?d?$KD?$LP?$AA@ ; `string'
PUBLIC	??_C@_01HIHLOKLC@1?$AA@				; `string'
PUBLIC	??_C@_0BN@EPBIJHBO@?5?$CF?97s?$CF?918s?$CF?916s?$CF13d?$CF12d?$CF14d?$CF?$AA@ ; `string'
PUBLIC	??_C@_0BG@HKOCFEKA@?$CF?97s?$CF?916s?$CF?916s?$CF8d?$CF12d?$AA@ ; `string'
PUBLIC	??_C@_0BE@KCIAGAPO@?$KB?$KO?$LM?$KN?$LJ?v?5?$LK?N?A?$LH?5?$LM?x?$MA?$KH?5?$KB?$KP?$AA@ ; `string'
PUBLIC	??_C@_0DO@OAPGBLPG@?$KB?$KO?$LM?x?$MA?$KH?$KB?$KP?5?$KB?$KO?$LK?N?A?$LH?$MA?L?$LI?$KH?$KB?$KP?5?$KB?$KO?A?$LH?$MA?e?$KB?$KP?5?$KB@ ; `string'
PUBLIC	??_C@_0BD@NPAMGOGD@?$KB?$KO?$LM?$KN?$LJ?v?5?$LK?N?A?$LH?5?$LM?x?$MA?$KH?$KB?$KP?$AA@ ; `string'
PUBLIC	??_C@_0EB@DMPCKEKC@?$KB?$KO?$LM?x?$MA?$KH?$KB?$KP?$KB?$KO?$LA?$KB?5?A?$LH?5?$LI?m?5?D?$KK?$KB?$KP?$KB?$KO?A?$LH?5?$MA?e?5?$MA@ ; `string'
PUBLIC	??_C@_0BE@BGDICKKN@?5?$CF?99s?$CF?919s?$CF?917s?$CF12s?$AA@ ; `string'
PUBLIC	??_C@_0CF@CPAJCIOI@?5?5?5?5?5?5?5?5?5?5?5?5?5?5?5?5?5?5?$KB?$KO?$LM?$KN?$LJ?v?5?$LA?$KB?A?$LH?5?$LM?x@ ; `string'
PUBLIC	??_C@_0CL@PEELKHDI@?$KB?$KO?$LM?x?$MA?$KH?$KB?$KP?5?$KB?$KO?$LK?N?A?$LH?$MA?L?$LI?$KH?$KB?$KP?5?$KB?$KO?A?$LH?$MA?e?$KB?$KP?5?5@ ; `string'
PUBLIC	??_C@_04OKOHEJBO@?5?$DP?$DP?5?$AA@		; `string'
PUBLIC	??_C@_06CJHLLHBH@?5?C?k?$LM?R?5?$AA@		; `string'
PUBLIC	??_C@_0CK@PKMNOIEH@?D?I?$LI?$KP?E?M?$LI?$KG?5?$LL?h?A?$KG?G?O?$LH?A?$LI?i?5?$LK?q?$LJ?P?$LJ?x?H?$KD?$LI?$KG?5?$MA@ ; `string'
PUBLIC	??_C@_0BE@DIPOFJGG@?D?I?$LI?$KP?E?M?$LI?$KG?5?$LL?h?A?$KG?G?U?$LE?O?$LE?Y?$AA@ ; `string'
PUBLIC	??_C@_0BH@BGEMBKPO@?$LK?q?$LJ?P?$LJ?x?H?$KD?$LA?$KB?5?F?$LC?$LH?H?$LN?$MA?$LE?O?$LE?Y?4?$AA@ ; `string'
PUBLIC	??_C@_0BI@GILIOCHN@?$LK?q?$LJ?P?$LJ?x?H?$KD?$LI?$KG?5?$MA?T?$LH?B?G?X?A?V?$LM?$LM?$LP?d?$AA@ ; `string'
PUBLIC	??_C@_08KEIECNNH@?5?C?$NP?5?5?$LA?$KB?5?$AA@	; `string'
PUBLIC	??_C@_08FOJJNHLG@?5?$LM?v?5?5?A?$KE?5?$AA@	; `string'
PUBLIC	??_C@_08PCGBOOHO@?5?$LP?$KM?5?5?$LA?a?5?$AA@	; `string'
PUBLIC	??_C@_08EJIOEONO@?$LM?$LD?5?A?$KE?5?A?$NP?$AA@	; `string'
PUBLIC	??_C@_08MOJFPAKN@?$MA?$MA?$LE?d?$LE?k?$LB?b?$AA@ ; `string'
PUBLIC	??_C@_06LCJOFINF@?$LP?$LJ?5?5?A?$KE?$AA@	; `string'
PUBLIC	??_C@_0N@OOICEDBI@?$LA?$KB?A?$LH?$MA?$PM?E?u?$MA?O?A?$KE?$AA@ ; `string'
PUBLIC	??_C@_0BB@NLEMPNJJ@?G?v?$MA?g?$LN?C?$LA?$KD?$KD?$LK?5?$CFd?3?$CFd?$AA@ ; `string'
PUBLIC	??_C@_0N@MJLHBHM@?B?$PM?$LA?$KB?5?$MA?N?$LP?x?5?$LM?v?$AA@ ; `string'
PUBLIC	??_C@_08PFKCNHNG@?A?X?$LK?q?$LN?C?$LA?$KD?$AA@	; `string'
PUBLIC	??_C@_08MBJKFBBE@?$LN?E?C?$LL?$LA?$KB?A?$LH?$AA@ ; `string'
PUBLIC	??_C@_08PFKHECNF@?$LF?$LF?$MA?$PM?$LA?$KB?A?$LH?$AA@ ; `string'
PUBLIC	??_C@_08GLHNCABG@?$LA?$LD?$MA?$PM?$LN?C?$LA?$KD?$AA@ ; `string'
PUBLIC	??_C@_0BL@LCOOKBCN@?$CF10s?5?5?$CF16s?5?5?$CF16s?5?5?$CF8s?5?5?$CF8s?$AA@ ; `string'
PUBLIC	??_C@_0L@KPJDMHLO@?$LD?$LL?$MA?O?5?$CFd?300?$AA@ ; `string'
PUBLIC	??_C@_0L@FBMAKMIA@?$LP?$MA?$LE?C?5?$CFd?300?$AA@ ; `string'
PUBLIC	??_C@_0CA@FLGBJLNM@?$CF10s?5?5?$CF16s?5?5?$CF16s?5?5?$CF4d?$NN?B?$DP?5?5?$CF6d?l?Q?$AA@ ; `string'
PUBLIC	??_C@_0O@DBFPDLEJ@?$LN?B?$LI?$KO?A?$LG?$LA?G?$KD?$LK?5?$CFs?$AA@ ; `string'
PUBLIC	??_C@_04FIBCPIPH@?$CF10s?$AA@			; `string'
PUBLIC	??_C@_0BP@FOLPFEDH@?$LN?E?C?$LL?G?O?$LN?G?5?$LA?$KB?A?$LH?$MA?$LL?5?$LM?$LB?E?C?G?X?A?V?$LM?$LM?$LP?d?$KD?$LK?$AA@ ; `string'
PUBLIC	??_C@_05EMGOANLP@?$CF?916s?$AA@			; `string'
PUBLIC	??_C@_0BC@PKDFJBMN@?$CFs?$HM?$CFs?$HM?$CFs?$HM?$CFd?$HM?$CFd?$HM?$CFd?$AA@ ; `string'
PUBLIC	??_C@_0N@LDIFEIBI@?$LA?$KB?A?$LH?$LE?k?$LA?a?$LN?E?C?$LL?$AA@ ; `string'
PUBLIC	??_C@_0L@KBIJEBEK@?$LF?$LF?$MA?$PM?$LA?$KB?A?$LH?$KD?$LK?$AA@ ; `string'
PUBLIC	??_C@_0L@PHNGNCKG@?$LN?E?C?$LL?$LA?$KB?A?$LH?$KD?$LK?$AA@ ; `string'
PUBLIC	??_C@_0BB@PNKEDEKN@?A?X?$LK?q?$LN?C?$LA?$KD?$KD?$LK?5?$CFd?5?$LK?P?$AA@ ; `string'
PUBLIC	??_C@_0BB@HNBGGGNE@?B?$PM?$LA?$KB?$MA?Z?$LM?v?$KD?$LK?5?$CFd?5?$LI?m?$AA@ ; `string'
PUBLIC	??_C@_06BOIKNFOM@B?$HMT?$HM?$CFd?$AA@		; `string'
PUBLIC	??_C@_0CE@FDKHNEAG@?E?$LO?$LN?B?$LA?$KB?$LE?I?G?Q?F?d?F?$KO?$LE?B?5?$LE?Y?$MA?$LN?$LA?z?5?$LA?$LA?$LN?$MA?$LE?O?$LE?Y@ ; `string'
PUBLIC	??_C@_0BL@IIIFLCHO@?$LL?s?$LE?k?$LI?$KG?5?$LM?$KN?$LF?Q?$LH?$KP?5?C?$KD?$LO?F?$LK?$LI?$LM?$LM?$LP?d?$KD?$KB?$AA@ ; `string'
PUBLIC	??_C@_0BJ@DODKFOKF@?$LA?$KB?A?$LH?$LB?$LI?$LM?$LK?$LP?x?$MA?$LL?$LM?$LB?E?C?G?O?$LM?$LM?$LP?d?$KD?$LK?$AA@ ; `string'
PUBLIC	??_C@_0L@KPJPAJE@?5?5?$LG?$LA?$LD?$KK?$LE?Y?5?5?$AA@ ; `string'
PUBLIC	??_C@_0BB@JFLIPKGJ@L?$HMCHANGE?$HMQ?$HM?$CFd?$HM?$CFs?$AA@ ; `string'
PUBLIC	??_C@_0CA@FPBPENDN@?A?$LH?$MA?e?$MA?$LL?$CFs?$LP?$KB?$LA?T?5?$MA?$KH?$MA?S?G?O?$LN?C?$LA?Z?$LN?$MA?$LE?O?$LB?n?$KD?$LP?$AA@ ; `string'
PUBLIC	??_C@_0N@EPCBPGPN@?5?5?$LG?$LA?5?$LD?$KK?5?$LE?Y?5?5?$AA@ ; `string'
PUBLIC	??_C@_08PPLGHOJI@?5?5?$DP?5?5?$DP?5?5?$AA@	; `string'
PUBLIC	??_C@_0BD@FFDFGLPA@L?$HMCHANGE?$HMA?$HM0?$HM?$CFs?$HM?$CFd?$AA@ ; `string'
PUBLIC	??_C@_0BD@JJJPGLGO@L?$HMCHANGE?$HMA?$HM1?$HM?$CFs?$HM?$CFd?$AA@ ; `string'
PUBLIC	??_C@_0BM@JJMKEJNK@?$CFs?5?$LP?$KB?$LA?T?5?A?$LH?$MA?e?$MA?$LL?5?$MA?$KH?$MA?S?G?U?$LE?O?$LE?Y?$KD?$KM?$AA@ ; `string'
PUBLIC	??_C@_0BD@HPIFLCKK@?$LM?v?$LG?t?G?O?$LN?C?$LA?Z?$LN?$MA?$LE?O?$LB?n?$KD?$LP?$AA@ ; `string'
PUBLIC	??_C@_09KOHGDBKE@?5?5?$LA?E?5?$MA?$PN?5?5?$AA@	; `string'
PUBLIC	??_C@_0L@DJLGMOPM@?5?5?$LM?v?5?5?$LG?t?5?5?$AA@	; `string'
PUBLIC	??_C@_08KIHJGLGD@?$LA?$KB?A?$LH?A?$KE?$LK?$LI?$AA@ ; `string'
PUBLIC	??_C@_0N@EFFHHOOF@?$LA?$KB?A?$LH?$MA?L?$LI?$KH?$KD?$LK?$CFs?$AA@ ; `string'
PUBLIC	??_C@_0N@LNHPBKEN@?A?$LH?$MA?e?$MA?L?$LI?$KH?$KD?$LK?$CFs?$AA@ ; `string'
PUBLIC	??_C@_0N@DKIOHJKC@?$LA?$KB?A?$LH?$MA?N?$LP?x?$KD?$LK?$CFd?$AA@ ; `string'
PUBLIC	??_C@_0N@BCMFNKAE@?$LM?v?H?$KD?A?$KE?$LH?I?$KD?$LK?$CFs?$AA@ ; `string'
PUBLIC	??_C@_0N@CHGBLECB@?$LI?m?$LM?$LK?$LM?x?$MA?$KH?$KD?$LK?$CFd?$AA@ ; `string'
PUBLIC	??_C@_0N@HFHEMMCA@?$LA?$KB?A?$LH?$LI?m?$LM?$LK?$KD?$LK?$CFd?$AA@ ; `string'
PUBLIC	??_C@_0N@CJCMAAFH@?$LA?$KB?A?$LH?A?w?C?$KF?$KD?$LK?$CFs?$AA@ ; `string'
PUBLIC	??_C@_0N@FOIFMONB@?$LA?$LD?$MA?N?$LI?m?$LM?$LK?$KD?$LK?$CFd?$AA@ ; `string'
PUBLIC	??_C@_0N@NGKOILMK@?$LA?$KB?A?$LH?$LB?b?$LM?$LM?$KD?$LK?$CFd?$AA@ ; `string'
PUBLIC	??_C@_0N@PNFPIJDL@?$LA?$LD?$MA?N?$LB?b?$LM?$LM?$KD?$LK?$CFd?$AA@ ; `string'
PUBLIC	??_C@_0L@MCFCFIOA@?A?$KB?$LH?I?$LI?$LG?$MA?$LL?$KD?$LK?$AA@ ; `string'
PUBLIC	??_C@_0L@DOPLAOEB@?5?5?C?k?5?5?$LM?R?5?5?$AA@	; `string'
PUBLIC	??_C@_0L@NBALFHDN@1?$HM?$CFd?$HM?$CFs?$HM?$CFd?$AA@ ; `string'
PUBLIC	??_C@_0L@EIOJDBDM@2?$HM?$CFd?$HM?$CFs?$HM?$CFd?$AA@ ; `string'
PUBLIC	??_C@_03IFADCKOJ@?$CFd?$HM?$AA@			; `string'
PUBLIC	??_C@_06MCFCBINE@?$CFd?19?5?$DP?$AA@		; `string'
PUBLIC	??_C@_01LOCGONAA@?$AA?$AA@			; `string'
PUBLIC	??_C@_0BG@IHBEEPL@?5IceCloud?5go?5Shit?$CB?$CB?$CB?5?$AA@ ; `string'
PUBLIC	??_C@_0N@BPLMBEOA@?$DP?v?h?$NP?$KJ?$DP?5?$CFs?5?$KD?$LK?$AA@ ; `string'
PUBLIC	??_C@_09MEHCFAEH@?5?Z?K?$KB?$KB?$KB?$KB?$DP?5?$AA@ ; `string'
PUBLIC	??_C@_08NELLBCLM@?5?$DP?5?5?5?5?$DP?5?$AA@	; `string'
PUBLIC	??_C@_09NHGAGPIH@?5?$DP?5?5?5?5?l?Q?5?$AA@	; `string'
PUBLIC	??_C@_0L@OKNLNJFO@?5?v?$KC?$KB?$KB?$KB?$KB?a?$LM?5?$AA@ ; `string'
PUBLIC	??_C@_02JOGGLHBA@?2n?$AA@			; `string'
PUBLIC	??_C@_04JNNPBDKK@?K?$KD?$NL?$LA?$AA@		; `string'
PUBLIC	??_C@_04NFLPMLHN@?k?$OA?$NL?$LA?$AA@		; `string'
PUBLIC	??_C@_04NLDKAEJ@?$NM?$LA?$NL?$LA?$AA@		; `string'
PUBLIC	??_C@_04FHAMEFIC@?o?K?$NL?$LA?$AA@		; `string'
PUBLIC	??_C@_0M@EOHPHPFN@?$CFs?$KD?$LK?5?$CFs?5?5?$CFs?$AA@ ; `string'
PUBLIC	??_C@_0P@KIMCNEJC@?$CFs?$KD?$LK?5?5?5?n?$KE?s?$KO?$DP?Y?$KD?$AA@ ; `string'
PUBLIC	??_C@_0O@IJDIOBDJ@?$CFs?$KD?$LK?5?5?5?$DP?Z?$LB?$DP?Y?$KD?$AA@ ; `string'
PUBLIC	??_C@_05BCDBBDGC@?$DP?$KB?$KB?o?R?$AA@		; `string'
PUBLIC	??_C@_09OOIHKOPD@?X?$KB?$DP?l?m?$KD?$LK?$CFs?$AA@ ; `string'
PUBLIC	??_C@_06GJCJAMOC@?v?$KC?$KB?$KB?a?$LM?$AA@	; `string'
PUBLIC	??_C@_0O@IFIHGCPG@?5?$CF?910s?$CF?927s?$CFs?$AA@ ; `string'
PUBLIC	??_C@_0CP@FDBDKEML@?$KB?$KO?$LM?$KO?B?w?$KB?$KP?5?5?5?5?$KB?$KO?5?5?5?$MA?L?5?5?5?$LI?$KH?5?5?5?5?$KB?$KP?5?5@ ; `string'
PUBLIC	??_C@_0CC@JBOBCJOD@?$KD?$LN?$KD?$LN?$KD?$LN?5?5?5?5?5?5?$CFd?$LI?$LG?$LI?$KO?5?$LM?$LB?E?C?5?5?5?5?$KD?$LN?$KD?$LN?$KD@ ; `string'
PUBLIC	??_C@_0CI@LPGMCPCH@?$KD?$LN?$KD?$LN?$KD?$LN?5?5?5?5?5?5?$LA?a?A?$KE?G?O?$LM?K?$LN?$MA?$LE?O?$LB?n?$KD?$LP?5?5?5?5@ ; `string'
PUBLIC	??_C@_0P@DIJJDGHC@?$CFd?$HM?$CFd?$HM?$CFd?$HM?$CFd?$HM?$CFd?$AA@ ; `string'
PUBLIC	??_C@_06CALAJCAP@?$LK?N?$LI?$KD?$LE?Y?$AA@	; `string'
PUBLIC	??_C@_08FAALJAKG@?A?A?$LO?F?G?O?$LE?Y?$AA@	; `string'
PUBLIC	??_C@_03GKEDPABO@?$DP?$NM?Q?$AA@		; `string'
PUBLIC	??_C@_03MNGAGPGA@?c?S?$DP?$AA@			; `string'
PUBLIC	??_C@_04KHFBBOKF@?q?r?l?L?$AA@			; `string'
PUBLIC	??_C@_05POAOFMIF@LV?4?$CFd?$AA@			; `string'
PUBLIC	??_C@_08LBNAPDDE@MaxHP?5?$CFd?$AA@		; `string'
EXTRN	??_V@YAXPAX@Z:PROC				; operator delete[]
EXTRN	___report_rangecheckfailure:PROC
EXTRN	_memcpy:PROC
EXTRN	_memset:PROC
EXTRN	__imp__strstr:PROC
EXTRN	_strcat:PROC
EXTRN	_strcmp:PROC
EXTRN	_strcpy:PROC
EXTRN	_strlen:PROC
EXTRN	__imp__strncmp:PROC
EXTRN	__imp__strncpy:PROC
EXTRN	??_U@YAPAXIHPBDH@Z:PROC				; operator new[]
EXTRN	?TimeGetTime@@YAIXZ:PROC			; TimeGetTime
EXTRN	__imp__CloseHandle@4:PROC
EXTRN	__imp__Sleep@4:PROC
EXTRN	__imp__TerminateThread@8:PROC
EXTRN	__imp__wsprintfA:PROC
EXTRN	__imp__PostMessageA@16:PROC
EXTRN	__imp__SetWindowTextA@8:PROC
EXTRN	__imp__MultiByteToWideChar@24:PROC
EXTRN	__imp__WideCharToMultiByte@32:PROC
EXTRN	__imp__LCMapStringA@24:PROC
EXTRN	_closesocket@4:PROC
EXTRN	__imp__atoi:PROC
EXTRN	__imp__itoa:PROC
EXTRN	__imp____stdio_common_vsprintf:PROC
EXTRN	__imp____stdio_common_vsprintf_s:PROC
EXTRN	__imp____stdio_common_vsscanf:PROC
EXTRN	?PaletteChange@@YAXHH@Z:PROC			; PaletteChange
EXTRN	?ChangeProc@@YAXH@Z:PROC			; ChangeProc
EXTRN	?ChangeProc@@YAXHH@Z:PROC			; ChangeProc
EXTRN	?JL_@@YAHXZ:PROC		; JL_
EXTRN	?getStrSplitNew@@YAXQAY0BAA@D@Z:PROC		; getStrSplitNew
EXTRN	?sunday@@YAPADPAD0@Z:PROC			; sunday
EXTRN	?PutWinText@@YAXHHDHPADHH@Z:PROC		; PutWinText
EXTRN	?GetAction@@YAPAUaction@@EI@Z:PROC		; GetAction
EXTRN	?RunAction@@YAXXZ:PROC				; RunAction
EXTRN	?DeathAction@@YAXPAUaction@@@Z:PROC		; DeathAction
EXTRN	?DeathAllAction@@YAXXZ:PROC			; DeathAllAction
EXTRN	?StockDispBuffer@@YAHHHEHH@Z:PROC		; StockDispBuffer
EXTRN	?StockTaskDispBuffer@@YAXXZ:PROC		; StockTaskDispBuffer
EXTRN	?StockBoxDispBuffer@@YAXHHHHEHH@Z:PROC		; StockBoxDispBuffer
EXTRN	?StockChatBufferLine@@YAXPADEH@Z:PROC		; StockChatBufferLine
EXTRN	?GetStrLastByte@@YAHPAD@Z:PROC			; GetStrLastByte
EXTRN	?GetKeyInputFocus@@YAXPAUSTR_BUFFER@@@Z:PROC	; GetKeyInputFocus
EXTRN	?InitChat@@YAXXZ:PROC				; InitChat
EXTRN	?FlashKeyboardCursor@@YAXXZ:PROC		; FlashKeyboardCursor
EXTRN	?StrToNowStrBuffer@@YAXPAD@Z:PROC		; StrToNowStrBuffer
EXTRN	?StockFontBuffer@@YAHHHDHPADH@Z:PROC		; StockFontBuffer
EXTRN	?StockFontBufferExt@@YAHHHDHPADHH@Z:PROC	; StockFontBufferExt
EXTRN	?StockFontBuffer2@@YAXPAUSTR_BUFFER@@@Z:PROC	; StockFontBuffer2
EXTRN	?pattern@@YAHPAUaction@@HH@Z:PROC		; pattern
EXTRN	?initConnectServer@@YAXXZ:PROC			; initConnectServer
EXTRN	?connectServer@@YAHXZ:PROC			; connectServer
EXTRN	?charListStart@@YAXXZ:PROC			; charListStart
EXTRN	?charListProc@@YAHXZ:PROC			; charListProc
EXTRN	?charLoginStart@@YAXXZ:PROC			; charLoginStart
EXTRN	?charLoginProc@@YAHXZ:PROC			; charLoginProc
EXTRN	?createNewCharStart@@YAXXZ:PROC			; createNewCharStart
EXTRN	?createNewCharProc@@YAHXZ:PROC			; createNewCharProc
EXTRN	?charLogoutStart@@YAXXZ:PROC			; charLogoutStart
EXTRN	?charLogoutProc@@YAHXZ:PROC			; charLogoutProc
EXTRN	?delCharStart@@YAXXZ:PROC			; delCharStart
EXTRN	?delCharProc@@YAHXZ:PROC			; delCharProc
EXTRN	?initNet@@YAHXZ:PROC				; initNet
EXTRN	?cleanupNetwork@@YAXXZ:PROC			; cleanupNetwork
EXTRN	?resetPc@@YAXXZ:PROC				; resetPc
EXTRN	?existCharacterListEntry@@YAHH@Z:PROC		; existCharacterListEntry
EXTRN	?cmpNameCharacterList@@YAHPAD@Z:PROC		; cmpNameCharacterList
EXTRN	?resetCharacterList@@YAHH@Z:PROC		; resetCharacterList
EXTRN	?CHAR_getMaxHaveGold@@YAHXZ:PROC		; CHAR_getMaxHaveGold
EXTRN	?getStringToken@@YAHPADDHH0@Z:PROC		; getStringToken
EXTRN	?getIntegerToken@@YAHPADDH@Z:PROC		; getIntegerToken
EXTRN	?makeStringFromEscaped@@YAPADPAD@Z:PROC		; makeStringFromEscaped
EXTRN	?makeEscapeString@@YAPADPAD0H@Z:PROC		; makeEscapeString
EXTRN	?initCharObj@@YAXXZ:PROC			; initCharObj
EXTRN	?clearUserSetting@@YAXH@Z:PROC			; clearUserSetting
EXTRN	?saveNowState@@YAHXZ:PROC			; saveNowState
EXTRN	?GetImeString@@YAPADXZ:PROC			; GetImeString
EXTRN	?ShowBottomLineString@@YAXHPAD@Z:PROC		; ShowBottomLineString
EXTRN	?ImeProc@@YAXXZ:PROC				; ImeProc
EXTRN	?InitMenu@@YAXXZ:PROC				; InitMenu
EXTRN	?InitMenu2@@YAXXZ:PROC				; InitMenu2
EXTRN	?CheckMenuFlag@@YAHXZ:PROC			; CheckMenuFlag
EXTRN	?MakeWindowDisp@@YAPAUaction@@HHHHHH@Z:PROC	; MakeWindowDisp
EXTRN	?MakeHitBox@@YAHHHHHH@Z:PROC			; MakeHitBox
EXTRN	?MakeAnimDisp@@YAPAUaction@@HHHH@Z:PROC		; MakeAnimDisp
EXTRN	?play_se@@YAHHHH@Z:PROC				; play_se
EXTRN	?play_bgm@@YAHH@Z:PROC				; play_bgm
EXTRN	?fade_out_bgm@@YAXXZ:PROC			; fade_out_bgm
EXTRN	?lssproto_TK_recv@@YAXHHPADH@Z:PROC		; lssproto_TK_recv
EXTRN	?lssproto_WN_recv@@YAXHHHHHPAD@Z:PROC		; lssproto_WN_recv
EXTRN	?lssproto_WN_send@@YAXHHHHHHPAD@Z:PROC		; lssproto_WN_send
EXTRN	?lssproto_CharLogout_send@@YAXHH@Z:PROC		; lssproto_CharLogout_send
EXTRN	?lssproto_FM_send@@YAXHPAD@Z:PROC		; lssproto_FM_send
EXTRN	?old_lssproto_WN_send@@YAXHHHHHHPAD@Z:PROC	; old_lssproto_WN_send
EXTRN	?old_lssproto_FM_send@@YAXHPAD@Z:PROC		; old_lssproto_FM_send
EXTRN	__imp___time64:PROC
EXTRN	?initFieldProc@@YAXXZ:PROC			; initFieldProc
EXTRN	?closeCharActionAnimeChange@@YAXXZ:PROC		; closeCharActionAnimeChange
EXTRN	?closeEtcSwitch@@YAXXZ:PROC			; closeEtcSwitch
EXTRN	?closeJoinChannelWN@@YAXXZ:PROC			; closeJoinChannelWN
EXTRN	?ReleaseSpecAnim@@YAXXZ:PROC			; ReleaseSpecAnim
EXTRN	?CopyBackBuffer@@YAXXZ:PROC			; CopyBackBuffer
EXTRN	?DrawProduce@@YAHH@Z:PROC			; DrawProduce
EXTRN	?ecb_crypt@@YAHPAD0II@Z:PROC			; ecb_crypt
EXTRN	?FindWinIntLua@@YAPAUlua_State@@HPAD@Z:PROC	; FindWinIntLua
EXTRN	?FreeCreateWinTypeLua@@YAPAUaction@@PAUlua_State@@@Z:PROC ; FreeCreateWinTypeLua
EXTRN	?FreeServerWinTypeLua@@YAPAUaction@@PAUlua_State@@@Z:PROC ; FreeServerWinTypeLua
EXTRN	?JL_Get_UsernameAndPassword@@YAXPAD0@Z:PROC	; JL_Get_UsernameAndPassword
EXTRN	?SkyIslandRelease@@YAXXZ:PROC			; SkyIslandRelease
EXTRN	?AniRandomRelease@@YAXXZ:PROC			; AniRandomRelease
EXTRN	?crossAniRelease@@YAXXZ:PROC			; crossAniRelease
EXTRN	?CharbubbleRelease@@YAXXZ:PROC			; CharbubbleRelease
EXTRN	?ImmobileAniRelease@@YAXXZ:PROC			; ImmobileAniRelease
EXTRN	@_RTC_CheckStackVars@8:PROC
EXTRN	@__security_check_cookie@4:PROC
EXTRN	__RTC_CheckEsp:PROC
EXTRN	__RTC_InitBase:PROC
EXTRN	__RTC_Shutdown:PROC
EXTRN	__RTC_UninitUse:PROC
EXTRN	__chkstk:PROC
EXTRN	_memset:PROC
EXTRN	?DISPLACEMENT_X@@3HA:DWORD			; DISPLACEMENT_X
EXTRN	?DISPLACEMENT_Y@@3HA:DWORD			; DISPLACEMENT_Y
EXTRN	?lpDraw@@3PAUDIRECT_DRAW@@A:DWORD		; lpDraw
EXTRN	?BackBufferDrawType@@3HA:DWORD			; BackBufferDrawType
EXTRN	?hWnd@@3PAUHWND__@@A:DWORD			; hWnd
EXTRN	?ResoMode@@3HA:DWORD				; ResoMode
EXTRN	?gmsv@@3PAUgameserver@@A:BYTE			; gmsv
EXTRN	?gmgroup@@3PAUgamegroup@@A:BYTE			; gmgroup
EXTRN	?NowTime@@3KA:DWORD				; NowTime
EXTRN	?SubProcNo@@3IA:DWORD				; SubProcNo
EXTRN	?joy_con@@3PAKA:QWORD				; joy_con
EXTRN	?joy_trg@@3PAKA:QWORD				; joy_trg
EXTRN	?joy_auto@@3PAKA:QWORD				; joy_auto
EXTRN	?pNowStrBuffer@@3PAUSTR_BUFFER@@A:DWORD		; pNowStrBuffer
EXTRN	?MyChatBuffer@@3USTR_BUFFER@@A:BYTE		; MyChatBuffer
EXTRN	?mouse@@3UMOUSE@@A:BYTE				; mouse
EXTRN	?HitFontNo@@3HA:DWORD				; HitFontNo
EXTRN	?HitDispNo@@3HA:DWORD				; HitDispNo
EXTRN	?BoxColor@@3HA:DWORD				; BoxColor
EXTRN	?selectServerIndex@@3FA:WORD			; selectServerIndex
EXTRN	?gamestate_login_charname@@3PADA:BYTE		; gamestate_login_charname
EXTRN	?gamestate_deletechar_charname@@3PADA:BYTE	; gamestate_deletechar_charname
EXTRN	?netprocErrmsg@@3PADA:BYTE			; netprocErrmsg
EXTRN	?sockfd@@3IA:DWORD				; sockfd
EXTRN	?disconnectServerFlag@@3HA:DWORD		; disconnectServerFlag
EXTRN	?pc@@3UPC@@A:BYTE				; pc
EXTRN	?maxPcNo@@3FA:WORD				; maxPcNo
EXTRN	?selectPcNo@@3FA:WORD				; selectPcNo
EXTRN	?loginDp@@3HA:DWORD				; loginDp
EXTRN	?pet@@3PAUPET@@A:BYTE				; pet
EXTRN	?party@@3PAUPARTY@@A:BYTE			; party
EXTRN	?partyModeFlag@@3FA:WORD			; partyModeFlag
EXTRN	?petSkill@@3PAY06UPET_SKILL@@A:BYTE		; petSkill
EXTRN	?chartable@@3PAUCHARLISTTABLE@@A:BYTE		; chartable
EXTRN	?newCharacterName@@3PADA:BYTE			; newCharacterName
EXTRN	?newCharacterGraNo@@3HA:DWORD			; newCharacterGraNo
EXTRN	?newCharacterFaceGraNo@@3HA:DWORD		; newCharacterFaceGraNo
EXTRN	?newCharacterVit@@3HA:DWORD			; newCharacterVit
EXTRN	?newCharacterStr@@3HA:DWORD			; newCharacterStr
EXTRN	?newCharacterTgh@@3HA:DWORD			; newCharacterTgh
EXTRN	?newCharacterDex@@3HA:DWORD			; newCharacterDex
EXTRN	?newCharacterEarth@@3HA:DWORD			; newCharacterEarth
EXTRN	?newCharacterWater@@3HA:DWORD			; newCharacterWater
EXTRN	?newCharacterFire@@3HA:DWORD			; newCharacterFire
EXTRN	?newCharacterWind@@3HA:DWORD			; newCharacterWind
EXTRN	?newCharacterHomeTown@@3HA:DWORD		; newCharacterHomeTown
EXTRN	?sCharSide@@3HA:DWORD				; sCharSide
EXTRN	?TalkMode@@3HA:DWORD				; TalkMode
EXTRN	?secretName@@3PADA:BYTE				; secretName
EXTRN	?map_bgm_no@@3HA:DWORD				; map_bgm_no
EXTRN	?nowGx@@3HA:DWORD				; nowGx
EXTRN	?nowGy@@3HA:DWORD				; nowGy
EXTRN	?bNewServer@@3HA:DWORD				; bNewServer
EXTRN	?angelFlag@@3HA:DWORD				; angelFlag
EXTRN	?angelRecvType@@3HA:DWORD			; angelRecvType
EXTRN	?angelRecvButton@@3HA:DWORD			; angelRecvButton
EXTRN	?angelMsg@@3PADA:BYTE				; angelMsg
EXTRN	?actBtn@@3FA:WORD				; actBtn
EXTRN	?menuBtn@@3FA:WORD				; menuBtn
EXTRN	?CG_COMMON_WIN_YORO@@3HA:DWORD			; CG_COMMON_WIN_YORO
EXTRN	?CG_ITEMSHOP_WIN@@3HA:DWORD			; CG_ITEMSHOP_WIN
EXTRN	?CG_SKILLSHOP_WIN@@3HA:DWORD			; CG_SKILLSHOP_WIN
EXTRN	?CG_ITEMSHOP_KOSU_WIN@@3HA:DWORD		; CG_ITEMSHOP_KOSU_WIN
EXTRN	?CG_FAMILY_DETAIL_WIN@@3HA:DWORD		; CG_FAMILY_DETAIL_WIN
EXTRN	?ProduceInitFlag@@3HA:DWORD			; ProduceInitFlag
EXTRN	?dwServer@@3KA:DWORD				; dwServer
EXTRN	?iWGS@@3HA:DWORD				; iWGS
EXTRN	?szError@@3PADA:BYTE				; szError
EXTRN	?PcLanded@@3ULanded@@A:BYTE			; PcLanded
EXTRN	?isWGS7@@3HA:DWORD				; isWGS7
EXTRN	?hPing@@3PAXA:DWORD				; hPing
EXTRN	?sockRaw@@3IA:DWORD				; sockRaw
EXTRN	?@@3HA:DWORD			; 
EXTRN	?@@3HA:DWORD			; 
EXTRN	?szAnnouncement@@3PADA:BYTE			; szAnnouncement
EXTRN	?@@3HA:DWORD				; 
EXTRN	?@@3HA:DWORD				; 
EXTRN	?@@3HA:DWORD			; 
EXTRN	?@@3HA:DWORD				; 
EXTRN	?@@3HA:DWORD				; 
EXTRN	?@@3HA:DWORD			; 
EXTRN	?@@3HA:DWORD			; 
EXTRN	?@@3HA:DWORD				; 
EXTRN	?@@3HA:DWORD			; 
EXTRN	?@@3HA:DWORD			; 
EXTRN	?AI@@3HA:DWORD			; AI
EXTRN	?@@3HA:DWORD			; 
EXTRN	?@@3HA:DWORD			; 
EXTRN	?@@3HA:DWORD			; 
EXTRN	?_1@@3HA:DWORD			; _1
EXTRN	?systemWndNo@@3IA:DWORD				; systemWndNo
EXTRN	___security_cookie:DWORD
;	COMDAT ?_OptionsStorage@?1??__local_stdio_printf_options@@9@4_KA
_BSS	SEGMENT
?_OptionsStorage@?1??__local_stdio_printf_options@@9@4_KA DQ 01H DUP (?) ; `__local_stdio_printf_options'::`2'::_OptionsStorage
_BSS	ENDS
;	COMDAT ?_OptionsStorage@?1??__local_stdio_scanf_options@@9@4_KA
_BSS	SEGMENT
?_OptionsStorage@?1??__local_stdio_scanf_options@@9@4_KA DQ 01H DUP (?) ; `__local_stdio_scanf_options'::`2'::_OptionsStorage
_BSS	ENDS
_BSS	SEGMENT
?selCharGraColorWinProcNo@@3HA DD 01H DUP (?)		; selCharGraColorWinProcNo
?idKeyBoxX@@3FA DW 01H DUP (?)				; idKeyBoxX
	ALIGN	4

?idKeyBoxY@@3FA DW 01H DUP (?)				; idKeyBoxY
	ALIGN	4

?passwdBoxX@@3FA DW 01H DUP (?)				; passwdBoxX
	ALIGN	4

?passwdBoxY@@3FA DW 01H DUP (?)				; passwdBoxY
	ALIGN	4

?x@?1??idPasswordProc@@YAXXZ@4HA DD 01H DUP (?)		; `idPasswordProc'::`2'::x
?y@?1??idPasswordProc@@YAXXZ@4HA DD 01H DUP (?)		; `idPasswordProc'::`2'::y
?w@?1??idPasswordProc@@YAXXZ@4HA DD 01H DUP (?)		; `idPasswordProc'::`2'::w
?h@?1??idPasswordProc@@YAXXZ@4HA DD 01H DUP (?)		; `idPasswordProc'::`2'::h
?msg@?1??idPasswordProc@@YAXXZ@4PADA DB 0100H DUP (?)	; `idPasswordProc'::`2'::msg
?x@?1??commonMsgWin@@YAHPAD@Z@4HA DD 01H DUP (?)	; `commonMsgWin'::`2'::x
?y@?1??commonMsgWin@@YAHPAD@Z@4HA DD 01H DUP (?)	; `commonMsgWin'::`2'::y
?w@?1??commonMsgWin@@YAHPAD@Z@4HA DD 01H DUP (?)	; `commonMsgWin'::`2'::w
?h@?1??commonMsgWin@@YAHPAD@Z@4HA DD 01H DUP (?)	; `commonMsgWin'::`2'::h
?msg@?1??titleProc@@YAXXZ@4PADA DB 0100H DUP (?)	; `titleProc'::`2'::msg
?x@?1??selectGroup@@YAHXZ@4HA DD 01H DUP (?)		; `selectGroup'::`2'::x
?y@?1??selectGroup@@YAHXZ@4HA DD 01H DUP (?)		; `selectGroup'::`2'::y
?x@?1??selectServer@@YAHXZ@4HA DD 01H DUP (?)		; `selectServer'::`2'::x
?y@?1??selectServer@@YAHXZ@4HA DD 01H DUP (?)		; `selectServer'::`2'::y
?x@?1??connecGameServer@@YAHXZ@4HA DD 01H DUP (?)	; `connecGameServer'::`2'::x
?y@?1??connecGameServer@@YAHXZ@4HA DD 01H DUP (?)	; `connecGameServer'::`2'::y
?w@?1??connecGameServer@@YAHXZ@4HA DD 01H DUP (?)	; `connecGameServer'::`2'::w
?h@?1??connecGameServer@@YAHXZ@4HA DD 01H DUP (?)	; `connecGameServer'::`2'::h
?msg@?1??connecGameServer@@YAHXZ@4PADA DB 0100H DUP (?)	; `connecGameServer'::`2'::msg
?msg@?1??selectCharacterProc@@YAXXZ@4PADA DB 0100H DUP (?) ; `selectCharacterProc'::`2'::msg
?x@?1??deleteCharacter@@YAHXZ@4HA DD 01H DUP (?)	; `deleteCharacter'::`2'::x
?y@?1??deleteCharacter@@YAHXZ@4HA DD 01H DUP (?)	; `deleteCharacter'::`2'::y
?w@?1??deleteCharacter@@YAHXZ@4HA DD 01H DUP (?)	; `deleteCharacter'::`2'::w
?h@?1??deleteCharacter@@YAHXZ@4HA DD 01H DUP (?)	; `deleteCharacter'::`2'::h
?x@?1??downloadCharList@@YAHXZ@4HA DD 01H DUP (?)	; `downloadCharList'::`2'::x
?y@?1??downloadCharList@@YAHXZ@4HA DD 01H DUP (?)	; `downloadCharList'::`2'::y
?w@?1??downloadCharList@@YAHXZ@4HA DD 01H DUP (?)	; `downloadCharList'::`2'::w
?h@?1??downloadCharList@@YAHXZ@4HA DD 01H DUP (?)	; `downloadCharList'::`2'::h
?msg@?1??downloadCharList@@YAHXZ@4PADA DB 0100H DUP (?)	; `downloadCharList'::`2'::msg
?ptActSelChar@@3PAPAUaction@@A DD 0cH DUP (?)		; ptActSelChar
?selCharColor@@3PAHA DD 0cH DUP (?)			; selCharColor
?selCharDir@@3PAHA DD 0cH DUP (?)			; selCharDir
?selCharGraNoProcNo@@3HA DD 01H DUP (?)			; selCharGraNoProcNo
?nowSelCharGraNo@@3HA DD 01H DUP (?)			; nowSelCharGraNo
?nowSelCharMouthNo@@3HA DD 01H DUP (?)			; nowSelCharMouthNo
?nowSelCharEyeNo@@3HA DD 01H DUP (?)			; nowSelCharEyeNo
?nowSelCharStatusPoint@@3HA DD 01H DUP (?)		; nowSelCharStatusPoint
?nowSelCharStatus@@3PAHA DD 04H DUP (?)			; nowSelCharStatus
?nowSelCharAttrPoint@@3HA DD 01H DUP (?)		; nowSelCharAttrPoint
?nowSelCharAttr@@3PAHA DD 04H DUP (?)			; nowSelCharAttr
?editCharParamProcNo@@3HA DD 01H DUP (?)		; editCharParamProcNo
?selCharNameBoxX@@3HA DD 01H DUP (?)			; selCharNameBoxX
?selCharNameBoxY@@3HA DD 01H DUP (?)			; selCharNameBoxY
?selHomeTownProcNo@@3HA DD 01H DUP (?)			; selHomeTownProcNo
?nowSelHomeTownNo@@3HA DD 01H DUP (?)			; nowSelHomeTownNo
?createCharProcNo@@3HA DD 01H DUP (?)			; createCharProcNo
?x@?1??selCharGraColorWin@@YAHXZ@4HA DD 01H DUP (?)	; `selCharGraColorWin'::`2'::x
?y@?1??selCharGraColorWin@@YAHXZ@4HA DD 01H DUP (?)	; `selCharGraColorWin'::`2'::y
?w@?1??selCharGraColorWin@@YAHXZ@4HA DD 01H DUP (?)	; `selCharGraColorWin'::`2'::w
?h@?1??selCharGraColorWin@@YAHXZ@4HA DD 01H DUP (?)	; `selCharGraColorWin'::`2'::h
?x@?1??createChar@@YAHXZ@4HA DD 01H DUP (?)		; `createChar'::`2'::x
?y@?1??createChar@@YAHXZ@4HA DD 01H DUP (?)		; `createChar'::`2'::y
?w@?1??createChar@@YAHXZ@4HA DD 01H DUP (?)		; `createChar'::`2'::w
?h@?1??createChar@@YAHXZ@4HA DD 01H DUP (?)		; `createChar'::`2'::h
?msg@?1??characterLoginProc@@YAXXZ@4PADA DB 0100H DUP (?) ; `characterLoginProc'::`2'::msg
?x@?1??charLogin@@YAHXZ@4HA DD 01H DUP (?)		; `charLogin'::`2'::x
?y@?1??charLogin@@YAHXZ@4HA DD 01H DUP (?)		; `charLogin'::`2'::y
?w@?1??charLogin@@YAHXZ@4HA DD 01H DUP (?)		; `charLogin'::`2'::w
?h@?1??charLogin@@YAHXZ@4HA DD 01H DUP (?)		; `charLogin'::`2'::h
?msg@?1??characterLogoutProc@@YAXXZ@4PADA DB 0100H DUP (?) ; `characterLogoutProc'::`2'::msg
?charLogoutProcNo@@3HA DD 01H DUP (?)			; charLogoutProcNo
?x@?1??charLogout@@YAHXZ@4HA DD 01H DUP (?)		; `charLogout'::`2'::x
?y@?1??charLogout@@YAHXZ@4HA DD 01H DUP (?)		; `charLogout'::`2'::y
?w@?1??charLogout@@YAHXZ@4HA DD 01H DUP (?)		; `charLogout'::`2'::w
?h@?1??charLogout@@YAHXZ@4HA DD 01H DUP (?)		; `charLogout'::`2'::h
?winX@?1??serverWindowType0@@YAXH@Z@4HA DD 01H DUP (?)	; `serverWindowType0'::`2'::winX
?winY@?1??serverWindowType0@@YAXH@Z@4HA DD 01H DUP (?)	; `serverWindowType0'::`2'::winY
?winW@?1??serverWindowType0@@YAXH@Z@4HA DD 01H DUP (?)	; `serverWindowType0'::`2'::winW
?winH@?1??serverWindowType0@@YAXH@Z@4HA DD 01H DUP (?)	; `serverWindowType0'::`2'::winH
?btnLoc@?1??serverWindowType0@@YAXH@Z@4PAY01HA DD 0cH DUP (?) ; `serverWindowType0'::`2'::btnLoc
?btnCnt@?1??serverWindowType0@@YAXH@Z@4HA DD 01H DUP (?) ; `serverWindowType0'::`2'::btnCnt
?msgLine@?1??serverWindowType0@@YAXH@Z@4HA DD 01H DUP (?) ; `serverWindowType0'::`2'::msgLine
?input@?1??serverWindowType0@@YAXH@Z@4USTR_BUFFER@@A DB 0128H DUP (?) ; `serverWindowType0'::`2'::input
?totalMsgLine@?1??serverWindowType0@@YAXH@Z@4HA DD 01H DUP (?) ; `serverWindowType0'::`2'::totalMsgLine
?lineSkip@?1??serverWindowType0@@YAXH@Z@4HA DD 01H DUP (?) ; `serverWindowType0'::`2'::lineSkip
?winX@?1??serverWindowType1@@YAXXZ@4HA DD 01H DUP (?)	; `serverWindowType1'::`2'::winX
?winY@?1??serverWindowType1@@YAXXZ@4HA DD 01H DUP (?)	; `serverWindowType1'::`2'::winY
?winW@?1??serverWindowType1@@YAXXZ@4HA DD 01H DUP (?)	; `serverWindowType1'::`2'::winW
?winH@?1??serverWindowType1@@YAXXZ@4HA DD 01H DUP (?)	; `serverWindowType1'::`2'::winH
?btnLoc@?1??serverWindowType1@@YAXXZ@4PAY01HA DD 0cH DUP (?) ; `serverWindowType1'::`2'::btnLoc
?btnCnt@?1??serverWindowType1@@YAXXZ@4HA DD 01H DUP (?)	; `serverWindowType1'::`2'::btnCnt
?msgLine@?1??serverWindowType1@@YAXXZ@4HA DD 01H DUP (?) ; `serverWindowType1'::`2'::msgLine
?winX@?1??serverWindowType2@@YAXXZ@4HA DD 01H DUP (?)	; `serverWindowType2'::`2'::winX
?winY@?1??serverWindowType2@@YAXXZ@4HA DD 01H DUP (?)	; `serverWindowType2'::`2'::winY
?winW@?1??serverWindowType2@@YAXXZ@4HA DD 01H DUP (?)	; `serverWindowType2'::`2'::winW
?winH@?1??serverWindowType2@@YAXXZ@4HA DD 01H DUP (?)	; `serverWindowType2'::`2'::winH
?btnLoc@?1??serverWindowType2@@YAXXZ@4PAY01HA DD 0cH DUP (?) ; `serverWindowType2'::`2'::btnLoc
?btnCnt@?1??serverWindowType2@@YAXXZ@4HA DD 01H DUP (?)	; `serverWindowType2'::`2'::btnCnt
?winX@?1??serverWindowType3@@YAXXZ@4HA DD 01H DUP (?)	; `serverWindowType3'::`2'::winX
?winY@?1??serverWindowType3@@YAXXZ@4HA DD 01H DUP (?)	; `serverWindowType3'::`2'::winY
?winW@?1??serverWindowType3@@YAXXZ@4HA DD 01H DUP (?)	; `serverWindowType3'::`2'::winW
?winH@?1??serverWindowType3@@YAXXZ@4HA DD 01H DUP (?)	; `serverWindowType3'::`2'::winH
?btnLoc@?1??serverWindowType3@@YAXXZ@4PAY01HA DD 0cH DUP (?) ; `serverWindowType3'::`2'::btnLoc
?btnCnt@?1??serverWindowType3@@YAXXZ@4HA DD 01H DUP (?)	; `serverWindowType3'::`2'::btnCnt
?winX@?1??serverWindowType4@@YAXXZ@4HA DD 01H DUP (?)	; `serverWindowType4'::`2'::winX
?winY@?1??serverWindowType4@@YAXXZ@4HA DD 01H DUP (?)	; `serverWindowType4'::`2'::winY
?winW@?1??serverWindowType4@@YAXXZ@4HA DD 01H DUP (?)	; `serverWindowType4'::`2'::winW
?winH@?1??serverWindowType4@@YAXXZ@4HA DD 01H DUP (?)	; `serverWindowType4'::`2'::winH
?btnLoc@?1??serverWindowType4@@YAXXZ@4PAY01HA DD 0cH DUP (?) ; `serverWindowType4'::`2'::btnLoc
?btnCnt@?1??serverWindowType4@@YAXXZ@4HA DD 01H DUP (?)	; `serverWindowType4'::`2'::btnCnt
?winX@?1??serverWindowType9@@YAXXZ@4HA DD 01H DUP (?)	; `serverWindowType9'::`2'::winX
?winY@?1??serverWindowType9@@YAXXZ@4HA DD 01H DUP (?)	; `serverWindowType9'::`2'::winY
?winW@?1??serverWindowType9@@YAXXZ@4HA DD 01H DUP (?)	; `serverWindowType9'::`2'::winW
?winH@?1??serverWindowType9@@YAXXZ@4HA DD 01H DUP (?)	; `serverWindowType9'::`2'::winH
?btnLoc@?1??serverWindowType9@@YAXXZ@4PAY01HA DD 0cH DUP (?) ; `serverWindowType9'::`2'::btnLoc
?btnCnt@?1??serverWindowType9@@YAXXZ@4HA DD 01H DUP (?)	; `serverWindowType9'::`2'::btnCnt
?x@?1??shopWindow1@@YAHXZ@4HA DD 01H DUP (?)		; `shopWindow1'::`2'::x
?y@?1??shopWindow1@@YAHXZ@4HA DD 01H DUP (?)		; `shopWindow1'::`2'::y
?w@?1??shopWindow1@@YAHXZ@4HA DD 01H DUP (?)		; `shopWindow1'::`2'::w
?h@?1??shopWindow1@@YAHXZ@4HA DD 01H DUP (?)		; `shopWindow1'::`2'::h
?btnId@?1??shopWindow1@@YAHXZ@4PAHA DD 03H DUP (?)	; `shopWindow1'::`2'::btnId
?x@?1??shopWindow2@@YAHXZ@4HA DD 01H DUP (?)		; `shopWindow2'::`2'::x
?y@?1??shopWindow2@@YAHXZ@4HA DD 01H DUP (?)		; `shopWindow2'::`2'::y
?w@?1??shopWindow2@@YAHXZ@4HA DD 01H DUP (?)		; `shopWindow2'::`2'::w
?h@?1??shopWindow2@@YAHXZ@4HA DD 01H DUP (?)		; `shopWindow2'::`2'::h
?btnId@?1??shopWindow2@@YAHXZ@4PAHA DD 03H DUP (?)	; `shopWindow2'::`2'::btnId
?x@?1??shopWindow3@@YAHXZ@4HA DD 01H DUP (?)		; `shopWindow3'::`2'::x
?y@?1??shopWindow3@@YAHXZ@4HA DD 01H DUP (?)		; `shopWindow3'::`2'::y
?w@?1??shopWindow3@@YAHXZ@4HA DD 01H DUP (?)		; `shopWindow3'::`2'::w
?h@?1??shopWindow3@@YAHXZ@4HA DD 01H DUP (?)		; `shopWindow3'::`2'::h
?btnId@?1??shopWindow3@@YAHXZ@4PAHA DD 04H DUP (?)	; `shopWindow3'::`2'::btnId
?x@?1??shopWindow4@@YAHXZ@4HA DD 01H DUP (?)		; `shopWindow4'::`2'::x
?y@?1??shopWindow4@@YAHXZ@4HA DD 01H DUP (?)		; `shopWindow4'::`2'::y
?w@?1??shopWindow4@@YAHXZ@4HA DD 01H DUP (?)		; `shopWindow4'::`2'::w
?h@?1??shopWindow4@@YAHXZ@4HA DD 01H DUP (?)		; `shopWindow4'::`2'::h
?btnId@?1??shopWindow4@@YAHXZ@4PAHA DD 02H DUP (?)	; `shopWindow4'::`2'::btnId
?x@?1??shopWindow5@@YAHXZ@4HA DD 01H DUP (?)		; `shopWindow5'::`2'::x
?y@?1??shopWindow5@@YAHXZ@4HA DD 01H DUP (?)		; `shopWindow5'::`2'::y
?w@?1??shopWindow5@@YAHXZ@4HA DD 01H DUP (?)		; `shopWindow5'::`2'::w
?h@?1??shopWindow5@@YAHXZ@4HA DD 01H DUP (?)		; `shopWindow5'::`2'::h
?btnId@?1??shopWindow5@@YAHXZ@4PAHA DD 02H DUP (?)	; `shopWindow5'::`2'::btnId
?x@?1??shopWindow6@@YAHXZ@4HA DD 01H DUP (?)		; `shopWindow6'::`2'::x
?y@?1??shopWindow6@@YAHXZ@4HA DD 01H DUP (?)		; `shopWindow6'::`2'::y
?w@?1??shopWindow6@@YAHXZ@4HA DD 01H DUP (?)		; `shopWindow6'::`2'::w
?h@?1??shopWindow6@@YAHXZ@4HA DD 01H DUP (?)		; `shopWindow6'::`2'::h
?btnId@?1??shopWindow6@@YAHXZ@4PAHA DD 01H DUP (?)	; `shopWindow6'::`2'::btnId
?x@?1??shopWindow7@@YAHXZ@4HA DD 01H DUP (?)		; `shopWindow7'::`2'::x
?y@?1??shopWindow7@@YAHXZ@4HA DD 01H DUP (?)		; `shopWindow7'::`2'::y
?w@?1??shopWindow7@@YAHXZ@4HA DD 01H DUP (?)		; `shopWindow7'::`2'::w
?h@?1??shopWindow7@@YAHXZ@4HA DD 01H DUP (?)		; `shopWindow7'::`2'::h
?btnId@?1??shopWindow7@@YAHXZ@4PAHA DD 03H DUP (?)	; `shopWindow7'::`2'::btnId
?x@?1??shopWindow8@@YAHXZ@4HA DD 01H DUP (?)		; `shopWindow8'::`2'::x
?y@?1??shopWindow8@@YAHXZ@4HA DD 01H DUP (?)		; `shopWindow8'::`2'::y
?w@?1??shopWindow8@@YAHXZ@4HA DD 01H DUP (?)		; `shopWindow8'::`2'::w
?h@?1??shopWindow8@@YAHXZ@4HA DD 01H DUP (?)		; `shopWindow8'::`2'::h
?btnId@?1??shopWindow8@@YAHXZ@4PAHA DD 01H DUP (?)	; `shopWindow8'::`2'::btnId
?x@?1??shopWindow10@@YAHXZ@4HA DD 01H DUP (?)		; `shopWindow10'::`2'::x
?y@?1??shopWindow10@@YAHXZ@4HA DD 01H DUP (?)		; `shopWindow10'::`2'::y
?w@?1??shopWindow10@@YAHXZ@4HA DD 01H DUP (?)		; `shopWindow10'::`2'::w
?h@?1??shopWindow10@@YAHXZ@4HA DD 01H DUP (?)		; `shopWindow10'::`2'::h
?btnId@?1??shopWindow10@@YAHXZ@4PAHA DD 04H DUP (?)	; `shopWindow10'::`2'::btnId
?x@?1??profession_windows_1@@YAHXZ@4HA DD 01H DUP (?)	; `profession_windows_1'::`2'::x
?y@?1??profession_windows_1@@YAHXZ@4HA DD 01H DUP (?)	; `profession_windows_1'::`2'::y
?w@?1??profession_windows_1@@YAHXZ@4HA DD 01H DUP (?)	; `profession_windows_1'::`2'::w
?h@?1??profession_windows_1@@YAHXZ@4HA DD 01H DUP (?)	; `profession_windows_1'::`2'::h
?btnId@?1??profession_windows_1@@YAHXZ@4PAHA DD 03H DUP (?) ; `profession_windows_1'::`2'::btnId
?x@?1??profession_windows_2@@YAHXZ@4HA DD 01H DUP (?)	; `profession_windows_2'::`2'::x
?y@?1??profession_windows_2@@YAHXZ@4HA DD 01H DUP (?)	; `profession_windows_2'::`2'::y
?w@?1??profession_windows_2@@YAHXZ@4HA DD 01H DUP (?)	; `profession_windows_2'::`2'::w
?h@?1??profession_windows_2@@YAHXZ@4HA DD 01H DUP (?)	; `profession_windows_2'::`2'::h
?btnId@?1??profession_windows_2@@YAHXZ@4PAHA DD 02H DUP (?) ; `profession_windows_2'::`2'::btnId
?msg1@?1??profession_windows_2@@YAHXZ@4PADA DB 080H DUP (?) ; `profession_windows_2'::`2'::msg1
?x@?1??PetSkillShowType1@@YAXXZ@4HA DD 01H DUP (?)	; `PetSkillShowType1'::`2'::x
?y@?1??PetSkillShowType1@@YAXXZ@4HA DD 01H DUP (?)	; `PetSkillShowType1'::`2'::y
?w@?1??PetSkillShowType1@@YAXXZ@4HA DD 01H DUP (?)	; `PetSkillShowType1'::`2'::w
?h@?1??PetSkillShowType1@@YAXXZ@4HA DD 01H DUP (?)	; `PetSkillShowType1'::`2'::h
?btnId@?1??PetSkillShowType1@@YAXXZ@4PAHA DD 01H DUP (?) ; `PetSkillShowType1'::`2'::btnId
?x@?1??skillShopWindow1@@YAHXZ@4HA DD 01H DUP (?)	; `skillShopWindow1'::`2'::x
?y@?1??skillShopWindow1@@YAHXZ@4HA DD 01H DUP (?)	; `skillShopWindow1'::`2'::y
?w@?1??skillShopWindow1@@YAHXZ@4HA DD 01H DUP (?)	; `skillShopWindow1'::`2'::w
?h@?1??skillShopWindow1@@YAHXZ@4HA DD 01H DUP (?)	; `skillShopWindow1'::`2'::h
?btnId@?1??skillShopWindow1@@YAHXZ@4PAHA DD 03H DUP (?)	; `skillShopWindow1'::`2'::btnId
?x@?1??skillShopWindow2@@YAHXZ@4HA DD 01H DUP (?)	; `skillShopWindow2'::`2'::x
?y@?1??skillShopWindow2@@YAHXZ@4HA DD 01H DUP (?)	; `skillShopWindow2'::`2'::y
?w@?1??skillShopWindow2@@YAHXZ@4HA DD 01H DUP (?)	; `skillShopWindow2'::`2'::w
?h@?1??skillShopWindow2@@YAHXZ@4HA DD 01H DUP (?)	; `skillShopWindow2'::`2'::h
?btnId@?1??skillShopWindow2@@YAHXZ@4PAHA DD 01H DUP (?)	; `skillShopWindow2'::`2'::btnId
?x@?1??skillShopWindow3@@YAHXZ@4HA DD 01H DUP (?)	; `skillShopWindow3'::`2'::x
?y@?1??skillShopWindow3@@YAHXZ@4HA DD 01H DUP (?)	; `skillShopWindow3'::`2'::y
?w@?1??skillShopWindow3@@YAHXZ@4HA DD 01H DUP (?)	; `skillShopWindow3'::`2'::w
?h@?1??skillShopWindow3@@YAHXZ@4HA DD 01H DUP (?)	; `skillShopWindow3'::`2'::h
?btnId@?1??skillShopWindow3@@YAHXZ@4PAHA DD 01H DUP (?)	; `skillShopWindow3'::`2'::btnId
?x@?1??skillShopWindow4@@YAHXZ@4HA DD 01H DUP (?)	; `skillShopWindow4'::`2'::x
?y@?1??skillShopWindow4@@YAHXZ@4HA DD 01H DUP (?)	; `skillShopWindow4'::`2'::y
?w@?1??skillShopWindow4@@YAHXZ@4HA DD 01H DUP (?)	; `skillShopWindow4'::`2'::w
?h@?1??skillShopWindow4@@YAHXZ@4HA DD 01H DUP (?)	; `skillShopWindow4'::`2'::h
?btnId@?1??skillShopWindow4@@YAHXZ@4PAHA DD 02H DUP (?)	; `skillShopWindow4'::`2'::btnId
?msg1@?1??skillShopWindow4@@YAHXZ@4PADA DB 080H DUP (?)	; `skillShopWindow4'::`2'::msg1
?x@?1??poolShopWindow1@@YAHXZ@4HA DD 01H DUP (?)	; `poolShopWindow1'::`2'::x
?y@?1??poolShopWindow1@@YAHXZ@4HA DD 01H DUP (?)	; `poolShopWindow1'::`2'::y
?w@?1??poolShopWindow1@@YAHXZ@4HA DD 01H DUP (?)	; `poolShopWindow1'::`2'::w
?h@?1??poolShopWindow1@@YAHXZ@4HA DD 01H DUP (?)	; `poolShopWindow1'::`2'::h
?btnId@?1??poolShopWindow1@@YAHXZ@4PAHA DD 03H DUP (?)	; `poolShopWindow1'::`2'::btnId
?x@?1??poolShopWindow2@@YAHXZ@4HA DD 01H DUP (?)	; `poolShopWindow2'::`2'::x
?y@?1??poolShopWindow2@@YAHXZ@4HA DD 01H DUP (?)	; `poolShopWindow2'::`2'::y
?w@?1??poolShopWindow2@@YAHXZ@4HA DD 01H DUP (?)	; `poolShopWindow2'::`2'::w
?h@?1??poolShopWindow2@@YAHXZ@4HA DD 01H DUP (?)	; `poolShopWindow2'::`2'::h
?btnId@?1??poolShopWindow2@@YAHXZ@4PAHA DD 03H DUP (?)	; `poolShopWindow2'::`2'::btnId
?x@?1??poolShopWindow3@@YAHXZ@4HA DD 01H DUP (?)	; `poolShopWindow3'::`2'::x
?y@?1??poolShopWindow3@@YAHXZ@4HA DD 01H DUP (?)	; `poolShopWindow3'::`2'::y
?w@?1??poolShopWindow3@@YAHXZ@4HA DD 01H DUP (?)	; `poolShopWindow3'::`2'::w
?h@?1??poolShopWindow3@@YAHXZ@4HA DD 01H DUP (?)	; `poolShopWindow3'::`2'::h
?btnId@?1??poolShopWindow3@@YAHXZ@4PAHA DD 02H DUP (?)	; `poolShopWindow3'::`2'::btnId
?x@?1??poolShopWindow4@@YAHXZ@4HA DD 01H DUP (?)	; `poolShopWindow4'::`2'::x
?y@?1??poolShopWindow4@@YAHXZ@4HA DD 01H DUP (?)	; `poolShopWindow4'::`2'::y
?w@?1??poolShopWindow4@@YAHXZ@4HA DD 01H DUP (?)	; `poolShopWindow4'::`2'::w
?h@?1??poolShopWindow4@@YAHXZ@4HA DD 01H DUP (?)	; `poolShopWindow4'::`2'::h
?btnId@?1??poolShopWindow4@@YAHXZ@4PAHA DD 03H DUP (?)	; `poolShopWindow4'::`2'::btnId
?pActPet10@@3PAUaction@@A DD 01H DUP (?)		; pActPet10
?btnId@?1??familyAddWN@@YAXXZ@4PAHA DD 05H DUP (?)	; `familyAddWN'::`2'::btnId
?fontId@?1??familyAddWN@@YAXXZ@4PAHA DD 06H DUP (?)	; `familyAddWN'::`2'::fontId
?pActPet11@@3PAUaction@@A DD 01H DUP (?)		; pActPet11
?familyList@@3PAUTfamilyList@@A DB 028f0H DUP (?)	; familyList
?pkPlayerList@@3PAUTPKPlayerList@@A DB 0a78H DUP (?)	; pkPlayerList
?pkHistoryList@@3PAUTPKHistoryList@@A DB 0af0H DUP (?)	; pkHistoryList
?x@?1??familyListWN@@YAXXZ@4HA DD 01H DUP (?)		; `familyListWN'::`2'::x
?y@?1??familyListWN@@YAXXZ@4HA DD 01H DUP (?)		; `familyListWN'::`2'::y
?w@?1??familyListWN@@YAXXZ@4HA DD 01H DUP (?)		; `familyListWN'::`2'::w
?h@?1??familyListWN@@YAXXZ@4HA DD 01H DUP (?)		; `familyListWN'::`2'::h
?i@?1??familyListWN@@YAXXZ@4HA DD 01H DUP (?)		; `familyListWN'::`2'::i
?j@?1??familyListWN@@YAXXZ@4HA DD 01H DUP (?)		; `familyListWN'::`2'::j
?btnId@?1??familyListWN@@YAXXZ@4PAHA DD 05H DUP (?)	; `familyListWN'::`2'::btnId
?fontId@?1??familyListWN@@YAXXZ@4PAHA DD 0cH DUP (?)	; `familyListWN'::`2'::fontId
?w@?1??familyDetailWN@@YAHXZ@4HA DD 01H DUP (?)		; `familyDetailWN'::`2'::w
?h@?1??familyDetailWN@@YAHXZ@4HA DD 01H DUP (?)		; `familyDetailWN'::`2'::h
?x@?1??familyDetailWN@@YAHXZ@4HA DD 01H DUP (?)		; `familyDetailWN'::`2'::x
?y@?1??familyDetailWN@@YAHXZ@4HA DD 01H DUP (?)		; `familyDetailWN'::`2'::y
?i@?1??familyDetailWN@@YAHXZ@4HA DD 01H DUP (?)		; `familyDetailWN'::`2'::i
?btnId@?1??familyDetailWN@@YAHXZ@4PAHA DD 05H DUP (?)	; `familyDetailWN'::`2'::btnId
?fontId@?1??familyDetailWN@@YAHXZ@4PAHA DD 05H DUP (?)	; `familyDetailWN'::`2'::fontId
?winX@?1??FMWindowType@@YAXXZ@4HA DD 01H DUP (?)	; `FMWindowType'::`2'::winX
?winY@?1??FMWindowType@@YAXXZ@4HA DD 01H DUP (?)	; `FMWindowType'::`2'::winY
?winW@?1??FMWindowType@@YAXXZ@4HA DD 01H DUP (?)	; `FMWindowType'::`2'::winW
?winH@?1??FMWindowType@@YAXXZ@4HA DD 01H DUP (?)	; `FMWindowType'::`2'::winH
?btnLoc@?1??FMWindowType@@YAXXZ@4PAY01HA DD 0cH DUP (?)	; `FMWindowType'::`2'::btnLoc
?btnCnt@?1??FMWindowType@@YAXXZ@4HA DD 01H DUP (?)	; `FMWindowType'::`2'::btnCnt
?msgLine@?1??FMWindowType@@YAXXZ@4HA DD 01H DUP (?)	; `FMWindowType'::`2'::msgLine
?fmdelid@?1??FMWindowType@@YAXXZ@4HA DD 01H DUP (?)	; `FMWindowType'::`2'::fmdelid
?winX@?1??FMWindowType1@@YAXXZ@4HA DD 01H DUP (?)	; `FMWindowType1'::`2'::winX
?winY@?1??FMWindowType1@@YAXXZ@4HA DD 01H DUP (?)	; `FMWindowType1'::`2'::winY
?winW@?1??FMWindowType1@@YAXXZ@4HA DD 01H DUP (?)	; `FMWindowType1'::`2'::winW
?winH@?1??FMWindowType1@@YAXXZ@4HA DD 01H DUP (?)	; `FMWindowType1'::`2'::winH
?btnLoc@?1??FMWindowType1@@YAXXZ@4PAY01HA DD 0cH DUP (?) ; `FMWindowType1'::`2'::btnLoc
?btnCnt@?1??FMWindowType1@@YAXXZ@4HA DD 01H DUP (?)	; `FMWindowType1'::`2'::btnCnt
?msgLine@?1??FMWindowType1@@YAXXZ@4HA DD 01H DUP (?)	; `FMWindowType1'::`2'::msgLine
?input@?1??FMWindowType1@@YAXXZ@4USTR_BUFFER@@A DB 0128H DUP (?) ; `FMWindowType1'::`2'::input
?totalMsgLine@?1??FMWindowType1@@YAXXZ@4HA DD 01H DUP (?) ; `FMWindowType1'::`2'::totalMsgLine
?lineSkip@?1??FMWindowType1@@YAXXZ@4HA DD 01H DUP (?)	; `FMWindowType1'::`2'::lineSkip
?winX@?1??FMWindowType2@@YAXXZ@4HA DD 01H DUP (?)	; `FMWindowType2'::`2'::winX
?winY@?1??FMWindowType2@@YAXXZ@4HA DD 01H DUP (?)	; `FMWindowType2'::`2'::winY
?winW@?1??FMWindowType2@@YAXXZ@4HA DD 01H DUP (?)	; `FMWindowType2'::`2'::winW
?winH@?1??FMWindowType2@@YAXXZ@4HA DD 01H DUP (?)	; `FMWindowType2'::`2'::winH
?btnLoc@?1??FMWindowType2@@YAXXZ@4PAY01HA DD 018H DUP (?) ; `FMWindowType2'::`2'::btnLoc
?btnCnt@?1??FMWindowType2@@YAXXZ@4HA DD 01H DUP (?)	; `FMWindowType2'::`2'::btnCnt
?msgLine@?1??FMWindowType2@@YAXXZ@4HA DD 01H DUP (?)	; `FMWindowType2'::`2'::msgLine
?btnLoc@?1??fmselectdetuyWindow@@YAHHHH@Z@4PAY01HA DD 08H DUP (?) ; `fmselectdetuyWindow'::`2'::btnLoc
?btnLoc@?1??fmYesNoWindow@@YAHHHH@Z@4PAY01HA DD 04H DUP (?) ; `fmYesNoWindow'::`2'::btnLoc
?winX@?1??FMWindowType4@@YAXH@Z@4HA DD 01H DUP (?)	; `FMWindowType4'::`2'::winX
?winY@?1??FMWindowType4@@YAXH@Z@4HA DD 01H DUP (?)	; `FMWindowType4'::`2'::winY
?winW@?1??FMWindowType4@@YAXH@Z@4HA DD 01H DUP (?)	; `FMWindowType4'::`2'::winW
?winH@?1??FMWindowType4@@YAXH@Z@4HA DD 01H DUP (?)	; `FMWindowType4'::`2'::winH
?btnLoc@?1??FMWindowType4@@YAXH@Z@4PAY01HA DD 0cH DUP (?) ; `FMWindowType4'::`2'::btnLoc
?btnCnt@?1??FMWindowType4@@YAXH@Z@4HA DD 01H DUP (?)	; `FMWindowType4'::`2'::btnCnt
?msgLine@?1??FMWindowType4@@YAXH@Z@4HA DD 01H DUP (?)	; `FMWindowType4'::`2'::msgLine
?winX@?1??FMWindowType3@@YAXH@Z@4HA DD 01H DUP (?)	; `FMWindowType3'::`2'::winX
?winY@?1??FMWindowType3@@YAXH@Z@4HA DD 01H DUP (?)	; `FMWindowType3'::`2'::winY
?winW@?1??FMWindowType3@@YAXH@Z@4HA DD 01H DUP (?)	; `FMWindowType3'::`2'::winW
?winH@?1??FMWindowType3@@YAXH@Z@4HA DD 01H DUP (?)	; `FMWindowType3'::`2'::winH
?btnLoc@?1??FMWindowType3@@YAXH@Z@4PAY01HA DD 0cH DUP (?) ; `FMWindowType3'::`2'::btnLoc
?btnCnt@?1??FMWindowType3@@YAXH@Z@4HA DD 01H DUP (?)	; `FMWindowType3'::`2'::btnCnt
?msgLine@?1??FMWindowType3@@YAXH@Z@4HA DD 01H DUP (?)	; `FMWindowType3'::`2'::msgLine
?x@?1??DelCharGraColorWin@@YAHXZ@4HA DD 01H DUP (?)	; `DelCharGraColorWin'::`2'::x
?y@?1??DelCharGraColorWin@@YAHXZ@4HA DD 01H DUP (?)	; `DelCharGraColorWin'::`2'::y
?w@?1??DelCharGraColorWin@@YAHXZ@4HA DD 01H DUP (?)	; `DelCharGraColorWin'::`2'::w
?h@?1??DelCharGraColorWin@@YAHXZ@4HA DD 01H DUP (?)	; `DelCharGraColorWin'::`2'::h
?winX@?1??FMPKListWN@@YAXH@Z@4HA DD 01H DUP (?)		; `FMPKListWN'::`2'::winX
?winY@?1??FMPKListWN@@YAXH@Z@4HA DD 01H DUP (?)		; `FMPKListWN'::`2'::winY
?winW@?1??FMPKListWN@@YAXH@Z@4HA DD 01H DUP (?)		; `FMPKListWN'::`2'::winW
?winH@?1??FMPKListWN@@YAXH@Z@4HA DD 01H DUP (?)		; `FMPKListWN'::`2'::winH
?btnLoc@?1??FMPKListWN@@YAXH@Z@4PAY01HA DD 0cH DUP (?)	; `FMPKListWN'::`2'::btnLoc
?btnCnt@?1??FMPKListWN@@YAXH@Z@4HA DD 01H DUP (?)	; `FMPKListWN'::`2'::btnCnt
?winX@?1??FMPKSelectWN@@YAXH@Z@4HA DD 01H DUP (?)	; `FMPKSelectWN'::`2'::winX
?winY@?1??FMPKSelectWN@@YAXH@Z@4HA DD 01H DUP (?)	; `FMPKSelectWN'::`2'::winY
?winW@?1??FMPKSelectWN@@YAXH@Z@4HA DD 01H DUP (?)	; `FMPKSelectWN'::`2'::winW
?winH@?1??FMPKSelectWN@@YAXH@Z@4HA DD 01H DUP (?)	; `FMPKSelectWN'::`2'::winH
?btnLoc@?1??FMPKSelectWN@@YAXH@Z@4PAY01HA DD 0cH DUP (?) ; `FMPKSelectWN'::`2'::btnLoc
?btnCnt@?1??FMPKSelectWN@@YAXH@Z@4HA DD 01H DUP (?)	; `FMPKSelectWN'::`2'::btnCnt
?winX@?1??FMPKDetailWN@@YAXH@Z@4HA DD 01H DUP (?)	; `FMPKDetailWN'::`2'::winX
?winY@?1??FMPKDetailWN@@YAXH@Z@4HA DD 01H DUP (?)	; `FMPKDetailWN'::`2'::winY
?winW@?1??FMPKDetailWN@@YAXH@Z@4HA DD 01H DUP (?)	; `FMPKDetailWN'::`2'::winW
?winH@?1??FMPKDetailWN@@YAXH@Z@4HA DD 01H DUP (?)	; `FMPKDetailWN'::`2'::winH
?btnLoc@?1??FMPKDetailWN@@YAXH@Z@4PAY01HA DD 0cH DUP (?) ; `FMPKDetailWN'::`2'::btnLoc
?btnCnt@?1??FMPKDetailWN@@YAXH@Z@4HA DD 01H DUP (?)	; `FMPKDetailWN'::`2'::btnCnt
?pushBtnFlag@?1??FMPKDetailWN@@YAXH@Z@4PAHA DD 04H DUP (?) ; `FMPKDetailWN'::`2'::pushBtnFlag
?winX@?1??familyTaxWN@@YAXXZ@4HA DD 01H DUP (?)		; `familyTaxWN'::`2'::winX
?winY@?1??familyTaxWN@@YAXXZ@4HA DD 01H DUP (?)		; `familyTaxWN'::`2'::winY
?winW@?1??familyTaxWN@@YAXXZ@4HA DD 01H DUP (?)		; `familyTaxWN'::`2'::winW
?winH@?1??familyTaxWN@@YAXXZ@4HA DD 01H DUP (?)		; `familyTaxWN'::`2'::winH
?pushBtnFlag@?1??familyTaxWN@@YAXXZ@4PAHA DD 04H DUP (?) ; `familyTaxWN'::`2'::pushBtnFlag
?pActPet12@@3PAUaction@@A DD 01H DUP (?)		; pActPet12
?pActPet13@@3PAUaction@@A DD 01H DUP (?)		; pActPet13
?pActPet14@@3PAUaction@@A DD 01H DUP (?)		; pActPet14
?winX@?1??showRidePetWN@@YAXXZ@4HA DD 01H DUP (?)	; `showRidePetWN'::`2'::winX
?winY@?1??showRidePetWN@@YAXXZ@4HA DD 01H DUP (?)	; `showRidePetWN'::`2'::winY
?winW@?1??showRidePetWN@@YAXXZ@4HA DD 01H DUP (?)	; `showRidePetWN'::`2'::winW
?winH@?1??showRidePetWN@@YAXXZ@4HA DD 01H DUP (?)	; `showRidePetWN'::`2'::winH
?btnLoc@?1??showRidePetWN@@YAXXZ@4PAY01HA DD 0cH DUP (?) ; `showRidePetWN'::`2'::btnLoc
?btnCnt@?1??showRidePetWN@@YAXXZ@4HA DD 01H DUP (?)	; `showRidePetWN'::`2'::btnCnt
?winX@?1??familyLeaderChangeWN@@YAXXZ@4HA DD 01H DUP (?) ; `familyLeaderChangeWN'::`2'::winX
?winY@?1??familyLeaderChangeWN@@YAXXZ@4HA DD 01H DUP (?) ; `familyLeaderChangeWN'::`2'::winY
?winW@?1??familyLeaderChangeWN@@YAXXZ@4HA DD 01H DUP (?) ; `familyLeaderChangeWN'::`2'::winW
?winH@?1??familyLeaderChangeWN@@YAXXZ@4HA DD 01H DUP (?) ; `familyLeaderChangeWN'::`2'::winH
?fontId@?1??familyLeaderChangeWN@@YAXXZ@4PAHA DD 01eH DUP (?) ; `familyLeaderChangeWN'::`2'::fontId
?fontId2@?1??familyLeaderChangeWN@@YAXXZ@4PAHA DD 03H DUP (?) ; `familyLeaderChangeWN'::`2'::fontId2
?winX@?1??familyLeaderChangeQWN@@YAXXZ@4HA DD 01H DUP (?) ; `familyLeaderChangeQWN'::`2'::winX
?winY@?1??familyLeaderChangeQWN@@YAXXZ@4HA DD 01H DUP (?) ; `familyLeaderChangeQWN'::`2'::winY
?winW@?1??familyLeaderChangeQWN@@YAXXZ@4HA DD 01H DUP (?) ; `familyLeaderChangeQWN'::`2'::winW
?winH@?1??familyLeaderChangeQWN@@YAXXZ@4HA DD 01H DUP (?) ; `familyLeaderChangeQWN'::`2'::winH
?fontId@?1??familyLeaderChangeQWN@@YAXXZ@4PAHA DD 02H DUP (?) ; `familyLeaderChangeQWN'::`2'::fontId
?winX@?1??familyLeaderChangeAWN@@YAXXZ@4HA DD 01H DUP (?) ; `familyLeaderChangeAWN'::`2'::winX
?winY@?1??familyLeaderChangeAWN@@YAXXZ@4HA DD 01H DUP (?) ; `familyLeaderChangeAWN'::`2'::winY
?winW@?1??familyLeaderChangeAWN@@YAXXZ@4HA DD 01H DUP (?) ; `familyLeaderChangeAWN'::`2'::winW
?winH@?1??familyLeaderChangeAWN@@YAXXZ@4HA DD 01H DUP (?) ; `familyLeaderChangeAWN'::`2'::winH
?fontId@?1??familyLeaderChangeAWN@@YAXXZ@4PAHA DD 02H DUP (?) ; `familyLeaderChangeAWN'::`2'::fontId
?winX@?1??mineFamilyDetailWN@@YAXXZ@4HA DD 01H DUP (?)	; `mineFamilyDetailWN'::`2'::winX
?winY@?1??mineFamilyDetailWN@@YAXXZ@4HA DD 01H DUP (?)	; `mineFamilyDetailWN'::`2'::winY
?winW@?1??mineFamilyDetailWN@@YAXXZ@4HA DD 01H DUP (?)	; `mineFamilyDetailWN'::`2'::winW
?winH@?1??mineFamilyDetailWN@@YAXXZ@4HA DD 01H DUP (?)	; `mineFamilyDetailWN'::`2'::winH
?fontId@?1??mineFamilyDetailWN@@YAXXZ@4PAHA DD 02H DUP (?) ; `mineFamilyDetailWN'::`2'::fontId
?BankBtNo@?1??BankProc@@YAXXZ@4PAHA DD 014H DUP (?)	; `BankProc'::`2'::BankBtNo
?BankBtFlag@?1??BankProc@@YAXXZ@4PAHA DD 014H DUP (?)	; `BankProc'::`2'::BankBtFlag
?nButton1@?1??AuctionNewWT@@YAXXZ@4PAY01HA DD 06H DUP (?) ; `AuctionNewWT'::`2'::nButton1
?nButton2@?1??AuctionNewWT@@YAXXZ@4PAY01HA DD 04H DUP (?) ; `AuctionNewWT'::`2'::nButton2
?nItem@?1??AuctionNewWT@@YAXXZ@4PAY01HA DD 05aH DUP (?)	; `AuctionNewWT'::`2'::nItem
?nPet@?1??AuctionNewWT@@YAXXZ@4HA DD 01H DUP (?)	; `AuctionNewWT'::`2'::nPet
?nPetShow@?1??AuctionNewWT@@YAXXZ@4HA DD 01H DUP (?)	; `AuctionNewWT'::`2'::nPetShow
?nItemSelect@?1??AuctionNewWT@@YAXXZ@4HA DD 01H DUP (?)	; `AuctionNewWT'::`2'::nItemSelect
?nAuctionKind@?1??AuctionNewWT@@YAXXZ@4HA DD 01H DUP (?) ; `AuctionNewWT'::`2'::nAuctionKind
?bPress@?1??AuctionNewWT@@YAXXZ@4HA DD 01H DUP (?)	; `AuctionNewWT'::`2'::bPress
?aldArea@?1??AuctionListWT@@YAXXZ@4PAU_AUCTION_LIST_DATA@@A DB 0af0H DUP (?) ; `AuctionListWT'::`2'::aldArea
?nButton@?1??AuctionListWT@@YAXXZ@4PAY01HA DD 0aH DUP (?) ; `AuctionListWT'::`2'::nButton
?nList@?1??AuctionListWT@@YAXXZ@4PAY01HA DD 014H DUP (?) ; `AuctionListWT'::`2'::nList
?nListSelect@?1??AuctionListWT@@YAXXZ@4HA DD 01H DUP (?) ; `AuctionListWT'::`2'::nListSelect
?id@?1??AuctionListWT@@YAXXZ@4PADA DB 010H DUP (?)	; `AuctionListWT'::`2'::id
?bPress@?1??AuctionListWT@@YAXXZ@4HA DD 01H DUP (?)	; `AuctionListWT'::`2'::bPress
?bIsThisPlayerAuction@?1??AuctionListWT@@YAXXZ@4HA DD 01H DUP (?) ; `AuctionListWT'::`2'::bIsThisPlayerAuction
?nListNum@?1??AuctionListWT@@YAXXZ@4HA DD 01H DUP (?)	; `AuctionListWT'::`2'::nListNum
?nCurrentPage@?1??AuctionListWT@@YAXXZ@4HA DD 01H DUP (?) ; `AuctionListWT'::`2'::nCurrentPage
?ald@?1??AuctionSurveyModifyWT@@YAXXZ@4U_AUCTION_LIST_DATA@@A DB 0118H DUP (?) ; `AuctionSurveyModifyWT'::`2'::ald
?nButton@?1??AuctionSurveyModifyWT@@YAXXZ@4PAY01HA DD 04H DUP (?) ; `AuctionSurveyModifyWT'::`2'::nButton
?bPress@?1??AuctionSurveyModifyWT@@YAXXZ@4HA DD 01H DUP (?) ; `AuctionSurveyModifyWT'::`2'::bPress
?winX@?1??showMouseGetNameWN@@YAXXZ@4HA DD 01H DUP (?)	; `showMouseGetNameWN'::`2'::winX
?winY@?1??showMouseGetNameWN@@YAXXZ@4HA DD 01H DUP (?)	; `showMouseGetNameWN'::`2'::winY
?winW@?1??showMouseGetNameWN@@YAXXZ@4HA DD 01H DUP (?)	; `showMouseGetNameWN'::`2'::winW
?winH@?1??showMouseGetNameWN@@YAXXZ@4HA DD 01H DUP (?)	; `showMouseGetNameWN'::`2'::winH
?winX@?1??showContractWN@@YAXXZ@4HA DD 01H DUP (?)	; `showContractWN'::`2'::winX
?winY@?1??showContractWN@@YAXXZ@4HA DD 01H DUP (?)	; `showContractWN'::`2'::winY
?winW@?1??showContractWN@@YAXXZ@4HA DD 01H DUP (?)	; `showContractWN'::`2'::winW
?winH@?1??showContractWN@@YAXXZ@4HA DD 01H DUP (?)	; `showContractWN'::`2'::winH
?msgLine@?1??showContractWN@@YAXXZ@4PAY0DJ@DA DB 08e8H DUP (?) ; `showContractWN'::`2'::msgLine
?winW@?1??showRacemanRankWN@@YAXXZ@4HA DD 01H DUP (?)	; `showRacemanRankWN'::`2'::winW
?winH@?1??showRacemanRankWN@@YAXXZ@4HA DD 01H DUP (?)	; `showRacemanRankWN'::`2'::winH
?winX@?1??showRacemanRankWN@@YAXXZ@4HA DD 01H DUP (?)	; `showRacemanRankWN'::`2'::winX
?winY@?1??showRacemanRankWN@@YAXXZ@4HA DD 01H DUP (?)	; `showRacemanRankWN'::`2'::winY
?btnLoc@?1??showRacemanRankWN@@YAXXZ@4PAY01HA DD 0cH DUP (?) ; `showRacemanRankWN'::`2'::btnLoc
?btnCnt@?1??showRacemanRankWN@@YAXXZ@4HA DD 01H DUP (?)	; `showRacemanRankWN'::`2'::btnCnt
?winX@?1??serverWindowDragonFusion@@YAXXZ@4HA DD 01H DUP (?) ; `serverWindowDragonFusion'::`2'::winX
?winY@?1??serverWindowDragonFusion@@YAXXZ@4HA DD 01H DUP (?) ; `serverWindowDragonFusion'::`2'::winY
?winW@?1??serverWindowDragonFusion@@YAXXZ@4HA DD 01H DUP (?) ; `serverWindowDragonFusion'::`2'::winW
?winH@?1??serverWindowDragonFusion@@YAXXZ@4HA DD 01H DUP (?) ; `serverWindowDragonFusion'::`2'::winH
?btnLoc@?1??serverWindowDragonFusion@@YAXXZ@4PAY01HA DD 0cH DUP (?) ; `serverWindowDragonFusion'::`2'::btnLoc
?btnCnt@?1??serverWindowDragonFusion@@YAXXZ@4HA DD 01H DUP (?) ; `serverWindowDragonFusion'::`2'::btnCnt
_BSS	ENDS
;	COMDAT rtc$TMZ
rtc$TMZ	SEGMENT
__RTC_Shutdown.rtc$TMZ DD FLAT:__RTC_Shutdown
rtc$TMZ	ENDS
;	COMDAT rtc$IMZ
rtc$IMZ	SEGMENT
__RTC_InitBase.rtc$IMZ DD FLAT:__RTC_InitBase
rtc$IMZ	ENDS
;	COMDAT ??_C@_08LBNAPDDE@MaxHP?5?$CFd?$AA@
CONST	SEGMENT
??_C@_08LBNAPDDE@MaxHP?5?$CFd?$AA@ DB 'MaxHP %d', 00H	; `string'
CONST	ENDS
;	COMDAT ??_C@_05POAOFMIF@LV?4?$CFd?$AA@
CONST	SEGMENT
??_C@_05POAOFMIF@LV?4?$CFd?$AA@ DB 'LV.%d', 00H		; `string'
CONST	ENDS
;	COMDAT ??_C@_04KHFBBOKF@?q?r?l?L?$AA@
CONST	SEGMENT
??_C@_04KHFBBOKF@?q?r?l?L?$AA@ DB 0f1H, 0f2H, 0ecH, 0ccH, 00H ; `string'
CONST	ENDS
;	COMDAT ??_C@_03MNGAGPGA@?c?S?$DP?$AA@
CONST	SEGMENT
??_C@_03MNGAGPGA@?c?S?$DP?$AA@ DB 0e3H, 0d3H, '?', 00H	; `string'
CONST	ENDS
;	COMDAT ??_C@_03GKEDPABO@?$DP?$NM?Q?$AA@
CONST	SEGMENT
??_C@_03GKEDPABO@?$DP?$NM?Q?$AA@ DB '?', 0dcH, 0d1H, 00H ; `string'
CONST	ENDS
;	COMDAT ??_C@_08FAALJAKG@?A?A?$LO?F?G?O?$LE?Y?$AA@
CONST	SEGMENT
??_C@_08FAALJAKG@?A?A?$LO?F?G?O?$LE?Y?$AA@ DB 0c1H, 0c1H, 0beH, 0c6H, 0c7H
	DB	0cfH, 0b4H, 0d9H, 00H			; `string'
CONST	ENDS
;	COMDAT ??_C@_06CALAJCAP@?$LK?N?$LI?$KD?$LE?Y?$AA@
CONST	SEGMENT
??_C@_06CALAJCAP@?$LK?N?$LI?$KD?$LE?Y?$AA@ DB 0baH, 0ceH, 0b8H, 0a3H, 0b4H
	DB	0d9H, 00H					; `string'
CONST	ENDS
;	COMDAT ??_C@_0P@DIJJDGHC@?$CFd?$HM?$CFd?$HM?$CFd?$HM?$CFd?$HM?$CFd?$AA@
CONST	SEGMENT
??_C@_0P@DIJJDGHC@?$CFd?$HM?$CFd?$HM?$CFd?$HM?$CFd?$HM?$CFd?$AA@ DB '%d|%'
	DB	'd|%d|%d|%d', 00H				; `string'
CONST	ENDS
;	COMDAT ??_C@_0CI@LPGMCPCH@?$KD?$LN?$KD?$LN?$KD?$LN?5?5?5?5?5?5?$LA?a?A?$KE?G?O?$LM?K?$LN?$MA?$LE?O?$LB?n?$KD?$LP?5?5?5?5@
CONST	SEGMENT
??_C@_0CI@LPGMCPCH@?$KD?$LN?$KD?$LN?$KD?$LN?5?5?5?5?5?5?$LA?a?A?$KE?G?O?$LM?K?$LN?$MA?$LE?O?$LB?n?$KD?$LP?5?5?5?5@ DB 0a3H
	DB	0bdH, 0a3H, 0bdH, 0a3H, 0bdH, '      ', 0b0H, 0e1H, 0c1H, 0a4H
	DB	0c7H, 0cfH, 0bcH, 0cbH, 0bdH, 0c0H, 0b4H, 0cfH, 0b1H, 0eeH, 0a3H
	DB	0bfH, '     ', 0a3H, 0bdH, 0a3H, 0bdH, 0a3H, 0bdH, 00H ; `string'
CONST	ENDS
;	COMDAT ??_C@_0CC@JBOBCJOD@?$KD?$LN?$KD?$LN?$KD?$LN?5?5?5?5?5?5?$CFd?$LI?$LG?$LI?$KO?5?$LM?$LB?E?C?5?5?5?5?$KD?$LN?$KD?$LN?$KD@
CONST	SEGMENT
??_C@_0CC@JBOBCJOD@?$KD?$LN?$KD?$LN?$KD?$LN?5?5?5?5?5?5?$CFd?$LI?$LG?$LI?$KO?5?$LM?$LB?E?C?5?5?5?5?$KD?$LN?$KD?$LN?$KD@ DB 0a3H
	DB	0bdH, 0a3H, 0bdH, 0a3H, 0bdH, '      %d', 0b8H, 0b6H, 0b8H, 0aeH
	DB	' ', 0bcH, 0b1H, 0c5H, 0c3H, '    ', 0a3H, 0bdH, 0a3H, 0bdH, 0a3H
	DB	0bdH, 00H					; `string'
CONST	ENDS
;	COMDAT ??_C@_0CP@FDBDKEML@?$KB?$KO?$LM?$KO?B?w?$KB?$KP?5?5?5?5?$KB?$KO?5?5?5?$MA?L?5?5?5?$LI?$KH?5?5?5?5?$KB?$KP?5?5@
CONST	SEGMENT
??_C@_0CP@FDBDKEML@?$KB?$KO?$LM?$KO?B?w?$KB?$KP?5?5?5?5?$KB?$KO?5?5?5?$MA?L?5?5?5?$LI?$KH?5?5?5?5?$KB?$KP?5?5@ DB 0a1H
	DB	0aeH, 0bcH, 0aeH, 0c2H, 0f7H, 0a1H, 0afH, '    ', 0a1H, 0aeH, ' '
	DB	'  ', 0c0H, 0ccH, '   ', 0b8H, 0a7H, '    ', 0a1H, 0afH, '    '
	DB	'  ', 0a1H, 0aeH, 0c6H, 0f7H, 0c8H, 0b9H, 0bcH, 0f6H, 0a1H, 0afH
	DB	00H						; `string'
CONST	ENDS
;	COMDAT ??_C@_0O@IFIHGCPG@?5?$CF?910s?$CF?927s?$CFs?$AA@
CONST	SEGMENT
??_C@_0O@IFIHGCPG@?5?$CF?910s?$CF?927s?$CFs?$AA@ DB ' %-10s%-27s%s', 00H ; `string'
CONST	ENDS
;	COMDAT ??_C@_06GJCJAMOC@?v?$KC?$KB?$KB?a?$LM?$AA@
CONST	SEGMENT
??_C@_06GJCJAMOC@?v?$KC?$KB?$KB?a?$LM?$AA@ DB 0f6H, 0a2H, 0a1H, 0a1H, 0e1H
	DB	0bcH, 00H					; `string'
CONST	ENDS
;	COMDAT ??_C@_09OOIHKOPD@?X?$KB?$DP?l?m?$KD?$LK?$CFs?$AA@
CONST	SEGMENT
??_C@_09OOIHKOPD@?X?$KB?$DP?l?m?$KD?$LK?$CFs?$AA@ DB 0d8H, 0a1H, '?', 0ecH
	DB	0edH, 0a3H, 0baH, '%s', 00H			; `string'
CONST	ENDS
;	COMDAT ??_C@_05BCDBBDGC@?$DP?$KB?$KB?o?R?$AA@
CONST	SEGMENT
??_C@_05BCDBBDGC@?$DP?$KB?$KB?o?R?$AA@ DB '?', 0a1H, 0a1H, 0efH, 0d2H, 00H ; `string'
CONST	ENDS
;	COMDAT ??_C@_0O@IJDIOBDJ@?$CFs?$KD?$LK?5?5?5?$DP?Z?$LB?$DP?Y?$KD?$AA@
CONST	SEGMENT
??_C@_0O@IJDIOBDJ@?$CFs?$KD?$LK?5?5?5?$DP?Z?$LB?$DP?Y?$KD?$AA@ DB '%s', 0a3H
	DB	0baH, '   ?', 0daH, 0b1H, '?', 0d9H, 0a3H, 00H ; `string'
CONST	ENDS
;	COMDAT ??_C@_0P@KIMCNEJC@?$CFs?$KD?$LK?5?5?5?n?$KE?s?$KO?$DP?Y?$KD?$AA@
CONST	SEGMENT
??_C@_0P@KIMCNEJC@?$CFs?$KD?$LK?5?5?5?n?$KE?s?$KO?$DP?Y?$KD?$AA@ DB '%s', 0a3H
	DB	0baH, '   ', 0eeH, 0a4H, 0f3H, 0aeH, '?', 0d9H, 0a3H, 00H ; `string'
CONST	ENDS
;	COMDAT ??_C@_0M@EOHPHPFN@?$CFs?$KD?$LK?5?$CFs?5?5?$CFs?$AA@
CONST	SEGMENT
??_C@_0M@EOHPHPFN@?$CFs?$KD?$LK?5?$CFs?5?5?$CFs?$AA@ DB '%s', 0a3H, 0baH, ' '
	DB	'%s  %s', 00H				; `string'
CONST	ENDS
;	COMDAT ??_C@_04FHAMEFIC@?o?K?$NL?$LA?$AA@
CONST	SEGMENT
??_C@_04FHAMEFIC@?o?K?$NL?$LA?$AA@ DB 0efH, 0cbH, 0dbH, 0b0H, 00H ; `string'
CONST	ENDS
;	COMDAT ??_C@_04NLDKAEJ@?$NM?$LA?$NL?$LA?$AA@
CONST	SEGMENT
??_C@_04NLDKAEJ@?$NM?$LA?$NL?$LA?$AA@ DB 0dcH, 0b0H, 0dbH, 0b0H, 00H ; `string'
CONST	ENDS
;	COMDAT ??_C@_04NFLPMLHN@?k?$OA?$NL?$LA?$AA@
CONST	SEGMENT
??_C@_04NFLPMLHN@?k?$OA?$NL?$LA?$AA@ DB 0ebH, 0e0H, 0dbH, 0b0H, 00H ; `string'
CONST	ENDS
;	COMDAT ??_C@_04JNNPBDKK@?K?$KD?$NL?$LA?$AA@
CONST	SEGMENT
??_C@_04JNNPBDKK@?K?$KD?$NL?$LA?$AA@ DB 0cbH, 0a3H, 0dbH, 0b0H, 00H ; `string'
CONST	ENDS
;	COMDAT ??_C@_02JOGGLHBA@?2n?$AA@
CONST	SEGMENT
??_C@_02JOGGLHBA@?2n?$AA@ DB '\n', 00H			; `string'
CONST	ENDS
;	COMDAT ??_C@_0L@OKNLNJFO@?5?v?$KC?$KB?$KB?$KB?$KB?a?$LM?5?$AA@
CONST	SEGMENT
??_C@_0L@OKNLNJFO@?5?v?$KC?$KB?$KB?$KB?$KB?a?$LM?5?$AA@ DB ' ', 0f6H, 0a2H
	DB	0a1H, 0a1H, 0a1H, 0a1H, 0e1H, 0bcH, ' ', 00H	; `string'
CONST	ENDS
;	COMDAT ??_C@_09NHGAGPIH@?5?$DP?5?5?5?5?l?Q?5?$AA@
CONST	SEGMENT
??_C@_09NHGAGPIH@?5?$DP?5?5?5?5?l?Q?5?$AA@ DB ' ?    ', 0ecH, 0d1H, ' ', 00H ; `string'
CONST	ENDS
;	COMDAT ??_C@_08NELLBCLM@?5?$DP?5?5?5?5?$DP?5?$AA@
CONST	SEGMENT
??_C@_08NELLBCLM@?5?$DP?5?5?5?5?$DP?5?$AA@ DB ' ?    ? ', 00H ; `string'
CONST	ENDS
;	COMDAT ??_C@_09MEHCFAEH@?5?Z?K?$KB?$KB?$KB?$KB?$DP?5?$AA@
CONST	SEGMENT
??_C@_09MEHCFAEH@?5?Z?K?$KB?$KB?$KB?$KB?$DP?5?$AA@ DB ' ', 0daH, 0cbH, 0a1H
	DB	0a1H, 0a1H, 0a1H, '? ', 00H			; `string'
CONST	ENDS
;	COMDAT ??_C@_0N@BPLMBEOA@?$DP?v?h?$NP?$KJ?$DP?5?$CFs?5?$KD?$LK?$AA@
CONST	SEGMENT
??_C@_0N@BPLMBEOA@?$DP?v?h?$NP?$KJ?$DP?5?$CFs?5?$KD?$LK?$AA@ DB '?', 0f6H
	DB	0e8H, 0dfH, 0a9H, '? %s ', 0a3H, 0baH, 00H	; `string'
CONST	ENDS
;	COMDAT ??_C@_0BG@IHBEEPL@?5IceCloud?5go?5Shit?$CB?$CB?$CB?5?$AA@
CONST	SEGMENT
??_C@_0BG@IHBEEPL@?5IceCloud?5go?5Shit?$CB?$CB?$CB?5?$AA@ DB ' IceCloud g'
	DB	'o Shit!!! ', 00H				; `string'
CONST	ENDS
;	COMDAT ??_C@_01LOCGONAA@?$AA?$AA@
CONST	SEGMENT
??_C@_01LOCGONAA@?$AA?$AA@ DB 00H, 00H			; `string'
CONST	ENDS
;	COMDAT ??_C@_06MCFCBINE@?$CFd?19?5?$DP?$AA@
CONST	SEGMENT
??_C@_06MCFCBINE@?$CFd?19?5?$DP?$AA@ DB '%d/9 ?', 00H	; `string'
CONST	ENDS
;	COMDAT ??_C@_03IFADCKOJ@?$CFd?$HM?$AA@
CONST	SEGMENT
??_C@_03IFADCKOJ@?$CFd?$HM?$AA@ DB '%d|', 00H		; `string'
CONST	ENDS
;	COMDAT ??_C@_0L@EIOJDBDM@2?$HM?$CFd?$HM?$CFs?$HM?$CFd?$AA@
CONST	SEGMENT
??_C@_0L@EIOJDBDM@2?$HM?$CFd?$HM?$CFs?$HM?$CFd?$AA@ DB '2|%d|%s|%d', 00H ; `string'
CONST	ENDS
;	COMDAT ??_C@_0L@NBALFHDN@1?$HM?$CFd?$HM?$CFs?$HM?$CFd?$AA@
CONST	SEGMENT
??_C@_0L@NBALFHDN@1?$HM?$CFd?$HM?$CFs?$HM?$CFd?$AA@ DB '1|%d|%s|%d', 00H ; `string'
CONST	ENDS
;	COMDAT ??_C@_0L@DOPLAOEB@?5?5?C?k?5?5?$LM?R?5?5?$AA@
CONST	SEGMENT
??_C@_0L@DOPLAOEB@?5?5?C?k?5?5?$LM?R?5?5?$AA@ DB '  ', 0c3H, 0ebH, '  ', 0bcH
	DB	0d2H, '  ', 00H				; `string'
CONST	ENDS
;	COMDAT ??_C@_0L@MCFCFIOA@?A?$KB?$LH?I?$LI?$LG?$MA?$LL?$KD?$LK?$AA@
CONST	SEGMENT
??_C@_0L@MCFCFIOA@?A?$KB?$LH?I?$LI?$LG?$MA?$LL?$KD?$LK?$AA@ DB 0c1H, 0a1H
	DB	0b7H, 0c9H, 0b8H, 0b6H, 0c0H, 0bbH, 0a3H, 0baH, 00H ; `string'
CONST	ENDS
;	COMDAT ??_C@_0N@PNFPIJDL@?$LA?$LD?$MA?N?$LB?b?$LM?$LM?$KD?$LK?$CFd?$AA@
CONST	SEGMENT
??_C@_0N@PNFPIJDL@?$LA?$LD?$MA?N?$LB?b?$LM?$LM?$KD?$LK?$CFd?$AA@ DB 0b0H, 0b3H
	DB	0c0H, 0ceH, 0b1H, 0e2H, 0bcH, 0bcH, 0a3H, 0baH, '%d', 00H ; `string'
CONST	ENDS
;	COMDAT ??_C@_0N@NGKOILMK@?$LA?$KB?A?$LH?$LB?b?$LM?$LM?$KD?$LK?$CFd?$AA@
CONST	SEGMENT
??_C@_0N@NGKOILMK@?$LA?$KB?A?$LH?$LB?b?$LM?$LM?$KD?$LK?$CFd?$AA@ DB 0b0H, 0a1H
	DB	0c1H, 0b7H, 0b1H, 0e2H, 0bcH, 0bcH, 0a3H, 0baH, '%d', 00H ; `string'
CONST	ENDS
;	COMDAT ??_C@_0N@FOIFMONB@?$LA?$LD?$MA?N?$LI?m?$LM?$LK?$KD?$LK?$CFd?$AA@
CONST	SEGMENT
??_C@_0N@FOIFMONB@?$LA?$LD?$MA?N?$LI?m?$LM?$LK?$KD?$LK?$CFd?$AA@ DB 0b0H, 0b3H
	DB	0c0H, 0ceH, 0b8H, 0edH, 0bcH, 0baH, 0a3H, 0baH, '%d', 00H ; `string'
CONST	ENDS
;	COMDAT ??_C@_0N@CJCMAAFH@?$LA?$KB?A?$LH?A?w?C?$KF?$KD?$LK?$CFs?$AA@
CONST	SEGMENT
??_C@_0N@CJCMAAFH@?$LA?$KB?A?$LH?A?w?C?$KF?$KD?$LK?$CFs?$AA@ DB 0b0H, 0a1H
	DB	0c1H, 0b7H, 0c1H, 0f7H, 0c3H, 0a5H, 0a3H, 0baH, '%s', 00H ; `string'
CONST	ENDS
;	COMDAT ??_C@_0N@HFHEMMCA@?$LA?$KB?A?$LH?$LI?m?$LM?$LK?$KD?$LK?$CFd?$AA@
CONST	SEGMENT
??_C@_0N@HFHEMMCA@?$LA?$KB?A?$LH?$LI?m?$LM?$LK?$KD?$LK?$CFd?$AA@ DB 0b0H, 0a1H
	DB	0c1H, 0b7H, 0b8H, 0edH, 0bcH, 0baH, 0a3H, 0baH, '%d', 00H ; `string'
CONST	ENDS
;	COMDAT ??_C@_0N@CHGBLECB@?$LI?m?$LM?$LK?$LM?x?$MA?$KH?$KD?$LK?$CFd?$AA@
CONST	SEGMENT
??_C@_0N@CHGBLECB@?$LI?m?$LM?$LK?$LM?x?$MA?$KH?$KD?$LK?$CFd?$AA@ DB 0b8H, 0edH
	DB	0bcH, 0baH, 0bcH, 0f8H, 0c0H, 0a7H, 0a3H, 0baH, '%d', 00H ; `string'
CONST	ENDS
;	COMDAT ??_C@_0N@BCMFNKAE@?$LM?v?H?$KD?A?$KE?$LH?I?$KD?$LK?$CFs?$AA@
CONST	SEGMENT
??_C@_0N@BCMFNKAE@?$LM?v?H?$KD?A?$KE?$LH?I?$KD?$LK?$CFs?$AA@ DB 0bcH, 0f6H
	DB	0c8H, 0a3H, 0c1H, 0a4H, 0b7H, 0c9H, 0a3H, 0baH, '%s', 00H ; `string'
CONST	ENDS
;	COMDAT ??_C@_0N@DKIOHJKC@?$LA?$KB?A?$LH?$MA?N?$LP?x?$KD?$LK?$CFd?$AA@
CONST	SEGMENT
??_C@_0N@DKIOHJKC@?$LA?$KB?A?$LH?$MA?N?$LP?x?$KD?$LK?$CFd?$AA@ DB 0b0H, 0a1H
	DB	0c1H, 0b7H, 0c0H, 0ceH, 0bfH, 0f8H, 0a3H, 0baH, '%d', 00H ; `string'
CONST	ENDS
;	COMDAT ??_C@_0N@LNHPBKEN@?A?$LH?$MA?e?$MA?L?$LI?$KH?$KD?$LK?$CFs?$AA@
CONST	SEGMENT
??_C@_0N@LNHPBKEN@?A?$LH?$MA?e?$MA?L?$LI?$KH?$KD?$LK?$CFs?$AA@ DB 0c1H, 0b7H
	DB	0c0H, 0e5H, 0c0H, 0ccH, 0b8H, 0a7H, 0a3H, 0baH, '%s', 00H ; `string'
CONST	ENDS
;	COMDAT ??_C@_0N@EFFHHOOF@?$LA?$KB?A?$LH?$MA?L?$LI?$KH?$KD?$LK?$CFs?$AA@
CONST	SEGMENT
??_C@_0N@EFFHHOOF@?$LA?$KB?A?$LH?$MA?L?$LI?$KH?$KD?$LK?$CFs?$AA@ DB 0b0H, 0a1H
	DB	0c1H, 0b7H, 0c0H, 0ccH, 0b8H, 0a7H, 0a3H, 0baH, '%s', 00H ; `string'
CONST	ENDS
;	COMDAT ??_C@_08KIHJGLGD@?$LA?$KB?A?$LH?A?$KE?$LK?$LI?$AA@
CONST	SEGMENT
??_C@_08KIHJGLGD@?$LA?$KB?A?$LH?A?$KE?$LK?$LI?$AA@ DB 0b0H, 0a1H, 0c1H, 0b7H
	DB	0c1H, 0a4H, 0baH, 0b8H, 00H			; `string'
CONST	ENDS
;	COMDAT ??_C@_0L@DJLGMOPM@?5?5?$LM?v?5?5?$LG?t?5?5?$AA@
CONST	SEGMENT
??_C@_0L@DJLGMOPM@?5?5?$LM?v?5?5?$LG?t?5?5?$AA@ DB '  ', 0bcH, 0f6H, '  ', 0b6H
	DB	0f4H, '  ', 00H				; `string'
CONST	ENDS
;	COMDAT ??_C@_09KOHGDBKE@?5?5?$LA?E?5?$MA?$PN?5?5?$AA@
CONST	SEGMENT
??_C@_09KOHGDBKE@?5?5?$LA?E?5?$MA?$PN?5?5?$AA@ DB '  ', 0b0H, 0c5H, ' ', 0c0H
	DB	0fdH, '  ', 00H				; `string'
CONST	ENDS
;	COMDAT ??_C@_0BD@HPIFLCKK@?$LM?v?$LG?t?G?O?$LN?C?$LA?Z?$LN?$MA?$LE?O?$LB?n?$KD?$LP?$AA@
CONST	SEGMENT
??_C@_0BD@HPIFLCKK@?$LM?v?$LG?t?G?O?$LN?C?$LA?Z?$LN?$MA?$LE?O?$LB?n?$KD?$LP?$AA@ DB 0bcH
	DB	0f6H, 0b6H, 0f4H, 0c7H, 0cfH, 0bdH, 0c3H, 0b0H, 0daH, 0bdH, 0c0H
	DB	0b4H, 0cfH, 0b1H, 0eeH, 0a3H, 0bfH, 00H	; `string'
CONST	ENDS
;	COMDAT ??_C@_0BM@JJMKEJNK@?$CFs?5?$LP?$KB?$LA?T?5?A?$LH?$MA?e?$MA?$LL?5?$MA?$KH?$MA?S?G?U?$LE?O?$LE?Y?$KD?$KM?$AA@
CONST	SEGMENT
??_C@_0BM@JJMKEJNK@?$CFs?5?$LP?$KB?$LA?T?5?A?$LH?$MA?e?$MA?$LL?5?$MA?$KH?$MA?S?G?U?$LE?O?$LE?Y?$KD?$KM?$AA@ DB '%'
	DB	's ', 0bfH, 0a1H, 0b0H, 0d4H, ' ', 0c1H, 0b7H, 0c0H, 0e5H, 0c0H
	DB	0bbH, ' ', 0c0H, 0a7H, 0c0H, 0d3H, 0c7H, 0d5H, 0b4H, 0cfH, 0b4H
	DB	0d9H, 0a3H, 0acH, 00H			; `string'
CONST	ENDS
;	COMDAT ??_C@_0BD@JJJPGLGO@L?$HMCHANGE?$HMA?$HM1?$HM?$CFs?$HM?$CFd?$AA@
CONST	SEGMENT
??_C@_0BD@JJJPGLGO@L?$HMCHANGE?$HMA?$HM1?$HM?$CFs?$HM?$CFd?$AA@ DB 'L|CHA'
	DB	'NGE|A|1|%s|%d', 00H				; `string'
CONST	ENDS
;	COMDAT ??_C@_0BD@FFDFGLPA@L?$HMCHANGE?$HMA?$HM0?$HM?$CFs?$HM?$CFd?$AA@
CONST	SEGMENT
??_C@_0BD@FFDFGLPA@L?$HMCHANGE?$HMA?$HM0?$HM?$CFs?$HM?$CFd?$AA@ DB 'L|CHA'
	DB	'NGE|A|0|%s|%d', 00H				; `string'
CONST	ENDS
;	COMDAT ??_C@_08PPLGHOJI@?5?5?$DP?5?5?$DP?5?5?$AA@
CONST	SEGMENT
??_C@_08PPLGHOJI@?5?5?$DP?5?5?$DP?5?5?$AA@ DB '  ?  ?  ', 00H ; `string'
CONST	ENDS
;	COMDAT ??_C@_0N@EPCBPGPN@?5?5?$LG?$LA?5?$LD?$KK?5?$LE?Y?5?5?$AA@
CONST	SEGMENT
??_C@_0N@EPCBPGPN@?5?5?$LG?$LA?5?$LD?$KK?5?$LE?Y?5?5?$AA@ DB '  ', 0b6H, 0b0H
	DB	' ', 0b3H, 0aaH, ' ', 0b4H, 0d9H, '  ', 00H	; `string'
CONST	ENDS
;	COMDAT ??_C@_0CA@FPBPENDN@?A?$LH?$MA?e?$MA?$LL?$CFs?$LP?$KB?$LA?T?5?$MA?$KH?$MA?S?G?O?$LN?C?$LA?Z?$LN?$MA?$LE?O?$LB?n?$KD?$LP?$AA@
CONST	SEGMENT
??_C@_0CA@FPBPENDN@?A?$LH?$MA?e?$MA?$LL?$CFs?$LP?$KB?$LA?T?5?$MA?$KH?$MA?S?G?O?$LN?C?$LA?Z?$LN?$MA?$LE?O?$LB?n?$KD?$LP?$AA@ DB 0c1H
	DB	0b7H, 0c0H, 0e5H, 0c0H, 0bbH, '%s', 0bfH, 0a1H, 0b0H, 0d4H, ' '
	DB	0c0H, 0a7H, 0c0H, 0d3H, 0c7H, 0cfH, 0bdH, 0c3H, 0b0H, 0daH, 0bdH
	DB	0c0H, 0b4H, 0cfH, 0b1H, 0eeH, 0a3H, 0bfH, 00H ; `string'
CONST	ENDS
;	COMDAT ??_C@_0BB@JFLIPKGJ@L?$HMCHANGE?$HMQ?$HM?$CFd?$HM?$CFs?$AA@
CONST	SEGMENT
??_C@_0BB@JFLIPKGJ@L?$HMCHANGE?$HMQ?$HM?$CFd?$HM?$CFs?$AA@ DB 'L|CHANGE|Q'
	DB	'|%d|%s', 00H				; `string'
CONST	ENDS
;	COMDAT ??_C@_0L@KPJPAJE@?5?5?$LG?$LA?$LD?$KK?$LE?Y?5?5?$AA@
CONST	SEGMENT
??_C@_0L@KPJPAJE@?5?5?$LG?$LA?$LD?$KK?$LE?Y?5?5?$AA@ DB '  ', 0b6H, 0b0H, 0b3H
	DB	0aaH, 0b4H, 0d9H, '  ', 00H			; `string'
CONST	ENDS
;	COMDAT ??_C@_0BJ@DODKFOKF@?$LA?$KB?A?$LH?$LB?$LI?$LM?$LK?$LP?x?$MA?$LL?$LM?$LB?E?C?G?O?$LM?$LM?$LP?d?$KD?$LK?$AA@
CONST	SEGMENT
??_C@_0BJ@DODKFOKF@?$LA?$KB?A?$LH?$LB?$LI?$LM?$LK?$LP?x?$MA?$LL?$LM?$LB?E?C?G?O?$LM?$LM?$LP?d?$KD?$LK?$AA@ DB 0b0H
	DB	0a1H, 0c1H, 0b7H, 0b1H, 0b8H, 0bcH, 0baH, 0bfH, 0f8H, 0c0H, 0bbH
	DB	0bcH, 0b1H, 0c5H, 0c3H, 0c7H, 0cfH, 0bcH, 0bcH, 0bfH, 0e4H, 0a3H
	DB	0baH, 00H					; `string'
CONST	ENDS
;	COMDAT ??_C@_0BL@IIIFLCHO@?$LL?s?$LE?k?$LI?$KG?5?$LM?$KN?$LF?Q?$LH?$KP?5?C?$KD?$LO?F?$LK?$LI?$LM?$LM?$LP?d?$KD?$KB?$AA@
CONST	SEGMENT
??_C@_0BL@IIIFLCHO@?$LL?s?$LE?k?$LI?$KG?5?$LM?$KN?$LF?Q?$LH?$KP?5?C?$KD?$LO?F?$LK?$LI?$LM?$LM?$LP?d?$KD?$KB?$AA@ DB 0bbH
	DB	0f3H, 0b4H, 0ebH, 0b8H, 0a6H, ' ', 0bcH, 0adH, 0b5H, 0d1H, 0b7H
	DB	0afH, ' ', 0c3H, 0a3H, 0beH, 0c6H, 0baH, 0b8H, 0bcH, 0bcH, 0bfH
	DB	0e4H, 0a3H, 0a1H, 00H			; `string'
CONST	ENDS
;	COMDAT ??_C@_0CE@FDKHNEAG@?E?$LO?$LN?B?$LA?$KB?$LE?I?G?Q?F?d?F?$KO?$LE?B?5?$LE?Y?$MA?$LN?$LA?z?5?$LA?$LA?$LN?$MA?$LE?O?$LE?Y@
CONST	SEGMENT
??_C@_0CE@FDKHNEAG@?E?$LO?$LN?B?$LA?$KB?$LE?I?G?Q?F?d?F?$KO?$LE?B?5?$LE?Y?$MA?$LN?$LA?z?5?$LA?$LA?$LN?$MA?$LE?O?$LE?Y@ DB 0c5H
	DB	0beH, 0bdH, 0c2H, 0b0H, 0a1H, 0b4H, 0c9H, 0c7H, 0d1H, 0c6H, 0e4H
	DB	0c6H, 0aeH, 0b4H, 0c2H, ' ', 0b4H, 0d9H, 0c0H, 0bdH, 0b0H, 0faH
	DB	' ', 0b0H, 0b0H, 0bdH, 0c0H, 0b4H, 0cfH, 0b4H, 0d9H, '.', 0a3H
	DB	0baH, 00H					; `string'
CONST	ENDS
;	COMDAT ??_C@_06BOIKNFOM@B?$HMT?$HM?$CFd?$AA@
CONST	SEGMENT
??_C@_06BOIKNFOM@B?$HMT?$HM?$CFd?$AA@ DB 'B|T|%d', 00H	; `string'
CONST	ENDS
;	COMDAT ??_C@_0BB@HNBGGGNE@?B?$PM?$LA?$KB?$MA?Z?$LM?v?$KD?$LK?5?$CFd?5?$LI?m?$AA@
CONST	SEGMENT
??_C@_0BB@HNBGGGNE@?B?$PM?$LA?$KB?$MA?Z?$LM?v?$KD?$LK?5?$CFd?5?$LI?m?$AA@ DB 0c2H
	DB	0fcH, 0b0H, 0a1H, 0c0H, 0daH, 0bcH, 0f6H, 0a3H, 0baH, ' %d ', 0b8H
	DB	0edH, 00H					; `string'
CONST	ENDS
;	COMDAT ??_C@_0BB@PNKEDEKN@?A?X?$LK?q?$LN?C?$LA?$KD?$KD?$LK?5?$CFd?5?$LK?P?$AA@
CONST	SEGMENT
??_C@_0BB@PNKEDEKN@?A?X?$LK?q?$LN?C?$LA?$KD?$KD?$LK?5?$CFd?5?$LK?P?$AA@ DB 0c1H
	DB	0d8H, 0baH, 0f1H, 0bdH, 0c3H, 0b0H, 0a3H, 0a3H, 0baH, ' %d ', 0baH
	DB	0d0H, 00H					; `string'
CONST	ENDS
;	COMDAT ??_C@_0L@PHNGNCKG@?$LN?E?C?$LL?$LA?$KB?A?$LH?$KD?$LK?$AA@
CONST	SEGMENT
??_C@_0L@PHNGNCKG@?$LN?E?C?$LL?$LA?$KB?A?$LH?$KD?$LK?$AA@ DB 0bdH, 0c5H, 0c3H
	DB	0bbH, 0b0H, 0a1H, 0c1H, 0b7H, 0a3H, 0baH, 00H ; `string'
CONST	ENDS
;	COMDAT ??_C@_0L@KBIJEBEK@?$LF?$LF?$MA?$PM?$LA?$KB?A?$LH?$KD?$LK?$AA@
CONST	SEGMENT
??_C@_0L@KBIJEBEK@?$LF?$LF?$MA?$PM?$LA?$KB?A?$LH?$KD?$LK?$AA@ DB 0b5H, 0b5H
	DB	0c0H, 0fcH, 0b0H, 0a1H, 0c1H, 0b7H, 0a3H, 0baH, 00H ; `string'
CONST	ENDS
;	COMDAT ??_C@_0N@LDIFEIBI@?$LA?$KB?A?$LH?$LE?k?$LA?a?$LN?E?C?$LL?$AA@
CONST	SEGMENT
??_C@_0N@LDIFEIBI@?$LA?$KB?A?$LH?$LE?k?$LA?a?$LN?E?C?$LL?$AA@ DB 0b0H, 0a1H
	DB	0c1H, 0b7H, 0b4H, 0ebH, 0b0H, 0e1H, 0bdH, 0c5H, 0c3H, 0bbH, 00H ; `string'
CONST	ENDS
;	COMDAT ??_C@_0BC@PKDFJBMN@?$CFs?$HM?$CFs?$HM?$CFs?$HM?$CFd?$HM?$CFd?$HM?$CFd?$AA@
CONST	SEGMENT
??_C@_0BC@PKDFJBMN@?$CFs?$HM?$CFs?$HM?$CFs?$HM?$CFd?$HM?$CFd?$HM?$CFd?$AA@ DB '%'
	DB	's|%s|%s|%d|%d|%d', 00H			; `string'
CONST	ENDS
;	COMDAT ??_C@_05EMGOANLP@?$CF?916s?$AA@
CONST	SEGMENT
??_C@_05EMGOANLP@?$CF?916s?$AA@ DB '%-16s', 00H		; `string'
CONST	ENDS
;	COMDAT ??_C@_0BP@FOLPFEDH@?$LN?E?C?$LL?G?O?$LN?G?5?$LA?$KB?A?$LH?$MA?$LL?5?$LM?$LB?E?C?G?X?A?V?$LM?$LM?$LP?d?$KD?$LK?$AA@
CONST	SEGMENT
??_C@_0BP@FOLPFEDH@?$LN?E?C?$LL?G?O?$LN?G?5?$LA?$KB?A?$LH?$MA?$LL?5?$LM?$LB?E?C?G?X?A?V?$LM?$LM?$LP?d?$KD?$LK?$AA@ DB 0bdH
	DB	0c5H, 0c3H, 0bbH, 0c7H, 0cfH, 0bdH, 0c7H, ' ', 0b0H, 0a1H, 0c1H
	DB	0b7H, 0c0H, 0bbH, ' ', 0bcH, 0b1H, 0c5H, 0c3H, 0c7H, 0d8H, 0c1H
	DB	0d6H, 0bcH, 0bcH, 0bfH, 0e4H, 0a3H, 0baH, 00H ; `string'
CONST	ENDS
;	COMDAT ??_C@_04FIBCPIPH@?$CF10s?$AA@
CONST	SEGMENT
??_C@_04FIBCPIPH@?$CF10s?$AA@ DB '%10s', 00H		; `string'
CONST	ENDS
;	COMDAT ??_C@_0O@DBFPDLEJ@?$LN?B?$LI?$KO?A?$LG?$LA?G?$KD?$LK?5?$CFs?$AA@
CONST	SEGMENT
??_C@_0O@DBFPDLEJ@?$LN?B?$LI?$KO?A?$LG?$LA?G?$KD?$LK?5?$CFs?$AA@ DB 0bdH, 0c2H
	DB	0b8H, 0aeH, 0c1H, 0b6H, 0b0H, 0c7H, 0a3H, 0baH, ' %s', 00H ; `string'
CONST	ENDS
;	COMDAT ??_C@_0CA@FLGBJLNM@?$CF10s?5?5?$CF16s?5?5?$CF16s?5?5?$CF4d?$NN?B?$DP?5?5?$CF6d?l?Q?$AA@
CONST	SEGMENT
??_C@_0CA@FLGBJLNM@?$CF10s?5?5?$CF16s?5?5?$CF16s?5?5?$CF4d?$NN?B?$DP?5?5?$CF6d?l?Q?$AA@ DB '%'
	DB	'10s  %16s  %16s  %4d', 0ddH, 0c2H, '?  %6d', 0ecH, 0d1H, 00H ; `string'
CONST	ENDS
;	COMDAT ??_C@_0L@FBMAKMIA@?$LP?$MA?$LE?C?5?$CFd?300?$AA@
CONST	SEGMENT
??_C@_0L@FBMAKMIA@?$LP?$MA?$LE?C?5?$CFd?300?$AA@ DB 0bfH, 0c0H, 0b4H, 0c3H
	DB	' %d:00', 00H				; `string'
CONST	ENDS
;	COMDAT ??_C@_0L@KPJDMHLO@?$LD?$LL?$MA?O?5?$CFd?300?$AA@
CONST	SEGMENT
??_C@_0L@KPJDMHLO@?$LD?$LL?$MA?O?5?$CFd?300?$AA@ DB 0b3H, 0bbH, 0c0H, 0cfH
	DB	' %d:00', 00H				; `string'
CONST	ENDS
;	COMDAT ??_C@_0BL@LCOOKBCN@?$CF10s?5?5?$CF16s?5?5?$CF16s?5?5?$CF8s?5?5?$CF8s?$AA@
CONST	SEGMENT
??_C@_0BL@LCOOKBCN@?$CF10s?5?5?$CF16s?5?5?$CF16s?5?5?$CF8s?5?5?$CF8s?$AA@ DB '%'
	DB	'10s  %16s  %16s  %8s  %8s', 00H		; `string'
CONST	ENDS
;	COMDAT ??_C@_08GLHNCABG@?$LA?$LD?$MA?$PM?$LN?C?$LA?$KD?$AA@
CONST	SEGMENT
??_C@_08GLHNCABG@?$LA?$LD?$MA?$PM?$LN?C?$LA?$KD?$AA@ DB 0b0H, 0b3H, 0c0H, 0fcH
	DB	0bdH, 0c3H, 0b0H, 0a3H, 00H			; `string'
CONST	ENDS
;	COMDAT ??_C@_08PFKHECNF@?$LF?$LF?$MA?$PM?$LA?$KB?A?$LH?$AA@
CONST	SEGMENT
??_C@_08PFKHECNF@?$LF?$LF?$MA?$PM?$LA?$KB?A?$LH?$AA@ DB 0b5H, 0b5H, 0c0H, 0fcH
	DB	0b0H, 0a1H, 0c1H, 0b7H, 00H			; `string'
CONST	ENDS
;	COMDAT ??_C@_08MBJKFBBE@?$LN?E?C?$LL?$LA?$KB?A?$LH?$AA@
CONST	SEGMENT
??_C@_08MBJKFBBE@?$LN?E?C?$LL?$LA?$KB?A?$LH?$AA@ DB 0bdH, 0c5H, 0c3H, 0bbH
	DB	0b0H, 0a1H, 0c1H, 0b7H, 00H			; `string'
CONST	ENDS
;	COMDAT ??_C@_08PFKCNHNG@?A?X?$LK?q?$LN?C?$LA?$KD?$AA@
CONST	SEGMENT
??_C@_08PFKCNHNG@?A?X?$LK?q?$LN?C?$LA?$KD?$AA@ DB 0c1H, 0d8H, 0baH, 0f1H, 0bdH
	DB	0c3H, 0b0H, 0a3H, 00H			; `string'
CONST	ENDS
;	COMDAT ??_C@_0N@MJLHBHM@?B?$PM?$LA?$KB?5?$MA?N?$LP?x?5?$LM?v?$AA@
CONST	SEGMENT
??_C@_0N@MJLHBHM@?B?$PM?$LA?$KB?5?$MA?N?$LP?x?5?$LM?v?$AA@ DB 0c2H, 0fcH, 0b0H
	DB	0a1H, ' ', 0c0H, 0ceH, 0bfH, 0f8H, ' ', 0bcH, 0f6H, 00H ; `string'
CONST	ENDS
;	COMDAT ??_C@_0BB@NLEMPNJJ@?G?v?$MA?g?$LN?C?$LA?$KD?$KD?$LK?5?$CFd?3?$CFd?$AA@
CONST	SEGMENT
??_C@_0BB@NLEMPNJJ@?G?v?$MA?g?$LN?C?$LA?$KD?$KD?$LK?5?$CFd?3?$CFd?$AA@ DB 0c7H
	DB	0f6H, 0c0H, 0e7H, 0bdH, 0c3H, 0b0H, 0a3H, 0a3H, 0baH, ' %d:%d', 00H ; `string'
CONST	ENDS
;	COMDAT ??_C@_0N@OOICEDBI@?$LA?$KB?A?$LH?$MA?$PM?E?u?$MA?O?A?$KE?$AA@
CONST	SEGMENT
??_C@_0N@OOICEDBI@?$LA?$KB?A?$LH?$MA?$PM?E?u?$MA?O?A?$KE?$AA@ DB 0b0H, 0a1H
	DB	0c1H, 0b7H, 0c0H, 0fcH, 0c5H, 0f5H, 0c0H, 0cfH, 0c1H, 0a4H, 00H ; `string'
CONST	ENDS
;	COMDAT ??_C@_06LCJOFINF@?$LP?$LJ?5?5?A?$KE?$AA@
CONST	SEGMENT
??_C@_06LCJOFINF@?$LP?$LJ?5?5?A?$KE?$AA@ DB 0bfH, 0b9H, '  ', 0c1H, 0a4H, 00H ; `string'
CONST	ENDS
;	COMDAT ??_C@_08MOJFPAKN@?$MA?$MA?$LE?d?$LE?k?$LB?b?$AA@
CONST	SEGMENT
??_C@_08MOJFPAKN@?$MA?$MA?$LE?d?$LE?k?$LB?b?$AA@ DB 0c0H, 0c0H, 0b4H, 0e4H
	DB	0b4H, 0ebH, 0b1H, 0e2H, 00H			; `string'
CONST	ENDS
;	COMDAT ??_C@_08EJIOEONO@?$LM?$LD?5?A?$KE?5?A?$NP?$AA@
CONST	SEGMENT
??_C@_08EJIOEONO@?$LM?$LD?5?A?$KE?5?A?$NP?$AA@ DB 0bcH, 0b3H, ' ', 0c1H, 0a4H
	DB	' ', 0c1H, 0dfH, 00H				; `string'
CONST	ENDS
;	COMDAT ??_C@_08PCGBOOHO@?5?$LP?$KM?5?5?$LA?a?5?$AA@
CONST	SEGMENT
??_C@_08PCGBOOHO@?5?$LP?$KM?5?5?$LA?a?5?$AA@ DB ' ', 0bfH, 0acH, '  ', 0b0H
	DB	0e1H, ' ', 00H				; `string'
CONST	ENDS
;	COMDAT ??_C@_08FOJJNHLG@?5?$LM?v?5?5?A?$KE?5?$AA@
CONST	SEGMENT
??_C@_08FOJJNHLG@?5?$LM?v?5?5?A?$KE?5?$AA@ DB ' ', 0bcH, 0f6H, '  ', 0c1H
	DB	0a4H, ' ', 00H				; `string'
CONST	ENDS
;	COMDAT ??_C@_08KEIECNNH@?5?C?$NP?5?5?$LA?$KB?5?$AA@
CONST	SEGMENT
??_C@_08KEIECNNH@?5?C?$NP?5?5?$LA?$KB?5?$AA@ DB ' ', 0c3H, 0dfH, '  ', 0b0H
	DB	0a1H, ' ', 00H				; `string'
CONST	ENDS
;	COMDAT ??_C@_0BI@GILIOCHN@?$LK?q?$LJ?P?$LJ?x?H?$KD?$LI?$KG?5?$MA?T?$LH?B?G?X?A?V?$LM?$LM?$LP?d?$AA@
CONST	SEGMENT
??_C@_0BI@GILIOCHN@?$LK?q?$LJ?P?$LJ?x?H?$KD?$LI?$KG?5?$MA?T?$LH?B?G?X?A?V?$LM?$LM?$LP?d?$AA@ DB 0baH
	DB	0f1H, 0b9H, 0d0H, 0b9H, 0f8H, 0c8H, 0a3H, 0b8H, 0a6H, ' ', 0c0H
	DB	0d4H, 0b7H, 0c2H, 0c7H, 0d8H, 0c1H, 0d6H, 0bcH, 0bcH, 0bfH, 0e4H
	DB	00H						; `string'
CONST	ENDS
;	COMDAT ??_C@_0BH@BGEMBKPO@?$LK?q?$LJ?P?$LJ?x?H?$KD?$LA?$KB?5?F?$LC?$LH?H?$LN?$MA?$LE?O?$LE?Y?4?$AA@
CONST	SEGMENT
??_C@_0BH@BGEMBKPO@?$LK?q?$LJ?P?$LJ?x?H?$KD?$LA?$KB?5?F?$LC?$LH?H?$LN?$MA?$LE?O?$LE?Y?4?$AA@ DB 0baH
	DB	0f1H, 0b9H, 0d0H, 0b9H, 0f8H, 0c8H, 0a3H, 0b0H, 0a1H, ' ', 0c6H
	DB	0b2H, 0b7H, 0c8H, 0bdH, 0c0H, 0b4H, 0cfH, 0b4H, 0d9H, '.', 00H ; `string'
CONST	ENDS
;	COMDAT ??_C@_0BE@DIPOFJGG@?D?I?$LI?$KP?E?M?$LI?$KG?5?$LL?h?A?$KG?G?U?$LE?O?$LE?Y?$AA@
CONST	SEGMENT
??_C@_0BE@DIPOFJGG@?D?I?$LI?$KP?E?M?$LI?$KG?5?$LL?h?A?$KG?G?U?$LE?O?$LE?Y?$AA@ DB 0c4H
	DB	0c9H, 0b8H, 0afH, 0c5H, 0cdH, 0b8H, 0a6H, ' ', 0bbH, 0e8H, 0c1H
	DB	0a6H, 0c7H, 0d5H, 0b4H, 0cfH, 0b4H, 0d9H, 00H ; `string'
CONST	ENDS
;	COMDAT ??_C@_0CK@PKMNOIEH@?D?I?$LI?$KP?E?M?$LI?$KG?5?$LL?h?A?$KG?G?O?$LH?A?$LI?i?5?$LK?q?$LJ?P?$LJ?x?H?$KD?$LI?$KG?5?$MA@
CONST	SEGMENT
??_C@_0CK@PKMNOIEH@?D?I?$LI?$KP?E?M?$LI?$KG?5?$LL?h?A?$KG?G?O?$LH?A?$LI?i?5?$LK?q?$LJ?P?$LJ?x?H?$KD?$LI?$KG?5?$MA@ DB 0c4H
	DB	0c9H, 0b8H, 0afH, 0c5H, 0cdH, 0b8H, 0a6H, ' ', 0bbH, 0e8H, 0c1H
	DB	0a6H, 0c7H, 0cfH, 0b7H, 0c1H, 0b8H, 0e9H, ' ', 0baH, 0f1H, 0b9H
	DB	0d0H, 0b9H, 0f8H, 0c8H, 0a3H, 0b8H, 0a6H, ' ', 0c0H, 0d4H, 0b7H
	DB	0c2H, 0c7H, 0cfH, 0bcH, 0bcH, 0bfH, 0e4H, 00H ; `string'
CONST	ENDS
;	COMDAT ??_C@_06CJHLLHBH@?5?C?k?$LM?R?5?$AA@
CONST	SEGMENT
??_C@_06CJHLLHBH@?5?C?k?$LM?R?5?$AA@ DB ' ', 0c3H, 0ebH, 0bcH, 0d2H, ' ', 00H ; `string'
CONST	ENDS
;	COMDAT ??_C@_04OKOHEJBO@?5?$DP?$DP?5?$AA@
CONST	SEGMENT
??_C@_04OKOHEJBO@?5?$DP?$DP?5?$AA@ DB ' ?? ', 00H	; `string'
CONST	ENDS
;	COMDAT ??_C@_0CL@PEELKHDI@?$KB?$KO?$LM?x?$MA?$KH?$KB?$KP?5?$KB?$KO?$LK?N?A?$LH?$MA?L?$LI?$KH?$KB?$KP?5?$KB?$KO?A?$LH?$MA?e?$KB?$KP?5?5@
CONST	SEGMENT
??_C@_0CL@PEELKHDI@?$KB?$KO?$LM?x?$MA?$KH?$KB?$KP?5?$KB?$KO?$LK?N?A?$LH?$MA?L?$LI?$KH?$KB?$KP?5?$KB?$KO?A?$LH?$MA?e?$KB?$KP?5?5@ DB 0a1H
	DB	0aeH, 0bcH, 0f8H, 0c0H, 0a7H, 0a1H, 0afH, ' ', 0a1H, 0aeH, 0baH
	DB	0ceH, 0c1H, 0b7H, 0c0H, 0ccH, 0b8H, 0a7H, 0a1H, 0afH, ' ', 0a1H
	DB	0aeH, 0c1H, 0b7H, 0c0H, 0e5H, 0a1H, 0afH, '  ', 0a1H, 0aeH, 0c6H
	DB	0f7H, 0c0H, 0ceH, 0c6H, 0aeH, 0a1H, 0afH, 00H ; `string'
CONST	ENDS
;	COMDAT ??_C@_0CF@CPAJCIOI@?5?5?5?5?5?5?5?5?5?5?5?5?5?5?5?5?5?5?$KB?$KO?$LM?$KN?$LJ?v?5?$LA?$KB?A?$LH?5?$LM?x@
CONST	SEGMENT
??_C@_0CF@CPAJCIOI@?5?5?5?5?5?5?5?5?5?5?5?5?5?5?5?5?5?5?$KB?$KO?$LM?$KN?$LJ?v?5?$LA?$KB?A?$LH?5?$LM?x@ DB ' '
	DB	'                 ', 0a1H, 0aeH, 0bcH, 0adH, 0b9H, 0f6H, ' ', 0b0H
	DB	0a1H, 0c1H, 0b7H, ' ', 0bcH, 0f8H, 0c0H, 0a7H, 0a1H, 0afH, 00H ; `string'
CONST	ENDS
;	COMDAT ??_C@_0BE@BGDICKKN@?5?$CF?99s?$CF?919s?$CF?917s?$CF12s?$AA@
CONST	SEGMENT
??_C@_0BE@BGDICKKN@?5?$CF?99s?$CF?919s?$CF?917s?$CF12s?$AA@ DB ' %-9s%-19'
	DB	's%-17s%12s', 00H				; `string'
CONST	ENDS
;	COMDAT ??_C@_0EB@DMPCKEKC@?$KB?$KO?$LM?x?$MA?$KH?$KB?$KP?$KB?$KO?$LA?$KB?5?A?$LH?5?$LI?m?5?D?$KK?$KB?$KP?$KB?$KO?A?$LH?5?$MA?e?5?$MA@
CONST	SEGMENT
??_C@_0EB@DMPCKEKC@?$KB?$KO?$LM?x?$MA?$KH?$KB?$KP?$KB?$KO?$LA?$KB?5?A?$LH?5?$LI?m?5?D?$KK?$KB?$KP?$KB?$KO?A?$LH?5?$MA?e?5?$MA@ DB 0a1H
	DB	0aeH, 0bcH, 0f8H, 0c0H, 0a7H, 0a1H, 0afH, 0a1H, 0aeH, 0b0H, 0a1H
	DB	' ', 0c1H, 0b7H, ' ', 0b8H, 0edH, ' ', 0c4H, 0aaH, 0a1H, 0afH, 0a1H
	DB	0aeH, 0c1H, 0b7H, ' ', 0c0H, 0e5H, ' ', 0c0H, 0ccH, ' ', 0b8H, 0a7H
	DB	0a1H, 0afH, 0a1H, 0aeH, 0b0H, 0a1H, 0c1H, 0b7H, 0c0H, 0c7H, 0c6H
	DB	0f2H, 0c6H, 0c7H, 0a1H, 0afH, 0a1H, 0aeH, 0b0H, 0b3H, 0c0H, 0ceH
	DB	0b1H, 0e2H, 0bcH, 0bcH, 0a1H, 0afH, 00H	; `string'
CONST	ENDS
;	COMDAT ??_C@_0BD@NPAMGOGD@?$KB?$KO?$LM?$KN?$LJ?v?5?$LK?N?A?$LH?5?$LM?x?$MA?$KH?$KB?$KP?$AA@
CONST	SEGMENT
??_C@_0BD@NPAMGOGD@?$KB?$KO?$LM?$KN?$LJ?v?5?$LK?N?A?$LH?5?$LM?x?$MA?$KH?$KB?$KP?$AA@ DB 0a1H
	DB	0aeH, 0bcH, 0adH, 0b9H, 0f6H, ' ', 0baH, 0ceH, 0c1H, 0b7H, ' ', 0bcH
	DB	0f8H, 0c0H, 0a7H, 0a1H, 0afH, 00H		; `string'
CONST	ENDS
;	COMDAT ??_C@_0DO@OAPGBLPG@?$KB?$KO?$LM?x?$MA?$KH?$KB?$KP?5?$KB?$KO?$LK?N?A?$LH?$MA?L?$LI?$KH?$KB?$KP?5?$KB?$KO?A?$LH?$MA?e?$KB?$KP?5?$KB@
CONST	SEGMENT
??_C@_0DO@OAPGBLPG@?$KB?$KO?$LM?x?$MA?$KH?$KB?$KP?5?$KB?$KO?$LK?N?A?$LH?$MA?L?$LI?$KH?$KB?$KP?5?$KB?$KO?A?$LH?$MA?e?$KB?$KP?5?$KB@ DB 0a1H
	DB	0aeH, 0bcH, 0f8H, 0c0H, 0a7H, 0a1H, 0afH, ' ', 0a1H, 0aeH, 0baH
	DB	0ceH, 0c1H, 0b7H, 0c0H, 0ccH, 0b8H, 0a7H, 0a1H, 0afH, ' ', 0a1H
	DB	0aeH, 0c1H, 0b7H, 0c0H, 0e5H, 0a1H, 0afH, ' ', 0a1H, 0aeH, 0b1H
	DB	0e2H, 0bfH, 0a9H, 0b5H, 0b5H, 0a1H, 0afH, 0a1H, 0aeH, 0b8H, 0edH
	DB	0bcH, 0baH, 0a1H, 0afH, 0a1H, 0aeH, 0baH, 0ceH, 0c1H, 0b7H, 0b8H
	DB	0edH, 0bcH, 0baH, 0a1H, 0afH, 00H		; `string'
CONST	ENDS
;	COMDAT ??_C@_0BE@KCIAGAPO@?$KB?$KO?$LM?$KN?$LJ?v?5?$LK?N?A?$LH?5?$LM?x?$MA?$KH?5?$KB?$KP?$AA@
CONST	SEGMENT
??_C@_0BE@KCIAGAPO@?$KB?$KO?$LM?$KN?$LJ?v?5?$LK?N?A?$LH?5?$LM?x?$MA?$KH?5?$KB?$KP?$AA@ DB 0a1H
	DB	0aeH, 0bcH, 0adH, 0b9H, 0f6H, ' ', 0baH, 0ceH, 0c1H, 0b7H, ' ', 0bcH
	DB	0f8H, 0c0H, 0a7H, ' ', 0a1H, 0afH, 00H	; `string'
CONST	ENDS
;	COMDAT ??_C@_0BG@HKOCFEKA@?$CF?97s?$CF?916s?$CF?916s?$CF8d?$CF12d?$AA@
CONST	SEGMENT
??_C@_0BG@HKOCFEKA@?$CF?97s?$CF?916s?$CF?916s?$CF8d?$CF12d?$AA@ DB '%-7s%'
	DB	'-16s%-16s%8d%12d', 00H			; `string'
CONST	ENDS
;	COMDAT ??_C@_0BN@EPBIJHBO@?5?$CF?97s?$CF?918s?$CF?916s?$CF13d?$CF12d?$CF14d?$CF?$AA@
CONST	SEGMENT
??_C@_0BN@EPBIJHBO@?5?$CF?97s?$CF?918s?$CF?916s?$CF13d?$CF12d?$CF14d?$CF?$AA@ DB ' '
	DB	'%-7s%-18s%-16s%13d%12d%14d%', 00H		; `string'
CONST	ENDS
;	COMDAT ??_C@_01HIHLOKLC@1?$AA@
CONST	SEGMENT
??_C@_01HIHLOKLC@1?$AA@ DB '1', 00H			; `string'
CONST	ENDS
;	COMDAT ??_C@_0BF@MDCNOKLO@?$DP?$DP?5?$CFs?5?A?$KG?$LI?m?$LN?C?E?$LD?$LB?n?$LP?d?$KD?$LP?$AA@
CONST	SEGMENT
??_C@_0BF@MDCNOKLO@?$DP?$DP?5?$CFs?5?A?$KG?$LI?m?$LN?C?E?$LD?$LB?n?$LP?d?$KD?$LP?$AA@ DB '?'
	DB	'? %s ', 0c1H, 0a6H, 0b8H, 0edH, 0bdH, 0c3H, 0c5H, 0b3H, 0b1H, 0eeH
	DB	0bfH, 0e4H, 0a3H, 0bfH, 00H			; `string'
CONST	ENDS
;	COMDAT ??_C@_0L@GOKAMOPJ@?$LI?C?$MA?$LK?A?w?C?$KF?$KD?$LK?$AA@
CONST	SEGMENT
??_C@_0L@GOKAMOPJ@?$LI?C?$MA?$LK?A?w?C?$KF?$KD?$LK?$AA@ DB 0b8H, 0c3H, 0c0H
	DB	0baH, 0c1H, 0f7H, 0c3H, 0a5H, 0a3H, 0baH, 00H ; `string'
CONST	ENDS
;	COMDAT ??_C@_04KMMDIKEB@?5?$CFs?5?$AA@
CONST	SEGMENT
??_C@_04KMMDIKEB@?5?$CFs?5?$AA@ DB ' %s ', 00H		; `string'
CONST	ENDS
;	COMDAT ??_C@_0L@DJCDNCBF@?$LM?$LB?E?C?G?O?$LM?$LM?$LP?d?$AA@
CONST	SEGMENT
??_C@_0L@DJCDNCBF@?$LM?$LB?E?C?G?O?$LM?$LM?$LP?d?$AA@ DB 0bcH, 0b1H, 0c5H
	DB	0c3H, 0c7H, 0cfH, 0bcH, 0bcH, 0bfH, 0e4H, 00H ; `string'
CONST	ENDS
;	COMDAT ??_C@_08JAKOPBJC@?C?k?5?5?5?5?$LM?R?$AA@
CONST	SEGMENT
??_C@_08JAKOPBJC@?C?k?5?5?5?5?$LM?R?$AA@ DB 0c3H, 0ebH, '    ', 0bcH, 0d2H
	DB	00H						; `string'
CONST	ENDS
;	COMDAT ??_C@_0L@CMOKCILO@?$MA?O?$LJ?$NN?$LK?N?A?$LH?$LP?x?$AA@
CONST	SEGMENT
??_C@_0L@CMOKCILO@?$MA?O?$LJ?$NN?$LK?N?A?$LH?$LP?x?$AA@ DB 0c0H, 0cfH, 0b9H
	DB	0ddH, 0baH, 0ceH, 0c1H, 0b7H, 0bfH, 0f8H, 00H ; `string'
CONST	ENDS
;	COMDAT ??_C@_0CI@NMHOIHGJ@?$KB?$KO?$MA?e?5?$LM?R?$KB?$KP?$KB?$KO?$LF?$LP?$KB?$KP?$KB?$KO?$LD?$LC?$KB?$KP?5?5?5?5?5?5?5?5?$KB?$KO?$LL@
CONST	SEGMENT
??_C@_0CI@NMHOIHGJ@?$KB?$KO?$MA?e?5?$LM?R?$KB?$KP?$KB?$KO?$LF?$LP?$KB?$KP?$KB?$KO?$LD?$LC?$KB?$KP?5?5?5?5?5?5?5?5?$KB?$KO?$LL@ DB 0a1H
	DB	0aeH, 0c0H, 0e5H, ' ', 0bcH, 0d2H, 0a1H, 0afH, 0a1H, 0aeH, 0b5H
	DB	0bfH, 0a1H, 0afH, 0a1H, 0aeH, 0b3H, 0b2H, 0a1H, 0afH, '       '
	DB	' ', 0a1H, 0aeH, 0bbH, 0f3H, '  ', 0c5H, 0c2H, 0a1H, 0afH, 00H ; `string'
CONST	ENDS
;	COMDAT ??_C@_0CB@EPJNIDND@?5?5?5?5?5?5?5?5?$KB?$KO?$LA?$KB?A?$LH?$LB?b?$LJ?$NN?G?A?$LH?N?$LB?W?$LH?$KF?$LI?q?$LH?O?$KB?$KP@
CONST	SEGMENT
??_C@_0CB@EPJNIDND@?5?5?5?5?5?5?5?5?$KB?$KO?$LA?$KB?A?$LH?$LB?b?$LJ?$NN?G?A?$LH?N?$LB?W?$LH?$KF?$LI?q?$LH?O?$KB?$KP@ DB ' '
	DB	'       ', 0a1H, 0aeH, 0b0H, 0a1H, 0c1H, 0b7H, 0b1H, 0e2H, 0b9H
	DB	0ddH, 0c7H, 0c1H, 0b7H, 0ceH, 0b1H, 0d7H, 0b7H, 0a5H, 0b8H, 0f1H
	DB	0b7H, 0cfH, 0a1H, 0afH, 00H			; `string'
CONST	ENDS
;	COMDAT ??_C@_07MEJNJNBN@P?$HM?$CFd?$HM?$CFs?$AA@
CONST	SEGMENT
??_C@_07MEJNJNBN@P?$HM?$CFd?$HM?$CFs?$AA@ DB 'P|%d|%s', 00H ; `string'
CONST	ENDS
;	COMDAT ??_C@_08CKOJLPBB@?$CFs?$HM?$CFs?$HM?$CFs?$AA@
CONST	SEGMENT
??_C@_08CKOJLPBB@?$CFs?$HM?$CFs?$HM?$CFs?$AA@ DB '%s|%s|%s', 00H ; `string'
CONST	ENDS
;	COMDAT ??_C@_0P@HOFHBIDI@?$CF9s?$CF5s?5?$CF5s?$CF18s?$AA@
CONST	SEGMENT
??_C@_0P@HOFHBIDI@?$CF9s?$CF5s?5?$CF5s?$CF18s?$AA@ DB '%9s%5s %5s%18s', 00H ; `string'
CONST	ENDS
;	COMDAT ??_C@_06OOGDCHLD@?$LJ?L?$LL?g?$LP?k?$AA@
CONST	SEGMENT
??_C@_06OOGDCHLD@?$LJ?L?$LL?g?$LP?k?$AA@ DB 0b9H, 0ccH, 0bbH, 0e7H, 0bfH, 0ebH
	DB	00H						; `string'
CONST	ENDS
;	COMDAT ??_C@_06LKHMHEK@?$LO?F?$LN?C?$LO?F?$AA@
CONST	SEGMENT
??_C@_06LKHMHEK@?$LO?F?$LN?C?$LO?F?$AA@ DB 0beH, 0c6H, 0bdH, 0c3H, 0beH, 0c6H
	DB	00H						; `string'
CONST	ENDS
;	COMDAT ??_C@_08BBBHHHEB@?$LO?$NP?5?$MA?L?5?$LP?$MA?$AA@
CONST	SEGMENT
??_C@_08BBBHHHEB@?$LO?$NP?5?$MA?L?5?$LP?$MA?$AA@ DB 0beH, 0dfH, ' ', 0c0H
	DB	0ccH, ' ', 0bfH, 0c0H, 00H			; `string'
CONST	ENDS
;	COMDAT ??_C@_07LHCKFMFL@?$NN?W?5?V?$KN?5?$DP?$AA@
CONST	SEGMENT
??_C@_07LHCKFMFL@?$NN?W?5?V?$KN?5?$DP?$AA@ DB 0ddH, 0d7H, ' ', 0d6H, 0adH
	DB	' ?', 00H					; `string'
CONST	ENDS
;	COMDAT ??_C@_08NFLGLILK@?$LE?O?5?5?5?5?$LN?$LK?$AA@
CONST	SEGMENT
??_C@_08NFLGLILK@?$LE?O?5?5?5?5?$LN?$LK?$AA@ DB 0b4H, 0cfH, '    ', 0bdH, 0baH
	DB	00H						; `string'
CONST	ENDS
;	COMDAT ??_C@_08PLFMPCKD@?E?$LI?5?$LI?$KD?5?E?$LI?$AA@
CONST	SEGMENT
??_C@_08PLFMPCKD@?E?$LI?5?$LI?$KD?5?E?$LI?$AA@ DB 0c5H, 0b8H, ' ', 0b8H, 0a3H
	DB	' ', 0c5H, 0b8H, 00H				; `string'
CONST	ENDS
;	COMDAT ??_C@_08GDPNKJEK@?$LP?$KB?5?5?5?5?$LF?$KH?$AA@
CONST	SEGMENT
??_C@_08GDPNKJEK@?$LP?$KB?5?5?5?5?$LF?$KH?$AA@ DB 0bfH, 0a1H, '    ', 0b5H
	DB	0a7H, 00H					; `string'
CONST	ENDS
;	COMDAT ??_C@_08IPKKANCP@?D?$KL?$LH?g?E?$LI?$LD?$KK?$AA@
CONST	SEGMENT
??_C@_08IPKKANCP@?D?$KL?$LH?g?E?$LI?$LD?$KK?$AA@ DB 0c4H, 0abH, 0b7H, 0e7H
	DB	0c5H, 0b8H, 0b3H, 0aaH, 00H			; `string'
CONST	ENDS
;	COMDAT ??_C@_08HCKLDHDO@?$MA?p?5?5?5?5?$MA?p?$AA@
CONST	SEGMENT
??_C@_08HCKLDHDO@?$MA?p?5?5?5?5?$MA?p?$AA@ DB 0c0H, 0f0H, '    ', 0c0H, 0f0H
	DB	00H						; `string'
CONST	ENDS
;	COMDAT ??_C@_08FHGEHAHK@?$LI?$LG?$LI?$KO?$LD?J?$LN?$LK?$AA@
CONST	SEGMENT
??_C@_08FHGEHAHK@?$LI?$LG?$LI?$KO?$LD?J?$LN?$LK?$AA@ DB 0b8H, 0b6H, 0b8H, 0aeH
	DB	0b3H, 0caH, 0bdH, 0baH, 00H			; `string'
CONST	ENDS
;	COMDAT ??_C@_0L@PNJCCPBJ@?$LM?$KE?$LB?b?$LI?$KD?$LI?$LG?$MA?$LL?$AA@
CONST	SEGMENT
??_C@_0L@PNJCCPBJ@?$LM?$KE?$LB?b?$LI?$KD?$LI?$LG?$MA?$LL?$AA@ DB 0bcH, 0a4H
	DB	0b1H, 0e2H, 0b8H, 0a3H, 0b8H, 0b6H, 0c0H, 0bbH, 00H ; `string'
CONST	ENDS
;	COMDAT ??_C@_0BE@BNBIMIKL@?$KB?$KO?$LA?$KB?5?A?$LH?5?$LA?T?5?$LN?C?5?F?G?5?$KB?$KP?$AA@
CONST	SEGMENT
??_C@_0BE@BNBIMIKL@?$KB?$KO?$LA?$KB?5?A?$LH?5?$LA?T?5?$LN?C?5?F?G?5?$KB?$KP?$AA@ DB 0a1H
	DB	0aeH, 0b0H, 0a1H, ' ', 0c1H, 0b7H, ' ', 0b0H, 0d4H, ' ', 0bdH, 0c3H
	DB	' ', 0c6H, 0c7H, ' ', 0a1H, 0afH, 00H	; `string'
CONST	ENDS
;	COMDAT ??_C@_05GOJDKKEO@?$CFd?$HM?$CFs?$AA@
CONST	SEGMENT
??_C@_05GOJDKKEO@?$CFd?$HM?$CFs?$AA@ DB '%d|%s', 00H	; `string'
CONST	ENDS
;	COMDAT ??_C@_01DNKMNLPK@?$HM?$AA@
CONST	SEGMENT
??_C@_01DNKMNLPK@?$HM?$AA@ DB '|', 00H			; `string'
CONST	ENDS
;	COMDAT ??_C@_0EI@MNEGDEON@?5?$KD?$NL?A?$KC?$LM?S?$KD?$NN?$KD?$NL?$LE?P?$LD?W?$MA?S?$KD?$NN?5?5?5?5?5?$KD?$NL?$LH?$LJ?$LK?$KH?$KD?$NN@
CONST	SEGMENT
??_C@_0EI@MNEGDEON@?5?$KD?$NL?A?$KC?$LM?S?$KD?$NN?$KD?$NL?$LE?P?$LD?W?$MA?S?$KD?$NN?5?5?5?5?5?$KD?$NL?$LH?$LJ?$LK?$KH?$KD?$NN@ DB ' '
	DB	0a3H, 0dbH, 0c1H, 0a2H, 0bcH, 0d3H, 0a3H, 0ddH, 0a3H, 0dbH, 0b4H
	DB	0d0H, 0b3H, 0d7H, 0c0H, 0d3H, 0a3H, 0ddH, '     ', 0a3H, 0dbH, 0b7H
	DB	0b9H, 0baH, 0a7H, 0a3H, 0ddH, '  ', 0a3H, 0dbH, 0b8H, 0edH, 0bcH
	DB	0baH, 0a3H, 0ddH, ' ', 0a3H, 0dbH, 0b1H, 0e2H, 0bfH, 0a9H, 0b5H
	DB	0b5H, 0a3H, 0ddH, ' ', 0a3H, 0dbH, 0c1H, 0f7H, 0c0H, 0a7H, 0a3H
	DB	0ddH, ' ', 0a3H, 0dbH, 0b8H, 0c7H, 0c5H, 0e4H, 0a3H, 0ddH, 00H ; `string'
CONST	ENDS
;	COMDAT ??_C@_0CF@OGEDCEOL@?5?5?5?5?5?5?5?5?5?5?5?5?5?5?5?5?5?5?5?5?5?5?5?5?5?$LK?N?A?$LH?$LP?x?5@
CONST	SEGMENT
??_C@_0CF@OGEDCEOL@?5?5?5?5?5?5?5?5?5?5?5?5?5?5?5?5?5?5?5?5?5?5?5?5?5?$LK?N?A?$LH?$LP?x?5@ DB ' '
	DB	'                        ', 0baH, 0ceH, 0c1H, 0b7H, 0bfH, 0f8H
	DB	' ', 0b0H, 0fcH, 0b8H, 0aeH, 00H		; `string'
CONST	ENDS
;	COMDAT ??_C@_04OKLAFEGF@T?$HM?$CFd?$AA@
CONST	SEGMENT
??_C@_04OKLAFEGF@T?$HM?$CFd?$AA@ DB 'T|%d', 00H		; `string'
CONST	ENDS
;	COMDAT ??_C@_0L@IBINOEKJ@M?$HM?$CFs?$HM?$CFd?$HM?$CFd?$AA@
CONST	SEGMENT
??_C@_0L@IBINOEKJ@M?$HM?$CFs?$HM?$CFd?$HM?$CFd?$AA@ DB 'M|%s|%d|%d', 00H ; `string'
CONST	ENDS
;	COMDAT ??_C@_03IKGEINEE@?$CFs?5?$AA@
CONST	SEGMENT
??_C@_03IKGEINEE@?$CFs?5?$AA@ DB '%s ', 00H		; `string'
CONST	ENDS
;	COMDAT ??_C@_02HHFHKOHM@?$DP?$DP?$AA@
CONST	SEGMENT
??_C@_02HHFHKOHM@?$DP?$DP?$AA@ DB '??', 00H		; `string'
CONST	ENDS
;	COMDAT ??_C@_04NKANOEFH@?$DP?5?5?$DP?$AA@
CONST	SEGMENT
??_C@_04NKANOEFH@?$DP?5?5?$DP?$AA@ DB '?  ?', 00H	; `string'
CONST	ENDS
;	COMDAT ??_C@_0CC@OOGHFIO@?5?$CF?920s?5?5?5?5?5?5?5?5?5?5?5?5?5?5?5?5?5?5?5?5?5?5?5?5?5?$CF@
CONST	SEGMENT
??_C@_0CC@OOGHFIO@?5?$CF?920s?5?5?5?5?5?5?5?5?5?5?5?5?5?5?5?5?5?5?5?5?5?5?5?5?5?$CF@ DB ' '
	DB	'%-20s                         %s', 00H	; `string'
CONST	ENDS
;	COMDAT ??_C@_09IPDOHIGO@?$LA?$KB?$MA?T?5?$LA?E?$LK?N?$AA@
CONST	SEGMENT
??_C@_09IPDOHIGO@?$LA?$KB?$MA?T?5?$LA?E?$LK?N?$AA@ DB 0b0H, 0a1H, 0c0H, 0d4H
	DB	' ', 0b0H, 0c5H, 0baH, 0ceH, 00H		; `string'
CONST	ENDS
;	COMDAT ??_C@_09LDBPGJOA@?$LA?$KB?$MA?T?5?$LN?B?$MA?N?$AA@
CONST	SEGMENT
??_C@_09LDBPGJOA@?$LA?$KB?$MA?T?5?$LN?B?$MA?N?$AA@ DB 0b0H, 0a1H, 0c0H, 0d4H
	DB	' ', 0bdH, 0c2H, 0c0H, 0ceH, 00H		; `string'
CONST	ENDS
;	COMDAT ??_C@_0BM@HGDMDEHB@?$CF?99s?$CF?918s?$CF3s?$CF12s?$CF12s?$CF10s?$CF7s?$AA@
CONST	SEGMENT
??_C@_0BM@HGDMDEHB@?$CF?99s?$CF?918s?$CF3s?$CF12s?$CF12s?$CF10s?$CF7s?$AA@ DB '%'
	DB	'-9s%-18s%3s%12s%12s%10s%7s', 00H		; `string'
CONST	ENDS
;	COMDAT ??_C@_08EKAAGOCB@?E?$LL?5?5?5?5?E?p?$AA@
CONST	SEGMENT
??_C@_08EKAAGOCB@?E?$LL?5?5?5?5?E?p?$AA@ DB 0c5H, 0bbH, '    ', 0c5H, 0f0H
	DB	00H						; `string'
CONST	ENDS
;	COMDAT ??_C@_08EPNLIAJH@?$LA?$KB?$MA?T?$LN?E?C?$LL?$AA@
CONST	SEGMENT
??_C@_08EPNLIAJH@?$LA?$KB?$MA?T?$LN?E?C?$LL?$AA@ DB 0b0H, 0a1H, 0c0H, 0d4H
	DB	0bdH, 0c5H, 0c3H, 0bbH, 00H			; `string'
CONST	ENDS
;	COMDAT ??_C@_08FGILGNNJ@?$MA?e?5?5?5?5?$LH?N?$AA@
CONST	SEGMENT
??_C@_08FGILGNNJ@?$MA?e?5?5?5?5?$LH?N?$AA@ DB 0c0H, 0e5H, '    ', 0b7H, 0ceH
	DB	00H						; `string'
CONST	ENDS
;	COMDAT ??_C@_08HBDNAOJN@?A?$LH?5?5?5?5?$MA?e?$AA@
CONST	SEGMENT
??_C@_08HBDNAOJN@?A?$LH?5?5?5?5?$MA?e?$AA@ DB 0c1H, 0b7H, '    ', 0c0H, 0e5H
	DB	00H						; `string'
CONST	ENDS
;	COMDAT ??_C@_08KOCLKJHI@?$LK?N?5?A?$LH?5?$LP?x?$AA@
CONST	SEGMENT
??_C@_08KOCLKJHI@?$LK?N?5?A?$LH?5?$LP?x?$AA@ DB 0baH, 0ceH, ' ', 0c1H, 0b7H
	DB	' ', 0bfH, 0f8H, 00H				; `string'
CONST	ENDS
;	COMDAT ??_C@_06OEBCHFHA@?$LJ?L?A?$KC?$LM?S?$AA@
CONST	SEGMENT
??_C@_06OEBCHFHA@?$LJ?L?A?$KC?$LM?S?$AA@ DB 0b9H, 0ccH, 0c1H, 0a2H, 0bcH, 0d3H
	DB	00H						; `string'
CONST	ENDS
;	COMDAT ??_C@_04GMJLIJKP@?A?$KC?$LM?S?$AA@
CONST	SEGMENT
??_C@_04GMJLIJKP@?A?$KC?$LM?S?$AA@ DB 0c1H, 0a2H, 0bcH, 0d3H, 00H ; `string'
CONST	ENDS
;	COMDAT ??_C@_05PFEBJGGD@?$CFd?5?$LI?m?$AA@
CONST	SEGMENT
??_C@_05PFEBJGGD@?$CFd?5?$LI?m?$AA@ DB '%d ', 0b8H, 0edH, 00H ; `string'
CONST	ENDS
;	COMDAT ??_C@_06CIKELAKM@X?$HMP?$HM?$CFd?$AA@
CONST	SEGMENT
??_C@_06CIKELAKM@X?$HMP?$HM?$CFd?$AA@ DB 'X|P|%d', 00H	; `string'
CONST	ENDS
;	COMDAT ??_C@_06FHOHGHFK@X?$HMR?$HM?$CFs?$AA@
CONST	SEGMENT
??_C@_06FHOHGHFK@X?$HMR?$HM?$CFs?$AA@ DB 'X|R|%s', 00H	; `string'
CONST	ENDS
;	COMDAT ??_C@_0O@FBIMKKIN@J?$HM?$CFd?$HM?$CFd?$HM?$CFs?$HM?$CFd?$AA@
CONST	SEGMENT
??_C@_0O@FBIMKKIN@J?$HM?$CFd?$HM?$CFd?$HM?$CFs?$HM?$CFd?$AA@ DB 'J|%d|%d|'
	DB	'%s|%d', 00H					; `string'
CONST	ENDS
;	COMDAT ??_C@_0CD@GBGODGL@P?$HM?$MA?L?$LJ?L?5?$LE?Y?$LI?$KF?$LK?N?A?$LH?$LP?$KB?5?$LA?$KB?$MA?T?$LF?G?$LO?n?$MA?V?$LO?n?$LP?d@
CONST	SEGMENT
??_C@_0CD@GBGODGL@P?$HM?$MA?L?$LJ?L?5?$LE?Y?$LI?$KF?$LK?N?A?$LH?$LP?$KB?5?$LA?$KB?$MA?T?$LF?G?$LO?n?$MA?V?$LO?n?$LP?d@ DB 'P'
	DB	'|', 0c0H, 0ccH, 0b9H, 0ccH, ' ', 0b4H, 0d9H, 0b8H, 0a5H, 0baH
	DB	0ceH, 0c1H, 0b7H, 0bfH, 0a1H, ' ', 0b0H, 0a1H, 0c0H, 0d4H, 0b5H
	DB	0c7H, 0beH, 0eeH, 0c0H, 0d6H, 0beH, 0eeH, 0bfH, 0e4H, 0a3H, 0a1H
	DB	00H						; `string'
CONST	ENDS
;	COMDAT ??_C@_0BK@IAGNODKB@?$CF4d?3?5?$CF?916s?5?$CF?916s?5?$CF6d?5?$CF10d?$AA@
CONST	SEGMENT
??_C@_0BK@IAGNODKB@?$CF4d?3?5?$CF?916s?5?$CF?916s?5?$CF6d?5?$CF10d?$AA@ DB '%'
	DB	'4d: %-16s %-16s %6d %10d', 00H		; `string'
CONST	ENDS
;	COMDAT ??_C@_0BK@DBLHNEOK@?$CF?94s?5?$CF?916s?5?$CF?916s?5?$CF6s?5?$CF10s?$AA@
CONST	SEGMENT
??_C@_0BK@DBLHNEOK@?$CF?94s?5?$CF?916s?5?$CF?916s?5?$CF6s?5?$CF10s?$AA@ DB '%'
	DB	'-4s %-16s %-16s %6s %10s', 00H		; `string'
CONST	ENDS
;	COMDAT ??_C@_0O@MGCOJGNL@?$FL?$LK?N?5?A?$LH?5?$MA?L?5?$LI?$KH?$FN?$AA@
CONST	SEGMENT
??_C@_0O@MGCOJGNL@?$FL?$LK?N?5?A?$LH?5?$MA?L?5?$LI?$KH?$FN?$AA@ DB '[', 0baH
	DB	0ceH, ' ', 0c1H, 0b7H, ' ', 0c0H, 0ccH, ' ', 0b8H, 0a7H, ']', 00H ; `string'
CONST	ENDS
;	COMDAT ??_C@_08KKDDPHBL@?$FL?A?$LH?5?5?$MA?e?$FN?$AA@
CONST	SEGMENT
??_C@_08KKDDPHBL@?$FL?A?$LH?5?5?$MA?e?$FN?$AA@ DB '[', 0c1H, 0b7H, '  ', 0c0H
	DB	0e5H, ']', 00H				; `string'
CONST	ENDS
;	COMDAT ??_C@_06PFFPIKHP@?$FL?$MA?N?$LP?x?$FN?$AA@
CONST	SEGMENT
??_C@_06PFFPIKHP@?$FL?$MA?N?$LP?x?$FN?$AA@ DB '[', 0c0H, 0ceH, 0bfH, 0f8H
	DB	']', 00H					; `string'
CONST	ENDS
;	COMDAT ??_C@_0L@FHLFAEOJ@?$FL?$LA?$KB?A?$LH?$LI?m?$LM?$LK?$FN?$AA@
CONST	SEGMENT
??_C@_0L@FHLFAEOJ@?$FL?$LA?$KB?A?$LH?$LI?m?$LM?$LK?$FN?$AA@ DB '[', 0b0H, 0a1H
	DB	0c1H, 0b7H, 0b8H, 0edH, 0bcH, 0baH, ']', 00H	; `string'
CONST	ENDS
;	COMDAT ??_C@_0M@GFBBINPB@?$CF3d?5?1?5?$CF3d?5?$DP?$AA@
CONST	SEGMENT
??_C@_0M@GFBBINPB@?$CF3d?5?1?5?$CF3d?5?$DP?$AA@ DB '%3d / %3d ?', 00H ; `string'
CONST	ENDS
;	COMDAT ??_C@_08MIMOGKCP@?$LA?$KB?A?$LH?$LI?q?$LH?O?$AA@
CONST	SEGMENT
??_C@_08MIMOGKCP@?$LA?$KB?A?$LH?$LI?q?$LH?O?$AA@ DB 0b0H, 0a1H, 0c1H, 0b7H
	DB	0b8H, 0f1H, 0b7H, 0cfH, 00H			; `string'
CONST	ENDS
;	COMDAT ??_C@_0N@LDDLKII@S?$HMD?$HM?$CFs?$HM?$CFd?$HM?$CFd?$AA@
CONST	SEGMENT
??_C@_0N@LDDLKII@S?$HMD?$HM?$CFs?$HM?$CFd?$HM?$CFd?$AA@ DB 'S|D|%s|%d|%d', 00H ; `string'
CONST	ENDS
;	COMDAT ??_C@_07EFKFLCFA@S?$HMF?$HM1?$HM0?$AA@
CONST	SEGMENT
??_C@_07EFKFLCFA@S?$HMF?$HM1?$HM0?$AA@ DB 'S|F|1|0', 00H ; `string'
CONST	ENDS
;	COMDAT ??_C@_08MNCFPICD@S?$HMF?$HM?$CFd?$HM0?$AA@
CONST	SEGMENT
??_C@_08MNCFPICD@S?$HMF?$HM?$CFd?$HM0?$AA@ DB 'S|F|%d|0', 00H ; `string'
CONST	ENDS
;	COMDAT ??_C@_04PMAIGBME@?$CF38s?$AA@
CONST	SEGMENT
??_C@_04PMAIGBME@?$CF38s?$AA@ DB '%38s', 00H		; `string'
CONST	ENDS
;	COMDAT ??_C@_06HHOANBGP@?5?5?$CFs?5?5?$AA@
CONST	SEGMENT
??_C@_06HHOANBGP@?5?5?$CFs?5?5?$AA@ DB '  %s  ', 00H	; `string'
CONST	ENDS
;	COMDAT ??_C@_03EEBNCBOD@?5?$CFs?$AA@
CONST	SEGMENT
??_C@_03EEBNCBOD@?5?$CFs?$AA@ DB ' %s', 00H		; `string'
CONST	ENDS
;	COMDAT ??_C@_04EHFFKIEF@?$LO?x?$LE?Y?$AA@
CONST	SEGMENT
??_C@_04EHFFKIEF@?$LO?x?$LE?Y?$AA@ DB 0beH, 0f8H, 0b4H, 0d9H, 00H ; `string'
CONST	ENDS
;	COMDAT ??_C@_0BD@DPCKNFFI@?5?5?5?5?5?5?5?5?5?5?5?5?5?5?5?5?5?5?$AA@
CONST	SEGMENT
??_C@_0BD@DPCKNFFI@?5?5?5?5?5?5?5?5?5?5?5?5?5?5?5?5?5?5?$AA@ DB '        '
	DB	'          ', 00H				; `string'
CONST	ENDS
;	COMDAT ??_C@_0O@EODKIPCM@A?$HM?$CFs?$HM?$CFd?$HM?$CFd?$HM?$CFs?$AA@
CONST	SEGMENT
??_C@_0O@EODKIPCM@A?$HM?$CFs?$HM?$CFd?$HM?$CFd?$HM?$CFs?$AA@ DB 'A|%s|%d|'
	DB	'%d|%s', 00H					; `string'
CONST	ENDS
;	COMDAT ??_C@_0BL@ODAGPAJL@?$LA?$KB?A?$LH?5?$LK?$LI?H?$KD?$MA?Z?$LI?$KG?5?$LM?$LB?E?C?G?O?$LM?$LM?$LP?d?$KD?$KB?$AA@
CONST	SEGMENT
??_C@_0BL@ODAGPAJL@?$LA?$KB?A?$LH?5?$LK?$LI?H?$KD?$MA?Z?$LI?$KG?5?$LM?$LB?E?C?G?O?$LM?$LM?$LP?d?$KD?$KB?$AA@ DB 0b0H
	DB	0a1H, 0c1H, 0b7H, ' ', 0baH, 0b8H, 0c8H, 0a3H, 0c0H, 0daH, 0b8H
	DB	0a6H, ' ', 0bcH, 0b1H, 0c5H, 0c3H, 0c7H, 0cfH, 0bcH, 0bcH, 0bfH
	DB	0e4H, 0a3H, 0a1H, 00H			; `string'
CONST	ENDS
;	COMDAT ??_C@_0BJ@IAPAGIOC@?$LM?v?H?$KD?5?F?d?F?$KO?$LI?$KG?5?$LM?$LB?E?C?G?O?$LM?$LM?$LP?d?$KD?$KB?$AA@
CONST	SEGMENT
??_C@_0BJ@IAPAGIOC@?$LM?v?H?$KD?5?F?d?F?$KO?$LI?$KG?5?$LM?$LB?E?C?G?O?$LM?$LM?$LP?d?$KD?$KB?$AA@ DB 0bcH
	DB	0f6H, 0c8H, 0a3H, ' ', 0c6H, 0e4H, 0c6H, 0aeH, 0b8H, 0a6H, ' ', 0bcH
	DB	0b1H, 0c5H, 0c3H, 0c7H, 0cfH, 0bcH, 0bcH, 0bfH, 0e4H, 0a3H, 0a1H
	DB	00H						; `string'
CONST	ENDS
;	COMDAT ??_C@_0BJ@BIHHOJEL@?$LA?$KB?A?$LH?5?A?$KG?$LI?q?$MA?$LL?5?$MA?T?$LH?B?G?O?$LM?$LM?$LP?d?$KD?$KB?$AA@
CONST	SEGMENT
??_C@_0BJ@BIHHOJEL@?$LA?$KB?A?$LH?5?A?$KG?$LI?q?$MA?$LL?5?$MA?T?$LH?B?G?O?$LM?$LM?$LP?d?$KD?$KB?$AA@ DB 0b0H
	DB	0a1H, 0c1H, 0b7H, ' ', 0c1H, 0a6H, 0b8H, 0f1H, 0c0H, 0bbH, ' ', 0c0H
	DB	0d4H, 0b7H, 0c2H, 0c7H, 0cfH, 0bcH, 0bcH, 0bfH, 0e4H, 0a3H, 0a1H
	DB	00H						; `string'
CONST	ENDS
;	COMDAT ??_C@_0BI@IDKIBNJL@?$LK?N?A?$LH?$MA?L?$LI?$KH?$MA?$LL?5?$MA?T?$LH?B?G?O?$LM?$LM?$LP?d?$KD?$KB?$AA@
CONST	SEGMENT
??_C@_0BI@IDKIBNJL@?$LK?N?A?$LH?$MA?L?$LI?$KH?$MA?$LL?5?$MA?T?$LH?B?G?O?$LM?$LM?$LP?d?$KD?$KB?$AA@ DB 0baH
	DB	0ceH, 0c1H, 0b7H, 0c0H, 0ccH, 0b8H, 0a7H, 0c0H, 0bbH, ' ', 0c0H
	DB	0d4H, 0b7H, 0c2H, 0c7H, 0cfH, 0bcH, 0bcH, 0bfH, 0e4H, 0a3H, 0a1H
	DB	00H						; `string'
CONST	ENDS
;	COMDAT ??_C@_0BE@BNDDJDJA@?$MA?L?$LB?b?$LM?z?$MA?$LL?5?$LJ?h?$LP?o?$LB?n?$LP?d?$KD?$LP?$AA@
CONST	SEGMENT
??_C@_0BE@BNDDJDJA@?$MA?L?$LB?b?$LM?z?$MA?$LL?5?$LJ?h?$LP?o?$LB?n?$LP?d?$KD?$LP?$AA@ DB 0c0H
	DB	0ccH, 0b1H, 0e2H, 0bcH, 0faH, 0c0H, 0bbH, ' ', 0b9H, 0e8H, 0bfH
	DB	0efH, 0b1H, 0eeH, 0bfH, 0e4H, 0a3H, 0bfH, 00H ; `string'
CONST	ENDS
;	COMDAT ??_C@_0P@HHEBCLLE@?$LO?g?$FL?$CFs?$FN?G?O?$LE?Y?$FL?$CFs?$FN?$AA@
CONST	SEGMENT
??_C@_0P@HHEBCLLE@?$LO?g?$FL?$CFs?$FN?G?O?$LE?Y?$FL?$CFs?$FN?$AA@ DB 0beH
	DB	0e7H, '[%s]', 0c7H, 0cfH, 0b4H, 0d9H, '[%s]', 00H ; `string'
CONST	ENDS
;	COMDAT ??_C@_0BB@BOMDKKC@?$LB?W?$MA?$KH?D?$KB?$LP?$KB?G?R?$LB?n?$LP?d?$KD?$LP?$AA@
CONST	SEGMENT
??_C@_0BB@BOMDKKC@?$LB?W?$MA?$KH?D?$KB?$LP?$KB?G?R?$LB?n?$LP?d?$KD?$LP?$AA@ DB 0b1H
	DB	0d7H, 0c0H, 0a7H, 0c4H, 0a1H, 0bfH, 0a1H, 0c7H, 0d2H, 0b1H, 0eeH
	DB	0bfH, 0e4H, 0a3H, 0bfH, 00H			; `string'
CONST	ENDS
;	COMDAT ??_C@_02JPEIBJLC@?$LJ?N?$AA@
CONST	SEGMENT
??_C@_02JPEIBJLC@?$LJ?N?$AA@ DB 0b9H, 0ceH, 00H		; `string'
CONST	ENDS
;	COMDAT ??_C@_0BE@HCEHBKKL@?$LE?$KJ?$LB?$LI?G?Q?E?W?5?$LJ?h?$LP?o?$LB?n?$LP?d?$KD?$LP?$AA@
CONST	SEGMENT
??_C@_0BE@HCEHBKKL@?$LE?$KJ?$LB?$LI?G?Q?E?W?5?$LJ?h?$LP?o?$LB?n?$LP?d?$KD?$LP?$AA@ DB 0b4H
	DB	0a9H, 0b1H, 0b8H, 0c7H, 0d1H, 0c5H, 0d7H, ' ', 0b9H, 0e8H, 0bfH
	DB	0efH, 0b1H, 0eeH, 0bfH, 0e4H, 0a3H, 0bfH, 00H ; `string'
CONST	ENDS
;	COMDAT ??_C@_05HKNHMKDL@?$CF8d?$KD?F?$AA@
CONST	SEGMENT
??_C@_05HKNHMKDL@?$CF8d?$KD?F?$AA@ DB '%8d', 0a3H, 0c6H, 00H ; `string'
CONST	ENDS
;	COMDAT ??_C@_0L@JFOFCMBF@?$CF2d?1?$CF2d?5?B?J?$AA@
CONST	SEGMENT
??_C@_0L@JFOFCMBF@?$CF2d?1?$CF2d?5?B?J?$AA@ DB '%2d/%2d ', 0c2H, 0caH, 00H ; `string'
CONST	ENDS
;	COMDAT ??_C@_07BCAPMAGD@?$LB?b?5?$CFd?3?5?$AA@
CONST	SEGMENT
??_C@_07BCAPMAGD@?$LB?b?5?$CFd?3?5?$AA@ DB 0b1H, 0e2H, ' %d: ', 00H ; `string'
CONST	ENDS
;	COMDAT ??_C@_0BC@HIPKKMKB@?$LB?W?$MA?$KH?D?$KB?$LP?$KB?5?G?R?$LB?n?$LP?d?$KD?$LP?$AA@
CONST	SEGMENT
??_C@_0BC@HIPKKMKB@?$LB?W?$MA?$KH?D?$KB?$LP?$KB?5?G?R?$LB?n?$LP?d?$KD?$LP?$AA@ DB 0b1H
	DB	0d7H, 0c0H, 0a7H, 0c4H, 0a1H, 0bfH, 0a1H, ' ', 0c7H, 0d2H, 0b1H
	DB	0eeH, 0bfH, 0e4H, 0a3H, 0bfH, 00H		; `string'
CONST	ENDS
;	COMDAT ??_C@_0BB@JCNGIDNP@?$LN?C?$MA?$NL?G?O?$LA?Z?$LN?$MA?$LE?O?$LB?n?$KD?$LP?$AA@
CONST	SEGMENT
??_C@_0BB@JCNGIDNP@?$LN?C?$MA?$NL?G?O?$LA?Z?$LN?$MA?$LE?O?$LB?n?$KD?$LP?$AA@ DB 0bdH
	DB	0c3H, 0c0H, 0dbH, 0c7H, 0cfH, 0b0H, 0daH, 0bdH, 0c0H, 0b4H, 0cfH
	DB	0b1H, 0eeH, 0a3H, 0bfH, 00H			; `string'
CONST	ENDS
;	COMDAT ??_C@_0L@LCAELECA@?$DP?$FL?$CFs?$FN?$DP?$FL?$CFs?$FN?$AA@
CONST	SEGMENT
??_C@_0L@LCAELECA@?$DP?$FL?$CFs?$FN?$DP?$FL?$CFs?$FN?$AA@ DB '?[%s]?[%s]', 00H ; `string'
CONST	ENDS
;	COMDAT ??_C@_09IAMFCDJG@?$CF2d?1?$CF2d?5?$DP?$AA@
CONST	SEGMENT
??_C@_09IAMFCDJG@?$CF2d?1?$CF2d?5?$DP?$AA@ DB '%2d/%2d ?', 00H ; `string'
CONST	ENDS
;	COMDAT ??_C@_0M@JKOCLGKC@?$CFd?$HM?$CFd?$HM?$CFd?$HM?$CFd?$AA@
CONST	SEGMENT
??_C@_0M@JKOCLGKC@?$CFd?$HM?$CFd?$HM?$CFd?$HM?$CFd?$AA@ DB '%d|%d|%d|%d', 00H ; `string'
CONST	ENDS
;	COMDAT ??_C@_09DPNFCMLK@?Q?Q?$DP?5?$CF8d?$KD?S?$AA@
CONST	SEGMENT
??_C@_09DPNFCMLK@?Q?Q?$DP?5?$CF8d?$KD?S?$AA@ DB 0d1H, 0d1H, '? %8d', 0a3H
	DB	0d3H, 00H					; `string'
CONST	ENDS
;	COMDAT ??_C@_03EPCHICDI@x?$CFd?$AA@
CONST	SEGMENT
??_C@_03EPCHICDI@x?$CFd?$AA@ DB 'x%d', 00H		; `string'
CONST	ENDS
;	COMDAT ??_C@_0L@OCLOEHGJ@?$LN?$LK?E?f?5?$CF8d?$KD?S?$AA@
CONST	SEGMENT
??_C@_0L@OCLOEHGJ@?$LN?$LK?E?f?5?$CF8d?$KD?S?$AA@ DB 0bdH, 0baH, 0c5H, 0e6H
	DB	' %8d', 0a3H, 0d3H, 00H			; `string'
CONST	ENDS
;	COMDAT ??_C@_0BE@FKIEDAAE@?$CF8d?$KD?F?5x?5?$CF2d?5?$DN?5?$CF8d?$KD?F?$AA@
CONST	SEGMENT
??_C@_0BE@FKIEDAAE@?$CF8d?$KD?F?5x?5?$CF2d?5?$DN?5?$CF8d?$KD?F?$AA@ DB '%'
	DB	'8d', 0a3H, 0c6H, ' x %2d = %8d', 0a3H, 0c6H, 00H ; `string'
CONST	ENDS
;	COMDAT ??_C@_0BE@PBEPDFJI@?$CF8d?$KD?S?5x?5?$CF2d?5?$DN?5?$CF8d?$KD?S?$AA@
CONST	SEGMENT
??_C@_0BE@PBEPDFJI@?$CF8d?$KD?S?5x?5?$CF2d?5?$DN?5?$CF8d?$KD?S?$AA@ DB '%'
	DB	'8d', 0a3H, 0d3H, ' x %2d = %8d', 0a3H, 0d3H, 00H ; `string'
CONST	ENDS
;	COMDAT ??_C@_04HNNONBHM@?$CF2d?$DP?$AA@
CONST	SEGMENT
??_C@_04HNNONBHM@?$CF2d?$DP?$AA@ DB '%2d?', 00H		; `string'
CONST	ENDS
;	COMDAT ??_C@_05ENGCCMCP@?$CF8d?$KD?S?$AA@
CONST	SEGMENT
??_C@_05ENGCCMCP@?$CF8d?$KD?S?$AA@ DB '%8d', 0a3H, 0d3H, 00H ; `string'
CONST	ENDS
;	COMDAT ??_C@_0L@JBEIEHEP@?$CF8d?$KD?F?$CF8d?$KD?S?$AA@
CONST	SEGMENT
??_C@_0L@JBEIEHEP@?$CF8d?$KD?F?$CF8d?$KD?S?$AA@ DB '%8d', 0a3H, 0c6H, '%8'
	DB	'd', 0a3H, 0d3H, 00H				; `string'
CONST	ENDS
;	COMDAT ??_C@_0P@DLBADLDH@?$CF2d?1?$CF2d?5?F?d?$MA?L?A?v?$AA@
CONST	SEGMENT
??_C@_0P@DLBADLDH@?$CF2d?1?$CF2d?5?F?d?$MA?L?A?v?$AA@ DB '%2d/%2d ', 0c6H
	DB	0e4H, 0c0H, 0ccH, 0c1H, 0f6H, 00H		; `string'
CONST	ENDS
;	COMDAT ??_C@_0M@DBGBFDKA@?$LN?$LK?E?f?5?5?$CF8d?$KD?S?$AA@
CONST	SEGMENT
??_C@_0M@DBGBFDKA@?$LN?$LK?E?f?5?5?$CF8d?$KD?S?$AA@ DB 0bdH, 0baH, 0c5H, 0e6H
	DB	'  %8d', 0a3H, 0d3H, 00H			; `string'
CONST	ENDS
;	COMDAT ??_C@_0L@KBBNADAJ@?$LI?m?$LM?$LK?5?$CF8d?$KD?F?$AA@
CONST	SEGMENT
??_C@_0L@KBBNADAJ@?$LI?m?$LM?$LK?5?$CF8d?$KD?F?$AA@ DB 0b8H, 0edH, 0bcH, 0baH
	DB	' %8d', 0a3H, 0c6H, 00H			; `string'
CONST	ENDS
;	COMDAT ??_C@_05GLBACONI@?$CFd?$HM?$CFd?$AA@
CONST	SEGMENT
??_C@_05GLBACONI@?$CFd?$HM?$CFd?$AA@ DB '%d|%d', 00H	; `string'
CONST	ENDS
;	COMDAT ??_C@_01GBGANLPD@0?$AA@
CONST	SEGMENT
??_C@_01GBGANLPD@0?$AA@ DB '0', 00H			; `string'
CONST	ENDS
;	COMDAT ??_C@_0CA@MOGFGPOH@?$CF?916s?5?$CF?93d?5?5?$CF?95d?5?$CF?95d?5?5?$CF?95d?5?5?$CFd?$AA@
CONST	SEGMENT
??_C@_0CA@MOGFGPOH@?$CF?916s?5?$CF?93d?5?5?$CF?95d?5?$CF?95d?5?5?$CF?95d?5?5?$CFd?$AA@ DB '%'
	DB	'-16s %-3d  %-5d %-5d  %-5d  %d', 00H	; `string'
CONST	ENDS
;	COMDAT ??_C@_04LFMEPEEF@?$LL?s?$LE?k?$AA@
CONST	SEGMENT
??_C@_04LFMEPEEF@?$LL?s?$LE?k?$AA@ DB 0bbH, 0f3H, 0b4H, 0ebH, 00H ; `string'
CONST	ENDS
;	COMDAT ??_C@_04BLDHOJBN@?$LI?$NO?$MA?N?$AA@
CONST	SEGMENT
??_C@_04BLDHOJBN@?$LI?$NO?$MA?N?$AA@ DB 0b8H, 0deH, 0c0H, 0ceH, 00H ; `string'
CONST	ENDS
;	COMDAT ??_C@_03BIEHFCNJ@?q?l?$DP?$AA@
CONST	SEGMENT
??_C@_03BIEHFCNJ@?q?l?$DP?$AA@ DB 0f1H, 0ecH, '?', 00H	; `string'
CONST	ENDS
;	COMDAT ??_C@_0CA@ONLNCGPF@?$CF?916s?5?$CF?93s?5?5?$CF?95s?5?$CF?95s?5?5?$CF?95s?5?5?$CFs?$AA@
CONST	SEGMENT
??_C@_0CA@ONLNCGPF@?$CF?916s?5?$CF?93s?5?5?$CF?95s?5?$CF?95s?5?5?$CF?95s?5?5?$CFs?$AA@ DB '%'
	DB	'-16s %-3s  %-5s %-5s  %-5s  %s', 00H	; `string'
CONST	ENDS
;	COMDAT ??_C@_08ILNEEICH@?$CFd?$HM?$CFd?$HM?$CFd?$AA@
CONST	SEGMENT
??_C@_08ILNEEICH@?$CFd?$HM?$CFd?$HM?$CFd?$AA@ DB '%d|%d|%d', 00H ; `string'
CONST	ENDS
;	COMDAT ??_C@_0CP@GFPMIDDF@?$KD?$LN?$KD?$LN?$KD?$LN?5?5?5?5?5?5?5?$LL?s?$LE?k?5?F?j?$MA?$LL?5?$LM?$LB?E?C?G?O?$LN?J?$LN@
CONST	SEGMENT
??_C@_0CP@GFPMIDDF@?$KD?$LN?$KD?$LN?$KD?$LN?5?5?5?5?5?5?5?$LL?s?$LE?k?5?F?j?$MA?$LL?5?$LM?$LB?E?C?G?O?$LN?J?$LN@ DB 0a3H
	DB	0bdH, 0a3H, 0bdH, 0a3H, 0bdH, '       ', 0bbH, 0f3H, 0b4H, 0ebH
	DB	' ', 0c6H, 0eaH, 0c0H, 0bbH, ' ', 0bcH, 0b1H, 0c5H, 0c3H, 0c7H
	DB	0cfH, 0bdH, 0caH, 0bdH, 0c3H, 0bfH, 0c0H, '     ', 0a3H, 0bdH, 0a3H
	DB	0bdH, 0a3H, 0bdH, 00H			; `string'
CONST	ENDS
;	COMDAT ??_C@_0CP@PALAGGON@?$KD?$LN?$KD?$LN?$KD?$LN?5?5?5?5?5?5?5?$LI?$NO?$MA?N?5?F?j?$MA?$LL?5?$LM?$LB?E?C?G?O?$LN?J?$LN@
CONST	SEGMENT
??_C@_0CP@PALAGGON@?$KD?$LN?$KD?$LN?$KD?$LN?5?5?5?5?5?5?5?$LI?$NO?$MA?N?5?F?j?$MA?$LL?5?$LM?$LB?E?C?G?O?$LN?J?$LN@ DB 0a3H
	DB	0bdH, 0a3H, 0bdH, 0a3H, 0bdH, '       ', 0b8H, 0deH, 0c0H, 0ceH
	DB	' ', 0c6H, 0eaH, 0c0H, 0bbH, ' ', 0bcH, 0b1H, 0c5H, 0c3H, 0c7H
	DB	0cfH, 0bdH, 0caH, 0bdH, 0c3H, 0bfH, 0c0H, '     ', 0a3H, 0bdH, 0a3H
	DB	0bdH, 0a3H, 0bdH, 00H			; `string'
CONST	ENDS
;	COMDAT ??_C@_0DC@OEBMFFGI@?$KD?$LN?$KD?$LN?$KD?$LN?5?5?5?5?F?j?5?$LG?G?$LE?B?5?F?D?F?$LM?$LP?x?$MA?$LL?5?$LM?$LB?E?C?G@
CONST	SEGMENT
??_C@_0DC@OEBMFFGI@?$KD?$LN?$KD?$LN?$KD?$LN?5?5?5?5?F?j?5?$LG?G?$LE?B?5?F?D?F?$LM?$LP?x?$MA?$LL?5?$LM?$LB?E?C?G@ DB 0a3H
	DB	0bdH, 0a3H, 0bdH, 0a3H, 0bdH, '    ', 0c6H, 0eaH, ' ', 0b6H, 0c7H
	DB	0b4H, 0c2H, ' ', 0c6H, 0c4H, 0c6H, 0bcH, 0bfH, 0f8H, 0c0H, 0bbH
	DB	' ', 0bcH, 0b1H, 0c5H, 0c3H, 0c7H, 0cfH, 0bdH, 0caH, 0bdH, 0c3H
	DB	0bfH, 0c0H, '    ', 0a3H, 0bdH, 0a3H, 0bdH, 0a3H, 0bdH, 00H ; `string'
CONST	ENDS
;	COMDAT ??_C@_0DC@OGKMBKIN@?$KD?$LN?$KD?$LN?$KD?$LN?5?5?5?5?5?5?5?5?5?F?D?F?$LM?$LP?x?$MA?$LL?5?$LM?$LB?E?C?G?O?$LN?J@
CONST	SEGMENT
??_C@_0DC@OGKMBKIN@?$KD?$LN?$KD?$LN?$KD?$LN?5?5?5?5?5?5?5?5?5?F?D?F?$LM?$LP?x?$MA?$LL?5?$LM?$LB?E?C?G?O?$LN?J@ DB 0a3H
	DB	0bdH, 0a3H, 0bdH, 0a3H, 0bdH, '         ', 0c6H, 0c4H, 0c6H, 0bcH
	DB	0bfH, 0f8H, 0c0H, 0bbH, ' ', 0bcH, 0b1H, 0c5H, 0c3H, 0c7H, 0cfH
	DB	0bdH, 0caH, 0bdH, 0c3H, 0bfH, 0c0H, '       ', 0a3H, 0bdH, 0a3H
	DB	0bdH, 0a3H, 0bdH, 00H			; `string'
CONST	ENDS
;	COMDAT ??_C@_0CF@HCGLMHEH@?$CF?916s?5?5?$CF?93d?5?5?5?$CF?95d?5?5?$CF?95d?5?5?5?$CF?95d?5@
CONST	SEGMENT
??_C@_0CF@HCGLMHEH@?$CF?916s?5?5?$CF?93d?5?5?5?$CF?95d?5?5?$CF?95d?5?5?5?$CF?95d?5@ DB '%'
	DB	'-16s  %-3d   %-5d  %-5d   %-5d   %d', 00H	; `string'
CONST	ENDS
;	COMDAT ??_C@_0CF@FLMNJHFI@?$CF?916s?5?5?$CF?93s?5?5?5?$CF?95s?5?5?$CF?95s?5?5?5?$CF?95s?5@
CONST	SEGMENT
??_C@_0CF@FLMNJHFI@?$CF?916s?5?5?$CF?93s?5?5?5?$CF?95s?5?5?$CF?95s?5?5?5?$CF?95s?5@ DB '%'
	DB	'-16s  %-3s   %-5s  %-5s   %-5s   %s', 00H	; `string'
CONST	ENDS
;	COMDAT ??_C@_04KDDDLIGD@?F?d?F?$KO?$AA@
CONST	SEGMENT
??_C@_04KDDDLIGD@?F?d?F?$KO?$AA@ DB 0c6H, 0e4H, 0c6H, 0aeH, 00H ; `string'
CONST	ENDS
;	COMDAT ??_C@_02FLIMDJ@Lv?$AA@
CONST	SEGMENT
??_C@_02FLIMDJ@Lv?$AA@ DB 'Lv', 00H			; `string'
CONST	ENDS
;	COMDAT ??_C@_02MEIMKHMB@HP?$AA@
CONST	SEGMENT
??_C@_02MEIMKHMB@HP?$AA@ DB 'HP', 00H			; `string'
CONST	ENDS
;	COMDAT ??_C@_02BJIFLDEI@?$LA?x?$AA@
CONST	SEGMENT
??_C@_02BJIFLDEI@?$LA?x?$AA@ DB 0b0H, 0f8H, 00H		; `string'
CONST	ENDS
;	COMDAT ??_C@_02MCBFLHBI@?$LJ?f?$AA@
CONST	SEGMENT
??_C@_02MCBFLHBI@?$LJ?f?$AA@ DB 0b9H, 0e6H, 00H		; `string'
CONST	ENDS
;	COMDAT ??_C@_02BAJPEKCM@?$LM?x?$AA@
CONST	SEGMENT
??_C@_02BAJPEKCM@?$LM?x?$AA@ DB 0bcH, 0f8H, 00H		; `string'
CONST	ENDS
;	COMDAT ??_C@_0DA@BAFAIKKM@?$KD?$LN?$KD?$LN?$KD?$LN?5?5?5?5?5?5?5?5?5?F?j?$MA?$LL?5?$LM?$LB?E?C?G?O?$LN?J?$LN?C?$LP?$MA@
CONST	SEGMENT
??_C@_0DA@BAFAIKKM@?$KD?$LN?$KD?$LN?$KD?$LN?5?5?5?5?5?5?5?5?5?F?j?$MA?$LL?5?$LM?$LB?E?C?G?O?$LN?J?$LN?C?$LP?$MA@ DB 0a3H
	DB	0bdH, 0a3H, 0bdH, 0a3H, 0bdH, '         ', 0c6H, 0eaH, 0c0H, 0bbH
	DB	' ', 0bcH, 0b1H, 0c5H, 0c3H, 0c7H, 0cfH, 0bdH, 0caH, 0bdH, 0c3H
	DB	0bfH, 0c0H, '         ', 0a3H, 0bdH, 0a3H, 0bdH, 0a3H, 0bdH, 00H ; `string'
CONST	ENDS
;	COMDAT ??_C@_02DPKJAMEF@?$CFd?$AA@
CONST	SEGMENT
??_C@_02DPKJAMEF@?$CFd?$AA@ DB '%d', 00H		; `string'
CONST	ENDS
;	COMDAT ??_C@_0M@JKCPDGAE@?$LE?Y?$MA?$LN?5?F?d?$MA?L?A?v?$AA@
CONST	SEGMENT
??_C@_0M@JKCPDGAE@?$LE?Y?$MA?$LN?5?F?d?$MA?L?A?v?$AA@ DB 0b4H, 0d9H, 0c0H
	DB	0bdH, ' ', 0c6H, 0e4H, 0c0H, 0ccH, 0c1H, 0f6H, 00H ; `string'
CONST	ENDS
;	COMDAT ??_C@_0M@KLCLPDEC@?$MA?L?$MA?$PM?5?F?d?$MA?L?A?v?$AA@
CONST	SEGMENT
??_C@_0M@KLCLPDEC@?$MA?L?$MA?$PM?5?F?d?$MA?L?A?v?$AA@ DB 0c0H, 0ccH, 0c0H
	DB	0fcH, ' ', 0c6H, 0e4H, 0c0H, 0ccH, 0c1H, 0f6H, 00H ; `string'
CONST	ENDS
;	COMDAT ??_C@_06PNFMGOAF@?C?k?5?5?$LM?R?$AA@
CONST	SEGMENT
??_C@_06PNFMGOAF@?C?k?5?5?$LM?R?$AA@ DB 0c3H, 0ebH, '  ', 0bcH, 0d2H, 00H ; `string'
CONST	ENDS
;	COMDAT ??_C@_06BLFCGNEJ@?H?$KO?5?5?$MA?N?$AA@
CONST	SEGMENT
??_C@_06BLFCGNEJ@?H?$KO?5?5?$MA?N?$AA@ DB 0c8H, 0aeH, '  ', 0c0H, 0ceH, 00H ; `string'
CONST	ENDS
;	COMDAT ??_C@_06JHILMIHF@CANCEL?$AA@
CONST	SEGMENT
??_C@_06JHILMIHF@CANCEL?$AA@ DB 'CANCEL', 00H		; `string'
CONST	ENDS
;	COMDAT ??_C@_06OEDOOLP@?5?$KD?O?$KD?K?5?$AA@
CONST	SEGMENT
??_C@_06OEDOOLP@?5?$KD?O?$KD?K?5?$AA@ DB ' ', 0a3H, 0cfH, 0a3H, 0cbH, ' ', 00H ; `string'
CONST	ENDS
;	COMDAT ??_C@_03BBKEAIF@?$DP?$DP?$DP?$AA@
CONST	SEGMENT
??_C@_03BBKEAIF@?$DP?$DP?$DP?$AA@ DB '???', 00H		; `string'
CONST	ENDS
;	COMDAT ??_C@_07IBAIKNAL@?$FLstyle?5?$AA@
CONST	SEGMENT
??_C@_07IBAIKNAL@?$FLstyle?5?$AA@ DB '[style ', 00H	; `string'
CONST	ENDS
;	COMDAT ??_C@_0BG@HHBIODFI@?C?$LM?E?$KJ?5?$LO?F?$LP?t?5?C?$LD?$LI?$KO?5?$LN?G?F?P?$KB?$KD?$AA@
CONST	SEGMENT
??_C@_0BG@HHBIODFI@?C?$LM?E?$KJ?5?$LO?F?$LP?t?5?C?$LD?$LI?$KO?5?$LN?G?F?P?$KB?$KD?$AA@ DB 0c3H
	DB	0bcH, 0c5H, 0a9H, ' ', 0beH, 0c6H, 0bfH, 0f4H, ' ', 0c3H, 0b3H
	DB	0b8H, 0aeH, ' ', 0bdH, 0c7H, 0c6H, 0d0H, 0a1H, 0a3H, 00H ; `string'
CONST	ENDS
;	COMDAT ??_C@_0BA@KHEOLEJA@?T?t?u?s?$DP?W?b?$DP?$DP?l?$KL?S?p?$KB?$KD?$AA@
CONST	SEGMENT
??_C@_0BA@KHEOLEJA@?T?t?u?s?$DP?W?b?$DP?$DP?l?$KL?S?p?$KB?$KD?$AA@ DB 0d4H
	DB	0f4H, 0f5H, 0f3H, '?', 0d7H, 0e2H, '??', 0ecH, 0abH, 0d3H, 0f0H
	DB	0a1H, 0a3H, 00H				; `string'
CONST	ENDS
;	COMDAT ??_C@_0BH@OOIMHFEI@?C?$LM?E?$KJ?$MA?N?5?C?$LD?$LI?$KO?5?$LN?G?F?P?$CI?$CFd?$CJ?$KB?$KD?$AA@
CONST	SEGMENT
??_C@_0BH@OOIMHFEI@?C?$LM?E?$KJ?$MA?N?5?C?$LD?$LI?$KO?5?$LN?G?F?P?$CI?$CFd?$CJ?$KB?$KD?$AA@ DB 0c3H
	DB	0bcH, 0c5H, 0a9H, 0c0H, 0ceH, ' ', 0c3H, 0b3H, 0b8H, 0aeH, ' ', 0bdH
	DB	0c7H, 0c6H, 0d0H, '(%d)', 0a1H, 0a3H, 00H	; `string'
CONST	ENDS
;	COMDAT ??_C@_0BC@IMEAHPED@?$DP?l?$PN?$DP?W?b?c?w?$DP?$KB?$KD?$CI1002?$CJ?$AA@
CONST	SEGMENT
??_C@_0BC@IMEAHPED@?$DP?l?$PN?$DP?W?b?c?w?$DP?$KB?$KD?$CI1002?$CJ?$AA@ DB '?'
	DB	0ecH, 0fdH, '?', 0d7H, 0e2H, 0e3H, 0f7H, '?', 0a1H, 0a3H, '(10'
	DB	'02)', 00H					; `string'
CONST	ENDS
;	COMDAT ??_C@_0BC@LBDONGAD@?$DP?l?$KL?n?$KE?c?f?M?$KD?$OA?x?M?$KH?T?t?l?$PN?$AA@
CONST	SEGMENT
??_C@_0BC@LBDONGAD@?$DP?l?$KL?n?$KE?c?f?M?$KD?$OA?x?M?$KH?T?t?l?$PN?$AA@ DB '?'
	DB	0ecH, 0abH, 0eeH, 0a4H, 0e3H, 0e6H, 0cdH, 0a3H, 0e0H, 0f8H, 0cdH
	DB	0a7H, 0d4H, 0f4H, 0ecH, 0fdH, 00H		; `string'
CONST	ENDS
;	COMDAT ??_C@_0BB@PEBLFAAD@?$DP?l?$KL?n?$KE?t?$LI?$DP?$OA?x?M?$KH?T?t?l?$PN?$AA@
CONST	SEGMENT
??_C@_0BB@PEBLFAAD@?$DP?l?$KL?n?$KE?t?$LI?$DP?$OA?x?M?$KH?T?t?l?$PN?$AA@ DB '?'
	DB	0ecH, 0abH, 0eeH, 0a4H, 0f4H, 0b8H, '?', 0e0H, 0f8H, 0cdH, 0a7H
	DB	0d4H, 0f4H, 0ecH, 0fdH, 00H			; `string'
CONST	ENDS
;	COMDAT ??_C@_0BF@BFOFAFDI@?$DP?l?$KL?n?$KE?$DP?V?X?J?$KL?o?T?$OA?x?M?$KH?T?t?l?$PN?$AA@
CONST	SEGMENT
??_C@_0BF@BFOFAFDI@?$DP?l?$KL?n?$KE?$DP?V?X?J?$KL?o?T?$OA?x?M?$KH?T?t?l?$PN?$AA@ DB '?'
	DB	0ecH, 0abH, 0eeH, 0a4H, '?', 0d6H, 0d8H, 0caH, 0abH, 0efH, 0d4H
	DB	0e0H, 0f8H, 0cdH, 0a7H, 0d4H, 0f4H, 0ecH, 0fdH, 00H ; `string'
CONST	ENDS
;	COMDAT ??_C@_0BC@ODOFDCOF@?$DP?l?$KL?n?$KE?$OA?x?$DP?$DP?$OA?x?M?$KH?T?t?l?$PN?$AA@
CONST	SEGMENT
??_C@_0BC@ODOFDCOF@?$DP?l?$KL?n?$KE?$OA?x?$DP?$DP?$OA?x?M?$KH?T?t?l?$PN?$AA@ DB '?'
	DB	0ecH, 0abH, 0eeH, 0a4H, 0e0H, 0f8H, '??', 0e0H, 0f8H, 0cdH, 0a7H
	DB	0d4H, 0f4H, 0ecH, 0fdH, 00H			; `string'
CONST	ENDS
;	COMDAT ??_C@_0BC@NPHDINBL@?$DP?l?$KL?n?$KE?z?E?y?$PL?$OA?x?M?$KH?T?t?l?$PN?$AA@
CONST	SEGMENT
??_C@_0BC@NPHDINBL@?$DP?l?$KL?n?$KE?z?E?y?$PL?$OA?x?M?$KH?T?t?l?$PN?$AA@ DB '?'
	DB	0ecH, 0abH, 0eeH, 0a4H, 0faH, 0c5H, 0f9H, 0fbH, 0e0H, 0f8H, 0cdH
	DB	0a7H, 0d4H, 0f4H, 0ecH, 0fdH, 00H		; `string'
CONST	ENDS
;	COMDAT ??_C@_0BB@MMGOFGBI@?$DP?l?$KL?n?$KE?$DP?y?A?$OA?x?M?$KH?T?t?l?$PN?$AA@
CONST	SEGMENT
??_C@_0BB@MMGOFGBI@?$DP?l?$KL?n?$KE?$DP?y?A?$OA?x?M?$KH?T?t?l?$PN?$AA@ DB '?'
	DB	0ecH, 0abH, 0eeH, 0a4H, '?', 0f9H, 0c1H, 0e0H, 0f8H, 0cdH, 0a7H
	DB	0d4H, 0f4H, 0ecH, 0fdH, 00H			; `string'
CONST	ENDS
;	COMDAT ??_C@_0BA@OCMAIDLN@?$DP?l?$KL?n?$KE?$DP?$DP?$OA?x?M?$KH?T?t?l?$PN?$AA@
CONST	SEGMENT
??_C@_0BA@OCMAIDLN@?$DP?l?$KL?n?$KE?$DP?$DP?$OA?x?M?$KH?T?t?l?$PN?$AA@ DB '?'
	DB	0ecH, 0abH, 0eeH, 0a4H, '??', 0e0H, 0f8H, 0cdH, 0a7H, 0d4H, 0f4H
	DB	0ecH, 0fdH, 00H				; `string'
CONST	ENDS
;	COMDAT ??_C@_0BC@EOGDPEGN@?$DP?l?$KL?n?$KE?m?$LJ?Z?$LA?$OA?x?M?$KH?T?t?l?$PN?$AA@
CONST	SEGMENT
??_C@_0BC@EOGDPEGN@?$DP?l?$KL?n?$KE?m?$LJ?Z?$LA?$OA?x?M?$KH?T?t?l?$PN?$AA@ DB '?'
	DB	0ecH, 0abH, 0eeH, 0a4H, 0edH, 0b9H, 0daH, 0b0H, 0e0H, 0f8H, 0cdH
	DB	0a7H, 0d4H, 0f4H, 0ecH, 0fdH, 00H		; `string'
CONST	ENDS
;	COMDAT ??_C@_0BC@IADOEDAG@?$DP?l?$KL?n?$KE?$NN?A?T?$OA?$OA?x?M?$KH?T?t?l?$PN?$AA@
CONST	SEGMENT
??_C@_0BC@IADOEDAG@?$DP?l?$KL?n?$KE?$NN?A?T?$OA?$OA?x?M?$KH?T?t?l?$PN?$AA@ DB '?'
	DB	0ecH, 0abH, 0eeH, 0a4H, 0ddH, 0c1H, 0d4H, 0e0H, 0e0H, 0f8H, 0cdH
	DB	0a7H, 0d4H, 0f4H, 0ecH, 0fdH, 00H		; `string'
CONST	ENDS
;	COMDAT ??_C@_0BC@BLEFHHCI@?$DP?l?$KL?n?$KE?t?$LI?c?j?$OA?x?M?$KH?T?t?l?$PN?$AA@
CONST	SEGMENT
??_C@_0BC@BLEFHHCI@?$DP?l?$KL?n?$KE?t?$LI?c?j?$OA?x?M?$KH?T?t?l?$PN?$AA@ DB '?'
	DB	0ecH, 0abH, 0eeH, 0a4H, 0f4H, 0b8H, 0e3H, 0eaH, 0e0H, 0f8H, 0cdH
	DB	0a7H, 0d4H, 0f4H, 0ecH, 0fdH, 00H		; `string'
CONST	ENDS
;	COMDAT ??_C@_0BB@DDFMPBHB@?$DP?l?$KL?n?$KE?w?$LM?$DP?$OA?x?M?$KH?T?t?l?$PN?$AA@
CONST	SEGMENT
??_C@_0BB@DDFMPBHB@?$DP?l?$KL?n?$KE?w?$LM?$DP?$OA?x?M?$KH?T?t?l?$PN?$AA@ DB '?'
	DB	0ecH, 0abH, 0eeH, 0a4H, 0f7H, 0bcH, '?', 0e0H, 0f8H, 0cdH, 0a7H
	DB	0d4H, 0f4H, 0ecH, 0fdH, 00H			; `string'
CONST	ENDS
;	COMDAT ??_C@_0BE@FNJGPFEB@?$DP?l?$KL?n?$KE?P?l?v?b?$OA?x?M?$KH?T?t?l?$PN?$KB?$KD?$AA@
CONST	SEGMENT
??_C@_0BE@FNJGPFEB@?$DP?l?$KL?n?$KE?P?l?v?b?$OA?x?M?$KH?T?t?l?$PN?$KB?$KD?$AA@ DB '?'
	DB	0ecH, 0abH, 0eeH, 0a4H, 0d0H, 0ecH, 0f6H, 0e2H, 0e0H, 0f8H, 0cdH
	DB	0a7H, 0d4H, 0f4H, 0ecH, 0fdH, 0a1H, 0a3H, 00H ; `string'
CONST	ENDS
;	COMDAT ??_C@_0BB@PHBDBDAB@?$MA?N?E?M?$LD?$NN?5?$LP?$KM?$LA?a?5?$LP?$MA?$LH?y?$AA@
CONST	SEGMENT
??_C@_0BB@PHBDBDAB@?$MA?N?E?M?$LD?$NN?5?$LP?$KM?$LA?a?5?$LP?$MA?$LH?y?$AA@ DB 0c0H
	DB	0ceH, 0c5H, 0cdH, 0b3H, 0ddH, ' ', 0bfH, 0acH, 0b0H, 0e1H, ' ', 0bfH
	DB	0c0H, 0b7H, 0f9H, 00H			; `string'
CONST	ENDS
;	COMDAT ??_C@_0CE@MIFIPBLG@WGS?o?C?$DP?$NM?t?p?k?0?5?$DP?$DP?$DPWGS?o?C?$DP?$DP?n?$KC?r?$LI?$DP?$DP?j?$PN?$DP?$DP@
CONST	SEGMENT
??_C@_0CE@MIFIPBLG@WGS?o?C?$DP?$NM?t?p?k?0?5?$DP?$DP?$DPWGS?o?C?$DP?$DP?n?$KC?r?$LI?$DP?$DP?j?$PN?$DP?$DP@ DB 'W'
	DB	'GS', 0efH, 0c3H, '?', 0dcH, 0f4H, 0f0H, 0ebH, ', ???WGS', 0efH
	DB	0c3H, '??', 0eeH, 0a2H, 0f2H, 0b8H, '??', 0eaH, 0fdH, '??', 0f1H
	DB	0bcH, '?', 00H				; `string'
CONST	ENDS
;	COMDAT ??_C@_0CL@DHOIGGNA@WGS?o?C?$DP?$DP?l?$KL?i?D?h?G?o?C?$DP?0?5?$DP?$DP?$DP?o?C?$DP?$DP?n?$KC?r?$LI?$DP?$DP?j@
CONST	SEGMENT
??_C@_0CL@DHOIGGNA@WGS?o?C?$DP?$DP?l?$KL?i?D?h?G?o?C?$DP?0?5?$DP?$DP?$DP?o?C?$DP?$DP?n?$KC?r?$LI?$DP?$DP?j@ DB 'W'
	DB	'GS', 0efH, 0c3H, '??', 0ecH, 0abH, 0e9H, 0c4H, 0e8H, 0c7H, 0efH
	DB	0c3H, '?, ???', 0efH, 0c3H, '??', 0eeH, 0a2H, 0f2H, 0b8H, '??', 0eaH
	DB	0fdH, '??', 0e8H, 0c7H, 0e0H, 0f7H, 0f1H, 0bcH, '?', 00H ; `string'
CONST	ENDS
;	COMDAT ??_C@_0EC@JANGBCI@?$MA?L?5?A?$KG?G?$LA?$MA?$LK?5?$LO?F?A?w?5?$LF?n?$LH?O?$LF?G?A?v?5?$LO?J?$LO?R?$LN?$MA?$LE?O@
CONST	SEGMENT
??_C@_0EC@JANGBCI@?$MA?L?5?A?$KG?G?$LA?$MA?$LK?5?$LO?F?A?w?5?$LF?n?$LH?O?$LF?G?A?v?5?$LO?J?$LO?R?$LN?$MA?$LE?O@ DB 0c0H
	DB	0ccH, ' ', 0c1H, 0a6H, 0c7H, 0b0H, 0c0H, 0baH, ' ', 0beH, 0c6H
	DB	0c1H, 0f7H, ' ', 0b5H, 0eeH, 0b7H, 0cfH, 0b5H, 0c7H, 0c1H, 0f6H
	DB	' ', 0beH, 0caH, 0beH, 0d2H, 0bdH, 0c0H, 0b4H, 0cfH, 0b4H, 0d9H
	DB	'.  ', 0bbH, 0e7H, 0c0H, 0ccH, 0c6H, 0aeH, 0bfH, 0a1H, 0bcH, 0adH
	DB	' ', 0b8H, 0d5H, 0c0H, 0faH, ' ', 0b5H, 0eeH, 0b7H, 0cfH, 0c7H
	DB	0cfH, 0bcH, 0bcH, 0bfH, 0e4H, 0a1H, 0a3H, 00H ; `string'
CONST	ENDS
;	COMDAT ??_C@_0FC@MFALGBLI@?$LA?T?$MA?S?$MA?$LL?5?$LN?C?$MA?$NL?G?O?$LB?b?5?$MA?$PM?$LP?$KB?5Wayi?$LA?T?$MA?S?$LP?$KB?5@
CONST	SEGMENT
??_C@_0FC@MFALGBLI@?$LA?T?$MA?S?$MA?$LL?5?$LN?C?$MA?$NL?G?O?$LB?b?5?$MA?$PM?$LP?$KB?5Wayi?$LA?T?$MA?S?$LP?$KB?5@ DB 0b0H
	DB	0d4H, 0c0H, 0d3H, 0c0H, 0bbH, ' ', 0bdH, 0c3H, 0c0H, 0dbH, 0c7H
	DB	0cfH, 0b1H, 0e2H, ' ', 0c0H, 0fcH, 0bfH, 0a1H, ' Wayi', 0b0H, 0d4H
	DB	0c0H, 0d3H, 0bfH, 0a1H, ' ', 0c1H, 0a2H, 0bcH, 0d3H, 0c7H, 0cfH
	DB	0bfH, 0a9H, ' ', 0b0H, 0d4H, 0c0H, 0d3H, ' ', 0b0H, 0fcH, 0b8H
	DB	0aeH, ' ', 0b0H, 0e8H, 0c1H, 0a4H, 0c0H, 0c7H, ' ', 0baH, 0f1H
	DB	0b9H, 0d0H, 0b9H, 0f8H, 0c8H, 0a3H, 0b8H, 0a6H, ' ', 0baH, 0afH
	DB	0b0H, 0e6H, 0c7H, 0cfH, 0bdH, 0caH, 0bdH, 0c3H, 0bfH, 0c0H, 00H ; `string'
CONST	ENDS
;	COMDAT ??_C@_0CO@LFMOKHEP@?$MA?L?5?$LA?h?A?$KE?$MA?$LK?5?$MA?L?$LJ?L?5?$LL?u?$LH?N?$LP?n?5?H?$LI?$LP?x?$MA?$LI?$LH?N?5?$MA@
CONST	SEGMENT
??_C@_0CO@LFMOKHEP@?$MA?L?5?$LA?h?A?$KE?$MA?$LK?5?$MA?L?$LJ?L?5?$LL?u?$LH?N?$LP?n?5?H?$LI?$LP?x?$MA?$LI?$LH?N?5?$MA@ DB 0c0H
	DB	0ccH, ' ', 0b0H, 0e8H, 0c1H, 0a4H, 0c0H, 0baH, ' ', 0c0H, 0ccH
	DB	0b9H, 0ccH, ' ', 0bbH, 0f5H, 0b7H, 0ceH, 0bfH, 0eeH, ' ', 0c8H
	DB	0b8H, 0bfH, 0f8H, 0c0H, 0b8H, 0b7H, 0ceH, ' ', 0c0H, 0fcH, 0c8H
	DB	0afH, 0b5H, 0c7H, 0beH, 0faH, 0bdH, 0c0H, 0b4H, 0cfH, 0b4H, 0d9H
	DB	00H						; `string'
CONST	ENDS
;	COMDAT ??_C@_0CH@MGAFLNOF@?H?$KI?F?d?$MA?L?A?v?$LP?$KB?5?$LO?F?A?w?5?$LH?N?$LB?W?$MA?N?5?$LF?G?A?v?5?$LO?J?$LO?R@
CONST	SEGMENT
??_C@_0CH@MGAFLNOF@?H?$KI?F?d?$MA?L?A?v?$LP?$KB?5?$LO?F?A?w?5?$LH?N?$LB?W?$MA?N?5?$LF?G?A?v?5?$LO?J?$LO?R@ DB 0c8H
	DB	0a8H, 0c6H, 0e4H, 0c0H, 0ccH, 0c1H, 0f6H, 0bfH, 0a1H, ' ', 0beH
	DB	0c6H, 0c1H, 0f7H, ' ', 0b7H, 0ceH, 0b1H, 0d7H, 0c0H, 0ceH, ' ', 0b5H
	DB	0c7H, 0c1H, 0f6H, ' ', 0beH, 0caH, 0beH, 0d2H, 0bdH, 0c0H, 0b4H
	DB	0cfH, 0b4H, 0d9H, 00H			; `string'
CONST	ENDS
;	COMDAT ??_C@_0DE@LMMPDPLP@?$LH?N?$LB?W?$MA?N?5?$LN?C?$LA?$KD?$MA?L?5?C?J?$LA?z?$LF?G?$LO?z?$LN?$MA?$LE?O?$LE?Y?4?5?$LE?Y@
CONST	SEGMENT
??_C@_0DE@LMMPDPLP@?$LH?N?$LB?W?$MA?N?5?$LN?C?$LA?$KD?$MA?L?5?C?J?$LA?z?$LF?G?$LO?z?$LN?$MA?$LE?O?$LE?Y?4?5?$LE?Y@ DB 0b7H
	DB	0ceH, 0b1H, 0d7H, 0c0H, 0ceH, ' ', 0bdH, 0c3H, 0b0H, 0a3H, 0c0H
	DB	0ccH, ' ', 0c3H, 0caH, 0b0H, 0faH, 0b5H, 0c7H, 0beH, 0faH, 0bdH
	DB	0c0H, 0b4H, 0cfH, 0b4H, 0d9H, '. ', 0b4H, 0d9H, 0bdH, 0c3H, ' '
	DB	0b7H, 0ceH, 0b1H, 0d7H, 0c0H, 0ceH, ' ', 0c7H, 0cfH, 0bdH, 0caH
	DB	0bdH, 0c3H, 0bfH, 0c0H, '.', 00H		; `string'
CONST	ENDS
;	COMDAT ??_C@_0DE@CGFBMJCB@?$LA?T?$MA?S?$MA?$LL?5?$LN?C?$MA?$NL?G?O?$LB?b?5?$MA?$PM?$LP?$KB?5?$LA?$LD?$MA?N?5?A?$KE?$LK?$LI?$LI?$KG@
CONST	SEGMENT
??_C@_0DE@CGFBMJCB@?$LA?T?$MA?S?$MA?$LL?5?$LN?C?$MA?$NL?G?O?$LB?b?5?$MA?$PM?$LP?$KB?5?$LA?$LD?$MA?N?5?A?$KE?$LK?$LI?$LI?$KG@ DB 0b0H
	DB	0d4H, 0c0H, 0d3H, 0c0H, 0bbH, ' ', 0bdH, 0c3H, 0c0H, 0dbH, 0c7H
	DB	0cfH, 0b1H, 0e2H, ' ', 0c0H, 0fcH, 0bfH, 0a1H, ' ', 0b0H, 0b3H
	DB	0c0H, 0ceH, ' ', 0c1H, 0a4H, 0baH, 0b8H, 0b8H, 0a6H, ' ', 0b4H
	DB	0d9H, 0bdH, 0c3H, ' ', 0c8H, 0aeH, 0c0H, 0ceH, 0c7H, 0cfH, 0bdH
	DB	0caH, 0bdH, 0c3H, 0bfH, 0c0H, ']', 00H	; `string'
CONST	ENDS
;	COMDAT ??_C@_0CH@JMACCECP@?$MA?L?5?$LA?h?A?$KE?$MA?$LK?5?A?$KE?A?v?$LF?G?$LO?z?$LN?$MA?$LE?O?$LE?Y?0?5?$LJ?$KO?$MA?G?G?X@
CONST	SEGMENT
??_C@_0CH@JMACCECP@?$MA?L?5?$LA?h?A?$KE?$MA?$LK?5?A?$KE?A?v?$LF?G?$LO?z?$LN?$MA?$LE?O?$LE?Y?0?5?$LJ?$KO?$MA?G?G?X@ DB 0c0H
	DB	0ccH, ' ', 0b0H, 0e8H, 0c1H, 0a4H, 0c0H, 0baH, ' ', 0c1H, 0a4H
	DB	0c1H, 0f6H, 0b5H, 0c7H, 0beH, 0faH, 0bdH, 0c0H, 0b4H, 0cfH, 0b4H
	DB	0d9H, ', ', 0b9H, 0aeH, 0c0H, 0c7H, 0c7H, 0d8H, 0c1H, 0d6H, 0bcH
	DB	0bcH, 0bfH, 0e4H, 00H			; `string'
CONST	ENDS
;	COMDAT ??_C@_0DF@NACPJADM@?$LO?F?$MA?L?$LF?p?$LP?M?5?$LK?q?$LJ?P?$LJ?x?H?$KD?$LE?B?5?$LP?$LF?$LJ?$KO?$LA?z?5?$LM?$PN?$MA?Z?$LI@
CONST	SEGMENT
??_C@_0DF@NACPJADM@?$LO?F?$MA?L?$LF?p?$LP?M?5?$LK?q?$LJ?P?$LJ?x?H?$KD?$LE?B?5?$LP?$LF?$LJ?$KO?$LA?z?5?$LM?$PN?$MA?Z?$LI@ DB 0beH
	DB	0c6H, 0c0H, 0ccH, 0b5H, 0f0H, 0bfH, 0cdH, ' ', 0baH, 0f1H, 0b9H
	DB	0d0H, 0b9H, 0f8H, 0c8H, 0a3H, 0b4H, 0c2H, ' ', 0bfH, 0b5H, 0b9H
	DB	0aeH, 0b0H, 0faH, ' ', 0bcH, 0fdH, 0c0H, 0daH, 0b8H, 0b8H, ' ', 0bbH
	DB	0e7H, 0bfH, 0ebH, 0c7H, 0d2H, ' ', 0bcH, 0f6H, ' ', 0c0H, 0d6H
	DB	0bdH, 0c0H, 0b4H, 0cfH, 0b4H, 0d9H, 00H	; `string'
CONST	ENDS
;	COMDAT ??_C@_0CD@NOMGEOJE@?H?$LI?$LP?x?5?$LA?h?A?$KE?$MA?L?5?H?$LA?$LM?$LK?H?$KN?5?$LF?G?A?v?5?$LO?J?$LO?R?$LN?$MA?$LE?O@
CONST	SEGMENT
??_C@_0CD@NOMGEOJE@?H?$LI?$LP?x?5?$LA?h?A?$KE?$MA?L?5?H?$LA?$LM?$LK?H?$KN?5?$LF?G?A?v?5?$LO?J?$LO?R?$LN?$MA?$LE?O@ DB 0c8H
	DB	0b8H, 0bfH, 0f8H, ' ', 0b0H, 0e8H, 0c1H, 0a4H, 0c0H, 0ccH, ' ', 0c8H
	DB	0b0H, 0bcH, 0baH, 0c8H, 0adH, ' ', 0b5H, 0c7H, 0c1H, 0f6H, ' ', 0beH
	DB	0caH, 0beH, 0d2H, 0bdH, 0c0H, 0b4H, 0cfH, 0b4H, 0d9H, 00H ; `string'
CONST	ENDS
;	COMDAT ??_C@_0BF@NHOPBCJF@?$MA?$NP?$LI?x?$LF?H?5?$LN?C?$MA?$NL?5?$LP?$KB?$LH?$KP?D?Z?$LF?e?$AA@
CONST	SEGMENT
??_C@_0BF@NHOPBCJF@?$MA?$NP?$LI?x?$LF?H?5?$LN?C?$MA?$NL?5?$LP?$KB?$LH?$KP?D?Z?$LF?e?$AA@ DB 0c0H
	DB	0dfH, 0b8H, 0f8H, 0b5H, 0c8H, ' ', 0bdH, 0c3H, 0c0H, 0dbH, ' ', 0bfH
	DB	0a1H, 0b7H, 0afH, 0c4H, 0daH, 0b5H, 0e5H, 00H ; `string'
CONST	ENDS
;	COMDAT ??_C@_0BO@HAIDEEBI@?H?$LI?$LP?x?5?$LA?h?A?$KE?$MA?L?5?H?$LA?$LM?$LK?H?$KN?5?$LF?G?$LO?z?$LN?$MA?$LE?O?$LE?Y?$AA@
CONST	SEGMENT
??_C@_0BO@HAIDEEBI@?H?$LI?$LP?x?5?$LA?h?A?$KE?$MA?L?5?H?$LA?$LM?$LK?H?$KN?5?$LF?G?$LO?z?$LN?$MA?$LE?O?$LE?Y?$AA@ DB 0c8H
	DB	0b8H, 0bfH, 0f8H, ' ', 0b0H, 0e8H, 0c1H, 0a4H, 0c0H, 0ccH, ' ', 0c8H
	DB	0b0H, 0bcH, 0baH, 0c8H, 0adH, ' ', 0b5H, 0c7H, 0beH, 0faH, 0bdH
	DB	0c0H, 0b4H, 0cfH, 0b4H, 0d9H, 00H		; `string'
CONST	ENDS
;	COMDAT ??_C@_0CE@KOLHMKHB@?$LA?$LA?$MA?$LK?5?$MA?L?$LI?$KH?$MA?G?5?$LA?h?A?$KE?$MA?L?5?$MA?L?$LJ?L?5?A?$LI?$MA?g?G?U?$LE?O@
CONST	SEGMENT
??_C@_0CE@KOLHMKHB@?$LA?$LA?$MA?$LK?5?$MA?L?$LI?$KH?$MA?G?5?$LA?h?A?$KE?$MA?L?5?$MA?L?$LJ?L?5?A?$LI?$MA?g?G?U?$LE?O@ DB 0b0H
	DB	0b0H, 0c0H, 0baH, ' ', 0c0H, 0ccH, 0b8H, 0a7H, 0c0H, 0c7H, ' ', 0b0H
	DB	0e8H, 0c1H, 0a4H, 0c0H, 0ccH, ' ', 0c0H, 0ccH, 0b9H, 0ccH, ' ', 0c1H
	DB	0b8H, 0c0H, 0e7H, 0c7H, 0d5H, 0b4H, 0cfH, 0b4H, 0d9H, '.', 00H ; `string'
CONST	ENDS
;	COMDAT ??_C@_0CC@HINJGBNA@?$LH?N?$LB?W?$MA?N?G?O?A?v?5?$LO?J?$LO?R?$LA?E?$LD?$KK?5?$LH?N?$LB?W?$MA?N?5?$LP?$MA?$LH?y?$MA@
CONST	SEGMENT
??_C@_0CC@HINJGBNA@?$LH?N?$LB?W?$MA?N?G?O?A?v?5?$LO?J?$LO?R?$LA?E?$LD?$KK?5?$LH?N?$LB?W?$MA?N?5?$LP?$MA?$LH?y?$MA@ DB 0b7H
	DB	0ceH, 0b1H, 0d7H, 0c0H, 0ceH, 0c7H, 0cfH, 0c1H, 0f6H, ' ', 0beH
	DB	0caH, 0beH, 0d2H, 0b0H, 0c5H, 0b3H, 0aaH, ' ', 0b7H, 0ceH, 0b1H
	DB	0d7H, 0c0H, 0ceH, ' ', 0bfH, 0c0H, 0b7H, 0f9H, 0c0H, 0d3H, 00H ; `string'
CONST	ENDS
;	COMDAT ??_C@_0BM@JBMHIAK@?$LL?g?$LP?k?$MA?Z?$LA?$KB?5?$MA?L?$LJ?L?5?$LA?T?$MA?S?A?$NP?5?$MA?T?$LE?O?$LE?Y?$AA@
CONST	SEGMENT
??_C@_0BM@JBMHIAK@?$LL?g?$LP?k?$MA?Z?$LA?$KB?5?$MA?L?$LJ?L?5?$LA?T?$MA?S?A?$NP?5?$MA?T?$LE?O?$LE?Y?$AA@ DB 0bbH
	DB	0e7H, 0bfH, 0ebH, 0c0H, 0daH, 0b0H, 0a1H, ' ', 0c0H, 0ccH, 0b9H
	DB	0ccH, ' ', 0b0H, 0d4H, 0c0H, 0d3H, 0c1H, 0dfH, ' ', 0c0H, 0d4H
	DB	0b4H, 0cfH, 0b4H, 0d9H, 00H			; `string'
CONST	ENDS
;	COMDAT ??_C@_0CB@OGIGLFK@?$LF?$LP?$MA?O?G?Q?5?$LA?h?A?$KE?$MA?L?5?$LP?B?$LG?s?$MA?N?5?$LL?s?E?B?$MA?T?$LE?O?$LE?Y?4@
CONST	SEGMENT
??_C@_0CB@OGIGLFK@?$LF?$LP?$MA?O?G?Q?5?$LA?h?A?$KE?$MA?L?5?$LP?B?$LG?s?$MA?N?5?$LL?s?E?B?$MA?T?$LE?O?$LE?Y?4@ DB 0b5H
	DB	0bfH, 0c0H, 0cfH, 0c7H, 0d1H, ' ', 0b0H, 0e8H, 0c1H, 0a4H, 0c0H
	DB	0ccH, ' ', 0bfH, 0c2H, 0b6H, 0f3H, 0c0H, 0ceH, ' ', 0bbH, 0f3H
	DB	0c5H, 0c2H, 0c0H, 0d4H, 0b4H, 0cfH, 0b4H, 0d9H, '.', 00H ; `string'
CONST	ENDS
;	COMDAT ??_C@_0CP@NMMNAJC@?$LF?$LP?$MA?O?G?Q?5?$LL?g?$LP?k?$MA?Z?$LE?B?5?$LJ?$NN?$LK?$LJ?G?O?$LP?$KJ?5?$LH?N?$LB?W?$MA?N?5@
CONST	SEGMENT
??_C@_0CP@NMMNAJC@?$LF?$LP?$MA?O?G?Q?5?$LL?g?$LP?k?$MA?Z?$LE?B?5?$LJ?$NN?$LK?$LJ?G?O?$LP?$KJ?5?$LH?N?$LB?W?$MA?N?5@ DB 0b5H
	DB	0bfH, 0c0H, 0cfH, 0c7H, 0d1H, ' ', 0bbH, 0e7H, 0bfH, 0ebH, 0c0H
	DB	0daH, 0b4H, 0c2H, ' ', 0b9H, 0ddH, 0baH, 0b9H, 0c7H, 0cfH, 0bfH
	DB	0a9H, ' ', 0b7H, 0ceH, 0b1H, 0d7H, 0c0H, 0ceH, ' ', 0c7H, 0d2H
	DB	' ', 0bcH, 0f6H, ' ', 0beH, 0f8H, 0bdH, 0c0H, 0b4H, 0cfH, 0b4H
	DB	0d9H, 00H					; `string'
CONST	ENDS
;	COMDAT ??_C@_0HC@GFFIGLHA@?$MA?$NP?$LI?x?$LF?H?5?$LL?g?$LP?k?$MA?Z?5?$MA?L?$LI?$KH?5?$LG?G?$LE?B?5?$LK?q?$LJ?P?$LJ?x?H?$KD@
CONST	SEGMENT
??_C@_0HC@GFFIGLHA@?$MA?$NP?$LI?x?$LF?H?5?$LL?g?$LP?k?$MA?Z?5?$MA?L?$LI?$KH?5?$LG?G?$LE?B?5?$LK?q?$LJ?P?$LJ?x?H?$KD@ DB 0c0H
	DB	0dfH, 0b8H, 0f8H, 0b5H, 0c8H, ' ', 0bbH, 0e7H, 0bfH, 0ebH, 0c0H
	DB	0daH, ' ', 0c0H, 0ccH, 0b8H, 0a7H, ' ', 0b6H, 0c7H, 0b4H, 0c2H
	DB	' ', 0baH, 0f1H, 0b9H, 0d0H, 0b9H, 0f8H, 0c8H, 0a3H, ', ', 0beH
	DB	0c6H, 0c1H, 0f7H, ' ', 0c8H, 0b8H, 0bfH, 0f8H, 0bfH, 0a1H, ' ', 0b0H
	DB	0a1H, 0c0H, 0d4H, 0c7H, 0cfH, 0c1H, 0f6H, ' ', 0beH, 0caH, 0c0H
	DB	0baH, ' ', 0b0H, 0e6H, 0bfH, 0ecH, ' Wayi', 0b0H, 0d4H, 0c0H, 0d3H
	DB	' ', 0bbH, 0e7H, 0c0H, 0ccH, 0c6H, 0aeH, 0bfH, 0a1H, 0bcH, 0adH
	DB	' ', 0b9H, 0abH, 0b7H, 0e1H, 0b7H, 0ceH, ' ', 0c8H, 0b8H, 0bfH
	DB	0f8H, 0bfH, 0a1H, ' ', 0b0H, 0a1H, 0c0H, 0d4H, 0c7H, 0cfH, 0bdH
	DB	0caH, 0bdH, 0c3H, 0bfH, 0c0H, 0a1H, 0a3H, 00H ; `string'
CONST	ENDS
;	COMDAT ??_C@_0CG@HHMHGCGE@?$MA?T?$LH?B?G?Q?5?$MA?Z?$LH?a?5?G?$PM?$LN?D?$MA?L?5?$LP?C?$LJ?Y?$LI?$KD?A?v?5?$LO?J?$LN?$MA@
CONST	SEGMENT
??_C@_0CG@HHMHGCGE@?$MA?T?$LH?B?G?Q?5?$MA?Z?$LH?a?5?G?$PM?$LN?D?$MA?L?5?$LP?C?$LJ?Y?$LI?$KD?A?v?5?$LO?J?$LN?$MA@ DB 0c0H
	DB	0d4H, 0b7H, 0c2H, 0c7H, 0d1H, ' ', 0c0H, 0daH, 0b7H, 0e1H, ' ', 0c7H
	DB	0fcH, 0bdH, 0c4H, 0c0H, 0ccH, ' ', 0bfH, 0c3H, 0b9H, 0d9H, 0b8H
	DB	0a3H, 0c1H, 0f6H, ' ', 0beH, 0caH, 0bdH, 0c0H, 0b4H, 0cfH, 0b4H
	DB	0d9H, '.', 00H				; `string'
CONST	ENDS
;	COMDAT ??_C@_0DE@PGOBNCKH@?$LM?$KN?$LJ?v?5?$LL?g?$LP?k?$MA?Z?$LA?$KB?5?$LI?$LJ?$LN?$MA?$LE?O?$LE?Y?4?5?$MA?a?$LN?C?5?H?D?$LP@
CONST	SEGMENT
??_C@_0DE@PGOBNCKH@?$LM?$KN?$LJ?v?5?$LL?g?$LP?k?$MA?Z?$LA?$KB?5?$LI?$LJ?$LN?$MA?$LE?O?$LE?Y?4?5?$MA?a?$LN?C?5?H?D?$LP@ DB 0bcH
	DB	0adH, 0b9H, 0f6H, ' ', 0bbH, 0e7H, 0bfH, 0ebH, 0c0H, 0daH, 0b0H
	DB	0a1H, ' ', 0b8H, 0b9H, 0bdH, 0c0H, 0b4H, 0cfH, 0b4H, 0d9H, '. '
	DB	0c0H, 0e1H, 0bdH, 0c3H, ' ', 0c8H, 0c4H, 0bfH, 0a1H, ' ', 0b4H
	DB	0d9H, 0bdH, 0c3H, ' ', 0bdH, 0c3H, 0b5H, 0b5H, 0c7H, 0cfH, 0bdH
	DB	0caH, 0bdH, 0c3H, 0bfH, 0c0H, 00H		; `string'
CONST	ENDS
;	COMDAT ??_C@_0DB@MPLNGCGC@?$LF?$KF?$MA?L?E?M?$LK?$KD?$MA?L?$LN?$LK?$LP?$KB?$LM?$KN?5?$LP?C?$LJ?Y?$LI?$KF?5?A?$KE?$LK?$LI?$LI?$KG?5?$LA@
CONST	SEGMENT
??_C@_0DB@MPLNGCGC@?$LF?$KF?$MA?L?E?M?$LK?$KD?$MA?L?$LN?$LK?$LP?$KB?$LM?$KN?5?$LP?C?$LJ?Y?$LI?$KF?5?A?$KE?$LK?$LI?$LI?$KG?5?$LA@ DB 0b5H
	DB	0a5H, 0c0H, 0ccH, 0c5H, 0cdH, 0baH, 0a3H, 0c0H, 0ccH, 0bdH, 0baH
	DB	0bfH, 0a1H, 0bcH, 0adH, ' ', 0bfH, 0c3H, 0b9H, 0d9H, 0b8H, 0a5H
	DB	' ', 0c1H, 0a4H, 0baH, 0b8H, 0b8H, 0a6H, ' ', 0b0H, 0a1H, 0c1H
	DB	0aeH, 0bfH, 0c3H, 0bcH, 0f6H, ' ', 0beH, 0f8H, 0bdH, 0c0H, 0b4H
	DB	0cfH, 0b4H, 0d9H, 00H			; `string'
CONST	ENDS
;	COMDAT ??_C@_0CC@NMDHOJLK@?$LF?$KF?$MA?L?E?M?5?$LM?$KN?$LJ?v?$LP?$KB?5?A?$KC?$LM?S?5?G?R?5?$LM?v?5?$LO?x?$LN?$MA?$LE?O?$LE@
CONST	SEGMENT
??_C@_0CC@NMDHOJLK@?$LF?$KF?$MA?L?E?M?5?$LM?$KN?$LJ?v?$LP?$KB?5?A?$KC?$LM?S?5?G?R?5?$LM?v?5?$LO?x?$LN?$MA?$LE?O?$LE@ DB 0b5H
	DB	0a5H, 0c0H, 0ccH, 0c5H, 0cdH, ' ', 0bcH, 0adH, 0b9H, 0f6H, 0bfH
	DB	0a1H, ' ', 0c1H, 0a2H, 0bcH, 0d3H, ' ', 0c7H, 0d2H, ' ', 0bcH, 0f6H
	DB	' ', 0beH, 0f8H, 0bdH, 0c0H, 0b4H, 0cfH, 0b4H, 0d9H, 00H ; `string'
CONST	ENDS
;	COMDAT ??_C@_0BH@KKDGIMOK@?C?$LM?E?$KJ?$MA?N?5?C?$LD?$LI?$KO?5?$LN?G?F?P?$CI1001?$CJ?$AA@
CONST	SEGMENT
??_C@_0BH@KKDGIMOK@?C?$LM?E?$KJ?$MA?N?5?C?$LD?$LI?$KO?5?$LN?G?F?P?$CI1001?$CJ?$AA@ DB 0c3H
	DB	0bcH, 0c5H, 0a9H, 0c0H, 0ceH, ' ', 0c3H, 0b3H, 0b8H, 0aeH, ' ', 0bdH
	DB	0c7H, 0c6H, 0d0H, '(1001)', 00H		; `string'
CONST	ENDS
;	COMDAT ??_C@_0BA@JFEMHLAM@?T?t?l?$PN?$DP?W?b?$DP?$DP?l?$KL?S?p?$KB?$KD?$AA@
CONST	SEGMENT
??_C@_0BA@JFEMHLAM@?T?t?l?$PN?$DP?W?b?$DP?$DP?l?$KL?S?p?$KB?$KD?$AA@ DB 0d4H
	DB	0f4H, 0ecH, 0fdH, '?', 0d7H, 0e2H, '??', 0ecH, 0abH, 0d3H, 0f0H
	DB	0a1H, 0a3H, 00H				; `string'
CONST	ENDS
;	COMDAT ??_C@_0BC@FPKFEPPA@?D?$LD?$LI?$KP?E?M?5?A?$KG?$MA?$NL?5?A?$NP?4?4?4?$AA@
CONST	SEGMENT
??_C@_0BC@FPKFEPPA@?D?$LD?$LI?$KP?E?M?5?A?$KG?$MA?$NL?5?A?$NP?4?4?4?$AA@ DB 0c4H
	DB	0b3H, 0b8H, 0afH, 0c5H, 0cdH, ' ', 0c1H, 0a6H, 0c0H, 0dbH, ' ', 0c1H
	DB	0dfH, '...', 00H				; `string'
CONST	ENDS
;	COMDAT ??_C@_0BI@JKLCAMPH@?C?b?$LN?E?A?v?$LI?$KG?5?$LM?$LB?E?C?G?O?$LN?J?$LN?C?$LP?$MA?$KB?$KD?$AA@
CONST	SEGMENT
??_C@_0BI@JKLCAMPH@?C?b?$LN?E?A?v?$LI?$KG?5?$LM?$LB?E?C?G?O?$LN?J?$LN?C?$LP?$MA?$KB?$KD?$AA@ DB 0c3H
	DB	0e2H, 0bdH, 0c5H, 0c1H, 0f6H, 0b8H, 0a6H, ' ', 0bcH, 0b1H, 0c5H
	DB	0c3H, 0c7H, 0cfH, 0bdH, 0caH, 0bdH, 0c3H, 0bfH, 0c0H, 0a1H, 0a3H
	DB	00H						; `string'
CONST	ENDS
;	COMDAT ??_C@_0BH@MIIMPKCJ@?$LM?$LG?5?$MA?$KH?$LP?$KB?5?A?v?$LO?n?A?$LD?$LN?$MA?$LE?O?$LE?Y?$KB?$KD?$AA@
CONST	SEGMENT
??_C@_0BH@MIIMPKCJ@?$LM?$LG?5?$MA?$KH?$LP?$KB?5?A?v?$LO?n?A?$LD?$LN?$MA?$LE?O?$LE?Y?$KB?$KD?$AA@ DB 0bcH
	DB	0b6H, ' ', 0c0H, 0a7H, 0bfH, 0a1H, ' ', 0c1H, 0f6H, 0beH, 0eeH
	DB	0c1H, 0b3H, 0bdH, 0c0H, 0b4H, 0cfH, 0b4H, 0d9H, 0a1H, 0a3H, 00H ; `string'
CONST	ENDS
;	COMDAT ??_C@_0BB@BHNBHDIA@?$LI?$LG?$MA?$LL?$MA?$LK?5?$MA?$NL?$MA?$LK?5?$LP?$KJ?$LH?$KP?$AA@
CONST	SEGMENT
??_C@_0BB@BHNBHDIA@?$LI?$LG?$MA?$LL?$MA?$LK?5?$MA?$NL?$MA?$LK?5?$LP?$KJ?$LH?$KP?$AA@ DB 0b8H
	DB	0b6H, 0c0H, 0bbH, 0c0H, 0baH, ' ', 0c0H, 0dbH, 0c0H, 0baH, ' ', 0bfH
	DB	0a9H, 0b7H, 0afH, 00H			; `string'
CONST	ENDS
;	COMDAT ??_C@_0CC@JHAOGAJO@?$LA?$KB?$LP?l?$LI?$LA?$MA?G?5?$LM?$KN?B?J?$LP?$KB?5?$MA?$KH?D?$KB?G?X?5?$MA?V?$LN?$MA?$LE?O?$LE?Y?$KB@
CONST	SEGMENT
??_C@_0CC@JHAOGAJO@?$LA?$KB?$LP?l?$LI?$LA?$MA?G?5?$LM?$KN?B?J?$LP?$KB?5?$MA?$KH?D?$KB?G?X?5?$MA?V?$LN?$MA?$LE?O?$LE?Y?$KB@ DB 0b0H
	DB	0a1H, 0bfH, 0ecH, 0b8H, 0b0H, 0c0H, 0c7H, ' ', 0bcH, 0adH, 0c2H
	DB	0caH, 0bfH, 0a1H, ' ', 0c0H, 0a7H, 0c4H, 0a1H, 0c7H, 0d8H, ' ', 0c0H
	DB	0d6H, 0bdH, 0c0H, 0b4H, 0cfH, 0b4H, 0d9H, 0a1H, 0a3H, 00H ; `string'
CONST	ENDS
;	COMDAT ??_C@_0BF@PENPANFK@?$LN?L?$LB?W?$LH?$KP?$LP?n?5?$LD?l?$LL?v?5?$LI?$LG?$MA?$LL?$KB?$KD?$AA@
CONST	SEGMENT
??_C@_0BF@PENPANFK@?$LN?L?$LB?W?$LH?$KP?$LP?n?5?$LD?l?$LL?v?5?$LI?$LG?$MA?$LL?$KB?$KD?$AA@ DB 0bdH
	DB	0ccH, 0b1H, 0d7H, 0b7H, 0afH, 0bfH, 0eeH, ' ', 0b3H, 0ecH, 0bbH
	DB	0f6H, ' ', 0b8H, 0b6H, 0c0H, 0bbH, 0a1H, 0a3H, 00H ; `string'
CONST	ENDS
;	COMDAT ??_C@_0BF@DLENCNEM@?$LN?$KD?$MA?$LI?$LH?N?5?$LF?Q?$LH?$KP?5?$LN?W?$LP?$KJ?$MA?V?$LE?B?$AA@
CONST	SEGMENT
??_C@_0BF@DLENCNEM@?$LN?$KD?$MA?$LI?$LH?N?5?$LF?Q?$LH?$KP?5?$LN?W?$LP?$KJ?$MA?V?$LE?B?$AA@ DB 0bdH
	DB	0a3H, 0c0H, 0b8H, 0b7H, 0ceH, ' ', 0b5H, 0d1H, 0b7H, 0afH, ' ', 0bdH
	DB	0d7H, 0bfH, 0a9H, 0c0H, 0d6H, 0b4H, 0c2H, 00H ; `string'
CONST	ENDS
;	COMDAT ??_C@_0CC@DMMCBILE@?$LA?$KB?$LP?l?$LI?$LA?$MA?G?5?$LF?$LP?B?J?$LP?$KB?5?$MA?$KH?D?$KB?G?X?5?$MA?V?$LN?$MA?$LE?O?$LE?Y?$KD@
CONST	SEGMENT
??_C@_0CC@DMMCBILE@?$LA?$KB?$LP?l?$LI?$LA?$MA?G?5?$LF?$LP?B?J?$LP?$KB?5?$MA?$KH?D?$KB?G?X?5?$MA?V?$LN?$MA?$LE?O?$LE?Y?$KD@ DB 0b0H
	DB	0a1H, 0bfH, 0ecH, 0b8H, 0b0H, 0c0H, 0c7H, ' ', 0b5H, 0bfH, 0c2H
	DB	0caH, 0bfH, 0a1H, ' ', 0c0H, 0a7H, 0c4H, 0a1H, 0c7H, 0d8H, ' ', 0c0H
	DB	0d6H, 0bdH, 0c0H, 0b4H, 0cfH, 0b4H, 0d9H, 0a3H, 0acH, 00H ; `string'
CONST	ENDS
;	COMDAT ??_C@_0CL@GOPLDOIL@?$LO?F?$LI?$KH?$LE?Y?$LP?n?5?G?X?$LK?$KP?$MA?$LL?5?$LJ?Y?$LG?s?$LK?$LI?$LA?m?5?$MA?V?$LE?B?5?$LI?$LG@
CONST	SEGMENT
??_C@_0CL@GOPLDOIL@?$LO?F?$LI?$KH?$LE?Y?$LP?n?5?G?X?$LK?$KP?$MA?$LL?5?$LJ?Y?$LG?s?$LK?$LI?$LA?m?5?$MA?V?$LE?B?5?$LI?$LG@ DB 0beH
	DB	0c6H, 0b8H, 0a7H, 0b4H, 0d9H, 0bfH, 0eeH, ' ', 0c7H, 0d8H, 0baH
	DB	0afH, 0c0H, 0bbH, ' ', 0b9H, 0d9H, 0b6H, 0f3H, 0baH, 0b8H, 0b0H
	DB	0edH, ' ', 0c0H, 0d6H, 0b4H, 0c2H, ' ', 0b8H, 0b6H, 0c0H, 0bbH
	DB	0c0H, 0d4H, 0b4H, 0cfH, 0b4H, 0d9H, 0a1H, 0a3H, 00H ; `string'
CONST	ENDS
;	COMDAT ??_C@_0CD@FJDMGMIM@?$LL?g?$MA?L?$LD?J?$LN?$LK?$MA?G?5?$LM?$KN?B?J?$LP?$KB?5?$MA?$KH?D?$KB?G?X?5?$MA?V?$LN?$MA?$LE?O?$LE@
CONST	SEGMENT
??_C@_0CD@FJDMGMIM@?$LL?g?$MA?L?$LD?J?$LN?$LK?$MA?G?5?$LM?$KN?B?J?$LP?$KB?5?$MA?$KH?D?$KB?G?X?5?$MA?V?$LN?$MA?$LE?O?$LE@ DB 0bbH
	DB	0e7H, 0c0H, 0ccH, 0b3H, 0caH, 0bdH, 0baH, 0c0H, 0c7H, ' ', 0bcH
	DB	0adH, 0c2H, 0caH, 0bfH, 0a1H, ' ', 0c0H, 0a7H, 0c4H, 0a1H, 0c7H
	DB	0d8H, ' ', 0c0H, 0d6H, 0bdH, 0c0H, 0b4H, 0cfH, 0b4H, 0d9H, '.', 00H ; `string'
CONST	ENDS
;	COMDAT ??_C@_0BO@BMBAEGNC@?$LG?G?G?Q?5?$LA?$KB?$MA?e?5?A?z?$LM?$KN?$MA?V?$LE?B?5?$LI?$LG?$MA?$LL?$MA?L?$LE?Y?$KB?$KD?$AA@
CONST	SEGMENT
??_C@_0BO@BMBAEGNC@?$LG?G?G?Q?5?$LA?$KB?$MA?e?5?A?z?$LM?$KN?$MA?V?$LE?B?5?$LI?$LG?$MA?$LL?$MA?L?$LE?Y?$KB?$KD?$AA@ DB 0b6H
	DB	0c7H, 0c7H, 0d1H, ' ', 0b0H, 0a1H, 0c0H, 0e5H, ' ', 0c1H, 0faH
	DB	0bcH, 0adH, 0c0H, 0d6H, 0b4H, 0c2H, ' ', 0b8H, 0b6H, 0c0H, 0bbH
	DB	0c0H, 0ccH, 0b4H, 0d9H, 0a1H, 0a3H, 00H	; `string'
CONST	ENDS
;	COMDAT ??_C@_0BI@IHPDPOHC@4?$LA?$LD?5?$LI?$LG?$MA?$LL?A?$NP?5?$LA?$KB?$MA?e?5?E?$KO?$LE?O?$LE?Y?4?$AA@
CONST	SEGMENT
??_C@_0BI@IHPDPOHC@4?$LA?$LD?5?$LI?$LG?$MA?$LL?A?$NP?5?$LA?$KB?$MA?e?5?E?$KO?$LE?O?$LE?Y?4?$AA@ DB '4'
	DB	0b0H, 0b3H, ' ', 0b8H, 0b6H, 0c0H, 0bbH, 0c1H, 0dfH, ' ', 0b0H
	DB	0a1H, 0c0H, 0e5H, ' ', 0c5H, 0aeH, 0b4H, 0cfH, 0b4H, 0d9H, '.', 00H ; `string'
CONST	ENDS
;	COMDAT ??_C@_0CD@OGPAGALA@?$LL?g?$MA?L?$LD?J?$LN?$LK?$MA?G?5?$LF?$LP?B?J?$LP?$KB?5?$MA?$KH?D?$KB?G?X?5?$MA?V?$LN?$MA?$LE?O?$LE@
CONST	SEGMENT
??_C@_0CD@OGPAGALA@?$LL?g?$MA?L?$LD?J?$LN?$LK?$MA?G?5?$LF?$LP?B?J?$LP?$KB?5?$MA?$KH?D?$KB?G?X?5?$MA?V?$LN?$MA?$LE?O?$LE@ DB 0bbH
	DB	0e7H, 0c0H, 0ccH, 0b3H, 0caH, 0bdH, 0baH, 0c0H, 0c7H, ' ', 0b5H
	DB	0bfH, 0c2H, 0caH, 0bfH, 0a1H, ' ', 0c0H, 0a7H, 0c4H, 0a1H, 0c7H
	DB	0d8H, ' ', 0c0H, 0d6H, 0bdH, 0c0H, 0b4H, 0cfH, 0b4H, 0d9H, '.', 00H ; `string'
CONST	ENDS
;	COMDAT ??_C@_0O@FAJDIKKM@?D?$KL?$LH?g?E?$LI?$LD?$KK?5?$LI?$LG?$MA?$LL?$AA@
CONST	SEGMENT
??_C@_0O@FAJDIKKM@?D?$KL?$LH?g?E?$LI?$LD?$KK?5?$LI?$LG?$MA?$LL?$AA@ DB 0c4H
	DB	0abH, 0b7H, 0e7H, 0c5H, 0b8H, 0b3H, 0aaH, ' ', 0b8H, 0b6H, 0c0H
	DB	0bbH, 00H					; `string'
CONST	ENDS
;	COMDAT ??_C@_09GFHIJBMK@?$MA?p?$MA?p?5?$LI?$LG?$MA?$LL?$AA@
CONST	SEGMENT
??_C@_09GFHIJBMK@?$MA?p?$MA?p?5?$LI?$LG?$MA?$LL?$AA@ DB 0c0H, 0f0H, 0c0H, 0f0H
	DB	' ', 0b8H, 0b6H, 0c0H, 0bbH, 00H		; `string'
CONST	ENDS
;	COMDAT ??_C@_0O@OLOFEGAL@?$LI?$LG?$LI?$KO?$LD?J?$LN?$LK?5?$LI?$LG?$MA?$LL?$AA@
CONST	SEGMENT
??_C@_0O@OLOFEGAL@?$LI?$LG?$LI?$KO?$LD?J?$LN?$LK?5?$LI?$LG?$MA?$LL?$AA@ DB 0b8H
	DB	0b6H, 0b8H, 0aeH, 0b3H, 0caH, 0bdH, 0baH, ' ', 0b8H, 0b6H, 0c0H
	DB	0bbH, 00H					; `string'
CONST	ENDS
;	COMDAT ??_C@_0M@DLFCBPCC@?$LM?$KE?$LB?b?$LI?$KD?5?$LI?$LG?$MA?$LL?$AA@
CONST	SEGMENT
??_C@_0M@DLFCBPCC@?$LM?$KE?$LB?b?$LI?$KD?5?$LI?$LG?$MA?$LL?$AA@ DB 0bcH, 0a4H
	DB	0b1H, 0e2H, 0b8H, 0a3H, ' ', 0b8H, 0b6H, 0c0H, 0bbH, 00H ; `string'
CONST	ENDS
;	COMDAT ??_C@_0CF@JDHEEBNC@?$MA?L?$LI?$KH?0?5?$LO?s?$LB?$LM?0?5?$LB?b?$LK?$LL?5?$LL?s?E?B?5?$LJ?W?5?$LM?S?$LM?$LK?5?$LM?$LD@
CONST	SEGMENT
??_C@_0CF@JDHEEBNC@?$MA?L?$LI?$KH?0?5?$LO?s?$LB?$LM?0?5?$LB?b?$LK?$LL?5?$LL?s?E?B?5?$LJ?W?5?$LM?S?$LM?$LK?5?$LM?$LD@ DB 0c0H
	DB	0ccH, 0b8H, 0a7H, ', ', 0beH, 0f3H, 0b1H, 0bcH, ', ', 0b1H, 0e2H
	DB	0baH, 0bbH, ' ', 0bbH, 0f3H, 0c5H, 0c2H, ' ', 0b9H, 0d7H, ' ', 0bcH
	DB	0d3H, 0bcH, 0baH, ' ', 0bcH, 0b3H, 0c1H, 0a4H, 0a1H, 0a3H, 00H ; `string'
CONST	ENDS
;	COMDAT ??_C@_0P@LMMJJHJP@?$MA?T?5?$LI?p?$LO?g?5?$LK?$KP?$LA?f?$KB?$KD?$AA@
CONST	SEGMENT
??_C@_0P@LMMJJHJP@?$MA?T?5?$LI?p?$LO?g?5?$LK?$KP?$LA?f?$KB?$KD?$AA@ DB 0c0H
	DB	0d4H, ' ', 0b8H, 0f0H, 0beH, 0e7H, ' ', 0baH, 0afH, 0b0H, 0e6H
	DB	0a1H, 0a3H, 00H				; `string'
CONST	ENDS
;	COMDAT ??_C@_0P@PNCOKHHM@?D?Z?5?$LI?p?$LO?g?5?$LK?$KP?$LA?f?$KB?$KD?$AA@
CONST	SEGMENT
??_C@_0P@PNCOKHHM@?D?Z?5?$LI?p?$LO?g?5?$LK?$KP?$LA?f?$KB?$KD?$AA@ DB 0c4H
	DB	0daH, ' ', 0b8H, 0f0H, 0beH, 0e7H, ' ', 0baH, 0afH, 0b0H, 0e6H
	DB	0a1H, 0a3H, 00H				; `string'
CONST	ENDS
;	COMDAT ??_C@_0P@IMBCCPOD@?$LE?$KL?5?$LI?p?$LO?g?5?$LK?$KP?$LA?f?$KB?$KD?$AA@
CONST	SEGMENT
??_C@_0P@IMBCCPOD@?$LE?$KL?5?$LI?p?$LO?g?5?$LK?$KP?$LA?f?$KB?$KD?$AA@ DB 0b4H
	DB	0abH, ' ', 0b8H, 0f0H, 0beH, 0e7H, ' ', 0baH, 0afH, 0b0H, 0e6H
	DB	0a1H, 0a3H, 00H				; `string'
CONST	ENDS
;	COMDAT ??_C@_0DC@HDKFGPCM@?G?$LD?$LM?S?$LM?$LK?$KB?$KD?A?v?$LM?S?$LM?$LK?$MA?G?5?$LL?s?$LE?k?$LP?M?5?$LN?N?$LP?o?5?$LG?$KH?5@
CONST	SEGMENT
??_C@_0DC@HDKFGPCM@?G?$LD?$LM?S?$LM?$LK?$KB?$KD?A?v?$LM?S?$LM?$LK?$MA?G?5?$LL?s?$LE?k?$LP?M?5?$LN?N?$LP?o?5?$LG?$KH?5@ DB 0c7H
	DB	0b3H, 0bcH, 0d3H, 0bcH, 0baH, 0a1H, 0a3H, 0c1H, 0f6H, 0bcH, 0d3H
	DB	0bcH, 0baH, 0c0H, 0c7H, ' ', 0bbH, 0f3H, 0b4H, 0ebH, 0bfH, 0cdH
	DB	' ', 0bdH, 0ceH, 0bfH, 0efH, ' ', 0b6H, 0a7H, ' ', 0b4H, 0f5H, 0bfH
	DB	0edH, ' ', 0c0H, 0afH, 0b8H, 0aeH, 0c7H, 0d5H, 0b4H, 0cfH, 0b4H
	DB	0d9H, 0a1H, 0a3H, 00H			; `string'
CONST	ENDS
;	COMDAT ??_C@_0DC@DBHNIFJM@?H?$KN?$LM?S?$LM?$LK?$KB?$KD?G?$LD?$LM?S?$LM?$LK?$MA?G?5?$LL?s?$LE?k?$LP?M?5?$LN?N?$LP?o?5?$LG?$KH?5@
CONST	SEGMENT
??_C@_0DC@DBHNIFJM@?H?$KN?$LM?S?$LM?$LK?$KB?$KD?G?$LD?$LM?S?$LM?$LK?$MA?G?5?$LL?s?$LE?k?$LP?M?5?$LN?N?$LP?o?5?$LG?$KH?5@ DB 0c8H
	DB	0adH, 0bcH, 0d3H, 0bcH, 0baH, 0a1H, 0a3H, 0c7H, 0b3H, 0bcH, 0d3H
	DB	0bcH, 0baH, 0c0H, 0c7H, ' ', 0bbH, 0f3H, 0b4H, 0ebH, 0bfH, 0cdH
	DB	' ', 0bdH, 0ceH, 0bfH, 0efH, ' ', 0b6H, 0a7H, ' ', 0b4H, 0f5H, 0bfH
	DB	0edH, ' ', 0c0H, 0afH, 0b8H, 0aeH, 0c7H, 0d5H, 0b4H, 0cfH, 0b4H
	DB	0d9H, 0a1H, 0a3H, 00H			; `string'
CONST	ENDS
;	COMDAT ??_C@_0DC@EIPOCBIG@?$LM?v?$LM?S?$LM?$LK?$KB?$KD?H?$KN?$LM?S?$LM?$LK?$MA?G?5?$LL?s?$LE?k?$LP?M?5?$LN?N?$LP?o?5?$LG?$KH?5@
CONST	SEGMENT
??_C@_0DC@EIPOCBIG@?$LM?v?$LM?S?$LM?$LK?$KB?$KD?H?$KN?$LM?S?$LM?$LK?$MA?G?5?$LL?s?$LE?k?$LP?M?5?$LN?N?$LP?o?5?$LG?$KH?5@ DB 0bcH
	DB	0f6H, 0bcH, 0d3H, 0bcH, 0baH, 0a1H, 0a3H, 0c8H, 0adH, 0bcH, 0d3H
	DB	0bcH, 0baH, 0c0H, 0c7H, ' ', 0bbH, 0f3H, 0b4H, 0ebH, 0bfH, 0cdH
	DB	' ', 0bdH, 0ceH, 0bfH, 0efH, ' ', 0b6H, 0a7H, ' ', 0b4H, 0f5H, 0bfH
	DB	0edH, ' ', 0c0H, 0afH, 0b8H, 0aeH, 0c7H, 0d5H, 0b4H, 0cfH, 0b4H
	DB	0d9H, 0a1H, 0a3H, 00H			; `string'
CONST	ENDS
;	COMDAT ??_C@_0DC@DFHCGCAL@?A?v?$LM?S?$LM?$LK?$KB?$KD?$LM?v?$LM?S?$LM?$LK?$MA?G?5?$LL?s?$LE?k?$LP?M?5?$LN?N?$LP?o?5?$LG?$KH?5@
CONST	SEGMENT
??_C@_0DC@DFHCGCAL@?A?v?$LM?S?$LM?$LK?$KB?$KD?$LM?v?$LM?S?$LM?$LK?$MA?G?5?$LL?s?$LE?k?$LP?M?5?$LN?N?$LP?o?5?$LG?$KH?5@ DB 0c1H
	DB	0f6H, 0bcH, 0d3H, 0bcH, 0baH, 0a1H, 0a3H, 0bcH, 0f6H, 0bcH, 0d3H
	DB	0bcH, 0baH, 0c0H, 0c7H, ' ', 0bbH, 0f3H, 0b4H, 0ebH, 0bfH, 0cdH
	DB	' ', 0bdH, 0ceH, 0bfH, 0efH, ' ', 0b6H, 0a7H, ' ', 0b4H, 0f5H, 0bfH
	DB	0edH, ' ', 0c0H, 0afH, 0b8H, 0aeH, 0c7H, 0d5H, 0b4H, 0cfH, 0b4H
	DB	0d9H, 0a1H, 0a3H, 00H			; `string'
CONST	ENDS
;	COMDAT ??_C@_0DA@OOLAIOAA@?$MA?L?G?W?$LI?q?$MA?$LK?5?A?V?$LH?N?5?$LM?x?$LJ?$NP?$LH?B?$LA?z?5?$LA?$PM?$LH?C?$MA?L?5?$LA?$PM@
CONST	SEGMENT
??_C@_0DA@OOLAIOAA@?$MA?L?G?W?$LI?q?$MA?$LK?5?A?V?$LH?N?5?$LM?x?$LJ?$NP?$LH?B?$LA?z?5?$LA?$PM?$LH?C?$MA?L?5?$LA?$PM@ DB 0c0H
	DB	0ccH, 0c7H, 0d7H, 0b8H, 0f1H, 0c0H, 0baH, ' ', 0c1H, 0d6H, 0b7H
	DB	0ceH, ' ', 0bcH, 0f8H, 0b9H, 0dfH, 0b7H, 0c2H, 0b0H, 0faH, ' ', 0b0H
	DB	0fcH, 0b7H, 0c3H, 0c0H, 0ccH, ' ', 0b0H, 0fcH, 0b7H, 0c3H, 0c0H
	DB	0ccH, ' ', 0c0H, 0d6H, 0bdH, 0c0H, 0b4H, 0cfH, 0b4H, 0d9H, 0a1H
	DB	0a3H, 00H					; `string'
CONST	ENDS
;	COMDAT ??_C@_0CJ@PBMHJDKK@?$MA?L?G?W?$LI?q?$MA?$LK?5?A?V?$LH?N?5?$LJ?f?$LO?n?$LH?B?$LA?z?5?$LA?$PM?$LH?C?$MA?L?5?$MA?V@
CONST	SEGMENT
??_C@_0CJ@PBMHJDKK@?$MA?L?G?W?$LI?q?$MA?$LK?5?A?V?$LH?N?5?$LJ?f?$LO?n?$LH?B?$LA?z?5?$LA?$PM?$LH?C?$MA?L?5?$MA?V@ DB 0c0H
	DB	0ccH, 0c7H, 0d7H, 0b8H, 0f1H, 0c0H, 0baH, ' ', 0c1H, 0d6H, 0b7H
	DB	0ceH, ' ', 0b9H, 0e6H, 0beH, 0eeH, 0b7H, 0c2H, 0b0H, 0faH, ' ', 0b0H
	DB	0fcH, 0b7H, 0c3H, 0c0H, 0ccH, ' ', 0c0H, 0d6H, 0bdH, 0c0H, 0b4H
	DB	0cfH, 0b4H, 0d9H, 0a1H, 0a3H, 00H		; `string'
CONST	ENDS
;	COMDAT ??_C@_0CJ@DBPCCGK@?$MA?L?G?W?$LI?q?$MA?$LK?5?A?V?$LH?N?5?$LA?x?$LA?$NN?$LH?B?$LA?z?5?$LA?$PM?$LH?C?$MA?L?5?$MA?V@
CONST	SEGMENT
??_C@_0CJ@DBPCCGK@?$MA?L?G?W?$LI?q?$MA?$LK?5?A?V?$LH?N?5?$LA?x?$LA?$NN?$LH?B?$LA?z?5?$LA?$PM?$LH?C?$MA?L?5?$MA?V@ DB 0c0H
	DB	0ccH, 0c7H, 0d7H, 0b8H, 0f1H, 0c0H, 0baH, ' ', 0c1H, 0d6H, 0b7H
	DB	0ceH, ' ', 0b0H, 0f8H, 0b0H, 0ddH, 0b7H, 0c2H, 0b0H, 0faH, ' ', 0b0H
	DB	0fcH, 0b7H, 0c3H, 0c0H, 0ccH, ' ', 0c0H, 0d6H, 0bdH, 0c0H, 0b4H
	DB	0cfH, 0b4H, 0d9H, 0a1H, 0a3H, 00H		; `string'
CONST	ENDS
;	COMDAT ??_C@_0CK@EACHLIEL@?$MA?L?5?G?W?$LI?q?$MA?$LK?5?A?V?$LH?N?5?$LD?$LL?$LB?$LI?$LH?B?$LA?z?5?$LA?$PM?$LH?C?$MA?L?5?$MA@
CONST	SEGMENT
??_C@_0CK@EACHLIEL@?$MA?L?5?G?W?$LI?q?$MA?$LK?5?A?V?$LH?N?5?$LD?$LL?$LB?$LI?$LH?B?$LA?z?5?$LA?$PM?$LH?C?$MA?L?5?$MA@ DB 0c0H
	DB	0ccH, ' ', 0c7H, 0d7H, 0b8H, 0f1H, 0c0H, 0baH, ' ', 0c1H, 0d6H
	DB	0b7H, 0ceH, ' ', 0b3H, 0bbH, 0b1H, 0b8H, 0b7H, 0c2H, 0b0H, 0faH
	DB	' ', 0b0H, 0fcH, 0b7H, 0c3H, 0c0H, 0ccH, ' ', 0c0H, 0d6H, 0bdH
	DB	0c0H, 0b4H, 0cfH, 0b4H, 0d9H, 0a1H, 0a3H, 00H ; `string'
CONST	ENDS
;	COMDAT ??_C@_0BL@DBMJLOIN@?D?$LD?$LI?$KP?E?M?5?$LM?$LD?A?$KE?$MA?$LL?5?$LA?a?A?$KE?G?U?$LE?O?$LE?Y?$KB?$KD?$AA@
CONST	SEGMENT
??_C@_0BL@DBMJLOIN@?D?$LD?$LI?$KP?E?M?5?$LM?$LD?A?$KE?$MA?$LL?5?$LA?a?A?$KE?G?U?$LE?O?$LE?Y?$KB?$KD?$AA@ DB 0c4H
	DB	0b3H, 0b8H, 0afH, 0c5H, 0cdH, ' ', 0bcH, 0b3H, 0c1H, 0a4H, 0c0H
	DB	0bbH, ' ', 0b0H, 0e1H, 0c1H, 0a4H, 0c7H, 0d5H, 0b4H, 0cfH, 0b4H
	DB	0d9H, 0a1H, 0a3H, 00H			; `string'
CONST	ENDS
;	COMDAT ??_C@_0DJ@CMGKIMKM@?$MA?T?$LH?B?G?Q?5?$MA?L?$LI?$KH?$LP?$KB?$LE?B?5?G?c?$LP?k?$LF?G?A?v?5?$LO?J?$LE?B?5?$LJ?$KO@
CONST	SEGMENT
??_C@_0DJ@CMGKIMKM@?$MA?T?$LH?B?G?Q?5?$MA?L?$LI?$KH?$LP?$KB?$LE?B?5?G?c?$LP?k?$LF?G?A?v?5?$LO?J?$LE?B?5?$LJ?$KO@ DB 0c0H
	DB	0d4H, 0b7H, 0c2H, 0c7H, 0d1H, ' ', 0c0H, 0ccH, 0b8H, 0a7H, 0bfH
	DB	0a1H, 0b4H, 0c2H, ' ', 0c7H, 0e3H, 0bfH, 0ebH, 0b5H, 0c7H, 0c1H
	DB	0f6H, ' ', 0beH, 0caH, 0b4H, 0c2H, ' ', 0b9H, 0aeH, 0c0H, 0daH
	DB	0b0H, 0a1H, ' ', 0c6H, 0f7H, 0c7H, 0d4H, 0b5H, 0c7H, 0beH, 0eeH
	DB	' ', 0c0H, 0d6H, 0bdH, 0c0H, 0b4H, 0cfH, 0b4H, 0d9H, 0a3H, 0a1H
	DB	00H						; `string'
CONST	ENDS
;	COMDAT ??_C@_0BO@DBBPEHG@?$MA?L?$LI?$KH?$LP?$KB?5?$LA?x?$LJ?i?$MA?$LL?5?$LF?Q?$LM?v?5?$LO?x?$LN?$MA?$LE?O?$LE?Y?$KD?$KB?$AA@
CONST	SEGMENT
??_C@_0BO@DBBPEHG@?$MA?L?$LI?$KH?$LP?$KB?5?$LA?x?$LJ?i?$MA?$LL?5?$LF?Q?$LM?v?5?$LO?x?$LN?$MA?$LE?O?$LE?Y?$KD?$KB?$AA@ DB 0c0H
	DB	0ccH, 0b8H, 0a7H, 0bfH, 0a1H, ' ', 0b0H, 0f8H, 0b9H, 0e9H, 0c0H
	DB	0bbH, ' ', 0b5H, 0d1H, 0bcH, 0f6H, ' ', 0beH, 0f8H, 0bdH, 0c0H
	DB	0b4H, 0cfH, 0b4H, 0d9H, 0a3H, 0a1H, 00H	; `string'
CONST	ENDS
;	COMDAT ??_C@_0CE@IAICGILF@?$LM?S?$LM?$LK?D?$KB?$CI?1?F?w?$MA?N?F?$KO?$CJ?$LI?$KG?5?$LK?P?$LJ?h?5?$LP?O?$LH?a?G?O?$LM?$LM?$LP@
CONST	SEGMENT
??_C@_0CE@IAICGILF@?$LM?S?$LM?$LK?D?$KB?$CI?1?F?w?$MA?N?F?$KO?$CJ?$LI?$KG?5?$LK?P?$LJ?h?5?$LP?O?$LH?a?G?O?$LM?$LM?$LP@ DB 0bcH
	DB	0d3H, 0bcH, 0baH, 0c4H, 0a1H, '(/', 0c6H, 0f7H, 0c0H, 0ceH, 0c6H
	DB	0aeH, ')', 0b8H, 0a6H, ' ', 0baH, 0d0H, 0b9H, 0e8H, ' ', 0bfH, 0cfH
	DB	0b7H, 0e1H, 0c7H, 0cfH, 0bcH, 0bcH, 0bfH, 0e4H, 0a3H, 0a1H, 00H ; `string'
CONST	ENDS
;	COMDAT ??_C@_0CA@HJHEICBF@?$LL?s?E?B?5?F?w?$MA?N?F?$KO?$LI?$KG?5?$LK?P?$LJ?h?5?$LP?O?$LH?a?G?O?$LM?$LM?$LP?d?$KD?$KB?$AA@
CONST	SEGMENT
??_C@_0CA@HJHEICBF@?$LL?s?E?B?5?F?w?$MA?N?F?$KO?$LI?$KG?5?$LK?P?$LJ?h?5?$LP?O?$LH?a?G?O?$LM?$LM?$LP?d?$KD?$KB?$AA@ DB 0bbH
	DB	0f3H, 0c5H, 0c2H, ' ', 0c6H, 0f7H, 0c0H, 0ceH, 0c6H, 0aeH, 0b8H
	DB	0a6H, ' ', 0baH, 0d0H, 0b9H, 0e8H, ' ', 0bfH, 0cfH, 0b7H, 0e1H
	DB	0c7H, 0cfH, 0bcH, 0bcH, 0bfH, 0e4H, 0a3H, 0a1H, 00H ; `string'
CONST	ENDS
;	COMDAT ??_C@_0CH@NAEAKGPD@?$LA?$LA?$MA?$LK?5?$MA?L?$LI?$KH?$MA?G?5?D?$LD?$LI?$KP?E?M?$LA?$KB?5?$MA?L?$LJ?L?5?A?$LI?$MA?g?G?U@
CONST	SEGMENT
??_C@_0CH@NAEAKGPD@?$LA?$LA?$MA?$LK?5?$MA?L?$LI?$KH?$MA?G?5?D?$LD?$LI?$KP?E?M?$LA?$KB?5?$MA?L?$LJ?L?5?A?$LI?$MA?g?G?U@ DB 0b0H
	DB	0b0H, 0c0H, 0baH, ' ', 0c0H, 0ccH, 0b8H, 0a7H, 0c0H, 0c7H, ' ', 0c4H
	DB	0b3H, 0b8H, 0afH, 0c5H, 0cdH, 0b0H, 0a1H, ' ', 0c0H, 0ccH, 0b9H
	DB	0ccH, ' ', 0c1H, 0b8H, 0c0H, 0e7H, 0c7H, 0d5H, 0b4H, 0cfH, 0b4H
	DB	0d9H, 0a3H, 0a1H, 00H			; `string'
CONST	ENDS
;	COMDAT ??_C@_0BN@MICBHKJB@?$MA?L?$LI?$KH?$MA?$LL?5?$MA?T?$LH?B?G?O?A?v?5?$LO?J?$LO?R?$LN?$MA?$LE?O?$LE?Y?$KD?$KB?$AA@
CONST	SEGMENT
??_C@_0BN@MICBHKJB@?$MA?L?$LI?$KH?$MA?$LL?5?$MA?T?$LH?B?G?O?A?v?5?$LO?J?$LO?R?$LN?$MA?$LE?O?$LE?Y?$KD?$KB?$AA@ DB 0c0H
	DB	0ccH, 0b8H, 0a7H, 0c0H, 0bbH, ' ', 0c0H, 0d4H, 0b7H, 0c2H, 0c7H
	DB	0cfH, 0c1H, 0f6H, ' ', 0beH, 0caH, 0beH, 0d2H, 0bdH, 0c0H, 0b4H
	DB	0cfH, 0b4H, 0d9H, 0a3H, 0a1H, 00H		; `string'
CONST	ENDS
;	COMDAT ??_C@_02KNHHEEKP@?5?5?$AA@
CONST	SEGMENT
??_C@_02KNHHEEKP@?5?5?$AA@ DB '  ', 00H			; `string'
CONST	ENDS
;	COMDAT ??_C@_01CLKCMJKC@?5?$AA@
CONST	SEGMENT
??_C@_01CLKCMJKC@?5?$AA@ DB ' ', 00H			; `string'
CONST	ENDS
;	COMDAT ??_C@_0BN@JACDIIAG@?D?$LD?$LI?$KP?E?M?$LM?$LB?E?C?H?$KN?$LI?i?$MA?$LI?$LH?N?$LF?$LJ?$LO?F?$LA?$KB?$LB?b?$KB?$KD?$AA@
CONST	SEGMENT
??_C@_0BN@JACDIIAG@?D?$LD?$LI?$KP?E?M?$LM?$LB?E?C?H?$KN?$LI?i?$MA?$LI?$LH?N?$LF?$LJ?$LO?F?$LA?$KB?$LB?b?$KB?$KD?$AA@ DB 0c4H
	DB	0b3H, 0b8H, 0afH, 0c5H, 0cdH, 0bcH, 0b1H, 0c5H, 0c3H, 0c8H, 0adH
	DB	0b8H, 0e9H, 0c0H, 0b8H, 0b7H, 0ceH, 0b5H, 0b9H, 0beH, 0c6H, 0b0H
	DB	0a1H, 0b1H, 0e2H, 0a1H, 0a3H, 00H		; `string'
CONST	ENDS
;	COMDAT ??_C@_0BB@IBMPLOHE@?D?$LD?$LI?$KP?E?M?$LJ?f?G?b?$MA?$PM?H?$KP?$KB?$KD?$AA@
CONST	SEGMENT
??_C@_0BB@IBMPLOHE@?D?$LD?$LI?$KP?E?M?$LJ?f?G?b?$MA?$PM?H?$KP?$KB?$KD?$AA@ DB 0c4H
	DB	0b3H, 0b8H, 0afH, 0c5H, 0cdH, 0b9H, 0e6H, 0c7H, 0e2H, 0c0H, 0fcH
	DB	0c8H, 0afH, 0a1H, 0a3H, 00H			; `string'
CONST	ENDS
;	COMDAT ??_C@_0BD@GLGANICJ@?D?$LD?$LI?$KP?E?M?5?$LL?v?$LL?s?5?$LK?$KP?$LA?f?$KB?$KD?$AA@
CONST	SEGMENT
??_C@_0BD@GLGANICJ@?D?$LD?$LI?$KP?E?M?5?$LL?v?$LL?s?5?$LK?$KP?$LA?f?$KB?$KD?$AA@ DB 0c4H
	DB	0b3H, 0b8H, 0afH, 0c5H, 0cdH, ' ', 0bbH, 0f6H, 0bbH, 0f3H, ' ', 0baH
	DB	0afH, 0b0H, 0e6H, 0a1H, 0a3H, 00H		; `string'
CONST	ENDS
;	COMDAT ??_C@_0CC@NKOCBMEN@?G?v?$MA?g?5?$LM?$LB?E?C?G?Q?5?D?$LD?$LI?$KP?E?M?$LH?N?5?$LA?a?A?$KE?G?U?$LE?O?$LE?Y?$KB@
CONST	SEGMENT
??_C@_0CC@NKOCBMEN@?G?v?$MA?g?5?$LM?$LB?E?C?G?Q?5?D?$LD?$LI?$KP?E?M?$LH?N?5?$LA?a?A?$KE?G?U?$LE?O?$LE?Y?$KB@ DB 0c7H
	DB	0f6H, 0c0H, 0e7H, ' ', 0bcH, 0b1H, 0c5H, 0c3H, 0c7H, 0d1H, ' ', 0c4H
	DB	0b3H, 0b8H, 0afH, 0c5H, 0cdH, 0b7H, 0ceH, ' ', 0b0H, 0e1H, 0c1H
	DB	0a4H, 0c7H, 0d5H, 0b4H, 0cfH, 0b4H, 0d9H, 0a1H, 0a3H, 00H ; `string'
CONST	ENDS
;	COMDAT ??_C@_0L@LJAAMAMF@?5?5?5?C?k?$LM?R?5?5?5?$AA@
CONST	SEGMENT
??_C@_0L@LJAAMAMF@?5?5?5?C?k?$LM?R?5?5?5?$AA@ DB '   ', 0c3H, 0ebH, 0bcH, 0d2H
	DB	'   ', 00H					; `string'
CONST	ENDS
;	COMDAT ??_C@_0L@KFACDLLI@?5?$LJ?f?G?b?$MA?$PM?H?$KP?5?$AA@
CONST	SEGMENT
??_C@_0L@KFACDLLI@?5?$LJ?f?G?b?$MA?$PM?H?$KP?5?$AA@ DB ' ', 0b9H, 0e6H, 0c7H
	DB	0e2H, 0c0H, 0fcH, 0c8H, 0afH, ' ', 00H	; `string'
CONST	ENDS
;	COMDAT ??_C@_0L@DDKLBPNB@?5?$LL?v?$LL?s?$LK?$KP?$LA?f?5?$AA@
CONST	SEGMENT
??_C@_0L@DDKLBPNB@?5?$LL?v?$LL?s?$LK?$KP?$LA?f?5?$AA@ DB ' ', 0bbH, 0f6H, 0bbH
	DB	0f3H, 0baH, 0afH, 0b0H, 0e6H, ' ', 00H	; `string'
CONST	ENDS
;	COMDAT ??_C@_0L@POIBACII@?5?5?5?$LA?a?A?$KE?5?5?5?$AA@
CONST	SEGMENT
??_C@_0L@POIBACII@?5?5?5?$LA?a?A?$KE?5?5?5?$AA@ DB '   ', 0b0H, 0e1H, 0c1H
	DB	0a4H, '   ', 00H				; `string'
CONST	ENDS
;	COMDAT ??_C@_0BG@OIHOGAMJ@?D?$LD?$LI?$KP?E?M?$LI?$KG?5?$LM?$LB?E?C?G?O?$LM?$LM?$LP?d?$KB?$KD?$AA@
CONST	SEGMENT
??_C@_0BG@OIHOGAMJ@?D?$LD?$LI?$KP?E?M?$LI?$KG?5?$LM?$LB?E?C?G?O?$LM?$LM?$LP?d?$KB?$KD?$AA@ DB 0c4H
	DB	0b3H, 0b8H, 0afH, 0c5H, 0cdH, 0b8H, 0a6H, ' ', 0bcH, 0b1H, 0c5H
	DB	0c3H, 0c7H, 0cfH, 0bcH, 0bcH, 0bfH, 0e4H, 0a1H, 0a3H, 00H ; `string'
CONST	ENDS
;	COMDAT ??_C@_0BI@KIAMPJKG@?$MA?L?$MA?$PM?H?$KN?$LI?i?$MA?$LI?$LH?N?5?$LF?$LJ?$LO?F?$LA?$KB?$LB?b?$KB?$KD?$AA@
CONST	SEGMENT
??_C@_0BI@KIAMPJKG@?$MA?L?$MA?$PM?H?$KN?$LI?i?$MA?$LI?$LH?N?5?$LF?$LJ?$LO?F?$LA?$KB?$LB?b?$KB?$KD?$AA@ DB 0c0H
	DB	0ccH, 0c0H, 0fcH, 0c8H, 0adH, 0b8H, 0e9H, 0c0H, 0b8H, 0b7H, 0ceH
	DB	' ', 0b5H, 0b9H, 0beH, 0c6H, 0b0H, 0a1H, 0b1H, 0e2H, 0a1H, 0a3H
	DB	00H						; `string'
CONST	ENDS
;	COMDAT ??_C@_08OHLLGBIK@?$LN?$LK?E?Y?E?d?$LN?$LK?$AA@
CONST	SEGMENT
??_C@_08OHLLGBIK@?$LN?$LK?E?Y?E?d?$LN?$LK?$AA@ DB 0bdH, 0baH, 0c5H, 0d9H, 0c5H
	DB	0e4H, 0bdH, 0baH, 00H			; `string'
CONST	ENDS
;	COMDAT ??_C@_0L@OOKGIBCN@?G?A?$LG?s?E?$LA?E?d?$LN?$LK?$AA@
CONST	SEGMENT
??_C@_0L@OOKGIBCN@?G?A?$LG?s?E?$LA?E?d?$LN?$LK?$AA@ DB 0c7H, 0c1H, 0b6H, 0f3H
	DB	0c5H, 0b0H, 0c5H, 0e4H, 0bdH, 0baH, 00H	; `string'
CONST	ENDS
;	COMDAT ??_C@_06CMIENFNO@?$LE?Y?$MA?L?$LD?k?$AA@
CONST	SEGMENT
??_C@_06CMIENFNO@?$LE?Y?$MA?L?$LD?k?$AA@ DB 0b4H, 0d9H, 0c0H, 0ccH, 0b3H, 0ebH
	DB	00H						; `string'
CONST	ENDS
;	COMDAT ??_C@_08OIJECJJF@?G?A?$LI?$KO?E?d?$LN?$LK?$AA@
CONST	SEGMENT
??_C@_08OIJECJJF@?G?A?$LI?$KO?E?d?$LN?$LK?$AA@ DB 0c7H, 0c1H, 0b8H, 0aeH, 0c5H
	DB	0e4H, 0bdH, 0baH, 00H			; `string'
CONST	ENDS
;	COMDAT ??_C@_06EBHPHDBE@?$LK?$KD?$LH?g?$LH?g?$AA@
CONST	SEGMENT
??_C@_06EBHPHDBE@?$LK?$KD?$LH?g?$LH?g?$AA@ DB 0baH, 0a3H, 0b7H, 0e7H, 0b7H
	DB	0e7H, 00H					; `string'
CONST	ENDS
;	COMDAT ??_C@_08CCMJLIMG@?$LD?k?$LI?$KD?$LD?k?$LI?$KD?$AA@
CONST	SEGMENT
??_C@_08CCMJLIMG@?$LD?k?$LI?$KD?$LD?k?$LI?$KD?$AA@ DB 0b3H, 0ebH, 0b8H, 0a3H
	DB	0b3H, 0ebH, 0b8H, 0a3H, 00H			; `string'
CONST	ENDS
;	COMDAT ??_C@_06HEDFNFKJ@?$LK?$KD?$LI?$KD?$LA?$KB?$AA@
CONST	SEGMENT
??_C@_06HEDFNFKJ@?$LK?$KD?$LI?$KD?$LA?$KB?$AA@ DB 0baH, 0a3H, 0b8H, 0a3H, 0b0H
	DB	0a1H, 00H					; `string'
CONST	ENDS
;	COMDAT ??_C@_08DKKOMJDP@?$LE?Y?$MA?L?$LD?k?$LN?$LK?$AA@
CONST	SEGMENT
??_C@_08DKKOMJDP@?$LE?Y?$MA?L?$LD?k?$LN?$LK?$AA@ DB 0b4H, 0d9H, 0c0H, 0ccH
	DB	0b3H, 0ebH, 0bdH, 0baH, 00H			; `string'
CONST	ENDS
;	COMDAT ??_C@_08LPOAKIII@?$LA?m?$LI?$KD?$LA?m?$LI?$KD?$AA@
CONST	SEGMENT
??_C@_08LPOAKIII@?$LA?m?$LI?$KD?$LA?m?$LI?$KD?$AA@ DB 0b0H, 0edH, 0b8H, 0a3H
	DB	0b0H, 0edH, 0b8H, 0a3H, 00H			; `string'
CONST	ENDS
;	COMDAT ??_C@_0BB@JNLGIAPP@?D?$LD?$LI?$KP?E?M?$LL?$PN?$LM?$LK?$LN?G?F?P?$KB?$KD?$AA@
CONST	SEGMENT
??_C@_0BB@JNLGIAPP@?D?$LD?$LI?$KP?E?M?$LL?$PN?$LM?$LK?$LN?G?F?P?$KB?$KD?$AA@ DB 0c4H
	DB	0b3H, 0b8H, 0afH, 0c5H, 0cdH, 0bbH, 0fdH, 0bcH, 0baH, 0bdH, 0c7H
	DB	0c6H, 0d0H, 0a1H, 0a3H, 00H			; `string'
CONST	ENDS
;	COMDAT ??_C@_0BB@IFBIBFPD@?D?$LD?$LI?$KP?$LI?q?$LH?O?$LA?$KB?A?$KO?$LP?$MA?$LB?b?$AA@
CONST	SEGMENT
??_C@_0BB@IFBIBFPD@?D?$LD?$LI?$KP?$LI?q?$LH?O?$LA?$KB?A?$KO?$LP?$MA?$LB?b?$AA@ DB 0c4H
	DB	0b3H, 0b8H, 0afH, 0b8H, 0f1H, 0b7H, 0cfH, 0b0H, 0a1H, 0c1H, 0aeH
	DB	0bfH, 0c0H, 0b1H, 0e2H, 00H			; `string'
CONST	ENDS
;	COMDAT ??_C@_03GLKEJMAA@?$CF4d?$AA@
CONST	SEGMENT
??_C@_03GLKEJMAA@?$CF4d?$AA@ DB '%4d', 00H		; `string'
CONST	ENDS
;	COMDAT ??_C@_03GCLOGFGE@?$CF8d?$AA@
CONST	SEGMENT
??_C@_03GCLOGFGE@?$CF8d?$AA@ DB '%8d', 00H		; `string'
CONST	ENDS
;	COMDAT ??_C@_03GOOLIKIF@?$CF3d?$AA@
CONST	SEGMENT
??_C@_03GOOLIKIF@?$CF3d?$AA@ DB '%3d', 00H		; `string'
CONST	ENDS
;	COMDAT ??_C@_0BM@LPFLMHNK@?D?$LD?$LI?$KP?E?M?5?$LL?h?A?$KG?$LK?R?$LA?$KB?$KD?$KM?$LE?Y?$LN?C?$LN?C?$LF?$LF?$KD?$KB?$AA@
CONST	SEGMENT
??_C@_0BM@LPFLMHNK@?D?$LD?$LI?$KP?E?M?5?$LL?h?A?$KG?$LK?R?$LA?$KB?$KD?$KM?$LE?Y?$LN?C?$LN?C?$LF?$LF?$KD?$KB?$AA@ DB 0c4H
	DB	0b3H, 0b8H, 0afH, 0c5H, 0cdH, ' ', 0bbH, 0e8H, 0c1H, 0a6H, 0baH
	DB	0d2H, 0b0H, 0a1H, 0a3H, 0acH, 0b4H, 0d9H, 0bdH, 0c3H, 0bdH, 0c3H
	DB	0b5H, 0b5H, 0a3H, 0a1H, 00H			; `string'
CONST	ENDS
;	COMDAT ??_C@_0CF@PPIDBOKB@402?5WGS?o?C?$DP?$DP?l?$KL?i?D?h?G?o?C?$DP?$KD?$KM?$DP?S?p?$DP?$DP?j?$PN?$DP?$DP?c@
CONST	SEGMENT
??_C@_0CF@PPIDBOKB@402?5WGS?o?C?$DP?$DP?l?$KL?i?D?h?G?o?C?$DP?$KD?$KM?$DP?S?p?$DP?$DP?j?$PN?$DP?$DP?c@ DB '4'
	DB	'02 WGS', 0efH, 0c3H, '??', 0ecH, 0abH, 0e9H, 0c4H, 0e8H, 0c7H
	DB	0efH, 0c3H, '?', 0a3H, 0acH, '?', 0d3H, 0f0H, '??', 0eaH, 0fdH
	DB	'??', 0e3H, 0e9H, '?', 0a1H, 0a3H, 00H	; `string'
CONST	ENDS
;	COMDAT ??_C@_0CI@CNJAOKCA@401?5?$DP?Z?$LB?q?$LM?$DPWGS?o?C?$DP?$DP?$KD?$KM?$DP?$OA?$LL?S?p?$DP?$DP?j?$PN?$DP?$DP?h?G@
CONST	SEGMENT
??_C@_0CI@CNJAOKCA@401?5?$DP?Z?$LB?q?$LM?$DPWGS?o?C?$DP?$DP?$KD?$KM?$DP?$OA?$LL?S?p?$DP?$DP?j?$PN?$DP?$DP?h?G@ DB '4'
	DB	'01 ?', 0daH, 0b1H, 0f1H, 0bcH, '?WGS', 0efH, 0c3H, '??', 0a3H
	DB	0acH, '?', 0e0H, 0bbH, 0d3H, 0f0H, '??', 0eaH, 0fdH, '??', 0e8H
	DB	0c7H, 0e0H, 0f7H, 0f1H, 0bcH, '?', 0a1H, 0a3H, 00H ; `string'
CONST	ENDS
;	COMDAT ??_C@_0BP@IOOEJBCN@304?5?$LA?T?$MA?S?$LH?$KJ?E?$LH?$MA?$LL?$LO?r?$MA?$LL?$LM?v?$LO?x?$LN?$MA?$LE?O?$LE?Y?$KB?$KD?$AA@
CONST	SEGMENT
??_C@_0BP@IOOEJBCN@304?5?$LA?T?$MA?S?$LH?$KJ?E?$LH?$MA?$LL?$LO?r?$MA?$LL?$LM?v?$LO?x?$LN?$MA?$LE?O?$LE?Y?$KB?$KD?$AA@ DB '3'
	DB	'04 ', 0b0H, 0d4H, 0c0H, 0d3H, 0b7H, 0a9H, 0c5H, 0b7H, 0c0H, 0bbH
	DB	0beH, 0f2H, 0c0H, 0bbH, 0bcH, 0f6H, 0beH, 0f8H, 0bdH, 0c0H, 0b4H
	DB	0cfH, 0b4H, 0d9H, 0a1H, 0a3H, 00H		; `string'
CONST	ENDS
;	COMDAT ??_C@_0BK@IAPLJHAN@303?5?$DP?y?$KB?q?$LM?$DP?$NO?E?i?D?s?$KN?$DP?l?$KL?i?D?h?G?$KB?$KD?$AA@
CONST	SEGMENT
??_C@_0BK@IAPLJHAN@303?5?$DP?y?$KB?q?$LM?$DP?$NO?E?i?D?s?$KN?$DP?l?$KL?i?D?h?G?$KB?$KD?$AA@ DB '3'
	DB	'03 ?', 0f9H, 0a1H, 0f1H, 0bcH, '?', 0deH, 0c5H, 0e9H, 0c4H, 0f3H
	DB	0adH, '?', 0ecH, 0abH, 0e9H, 0c4H, 0e8H, 0c7H, 0a1H, 0a3H, 00H ; `string'
CONST	ENDS
;	COMDAT ??_C@_0DO@PIHOLGOA@302?5?$DP?n?$NM?$DP?y?$KB?$NP?m?$DP?$DP?Z?$LB?$DP?$DP?$KD?$KM?$DP?$OA?$LL?$DP?$DP?$DP?n?$NM?$DP?m?$KN?$DP@
CONST	SEGMENT
??_C@_0DO@PIHOLGOA@302?5?$DP?n?$NM?$DP?y?$KB?$NP?m?$DP?$DP?Z?$LB?$DP?$DP?$KD?$KM?$DP?$OA?$LL?$DP?$DP?$DP?n?$NM?$DP?m?$KN?$DP@ DB '3'
	DB	'02 ?', 0eeH, 0dcH, '?', 0f9H, 0a1H, 0dfH, 0edH, '??', 0daH, 0b1H
	DB	'??', 0a3H, 0acH, '?', 0e0H, 0bbH, '???', 0eeH, 0dcH, '?', 0edH
	DB	0adH, '?', 0cbH, 0ecH, 0a3H, 0acH, 0ebH, 0eeH, 0f0H, 0ceH, '??'
	DB	0eaH, 0fdH, '??', 0d0H, 0f6H, 0eeH, 0dcH, '??', 0e3H, 0e1H, '?'
	DB	0faH, 0bcH, '??', 0a1H, 0a3H, 00H		; `string'
CONST	ENDS
;	COMDAT ??_C@_0DM@MBGFAAKE@301?5?$LF?n?$LH?O?$LF?G?A?v?$LO?J?$LE?B?5?$LA?h?A?$KE?$MA?T?$LE?O?$LE?Y?5?$LF?n?$LH?O@
CONST	SEGMENT
??_C@_0DM@MBGFAAKE@301?5?$LF?n?$LH?O?$LF?G?A?v?$LO?J?$LE?B?5?$LA?h?A?$KE?$MA?T?$LE?O?$LE?Y?5?$LF?n?$LH?O@ DB '3'
	DB	'01 ', 0b5H, 0eeH, 0b7H, 0cfH, 0b5H, 0c7H, 0c1H, 0f6H, 0beH, 0caH
	DB	0b4H, 0c2H, ' ', 0b0H, 0e8H, 0c1H, 0a4H, 0c0H, 0d4H, 0b4H, 0cfH
	DB	0b4H, 0d9H, ' ', 0b5H, 0eeH, 0b7H, 0cfH, 0c8H, 0c4H, ' ', 0c0H
	DB	0ccH, 0bfH, 0ebH, 0c7H, 0d8H, 0c1H, 0d6H, 0bdH, 0c3H, 0b1H, 0e2H
	DB	0b9H, 0d9H, 0b6H, 0f8H, 0b4H, 0cfH, 0b4H, 0d9H, '..', 0a1H, 0a3H
	DB	00H						; `string'
CONST	ENDS
;	COMDAT ??_C@_0DG@JNDCNPGC@205?5?$MA?L?5?$LA?T?$MA?S?$LP?$KB?5?$LH?N?$LB?W?$MA?N?G?O?A?v?5?$LI?x?G?$NP?$LA?E?$LD@
CONST	SEGMENT
??_C@_0DG@JNDCNPGC@205?5?$MA?L?5?$LA?T?$MA?S?$LP?$KB?5?$LH?N?$LB?W?$MA?N?G?O?A?v?5?$LI?x?G?$NP?$LA?E?$LD@ DB '2'
	DB	'05 ', 0c0H, 0ccH, ' ', 0b0H, 0d4H, 0c0H, 0d3H, 0bfH, 0a1H, ' '
	DB	0b7H, 0ceH, 0b1H, 0d7H, 0c0H, 0ceH, 0c7H, 0cfH, 0c1H, 0f6H, ' '
	DB	0b8H, 0f8H, 0c7H, 0dfH, 0b0H, 0c5H, 0b3H, 0aaH, ' ', 0b7H, 0ceH
	DB	0b1H, 0d7H, 0c0H, 0ceH, ' ', 0bfH, 0c0H, 0b7H, 0f9H, 0c0H, 0d4H
	DB	0b4H, 0cfH, 0b4H, 0d9H, 0a1H, 0a3H, 00H	; `string'
CONST	ENDS
;	COMDAT ??_C@_0CB@OJHBPHKJ@204?5?$LL?g?$LP?k?$MA?Z?$LA?$KB?5?$MA?L?$LJ?L?5?$LA?T?$MA?S?A?$NP?$MA?T?$LE?O?$LE?Y?$KB?$KD@
CONST	SEGMENT
??_C@_0CB@OJHBPHKJ@204?5?$LL?g?$LP?k?$MA?Z?$LA?$KB?5?$MA?L?$LJ?L?5?$LA?T?$MA?S?A?$NP?$MA?T?$LE?O?$LE?Y?$KB?$KD@ DB '2'
	DB	'04 ', 0bbH, 0e7H, 0bfH, 0ebH, 0c0H, 0daH, 0b0H, 0a1H, ' ', 0c0H
	DB	0ccH, 0b9H, 0ccH, ' ', 0b0H, 0d4H, 0c0H, 0d3H, 0c1H, 0dfH, 0c0H
	DB	0d4H, 0b4H, 0cfH, 0b4H, 0d9H, 0a1H, 0a3H, 00H ; `string'
CONST	ENDS
;	COMDAT ??_C@_0DP@GGBCENFH@203?5?$MA?L?$LJ?L?5?$LH?N?$LB?W?$MA?N?A?$NP?$MA?T?$LE?O?$LE?Y?4?5?$LA?h?A?$KE?$MA?L?5@
CONST	SEGMENT
??_C@_0DP@GGBCENFH@203?5?$MA?L?$LJ?L?5?$LH?N?$LB?W?$MA?N?A?$NP?$MA?T?$LE?O?$LE?Y?4?5?$LA?h?A?$KE?$MA?L?5@ DB '2'
	DB	'03 ', 0c0H, 0ccH, 0b9H, 0ccH, ' ', 0b7H, 0ceH, 0b1H, 0d7H, 0c0H
	DB	0ceH, 0c1H, 0dfH, 0c0H, 0d4H, 0b4H, 0cfH, 0b4H, 0d9H, '. ', 0b0H
	DB	0e8H, 0c1H, 0a4H, 0c0H, 0ccH, ' ', 0c0H, 0e1H, 0b1H, 0e8H, 0c0H
	DB	0b8H, 0b7H, 0ceH, ' 10', 0baH, 0d0H, 0c8H, 0c4H, ' ', 0bdH, 0c3H
	DB	0b5H, 0b5H, 0c7H, 0d8H, 0c1H, 0d6H, 0bcH, 0bcH, 0bfH, 0e4H, 0a1H
	DB	0a3H, 00H					; `string'
CONST	ENDS
;	COMDAT ??_C@_0BO@FGBMDDDO@202?5?A?$NP?$LK?$LJ?$LH?N?$LB?W?$MA?N?5?$LK?R?$LA?$KB?$LE?I?G?U?$LE?O?$LE?Y?$KB?$KD?$AA@
CONST	SEGMENT
??_C@_0BO@FGBMDDDO@202?5?A?$NP?$LK?$LJ?$LH?N?$LB?W?$MA?N?5?$LK?R?$LA?$KB?$LE?I?G?U?$LE?O?$LE?Y?$KB?$KD?$AA@ DB '2'
	DB	'02 ', 0c1H, 0dfH, 0baH, 0b9H, 0b7H, 0ceH, 0b1H, 0d7H, 0c0H, 0ceH
	DB	' ', 0baH, 0d2H, 0b0H, 0a1H, 0b4H, 0c9H, 0c7H, 0d5H, 0b4H, 0cfH
	DB	0b4H, 0d9H, 0a1H, 0a3H, 00H			; `string'
CONST	ENDS
;	COMDAT ??_C@_0DF@ONGBOPMG@201?5?$LO?F?$MA?L?$LF?p?5?F?P?$LN?$LK?$LP?v?$LF?e?$LA?$KB?5?F?$LC?$LH?H?$LA?E?$LD?$KK?5?$LL@
CONST	SEGMENT
??_C@_0DF@ONGBOPMG@201?5?$LO?F?$MA?L?$LF?p?5?F?P?$LN?$LK?$LP?v?$LF?e?$LA?$KB?5?F?$LC?$LH?H?$LA?E?$LD?$KK?5?$LL@ DB '2'
	DB	'01 ', 0beH, 0c6H, 0c0H, 0ccH, 0b5H, 0f0H, ' ', 0c6H, 0d0H, 0bdH
	DB	0baH, 0bfH, 0f6H, 0b5H, 0e5H, 0b0H, 0a1H, ' ', 0c6H, 0b2H, 0b7H
	DB	0c8H, 0b0H, 0c5H, 0b3H, 0aaH, ' ', 0bbH, 0fdH, 0bcH, 0baH, 0b5H
	DB	0c7H, 0c1H, 0f6H, ' ', 0beH, 0caH, 0beH, 0d2H, 0bdH, 0c0H, 0b4H
	DB	0cfH, 0b4H, 0d9H, 0a1H, 0a3H, 00H		; `string'
CONST	ENDS
;	COMDAT ??_C@_0BH@BELNNDBH@103?5?$LP?$KM?$LA?a?G?R?$LM?v?$LO?x?$LN?$MA?$LE?O?$LE?Y?$KB?$KD?$AA@
CONST	SEGMENT
??_C@_0BH@BELNNDBH@103?5?$LP?$KM?$LA?a?G?R?$LM?v?$LO?x?$LN?$MA?$LE?O?$LE?Y?$KB?$KD?$AA@ DB '1'
	DB	'03 ', 0bfH, 0acH, 0b0H, 0e1H, 0c7H, 0d2H, 0bcH, 0f6H, 0beH, 0f8H
	DB	0bdH, 0c0H, 0b4H, 0cfH, 0b4H, 0d9H, 0a1H, 0a3H, 00H ; `string'
CONST	ENDS
;	COMDAT ??_C@_0CG@PNGEGPHE@102?5?$LP?C?$LJ?Y?$LI?$KF?5?A?$KE?$LK?$LI?$LI?$KG?5?$LA?$KB?A?$KO?$LP?C?$LM?v?5?$LO?x?$LN?$MA?$LE@
CONST	SEGMENT
??_C@_0CG@PNGEGPHE@102?5?$LP?C?$LJ?Y?$LI?$KF?5?A?$KE?$LK?$LI?$LI?$KG?5?$LA?$KB?A?$KO?$LP?C?$LM?v?5?$LO?x?$LN?$MA?$LE@ DB '1'
	DB	'02 ', 0bfH, 0c3H, 0b9H, 0d9H, 0b8H, 0a5H, ' ', 0c1H, 0a4H, 0baH
	DB	0b8H, 0b8H, 0a6H, ' ', 0b0H, 0a1H, 0c1H, 0aeH, 0bfH, 0c3H, 0bcH
	DB	0f6H, ' ', 0beH, 0f8H, 0bdH, 0c0H, 0b4H, 0cfH, 0b4H, 0d9H, 0a1H
	DB	0a3H, 00H					; `string'
CONST	ENDS
;	COMDAT ??_C@_0CM@LDMHIANO@101?5?$LF?$KF?$MA?L?E?M?$LK?$KD?$MA?L?$LN?$LK?5?$LM?$KN?$LJ?v?$LP?$KB?5?$LP?$KM?$LA?a?G?R?$LM?v@
CONST	SEGMENT
??_C@_0CM@LDMHIANO@101?5?$LF?$KF?$MA?L?E?M?$LK?$KD?$MA?L?$LN?$LK?5?$LM?$KN?$LJ?v?$LP?$KB?5?$LP?$KM?$LA?a?G?R?$LM?v@ DB '1'
	DB	'01 ', 0b5H, 0a5H, 0c0H, 0ccH, 0c5H, 0cdH, 0baH, 0a3H, 0c0H, 0ccH
	DB	0bdH, 0baH, ' ', 0bcH, 0adH, 0b9H, 0f6H, 0bfH, 0a1H, ' ', 0bfH
	DB	0acH, 0b0H, 0e1H, 0c7H, 0d2H, 0bcH, 0f6H, 0beH, 0f8H, 0bdH, 0c0H
	DB	0b4H, 0cfH, 0b4H, 0d9H, '.', 0a1H, 0a3H, 00H	; `string'
CONST	ENDS
;	COMDAT ??_C@_0EO@GDIJOFL@?$MA?L?5?A?$KG?G?$LA?$MA?$LK?5?$LO?F?A?w?5?$LF?n?$LH?O?$LF?G?A?v?5?$LO?J?$LO?R?$LA?E?$LD?$KK@
CONST	SEGMENT
??_C@_0EO@GDIJOFL@?$MA?L?5?A?$KG?G?$LA?$MA?$LK?5?$LO?F?A?w?5?$LF?n?$LH?O?$LF?G?A?v?5?$LO?J?$LO?R?$LA?E?$LD?$KK@ DB 0c0H
	DB	0ccH, ' ', 0c1H, 0a6H, 0c7H, 0b0H, 0c0H, 0baH, ' ', 0beH, 0c6H
	DB	0c1H, 0f7H, ' ', 0b5H, 0eeH, 0b7H, 0cfH, 0b5H, 0c7H, 0c1H, 0f6H
	DB	' ', 0beH, 0caH, 0beH, 0d2H, 0b0H, 0c5H, 0b3H, 0aaH, ', ', 0c8H
	DB	0b8H, 0bfH, 0f8H, ' ', 0beH, 0f7H, 0b1H, 0d7H, 0b7H, 0b9H, 0c0H
	DB	0ccH, 0b5H, 0e5H, ' ', 0c0H, 0fdH, 0c2H, 0f7H, 0b0H, 0a1H, ' ', 0c1H
	DB	0f8H, 0c7H, 0e0H, 0b5H, 0c7H, 0c1H, 0f6H, ' ', 0beH, 0caH, 0beH
	DB	0d2H, 0beH, 0eeH, 0bfH, 0e4H, '.', 0a1H, 0a3H, 00H ; `string'
CONST	ENDS
;	COMDAT ??_C@_0DE@DJLFGHLF@?$LE?Y?$LI?$KF?$LD?$LL?$LP?k?$MA?$LL?5?C?$LD?$LI?$KO?A?$NP?$MA?T?$LE?O?$LE?Y?5?$MA?a?$LN?C?H?D?5?$LE@
CONST	SEGMENT
??_C@_0DE@DJLFGHLF@?$LE?Y?$LI?$KF?$LD?$LL?$LP?k?$MA?$LL?5?C?$LD?$LI?$KO?A?$NP?$MA?T?$LE?O?$LE?Y?5?$MA?a?$LN?C?H?D?5?$LE@ DB 0b4H
	DB	0d9H, 0b8H, 0a5H, 0b3H, 0bbH, 0bfH, 0ebH, 0c0H, 0bbH, ' ', 0c3H
	DB	0b3H, 0b8H, 0aeH, 0c1H, 0dfH, 0c0H, 0d4H, 0b4H, 0cfH, 0b4H, 0d9H
	DB	' ', 0c0H, 0e1H, 0bdH, 0c3H, 0c8H, 0c4H, ' ', 0b4H, 0d9H, 0bdH
	DB	0c3H, ' ', 0bbH, 0e7H, 0bfH, 0ebH, 0c7H, 0d8H, 0c1H, 0d6H, 0bcH
	DB	0bcH, 0bfH, 0e4H, ' ', 0a1H, 0a3H, 00H	; `string'
CONST	ENDS
;	COMDAT ??_C@_0BD@EJCLNBGJ@?$MA?L?5?$LM?$KN?$LJ?v?$LE?B?5?$LM?v?$LI?$KO?A?$NP?$KB?$KD?$AA@
CONST	SEGMENT
??_C@_0BD@EJCLNBGJ@?$MA?L?5?$LM?$KN?$LJ?v?$LE?B?5?$LM?v?$LI?$KO?A?$NP?$KB?$KD?$AA@ DB 0c0H
	DB	0ccH, ' ', 0bcH, 0adH, 0b9H, 0f6H, 0b4H, 0c2H, ' ', 0bcH, 0f6H
	DB	0b8H, 0aeH, 0c1H, 0dfH, 0a1H, 0a3H, 00H	; `string'
CONST	ENDS
;	COMDAT ??_C@_0L@CKPMJLEL@?$MA?N?A?u?$LN?G?F?P?$KD?$KB?$AA@
CONST	SEGMENT
??_C@_0L@CKPMJLEL@?$MA?N?A?u?$LN?G?F?P?$KD?$KB?$AA@ DB 0c0H, 0ceH, 0c1H, 0f5H
	DB	0bdH, 0c7H, 0c6H, 0d0H, 0a3H, 0a1H, 00H	; `string'
CONST	ENDS
;	COMDAT ??_C@_0CH@OACDIMFL@?$LF?$KF?$MA?L?E?M?$MA?z?$MA?e?$LM?R?$LA?$KB?$LL?g?$LP?k?A?$NP?$KD?$KM?$LD?$KK?A?$NP?$LP?$KB?$LE?Y?$LN?C@
CONST	SEGMENT
??_C@_0CH@OACDIMFL@?$LF?$KF?$MA?L?E?M?$MA?z?$MA?e?$LM?R?$LA?$KB?$LL?g?$LP?k?A?$NP?$KD?$KM?$LD?$KK?A?$NP?$LP?$KB?$LE?Y?$LN?C@ DB 0b5H
	DB	0a5H, 0c0H, 0ccH, 0c5H, 0cdH, 0c0H, 0faH, 0c0H, 0e5H, 0bcH, 0d2H
	DB	0b0H, 0a1H, 0bbH, 0e7H, 0bfH, 0ebH, 0c1H, 0dfH, 0a3H, 0acH, 0b3H
	DB	0aaH, 0c1H, 0dfH, 0bfH, 0a1H, 0b4H, 0d9H, 0bdH, 0c3H, 0bdH, 0c3H
	DB	0b5H, 0b5H, 0a3H, 0a1H, 00H			; `string'
CONST	ENDS
;	COMDAT ??_C@_0BG@FCCDGFEH@?$DP?y?$KB?q?$LM?$DP?$NO?E?i?D?s?$KN?$DP?l?$KL?i?D?h?G?$KD?$KB?$AA@
CONST	SEGMENT
??_C@_0BG@FCCDGFEH@?$DP?y?$KB?q?$LM?$DP?$NO?E?i?D?s?$KN?$DP?l?$KL?i?D?h?G?$KD?$KB?$AA@ DB '?'
	DB	0f9H, 0a1H, 0f1H, 0bcH, '?', 0deH, 0c5H, 0e9H, 0c4H, 0f3H, 0adH
	DB	'?', 0ecH, 0abH, 0e9H, 0c4H, 0e8H, 0c7H, 0a3H, 0a1H, 00H ; `string'
CONST	ENDS
;	COMDAT ??_C@_0CC@CAOCGFP@?s?$KO?$DP?y?$KB?$DP?Z?$LB?q?$LM?$DP?$KD?$KM?$DP?$OA?$LL?S?p?$DP?$DP?j?$PN?$DP?$DP?h?G?$OA?w?q?$LM?$DP?$KB@
CONST	SEGMENT
??_C@_0CC@CAOCGFP@?s?$KO?$DP?y?$KB?$DP?Z?$LB?q?$LM?$DP?$KD?$KM?$DP?$OA?$LL?S?p?$DP?$DP?j?$PN?$DP?$DP?h?G?$OA?w?q?$LM?$DP?$KB@ DB 0f3H
	DB	0aeH, '?', 0f9H, 0a1H, '?', 0daH, 0b1H, 0f1H, 0bcH, '?', 0a3H, 0acH
	DB	'?', 0e0H, 0bbH, 0d3H, 0f0H, '??', 0eaH, 0fdH, '??', 0e8H, 0c7H
	DB	0e0H, 0f7H, 0f1H, 0bcH, '?', 0a1H, 0a3H, 00H	; `string'
CONST	ENDS
;	COMDAT ??_C@_0ED@GFEEMBM@?$LK?q?$LJ?P?5?$LJ?x?H?$KD?$LI?$KG?5?$MA?T?$LH?B?G?O?$LA?E?$LD?$KK?5?$MA?$NP?$LI?x?$LF?H?5?$LA?h@
CONST	SEGMENT
??_C@_0ED@GFEEMBM@?$LK?q?$LJ?P?5?$LJ?x?H?$KD?$LI?$KG?5?$MA?T?$LH?B?G?O?$LA?E?$LD?$KK?5?$MA?$NP?$LI?x?$LF?H?5?$LA?h@ DB 0baH
	DB	0f1H, 0b9H, 0d0H, ' ', 0b9H, 0f8H, 0c8H, 0a3H, 0b8H, 0a6H, ' ', 0c0H
	DB	0d4H, 0b7H, 0c2H, 0c7H, 0cfH, 0b0H, 0c5H, 0b3H, 0aaH, ' ', 0c0H
	DB	0dfH, 0b8H, 0f8H, 0b5H, 0c8H, ' ', 0b0H, 0e8H, 0c1H, 0a4H, 0c0H
	DB	0ccH, 0b3H, 0aaH, ' ', 0bbH, 0e7H, 0bfH, 0ebH, 0c7H, 0d1H, ' ', 0b0H
	DB	0d4H, 0c0H, 0d3H, ' ', 0c6H, 0f7H, 0c0H, 0ceH, 0c6H, 0aeH, 0b4H
	DB	0c2H, ' WGS.', 0a1H, 0a3H, 00H		; `string'
CONST	ENDS
;	COMDAT ??_C@_0EM@MKKKOLIM@WGS?5?$LA?T?$MA?S?5?F?w?$MA?N?F?$KO?5?$LL?g?$LP?k?$LP?O?$LH?a?5WGS?5?F?w?$MA@
CONST	SEGMENT
??_C@_0EM@MKKKOLIM@WGS?5?$LA?T?$MA?S?5?F?w?$MA?N?F?$KO?5?$LL?g?$LP?k?$LP?O?$LH?a?5WGS?5?F?w?$MA@ DB 'W'
	DB	'GS ', 0b0H, 0d4H, 0c0H, 0d3H, ' ', 0c6H, 0f7H, 0c0H, 0ceH, 0c6H
	DB	0aeH, ' ', 0bbH, 0e7H, 0bfH, 0ebH, 0bfH, 0cfH, 0b7H, 0e1H, ' W'
	DB	'GS ', 0c6H, 0f7H, 0c0H, 0ceH, 0c6H, 0aeH, ' ', 0c4H, 0abH, 0b5H
	DB	0e5H, ' ', 0b1H, 0b8H, 0b8H, 0c5H, ' ', 0c8H, 0c4H, ' ', 0c8H, 0adH
	DB	0c0H, 0c7H, 0b0H, 0d4H, 0c0H, 0d3H, 0b8H, 0c1H, 0c0H, 0b8H, 0b7H
	DB	0ceH, ' ', 0c4H, 0abH, 0b5H, 0e5H, ' ', 0b9H, 0dfH, 0b1H, 0deH
	DB	0a3H, 0a1H, 00H				; `string'
CONST	ENDS
;	COMDAT ??_C@_0EG@HMOFLOCG@GS?5?$LA?T?$MA?S?5?F?w?$MA?N?F?$KO?5?$LL?g?$LP?k?$LP?O?$LH?a?0?5?H?$KN?$MA?L?$LA?T?$MA@
CONST	SEGMENT
??_C@_0EG@HMOFLOCG@GS?5?$LA?T?$MA?S?5?F?w?$MA?N?F?$KO?5?$LL?g?$LP?k?$LP?O?$LH?a?0?5?H?$KN?$MA?L?$LA?T?$MA@ DB 'G'
	DB	'S ', 0b0H, 0d4H, 0c0H, 0d3H, ' ', 0c6H, 0f7H, 0c0H, 0ceH, 0c6H
	DB	0aeH, ' ', 0bbH, 0e7H, 0bfH, 0ebH, 0bfH, 0cfH, 0b7H, 0e1H, ', '
	DB	0c8H, 0adH, 0c0H, 0ccH, 0b0H, 0d4H, 0c0H, 0d3H, 0b8H, 0c1H, 0bfH
	DB	0a1H, ' ', 0b9H, 0abH, 0b7H, 0e1H, ' WGS ', 0b0H, 0d4H, 0c0H, 0d3H
	DB	' ', 0c6H, 0f7H, 0c0H, 0ceH, 0c6H, 0aeH, ' ', 0bdH, 0c5H, 0c3H
	DB	0bbH, 0c7H, 0d8H, 0c1H, 0d2H, 0a3H, 0a1H, 00H ; `string'
CONST	ENDS
;	COMDAT ??_C@_0DM@MKPKCFOC@?$LA?h?A?$KE?5?$LG?G?$LE?B?5?$LK?q?$LJ?P?$LJ?x?H?$KD?5?$MA?$NP?$LI?x?$MA?T?$LH?B?$KD?$KM?$LK?q?H@
CONST	SEGMENT
??_C@_0DM@MKPKCFOC@?$LA?h?A?$KE?5?$LG?G?$LE?B?5?$LK?q?$LJ?P?$LJ?x?H?$KD?5?$MA?$NP?$LI?x?$MA?T?$LH?B?$KD?$KM?$LK?q?H@ DB 0b0H
	DB	0e8H, 0c1H, 0a4H, ' ', 0b6H, 0c7H, 0b4H, 0c2H, ' ', 0baH, 0f1H
	DB	0b9H, 0d0H, 0b9H, 0f8H, 0c8H, 0a3H, ' ', 0c0H, 0dfH, 0b8H, 0f8H
	DB	0c0H, 0d4H, 0b7H, 0c2H, 0a3H, 0acH, 0baH, 0f1H, 0c8H, 0b8H, 0bfH
	DB	0f8H, 0c0H, 0baH, ' ', 0b0H, 0a1H, 0c0H, 0d4H, 0c8H, 0c4H, ' ', 0bdH
	DB	0c3H, 0b5H, 0b5H, 0c7H, 0d8H, 0c1H, 0d6H, 0bcH, 0bcH, 0bfH, 0e4H
	DB	0a3H, 0a1H, 00H				; `string'
CONST	ENDS
;	COMDAT ??_C@_0CN@CDKJOFHB@?$LD?W?F?$KO?$LP?v?E?$KJ?5?$LL?g?$LP?k?$LH?$KO?$MA?L?$LI?$LJ?$LN?$MA?$LE?O?$LE?Y?$KD?$KM?$LD?$KK?A?$NP?$LP@
CONST	SEGMENT
??_C@_0CN@CDKJOFHB@?$LD?W?F?$KO?$LP?v?E?$KJ?5?$LL?g?$LP?k?$LH?$KO?$MA?L?$LI?$LJ?$LN?$MA?$LE?O?$LE?Y?$KD?$KM?$LD?$KK?A?$NP?$LP@ DB 0b3H
	DB	0d7H, 0c6H, 0aeH, 0bfH, 0f6H, 0c5H, 0a9H, ' ', 0bbH, 0e7H, 0bfH
	DB	0ebH, 0b7H, 0aeH, 0c0H, 0ccH, 0b8H, 0b9H, 0bdH, 0c0H, 0b4H, 0cfH
	DB	0b4H, 0d9H, 0a3H, 0acH, 0b3H, 0aaH, 0c1H, 0dfH, 0bfH, 0a1H, ' '
	DB	0b4H, 0d9H, 0bdH, 0c3H, 0bdH, 0c3H, 0b5H, 0b5H, 0a3H, 0a1H, 00H ; `string'
CONST	ENDS
;	COMDAT ??_C@_0BB@DFFIFBLJ@WGS?$LP?M?5?$LP?$KM?$LA?a?$LN?G?F?P?$KD?$KB?$AA@
CONST	SEGMENT
??_C@_0BB@DFFIFBLJ@WGS?$LP?M?5?$LP?$KM?$LA?a?$LN?G?F?P?$KD?$KB?$AA@ DB 'W'
	DB	'GS', 0bfH, 0cdH, ' ', 0bfH, 0acH, 0b0H, 0e1H, 0bdH, 0c7H, 0c6H
	DB	0d0H, 0a3H, 0a1H, 00H			; `string'
CONST	ENDS
;	COMDAT ??_C@_0BG@CKDNBLG@?$FL?$CFs?$FN?$LP?$KB?5?A?$KC?$LM?S?5?A?$NP?$MA?T?$LE?O?$LE?Y?4?$AA@
CONST	SEGMENT
??_C@_0BG@CKDNBLG@?$FL?$CFs?$FN?$LP?$KB?5?A?$KC?$LM?S?5?A?$NP?$MA?T?$LE?O?$LE?Y?4?$AA@ DB '['
	DB	'%s]', 0bfH, 0a1H, ' ', 0c1H, 0a2H, 0bcH, 0d3H, ' ', 0c1H, 0dfH
	DB	0c0H, 0d4H, 0b4H, 0cfH, 0b4H, 0d9H, '.', 00H	; `string'
CONST	ENDS
;	COMDAT ??_C@_0BA@OLIBCMDE@?$LN?$LK?E?f?$LP?$KB?$MA?L?A?v?5?G?O?$LE?C?$AA@
CONST	SEGMENT
??_C@_0BA@OLIBCMDE@?$LN?$LK?E?f?$LP?$KB?$MA?L?A?v?5?G?O?$LE?C?$AA@ DB 0bdH
	DB	0baH, 0c5H, 0e6H, 0bfH, 0a1H, 0c0H, 0ccH, 0c1H, 0f6H, ' ', 0c7H
	DB	0cfH, 0b4H, 0c3H, 00H			; `string'
CONST	ENDS
;	COMDAT ??_C@_0BF@LJIGADOK@?$FL?$CFs?$FN?$LP?$KB?5?A?$KC?$LM?S?A?$NP?$MA?T?$LE?O?$LE?Y?4?$AA@
CONST	SEGMENT
??_C@_0BF@LJIGADOK@?$FL?$CFs?$FN?$LP?$KB?5?A?$KC?$LM?S?A?$NP?$MA?T?$LE?O?$LE?Y?4?$AA@ DB '['
	DB	'%s]', 0bfH, 0a1H, ' ', 0c1H, 0a2H, 0bcH, 0d3H, 0c1H, 0dfH, 0c0H
	DB	0d4H, 0b4H, 0cfH, 0b4H, 0d9H, '.', 00H	; `string'
CONST	ENDS
;	COMDAT ??_C@_0N@DFLJEJED@?5?5?$LF?$LJ?$LO?F?$LA?$KB?$LB?b?5?5?$AA@
CONST	SEGMENT
??_C@_0N@DFLJEJED@?5?5?$LF?$LJ?$LO?F?$LA?$KB?$LB?b?5?5?$AA@ DB '  ', 0b5H
	DB	0b9H, 0beH, 0c6H, 0b0H, 0a1H, 0b1H, 0e2H, '  ', 00H ; `string'
CONST	ENDS
;	COMDAT ??_C@_0L@BGALCGMK@?$CFs?5?$CFs?5?$FL?$CFs?$FN?$AA@
CONST	SEGMENT
??_C@_0L@BGALCGMK@?$CFs?5?$CFs?5?$FL?$CFs?$FN?$AA@ DB '%s %s [%s]', 00H ; `string'
CONST	ENDS
;	COMDAT ??_C@_0BG@MJOFMAKM@?$FLVer?$KD?$LK?$CF04d?4?$CF02d?4?$CF02d?$FN?$AA@
CONST	SEGMENT
??_C@_0BG@MJOFMAKM@?$FLVer?$KD?$LK?$CF04d?4?$CF02d?4?$CF02d?$FN?$AA@ DB '['
	DB	'Ver', 0a3H, 0baH, '%04d.%02d.%02d]', 00H	; `string'
CONST	ENDS
;	COMDAT ??_C@_08JIAEEDMM@?$CFs?5?$CFd?5?$CFd?$AA@
CONST	SEGMENT
??_C@_08JIAEEDMM@?$CFs?5?$CFd?5?$CFd?$AA@ DB '%s %d %d', 00H ; `string'
CONST	ENDS
;	COMDAT ??_C@_0M@CPNCGEDN@Jan?5?53?52021?$AA@
CONST	SEGMENT
??_C@_0M@CPNCGEDN@Jan?5?53?52021?$AA@ DB 'Jan  3 2021', 00H ; `string'
CONST	ENDS
;	COMDAT ??_C@_03MKABNOCG@Dec?$AA@
CONST	SEGMENT
??_C@_03MKABNOCG@Dec?$AA@ DB 'Dec', 00H			; `string'
CONST	ENDS
;	COMDAT ??_C@_03JPJOFNIA@Nov?$AA@
CONST	SEGMENT
??_C@_03JPJOFNIA@Nov?$AA@ DB 'Nov', 00H			; `string'
CONST	ENDS
;	COMDAT ??_C@_03BMAOKBAD@Oct?$AA@
CONST	SEGMENT
??_C@_03BMAOKBAD@Oct?$AA@ DB 'Oct', 00H			; `string'
CONST	ENDS
;	COMDAT ??_C@_03GGCAPAJC@Sep?$AA@
CONST	SEGMENT
??_C@_03GGCAPAJC@Sep?$AA@ DB 'Sep', 00H			; `string'
CONST	ENDS
;	COMDAT ??_C@_03IFJFEIGA@Aug?$AA@
CONST	SEGMENT
??_C@_03IFJFEIGA@Aug?$AA@ DB 'Aug', 00H			; `string'
CONST	ENDS
;	COMDAT ??_C@_03LBGABGKK@Jul?$AA@
CONST	SEGMENT
??_C@_03LBGABGKK@Jul?$AA@ DB 'Jul', 00H			; `string'
CONST	ENDS
;	COMDAT ??_C@_03IDFGHECI@Jun?$AA@
CONST	SEGMENT
??_C@_03IDFGHECI@Jun?$AA@ DB 'Jun', 00H			; `string'
CONST	ENDS
;	COMDAT ??_C@_03CNMDKL@May?$AA@
CONST	SEGMENT
??_C@_03CNMDKL@May?$AA@ DB 'May', 00H			; `string'
CONST	ENDS
;	COMDAT ??_C@_03LEOLGMJP@Apr?$AA@
CONST	SEGMENT
??_C@_03LEOLGMJP@Apr?$AA@ DB 'Apr', 00H			; `string'
CONST	ENDS
;	COMDAT ??_C@_03ODNJBKGA@Mar?$AA@
CONST	SEGMENT
??_C@_03ODNJBKGA@Mar?$AA@ DB 'Mar', 00H			; `string'
CONST	ENDS
;	COMDAT ??_C@_03HJBDCHOM@Feb?$AA@
CONST	SEGMENT
??_C@_03HJBDCHOM@Feb?$AA@ DB 'Feb', 00H			; `string'
CONST	ENDS
;	COMDAT ??_C@_03JIHJHPIE@Jan?$AA@
CONST	SEGMENT
??_C@_03JIHJHPIE@Jan?$AA@ DB 'Jan', 00H			; `string'
CONST	ENDS
;	COMDAT ??_C@_0CA@KPEEHOGC@?$FL?$CFs?$FN?$MA?L?$LJ?v?$MA?$PM?$MA?$LK?5?$LL?g?$LP?k?G?R?$LM?v?$LO?x?$LN?$MA?$LE?O?$LE?Y?$KD?$KB?$AA@
CONST	SEGMENT
??_C@_0CA@KPEEHOGC@?$FL?$CFs?$FN?$MA?L?$LJ?v?$MA?$PM?$MA?$LK?5?$LL?g?$LP?k?G?R?$LM?v?$LO?x?$LN?$MA?$LE?O?$LE?Y?$KD?$KB?$AA@ DB '['
	DB	'%s]', 0c0H, 0ccH, 0b9H, 0f6H, 0c0H, 0fcH, 0c0H, 0baH, ' ', 0bbH
	DB	0e7H, 0bfH, 0ebH, 0c7H, 0d2H, 0bcH, 0f6H, 0beH, 0f8H, 0bdH, 0c0H
	DB	0b4H, 0cfH, 0b4H, 0d9H, 0a3H, 0a1H, 00H	; `string'
CONST	ENDS
;	COMDAT ??_C@_0O@KDOBPHMN@?$DP?V?X?$DP?Z?$LB?q?W?$DP?$PL?$LP?$KB?$KD?$AA@
CONST	SEGMENT
??_C@_0O@KDOBPHMN@?$DP?V?X?$DP?Z?$LB?q?W?$DP?$PL?$LP?$KB?$KD?$AA@ DB '?', 0d6H
	DB	0d8H, '?', 0daH, 0b1H, 0f1H, 0d7H, '?', 0fbH, 0bfH, 0a1H, 0a3H
	DB	00H						; `string'
CONST	ENDS
;	COMDAT ??_C@_02DKCKIIND@?$CFs?$AA@
CONST	SEGMENT
??_C@_02DKCKIIND@?$CFs?$AA@ DB '%s', 00H		; `string'
CONST	ENDS
;	COMDAT ??_C@_05DNIIFBMG@?$CFs?5?$CFs?$AA@
CONST	SEGMENT
??_C@_05DNIIFBMG@?$CFs?5?$CFs?$AA@ DB '%s %s', 00H	; `string'
CONST	ENDS
;	COMDAT ??_C@_0BB@NLNMPB@?$KD?S?$KD?t?$KD?o?$KD?n?$KD?e?$KD?A?$KD?g?$KD?e?$AA@
CONST	SEGMENT
??_C@_0BB@NLNMPB@?$KD?S?$KD?t?$KD?o?$KD?n?$KD?e?$KD?A?$KD?g?$KD?e?$AA@ DB 0a3H
	DB	0d3H, 0a3H, 0f4H, 0a3H, 0efH, 0a3H, 0eeH, 0a3H, 0e5H, 0a3H, 0c1H
	DB	0a3H, 0e7H, 0a3H, 0e5H, 00H			; `string'
CONST	ENDS
;	COMDAT ??_C@_04NDEEPOEI@?$KD?O?$KD?K?$AA@
CONST	SEGMENT
??_C@_04NDEEPOEI@?$KD?O?$KD?K?$AA@ DB 0a3H, 0cfH, 0a3H, 0cbH, 00H ; `string'
CONST	ENDS
;	COMDAT ??_C@_0CK@IPKMMLMJ@?$MA?$NP?$LI?x?$LF?H?5?$LA?h?A?$KE?5?$LG?G?$LE?B?5?$LK?q?$LJ?P?$LJ?x?H?$KD?6?$LE?Y?$LN?C?$MA?T@
CONST	SEGMENT
??_C@_0CK@IPKMMLMJ@?$MA?$NP?$LI?x?$LF?H?5?$LA?h?A?$KE?5?$LG?G?$LE?B?5?$LK?q?$LJ?P?$LJ?x?H?$KD?6?$LE?Y?$LN?C?$MA?T@ DB 0c0H
	DB	0dfH, 0b8H, 0f8H, 0b5H, 0c8H, ' ', 0b0H, 0e8H, 0c1H, 0a4H, ' ', 0b6H
	DB	0c7H, 0b4H, 0c2H, ' ', 0baH, 0f1H, 0b9H, 0d0H, 0b9H, 0f8H, 0c8H
	DB	0a3H, 0aH, 0b4H, 0d9H, 0bdH, 0c3H, 0c0H, 0d4H, 0b7H, 0c2H, 0c7H
	DB	0cfH, 0bcH, 0bcH, 0bfH, 0e4H, '!', 00H	; `string'
CONST	ENDS
;	COMDAT ??_C@_06BPGFIOAL@?$CFs?$CI?$CFd?$CJ?$AA@
CONST	SEGMENT
??_C@_06BPGFIOAL@?$CFs?$CI?$CFd?$CJ?$AA@ DB '%s(%d)', 00H ; `string'
CONST	ENDS
;	COMDAT ??_C@_0BP@LOHIDJF@?$LA?h?A?$KE?$LA?z?5?$LK?q?$LJ?P?$LJ?x?H?$KD?$LI?$KG?5?$MA?T?$LH?B?G?O?$LM?$LM?$LP?d?$KD?$KB?$AA@
CONST	SEGMENT
??_C@_0BP@LOHIDJF@?$LA?h?A?$KE?$LA?z?5?$LK?q?$LJ?P?$LJ?x?H?$KD?$LI?$KG?5?$MA?T?$LH?B?G?O?$LM?$LM?$LP?d?$KD?$KB?$AA@ DB 0b0H
	DB	0e8H, 0c1H, 0a4H, 0b0H, 0faH, ' ', 0baH, 0f1H, 0b9H, 0d0H, 0b9H
	DB	0f8H, 0c8H, 0a3H, 0b8H, 0a6H, ' ', 0c0H, 0d4H, 0b7H, 0c2H, 0c7H
	DB	0cfH, 0bcH, 0bcH, 0bfH, 0e4H, 0a3H, 0a1H, 00H ; `string'
CONST	ENDS
;	COMDAT ??_C@_09BACHGGGK@f?$DLencor1c?$AA@
CONST	SEGMENT
??_C@_09BACHGGGK@f?$DLencor1c?$AA@ DB 'f;encor1c', 00H	; `string'
CONST	ENDS
;	COMDAT ?__LINE__Var@?0??UnicodeToGB2312@@YAPADPB_W@Z@4JA
_DATA	SEGMENT
?__LINE__Var@?0??UnicodeToGB2312@@YAPADPB_W@Z@4JA DD 0b8H ; `UnicodeToGB2312'::`1'::__LINE__Var
_DATA	ENDS
;	COMDAT ?__LINE__Var@?0??BIG5ToUnicode@@YAPA_WPBD@Z@4JA
_DATA	SEGMENT
?__LINE__Var@?0??BIG5ToUnicode@@YAPA_WPBD@Z@4JA DD 0acH	; `BIG5ToUnicode'::`1'::__LINE__Var
_DATA	ENDS
;	COMDAT ?__LINE__Var@?0??GB2312ToBIG5@@YAPADPBD@Z@4JA
_DATA	SEGMENT
?__LINE__Var@?0??GB2312ToBIG5@@YAPADPBD@Z@4JA DD 09eH	; `GB2312ToBIG5'::`1'::__LINE__Var
_DATA	ENDS
;	COMDAT ??_C@_0GD@HHKOPMKJ@c?3?2users?2administrator?2desktop?2?$LN@
CONST	SEGMENT
??_C@_0GD@HHKOPMKJ@c?3?2users?2administrator?2desktop?2?$LN@ DB 'c:\users'
	DB	'\administrator\desktop\', 0bdH, 0baH, 0c5H, 0e6H, 0bfH, 0a1H, 0c0H
	DB	0ccH, 0c1H, 0f6H, ' ', 0c0H, 0daH, 0b7H, 0e1H, '\', 0c5H, 0acH
	DB	0b6H, 0f3H, 0c0H, 0ccH, 0beH, 0f0H, 0c6H, 0aeH, ' ', 0c0H, 0daH
	DB	0b7H, 0e1H, '\client source code\system\login.cpp', 00H ; `string'
CONST	ENDS
;	COMDAT ?__LINE__Var@?0??GB2312ToUnicode@@YAPA_WPBD@Z@4JA
_DATA	SEGMENT
?__LINE__Var@?0??GB2312ToUnicode@@YAPA_WPBD@Z@4JA DD 089H ; `GB2312ToUnicode'::`1'::__LINE__Var
_DATA	ENDS
; Function compile flags: /Odtp /RTCsu /ZI
; File c:\program files (x86)\microsoft visual studio 14.0\vc\include\vadefs.h
;	COMDAT ??$__vcrt_va_start_verify_argument_type@PBD@@YAXXZ
_TEXT	SEGMENT
??$__vcrt_va_start_verify_argument_type@PBD@@YAXXZ PROC	; __vcrt_va_start_verify_argument_type<char const *>, COMDAT

; 144  :         {

  00000	55		 push	 ebp
  00001	8b ec		 mov	 ebp, esp
  00003	81 ec c0 00 00
	00		 sub	 esp, 192		; 000000c0H
  00009	53		 push	 ebx
  0000a	56		 push	 esi
  0000b	57		 push	 edi
  0000c	8d bd 40 ff ff
	ff		 lea	 edi, DWORD PTR [ebp-192]
  00012	b9 30 00 00 00	 mov	 ecx, 48			; 00000030H
  00017	b8 cc cc cc cc	 mov	 eax, -858993460		; ccccccccH
  0001c	f3 ab		 rep stosd

; 145  :             static_assert(!__vcrt_va_list_is_reference<_Ty>::__the_value, "va_start argument must not have reference type and must not be parenthesized");
; 146  :         }

  0001e	5f		 pop	 edi
  0001f	5e		 pop	 esi
  00020	5b		 pop	 ebx
  00021	8b e5		 mov	 esp, ebp
  00023	5d		 pop	 ebp
  00024	c3		 ret	 0
??$__vcrt_va_start_verify_argument_type@PBD@@YAXXZ ENDP	; __vcrt_va_start_verify_argument_type<char const *>
_TEXT	ENDS
; Function compile flags: /Odtp /RTCsu /ZI
; File c:\users\administrator\desktop\????? ??\????? ??\client source code\system\login.cpp
;	COMDAT ?cleanBlacklist@@YAXXZ
_TEXT	SEGMENT
?cleanBlacklist@@YAXXZ PROC				; cleanBlacklist, COMDAT

; 19456: void cleanBlacklist() {};

  00000	55		 push	 ebp
  00001	8b ec		 mov	 ebp, esp
  00003	81 ec c0 00 00
	00		 sub	 esp, 192		; 000000c0H
  00009	53		 push	 ebx
  0000a	56		 push	 esi
  0000b	57		 push	 edi
  0000c	8d bd 40 ff ff
	ff		 lea	 edi, DWORD PTR [ebp-192]
  00012	b9 30 00 00 00	 mov	 ecx, 48			; 00000030H
  00017	b8 cc cc cc cc	 mov	 eax, -858993460		; ccccccccH
  0001c	f3 ab		 rep stosd
  0001e	5f		 pop	 edi
  0001f	5e		 pop	 esi
  00020	5b		 pop	 ebx
  00021	8b e5		 mov	 esp, ebp
  00023	5d		 pop	 ebp
  00024	c3		 ret	 0
?cleanBlacklist@@YAXXZ ENDP				; cleanBlacklist
_TEXT	ENDS
; Function compile flags: /Odtp /RTCsu /ZI
; File c:\users\administrator\desktop\????? ??\????? ??\client source code\system\login.cpp
;	COMDAT ?removeBlacklist@@YAXPAD@Z
_TEXT	SEGMENT
_name$ = 8						; size = 4
?removeBlacklist@@YAXPAD@Z PROC				; removeBlacklist, COMDAT

; 19455: void removeBlacklist(char* name) {};

  00000	55		 push	 ebp
  00001	8b ec		 mov	 ebp, esp
  00003	81 ec c0 00 00
	00		 sub	 esp, 192		; 000000c0H
  00009	53		 push	 ebx
  0000a	56		 push	 esi
  0000b	57		 push	 edi
  0000c	8d bd 40 ff ff
	ff		 lea	 edi, DWORD PTR [ebp-192]
  00012	b9 30 00 00 00	 mov	 ecx, 48			; 00000030H
  00017	b8 cc cc cc cc	 mov	 eax, -858993460		; ccccccccH
  0001c	f3 ab		 rep stosd
  0001e	5f		 pop	 edi
  0001f	5e		 pop	 esi
  00020	5b		 pop	 ebx
  00021	8b e5		 mov	 esp, ebp
  00023	5d		 pop	 ebp
  00024	c3		 ret	 0
?removeBlacklist@@YAXPAD@Z ENDP				; removeBlacklist
_TEXT	ENDS
; Function compile flags: /Odtp /RTCsu /ZI
; File c:\users\administrator\desktop\????? ??\????? ??\client source code\system\login.cpp
;	COMDAT ?addBlacklist@@YAXPAD@Z
_TEXT	SEGMENT
_name$ = 8						; size = 4
?addBlacklist@@YAXPAD@Z PROC				; addBlacklist, COMDAT

; 19454: void addBlacklist(char* name) {};

  00000	55		 push	 ebp
  00001	8b ec		 mov	 ebp, esp
  00003	81 ec c0 00 00
	00		 sub	 esp, 192		; 000000c0H
  00009	53		 push	 ebx
  0000a	56		 push	 esi
  0000b	57		 push	 edi
  0000c	8d bd 40 ff ff
	ff		 lea	 edi, DWORD PTR [ebp-192]
  00012	b9 30 00 00 00	 mov	 ecx, 48			; 00000030H
  00017	b8 cc cc cc cc	 mov	 eax, -858993460		; ccccccccH
  0001c	f3 ab		 rep stosd
  0001e	5f		 pop	 edi
  0001f	5e		 pop	 esi
  00020	5b		 pop	 ebx
  00021	8b e5		 mov	 esp, ebp
  00023	5d		 pop	 ebp
  00024	c3		 ret	 0
?addBlacklist@@YAXPAD@Z ENDP				; addBlacklist
_TEXT	ENDS
; Function compile flags: /Odtp /RTCsu /ZI
; File c:\users\administrator\desktop\????? ??\????? ??\client source code\system\login.cpp
;	COMDAT ?checkInBlacklist@@YAHPAD@Z
_TEXT	SEGMENT
_name$ = 8						; size = 4
?checkInBlacklist@@YAHPAD@Z PROC			; checkInBlacklist, COMDAT

; 19453: int checkInBlacklist(char* name) { return false; };

  00000	55		 push	 ebp
  00001	8b ec		 mov	 ebp, esp
  00003	81 ec c0 00 00
	00		 sub	 esp, 192		; 000000c0H
  00009	53		 push	 ebx
  0000a	56		 push	 esi
  0000b	57		 push	 edi
  0000c	8d bd 40 ff ff
	ff		 lea	 edi, DWORD PTR [ebp-192]
  00012	b9 30 00 00 00	 mov	 ecx, 48			; 00000030H
  00017	b8 cc cc cc cc	 mov	 eax, -858993460		; ccccccccH
  0001c	f3 ab		 rep stosd
  0001e	33 c0		 xor	 eax, eax
  00020	5f		 pop	 edi
  00021	5e		 pop	 esi
  00022	5b		 pop	 ebx
  00023	8b e5		 mov	 esp, ebp
  00025	5d		 pop	 ebp
  00026	c3		 ret	 0
?checkInBlacklist@@YAHPAD@Z ENDP			; checkInBlacklist
_TEXT	ENDS
; Function compile flags: /Odtp /RTCsu /ZI
; File c:\users\administrator\desktop\????? ??\????? ??\client source code\system\login.cpp
;	COMDAT ?closeMineFamilyDetailWN@@YAXXZ
_TEXT	SEGMENT
?closeMineFamilyDetailWN@@YAXXZ PROC			; closeMineFamilyDetailWN, COMDAT

; 16916: {

  00000	55		 push	 ebp
  00001	8b ec		 mov	 ebp, esp
  00003	81 ec c0 00 00
	00		 sub	 esp, 192		; 000000c0H
  00009	53		 push	 ebx
  0000a	56		 push	 esi
  0000b	57		 push	 edi
  0000c	8d bd 40 ff ff
	ff		 lea	 edi, DWORD PTR [ebp-192]
  00012	b9 30 00 00 00	 mov	 ecx, 48			; 00000030H
  00017	b8 cc cc cc cc	 mov	 eax, -858993460		; ccccccccH
  0001c	f3 ab		 rep stosd

; 16917: 			windowTypeWN = -1;

  0001e	c7 05 00 00 00
	00 ff ff ff ff	 mov	 DWORD PTR ?windowTypeWN@@3HA, -1 ; windowTypeWN

; 16918: 			DeathAction( ptActMenuWin );

  00028	a1 00 00 00 00	 mov	 eax, DWORD PTR ?ptActMenuWin@@3PAUaction@@A ; ptActMenuWin
  0002d	50		 push	 eax
  0002e	e8 00 00 00 00	 call	 ?DeathAction@@YAXPAUaction@@@Z ; DeathAction
  00033	83 c4 04	 add	 esp, 4

; 16919: 			ptActMenuWin = NULL;

  00036	c7 05 00 00 00
