; Listing generated by Microsoft (R) Optimizing Compiler Version 19.00.24215.1 

	TITLE	C:\Users\Administrator\Desktop\????? ??\????? ??\Client Source Code\system\math2.cpp
	.686P
	.XMM
	include listing.inc
	.model	flat

INCLUDELIB MSVCRTD
INCLUDELIB OLDNAMES

PUBLIC	?randTbl@@3PAHA					; randTbl
PUBLIC	?SinTbl@@3PANA					; SinTbl
PUBLIC	?atan_table@@3PANA				; atan_table
_BSS	SEGMENT
?randTbl@@3PAHA DD 064H DUP (?)				; randTbl
?r@?1??rand2@@YAHXZ@4HA DD 01H DUP (?)			; `rand2'::`2'::r
_BSS	ENDS
_DATA	SEGMENT
?SinTbl@@3PANA DQ 00000000000000000r		; 0	; SinTbl
	DQ	03f91deefe4ffc979r		; 0.017452
	DQ	03fa1de481f53825er		; 0.034899
	DQ	03faacbc8c0ce91c9r		; 0.052336
	DQ	03fb1db877ab32485r		; 0.069756
	DQ	03fb64fdb09a671efr		; 0.087156
	DQ	03fbac258d5842b73r		; 0.104528
	DQ	03fbf32ce89656ef0r		; 0.121869
	DQ	03fc1d06bbdbe3c10r		; 0.139173
	DQ	03fc4060780fdc161r		; 0.156434
	DQ	03fc63a19008205ffr		; 0.173648
	DQ	03fc86c6de76427c8r		; 0.190809
	DQ	03fca9cdc443914f5r		; 0.207912
	DQ	03fcccb31c219eb64r		; 0.224951
	DQ	03fcef74cd31769a9r		; 0.241922
	DQ	03fd0907d912556d2r		; 0.258819
	DQ	03fd1a4095f2452c6r		; 0.275637
	DQ	03fd2b6390c9107fbr		; 0.292372
	DQ	03fd3c6ef3d3a1d32r		; 0.309017
	DQ	03fd4d61b2a27f1b7r		; 0.325568
	DQ	03fd5e3a7daa4fca4r		; 0.34202
	DQ	03fd6ef8055fbb518r		; 0.358368
	DQ	03fd7f98fa376922er		; 0.374607
	DQ	03fd901bc98a222d5r		; 0.390731
	DQ	03fda07faa044ae86r		; 0.406737
	DQ	03fdb0c2c5e2cdc01r		; 0.422618
	DQ	03fdc0e453d20f2bfr		; 0.438371
	DQ	03fdd0e30446b69dbr		; 0.453991
	DQ	03fde0bd44998d046r		; 0.469472
	DQ	03fdf072085b18549r		; 0.48481
	DQ	03fe0000000000000r		; 0.5
	DQ	03fe07b30f8c64fdbr		; 0.515038
	DQ	03fe0f518b0d0edc4r		; 0.529919
	DQ	03fe16daec4a4095fr		; 0.544639
	DQ	03fe1e4e8b7e4de3cr		; 0.559193
	DQ	03fe25abc0e38a7e7r		; 0.573576
	DQ	03fe2cf227d028a1er		; 0.587785
	DQ	03fe3421187e7c06er		; 0.601815
	DQ	03fe3b380cb6c7a7dr		; 0.615662
	DQ	03fe42363b256ffc1r		; 0.62932
	DQ	03fe491b823c85c25r		; 0.642788
	DQ	03fe4fe6f71a7e308r		; 0.656059
	DQ	03fe569856a37ac3fr		; 0.669131
	DQ	03fe5d2ed783dff3fr		; 0.681998
	DQ	03fe63aa369fcf3dcr		; 0.694658
	DQ	03fe6a09edbf8b9bbr		; 0.707107
	DQ	03fe704d551d68c69r		; 0.71934
	DQ	03fe7674080f98fa3r		; 0.731354
	DQ	03fe7c7d805e5f30er		; 0.743145
	DQ	03fe8269595feda66r		; 0.75471
	DQ	03fe8836eb4e98138r		; 0.766044
	DQ	03fe8de6149c6f36fr		; 0.777146
	DQ	03fe93762d83c6c98r		; 0.788011
	DQ	03fe98e6afcce1c58r		; 0.798635
	DQ	03fe9e3779e9d0e99r		; 0.809017
	DQ	03fea367e414e7ee9r		; 0.819152
	DQ	03fea877ab324851br		; 0.829038
	DQ	03fead66490a350d3r		; 0.838671
	DQ	03feb23358f2e05cdr		; 0.848048
	DQ	03feb6de97d06bbdcr		; 0.857167
	DQ	03febb67a0f9096bcr		; 0.866025
	DQ	03febfce3150dae3er		; 0.87462
	DQ	03fec411c2a023209r		; 0.882948
	DQ	03fec83211cb039efr		; 0.891007
	DQ	03fecc2eba27ae9abr		; 0.898794
	DQ	03fed0079a2834d27r		; 0.906308
	DQ	03fed3bc2b94d9408r		; 0.913545
	DQ	03fed74c6e6d9be4dr		; 0.920505
	DQ	03fedab7dc7abfb9cr		; 0.927184
	DQ	03feddfe32a0663c7r		; 0.93358
	DQ	03fee11f70de8f6cfr		; 0.939693
	DQ	03fee41b10fd7e458r		; 0.945519
	DQ	03fee6f0f16f4384cr		; 0.951057
	DQ	03fee9a0cf1800a7cr		; 0.956305
	DQ	03feec2a8869c66d3r		; 0.961262
	DQ	03feee8dda48b6523r		; 0.965926
	DQ	03fef0caa326e1156r		; 0.970296
	DQ	03fef2e09fe86833cr		; 0.97437
	DQ	03fef4cfd08d4bad8r		; 0.978148
	DQ	03fef697d06bbdbe4r		; 0.981627
	DQ	03fef838c111ada77r		; 0.984808
	DQ	03fef9b23dd54da4dr		; 0.987688
	DQ	03fefb0468448cf7dr		; 0.990268
	DQ	03fefc2efd438d1d9r		; 0.992546
	DQ	03fefd31fcd24e161r		; 0.994522
	DQ	03fefe0d4562e09ffr		; 0.996195
	DQ	03fefec0b5675579br		; 0.997564
	DQ	03feff4c6e6d9be4dr		; 0.99863
	DQ	03feffb02d59d55e7r		; 0.999391
	DQ	03feffec13b9f127fr		; 0.999848
	DQ	03ff0000000000000r		; 1
	DQ	03feffec13b9f127fr		; 0.999848
	DQ	03feffb02d59d55e7r		; 0.999391
	DQ	03feff4c6e6d9be4dr		; 0.99863
	DQ	03fefec0b5675579br		; 0.997564
	DQ	03fefe0d4562e09ffr		; 0.996195
	DQ	03fefd31fcd24e161r		; 0.994522
	DQ	03fefc2efd438d1d9r		; 0.992546
	DQ	03fefb0468448cf7dr		; 0.990268
	DQ	03fef9b23dd54da4dr		; 0.987688
	DQ	03fef838c111ada77r		; 0.984808
	DQ	03fef697d06bbdbe4r		; 0.981627
	DQ	03fef4cfd08d4bad8r		; 0.978148
	DQ	03fef2e09fe86833cr		; 0.97437
	DQ	03fef0caa326e1156r		; 0.970296
	DQ	03feee8dda48b6523r		; 0.965926
	DQ	03feec2a8869c66d3r		; 0.961262
	DQ	03fee9a0cf1800a7cr		; 0.956305
	DQ	03fee6f0cfe154435r		; 0.951056
	DQ	03fee41b10fd7e458r		; 0.945519
	DQ	03fee11f70de8f6cfr		; 0.939693
	DQ	03feddfe32a0663c7r		; 0.93358
	DQ	03fedab7dc7abfb9cr		; 0.927184
	DQ	03fed74c6e6d9be4dr		; 0.920505
	DQ	03fed3bc2b94d9408r		; 0.913545
	DQ	03fed0079a2834d27r		; 0.906308
	DQ	03fecc2eba27ae9abr		; 0.898794
	DQ	03fec83211cb039efr		; 0.891007
	DQ	03fec411c2a023209r		; 0.882948
	DQ	03febfce3150dae3er		; 0.87462
	DQ	03febb67a0f9096bcr		; 0.866025
	DQ	03feb6de97d06bbdcr		; 0.857167
	DQ	03feb23358f2e05cdr		; 0.848048
	DQ	03fead66490a350d3r		; 0.838671
	DQ	03fea87789a459104r		; 0.829037
	DQ	03fea367e414e7ee9r		; 0.819152
	DQ	03fe9e3779e9d0e99r		; 0.809017
	DQ	03fe98e6afcce1c58r		; 0.798635
	DQ	03fe93762d83c6c98r		; 0.788011
	DQ	03fe8de6149c6f36fr		; 0.777146
	DQ	03fe8836eb4e98138r		; 0.766044
	DQ	03fe8269595feda66r		; 0.75471
	DQ	03fe7c7d805e5f30er		; 0.743145
	DQ	03fe7674080f98fa3r		; 0.731354
	DQ	03fe704d551d68c69r		; 0.71934
	DQ	03fe6a09edbf8b9bbr		; 0.707107
	DQ	03fe63aa369fcf3dcr		; 0.694658
	DQ	03fe5d2ed783dff3fr		; 0.681998
	DQ	03fe569856a37ac3fr		; 0.669131
	DQ	03fe4fe6f71a7e308r		; 0.656059
	DQ	03fe491b823c85c25r		; 0.642788
	DQ	03fe42363b256ffc1r		; 0.62932
	DQ	03fe3b37eb28d8666r		; 0.615661
	DQ	03fe3421187e7c06er		; 0.601815
	DQ	03fe2cf227d028a1er		; 0.587785
	DQ	03fe25abc0e38a7e7r		; 0.573576
	DQ	03fe1e4e8b7e4de3cr		; 0.559193
	DQ	03fe16daec4a4095fr		; 0.544639
	DQ	03fe0f518b0d0edc4r		; 0.529919
	DQ	03fe07b30f8c64fdbr		; 0.515038
	DQ	03fe0000000000000r		; 0.5
	DQ	03fdf072085b18549r		; 0.48481
	DQ	03fde0bd44998d046r		; 0.469472
	DQ	03fdd0e2c12ad81aer		; 0.45399
	DQ	03fdc0e453d20f2bfr		; 0.438371
	DQ	03fdb0c2c5e2cdc01r		; 0.422618
	DQ	03fda07faa044ae86r		; 0.406737
	DQ	03fd901bc98a222d5r		; 0.390731
	DQ	03fd7f98fa376922er		; 0.374607
	DQ	03fd6ef8055fbb518r		; 0.358368
	DQ	03fd5e3a7daa4fca4r		; 0.34202
	DQ	03fd4d61b2a27f1b7r		; 0.325568
	DQ	03fd3c6ef3d3a1d32r		; 0.309017
	DQ	03fd2b6390c9107fbr		; 0.292372
	DQ	03fd1a4095f2452c6r		; 0.275637
	DQ	03fd0907d912556d2r		; 0.258819
	DQ	03fcef74cd31769a9r		; 0.241922
	DQ	03fcccb31c219eb64r		; 0.224951
	DQ	03fca9cdc443914f5r		; 0.207912
	DQ	03fc86c6de76427c8r		; 0.190809
	DQ	03fc63a19008205ffr		; 0.173648
	DQ	03fc4060780fdc161r		; 0.156434
	DQ	03fc1d06bbdbe3c10r		; 0.139173
	DQ	03fbf32ce89656ef0r		; 0.121869
	DQ	03fbac258d5842b73r		; 0.104528
	DQ	03fb64fdb09a671efr		; 0.087156
	DQ	03fb1db877ab32485r		; 0.069756
	DQ	03faacbc8c0ce91c9r		; 0.052336
	DQ	03fa1de69ad42c3car		; 0.0349
	DQ	03f91deefe4ffc979r		; 0.017452
	DQ	08000000000000000r		; -0
	DQ	0bf91deefe4ffc979r		; -0.017452
	DQ	0bfa1de69ad42c3car		; -0.0349
	DQ	0bfaacbc8c0ce91c9r		; -0.052336
	DQ	0bfb1db9841aac53br		; -0.069757
	DQ	0bfb64fdb09a671efr		; -0.087156
	DQ	0bfbac258d5842b73r		; -0.104528
	DQ	0bfbf32ce89656ef0r		; -0.121869
	DQ	0bfc1d06bbdbe3c10r		; -0.139173
	DQ	0bfc4060780fdc161r		; -0.156434
	DQ	0bfc63a19008205ffr		; -0.173648
	DQ	0bfc86c6de76427c8r		; -0.190809
	DQ	0bfca9cdc443914f5r		; -0.207912
	DQ	0bfcccb31c219eb64r		; -0.224951
	DQ	0bfcef74cd31769a9r		; -0.241922
	DQ	0bfd0907d912556d2r		; -0.258819
	DQ	0bfd1a4095f2452c6r		; -0.275637
	DQ	0bfd2b6390c9107fbr		; -0.292372
	DQ	0bfd3c6ef3d3a1d32r		; -0.309017
	DQ	0bfd4d61b2a27f1b7r		; -0.325568
	DQ	0bfd5e3a7daa4fca4r		; -0.34202
	DQ	0bfd6ef8055fbb518r		; -0.358368
	DQ	0bfd7f98b71b8aa00r		; -0.374606
	DQ	0bfd901bc98a222d5r		; -0.390731
	DQ	0bfda07faa044ae86r		; -0.406737
	DQ	0bfdb0c2c5e2cdc01r		; -0.422618
	DQ	0bfdc0e453d20f2bfr		; -0.438371
	DQ	0bfdd0e30446b69dbr		; -0.453991
	DQ	0bfde0bd44998d046r		; -0.469472
	DQ	0bfdf072085b18549r		; -0.48481
	DQ	0bfe0000000000000r		; -0.5
	DQ	0bfe07b30f8c64fdbr		; -0.515038
	DQ	0bfe0f518b0d0edc4r		; -0.529919
	DQ	0bfe16daec4a4095fr		; -0.544639
	DQ	0bfe1e4e8b7e4de3cr		; -0.559193
	DQ	0bfe25abc0e38a7e7r		; -0.573576
	DQ	0bfe2cf227d028a1er		; -0.587785
	DQ	0bfe3421187e7c06er		; -0.601815
	DQ	0bfe3b37eb28d8666r		; -0.615661
	DQ	0bfe42363b256ffc1r		; -0.62932
	DQ	0bfe491b823c85c25r		; -0.642788
	DQ	0bfe4fe6f71a7e308r		; -0.656059
	DQ	0bfe569856a37ac3fr		; -0.669131
	DQ	0bfe5d2ed783dff3fr		; -0.681998
	DQ	0bfe63aa369fcf3dcr		; -0.694658
	DQ	0bfe6a09edbf8b9bbr		; -0.707107
	DQ	0bfe704d551d68c69r		; -0.71934
	DQ	0bfe7674080f98fa3r		; -0.731354
	DQ	0bfe7c7d805e5f30er		; -0.743145
	DQ	0bfe8269595feda66r		; -0.75471
	DQ	0bfe88370cdc8754fr		; -0.766045
	DQ	0bfe8de6149c6f36fr		; -0.777146
	DQ	0bfe93762d83c6c98r		; -0.788011
	DQ	0bfe98e6afcce1c58r		; -0.798635
	DQ	0bfe9e3779e9d0e99r		; -0.809017
	DQ	0bfea367e414e7ee9r		; -0.819152
	DQ	0bfea877ab324851br		; -0.829038
	DQ	0bfead66490a350d3r		; -0.838671
	DQ	0bfeb23358f2e05cdr		; -0.848048
	DQ	0bfeb6de97d06bbdcr		; -0.857167
	DQ	0bfebb67a0f9096bcr		; -0.866025
	DQ	0bfebfce3150dae3er		; -0.87462
	DQ	0bfec411c2a023209r		; -0.882948
	DQ	0bfec83211cb039efr		; -0.891007
	DQ	0bfecc2eba27ae9abr		; -0.898794
	DQ	0bfed0079a2834d27r		; -0.906308
	DQ	0bfed3bc2b94d9408r		; -0.913545
	DQ	0bfed74c6e6d9be4dr		; -0.920505
	DQ	0bfedab7dc7abfb9cr		; -0.927184
	DQ	0bfeddfe542e557der		; -0.933581
	DQ	0bfee11f4f50a02b8r		; -0.939692
	DQ	0bfee41b10fd7e458r		; -0.945519
	DQ	0bfee6f0cfe154435r		; -0.951056
	DQ	0bfee9a0cf1800a7cr		; -0.956305
	DQ	0bfeec2a8869c66d3r		; -0.961262
	DQ	0bfeee8dda48b6523r		; -0.965926
	DQ	0bfef0caa326e1156r		; -0.970296
	DQ	0bfef2e09fe86833cr		; -0.97437
	DQ	0bfef4cfd08d4bad8r		; -0.978148
	DQ	0bfef697d06bbdbe4r		; -0.981627
	DQ	0bfef838c111ada77r		; -0.984808
	DQ	0bfef9b23dd54da4dr		; -0.987688
	DQ	0bfefb0468448cf7dr		; -0.990268
	DQ	0bfefc2efd438d1d9r		; -0.992546
	DQ	0bfefd31fcd24e161r		; -0.994522
	DQ	0bfefe0d4562e09ffr		; -0.996195
	DQ	0bfefec0b5675579br		; -0.997564
	DQ	0bfeff4c6e6d9be4dr		; -0.99863
	DQ	0bfeffb02d59d55e7r		; -0.999391
	DQ	0bfeffec13b9f127fr		; -0.999848
	DQ	0bff0000000000000r		; -1
	DQ	0bfeffec13b9f127fr		; -0.999848
	DQ	0bfeffb02d59d55e7r		; -0.999391
	DQ	0bfeff4c6e6d9be4dr		; -0.99863
	DQ	0bfefec0b5675579br		; -0.997564
	DQ	0bfefe0d4562e09ffr		; -0.996195
	DQ	0bfefd31fcd24e161r		; -0.994522
	DQ	0bfefc2efd438d1d9r		; -0.992546
	DQ	0bfefb0468448cf7dr		; -0.990268
	DQ	0bfef9b23dd54da4dr		; -0.987688
	DQ	0bfef838c111ada77r		; -0.984808
	DQ	0bfef697d06bbdbe4r		; -0.981627
	DQ	0bfef4cfd08d4bad8r		; -0.978148
	DQ	0bfef2e09fe86833cr		; -0.97437
	DQ	0bfef0caa326e1156r		; -0.970296
	DQ	0bfeee8dda48b6523r		; -0.965926
	DQ	0bfeec2a8869c66d3r		; -0.961262
	DQ	0bfee9a0cf1800a7cr		; -0.956305
	DQ	0bfee6f0cfe154435r		; -0.951056
	DQ	0bfee41b10fd7e458r		; -0.945519
	DQ	0bfee11f70de8f6cfr		; -0.939693
	DQ	0bfeddfe32a0663c7r		; -0.93358
	DQ	0bfedab7dc7abfb9cr		; -0.927184
	DQ	0bfed74c6e6d9be4dr		; -0.920505
	DQ	0bfed3bc2b94d9408r		; -0.913545
	DQ	0bfed0079a2834d27r		; -0.906308
	DQ	0bfecc2eba27ae9abr		; -0.898794
	DQ	0bfec83211cb039efr		; -0.891007
	DQ	0bfec411c2a023209r		; -0.882948
	DQ	0bfebfce3150dae3er		; -0.87462
	DQ	0bfebb67a0f9096bcr		; -0.866025
	DQ	0bfeb6de97d06bbdcr		; -0.857167
	DQ	0bfeb23358f2e05cdr		; -0.848048
	DQ	0bfead66490a350d3r		; -0.838671
	DQ	0bfea877ab324851br		; -0.829038
	DQ	0bfea367e414e7ee9r		; -0.819152
	DQ	0bfe9e3779e9d0e99r		; -0.809017
	DQ	0bfe98e6afcce1c58r		; -0.798635
	DQ	0bfe93762d83c6c98r		; -0.788011
	DQ	0bfe8de6149c6f36fr		; -0.777146
	DQ	0bfe8836eb4e98138r		; -0.766044
	DQ	0bfe8269595feda66r		; -0.75471
	DQ	0bfe7c7d805e5f30er		; -0.743145
	DQ	0bfe7674080f98fa3r		; -0.731354
	DQ	0bfe704d551d68c69r		; -0.71934
	DQ	0bfe6a09edbf8b9bbr		; -0.707107
	DQ	0bfe63aa582dbe7f3r		; -0.694659
	DQ	0bfe5d2ed783dff3fr		; -0.681998
	DQ	0bfe569856a37ac3fr		; -0.669131
	DQ	0bfe4fe6f71a7e308r		; -0.656059
	DQ	0bfe491b823c85c25r		; -0.642788
	DQ	0bfe42365cb35f3d8r		; -0.629321
	DQ	0bfe3b37eb28d8666r		; -0.615661
	DQ	0bfe3421187e7c06er		; -0.601815
	DQ	0bfe2cf227d028a1er		; -0.587785
	DQ	0bfe25abc0e38a7e7r		; -0.573576
	DQ	0bfe1e4e8b7e4de3cr		; -0.559193
	DQ	0bfe16daec4a4095fr		; -0.544639
	DQ	0bfe0f518b0d0edc4r		; -0.529919
	DQ	0bfe07b30f8c64fdbr		; -0.515038
	DQ	0bfe0000000000000r		; -0.5
	DQ	0bfdf071c53f39d1br		; -0.484809
	DQ	0bfde0bd44998d046r		; -0.469472
	DQ	0bfdd0e30446b69dbr		; -0.453991
	DQ	0bfdc0e453d20f2bfr		; -0.438371
	DQ	0bfdb0c2c5e2cdc01r		; -0.422618
	DQ	0bfda07f66e86c658r		; -0.406736
	DQ	0bfd901bc98a222d5r		; -0.390731
	DQ	0bfd7f98fa376922er		; -0.374607
	DQ	0bfd6ef8055fbb518r		; -0.358368
	DQ	0bfd5e3a7daa4fca4r		; -0.34202
	DQ	0bfd4d61b2a27f1b7r		; -0.325568
	DQ	0bfd3c6ef3d3a1d32r		; -0.309017
	DQ	0bfd2b6390c9107fbr		; -0.292372
	DQ	0bfd1a40d90e23af3r		; -0.275638
	DQ	0bfd0907d912556d2r		; -0.258819
	DQ	0bfcef74cd31769a9r		; -0.241922
	DQ	0bfcccb31c219eb64r		; -0.224951
	DQ	0bfca9cdc443914f5r		; -0.207912
	DQ	0bfc86c6de76427c8r		; -0.190809
	DQ	0bfc63a19008205ffr		; -0.173648
	DQ	0bfc4060780fdc161r		; -0.156434
	DQ	0bfc1d06bbdbe3c10r		; -0.139173
	DQ	0bfbf32ce89656ef0r		; -0.121869
	DQ	0bfbac258d5842b73r		; -0.104528
	DQ	0bfb64fdb09a671efr		; -0.087156
	DQ	0bfb1db9841aac53br		; -0.069757
	DQ	0bfaacbc8c0ce91c9r		; -0.052336
	DQ	0bfa1de69ad42c3car		; -0.0349
	DQ	0bf91deefe4ffc979r		; -0.017452
?atan_table@@3PANA DQ 00000000000000000r	; 0	; atan_table
	DQ	03feca543f1c75819r		; 0.895174
	DQ	03ffca379b77c02b0r		; 1.78991
	DQ	04005785f06f69446r		; 2.68377
	DQ	0400c9c55000c953ar		; 3.57633
	DQ	04011de5eedcc20d5r		; 4.46716
	DQ	040156c5d63886595r		; 5.35583
	DQ	04018f7b84db9c737r		; 6.24191
	DQ	0401c800431bde82dr		; 7.12502
	DQ	04020026bd6e8af81r		; 8.00473
	DQ	04021c2e5bc87db2br		; 8.88066
	DQ	04023813dd97f62b7r		; 9.75243
	DQ	040253d436b8f9b13r		; 10.6197
	DQ	04026f6c7863beec4r		; 11.482
	DQ	04028ad9ccfaeff5cr		; 12.3391
	DQ	0402a6197c3d68406r		; 13.1906
	DQ	0402c128e71476af9r		; 14.0362
	DQ	0402dc059641f6449r		; 14.8757
	DQ	0402f6ad2999567dcr		; 15.7086
	DQ	0403088eb24a6a876r		; 16.5348
	DQ	040315aa161e4f766r		; 17.354
	DQ	040322a7c286f8ad2r		; 18.166
	DQ	04032f86ca89fc6dar		; 18.9704
	DQ	04033c46530058149r		; 19.7672
	DQ	040348e58f7121ab5r		; 20.556
	DQ	04035563c64345cffr		; 21.3369
	DQ	040361c04c8bc9cd4r		; 22.1094
	DQ	04036dfa8826aa8ebr		; 22.8737
	DQ	04037a11eeaa6d267r		; 23.6294
	DQ	04038606045baf534r		; 24.3765
	DQ	040391d65d3996fa8r		; 25.1148
	DQ	04039d829cfdd2285r		; 25.8444
	DQ	0403a90a72ead9275r		; 26.5651
	DQ	0403b46d9f0a1be2br		; 27.2768
	DQ	0403bfabecedd4845r		; 27.9795
	DQ	0403cac535c9e6688r		; 28.6731
	DQ	0403d5b95c4220360r		; 29.3578
	DQ	0403e088509bf9c63r		; 30.0333
	DQ	0403eb3210be9424er		; 30.6997
	DQ	0403f5b69ec2ce465r		; 31.3571
	DQ	0404000b063e07a29r		; 32.0054
	DQ	0404052839042d8c3r		; 32.6446
	DQ	04040a32f87ad080br		; 33.2749
	DQ	04040f2b599aa6091r		; 33.8962
	DQ	040414117481b21c4r		; 34.5085
	DQ	040418e56605ee569r		; 35.112
	DQ	04041da74d9c6b053r		; 35.7067
	DQ	040422574e65bea0cr		; 36.2926
	DQ	040426f58d1526d8br		; 36.8699
	DQ	04042b8232096787dr		; 37.4386
	DQ	04042ffd6733ebbfdr		; 37.9987
	DQ	040434675a31a4bdcr		; 38.5505
	DQ	040438c03925bb7b7r		; 39.0939
	DQ	04043d0833c60029fr		; 39.629
	DQ	0404413f7ced91687r		; 40.156
	DQ	0404456646f156191r		; 40.6749
	DQ	0404497cc63f14120r		; 41.1859
	DQ	04044d83315d701dar		; 41.6891
	DQ	04045179bd4067cf2r		; 42.1844
	DQ	04045560a2877ee4er		; 42.6722
	DQ	04045938183f91e64r		; 43.1524
	DQ	04045d005681ecd4br		; 43.6252
	DQ	040460b996fa82e88r		; 44.0906
	DQ	0404646411c2a0232r		; 44.5489
	DQ	04046800000000000r		; 45
_DATA	ENDS
PUBLIC	?AdjustDir@@YAXPAM@Z				; AdjustDir
PUBLIC	?AdjustDir@@YAXPAH@Z				; AdjustDir
PUBLIC	?SinT@@YAMM@Z					; SinT
PUBLIC	?CosT@@YAMM@Z					; CosT
PUBLIC	?Atan@@YAMMM@Z					; Atan
PUBLIC	?Rnd@@YAHHH@Z					; Rnd
PUBLIC	?initRand2@@YAXXZ				; initRand2
PUBLIC	?rand2@@YAHXZ					; rand2
PUBLIC	?pointLen@@YAMMMMM@Z				; pointLen
PUBLIC	?pointLen2@@YAMMMMM@Z				; pointLen2
PUBLIC	__real@00000000
PUBLIC	__real@3f800000
PUBLIC	__real@4076800000000000
PUBLIC	__real@42800000
PUBLIC	__real@42b40000
PUBLIC	__real@43070000
PUBLIC	__real@43340000
PUBLIC	__real@43870000
PUBLIC	__real@43b40000
PUBLIC	__xmm@80000000800000008000000080000000
EXTRN	_sqrt:PROC
EXTRN	__imp__rand:PROC
EXTRN	__RTC_CheckEsp:PROC
EXTRN	__RTC_InitBase:PROC
EXTRN	__RTC_Shutdown:PROC
EXTRN	__fltused:DWORD
;	COMDAT __xmm@80000000800000008000000080000000
CONST	SEGMENT
__xmm@80000000800000008000000080000000 DB 00H, 00H, 00H, 080H, 00H, 00H, 00H
	DB	080H, 00H, 00H, 00H, 080H, 00H, 00H, 00H, 080H
CONST	ENDS
;	COMDAT __real@43b40000
CONST	SEGMENT
__real@43b40000 DD 043b40000r			; 360
CONST	ENDS
;	COMDAT __real@43870000
CONST	SEGMENT
__real@43870000 DD 043870000r			; 270
CONST	ENDS
;	COMDAT __real@43340000
CONST	SEGMENT
__real@43340000 DD 043340000r			; 180
CONST	ENDS
;	COMDAT __real@43070000
CONST	SEGMENT
__real@43070000 DD 043070000r			; 135
CONST	ENDS
;	COMDAT __real@42b40000
CONST	SEGMENT
__real@42b40000 DD 042b40000r			; 90
CONST	ENDS
;	COMDAT __real@42800000
CONST	SEGMENT
__real@42800000 DD 042800000r			; 64
CONST	ENDS
;	COMDAT __real@4076800000000000
CONST	SEGMENT
__real@4076800000000000 DQ 04076800000000000r	; 360
CONST	ENDS
;	COMDAT __real@3f800000
CONST	SEGMENT
__real@3f800000 DD 03f800000r			; 1
CONST	ENDS
;	COMDAT __real@00000000
CONST	SEGMENT
__real@00000000 DD 000000000r			; 0
CONST	ENDS
;	COMDAT rtc$TMZ
rtc$TMZ	SEGMENT
__RTC_Shutdown.rtc$TMZ DD FLAT:__RTC_Shutdown
rtc$TMZ	ENDS
;	COMDAT rtc$IMZ
rtc$IMZ	SEGMENT
__RTC_InitBase.rtc$IMZ DD FLAT:__RTC_InitBase
rtc$IMZ	ENDS
; Function compile flags: /Odtp /RTCsu /ZI
; File c:\users\administrator\desktop\????? ??\????? ??\client source code\system\math2.cpp
;	COMDAT ?pointLen2@@YAMMMMM@Z
_TEXT	SEGMENT
tv75 = -220						; size = 4
_y$ = -20						; size = 4
_x$ = -8						; size = 4
_x1$ = 8						; size = 4
_y1$ = 12						; size = 4
_x2$ = 16						; size = 4
_y2$ = 20						; size = 4
?pointLen2@@YAMMMMM@Z PROC				; pointLen2, COMDAT

; 375  : {

  00000	55		 push	 ebp
  00001	8b ec		 mov	 ebp, esp
  00003	81 ec dc 00 00
	00		 sub	 esp, 220		; 000000dcH
  00009	53		 push	 ebx
  0000a	56		 push	 esi
  0000b	57		 push	 edi
  0000c	8d bd 24 ff ff
	ff		 lea	 edi, DWORD PTR [ebp-220]
  00012	b9 37 00 00 00	 mov	 ecx, 55			; 00000037H
  00017	b8 cc cc cc cc	 mov	 eax, -858993460		; ccccccccH
  0001c	f3 ab		 rep stosd

; 376  : 	float x, y;
; 377  : 
; 378  : 	x = x2 - x1;

  0001e	f3 0f 10 45 10	 movss	 xmm0, DWORD PTR _x2$[ebp]
  00023	f3 0f 5c 45 08	 subss	 xmm0, DWORD PTR _x1$[ebp]
  00028	f3 0f 11 45 f8	 movss	 DWORD PTR _x$[ebp], xmm0

; 379  : 	y = y2 - y1;

  0002d	f3 0f 10 45 14	 movss	 xmm0, DWORD PTR _y2$[ebp]
  00032	f3 0f 5c 45 0c	 subss	 xmm0, DWORD PTR _y1$[ebp]
  00037	f3 0f 11 45 ec	 movss	 DWORD PTR _y$[ebp], xmm0

; 380  : 
; 381  : 	return( x*x + y*y );

  0003c	f3 0f 10 45 f8	 movss	 xmm0, DWORD PTR _x$[ebp]
  00041	f3 0f 59 45 f8	 mulss	 xmm0, DWORD PTR _x$[ebp]
  00046	f3 0f 10 4d ec	 movss	 xmm1, DWORD PTR _y$[ebp]
  0004b	f3 0f 59 4d ec	 mulss	 xmm1, DWORD PTR _y$[ebp]
  00050	f3 0f 58 c1	 addss	 xmm0, xmm1
  00054	f3 0f 11 85 24
	ff ff ff	 movss	 DWORD PTR tv75[ebp], xmm0
  0005c	d9 85 24 ff ff
	ff		 fld	 DWORD PTR tv75[ebp]

; 382  : }

  00062	5f		 pop	 edi
  00063	5e		 pop	 esi
  00064	5b		 pop	 ebx
  00065	8b e5		 mov	 esp, ebp
  00067	5d		 pop	 ebp
  00068	c3		 ret	 0
?pointLen2@@YAMMMMM@Z ENDP				; pointLen2
_TEXT	ENDS
; Function compile flags: /Odtp /RTCsu /ZI
; File c:\users\administrator\desktop\????? ??\????? ??\client source code\system\math2.cpp
;	COMDAT ?pointLen@@YAMMMMM@Z
_TEXT	SEGMENT
tv80 = -220						; size = 4
_y$ = -20						; size = 4
_x$ = -8						; size = 4
_x1$ = 8						; size = 4
_y1$ = 12						; size = 4
_x2$ = 16						; size = 4
_y2$ = 20						; size = 4
?pointLen@@YAMMMMM@Z PROC				; pointLen, COMDAT

; 365  : {

  00000	55		 push	 ebp
  00001	8b ec		 mov	 ebp, esp
  00003	81 ec dc 00 00
	00		 sub	 esp, 220		; 000000dcH
  00009	53		 push	 ebx
  0000a	56		 push	 esi
  0000b	57		 push	 edi
  0000c	8d bd 24 ff ff
	ff		 lea	 edi, DWORD PTR [ebp-220]
  00012	b9 37 00 00 00	 mov	 ecx, 55			; 00000037H
  00017	b8 cc cc cc cc	 mov	 eax, -858993460		; ccccccccH
  0001c	f3 ab		 rep stosd

; 366  : 	float x, y;
; 367  : 
; 368  : 	x = x2 - x1;

  0001e	f3 0f 10 45 10	 movss	 xmm0, DWORD PTR _x2$[ebp]
  00023	f3 0f 5c 45 08	 subss	 xmm0, DWORD PTR _x1$[ebp]
  00028	f3 0f 11 45 f8	 movss	 DWORD PTR _x$[ebp], xmm0

; 369  : 	y = y2 - y1;

  0002d	f3 0f 10 45 14	 movss	 xmm0, DWORD PTR _y2$[ebp]
  00032	f3 0f 5c 45 0c	 subss	 xmm0, DWORD PTR _y1$[ebp]
  00037	f3 0f 11 45 ec	 movss	 DWORD PTR _y$[ebp], xmm0

; 370  : 
; 371  : 	return (float)sqrt( x*x + y*y );

  0003c	f3 0f 10 45 f8	 movss	 xmm0, DWORD PTR _x$[ebp]
  00041	f3 0f 59 45 f8	 mulss	 xmm0, DWORD PTR _x$[ebp]
  00046	f3 0f 10 4d ec	 movss	 xmm1, DWORD PTR _y$[ebp]
  0004b	f3 0f 59 4d ec	 mulss	 xmm1, DWORD PTR _y$[ebp]
  00050	f3 0f 58 c1	 addss	 xmm0, xmm1
  00054	f3 0f 5a c0	 cvtss2sd xmm0, xmm0
  00058	83 ec 08	 sub	 esp, 8
  0005b	f2 0f 11 04 24	 movsd	 QWORD PTR [esp], xmm0
  00060	e8 00 00 00 00	 call	 _sqrt
  00065	83 c4 08	 add	 esp, 8
  00068	d9 9d 24 ff ff
	ff		 fstp	 DWORD PTR tv80[ebp]
  0006e	d9 85 24 ff ff
	ff		 fld	 DWORD PTR tv80[ebp]

; 372  : }

  00074	5f		 pop	 edi
  00075	5e		 pop	 esi
  00076	5b		 pop	 ebx
  00077	81 c4 dc 00 00
	00		 add	 esp, 220		; 000000dcH
  0007d	3b ec		 cmp	 ebp, esp
  0007f	e8 00 00 00 00	 call	 __RTC_CheckEsp
  00084	8b e5		 mov	 esp, ebp
  00086	5d		 pop	 ebp
  00087	c3		 ret	 0
?pointLen@@YAMMMMM@Z ENDP				; pointLen
_TEXT	ENDS
; Function compile flags: /Odtp /RTCsu /ZI
; File c:\users\administrator\desktop\????? ??\????? ??\client source code\system\math2.cpp
;	COMDAT ?rand2@@YAHXZ
_TEXT	SEGMENT
_ret$ = -8						; size = 4
?rand2@@YAHXZ PROC					; rand2, COMDAT

; 294  : {

  00000	55		 push	 ebp
  00001	8b ec		 mov	 ebp, esp
  00003	81 ec cc 00 00
	00		 sub	 esp, 204		; 000000ccH
  00009	53		 push	 ebx
  0000a	56		 push	 esi
  0000b	57		 push	 edi
  0000c	8d bd 34 ff ff
	ff		 lea	 edi, DWORD PTR [ebp-204]
  00012	b9 33 00 00 00	 mov	 ecx, 51			; 00000033H
  00017	b8 cc cc cc cc	 mov	 eax, -858993460		; ccccccccH
  0001c	f3 ab		 rep stosd

; 295  : 	static int r = 0;
; 296  : 	int ret;
; 297  : 
; 298  : 	ret = randTbl[r];

  0001e	a1 00 00 00 00	 mov	 eax, DWORD PTR ?r@?1??rand2@@YAHXZ@4HA
  00023	8b 0c 85 00 00
	00 00		 mov	 ecx, DWORD PTR ?randTbl@@3PAHA[eax*4]
  0002a	89 4d f8	 mov	 DWORD PTR _ret$[ebp], ecx

; 299  : 	r++;

  0002d	a1 00 00 00 00	 mov	 eax, DWORD PTR ?r@?1??rand2@@YAHXZ@4HA
  00032	83 c0 01	 add	 eax, 1
  00035	a3 00 00 00 00	 mov	 DWORD PTR ?r@?1??rand2@@YAHXZ@4HA, eax

; 300  : 	if( r >= MAX_RND2_TBL )

  0003a	83 3d 00 00 00
	00 64		 cmp	 DWORD PTR ?r@?1??rand2@@YAHXZ@4HA, 100 ; 00000064H
  00041	7c 0a		 jl	 SHORT $LN2@rand2

; 301  : 		r = 0;

  00043	c7 05 00 00 00
	00 00 00 00 00	 mov	 DWORD PTR ?r@?1??rand2@@YAHXZ@4HA, 0
$LN2@rand2:

; 302  : 
; 303  : 	return ret;

  0004d	8b 45 f8	 mov	 eax, DWORD PTR _ret$[ebp]

; 304  : }

  00050	5f		 pop	 edi
  00051	5e		 pop	 esi
  00052	5b		 pop	 ebx
  00053	8b e5		 mov	 esp, ebp
  00055	5d		 pop	 ebp
  00056	c3		 ret	 0
?rand2@@YAHXZ ENDP					; rand2
_TEXT	ENDS
; Function compile flags: /Odtp /RTCsu /ZI
; File c:\users\administrator\desktop\????? ??\????? ??\client source code\system\math2.cpp
;	COMDAT ?initRand2@@YAXXZ
_TEXT	SEGMENT
_j$ = -20						; size = 4
_i$ = -8						; size = 4
?initRand2@@YAXXZ PROC					; initRand2, COMDAT

; 279  : {

  00000	55		 push	 ebp
  00001	8b ec		 mov	 ebp, esp
  00003	81 ec d8 00 00
	00		 sub	 esp, 216		; 000000d8H
  00009	53		 push	 ebx
  0000a	56		 push	 esi
  0000b	57		 push	 edi
  0000c	8d bd 28 ff ff
	ff		 lea	 edi, DWORD PTR [ebp-216]
  00012	b9 36 00 00 00	 mov	 ecx, 54			; 00000036H
  00017	b8 cc cc cc cc	 mov	 eax, -858993460		; ccccccccH
  0001c	f3 ab		 rep stosd

; 280  : 	int i;
; 281  : 	int j;
; 282  : 	j = (rand() % 100);

  0001e	8b f4		 mov	 esi, esp
  00020	ff 15 00 00 00
	00		 call	 DWORD PTR __imp__rand
  00026	3b f4		 cmp	 esi, esp
  00028	e8 00 00 00 00	 call	 __RTC_CheckEsp
  0002d	99		 cdq
  0002e	b9 64 00 00 00	 mov	 ecx, 100		; 00000064H
  00033	f7 f9		 idiv	 ecx
  00035	89 55 ec	 mov	 DWORD PTR _j$[ebp], edx

; 283  : 	for( i = 0; i < MAX_RND2_TBL; i++ ){

  00038	c7 45 f8 00 00
	00 00		 mov	 DWORD PTR _i$[ebp], 0
  0003f	eb 09		 jmp	 SHORT $LN4@initRand2
$LN2@initRand2:
  00041	8b 45 f8	 mov	 eax, DWORD PTR _i$[ebp]
  00044	83 c0 01	 add	 eax, 1
  00047	89 45 f8	 mov	 DWORD PTR _i$[ebp], eax
$LN4@initRand2:
  0004a	83 7d f8 64	 cmp	 DWORD PTR _i$[ebp], 100	; 00000064H
  0004e	7d 25		 jge	 SHORT $LN1@initRand2

; 284  : 		randTbl[j] = i;

  00050	8b 45 ec	 mov	 eax, DWORD PTR _j$[ebp]
  00053	8b 4d f8	 mov	 ecx, DWORD PTR _i$[ebp]
  00056	89 0c 85 00 00
	00 00		 mov	 DWORD PTR ?randTbl@@3PAHA[eax*4], ecx

; 285  : 		j++;

  0005d	8b 45 ec	 mov	 eax, DWORD PTR _j$[ebp]
  00060	83 c0 01	 add	 eax, 1
  00063	89 45 ec	 mov	 DWORD PTR _j$[ebp], eax

; 286  : 		if( j >= MAX_RND2_TBL )

  00066	83 7d ec 64	 cmp	 DWORD PTR _j$[ebp], 100	; 00000064H
  0006a	7c 07		 jl	 SHORT $LN5@initRand2

; 287  : 			j = 0;

  0006c	c7 45 ec 00 00
	00 00		 mov	 DWORD PTR _j$[ebp], 0
$LN5@initRand2:

; 288  : 	}

  00073	eb cc		 jmp	 SHORT $LN2@initRand2
$LN1@initRand2:

; 289  : }

  00075	5f		 pop	 edi
  00076	5e		 pop	 esi
  00077	5b		 pop	 ebx
  00078	81 c4 d8 00 00
	00		 add	 esp, 216		; 000000d8H
  0007e	3b ec		 cmp	 ebp, esp
  00080	e8 00 00 00 00	 call	 __RTC_CheckEsp
  00085	8b e5		 mov	 esp, ebp
  00087	5d		 pop	 ebp
  00088	c3		 ret	 0
?initRand2@@YAXXZ ENDP					; initRand2
_TEXT	ENDS
; Function compile flags: /Odtp /RTCsu /ZI
; File c:\users\administrator\desktop\????? ??\????? ??\client source code\system\math2.cpp
;	COMDAT ?Rnd@@YAHHH@Z
_TEXT	SEGMENT
_rnd$ = -8						; size = 4
_min$ = 8						; size = 4
_max$ = 12						; size = 4
?Rnd@@YAHHH@Z PROC					; Rnd, COMDAT

; 270  : {

  00000	55		 push	 ebp
  00001	8b ec		 mov	 ebp, esp
  00003	81 ec cc 00 00
	00		 sub	 esp, 204		; 000000ccH
  00009	53		 push	 ebx
  0000a	56		 push	 esi
  0000b	57		 push	 edi
  0000c	8d bd 34 ff ff
	ff		 lea	 edi, DWORD PTR [ebp-204]
  00012	b9 33 00 00 00	 mov	 ecx, 51			; 00000033H
  00017	b8 cc cc cc cc	 mov	 eax, -858993460		; ccccccccH
  0001c	f3 ab		 rep stosd

; 271  : 	int rnd;
; 272  : 	if( ( max + 1 - min ) + min == 0 ) return 0;

  0001e	8b 45 0c	 mov	 eax, DWORD PTR _max$[ebp]
  00021	83 c0 01	 add	 eax, 1
  00024	85 c0		 test	 eax, eax
  00026	75 04		 jne	 SHORT $LN2@Rnd
  00028	33 c0		 xor	 eax, eax
  0002a	eb 24		 jmp	 SHORT $LN1@Rnd
$LN2@Rnd:

; 273  : 	rnd = rand() % ( max + 1 - min ) + min;

  0002c	8b f4		 mov	 esi, esp
  0002e	ff 15 00 00 00
	00		 call	 DWORD PTR __imp__rand
  00034	3b f4		 cmp	 esi, esp
  00036	e8 00 00 00 00	 call	 __RTC_CheckEsp
  0003b	8b 4d 0c	 mov	 ecx, DWORD PTR _max$[ebp]
  0003e	83 c1 01	 add	 ecx, 1
  00041	2b 4d 08	 sub	 ecx, DWORD PTR _min$[ebp]
  00044	99		 cdq
  00045	f7 f9		 idiv	 ecx
  00047	03 55 08	 add	 edx, DWORD PTR _min$[ebp]
  0004a	89 55 f8	 mov	 DWORD PTR _rnd$[ebp], edx

; 274  : 
; 275  : 	return rnd;

  0004d	8b 45 f8	 mov	 eax, DWORD PTR _rnd$[ebp]
$LN1@Rnd:

; 276  : }

  00050	5f		 pop	 edi
  00051	5e		 pop	 esi
  00052	5b		 pop	 ebx
  00053	81 c4 cc 00 00
	00		 add	 esp, 204		; 000000ccH
  00059	3b ec		 cmp	 ebp, esp
  0005b	e8 00 00 00 00	 call	 __RTC_CheckEsp
  00060	8b e5		 mov	 esp, ebp
  00062	5d		 pop	 ebp
  00063	c3		 ret	 0
?Rnd@@YAHHH@Z ENDP					; Rnd
_TEXT	ENDS
; Function compile flags: /Odtp /RTCsu /ZI
; File c:\users\administrator\desktop\????? ??\????? ??\client source code\system\math2.cpp
;	COMDAT ?Atan@@YAMMM@Z
_TEXT	SEGMENT
tv137 = -316						; size = 4
_ratio$ = -116						; size = 4
_a2$ = -104						; size = 4
_a1$ = -92						; size = 4
_index2$ = -80						; size = 4
_index1$ = -68						; size = 4
_w$ = -56						; size = 4
_v$ = -44						; size = 4
_r$ = -32						; size = 4
_a$ = -20						; size = 4
_c$ = -8						; size = 4
_x$ = 8							; size = 4
_y$ = 12						; size = 4
?Atan@@YAMMM@Z PROC					; Atan, COMDAT

; 189  : {

  00000	55		 push	 ebp
  00001	8b ec		 mov	 ebp, esp
  00003	81 ec 3c 01 00
	00		 sub	 esp, 316		; 0000013cH
  00009	53		 push	 ebx
  0000a	56		 push	 esi
  0000b	57		 push	 edi
  0000c	8d bd c4 fe ff
	ff		 lea	 edi, DWORD PTR [ebp-316]
  00012	b9 4f 00 00 00	 mov	 ecx, 79			; 0000004fH
  00017	b8 cc cc cc cc	 mov	 eax, -858993460		; ccccccccH
  0001c	f3 ab		 rep stosd

; 190  : 	int		c = 0;

  0001e	c7 45 f8 00 00
	00 00		 mov	 DWORD PTR _c$[ebp], 0

; 191  : 	float	a;
; 192  : 	float	r = 0;

  00025	0f 57 c0	 xorps	 xmm0, xmm0
  00028	f3 0f 11 45 e0	 movss	 DWORD PTR _r$[ebp], xmm0

; 193  : 	float	v, w;
; 194  : 	int		index1, index2;
; 195  : 	float	a1, a2;
; 196  : 	float	ratio;
; 197  : 
; 198  : 
; 199  : 	if (0.0 == x && 0.0 == y) {

  0002d	f3 0f 5a 45 08	 cvtss2sd xmm0, DWORD PTR _x$[ebp]
  00032	0f 57 c9	 xorps	 xmm1, xmm1
  00035	66 0f 2e c8	 ucomisd xmm1, xmm0
  00039	9f		 lahf
  0003a	f6 c4 44	 test	 ah, 68			; 00000044H
  0003d	7a 19		 jp	 SHORT $LN4@Atan
  0003f	f3 0f 5a 45 0c	 cvtss2sd xmm0, DWORD PTR _y$[ebp]
  00044	0f 57 c9	 xorps	 xmm1, xmm1
  00047	66 0f 2e c8	 ucomisd xmm1, xmm0
  0004b	9f		 lahf
  0004c	f6 c4 44	 test	 ah, 68			; 00000044H
  0004f	7a 07		 jp	 SHORT $LN4@Atan

; 200  : 		return 0.0;

  00051	d9 ee		 fldz
  00053	e9 41 02 00 00	 jmp	 $LN1@Atan
$LN4@Atan:

; 201  : 	}
; 202  : 
; 203  : 	if ( x < 0 ) {

  00058	0f 57 c0	 xorps	 xmm0, xmm0
  0005b	0f 2f 45 08	 comiss	 xmm0, DWORD PTR _x$[ebp]
  0005f	76 1c		 jbe	 SHORT $LN5@Atan

; 204  : 		c += 1;

  00061	8b 45 f8	 mov	 eax, DWORD PTR _c$[ebp]
  00064	83 c0 01	 add	 eax, 1
  00067	89 45 f8	 mov	 DWORD PTR _c$[ebp], eax

; 205  : 		v = -x;

  0006a	f3 0f 10 45 08	 movss	 xmm0, DWORD PTR _x$[ebp]
  0006f	0f 57 05 00 00
	00 00		 xorps	 xmm0, DWORD PTR __xmm@80000000800000008000000080000000
  00076	f3 0f 11 45 d4	 movss	 DWORD PTR _v$[ebp], xmm0

; 206  : 	} else {

  0007b	eb 0a		 jmp	 SHORT $LN6@Atan
$LN5@Atan:

; 207  : 		v = x;

  0007d	f3 0f 10 45 08	 movss	 xmm0, DWORD PTR _x$[ebp]
  00082	f3 0f 11 45 d4	 movss	 DWORD PTR _v$[ebp], xmm0
$LN6@Atan:

; 208  : 	}
; 209  : 
; 210  : 	if ( y < 0 ) {

  00087	0f 57 c0	 xorps	 xmm0, xmm0
  0008a	0f 2f 45 0c	 comiss	 xmm0, DWORD PTR _y$[ebp]
  0008e	76 1c		 jbe	 SHORT $LN7@Atan

; 211  : 		c += 2;

  00090	8b 45 f8	 mov	 eax, DWORD PTR _c$[ebp]
  00093	83 c0 02	 add	 eax, 2
  00096	89 45 f8	 mov	 DWORD PTR _c$[ebp], eax

; 212  : 		w = -y;

  00099	f3 0f 10 45 0c	 movss	 xmm0, DWORD PTR _y$[ebp]
  0009e	0f 57 05 00 00
	00 00		 xorps	 xmm0, DWORD PTR __xmm@80000000800000008000000080000000
  000a5	f3 0f 11 45 c8	 movss	 DWORD PTR _w$[ebp], xmm0

; 213  : 	} else {

  000aa	eb 0a		 jmp	 SHORT $LN8@Atan
$LN7@Atan:

; 214  : 		w = y;

  000ac	f3 0f 10 45 0c	 movss	 xmm0, DWORD PTR _y$[ebp]
  000b1	f3 0f 11 45 c8	 movss	 DWORD PTR _w$[ebp], xmm0
$LN8@Atan:

; 215  : 	}
; 216  : 
; 217  : 	if ( v < w ) {

  000b6	f3 0f 10 45 c8	 movss	 xmm0, DWORD PTR _w$[ebp]
  000bb	0f 2f 45 d4	 comiss	 xmm0, DWORD PTR _v$[ebp]
  000bf	76 4d		 jbe	 SHORT $LN9@Atan

; 218  : 		c += 4;

  000c1	8b 45 f8	 mov	 eax, DWORD PTR _c$[ebp]
  000c4	83 c0 04	 add	 eax, 4
  000c7	89 45 f8	 mov	 DWORD PTR _c$[ebp], eax

; 219  : 		index1 = ( int )( v / w * ATAN_DIV );

  000ca	f3 0f 10 45 d4	 movss	 xmm0, DWORD PTR _v$[ebp]
  000cf	f3 0f 5e 45 c8	 divss	 xmm0, DWORD PTR _w$[ebp]
  000d4	f3 0f 59 05 00
	00 00 00	 mulss	 xmm0, DWORD PTR __real@42800000
  000dc	f3 0f 2c c0	 cvttss2si eax, xmm0
  000e0	89 45 bc	 mov	 DWORD PTR _index1$[ebp], eax

; 220  : 		index2 = index1 + 1;

  000e3	8b 45 bc	 mov	 eax, DWORD PTR _index1$[ebp]
  000e6	83 c0 01	 add	 eax, 1
  000e9	89 45 b0	 mov	 DWORD PTR _index2$[ebp], eax

; 221  : 		ratio = ( v / w * ATAN_DIV ) - ( float ) index1;

  000ec	f3 0f 10 45 d4	 movss	 xmm0, DWORD PTR _v$[ebp]
  000f1	f3 0f 5e 45 c8	 divss	 xmm0, DWORD PTR _w$[ebp]
  000f6	f3 0f 59 05 00
	00 00 00	 mulss	 xmm0, DWORD PTR __real@42800000
  000fe	f3 0f 2a 4d bc	 cvtsi2ss xmm1, DWORD PTR _index1$[ebp]
  00103	f3 0f 5c c1	 subss	 xmm0, xmm1
  00107	f3 0f 11 45 8c	 movss	 DWORD PTR _ratio$[ebp], xmm0

; 222  : 	} else {

  0010c	eb 42		 jmp	 SHORT $LN10@Atan
$LN9@Atan:

; 223  : 		index1 =  ( int )( w / v * ATAN_DIV );

  0010e	f3 0f 10 45 c8	 movss	 xmm0, DWORD PTR _w$[ebp]
  00113	f3 0f 5e 45 d4	 divss	 xmm0, DWORD PTR _v$[ebp]
  00118	f3 0f 59 05 00
	00 00 00	 mulss	 xmm0, DWORD PTR __real@42800000
  00120	f3 0f 2c c0	 cvttss2si eax, xmm0
  00124	89 45 bc	 mov	 DWORD PTR _index1$[ebp], eax

; 224  : 		index2 = index1 + 1;

  00127	8b 45 bc	 mov	 eax, DWORD PTR _index1$[ebp]
  0012a	83 c0 01	 add	 eax, 1
  0012d	89 45 b0	 mov	 DWORD PTR _index2$[ebp], eax

; 225  : 		ratio = ( w / v * ATAN_DIV ) - ( float ) index1;

  00130	f3 0f 10 45 c8	 movss	 xmm0, DWORD PTR _w$[ebp]
  00135	f3 0f 5e 45 d4	 divss	 xmm0, DWORD PTR _v$[ebp]
  0013a	f3 0f 59 05 00
	00 00 00	 mulss	 xmm0, DWORD PTR __real@42800000
  00142	f3 0f 2a 4d bc	 cvtsi2ss xmm1, DWORD PTR _index1$[ebp]
  00147	f3 0f 5c c1	 subss	 xmm0, xmm1
  0014b	f3 0f 11 45 8c	 movss	 DWORD PTR _ratio$[ebp], xmm0
$LN10@Atan:

; 226  : 	}
; 227  : 
; 228  : 	if ( index2 > ATAN_DIV ) index2 = ATAN_DIV;

  00150	83 7d b0 40	 cmp	 DWORD PTR _index2$[ebp], 64 ; 00000040H
  00154	7e 07		 jle	 SHORT $LN11@Atan
  00156	c7 45 b0 40 00
	00 00		 mov	 DWORD PTR _index2$[ebp], 64 ; 00000040H
$LN11@Atan:

; 229  : 	a1 = ( float )atan_table[ index1 ];

  0015d	8b 45 bc	 mov	 eax, DWORD PTR _index1$[ebp]
  00160	f2 0f 5a 04 c5
	00 00 00 00	 cvtsd2ss xmm0, QWORD PTR ?atan_table@@3PANA[eax*8]
  00169	f3 0f 11 45 a4	 movss	 DWORD PTR _a1$[ebp], xmm0

; 230  : 	a2 = ( float )atan_table[ index2 ];

  0016e	8b 45 b0	 mov	 eax, DWORD PTR _index2$[ebp]
  00171	f2 0f 5a 04 c5
	00 00 00 00	 cvtsd2ss xmm0, QWORD PTR ?atan_table@@3PANA[eax*8]
  0017a	f3 0f 11 45 98	 movss	 DWORD PTR _a2$[ebp], xmm0

; 231  : 	a = ( 1 - ratio ) * a1 + ratio * a2;

  0017f	f3 0f 10 05 00
	00 00 00	 movss	 xmm0, DWORD PTR __real@3f800000
  00187	f3 0f 5c 45 8c	 subss	 xmm0, DWORD PTR _ratio$[ebp]
  0018c	f3 0f 59 45 a4	 mulss	 xmm0, DWORD PTR _a1$[ebp]
  00191	f3 0f 10 4d 8c	 movss	 xmm1, DWORD PTR _ratio$[ebp]
  00196	f3 0f 59 4d 98	 mulss	 xmm1, DWORD PTR _a2$[ebp]
  0019b	f3 0f 58 c1	 addss	 xmm0, xmm1
  0019f	f3 0f 11 45 ec	 movss	 DWORD PTR _a$[ebp], xmm0

; 232  : 
; 233  : 	switch (c) {

  001a4	8b 45 f8	 mov	 eax, DWORD PTR _c$[ebp]
  001a7	89 85 c4 fe ff
	ff		 mov	 DWORD PTR tv137[ebp], eax
  001ad	83 bd c4 fe ff
	ff 07		 cmp	 DWORD PTR tv137[ebp], 7
  001b4	0f 87 a6 00 00
	00		 ja	 $LN2@Atan
  001ba	8b 8d c4 fe ff
	ff		 mov	 ecx, DWORD PTR tv137[ebp]
  001c0	ff 24 8d 00 00
	00 00		 jmp	 DWORD PTR $LN22@Atan[ecx*4]
$LN12@Atan:

; 234  : 	  case 0:
; 235  : 		r = a;

  001c7	f3 0f 10 45 ec	 movss	 xmm0, DWORD PTR _a$[ebp]
  001cc	f3 0f 11 45 e0	 movss	 DWORD PTR _r$[ebp], xmm0

; 236  : 		break;

  001d1	e9 8a 00 00 00	 jmp	 $LN2@Atan
$LN13@Atan:

; 237  : 	  case 1:
; 238  : 		r = 180.0f - a;

  001d6	f3 0f 10 05 00
	00 00 00	 movss	 xmm0, DWORD PTR __real@43340000
  001de	f3 0f 5c 45 ec	 subss	 xmm0, DWORD PTR _a$[ebp]
  001e3	f3 0f 11 45 e0	 movss	 DWORD PTR _r$[ebp], xmm0

; 239  : 		break;

  001e8	eb 76		 jmp	 SHORT $LN2@Atan
$LN14@Atan:

; 240  : 	  case 2:
; 241  : 		r = 360.0f - a;

  001ea	f3 0f 10 05 00
	00 00 00	 movss	 xmm0, DWORD PTR __real@43b40000
  001f2	f3 0f 5c 45 ec	 subss	 xmm0, DWORD PTR _a$[ebp]
  001f7	f3 0f 11 45 e0	 movss	 DWORD PTR _r$[ebp], xmm0

; 242  : 		break;

  001fc	eb 62		 jmp	 SHORT $LN2@Atan
$LN15@Atan:

; 243  : 	  case 3:
; 244  : 		r = 180.0f + a;

  001fe	f3 0f 10 05 00
	00 00 00	 movss	 xmm0, DWORD PTR __real@43340000
  00206	f3 0f 58 45 ec	 addss	 xmm0, DWORD PTR _a$[ebp]
  0020b	f3 0f 11 45 e0	 movss	 DWORD PTR _r$[ebp], xmm0

; 245  : 		break;

  00210	eb 4e		 jmp	 SHORT $LN2@Atan
$LN16@Atan:

; 246  : 	  case 4:
; 247  : 		r = 90.0f - a;

  00212	f3 0f 10 05 00
	00 00 00	 movss	 xmm0, DWORD PTR __real@42b40000
  0021a	f3 0f 5c 45 ec	 subss	 xmm0, DWORD PTR _a$[ebp]
  0021f	f3 0f 11 45 e0	 movss	 DWORD PTR _r$[ebp], xmm0

; 248  : 		break;

  00224	eb 3a		 jmp	 SHORT $LN2@Atan
$LN17@Atan:

; 249  : 	  case 5:
; 250  : 		r = 90.0f + a;

  00226	f3 0f 10 05 00
	00 00 00	 movss	 xmm0, DWORD PTR __real@42b40000
  0022e	f3 0f 58 45 ec	 addss	 xmm0, DWORD PTR _a$[ebp]
  00233	f3 0f 11 45 e0	 movss	 DWORD PTR _r$[ebp], xmm0

; 251  : 		break;

  00238	eb 26		 jmp	 SHORT $LN2@Atan
$LN18@Atan:

; 252  : 	  case 6:
; 253  : 		r = 270.0f + a;

  0023a	f3 0f 10 05 00
	00 00 00	 movss	 xmm0, DWORD PTR __real@43870000
  00242	f3 0f 58 45 ec	 addss	 xmm0, DWORD PTR _a$[ebp]
  00247	f3 0f 11 45 e0	 movss	 DWORD PTR _r$[ebp], xmm0

; 254  : 		break;

  0024c	eb 12		 jmp	 SHORT $LN2@Atan
$LN19@Atan:

; 255  : 	  case 7:
; 256  : 		r = 270.0f - a;

  0024e	f3 0f 10 05 00
	00 00 00	 movss	 xmm0, DWORD PTR __real@43870000
  00256	f3 0f 5c 45 ec	 subss	 xmm0, DWORD PTR _a$[ebp]
  0025b	f3 0f 11 45 e0	 movss	 DWORD PTR _r$[ebp], xmm0
$LN2@Atan:

; 257  : 		break;
; 258  : 	}
; 259  : 
; 260  : 	// StoneAge?
; 261  : 	r -= 135;

  00260	f3 0f 10 45 e0	 movss	 xmm0, DWORD PTR _r$[ebp]
  00265	f3 0f 5c 05 00
	00 00 00	 subss	 xmm0, DWORD PTR __real@43070000
  0026d	f3 0f 11 45 e0	 movss	 DWORD PTR _r$[ebp], xmm0

; 262  : 	if (r < 0.0) r += 360.0;

  00272	f3 0f 5a 45 e0	 cvtss2sd xmm0, DWORD PTR _r$[ebp]
  00277	0f 57 c9	 xorps	 xmm1, xmm1
  0027a	66 0f 2f c8	 comisd	 xmm1, xmm0
  0027e	76 16		 jbe	 SHORT $LN20@Atan
  00280	f3 0f 5a 45 e0	 cvtss2sd xmm0, DWORD PTR _r$[ebp]
  00285	f2 0f 58 05 00
	00 00 00	 addsd	 xmm0, QWORD PTR __real@4076800000000000
  0028d	f2 0f 5a c0	 cvtsd2ss xmm0, xmm0
  00291	f3 0f 11 45 e0	 movss	 DWORD PTR _r$[ebp], xmm0
$LN20@Atan:

; 263  : 	/////////////
; 264  : 
; 265  : 	return r;

  00296	d9 45 e0	 fld	 DWORD PTR _r$[ebp]
$LN1@Atan:

; 266  : }

  00299	5f		 pop	 edi
  0029a	5e		 pop	 esi
  0029b	5b		 pop	 ebx
  0029c	8b e5		 mov	 esp, ebp
  0029e	5d		 pop	 ebp
  0029f	c3		 ret	 0
$LN22@Atan:
  002a0	00 00 00 00	 DD	 $LN12@Atan
  002a4	00 00 00 00	 DD	 $LN13@Atan
  002a8	00 00 00 00	 DD	 $LN14@Atan
  002ac	00 00 00 00	 DD	 $LN15@Atan
  002b0	00 00 00 00	 DD	 $LN16@Atan
  002b4	00 00 00 00	 DD	 $LN17@Atan
  002b8	00 00 00 00	 DD	 $LN18@Atan
  002bc	00 00 00 00	 DD	 $LN19@Atan
?Atan@@YAMMM@Z ENDP					; Atan
_TEXT	ENDS
; Function compile flags: /Odtp /RTCsu /ZI
; File c:\users\administrator\desktop\????? ??\????? ??\client source code\system\math2.cpp
;	COMDAT ?CosT@@YAMM@Z
_TEXT	SEGMENT
_ans$ = -8						; size = 4
_theat$ = 8						; size = 4
?CosT@@YAMM@Z PROC					; CosT, COMDAT

; 179  : {

  00000	55		 push	 ebp
  00001	8b ec		 mov	 ebp, esp
  00003	81 ec cc 00 00
	00		 sub	 esp, 204		; 000000ccH
  00009	53		 push	 ebx
  0000a	56		 push	 esi
  0000b	57		 push	 edi
  0000c	8d bd 34 ff ff
	ff		 lea	 edi, DWORD PTR [ebp-204]
  00012	b9 33 00 00 00	 mov	 ecx, 51			; 00000033H
  00017	b8 cc cc cc cc	 mov	 eax, -858993460		; ccccccccH
  0001c	f3 ab		 rep stosd

; 180  : 	float ans;
; 181  : 	
; 182  : 	ans = SinT( theat + 90.0f );

  0001e	f3 0f 10 45 08	 movss	 xmm0, DWORD PTR _theat$[ebp]
  00023	f3 0f 58 05 00
	00 00 00	 addss	 xmm0, DWORD PTR __real@42b40000
  0002b	51		 push	 ecx
  0002c	f3 0f 11 04 24	 movss	 DWORD PTR [esp], xmm0
  00031	e8 00 00 00 00	 call	 ?SinT@@YAMM@Z		; SinT
  00036	83 c4 04	 add	 esp, 4
  00039	d9 5d f8	 fstp	 DWORD PTR _ans$[ebp]

; 183  : 	
; 184  : 	return ans;

  0003c	d9 45 f8	 fld	 DWORD PTR _ans$[ebp]

; 185  : }

  0003f	5f		 pop	 edi
  00040	5e		 pop	 esi
  00041	5b		 pop	 ebx
  00042	81 c4 cc 00 00
	00		 add	 esp, 204		; 000000ccH
  00048	3b ec		 cmp	 ebp, esp
  0004a	e8 00 00 00 00	 call	 __RTC_CheckEsp
  0004f	8b e5		 mov	 esp, ebp
  00051	5d		 pop	 ebp
  00052	c3		 ret	 0
?CosT@@YAMM@Z ENDP					; CosT
_TEXT	ENDS
; Function compile flags: /Odtp /RTCsu /ZI
; File c:\users\administrator\desktop\????? ??\????? ??\client source code\system\math2.cpp
;	COMDAT ?SinT@@YAMM@Z
_TEXT	SEGMENT
_ans$ = -8						; size = 4
_theat$ = 8						; size = 4
?SinT@@YAMM@Z PROC					; SinT, COMDAT

; 166  : {

  00000	55		 push	 ebp
  00001	8b ec		 mov	 ebp, esp
  00003	81 ec cc 00 00
	00		 sub	 esp, 204		; 000000ccH
  00009	53		 push	 ebx
  0000a	56		 push	 esi
  0000b	57		 push	 edi
  0000c	8d bd 34 ff ff
	ff		 lea	 edi, DWORD PTR [ebp-204]
  00012	b9 33 00 00 00	 mov	 ecx, 51			; 00000033H
  00017	b8 cc cc cc cc	 mov	 eax, -858993460		; ccccccccH
  0001c	f3 ab		 rep stosd

; 167  : 	float ans;
; 168  : 	
; 169  : 	/* ?¥Tü¦þÕ */
; 170  : 	AdjustDir( &theat );

  0001e	8d 45 08	 lea	 eax, DWORD PTR _theat$[ebp]
  00021	50		 push	 eax
  00022	e8 00 00 00 00	 call	 ?AdjustDir@@YAXPAM@Z	; AdjustDir
  00027	83 c4 04	 add	 esp, 4

; 171  : 	/* ??????ûè???? */
; 172  : 	ans = ( float )SinTbl[ (int)theat ];

  0002a	f3 0f 2c 45 08	 cvttss2si eax, DWORD PTR _theat$[ebp]
  0002f	f2 0f 5a 04 c5
	00 00 00 00	 cvtsd2ss xmm0, QWORD PTR ?SinTbl@@3PANA[eax*8]
  00038	f3 0f 11 45 f8	 movss	 DWORD PTR _ans$[ebp], xmm0

; 173  : 	
; 174  : 	return ans;

  0003d	d9 45 f8	 fld	 DWORD PTR _ans$[ebp]

; 175  : }

  00040	5f		 pop	 edi
  00041	5e		 pop	 esi
  00042	5b		 pop	 ebx
  00043	81 c4 cc 00 00
	00		 add	 esp, 204		; 000000ccH
  00049	3b ec		 cmp	 ebp, esp
  0004b	e8 00 00 00 00	 call	 __RTC_CheckEsp
  00050	8b e5		 mov	 esp, ebp
  00052	5d		 pop	 ebp
  00053	c3		 ret	 0
?SinT@@YAMM@Z ENDP					; SinT
_TEXT	ENDS
; Function compile flags: /Odtp /RTCsu /ZI
; File c:\users\administrator\desktop\????? ??\????? ??\client source code\system\math2.cpp
;	COMDAT ?AdjustDir@@YAXPAH@Z
_TEXT	SEGMENT
_dir$ = 8						; size = 4
?AdjustDir@@YAXPAH@Z PROC				; AdjustDir, COMDAT

; 153  : {

  00000	55		 push	 ebp
  00001	8b ec		 mov	 ebp, esp
  00003	81 ec c0 00 00
	00		 sub	 esp, 192		; 000000c0H
  00009	53		 push	 ebx
  0000a	56		 push	 esi
  0000b	57		 push	 edi
  0000c	8d bd 40 ff ff
	ff		 lea	 edi, DWORD PTR [ebp-192]
  00012	b9 30 00 00 00	 mov	 ecx, 48			; 00000030H
  00017	b8 cc cc cc cc	 mov	 eax, -858993460		; ccccccccH
  0001c	f3 ab		 rep stosd

; 154  : 	if( *dir >= 360 ){

  0001e	8b 45 08	 mov	 eax, DWORD PTR _dir$[ebp]
  00021	81 38 68 01 00
	00		 cmp	 DWORD PTR [eax], 360	; 00000168H
  00027	7c 1e		 jl	 SHORT $LN2@AdjustDir

; 155  : 		*dir -= 360;

  00029	8b 45 08	 mov	 eax, DWORD PTR _dir$[ebp]
  0002c	8b 08		 mov	 ecx, DWORD PTR [eax]
  0002e	81 e9 68 01 00
	00		 sub	 ecx, 360		; 00000168H
  00034	8b 55 08	 mov	 edx, DWORD PTR _dir$[ebp]
  00037	89 0a		 mov	 DWORD PTR [edx], ecx

; 156  : 		AdjustDir(dir);

  00039	8b 45 08	 mov	 eax, DWORD PTR _dir$[ebp]
  0003c	50		 push	 eax
  0003d	e8 00 00 00 00	 call	 ?AdjustDir@@YAXPAH@Z	; AdjustDir
  00042	83 c4 04	 add	 esp, 4

; 157  : 	}else 

  00045	eb 24		 jmp	 SHORT $LN1@AdjustDir
$LN2@AdjustDir:

; 158  : 	if ( *dir < 0 ){

  00047	8b 45 08	 mov	 eax, DWORD PTR _dir$[ebp]
  0004a	83 38 00	 cmp	 DWORD PTR [eax], 0
  0004d	7d 1c		 jge	 SHORT $LN1@AdjustDir

; 159  : 		*dir += 360;

  0004f	8b 45 08	 mov	 eax, DWORD PTR _dir$[ebp]
  00052	8b 08		 mov	 ecx, DWORD PTR [eax]
  00054	81 c1 68 01 00
	00		 add	 ecx, 360		; 00000168H
  0005a	8b 55 08	 mov	 edx, DWORD PTR _dir$[ebp]
  0005d	89 0a		 mov	 DWORD PTR [edx], ecx

; 160  : 		AdjustDir(dir);

  0005f	8b 45 08	 mov	 eax, DWORD PTR _dir$[ebp]
  00062	50		 push	 eax
  00063	e8 00 00 00 00	 call	 ?AdjustDir@@YAXPAH@Z	; AdjustDir
  00068	83 c4 04	 add	 esp, 4
$LN1@AdjustDir:

; 161  : 	}
; 162  : }

  0006b	5f		 pop	 edi
  0006c	5e		 pop	 esi
  0006d	5b		 pop	 ebx
  0006e	81 c4 c0 00 00
	00		 add	 esp, 192		; 000000c0H
  00074	3b ec		 cmp	 ebp, esp
  00076	e8 00 00 00 00	 call	 __RTC_CheckEsp
  0007b	8b e5		 mov	 esp, ebp
  0007d	5d		 pop	 ebp
  0007e	c3		 ret	 0
?AdjustDir@@YAXPAH@Z ENDP				; AdjustDir
_TEXT	ENDS
; Function compile flags: /Odtp /RTCsu /ZI
; File c:\users\administrator\desktop\????? ??\????? ??\client source code\system\math2.cpp
;	COMDAT ?AdjustDir@@YAXPAM@Z
_TEXT	SEGMENT
_dir$ = 8						; size = 4
?AdjustDir@@YAXPAM@Z PROC				; AdjustDir, COMDAT

; 141  : {

  00000	55		 push	 ebp
  00001	8b ec		 mov	 ebp, esp
  00003	81 ec c0 00 00
	00		 sub	 esp, 192		; 000000c0H
  00009	53		 push	 ebx
  0000a	56		 push	 esi
  0000b	57		 push	 edi
  0000c	8d bd 40 ff ff
	ff		 lea	 edi, DWORD PTR [ebp-192]
  00012	b9 30 00 00 00	 mov	 ecx, 48			; 00000030H
  00017	b8 cc cc cc cc	 mov	 eax, -858993460		; ccccccccH
  0001c	f3 ab		 rep stosd

; 142  : 	if( *dir >= 360.0 ){

  0001e	8b 45 08	 mov	 eax, DWORD PTR _dir$[ebp]
  00021	f3 0f 5a 00	 cvtss2sd xmm0, DWORD PTR [eax]
  00025	66 0f 2f 05 00
	00 00 00	 comisd	 xmm0, QWORD PTR __real@4076800000000000
  0002d	72 24		 jb	 SHORT $LN2@AdjustDir

; 143  : 		*dir -= 360.0F;

  0002f	8b 45 08	 mov	 eax, DWORD PTR _dir$[ebp]
  00032	f3 0f 10 00	 movss	 xmm0, DWORD PTR [eax]
  00036	f3 0f 5c 05 00
	00 00 00	 subss	 xmm0, DWORD PTR __real@43b40000
  0003e	8b 4d 08	 mov	 ecx, DWORD PTR _dir$[ebp]
  00041	f3 0f 11 01	 movss	 DWORD PTR [ecx], xmm0

; 144  : 		AdjustDir(dir);

  00045	8b 45 08	 mov	 eax, DWORD PTR _dir$[ebp]
  00048	50		 push	 eax
  00049	e8 00 00 00 00	 call	 ?AdjustDir@@YAXPAM@Z	; AdjustDir
  0004e	83 c4 04	 add	 esp, 4

; 145  : 	}else 

  00051	eb 32		 jmp	 SHORT $LN4@AdjustDir
$LN2@AdjustDir:

; 146  : 	if ( *dir < 0.0 ){

  00053	8b 45 08	 mov	 eax, DWORD PTR _dir$[ebp]
  00056	f3 0f 5a 00	 cvtss2sd xmm0, DWORD PTR [eax]
  0005a	0f 57 c9	 xorps	 xmm1, xmm1
  0005d	66 0f 2f c8	 comisd	 xmm1, xmm0
  00061	76 22		 jbe	 SHORT $LN4@AdjustDir

; 147  : 		*dir += 360.0F;

  00063	8b 45 08	 mov	 eax, DWORD PTR _dir$[ebp]
  00066	f3 0f 10 00	 movss	 xmm0, DWORD PTR [eax]
  0006a	f3 0f 58 05 00
	00 00 00	 addss	 xmm0, DWORD PTR __real@43b40000
  00072	8b 4d 08	 mov	 ecx, DWORD PTR _dir$[ebp]
  00075	f3 0f 11 01	 movss	 DWORD PTR [ecx], xmm0

; 148  : 		AdjustDir(dir);

  00079	8b 45 08	 mov	 eax, DWORD PTR _dir$[ebp]
  0007c	50		 push	 eax
  0007d	e8 00 00 00 00	 call	 ?AdjustDir@@YAXPAM@Z	; AdjustDir
  00082	83 c4 04	 add	 esp, 4
$LN4@AdjustDir:

; 149  : 	}
; 150  : }

  00085	5f		 pop	 edi
  00086	5e		 pop	 esi
  00087	5b		 pop	 ebx
  00088	81 c4 c0 00 00
	00		 add	 esp, 192		; 000000c0H
  0008e	3b ec		 cmp	 ebp, esp
  00090	e8 00 00 00 00	 call	 __RTC_CheckEsp
  00095	8b e5		 mov	 esp, ebp
  00097	5d		 pop	 ebp
  00098	c3		 ret	 0
?AdjustDir@@YAXPAM@Z ENDP				; AdjustDir
_TEXT	ENDS
END
