; Listing generated by Microsoft (R) Optimizing Compiler Version 19.00.24215.1 

	TITLE	C:\Users\Administrator\Desktop\????? ??\????? ??\Client Source Code\system\menu.cpp
	.686P
	.XMM
	include listing.inc
	.model	flat

INCLUDELIB MSVCRTD
INCLUDELIB OLDNAMES

PUBLIC	?繁体开关@@3HA					; 繁体开关
PUBLIC	?人物屏蔽开关@@3HA				; 人物屏蔽开关
PUBLIC	?状态显示开关@@3HA				; 状态显示开关
PUBLIC	?原地遇敌@@3HA					; 原地遇敌
PUBLIC	?DropPetWndflag@@3_NA				; DropPetWndflag
PUBLIC	?DropI@@3FA					; DropI
PUBLIC	?ChangePetName@@3_NA				; ChangePetName
PUBLIC	?ChangePetI@@3FA				; ChangePetI
PUBLIC	?ChangeMyName@@3_NA				; ChangeMyName
PUBLIC	?UpDownflag@@3HA				; UpDownflag
PUBLIC	?systemWndNo@@3IA				; systemWndNo
PUBLIC	?talkmsg@@3PAY0BAA@DA				; talkmsg
PUBLIC	?talkwndx@@3HA					; talkwndx
PUBLIC	?talkwndy@@3HA					; talkwndy
PUBLIC	?talkwndflag@@3_NA				; talkwndflag
PUBLIC	?tradetalkwndflag@@3_NA				; tradetalkwndflag
PUBLIC	?Moneyflag@@3_NA				; Moneyflag
PUBLIC	?Tradeflag@@3_NA				; Tradeflag
PUBLIC	?TradeBtnflag@@3_NA				; TradeBtnflag
PUBLIC	?mapWndFontNo@@3PAHA				; mapWndFontNo
PUBLIC	?showindex@@3PAHA				; showindex
PUBLIC	?itemflag@@3PAHA				; itemflag
PUBLIC	?MainTradeWndflag@@3_NA				; MainTradeWndflag
PUBLIC	?SecondTradeWndflag@@3_NA			; SecondTradeWndflag
PUBLIC	?SecondTradeWnd@@3PAUaction@@A			; SecondTradeWnd
PUBLIC	?TradeTalkWnd@@3PAUaction@@A			; TradeTalkWnd
PUBLIC	?ShowPetNum@@3HA				; ShowPetNum
PUBLIC	?mytradelist@@3PAHA				; mytradelist
PUBLIC	?opptradelist@@3PAHA				; opptradelist
PUBLIC	?drag1Y@@3HA					; drag1Y
PUBLIC	?drag2Y@@3HA					; drag2Y
PUBLIC	?tmpdrag1Y@@3HA					; tmpdrag1Y
PUBLIC	?tmpdrag2Y@@3HA					; tmpdrag2Y
PUBLIC	?dragflag1@@3_NA				; dragflag1
PUBLIC	?dragflag2@@3_NA				; dragflag2
PUBLIC	?locknum@@3HA					; locknum
PUBLIC	?locknum2@@3HA					; locknum2
PUBLIC	?MultiTells@@3HA				; MultiTells
PUBLIC	?pActMsgWnd@@3PAUaction@@A			; pActMsgWnd
PUBLIC	?CharNum@@3HA					; CharNum
PUBLIC	?TellInfo@@3PAY0IA@DA				; TellInfo
PUBLIC	?name@@3PAY0CA@DA				; name
PUBLIC	?index@@3PAHA					; index
PUBLIC	?reSendMsg@@3PADA				; reSendMsg
PUBLIC	?chatInfo@@3UCHATINFO@@A			; chatInfo
PUBLIC	?BtnType@@3_NA					; BtnType
PUBLIC	?assentFlag@@3_NA				; assentFlag
PUBLIC	?scrollFlag@@3_NA				; scrollFlag
PUBLIC	?roomInfo@@3PAY0EA@DA				; roomInfo
PUBLIC	?memInfo@@3PADA					; memInfo
PUBLIC	?scrlBtnIndex@@3HA				; scrlBtnIndex
PUBLIC	?BtnNo@@3HA					; BtnNo
PUBLIC	?firMemNo@@3HA					; firMemNo
PUBLIC	?closeBtn@@3HA					; closeBtn
PUBLIC	?leaveBtn@@3HA					; leaveBtn
PUBLIC	?delBtn@@3HA					; delBtn
PUBLIC	?chaBtn@@3HA					; chaBtn
PUBLIC	?outBtn@@3HA					; outBtn
PUBLIC	?scrlHBtn@@3HA					; scrlHBtn
PUBLIC	?scrlLBtn@@3HA					; scrlLBtn
PUBLIC	?roomIndex@@3PAHA				; roomIndex
PUBLIC	?roomNum@@3HA					; roomNum
PUBLIC	?memIndex@@3HA					; memIndex
PUBLIC	?pAssentWnd@@3PAUaction@@A			; pAssentWnd
PUBLIC	?mixPetNo@@3HA					; mixPetNo
PUBLIC	?SelectWazaNo@@3HA				; SelectWazaNo
PUBLIC	?itemWndMaxBag@@3HA				; itemWndMaxBag
PUBLIC	?itemWndBagOffset@@3HA				; itemWndBagOffset
PUBLIC	?nPetItemEquipBmpNumber@@3PAY01HA		; nPetItemEquipBmpNumber
PUBLIC	?TransmigrationStr@@3PAPADA			; TransmigrationStr
PUBLIC	??_C@_00CNPNBAHC@?$AA@				; `string'
PUBLIC	??_C@_02DLMIBHNO@?$KF?$LA?$AA@			; `string'
PUBLIC	??_C@_02CCNDCGJP@?$KF?$LB?$AA@			; `string'
PUBLIC	??_C@_02JPOHFFM@?$KF?$LC?$AA@			; `string'
PUBLIC	??_C@_02BAOFEEBN@?$KF?$LD?$AA@			; `string'
PUBLIC	??_C@_02FPKENCNK@?$KF?$LE?$AA@			; `string'
PUBLIC	??_C@_02EGLPODJL@?$KF?$LF?$AA@			; `string'
PUBLIC	??_C@_02GNJCLAFI@?$KF?$LG?$AA@			; `string'
PUBLIC	?pActLetter@@3PAPAUaction@@A			; pActLetter
PUBLIC	?pActMailItem@@3PAUaction@@A			; pActMailItem
PUBLIC	?PetAlbumTbl@@3PAUPET_ALBUM_TBL@@A		; PetAlbumTbl
PUBLIC	?PetAlbum@@3PAUPET_ALBUM@@A			; PetAlbum
PUBLIC	?AlbumIdCnt@@3HA				; AlbumIdCnt
PUBLIC	?IdEncryptionTbl@@3PAHA				; IdEncryptionTbl
PUBLIC	?resultWndFontNo@@3PAHA				; resultWndFontNo
PUBLIC	?bShowItemExplain@@3HA				; bShowItemExplain
PUBLIC	?CharDetail@@3PAY0BA@DA				; CharDetail
PUBLIC	?DetailDesc@@3PAY0EA@DA				; DetailDesc
PUBLIC	?DetailDesc1@@3PAY0EA@DA			; DetailDesc1
PUBLIC	?DetailDesc2@@3PAY0EA@DA			; DetailDesc2
PUBLIC	?iCharAlchePlus@@3PAHA				; iCharAlchePlus
PUBLIC	?sAlchePlus_list@@3PAY0BA@DA			; sAlchePlus_list
PUBLIC	?iAlchePlusIcon@@3PAHA				; iAlchePlusIcon
PUBLIC	?pActMenuWnd@@3PAUaction@@A			; pActMenuWnd
PUBLIC	?pActMenuWnd2@@3PAUaction@@A			; pActMenuWnd2
PUBLIC	?pActMenuWnd4@@3PAUaction@@A			; pActMenuWnd4
PUBLIC	?pActYesNoWnd@@3PAUaction@@A			; pActYesNoWnd
PUBLIC	?pActMenuWnd5@@3PAUaction@@A			; pActMenuWnd5
PUBLIC	?pActMenu皮肤@@3PAUaction@@A			; pActMenu皮肤
PUBLIC	?pActMenu称号@@3PAUaction@@A			; pActMenu称号
PUBLIC	?pActMenu光环@@3PAUaction@@A			; pActMenu光环
PUBLIC	?pActMenu人物@@3PAUaction@@A			; pActMenu人物
PUBLIC	??_C@_0BK@CGBENDMD@?5?5?5?5?5?5?5?$LI?p?5?5?5?5?5?5?5?$LD?k?5?5?5?5?5?5?5?$AA@ ; `string'
PUBLIC	??_C@_0BJ@DHKPLCBK@?5?5?5?5?5?5?$LN?$LK?5?E?W?5?$LH?$LJ?5?$LP?$MA?5?5?5?5?5?5?5?$AA@ ; `string'
PUBLIC	??_C@_0BD@PHEKGFNN@?5?5?5?5?5?H?$LI?5?5?5?5?$LL?v?5?5?5?5?5?$AA@ ; `string'
PUBLIC	??_C@_0BD@JHCIAJMC@?5?5?5?5?5?$LA?x?5?$LH?f?5?$LO?K?5?5?5?5?5?$AA@ ; `string'
PUBLIC	?WINDOW_CREATE_FRAME@@3HA			; WINDOW_CREATE_FRAME
PUBLIC	?byShowPetItemBackground@@3PAEA			; byShowPetItemBackground
PUBLIC	?charDetailPage@@3HA				; charDetailPage
PUBLIC	?SkillWndflag@@3_NA				; SkillWndflag
PUBLIC	?自动登陆窗口@@3HA				; 自动登陆窗口
PUBLIC	?SkillWnd@@3FA					; SkillWnd
PUBLIC	?p自动登陆窗口@@3PAUaction@@A			; p自动登陆窗口
PUBLIC	?职技关闭按钮句柄@@3HA				; 职技关闭按钮句柄
PUBLIC	?方向动作@@3PAUaction@@A			; 方向动作
PUBLIC	?职技选项按钮句柄@@3PAHA			; 职技选项按钮句柄
PUBLIC	?pActSkillMenuWnd@@3PAUaction@@A		; pActSkillMenuWnd
PUBLIC	?人物动作@@3PAUaction@@A			; 人物动作
PUBLIC	?TaskBarFlag@@3HA				; TaskBarFlag
PUBLIC	?MenuToggleFlag@@3IA				; MenuToggleFlag
PUBLIC	?ItemBuffer@@3PAUITEM_BUFFER@@A			; ItemBuffer
PUBLIC	?StatusUpPoint@@3HA				; StatusUpPoint
PUBLIC	?BattlePetReceiveFlag@@3HA			; BattlePetReceiveFlag
PUBLIC	?StandbyPetSendFlag@@3HA			; StandbyPetSendFlag
PUBLIC	?BattlePetReceivePetNo@@3HA			; BattlePetReceivePetNo
PUBLIC	?MailHistory@@3PAUMAIL_HISTORY@@A		; MailHistory
PUBLIC	?chatRegistryStr@@3PAUSTR_BUFFER@@A		; chatRegistryStr
PUBLIC	?MailStr@@3USTR_BUFFER@@A			; MailStr
PUBLIC	?pActMenuWnd3@@3PAUaction@@A			; pActMenuWnd3
PUBLIC	?shougouChange@@3USTR_BUFFER@@A			; shougouChange
PUBLIC	?MymoneyBuffer@@3USTR_BUFFER@@A			; MymoneyBuffer
PUBLIC	?TradeBuffer@@3USTR_BUFFER@@A			; TradeBuffer
PUBLIC	?petNameChange@@3USTR_BUFFER@@A			; petNameChange
PUBLIC	?petStatusNo@@3HA				; petStatusNo
PUBLIC	?mailHistoryWndPageNo@@3HA			; mailHistoryWndPageNo
PUBLIC	?mailHistoryWndSelectNo@@3HA			; mailHistoryWndSelectNo
PUBLIC	?MapWmdFlagBak@@3HA				; MapWmdFlagBak
PUBLIC	?ResultWndTimer@@3HA				; ResultWndTimer
PUBLIC	?ItemMixRecvFlag@@3HA				; ItemMixRecvFlag
PUBLIC	?MouseCursorFlag@@3HA				; MouseCursorFlag
PUBLIC	?TalkMode@@3HA					; TalkMode
PUBLIC	?secretName@@3PADA				; secretName
PUBLIC	?setRoomFlag@@3_NA				; setRoomFlag
PUBLIC	?secretFlag@@3_NA				; secretFlag
PUBLIC	?selChar@@3HA					; selChar
PUBLIC	?pChtChanlWnd@@3PAUaction@@A			; pChtChanlWnd
PUBLIC	?pSelChanlWnd@@3PAUaction@@A			; pSelChanlWnd
PUBLIC	?chatRoomName@@3USTR_BUFFER@@A			; chatRoomName
PUBLIC	?pSetRoomWnd@@3PAUaction@@A			; pSetRoomWnd
PUBLIC	?MAX_PET_TBL@@3HA				; MAX_PET_TBL
_BSS	SEGMENT
?繁体开关@@3HA DD 01H DUP (?)				; 繁体开关
?人物屏蔽开关@@3HA DD 01H DUP (?)			; 人物屏蔽开关
?状态显示开关@@3HA DD 01H DUP (?)			; 状态显示开关
?原地遇敌@@3HA DD 01H DUP (?)				; 原地遇敌
?DropPetWndflag@@3_NA DB 01H DUP (?)			; DropPetWndflag
	ALIGN	4

?ChangePetName@@3_NA DB 01H DUP (?)			; ChangePetName
	ALIGN	4

?ChangeMyName@@3_NA DB 01H DUP (?)			; ChangeMyName
	ALIGN	4

?UpDownflag@@3HA DD 01H DUP (?)				; UpDownflag
?systemWndNo@@3IA DD 01H DUP (?)			; systemWndNo
?talkmsg@@3PAY0BAA@DA DB 0400H DUP (?)			; talkmsg
?talkwndflag@@3_NA DB 01H DUP (?)			; talkwndflag
	ALIGN	4

?tradetalkwndflag@@3_NA DB 01H DUP (?)			; tradetalkwndflag
	ALIGN	4

?Moneyflag@@3_NA DB 01H DUP (?)				; Moneyflag
	ALIGN	4

?Tradeflag@@3_NA DB 01H DUP (?)				; Tradeflag
	ALIGN	4

?TradeBtnflag@@3_NA DB 01H DUP (?)			; TradeBtnflag
	ALIGN	4

?mapWndFontNo@@3PAHA DD 03H DUP (?)			; mapWndFontNo
?showindex@@3PAHA DD 07H DUP (?)			; showindex
?opp_name@@3PADA DB 080H DUP (?)			; opp_name
?itemflag@@3PAHA DD 0fH DUP (?)				; itemflag
?SecondTradeWndflag@@3_NA DB 01H DUP (?)		; SecondTradeWndflag
	ALIGN	4

?SecondTradeWnd@@3PAUaction@@A DD 01H DUP (?)		; SecondTradeWnd
?TradeTalkWnd@@3PAUaction@@A DD 01H DUP (?)		; TradeTalkWnd
?ShowPetNum@@3HA DD 01H DUP (?)				; ShowPetNum
?tmpdrag1Y@@3HA DD 01H DUP (?)				; tmpdrag1Y
?tmpdrag2Y@@3HA DD 01H DUP (?)				; tmpdrag2Y
?dragflag1@@3_NA DB 01H DUP (?)				; dragflag1
	ALIGN	4

?dragflag2@@3_NA DB 01H DUP (?)				; dragflag2
	ALIGN	4

?g_bPetItemWndFlag@@3_NA DB 01H DUP (?)			; g_bPetItemWndFlag
	ALIGN	4

?cashGold@@3HA DD 01H DUP (?)				; cashGold
?totalGold@@3HA DD 01H DUP (?)				; totalGold
?bankGoldInc@@3HA DD 01H DUP (?)			; bankGoldInc
?bankGoldCnt@@3HA DD 01H DUP (?)			; bankGoldCnt
?MultiTells@@3HA DD 01H DUP (?)				; MultiTells
?pActMsgWnd@@3PAUaction@@A DD 01H DUP (?)		; pActMsgWnd
?CharNum@@3HA DD 01H DUP (?)				; CharNum
?TellInfo@@3PAY0IA@DA DB 0500H DUP (?)			; TellInfo
?name@@3PAY0CA@DA DB 0140H DUP (?)			; name
?index@@3PAHA DD 0aH DUP (?)				; index
?reSendMsg@@3PADA DB 0104H DUP (?)			; reSendMsg
?chatInfo@@3UCHATINFO@@A DB 0ad4H DUP (?)		; chatInfo
?BtnType@@3_NA DB 01H DUP (?)				; BtnType
	ALIGN	4

?assentFlag@@3_NA DB 01H DUP (?)			; assentFlag
	ALIGN	4

?scrollFlag@@3_NA DB 01H DUP (?)			; scrollFlag
	ALIGN	4

?roomInfo@@3PAY0EA@DA DB 0c80H DUP (?)			; roomInfo
?memInfo@@3PADA DB 040H DUP (?)				; memInfo
?scrlBtnIndex@@3HA DD 01H DUP (?)			; scrlBtnIndex
?BtnNo@@3HA DD	01H DUP (?)				; BtnNo
?firMemNo@@3HA DD 01H DUP (?)				; firMemNo
?closeBtn@@3HA DD 01H DUP (?)				; closeBtn
?leaveBtn@@3HA DD 01H DUP (?)				; leaveBtn
?delBtn@@3HA DD	01H DUP (?)				; delBtn
?chaBtn@@3HA DD	01H DUP (?)				; chaBtn
?outBtn@@3HA DD	01H DUP (?)				; outBtn
?scrlHBtn@@3HA DD 01H DUP (?)				; scrlHBtn
?scrlLBtn@@3HA DD 01H DUP (?)				; scrlLBtn
?roomIndex@@3PAHA DD 032H DUP (?)			; roomIndex
?roomNum@@3HA DD 01H DUP (?)				; roomNum
?memIndex@@3HA DD 01H DUP (?)				; memIndex
?pAssentWnd@@3PAUaction@@A DD 01H DUP (?)		; pAssentWnd
?mixPetNo@@3HA DD 01H DUP (?)				; mixPetNo
?SelectWazaNo@@3HA DD 01H DUP (?)			; SelectWazaNo
?bViewPetEquip@?LNN@??MenuProc@@YAXXZ@4HA DD 01H DUP (?) ; `MenuProc'::`3037'::bViewPetEquip
?itemWndMaxBag@@3HA DD 01H DUP (?)			; itemWndMaxBag
?itemWndBagOffset@@3HA DD 01H DUP (?)			; itemWndBagOffset
?tradeWndDropGold@@3HA DD 01H DUP (?)			; tradeWndDropGold
?tradeWndDropGoldInc@@3HA DD 01H DUP (?)		; tradeWndDropGoldInc
?tradeWndDropGoldCnt@@3HA DD 01H DUP (?)		; tradeWndDropGoldCnt
?tradeWndDropGoldSend@@3HA DD 01H DUP (?)		; tradeWndDropGoldSend
?tradeWndDropGoldGet@@3HA DD 01H DUP (?)		; tradeWndDropGoldGet
?ItemUseTime@@3IA DD 01H DUP (?)			; ItemUseTime
?pActLetter@@3PAPAUaction@@A DD 04H DUP (?)		; pActLetter
?pActMailItem@@3PAUaction@@A DD 01H DUP (?)		; pActMailItem
?PetAlbum@@3PAUPET_ALBUM@@A DB 0b220H DUP (?)		; PetAlbum
?AlbumIdCnt@@3HA DD 01H DUP (?)				; AlbumIdCnt
?resultWndFontNo@@3PAHA DD 01H DUP (?)			; resultWndFontNo
?bShowItemExplain@@3HA DD 01H DUP (?)			; bShowItemExplain
?CharDetail@@3PAY0BA@DA DB 080H DUP (?)			; CharDetail
?iCharAlchePlus@@3PAHA DD 019H DUP (?)			; iCharAlchePlus
?pActMenuWnd@@3PAUaction@@A DD 01H DUP (?)		; pActMenuWnd
?pActMenuWnd2@@3PAUaction@@A DD 01H DUP (?)		; pActMenuWnd2
?pActMenuWnd4@@3PAUaction@@A DD 01H DUP (?)		; pActMenuWnd4
?pActYesNoWnd@@3PAUaction@@A DD 01H DUP (?)		; pActYesNoWnd
?pActMenuWnd5@@3PAUaction@@A DD 01H DUP (?)		; pActMenuWnd5
?pActMenu皮肤@@3PAUaction@@A DD 01H DUP (?)		; pActMenu皮肤
?pActMenu称号@@3PAUaction@@A DD 01H DUP (?)		; pActMenu称号
?pActMenu光环@@3PAUaction@@A DD 01H DUP (?)		; pActMenu光环
?pActMenu人物@@3PAUaction@@A DD 01H DUP (?)		; pActMenu人物
?SkillWndflag@@3_NA DB 01H DUP (?)			; SkillWndflag
	ALIGN	4

?自动登陆窗口@@3HA DD 01H DUP (?)			; 自动登陆窗口
?SkillWnd@@3FA DW 01H DUP (?)				; SkillWnd
	ALIGN	4

?p自动登陆窗口@@3PAUaction@@A DD 01H DUP (?)		; p自动登陆窗口
?职技关闭按钮句柄@@3HA DD 01H DUP (?)			; 职技关闭按钮句柄
?方向动作@@3PAUaction@@A DD 01H DUP (?)			; 方向动作
?职技选项按钮句柄@@3PAHA DD 03H DUP (?)			; 职技选项按钮句柄
?pActSkillMenuWnd@@3PAUaction@@A DD 01H DUP (?)		; pActSkillMenuWnd
?人物动作@@3PAUaction@@A DD 01H DUP (?)			; 人物动作
?x@?1??自动登陆窗口回调@@YAXXZ@4HA DD 01H DUP (?)	; `自动登陆窗口回调'::`2'::x
?y@?1??自动登陆窗口回调@@YAXXZ@4HA DD 01H DUP (?)	; `自动登陆窗口回调'::`2'::y
?TaskBarFlag@@3HA DD 01H DUP (?)			; TaskBarFlag
?MenuToggleFlag@@3IA DD 01H DUP (?)			; MenuToggleFlag
?ItemBuffer@@3PAUITEM_BUFFER@@A DB 06c0H DUP (?)	; ItemBuffer
?StatusUpPoint@@3HA DD 01H DUP (?)			; StatusUpPoint
?BattlePetReceiveFlag@@3HA DD 01H DUP (?)		; BattlePetReceiveFlag
?StandbyPetSendFlag@@3HA DD 01H DUP (?)			; StandbyPetSendFlag
?MailHistory@@3PAUMAIL_HISTORY@@A DB 04ab00H DUP (?)	; MailHistory
?chatRegistryStr@@3PAUSTR_BUFFER@@A DB 0940H DUP (?)	; chatRegistryStr
?MailStr@@3USTR_BUFFER@@A DB 0128H DUP (?)		; MailStr
?pActMenuWnd3@@3PAUaction@@A DD 01H DUP (?)		; pActMenuWnd3
?shougouChange@@3USTR_BUFFER@@A DB 0128H DUP (?)	; shougouChange
?MymoneyBuffer@@3USTR_BUFFER@@A DB 0128H DUP (?)	; MymoneyBuffer
?TradeBuffer@@3USTR_BUFFER@@A DB 0128H DUP (?)		; TradeBuffer
?petNameChange@@3USTR_BUFFER@@A DB 0128H DUP (?)	; petNameChange
?petStatusNo@@3HA DD 01H DUP (?)			; petStatusNo
?mailHistoryWndPageNo@@3HA DD 01H DUP (?)		; mailHistoryWndPageNo
?mailHistoryWndSelectNo@@3HA DD 01H DUP (?)		; mailHistoryWndSelectNo
?MapWmdFlagBak@@3HA DD 01H DUP (?)			; MapWmdFlagBak
?ResultWndTimer@@3HA DD 01H DUP (?)			; ResultWndTimer
?ItemMixRecvFlag@@3HA DD 01H DUP (?)			; ItemMixRecvFlag
?TalkMode@@3HA DD 01H DUP (?)				; TalkMode
?secretName@@3PADA DB 020H DUP (?)			; secretName
?setRoomFlag@@3_NA DB 01H DUP (?)			; setRoomFlag
	ALIGN	4

?secretFlag@@3_NA DB 01H DUP (?)			; secretFlag
	ALIGN	4

?pChtChanlWnd@@3PAUaction@@A DD 01H DUP (?)		; pChtChanlWnd
?pSelChanlWnd@@3PAUaction@@A DD 01H DUP (?)		; pSelChanlWnd
?chatRoomName@@3USTR_BUFFER@@A DB 0128H DUP (?)		; chatRoomName
?pSetRoomWnd@@3PAUaction@@A DD 01H DUP (?)		; pSetRoomWnd
?stopBGMClicked@?NG@??MenuProc@@YAXXZ@4HA DD 01H DUP (?) ; `MenuProc'::`214'::stopBGMClicked
?MAX_PET_TBL@@3HA DD 01H DUP (?)			; MAX_PET_TBL
_BSS	ENDS
;	COMDAT ??_C@_0BD@JHCIAJMC@?5?5?5?5?5?$LA?x?5?$LH?f?5?$LO?K?5?5?5?5?5?$AA@
CONST	SEGMENT
??_C@_0BD@JHCIAJMC@?5?5?5?5?5?$LA?x?5?$LH?f?5?$LO?K?5?5?5?5?5?$AA@ DB '  '
	DB	'   ', 0b0H, 0f8H, ' ', 0b7H, 0e6H, ' ', 0beH, 0cbH, '     ', 00H ; `string'
CONST	ENDS
;	COMDAT ??_C@_0BD@PHEKGFNN@?5?5?5?5?5?H?$LI?5?5?5?5?$LL?v?5?5?5?5?5?$AA@
CONST	SEGMENT
??_C@_0BD@PHEKGFNN@?5?5?5?5?5?H?$LI?5?5?5?5?$LL?v?5?5?5?5?5?$AA@ DB '    '
	DB	' ', 0c8H, 0b8H, '    ', 0bbH, 0f6H, '     ', 00H ; `string'
CONST	ENDS
;	COMDAT ??_C@_0BJ@DHKPLCBK@?5?5?5?5?5?5?$LN?$LK?5?E?W?5?$LH?$LJ?5?$LP?$MA?5?5?5?5?5?5?5?$AA@
CONST	SEGMENT
??_C@_0BJ@DHKPLCBK@?5?5?5?5?5?5?$LN?$LK?5?E?W?5?$LH?$LJ?5?$LP?$MA?5?5?5?5?5?5?5?$AA@ DB ' '
	DB	'     ', 0bdH, 0baH, ' ', 0c5H, 0d7H, ' ', 0b7H, 0b9H, ' ', 0bfH
	DB	0c0H, '       ', 00H				; `string'
CONST	ENDS
;	COMDAT ??_C@_0BK@CGBENDMD@?5?5?5?5?5?5?5?$LI?p?5?5?5?5?5?5?5?$LD?k?5?5?5?5?5?5?5?$AA@
CONST	SEGMENT
??_C@_0BK@CGBENDMD@?5?5?5?5?5?5?5?$LI?p?5?5?5?5?5?5?5?$LD?k?5?5?5?5?5?5?5?$AA@ DB ' '
	DB	'      ', 0b8H, 0f0H, '       ', 0b3H, 0ebH, '       ', 00H ; `string'
CONST	ENDS
;	COMDAT ??_C@_02GNJCLAFI@?$KF?$LG?$AA@
CONST	SEGMENT
??_C@_02GNJCLAFI@?$KF?$LG?$AA@ DB 0a5H, 0b6H, 00H	; `string'
CONST	ENDS
;	COMDAT ??_C@_02EGLPODJL@?$KF?$LF?$AA@
CONST	SEGMENT
??_C@_02EGLPODJL@?$KF?$LF?$AA@ DB 0a5H, 0b5H, 00H	; `string'
CONST	ENDS
;	COMDAT ??_C@_02FPKENCNK@?$KF?$LE?$AA@
CONST	SEGMENT
??_C@_02FPKENCNK@?$KF?$LE?$AA@ DB 0a5H, 0b4H, 00H	; `string'
CONST	ENDS
;	COMDAT ??_C@_02BAOFEEBN@?$KF?$LD?$AA@
CONST	SEGMENT
??_C@_02BAOFEEBN@?$KF?$LD?$AA@ DB 0a5H, 0b3H, 00H	; `string'
CONST	ENDS
;	COMDAT ??_C@_02JPOHFFM@?$KF?$LC?$AA@
CONST	SEGMENT
??_C@_02JPOHFFM@?$KF?$LC?$AA@ DB 0a5H, 0b2H, 00H	; `string'
CONST	ENDS
;	COMDAT ??_C@_02CCNDCGJP@?$KF?$LB?$AA@
CONST	SEGMENT
??_C@_02CCNDCGJP@?$KF?$LB?$AA@ DB 0a5H, 0b1H, 00H	; `string'
CONST	ENDS
;	COMDAT ??_C@_02DLMIBHNO@?$KF?$LA?$AA@
CONST	SEGMENT
??_C@_02DLMIBHNO@?$KF?$LA?$AA@ DB 0a5H, 0b0H, 00H	; `string'
CONST	ENDS
;	COMDAT ??_C@_00CNPNBAHC@?$AA@
CONST	SEGMENT
??_C@_00CNPNBAHC@?$AA@ DB 00H				; `string'
CONST	ENDS
_DATA	SEGMENT
?RideCodeMode@@3PAUtagRideCodeMode@@A DD 018816H	; RideCodeMode
	DD	01H
	DD	018806H
	DD	02H
	DD	01880aH
	DD	04H
	DD	0187b7H
	DD	08H
	DD	0187c0H
	DD	010H
	DD	0187bbH
	DD	020H
	DD	0187faH
	DD	040H
	DD	0187d6H
	DD	080H
	DD	018814H
	DD	0100H
	DD	018815H
	DD	0200H
	DD	018c9cH
	DD	0800H
	DD	018cc8H
	DD	0400H
	DD	018812H
	DD	01000H
	DD	018811H
	DD	02000H
	DD	018a28H
	DD	04000H
	DD	018a2bH
	DD	08000H
	DD	018f30H
	DD	010000H
	DD	018f31H
	DD	020000H
	DD	018f68H
	DD	040000H
	DD	0187fcH
	DD	080000H
	DD	0187d3H
	DD	0100000H
	DD	018fa9H
	DD	0200000H
	DD	018faaH
	DD	0400000H
	DD	018a09H
	DD	0800000H
	DD	018a0aH
	DD	01000000H
	DD	019394H
	DD	02000000H
	DD	0187b2H
	DD	04000000H
?RideNoList@@3PAUtagRideNoList@@A DD 018bb9H		; RideNoList
	DD	018bbaH
	DD	018bbbH
	DD	018bbcH
	DD	018bbdH
	DD	018bbeH
	DD	018bbfH
	DD	018bc0H
	DD	018a90H
	DD	018a91H
	DD	018e5aH
	DD	018e65H
	DD	018849H
	DD	018844H
	DD	01885dH
	DD	018ee5H
	DD	018f0dH
	DD	018f19H
	DD	018f76H
	ORG $+32
	DD	018bc1H
	DD	018bc2H
	DD	018bc3H
	DD	018bc4H
	DD	018bc5H
	DD	018bc6H
	DD	018bc7H
	DD	018bc8H
	DD	018a9aH
	DD	018a9bH
	DD	018e62H
	DD	018e64H
	DD	018849H
	DD	018844H
	DD	01885dH
	DD	018ee6H
	DD	018f0eH
	DD	018f1aH
	DD	018f77H
	ORG $+32
	DD	018bc9H
	DD	018bcaH
	DD	018bcbH
	DD	018bccH
	DD	018bcdH
	DD	018bceH
	DD	018bcfH
	DD	018bd0H
	DD	018aa4H
	DD	018aa5H
	DD	018e57H
	DD	018e4dH
	DD	018849H
	DD	018844H
	DD	01885dH
	DD	018ee7H
	DD	018f0fH
	DD	018f1bH
	DD	018f78H
	ORG $+32
	DD	018bd1H
	DD	018bd2H
	DD	018bd3H
	DD	018bd4H
	DD	018bd5H
	DD	018bd6H
	DD	018bd7H
	DD	018bd8H
	DD	018aaeH
	DD	018aafH
	DD	018e58H
	DD	018e4eH
	DD	018849H
	DD	018844H
	DD	01885dH
	DD	018ee8H
	DD	018f10H
	DD	018f1cH
	DD	018f79H
	ORG $+32
	DD	018bd9H
	DD	018bdaH
	DD	018bdbH
	DD	018bdcH
	DD	018bddH
	DD	018bdeH
	DD	018bdfH
	DD	018be0H
	DD	018ab8H
	DD	018ab9H
	DD	018e60H
	DD	018e55H
	DD	018849H
	DD	018844H
	DD	01885dH
	DD	018ee9H
	DD	018f11H
	DD	018f1dH
	DD	018f7aH
	ORG $+32
	DD	018be1H
	DD	018be2H
	DD	018be3H
	DD	018be4H
	DD	018be5H
	DD	018be6H
	DD	018be7H
	DD	018be8H
	DD	018ac2H
	DD	018ac3H
	DD	018e61H
	DD	018e56H
	DD	018849H
	DD	018844H
	DD	01885dH
	DD	018eeaH
	DD	018f12H
	DD	018f1eH
	DD	018f7bH
	ORG $+32
	DD	018be9H
	DD	018beaH
	DD	018bebH
	DD	018becH
	DD	018bedH
	DD	018beeH
	DD	018befH
	DD	018bf0H
	DD	018accH
	DD	018acdH
	DD	018e59H
	DD	018e4fH
	DD	018849H
	DD	018844H
	DD	01885dH
	DD	018eebH
	DD	018f13H
	DD	018f1fH
	DD	018f7cH
	ORG $+32
	DD	018bf1H
	DD	018bf2H
	DD	018bf3H
	DD	018bf4H
	DD	018bf5H
	DD	018bf6H
	DD	018bf7H
	DD	018bf8H
	DD	018ad6H
	DD	018ad7H
	DD	018e5bH
	DD	018e50H
	DD	018849H
	DD	018844H
	DD	01885dH
	DD	018eecH
	DD	018f14H
	DD	018f20H
	DD	018f7dH
	ORG $+32
	DD	018bf9H
	DD	018bfaH
	DD	018bfbH
	DD	018bfcH
	DD	018bfdH
	DD	018bfeH
	DD	018bffH
	DD	018c00H
	DD	018ae0H
	DD	018ae1H
	DD	018e5dH
	DD	018e52H
	DD	018849H
	DD	018844H
	DD	01885dH
	DD	018eedH
	DD	018f15H
	DD	018f21H
	DD	018f7eH
	ORG $+32
	DD	018c01H
	DD	018c02H
	DD	018c03H
	DD	018c04H
	DD	018c05H
	DD	018c06H
	DD	018c07H
	DD	018c08H
	DD	018aeaH
	DD	018aebH
	DD	018e5cH
	DD	018e51H
	DD	018849H
	DD	018844H
	DD	01885dH
	DD	018eeeH
	DD	018f16H
	DD	018f22H
	DD	018f7fH
	ORG $+32
	DD	018c09H
	DD	018c0aH
	DD	018c0bH
	DD	018c0cH
	DD	018c0dH
	DD	018c0eH
	DD	018c0fH
	DD	018c10H
	DD	018af4H
	DD	018af5H
	DD	018e5fH
	DD	018e54H
	DD	018849H
	DD	018844H
	DD	01885dH
	DD	018eefH
	DD	018f17H
	DD	018f23H
	DD	018f80H
	ORG $+32
	DD	018c11H
	DD	018c12H
	DD	018c13H
	DD	018c14H
	DD	018c15H
	DD	018c16H
	DD	018c17H
	DD	018c18H
	DD	018afeH
	DD	018affH
	DD	018e5eH
	DD	018e53H
	DD	018849H
	DD	018844H
	DD	01885dH
	DD	018ef0H
	DD	018f18H
	DD	018f24H
	DD	018f81H
	ORG $+32
?RPlistMode@@3PAUtagRidePetList@@A DD 0186a0H		; RPlistMode
	DD	00H
	DD	0186a5H
	DD	00H
	DD	0186aaH
	DD	00H
	DD	0186afH
	DD	00H
	DD	0186b4H
	DD	01H
	DD	0186b9H
	DD	01H
	DD	0186beH
	DD	01H
	DD	0186c3H
	DD	01H
	DD	0186c8H
	DD	02H
	DD	0186cdH
	DD	02H
	DD	0186d2H
	DD	02H
	DD	0186d7H
	DD	02H
	DD	0186dcH
	DD	03H
	DD	0186e1H
	DD	03H
	DD	0186e6H
	DD	03H
	DD	0186ebH
	DD	03H
	DD	0186f0H
	DD	04H
	DD	0186f5H
	DD	04H
	DD	0186faH
	DD	04H
	DD	0186ffH
	DD	04H
	DD	018704H
	DD	05H
	DD	018709H
	DD	05H
	DD	01870eH
	DD	05H
	DD	018713H
	DD	05H
	DD	018718H
	DD	06H
	DD	01871dH
	DD	06H
	DD	018722H
	DD	06H
	DD	018727H
	DD	06H
	DD	01872cH
	DD	07H
	DD	018731H
	DD	07H
	DD	018736H
	DD	07H
	DD	01873bH
	DD	07H
	DD	018740H
	DD	08H
	DD	018745H
	DD	08H
	DD	01874aH
	DD	08H
	DD	01874fH
	DD	08H
	DD	018754H
	DD	09H
	DD	018759H
	DD	09H
	DD	01875eH
	DD	09H
	DD	018763H
	DD	09H
	DD	018768H
	DD	0aH
	DD	01876dH
	DD	0aH
	DD	018772H
	DD	0aH
	DD	018777H
	DD	0aH
	DD	01877cH
	DD	0bH
	DD	018781H
	DD	0bH
	DD	018786H
	DD	0bH
	DD	01878bH
	DD	0bH
?DropI@@3FA DW	0ffffH					; DropI
?MainTradeWndflag@@3_NA DB 01H				; MainTradeWndflag
	ORG $+1
?ChangePetI@@3FA DW 0ffffH				; ChangePetI
	ORG $+2
?talkwndx@@3HA DD 012cH					; talkwndx
?talkwndy@@3HA DD 015eH					; talkwndy
?opp_sockfd@@3PADA DB '-1', 00H				; opp_sockfd
	ORG $+125
?tradePetIndex@@3HA DD 0ffffffffH			; tradePetIndex
?drag1Y@@3HA DD	043H					; drag1Y
?mytradelist@@3PAHA DD 0ffffffffH			; mytradelist
	ORG $+80
?drag2Y@@3HA DD	0101H					; drag2Y
?opptradelist@@3PAHA DD 0ffffffffH			; opptradelist
	ORG $+80
?locknum@@3HA DD 0ffffffffH				; locknum
?locknum2@@3HA DD 0ffffffffH				; locknum2
?jujutuNo@@3HA DD 0ffffffffH				; jujutuNo
?tradepetindexget@@3PADA DB '-1', 00H			; tradepetindexget
	ORG $+125
?mine_itemindex@@3PAHA DD 0ffffffffH			; mine_itemindex
	DD	0ffffffffH
?itemNo@@3HA DD	0ffffffffH				; itemNo
?ItemMixPetNo@@3HA DD 0ffffffffH			; ItemMixPetNo
?nPetItemEquipBmpNumber@@3PAY01HA DD 0675fH		; nPetItemEquipBmpNumber
	DD	06766H
	DD	0675cH
	DD	06763H
	DD	0675aH
	DD	06761H
	DD	0675dH
	DD	06764H
	DD	0675bH
	DD	06762H
	DD	06759H
	DD	06760H
	DD	0675eH
	DD	06765H
?TransmigrationStr@@3PAPADA DD FLAT:??_C@_00CNPNBAHC@?$AA@ ; TransmigrationStr
	DD	FLAT:??_C@_02DLMIBHNO@?$KF?$LA?$AA@
	DD	FLAT:??_C@_02CCNDCGJP@?$KF?$LB?$AA@
	DD	FLAT:??_C@_02JPOHFFM@?$KF?$LC?$AA@
	DD	FLAT:??_C@_02BAOFEEBN@?$KF?$LD?$AA@
	DD	FLAT:??_C@_02FPKENCNK@?$KF?$LE?$AA@
	DD	FLAT:??_C@_02EGLPODJL@?$KF?$LF?$AA@
	DD	FLAT:??_C@_02GNJCLAFI@?$KF?$LG?$AA@
?PetAlbumTbl@@3PAUPET_ALBUM_TBL@@A DD 00H		; PetAlbumTbl
	DB	'?', 0d5H, 0f4H, 00H
	ORG $+13
	ORG $+3
	DD	06d61H
	DD	01H
	DB	'?', 0d5H, 0f4H, '?', 0d5H, 0f4H, 00H
	ORG $+10
	ORG $+3
	DD	06d62H
	DD	02H
	DB	'?', 0d5H, 0f4H, 0deH, 0d9H, 0f7H, 0a4H, 00H
	ORG $+9
	ORG $+3
	DD	06d63H
	DD	03H
	DB	'?', 0d5H, 0f4H, 0f8H, 0d6H, '?', 00H
	ORG $+10
	ORG $+3
	DD	06d64H
	DD	08H
	DB	0f8H, 0d6H, 0ddH, 0efH, 00H
	ORG $+12
	ORG $+3
	DD	06d6bH
	DD	09H
	DB	0d1H, 0d1H, 0f8H, 0d6H, 0ecH, 0a5H, 00H
	ORG $+10
	ORG $+3
	DD	06d6cH
	DD	0aH
	DB	0f8H, 0d6H, 0ecH, 0a5H, 00H
	ORG $+12
	ORG $+3
	DD	06d6dH
	DD	0bH
	DB	0f8H, 0d6H, 0ecH, 0a5H, 0ddH, 0efH, 00H
	ORG $+10
	ORG $+3
	DD	06d6eH
	DD	0cH
	DB	'?', 0f8H, 0d6H, 0ecH, 0a5H, 00H
	ORG $+11
	ORG $+3
	DD	06d6fH
	DD	010H
	DB	0caH, 0a5H, 0daH, 0b8H, 00H
	ORG $+12
	ORG $+3
	DD	06d75H
	DD	011H
	DB	0caH, 0a5H, 0ddH, 0efH, 00H
	ORG $+12
	ORG $+3
	DD	06d76H
	DD	012H
	DB	0caH, 0a5H, 0ddH, 0efH, '?', 00H
	ORG $+11
	ORG $+3
	DD	06d77H
	DD	013H
	DB	0caH, 0a5H, 0deH, 0d9H, 00H
	ORG $+12
	ORG $+3
	DD	06d78H
	DD	018H
	DB	'???', 00H
	ORG $+13
	ORG $+3
	DD	06d7fH
	DD	019H
	DB	0eaH, 0ceH, 0eaH, 0ceH, 00H
	ORG $+12
	ORG $+3
	DD	06d80H
	DD	01aH
	DB	'???', 00H
	ORG $+13
	ORG $+3
	DD	06d81H
	DD	01bH
	DB	0eaH, 0ceH, 0dbH, 0d7H, 00H
	ORG $+12
	ORG $+3
	DD	06d82H
	DD	020H
	DB	'?', 0d5H, 0a6H, 0ebH, 0daH, 00H
	ORG $+11
	ORG $+3
	DD	06d89H
	DD	021H
	DB	'?', 0d5H, 0a6H, 0d5H, 0a6H, 0d0H, 0baH, 00H
	ORG $+9
	ORG $+3
	DD	06d8aH
	DD	022H
	DB	'?', 0d5H, 0a6H, '?', 0d0H, 0baH, '?', 00H
	ORG $+9
	ORG $+3
	DD	06d8bH
	DD	023H
	DB	'?', 0d5H, 0a6H, '?', 0d7H, 0d7H, 00H
	ORG $+10
	ORG $+3
	DD	06d8cH
	DD	028H
	DB	'?', 0f1H, 0fdH, 0e2H, 0eaH, 00H
	ORG $+11
	ORG $+3
	DD	06d93H
	DD	029H
	DB	'??', 00H
	ORG $+14
	ORG $+3
	DD	06d94H
	DD	02aH
	DB	'?', 0d8H, 0deH, '?', 0ebH, 0daH, 00H
	ORG $+10
	ORG $+3
	DD	06d95H
	DD	02bH
	DB	0e0H, 0b4H, '?', 00H
	ORG $+13
	ORG $+3
	DD	06d96H
	DD	030H
	DB	0e4H, 0b9H, 0caH, 0a8H, '?', 00H
	ORG $+11
	ORG $+3
	DD	06d9eH
	DD	031H
	DB	0d2H, 0f9H, 0caH, 0a6H, 0deH, 0d9H, 00H
	ORG $+10
	ORG $+3
	DD	06d9dH
	DD	032H
	DB	0f7H, 0e5H, 0d5H, 0a6H, 0cdH, 0e0H, 00H
	ORG $+10
	ORG $+3
	DD	06d9fH
	DD	033H
	DB	'?', 0d0H, 0baH, '?', 00H
	ORG $+12
	ORG $+3
	DD	06da0H
	DD	038H
	DB	0d5H, 0c3H, 0d0H, 0f4H, '?', 0caH, 0a8H, 00H
	ORG $+9
	ORG $+3
	DD	06da7H
	DD	039H
	DB	0fbH, 0bcH, 0daH, 0fbH, 0daH, 0fbH, 00H
	ORG $+10
	ORG $+3
	DD	06da8H
	DD	03aH
	DB	0d2H, 0fdH, '?', 0d1H, 0d1H, 0ccH, 0abH, 00H
	ORG $+9
	ORG $+3
	DD	06da9H
	DD	03bH
	DB	'?', 0d2H, 0f9H, 0f4H, 0deH, 0deH, 0d9H, 00H
	ORG $+9
	ORG $+3
	DD	06daaH
	DD	040H
	DB	'????', 0deH, 0d9H, 00H
	ORG $+10
	ORG $+3
	DD	06db1H
	DD	041H
	DB	0caH, 0afH, 0ecH, 0a5H, '?', 00H
	ORG $+11
	ORG $+3
	DD	06db2H
	DD	042H
	DB	0caH, 0afH, 0d5H, 0a6H, 0caH, 0a5H, 0deH, 0d9H, 00H
	ORG $+8
	ORG $+3
	DD	06db3H
	DD	043H
	DB	0d5H, 0a6H, 0d0H, 0f4H, 0e4H, 0ccH, 00H
	ORG $+10
	ORG $+3
	DD	06db4H
	DD	048H
	DB	0d7H, 0d7H, '???', 00H
	ORG $+11
	ORG $+3
	DD	06dbbH
	DD	049H
	DB	'?', 0d0H, 0f4H, 0d5H, 0a6H, 0deH, 0d9H, 00H
	ORG $+9
	ORG $+3
	DD	06dbcH
	DD	04aH
	DB	0dbH, 0c0H, 0f8H, 0ddH, 0d5H, 0a6H, 0deH, 0d9H, 00H
	ORG $+8
	ORG $+3
	DD	06dbdH
	DD	04bH
	DB	0dbH, 0c0H, 0d0H, 0f4H, '?', 00H
	ORG $+11
	ORG $+3
	DD	06dbeH
	DD	050H
	DB	0d0H, 0baH, 0d6H, 0f4H, '?', 00H
	ORG $+11
	ORG $+3
	DD	06dc5H
	DD	051H
	DB	0d0H, 0baH, 0d0H, 0baH, '?', 00H
	ORG $+11
	ORG $+3
	DD	06dc6H
	DD	052H
	DB	0d0H, 0baH, 0d5H, 0a6H, '?', 00H
	ORG $+11
	ORG $+3
	DD	06dc7H
	DD	053H
	DB	0d7H, 0ecH, 0deH, 0d9H, 0d0H, 0f1H, 00H
	ORG $+10
	ORG $+3
	DD	06dc8H
	DD	058H
	DB	'?', 0ddH, 0efH, 0f7H, 0e5H, 00H
	ORG $+11
	ORG $+3
	DD	06dcfH
	DD	059H
	DB	'?', 0ddH, 0efH, 00H
	ORG $+13
	ORG $+3
	DD	06dd0H
	DD	05aH
	DB	0cdH, 0e0H, 0ecH, 0a5H, 00H
	ORG $+12
	ORG $+3
	DD	06dd1H
	DD	05bH
	DB	'?', 0ddH, 0efH, 0f7H, 0e5H, 00H
	ORG $+11
	ORG $+3
	DD	06dd2H
	DD	0ffffffffH
	DB	0d9H, 0e9H, 00H
	ORG $+14
	ORG $+3
	DD	00H
	DD	0ffffffffH
	DB	0d9H, 0e9H, 00H
	ORG $+14
	ORG $+3
	DD	00H
	DD	0ffffffffH
	DB	0d9H, 0e9H, 00H
	ORG $+14
	ORG $+3
	DD	00H
	DD	0ffffffffH
	DB	0d9H, 0e9H, 00H
	ORG $+14
	ORG $+3
	DD	00H
	DD	0ffffffffH
	DB	0d9H, 0e9H, 00H
	ORG $+14
	ORG $+3
	DD	00H
	DD	0ffffffffH
	DB	0d9H, 0e9H, 00H
	ORG $+14
	ORG $+3
	DD	00H
	DD	0ffffffffH
	DB	0d9H, 0e9H, 00H
	ORG $+14
	ORG $+3
	DD	00H
	DD	0ffffffffH
	DB	0d9H, 0e9H, 00H
	ORG $+14
	ORG $+3
	DD	00H
	DD	060H
	DB	0ccH, 0abH, '??', 00H
	ORG $+12
	ORG $+3
	DD	06dedH
	DD	061H
	DB	0d0H, 0f4H, 0d5H, 0c3H, '?', 00H
	ORG $+11
	ORG $+3
	DD	06deeH
	DD	062H
	DB	'??', 0ccH, 0abH, '??', 00H
	ORG $+10
	ORG $+3
	DD	06defH
	DD	063H
	DB	0ccH, 0abH, '?', 0ccH, 0abH, 00H
	ORG $+11
	ORG $+3
	DD	06df0H
	DD	0ffffffffH
	DB	0d9H, 0e9H, 00H
	ORG $+14
	ORG $+3
	DD	00H
	DD	0ffffffffH
	DB	0d9H, 0e9H, 00H
	ORG $+14
	ORG $+3
	DD	00H
	DD	0ffffffffH
	DB	0d9H, 0e9H, 00H
	ORG $+14
	ORG $+3
	DD	00H
	DD	0ffffffffH
	DB	0d9H, 0e9H, 00H
	ORG $+14
	ORG $+3
	DD	00H
	DD	0ffffffffH
	DB	0d9H, 0e9H, 00H
	ORG $+14
	ORG $+3
	DD	00H
	DD	0ffffffffH
	DB	0d9H, 0e9H, 00H
	ORG $+14
	ORG $+3
	DD	00H
	DD	0ffffffffH
	DB	0d9H, 0e9H, 00H
	ORG $+14
	ORG $+3
	DD	00H
	DD	0ffffffffH
	DB	0d9H, 0e9H, 00H
	ORG $+14
	ORG $+3
	DD	00H
	DD	068H
	DB	0e1H, 0f3H, '?', 00H
	ORG $+13
	ORG $+3
	DD	06e0bH
	DD	069H
	DB	'?', 0d5H, 0c3H, '?', 0deH, 0d9H, 00H
	ORG $+10
	ORG $+3
	DD	06e0cH
	DD	06aH
	DB	0f8H, 0d6H, 0d0H, 0baH, 0f8H, 0d6H, 0d0H, 0baH, 00H
	ORG $+8
	ORG $+3
	DD	06e0dH
	DD	06bH
	DB	0d2H, 0fdH, 0d5H, 0a6H, 0caH, 0a5H, 00H
	ORG $+10
	ORG $+3
	DD	06e0eH
	DD	070H
	DB	'?', 0d0H, 0baH, '?', 00H
	ORG $+12
	ORG $+3
	DD	06e15H
	DD	071H
	DB	0f7H, 0e9H, 0d0H, 0baH, 00H
	ORG $+12
	ORG $+3
	DD	06e16H
	DD	072H
	DB	'?', 00H
	ORG $+15
	ORG $+3
	DD	06e17H
	DD	073H
	DB	'?', 0d5H, 0c3H, '?', 0d7H, 0d7H, 00H
	ORG $+10
	ORG $+3
	DD	06e18H
	DD	078H
	DB	'???', 00H
	ORG $+13
	ORG $+3
	DD	06e1fH
	DD	079H
	DB	'???', 00H
	ORG $+13
	ORG $+3
	DD	06e20H
	DD	07aH
	DB	'????', 00H
	ORG $+12
	ORG $+3
	DD	06e21H
	DD	07bH
	DB	'????', 00H
	ORG $+12
	ORG $+3
	DD	06e22H
	DD	0ffffffffH
	DB	0d9H, 0e9H, 00H
	ORG $+14
	ORG $+3
	DD	00H
	DD	0ffffffffH
	DB	0d9H, 0e9H, 00H
	ORG $+14
	ORG $+3
	DD	00H
	DD	0ffffffffH
	DB	0d9H, 0e9H, 00H
	ORG $+14
	ORG $+3
	DD	00H
	DD	0ffffffffH
	DB	0d9H, 0e9H, 00H
	ORG $+14
	ORG $+3
	DD	00H
	DD	080H
	DB	0d2H, 0fdH, 0d7H, 0d7H, '?', 0f8H, 0d6H, 0deH, 0d9H, 00H
	ORG $+7
	ORG $+3
	DD	06e33H
	DD	081H
	DB	'?', 0ebH, 0daH, '?', 0deH, 0d9H, 00H
	ORG $+10
	ORG $+3
	DD	06e34H
	DD	082H
	DB	0d2H, 0fdH, 0d7H, 0d7H, '?', 0d5H, 0c3H, 00H
	ORG $+9
	ORG $+3
	DD	06e35H
	DD	083H
	DB	0d2H, 0fdH, 0d5H, 0a6H, 0f8H, 0d6H, 0deH, 0d9H, 00H
	ORG $+8
	ORG $+3
	DD	06e36H
	DD	088H
	DB	0d0H, 0baH, 0dbH, 0c0H, '?', 0deH, 0d9H, 00H
	ORG $+9
	ORG $+3
	DD	06e3dH
	DD	089H
	DB	0caH, 0a5H, 0d0H, 0baH, 0d5H, 0c3H, 00H
	ORG $+10
	ORG $+3
	DD	06e3eH
	DD	08aH
	DB	0caH, 0a5H, 0ccH, 0abH, 00H
	ORG $+12
	ORG $+3
	DD	06e3fH
	DD	08bH
	DB	0dbH, 0c0H, 0ebH, 0daH, 0d1H, 0ceH, 00H
	ORG $+10
	ORG $+3
	DD	06e40H
	DD	090H
	DB	0d0H, 0f4H, '?', 0d5H, 0a6H, 0deH, 0d9H, 00H
	ORG $+9
	ORG $+3
	DD	06e47H
	DD	091H
	DB	0d0H, 0f4H, 0d1H, 0d6H, 00H
	ORG $+12
	ORG $+3
	DD	06e48H
	DD	092H
	DB	0d0H, 0f4H, '??', 0deH, 0d9H, 00H
	ORG $+10
	ORG $+3
	DD	06e49H
	DD	093H
	DB	'??', 0d1H, 0d1H, '?', 00H
	ORG $+11
	ORG $+3
	DD	06e4aH
	DD	098H
	DB	0dbH, 0c0H, 0d0H, 0f4H, 00H
	ORG $+12
	ORG $+3
	DD	06e51H
	DD	099H
	DB	0d9H, 0b5H, 0ecH, 0a5H, 00H
	ORG $+12
	ORG $+3
	DD	06e52H
	DD	09aH
	DB	0faH, 0adH, 0f1H, 0abH, 0ecH, 0d1H, 00H
	ORG $+10
	ORG $+3
	DD	06e53H
	DD	09bH
	DB	0d2H, 0fdH, '??', 00H
	ORG $+12
	ORG $+3
	DD	06e54H
	DD	0a0H
	DB	'???', 00H
	ORG $+13
	ORG $+3
	DD	06e5bH
	DD	0a1H
	DB	'????', 00H
	ORG $+12
	ORG $+3
	DD	06e5cH
	DD	0a2H
	DB	'?????', 00H
	ORG $+11
	ORG $+3
	DD	06e5dH
	DD	0a3H
	DB	'????', 00H
	ORG $+12
	ORG $+3
	DD	06e5eH
	DD	0a8H
	DB	'?', 0ebH, 0daH, 0d8H, 0a4H, 00H
	ORG $+11
	ORG $+3
	DD	06e65H
	DD	0a9H
	DB	0ebH, 0daH, 0d8H, 0a4H, 0d8H, 0a4H, 00H
	ORG $+10
	ORG $+3
	DD	06e66H
	DD	0aaH
	DB	'?', 0d8H, 0a4H, 0d1H, 0e1H, 0deH, 0d9H, 00H
	ORG $+9
	ORG $+3
	DD	06e67H
	DD	0abH
	DB	'?', 0ebH, 0daH, 0d8H, 0a4H, 0d5H, 0a6H, 0deH, 0d9H, 00H
	ORG $+7
	ORG $+3
	DD	06e68H
	DD	0b0H
	DB	0f4H, 0deH, 0d5H, 0c3H, 0ccH, 0abH, 0ebH, 0daH, 00H
	ORG $+8
	ORG $+3
	DD	06e6fH
	DD	0b1H
	DB	0d5H, 0a6H, '??', 0ebH, 0daH, 00H
	ORG $+10
	ORG $+3
	DD	06e70H
	DD	0b2H
	DB	0caH, 0a5H, '?', 0ccH, 0abH, 0ebH, 0daH, 00H
	ORG $+9
	ORG $+3
	DD	06e71H
	DD	0b3H
	DB	'?', 0d5H, 0c3H, 0ddH, 0efH, 0deH, 0d9H, 00H
	ORG $+9
	ORG $+3
	DD	06e72H
	DD	0ffffffffH
	DB	0d9H, 0e9H, 00H
	ORG $+14
	ORG $+3
	DD	00H
	DD	0ffffffffH
	DB	0d9H, 0e9H, 00H
	ORG $+14
	ORG $+3
	DD	00H
	DD	0ffffffffH
	DB	0d9H, 0e9H, 00H
	ORG $+14
	ORG $+3
	DD	00H
	DD	0ffffffffH
	DB	0d9H, 0e9H, 00H
	ORG $+14
	ORG $+3
	DD	00H
	DD	0b8H
	DB	0fbH, 0fdH, '?', 00H
	ORG $+13
	ORG $+3
	DD	06e83H
	DD	0b9H
	DB	0d0H, 0baH, 0d0H, 0baH, 0d5H, 0a6H, 0deH, 0d9H, 00H
	ORG $+8
	ORG $+3
	DD	06e84H
	DD	0baH
	DB	'??', 0d0H, 0baH, 00H
	ORG $+12
	ORG $+3
	DD	06e85H
	DD	0bbH
	DB	0d0H, 0f4H, '?', 00H
	ORG $+13
	ORG $+3
	DD	06e86H
	DD	0c0H
	DB	'??', 0d5H, 0a6H, 0deH, 0d9H, 00H
	ORG $+10
	ORG $+3
	DD	06e8dH
	DD	0c1H
	DB	0f1H, 0a7H, 0eeH, 0e8H, 0d5H, 0a6H, 0deH, 0d9H, 00H
	ORG $+8
	ORG $+3
	DD	06e8eH
	DD	0c2H
	DB	0f7H, 0e9H, '??', 0ebH, 0daH, 00H
	ORG $+10
	ORG $+3
	DD	06e8fH
	DD	0c3H
	DB	0f4H, 0deH, 0d5H, 0c3H, 0e1H, 0b6H, 0ecH, 0a5H, '?', 00H
	ORG $+7
	ORG $+3
	DD	06e90H
	DD	0c8H
	DB	0f8H, 0d6H, 0ecH, 0a5H, 0d3H, 0ecH, 00H
	ORG $+10
	ORG $+3
	DD	06e97H
	DD	0c9H
	DB	0d8H, 0a4H, 0d1H, 0d6H, 0e0H, 0a4H, 0dcH, 0c5H, 00H
	ORG $+8
	ORG $+3
	DD	06e98H
	DD	0caH
	DB	'?', 0ecH, 0a5H, '?', 0ebH, 0daH, 00H
	ORG $+10
	ORG $+3
	DD	06e99H
	DD	0cbH
	DB	0d5H, 0c3H, 0ecH, 0a5H, '?', 0ebH, 0daH, 00H
	ORG $+9
	ORG $+3
	DD	06e9aH
	DD	0d0H
	DB	0deH, 0c8H, 0d2H, 0fdH, 0d5H, 0c3H, 0d0H, 0f4H, '?', 00H
	ORG $+7
	ORG $+3
	DD	06ea1H
	DD	0d1H
	DB	'?', 0daH, 0b8H, 0d5H, 0a6H, 0deH, 0d9H, 00H
	ORG $+9
	ORG $+3
	DD	06ea2H
	DD	0d2H
	DB	0e4H, 0b9H, 0d7H, 0d7H, '?', 0d5H, 0a6H, 0deH, 0d9H, 00H
	ORG $+7
	ORG $+3
	DD	06ea3H
	DD	0d3H
	DB	'?', 0ecH, 0a5H, '?', 0d5H, 0a6H, 0deH, 0d9H, 00H
	ORG $+8
	ORG $+3
	DD	06ea4H
	DD	0d4H
	DB	0d5H, 0c3H, 0caH, 0a6H, 0d5H, 0c3H, 0deH, 0d9H, 00H
	ORG $+8
	ORG $+3
	DD	06ea5H
	DD	0d8H
	DB	0dbH, 0c0H, 0d5H, 0a6H, 0d5H, 0a6H, 0d0H, 0baH, 0deH, 0d9H
	DB	00H
	ORG $+6
	ORG $+3
	DD	06eabH
	DD	0d9H
	DB	'???', 0deH, 0d9H, 00H
	ORG $+11
	ORG $+3
	DD	06eacH
	DD	0daH
	DB	0caH, 0a6H, 0d7H, 0d7H, 0d2H, 0fdH, 0d5H, 0a6H, 0deH, 0d9H
	DB	00H
	ORG $+6
	ORG $+3
	DD	06eadH
	DD	0dbH
	DB	'?', 0deH, 0d9H, 0d2H, 0fdH, 0d5H, 0a6H, 0deH, 0d9H, 00H
	ORG $+7
	ORG $+3
	DD	06eaeH
	DD	04H
	DB	0fdH, 0d9H, '?', 0d5H, 0f4H, 00H
	ORG $+11
	ORG $+3
	DD	06d65H
	DD	044H
	DB	0d5H, 0a6H, 0d0H, 0baH, 0deH, 0d9H, 00H
	ORG $+10
	ORG $+3
	DD	06db5H
	DD	045H
	DB	0e4H, 0b9H, 0ecH, 0a5H, '?', 00H
	ORG $+11
	ORG $+3
	DD	06db6H
	DD	046H
	DB	0ccH, 0abH, 0d5H, 0a6H, 0ccH, 0abH, '?', 00H
	ORG $+9
	ORG $+3
	DD	06db7H
	DD	047H
	DB	'?', 0d5H, 0a6H, '?', 0ebH, 0daH, 00H
	ORG $+10
	ORG $+3
	DD	06db8H
	DD	034H
	DB	0dbH, 0daH, 0d0H, 0baH, '?', 00H
	ORG $+11
	ORG $+3
	DD	06da1H
	DD	04cH
	DB	0f8H, 0d6H, '??', 00H
	ORG $+12
	ORG $+3
	DD	06dbfH
	DD	06cH
	DB	0f8H, 0d6H, '??', 00H
	ORG $+12
	ORG $+3
	DD	06e0fH
	DD	0a4H
	DB	'????', 00H
	ORG $+12
	ORG $+3
	DD	06e5fH
	DD	0ffffffffH
	DB	0d9H, 0e9H, 00H
	ORG $+14
	ORG $+3
	DD	00H
	DD	0ffffffffH
	DB	0d9H, 0e9H, 00H
	ORG $+14
	ORG $+3
	DD	00H
	DD	0ffffffffH
	DB	0d9H, 0e9H, 00H
	ORG $+14
	ORG $+3
	DD	00H
	DD	0ffffffffH
	DB	0d9H, 0e9H, 00H
	ORG $+14
	ORG $+3
	DD	00H
	DD	0ffffffffH
	DB	0d9H, 0e9H, 00H
	ORG $+14
	ORG $+3
	DD	00H
	DD	0ffffffffH
	DB	0d9H, 0e9H, 00H
	ORG $+14
	ORG $+3
	DD	00H
	DD	0ffffffffH
	DB	0d9H, 0e9H, 00H
	ORG $+14
	ORG $+3
	DD	00H
	DD	0ffffffffH
	DB	0d9H, 0e9H, 00H
	ORG $+14
	ORG $+3
	DD	00H
	DD	0ffffffffH
	DB	0d9H, 0e9H, 00H
	ORG $+14
	ORG $+3
	DD	00H
	DD	0ffffffffH
	DB	0d9H, 0e9H, 00H
	ORG $+14
	ORG $+3
	DD	00H
	DD	0ffffffffH
	DB	0d9H, 0e9H, 00H
	ORG $+14
	ORG $+3
	DD	00H
	DD	0ffffffffH
	DB	0d9H, 0e9H, 00H
	ORG $+14
	ORG $+3
	DD	00H
	DD	0ffffffffH
	DB	0d9H, 0e9H, 00H
	ORG $+14
	ORG $+3
	DD	00H
	DD	0ffffffffH
	DB	0d9H, 0e9H, 00H
	ORG $+14
	ORG $+3
	DD	00H
	DD	0ffffffffH
	DB	0d9H, 0e9H, 00H
	ORG $+14
	ORG $+3
	DD	00H
	DD	0ffffffffH
	DB	0d9H, 0e9H, 00H
	ORG $+14
	ORG $+3
	DD	00H
	DD	0ffffffffH
	DB	0d9H, 0e9H, 00H
	ORG $+14
	ORG $+3
	DD	00H
	DD	0ffffffffH
	DB	0d9H, 0e9H, 00H
	ORG $+14
	ORG $+3
	DD	00H
	DD	0ffffffffH
	DB	0d9H, 0e9H, 00H
	ORG $+14
	ORG $+3
	DD	00H
	DD	0ffffffffH
	DB	0d9H, 0e9H, 00H
	ORG $+14
	ORG $+3
	DD	00H
	DD	0ffffffffH
	DB	0d9H, 0e9H, 00H
	ORG $+14
	ORG $+3
	DD	00H
	DD	0ffffffffH
	DB	0d9H, 0e9H, 00H
	ORG $+14
	ORG $+3
	DD	00H
	DD	0ffffffffH
	DB	0d9H, 0e9H, 00H
	ORG $+14
	ORG $+3
	DD	00H
	DD	0ffffffffH
	DB	0d9H, 0e9H, 00H
	ORG $+14
	ORG $+3
	DD	00H
	DD	0ffffffffH
	DB	0d9H, 0e9H, 00H
	ORG $+14
	ORG $+3
	DD	00H
	DD	0ffffffffH
	DB	0d9H, 0e9H, 00H
	ORG $+14
	ORG $+3
	DD	00H
	DD	0ffffffffH
	DB	0d9H, 0e9H, 00H
	ORG $+14
	ORG $+3
	DD	00H
	DD	0ffffffffH
	DB	0d9H, 0e9H, 00H
	ORG $+14
	ORG $+3
	DD	00H
	DD	0ffffffffH
	DB	0d9H, 0e9H, 00H
	ORG $+14
	ORG $+3
	DD	00H
	DD	0ffffffffH
	DB	0d9H, 0e9H, 00H
	ORG $+14
	ORG $+3
	DD	00H
	DD	0ffffffffH
	DB	0d9H, 0e9H, 00H
	ORG $+14
	ORG $+3
	DD	00H
	DD	0ffffffffH
	DB	0d9H, 0e9H, 00H
	ORG $+14
	ORG $+3
	DD	00H
	DD	0ffffffffH
	DB	0d9H, 0e9H, 00H
	ORG $+14
	ORG $+3
	DD	00H
	DD	0ccH
	DB	0dbH, 0c0H, '??', 0ebH, 0daH, 00H
	ORG $+10
	ORG $+3
	DD	06e9bH
	DD	05H
	DB	'???', 0d5H, 0f4H, 00H
	ORG $+11
	ORG $+3
	DD	06d66H
	DD	06H
	DB	'?', 0d5H, 0f4H, '?', 0d3H, 0ecH, 00H
	ORG $+10
	ORG $+3
	DD	06d67H
	DD	07H
	DB	'?', 0d5H, 0f4H, 0cdH, 0b3H, 0d5H, 0f4H, 00H
	ORG $+9
	ORG $+3
	DD	06d68H
	DD	0dH
	DB	0f8H, 0d6H, 0ebH, 0eeH, 0f8H, 0d6H, '?', 00H
	ORG $+9
	ORG $+3
	DD	06d70H
	DD	0eH
	DB	0f8H, 0d6H, 0ebH, 0eeH, 0f8H, 0d6H, 0ebH, 0eeH, 00H
	ORG $+8
	ORG $+3
	DD	06d71H
	DD	0fH
	DB	0f8H, 0d6H, 0ebH, 0eeH, '?', 00H
	ORG $+11
	ORG $+3
	DD	06d72H
	DD	014H
	DB	0caH, 0a5H, 0caH, 0a5H, 00H
	ORG $+12
	ORG $+3
	DD	06d79H
	DD	015H
	DB	0caH, 0a5H, 0deH, 0d9H, '?', 00H
	ORG $+11
	ORG $+3
	DD	06d7aH
	DD	016H
	DB	0caH, 0a5H, 0ccH, 0abH, 0d6H, 0f4H, 0ebH, 0eeH, 00H
	ORG $+8
	ORG $+3
	DD	06d7bH
	DD	017H
	DB	0ddH, 0efH, 0ddH, 0efH, 0caH, 0a5H, 00H
	ORG $+10
	ORG $+3
	DD	06d7cH
	DD	01cH
	DB	'??', 0ebH, 0eeH, 00H
	ORG $+12
	ORG $+3
	DD	06d83H
	DD	01dH
	DB	0eaH, 0ceH, 0deH, 0d9H, 00H
	ORG $+12
	ORG $+3
	DD	06d84H
	DD	01eH
	DB	0eaH, 0ceH, 0ddH, 0efH, 00H
	ORG $+12
	ORG $+3
	DD	06d85H
	DD	01fH
	DB	'?', 0d5H, 0c3H, 0d5H, 0c3H, 00H
	ORG $+11
	ORG $+3
	DD	06d86H
	DD	024H
	DB	'?', 0d5H, 0a6H, 0d1H, 0d1H, 00H
	ORG $+11
	ORG $+3
	DD	06d8dH
	DD	025H
	DB	'?', 0d5H, 0a6H, 0ccH, 0abH, 00H
	ORG $+11
	ORG $+3
	DD	06d8eH
	DD	026H
	DB	'?', 0d5H, 0a6H, '?', 00H
	ORG $+12
	ORG $+3
	DD	06d8fH
	DD	027H
	DB	'?', 0d5H, 0a6H, 0f7H, 0eeH, 0f7H, 0eeH, 00H
	ORG $+9
	ORG $+3
	DD	06d90H
	DD	02cH
	DB	'??', 00H
	ORG $+14
	ORG $+3
	DD	06d97H
	DD	02dH
	DB	'?', 0d5H, 0c3H, 0ccH, 0abH, '?', 00H
	ORG $+10
	ORG $+3
	DD	06d98H
	DD	02eH
	DB	'?', 0f1H, 0fdH, '?', 00H
	ORG $+12
	ORG $+3
	DD	06d99H
	DD	02fH
	DB	'?', 0d5H, 0c3H, '?', 00H
	ORG $+12
	ORG $+3
	DD	06d9aH
	DD	035H
	DB	0d2H, 0f9H, 0caH, 0a5H, 0deH, 0d9H, 00H
	ORG $+10
	ORG $+3
	DD	06da2H
	DD	036H
	DB	0d2H, 0f9H, 0d0H, 0f1H, 0deH, 0d9H, 00H
	ORG $+10
	ORG $+3
	DD	06da3H
	DD	037H
	DB	0f7H, 0e5H, 0d5H, 0a6H, 0caH, 0a6H, 0deH, 0d9H, 00H
	ORG $+8
	ORG $+3
	DD	06da4H
	DD	03cH
	DB	0fbH, 0bcH, 0f7H, 0eeH, 0f7H, 0eeH, 00H
	ORG $+10
	ORG $+3
	DD	06dabH
	DD	03dH
	DB	0fbH, 0bcH, '??', 00H
	ORG $+12
	ORG $+3
	DD	06dacH
	DD	03eH
	DB	'?', 0d5H, 0c3H, 0d0H, 0ecH, 0deH, 0d9H, 00H
	ORG $+9
	ORG $+3
	DD	06dadH
	DD	03fH
	DB	0d5H, 0c3H, 0d0H, 0f4H, 0deH, 0d9H, 0deH, 0d9H, 00H
	ORG $+8
	ORG $+3
	DD	06daeH
	DD	04dH
	DB	0dbH, 0c0H, '?', 0deH, 0d9H, 0d1H, 0d6H, 00H
	ORG $+9
	ORG $+3
	DD	06dc0H
	DD	04eH
	DB	'?', 0ccH, 0abH, 0deH, 0d9H, 00H
	ORG $+11
	ORG $+3
	DD	06dc1H
	DD	04fH
	DB	0eeH, 0e8H, 0d0H, 0f1H, 0ccH, 0abH, 0deH, 0d9H, 00H
	ORG $+8
	ORG $+3
	DD	06dc2H
	DD	054H
	DB	0d0H, 0baH, 0d5H, 0c3H, '?', 00H
	ORG $+11
	ORG $+3
	DD	06dc9H
	DD	055H
	DB	0d5H, 0c3H, 0deH, 0d9H, 0d0H, 0f1H, 00H
	ORG $+10
	ORG $+3
	DD	06dcaH
	DD	056H
	DB	0d7H, 0ecH, 0d5H, 0c3H, 0d5H, 0c3H, 00H
	ORG $+10
	ORG $+3
	DD	06dcbH
	DD	057H
	DB	0d0H, 0baH, '??', 00H
	ORG $+12
	ORG $+3
	DD	06dccH
	DD	05cH
	DB	'??', 0f7H, 0e5H, 00H
	ORG $+12
	ORG $+3
	DD	06dd3H
	DD	05dH
	DB	0cdH, 0e0H, 0ebH, 0eeH, 0f7H, 0e5H, 00H
	ORG $+10
	ORG $+3
	DD	06dd4H
	DD	05eH
	DB	0ddH, 0efH, 0f7H, 0e5H, 00H
	ORG $+12
	ORG $+3
	DD	06dd5H
	DD	05fH
	DB	0caH, 0a6H, '?', 0f7H, 0e5H, 00H
	ORG $+11
	ORG $+3
	DD	06dd6H
	DD	064H
	DB	0deH, 0c9H, '??', 00H
	ORG $+12
	ORG $+3
	DD	06df1H
	DD	065H
	DB	0ccH, 0abH, '?', 0fdH, 0f1H, 0d5H, 0a6H, 00H
	ORG $+9
	ORG $+3
	DD	06df2H
	DD	066H
	DB	0d8H, 0deH, '?? ', 00H
	ORG $+11
	ORG $+3
	DD	06df3H
	DD	067H
	DB	0cdH, 0fcH, 0d4H, 0f4H, '??', 00H
	ORG $+10
	ORG $+3
	DD	06df4H
	DD	06dH
	DB	'??', 00H
	ORG $+14
	ORG $+3
	DD	06e10H
	DD	06eH
	DB	0dfH, 0faH, 0d3H, 0ecH, '?', 00H
	ORG $+11
	ORG $+3
	DD	06e11H
	DD	06fH
	DB	0d9H, 0beH, '?', 00H
	ORG $+13
	ORG $+3
	DD	06e12H
	DD	074H
	DB	'?', 0d7H, 0f9H, 0d1H, 0ceH, '?', 00H
	ORG $+10
	ORG $+3
	DD	06e19H
	DD	075H
	DB	0deH, 0c8H, '??', 00H
	ORG $+12
	ORG $+3
	DD	06e1aH
	DD	076H
	DB	0e5H, 0adH, 0dcH, 0c5H, '?', 00H
	ORG $+11
	ORG $+3
	DD	06e1bH
	DD	077H
	DB	0f7H, 0f4H, 0d5H, 0c3H, 0f7H, 0f4H, 00H
	ORG $+10
	ORG $+3
	DD	06e1cH
	DD	07cH
	DB	0dcH, 0c5H, '?', 0f9H, 0beH, 00H
	ORG $+11
	ORG $+3
	DD	06e23H
	DD	07dH
	DB	0f8H, 0a5H, 0d6H, 0daH, 0f9H, 0beH, 00H
	ORG $+10
	ORG $+3
	DD	06e24H
	DD	07eH
	DB	'?', 0ccH, 0abH, '?', 00H
	ORG $+12
	ORG $+3
	DD	06e25H
	DD	07fH
	DB	'?', 0deH, 0d9H, '??', 00H
	ORG $+11
	ORG $+3
	DD	06e26H
	DD	084H
	DB	'?', 0efH, 0cbH, 0f8H, 0d6H, 0deH, 0d9H, 00H
	ORG $+9
	ORG $+3
	DD	06e37H
	DD	085H
	DB	0caH, 0a5H, 0e5H, 0adH, 0f8H, 0d6H, 0deH, 0d9H, 00H
	ORG $+8
	ORG $+3
	DD	06e38H
	DD	086H
	DB	0eeH, 0e8H, 0daH, 0b7H, 0f8H, 0d6H, 0deH, 0d9H, 00H
	ORG $+8
	ORG $+3
	DD	06e39H
	DD	087H
	DB	'?', 0d5H, 0a6H, 0f8H, 0d6H, 0deH, 0d9H, 00H
	ORG $+9
	ORG $+3
	DD	06e3aH
	DD	08cH
	DB	0eeH, 0e8H, 0caH, 0a5H, 00H
	ORG $+12
	ORG $+3
	DD	06e41H
	DD	08dH
	DB	0deH, 0e3H, '?', 00H
	ORG $+13
	ORG $+3
	DD	06e42H
	DD	08eH
	DB	0f7H, 0eeH, 0f7H, 0eeH, '?', 00H
	ORG $+11
	ORG $+3
	DD	06e43H
	DD	08fH
	DB	0d8H, 0deH, '?', 0deH, 0edH, 00H
	ORG $+11
	ORG $+3
	DD	06e44H
	DD	094H
	DB	0e9H, 0d6H, 0d7H, 0ecH, 0e8H, 0c3H, 00H
	ORG $+10
	ORG $+3
	DD	06e4bH
	DD	095H
	DB	'?', 0d7H, 0ecH, 0e8H, 0c3H, 00H
	ORG $+11
	ORG $+3
	DD	06e4cH
	DD	096H
	DB	0e4H, 0f5H, '?', 0e8H, 0c3H, 00H
	ORG $+11
	ORG $+3
	DD	06e4dH
	DD	097H
	DB	0d7H, 0ecH, '?', 0e8H, 0c3H, 00H
	ORG $+11
	ORG $+3
	DD	06e4eH
	DD	09cH
	DB	'?', 0e3H, 0a2H, 0deH, 0a3H, 00H
	ORG $+11
	ORG $+3
	DD	06e55H
	DD	09dH
	DB	0d8H, 0b0H, 0d5H, 0c3H, 0deH, 0c9H, 00H
	ORG $+10
	ORG $+3
	DD	06e56H
	DD	09eH
	DB	'?', 0deH, 0d9H, 0f7H, 0e5H, 00H
	ORG $+11
	ORG $+3
	DD	06e57H
	DD	09fH
	DB	0deH, 0deH, 0e8H, 0bfH, 0d6H, 0aaH, 00H
	ORG $+10
	ORG $+3
	DD	06e58H
	DD	0a5H
	DB	'??', 0d5H, 0c3H, 00H
	ORG $+12
	ORG $+3
	DD	06e60H
	DD	0a6H
	DB	0caH, 0a8H, 0deH, 0d9H, 0caH, 0a8H, 0deH, 0d9H, 00H
	ORG $+8
	ORG $+3
	DD	06e61H
	DD	0a7H
	DB	0d9H, 0d5H, 0caH, 0a8H, 0d5H, 0c3H, 0deH, 0d9H, 00H
	ORG $+8
	ORG $+3
	DD	06e62H
	DD	0acH
	DB	0cdH, 0b3H, 0d5H, 0f4H, 0d8H, 0a4H, 00H
	ORG $+10
	ORG $+3
	DD	06e69H
	DD	0adH
	DB	0d8H, 0a4H, 0d1H, 0ceH, 0d8H, 0a4H, 0d1H, 0ceH, 00H
	ORG $+8
	ORG $+3
	DD	06e6aH
	DD	0aeH
	DB	0d8H, 0a4H, 0daH, 0b7H, 0dfH, 0e3H, 0d5H, 0c3H, 00H
	ORG $+8
	ORG $+3
	DD	06e6bH
	DD	0afH
	DB	0d8H, 0a4H, 0fbH, 0e5H, '?', 00H
	ORG $+11
	ORG $+3
	DD	06e6cH
	DD	0b4H
	DB	0caH, 0a6H, 0caH, 0a6H, 0ebH, 0daH, 00H
	ORG $+10
	ORG $+3
	DD	06e73H
	DD	0b5H
	DB	0d0H, 0baH, 0d5H, 0a6H, 0ebH, 0daH, 00H
	ORG $+10
	ORG $+3
	DD	06e74H
	DD	0b6H
	DB	0f8H, 0d6H, '?', 0ebH, 0daH, 00H
	ORG $+11
	ORG $+3
	DD	06e75H
	DD	0b7H
	DB	0eeH, 0e8H, 0f8H, 0d6H, 0ebH, 0daH, 00H
	ORG $+10
	ORG $+3
	DD	06e76H
	DD	0bcH
	DB	0ccH, 0abH, 0d7H, 0ecH, '?', 00H
	ORG $+11
	ORG $+3
	DD	06e87H
	DD	0bdH
	DB	0d8H, 0a4H, 0d7H, 0ecH, 00H
	ORG $+12
	ORG $+3
	DD	06e88H
	DD	0beH
	DB	0dfH, 0faH, 0d7H, 0ecH, 0e0H, 0a4H, '?', 00H
	ORG $+9
	ORG $+3
	DD	06e89H
	DD	0bfH
	DB	0f7H, 0b2H, 0deH, 0d9H, 0dcH, 0fdH, 00H
	ORG $+10
	ORG $+3
	DD	06e8aH
	DD	0c4H
	DB	'?', 0f7H, 0e9H, 0d2H, 0afH, 0f7H, 0e5H, 00H
	ORG $+9
	ORG $+3
	DD	06e91H
	DD	0c5H
	DB	0daH, 0e8H, 0d2H, 0f9H, 0eeH, 0e8H, 0d0H, 0baH, 00H
	ORG $+8
	ORG $+3
	DD	06e92H
	DD	0c6H
	DB	0e4H, 0b9H, 0daH, 0b7H, '?', 00H
	ORG $+11
	ORG $+3
	DD	06e93H
	DD	0c7H
	DB	0dbH, 0c0H, 0deH, 0c9H, 0d5H, 0d8H, '?', 00H
	ORG $+9
	ORG $+3
	DD	06e94H
	DD	0cdH
	DB	0f8H, 0d6H, '??', 00H
	ORG $+12
	ORG $+3
	DD	06e9cH
	DD	0ceH
	DB	0f8H, 0d6H, 0ebH, 0eeH, '?', 0deH, 0d9H, 00H
	ORG $+9
	ORG $+3
	DD	06e9dH
	DD	0cfH
	DB	0ecH, 0a5H, 0dcH, 0fdH, '?', 0ebH, 0daH, 00H
	ORG $+9
	ORG $+3
	DD	06e9eH
	DD	0d5H
	DB	'?', 0d9H, 0b5H, 0d5H, 0a6H, 0deH, 0d9H, 00H
	ORG $+9
	ORG $+3
	DD	06ea6H
	DD	0d6H
	DB	0f1H, 0b9H, 0d7H, 0d7H, 0d5H, 0a6H, 0deH, 0d9H, 00H
	ORG $+8
	ORG $+3
	DD	06ea7H
	DD	0d7H
	DB	0e3H, 0f4H, 0dcH, 0c5H, 0d5H, 0a6H, 0deH, 0d9H, 00H
	ORG $+8
	ORG $+3
	DD	06ea8H
	DD	0dcH
	DB	0d8H, 0a1H, 0d4H, 0e1H, '?', 0deH, 0d9H, 00H
	ORG $+9
	ORG $+3
	DD	06eafH
	DD	0ddH
	DB	'?', 0d0H, 0baH, 0deH, 0d9H, 00H
	ORG $+11
	ORG $+3
	DD	06eb0H
	DD	0deH
	DB	0f7H, 0e9H, 0d0H, 0baH, '?', 0deH, 0c9H, 00H
	ORG $+9
	ORG $+3
	DD	06eb1H
	DD	0dfH
	DB	0d6H, 0f4H, 0d3H, 0ecH, 0d5H, 0f4H, 0d0H, 0baH, 0deH, 0d9H
	DB	00H
	ORG $+6
	ORG $+3
	DD	06eb2H
	DD	0e0H
	DB	0caH, 0e7H, 0d6H, 0f4H, 0d0H, 0f1H, '?', 00H
	ORG $+9
	ORG $+3
	DD	06eb7H
	DD	0e1H
	DB	0caH, 0e7H, 0d6H, 0f4H, 0d5H, 0a6H, 0ddH, 0efH, 00H
	ORG $+8
	ORG $+3
	DD	06eb5H
	DD	0e2H
	DB	0caH, 0e7H, 0d6H, 0f4H, 0d1H, 0ceH, '?', 00H
	ORG $+9
	ORG $+3
	DD	06eb6H
	DD	0e3H
	DB	0caH, 0e7H, 0d6H, 0f4H, '?', 0ebH, 0daH, 00H
	ORG $+9
	ORG $+3
	DD	06eb8H
	DD	0e4H
	DB	0d1H, 0ceH, 0ddH, 0efH, 00H
	ORG $+12
	ORG $+3
	DD	06ebfH
	DD	0e5H
	DB	'?', 0ebH, 0daH, 00H
	ORG $+13
	ORG $+3
	DD	06ec0H
	DD	0e6H
	DB	0deH, 0c8H, '?', 0d7H, 0cdH, '?', 00H
	ORG $+10
	ORG $+3
	DD	06ec3H
	DD	0e7H
	DB	0cdH, 0afH, 0deH, 0d9H, 0f7H, 0e5H, 00H
	ORG $+10
	ORG $+3
	DD	06ec2H
	DD	0e8H
	DB	'?', 0ebH, 0daH, 0ccH, 0abH, 0d4H, 0f4H, 00H
	ORG $+9
	ORG $+3
	DD	06ec6H
	DD	0e9H
	DB	'?', 0ebH, 0daH, 0daH, 0b7H, '?', 00H
	ORG $+10
	ORG $+3
	DD	06ec4H
	DD	0eaH
	DB	'?', 0ebH, 0daH, 0dbH, 0f6H, '?', 00H
	ORG $+10
	ORG $+3
	DD	06ec5H
	DD	0ebH
	DB	'?', 0ebH, 0daH, 0e1H, 0f3H, 0ddH, 0efH, 00H
	ORG $+9
	ORG $+3
	DD	06ec7H
	DD	0ecH
	DB	'?', 0ddH, 0efH, 00H
	ORG $+13
	ORG $+3
	DD	06ec8H
	DD	0edH
	DB	0d9H, 0d5H, 0d0H, 0f4H, 00H
	ORG $+12
	ORG $+3
	DD	06ecaH
	DD	0eeH
	DB	0deH, 0a3H, 0d0H, 0f4H, '?', 00H
	ORG $+11
	ORG $+3
	DD	06ec9H
	DD	0efH
	DB	0e4H, 0f5H, 0eeH, 0e8H, 0fdH, 0f1H, 0d5H, 0a6H, 00H
	ORG $+8
	ORG $+3
	DD	06ecbH
	DD	0f0H
	DB	0d6H, 0f4H, 0ebH, 0daH, 0f7H, 0e9H, 0d0H, 0e9H, 00H
	ORG $+8
	ORG $+3
	DD	06eccH
	DD	0f1H
	DB	0dbH, 0f6H, '?', 0f7H, 0e9H, 0d0H, 0e9H, 00H
	ORG $+9
	ORG $+3
	DD	06ecdH
	DD	0f2H
	DB	0d0H, 0f4H, '?', 0f7H, 0e9H, 0d0H, 0e9H, 00H
	ORG $+9
	ORG $+3
	DD	06ecfH
	DD	0f3H
	DB	0ccH, 0abH, 0d7H, 0f9H, 0f7H, 0e9H, 0d0H, 0e9H, 00H
	ORG $+8
	ORG $+3
	DD	06eceH
	DD	0f4H
	DB	0eeH, 0e1H, '?', 0d7H, 0ecH, 0ebH, 0daH, 00H
	ORG $+9
	ORG $+3
	DD	06ed0H
	DD	0f5H
	DB	0faH, 0d3H, 0d5H, 0c3H, 0d0H, 0baH, 0d7H, 0cdH, 0deH, 0d9H
	DB	00H
	ORG $+6
	ORG $+3
	DD	06ed1H
	DD	0f6H
	DB	0daH, 0b7H, '?', 0d2H, 0fdH, 00H
	ORG $+11
	ORG $+3
	DD	06ed4H
	DD	0f7H
	DB	0d2H, 0fdH, '?', 0d2H, 0fdH, 00H
	ORG $+11
	ORG $+3
	DD	06ed5H
	DD	0f8H
	DB	0f8H, 0d6H, '?', 0d8H, 0a4H, 00H
	ORG $+11
	ORG $+3
	DD	06ed6H
	DD	0f9H
	DB	0d5H, 0a6H, 0d0H, 0f4H, 0deH, 0d9H, 0d3H, 0ecH, 00H
	ORG $+8
	ORG $+3
	DD	06ed2H
	DD	0faH
	DB	'?', 0d1H, 0e1H, 00H
	ORG $+13
	ORG $+3
	DD	06ed3H
	DD	0fbH
	DB	'??', 0deH, 0d9H, 00H
	ORG $+12
	ORG $+3
	DD	06ed7H
	DD	0fcH
	DB	0d6H, 0f4H, '?', 0f7H, 0e5H, 00H
	ORG $+11
	ORG $+3
	DD	06ed8H
	DD	0fdH
	DB	0deH, 0a3H, 0deH, 0d9H, '?', 00H
	ORG $+11
	ORG $+3
	DD	06ed9H
	DD	0feH
	DB	'???', 00H
	ORG $+13
	ORG $+3
	DD	06edaH
	DD	0ffH
	DB	0deH, 0c8H, 0d2H, 0afH, 0d0H, 0baH, 0f7H, 0e5H, 00H
	ORG $+8
	ORG $+3
	DD	06edbH
	DD	0100H
	DB	0caH, 0e7H, 0d7H, 0d7H, 0deH, 0d9H, 0d2H, 0afH, 00H
	ORG $+8
	ORG $+3
	DD	06edcH
	DD	0101H
	DB	0e4H, 0f5H, 0ddH, 0efH, 0deH, 0d9H, 00H
	ORG $+10
	ORG $+3
	DD	06eddH
	DD	0102H
	DB	0d5H, 0c3H, 0f7H, 0e5H, 0d7H, 0d7H, 00H
	ORG $+10
	ORG $+3
	DD	06edeH
	DD	0103H
	DB	'?', 0ccH, 0abH, 0e4H, 0f5H, 0deH, 0d9H, 00H
	ORG $+9
	ORG $+3
	DD	06edfH
	DD	0104H
	DB	'?', 0ddH, 0efH, 0deH, 0d9H, 00H
	ORG $+11
	ORG $+3
	DD	06ee0H
	DD	0105H
	DB	0e4H, 0b9H, '?', 0e0H, 0a4H, 0deH, 0d9H, 00H
	ORG $+9
	ORG $+3
	DD	06ee1H
	DD	0106H
	DB	0d5H, 0a6H, 0caH, 0a6H, 0d5H, 0a6H, 0deH, 0d9H, 00H
	ORG $+8
	ORG $+3
	DD	06ee2H
	DD	0107H
	DB	0dbH, 0f6H, '?', 0d9H, 0d5H, 0f7H, 0e5H, 00H
	ORG $+9
	ORG $+3
	DD	06ee3H
	DD	0108H
	DB	0d6H, 0f4H, 0ccH, 0abH, 0f7H, 0e5H, 00H
	ORG $+10
	ORG $+3
	DD	06ee4H
	DD	0109H
	DB	0d5H, 0a6H, 0d0H, 0baH, '?', 00H
	ORG $+11
	ORG $+3
	DD	06ee5H
	DD	010aH
	DB	0daH, 0b7H, 0ebH, 0daH, 0deH, 0d9H, 0f7H, 0e5H, 00H
	ORG $+8
	ORG $+3
	DD	06ee6H
	DD	010bH
	DB	0d7H, 0d7H, 0e0H, 0a4H, '?', 00H
	ORG $+11
	ORG $+3
	DD	06ee7H
	DD	010cH
	DB	0f8H, 0a5H, '??', 00H
	ORG $+12
	ORG $+3
	DD	06ee8H
	DD	010dH
	DB	0ecH, 0a5H, 0d7H, 0d7H, 0d8H, 0baH, '?', 00H
	ORG $+9
	ORG $+3
	DD	06ee9H
	DD	010eH
	DB	'?', 0d5H, 0f4H, 0d5H, 0a6H, '?', 00H
	ORG $+10
	ORG $+3
	DD	06eeaH
	DD	010fH
	DB	'?', 0dcH, 0c5H, '?', 0deH, 0d9H, 00H
	ORG $+10
	ORG $+3
	DD	06eebH
	DD	0110H
	DB	0d7H, 0d7H, 0dcH, 0c5H, 0d2H, 0fdH, '?', 00H
	ORG $+9
	ORG $+3
	DD	06eecH
	DD	0111H
	DB	0dbH, 0c0H, 0d0H, 0baH, 0dcH, 0c5H, 0deH, 0d9H, 00H
	ORG $+8
	ORG $+3
	DD	06eeeH
	DD	0112H
	DB	0d5H, 0c3H, 0ddH, 0d6H, 0d5H, 0a6H, 0deH, 0d9H, 00H
	ORG $+8
	ORG $+3
	DD	06eedH
	DD	0113H
	DB	0eeH, 0e8H, '?', 0cdH, 0afH, 0deH, 0d9H, 00H
	ORG $+9
	ORG $+3
	DD	06eefH
	DD	0114H
	DB	'??', 0cdH, 0afH, 0deH, 0d9H, 00H
	ORG $+10
	ORG $+3
	DD	06ef0H
	DD	0115H
	DB	'?', 0d5H, 0a6H, 0dcH, 0c5H, 00H
	ORG $+11
	ORG $+3
	DD	06ef1H
	DD	0116H
	DB	'?', 0d0H, 0baH, 0dcH, 0c5H, 00H
	ORG $+11
	ORG $+3
	DD	06ef2H
	DD	0117H
	DB	0e0H, 0a4H, 0e1H, 0f3H, 00H
	ORG $+12
	ORG $+3
	DD	06ef3H
	DD	0118H
	DB	0f9H, 0ebH, '?', 0e1H, 0f3H, 00H
	ORG $+11
	ORG $+3
	DD	06ef4H
	DD	0119H
	DB	0ddH, 0d7H, 0d7H, 0d7H, 0e1H, 0f3H, 00H
	ORG $+10
	ORG $+3
	DD	06ef5H
	DD	011aH
	DB	0f7H, 0e9H, 0d7H, 0d7H, 00H
	ORG $+12
	ORG $+3
	DD	06ef6H
	DD	011bH
	DB	0e4H, 0baH, 0f7H, 0e5H, 0d5H, 0c3H, 0deH, 0d9H, 00H
	ORG $+8
	ORG $+3
	DD	06efbH
	DD	011cH
	DB	0ecH, 0a5H, 0d7H, 0d7H, '?', 0d3H, 0ecH, 00H
	ORG $+9
	ORG $+3
	DD	06efaH
	DD	011dH
	DB	0daH, 0b7H, 0d2H, 0f9H, 0d2H, 0afH, 0f7H, 0e9H, 00H
	ORG $+8
	ORG $+3
	DD	06ef8H
	DD	011eH
	DB	0d3H, 0ecH, 0d5H, 0c3H, 0deH, 0d9H, 00H
	ORG $+10
	ORG $+3
	DD	06ef7H
	DD	011fH
	DB	0ceH, 0a1H, '?', 0f7H, 0e5H, 00H
	ORG $+11
	ORG $+3
	DD	06ef9H
	DD	0120H
	DB	0dbH, 0c0H, '?', 0d7H, 0ecH, 00H
	ORG $+11
	ORG $+3
	DD	06efcH
	DD	0121H
	DB	0caH, 0a5H, 0d6H, 0f4H, 00H
	ORG $+12
	ORG $+3
	DD	06efdH
	DD	0122H
	DB	0caH, 0a5H, 0cdH, 0afH, 0f7H, 0e5H, 00H
	ORG $+10
	ORG $+3
	DD	06efeH
	DD	0123H
	DB	0dbH, 0c0H, 0e0H, 0a4H, 0dcH, 0c5H, 00H
	ORG $+10
	ORG $+3
	DD	06effH
	DD	0124H
	DB	0ecH, 0a5H, '???', 00H
	ORG $+11
	ORG $+3
	DD	06f00H
	DD	0125H
	DB	0d5H, 0c3H, 0ccH, 0abH, 0d2H, 0fdH, '?', 00H
	ORG $+9
	ORG $+3
	DD	06f01H
	DD	0126H
	DB	0e0H, 0a4H, '?', 0d0H, 0baH, '?', 00H
	ORG $+10
	ORG $+3
	DD	06f02H
	DD	0127H
	DB	0d0H, 0baH, '?', 0d1H, 0e1H, 0deH, 0d9H, 00H
	ORG $+9
	ORG $+3
	DD	06f03H
	DD	0128H
	DB	'?', 0daH, 0aaH, 0d3H, 0b1H, 00H
	ORG $+11
	ORG $+3
	DD	06f04H
	DD	0129H
	DB	0f4H, 0deH, 0d2H, 0f9H, 0f8H, 0d6H, 00H
	ORG $+10
	ORG $+3
	DD	06f05H
	DD	012aH
	DB	0f4H, 0deH, 0d2H, 0f9H, '?', 00H
	ORG $+11
	ORG $+3
	DD	06f06H
	DD	012bH
	DB	0f4H, 0deH, 0d2H, 0f9H, 0ebH, 0daH, 00H
	ORG $+10
	ORG $+3
	DD	06f07H
	DD	012cH
	DB	0f4H, 0deH, 0d2H, 0f9H, 0deH, 0d9H, 00H
	ORG $+10
	ORG $+3
	DD	06f08H
	DD	012dH
	DB	'?', 0d5H, 0a6H, 0d0H, 0f4H, 0deH, 0d9H, 00H
	ORG $+9
	ORG $+3
	DD	06f09H
	DD	012eH
	DB	'?', 0d5H, 0a6H, 0caH, 0a6H, 0d7H, 0d7H, 00H
	ORG $+9
	ORG $+3
	DD	06f0aH
	DD	012fH
	DB	'?', 0d5H, 0a6H, '??', 00H
	ORG $+11
	ORG $+3
	DD	06f0bH
	DD	0130H
	DB	'?', 0d5H, 0a6H, 0ddH, 0efH, 0d0H, 0baH, 00H
	ORG $+9
	ORG $+3
	DD	06f0cH
	DD	0131H
	DB	0d6H, 0f4H, 0f0H, 0a8H, 0deH, 0d9H, 0d5H, 0a6H, 00H
	ORG $+8
	ORG $+3
	DD	06f0dH
	DD	0132H
	DB	0deH, 0c8H, '??', 00H
	ORG $+12
	ORG $+3
	DD	06f2bH
	DD	0133H
	DB	0deH, 0c8H, '?', 0f7H, 0e5H, 00H
	ORG $+11
	ORG $+3
	DD	06f2aH
	DD	0134H
	DB	0d5H, 0a6H, 0e4H, 0ccH, 0d0H, 0f4H, 00H
	ORG $+10
	ORG $+3
	DD	06f2eH
	DD	0135H
	DB	0d5H, 0a6H, 0deH, 0d9H, 0d0H, 0baH, 00H
	ORG $+10
	ORG $+3
	DD	06f2fH
	DD	0136H
	DB	0d6H, 0f4H, 0ddH, 0efH, 0f7H, 0e5H, 00H
	ORG $+10
	ORG $+3
	DD	06f2dH
	DD	0137H
	DB	0d5H, 0a6H, 0ddH, 0efH, 0f7H, 0e5H, 00H
	ORG $+10
	ORG $+3
	DD	06f2cH
	DD	0138H
	DB	0e0H, 0a4H, 0dbH, 0daH, 0d0H, 0baH, 00H
	ORG $+10
	ORG $+3
	DD	06f1aH
	DD	0139H
	DB	0f7H, 0e5H, 0d7H, 0d7H, 0deH, 0d9H, 0d0H, 0baH, 00H
	ORG $+8
	ORG $+3
	DD	06f1bH
	DD	013aH
	DB	0deH, 0deH, 0e8H, 0bfH, 0d0H, 0baH, 00H
	ORG $+10
	ORG $+3
	DD	06f0eH
	DD	013bH
	DB	0deH, 0deH, 0d6H, 0aaH, 0d0H, 0baH, 00H
	ORG $+10
	ORG $+3
	DD	06f0fH
	DD	013cH
	DB	0f7H, 0e5H, 0d6H, 0f4H, 0d0H, 0baH, 0d5H, 0a6H, 00H
	ORG $+8
	ORG $+3
	DD	06f34H
	DD	013dH
	DB	0f7H, 0e5H, 0d6H, 0f4H, 0d1H, 0ceH, 0d5H, 0a6H, 00H
	ORG $+8
	ORG $+3
	DD	06f35H
	DD	013eH
	DB	'?', 0caH, 0a6H, 0d5H, 0a6H, 00H
	ORG $+11
	ORG $+3
	DD	06f17H
	DD	013fH
	DB	'?', 0d6H, 0f4H, 0deH, 0d9H, 00H
	ORG $+11
	ORG $+3
	DD	06f16H
	DD	0140H
	DB	0d0H, 0baH, 0d7H, 0d7H, 0d2H, 0fdH, 0deH, 0d9H, 00H
	ORG $+8
	ORG $+3
	DD	06f30H
	DD	0141H
	DB	0d2H, 0fdH, 0d7H, 0d7H, 0caH, 0a6H, 0deH, 0d9H, 00H
	ORG $+8
	ORG $+3
	DD	06f31H
	DD	0142H
	DB	0d2H, 0fdH, '?', 0d0H, 0baH, 00H
	ORG $+11
	ORG $+3
	DD	06f13H
	DD	0143H
	DB	0d1H, 0e1H, '?', 0deH, 0d9H, 00H
	ORG $+11
	ORG $+3
	DD	06f12H
	DD	0144H
	DB	0f7H, 0b2H, 0d0H, 0baH, 00H
	ORG $+12
	ORG $+3
	DD	06f22H
	DD	0145H
	DB	'?', 0f7H, 0e5H, 0dcH, 0c5H, 00H
	ORG $+11
	ORG $+3
	DD	06f23H
	DD	0146H
	DB	0d1H, 0e1H, 0f0H, 0abH, 0d5H, 0c3H, 00H
	ORG $+10
	ORG $+3
	DD	06f36H
	DD	0147H
	DB	0f8H, 0d6H, 0deH, 0d9H, 0eeH, 0e8H, 00H
	ORG $+10
	ORG $+3
	DD	06f37H
	DD	0148H
	DB	0f7H, 0e5H, 0d6H, 0f4H, 0deH, 0deH, 00H
	ORG $+10
	ORG $+3
	DD	06f29H
	DD	0149H
	DB	0dbH, 0daH, 0d5H, 0a6H, 0d3H, 0ecH, 00H
	ORG $+10
	ORG $+3
	DD	06f28H
	DD	014aH
	DB	0deH, 0c8H, 0ddH, 0efH, 0f7H, 0e5H, 00H
	ORG $+10
	ORG $+3
	DD	06f32H
	DD	014bH
	DB	0e4H, 0f5H, 0deH, 0d9H, 0f7H, 0a4H, 00H
	ORG $+10
	ORG $+3
	DD	06f33H
	DD	014cH
	DB	0cbH, 0acH, '?', 0f7H, 0e5H, 00H
	ORG $+11
	ORG $+3
	DD	06f26H
	DD	014dH
	DB	0dbH, 0d7H, 0d5H, 0a6H, 0e0H, 0a4H, 00H
	ORG $+10
	ORG $+3
	DD	06f27H
	DD	014eH
	DB	0e0H, 0a4H, 0cdH, 0c5H, 00H
	ORG $+12
	ORG $+3
	DD	06f19H
	DD	014fH
	DB	'?', 0d1H, 0e1H, 0deH, 0d9H, 00H
	ORG $+11
	ORG $+3
	DD	06f18H
	DD	0150H
	DB	'?', 0f7H, 0e5H, 00H
	ORG $+13
	ORG $+3
	DD	06f15H
	DD	0151H
	DB	'?', 0dbH, 0d7H, 00H
	ORG $+13
	ORG $+3
	DD	06f14H
	DD	0152H
	DB	0f9H, 0beH, 0dcH, 0c5H, 0d3H, 0ecH, 00H
	ORG $+10
	ORG $+3
	DD	06f1cH
	DD	0153H
	DB	0f9H, 0beH, 0deH, 0d9H, 0d3H, 0ecH, 00H
	ORG $+10
	ORG $+3
	DD	06f1dH
	DD	0154H
	DB	0ecH, 0a5H, 0cdH, 0afH, 0d6H, 0f4H, 00H
	ORG $+10
	ORG $+3
	DD	06f24H
	DD	0155H
	DB	0ecH, 0a5H, 0d0H, 0baH, 0d2H, 0fdH, 00H
	ORG $+10
	ORG $+3
	DD	06f25H
	DD	0156H
	DB	0d0H, 0f4H, 0ccH, 0abH, 0d5H, 0c3H, 00H
	ORG $+10
	ORG $+3
	DD	06f1eH
	DD	0157H
	DB	0d2H, 0fdH, 0ccH, 0abH, 0deH, 0d9H, 00H
	ORG $+10
	ORG $+3
	DD	06f1fH
	DD	0158H
	DB	'?', 0e8H, 0aaH, 0f7H, 0e5H, 00H
	ORG $+11
	ORG $+3
	DD	06f10H
	DD	0159H
	DB	'?', 0ebH, 0daH, 0deH, 0d9H, 00H
	ORG $+11
	ORG $+3
	DD	06f11H
	DD	015aH
	DB	0f7H, 0b2H, 0deH, 0d9H, 0d8H, 0a4H, 0daH, 0b7H, 00H
	ORG $+8
	ORG $+3
	DD	06f38H
	DD	015bH
	DB	'?', 0e0H, 0a4H, 0d8H, 0a4H, 0daH, 0b7H, 00H
	ORG $+9
	ORG $+3
	DD	06f39H
	DD	015cH
	DB	0d5H, 0a6H, 0d3H, 0ecH, 0d8H, 0a4H, 0daH, 0b7H, 00H
	ORG $+8
	ORG $+3
	DD	06f3aH
	DD	015dH
	DB	0e4H, 0f5H, '?', 0d8H, 0a4H, 0daH, 0b7H, 00H
	ORG $+9
	ORG $+3
	DD	06f3bH
	DD	015eH
	DB	'?', 0d2H, 0fdH, 0d0H, 0baH, 0d6H, 0f4H, 00H
	ORG $+9
	ORG $+3
	DD	06f3cH
	DD	015fH
	DB	'?', 0f7H, 0e5H, 0d0H, 0baH, 0d5H, 0c3H, 00H
	ORG $+9
	ORG $+3
	DD	06f21H
	DD	0160H
	DB	0f7H, 0eeH, 0ddH, 0efH, 00H
	ORG $+12
	ORG $+3
	DD	06f3dH
	DD	0161H
	DB	0deH, 0c8H, '?', 0f9H, 0abH, '?', 00H
	ORG $+10
	ORG $+3
	DD	06f3eH
	DD	0162H
	DB	0deH, 0c8H, '?', 0f9H, 0abH, 0d0H, 0baH, 00H
	ORG $+9
	ORG $+3
	DD	06f3fH
	DD	0163H
	DB	0deH, 0c8H, '?', 0f9H, 0abH, '?', 00H
	ORG $+10
	ORG $+3
	DD	06f40H
	DD	0164H
	DB	0deH, 0c8H, '?', 0f9H, 0abH, '?', 00H
	ORG $+10
	ORG $+3
	DD	06f41H
	DD	0165H
	DB	0deH, 0a3H, 0d0H, 0f4H, '?', 00H
	ORG $+11
	ORG $+3
	DD	06f42H
	DD	0166H
	DB	0f7H, 0e9H, '?', 0d2H, 0fdH, 00H
	ORG $+11
	ORG $+3
	DD	06f47H
	DD	0167H
	DB	0f7H, 0e9H, '?', 0f7H, 0e5H, 00H
	ORG $+11
	ORG $+3
	DD	06f48H
	DD	0168H
	DB	0d0H, 0baH, 0d6H, 0f4H, 0d2H, 0fdH, 00H
	ORG $+10
	ORG $+3
	DD	06f43H
	DD	0169H
	DB	0dbH, 0c6H, '?', 0d2H, 0fdH, 00H
	ORG $+11
	ORG $+3
	DD	06f44H
	DD	016aH
	DB	'?', 0caH, 0a6H, 0deH, 0d9H, 00H
	ORG $+11
	ORG $+3
	DD	06f45H
	DD	016bH
	DB	'??', 0deH, 0d9H, 00H
	ORG $+12
	ORG $+3
	DD	06f46H
	DD	016cH
	DB	0d2H, 0fdH, 0ddH, 0d2H, 00H
	ORG $+12
	ORG $+3
	DD	06f49H
	DD	016dH
	DB	'?', 0d2H, 0fdH, 0ddH, 0d2H, 00H
	ORG $+11
	ORG $+3
	DD	06f4aH
	DD	016eH
	DB	0d2H, 0fdH, 0dfH, 0faH, 0d7H, 0ecH, 00H
	ORG $+10
	ORG $+3
	DD	06f4bH
	DD	016fH
	DB	'?', 0dfH, 0faH, 0d7H, 0ecH, 00H
	ORG $+11
	ORG $+3
	DD	06f4cH
	DD	0170H
	DB	0deH, 0c8H, 0d0H, 0baH, 0cbH, 0f9H, 00H
	ORG $+10
	ORG $+3
	DD	06f4dH
	DD	0171H
	DB	0deH, 0c8H, 0deH, 0a3H, 0d5H, 0a6H, 00H
	ORG $+10
	ORG $+3
	DD	06f4eH
	DD	0172H
	DB	'?', 0d6H, 0d8H, '?', 00H
	ORG $+12
	ORG $+3
	DD	06f4fH
	DD	0173H
	DB	0d0H, 0f4H, 0d6H, 0d8H, '?', 00H
	ORG $+11
	ORG $+3
	DD	06f50H
	DD	0174H
	DB	'???', 00H
	ORG $+13
	ORG $+3
	DD	06f51H
	DD	0175H
	DB	'???', 00H
	ORG $+13
	ORG $+3
	DD	06f52H
	DD	0176H
	DB	0deH, 0d9H, '?', 0d0H, 0baH, 00H
	ORG $+11
	ORG $+3
	DD	06f53H
	DD	0177H
	DB	0e0H, 0a4H, 0deH, 0d9H, '?', 00H
	ORG $+11
	ORG $+3
	DD	06f54H
	DD	0178H
	DB	0d0H, 0f4H, 0d0H, 0e9H, 0e8H, 0aaH, 00H
	ORG $+10
	ORG $+3
	DD	06f55H
	DD	0179H
	DB	0d0H, 0f4H, 0d0H, 0e9H, 0d0H, 0baH, 0d2H, 0afH, 00H
	ORG $+8
	ORG $+3
	DD	06f56H
	DD	017aH
	DB	'??', 0d7H, 0d7H, 00H
	ORG $+12
	ORG $+3
	DD	06f57H
	DD	017bH
	DB	'??', 0d2H, 0fdH, 00H
	ORG $+12
	ORG $+3
	DD	06f58H
	DD	017cH
	DB	0caH, 0e7H, 0d7H, 0d7H, 0deH, 0d9H, 0d2H, 0afH, 00H
	ORG $+8
	ORG $+3
	DD	06f59H
	DD	017dH
	DB	0deH, 0c8H, 0d2H, 0afH, 0d0H, 0baH, 0f7H, 0e5H, 00H
	ORG $+8
	ORG $+3
	DD	06f5aH
	DD	017eH
	DB	0e4H, 0f5H, 0dbH, 0daH, 0dfH, 0faH, 00H
	ORG $+10
	ORG $+3
	DD	06f5bH
	DD	017fH
	DB	0fbH, 0bcH, '?', 0dfH, 0faH, 00H
	ORG $+11
	ORG $+3
	DD	06f5cH
	DD	0180H
	DB	'?', 0d7H, 0ecH, '??', 00H
	ORG $+11
	ORG $+3
	DD	06f5dH
	DD	0181H
	DB	'?', 0dbH, 0f6H, '??', 00H
	ORG $+11
	ORG $+3
	DD	06f5eH
	DD	0182H
	DB	'????', 00H
	ORG $+12
	ORG $+3
	DD	06f5fH
	DD	0183H
	DB	0d2H, 0fdH, '???', 00H
	ORG $+11
	ORG $+3
	DD	06f60H
	DD	0184H
	DB	0d7H, 0ecH, 0d3H, 0ecH, '?', 00H
	ORG $+11
	ORG $+3
	DD	06f61H
	DD	0185H
	DB	'?', 0d3H, 0ecH, 0deH, 0d9H, '?', 00H
	ORG $+10
	ORG $+3
	DD	06f62H
	DD	0186H
	DB	'?', 0d3H, 0ecH, 0eeH, 0e8H, 0ddH, 0efH, 00H
	ORG $+9
	ORG $+3
	DD	06f63H
	DD	0187H
	DB	'?', 0dfH, 0e4H, '?1', 00H
	ORG $+11
	ORG $+3
	DD	06f64H
	DD	0188H
	DB	'?', 0dfH, 0e4H, '?2', 00H
	ORG $+11
	ORG $+3
	DD	06f65H
	DD	0189H
	DB	0ddH, 0d7H, '?', 0e4H, 0baH, 00H
	ORG $+11
	ORG $+3
	DD	06f66H
	DD	018aH
	DB	0ddH, 0d7H, '?', 0d6H, 0daH, 00H
	ORG $+11
	ORG $+3
	DD	06f67H
	DD	018bH
	DB	0dfH, 0b2H, 0caH, 0c7H, '?1', 00H
	ORG $+10
	ORG $+3
	DD	06f69H
	DD	018cH
	DB	0dfH, 0b2H, 0caH, 0c7H, '?2', 00H
	ORG $+10
	ORG $+3
	DD	06f6aH
	DD	018dH
	DB	0ddH, 0d6H, 0d0H, 0baH, 0deH, 0d9H, 00H
	ORG $+10
	ORG $+3
	DD	06f68H
	DD	018eH
	DB	'?', 0d5H, 0f4H, 0e8H, 0ddH, 00H
	ORG $+11
	ORG $+3
	DD	06f6bH
	DD	018fH
	DB	0daH, 0b8H, 0d5H, 0c3H, 00H
	ORG $+12
	ORG $+3
	DD	06f6cH
	DD	0190H
	DB	'?', 0eeH, 0e8H, 00H
	ORG $+13
	ORG $+3
	DD	06f6dH
	DD	0191H
	DB	0d0H, 0f4H, 0ddH, 0dbH, 0deH, 0a3H, 0d3H, 0ecH, 00H
	ORG $+8
	ORG $+3
	DD	06f6eH
	DD	0192H
	DB	0d0H, 0f4H, 0ddH, 0dbH, '?', 0deH, 0d9H, 00H
	ORG $+9
	ORG $+3
	DD	06f6fH
	DD	0193H
	DB	0d0H, 0f4H, 0ddH, 0dbH, 0d3H, 0ecH, 0daH, 0b8H, 00H
	ORG $+8
	ORG $+3
	DD	06f70H
	DD	0194H
	DB	0d0H, 0f4H, 0ddH, 0dbH, 0d5H, 0a6H, 0ebH, 0eeH, 00H
	ORG $+8
	ORG $+3
	DD	06f71H
	DD	0195H
	DB	0f9H, 0ebH, 0e8H, 0aaH, 0deH, 0d9H, 00H
	ORG $+10
	ORG $+3
	DD	06f72H
	DD	0196H
	DB	0f9H, 0ebH, 0e8H, 0aaH, 0ebH, 0daH, 00H
	ORG $+10
	ORG $+3
	DD	06f73H
	DD	0197H
	DB	0d6H, 0f4H, '?', 00H
	ORG $+13
	ORG $+3
	DD	06f74H
	DD	0198H
	DB	0f9H, 0ebH, 0d7H, 0d7H, 0ebH, 0daH, 0deH, 0d9H, 00H
	ORG $+8
	ORG $+3
	DD	06f75H
	DD	0199H
	DB	0f4H, 0deH, 0ecH, 0a5H, '?', 0deH, 0d9H, 00H
	ORG $+9
	ORG $+3
	DD	06f76H
	DD	019aH
	DB	0d7H, 0d7H, '???', 00H
	ORG $+11
	ORG $+3
	DD	06f77H
	DD	019bH
	DB	'?', 0d0H, 0f4H, 0d5H, 0a6H, 0deH, 0d9H, 00H
	ORG $+9
	ORG $+3
	DD	06f78H
	DD	019cH
	DB	0dbH, 0c0H, 0d0H, 0f4H, '?', 00H
	ORG $+11
	ORG $+3
	DD	06f79H
	DD	019dH
	DB	0f8H, 0d6H, '??', 00H
	ORG $+12
	ORG $+3
	DD	06f7aH
	DD	019eH
	DB	0f8H, 0d6H, 0d7H, 0ecH, '??', 00H
	ORG $+10
	ORG $+3
	DD	06f7bH
	DD	019fH
	DB	0e8H, 0aaH, 0d0H, 0baH, 0ddH, 0efH, 00H
	ORG $+10
	ORG $+3
	DD	06f7cH
	DD	01a0H
	DB	0e8H, 0aaH, 0deH, 0d9H, 0d9H, 0b5H, 00H
	ORG $+10
	ORG $+3
	DD	06f7dH
	DD	01a1H
	DB	0f7H, 0e9H, 0e4H, 0baH, 00H
	ORG $+12
	ORG $+3
	DD	06f7eH
	DD	01a2H
	DB	0f7H, 0e9H, 0f7H, 0e5H, 00H
	ORG $+12
	ORG $+3
	DD	06f7fH
	DD	01a3H
	DB	0fdH, 0d9H, '?', 0d5H, 0f4H, 0e8H, 0ddH, 00H
	ORG $+9
	ORG $+3
	DD	06f80H
	DD	01a4H
	DB	'?', 0ebH, 0daH, 0d0H, 0f4H, 0dcH, 0fdH, 00H
	ORG $+9
	ORG $+3
	DD	06f81H
	DD	01a5H
	DB	'?', 0ebH, 0daH, 0d5H, 0a6H, 0d0H, 0baH, 00H
	ORG $+9
	ORG $+3
	DD	06f82H
	DD	01a6H
	DB	0dbH, 0c0H, 0f8H, 0ddH, 0d5H, 0a6H, 0deH, 0d9H, 00H
	ORG $+8
	ORG $+3
	DD	06f83H
	DD	01a7H
	DB	'?', 0e8H, 0aaH, 0dcH, 0fdH, 00H
	ORG $+11
	ORG $+3
	DD	06f84H
	DD	01a8H
	DB	0f8H, 0d6H, 0ecH, 0a5H, 0fbH, 0e5H, 00H
	ORG $+10
	ORG $+3
	DD	06f85H
	DD	01a9H
	DB	0deH, 0a3H, '?', 0f7H, 0e5H, 00H
	ORG $+11
	ORG $+3
	DD	06f8cH
	DD	01aaH
	DB	0f8H, 0d6H, 0d7H, 0f9H, 0f7H, 0e5H, 00H
	ORG $+10
	ORG $+3
	DD	06f8dH
	DD	01abH
	DB	0d2H, 0afH, 0caH, 0ecH, 0f7H, 0e5H, 00H
	ORG $+10
	ORG $+3
	DD	06f8eH
	DD	01acH
	DB	0d2H, 0afH, 0e9H, 0d4H, '?', 00H
	ORG $+11
	ORG $+3
	DD	06f8fH
	DD	01adH
	DB	'?', 0ddH, 0b3H, 0d1H, 0d6H, 00H
	ORG $+11
	ORG $+3
	DD	06fa7H
	DD	01aeH
	DB	'???', 00H
	ORG $+13
	ORG $+3
	DD	06fa6H
	DD	01afH
	DB	0d8H, 0a4H, 0d5H, 0a6H, 0dfH, 0e3H, 0deH, 0d6H, 00H
	ORG $+8
	ORG $+3
	DD	06fa8H
	DD	01b0H
	DB	0e8H, 0bfH, 0d0H, 0f4H, 0d0H, 0e9H, 00H
	ORG $+10
	ORG $+3
	DD	06fa9H
	DD	01b1H
	DB	0ddH, 0d7H, 0d0H, 0f4H, 0d0H, 0e9H, 00H
	ORG $+10
	ORG $+3
	DD	06faaH
	DD	01b2H
	DB	'?', 0d0H, 0f4H, 0d0H, 0e9H, 00H
	ORG $+11
	ORG $+3
	DD	06fabH
	DD	01b3H
	DB	0f7H, 0eeH, 0d0H, 0f4H, 0d0H, 0e9H, 00H
	ORG $+10
	ORG $+3
	DD	06facH
	DD	01b4H
	DB	'?', 0e8H, 0aaH, 0cfH, 0a8H, 0ebH, 0daH, 00H
	ORG $+9
	ORG $+3
	DD	06fc3H
	DD	01b5H
	DB	'?', 0e8H, 0aaH, 0dbH, 0d0H, 0f7H, 0e5H, 00H
	ORG $+9
	ORG $+3
	DD	06fc4H
	DD	01b6H
	DB	'?', 0dcH, 0d8H, 00H
	ORG $+13
	ORG $+3
	DD	06fc5H
	DD	01b7H
	DB	'?', 0d2H, 0fdH, 00H
	ORG $+13
	ORG $+3
	DD	06fc6H
	DD	01b8H
	DB	0ddH, 0efH, 0deH, 0d9H, 0d1H, 0ceH, 00H
	ORG $+10
	ORG $+3
	DD	06fadH
	DD	01b9H
	DB	'??', 0d1H, 0ceH, 00H
	ORG $+12
	ORG $+3
	DD	06faeH
	DD	01baH
	DB	0d2H, 0f9H, '?', 0d1H, 0ceH, 00H
	ORG $+11
	ORG $+3
	DD	06fafH
	DD	01bbH
	DB	0eaH, 0ceH, '?', 0d1H, 0ceH, 00H
	ORG $+11
	ORG $+3
	DD	06fb0H
	DD	01bcH
	DB	0e4H, 0f5H, 0ebH, 0daH, 0d0H, 0baH, 00H
	ORG $+10
	ORG $+3
	DD	06fb1H
	DD	01bdH
	DB	0e4H, 0f5H, 0daH, 0b8H, 00H
	ORG $+12
	ORG $+3
	DD	06fb2H
	DD	01beH
	DB	0e4H, 0f5H, 0ecH, 0e0H, 00H
	ORG $+12
	ORG $+3
	DD	06fb3H
	DD	01bfH
	DB	0e4H, 0f5H, 0d0H, 0baH, 0dcH, 0fdH, 00H
	ORG $+10
	ORG $+3
	DD	06fb4H
	DD	01c0H
	DB	0e4H, 0ccH, 0cdH, 0afH, 0d5H, 0f4H, 00H
	ORG $+10
	ORG $+3
	DD	06fb5H
	DD	01c1H
	DB	'?', 0d2H, 0f9H, 00H
	ORG $+13
	ORG $+3
	DD	06fb6H
	DD	01c2H
	DB	'??', 0d5H, 0f4H, 00H
	ORG $+12
	ORG $+3
	DD	06fb7H
	DD	01c3H
	DB	'?', 0e3H, 0a2H, 0d5H, 0f4H, 00H
	ORG $+11
	ORG $+3
	DD	06fb8H
	DD	01c4H
	DB	0ecH, 0a5H, 0ddH, 0d7H, 0d5H, 0c3H, 00H
	ORG $+10
	ORG $+3
	DD	06fb9H
	DD	01c5H
	DB	'?', 0d5H, 0c3H, '?', 0d5H, 0c3H, 00H
	ORG $+10
	ORG $+3
	DD	06fbaH
	DD	01c6H
	DB	0f7H, 0b2H, 0f7H, 0b2H, 0d5H, 0c3H, 00H
	ORG $+10
	ORG $+3
	DD	06fbbH
	DD	01c7H
	DB	0d1H, 0ceH, 0d9H, 0b5H, 0d5H, 0c3H, 00H
	ORG $+10
	ORG $+3
	DD	06fbcH
	DD	01c8H
	DB	'?', 0deH, 0d9H, '?', 00H
	ORG $+12
	ORG $+3
	DD	06fbdH
	DD	01c9H
	DB	0deH, 0d9H, 0deH, 0d9H, '?', 00H
	ORG $+11
	ORG $+3
	DD	06fbeH
	DD	01caH
	DB	0f8H, 0d6H, 0d7H, 0ecH, 0deH, 0d9H, '?', 00H
	ORG $+9
	ORG $+3
	DD	06fbfH
	DD	01cbH
	DB	0dbH, 0c0H, 0deH, 0d9H, '?', 00H
	ORG $+11
	ORG $+3
	DD	06fc0H
	DD	01ccH
	DB	0d9H, 0deH, 0d2H, 0b3H, '3?', 00H
	ORG $+10
	ORG $+3
	DD	06fc2H
	DD	01cdH
	DB	0faH, 0adH, '?', 0d3H, 0b1H, 00H
	ORG $+11
	ORG $+3
	DD	06fc1H
	DD	01ceH
	DB	0dcH, 0c5H, 0d2H, 0fdH, 0d1H, 0e1H, '?', 00H
	ORG $+9
	ORG $+3
	DD	06fc8H
	DD	01cfH
	DB	0dcH, 0c5H, '??', 00H
	ORG $+12
	ORG $+3
	DD	06fc9H
	DD	01d0H
	DB	0ecH, 0a5H, 0dcH, 0c5H, '?', 00H
	ORG $+11
	ORG $+3
	DD	06fcaH
	DD	01d1H
	DB	0dcH, 0c5H, '?', 0caH, 0ecH, 0d0H, 0baH, 00H
	ORG $+9
	ORG $+3
	DD	06fcbH
	DD	01d2H
	DB	0e4H, 0f5H, 0deH, 0d9H, 0f6H, 0f1H, 0ebH, 0daH, 00H
	ORG $+8
	ORG $+3
	DD	06fc7H
	DD	01d3H
	DB	0d5H, 0a6H, 0eeH, 0daH, 0d6H, 0f4H, '?', 00H
	ORG $+9
	ORG $+3
	DD	06fccH
	DD	01d4H
	DB	0d6H, 0f4H, '?', 0d1H, 0ceH, 0d5H, 0a6H, 00H
	ORG $+9
	ORG $+3
	DD	06fcdH
	DD	01d5H
	DB	0caH, 0e7H, 0d2H, 0fdH, 0d6H, 0f4H, '?', 00H
	ORG $+9
	ORG $+3
	DD	06fceH
	DD	01d6H
	DB	0d6H, 0f4H, '?', 0dcH, 0fdH, 00H
	ORG $+11
	ORG $+3
	DD	06fcfH
	DD	01d7H
	DB	0d3H, 0ecH, 0cdH, 0afH, 0d3H, 0ecH, '?', 0f7H, 0e5H, 00H
	ORG $+7
	ORG $+3
	DD	06fd0H
	DD	01d8H
	DB	0d0H, 0f4H, 0deH, 0d9H, 0cdH, 0afH, 0d3H, 0ecH, 00H
	ORG $+8
	ORG $+3
	DD	06fd1H
	DD	01d9H
	DB	0f7H, 0b2H, 0d5H, 0c3H, 0cdH, 0afH, 0d3H, 0ecH, 00H
	ORG $+8
	ORG $+3
	DD	06fd2H
	DD	01daH
	DB	0faH, 0d3H, 0cdH, 0afH, 0d3H, 0ecH, 00H
	ORG $+10
	ORG $+3
	DD	06fd3H
	DD	01dbH
	DB	0caH, 0ecH, 0dcH, 0c5H, 0d5H, 0a6H, 0deH, 0c9H, 00H
	ORG $+8
	ORG $+3
	DD	06fd4H
	DD	01dcH
	DB	0caH, 0ecH, 0dcH, 0c5H, '?', 00H
	ORG $+11
	ORG $+3
	DD	06fd5H
	DD	01ddH
	DB	0caH, 0ecH, 0dcH, 0c5H, '??', 00H
	ORG $+10
	ORG $+3
	DD	06fd6H
	DD	01deH
	DB	0caH, 0ecH, '?', 0d2H, 0f9H, '?', 00H
	ORG $+10
	ORG $+3
	DD	06fd7H
	DD	01dfH
	DB	0e1H, 0f3H, 0ccH, 0abH, '?', 00H
	ORG $+11
	ORG $+3
	DD	06fd8H
	DD	01e0H
	DB	0d2H, 0f9H, 0e1H, 0f3H, 0cbH, 0d3H, 00H
	ORG $+10
	ORG $+3
	DD	06fd9H
	DD	01e1H
	DB	0e1H, 0f3H, 0f7H, 0a4H, 00H
	ORG $+12
	ORG $+3
	DD	06fdaH
	DD	01e2H
	DB	0e1H, 0f3H, 0d2H, 0f9H, 0e1H, 0f3H, 0d2H, 0f9H, 00H
	ORG $+8
	ORG $+3
	DD	06fdbH
	DD	01e3H
	DB	0deH, 0c9H, '?', 0d0H, 0f4H, 00H
	ORG $+11
	ORG $+3
	DD	06fddH
	DD	01e4H
	DB	0d8H, 0b0H, 0d7H, 0ecH, '?', 0d0H, 0f4H, 00H
	ORG $+9
	ORG $+3
	DD	06fdeH
	DD	01e5H
	DB	0e1H, 0f3H, '?', 00H
	ORG $+13
	ORG $+3
	DD	06fdfH
	DD	01e6H
	DB	'??', 00H
	ORG $+14
	ORG $+3
	DD	06fe0H
	DD	01e7H
	DB	00H
	ORG $+16
	ORG $+3
	DD	06fe1H
	DD	01e8H
	DB	00H
	ORG $+16
	ORG $+3
	DD	06fe2H
	DD	01e9H
	DB	00H
	ORG $+16
	ORG $+3
	DD	06fe3H
	DD	01eaH
	DB	'?', 0d0H, 0baH, '?', 0deH, 0d9H, 00H
	ORG $+10
	ORG $+3
	DD	06fe4H
	DD	01ebH
	DB	'?', 0d0H, 0baH, 0d3H, 0e3H, 0d9H, 0d5H, 00H
	ORG $+9
	ORG $+3
	DD	06fe5H
	DD	01ecH
	DB	0f9H, 0beH, 0d0H, 0baH, 00H
	ORG $+12
	ORG $+3
	DD	06fe6H
	DD	01edH
	DB	0f9H, 0beH, 0d0H, 0f1H, 00H
	ORG $+12
	ORG $+3
	DD	06fe7H
	DD	01eeH
	DB	0f9H, 0abH, 0ddH, 0dbH, 00H
	ORG $+12
	ORG $+3
	DD	06fe8H
	DD	01efH
	DB	0f9H, 0abH, 0d5H, 0c3H, 0eeH, 0e8H, 00H
	ORG $+10
	ORG $+3
	DD	06fe9H
	DD	01f0H
	DB	0deH, 0c8H, '?', 0e3H, 0f6H, 00H
	ORG $+11
	ORG $+3
	DD	06feaH
	DD	01f1H
	DB	0deH, 0c8H, '??', 00H
	ORG $+12
	ORG $+3
	DD	06febH
	DD	01f2H
	DB	00H
	ORG $+16
	ORG $+3
	DD	06fecH
	DD	01f3H
	DB	'?', 0f7H, 0e5H, 00H
	ORG $+13
	ORG $+3
	DD	06fedH
	DD	01f4H
	DB	'?', 0d0H, 0f4H, 00H
	ORG $+13
	ORG $+3
	DD	06feeH
	DD	01f5H
	DB	0d4H, 0e1H, 0d5H, 0a6H, '??', 00H
	ORG $+10
	ORG $+3
	DD	06fefH
	DD	01f6H
	DB	0fdH, 0f1H, '??', 00H
	ORG $+12
	ORG $+3
	DD	06ff0H
	DD	01f7H
	DB	00H
	ORG $+16
	ORG $+3
	DD	06ff1H
	DD	01f8H
	DB	00H
	ORG $+16
	ORG $+3
	DD	06ff2H
	DD	01f9H
	DB	0f8H, 0d6H, '?', 0d2H, 0fdH, 0d0H, 0f1H, 00H
	ORG $+9
	ORG $+3
	DD	06ff3H
	DD	01faH
	DB	0f9H, 0ebH, 0deH, 0d9H, 0d2H, 0fdH, 0d0H, 0f1H, 00H
	ORG $+8
	ORG $+3
	DD	06ff4H
	DD	01fbH
	DB	'?', 0ccH, 0abH, 0d2H, 0fdH, 0d0H, 0f1H, 00H
	ORG $+9
	ORG $+3
	DD	06ff5H
	DD	01fcH
	DB	0dcH, 0c5H, 0d3H, 0ecH, 0d2H, 0fdH, 0d0H, 0f1H, 00H
	ORG $+8
	ORG $+3
	DD	06ff6H
	DD	01fdH
	DB	00H
	ORG $+16
	ORG $+3
	DD	06ff7H
	DD	01feH
	DB	'?', 0f7H, 0e5H, 0dfH, 0b5H, 00H
	ORG $+11
	ORG $+3
	DD	06ff7H
	DD	01ffH
	DB	'??', 0d0H, 0f4H, 00H
	ORG $+12
	ORG $+3
	DD	06ff8H
	DD	0200H
	DB	'?', 0dcH, 0c5H, 0d8H, 0a1H, 00H
	ORG $+11
	ORG $+3
	DD	06ff9H
	DD	0201H
	DB	'?', 0dcH, 0c5H, 0d0H, 0f4H, 00H
	ORG $+11
	ORG $+3
	DD	06ffaH
	DD	0202H
	DB	00H
	ORG $+16
	ORG $+3
	DD	06ffbH
	DD	0203H
	DB	00H
	ORG $+16
	ORG $+3
	DD	06ffcH
	DD	0204H
	DB	0d2H, 0fdH, 0d0H, 0f4H, 00H
	ORG $+12
	ORG $+3
	DD	06ffdH
	DD	0205H
	DB	0d3H, 0dbH, 0d9H, 0d5H, 0f7H, 0e5H, 0deH, 0d9H, 00H
	ORG $+8
	ORG $+3
	DD	06ffeH
	DD	0206H
	DB	0d3H, 0dbH, 0d9H, 0d5H, 0eeH, 0e8H, 0deH, 0d9H, 00H
	ORG $+8
	ORG $+3
	DD	06fffH
	DD	0207H
	DB	0d3H, 0dbH, 0d9H, 0d5H, 0d1H, 0e1H, '?', 00H
	ORG $+9
	ORG $+3
	DD	07000H
	DD	0208H
	DB	0d3H, 0dbH, 0d9H, 0d5H, 0dfH, 0e3H, 0d2H, 0f9H, 00H
	ORG $+8
	ORG $+3
	DD	07001H
	DD	0209H
	DB	00H
	ORG $+16
	ORG $+3
	DD	07002H
	DD	020aH
	DB	00H
	ORG $+16
	ORG $+3
	DD	07003H
	DD	020bH
	DB	00H
	ORG $+16
	ORG $+3
	DD	07004H
	DD	020cH
	DB	00H
	ORG $+16
	ORG $+3
	DD	07005H
	DD	020dH
	DB	'?', 0daH, 0b7H, '?', 00H
	ORG $+12
	ORG $+3
	DD	07006H
	DD	020eH
	DB	'???', 00H
	ORG $+13
	ORG $+3
	DD	07007H
	DD	020fH
	DB	00H
	ORG $+16
	ORG $+3
	DD	07008H
	DD	0210H
	DB	00H
	ORG $+16
	ORG $+3
	DD	07009H
	DD	0211H
	DB	00H
	ORG $+16
	ORG $+3
	DD	0700aH
	DD	0212H
	DB	00H
	ORG $+16
	ORG $+3
	DD	0700bH
	DD	0213H
	DB	00H
	ORG $+16
	ORG $+3
	DD	0700cH
	DD	0214H
	DB	00H
	ORG $+16
	ORG $+3
	DD	0700dH
	DD	0215H
	DB	00H
	ORG $+16
	ORG $+3
	DD	0700eH
	DD	0216H
	DB	00H
	ORG $+16
	ORG $+3
	DD	0700fH
	DD	0217H
	DB	00H
	ORG $+16
	ORG $+3
	DD	07010H
	DD	0218H
	DB	0f7H, 0eeH, 0ecH, 0ccH, 0f0H, 0abH, 0deH, 0d9H, 00H
	ORG $+8
	ORG $+3
	DD	07011H
	DD	0219H
	DB	0f7H, 0eeH, 0ecH, 0ccH, 0f0H, 0abH, '?', 00H
	ORG $+9
	ORG $+3
	DD	07012H
	DD	021aH
	DB	0f7H, 0eeH, 0ecH, 0ccH, '?', 0f8H, 0d6H, 00H
	ORG $+9
	ORG $+3
	DD	07013H
	DD	021bH
	DB	0f7H, 0eeH, 0ecH, 0ccH, 0f7H, 0eeH, 0d1H, 0daH, 00H
	ORG $+8
	ORG $+3
	DD	07014H
	DD	021cH
	DB	0d8H, 0a4H, '?', 0deH, 0d9H, 00H
	ORG $+11
	ORG $+3
	DD	07015H
	DD	021dH
	DB	0d8H, 0baH, 0d8H, 0a4H, 0deH, 0d9H, 00H
	ORG $+10
	ORG $+3
	DD	07016H
	DD	021eH
	DB	'?', 0d0H, 0e9H, 0e8H, 0aaH, 00H
	ORG $+11
	ORG $+3
	DD	07017H
	DD	021fH
	DB	'?', 0d0H, 0f4H, '?', 00H
	ORG $+12
	ORG $+3
	DD	07018H
	DD	0220H
	DB	'?', 0d9H, 0d5H, 0f7H, 0e5H, 00H
	ORG $+11
	ORG $+3
	DD	07019H
	DD	0221H
	DB	'?', 0d2H, 0fdH, 0cdH, 0d4H, 0d4H, 0f4H, 00H
	ORG $+9
	ORG $+3
	DD	0701aH
	DD	0222H
	DB	'?', 0daH, 0b7H, 0cdH, 0d4H, 0d4H, 0f4H, 00H
	ORG $+9
	ORG $+3
	DD	0701bH
	DD	0223H
	DB	'??', 0cdH, 0d4H, 0d4H, 0f4H, 00H
	ORG $+10
	ORG $+3
	DD	0701cH
	DD	0224H
	DB	'??', 0cdH, 0d4H, 0d4H, 0f4H, 00H
	ORG $+10
	ORG $+3
	DD	0701dH
	DD	0225H
	DB	0cdH, 0afH, 0efH, 0cbH, 0f7H, 0e9H, 0d5H, 0c3H, 00H
	ORG $+8
	ORG $+3
	DD	0701eH
	DD	0226H
	DB	0cdH, 0afH, 0efH, 0cbH, 0ccH, 0abH, 0ccH, 0abH, 00H
	ORG $+8
	ORG $+3
	DD	0701fH
	DD	0227H
	DB	0cdH, 0afH, 0efH, 0cbH, 0d5H, 0c3H, '?', 00H
	ORG $+9
	ORG $+3
	DD	07020H
	DD	0228H
	DB	0cdH, 0afH, 0efH, 0cbH, '?', 0d5H, 0c3H, 00H
	ORG $+9
	ORG $+3
	DD	07021H
	DD	0229H
	DB	0ecH, 0a5H, 0d2H, 0fdH, '?', 00H
	ORG $+11
	ORG $+3
	DD	07022H
	DD	022aH
	DB	0ecH, 0a5H, 0cdH, 0afH, 0dfH, 0b5H, 00H
	ORG $+10
	ORG $+3
	DD	07023H
	DD	022bH
	DB	0f9H, 0beH, 0d8H, 0b0H, 00H
	ORG $+12
	ORG $+3
	DD	07024H
	DD	022cH
	DB	0f9H, 0beH, 0f7H, 0eeH, 00H
	ORG $+12
	ORG $+3
	DD	07025H
	DD	022dH
	DB	0f9H, 0beH, '?', 0f2H, 0a2H, 00H
	ORG $+11
	ORG $+3
	DD	07026H
	DD	022eH
	DB	0d8H, 0b0H, 0caH, 0a6H, 00H
	ORG $+12
	ORG $+3
	DD	07027H
	DD	022fH
	DB	0d8H, 0b0H, 0d5H, 0a6H, 0f7H, 0e5H, 00H
	ORG $+10
	ORG $+3
	DD	07028H
	DD	0230H
	DB	0daH, 0b7H, 0d2H, 0fdH, 0d2H, 0fdH, 00H
	ORG $+10
	ORG $+3
	DD	07029H
	DD	0231H
	DB	0daH, 0b7H, 0d2H, 0fdH, '?', 00H
	ORG $+11
	ORG $+3
	DD	0702aH
	DD	0232H
	DB	0daH, 0b7H, '?', 0d2H, 0fdH, 00H
	ORG $+11
	ORG $+3
	DD	0702bH
	DD	0233H
	DB	0daH, 0b7H, 0d2H, 0f9H, '?', 00H
	ORG $+11
	ORG $+3
	DD	0702cH
	DD	0234H
	DB	0cdH, 0fcH, 0d5H, 0f4H, 0d5H, 0c3H, 00H
	ORG $+10
	ORG $+3
	DD	0702dH
	DD	0235H
	DB	0cdH, 0fcH, 0d5H, 0f4H, 0d2H, 0fdH, 00H
	ORG $+10
	ORG $+3
	DD	0702eH
	DD	0236H
	DB	0e4H, 0baH, 0d0H, 0e9H, 00H
	ORG $+12
	ORG $+3
	DD	0702fH
	DD	0237H
	DB	'?', 0d0H, 0e9H, 00H
	ORG $+13
	ORG $+3
	DD	07030H
	DD	0238H
	DB	0d2H, 0fdH, 0d0H, 0e9H, 00H
	ORG $+12
	ORG $+3
	DD	07031H
	DD	0239H
	DB	0cdH, 0dbH, 0d2H, 0fdH, 00H
	ORG $+12
	ORG $+3
	DD	07032H
?taskBarX@@3HA DD 0140H					; taskBarX
?IdEncryptionTbl@@3PAHA DD 030H				; IdEncryptionTbl
	DD	09eH
	DD	062H
	DD	017H
	DD	086H
	DD	01dH
	DD	05cH
	DD	043H
	DD	046H
	DD	01cH
	DD	0ebH
	DD	014H
	DD	0bdH
	DD	030H
	DD	039H
	DD	07dH
?DetailDesc@@3PAY0EA@DA DB 0c1H, 0f6H, ' ', 0b8H, 0b6H, 0b9H, 0fdH, ' ', 0c0H
	DB	0faH, 0c7H, 0d7H, 0bcH, 0baH, 0a1H, 0a1H, 0a3H, 0baH, 00H ; DetailDesc
	ORG $+45
	DB	0bcH, 0f6H, ' ', 0b8H, 0b6H, 0b9H, 0fdH, ' ', 0c0H, 0faH, 0c7H
	DB	0d7H, 0bcH, 0baH, 0a1H, 0a1H, 0a3H, 0baH, 00H
	ORG $+45
	DB	0c8H, 0adH, ' ', 0b8H, 0b6H, 0b9H, 0fdH, ' ', 0c0H, 0faH, 0c7H
	DB	0d7H, 0bcH, 0baH, 0a1H, 0a1H, 0a3H, 0baH, 00H
	ORG $+45
	DB	0c7H, 0b3H, ' ', 0b8H, 0b6H, 0b9H, 0fdH, ' ', 0c0H, 0faH, 0c7H
	DB	0d7H, 0bcH, 0baH, 0a1H, 0a1H, 0a3H, 0baH, 00H
	ORG $+45
	DB	0c1H, 0f6H, ' ', 0b8H, 0b6H, 0b9H, 0fdH, ' ', 0bcH, 0f7H, 0b7H
	DB	0c3H, 0b5H, 0b5H, 0a3H, 0baH, 00H
	ORG $+47
	DB	0bcH, 0f6H, ' ', 0b8H, 0b6H, 0b9H, 0fdH, ' ', 0bcH, 0f7H, 0b7H
	DB	0c3H, 0b5H, 0b5H, 0a3H, 0baH, 00H
	ORG $+47
	DB	0c8H, 0adH, ' ', 0b8H, 0b6H, 0b9H, 0fdH, ' ', 0bcH, 0f7H, 0b7H
	DB	0c3H, 0b5H, 0b5H, 0a3H, 0baH, 00H
	ORG $+47
	DB	0c7H, 0b3H, ' ', 0b8H, 0b6H, 0b9H, 0fdH, ' ', 0bcH, 0f7H, 0b7H
	DB	0c3H, 0b5H, 0b5H, 0a3H, 0baH, 00H
	ORG $+47
?DetailDesc1@@3PAY0EA@DA DB 0c1H, 0f6H, ' ', 0c1H, 0a4H, 0b7H, 0c9H, ' ', 0b8H
	DB	0b6H, 0b9H, 0fdH, ' ', 0c0H, 0faH, 0c7H, 0d7H, 0bcH, 0baH, 0a3H
	DB	0acH, 0c1H, 0d9H, 0c0H, 0cfH, ' ', 0bcH, 0f6H, ' ', 0c0H, 0d6H
	DB	0c0H, 0bdH, 00H				; DetailDesc1
	ORG $+30
	DB	0bcH, 0f6H, ' ', 0c1H, 0a4H, 0b7H, 0c9H, ' ', 0b8H, 0b6H, 0b9H
	DB	0fdH, ' ', 0c0H, 0faH, 0c7H, 0d7H, 0bcH, 0baH, 0a3H, 0acH, 0c1H
	DB	0d9H, 0c0H, 0cfH, ' ', 0bcH, 0f6H, ' ', 0c0H, 0d6H, 0c0H, 0bdH
	DB	00H
	ORG $+30
	DB	0c8H, 0adH, ' ', 0c1H, 0a4H, 0b7H, 0c9H, ' ', 0b8H, 0b6H, 0b9H
	DB	0fdH, ' ', 0c0H, 0faH, 0c7H, 0d7H, 0bcH, 0baH, 0a3H, 0acH, 0c1H
	DB	0d9H, 0c0H, 0cfH, ' ', 0bcH, 0f6H, ' ', 0c0H, 0d6H, 0c0H, 0bdH
	DB	00H
	ORG $+30
	DB	0c7H, 0b3H, ' ', 0c1H, 0a4H, 0b7H, 0c9H, ' ', 0b8H, 0b6H, 0b9H
	DB	0fdH, ' ', 0c0H, 0faH, 0c7H, 0d7H, 0bcH, 0baH, 0a3H, 0acH, 0c1H
	DB	0d9H, 0c0H, 0cfH, ' ', 0bcH, 0f6H, ' ', 0c0H, 0d6H, 0c0H, 0bdH
	DB	00H
	ORG $+30
	DB	0c1H, 0f6H, ' ', 0c1H, 0a4H, 0b7H, 0c9H, ' ', 0b8H, 0b6H, 0b9H
	DB	0fdH, ' ', 0bcH, 0f7H, 0b7H, 0c3H, 0b5H, 0b5H, 0a3H, 0acH, 0bbH
	DB	0e7H, 0bfH, 0ebH, 0c7H, 0cfH, 0bfH, 0a9H, ' ', 0b3H, 0f4H, 0c0H
	DB	0cfH, ' ', 0bcH, 0f6H, ' ', 0c0H, 0d6H, 0c0H, 0bdH, 00H
	ORG $+21
	DB	0bcH, 0f6H, ' ', 0c1H, 0a4H, 0b7H, 0c9H, ' ', 0b8H, 0b6H, 0b9H
	DB	0fdH, ' ', 0bcH, 0f7H, 0b7H, 0c3H, 0b5H, 0b5H, 0a3H, 0acH, 0bbH
	DB	0e7H, 0bfH, 0ebH, 0c7H, 0cfH, 0bfH, 0a9H, ' ', 0b3H, 0f4H, 0c0H
	DB	0cfH, ' ', 0bcH, 0f6H, ' ', 0c0H, 0d6H, 0c0H, 0bdH, 00H
	ORG $+21
	DB	0c8H, 0adH, ' ', 0c1H, 0a4H, 0b7H, 0c9H, ' ', 0b8H, 0b6H, 0b9H
	DB	0fdH, ' ', 0bcH, 0f7H, 0b7H, 0c3H, 0b5H, 0b5H, 0a3H, 0acH, 0bbH
	DB	0e7H, 0bfH, 0ebH, 0c7H, 0cfH, 0bfH, 0a9H, ' ', 0b3H, 0f4H, 0c0H
	DB	0cfH, ' ', 0bcH, 0f6H, ' ', 0c0H, 0d6H, 0c0H, 0bdH, 00H
	ORG $+21
	DB	0c7H, 0b3H, ' ', 0c1H, 0a4H, 0b7H, 0c9H, ' ', 0b8H, 0b6H, 0b9H
	DB	0fdH, ' ', 0bcH, 0f7H, 0b7H, 0c3H, 0b5H, 0b5H, 0a3H, 0acH, 0bbH
	DB	0e7H, 0bfH, 0ebH, 0c7H, 0cfH, 0bfH, 0a9H, ' ', 0b3H, 0f4H, 0c0H
	DB	0cfH, ' ', 0bcH, 0f6H, ' ', 0c0H, 0d6H, 0c0H, 0bdH, 00H
	ORG $+21
?DetailDesc2@@3PAY0EA@DA DB 0c1H, 0f6H, ' ', 0c1H, 0a4H, 0b7H, 0c9H, ' ', 0b8H
	DB	0b6H, 0b9H, 0fdH, 0c0H, 0c7H, ' ', 0b5H, 0a5H, 0b9H, 0ccH, 0c1H
	DB	0f6H, 0a1H, 0a3H, 00H			; DetailDesc2
	ORG $+40
	DB	0bcH, 0f6H, ' ', 0c1H, 0a4H, 0b7H, 0c9H, ' ', 0b8H, 0b6H, 0b9H
	DB	0fdH, 0c0H, 0c7H, ' ', 0b5H, 0a5H, 0b9H, 0ccH, 0c1H, 0f6H, 0a1H
	DB	0a3H, 00H
	ORG $+40
	DB	0c8H, 0adH, ' ', 0c1H, 0a4H, 0b7H, 0c9H, ' ', 0b8H, 0b6H, 0b9H
	DB	0fdH, 0c0H, 0c7H, ' ', 0b5H, 0a5H, 0b9H, 0ccH, 0c1H, 0f6H, 0a1H
	DB	0a3H, 00H
	ORG $+40
	DB	0c7H, 0b3H, ' ', 0c1H, 0a4H, 0b7H, 0c9H, ' ', 0b8H, 0b6H, 0b9H
	DB	0fdH, 0c0H, 0c7H, ' ', 0b5H, 0a5H, 0b9H, 0ccH, 0c1H, 0f6H, 0a1H
	DB	0a3H, 00H
	ORG $+40
	DB	0c1H, 0f6H, ' ', 0c1H, 0a4H, 0b7H, 0c9H, ' ', 0b8H, 0b6H, 0b9H
	DB	0fdH, ' ', 0bdH, 0c3H, 0c0H, 0fcH, ' ', 0c0H, 0a7H, 0b7H, 0c2H
	DB	0a1H, 0a3H, 00H
	ORG $+39
	DB	0bcH, 0f6H, ' ', 0c1H, 0a4H, 0b7H, 0c9H, ' ', 0b8H, 0b6H, 0b9H
	DB	0fdH, ' ', 0bdH, 0c3H, 0c0H, 0fcH, ' ', 0c0H, 0a7H, 0b7H, 0c2H
	DB	0a1H, 0a3H, 00H
	ORG $+39
	DB	0c8H, 0adH, ' ', 0c1H, 0a4H, 0b7H, 0c9H, ' ', 0b8H, 0b6H, 0b9H
	DB	0fdH, ' ', 0bdH, 0c3H, 0c0H, 0fcH, ' ', 0c0H, 0a7H, 0b7H, 0c2H
	DB	0a1H, 0a3H, 00H
	ORG $+39
	DB	0c7H, 0b3H, ' ', 0c1H, 0a4H, 0b7H, 0c9H, ' ', 0b8H, 0b6H, 0b9H
	DB	0fdH, ' ', 0bdH, 0c3H, 0c0H, 0fcH, ' ', 0c0H, 0a7H, 0b7H, 0c2H
	DB	0a1H, 0a3H, 00H
	ORG $+39
?sAlchePlus_list@@3PAY0BA@DA DB 0b5H, 0b9H, 00H		; sAlchePlus_list
	ORG $+13
	DB	0b3H, 0aaH, 0b9H, 0abH, 00H
	ORG $+11
	DB	0bbH, 0c0H, 00H
	ORG $+13
	DB	0c4H, 0a1H, 0beH, 0c6H, 00H
	ORG $+11
	DB	0c7H, 0c7H, 0baH, 0ceH, 00H
	ORG $+11
	DB	0c1H, 0b6H, 0b0H, 0a1H, 0baH, 0f1H, 00H
	ORG $+9
	DB	0b2H, 0aeH, 0c1H, 0faH, 00H
	ORG $+11
	DB	0b9H, 0dfH, 0c5H, 0e9H, 00H
	ORG $+11
	DB	0b2H, 0c9H, 00H
	ORG $+13
	DB	0c0H, 0d9H, 00H
	ORG $+13
	DB	0bcH, 0b1H, 00H
	ORG $+13
	DB	0c1H, 0a1H, 0c5H, 0e4H, 00H
	ORG $+11
	DB	0baH, 0f1H, 0b4H, 0c3H, 00H
	ORG $+11
	DB	0b5H, 0b6H, 00H
	ORG $+13
	DB	0bcH, 0aeH, 0c8H, 0adH, 00H
	ORG $+11
	DB	0c8H, 0a5H, 0b5H, 0b7H, 00H
	ORG $+11
	DB	0b8H, 0b8H, 0c3H, 0ebH, 00H
	ORG $+11
	DB	0b1H, 0b8H, 0b8H, 0e9H, 00H
	ORG $+11
	DB	0c8H, 0b8H, 0baH, 0b9H, 00H
	ORG $+11
	DB	0baH, 0ceH, 0c8H, 0b0H, 00H
	ORG $+11
	DB	0bcH, 0f6H, 0c1H, 0a4H, 00H
	ORG $+11
	DB	0b6H, 0a5H, 00H
	ORG $+13
	DB	0b9H, 0b0H, 00H
	ORG $+13
	DB	0baH, 0d2H, 00H
	ORG $+13
	DB	0b9H, 0d9H, 0b6H, 0f7H, 00H
	ORG $+11
?iAlchePlusIcon@@3PAHA DD 067a8H			; iAlchePlusIcon
	DD	067a1H
	DD	067b3H
	DD	067a6H
	DD	067a7H
	DD	067aeH
	DD	067b6H
	DD	067a5H
	DD	067afH
	DD	067b7H
	DD	067b9H
	DD	067baH
	DD	067bdH
	DD	067b0H
	DD	067a9H
	DD	067b2H
	DD	067b4H
	DD	067b8H
	DD	067aaH
	DD	067b5H
	DD	067a3H
	DD	067abH
	DD	067a2H
	DD	067a4H
	DD	067b1H
?monoStereoStr@@3PAPADA DD FLAT:??_C@_0BK@CGBENDMD@?5?5?5?5?5?5?5?$LI?p?5?5?5?5?5?5?5?$LD?k?5?5?5?5?5?5?5?$AA@ ; monoStereoStr
	DD	FLAT:??_C@_0BJ@DHKPLCBK@?5?5?5?5?5?5?$LN?$LK?5?E?W?5?$LH?$LJ?5?$LP?$MA?5?5?5?5?5?5?5?$AA@
?mouseCursor@@3PAPADA DD FLAT:??_C@_0BD@PHEKGFNN@?5?5?5?5?5?H?$LI?5?5?5?5?$LL?v?5?5?5?5?5?$AA@ ; mouseCursor
	DD	FLAT:??_C@_0BD@JHCIAJMC@?5?5?5?5?5?$LA?x?5?$LH?f?5?$LO?K?5?5?5?5?5?$AA@
?WINDOW_CREATE_FRAME@@3HA DD 01H			; WINDOW_CREATE_FRAME
?byShowPetItemBackground@@3PAEA DB 05dH			; byShowPetItemBackground
	DB	05dH
	DB	07dH
	DB	05dH
	DB	05dH
	DB	07dH
	DB	05fH
	DB	05dH
	DB	05fH
	DB	07fH
	DB	05dH
	DB	05dH
	DB	05dH
	DB	05dH
	DB	05dH
	DB	07dH
	DB	07dH
	DB	05dH
	DB	05dH
	DB	07dH
	DB	05dH
	DB	07dH
	DB	07dH
	DB	05dH
	DB	05dH
	DB	05fH
	DB	05dH
	DB	05dH
	DB	09H
	DB	01dH
	DB	05dH
	DB	079H
	DB	01dH
	DB	05dH
	DB	079H
	DB	05dH
	DB	05dH
	DB	05dH
	DB	05dH
	DB	05dH
	DB	05dH
	DB	05dH
	DB	00H
	ORG $+1
?charDetailPage@@3HA DD 03H				; charDetailPage
?msg@?1??自动登陆窗口回调@@YAXXZ@4PAY07DA DB 0c6H, 0c0H, ' ', 0c0H, 0e5H, 00H ; `自动登陆窗口回调'::`2'::msg
	ORG $+2
	DB	0c6H, 0c0H, ' ', 0bfH, 0f8H, 00H
	ORG $+2
	DB	0bcH, 0d6H, ' ', 0b7H, 0ceH, 00H
	ORG $+2
?chardir@?1??自动登陆窗口回调@@YAXXZ@4PAY07DA DB 0beH, 0c6H, 0b7H, 0a1H, 00H ; `自动登陆窗口回调'::`2'::chardir
	ORG $+3
	DB	0c1H, 0c2H, 0c7H, 0cfH, 00H
	ORG $+3
	DB	0c1H, 0c2H, 0c3H, 0f8H, 00H
	ORG $+3
	DB	0c1H, 0c2H, 0bbH, 0f3H, 00H
	ORG $+3
	DB	0c0H, 0a7H, 00H
	ORG $+5
	DB	0bfH, 0ecH, 0bbH, 0f3H, 00H
	ORG $+3
	DB	0bfH, 0ecH, 0c3H, 0f8H, 00H
	ORG $+3
	DB	0bfH, 0ecH, 0c7H, 0cfH, 00H
	ORG $+3
?BattlePetReceivePetNo@@3HA DD 0ffffffffH		; BattlePetReceivePetNo
?MouseCursorFlag@@3HA DD 01H				; MouseCursorFlag
?selChar@@3HA DD 0ffffffffH				; selChar
?statusWndFontNoExtNowCur@?DEJ@??MenuProc@@YAXXZ@4HA DD 02H ; `MenuProc'::`841'::statusWndFontNoExtNowCur
?ridePetTable@@3PAUtagRidePetTable@@A DD 018a88H	; ridePetTable
	DD	0186a0H
	DD	018800H
	DD	00H
	DD	018a89H
	DD	0186a5H
	DD	018800H
	DD	00H
	DD	018a8aH
	DD	0186aaH
	DD	018800H
	DD	00H
	DD	018a8bH
	DD	0186afH
	DD	018800H
	DD	00H
	DD	018a8cH
	DD	0186a0H
	DD	0187e9H
	DD	00H
	DD	018a8dH
	DD	0186a5H
	DD	0187e7H
	DD	00H
	DD	018a8eH
	DD	0186aaH
	DD	0187eaH
	DD	00H
	DD	018a8fH
	DD	0186afH
	DD	0187e8H
	DD	00H
	DD	018a90H
	DD	01895cH
	DD	018814H
	DD	00H
	DD	018a91H
	DD	018961H
	DD	018815H
	DD	00H
	DD	018e65H
	DD	018961H
	DD	018cc8H
	DD	00H
	DD	018e5aH
	DD	018961H
	DD	018c9cH
	DD	00H
	DD	018a92H
	DD	0186b4H
	DD	01882cH
	DD	00H
	DD	018a93H
	DD	0186b9H
	DD	01882cH
	DD	00H
	DD	018a94H
	DD	0186beH
	DD	01882cH
	DD	00H
	DD	018a95H
	DD	0186c3H
	DD	01882cH
	DD	00H
	DD	018a96H
	DD	0186b4H
	DD	0187e8H
	DD	00H
	DD	018a97H
	DD	0186b9H
	DD	0187e9H
	DD	00H
	DD	018a98H
	DD	0186beH
	DD	0187e7H
	DD	00H
	DD	018a99H
	DD	0186c3H
	DD	0187eaH
	DD	00H
	DD	018a9aH
	DD	018966H
	DD	018814H
	DD	00H
	DD	018a9bH
	DD	01896bH
	DD	018815H
	DD	00H
	DD	018e64H
	DD	01896bH
	DD	018cc8H
	DD	00H
	DD	018e62H
	DD	01896bH
	DD	018c9cH
	DD	00H
	DD	018a9cH
	DD	0186c8H
	DD	0187ffH
	DD	00H
	DD	018a9dH
	DD	0186cdH
	DD	0187ffH
	DD	00H
	DD	018a9eH
	DD	0186d2H
	DD	0187ffH
	DD	00H
	DD	018a9fH
	DD	0186d7H
	DD	0187ffH
	DD	00H
	DD	018aa0H
	DD	0186c8H
	DD	0187e8H
	DD	00H
	DD	018aa1H
	DD	0186cdH
	DD	0187eaH
	DD	00H
	DD	018aa2H
	DD	0186d2H
	DD	0187e7H
	DD	00H
	DD	018aa3H
	DD	0186d7H
	DD	0187e9H
	DD	00H
	DD	018aa4H
	DD	018970H
	DD	018814H
	DD	00H
	DD	018aa5H
	DD	018975H
	DD	018815H
	DD	00H
	DD	018e4dH
	DD	018975H
	DD	018cc8H
	DD	00H
	DD	018e57H
	DD	018975H
	DD	018c9cH
	DD	00H
	DD	018aa6H
	DD	0186dcH
	DD	018801H
	DD	00H
	DD	018aa7H
	DD	0186e1H
	DD	018801H
	DD	00H
	DD	018aa8H
	DD	0186e6H
	DD	018801H
	DD	00H
	DD	018aa9H
	DD	0186ebH
	DD	018801H
	DD	00H
	DD	018aaaH
	DD	0186dcH
	DD	0187e9H
	DD	00H
	DD	018aabH
	DD	0186e1H
	DD	0187e7H
	DD	00H
	DD	018aacH
	DD	0186e6H
	DD	0187eaH
	DD	00H
	DD	018aadH
	DD	0186ebH
	DD	0187e8H
	DD	00H
	DD	018aaeH
	DD	01897aH
	DD	018814H
	DD	00H
	DD	018aafH
	DD	01897fH
	DD	018815H
	DD	00H
	DD	018e4eH
	DD	01897fH
	DD	018cc8H
	DD	00H
	DD	018e58H
	DD	01897fH
	DD	018c9cH
	DD	00H
	DD	018ab0H
	DD	0186f0H
	DD	01882cH
	DD	00H
	DD	018ab1H
	DD	0186f5H
	DD	01882cH
	DD	00H
	DD	018ab2H
	DD	0186faH
	DD	01882cH
	DD	00H
	DD	018ab3H
	DD	0186ffH
	DD	01882cH
	DD	00H
	DD	018ab4H
	DD	0186f0H
	DD	0187e8H
	DD	00H
	DD	018ab5H
	DD	0186f5H
	DD	0187e7H
	DD	00H
	DD	018ab6H
	DD	0186faH
	DD	0187eaH
	DD	00H
	DD	018ab7H
	DD	0186ffH
	DD	0187e9H
	DD	00H
	DD	018ab8H
	DD	018984H
	DD	018814H
	DD	00H
	DD	018ab9H
	DD	018989H
	DD	018815H
	DD	00H
	DD	018e55H
	DD	018989H
	DD	018cc8H
	DD	00H
	DD	018e60H
	DD	018989H
	DD	018c9cH
	DD	00H
	DD	018abaH
	DD	018704H
	DD	018801H
	DD	00H
	DD	018abbH
	DD	018709H
	DD	018801H
	DD	00H
	DD	018abcH
	DD	01870eH
	DD	018801H
	DD	00H
	DD	018abdH
	DD	018713H
	DD	018801H
	DD	00H
	DD	018abeH
	DD	018704H
	DD	0187e9H
	DD	00H
	DD	018abfH
	DD	018709H
	DD	0187e8H
	DD	00H
	DD	018ac0H
	DD	01870eH
	DD	0187eaH
	DD	00H
	DD	018ac1H
	DD	018713H
	DD	0187e7H
	DD	00H
	DD	018ac2H
	DD	01898eH
	DD	018814H
	DD	00H
	DD	018ac3H
	DD	018993H
	DD	018815H
	DD	00H
	DD	018e56H
	DD	018993H
	DD	018cc8H
	DD	00H
	DD	018e61H
	DD	018993H
	DD	018c9cH
	DD	00H
	DD	018ac4H
	DD	018718H
	DD	018802H
	DD	00H
	DD	018ac5H
	DD	01871dH
	DD	018802H
	DD	00H
	DD	018ac6H
	DD	018722H
	DD	018802H
	DD	00H
	DD	018ac7H
	DD	018727H
	DD	018802H
	DD	00H
	DD	018ac8H
	DD	018718H
	DD	0187e7H
	DD	00H
	DD	018ac9H
	DD	01871dH
	DD	0187eaH
	DD	00H
	DD	018acaH
	DD	018722H
	DD	0187e8H
	DD	00H
	DD	018acbH
	DD	018727H
	DD	0187e9H
	DD	00H
	DD	018accH
	DD	018998H
	DD	018814H
	DD	00H
	DD	018acdH
	DD	01899dH
	DD	018815H
	DD	00H
	DD	018e4fH
	DD	01899dH
	DD	018cc8H
	DD	00H
	DD	018e59H
	DD	01899dH
	DD	018c9cH
	DD	00H
	DD	018aceH
	DD	01872cH
	DD	018802H
	DD	00H
	DD	018acfH
	DD	018731H
	DD	018802H
	DD	00H
	DD	018ad0H
	DD	018736H
	DD	018802H
	DD	00H
	DD	018ad1H
	DD	01873bH
	DD	018802H
	DD	00H
	DD	018ad2H
	DD	01872cH
	DD	0187e7H
	DD	00H
	DD	018ad3H
	DD	018731H
	DD	0187e9H
	DD	00H
	DD	018ad4H
	DD	018736H
	DD	0187eaH
	DD	00H
	DD	018ad5H
	DD	01873bH
	DD	0187e8H
	DD	00H
	DD	018ad6H
	DD	0189a2H
	DD	018814H
	DD	00H
	DD	018ad7H
	DD	0189a7H
	DD	018815H
	DD	00H
	DD	018e50H
	DD	0189a7H
	DD	018cc8H
	DD	00H
	DD	018e5bH
	DD	0189a7H
	DD	018c9cH
	DD	00H
	DD	018ad8H
	DD	018740H
	DD	018800H
	DD	00H
	DD	018ad9H
	DD	018745H
	DD	018800H
	DD	00H
	DD	018adaH
	DD	01874aH
	DD	018800H
	DD	00H
	DD	018adbH
	DD	01874fH
	DD	018800H
	DD	00H
	DD	018adcH
	DD	018740H
	DD	0187eaH
	DD	00H
	DD	018addH
	DD	018745H
	DD	0187e9H
	DD	00H
	DD	018adeH
	DD	01874aH
	DD	0187e7H
	DD	00H
	DD	018adfH
	DD	01874fH
	DD	0187e8H
	DD	00H
	DD	018ae0H
	DD	0189acH
	DD	018814H
	DD	00H
	DD	018ae1H
	DD	0189b1H
	DD	018815H
	DD	00H
	DD	018e52H
	DD	0189b1H
	DD	018cc8H
	DD	00H
	DD	018e5dH
	DD	0189b1H
	DD	018c9cH
	DD	00H
	DD	018ae2H
	DD	018754H
	DD	0187ffH
	DD	00H
	DD	018ae3H
	DD	018759H
	DD	0187ffH
	DD	00H
	DD	018ae4H
	DD	01875eH
	DD	0187ffH
	DD	00H
	DD	018ae5H
	DD	018763H
	DD	0187ffH
	DD	00H
	DD	018ae6H
	DD	018754H
	DD	0187e8H
	DD	00H
	DD	018ae7H
	DD	018759H
	DD	0187eaH
	DD	00H
	DD	018ae8H
	DD	01875eH
	DD	0187e9H
	DD	00H
	DD	018ae9H
	DD	018763H
	DD	0187e7H
	DD	00H
	DD	018aeaH
	DD	0189b6H
	DD	018814H
	DD	00H
	DD	018aebH
	DD	0189bbH
	DD	018815H
	DD	00H
	DD	018e51H
	DD	0189bbH
	DD	018cc8H
	DD	00H
	DD	018e5cH
	DD	0189bbH
	DD	018c9cH
	DD	00H
	DD	018aecH
	DD	018768H
	DD	018801H
	DD	00H
	DD	018aedH
	DD	01876dH
	DD	018801H
	DD	00H
	DD	018aeeH
	DD	018772H
	DD	018801H
	DD	00H
	DD	018aefH
	DD	018777H
	DD	018801H
	DD	00H
	DD	018af0H
	DD	018768H
	DD	0187e9H
	DD	00H
	DD	018af1H
	DD	01876dH
	DD	0187e8H
	DD	00H
	DD	018af2H
	DD	018772H
	DD	0187e7H
	DD	00H
	DD	018af3H
	DD	018777H
	DD	0187eaH
	DD	00H
	DD	018af4H
	DD	0189c0H
	DD	018814H
	DD	00H
	DD	018af5H
	DD	0189c5H
	DD	018815H
	DD	00H
	DD	018e54H
	DD	0189c5H
	DD	018cc8H
	DD	00H
	DD	018e5fH
	DD	0189c5H
	DD	018c9cH
	DD	00H
	DD	018af6H
	DD	01877cH
	DD	01882cH
	DD	00H
	DD	018af7H
	DD	018781H
	DD	01882cH
	DD	00H
	DD	018af8H
	DD	018786H
	DD	01882cH
	DD	00H
	DD	018af9H
	DD	01878bH
	DD	01882cH
	DD	00H
	DD	018afaH
	DD	01877cH
	DD	0187eaH
	DD	00H
	DD	018afbH
	DD	018781H
	DD	0187e7H
	DD	00H
	DD	018afcH
	DD	018786H
	DD	0187e9H
	DD	00H
	DD	018afdH
	DD	01878bH
	DD	0187e8H
	DD	00H
	DD	018afeH
	DD	0189caH
	DD	018814H
	DD	00H
	DD	018affH
	DD	0189cfH
	DD	018815H
	DD	00H
	DD	018e53H
	DD	0189cfH
	DD	018cc8H
	DD	00H
	DD	018e5eH
	DD	0189cfH
	DD	018c9cH
	DD	00H
	DD	018b3bH
	DD	018b39H
	DD	018b3aH
	DD	00H
	DD	018b3bH
	DD	018b3aH
	DD	018b39H
	DD	00H
_DATA	ENDS
PUBLIC	?strchr@@YAPADQADH@Z				; strchr
PUBLIC	?strstr@@YAPADQADQBD@Z				; strstr
PUBLIC	___local_stdio_printf_options
PUBLIC	??$__vcrt_va_start_verify_argument_type@QBD@@YAXXZ ; __vcrt_va_start_verify_argument_type<char const * const>
PUBLIC	__vsnprintf_l
PUBLIC	__vsnprintf
PUBLIC	__vsprintf_l
PUBLIC	__vsprintf_s_l
PUBLIC	_vsprintf_s
PUBLIC	_sprintf
PUBLIC	__snprintf
PUBLIC	?lssproto_TD_recv@@YAXHPAD@Z			; lssproto_TD_recv
PUBLIC	?lssproto_CHATROOM_recv@@YAXHPAD@Z		; lssproto_CHATROOM_recv
PUBLIC	?lssproto_RESIST_recv@@YAXHPAD@Z		; lssproto_RESIST_recv
PUBLIC	?lssproto_ALCHEPLUS_recv@@YAXHPAD@Z		; lssproto_ALCHEPLUS_recv
PUBLIC	?lssproto_BATTLESKILL_recv@@YAXHPAD@Z		; lssproto_BATTLESKILL_recv
PUBLIC	?lssproto_CHAREFFECT_recv@@YAXHPAD@Z		; lssproto_CHAREFFECT_recv
PUBLIC	?TradeTalk@@YAXPAD@Z				; TradeTalk
PUBLIC	?InitItem@@YAXHHH@Z				; InitItem
PUBLIC	?InitMenu@@YAXXZ				; InitMenu
PUBLIC	?InitMenu2@@YAXXZ				; InitMenu2
PUBLIC	?CheckMenuFlag@@YAHXZ				; CheckMenuFlag
PUBLIC	?MenuProc@@YAXXZ				; MenuProc
PUBLIC	?MakeWindowDisp@@YAPAUaction@@HHHHHH@Z		; MakeWindowDisp
PUBLIC	?MakeHitBox@@YAHHHHHH@Z				; MakeHitBox
PUBLIC	?SaveMailHistory@@YAHH@Z			; SaveMailHistory
PUBLIC	?LoadMailHistory@@YAHXZ				; LoadMailHistory
PUBLIC	?CheckMailNoReadFlag@@YAHXZ			; CheckMailNoReadFlag
PUBLIC	?InitOhtaParam@@YAXXZ				; InitOhtaParam
PUBLIC	?DeathLetterAction@@YAXXZ			; DeathLetterAction
PUBLIC	?SaveChatRegistyStr@@YAHXZ			; SaveChatRegistyStr
PUBLIC	?LoadChatRegistyStr@@YAHXZ			; LoadChatRegistyStr
PUBLIC	?CenteringStr@@YAXPAD0H@Z			; CenteringStr
PUBLIC	?CheckNewPet@@YAXH@Z				; CheckNewPet
PUBLIC	?CheckBattleNewPet@@YAXXZ			; CheckBattleNewPet
PUBLIC	?LoadAlbum@@YAHXZ				; LoadAlbum
PUBLIC	?SaveAlbum@@YAHH@Z				; SaveAlbum
PUBLIC	?MakeAnimDisp@@YAPAUaction@@HHHH@Z		; MakeAnimDisp
PUBLIC	?tradeInit@@YAXXZ				; tradeInit
PUBLIC	?BankmanInit@@YAXPAD@Z				; BankmanInit
PUBLIC	?closeBankman@@YAXXZ				; closeBankman
PUBLIC	?InitSelectChar@@YAXPADH@Z			; InitSelectChar
PUBLIC	?SelectChar@@YAXXZ				; SelectChar
PUBLIC	?DeathTellChannel@@YAXXZ			; DeathTellChannel
PUBLIC	?SelectChatRoom@@YAXXZ				; SelectChatRoom
PUBLIC	?InitSelChatRoom@@YAXPAD@Z			; InitSelChatRoom
PUBLIC	?InitCreateChatRoom@@YAXPAD@Z			; InitCreateChatRoom
PUBLIC	?ChatRoomWnd@@YAXXZ				; ChatRoomWnd
PUBLIC	?initAssentWnd@@YAXPAD@Z			; initAssentWnd
PUBLIC	?AssentWnd@@YAXXZ				; AssentWnd
PUBLIC	?setRoomName@@YAXXZ				; setRoomName
PUBLIC	?send_StandBy_Pet@@YAXXZ			; send_StandBy_Pet
PUBLIC	?ItemCanPile@@YAHH@Z				; ItemCanPile
PUBLIC	?checkRidePet@@YAXH@Z				; checkRidePet
PUBLIC	?RIDEPET_getNOindex@@YAHH@Z			; RIDEPET_getNOindex
PUBLIC	?RIDEPET_getPETindex@@YAHHH@Z			; RIDEPET_getPETindex
PUBLIC	?RIDEPET_getRIDEno@@YAHHH@Z			; RIDEPET_getRIDEno
PUBLIC	?SkillWndfunc2@@YAXXZ				; SkillWndfunc2
PUBLIC	??$sprintf_s@$0BAA@@@YAHAAY0BAA@DPBDZZ		; sprintf_s<256>
PUBLIC	??$strncpy_s@$0BAA@@@YAHAAY0BAA@DPBDI@Z		; strncpy_s<256>
PUBLIC	?LockAndOkfunction@@YAXXZ			; LockAndOkfunction
PUBLIC	?WindowDisp@@YAXPAUaction@@@Z			; WindowDisp
PUBLIC	?AnimDisp@@YAXPAUaction@@@Z			; AnimDisp
PUBLIC	?LoadAlbum_47@@YAHPAD@Z				; LoadAlbum_47
PUBLIC	?ConvertAlbumTo47@@YAHPAD0K@Z			; ConvertAlbumTo47
PUBLIC	?ConvertAlbum1_47@@YAHPAD@Z			; ConvertAlbum1_47
PUBLIC	?CheckPetSkill@@YAHH@Z				; CheckPetSkill
PUBLIC	?InitItem3@@YAXHH@Z				; InitItem3
PUBLIC	?InitMailSendFlag@@YAXXZ			; InitMailSendFlag
PUBLIC	?DeathMenuAction@@YAXXZ				; DeathMenuAction
PUBLIC	?DeathMenuAction2@@YAXXZ			; DeathMenuAction2
PUBLIC	?自动登陆窗口回调@@YAXXZ			; 自动登陆窗口回调
PUBLIC	??$sprintf_s@$0IA@@@YAHAAY0IA@DPBDZZ		; sprintf_s<128>
PUBLIC	??$strcat_s@$0BAE@@@YAHAAY0BAE@DPBD@Z		; strcat_s<260>
PUBLIC	?initSetRoomName@@YAXXZ				; initSetRoomName
PUBLIC	?SwapOrder@@YAXHH@Z				; SwapOrder
PUBLIC	?InitRoomInfo@@YAXXZ				; InitRoomInfo
PUBLIC	?InitRecvMsg@@YAXPAD@Z				; InitRecvMsg
PUBLIC	??$__vcrt_va_start_verify_argument_type@PBD@@YAXXZ ; __vcrt_va_start_verify_argument_type<char const *>
PUBLIC	?_OptionsStorage@?1??__local_stdio_printf_options@@9@4_KA ; `__local_stdio_printf_options'::`2'::_OptionsStorage
PUBLIC	??_C@_02DPKJAMEF@?$CFd?$AA@			; `string'
PUBLIC	??_C@_01CLKCMJKC@?5?$AA@			; `string'
PUBLIC	??_C@_02DKCKIIND@?$CFs?$AA@			; `string'
PUBLIC	??_C@_04IMPGGDFH@?$CFd?$KD?$KF?$AA@		; `string'
PUBLIC	??_C@_0M@MPGNHMDP@?$CI?$LK?q?$LP?kMP?3?$CFd?$CJ?$AA@ ; `string'
PUBLIC	??_C@_03GHDNOBPC@?$CF8s?$AA@			; `string'
PUBLIC	??_C@_0L@OMFCIIOF@?$CI?Y?D?$DPMP?3?$CFd?$CJ?$AA@ ; `string'
PUBLIC	??_C@_0FG@OFAEILEL@T?$HM?$CFs?$HM?$CFs?$HMK?$HMI?$HM?$CFd?$HMI?$HM?$CFd?$HMI?$HM?$CFd?$HMI?$HM?$CFd?$HMI?$HM@ ; `string'
PUBLIC	??_C@_0BP@EDJFIODM@P?$HM?$CFd?$HMP?$HM?$CFd?$HMP?$HM?$CFd?$HMP?$HM?$CFd?$HMP?$HM?$CFd?$HMG?$HM?$CFd?$HM?$AA@ ; `string'
PUBLIC	??_C@_0EM@BMOJJPID@I?$HM?$CFd?$HMI?$HM?$CFd?$HMI?$HM?$CFd?$HMI?$HM?$CFd?$HMI?$HM?$CFd?$HMI?$HM?$CFd?$HMI?$HM@ ; `string'
PUBLIC	??_C@_08KJEDNCKC@?$CFs?$CFs?$CFs?$CFs?$AA@	; `string'
PUBLIC	??_C@_0BC@OAKKNIEC@T?$HM?$CFs?$HM?$CFs?$HMC?$HMconfirm?$AA@ ; `string'
PUBLIC	??_C@_03IFADCKOJ@?$CFd?$HM?$AA@			; `string'
PUBLIC	??_C@_03HMFOOINA@r?$CLb?$AA@			; `string'
PUBLIC	??_C@_0O@GFOIPMHB@data?2mail?4dat?$AA@		; `string'
PUBLIC	??_C@_02JDPG@rb?$AA@				; `string'
PUBLIC	??_C@_02GMLFBBN@wb?$AA@				; `string'
PUBLIC	??_C@_0BB@GDFOCPAE@data?2chatreg?4dat?$AA@	; `string'
PUBLIC	??_C@_0BC@DHMHBGOC@data?2album_47?4dat?$AA@	; `string'
PUBLIC	??_C@_04IJNKKJEO@?H?$KO?$MA?N?$AA@		; `string'
PUBLIC	??_C@_0CN@KFFLPIAB@?$LO?Y?$LJ?$PM?5?$LF?$KF?$MA?L?E?M?$LI?$KG?5?$MA?z?$MA?e?G?O?$LE?B?$LF?$KF?5?$LN?G?F?P?G?O?$LP@ ; `string'
PUBLIC	??_C@_0CN@IOHGKLMC@?$LO?Y?$LJ?$PM?5?$LF?$KF?$MA?L?E?M?$LI?$KG?5?$MA?z?$MA?e?G?O?$LE?B?$LF?$KF?5?$LN?G?F?P?G?O?$LP@ ; `string'
PUBLIC	??_C@_0CN@JHGNJKID@?$LO?Y?$LJ?$PM?5?$LF?$KF?$MA?L?E?M?$LI?$KG?5?$MA?z?$MA?e?G?O?$LE?B?$LF?$KF?5?$LN?G?F?P?G?O?$LP@ ; `string'
PUBLIC	??_C@_0BB@DGDLCNIG@data?2album_2?4dat?$AA@	; `string'
PUBLIC	??_C@_0BB@PNGHPOCD@data?2album_3?4dat?$AA@	; `string'
PUBLIC	??_C@_0BC@HIPKAJPN@data?2album_10?4dat?$AA@	; `string'
PUBLIC	??_C@_0P@JONHHOLF@data?2album?4dat?$AA@		; `string'
PUBLIC	??_C@_09BACHGGGK@f?$DLencor1c?$AA@		; `string'
PUBLIC	??_C@_0BC@PMJLMFEH@data?2album_46?4dat?$AA@	; `string'
PUBLIC	??_C@_0BC@HKAPLHOJ@data?2album_45?4dat?$AA@	; `string'
PUBLIC	??_C@_0BC@LBFDGEEM@data?2album_44?4dat?$AA@	; `string'
PUBLIC	??_C@_0BC@KMFGFEPE@data?2album_43?4dat?$AA@	; `string'
PUBLIC	??_C@_0BC@GHAKIHFB@data?2album_42?4dat?$AA@	; `string'
PUBLIC	??_C@_0BC@OBJOPFPP@data?2album_41?4dat?$AA@	; `string'
PUBLIC	??_C@_0BC@CKMCCGFK@data?2album_40?4dat?$AA@	; `string'
PUBLIC	??_C@_0BC@MIGKEJBM@data?2album_39?4dat?$AA@	; `string'
PUBLIC	??_C@_0BC@DDGJKLJ@data?2album_38?4dat?$AA@	; `string'
PUBLIC	??_C@_0BC@PCGACIGM@data?2album_37?4dat?$AA@	; `string'
PUBLIC	??_C@_0BC@DJDMPLMJ@data?2album_36?4dat?$AA@	; `string'
PUBLIC	??_C@_0BC@LPKIIJGH@data?2album_35?4dat?$AA@	; `string'
PUBLIC	??_C@_0BC@HEPEFKMC@data?2album_34?4dat?$AA@	; `string'
PUBLIC	??_C@_0BC@GJPBGKHK@data?2album_33?4dat?$AA@	; `string'
PUBLIC	??_C@_0BC@KCKNLJNP@data?2album_32?4dat?$AA@	; `string'
PUBLIC	??_C@_0BC@CEDJMLHB@data?2album_31?4dat?$AA@	; `string'
PUBLIC	??_C@_0BC@OPGFBINE@data?2album_30?4dat?$AA@	; `string'
PUBLIC	??_C@_0BC@GOBNECKI@data?2album_29?4dat?$AA@	; `string'
PUBLIC	??_C@_0BC@KFEBJBAN@data?2album_28?4dat?$AA@	; `string'
PUBLIC	??_C@_0BC@FEBHCDNI@data?2album_27?4dat?$AA@	; `string'
PUBLIC	??_C@_0BC@JPELPAHN@data?2album_26?4dat?$AA@	; `string'
PUBLIC	??_C@_0BC@BJNPICND@data?2album_25?4dat?$AA@	; `string'
PUBLIC	??_C@_0BC@NCIDFBHG@data?2album_24?4dat?$AA@	; `string'
PUBLIC	??_C@_0BC@MPIGGBMO@data?2album_23?4dat?$AA@	; `string'
PUBLIC	??_C@_0BC@ENKLCGL@data?2album_22?4dat?$AA@	; `string'
PUBLIC	??_C@_0BC@ICEOMAMF@data?2album_21?4dat?$AA@	; `string'
PUBLIC	??_C@_0BC@EJBCBDGA@data?2album_20?4dat?$AA@	; `string'
PUBLIC	??_C@_0BC@FPPFFIDF@data?2album_19?4dat?$AA@	; `string'
PUBLIC	??_C@_0BC@JEKJILJA@data?2album_18?4dat?$AA@	; `string'
PUBLIC	??_C@_0BC@GFPPDJEF@data?2album_17?4dat?$AA@	; `string'
PUBLIC	??_C@_0BC@KOKDOKOA@data?2album_16?4dat?$AA@	; `string'
PUBLIC	??_C@_0BC@CIDHJIEO@data?2album_15?4dat?$AA@	; `string'
PUBLIC	??_C@_0BC@ODGLELOL@data?2album_14?4dat?$AA@	; `string'
PUBLIC	??_C@_0BC@POGOHLFD@data?2album_13?4dat?$AA@	; `string'
PUBLIC	??_C@_0BC@DFDCKIPG@data?2album_12?4dat?$AA@	; `string'
PUBLIC	??_C@_0BB@FMPMNNEF@data?2album_9?4dat?$AA@	; `string'
PUBLIC	??_C@_0BB@JHKAAOOA@data?2album_8?4dat?$AA@	; `string'
PUBLIC	??_C@_0BB@GGPGLMDF@data?2album_7?4dat?$AA@	; `string'
PUBLIC	??_C@_0BB@KNKKGPJA@data?2album_6?4dat?$AA@	; `string'
PUBLIC	??_C@_0BB@CLDOBNDO@data?2album_5?4dat?$AA@	; `string'
PUBLIC	??_C@_0BB@OAGCMOJL@data?2album_4?4dat?$AA@	; `string'
PUBLIC	??_C@_08GINKOJP@?$CF?$CKc?$CFs?$CF?$CKc?$AA@	; `string'
PUBLIC	??_C@_03IKGEINEE@?$CFs?5?$AA@			; `string'
PUBLIC	??_C@_0P@LOIJIIEJ@?$LE?k?5?A?v?$LP?$KK?5?$LM?$LD?A?$KE?$KB?$KD?$AA@ ; `string'
PUBLIC	??_C@_0CJ@GIHIAMIF@?$LG?s?$MA?N?$MA?$LL?5?$LM?$LD?A?$KE?G?O?$LA?m?0?5?$LE?k?5?A?v?$LP?$KK?$MA?$LL?5?$LM?$LD?A?$KE?G@ ; `string'
PUBLIC	??_C@_0MB@GBACAPFD@?F?$MA?$MA?e?1?F?D?F?$LM?$MA?e?$KD?$LK?$MA?Z?$LF?$LP?$MA?$LI?$LH?N?5?$MA?$PL?$MA?$LL?$LI?$LI?$LD?$KK?$LA?T@ ; `string'
PUBLIC	??_C@_0BF@CKOBPJKJ@?$LH?N?$LB?W?$LP?B?5?D?$LD?$LI?$KP?E?M?5?$LM?$LD?A?$KE?$KB?$KD?$AA@ ; `string'
PUBLIC	??_C@_0GF@BOMDPEP@?$LH?N?$LB?W?$MA?N?5?H?D?5F9?E?$LA?$LI?$KG?5?$LE?$KN?$LH?$KP?$LM?$KN?5?D?Q?$LA?m?5?$LC?x?$LM@ ; `string'
PUBLIC	??_C@_0DK@HOGDKPIF@?$LE?k?5?A?v?$LP?$KK?5?$LG?s?$MA?N?$LA?z?5?$LP?$KK?G?R?$MA?$LL?5?$LI?U?$MA?z?5?$LM?$LB?E?C?G@ ; `string'
PUBLIC	??_C@_0DE@CELNCKDE@?F?D?F?$LM?$MA?e?$LA?z?5?$LM?V?$LH?N?5?G?C?$LH?$LJ?$MA?L?$LO?n?$LE?B?5?$MA?L?5?$LB?b?$LE?I@ ; `string'
PUBLIC	??_C@_0DF@NNHIIENC@?$MA?$PL?5?C?b?G?v?5?$LI?p?$LF?e?$LE?B?5?F?D?F?$LM?$MA?e?$LA?z?5?$LM?V?$LH?N?5?G?C?$LH@ ; `string'
PUBLIC	??_C@_0CE@ODNPGMLF@?F?D?F?$LM?$LP?x?$LI?$LI?5?$MA?L?5?$LB?b?$LE?I?$MA?$LL?5?$LM?$LD?A?$KE?G?R?5?$LM?v?5?$MA?V?$MA@ ; `string'
PUBLIC	??_C@_0DC@OHNNJONP@?$MA?Z?$LF?$LP?5?$LP?$NM?D?$KH?$MA?$LK?5?F?D?F?$LM?$LP?x?5?$LI?p?$LF?e?$LP?$KB?$LM?$KN?$LI?$LI?5?H?$LA@ ; `string'
PUBLIC	??_C@_0CM@PNEJOHOF@?A?$KC?$LM?S?$MA?L?$LC?w?$LB?d?5?D?$LD?$LI?$KP?E?M?5?$MA?g?A?$KC?$LM?S?5?$LN?C?5?D?$LD?$LI?$KP@ ; `string'
PUBLIC	??_C@_04CJANLAJP@?D?Q?$LE?Y?$AA@		; `string'
PUBLIC	??_C@_04JHHBNKBI@?A?$LO?$LH?a?$AA@		; `string'
PUBLIC	??_C@_0CE@JEKFMNHA@?$LL?s?A?$KB?$MA?L?$LP?k?$LN?C?0?5?$LO?F?$MA?L?E?$NL?$LL?g?$LP?k?$MA?$LL?G?R?$LM?v?$LO?x?$LO?n@ ; `string'
PUBLIC	??_C@_0N@MLOJNNJN@?$LE?$NM?$LM?x?H?$KN?$LJ?v?F?$LA?$KD?$KB?$AA@ ; `string'
PUBLIC	??_C@_0L@PCOGCFAC@?$LB?b?A?$LI?$LJ?v?F?$LA?$KD?$KB?$AA@ ; `string'
PUBLIC	??_C@_0BB@KKHECGNN@BGM?$MA?L?5?D?Q?A?$LD?$LO?n?$LP?d?$KD?$KB?$AA@ ; `string'
PUBLIC	??_C@_0BB@LGLPBADP@BGM?$MA?L?5?$LC?$KI?A?$LD?$LO?n?$LP?d?$KD?$KB?$AA@ ; `string'
PUBLIC	??_C@_0P@OFGFLBDD@?$LK?$PM?$LI?$KF?$LA?H?$LB?b?D?Q?$LB?b?$KD?$KB?$AA@ ; `string'
PUBLIC	??_C@_0P@DNLMMAKH@?$LK?$PM?$LI?$KF?$LA?H?$LB?b?$LC?t?$LB?b?$KD?$KB?$AA@ ; `string'
PUBLIC	??_C@_0P@BJHPFHFH@?$LL?s?E?B?G?$KF?$LN?C?$LP?$KN?$LB?b?$KD?$KB?$AA@ ; `string'
PUBLIC	??_C@_0P@FDCJGPKI@?$LL?s?E?B?G?$KF?$LN?C?$LC?t?$LB?b?$KD?$KB?$AA@ ; `string'
PUBLIC	??_C@_0CC@LEBCBFKD@?$MA?Z?$LF?$LP?$MA?$PM?E?u?5?$LI?p?$LF?e?$LA?$KB?5?H?$LA?$LM?$LK?H?$KN?5?$LF?G?$LO?z?$LN?$MA?$LE?O?$LE@ ; `string'
PUBLIC	??_C@_0CB@HCIPIBLA@?$MA?Z?$LF?$LP?$MA?$PM?E?u?5?$LI?p?$LF?e?$LA?$KB?5?A?$LO?$LH?a?5?$LF?G?$LO?z?$LN?$MA?$LE?O?$LE?Y?4@ ; `string'
PUBLIC	??_C@_0BB@MEGGIBAG@?5?5?5?5?$LI?$LG?$MA?$LL?$LA?$KB?$LB?b?5?5?5?5?$AA@ ; `string'
PUBLIC	??_C@_0BB@KCHLCCBP@?5?5?5?5?$LH?N?$LB?W?$LO?F?$LP?t?5?5?5?5?$AA@ ; `string'
PUBLIC	??_C@_0BB@JJJAMCHF@?5?5?5?5?C?$KE?F?C?$LM?$LD?A?$KE?5?5?5?5?$AA@ ; `string'
PUBLIC	??_C@_0BB@EOMINEH@?5?5?5?5?$LJ?h?$LA?f?$MA?$LN?$LO?G?5?5?5?5?$AA@ ; `string'
PUBLIC	??_C@_0BB@IBKCAFGG@?5?5?5?5?H?$LP?$LA?z?$LM?$LD?A?$KE?5?5?5?5?$AA@ ; `string'
PUBLIC	??_C@_0BB@EKMKLDGL@?5?5?5?5?D?$LP?$LM?$KN?$LM?$LD?A?$KE?5?5?5?5?$AA@ ; `string'
PUBLIC	??_C@_0BB@BBDDKJIA@?5?5?5?5?$KD?A?$KD?I?$LM?$LD?A?$KE?5?5?5?5?$AA@ ; `string'
PUBLIC	??_C@_0BB@MMGLKEFK@?5?5?5?5?$MA?$KH?D?$KB?$MA?L?$LF?$LP?5?5?5?5?$AA@ ; `string'
PUBLIC	??_C@_0BB@JKKBBNLA@?5?5?5?5?F?$KO?$LH?$LJ?$MA?L?$LD?J?5?5?5?5?$AA@ ; `string'
PUBLIC	??_C@_0BB@BGIMMNDO@?5?5?5?5?$LA?$LD?$MA?N?A?$KE?$LK?$LI?5?5?5?5?$AA@ ; `string'
PUBLIC	??_C@_0N@GMIIOOOP@?5?5?$MA?$LN?$LO?G?D?Q?$LB?b?5?5?$AA@ ; `string'
PUBLIC	??_C@_0N@LEFBJPHL@?5?5?$MA?$LN?$LO?G?$LC?t?$LB?b?5?5?$AA@ ; `string'
PUBLIC	??_C@_0N@NDDHCOLD@?5?5?$LL?s?E?B?$LC?t?$LB?b?5?5?$AA@ ; `string'
PUBLIC	??_C@_0N@LOOFPCH@?5?5?$LL?s?E?B?D?Q?$LB?b?5?5?$AA@ ; `string'
PUBLIC	??_C@_0N@HKIKJEIK@?5?5?$MA?Z?$LF?$LP?$LC?t?$LB?b?5?5?$AA@ ; `string'
PUBLIC	??_C@_0N@KCFDOFBO@?5?5?$MA?Z?$LF?$LP?D?Q?$LB?b?5?5?$AA@ ; `string'
PUBLIC	??_C@_0N@EGOAFECP@?5?5?H?$KI?F?d?$MA?L?A?v?5?5?$AA@ ; `string'
PUBLIC	??_C@_0N@IEPBEKHA@?5?5?$LF?p?$LN?$LK?D?Z?$LF?e?5?5?$AA@ ; `string'
PUBLIC	??_C@_0N@DEIGFB@?$KB?$KB?$LE?$NN?$KB?$KB?$KB?$KB?$LB?b?$KB?$KB?$AA@ ; `string'
PUBLIC	??_C@_0BD@KOMGLKIA@?$KB?$KB?$KB?$KB?5?H?$KO?5?5?5?5?5?$MA?N?$KB?$KB?$KB?$KB?$AA@ ; `string'
PUBLIC	??_C@_0BD@BOIANLGK@?$KB?$KB?$KB?$KB?5?C?k?5?5?5?5?5?$LM?R?$KB?$KB?$KB?$KB?$AA@ ; `string'
PUBLIC	??_C@_0BM@ENKFHEAF@?5?5?5?5?5?$KB?$NP?5?C?$KE?F?C?5?G?$KF?$LN?C?5?$CF3d?5?A?Y?5?$KB?$NP?$AA@ ; `string'
PUBLIC	??_C@_0BH@FAFBDACD@?5?5?5?5?5?5?5?5?A?u?5?5?5?5?$LA?$KB?5?5?5?5?5?5?$AA@ ; `string'
PUBLIC	??_C@_0BH@LLOMOPMG@?5?5?5?5?5?5?5?5?$LA?$KI?5?5?5?5?$LM?R?5?5?5?5?5?5?$AA@ ; `string'
PUBLIC	??_C@_0BH@BHEDFJKF@?5?5?5?5?5?$LL?v?$LL?s?5?$LK?$KP?$LA?f?$CI?$CF?92d?$CJ?5?5?$AA@ ; `string'
PUBLIC	??_C@_0BI@FHOMOHBA@?5?5?5?5?5?5?5?5?$LJ?$KO?$MA?Z?5?$LM?$LD?A?$KE?5?5?5?5?5?5?$AA@ ; `string'
PUBLIC	??_C@_0BL@KBNPCBGD@?5?5?5?5?5?$KB?$NP?5?C?$KE?5?F?C?5?$LJ?$PM?5?$MA?$KH?5?$CF3d?5?$KB?$NP?$AA@ ; `string'
PUBLIC	??_C@_0BH@BIAEBEPO@?5?5?5?5?5?5?5?A?u?5?5?5?5?$LA?$KB?5?5?5?5?5?5?5?$AA@ ; `string'
PUBLIC	??_C@_0BH@MIIPLPNG@?5?5?5?5?5?5?5?$LA?$KI?5?5?5?5?$LM?R?5?5?5?5?5?5?5?$AA@ ; `string'
PUBLIC	??_C@_0BI@DIAFOMFL@?5?5?5?5?5?5?$LF?$LJ?5?$LO?F?5?$LA?$KB?5?$LB?b?5?5?5?5?5?5?$AA@ ; `string'
PUBLIC	??_C@_0BL@OHLFALHA@?5?5?$KB?$NP?5?5?G?v?5?$MA?g?5?$MA?$LN?5?$LH?$KO?$CF3d?5?5?$KB?$NP?5?5?$AA@ ; `string'
PUBLIC	??_C@_0BI@KPMMPACD@?5?5?5?5?5?5?5?A?u?5?5?5?5?5?$LA?$KB?5?5?5?5?5?5?5?$AA@ ; `string'
PUBLIC	??_C@_0BI@FONPGALA@?5?5?5?5?5?5?5?$LA?$KI?5?5?5?5?5?$LM?R?5?5?5?5?5?5?5?$AA@ ; `string'
PUBLIC	??_C@_0BJ@GJAFKJDC@?5?5?5?5?5?5?$LF?$LJ?5?$LO?F?5?$LA?$KB?5?$LB?b?5?5?5?5?5?5?5?$AA@ ; `string'
PUBLIC	??_C@_0BI@MMNCCENM@?5?5?5?$KB?$NP?5?5?$LJ?h?$LA?f?$MA?$LN?$LO?G?5?$CF3d?5?5?$KB?$NP?$AA@ ; `string'
PUBLIC	??_C@_0BL@BJPCPCNM@?$KB?$NP?5?5?5?$KB?$NP?5?5?E?$NL?F?w?A?$LG?$MA?$PN?5?50?5?5?$KB?$NP?$KB?$NP?$AA@ ; `string'
PUBLIC	??_C@_0BK@FEMCCNKI@?5?5?5?$KB?$NP?5?5?E?$NL?F?w?A?$LG?$MA?$PN?5?5?$CF?$CL3d?5?5?$KB?$NP?$AA@ ; `string'
PUBLIC	??_C@_0BG@IIDNKJBP@?5?5?5?5?5?5?5?A?u?5?5?5?5?$LA?$KB?5?5?5?5?5?5?$AA@ ; `string'
PUBLIC	??_C@_0BG@GDIAHGPK@?5?5?5?5?5?5?5?$LA?$KI?5?5?5?5?$LM?R?5?5?5?5?5?5?$AA@ ; `string'
PUBLIC	??_C@_08LPIKKIN@?$LA?x?$LH?f?$LO?K?$KB?$KD?$AA@	; `string'
PUBLIC	??_C@_08LMHKBLHA@?$LL?$MA?$LE?Y?$LB?M?$KB?$KD?$AA@ ; `string'
PUBLIC	??_C@_0BG@KDDPLIEA@?5?$KB?$NP?5?D?$LP?5?$LM?$KN?5?$LM?$LD?5?A?$KE?5?$KB?$NP?5?5?5?$AA@ ; `string'
PUBLIC	??_C@_0BF@NJPDCGDE@?5?5?5?5?5?5?5?A?$LO?5?5?$LH?a?5?5?5?5?5?5?5?$AA@ ; `string'
PUBLIC	??_C@_0BC@BCIJAKBP@?5?5?5?5?H?$KO?5?5?5?5?$MA?N?5?5?5?5?5?$AA@ ; `string'
PUBLIC	??_C@_0BC@KGJCGBCP@?5?5?5?5?C?k?5?5?5?5?$LM?R?5?5?5?5?5?$AA@ ; `string'
PUBLIC	??_C@_03GCLOGFGE@?$CF8d?$AA@			; `string'
PUBLIC	??_C@_04EFBICKBP@?$CF?93d?$AA@			; `string'
PUBLIC	??_C@_03BJDGPCOK@Max?$AA@			; `string'
PUBLIC	??_C@_0M@OMIJDHCN@?$CFd?1?$CFd?$CI?$CFd?$CF?$CF?$CJ?$AA@ ; `string'
PUBLIC	??_C@_05LCKIIOJE@?$CFd?1?$CFd?$AA@		; `string'
PUBLIC	??_C@_03HIFDAEPP@?$CF?9d?$AA@			; `string'
PUBLIC	??_C@_05PNFJLFEO@?$CI?$CF2d?$CJ?$AA@		; `string'
PUBLIC	??_C@_03GLKEJMAA@?$CF4d?$AA@			; `string'
PUBLIC	??_C@_09COLCMPMP@?$CF4d?5?5?5?$CF4d?$AA@	; `string'
PUBLIC	??_C@_07JANMBDEO@?$CF4d?5?$CF4d?$AA@		; `string'
PUBLIC	??_C@_0CF@IJGAMOEE@?$FL?$CFs?$FN?$MA?g?$LH?a?5?$LM?S?$LM?$LK?$MA?$LL?5?H?$KO?$MA?N?G?T?5?5?5?5?5?5?5?$CFd?5@ ; `string'
PUBLIC	??_C@_0EG@CAIJDNGD@?$DP?i?M?$FL?$CFs?$FN?$MA?g?$LH?a?$MA?G?5?$LM?S?$LM?$LK?$MA?$LL?5?$LA?$KI?A?$KE?1?H?$KO?$MA?N?G?O@ ; `string'
PUBLIC	??_C@_0BC@HALJJKGM@?$MA?g?$LH?a?5?G?U?$LM?$LK?5?$LM?$LK?$LA?x?$MA?$LC?$AA?$AA@ ; `string'
PUBLIC	??_C@_0CH@BAIOACBP@?$FL?$CFs?$FN?$MA?g?$LH?a?5?$LM?S?$LM?$LK?$MA?$LL?5?H?$KO?$MA?N?G?T?5?5?5?5?5?5?5?5?5?$CF@ ; `string'
PUBLIC	??_C@_0CJ@JOENNLPN@?$MA?g?$LH?a?5?$LM?S?$LM?$LK?$MA?$LL?5?H?$KO?$MA?N?G?O?$LP?$KJ?$FL?$CFs?$FN?$LI?$KG?5?$LD?t?$MA?O?5@ ; `string'
PUBLIC	??_C@_0BB@PPGFHNAN@?$MA?g?$LH?a?G?U?$LM?$LK?5?$LM?$LK?$LA?x?$MA?$LC?$AA?$AA@ ; `string'
PUBLIC	??_C@_05GGHFNJMD@?$CFs?$CFs?$AA?$AA@		; `string'
PUBLIC	??_C@_0CG@KBOLHIJH@?$LL?s?A?$KB?$LB?b?$LE?I?$MA?L?$LP?k?$LN?C?0?5?F?d?F?$KO?$LI?$KG?$LK?$KP?$LA?f?G?R?$LM?v?$LO?x@ ; `string'
PUBLIC	??_C@_0BC@GNJPGDIA@?$HLpet?$DN?$CFd?0str?$DN?$FL?$CFs?$FN?$HN?$AA@ ; `string'
PUBLIC	??_C@_06EFALBHEL@R?$HMP?$HM?91?$AA@		; `string'
PUBLIC	??_C@_0BC@ILNBPEIE@?F?d?F?$KO?$LI?$KG?5?$LJ?v?$LI?$LB?$LB?n?$LP?d?$KD?$LP?$AA@ ; `string'
PUBLIC	??_C@_05EMGOANLP@?$CF?916s?$AA@			; `string'
PUBLIC	??_C@_01OGPIMHDM@?$DP?$AA@			; `string'
PUBLIC	??_C@_07PKBGKFAJ@?k?W?y?j?$CFd?$DP?$AA@		; `string'
PUBLIC	??_C@_03FOFHDGCP@?$CFd?$DP?$AA@			; `string'
PUBLIC	??_C@_0BC@PMPFNJLM@?$CF3d?5?5?5?5?5?$CF4d?5?5?5?$CF4d?$AA@ ; `string'
PUBLIC	??_C@_0BB@OLBLGPHG@?F?d?F?$KO?$LA?$KB?5?$LO?x?$LN?$MA?$LE?O?$LE?Y?4?$AA@ ; `string'
PUBLIC	??_C@_09CFBKFGII@?$CFs?5?C?T?$LP?$LF?$KD?$KB?$AA@ ; `string'
PUBLIC	??_C@_03OCJFCJPE@?$FL?$DP?$FN?$AA@		; `string'
PUBLIC	??_C@_04FEBIMPDM@?$CI?$CFd?$CJ?$AA@		; `string'
PUBLIC	??_C@_04GHNNFJCK@?$CF?40f?$AA@			; `string'
PUBLIC	??_C@_0BL@LBJMLJDB@?$LH?$LJ?$LK?$KH?$LO?w?5?H?D?5?$LP?$LJ?$LL?s?5?$LA?$KK?5?$LA?h?$LL?j?$LA?$KB?$LE?I?$AA@ ; `string'
PUBLIC	??_C@_04GANEPBPG@?$CF?44f?$AA@			; `string'
PUBLIC	??_C@_0BK@GKGGCKK@?$LM?$LK?$MA?e?$LH?$PM?$MA?$LK?5?$LH?$LJ?$LK?$KH?$LO?w?5?H?D?$LP?$KB?5?$LA?$KB?$LE?I?$AA@ ; `string'
PUBLIC	??_C@_07EGJGINOD@?$PM?$NO?$DP?$KD?$LK?$CFd?$AA@	; `string'
PUBLIC	??_C@_0N@DBNACIMP@?5?5?5?5?5?5?5?$CF?922s?$AA@	; `string'
PUBLIC	??_C@_0BF@EOCHGIJI@?$LO?F?$MA?L?E?$NL?5?$MA?Z?$LF?$LP?5?$LA?c?D?$KB?$LB?b?$KB?$KD?$AA@ ; `string'
PUBLIC	??_C@_07ELLIEDNC@?1?$LA?c?D?$KB?$LB?b?$AA@	; `string'
PUBLIC	??_C@_02DEECJACC@?p?P?$AA@			; `string'
PUBLIC	??_C@_03IFDAGHED@?$NN?$KI?$DP?$AA@		; `string'
PUBLIC	??_C@_04HECMHKAJ@?M?b?$NM?j?$AA@		; `string'
PUBLIC	??_C@_02NNCIDFDN@?O?a?$AA@			; `string'
PUBLIC	??_C@_04CECPHKEL@?b?j?x?$KL?$AA@		; `string'
PUBLIC	??_C@_07GIIOIOCG@?$DP?$DP?1?Y?$LG?m?$KN?$AA@	; `string'
PUBLIC	??_C@_08FFKKHGPD@?k?$PN?$NM?W?1?$DP?K?$KD?$AA@	; `string'
PUBLIC	??_C@_03CAOPAKGC@?b?$KC?$DP?$AA@		; `string'
PUBLIC	??_C@_03CCJMBCAH@?$DP?P?o?$AA@			; `string'
PUBLIC	??_C@_02HHFHKOHM@?$DP?$DP?$AA@			; `string'
PUBLIC	??_C@_04BEMIHOKC@?Z?$LB?r?$LB?$AA@		; `string'
PUBLIC	??_C@_03NGIIPDCL@?l?$LM?$DP?$AA@		; `string'
PUBLIC	??_C@_03JAIMGAHB@?$NO?$KM?$DP?$AA@		; `string'
PUBLIC	??_C@_05MHFFLKOE@?$DP?c?s?$NN?$KM?$AA@		; `string'
PUBLIC	??_C@_08JLPLGDIB@?$NM?E?w?W?Z?$KK?y?$KB?$AA@	; `string'
PUBLIC	??_C@_05EGENBHF@?$PM?$NO?$OA?A?$DP?$AA@		; `string'
PUBLIC	??_C@_06GGKIIEAG@?w?a?$DP?$NN?$KI?$DP?$AA@	; `string'
PUBLIC	??_C@_05NCBNMKHJ@?w?a?$DP?$OA?$LE?$AA@		; `string'
PUBLIC	??_C@_08PPBNCICL@?l?i?Z?u?Z?$KK?y?$KB?$AA@	; `string'
PUBLIC	??_C@_03JEMGILCE@?Q?Q?$DP?$AA@			; `string'
PUBLIC	??_C@_03FPLIHDAI@?$DP?$OA?$LE?$AA@		; `string'
PUBLIC	??_C@_03KCAFCMJB@?$DP?Z?$KK?$AA@		; `string'
PUBLIC	??_C@_03PAOHCFLP@?i?$KG?$DP?$AA@		; `string'
PUBLIC	??_C@_02OEJDJEF@?b?j?$AA@			; `string'
PUBLIC	??_C@_04NMNAOJOJ@?$PL?$LJ?m?$KN?$AA@		; `string'
PUBLIC	??_C@_04DKIAPBFG@?b?$KC?w?$NP?$AA@		; `string'
PUBLIC	??_C@_03GCJLGDEN@?$DP?Q?Q?$AA@			; `string'
PUBLIC	??_C@_06KLOJBJDG@?$DP?Z?$KK?$DP?w?$NP?$AA@	; `string'
PUBLIC	??_C@_07BFLMDDCK@?$DP?Z?$KK?d?$LD?w?$NP?$AA@	; `string'
PUBLIC	??_C@_07KJEPFKIF@?$DP?Z?$KK?p?P?w?$NP?$AA@	; `string'
PUBLIC	??_C@_07DKJAJMNF@?$DP?Z?$KK?$PN?X?K?$KD?$AA@	; `string'
PUBLIC	??_C@_07BGDEODC@?$DP?Z?$KK?$NL?N?K?$KD?$AA@	; `string'
PUBLIC	??_C@_07EBDBKLFE@?$DP?Z?$KK?c?G?$NL?$LJ?$AA@	; `string'
PUBLIC	??_C@_05HADHEFCA@?$DP?Z?$KK?J?E?$AA@		; `string'
PUBLIC	??_C@_0N@OJIDMKKD@?R?$LB?5?N?y?5?S?x?$KD?$LK?$CFs?$AA@ ; `string'
PUBLIC	??_C@_0BA@HANCGCKL@?T?$LD?N?$PN?$DP?z?$PO?$KD?$LK?$CFs?$CI?$CFd?$CJ?$AA@ ; `string'
PUBLIC	??_C@_0M@PEOHJCFP@?$NO?E?i?D?T?u?$DP?$KD?$LK?$CFd?$AA@ ; `string'
PUBLIC	??_C@_0L@CFBINIFC@?R?$LB?N?y?S?x?$CI?$CFs?$CJ?$AA@ ; `string'
PUBLIC	??_C@_04ECOFNHEG@?$LJ?$NP?E?i?$AA@		; `string'
PUBLIC	??_C@_04JAHPKPAM@?$LF?$LF?$LD?$KC?$AA@		; `string'
PUBLIC	??_C@_04KEDFPNBA@?$LA?o?$LK?$MA?$AA@		; `string'
PUBLIC	??_C@_02LHEPKKK@?C?Q?$AA@			; `string'
PUBLIC	??_C@_02HLMHEPKN@?H?$LA?$AA@			; `string'
PUBLIC	??_C@_04LEJNPBFJ@?E?d?E?$NL?$AA@		; `string'
PUBLIC	??_C@_09CLDGNKDJ@?G?o?$LI?d?1?$LI?p?$MA?Z?$AA@	; `string'
PUBLIC	??_C@_07NECPELMJ@?$LP?J?1?$LA?$KJ?$LP?J?$AA@	; `string'
PUBLIC	??_C@_04LOKHEPDM@?F?H?B?n?$AA@			; `string'
PUBLIC	??_C@_04NFGEGNGB@?$LO?G?$LB?b?$AA@		; `string'
PUBLIC	??_C@_06ECKFEMGA@?$LI?q?$LA?I?$MA?L?$AA@	; `string'
PUBLIC	??_C@_08LGGDLKGH@?$LO?K?$LM?v?$LO?x?$MA?$LN?$AA@ ; `string'
PUBLIC	??_C@_06KEIFMOGF@?$LB?M?$LA?I?$MA?L?$AA@	; `string'
PUBLIC	??_C@_06EAGADMK@?D?Z?$LA?I?$MA?L?$AA@		; `string'
PUBLIC	??_C@_04JDNPCPFE@?$LK?N?$MA?$PL?$AA@		; `string'
PUBLIC	??_C@_0L@HDFPLLID@?$LA?x?E?k?$LO?F?$MA?L?E?$NL?$AA@ ; `string'
PUBLIC	??_C@_04CNJNIGHL@?$LN?$LK?G?I?$AA@		; `string'
PUBLIC	??_C@_06PDMDLGFL@?$LN?$LK?$LH?N?$MA?W?$AA@	; `string'
PUBLIC	??_C@_04DMAFGKHI@?$LN?$LK?E?f?$AA@		; `string'
PUBLIC	??_C@_08JJFHLNAF@?$MA?O?$LJ?$NN?G?$LA?$LI?q?$AA@ ; `string'
PUBLIC	??_C@_04KGBFNJKK@?$LB?$NN?$LM?S?$AA@		; `string'
PUBLIC	??_C@_04EHKMOIDB@?$LK?$LI?$LM?$KO?$AA@		; `string'
PUBLIC	??_C@_04HBPDABAH@?H?$KN?$LJ?$LA?$AA@		; `string'
PUBLIC	??_C@_04BGLAECHO@?$LK?$KH?F?$KO?$AA@		; `string'
PUBLIC	??_C@_04MDAEFDIO@?$LJ?f?F?P?$AA@		; `string'
PUBLIC	??_C@_04FMDGMGDM@?$LN?E?$LJ?$NP?$AA@		; `string'
PUBLIC	??_C@_04ILPCKIID@?$MA?e?$LA?$KJ?$AA@		; `string'
PUBLIC	??_C@_0L@NLGJPCEF@?G?U?$LM?$LK?$LO?F?$MA?L?E?$NL?$AA@ ; `string'
PUBLIC	??_C@_08BFMDIOIA@?F?d?F?$KO?$LI?p?$MA?Z?$AA@	; `string'
PUBLIC	??_C@_0L@DDIDOFOI@?F?d?F?$KO?$LB?$LD?A?$KE?$LB?b?$AA@ ; `string'
PUBLIC	??_C@_0BB@CBJGPEHI@?$LO?V?$LP?O?$LF?U?$LJ?$LA?$LJ?$NP?E?i?$LF?$KE?$LA?$LD?$AA@ ; `string'
PUBLIC	??_C@_08GDIJOMOC@?F?d?F?$KO?H?d?$LA?$KJ?$AA@	; `string'
PUBLIC	??_C@_0L@PGIAEJF@?F?d?F?$KO?$LF?n?$LF?$PM?A?v?$AA@ ; `string'
PUBLIC	??_C@_09MANCADAN@?F?d?F?$KO?$LD?$KP?$LA?$LD?7?$AA@ ; `string'
PUBLIC	??_C@_06EHEFLMKG@?F?d?F?$KO?$LJ?$NP?$AA@	; `string'
PUBLIC	??_C@_0N@NDDPGMND@?B?x?$LP?k?$LH?$LJ?$LK?$KH?$KD?$LK?$CFd?$AA@ ; `string'
PUBLIC	??_C@_08OHLEHKNP@?$LD?$LL?$LB?$LI?$CI?$CFs?$CJ?$AA@ ; `string'
PUBLIC	??_C@_0M@KBIHDIM@?$DP?$DP?$NM?t?J?$KG?$DP?$DP?$DP?$KD?$KB?$AA@ ; `string'
PUBLIC	??_C@_0BO@FMLOPNNF@?E?$LO?$LN?B?F?j?$MA?e?$LK?q?$LI?$KG?5?B?x?$LP?k?G?R?$LM?v?$LO?x?$LO?n?$LP?d?$KD?$KB?$AA@ ; `string'
PUBLIC	??_C@_04KBAMDEME@?G?U?$LM?$LK?$AA@		; `string'
PUBLIC	??_C@_04JJOHPIH@?$LP?d?$LI?$KO?$AA@		; `string'
PUBLIC	??_C@_09JLDAGEJM@?A?$KE?$LH?C?1?A?$KE?A?$KG?$AA@ ; `string'
PUBLIC	??_C@_04CENFCOIH@?A?$KE?$LB?$LD?$AA@		; `string'
PUBLIC	??_C@_04LECOJKED@?$LM?v?$LI?$KO?$AA@		; `string'
PUBLIC	??_C@_04BCAOMEHC@?$LA?$KN?H?$KN?$AA@		; `string'
PUBLIC	??_C@_04FNJBHMGB@?$CF10d?$AA@			; `string'
PUBLIC	??_C@_07HFNBMNBH@?$CF2d?1?$CF2d?$AA@		; `string'
PUBLIC	??_C@_0BB@OOMMIBOD@?A?V?$LM?z?$MA?L?5?$LO?x?$LN?$MA?$LE?O?$LE?Y?4?$AA@ ; `string'
PUBLIC	??_C@_06IKNDGEEE@?$LF?$LP?5?$CF3d?$AA@		; `string'
PUBLIC	??_C@_06FFJNECKA@?$LD?$LC?5?$CF3d?$AA@		; `string'
PUBLIC	??_C@_0M@MELGFJCD@?A?$KE?$LH?I?$MA?G?5?$LL?g?$MA?Z?$AA@ ; `string'
PUBLIC	??_C@_0M@HLOAEAFL@?A?$KE?$LH?I?$MA?G?5?$LP?k?$MA?Z?$AA@ ; `string'
PUBLIC	??_C@_03GOOLIKIF@?$CF3d?$AA@			; `string'
PUBLIC	??_C@_0P@KLBINAOA@?A?$KE?$LH?I?5?$LM?R?H?$KP?5?$LP?k?$LF?$LF?$AA@ ; `string'
PUBLIC	??_C@_03GPCJOALC@?$CF2d?$AA@			; `string'
PUBLIC	??_C@_0DB@DLDGKHKC@?$LA?E?$LH?$KB?A?$NP?$MA?N?5?F?d?F?$KO?$LE?B?5?F?d?F?$KO?$LI?$NO?$MA?O?$LB?b?$LE?I?$MA?$LL?5?$LL@ ; `string'
PUBLIC	??_C@_0BB@JGMBHNPP@?5?5?$MA?O?5?$LJ?$NN?5?$LI?$NO?5?$MA?O?5?5?5?$AA@ ; `string'
PUBLIC	??_C@_0BB@HHJMAEP@?5?5?F?d?5?F?$KO?5?$LI?$NO?5?$MA?O?5?5?5?$AA@ ; `string'
PUBLIC	??_C@_0BL@GCLEBMEI@?D?$KD?$LB?$LI?$LA?$KB?5?A?$KC?$LM?S?G?X?$MA?V?A?v?5?$LO?J?$LO?F?$LP?d?$KD?$KB?$AA@ ; `string'
PUBLIC	??_C@_0M@IEFMJAKN@?$LO?F?$MA?L?E?$NL?5?$LP?O?$LM?$LK?$AA@ ; `string'
PUBLIC	??_C@_06EBKEKICJ@No?4?$CF3d?$AA@		; `string'
PUBLIC	??_C@_05GEIIADAH@LvUp?$CB?$AA@			; `string'
PUBLIC	??_C@_08EEKBPDLC@Exp?5?$CF?$CL5d?$AA@		; `string'
PUBLIC	??_C@_08EFGDJJIF@Exp?5?$CF?$CL4d?$AA@		; `string'
PUBLIC	??_C@_09MBHBIIFC@Exp?5?5?5?5?$CL0?$AA@		; `string'
PUBLIC	??_C@_0M@OKFINFEF@?5?5?$LO?F?$MA?L?E?$NL?5?$KD?$LK?$AA@ ; `string'
PUBLIC	??_C@_0BN@DBCJKIIM@?$LO?F?$MA?L?E?$NL?$MA?$LL?5?$LO?r?A?v?5?$LI?x?G?O?$LP?$LE?$LN?$MA?$LE?O?$LE?Y?$KB?$KD?$AA@ ; `string'
PUBLIC	??_C@_0O@JBEDPFPL@?5?$KD?D?5?5?$KD?P?5?5?$CF?$CL8d?$AA@ ; `string'
PUBLIC	??_C@_0N@EILMFHPP@?5?G?U?5?5?$LA?h?5?5?$CF8d?$AA@ ; `string'
PUBLIC	??_C@_07BMJINPJG@W?$HM?$CFs?$HM?$CFs?$AA@	; `string'
PUBLIC	??_C@_0BA@PCKDKFGL@T?$HM?$CFs?$HM?$CFs?$HMG?$HM?$CFd?$HM?$CFd?$AA@ ; `string'
PUBLIC	??_C@_0BL@IIOLHDHO@?$CFs?$HM?$CFs?$HM?$CFs?$HM?$CFs?$HM?$CFs?$HM?$CFs?$HM?$CFs?$HM?$CFs?$HM?$CFs?$AA@ ; `string'
PUBLIC	??_C@_0BC@OKAJJOLE@T?$HM?$CFs?$HM?$CFs?$HMP?$HM3?$HM?$CFd?$HM?$CFs?$AA@ ; `string'
PUBLIC	??_C@_02HAOIJKIC@?$CFc?$AA@			; `string'
PUBLIC	??_C@_01JPJNBJEM@I?$AA@				; `string'
PUBLIC	??_C@_03EPCHICDI@x?$CFd?$AA@			; `string'
PUBLIC	??_C@_01EJNLAFE@P?$AA@				; `string'
PUBLIC	??_C@_04LIFAFMCE@?$FL?$CFs?$FN?$AA@		; `string'
PUBLIC	??_C@_07EJEHFIPA@Lv?3?$CFd?$CFs?$AA@		; `string'
PUBLIC	??_C@_06LBBHKEFA@1?5?$LE?$NM?$LA?h?$AA@		; `string'
PUBLIC	??_C@_06IAPPLOMN@2?5?$LE?$NM?$LA?h?$AA@		; `string'
PUBLIC	??_C@_04IIECJNKD@?$MA?$LG?5?$DP?$AA@		; `string'
PUBLIC	??_C@_01BBODEMC@G?$AA@				; `string'
PUBLIC	??_C@_05INGMOBLN@?$LN?$LK?5?E?f?$AA@		; `string'
PUBLIC	??_C@_04PABHPHAJ@Gold?$AA@			; `string'
PUBLIC	??_C@_02GPECMEKF@?$FL?$FN?$AA@			; `string'
PUBLIC	??_C@_04IAHOEAOA@?$MA?$LG?G?U?$AA@		; `string'
PUBLIC	??_C@_03GJOCCCFJ@?$CF7d?$AA@			; `string'
PUBLIC	??_C@_08KMGGBBNI@?$LA?E?$LH?$KB?$LB?$NN?$LO?W?$AA@ ; `string'
PUBLIC	??_C@_0BA@BJIPOAAB@?$LL?s?$LE?k?$LJ?f?5?$LA?E?$LH?$KB?$LB?$NN?$LO?W?$AA@ ; `string'
PUBLIC	??_C@_08OEEBHAFG@?$LA?E?$LH?$KB?H?$KO?$MA?N?$AA@ ; `string'
PUBLIC	??_C@_0O@ONPMCPGG@?C?V?A?$LO?5?$LA?E?$LH?$KB?H?$KO?$MA?N?$AA@ ; `string'
PUBLIC	??_C@_0P@FBIHNOAG@T?$HM?$CFs?$HM?$CFs?$HMI?$HM1?$HM?$CFd?$AA@ ; `string'
PUBLIC	??_C@_0L@GEIMNGGC@?$MA?N?$LD?$LL?$LH?B?$CI?$CFs?$CJ?$AA@ ; `string'
PUBLIC	??_C@_04DHBICLIK@?$CFd?H?$LI?$AA@		; `string'
PUBLIC	??_C@_08PECEDIMI@?$MA?$LG?G?U?$CFd?H?$LI?$AA@	; `string'
PUBLIC	??_C@_06OJHGLDPL@?$CInull?$CJ?$AA@		; `string'
PUBLIC	??_C@_0L@GPPMEBMP@?$MA?N?$LD?$LL?$LH?B?$KD?$LK?$CFs?$AA@ ; `string'
PUBLIC	??_C@_06DJMKDILO@B?$HMG?$HM?$CFd?$AA@		; `string'
PUBLIC	??_C@_01GFHCPBMG@C?$AA@				; `string'
PUBLIC	??_C@_01GBGANLPD@0?$AA@				; `string'
PUBLIC	??_C@_01HIHLOKLC@1?$AA@				; `string'
PUBLIC	??_C@_01GAPBHFFA@T?$AA@				; `string'
PUBLIC	??_C@_01CPLAODJH@S?$AA@				; `string'
PUBLIC	??_C@_0EP@MMMKPGBO@?$CFs?$LK?q?A?$KE?$LL?s?$MA?$PL?$MA?N?5?$LJ?f?$LN?D?$MA?$LI?$LH?N?5?$LA?E?$LH?$KB?5?$LB?$NN?$LO?W?$MA@ ; `string'
PUBLIC	??_C@_02PGHGPEOM@?91?$AA@			; `string'
PUBLIC	??_C@_01FHEEJDEE@A?$AA@				; `string'
PUBLIC	??_C@_01ELNMCGJD@W?$AA@				; `string'
PUBLIC	??_C@_0CH@OILGNOPA@?F?j?$MA?e?$LK?q?$LA?$KB?5?$MA?e?B?x?$LF?G?$MA?V?$MA?$LI?$LI?i?5?E?$LO?$LN?B?G?R?$LM?v?$LO?x@ ; `string'
PUBLIC	??_C@_06IMNEOPOC@R?$HMP?$HM?$CFd?$AA@		; `string'
PUBLIC	??_C@_0CD@HGDMFPEK@?F?j?$MA?e?$LK?q?$LA?$KB?5?$MA?e?B?x?$LF?G?$MA?V?$MA?$LI?$LI?i?5?E?$LL?$LM?v?$LO?x?$LO?n?$LP?d@ ; `string'
PUBLIC	??_C@_0BI@CNEPNBEM@?5?$CF15s?5?$CF15s?5?5?$CF5d?5?5?$CF5d?5?5?5?$AA@ ; `string'
PUBLIC	??_C@_0DA@OCCOFDAC@?5?5?5?5?5?5?5?5?5?5?5?$MA?L?5?$LI?$KH?5?5?5?5?5?5?5?5?5?5?5?$LK?$LA?5?$LI?m@ ; `string'
PUBLIC	??_C@_0N@KMPIGJGM@?$CFs?5?$CFs?5?1T?$CFd?5?5?$AA@ ; `string'
PUBLIC	??_C@_0CA@HADKCOHN@?C?$KE?$LD?N?5?$MA?L?$LI?$KH?$MA?$LL?5?$MA?T?$LH?B?G?O?$LN?C?$LB?b?5?$LJ?Y?$LG?x?$LE?O?$LE?Y?$AA@ ; `string'
PUBLIC	??_C@_02PACKEJLJ@B?$HM?$AA@			; `string'
PUBLIC	??_C@_01JBBJJEPG@p?$AA@				; `string'
PUBLIC	??_C@_0BE@HNIDOICG@?5?5?$CF16s?5?5?$CF16s?5?5?5?$CF2d?5?$AA@ ; `string'
PUBLIC	??_C@_0DB@BMHKFDJF@?5?5?5?5?5?5?5?5?5?5?C?$LM?$LD?N?$MA?L?$LI?$KH?5?5?5?5?5?5?5?5?5?5?F?D?F?$LM@ ; `string'
PUBLIC	??_C@_04DFGAHNIG@J?$HM?$CFd?$AA@		; `string'
PUBLIC	??_C@_0BH@EOCAOGMB@?5?5?$LL?u?$LH?N?$LP?n?5?C?$KE?F?C?$LJ?f?5?$LI?$LI?$LF?i?$LB?b?$AA@ ; `string'
PUBLIC	??_C@_01KDCPPGHE@r?$AA@				; `string'
PUBLIC	??_C@_0GC@JDIKCLBG@?C?$KE?F?C?5?$LJ?f?$MA?e?$MA?$LK?5?C?$KE?F?C?$LJ?f?$LP?$KB?$LM?$KN?5?$LD?$KK?$LA?$KF?5?$LM?v?5?$LO@ ; `string'
PUBLIC	??_C@_02PKLEGELD@L?$HM?$AA@			; `string'
PUBLIC	??_C@_0CB@CKMFLHCC@?$LE?g?$LN?E?$MA?$LK?5?$MA?L?$LJ?L?5?C?$KE?F?C?$LJ?f?$MA?$LL?5?$LG?$LA?$LD?$LF?$LN?$MA?$LE?O?$LE?Y?4@ ; `string'
PUBLIC	??_C@_04IAAFEDG@K?$HM?$CFd?$AA@			; `string'
PUBLIC	??_C@_04IHEAKBJG@M?$HM?$CFd?$AA@		; `string'
PUBLIC	??_C@_02PEKHDFAL@D?$HM?$AA@			; `string'
PUBLIC	??_C@_0M@HKAIMJJM@?$CFs?5?$LA?$KB?$MA?T?$LN?E?C?$LL?$AA@ ; `string'
PUBLIC	??_C@_06NKNMMFFA@A?$HM?$CFd?$HM1?$AA@		; `string'
PUBLIC	??_C@_06MDMHPEBB@A?$HM?$CFd?$HM0?$AA@		; `string'
PUBLIC	??_C@_08MMBFKAPF@?$FL?$LE?k?H?$KN?$FN?$CFs?$AA@	; `string'
PUBLIC	??_C@_0BN@GLJGCFGJ@?C?$KE?F?C?$LJ?f?$MA?L?5?$MA?L?$LJ?L?5?$LL?h?A?$KG?$LF?G?$LO?z?$LO?n?$LP?d?$KD?$KB?$AA@ ; `string'
PUBLIC	??_C@_0BK@FOCEAPFH@?C?$KE?F?C?$LJ?f?$LP?$KB?$LM?$KN?5?$LA?$KN?E?p?$LF?G?$LO?z?$LO?n?$LP?d?$KD?$KB?$AA@ ; `string'
PUBLIC	__real@3fe947ae147ae148
PUBLIC	__real@3fe999999999999a
PUBLIC	__real@4014000000000000
PUBLIC	__real@40e0000000000000
PUBLIC	__real@42c80000
EXTRN	___report_rangecheckfailure:PROC
EXTRN	?TimeGetTime@@YAIXZ:PROC			; TimeGetTime
EXTRN	_memcpy:PROC
EXTRN	_memset:PROC
EXTRN	__imp__strchr:PROC
EXTRN	__imp__strstr:PROC
EXTRN	__imp__strcat_s:PROC
EXTRN	__imp__strncpy_s:PROC
EXTRN	_strcat:PROC
EXTRN	_strcmp:PROC
EXTRN	_strcpy:PROC
EXTRN	_strlen:PROC
EXTRN	__imp__strncpy:PROC
EXTRN	__imp__strtok:PROC
EXTRN	__imp__DeleteFileA@4:PROC
EXTRN	__imp__MessageBoxA@16:PROC
EXTRN	__imp__ShowCursor@4:PROC
EXTRN	__imp__timeGetTime@0:PROC
EXTRN	__imp__rand:PROC
EXTRN	__imp__atoi:PROC
EXTRN	__imp__itoa:PROC
EXTRN	__imp__fclose:PROC
EXTRN	__imp__fopen:PROC
EXTRN	__imp__fread:PROC
EXTRN	__imp__fseek:PROC
EXTRN	__imp__fwrite:PROC
EXTRN	__imp____stdio_common_vsprintf:PROC
EXTRN	__imp____stdio_common_vsprintf_s:PROC
EXTRN	?ChangeProc2@@YAXH@Z:PROC			; ChangeProc2
EXTRN	?GetAction@@YAPAUaction@@EI@Z:PROC		; GetAction
EXTRN	?DeathAction@@YAXPAUaction@@@Z:PROC		; DeathAction
EXTRN	?GetPettblNo@@YAHH@Z:PROC			; GetPettblNo
EXTRN	?StockDispBuffer@@YAHHHEHH@Z:PROC		; StockDispBuffer
EXTRN	?StockDispBuffer绝对位置@@YAHHHEHH@Z:PROC	; StockDispBuffer绝对位置
EXTRN	?StockBoxDispBuffer@@YAXHHHHEHH@Z:PROC		; StockBoxDispBuffer
EXTRN	?Rnd@@YAHHH@Z:PROC				; Rnd
EXTRN	?StockChatBufferLine@@YAXPADEH@Z:PROC		; StockChatBufferLine
EXTRN	?GetStrLastByte@@YAHPAD@Z:PROC			; GetStrLastByte
EXTRN	?GetKeyInputFocus@@YAXPAUSTR_BUFFER@@@Z:PROC	; GetKeyInputFocus
EXTRN	?KeyboardReturn@@YAXXZ:PROC			; KeyboardReturn
EXTRN	?LoadChatHistoryStr@@YAHXZ:PROC			; LoadChatHistoryStr
EXTRN	?StrToNowStrBuffer@@YAXPAD@Z:PROC		; StrToNowStrBuffer
EXTRN	?StockFontBuffer@@YAHHHDHPADH@Z:PROC		; StockFontBuffer
EXTRN	?StockFontBuffer2@@YAXPAUSTR_BUFFER@@@Z:PROC	; StockFontBuffer2
EXTRN	?radar@@YAXPAUaction@@PAH1@Z:PROC		; radar
EXTRN	?gemini@@YAXPAUaction@@@Z:PROC			; gemini
EXTRN	?pattern@@YAHPAUaction@@HH@Z:PROC		; pattern
EXTRN	?GetImeString@@YAPADXZ:PROC			; GetImeString
EXTRN	?checkPcWalkFlag@@YAHXZ:PROC			; checkPcWalkFlag
EXTRN	?CHAR_getMaxHaveGold@@YAHXZ:PROC		; CHAR_getMaxHaveGold
EXTRN	?lssproto_SaMenu_send@@YAXHHHH@Z:PROC		; lssproto_SaMenu_send
EXTRN	?lssproto_ID_send@@YAXHHHHH@Z:PROC		; lssproto_ID_send
EXTRN	?lssproto_DI_send@@YAXHHHH@Z:PROC		; lssproto_DI_send
EXTRN	?lssproto_DG_send@@YAXHHHH@Z:PROC		; lssproto_DG_send
EXTRN	?lssproto_DP_send@@YAXHHHH@Z:PROC		; lssproto_DP_send
EXTRN	?lssproto_MI_send@@YAXHHH@Z:PROC		; lssproto_MI_send
EXTRN	?lssproto_MSG_send@@YAXHHPADH@Z:PROC		; lssproto_MSG_send
EXTRN	?lssproto_PMSG_send@@YAXHHHHPADH@Z:PROC		; lssproto_PMSG_send
EXTRN	?lssproto_DAB_send@@YAXHH@Z:PROC		; lssproto_DAB_send
EXTRN	?lssproto_KS_send@@YAXHH@Z:PROC			; lssproto_KS_send
EXTRN	?lssproto_SPET_send@@YAXHH@Z:PROC		; lssproto_SPET_send
EXTRN	?lssproto_MU_send@@YAXHHHHH@Z:PROC		; lssproto_MU_send
EXTRN	?lssproto_PS_send@@YAXHHHHPAD@Z:PROC		; lssproto_PS_send
EXTRN	?lssproto_SKUP_send@@YAXHH@Z:PROC		; lssproto_SKUP_send
EXTRN	?lssproto_CharLogout_send@@YAXHH@Z:PROC		; lssproto_CharLogout_send
EXTRN	?lssproto_TD_send@@YAXHPAD@Z:PROC		; lssproto_TD_send
EXTRN	?lssproto_FM_send@@YAXHPAD@Z:PROC		; lssproto_FM_send
EXTRN	?lssproto_PETST_send@@YAXHHH@Z:PROC		; lssproto_PETST_send
EXTRN	?lssproto_KTEAM_send@@YAXHH@Z:PROC		; lssproto_KTEAM_send
EXTRN	?lssproto_CHATROOM_send@@YAXHPAD@Z:PROC		; lssproto_CHATROOM_send
EXTRN	?lssproto_RESIST_send@@YAXHPAD@Z:PROC		; lssproto_RESIST_send
EXTRN	?lssproto_ALCHEPLUS_send@@YAXHPAD@Z:PROC	; lssproto_ALCHEPLUS_send
EXTRN	?lssproto_BATTLESKILL_send@@YAXHH@Z:PROC	; lssproto_BATTLESKILL_send
EXTRN	?lssproto_PetItemEquip_send@@YAXHHHHHH@Z:PROC	; lssproto_PetItemEquip_send
EXTRN	?old_lssproto_ID_send@@YAXHHHHH@Z:PROC		; old_lssproto_ID_send
EXTRN	?old_lssproto_DI_send@@YAXHHHH@Z:PROC		; old_lssproto_DI_send
EXTRN	?old_lssproto_DG_send@@YAXHHHH@Z:PROC		; old_lssproto_DG_send
EXTRN	?old_lssproto_MI_send@@YAXHHH@Z:PROC		; old_lssproto_MI_send
EXTRN	?old_lssproto_MSG_send@@YAXHHPADH@Z:PROC	; old_lssproto_MSG_send
EXTRN	?old_lssproto_PMSG_send@@YAXHHHHPADH@Z:PROC	; old_lssproto_PMSG_send
EXTRN	?old_lssproto_DAB_send@@YAXHH@Z:PROC		; old_lssproto_DAB_send
EXTRN	?old_lssproto_KS_send@@YAXHH@Z:PROC		; old_lssproto_KS_send
EXTRN	?old_lssproto_MU_send@@YAXHHHHH@Z:PROC		; old_lssproto_MU_send
EXTRN	?old_lssproto_PS_send@@YAXHHHHPAD@Z:PROC	; old_lssproto_PS_send
EXTRN	?old_lssproto_SKUP_send@@YAXHH@Z:PROC		; old_lssproto_SKUP_send
EXTRN	?old_lssproto_TD_send@@YAXHPAD@Z:PROC		; old_lssproto_TD_send
EXTRN	?old_lssproto_FM_send@@YAXHPAD@Z:PROC		; old_lssproto_FM_send
EXTRN	?saveUserSetting@@YAHXZ:PROC			; saveUserSetting
EXTRN	?play_se@@YAHHHH@Z:PROC				; play_se
EXTRN	?play_bgm@@YAHH@Z:PROC				; play_bgm
EXTRN	?bgm_volume_change@@YAXXZ:PROC			; bgm_volume_change
EXTRN	?set_gbm_pitch@@YAXXZ:PROC			; set_gbm_pitch
EXTRN	?stop_bgm@@YAXXZ:PROC				; stop_bgm
EXTRN	?chatStrSendForServer@@YAXPADH@Z:PROC		; chatStrSendForServer
EXTRN	?getStringToken@@YAHPADDHH0@Z:PROC		; getStringToken
EXTRN	?getIntegerToken@@YAHPADDH@Z:PROC		; getIntegerToken
EXTRN	?makeStringFromEscaped@@YAPADPAD@Z:PROC		; makeStringFromEscaped
EXTRN	?makeEscapeString@@YAPADPAD0H@Z:PROC		; makeEscapeString
EXTRN	?checkFieldMenuFlag@@YAHXZ:PROC			; checkFieldMenuFlag
EXTRN	?closeEtcSwitch@@YAXXZ:PROC			; closeEtcSwitch
EXTRN	?closeJoinChannelWN@@YAXXZ:PROC			; closeJoinChannelWN
EXTRN	?ecb_crypt@@YAHPAD0II@Z:PROC			; ecb_crypt
EXTRN	?setCharmManor@@YAXPAUaction@@H@Z:PROC		; setCharmManor
EXTRN	?setCharmTitle@@YAXPAUaction@@H@Z:PROC		; setCharmTitle
EXTRN	?setCharMind@@YAXPAUaction@@H@Z:PROC		; setCharMind
EXTRN	?ShowBottomLineString@@YAXHPAD@Z:PROC		; ShowBottomLineString
EXTRN	?AI_CloseWnd@@YAXXZ:PROC			; AI_CloseWnd
EXTRN	?AI_OtherProc@@YAXXZ:PROC			; AI_OtherProc
EXTRN	?AI_SettingProc@@YAHXZ:PROC			; AI_SettingProc
EXTRN	?Init皮肤窗口@@YAXXZ:PROC			; Init皮肤窗口
EXTRN	?Init英雄称号窗口@@YAXXZ:PROC			; Init英雄称号窗口
EXTRN	?Init光环窗口@@YAXXZ:PROC			; Init光环窗口
EXTRN	?delAct称号@@YAXXZ:PROC				; delAct称号
EXTRN	?delAct光环@@YAXXZ:PROC				; delAct光环
EXTRN	?delAct皮肤@@YAXXZ:PROC				; delAct皮肤
EXTRN	?SaveChatData@@YAXPADD_N@Z:PROC			; SaveChatData
EXTRN	@_RTC_CheckStackVars@8:PROC
EXTRN	@__security_check_cookie@4:PROC
EXTRN	__RTC_CheckEsp:PROC
EXTRN	__RTC_InitBase:PROC
EXTRN	__RTC_Shutdown:PROC
EXTRN	__chkstk:PROC
EXTRN	_memset:PROC
EXTRN	?DISPLACEMENT_X@@3HA:DWORD			; DISPLACEMENT_X
EXTRN	?DISPLACEMENT_Y@@3HA:DWORD			; DISPLACEMENT_Y
EXTRN	?lpDraw@@3PAUDIRECT_DRAW@@A:DWORD		; lpDraw
EXTRN	?hWnd@@3PAUHWND__@@A:DWORD			; hWnd
EXTRN	?ResoMode@@3HA:DWORD				; ResoMode
EXTRN	?gmsv@@3PAUgameserver@@A:BYTE			; gmsv
EXTRN	?gmgroup@@3PAUgamegroup@@A:BYTE			; gmgroup
EXTRN	?GameState@@3HA:DWORD				; GameState
EXTRN	?ProcNo@@3IA:DWORD				; ProcNo
EXTRN	?SubProcNo@@3IA:DWORD				; SubProcNo
EXTRN	?joy_con@@3PAKA:QWORD				; joy_con
EXTRN	?joy_trg@@3PAKA:QWORD				; joy_trg
EXTRN	?joy_auto@@3PAKA:QWORD				; joy_auto
EXTRN	?p_party@@3PAPAUaction@@A:BYTE			; p_party
EXTRN	?pNowStrBuffer@@3PAUSTR_BUFFER@@A:DWORD		; pNowStrBuffer
EXTRN	?MyChatBuffer@@3USTR_BUFFER@@A:BYTE		; MyChatBuffer
EXTRN	?NowMaxChatLine@@3HA:DWORD			; NowMaxChatLine
EXTRN	?NowMaxVoice@@3HA:DWORD				; NowMaxVoice
EXTRN	?mouse@@3UMOUSE@@A:BYTE				; mouse
EXTRN	?HitFontNo@@3HA:DWORD				; HitFontNo
EXTRN	?HitDispNo@@3HA:DWORD				; HitDispNo
EXTRN	?OneLineInfoStr@@3PADA:BYTE			; OneLineInfoStr
EXTRN	?BoxColor@@3HA:DWORD				; BoxColor
EXTRN	?CG_FIELD_SKILL_PANEL@@3HA:DWORD		; CG_FIELD_SKILL_PANEL
EXTRN	?CG_FIELD_CHATROOM_PANEL@@3HA:DWORD		; CG_FIELD_CHATROOM_PANEL
EXTRN	?CG_TRADE_WND@@3HA:DWORD			; CG_TRADE_WND
EXTRN	?CG_TRADE_VIEWWND@@3HA:DWORD			; CG_TRADE_VIEWWND
EXTRN	?CG_WND_G_0@@3HA:DWORD				; CG_WND_G_0
EXTRN	?CG_PET_WND_VIEW@@3HA:DWORD			; CG_PET_WND_VIEW
EXTRN	?CG_PET_WND_DETAIL@@3HA:DWORD			; CG_PET_WND_DETAIL
EXTRN	?CG_NAME_CHANGE_WND@@3HA:DWORD			; CG_NAME_CHANGE_WND
EXTRN	?CG_ITEM_WND_1@@3HA:DWORD			; CG_ITEM_WND_1
EXTRN	?CG_JUJUTU_WND@@3HA:DWORD			; CG_JUJUTU_WND
EXTRN	?CG_ITEM_WND_SELECT_WND@@3HA:DWORD		; CG_ITEM_WND_SELECT_WND
EXTRN	?CG_STATUS_WND_GROUP_WND@@3HA:DWORD		; CG_STATUS_WND_GROUP_WND
EXTRN	?CG_MAP_WND@@3HA:DWORD				; CG_MAP_WND
EXTRN	?CG_MAIL_WND@@3HA:DWORD				; CG_MAIL_WND
EXTRN	?CG_MAIL_WND_SEND_WND@@3HA:DWORD		; CG_MAIL_WND_SEND_WND
EXTRN	?CG_MAIL_WND_PET_SEND_WND@@3HA:DWORD		; CG_MAIL_WND_PET_SEND_WND
EXTRN	?CG_MAIL_WND_HISTORY_WND@@3HA:DWORD		; CG_MAIL_WND_HISTORY_WND
EXTRN	?CG_ALBUM_WND@@3HA:DWORD			; CG_ALBUM_WND
EXTRN	?CG_CHAT_REGISTY_WND@@3HA:DWORD			; CG_CHAT_REGISTY_WND
EXTRN	?CG_COMMON_WIN_YORO@@3HA:DWORD			; CG_COMMON_WIN_YORO
EXTRN	?CG_PET_WAZA_WND@@3HA:DWORD			; CG_PET_WAZA_WND
EXTRN	?pc@@3UPC@@A:BYTE				; pc
EXTRN	?selectPcNo@@3FA:WORD				; selectPcNo
EXTRN	?tradeStatus@@3FA:WORD				; tradeStatus
EXTRN	?magic@@3PAUMAGIC@@A:BYTE			; magic
EXTRN	?pet@@3PAUPET@@A:BYTE				; pet
EXTRN	?party@@3PAUPARTY@@A:BYTE			; party
EXTRN	?addressBook@@3PAUADDRESS_BOOK@@A:BYTE		; addressBook
EXTRN	?battleResultMsg@@3UBATTLE_RESULT_MSG@@A:BYTE	; battleResultMsg
EXTRN	?petSkill@@3PAY06UPET_SKILL@@A:BYTE		; petSkill
EXTRN	?profession_skill@@3PAUPROFESSION_SKILL@@A:BYTE	; profession_skill
EXTRN	?BattlePetStMenCnt@@3HA:DWORD			; BattlePetStMenCnt
EXTRN	?BattleResultWndFlag@@3HA:DWORD			; BattleResultWndFlag
EXTRN	?EncountFlag@@3HA:DWORD				; EncountFlag
EXTRN	?bNewServer@@3HA:DWORD				; bNewServer
EXTRN	?sockfd@@3IA:DWORD				; sockfd
EXTRN	?disconnectServerFlag@@3HA:DWORD		; disconnectServerFlag
EXTRN	?stereo_flg@@3HA:DWORD				; stereo_flg
EXTRN	?t_music_se_volume@@3HA:DWORD			; t_music_se_volume
EXTRN	?t_music_bgm_volume@@3HA:DWORD			; t_music_bgm_volume
EXTRN	?t_music_bgm_no@@3HA:DWORD			; t_music_bgm_no
EXTRN	?t_music_bgm_pitch@@3PADA:BYTE			; t_music_bgm_pitch
EXTRN	?map_bgm_no@@3HA:DWORD				; map_bgm_no
EXTRN	?声音开关@@3HA:DWORD				; 声音开关
EXTRN	?nowFloorName@@3PADA:BYTE			; nowFloorName
EXTRN	?nowGx@@3HA:DWORD				; nowGx
EXTRN	?nowGy@@3HA:DWORD				; nowGy
EXTRN	?eventWarpSendFlag@@3FA:WORD			; eventWarpSendFlag
EXTRN	?chatRoomBtn@@3FA:WORD				; chatRoomBtn
EXTRN	?SelRoomBtn@@3FA:WORD				; SelRoomBtn
EXTRN	?actBtn@@3FA:WORD				; actBtn
EXTRN	?menuBtn@@3FA:WORD				; menuBtn
EXTRN	?mailLamp@@3FA:WORD				; mailLamp
EXTRN	?g_bTradesystemOpen@@3_NA:BYTE			; g_bTradesystemOpen
EXTRN	?PcLanded@@3ULanded@@A:BYTE			; PcLanded
EXTRN	?crs_change_tbl@@3PAEA:BYTE			; crs_change_tbl
EXTRN	?crs_change_tbl2@@3PAEA:BYTE			; crs_change_tbl2
EXTRN	?crs_bound_tbl@@3PAY0CA@EA:BYTE			; crs_bound_tbl
EXTRN	?sStreetVendorBuyBtn@@3FA:WORD			; sStreetVendorBuyBtn
EXTRN	?BattleSkill@@3PAHA:BYTE			; BattleSkill
EXTRN	?AssitSkill@@3PAHA:BYTE				; AssitSkill
EXTRN	?AdvanceSkill@@3PAHA:BYTE			; AdvanceSkill
EXTRN	?delFlag@@3_NA:BYTE				; delFlag
EXTRN	?flag22@@3_NA:BYTE				; flag22
EXTRN	?szUser@@3PADA:BYTE				; szUser
EXTRN	?自动登陆是否开启@@3HA:DWORD			; 自动登陆是否开启
EXTRN	?是否重登组队@@3HA:DWORD			; 是否重登组队
EXTRN	?是否重登喊话@@3HA:DWORD			; 是否重登喊话
EXTRN	?是否重开登组队_1@@3HA:DWORD			; 是否重开登组队_1
EXTRN	?AI_Other_State@@3HA:DWORD			; AI_Other_State
EXTRN	?AI_State@@3HA:DWORD				; AI_State
EXTRN	?wonflag@@3HA:DWORD				; wonflag
EXTRN	?wonflag@@3HA:DWORD				; wonflag
EXTRN	?wonflag@@3HA:DWORD				; wonflag
EXTRN	?AI_State@@3HA:DWORD				; AI_State
EXTRN	?fastWalkFlag@@3HA:DWORD			; fastWalkFlag
EXTRN	___security_cookie:DWORD
EXTRN	__fltused:DWORD
;	COMDAT ?_OptionsStorage@?1??__local_stdio_printf_options@@9@4_KA
_BSS	SEGMENT
?_OptionsStorage@?1??__local_stdio_printf_options@@9@4_KA DQ 01H DUP (?) ; `__local_stdio_printf_options'::`2'::_OptionsStorage
_BSS	ENDS
_BSS	SEGMENT
?秀宠按钮索引@@3PAHA DD 05H DUP (?)			; 秀宠按钮索引
?道具叠加按钮@@3HA DD 01H DUP (?)			; 道具叠加按钮
?systemWndFontNo@@3PAHA DD 028H DUP (?)			; systemWndFontNo
?mapWndNo@@3IA DD 01H DUP (?)				; mapWndNo
?statusWndFontNo@@3PAHA DD 014H DUP (?)			; statusWndFontNo
?statusWndBtnFlag@@3PAHA DD 014H DUP (?)		; statusWndBtnFlag
?statusWndFontNoExt@@3PAHA DD 0100H DUP (?)		; statusWndFontNoExt
?statusWndNo@@3IA DD 01H DUP (?)			; statusWndNo
?tradeWndFontNo@@3PAHA DD 016H DUP (?)			; tradeWndFontNo
?tradeWndBtnFlag@@3PAHA DD 016H DUP (?)			; tradeWndBtnFlag
?tradeWndNo@@3IA DD 01H DUP (?)				; tradeWndNo
?trade_command@@3PADA DB 080H DUP (?)			; trade_command
?trade_kind@@3PADA DB 080H DUP (?)			; trade_kind
?opp_showindex@@3HA DD 01H DUP (?)			; opp_showindex
?opp_goldmount@@3PADA DB 0400H DUP (?)			; opp_goldmount
?opp_itemgraph@@3PADA DB 0400H DUP (?)			; opp_itemgraph
?opp_itemname@@3PADA DB 0400H DUP (?)			; opp_itemname
?opp_itemeffect@@3PADA DB 0400H DUP (?)			; opp_itemeffect
?opp_itemindex@@3PADA DB 0400H DUP (?)			; opp_itemindex
?opp_itemdamage@@3PADA DB 0400H DUP (?)			; opp_itemdamage
?opp_item@@3PAUshowitem@@A DB 07080H DUP (?)		; opp_item
?opp_pet@@3PAUshowpet@@A DB 04164H DUP (?)		; opp_pet
?SecondActPet@@3PAUaction@@A DD 01H DUP (?)		; SecondActPet
?SecondtradeWndFontNo@@3PAHA DD 06H DUP (?)		; SecondtradeWndFontNo
?tradePet@@3PAUPET@@A DB 01640H DUP (?)			; tradePet
?pActPet3@@3PAUaction@@A DD 01H DUP (?)			; pActPet3
?pActPet4@@3PAUaction@@A DD 01H DUP (?)			; pActPet4
?pActPet5@@3PAUaction@@A DD 01H DUP (?)			; pActPet5
?tradeList@@3PAUtradelist@@A DB 08508H DUP (?)		; tradeList
?bankGold@@3HA DD 01H DUP (?)				; bankGold
?bankWndFontNo@@3PAHA DD 016H DUP (?)			; bankWndFontNo
?bankWndBtnFlag@@3PAHA DD 016H DUP (?)			; bankWndBtnFlag
?ChatRoomBtn@@3PAHA DD 010H DUP (?)			; ChatRoomBtn
?petWndFontNo@@3PAHA DD 016H DUP (?)			; petWndFontNo
?petWndBtnFlag@@3PAHA DD 016H DUP (?)			; petWndBtnFlag
?petWndNo@@3IA DD 01H DUP (?)				; petWndNo
?pActPet@@3PAUaction@@A DD 01H DUP (?)			; pActPet
?itemWndFontNo@@3PAHA DD 028H DUP (?)			; itemWndFontNo
?itemWndBtnFlag@@3PAHA DD 028H DUP (?)			; itemWndBtnFlag
?itemWndBtnBag@@3PAHA DD 03H DUP (?)			; itemWndBtnBag
?itemWndNo@@3IA DD 01H DUP (?)				; itemWndNo
?itemWndDropGold@@3HA DD 01H DUP (?)			; itemWndDropGold
?itemWndDropGoldInc@@3HA DD 01H DUP (?)			; itemWndDropGoldInc
?itemWndDropGoldCnt@@3HA DD 01H DUP (?)			; itemWndDropGoldCnt
?nSelectPet@@3HA DD 01H DUP (?)				; nSelectPet
?pActPet2@@3PAUaction@@A DD 01H DUP (?)			; pActPet2
?mailWndFontNo@@3PAHA DD 028H DUP (?)			; mailWndFontNo
?mailWndBtnFlag@@3PAHA DD 028H DUP (?)			; mailWndBtnFlag
?mailWndNo@@3W4MAIL_WND_TYPE@@A DD 01H DUP (?)		; mailWndNo
?mailWndNoBak@@3W4MAIL_WND_TYPE@@A DD 01H DUP (?)	; mailWndNoBak
?mailViewWndPageNo@@3HA DD 01H DUP (?)			; mailViewWndPageNo
?mailSendWndPageNo@@3HA DD 01H DUP (?)			; mailSendWndPageNo
?mailPetSendWndPageNo@@3HA DD 01H DUP (?)		; mailPetSendWndPageNo
?mailItemNo@@3HA DD 01H DUP (?)				; mailItemNo
?mailWndSendFlag@@3PAHA DD 050H DUP (?)			; mailWndSendFlag
?mailHistoryWndNowPageNo@@3HA DD 01H DUP (?)		; mailHistoryWndNowPageNo
?albumWndFontNo@@3PAHA DD 014H DUP (?)			; albumWndFontNo
?albumWndBtnFlag@@3PAHA DD 014H DUP (?)			; albumWndBtnFlag
?albumWndNo@@3IA DD 01H DUP (?)				; albumWndNo
?albumWndPageNo@@3HA DD 01H DUP (?)			; albumWndPageNo
?albumNo@@3HA DD 01H DUP (?)				; albumNo
?taskBarFontNo@@3PAHA DD 08H DUP (?)			; taskBarFontNo
?taskBarY@@3HA DD 01H DUP (?)				; taskBarY
?方向窗口是否打开@?1??自动登陆窗口回调@@YAXXZ@4HA DD 01H DUP (?) ; `自动登陆窗口回调'::`2'::方向窗口是否打开
?btnId@?1??自动登陆窗口回调@@YAXXZ@4PAHA DD 0fH DUP (?)	; `自动登陆窗口回调'::`2'::btnId
?btnState@?1??自动登陆窗口回调@@YAXXZ@4PAHA DD 0fH DUP (?) ; `自动登陆窗口回调'::`2'::btnState
?dwPressTime@?1??自动登陆窗口回调@@YAXXZ@4KA DD 01H DUP (?) ; `自动登陆窗口回调'::`2'::dwPressTime
?nowDelNo@?IOK@??MenuProc@@YAXXZ@4HA DD 01H DUP (?)	; `MenuProc'[::OK]::nowDelNo
?setRoomBtn@?1??setRoomName@@YAXXZ@4PAHA DD 02H DUP (?)	; `setRoomName'::`2'::setRoomBtn
_BSS	ENDS
CRT$XCU	SEGMENT
?taskBarY$initializer$@@3P6AXXZA DD FLAT:??__EtaskBarY@@YAXXZ ; taskBarY$initializer$
CRT$XCU	ENDS
;	COMDAT __real@42c80000
CONST	SEGMENT
__real@42c80000 DD 042c80000r			; 100
CONST	ENDS
;	COMDAT __real@40e0000000000000
CONST	SEGMENT
__real@40e0000000000000 DQ 040e0000000000000r	; 32768
CONST	ENDS
;	COMDAT __real@4014000000000000
CONST	SEGMENT
__real@4014000000000000 DQ 04014000000000000r	; 5
CONST	ENDS
;	COMDAT __real@3fe999999999999a
CONST	SEGMENT
__real@3fe999999999999a DQ 03fe999999999999ar	; 0.8
CONST	ENDS
;	COMDAT __real@3fe947ae147ae148
CONST	SEGMENT
__real@3fe947ae147ae148 DQ 03fe947ae147ae148r	; 0.79
CONST	ENDS
;	COMDAT rtc$TMZ
rtc$TMZ	SEGMENT
__RTC_Shutdown.rtc$TMZ DD FLAT:__RTC_Shutdown
rtc$TMZ	ENDS
;	COMDAT rtc$IMZ
rtc$IMZ	SEGMENT
__RTC_InitBase.rtc$IMZ DD FLAT:__RTC_InitBase
rtc$IMZ	ENDS
;	COMDAT ??_C@_0BK@FOCEAPFH@?C?$KE?F?C?$LJ?f?$LP?$KB?$LM?$KN?5?$LA?$KN?E?p?$LF?G?$LO?z?$LO?n?$LP?d?$KD?$KB?$AA@
CONST	SEGMENT
??_C@_0BK@FOCEAPFH@?C?$KE?F?C?$LJ?f?$LP?$KB?$LM?$KN?5?$LA?$KN?E?p?$LF?G?$LO?z?$LO?n?$LP?d?$KD?$KB?$AA@ DB 0c3H
	DB	0a4H, 0c6H, 0c3H, 0b9H, 0e6H, 0bfH, 0a1H, 0bcH, 0adH, ' ', 0b0H
	DB	0adH, 0c5H, 0f0H, 0b5H, 0c7H, 0beH, 0faH, 0beH, 0eeH, 0bfH, 0e4H
	DB	0a3H, 0a1H, 00H				; `string'
CONST	ENDS
;	COMDAT ??_C@_0BN@GLJGCFGJ@?C?$KE?F?C?$LJ?f?$MA?L?5?$MA?L?$LJ?L?5?$LL?h?A?$KG?$LF?G?$LO?z?$LO?n?$LP?d?$KD?$KB?$AA@
CONST	SEGMENT
??_C@_0BN@GLJGCFGJ@?C?$KE?F?C?$LJ?f?$MA?L?5?$MA?L?$LJ?L?5?$LL?h?A?$KG?$LF?G?$LO?z?$LO?n?$LP?d?$KD?$KB?$AA@ DB 0c3H
	DB	0a4H, 0c6H, 0c3H, 0b9H, 0e6H, 0c0H, 0ccH, ' ', 0c0H, 0ccH, 0b9H
	DB	0ccH, ' ', 0bbH, 0e8H, 0c1H, 0a6H, 0b5H, 0c7H, 0beH, 0faH, 0beH
	DB	0eeH, 0bfH, 0e4H, 0a3H, 0a1H, 00H		; `string'
CONST	ENDS
;	COMDAT ??_C@_08MMBFKAPF@?$FL?$LE?k?H?$KN?$FN?$CFs?$AA@
CONST	SEGMENT
??_C@_08MMBFKAPF@?$FL?$LE?k?H?$KN?$FN?$CFs?$AA@ DB '[', 0b4H, 0ebH, 0c8H, 0adH
	DB	']%s', 00H					; `string'
CONST	ENDS
;	COMDAT ??_C@_06MDMHPEBB@A?$HM?$CFd?$HM0?$AA@
CONST	SEGMENT
??_C@_06MDMHPEBB@A?$HM?$CFd?$HM0?$AA@ DB 'A|%d|0', 00H	; `string'
CONST	ENDS
;	COMDAT ??_C@_06NKNMMFFA@A?$HM?$CFd?$HM1?$AA@
CONST	SEGMENT
??_C@_06NKNMMFFA@A?$HM?$CFd?$HM1?$AA@ DB 'A|%d|1', 00H	; `string'
CONST	ENDS
;	COMDAT ??_C@_0M@HKAIMJJM@?$CFs?5?$LA?$KB?$MA?T?$LN?E?C?$LL?$AA@
CONST	SEGMENT
??_C@_0M@HKAIMJJM@?$CFs?5?$LA?$KB?$MA?T?$LN?E?C?$LL?$AA@ DB '%s ', 0b0H, 0a1H
	DB	0c0H, 0d4H, 0bdH, 0c5H, 0c3H, 0bbH, 00H	; `string'
CONST	ENDS
;	COMDAT ??_C@_02PEKHDFAL@D?$HM?$AA@
CONST	SEGMENT
??_C@_02PEKHDFAL@D?$HM?$AA@ DB 'D|', 00H		; `string'
CONST	ENDS
;	COMDAT ??_C@_04IHEAKBJG@M?$HM?$CFd?$AA@
CONST	SEGMENT
??_C@_04IHEAKBJG@M?$HM?$CFd?$AA@ DB 'M|%d', 00H		; `string'
CONST	ENDS
;	COMDAT ??_C@_04IAAFEDG@K?$HM?$CFd?$AA@
CONST	SEGMENT
??_C@_04IAAFEDG@K?$HM?$CFd?$AA@ DB 'K|%d', 00H		; `string'
CONST	ENDS
;	COMDAT ??_C@_0CB@CKMFLHCC@?$LE?g?$LN?E?$MA?$LK?5?$MA?L?$LJ?L?5?C?$KE?F?C?$LJ?f?$MA?$LL?5?$LG?$LA?$LD?$LF?$LN?$MA?$LE?O?$LE?Y?4@
CONST	SEGMENT
??_C@_0CB@CKMFLHCC@?$LE?g?$LN?E?$MA?$LK?5?$MA?L?$LJ?L?5?C?$KE?F?C?$LJ?f?$MA?$LL?5?$LG?$LA?$LD?$LF?$LN?$MA?$LE?O?$LE?Y?4@ DB 0b4H
	DB	0e7H, 0bdH, 0c5H, 0c0H, 0baH, ' ', 0c0H, 0ccH, 0b9H, 0ccH, ' ', 0c3H
	DB	0a4H, 0c6H, 0c3H, 0b9H, 0e6H, 0c0H, 0bbH, ' ', 0b6H, 0b0H, 0b3H
	DB	0b5H, 0bdH, 0c0H, 0b4H, 0cfH, 0b4H, 0d9H, '.', 00H ; `string'
CONST	ENDS
;	COMDAT ??_C@_02PKLEGELD@L?$HM?$AA@
CONST	SEGMENT
??_C@_02PKLEGELD@L?$HM?$AA@ DB 'L|', 00H		; `string'
CONST	ENDS
;	COMDAT ??_C@_0GC@JDIKCLBG@?C?$KE?F?C?5?$LJ?f?$MA?e?$MA?$LK?5?C?$KE?F?C?$LJ?f?$LP?$KB?$LM?$KN?5?$LD?$KK?$LA?$KF?5?$LM?v?5?$LO@
CONST	SEGMENT
??_C@_0GC@JDIKCLBG@?C?$KE?F?C?5?$LJ?f?$MA?e?$MA?$LK?5?C?$KE?F?C?$LJ?f?$LP?$KB?$LM?$KN?5?$LD?$KK?$LA?$KF?5?$LM?v?5?$LO@ DB 0c3H
	DB	0a4H, 0c6H, 0c3H, ' ', 0b9H, 0e6H, 0c0H, 0e5H, 0c0H, 0baH, ' ', 0c3H
	DB	0a4H, 0c6H, 0c3H, 0b9H, 0e6H, 0bfH, 0a1H, 0bcH, 0adH, ' ', 0b3H
	DB	0aaH, 0b0H, 0a5H, ' ', 0bcH, 0f6H, ' ', 0beH, 0f8H, 0bdH, 0c0H
	DB	0b4H, 0cfH, 0b4H, 0d9H, '. ', 0b3H, 0aaH, 0b0H, 0a1H, 0b0H, 0edH
	DB	' ', 0bdH, 0cdH, 0c0H, 0bbH, ' ', 0b0H, 0e6H, 0bfH, 0ecH, ' ', 0b4H
	DB	0d9H, 0b8H, 0a5H, 0bbH, 0e7H, 0b6H, 0f7H, 0bfH, 0a1H, 0b0H, 0d4H
	DB	' ', 0b9H, 0e6H, 0c0H, 0e5H, 0c0H, 0bbH, ' ', 0b3H, 0d1H, 0b1H
	DB	0e2H, 0bdH, 0c3H, 0b1H, 0e2H, ' ', 0b9H, 0d9H, 0b6H, 0f8H, 0b4H
	DB	0cfH, 0b4H, 0d9H, 0a3H, 0a1H, 00H		; `string'
CONST	ENDS
;	COMDAT ??_C@_01KDCPPGHE@r?$AA@
CONST	SEGMENT
??_C@_01KDCPPGHE@r?$AA@ DB 'r', 00H			; `string'
CONST	ENDS
;	COMDAT ??_C@_0BH@EOCAOGMB@?5?5?$LL?u?$LH?N?$LP?n?5?C?$KE?F?C?$LJ?f?5?$LI?$LI?$LF?i?$LB?b?$AA@
CONST	SEGMENT
??_C@_0BH@EOCAOGMB@?5?5?$LL?u?$LH?N?$LP?n?5?C?$KE?F?C?$LJ?f?5?$LI?$LI?$LF?i?$LB?b?$AA@ DB ' '
	DB	' ', 0bbH, 0f5H, 0b7H, 0ceH, 0bfH, 0eeH, ' ', 0c3H, 0a4H, 0c6H
	DB	0c3H, 0b9H, 0e6H, ' ', 0b8H, 0b8H, 0b5H, 0e9H, 0b1H, 0e2H, 00H ; `string'
CONST	ENDS
;	COMDAT ??_C@_04DFGAHNIG@J?$HM?$CFd?$AA@
CONST	SEGMENT
??_C@_04DFGAHNIG@J?$HM?$CFd?$AA@ DB 'J|%d', 00H		; `string'
CONST	ENDS
;	COMDAT ??_C@_0DB@BMHKFDJF@?5?5?5?5?5?5?5?5?5?5?C?$LM?$LD?N?$MA?L?$LI?$KH?5?5?5?5?5?5?5?5?5?5?F?D?F?$LM@
CONST	SEGMENT
??_C@_0DB@BMHKFDJF@?5?5?5?5?5?5?5?5?5?5?C?$LM?$LD?N?$MA?L?$LI?$KH?5?5?5?5?5?5?5?5?5?5?F?D?F?$LM@ DB ' '
	DB	'         ', 0c3H, 0bcH, 0b3H, 0ceH, 0c0H, 0ccH, 0b8H, 0a7H, ' '
	DB	'         ', 0c6H, 0c4H, 0c6H, 0bcH, 0c0H, 0e5H, 0c0H, 0ccH, 0b8H
	DB	0a7H, '  ', 0c0H, 0ceH, 0bfH, 0f8H, ' ', 0bcH, 0f6H, ' ', 00H ; `string'
CONST	ENDS
;	COMDAT ??_C@_0BE@HNIDOICG@?5?5?$CF16s?5?5?$CF16s?5?5?5?$CF2d?5?$AA@
CONST	SEGMENT
??_C@_0BE@HNIDOICG@?5?5?$CF16s?5?5?$CF16s?5?5?5?$CF2d?5?$AA@ DB '  %16s  '
	DB	'%16s   %2d ', 00H				; `string'
CONST	ENDS
;	COMDAT ??_C@_01JBBJJEPG@p?$AA@
CONST	SEGMENT
??_C@_01JBBJJEPG@p?$AA@ DB 'p', 00H			; `string'
CONST	ENDS
;	COMDAT ??_C@_02PACKEJLJ@B?$HM?$AA@
CONST	SEGMENT
??_C@_02PACKEJLJ@B?$HM?$AA@ DB 'B|', 00H		; `string'
CONST	ENDS
;	COMDAT ??_C@_0CA@HADKCOHN@?C?$KE?$LD?N?5?$MA?L?$LI?$KH?$MA?$LL?5?$MA?T?$LH?B?G?O?$LN?C?$LB?b?5?$LJ?Y?$LG?x?$LE?O?$LE?Y?$AA@
CONST	SEGMENT
??_C@_0CA@HADKCOHN@?C?$KE?$LD?N?5?$MA?L?$LI?$KH?$MA?$LL?5?$MA?T?$LH?B?G?O?$LN?C?$LB?b?5?$LJ?Y?$LG?x?$LE?O?$LE?Y?$AA@ DB 0c3H
	DB	0a4H, 0b3H, 0ceH, ' ', 0c0H, 0ccH, 0b8H, 0a7H, 0c0H, 0bbH, ' ', 0c0H
	DB	0d4H, 0b7H, 0c2H, 0c7H, 0cfH, 0bdH, 0c3H, 0b1H, 0e2H, ' ', 0b9H
	DB	0d9H, 0b6H, 0f8H, 0b4H, 0cfH, 0b4H, 0d9H, 00H ; `string'
CONST	ENDS
;	COMDAT ??_C@_0N@KMPIGJGM@?$CFs?5?$CFs?5?1T?$CFd?5?5?$AA@
CONST	SEGMENT
??_C@_0N@KMPIGJGM@?$CFs?5?$CFs?5?1T?$CFd?5?5?$AA@ DB '%s %s /T%d  ', 00H ; `string'
CONST	ENDS
;	COMDAT ??_C@_0DA@OCCOFDAC@?5?5?5?5?5?5?5?5?5?5?5?$MA?L?5?$LI?$KH?5?5?5?5?5?5?5?5?5?5?5?$LK?$LA?5?$LI?m@
CONST	SEGMENT
??_C@_0DA@OCCOFDAC@?5?5?5?5?5?5?5?5?5?5?5?$MA?L?5?$LI?$KH?5?5?5?5?5?5?5?5?5?5?5?$LK?$LA?5?$LI?m@ DB ' '
	DB	'          ', 0c0H, 0ccH, ' ', 0b8H, 0a7H, '           ', 0baH
	DB	0b0H, ' ', 0b8H, 0edH, '  ', 0c8H, 0afH, ' ', 0bbH, 0fdH, '  ', 0b7H
	DB	0b9H, ' ', 0baH, 0a7H, ' ', 00H		; `string'
CONST	ENDS
;	COMDAT ??_C@_0BI@CNEPNBEM@?5?$CF15s?5?$CF15s?5?5?$CF5d?5?5?$CF5d?5?5?5?$AA@
CONST	SEGMENT
??_C@_0BI@CNEPNBEM@?5?$CF15s?5?$CF15s?5?5?$CF5d?5?5?$CF5d?5?5?5?$AA@ DB ' '
	DB	'%15s %15s  %5d  %5d   ', 00H		; `string'
CONST	ENDS
;	COMDAT ??_C@_0CD@HGDMFPEK@?F?j?$MA?e?$LK?q?$LA?$KB?5?$MA?e?B?x?$LF?G?$MA?V?$MA?$LI?$LI?i?5?E?$LL?$LM?v?$LO?x?$LO?n?$LP?d@
CONST	SEGMENT
??_C@_0CD@HGDMFPEK@?F?j?$MA?e?$LK?q?$LA?$KB?5?$MA?e?B?x?$LF?G?$MA?V?$MA?$LI?$LI?i?5?E?$LL?$LM?v?$LO?x?$LO?n?$LP?d@ DB 0c6H
	DB	0eaH, 0c0H, 0e5H, 0baH, 0f1H, 0b0H, 0a1H, ' ', 0c0H, 0e5H, 0c2H
	DB	0f8H, 0b5H, 0c7H, 0c0H, 0d6H, 0c0H, 0b8H, 0b8H, 0e9H, ' ', 0c5H
	DB	0bbH, 0bcH, 0f6H, 0beH, 0f8H, 0beH, 0eeH, 0bfH, 0e4H, 0a3H, 0a1H
	DB	00H						; `string'
CONST	ENDS
;	COMDAT ??_C@_06IMNEOPOC@R?$HMP?$HM?$CFd?$AA@
CONST	SEGMENT
??_C@_06IMNEOPOC@R?$HMP?$HM?$CFd?$AA@ DB 'R|P|%d', 00H	; `string'
CONST	ENDS
;	COMDAT ??_C@_0CH@OILGNOPA@?F?j?$MA?e?$LK?q?$LA?$KB?5?$MA?e?B?x?$LF?G?$MA?V?$MA?$LI?$LI?i?5?E?$LO?$LN?B?G?R?$LM?v?$LO?x@
CONST	SEGMENT
??_C@_0CH@OILGNOPA@?F?j?$MA?e?$LK?q?$LA?$KB?5?$MA?e?B?x?$LF?G?$MA?V?$MA?$LI?$LI?i?5?E?$LO?$LN?B?G?R?$LM?v?$LO?x@ DB 0c6H
	DB	0eaH, 0c0H, 0e5H, 0baH, 0f1H, 0b0H, 0a1H, ' ', 0c0H, 0e5H, 0c2H
	DB	0f8H, 0b5H, 0c7H, 0c0H, 0d6H, 0c0H, 0b8H, 0b8H, 0e9H, ' ', 0c5H
	DB	0beH, 0bdH, 0c2H, 0c7H, 0d2H, 0bcH, 0f6H, 0beH, 0f8H, 0beH, 0eeH
	DB	0bfH, 0e4H, 0a3H, 0a1H, 00H			; `string'
CONST	ENDS
;	COMDAT ??_C@_01ELNMCGJD@W?$AA@
CONST	SEGMENT
??_C@_01ELNMCGJD@W?$AA@ DB 'W', 00H			; `string'
CONST	ENDS
;	COMDAT ??_C@_01FHEEJDEE@A?$AA@
CONST	SEGMENT
??_C@_01FHEEJDEE@A?$AA@ DB 'A', 00H			; `string'
CONST	ENDS
;	COMDAT ??_C@_02PGHGPEOM@?91?$AA@
CONST	SEGMENT
??_C@_02PGHGPEOM@?91?$AA@ DB '-1', 00H			; `string'
CONST	ENDS
;	COMDAT ??_C@_0EP@MMMKPGBO@?$CFs?$LK?q?A?$KE?$LL?s?$MA?$PL?$MA?N?5?$LJ?f?$LN?D?$MA?$LI?$LH?N?5?$LA?E?$LH?$KB?5?$LB?$NN?$LO?W?$MA@
CONST	SEGMENT
??_C@_0EP@MMMKPGBO@?$CFs?$LK?q?A?$KE?$LL?s?$MA?$PL?$MA?N?5?$LJ?f?$LN?D?$MA?$LI?$LH?N?5?$LA?E?$LH?$KB?5?$LB?$NN?$LO?W?$MA@ DB '%'
	DB	's', 0baH, 0f1H, 0c1H, 0a4H, 0bbH, 0f3H, 0c0H, 0fbH, 0c0H, 0ceH
	DB	' ', 0b9H, 0e6H, 0bdH, 0c4H, 0c0H, 0b8H, 0b7H, 0ceH, ' ', 0b0H
	DB	0c5H, 0b7H, 0a1H, ' ', 0b1H, 0ddH, 0beH, 0d7H, 0c0H, 0bbH, ' ', 0bcH
	DB	0f6H, 0c1H, 0a4H, 0c7H, 0cfH, 0b8H, 0e9H, ' ', 0bdH, 0c3H, 0bdH
	DB	0baH, 0c5H, 0dbH, 0c0H, 0ccH, ' ', 0b0H, 0c5H, 0b7H, 0a1H, 0c3H
	DB	0a2H, 0c0H, 0bbH, ' ', 0b0H, 0adH, 0c1H, 0a6H, 0b7H, 0ceH, ' ', 0b4H
	DB	0ddH, 0bdH, 0c0H, 0b4H, 0cfH, 0b4H, 0d9H, 0a3H, 0a1H, 00H ; `string'
CONST	ENDS
;	COMDAT ??_C@_01CPLAODJH@S?$AA@
CONST	SEGMENT
??_C@_01CPLAODJH@S?$AA@ DB 'S', 00H			; `string'
CONST	ENDS
;	COMDAT ??_C@_01GAPBHFFA@T?$AA@
CONST	SEGMENT
??_C@_01GAPBHFFA@T?$AA@ DB 'T', 00H			; `string'
CONST	ENDS
;	COMDAT ??_C@_01HIHLOKLC@1?$AA@
CONST	SEGMENT
??_C@_01HIHLOKLC@1?$AA@ DB '1', 00H			; `string'
CONST	ENDS
;	COMDAT ??_C@_01GBGANLPD@0?$AA@
CONST	SEGMENT
??_C@_01GBGANLPD@0?$AA@ DB '0', 00H			; `string'
CONST	ENDS
;	COMDAT ??_C@_01GFHCPBMG@C?$AA@
CONST	SEGMENT
??_C@_01GFHCPBMG@C?$AA@ DB 'C', 00H			; `string'
CONST	ENDS
;	COMDAT ??_C@_06DJMKDILO@B?$HMG?$HM?$CFd?$AA@
CONST	SEGMENT
??_C@_06DJMKDILO@B?$HMG?$HM?$CFd?$AA@ DB 'B|G|%d', 00H	; `string'
CONST	ENDS
;	COMDAT ??_C@_0L@GPPMEBMP@?$MA?N?$LD?$LL?$LH?B?$KD?$LK?$CFs?$AA@
CONST	SEGMENT
??_C@_0L@GPPMEBMP@?$MA?N?$LD?$LL?$LH?B?$KD?$LK?$CFs?$AA@ DB 0c0H, 0ceH, 0b3H
	DB	0bbH, 0b7H, 0c2H, 0a3H, 0baH, '%s', 00H	; `string'
CONST	ENDS
;	COMDAT ??_C@_06OJHGLDPL@?$CInull?$CJ?$AA@
CONST	SEGMENT
??_C@_06OJHGLDPL@?$CInull?$CJ?$AA@ DB '(null)', 00H	; `string'
CONST	ENDS
;	COMDAT ??_C@_08PECEDIMI@?$MA?$LG?G?U?$CFd?H?$LI?$AA@
CONST	SEGMENT
??_C@_08PECEDIMI@?$MA?$LG?G?U?$CFd?H?$LI?$AA@ DB 0c0H, 0b6H, 0c7H, 0d5H, '%'
	DB	'd', 0c8H, 0b8H, 00H				; `string'
CONST	ENDS
;	COMDAT ??_C@_04DHBICLIK@?$CFd?H?$LI?$AA@
CONST	SEGMENT
??_C@_04DHBICLIK@?$CFd?H?$LI?$AA@ DB '%d', 0c8H, 0b8H, 00H ; `string'
CONST	ENDS
;	COMDAT ??_C@_0L@GEIMNGGC@?$MA?N?$LD?$LL?$LH?B?$CI?$CFs?$CJ?$AA@
CONST	SEGMENT
??_C@_0L@GEIMNGGC@?$MA?N?$LD?$LL?$LH?B?$CI?$CFs?$CJ?$AA@ DB 0c0H, 0ceH, 0b3H
	DB	0bbH, 0b7H, 0c2H, '(%s)', 00H		; `string'
CONST	ENDS
;	COMDAT ??_C@_0P@FBIHNOAG@T?$HM?$CFs?$HM?$CFs?$HMI?$HM1?$HM?$CFd?$AA@
CONST	SEGMENT
??_C@_0P@FBIHNOAG@T?$HM?$CFs?$HM?$CFs?$HMI?$HM1?$HM?$CFd?$AA@ DB 'T|%s|%s'
	DB	'|I|1|%d', 00H				; `string'
CONST	ENDS
;	COMDAT ??_C@_0O@ONPMCPGG@?C?V?A?$LO?5?$LA?E?$LH?$KB?H?$KO?$MA?N?$AA@
CONST	SEGMENT
??_C@_0O@ONPMCPGG@?C?V?A?$LO?5?$LA?E?$LH?$KB?H?$KO?$MA?N?$AA@ DB 0c3H, 0d6H
	DB	0c1H, 0beH, ' ', 0b0H, 0c5H, 0b7H, 0a1H, 0c8H, 0aeH, 0c0H, 0ceH
	DB	00H						; `string'
CONST	ENDS
;	COMDAT ??_C@_08OEEBHAFG@?$LA?E?$LH?$KB?H?$KO?$MA?N?$AA@
CONST	SEGMENT
??_C@_08OEEBHAFG@?$LA?E?$LH?$KB?H?$KO?$MA?N?$AA@ DB 0b0H, 0c5H, 0b7H, 0a1H
	DB	0c8H, 0aeH, 0c0H, 0ceH, 00H			; `string'
CONST	ENDS
;	COMDAT ??_C@_0BA@BJIPOAAB@?$LL?s?$LE?k?$LJ?f?5?$LA?E?$LH?$KB?$LB?$NN?$LO?W?$AA@
CONST	SEGMENT
??_C@_0BA@BJIPOAAB@?$LL?s?$LE?k?$LJ?f?5?$LA?E?$LH?$KB?$LB?$NN?$LO?W?$AA@ DB 0bbH
	DB	0f3H, 0b4H, 0ebH, 0b9H, 0e6H, ' ', 0b0H, 0c5H, 0b7H, 0a1H, 0b1H
	DB	0ddH, 0beH, 0d7H, 00H			; `string'
CONST	ENDS
;	COMDAT ??_C@_08KMGGBBNI@?$LA?E?$LH?$KB?$LB?$NN?$LO?W?$AA@
CONST	SEGMENT
??_C@_08KMGGBBNI@?$LA?E?$LH?$KB?$LB?$NN?$LO?W?$AA@ DB 0b0H, 0c5H, 0b7H, 0a1H
	DB	0b1H, 0ddH, 0beH, 0d7H, 00H			; `string'
CONST	ENDS
;	COMDAT ??_C@_03GJOCCCFJ@?$CF7d?$AA@
CONST	SEGMENT
??_C@_03GJOCCCFJ@?$CF7d?$AA@ DB '%7d', 00H		; `string'
CONST	ENDS
;	COMDAT ??_C@_04IAHOEAOA@?$MA?$LG?G?U?$AA@
CONST	SEGMENT
??_C@_04IAHOEAOA@?$MA?$LG?G?U?$AA@ DB 0c0H, 0b6H, 0c7H, 0d5H, 00H ; `string'
CONST	ENDS
;	COMDAT ??_C@_02GPECMEKF@?$FL?$FN?$AA@
CONST	SEGMENT
??_C@_02GPECMEKF@?$FL?$FN?$AA@ DB '[]', 00H		; `string'
CONST	ENDS
;	COMDAT ??_C@_04PABHPHAJ@Gold?$AA@
CONST	SEGMENT
??_C@_04PABHPHAJ@Gold?$AA@ DB 'Gold', 00H		; `string'
CONST	ENDS
;	COMDAT ??_C@_05INGMOBLN@?$LN?$LK?5?E?f?$AA@
CONST	SEGMENT
??_C@_05INGMOBLN@?$LN?$LK?5?E?f?$AA@ DB 0bdH, 0baH, ' ', 0c5H, 0e6H, 00H ; `string'
CONST	ENDS
;	COMDAT ??_C@_01BBODEMC@G?$AA@
CONST	SEGMENT
??_C@_01BBODEMC@G?$AA@ DB 'G', 00H			; `string'
CONST	ENDS
;	COMDAT ??_C@_04IIECJNKD@?$MA?$LG?5?$DP?$AA@
CONST	SEGMENT
??_C@_04IIECJNKD@?$MA?$LG?5?$DP?$AA@ DB 0c0H, 0b6H, ' ?', 00H ; `string'
CONST	ENDS
;	COMDAT ??_C@_06IAPPLOMN@2?5?$LE?$NM?$LA?h?$AA@
CONST	SEGMENT
??_C@_06IAPPLOMN@2?5?$LE?$NM?$LA?h?$AA@ DB '2 ', 0b4H, 0dcH, 0b0H, 0e8H, 00H ; `string'
CONST	ENDS
;	COMDAT ??_C@_06LBBHKEFA@1?5?$LE?$NM?$LA?h?$AA@
CONST	SEGMENT
??_C@_06LBBHKEFA@1?5?$LE?$NM?$LA?h?$AA@ DB '1 ', 0b4H, 0dcH, 0b0H, 0e8H, 00H ; `string'
CONST	ENDS
;	COMDAT ??_C@_07EJEHFIPA@Lv?3?$CFd?$CFs?$AA@
CONST	SEGMENT
??_C@_07EJEHFIPA@Lv?3?$CFd?$CFs?$AA@ DB 'Lv:%d%s', 00H	; `string'
CONST	ENDS
;	COMDAT ??_C@_04LIFAFMCE@?$FL?$CFs?$FN?$AA@
CONST	SEGMENT
??_C@_04LIFAFMCE@?$FL?$CFs?$FN?$AA@ DB '[%s]', 00H	; `string'
CONST	ENDS
;	COMDAT ??_C@_01EJNLAFE@P?$AA@
CONST	SEGMENT
??_C@_01EJNLAFE@P?$AA@ DB 'P', 00H			; `string'
CONST	ENDS
;	COMDAT ??_C@_03EPCHICDI@x?$CFd?$AA@
CONST	SEGMENT
??_C@_03EPCHICDI@x?$CFd?$AA@ DB 'x%d', 00H		; `string'
CONST	ENDS
;	COMDAT ??_C@_01JPJNBJEM@I?$AA@
CONST	SEGMENT
??_C@_01JPJNBJEM@I?$AA@ DB 'I', 00H			; `string'
CONST	ENDS
;	COMDAT ??_C@_02HAOIJKIC@?$CFc?$AA@
CONST	SEGMENT
??_C@_02HAOIJKIC@?$CFc?$AA@ DB '%c', 00H		; `string'
CONST	ENDS
;	COMDAT ??_C@_0BC@OKAJJOLE@T?$HM?$CFs?$HM?$CFs?$HMP?$HM3?$HM?$CFd?$HM?$CFs?$AA@
CONST	SEGMENT
??_C@_0BC@OKAJJOLE@T?$HM?$CFs?$HM?$CFs?$HMP?$HM3?$HM?$CFd?$HM?$CFs?$AA@ DB 'T'
	DB	'|%s|%s|P|3|%d|%s', 00H			; `string'
CONST	ENDS
;	COMDAT ??_C@_0BL@IIOLHDHO@?$CFs?$HM?$CFs?$HM?$CFs?$HM?$CFs?$HM?$CFs?$HM?$CFs?$HM?$CFs?$HM?$CFs?$HM?$CFs?$AA@
CONST	SEGMENT
??_C@_0BL@IIOLHDHO@?$CFs?$HM?$CFs?$HM?$CFs?$HM?$CFs?$HM?$CFs?$HM?$CFs?$HM?$CFs?$HM?$CFs?$HM?$CFs?$AA@ DB '%'
	DB	's|%s|%s|%s|%s|%s|%s|%s|%s', 00H		; `string'
CONST	ENDS
;	COMDAT ??_C@_0BA@PCKDKFGL@T?$HM?$CFs?$HM?$CFs?$HMG?$HM?$CFd?$HM?$CFd?$AA@
CONST	SEGMENT
??_C@_0BA@PCKDKFGL@T?$HM?$CFs?$HM?$CFs?$HMG?$HM?$CFd?$HM?$CFd?$AA@ DB 'T|'
	DB	'%s|%s|G|%d|%d', 00H				; `string'
CONST	ENDS
;	COMDAT ??_C@_07BMJINPJG@W?$HM?$CFs?$HM?$CFs?$AA@
CONST	SEGMENT
??_C@_07BMJINPJG@W?$HM?$CFs?$HM?$CFs?$AA@ DB 'W|%s|%s', 00H ; `string'
CONST	ENDS
;	COMDAT ??_C@_0N@EILMFHPP@?5?G?U?5?5?$LA?h?5?5?$CF8d?$AA@
CONST	SEGMENT
??_C@_0N@EILMFHPP@?5?G?U?5?5?$LA?h?5?5?$CF8d?$AA@ DB ' ', 0c7H, 0d5H, '  '
	DB	0b0H, 0e8H, '  %8d', 00H			; `string'
CONST	ENDS
;	COMDAT ??_C@_0O@JBEDPFPL@?5?$KD?D?5?5?$KD?P?5?5?$CF?$CL8d?$AA@
CONST	SEGMENT
??_C@_0O@JBEDPFPL@?5?$KD?D?5?5?$KD?P?5?5?$CF?$CL8d?$AA@ DB ' ', 0a3H, 0c4H
	DB	'  ', 0a3H, 0d0H, '  %+8d', 00H		; `string'
CONST	ENDS
;	COMDAT ??_C@_0BN@DBCJKIIM@?$LO?F?$MA?L?E?$NL?$MA?$LL?5?$LO?r?A?v?5?$LI?x?G?O?$LP?$LE?$LN?$MA?$LE?O?$LE?Y?$KB?$KD?$AA@
CONST	SEGMENT
??_C@_0BN@DBCJKIIM@?$LO?F?$MA?L?E?$NL?$MA?$LL?5?$LO?r?A?v?5?$LI?x?G?O?$LP?$LE?$LN?$MA?$LE?O?$LE?Y?$KB?$KD?$AA@ DB 0beH
	DB	0c6H, 0c0H, 0ccH, 0c5H, 0dbH, 0c0H, 0bbH, ' ', 0beH, 0f2H, 0c1H
	DB	0f6H, ' ', 0b8H, 0f8H, 0c7H, 0cfH, 0bfH, 0b4H, 0bdH, 0c0H, 0b4H
	DB	0cfH, 0b4H, 0d9H, 0a1H, 0a3H, 00H		; `string'
CONST	ENDS
;	COMDAT ??_C@_0M@OKFINFEF@?5?5?$LO?F?$MA?L?E?$NL?5?$KD?$LK?$AA@
CONST	SEGMENT
??_C@_0M@OKFINFEF@?5?5?$LO?F?$MA?L?E?$NL?5?$KD?$LK?$AA@ DB '  ', 0beH, 0c6H
	DB	0c0H, 0ccH, 0c5H, 0dbH, ' ', 0a3H, 0baH, 00H	; `string'
CONST	ENDS
;	COMDAT ??_C@_09MBHBIIFC@Exp?5?5?5?5?$CL0?$AA@
CONST	SEGMENT
??_C@_09MBHBIIFC@Exp?5?5?5?5?$CL0?$AA@ DB 'Exp    +0', 00H ; `string'
CONST	ENDS
;	COMDAT ??_C@_08EFGDJJIF@Exp?5?$CF?$CL4d?$AA@
CONST	SEGMENT
??_C@_08EFGDJJIF@Exp?5?$CF?$CL4d?$AA@ DB 'Exp %+4d', 00H ; `string'
CONST	ENDS
;	COMDAT ??_C@_08EEKBPDLC@Exp?5?$CF?$CL5d?$AA@
CONST	SEGMENT
??_C@_08EEKBPDLC@Exp?5?$CF?$CL5d?$AA@ DB 'Exp %+5d', 00H ; `string'
CONST	ENDS
;	COMDAT ??_C@_05GEIIADAH@LvUp?$CB?$AA@
CONST	SEGMENT
??_C@_05GEIIADAH@LvUp?$CB?$AA@ DB 'LvUp!', 00H		; `string'
CONST	ENDS
;	COMDAT ??_C@_06EBKEKICJ@No?4?$CF3d?$AA@
CONST	SEGMENT
??_C@_06EBKEKICJ@No?4?$CF3d?$AA@ DB 'No.%3d', 00H	; `string'
CONST	ENDS
;	COMDAT ??_C@_0M@IEFMJAKN@?$LO?F?$MA?L?E?$NL?5?$LP?O?$LM?$LK?$AA@
CONST	SEGMENT
??_C@_0M@IEFMJAKN@?$LO?F?$MA?L?E?$NL?5?$LP?O?$LM?$LK?$AA@ DB 0beH, 0c6H, 0c0H
	DB	0ccH, 0c5H, 0dbH, ' ', 0bfH, 0cfH, 0bcH, 0baH, 00H ; `string'
CONST	ENDS
;	COMDAT ??_C@_0BL@GCLEBMEI@?D?$KD?$LB?$LI?$LA?$KB?5?A?$KC?$LM?S?G?X?$MA?V?A?v?5?$LO?J?$LO?F?$LP?d?$KD?$KB?$AA@
CONST	SEGMENT
??_C@_0BL@GCLEBMEI@?D?$KD?$LB?$LI?$LA?$KB?5?A?$KC?$LM?S?G?X?$MA?V?A?v?5?$LO?J?$LO?F?$LP?d?$KD?$KB?$AA@ DB 0c4H
	DB	0a3H, 0b1H, 0b8H, 0b0H, 0a1H, ' ', 0c1H, 0a2H, 0bcH, 0d3H, 0c7H
	DB	0d8H, 0c0H, 0d6H, 0c1H, 0f6H, ' ', 0beH, 0caH, 0beH, 0c6H, 0bfH
	DB	0e4H, 0a3H, 0a1H, 00H			; `string'
CONST	ENDS
;	COMDAT ??_C@_0BB@HHJMAEP@?5?5?F?d?5?F?$KO?5?$LI?$NO?5?$MA?O?5?5?5?$AA@
CONST	SEGMENT
??_C@_0BB@HHJMAEP@?5?5?F?d?5?F?$KO?5?$LI?$NO?5?$MA?O?5?5?5?$AA@ DB '  ', 0c6H
	DB	0e4H, ' ', 0c6H, 0aeH, ' ', 0b8H, 0deH, ' ', 0c0H, 0cfH, '   ', 00H ; `string'
CONST	ENDS
;	COMDAT ??_C@_0BB@JGMBHNPP@?5?5?$MA?O?5?$LJ?$NN?5?$LI?$NO?5?$MA?O?5?5?5?$AA@
CONST	SEGMENT
??_C@_0BB@JGMBHNPP@?5?5?$MA?O?5?$LJ?$NN?5?$LI?$NO?5?$MA?O?5?5?5?$AA@ DB ' '
	DB	' ', 0c0H, 0cfH, ' ', 0b9H, 0ddH, ' ', 0b8H, 0deH, ' ', 0c0H, 0cfH
	DB	'   ', 00H					; `string'
CONST	ENDS
;	COMDAT ??_C@_0DB@DLDGKHKC@?$LA?E?$LH?$KB?A?$NP?$MA?N?5?F?d?F?$KO?$LE?B?5?F?d?F?$KO?$LI?$NO?$MA?O?$LB?b?$LE?I?$MA?$LL?5?$LL@
CONST	SEGMENT
??_C@_0DB@DLDGKHKC@?$LA?E?$LH?$KB?A?$NP?$MA?N?5?F?d?F?$KO?$LE?B?5?F?d?F?$KO?$LI?$NO?$MA?O?$LB?b?$LE?I?$MA?$LL?5?$LL@ DB 0b0H
	DB	0c5H, 0b7H, 0a1H, 0c1H, 0dfH, 0c0H, 0ceH, ' ', 0c6H, 0e4H, 0c6H
	DB	0aeH, 0b4H, 0c2H, ' ', 0c6H, 0e4H, 0c6H, 0aeH, 0b8H, 0deH, 0c0H
	DB	0cfH, 0b1H, 0e2H, 0b4H, 0c9H, 0c0H, 0bbH, ' ', 0bbH, 0e7H, 0bfH
	DB	0ebH, 0c7H, 0d2H, ' ', 0bcH, 0f6H, ' ', 0beH, 0f8H, 0beH, 0eeH
	DB	0bfH, 0e4H, '!', 00H				; `string'
CONST	ENDS
;	COMDAT ??_C@_03GPCJOALC@?$CF2d?$AA@
CONST	SEGMENT
??_C@_03GPCJOALC@?$CF2d?$AA@ DB '%2d', 00H		; `string'
CONST	ENDS
;	COMDAT ??_C@_0P@KLBINAOA@?A?$KE?$LH?I?5?$LM?R?H?$KP?5?$LP?k?$LF?$LF?$AA@
CONST	SEGMENT
??_C@_0P@KLBINAOA@?A?$KE?$LH?I?5?$LM?R?H?$KP?5?$LP?k?$LF?$LF?$AA@ DB 0c1H
	DB	0a4H, 0b7H, 0c9H, ' ', 0bcH, 0d2H, 0c8H, 0afH, ' ', 0bfH, 0ebH
	DB	0b5H, 0b5H, 00H				; `string'
CONST	ENDS
;	COMDAT ??_C@_03GOOLIKIF@?$CF3d?$AA@
CONST	SEGMENT
??_C@_03GOOLIKIF@?$CF3d?$AA@ DB '%3d', 00H		; `string'
CONST	ENDS
;	COMDAT ??_C@_0M@HLOAEAFL@?A?$KE?$LH?I?$MA?G?5?$LP?k?$MA?Z?$AA@
CONST	SEGMENT
??_C@_0M@HLOAEAFL@?A?$KE?$LH?I?$MA?G?5?$LP?k?$MA?Z?$AA@ DB 0c1H, 0a4H, 0b7H
	DB	0c9H, 0c0H, 0c7H, ' ', 0bfH, 0ebH, 0c0H, 0daH, 00H ; `string'
CONST	ENDS
;	COMDAT ??_C@_0M@MELGFJCD@?A?$KE?$LH?I?$MA?G?5?$LL?g?$MA?Z?$AA@
CONST	SEGMENT
??_C@_0M@MELGFJCD@?A?$KE?$LH?I?$MA?G?5?$LL?g?$MA?Z?$AA@ DB 0c1H, 0a4H, 0b7H
	DB	0c9H, 0c0H, 0c7H, ' ', 0bbH, 0e7H, 0c0H, 0daH, 00H ; `string'
CONST	ENDS
;	COMDAT ??_C@_06FFJNECKA@?$LD?$LC?5?$CF3d?$AA@
CONST	SEGMENT
??_C@_06FFJNECKA@?$LD?$LC?5?$CF3d?$AA@ DB 0b3H, 0b2H, ' %3d', 00H ; `string'
CONST	ENDS
;	COMDAT ??_C@_06IKNDGEEE@?$LF?$LP?5?$CF3d?$AA@
CONST	SEGMENT
??_C@_06IKNDGEEE@?$LF?$LP?5?$CF3d?$AA@ DB 0b5H, 0bfH, ' %3d', 00H ; `string'
CONST	ENDS
;	COMDAT ??_C@_0BB@OOMMIBOD@?A?V?$LM?z?$MA?L?5?$LO?x?$LN?$MA?$LE?O?$LE?Y?4?$AA@
CONST	SEGMENT
??_C@_0BB@OOMMIBOD@?A?V?$LM?z?$MA?L?5?$LO?x?$LN?$MA?$LE?O?$LE?Y?4?$AA@ DB 0c1H
	DB	0d6H, 0bcH, 0faH, 0c0H, 0ccH, ' ', 0beH, 0f8H, 0bdH, 0c0H, 0b4H
	DB	0cfH, 0b4H, 0d9H, '.', 00H			; `string'
CONST	ENDS
;	COMDAT ??_C@_07HFNBMNBH@?$CF2d?1?$CF2d?$AA@
CONST	SEGMENT
??_C@_07HFNBMNBH@?$CF2d?1?$CF2d?$AA@ DB '%2d/%2d', 00H	; `string'
CONST	ENDS
;	COMDAT ??_C@_04FNJBHMGB@?$CF10d?$AA@
CONST	SEGMENT
??_C@_04FNJBHMGB@?$CF10d?$AA@ DB '%10d', 00H		; `string'
CONST	ENDS
;	COMDAT ??_C@_04BCAOMEHC@?$LA?$KN?H?$KN?$AA@
CONST	SEGMENT
??_C@_04BCAOMEHC@?$LA?$KN?H?$KN?$AA@ DB 0b0H, 0adH, 0c8H, 0adH, 00H ; `string'
CONST	ENDS
;	COMDAT ??_C@_04LECOJKED@?$LM?v?$LI?$KO?$AA@
CONST	SEGMENT
??_C@_04LECOJKED@?$LM?v?$LI?$KO?$AA@ DB 0bcH, 0f6H, 0b8H, 0aeH, 00H ; `string'
CONST	ENDS
;	COMDAT ??_C@_04CENFCOIH@?A?$KE?$LB?$LD?$AA@
CONST	SEGMENT
??_C@_04CENFCOIH@?A?$KE?$LB?$LD?$AA@ DB 0c1H, 0a4H, 0b1H, 0b3H, 00H ; `string'
CONST	ENDS
;	COMDAT ??_C@_09JLDAGEJM@?A?$KE?$LH?C?1?A?$KE?A?$KG?$AA@
CONST	SEGMENT
??_C@_09JLDAGEJM@?A?$KE?$LH?C?1?A?$KE?A?$KG?$AA@ DB 0c1H, 0a4H, 0b7H, 0c3H
	DB	'/', 0c1H, 0a4H, 0c1H, 0a6H, 00H		; `string'
CONST	ENDS
;	COMDAT ??_C@_04JJOHPIH@?$LP?d?$LI?$KO?$AA@
CONST	SEGMENT
??_C@_04JJOHPIH@?$LP?d?$LI?$KO?$AA@ DB 0bfH, 0e4H, 0b8H, 0aeH, 00H ; `string'
CONST	ENDS
;	COMDAT ??_C@_04KBAMDEME@?G?U?$LM?$LK?$AA@
CONST	SEGMENT
??_C@_04KBAMDEME@?G?U?$LM?$LK?$AA@ DB 0c7H, 0d5H, 0bcH, 0baH, 00H ; `string'
CONST	ENDS
;	COMDAT ??_C@_0BO@FMLOPNNF@?E?$LO?$LN?B?F?j?$MA?e?$LK?q?$LI?$KG?5?B?x?$LP?k?G?R?$LM?v?$LO?x?$LO?n?$LP?d?$KD?$KB?$AA@
CONST	SEGMENT
??_C@_0BO@FMLOPNNF@?E?$LO?$LN?B?F?j?$MA?e?$LK?q?$LI?$KG?5?B?x?$LP?k?G?R?$LM?v?$LO?x?$LO?n?$LP?d?$KD?$KB?$AA@ DB 0c5H
	DB	0beH, 0bdH, 0c2H, 0c6H, 0eaH, 0c0H, 0e5H, 0baH, 0f1H, 0b8H, 0a6H
	DB	' ', 0c2H, 0f8H, 0bfH, 0ebH, 0c7H, 0d2H, 0bcH, 0f6H, 0beH, 0f8H
	DB	0beH, 0eeH, 0bfH, 0e4H, 0a3H, 0a1H, 00H	; `string'
CONST	ENDS
;	COMDAT ??_C@_0M@KBIHDIM@?$DP?$DP?$NM?t?J?$KG?$DP?$DP?$DP?$KD?$KB?$AA@
CONST	SEGMENT
??_C@_0M@KBIHDIM@?$DP?$DP?$NM?t?J?$KG?$DP?$DP?$DP?$KD?$KB?$AA@ DB '??', 0dcH
	DB	0f4H, 0caH, 0a6H, '???', 0a3H, 0a1H, 00H	; `string'
CONST	ENDS
;	COMDAT ??_C@_08OHLEHKNP@?$LD?$LL?$LB?$LI?$CI?$CFs?$CJ?$AA@
CONST	SEGMENT
??_C@_08OHLEHKNP@?$LD?$LL?$LB?$LI?$CI?$CFs?$CJ?$AA@ DB 0b3H, 0bbH, 0b1H, 0b8H
	DB	'(%s)', 00H					; `string'
CONST	ENDS
;	COMDAT ??_C@_0N@NDDPGMND@?B?x?$LP?k?$LH?$LJ?$LK?$KH?$KD?$LK?$CFd?$AA@
CONST	SEGMENT
??_C@_0N@NDDPGMND@?B?x?$LP?k?$LH?$LJ?$LK?$KH?$KD?$LK?$CFd?$AA@ DB 0c2H, 0f8H
	DB	0bfH, 0ebH, 0b7H, 0b9H, 0baH, 0a7H, 0a3H, 0baH, '%d', 00H ; `string'
CONST	ENDS
;	COMDAT ??_C@_06EHEFLMKG@?F?d?F?$KO?$LJ?$NP?$AA@
CONST	SEGMENT
??_C@_06EHEFLMKG@?F?d?F?$KO?$LJ?$NP?$AA@ DB 0c6H, 0e4H, 0c6H, 0aeH, 0b9H, 0dfH
	DB	00H						; `string'
CONST	ENDS
;	COMDAT ??_C@_09MANCADAN@?F?d?F?$KO?$LD?$KP?$LA?$LD?7?$AA@
CONST	SEGMENT
??_C@_09MANCADAN@?F?d?F?$KO?$LD?$KP?$LA?$LD?7?$AA@ DB 0c6H, 0e4H, 0c6H, 0aeH
	DB	0b3H, 0afH, 0b0H, 0b3H, 09H, 00H		; `string'
CONST	ENDS
;	COMDAT ??_C@_0L@PGIAEJF@?F?d?F?$KO?$LF?n?$LF?$PM?A?v?$AA@
CONST	SEGMENT
??_C@_0L@PGIAEJF@?F?d?F?$KO?$LF?n?$LF?$PM?A?v?$AA@ DB 0c6H, 0e4H, 0c6H, 0aeH
	DB	0b5H, 0eeH, 0b5H, 0fcH, 0c1H, 0f6H, 00H	; `string'
CONST	ENDS
;	COMDAT ??_C@_08GDIJOMOC@?F?d?F?$KO?H?d?$LA?$KJ?$AA@
CONST	SEGMENT
??_C@_08GDIJOMOC@?F?d?F?$KO?H?d?$LA?$KJ?$AA@ DB 0c6H, 0e4H, 0c6H, 0aeH, 0c8H
	DB	0e4H, 0b0H, 0a9H, 00H			; `string'
CONST	ENDS
;	COMDAT ??_C@_0BB@CBJGPEHI@?$LO?V?$LP?O?$LF?U?$LJ?$LA?$LJ?$NP?E?i?$LF?$KE?$LA?$LD?$AA@
CONST	SEGMENT
??_C@_0BB@CBJGPEHI@?$LO?V?$LP?O?$LF?U?$LJ?$LA?$LJ?$NP?E?i?$LF?$KE?$LA?$LD?$AA@ DB 0beH
	DB	0d6H, 0bfH, 0cfH, 0b5H, 0d5H, 0b9H, 0b0H, 0b9H, 0dfH, 0c5H, 0e9H
	DB	0b5H, 0a4H, 0b0H, 0b3H, 00H			; `string'
CONST	ENDS
;	COMDAT ??_C@_0L@DDIDOFOI@?F?d?F?$KO?$LB?$LD?A?$KE?$LB?b?$AA@
CONST	SEGMENT
??_C@_0L@DDIDOFOI@?F?d?F?$KO?$LB?$LD?A?$KE?$LB?b?$AA@ DB 0c6H, 0e4H, 0c6H
	DB	0aeH, 0b1H, 0b3H, 0c1H, 0a4H, 0b1H, 0e2H, 00H ; `string'
CONST	ENDS
;	COMDAT ??_C@_08BFMDIOIA@?F?d?F?$KO?$LI?p?$MA?Z?$AA@
CONST	SEGMENT
??_C@_08BFMDIOIA@?F?d?F?$KO?$LI?p?$MA?Z?$AA@ DB 0c6H, 0e4H, 0c6H, 0aeH, 0b8H
	DB	0f0H, 0c0H, 0daH, 00H			; `string'
CONST	ENDS
;	COMDAT ??_C@_0L@NLGJPCEF@?G?U?$LM?$LK?$LO?F?$MA?L?E?$NL?$AA@
CONST	SEGMENT
??_C@_0L@NLGJPCEF@?G?U?$LM?$LK?$LO?F?$MA?L?E?$NL?$AA@ DB 0c7H, 0d5H, 0bcH
	DB	0baH, 0beH, 0c6H, 0c0H, 0ccH, 0c5H, 0dbH, 00H ; `string'
CONST	ENDS
;	COMDAT ??_C@_04ILPCKIID@?$MA?e?$LA?$KJ?$AA@
CONST	SEGMENT
??_C@_04ILPCKIID@?$MA?e?$LA?$KJ?$AA@ DB 0c0H, 0e5H, 0b0H, 0a9H, 00H ; `string'
CONST	ENDS
;	COMDAT ??_C@_04FMDGMGDM@?$LN?E?$LJ?$NP?$AA@
CONST	SEGMENT
??_C@_04FMDGMGDM@?$LN?E?$LJ?$NP?$AA@ DB 0bdH, 0c5H, 0b9H, 0dfH, 00H ; `string'
CONST	ENDS
;	COMDAT ??_C@_04MDAEFDIO@?$LJ?f?F?P?$AA@
CONST	SEGMENT
??_C@_04MDAEFDIO@?$LJ?f?F?P?$AA@ DB 0b9H, 0e6H, 0c6H, 0d0H, 00H ; `string'
CONST	ENDS
;	COMDAT ??_C@_04BGLAECHO@?$LK?$KH?F?$KO?$AA@
CONST	SEGMENT
??_C@_04BGLAECHO@?$LK?$KH?F?$KO?$AA@ DB 0baH, 0a7H, 0c6H, 0aeH, 00H ; `string'
CONST	ENDS
;	COMDAT ??_C@_04HBPDABAH@?H?$KN?$LJ?$LA?$AA@
CONST	SEGMENT
??_C@_04HBPDABAH@?H?$KN?$LJ?$LA?$AA@ DB 0c8H, 0adH, 0b9H, 0b0H, 00H ; `string'
CONST	ENDS
;	COMDAT ??_C@_04EHKMOIDB@?$LK?$LI?$LM?$KO?$AA@
CONST	SEGMENT
??_C@_04EHKMOIDB@?$LK?$LI?$LM?$KO?$AA@ DB 0baH, 0b8H, 0bcH, 0aeH, 00H ; `string'
CONST	ENDS
;	COMDAT ??_C@_04KGBFNJKK@?$LB?$NN?$LM?S?$AA@
CONST	SEGMENT
??_C@_04KGBFNJKK@?$LB?$NN?$LM?S?$AA@ DB 0b1H, 0ddH, 0bcH, 0d3H, 00H ; `string'
CONST	ENDS
;	COMDAT ??_C@_08JJFHLNAF@?$MA?O?$LJ?$NN?G?$LA?$LI?q?$AA@
CONST	SEGMENT
??_C@_08JJFHLNAF@?$MA?O?$LJ?$NN?G?$LA?$LI?q?$AA@ DB 0c0H, 0cfH, 0b9H, 0ddH
	DB	0c7H, 0b0H, 0b8H, 0f1H, 00H			; `string'
CONST	ENDS
;	COMDAT ??_C@_04DMAFGKHI@?$LN?$LK?E?f?$AA@
CONST	SEGMENT
??_C@_04DMAFGKHI@?$LN?$LK?E?f?$AA@ DB 0bdH, 0baH, 0c5H, 0e6H, 00H ; `string'
CONST	ENDS
;	COMDAT ??_C@_06PDMDLGFL@?$LN?$LK?$LH?N?$MA?W?$AA@
CONST	SEGMENT
??_C@_06PDMDLGFL@?$LN?$LK?$LH?N?$MA?W?$AA@ DB 0bdH, 0baH, 0b7H, 0ceH, 0c0H
	DB	0d7H, 00H					; `string'
CONST	ENDS
;	COMDAT ??_C@_04CNJNIGHL@?$LN?$LK?G?I?$AA@
CONST	SEGMENT
??_C@_04CNJNIGHL@?$LN?$LK?G?I?$AA@ DB 0bdH, 0baH, 0c7H, 0c9H, 00H ; `string'
CONST	ENDS
;	COMDAT ??_C@_0L@HDFPLLID@?$LA?x?E?k?$LO?F?$MA?L?E?$NL?$AA@
CONST	SEGMENT
??_C@_0L@HDFPLLID@?$LA?x?E?k?$LO?F?$MA?L?E?$NL?$AA@ DB 0b0H, 0f8H, 0c5H, 0ebH
	DB	0beH, 0c6H, 0c0H, 0ccH, 0c5H, 0dbH, 00H	; `string'
CONST	ENDS
;	COMDAT ??_C@_04JDNPCPFE@?$LK?N?$MA?$PL?$AA@
CONST	SEGMENT
??_C@_04JDNPCPFE@?$LK?N?$MA?$PL?$AA@ DB 0baH, 0ceH, 0c0H, 0fbH, 00H ; `string'
CONST	ENDS
;	COMDAT ??_C@_06EAGADMK@?D?Z?$LA?I?$MA?L?$AA@
CONST	SEGMENT
??_C@_06EAGADMK@?D?Z?$LA?I?$MA?L?$AA@ DB 0c4H, 0daH, 0b0H, 0c9H, 0c0H, 0ccH
	DB	00H						; `string'
CONST	ENDS
;	COMDAT ??_C@_06KEIFMOGF@?$LB?M?$LA?I?$MA?L?$AA@
CONST	SEGMENT
??_C@_06KEIFMOGF@?$LB?M?$LA?I?$MA?L?$AA@ DB 0b1H, 0cdH, 0b0H, 0c9H, 0c0H, 0ccH
	DB	00H						; `string'
CONST	ENDS
;	COMDAT ??_C@_08LGGDLKGH@?$LO?K?$LM?v?$LO?x?$MA?$LN?$AA@
CONST	SEGMENT
??_C@_08LGGDLKGH@?$LO?K?$LM?v?$LO?x?$MA?$LN?$AA@ DB 0beH, 0cbH, 0bcH, 0f6H
	DB	0beH, 0f8H, 0c0H, 0bdH, 00H			; `string'
CONST	ENDS
;	COMDAT ??_C@_06ECKFEMGA@?$LI?q?$LA?I?$MA?L?$AA@
CONST	SEGMENT
??_C@_06ECKFEMGA@?$LI?q?$LA?I?$MA?L?$AA@ DB 0b8H, 0f1H, 0b0H, 0c9H, 0c0H, 0ccH
	DB	00H						; `string'
CONST	ENDS
;	COMDAT ??_C@_04NFGEGNGB@?$LO?G?$LB?b?$AA@
CONST	SEGMENT
??_C@_04NFGEGNGB@?$LO?G?$LB?b?$AA@ DB 0beH, 0c7H, 0b1H, 0e2H, 00H ; `string'
CONST	ENDS
;	COMDAT ??_C@_04LOKHEPDM@?F?H?B?n?$AA@
CONST	SEGMENT
??_C@_04LOKHEPDM@?F?H?B?n?$AA@ DB 0c6H, 0c8H, 0c2H, 0eeH, 00H ; `string'
CONST	ENDS
;	COMDAT ??_C@_07NECPELMJ@?$LP?J?1?$LA?$KJ?$LP?J?$AA@
CONST	SEGMENT
??_C@_07NECPELMJ@?$LP?J?1?$LA?$KJ?$LP?J?$AA@ DB 0bfH, 0caH, '/', 0b0H, 0a9H
	DB	0bfH, 0caH, 00H				; `string'
CONST	ENDS
;	COMDAT ??_C@_09CLDGNKDJ@?G?o?$LI?d?1?$LI?p?$MA?Z?$AA@
CONST	SEGMENT
??_C@_09CLDGNKDJ@?G?o?$LI?d?1?$LI?p?$MA?Z?$AA@ DB 0c7H, 0efH, 0b8H, 0e4H, '/'
	DB	0b8H, 0f0H, 0c0H, 0daH, 00H			; `string'
CONST	ENDS
;	COMDAT ??_C@_04LEJNPBFJ@?E?d?E?$NL?$AA@
CONST	SEGMENT
??_C@_04LEJNPBFJ@?E?d?E?$NL?$AA@ DB 0c5H, 0e4H, 0c5H, 0dbH, 00H ; `string'
CONST	ENDS
;	COMDAT ??_C@_02HLMHEPKN@?H?$LA?$AA@
CONST	SEGMENT
??_C@_02HLMHEPKN@?H?$LA?$AA@ DB 0c8H, 0b0H, 00H		; `string'
CONST	ENDS
;	COMDAT ??_C@_02LHEPKKK@?C?Q?$AA@
CONST	SEGMENT
??_C@_02LHEPKKK@?C?Q?$AA@ DB 0c3H, 0d1H, 00H		; `string'
CONST	ENDS
;	COMDAT ??_C@_04KEDFPNBA@?$LA?o?$LK?$MA?$AA@
CONST	SEGMENT
??_C@_04KEDFPNBA@?$LA?o?$LK?$MA?$AA@ DB 0b0H, 0efH, 0baH, 0c0H, 00H ; `string'
CONST	ENDS
;	COMDAT ??_C@_04JAHPKPAM@?$LF?$LF?$LD?$KC?$AA@
CONST	SEGMENT
??_C@_04JAHPKPAM@?$LF?$LF?$LD?$KC?$AA@ DB 0b5H, 0b5H, 0b3H, 0a2H, 00H ; `string'
CONST	ENDS
;	COMDAT ??_C@_04ECOFNHEG@?$LJ?$NP?E?i?$AA@
CONST	SEGMENT
??_C@_04ECOFNHEG@?$LJ?$NP?E?i?$AA@ DB 0b9H, 0dfH, 0c5H, 0e9H, 00H ; `string'
CONST	ENDS
;	COMDAT ??_C@_0L@CFBINIFC@?R?$LB?N?y?S?x?$CI?$CFs?$CJ?$AA@
CONST	SEGMENT
??_C@_0L@CFBINIFC@?R?$LB?N?y?S?x?$CI?$CFs?$CJ?$AA@ DB 0d2H, 0b1H, 0ceH, 0f9H
	DB	0d3H, 0f8H, '(%s)', 00H			; `string'
CONST	ENDS
;	COMDAT ??_C@_0M@PEOHJCFP@?$NO?E?i?D?T?u?$DP?$KD?$LK?$CFd?$AA@
CONST	SEGMENT
??_C@_0M@PEOHJCFP@?$NO?E?i?D?T?u?$DP?$KD?$LK?$CFd?$AA@ DB 0deH, 0c5H, 0e9H
	DB	0c4H, 0d4H, 0f5H, '?', 0a3H, 0baH, '%d', 00H	; `string'
CONST	ENDS
;	COMDAT ??_C@_0BA@HANCGCKL@?T?$LD?N?$PN?$DP?z?$PO?$KD?$LK?$CFs?$CI?$CFd?$CJ?$AA@
CONST	SEGMENT
??_C@_0BA@HANCGCKL@?T?$LD?N?$PN?$DP?z?$PO?$KD?$LK?$CFs?$CI?$CFd?$CJ?$AA@ DB 0d4H
	DB	0b3H, 0ceH, 0fdH, '?', 0faH, 0feH, 0a3H, 0baH, '%s(%d)', 00H ; `string'
CONST	ENDS
;	COMDAT ??_C@_0N@OJIDMKKD@?R?$LB?5?N?y?5?S?x?$KD?$LK?$CFs?$AA@
CONST	SEGMENT
??_C@_0N@OJIDMKKD@?R?$LB?5?N?y?5?S?x?$KD?$LK?$CFs?$AA@ DB 0d2H, 0b1H, ' ', 0ceH
	DB	0f9H, ' ', 0d3H, 0f8H, 0a3H, 0baH, '%s', 00H	; `string'
CONST	ENDS
;	COMDAT ??_C@_05HADHEFCA@?$DP?Z?$KK?J?E?$AA@
CONST	SEGMENT
??_C@_05HADHEFCA@?$DP?Z?$KK?J?E?$AA@ DB '?', 0daH, 0aaH, 0caH, 0c5H, 00H ; `string'
CONST	ENDS
;	COMDAT ??_C@_07EBDBKLFE@?$DP?Z?$KK?c?G?$NL?$LJ?$AA@
CONST	SEGMENT
??_C@_07EBDBKLFE@?$DP?Z?$KK?c?G?$NL?$LJ?$AA@ DB '?', 0daH, 0aaH, 0e3H, 0c7H
	DB	0dbH, 0b9H, 00H				; `string'
CONST	ENDS
;	COMDAT ??_C@_07BGDEODC@?$DP?Z?$KK?$NL?N?K?$KD?$AA@
CONST	SEGMENT
??_C@_07BGDEODC@?$DP?Z?$KK?$NL?N?K?$KD?$AA@ DB '?', 0daH, 0aaH, 0dbH, 0ceH
	DB	0cbH, 0a3H, 00H				; `string'
CONST	ENDS
;	COMDAT ??_C@_07DKJAJMNF@?$DP?Z?$KK?$PN?X?K?$KD?$AA@
CONST	SEGMENT
??_C@_07DKJAJMNF@?$DP?Z?$KK?$PN?X?K?$KD?$AA@ DB '?', 0daH, 0aaH, 0fdH, 0d8H
	DB	0cbH, 0a3H, 00H				; `string'
CONST	ENDS
;	COMDAT ??_C@_07KJEPFKIF@?$DP?Z?$KK?p?P?w?$NP?$AA@
CONST	SEGMENT
??_C@_07KJEPFKIF@?$DP?Z?$KK?p?P?w?$NP?$AA@ DB '?', 0daH, 0aaH, 0f0H, 0d0H
	DB	0f7H, 0dfH, 00H				; `string'
CONST	ENDS
;	COMDAT ??_C@_07BFLMDDCK@?$DP?Z?$KK?d?$LD?w?$NP?$AA@
CONST	SEGMENT
??_C@_07BFLMDDCK@?$DP?Z?$KK?d?$LD?w?$NP?$AA@ DB '?', 0daH, 0aaH, 0e4H, 0b3H
	DB	0f7H, 0dfH, 00H				; `string'
CONST	ENDS
;	COMDAT ??_C@_06KLOJBJDG@?$DP?Z?$KK?$DP?w?$NP?$AA@
CONST	SEGMENT
??_C@_06KLOJBJDG@?$DP?Z?$KK?$DP?w?$NP?$AA@ DB '?', 0daH, 0aaH, '?', 0f7H, 0dfH
	DB	00H						; `string'
CONST	ENDS
;	COMDAT ??_C@_03GCJLGDEN@?$DP?Q?Q?$AA@
CONST	SEGMENT
??_C@_03GCJLGDEN@?$DP?Q?Q?$AA@ DB '?', 0d1H, 0d1H, 00H	; `string'
CONST	ENDS
;	COMDAT ??_C@_04DKIAPBFG@?b?$KC?w?$NP?$AA@
CONST	SEGMENT
??_C@_04DKIAPBFG@?b?$KC?w?$NP?$AA@ DB 0e2H, 0a2H, 0f7H, 0dfH, 00H ; `string'
CONST	ENDS
;	COMDAT ??_C@_04NMNAOJOJ@?$PL?$LJ?m?$KN?$AA@
CONST	SEGMENT
??_C@_04NMNAOJOJ@?$PL?$LJ?m?$KN?$AA@ DB 0fbH, 0b9H, 0edH, 0adH, 00H ; `string'
CONST	ENDS
;	COMDAT ??_C@_02OEJDJEF@?b?j?$AA@
CONST	SEGMENT
??_C@_02OEJDJEF@?b?j?$AA@ DB 0e2H, 0eaH, 00H		; `string'
CONST	ENDS
;	COMDAT ??_C@_03PAOHCFLP@?i?$KG?$DP?$AA@
CONST	SEGMENT
??_C@_03PAOHCFLP@?i?$KG?$DP?$AA@ DB 0e9H, 0a6H, '?', 00H ; `string'
CONST	ENDS
;	COMDAT ??_C@_03KCAFCMJB@?$DP?Z?$KK?$AA@
CONST	SEGMENT
??_C@_03KCAFCMJB@?$DP?Z?$KK?$AA@ DB '?', 0daH, 0aaH, 00H ; `string'
CONST	ENDS
;	COMDAT ??_C@_03FPLIHDAI@?$DP?$OA?$LE?$AA@
CONST	SEGMENT
??_C@_03FPLIHDAI@?$DP?$OA?$LE?$AA@ DB '?', 0e0H, 0b4H, 00H ; `string'
CONST	ENDS
;	COMDAT ??_C@_03JEMGILCE@?Q?Q?$DP?$AA@
CONST	SEGMENT
??_C@_03JEMGILCE@?Q?Q?$DP?$AA@ DB 0d1H, 0d1H, '?', 00H	; `string'
CONST	ENDS
;	COMDAT ??_C@_08PPBNCICL@?l?i?Z?u?Z?$KK?y?$KB?$AA@
CONST	SEGMENT
??_C@_08PPBNCICL@?l?i?Z?u?Z?$KK?y?$KB?$AA@ DB 0ecH, 0e9H, 0daH, 0f5H, 0daH
	DB	0aaH, 0f9H, 0a1H, 00H			; `string'
CONST	ENDS
;	COMDAT ??_C@_05NCBNMKHJ@?w?a?$DP?$OA?$LE?$AA@
CONST	SEGMENT
??_C@_05NCBNMKHJ@?w?a?$DP?$OA?$LE?$AA@ DB 0f7H, 0e1H, '?', 0e0H, 0b4H, 00H ; `string'
CONST	ENDS
;	COMDAT ??_C@_06GGKIIEAG@?w?a?$DP?$NN?$KI?$DP?$AA@
CONST	SEGMENT
??_C@_06GGKIIEAG@?w?a?$DP?$NN?$KI?$DP?$AA@ DB 0f7H, 0e1H, '?', 0ddH, 0a8H
	DB	'?', 00H					; `string'
CONST	ENDS
;	COMDAT ??_C@_05EGENBHF@?$PM?$NO?$OA?A?$DP?$AA@
CONST	SEGMENT
??_C@_05EGENBHF@?$PM?$NO?$OA?A?$DP?$AA@ DB 0fcH, 0deH, 0e0H, 0c1H, '?', 00H ; `string'
CONST	ENDS
;	COMDAT ??_C@_08JLPLGDIB@?$NM?E?w?W?Z?$KK?y?$KB?$AA@
CONST	SEGMENT
??_C@_08JLPLGDIB@?$NM?E?w?W?Z?$KK?y?$KB?$AA@ DB 0dcH, 0c5H, 0f7H, 0d7H, 0daH
	DB	0aaH, 0f9H, 0a1H, 00H			; `string'
CONST	ENDS
;	COMDAT ??_C@_05MHFFLKOE@?$DP?c?s?$NN?$KM?$AA@
CONST	SEGMENT
??_C@_05MHFFLKOE@?$DP?c?s?$NN?$KM?$AA@ DB '?', 0e3H, 0f3H, 0ddH, 0acH, 00H ; `string'
CONST	ENDS
;	COMDAT ??_C@_03JAIMGAHB@?$NO?$KM?$DP?$AA@
CONST	SEGMENT
??_C@_03JAIMGAHB@?$NO?$KM?$DP?$AA@ DB 0deH, 0acH, '?', 00H ; `string'
CONST	ENDS
;	COMDAT ??_C@_03NGIIPDCL@?l?$LM?$DP?$AA@
CONST	SEGMENT
??_C@_03NGIIPDCL@?l?$LM?$DP?$AA@ DB 0ecH, 0bcH, '?', 00H ; `string'
CONST	ENDS
;	COMDAT ??_C@_04BEMIHOKC@?Z?$LB?r?$LB?$AA@
CONST	SEGMENT
??_C@_04BEMIHOKC@?Z?$LB?r?$LB?$AA@ DB 0daH, 0b1H, 0f2H, 0b1H, 00H ; `string'
CONST	ENDS
;	COMDAT ??_C@_02HHFHKOHM@?$DP?$DP?$AA@
CONST	SEGMENT
??_C@_02HHFHKOHM@?$DP?$DP?$AA@ DB '??', 00H		; `string'
CONST	ENDS
;	COMDAT ??_C@_03CCJMBCAH@?$DP?P?o?$AA@
CONST	SEGMENT
??_C@_03CCJMBCAH@?$DP?P?o?$AA@ DB '?', 0d0H, 0efH, 00H	; `string'
CONST	ENDS
;	COMDAT ??_C@_03CAOPAKGC@?b?$KC?$DP?$AA@
CONST	SEGMENT
??_C@_03CAOPAKGC@?b?$KC?$DP?$AA@ DB 0e2H, 0a2H, '?', 00H ; `string'
CONST	ENDS
;	COMDAT ??_C@_08FFKKHGPD@?k?$PN?$NM?W?1?$DP?K?$KD?$AA@
CONST	SEGMENT
??_C@_08FFKKHGPD@?k?$PN?$NM?W?1?$DP?K?$KD?$AA@ DB 0ebH, 0fdH, 0dcH, 0d7H, '/'
	DB	'?', 0cbH, 0a3H, 00H				; `string'
CONST	ENDS
;	COMDAT ??_C@_07GIIOIOCG@?$DP?$DP?1?Y?$LG?m?$KN?$AA@
CONST	SEGMENT
??_C@_07GIIOIOCG@?$DP?$DP?1?Y?$LG?m?$KN?$AA@ DB '??/', 0d9H, 0b6H, 0edH, 0adH
	DB	00H						; `string'
CONST	ENDS
;	COMDAT ??_C@_04CECPHKEL@?b?j?x?$KL?$AA@
CONST	SEGMENT
??_C@_04CECPHKEL@?b?j?x?$KL?$AA@ DB 0e2H, 0eaH, 0f8H, 0abH, 00H ; `string'
CONST	ENDS
;	COMDAT ??_C@_02NNCIDFDN@?O?a?$AA@
CONST	SEGMENT
??_C@_02NNCIDFDN@?O?a?$AA@ DB 0cfH, 0e1H, 00H		; `string'
CONST	ENDS
;	COMDAT ??_C@_04HECMHKAJ@?M?b?$NM?j?$AA@
CONST	SEGMENT
??_C@_04HECMHKAJ@?M?b?$NM?j?$AA@ DB 0cdH, 0e2H, 0dcH, 0eaH, 00H ; `string'
CONST	ENDS
;	COMDAT ??_C@_03IFDAGHED@?$NN?$KI?$DP?$AA@
CONST	SEGMENT
??_C@_03IFDAGHED@?$NN?$KI?$DP?$AA@ DB 0ddH, 0a8H, '?', 00H ; `string'
CONST	ENDS
;	COMDAT ??_C@_02DEECJACC@?p?P?$AA@
CONST	SEGMENT
??_C@_02DEECJACC@?p?P?$AA@ DB 0f0H, 0d0H, 00H		; `string'
CONST	ENDS
;	COMDAT ??_C@_07ELLIEDNC@?1?$LA?c?D?$KB?$LB?b?$AA@
CONST	SEGMENT
??_C@_07ELLIEDNC@?1?$LA?c?D?$KB?$LB?b?$AA@ DB '/', 0b0H, 0e3H, 0c4H, 0a1H
	DB	0b1H, 0e2H, 00H				; `string'
CONST	ENDS
;	COMDAT ??_C@_0BF@EOCHGIJI@?$LO?F?$MA?L?E?$NL?5?$MA?Z?$LF?$LP?5?$LA?c?D?$KB?$LB?b?$KB?$KD?$AA@
CONST	SEGMENT
??_C@_0BF@EOCHGIJI@?$LO?F?$MA?L?E?$NL?5?$MA?Z?$LF?$LP?5?$LA?c?D?$KB?$LB?b?$KB?$KD?$AA@ DB 0beH
	DB	0c6H, 0c0H, 0ccH, 0c5H, 0dbH, ' ', 0c0H, 0daH, 0b5H, 0bfH, ' ', 0b0H
	DB	0e3H, 0c4H, 0a1H, 0b1H, 0e2H, 0a1H, 0a3H, 00H ; `string'
CONST	ENDS
;	COMDAT ??_C@_0N@DBNACIMP@?5?5?5?5?5?5?5?$CF?922s?$AA@
CONST	SEGMENT
??_C@_0N@DBNACIMP@?5?5?5?5?5?5?5?$CF?922s?$AA@ DB '       %-22s', 00H ; `string'
CONST	ENDS
;	COMDAT ??_C@_07EGJGINOD@?$PM?$NO?$DP?$KD?$LK?$CFd?$AA@
CONST	SEGMENT
??_C@_07EGJGINOD@?$PM?$NO?$DP?$KD?$LK?$CFd?$AA@ DB 0fcH, 0deH, '?', 0a3H, 0baH
	DB	'%d', 00H					; `string'
CONST	ENDS
;	COMDAT ??_C@_0BK@GKGGCKK@?$LM?$LK?$MA?e?$LH?$PM?$MA?$LK?5?$LH?$LJ?$LK?$KH?$LO?w?5?H?D?$LP?$KB?5?$LA?$KB?$LE?I?$AA@
CONST	SEGMENT
??_C@_0BK@GKGGCKK@?$LM?$LK?$MA?e?$LH?$PM?$MA?$LK?5?$LH?$LJ?$LK?$KH?$LO?w?5?H?D?$LP?$KB?5?$LA?$KB?$LE?I?$AA@ DB 0bcH
	DB	0baH, 0c0H, 0e5H, 0b7H, 0fcH, 0c0H, 0baH, ' ', 0b7H, 0b9H, 0baH
	DB	0a7H, 0beH, 0f7H, ' ', 0c8H, 0c4H, 0bfH, 0a1H, ' ', 0b0H, 0a1H
	DB	0b4H, 0c9H, 00H				; `string'
CONST	ENDS
;	COMDAT ??_C@_04GANEPBPG@?$CF?44f?$AA@
CONST	SEGMENT
??_C@_04GANEPBPG@?$CF?44f?$AA@ DB '%.4f', 00H		; `string'
CONST	ENDS
;	COMDAT ??_C@_0BL@LBJMLJDB@?$LH?$LJ?$LK?$KH?$LO?w?5?H?D?5?$LP?$LJ?$LL?s?5?$LA?$KK?5?$LA?h?$LL?j?$LA?$KB?$LE?I?$AA@
CONST	SEGMENT
??_C@_0BL@LBJMLJDB@?$LH?$LJ?$LK?$KH?$LO?w?5?H?D?5?$LP?$LJ?$LL?s?5?$LA?$KK?5?$LA?h?$LL?j?$LA?$KB?$LE?I?$AA@ DB 0b7H
	DB	0b9H, 0baH, 0a7H, 0beH, 0f7H, ' ', 0c8H, 0c4H, ' ', 0bfH, 0b9H
	DB	0bbH, 0f3H, ' ', 0b0H, 0aaH, ' ', 0b0H, 0e8H, 0bbH, 0eaH, 0b0H
	DB	0a1H, 0b4H, 0c9H, 00H			; `string'
CONST	ENDS
;	COMDAT ??_C@_04GHNNFJCK@?$CF?40f?$AA@
CONST	SEGMENT
??_C@_04GHNNFJCK@?$CF?40f?$AA@ DB '%.0f', 00H		; `string'
CONST	ENDS
;	COMDAT ??_C@_04FEBIMPDM@?$CI?$CFd?$CJ?$AA@
CONST	SEGMENT
??_C@_04FEBIMPDM@?$CI?$CFd?$CJ?$AA@ DB '(%d)', 00H	; `string'
CONST	ENDS
;	COMDAT ??_C@_03OCJFCJPE@?$FL?$DP?$FN?$AA@
CONST	SEGMENT
??_C@_03OCJFCJPE@?$FL?$DP?$FN?$AA@ DB '[?]', 00H	; `string'
CONST	ENDS
;	COMDAT ??_C@_09CFBKFGII@?$CFs?5?C?T?$LP?$LF?$KD?$KB?$AA@
CONST	SEGMENT
??_C@_09CFBKFGII@?$CFs?5?C?T?$LP?$LF?$KD?$KB?$AA@ DB '%s ', 0c3H, 0d4H, 0bfH
	DB	0b5H, 0a3H, 0a1H, 00H			; `string'
CONST	ENDS
;	COMDAT ??_C@_0BB@OLBLGPHG@?F?d?F?$KO?$LA?$KB?5?$LO?x?$LN?$MA?$LE?O?$LE?Y?4?$AA@
CONST	SEGMENT
??_C@_0BB@OLBLGPHG@?F?d?F?$KO?$LA?$KB?5?$LO?x?$LN?$MA?$LE?O?$LE?Y?4?$AA@ DB 0c6H
	DB	0e4H, 0c6H, 0aeH, 0b0H, 0a1H, ' ', 0beH, 0f8H, 0bdH, 0c0H, 0b4H
	DB	0cfH, 0b4H, 0d9H, '.', 00H			; `string'
CONST	ENDS
;	COMDAT ??_C@_0BC@PMPFNJLM@?$CF3d?5?5?5?5?5?$CF4d?5?5?5?$CF4d?$AA@
CONST	SEGMENT
??_C@_0BC@PMPFNJLM@?$CF3d?5?5?5?5?5?$CF4d?5?5?5?$CF4d?$AA@ DB '%3d     %4'
	DB	'd   %4d', 00H				; `string'
CONST	ENDS
;	COMDAT ??_C@_03FOFHDGCP@?$CFd?$DP?$AA@
CONST	SEGMENT
??_C@_03FOFHDGCP@?$CFd?$DP?$AA@ DB '%d?', 00H		; `string'
CONST	ENDS
;	COMDAT ??_C@_07PKBGKFAJ@?k?W?y?j?$CFd?$DP?$AA@
CONST	SEGMENT
??_C@_07PKBGKFAJ@?k?W?y?j?$CFd?$DP?$AA@ DB 0ebH, 0d7H, 0f9H, 0eaH, '%d?', 00H ; `string'
CONST	ENDS
;	COMDAT ??_C@_01OGPIMHDM@?$DP?$AA@
CONST	SEGMENT
??_C@_01OGPIMHDM@?$DP?$AA@ DB '?', 00H			; `string'
CONST	ENDS
;	COMDAT ??_C@_05EMGOANLP@?$CF?916s?$AA@
CONST	SEGMENT
??_C@_05EMGOANLP@?$CF?916s?$AA@ DB '%-16s', 00H		; `string'
CONST	ENDS
;	COMDAT ??_C@_0BC@ILNBPEIE@?F?d?F?$KO?$LI?$KG?5?$LJ?v?$LI?$LB?$LB?n?$LP?d?$KD?$LP?$AA@
CONST	SEGMENT
??_C@_0BC@ILNBPEIE@?F?d?F?$KO?$LI?$KG?5?$LJ?v?$LI?$LB?$LB?n?$LP?d?$KD?$LP?$AA@ DB 0c6H
	DB	0e4H, 0c6H, 0aeH, 0b8H, 0a6H, ' ', 0b9H, 0f6H, 0b8H, 0b1H, 0b1H
	DB	0eeH, 0bfH, 0e4H, 0a3H, 0bfH, 00H		; `string'
CONST	ENDS
;	COMDAT ??_C@_06EFALBHEL@R?$HMP?$HM?91?$AA@
CONST	SEGMENT
??_C@_06EFALBHEL@R?$HMP?$HM?91?$AA@ DB 'R|P|-1', 00H	; `string'
CONST	ENDS
;	COMDAT ??_C@_0BC@GNJPGDIA@?$HLpet?$DN?$CFd?0str?$DN?$FL?$CFs?$FN?$HN?$AA@
CONST	SEGMENT
??_C@_0BC@GNJPGDIA@?$HLpet?$DN?$CFd?0str?$DN?$FL?$CFs?$FN?$HN?$AA@ DB '{p'
	DB	'et=%d,str=[%s]}', 00H			; `string'
CONST	ENDS
;	COMDAT ??_C@_0CG@KBOLHIJH@?$LL?s?A?$KB?$LB?b?$LE?I?$MA?L?$LP?k?$LN?C?0?5?F?d?F?$KO?$LI?$KG?$LK?$KP?$LA?f?G?R?$LM?v?$LO?x@
CONST	SEGMENT
??_C@_0CG@KBOLHIJH@?$LL?s?A?$KB?$LB?b?$LE?I?$MA?L?$LP?k?$LN?C?0?5?F?d?F?$KO?$LI?$KG?$LK?$KP?$LA?f?G?R?$LM?v?$LO?x@ DB 0bbH
	DB	0f3H, 0c1H, 0a1H, 0b1H, 0e2H, 0b4H, 0c9H, 0c0H, 0ccH, 0bfH, 0ebH
	DB	0bdH, 0c3H, ', ', 0c6H, 0e4H, 0c6H, 0aeH, 0b8H, 0a6H, 0baH, 0afH
	DB	0b0H, 0e6H, 0c7H, 0d2H, 0bcH, 0f6H, 0beH, 0f8H, 0beH, 0eeH, 0bfH
	DB	0e4H, '!', 00H				; `string'
CONST	ENDS
;	COMDAT ??_C@_05GGHFNJMD@?$CFs?$CFs?$AA?$AA@
CONST	SEGMENT
??_C@_05GGHFNJMD@?$CFs?$CFs?$AA?$AA@ DB '%s%s', 00H, 00H ; `string'
CONST	ENDS
;	COMDAT ??_C@_0BB@PPGFHNAN@?$MA?g?$LH?a?G?U?$LM?$LK?5?$LM?$LK?$LA?x?$MA?$LC?$AA?$AA@
CONST	SEGMENT
??_C@_0BB@PPGFHNAN@?$MA?g?$LH?a?G?U?$LM?$LK?5?$LM?$LK?$LA?x?$MA?$LC?$AA?$AA@ DB 0c0H
	DB	0e7H, 0b7H, 0e1H, 0c7H, 0d5H, 0bcH, 0baH, ' ', 0bcH, 0baH, 0b0H
	DB	0f8H, 0c0H, 0b2H, 00H, 00H			; `string'
CONST	ENDS
;	COMDAT ??_C@_0CJ@JOENNLPN@?$MA?g?$LH?a?5?$LM?S?$LM?$LK?$MA?$LL?5?H?$KO?$MA?N?G?O?$LP?$KJ?$FL?$CFs?$FN?$LI?$KG?5?$LD?t?$MA?O?5@
CONST	SEGMENT
??_C@_0CJ@JOENNLPN@?$MA?g?$LH?a?5?$LM?S?$LM?$LK?$MA?$LL?5?H?$KO?$MA?N?G?O?$LP?$KJ?$FL?$CFs?$FN?$LI?$KG?5?$LD?t?$MA?O?5@ DB 0c0H
	DB	0e7H, 0b7H, 0e1H, ' ', 0bcH, 0d3H, 0bcH, 0baH, 0c0H, 0bbH, ' ', 0c8H
	DB	0aeH, 0c0H, 0ceH, 0c7H, 0cfH, 0bfH, 0a9H, '[%s]', 0b8H, 0a6H, ' '
	DB	0b3H, 0f4H, 0c0H, 0cfH, ' ', 0bcH, 0f6H, ' ', 0c0H, 0d6H, 0c0H
	DB	0bdH, 00H, 00H				; `string'
CONST	ENDS
;	COMDAT ??_C@_0CH@BAIOACBP@?$FL?$CFs?$FN?$MA?g?$LH?a?5?$LM?S?$LM?$LK?$MA?$LL?5?H?$KO?$MA?N?G?T?5?5?5?5?5?5?5?5?5?$CF@
CONST	SEGMENT
??_C@_0CH@BAIOACBP@?$FL?$CFs?$FN?$MA?g?$LH?a?5?$LM?S?$LM?$LK?$MA?$LL?5?H?$KO?$MA?N?G?T?5?5?5?5?5?5?5?5?5?$CF@ DB '['
	DB	'%s]', 0c0H, 0e7H, 0b7H, 0e1H, ' ', 0bcH, 0d3H, 0bcH, 0baH, 0c0H
	DB	0bbH, ' ', 0c8H, 0aeH, 0c0H, 0ceH, 0c7H, 0d4H, '         %d %%'
	DB	' ', 00H, 00H				; `string'
CONST	ENDS
;	COMDAT ??_C@_0BC@HALJJKGM@?$MA?g?$LH?a?5?G?U?$LM?$LK?5?$LM?$LK?$LA?x?$MA?$LC?$AA?$AA@
CONST	SEGMENT
??_C@_0BC@HALJJKGM@?$MA?g?$LH?a?5?G?U?$LM?$LK?5?$LM?$LK?$LA?x?$MA?$LC?$AA?$AA@ DB 0c0H
	DB	0e7H, 0b7H, 0e1H, ' ', 0c7H, 0d5H, 0bcH, 0baH, ' ', 0bcH, 0baH
	DB	0b0H, 0f8H, 0c0H, 0b2H, 00H, 00H		; `string'
CONST	ENDS
;	COMDAT ??_C@_0EG@CAIJDNGD@?$DP?i?M?$FL?$CFs?$FN?$MA?g?$LH?a?$MA?G?5?$LM?S?$LM?$LK?$MA?$LL?5?$LA?$KI?A?$KE?1?H?$KO?$MA?N?G?O@
CONST	SEGMENT
??_C@_0EG@CAIJDNGD@?$DP?i?M?$FL?$CFs?$FN?$MA?g?$LH?a?$MA?G?5?$LM?S?$LM?$LK?$MA?$LL?5?$LA?$KI?A?$KE?1?H?$KO?$MA?N?G?O@ DB '?'
	DB	0e9H, 0cdH, '[%s]', 0c0H, 0e7H, 0b7H, 0e1H, 0c0H, 0c7H, ' ', 0bcH
	DB	0d3H, 0bcH, 0baH, 0c0H, 0bbH, ' ', 0b0H, 0a8H, 0c1H, 0a4H, '/', 0c8H
	DB	0aeH, 0c0H, 0ceH, 0c7H, 0cfH, 0bfH, 0a9H, ' ', 0c0H, 0e7H, 0b7H
	DB	0e1H, ' ', 0c7H, 0d5H, 0bcH, 0baH, 0c0H, 0c7H, ' ', 0bcH, 0baH
	DB	0b0H, 0f8H, 0c0H, 0b2H, 0c0H, 0bbH, ' ', 0b3H, 0f4H, 0c0H, 0cfH
	DB	' ', 0bcH, 0f6H, ' ', 0c0H, 0d6H, 0c0H, 0bdH, 00H, 00H ; `string'
CONST	ENDS
;	COMDAT ??_C@_0CF@IJGAMOEE@?$FL?$CFs?$FN?$MA?g?$LH?a?5?$LM?S?$LM?$LK?$MA?$LL?5?H?$KO?$MA?N?G?T?5?5?5?5?5?5?5?$CFd?5@
CONST	SEGMENT
??_C@_0CF@IJGAMOEE@?$FL?$CFs?$FN?$MA?g?$LH?a?5?$LM?S?$LM?$LK?$MA?$LL?5?H?$KO?$MA?N?G?T?5?5?5?5?5?5?5?$CFd?5@ DB '['
	DB	'%s]', 0c0H, 0e7H, 0b7H, 0e1H, ' ', 0bcH, 0d3H, 0bcH, 0baH, 0c0H
	DB	0bbH, ' ', 0c8H, 0aeH, 0c0H, 0ceH, 0c7H, 0d4H, '       %d %% ', 00H
	DB	00H						; `string'
CONST	ENDS
;	COMDAT ??_C@_07JANMBDEO@?$CF4d?5?$CF4d?$AA@
CONST	SEGMENT
??_C@_07JANMBDEO@?$CF4d?5?$CF4d?$AA@ DB '%4d %4d', 00H	; `string'
CONST	ENDS
;	COMDAT ??_C@_09COLCMPMP@?$CF4d?5?5?5?$CF4d?$AA@
CONST	SEGMENT
??_C@_09COLCMPMP@?$CF4d?5?5?5?$CF4d?$AA@ DB '%4d   %4d', 00H ; `string'
CONST	ENDS
;	COMDAT ??_C@_03GLKEJMAA@?$CF4d?$AA@
CONST	SEGMENT
??_C@_03GLKEJMAA@?$CF4d?$AA@ DB '%4d', 00H		; `string'
CONST	ENDS
;	COMDAT ??_C@_05PNFJLFEO@?$CI?$CF2d?$CJ?$AA@
CONST	SEGMENT
??_C@_05PNFJLFEO@?$CI?$CF2d?$CJ?$AA@ DB '(%2d)', 00H	; `string'
CONST	ENDS
;	COMDAT ??_C@_03HIFDAEPP@?$CF?9d?$AA@
CONST	SEGMENT
??_C@_03HIFDAEPP@?$CF?9d?$AA@ DB '%-d', 00H		; `string'
CONST	ENDS
;	COMDAT ??_C@_05LCKIIOJE@?$CFd?1?$CFd?$AA@
CONST	SEGMENT
??_C@_05LCKIIOJE@?$CFd?1?$CFd?$AA@ DB '%d/%d', 00H	; `string'
CONST	ENDS
;	COMDAT ??_C@_0M@OMIJDHCN@?$CFd?1?$CFd?$CI?$CFd?$CF?$CF?$CJ?$AA@
CONST	SEGMENT
??_C@_0M@OMIJDHCN@?$CFd?1?$CFd?$CI?$CFd?$CF?$CF?$CJ?$AA@ DB '%d/%d(%d%%)', 00H ; `string'
CONST	ENDS
;	COMDAT ??_C@_03BJDGPCOK@Max?$AA@
CONST	SEGMENT
??_C@_03BJDGPCOK@Max?$AA@ DB 'Max', 00H			; `string'
CONST	ENDS
;	COMDAT ??_C@_04EFBICKBP@?$CF?93d?$AA@
CONST	SEGMENT
??_C@_04EFBICKBP@?$CF?93d?$AA@ DB '%-3d', 00H		; `string'
CONST	ENDS
;	COMDAT ??_C@_03GCLOGFGE@?$CF8d?$AA@
CONST	SEGMENT
??_C@_03GCLOGFGE@?$CF8d?$AA@ DB '%8d', 00H		; `string'
CONST	ENDS
;	COMDAT ??_C@_0BC@KGJCGBCP@?5?5?5?5?C?k?5?5?5?5?$LM?R?5?5?5?5?5?$AA@
CONST	SEGMENT
??_C@_0BC@KGJCGBCP@?5?5?5?5?C?k?5?5?5?5?$LM?R?5?5?5?5?5?$AA@ DB '    ', 0c3H
	DB	0ebH, '    ', 0bcH, 0d2H, '     ', 00H	; `string'
CONST	ENDS
;	COMDAT ??_C@_0BC@BCIJAKBP@?5?5?5?5?H?$KO?5?5?5?5?$MA?N?5?5?5?5?5?$AA@
CONST	SEGMENT
??_C@_0BC@BCIJAKBP@?5?5?5?5?H?$KO?5?5?5?5?$MA?N?5?5?5?5?5?$AA@ DB '    ', 0c8H
	DB	0aeH, '    ', 0c0H, 0ceH, '     ', 00H	; `string'
CONST	ENDS
;	COMDAT ??_C@_0BF@NJPDCGDE@?5?5?5?5?5?5?5?A?$LO?5?5?$LH?a?5?5?5?5?5?5?5?$AA@
CONST	SEGMENT
??_C@_0BF@NJPDCGDE@?5?5?5?5?5?5?5?A?$LO?5?5?$LH?a?5?5?5?5?5?5?5?$AA@ DB ' '
	DB	'      ', 0c1H, 0beH, '  ', 0b7H, 0e1H, '       ', 00H ; `string'
CONST	ENDS
;	COMDAT ??_C@_0BG@KDDPLIEA@?5?$KB?$NP?5?D?$LP?5?$LM?$KN?5?$LM?$LD?5?A?$KE?5?$KB?$NP?5?5?5?$AA@
CONST	SEGMENT
??_C@_0BG@KDDPLIEA@?5?$KB?$NP?5?D?$LP?5?$LM?$KN?5?$LM?$LD?5?A?$KE?5?$KB?$NP?5?5?5?$AA@ DB ' '
	DB	0a1H, 0dfH, ' ', 0c4H, 0bfH, ' ', 0bcH, 0adH, ' ', 0bcH, 0b3H, ' '
	DB	0c1H, 0a4H, ' ', 0a1H, 0dfH, '   ', 00H	; `string'
CONST	ENDS
;	COMDAT ??_C@_08LMHKBLHA@?$LL?$MA?$LE?Y?$LB?M?$KB?$KD?$AA@
CONST	SEGMENT
??_C@_08LMHKBLHA@?$LL?$MA?$LE?Y?$LB?M?$KB?$KD?$AA@ DB 0bbH, 0c0H, 0b4H, 0d9H
	DB	0b1H, 0cdH, 0a1H, 0a3H, 00H			; `string'
CONST	ENDS
;	COMDAT ??_C@_08LPIKKIN@?$LA?x?$LH?f?$LO?K?$KB?$KD?$AA@
CONST	SEGMENT
??_C@_08LPIKKIN@?$LA?x?$LH?f?$LO?K?$KB?$KD?$AA@ DB 0b0H, 0f8H, 0b7H, 0e6H
	DB	0beH, 0cbH, 0a1H, 0a3H, 00H			; `string'
CONST	ENDS
;	COMDAT ??_C@_0BG@GDIAHGPK@?5?5?5?5?5?5?5?$LA?$KI?5?5?5?5?$LM?R?5?5?5?5?5?5?$AA@
CONST	SEGMENT
??_C@_0BG@GDIAHGPK@?5?5?5?5?5?5?5?$LA?$KI?5?5?5?5?$LM?R?5?5?5?5?5?5?$AA@ DB ' '
	DB	'      ', 0b0H, 0a8H, '    ', 0bcH, 0d2H, '      ', 00H ; `string'
CONST	ENDS
;	COMDAT ??_C@_0BG@IIDNKJBP@?5?5?5?5?5?5?5?A?u?5?5?5?5?$LA?$KB?5?5?5?5?5?5?$AA@
CONST	SEGMENT
??_C@_0BG@IIDNKJBP@?5?5?5?5?5?5?5?A?u?5?5?5?5?$LA?$KB?5?5?5?5?5?5?$AA@ DB ' '
	DB	'      ', 0c1H, 0f5H, '    ', 0b0H, 0a1H, '      ', 00H ; `string'
CONST	ENDS
;	COMDAT ??_C@_0BK@FEMCCNKI@?5?5?5?$KB?$NP?5?5?E?$NL?F?w?A?$LG?$MA?$PN?5?5?$CF?$CL3d?5?5?$KB?$NP?$AA@
CONST	SEGMENT
??_C@_0BK@FEMCCNKI@?5?5?5?$KB?$NP?5?5?E?$NL?F?w?A?$LG?$MA?$PN?5?5?$CF?$CL3d?5?5?$KB?$NP?$AA@ DB ' '
	DB	'  ', 0a1H, 0dfH, '  ', 0c5H, 0dbH, 0c6H, 0f7H, 0c1H, 0b6H, 0c0H
	DB	0fdH, '  %+3d  ', 0a1H, 0dfH, 00H		; `string'
CONST	ENDS
;	COMDAT ??_C@_0BL@BJPCPCNM@?$KB?$NP?5?5?5?$KB?$NP?5?5?E?$NL?F?w?A?$LG?$MA?$PN?5?50?5?5?$KB?$NP?$KB?$NP?$AA@
CONST	SEGMENT
??_C@_0BL@BJPCPCNM@?$KB?$NP?5?5?5?$KB?$NP?5?5?E?$NL?F?w?A?$LG?$MA?$PN?5?50?5?5?$KB?$NP?$KB?$NP?$AA@ DB 0a1H
	DB	0dfH, '   ', 0a1H, 0dfH, '  ', 0c5H, 0dbH, 0c6H, 0f7H, 0c1H, 0b6H
	DB	0c0H, 0fdH, '  0  ', 0a1H, 0dfH, 0a1H, 0dfH, 00H ; `string'
CONST	ENDS
;	COMDAT ??_C@_0BI@MMNCCENM@?5?5?5?$KB?$NP?5?5?$LJ?h?$LA?f?$MA?$LN?$LO?G?5?$CF3d?5?5?$KB?$NP?$AA@
CONST	SEGMENT
??_C@_0BI@MMNCCENM@?5?5?5?$KB?$NP?5?5?$LJ?h?$LA?f?$MA?$LN?$LO?G?5?$CF3d?5?5?$KB?$NP?$AA@ DB ' '
	DB	'  ', 0a1H, 0dfH, '  ', 0b9H, 0e8H, 0b0H, 0e6H, 0c0H, 0bdH, 0beH
	DB	0c7H, ' %3d  ', 0a1H, 0dfH, 00H		; `string'
CONST	ENDS
;	COMDAT ??_C@_0BJ@GJAFKJDC@?5?5?5?5?5?5?$LF?$LJ?5?$LO?F?5?$LA?$KB?5?$LB?b?5?5?5?5?5?5?5?$AA@
CONST	SEGMENT
??_C@_0BJ@GJAFKJDC@?5?5?5?5?5?5?$LF?$LJ?5?$LO?F?5?$LA?$KB?5?$LB?b?5?5?5?5?5?5?5?$AA@ DB ' '
	DB	'     ', 0b5H, 0b9H, ' ', 0beH, 0c6H, ' ', 0b0H, 0a1H, ' ', 0b1H
	DB	0e2H, '       ', 00H				; `string'
CONST	ENDS
;	COMDAT ??_C@_0BI@FONPGALA@?5?5?5?5?5?5?5?$LA?$KI?5?5?5?5?5?$LM?R?5?5?5?5?5?5?5?$AA@
CONST	SEGMENT
??_C@_0BI@FONPGALA@?5?5?5?5?5?5?5?$LA?$KI?5?5?5?5?5?$LM?R?5?5?5?5?5?5?5?$AA@ DB ' '
	DB	'      ', 0b0H, 0a8H, '     ', 0bcH, 0d2H, '       ', 00H ; `string'
CONST	ENDS
;	COMDAT ??_C@_0BI@KPMMPACD@?5?5?5?5?5?5?5?A?u?5?5?5?5?5?$LA?$KB?5?5?5?5?5?5?5?$AA@
CONST	SEGMENT
??_C@_0BI@KPMMPACD@?5?5?5?5?5?5?5?A?u?5?5?5?5?5?$LA?$KB?5?5?5?5?5?5?5?$AA@ DB ' '
	DB	'      ', 0c1H, 0f5H, '     ', 0b0H, 0a1H, '       ', 00H ; `string'
CONST	ENDS
;	COMDAT ??_C@_0BL@OHLFALHA@?5?5?$KB?$NP?5?5?G?v?5?$MA?g?5?$MA?$LN?5?$LH?$KO?$CF3d?5?5?$KB?$NP?5?5?$AA@
CONST	SEGMENT
??_C@_0BL@OHLFALHA@?5?5?$KB?$NP?5?5?G?v?5?$MA?g?5?$MA?$LN?5?$LH?$KO?$CF3d?5?5?$KB?$NP?5?5?$AA@ DB ' '
	DB	' ', 0a1H, 0dfH, '  ', 0c7H, 0f6H, ' ', 0c0H, 0e7H, ' ', 0c0H, 0bdH
	DB	' ', 0b7H, 0aeH, '%3d  ', 0a1H, 0dfH, '  ', 00H ; `string'
CONST	ENDS
;	COMDAT ??_C@_0BI@DIAFOMFL@?5?5?5?5?5?5?$LF?$LJ?5?$LO?F?5?$LA?$KB?5?$LB?b?5?5?5?5?5?5?$AA@
CONST	SEGMENT
??_C@_0BI@DIAFOMFL@?5?5?5?5?5?5?$LF?$LJ?5?$LO?F?5?$LA?$KB?5?$LB?b?5?5?5?5?5?5?$AA@ DB ' '
	DB	'     ', 0b5H, 0b9H, ' ', 0beH, 0c6H, ' ', 0b0H, 0a1H, ' ', 0b1H
	DB	0e2H, '      ', 00H				; `string'
CONST	ENDS
;	COMDAT ??_C@_0BH@MIIPLPNG@?5?5?5?5?5?5?5?$LA?$KI?5?5?5?5?$LM?R?5?5?5?5?5?5?5?$AA@
CONST	SEGMENT
??_C@_0BH@MIIPLPNG@?5?5?5?5?5?5?5?$LA?$KI?5?5?5?5?$LM?R?5?5?5?5?5?5?5?$AA@ DB ' '
	DB	'      ', 0b0H, 0a8H, '    ', 0bcH, 0d2H, '       ', 00H ; `string'
CONST	ENDS
;	COMDAT ??_C@_0BH@BIAEBEPO@?5?5?5?5?5?5?5?A?u?5?5?5?5?$LA?$KB?5?5?5?5?5?5?5?$AA@
CONST	SEGMENT
??_C@_0BH@BIAEBEPO@?5?5?5?5?5?5?5?A?u?5?5?5?5?$LA?$KB?5?5?5?5?5?5?5?$AA@ DB ' '
	DB	'      ', 0c1H, 0f5H, '    ', 0b0H, 0a1H, '       ', 00H ; `string'
CONST	ENDS
;	COMDAT ??_C@_0BL@KBNPCBGD@?5?5?5?5?5?$KB?$NP?5?C?$KE?5?F?C?5?$LJ?$PM?5?$MA?$KH?5?$CF3d?5?$KB?$NP?$AA@
CONST	SEGMENT
??_C@_0BL@KBNPCBGD@?5?5?5?5?5?$KB?$NP?5?C?$KE?5?F?C?5?$LJ?$PM?5?$MA?$KH?5?$CF3d?5?$KB?$NP?$AA@ DB ' '
	DB	'    ', 0a1H, 0dfH, ' ', 0c3H, 0a4H, ' ', 0c6H, 0c3H, ' ', 0b9H
	DB	0fcH, ' ', 0c0H, 0a7H, ' %3d ', 0a1H, 0dfH, 00H ; `string'
CONST	ENDS
;	COMDAT ??_C@_0BI@FHOMOHBA@?5?5?5?5?5?5?5?5?$LJ?$KO?$MA?Z?5?$LM?$LD?A?$KE?5?5?5?5?5?5?$AA@
CONST	SEGMENT
??_C@_0BI@FHOMOHBA@?5?5?5?5?5?5?5?5?$LJ?$KO?$MA?Z?5?$LM?$LD?A?$KE?5?5?5?5?5?5?$AA@ DB ' '
	DB	'       ', 0b9H, 0aeH, 0c0H, 0daH, ' ', 0bcH, 0b3H, 0c1H, 0a4H
	DB	'      ', 00H				; `string'
CONST	ENDS
;	COMDAT ??_C@_0BH@BHEDFJKF@?5?5?5?5?5?$LL?v?$LL?s?5?$LK?$KP?$LA?f?$CI?$CF?92d?$CJ?5?5?$AA@
CONST	SEGMENT
??_C@_0BH@BHEDFJKF@?5?5?5?5?5?$LL?v?$LL?s?5?$LK?$KP?$LA?f?$CI?$CF?92d?$CJ?5?5?$AA@ DB ' '
	DB	'    ', 0bbH, 0f6H, 0bbH, 0f3H, ' ', 0baH, 0afH, 0b0H, 0e6H, '('
	DB	'%-2d)  ', 00H				; `string'
CONST	ENDS
;	COMDAT ??_C@_0BH@LLOMOPMG@?5?5?5?5?5?5?5?5?$LA?$KI?5?5?5?5?$LM?R?5?5?5?5?5?5?$AA@
CONST	SEGMENT
??_C@_0BH@LLOMOPMG@?5?5?5?5?5?5?5?5?$LA?$KI?5?5?5?5?$LM?R?5?5?5?5?5?5?$AA@ DB ' '
	DB	'       ', 0b0H, 0a8H, '    ', 0bcH, 0d2H, '      ', 00H ; `string'
CONST	ENDS
;	COMDAT ??_C@_0BH@FAFBDACD@?5?5?5?5?5?5?5?5?A?u?5?5?5?5?$LA?$KB?5?5?5?5?5?5?$AA@
CONST	SEGMENT
??_C@_0BH@FAFBDACD@?5?5?5?5?5?5?5?5?A?u?5?5?5?5?$LA?$KB?5?5?5?5?5?5?$AA@ DB ' '
	DB	'       ', 0c1H, 0f5H, '    ', 0b0H, 0a1H, '      ', 00H ; `string'
CONST	ENDS
;	COMDAT ??_C@_0BM@ENKFHEAF@?5?5?5?5?5?$KB?$NP?5?C?$KE?F?C?5?G?$KF?$LN?C?5?$CF3d?5?A?Y?5?$KB?$NP?$AA@
CONST	SEGMENT
??_C@_0BM@ENKFHEAF@?5?5?5?5?5?$KB?$NP?5?C?$KE?F?C?5?G?$KF?$LN?C?5?$CF3d?5?A?Y?5?$KB?$NP?$AA@ DB ' '
	DB	'    ', 0a1H, 0dfH, ' ', 0c3H, 0a4H, 0c6H, 0c3H, ' ', 0c7H, 0a5H
	DB	0bdH, 0c3H, ' %3d ', 0c1H, 0d9H, ' ', 0a1H, 0dfH, 00H ; `string'
CONST	ENDS
;	COMDAT ??_C@_0BD@BOIANLGK@?$KB?$KB?$KB?$KB?5?C?k?5?5?5?5?5?$LM?R?$KB?$KB?$KB?$KB?$AA@
CONST	SEGMENT
??_C@_0BD@BOIANLGK@?$KB?$KB?$KB?$KB?5?C?k?5?5?5?5?5?$LM?R?$KB?$KB?$KB?$KB?$AA@ DB 0a1H
	DB	0a1H, 0a1H, 0a1H, ' ', 0c3H, 0ebH, '     ', 0bcH, 0d2H, 0a1H, 0a1H
	DB	0a1H, 0a1H, 00H				; `string'
CONST	ENDS
;	COMDAT ??_C@_0BD@KOMGLKIA@?$KB?$KB?$KB?$KB?5?H?$KO?5?5?5?5?5?$MA?N?$KB?$KB?$KB?$KB?$AA@
CONST	SEGMENT
??_C@_0BD@KOMGLKIA@?$KB?$KB?$KB?$KB?5?H?$KO?5?5?5?5?5?$MA?N?$KB?$KB?$KB?$KB?$AA@ DB 0a1H
	DB	0a1H, 0a1H, 0a1H, ' ', 0c8H, 0aeH, '     ', 0c0H, 0ceH, 0a1H, 0a1H
	DB	0a1H, 0a1H, 00H				; `string'
CONST	ENDS
;	COMDAT ??_C@_0N@DEIGFB@?$KB?$KB?$LE?$NN?$KB?$KB?$KB?$KB?$LB?b?$KB?$KB?$AA@
CONST	SEGMENT
??_C@_0N@DEIGFB@?$KB?$KB?$LE?$NN?$KB?$KB?$KB?$KB?$LB?b?$KB?$KB?$AA@ DB 0a1H
	DB	0a1H, 0b4H, 0ddH, 0a1H, 0a1H, 0a1H, 0a1H, 0b1H, 0e2H, 0a1H, 0a1H
	DB	00H						; `string'
CONST	ENDS
;	COMDAT ??_C@_0N@IEPBEKHA@?5?5?$LF?p?$LN?$LK?D?Z?$LF?e?5?5?$AA@
CONST	SEGMENT
??_C@_0N@IEPBEKHA@?5?5?$LF?p?$LN?$LK?D?Z?$LF?e?5?5?$AA@ DB '  ', 0b5H, 0f0H
	DB	0bdH, 0baH, 0c4H, 0daH, 0b5H, 0e5H, '  ', 00H ; `string'
CONST	ENDS
;	COMDAT ??_C@_0N@EGOAFECP@?5?5?H?$KI?F?d?$MA?L?A?v?5?5?$AA@
CONST	SEGMENT
??_C@_0N@EGOAFECP@?5?5?H?$KI?F?d?$MA?L?A?v?5?5?$AA@ DB '  ', 0c8H, 0a8H, 0c6H
	DB	0e4H, 0c0H, 0ccH, 0c1H, 0f6H, '  ', 00H	; `string'
CONST	ENDS
;	COMDAT ??_C@_0N@KCFDOFBO@?5?5?$MA?Z?$LF?$LP?D?Q?$LB?b?5?5?$AA@
CONST	SEGMENT
??_C@_0N@KCFDOFBO@?5?5?$MA?Z?$LF?$LP?D?Q?$LB?b?5?5?$AA@ DB '  ', 0c0H, 0daH
	DB	0b5H, 0bfH, 0c4H, 0d1H, 0b1H, 0e2H, '  ', 00H ; `string'
CONST	ENDS
;	COMDAT ??_C@_0N@HKIKJEIK@?5?5?$MA?Z?$LF?$LP?$LC?t?$LB?b?5?5?$AA@
CONST	SEGMENT
??_C@_0N@HKIKJEIK@?5?5?$MA?Z?$LF?$LP?$LC?t?$LB?b?5?5?$AA@ DB '  ', 0c0H, 0daH
	DB	0b5H, 0bfH, 0b2H, 0f4H, 0b1H, 0e2H, '  ', 00H ; `string'
CONST	ENDS
;	COMDAT ??_C@_0N@LOOFPCH@?5?5?$LL?s?E?B?D?Q?$LB?b?5?5?$AA@
CONST	SEGMENT
??_C@_0N@LOOFPCH@?5?5?$LL?s?E?B?D?Q?$LB?b?5?5?$AA@ DB '  ', 0bbH, 0f3H, 0c5H
	DB	0c2H, 0c4H, 0d1H, 0b1H, 0e2H, '  ', 00H	; `string'
CONST	ENDS
;	COMDAT ??_C@_0N@NDDHCOLD@?5?5?$LL?s?E?B?$LC?t?$LB?b?5?5?$AA@
CONST	SEGMENT
??_C@_0N@NDDHCOLD@?5?5?$LL?s?E?B?$LC?t?$LB?b?5?5?$AA@ DB '  ', 0bbH, 0f3H
	DB	0c5H, 0c2H, 0b2H, 0f4H, 0b1H, 0e2H, '  ', 00H ; `string'
CONST	ENDS
;	COMDAT ??_C@_0N@LEFBJPHL@?5?5?$MA?$LN?$LO?G?$LC?t?$LB?b?5?5?$AA@
CONST	SEGMENT
??_C@_0N@LEFBJPHL@?5?5?$MA?$LN?$LO?G?$LC?t?$LB?b?5?5?$AA@ DB '  ', 0c0H, 0bdH
	DB	0beH, 0c7H, 0b2H, 0f4H, 0b1H, 0e2H, '  ', 00H ; `string'
CONST	ENDS
;	COMDAT ??_C@_0N@GMIIOOOP@?5?5?$MA?$LN?$LO?G?D?Q?$LB?b?5?5?$AA@
CONST	SEGMENT
??_C@_0N@GMIIOOOP@?5?5?$MA?$LN?$LO?G?D?Q?$LB?b?5?5?$AA@ DB '  ', 0c0H, 0bdH
	DB	0beH, 0c7H, 0c4H, 0d1H, 0b1H, 0e2H, '  ', 00H ; `string'
CONST	ENDS
;	COMDAT ??_C@_0BB@BGIMMNDO@?5?5?5?5?$LA?$LD?$MA?N?A?$KE?$LK?$LI?5?5?5?5?$AA@
CONST	SEGMENT
??_C@_0BB@BGIMMNDO@?5?5?5?5?$LA?$LD?$MA?N?A?$KE?$LK?$LI?5?5?5?5?$AA@ DB ' '
	DB	'   ', 0b0H, 0b3H, 0c0H, 0ceH, 0c1H, 0a4H, 0baH, 0b8H, '    ', 00H ; `string'
CONST	ENDS
;	COMDAT ??_C@_0BB@JKKBBNLA@?5?5?5?5?F?$KO?$LH?$LJ?$MA?L?$LD?J?5?5?5?5?$AA@
CONST	SEGMENT
??_C@_0BB@JKKBBNLA@?5?5?5?5?F?$KO?$LH?$LJ?$MA?L?$LD?J?5?5?5?5?$AA@ DB '  '
	DB	'  ', 0c6H, 0aeH, 0b7H, 0b9H, 0c0H, 0ccH, 0b3H, 0caH, '    ', 00H ; `string'
CONST	ENDS
;	COMDAT ??_C@_0BB@MMGLKEFK@?5?5?5?5?$MA?$KH?D?$KB?$MA?L?$LF?$LP?5?5?5?5?$AA@
CONST	SEGMENT
??_C@_0BB@MMGLKEFK@?5?5?5?5?$MA?$KH?D?$KB?$MA?L?$LF?$LP?5?5?5?5?$AA@ DB ' '
	DB	'   ', 0c0H, 0a7H, 0c4H, 0a1H, 0c0H, 0ccH, 0b5H, 0bfH, '    ', 00H ; `string'
CONST	ENDS
;	COMDAT ??_C@_0BB@BBDDKJIA@?5?5?5?5?$KD?A?$KD?I?$LM?$LD?A?$KE?5?5?5?5?$AA@
CONST	SEGMENT
??_C@_0BB@BBDDKJIA@?5?5?5?5?$KD?A?$KD?I?$LM?$LD?A?$KE?5?5?5?5?$AA@ DB '  '
	DB	'  ', 0a3H, 0c1H, 0a3H, 0c9H, 0bcH, 0b3H, 0c1H, 0a4H, '    ', 00H ; `string'
CONST	ENDS
;	COMDAT ??_C@_0BB@EKMKLDGL@?5?5?5?5?D?$LP?$LM?$KN?$LM?$LD?A?$KE?5?5?5?5?$AA@
CONST	SEGMENT
??_C@_0BB@EKMKLDGL@?5?5?5?5?D?$LP?$LM?$KN?$LM?$LD?A?$KE?5?5?5?5?$AA@ DB ' '
	DB	'   ', 0c4H, 0bfH, 0bcH, 0adH, 0bcH, 0b3H, 0c1H, 0a4H, '    ', 00H ; `string'
CONST	ENDS
;	COMDAT ??_C@_0BB@IBKCAFGG@?5?5?5?5?H?$LP?$LA?z?$LM?$LD?A?$KE?5?5?5?5?$AA@
CONST	SEGMENT
??_C@_0BB@IBKCAFGG@?5?5?5?5?H?$LP?$LA?z?$LM?$LD?A?$KE?5?5?5?5?$AA@ DB '  '
	DB	'  ', 0c8H, 0bfH, 0b0H, 0faH, 0bcH, 0b3H, 0c1H, 0a4H, '    ', 00H ; `string'
CONST	ENDS
;	COMDAT ??_C@_0BB@EOMINEH@?5?5?5?5?$LJ?h?$LA?f?$MA?$LN?$LO?G?5?5?5?5?$AA@
CONST	SEGMENT
??_C@_0BB@EOMINEH@?5?5?5?5?$LJ?h?$LA?f?$MA?$LN?$LO?G?5?5?5?5?$AA@ DB '   '
	DB	' ', 0b9H, 0e8H, 0b0H, 0e6H, 0c0H, 0bdH, 0beH, 0c7H, '    ', 00H ; `string'
CONST	ENDS
;	COMDAT ??_C@_0BB@JJJAMCHF@?5?5?5?5?C?$KE?F?C?$LM?$LD?A?$KE?5?5?5?5?$AA@
CONST	SEGMENT
??_C@_0BB@JJJAMCHF@?5?5?5?5?C?$KE?F?C?$LM?$LD?A?$KE?5?5?5?5?$AA@ DB '    '
	DB	0c3H, 0a4H, 0c6H, 0c3H, 0bcH, 0b3H, 0c1H, 0a4H, '    ', 00H ; `string'
CONST	ENDS
;	COMDAT ??_C@_0BB@KCHLCCBP@?5?5?5?5?$LH?N?$LB?W?$LO?F?$LP?t?5?5?5?5?$AA@
CONST	SEGMENT
??_C@_0BB@KCHLCCBP@?5?5?5?5?$LH?N?$LB?W?$LO?F?$LP?t?5?5?5?5?$AA@ DB '    '
	DB	0b7H, 0ceH, 0b1H, 0d7H, 0beH, 0c6H, 0bfH, 0f4H, '    ', 00H ; `string'
CONST	ENDS
;	COMDAT ??_C@_0BB@MEGGIBAG@?5?5?5?5?$LI?$LG?$MA?$LL?$LA?$KB?$LB?b?5?5?5?5?$AA@
CONST	SEGMENT
??_C@_0BB@MEGGIBAG@?5?5?5?5?$LI?$LG?$MA?$LL?$LA?$KB?$LB?b?5?5?5?5?$AA@ DB ' '
	DB	'   ', 0b8H, 0b6H, 0c0H, 0bbH, 0b0H, 0a1H, 0b1H, 0e2H, '    ', 00H ; `string'
CONST	ENDS
;	COMDAT ??_C@_0CB@HCIPIBLA@?$MA?Z?$LF?$LP?$MA?$PM?E?u?5?$LI?p?$LF?e?$LA?$KB?5?A?$LO?$LH?a?5?$LF?G?$LO?z?$LN?$MA?$LE?O?$LE?Y?4@
CONST	SEGMENT
??_C@_0CB@HCIPIBLA@?$MA?Z?$LF?$LP?$MA?$PM?E?u?5?$LI?p?$LF?e?$LA?$KB?5?A?$LO?$LH?a?5?$LF?G?$LO?z?$LN?$MA?$LE?O?$LE?Y?4@ DB 0c0H
	DB	0daH, 0b5H, 0bfH, 0c0H, 0fcH, 0c5H, 0f5H, ' ', 0b8H, 0f0H, 0b5H
	DB	0e5H, 0b0H, 0a1H, ' ', 0c1H, 0beH, 0b7H, 0e1H, ' ', 0b5H, 0c7H
	DB	0beH, 0faH, 0bdH, 0c0H, 0b4H, 0cfH, 0b4H, 0d9H, '.', 00H ; `string'
CONST	ENDS
;	COMDAT ??_C@_0CC@LEBCBFKD@?$MA?Z?$LF?$LP?$MA?$PM?E?u?5?$LI?p?$LF?e?$LA?$KB?5?H?$LA?$LM?$LK?H?$KN?5?$LF?G?$LO?z?$LN?$MA?$LE?O?$LE@
CONST	SEGMENT
??_C@_0CC@LEBCBFKD@?$MA?Z?$LF?$LP?$MA?$PM?E?u?5?$LI?p?$LF?e?$LA?$KB?5?H?$LA?$LM?$LK?H?$KN?5?$LF?G?$LO?z?$LN?$MA?$LE?O?$LE@ DB 0c0H
	DB	0daH, 0b5H, 0bfH, 0c0H, 0fcH, 0c5H, 0f5H, ' ', 0b8H, 0f0H, 0b5H
	DB	0e5H, 0b0H, 0a1H, ' ', 0c8H, 0b0H, 0bcH, 0baH, 0c8H, 0adH, ' ', 0b5H
	DB	0c7H, 0beH, 0faH, 0bdH, 0c0H, 0b4H, 0cfH, 0b4H, 0d9H, 00H ; `string'
CONST	ENDS
;	COMDAT ??_C@_0P@FDCJGPKI@?$LL?s?E?B?G?$KF?$LN?C?$LC?t?$LB?b?$KD?$KB?$AA@
CONST	SEGMENT
??_C@_0P@FDCJGPKI@?$LL?s?E?B?G?$KF?$LN?C?$LC?t?$LB?b?$KD?$KB?$AA@ DB 0bbH
	DB	0f3H, 0c5H, 0c2H, 0c7H, 0a5H, 0bdH, 0c3H, 0b2H, 0f4H, 0b1H, 0e2H
	DB	0a3H, 0a1H, 00H				; `string'
CONST	ENDS
;	COMDAT ??_C@_0P@BJHPFHFH@?$LL?s?E?B?G?$KF?$LN?C?$LP?$KN?$LB?b?$KD?$KB?$AA@
CONST	SEGMENT
??_C@_0P@BJHPFHFH@?$LL?s?E?B?G?$KF?$LN?C?$LP?$KN?$LB?b?$KD?$KB?$AA@ DB 0bbH
	DB	0f3H, 0c5H, 0c2H, 0c7H, 0a5H, 0bdH, 0c3H, 0bfH, 0adH, 0b1H, 0e2H
	DB	0a3H, 0a1H, 00H				; `string'
CONST	ENDS
;	COMDAT ??_C@_0P@DNLMMAKH@?$LK?$PM?$LI?$KF?$LA?H?$LB?b?$LC?t?$LB?b?$KD?$KB?$AA@
CONST	SEGMENT
??_C@_0P@DNLMMAKH@?$LK?$PM?$LI?$KF?$LA?H?$LB?b?$LC?t?$LB?b?$KD?$KB?$AA@ DB 0baH
	DB	0fcH, 0b8H, 0a5H, 0b0H, 0c8H, 0b1H, 0e2H, 0b2H, 0f4H, 0b1H, 0e2H
	DB	0a3H, 0a1H, 00H				; `string'
CONST	ENDS
;	COMDAT ??_C@_0P@OFGFLBDD@?$LK?$PM?$LI?$KF?$LA?H?$LB?b?D?Q?$LB?b?$KD?$KB?$AA@
CONST	SEGMENT
??_C@_0P@OFGFLBDD@?$LK?$PM?$LI?$KF?$LA?H?$LB?b?D?Q?$LB?b?$KD?$KB?$AA@ DB 0baH
	DB	0fcH, 0b8H, 0a5H, 0b0H, 0c8H, 0b1H, 0e2H, 0c4H, 0d1H, 0b1H, 0e2H
	DB	0a3H, 0a1H, 00H				; `string'
CONST	ENDS
;	COMDAT ??_C@_0BB@LGLPBADP@BGM?$MA?L?5?$LC?$KI?A?$LD?$LO?n?$LP?d?$KD?$KB?$AA@
CONST	SEGMENT
??_C@_0BB@LGLPBADP@BGM?$MA?L?5?$LC?$KI?A?$LD?$LO?n?$LP?d?$KD?$KB?$AA@ DB 'B'
	DB	'GM', 0c0H, 0ccH, ' ', 0b2H, 0a8H, 0c1H, 0b3H, 0beH, 0eeH, 0bfH
	DB	0e4H, 0a3H, 0a1H, 00H			; `string'
CONST	ENDS
;	COMDAT ??_C@_0BB@KKHECGNN@BGM?$MA?L?5?D?Q?A?$LD?$LO?n?$LP?d?$KD?$KB?$AA@
CONST	SEGMENT
??_C@_0BB@KKHECGNN@BGM?$MA?L?5?D?Q?A?$LD?$LO?n?$LP?d?$KD?$KB?$AA@ DB 'BGM'
	DB	0c0H, 0ccH, ' ', 0c4H, 0d1H, 0c1H, 0b3H, 0beH, 0eeH, 0bfH, 0e4H
	DB	0a3H, 0a1H, 00H				; `string'
CONST	ENDS
;	COMDAT ??_C@_0L@PCOGCFAC@?$LB?b?A?$LI?$LJ?v?F?$LA?$KD?$KB?$AA@
CONST	SEGMENT
??_C@_0L@PCOGCFAC@?$LB?b?A?$LI?$LJ?v?F?$LA?$KD?$KB?$AA@ DB 0b1H, 0e2H, 0c1H
	DB	0b8H, 0b9H, 0f6H, 0c6H, 0b0H, 0a3H, 0a1H, 00H ; `string'
CONST	ENDS
;	COMDAT ??_C@_0N@MLOJNNJN@?$LE?$NM?$LM?x?H?$KN?$LJ?v?F?$LA?$KD?$KB?$AA@
CONST	SEGMENT
??_C@_0N@MLOJNNJN@?$LE?$NM?$LM?x?H?$KN?$LJ?v?F?$LA?$KD?$KB?$AA@ DB 0b4H, 0dcH
	DB	0bcH, 0f8H, 0c8H, 0adH, 0b9H, 0f6H, 0c6H, 0b0H, 0a3H, 0a1H, 00H ; `string'
CONST	ENDS
;	COMDAT ??_C@_0CE@JEKFMNHA@?$LL?s?A?$KB?$MA?L?$LP?k?$LN?C?0?5?$LO?F?$MA?L?E?$NL?$LL?g?$LP?k?$MA?$LL?G?R?$LM?v?$LO?x?$LO?n@
CONST	SEGMENT
??_C@_0CE@JEKFMNHA@?$LL?s?A?$KB?$MA?L?$LP?k?$LN?C?0?5?$LO?F?$MA?L?E?$NL?$LL?g?$LP?k?$MA?$LL?G?R?$LM?v?$LO?x?$LO?n@ DB 0bbH
	DB	0f3H, 0c1H, 0a1H, 0c0H, 0ccH, 0bfH, 0ebH, 0bdH, 0c3H, ', ', 0beH
	DB	0c6H, 0c0H, 0ccH, 0c5H, 0dbH, 0bbH, 0e7H, 0bfH, 0ebH, 0c0H, 0bbH
	DB	0c7H, 0d2H, 0bcH, 0f6H, 0beH, 0f8H, 0beH, 0eeH, 0bfH, 0e4H, '!'
	DB	00H						; `string'
CONST	ENDS
;	COMDAT ??_C@_04JHHBNKBI@?A?$LO?$LH?a?$AA@
CONST	SEGMENT
??_C@_04JHHBNKBI@?A?$LO?$LH?a?$AA@ DB 0c1H, 0beH, 0b7H, 0e1H, 00H ; `string'
CONST	ENDS
;	COMDAT ??_C@_04CJANLAJP@?D?Q?$LE?Y?$AA@
CONST	SEGMENT
??_C@_04CJANLAJP@?D?Q?$LE?Y?$AA@ DB 0c4H, 0d1H, 0b4H, 0d9H, 00H ; `string'
CONST	ENDS
;	COMDAT ??_C@_0CM@PNEJOHOF@?A?$KC?$LM?S?$MA?L?$LC?w?$LB?d?5?D?$LD?$LI?$KP?E?M?5?$MA?g?A?$KC?$LM?S?5?$LN?C?5?D?$LD?$LI?$KP@
CONST	SEGMENT
??_C@_0CM@PNEJOHOF@?A?$KC?$LM?S?$MA?L?$LC?w?$LB?d?5?D?$LD?$LI?$KP?E?M?5?$MA?g?A?$KC?$LM?S?5?$LN?C?5?D?$LD?$LI?$KP@ DB 0c1H
	DB	0a2H, 0bcH, 0d3H, 0c0H, 0ccH, 0b2H, 0f7H, 0b1H, 0e4H, ' ', 0c4H
	DB	0b3H, 0b8H, 0afH, 0c5H, 0cdH, ' ', 0c0H, 0e7H, 0c1H, 0a2H, 0bcH
	DB	0d3H, ' ', 0bdH, 0c3H, ' ', 0c4H, 0b3H, 0b8H, 0afH, 0c5H, 0cdH
	DB	0c0H, 0c7H, ' ', 0b9H, 0e6H, 0c7H, 0e2H, 0a1H, 0a3H, 00H ; `string'
CONST	ENDS
;	COMDAT ??_C@_0DC@OHNNJONP@?$MA?Z?$LF?$LP?5?$LP?$NM?D?$KH?$MA?$LK?5?F?D?F?$LM?$LP?x?5?$LI?p?$LF?e?$LP?$KB?$LM?$KN?$LI?$LI?5?H?$LA@
CONST	SEGMENT
??_C@_0DC@OHNNJONP@?$MA?Z?$LF?$LP?5?$LP?$NM?D?$KH?$MA?$LK?5?F?D?F?$LM?$LP?x?5?$LI?p?$LF?e?$LP?$KB?$LM?$KN?$LI?$LI?5?H?$LA@ DB 0c0H
	DB	0daH, 0b5H, 0bfH, ' ', 0bfH, 0dcH, 0c4H, 0a7H, 0c0H, 0baH, ' ', 0c6H
	DB	0c4H, 0c6H, 0bcH, 0bfH, 0f8H, ' ', 0b8H, 0f0H, 0b5H, 0e5H, 0bfH
	DB	0a1H, 0bcH, 0adH, 0b8H, 0b8H, ' ', 0c8H, 0b0H, 0bcH, 0baH, 0c8H
	DB	0adH, ' ', 0c7H, 0d2H, ' ', 0bcH, 0f6H, ' ', 0c0H, 0d6H, 0c0H, 0bdH
	DB	0a3H, 0a1H, 00H				; `string'
CONST	ENDS
;	COMDAT ??_C@_0CE@ODNPGMLF@?F?D?F?$LM?$LP?x?$LI?$LI?5?$MA?L?5?$LB?b?$LE?I?$MA?$LL?5?$LM?$LD?A?$KE?G?R?5?$LM?v?5?$MA?V?$MA@
CONST	SEGMENT
??_C@_0CE@ODNPGMLF@?F?D?F?$LM?$LP?x?$LI?$LI?5?$MA?L?5?$LB?b?$LE?I?$MA?$LL?5?$LM?$LD?A?$KE?G?R?5?$LM?v?5?$MA?V?$MA@ DB 0c6H
	DB	0c4H, 0c6H, 0bcH, 0bfH, 0f8H, 0b8H, 0b8H, ' ', 0c0H, 0ccH, ' ', 0b1H
	DB	0e2H, 0b4H, 0c9H, 0c0H, 0bbH, ' ', 0bcH, 0b3H, 0c1H, 0a4H, 0c7H
	DB	0d2H, ' ', 0bcH, 0f6H, ' ', 0c0H, 0d6H, 0c0H, 0bdH, 0a1H, 0a3H
	DB	00H						; `string'
CONST	ENDS
;	COMDAT ??_C@_0DF@NNHIIENC@?$MA?$PL?5?C?b?G?v?5?$LI?p?$LF?e?$LE?B?5?F?D?F?$LM?$MA?e?$LA?z?5?$LM?V?$LH?N?5?G?C?$LH@
CONST	SEGMENT
??_C@_0DF@NNHIIENC@?$MA?$PL?5?C?b?G?v?5?$LI?p?$LF?e?$LE?B?5?F?D?F?$LM?$MA?e?$LA?z?5?$LM?V?$LH?N?5?G?C?$LH@ DB 0c0H
	DB	0fbH, ' ', 0c3H, 0e2H, 0c7H, 0f6H, ' ', 0b8H, 0f0H, 0b5H, 0e5H
	DB	0b4H, 0c2H, ' ', 0c6H, 0c4H, 0c6H, 0bcH, 0c0H, 0e5H, 0b0H, 0faH
	DB	' ', 0bcH, 0d6H, 0b7H, 0ceH, ' ', 0c7H, 0c3H, 0b7H, 0b9H, 0c0H
	DB	0ccH, 0beH, 0eeH, 0b8H, 0b8H, ' ', 0c4H, 0d3H, ' ', 0bcH, 0f6H
	DB	' ', 0c0H, 0d6H, 0c0H, 0bdH, 0a3H, 0a1H, 00H	; `string'
CONST	ENDS
;	COMDAT ??_C@_0DE@CELNCKDE@?F?D?F?$LM?$MA?e?$LA?z?5?$LM?V?$LH?N?5?G?C?$LH?$LJ?$MA?L?$LO?n?$LE?B?5?$MA?L?5?$LB?b?$LE?I@
CONST	SEGMENT
??_C@_0DE@CELNCKDE@?F?D?F?$LM?$MA?e?$LA?z?5?$LM?V?$LH?N?5?G?C?$LH?$LJ?$MA?L?$LO?n?$LE?B?5?$MA?L?5?$LB?b?$LE?I@ DB 0c6H
	DB	0c4H, 0c6H, 0bcH, 0c0H, 0e5H, 0b0H, 0faH, ' ', 0bcH, 0d6H, 0b7H
	DB	0ceH, ' ', 0c7H, 0c3H, 0b7H, 0b9H, 0c0H, 0ccH, 0beH, 0eeH, 0b4H
	DB	0c2H, ' ', 0c0H, 0ccH, ' ', 0b1H, 0e2H, 0b4H, 0c9H, 0c0H, 0bbH
	DB	' ', 0bcH, 0b3H, 0c1H, 0a4H, 0c7H, 0d2H, ' ', 0bcH, 0f6H, ' ', 0c0H
	DB	0d6H, 0c0H, 0bdH, 0a1H, 0a3H, 00H		; `string'
CONST	ENDS
;	COMDAT ??_C@_0DK@HOGDKPIF@?$LE?k?5?A?v?$LP?$KK?5?$LG?s?$MA?N?$LA?z?5?$LP?$KK?G?R?$MA?$LL?5?$LI?U?$MA?z?5?$LM?$LB?E?C?G@
CONST	SEGMENT
??_C@_0DK@HOGDKPIF@?$LE?k?5?A?v?$LP?$KK?5?$LG?s?$MA?N?$LA?z?5?$LP?$KK?G?R?$MA?$LL?5?$LI?U?$MA?z?5?$LM?$LB?E?C?G@ DB 0b4H
	DB	0ebH, ' ', 0c1H, 0f6H, 0bfH, 0aaH, ' ', 0b6H, 0f3H, 0c0H, 0ceH
	DB	0b0H, 0faH, ' ', 0bfH, 0aaH, 0c7H, 0d2H, 0c0H, 0bbH, ' ', 0b8H
	DB	0d5H, 0c0H, 0faH, ' ', 0bcH, 0b1H, 0c5H, 0c3H, 0c7H, 0cfH, ' ', 0c8H
	DB	0c4H, ' ', 0c1H, 0b6H, 0c0H, 0dbH, 0c7H, 0d2H, ' ', 0bcH, 0f6H
	DB	' ', 0c0H, 0d6H, 0bdH, 0c0H, 0b4H, 0cfH, 0b4H, 0d9H, 0a3H, 0a1H
	DB	00H						; `string'
CONST	ENDS
;	COMDAT ??_C@_0GF@BOMDPEP@?$LH?N?$LB?W?$MA?N?5?H?D?5F9?E?$LA?$LI?$KG?5?$LE?$KN?$LH?$KP?$LM?$KN?5?D?Q?$LA?m?5?$LC?x?$LM@
CONST	SEGMENT
??_C@_0GF@BOMDPEP@?$LH?N?$LB?W?$MA?N?5?H?D?5F9?E?$LA?$LI?$KG?5?$LE?$KN?$LH?$KP?$LM?$KN?5?D?Q?$LA?m?5?$LC?x?$LM@ DB 0b7H
	DB	0ceH, 0b1H, 0d7H, 0c0H, 0ceH, ' ', 0c8H, 0c4H, ' F9', 0c5H, 0b0H
	DB	0b8H, 0a6H, ' ', 0b4H, 0adH, 0b7H, 0afH, 0bcH, 0adH, ' ', 0c4H
	DB	0d1H, 0b0H, 0edH, ' ', 0b2H, 0f8H, 0bcH, 0f6H, ' ', 0c0H, 0d6H
	DB	0c0H, 0b8H, 0b8H, 0e7H, ', ', 0c6H, 0c4H, 0c6H, 0bcH, 0bfH, 0f8H
	DB	' ', 0b8H, 0f0H, 0b5H, 0e5H, 0b7H, 0ceH, ' ', 0b7H, 0ceH, 0b1H
	DB	0d7H, 0c0H, 0ceH, 0c8H, 0c4H, ' ', 0c5H, 0abH, 0bcH, 0d2H, 0b8H
	DB	0aeH, ' ', 0b4H, 0ebH, 0c8H, 0adH, ' ', 0b1H, 0e2H, 0b4H, 0c9H
	DB	0c0H, 0bbH, ' ', 0b2H, 0f8H, ' ', 0bcH, 0f6H, ' ', 0c0H, 0d6H, 0bdH
	DB	0c0H, 0b4H, 0cfH, 0b4H, 0d9H, 0a1H, 0a3H, 00H ; `string'
CONST	ENDS
;	COMDAT ??_C@_0BF@CKOBPJKJ@?$LH?N?$LB?W?$LP?B?5?D?$LD?$LI?$KP?E?M?5?$LM?$LD?A?$KE?$KB?$KD?$AA@
CONST	SEGMENT
??_C@_0BF@CKOBPJKJ@?$LH?N?$LB?W?$LP?B?5?D?$LD?$LI?$KP?E?M?5?$LM?$LD?A?$KE?$KB?$KD?$AA@ DB 0b7H
	DB	0ceH, 0b1H, 0d7H, 0bfH, 0c2H, ' ', 0c4H, 0b3H, 0b8H, 0afH, 0c5H
	DB	0cdH, ' ', 0bcH, 0b3H, 0c1H, 0a4H, 0a1H, 0a3H, 00H ; `string'
CONST	ENDS
;	COMDAT ??_C@_0MB@GBACAPFD@?F?$MA?$MA?e?1?F?D?F?$LM?$MA?e?$KD?$LK?$MA?Z?$LF?$LP?$MA?$LI?$LH?N?5?$MA?$PL?$MA?$LL?$LI?$LI?$LD?$KK?$LA?T@
CONST	SEGMENT
??_C@_0MB@GBACAPFD@?F?$MA?$MA?e?1?F?D?F?$LM?$MA?e?$KD?$LK?$MA?Z?$LF?$LP?$MA?$LI?$LH?N?5?$MA?$PL?$MA?$LL?$LI?$LI?$LD?$KK?$LA?T@ DB 0c6H
	DB	0c0H, 0c0H, 0e5H, '/', 0c6H, 0c4H, 0c6H, 0bcH, 0c0H, 0e5H, 0a3H
	DB	0baH, 0c0H, 0daH, 0b5H, 0bfH, 0c0H, 0b8H, 0b7H, 0ceH, ' ', 0c0H
	DB	0fbH, 0c0H, 0bbH, 0b8H, 0b8H, 0b3H, 0aaH, 0b0H, 0d4H, 0b2H, 0fbH
	DB	' ', 0bcH, 0f6H, 0c1H, 0a4H, 0c7H, 0d2H, 0bcH, 0f6H, 0c0H, 0d6H
	DB	0c0H, 0bdH, '. ', 0c6H, 0c0H, 0bfH, 0f8H, '/', 0c6H, 0c4H, 0c6H
	DB	0bcH, 0bfH, 0f8H, 0a3H, 0baH, 0bcH, 0b1H, 0c0H, 0fcH, ' ', 0b9H
	DB	0d7H, ' ', 0c0H, 0daH, 0b5H, 0bfH, ' ', 0c6H, 0c0H, ' ', 0b1H, 0b8H
	DB	0bcH, 0baH, 0b0H, 0a1H, 0b4H, 0c9H, ' ', 0bcH, 0d6H, 0b7H, 0ceH
	DB	0a3H, 0baH, 0c0H, 0daH, 0b5H, 0bfH, 0c0H, 0b8H, 0b7H, 0ceH, ' '
	DB	0c0H, 0fbH, 0c0H, 0bbH, ' ', 0b8H, 0b8H, 0b3H, 0aaH, 0b5H, 0b5H
	DB	0b7H, 0cfH, ' ', 0bcH, 0b3H, 0c1H, 0a4H, 0b0H, 0a1H, 0b4H, 0c9H
	DB	' ps', 0a3H, 0baH, 'AI ', 0b8H, 0f0H, 0b5H, 0e5H, 0b4H, 0c2H, ' '
	DB	0c4H, 0b3H, 0b8H, 0afH, 0c5H, 0cdH, 0b8H, 0a6H, ' ', 0b5H, 0e5H
	DB	0b7H, 0d3H, 0c7H, 0cfH, 0b0H, 0edH, ' ', 0b4H, 0d9H, 0bdH, 0c3H
	DB	' ', 0b7H, 0ceH, 0b1H, 0d7H, 0c0H, 0ceH, 0c7H, 0cfH, 0b8H, 0e9H
	DB	' ', 0c0H, 0daH, 0b5H, 0bfH, 0c0H, 0b8H, 0b7H, 0ceH, ' ', 0c4H
	DB	0d1H, 0c1H, 0fdH, 0b4H, 0cfH, 0b4H, 0d9H, 0a1H, 0a3H, 00H ; `string'
CONST	ENDS
;	COMDAT ??_C@_0CJ@GIHIAMIF@?$LG?s?$MA?N?$MA?$LL?5?$LM?$LD?A?$KE?G?O?$LA?m?0?5?$LE?k?5?A?v?$LP?$KK?$MA?$LL?5?$LM?$LD?A?$KE?G@
CONST	SEGMENT
??_C@_0CJ@GIHIAMIF@?$LG?s?$MA?N?$MA?$LL?5?$LM?$LD?A?$KE?G?O?$LA?m?0?5?$LE?k?5?A?v?$LP?$KK?$MA?$LL?5?$LM?$LD?A?$KE?G@ DB 0b6H
	DB	0f3H, 0c0H, 0ceH, 0c0H, 0bbH, ' ', 0bcH, 0b3H, 0c1H, 0a4H, 0c7H
	DB	0cfH, 0b0H, 0edH, ', ', 0b4H, 0ebH, ' ', 0c1H, 0f6H, 0bfH, 0aaH
	DB	0c0H, 0bbH, ' ', 0bcH, 0b3H, 0c1H, 0a4H, 0c7H, 0d8H, 0beH, 0dfH
	DB	' ', 0c7H, 0d4H, 0a1H, 0a3H, 00H		; `string'
CONST	ENDS
;	COMDAT ??_C@_0P@LOIJIIEJ@?$LE?k?5?A?v?$LP?$KK?5?$LM?$LD?A?$KE?$KB?$KD?$AA@
CONST	SEGMENT
??_C@_0P@LOIJIIEJ@?$LE?k?5?A?v?$LP?$KK?5?$LM?$LD?A?$KE?$KB?$KD?$AA@ DB 0b4H
	DB	0ebH, ' ', 0c1H, 0f6H, 0bfH, 0aaH, ' ', 0bcH, 0b3H, 0c1H, 0a4H
	DB	0a1H, 0a3H, 00H				; `string'
CONST	ENDS
;	COMDAT ??_C@_03IKGEINEE@?$CFs?5?$AA@
CONST	SEGMENT
??_C@_03IKGEINEE@?$CFs?5?$AA@ DB '%s ', 00H		; `string'
CONST	ENDS
;	COMDAT ??_C@_08GINKOJP@?$CF?$CKc?$CFs?$CF?$CKc?$AA@
CONST	SEGMENT
??_C@_08GINKOJP@?$CF?$CKc?$CFs?$CF?$CKc?$AA@ DB '%*c%s%*c', 00H ; `string'
CONST	ENDS
;	COMDAT ??_C@_0BB@OAGCMOJL@data?2album_4?4dat?$AA@
CONST	SEGMENT
??_C@_0BB@OAGCMOJL@data?2album_4?4dat?$AA@ DB 'data\album_4.dat', 00H ; `string'
CONST	ENDS
;	COMDAT ??_C@_0BB@CLDOBNDO@data?2album_5?4dat?$AA@
CONST	SEGMENT
??_C@_0BB@CLDOBNDO@data?2album_5?4dat?$AA@ DB 'data\album_5.dat', 00H ; `string'
CONST	ENDS
;	COMDAT ??_C@_0BB@KNKKGPJA@data?2album_6?4dat?$AA@
CONST	SEGMENT
??_C@_0BB@KNKKGPJA@data?2album_6?4dat?$AA@ DB 'data\album_6.dat', 00H ; `string'
CONST	ENDS
;	COMDAT ??_C@_0BB@GGPGLMDF@data?2album_7?4dat?$AA@
CONST	SEGMENT
??_C@_0BB@GGPGLMDF@data?2album_7?4dat?$AA@ DB 'data\album_7.dat', 00H ; `string'
CONST	ENDS
;	COMDAT ??_C@_0BB@JHKAAOOA@data?2album_8?4dat?$AA@
CONST	SEGMENT
??_C@_0BB@JHKAAOOA@data?2album_8?4dat?$AA@ DB 'data\album_8.dat', 00H ; `string'
CONST	ENDS
;	COMDAT ??_C@_0BB@FMPMNNEF@data?2album_9?4dat?$AA@
CONST	SEGMENT
??_C@_0BB@FMPMNNEF@data?2album_9?4dat?$AA@ DB 'data\album_9.dat', 00H ; `string'
CONST	ENDS
;	COMDAT ??_C@_0BC@DFDCKIPG@data?2album_12?4dat?$AA@
CONST	SEGMENT
??_C@_0BC@DFDCKIPG@data?2album_12?4dat?$AA@ DB 'data\album_12.dat', 00H ; `string'
CONST	ENDS
;	COMDAT ??_C@_0BC@POGOHLFD@data?2album_13?4dat?$AA@
CONST	SEGMENT
??_C@_0BC@POGOHLFD@data?2album_13?4dat?$AA@ DB 'data\album_13.dat', 00H ; `string'
CONST	ENDS
;	COMDAT ??_C@_0BC@ODGLELOL@data?2album_14?4dat?$AA@
CONST	SEGMENT
??_C@_0BC@ODGLELOL@data?2album_14?4dat?$AA@ DB 'data\album_14.dat', 00H ; `string'
CONST	ENDS
;	COMDAT ??_C@_0BC@CIDHJIEO@data?2album_15?4dat?$AA@
CONST	SEGMENT
??_C@_0BC@CIDHJIEO@data?2album_15?4dat?$AA@ DB 'data\album_15.dat', 00H ; `string'
CONST	ENDS
;	COMDAT ??_C@_0BC@KOKDOKOA@data?2album_16?4dat?$AA@
CONST	SEGMENT
??_C@_0BC@KOKDOKOA@data?2album_16?4dat?$AA@ DB 'data\album_16.dat', 00H ; `string'
CONST	ENDS
;	COMDAT ??_C@_0BC@GFPPDJEF@data?2album_17?4dat?$AA@
CONST	SEGMENT
??_C@_0BC@GFPPDJEF@data?2album_17?4dat?$AA@ DB 'data\album_17.dat', 00H ; `string'
CONST	ENDS
;	COMDAT ??_C@_0BC@JEKJILJA@data?2album_18?4dat?$AA@
CONST	SEGMENT
??_C@_0BC@JEKJILJA@data?2album_18?4dat?$AA@ DB 'data\album_18.dat', 00H ; `string'
CONST	ENDS
;	COMDAT ??_C@_0BC@FPPFFIDF@data?2album_19?4dat?$AA@
CONST	SEGMENT
??_C@_0BC@FPPFFIDF@data?2album_19?4dat?$AA@ DB 'data\album_19.dat', 00H ; `string'
CONST	ENDS
;	COMDAT ??_C@_0BC@EJBCBDGA@data?2album_20?4dat?$AA@
CONST	SEGMENT
??_C@_0BC@EJBCBDGA@data?2album_20?4dat?$AA@ DB 'data\album_20.dat', 00H ; `string'
CONST	ENDS
;	COMDAT ??_C@_0BC@ICEOMAMF@data?2album_21?4dat?$AA@
CONST	SEGMENT
??_C@_0BC@ICEOMAMF@data?2album_21?4dat?$AA@ DB 'data\album_21.dat', 00H ; `string'
CONST	ENDS
;	COMDAT ??_C@_0BC@ENKLCGL@data?2album_22?4dat?$AA@
CONST	SEGMENT
??_C@_0BC@ENKLCGL@data?2album_22?4dat?$AA@ DB 'data\album_22.dat', 00H ; `string'
CONST	ENDS
;	COMDAT ??_C@_0BC@MPIGGBMO@data?2album_23?4dat?$AA@
CONST	SEGMENT
??_C@_0BC@MPIGGBMO@data?2album_23?4dat?$AA@ DB 'data\album_23.dat', 00H ; `string'
CONST	ENDS
;	COMDAT ??_C@_0BC@NCIDFBHG@data?2album_24?4dat?$AA@
CONST	SEGMENT
??_C@_0BC@NCIDFBHG@data?2album_24?4dat?$AA@ DB 'data\album_24.dat', 00H ; `string'
CONST	ENDS
;	COMDAT ??_C@_0BC@BJNPICND@data?2album_25?4dat?$AA@
CONST	SEGMENT
??_C@_0BC@BJNPICND@data?2album_25?4dat?$AA@ DB 'data\album_25.dat', 00H ; `string'
CONST	ENDS
;	COMDAT ??_C@_0BC@JPELPAHN@data?2album_26?4dat?$AA@
CONST	SEGMENT
??_C@_0BC@JPELPAHN@data?2album_26?4dat?$AA@ DB 'data\album_26.dat', 00H ; `string'
CONST	ENDS
;	COMDAT ??_C@_0BC@FEBHCDNI@data?2album_27?4dat?$AA@
CONST	SEGMENT
??_C@_0BC@FEBHCDNI@data?2album_27?4dat?$AA@ DB 'data\album_27.dat', 00H ; `string'
CONST	ENDS
;	COMDAT ??_C@_0BC@KFEBJBAN@data?2album_28?4dat?$AA@
CONST	SEGMENT
??_C@_0BC@KFEBJBAN@data?2album_28?4dat?$AA@ DB 'data\album_28.dat', 00H ; `string'
CONST	ENDS
;	COMDAT ??_C@_0BC@GOBNECKI@data?2album_29?4dat?$AA@
CONST	SEGMENT
??_C@_0BC@GOBNECKI@data?2album_29?4dat?$AA@ DB 'data\album_29.dat', 00H ; `string'
CONST	ENDS
;	COMDAT ??_C@_0BC@OPGFBINE@data?2album_30?4dat?$AA@
CONST	SEGMENT
??_C@_0BC@OPGFBINE@data?2album_30?4dat?$AA@ DB 'data\album_30.dat', 00H ; `string'
CONST	ENDS
;	COMDAT ??_C@_0BC@CEDJMLHB@data?2album_31?4dat?$AA@
CONST	SEGMENT
??_C@_0BC@CEDJMLHB@data?2album_31?4dat?$AA@ DB 'data\album_31.dat', 00H ; `string'
CONST	ENDS
;	COMDAT ??_C@_0BC@KCKNLJNP@data?2album_32?4dat?$AA@
CONST	SEGMENT
??_C@_0BC@KCKNLJNP@data?2album_32?4dat?$AA@ DB 'data\album_32.dat', 00H ; `string'
CONST	ENDS
;	COMDAT ??_C@_0BC@GJPBGKHK@data?2album_33?4dat?$AA@
CONST	SEGMENT
??_C@_0BC@GJPBGKHK@data?2album_33?4dat?$AA@ DB 'data\album_33.dat', 00H ; `string'
CONST	ENDS
;	COMDAT ??_C@_0BC@HEPEFKMC@data?2album_34?4dat?$AA@
CONST	SEGMENT
??_C@_0BC@HEPEFKMC@data?2album_34?4dat?$AA@ DB 'data\album_34.dat', 00H ; `string'
CONST	ENDS
;	COMDAT ??_C@_0BC@LPKIIJGH@data?2album_35?4dat?$AA@
CONST	SEGMENT
??_C@_0BC@LPKIIJGH@data?2album_35?4dat?$AA@ DB 'data\album_35.dat', 00H ; `string'
CONST	ENDS
;	COMDAT ??_C@_0BC@DJDMPLMJ@data?2album_36?4dat?$AA@
CONST	SEGMENT
??_C@_0BC@DJDMPLMJ@data?2album_36?4dat?$AA@ DB 'data\album_36.dat', 00H ; `string'
CONST	ENDS
;	COMDAT ??_C@_0BC@PCGACIGM@data?2album_37?4dat?$AA@
CONST	SEGMENT
??_C@_0BC@PCGACIGM@data?2album_37?4dat?$AA@ DB 'data\album_37.dat', 00H ; `string'
CONST	ENDS
;	COMDAT ??_C@_0BC@DDGJKLJ@data?2album_38?4dat?$AA@
CONST	SEGMENT
??_C@_0BC@DDGJKLJ@data?2album_38?4dat?$AA@ DB 'data\album_38.dat', 00H ; `string'
CONST	ENDS
;	COMDAT ??_C@_0BC@MIGKEJBM@data?2album_39?4dat?$AA@
CONST	SEGMENT
??_C@_0BC@MIGKEJBM@data?2album_39?4dat?$AA@ DB 'data\album_39.dat', 00H ; `string'
CONST	ENDS
;	COMDAT ??_C@_0BC@CKMCCGFK@data?2album_40?4dat?$AA@
CONST	SEGMENT
??_C@_0BC@CKMCCGFK@data?2album_40?4dat?$AA@ DB 'data\album_40.dat', 00H ; `string'
CONST	ENDS
;	COMDAT ??_C@_0BC@OBJOPFPP@data?2album_41?4dat?$AA@
CONST	SEGMENT
??_C@_0BC@OBJOPFPP@data?2album_41?4dat?$AA@ DB 'data\album_41.dat', 00H ; `string'
CONST	ENDS
;	COMDAT ??_C@_0BC@GHAKIHFB@data?2album_42?4dat?$AA@
CONST	SEGMENT
??_C@_0BC@GHAKIHFB@data?2album_42?4dat?$AA@ DB 'data\album_42.dat', 00H ; `string'
CONST	ENDS
;	COMDAT ??_C@_0BC@KMFGFEPE@data?2album_43?4dat?$AA@
CONST	SEGMENT
??_C@_0BC@KMFGFEPE@data?2album_43?4dat?$AA@ DB 'data\album_43.dat', 00H ; `string'
CONST	ENDS
;	COMDAT ??_C@_0BC@LBFDGEEM@data?2album_44?4dat?$AA@
CONST	SEGMENT
??_C@_0BC@LBFDGEEM@data?2album_44?4dat?$AA@ DB 'data\album_44.dat', 00H ; `string'
CONST	ENDS
;	COMDAT ??_C@_0BC@HKAPLHOJ@data?2album_45?4dat?$AA@
CONST	SEGMENT
??_C@_0BC@HKAPLHOJ@data?2album_45?4dat?$AA@ DB 'data\album_45.dat', 00H ; `string'
CONST	ENDS
;	COMDAT ??_C@_0BC@PMJLMFEH@data?2album_46?4dat?$AA@
CONST	SEGMENT
??_C@_0BC@PMJLMFEH@data?2album_46?4dat?$AA@ DB 'data\album_46.dat', 00H ; `string'
CONST	ENDS
;	COMDAT ??_C@_09BACHGGGK@f?$DLencor1c?$AA@
CONST	SEGMENT
??_C@_09BACHGGGK@f?$DLencor1c?$AA@ DB 'f;encor1c', 00H	; `string'
CONST	ENDS
;	COMDAT ??_C@_0P@JONHHOLF@data?2album?4dat?$AA@
CONST	SEGMENT
??_C@_0P@JONHHOLF@data?2album?4dat?$AA@ DB 'data\album.dat', 00H ; `string'
CONST	ENDS
;	COMDAT ??_C@_0BC@HIPKAJPN@data?2album_10?4dat?$AA@
CONST	SEGMENT
??_C@_0BC@HIPKAJPN@data?2album_10?4dat?$AA@ DB 'data\album_10.dat', 00H ; `string'
CONST	ENDS
;	COMDAT ??_C@_0BB@PNGHPOCD@data?2album_3?4dat?$AA@
CONST	SEGMENT
??_C@_0BB@PNGHPOCD@data?2album_3?4dat?$AA@ DB 'data\album_3.dat', 00H ; `string'
CONST	ENDS
;	COMDAT ??_C@_0BB@DGDLCNIG@data?2album_2?4dat?$AA@
CONST	SEGMENT
??_C@_0BB@DGDLCNIG@data?2album_2?4dat?$AA@ DB 'data\album_2.dat', 00H ; `string'
CONST	ENDS
;	COMDAT ??_C@_0CN@JHGNJKID@?$LO?Y?$LJ?$PM?5?$LF?$KF?$MA?L?E?M?$LI?$KG?5?$MA?z?$MA?e?G?O?$LE?B?$LF?$KF?5?$LN?G?F?P?G?O?$LP@
CONST	SEGMENT
??_C@_0CN@JHGNJKID@?$LO?Y?$LJ?$PM?5?$LF?$KF?$MA?L?E?M?$LI?$KG?5?$MA?z?$MA?e?G?O?$LE?B?$LF?$KF?5?$LN?G?F?P?G?O?$LP@ DB 0beH
	DB	0d9H, 0b9H, 0fcH, ' ', 0b5H, 0a5H, 0c0H, 0ccH, 0c5H, 0cdH, 0b8H
	DB	0a6H, ' ', 0c0H, 0faH, 0c0H, 0e5H, 0c7H, 0cfH, 0b4H, 0c2H, 0b5H
	DB	0a5H, ' ', 0bdH, 0c7H, 0c6H, 0d0H, 0c7H, 0cfH, 0bfH, 0b4H, 0bdH
	DB	0c0H, 0b4H, 0cfH, 0b4H, 0d9H, '.', 0a3H, 0a1H, 0a3H, 0b3H, 00H ; `string'
CONST	ENDS
;	COMDAT ??_C@_0CN@IOHGKLMC@?$LO?Y?$LJ?$PM?5?$LF?$KF?$MA?L?E?M?$LI?$KG?5?$MA?z?$MA?e?G?O?$LE?B?$LF?$KF?5?$LN?G?F?P?G?O?$LP@
CONST	SEGMENT
??_C@_0CN@IOHGKLMC@?$LO?Y?$LJ?$PM?5?$LF?$KF?$MA?L?E?M?$LI?$KG?5?$MA?z?$MA?e?G?O?$LE?B?$LF?$KF?5?$LN?G?F?P?G?O?$LP@ DB 0beH
	DB	0d9H, 0b9H, 0fcH, ' ', 0b5H, 0a5H, 0c0H, 0ccH, 0c5H, 0cdH, 0b8H
	DB	0a6H, ' ', 0c0H, 0faH, 0c0H, 0e5H, 0c7H, 0cfH, 0b4H, 0c2H, 0b5H
	DB	0a5H, ' ', 0bdH, 0c7H, 0c6H, 0d0H, 0c7H, 0cfH, 0bfH, 0b4H, 0bdH
	DB	0c0H, 0b4H, 0cfH, 0b4H, 0d9H, '.', 0a3H, 0a1H, 0a3H, 0b2H, 00H ; `string'
CONST	ENDS
;	COMDAT ??_C@_0CN@KFFLPIAB@?$LO?Y?$LJ?$PM?5?$LF?$KF?$MA?L?E?M?$LI?$KG?5?$MA?z?$MA?e?G?O?$LE?B?$LF?$KF?5?$LN?G?F?P?G?O?$LP@
CONST	SEGMENT
??_C@_0CN@KFFLPIAB@?$LO?Y?$LJ?$PM?5?$LF?$KF?$MA?L?E?M?$LI?$KG?5?$MA?z?$MA?e?G?O?$LE?B?$LF?$KF?5?$LN?G?F?P?G?O?$LP@ DB 0beH
	DB	0d9H, 0b9H, 0fcH, ' ', 0b5H, 0a5H, 0c0H, 0ccH, 0c5H, 0cdH, 0b8H
	DB	0a6H, ' ', 0c0H, 0faH, 0c0H, 0e5H, 0c7H, 0cfH, 0b4H, 0c2H, 0b5H
	DB	0a5H, ' ', 0bdH, 0c7H, 0c6H, 0d0H, 0c7H, 0cfH, 0bfH, 0b4H, 0bdH
	DB	0c0H, 0b4H, 0cfH, 0b4H, 0d9H, '.', 0a3H, 0a1H, 0a3H, 0b1H, 00H ; `string'
CONST	ENDS
;	COMDAT ??_C@_04IJNKKJEO@?H?$KO?$MA?N?$AA@
CONST	SEGMENT
??_C@_04IJNKKJEO@?H?$KO?$MA?N?$AA@ DB 0c8H, 0aeH, 0c0H, 0ceH, 00H ; `string'
CONST	ENDS
;	COMDAT ??_C@_0BC@DHMHBGOC@data?2album_47?4dat?$AA@
CONST	SEGMENT
??_C@_0BC@DHMHBGOC@data?2album_47?4dat?$AA@ DB 'data\album_47.dat', 00H ; `string'
CONST	ENDS
;	COMDAT ??_C@_0BB@GDFOCPAE@data?2chatreg?4dat?$AA@
CONST	SEGMENT
??_C@_0BB@GDFOCPAE@data?2chatreg?4dat?$AA@ DB 'data\chatreg.dat', 00H ; `string'
CONST	ENDS
;	COMDAT ??_C@_02GMLFBBN@wb?$AA@
CONST	SEGMENT
??_C@_02GMLFBBN@wb?$AA@ DB 'wb', 00H			; `string'
CONST	ENDS
;	COMDAT ??_C@_02JDPG@rb?$AA@
CONST	SEGMENT
??_C@_02JDPG@rb?$AA@ DB 'rb', 00H			; `string'
CONST	ENDS
;	COMDAT ??_C@_0O@GFOIPMHB@data?2mail?4dat?$AA@
CONST	SEGMENT
??_C@_0O@GFOIPMHB@data?2mail?4dat?$AA@ DB 'data\mail.dat', 00H ; `string'
CONST	ENDS
;	COMDAT ??_C@_03HMFOOINA@r?$CLb?$AA@
CONST	SEGMENT
??_C@_03HMFOOINA@r?$CLb?$AA@ DB 'r+b', 00H		; `string'
CONST	ENDS
;	COMDAT ??_C@_03IFADCKOJ@?$CFd?$HM?$AA@
CONST	SEGMENT
??_C@_03IFADCKOJ@?$CFd?$HM?$AA@ DB '%d|', 00H		; `string'
CONST	ENDS
;	COMDAT ??_C@_0BC@OAKKNIEC@T?$HM?$CFs?$HM?$CFs?$HMC?$HMconfirm?$AA@
CONST	SEGMENT
??_C@_0BC@OAKKNIEC@T?$HM?$CFs?$HM?$CFs?$HMC?$HMconfirm?$AA@ DB 'T|%s|%s|C'
	DB	'|confirm', 00H				; `string'
CONST	ENDS
;	COMDAT ??_C@_08KJEDNCKC@?$CFs?$CFs?$CFs?$CFs?$AA@
CONST	SEGMENT
??_C@_08KJEDNCKC@?$CFs?$CFs?$CFs?$CFs?$AA@ DB '%s%s%s%s', 00H ; `string'
CONST	ENDS
;	COMDAT ??_C@_0EM@BMOJJPID@I?$HM?$CFd?$HMI?$HM?$CFd?$HMI?$HM?$CFd?$HMI?$HM?$CFd?$HMI?$HM?$CFd?$HMI?$HM?$CFd?$HMI?$HM@
CONST	SEGMENT
??_C@_0EM@BMOJJPID@I?$HM?$CFd?$HMI?$HM?$CFd?$HMI?$HM?$CFd?$HMI?$HM?$CFd?$HMI?$HM?$CFd?$HMI?$HM?$CFd?$HMI?$HM@ DB 'I'
	DB	'|%d|I|%d|I|%d|I|%d|I|%d|I|%d|I|%d|I|%d|I|%d|I|%d|I|%d|I|%d|I|'
	DB	'%d|I|%d|I|%d|', 00H				; `string'
CONST	ENDS
;	COMDAT ??_C@_0BP@EDJFIODM@P?$HM?$CFd?$HMP?$HM?$CFd?$HMP?$HM?$CFd?$HMP?$HM?$CFd?$HMP?$HM?$CFd?$HMG?$HM?$CFd?$HM?$AA@
CONST	SEGMENT
??_C@_0BP@EDJFIODM@P?$HM?$CFd?$HMP?$HM?$CFd?$HMP?$HM?$CFd?$HMP?$HM?$CFd?$HMP?$HM?$CFd?$HMG?$HM?$CFd?$HM?$AA@ DB 'P'
	DB	'|%d|P|%d|P|%d|P|%d|P|%d|G|%d|', 00H		; `string'
CONST	ENDS
;	COMDAT ??_C@_0FG@OFAEILEL@T?$HM?$CFs?$HM?$CFs?$HMK?$HMI?$HM?$CFd?$HMI?$HM?$CFd?$HMI?$HM?$CFd?$HMI?$HM?$CFd?$HMI?$HM@
CONST	SEGMENT
??_C@_0FG@OFAEILEL@T?$HM?$CFs?$HM?$CFs?$HMK?$HMI?$HM?$CFd?$HMI?$HM?$CFd?$HMI?$HM?$CFd?$HMI?$HM?$CFd?$HMI?$HM@ DB 'T'
	DB	'|%s|%s|K|I|%d|I|%d|I|%d|I|%d|I|%d|I|%d|I|%d|I|%d|I|%d|I|%d|I|'
	DB	'%d|I|%d|I|%d|I|%d|I|%d|', 00H		; `string'
CONST	ENDS
;	COMDAT ??_C@_0L@OMFCIIOF@?$CI?Y?D?$DPMP?3?$CFd?$CJ?$AA@
CONST	SEGMENT
??_C@_0L@OMFCIIOF@?$CI?Y?D?$DPMP?3?$CFd?$CJ?$AA@ DB '(', 0d9H, 0c4H, '?MP'
	DB	':%d)', 00H					; `string'
CONST	ENDS
;	COMDAT ??_C@_03GHDNOBPC@?$CF8s?$AA@
CONST	SEGMENT
??_C@_03GHDNOBPC@?$CF8s?$AA@ DB '%8s', 00H		; `string'
CONST	ENDS
;	COMDAT ??_C@_0M@MPGNHMDP@?$CI?$LK?q?$LP?kMP?3?$CFd?$CJ?$AA@
CONST	SEGMENT
??_C@_0M@MPGNHMDP@?$CI?$LK?q?$LP?kMP?3?$CFd?$CJ?$AA@ DB '(', 0baH, 0f1H, 0bfH
	DB	0ebH, 'MP:%d)', 00H				; `string'
CONST	ENDS
;	COMDAT ??_C@_04IMPGGDFH@?$CFd?$KD?$KF?$AA@
CONST	SEGMENT
??_C@_04IMPGGDFH@?$CFd?$KD?$KF?$AA@ DB '%d', 0a3H, 0a5H, 00H ; `string'
CONST	ENDS
;	COMDAT ??_C@_02DKCKIIND@?$CFs?$AA@
CONST	SEGMENT
??_C@_02DKCKIIND@?$CFs?$AA@ DB '%s', 00H		; `string'
CONST	ENDS
;	COMDAT ??_C@_01CLKCMJKC@?5?$AA@
CONST	SEGMENT
??_C@_01CLKCMJKC@?5?$AA@ DB ' ', 00H			; `string'
CONST	ENDS
;	COMDAT ??_C@_02DPKJAMEF@?$CFd?$AA@
CONST	SEGMENT
??_C@_02DPKJAMEF@?$CFd?$AA@ DB '%d', 00H		; `string'
CONST	ENDS
; Function compile flags: /Odtp /RTCsu /ZI
; File c:\program files (x86)\microsoft visual studio 14.0\vc\include\vadefs.h
;	COMDAT ??$__vcrt_va_start_verify_argument_type@PBD@@YAXXZ
_TEXT	SEGMENT
??$__vcrt_va_start_verify_argument_type@PBD@@YAXXZ PROC	; __vcrt_va_start_verify_argument_type<char const *>, COMDAT

; 144  :         {

  00000	55		 push	 ebp
  00001	8b ec		 mov	 ebp, esp
  00003	81 ec c0 00 00
	00		 sub	 esp, 192		; 000000c0H
  00009	53		 push	 ebx
  0000a	56		 push	 esi
  0000b	57		 push	 edi
  0000c	8d bd 40 ff ff
	ff		 lea	 edi, DWORD PTR [ebp-192]
  00012	b9 30 00 00 00	 mov	 ecx, 48			; 00000030H
  00017	b8 cc cc cc cc	 mov	 eax, -858993460		; ccccccccH
  0001c	f3 ab		 rep stosd

; 145  :             static_assert(!__vcrt_va_list_is_reference<_Ty>::__the_value, "va_start argument must not have reference type and must not be parenthesized");
; 146  :         }

  0001e	5f		 pop	 edi
  0001f	5e		 pop	 esi
  00020	5b		 pop	 ebx
  00021	8b e5		 mov	 esp, ebp
  00023	5d		 pop	 ebp
  00024	c3		 ret	 0
??$__vcrt_va_start_verify_argument_type@PBD@@YAXXZ ENDP	; __vcrt_va_start_verify_argument_type<char const *>
_TEXT	ENDS
; Function compile flags: /Odtp /RTCsu /ZI
; File c:\users\administrator\desktop\????? ??\????? ??\client source code\system\menu.cpp
;	COMDAT ?InitRecvMsg@@YAXPAD@Z
_TEXT	SEGMENT
_msg$ = -536						; size = 260
_temp$ = -268						; size = 260
__$ArrayPad$ = -4					; size = 4
_data$ = 8						; size = 4
?InitRecvMsg@@YAXPAD@Z PROC				; InitRecvMsg, COMDAT

; 20336: {

  00000	55		 push	 ebp
  00001	8b ec		 mov	 ebp, esp
  00003	81 ec 9c 03 00
	00		 sub	 esp, 924		; 0000039cH
  00009	53		 push	 ebx
  0000a	56		 push	 esi
  0000b	57		 push	 edi
  0000c	8d bd 64 fc ff
	ff		 lea	 edi, DWORD PTR [ebp-924]
  00012	b9 e7 00 00 00	 mov	 ecx, 231		; 000000e7H
  00017	b8 cc cc cc cc	 mov	 eax, -858993460		; ccccccccH
  0001c	f3 ab		 rep stosd
  0001e	a1 00 00 00 00	 mov	 eax, DWORD PTR ___security_cookie
  00023	33 c5		 xor	 eax, ebp
  00025	89 45 fc	 mov	 DWORD PTR __$ArrayPad$[ebp], eax

; 20337: 	char temp[STR_BUFFER_SIZE];
; 20338: 	char msg[STR_BUFFER_SIZE];
; 20339: 	getStringToken(data, '|', 2, sizeof(temp) - 1, temp);

  00028	8d 85 f4 fe ff
	ff		 lea	 eax, DWORD PTR _temp$[ebp]
  0002e	50		 push	 eax
  0002f	68 03 01 00 00	 push	 259			; 00000103H
  00034	6a 02		 push	 2
  00036	6a 7c		 push	 124			; 0000007cH
  00038	8b 4d 08	 mov	 ecx, DWORD PTR _data$[ebp]
  0003b	51		 push	 ecx
  0003c	e8 00 00 00 00	 call	 ?getStringToken@@YAHPADDHH0@Z ; getStringToken
  00041	83 c4 14	 add	 esp, 20			; 00000014H

; 20340: #ifndef _CHANNEL_MODIFY
; 20341: 	sprintf(msg, "[棰]%s", temp);
; 20342: #else
; 20343: 	sprintf(msg, "[]%s", temp);

  00044	8d 85 f4 fe ff
	ff		 lea	 eax, DWORD PTR _temp$[ebp]
  0004a	50		 push	 eax
  0004b	68 00 00 00 00	 push	 OFFSET ??_C@_08MMBFKAPF@?$FL?$LE?k?H?$KN?$FN?$CFs?$AA@
  00050	8d 8d e8 fd ff
	ff		 lea	 ecx, DWORD PTR _msg$[ebp]
  00056	51		 push	 ecx
  00057	e8 00 00 00 00	 call	 _sprintf
  0005c	83 c4 0c	 add	 esp, 12			; 0000000cH

; 20344: 	TradeTalk(msg);

  0005f	8d 85 e8 fd ff
	ff		 lea	 eax, DWORD PTR _msg$[ebp]
  00065	50		 push	 eax
  00066	e8 00 00 00 00	 call	 ?TradeTalk@@YAXPAD@Z	; TradeTalk
  0006b	83 c4 04	 add	 esp, 4

; 20345: 	SaveChatData(msg, 'R', false);

  0006e	6a 00		 push	 0
  00070	6a 52		 push	 82			; 00000052H
  00072	8d 85 e8 fd ff
	ff		 lea	 eax, DWORD PTR _msg$[ebp]
  00078	50		 push	 eax
  00079	e8 00 00 00 00	 call	 ?SaveChatData@@YAXPADD_N@Z ; SaveChatData
  0007e	83 c4 0c	 add	 esp, 12			; 0000000cH

; 20346: #endif
; 20347: 	StockChatBufferLine(msg, 2);

  00081	6a 00		 push	 0
  00083	6a 02		 push	 2
  00085	8d 85 e8 fd ff
	ff		 lea	 eax, DWORD PTR _msg$[ebp]
  0008b	50		 push	 eax
  0008c	e8 00 00 00 00	 call	 ?StockChatBufferLine@@YAXPADEH@Z ; StockChatBufferLine
  00091	83 c4 0c	 add	 esp, 12			; 0000000cH

; 20348: }

  00094	52		 push	 edx
  00095	8b cd		 mov	 ecx, ebp
  00097	50		 push	 eax
  00098	8d 15 00 00 00
	00		 lea	 edx, DWORD PTR $LN6@InitRecvMs
  0009e	e8 00 00 00 00	 call	 @_RTC_CheckStackVars@8
  000a3	58		 pop	 eax
  000a4	5a		 pop	 edx
  000a5	5f		 pop	 edi
  000a6	5e		 pop	 esi
  000a7	5b		 pop	 ebx
  000a8	8b 4d fc	 mov	 ecx, DWORD PTR __$ArrayPad$[ebp]
  000ab	33 cd		 xor	 ecx, ebp
  000ad	e8 00 00 00 00	 call	 @__security_check_cookie@4
  000b2	81 c4 9c 03 00
	00		 add	 esp, 924		; 0000039cH
  000b8	3b ec		 cmp	 ebp, esp
  000ba	e8 00 00 00 00	 call	 __RTC_CheckEsp
  000bf	8b e5		 mov	 esp, ebp
  000c1	5d		 pop	 ebp
  000c2	c3		 ret	 0
  000c3	90		 npad	 1
$LN6@InitRecvMs:
  000c4	02 00 00 00	 DD	 2
  000c8	00 00 00 00	 DD	 $LN5@InitRecvMs
$LN5@InitRecvMs:
  000cc	f4 fe ff ff	 DD	 -268			; fffffef4H
  000d0	04 01 00 00	 DD	 260			; 00000104H
  000d4	00 00 00 00	 DD	 $LN3@InitRecvMs
  000d8	e8 fd ff ff	 DD	 -536			; fffffde8H
  000dc	04 01 00 00	 DD	 260			; 00000104H
  000e0	00 00 00 00	 DD	 $LN4@InitRecvMs
$LN4@InitRecvMs:
  000e4	6d		 DB	 109			; 0000006dH
  000e5	73		 DB	 115			; 00000073H
  000e6	67		 DB	 103			; 00000067H
  000e7	00		 DB	 0
$LN3@InitRecvMs:
  000e8	74		 DB	 116			; 00000074H
  000e9	65		 DB	 101			; 00000065H
  000ea	6d		 DB	 109			; 0000006dH
  000eb	70		 DB	 112			; 00000070H
  000ec	00		 DB	 0
?InitRecvMsg@@YAXPAD@Z ENDP				; InitRecvMsg
_TEXT	ENDS
; Function compile flags: /Odtp /RTCsu /ZI
; File c:\users\administrator\desktop\????? ??\????? ??\client source code\system\menu.cpp
;	COMDAT ?InitRoomInfo@@YAXXZ
_TEXT	SEGMENT
_i$1 = -8						; size = 4
?InitRoomInfo@@YAXXZ PROC				; InitRoomInfo, COMDAT

; 20015: {

  00000	55		 push	 ebp
  00001	8b ec		 mov	 ebp, esp
  00003	81 ec cc 00 00
	00		 sub	 esp, 204		; 000000ccH
  00009	53		 push	 ebx
  0000a	56		 push	 esi
  0000b	57		 push	 edi
  0000c	8d bd 34 ff ff
	ff		 lea	 edi, DWORD PTR [ebp-204]
  00012	b9 33 00 00 00	 mov	 ecx, 51			; 00000033H
  00017	b8 cc cc cc cc	 mov	 eax, -858993460		; ccccccccH
  0001c	f3 ab		 rep stosd

; 20016: 	for (int i = 0; i < 50; i++) {

  0001e	c7 45 f8 00 00
	00 00		 mov	 DWORD PTR _i$1[ebp], 0
  00025	eb 09		 jmp	 SHORT $LN4@InitRoomIn
$LN2@InitRoomIn:
  00027	8b 45 f8	 mov	 eax, DWORD PTR _i$1[ebp]
  0002a	83 c0 01	 add	 eax, 1
  0002d	89 45 f8	 mov	 DWORD PTR _i$1[ebp], eax
$LN4@InitRoomIn:
  00030	83 7d f8 32	 cmp	 DWORD PTR _i$1[ebp], 50	; 00000032H
  00034	7d 3e		 jge	 SHORT $LN3@InitRoomIn

; 20017: 		chatInfo.memberIndex[i] = 0;

  00036	8b 45 f8	 mov	 eax, DWORD PTR _i$1[ebp]
  00039	c7 04 85 78 03
	00 00 00 00 00
	00		 mov	 DWORD PTR ?chatInfo@@3UCHATINFO@@A[eax*4+888], 0

; 20018: 		strcpy(chatInfo.memberName[i], "");

  00044	68 00 00 00 00	 push	 OFFSET ??_C@_00CNPNBAHC@?$AA@
  00049	6b 45 f8 11	 imul	 eax, DWORD PTR _i$1[ebp], 17
  0004d	05 24 00 00 00	 add	 eax, OFFSET ?chatInfo@@3UCHATINFO@@A+36
  00052	50		 push	 eax
  00053	e8 00 00 00 00	 call	 _strcpy
  00058	83 c4 08	 add	 esp, 8

; 20019: 		strcpy(chatInfo.nickName[i], "");

  0005b	68 00 00 00 00	 push	 OFFSET ??_C@_00CNPNBAHC@?$AA@
  00060	6b 45 f8 21	 imul	 eax, DWORD PTR _i$1[ebp], 33
  00064	05 60 04 00 00	 add	 eax, OFFSET ?chatInfo@@3UCHATINFO@@A+1120
  00069	50		 push	 eax
  0006a	e8 00 00 00 00	 call	 _strcpy
  0006f	83 c4 08	 add	 esp, 8

; 20020: 	}

  00072	eb b3		 jmp	 SHORT $LN2@InitRoomIn
$LN3@InitRoomIn:

; 20021: 	chatInfo.chiefFlag = 0;

  00074	c7 05 1c 00 00
	00 00 00 00 00	 mov	 DWORD PTR ?chatInfo@@3UCHATINFO@@A+28, 0

; 20022: 	chatInfo.chiefIndex = 0;

  0007e	c7 05 18 00 00
	00 00 00 00 00	 mov	 DWORD PTR ?chatInfo@@3UCHATINFO@@A+24, 0

; 20023: 	chatInfo.memberNum = 0;

  00088	c7 05 20 00 00
	00 00 00 00 00	 mov	 DWORD PTR ?chatInfo@@3UCHATINFO@@A+32, 0

; 20024: 	firMemNo = 0;

  00092	c7 05 00 00 00
	00 00 00 00 00	 mov	 DWORD PTR ?firMemNo@@3HA, 0 ; firMemNo

; 20025: }

  0009c	5f		 pop	 edi
  0009d	5e		 pop	 esi
  0009e	5b		 pop	 ebx
  0009f	81 c4 cc 00 00
	00		 add	 esp, 204		; 000000ccH
  000a5	3b ec		 cmp	 ebp, esp
  000a7	e8 00 00 00 00	 call	 __RTC_CheckEsp
  000ac	8b e5		 mov	 esp, ebp
  000ae	5d		 pop	 ebp
  000af	c3		 ret	 0
?InitRoomInfo@@YAXXZ ENDP				; InitRoomInfo
_TEXT	ENDS
; Function compile flags: /Odtp /RTCsu /ZI
; File c:\users\administrator\desktop\????? ??\????? ??\client source code\system\menu.cpp
;	COMDAT ?SwapOrder@@YAXHH@Z
_TEXT	SEGMENT
_tempNick$ = -84					; size = 33
_tempIndex$ = -40					; size = 4
_tempName$ = -28					; size = 17
__$ArrayPad$ = -4					; size = 4
_pos1$ = 8						; size = 4
_pos2$ = 12						; size = 4
?SwapOrder@@YAXHH@Z PROC				; SwapOrder, COMDAT

; 19996: {

  00000	55		 push	 ebp
  00001	8b ec		 mov	 ebp, esp
  00003	81 ec 18 01 00
	00		 sub	 esp, 280		; 00000118H
  00009	53		 push	 ebx
  0000a	56		 push	 esi
  0000b	57		 push	 edi
  0000c	8d bd e8 fe ff
	ff		 lea	 edi, DWORD PTR [ebp-280]
  00012	b9 46 00 00 00	 mov	 ecx, 70			; 00000046H
  00017	b8 cc cc cc cc	 mov	 eax, -858993460		; ccccccccH
  0001c	f3 ab		 rep stosd
  0001e	a1 00 00 00 00	 mov	 eax, DWORD PTR ___security_cookie
  00023	33 c5		 xor	 eax, ebp
  00025	89 45 fc	 mov	 DWORD PTR __$ArrayPad$[ebp], eax

; 19997: 	char    tempName[CHAR_NAME_LEN + 1];
; 19998: 	int     tempIndex;
; 19999: 	char    tempNick[CHAR_FREENAME_LEN + 1];
; 20000: 
; 20001: 	strcpy(tempName, chatInfo.memberName[pos1]);

  00028	6b 45 08 11	 imul	 eax, DWORD PTR _pos1$[ebp], 17
  0002c	05 24 00 00 00	 add	 eax, OFFSET ?chatInfo@@3UCHATINFO@@A+36
  00031	50		 push	 eax
  00032	8d 4d e4	 lea	 ecx, DWORD PTR _tempName$[ebp]
  00035	51		 push	 ecx
  00036	e8 00 00 00 00	 call	 _strcpy
  0003b	83 c4 08	 add	 esp, 8

; 20002: 	strcpy(tempNick, chatInfo.nickName[pos1]);

  0003e	6b 45 08 21	 imul	 eax, DWORD PTR _pos1$[ebp], 33
  00042	05 60 04 00 00	 add	 eax, OFFSET ?chatInfo@@3UCHATINFO@@A+1120
  00047	50		 push	 eax
  00048	8d 4d ac	 lea	 ecx, DWORD PTR _tempNick$[ebp]
  0004b	51		 push	 ecx
  0004c	e8 00 00 00 00	 call	 _strcpy
  00051	83 c4 08	 add	 esp, 8

; 20003: 	tempIndex = chatInfo.memberIndex[pos1];

  00054	8b 45 08	 mov	 eax, DWORD PTR _pos1$[ebp]
  00057	8b 0c 85 78 03
	00 00		 mov	 ecx, DWORD PTR ?chatInfo@@3UCHATINFO@@A[eax*4+888]
  0005e	89 4d d8	 mov	 DWORD PTR _tempIndex$[ebp], ecx

; 20004: 
; 20005: 	strcpy(chatInfo.memberName[pos1], chatInfo.memberName[pos2]);

  00061	6b 45 0c 11	 imul	 eax, DWORD PTR _pos2$[ebp], 17
  00065	05 24 00 00 00	 add	 eax, OFFSET ?chatInfo@@3UCHATINFO@@A+36
  0006a	50		 push	 eax
  0006b	6b 4d 08 11	 imul	 ecx, DWORD PTR _pos1$[ebp], 17
  0006f	81 c1 24 00 00
	00		 add	 ecx, OFFSET ?chatInfo@@3UCHATINFO@@A+36
  00075	51		 push	 ecx
  00076	e8 00 00 00 00	 call	 _strcpy
  0007b	83 c4 08	 add	 esp, 8

; 20006: 	strcpy(chatInfo.nickName[pos1], chatInfo.nickName[pos2]);

  0007e	6b 45 0c 21	 imul	 eax, DWORD PTR _pos2$[ebp], 33
  00082	05 60 04 00 00	 add	 eax, OFFSET ?chatInfo@@3UCHATINFO@@A+1120
  00087	50		 push	 eax
  00088	6b 4d 08 21	 imul	 ecx, DWORD PTR _pos1$[ebp], 33
  0008c	81 c1 60 04 00
	00		 add	 ecx, OFFSET ?chatInfo@@3UCHATINFO@@A+1120
  00092	51		 push	 ecx
  00093	e8 00 00 00 00	 call	 _strcpy
  00098	83 c4 08	 add	 esp, 8

; 20007: 	chatInfo.memberIndex[pos1] = chatInfo.memberIndex[pos2];

  0009b	8b 45 08	 mov	 eax, DWORD PTR _pos1$[ebp]
  0009e	8b 4d 0c	 mov	 ecx, DWORD PTR _pos2$[ebp]
  000a1	8b 14 8d 78 03
	00 00		 mov	 edx, DWORD PTR ?chatInfo@@3UCHATINFO@@A[ecx*4+888]
  000a8	89 14 85 78 03
	00 00		 mov	 DWORD PTR ?chatInfo@@3UCHATINFO@@A[eax*4+888], edx

; 20008: 
; 20009: 	strcpy(chatInfo.memberName[pos2], tempName);

  000af	8d 45 e4	 lea	 eax, DWORD PTR _tempName$[ebp]
  000b2	50		 push	 eax
  000b3	6b 4d 0c 11	 imul	 ecx, DWORD PTR _pos2$[ebp], 17
  000b7	81 c1 24 00 00
	00		 add	 ecx, OFFSET ?chatInfo@@3UCHATINFO@@A+36
  000bd	51		 push	 ecx
  000be	e8 00 00 00 00	 call	 _strcpy
  000c3	83 c4 08	 add	 esp, 8

; 20010: 	strcpy(chatInfo.nickName[pos2], tempNick);

  000c6	8d 45 ac	 lea	 eax, DWORD PTR _tempNick$[ebp]
  000c9	50		 push	 eax
  000ca	6b 4d 0c 21	 imul	 ecx, DWORD PTR _pos2$[ebp], 33
  000ce	81 c1 60 04 00
	00		 add	 ecx, OFFSET ?chatInfo@@3UCHATINFO@@A+1120
  000d4	51		 push	 ecx
  000d5	e8 00 00 00 00	 call	 _strcpy
  000da	83 c4 08	 add	 esp, 8

; 20011: 	chatInfo.memberIndex[pos2] = tempIndex;

  000dd	8b 45 0c	 mov	 eax, DWORD PTR _pos2$[ebp]
  000e0	8b 4d d8	 mov	 ecx, DWORD PTR _tempIndex$[ebp]
  000e3	89 0c 85 78 03
	00 00		 mov	 DWORD PTR ?chatInfo@@3UCHATINFO@@A[eax*4+888], ecx

; 20012: }

  000ea	52		 push	 edx
  000eb	8b cd		 mov	 ecx, ebp
  000ed	50		 push	 eax
  000ee	8d 15 00 00 00
	00		 lea	 edx, DWORD PTR $LN6@SwapOrder
  000f4	e8 00 00 00 00	 call	 @_RTC_CheckStackVars@8
  000f9	58		 pop	 eax
  000fa	5a		 pop	 edx
  000fb	5f		 pop	 edi
  000fc	5e		 pop	 esi
  000fd	5b		 pop	 ebx
  000fe	8b 4d fc	 mov	 ecx, DWORD PTR __$ArrayPad$[ebp]
  00101	33 cd		 xor	 ecx, ebp
  00103	e8 00 00 00 00	 call	 @__security_check_cookie@4
  00108	81 c4 18 01 00
	00		 add	 esp, 280		; 00000118H
  0010e	3b ec		 cmp	 ebp, esp
  00110	e8 00 00 00 00	 call	 __RTC_CheckEsp
  00115	8b e5		 mov	 esp, ebp
  00117	5d		 pop	 ebp
  00118	c3		 ret	 0
  00119	0f 1f 00	 npad	 3
$LN6@SwapOrder:
  0011c	02 00 00 00	 DD	 2
  00120	00 00 00 00	 DD	 $LN5@SwapOrder
$LN5@SwapOrder:
  00124	e4 ff ff ff	 DD	 -28			; ffffffe4H
  00128	11 00 00 00	 DD	 17			; 00000011H
  0012c	00 00 00 00	 DD	 $LN3@SwapOrder
  00130	ac ff ff ff	 DD	 -84			; ffffffacH
  00134	21 00 00 00	 DD	 33			; 00000021H
  00138	00 00 00 00	 DD	 $LN4@SwapOrder
$LN4@SwapOrder:
  0013c	74		 DB	 116			; 00000074H
  0013d	65		 DB	 101			; 00000065H
  0013e	6d		 DB	 109			; 0000006dH
  0013f	70		 DB	 112			; 00000070H
  00140	4e		 DB	 78			; 0000004eH
  00141	69		 DB	 105			; 00000069H
  00142	63		 DB	 99			; 00000063H
  00143	6b		 DB	 107			; 0000006bH
  00144	00		 DB	 0
$LN3@SwapOrder:
  00145	74		 DB	 116			; 00000074H
  00146	65		 DB	 101			; 00000065H
  00147	6d		 DB	 109			; 0000006dH
  00148	70		 DB	 112			; 00000070H
  00149	4e		 DB	 78			; 0000004eH
  0014a	61		 DB	 97			; 00000061H
  0014b	6d		 DB	 109			; 0000006dH
  0014c	65		 DB	 101			; 00000065H
  0014d	00		 DB	 0
?SwapOrder@@YAXHH@Z ENDP				; SwapOrder
_TEXT	ENDS
; Function compile flags: /Odtp /RTCsu /ZI
; File c:\users\administrator\desktop\????? ??\????? ??\client source code\system\menu.cpp
;	COMDAT ?initSetRoomName@@YAXXZ
_TEXT	SEGMENT
?initSetRoomName@@YAXXZ PROC				; initSetRoomName, COMDAT

; 19873: {

  00000	55		 push	 ebp
  00001	8b ec		 mov	 ebp, esp
  00003	81 ec c0 00 00
	00		 sub	 esp, 192		; 000000c0H
  00009	53		 push	 ebx
  0000a	56		 push	 esi
  0000b	57		 push	 edi
  0000c	8d bd 40 ff ff
	ff		 lea	 edi, DWORD PTR [ebp-192]
  00012	b9 30 00 00 00	 mov	 ecx, 48			; 00000030H
  00017	b8 cc cc cc cc	 mov	 eax, -858993460		; ccccccccH
  0001c	f3 ab		 rep stosd

; 19874: 	DeathMenuAction();

  0001e	e8 00 00 00 00	 call	 ?DeathMenuAction@@YAXXZ	; DeathMenuAction

; 19875: 	DeathMenuAction2();

  00023	e8 00 00 00 00	 call	 ?DeathMenuAction2@@YAXXZ ; DeathMenuAction2

; 19876: 	DeathAction(pSetRoomWnd);

  00028	a1 00 00 00 00	 mov	 eax, DWORD PTR ?pSetRoomWnd@@3PAUaction@@A ; pSetRoomWnd
  0002d	50		 push	 eax
  0002e	e8 00 00 00 00	 call	 ?DeathAction@@YAXPAUaction@@@Z ; DeathAction
  00033	83 c4 04	 add	 esp, 4

; 19877: 	pSetRoomWnd = NULL;

  00036	c7 05 00 00 00
	00 00 00 00 00	 mov	 DWORD PTR ?pSetRoomWnd@@3PAUaction@@A, 0 ; pSetRoomWnd

; 19878: 	GetKeyInputFocus(&MyChatBuffer);

  00040	68 00 00 00 00	 push	 OFFSET ?MyChatBuffer@@3USTR_BUFFER@@A ; MyChatBuffer
  00045	e8 00 00 00 00	 call	 ?GetKeyInputFocus@@YAXPAUSTR_BUFFER@@@Z ; GetKeyInputFocus
  0004a	83 c4 04	 add	 esp, 4

; 19879: 	setRoomFlag = TRUE;

  0004d	c6 05 00 00 00
	00 01		 mov	 BYTE PTR ?setRoomFlag@@3_NA, 1 ; setRoomFlag

; 19880: 	SelRoomBtn = 0;

  00054	33 c0		 xor	 eax, eax
  00056	66 a3 00 00 00
	00		 mov	 WORD PTR ?SelRoomBtn@@3FA, ax ; SelRoomBtn

; 19881: }

  0005c	5f		 pop	 edi
  0005d	5e		 pop	 esi
  0005e	5b		 pop	 ebx
  0005f	81 c4 c0 00 00
	00		 add	 esp, 192		; 000000c0H
  00065	3b ec		 cmp	 ebp, esp
  00067	e8 00 00 00 00	 call	 __RTC_CheckEsp
  0006c	8b e5		 mov	 esp, ebp
  0006e	5d		 pop	 ebp
  0006f	c3		 ret	 0
?initSetRoomName@@YAXXZ ENDP				; initSetRoomName
_TEXT	ENDS
; Function compile flags: /Odtp /RTCsu /ZI
; File c:\program files (x86)\windows kits\10\include\10.0.10240.0\ucrt\string.h
;	COMDAT ??$strcat_s@$0BAE@@@YAHAAY0BAE@DPBD@Z
_TEXT	SEGMENT
__Destination$ = 8					; size = 4
__Source$ = 12						; size = 4
??$strcat_s@$0BAE@@@YAHAAY0BAE@DPBD@Z PROC		; strcat_s<260>, COMDAT

; 82   :     )

  00000	55		 push	 ebp
  00001	8b ec		 mov	 ebp, esp
  00003	81 ec c0 00 00
	00		 sub	 esp, 192		; 000000c0H
  00009	53		 push	 ebx
  0000a	56		 push	 esi
  0000b	57		 push	 edi
  0000c	8d bd 40 ff ff
	ff		 lea	 edi, DWORD PTR [ebp-192]
  00012	b9 30 00 00 00	 mov	 ecx, 48			; 00000030H
  00017	b8 cc cc cc cc	 mov	 eax, -858993460		; ccccccccH
  0001c	f3 ab		 rep stosd

; 78   : __DEFINE_CPP_OVERLOAD_SECURE_FUNC_0_1(

  0001e	8b f4		 mov	 esi, esp
  00020	8b 45 0c	 mov	 eax, DWORD PTR __Source$[ebp]
  00023	50		 push	 eax
  00024	68 04 01 00 00	 push	 260			; 00000104H
  00029	8b 4d 08	 mov	 ecx, DWORD PTR __Destination$[ebp]
  0002c	51		 push	 ecx
  0002d	ff 15 00 00 00
	00		 call	 DWORD PTR __imp__strcat_s
  00033	83 c4 0c	 add	 esp, 12			; 0000000cH
  00036	3b f4		 cmp	 esi, esp
  00038	e8 00 00 00 00	 call	 __RTC_CheckEsp
  0003d	5f		 pop	 edi
  0003e	5e		 pop	 esi
  0003f	5b		 pop	 ebx
  00040	81 c4 c0 00 00
	00		 add	 esp, 192		; 000000c0H
  00046	3b ec		 cmp	 ebp, esp
  00048	e8 00 00 00 00	 call	 __RTC_CheckEsp
  0004d	8b e5		 mov	 esp, ebp
  0004f	5d		 pop	 ebp
  00050	c3		 ret	 0
??$strcat_s@$0BAE@@@YAHAAY0BAE@DPBD@Z ENDP		; strcat_s<260>
_TEXT	ENDS
; Function compile flags: /Odtp /RTCsu /ZI
; File c:\program files (x86)\windows kits\10\include\10.0.10240.0\ucrt\stdio.h
;	COMDAT ??$sprintf_s@$0IA@@@YAHAAY0IA@DPBDZZ
_TEXT	SEGMENT
__ArgList$ = -8						; size = 4
__Buffer$ = 8						; size = 4
__Format$ = 12						; size = 4
??$sprintf_s@$0IA@@@YAHAAY0IA@DPBDZZ PROC		; sprintf_s<128>, COMDAT

; 1850 :     )

  00000	55		 push	 ebp
  00001	8b ec		 mov	 ebp, esp
  00003	81 ec cc 00 00
	00		 sub	 esp, 204		; 000000ccH
  00009	53		 push	 ebx
  0000a	56		 push	 esi
  0000b	57		 push	 edi
  0000c	8d bd 34 ff ff
	ff		 lea	 edi, DWORD PTR [ebp-204]
  00012	b9 33 00 00 00	 mov	 ecx, 51			; 00000033H
  00017	b8 cc cc cc cc	 mov	 eax, -858993460		; ccccccccH
  0001c	f3 ab		 rep stosd

; 1846 : __DEFINE_CPP_OVERLOAD_SECURE_FUNC_0_1_ARGLIST(

  0001e	e8 00 00 00 00	 call	 ??$__vcrt_va_start_verify_argument_type@PBD@@YAXXZ ; __vcrt_va_start_verify_argument_type<char const *>
  00023	8d 45 10	 lea	 eax, DWORD PTR __Format$[ebp+4]
  00026	89 45 f8	 mov	 DWORD PTR __ArgList$[ebp], eax
  00029	8b 45 f8	 mov	 eax, DWORD PTR __ArgList$[ebp]
  0002c	50		 push	 eax
  0002d	8b 4d 0c	 mov	 ecx, DWORD PTR __Format$[ebp]
  00030	51		 push	 ecx
  00031	68 80 00 00 00	 push	 128			; 00000080H
  00036	8b 55 08	 mov	 edx, DWORD PTR __Buffer$[ebp]
  00039	52		 push	 edx
  0003a	e8 00 00 00 00	 call	 _vsprintf_s
  0003f	83 c4 10	 add	 esp, 16			; 00000010H
  00042	5f		 pop	 edi
  00043	5e		 pop	 esi
  00044	5b		 pop	 ebx
  00045	81 c4 cc 00 00
	00		 add	 esp, 204		; 000000ccH
  0004b	3b ec		 cmp	 ebp, esp
  0004d	e8 00 00 00 00	 call	 __RTC_CheckEsp
  00052	8b e5		 mov	 esp, ebp
  00054	5d		 pop	 ebp
  00055	c3		 ret	 0
??$sprintf_s@$0IA@@@YAHAAY0IA@DPBDZZ ENDP		; sprintf_s<128>
_TEXT	ENDS
; Function compile flags: /Odtp /RTCsu /ZI
; File c:\users\administrator\desktop\????? ??\????? ??\client source code\system\menu.cpp
;	COMDAT ?自动登陆窗口回调@@YAXXZ
_TEXT	SEGMENT
tv410 = -532						; size = 4
tv397 = -532						; size = 4
tv350 = -532						; size = 4
_方向偏移X$1 = -56					; size = 4
_i$2 = -44						; size = 4
_i$3 = -32						; size = 4
_h$4 = -20						; size = 4
_w$5 = -8						; size = 4
?自动登陆窗口回调@@YAXXZ PROC				; 自动登陆窗口回调, COMDAT

; 10256: {

  00000	55		 push	 ebp
  00001	8b ec		 mov	 ebp, esp
  00003	81 ec 14 02 00
	00		 sub	 esp, 532		; 00000214H
  00009	53		 push	 ebx
  0000a	56		 push	 esi
  0000b	57		 push	 edi
  0000c	8d bd ec fd ff
	ff		 lea	 edi, DWORD PTR [ebp-532]
  00012	b9 85 00 00 00	 mov	 ecx, 133		; 00000085H
  00017	b8 cc cc cc cc	 mov	 eax, -858993460		; ccccccccH
  0001c	f3 ab		 rep stosd

; 10257: 	static int 瑰绐ｆ寮;
; 10258: 	static int btnId[15], btnState[15];
; 10259: 	static int x = 0, y = 0;
; 10260: 	static DWORD dwPressTime;
; 10261: 	static char msg[][8] = {
; 10262: 		" ",
; 10263: 		" ",
; 10264: 		" 搿"
; 10265: 	};
; 10266: 	static char  chardir[][8] = {
; 10267: 		"",
; 10268: 		"膦",
; 10269: 		"膦旄",
; 10270: 		"膦",
; 10271: 		"",
; 10272: 		"办",
; 10273: 		"办浮",
; 10274: 		"绊"
; 10275: 	};
; 10276: 	if (pㄧ婚绐 == NULL) {

  0001e	83 3d 00 00 00
	00 00		 cmp	 DWORD PTR ?p自动登陆窗口@@3PAUaction@@A, 0 ; p自动登陆窗口
  00025	0f 85 f2 00 00
	00		 jne	 $LN20@

; 10277: 		瑰绐ｆ寮 = FALSE;

  0002b	c7 05 00 00 00
	00 00 00 00 00	 mov	 DWORD PTR ?方向窗口是否打开@?1??自动登陆窗口回调@@YAXXZ@4HA, 0

; 10278: 		瑰ㄤ = NULL;

  00035	c7 05 00 00 00
	00 00 00 00 00	 mov	 DWORD PTR ?方向动作@@3PAUaction@@A, 0 ; 方向动作

; 10279: 		浜虹╁ㄤ = NULL;

  0003f	c7 05 00 00 00
	00 00 00 00 00	 mov	 DWORD PTR ?人物动作@@3PAUaction@@A, 0 ; 人物动作

; 10280: 		int w = 412;

  00049	c7 45 f8 9c 01
	00 00		 mov	 DWORD PTR _w$5[ebp], 412 ; 0000019cH

; 10281: 		int h = 301;

  00050	c7 45 ec 2d 01
	00 00		 mov	 DWORD PTR _h$4[ebp], 301 ; 0000012dH

; 10282: 		if (ResoMode == 杈ㄧ::mode800) {

  00057	83 3d 00 00 00
	00 03		 cmp	 DWORD PTR ?ResoMode@@3HA, 3 ; ResoMode
  0005e	75 16		 jne	 SHORT $LN22@

; 10283: 			x = 800 / 2;

  00060	c7 05 00 00 00
	00 90 01 00 00	 mov	 DWORD PTR ?x@?1??自动登陆窗口回调@@YAXXZ@4HA, 400 ; 00000190H

; 10284: 			y = 600 / 2;

  0006a	c7 05 00 00 00
	00 2c 01 00 00	 mov	 DWORD PTR ?y@?1??自动登陆窗口回调@@YAXXZ@4HA, 300 ; 0000012cH
  00074	eb 33		 jmp	 SHORT $LN23@
$LN22@:

; 10285: 		}
; 10286: 		else if (ResoMode == 杈ㄧ::mode1024) {

  00076	83 3d 00 00 00
	00 04		 cmp	 DWORD PTR ?ResoMode@@3HA, 4 ; ResoMode
  0007d	75 16		 jne	 SHORT $LN24@

; 10287: 			x = 1024 / 2;

  0007f	c7 05 00 00 00
	00 00 02 00 00	 mov	 DWORD PTR ?x@?1??自动登陆窗口回调@@YAXXZ@4HA, 512 ; 00000200H

; 10288: 			y = 768 / 2;

  00089	c7 05 00 00 00
	00 80 01 00 00	 mov	 DWORD PTR ?y@?1??自动登陆窗口回调@@YAXXZ@4HA, 384 ; 00000180H

; 10289: 		}
; 10290: 		else {

  00093	eb 14		 jmp	 SHORT $LN23@
$LN24@:

; 10291: 			x = 640 / 2;

  00095	c7 05 00 00 00
	00 40 01 00 00	 mov	 DWORD PTR ?x@?1??自动登陆窗口回调@@YAXXZ@4HA, 320 ; 00000140H

; 10292: 			y = 480 / 2;

  0009f	c7 05 00 00 00
	00 f0 00 00 00	 mov	 DWORD PTR ?y@?1??自动登陆窗口回调@@YAXXZ@4HA, 240 ; 000000f0H
$LN23@:

; 10293: 		}
; 10294: 		//x = (lpDraw->xSize - w) / 2;
; 10295: 		//y = (lpDraw->ySize - h) / 2;
; 10296: 		pㄧ婚绐 = MakeWindowDisp(x, y, w, h, 52137, -1);

  000a9	6a ff		 push	 -1
  000ab	68 a9 cb 00 00	 push	 52137			; 0000cba9H
  000b0	8b 45 ec	 mov	 eax, DWORD PTR _h$4[ebp]
  000b3	50		 push	 eax
  000b4	8b 4d f8	 mov	 ecx, DWORD PTR _w$5[ebp]
  000b7	51		 push	 ecx
  000b8	8b 15 00 00 00
	00		 mov	 edx, DWORD PTR ?y@?1??自动登陆窗口回调@@YAXXZ@4HA
  000be	52		 push	 edx
  000bf	a1 00 00 00 00	 mov	 eax, DWORD PTR ?x@?1??自动登陆窗口回调@@YAXXZ@4HA
  000c4	50		 push	 eax
  000c5	e8 00 00 00 00	 call	 ?MakeWindowDisp@@YAPAUaction@@HHHHHH@Z ; MakeWindowDisp
  000ca	83 c4 18	 add	 esp, 24			; 00000018H
  000cd	a3 00 00 00 00	 mov	 DWORD PTR ?p自动登陆窗口@@3PAUaction@@A, eax ; p自动登陆窗口

; 10297: 		for (int i = 0; i < 14; i++) {

  000d2	c7 45 e0 00 00
	00 00		 mov	 DWORD PTR _i$3[ebp], 0
  000d9	eb 09		 jmp	 SHORT $LN4@
$LN2@:
  000db	8b 45 e0	 mov	 eax, DWORD PTR _i$3[ebp]
  000de	83 c0 01	 add	 eax, 1
  000e1	89 45 e0	 mov	 DWORD PTR _i$3[ebp], eax
$LN4@:
  000e4	83 7d e0 0e	 cmp	 DWORD PTR _i$3[ebp], 14	; 0000000eH
  000e8	7d 24		 jge	 SHORT $LN3@

; 10298: 			btnId[i] = -2;

  000ea	8b 45 e0	 mov	 eax, DWORD PTR _i$3[ebp]
  000ed	c7 04 85 00 00
	00 00 fe ff ff
	ff		 mov	 DWORD PTR ?btnId@?1??自动登陆窗口回调@@YAXXZ@4PAHA[eax*4], -2 ; fffffffeH

; 10299: 			if (i < 10)

  000f8	83 7d e0 0a	 cmp	 DWORD PTR _i$3[ebp], 10	; 0000000aH
  000fc	7d 0e		 jge	 SHORT $LN26@

; 10300: 				btnState[i] = 0;

  000fe	8b 45 e0	 mov	 eax, DWORD PTR _i$3[ebp]
  00101	c7 04 85 00 00
	00 00 00 00 00
	00		 mov	 DWORD PTR ?btnState@?1??自动登陆窗口回调@@YAXXZ@4PAHA[eax*4], 0
$LN26@:

; 10301: 		}

  0010c	eb cd		 jmp	 SHORT $LN2@
$LN3@:

; 10302: 		dwPressTime = 0;

  0010e	c7 05 00 00 00
	00 00 00 00 00	 mov	 DWORD PTR ?dwPressTime@?1??自动登陆窗口回调@@YAXXZ@4KA, 0

; 10303: 	}
; 10304: 	else {

  00118	e9 d9 10 00 00	 jmp	 $LN1@
$LN20@:

; 10305: 		if (pㄧ婚绐->hp >= 1) {

  0011d	a1 00 00 00 00	 mov	 eax, DWORD PTR ?p自动登陆窗口@@3PAUaction@@A ; p自动登陆窗口
  00122	83 78 78 01	 cmp	 DWORD PTR [eax+120], 1
  00126	0f 8c ca 10 00
	00		 jl	 $LN1@

; 10306: 			if (joy_trg[0] & JOY_ESC) {

  0012c	b8 04 00 00 00	 mov	 eax, 4
  00131	6b c8 00	 imul	 ecx, eax, 0
  00134	8b 91 00 00 00
	00		 mov	 edx, DWORD PTR ?joy_trg@@3PAKA[ecx]
  0013a	81 e2 00 00 00
	80		 and	 edx, -2147483648	; 80000000H
  00140	74 69		 je	 SHORT $LN28@

; 10307: 				ㄧ婚绐 = FALSE;

  00142	c7 05 00 00 00
	00 00 00 00 00	 mov	 DWORD PTR ?自动登陆窗口@@3HA, 0 ; 自动登陆窗口

; 10308: 				DeathAction(pㄧ婚绐);

  0014c	a1 00 00 00 00	 mov	 eax, DWORD PTR ?p自动登陆窗口@@3PAUaction@@A ; p自动登陆窗口
  00151	50		 push	 eax
  00152	e8 00 00 00 00	 call	 ?DeathAction@@YAXPAUaction@@@Z ; DeathAction
  00157	83 c4 04	 add	 esp, 4

; 10309: 				DeathAction(瑰ㄤ);

  0015a	a1 00 00 00 00	 mov	 eax, DWORD PTR ?方向动作@@3PAUaction@@A ; 方向动作
  0015f	50		 push	 eax
  00160	e8 00 00 00 00	 call	 ?DeathAction@@YAXPAUaction@@@Z ; DeathAction
  00165	83 c4 04	 add	 esp, 4

; 10310: 				DeathAction(浜虹╁ㄤ);

  00168	a1 00 00 00 00	 mov	 eax, DWORD PTR ?人物动作@@3PAUaction@@A ; 人物动作
  0016d	50		 push	 eax
  0016e	e8 00 00 00 00	 call	 ?DeathAction@@YAXPAUaction@@@Z ; DeathAction
  00173	83 c4 04	 add	 esp, 4

; 10311: 				浜虹╁ㄤ = NULL;

  00176	c7 05 00 00 00
	00 00 00 00 00	 mov	 DWORD PTR ?人物动作@@3PAUaction@@A, 0 ; 人物动作

; 10312: 				瑰绐ｆ寮 = FALSE;

  00180	c7 05 00 00 00
	00 00 00 00 00	 mov	 DWORD PTR ?方向窗口是否打开@?1??自动登陆窗口回调@@YAXXZ@4HA, 0

; 10313: 				瑰ㄤ = NULL;

  0018a	c7 05 00 00 00
	00 00 00 00 00	 mov	 DWORD PTR ?方向动作@@3PAUaction@@A, 0 ; 方向动作

; 10314: 				pㄧ婚绐 = NULL;

  00194	c7 05 00 00 00
	00 00 00 00 00	 mov	 DWORD PTR ?p自动登陆窗口@@3PAUaction@@A, 0 ; p自动登陆窗口

; 10315: 				actBtn = 0;

  0019e	33 c0		 xor	 eax, eax
  001a0	66 a3 00 00 00
	00		 mov	 WORD PTR ?actBtn@@3FA, ax ; actBtn

; 10316: 				return;

  001a6	e9 4b 10 00 00	 jmp	 $LN1@
$LN28@:

; 10317: 			}
; 10318: 			if (dwPressTime) {

  001ab	83 3d 00 00 00
	00 00		 cmp	 DWORD PTR ?dwPressTime@?1??自动登陆窗口回调@@YAXXZ@4KA, 0
  001b2	0f 84 1d 06 00
	00		 je	 $LN29@

; 10319: 				if (TimeGetTime() > (dwPressTime + 100)) {

  001b8	e8 00 00 00 00	 call	 ?TimeGetTime@@YAIXZ	; TimeGetTime
  001bd	8b 0d 00 00 00
	00		 mov	 ecx, DWORD PTR ?dwPressTime@?1??自动登陆窗口回调@@YAXXZ@4KA
  001c3	83 c1 64	 add	 ecx, 100		; 00000064H
  001c6	3b c1		 cmp	 eax, ecx
  001c8	0f 86 02 06 00
	00		 jbe	 $LN31@

; 10320: 					dwPressTime = 0;

  001ce	c7 05 00 00 00
	00 00 00 00 00	 mov	 DWORD PTR ?dwPressTime@?1??自动登陆窗口回调@@YAXXZ@4KA, 0

; 10321: 					if (btnState[0] == 1) {//澶у哄

  001d8	b8 04 00 00 00	 mov	 eax, 4
  001dd	6b c8 00	 imul	 ecx, eax, 0
  001e0	83 b9 00 00 00
	00 01		 cmp	 DWORD PTR ?btnState@?1??自动登陆窗口回调@@YAXXZ@4PAHA[ecx], 1
  001e7	75 62		 jne	 SHORT $LN32@

; 10322: 						btnState[0] = 0;

  001e9	b8 04 00 00 00	 mov	 eax, 4
  001ee	6b c8 00	 imul	 ecx, eax, 0
  001f1	c7 81 00 00 00
	00 00 00 00 00	 mov	 DWORD PTR ?btnState@?1??自动登陆窗口回调@@YAXXZ@4PAHA[ecx], 0

; 10323: 						play_se(217, 320, 240);

  001fb	68 f0 00 00 00	 push	 240			; 000000f0H
  00200	68 40 01 00 00	 push	 320			; 00000140H
  00205	68 d9 00 00 00	 push	 217			; 000000d9H
  0020a	e8 00 00 00 00	 call	 ?play_se@@YAHHHH@Z	; play_se
  0020f	83 c4 0c	 add	 esp, 12			; 0000000cH
$LN5@:

; 10324: 						while (TRUE) {

  00212	b8 01 00 00 00	 mov	 eax, 1
  00217	85 c0		 test	 eax, eax
  00219	74 30		 je	 SHORT $LN32@

; 10325: 							PcLanded.澶у--;

  0021b	a1 00 00 00 00	 mov	 eax, DWORD PTR ?PcLanded@@3ULanded@@A
  00220	83 e8 01	 sub	 eax, 1
  00223	a3 00 00 00 00	 mov	 DWORD PTR ?PcLanded@@3ULanded@@A, eax

; 10326: 							if (PcLanded.澶у < 0) {

  00228	79 0a		 jns	 SHORT $LN33@

; 10327: 								PcLanded.澶у = 18;

  0022a	c7 05 00 00 00
	00 12 00 00 00	 mov	 DWORD PTR ?PcLanded@@3ULanded@@A, 18 ; 00000012H
$LN33@:

; 10328: 							}
; 10329: 							if (gmgroup[PcLanded.澶у].used) {

  00234	a1 00 00 00 00	 mov	 eax, DWORD PTR ?PcLanded@@3ULanded@@A
  00239	c1 e0 06	 shl	 eax, 6
  0023c	0f be 88 00 00
	00 00		 movsx	 ecx, BYTE PTR ?gmgroup@@3PAUgamegroup@@A[eax]
  00243	85 c9		 test	 ecx, ecx
  00245	74 02		 je	 SHORT $LN34@

; 10330: 								break;

  00247	eb 02		 jmp	 SHORT $LN32@
$LN34@:

; 10331: 							}
; 10332: 						}

  00249	eb c7		 jmp	 SHORT $LN5@
$LN32@:

; 10333: 					}
; 10334: 					if (btnState[1] == 1) {//澶у哄

  0024b	b8 04 00 00 00	 mov	 eax, 4
  00250	c1 e0 00	 shl	 eax, 0
  00253	83 b8 00 00 00
	00 01		 cmp	 DWORD PTR ?btnState@?1??自动登陆窗口回调@@YAXXZ@4PAHA[eax], 1
  0025a	75 69		 jne	 SHORT $LN35@

; 10335: 						btnState[1] = 0;

  0025c	b8 04 00 00 00	 mov	 eax, 4
  00261	c1 e0 00	 shl	 eax, 0
  00264	c7 80 00 00 00
	00 00 00 00 00	 mov	 DWORD PTR ?btnState@?1??自动登陆窗口回调@@YAXXZ@4PAHA[eax], 0

; 10336: 						play_se(217, 320, 240);

  0026e	68 f0 00 00 00	 push	 240			; 000000f0H
  00273	68 40 01 00 00	 push	 320			; 00000140H
  00278	68 d9 00 00 00	 push	 217			; 000000d9H
  0027d	e8 00 00 00 00	 call	 ?play_se@@YAHHHH@Z	; play_se
  00282	83 c4 0c	 add	 esp, 12			; 0000000cH
$LN7@:

; 10337: 						while (TRUE) {

  00285	b8 01 00 00 00	 mov	 eax, 1
  0028a	85 c0		 test	 eax, eax
  0028c	74 37		 je	 SHORT $LN35@

; 10338: 							PcLanded.澶у++;

  0028e	a1 00 00 00 00	 mov	 eax, DWORD PTR ?PcLanded@@3ULanded@@A
  00293	83 c0 01	 add	 eax, 1
  00296	a3 00 00 00 00	 mov	 DWORD PTR ?PcLanded@@3ULanded@@A, eax

; 10339: 							if (PcLanded.澶у > 18) {

  0029b	83 3d 00 00 00
	00 12		 cmp	 DWORD PTR ?PcLanded@@3ULanded@@A, 18 ; 00000012H
  002a2	7e 0a		 jle	 SHORT $LN36@

; 10340: 								PcLanded.澶у = 0;

  002a4	c7 05 00 00 00
	00 00 00 00 00	 mov	 DWORD PTR ?PcLanded@@3ULanded@@A, 0
$LN36@:

; 10341: 							}
; 10342: 							if (gmgroup[PcLanded.澶у].used) {

  002ae	a1 00 00 00 00	 mov	 eax, DWORD PTR ?PcLanded@@3ULanded@@A
  002b3	c1 e0 06	 shl	 eax, 6
  002b6	0f be 88 00 00
	00 00		 movsx	 ecx, BYTE PTR ?gmgroup@@3PAUgamegroup@@A[eax]
  002bd	85 c9		 test	 ecx, ecx
  002bf	74 02		 je	 SHORT $LN37@

; 10343: 								break;

  002c1	eb 02		 jmp	 SHORT $LN35@
$LN37@:

; 10344: 							}
; 10345: 						}

  002c3	eb c0		 jmp	 SHORT $LN7@
$LN35@:

; 10346: 					}
; 10347: 
; 10348: 					if (btnState[2] == 1) {//灏哄

  002c5	b8 04 00 00 00	 mov	 eax, 4
  002ca	d1 e0		 shl	 eax, 1
  002cc	83 b8 00 00 00
	00 01		 cmp	 DWORD PTR ?btnState@?1??自动登陆窗口回调@@YAXXZ@4PAHA[eax], 1
  002d3	0f 85 88 00 00
	00		 jne	 $LN38@

; 10349: 						btnState[2] = 0;

  002d9	b8 04 00 00 00	 mov	 eax, 4
  002de	d1 e0		 shl	 eax, 1
  002e0	c7 80 00 00 00
	00 00 00 00 00	 mov	 DWORD PTR ?btnState@?1??自动登陆窗口回调@@YAXXZ@4PAHA[eax], 0

; 10350: 						play_se(217, 320, 240);

  002ea	68 f0 00 00 00	 push	 240			; 000000f0H
  002ef	68 40 01 00 00	 push	 320			; 00000140H
  002f4	68 d9 00 00 00	 push	 217			; 000000d9H
  002f9	e8 00 00 00 00	 call	 ?play_se@@YAHHHH@Z	; play_se
  002fe	83 c4 0c	 add	 esp, 12			; 0000000cH

; 10351: 						if (PcLanded.澶у != -1)

  00301	83 3d 00 00 00
	00 ff		 cmp	 DWORD PTR ?PcLanded@@3ULanded@@A, -1
  00308	74 57		 je	 SHORT $LN38@
$LN9@:

; 10352: 						{
; 10353: 							while (TRUE) {

  0030a	b8 01 00 00 00	 mov	 eax, 1
  0030f	85 c0		 test	 eax, eax
  00311	74 4e		 je	 SHORT $LN38@

; 10354: 								PcLanded.灏--;

  00313	a1 08 00 00 00	 mov	 eax, DWORD PTR ?PcLanded@@3ULanded@@A+8
  00318	83 e8 01	 sub	 eax, 1
  0031b	a3 08 00 00 00	 mov	 DWORD PTR ?PcLanded@@3ULanded@@A+8, eax

; 10355: 								if (PcLanded.灏 < 0) {

  00320	79 18		 jns	 SHORT $LN40@

; 10356: 									PcLanded.灏 = gmgroup[PcLanded.澶у].num - 1;

  00322	a1 00 00 00 00	 mov	 eax, DWORD PTR ?PcLanded@@3ULanded@@A
  00327	c1 e0 06	 shl	 eax, 6
  0032a	0f be 88 01 00
	00 00		 movsx	 ecx, BYTE PTR ?gmgroup@@3PAUgamegroup@@A[eax+1]
  00331	83 e9 01	 sub	 ecx, 1
  00334	89 0d 08 00 00
	00		 mov	 DWORD PTR ?PcLanded@@3ULanded@@A+8, ecx
$LN40@:

; 10357: 								}
; 10358: 								if (gmsv[gmgroup[PcLanded.澶у].startindex + PcLanded.灏].used) {

  0033a	a1 00 00 00 00	 mov	 eax, DWORD PTR ?PcLanded@@3ULanded@@A
  0033f	c1 e0 06	 shl	 eax, 6
  00342	0f be 88 02 00
	00 00		 movsx	 ecx, BYTE PTR ?gmgroup@@3PAUgamegroup@@A[eax+2]
  00349	03 0d 08 00 00
	00		 add	 ecx, DWORD PTR ?PcLanded@@3ULanded@@A+8
  0034f	c1 e1 08	 shl	 ecx, 8
  00352	0f be 91 00 00
	00 00		 movsx	 edx, BYTE PTR ?gmsv@@3PAUgameserver@@A[ecx]
  00359	85 d2		 test	 edx, edx
  0035b	74 02		 je	 SHORT $LN41@

; 10359: 									break;

  0035d	eb 02		 jmp	 SHORT $LN38@
$LN41@:

; 10360: 								}
; 10361: 							}

  0035f	eb a9		 jmp	 SHORT $LN9@
$LN38@:

; 10362: 						}
; 10363: 					}
; 10364: 					if (btnState[3] == 1) {//灏哄

  00361	b8 04 00 00 00	 mov	 eax, 4
  00366	6b c8 03	 imul	 ecx, eax, 3
  00369	83 b9 00 00 00
	00 01		 cmp	 DWORD PTR ?btnState@?1??自动登陆窗口回调@@YAXXZ@4PAHA[ecx], 1
  00370	0f 85 90 00 00
	00		 jne	 $LN42@

; 10365: 						btnState[3] = 0;

  00376	b8 04 00 00 00	 mov	 eax, 4
  0037b	6b c8 03	 imul	 ecx, eax, 3
  0037e	c7 81 00 00 00
	00 00 00 00 00	 mov	 DWORD PTR ?btnState@?1??自动登陆窗口回调@@YAXXZ@4PAHA[ecx], 0

; 10366: 						play_se(217, 320, 240);

  00388	68 f0 00 00 00	 push	 240			; 000000f0H
  0038d	68 40 01 00 00	 push	 320			; 00000140H
  00392	68 d9 00 00 00	 push	 217			; 000000d9H
  00397	e8 00 00 00 00	 call	 ?play_se@@YAHHHH@Z	; play_se
  0039c	83 c4 0c	 add	 esp, 12			; 0000000cH

; 10367: 						if (PcLanded.澶у != -1)

  0039f	83 3d 00 00 00
	00 ff		 cmp	 DWORD PTR ?PcLanded@@3ULanded@@A, -1
  003a6	74 5e		 je	 SHORT $LN42@
$LN11@:

; 10368: 						{
; 10369: 							while (TRUE) {

  003a8	b8 01 00 00 00	 mov	 eax, 1
  003ad	85 c0		 test	 eax, eax
  003af	74 55		 je	 SHORT $LN42@

; 10370: 								PcLanded.灏++;

  003b1	a1 08 00 00 00	 mov	 eax, DWORD PTR ?PcLanded@@3ULanded@@A+8
  003b6	83 c0 01	 add	 eax, 1
  003b9	a3 08 00 00 00	 mov	 DWORD PTR ?PcLanded@@3ULanded@@A+8, eax

; 10371: 								if (PcLanded.灏 >= gmgroup[PcLanded.澶у].num) {

  003be	a1 00 00 00 00	 mov	 eax, DWORD PTR ?PcLanded@@3ULanded@@A
  003c3	c1 e0 06	 shl	 eax, 6
  003c6	0f be 88 01 00
	00 00		 movsx	 ecx, BYTE PTR ?gmgroup@@3PAUgamegroup@@A[eax+1]
  003cd	39 0d 08 00 00
	00		 cmp	 DWORD PTR ?PcLanded@@3ULanded@@A+8, ecx
  003d3	7c 0a		 jl	 SHORT $LN44@

; 10372: 									PcLanded.灏 = 0;

  003d5	c7 05 08 00 00
	00 00 00 00 00	 mov	 DWORD PTR ?PcLanded@@3ULanded@@A+8, 0
$LN44@:

; 10373: 								}
; 10374: 								if (gmsv[gmgroup[PcLanded.澶у].startindex + PcLanded.灏].used) {

  003df	a1 00 00 00 00	 mov	 eax, DWORD PTR ?PcLanded@@3ULanded@@A
  003e4	c1 e0 06	 shl	 eax, 6
  003e7	0f be 88 02 00
	00 00		 movsx	 ecx, BYTE PTR ?gmgroup@@3PAUgamegroup@@A[eax+2]
  003ee	03 0d 08 00 00
	00		 add	 ecx, DWORD PTR ?PcLanded@@3ULanded@@A+8
  003f4	c1 e1 08	 shl	 ecx, 8
  003f7	0f be 91 00 00
	00 00		 movsx	 edx, BYTE PTR ?gmsv@@3PAUgameserver@@A[ecx]
  003fe	85 d2		 test	 edx, edx
  00400	74 02		 je	 SHORT $LN45@

; 10375: 									break;

  00402	eb 02		 jmp	 SHORT $LN42@
$LN45@:

; 10376: 								}
; 10377: 							}

  00404	eb a2		 jmp	 SHORT $LN11@
$LN42@:

; 10378: 						}
; 10379: 					}
; 10380: 					if (btnState[4] == 1) {//妯″

  00406	b8 04 00 00 00	 mov	 eax, 4
  0040b	c1 e0 02	 shl	 eax, 2
  0040e	83 b8 00 00 00
	00 01		 cmp	 DWORD PTR ?btnState@?1??自动登陆窗口回调@@YAXXZ@4PAHA[eax], 1
  00415	75 71		 jne	 SHORT $LN46@

; 10381: 						btnState[4] = 0;

  00417	b8 04 00 00 00	 mov	 eax, 4
  0041c	c1 e0 02	 shl	 eax, 2
  0041f	c7 80 00 00 00
	00 00 00 00 00	 mov	 DWORD PTR ?btnState@?1??自动登陆窗口回调@@YAXXZ@4PAHA[eax], 0

; 10382: 						play_se(217, 320, 240);

  00429	68 f0 00 00 00	 push	 240			; 000000f0H
  0042e	68 40 01 00 00	 push	 320			; 00000140H
  00433	68 d9 00 00 00	 push	 217			; 000000d9H
  00438	e8 00 00 00 00	 call	 ?play_se@@YAHHHH@Z	; play_se
  0043d	83 c4 0c	 add	 esp, 12			; 0000000cH

; 10383: 						PcLanded.妯--;

  00440	a1 04 00 00 00	 mov	 eax, DWORD PTR ?PcLanded@@3ULanded@@A+4
  00445	83 e8 01	 sub	 eax, 1
  00448	a3 04 00 00 00	 mov	 DWORD PTR ?PcLanded@@3ULanded@@A+4, eax

; 10384: 						if (PcLanded.妯 < 0) {

  0044d	79 0a		 jns	 SHORT $LN47@

; 10385: 							PcLanded.妯 = 2;

  0044f	c7 05 04 00 00
	00 02 00 00 00	 mov	 DWORD PTR ?PcLanded@@3ULanded@@A+4, 2
$LN47@:

; 10386: 						}
; 10387: 						if (PcLanded.妯 == 0 || PcLanded.妯 == 2) {

  00459	83 3d 04 00 00
	00 00		 cmp	 DWORD PTR ?PcLanded@@3ULanded@@A+4, 0
  00460	74 09		 je	 SHORT $LN49@
  00462	83 3d 04 00 00
	00 02		 cmp	 DWORD PTR ?PcLanded@@3ULanded@@A+4, 2
  00469	75 0a		 jne	 SHORT $LN48@
$LN49@:

; 10388: 							PcLanded.ㄥ璇 = FALSE;

  0046b	c7 05 10 00 00
	00 00 00 00 00	 mov	 DWORD PTR ?PcLanded@@3ULanded@@A+16, 0
$LN48@:

; 10389: 						}
; 10390: 						if (PcLanded.妯 == 1) {

  00475	83 3d 04 00 00
	00 01		 cmp	 DWORD PTR ?PcLanded@@3ULanded@@A+4, 1
  0047c	75 0a		 jne	 SHORT $LN46@

; 10391: 							PcLanded.ㄩ = FALSE;

  0047e	c7 05 14 00 00
	00 00 00 00 00	 mov	 DWORD PTR ?PcLanded@@3ULanded@@A+20, 0
$LN46@:

; 10392: 						}
; 10393: 					}
; 10394: 					if (btnState[5] == 1) {//妯″

  00488	b8 04 00 00 00	 mov	 eax, 4
  0048d	6b c8 05	 imul	 ecx, eax, 5
  00490	83 b9 00 00 00
	00 01		 cmp	 DWORD PTR ?btnState@?1??自动登陆窗口回调@@YAXXZ@4PAHA[ecx], 1
  00497	75 78		 jne	 SHORT $LN51@

; 10395: 						btnState[5] = 0;

  00499	b8 04 00 00 00	 mov	 eax, 4
  0049e	6b c8 05	 imul	 ecx, eax, 5
  004a1	c7 81 00 00 00
	00 00 00 00 00	 mov	 DWORD PTR ?btnState@?1??自动登陆窗口回调@@YAXXZ@4PAHA[ecx], 0

; 10396: 						play_se(217, 320, 240);

  004ab	68 f0 00 00 00	 push	 240			; 000000f0H
  004b0	68 40 01 00 00	 push	 320			; 00000140H
  004b5	68 d9 00 00 00	 push	 217			; 000000d9H
  004ba	e8 00 00 00 00	 call	 ?play_se@@YAHHHH@Z	; play_se
  004bf	83 c4 0c	 add	 esp, 12			; 0000000cH

; 10397: 						PcLanded.妯++;

  004c2	a1 04 00 00 00	 mov	 eax, DWORD PTR ?PcLanded@@3ULanded@@A+4
  004c7	83 c0 01	 add	 eax, 1
  004ca	a3 04 00 00 00	 mov	 DWORD PTR ?PcLanded@@3ULanded@@A+4, eax

; 10398: 						if (PcLanded.妯 > 2) {

  004cf	83 3d 04 00 00
	00 02		 cmp	 DWORD PTR ?PcLanded@@3ULanded@@A+4, 2
  004d6	7e 0a		 jle	 SHORT $LN52@

; 10399: 							PcLanded.妯 = 0;

  004d8	c7 05 04 00 00
	00 00 00 00 00	 mov	 DWORD PTR ?PcLanded@@3ULanded@@A+4, 0
$LN52@:

; 10400: 						}
; 10401: 						if (PcLanded.妯 == 0 || PcLanded.妯 == 2) {

  004e2	83 3d 04 00 00
	00 00		 cmp	 DWORD PTR ?PcLanded@@3ULanded@@A+4, 0
  004e9	74 09		 je	 SHORT $LN54@
  004eb	83 3d 04 00 00
	00 02		 cmp	 DWORD PTR ?PcLanded@@3ULanded@@A+4, 2
  004f2	75 0a		 jne	 SHORT $LN53@
$LN54@:

; 10402: 							PcLanded.ㄥ璇 = FALSE;

  004f4	c7 05 10 00 00
	00 00 00 00 00	 mov	 DWORD PTR ?PcLanded@@3ULanded@@A+16, 0
$LN53@:

; 10403: 						}
; 10404: 						if (PcLanded.妯 == 1) {

  004fe	83 3d 04 00 00
	00 01		 cmp	 DWORD PTR ?PcLanded@@3ULanded@@A+4, 1
  00505	75 0a		 jne	 SHORT $LN51@

; 10405: 							PcLanded.ㄩ = FALSE;

  00507	c7 05 14 00 00
	00 00 00 00 00	 mov	 DWORD PTR ?PcLanded@@3ULanded@@A+20, 0
$LN51@:

; 10406: 						}
; 10407: 					}
; 10408: 					if (btnState[6] == 1) {//瑙插

  00511	b8 04 00 00 00	 mov	 eax, 4
  00516	6b c8 06	 imul	 ecx, eax, 6
  00519	83 b9 00 00 00
	00 01		 cmp	 DWORD PTR ?btnState@?1??自动登陆窗口回调@@YAXXZ@4PAHA[ecx], 1
  00520	75 6b		 jne	 SHORT $LN56@

; 10409: 						btnState[6] = 0;

  00522	b8 04 00 00 00	 mov	 eax, 4
  00527	6b c8 06	 imul	 ecx, eax, 6
  0052a	c7 81 00 00 00
	00 00 00 00 00	 mov	 DWORD PTR ?btnState@?1??自动登陆窗口回调@@YAXXZ@4PAHA[ecx], 0

; 10410: 						play_se(217, 320, 240);

  00534	68 f0 00 00 00	 push	 240			; 000000f0H
  00539	68 40 01 00 00	 push	 320			; 00000140H
  0053e	68 d9 00 00 00	 push	 217			; 000000d9H
  00543	e8 00 00 00 00	 call	 ?play_se@@YAHHHH@Z	; play_se
  00548	83 c4 0c	 add	 esp, 12			; 0000000cH
$LN13@:

; 10411: 						while (TRUE) {

  0054b	b8 01 00 00 00	 mov	 eax, 1
  00550	85 c0		 test	 eax, eax
  00552	74 39		 je	 SHORT $LN56@

; 10412: 							PcLanded.浜虹--;

  00554	a1 0c 00 00 00	 mov	 eax, DWORD PTR ?PcLanded@@3ULanded@@A+12
  00559	83 e8 01	 sub	 eax, 1
  0055c	a3 0c 00 00 00	 mov	 DWORD PTR ?PcLanded@@3ULanded@@A+12, eax

; 10413: 							if (PcLanded.浜虹 < 0) {

  00561	79 0a		 jns	 SHORT $LN57@

; 10414: 								PcLanded.浜虹 = 3;

  00563	c7 05 0c 00 00
	00 03 00 00 00	 mov	 DWORD PTR ?PcLanded@@3ULanded@@A+12, 3
$LN57@:

; 10415: 							}
; 10416: 							if (PcLanded.婚浜虹╁绉[PcLanded.浜虹][0]) break;

  0056d	a1 0c 00 00 00	 mov	 eax, DWORD PTR ?PcLanded@@3ULanded@@A+12
  00572	c1 e0 05	 shl	 eax, 5
  00575	b9 01 00 00 00	 mov	 ecx, 1
  0057a	6b d1 00	 imul	 edx, ecx, 0
