; Listing generated by Microsoft (R) Optimizing Compiler Version 19.00.24215.1 

	TITLE	C:\Users\Administrator\Desktop\????? ??\????? ??\Client Source Code\system\netmain.cpp
	.686P
	.XMM
	include listing.inc
	.model	flat

INCLUDELIB MSVCRTD
INCLUDELIB OLDNAMES

PUBLIC	?isWGS7@@3HA					; isWGS7
PUBLIC	?rpc_linebuffer@@3PADA				; rpc_linebuffer
PUBLIC	?net_writebuf@@3PADA				; net_writebuf
PUBLIC	?net_readbuf@@3PADA				; net_readbuf
PUBLIC	?net_readbuflen@@3HA				; net_readbuflen
PUBLIC	?net_writebuflen@@3HA				; net_writebuflen
PUBLIC	?sockfd@@3IA					; sockfd
PUBLIC	?server_choosed@@3HA				; server_choosed
PUBLIC	?init_net@@3HA					; init_net
PUBLIC	?disconnectServerFlag@@3HA			; disconnectServerFlag
PUBLIC	?oldDisconnectServerFlag@@3HA			; oldDisconnectServerFlag
PUBLIC	?gmsv@@3PAUgameserver@@A			; gmsv
_BSS	SEGMENT
?isWGS7@@3HA DD	01H DUP (?)				; isWGS7
?rpc_linebuffer@@3PADA DB 04000H DUP (?)		; rpc_linebuffer
?net_writebuf@@3PADA DD 01H DUP (?)			; net_writebuf
?net_readbuf@@3PADA DD 01H DUP (?)			; net_readbuf
?net_readbuflen@@3HA DD 01H DUP (?)			; net_readbuflen
?net_writebuflen@@3HA DD 01H DUP (?)			; net_writebuflen
?sockfd@@3IA DD	01H DUP (?)				; sockfd
?server_choosed@@3HA DD 01H DUP (?)			; server_choosed
?init_net@@3HA DD 01H DUP (?)				; init_net
?disconnectServerFlag@@3HA DD 01H DUP (?)		; disconnectServerFlag
?oldDisconnectServerFlag@@3HA DD 01H DUP (?)		; oldDisconnectServerFlag
_BSS	ENDS
_DATA	SEGMENT
?gmsv@@3PAUgameserver@@A DB 031H			; gmsv
	DB	'222.186.51.178', 00H
	ORG $+112
	DB	'9065', 00H
	ORG $+59
	DB	0e5H, 0fdH, 0cdH, 0fdH, 0f5H, 0f3H, '???', 0cdH, 0a3H, 0d8H
	DB	0fcH, '?', 0d9H, 0a5H, 0e8H, 0e2H, '??', 0eaH, 0f3H, 0efH, 0c8H
	DB	0dfH, 0beH, ',?', 0f7H, 0eaH, 0e8H, 0e2H, '??', 0dbH, 0dcH, 0d9H
	DB	0a3H, '?', 0e6H, 0d4H, 0fdH, 0a8H, 0f1H, 0ecH, 0e3H, 0e6H, '??'
	DB	0a1H, 0a3H, 00H
	ORG $+12
	DB	031H
	DB	'amoijing.f3322.net', 00H
	ORG $+108
	DB	'9066', 00H
	ORG $+59
	DB	0e9H, 0c4H, 0ceH, 0b7H, 0d7H, 0e2H, '?', 0d9H, 0bcH, 0e3H
	DB	0d2H, '?', 0faH, 0bcH, 0e8H, 0e2H, '?,', 0dcH, 0f4H, 0faH, 0bcH
	DB	0eeH, 0dcH, '??', 0d3H, 0fcH, '?', 0d4H, 0b8H, '?', 0cbH, 0ecH
	DB	'??', 0a3H, 0acH, '?teamview??', 0a1H, 0a3H, 00H
	ORG $+12
	DB	031H
	DB	'222.186.51.178', 00H
	ORG $+112
	DB	'9095', 00H
	ORG $+59
	DB	0e5H, 0fdH, 0cdH, 0fdH, 0e3H, 0c0H, '360,?', 0d3H, 0fcH, 0d6H
	DB	0f5H, '?', 0eaH, 0f3H, 'zhudongfangyu', 0eeH, 0dcH, '?', 0efH, 0efH
	DB	0a3H, 0acH, '?', 0d3H, 0fcH, 0f1H, 0abH, '?', 0dbH, 0c1H, 0e5H
	DB	0d9H, '??', 0a1H, 0a3H, 00H
	ORG $+11
	DB	031H
	DB	'amoijing.f3322.net', 00H
	ORG $+108
	DB	'9065', 00H
	ORG $+59
	DB	0d3H, 0deH, 0caH, 0a8H, '?', 0dcH, 0f4H, 0faH, 0bcH, 0eeH
	DB	0dcH, '???', 0d4H, 0b8H, '??', 0a3H, 0acH, 0f1H, 0ecH, '?????', 0a3H
	DB	0acH, '?', 0cdH, 0a7H, '???', 0a1H, 0a3H, 00H
	ORG $+26
	DB	031H
	DB	'192.168.1.25', 00H
	ORG $+114
	DB	'9065', 00H
	ORG $+59
	DB	00H
	ORG $+63
	DB	031H
	DB	'192.168.1.25', 00H
	ORG $+114
	DB	'9065', 00H
	ORG $+59
	DB	00H
	ORG $+63
	DB	031H
	DB	'192.168.1.25', 00H
	ORG $+114
	DB	'9065', 00H
	ORG $+59
	DB	' ', 00H
	ORG $+62
	DB	031H
	DB	'192.168.1.25', 00H
	ORG $+114
	DB	'9065', 00H
	ORG $+59
	DB	' ', 00H
	ORG $+62
	DB	031H
	DB	'192.168.1.25', 00H
	ORG $+114
	DB	'9065', 00H
	ORG $+59
	DB	00H
	ORG $+63
	DB	031H
	DB	'192.168.1.25', 00H
	ORG $+114
	DB	'9065', 00H
	ORG $+59
	DB	00H
	ORG $+63
	DB	031H
	DB	'192.168.1.25', 00H
	ORG $+114
	DB	'9065', 00H
	ORG $+59
	DB	' ', 00H
	ORG $+62
	DB	031H
	DB	'192.168.1.25', 00H
	ORG $+114
	DB	'9065', 00H
	ORG $+59
	DB	' ', 00H
	ORG $+62
	DB	031H
	DB	'192.168.1.25', 00H
	ORG $+114
	DB	'9065', 00H
	ORG $+59
	DB	00H
	ORG $+63
	DB	031H
	DB	'192.168.1.25', 00H
	ORG $+114
	DB	'9065', 00H
	ORG $+59
	DB	00H
	ORG $+63
	DB	031H
	DB	'192.168.1.25', 00H
	ORG $+114
	DB	'9065', 00H
	ORG $+59
	DB	' ', 00H
	ORG $+62
	DB	031H
	DB	'192.168.1.25', 00H
	ORG $+114
	DB	'9065', 00H
	ORG $+59
	DB	' ', 00H
	ORG $+62
	DB	031H
	DB	'192.168.1.25', 00H
	ORG $+114
	DB	'9065', 00H
	ORG $+59
	DB	' ', 00H
	ORG $+62
	DB	031H
	DB	'192.168.1.25', 00H
	ORG $+114
	DB	'9065', 00H
	ORG $+59
	DB	' ', 00H
	ORG $+62
	DB	031H
	DB	'192.168.1.25', 00H
	ORG $+114
	DB	'9065', 00H
	ORG $+59
	DB	' ', 00H
	ORG $+62
	DB	031H
	DB	'192.168.1.25', 00H
	ORG $+114
	DB	'9065', 00H
	ORG $+59
	DB	' ', 00H
	ORG $+62
	DB	031H
	DB	'192.168.1.25', 00H
	ORG $+114
	DB	'9065', 00H
	ORG $+59
	DB	' ', 00H
	ORG $+62
	DB	031H
	DB	'192.168.1.25', 00H
	ORG $+114
	DB	'9065', 00H
	ORG $+59
	DB	' ', 00H
	ORG $+62
	DB	031H
	DB	'192.168.1.25', 00H
	ORG $+114
	DB	'9065', 00H
	ORG $+59
	DB	' ', 00H
	ORG $+62
	DB	031H
	DB	'192.168.1.25', 00H
	ORG $+114
	DB	'9065', 00H
	ORG $+59
	DB	' ', 00H
	ORG $+62
	DB	031H
	DB	'192.168.1.25', 00H
	ORG $+114
	DB	'9065', 00H
	ORG $+59
	DB	' ', 00H
	ORG $+62
	DB	031H
	DB	'192.168.1.25', 00H
	ORG $+114
	DB	'9065', 00H
	ORG $+59
	DB	' ', 00H
	ORG $+62
	DB	031H
	DB	'192.168.1.25', 00H
	ORG $+114
	DB	'9065', 00H
	ORG $+59
	DB	' ', 00H
	ORG $+62
	DB	031H
	DB	'192.168.1.25', 00H
	ORG $+114
	DB	'9065', 00H
	ORG $+59
	DB	' ', 00H
	ORG $+62
	DB	031H
	DB	'192.168.1.25', 00H
	ORG $+114
	DB	'9065', 00H
	ORG $+59
	DB	' ', 00H
	ORG $+62
	DB	031H
	DB	'192.168.1.25', 00H
	ORG $+114
	DB	'9065', 00H
	ORG $+59
	DB	' ', 00H
	ORG $+62
	DB	031H
	DB	'192.168.1.25', 00H
	ORG $+114
	DB	'9065', 00H
	ORG $+59
	DB	' ', 00H
	ORG $+62
	DB	031H
	DB	'192.168.1.25', 00H
	ORG $+114
	DB	'9065', 00H
	ORG $+59
	DB	' ', 00H
	ORG $+62
	DB	031H
	DB	'192.168.1.25', 00H
	ORG $+114
	DB	'9065', 00H
	ORG $+59
	DB	' ', 00H
	ORG $+62
	ORG $+29952
_DATA	ENDS
PUBLIC	?getServerInfo@@YAHHPADPAF@Z			; getServerInfo
PUBLIC	?networkLoop@@YAXXZ				; networkLoop
PUBLIC	?initNet@@YAHXZ					; initNet
PUBLIC	?cleanupNetwork@@YAXXZ				; cleanupNetwork
PUBLIC	?appendReadBuf@@YAHPADH@Z			; appendReadBuf
PUBLIC	?appendWriteBuf@@YAHHPADH@Z			; appendWriteBuf
PUBLIC	?shiftReadBuf@@YAHH@Z				; shiftReadBuf
PUBLIC	?shiftWriteBuf@@YAHH@Z				; shiftWriteBuf
PUBLIC	?getLineFromReadBuf@@YAHPADH@Z			; getLineFromReadBuf
PUBLIC	?sendn@@YAHIPADH@Z				; sendn
PUBLIC	??_C@_04KGMIJBHM@hoge?$AA@			; `string'
EXTRN	__Init_thread_header:PROC
EXTRN	__Init_thread_abort:PROC
EXTRN	__Init_thread_footer:PROC
EXTRN	?TimeGetTime@@YAIXZ:PROC			; TimeGetTime
EXTRN	_memcpy:PROC
EXTRN	_strcpy:PROC
EXTRN	__imp__Sleep@4:PROC
EXTRN	__imp__VirtualProtect@16:PROC
EXTRN	___WSAFDIsSet@8:PROC
EXTRN	_closesocket@4:PROC
EXTRN	_recv@16:PROC
EXTRN	_select@20:PROC
EXTRN	_send@16:PROC
EXTRN	_WSAStartup@8:PROC
EXTRN	_WSACleanup@0:PROC
EXTRN	_WSAGetLastError@0:PROC
EXTRN	__imp__atoi:PROC
EXTRN	?ChangeProc@@YAXH@Z:PROC			; ChangeProc
EXTRN	?JL_savefunc@@YAXH@Z:PROC			; JL_savefunc
EXTRN	?SaDispatchMessage@@YAHHPAD@Z:PROC		; SaDispatchMessage
EXTRN	?lssproto_Echo_send@@YAXHPAD@Z:PROC		; lssproto_Echo_send
EXTRN	?old_lssproto_Echo_send@@YAXHPAD@Z:PROC		; old_lssproto_Echo_send
EXTRN	?lssproto_InitClient@@YAHP6AHHPADH@ZHH@Z:PROC	; lssproto_InitClient
EXTRN	?lssproto_CleanupClient@@YAXXZ:PROC		; lssproto_CleanupClient
EXTRN	?lssproto_ClientDispatchMessage@@YAHHPAD@Z:PROC	; lssproto_ClientDispatchMessage
EXTRN	?ReadWGSMessage@@YAHPADAAH@Z:PROC		; ReadWGSMessage
EXTRN	@_RTC_CheckStackVars@8:PROC
EXTRN	@__security_check_cookie@4:PROC
EXTRN	__RTC_CheckEsp:PROC
EXTRN	__RTC_InitBase:PROC
EXTRN	__RTC_Shutdown:PROC
EXTRN	___CxxFrameHandler3:PROC
EXTRN	__Init_thread_epoch:DWORD
EXTRN	?bNewServer@@3HA:DWORD				; bNewServer
EXTRN	?dwServer@@3KA:DWORD				; dwServer
EXTRN	?testCnt@@3HA:DWORD				; testCnt
EXTRN	___security_cookie:DWORD
EXTRN	__tls_array:DWORD
EXTRN	__tls_index:DWORD
_BSS	SEGMENT
?writetime@?1??networkLoop@@YAXXZ@4IA DD 01H DUP (?)	; `networkLoop'::`2'::writetime
?$TSS0@?1??networkLoop@@YAXXZ@4HA DD 01H DUP (?)	; TSS0<`template-parameter-2',etworkLoop,int, ?? &>
_BSS	ENDS
;	COMDAT rtc$TMZ
rtc$TMZ	SEGMENT
__RTC_Shutdown.rtc$TMZ DD FLAT:__RTC_Shutdown
rtc$TMZ	ENDS
;	COMDAT rtc$IMZ
rtc$IMZ	SEGMENT
__RTC_InitBase.rtc$IMZ DD FLAT:__RTC_InitBase
rtc$IMZ	ENDS
;	COMDAT ??_C@_04KGMIJBHM@hoge?$AA@
CONST	SEGMENT
??_C@_04KGMIJBHM@hoge?$AA@ DB 'hoge', 00H		; `string'
CONST	ENDS
;	COMDAT xdata$x
xdata$x	SEGMENT
__unwindtable$?networkLoop@@YAXXZ DD 0ffffffffH
	DD	FLAT:__unwindfunclet$?networkLoop@@YAXXZ$0
__ehfuncinfo$?networkLoop@@YAXXZ DD 019930522H
	DD	01H
	DD	FLAT:__unwindtable$?networkLoop@@YAXXZ
	DD	2 DUP(00H)
	DD	2 DUP(00H)
	DD	00H
	DD	00H
xdata$x	ENDS
; Function compile flags: /Odtp /RTCsu /ZI
; File c:\users\administrator\desktop\????? ??\????? ??\client source code\system\netmain.cpp
;	COMDAT ?sendn@@YAHIPADH@Z
_TEXT	SEGMENT
_r$ = -20						; size = 4
_total$ = -8						; size = 4
_s$ = 8							; size = 4
_buffer$ = 12						; size = 4
_len$ = 16						; size = 4
?sendn@@YAHIPADH@Z PROC					; sendn, COMDAT

; 665  : {

  00000	55		 push	 ebp
  00001	8b ec		 mov	 ebp, esp
  00003	81 ec d8 00 00
	00		 sub	 esp, 216		; 000000d8H
  00009	53		 push	 ebx
  0000a	56		 push	 esi
  0000b	57		 push	 edi
  0000c	8d bd 28 ff ff
	ff		 lea	 edi, DWORD PTR [ebp-216]
  00012	b9 36 00 00 00	 mov	 ecx, 54			; 00000036H
  00017	b8 cc cc cc cc	 mov	 eax, -858993460		; ccccccccH
  0001c	f3 ab		 rep stosd

; 666  : 	int total = 0;

  0001e	c7 45 f8 00 00
	00 00		 mov	 DWORD PTR _total$[ebp], 0

; 667  : 	int r;
; 668  : 
; 669  : 	if( server_choosed == 0 )

  00025	83 3d 00 00 00
	00 00		 cmp	 DWORD PTR ?server_choosed@@3HA, 0 ; server_choosed
  0002c	75 07		 jne	 SHORT $LN2@sendn

; 670  : 		return -100;

  0002e	b8 9c ff ff ff	 mov	 eax, -100		; ffffff9cH
  00033	eb 42		 jmp	 SHORT $LN1@sendn
$LN2@sendn:

; 671  : 
; 672  : 	while( 1 )

  00035	b8 01 00 00 00	 mov	 eax, 1
  0003a	85 c0		 test	 eax, eax
  0003c	74 39		 je	 SHORT $LN1@sendn

; 673  : 	{
; 674  : 		r = send( s, buffer, len, 0 );

  0003e	6a 00		 push	 0
  00040	8b 45 10	 mov	 eax, DWORD PTR _len$[ebp]
  00043	50		 push	 eax
  00044	8b 4d 0c	 mov	 ecx, DWORD PTR _buffer$[ebp]
  00047	51		 push	 ecx
  00048	8b 55 08	 mov	 edx, DWORD PTR _s$[ebp]
  0004b	52		 push	 edx
  0004c	e8 00 00 00 00	 call	 _send@16
  00051	89 45 ec	 mov	 DWORD PTR _r$[ebp], eax

; 675  : 		if( r == SOCKET_ERROR )

  00054	83 7d ec ff	 cmp	 DWORD PTR _r$[ebp], -1
  00058	75 05		 jne	 SHORT $LN5@sendn

; 676  : 			return  SOCKET_ERROR;

  0005a	83 c8 ff	 or	 eax, -1
  0005d	eb 18		 jmp	 SHORT $LN1@sendn
$LN5@sendn:

; 677  : 		total += r;

  0005f	8b 45 f8	 mov	 eax, DWORD PTR _total$[ebp]
  00062	03 45 ec	 add	 eax, DWORD PTR _r$[ebp]
  00065	89 45 f8	 mov	 DWORD PTR _total$[ebp], eax

; 678  : 		if( total == len )

  00068	8b 45 f8	 mov	 eax, DWORD PTR _total$[ebp]
  0006b	3b 45 10	 cmp	 eax, DWORD PTR _len$[ebp]
  0006e	75 05		 jne	 SHORT $LN6@sendn

; 679  : 			return total;

  00070	8b 45 f8	 mov	 eax, DWORD PTR _total$[ebp]
  00073	eb 02		 jmp	 SHORT $LN1@sendn
$LN6@sendn:

; 680  : 	}

  00075	eb be		 jmp	 SHORT $LN2@sendn
$LN1@sendn:

; 681  : }

  00077	5f		 pop	 edi
  00078	5e		 pop	 esi
  00079	5b		 pop	 ebx
  0007a	81 c4 d8 00 00
	00		 add	 esp, 216		; 000000d8H
  00080	3b ec		 cmp	 ebp, esp
  00082	e8 00 00 00 00	 call	 __RTC_CheckEsp
  00087	8b e5		 mov	 esp, ebp
  00089	5d		 pop	 ebp
  0008a	c3		 ret	 0
?sendn@@YAHIPADH@Z ENDP					; sendn
_TEXT	ENDS
; Function compile flags: /Odtp /RTCsu /ZI
; File c:\users\administrator\desktop\????? ??\????? ??\client source code\system\netmain.cpp
;	COMDAT ?getLineFromReadBuf@@YAHPADH@Z
_TEXT	SEGMENT
_j$ = -20						; size = 4
_i$ = -8						; size = 4
_output$ = 8						; size = 4
_maxlen$ = 12						; size = 4
?getLineFromReadBuf@@YAHPADH@Z PROC			; getLineFromReadBuf, COMDAT

; 624  : {

  00000	55		 push	 ebp
  00001	8b ec		 mov	 ebp, esp
  00003	81 ec d8 00 00
	00		 sub	 esp, 216		; 000000d8H
  00009	53		 push	 ebx
  0000a	56		 push	 esi
  0000b	57		 push	 edi
  0000c	8d bd 28 ff ff
	ff		 lea	 edi, DWORD PTR [ebp-216]
  00012	b9 36 00 00 00	 mov	 ecx, 54			; 00000036H
  00017	b8 cc cc cc cc	 mov	 eax, -858993460		; ccccccccH
  0001c	f3 ab		 rep stosd

; 625  : 	int i;
; 626  : 
; 627  : 	if( server_choosed == 0 )

  0001e	83 3d 00 00 00
	00 00		 cmp	 DWORD PTR ?server_choosed@@3HA, 0 ; server_choosed
  00025	75 0a		 jne	 SHORT $LN8@getLineFro

; 628  : 		return -100;

  00027	b8 9c ff ff ff	 mov	 eax, -100		; ffffff9cH
  0002c	e9 be 00 00 00	 jmp	 $LN1@getLineFro
$LN8@getLineFro:

; 629  : 	int j;
; 630  : 	for( i = 0; i < net_readbuflen && i < (maxlen-1); i++ )

  00031	c7 45 f8 00 00
	00 00		 mov	 DWORD PTR _i$[ebp], 0
  00038	eb 09		 jmp	 SHORT $LN4@getLineFro
$LN2@getLineFro:
  0003a	8b 45 f8	 mov	 eax, DWORD PTR _i$[ebp]
  0003d	83 c0 01	 add	 eax, 1
  00040	89 45 f8	 mov	 DWORD PTR _i$[ebp], eax
$LN4@getLineFro:
  00043	8b 45 f8	 mov	 eax, DWORD PTR _i$[ebp]
  00046	3b 05 00 00 00
	00		 cmp	 eax, DWORD PTR ?net_readbuflen@@3HA ; net_readbuflen
  0004c	0f 8d 9a 00 00
	00		 jge	 $LN3@getLineFro
  00052	8b 45 0c	 mov	 eax, DWORD PTR _maxlen$[ebp]
  00055	83 e8 01	 sub	 eax, 1
  00058	39 45 f8	 cmp	 DWORD PTR _i$[ebp], eax
  0005b	0f 8d 8b 00 00
	00		 jge	 $LN3@getLineFro

; 631  : 	{
; 632  : 		if( net_readbuf[i] == '\n' )

  00061	a1 00 00 00 00	 mov	 eax, DWORD PTR ?net_readbuf@@3PADA ; net_readbuf
  00066	03 45 f8	 add	 eax, DWORD PTR _i$[ebp]
  00069	0f be 08	 movsx	 ecx, BYTE PTR [eax]
  0006c	83 f9 0a	 cmp	 ecx, 10			; 0000000aH
  0006f	75 76		 jne	 SHORT $LN9@getLineFro

; 633  : 		{
; 634  : 			memcpy( output, net_readbuf, i );

  00071	8b 45 f8	 mov	 eax, DWORD PTR _i$[ebp]
  00074	50		 push	 eax
  00075	8b 0d 00 00 00
	00		 mov	 ecx, DWORD PTR ?net_readbuf@@3PADA ; net_readbuf
  0007b	51		 push	 ecx
  0007c	8b 55 08	 mov	 edx, DWORD PTR _output$[ebp]
  0007f	52		 push	 edx
  00080	e8 00 00 00 00	 call	 _memcpy
  00085	83 c4 0c	 add	 esp, 12			; 0000000cH

; 635  : 			output[i] = '\0';

  00088	8b 45 08	 mov	 eax, DWORD PTR _output$[ebp]
  0008b	03 45 f8	 add	 eax, DWORD PTR _i$[ebp]
  0008e	c6 00 00	 mov	 BYTE PTR [eax], 0

; 636  : 			// ?????????????? 0x0d??????
; 637  : 			for( j = i+1; j >= 0; j-- )

  00091	8b 45 f8	 mov	 eax, DWORD PTR _i$[ebp]
  00094	83 c0 01	 add	 eax, 1
  00097	89 45 ec	 mov	 DWORD PTR _j$[ebp], eax
  0009a	eb 09		 jmp	 SHORT $LN7@getLineFro
$LN5@getLineFro:
  0009c	8b 45 ec	 mov	 eax, DWORD PTR _j$[ebp]
  0009f	83 e8 01	 sub	 eax, 1
  000a2	89 45 ec	 mov	 DWORD PTR _j$[ebp], eax
$LN7@getLineFro:
  000a5	83 7d ec 00	 cmp	 DWORD PTR _j$[ebp], 0
  000a9	7c 1b		 jl	 SHORT $LN6@getLineFro

; 638  : 			{
; 639  : 				if( output[j] == 0x0d )

  000ab	8b 45 08	 mov	 eax, DWORD PTR _output$[ebp]
  000ae	03 45 ec	 add	 eax, DWORD PTR _j$[ebp]
  000b1	0f be 08	 movsx	 ecx, BYTE PTR [eax]
  000b4	83 f9 0d	 cmp	 ecx, 13			; 0000000dH
  000b7	75 0b		 jne	 SHORT $LN10@getLineFro

; 640  : 				{
; 641  : 					output[j] = '\0';

  000b9	8b 45 08	 mov	 eax, DWORD PTR _output$[ebp]
  000bc	03 45 ec	 add	 eax, DWORD PTR _j$[ebp]
  000bf	c6 00 00	 mov	 BYTE PTR [eax], 0

; 642  : 					break;

  000c2	eb 02		 jmp	 SHORT $LN6@getLineFro
$LN10@getLineFro:

; 643  : 				}
; 644  : 			}

  000c4	eb d6		 jmp	 SHORT $LN5@getLineFro
$LN6@getLineFro:

; 645  : 
; 646  : 			// ぇ???????
; 647  : 			shiftReadBuf( i+1 );

  000c6	8b 45 f8	 mov	 eax, DWORD PTR _i$[ebp]
  000c9	83 c0 01	 add	 eax, 1
  000cc	50		 push	 eax
  000cd	e8 00 00 00 00	 call	 ?shiftReadBuf@@YAHH@Z	; shiftReadBuf
  000d2	83 c4 04	 add	 esp, 4

; 648  : 
; 649  : 			// ??????D??????????????
; 650  : 			// ?????????????????????????????????
; 651  : 			net_readbuf[net_readbuflen] = '\0';

  000d5	a1 00 00 00 00	 mov	 eax, DWORD PTR ?net_readbuf@@3PADA ; net_readbuf
  000da	03 05 00 00 00
	00		 add	 eax, DWORD PTR ?net_readbuflen@@3HA ; net_readbuflen
  000e0	c6 00 00	 mov	 BYTE PTR [eax], 0

; 652  : 
; 653  : 			return 0;

  000e3	33 c0		 xor	 eax, eax
  000e5	eb 08		 jmp	 SHORT $LN1@getLineFro
$LN9@getLineFro:

; 654  : 		}
; 655  : 	}

  000e7	e9 4e ff ff ff	 jmp	 $LN2@getLineFro
$LN3@getLineFro:

; 656  : 	return -1;

  000ec	83 c8 ff	 or	 eax, -1
$LN1@getLineFro:

; 657  : }

  000ef	5f		 pop	 edi
  000f0	5e		 pop	 esi
  000f1	5b		 pop	 ebx
  000f2	81 c4 d8 00 00
	00		 add	 esp, 216		; 000000d8H
  000f8	3b ec		 cmp	 ebp, esp
  000fa	e8 00 00 00 00	 call	 __RTC_CheckEsp
  000ff	8b e5		 mov	 esp, ebp
  00101	5d		 pop	 ebp
  00102	c3		 ret	 0
?getLineFromReadBuf@@YAHPADH@Z ENDP			; getLineFromReadBuf
_TEXT	ENDS
; Function compile flags: /Odtp /RTCsu /ZI
; File c:\users\administrator\desktop\????? ??\????? ??\client source code\system\netmain.cpp
;	COMDAT ?shiftWriteBuf@@YAHH@Z
_TEXT	SEGMENT
_i$ = -8						; size = 4
_size$ = 8						; size = 4
?shiftWriteBuf@@YAHH@Z PROC				; shiftWriteBuf, COMDAT

; 602  : {

  00000	55		 push	 ebp
  00001	8b ec		 mov	 ebp, esp
  00003	81 ec cc 00 00
	00		 sub	 esp, 204		; 000000ccH
  00009	53		 push	 ebx
  0000a	56		 push	 esi
  0000b	57		 push	 edi
  0000c	8d bd 34 ff ff
	ff		 lea	 edi, DWORD PTR [ebp-204]
  00012	b9 33 00 00 00	 mov	 ecx, 51			; 00000033H
  00017	b8 cc cc cc cc	 mov	 eax, -858993460		; ccccccccH
  0001c	f3 ab		 rep stosd

; 603  : 	int i;
; 604  : 
; 605  : 	if( server_choosed == 0 )

  0001e	83 3d 00 00 00
	00 00		 cmp	 DWORD PTR ?server_choosed@@3HA, 0 ; server_choosed
  00025	75 07		 jne	 SHORT $LN5@shiftWrite

; 606  : 		return -100;

  00027	b8 9c ff ff ff	 mov	 eax, -100		; ffffff9cH
  0002c	eb 57		 jmp	 SHORT $LN1@shiftWrite
$LN5@shiftWrite:

; 607  : 	if( size > net_writebuflen )

  0002e	8b 45 08	 mov	 eax, DWORD PTR _size$[ebp]
  00031	3b 05 00 00 00
	00		 cmp	 eax, DWORD PTR ?net_writebuflen@@3HA ; net_writebuflen
  00037	7e 05		 jle	 SHORT $LN6@shiftWrite

; 608  : 		return -1;

  00039	83 c8 ff	 or	 eax, -1
  0003c	eb 47		 jmp	 SHORT $LN1@shiftWrite
$LN6@shiftWrite:

; 609  : 	for( i = size; i < net_writebuflen; i++ )

  0003e	8b 45 08	 mov	 eax, DWORD PTR _size$[ebp]
  00041	89 45 f8	 mov	 DWORD PTR _i$[ebp], eax
  00044	eb 09		 jmp	 SHORT $LN4@shiftWrite
$LN2@shiftWrite:
  00046	8b 45 f8	 mov	 eax, DWORD PTR _i$[ebp]
  00049	83 c0 01	 add	 eax, 1
  0004c	89 45 f8	 mov	 DWORD PTR _i$[ebp], eax
$LN4@shiftWrite:
  0004f	8b 45 f8	 mov	 eax, DWORD PTR _i$[ebp]
  00052	3b 05 00 00 00
	00		 cmp	 eax, DWORD PTR ?net_writebuflen@@3HA ; net_writebuflen
  00058	7d 1c		 jge	 SHORT $LN3@shiftWrite

; 610  : 	{
; 611  : 		net_writebuf[i-size] = net_writebuf[i];

  0005a	8b 45 f8	 mov	 eax, DWORD PTR _i$[ebp]
  0005d	2b 45 08	 sub	 eax, DWORD PTR _size$[ebp]
  00060	8b 0d 00 00 00
	00		 mov	 ecx, DWORD PTR ?net_writebuf@@3PADA ; net_writebuf
  00066	03 4d f8	 add	 ecx, DWORD PTR _i$[ebp]
  00069	8b 15 00 00 00
	00		 mov	 edx, DWORD PTR ?net_writebuf@@3PADA ; net_writebuf
  0006f	8a 09		 mov	 cl, BYTE PTR [ecx]
  00071	88 0c 02	 mov	 BYTE PTR [edx+eax], cl

; 612  : 	}

  00074	eb d0		 jmp	 SHORT $LN2@shiftWrite
$LN3@shiftWrite:

; 613  : 	net_writebuflen -= size;

  00076	a1 00 00 00 00	 mov	 eax, DWORD PTR ?net_writebuflen@@3HA ; net_writebuflen
  0007b	2b 45 08	 sub	 eax, DWORD PTR _size$[ebp]
  0007e	a3 00 00 00 00	 mov	 DWORD PTR ?net_writebuflen@@3HA, eax ; net_writebuflen

; 614  : 	return 0;

  00083	33 c0		 xor	 eax, eax
$LN1@shiftWrite:

; 615  : }

  00085	5f		 pop	 edi
  00086	5e		 pop	 esi
  00087	5b		 pop	 ebx
  00088	8b e5		 mov	 esp, ebp
  0008a	5d		 pop	 ebp
  0008b	c3		 ret	 0
?shiftWriteBuf@@YAHH@Z ENDP				; shiftWriteBuf
_TEXT	ENDS
; Function compile flags: /Odtp /RTCsu /ZI
; File c:\users\administrator\desktop\????? ??\????? ??\client source code\system\netmain.cpp
;	COMDAT ?shiftReadBuf@@YAHH@Z
_TEXT	SEGMENT
_i$ = -8						; size = 4
_size$ = 8						; size = 4
?shiftReadBuf@@YAHH@Z PROC				; shiftReadBuf, COMDAT

; 579  : {

  00000	55		 push	 ebp
  00001	8b ec		 mov	 ebp, esp
  00003	81 ec cc 00 00
	00		 sub	 esp, 204		; 000000ccH
  00009	53		 push	 ebx
  0000a	56		 push	 esi
  0000b	57		 push	 edi
  0000c	8d bd 34 ff ff
	ff		 lea	 edi, DWORD PTR [ebp-204]
  00012	b9 33 00 00 00	 mov	 ecx, 51			; 00000033H
  00017	b8 cc cc cc cc	 mov	 eax, -858993460		; ccccccccH
  0001c	f3 ab		 rep stosd

; 580  : 	int i;
; 581  : 	if( server_choosed == 0 )

  0001e	83 3d 00 00 00
	00 00		 cmp	 DWORD PTR ?server_choosed@@3HA, 0 ; server_choosed
  00025	75 07		 jne	 SHORT $LN5@shiftReadB

; 582  : 		return -100;

  00027	b8 9c ff ff ff	 mov	 eax, -100		; ffffff9cH
  0002c	eb 57		 jmp	 SHORT $LN1@shiftReadB
$LN5@shiftReadB:

; 583  : 
; 584  : 	if( size > net_readbuflen )

  0002e	8b 45 08	 mov	 eax, DWORD PTR _size$[ebp]
  00031	3b 05 00 00 00
	00		 cmp	 eax, DWORD PTR ?net_readbuflen@@3HA ; net_readbuflen
  00037	7e 05		 jle	 SHORT $LN6@shiftReadB

; 585  : 		return -1;

  00039	83 c8 ff	 or	 eax, -1
  0003c	eb 47		 jmp	 SHORT $LN1@shiftReadB
$LN6@shiftReadB:

; 586  : 	for( i = size; i < net_readbuflen; i++ )

  0003e	8b 45 08	 mov	 eax, DWORD PTR _size$[ebp]
  00041	89 45 f8	 mov	 DWORD PTR _i$[ebp], eax
  00044	eb 09		 jmp	 SHORT $LN4@shiftReadB
$LN2@shiftReadB:
  00046	8b 45 f8	 mov	 eax, DWORD PTR _i$[ebp]
  00049	83 c0 01	 add	 eax, 1
  0004c	89 45 f8	 mov	 DWORD PTR _i$[ebp], eax
$LN4@shiftReadB:
  0004f	8b 45 f8	 mov	 eax, DWORD PTR _i$[ebp]
  00052	3b 05 00 00 00
	00		 cmp	 eax, DWORD PTR ?net_readbuflen@@3HA ; net_readbuflen
  00058	7d 1c		 jge	 SHORT $LN3@shiftReadB

; 587  : 	{
; 588  : 		net_readbuf[i-size] = net_readbuf[i];

  0005a	8b 45 f8	 mov	 eax, DWORD PTR _i$[ebp]
  0005d	2b 45 08	 sub	 eax, DWORD PTR _size$[ebp]
  00060	8b 0d 00 00 00
	00		 mov	 ecx, DWORD PTR ?net_readbuf@@3PADA ; net_readbuf
  00066	03 4d f8	 add	 ecx, DWORD PTR _i$[ebp]
  00069	8b 15 00 00 00
	00		 mov	 edx, DWORD PTR ?net_readbuf@@3PADA ; net_readbuf
  0006f	8a 09		 mov	 cl, BYTE PTR [ecx]
  00071	88 0c 02	 mov	 BYTE PTR [edx+eax], cl

; 589  : 	}

  00074	eb d0		 jmp	 SHORT $LN2@shiftReadB
$LN3@shiftReadB:

; 590  : 	net_readbuflen -= size;

  00076	a1 00 00 00 00	 mov	 eax, DWORD PTR ?net_readbuflen@@3HA ; net_readbuflen
  0007b	2b 45 08	 sub	 eax, DWORD PTR _size$[ebp]
  0007e	a3 00 00 00 00	 mov	 DWORD PTR ?net_readbuflen@@3HA, eax ; net_readbuflen

; 591  : 	return 0;

  00083	33 c0		 xor	 eax, eax
$LN1@shiftReadB:

; 592  : }

  00085	5f		 pop	 edi
  00086	5e		 pop	 esi
  00087	5b		 pop	 ebx
  00088	8b e5		 mov	 esp, ebp
  0008a	5d		 pop	 ebp
  0008b	c3		 ret	 0
?shiftReadBuf@@YAHH@Z ENDP				; shiftReadBuf
_TEXT	ENDS
; Function compile flags: /Odtp /RTCsu /ZI
; File c:\users\administrator\desktop\????? ??\????? ??\client source code\system\netmain.cpp
;	COMDAT ?appendWriteBuf@@YAHHPADH@Z
_TEXT	SEGMENT
_ret$ = -20						; size = 4
_oldprotect$ = -8					; size = 4
_index$ = 8						; size = 4
_buf$ = 12						; size = 4
_size$ = 16						; size = 4
?appendWriteBuf@@YAHHPADH@Z PROC			; appendWriteBuf, COMDAT

; 548  : {

  00000	55		 push	 ebp
  00001	8b ec		 mov	 ebp, esp
  00003	81 ec d8 00 00
	00		 sub	 esp, 216		; 000000d8H
  00009	53		 push	 ebx
  0000a	56		 push	 esi
  0000b	57		 push	 edi
  0000c	8d bd 28 ff ff
	ff		 lea	 edi, DWORD PTR [ebp-216]
  00012	b9 36 00 00 00	 mov	 ecx, 54			; 00000036H
  00017	b8 cc cc cc cc	 mov	 eax, -858993460		; ccccccccH
  0001c	f3 ab		 rep stosd

; 549  : 	if( server_choosed == 0 )

  0001e	83 3d 00 00 00
	00 00		 cmp	 DWORD PTR ?server_choosed@@3HA, 0 ; server_choosed
  00025	75 0a		 jne	 SHORT $LN2@appendWrit

; 550  : 		return -100;

  00027	b8 9c ff ff ff	 mov	 eax, -100		; ffffff9cH
  0002c	e9 88 00 00 00	 jmp	 $LN1@appendWrit
$LN2@appendWrit:

; 551  : #ifndef __NEW_CLIENT_MEM
; 552  : 	if( (net_writebuflen + size) > NETBUFSIZ )
; 553  : 		return -1;
; 554  : 	memcpy( net_writebuf + net_writebuflen, buf, size );
; 555  : 	net_writebuflen += size;
; 556  : #else
; 557  : 	DWORD oldprotect;
; 558  : 	BOOL ret;
; 559  : 	ret = VirtualProtect( net_writebuf, NETBUFSIZ, PAGE_READWRITE, &oldprotect);

  00031	8b f4		 mov	 esi, esp
  00033	8d 45 f8	 lea	 eax, DWORD PTR _oldprotect$[ebp]
  00036	50		 push	 eax
  00037	6a 04		 push	 4
  00039	68 00 40 00 00	 push	 16384			; 00004000H
  0003e	8b 0d 00 00 00
	00		 mov	 ecx, DWORD PTR ?net_writebuf@@3PADA ; net_writebuf
  00044	51		 push	 ecx
  00045	ff 15 00 00 00
	00		 call	 DWORD PTR __imp__VirtualProtect@16
  0004b	3b f4		 cmp	 esi, esp
  0004d	e8 00 00 00 00	 call	 __RTC_CheckEsp
  00052	89 45 ec	 mov	 DWORD PTR _ret$[ebp], eax

; 560  : 
; 561  : 	if( (net_writebuflen + size) > NETBUFSIZ )

  00055	a1 00 00 00 00	 mov	 eax, DWORD PTR ?net_writebuflen@@3HA ; net_writebuflen
  0005a	03 45 10	 add	 eax, DWORD PTR _size$[ebp]
  0005d	3d 00 40 00 00	 cmp	 eax, 16384		; 00004000H
  00062	7e 05		 jle	 SHORT $LN3@appendWrit

; 562  : 		return -1;

  00064	83 c8 ff	 or	 eax, -1
  00067	eb 50		 jmp	 SHORT $LN1@appendWrit
$LN3@appendWrit:

; 563  : 	memcpy( net_writebuf + net_writebuflen, buf, size );

  00069	8b 45 10	 mov	 eax, DWORD PTR _size$[ebp]
  0006c	50		 push	 eax
  0006d	8b 4d 0c	 mov	 ecx, DWORD PTR _buf$[ebp]
  00070	51		 push	 ecx
  00071	8b 15 00 00 00
	00		 mov	 edx, DWORD PTR ?net_writebuf@@3PADA ; net_writebuf
  00077	03 15 00 00 00
	00		 add	 edx, DWORD PTR ?net_writebuflen@@3HA ; net_writebuflen
  0007d	52		 push	 edx
  0007e	e8 00 00 00 00	 call	 _memcpy
  00083	83 c4 0c	 add	 esp, 12			; 0000000cH

; 564  : 	net_writebuflen += size;

  00086	a1 00 00 00 00	 mov	 eax, DWORD PTR ?net_writebuflen@@3HA ; net_writebuflen
  0008b	03 45 10	 add	 eax, DWORD PTR _size$[ebp]
  0008e	a3 00 00 00 00	 mov	 DWORD PTR ?net_writebuflen@@3HA, eax ; net_writebuflen

; 565  : 
; 566  : 	ret = VirtualProtect( net_writebuf, NETBUFSIZ, PAGE_NOACCESS, &oldprotect);

  00093	8b f4		 mov	 esi, esp
  00095	8d 45 f8	 lea	 eax, DWORD PTR _oldprotect$[ebp]
  00098	50		 push	 eax
  00099	6a 01		 push	 1
  0009b	68 00 40 00 00	 push	 16384			; 00004000H
  000a0	8b 0d 00 00 00
	00		 mov	 ecx, DWORD PTR ?net_writebuf@@3PADA ; net_writebuf
  000a6	51		 push	 ecx
  000a7	ff 15 00 00 00
	00		 call	 DWORD PTR __imp__VirtualProtect@16
  000ad	3b f4		 cmp	 esi, esp
  000af	e8 00 00 00 00	 call	 __RTC_CheckEsp
  000b4	89 45 ec	 mov	 DWORD PTR _ret$[ebp], eax

; 567  : #endif
; 568  : 	return 0;

  000b7	33 c0		 xor	 eax, eax
$LN1@appendWrit:

; 569  : }

  000b9	52		 push	 edx
  000ba	8b cd		 mov	 ecx, ebp
  000bc	50		 push	 eax
  000bd	8d 15 00 00 00
	00		 lea	 edx, DWORD PTR $LN7@appendWrit
  000c3	e8 00 00 00 00	 call	 @_RTC_CheckStackVars@8
  000c8	58		 pop	 eax
  000c9	5a		 pop	 edx
  000ca	5f		 pop	 edi
  000cb	5e		 pop	 esi
  000cc	5b		 pop	 ebx
  000cd	81 c4 d8 00 00
	00		 add	 esp, 216		; 000000d8H
  000d3	3b ec		 cmp	 ebp, esp
  000d5	e8 00 00 00 00	 call	 __RTC_CheckEsp
  000da	8b e5		 mov	 esp, ebp
  000dc	5d		 pop	 ebp
  000dd	c3		 ret	 0
  000de	66 90		 npad	 2
$LN7@appendWrit:
  000e0	01 00 00 00	 DD	 1
  000e4	00 00 00 00	 DD	 $LN6@appendWrit
$LN6@appendWrit:
  000e8	f8 ff ff ff	 DD	 -8			; fffffff8H
  000ec	04 00 00 00	 DD	 4
  000f0	00 00 00 00	 DD	 $LN5@appendWrit
$LN5@appendWrit:
  000f4	6f		 DB	 111			; 0000006fH
  000f5	6c		 DB	 108			; 0000006cH
  000f6	64		 DB	 100			; 00000064H
  000f7	70		 DB	 112			; 00000070H
  000f8	72		 DB	 114			; 00000072H
  000f9	6f		 DB	 111			; 0000006fH
  000fa	74		 DB	 116			; 00000074H
  000fb	65		 DB	 101			; 00000065H
  000fc	63		 DB	 99			; 00000063H
  000fd	74		 DB	 116			; 00000074H
  000fe	00		 DB	 0
?appendWriteBuf@@YAHHPADH@Z ENDP			; appendWriteBuf
_TEXT	ENDS
; Function compile flags: /Odtp /RTCsu /ZI
; File c:\users\administrator\desktop\????? ??\????? ??\client source code\system\netmain.cpp
;	COMDAT ?appendReadBuf@@YAHPADH@Z
_TEXT	SEGMENT
_buf$ = 8						; size = 4
_size$ = 12						; size = 4
?appendReadBuf@@YAHPADH@Z PROC				; appendReadBuf, COMDAT

; 529  : {

  00000	55		 push	 ebp
  00001	8b ec		 mov	 ebp, esp
  00003	81 ec c0 00 00
	00		 sub	 esp, 192		; 000000c0H
  00009	53		 push	 ebx
  0000a	56		 push	 esi
  0000b	57		 push	 edi
  0000c	8d bd 40 ff ff
	ff		 lea	 edi, DWORD PTR [ebp-192]
  00012	b9 30 00 00 00	 mov	 ecx, 48			; 00000030H
  00017	b8 cc cc cc cc	 mov	 eax, -858993460		; ccccccccH
  0001c	f3 ab		 rep stosd

; 530  : 	if( server_choosed == 0 )

  0001e	83 3d 00 00 00
	00 00		 cmp	 DWORD PTR ?server_choosed@@3HA, 0 ; server_choosed
  00025	75 07		 jne	 SHORT $LN2@appendRead

; 531  : 		return -100;

  00027	b8 9c ff ff ff	 mov	 eax, -100		; ffffff9cH
  0002c	eb 40		 jmp	 SHORT $LN1@appendRead
$LN2@appendRead:

; 532  : 
; 533  : 	if( (net_readbuflen + size) > NETBUFSIZ )

  0002e	a1 00 00 00 00	 mov	 eax, DWORD PTR ?net_readbuflen@@3HA ; net_readbuflen
  00033	03 45 0c	 add	 eax, DWORD PTR _size$[ebp]
  00036	3d 00 40 00 00	 cmp	 eax, 16384		; 00004000H
  0003b	7e 05		 jle	 SHORT $LN3@appendRead

; 534  :         return -1;

  0003d	83 c8 ff	 or	 eax, -1
  00040	eb 2c		 jmp	 SHORT $LN1@appendRead
$LN3@appendRead:

; 535  : 
; 536  : 	memcpy( net_readbuf + net_readbuflen, buf, size );

  00042	8b 45 0c	 mov	 eax, DWORD PTR _size$[ebp]
  00045	50		 push	 eax
  00046	8b 4d 08	 mov	 ecx, DWORD PTR _buf$[ebp]
  00049	51		 push	 ecx
  0004a	8b 15 00 00 00
	00		 mov	 edx, DWORD PTR ?net_readbuf@@3PADA ; net_readbuf
  00050	03 15 00 00 00
	00		 add	 edx, DWORD PTR ?net_readbuflen@@3HA ; net_readbuflen
  00056	52		 push	 edx
  00057	e8 00 00 00 00	 call	 _memcpy
  0005c	83 c4 0c	 add	 esp, 12			; 0000000cH

; 537  : 	net_readbuflen += size;

  0005f	a1 00 00 00 00	 mov	 eax, DWORD PTR ?net_readbuflen@@3HA ; net_readbuflen
  00064	03 45 0c	 add	 eax, DWORD PTR _size$[ebp]
  00067	a3 00 00 00 00	 mov	 DWORD PTR ?net_readbuflen@@3HA, eax ; net_readbuflen

; 538  : 	return 0;

  0006c	33 c0		 xor	 eax, eax
$LN1@appendRead:

; 539  : }

  0006e	5f		 pop	 edi
  0006f	5e		 pop	 esi
  00070	5b		 pop	 ebx
  00071	81 c4 c0 00 00
	00		 add	 esp, 192		; 000000c0H
  00077	3b ec		 cmp	 ebp, esp
  00079	e8 00 00 00 00	 call	 __RTC_CheckEsp
  0007e	8b e5		 mov	 esp, ebp
  00080	5d		 pop	 ebp
  00081	c3		 ret	 0
?appendReadBuf@@YAHPADH@Z ENDP				; appendReadBuf
_TEXT	ENDS
; Function compile flags: /Odtp /RTCsu /ZI
; File c:\users\administrator\desktop\????? ??\????? ??\client source code\system\netmain.cpp
;	COMDAT ?cleanupNetwork@@YAXXZ
_TEXT	SEGMENT
?cleanupNetwork@@YAXXZ PROC				; cleanupNetwork, COMDAT

; 503  : {

  00000	55		 push	 ebp
  00001	8b ec		 mov	 ebp, esp
  00003	81 ec c0 00 00
	00		 sub	 esp, 192		; 000000c0H
  00009	53		 push	 ebx
  0000a	56		 push	 esi
  0000b	57		 push	 edi
  0000c	8d bd 40 ff ff
	ff		 lea	 edi, DWORD PTR [ebp-192]
  00012	b9 30 00 00 00	 mov	 ecx, 48			; 00000030H
  00017	b8 cc cc cc cc	 mov	 eax, -858993460		; ccccccccH
  0001c	f3 ab		 rep stosd

; 504  : 	if( init_net == FALSE )

  0001e	83 3d 00 00 00
	00 00		 cmp	 DWORD PTR ?init_net@@3HA, 0 ; init_net
  00025	75 02		 jne	 SHORT $LN2@cleanupNet

; 505  : 		return;

  00027	eb 47		 jmp	 SHORT $LN1@cleanupNet
$LN2@cleanupNet:

; 506  : 
; 507  : 	init_net = FALSE;

  00029	c7 05 00 00 00
	00 00 00 00 00	 mov	 DWORD PTR ?init_net@@3HA, 0 ; init_net

; 508  : 	server_choosed = 0;

  00033	c7 05 00 00 00
	00 00 00 00 00	 mov	 DWORD PTR ?server_choosed@@3HA, 0 ; server_choosed

; 509  : 
; 510  : 	disconnectServerFlag = FALSE;

  0003d	c7 05 00 00 00
	00 00 00 00 00	 mov	 DWORD PTR ?disconnectServerFlag@@3HA, 0 ; disconnectServerFlag

; 511  : 	oldDisconnectServerFlag = FALSE;

  00047	c7 05 00 00 00
	00 00 00 00 00	 mov	 DWORD PTR ?oldDisconnectServerFlag@@3HA, 0 ; oldDisconnectServerFlag

; 512  : 
; 513  : 	closesocket( sockfd );

  00051	a1 00 00 00 00	 mov	 eax, DWORD PTR ?sockfd@@3IA ; sockfd
  00056	50		 push	 eax
  00057	e8 00 00 00 00	 call	 _closesocket@4

; 514  : 	dwServer = NULL;

  0005c	c7 05 00 00 00
	00 00 00 00 00	 mov	 DWORD PTR ?dwServer@@3KA, 0 ; dwServer

; 515  : 	WSACleanup();

  00066	e8 00 00 00 00	 call	 _WSACleanup@0

; 516  : 
; 517  : 	// lsrpc?????????????????????
; 518  : 	// ????????????????????????????
; 519  : 	lssproto_CleanupClient();

  0006b	e8 00 00 00 00	 call	 ?lssproto_CleanupClient@@YAXXZ ; lssproto_CleanupClient
$LN1@cleanupNet:

; 520  : }

  00070	5f		 pop	 edi
  00071	5e		 pop	 esi
  00072	5b		 pop	 ebx
  00073	81 c4 c0 00 00
	00		 add	 esp, 192		; 000000c0H
  00079	3b ec		 cmp	 ebp, esp
  0007b	e8 00 00 00 00	 call	 __RTC_CheckEsp
  00080	8b e5		 mov	 esp, ebp
  00082	5d		 pop	 ebp
  00083	c3		 ret	 0
?cleanupNetwork@@YAXXZ ENDP				; cleanupNetwork
_TEXT	ENDS
; Function compile flags: /Odtp /RTCsu /ZI
; File c:\users\administrator\desktop\????? ??\????? ??\client source code\system\netmain.cpp
;	COMDAT ?initNet@@YAHXZ
_TEXT	SEGMENT
_wsadata$ = -420					; size = 400
_ret$ = -12						; size = 4
__$ArrayPad$ = -4					; size = 4
?initNet@@YAHXZ PROC					; initNet, COMDAT

; 456  : {

  00000	55		 push	 ebp
  00001	8b ec		 mov	 ebp, esp
  00003	81 ec 68 02 00
	00		 sub	 esp, 616		; 00000268H
  00009	53		 push	 ebx
  0000a	56		 push	 esi
  0000b	57		 push	 edi
  0000c	8d bd 98 fd ff
	ff		 lea	 edi, DWORD PTR [ebp-616]
  00012	b9 9a 00 00 00	 mov	 ecx, 154		; 0000009aH
  00017	b8 cc cc cc cc	 mov	 eax, -858993460		; ccccccccH
  0001c	f3 ab		 rep stosd
  0001e	a1 00 00 00 00	 mov	 eax, DWORD PTR ___security_cookie
  00023	33 c5		 xor	 eax, ebp
  00025	89 45 fc	 mov	 DWORD PTR __$ArrayPad$[ebp], eax

; 457  : 	int ret;
; 458  : 	WSADATA wsadata;
; 459  : 
; 460  : 	// winsock??????
; 461  :     ret = WSAStartup( MAKEWORD( 1, 1 ), &wsadata );

  00028	8d 85 5c fe ff
	ff		 lea	 eax, DWORD PTR _wsadata$[ebp]
  0002e	50		 push	 eax
  0002f	68 01 01 00 00	 push	 257			; 00000101H
  00034	e8 00 00 00 00	 call	 _WSAStartup@8
  00039	89 45 f4	 mov	 DWORD PTR _ret$[ebp], eax

; 462  : 	if( ret != 0 )

  0003c	83 7d f4 00	 cmp	 DWORD PTR _ret$[ebp], 0
  00040	74 04		 je	 SHORT $LN2@initNet

; 463  : 		return FALSE;

  00042	33 c0		 xor	 eax, eax
  00044	eb 3b		 jmp	 SHORT $LN1@initNet
$LN2@initNet:

; 464  : 
; 465  :     // lssproto????
; 466  : //cary test	lssproto_InitClient( appendWriteBuf, 65536, sockfd );
; 467  : 	lssproto_InitClient( appendWriteBuf, NETBUFSIZ, sockfd );

  00046	a1 00 00 00 00	 mov	 eax, DWORD PTR ?sockfd@@3IA ; sockfd
  0004b	50		 push	 eax
  0004c	68 00 40 00 00	 push	 16384			; 00004000H
  00051	68 00 00 00 00	 push	 OFFSET ?appendWriteBuf@@YAHHPADH@Z ; appendWriteBuf
  00056	e8 00 00 00 00	 call	 ?lssproto_InitClient@@YAHP6AHHPADH@ZHH@Z ; lssproto_InitClient
  0005b	83 c4 0c	 add	 esp, 12			; 0000000cH

; 468  : 
; 469  : #ifdef _LOG_MSG
; 470  : 	//??????
; 471  : 	//CC FIX
; 472  : 	//20170813
; 473  : 	//_LOG_MSG定义在工程文件里
; 474  : 	//为避免出现共同开发工程文件不同的问题，建议 _LOG_MSG里的代码先注释
; 475  : 	{
; 476  : 		// ????????????
; 477  : 		FILE *fp;
; 478  : 		fp = fopen( debugLogFileName, "w" );
; 479  : 		fclose(fp);
; 480  : 	}
; 481  : 	lssproto_SetClientLogFiles( debugLogFileName , debugLogFileName );
; 482  : #endif
; 483  : 
; 484  : #ifdef _LOG_MSG
; 485  : 		{	// 觚????????????????
; 486  : 			FILE *fp = fopen( "recvtime.txt", "w" );
; 487  : 			if( fp ) fclose( fp );
; 488  : 		}
; 489  : #endif	
; 490  : 
; 491  : 	init_net = TRUE;

  0005e	c7 05 00 00 00
	00 01 00 00 00	 mov	 DWORD PTR ?init_net@@3HA, 1 ; init_net

; 492  : 	disconnectServerFlag = FALSE;

  00068	c7 05 00 00 00
	00 00 00 00 00	 mov	 DWORD PTR ?disconnectServerFlag@@3HA, 0 ; disconnectServerFlag

; 493  : 	oldDisconnectServerFlag = FALSE;

  00072	c7 05 00 00 00
	00 00 00 00 00	 mov	 DWORD PTR ?oldDisconnectServerFlag@@3HA, 0 ; oldDisconnectServerFlag

; 494  : 
; 495  : 	return TRUE;

  0007c	b8 01 00 00 00	 mov	 eax, 1
$LN1@initNet:

; 496  : }

  00081	52		 push	 edx
  00082	8b cd		 mov	 ecx, ebp
  00084	50		 push	 eax
  00085	8d 15 00 00 00
	00		 lea	 edx, DWORD PTR $LN6@initNet
  0008b	e8 00 00 00 00	 call	 @_RTC_CheckStackVars@8
  00090	58		 pop	 eax
  00091	5a		 pop	 edx
  00092	5f		 pop	 edi
  00093	5e		 pop	 esi
  00094	5b		 pop	 ebx
  00095	8b 4d fc	 mov	 ecx, DWORD PTR __$ArrayPad$[ebp]
  00098	33 cd		 xor	 ecx, ebp
  0009a	e8 00 00 00 00	 call	 @__security_check_cookie@4
  0009f	81 c4 68 02 00
	00		 add	 esp, 616		; 00000268H
  000a5	3b ec		 cmp	 ebp, esp
  000a7	e8 00 00 00 00	 call	 __RTC_CheckEsp
  000ac	8b e5		 mov	 esp, ebp
  000ae	5d		 pop	 ebp
  000af	c3		 ret	 0
$LN6@initNet:
  000b0	01 00 00 00	 DD	 1
  000b4	00 00 00 00	 DD	 $LN5@initNet
$LN5@initNet:
  000b8	5c fe ff ff	 DD	 -420			; fffffe5cH
  000bc	90 01 00 00	 DD	 400			; 00000190H
  000c0	00 00 00 00	 DD	 $LN4@initNet
$LN4@initNet:
  000c4	77		 DB	 119			; 00000077H
  000c5	73		 DB	 115			; 00000073H
  000c6	61		 DB	 97			; 00000061H
  000c7	64		 DB	 100			; 00000064H
  000c8	61		 DB	 97			; 00000061H
  000c9	74		 DB	 116			; 00000074H
  000ca	61		 DB	 97			; 00000061H
  000cb	00		 DB	 0
?initNet@@YAHXZ ENDP					; initNet
_TEXT	ENDS
; Function compile flags: /Odtp /RTCsu /ZI
; File c:\users\administrator\desktop\????? ??\????? ??\client source code\system\netmain.cpp
;	COMDAT ?networkLoop@@YAXXZ
_TEXT	SEGMENT
_func$2 = -892						; size = 4
_oldprotect$ = -880					; size = 4
_ret$ = -868						; size = 4
_len$ = -856						; size = 4
_a$ = -844						; size = 4
_tm$ = -832						; size = 8
_efds$ = -816						; size = 260
_wfds$ = -548						; size = 260
_rfds$ = -280						; size = 260
__$ArrayPad$ = -16					; size = 4
__$EHRec$ = -12						; size = 12
?networkLoop@@YAXXZ PROC				; networkLoop, COMDAT

; 282  : {

  00000	55		 push	 ebp
  00001	8b ec		 mov	 ebp, esp
  00003	6a ff		 push	 -1
  00005	68 00 00 00 00	 push	 __ehhandler$?networkLoop@@YAXXZ
  0000a	64 a1 00 00 00
	00		 mov	 eax, DWORD PTR fs:0
  00010	50		 push	 eax
  00011	81 ec f4 04 00
	00		 sub	 esp, 1268		; 000004f4H
  00017	53		 push	 ebx
  00018	56		 push	 esi
  00019	57		 push	 edi
  0001a	8d bd 00 fb ff
	ff		 lea	 edi, DWORD PTR [ebp-1280]
  00020	b9 3d 01 00 00	 mov	 ecx, 317		; 0000013dH
  00025	b8 cc cc cc cc	 mov	 eax, -858993460		; ccccccccH
  0002a	f3 ab		 rep stosd
  0002c	a1 00 00 00 00	 mov	 eax, DWORD PTR ___security_cookie
  00031	33 c5		 xor	 eax, ebp
  00033	89 45 f0	 mov	 DWORD PTR __$ArrayPad$[ebp], eax
  00036	50		 push	 eax
  00037	8d 45 f4	 lea	 eax, DWORD PTR __$EHRec$[ebp]
  0003a	64 a3 00 00 00
	00		 mov	 DWORD PTR fs:0, eax

; 283  : 	if( init_net == FALSE )

  00040	83 3d 00 00 00
	00 00		 cmp	 DWORD PTR ?init_net@@3HA, 0 ; init_net
  00047	75 05		 jne	 SHORT $LN14@networkLoo

; 284  : 		return;

  00049	e9 d5 04 00 00	 jmp	 $LN1@networkLoo
$LN14@networkLoo:

; 285  : 
; 286  : 	if( disconnectServerFlag && !oldDisconnectServerFlag){

  0004e	83 3d 00 00 00
	00 00		 cmp	 DWORD PTR ?disconnectServerFlag@@3HA, 0 ; disconnectServerFlag
  00055	74 13		 je	 SHORT $LN15@networkLoo
  00057	83 3d 00 00 00
	00 00		 cmp	 DWORD PTR ?oldDisconnectServerFlag@@3HA, 0 ; oldDisconnectServerFlag
  0005e	75 0a		 jne	 SHORT $LN15@networkLoo

; 287  : 		// ???????e???
; 288  : 		ChangeProc( PROC_DISCONNECT_SERVER );

  00060	6a 0b		 push	 11			; 0000000bH
  00062	e8 00 00 00 00	 call	 ?ChangeProc@@YAXH@Z	; ChangeProc
  00067	83 c4 04	 add	 esp, 4
$LN15@networkLoo:

; 289  : 	}
; 290  : 	oldDisconnectServerFlag = disconnectServerFlag;

  0006a	a1 00 00 00 00	 mov	 eax, DWORD PTR ?disconnectServerFlag@@3HA ; disconnectServerFlag
  0006f	a3 00 00 00 00	 mov	 DWORD PTR ?oldDisconnectServerFlag@@3HA, eax ; oldDisconnectServerFlag

; 291  : 	if( disconnectServerFlag)

  00074	83 3d 00 00 00
	00 00		 cmp	 DWORD PTR ?disconnectServerFlag@@3HA, 0 ; disconnectServerFlag
  0007b	74 05		 je	 SHORT $LN16@networkLoo

; 292  : 		return;

  0007d	e9 a1 04 00 00	 jmp	 $LN1@networkLoo
$LN16@networkLoo:

; 293  : 
; 294  :     if( server_choosed == 0)return;

  00082	83 3d 00 00 00
	00 00		 cmp	 DWORD PTR ?server_choosed@@3HA, 0 ; server_choosed
  00089	75 05		 jne	 SHORT $LN17@networkLoo
  0008b	e9 93 04 00 00	 jmp	 $LN1@networkLoo
$LN17@networkLoo:

; 295  : 	fd_set rfds , wfds, efds;
; 296  : 	
; 297  : 	struct timeval tm;
; 298  : 	tm.tv_sec = 0;

  00090	c7 85 c0 fc ff
	ff 00 00 00 00	 mov	 DWORD PTR _tm$[ebp], 0

; 299  : 	tm.tv_usec = 0;

  0009a	c7 85 c4 fc ff
	ff 00 00 00 00	 mov	 DWORD PTR _tm$[ebp+4], 0

; 300  : 
; 301  : 	FD_ZERO( &rfds );

  000a4	c7 85 e8 fe ff
	ff 00 00 00 00	 mov	 DWORD PTR _rfds$[ebp], 0

; 302  : 	FD_ZERO( &wfds );

  000ae	c7 85 dc fd ff
	ff 00 00 00 00	 mov	 DWORD PTR _wfds$[ebp], 0

; 303  : 	FD_ZERO( &efds );

  000b8	c7 85 d0 fc ff
	ff 00 00 00 00	 mov	 DWORD PTR _efds$[ebp], 0
$LN4@networkLoo:

; 304  : 
; 305  : 	FD_SET( sockfd , &rfds );

  000c2	83 bd e8 fe ff
	ff 40		 cmp	 DWORD PTR _rfds$[ebp], 64 ; 00000040H
  000c9	73 22		 jae	 SHORT $LN2@networkLoo
  000cb	8b 85 e8 fe ff
	ff		 mov	 eax, DWORD PTR _rfds$[ebp]
  000d1	8b 0d 00 00 00
	00		 mov	 ecx, DWORD PTR ?sockfd@@3IA ; sockfd
  000d7	89 8c 85 ec fe
	ff ff		 mov	 DWORD PTR _rfds$[ebp+eax*4+4], ecx
  000de	8b 95 e8 fe ff
	ff		 mov	 edx, DWORD PTR _rfds$[ebp]
  000e4	83 c2 01	 add	 edx, 1
  000e7	89 95 e8 fe ff
	ff		 mov	 DWORD PTR _rfds$[ebp], edx
$LN2@networkLoo:
  000ed	33 c0		 xor	 eax, eax
  000ef	75 d1		 jne	 SHORT $LN4@networkLoo
$LN7@networkLoo:

; 306  : 	FD_SET( sockfd , &wfds );

  000f1	83 bd dc fd ff
	ff 40		 cmp	 DWORD PTR _wfds$[ebp], 64 ; 00000040H
  000f8	73 22		 jae	 SHORT $LN5@networkLoo
  000fa	8b 85 dc fd ff
	ff		 mov	 eax, DWORD PTR _wfds$[ebp]
  00100	8b 0d 00 00 00
	00		 mov	 ecx, DWORD PTR ?sockfd@@3IA ; sockfd
  00106	89 8c 85 e0 fd
	ff ff		 mov	 DWORD PTR _wfds$[ebp+eax*4+4], ecx
  0010d	8b 95 dc fd ff
	ff		 mov	 edx, DWORD PTR _wfds$[ebp]
  00113	83 c2 01	 add	 edx, 1
  00116	89 95 dc fd ff
	ff		 mov	 DWORD PTR _wfds$[ebp], edx
$LN5@networkLoo:
  0011c	33 c0		 xor	 eax, eax
  0011e	75 d1		 jne	 SHORT $LN7@networkLoo
$LN10@networkLoo:

; 307  : 	FD_SET( sockfd , &efds );

  00120	83 bd d0 fc ff
	ff 40		 cmp	 DWORD PTR _efds$[ebp], 64 ; 00000040H
  00127	73 22		 jae	 SHORT $LN8@networkLoo
  00129	8b 85 d0 fc ff
	ff		 mov	 eax, DWORD PTR _efds$[ebp]
  0012f	8b 0d 00 00 00
	00		 mov	 ecx, DWORD PTR ?sockfd@@3IA ; sockfd
  00135	89 8c 85 d4 fc
	ff ff		 mov	 DWORD PTR _efds$[ebp+eax*4+4], ecx
  0013c	8b 95 d0 fc ff
	ff		 mov	 edx, DWORD PTR _efds$[ebp]
  00142	83 c2 01	 add	 edx, 1
  00145	89 95 d0 fc ff
	ff		 mov	 DWORD PTR _efds$[ebp], edx
$LN8@networkLoo:
  0014b	33 c0		 xor	 eax, eax
  0014d	75 d1		 jne	 SHORT $LN10@networkLoo

; 308  : 
; 309  : 	int a = select(  2 , &rfds , &wfds , (fd_set*)NULL, &tm );

  0014f	8d 85 c0 fc ff
	ff		 lea	 eax, DWORD PTR _tm$[ebp]
  00155	50		 push	 eax
  00156	6a 00		 push	 0
  00158	8d 8d dc fd ff
	ff		 lea	 ecx, DWORD PTR _wfds$[ebp]
  0015e	51		 push	 ecx
  0015f	8d 95 e8 fe ff
	ff		 lea	 edx, DWORD PTR _rfds$[ebp]
  00165	52		 push	 edx
  00166	6a 02		 push	 2
  00168	e8 00 00 00 00	 call	 _select@20
  0016d	89 85 b4 fc ff
	ff		 mov	 DWORD PTR _a$[ebp], eax

; 310  : #if 0
; 311  : 	if( FD_ISSET( sockfd , &efds )){
; 312  : 		char buf[256]; 
; 313  : 		memset( buf , 0 , sizeof(buf));
; 314  : 		int len = recv( sockfd , buf , sizeof( buf ) -1 , 0 );
; 315  : 		if( len == SOCKET_ERROR ){
; 316  : #ifdef  _STONDEBUG_
; 317  : 			CheckNetErrror();
; 318  : #endif
; 319  : 			closesocket( sockfd );
; 320  : 			dwServer = NULL;
; 321  : 			// ??????Q?N???????
; 322  : 			disconnectServerFlag = TRUE;
; 323  : 		}
; 324  : 	}
; 325  : #endif
; 326  : 	
; 327  : 	// 觚???
; 328  : 	int len = SOCKET_ERROR;

  00173	c7 85 a8 fc ff
	ff ff ff ff ff	 mov	 DWORD PTR _len$[ebp], -1

; 329  : #ifdef __NEW_CLIENT_MEM
; 330  : 	BOOL ret;
; 331  : 	DWORD oldprotect;
; 332  : #ifndef __NEW_CLIENT_ONLY_WRITE
; 333  : 	ret = VirtualProtect( net_readbuf, NETBUFSIZ, PAGE_READWRITE, &oldprotect);

  0017d	8b f4		 mov	 esi, esp
  0017f	8d 85 90 fc ff
	ff		 lea	 eax, DWORD PTR _oldprotect$[ebp]
  00185	50		 push	 eax
  00186	6a 04		 push	 4
  00188	68 00 40 00 00	 push	 16384			; 00004000H
  0018d	8b 0d 00 00 00
	00		 mov	 ecx, DWORD PTR ?net_readbuf@@3PADA ; net_readbuf
  00193	51		 push	 ecx
  00194	ff 15 00 00 00
	00		 call	 DWORD PTR __imp__VirtualProtect@16
  0019a	3b f4		 cmp	 esi, esp
  0019c	e8 00 00 00 00	 call	 __RTC_CheckEsp
  001a1	89 85 9c fc ff
	ff		 mov	 DWORD PTR _ret$[ebp], eax

; 334  : #endif
; 335  : #endif
; 336  : 	if( FD_ISSET( sockfd , &rfds) ){

  001a7	8d 85 e8 fe ff
	ff		 lea	 eax, DWORD PTR _rfds$[ebp]
  001ad	50		 push	 eax
  001ae	8b 0d 00 00 00
	00		 mov	 ecx, DWORD PTR ?sockfd@@3IA ; sockfd
  001b4	51		 push	 ecx
  001b5	e8 00 00 00 00	 call	 ___WSAFDIsSet@8
  001ba	85 c0		 test	 eax, eax
  001bc	0f 84 d1 00 00
	00		 je	 $LN11@networkLoo

; 337  : 		len = recv( sockfd , rpc_linebuffer , (NETBUFSIZ >> 1) - 1, 0 );

  001c2	6a 00		 push	 0
  001c4	68 ff 1f 00 00	 push	 8191			; 00001fffH
  001c9	68 00 00 00 00	 push	 OFFSET ?rpc_linebuffer@@3PADA ; rpc_linebuffer
  001ce	a1 00 00 00 00	 mov	 eax, DWORD PTR ?sockfd@@3IA ; sockfd
  001d3	50		 push	 eax
  001d4	e8 00 00 00 00	 call	 _recv@16
  001d9	89 85 a8 fc ff
	ff		 mov	 DWORD PTR _len$[ebp], eax

; 338  : 		if (isWGS7) {

  001df	83 3d 00 00 00
	00 00		 cmp	 DWORD PTR ?isWGS7@@3HA, 0 ; isWGS7
  001e6	74 61		 je	 SHORT $LN22@networkLoo

; 339  : 			if ((len>1400)&&(len<=1460)) {

  001e8	81 bd a8 fc ff
	ff 78 05 00 00	 cmp	 DWORD PTR _len$[ebp], 1400 ; 00000578H
  001f2	7e 4b		 jle	 SHORT $LN23@networkLoo
  001f4	81 bd a8 fc ff
	ff b4 05 00 00	 cmp	 DWORD PTR _len$[ebp], 1460 ; 000005b4H
  001fe	7f 3f		 jg	 SHORT $LN23@networkLoo

; 340  : 				Sleep(500);

  00200	8b f4		 mov	 esi, esp
  00202	68 f4 01 00 00	 push	 500			; 000001f4H
  00207	ff 15 00 00 00
	00		 call	 DWORD PTR __imp__Sleep@4
  0020d	3b f4		 cmp	 esi, esp
  0020f	e8 00 00 00 00	 call	 __RTC_CheckEsp

; 341  : 				len += recv( sockfd , rpc_linebuffer+len , (NETBUFSIZ >> 1) - 1, 0 );

  00214	6a 00		 push	 0
  00216	68 ff 1f 00 00	 push	 8191			; 00001fffH
  0021b	8b 85 a8 fc ff
	ff		 mov	 eax, DWORD PTR _len$[ebp]
  00221	05 00 00 00 00	 add	 eax, OFFSET ?rpc_linebuffer@@3PADA ; rpc_linebuffer
  00226	50		 push	 eax
  00227	8b 0d 00 00 00
	00		 mov	 ecx, DWORD PTR ?sockfd@@3IA ; sockfd
  0022d	51		 push	 ecx
  0022e	e8 00 00 00 00	 call	 _recv@16
  00233	03 85 a8 fc ff
	ff		 add	 eax, DWORD PTR _len$[ebp]
  00239	89 85 a8 fc ff
	ff		 mov	 DWORD PTR _len$[ebp], eax
$LN23@networkLoo:

; 342  : 			}
; 343  : 			isWGS7=0;

  0023f	c7 05 00 00 00
	00 00 00 00 00	 mov	 DWORD PTR ?isWGS7@@3HA, 0 ; isWGS7
$LN22@networkLoo:

; 344  : 		}
; 345  : 		if( len == SOCKET_ERROR ){

  00249	83 bd a8 fc ff
	ff ff		 cmp	 DWORD PTR _len$[ebp], -1
  00250	75 2d		 jne	 SHORT $LN24@networkLoo

; 346  : 			if( WSAGetLastError() != WSAEWOULDBLOCK ){

  00252	e8 00 00 00 00	 call	 _WSAGetLastError@0
  00257	3d 33 27 00 00	 cmp	 eax, 10035		; 00002733H
  0025c	74 1f		 je	 SHORT $LN26@networkLoo

; 347  : #ifdef  _STONDEBUG_
; 348  : 				CheckNetErrror();
; 349  : #endif
; 350  :         closesocket(sockfd);

  0025e	a1 00 00 00 00	 mov	 eax, DWORD PTR ?sockfd@@3IA ; sockfd
  00263	50		 push	 eax
  00264	e8 00 00 00 00	 call	 _closesocket@4

; 351  : 				dwServer = NULL;

  00269	c7 05 00 00 00
	00 00 00 00 00	 mov	 DWORD PTR ?dwServer@@3KA, 0 ; dwServer

; 352  : 				// ??????Q?N???????
; 353  : 				disconnectServerFlag = TRUE;

  00273	c7 05 00 00 00
	00 01 00 00 00	 mov	 DWORD PTR ?disconnectServerFlag@@3HA, 1 ; disconnectServerFlag
$LN26@networkLoo:

; 354  : 			}

  0027d	eb 14		 jmp	 SHORT $LN11@networkLoo
$LN24@networkLoo:

; 355  : 		} else appendReadBuf( rpc_linebuffer , len );

  0027f	8b 85 a8 fc ff
	ff		 mov	 eax, DWORD PTR _len$[ebp]
  00285	50		 push	 eax
  00286	68 00 00 00 00	 push	 OFFSET ?rpc_linebuffer@@3PADA ; rpc_linebuffer
  0028b	e8 00 00 00 00	 call	 ?appendReadBuf@@YAHPADH@Z ; appendReadBuf
  00290	83 c4 08	 add	 esp, 8
$LN11@networkLoo:

; 356  : 	}
; 357  : 	while( len!=SOCKET_ERROR && net_readbuflen>0){

  00293	83 bd a8 fc ff
	ff ff		 cmp	 DWORD PTR _len$[ebp], -1
  0029a	0f 84 99 00 00
	00		 je	 $LN12@networkLoo
  002a0	83 3d 00 00 00
	00 00		 cmp	 DWORD PTR ?net_readbuflen@@3HA, 0 ; net_readbuflen
  002a7	0f 8e 8c 00 00
	00		 jle	 $LN12@networkLoo

; 358  : 		// get line from read buffer
; 359  : 		if(GS==dwServer){

  002ad	83 3d 00 00 00
	00 03		 cmp	 DWORD PTR ?dwServer@@3KA, 3 ; dwServer
  002b4	75 6b		 jne	 SHORT $LN27@networkLoo

; 360  : 		  if(!getLineFromReadBuf( rpc_linebuffer  ,sizeof(rpc_linebuffer) )){

  002b6	68 00 40 00 00	 push	 16384			; 00004000H
  002bb	68 00 00 00 00	 push	 OFFSET ?rpc_linebuffer@@3PADA ; rpc_linebuffer
  002c0	e8 00 00 00 00	 call	 ?getLineFromReadBuf@@YAHPADH@Z ; getLineFromReadBuf
  002c5	83 c4 08	 add	 esp, 8
  002c8	85 c0		 test	 eax, eax
  002ca	75 51		 jne	 SHORT $LN29@networkLoo

; 361  : 			if( bNewServer)

  002cc	83 3d 00 00 00
	00 00		 cmp	 DWORD PTR ?bNewServer@@3HA, 0 ; bNewServer
  002d3	74 33		 je	 SHORT $LN31@networkLoo

; 362  : 			{ 
; 363  : 				int func = SaDispatchMessage( sockfd , rpc_linebuffer );

  002d5	68 00 00 00 00	 push	 OFFSET ?rpc_linebuffer@@3PADA ; rpc_linebuffer
  002da	a1 00 00 00 00	 mov	 eax, DWORD PTR ?sockfd@@3IA ; sockfd
  002df	50		 push	 eax
  002e0	e8 00 00 00 00	 call	 ?SaDispatchMessage@@YAHHPAD@Z ; SaDispatchMessage
  002e5	83 c4 08	 add	 esp, 8
  002e8	89 85 84 fc ff
	ff		 mov	 DWORD PTR _func$2[ebp], eax

; 364  : 
; 365  : 				//JL 2016.8.23 封包解码完毕，发送数据给wg
; 366  : 				if (func)

  002ee	83 bd 84 fc ff
	ff 00		 cmp	 DWORD PTR _func$2[ebp], 0
  002f5	74 0f		 je	 SHORT $LN33@networkLoo

; 367  : 				{
; 368  : 					JL_savefunc(func);

  002f7	8b 85 84 fc ff
	ff		 mov	 eax, DWORD PTR _func$2[ebp]
  002fd	50		 push	 eax
  002fe	e8 00 00 00 00	 call	 ?JL_savefunc@@YAXH@Z	; JL_savefunc
  00303	83 c4 04	 add	 esp, 4
$LN33@networkLoo:

; 369  : 				}
; 370  : 			}
; 371  : 			else

  00306	eb 13		 jmp	 SHORT $LN32@networkLoo
$LN31@networkLoo:

; 372  : 				lssproto_ClientDispatchMessage( sockfd , rpc_linebuffer );

  00308	68 00 00 00 00	 push	 OFFSET ?rpc_linebuffer@@3PADA ; rpc_linebuffer
  0030d	a1 00 00 00 00	 mov	 eax, DWORD PTR ?sockfd@@3IA ; sockfd
  00312	50		 push	 eax
  00313	e8 00 00 00 00	 call	 ?lssproto_ClientDispatchMessage@@YAHHPAD@Z ; lssproto_ClientDispatchMessage
  00318	83 c4 08	 add	 esp, 8
$LN32@networkLoo:

; 373  : 			}else break;

  0031b	eb 02		 jmp	 SHORT $LN30@networkLoo
$LN29@networkLoo:
  0031d	eb 1a		 jmp	 SHORT $LN12@networkLoo
$LN30@networkLoo:
  0031f	eb 13		 jmp	 SHORT $LN28@networkLoo
$LN27@networkLoo:

; 374  : 		}else ReadWGSMessage(net_readbuf,net_readbuflen);

  00321	68 00 00 00 00	 push	 OFFSET ?net_readbuflen@@3HA ; net_readbuflen
  00326	a1 00 00 00 00	 mov	 eax, DWORD PTR ?net_readbuf@@3PADA ; net_readbuf
  0032b	50		 push	 eax
  0032c	e8 00 00 00 00	 call	 ?ReadWGSMessage@@YAHPADAAH@Z ; ReadWGSMessage
  00331	83 c4 08	 add	 esp, 8
$LN28@networkLoo:

; 375  : 	}

  00334	e9 5a ff ff ff	 jmp	 $LN11@networkLoo
$LN12@networkLoo:

; 376  : #ifdef __NEW_CLIENT_MEM
; 377  : #ifndef __NEW_CLIENT_ONLY_WRITE
; 378  : 	ret = VirtualProtect( net_readbuf, NETBUFSIZ, PAGE_NOACCESS, &oldprotect);

  00339	8b f4		 mov	 esi, esp
  0033b	8d 85 90 fc ff
	ff		 lea	 eax, DWORD PTR _oldprotect$[ebp]
  00341	50		 push	 eax
  00342	6a 01		 push	 1
  00344	68 00 40 00 00	 push	 16384			; 00004000H
  00349	8b 0d 00 00 00
	00		 mov	 ecx, DWORD PTR ?net_readbuf@@3PADA ; net_readbuf
  0034f	51		 push	 ecx
  00350	ff 15 00 00 00
	00		 call	 DWORD PTR __imp__VirtualProtect@16
  00356	3b f4		 cmp	 esi, esp
  00358	e8 00 00 00 00	 call	 __RTC_CheckEsp
  0035d	89 85 9c fc ff
	ff		 mov	 DWORD PTR _ret$[ebp], eax

; 379  : #endif
; 380  : #endif
; 381  : 
; 382  : 	static unsigned int writetime = TimeGetTime();

  00363	a1 00 00 00 00	 mov	 eax, DWORD PTR __tls_index
  00368	64 8b 0d 00 00
	00 00		 mov	 ecx, DWORD PTR fs:__tls_array
  0036f	8b 14 81	 mov	 edx, DWORD PTR [ecx+eax*4]
  00372	a1 00 00 00 00	 mov	 eax, DWORD PTR ?$TSS0@?1??networkLoop@@YAXXZ@4HA
  00377	3b 82 00 00 00
	00		 cmp	 eax, DWORD PTR __Init_thread_epoch[edx]
  0037d	7e 3b		 jle	 SHORT $LN13@networkLoo
  0037f	68 00 00 00 00	 push	 OFFSET ?$TSS0@?1??networkLoop@@YAXXZ@4HA
  00384	e8 00 00 00 00	 call	 __Init_thread_header
  00389	83 c4 04	 add	 esp, 4
  0038c	83 3d 00 00 00
	00 ff		 cmp	 DWORD PTR ?$TSS0@?1??networkLoop@@YAXXZ@4HA, -1
  00393	75 25		 jne	 SHORT $LN13@networkLoo
  00395	c7 45 fc 00 00
	00 00		 mov	 DWORD PTR __$EHRec$[ebp+8], 0
  0039c	e8 00 00 00 00	 call	 ?TimeGetTime@@YAIXZ	; TimeGetTime
  003a1	a3 00 00 00 00	 mov	 DWORD PTR ?writetime@?1??networkLoop@@YAXXZ@4IA, eax
  003a6	c7 45 fc ff ff
	ff ff		 mov	 DWORD PTR __$EHRec$[ebp+8], -1
  003ad	68 00 00 00 00	 push	 OFFSET ?$TSS0@?1??networkLoop@@YAXXZ@4HA
  003b2	e8 00 00 00 00	 call	 __Init_thread_footer
  003b7	83 c4 04	 add	 esp, 4
$LN13@networkLoo:

; 383  : 	
; 384  : 	// ????
; 385  : 	if( FD_ISSET( sockfd , &wfds)){

  003ba	8d 85 dc fd ff
	ff		 lea	 eax, DWORD PTR _wfds$[ebp]
  003c0	50		 push	 eax
  003c1	8b 0d 00 00 00
	00		 mov	 ecx, DWORD PTR ?sockfd@@3IA ; sockfd
  003c7	51		 push	 ecx
  003c8	e8 00 00 00 00	 call	 ___WSAFDIsSet@8
  003cd	85 c0		 test	 eax, eax
  003cf	0f 84 e9 00 00
	00		 je	 $LN34@networkLoo

; 386  : #ifdef __NEW_CLIENT_MEM
; 387  : 		ret = VirtualProtect( net_writebuf, NETBUFSIZ, PAGE_READWRITE, &oldprotect);

  003d5	8b f4		 mov	 esi, esp
  003d7	8d 85 90 fc ff
	ff		 lea	 eax, DWORD PTR _oldprotect$[ebp]
  003dd	50		 push	 eax
  003de	6a 04		 push	 4
  003e0	68 00 40 00 00	 push	 16384			; 00004000H
  003e5	8b 0d 00 00 00
	00		 mov	 ecx, DWORD PTR ?net_writebuf@@3PADA ; net_writebuf
  003eb	51		 push	 ecx
  003ec	ff 15 00 00 00
	00		 call	 DWORD PTR __imp__VirtualProtect@16
  003f2	3b f4		 cmp	 esi, esp
  003f4	e8 00 00 00 00	 call	 __RTC_CheckEsp
  003f9	89 85 9c fc ff
	ff		 mov	 DWORD PTR _ret$[ebp], eax

; 388  : #endif
; 389  : 		len = 0;

  003ff	c7 85 a8 fc ff
	ff 00 00 00 00	 mov	 DWORD PTR _len$[ebp], 0

; 390  : 		if( net_writebuflen) len = send( sockfd, net_writebuf , net_writebuflen , 0 );

  00409	83 3d 00 00 00
	00 00		 cmp	 DWORD PTR ?net_writebuflen@@3HA, 0 ; net_writebuflen
  00410	74 21		 je	 SHORT $LN35@networkLoo
  00412	6a 00		 push	 0
  00414	a1 00 00 00 00	 mov	 eax, DWORD PTR ?net_writebuflen@@3HA ; net_writebuflen
  00419	50		 push	 eax
  0041a	8b 0d 00 00 00
	00		 mov	 ecx, DWORD PTR ?net_writebuf@@3PADA ; net_writebuf
  00420	51		 push	 ecx
  00421	8b 15 00 00 00
	00		 mov	 edx, DWORD PTR ?sockfd@@3IA ; sockfd
  00427	52		 push	 edx
  00428	e8 00 00 00 00	 call	 _send@16
  0042d	89 85 a8 fc ff
	ff		 mov	 DWORD PTR _len$[ebp], eax
$LN35@networkLoo:

; 391  : 		/*???????*/
; 392  : 		if(len > 0) writetime = TimeGetTime();

  00433	83 bd a8 fc ff
	ff 00		 cmp	 DWORD PTR _len$[ebp], 0
  0043a	7e 0a		 jle	 SHORT $LN36@networkLoo
  0043c	e8 00 00 00 00	 call	 ?TimeGetTime@@YAIXZ	; TimeGetTime
  00441	a3 00 00 00 00	 mov	 DWORD PTR ?writetime@?1??networkLoop@@YAXXZ@4IA, eax
$LN36@networkLoo:

; 393  : 
; 394  : 		if( len == SOCKET_ERROR ){

  00446	83 bd a8 fc ff
	ff ff		 cmp	 DWORD PTR _len$[ebp], -1
  0044d	75 2d		 jne	 SHORT $LN37@networkLoo

; 395  : 			if( WSAGetLastError() != WSAEWOULDBLOCK ){

  0044f	e8 00 00 00 00	 call	 _WSAGetLastError@0
  00454	3d 33 27 00 00	 cmp	 eax, 10035		; 00002733H
  00459	74 1f		 je	 SHORT $LN39@networkLoo

; 396  : #ifdef  _STONDEBUG_
; 397  : 				CheckNetErrror();
; 398  : #endif
; 399  :      		closesocket(sockfd);

  0045b	a1 00 00 00 00	 mov	 eax, DWORD PTR ?sockfd@@3IA ; sockfd
  00460	50		 push	 eax
  00461	e8 00 00 00 00	 call	 _closesocket@4

; 400  : 				dwServer = NULL;

  00466	c7 05 00 00 00
	00 00 00 00 00	 mov	 DWORD PTR ?dwServer@@3KA, 0 ; dwServer

; 401  : 				// ??????Q?N???????
; 402  : 				disconnectServerFlag = TRUE;

  00470	c7 05 00 00 00
	00 01 00 00 00	 mov	 DWORD PTR ?disconnectServerFlag@@3HA, 1 ; disconnectServerFlag
$LN39@networkLoo:

; 403  : 			}
; 404  : 		} else {

  0047a	eb 18		 jmp	 SHORT $LN38@networkLoo
$LN37@networkLoo:

; 405  : 			if( len) shiftWriteBuf( len );

  0047c	83 bd a8 fc ff
	ff 00		 cmp	 DWORD PTR _len$[ebp], 0
  00483	74 0f		 je	 SHORT $LN38@networkLoo
  00485	8b 85 a8 fc ff
	ff		 mov	 eax, DWORD PTR _len$[ebp]
  0048b	50		 push	 eax
  0048c	e8 00 00 00 00	 call	 ?shiftWriteBuf@@YAHH@Z	; shiftWriteBuf
  00491	83 c4 04	 add	 esp, 4
$LN38@networkLoo:

; 406  : 		}
; 407  : #ifdef __NEW_CLIENT_MEM
; 408  : 		ret = VirtualProtect( net_writebuf, NETBUFSIZ, PAGE_NOACCESS, &oldprotect);

  00494	8b f4		 mov	 esi, esp
  00496	8d 85 90 fc ff
	ff		 lea	 eax, DWORD PTR _oldprotect$[ebp]
  0049c	50		 push	 eax
  0049d	6a 01		 push	 1
  0049f	68 00 40 00 00	 push	 16384			; 00004000H
  004a4	8b 0d 00 00 00
	00		 mov	 ecx, DWORD PTR ?net_writebuf@@3PADA ; net_writebuf
  004aa	51		 push	 ecx
  004ab	ff 15 00 00 00
	00		 call	 DWORD PTR __imp__VirtualProtect@16
  004b1	3b f4		 cmp	 esi, esp
  004b3	e8 00 00 00 00	 call	 __RTC_CheckEsp
  004b8	89 85 9c fc ff
	ff		 mov	 DWORD PTR _ret$[ebp], eax
$LN34@networkLoo:

; 409  : #endif
; 410  : 	}
; 411  : 	if((GS==dwServer) && (writetime + 30*1000 <TimeGetTime())){

  004be	83 3d 00 00 00
	00 03		 cmp	 DWORD PTR ?dwServer@@3KA, 3 ; dwServer
  004c5	75 5c		 jne	 SHORT $LN1@networkLoo
  004c7	8b 35 00 00 00
	00		 mov	 esi, DWORD PTR ?writetime@?1??networkLoop@@YAXXZ@4IA
  004cd	81 c6 30 75 00
	00		 add	 esi, 30000		; 00007530H
  004d3	e8 00 00 00 00	 call	 ?TimeGetTime@@YAIXZ	; TimeGetTime
  004d8	3b f0		 cmp	 esi, eax
  004da	73 47		 jae	 SHORT $LN1@networkLoo

; 412  : 		if(	init_net == TRUE){

  004dc	83 3d 00 00 00
	00 01		 cmp	 DWORD PTR ?init_net@@3HA, 1 ; init_net
  004e3	75 3e		 jne	 SHORT $LN1@networkLoo

; 413  : 			if( bNewServer)

  004e5	83 3d 00 00 00
	00 00		 cmp	 DWORD PTR ?bNewServer@@3HA, 0 ; bNewServer
  004ec	74 15		 je	 SHORT $LN43@networkLoo

; 414  : 				lssproto_Echo_send(sockfd, "hoge");

  004ee	68 00 00 00 00	 push	 OFFSET ??_C@_04KGMIJBHM@hoge?$AA@
  004f3	a1 00 00 00 00	 mov	 eax, DWORD PTR ?sockfd@@3IA ; sockfd
  004f8	50		 push	 eax
  004f9	e8 00 00 00 00	 call	 ?lssproto_Echo_send@@YAXHPAD@Z ; lssproto_Echo_send
  004fe	83 c4 08	 add	 esp, 8

; 415  : 			else

  00501	eb 13		 jmp	 SHORT $LN44@networkLoo
$LN43@networkLoo:

; 416  : 				old_lssproto_Echo_send(sockfd, "hoge");

  00503	68 00 00 00 00	 push	 OFFSET ??_C@_04KGMIJBHM@hoge?$AA@
  00508	a1 00 00 00 00	 mov	 eax, DWORD PTR ?sockfd@@3IA ; sockfd
  0050d	50		 push	 eax
  0050e	e8 00 00 00 00	 call	 ?old_lssproto_Echo_send@@YAXHPAD@Z ; old_lssproto_Echo_send
  00513	83 c4 08	 add	 esp, 8
$LN44@networkLoo:

; 417  : 			testCnt++;

  00516	a1 00 00 00 00	 mov	 eax, DWORD PTR ?testCnt@@3HA ; testCnt
  0051b	83 c0 01	 add	 eax, 1
  0051e	a3 00 00 00 00	 mov	 DWORD PTR ?testCnt@@3HA, eax ; testCnt
$LN1@networkLoo:

; 418  : 		}
; 419  : 	}
; 420  : }

  00523	52		 push	 edx
  00524	8b cd		 mov	 ecx, ebp
  00526	50		 push	 eax
  00527	8d 15 00 00 00
	00		 lea	 edx, DWORD PTR $LN54@networkLoo
  0052d	e8 00 00 00 00	 call	 @_RTC_CheckStackVars@8
  00532	58		 pop	 eax
  00533	5a		 pop	 edx
  00534	8b 4d f4	 mov	 ecx, DWORD PTR __$EHRec$[ebp]
  00537	64 89 0d 00 00
	00 00		 mov	 DWORD PTR fs:0, ecx
  0053e	59		 pop	 ecx
  0053f	5f		 pop	 edi
  00540	5e		 pop	 esi
  00541	5b		 pop	 ebx
  00542	8b 4d f0	 mov	 ecx, DWORD PTR __$ArrayPad$[ebp]
  00545	33 cd		 xor	 ecx, ebp
  00547	e8 00 00 00 00	 call	 @__security_check_cookie@4
  0054c	81 c4 00 05 00
	00		 add	 esp, 1280		; 00000500H
  00552	3b ec		 cmp	 ebp, esp
  00554	e8 00 00 00 00	 call	 __RTC_CheckEsp
  00559	8b e5		 mov	 esp, ebp
  0055b	5d		 pop	 ebp
  0055c	c3		 ret	 0
  0055d	0f 1f 00	 npad	 3
$LN54@networkLoo:
  00560	05 00 00 00	 DD	 5
  00564	00 00 00 00	 DD	 $LN53@networkLoo
$LN53@networkLoo:
  00568	e8 fe ff ff	 DD	 -280			; fffffee8H
  0056c	04 01 00 00	 DD	 260			; 00000104H
  00570	00 00 00 00	 DD	 $LN47@networkLoo
  00574	dc fd ff ff	 DD	 -548			; fffffddcH
  00578	04 01 00 00	 DD	 260			; 00000104H
  0057c	00 00 00 00	 DD	 $LN48@networkLoo
  00580	d0 fc ff ff	 DD	 -816			; fffffcd0H
  00584	04 01 00 00	 DD	 260			; 00000104H
  00588	00 00 00 00	 DD	 $LN49@networkLoo
  0058c	c0 fc ff ff	 DD	 -832			; fffffcc0H
  00590	08 00 00 00	 DD	 8
  00594	00 00 00 00	 DD	 $LN50@networkLoo
  00598	90 fc ff ff	 DD	 -880			; fffffc90H
  0059c	04 00 00 00	 DD	 4
  005a0	00 00 00 00	 DD	 $LN51@networkLoo
$LN51@networkLoo:
  005a4	6f		 DB	 111			; 0000006fH
  005a5	6c		 DB	 108			; 0000006cH
  005a6	64		 DB	 100			; 00000064H
  005a7	70		 DB	 112			; 00000070H
  005a8	72		 DB	 114			; 00000072H
  005a9	6f		 DB	 111			; 0000006fH
  005aa	74		 DB	 116			; 00000074H
  005ab	65		 DB	 101			; 00000065H
  005ac	63		 DB	 99			; 00000063H
  005ad	74		 DB	 116			; 00000074H
  005ae	00		 DB	 0
$LN50@networkLoo:
  005af	74		 DB	 116			; 00000074H
  005b0	6d		 DB	 109			; 0000006dH
  005b1	00		 DB	 0
$LN49@networkLoo:
  005b2	65		 DB	 101			; 00000065H
  005b3	66		 DB	 102			; 00000066H
  005b4	64		 DB	 100			; 00000064H
  005b5	73		 DB	 115			; 00000073H
  005b6	00		 DB	 0
$LN48@networkLoo:
  005b7	77		 DB	 119			; 00000077H
  005b8	66		 DB	 102			; 00000066H
  005b9	64		 DB	 100			; 00000064H
  005ba	73		 DB	 115			; 00000073H
  005bb	00		 DB	 0
$LN47@networkLoo:
  005bc	72		 DB	 114			; 00000072H
  005bd	66		 DB	 102			; 00000066H
  005be	64		 DB	 100			; 00000064H
  005bf	73		 DB	 115			; 00000073H
  005c0	00		 DB	 0
_TEXT	ENDS
;	COMDAT text$x
text$x	SEGMENT
__unwindfunclet$?networkLoop@@YAXXZ$0:
  00000	68 00 00 00 00	 push	 OFFSET ?$TSS0@?1??networkLoop@@YAXXZ@4HA
  00005	e8 00 00 00 00	 call	 __Init_thread_abort
  0000a	59		 pop	 ecx
  0000b	c3		 ret	 0
__ehhandler$?networkLoop@@YAXXZ:
  0000c	8b 54 24 08	 mov	 edx, DWORD PTR [esp+8]
  00010	8d 42 0c	 lea	 eax, DWORD PTR [edx+12]
  00013	8b 8a fc fa ff
	ff		 mov	 ecx, DWORD PTR [edx-1284]
  00019	33 c8		 xor	 ecx, eax
  0001b	e8 00 00 00 00	 call	 @__security_check_cookie@4
  00020	8b 4a fc	 mov	 ecx, DWORD PTR [edx-4]
  00023	33 c8		 xor	 ecx, eax
  00025	e8 00 00 00 00	 call	 @__security_check_cookie@4
  0002a	b8 00 00 00 00	 mov	 eax, OFFSET __ehfuncinfo$?networkLoop@@YAXXZ
  0002f	e9 00 00 00 00	 jmp	 ___CxxFrameHandler3
text$x	ENDS
?networkLoop@@YAXXZ ENDP				; networkLoop
; Function compile flags: /Odtp /RTCsu /ZI
; File c:\users\administrator\desktop\????? ??\????? ??\client source code\system\netmain.cpp
;	COMDAT ?getServerInfo@@YAHHPADPAF@Z
_TEXT	SEGMENT
_index$ = 8						; size = 4
_hostname$ = 12						; size = 4
_port$ = 16						; size = 4
?getServerInfo@@YAHHPADPAF@Z PROC			; getServerInfo, COMDAT

; 82   : {

  00000	55		 push	 ebp
  00001	8b ec		 mov	 ebp, esp
  00003	81 ec c0 00 00
	00		 sub	 esp, 192		; 000000c0H
  00009	53		 push	 ebx
  0000a	56		 push	 esi
  0000b	57		 push	 edi
  0000c	8d bd 40 ff ff
	ff		 lea	 edi, DWORD PTR [ebp-192]
  00012	b9 30 00 00 00	 mov	 ecx, 48			; 00000030H
  00017	b8 cc cc cc cc	 mov	 eax, -858993460		; ccccccccH
  0001c	f3 ab		 rep stosd

; 83   : 	if( index < 0 || index >= sizeof( gmsv)/sizeof( gmsv[0] ) )

  0001e	83 7d 08 00	 cmp	 DWORD PTR _index$[ebp], 0
  00022	7c 09		 jl	 SHORT $LN3@getServerI
  00024	81 7d 08 96 00
	00 00		 cmp	 DWORD PTR _index$[ebp], 150 ; 00000096H
  0002b	72 05		 jb	 SHORT $LN2@getServerI
$LN3@getServerI:

; 84   : 		return -1;

  0002d	83 c8 ff	 or	 eax, -1
  00030	eb 3e		 jmp	 SHORT $LN1@getServerI
$LN2@getServerI:

; 85   : 
; 86   : 
; 87   : 	strcpy( hostname, gmsv[index].ipaddr );

  00032	8b 45 08	 mov	 eax, DWORD PTR _index$[ebp]
  00035	c1 e0 08	 shl	 eax, 8
  00038	05 01 00 00 00	 add	 eax, OFFSET ?gmsv@@3PAUgameserver@@A+1
  0003d	50		 push	 eax
  0003e	8b 4d 0c	 mov	 ecx, DWORD PTR _hostname$[ebp]
  00041	51		 push	 ecx
  00042	e8 00 00 00 00	 call	 _strcpy
  00047	83 c4 08	 add	 esp, 8

; 88   : 	*port = atoi( gmsv[index].port );

  0004a	8b 45 08	 mov	 eax, DWORD PTR _index$[ebp]
  0004d	c1 e0 08	 shl	 eax, 8
  00050	05 80 00 00 00	 add	 eax, OFFSET ?gmsv@@3PAUgameserver@@A+128
  00055	8b f4		 mov	 esi, esp
  00057	50		 push	 eax
  00058	ff 15 00 00 00
	00		 call	 DWORD PTR __imp__atoi
  0005e	83 c4 04	 add	 esp, 4
  00061	3b f4		 cmp	 esi, esp
  00063	e8 00 00 00 00	 call	 __RTC_CheckEsp
  00068	8b 4d 10	 mov	 ecx, DWORD PTR _port$[ebp]
  0006b	66 89 01	 mov	 WORD PTR [ecx], ax

; 89   : 
; 90   : 	return 0;

  0006e	33 c0		 xor	 eax, eax
$LN1@getServerI:

; 91   : }

  00070	5f		 pop	 edi
  00071	5e		 pop	 esi
  00072	5b		 pop	 ebx
  00073	81 c4 c0 00 00
	00		 add	 esp, 192		; 000000c0H
  00079	3b ec		 cmp	 ebp, esp
  0007b	e8 00 00 00 00	 call	 __RTC_CheckEsp
  00080	8b e5		 mov	 esp, ebp
  00082	5d		 pop	 ebp
  00083	c3		 ret	 0
?getServerInfo@@YAHHPADPAF@Z ENDP			; getServerInfo
_TEXT	ENDS
END
