; Listing generated by Microsoft (R) Optimizing Compiler Version 19.00.24215.1 

	TITLE	C:\Users\Administrator\Desktop\????? ??\????? ??\Client Source Code\system\netproc.cpp
	.686P
	.XMM
	include listing.inc
	.model	flat

INCLUDELIB MSVCRTD
INCLUDELIB OLDNAMES

PUBLIC	?newCharStatus@@3FA				; newCharStatus
PUBLIC	?charLoginStatus@@3FA				; charLoginStatus
PUBLIC	?charLogoutStatus@@3FA				; charLogoutStatus
PUBLIC	?ERROR_MESSAGE@@3HA				; ERROR_MESSAGE
PUBLIC	?netproc_sending@@3HA				; netproc_sending
PUBLIC	?start_time@@3KA				; start_time
PUBLIC	?c_temp@@3PADA					; c_temp
PUBLIC	?connectServerCounter@@3HA			; connectServerCounter
PUBLIC	?AdvanceSkill@@3PAHA				; AdvanceSkill
PUBLIC	?AssitSkill@@3PAHA				; AssitSkill
PUBLIC	?BattleSkill@@3PAHA				; BattleSkill
PUBLIC	?登录错误提示@@3PADA				; 登录错误提示
PUBLIC	?sin_server@@3Usockaddr_in@@A			; sin_server
PUBLIC	?pCommand@@3PADA				; pCommand
PUBLIC	?dwDiceTimer@@3KA				; dwDiceTimer
PUBLIC	?gStr光环@@3PADA				; gStr光环
PUBLIC	?hPing@@3PAXA					; hPing
PUBLIC	?dwPingID@@3KA					; dwPingID
PUBLIC	?dwPingTime@@3KA				; dwPingTime
PUBLIC	?dwPingState@@3KA				; dwPingState
PUBLIC	?bNewServer@@3HA				; bNewServer
PUBLIC	?iWrote@@3HA					; iWrote
PUBLIC	?iRead@@3HA					; iRead
PUBLIC	?sockRaw@@3IA					; sockRaw
PUBLIC	?selectServerIndex@@3FA				; selectServerIndex
PUBLIC	?clientLoginStatus@@3FA				; clientLoginStatus
PUBLIC	?charListStatus@@3FA				; charListStatus
PUBLIC	?charDelStatus@@3FA				; charDelStatus
PUBLIC	?gamestate_chooseserver_name@@3PADA		; gamestate_chooseserver_name
PUBLIC	?gamestate_login_charname@@3PADA		; gamestate_login_charname
PUBLIC	?gamestate_deletechar_charname@@3PADA		; gamestate_deletechar_charname
PUBLIC	?netprocErrmsg@@3PADA				; netprocErrmsg
_BSS	SEGMENT
?newCharStatus@@3FA DW 01H DUP (?)			; newCharStatus
	ALIGN	4

?charLoginStatus@@3FA DW 01H DUP (?)			; charLoginStatus
	ALIGN	4

?charLogoutStatus@@3FA DW 01H DUP (?)			; charLogoutStatus
	ALIGN	4

?ERROR_MESSAGE@@3HA DD 01H DUP (?)			; ERROR_MESSAGE
?netproc_sending@@3HA DD 01H DUP (?)			; netproc_sending
?start_time@@3KA DD 01H DUP (?)				; start_time
?c_temp@@3PADA DB 0400H DUP (?)				; c_temp
?connectServerCounter@@3HA DD 01H DUP (?)		; connectServerCounter
?登录错误提示@@3PADA DB 0200H DUP (?)			; 登录错误提示
?sin_server@@3Usockaddr_in@@A DB 010H DUP (?)		; sin_server
?count@?1??connectServer@@YAHXZ@4HA DD 01H DUP (?)	; `connectServer'::`2'::count
?pCommand@@3PADA DD 01H DUP (?)				; pCommand
?dwDiceTimer@@3KA DD 01H DUP (?)			; dwDiceTimer
?gStr光环@@3PADA DB 064H DUP (?)			; gStr光环
?hPing@@3PAXA DD 01H DUP (?)				; hPing
?dwPingID@@3KA DD 01H DUP (?)				; dwPingID
?dwPingTime@@3KA DD 01H DUP (?)				; dwPingTime
?dwPingState@@3KA DD 01H DUP (?)			; dwPingState
?bNewServer@@3HA DD 01H DUP (?)				; bNewServer
?iWrote@@3HA DD	01H DUP (?)				; iWrote
?iRead@@3HA DD	01H DUP (?)				; iRead
?clientLoginStatus@@3FA DW 01H DUP (?)			; clientLoginStatus
	ALIGN	4

?charListStatus@@3FA DW 01H DUP (?)			; charListStatus
	ALIGN	4

?charDelStatus@@3FA DW 01H DUP (?)			; charDelStatus
	ALIGN	4

?gamestate_chooseserver_name@@3PADA DB 080H DUP (?)	; gamestate_chooseserver_name
?gamestate_login_charname@@3PADA DB 080H DUP (?)	; gamestate_login_charname
?gamestate_deletechar_charname@@3PADA DB 080H DUP (?)	; gamestate_deletechar_charname
?netprocErrmsg@@3PADA DB 0400H DUP (?)			; netprocErrmsg
_BSS	ENDS
_DATA	SEGMENT
?AdvanceSkill@@3PAHA DD 0ffffffffH			; AdvanceSkill
	ORG $+76
?AssitSkill@@3PAHA DD 0ffffffffH			; AssitSkill
	ORG $+76
?BattleSkill@@3PAHA DD 0ffffffffH			; BattleSkill
	ORG $+76
?ridePetTable@@3PAUtagRidePetTable@@A DD 018a88H	; ridePetTable
	DD	0186a0H
	DD	018800H
	DD	00H
	DD	018a89H
	DD	0186a5H
	DD	018800H
	DD	00H
	DD	018a8aH
	DD	0186aaH
	DD	018800H
	DD	00H
	DD	018a8bH
	DD	0186afH
	DD	018800H
	DD	00H
	DD	018a8cH
	DD	0186a0H
	DD	0187e9H
	DD	00H
	DD	018a8dH
	DD	0186a5H
	DD	0187e7H
	DD	00H
	DD	018a8eH
	DD	0186aaH
	DD	0187eaH
	DD	00H
	DD	018a8fH
	DD	0186afH
	DD	0187e8H
	DD	00H
	DD	018a90H
	DD	01895cH
	DD	018814H
	DD	00H
	DD	018a91H
	DD	018961H
	DD	018815H
	DD	00H
	DD	018e65H
	DD	018961H
	DD	018cc8H
	DD	00H
	DD	018e5aH
	DD	018961H
	DD	018c9cH
	DD	00H
	DD	018a92H
	DD	0186b4H
	DD	01882cH
	DD	00H
	DD	018a93H
	DD	0186b9H
	DD	01882cH
	DD	00H
	DD	018a94H
	DD	0186beH
	DD	01882cH
	DD	00H
	DD	018a95H
	DD	0186c3H
	DD	01882cH
	DD	00H
	DD	018a96H
	DD	0186b4H
	DD	0187e8H
	DD	00H
	DD	018a97H
	DD	0186b9H
	DD	0187e9H
	DD	00H
	DD	018a98H
	DD	0186beH
	DD	0187e7H
	DD	00H
	DD	018a99H
	DD	0186c3H
	DD	0187eaH
	DD	00H
	DD	018a9aH
	DD	018966H
	DD	018814H
	DD	00H
	DD	018a9bH
	DD	01896bH
	DD	018815H
	DD	00H
	DD	018e64H
	DD	01896bH
	DD	018cc8H
	DD	00H
	DD	018e62H
	DD	01896bH
	DD	018c9cH
	DD	00H
	DD	018a9cH
	DD	0186c8H
	DD	0187ffH
	DD	00H
	DD	018a9dH
	DD	0186cdH
	DD	0187ffH
	DD	00H
	DD	018a9eH
	DD	0186d2H
	DD	0187ffH
	DD	00H
	DD	018a9fH
	DD	0186d7H
	DD	0187ffH
	DD	00H
	DD	018aa0H
	DD	0186c8H
	DD	0187e8H
	DD	00H
	DD	018aa1H
	DD	0186cdH
	DD	0187eaH
	DD	00H
	DD	018aa2H
	DD	0186d2H
	DD	0187e7H
	DD	00H
	DD	018aa3H
	DD	0186d7H
	DD	0187e9H
	DD	00H
	DD	018aa4H
	DD	018970H
	DD	018814H
	DD	00H
	DD	018aa5H
	DD	018975H
	DD	018815H
	DD	00H
	DD	018e4dH
	DD	018975H
	DD	018cc8H
	DD	00H
	DD	018e57H
	DD	018975H
	DD	018c9cH
	DD	00H
	DD	018aa6H
	DD	0186dcH
	DD	018801H
	DD	00H
	DD	018aa7H
	DD	0186e1H
	DD	018801H
	DD	00H
	DD	018aa8H
	DD	0186e6H
	DD	018801H
	DD	00H
	DD	018aa9H
	DD	0186ebH
	DD	018801H
	DD	00H
	DD	018aaaH
	DD	0186dcH
	DD	0187e9H
	DD	00H
	DD	018aabH
	DD	0186e1H
	DD	0187e7H
	DD	00H
	DD	018aacH
	DD	0186e6H
	DD	0187eaH
	DD	00H
	DD	018aadH
	DD	0186ebH
	DD	0187e8H
	DD	00H
	DD	018aaeH
	DD	01897aH
	DD	018814H
	DD	00H
	DD	018aafH
	DD	01897fH
	DD	018815H
	DD	00H
	DD	018e4eH
	DD	01897fH
	DD	018cc8H
	DD	00H
	DD	018e58H
	DD	01897fH
	DD	018c9cH
	DD	00H
	DD	018ab0H
	DD	0186f0H
	DD	01882cH
	DD	00H
	DD	018ab1H
	DD	0186f5H
	DD	01882cH
	DD	00H
	DD	018ab2H
	DD	0186faH
	DD	01882cH
	DD	00H
	DD	018ab3H
	DD	0186ffH
	DD	01882cH
	DD	00H
	DD	018ab4H
	DD	0186f0H
	DD	0187e8H
	DD	00H
	DD	018ab5H
	DD	0186f5H
	DD	0187e7H
	DD	00H
	DD	018ab6H
	DD	0186faH
	DD	0187eaH
	DD	00H
	DD	018ab7H
	DD	0186ffH
	DD	0187e9H
	DD	00H
	DD	018ab8H
	DD	018984H
	DD	018814H
	DD	00H
	DD	018ab9H
	DD	018989H
	DD	018815H
	DD	00H
	DD	018e55H
	DD	018989H
	DD	018cc8H
	DD	00H
	DD	018e60H
	DD	018989H
	DD	018c9cH
	DD	00H
	DD	018abaH
	DD	018704H
	DD	018801H
	DD	00H
	DD	018abbH
	DD	018709H
	DD	018801H
	DD	00H
	DD	018abcH
	DD	01870eH
	DD	018801H
	DD	00H
	DD	018abdH
	DD	018713H
	DD	018801H
	DD	00H
	DD	018abeH
	DD	018704H
	DD	0187e9H
	DD	00H
	DD	018abfH
	DD	018709H
	DD	0187e8H
	DD	00H
	DD	018ac0H
	DD	01870eH
	DD	0187eaH
	DD	00H
	DD	018ac1H
	DD	018713H
	DD	0187e7H
	DD	00H
	DD	018ac2H
	DD	01898eH
	DD	018814H
	DD	00H
	DD	018ac3H
	DD	018993H
	DD	018815H
	DD	00H
	DD	018e56H
	DD	018993H
	DD	018cc8H
	DD	00H
	DD	018e61H
	DD	018993H
	DD	018c9cH
	DD	00H
	DD	018ac4H
	DD	018718H
	DD	018802H
	DD	00H
	DD	018ac5H
	DD	01871dH
	DD	018802H
	DD	00H
	DD	018ac6H
	DD	018722H
	DD	018802H
	DD	00H
	DD	018ac7H
	DD	018727H
	DD	018802H
	DD	00H
	DD	018ac8H
	DD	018718H
	DD	0187e7H
	DD	00H
	DD	018ac9H
	DD	01871dH
	DD	0187eaH
	DD	00H
	DD	018acaH
	DD	018722H
	DD	0187e8H
	DD	00H
	DD	018acbH
	DD	018727H
	DD	0187e9H
	DD	00H
	DD	018accH
	DD	018998H
	DD	018814H
	DD	00H
	DD	018acdH
	DD	01899dH
	DD	018815H
	DD	00H
	DD	018e4fH
	DD	01899dH
	DD	018cc8H
	DD	00H
	DD	018e59H
	DD	01899dH
	DD	018c9cH
	DD	00H
	DD	018aceH
	DD	01872cH
	DD	018802H
	DD	00H
	DD	018acfH
	DD	018731H
	DD	018802H
	DD	00H
	DD	018ad0H
	DD	018736H
	DD	018802H
	DD	00H
	DD	018ad1H
	DD	01873bH
	DD	018802H
	DD	00H
	DD	018ad2H
	DD	01872cH
	DD	0187e7H
	DD	00H
	DD	018ad3H
	DD	018731H
	DD	0187e9H
	DD	00H
	DD	018ad4H
	DD	018736H
	DD	0187eaH
	DD	00H
	DD	018ad5H
	DD	01873bH
	DD	0187e8H
	DD	00H
	DD	018ad6H
	DD	0189a2H
	DD	018814H
	DD	00H
	DD	018ad7H
	DD	0189a7H
	DD	018815H
	DD	00H
	DD	018e50H
	DD	0189a7H
	DD	018cc8H
	DD	00H
	DD	018e5bH
	DD	0189a7H
	DD	018c9cH
	DD	00H
	DD	018ad8H
	DD	018740H
	DD	018800H
	DD	00H
	DD	018ad9H
	DD	018745H
	DD	018800H
	DD	00H
	DD	018adaH
	DD	01874aH
	DD	018800H
	DD	00H
	DD	018adbH
	DD	01874fH
	DD	018800H
	DD	00H
	DD	018adcH
	DD	018740H
	DD	0187eaH
	DD	00H
	DD	018addH
	DD	018745H
	DD	0187e9H
	DD	00H
	DD	018adeH
	DD	01874aH
	DD	0187e7H
	DD	00H
	DD	018adfH
	DD	01874fH
	DD	0187e8H
	DD	00H
	DD	018ae0H
	DD	0189acH
	DD	018814H
	DD	00H
	DD	018ae1H
	DD	0189b1H
	DD	018815H
	DD	00H
	DD	018e52H
	DD	0189b1H
	DD	018cc8H
	DD	00H
	DD	018e5dH
	DD	0189b1H
	DD	018c9cH
	DD	00H
	DD	018ae2H
	DD	018754H
	DD	0187ffH
	DD	00H
	DD	018ae3H
	DD	018759H
	DD	0187ffH
	DD	00H
	DD	018ae4H
	DD	01875eH
	DD	0187ffH
	DD	00H
	DD	018ae5H
	DD	018763H
	DD	0187ffH
	DD	00H
	DD	018ae6H
	DD	018754H
	DD	0187e8H
	DD	00H
	DD	018ae7H
	DD	018759H
	DD	0187eaH
	DD	00H
	DD	018ae8H
	DD	01875eH
	DD	0187e9H
	DD	00H
	DD	018ae9H
	DD	018763H
	DD	0187e7H
	DD	00H
	DD	018aeaH
	DD	0189b6H
	DD	018814H
	DD	00H
	DD	018aebH
	DD	0189bbH
	DD	018815H
	DD	00H
	DD	018e51H
	DD	0189bbH
	DD	018cc8H
	DD	00H
	DD	018e5cH
	DD	0189bbH
	DD	018c9cH
	DD	00H
	DD	018aecH
	DD	018768H
	DD	018801H
	DD	00H
	DD	018aedH
	DD	01876dH
	DD	018801H
	DD	00H
	DD	018aeeH
	DD	018772H
	DD	018801H
	DD	00H
	DD	018aefH
	DD	018777H
	DD	018801H
	DD	00H
	DD	018af0H
	DD	018768H
	DD	0187e9H
	DD	00H
	DD	018af1H
	DD	01876dH
	DD	0187e8H
	DD	00H
	DD	018af2H
	DD	018772H
	DD	0187e7H
	DD	00H
	DD	018af3H
	DD	018777H
	DD	0187eaH
	DD	00H
	DD	018af4H
	DD	0189c0H
	DD	018814H
	DD	00H
	DD	018af5H
	DD	0189c5H
	DD	018815H
	DD	00H
	DD	018e54H
	DD	0189c5H
	DD	018cc8H
	DD	00H
	DD	018e5fH
	DD	0189c5H
	DD	018c9cH
	DD	00H
	DD	018af6H
	DD	01877cH
	DD	01882cH
	DD	00H
	DD	018af7H
	DD	018781H
	DD	01882cH
	DD	00H
	DD	018af8H
	DD	018786H
	DD	01882cH
	DD	00H
	DD	018af9H
	DD	01878bH
	DD	01882cH
	DD	00H
	DD	018afaH
	DD	01877cH
	DD	0187eaH
	DD	00H
	DD	018afbH
	DD	018781H
	DD	0187e7H
	DD	00H
	DD	018afcH
	DD	018786H
	DD	0187e9H
	DD	00H
	DD	018afdH
	DD	01878bH
	DD	0187e8H
	DD	00H
	DD	018afeH
	DD	0189caH
	DD	018814H
	DD	00H
	DD	018affH
	DD	0189cfH
	DD	018815H
	DD	00H
	DD	018e53H
	DD	0189cfH
	DD	018cc8H
	DD	00H
	DD	018e5eH
	DD	0189cfH
	DD	018c9cH
	DD	00H
	DD	018b3bH
	DD	018b39H
	DD	018b3aH
	DD	00H
	DD	018b3bH
	DD	018b3aH
	DD	018b39H
	DD	00H
?RideCodeMode@@3PAUtagRideCodeMode@@A DD 018816H	; RideCodeMode
	DD	01H
	DD	018806H
	DD	02H
	DD	01880aH
	DD	04H
	DD	0187b7H
	DD	08H
	DD	0187c0H
	DD	010H
	DD	0187bbH
	DD	020H
	DD	0187faH
	DD	040H
	DD	0187d6H
	DD	080H
	DD	018814H
	DD	0100H
	DD	018815H
	DD	0200H
	DD	018c9cH
	DD	0800H
	DD	018cc8H
	DD	0400H
	DD	018812H
	DD	01000H
	DD	018811H
	DD	02000H
	DD	018a28H
	DD	04000H
	DD	018a2bH
	DD	08000H
	DD	018f30H
	DD	010000H
	DD	018f31H
	DD	020000H
	DD	018f68H
	DD	040000H
	DD	0187fcH
	DD	080000H
	DD	0187d3H
	DD	0100000H
	DD	018fa9H
	DD	0200000H
	DD	018faaH
	DD	0400000H
	DD	018a09H
	DD	0800000H
	DD	018a0aH
	DD	01000000H
	DD	019394H
	DD	02000000H
	DD	0187b2H
	DD	04000000H
?RideNoList@@3PAUtagRideNoList@@A DD 018bb9H		; RideNoList
	DD	018bbaH
	DD	018bbbH
	DD	018bbcH
	DD	018bbdH
	DD	018bbeH
	DD	018bbfH
	DD	018bc0H
	DD	018a90H
	DD	018a91H
	DD	018e5aH
	DD	018e65H
	DD	018849H
	DD	018844H
	DD	01885dH
	DD	018ee5H
	DD	018f0dH
	DD	018f19H
	DD	018f76H
	ORG $+32
	DD	018bc1H
	DD	018bc2H
	DD	018bc3H
	DD	018bc4H
	DD	018bc5H
	DD	018bc6H
	DD	018bc7H
	DD	018bc8H
	DD	018a9aH
	DD	018a9bH
	DD	018e62H
	DD	018e64H
	DD	018849H
	DD	018844H
	DD	01885dH
	DD	018ee6H
	DD	018f0eH
	DD	018f1aH
	DD	018f77H
	ORG $+32
	DD	018bc9H
	DD	018bcaH
	DD	018bcbH
	DD	018bccH
	DD	018bcdH
	DD	018bceH
	DD	018bcfH
	DD	018bd0H
	DD	018aa4H
	DD	018aa5H
	DD	018e57H
	DD	018e4dH
	DD	018849H
	DD	018844H
	DD	01885dH
	DD	018ee7H
	DD	018f0fH
	DD	018f1bH
	DD	018f78H
	ORG $+32
	DD	018bd1H
	DD	018bd2H
	DD	018bd3H
	DD	018bd4H
	DD	018bd5H
	DD	018bd6H
	DD	018bd7H
	DD	018bd8H
	DD	018aaeH
	DD	018aafH
	DD	018e58H
	DD	018e4eH
	DD	018849H
	DD	018844H
	DD	01885dH
	DD	018ee8H
	DD	018f10H
	DD	018f1cH
	DD	018f79H
	ORG $+32
	DD	018bd9H
	DD	018bdaH
	DD	018bdbH
	DD	018bdcH
	DD	018bddH
	DD	018bdeH
	DD	018bdfH
	DD	018be0H
	DD	018ab8H
	DD	018ab9H
	DD	018e60H
	DD	018e55H
	DD	018849H
	DD	018844H
	DD	01885dH
	DD	018ee9H
	DD	018f11H
	DD	018f1dH
	DD	018f7aH
	ORG $+32
	DD	018be1H
	DD	018be2H
	DD	018be3H
	DD	018be4H
	DD	018be5H
	DD	018be6H
	DD	018be7H
	DD	018be8H
	DD	018ac2H
	DD	018ac3H
	DD	018e61H
	DD	018e56H
	DD	018849H
	DD	018844H
	DD	01885dH
	DD	018eeaH
	DD	018f12H
	DD	018f1eH
	DD	018f7bH
	ORG $+32
	DD	018be9H
	DD	018beaH
	DD	018bebH
	DD	018becH
	DD	018bedH
	DD	018beeH
	DD	018befH
	DD	018bf0H
	DD	018accH
	DD	018acdH
	DD	018e59H
	DD	018e4fH
	DD	018849H
	DD	018844H
	DD	01885dH
	DD	018eebH
	DD	018f13H
	DD	018f1fH
	DD	018f7cH
	ORG $+32
	DD	018bf1H
	DD	018bf2H
	DD	018bf3H
	DD	018bf4H
	DD	018bf5H
	DD	018bf6H
	DD	018bf7H
	DD	018bf8H
	DD	018ad6H
	DD	018ad7H
	DD	018e5bH
	DD	018e50H
	DD	018849H
	DD	018844H
	DD	01885dH
	DD	018eecH
	DD	018f14H
	DD	018f20H
	DD	018f7dH
	ORG $+32
	DD	018bf9H
	DD	018bfaH
	DD	018bfbH
	DD	018bfcH
	DD	018bfdH
	DD	018bfeH
	DD	018bffH
	DD	018c00H
	DD	018ae0H
	DD	018ae1H
	DD	018e5dH
	DD	018e52H
	DD	018849H
	DD	018844H
	DD	01885dH
	DD	018eedH
	DD	018f15H
	DD	018f21H
	DD	018f7eH
	ORG $+32
	DD	018c01H
	DD	018c02H
	DD	018c03H
	DD	018c04H
	DD	018c05H
	DD	018c06H
	DD	018c07H
	DD	018c08H
	DD	018aeaH
	DD	018aebH
	DD	018e5cH
	DD	018e51H
	DD	018849H
	DD	018844H
	DD	01885dH
	DD	018eeeH
	DD	018f16H
	DD	018f22H
	DD	018f7fH
	ORG $+32
	DD	018c09H
	DD	018c0aH
	DD	018c0bH
	DD	018c0cH
	DD	018c0dH
	DD	018c0eH
	DD	018c0fH
	DD	018c10H
	DD	018af4H
	DD	018af5H
	DD	018e5fH
	DD	018e54H
	DD	018849H
	DD	018844H
	DD	01885dH
	DD	018eefH
	DD	018f17H
	DD	018f23H
	DD	018f80H
	ORG $+32
	DD	018c11H
	DD	018c12H
	DD	018c13H
	DD	018c14H
	DD	018c15H
	DD	018c16H
	DD	018c17H
	DD	018c18H
	DD	018afeH
	DD	018affH
	DD	018e5eH
	DD	018e53H
	DD	018849H
	DD	018844H
	DD	01885dH
	DD	018ef0H
	DD	018f18H
	DD	018f24H
	DD	018f81H
	ORG $+32
?RPlistMode@@3PAUtagRidePetList@@A DD 0186a0H		; RPlistMode
	DD	00H
	DD	0186a5H
	DD	00H
	DD	0186aaH
	DD	00H
	DD	0186afH
	DD	00H
	DD	0186b4H
	DD	01H
	DD	0186b9H
	DD	01H
	DD	0186beH
	DD	01H
	DD	0186c3H
	DD	01H
	DD	0186c8H
	DD	02H
	DD	0186cdH
	DD	02H
	DD	0186d2H
	DD	02H
	DD	0186d7H
	DD	02H
	DD	0186dcH
	DD	03H
	DD	0186e1H
	DD	03H
	DD	0186e6H
	DD	03H
	DD	0186ebH
	DD	03H
	DD	0186f0H
	DD	04H
	DD	0186f5H
	DD	04H
	DD	0186faH
	DD	04H
	DD	0186ffH
	DD	04H
	DD	018704H
	DD	05H
	DD	018709H
	DD	05H
	DD	01870eH
	DD	05H
	DD	018713H
	DD	05H
	DD	018718H
	DD	06H
	DD	01871dH
	DD	06H
	DD	018722H
	DD	06H
	DD	018727H
	DD	06H
	DD	01872cH
	DD	07H
	DD	018731H
	DD	07H
	DD	018736H
	DD	07H
	DD	01873bH
	DD	07H
	DD	018740H
	DD	08H
	DD	018745H
	DD	08H
	DD	01874aH
	DD	08H
	DD	01874fH
	DD	08H
	DD	018754H
	DD	09H
	DD	018759H
	DD	09H
	DD	01875eH
	DD	09H
	DD	018763H
	DD	09H
	DD	018768H
	DD	0aH
	DD	01876dH
	DD	0aH
	DD	018772H
	DD	0aH
	DD	018777H
	DD	0aH
	DD	01877cH
	DD	0bH
	DD	018781H
	DD	0bH
	DD	018786H
	DD	0bH
	DD	01878bH
	DD	0bH
?sockRaw@@3IA DD 0ffffffffH				; sockRaw
?selectServerIndex@@3FA DW 0ffffH			; selectServerIndex
	ORG $+2
?Channel@?1??SaveChatData@@YAXPADD_N@Z@4PAGA DW 08H	; `SaveChatData'::`2'::Channel
	DW	040H
	DW	080H
	DW	0100H
	DW	0400H
_DATA	ENDS
PUBLIC	___local_stdio_printf_options
PUBLIC	___local_stdio_scanf_options
PUBLIC	__vfprintf_l
PUBLIC	_fprintf
PUBLIC	??$__vcrt_va_start_verify_argument_type@QBD@@YAXXZ ; __vcrt_va_start_verify_argument_type<char const * const>
PUBLIC	_printf
PUBLIC	__vsnprintf_l
PUBLIC	__vsprintf_l
PUBLIC	_sprintf
PUBLIC	__vsscanf_l
PUBLIC	_sscanf
PUBLIC	?strstr@@YAPADQADQBD@Z				; strstr
PUBLIC	?initConnectServer@@YAXXZ			; initConnectServer
PUBLIC	?ConnectWGS@@YAHXZ				; ConnectWGS
PUBLIC	?connectServer@@YAHXZ				; connectServer
PUBLIC	?charListStart@@YAXXZ				; charListStart
PUBLIC	?charListProc@@YAHXZ				; charListProc
PUBLIC	?charLoginStart@@YAXXZ				; charLoginStart
PUBLIC	?charLoginProc@@YAHXZ				; charLoginProc
PUBLIC	?createNewCharStart@@YAXXZ			; createNewCharStart
PUBLIC	?createNewCharProc@@YAHXZ			; createNewCharProc
PUBLIC	?charLogoutStart@@YAXXZ				; charLogoutStart
PUBLIC	?charLogoutProc@@YAHXZ				; charLogoutProc
PUBLIC	?walkSendForServer@@YAXHHPAD@Z			; walkSendForServer
PUBLIC	?noChecksumWalkSendForServer@@YAXHHPAD@Z	; noChecksumWalkSendForServer
PUBLIC	?chatStrSendForServer@@YAXPADH@Z		; chatStrSendForServer
PUBLIC	?delCharStart@@YAXXZ				; delCharStart
PUBLIC	?delCharProc@@YAHXZ				; delCharProc
PUBLIC	?lssproto_DENGON_recv@@YAXPADHH@Z		; lssproto_DENGON_recv
PUBLIC	?lssproto_XYD_recv@@YAXHHHH@Z			; lssproto_XYD_recv
PUBLIC	?lssproto_EV_recv@@YAXHHH@Z			; lssproto_EV_recv
PUBLIC	?lssproto_EN_recv@@YAXHHH@Z			; lssproto_EN_recv
PUBLIC	?lssproto_RS_recv@@YAXHPAD@Z			; lssproto_RS_recv
PUBLIC	?lssproto_RD_recv@@YAXHPAD@Z			; lssproto_RD_recv
PUBLIC	?lssproto_B_recv@@YAXHPAD@Z			; lssproto_B_recv
PUBLIC	?lssproto_I_recv@@YAXHPAD@Z			; lssproto_I_recv
PUBLIC	?lssproto_SI_recv@@YAXHHH@Z			; lssproto_SI_recv
PUBLIC	?lssproto_MSG_recv@@YAXHHPADH@Z			; lssproto_MSG_recv
PUBLIC	?lssproto_PME_recv@@YAXHHHHHHHHPAD@Z		; lssproto_PME_recv
PUBLIC	?lssproto_AB_recv@@YAXHPAD@Z			; lssproto_AB_recv
PUBLIC	?lssproto_ABI_recv@@YAXHHPAD@Z			; lssproto_ABI_recv
PUBLIC	?lssproto_TK_recv@@YAXHHPADH@Z			; lssproto_TK_recv
PUBLIC	?lssproto_MC_recv@@YAXHHHHHHHHHPAD@Z		; lssproto_MC_recv
PUBLIC	?lssproto_M_recv@@YAXHHHHHHPAD@Z		; lssproto_M_recv
PUBLIC	?lssproto_C_recv@@YAXHPAD@Z			; lssproto_C_recv
PUBLIC	?lssproto_CA_recv@@YAXHPAD@Z			; lssproto_CA_recv
PUBLIC	?lssproto_CD_recv@@YAXHPAD@Z			; lssproto_CD_recv
PUBLIC	?lssproto_R_recv@@YAXHPAD@Z			; lssproto_R_recv
PUBLIC	?lssproto_S_recv@@YAXHPAD@Z			; lssproto_S_recv
PUBLIC	?lssproto_D_recv@@YAXHHHHPAD@Z			; lssproto_D_recv
PUBLIC	?lssproto_FS_recv@@YAXHH@Z			; lssproto_FS_recv
PUBLIC	?lssproto_HL_recv@@YAXHH@Z			; lssproto_HL_recv
PUBLIC	?lssproto_PR_recv@@YAXHHH@Z			; lssproto_PR_recv
PUBLIC	?lssproto_KS_recv@@YAXHHH@Z			; lssproto_KS_recv
PUBLIC	?lssproto_SPET_recv@@YAXHHH@Z			; lssproto_SPET_recv
PUBLIC	?lssproto_PS_recv@@YAXHHHHH@Z			; lssproto_PS_recv
PUBLIC	?lssproto_SKUP_recv@@YAXHH@Z			; lssproto_SKUP_recv
PUBLIC	?lssproto_WN_recv@@YAXHHHHHPAD@Z		; lssproto_WN_recv
PUBLIC	?lssproto_EF_recv@@YAXHHHPAD@Z			; lssproto_EF_recv
PUBLIC	?lssproto_SE_recv@@YAXHHHHH@Z			; lssproto_SE_recv
PUBLIC	?lssproto_ClientLogin_recv@@YAXHPAD@Z		; lssproto_ClientLogin_recv
PUBLIC	?lssproto_CreateNewChar_recv@@YAXHPAD0@Z	; lssproto_CreateNewChar_recv
PUBLIC	?lssproto_CharDelete_recv@@YAXHPAD0@Z		; lssproto_CharDelete_recv
PUBLIC	?lssproto_CharLogin_recv@@YAXHPAD0@Z		; lssproto_CharLogin_recv
PUBLIC	?lssproto_CharList_recv@@YAXHPAD0@Z		; lssproto_CharList_recv
PUBLIC	?lssproto_CharLogout_recv@@YAXHPAD0@Z		; lssproto_CharLogout_recv
PUBLIC	?lssproto_ProcGet_recv@@YAXHPAD@Z		; lssproto_ProcGet_recv
PUBLIC	?lssproto_PlayerNumGet_recv@@YAXHHH@Z		; lssproto_PlayerNumGet_recv
PUBLIC	?lssproto_Echo_recv@@YAXHPAD@Z			; lssproto_Echo_recv
PUBLIC	?lssproto_NU_recv@@YAXHH@Z			; lssproto_NU_recv
PUBLIC	?lssproto_FM_recv@@YAXHPAD@Z			; lssproto_FM_recv
PUBLIC	?lssproto_WO_recv@@YAXHH@Z			; lssproto_WO_recv
PUBLIC	?lssproto_IC_recv@@YAXHHH@Z			; lssproto_IC_recv
PUBLIC	?lssproto_NC_recv@@YAXHH@Z			; lssproto_NC_recv
PUBLIC	?lssproto_PETST_recv@@YAXHHH@Z			; lssproto_PETST_recv
PUBLIC	?lssproto_STREET_VENDOR_recv@@YAXHPAD@Z		; lssproto_STREET_VENDOR_recv
PUBLIC	?lssproto_JOBDAILY_recv@@YAXHPAD@Z		; lssproto_JOBDAILY_recv
PUBLIC	?lssproto_TEACHER_SYSTEM_recv@@YAXHPAD@Z	; lssproto_TEACHER_SYSTEM_recv
PUBLIC	?lssproto_S2_recv@@YAXHPAD@Z			; lssproto_S2_recv
PUBLIC	?lssproto_Firework_recv@@YAXHHHH@Z		; lssproto_Firework_recv
PUBLIC	?SortSkill@@YAXXZ				; SortSkill
PUBLIC	?SaveChatData@@YAXPADD_N@Z			; SaveChatData
PUBLIC	?LogToRecvdata2@@YAXPAD@Z			; LogToRecvdata2
PUBLIC	?PingFunc@@YGKPAX@Z				; PingFunc
PUBLIC	?lssproto_W_recv@@YAXHHHH@Z			; lssproto_W_recv
PUBLIC	?lssproto_IS_recv@@YAXHPAD@Z			; lssproto_IS_recv
PUBLIC	?lssproto_ACI_recv@@YAXHPAD@Z			; lssproto_ACI_recv
PUBLIC	?checksum@@YAGPAGH@Z				; checksum
PUBLIC	?_OptionsStorage@?1??__local_stdio_printf_options@@9@4_KA ; `__local_stdio_printf_options'::`2'::_OptionsStorage
PUBLIC	?_OptionsStorage@?1??__local_stdio_scanf_options@@9@4_KA ; `__local_stdio_scanf_options'::`2'::_OptionsStorage
PUBLIC	??_C@_0N@OFOPBFLC@recvdata?4txt?$AA@		; `string'
PUBLIC	??_C@_02DPNLHKJD@a?$CL?$AA@			; `string'
PUBLIC	??_C@_0L@INAHAGEI@?b?$KF?S?p?$KD?$LK?7?$CFs?6?$AA@ ; `string'
PUBLIC	??_C@_0BF@JAKPHLLB@?Y?i?$NL?v?$DP?z?$LMsocket?n?$NMTCP?$KB?$KD?$AA@ ; `string'
PUBLIC	??_C@_03GMCCICCK@WGS?$AA@			; `string'
PUBLIC	??_C@_0BO@BHPEJLIB@?Y?i?$NL?v?$DP?T?p?$NO?C?$NM?W?P?o?n?$NM?$KD?I?$KD?P?j?H?v?G?$KB?$KD?$CI?$CFs?$CJ?$AA@ ; `string'
PUBLIC	??_C@_0BI@CKHMFIAG@?Y?i?$NL?v?$DP?c?$LH?$DP?z?$LM?$NO?C?$NM?W?P?o?n?$NM?$DP?o?H?$KB?$KD?$AA@ ; `string'
PUBLIC	??_C@_0O@KDOBPHMN@?$DP?V?X?$DP?Z?$LB?q?W?$DP?$PL?$LP?$KB?$KD?$AA@ ; `string'
PUBLIC	??_C@_0CG@KEAEOGKH@?$LN?$LK?E?f?$LP?$KB?$MA?L?A?v?5?G?O?$LE?C?$MA?$LK?5?G?v?$MA?g?5?A?$KB?$LA?K?5?A?$NP?$MA?T@ ; `string'
PUBLIC	??_C@_02ODPEBLOD@CS?$AA@			; `string'
PUBLIC	??_C@_0BC@PMNBOGBM@?$NO?C?$NM?W?P?o?$DP?o?H?$DP?$DP?l?$KL?S?p?$KB?$KD?$AA@ ; `string'
PUBLIC	??_C@_0N@LCBBLLOI@www?493sa?4com?$AA@		; `string'
PUBLIC	??_C@_0BB@KFDLBKA@?$NO?C?$NM?W?P?o?Y?$KD?$DP?$NM?t?o?a?$DP?$KB?$KD?$AA@ ; `string'
PUBLIC	??_C@_0BA@NDJIOBBC@?$OA?$LE?P?o?$DP?S?$NL?w?z?$NM?b?$NM?t?T?R?$AA@ ; `string'
PUBLIC	??_C@_05DAOAAINN@login?$AA@			; `string'
PUBLIC	??_C@_09BACHGGGK@f?$DLencor1c?$AA@		; `string'
PUBLIC	??_C@_08DDDJOECK@19761101?$AA@			; `string'
PUBLIC	??_C@_02MFDMBIJM@ok?$AA@			; `string'
PUBLIC	??_C@_06ENLDJGGB@cancle?$AA@			; `string'
PUBLIC	??_C@_02DKCKIIND@?$CFs?$AA@			; `string'
PUBLIC	??_C@_0BC@OCCGLCLB@?$DP?v?$KC?l?Q?Z?$KK?x?z?$DP?$DP?l?$KL?S?p?$KB?$KD?$AA@ ; `string'
PUBLIC	??_C@_06ODACHPEO@failed?$AA@			; `string'
PUBLIC	??_C@_0L@LHCHIOPJ@successful?$AA@		; `string'
PUBLIC	??_C@_0N@OGLBPKPL@OUTOFSERVICE?$AA@		; `string'
PUBLIC	??_C@_0O@ENFKOFGC@CHANGE_GALAXY?$AA@		; `string'
PUBLIC	??_C@_03NOBDJFIO@301?$AA@			; `string'
PUBLIC	??_C@_00CNPNBAHC@?$AA@				; `string'
PUBLIC	??_C@_0BA@JFEMHLAM@?T?t?l?$PN?$DP?W?b?$DP?$DP?l?$KL?S?p?$KB?$KD?$AA@ ; `string'
PUBLIC	??_C@_0BA@KHEOLEJA@?T?t?u?s?$DP?W?b?$DP?$DP?l?$KL?S?p?$KB?$KD?$AA@ ; `string'
PUBLIC	??_C@_01NBENCBCI@?$CK?$AA@			; `string'
PUBLIC	??_C@_0M@OMPDAMON@data?$FL1?$FN?3?$CFs?6?$AA@	; `string'
PUBLIC	??_C@_03BBKEAIF@?$DP?$DP?$DP?$AA@		; `string'
PUBLIC	??_C@_0N@GGCIJCKF@?$DP?$DP?$DP?5name?5?$DP?$DP?$DP?$AA@ ; `string'
PUBLIC	??_C@_0N@HKHEIDPM@?$DP?$DP?$DP?5memo?5?$DP?$DP?$DP?$AA@ ; `string'
PUBLIC	??_C@_08PFECBJKL@?$CFd?5Stone?$AA@		; `string'
PUBLIC	??_C@_04BKLDHGDD@P?$HM?$CFs?$AA@		; `string'
PUBLIC	??_C@_0BE@BFJFDKGC@?r?$KG?V?$LF?$NO?E?i?D?L?$KL?c?R?$NM?t?o?a?$DP?$KD?$KB?$AA@ ; `string'
PUBLIC	??_C@_01CLKCMJKC@?5?$AA@			; `string'
PUBLIC	??_C@_03IKGEINEE@?$CFs?5?$AA@			; `string'
PUBLIC	??_C@_0L@BFDNBDBG@P?$HM?1tell?5?$CFs?$AA@	; `string'
PUBLIC	??_C@_07JGJAFNNL@P?$HM?1FM?$CFs?$AA@		; `string'
PUBLIC	??_C@_0N@INHGBDFL@P?$HM?1OCC?$CFs?$KD?$LK?$CFs?$AA@ ; `string'
PUBLIC	??_C@_08KCFIPDCG@T?$HM?$CFs?$KD?$LK?$CFs?$AA@	; `string'
PUBLIC	??_C@_08IPPAKAEL@P?$HM?1WD?5?$CFs?$AA@		; `string'
PUBLIC	??_C@_08NGKGAKGM@P?$HM?1XQ?5?$CFs?$AA@		; `string'
PUBLIC	??_C@_02HIIGDGEP@TK?$AA@			; `string'
PUBLIC	??_C@_02OGAFBLMB@TE?$AA@			; `string'
PUBLIC	??_C@_0BH@DFPJGLLL@?$OA?w?X?$KB?V?$PN?t?$LI?c?x?$DP?p?$LG?$KD?$LC?$KD?$LA?$KD?$LA?$OA?$LE?$DP?$AA@ ; `string'
PUBLIC	??_C@_0BB@JFAECEMN@?l?Q?Z?$KK?p?$KE?m?B?$DP?$DP?l?$KL?S?p?$KB?$KD?$AA@ ; `string'
PUBLIC	??_C@_0BB@ILDAKNL@?l?Q?Z?$KK?$NO?$PL?p?$LG?$DP?$DP?l?$KL?S?p?$KB?$KD?$AA@ ; `string'
PUBLIC	??_C@_0BK@NFKFNKL@?$NM?z?$DP?J?$KL?p?i?n?$KE?v?R?t?$LI?q?$PN?$PN?$KI?$DP?a?$LM?c?w?$DP?$KD?$KB?$AA@ ; `string'
PUBLIC	??_C@_08EOJECCGN@?$CFX?$HM?$CFX?$HM?$CFX?$AA@	; `string'
PUBLIC	??_C@_05HMDCACKA@?$CFX?$HM?$CFX?$AA@		; `string'
PUBLIC	??_C@_03ILJCGOLJ@?6?$CFs?$AA@			; `string'
PUBLIC	??_C@_0BE@MGOKMGBK@?b?$KF?S?p?$CFs?a?j?$DP?n?$NM?$DP?Z?$KK?$DP?K?l?$KD?$KB?$AA@ ; `string'
PUBLIC	??_C@_0BB@JIMIMFE@?b?$KF?S?p?$CFs?a?j?$DP?n?$NM?$DP?K?l?$KD?$KB?$AA@ ; `string'
PUBLIC	??_C@_05OAJDDNFL@?c?w?$DP?$KD?$KB?$AA@		; `string'
PUBLIC	??_C@_01CPLAODJH@S?$AA@				; `string'
PUBLIC	??_C@_01BIAFAFID@F?$AA@				; `string'
PUBLIC	??_C@_01CKDDGHAB@D?$AA@				; `string'
PUBLIC	??_C@_01GFHCPBMG@C?$AA@				; `string'
PUBLIC	??_C@_01LELAEKIP@J?$AA@				; `string'
PUBLIC	??_C@_01OCOKONAJ@L?$AA@				; `string'
PUBLIC	??_C@_01HMGJMAIH@B?$AA@				; `string'
PUBLIC	??_C@_01BBODEMC@G?$AA@				; `string'
PUBLIC	??_C@_01JPJNBJEM@I?$AA@				; `string'
PUBLIC	??_C@_01GAPBHFFA@T?$AA@				; `string'
PUBLIC	??_C@_01DGKLNCNG@R?$AA@				; `string'
PUBLIC	??_C@_01EJNLAFE@P?$AA@				; `string'
PUBLIC	??_C@_06BCPILJJG@CHANGE?$AA@			; `string'
PUBLIC	??_C@_0BG@JGFFJBEF@chat?2?$CF02d?$CF02d?$CF02d?4TXT?$AA@ ; `string'
PUBLIC	??_C@_01MCMALHOG@a?$AA@				; `string'
PUBLIC	??_C@_01EEMJAFIK@?6?$AA@			; `string'
PUBLIC	??_C@_0O@PEDECIPG@?X?$NP?$DP?$DP?V?y?$DP?$DP?$DP?j?s?$DP?$DP?$AA@ ; `string'
PUBLIC	??_C@_04DIIKDPIA@FAME?$AA@			; `string'
EXTRN	___report_rangecheckfailure:PROC
EXTRN	__imp____acrt_iob_func:PROC
EXTRN	__imp__fclose:PROC
EXTRN	__imp__fflush:PROC
EXTRN	__imp__fopen:PROC
EXTRN	__imp__fwrite:PROC
EXTRN	__imp____stdio_common_vfprintf:PROC
EXTRN	__imp____stdio_common_vsprintf:PROC
EXTRN	__imp____stdio_common_vsscanf:PROC
EXTRN	_memcpy:PROC
EXTRN	_memset:PROC
EXTRN	__imp__strstr:PROC
EXTRN	_strcmp:PROC
EXTRN	_strcpy:PROC
EXTRN	_strlen:PROC
EXTRN	__imp__strncpy:PROC
EXTRN	__imp__Sleep@4:PROC
EXTRN	__imp__GetCurrentProcessId@0:PROC
EXTRN	__imp__CreateThread@24:PROC
EXTRN	__imp__GetTickCount@0:PROC
EXTRN	__imp__lstrcpyA@8:PROC
EXTRN	__imp__lstrcatA@8:PROC
EXTRN	__imp__lstrlenA@4:PROC
EXTRN	__imp__atoi:PROC
EXTRN	___WSAFDIsSet@8:PROC
EXTRN	_closesocket@4:PROC
EXTRN	_connect@12:PROC
EXTRN	_ioctlsocket@12:PROC
EXTRN	_htons@4:PROC
EXTRN	_inet_addr@4:PROC
EXTRN	_recv@16:PROC
EXTRN	_recvfrom@24:PROC
EXTRN	_select@20:PROC
EXTRN	_sendto@24:PROC
EXTRN	_setsockopt@20:PROC
EXTRN	_socket@12:PROC
EXTRN	_gethostbyname@4:PROC
EXTRN	_WSAGetLastError@0:PROC
EXTRN	__imp___localtime64:PROC
EXTRN	__imp___time64:PROC
EXTRN	?TimeGetTime@@YAIXZ:PROC			; TimeGetTime
EXTRN	?PaletteChange@@YAXHH@Z:PROC			; PaletteChange
EXTRN	?ChangeProc@@YAXH@Z:PROC			; ChangeProc
EXTRN	?warpEffectProc@@YAXXZ:PROC			; warpEffectProc
EXTRN	?JL_SetFastFightFlag@@YAX_N@Z:PROC		; JL_SetFastFightFlag
EXTRN	?JL_锁定人物@@YAX_N@Z:PROC			; JL_锁定人物
EXTRN	?JL_关闭特效_回记录点@@YAXXZ:PROC		; JL_关闭特效_回记录点
EXTRN	?sunday@@YAPADPAD0@Z:PROC			; sunday
EXTRN	?DeathAction@@YAXPAUaction@@@Z:PROC		; DeathAction
EXTRN	?DeathAllAction@@YAXXZ:PROC			; DeathAllAction
EXTRN	?StockChatBufferLine@@YAXPADEH@Z:PROC		; StockChatBufferLine
EXTRN	?StockChatBufferLineExt@@YAXPADEHH@Z:PROC	; StockChatBufferLineExt
EXTRN	?getServerInfo@@YAHHPADPAF@Z:PROC		; getServerInfo
EXTRN	?initNet@@YAHXZ:PROC				; initNet
EXTRN	?cleanupNetwork@@YAXXZ:PROC			; cleanupNetwork
EXTRN	?lssproto_W2_send@@YAXHHHPAD@Z:PROC		; lssproto_W2_send
EXTRN	?lssproto_TK_send@@YAXHHHPADHH@Z:PROC		; lssproto_TK_send
EXTRN	?lssproto_AC_send@@YAXHHHH@Z:PROC		; lssproto_AC_send
EXTRN	?lssproto_SP_send@@YAXHHHH@Z:PROC		; lssproto_SP_send
EXTRN	?lssproto_ClientLogin_send@@YAXHPAD0@Z:PROC	; lssproto_ClientLogin_send
EXTRN	?lssproto_CreateNewChar_send@@YAXHHPADHHHHHHHHHHH@Z:PROC ; lssproto_CreateNewChar_send
EXTRN	?lssproto_CharDelete_send@@YAXHPAD@Z:PROC	; lssproto_CharDelete_send
EXTRN	?lssproto_CharLogin_send@@YAXHPAD@Z:PROC	; lssproto_CharLogin_send
EXTRN	?lssproto_CharList_send@@YAXH@Z:PROC		; lssproto_CharList_send
EXTRN	?lssproto_CharLogout_send@@YAXHH@Z:PROC		; lssproto_CharLogout_send
EXTRN	?lssproto_MA_send@@YAXHHHH@Z:PROC		; lssproto_MA_send
EXTRN	?lssproto_CHATROOM_send@@YAXHPAD@Z:PROC		; lssproto_CHATROOM_send
EXTRN	?old_lssproto_W_send@@YAXHHHPAD@Z:PROC		; old_lssproto_W_send
EXTRN	?old_lssproto_w_send@@YAXHHHPAD@Z:PROC		; old_lssproto_w_send
EXTRN	?old_lssproto_TK_send@@YAXHHHPADHH@Z:PROC	; old_lssproto_TK_send
EXTRN	?old_lssproto_AC_send@@YAXHHHH@Z:PROC		; old_lssproto_AC_send
EXTRN	?old_lssproto_SP_send@@YAXHHHH@Z:PROC		; old_lssproto_SP_send
EXTRN	?old_lssproto_ClientLogin_send@@YAXHPAD0@Z:PROC	; old_lssproto_ClientLogin_send
EXTRN	?old_lssproto_CreateNewChar_send@@YAXHHPADHHHHHHHHHHH@Z:PROC ; old_lssproto_CreateNewChar_send
EXTRN	?old_lssproto_CharDelete_send@@YAXHPAD@Z:PROC	; old_lssproto_CharDelete_send
EXTRN	?old_lssproto_CharLogin_send@@YAXHPAD@Z:PROC	; old_lssproto_CharLogin_send
EXTRN	?old_lssproto_CharList_send@@YAXH@Z:PROC	; old_lssproto_CharList_send
EXTRN	?old_lssproto_CharLogout_send@@YAXH@Z:PROC	; old_lssproto_CharLogout_send
EXTRN	?saveUserSetting@@YAHXZ:PROC			; saveUserSetting
EXTRN	?createPc@@YAXHHHH@Z:PROC			; createPc
EXTRN	?resetPc@@YAXXZ:PROC				; resetPc
EXTRN	?setPcWarpPoint@@YAXHH@Z:PROC			; setPcWarpPoint
EXTRN	?setPcPoint@@YAXXZ:PROC				; setPcPoint
EXTRN	?setPcGraNo@@YAXHH@Z:PROC			; setPcGraNo
EXTRN	?setPcId@@YAXH@Z:PROC				; setPcId
EXTRN	?setPcDir@@YAXH@Z:PROC				; setPcDir
EXTRN	?setPcAction@@YAXH@Z:PROC			; setPcAction
EXTRN	?setPcParam@@YAXPAD0H0HHHHHHHH@Z:PROC		; setPcParam
EXTRN	?updataPcAct@@YAXXZ:PROC			; updataPcAct
EXTRN	?setPcLeader@@YAXXZ:PROC			; setPcLeader
EXTRN	?setPcParty@@YAXXZ:PROC				; setPcParty
EXTRN	?changePcAct@@YAXHHHHHHH@Z:PROC			; changePcAct
EXTRN	?setPcFukidashi@@YAXI@Z:PROC			; setPcFukidashi
EXTRN	?setPcNameColor@@YAXH@Z:PROC			; setPcNameColor
EXTRN	?clearPartyParam@@YAXXZ:PROC			; clearPartyParam
EXTRN	?clearPtActPartyParam@@YAXXZ:PROC		; clearPtActPartyParam
EXTRN	?setCharacterList@@YAHPAD0@Z:PROC		; setCharacterList
EXTRN	?resetCharacterList@@YAHH@Z:PROC		; resetCharacterList
EXTRN	?swapItem@@YAXHH@Z:PROC				; swapItem
EXTRN	?getStringToken@@YAHPADDHH0@Z:PROC		; getStringToken
EXTRN	?getIntegerToken@@YAHPADDH@Z:PROC		; getIntegerToken
EXTRN	?a62toi@@YAHPAD@Z:PROC				; a62toi
EXTRN	?getInteger62Token@@YAHPADDH@Z:PROC		; getInteger62Token
EXTRN	?makeStringFromEscaped@@YAPADPAD@Z:PROC		; makeStringFromEscaped
EXTRN	?makeEscapeString@@YAPADPAD0H@Z:PROC		; makeEscapeString
EXTRN	?resetMap@@YAXXZ:PROC				; resetMap
EXTRN	?createMap@@YAXHHH@Z:PROC			; createMap
EXTRN	?writeMap@@YAHHHHHHPAG00@Z:PROC			; writeMap
EXTRN	?setMap@@YAXHHH@Z:PROC				; setMap
EXTRN	?mapCheckSum@@YAHHHHHHHHH@Z:PROC		; mapCheckSum
EXTRN	?redrawMap@@YAXXZ:PROC				; redrawMap
EXTRN	?updateMapArea@@YAXXZ:PROC			; updateMapArea
EXTRN	?goFrontPartyCharacter@@YAXHHH@Z:PROC		; goFrontPartyCharacter
EXTRN	?initMapEffect@@YAXH@Z:PROC			; initMapEffect
EXTRN	?setNpcNotice@@YAXPAUaction@@H@Z:PROC		; setNpcNotice
EXTRN	?changeCharAct@@YAXPAUaction@@HHHHHHH@Z:PROC	; changeCharAct
EXTRN	?setCharLeader@@YAXPAUaction@@@Z:PROC		; setCharLeader
EXTRN	?setCharParty@@YAXPAUaction@@@Z:PROC		; setCharParty
EXTRN	?delCharParty@@YAXPAUaction@@@Z:PROC		; delCharParty
EXTRN	?setCharMind@@YAXPAUaction@@H@Z:PROC		; setCharMind
EXTRN	?setCharFukidashi@@YAXPAUaction@@I@Z:PROC	; setCharFukidashi
EXTRN	?setCharNameColor@@YAXPAUaction@@H@Z:PROC	; setCharNameColor
EXTRN	?setNpcCharObj@@YAXHHHHHPAD00H0HHHHHHHH@Z:PROC	; setNpcCharObj
EXTRN	?setReturnPetObj@@YAHHHHHHPAD0HHHHH@Z:PROC	; setReturnPetObj
EXTRN	?setItemCharObj@@YAXHHHHHHPAD@Z:PROC		; setItemCharObj
EXTRN	?setMoneyCharObj@@YAXHHHHHHPAD@Z:PROC		; setMoneyCharObj
EXTRN	?delCharObj@@YAXH@Z:PROC			; delCharObj
EXTRN	?resetCharObj@@YAXXZ:PROC			; resetCharObj
EXTRN	?getCharObjAct@@YAPAUaction@@H@Z:PROC		; getCharObjAct
EXTRN	?createPetAction@@YAPAUaction@@HHHHHHH@Z:PROC	; createPetAction
EXTRN	?TradeTalk@@YAXPAD@Z:PROC			; TradeTalk
EXTRN	?SaveMailHistory@@YAHH@Z:PROC			; SaveMailHistory
EXTRN	?CheckMailNoReadFlag@@YAHXZ:PROC		; CheckMailNoReadFlag
EXTRN	?DeathLetterAction@@YAXXZ:PROC			; DeathLetterAction
EXTRN	?BankmanInit@@YAXPAD@Z:PROC			; BankmanInit
EXTRN	?InitSelectChar@@YAXPADH@Z:PROC			; InitSelectChar
EXTRN	?openServerWindow@@YAXHHHHPAD@Z:PROC		; openServerWindow
EXTRN	?RealTimeToSATime@@YAXPAUtagLSTIME@@@Z:PROC	; RealTimeToSATime
EXTRN	?getLSTime@@YA?AW4LSTIME_SECTION@@PAUtagLSTIME@@@Z:PROC ; getLSTime
EXTRN	?play_se@@YAHHHH@Z:PROC				; play_se
EXTRN	?DoHellow@@YAXXZ:PROC				; DoHellow
EXTRN	?DoSKey@@YAXXZ:PROC				; DoSKey
EXTRN	?ecb_crypt@@YAHPAD0II@Z:PROC			; ecb_crypt
EXTRN	__imp__VMProtectBegin@4:PROC
EXTRN	__imp__VMProtectEnd@0:PROC
EXTRN	?initFamilyList@@YAXPAD@Z:PROC			; initFamilyList
EXTRN	?initFamilyDetail@@YAXPAD@Z:PROC		; initFamilyDetail
EXTRN	?initJoinChannel2WN@@YAXPAD@Z:PROC		; initJoinChannel2WN
EXTRN	?initFamilyTaxWN@@YAXPAD@Z:PROC			; initFamilyTaxWN
EXTRN	?initFamilyLeaderChange@@YAXPAD@Z:PROC		; initFamilyLeaderChange
EXTRN	?StreetVendorWndfunc@@YAX_NPAD@Z:PROC		; StreetVendorWndfunc
EXTRN	?StreetVendorBuyWndfunc@@YAXPAD@Z:PROC		; StreetVendorBuyWndfunc
EXTRN	?TeacherSystemWndfunc@@YAXHPAD@Z:PROC		; TeacherSystemWndfunc
EXTRN	@_RTC_CheckStackVars@8:PROC
EXTRN	@__security_check_cookie@4:PROC
EXTRN	__RTC_CheckEsp:PROC
EXTRN	__RTC_InitBase:PROC
EXTRN	__RTC_Shutdown:PROC
EXTRN	__chkstk:PROC
EXTRN	_memset:PROC
EXTRN	?ProcNo@@3IA:DWORD				; ProcNo
EXTRN	?SubProcNo@@3IA:DWORD				; SubProcNo
EXTRN	?palNo@@3HA:DWORD				; palNo
EXTRN	?palTime@@3HA:DWORD				; palTime
EXTRN	?PersonalKey@@3PADA:BYTE			; PersonalKey
EXTRN	?NowMaxVoice@@3HA:DWORD				; NowMaxVoice
EXTRN	?sockfd@@3IA:DWORD				; sockfd
EXTRN	?server_choosed@@3HA:DWORD			; server_choosed
EXTRN	?init_net@@3HA:DWORD				; init_net
EXTRN	?disconnectServerFlag@@3HA:DWORD		; disconnectServerFlag
EXTRN	?oldDisconnectServerFlag@@3HA:DWORD		; oldDisconnectServerFlag
EXTRN	?SendCount@@3HA:DWORD				; SendCount
EXTRN	?sPetStatFlag@@3HA:DWORD			; sPetStatFlag
EXTRN	?pc@@3UPC@@A:BYTE				; pc
EXTRN	?selectPcNo@@3FA:WORD				; selectPcNo
EXTRN	?prSendFlag@@3FA:WORD				; prSendFlag
EXTRN	?jbSendFlag@@3FA:WORD				; jbSendFlag
EXTRN	?duelSendFlag@@3FA:WORD				; duelSendFlag
EXTRN	?helpFlag@@3FA:WORD				; helpFlag
EXTRN	?tradeStatus@@3FA:WORD				; tradeStatus
EXTRN	?magic@@3PAUMAGIC@@A:BYTE			; magic
EXTRN	?pet@@3PAUPET@@A:BYTE				; pet
EXTRN	?party@@3PAUPARTY@@A:BYTE			; party
EXTRN	?partyModeFlag@@3FA:WORD			; partyModeFlag
EXTRN	?addressBook@@3PAUADDRESS_BOOK@@A:BYTE		; addressBook
EXTRN	?battleResultMsg@@3UBATTLE_RESULT_MSG@@A:BYTE	; battleResultMsg
EXTRN	?petSkill@@3PAY06UPET_SKILL@@A:BYTE		; petSkill
EXTRN	?newCharacterName@@3PADA:BYTE			; newCharacterName
EXTRN	?newCharacterGraNo@@3HA:DWORD			; newCharacterGraNo
EXTRN	?newCharacterFaceGraNo@@3HA:DWORD		; newCharacterFaceGraNo
EXTRN	?newCharacterVit@@3HA:DWORD			; newCharacterVit
EXTRN	?newCharacterStr@@3HA:DWORD			; newCharacterStr
EXTRN	?newCharacterTgh@@3HA:DWORD			; newCharacterTgh
EXTRN	?newCharacterDex@@3HA:DWORD			; newCharacterDex
EXTRN	?newCharacterEarth@@3HA:DWORD			; newCharacterEarth
EXTRN	?newCharacterWater@@3HA:DWORD			; newCharacterWater
EXTRN	?newCharacterFire@@3HA:DWORD			; newCharacterFire
EXTRN	?newCharacterWind@@3HA:DWORD			; newCharacterWind
EXTRN	?newCharacterHomeTown@@3HA:DWORD		; newCharacterHomeTown
EXTRN	?profession_skill@@3PAUPROFESSION_SKILL@@A:BYTE	; profession_skill
EXTRN	?nowFloorName@@3PADA:BYTE			; nowFloorName
EXTRN	?nowFloor@@3HA:DWORD				; nowFloor
EXTRN	?nowFloorGxSize@@3HA:DWORD			; nowFloorGxSize
EXTRN	?nowFloorGySize@@3HA:DWORD			; nowFloorGySize
EXTRN	?nowGx@@3HA:DWORD				; nowGx
EXTRN	?nowGy@@3HA:DWORD				; nowGy
EXTRN	?nextGx@@3HA:DWORD				; nextGx
EXTRN	?nextGy@@3HA:DWORD				; nextGy
EXTRN	?mapEmptyFlag@@3HA:DWORD			; mapEmptyFlag
EXTRN	?nowEncountPercentage@@3FA:WORD			; nowEncountPercentage
EXTRN	?nowEncountExtra@@3FA:WORD			; nowEncountExtra
EXTRN	?minEncountPercentage@@3FA:WORD			; minEncountPercentage
EXTRN	?maxEncountPercentage@@3FA:WORD			; maxEncountPercentage
EXTRN	?sendEnFlag@@3FA:WORD				; sendEnFlag
EXTRN	?encountNowFlag@@3FA:WORD			; encountNowFlag
EXTRN	?eventWarpSendFlag@@3FA:WORD			; eventWarpSendFlag
EXTRN	?eventWarpSendId@@3FA:WORD			; eventWarpSendId
EXTRN	?eventEnemySendFlag@@3FA:WORD			; eventEnemySendFlag
EXTRN	?eventEnemySendId@@3FA:WORD			; eventEnemySendId
EXTRN	?eventEnemyFlag@@3FA:WORD			; eventEnemyFlag
EXTRN	?loginFlag@@3HA:DWORD				; loginFlag
EXTRN	?vsLookFlag@@3FA:WORD				; vsLookFlag
EXTRN	?floorChangeFlag@@3HA:DWORD			; floorChangeFlag
EXTRN	?warpEffectFlag@@3HA:DWORD			; warpEffectFlag
EXTRN	?warpEffectStart@@3HA:DWORD			; warpEffectStart
EXTRN	?warpEffectOk@@3HA:DWORD			; warpEffectOk
EXTRN	?transmigrationEffectFlag@@3HA:DWORD		; transmigrationEffectFlag
EXTRN	?transEffectPaletteStatus@@3HA:DWORD		; transEffectPaletteStatus
EXTRN	?mapEffectRainLevel@@3FA:WORD			; mapEffectRainLevel
EXTRN	?mapEffectSnowLevel@@3FA:WORD			; mapEffectSnowLevel
EXTRN	?mapEffectKamiFubukiLevel@@3FA:WORD		; mapEffectKamiFubukiLevel
EXTRN	?mapEffectHalloween@@3HA:DWORD			; mapEffectHalloween
EXTRN	?BattleCmdBak@@3PAY0BAAA@DA:BYTE		; BattleCmdBak
EXTRN	?BattleCmdReadPointer@@3HA:DWORD		; BattleCmdReadPointer
EXTRN	?BattleCmdWritePointer@@3HA:DWORD		; BattleCmdWritePointer
EXTRN	?BattleStatusBak@@3PAY0BAAA@DA:BYTE		; BattleStatusBak
EXTRN	?BattleStatusReadPointer@@3HA:DWORD		; BattleStatusReadPointer
EXTRN	?BattleStatusWritePointer@@3HA:DWORD		; BattleStatusWritePointer
EXTRN	?BattleMyNo@@3HA:DWORD				; BattleMyNo
EXTRN	?BattleMyMp@@3HA:DWORD				; BattleMyMp
EXTRN	?BattleEscFlag@@3HA:DWORD			; BattleEscFlag
EXTRN	?BattlePetStMenCnt@@3HA:DWORD			; BattlePetStMenCnt
EXTRN	?battlePetNoBak@@3HA:DWORD			; battlePetNoBak
EXTRN	?BattleBpFlag@@3HA:DWORD			; BattleBpFlag
EXTRN	?BattleAnimFlag@@3HA:DWORD			; BattleAnimFlag
EXTRN	?BattleTurnReceiveFlag@@3HA:DWORD		; BattleTurnReceiveFlag
EXTRN	?BattleCliTurnNo@@3HA:DWORD			; BattleCliTurnNo
EXTRN	?BattleSvTurnNo@@3HA:DWORD			; BattleSvTurnNo
EXTRN	?EncountFlag@@3HA:DWORD				; EncountFlag
EXTRN	?NoHelpFlag@@3HA:DWORD				; NoHelpFlag
EXTRN	?NoCastFlag@@3HA:DWORD				; NoCastFlag
EXTRN	?DuelFlag@@3HA:DWORD				; DuelFlag
EXTRN	?BattleMapNo@@3HA:DWORD				; BattleMapNo
EXTRN	?MenuToggleFlag@@3IA:DWORD			; MenuToggleFlag
EXTRN	?StatusUpPoint@@3HA:DWORD			; StatusUpPoint
EXTRN	?BattlePetReceiveFlag@@3HA:DWORD		; BattlePetReceiveFlag
EXTRN	?StandbyPetSendFlag@@3HA:DWORD			; StandbyPetSendFlag
EXTRN	?BattlePetReceivePetNo@@3HA:DWORD		; BattlePetReceivePetNo
EXTRN	?MailHistory@@3PAUMAIL_HISTORY@@A:BYTE		; MailHistory
EXTRN	?mailHistoryWndPageNo@@3HA:DWORD		; mailHistoryWndPageNo
EXTRN	?mailHistoryWndSelectNo@@3HA:DWORD		; mailHistoryWndSelectNo
EXTRN	?MapWmdFlagBak@@3HA:DWORD			; MapWmdFlagBak
EXTRN	?ItemMixRecvFlag@@3HA:DWORD			; ItemMixRecvFlag
EXTRN	?TalkMode@@3HA:DWORD				; TalkMode
EXTRN	?secretName@@3PADA:BYTE				; secretName
EXTRN	?logOutFlag@@3HA:DWORD				; logOutFlag
EXTRN	?MsgCooltime@@3IA:DWORD				; MsgCooltime
EXTRN	?SaTime@@3UtagLSTIME@@A:BYTE			; SaTime
EXTRN	?serverTime@@3JA:DWORD				; serverTime
EXTRN	?FirstTime@@3JA:DWORD				; FirstTime
EXTRN	?SaTimeZoneNo@@3HA:DWORD			; SaTimeZoneNo
EXTRN	?TimeZonePalChangeFlag@@3HA:DWORD		; TimeZonePalChangeFlag
EXTRN	?angelFlag@@3HA:DWORD				; angelFlag
EXTRN	?angelMsg@@3PADA:BYTE				; angelMsg
EXTRN	?drawTimeAnimeFlag@@3FA:WORD			; drawTimeAnimeFlag
EXTRN	?mailLamp@@3FA:WORD				; mailLamp
EXTRN	?serverAliveTime@@3PAUtm@@A:DWORD		; serverAliveTime
EXTRN	?serverAliveLongTime@@3_JA:QWORD		; serverAliveLongTime
EXTRN	?dwServer@@3KA:DWORD				; dwServer
EXTRN	?iWGS@@3HA:DWORD				; iWGS
EXTRN	?szWGS@@3PADA:BYTE				; szWGS
EXTRN	?wWGS@@3GA:WORD					; wWGS
EXTRN	?szCSIP@@3PADA:BYTE				; szCSIP
EXTRN	?wCS@@3GA:WORD					; wCS
EXTRN	?PcLanded@@3ULanded@@A:BYTE			; PcLanded
EXTRN	?szUser@@3PADA:BYTE				; szUser
EXTRN	?szPassword@@3PADA:BYTE				; szPassword
EXTRN	?iEncrypt@@3HA:DWORD				; iEncrypt
EXTRN	?NoDelay@@3HA:DWORD				; NoDelay
EXTRN	?g_服务器@@3HA:DWORD				; g_服务器
EXTRN	?itemWndMaxBag@@3HA:DWORD			; itemWndMaxBag
EXTRN	?g_bFastFight@@3HA:DWORD			; g_bFastFight
EXTRN	?g_flag_FastFight@@3HA:DWORD			; g_flag_FastFight
EXTRN	?g_bFastFight@@3HA:DWORD			; g_bFastFight
EXTRN	?m_bt@@3_NA:BYTE				; m_bt
EXTRN	?sStreetVendorBtn@@3FA:WORD			; sStreetVendorBtn
EXTRN	?sStreetVendorBuyBtn@@3FA:WORD			; sStreetVendorBuyBtn
EXTRN	?jobdaily@@3PAUJOBDAILY@@A:BYTE			; jobdaily
EXTRN	?JobdailyGetFlag@@3HA:DWORD			; JobdailyGetFlag
EXTRN	?JobdailyGetMax@@3HA:DWORD			; JobdailyGetMax
EXTRN	?sTeacherSystemBtn@@3FA:WORD			; sTeacherSystemBtn
EXTRN	?公告数量@@3HA:DWORD				; 公告数量
EXTRN	?公告内容@@3PADA:BYTE				; 公告内容
EXTRN	?公告颜色@@3HA:DWORD				; 公告颜色
EXTRN	?公告时间@@3HA:DWORD				; 公告时间
EXTRN	___security_cookie:DWORD
;	COMDAT ?_OptionsStorage@?1??__local_stdio_printf_options@@9@4_KA
_BSS	SEGMENT
?_OptionsStorage@?1??__local_stdio_printf_options@@9@4_KA DQ 01H DUP (?) ; `__local_stdio_printf_options'::`2'::_OptionsStorage
_BSS	ENDS
;	COMDAT ?_OptionsStorage@?1??__local_stdio_scanf_options@@9@4_KA
_BSS	SEGMENT
?_OptionsStorage@?1??__local_stdio_scanf_options@@9@4_KA DQ 01H DUP (?) ; `__local_stdio_scanf_options'::`2'::_OptionsStorage
_BSS	ENDS
_BSS	SEGMENT
?pFile@?1??SaveChatData@@YAXPADD_N@Z@4PAPAU_iobuf@@A DD 05H DUP (?) ; `SaveChatData'::`2'::pFile
?szFileName@?1??SaveChatData@@YAXPADD_N@Z@4PADA DB 0100H DUP (?) ; `SaveChatData'::`2'::szFileName
?nowTime@?1??SaveChatData@@YAXPADD_N@Z@4PAUtm@@A DD 01H DUP (?) ; `SaveChatData'::`2'::nowTime
	ALIGN	8

?longTime@?1??SaveChatData@@YAXPADD_N@Z@4_JA DQ 01H DUP (?) ; `SaveChatData'::`2'::longTime
_BSS	ENDS
;	COMDAT rtc$TMZ
rtc$TMZ	SEGMENT
__RTC_Shutdown.rtc$TMZ DD FLAT:__RTC_Shutdown
rtc$TMZ	ENDS
;	COMDAT rtc$IMZ
rtc$IMZ	SEGMENT
__RTC_InitBase.rtc$IMZ DD FLAT:__RTC_InitBase
rtc$IMZ	ENDS
;	COMDAT ??_C@_04DIIKDPIA@FAME?$AA@
CONST	SEGMENT
??_C@_04DIIKDPIA@FAME?$AA@ DB 'FAME', 00H		; `string'
CONST	ENDS
;	COMDAT ??_C@_0O@PEDECIPG@?X?$NP?$DP?$DP?V?y?$DP?$DP?$DP?j?s?$DP?$DP?$AA@
CONST	SEGMENT
??_C@_0O@PEDECIPG@?X?$NP?$DP?$DP?V?y?$DP?$DP?$DP?j?s?$DP?$DP?$AA@ DB 0d8H
	DB	0dfH, '??', 0d6H, 0f9H, '???', 0eaH, 0f3H, '??', 00H ; `string'
CONST	ENDS
;	COMDAT ??_C@_01EEMJAFIK@?6?$AA@
CONST	SEGMENT
??_C@_01EEMJAFIK@?6?$AA@ DB 0aH, 00H			; `string'
CONST	ENDS
;	COMDAT ??_C@_01MCMALHOG@a?$AA@
CONST	SEGMENT
??_C@_01MCMALHOG@a?$AA@ DB 'a', 00H			; `string'
CONST	ENDS
;	COMDAT ??_C@_0BG@JGFFJBEF@chat?2?$CF02d?$CF02d?$CF02d?4TXT?$AA@
CONST	SEGMENT
??_C@_0BG@JGFFJBEF@chat?2?$CF02d?$CF02d?$CF02d?4TXT?$AA@ DB 'chat\%02d%02'
	DB	'd%02d.TXT', 00H				; `string'
CONST	ENDS
;	COMDAT ??_C@_06BCPILJJG@CHANGE?$AA@
CONST	SEGMENT
??_C@_06BCPILJJG@CHANGE?$AA@ DB 'CHANGE', 00H		; `string'
CONST	ENDS
;	COMDAT ??_C@_01EJNLAFE@P?$AA@
CONST	SEGMENT
??_C@_01EJNLAFE@P?$AA@ DB 'P', 00H			; `string'
CONST	ENDS
;	COMDAT ??_C@_01DGKLNCNG@R?$AA@
CONST	SEGMENT
??_C@_01DGKLNCNG@R?$AA@ DB 'R', 00H			; `string'
CONST	ENDS
;	COMDAT ??_C@_01GAPBHFFA@T?$AA@
CONST	SEGMENT
??_C@_01GAPBHFFA@T?$AA@ DB 'T', 00H			; `string'
CONST	ENDS
;	COMDAT ??_C@_01JPJNBJEM@I?$AA@
CONST	SEGMENT
??_C@_01JPJNBJEM@I?$AA@ DB 'I', 00H			; `string'
CONST	ENDS
;	COMDAT ??_C@_01BBODEMC@G?$AA@
CONST	SEGMENT
??_C@_01BBODEMC@G?$AA@ DB 'G', 00H			; `string'
CONST	ENDS
;	COMDAT ??_C@_01HMGJMAIH@B?$AA@
CONST	SEGMENT
??_C@_01HMGJMAIH@B?$AA@ DB 'B', 00H			; `string'
CONST	ENDS
;	COMDAT ??_C@_01OCOKONAJ@L?$AA@
CONST	SEGMENT
??_C@_01OCOKONAJ@L?$AA@ DB 'L', 00H			; `string'
CONST	ENDS
;	COMDAT ??_C@_01LELAEKIP@J?$AA@
CONST	SEGMENT
??_C@_01LELAEKIP@J?$AA@ DB 'J', 00H			; `string'
CONST	ENDS
;	COMDAT ??_C@_01GFHCPBMG@C?$AA@
CONST	SEGMENT
??_C@_01GFHCPBMG@C?$AA@ DB 'C', 00H			; `string'
CONST	ENDS
;	COMDAT ??_C@_01CKDDGHAB@D?$AA@
CONST	SEGMENT
??_C@_01CKDDGHAB@D?$AA@ DB 'D', 00H			; `string'
CONST	ENDS
;	COMDAT ??_C@_01BIAFAFID@F?$AA@
CONST	SEGMENT
??_C@_01BIAFAFID@F?$AA@ DB 'F', 00H			; `string'
CONST	ENDS
;	COMDAT ??_C@_01CPLAODJH@S?$AA@
CONST	SEGMENT
??_C@_01CPLAODJH@S?$AA@ DB 'S', 00H			; `string'
CONST	ENDS
;	COMDAT ??_C@_05OAJDDNFL@?c?w?$DP?$KD?$KB?$AA@
CONST	SEGMENT
??_C@_05OAJDDNFL@?c?w?$DP?$KD?$KB?$AA@ DB 0e3H, 0f7H, '?', 0a3H, 0a1H, 00H ; `string'
CONST	ENDS
;	COMDAT ??_C@_0BB@JIMIMFE@?b?$KF?S?p?$CFs?a?j?$DP?n?$NM?$DP?K?l?$KD?$KB?$AA@
CONST	SEGMENT
??_C@_0BB@JIMIMFE@?b?$KF?S?p?$CFs?a?j?$DP?n?$NM?$DP?K?l?$KD?$KB?$AA@ DB 0e2H
	DB	0a5H, 0d3H, 0f0H, '%s', 0e1H, 0eaH, '?', 0eeH, 0dcH, '?', 0cbH
	DB	0ecH, 0a3H, 0a1H, 00H			; `string'
CONST	ENDS
;	COMDAT ??_C@_0BE@MGOKMGBK@?b?$KF?S?p?$CFs?a?j?$DP?n?$NM?$DP?Z?$KK?$DP?K?l?$KD?$KB?$AA@
CONST	SEGMENT
??_C@_0BE@MGOKMGBK@?b?$KF?S?p?$CFs?a?j?$DP?n?$NM?$DP?Z?$KK?$DP?K?l?$KD?$KB?$AA@ DB 0e2H
	DB	0a5H, 0d3H, 0f0H, '%s', 0e1H, 0eaH, '?', 0eeH, 0dcH, '?', 0daH
	DB	0aaH, '?', 0cbH, 0ecH, 0a3H, 0a1H, 00H	; `string'
CONST	ENDS
;	COMDAT ??_C@_03ILJCGOLJ@?6?$CFs?$AA@
CONST	SEGMENT
??_C@_03ILJCGOLJ@?6?$CFs?$AA@ DB 0aH, '%s', 00H		; `string'
CONST	ENDS
;	COMDAT ??_C@_05HMDCACKA@?$CFX?$HM?$CFX?$AA@
CONST	SEGMENT
??_C@_05HMDCACKA@?$CFX?$HM?$CFX?$AA@ DB '%X|%X', 00H	; `string'
CONST	ENDS
;	COMDAT ??_C@_08EOJECCGN@?$CFX?$HM?$CFX?$HM?$CFX?$AA@
CONST	SEGMENT
??_C@_08EOJECCGN@?$CFX?$HM?$CFX?$HM?$CFX?$AA@ DB '%X|%X|%X', 00H ; `string'
CONST	ENDS
;	COMDAT ??_C@_0BK@NFKFNKL@?$NM?z?$DP?J?$KL?p?i?n?$KE?v?R?t?$LI?q?$PN?$PN?$KI?$DP?a?$LM?c?w?$DP?$KD?$KB?$AA@
CONST	SEGMENT
??_C@_0BK@NFKFNKL@?$NM?z?$DP?J?$KL?p?i?n?$KE?v?R?t?$LI?q?$PN?$PN?$KI?$DP?a?$LM?c?w?$DP?$KD?$KB?$AA@ DB 0dcH
	DB	0faH, '?', 0caH, 0abH, 0f0H, 0e9H, 0eeH, 0a4H, 0f6H, 0d2H, 0f4H
	DB	0b8H, 0f1H, 0fdH, 0fdH, 0a8H, '?', 0e1H, 0bcH, 0e3H, 0f7H, '?', 0a3H
	DB	0a1H, 00H					; `string'
CONST	ENDS
;	COMDAT ??_C@_0BB@ILDAKNL@?l?Q?Z?$KK?$NO?$PL?p?$LG?$DP?$DP?l?$KL?S?p?$KB?$KD?$AA@
CONST	SEGMENT
??_C@_0BB@ILDAKNL@?l?Q?Z?$KK?$NO?$PL?p?$LG?$DP?$DP?l?$KL?S?p?$KB?$KD?$AA@ DB 0ecH
	DB	0d1H, 0daH, 0aaH, 0deH, 0fbH, 0f0H, 0b6H, '??', 0ecH, 0abH, 0d3H
	DB	0f0H, 0a1H, 0a3H, 00H			; `string'
CONST	ENDS
;	COMDAT ??_C@_0BB@JFAECEMN@?l?Q?Z?$KK?p?$KE?m?B?$DP?$DP?l?$KL?S?p?$KB?$KD?$AA@
CONST	SEGMENT
??_C@_0BB@JFAECEMN@?l?Q?Z?$KK?p?$KE?m?B?$DP?$DP?l?$KL?S?p?$KB?$KD?$AA@ DB 0ecH
	DB	0d1H, 0daH, 0aaH, 0f0H, 0a4H, 0edH, 0c2H, '??', 0ecH, 0abH, 0d3H
	DB	0f0H, 0a1H, 0a3H, 00H			; `string'
CONST	ENDS
;	COMDAT ??_C@_0BH@DFPJGLLL@?$OA?w?X?$KB?V?$PN?t?$LI?c?x?$DP?p?$LG?$KD?$LC?$KD?$LA?$KD?$LA?$OA?$LE?$DP?$AA@
CONST	SEGMENT
??_C@_0BH@DFPJGLLL@?$OA?w?X?$KB?V?$PN?t?$LI?c?x?$DP?p?$LG?$KD?$LC?$KD?$LA?$KD?$LA?$OA?$LE?$DP?$AA@ DB 0e0H
	DB	0f7H, 0d8H, 0a1H, 0d6H, 0fdH, 0f4H, 0b8H, 0e3H, 0f8H, '?', 0f0H
	DB	0b6H, 0a3H, 0b2H, 0a3H, 0b0H, 0a3H, 0b0H, 0e0H, 0b4H, '?', 00H ; `string'
CONST	ENDS
;	COMDAT ??_C@_02OGAFBLMB@TE?$AA@
CONST	SEGMENT
??_C@_02OGAFBLMB@TE?$AA@ DB 'TE', 00H			; `string'
CONST	ENDS
;	COMDAT ??_C@_02HIIGDGEP@TK?$AA@
CONST	SEGMENT
??_C@_02HIIGDGEP@TK?$AA@ DB 'TK', 00H			; `string'
CONST	ENDS
;	COMDAT ??_C@_08NGKGAKGM@P?$HM?1XQ?5?$CFs?$AA@
CONST	SEGMENT
??_C@_08NGKGAKGM@P?$HM?1XQ?5?$CFs?$AA@ DB 'P|/XQ %s', 00H ; `string'
CONST	ENDS
;	COMDAT ??_C@_08IPPAKAEL@P?$HM?1WD?5?$CFs?$AA@
CONST	SEGMENT
??_C@_08IPPAKAEL@P?$HM?1WD?5?$CFs?$AA@ DB 'P|/WD %s', 00H ; `string'
CONST	ENDS
;	COMDAT ??_C@_08KCFIPDCG@T?$HM?$CFs?$KD?$LK?$CFs?$AA@
CONST	SEGMENT
??_C@_08KCFIPDCG@T?$HM?$CFs?$KD?$LK?$CFs?$AA@ DB 'T|%s', 0a3H, 0baH, '%s', 00H ; `string'
CONST	ENDS
;	COMDAT ??_C@_0N@INHGBDFL@P?$HM?1OCC?$CFs?$KD?$LK?$CFs?$AA@
CONST	SEGMENT
??_C@_0N@INHGBDFL@P?$HM?1OCC?$CFs?$KD?$LK?$CFs?$AA@ DB 'P|/OCC%s', 0a3H, 0baH
	DB	'%s', 00H					; `string'
CONST	ENDS
;	COMDAT ??_C@_07JGJAFNNL@P?$HM?1FM?$CFs?$AA@
CONST	SEGMENT
??_C@_07JGJAFNNL@P?$HM?1FM?$CFs?$AA@ DB 'P|/FM%s', 00H	; `string'
CONST	ENDS
;	COMDAT ??_C@_0L@BFDNBDBG@P?$HM?1tell?5?$CFs?$AA@
CONST	SEGMENT
??_C@_0L@BFDNBDBG@P?$HM?1tell?5?$CFs?$AA@ DB 'P|/tell %s', 00H ; `string'
CONST	ENDS
;	COMDAT ??_C@_03IKGEINEE@?$CFs?5?$AA@
CONST	SEGMENT
??_C@_03IKGEINEE@?$CFs?5?$AA@ DB '%s ', 00H		; `string'
CONST	ENDS
;	COMDAT ??_C@_01CLKCMJKC@?5?$AA@
CONST	SEGMENT
??_C@_01CLKCMJKC@?5?$AA@ DB ' ', 00H			; `string'
CONST	ENDS
;	COMDAT ??_C@_0BE@BFJFDKGC@?r?$KG?V?$LF?$NO?E?i?D?L?$KL?c?R?$NM?t?o?a?$DP?$KD?$KB?$AA@
CONST	SEGMENT
??_C@_0BE@BFJFDKGC@?r?$KG?V?$LF?$NO?E?i?D?L?$KL?c?R?$NM?t?o?a?$DP?$KD?$KB?$AA@ DB 0f2H
	DB	0a6H, 0d6H, 0b5H, 0deH, 0c5H, 0e9H, 0c4H, 0ccH, 0abH, 0e3H, 0d2H
	DB	0dcH, 0f4H, 0efH, 0e1H, '?', 0a3H, 0a1H, 00H	; `string'
CONST	ENDS
;	COMDAT ??_C@_04BKLDHGDD@P?$HM?$CFs?$AA@
CONST	SEGMENT
??_C@_04BKLDHGDD@P?$HM?$CFs?$AA@ DB 'P|%s', 00H		; `string'
CONST	ENDS
;	COMDAT ??_C@_08PFECBJKL@?$CFd?5Stone?$AA@
CONST	SEGMENT
??_C@_08PFECBJKL@?$CFd?5Stone?$AA@ DB '%d Stone', 00H	; `string'
CONST	ENDS
;	COMDAT ??_C@_0N@HKHEIDPM@?$DP?$DP?$DP?5memo?5?$DP?$DP?$DP?$AA@
CONST	SEGMENT
??_C@_0N@HKHEIDPM@?$DP?$DP?$DP?5memo?5?$DP?$DP?$DP?$AA@ DB '??? memo ???', 00H ; `string'
CONST	ENDS
;	COMDAT ??_C@_0N@GGCIJCKF@?$DP?$DP?$DP?5name?5?$DP?$DP?$DP?$AA@
CONST	SEGMENT
??_C@_0N@GGCIJCKF@?$DP?$DP?$DP?5name?5?$DP?$DP?$DP?$AA@ DB '??? name ???', 00H ; `string'
CONST	ENDS
;	COMDAT ??_C@_03BBKEAIF@?$DP?$DP?$DP?$AA@
CONST	SEGMENT
??_C@_03BBKEAIF@?$DP?$DP?$DP?$AA@ DB '???', 00H		; `string'
CONST	ENDS
;	COMDAT ??_C@_0M@OMPDAMON@data?$FL1?$FN?3?$CFs?6?$AA@
CONST	SEGMENT
??_C@_0M@OMPDAMON@data?$FL1?$FN?3?$CFs?6?$AA@ DB 'data[1]:%s', 0aH, 00H ; `string'
CONST	ENDS
;	COMDAT ??_C@_01NBENCBCI@?$CK?$AA@
CONST	SEGMENT
??_C@_01NBENCBCI@?$CK?$AA@ DB '*', 00H			; `string'
CONST	ENDS
;	COMDAT ??_C@_0BA@KHEOLEJA@?T?t?u?s?$DP?W?b?$DP?$DP?l?$KL?S?p?$KB?$KD?$AA@
CONST	SEGMENT
??_C@_0BA@KHEOLEJA@?T?t?u?s?$DP?W?b?$DP?$DP?l?$KL?S?p?$KB?$KD?$AA@ DB 0d4H
	DB	0f4H, 0f5H, 0f3H, '?', 0d7H, 0e2H, '??', 0ecH, 0abH, 0d3H, 0f0H
	DB	0a1H, 0a3H, 00H				; `string'
CONST	ENDS
;	COMDAT ??_C@_0BA@JFEMHLAM@?T?t?l?$PN?$DP?W?b?$DP?$DP?l?$KL?S?p?$KB?$KD?$AA@
CONST	SEGMENT
??_C@_0BA@JFEMHLAM@?T?t?l?$PN?$DP?W?b?$DP?$DP?l?$KL?S?p?$KB?$KD?$AA@ DB 0d4H
	DB	0f4H, 0ecH, 0fdH, '?', 0d7H, 0e2H, '??', 0ecH, 0abH, 0d3H, 0f0H
	DB	0a1H, 0a3H, 00H				; `string'
CONST	ENDS
;	COMDAT ??_C@_00CNPNBAHC@?$AA@
CONST	SEGMENT
??_C@_00CNPNBAHC@?$AA@ DB 00H				; `string'
CONST	ENDS
;	COMDAT ??_C@_03NOBDJFIO@301?$AA@
CONST	SEGMENT
??_C@_03NOBDJFIO@301?$AA@ DB '301', 00H			; `string'
CONST	ENDS
;	COMDAT ??_C@_0O@ENFKOFGC@CHANGE_GALAXY?$AA@
CONST	SEGMENT
??_C@_0O@ENFKOFGC@CHANGE_GALAXY?$AA@ DB 'CHANGE_GALAXY', 00H ; `string'
CONST	ENDS
;	COMDAT ??_C@_0N@OGLBPKPL@OUTOFSERVICE?$AA@
CONST	SEGMENT
??_C@_0N@OGLBPKPL@OUTOFSERVICE?$AA@ DB 'OUTOFSERVICE', 00H ; `string'
CONST	ENDS
;	COMDAT ??_C@_0L@LHCHIOPJ@successful?$AA@
CONST	SEGMENT
??_C@_0L@LHCHIOPJ@successful?$AA@ DB 'successful', 00H	; `string'
CONST	ENDS
;	COMDAT ??_C@_06ODACHPEO@failed?$AA@
CONST	SEGMENT
??_C@_06ODACHPEO@failed?$AA@ DB 'failed', 00H		; `string'
CONST	ENDS
;	COMDAT ??_C@_0BC@OCCGLCLB@?$DP?v?$KC?l?Q?Z?$KK?x?z?$DP?$DP?l?$KL?S?p?$KB?$KD?$AA@
CONST	SEGMENT
??_C@_0BC@OCCGLCLB@?$DP?v?$KC?l?Q?Z?$KK?x?z?$DP?$DP?l?$KL?S?p?$KB?$KD?$AA@ DB '?'
	DB	0f6H, 0a2H, 0ecH, 0d1H, 0daH, 0aaH, 0f8H, 0faH, '??', 0ecH, 0abH
	DB	0d3H, 0f0H, 0a1H, 0a3H, 00H			; `string'
CONST	ENDS
;	COMDAT ??_C@_02DKCKIIND@?$CFs?$AA@
CONST	SEGMENT
??_C@_02DKCKIIND@?$CFs?$AA@ DB '%s', 00H		; `string'
CONST	ENDS
;	COMDAT ??_C@_06ENLDJGGB@cancle?$AA@
CONST	SEGMENT
??_C@_06ENLDJGGB@cancle?$AA@ DB 'cancle', 00H		; `string'
CONST	ENDS
;	COMDAT ??_C@_02MFDMBIJM@ok?$AA@
CONST	SEGMENT
??_C@_02MFDMBIJM@ok?$AA@ DB 'ok', 00H			; `string'
CONST	ENDS
;	COMDAT ??_C@_08DDDJOECK@19761101?$AA@
CONST	SEGMENT
??_C@_08DDDJOECK@19761101?$AA@ DB '19761101', 00H	; `string'
CONST	ENDS
;	COMDAT ??_C@_09BACHGGGK@f?$DLencor1c?$AA@
CONST	SEGMENT
??_C@_09BACHGGGK@f?$DLencor1c?$AA@ DB 'f;encor1c', 00H	; `string'
CONST	ENDS
;	COMDAT ??_C@_05DAOAAINN@login?$AA@
CONST	SEGMENT
??_C@_05DAOAAINN@login?$AA@ DB 'login', 00H		; `string'
CONST	ENDS
;	COMDAT ??_C@_0BA@NDJIOBBC@?$OA?$LE?P?o?$DP?S?$NL?w?z?$NM?b?$NM?t?T?R?$AA@
CONST	SEGMENT
??_C@_0BA@NDJIOBBC@?$OA?$LE?P?o?$DP?S?$NL?w?z?$NM?b?$NM?t?T?R?$AA@ DB 0e0H
	DB	0b4H, 0d0H, 0efH, '?', 0d3H, 0dbH, 0f7H, 0faH, 0dcH, 0e2H, 0dcH
	DB	0f4H, 0d4H, 0d2H, 00H			; `string'
CONST	ENDS
;	COMDAT ??_C@_0BB@KFDLBKA@?$NO?C?$NM?W?P?o?Y?$KD?$DP?$NM?t?o?a?$DP?$KB?$KD?$AA@
CONST	SEGMENT
??_C@_0BB@KFDLBKA@?$NO?C?$NM?W?P?o?Y?$KD?$DP?$NM?t?o?a?$DP?$KB?$KD?$AA@ DB 0deH
	DB	0c3H, 0dcH, 0d7H, 0d0H, 0efH, 0d9H, 0a3H, '?', 0dcH, 0f4H, 0efH
	DB	0e1H, '?', 0a1H, 0a3H, 00H			; `string'
CONST	ENDS
;	COMDAT ??_C@_0N@LCBBLLOI@www?493sa?4com?$AA@
CONST	SEGMENT
??_C@_0N@LCBBLLOI@www?493sa?4com?$AA@ DB 'www.93sa.com', 00H ; `string'
CONST	ENDS
;	COMDAT ??_C@_0BC@PMNBOGBM@?$NO?C?$NM?W?P?o?$DP?o?H?$DP?$DP?l?$KL?S?p?$KB?$KD?$AA@
CONST	SEGMENT
??_C@_0BC@PMNBOGBM@?$NO?C?$NM?W?P?o?$DP?o?H?$DP?$DP?l?$KL?S?p?$KB?$KD?$AA@ DB 0deH
	DB	0c3H, 0dcH, 0d7H, 0d0H, 0efH, '?', 0efH, 0c8H, '??', 0ecH, 0abH
	DB	0d3H, 0f0H, 0a1H, 0a3H, 00H			; `string'
CONST	ENDS
;	COMDAT ??_C@_02ODPEBLOD@CS?$AA@
CONST	SEGMENT
??_C@_02ODPEBLOD@CS?$AA@ DB 'CS', 00H			; `string'
CONST	ENDS
;	COMDAT ??_C@_0CG@KEAEOGKH@?$LN?$LK?E?f?$LP?$KB?$MA?L?A?v?5?G?O?$LE?C?$MA?$LK?5?G?v?$MA?g?5?A?$KB?$LA?K?5?A?$NP?$MA?T@
CONST	SEGMENT
??_C@_0CG@KEAEOGKH@?$LN?$LK?E?f?$LP?$KB?$MA?L?A?v?5?G?O?$LE?C?$MA?$LK?5?G?v?$MA?g?5?A?$KB?$LA?K?5?A?$NP?$MA?T@ DB 0bdH
	DB	0baH, 0c5H, 0e6H, 0bfH, 0a1H, 0c0H, 0ccH, 0c1H, 0f6H, ' ', 0c7H
	DB	0cfH, 0b4H, 0c3H, 0c0H, 0baH, ' ', 0c7H, 0f6H, 0c0H, 0e7H, ' ', 0c1H
	DB	0a1H, 0b0H, 0cbH, ' ', 0c1H, 0dfH, 0c0H, 0d4H, 0b4H, 0cfH, 0b4H
	DB	0d9H, '.', 00H				; `string'
CONST	ENDS
;	COMDAT ??_C@_0O@KDOBPHMN@?$DP?V?X?$DP?Z?$LB?q?W?$DP?$PL?$LP?$KB?$KD?$AA@
CONST	SEGMENT
??_C@_0O@KDOBPHMN@?$DP?V?X?$DP?Z?$LB?q?W?$DP?$PL?$LP?$KB?$KD?$AA@ DB '?', 0d6H
	DB	0d8H, '?', 0daH, 0b1H, 0f1H, 0d7H, '?', 0fbH, 0bfH, 0a1H, 0a3H
	DB	00H						; `string'
CONST	ENDS
;	COMDAT ??_C@_0BI@CKHMFIAG@?Y?i?$NL?v?$DP?c?$LH?$DP?z?$LM?$NO?C?$NM?W?P?o?n?$NM?$DP?o?H?$KB?$KD?$AA@
CONST	SEGMENT
??_C@_0BI@CKHMFIAG@?Y?i?$NL?v?$DP?c?$LH?$DP?z?$LM?$NO?C?$NM?W?P?o?n?$NM?$DP?o?H?$KB?$KD?$AA@ DB 0d9H
	DB	0e9H, 0dbH, 0f6H, '?', 0e3H, 0b7H, '?', 0faH, 0bcH, 0deH, 0c3H
	DB	0dcH, 0d7H, 0d0H, 0efH, 0eeH, 0dcH, '?', 0efH, 0c8H, 0a1H, 0a3H
	DB	00H						; `string'
CONST	ENDS
;	COMDAT ??_C@_0BO@BHPEJLIB@?Y?i?$NL?v?$DP?T?p?$NO?C?$NM?W?P?o?n?$NM?$KD?I?$KD?P?j?H?v?G?$KB?$KD?$CI?$CFs?$CJ?$AA@
CONST	SEGMENT
??_C@_0BO@BHPEJLIB@?Y?i?$NL?v?$DP?T?p?$NO?C?$NM?W?P?o?n?$NM?$KD?I?$KD?P?j?H?v?G?$KB?$KD?$CI?$CFs?$CJ?$AA@ DB 0d9H
	DB	0e9H, 0dbH, 0f6H, '?', 0d4H, 0f0H, 0deH, 0c3H, 0dcH, 0d7H, 0d0H
	DB	0efH, 0eeH, 0dcH, 0a3H, 0c9H, 0a3H, 0d0H, 0eaH, 0c8H, 0f6H, 0c7H
	DB	0a1H, 0a3H, '(%s)', 00H			; `string'
CONST	ENDS
;	COMDAT ??_C@_03GMCCICCK@WGS?$AA@
CONST	SEGMENT
??_C@_03GMCCICCK@WGS?$AA@ DB 'WGS', 00H			; `string'
CONST	ENDS
;	COMDAT ??_C@_0BF@JAKPHLLB@?Y?i?$NL?v?$DP?z?$LMsocket?n?$NMTCP?$KB?$KD?$AA@
CONST	SEGMENT
??_C@_0BF@JAKPHLLB@?Y?i?$NL?v?$DP?z?$LMsocket?n?$NMTCP?$KB?$KD?$AA@ DB 0d9H
	DB	0e9H, 0dbH, 0f6H, '?', 0faH, 0bcH, 'socket', 0eeH, 0dcH, 'TCP', 0a1H
	DB	0a3H, 00H					; `string'
CONST	ENDS
;	COMDAT ??_C@_0L@INAHAGEI@?b?$KF?S?p?$KD?$LK?7?$CFs?6?$AA@
CONST	SEGMENT
??_C@_0L@INAHAGEI@?b?$KF?S?p?$KD?$LK?7?$CFs?6?$AA@ DB 0e2H, 0a5H, 0d3H, 0f0H
	DB	0a3H, 0baH, 09H, '%s', 0aH, 00H		; `string'
CONST	ENDS
;	COMDAT ??_C@_02DPNLHKJD@a?$CL?$AA@
CONST	SEGMENT
??_C@_02DPNLHKJD@a?$CL?$AA@ DB 'a+', 00H		; `string'
CONST	ENDS
;	COMDAT ??_C@_0N@OFOPBFLC@recvdata?4txt?$AA@
CONST	SEGMENT
??_C@_0N@OFOPBFLC@recvdata?4txt?$AA@ DB 'recvdata.txt', 00H ; `string'
CONST	ENDS
; Function compile flags: /Odtp /RTCsu /ZI
; File c:\users\administrator\desktop\????? ??\????? ??\client source code\system\netproc.cpp
;	COMDAT ?checksum@@YAGPAGH@Z
_TEXT	SEGMENT
_cksum$ = -8						; size = 4
_buffer$ = 8						; size = 4
_size$ = 12						; size = 4
?checksum@@YAGPAGH@Z PROC				; checksum, COMDAT

; 4310 : {

  00000	55		 push	 ebp
  00001	8b ec		 mov	 ebp, esp
  00003	81 ec cc 00 00
	00		 sub	 esp, 204		; 000000ccH
  00009	53		 push	 ebx
  0000a	56		 push	 esi
  0000b	57		 push	 edi
  0000c	8d bd 34 ff ff
	ff		 lea	 edi, DWORD PTR [ebp-204]
  00012	b9 33 00 00 00	 mov	 ecx, 51			; 00000033H
  00017	b8 cc cc cc cc	 mov	 eax, -858993460		; ccccccccH
  0001c	f3 ab		 rep stosd

; 4311 : 	unsigned long cksum=0;

  0001e	c7 45 f8 00 00
	00 00		 mov	 DWORD PTR _cksum$[ebp], 0
$LN2@checksum:

; 4312 : 	while( size > 1){

  00025	83 7d 0c 01	 cmp	 DWORD PTR _size$[ebp], 1
  00029	7e 20		 jle	 SHORT $LN3@checksum

; 4313 : 		cksum += *buffer++;

  0002b	8b 45 08	 mov	 eax, DWORD PTR _buffer$[ebp]
  0002e	0f b7 08	 movzx	 ecx, WORD PTR [eax]
  00031	03 4d f8	 add	 ecx, DWORD PTR _cksum$[ebp]
  00034	89 4d f8	 mov	 DWORD PTR _cksum$[ebp], ecx
  00037	8b 55 08	 mov	 edx, DWORD PTR _buffer$[ebp]
  0003a	83 c2 02	 add	 edx, 2
  0003d	89 55 08	 mov	 DWORD PTR _buffer$[ebp], edx

; 4314 : 		size -=sizeof(USHORT);

  00040	8b 45 0c	 mov	 eax, DWORD PTR _size$[ebp]
  00043	83 e8 02	 sub	 eax, 2
  00046	89 45 0c	 mov	 DWORD PTR _size$[ebp], eax

; 4315 : 	}

  00049	eb da		 jmp	 SHORT $LN2@checksum
$LN3@checksum:

; 4316 : 	if ( size)

  0004b	83 7d 0c 00	 cmp	 DWORD PTR _size$[ebp], 0
  0004f	74 0c		 je	 SHORT $LN4@checksum

; 4317 : 		cksum += *(UCHAR*)buffer;

  00051	8b 45 08	 mov	 eax, DWORD PTR _buffer$[ebp]
  00054	0f b6 08	 movzx	 ecx, BYTE PTR [eax]
  00057	03 4d f8	 add	 ecx, DWORD PTR _cksum$[ebp]
  0005a	89 4d f8	 mov	 DWORD PTR _cksum$[ebp], ecx
$LN4@checksum:

; 4318 : 	cksum = (cksum >> 16) + (cksum & 0xffff);

  0005d	8b 45 f8	 mov	 eax, DWORD PTR _cksum$[ebp]
  00060	c1 e8 10	 shr	 eax, 16			; 00000010H
  00063	8b 4d f8	 mov	 ecx, DWORD PTR _cksum$[ebp]
  00066	81 e1 ff ff 00
	00		 and	 ecx, 65535		; 0000ffffH
  0006c	03 c1		 add	 eax, ecx
  0006e	89 45 f8	 mov	 DWORD PTR _cksum$[ebp], eax

; 4319 : 	cksum += (cksum >>16);

  00071	8b 45 f8	 mov	 eax, DWORD PTR _cksum$[ebp]
  00074	c1 e8 10	 shr	 eax, 16			; 00000010H
  00077	03 45 f8	 add	 eax, DWORD PTR _cksum$[ebp]
  0007a	89 45 f8	 mov	 DWORD PTR _cksum$[ebp], eax

; 4320 : 	return (USHORT)(~cksum);

  0007d	8b 45 f8	 mov	 eax, DWORD PTR _cksum$[ebp]
  00080	f7 d0		 not	 eax

; 4321 : }

  00082	5f		 pop	 edi
  00083	5e		 pop	 esi
  00084	5b		 pop	 ebx
  00085	8b e5		 mov	 esp, ebp
  00087	5d		 pop	 ebp
  00088	c3		 ret	 0
?checksum@@YAGPAGH@Z ENDP				; checksum
_TEXT	ENDS
; Function compile flags: /Odtp /RTCsu /ZI
; File c:\users\administrator\desktop\????? ??\????? ??\client source code\system\netproc.cpp
;	COMDAT ?lssproto_ACI_recv@@YAXHPAD@Z
_TEXT	SEGMENT
_fd$ = 8						; size = 4
_data$ = 12						; size = 4
?lssproto_ACI_recv@@YAXHPAD@Z PROC			; lssproto_ACI_recv, COMDAT

; 4174 : {

  00000	55		 push	 ebp
  00001	8b ec		 mov	 ebp, esp
  00003	81 ec c0 00 00
	00		 sub	 esp, 192		; 000000c0H
  00009	53		 push	 ebx
  0000a	56		 push	 esi
  0000b	57		 push	 edi
  0000c	8d bd 40 ff ff
	ff		 lea	 edi, DWORD PTR [ebp-192]
  00012	b9 30 00 00 00	 mov	 ecx, 48			; 00000030H
  00017	b8 cc cc cc cc	 mov	 eax, -858993460		; ccccccccH
  0001c	f3 ab		 rep stosd

; 4175 : 
; 4176 : }

  0001e	5f		 pop	 edi
  0001f	5e		 pop	 esi
  00020	5b		 pop	 ebx
  00021	8b e5		 mov	 esp, ebp
  00023	5d		 pop	 ebp
  00024	c3		 ret	 0
?lssproto_ACI_recv@@YAXHPAD@Z ENDP			; lssproto_ACI_recv
_TEXT	ENDS
; Function compile flags: /Odtp /RTCsu /ZI
; File c:\users\administrator\desktop\????? ??\????? ??\client source code\system\netproc.cpp
;	COMDAT ?lssproto_IS_recv@@YAXHPAD@Z
_TEXT	SEGMENT
_fd$ = 8						; size = 4
_cdata$ = 12						; size = 4
?lssproto_IS_recv@@YAXHPAD@Z PROC			; lssproto_IS_recv, COMDAT

; 3775 : {

  00000	55		 push	 ebp
  00001	8b ec		 mov	 ebp, esp
  00003	81 ec c0 00 00
	00		 sub	 esp, 192		; 000000c0H
  00009	53		 push	 ebx
  0000a	56		 push	 esi
  0000b	57		 push	 edi
  0000c	8d bd 40 ff ff
	ff		 lea	 edi, DWORD PTR [ebp-192]
  00012	b9 30 00 00 00	 mov	 ecx, 48			; 00000030H
  00017	b8 cc cc cc cc	 mov	 eax, -858993460		; ccccccccH
  0001c	f3 ab		 rep stosd

; 3776 : }

  0001e	5f		 pop	 edi
  0001f	5e		 pop	 esi
  00020	5b		 pop	 ebx
  00021	8b e5		 mov	 esp, ebp
  00023	5d		 pop	 ebp
  00024	c3		 ret	 0
?lssproto_IS_recv@@YAXHPAD@Z ENDP			; lssproto_IS_recv
_TEXT	ENDS
; Function compile flags: /Odtp /RTCsu /ZI
; File c:\users\administrator\desktop\????? ??\????? ??\client source code\system\netproc.cpp
;	COMDAT ?lssproto_W_recv@@YAXHHHH@Z
_TEXT	SEGMENT
_fd$ = 8						; size = 4
_id$ = 12						; size = 4
_x$ = 16						; size = 4
_y$ = 20						; size = 4
?lssproto_W_recv@@YAXHHHH@Z PROC			; lssproto_W_recv, COMDAT

; 2578 : {

  00000	55		 push	 ebp
  00001	8b ec		 mov	 ebp, esp
  00003	81 ec c0 00 00
	00		 sub	 esp, 192		; 000000c0H
  00009	53		 push	 ebx
  0000a	56		 push	 esi
  0000b	57		 push	 edi
  0000c	8d bd 40 ff ff
	ff		 lea	 edi, DWORD PTR [ebp-192]
  00012	b9 30 00 00 00	 mov	 ecx, 48			; 00000030H
  00017	b8 cc cc cc cc	 mov	 eax, -858993460		; ccccccccH
  0001c	f3 ab		 rep stosd

; 2579 : 	// ??????Re???????????
; 2580 : 	// ??????????????????????
; 2581 : }

  0001e	5f		 pop	 edi
  0001f	5e		 pop	 esi
  00020	5b		 pop	 ebx
  00021	8b e5		 mov	 esp, ebp
  00023	5d		 pop	 ebp
  00024	c3		 ret	 0
?lssproto_W_recv@@YAXHHHH@Z ENDP			; lssproto_W_recv
_TEXT	ENDS
; Function compile flags: /Odtp /RTCsu /ZI
; File c:\users\administrator\desktop\????? ??\????? ??\client source code\system\netproc.cpp
;	COMDAT ?PingFunc@@YGKPAX@Z
_TEXT	SEGMENT
_iphdrlen$1 = -2196					; size = 2
_iphdr$2 = -2184					; size = 4
_seq_no$ = -2172					; size = 2
_recvbuf$ = -2160					; size = 1024
_icmp_data$ = -1128					; size = 1024
_icmp_hdr$ = -96					; size = 4
_timeout$ = -84						; size = 4
_fromlen$ = -72						; size = 4
_datasize$ = -60					; size = 4
_dest$ = -48						; size = 16
_from$ = -24						; size = 16
__$ArrayPad$ = -4					; size = 4
_param$ = 8						; size = 4
?PingFunc@@YGKPAX@Z PROC				; PingFunc, COMDAT

; 4326 : {

  00000	55		 push	 ebp
  00001	8b ec		 mov	 ebp, esp
  00003	81 ec 58 0c 00
	00		 sub	 esp, 3160		; 00000c58H
  00009	53		 push	 ebx
  0000a	56		 push	 esi
  0000b	57		 push	 edi
  0000c	8d bd a8 f3 ff
	ff		 lea	 edi, DWORD PTR [ebp-3160]
  00012	b9 16 03 00 00	 mov	 ecx, 790		; 00000316H
  00017	b8 cc cc cc cc	 mov	 eax, -858993460		; ccccccccH
  0001c	f3 ab		 rep stosd
  0001e	a1 00 00 00 00	 mov	 eax, DWORD PTR ___security_cookie
  00023	33 c5		 xor	 eax, ebp
  00025	89 45 fc	 mov	 DWORD PTR __$ArrayPad$[ebp], eax

; 4327 : 	struct sockaddr_in from;
; 4328 : 	struct sockaddr_in dest;
; 4329 : 	int datasize;
; 4330 : 	int fromlen = sizeof(from);

  00028	c7 45 b8 10 00
	00 00		 mov	 DWORD PTR _fromlen$[ebp], 16 ; 00000010H

; 4331 : 	int timeout = 1000;

  0002f	c7 45 ac e8 03
	00 00		 mov	 DWORD PTR _timeout$[ebp], 1000 ; 000003e8H

; 4332 : 	IcmpHeader *icmp_hdr;
; 4333 : 
; 4334 : 	char icmp_data[MAX_PACKET];
; 4335 : 	char recvbuf[MAX_PACKET];
; 4336 : 	USHORT seq_no = 0;

  00036	33 c0		 xor	 eax, eax
  00038	66 89 85 84 f7
	ff ff		 mov	 WORD PTR _seq_no$[ebp], ax

; 4337 : 
; 4338 : 	ZeroMemory( &dest, sizeof(dest));

  0003f	6a 10		 push	 16			; 00000010H
  00041	6a 00		 push	 0
  00043	8d 45 d0	 lea	 eax, DWORD PTR _dest$[ebp]
  00046	50		 push	 eax
  00047	e8 00 00 00 00	 call	 _memset
  0004c	83 c4 0c	 add	 esp, 12			; 0000000cH

; 4339 : 	memcpy( &(dest.sin_addr), (void*)param, 4);

  0004f	6a 04		 push	 4
  00051	8b 45 08	 mov	 eax, DWORD PTR _param$[ebp]
  00054	50		 push	 eax
  00055	8d 4d d4	 lea	 ecx, DWORD PTR _dest$[ebp+4]
  00058	51		 push	 ecx
  00059	e8 00 00 00 00	 call	 _memcpy
  0005e	83 c4 0c	 add	 esp, 12			; 0000000cH

; 4340 : 	dest.sin_family = AF_INET;

  00061	b8 02 00 00 00	 mov	 eax, 2
  00066	66 89 45 d0	 mov	 WORD PTR _dest$[ebp], ax

; 4341 : 	if ( sockRaw != INVALID_SOCKET){

  0006a	83 3d 00 00 00
	00 ff		 cmp	 DWORD PTR ?sockRaw@@3IA, -1 ; sockRaw
  00071	74 15		 je	 SHORT $LN6@PingFunc

; 4342 : 		closesocket( sockRaw);

  00073	a1 00 00 00 00	 mov	 eax, DWORD PTR ?sockRaw@@3IA ; sockRaw
  00078	50		 push	 eax
  00079	e8 00 00 00 00	 call	 _closesocket@4

; 4343 : 		sockRaw = INVALID_SOCKET;

  0007e	c7 05 00 00 00
	00 ff ff ff ff	 mov	 DWORD PTR ?sockRaw@@3IA, -1 ; sockRaw
$LN6@PingFunc:

; 4344 : 	}
; 4345 : 	sockRaw = socket( AF_INET, SOCK_RAW, IPPROTO_ICMP);

  00088	6a 01		 push	 1
  0008a	6a 03		 push	 3
  0008c	6a 02		 push	 2
  0008e	e8 00 00 00 00	 call	 _socket@12
  00093	a3 00 00 00 00	 mov	 DWORD PTR ?sockRaw@@3IA, eax ; sockRaw

; 4346 : 	if ( sockRaw != INVALID_SOCKET){

  00098	83 3d 00 00 00
	00 ff		 cmp	 DWORD PTR ?sockRaw@@3IA, -1 ; sockRaw
  0009f	0f 84 ea 02 00
	00		 je	 $LN7@PingFunc

; 4347 : 		iRead = setsockopt( sockRaw, SOL_SOCKET, SO_RCVTIMEO, (char*)&timeout, sizeof(timeout));

  000a5	6a 04		 push	 4
  000a7	8d 45 ac	 lea	 eax, DWORD PTR _timeout$[ebp]
  000aa	50		 push	 eax
  000ab	68 06 10 00 00	 push	 4102			; 00001006H
  000b0	68 ff ff 00 00	 push	 65535			; 0000ffffH
  000b5	8b 0d 00 00 00
	00		 mov	 ecx, DWORD PTR ?sockRaw@@3IA ; sockRaw
  000bb	51		 push	 ecx
  000bc	e8 00 00 00 00	 call	 _setsockopt@20
  000c1	a3 00 00 00 00	 mov	 DWORD PTR ?iRead@@3HA, eax ; iRead

; 4348 : 		if ( iRead != SOCKET_ERROR){

  000c6	83 3d 00 00 00
	00 ff		 cmp	 DWORD PTR ?iRead@@3HA, -1 ; iRead
  000cd	0f 84 bc 02 00
	00		 je	 $LN7@PingFunc

; 4349 : 			timeout = 1000;

  000d3	c7 45 ac e8 03
	00 00		 mov	 DWORD PTR _timeout$[ebp], 1000 ; 000003e8H

; 4350 : 			iRead = setsockopt( sockRaw, SOL_SOCKET, SO_SNDTIMEO, (char*)&timeout, sizeof(timeout));

  000da	6a 04		 push	 4
  000dc	8d 45 ac	 lea	 eax, DWORD PTR _timeout$[ebp]
  000df	50		 push	 eax
  000e0	68 05 10 00 00	 push	 4101			; 00001005H
  000e5	68 ff ff 00 00	 push	 65535			; 0000ffffH
  000ea	8b 0d 00 00 00
	00		 mov	 ecx, DWORD PTR ?sockRaw@@3IA ; sockRaw
  000f0	51		 push	 ecx
  000f1	e8 00 00 00 00	 call	 _setsockopt@20
  000f6	a3 00 00 00 00	 mov	 DWORD PTR ?iRead@@3HA, eax ; iRead

; 4351 : 			if ( iRead != SOCKET_ERROR){

  000fb	83 3d 00 00 00
	00 ff		 cmp	 DWORD PTR ?iRead@@3HA, -1 ; iRead
  00102	0f 84 87 02 00
	00		 je	 $LN7@PingFunc

; 4352 : 				datasize = DEF_PACKET_SIZE + sizeof(IcmpHeader);  

  00108	c7 45 c4 2c 00
	00 00		 mov	 DWORD PTR _datasize$[ebp], 44 ; 0000002cH

; 4353 : 
; 4354 : 				icmp_hdr = (IcmpHeader*)icmp_data;

  0010f	8d 85 98 fb ff
	ff		 lea	 eax, DWORD PTR _icmp_data$[ebp]
  00115	89 45 a0	 mov	 DWORD PTR _icmp_hdr$[ebp], eax

; 4355 : 				icmp_hdr->i_type = ICMP_ECHO;

  00118	8b 45 a0	 mov	 eax, DWORD PTR _icmp_hdr$[ebp]
  0011b	c6 00 08	 mov	 BYTE PTR [eax], 8

; 4356 : 				icmp_hdr->i_code = 0;

  0011e	8b 45 a0	 mov	 eax, DWORD PTR _icmp_hdr$[ebp]
  00121	c6 40 01 00	 mov	 BYTE PTR [eax+1], 0

; 4357 : 				icmp_hdr->i_id = (USHORT)GetCurrentProcessId();

  00125	8b f4		 mov	 esi, esp
  00127	ff 15 00 00 00
	00		 call	 DWORD PTR __imp__GetCurrentProcessId@0
  0012d	3b f4		 cmp	 esi, esp
  0012f	e8 00 00 00 00	 call	 __RTC_CheckEsp
  00134	8b 4d a0	 mov	 ecx, DWORD PTR _icmp_hdr$[ebp]
  00137	66 89 41 04	 mov	 WORD PTR [ecx+4], ax

; 4358 : 				icmp_hdr->i_cksum = 0;

  0013b	33 c0		 xor	 eax, eax
  0013d	8b 4d a0	 mov	 ecx, DWORD PTR _icmp_hdr$[ebp]
  00140	66 89 41 02	 mov	 WORD PTR [ecx+2], ax

; 4359 : 				icmp_hdr->i_seq = 0;

  00144	33 c0		 xor	 eax, eax
  00146	8b 4d a0	 mov	 ecx, DWORD PTR _icmp_hdr$[ebp]
  00149	66 89 41 06	 mov	 WORD PTR [ecx+6], ax

; 4360 : 				memset( icmp_data+sizeof(IcmpHeader), 'E', datasize - sizeof(IcmpHeader));

  0014d	8b 45 c4	 mov	 eax, DWORD PTR _datasize$[ebp]
  00150	83 e8 0c	 sub	 eax, 12			; 0000000cH
  00153	50		 push	 eax
  00154	6a 45		 push	 69			; 00000045H
  00156	8d 8d a4 fb ff
	ff		 lea	 ecx, DWORD PTR _icmp_data$[ebp+12]
  0015c	51		 push	 ecx
  0015d	e8 00 00 00 00	 call	 _memset
  00162	83 c4 0c	 add	 esp, 12			; 0000000cH
$LN2@PingFunc:

; 4361 : 				while( 1){

  00165	b8 01 00 00 00	 mov	 eax, 1
  0016a	85 c0		 test	 eax, eax
  0016c	0f 84 1d 02 00
	00		 je	 $LN7@PingFunc

; 4362 : 			//		dwPingState = 0;
; 4363 : 					((IcmpHeader*)icmp_data)->i_cksum = 0;

  00172	33 c0		 xor	 eax, eax
  00174	66 89 85 9a fb
	ff ff		 mov	 WORD PTR _icmp_data$[ebp+2], ax

; 4364 : 					((IcmpHeader*)icmp_data)->timestamp = GetTickCount();

  0017b	8b f4		 mov	 esi, esp
  0017d	ff 15 00 00 00
	00		 call	 DWORD PTR __imp__GetTickCount@0
  00183	3b f4		 cmp	 esi, esp
  00185	e8 00 00 00 00	 call	 __RTC_CheckEsp
  0018a	89 85 a0 fb ff
	ff		 mov	 DWORD PTR _icmp_data$[ebp+8], eax

; 4365 : 					
; 4366 : 					((IcmpHeader*)icmp_data)->i_seq = seq_no;

  00190	66 8b 85 84 f7
	ff ff		 mov	 ax, WORD PTR _seq_no$[ebp]
  00197	66 89 85 9e fb
	ff ff		 mov	 WORD PTR _icmp_data$[ebp+6], ax

; 4367 : 					((IcmpHeader*)icmp_data)->i_cksum = checksum( (USHORT*)icmp_data, datasize);

  0019e	8b 45 c4	 mov	 eax, DWORD PTR _datasize$[ebp]
  001a1	50		 push	 eax
  001a2	8d 8d 98 fb ff
	ff		 lea	 ecx, DWORD PTR _icmp_data$[ebp]
  001a8	51		 push	 ecx
  001a9	e8 00 00 00 00	 call	 ?checksum@@YAGPAGH@Z	; checksum
  001ae	83 c4 08	 add	 esp, 8
  001b1	66 89 85 9a fb
	ff ff		 mov	 WORD PTR _icmp_data$[ebp+2], ax

; 4368 : 					
; 4369 : 					iWrote = sendto( sockRaw, icmp_data, datasize, 0, (struct sockaddr*)&dest, sizeof(struct sockaddr));

  001b8	6a 10		 push	 16			; 00000010H
  001ba	8d 45 d0	 lea	 eax, DWORD PTR _dest$[ebp]
  001bd	50		 push	 eax
  001be	6a 00		 push	 0
  001c0	8b 4d c4	 mov	 ecx, DWORD PTR _datasize$[ebp]
  001c3	51		 push	 ecx
  001c4	8d 95 98 fb ff
	ff		 lea	 edx, DWORD PTR _icmp_data$[ebp]
  001ca	52		 push	 edx
  001cb	a1 00 00 00 00	 mov	 eax, DWORD PTR ?sockRaw@@3IA ; sockRaw
  001d0	50		 push	 eax
  001d1	e8 00 00 00 00	 call	 _sendto@24
  001d6	a3 00 00 00 00	 mov	 DWORD PTR ?iWrote@@3HA, eax ; iWrote

; 4370 : 					if ( iWrote == SOCKET_ERROR){

  001db	83 3d 00 00 00
	00 ff		 cmp	 DWORD PTR ?iWrote@@3HA, -1 ; iWrote
  001e2	75 2f		 jne	 SHORT $LN10@PingFunc

; 4371 : 						if ( WSAGetLastError() == WSAETIMEDOUT){

  001e4	e8 00 00 00 00	 call	 _WSAGetLastError@0
  001e9	3d 4c 27 00 00	 cmp	 eax, 10060		; 0000274cH
  001ee	75 0f		 jne	 SHORT $LN11@PingFunc

; 4372 : 							dwPingTime = -1;

  001f0	c7 05 00 00 00
	00 ff ff ff ff	 mov	 DWORD PTR ?dwPingTime@@3KA, -1 ; dwPingTime

; 4373 : 							continue;

  001fa	e9 66 ff ff ff	 jmp	 $LN2@PingFunc
$LN11@PingFunc:

; 4374 : 						}
; 4375 : 						dwPingState = 0x40000000 | WSAGetLastError();

  001ff	e8 00 00 00 00	 call	 _WSAGetLastError@0
  00204	0d 00 00 00 40	 or	 eax, 1073741824		; 40000000H
  00209	a3 00 00 00 00	 mov	 DWORD PTR ?dwPingState@@3KA, eax ; dwPingState

; 4376 : 						continue;

  0020e	e9 52 ff ff ff	 jmp	 $LN2@PingFunc
$LN10@PingFunc:

; 4377 : 					}
; 4378 : 					if ( iWrote < datasize)

  00213	a1 00 00 00 00	 mov	 eax, DWORD PTR ?iWrote@@3HA ; iWrote
  00218	3b 45 c4	 cmp	 eax, DWORD PTR _datasize$[ebp]
  0021b	7d 0a		 jge	 SHORT $LN4@PingFunc

; 4379 : 						dwPingState = 0x04000000;//len error

  0021d	c7 05 00 00 00
	00 00 00 00 04	 mov	 DWORD PTR ?dwPingState@@3KA, 67108864 ; dwPingState, 04000000H
$LN4@PingFunc:

; 4380 : 					while( 1){

  00227	b8 01 00 00 00	 mov	 eax, 1
  0022c	85 c0		 test	 eax, eax
  0022e	0f 84 26 01 00
	00		 je	 $LN5@PingFunc

; 4381 : 						iRead = recvfrom( sockRaw, recvbuf, MAX_PACKET, 0, (struct sockaddr*)&from, &fromlen);

  00234	8d 45 b8	 lea	 eax, DWORD PTR _fromlen$[ebp]
  00237	50		 push	 eax
  00238	8d 4d e8	 lea	 ecx, DWORD PTR _from$[ebp]
  0023b	51		 push	 ecx
  0023c	6a 00		 push	 0
  0023e	68 00 04 00 00	 push	 1024			; 00000400H
  00243	8d 95 90 f7 ff
	ff		 lea	 edx, DWORD PTR _recvbuf$[ebp]
  00249	52		 push	 edx
  0024a	a1 00 00 00 00	 mov	 eax, DWORD PTR ?sockRaw@@3IA ; sockRaw
  0024f	50		 push	 eax
  00250	e8 00 00 00 00	 call	 _recvfrom@24
  00255	a3 00 00 00 00	 mov	 DWORD PTR ?iRead@@3HA, eax ; iRead

; 4382 : 						if ( iRead == SOCKET_ERROR){

  0025a	83 3d 00 00 00
	00 ff		 cmp	 DWORD PTR ?iRead@@3HA, -1 ; iRead
  00261	75 2c		 jne	 SHORT $LN13@PingFunc

; 4383 : 							if ( WSAGetLastError() == WSAETIMEDOUT){

  00263	e8 00 00 00 00	 call	 _WSAGetLastError@0
  00268	3d 4c 27 00 00	 cmp	 eax, 10060		; 0000274cH
  0026d	75 0f		 jne	 SHORT $LN14@PingFunc

; 4384 : 								dwPingTime = -1;

  0026f	c7 05 00 00 00
	00 ff ff ff ff	 mov	 DWORD PTR ?dwPingTime@@3KA, -1 ; dwPingTime

; 4385 : 								break;

  00279	e9 dc 00 00 00	 jmp	 $LN5@PingFunc
$LN14@PingFunc:

; 4386 : 							}
; 4387 : 							dwPingState = 0x40000000 | WSAGetLastError();

  0027e	e8 00 00 00 00	 call	 _WSAGetLastError@0
  00283	0d 00 00 00 40	 or	 eax, 1073741824		; 40000000H
  00288	a3 00 00 00 00	 mov	 DWORD PTR ?dwPingState@@3KA, eax ; dwPingState

; 4388 : 							continue;

  0028d	eb 98		 jmp	 SHORT $LN4@PingFunc
$LN13@PingFunc:

; 4389 : 						}
; 4390 : 						IpHeader *iphdr;
; 4391 : 						unsigned short iphdrlen;
; 4392 : 						iphdr = (IpHeader *)recvbuf;

  0028f	8d 85 90 f7 ff
	ff		 lea	 eax, DWORD PTR _recvbuf$[ebp]
  00295	89 85 78 f7 ff
	ff		 mov	 DWORD PTR _iphdr$2[ebp], eax

; 4393 : 						iphdrlen = iphdr->h_len * 4 ; // number of 32-bit words *4 = bytes

  0029b	8b 85 78 f7 ff
	ff		 mov	 eax, DWORD PTR _iphdr$2[ebp]
  002a1	8b 08		 mov	 ecx, DWORD PTR [eax]
  002a3	83 e1 0f	 and	 ecx, 15			; 0000000fH
  002a6	c1 e1 02	 shl	 ecx, 2
  002a9	66 89 8d 6c f7
	ff ff		 mov	 WORD PTR _iphdrlen$1[ebp], cx

; 4394 : 						if ( iRead < iphdrlen + ICMP_MIN)

  002b0	0f b7 85 6c f7
	ff ff		 movzx	 eax, WORD PTR _iphdrlen$1[ebp]
  002b7	83 c0 08	 add	 eax, 8
  002ba	39 05 00 00 00
	00		 cmp	 DWORD PTR ?iRead@@3HA, eax ; iRead
  002c0	7d 0a		 jge	 SHORT $LN15@PingFunc

; 4395 : 							dwPingState = 0x08000000;//len error

  002c2	c7 05 00 00 00
	00 00 00 00 08	 mov	 DWORD PTR ?dwPingState@@3KA, 134217728 ; dwPingState, 08000000H
$LN15@PingFunc:

; 4396 : 						icmp_hdr = (IcmpHeader*)(recvbuf + iphdrlen);

  002cc	0f b7 85 6c f7
	ff ff		 movzx	 eax, WORD PTR _iphdrlen$1[ebp]
  002d3	8d 8c 05 90 f7
	ff ff		 lea	 ecx, DWORD PTR _recvbuf$[ebp+eax]
  002da	89 4d a0	 mov	 DWORD PTR _icmp_hdr$[ebp], ecx

; 4397 : 						if ( icmp_hdr->i_type != ICMP_ECHOREPLY){

  002dd	8b 45 a0	 mov	 eax, DWORD PTR _icmp_hdr$[ebp]
  002e0	0f b6 08	 movzx	 ecx, BYTE PTR [eax]
  002e3	85 c9		 test	 ecx, ecx
  002e5	74 0f		 je	 SHORT $LN16@PingFunc

; 4398 : 							dwPingState = 0x10000000;//non-echo type recvd

  002e7	c7 05 00 00 00
	00 00 00 00 10	 mov	 DWORD PTR ?dwPingState@@3KA, 268435456 ; dwPingState, 10000000H

; 4399 : 							continue;

  002f1	e9 31 ff ff ff	 jmp	 $LN4@PingFunc
$LN16@PingFunc:

; 4400 : 						}
; 4401 : 						if ( icmp_hdr->i_seq != seq_no)

  002f6	8b 45 a0	 mov	 eax, DWORD PTR _icmp_hdr$[ebp]
  002f9	0f b7 48 06	 movzx	 ecx, WORD PTR [eax+6]
  002fd	0f b7 95 84 f7
	ff ff		 movzx	 edx, WORD PTR _seq_no$[ebp]
  00304	3b ca		 cmp	 ecx, edx
  00306	74 05		 je	 SHORT $LN17@PingFunc

; 4402 : 							continue;

  00308	e9 1a ff ff ff	 jmp	 $LN4@PingFunc
$LN17@PingFunc:

; 4403 : 						if ( icmp_hdr->i_id != (USHORT)GetCurrentProcessId()){

  0030d	8b 45 a0	 mov	 eax, DWORD PTR _icmp_hdr$[ebp]
  00310	0f b7 70 04	 movzx	 esi, WORD PTR [eax+4]
  00314	8b fc		 mov	 edi, esp
  00316	ff 15 00 00 00
	00		 call	 DWORD PTR __imp__GetCurrentProcessId@0
  0031c	3b fc		 cmp	 edi, esp
  0031e	e8 00 00 00 00	 call	 __RTC_CheckEsp
  00323	0f b7 c8	 movzx	 ecx, ax
  00326	3b f1		 cmp	 esi, ecx
  00328	74 0f		 je	 SHORT $LN18@PingFunc

; 4404 : 							dwPingState = 0x20000000;//someone else's packet!

  0032a	c7 05 00 00 00
	00 00 00 00 20	 mov	 DWORD PTR ?dwPingState@@3KA, 536870912 ; dwPingState, 20000000H

; 4405 : 							continue;

  00334	e9 ee fe ff ff	 jmp	 $LN4@PingFunc
$LN18@PingFunc:

; 4406 : 						}
; 4407 : 						dwPingTime = GetTickCount()-icmp_hdr->timestamp;

  00339	8b f4		 mov	 esi, esp
  0033b	ff 15 00 00 00
	00		 call	 DWORD PTR __imp__GetTickCount@0
  00341	3b f4		 cmp	 esi, esp
  00343	e8 00 00 00 00	 call	 __RTC_CheckEsp
  00348	8b 4d a0	 mov	 ecx, DWORD PTR _icmp_hdr$[ebp]
  0034b	2b 41 08	 sub	 eax, DWORD PTR [ecx+8]
  0034e	a3 00 00 00 00	 mov	 DWORD PTR ?dwPingTime@@3KA, eax ; dwPingTime

; 4408 : 						break;

  00353	eb 05		 jmp	 SHORT $LN5@PingFunc

; 4409 : 					}

  00355	e9 cd fe ff ff	 jmp	 $LN4@PingFunc
$LN5@PingFunc:

; 4410 : 					seq_no++;

  0035a	66 8b 85 84 f7
	ff ff		 mov	 ax, WORD PTR _seq_no$[ebp]
  00361	66 83 c0 01	 add	 ax, 1
  00365	66 89 85 84 f7
	ff ff		 mov	 WORD PTR _seq_no$[ebp], ax

; 4411 : 					dwPingState = 0x80000000;

  0036c	c7 05 00 00 00
	00 00 00 00 80	 mov	 DWORD PTR ?dwPingState@@3KA, -2147483648 ; dwPingState, 80000000H

; 4412 : 					Sleep( 3000);

  00376	8b f4		 mov	 esi, esp
  00378	68 b8 0b 00 00	 push	 3000			; 00000bb8H
  0037d	ff 15 00 00 00
	00		 call	 DWORD PTR __imp__Sleep@4
  00383	3b f4		 cmp	 esi, esp
  00385	e8 00 00 00 00	 call	 __RTC_CheckEsp

; 4413 : 				}

  0038a	e9 d6 fd ff ff	 jmp	 $LN2@PingFunc
$LN7@PingFunc:

; 4414 : 			}
; 4415 : 		}
; 4416 : 	}
; 4417 : 	return 0;

  0038f	33 c0		 xor	 eax, eax

; 4418 : }

  00391	52		 push	 edx
  00392	8b cd		 mov	 ecx, ebp
  00394	50		 push	 eax
  00395	8d 15 00 00 00
	00		 lea	 edx, DWORD PTR $LN32@PingFunc
  0039b	e8 00 00 00 00	 call	 @_RTC_CheckStackVars@8
  003a0	58		 pop	 eax
  003a1	5a		 pop	 edx
  003a2	5f		 pop	 edi
  003a3	5e		 pop	 esi
  003a4	5b		 pop	 ebx
  003a5	8b 4d fc	 mov	 ecx, DWORD PTR __$ArrayPad$[ebp]
  003a8	33 cd		 xor	 ecx, ebp
  003aa	e8 00 00 00 00	 call	 @__security_check_cookie@4
  003af	81 c4 58 0c 00
	00		 add	 esp, 3160		; 00000c58H
  003b5	3b ec		 cmp	 ebp, esp
  003b7	e8 00 00 00 00	 call	 __RTC_CheckEsp
  003bc	8b e5		 mov	 esp, ebp
  003be	5d		 pop	 ebp
  003bf	c2 04 00	 ret	 4
  003c2	66 90		 npad	 2
$LN32@PingFunc:
  003c4	06 00 00 00	 DD	 6
  003c8	00 00 00 00	 DD	 $LN31@PingFunc
$LN31@PingFunc:
  003cc	e8 ff ff ff	 DD	 -24			; ffffffe8H
  003d0	10 00 00 00	 DD	 16			; 00000010H
  003d4	00 00 00 00	 DD	 $LN25@PingFunc
  003d8	d0 ff ff ff	 DD	 -48			; ffffffd0H
  003dc	10 00 00 00	 DD	 16			; 00000010H
  003e0	00 00 00 00	 DD	 $LN26@PingFunc
  003e4	b8 ff ff ff	 DD	 -72			; ffffffb8H
  003e8	04 00 00 00	 DD	 4
  003ec	00 00 00 00	 DD	 $LN27@PingFunc
  003f0	ac ff ff ff	 DD	 -84			; ffffffacH
  003f4	04 00 00 00	 DD	 4
  003f8	00 00 00 00	 DD	 $LN28@PingFunc
  003fc	98 fb ff ff	 DD	 -1128			; fffffb98H
  00400	00 04 00 00	 DD	 1024			; 00000400H
  00404	00 00 00 00	 DD	 $LN29@PingFunc
  00408	90 f7 ff ff	 DD	 -2160			; fffff790H
  0040c	00 04 00 00	 DD	 1024			; 00000400H
  00410	00 00 00 00	 DD	 $LN30@PingFunc
$LN30@PingFunc:
  00414	72		 DB	 114			; 00000072H
  00415	65		 DB	 101			; 00000065H
  00416	63		 DB	 99			; 00000063H
  00417	76		 DB	 118			; 00000076H
  00418	62		 DB	 98			; 00000062H
  00419	75		 DB	 117			; 00000075H
  0041a	66		 DB	 102			; 00000066H
  0041b	00		 DB	 0
$LN29@PingFunc:
  0041c	69		 DB	 105			; 00000069H
  0041d	63		 DB	 99			; 00000063H
  0041e	6d		 DB	 109			; 0000006dH
  0041f	70		 DB	 112			; 00000070H
  00420	5f		 DB	 95			; 0000005fH
  00421	64		 DB	 100			; 00000064H
  00422	61		 DB	 97			; 00000061H
  00423	74		 DB	 116			; 00000074H
  00424	61		 DB	 97			; 00000061H
  00425	00		 DB	 0
$LN28@PingFunc:
  00426	74		 DB	 116			; 00000074H
  00427	69		 DB	 105			; 00000069H
  00428	6d		 DB	 109			; 0000006dH
  00429	65		 DB	 101			; 00000065H
  0042a	6f		 DB	 111			; 0000006fH
  0042b	75		 DB	 117			; 00000075H
  0042c	74		 DB	 116			; 00000074H
  0042d	00		 DB	 0
$LN27@PingFunc:
  0042e	66		 DB	 102			; 00000066H
  0042f	72		 DB	 114			; 00000072H
  00430	6f		 DB	 111			; 0000006fH
  00431	6d		 DB	 109			; 0000006dH
  00432	6c		 DB	 108			; 0000006cH
  00433	65		 DB	 101			; 00000065H
  00434	6e		 DB	 110			; 0000006eH
  00435	00		 DB	 0
$LN26@PingFunc:
  00436	64		 DB	 100			; 00000064H
  00437	65		 DB	 101			; 00000065H
  00438	73		 DB	 115			; 00000073H
  00439	74		 DB	 116			; 00000074H
  0043a	00		 DB	 0
$LN25@PingFunc:
  0043b	66		 DB	 102			; 00000066H
  0043c	72		 DB	 114			; 00000072H
  0043d	6f		 DB	 111			; 0000006fH
  0043e	6d		 DB	 109			; 0000006dH
  0043f	00		 DB	 0
?PingFunc@@YGKPAX@Z ENDP				; PingFunc
_TEXT	ENDS
; Function compile flags: /Odtp /RTCsu /ZI
; File c:\users\administrator\desktop\????? ??\????? ??\client source code\system\netproc.cpp
;	COMDAT ?LogToRecvdata2@@YAXPAD@Z
_TEXT	SEGMENT
_rfp$1 = -276						; size = 4
_lssproto_readlogfilename$ = -264			; size = 256
__$ArrayPad$ = -4					; size = 4
_data$ = 8						; size = 4
?LogToRecvdata2@@YAXPAD@Z PROC				; LogToRecvdata2, COMDAT

; 156  : {

  00000	55		 push	 ebp
  00001	8b ec		 mov	 ebp, esp
  00003	81 ec d8 01 00
	00		 sub	 esp, 472		; 000001d8H
  00009	53		 push	 ebx
  0000a	56		 push	 esi
  0000b	57		 push	 edi
  0000c	8d bd 28 fe ff
	ff		 lea	 edi, DWORD PTR [ebp-472]
  00012	b9 76 00 00 00	 mov	 ecx, 118		; 00000076H
  00017	b8 cc cc cc cc	 mov	 eax, -858993460		; ccccccccH
  0001c	f3 ab		 rep stosd
  0001e	a1 00 00 00 00	 mov	 eax, DWORD PTR ___security_cookie
  00023	33 c5		 xor	 eax, ebp
  00025	89 45 fc	 mov	 DWORD PTR __$ArrayPad$[ebp], eax

; 157  : 	//printf("收到：\t%s\n", data);
; 158  : 	char lssproto_readlogfilename[256] = "recvdata.txt";

  00028	a1 00 00 00 00	 mov	 eax, DWORD PTR ??_C@_0N@OFOPBFLC@recvdata?4txt?$AA@
  0002d	89 85 f8 fe ff
	ff		 mov	 DWORD PTR _lssproto_readlogfilename$[ebp], eax
  00033	8b 0d 04 00 00
	00		 mov	 ecx, DWORD PTR ??_C@_0N@OFOPBFLC@recvdata?4txt?$AA@+4
  00039	89 8d fc fe ff
	ff		 mov	 DWORD PTR _lssproto_readlogfilename$[ebp+4], ecx
  0003f	8b 15 08 00 00
	00		 mov	 edx, DWORD PTR ??_C@_0N@OFOPBFLC@recvdata?4txt?$AA@+8
  00045	89 95 00 ff ff
	ff		 mov	 DWORD PTR _lssproto_readlogfilename$[ebp+8], edx
  0004b	a0 0c 00 00 00	 mov	 al, BYTE PTR ??_C@_0N@OFOPBFLC@recvdata?4txt?$AA@+12
  00050	88 85 04 ff ff
	ff		 mov	 BYTE PTR _lssproto_readlogfilename$[ebp+12], al
  00056	68 f3 00 00 00	 push	 243			; 000000f3H
  0005b	6a 00		 push	 0
  0005d	8d 85 05 ff ff
	ff		 lea	 eax, DWORD PTR _lssproto_readlogfilename$[ebp+13]
  00063	50		 push	 eax
  00064	e8 00 00 00 00	 call	 _memset
  00069	83 c4 0c	 add	 esp, 12			; 0000000cH

; 159  : 
; 160  : 	if (lssproto_readlogfilename[0] != '\0')

  0006c	b8 01 00 00 00	 mov	 eax, 1
  00071	6b c8 00	 imul	 ecx, eax, 0
  00074	0f be 94 0d f8
	fe ff ff	 movsx	 edx, BYTE PTR _lssproto_readlogfilename$[ebp+ecx]
  0007c	85 d2		 test	 edx, edx
  0007e	74 5e		 je	 SHORT $LN1@LogToRecvd

; 161  : 	{
; 162  : 		FILE *rfp;
; 163  : 		rfp = fopen(lssproto_readlogfilename, "a+");

  00080	8b f4		 mov	 esi, esp
  00082	68 00 00 00 00	 push	 OFFSET ??_C@_02DPNLHKJD@a?$CL?$AA@
  00087	8d 85 f8 fe ff
	ff		 lea	 eax, DWORD PTR _lssproto_readlogfilename$[ebp]
  0008d	50		 push	 eax
  0008e	ff 15 00 00 00
	00		 call	 DWORD PTR __imp__fopen
  00094	83 c4 08	 add	 esp, 8
  00097	3b f4		 cmp	 esi, esp
  00099	e8 00 00 00 00	 call	 __RTC_CheckEsp
  0009e	89 85 ec fe ff
	ff		 mov	 DWORD PTR _rfp$1[ebp], eax

; 164  : 		if (rfp)

  000a4	83 bd ec fe ff
	ff 00		 cmp	 DWORD PTR _rfp$1[ebp], 0
  000ab	74 31		 je	 SHORT $LN1@LogToRecvd

; 165  : 		{
; 166  : 			fprintf(rfp, "收到：\t%s\n", data);

  000ad	8b 45 08	 mov	 eax, DWORD PTR _data$[ebp]
  000b0	50		 push	 eax
  000b1	68 00 00 00 00	 push	 OFFSET ??_C@_0L@INAHAGEI@?b?$KF?S?p?$KD?$LK?7?$CFs?6?$AA@
  000b6	8b 8d ec fe ff
	ff		 mov	 ecx, DWORD PTR _rfp$1[ebp]
  000bc	51		 push	 ecx
  000bd	e8 00 00 00 00	 call	 _fprintf
  000c2	83 c4 0c	 add	 esp, 12			; 0000000cH

; 167  : 			fclose(rfp);

  000c5	8b f4		 mov	 esi, esp
  000c7	8b 85 ec fe ff
	ff		 mov	 eax, DWORD PTR _rfp$1[ebp]
  000cd	50		 push	 eax
  000ce	ff 15 00 00 00
	00		 call	 DWORD PTR __imp__fclose
  000d4	83 c4 04	 add	 esp, 4
  000d7	3b f4		 cmp	 esi, esp
  000d9	e8 00 00 00 00	 call	 __RTC_CheckEsp
$LN1@LogToRecvd:

; 168  : 		}
; 169  : 	}
; 170  : }

  000de	52		 push	 edx
  000df	8b cd		 mov	 ecx, ebp
  000e1	50		 push	 eax
  000e2	8d 15 00 00 00
	00		 lea	 edx, DWORD PTR $LN7@LogToRecvd
  000e8	e8 00 00 00 00	 call	 @_RTC_CheckStackVars@8
  000ed	58		 pop	 eax
  000ee	5a		 pop	 edx
  000ef	5f		 pop	 edi
  000f0	5e		 pop	 esi
  000f1	5b		 pop	 ebx
  000f2	8b 4d fc	 mov	 ecx, DWORD PTR __$ArrayPad$[ebp]
  000f5	33 cd		 xor	 ecx, ebp
  000f7	e8 00 00 00 00	 call	 @__security_check_cookie@4
  000fc	81 c4 d8 01 00
	00		 add	 esp, 472		; 000001d8H
  00102	3b ec		 cmp	 ebp, esp
  00104	e8 00 00 00 00	 call	 __RTC_CheckEsp
  00109	8b e5		 mov	 esp, ebp
  0010b	5d		 pop	 ebp
  0010c	c3		 ret	 0
  0010d	0f 1f 00	 npad	 3
$LN7@LogToRecvd:
  00110	01 00 00 00	 DD	 1
  00114	00 00 00 00	 DD	 $LN6@LogToRecvd
$LN6@LogToRecvd:
  00118	f8 fe ff ff	 DD	 -264			; fffffef8H
  0011c	00 01 00 00	 DD	 256			; 00000100H
  00120	00 00 00 00	 DD	 $LN5@LogToRecvd
$LN5@LogToRecvd:
  00124	6c		 DB	 108			; 0000006cH
  00125	73		 DB	 115			; 00000073H
  00126	73		 DB	 115			; 00000073H
  00127	70		 DB	 112			; 00000070H
  00128	72		 DB	 114			; 00000072H
  00129	6f		 DB	 111			; 0000006fH
  0012a	74		 DB	 116			; 00000074H
  0012b	6f		 DB	 111			; 0000006fH
  0012c	5f		 DB	 95			; 0000005fH
  0012d	72		 DB	 114			; 00000072H
  0012e	65		 DB	 101			; 00000065H
  0012f	61		 DB	 97			; 00000061H
  00130	64		 DB	 100			; 00000064H
  00131	6c		 DB	 108			; 0000006cH
  00132	6f		 DB	 111			; 0000006fH
  00133	67		 DB	 103			; 00000067H
  00134	66		 DB	 102			; 00000066H
  00135	69		 DB	 105			; 00000069H
  00136	6c		 DB	 108			; 0000006cH
  00137	65		 DB	 101			; 00000065H
  00138	6e		 DB	 110			; 0000006eH
  00139	61		 DB	 97			; 00000061H
  0013a	6d		 DB	 109			; 0000006dH
  0013b	65		 DB	 101			; 00000065H
  0013c	00		 DB	 0
?LogToRecvdata2@@YAXPAD@Z ENDP				; LogToRecvdata2
_TEXT	ENDS
; Function compile flags: /Odtp /RTCsu /ZI
; File c:\users\administrator\desktop\????? ??\????? ??\client source code\system\netproc.cpp
;	COMDAT ?SaveChatData@@YAXPADD_N@Z
_TEXT	SEGMENT
_len$1 = -40						; size = 4
_len$2 = -28						; size = 4
_ChannelType$ = -16					; size = 5
__$ArrayPad$ = -4					; size = 4
_msg$ = 8						; size = 4
_KindOfChannel$ = 12					; size = 1
_bCloseFile$ = 16					; size = 1
?SaveChatData@@YAXPADD_N@Z PROC				; SaveChatData, COMDAT

; 4458 : void SaveChatData(char *msg,char KindOfChannel,bool bCloseFile){

  00000	55		 push	 ebp
  00001	8b ec		 mov	 ebp, esp
  00003	81 ec ec 00 00
	00		 sub	 esp, 236		; 000000ecH
  00009	53		 push	 ebx
  0000a	56		 push	 esi
  0000b	57		 push	 edi
  0000c	8d bd 14 ff ff
	ff		 lea	 edi, DWORD PTR [ebp-236]
  00012	b9 3b 00 00 00	 mov	 ecx, 59			; 0000003bH
  00017	b8 cc cc cc cc	 mov	 eax, -858993460		; ccccccccH
  0001c	f3 ab		 rep stosd
  0001e	a1 00 00 00 00	 mov	 eax, DWORD PTR ___security_cookie
  00023	33 c5		 xor	 eax, ebp
  00025	89 45 fc	 mov	 DWORD PTR __$ArrayPad$[ebp], eax

; 4459 : 	static FILE *pFile[5];
; 4460 : 	static char szFileName[256];
; 4461 : 	static struct tm *nowTime;
; 4462 : 	static time_t longTime;
; 4463 : 	static unsigned short Channel[] = {
; 4464 : 		PC_ETCFLAG_CHAT_MODE, //队伍频道开关
; 4465 : 		PC_ETCFLAG_CHAT_TELL,	//密语频道开关
; 4466 : 		PC_ETCFLAG_CHAT_FM,		//家族频道开关
; 4467 : 		PC_ETCFLAG_CHAT_OCC,	//职业频道开关
; 4468 : 		PC_ETCFLAG_CHAT_CHAT	//聊天室开关
; 4469 : 	};
; 4470 : 	char ChannelType[] = {'T','M','F','O','R'};

  00028	c6 45 f0 54	 mov	 BYTE PTR _ChannelType$[ebp], 84 ; 00000054H
  0002c	c6 45 f1 4d	 mov	 BYTE PTR _ChannelType$[ebp+1], 77 ; 0000004dH
  00030	c6 45 f2 46	 mov	 BYTE PTR _ChannelType$[ebp+2], 70 ; 00000046H
  00034	c6 45 f3 4f	 mov	 BYTE PTR _ChannelType$[ebp+3], 79 ; 0000004fH
  00038	c6 45 f4 52	 mov	 BYTE PTR _ChannelType$[ebp+4], 82 ; 00000052H

; 4471 : 
; 4472 : 	//JL 重写保存chat聊天记录
; 4473 : 	if ((pc.etcFlag & PC_ETCFLAG_CHAT_SAVE) && !bCloseFile) 

  0003c	0f b7 05 a8 00
	00 00		 movzx	 eax, WORD PTR ?pc@@3UPC@@A+168
  00043	25 00 02 00 00	 and	 eax, 512		; 00000200H
  00048	0f 84 c5 01 00
	00		 je	 $LN2@SaveChatDa
  0004e	0f b6 45 10	 movzx	 eax, BYTE PTR _bCloseFile$[ebp]
  00052	85 c0		 test	 eax, eax
  00054	0f 85 b9 01 00
	00		 jne	 $LN2@SaveChatDa

; 4474 : 	{
; 4475 : 		time(&longTime);

  0005a	68 00 00 00 00	 push	 OFFSET ?longTime@?1??SaveChatData@@YAXPADD_N@Z@4_JA
  0005f	e8 00 00 00 00	 call	 _time
  00064	83 c4 04	 add	 esp, 4

; 4476 : 		nowTime = localtime(&longTime);

  00067	68 00 00 00 00	 push	 OFFSET ?longTime@?1??SaveChatData@@YAXPADD_N@Z@4_JA
  0006c	e8 00 00 00 00	 call	 _localtime
  00071	83 c4 04	 add	 esp, 4
  00074	a3 00 00 00 00	 mov	 DWORD PTR ?nowTime@?1??SaveChatData@@YAXPADD_N@Z@4PAUtm@@A, eax

; 4477 : 
; 4478 : 		if (pFile[0] == NULL) 

  00079	b8 04 00 00 00	 mov	 eax, 4
  0007e	6b c8 00	 imul	 ecx, eax, 0
  00081	83 b9 00 00 00
	00 00		 cmp	 DWORD PTR ?pFile@?1??SaveChatData@@YAXPADD_N@Z@4PAPAU_iobuf@@A[ecx], 0
  00088	0f 85 f6 00 00
	00		 jne	 $LN4@SaveChatDa

; 4479 : 		{
; 4480 : 			sprintf(szFileName, "chat\\%02d%02d%02d.TXT", (nowTime->tm_year % 100), nowTime->tm_mon + 1, nowTime->tm_mday);

  0008e	a1 00 00 00 00	 mov	 eax, DWORD PTR ?nowTime@?1??SaveChatData@@YAXPADD_N@Z@4PAUtm@@A
  00093	8b 48 0c	 mov	 ecx, DWORD PTR [eax+12]
  00096	51		 push	 ecx
  00097	8b 15 00 00 00
	00		 mov	 edx, DWORD PTR ?nowTime@?1??SaveChatData@@YAXPADD_N@Z@4PAUtm@@A
  0009d	8b 42 10	 mov	 eax, DWORD PTR [edx+16]
  000a0	83 c0 01	 add	 eax, 1
  000a3	50		 push	 eax
  000a4	8b 0d 00 00 00
	00		 mov	 ecx, DWORD PTR ?nowTime@?1??SaveChatData@@YAXPADD_N@Z@4PAUtm@@A
  000aa	8b 41 14	 mov	 eax, DWORD PTR [ecx+20]
  000ad	99		 cdq
  000ae	b9 64 00 00 00	 mov	 ecx, 100		; 00000064H
  000b3	f7 f9		 idiv	 ecx
  000b5	52		 push	 edx
  000b6	68 00 00 00 00	 push	 OFFSET ??_C@_0BG@JGFFJBEF@chat?2?$CF02d?$CF02d?$CF02d?4TXT?$AA@
  000bb	68 00 00 00 00	 push	 OFFSET ?szFileName@?1??SaveChatData@@YAXPADD_N@Z@4PADA
  000c0	e8 00 00 00 00	 call	 _sprintf
  000c5	83 c4 14	 add	 esp, 20			; 00000014H

; 4481 : 			pFile[0] = fopen(szFileName, "a");

  000c8	8b f4		 mov	 esi, esp
  000ca	68 00 00 00 00	 push	 OFFSET ??_C@_01MCMALHOG@a?$AA@
  000cf	68 00 00 00 00	 push	 OFFSET ?szFileName@?1??SaveChatData@@YAXPADD_N@Z@4PADA
  000d4	ff 15 00 00 00
	00		 call	 DWORD PTR __imp__fopen
  000da	83 c4 08	 add	 esp, 8
  000dd	3b f4		 cmp	 esi, esp
  000df	e8 00 00 00 00	 call	 __RTC_CheckEsp
  000e4	b9 04 00 00 00	 mov	 ecx, 4
  000e9	6b d1 00	 imul	 edx, ecx, 0
  000ec	89 82 00 00 00
	00		 mov	 DWORD PTR ?pFile@?1??SaveChatData@@YAXPADD_N@Z@4PAPAU_iobuf@@A[edx], eax

; 4482 : 			int len = lstrlen(msg);

  000f2	8b f4		 mov	 esi, esp
  000f4	8b 45 08	 mov	 eax, DWORD PTR _msg$[ebp]
  000f7	50		 push	 eax
  000f8	ff 15 00 00 00
	00		 call	 DWORD PTR __imp__lstrlenA@4
  000fe	3b f4		 cmp	 esi, esp
  00100	e8 00 00 00 00	 call	 __RTC_CheckEsp
  00105	89 45 e4	 mov	 DWORD PTR _len$2[ebp], eax

; 4483 : 			fwrite(msg, 1, len, pFile[0]);

  00108	b8 04 00 00 00	 mov	 eax, 4
  0010d	6b c8 00	 imul	 ecx, eax, 0
  00110	8b f4		 mov	 esi, esp
  00112	8b 91 00 00 00
	00		 mov	 edx, DWORD PTR ?pFile@?1??SaveChatData@@YAXPADD_N@Z@4PAPAU_iobuf@@A[ecx]
  00118	52		 push	 edx
  00119	8b 45 e4	 mov	 eax, DWORD PTR _len$2[ebp]
  0011c	50		 push	 eax
  0011d	6a 01		 push	 1
  0011f	8b 4d 08	 mov	 ecx, DWORD PTR _msg$[ebp]
  00122	51		 push	 ecx
  00123	ff 15 00 00 00
	00		 call	 DWORD PTR __imp__fwrite
  00129	83 c4 10	 add	 esp, 16			; 00000010H
  0012c	3b f4		 cmp	 esi, esp
  0012e	e8 00 00 00 00	 call	 __RTC_CheckEsp

; 4484 : 			fwrite("\n", 1, 1, pFile[0]);

  00133	b8 04 00 00 00	 mov	 eax, 4
  00138	6b c8 00	 imul	 ecx, eax, 0
  0013b	8b f4		 mov	 esi, esp
  0013d	8b 91 00 00 00
	00		 mov	 edx, DWORD PTR ?pFile@?1??SaveChatData@@YAXPADD_N@Z@4PAPAU_iobuf@@A[ecx]
  00143	52		 push	 edx
  00144	6a 01		 push	 1
  00146	6a 01		 push	 1
  00148	68 00 00 00 00	 push	 OFFSET ??_C@_01EEMJAFIK@?6?$AA@
  0014d	ff 15 00 00 00
	00		 call	 DWORD PTR __imp__fwrite
  00153	83 c4 10	 add	 esp, 16			; 00000010H
  00156	3b f4		 cmp	 esi, esp
  00158	e8 00 00 00 00	 call	 __RTC_CheckEsp

; 4485 : 			fflush(pFile[0]);

  0015d	b8 04 00 00 00	 mov	 eax, 4
  00162	6b c8 00	 imul	 ecx, eax, 0
  00165	8b f4		 mov	 esi, esp
  00167	8b 91 00 00 00
	00		 mov	 edx, DWORD PTR ?pFile@?1??SaveChatData@@YAXPADD_N@Z@4PAPAU_iobuf@@A[ecx]
  0016d	52		 push	 edx
  0016e	ff 15 00 00 00
	00		 call	 DWORD PTR __imp__fflush
  00174	83 c4 04	 add	 esp, 4
  00177	3b f4		 cmp	 esi, esp
  00179	e8 00 00 00 00	 call	 __RTC_CheckEsp

; 4486 : 			__asm nop;

  0017e	90		 npad	 1

; 4487 : 		}
; 4488 : 		else 

  0017f	e9 8d 00 00 00	 jmp	 $LN5@SaveChatDa
$LN4@SaveChatDa:

; 4489 : 		{
; 4490 : 			int len = lstrlen(msg);

  00184	8b f4		 mov	 esi, esp
  00186	8b 45 08	 mov	 eax, DWORD PTR _msg$[ebp]
  00189	50		 push	 eax
  0018a	ff 15 00 00 00
	00		 call	 DWORD PTR __imp__lstrlenA@4
  00190	3b f4		 cmp	 esi, esp
  00192	e8 00 00 00 00	 call	 __RTC_CheckEsp
  00197	89 45 d8	 mov	 DWORD PTR _len$1[ebp], eax

; 4491 : 			fwrite(msg, 1, len, pFile[0]);

  0019a	b8 04 00 00 00	 mov	 eax, 4
  0019f	6b c8 00	 imul	 ecx, eax, 0
  001a2	8b f4		 mov	 esi, esp
  001a4	8b 91 00 00 00
	00		 mov	 edx, DWORD PTR ?pFile@?1??SaveChatData@@YAXPADD_N@Z@4PAPAU_iobuf@@A[ecx]
  001aa	52		 push	 edx
  001ab	8b 45 d8	 mov	 eax, DWORD PTR _len$1[ebp]
  001ae	50		 push	 eax
  001af	6a 01		 push	 1
  001b1	8b 4d 08	 mov	 ecx, DWORD PTR _msg$[ebp]
  001b4	51		 push	 ecx
  001b5	ff 15 00 00 00
	00		 call	 DWORD PTR __imp__fwrite
  001bb	83 c4 10	 add	 esp, 16			; 00000010H
  001be	3b f4		 cmp	 esi, esp
  001c0	e8 00 00 00 00	 call	 __RTC_CheckEsp

; 4492 : 			fwrite("\n", 1, 1, pFile[0]);

  001c5	b8 04 00 00 00	 mov	 eax, 4
  001ca	6b c8 00	 imul	 ecx, eax, 0
  001cd	8b f4		 mov	 esi, esp
  001cf	8b 91 00 00 00
	00		 mov	 edx, DWORD PTR ?pFile@?1??SaveChatData@@YAXPADD_N@Z@4PAPAU_iobuf@@A[ecx]
  001d5	52		 push	 edx
  001d6	6a 01		 push	 1
  001d8	6a 01		 push	 1
  001da	68 00 00 00 00	 push	 OFFSET ??_C@_01EEMJAFIK@?6?$AA@
  001df	ff 15 00 00 00
	00		 call	 DWORD PTR __imp__fwrite
  001e5	83 c4 10	 add	 esp, 16			; 00000010H
  001e8	3b f4		 cmp	 esi, esp
  001ea	e8 00 00 00 00	 call	 __RTC_CheckEsp

; 4493 : 			fflush(pFile[0]);

  001ef	b8 04 00 00 00	 mov	 eax, 4
  001f4	6b c8 00	 imul	 ecx, eax, 0
  001f7	8b f4		 mov	 esi, esp
  001f9	8b 91 00 00 00
	00		 mov	 edx, DWORD PTR ?pFile@?1??SaveChatData@@YAXPADD_N@Z@4PAPAU_iobuf@@A[ecx]
  001ff	52		 push	 edx
  00200	ff 15 00 00 00
	00		 call	 DWORD PTR __imp__fflush
  00206	83 c4 04	 add	 esp, 4
  00209	3b f4		 cmp	 esi, esp
  0020b	e8 00 00 00 00	 call	 __RTC_CheckEsp

; 4494 : 			__asm nop;

  00210	90		 npad	 1
$LN5@SaveChatDa:

; 4495 : 		}

  00211	eb 04		 jmp	 SHORT $LN3@SaveChatDa
$LN2@SaveChatDa:

; 4496 : 
; 4497 : 	}
; 4498 : 	else bCloseFile = 1;

  00213	c6 45 10 01	 mov	 BYTE PTR _bCloseFile$[ebp], 1
$LN3@SaveChatDa:

; 4499 : 
; 4500 : 	if (bCloseFile) {

  00217	0f b6 45 10	 movzx	 eax, BYTE PTR _bCloseFile$[ebp]
  0021b	85 c0		 test	 eax, eax
  0021d	74 44		 je	 SHORT $LN1@SaveChatDa

; 4501 : 		if (pFile[0] != NULL)

  0021f	b8 04 00 00 00	 mov	 eax, 4
  00224	6b c8 00	 imul	 ecx, eax, 0
  00227	83 b9 00 00 00
	00 00		 cmp	 DWORD PTR ?pFile@?1??SaveChatData@@YAXPADD_N@Z@4PAPAU_iobuf@@A[ecx], 0
  0022e	74 33		 je	 SHORT $LN1@SaveChatDa

; 4502 : 		{
; 4503 : 			fclose(pFile[0]);

  00230	b8 04 00 00 00	 mov	 eax, 4
  00235	6b c8 00	 imul	 ecx, eax, 0
  00238	8b f4		 mov	 esi, esp
  0023a	8b 91 00 00 00
	00		 mov	 edx, DWORD PTR ?pFile@?1??SaveChatData@@YAXPADD_N@Z@4PAPAU_iobuf@@A[ecx]
  00240	52		 push	 edx
  00241	ff 15 00 00 00
	00		 call	 DWORD PTR __imp__fclose
  00247	83 c4 04	 add	 esp, 4
  0024a	3b f4		 cmp	 esi, esp
  0024c	e8 00 00 00 00	 call	 __RTC_CheckEsp

; 4504 : 			pFile[0] = 0;

  00251	b8 04 00 00 00	 mov	 eax, 4
  00256	6b c8 00	 imul	 ecx, eax, 0
  00259	c7 81 00 00 00
	00 00 00 00 00	 mov	 DWORD PTR ?pFile@?1??SaveChatData@@YAXPADD_N@Z@4PAPAU_iobuf@@A[ecx], 0
$LN1@SaveChatDa:

; 4505 : 		}
; 4506 : 	}
; 4507 : 
; 4508 : 	// 储存对话内容选项开启
; 4509 : 	//if ((pc.etcFlag & PC_ETCFLAG_CHAT_SAVE) && !bCloseFile){
; 4510 : 	//	time(&longTime);
; 4511 : 	//	nowTime = localtime(&longTime);
; 4512 : 	//	for (int i=0;i<5;i++){
; 4513 : 	//		if (pc.etcFlag & Channel[i]){
; 4514 : 	//			if (pFile[i] == NULL){
; 4515 : 	//				sprintf(szFileName,"chat\\%c%02d%02d%02d.TXT",ChannelType[i],(nowTime->tm_year % 100),nowTime->tm_mon+1,nowTime->tm_mday);
; 4516 : 	//				if ((pFile[i] = fopen(szFileName,"a")) == NULL) continue;
; 4517 : 	//				int n =fwrite(msg, lstrlen(msg), lstrlen(msg), pFile[i]);
; 4518 : 	//				__asm nop;
; 4519 : 	//			}
; 4520 : 	//		}
; 4521 : 	//		else{
; 4522 : 	//			if (pFile[i] != NULL) fclose(pFile[i]);
; 4523 : 	//		}
; 4524 : 	//	}
; 4525 : 	//	for (int i=0;i<5;i++){
; 4526 : 	//		if (KindOfChannel == ChannelType[i]){
; 4527 : 	//			if (pFile[i] != NULL) fprintf(pFile[i],"[%02d:%02d:%02d]%s\n",nowTime->tm_hour,nowTime->tm_min,nowTime->tm_sec,msg);
; 4528 : 	//		}
; 4529 : 	//	}
; 4530 : 	//}
; 4531 : 	//else bCloseFile = 1;
; 4532 : 
; 4533 : 	//if (bCloseFile){
; 4534 : 	//	for (int i=0;i<5;i++)
; 4535 : 	//		if (pFile[i] != NULL) fclose(pFile[i]);
; 4536 : 	//}
; 4537 : }

  00263	52		 push	 edx
  00264	8b cd		 mov	 ecx, ebp
  00266	50		 push	 eax
  00267	8d 15 00 00 00
	00		 lea	 edx, DWORD PTR $LN11@SaveChatDa
  0026d	e8 00 00 00 00	 call	 @_RTC_CheckStackVars@8
  00272	58		 pop	 eax
  00273	5a		 pop	 edx
  00274	5f		 pop	 edi
  00275	5e		 pop	 esi
  00276	5b		 pop	 ebx
  00277	8b 4d fc	 mov	 ecx, DWORD PTR __$ArrayPad$[ebp]
  0027a	33 cd		 xor	 ecx, ebp
  0027c	e8 00 00 00 00	 call	 @__security_check_cookie@4
  00281	81 c4 ec 00 00
	00		 add	 esp, 236		; 000000ecH
  00287	3b ec		 cmp	 ebp, esp
  00289	e8 00 00 00 00	 call	 __RTC_CheckEsp
  0028e	8b e5		 mov	 esp, ebp
  00290	5d		 pop	 ebp
  00291	c3		 ret	 0
  00292	66 90		 npad	 2
$LN11@SaveChatDa:
  00294	01 00 00 00	 DD	 1
  00298	00 00 00 00	 DD	 $LN10@SaveChatDa
$LN10@SaveChatDa:
  0029c	f0 ff ff ff	 DD	 -16			; fffffff0H
  002a0	05 00 00 00	 DD	 5
  002a4	00 00 00 00	 DD	 $LN9@SaveChatDa
$LN9@SaveChatDa:
  002a8	43		 DB	 67			; 00000043H
  002a9	68		 DB	 104			; 00000068H
  002aa	61		 DB	 97			; 00000061H
  002ab	6e		 DB	 110			; 0000006eH
  002ac	6e		 DB	 110			; 0000006eH
  002ad	65		 DB	 101			; 00000065H
  002ae	6c		 DB	 108			; 0000006cH
  002af	54		 DB	 84			; 00000054H
  002b0	79		 DB	 121			; 00000079H
  002b1	70		 DB	 112			; 00000070H
  002b2	65		 DB	 101			; 00000065H
  002b3	00		 DB	 0
?SaveChatData@@YAXPADD_N@Z ENDP				; SaveChatData
_TEXT	ENDS
; Function compile flags: /Odtp /RTCsu /ZI
; File c:\users\administrator\desktop\????? ??\????? ??\client source code\system\netproc.cpp
;	COMDAT ?SortSkill@@YAXXZ
_TEXT	SEGMENT
tv78 = -256						; size = 4
_i$1 = -56						; size = 4
_i$2 = -44						; size = 4
_count3$ = -32						; size = 4
_count2$ = -20						; size = 4
_count1$ = -8						; size = 4
?SortSkill@@YAXXZ PROC					; SortSkill, COMDAT

; 116  : {

  00000	55		 push	 ebp
  00001	8b ec		 mov	 ebp, esp
  00003	81 ec 00 01 00
	00		 sub	 esp, 256		; 00000100H
  00009	53		 push	 ebx
  0000a	56		 push	 esi
  0000b	57		 push	 edi
  0000c	8d bd 00 ff ff
	ff		 lea	 edi, DWORD PTR [ebp-256]
  00012	b9 40 00 00 00	 mov	 ecx, 64			; 00000040H
  00017	b8 cc cc cc cc	 mov	 eax, -858993460		; ccccccccH
  0001c	f3 ab		 rep stosd

; 117  : 	int count1 = 0, count2 = 0, count3 = 0;

  0001e	c7 45 f8 00 00
	00 00		 mov	 DWORD PTR _count1$[ebp], 0
  00025	c7 45 ec 00 00
	00 00		 mov	 DWORD PTR _count2$[ebp], 0
  0002c	c7 45 e0 00 00
	00 00		 mov	 DWORD PTR _count3$[ebp], 0

; 118  : 
; 119  : 	for (int i = 0; i < 20; i++)

  00033	c7 45 d4 00 00
	00 00		 mov	 DWORD PTR _i$2[ebp], 0
  0003a	eb 09		 jmp	 SHORT $LN4@SortSkill
$LN2@SortSkill:
  0003c	8b 45 d4	 mov	 eax, DWORD PTR _i$2[ebp]
  0003f	83 c0 01	 add	 eax, 1
  00042	89 45 d4	 mov	 DWORD PTR _i$2[ebp], eax
$LN4@SortSkill:
  00045	83 7d d4 14	 cmp	 DWORD PTR _i$2[ebp], 20	; 00000014H
  00049	7d 2c		 jge	 SHORT $LN3@SortSkill

; 120  : 	{
; 121  : 		AdvanceSkill[i] = -1;

  0004b	8b 45 d4	 mov	 eax, DWORD PTR _i$2[ebp]
  0004e	c7 04 85 00 00
	00 00 ff ff ff
	ff		 mov	 DWORD PTR ?AdvanceSkill@@3PAHA[eax*4], -1

; 122  : 		AssitSkill[i] = -1;		

  00059	8b 45 d4	 mov	 eax, DWORD PTR _i$2[ebp]
  0005c	c7 04 85 00 00
	00 00 ff ff ff
	ff		 mov	 DWORD PTR ?AssitSkill@@3PAHA[eax*4], -1

; 123  : 		BattleSkill[i] = -1;

  00067	8b 45 d4	 mov	 eax, DWORD PTR _i$2[ebp]
  0006a	c7 04 85 00 00
	00 00 ff ff ff
	ff		 mov	 DWORD PTR ?BattleSkill@@3PAHA[eax*4], -1

; 124  : 	}

  00075	eb c5		 jmp	 SHORT $LN2@SortSkill
$LN3@SortSkill:

; 125  : 	for (int i = 0; i < 26; i++)

  00077	c7 45 c8 00 00
	00 00		 mov	 DWORD PTR _i$1[ebp], 0
  0007e	eb 09		 jmp	 SHORT $LN7@SortSkill
$LN5@SortSkill:
  00080	8b 45 c8	 mov	 eax, DWORD PTR _i$1[ebp]
  00083	83 c0 01	 add	 eax, 1
  00086	89 45 c8	 mov	 DWORD PTR _i$1[ebp], eax
$LN7@SortSkill:
  00089	83 7d c8 1a	 cmp	 DWORD PTR _i$1[ebp], 26	; 0000001aH
  0008d	7d 7c		 jge	 SHORT $LN1@SortSkill

; 126  : 	{
; 127  : 		switch (profession_skill[i].kind)

  0008f	69 45 c8 c0 00
	00 00		 imul	 eax, DWORD PTR _i$1[ebp], 192
  00096	0f bf 88 06 00
	00 00		 movsx	 ecx, WORD PTR ?profession_skill@@3PAUPROFESSION_SKILL@@A[eax+6]
  0009d	89 8d 00 ff ff
	ff		 mov	 DWORD PTR tv78[ebp], ecx
  000a3	83 bd 00 ff ff
	ff 01		 cmp	 DWORD PTR tv78[ebp], 1
  000aa	74 14		 je	 SHORT $LN10@SortSkill
  000ac	83 bd 00 ff ff
	ff 02		 cmp	 DWORD PTR tv78[ebp], 2
  000b3	74 23		 je	 SHORT $LN11@SortSkill
  000b5	83 bd 00 ff ff
	ff 03		 cmp	 DWORD PTR tv78[ebp], 3
  000bc	74 32		 je	 SHORT $LN12@SortSkill
  000be	eb 46		 jmp	 SHORT $LN8@SortSkill
$LN10@SortSkill:

; 128  : 		{
; 129  : 		case 1: // 战斗技能
; 130  : 			BattleSkill[count1] = i;

  000c0	8b 45 f8	 mov	 eax, DWORD PTR _count1$[ebp]
  000c3	8b 4d c8	 mov	 ecx, DWORD PTR _i$1[ebp]
  000c6	89 0c 85 00 00
	00 00		 mov	 DWORD PTR ?BattleSkill@@3PAHA[eax*4], ecx

; 131  : 			count1++;

  000cd	8b 45 f8	 mov	 eax, DWORD PTR _count1$[ebp]
  000d0	83 c0 01	 add	 eax, 1
  000d3	89 45 f8	 mov	 DWORD PTR _count1$[ebp], eax

; 132  : 			break;

  000d6	eb 2e		 jmp	 SHORT $LN8@SortSkill
$LN11@SortSkill:

; 133  : 		case 2: // 辅助
; 134  : 			AssitSkill[count2] = i;

  000d8	8b 45 ec	 mov	 eax, DWORD PTR _count2$[ebp]
  000db	8b 4d c8	 mov	 ecx, DWORD PTR _i$1[ebp]
  000de	89 0c 85 00 00
	00 00		 mov	 DWORD PTR ?AssitSkill@@3PAHA[eax*4], ecx

; 135  : 			count2++;

  000e5	8b 45 ec	 mov	 eax, DWORD PTR _count2$[ebp]
  000e8	83 c0 01	 add	 eax, 1
  000eb	89 45 ec	 mov	 DWORD PTR _count2$[ebp], eax

; 136  : 			break;

  000ee	eb 16		 jmp	 SHORT $LN8@SortSkill
$LN12@SortSkill:

; 137  : 		case 3: // 进阶
; 138  : 			AdvanceSkill[count3] = i;

  000f0	8b 45 e0	 mov	 eax, DWORD PTR _count3$[ebp]
  000f3	8b 4d c8	 mov	 ecx, DWORD PTR _i$1[ebp]
  000f6	89 0c 85 00 00
	00 00		 mov	 DWORD PTR ?AdvanceSkill@@3PAHA[eax*4], ecx

; 139  : 			count3++;

  000fd	8b 45 e0	 mov	 eax, DWORD PTR _count3$[ebp]
  00100	83 c0 01	 add	 eax, 1
  00103	89 45 e0	 mov	 DWORD PTR _count3$[ebp], eax
$LN8@SortSkill:

; 140  : 			break;
; 141  : 		}
; 142  : 	}

  00106	e9 75 ff ff ff	 jmp	 $LN5@SortSkill
$LN1@SortSkill:

; 143  : }

  0010b	5f		 pop	 edi
  0010c	5e		 pop	 esi
  0010d	5b		 pop	 ebx
  0010e	8b e5		 mov	 esp, ebp
  00110	5d		 pop	 ebp
  00111	c3		 ret	 0
?SortSkill@@YAXXZ ENDP					; SortSkill
_TEXT	ENDS
; Function compile flags: /Odtp /RTCsu /ZI
; File c:\users\administrator\desktop\????? ??\????? ??\client source code\system\netproc.cpp
;	COMDAT ?lssproto_Firework_recv@@YAXHHHH@Z
_TEXT	SEGMENT
_pAct$ = -8						; size = 4
_fd$ = 8						; size = 4
_nCharaindex$ = 12					; size = 4
_nType$ = 16						; size = 4
_nActionNum$ = 20					; size = 4
?lssproto_Firework_recv@@YAXHHHH@Z PROC			; lssproto_Firework_recv, COMDAT

; 4672 : {

  00000	55		 push	 ebp
  00001	8b ec		 mov	 ebp, esp
  00003	81 ec cc 00 00
	00		 sub	 esp, 204		; 000000ccH
  00009	53		 push	 ebx
  0000a	56		 push	 esi
  0000b	57		 push	 edi
  0000c	8d bd 34 ff ff
	ff		 lea	 edi, DWORD PTR [ebp-204]
  00012	b9 33 00 00 00	 mov	 ecx, 51			; 00000033H
  00017	b8 cc cc cc cc	 mov	 eax, -858993460		; ccccccccH
  0001c	f3 ab		 rep stosd

; 4673 : 	ACTION	*pAct;
; 4674 : 
; 4675 : 	if (pc.id == nCharaindex)

  0001e	a1 08 00 00 00	 mov	 eax, DWORD PTR ?pc@@3UPC@@A+8
  00023	3b 45 0c	 cmp	 eax, DWORD PTR _nCharaindex$[ebp]
  00026	75 1c		 jne	 SHORT $LN2@lssproto_F

; 4676 : 		changePcAct(0, 0, 0, 51, nType, nActionNum, 0);

  00028	6a 00		 push	 0
  0002a	8b 45 14	 mov	 eax, DWORD PTR _nActionNum$[ebp]
  0002d	50		 push	 eax
  0002e	8b 4d 10	 mov	 ecx, DWORD PTR _nType$[ebp]
  00031	51		 push	 ecx
  00032	6a 33		 push	 51			; 00000033H
  00034	6a 00		 push	 0
  00036	6a 00		 push	 0
  00038	6a 00		 push	 0
  0003a	e8 00 00 00 00	 call	 ?changePcAct@@YAXHHHHHHH@Z ; changePcAct
  0003f	83 c4 1c	 add	 esp, 28			; 0000001cH

; 4677 : 	else

  00042	eb 2d		 jmp	 SHORT $LN1@lssproto_F
$LN2@lssproto_F:

; 4678 : 	{
; 4679 : 		pAct = getCharObjAct(nCharaindex);

  00044	8b 45 0c	 mov	 eax, DWORD PTR _nCharaindex$[ebp]
  00047	50		 push	 eax
  00048	e8 00 00 00 00	 call	 ?getCharObjAct@@YAPAUaction@@H@Z ; getCharObjAct
  0004d	83 c4 04	 add	 esp, 4
  00050	89 45 f8	 mov	 DWORD PTR _pAct$[ebp], eax

; 4680 : 		changeCharAct(pAct, 0, 0, 0, 51, nType, nActionNum, 0);

  00053	6a 00		 push	 0
  00055	8b 45 14	 mov	 eax, DWORD PTR _nActionNum$[ebp]
  00058	50		 push	 eax
  00059	8b 4d 10	 mov	 ecx, DWORD PTR _nType$[ebp]
  0005c	51		 push	 ecx
  0005d	6a 33		 push	 51			; 00000033H
  0005f	6a 00		 push	 0
  00061	6a 00		 push	 0
  00063	6a 00		 push	 0
  00065	8b 55 f8	 mov	 edx, DWORD PTR _pAct$[ebp]
  00068	52		 push	 edx
  00069	e8 00 00 00 00	 call	 ?changeCharAct@@YAXPAUaction@@HHHHHHH@Z ; changeCharAct
  0006e	83 c4 20	 add	 esp, 32			; 00000020H
$LN1@lssproto_F:

; 4681 : 	
; 4682 : 	}
; 4683 : }

  00071	5f		 pop	 edi
  00072	5e		 pop	 esi
  00073	5b		 pop	 ebx
  00074	81 c4 cc 00 00
	00		 add	 esp, 204		; 000000ccH
  0007a	3b ec		 cmp	 ebp, esp
  0007c	e8 00 00 00 00	 call	 __RTC_CheckEsp
  00081	8b e5		 mov	 esp, ebp
  00083	5d		 pop	 ebp
  00084	c3		 ret	 0
?lssproto_Firework_recv@@YAXHHHH@Z ENDP			; lssproto_Firework_recv
_TEXT	ENDS
; Function compile flags: /Odtp /RTCsu /ZI
; File c:\users\administrator\desktop\????? ??\????? ??\client source code\system\netproc.cpp
;	COMDAT ?lssproto_S2_recv@@YAXHPAD@Z
_TEXT	SEGMENT
_szMessage$ = -24					; size = 16
__$ArrayPad$ = -4					; size = 4
_fd$ = 8						; size = 4
_data$ = 12						; size = 4
?lssproto_S2_recv@@YAXHPAD@Z PROC			; lssproto_S2_recv, COMDAT

; 4654 : {

  00000	55		 push	 ebp
  00001	8b ec		 mov	 ebp, esp
  00003	81 ec dc 00 00
	00		 sub	 esp, 220		; 000000dcH
  00009	53		 push	 ebx
  0000a	56		 push	 esi
  0000b	57		 push	 edi
  0000c	8d bd 24 ff ff
	ff		 lea	 edi, DWORD PTR [ebp-220]
  00012	b9 37 00 00 00	 mov	 ecx, 55			; 00000037H
  00017	b8 cc cc cc cc	 mov	 eax, -858993460		; ccccccccH
  0001c	f3 ab		 rep stosd
  0001e	a1 00 00 00 00	 mov	 eax, DWORD PTR ___security_cookie
  00023	33 c5		 xor	 eax, ebp
  00025	89 45 fc	 mov	 DWORD PTR __$ArrayPad$[ebp], eax

; 4655 : 	char szMessage[16];
; 4656 : 
; 4657 : 	getStringToken(data,'|',1,sizeof(szMessage) - 1,szMessage);

  00028	8d 45 e8	 lea	 eax, DWORD PTR _szMessage$[ebp]
  0002b	50		 push	 eax
  0002c	6a 0f		 push	 15			; 0000000fH
  0002e	6a 01		 push	 1
  00030	6a 7c		 push	 124			; 0000007cH
  00032	8b 4d 0c	 mov	 ecx, DWORD PTR _data$[ebp]
  00035	51		 push	 ecx
  00036	e8 00 00 00 00	 call	 ?getStringToken@@YAHPADDHH0@Z ; getStringToken
  0003b	83 c4 14	 add	 esp, 20			; 00000014H

; 4658 : 
; 4659 : #ifdef _NEW_MANOR_LAW
; 4660 : 	if (strcmp(szMessage,"FAME") == 0){

  0003e	68 00 00 00 00	 push	 OFFSET ??_C@_04DIIKDPIA@FAME?$AA@
  00043	8d 45 e8	 lea	 eax, DWORD PTR _szMessage$[ebp]
  00046	50		 push	 eax
  00047	e8 00 00 00 00	 call	 _strcmp
  0004c	83 c4 08	 add	 esp, 8
  0004f	85 c0		 test	 eax, eax
  00051	75 31		 jne	 SHORT $LN1@lssproto_S

; 4661 : 		getStringToken(data,'|',2,sizeof(szMessage) - 1,szMessage);

  00053	8d 45 e8	 lea	 eax, DWORD PTR _szMessage$[ebp]
  00056	50		 push	 eax
  00057	6a 0f		 push	 15			; 0000000fH
  00059	6a 02		 push	 2
  0005b	6a 7c		 push	 124			; 0000007cH
  0005d	8b 4d 0c	 mov	 ecx, DWORD PTR _data$[ebp]
  00060	51		 push	 ecx
  00061	e8 00 00 00 00	 call	 ?getStringToken@@YAHPADDHH0@Z ; getStringToken
  00066	83 c4 14	 add	 esp, 20			; 00000014H

; 4662 : 		pc.fame = atoi(szMessage);

  00069	8b f4		 mov	 esi, esp
  0006b	8d 45 e8	 lea	 eax, DWORD PTR _szMessage$[ebp]
  0006e	50		 push	 eax
  0006f	ff 15 00 00 00
	00		 call	 DWORD PTR __imp__atoi
  00075	83 c4 04	 add	 esp, 4
  00078	3b f4		 cmp	 esi, esp
  0007a	e8 00 00 00 00	 call	 __RTC_CheckEsp
  0007f	a3 64 00 00 00	 mov	 DWORD PTR ?pc@@3UPC@@A+100, eax
$LN1@lssproto_S:

; 4663 : 	}
; 4664 : #endif
; 4665 : 
; 4666 : 
; 4667 : }

  00084	52		 push	 edx
  00085	8b cd		 mov	 ecx, ebp
  00087	50		 push	 eax
  00088	8d 15 00 00 00
	00		 lea	 edx, DWORD PTR $LN6@lssproto_S
  0008e	e8 00 00 00 00	 call	 @_RTC_CheckStackVars@8
  00093	58		 pop	 eax
  00094	5a		 pop	 edx
  00095	5f		 pop	 edi
  00096	5e		 pop	 esi
  00097	5b		 pop	 ebx
  00098	8b 4d fc	 mov	 ecx, DWORD PTR __$ArrayPad$[ebp]
  0009b	33 cd		 xor	 ecx, ebp
  0009d	e8 00 00 00 00	 call	 @__security_check_cookie@4
  000a2	81 c4 dc 00 00
	00		 add	 esp, 220		; 000000dcH
  000a8	3b ec		 cmp	 ebp, esp
  000aa	e8 00 00 00 00	 call	 __RTC_CheckEsp
  000af	8b e5		 mov	 esp, ebp
  000b1	5d		 pop	 ebp
  000b2	c3		 ret	 0
  000b3	90		 npad	 1
$LN6@lssproto_S:
  000b4	01 00 00 00	 DD	 1
  000b8	00 00 00 00	 DD	 $LN5@lssproto_S
$LN5@lssproto_S:
  000bc	e8 ff ff ff	 DD	 -24			; ffffffe8H
  000c0	10 00 00 00	 DD	 16			; 00000010H
  000c4	00 00 00 00	 DD	 $LN4@lssproto_S
$LN4@lssproto_S:
  000c8	73		 DB	 115			; 00000073H
  000c9	7a		 DB	 122			; 0000007aH
  000ca	4d		 DB	 77			; 0000004dH
  000cb	65		 DB	 101			; 00000065H
  000cc	73		 DB	 115			; 00000073H
  000cd	73		 DB	 115			; 00000073H
  000ce	61		 DB	 97			; 00000061H
  000cf	67		 DB	 103			; 00000067H
  000d0	65		 DB	 101			; 00000065H
  000d1	00		 DB	 0
?lssproto_S2_recv@@YAXHPAD@Z ENDP			; lssproto_S2_recv
_TEXT	ENDS
; Function compile flags: /Odtp /RTCsu /ZI
; File c:\users\administrator\desktop\????? ??\????? ??\client source code\system\netproc.cpp
;	COMDAT ?lssproto_TEACHER_SYSTEM_recv@@YAXHPAD@Z
_TEXT	SEGMENT
tv72 = -224						; size = 4
_szMessage$ = -24					; size = 16
__$ArrayPad$ = -4					; size = 4
_fd$ = 8						; size = 4
_data$ = 12						; size = 4
?lssproto_TEACHER_SYSTEM_recv@@YAXHPAD@Z PROC		; lssproto_TEACHER_SYSTEM_recv, COMDAT

; 4625 : {

  00000	55		 push	 ebp
  00001	8b ec		 mov	 ebp, esp
  00003	81 ec e0 00 00
	00		 sub	 esp, 224		; 000000e0H
  00009	53		 push	 ebx
  0000a	56		 push	 esi
  0000b	57		 push	 edi
  0000c	8d bd 20 ff ff
	ff		 lea	 edi, DWORD PTR [ebp-224]
  00012	b9 38 00 00 00	 mov	 ecx, 56			; 00000038H
  00017	b8 cc cc cc cc	 mov	 eax, -858993460		; ccccccccH
  0001c	f3 ab		 rep stosd
  0001e	a1 00 00 00 00	 mov	 eax, DWORD PTR ___security_cookie
  00023	33 c5		 xor	 eax, ebp
  00025	89 45 fc	 mov	 DWORD PTR __$ArrayPad$[ebp], eax

; 4626 : 	char szMessage[16];
; 4627 : 
; 4628 : 	getStringToken(data,'|',1,sizeof(szMessage) - 1,szMessage);

  00028	8d 45 e8	 lea	 eax, DWORD PTR _szMessage$[ebp]
  0002b	50		 push	 eax
  0002c	6a 0f		 push	 15			; 0000000fH
  0002e	6a 01		 push	 1
  00030	6a 7c		 push	 124			; 0000007cH
  00032	8b 4d 0c	 mov	 ecx, DWORD PTR _data$[ebp]
  00035	51		 push	 ecx
  00036	e8 00 00 00 00	 call	 ?getStringToken@@YAHPADDHH0@Z ; getStringToken
  0003b	83 c4 14	 add	 esp, 20			; 00000014H

; 4629 : 	switch (szMessage[0]){

  0003e	b8 01 00 00 00	 mov	 eax, 1
  00043	6b c8 00	 imul	 ecx, eax, 0
  00046	0f be 54 0d e8	 movsx	 edx, BYTE PTR _szMessage$[ebp+ecx]
  0004b	89 95 20 ff ff
	ff		 mov	 DWORD PTR tv72[ebp], edx
  00051	8b 85 20 ff ff
	ff		 mov	 eax, DWORD PTR tv72[ebp]
  00057	83 e8 41	 sub	 eax, 65			; 00000041H
  0005a	89 85 20 ff ff
	ff		 mov	 DWORD PTR tv72[ebp], eax
  00060	83 bd 20 ff ff
	ff 15		 cmp	 DWORD PTR tv72[ebp], 21	; 00000015H
  00067	77 70		 ja	 SHORT $LN1@lssproto_T
  00069	8b 8d 20 ff ff
	ff		 mov	 ecx, DWORD PTR tv72[ebp]
  0006f	0f b6 91 00 00
	00 00		 movzx	 edx, BYTE PTR $LN9@lssproto_T[ecx]
  00076	ff 24 95 00 00
	00 00		 jmp	 DWORD PTR $LN13@lssproto_T[edx*4]
$LN4@lssproto_T:

; 4630 : 		// 显示说明
; 4631 : 		case 'M':sTeacherSystemBtn = 1;break;

  0007d	b8 01 00 00 00	 mov	 eax, 1
  00082	66 a3 00 00 00
	00		 mov	 WORD PTR ?sTeacherSystemBtn@@3FA, ax ; sTeacherSystemBtn
  00088	eb 4f		 jmp	 SHORT $LN1@lssproto_T
$LN5@lssproto_T:

; 4632 : 		// 询问是否要对方当你的导师
; 4633 : 		case 'C':
; 4634 : 			sTeacherSystemBtn = 2;

  0008a	b8 02 00 00 00	 mov	 eax, 2
  0008f	66 a3 00 00 00
	00		 mov	 WORD PTR ?sTeacherSystemBtn@@3FA, ax ; sTeacherSystemBtn

; 4635 : 			TeacherSystemWndfunc(0,data);

  00095	8b 45 0c	 mov	 eax, DWORD PTR _data$[ebp]
  00098	50		 push	 eax
  00099	6a 00		 push	 0
  0009b	e8 00 00 00 00	 call	 ?TeacherSystemWndfunc@@YAXHPAD@Z ; TeacherSystemWndfunc
  000a0	83 c4 08	 add	 esp, 8

; 4636 : 			break;

  000a3	eb 34		 jmp	 SHORT $LN1@lssproto_T
$LN6@lssproto_T:

; 4637 : 		// 超过一人,询问要找谁当导师
; 4638 : 		case 'A':
; 4639 : 			sTeacherSystemBtn = 3;

  000a5	b8 03 00 00 00	 mov	 eax, 3
  000aa	66 a3 00 00 00
	00		 mov	 WORD PTR ?sTeacherSystemBtn@@3FA, ax ; sTeacherSystemBtn

; 4640 : 			TeacherSystemWndfunc(1,data);

  000b0	8b 45 0c	 mov	 eax, DWORD PTR _data$[ebp]
  000b3	50		 push	 eax
  000b4	6a 01		 push	 1
  000b6	e8 00 00 00 00	 call	 ?TeacherSystemWndfunc@@YAXHPAD@Z ; TeacherSystemWndfunc
  000bb	83 c4 08	 add	 esp, 8

; 4641 : 			break;

  000be	eb 19		 jmp	 SHORT $LN1@lssproto_T
$LN7@lssproto_T:

; 4642 : 		// 显示导师资料
; 4643 : 		case 'V':
; 4644 : 			sTeacherSystemBtn = 4;

  000c0	b8 04 00 00 00	 mov	 eax, 4
  000c5	66 a3 00 00 00
	00		 mov	 WORD PTR ?sTeacherSystemBtn@@3FA, ax ; sTeacherSystemBtn

; 4645 : 			TeacherSystemWndfunc(2,data);

  000cb	8b 45 0c	 mov	 eax, DWORD PTR _data$[ebp]
  000ce	50		 push	 eax
  000cf	6a 02		 push	 2
  000d1	e8 00 00 00 00	 call	 ?TeacherSystemWndfunc@@YAXHPAD@Z ; TeacherSystemWndfunc
  000d6	83 c4 08	 add	 esp, 8
$LN1@lssproto_T:

; 4646 : 			break;
; 4647 : 
; 4648 : 	}	
; 4649 : }

  000d9	52		 push	 edx
  000da	8b cd		 mov	 ecx, ebp
  000dc	50		 push	 eax
  000dd	8d 15 00 00 00
	00		 lea	 edx, DWORD PTR $LN12@lssproto_T
  000e3	e8 00 00 00 00	 call	 @_RTC_CheckStackVars@8
  000e8	58		 pop	 eax
  000e9	5a		 pop	 edx
  000ea	5f		 pop	 edi
  000eb	5e		 pop	 esi
  000ec	5b		 pop	 ebx
  000ed	8b 4d fc	 mov	 ecx, DWORD PTR __$ArrayPad$[ebp]
  000f0	33 cd		 xor	 ecx, ebp
  000f2	e8 00 00 00 00	 call	 @__security_check_cookie@4
  000f7	81 c4 e0 00 00
	00		 add	 esp, 224		; 000000e0H
  000fd	3b ec		 cmp	 ebp, esp
  000ff	e8 00 00 00 00	 call	 __RTC_CheckEsp
  00104	8b e5		 mov	 esp, ebp
  00106	5d		 pop	 ebp
  00107	c3		 ret	 0
$LN12@lssproto_T:
  00108	01 00 00 00	 DD	 1
  0010c	00 00 00 00	 DD	 $LN11@lssproto_T
$LN11@lssproto_T:
  00110	e8 ff ff ff	 DD	 -24			; ffffffe8H
  00114	10 00 00 00	 DD	 16			; 00000010H
  00118	00 00 00 00	 DD	 $LN10@lssproto_T
$LN10@lssproto_T:
  0011c	73		 DB	 115			; 00000073H
  0011d	7a		 DB	 122			; 0000007aH
  0011e	4d		 DB	 77			; 0000004dH
  0011f	65		 DB	 101			; 00000065H
  00120	73		 DB	 115			; 00000073H
  00121	73		 DB	 115			; 00000073H
  00122	61		 DB	 97			; 00000061H
  00123	67		 DB	 103			; 00000067H
  00124	65		 DB	 101			; 00000065H
  00125	00		 DB	 0
  00126	66 90		 npad	 2
$LN13@lssproto_T:
  00128	00 00 00 00	 DD	 $LN6@lssproto_T
  0012c	00 00 00 00	 DD	 $LN5@lssproto_T
  00130	00 00 00 00	 DD	 $LN4@lssproto_T
  00134	00 00 00 00	 DD	 $LN7@lssproto_T
  00138	00 00 00 00	 DD	 $LN1@lssproto_T
$LN9@lssproto_T:
  0013c	00		 DB	 0
  0013d	04		 DB	 4
  0013e	01		 DB	 1
  0013f	04		 DB	 4
  00140	04		 DB	 4
  00141	04		 DB	 4
  00142	04		 DB	 4
  00143	04		 DB	 4
  00144	04		 DB	 4
  00145	04		 DB	 4
  00146	04		 DB	 4
  00147	04		 DB	 4
  00148	02		 DB	 2
  00149	04		 DB	 4
  0014a	04		 DB	 4
  0014b	04		 DB	 4
  0014c	04		 DB	 4
  0014d	04		 DB	 4
  0014e	04		 DB	 4
  0014f	04		 DB	 4
  00150	04		 DB	 4
  00151	03		 DB	 3
?lssproto_TEACHER_SYSTEM_recv@@YAXHPAD@Z ENDP		; lssproto_TEACHER_SYSTEM_recv
_TEXT	ENDS
; Function compile flags: /Odtp /RTCsu /ZI
; File c:\users\administrator\desktop\????? ??\????? ??\client source code\system\netproc.cpp
;	COMDAT ?lssproto_JOBDAILY_recv@@YAXHPAD@Z
_TEXT	SEGMENT
tv87 = -932						; size = 4
$T1 = -924						; size = 4
$T2 = -912						; size = 4
$T3 = -900						; size = 4
$T4 = -888						; size = 4
_perdata$ = -492					; size = 200
_getdata$ = -284					; size = 250
_j$ = -24						; size = 4
_i$ = -12						; size = 4
__$ArrayPad$ = -4					; size = 4
_fd$ = 8						; size = 4
_data$ = 12						; size = 4
?lssproto_JOBDAILY_recv@@YAXHPAD@Z PROC			; lssproto_JOBDAILY_recv, COMDAT

; 4584 : {

  00000	55		 push	 ebp
  00001	8b ec		 mov	 ebp, esp
  00003	81 ec a4 03 00
	00		 sub	 esp, 932		; 000003a4H
  00009	53		 push	 ebx
  0000a	56		 push	 esi
  0000b	57		 push	 edi
  0000c	8d bd 5c fc ff
	ff		 lea	 edi, DWORD PTR [ebp-932]
  00012	b9 e9 00 00 00	 mov	 ecx, 233		; 000000e9H
  00017	b8 cc cc cc cc	 mov	 eax, -858993460		; ccccccccH
  0001c	f3 ab		 rep stosd
  0001e	a1 00 00 00 00	 mov	 eax, DWORD PTR ___security_cookie
  00023	33 c5		 xor	 eax, ebp
  00025	89 45 fc	 mov	 DWORD PTR __$ArrayPad$[ebp], eax

; 4585 : 	//解读资料
; 4586 : 	int  i=1,j=1;

  00028	c7 45 f4 01 00
	00 00		 mov	 DWORD PTR _i$[ebp], 1
  0002f	c7 45 e8 01 00
	00 00		 mov	 DWORD PTR _j$[ebp], 1

; 4587 : 	char getdata[250];
; 4588 : 	char perdata[200];
; 4589 : 
; 4590 : 	//StockChatBufferLine(data,FONT_PAL_RED); 
; 4591 : 
; 4592 : 	memset(jobdaily,0,sizeof(jobdaily));

  00036	68 20 fd 00 00	 push	 64800			; 0000fd20H
  0003b	6a 00		 push	 0
  0003d	68 00 00 00 00	 push	 OFFSET ?jobdaily@@3PAUJOBDAILY@@A ; jobdaily
  00042	e8 00 00 00 00	 call	 _memset
  00047	83 c4 0c	 add	 esp, 12			; 0000000cH

; 4593 : 	getdata[0] = '\0';

  0004a	b8 01 00 00 00	 mov	 eax, 1
  0004f	6b c8 00	 imul	 ecx, eax, 0
  00052	89 8d 88 fc ff
	ff		 mov	 DWORD PTR $T4[ebp], ecx
  00058	81 bd 88 fc ff
	ff fa 00 00 00	 cmp	 DWORD PTR $T4[ebp], 250	; 000000faH
  00062	73 02		 jae	 SHORT $LN15@lssproto_J
  00064	eb 05		 jmp	 SHORT $LN16@lssproto_J
$LN15@lssproto_J:
  00066	e8 00 00 00 00	 call	 ___report_rangecheckfailure
$LN16@lssproto_J:
  0006b	8b 95 88 fc ff
	ff		 mov	 edx, DWORD PTR $T4[ebp]
  00071	c6 84 15 e4 fe
	ff ff 00	 mov	 BYTE PTR _getdata$[ebp+edx], 0

; 4594 : 	perdata[0] = '\0';

  00079	b8 01 00 00 00	 mov	 eax, 1
  0007e	6b c8 00	 imul	 ecx, eax, 0
  00081	89 8d 7c fc ff
	ff		 mov	 DWORD PTR $T3[ebp], ecx
  00087	81 bd 7c fc ff
	ff c8 00 00 00	 cmp	 DWORD PTR $T3[ebp], 200	; 000000c8H
  00091	73 02		 jae	 SHORT $LN17@lssproto_J
  00093	eb 05		 jmp	 SHORT $LN18@lssproto_J
$LN17@lssproto_J:
  00095	e8 00 00 00 00	 call	 ___report_rangecheckfailure
$LN18@lssproto_J:
  0009a	8b 95 7c fc ff
	ff		 mov	 edx, DWORD PTR $T3[ebp]
  000a0	c6 84 15 14 fe
	ff ff 00	 mov	 BYTE PTR _perdata$[ebp+edx], 0
$LN2@lssproto_J:

; 4595 : 	while(getStringToken(data,'#',i,sizeof(getdata) - 1,getdata)!=1){

  000a8	8d 85 e4 fe ff
	ff		 lea	 eax, DWORD PTR _getdata$[ebp]
  000ae	50		 push	 eax
  000af	68 f9 00 00 00	 push	 249			; 000000f9H
  000b4	8b 4d f4	 mov	 ecx, DWORD PTR _i$[ebp]
  000b7	51		 push	 ecx
  000b8	6a 23		 push	 35			; 00000023H
  000ba	8b 55 0c	 mov	 edx, DWORD PTR _data$[ebp]
  000bd	52		 push	 edx
  000be	e8 00 00 00 00	 call	 ?getStringToken@@YAHPADDHH0@Z ; getStringToken
  000c3	83 c4 14	 add	 esp, 20			; 00000014H
  000c6	83 f8 01	 cmp	 eax, 1
  000c9	0f 84 57 01 00
	00		 je	 $LN3@lssproto_J
$LN4@lssproto_J:

; 4596 : 		while(getStringToken(getdata,'|',j,sizeof(perdata) - 1,perdata)!=1){

  000cf	8d 85 14 fe ff
	ff		 lea	 eax, DWORD PTR _perdata$[ebp]
  000d5	50		 push	 eax
  000d6	68 c7 00 00 00	 push	 199			; 000000c7H
  000db	8b 4d e8	 mov	 ecx, DWORD PTR _j$[ebp]
  000de	51		 push	 ecx
  000df	6a 7c		 push	 124			; 0000007cH
  000e1	8d 95 e4 fe ff
	ff		 lea	 edx, DWORD PTR _getdata$[ebp]
  000e7	52		 push	 edx
  000e8	e8 00 00 00 00	 call	 ?getStringToken@@YAHPADDHH0@Z ; getStringToken
  000ed	83 c4 14	 add	 esp, 20			; 00000014H
  000f0	83 f8 01	 cmp	 eax, 1
  000f3	0f 84 e9 00 00
	00		 je	 $LN5@lssproto_J

; 4597 : 			switch (j){

  000f9	8b 45 e8	 mov	 eax, DWORD PTR _j$[ebp]
  000fc	89 85 5c fc ff
	ff		 mov	 DWORD PTR tv87[ebp], eax
  00102	83 bd 5c fc ff
	ff 01		 cmp	 DWORD PTR tv87[ebp], 1
  00109	74 14		 je	 SHORT $LN8@lssproto_J
  0010b	83 bd 5c fc ff
	ff 02		 cmp	 DWORD PTR tv87[ebp], 2
  00112	74 38		 je	 SHORT $LN9@lssproto_J
  00114	83 bd 5c fc ff
	ff 03		 cmp	 DWORD PTR tv87[ebp], 3
  0011b	74 53		 je	 SHORT $LN10@lssproto_J
  0011d	eb 75		 jmp	 SHORT $LN11@lssproto_J
$LN8@lssproto_J:

; 4598 : 			case 1: jobdaily[i-1].JobId = atoi(perdata);break;

  0011f	8b f4		 mov	 esi, esp
  00121	8d 85 14 fe ff
	ff		 lea	 eax, DWORD PTR _perdata$[ebp]
  00127	50		 push	 eax
  00128	ff 15 00 00 00
	00		 call	 DWORD PTR __imp__atoi
  0012e	83 c4 04	 add	 esp, 4
  00131	3b f4		 cmp	 esi, esp
  00133	e8 00 00 00 00	 call	 __RTC_CheckEsp
  00138	8b 4d f4	 mov	 ecx, DWORD PTR _i$[ebp]
  0013b	83 e9 01	 sub	 ecx, 1
  0013e	69 d1 d8 00 00
	00		 imul	 edx, ecx, 216
  00144	89 82 00 00 00
	00		 mov	 DWORD PTR ?jobdaily@@3PAUJOBDAILY@@A[edx], eax
  0014a	eb 59		 jmp	 SHORT $LN6@lssproto_J
$LN9@lssproto_J:

; 4599 : 			case 2: strcpy(jobdaily[i-1].explain,perdata); break;

  0014c	8d 85 14 fe ff
	ff		 lea	 eax, DWORD PTR _perdata$[ebp]
  00152	50		 push	 eax
  00153	8b 4d f4	 mov	 ecx, DWORD PTR _i$[ebp]
  00156	83 e9 01	 sub	 ecx, 1
  00159	69 d1 d8 00 00
	00		 imul	 edx, ecx, 216
  0015f	81 c2 04 00 00
	00		 add	 edx, OFFSET ?jobdaily@@3PAUJOBDAILY@@A+4
  00165	52		 push	 edx
  00166	e8 00 00 00 00	 call	 _strcpy
  0016b	83 c4 08	 add	 esp, 8
  0016e	eb 35		 jmp	 SHORT $LN6@lssproto_J
$LN10@lssproto_J:

; 4600 : 			case 3: strcpy(jobdaily[i-1].state,perdata); break;

  00170	8d 85 14 fe ff
	ff		 lea	 eax, DWORD PTR _perdata$[ebp]
  00176	50		 push	 eax
  00177	8b 4d f4	 mov	 ecx, DWORD PTR _i$[ebp]
  0017a	83 e9 01	 sub	 ecx, 1
  0017d	69 d1 d8 00 00
	00		 imul	 edx, ecx, 216
  00183	81 c2 cc 00 00
	00		 add	 edx, OFFSET ?jobdaily@@3PAUJOBDAILY@@A+204
  00189	52		 push	 edx
  0018a	e8 00 00 00 00	 call	 _strcpy
  0018f	83 c4 08	 add	 esp, 8
  00192	eb 11		 jmp	 SHORT $LN6@lssproto_J
$LN11@lssproto_J:

; 4601 : 			default: StockChatBufferLine("每笔资料内参数有错误",FONT_PAL_RED); break;

  00194	6a 00		 push	 0
  00196	6a 06		 push	 6
  00198	68 00 00 00 00	 push	 OFFSET ??_C@_0O@PEDECIPG@?X?$NP?$DP?$DP?V?y?$DP?$DP?$DP?j?s?$DP?$DP?$AA@
  0019d	e8 00 00 00 00	 call	 ?StockChatBufferLine@@YAXPADEH@Z ; StockChatBufferLine
  001a2	83 c4 0c	 add	 esp, 12			; 0000000cH
$LN6@lssproto_J:

; 4602 : 			}
; 4603 : 			perdata[0] = '\0';

  001a5	b8 01 00 00 00	 mov	 eax, 1
  001aa	6b c8 00	 imul	 ecx, eax, 0
  001ad	89 8d 70 fc ff
	ff		 mov	 DWORD PTR $T2[ebp], ecx
  001b3	81 bd 70 fc ff
	ff c8 00 00 00	 cmp	 DWORD PTR $T2[ebp], 200	; 000000c8H
  001bd	73 02		 jae	 SHORT $LN19@lssproto_J
  001bf	eb 05		 jmp	 SHORT $LN20@lssproto_J
$LN19@lssproto_J:
  001c1	e8 00 00 00 00	 call	 ___report_rangecheckfailure
$LN20@lssproto_J:
  001c6	8b 95 70 fc ff
	ff		 mov	 edx, DWORD PTR $T2[ebp]
  001cc	c6 84 15 14 fe
	ff ff 00	 mov	 BYTE PTR _perdata$[ebp+edx], 0

; 4604 : 			j++;

  001d4	8b 45 e8	 mov	 eax, DWORD PTR _j$[ebp]
  001d7	83 c0 01	 add	 eax, 1
  001da	89 45 e8	 mov	 DWORD PTR _j$[ebp], eax

; 4605 : 		}

  001dd	e9 ed fe ff ff	 jmp	 $LN4@lssproto_J
$LN5@lssproto_J:

; 4606 : 		getdata[0] = '\0';

  001e2	b8 01 00 00 00	 mov	 eax, 1
  001e7	6b c8 00	 imul	 ecx, eax, 0
  001ea	89 8d 64 fc ff
	ff		 mov	 DWORD PTR $T1[ebp], ecx
  001f0	81 bd 64 fc ff
	ff fa 00 00 00	 cmp	 DWORD PTR $T1[ebp], 250	; 000000faH
  001fa	73 02		 jae	 SHORT $LN21@lssproto_J
  001fc	eb 05		 jmp	 SHORT $LN22@lssproto_J
$LN21@lssproto_J:
  001fe	e8 00 00 00 00	 call	 ___report_rangecheckfailure
$LN22@lssproto_J:
  00203	8b 95 64 fc ff
	ff		 mov	 edx, DWORD PTR $T1[ebp]
  00209	c6 84 15 e4 fe
	ff ff 00	 mov	 BYTE PTR _getdata$[ebp+edx], 0

; 4607 : 		j=1;

  00211	c7 45 e8 01 00
	00 00		 mov	 DWORD PTR _j$[ebp], 1

; 4608 : 		i++;

  00218	8b 45 f4	 mov	 eax, DWORD PTR _i$[ebp]
  0021b	83 c0 01	 add	 eax, 1
  0021e	89 45 f4	 mov	 DWORD PTR _i$[ebp], eax

; 4609 : 	}

  00221	e9 82 fe ff ff	 jmp	 $LN2@lssproto_J
$LN3@lssproto_J:

; 4610 : 	if (i>1){ 

  00226	83 7d f4 01	 cmp	 DWORD PTR _i$[ebp], 1
  0022a	7e 17		 jle	 SHORT $LN12@lssproto_J

; 4611 : 		JobdailyGetFlag = TRUE;

  0022c	c7 05 00 00 00
	00 01 00 00 00	 mov	 DWORD PTR ?JobdailyGetFlag@@3HA, 1 ; JobdailyGetFlag

; 4612 : 		JobdailyGetMax= i-2;

  00236	8b 45 f4	 mov	 eax, DWORD PTR _i$[ebp]
  00239	83 e8 02	 sub	 eax, 2
  0023c	a3 00 00 00 00	 mov	 DWORD PTR ?JobdailyGetMax@@3HA, eax ; JobdailyGetMax

; 4613 : 	}else{

  00241	eb 14		 jmp	 SHORT $LN14@lssproto_J
$LN12@lssproto_J:

; 4614 : 		JobdailyGetFlag = FALSE;

  00243	c7 05 00 00 00
	00 00 00 00 00	 mov	 DWORD PTR ?JobdailyGetFlag@@3HA, 0 ; JobdailyGetFlag

; 4615 : 		JobdailyGetMax = -1;

  0024d	c7 05 00 00 00
	00 ff ff ff ff	 mov	 DWORD PTR ?JobdailyGetMax@@3HA, -1 ; JobdailyGetMax
$LN14@lssproto_J:

; 4616 : 	}
; 4617 : }

  00257	52		 push	 edx
  00258	8b cd		 mov	 ecx, ebp
  0025a	50		 push	 eax
  0025b	8d 15 00 00 00
	00		 lea	 edx, DWORD PTR $LN26@lssproto_J
  00261	e8 00 00 00 00	 call	 @_RTC_CheckStackVars@8
  00266	58		 pop	 eax
  00267	5a		 pop	 edx
  00268	5f		 pop	 edi
  00269	5e		 pop	 esi
  0026a	5b		 pop	 ebx
  0026b	8b 4d fc	 mov	 ecx, DWORD PTR __$ArrayPad$[ebp]
  0026e	33 cd		 xor	 ecx, ebp
  00270	e8 00 00 00 00	 call	 @__security_check_cookie@4
  00275	81 c4 a4 03 00
	00		 add	 esp, 932		; 000003a4H
  0027b	3b ec		 cmp	 ebp, esp
  0027d	e8 00 00 00 00	 call	 __RTC_CheckEsp
  00282	8b e5		 mov	 esp, ebp
  00284	5d		 pop	 ebp
  00285	c3		 ret	 0
  00286	66 90		 npad	 2
$LN26@lssproto_J:
  00288	02 00 00 00	 DD	 2
  0028c	00 00 00 00	 DD	 $LN25@lssproto_J
$LN25@lssproto_J:
  00290	e4 fe ff ff	 DD	 -284			; fffffee4H
  00294	fa 00 00 00	 DD	 250			; 000000faH
  00298	00 00 00 00	 DD	 $LN23@lssproto_J
  0029c	14 fe ff ff	 DD	 -492			; fffffe14H
  002a0	c8 00 00 00	 DD	 200			; 000000c8H
  002a4	00 00 00 00	 DD	 $LN24@lssproto_J
$LN24@lssproto_J:
  002a8	70		 DB	 112			; 00000070H
  002a9	65		 DB	 101			; 00000065H
  002aa	72		 DB	 114			; 00000072H
  002ab	64		 DB	 100			; 00000064H
  002ac	61		 DB	 97			; 00000061H
  002ad	74		 DB	 116			; 00000074H
  002ae	61		 DB	 97			; 00000061H
  002af	00		 DB	 0
$LN23@lssproto_J:
  002b0	67		 DB	 103			; 00000067H
  002b1	65		 DB	 101			; 00000065H
  002b2	74		 DB	 116			; 00000074H
  002b3	64		 DB	 100			; 00000064H
  002b4	61		 DB	 97			; 00000061H
  002b5	74		 DB	 116			; 00000074H
  002b6	61		 DB	 97			; 00000061H
  002b7	00		 DB	 0
?lssproto_JOBDAILY_recv@@YAXHPAD@Z ENDP			; lssproto_JOBDAILY_recv
_TEXT	ENDS
; Function compile flags: /Odtp /RTCsu /ZI
; File c:\users\administrator\desktop\????? ??\????? ??\client source code\system\netproc.cpp
;	COMDAT ?lssproto_STREET_VENDOR_recv@@YAXHPAD@Z
_TEXT	SEGMENT
tv72 = -240						; size = 4
_szMessage$ = -40					; size = 32
__$ArrayPad$ = -4					; size = 4
_fd$ = 8						; size = 4
_data$ = 12						; size = 4
?lssproto_STREET_VENDOR_recv@@YAXHPAD@Z PROC		; lssproto_STREET_VENDOR_recv, COMDAT

; 4547 : {

  00000	55		 push	 ebp
  00001	8b ec		 mov	 ebp, esp
  00003	81 ec f0 00 00
	00		 sub	 esp, 240		; 000000f0H
  00009	53		 push	 ebx
  0000a	56		 push	 esi
  0000b	57		 push	 edi
  0000c	8d bd 10 ff ff
	ff		 lea	 edi, DWORD PTR [ebp-240]
  00012	b9 3c 00 00 00	 mov	 ecx, 60			; 0000003cH
  00017	b8 cc cc cc cc	 mov	 eax, -858993460		; ccccccccH
  0001c	f3 ab		 rep stosd
  0001e	a1 00 00 00 00	 mov	 eax, DWORD PTR ___security_cookie
  00023	33 c5		 xor	 eax, ebp
  00025	89 45 fc	 mov	 DWORD PTR __$ArrayPad$[ebp], eax

; 4548 : 	char szMessage[32];
; 4549 : 
; 4550 : 	getStringToken(data,'|',1,sizeof(szMessage) - 1,szMessage);

  00028	8d 45 d8	 lea	 eax, DWORD PTR _szMessage$[ebp]
  0002b	50		 push	 eax
  0002c	6a 1f		 push	 31			; 0000001fH
  0002e	6a 01		 push	 1
  00030	6a 7c		 push	 124			; 0000007cH
  00032	8b 4d 0c	 mov	 ecx, DWORD PTR _data$[ebp]
  00035	51		 push	 ecx
  00036	e8 00 00 00 00	 call	 ?getStringToken@@YAHPADDHH0@Z ; getStringToken
  0003b	83 c4 14	 add	 esp, 20			; 00000014H

; 4551 : 	switch (szMessage[0]){

  0003e	b8 01 00 00 00	 mov	 eax, 1
  00043	6b c8 00	 imul	 ecx, eax, 0
  00046	0f be 54 0d d8	 movsx	 edx, BYTE PTR _szMessage$[ebp+ecx]
  0004b	89 95 10 ff ff
	ff		 mov	 DWORD PTR tv72[ebp], edx
  00051	8b 85 10 ff ff
	ff		 mov	 eax, DWORD PTR tv72[ebp]
  00057	83 e8 42	 sub	 eax, 66			; 00000042H
  0005a	89 85 10 ff ff
	ff		 mov	 DWORD PTR tv72[ebp], eax
  00060	83 bd 10 ff ff
	ff 11		 cmp	 DWORD PTR tv72[ebp], 17	; 00000011H
  00067	77 75		 ja	 SHORT $LN1@lssproto_S
  00069	8b 8d 10 ff ff
	ff		 mov	 ecx, DWORD PTR tv72[ebp]
  0006f	0f b6 91 00 00
	00 00		 movzx	 edx, BYTE PTR $LN10@lssproto_S[ecx]
  00076	ff 24 95 00 00
	00 00		 jmp	 DWORD PTR $LN14@lssproto_S[edx*4]
$LN4@lssproto_S:

; 4552 : 		// 开新摆摊介面
; 4553 : 		case 'O':
; 4554 : 			sStreetVendorBtn = 1;

  0007d	b8 01 00 00 00	 mov	 eax, 1
  00082	66 a3 00 00 00
	00		 mov	 WORD PTR ?sStreetVendorBtn@@3FA, ax ; sStreetVendorBtn

; 4555 : 			pc.iOnStreetVendor = 1;

  00088	c7 05 b8 a1 00
	00 01 00 00 00	 mov	 DWORD PTR ?pc@@3UPC@@A+41400, 1

; 4556 : 			break;

  00092	eb 4a		 jmp	 SHORT $LN1@lssproto_S
$LN5@lssproto_S:

; 4557 : 		// 设定摆摊内容
; 4558 : 		case 'S':
; 4559 : 			sStreetVendorBtn = 3;

  00094	b8 03 00 00 00	 mov	 eax, 3
  00099	66 a3 00 00 00
	00		 mov	 WORD PTR ?sStreetVendorBtn@@3FA, ax ; sStreetVendorBtn

; 4560 : 			StreetVendorWndfunc(false,data);

  0009f	8b 45 0c	 mov	 eax, DWORD PTR _data$[ebp]
  000a2	50		 push	 eax
  000a3	6a 00		 push	 0
  000a5	e8 00 00 00 00	 call	 ?StreetVendorWndfunc@@YAX_NPAD@Z ; StreetVendorWndfunc
  000aa	83 c4 08	 add	 esp, 8

; 4561 : 			break;

  000ad	eb 2f		 jmp	 SHORT $LN1@lssproto_S
$LN6@lssproto_S:

; 4562 : 		// server送来的卖方贩卖内容
; 4563 : 		case 'B':
; 4564 : 			sStreetVendorBuyBtn = 1;

  000af	b8 01 00 00 00	 mov	 eax, 1
  000b4	66 a3 00 00 00
	00		 mov	 WORD PTR ?sStreetVendorBuyBtn@@3FA, ax ; sStreetVendorBuyBtn

; 4565 : 			StreetVendorBuyWndfunc(data);

  000ba	8b 45 0c	 mov	 eax, DWORD PTR _data$[ebp]
  000bd	50		 push	 eax
  000be	e8 00 00 00 00	 call	 ?StreetVendorBuyWndfunc@@YAXPAD@Z ; StreetVendorBuyWndfunc
  000c3	83 c4 04	 add	 esp, 4

; 4566 : 			break;

  000c6	eb 16		 jmp	 SHORT $LN1@lssproto_S
$LN7@lssproto_S:

; 4567 : 		// server 送来关闭视窗
; 4568 : 		case 'C':
; 4569 : 			sStreetVendorBuyBtn = 0;

  000c8	33 c0		 xor	 eax, eax
  000ca	66 a3 00 00 00
	00		 mov	 WORD PTR ?sStreetVendorBuyBtn@@3FA, ax ; sStreetVendorBuyBtn

; 4570 : 			break;

  000d0	eb 0c		 jmp	 SHORT $LN1@lssproto_S
$LN8@lssproto_S:

; 4571 : 		// server 送来的单笔贩卖物详细资料
; 4572 : 		case 'D':
; 4573 : 			StreetVendorBuyWndfunc(data);

  000d2	8b 45 0c	 mov	 eax, DWORD PTR _data$[ebp]
  000d5	50		 push	 eax
  000d6	e8 00 00 00 00	 call	 ?StreetVendorBuyWndfunc@@YAXPAD@Z ; StreetVendorBuyWndfunc
  000db	83 c4 04	 add	 esp, 4
$LN1@lssproto_S:

; 4574 : 			break;
; 4575 : 	}
; 4576 : }

  000de	52		 push	 edx
  000df	8b cd		 mov	 ecx, ebp
  000e1	50		 push	 eax
  000e2	8d 15 00 00 00
	00		 lea	 edx, DWORD PTR $LN13@lssproto_S
  000e8	e8 00 00 00 00	 call	 @_RTC_CheckStackVars@8
  000ed	58		 pop	 eax
  000ee	5a		 pop	 edx
  000ef	5f		 pop	 edi
  000f0	5e		 pop	 esi
  000f1	5b		 pop	 ebx
  000f2	8b 4d fc	 mov	 ecx, DWORD PTR __$ArrayPad$[ebp]
  000f5	33 cd		 xor	 ecx, ebp
  000f7	e8 00 00 00 00	 call	 @__security_check_cookie@4
  000fc	81 c4 f0 00 00
	00		 add	 esp, 240		; 000000f0H
  00102	3b ec		 cmp	 ebp, esp
  00104	e8 00 00 00 00	 call	 __RTC_CheckEsp
  00109	8b e5		 mov	 esp, ebp
  0010b	5d		 pop	 ebp
  0010c	c3		 ret	 0
  0010d	0f 1f 00	 npad	 3
$LN13@lssproto_S:
  00110	01 00 00 00	 DD	 1
  00114	00 00 00 00	 DD	 $LN12@lssproto_S
$LN12@lssproto_S:
  00118	d8 ff ff ff	 DD	 -40			; ffffffd8H
  0011c	20 00 00 00	 DD	 32			; 00000020H
  00120	00 00 00 00	 DD	 $LN11@lssproto_S
$LN11@lssproto_S:
  00124	73		 DB	 115			; 00000073H
  00125	7a		 DB	 122			; 0000007aH
  00126	4d		 DB	 77			; 0000004dH
  00127	65		 DB	 101			; 00000065H
  00128	73		 DB	 115			; 00000073H
  00129	73		 DB	 115			; 00000073H
  0012a	61		 DB	 97			; 00000061H
  0012b	67		 DB	 103			; 00000067H
  0012c	65		 DB	 101			; 00000065H
  0012d	00		 DB	 0
  0012e	66 90		 npad	 2
$LN14@lssproto_S:
  00130	00 00 00 00	 DD	 $LN6@lssproto_S
  00134	00 00 00 00	 DD	 $LN7@lssproto_S
  00138	00 00 00 00	 DD	 $LN8@lssproto_S
  0013c	00 00 00 00	 DD	 $LN4@lssproto_S
  00140	00 00 00 00	 DD	 $LN5@lssproto_S
  00144	00 00 00 00	 DD	 $LN1@lssproto_S
$LN10@lssproto_S:
  00148	00		 DB	 0
  00149	01		 DB	 1
  0014a	02		 DB	 2
  0014b	05		 DB	 5
  0014c	05		 DB	 5
  0014d	05		 DB	 5
  0014e	05		 DB	 5
  0014f	05		 DB	 5
  00150	05		 DB	 5
  00151	05		 DB	 5
  00152	05		 DB	 5
  00153	05		 DB	 5
  00154	05		 DB	 5
  00155	03		 DB	 3
  00156	05		 DB	 5
  00157	05		 DB	 5
  00158	05		 DB	 5
  00159	04		 DB	 4
?lssproto_STREET_VENDOR_recv@@YAXHPAD@Z ENDP		; lssproto_STREET_VENDOR_recv
_TEXT	ENDS
; Function compile flags: /Odtp /RTCsu /ZI
; File c:\users\administrator\desktop\????? ??\????? ??\client source code\system\netproc.cpp
;	COMDAT ?lssproto_PETST_recv@@YAXHHH@Z
_TEXT	SEGMENT
_fd$ = 8						; size = 4
_petarray$ = 12						; size = 4
_result$ = 16						; size = 4
?lssproto_PETST_recv@@YAXHHH@Z PROC			; lssproto_PETST_recv, COMDAT

; 3899 : {

  00000	55		 push	 ebp
  00001	8b ec		 mov	 ebp, esp
  00003	81 ec c0 00 00
	00		 sub	 esp, 192		; 000000c0H
  00009	53		 push	 ebx
  0000a	56		 push	 esi
  0000b	57		 push	 edi
  0000c	8d bd 40 ff ff
	ff		 lea	 edi, DWORD PTR [ebp-192]
  00012	b9 30 00 00 00	 mov	 ecx, 48			; 00000030H
  00017	b8 cc cc cc cc	 mov	 eax, -858993460		; ccccccccH
  0001c	f3 ab		 rep stosd

; 3900 : 	if ( petarray < 0 || petarray >= 5 ) return;

  0001e	83 7d 0c 00	 cmp	 DWORD PTR _petarray$[ebp], 0
  00022	7c 06		 jl	 SHORT $LN3@lssproto_P
  00024	83 7d 0c 05	 cmp	 DWORD PTR _petarray$[ebp], 5
  00028	7c 02		 jl	 SHORT $LN2@lssproto_P
$LN3@lssproto_P:
  0002a	eb 50		 jmp	 SHORT $LN1@lssproto_P
$LN2@lssproto_P:

; 3901 : 	pc.selectPetNo[ petarray] = result;

  0002c	8b 45 0c	 mov	 eax, DWORD PTR _petarray$[ebp]
  0002f	66 8b 4d 10	 mov	 cx, WORD PTR _result$[ebp]
  00033	66 89 0c 45 ac
	00 00 00	 mov	 WORD PTR ?pc@@3UPC@@A[eax*2+172], cx

; 3902 : 	BattlePetStMenCnt--;

  0003b	a1 00 00 00 00	 mov	 eax, DWORD PTR ?BattlePetStMenCnt@@3HA ; BattlePetStMenCnt
  00040	83 e8 01	 sub	 eax, 1
  00043	a3 00 00 00 00	 mov	 DWORD PTR ?BattlePetStMenCnt@@3HA, eax ; BattlePetStMenCnt

; 3903 : 	if ( BattlePetStMenCnt < 0 ) BattlePetStMenCnt = 0;

  00048	79 0a		 jns	 SHORT $LN4@lssproto_P
  0004a	c7 05 00 00 00
	00 00 00 00 00	 mov	 DWORD PTR ?BattlePetStMenCnt@@3HA, 0 ; BattlePetStMenCnt
$LN4@lssproto_P:

; 3904 : 	if ( BattlePetStMenCnt > 等待宠数量) BattlePetStMenCnt = 等待宠数量;

  00054	83 3d 00 00 00
	00 05		 cmp	 DWORD PTR ?BattlePetStMenCnt@@3HA, 5 ; BattlePetStMenCnt
  0005b	7e 0a		 jle	 SHORT $LN5@lssproto_P
  0005d	c7 05 00 00 00
	00 05 00 00 00	 mov	 DWORD PTR ?BattlePetStMenCnt@@3HA, 5 ; BattlePetStMenCnt
$LN5@lssproto_P:

; 3905 : 	if ( pc.battlePetNo == petarray )

  00067	0f bf 05 aa 00
	00 00		 movsx	 eax, WORD PTR ?pc@@3UPC@@A+170
  0006e	3b 45 0c	 cmp	 eax, DWORD PTR _petarray$[ebp]
  00071	75 09		 jne	 SHORT $LN1@lssproto_P

; 3906 : 		pc.battlePetNo = -1;

  00073	83 c8 ff	 or	 eax, -1
  00076	66 a3 aa 00 00
	00		 mov	 WORD PTR ?pc@@3UPC@@A+170, ax
$LN1@lssproto_P:

; 3907 : }

  0007c	5f		 pop	 edi
  0007d	5e		 pop	 esi
  0007e	5b		 pop	 ebx
  0007f	8b e5		 mov	 esp, ebp
  00081	5d		 pop	 ebp
  00082	c3		 ret	 0
?lssproto_PETST_recv@@YAXHHH@Z ENDP			; lssproto_PETST_recv
_TEXT	ENDS
; Function compile flags: /Odtp /RTCsu /ZI
; File c:\users\administrator\desktop\????? ??\????? ??\client source code\system\netproc.cpp
;	COMDAT ?lssproto_NC_recv@@YAXHH@Z
_TEXT	SEGMENT
_fd$ = 8						; size = 4
_flg$ = 12						; size = 4
?lssproto_NC_recv@@YAXHH@Z PROC				; lssproto_NC_recv, COMDAT

; 4449 : {  

  00000	55		 push	 ebp
  00001	8b ec		 mov	 ebp, esp
  00003	81 ec c0 00 00
	00		 sub	 esp, 192		; 000000c0H
  00009	53		 push	 ebx
  0000a	56		 push	 esi
  0000b	57		 push	 edi
  0000c	8d bd 40 ff ff
	ff		 lea	 edi, DWORD PTR [ebp-192]
  00012	b9 30 00 00 00	 mov	 ecx, 48			; 00000030H
  00017	b8 cc cc cc cc	 mov	 eax, -858993460		; ccccccccH
  0001c	f3 ab		 rep stosd

; 4450 : 	if (flg==1 )

  0001e	83 7d 0c 01	 cmp	 DWORD PTR _flg$[ebp], 1
  00022	75 0c		 jne	 SHORT $LN2@lssproto_N

; 4451 : 		NoCastFlag=TRUE;

  00024	c7 05 00 00 00
	00 01 00 00 00	 mov	 DWORD PTR ?NoCastFlag@@3HA, 1 ; NoCastFlag

; 4452 :     else 

  0002e	eb 0a		 jmp	 SHORT $LN1@lssproto_N
$LN2@lssproto_N:

; 4453 : 		NoCastFlag=FALSE;

  00030	c7 05 00 00 00
	00 00 00 00 00	 mov	 DWORD PTR ?NoCastFlag@@3HA, 0 ; NoCastFlag
$LN1@lssproto_N:

; 4454 : }

  0003a	5f		 pop	 edi
  0003b	5e		 pop	 esi
  0003c	5b		 pop	 ebx
  0003d	8b e5		 mov	 esp, ebp
  0003f	5d		 pop	 ebp
  00040	c3		 ret	 0
?lssproto_NC_recv@@YAXHH@Z ENDP				; lssproto_NC_recv
_TEXT	ENDS
; Function compile flags: /Odtp /RTCsu /ZI
; File c:\users\administrator\desktop\????? ??\????? ??\client source code\system\netproc.cpp
;	COMDAT ?lssproto_IC_recv@@YAXHHH@Z
_TEXT	SEGMENT
_fd$ = 8						; size = 4
_x$ = 12						; size = 4
_y$ = 16						; size = 4
?lssproto_IC_recv@@YAXHHH@Z PROC			; lssproto_IC_recv, COMDAT

; 4424 : {

  00000	55		 push	 ebp
  00001	8b ec		 mov	 ebp, esp
  00003	81 ec c0 00 00
	00		 sub	 esp, 192		; 000000c0H
  00009	53		 push	 ebx
  0000a	56		 push	 esi
  0000b	57		 push	 edi
  0000c	8d bd 40 ff ff
	ff		 lea	 edi, DWORD PTR [ebp-192]
  00012	b9 30 00 00 00	 mov	 ecx, 48			; 00000030H
  00017	b8 cc cc cc cc	 mov	 eax, -858993460		; ccccccccH
  0001c	f3 ab		 rep stosd

; 4425 : 	m_bt = true; setCharMind( pc.ptAct, SPR_cracker);	

  0001e	c6 05 00 00 00
	00 01		 mov	 BYTE PTR ?m_bt@@3_NA, 1	; m_bt
  00025	68 19 8c 01 00	 push	 101401			; 00018c19H
  0002a	a1 ec 50 00 00	 mov	 eax, DWORD PTR ?pc@@3UPC@@A+20716
  0002f	50		 push	 eax
  00030	e8 00 00 00 00	 call	 ?setCharMind@@YAXPAUaction@@H@Z ; setCharMind
  00035	83 c4 08	 add	 esp, 8

; 4426 : 	m_bt = false;

  00038	c6 05 00 00 00
	00 00		 mov	 BYTE PTR ?m_bt@@3_NA, 0	; m_bt

; 4427 : }

  0003f	5f		 pop	 edi
  00040	5e		 pop	 esi
  00041	5b		 pop	 ebx
  00042	81 c4 c0 00 00
	00		 add	 esp, 192		; 000000c0H
  00048	3b ec		 cmp	 ebp, esp
  0004a	e8 00 00 00 00	 call	 __RTC_CheckEsp
  0004f	8b e5		 mov	 esp, ebp
  00051	5d		 pop	 ebp
  00052	c3		 ret	 0
?lssproto_IC_recv@@YAXHHH@Z ENDP			; lssproto_IC_recv
_TEXT	ENDS
; Function compile flags: /Odtp /RTCsu /ZI
; File c:\users\administrator\desktop\????? ??\????? ??\client source code\system\netproc.cpp
;	COMDAT ?lssproto_WO_recv@@YAXHH@Z
_TEXT	SEGMENT
_fd$ = 8						; size = 4
_effect$ = 12						; size = 4
?lssproto_WO_recv@@YAXHH@Z PROC				; lssproto_WO_recv, COMDAT

; 4100 : {

  00000	55		 push	 ebp
  00001	8b ec		 mov	 ebp, esp
  00003	81 ec c0 00 00
	00		 sub	 esp, 192		; 000000c0H
  00009	53		 push	 ebx
  0000a	56		 push	 esi
  0000b	57		 push	 edi
  0000c	8d bd 40 ff ff
	ff		 lea	 edi, DWORD PTR [ebp-192]
  00012	b9 30 00 00 00	 mov	 ecx, 48			; 00000030H
  00017	b8 cc cc cc cc	 mov	 eax, -858993460		; ccccccccH
  0001c	f3 ab		 rep stosd

; 4101 : 	return;

  0001e	eb 2e		 jmp	 SHORT $LN1@lssproto_W

; 4102 : 	// ???????
; 4103 : 	if ( effect == 0 )

  00020	83 7d 0c 00	 cmp	 DWORD PTR _effect$[ebp], 0
  00024	75 28		 jne	 SHORT $LN1@lssproto_W

; 4104 : 	{
; 4105 : 		// ????????
; 4106 : 		transmigrationEffectFlag = 1;

  00026	c7 05 00 00 00
	00 01 00 00 00	 mov	 DWORD PTR ?transmigrationEffectFlag@@3HA, 1 ; transmigrationEffectFlag

; 4107 : 		// ?????????????
; 4108 : 		transEffectPaletteStatus = 1;

  00030	c7 05 00 00 00
	00 01 00 00 00	 mov	 DWORD PTR ?transEffectPaletteStatus@@3HA, 1 ; transEffectPaletteStatus

; 4109 : 		// ????????
; 4110 : 		palNo = 15;

  0003a	c7 05 00 00 00
	00 0f 00 00 00	 mov	 DWORD PTR ?palNo@@3HA, 15 ; palNo, 0000000fH

; 4111 : 		palTime = 300;

  00044	c7 05 00 00 00
	00 2c 01 00 00	 mov	 DWORD PTR ?palTime@@3HA, 300 ; palTime, 0000012cH
$LN1@lssproto_W:

; 4112 : 	}
; 4113 : }

  0004e	5f		 pop	 edi
  0004f	5e		 pop	 esi
  00050	5b		 pop	 ebx
  00051	8b e5		 mov	 esp, ebp
  00053	5d		 pop	 ebp
  00054	c3		 ret	 0
?lssproto_WO_recv@@YAXHH@Z ENDP				; lssproto_WO_recv
_TEXT	ENDS
; Function compile flags: /Odtp /RTCsu /ZI
; File c:\users\administrator\desktop\????? ??\????? ??\client source code\system\netproc.cpp
;	COMDAT ?lssproto_FM_recv@@YAXHPAD@Z
_TEXT	SEGMENT
_FMType3$ = -1560					; size = 512
_FMType2$ = -1040					; size = 512
_FMType1$ = -520					; size = 512
__$ArrayPad$ = -4					; size = 4
_fd$ = 8						; size = 4
_data$ = 12						; size = 4
?lssproto_FM_recv@@YAXHPAD@Z PROC			; lssproto_FM_recv, COMDAT

; 4186 : {

  00000	55		 push	 ebp
  00001	8b ec		 mov	 ebp, esp
  00003	81 ec 1c 09 00
	00		 sub	 esp, 2332		; 0000091cH
  00009	53		 push	 ebx
  0000a	56		 push	 esi
  0000b	57		 push	 edi
  0000c	8d bd e4 f6 ff
	ff		 lea	 edi, DWORD PTR [ebp-2332]
  00012	b9 47 02 00 00	 mov	 ecx, 583		; 00000247H
  00017	b8 cc cc cc cc	 mov	 eax, -858993460		; ccccccccH
  0001c	f3 ab		 rep stosd
  0001e	a1 00 00 00 00	 mov	 eax, DWORD PTR ___security_cookie
  00023	33 c5		 xor	 eax, ebp
  00025	89 45 fc	 mov	 DWORD PTR __$ArrayPad$[ebp], eax

; 4187 : 	char FMType1[512];
; 4188 : 	char FMType2[512];
; 4189 : 	char FMType3[512];
; 4190 : 	
; 4191 : 	getStringToken(data, '|', 1, sizeof( FMType1 ) - 1, FMType1 );

  00028	8d 85 f8 fd ff
	ff		 lea	 eax, DWORD PTR _FMType1$[ebp]
  0002e	50		 push	 eax
  0002f	68 ff 01 00 00	 push	 511			; 000001ffH
  00034	6a 01		 push	 1
  00036	6a 7c		 push	 124			; 0000007cH
  00038	8b 4d 0c	 mov	 ecx, DWORD PTR _data$[ebp]
  0003b	51		 push	 ecx
  0003c	e8 00 00 00 00	 call	 ?getStringToken@@YAHPADDHH0@Z ; getStringToken
  00041	83 c4 14	 add	 esp, 20			; 00000014H

; 4192 : 	//makeStringFromEscaped( FMType1 );
; 4193 : 	getStringToken(data, '|', 2, sizeof( FMType2 ) - 1, FMType2 );

  00044	8d 85 f0 fb ff
	ff		 lea	 eax, DWORD PTR _FMType2$[ebp]
  0004a	50		 push	 eax
  0004b	68 ff 01 00 00	 push	 511			; 000001ffH
  00050	6a 02		 push	 2
  00052	6a 7c		 push	 124			; 0000007cH
  00054	8b 4d 0c	 mov	 ecx, DWORD PTR _data$[ebp]
  00057	51		 push	 ecx
  00058	e8 00 00 00 00	 call	 ?getStringToken@@YAHPADDHH0@Z ; getStringToken
  0005d	83 c4 14	 add	 esp, 20			; 00000014H

; 4194 : 	//makeStringFromEscaped( FMType2 );
; 4195 : 
; 4196 : 	if ( strcmp(FMType1,"S") ==0 )

  00060	68 00 00 00 00	 push	 OFFSET ??_C@_01CPLAODJH@S?$AA@
  00065	8d 85 f8 fd ff
	ff		 lea	 eax, DWORD PTR _FMType1$[ebp]
  0006b	50		 push	 eax
  0006c	e8 00 00 00 00	 call	 _strcmp
  00071	83 c4 08	 add	 esp, 8
  00074	85 c0		 test	 eax, eax
  00076	75 4d		 jne	 SHORT $LN2@lssproto_F

; 4197 : 	{
; 4198 : 		if ( strcmp(FMType2,"F") ==0) // 家族列表

  00078	68 00 00 00 00	 push	 OFFSET ??_C@_01BIAFAFID@F?$AA@
  0007d	8d 85 f0 fb ff
	ff		 lea	 eax, DWORD PTR _FMType2$[ebp]
  00083	50		 push	 eax
  00084	e8 00 00 00 00	 call	 _strcmp
  00089	83 c4 08	 add	 esp, 8
  0008c	85 c0		 test	 eax, eax
  0008e	75 0c		 jne	 SHORT $LN4@lssproto_F

; 4199 : 		{
; 4200 : 			initFamilyList(data );

  00090	8b 45 0c	 mov	 eax, DWORD PTR _data$[ebp]
  00093	50		 push	 eax
  00094	e8 00 00 00 00	 call	 ?initFamilyList@@YAXPAD@Z ; initFamilyList
  00099	83 c4 04	 add	 esp, 4
$LN4@lssproto_F:

; 4201 : 
; 4202 : 		}
; 4203 : 		if ( strcmp(FMType2,"D") ==0) // 家族详细

  0009c	68 00 00 00 00	 push	 OFFSET ??_C@_01CKDDGHAB@D?$AA@
  000a1	8d 85 f0 fb ff
	ff		 lea	 eax, DWORD PTR _FMType2$[ebp]
  000a7	50		 push	 eax
  000a8	e8 00 00 00 00	 call	 _strcmp
  000ad	83 c4 08	 add	 esp, 8
  000b0	85 c0		 test	 eax, eax
  000b2	75 0c		 jne	 SHORT $LN5@lssproto_F

; 4204 : 		{
; 4205 : 			initFamilyDetail(data );

  000b4	8b 45 0c	 mov	 eax, DWORD PTR _data$[ebp]
  000b7	50		 push	 eax
  000b8	e8 00 00 00 00	 call	 ?initFamilyDetail@@YAXPAD@Z ; initFamilyDetail
  000bd	83 c4 04	 add	 esp, 4
$LN5@lssproto_F:

; 4206 : 
; 4207 : 		}
; 4208 : 
; 4209 : 	}

  000c0	e9 cb 01 00 00	 jmp	 $LN1@lssproto_F
$LN2@lssproto_F:

; 4210 : 	else if ( strcmp(FMType1,"C") ==0 )

  000c5	68 00 00 00 00	 push	 OFFSET ??_C@_01GFHCPBMG@C?$AA@
  000ca	8d 85 f8 fd ff
	ff		 lea	 eax, DWORD PTR _FMType1$[ebp]
  000d0	50		 push	 eax
  000d1	e8 00 00 00 00	 call	 _strcmp
  000d6	83 c4 08	 add	 esp, 8
  000d9	85 c0		 test	 eax, eax
  000db	0f 85 8e 00 00
	00		 jne	 $LN6@lssproto_F

; 4211 : 	{
; 4212 : 		if ( strcmp(FMType2,"J") ==0) // 加入频道

  000e1	68 00 00 00 00	 push	 OFFSET ??_C@_01LELAEKIP@J?$AA@
  000e6	8d 85 f0 fb ff
	ff		 lea	 eax, DWORD PTR _FMType2$[ebp]
  000ec	50		 push	 eax
  000ed	e8 00 00 00 00	 call	 _strcmp
  000f2	83 c4 08	 add	 esp, 8
  000f5	85 c0		 test	 eax, eax
  000f7	75 4d		 jne	 SHORT $LN8@lssproto_F

; 4213 : 		{
; 4214 : 			getStringToken(data, '|', 3, sizeof( FMType3 ) - 1, FMType3 );

  000f9	8d 85 e8 f9 ff
	ff		 lea	 eax, DWORD PTR _FMType3$[ebp]
  000ff	50		 push	 eax
  00100	68 ff 01 00 00	 push	 511			; 000001ffH
  00105	6a 03		 push	 3
  00107	6a 7c		 push	 124			; 0000007cH
  00109	8b 4d 0c	 mov	 ecx, DWORD PTR _data$[ebp]
  0010c	51		 push	 ecx
  0010d	e8 00 00 00 00	 call	 ?getStringToken@@YAHPADDHH0@Z ; getStringToken
  00112	83 c4 14	 add	 esp, 20			; 00000014H

; 4215 : 			pc.channel = atoi( FMType3 );

  00115	8b f4		 mov	 esi, esp
  00117	8d 85 e8 f9 ff
	ff		 lea	 eax, DWORD PTR _FMType3$[ebp]
  0011d	50		 push	 eax
  0011e	ff 15 00 00 00
	00		 call	 DWORD PTR __imp__atoi
  00124	83 c4 04	 add	 esp, 4
  00127	3b f4		 cmp	 esi, esp
  00129	e8 00 00 00 00	 call	 __RTC_CheckEsp
  0012e	a3 0c 51 00 00	 mov	 DWORD PTR ?pc@@3UPC@@A+20748, eax

; 4216 : 			if ( pc.channel != -1 )

  00133	83 3d 0c 51 00
	00 ff		 cmp	 DWORD PTR ?pc@@3UPC@@A+20748, -1
  0013a	74 0a		 je	 SHORT $LN8@lssproto_F

; 4217 : 				pc.quickChannel = pc.channel;

  0013c	a1 0c 51 00 00	 mov	 eax, DWORD PTR ?pc@@3UPC@@A+20748
  00141	a3 10 51 00 00	 mov	 DWORD PTR ?pc@@3UPC@@A+20752, eax
$LN8@lssproto_F:

; 4218 : 		}
; 4219 : 		if ( strcmp(FMType2,"L") ==0) // 频道列表

  00146	68 00 00 00 00	 push	 OFFSET ??_C@_01OCOKONAJ@L?$AA@
  0014b	8d 85 f0 fb ff
	ff		 lea	 eax, DWORD PTR _FMType2$[ebp]
  00151	50		 push	 eax
  00152	e8 00 00 00 00	 call	 _strcmp
  00157	83 c4 08	 add	 esp, 8
  0015a	85 c0		 test	 eax, eax
  0015c	75 0c		 jne	 SHORT $LN10@lssproto_F

; 4220 : 		{
; 4221 : 			initJoinChannel2WN(data );

  0015e	8b 45 0c	 mov	 eax, DWORD PTR _data$[ebp]
  00161	50		 push	 eax
  00162	e8 00 00 00 00	 call	 ?initJoinChannel2WN@@YAXPAD@Z ; initJoinChannel2WN
  00167	83 c4 04	 add	 esp, 4
$LN10@lssproto_F:

; 4222 : 
; 4223 : 		}
; 4224 : 	}

  0016a	e9 21 01 00 00	 jmp	 $LN1@lssproto_F
$LN6@lssproto_F:

; 4225 : 	else if ( strcmp(FMType1,"B") ==0 )

  0016f	68 00 00 00 00	 push	 OFFSET ??_C@_01HMGJMAIH@B?$AA@
  00174	8d 85 f8 fd ff
	ff		 lea	 eax, DWORD PTR _FMType1$[ebp]
  0017a	50		 push	 eax
  0017b	e8 00 00 00 00	 call	 _strcmp
  00180	83 c4 08	 add	 esp, 8
  00183	85 c0		 test	 eax, eax
  00185	75 61		 jne	 SHORT $LN11@lssproto_F

; 4226 : 	{
; 4227 : 
; 4228 : 		//MenuToggleFlag = JOY_CTRL_B;
; 4229 : 		if ( strcmp(FMType2,"G") ==0)

  00187	68 00 00 00 00	 push	 OFFSET ??_C@_01BBODEMC@G?$AA@
  0018c	8d 85 f0 fb ff
	ff		 lea	 eax, DWORD PTR _FMType2$[ebp]
  00192	50		 push	 eax
  00193	e8 00 00 00 00	 call	 _strcmp
  00198	83 c4 08	 add	 esp, 8
  0019b	85 c0		 test	 eax, eax
  0019d	75 0c		 jne	 SHORT $LN13@lssproto_F

; 4230 : 		{
; 4231 : 			//getStringToken(data, '|', 3, sizeof( FMType3 ) - 1, FMType3 );
; 4232 : 			BankmanInit(data );

  0019f	8b 45 0c	 mov	 eax, DWORD PTR _data$[ebp]
  001a2	50		 push	 eax
  001a3	e8 00 00 00 00	 call	 ?BankmanInit@@YAXPAD@Z	; BankmanInit
  001a8	83 c4 04	 add	 esp, 4
$LN13@lssproto_F:

; 4233 : 		}
; 4234 : 		if ( strcmp(FMType2,"I") ==0)

  001ab	68 00 00 00 00	 push	 OFFSET ??_C@_01JPJNBJEM@I?$AA@
  001b0	8d 85 f0 fb ff
	ff		 lea	 eax, DWORD PTR _FMType2$[ebp]
  001b6	50		 push	 eax
  001b7	e8 00 00 00 00	 call	 _strcmp
  001bc	83 c4 08	 add	 esp, 8

; 4235 : 		{
; 4236 : 			//getStringToken(data, '|', 3, sizeof( FMType3 ) - 1, FMType3 );
; 4237 : 			//ItemmanInit(data );
; 4238 : 			//initItemman(data );
; 4239 : 		}
; 4240 : 		if ( strcmp(FMType2,"T") ==0)

  001bf	68 00 00 00 00	 push	 OFFSET ??_C@_01GAPBHFFA@T?$AA@
  001c4	8d 85 f0 fb ff
	ff		 lea	 eax, DWORD PTR _FMType2$[ebp]
  001ca	50		 push	 eax
  001cb	e8 00 00 00 00	 call	 _strcmp
  001d0	83 c4 08	 add	 esp, 8
  001d3	85 c0		 test	 eax, eax
  001d5	75 0c		 jne	 SHORT $LN15@lssproto_F

; 4241 : 		{
; 4242 : 			initFamilyTaxWN(data );

  001d7	8b 45 0c	 mov	 eax, DWORD PTR _data$[ebp]
  001da	50		 push	 eax
  001db	e8 00 00 00 00	 call	 ?initFamilyTaxWN@@YAXPAD@Z ; initFamilyTaxWN
  001e0	83 c4 04	 add	 esp, 4
$LN15@lssproto_F:

; 4243 : 		}
; 4244 : 
; 4245 : 
; 4246 : 	}

  001e3	e9 a8 00 00 00	 jmp	 $LN1@lssproto_F
$LN11@lssproto_F:

; 4247 : 	else if ( strcmp(FMType1,"R") ==0 )

  001e8	68 00 00 00 00	 push	 OFFSET ??_C@_01DGKLNCNG@R?$AA@
  001ed	8d 85 f8 fd ff
	ff		 lea	 eax, DWORD PTR _FMType1$[ebp]
  001f3	50		 push	 eax
  001f4	e8 00 00 00 00	 call	 _strcmp
  001f9	83 c4 08	 add	 esp, 8
  001fc	85 c0		 test	 eax, eax
  001fe	75 54		 jne	 SHORT $LN16@lssproto_F

; 4248 : 	{
; 4249 : 		if ( strcmp(FMType2,"P") ==0) // ride Pet

  00200	68 00 00 00 00	 push	 OFFSET ??_C@_01EJNLAFE@P?$AA@
  00205	8d 85 f0 fb ff
	ff		 lea	 eax, DWORD PTR _FMType2$[ebp]
  0020b	50		 push	 eax
  0020c	e8 00 00 00 00	 call	 _strcmp
  00211	83 c4 08	 add	 esp, 8
  00214	85 c0		 test	 eax, eax
  00216	75 3a		 jne	 SHORT $LN18@lssproto_F

; 4250 : 		{
; 4251 : 			//initFamilyList(data );
; 4252 : 			getStringToken(data, '|', 3, sizeof( FMType3 ) - 1, FMType3 );

  00218	8d 85 e8 f9 ff
	ff		 lea	 eax, DWORD PTR _FMType3$[ebp]
  0021e	50		 push	 eax
  0021f	68 ff 01 00 00	 push	 511			; 000001ffH
  00224	6a 03		 push	 3
  00226	6a 7c		 push	 124			; 0000007cH
  00228	8b 4d 0c	 mov	 ecx, DWORD PTR _data$[ebp]
  0022b	51		 push	 ecx
  0022c	e8 00 00 00 00	 call	 ?getStringToken@@YAHPADDHH0@Z ; getStringToken
  00231	83 c4 14	 add	 esp, 20			; 00000014H

; 4253 : 			pc.ridePetNo = atoi( FMType3 );

  00234	8b f4		 mov	 esi, esp
  00236	8d 85 e8 f9 ff
	ff		 lea	 eax, DWORD PTR _FMType3$[ebp]
  0023c	50		 push	 eax
  0023d	ff 15 00 00 00
	00		 call	 DWORD PTR __imp__atoi
  00243	83 c4 04	 add	 esp, 4
  00246	3b f4		 cmp	 esi, esp
  00248	e8 00 00 00 00	 call	 __RTC_CheckEsp
  0024d	a3 18 51 00 00	 mov	 DWORD PTR ?pc@@3UPC@@A+20760, eax
$LN18@lssproto_F:

; 4254 : 
; 4255 : 		}
; 4256 : 
; 4257 : 	}

  00252	eb 3c		 jmp	 SHORT $LN1@lssproto_F
$LN16@lssproto_F:

; 4258 : 	else if ( strcmp(FMType1,"L") ==0 )	// 族长功能

  00254	68 00 00 00 00	 push	 OFFSET ??_C@_01OCOKONAJ@L?$AA@
  00259	8d 85 f8 fd ff
	ff		 lea	 eax, DWORD PTR _FMType1$[ebp]
  0025f	50		 push	 eax
  00260	e8 00 00 00 00	 call	 _strcmp
  00265	83 c4 08	 add	 esp, 8
  00268	85 c0		 test	 eax, eax
  0026a	75 24		 jne	 SHORT $LN1@lssproto_F

; 4259 : 	{
; 4260 : 		if ( strcmp(FMType2,"CHANGE") ==0)

  0026c	68 00 00 00 00	 push	 OFFSET ??_C@_06BCPILJJG@CHANGE?$AA@
  00271	8d 85 f0 fb ff
	ff		 lea	 eax, DWORD PTR _FMType2$[ebp]
  00277	50		 push	 eax
  00278	e8 00 00 00 00	 call	 _strcmp
  0027d	83 c4 08	 add	 esp, 8
  00280	85 c0		 test	 eax, eax
  00282	75 0c		 jne	 SHORT $LN1@lssproto_F

; 4261 : 		{
; 4262 : 			initFamilyLeaderChange(data );

  00284	8b 45 0c	 mov	 eax, DWORD PTR _data$[ebp]
  00287	50		 push	 eax
  00288	e8 00 00 00 00	 call	 ?initFamilyLeaderChange@@YAXPAD@Z ; initFamilyLeaderChange
  0028d	83 c4 04	 add	 esp, 4
$LN1@lssproto_F:

; 4263 : 		}
; 4264 : 	}
; 4265 : 
; 4266 : }

  00290	52		 push	 edx
  00291	8b cd		 mov	 ecx, ebp
  00293	50		 push	 eax
  00294	8d 15 00 00 00
	00		 lea	 edx, DWORD PTR $LN26@lssproto_F
  0029a	e8 00 00 00 00	 call	 @_RTC_CheckStackVars@8
  0029f	58		 pop	 eax
  002a0	5a		 pop	 edx
  002a1	5f		 pop	 edi
  002a2	5e		 pop	 esi
  002a3	5b		 pop	 ebx
  002a4	8b 4d fc	 mov	 ecx, DWORD PTR __$ArrayPad$[ebp]
  002a7	33 cd		 xor	 ecx, ebp
  002a9	e8 00 00 00 00	 call	 @__security_check_cookie@4
  002ae	81 c4 1c 09 00
	00		 add	 esp, 2332		; 0000091cH
  002b4	3b ec		 cmp	 ebp, esp
  002b6	e8 00 00 00 00	 call	 __RTC_CheckEsp
  002bb	8b e5		 mov	 esp, ebp
  002bd	5d		 pop	 ebp
  002be	c3		 ret	 0
  002bf	90		 npad	 1
$LN26@lssproto_F:
  002c0	03 00 00 00	 DD	 3
  002c4	00 00 00 00	 DD	 $LN25@lssproto_F
$LN25@lssproto_F:
  002c8	f8 fd ff ff	 DD	 -520			; fffffdf8H
  002cc	00 02 00 00	 DD	 512			; 00000200H
  002d0	00 00 00 00	 DD	 $LN22@lssproto_F
  002d4	f0 fb ff ff	 DD	 -1040			; fffffbf0H
  002d8	00 02 00 00	 DD	 512			; 00000200H
  002dc	00 00 00 00	 DD	 $LN23@lssproto_F
  002e0	e8 f9 ff ff	 DD	 -1560			; fffff9e8H
  002e4	00 02 00 00	 DD	 512			; 00000200H
  002e8	00 00 00 00	 DD	 $LN24@lssproto_F
$LN24@lssproto_F:
  002ec	46		 DB	 70			; 00000046H
  002ed	4d		 DB	 77			; 0000004dH
  002ee	54		 DB	 84			; 00000054H
  002ef	79		 DB	 121			; 00000079H
  002f0	70		 DB	 112			; 00000070H
  002f1	65		 DB	 101			; 00000065H
  002f2	33		 DB	 51			; 00000033H
  002f3	00		 DB	 0
$LN23@lssproto_F:
  002f4	46		 DB	 70			; 00000046H
  002f5	4d		 DB	 77			; 0000004dH
  002f6	54		 DB	 84			; 00000054H
  002f7	79		 DB	 121			; 00000079H
  002f8	70		 DB	 112			; 00000070H
  002f9	65		 DB	 101			; 00000065H
  002fa	32		 DB	 50			; 00000032H
  002fb	00		 DB	 0
$LN22@lssproto_F:
  002fc	46		 DB	 70			; 00000046H
  002fd	4d		 DB	 77			; 0000004dH
  002fe	54		 DB	 84			; 00000054H
  002ff	79		 DB	 121			; 00000079H
  00300	70		 DB	 112			; 00000070H
  00301	65		 DB	 101			; 00000065H
  00302	31		 DB	 49			; 00000031H
  00303	00		 DB	 0
?lssproto_FM_recv@@YAXHPAD@Z ENDP			; lssproto_FM_recv
_TEXT	ENDS
; Function compile flags: /Odtp /RTCsu /ZI
; File c:\users\administrator\desktop\????? ??\????? ??\client source code\system\netproc.cpp
;	COMDAT ?lssproto_NU_recv@@YAXHH@Z
_TEXT	SEGMENT
_fd$ = 8						; size = 4
_AddCount$ = 12						; size = 4
?lssproto_NU_recv@@YAXHH@Z PROC				; lssproto_NU_recv, COMDAT

; 4132 : {

  00000	55		 push	 ebp
  00001	8b ec		 mov	 ebp, esp
  00003	81 ec c0 00 00
	00		 sub	 esp, 192		; 000000c0H
  00009	53		 push	 ebx
  0000a	56		 push	 esi
  0000b	57		 push	 edi
  0000c	8d bd 40 ff ff
	ff		 lea	 edi, DWORD PTR [ebp-192]
  00012	b9 30 00 00 00	 mov	 ecx, 48			; 00000030H
  00017	b8 cc cc cc cc	 mov	 eax, -858993460		; ccccccccH
  0001c	f3 ab		 rep stosd

; 4133 : 	//JL 2016.11.13  90号包，走路步数
; 4134 : 	return;

  0001e	eb 22		 jmp	 SHORT $LN1@lssproto_N

; 4135 : 
; 4136 : 
; 4137 : 	if ( AddCount < 0 )

  00020	83 7d 0c 00	 cmp	 DWORD PTR _AddCount$[ebp], 0
  00024	7d 0f		 jge	 SHORT $LN2@lssproto_N

; 4138 : 		SendCount += AddCount;

  00026	a1 00 00 00 00	 mov	 eax, DWORD PTR ?SendCount@@3HA ; SendCount
  0002b	03 45 0c	 add	 eax, DWORD PTR _AddCount$[ebp]
  0002e	a3 00 00 00 00	 mov	 DWORD PTR ?SendCount@@3HA, eax ; SendCount

; 4139 : 	else

  00033	eb 0d		 jmp	 SHORT $LN1@lssproto_N
$LN2@lssproto_N:

; 4140 : 		SendCount += AddCount;

  00035	a1 00 00 00 00	 mov	 eax, DWORD PTR ?SendCount@@3HA ; SendCount
  0003a	03 45 0c	 add	 eax, DWORD PTR _AddCount$[ebp]
  0003d	a3 00 00 00 00	 mov	 DWORD PTR ?SendCount@@3HA, eax ; SendCount
$LN1@lssproto_N:

; 4141 : }

  00042	5f		 pop	 edi
  00043	5e		 pop	 esi
  00044	5b		 pop	 ebx
  00045	8b e5		 mov	 esp, ebp
  00047	5d		 pop	 ebp
  00048	c3		 ret	 0
?lssproto_NU_recv@@YAXHH@Z ENDP				; lssproto_NU_recv
_TEXT	ENDS
; Function compile flags: /Odtp /RTCsu /ZI
; File c:\users\administrator\desktop\????? ??\????? ??\client source code\system\netproc.cpp
;	COMDAT ?lssproto_Echo_recv@@YAXHPAD@Z
_TEXT	SEGMENT
_fd$ = 8						; size = 4
_test$ = 12						; size = 4
?lssproto_Echo_recv@@YAXHPAD@Z PROC			; lssproto_Echo_recv, COMDAT

; 4117 : {

  00000	55		 push	 ebp
  00001	8b ec		 mov	 ebp, esp
  00003	81 ec c0 00 00
	00		 sub	 esp, 192		; 000000c0H
  00009	53		 push	 ebx
  0000a	56		 push	 esi
  0000b	57		 push	 edi
  0000c	8d bd 40 ff ff
	ff		 lea	 edi, DWORD PTR [ebp-192]
  00012	b9 30 00 00 00	 mov	 ecx, 48			; 00000030H
  00017	b8 cc cc cc cc	 mov	 eax, -858993460		; ccccccccH
  0001c	f3 ab		 rep stosd

; 4118 : #if 1
; 4119 : #ifdef  _STONDEBUG__MSG
; 4120 : 
; 4121 : 	// ???T??瑗x
; 4122 : 	time( &serverAliveLongTime );
; 4123 : 	serverAliveTime = localtime( &serverAliveLongTime );
; 4124 : 
; 4125 : #endif
; 4126 : #endif
; 4127 : }

  0001e	5f		 pop	 edi
  0001f	5e		 pop	 esi
  00020	5b		 pop	 ebx
  00021	8b e5		 mov	 esp, ebp
  00023	5d		 pop	 ebp
  00024	c3		 ret	 0
?lssproto_Echo_recv@@YAXHPAD@Z ENDP			; lssproto_Echo_recv
_TEXT	ENDS
; Function compile flags: /Odtp /RTCsu /ZI
; File c:\users\administrator\desktop\????? ??\????? ??\client source code\system\netproc.cpp
;	COMDAT ?lssproto_PlayerNumGet_recv@@YAXHHH@Z
_TEXT	SEGMENT
_fd$ = 8						; size = 4
_logincount$ = 12					; size = 4
_player$ = 16						; size = 4
?lssproto_PlayerNumGet_recv@@YAXHHH@Z PROC		; lssproto_PlayerNumGet_recv, COMDAT

; 4146 : {

  00000	55		 push	 ebp
  00001	8b ec		 mov	 ebp, esp
  00003	81 ec c0 00 00
	00		 sub	 esp, 192		; 000000c0H
  00009	53		 push	 ebx
  0000a	56		 push	 esi
  0000b	57		 push	 edi
  0000c	8d bd 40 ff ff
	ff		 lea	 edi, DWORD PTR [ebp-192]
  00012	b9 30 00 00 00	 mov	 ecx, 48			; 00000030H
  00017	b8 cc cc cc cc	 mov	 eax, -858993460		; ccccccccH
  0001c	f3 ab		 rep stosd

; 4147 : }

  0001e	5f		 pop	 edi
  0001f	5e		 pop	 esi
  00020	5b		 pop	 ebx
  00021	8b e5		 mov	 esp, ebp
  00023	5d		 pop	 ebp
  00024	c3		 ret	 0
?lssproto_PlayerNumGet_recv@@YAXHHH@Z ENDP		; lssproto_PlayerNumGet_recv
_TEXT	ENDS
; Function compile flags: /Odtp /RTCsu /ZI
; File c:\users\administrator\desktop\????? ??\????? ??\client source code\system\netproc.cpp
;	COMDAT ?lssproto_ProcGet_recv@@YAXHPAD@Z
_TEXT	SEGMENT
_fd$ = 8						; size = 4
_data$ = 12						; size = 4
?lssproto_ProcGet_recv@@YAXHPAD@Z PROC			; lssproto_ProcGet_recv, COMDAT

; 4151 : {

  00000	55		 push	 ebp
  00001	8b ec		 mov	 ebp, esp
  00003	81 ec c0 00 00
	00		 sub	 esp, 192		; 000000c0H
  00009	53		 push	 ebx
  0000a	56		 push	 esi
  0000b	57		 push	 edi
  0000c	8d bd 40 ff ff
	ff		 lea	 edi, DWORD PTR [ebp-192]
  00012	b9 30 00 00 00	 mov	 ecx, 48			; 00000030H
  00017	b8 cc cc cc cc	 mov	 eax, -858993460		; ccccccccH
  0001c	f3 ab		 rep stosd

; 4152 : }

  0001e	5f		 pop	 edi
  0001f	5e		 pop	 esi
  00020	5b		 pop	 ebx
  00021	8b e5		 mov	 esp, ebp
  00023	5d		 pop	 ebp
  00024	c3		 ret	 0
?lssproto_ProcGet_recv@@YAXHPAD@Z ENDP			; lssproto_ProcGet_recv
_TEXT	ENDS
; Function compile flags: /Odtp /RTCsu /ZI
; File c:\users\administrator\desktop\????? ??\????? ??\client source code\system\netproc.cpp
;	COMDAT ?lssproto_CharLogout_recv@@YAXHPAD0@Z
_TEXT	SEGMENT
_fd$ = 8						; size = 4
_result$ = 12						; size = 4
_data$ = 16						; size = 4
?lssproto_CharLogout_recv@@YAXHPAD0@Z PROC		; lssproto_CharLogout_recv, COMDAT

; 853  : {

  00000	55		 push	 ebp
  00001	8b ec		 mov	 ebp, esp
  00003	81 ec c0 00 00
	00		 sub	 esp, 192		; 000000c0H
  00009	53		 push	 ebx
  0000a	56		 push	 esi
  0000b	57		 push	 edi
  0000c	8d bd 40 ff ff
	ff		 lea	 edi, DWORD PTR [ebp-192]
  00012	b9 30 00 00 00	 mov	 ecx, 48			; 00000030H
  00017	b8 cc cc cc cc	 mov	 eax, -858993460		; ccccccccH
  0001c	f3 ab		 rep stosd

; 854  : 	if (netproc_sending == NETPROC_SENDING)

  0001e	83 3d 00 00 00
	00 01		 cmp	 DWORD PTR ?netproc_sending@@3HA, 1 ; netproc_sending
  00025	75 2a		 jne	 SHORT $LN1@lssproto_C

; 855  : 	{
; 856  : 		netproc_sending = NETPROC_RECEIVED;

  00027	c7 05 00 00 00
	00 02 00 00 00	 mov	 DWORD PTR ?netproc_sending@@3HA, 2 ; netproc_sending

; 857  : 		if (strcmp(result, SUCCESSFULSTR) == 0)

  00031	68 00 00 00 00	 push	 OFFSET ??_C@_0L@LHCHIOPJ@successful?$AA@
  00036	8b 45 0c	 mov	 eax, DWORD PTR _result$[ebp]
  00039	50		 push	 eax
  0003a	e8 00 00 00 00	 call	 _strcmp
  0003f	83 c4 08	 add	 esp, 8
  00042	85 c0		 test	 eax, eax
  00044	75 0b		 jne	 SHORT $LN1@lssproto_C

; 858  : 			charLogoutStatus = 1;

  00046	b8 01 00 00 00	 mov	 eax, 1
  0004b	66 a3 00 00 00
	00		 mov	 WORD PTR ?charLogoutStatus@@3FA, ax ; charLogoutStatus
$LN1@lssproto_C:

; 859  : 	}
; 860  : }

  00051	5f		 pop	 edi
  00052	5e		 pop	 esi
  00053	5b		 pop	 ebx
  00054	81 c4 c0 00 00
	00		 add	 esp, 192		; 000000c0H
  0005a	3b ec		 cmp	 ebp, esp
  0005c	e8 00 00 00 00	 call	 __RTC_CheckEsp
  00061	8b e5		 mov	 esp, ebp
  00063	5d		 pop	 ebp
  00064	c3		 ret	 0
?lssproto_CharLogout_recv@@YAXHPAD0@Z ENDP		; lssproto_CharLogout_recv
_TEXT	ENDS
; Function compile flags: /Odtp /RTCsu /ZI
; File c:\users\administrator\desktop\????? ??\????? ??\client source code\system\netproc.cpp
;	COMDAT ?lssproto_CharList_recv@@YAXHPAD0@Z
_TEXT	SEGMENT
_i$1 = -2076						; size = 4
_opt$2 = -2064						; size = 1024
_nm$3 = -1032						; size = 1024
__$ArrayPad$ = -4					; size = 4
_fd$ = 8						; size = 4
_result$ = 12						; size = 4
_data$ = 16						; size = 4
?lssproto_CharList_recv@@YAXHPAD0@Z PROC		; lssproto_CharList_recv, COMDAT

; 696  : void lssproto_CharList_recv(int fd, char *result, char *data){

  00000	55		 push	 ebp
  00001	8b ec		 mov	 ebp, esp
  00003	81 ec e0 0b 00
	00		 sub	 esp, 3040		; 00000be0H
  00009	53		 push	 ebx
  0000a	56		 push	 esi
  0000b	57		 push	 edi
  0000c	8d bd 20 f4 ff
	ff		 lea	 edi, DWORD PTR [ebp-3040]
  00012	b9 f8 02 00 00	 mov	 ecx, 760		; 000002f8H
  00017	b8 cc cc cc cc	 mov	 eax, -858993460		; ccccccccH
  0001c	f3 ab		 rep stosd
  0001e	a1 00 00 00 00	 mov	 eax, DWORD PTR ___security_cookie
  00023	33 c5		 xor	 eax, ebp
  00025	89 45 fc	 mov	 DWORD PTR __$ArrayPad$[ebp], eax

; 697  : 
; 698  : 	if(strcmp(result,"failed")==0) {

  00028	68 00 00 00 00	 push	 OFFSET ??_C@_06ODACHPEO@failed?$AA@
  0002d	8b 45 0c	 mov	 eax, DWORD PTR _result$[ebp]
  00030	50		 push	 eax
  00031	e8 00 00 00 00	 call	 _strcmp
  00036	83 c4 08	 add	 esp, 8
  00039	85 c0		 test	 eax, eax
  0003b	75 0f		 jne	 SHORT $LN5@lssproto_C

; 699  : #ifdef _NB_断线自动重连
; 700  : 		PcLanded.登陆延时时间 = TimeGetTime()+2000;

  0003d	e8 00 00 00 00	 call	 ?TimeGetTime@@YAIXZ	; TimeGetTime
  00042	05 d0 07 00 00	 add	 eax, 2000		; 000007d0H
  00047	a3 9c 00 00 00	 mov	 DWORD PTR ?PcLanded@@3ULanded@@A+156, eax
$LN5@lssproto_C:

; 701  : #endif
; 702  : 	}
; 703  : 	if (netproc_sending == NETPROC_SENDING){

  0004c	83 3d 00 00 00
	00 01		 cmp	 DWORD PTR ?netproc_sending@@3HA, 1 ; netproc_sending
  00053	0f 85 44 01 00
	00		 jne	 $LN1@lssproto_C

; 704  : 		char nm[1024], opt[1024];
; 705  : 		int i;
; 706  : 		netproc_sending = NETPROC_RECEIVED;

  00059	c7 05 00 00 00
	00 02 00 00 00	 mov	 DWORD PTR ?netproc_sending@@3HA, 2 ; netproc_sending

; 707  : 		if (strcmp(result, SUCCESSFULSTR) != 0){

  00063	68 00 00 00 00	 push	 OFFSET ??_C@_0L@LHCHIOPJ@successful?$AA@
  00068	8b 45 0c	 mov	 eax, DWORD PTR _result$[ebp]
  0006b	50		 push	 eax
  0006c	e8 00 00 00 00	 call	 _strcmp
  00071	83 c4 08	 add	 esp, 8
  00074	85 c0		 test	 eax, eax
  00076	74 65		 je	 SHORT $LN7@lssproto_C

; 708  : 			if (strcmp(data, "OUTOFSERVICE") == 0)

  00078	68 00 00 00 00	 push	 OFFSET ??_C@_0N@OGLBPKPL@OUTOFSERVICE?$AA@
  0007d	8b 45 10	 mov	 eax, DWORD PTR _data$[ebp]
  00080	50		 push	 eax
  00081	e8 00 00 00 00	 call	 _strcmp
  00086	83 c4 08	 add	 esp, 8
  00089	85 c0		 test	 eax, eax
  0008b	75 0b		 jne	 SHORT $LN8@lssproto_C

; 709  : 				charListStatus = 2;

  0008d	b8 02 00 00 00	 mov	 eax, 2
  00092	66 a3 00 00 00
	00		 mov	 WORD PTR ?charListStatus@@3FA, ax ; charListStatus
$LN8@lssproto_C:

; 710  : #ifdef _CHANGEGALAXY
; 711  : 			if (strcmp(data, "CHANGE_GALAXY") == 0)

  00098	68 00 00 00 00	 push	 OFFSET ??_C@_0O@ENFKOFGC@CHANGE_GALAXY?$AA@
  0009d	8b 45 10	 mov	 eax, DWORD PTR _data$[ebp]
  000a0	50		 push	 eax
  000a1	e8 00 00 00 00	 call	 _strcmp
  000a6	83 c4 08	 add	 esp, 8
  000a9	85 c0		 test	 eax, eax
  000ab	75 0b		 jne	 SHORT $LN9@lssproto_C

; 712  : 				charListStatus = 3;

  000ad	b8 03 00 00 00	 mov	 eax, 3
  000b2	66 a3 00 00 00
	00		 mov	 WORD PTR ?charListStatus@@3FA, ax ; charListStatus
$LN9@lssproto_C:

; 713  : #endif
; 714  : #ifdef _ERROR301
; 715  : 			if (strcmp(data, "301") == 0)

  000b8	68 00 00 00 00	 push	 OFFSET ??_C@_03NOBDJFIO@301?$AA@
  000bd	8b 45 10	 mov	 eax, DWORD PTR _data$[ebp]
  000c0	50		 push	 eax
  000c1	e8 00 00 00 00	 call	 _strcmp
  000c6	83 c4 08	 add	 esp, 8
  000c9	85 c0		 test	 eax, eax
  000cb	75 0b		 jne	 SHORT $LN10@lssproto_C

; 716  : 				charListStatus = 4;

  000cd	b8 04 00 00 00	 mov	 eax, 4
  000d2	66 a3 00 00 00
	00		 mov	 WORD PTR ?charListStatus@@3FA, ax ; charListStatus
$LN10@lssproto_C:

; 717  : #endif
; 718  : 			return;

  000d8	e9 c0 00 00 00	 jmp	 $LN1@lssproto_C
$LN7@lssproto_C:

; 719  : 		}
; 720  : 		charListStatus = 1;

  000dd	b8 01 00 00 00	 mov	 eax, 1
  000e2	66 a3 00 00 00
	00		 mov	 WORD PTR ?charListStatus@@3FA, ax ; charListStatus

; 721  : 		for (i = 0; i < MAXCHARACTER; i++){

  000e8	c7 85 e4 f7 ff
	ff 00 00 00 00	 mov	 DWORD PTR _i$1[ebp], 0
  000f2	eb 0f		 jmp	 SHORT $LN4@lssproto_C
$LN2@lssproto_C:
  000f4	8b 85 e4 f7 ff
	ff		 mov	 eax, DWORD PTR _i$1[ebp]
  000fa	83 c0 01	 add	 eax, 1
  000fd	89 85 e4 f7 ff
	ff		 mov	 DWORD PTR _i$1[ebp], eax
$LN4@lssproto_C:
  00103	83 bd e4 f7 ff
	ff 02		 cmp	 DWORD PTR _i$1[ebp], 2
  0010a	0f 8d 8d 00 00
	00		 jge	 $LN1@lssproto_C

; 722  : 			strcpy(nm, "");

  00110	68 00 00 00 00	 push	 OFFSET ??_C@_00CNPNBAHC@?$AA@
  00115	8d 85 f8 fb ff
	ff		 lea	 eax, DWORD PTR _nm$3[ebp]
  0011b	50		 push	 eax
  0011c	e8 00 00 00 00	 call	 _strcpy
  00121	83 c4 08	 add	 esp, 8

; 723  : 			strcpy(opt, "");

  00124	68 00 00 00 00	 push	 OFFSET ??_C@_00CNPNBAHC@?$AA@
  00129	8d 85 f0 f7 ff
	ff		 lea	 eax, DWORD PTR _opt$2[ebp]
  0012f	50		 push	 eax
  00130	e8 00 00 00 00	 call	 _strcpy
  00135	83 c4 08	 add	 esp, 8

; 724  : 			getStringToken(data, '|', i * 2 + 1, sizeof(nm) - 1 , nm);

  00138	8d 85 f8 fb ff
	ff		 lea	 eax, DWORD PTR _nm$3[ebp]
  0013e	50		 push	 eax
  0013f	68 ff 03 00 00	 push	 1023			; 000003ffH
  00144	8b 8d e4 f7 ff
	ff		 mov	 ecx, DWORD PTR _i$1[ebp]
  0014a	8d 54 09 01	 lea	 edx, DWORD PTR [ecx+ecx+1]
  0014e	52		 push	 edx
  0014f	6a 7c		 push	 124			; 0000007cH
  00151	8b 45 10	 mov	 eax, DWORD PTR _data$[ebp]
  00154	50		 push	 eax
  00155	e8 00 00 00 00	 call	 ?getStringToken@@YAHPADDHH0@Z ; getStringToken
  0015a	83 c4 14	 add	 esp, 20			; 00000014H

; 725  : 			getStringToken(data, '|', i * 2 + 2, sizeof(opt) - 1, opt);

  0015d	8d 85 f0 f7 ff
	ff		 lea	 eax, DWORD PTR _opt$2[ebp]
  00163	50		 push	 eax
  00164	68 ff 03 00 00	 push	 1023			; 000003ffH
  00169	8b 8d e4 f7 ff
	ff		 mov	 ecx, DWORD PTR _i$1[ebp]
  0016f	8d 54 09 02	 lea	 edx, DWORD PTR [ecx+ecx+2]
  00173	52		 push	 edx
  00174	6a 7c		 push	 124			; 0000007cH
  00176	8b 45 10	 mov	 eax, DWORD PTR _data$[ebp]
  00179	50		 push	 eax
  0017a	e8 00 00 00 00	 call	 ?getStringToken@@YAHPADDHH0@Z ; getStringToken
  0017f	83 c4 14	 add	 esp, 20			; 00000014H

; 726  : 			setCharacterList(nm, opt);

  00182	8d 85 f0 f7 ff
	ff		 lea	 eax, DWORD PTR _opt$2[ebp]
  00188	50		 push	 eax
  00189	8d 8d f8 fb ff
	ff		 lea	 ecx, DWORD PTR _nm$3[ebp]
  0018f	51		 push	 ecx
  00190	e8 00 00 00 00	 call	 ?setCharacterList@@YAHPAD0@Z ; setCharacterList
  00195	83 c4 08	 add	 esp, 8

; 727  : 		}

  00198	e9 57 ff ff ff	 jmp	 $LN2@lssproto_C
$LN1@lssproto_C:

; 728  : 	}
; 729  : }

  0019d	52		 push	 edx
  0019e	8b cd		 mov	 ecx, ebp
  001a0	50		 push	 eax
  001a1	8d 15 00 00 00
	00		 lea	 edx, DWORD PTR $LN15@lssproto_C
  001a7	e8 00 00 00 00	 call	 @_RTC_CheckStackVars@8
  001ac	58		 pop	 eax
  001ad	5a		 pop	 edx
  001ae	5f		 pop	 edi
  001af	5e		 pop	 esi
  001b0	5b		 pop	 ebx
  001b1	8b 4d fc	 mov	 ecx, DWORD PTR __$ArrayPad$[ebp]
  001b4	33 cd		 xor	 ecx, ebp
  001b6	e8 00 00 00 00	 call	 @__security_check_cookie@4
  001bb	81 c4 e0 0b 00
	00		 add	 esp, 3040		; 00000be0H
  001c1	3b ec		 cmp	 ebp, esp
  001c3	e8 00 00 00 00	 call	 __RTC_CheckEsp
  001c8	8b e5		 mov	 esp, ebp
  001ca	5d		 pop	 ebp
  001cb	c3		 ret	 0
$LN15@lssproto_C:
  001cc	02 00 00 00	 DD	 2
  001d0	00 00 00 00	 DD	 $LN14@lssproto_C
$LN14@lssproto_C:
  001d4	f8 fb ff ff	 DD	 -1032			; fffffbf8H
  001d8	00 04 00 00	 DD	 1024			; 00000400H
  001dc	00 00 00 00	 DD	 $LN12@lssproto_C
  001e0	f0 f7 ff ff	 DD	 -2064			; fffff7f0H
  001e4	00 04 00 00	 DD	 1024			; 00000400H
  001e8	00 00 00 00	 DD	 $LN13@lssproto_C
$LN13@lssproto_C:
  001ec	6f		 DB	 111			; 0000006fH
  001ed	70		 DB	 112			; 00000070H
  001ee	74		 DB	 116			; 00000074H
  001ef	00		 DB	 0
$LN12@lssproto_C:
  001f0	6e		 DB	 110			; 0000006eH
  001f1	6d		 DB	 109			; 0000006dH
  001f2	00		 DB	 0
?lssproto_CharList_recv@@YAXHPAD0@Z ENDP		; lssproto_CharList_recv
_TEXT	ENDS
; Function compile flags: /Odtp /RTCsu /ZI
; File c:\users\administrator\desktop\????? ??\????? ??\client source code\system\netproc.cpp
;	COMDAT ?lssproto_CharLogin_recv@@YAXHPAD0@Z
_TEXT	SEGMENT
_fd$ = 8						; size = 4
_result$ = 12						; size = 4
_data$ = 16						; size = 4
?lssproto_CharLogin_recv@@YAXHPAD0@Z PROC		; lssproto_CharLogin_recv, COMDAT

; 801  : void lssproto_CharLogin_recv(int fd, char* result, char* data){

  00000	55		 push	 ebp
  00001	8b ec		 mov	 ebp, esp
  00003	81 ec c0 00 00
	00		 sub	 esp, 192		; 000000c0H
  00009	53		 push	 ebx
  0000a	56		 push	 esi
  0000b	57		 push	 edi
  0000c	8d bd 40 ff ff
	ff		 lea	 edi, DWORD PTR [ebp-192]
  00012	b9 30 00 00 00	 mov	 ecx, 48			; 00000030H
  00017	b8 cc cc cc cc	 mov	 eax, -858993460		; ccccccccH
  0001c	f3 ab		 rep stosd

; 802  : 	if (netproc_sending == NETPROC_SENDING){

  0001e	83 3d 00 00 00
	00 01		 cmp	 DWORD PTR ?netproc_sending@@3HA, 1 ; netproc_sending
  00025	0f 85 ae 00 00
	00		 jne	 $LN1@lssproto_C

; 803  : 		netproc_sending = NETPROC_RECEIVED;

  0002b	c7 05 00 00 00
	00 02 00 00 00	 mov	 DWORD PTR ?netproc_sending@@3HA, 2 ; netproc_sending

; 804  : #ifdef __NEW_CLIENT
; 805  : 		if (strcmp(result, SUCCESSFULSTR) == 0 && !hPing)

  00035	68 00 00 00 00	 push	 OFFSET ??_C@_0L@LHCHIOPJ@successful?$AA@
  0003a	8b 45 0c	 mov	 eax, DWORD PTR _result$[ebp]
  0003d	50		 push	 eax
  0003e	e8 00 00 00 00	 call	 _strcmp
  00043	83 c4 08	 add	 esp, 8
  00046	85 c0		 test	 eax, eax
  00048	75 3d		 jne	 SHORT $LN3@lssproto_C
  0004a	83 3d 00 00 00
	00 00		 cmp	 DWORD PTR ?hPing@@3PAXA, 0 ; hPing
  00051	75 34		 jne	 SHORT $LN3@lssproto_C

; 806  : #else
; 807  : 		if (strcmp(result, SUCCESSFULSTR) == 0)
; 808  : #endif
; 809  : 		{
; 810  : 			charLoginStatus = 1;

  00053	b8 01 00 00 00	 mov	 eax, 1
  00058	66 a3 00 00 00
	00		 mov	 WORD PTR ?charLoginStatus@@3FA, ax ; charLoginStatus

; 811  : #ifdef __NEW_CLIENT
; 812  : 			hPing = CreateThread(NULL, 0, PingFunc, &sin_server.sin_addr, 0, &dwPingID);

  0005e	8b f4		 mov	 esi, esp
  00060	68 00 00 00 00	 push	 OFFSET ?dwPingID@@3KA	; dwPingID
  00065	6a 00		 push	 0
  00067	68 04 00 00 00	 push	 OFFSET ?sin_server@@3Usockaddr_in@@A+4
  0006c	68 00 00 00 00	 push	 OFFSET ?PingFunc@@YGKPAX@Z ; PingFunc
  00071	6a 00		 push	 0
  00073	6a 00		 push	 0
  00075	ff 15 00 00 00
	00		 call	 DWORD PTR __imp__CreateThread@24
  0007b	3b f4		 cmp	 esi, esp
  0007d	e8 00 00 00 00	 call	 __RTC_CheckEsp
  00082	a3 00 00 00 00	 mov	 DWORD PTR ?hPing@@3PAXA, eax ; hPing
$LN3@lssproto_C:

; 813  : #endif
; 814  : 		}
; 815  : 
; 816  : #ifdef _NEW_WGS_MSG				// WON ADD WGS的新视窗
; 817  : 		if (strcmp(result, "failed" ) == 0 && !hPing)

  00087	68 00 00 00 00	 push	 OFFSET ??_C@_06ODACHPEO@failed?$AA@
  0008c	8b 45 0c	 mov	 eax, DWORD PTR _result$[ebp]
  0008f	50		 push	 eax
  00090	e8 00 00 00 00	 call	 _strcmp
  00095	83 c4 08	 add	 esp, 8
  00098	85 c0		 test	 eax, eax
  0009a	75 24		 jne	 SHORT $LN4@lssproto_C
  0009c	83 3d 00 00 00
	00 00		 cmp	 DWORD PTR ?hPing@@3PAXA, 0 ; hPing
  000a3	75 1b		 jne	 SHORT $LN4@lssproto_C

; 818  : 			ERROR_MESSAGE = atoi(data);

  000a5	8b f4		 mov	 esi, esp
  000a7	8b 45 10	 mov	 eax, DWORD PTR _data$[ebp]
  000aa	50		 push	 eax
  000ab	ff 15 00 00 00
	00		 call	 DWORD PTR __imp__atoi
  000b1	83 c4 04	 add	 esp, 4
  000b4	3b f4		 cmp	 esi, esp
  000b6	e8 00 00 00 00	 call	 __RTC_CheckEsp
  000bb	a3 00 00 00 00	 mov	 DWORD PTR ?ERROR_MESSAGE@@3HA, eax ; ERROR_MESSAGE
$LN4@lssproto_C:

; 819  : #endif
; 820  : 
; 821  : #ifdef _ANGEL_SUMMON
; 822  : 		angelFlag = FALSE;

  000c0	c7 05 00 00 00
	00 00 00 00 00	 mov	 DWORD PTR ?angelFlag@@3HA, 0 ; angelFlag

; 823  : 		angelMsg[0] = NULL;

  000ca	b8 01 00 00 00	 mov	 eax, 1
  000cf	6b c8 00	 imul	 ecx, eax, 0
  000d2	c6 81 00 00 00
	00 00		 mov	 BYTE PTR ?angelMsg@@3PADA[ecx], 0
$LN1@lssproto_C:

; 824  : #endif
; 825  : 	}
; 826  : }

  000d9	5f		 pop	 edi
  000da	5e		 pop	 esi
  000db	5b		 pop	 ebx
  000dc	81 c4 c0 00 00
	00		 add	 esp, 192		; 000000c0H
  000e2	3b ec		 cmp	 ebp, esp
  000e4	e8 00 00 00 00	 call	 __RTC_CheckEsp
  000e9	8b e5		 mov	 esp, ebp
  000eb	5d		 pop	 ebp
  000ec	c3		 ret	 0
?lssproto_CharLogin_recv@@YAXHPAD0@Z ENDP		; lssproto_CharLogin_recv
_TEXT	ENDS
; Function compile flags: /Odtp /RTCsu /ZI
; File c:\users\administrator\desktop\????? ??\????? ??\client source code\system\netproc.cpp
;	COMDAT ?lssproto_CharDelete_recv@@YAXHPAD0@Z
_TEXT	SEGMENT
_fd$ = 8						; size = 4
_result$ = 12						; size = 4
_data$ = 16						; size = 4
?lssproto_CharDelete_recv@@YAXHPAD0@Z PROC		; lssproto_CharDelete_recv, COMDAT

; 3160 : {

  00000	55		 push	 ebp
  00001	8b ec		 mov	 ebp, esp
  00003	81 ec c0 00 00
	00		 sub	 esp, 192		; 000000c0H
  00009	53		 push	 ebx
  0000a	56		 push	 esi
  0000b	57		 push	 edi
  0000c	8d bd 40 ff ff
	ff		 lea	 edi, DWORD PTR [ebp-192]
  00012	b9 30 00 00 00	 mov	 ecx, 48			; 00000030H
  00017	b8 cc cc cc cc	 mov	 eax, -858993460		; ccccccccH
  0001c	f3 ab		 rep stosd

; 3161 : 	if ( netproc_sending == NETPROC_SENDING )

  0001e	83 3d 00 00 00
	00 01		 cmp	 DWORD PTR ?netproc_sending@@3HA, 1 ; netproc_sending
  00025	75 2a		 jne	 SHORT $LN1@lssproto_C

; 3162 : 	{
; 3163 : 		netproc_sending = NETPROC_RECEIVED;

  00027	c7 05 00 00 00
	00 02 00 00 00	 mov	 DWORD PTR ?netproc_sending@@3HA, 2 ; netproc_sending

; 3164 : 		if ( strcmp( result, SUCCESSFULSTR ) == 0 )

  00031	68 00 00 00 00	 push	 OFFSET ??_C@_0L@LHCHIOPJ@successful?$AA@
  00036	8b 45 0c	 mov	 eax, DWORD PTR _result$[ebp]
  00039	50		 push	 eax
  0003a	e8 00 00 00 00	 call	 _strcmp
  0003f	83 c4 08	 add	 esp, 8
  00042	85 c0		 test	 eax, eax
  00044	75 0b		 jne	 SHORT $LN1@lssproto_C

; 3165 : 		{
; 3166 : 			charDelStatus = 1;

  00046	b8 01 00 00 00	 mov	 eax, 1
  0004b	66 a3 00 00 00
	00		 mov	 WORD PTR ?charDelStatus@@3FA, ax ; charDelStatus
$LN1@lssproto_C:

; 3167 :     	}
; 3168 :     }
; 3169 : }

  00051	5f		 pop	 edi
  00052	5e		 pop	 esi
  00053	5b		 pop	 ebx
  00054	81 c4 c0 00 00
	00		 add	 esp, 192		; 000000c0H
  0005a	3b ec		 cmp	 ebp, esp
  0005c	e8 00 00 00 00	 call	 __RTC_CheckEsp
  00061	8b e5		 mov	 esp, ebp
  00063	5d		 pop	 ebp
  00064	c3		 ret	 0
?lssproto_CharDelete_recv@@YAXHPAD0@Z ENDP		; lssproto_CharDelete_recv
_TEXT	ENDS
; Function compile flags: /Odtp /RTCsu /ZI
; File c:\users\administrator\desktop\????? ??\????? ??\client source code\system\netproc.cpp
;	COMDAT ?lssproto_CreateNewChar_recv@@YAXHPAD0@Z
_TEXT	SEGMENT
_fd$ = 8						; size = 4
_result$ = 12						; size = 4
_data$ = 16						; size = 4
?lssproto_CreateNewChar_recv@@YAXHPAD0@Z PROC		; lssproto_CreateNewChar_recv, COMDAT

; 3101 : {

  00000	55		 push	 ebp
  00001	8b ec		 mov	 ebp, esp
  00003	81 ec c0 00 00
	00		 sub	 esp, 192		; 000000c0H
  00009	53		 push	 ebx
  0000a	56		 push	 esi
  0000b	57		 push	 edi
  0000c	8d bd 40 ff ff
	ff		 lea	 edi, DWORD PTR [ebp-192]
  00012	b9 30 00 00 00	 mov	 ecx, 48			; 00000030H
  00017	b8 cc cc cc cc	 mov	 eax, -858993460		; ccccccccH
  0001c	f3 ab		 rep stosd

; 3102 : 	if ( netproc_sending == NETPROC_SENDING )

  0001e	83 3d 00 00 00
	00 01		 cmp	 DWORD PTR ?netproc_sending@@3HA, 1 ; netproc_sending
  00025	75 2a		 jne	 SHORT $LN1@lssproto_C

; 3103 : 	{
; 3104 : 		netproc_sending = NETPROC_RECEIVED;

  00027	c7 05 00 00 00
	00 02 00 00 00	 mov	 DWORD PTR ?netproc_sending@@3HA, 2 ; netproc_sending

; 3105 : 
; 3106 : 		if ( strcmp( result, SUCCESSFULSTR ) == 0 )

  00031	68 00 00 00 00	 push	 OFFSET ??_C@_0L@LHCHIOPJ@successful?$AA@
  00036	8b 45 0c	 mov	 eax, DWORD PTR _result$[ebp]
  00039	50		 push	 eax
  0003a	e8 00 00 00 00	 call	 _strcmp
  0003f	83 c4 08	 add	 esp, 8
  00042	85 c0		 test	 eax, eax
  00044	75 0b		 jne	 SHORT $LN1@lssproto_C

; 3107 : 		{
; 3108 : 			newCharStatus = 1;

  00046	b8 01 00 00 00	 mov	 eax, 1
  0004b	66 a3 00 00 00
	00		 mov	 WORD PTR ?newCharStatus@@3FA, ax ; newCharStatus
$LN1@lssproto_C:

; 3109 : 		}
; 3110 :     }
; 3111 : }

  00051	5f		 pop	 edi
  00052	5e		 pop	 esi
  00053	5b		 pop	 ebx
  00054	81 c4 c0 00 00
	00		 add	 esp, 192		; 000000c0H
  0005a	3b ec		 cmp	 ebp, esp
  0005c	e8 00 00 00 00	 call	 __RTC_CheckEsp
  00061	8b e5		 mov	 esp, ebp
  00063	5d		 pop	 ebp
  00064	c3		 ret	 0
?lssproto_CreateNewChar_recv@@YAXHPAD0@Z ENDP		; lssproto_CreateNewChar_recv
_TEXT	ENDS
; Function compile flags: /Odtp /RTCsu /ZI
; File c:\users\administrator\desktop\????? ??\????? ??\client source code\system\netproc.cpp
;	COMDAT ?lssproto_ClientLogin_recv@@YAXHPAD@Z
_TEXT	SEGMENT
_fd$ = 8						; size = 4
_result$ = 12						; size = 4
?lssproto_ClientLogin_recv@@YAXHPAD@Z PROC		; lssproto_ClientLogin_recv, COMDAT

; 638  : void lssproto_ClientLogin_recv(int fd, char *result){

  00000	55		 push	 ebp
  00001	8b ec		 mov	 ebp, esp
  00003	81 ec c0 00 00
	00		 sub	 esp, 192		; 000000c0H
  00009	53		 push	 ebx
  0000a	56		 push	 esi
  0000b	57		 push	 edi
  0000c	8d bd 40 ff ff
	ff		 lea	 edi, DWORD PTR [ebp-192]
  00012	b9 30 00 00 00	 mov	 ecx, 48			; 00000030H
  00017	b8 cc cc cc cc	 mov	 eax, -858993460		; ccccccccH
  0001c	f3 ab		 rep stosd

; 639  : 	if (netproc_sending == NETPROC_SENDING){

  0001e	83 3d 00 00 00
	00 01		 cmp	 DWORD PTR ?netproc_sending@@3HA, 1 ; netproc_sending
  00025	0f 85 a2 00 00
	00		 jne	 $LN1@lssproto_C

; 640  : 		netproc_sending = NETPROC_RECEIVED;	

  0002b	c7 05 00 00 00
	00 02 00 00 00	 mov	 DWORD PTR ?netproc_sending@@3HA, 2 ; netproc_sending

; 641  : 		if (strcmp(result, OKSTR) == 0){

  00035	68 00 00 00 00	 push	 OFFSET ??_C@_02MFDMBIJM@ok?$AA@
  0003a	8b 45 0c	 mov	 eax, DWORD PTR _result$[ebp]
  0003d	50		 push	 eax
  0003e	e8 00 00 00 00	 call	 _strcmp
  00043	83 c4 08	 add	 esp, 8
  00046	85 c0		 test	 eax, eax
  00048	75 2c		 jne	 SHORT $LN3@lssproto_C

; 642  : 			clientLoginStatus = 1;

  0004a	b8 01 00 00 00	 mov	 eax, 1
  0004f	66 a3 00 00 00
	00		 mov	 WORD PTR ?clientLoginStatus@@3FA, ax ; clientLoginStatus

; 643  : 			time(&serverAliveLongTime);

  00055	68 00 00 00 00	 push	 OFFSET ?serverAliveLongTime@@3_JA ; serverAliveLongTime
  0005a	e8 00 00 00 00	 call	 _time
  0005f	83 c4 04	 add	 esp, 4

; 644  : 			serverAliveTime = localtime(&serverAliveLongTime);

  00062	68 00 00 00 00	 push	 OFFSET ?serverAliveLongTime@@3_JA ; serverAliveLongTime
  00067	e8 00 00 00 00	 call	 _localtime
  0006c	83 c4 04	 add	 esp, 4
  0006f	a3 00 00 00 00	 mov	 DWORD PTR ?serverAliveTime@@3PAUtm@@A, eax ; serverAliveTime
  00074	eb 57		 jmp	 SHORT $LN1@lssproto_C
$LN3@lssproto_C:

; 645  : 
; 646  : 		}else if(strcmp (result, CANCLE) == 0){

  00076	68 00 00 00 00	 push	 OFFSET ??_C@_06ENLDJGGB@cancle?$AA@
  0007b	8b 45 0c	 mov	 eax, DWORD PTR _result$[ebp]
  0007e	50		 push	 eax
  0007f	e8 00 00 00 00	 call	 _strcmp
  00084	83 c4 08	 add	 esp, 8
  00087	85 c0		 test	 eax, eax
  00089	75 2c		 jne	 SHORT $LN5@lssproto_C

; 647  : 			cleanupNetwork();

  0008b	e8 00 00 00 00	 call	 ?cleanupNetwork@@YAXXZ	; cleanupNetwork

; 648  : 			PaletteChange(DEF_PAL, 0);

  00090	6a 00		 push	 0
  00092	6a 00		 push	 0
  00094	e8 00 00 00 00	 call	 ?PaletteChange@@YAXHH@Z	; PaletteChange
  00099	83 c4 08	 add	 esp, 8

; 649  : 			ChangeProc( PROC_ID_PASSWORD );

  0009c	6a 01		 push	 1
  0009e	e8 00 00 00 00	 call	 ?ChangeProc@@YAXH@Z	; ChangeProc
  000a3	83 c4 04	 add	 esp, 4

; 650  : 			SubProcNo = 5;

  000a6	c7 05 00 00 00
	00 05 00 00 00	 mov	 DWORD PTR ?SubProcNo@@3IA, 5 ; SubProcNo

; 651  : 			DeathAllAction();

  000b0	e8 00 00 00 00	 call	 ?DeathAllAction@@YAXXZ	; DeathAllAction

; 652  : 		}else{

  000b5	eb 16		 jmp	 SHORT $LN1@lssproto_C
$LN5@lssproto_C:

; 653  : #ifdef _NB_登录错误信息提示
; 654  : 			sprintf(登录错误提示, "%s", result);

  000b7	8b 45 0c	 mov	 eax, DWORD PTR _result$[ebp]
  000ba	50		 push	 eax
  000bb	68 00 00 00 00	 push	 OFFSET ??_C@_02DKCKIIND@?$CFs?$AA@
  000c0	68 00 00 00 00	 push	 OFFSET ?登录错误提示@@3PADA ; 登录错误提示
  000c5	e8 00 00 00 00	 call	 _sprintf
  000ca	83 c4 0c	 add	 esp, 12			; 0000000cH
$LN1@lssproto_C:

; 655  : #endif
; 656  : 		}
; 657  : 	}
; 658  : }

  000cd	5f		 pop	 edi
  000ce	5e		 pop	 esi
  000cf	5b		 pop	 ebx
  000d0	81 c4 c0 00 00
	00		 add	 esp, 192		; 000000c0H
  000d6	3b ec		 cmp	 ebp, esp
  000d8	e8 00 00 00 00	 call	 __RTC_CheckEsp
  000dd	8b e5		 mov	 esp, ebp
  000df	5d		 pop	 ebp
  000e0	c3		 ret	 0
?lssproto_ClientLogin_recv@@YAXHPAD@Z ENDP		; lssproto_ClientLogin_recv
_TEXT	ENDS
; Function compile flags: /Odtp /RTCsu /ZI
; File c:\users\administrator\desktop\????? ??\????? ??\client source code\system\netproc.cpp
;	COMDAT ?lssproto_SE_recv@@YAXHHHHH@Z
_TEXT	SEGMENT
_fd$ = 8						; size = 4
_x$ = 12						; size = 4
_y$ = 16						; size = 4
_senumber$ = 20						; size = 4
_sw$ = 24						; size = 4
?lssproto_SE_recv@@YAXHHHHH@Z PROC			; lssproto_SE_recv, COMDAT

; 4060 : {

  00000	55		 push	 ebp
  00001	8b ec		 mov	 ebp, esp
  00003	81 ec c0 00 00
	00		 sub	 esp, 192		; 000000c0H
  00009	53		 push	 ebx
  0000a	56		 push	 esi
  0000b	57		 push	 edi
  0000c	8d bd 40 ff ff
	ff		 lea	 edi, DWORD PTR [ebp-192]
  00012	b9 30 00 00 00	 mov	 ecx, 48			; 00000030H
  00017	b8 cc cc cc cc	 mov	 eax, -858993460		; ccccccccH
  0001c	f3 ab		 rep stosd

; 4061 : 	// ????????????????雪????
; 4062 : 	if ( logOutFlag )

  0001e	83 3d 00 00 00
	00 00		 cmp	 DWORD PTR ?logOutFlag@@3HA, 0 ; logOutFlag
  00025	74 02		 je	 SHORT $LN2@lssproto_S

; 4063 : 		return;

  00027	eb 1a		 jmp	 SHORT $LN1@lssproto_S
$LN2@lssproto_S:

; 4064 : 
; 4065 : 	if ( sw )

  00029	83 7d 18 00	 cmp	 DWORD PTR _sw$[ebp], 0
  0002d	74 14		 je	 SHORT $LN1@lssproto_S

; 4066 : 	{
; 4067 : 		play_se( senumber, x, y );

  0002f	8b 45 10	 mov	 eax, DWORD PTR _y$[ebp]
  00032	50		 push	 eax
  00033	8b 4d 0c	 mov	 ecx, DWORD PTR _x$[ebp]
  00036	51		 push	 ecx
  00037	8b 55 14	 mov	 edx, DWORD PTR _senumber$[ebp]
  0003a	52		 push	 edx
  0003b	e8 00 00 00 00	 call	 ?play_se@@YAHHHH@Z	; play_se
  00040	83 c4 0c	 add	 esp, 12			; 0000000cH
$LN1@lssproto_S:

; 4068 : 	}
; 4069 : 	else
; 4070 : 	{
; 4071 : 		// ????????Y????
; 4072 : 	}
; 4073 : }

  00043	5f		 pop	 edi
  00044	5e		 pop	 esi
  00045	5b		 pop	 ebx
  00046	81 c4 c0 00 00
	00		 add	 esp, 192		; 000000c0H
  0004c	3b ec		 cmp	 ebp, esp
  0004e	e8 00 00 00 00	 call	 __RTC_CheckEsp
  00053	8b e5		 mov	 esp, ebp
  00055	5d		 pop	 ebp
  00056	c3		 ret	 0
?lssproto_SE_recv@@YAXHHHHH@Z ENDP			; lssproto_SE_recv
_TEXT	ENDS
; Function compile flags: /Odtp /RTCsu /ZI
; File c:\users\administrator\desktop\????? ??\????? ??\client source code\system\netproc.cpp
;	COMDAT ?lssproto_EF_recv@@YAXHHHPAD@Z
_TEXT	SEGMENT
_fd$ = 8						; size = 4
_effect$ = 12						; size = 4
_level$ = 16						; size = 4
_option$ = 20						; size = 4
?lssproto_EF_recv@@YAXHHHPAD@Z PROC			; lssproto_EF_recv, COMDAT

; 3721 : {

  00000	55		 push	 ebp
  00001	8b ec		 mov	 ebp, esp
  00003	81 ec c0 00 00
	00		 sub	 esp, 192		; 000000c0H
  00009	53		 push	 ebx
  0000a	56		 push	 esi
  0000b	57		 push	 edi
  0000c	8d bd 40 ff ff
	ff		 lea	 edi, DWORD PTR [ebp-192]
  00012	b9 30 00 00 00	 mov	 ecx, 48			; 00000030H
  00017	b8 cc cc cc cc	 mov	 eax, -858993460		; ccccccccH
  0001c	f3 ab		 rep stosd

; 3722 : 	// u??????????
; 3723 : 	if ( effect == 0 )

  0001e	83 7d 0c 00	 cmp	 DWORD PTR _effect$[ebp], 0
  00022	75 2e		 jne	 SHORT $LN2@lssproto_E

; 3724 : 	{
; 3725 : 		mapEffectRainLevel = 0;

  00024	33 c0		 xor	 eax, eax
  00026	66 a3 00 00 00
	00		 mov	 WORD PTR ?mapEffectRainLevel@@3FA, ax ; mapEffectRainLevel

; 3726 : 		mapEffectSnowLevel = 0;

  0002c	33 c0		 xor	 eax, eax
  0002e	66 a3 00 00 00
	00		 mov	 WORD PTR ?mapEffectSnowLevel@@3FA, ax ; mapEffectSnowLevel

; 3727 : 		mapEffectKamiFubukiLevel = 0;

  00034	33 c0		 xor	 eax, eax
  00036	66 a3 00 00 00
	00		 mov	 WORD PTR ?mapEffectKamiFubukiLevel@@3FA, ax ; mapEffectKamiFubukiLevel

; 3728 : #ifdef _HALLOWEEN_EFFECT
; 3729 : 		mapEffectHalloween = 0;

  0003c	c7 05 00 00 00
	00 00 00 00 00	 mov	 DWORD PTR ?mapEffectHalloween@@3HA, 0 ; mapEffectHalloween

; 3730 : 		initMapEffect(FALSE);

  00046	6a 00		 push	 0
  00048	e8 00 00 00 00	 call	 ?initMapEffect@@YAXH@Z	; initMapEffect
  0004d	83 c4 04	 add	 esp, 4

; 3731 : #endif
; 3732 : 		return;

  00050	eb 46		 jmp	 SHORT $LN1@lssproto_E
$LN2@lssproto_E:

; 3733 : 	}
; 3734 : 	// ???????
; 3735 : 	if ( effect & 1 )

  00052	8b 45 0c	 mov	 eax, DWORD PTR _effect$[ebp]
  00055	83 e0 01	 and	 eax, 1
  00058	74 0a		 je	 SHORT $LN3@lssproto_E

; 3736 : 	{
; 3737 : 		mapEffectRainLevel = level;

  0005a	66 8b 45 10	 mov	 ax, WORD PTR _level$[ebp]
  0005e	66 a3 00 00 00
	00		 mov	 WORD PTR ?mapEffectRainLevel@@3FA, ax ; mapEffectRainLevel
$LN3@lssproto_E:

; 3738 : 	}
; 3739 : 	// D??????
; 3740 : 	if ( effect & 2 )

  00064	8b 45 0c	 mov	 eax, DWORD PTR _effect$[ebp]
  00067	83 e0 02	 and	 eax, 2
  0006a	74 0a		 je	 SHORT $LN4@lssproto_E

; 3741 : 	{
; 3742 : 		mapEffectSnowLevel = level;

  0006c	66 8b 45 10	 mov	 ax, WORD PTR _level$[ebp]
  00070	66 a3 00 00 00
	00		 mov	 WORD PTR ?mapEffectSnowLevel@@3FA, ax ; mapEffectSnowLevel
$LN4@lssproto_E:

; 3743 : 	}
; 3744 : 	// ????
; 3745 : 	if ( effect & 4 )

  00076	8b 45 0c	 mov	 eax, DWORD PTR _effect$[ebp]
  00079	83 e0 04	 and	 eax, 4
  0007c	74 0a		 je	 SHORT $LN5@lssproto_E

; 3746 : 	{
; 3747 : 		mapEffectKamiFubukiLevel = level;

  0007e	66 8b 45 10	 mov	 ax, WORD PTR _level$[ebp]
  00082	66 a3 00 00 00
	00		 mov	 WORD PTR ?mapEffectKamiFubukiLevel@@3FA, ax ; mapEffectKamiFubukiLevel
$LN5@lssproto_E:

; 3748 : 	}
; 3749 : #ifdef _HALLOWEEN_EFFECT
; 3750 : 	if (effect & 8) mapEffectHalloween = level;

  00088	8b 45 0c	 mov	 eax, DWORD PTR _effect$[ebp]
  0008b	83 e0 08	 and	 eax, 8
  0008e	74 08		 je	 SHORT $LN1@lssproto_E
  00090	8b 45 10	 mov	 eax, DWORD PTR _level$[ebp]
  00093	a3 00 00 00 00	 mov	 DWORD PTR ?mapEffectHalloween@@3HA, eax ; mapEffectHalloween
$LN1@lssproto_E:

; 3751 : #endif
; 3752 : // Terry add 2002/01/14
; 3753 : #ifdef __EDEN_DICE
; 3754 : 	// 骰子
; 3755 : 	if (effect == 10) 
; 3756 : 	{
; 3757 : 		pCommand = (char*)MALLOC(strlen(option)+1);
; 3758 : #ifdef  _STONDEBUG_
; 3759 : 		g_iMallocCount++;
; 3760 : #endif
; 3761 : 		if (pCommand != NULL) 
; 3762 : 		{
; 3763 : 			strcpy(pCommand,option);
; 3764 : 			bMapEffectDice = TRUE;
; 3765 : 			dwDiceTimer = TimeGetTime();
; 3766 : 		}
; 3767 : 	}
; 3768 : #endif
; 3769 : // Terry end
; 3770 : }

  00098	5f		 pop	 edi
  00099	5e		 pop	 esi
  0009a	5b		 pop	 ebx
  0009b	81 c4 c0 00 00
	00		 add	 esp, 192		; 000000c0H
  000a1	3b ec		 cmp	 ebp, esp
  000a3	e8 00 00 00 00	 call	 __RTC_CheckEsp
  000a8	8b e5		 mov	 esp, ebp
  000aa	5d		 pop	 ebp
  000ab	c3		 ret	 0
?lssproto_EF_recv@@YAXHHHPAD@Z ENDP			; lssproto_EF_recv
_TEXT	ENDS
; Function compile flags: /Odtp /RTCsu /ZI
; File c:\users\administrator\desktop\????? ??\????? ??\client source code\system\netproc.cpp
;	COMDAT ?lssproto_WN_recv@@YAXHHHHHPAD@Z
_TEXT	SEGMENT
_fd$ = 8						; size = 4
_windowtype$ = 12					; size = 4
_buttontype$ = 16					; size = 4
_seqno$ = 20						; size = 4
_objindex$ = 24						; size = 4
_data$ = 28						; size = 4
?lssproto_WN_recv@@YAXHHHHHPAD@Z PROC			; lssproto_WN_recv, COMDAT

; 3614 : {

  00000	55		 push	 ebp
  00001	8b ec		 mov	 ebp, esp
  00003	81 ec c0 00 00
	00		 sub	 esp, 192		; 000000c0H
  00009	53		 push	 ebx
  0000a	56		 push	 esi
  0000b	57		 push	 edi
  0000c	8d bd 40 ff ff
	ff		 lea	 edi, DWORD PTR [ebp-192]
  00012	b9 30 00 00 00	 mov	 ecx, 48			; 00000030H
  00017	b8 cc cc cc cc	 mov	 eax, -858993460		; ccccccccH
  0001c	f3 ab		 rep stosd

; 3615 : 	// ????????????????雪????
; 3616 : 	if ( logOutFlag )

  0001e	83 3d 00 00 00
	00 00		 cmp	 DWORD PTR ?logOutFlag@@3HA, 0 ; logOutFlag
  00025	74 02		 je	 SHORT $LN2@lssproto_W

; 3617 : 		return;

  00027	eb 51		 jmp	 SHORT $LN1@lssproto_W
$LN2@lssproto_W:

; 3618 : 
; 3619 : 	if( strstr(data,"否则家族在七天之后会消失唷！") ){	

  00029	68 00 00 00 00	 push	 OFFSET ??_C@_0BK@NFKFNKL@?$NM?z?$DP?J?$KL?p?i?n?$KE?v?R?t?$LI?q?$PN?$PN?$KI?$DP?a?$LM?c?w?$DP?$KD?$KB?$AA@
  0002e	8b 45 1c	 mov	 eax, DWORD PTR _data$[ebp]
  00031	50		 push	 eax
  00032	e8 00 00 00 00	 call	 ?strstr@@YAPADQADQBD@Z	; strstr
  00037	83 c4 08	 add	 esp, 8
  0003a	85 c0		 test	 eax, eax
  0003c	74 20		 je	 SHORT $LN3@lssproto_W

; 3620 : 		if( TimeGetTime() - MsgCooltime > 300000 )

  0003e	e8 00 00 00 00	 call	 ?TimeGetTime@@YAIXZ	; TimeGetTime
  00043	2b 05 00 00 00
	00		 sub	 eax, DWORD PTR ?MsgCooltime@@3IA ; MsgCooltime
  00049	3d e0 93 04 00	 cmp	 eax, 300000		; 000493e0H
  0004e	76 0c		 jbe	 SHORT $LN4@lssproto_W

; 3621 : 			MsgCooltime = TimeGetTime();  

  00050	e8 00 00 00 00	 call	 ?TimeGetTime@@YAIXZ	; TimeGetTime
  00055	a3 00 00 00 00	 mov	 DWORD PTR ?MsgCooltime@@3IA, eax ; MsgCooltime

; 3622 : 		else

  0005a	eb 02		 jmp	 SHORT $LN3@lssproto_W
$LN4@lssproto_W:

; 3623 : 			return;

  0005c	eb 1c		 jmp	 SHORT $LN1@lssproto_W
$LN3@lssproto_W:

; 3624 : 	}
; 3625 : 	openServerWindow( windowtype, buttontype, seqno, objindex, data );

  0005e	8b 45 1c	 mov	 eax, DWORD PTR _data$[ebp]
  00061	50		 push	 eax
  00062	8b 4d 18	 mov	 ecx, DWORD PTR _objindex$[ebp]
  00065	51		 push	 ecx
  00066	8b 55 14	 mov	 edx, DWORD PTR _seqno$[ebp]
  00069	52		 push	 edx
  0006a	8b 45 10	 mov	 eax, DWORD PTR _buttontype$[ebp]
  0006d	50		 push	 eax
  0006e	8b 4d 0c	 mov	 ecx, DWORD PTR _windowtype$[ebp]
  00071	51		 push	 ecx
  00072	e8 00 00 00 00	 call	 ?openServerWindow@@YAXHHHHPAD@Z ; openServerWindow
  00077	83 c4 14	 add	 esp, 20			; 00000014H
$LN1@lssproto_W:

; 3626 : }

  0007a	5f		 pop	 edi
  0007b	5e		 pop	 esi
  0007c	5b		 pop	 ebx
  0007d	81 c4 c0 00 00
	00		 add	 esp, 192		; 000000c0H
  00083	3b ec		 cmp	 ebp, esp
  00085	e8 00 00 00 00	 call	 __RTC_CheckEsp
  0008a	8b e5		 mov	 esp, ebp
  0008c	5d		 pop	 ebp
  0008d	c3		 ret	 0
?lssproto_WN_recv@@YAXHHHHHPAD@Z ENDP			; lssproto_WN_recv
_TEXT	ENDS
; Function compile flags: /Odtp /RTCsu /ZI
; File c:\users\administrator\desktop\????? ??\????? ??\client source code\system\netproc.cpp
;	COMDAT ?lssproto_SKUP_recv@@YAXHH@Z
_TEXT	SEGMENT
_fd$ = 8						; size = 4
_point$ = 12						; size = 4
?lssproto_SKUP_recv@@YAXHH@Z PROC			; lssproto_SKUP_recv, COMDAT

; 3967 : {

  00000	55		 push	 ebp
  00001	8b ec		 mov	 ebp, esp
  00003	81 ec c0 00 00
	00		 sub	 esp, 192		; 000000c0H
  00009	53		 push	 ebx
  0000a	56		 push	 esi
  0000b	57		 push	 edi
  0000c	8d bd 40 ff ff
	ff		 lea	 edi, DWORD PTR [ebp-192]
  00012	b9 30 00 00 00	 mov	 ecx, 48			; 00000030H
  00017	b8 cc cc cc cc	 mov	 eax, -858993460		; ccccccccH
  0001c	f3 ab		 rep stosd

; 3968 : 	// ????????????觚
; 3969 : 	StatusUpPoint = point;

  0001e	8b 45 0c	 mov	 eax, DWORD PTR _point$[ebp]
  00021	a3 00 00 00 00	 mov	 DWORD PTR ?StatusUpPoint@@3HA, eax ; StatusUpPoint

; 3970 : }

  00026	5f		 pop	 edi
  00027	5e		 pop	 esi
  00028	5b		 pop	 ebx
  00029	8b e5		 mov	 esp, ebp
  0002b	5d		 pop	 ebp
  0002c	c3		 ret	 0
?lssproto_SKUP_recv@@YAXHH@Z ENDP			; lssproto_SKUP_recv
_TEXT	ENDS
; Function compile flags: /Odtp /RTCsu /ZI
; File c:\users\administrator\desktop\????? ??\????? ??\client source code\system\netproc.cpp
;	COMDAT ?lssproto_PS_recv@@YAXHHHHH@Z
_TEXT	SEGMENT
_moji$ = -264						; size = 256
__$ArrayPad$ = -4					; size = 4
_fd$ = 8						; size = 4
_result$ = 12						; size = 4
_havepetindex$ = 16					; size = 4
_havepetskill$ = 20					; size = 4
_toindex$ = 24						; size = 4
?lssproto_PS_recv@@YAXHHHHH@Z PROC			; lssproto_PS_recv, COMDAT

; 4041 : {

  00000	55		 push	 ebp
  00001	8b ec		 mov	 ebp, esp
  00003	81 ec cc 01 00
	00		 sub	 esp, 460		; 000001ccH
  00009	53		 push	 ebx
  0000a	56		 push	 esi
  0000b	57		 push	 edi
  0000c	8d bd 34 fe ff
	ff		 lea	 edi, DWORD PTR [ebp-460]
  00012	b9 73 00 00 00	 mov	 ecx, 115		; 00000073H
  00017	b8 cc cc cc cc	 mov	 eax, -858993460		; ccccccccH
  0001c	f3 ab		 rep stosd
  0001e	a1 00 00 00 00	 mov	 eax, DWORD PTR ___security_cookie
  00023	33 c5		 xor	 eax, ebp
  00025	89 45 fc	 mov	 DWORD PTR __$ArrayPad$[ebp], eax

; 4042 : 	char moji[ 256 ];
; 4043 : 	
; 4044 : 	// ???????
; 4045 : 	ItemMixRecvFlag = FALSE;

  00028	c7 05 00 00 00
	00 00 00 00 00	 mov	 DWORD PTR ?ItemMixRecvFlag@@3HA, 0 ; ItemMixRecvFlag

; 4046 : 	
; 4047 : 	// 害???
; 4048 : 	if ( result == 0 ){

  00032	83 7d 0c 00	 cmp	 DWORD PTR _result$[ebp], 0
  00036	75 27		 jne	 SHORT $LN1@lssproto_P

; 4049 : 		//???????
; 4050 : 		sprintf( moji,"失败！");

  00038	68 00 00 00 00	 push	 OFFSET ??_C@_05OAJDDNFL@?c?w?$DP?$KD?$KB?$AA@
  0003d	8d 85 f8 fe ff
	ff		 lea	 eax, DWORD PTR _moji$[ebp]
  00043	50		 push	 eax
  00044	e8 00 00 00 00	 call	 _sprintf
  00049	83 c4 08	 add	 esp, 8

; 4051 : 		// ??????????????????
; 4052 : 		StockChatBufferLine( moji, FONT_PAL_WHITE );

  0004c	6a 00		 push	 0
  0004e	6a 00		 push	 0
  00050	8d 85 f8 fe ff
	ff		 lea	 eax, DWORD PTR _moji$[ebp]
  00056	50		 push	 eax
  00057	e8 00 00 00 00	 call	 ?StockChatBufferLine@@YAXPADEH@Z ; StockChatBufferLine
  0005c	83 c4 0c	 add	 esp, 12			; 0000000cH
$LN1@lssproto_P:

; 4053 : 	}
; 4054 : 	
; 4055 : }

  0005f	52		 push	 edx
  00060	8b cd		 mov	 ecx, ebp
  00062	50		 push	 eax
  00063	8d 15 00 00 00
	00		 lea	 edx, DWORD PTR $LN6@lssproto_P
  00069	e8 00 00 00 00	 call	 @_RTC_CheckStackVars@8
  0006e	58		 pop	 eax
  0006f	5a		 pop	 edx
  00070	5f		 pop	 edi
  00071	5e		 pop	 esi
  00072	5b		 pop	 ebx
  00073	8b 4d fc	 mov	 ecx, DWORD PTR __$ArrayPad$[ebp]
  00076	33 cd		 xor	 ecx, ebp
  00078	e8 00 00 00 00	 call	 @__security_check_cookie@4
  0007d	81 c4 cc 01 00
	00		 add	 esp, 460		; 000001ccH
  00083	3b ec		 cmp	 ebp, esp
  00085	e8 00 00 00 00	 call	 __RTC_CheckEsp
  0008a	8b e5		 mov	 esp, ebp
  0008c	5d		 pop	 ebp
  0008d	c3		 ret	 0
  0008e	66 90		 npad	 2
$LN6@lssproto_P:
  00090	01 00 00 00	 DD	 1
  00094	00 00 00 00	 DD	 $LN5@lssproto_P
$LN5@lssproto_P:
  00098	f8 fe ff ff	 DD	 -264			; fffffef8H
  0009c	00 01 00 00	 DD	 256			; 00000100H
  000a0	00 00 00 00	 DD	 $LN4@lssproto_P
$LN4@lssproto_P:
  000a4	6d		 DB	 109			; 0000006dH
  000a5	6f		 DB	 111			; 0000006fH
  000a6	6a		 DB	 106			; 0000006aH
  000a7	69		 DB	 105			; 00000069H
  000a8	00		 DB	 0
?lssproto_PS_recv@@YAXHHHHH@Z ENDP			; lssproto_PS_recv
_TEXT	ENDS
; Function compile flags: /Odtp /RTCsu /ZI
; File c:\users\administrator\desktop\????? ??\????? ??\client source code\system\netproc.cpp
;	COMDAT ?lssproto_SPET_recv@@YAXHHH@Z
_TEXT	SEGMENT
_i$ = -20						; size = 4
_cnt$ = -8						; size = 4
_fd$ = 8						; size = 4
_standbypet$ = 12					; size = 4
_result$ = 16						; size = 4
?lssproto_SPET_recv@@YAXHHH@Z PROC			; lssproto_SPET_recv, COMDAT

; 3946 : {

  00000	55		 push	 ebp
  00001	8b ec		 mov	 ebp, esp
  00003	81 ec d8 00 00
	00		 sub	 esp, 216		; 000000d8H
  00009	53		 push	 ebx
  0000a	56		 push	 esi
  0000b	57		 push	 edi
  0000c	8d bd 28 ff ff
	ff		 lea	 edi, DWORD PTR [ebp-216]
  00012	b9 36 00 00 00	 mov	 ecx, 54			; 00000036H
  00017	b8 cc cc cc cc	 mov	 eax, -858993460		; ccccccccH
  0001c	f3 ab		 rep stosd

; 3947 : 	int cnt = 0;

  0001e	c7 45 f8 00 00
	00 00		 mov	 DWORD PTR _cnt$[ebp], 0

; 3948 : 	int i;
; 3949 : 
; 3950 : 	StandbyPetSendFlag = FALSE;

  00025	c7 05 00 00 00
	00 00 00 00 00	 mov	 DWORD PTR ?StandbyPetSendFlag@@3HA, 0 ; StandbyPetSendFlag

; 3951 : 
; 3952 : 	if ( result == TRUE ) { 

  0002f	83 7d 10 01	 cmp	 DWORD PTR _result$[ebp], 1
  00033	75 52		 jne	 SHORT $LN1@lssproto_S

; 3953 : 		pc.standbyPet = standbypet;

  00035	66 8b 45 0c	 mov	 ax, WORD PTR _standbypet$[ebp]
  00039	66 a3 b8 00 00
	00		 mov	 WORD PTR ?pc@@3UPC@@A+184, ax

; 3954 : 		for ( i =0; i <MAX_PET; i++) {

  0003f	c7 45 ec 00 00
	00 00		 mov	 DWORD PTR _i$[ebp], 0
  00046	eb 09		 jmp	 SHORT $LN4@lssproto_S
$LN2@lssproto_S:
  00048	8b 45 ec	 mov	 eax, DWORD PTR _i$[ebp]
  0004b	83 c0 01	 add	 eax, 1
  0004e	89 45 ec	 mov	 DWORD PTR _i$[ebp], eax
$LN4@lssproto_S:
  00051	83 7d ec 05	 cmp	 DWORD PTR _i$[ebp], 5
  00055	7d 30		 jge	 SHORT $LN1@lssproto_S

; 3955 : 			if ( standbypet & ( 1 << i) )

  00057	b8 01 00 00 00	 mov	 eax, 1
  0005c	8b 4d ec	 mov	 ecx, DWORD PTR _i$[ebp]
  0005f	d3 e0		 shl	 eax, cl
  00061	23 45 0c	 and	 eax, DWORD PTR _standbypet$[ebp]
  00064	74 12		 je	 SHORT $LN6@lssproto_S

; 3956 : 				pc.selectPetNo[ i ] = TRUE;

  00066	b8 01 00 00 00	 mov	 eax, 1
  0006b	8b 4d ec	 mov	 ecx, DWORD PTR _i$[ebp]
  0006e	66 89 04 4d ac
	00 00 00	 mov	 WORD PTR ?pc@@3UPC@@A[ecx*2+172], ax

; 3957 : 			else

  00076	eb 0d		 jmp	 SHORT $LN7@lssproto_S
$LN6@lssproto_S:

; 3958 : 				pc.selectPetNo[ i ] = FALSE;

  00078	33 c0		 xor	 eax, eax
  0007a	8b 4d ec	 mov	 ecx, DWORD PTR _i$[ebp]
  0007d	66 89 04 4d ac
	00 00 00	 mov	 WORD PTR ?pc@@3UPC@@A[ecx*2+172], ax
$LN7@lssproto_S:

; 3959 : 		}

  00085	eb c1		 jmp	 SHORT $LN2@lssproto_S
$LN1@lssproto_S:

; 3960 : 	}
; 3961 : 
; 3962 : }

  00087	5f		 pop	 edi
  00088	5e		 pop	 esi
  00089	5b		 pop	 ebx
  0008a	8b e5		 mov	 esp, ebp
  0008c	5d		 pop	 ebp
  0008d	c3		 ret	 0
?lssproto_SPET_recv@@YAXHHH@Z ENDP			; lssproto_SPET_recv
_TEXT	ENDS
; Function compile flags: /Odtp /RTCsu /ZI
; File c:\users\administrator\desktop\????? ??\????? ??\client source code\system\netproc.cpp
;	COMDAT ?lssproto_KS_recv@@YAXHHH@Z
_TEXT	SEGMENT
_i$ = -20						; size = 4
_cnt$ = -8						; size = 4
_fd$ = 8						; size = 4
_petarray$ = 12						; size = 4
_result$ = 16						; size = 4
?lssproto_KS_recv@@YAXHHH@Z PROC			; lssproto_KS_recv, COMDAT

; 3912 : {

  00000	55		 push	 ebp
  00001	8b ec		 mov	 ebp, esp
  00003	81 ec d8 00 00
	00		 sub	 esp, 216		; 000000d8H
  00009	53		 push	 ebx
  0000a	56		 push	 esi
  0000b	57		 push	 edi
  0000c	8d bd 28 ff ff
	ff		 lea	 edi, DWORD PTR [ebp-216]
  00012	b9 36 00 00 00	 mov	 ecx, 54			; 00000036H
  00017	b8 cc cc cc cc	 mov	 eax, -858993460		; ccccccccH
  0001c	f3 ab		 rep stosd

; 3913 : 	int cnt = 0;

  0001e	c7 45 f8 00 00
	00 00		 mov	 DWORD PTR _cnt$[ebp], 0

; 3914 : 	int i;
; 3915 : 
; 3916 : 	BattlePetReceiveFlag = FALSE;

  00025	c7 05 00 00 00
	00 00 00 00 00	 mov	 DWORD PTR ?BattlePetReceiveFlag@@3HA, 0 ; BattlePetReceiveFlag

; 3917 : 	BattlePetReceivePetNo = -1;

  0002f	c7 05 00 00 00
	00 ff ff ff ff	 mov	 DWORD PTR ?BattlePetReceivePetNo@@3HA, -1 ; BattlePetReceivePetNo

; 3918 : 	if ( result == TRUE ){ 

  00039	83 7d 10 01	 cmp	 DWORD PTR _result$[ebp], 1
  0003d	0f 85 98 00 00
	00		 jne	 $LN5@lssproto_K

; 3919 : 		battlePetNoBak = -2;

  00043	c7 05 00 00 00
	00 fe ff ff ff	 mov	 DWORD PTR ?battlePetNoBak@@3HA, -2 ; battlePetNoBak, fffffffeH

; 3920 : 		if ( petarray != -1 ){ 

  0004d	83 7d 0c ff	 cmp	 DWORD PTR _petarray$[ebp], -1
  00051	74 7c		 je	 SHORT $LN7@lssproto_K

; 3921 : 			pc.selectPetNo[ petarray ] = TRUE;

  00053	b8 01 00 00 00	 mov	 eax, 1
  00058	8b 4d 0c	 mov	 ecx, DWORD PTR _petarray$[ebp]
  0005b	66 89 04 4d ac
	00 00 00	 mov	 WORD PTR ?pc@@3UPC@@A[ecx*2+172], ax

; 3922 : 			if ( pc.mailPetNo == petarray ) pc.mailPetNo = -1;

  00063	0f bf 05 b6 00
	00 00		 movsx	 eax, WORD PTR ?pc@@3UPC@@A+182
  0006a	3b 45 0c	 cmp	 eax, DWORD PTR _petarray$[ebp]
  0006d	75 09		 jne	 SHORT $LN8@lssproto_K
  0006f	83 c8 ff	 or	 eax, -1
  00072	66 a3 b6 00 00
	00		 mov	 WORD PTR ?pc@@3UPC@@A+182, ax
$LN8@lssproto_K:

; 3923 : 			for ( i = 0 ; i < 5 ; i++ ){

  00078	c7 45 ec 00 00
	00 00		 mov	 DWORD PTR _i$[ebp], 0
  0007f	eb 09		 jmp	 SHORT $LN4@lssproto_K
$LN2@lssproto_K:
  00081	8b 45 ec	 mov	 eax, DWORD PTR _i$[ebp]
  00084	83 c0 01	 add	 eax, 1
  00087	89 45 ec	 mov	 DWORD PTR _i$[ebp], eax
$LN4@lssproto_K:
  0008a	83 7d ec 05	 cmp	 DWORD PTR _i$[ebp], 5
  0008e	7d 3f		 jge	 SHORT $LN7@lssproto_K

; 3924 : 				if ( pc.selectPetNo[ i ] == TRUE && i != petarray ) cnt++;

  00090	8b 45 ec	 mov	 eax, DWORD PTR _i$[ebp]
  00093	0f bf 0c 45 ac
	00 00 00	 movsx	 ecx, WORD PTR ?pc@@3UPC@@A[eax*2+172]
  0009b	83 f9 01	 cmp	 ecx, 1
  0009e	75 11		 jne	 SHORT $LN9@lssproto_K
  000a0	8b 45 ec	 mov	 eax, DWORD PTR _i$[ebp]
  000a3	3b 45 0c	 cmp	 eax, DWORD PTR _petarray$[ebp]
  000a6	74 09		 je	 SHORT $LN9@lssproto_K
  000a8	8b 45 f8	 mov	 eax, DWORD PTR _cnt$[ebp]
  000ab	83 c0 01	 add	 eax, 1
  000ae	89 45 f8	 mov	 DWORD PTR _cnt$[ebp], eax
$LN9@lssproto_K:

; 3925 : 				if ( cnt >= 等待宠数量){

  000b1	83 7d f8 05	 cmp	 DWORD PTR _cnt$[ebp], 5
  000b5	7c 16		 jl	 SHORT $LN10@lssproto_K

; 3926 : 					pc.selectPetNo[ i ] = FALSE;

  000b7	33 c0		 xor	 eax, eax
  000b9	8b 4d ec	 mov	 ecx, DWORD PTR _i$[ebp]
  000bc	66 89 04 4d ac
	00 00 00	 mov	 WORD PTR ?pc@@3UPC@@A[ecx*2+172], ax

; 3927 : 					cnt--;

  000c4	8b 45 f8	 mov	 eax, DWORD PTR _cnt$[ebp]
  000c7	83 e8 01	 sub	 eax, 1
  000ca	89 45 f8	 mov	 DWORD PTR _cnt$[ebp], eax
$LN10@lssproto_K:

; 3928 : 				}
; 3929 : 			}

  000cd	eb b2		 jmp	 SHORT $LN2@lssproto_K
$LN7@lssproto_K:

; 3930 : 		}
; 3931 : 		pc.battlePetNo = petarray;

  000cf	66 8b 45 0c	 mov	 ax, WORD PTR _petarray$[ebp]
  000d3	66 a3 aa 00 00
	00		 mov	 WORD PTR ?pc@@3UPC@@A+170, ax

; 3932 : 	}
; 3933 : #ifdef _AFTER_TRADE_PETWAIT_
; 3934 : 	else{

  000d9	eb 2e		 jmp	 SHORT $LN1@lssproto_K
$LN5@lssproto_K:

; 3935 : 		if (tradeStatus==2){

  000db	0f bf 05 00 00
	00 00		 movsx	 eax, WORD PTR ?tradeStatus@@3FA ; tradeStatus
  000e2	83 f8 02	 cmp	 eax, 2
  000e5	75 22		 jne	 SHORT $LN1@lssproto_K

; 3936 : 			pc.selectPetNo[petarray] = 0;

  000e7	33 c0		 xor	 eax, eax
  000e9	8b 4d 0c	 mov	 ecx, DWORD PTR _petarray$[ebp]
  000ec	66 89 04 4d ac
	00 00 00	 mov	 WORD PTR ?pc@@3UPC@@A[ecx*2+172], ax

; 3937 : 			if (petarray==pc.battlePetNo)

  000f4	0f bf 05 aa 00
	00 00		 movsx	 eax, WORD PTR ?pc@@3UPC@@A+170
  000fb	39 45 0c	 cmp	 DWORD PTR _petarray$[ebp], eax
  000fe	75 09		 jne	 SHORT $LN1@lssproto_K

; 3938 : 				pc.battlePetNo = -1;

  00100	83 c8 ff	 or	 eax, -1
  00103	66 a3 aa 00 00
	00		 mov	 WORD PTR ?pc@@3UPC@@A+170, ax
$LN1@lssproto_K:

; 3939 : 		}		
; 3940 : 	}
; 3941 : #endif
; 3942 : }

  00109	5f		 pop	 edi
  0010a	5e		 pop	 esi
  0010b	5b		 pop	 ebx
  0010c	8b e5		 mov	 esp, ebp
  0010e	5d		 pop	 ebp
  0010f	c3		 ret	 0
?lssproto_KS_recv@@YAXHHH@Z ENDP			; lssproto_KS_recv
_TEXT	ENDS
; Function compile flags: /Odtp /RTCsu /ZI
; File c:\users\administrator\desktop\????? ??\????? ??\client source code\system\netproc.cpp
;	COMDAT ?lssproto_PR_recv@@YAXHHH@Z
_TEXT	SEGMENT
_dir$1 = -5						; size = 1
_fd$ = 8						; size = 4
_request$ = 12						; size = 4
_result$ = 16						; size = 4
?lssproto_PR_recv@@YAXHHH@Z PROC			; lssproto_PR_recv, COMDAT

; 3173 : {

  00000	55		 push	 ebp
  00001	8b ec		 mov	 ebp, esp
  00003	81 ec cc 00 00
	00		 sub	 esp, 204		; 000000ccH
  00009	53		 push	 ebx
  0000a	56		 push	 esi
  0000b	57		 push	 edi
  0000c	8d bd 34 ff ff
	ff		 lea	 edi, DWORD PTR [ebp-204]
  00012	b9 33 00 00 00	 mov	 ecx, 51			; 00000033H
  00017	b8 cc cc cc cc	 mov	 eax, -858993460		; ccccccccH
  0001c	f3 ab		 rep stosd

; 3174 : 	// ????????????????雪????
; 3175 : 	if ( logOutFlag )

  0001e	83 3d 00 00 00
	00 00		 cmp	 DWORD PTR ?logOutFlag@@3HA, 0 ; logOutFlag
  00025	74 05		 je	 SHORT $LN2@lssproto_P

; 3176 : 		return;

  00027	e9 c6 00 00 00	 jmp	 $LN1@lssproto_P
$LN2@lssproto_P:

; 3177 : 
; 3178 : 	if ( request == 1 && result == 1 )

  0002c	83 7d 0c 01	 cmp	 DWORD PTR _request$[ebp], 1
  00030	75 10		 jne	 SHORT $LN3@lssproto_P
  00032	83 7d 10 01	 cmp	 DWORD PTR _result$[ebp], 1
  00036	75 0a		 jne	 SHORT $LN3@lssproto_P

; 3179 : 	{
; 3180 : 		// M????????V????G??
; 3181 : 		setPcParty();

  00038	e8 00 00 00 00	 call	 ?setPcParty@@YAXXZ	; setPcParty

; 3182 : 	}
; 3183 : 	else

  0003d	e9 a8 00 00 00	 jmp	 $LN4@lssproto_P
$LN3@lssproto_P:

; 3184 : 	if ( request == 0 && result == 1 )

  00042	83 7d 0c 00	 cmp	 DWORD PTR _request$[ebp], 0
  00046	0f 85 9e 00 00
	00		 jne	 $LN4@lssproto_P
  0004c	83 7d 10 01	 cmp	 DWORD PTR _result$[ebp], 1
  00050	0f 85 94 00 00
	00		 jne	 $LN4@lssproto_P

; 3185 : 	{
; 3186 : 		// ??????????
; 3187 : 		//delPcParty();
; 3188 : 		//delPcLeader();
; 3189 : 		partyModeFlag = 0;

  00056	33 c0		 xor	 eax, eax
  00058	66 a3 00 00 00
	00		 mov	 WORD PTR ?partyModeFlag@@3FA, ax ; partyModeFlag

; 3190 : 		clearPartyParam();

  0005e	e8 00 00 00 00	 call	 ?clearPartyParam@@YAXXZ	; clearPartyParam

; 3191 : #ifdef _CHANNEL_MODIFY
; 3192 : 		pc.etcFlag &= ~PC_ETCFLAG_CHAT_MODE;

  00063	0f b7 05 a8 00
	00 00		 movzx	 eax, WORD PTR ?pc@@3UPC@@A+168
  0006a	83 e0 f7	 and	 eax, -9			; fffffff7H
  0006d	66 a3 a8 00 00
	00		 mov	 WORD PTR ?pc@@3UPC@@A+168, ax

; 3193 : 		if (TalkMode == 2) TalkMode = 0;

  00073	83 3d 00 00 00
	00 02		 cmp	 DWORD PTR ?TalkMode@@3HA, 2 ; TalkMode
  0007a	75 0a		 jne	 SHORT $LN6@lssproto_P
  0007c	c7 05 00 00 00
	00 00 00 00 00	 mov	 DWORD PTR ?TalkMode@@3HA, 0 ; TalkMode
$LN6@lssproto_P:

; 3194 : #endif
; 3195 : 
; 3196 : 		char dir = (pc.dir+5) % 8;

  00086	a1 0c 00 00 00	 mov	 eax, DWORD PTR ?pc@@3UPC@@A+12
  0008b	83 c0 05	 add	 eax, 5
  0008e	25 07 00 00 80	 and	 eax, -2147483641	; 80000007H
  00093	79 05		 jns	 SHORT $LN10@lssproto_P
  00095	48		 dec	 eax
  00096	83 c8 f8	 or	 eax, -8			; fffffff8H
  00099	40		 inc	 eax
$LN10@lssproto_P:
  0009a	88 45 fb	 mov	 BYTE PTR _dir$1[ebp], al

; 3197 : 		if (bNewServer)

  0009d	83 3d 00 00 00
	00 00		 cmp	 DWORD PTR ?bNewServer@@3HA, 0 ; bNewServer
  000a4	74 23		 je	 SHORT $LN7@lssproto_P

; 3198 : 			lssproto_SP_send(sockfd, nextGx, nextGy, dir );

  000a6	0f be 45 fb	 movsx	 eax, BYTE PTR _dir$1[ebp]
  000aa	50		 push	 eax
  000ab	8b 0d 00 00 00
	00		 mov	 ecx, DWORD PTR ?nextGy@@3HA ; nextGy
  000b1	51		 push	 ecx
  000b2	8b 15 00 00 00
	00		 mov	 edx, DWORD PTR ?nextGx@@3HA ; nextGx
  000b8	52		 push	 edx
  000b9	a1 00 00 00 00	 mov	 eax, DWORD PTR ?sockfd@@3IA ; sockfd
  000be	50		 push	 eax
  000bf	e8 00 00 00 00	 call	 ?lssproto_SP_send@@YAXHHHH@Z ; lssproto_SP_send
  000c4	83 c4 10	 add	 esp, 16			; 00000010H

; 3199 : 		else

  000c7	eb 21		 jmp	 SHORT $LN4@lssproto_P
$LN7@lssproto_P:

; 3200 : 			old_lssproto_SP_send(sockfd, nextGx, nextGy, dir );

  000c9	0f be 45 fb	 movsx	 eax, BYTE PTR _dir$1[ebp]
  000cd	50		 push	 eax
  000ce	8b 0d 00 00 00
	00		 mov	 ecx, DWORD PTR ?nextGy@@3HA ; nextGy
  000d4	51		 push	 ecx
  000d5	8b 15 00 00 00
	00		 mov	 edx, DWORD PTR ?nextGx@@3HA ; nextGx
  000db	52		 push	 edx
  000dc	a1 00 00 00 00	 mov	 eax, DWORD PTR ?sockfd@@3IA ; sockfd
  000e1	50		 push	 eax
  000e2	e8 00 00 00 00	 call	 ?old_lssproto_SP_send@@YAXHHHH@Z ; old_lssproto_SP_send
  000e7	83 c4 10	 add	 esp, 16			; 00000010H
$LN4@lssproto_P:

; 3201 : 	}
; 3202 : 	prSendFlag = 0;

  000ea	33 c0		 xor	 eax, eax
  000ec	66 a3 00 00 00
	00		 mov	 WORD PTR ?prSendFlag@@3FA, ax ; prSendFlag
$LN1@lssproto_P:

; 3203 : }

  000f2	5f		 pop	 edi
  000f3	5e		 pop	 esi
  000f4	5b		 pop	 ebx
  000f5	81 c4 cc 00 00
	00		 add	 esp, 204		; 000000ccH
  000fb	3b ec		 cmp	 ebp, esp
  000fd	e8 00 00 00 00	 call	 __RTC_CheckEsp
  00102	8b e5		 mov	 esp, ebp
  00104	5d		 pop	 ebp
  00105	c3		 ret	 0
?lssproto_PR_recv@@YAXHHH@Z ENDP			; lssproto_PR_recv
_TEXT	ENDS
; Function compile flags: /Odtp /RTCsu /ZI
; File c:\users\administrator\desktop\????? ??\????? ??\client source code\system\netproc.cpp
;	COMDAT ?lssproto_HL_recv@@YAXHH@Z
_TEXT	SEGMENT
_fd$ = 8						; size = 4
_flg$ = 12						; size = 4
?lssproto_HL_recv@@YAXHH@Z PROC				; lssproto_HL_recv, COMDAT

; 3839 : {

  00000	55		 push	 ebp
  00001	8b ec		 mov	 ebp, esp
  00003	81 ec c0 00 00
	00		 sub	 esp, 192		; 000000c0H
  00009	53		 push	 ebx
  0000a	56		 push	 esi
  0000b	57		 push	 edi
  0000c	8d bd 40 ff ff
	ff		 lea	 edi, DWORD PTR [ebp-192]
  00012	b9 30 00 00 00	 mov	 ecx, 48			; 00000030H
  00017	b8 cc cc cc cc	 mov	 eax, -858993460		; ccccccccH
  0001c	f3 ab		 rep stosd

; 3840 : 	helpFlag = flg;

  0001e	66 8b 45 0c	 mov	 ax, WORD PTR _flg$[ebp]
  00022	66 a3 00 00 00
	00		 mov	 WORD PTR ?helpFlag@@3FA, ax ; helpFlag

; 3841 : }

  00028	5f		 pop	 edi
  00029	5e		 pop	 esi
  0002a	5b		 pop	 ebx
  0002b	8b e5		 mov	 esp, ebp
  0002d	5d		 pop	 ebp
  0002e	c3		 ret	 0
?lssproto_HL_recv@@YAXHH@Z ENDP				; lssproto_HL_recv
_TEXT	ENDS
; Function compile flags: /Odtp /RTCsu /ZI
; File c:\users\administrator\desktop\????? ??\????? ??\client source code\system\netproc.cpp
;	COMDAT ?lssproto_FS_recv@@YAXHH@Z
_TEXT	SEGMENT
_fd$ = 8						; size = 4
_flg$ = 12						; size = 4
?lssproto_FS_recv@@YAXHH@Z PROC				; lssproto_FS_recv, COMDAT

; 3246 : {

  00000	55		 push	 ebp
  00001	8b ec		 mov	 ebp, esp
  00003	81 ec c0 00 00
	00		 sub	 esp, 192		; 000000c0H
  00009	53		 push	 ebx
  0000a	56		 push	 esi
  0000b	57		 push	 edi
  0000c	8d bd 40 ff ff
	ff		 lea	 edi, DWORD PTR [ebp-192]
  00012	b9 30 00 00 00	 mov	 ecx, 48			; 00000030H
  00017	b8 cc cc cc cc	 mov	 eax, -858993460		; ccccccccH
  0001c	f3 ab		 rep stosd

; 3247 : 	// ????????????????雪????
; 3248 : 	if ( logOutFlag )

  0001e	83 3d 00 00 00
	00 00		 cmp	 DWORD PTR ?logOutFlag@@3HA, 0 ; logOutFlag
  00025	74 02		 je	 SHORT $LN2@lssproto_F

; 3249 : 		return;

  00027	eb 1a		 jmp	 SHORT $LN1@lssproto_F
$LN2@lssproto_F:

; 3250 : 
; 3251 : 	pc.etcFlag = (unsigned short)flg;

  00029	66 8b 45 0c	 mov	 ax, WORD PTR _flg$[ebp]
  0002d	66 a3 a8 00 00
	00		 mov	 WORD PTR ?pc@@3UPC@@A+168, ax

; 3252 : 	pc.etcFlag &= ~PC_ETCFLAG_JOINT_BTL;	// ??????G???

  00033	0f b7 05 a8 00
	00 00		 movzx	 eax, WORD PTR ?pc@@3UPC@@A+168
  0003a	83 e0 fd	 and	 eax, -3			; fffffffdH
  0003d	66 a3 a8 00 00
	00		 mov	 WORD PTR ?pc@@3UPC@@A+168, ax
$LN1@lssproto_F:

; 3253 : }

  00043	5f		 pop	 edi
  00044	5e		 pop	 esi
  00045	5b		 pop	 ebx
  00046	8b e5		 mov	 esp, ebp
  00048	5d		 pop	 ebp
  00049	c3		 ret	 0
?lssproto_FS_recv@@YAXHH@Z ENDP				; lssproto_FS_recv
_TEXT	ENDS
; Function compile flags: /Odtp /RTCsu /ZI
; File c:\users\administrator\desktop\????? ??\????? ??\client source code\system\netproc.cpp
;	COMDAT ?lssproto_D_recv@@YAXHHHHPAD@Z
_TEXT	SEGMENT
_fd$ = 8						; size = 4
_category$ = 12						; size = 4
_dx$ = 16						; size = 4
_dy$ = 20						; size = 4
_data$ = 24						; size = 4
?lssproto_D_recv@@YAXHHHHPAD@Z PROC			; lssproto_D_recv, COMDAT

; 4167 : {

  00000	55		 push	 ebp
  00001	8b ec		 mov	 ebp, esp
  00003	81 ec c0 00 00
	00		 sub	 esp, 192		; 000000c0H
  00009	53		 push	 ebx
  0000a	56		 push	 esi
  0000b	57		 push	 edi
  0000c	8d bd 40 ff ff
	ff		 lea	 edi, DWORD PTR [ebp-192]
  00012	b9 30 00 00 00	 mov	 ecx, 48			; 00000030H
  00017	b8 cc cc cc cc	 mov	 eax, -858993460		; ccccccccH
  0001c	f3 ab		 rep stosd

; 4168 : }

  0001e	5f		 pop	 edi
  0001f	5e		 pop	 esi
  00020	5b		 pop	 ebx
  00021	8b e5		 mov	 esp, ebp
  00023	5d		 pop	 ebp
  00024	c3		 ret	 0
?lssproto_D_recv@@YAXHHHHPAD@Z ENDP			; lssproto_D_recv
_TEXT	ENDS
; Function compile flags: /Odtp /RTCsu /ZI
; File c:\users\administrator\desktop\????? ??\????? ??\client source code\system\netproc.cpp
;	COMDAT ?lssproto_S_recv@@YAXHPAD@Z
_TEXT	SEGMENT
tv68 = -4788						; size = 4
_szData$1 = -3436					; size = 256
_nPetIndex$2 = -3172					; size = 4
_no$3 = -3160						; size = 4
_i$4 = -3148						; size = 4
_count$5 = -3136					; size = 4
_i$6 = -3124						; size = 4
_memo$7 = -3112						; size = 85
_name$8 = -3016						; size = 17
_temp$9 = -2988						; size = 256
_no2$10 = -2724						; size = 4
_no$11 = -2712						; size = 4
_i$12 = -2700						; size = 4
_temp$13 = -2688					; size = 256
_no$14 = -2424						; size = 4
_i$15 = -2412						; size = 4
_mask$16 = -2400					; size = 4
_no2$17 = -2388						; size = 4
_gy$18 = -2376						; size = 4
_gx$19 = -2364						; size = 4
_checkPartyCount$20 = -2352				; size = 4
_i$21 = -2340						; size = 4
_kubun$22 = -2328					; size = 4
_no$23 = -2316						; size = 4
_name$24 = -2304					; size = 256
_ptAct$25 = -2040					; size = 4
_no$26 = -2028						; size = 4
_memo$27 = -2016					; size = 256
_name$28 = -1752					; size = 256
_temp2$29 = -1488					; size = 4
_绑定标志$30 = -1476					; size = 2
_mask$31 = -1464					; size = 4
_i$32 = -1452						; size = 4
_kubun$33 = -1440					; size = 4
_no$34 = -1428						; size = 4
_freeName$35 = -1416					; size = 256
_name$36 = -1152					; size = 256
_familyName$37 = -888					; size = 256
_mask$38 = -624						; size = 4
_kubun$39 = -612					; size = 4
_i$40 = -600						; size = 4
_freeName$41 = -588					; size = 256
_name$42 = -324						; size = 256
_gy$43 = -60						; size = 4
_gx$44 = -48						; size = 4
_maxy$45 = -36						; size = 4
_maxx$46 = -24						; size = 4
_fl$47 = -12						; size = 4
__$ArrayPad$ = -4					; size = 4
_fd$ = 8						; size = 4
_data$ = 12						; size = 4
?lssproto_S_recv@@YAXHPAD@Z PROC			; lssproto_S_recv, COMDAT

; 880  : void lssproto_S_recv(int fd, char *data){

  00000	55		 push	 ebp
  00001	8b ec		 mov	 ebp, esp
  00003	b8 b4 12 00 00	 mov	 eax, 4788		; 000012b4H
  00008	e8 00 00 00 00	 call	 __chkstk
  0000d	53		 push	 ebx
  0000e	56		 push	 esi
  0000f	57		 push	 edi
  00010	8d bd 4c ed ff
	ff		 lea	 edi, DWORD PTR [ebp-4788]
  00016	b9 ad 04 00 00	 mov	 ecx, 1197		; 000004adH
  0001b	b8 cc cc cc cc	 mov	 eax, -858993460		; ccccccccH
  00020	f3 ab		 rep stosd
  00022	a1 00 00 00 00	 mov	 eax, DWORD PTR ___security_cookie
  00027	33 c5		 xor	 eax, ebp
  00029	89 45 fc	 mov	 DWORD PTR __$ArrayPad$[ebp], eax

; 881  : 	if (logOutFlag)

  0002c	83 3d 00 00 00
	00 00		 cmp	 DWORD PTR ?logOutFlag@@3HA, 0 ; logOutFlag
  00033	74 05		 je	 SHORT $LN34@lssproto_S

; 882  : 		return;

  00035	e9 dc 31 00 00	 jmp	 $LN1@lssproto_S
$LN34@lssproto_S:

; 883  : 	switch (data[0]){

  0003a	b8 01 00 00 00	 mov	 eax, 1
  0003f	6b c8 00	 imul	 ecx, eax, 0
  00042	8b 55 0c	 mov	 edx, DWORD PTR _data$[ebp]
  00045	0f be 04 0a	 movsx	 eax, BYTE PTR [edx+ecx]
  00049	89 85 4c ed ff
	ff		 mov	 DWORD PTR tv68[ebp], eax
  0004f	8b 8d 4c ed ff
	ff		 mov	 ecx, DWORD PTR tv68[ebp]
  00055	83 e9 42	 sub	 ecx, 66			; 00000042H
  00058	89 8d 4c ed ff
	ff		 mov	 DWORD PTR tv68[ebp], ecx
  0005e	83 bd 4c ed ff
	ff 16		 cmp	 DWORD PTR tv68[ebp], 22	; 00000016H
  00065	0f 87 ab 31 00
	00		 ja	 $LN1@lssproto_S
  0006b	8b 95 4c ed ff
	ff		 mov	 edx, DWORD PTR tv68[ebp]
  00071	ff 24 95 00 00
	00 00		 jmp	 DWORD PTR $LN260@lssproto_S[edx*4]
$LN35@lssproto_S:

; 884  : 		case 'C':
; 885  : 		{
; 886  : 			int fl, maxx, maxy, gx, gy;
; 887  : 
; 888  : 			floorChangeFlag = TRUE;

  00078	c7 05 00 00 00
	00 01 00 00 00	 mov	 DWORD PTR ?floorChangeFlag@@3HA, 1 ; floorChangeFlag

; 889  : 			if (!loginFlag && ProcNo == PROC_GAME){

  00082	83 3d 00 00 00
	00 00		 cmp	 DWORD PTR ?loginFlag@@3HA, 0 ; loginFlag
  00089	75 55		 jne	 SHORT $LN36@lssproto_S
  0008b	83 3d 00 00 00
	00 09		 cmp	 DWORD PTR ?ProcNo@@3IA, 9 ; ProcNo
  00092	75 4c		 jne	 SHORT $LN36@lssproto_S

; 890  : 				if (!warpEffectFlag){				

  00094	83 3d 00 00 00
	00 00		 cmp	 DWORD PTR ?warpEffectFlag@@3HA, 0 ; warpEffectFlag
  0009b	75 2a		 jne	 SHORT $LN37@lssproto_S

; 891  : 					SubProcNo = 200;

  0009d	c7 05 00 00 00
	00 c8 00 00 00	 mov	 DWORD PTR ?SubProcNo@@3IA, 200 ; SubProcNo, 000000c8H

; 892  : 					//JLWG 回记录点特效去除
; 893  : 					JL_关闭特效_回记录点();

  000a7	e8 00 00 00 00	 call	 ?JL_关闭特效_回记录点@@YAXXZ ; JL_关闭特效_回记录点

; 894  : 					warpEffectProc();

  000ac	e8 00 00 00 00	 call	 ?warpEffectProc@@YAXXZ	; warpEffectProc

; 895  : 					if (MenuToggleFlag & JOY_CTRL_M)

  000b1	a1 00 00 00 00	 mov	 eax, DWORD PTR ?MenuToggleFlag@@3IA ; MenuToggleFlag
  000b6	25 00 00 00 40	 and	 eax, 1073741824		; 40000000H
  000bb	74 0a		 je	 SHORT $LN37@lssproto_S

; 896  : 						MapWmdFlagBak = TRUE;

  000bd	c7 05 00 00 00
	00 01 00 00 00	 mov	 DWORD PTR ?MapWmdFlagBak@@3HA, 1 ; MapWmdFlagBak
$LN37@lssproto_S:

; 897  : 				}
; 898  : 				resetPc();

  000c7	e8 00 00 00 00	 call	 ?resetPc@@YAXXZ		; resetPc

; 899  : 				warpEffectFlag = FALSE;

  000cc	c7 05 00 00 00
	00 00 00 00 00	 mov	 DWORD PTR ?warpEffectFlag@@3HA, 0 ; warpEffectFlag

; 900  : 				warpEffectStart = TRUE;

  000d6	c7 05 00 00 00
	00 01 00 00 00	 mov	 DWORD PTR ?warpEffectStart@@3HA, 1 ; warpEffectStart
$LN36@lssproto_S:

; 901  : 
; 902  : 			}
; 903  : 			data++;

  000e0	8b 45 0c	 mov	 eax, DWORD PTR _data$[ebp]
  000e3	83 c0 01	 add	 eax, 1
  000e6	89 45 0c	 mov	 DWORD PTR _data$[ebp], eax

; 904  : 			fl   = getIntegerToken(data, S_DELIM, 1);

  000e9	6a 01		 push	 1
  000eb	6a 7c		 push	 124			; 0000007cH
  000ed	8b 45 0c	 mov	 eax, DWORD PTR _data$[ebp]
  000f0	50		 push	 eax
  000f1	e8 00 00 00 00	 call	 ?getIntegerToken@@YAHPADDH@Z ; getIntegerToken
  000f6	83 c4 0c	 add	 esp, 12			; 0000000cH
  000f9	89 45 f4	 mov	 DWORD PTR _fl$47[ebp], eax

; 905  : 			maxx = getIntegerToken(data, S_DELIM, 2);

  000fc	6a 02		 push	 2
  000fe	6a 7c		 push	 124			; 0000007cH
  00100	8b 45 0c	 mov	 eax, DWORD PTR _data$[ebp]
  00103	50		 push	 eax
  00104	e8 00 00 00 00	 call	 ?getIntegerToken@@YAHPADDH@Z ; getIntegerToken
  00109	83 c4 0c	 add	 esp, 12			; 0000000cH
  0010c	89 45 e8	 mov	 DWORD PTR _maxx$46[ebp], eax

; 906  : 			maxy = getIntegerToken(data, S_DELIM, 3);

  0010f	6a 03		 push	 3
  00111	6a 7c		 push	 124			; 0000007cH
  00113	8b 45 0c	 mov	 eax, DWORD PTR _data$[ebp]
  00116	50		 push	 eax
  00117	e8 00 00 00 00	 call	 ?getIntegerToken@@YAHPADDH@Z ; getIntegerToken
  0011c	83 c4 0c	 add	 esp, 12			; 0000000cH
  0011f	89 45 dc	 mov	 DWORD PTR _maxy$45[ebp], eax

; 907  : 			gx   = getIntegerToken(data, S_DELIM, 4);

  00122	6a 04		 push	 4
  00124	6a 7c		 push	 124			; 0000007cH
  00126	8b 45 0c	 mov	 eax, DWORD PTR _data$[ebp]
  00129	50		 push	 eax
  0012a	e8 00 00 00 00	 call	 ?getIntegerToken@@YAHPADDH@Z ; getIntegerToken
  0012f	83 c4 0c	 add	 esp, 12			; 0000000cH
  00132	89 45 d0	 mov	 DWORD PTR _gx$44[ebp], eax

; 908  : 			gy   = getIntegerToken(data, S_DELIM, 5);

  00135	6a 05		 push	 5
  00137	6a 7c		 push	 124			; 0000007cH
  00139	8b 45 0c	 mov	 eax, DWORD PTR _data$[ebp]
  0013c	50		 push	 eax
  0013d	e8 00 00 00 00	 call	 ?getIntegerToken@@YAHPADDH@Z ; getIntegerToken
  00142	83 c4 0c	 add	 esp, 12			; 0000000cH
  00145	89 45 c4	 mov	 DWORD PTR _gy$43[ebp], eax

; 909  : 			setMap(fl, gx, gy);

  00148	8b 45 c4	 mov	 eax, DWORD PTR _gy$43[ebp]
  0014b	50		 push	 eax
  0014c	8b 4d d0	 mov	 ecx, DWORD PTR _gx$44[ebp]
  0014f	51		 push	 ecx
  00150	8b 55 f4	 mov	 edx, DWORD PTR _fl$47[ebp]
  00153	52		 push	 edx
  00154	e8 00 00 00 00	 call	 ?setMap@@YAXHHH@Z	; setMap
  00159	83 c4 0c	 add	 esp, 12			; 0000000cH

; 910  : 			createMap(fl, maxx, maxy);

  0015c	8b 45 dc	 mov	 eax, DWORD PTR _maxy$45[ebp]
  0015f	50		 push	 eax
  00160	8b 4d e8	 mov	 ecx, DWORD PTR _maxx$46[ebp]
  00163	51		 push	 ecx
  00164	8b 55 f4	 mov	 edx, DWORD PTR _fl$47[ebp]
  00167	52		 push	 edx
  00168	e8 00 00 00 00	 call	 ?createMap@@YAXHHH@Z	; createMap
  0016d	83 c4 0c	 add	 esp, 12			; 0000000cH

; 911  : 			nowFloorGxSize = maxx;

  00170	8b 45 e8	 mov	 eax, DWORD PTR _maxx$46[ebp]
  00173	a3 00 00 00 00	 mov	 DWORD PTR ?nowFloorGxSize@@3HA, eax ; nowFloorGxSize

; 912  : 			nowFloorGySize = maxy;

  00178	8b 45 dc	 mov	 eax, DWORD PTR _maxy$45[ebp]
  0017b	a3 00 00 00 00	 mov	 DWORD PTR ?nowFloorGySize@@3HA, eax ; nowFloorGySize

; 913  : 			resetCharObj();

  00180	e8 00 00 00 00	 call	 ?resetCharObj@@YAXXZ	; resetCharObj

; 914  : 			mapEmptyFlag = FALSE;

  00185	c7 05 00 00 00
	00 00 00 00 00	 mov	 DWORD PTR ?mapEmptyFlag@@3HA, 0 ; mapEmptyFlag

; 915  : 			nowEncountPercentage = minEncountPercentage;

  0018f	66 a1 00 00 00
	00		 mov	 ax, WORD PTR ?minEncountPercentage@@3FA ; minEncountPercentage
  00195	66 a3 00 00 00
	00		 mov	 WORD PTR ?nowEncountPercentage@@3FA, ax ; nowEncountPercentage

; 916  : 			nowEncountExtra = 0;

  0019b	33 c0		 xor	 eax, eax
  0019d	66 a3 00 00 00
	00		 mov	 WORD PTR ?nowEncountExtra@@3FA, ax ; nowEncountExtra

; 917  : 			resetMap();

  001a3	e8 00 00 00 00	 call	 ?resetMap@@YAXXZ	; resetMap

; 918  : 			transmigrationEffectFlag = 0;

  001a8	c7 05 00 00 00
	00 00 00 00 00	 mov	 DWORD PTR ?transmigrationEffectFlag@@3HA, 0 ; transmigrationEffectFlag

; 919  : 			//JL fix 2017.9.22 切地图时,将组队的act都清0,这样打精灵王以及过地图就不崩了
; 920  : 			clearPtActPartyParam();

  001b2	e8 00 00 00 00	 call	 ?clearPtActPartyParam@@YAXXZ ; clearPtActPartyParam

; 921  :             break;

  001b7	e9 5a 30 00 00	 jmp	 $LN1@lssproto_S
$LN39@lssproto_S:

; 922  : 		}
; 923  : 		case 'D':
; 924  : 			data++;

  001bc	8b 45 0c	 mov	 eax, DWORD PTR _data$[ebp]
  001bf	83 c0 01	 add	 eax, 1
  001c2	89 45 0c	 mov	 DWORD PTR _data$[ebp], eax

; 925  : 			setPcId(getIntegerToken(data, S_DELIM, 1));

  001c5	6a 01		 push	 1
  001c7	6a 7c		 push	 124			; 0000007cH
  001c9	8b 45 0c	 mov	 eax, DWORD PTR _data$[ebp]
  001cc	50		 push	 eax
  001cd	e8 00 00 00 00	 call	 ?getIntegerToken@@YAHPADDH@Z ; getIntegerToken
  001d2	83 c4 0c	 add	 esp, 12			; 0000000cH
  001d5	50		 push	 eax
  001d6	e8 00 00 00 00	 call	 ?setPcId@@YAXH@Z	; setPcId
  001db	83 c4 04	 add	 esp, 4

; 926  : 			serverTime = getIntegerToken(data, S_DELIM, 2);

  001de	6a 02		 push	 2
  001e0	6a 7c		 push	 124			; 0000007cH
  001e2	8b 45 0c	 mov	 eax, DWORD PTR _data$[ebp]
  001e5	50		 push	 eax
  001e6	e8 00 00 00 00	 call	 ?getIntegerToken@@YAHPADDH@Z ; getIntegerToken
  001eb	83 c4 0c	 add	 esp, 12			; 0000000cH
  001ee	a3 00 00 00 00	 mov	 DWORD PTR ?serverTime@@3JA, eax ; serverTime

; 927  : 			FirstTime = TimeGetTime();

  001f3	e8 00 00 00 00	 call	 ?TimeGetTime@@YAIXZ	; TimeGetTime
  001f8	a3 00 00 00 00	 mov	 DWORD PTR ?FirstTime@@3JA, eax ; FirstTime

; 928  : 			RealTimeToSATime(&SaTime);

  001fd	68 00 00 00 00	 push	 OFFSET ?SaTime@@3UtagLSTIME@@A ; SaTime
  00202	e8 00 00 00 00	 call	 ?RealTimeToSATime@@YAXPAUtagLSTIME@@@Z ; RealTimeToSATime
  00207	83 c4 04	 add	 esp, 4

; 929  : 			SaTimeZoneNo = getLSTime(&SaTime);

  0020a	68 00 00 00 00	 push	 OFFSET ?SaTime@@3UtagLSTIME@@A ; SaTime
  0020f	e8 00 00 00 00	 call	 ?getLSTime@@YA?AW4LSTIME_SECTION@@PAUtagLSTIME@@@Z ; getLSTime
  00214	83 c4 04	 add	 esp, 4
  00217	a3 00 00 00 00	 mov	 DWORD PTR ?SaTimeZoneNo@@3HA, eax ; SaTimeZoneNo

; 930  : 			PaletteChange(SaTimeZoneNo, 0);

  0021c	6a 00		 push	 0
  0021e	a1 00 00 00 00	 mov	 eax, DWORD PTR ?SaTimeZoneNo@@3HA ; SaTimeZoneNo
  00223	50		 push	 eax
  00224	e8 00 00 00 00	 call	 ?PaletteChange@@YAXHH@Z	; PaletteChange
  00229	83 c4 08	 add	 esp, 8

; 931  : 			break;

  0022c	e9 e5 2f 00 00	 jmp	 $LN1@lssproto_S
$LN40@lssproto_S:

; 932  : 		//andy_add
; 933  : 		case 'X':
; 934  : 			pc.lowsride = getIntegerToken(data, S_DELIM, 2);

  00231	6a 02		 push	 2
  00233	6a 7c		 push	 124			; 0000007cH
  00235	8b 45 0c	 mov	 eax, DWORD PTR _data$[ebp]
  00238	50		 push	 eax
  00239	e8 00 00 00 00	 call	 ?getIntegerToken@@YAHPADDH@Z ; getIntegerToken
  0023e	83 c4 0c	 add	 esp, 12			; 0000000cH
  00241	a3 20 51 00 00	 mov	 DWORD PTR ?pc@@3UPC@@A+20768, eax

; 935  : 			break;

  00246	e9 cb 2f 00 00	 jmp	 $LN1@lssproto_S
$LN41@lssproto_S:

; 936  : 		case 'P':
; 937  : 			{
; 938  : 				char name[256], freeName[256];
; 939  : 				int i, kubun;
; 940  : 				unsigned int mask;
; 941  : 
; 942  : 				data++;

  0024b	8b 45 0c	 mov	 eax, DWORD PTR _data$[ebp]
  0024e	83 c0 01	 add	 eax, 1
  00251	89 45 0c	 mov	 DWORD PTR _data$[ebp], eax

; 943  : 				kubun = getInteger62Token(data, S_DELIM, 1);

  00254	6a 01		 push	 1
  00256	6a 7c		 push	 124			; 0000007cH
  00258	8b 45 0c	 mov	 eax, DWORD PTR _data$[ebp]
  0025b	50		 push	 eax
  0025c	e8 00 00 00 00	 call	 ?getInteger62Token@@YAHPADDH@Z ; getInteger62Token
  00261	83 c4 0c	 add	 esp, 12			; 0000000cH
  00264	89 85 9c fd ff
	ff		 mov	 DWORD PTR _kubun$39[ebp], eax

; 944  : 				if (!bNewServer)

  0026a	83 3d 00 00 00
	00 00		 cmp	 DWORD PTR ?bNewServer@@3HA, 0 ; bNewServer
  00271	75 0a		 jne	 SHORT $LN42@lssproto_S

; 945  : 					pc.ridePetNo = -1;

  00273	c7 05 18 51 00
	00 ff ff ff ff	 mov	 DWORD PTR ?pc@@3UPC@@A+20760, -1
$LN42@lssproto_S:

; 946  : 				if (kubun == 1)

  0027d	83 bd 9c fd ff
	ff 01		 cmp	 DWORD PTR _kubun$39[ebp], 1
  00284	0f 85 f8 02 00
	00		 jne	 $LN43@lssproto_S

; 947  : 				{
; 948  : 					pc.hp		= getIntegerToken(data, S_DELIM, 2);		// 0x00000002

  0028a	6a 02		 push	 2
  0028c	6a 7c		 push	 124			; 0000007cH
  0028e	8b 45 0c	 mov	 eax, DWORD PTR _data$[ebp]
  00291	50		 push	 eax
  00292	e8 00 00 00 00	 call	 ?getIntegerToken@@YAHPADDH@Z ; getIntegerToken
  00297	83 c4 0c	 add	 esp, 12			; 0000000cH
  0029a	a3 10 00 00 00	 mov	 DWORD PTR ?pc@@3UPC@@A+16, eax

; 949  : 					pc.maxHp	= getIntegerToken(data, S_DELIM, 3);		// 0x00000004

  0029f	6a 03		 push	 3
  002a1	6a 7c		 push	 124			; 0000007cH
  002a3	8b 45 0c	 mov	 eax, DWORD PTR _data$[ebp]
  002a6	50		 push	 eax
  002a7	e8 00 00 00 00	 call	 ?getIntegerToken@@YAHPADDH@Z ; getIntegerToken
  002ac	83 c4 0c	 add	 esp, 12			; 0000000cH
  002af	a3 14 00 00 00	 mov	 DWORD PTR ?pc@@3UPC@@A+20, eax

; 950  : 					pc.mp		= getIntegerToken(data, S_DELIM, 4);		// 0x00000008

  002b4	6a 04		 push	 4
  002b6	6a 7c		 push	 124			; 0000007cH
  002b8	8b 45 0c	 mov	 eax, DWORD PTR _data$[ebp]
  002bb	50		 push	 eax
  002bc	e8 00 00 00 00	 call	 ?getIntegerToken@@YAHPADDH@Z ; getIntegerToken
  002c1	83 c4 0c	 add	 esp, 12			; 0000000cH
  002c4	a3 18 00 00 00	 mov	 DWORD PTR ?pc@@3UPC@@A+24, eax

; 951  : 					pc.maxMp	= getIntegerToken(data, S_DELIM, 5);		// 0x00000010

  002c9	6a 05		 push	 5
  002cb	6a 7c		 push	 124			; 0000007cH
  002cd	8b 45 0c	 mov	 eax, DWORD PTR _data$[ebp]
  002d0	50		 push	 eax
  002d1	e8 00 00 00 00	 call	 ?getIntegerToken@@YAHPADDH@Z ; getIntegerToken
  002d6	83 c4 0c	 add	 esp, 12			; 0000000cH
  002d9	a3 1c 00 00 00	 mov	 DWORD PTR ?pc@@3UPC@@A+28, eax

; 952  : 					pc.vital	= getIntegerToken(data, S_DELIM, 6);		// 0x00000020

  002de	6a 06		 push	 6
  002e0	6a 7c		 push	 124			; 0000007cH
  002e2	8b 45 0c	 mov	 eax, DWORD PTR _data$[ebp]
  002e5	50		 push	 eax
  002e6	e8 00 00 00 00	 call	 ?getIntegerToken@@YAHPADDH@Z ; getIntegerToken
  002eb	83 c4 0c	 add	 esp, 12			; 0000000cH
  002ee	a3 20 00 00 00	 mov	 DWORD PTR ?pc@@3UPC@@A+32, eax

; 953  : 					pc.str		= getIntegerToken(data, S_DELIM, 7);		// 0x00000040

  002f3	6a 07		 push	 7
  002f5	6a 7c		 push	 124			; 0000007cH
  002f7	8b 45 0c	 mov	 eax, DWORD PTR _data$[ebp]
  002fa	50		 push	 eax
  002fb	e8 00 00 00 00	 call	 ?getIntegerToken@@YAHPADDH@Z ; getIntegerToken
  00300	83 c4 0c	 add	 esp, 12			; 0000000cH
  00303	a3 24 00 00 00	 mov	 DWORD PTR ?pc@@3UPC@@A+36, eax

; 954  : 					pc.tgh		= getIntegerToken(data, S_DELIM, 8);		// 0x00000080

  00308	6a 08		 push	 8
  0030a	6a 7c		 push	 124			; 0000007cH
  0030c	8b 45 0c	 mov	 eax, DWORD PTR _data$[ebp]
  0030f	50		 push	 eax
  00310	e8 00 00 00 00	 call	 ?getIntegerToken@@YAHPADDH@Z ; getIntegerToken
  00315	83 c4 0c	 add	 esp, 12			; 0000000cH
  00318	a3 28 00 00 00	 mov	 DWORD PTR ?pc@@3UPC@@A+40, eax

; 955  : 					pc.dex		= getIntegerToken(data, S_DELIM, 9);		// 0x00000100

  0031d	6a 09		 push	 9
  0031f	6a 7c		 push	 124			; 0000007cH
  00321	8b 45 0c	 mov	 eax, DWORD PTR _data$[ebp]
  00324	50		 push	 eax
  00325	e8 00 00 00 00	 call	 ?getIntegerToken@@YAHPADDH@Z ; getIntegerToken
  0032a	83 c4 0c	 add	 esp, 12			; 0000000cH
  0032d	a3 2c 00 00 00	 mov	 DWORD PTR ?pc@@3UPC@@A+44, eax

; 956  : 					pc.exp		= getIntegerToken(data, S_DELIM, 10);		// 0x00000200

  00332	6a 0a		 push	 10			; 0000000aH
  00334	6a 7c		 push	 124			; 0000007cH
  00336	8b 45 0c	 mov	 eax, DWORD PTR _data$[ebp]
  00339	50		 push	 eax
  0033a	e8 00 00 00 00	 call	 ?getIntegerToken@@YAHPADDH@Z ; getIntegerToken
  0033f	83 c4 0c	 add	 esp, 12			; 0000000cH
  00342	a3 30 00 00 00	 mov	 DWORD PTR ?pc@@3UPC@@A+48, eax

; 957  : 					pc.maxExp	= getIntegerToken(data, S_DELIM, 11);		// 0x00000400

  00347	6a 0b		 push	 11			; 0000000bH
  00349	6a 7c		 push	 124			; 0000007cH
  0034b	8b 45 0c	 mov	 eax, DWORD PTR _data$[ebp]
  0034e	50		 push	 eax
  0034f	e8 00 00 00 00	 call	 ?getIntegerToken@@YAHPADDH@Z ; getIntegerToken
  00354	83 c4 0c	 add	 esp, 12			; 0000000cH
  00357	a3 34 00 00 00	 mov	 DWORD PTR ?pc@@3UPC@@A+52, eax

; 958  : 					pc.level	= getIntegerToken(data, S_DELIM, 12);		// 0x00000800

  0035c	6a 0c		 push	 12			; 0000000cH
  0035e	6a 7c		 push	 124			; 0000007cH
  00360	8b 45 0c	 mov	 eax, DWORD PTR _data$[ebp]
  00363	50		 push	 eax
  00364	e8 00 00 00 00	 call	 ?getIntegerToken@@YAHPADDH@Z ; getIntegerToken
  00369	83 c4 0c	 add	 esp, 12			; 0000000cH
  0036c	a3 38 00 00 00	 mov	 DWORD PTR ?pc@@3UPC@@A+56, eax

; 959  : 					pc.atk		= getIntegerToken(data, S_DELIM, 13);		// 0x00001000

  00371	6a 0d		 push	 13			; 0000000dH
  00373	6a 7c		 push	 124			; 0000007cH
  00375	8b 45 0c	 mov	 eax, DWORD PTR _data$[ebp]
  00378	50		 push	 eax
  00379	e8 00 00 00 00	 call	 ?getIntegerToken@@YAHPADDH@Z ; getIntegerToken
  0037e	83 c4 0c	 add	 esp, 12			; 0000000cH
  00381	a3 3c 00 00 00	 mov	 DWORD PTR ?pc@@3UPC@@A+60, eax

; 960  : 					pc.def		= getIntegerToken(data, S_DELIM, 14);		// 0x00002000

  00386	6a 0e		 push	 14			; 0000000eH
  00388	6a 7c		 push	 124			; 0000007cH
  0038a	8b 45 0c	 mov	 eax, DWORD PTR _data$[ebp]
  0038d	50		 push	 eax
  0038e	e8 00 00 00 00	 call	 ?getIntegerToken@@YAHPADDH@Z ; getIntegerToken
  00393	83 c4 0c	 add	 esp, 12			; 0000000cH
  00396	a3 40 00 00 00	 mov	 DWORD PTR ?pc@@3UPC@@A+64, eax

; 961  : 					pc.quick	= getIntegerToken(data, S_DELIM, 15);		// 0x00004000

  0039b	6a 0f		 push	 15			; 0000000fH
  0039d	6a 7c		 push	 124			; 0000007cH
  0039f	8b 45 0c	 mov	 eax, DWORD PTR _data$[ebp]
  003a2	50		 push	 eax
  003a3	e8 00 00 00 00	 call	 ?getIntegerToken@@YAHPADDH@Z ; getIntegerToken
  003a8	83 c4 0c	 add	 esp, 12			; 0000000cH
  003ab	a3 44 00 00 00	 mov	 DWORD PTR ?pc@@3UPC@@A+68, eax

; 962  : 					pc.charm	= getIntegerToken(data, S_DELIM, 16);		// 0x00008000

  003b0	6a 10		 push	 16			; 00000010H
  003b2	6a 7c		 push	 124			; 0000007cH
  003b4	8b 45 0c	 mov	 eax, DWORD PTR _data$[ebp]
  003b7	50		 push	 eax
  003b8	e8 00 00 00 00	 call	 ?getIntegerToken@@YAHPADDH@Z ; getIntegerToken
  003bd	83 c4 0c	 add	 esp, 12			; 0000000cH
  003c0	a3 48 00 00 00	 mov	 DWORD PTR ?pc@@3UPC@@A+72, eax

; 963  : 					pc.luck		= getIntegerToken(data, S_DELIM, 17);		// 0x00010000

  003c5	6a 11		 push	 17			; 00000011H
  003c7	6a 7c		 push	 124			; 0000007cH
  003c9	8b 45 0c	 mov	 eax, DWORD PTR _data$[ebp]
  003cc	50		 push	 eax
  003cd	e8 00 00 00 00	 call	 ?getIntegerToken@@YAHPADDH@Z ; getIntegerToken
  003d2	83 c4 0c	 add	 esp, 12			; 0000000cH
  003d5	a3 4c 00 00 00	 mov	 DWORD PTR ?pc@@3UPC@@A+76, eax

; 964  : 					pc.earth	= getIntegerToken(data, S_DELIM, 18);		// 0x00020000

  003da	6a 12		 push	 18			; 00000012H
  003dc	6a 7c		 push	 124			; 0000007cH
  003de	8b 45 0c	 mov	 eax, DWORD PTR _data$[ebp]
  003e1	50		 push	 eax
  003e2	e8 00 00 00 00	 call	 ?getIntegerToken@@YAHPADDH@Z ; getIntegerToken
  003e7	83 c4 0c	 add	 esp, 12			; 0000000cH
  003ea	a3 50 00 00 00	 mov	 DWORD PTR ?pc@@3UPC@@A+80, eax

; 965  : 					pc.water	= getIntegerToken(data, S_DELIM, 19);		// 0x00040000

  003ef	6a 13		 push	 19			; 00000013H
  003f1	6a 7c		 push	 124			; 0000007cH
  003f3	8b 45 0c	 mov	 eax, DWORD PTR _data$[ebp]
  003f6	50		 push	 eax
  003f7	e8 00 00 00 00	 call	 ?getIntegerToken@@YAHPADDH@Z ; getIntegerToken
  003fc	83 c4 0c	 add	 esp, 12			; 0000000cH
  003ff	a3 54 00 00 00	 mov	 DWORD PTR ?pc@@3UPC@@A+84, eax

; 966  : 					pc.fire		= getIntegerToken(data, S_DELIM, 20);		// 0x00080000

  00404	6a 14		 push	 20			; 00000014H
  00406	6a 7c		 push	 124			; 0000007cH
  00408	8b 45 0c	 mov	 eax, DWORD PTR _data$[ebp]
  0040b	50		 push	 eax
  0040c	e8 00 00 00 00	 call	 ?getIntegerToken@@YAHPADDH@Z ; getIntegerToken
  00411	83 c4 0c	 add	 esp, 12			; 0000000cH
  00414	a3 58 00 00 00	 mov	 DWORD PTR ?pc@@3UPC@@A+88, eax

; 967  : 					pc.wind		= getIntegerToken(data, S_DELIM, 21);		// 0x00100000

  00419	6a 15		 push	 21			; 00000015H
  0041b	6a 7c		 push	 124			; 0000007cH
  0041d	8b 45 0c	 mov	 eax, DWORD PTR _data$[ebp]
  00420	50		 push	 eax
  00421	e8 00 00 00 00	 call	 ?getIntegerToken@@YAHPADDH@Z ; getIntegerToken
  00426	83 c4 0c	 add	 esp, 12			; 0000000cH
  00429	a3 5c 00 00 00	 mov	 DWORD PTR ?pc@@3UPC@@A+92, eax

; 968  : 					pc.gold		= getIntegerToken(data, S_DELIM, 22);		// 0x00200000

  0042e	6a 16		 push	 22			; 00000016H
  00430	6a 7c		 push	 124			; 0000007cH
  00432	8b 45 0c	 mov	 eax, DWORD PTR _data$[ebp]
  00435	50		 push	 eax
  00436	e8 00 00 00 00	 call	 ?getIntegerToken@@YAHPADDH@Z ; getIntegerToken
  0043b	83 c4 0c	 add	 esp, 12			; 0000000cH
  0043e	a3 60 00 00 00	 mov	 DWORD PTR ?pc@@3UPC@@A+96, eax

; 969  : 					pc.titleNo	= getIntegerToken(data, S_DELIM, 23);		// 0x00400000

  00443	6a 17		 push	 23			; 00000017H
  00445	6a 7c		 push	 124			; 0000007cH
  00447	8b 45 0c	 mov	 eax, DWORD PTR _data$[ebp]
  0044a	50		 push	 eax
  0044b	e8 00 00 00 00	 call	 ?getIntegerToken@@YAHPADDH@Z ; getIntegerToken
  00450	83 c4 0c	 add	 esp, 12			; 0000000cH
  00453	a3 68 00 00 00	 mov	 DWORD PTR ?pc@@3UPC@@A+104, eax

; 970  : 					pc.dp		= getIntegerToken(data, S_DELIM, 24);		// 0x00800000

  00458	6a 18		 push	 24			; 00000018H
  0045a	6a 7c		 push	 124			; 0000007cH
  0045c	8b 45 0c	 mov	 eax, DWORD PTR _data$[ebp]
  0045f	50		 push	 eax
  00460	e8 00 00 00 00	 call	 ?getIntegerToken@@YAHPADDH@Z ; getIntegerToken
  00465	83 c4 0c	 add	 esp, 12			; 0000000cH
  00468	a3 6c 00 00 00	 mov	 DWORD PTR ?pc@@3UPC@@A+108, eax

; 971  : 					pc.transmigration = getIntegerToken(data, S_DELIM, 25);// 0x01000000

  0046d	6a 19		 push	 25			; 00000019H
  0046f	6a 7c		 push	 124			; 0000007cH
  00471	8b 45 0c	 mov	 eax, DWORD PTR _data$[ebp]
  00474	50		 push	 eax
  00475	e8 00 00 00 00	 call	 ?getIntegerToken@@YAHPADDH@Z ; getIntegerToken
  0047a	83 c4 0c	 add	 esp, 12			; 0000000cH
  0047d	66 a3 f4 50 00
	00		 mov	 WORD PTR ?pc@@3UPC@@A+20724, ax

; 972  : 					pc.ridePetNo = getIntegerToken(data, S_DELIM, 26);	// 0x02000000

  00483	6a 1a		 push	 26			; 0000001aH
  00485	6a 7c		 push	 124			; 0000007cH
  00487	8b 45 0c	 mov	 eax, DWORD PTR _data$[ebp]
  0048a	50		 push	 eax
  0048b	e8 00 00 00 00	 call	 ?getIntegerToken@@YAHPADDH@Z ; getIntegerToken
  00490	83 c4 0c	 add	 esp, 12			; 0000000cH
  00493	a3 18 51 00 00	 mov	 DWORD PTR ?pc@@3UPC@@A+20760, eax

; 973  : 					pc.learnride = getIntegerToken(data, S_DELIM, 27);	// 0x04000000

  00498	6a 1b		 push	 27			; 0000001bH
  0049a	6a 7c		 push	 124			; 0000007cH
  0049c	8b 45 0c	 mov	 eax, DWORD PTR _data$[ebp]
  0049f	50		 push	 eax
  004a0	e8 00 00 00 00	 call	 ?getIntegerToken@@YAHPADDH@Z ; getIntegerToken
  004a5	83 c4 0c	 add	 esp, 12			; 0000000cH
  004a8	a3 1c 51 00 00	 mov	 DWORD PTR ?pc@@3UPC@@A+20764, eax

; 974  : 					pc.baseGraNo = getIntegerToken(data, S_DELIM, 28);	// 0x08000000

  004ad	6a 1c		 push	 28			; 0000001cH
  004af	6a 7c		 push	 124			; 0000007cH
  004b1	8b 45 0c	 mov	 eax, DWORD PTR _data$[ebp]
  004b4	50		 push	 eax
  004b5	e8 00 00 00 00	 call	 ?getIntegerToken@@YAHPADDH@Z ; getIntegerToken
  004ba	83 c4 0c	 add	 esp, 12			; 0000000cH
  004bd	a3 50 51 00 00	 mov	 DWORD PTR ?pc@@3UPC@@A+20816, eax

; 975  : #ifdef _NEW_RIDEPETS
; 976  : 					pc.lowsride = getIntegerToken(data, S_DELIM, 29);		// 0x08000000

  004c2	6a 1d		 push	 29			; 0000001dH
  004c4	6a 7c		 push	 124			; 0000007cH
  004c6	8b 45 0c	 mov	 eax, DWORD PTR _data$[ebp]
  004c9	50		 push	 eax
  004ca	e8 00 00 00 00	 call	 ?getIntegerToken@@YAHPADDH@Z ; getIntegerToken
  004cf	83 c4 0c	 add	 esp, 12			; 0000000cH
  004d2	a3 20 51 00 00	 mov	 DWORD PTR ?pc@@3UPC@@A+20768, eax

; 977  : #endif
; 978  : 					getStringToken(data, S_DELIM, 30, sizeof(name) - 1, name);

  004d7	8d 85 bc fe ff
	ff		 lea	 eax, DWORD PTR _name$42[ebp]
  004dd	50		 push	 eax
  004de	68 ff 00 00 00	 push	 255			; 000000ffH
  004e3	6a 1e		 push	 30			; 0000001eH
  004e5	6a 7c		 push	 124			; 0000007cH
  004e7	8b 4d 0c	 mov	 ecx, DWORD PTR _data$[ebp]
  004ea	51		 push	 ecx
  004eb	e8 00 00 00 00	 call	 ?getStringToken@@YAHPADDHH0@Z ; getStringToken
  004f0	83 c4 14	 add	 esp, 20			; 00000014H

; 979  : 					makeStringFromEscaped(name);

  004f3	8d 85 bc fe ff
	ff		 lea	 eax, DWORD PTR _name$42[ebp]
  004f9	50		 push	 eax
  004fa	e8 00 00 00 00	 call	 ?makeStringFromEscaped@@YAPADPAD@Z ; makeStringFromEscaped
  004ff	83 c4 04	 add	 esp, 4

; 980  : 					if (strlen(name) <= CHAR_NAME_LEN)

  00502	8d 85 bc fe ff
	ff		 lea	 eax, DWORD PTR _name$42[ebp]
  00508	50		 push	 eax
  00509	e8 00 00 00 00	 call	 _strlen
  0050e	83 c4 04	 add	 esp, 4
  00511	83 f8 10	 cmp	 eax, 16			; 00000010H
  00514	77 14		 ja	 SHORT $LN45@lssproto_S

; 981  : 						strcpy(pc.name, name);

  00516	8d 85 bc fe ff
	ff		 lea	 eax, DWORD PTR _name$42[ebp]
  0051c	50		 push	 eax
  0051d	68 70 00 00 00	 push	 OFFSET ?pc@@3UPC@@A+112
  00522	e8 00 00 00 00	 call	 _strcpy
  00527	83 c4 08	 add	 esp, 8
$LN45@lssproto_S:

; 982  : 					getStringToken(data, S_DELIM, 31, sizeof(freeName) - 1, freeName);

  0052a	8d 85 b4 fd ff
	ff		 lea	 eax, DWORD PTR _freeName$41[ebp]
  00530	50		 push	 eax
  00531	68 ff 00 00 00	 push	 255			; 000000ffH
  00536	6a 1f		 push	 31			; 0000001fH
  00538	6a 7c		 push	 124			; 0000007cH
  0053a	8b 4d 0c	 mov	 ecx, DWORD PTR _data$[ebp]
  0053d	51		 push	 ecx
  0053e	e8 00 00 00 00	 call	 ?getStringToken@@YAHPADDHH0@Z ; getStringToken
  00543	83 c4 14	 add	 esp, 20			; 00000014H

; 983  : 					makeStringFromEscaped(freeName);

  00546	8d 85 b4 fd ff
	ff		 lea	 eax, DWORD PTR _freeName$41[ebp]
  0054c	50		 push	 eax
  0054d	e8 00 00 00 00	 call	 ?makeStringFromEscaped@@YAPADPAD@Z ; makeStringFromEscaped
  00552	83 c4 04	 add	 esp, 4

; 984  : 					if (strlen(freeName) <= CHAR_FREENAME_LEN)

  00555	8d 85 b4 fd ff
	ff		 lea	 eax, DWORD PTR _freeName$41[ebp]
  0055b	50		 push	 eax
  0055c	e8 00 00 00 00	 call	 _strlen
  00561	83 c4 04	 add	 esp, 4
  00564	83 f8 20	 cmp	 eax, 32			; 00000020H
  00567	77 14		 ja	 SHORT $LN46@lssproto_S

; 985  : 						strcpy(pc.freeName, freeName);

  00569	8d 85 b4 fd ff
	ff		 lea	 eax, DWORD PTR _freeName$41[ebp]
  0056f	50		 push	 eax
  00570	68 81 00 00 00	 push	 OFFSET ?pc@@3UPC@@A+129
  00575	e8 00 00 00 00	 call	 _strcpy
  0057a	83 c4 08	 add	 esp, 8
$LN46@lssproto_S:

; 986  : 				}
; 987  : 				else

  0057d	e9 74 07 00 00	 jmp	 $LN44@lssproto_S
$LN43@lssproto_S:

; 988  : 				{
; 989  : 					mask = 2;

  00582	c7 85 90 fd ff
	ff 02 00 00 00	 mov	 DWORD PTR _mask$38[ebp], 2

; 990  : 					i = 2;

  0058c	c7 85 a8 fd ff
	ff 02 00 00 00	 mov	 DWORD PTR _i$40[ebp], 2

; 991  : 					for (; mask > 0; mask <<= 1)

  00596	eb 0e		 jmp	 SHORT $LN6@lssproto_S
$LN4@lssproto_S:
  00598	8b 85 90 fd ff
	ff		 mov	 eax, DWORD PTR _mask$38[ebp]
  0059e	d1 e0		 shl	 eax, 1
  005a0	89 85 90 fd ff
	ff		 mov	 DWORD PTR _mask$38[ebp], eax
$LN6@lssproto_S:
  005a6	83 bd 90 fd ff
	ff 00		 cmp	 DWORD PTR _mask$38[ebp], 0
  005ad	0f 86 43 07 00
	00		 jbe	 $LN44@lssproto_S

; 992  : 					{
; 993  : 						if (kubun & mask)

  005b3	8b 85 9c fd ff
	ff		 mov	 eax, DWORD PTR _kubun$39[ebp]
  005b9	23 85 90 fd ff
	ff		 and	 eax, DWORD PTR _mask$38[ebp]
  005bf	0f 84 2c 07 00
	00		 je	 $LN47@lssproto_S

; 994  : 						{
; 995  : 							if (mask == 0x00000002) // ( 1 << 1 )

  005c5	83 bd 90 fd ff
	ff 02		 cmp	 DWORD PTR _mask$38[ebp], 2
  005cc	75 2e		 jne	 SHORT $LN48@lssproto_S

; 996  : 							{
; 997  : 								pc.hp = getIntegerToken(data, S_DELIM, i);// 0x00000002

  005ce	8b 85 a8 fd ff
	ff		 mov	 eax, DWORD PTR _i$40[ebp]
  005d4	50		 push	 eax
  005d5	6a 7c		 push	 124			; 0000007cH
  005d7	8b 4d 0c	 mov	 ecx, DWORD PTR _data$[ebp]
  005da	51		 push	 ecx
  005db	e8 00 00 00 00	 call	 ?getIntegerToken@@YAHPADDH@Z ; getIntegerToken
  005e0	83 c4 0c	 add	 esp, 12			; 0000000cH
  005e3	a3 10 00 00 00	 mov	 DWORD PTR ?pc@@3UPC@@A+16, eax

; 998  : 								i++;

  005e8	8b 85 a8 fd ff
	ff		 mov	 eax, DWORD PTR _i$40[ebp]
  005ee	83 c0 01	 add	 eax, 1
  005f1	89 85 a8 fd ff
	ff		 mov	 DWORD PTR _i$40[ebp], eax
  005f7	e9 f5 06 00 00	 jmp	 $LN47@lssproto_S
$LN48@lssproto_S:

; 999  : 							}
; 1000 : 							else if (mask == 0x00000004) // ( 1 << 2 )

  005fc	83 bd 90 fd ff
	ff 04		 cmp	 DWORD PTR _mask$38[ebp], 4
  00603	75 2e		 jne	 SHORT $LN50@lssproto_S

; 1001 : 							{
; 1002 : 								pc.maxHp = getIntegerToken(data, S_DELIM, i);// 0x00000004

  00605	8b 85 a8 fd ff
	ff		 mov	 eax, DWORD PTR _i$40[ebp]
  0060b	50		 push	 eax
  0060c	6a 7c		 push	 124			; 0000007cH
  0060e	8b 4d 0c	 mov	 ecx, DWORD PTR _data$[ebp]
  00611	51		 push	 ecx
  00612	e8 00 00 00 00	 call	 ?getIntegerToken@@YAHPADDH@Z ; getIntegerToken
  00617	83 c4 0c	 add	 esp, 12			; 0000000cH
  0061a	a3 14 00 00 00	 mov	 DWORD PTR ?pc@@3UPC@@A+20, eax

; 1003 : 								i++;

  0061f	8b 85 a8 fd ff
	ff		 mov	 eax, DWORD PTR _i$40[ebp]
  00625	83 c0 01	 add	 eax, 1
  00628	89 85 a8 fd ff
	ff		 mov	 DWORD PTR _i$40[ebp], eax
  0062e	e9 be 06 00 00	 jmp	 $LN47@lssproto_S
$LN50@lssproto_S:

; 1004 : 							}
; 1005 : 							else if (mask == 0x00000008)

  00633	83 bd 90 fd ff
	ff 08		 cmp	 DWORD PTR _mask$38[ebp], 8
  0063a	75 2e		 jne	 SHORT $LN52@lssproto_S

; 1006 : 							{
; 1007 : 								pc.mp = getIntegerToken(data, S_DELIM, i);// 0x00000008

  0063c	8b 85 a8 fd ff
	ff		 mov	 eax, DWORD PTR _i$40[ebp]
  00642	50		 push	 eax
  00643	6a 7c		 push	 124			; 0000007cH
  00645	8b 4d 0c	 mov	 ecx, DWORD PTR _data$[ebp]
  00648	51		 push	 ecx
  00649	e8 00 00 00 00	 call	 ?getIntegerToken@@YAHPADDH@Z ; getIntegerToken
  0064e	83 c4 0c	 add	 esp, 12			; 0000000cH
  00651	a3 18 00 00 00	 mov	 DWORD PTR ?pc@@3UPC@@A+24, eax

; 1008 : 								i++;

  00656	8b 85 a8 fd ff
	ff		 mov	 eax, DWORD PTR _i$40[ebp]
  0065c	83 c0 01	 add	 eax, 1
  0065f	89 85 a8 fd ff
	ff		 mov	 DWORD PTR _i$40[ebp], eax
  00665	e9 87 06 00 00	 jmp	 $LN47@lssproto_S
$LN52@lssproto_S:

; 1009 : 							}
; 1010 : 							else if (mask == 0x00000010)

  0066a	83 bd 90 fd ff
	ff 10		 cmp	 DWORD PTR _mask$38[ebp], 16 ; 00000010H
  00671	75 2e		 jne	 SHORT $LN54@lssproto_S

; 1011 : 							{
; 1012 : 								pc.maxMp = getIntegerToken(data, S_DELIM, i);// 0x00000010

  00673	8b 85 a8 fd ff
	ff		 mov	 eax, DWORD PTR _i$40[ebp]
  00679	50		 push	 eax
  0067a	6a 7c		 push	 124			; 0000007cH
  0067c	8b 4d 0c	 mov	 ecx, DWORD PTR _data$[ebp]
  0067f	51		 push	 ecx
  00680	e8 00 00 00 00	 call	 ?getIntegerToken@@YAHPADDH@Z ; getIntegerToken
  00685	83 c4 0c	 add	 esp, 12			; 0000000cH
  00688	a3 1c 00 00 00	 mov	 DWORD PTR ?pc@@3UPC@@A+28, eax

; 1013 : 								i++;

  0068d	8b 85 a8 fd ff
	ff		 mov	 eax, DWORD PTR _i$40[ebp]
  00693	83 c0 01	 add	 eax, 1
  00696	89 85 a8 fd ff
	ff		 mov	 DWORD PTR _i$40[ebp], eax
  0069c	e9 50 06 00 00	 jmp	 $LN47@lssproto_S
$LN54@lssproto_S:

; 1014 : 							}
; 1015 : 							else if (mask == 0x00000020)

  006a1	83 bd 90 fd ff
	ff 20		 cmp	 DWORD PTR _mask$38[ebp], 32 ; 00000020H
  006a8	75 2e		 jne	 SHORT $LN56@lssproto_S

; 1016 : 							{
; 1017 : 								pc.vital = getIntegerToken(data, S_DELIM, i);// 0x00000020

  006aa	8b 85 a8 fd ff
	ff		 mov	 eax, DWORD PTR _i$40[ebp]
  006b0	50		 push	 eax
  006b1	6a 7c		 push	 124			; 0000007cH
  006b3	8b 4d 0c	 mov	 ecx, DWORD PTR _data$[ebp]
  006b6	51		 push	 ecx
  006b7	e8 00 00 00 00	 call	 ?getIntegerToken@@YAHPADDH@Z ; getIntegerToken
  006bc	83 c4 0c	 add	 esp, 12			; 0000000cH
  006bf	a3 20 00 00 00	 mov	 DWORD PTR ?pc@@3UPC@@A+32, eax

; 1018 : 								i++;

  006c4	8b 85 a8 fd ff
	ff		 mov	 eax, DWORD PTR _i$40[ebp]
  006ca	83 c0 01	 add	 eax, 1
  006cd	89 85 a8 fd ff
	ff		 mov	 DWORD PTR _i$40[ebp], eax
  006d3	e9 19 06 00 00	 jmp	 $LN47@lssproto_S
$LN56@lssproto_S:

; 1019 : 							}
; 1020 : 							else if (mask == 0x00000040)

  006d8	83 bd 90 fd ff
	ff 40		 cmp	 DWORD PTR _mask$38[ebp], 64 ; 00000040H
  006df	75 2e		 jne	 SHORT $LN58@lssproto_S

; 1021 : 							{
; 1022 : 								pc.str = getIntegerToken(data, S_DELIM, i);// 0x00000040

  006e1	8b 85 a8 fd ff
	ff		 mov	 eax, DWORD PTR _i$40[ebp]
  006e7	50		 push	 eax
  006e8	6a 7c		 push	 124			; 0000007cH
  006ea	8b 4d 0c	 mov	 ecx, DWORD PTR _data$[ebp]
  006ed	51		 push	 ecx
  006ee	e8 00 00 00 00	 call	 ?getIntegerToken@@YAHPADDH@Z ; getIntegerToken
  006f3	83 c4 0c	 add	 esp, 12			; 0000000cH
  006f6	a3 24 00 00 00	 mov	 DWORD PTR ?pc@@3UPC@@A+36, eax

; 1023 : 								i++;

  006fb	8b 85 a8 fd ff
	ff		 mov	 eax, DWORD PTR _i$40[ebp]
  00701	83 c0 01	 add	 eax, 1
  00704	89 85 a8 fd ff
	ff		 mov	 DWORD PTR _i$40[ebp], eax
  0070a	e9 e2 05 00 00	 jmp	 $LN47@lssproto_S
$LN58@lssproto_S:

; 1024 : 							}
; 1025 : 							else if (mask == 0x00000080)

  0070f	81 bd 90 fd ff
	ff 80 00 00 00	 cmp	 DWORD PTR _mask$38[ebp], 128 ; 00000080H
  00719	75 2e		 jne	 SHORT $LN60@lssproto_S

; 1026 : 							{
; 1027 : 								pc.tgh = getIntegerToken(data, S_DELIM, i);// 0x00000080

  0071b	8b 85 a8 fd ff
	ff		 mov	 eax, DWORD PTR _i$40[ebp]
  00721	50		 push	 eax
  00722	6a 7c		 push	 124			; 0000007cH
  00724	8b 4d 0c	 mov	 ecx, DWORD PTR _data$[ebp]
  00727	51		 push	 ecx
  00728	e8 00 00 00 00	 call	 ?getIntegerToken@@YAHPADDH@Z ; getIntegerToken
  0072d	83 c4 0c	 add	 esp, 12			; 0000000cH
  00730	a3 28 00 00 00	 mov	 DWORD PTR ?pc@@3UPC@@A+40, eax

; 1028 : 								i++;

  00735	8b 85 a8 fd ff
	ff		 mov	 eax, DWORD PTR _i$40[ebp]
  0073b	83 c0 01	 add	 eax, 1
  0073e	89 85 a8 fd ff
	ff		 mov	 DWORD PTR _i$40[ebp], eax
  00744	e9 a8 05 00 00	 jmp	 $LN47@lssproto_S
$LN60@lssproto_S:

; 1029 : 							}
; 1030 : 							else if (mask == 0x00000100)

  00749	81 bd 90 fd ff
	ff 00 01 00 00	 cmp	 DWORD PTR _mask$38[ebp], 256 ; 00000100H
  00753	75 2e		 jne	 SHORT $LN62@lssproto_S

; 1031 : 							{
; 1032 : 								pc.dex = getIntegerToken(data, S_DELIM, i);// 0x00000100

  00755	8b 85 a8 fd ff
	ff		 mov	 eax, DWORD PTR _i$40[ebp]
  0075b	50		 push	 eax
  0075c	6a 7c		 push	 124			; 0000007cH
  0075e	8b 4d 0c	 mov	 ecx, DWORD PTR _data$[ebp]
  00761	51		 push	 ecx
  00762	e8 00 00 00 00	 call	 ?getIntegerToken@@YAHPADDH@Z ; getIntegerToken
  00767	83 c4 0c	 add	 esp, 12			; 0000000cH
  0076a	a3 2c 00 00 00	 mov	 DWORD PTR ?pc@@3UPC@@A+44, eax

; 1033 : 								i++;

  0076f	8b 85 a8 fd ff
	ff		 mov	 eax, DWORD PTR _i$40[ebp]
  00775	83 c0 01	 add	 eax, 1
  00778	89 85 a8 fd ff
	ff		 mov	 DWORD PTR _i$40[ebp], eax
  0077e	e9 6e 05 00 00	 jmp	 $LN47@lssproto_S
$LN62@lssproto_S:

; 1034 : 							}
; 1035 : 							else if (mask == 0x00000200)

  00783	81 bd 90 fd ff
	ff 00 02 00 00	 cmp	 DWORD PTR _mask$38[ebp], 512 ; 00000200H
  0078d	75 2e		 jne	 SHORT $LN64@lssproto_S

; 1036 : 							{
; 1037 : 								pc.exp = getIntegerToken(data, S_DELIM, i);// 0x00000200

  0078f	8b 85 a8 fd ff
	ff		 mov	 eax, DWORD PTR _i$40[ebp]
  00795	50		 push	 eax
  00796	6a 7c		 push	 124			; 0000007cH
  00798	8b 4d 0c	 mov	 ecx, DWORD PTR _data$[ebp]
  0079b	51		 push	 ecx
  0079c	e8 00 00 00 00	 call	 ?getIntegerToken@@YAHPADDH@Z ; getIntegerToken
  007a1	83 c4 0c	 add	 esp, 12			; 0000000cH
  007a4	a3 30 00 00 00	 mov	 DWORD PTR ?pc@@3UPC@@A+48, eax

; 1038 : 								i++;

  007a9	8b 85 a8 fd ff
	ff		 mov	 eax, DWORD PTR _i$40[ebp]
  007af	83 c0 01	 add	 eax, 1
  007b2	89 85 a8 fd ff
	ff		 mov	 DWORD PTR _i$40[ebp], eax
  007b8	e9 34 05 00 00	 jmp	 $LN47@lssproto_S
$LN64@lssproto_S:

; 1039 : 							}
; 1040 : 							else if (mask == 0x00000400)

  007bd	81 bd 90 fd ff
	ff 00 04 00 00	 cmp	 DWORD PTR _mask$38[ebp], 1024 ; 00000400H
  007c7	75 2e		 jne	 SHORT $LN66@lssproto_S

; 1041 : 							{
; 1042 : 								pc.maxExp = getIntegerToken(data, S_DELIM, i);// 0x00000400

  007c9	8b 85 a8 fd ff
	ff		 mov	 eax, DWORD PTR _i$40[ebp]
  007cf	50		 push	 eax
  007d0	6a 7c		 push	 124			; 0000007cH
  007d2	8b 4d 0c	 mov	 ecx, DWORD PTR _data$[ebp]
  007d5	51		 push	 ecx
  007d6	e8 00 00 00 00	 call	 ?getIntegerToken@@YAHPADDH@Z ; getIntegerToken
  007db	83 c4 0c	 add	 esp, 12			; 0000000cH
  007de	a3 34 00 00 00	 mov	 DWORD PTR ?pc@@3UPC@@A+52, eax

; 1043 : 								i++;

  007e3	8b 85 a8 fd ff
	ff		 mov	 eax, DWORD PTR _i$40[ebp]
  007e9	83 c0 01	 add	 eax, 1
  007ec	89 85 a8 fd ff
	ff		 mov	 DWORD PTR _i$40[ebp], eax
  007f2	e9 fa 04 00 00	 jmp	 $LN47@lssproto_S
$LN66@lssproto_S:

; 1044 : 							}
; 1045 : 							else if (mask == 0x00000800)

  007f7	81 bd 90 fd ff
	ff 00 08 00 00	 cmp	 DWORD PTR _mask$38[ebp], 2048 ; 00000800H
  00801	75 2e		 jne	 SHORT $LN68@lssproto_S

; 1046 : 							{
; 1047 : 								pc.level = getIntegerToken(data, S_DELIM, i);// 0x00000800

  00803	8b 85 a8 fd ff
	ff		 mov	 eax, DWORD PTR _i$40[ebp]
  00809	50		 push	 eax
  0080a	6a 7c		 push	 124			; 0000007cH
  0080c	8b 4d 0c	 mov	 ecx, DWORD PTR _data$[ebp]
  0080f	51		 push	 ecx
  00810	e8 00 00 00 00	 call	 ?getIntegerToken@@YAHPADDH@Z ; getIntegerToken
  00815	83 c4 0c	 add	 esp, 12			; 0000000cH
  00818	a3 38 00 00 00	 mov	 DWORD PTR ?pc@@3UPC@@A+56, eax

; 1048 : 								i++;

  0081d	8b 85 a8 fd ff
	ff		 mov	 eax, DWORD PTR _i$40[ebp]
  00823	83 c0 01	 add	 eax, 1
  00826	89 85 a8 fd ff
	ff		 mov	 DWORD PTR _i$40[ebp], eax
  0082c	e9 c0 04 00 00	 jmp	 $LN47@lssproto_S
$LN68@lssproto_S:

; 1049 : 							}
; 1050 : 							else if (mask == 0x00001000)

  00831	81 bd 90 fd ff
	ff 00 10 00 00	 cmp	 DWORD PTR _mask$38[ebp], 4096 ; 00001000H
  0083b	75 2e		 jne	 SHORT $LN70@lssproto_S

; 1051 : 							{
; 1052 : 								pc.atk = getIntegerToken(data, S_DELIM, i);// 0x00001000

  0083d	8b 85 a8 fd ff
	ff		 mov	 eax, DWORD PTR _i$40[ebp]
  00843	50		 push	 eax
  00844	6a 7c		 push	 124			; 0000007cH
  00846	8b 4d 0c	 mov	 ecx, DWORD PTR _data$[ebp]
  00849	51		 push	 ecx
  0084a	e8 00 00 00 00	 call	 ?getIntegerToken@@YAHPADDH@Z ; getIntegerToken
  0084f	83 c4 0c	 add	 esp, 12			; 0000000cH
  00852	a3 3c 00 00 00	 mov	 DWORD PTR ?pc@@3UPC@@A+60, eax

; 1053 : 								i++;

  00857	8b 85 a8 fd ff
	ff		 mov	 eax, DWORD PTR _i$40[ebp]
  0085d	83 c0 01	 add	 eax, 1
  00860	89 85 a8 fd ff
	ff		 mov	 DWORD PTR _i$40[ebp], eax
  00866	e9 86 04 00 00	 jmp	 $LN47@lssproto_S
$LN70@lssproto_S:

; 1054 : 							}
; 1055 : 							else if (mask == 0x00002000)

  0086b	81 bd 90 fd ff
	ff 00 20 00 00	 cmp	 DWORD PTR _mask$38[ebp], 8192 ; 00002000H
  00875	75 2e		 jne	 SHORT $LN72@lssproto_S

; 1056 : 							{
; 1057 : 								pc.def = getIntegerToken(data, S_DELIM, i);// 0x00002000

  00877	8b 85 a8 fd ff
	ff		 mov	 eax, DWORD PTR _i$40[ebp]
  0087d	50		 push	 eax
  0087e	6a 7c		 push	 124			; 0000007cH
  00880	8b 4d 0c	 mov	 ecx, DWORD PTR _data$[ebp]
  00883	51		 push	 ecx
  00884	e8 00 00 00 00	 call	 ?getIntegerToken@@YAHPADDH@Z ; getIntegerToken
  00889	83 c4 0c	 add	 esp, 12			; 0000000cH
  0088c	a3 40 00 00 00	 mov	 DWORD PTR ?pc@@3UPC@@A+64, eax

; 1058 : 								i++;

  00891	8b 85 a8 fd ff
	ff		 mov	 eax, DWORD PTR _i$40[ebp]
  00897	83 c0 01	 add	 eax, 1
  0089a	89 85 a8 fd ff
	ff		 mov	 DWORD PTR _i$40[ebp], eax
  008a0	e9 4c 04 00 00	 jmp	 $LN47@lssproto_S
$LN72@lssproto_S:

; 1059 : 							}
; 1060 : 							else if (mask == 0x00004000)

  008a5	81 bd 90 fd ff
	ff 00 40 00 00	 cmp	 DWORD PTR _mask$38[ebp], 16384 ; 00004000H
  008af	75 2e		 jne	 SHORT $LN74@lssproto_S

; 1061 : 							{
; 1062 : 								pc.quick = getIntegerToken(data, S_DELIM, i);// 0x00004000

  008b1	8b 85 a8 fd ff
	ff		 mov	 eax, DWORD PTR _i$40[ebp]
  008b7	50		 push	 eax
  008b8	6a 7c		 push	 124			; 0000007cH
