; Listing generated by Microsoft (R) Optimizing Compiler Version 19.00.24215.1 

	TITLE	C:\Users\Administrator\Desktop\????? ??\????? ??\Client Source Code\oft\oft.cpp
	.686P
	.XMM
	include listing.inc
	.model	flat

INCLUDELIB MSVCRTD
INCLUDELIB OLDNAMES

PUBLIC	?boomerang_pos_tbl@@3PAHA			; boomerang_pos_tbl
PUBLIC	?boomerang_pos_tbl2@@3PAHA			; boomerang_pos_tbl2
PUBLIC	?boomerang_pos_tbl3a@@3PAHA			; boomerang_pos_tbl3a
PUBLIC	?boomerang_pos_tbl4a@@3PAHA			; boomerang_pos_tbl4a
PUBLIC	?boomerang_pos_tbl3b@@3PAHA			; boomerang_pos_tbl3b
PUBLIC	?boomerang_pos_tbl4b@@3PAHA			; boomerang_pos_tbl4b
PUBLIC	?ShooterNum@@3HA				; ShooterNum
PUBLIC	?AttPreMagicNum@@3HA				; AttPreMagicNum
PUBLIC	?AttNextMagicNum@@3HA				; AttNextMagicNum
PUBLIC	?NoMiss@@3FA					; NoMiss
PUBLIC	?StarLoop@@3FA					; StarLoop
PUBLIC	?BeAttNum@@3HA					; BeAttNum
PUBLIC	?FireSkillEnd@@3HA				; FireSkillEnd
PUBLIC	?bFireInit@@3HA					; bFireInit
PUBLIC	?tempPosH@@3HA					; tempPosH
PUBLIC	?tempPosV@@3HA					; tempPosV
PUBLIC	?iBeAttNum@@3HA					; iBeAttNum
PUBLIC	?counter@@3HA					; counter
PUBLIC	?tarpos@@3HA					; tarpos
PUBLIC	?tarMgiDem@@3HA					; tarMgiDem
PUBLIC	?att_select_flg@@3DA				; att_select_flg
PUBLIC	?crs_change_tbl@@3PAEA				; crs_change_tbl
PUBLIC	?crs_change_tbl2@@3PAEA				; crs_change_tbl2
PUBLIC	?crs_bound_tbl@@3PAY0CA@EA			; crs_bound_tbl
PUBLIC	?g_iRunEarthQuake@@3HA				; g_iRunEarthQuake
PUBLIC	?g_iCurRunEarthQuake@@3HA			; g_iCurRunEarthQuake
PUBLIC	?g_iNumRunEarthQuake@@3HA			; g_iNumRunEarthQuake
PUBLIC	?boundary_2@@3PAUaction@@A			; boundary_2
PUBLIC	?boundary_mark@@3PAPAUaction@@A			; boundary_mark
_BSS	SEGMENT
?初始化@?1??master@@YAXPAUaction@@@Z@4HA DD 01H DUP (?)	; `master'::`2'::初始化
?StarLoop@@3FA DW 01H DUP (?)				; StarLoop
	ALIGN	4

?FireSkillEnd@@3HA DD 01H DUP (?)			; FireSkillEnd
?bFireInit@@3HA DD 01H DUP (?)				; bFireInit
?tempPosH@@3HA DD 01H DUP (?)				; tempPosH
?tempPosV@@3HA DD 01H DUP (?)				; tempPosV
?counter@@3HA DD 01H DUP (?)				; counter
?tarMgiDem@@3HA DD 01H DUP (?)				; tarMgiDem
?att_select_flg@@3DA DB 01H DUP (?)			; att_select_flg
	ALIGN	4

?g_iRunEarthQuake@@3HA DD 01H DUP (?)			; g_iRunEarthQuake
?g_iCurRunEarthQuake@@3HA DD 01H DUP (?)		; g_iCurRunEarthQuake
?g_iNumRunEarthQuake@@3HA DD 01H DUP (?)		; g_iNumRunEarthQuake
?bRunAttMgc@@3HA DD 01H DUP (?)				; bRunAttMgc
?bRunToCallMgc@@3HA DD 01H DUP (?)			; bRunToCallMgc
?bRunBoundaryMgc_l@@3HA DD 01H DUP (?)			; bRunBoundaryMgc_l
?bRunBoundaryMgc_r@@3HA DD 01H DUP (?)			; bRunBoundaryMgc_r
?boundary_2@@3PAUaction@@A DD 01H DUP (?)		; boundary_2
?boundary_mark@@3PAPAUaction@@A DD 02H DUP (?)		; boundary_mark
?初始化@?1??monster@@YAXPAUaction@@@Z@4HA DD 01H DUP (?) ; `monster'::`2'::初始化
_BSS	ENDS
_DATA	SEGMENT
?ridePetTable@@3PAUtagRidePetTable@@A DD 018a88H	; ridePetTable
	DD	0186a0H
	DD	018800H
	DD	00H
	DD	018a89H
	DD	0186a5H
	DD	018800H
	DD	00H
	DD	018a8aH
	DD	0186aaH
	DD	018800H
	DD	00H
	DD	018a8bH
	DD	0186afH
	DD	018800H
	DD	00H
	DD	018a8cH
	DD	0186a0H
	DD	0187e9H
	DD	00H
	DD	018a8dH
	DD	0186a5H
	DD	0187e7H
	DD	00H
	DD	018a8eH
	DD	0186aaH
	DD	0187eaH
	DD	00H
	DD	018a8fH
	DD	0186afH
	DD	0187e8H
	DD	00H
	DD	018a90H
	DD	01895cH
	DD	018814H
	DD	00H
	DD	018a91H
	DD	018961H
	DD	018815H
	DD	00H
	DD	018e65H
	DD	018961H
	DD	018cc8H
	DD	00H
	DD	018e5aH
	DD	018961H
	DD	018c9cH
	DD	00H
	DD	018a92H
	DD	0186b4H
	DD	01882cH
	DD	00H
	DD	018a93H
	DD	0186b9H
	DD	01882cH
	DD	00H
	DD	018a94H
	DD	0186beH
	DD	01882cH
	DD	00H
	DD	018a95H
	DD	0186c3H
	DD	01882cH
	DD	00H
	DD	018a96H
	DD	0186b4H
	DD	0187e8H
	DD	00H
	DD	018a97H
	DD	0186b9H
	DD	0187e9H
	DD	00H
	DD	018a98H
	DD	0186beH
	DD	0187e7H
	DD	00H
	DD	018a99H
	DD	0186c3H
	DD	0187eaH
	DD	00H
	DD	018a9aH
	DD	018966H
	DD	018814H
	DD	00H
	DD	018a9bH
	DD	01896bH
	DD	018815H
	DD	00H
	DD	018e64H
	DD	01896bH
	DD	018cc8H
	DD	00H
	DD	018e62H
	DD	01896bH
	DD	018c9cH
	DD	00H
	DD	018a9cH
	DD	0186c8H
	DD	0187ffH
	DD	00H
	DD	018a9dH
	DD	0186cdH
	DD	0187ffH
	DD	00H
	DD	018a9eH
	DD	0186d2H
	DD	0187ffH
	DD	00H
	DD	018a9fH
	DD	0186d7H
	DD	0187ffH
	DD	00H
	DD	018aa0H
	DD	0186c8H
	DD	0187e8H
	DD	00H
	DD	018aa1H
	DD	0186cdH
	DD	0187eaH
	DD	00H
	DD	018aa2H
	DD	0186d2H
	DD	0187e7H
	DD	00H
	DD	018aa3H
	DD	0186d7H
	DD	0187e9H
	DD	00H
	DD	018aa4H
	DD	018970H
	DD	018814H
	DD	00H
	DD	018aa5H
	DD	018975H
	DD	018815H
	DD	00H
	DD	018e4dH
	DD	018975H
	DD	018cc8H
	DD	00H
	DD	018e57H
	DD	018975H
	DD	018c9cH
	DD	00H
	DD	018aa6H
	DD	0186dcH
	DD	018801H
	DD	00H
	DD	018aa7H
	DD	0186e1H
	DD	018801H
	DD	00H
	DD	018aa8H
	DD	0186e6H
	DD	018801H
	DD	00H
	DD	018aa9H
	DD	0186ebH
	DD	018801H
	DD	00H
	DD	018aaaH
	DD	0186dcH
	DD	0187e9H
	DD	00H
	DD	018aabH
	DD	0186e1H
	DD	0187e7H
	DD	00H
	DD	018aacH
	DD	0186e6H
	DD	0187eaH
	DD	00H
	DD	018aadH
	DD	0186ebH
	DD	0187e8H
	DD	00H
	DD	018aaeH
	DD	01897aH
	DD	018814H
	DD	00H
	DD	018aafH
	DD	01897fH
	DD	018815H
	DD	00H
	DD	018e4eH
	DD	01897fH
	DD	018cc8H
	DD	00H
	DD	018e58H
	DD	01897fH
	DD	018c9cH
	DD	00H
	DD	018ab0H
	DD	0186f0H
	DD	01882cH
	DD	00H
	DD	018ab1H
	DD	0186f5H
	DD	01882cH
	DD	00H
	DD	018ab2H
	DD	0186faH
	DD	01882cH
	DD	00H
	DD	018ab3H
	DD	0186ffH
	DD	01882cH
	DD	00H
	DD	018ab4H
	DD	0186f0H
	DD	0187e8H
	DD	00H
	DD	018ab5H
	DD	0186f5H
	DD	0187e7H
	DD	00H
	DD	018ab6H
	DD	0186faH
	DD	0187eaH
	DD	00H
	DD	018ab7H
	DD	0186ffH
	DD	0187e9H
	DD	00H
	DD	018ab8H
	DD	018984H
	DD	018814H
	DD	00H
	DD	018ab9H
	DD	018989H
	DD	018815H
	DD	00H
	DD	018e55H
	DD	018989H
	DD	018cc8H
	DD	00H
	DD	018e60H
	DD	018989H
	DD	018c9cH
	DD	00H
	DD	018abaH
	DD	018704H
	DD	018801H
	DD	00H
	DD	018abbH
	DD	018709H
	DD	018801H
	DD	00H
	DD	018abcH
	DD	01870eH
	DD	018801H
	DD	00H
	DD	018abdH
	DD	018713H
	DD	018801H
	DD	00H
	DD	018abeH
	DD	018704H
	DD	0187e9H
	DD	00H
	DD	018abfH
	DD	018709H
	DD	0187e8H
	DD	00H
	DD	018ac0H
	DD	01870eH
	DD	0187eaH
	DD	00H
	DD	018ac1H
	DD	018713H
	DD	0187e7H
	DD	00H
	DD	018ac2H
	DD	01898eH
	DD	018814H
	DD	00H
	DD	018ac3H
	DD	018993H
	DD	018815H
	DD	00H
	DD	018e56H
	DD	018993H
	DD	018cc8H
	DD	00H
	DD	018e61H
	DD	018993H
	DD	018c9cH
	DD	00H
	DD	018ac4H
	DD	018718H
	DD	018802H
	DD	00H
	DD	018ac5H
	DD	01871dH
	DD	018802H
	DD	00H
	DD	018ac6H
	DD	018722H
	DD	018802H
	DD	00H
	DD	018ac7H
	DD	018727H
	DD	018802H
	DD	00H
	DD	018ac8H
	DD	018718H
	DD	0187e7H
	DD	00H
	DD	018ac9H
	DD	01871dH
	DD	0187eaH
	DD	00H
	DD	018acaH
	DD	018722H
	DD	0187e8H
	DD	00H
	DD	018acbH
	DD	018727H
	DD	0187e9H
	DD	00H
	DD	018accH
	DD	018998H
	DD	018814H
	DD	00H
	DD	018acdH
	DD	01899dH
	DD	018815H
	DD	00H
	DD	018e4fH
	DD	01899dH
	DD	018cc8H
	DD	00H
	DD	018e59H
	DD	01899dH
	DD	018c9cH
	DD	00H
	DD	018aceH
	DD	01872cH
	DD	018802H
	DD	00H
	DD	018acfH
	DD	018731H
	DD	018802H
	DD	00H
	DD	018ad0H
	DD	018736H
	DD	018802H
	DD	00H
	DD	018ad1H
	DD	01873bH
	DD	018802H
	DD	00H
	DD	018ad2H
	DD	01872cH
	DD	0187e7H
	DD	00H
	DD	018ad3H
	DD	018731H
	DD	0187e9H
	DD	00H
	DD	018ad4H
	DD	018736H
	DD	0187eaH
	DD	00H
	DD	018ad5H
	DD	01873bH
	DD	0187e8H
	DD	00H
	DD	018ad6H
	DD	0189a2H
	DD	018814H
	DD	00H
	DD	018ad7H
	DD	0189a7H
	DD	018815H
	DD	00H
	DD	018e50H
	DD	0189a7H
	DD	018cc8H
	DD	00H
	DD	018e5bH
	DD	0189a7H
	DD	018c9cH
	DD	00H
	DD	018ad8H
	DD	018740H
	DD	018800H
	DD	00H
	DD	018ad9H
	DD	018745H
	DD	018800H
	DD	00H
	DD	018adaH
	DD	01874aH
	DD	018800H
	DD	00H
	DD	018adbH
	DD	01874fH
	DD	018800H
	DD	00H
	DD	018adcH
	DD	018740H
	DD	0187eaH
	DD	00H
	DD	018addH
	DD	018745H
	DD	0187e9H
	DD	00H
	DD	018adeH
	DD	01874aH
	DD	0187e7H
	DD	00H
	DD	018adfH
	DD	01874fH
	DD	0187e8H
	DD	00H
	DD	018ae0H
	DD	0189acH
	DD	018814H
	DD	00H
	DD	018ae1H
	DD	0189b1H
	DD	018815H
	DD	00H
	DD	018e52H
	DD	0189b1H
	DD	018cc8H
	DD	00H
	DD	018e5dH
	DD	0189b1H
	DD	018c9cH
	DD	00H
	DD	018ae2H
	DD	018754H
	DD	0187ffH
	DD	00H
	DD	018ae3H
	DD	018759H
	DD	0187ffH
	DD	00H
	DD	018ae4H
	DD	01875eH
	DD	0187ffH
	DD	00H
	DD	018ae5H
	DD	018763H
	DD	0187ffH
	DD	00H
	DD	018ae6H
	DD	018754H
	DD	0187e8H
	DD	00H
	DD	018ae7H
	DD	018759H
	DD	0187eaH
	DD	00H
	DD	018ae8H
	DD	01875eH
	DD	0187e9H
	DD	00H
	DD	018ae9H
	DD	018763H
	DD	0187e7H
	DD	00H
	DD	018aeaH
	DD	0189b6H
	DD	018814H
	DD	00H
	DD	018aebH
	DD	0189bbH
	DD	018815H
	DD	00H
	DD	018e51H
	DD	0189bbH
	DD	018cc8H
	DD	00H
	DD	018e5cH
	DD	0189bbH
	DD	018c9cH
	DD	00H
	DD	018aecH
	DD	018768H
	DD	018801H
	DD	00H
	DD	018aedH
	DD	01876dH
	DD	018801H
	DD	00H
	DD	018aeeH
	DD	018772H
	DD	018801H
	DD	00H
	DD	018aefH
	DD	018777H
	DD	018801H
	DD	00H
	DD	018af0H
	DD	018768H
	DD	0187e9H
	DD	00H
	DD	018af1H
	DD	01876dH
	DD	0187e8H
	DD	00H
	DD	018af2H
	DD	018772H
	DD	0187e7H
	DD	00H
	DD	018af3H
	DD	018777H
	DD	0187eaH
	DD	00H
	DD	018af4H
	DD	0189c0H
	DD	018814H
	DD	00H
	DD	018af5H
	DD	0189c5H
	DD	018815H
	DD	00H
	DD	018e54H
	DD	0189c5H
	DD	018cc8H
	DD	00H
	DD	018e5fH
	DD	0189c5H
	DD	018c9cH
	DD	00H
	DD	018af6H
	DD	01877cH
	DD	01882cH
	DD	00H
	DD	018af7H
	DD	018781H
	DD	01882cH
	DD	00H
	DD	018af8H
	DD	018786H
	DD	01882cH
	DD	00H
	DD	018af9H
	DD	01878bH
	DD	01882cH
	DD	00H
	DD	018afaH
	DD	01877cH
	DD	0187eaH
	DD	00H
	DD	018afbH
	DD	018781H
	DD	0187e7H
	DD	00H
	DD	018afcH
	DD	018786H
	DD	0187e9H
	DD	00H
	DD	018afdH
	DD	01878bH
	DD	0187e8H
	DD	00H
	DD	018afeH
	DD	0189caH
	DD	018814H
	DD	00H
	DD	018affH
	DD	0189cfH
	DD	018815H
	DD	00H
	DD	018e53H
	DD	0189cfH
	DD	018cc8H
	DD	00H
	DD	018e5eH
	DD	0189cfH
	DD	018c9cH
	DD	00H
	DD	018b3bH
	DD	018b39H
	DD	018b3aH
	DD	00H
	DD	018b3bH
	DD	018b3aH
	DD	018b39H
	DD	00H
?piyo_loop_v_tbl@@3PAHA DD 00H				; piyo_loop_v_tbl
	DD	01H
	DD	02H
	DD	03H
	DD	04H
	DD	04H
	DD	05H
	DD	06H
	DD	07H
	DD	08H
	DD	08H
	DD	09H
	DD	09H
	DD	09H
	DD	09H
	DD	0aH
	DD	09H
	DD	09H
	DD	09H
	DD	09H
	DD	08H
	DD	08H
	DD	07H
	DD	06H
	DD	05H
	DD	05H
	DD	04H
	DD	03H
	DD	02H
	DD	01H
	DD	00H
	DD	0ffffffffH
	DD	0fffffffeH
	DD	0fffffffdH
	DD	0fffffffcH
	DD	0fffffffcH
	DD	0fffffffbH
	DD	0fffffffaH
	DD	0fffffff9H
	DD	0fffffff8H
	DD	0fffffff8H
	DD	0fffffff7H
	DD	0fffffff7H
	DD	0fffffff7H
	DD	0fffffff7H
	DD	0fffffff6H
	DD	0fffffff7H
	DD	0fffffff7H
	DD	0fffffff7H
	DD	0fffffff7H
	DD	0fffffff8H
	DD	0fffffff8H
	DD	0fffffff9H
	DD	0fffffffaH
	DD	0fffffffbH
	DD	0fffffffbH
	DD	0fffffffcH
	DD	0fffffffdH
	DD	0fffffffeH
	DD	0ffffffffH
?piyo_loop_h_tbl@@3PAHA DD 0ffffffe8H			; piyo_loop_h_tbl
	DD	0ffffffe9H
	DD	0ffffffe9H
	DD	0ffffffeaH
	DD	0ffffffebH
	DD	0ffffffecH
	DD	0ffffffedH
	DD	0ffffffefH
	DD	0fffffff0H
	DD	0fffffff2H
	DD	0fffffff5H
	DD	0fffffff7H
	DD	0fffffff9H
	DD	0fffffffcH
	DD	0fffffffeH
	DD	00H
	DD	02H
	DD	04H
	DD	07H
	DD	09H
	DD	0bH
	DD	0eH
	DD	010H
	DD	011H
	DD	013H
	DD	014H
	DD	015H
	DD	016H
	DD	017H
	DD	017H
	DD	018H
	DD	017H
	DD	017H
	DD	016H
	DD	015H
	DD	014H
	DD	013H
	DD	011H
	DD	010H
	DD	0eH
	DD	0cH
	DD	09H
	DD	07H
	DD	04H
	DD	02H
	DD	00H
	DD	0fffffffeH
	DD	0fffffffcH
	DD	0fffffff9H
	DD	0fffffff7H
	DD	0fffffff5H
	DD	0fffffff2H
	DD	0fffffff0H
	DD	0ffffffefH
	DD	0ffffffedH
	DD	0ffffffecH
	DD	0ffffffebH
	DD	0ffffffeaH
	DD	0ffffffe9H
	DD	0ffffffe9H
?RideCodeMode@@3PAUtagRideCodeMode@@A DD 018816H	; RideCodeMode
	DD	01H
	DD	018806H
	DD	02H
	DD	01880aH
	DD	04H
	DD	0187b7H
	DD	08H
	DD	0187c0H
	DD	010H
	DD	0187bbH
	DD	020H
	DD	0187faH
	DD	040H
	DD	0187d6H
	DD	080H
	DD	018814H
	DD	0100H
	DD	018815H
	DD	0200H
	DD	018c9cH
	DD	0800H
	DD	018cc8H
	DD	0400H
	DD	018812H
	DD	01000H
	DD	018811H
	DD	02000H
	DD	018a28H
	DD	04000H
	DD	018a2bH
	DD	08000H
	DD	018f30H
	DD	010000H
	DD	018f31H
	DD	020000H
	DD	018f68H
	DD	040000H
	DD	0187fcH
	DD	080000H
	DD	0187d3H
	DD	0100000H
	DD	018fa9H
	DD	0200000H
	DD	018faaH
	DD	0400000H
	DD	018a09H
	DD	0800000H
	DD	018a0aH
	DD	01000000H
	DD	019394H
	DD	02000000H
	DD	0187b2H
	DD	04000000H
?RideNoList@@3PAUtagRideNoList@@A DD 018bb9H		; RideNoList
	DD	018bbaH
	DD	018bbbH
	DD	018bbcH
	DD	018bbdH
	DD	018bbeH
	DD	018bbfH
	DD	018bc0H
	DD	018a90H
	DD	018a91H
	DD	018e5aH
	DD	018e65H
	DD	018849H
	DD	018844H
	DD	01885dH
	DD	018ee5H
	DD	018f0dH
	DD	018f19H
	DD	018f76H
	ORG $+32
	DD	018bc1H
	DD	018bc2H
	DD	018bc3H
	DD	018bc4H
	DD	018bc5H
	DD	018bc6H
	DD	018bc7H
	DD	018bc8H
	DD	018a9aH
	DD	018a9bH
	DD	018e62H
	DD	018e64H
	DD	018849H
	DD	018844H
	DD	01885dH
	DD	018ee6H
	DD	018f0eH
	DD	018f1aH
	DD	018f77H
	ORG $+32
	DD	018bc9H
	DD	018bcaH
	DD	018bcbH
	DD	018bccH
	DD	018bcdH
	DD	018bceH
	DD	018bcfH
	DD	018bd0H
	DD	018aa4H
	DD	018aa5H
	DD	018e57H
	DD	018e4dH
	DD	018849H
	DD	018844H
	DD	01885dH
	DD	018ee7H
	DD	018f0fH
	DD	018f1bH
	DD	018f78H
	ORG $+32
	DD	018bd1H
	DD	018bd2H
	DD	018bd3H
	DD	018bd4H
	DD	018bd5H
	DD	018bd6H
	DD	018bd7H
	DD	018bd8H
	DD	018aaeH
	DD	018aafH
	DD	018e58H
	DD	018e4eH
	DD	018849H
	DD	018844H
	DD	01885dH
	DD	018ee8H
	DD	018f10H
	DD	018f1cH
	DD	018f79H
	ORG $+32
	DD	018bd9H
	DD	018bdaH
	DD	018bdbH
	DD	018bdcH
	DD	018bddH
	DD	018bdeH
	DD	018bdfH
	DD	018be0H
	DD	018ab8H
	DD	018ab9H
	DD	018e60H
	DD	018e55H
	DD	018849H
	DD	018844H
	DD	01885dH
	DD	018ee9H
	DD	018f11H
	DD	018f1dH
	DD	018f7aH
	ORG $+32
	DD	018be1H
	DD	018be2H
	DD	018be3H
	DD	018be4H
	DD	018be5H
	DD	018be6H
	DD	018be7H
	DD	018be8H
	DD	018ac2H
	DD	018ac3H
	DD	018e61H
	DD	018e56H
	DD	018849H
	DD	018844H
	DD	01885dH
	DD	018eeaH
	DD	018f12H
	DD	018f1eH
	DD	018f7bH
	ORG $+32
	DD	018be9H
	DD	018beaH
	DD	018bebH
	DD	018becH
	DD	018bedH
	DD	018beeH
	DD	018befH
	DD	018bf0H
	DD	018accH
	DD	018acdH
	DD	018e59H
	DD	018e4fH
	DD	018849H
	DD	018844H
	DD	01885dH
	DD	018eebH
	DD	018f13H
	DD	018f1fH
	DD	018f7cH
	ORG $+32
	DD	018bf1H
	DD	018bf2H
	DD	018bf3H
	DD	018bf4H
	DD	018bf5H
	DD	018bf6H
	DD	018bf7H
	DD	018bf8H
	DD	018ad6H
	DD	018ad7H
	DD	018e5bH
	DD	018e50H
	DD	018849H
	DD	018844H
	DD	01885dH
	DD	018eecH
	DD	018f14H
	DD	018f20H
	DD	018f7dH
	ORG $+32
	DD	018bf9H
	DD	018bfaH
	DD	018bfbH
	DD	018bfcH
	DD	018bfdH
	DD	018bfeH
	DD	018bffH
	DD	018c00H
	DD	018ae0H
	DD	018ae1H
	DD	018e5dH
	DD	018e52H
	DD	018849H
	DD	018844H
	DD	01885dH
	DD	018eedH
	DD	018f15H
	DD	018f21H
	DD	018f7eH
	ORG $+32
	DD	018c01H
	DD	018c02H
	DD	018c03H
	DD	018c04H
	DD	018c05H
	DD	018c06H
	DD	018c07H
	DD	018c08H
	DD	018aeaH
	DD	018aebH
	DD	018e5cH
	DD	018e51H
	DD	018849H
	DD	018844H
	DD	01885dH
	DD	018eeeH
	DD	018f16H
	DD	018f22H
	DD	018f7fH
	ORG $+32
	DD	018c09H
	DD	018c0aH
	DD	018c0bH
	DD	018c0cH
	DD	018c0dH
	DD	018c0eH
	DD	018c0fH
	DD	018c10H
	DD	018af4H
	DD	018af5H
	DD	018e5fH
	DD	018e54H
	DD	018849H
	DD	018844H
	DD	01885dH
	DD	018eefH
	DD	018f17H
	DD	018f23H
	DD	018f80H
	ORG $+32
	DD	018c11H
	DD	018c12H
	DD	018c13H
	DD	018c14H
	DD	018c15H
	DD	018c16H
	DD	018c17H
	DD	018c18H
	DD	018afeH
	DD	018affH
	DD	018e5eH
	DD	018e53H
	DD	018849H
	DD	018844H
	DD	01885dH
	DD	018ef0H
	DD	018f18H
	DD	018f24H
	DD	018f81H
	ORG $+32
?RPlistMode@@3PAUtagRidePetList@@A DD 0186a0H		; RPlistMode
	DD	00H
	DD	0186a5H
	DD	00H
	DD	0186aaH
	DD	00H
	DD	0186afH
	DD	00H
	DD	0186b4H
	DD	01H
	DD	0186b9H
	DD	01H
	DD	0186beH
	DD	01H
	DD	0186c3H
	DD	01H
	DD	0186c8H
	DD	02H
	DD	0186cdH
	DD	02H
	DD	0186d2H
	DD	02H
	DD	0186d7H
	DD	02H
	DD	0186dcH
	DD	03H
	DD	0186e1H
	DD	03H
	DD	0186e6H
	DD	03H
	DD	0186ebH
	DD	03H
	DD	0186f0H
	DD	04H
	DD	0186f5H
	DD	04H
	DD	0186faH
	DD	04H
	DD	0186ffH
	DD	04H
	DD	018704H
	DD	05H
	DD	018709H
	DD	05H
	DD	01870eH
	DD	05H
	DD	018713H
	DD	05H
	DD	018718H
	DD	06H
	DD	01871dH
	DD	06H
	DD	018722H
	DD	06H
	DD	018727H
	DD	06H
	DD	01872cH
	DD	07H
	DD	018731H
	DD	07H
	DD	018736H
	DD	07H
	DD	01873bH
	DD	07H
	DD	018740H
	DD	08H
	DD	018745H
	DD	08H
	DD	01874aH
	DD	08H
	DD	01874fH
	DD	08H
	DD	018754H
	DD	09H
	DD	018759H
	DD	09H
	DD	01875eH
	DD	09H
	DD	018763H
	DD	09H
	DD	018768H
	DD	0aH
	DD	01876dH
	DD	0aH
	DD	018772H
	DD	0aH
	DD	018777H
	DD	0aH
	DD	01877cH
	DD	0bH
	DD	018781H
	DD	0bH
	DD	018786H
	DD	0bH
	DD	01878bH
	DD	0bH
?boomerang_pos_tbl@@3PAHA DD 0320H			; boomerang_pos_tbl
	DD	0140H
	DD	02eeH
	DD	0dcH
	DD	0186H
	DD	06aH
	DD	0214H
	DD	0aaH
?boomerang_pos_tbl2@@3PAHA DD 02eeH			; boomerang_pos_tbl2
	DD	0118H
	DD	02bcH
	DD	0b4H
	DD	0154H
	DD	032H
	DD	01beH
	DD	064H
?boomerang_pos_tbl3a@@3PAHA DD 0104H			; boomerang_pos_tbl3a
	DD	01a4H
	DD	064H
	DD	014aH
	DD	0ffffffa0H
	DD	0a0H
	DD	0ffffff6eH
	DD	0104H
?boomerang_pos_tbl4a@@3PAHA DD 0154H			; boomerang_pos_tbl4a
	DD	01c2H
	DD	0b4H
	DD	0190H
	DD	0ffffff6eH
	DD	0c8H
	DD	0ffffff3cH
	DD	012cH
?boomerang_pos_tbl3b@@3PAHA DD 0c4H			; boomerang_pos_tbl3b
	DD	01a4H
	DD	044H
	DD	016aH
	DD	0ffffffa0H
	DD	0a0H
	DD	0ffffff6eH
	DD	0104H
?boomerang_pos_tbl4b@@3PAHA DD 0154H			; boomerang_pos_tbl4b
	DD	01c2H
	DD	0b4H
	DD	01d0H
	DD	0ffffff6eH
	DD	0c8H
	DD	0ffffff3cH
	DD	012cH
?FontPal@@3PAKA DD 0ffffffH				; FontPal
	DD	0ffff00H
	DD	0ff00ffH
	DD	0ff0000H
	DD	0ffffH
	DD	0ff00H
	DD	0ffH
	DD	0a4a0a0H
	DD	0f0caa6H
	DD	0c0dcc0H
	DD	08cffH
	DD	0247fffH
?ShooterNum@@3HA DD 0ffffffffH				; ShooterNum
?AttPreMagicNum@@3HA DD 0ffffffffH			; AttPreMagicNum
?AttNextMagicNum@@3HA DD 0ffffffffH			; AttNextMagicNum
?NoMiss@@3FA DW	0ffffH					; NoMiss
	ORG $+2
?BeAttNum@@3HA DD 0ffffffffH				; BeAttNum
?iBeAttNum@@3HA DD 0ffffffffH				; iBeAttNum
?tarpos@@3HA DD	0ffffffffH				; tarpos
?crs_change_tbl@@3PAEA DB 04H				; crs_change_tbl
	DB	04H
	DB	05H
	DB	05H
	DB	05H
	DB	05H
	DB	06H
	DB	06H
	DB	06H
	DB	06H
	DB	07H
	DB	07H
	DB	07H
	DB	07H
	DB	00H
	DB	00H
	DB	00H
	DB	00H
	DB	01H
	DB	01H
	DB	01H
	DB	01H
	DB	02H
	DB	02H
	DB	02H
	DB	02H
	DB	03H
	DB	03H
	DB	03H
	DB	03H
	DB	04H
	DB	04H
?crs_change_tbl2@@3PAEA DB 010H				; crs_change_tbl2
	DB	014H
	DB	018H
	DB	01cH
	DB	00H
	DB	04H
	DB	08H
	DB	0cH
	ORG $+4
?crs_bound_tbl@@3PAY0CA@EA DB 010H			; crs_bound_tbl
	DB	0fH
	DB	0eH
	DB	0dH
	DB	0cH
	DB	0bH
	DB	0aH
	DB	09H
	DB	00H
	DB	00H
	DB	00H
	DB	00H
	DB	00H
	DB	00H
	DB	00H
	DB	00H
	DB	00H
	DB	00H
	DB	00H
	DB	00H
	DB	00H
	DB	00H
	DB	00H
	DB	00H
	DB	00H
	DB	017H
	DB	016H
	DB	015H
	DB	014H
	DB	013H
	DB	012H
	DB	011H
	DB	00H
	DB	01fH
	DB	01eH
	DB	01dH
	DB	01cH
	DB	01bH
	DB	01aH
	DB	019H
	DB	018H
	DB	017H
	DB	016H
	DB	015H
	DB	014H
	DB	013H
	DB	012H
	DB	011H
	DB	00H
	DB	00H
	DB	00H
	DB	00H
	DB	00H
	DB	00H
	DB	00H
	DB	00H
	DB	00H
	DB	00H
	DB	00H
	DB	00H
	DB	00H
	DB	00H
	DB	00H
	DB	00H
	DB	00H
	DB	00H
	DB	00H
	DB	00H
	DB	00H
	DB	00H
	DB	00H
	DB	00H
	DB	00H
	DB	07H
	DB	06H
	DB	05H
	DB	04H
	DB	03H
	DB	02H
	DB	01H
	DB	00H
	DB	01fH
	DB	01eH
	DB	01dH
	DB	01cH
	DB	01bH
	DB	01aH
	DB	019H
	DB	00H
	DB	00H
	DB	00H
	DB	00H
	DB	00H
	DB	00H
	DB	00H
	DB	00H
	DB	00H
	DB	00H
	DB	00H
	DB	00H
	DB	00H
	DB	00H
	DB	00H
	DB	00H
	DB	00H
	DB	00H
	DB	00H
	DB	00H
	DB	00H
	DB	00H
	DB	00H
	DB	00H
	DB	00H
	DB	0fH
	DB	0eH
	DB	0dH
	DB	0cH
	DB	0bH
	DB	0aH
	DB	09H
	DB	08H
	DB	07H
	DB	06H
	DB	05H
	DB	04H
	DB	03H
	DB	02H
	DB	01H
?stick_ang_tbl@@3PADA DB 08H				; stick_ang_tbl
	DB	0aH
	DB	0cH
	DB	0eH
	DB	00H
	DB	02H
	DB	04H
	DB	06H
?pet_nix_tbl@@3PADA DB 01H				; pet_nix_tbl
	DB	00H
	DB	00H
	DB	00H
	DB	00H
	DB	00H
	DB	00H
	DB	00H
	DB	00H
	DB	00H
	DB	00H
	DB	00H
	DB	00H
	DB	0ffH
	DB	00H
	DB	00H
	DB	00H
	DB	00H
	DB	0ffH
	DB	00H
	DB	00H
	DB	00H
	DB	00H
	DB	00H
	DB	00H
	DB	00H
	DB	00H
	DB	00H
	DB	00H
	DB	00H
	DB	00H
	DB	01H
	DB	00H
	DB	00H
	DB	00H
	DB	00H
	DB	01H
	DB	00H
	DB	00H
	DB	00H
	DB	00H
	DB	00H
	DB	00H
	DB	00H
	DB	00H
	DB	00H
	DB	00H
	DB	00H
	DB	00H
	DB	0ffH
	DB	00H
	DB	00H
	DB	00H
	DB	00H
	DB	0ffH
	DB	00H
	DB	00H
	DB	00H
	DB	00H
	DB	00H
	DB	00H
	DB	00H
	DB	00H
	DB	00H
	DB	00H
	DB	00H
	DB	00H
	DB	01H
	DB	00H
	DB	00H
	DB	00H
	DB	00H
	DB	0feH
	ORG $+7
?monster_place_no@@3PAHA DD 02H				; monster_place_no
	DD	01H
	DD	03H
	DD	00H
	DD	04H
	DD	07H
	DD	06H
	DD	08H
	DD	05H
	DD	09H
	DD	0cH
	DD	0bH
	DD	0dH
	DD	0aH
	DD	0eH
	DD	011H
	DD	010H
	DD	012H
	DD	0fH
	DD	013H
_DATA	ENDS
PUBLIC	___local_stdio_printf_options
PUBLIC	__vsprintf_s_l
PUBLIC	_vsprintf_s
PUBLIC	?petfallChangeGraph@@YAXPAUaction@@@Z		; petfallChangeGraph
PUBLIC	?petrideChangeGraph@@YAXPAUaction@@H@Z		; petrideChangeGraph
PUBLIC	?LogToBattleError@@YAXPADH@Z			; LogToBattleError
PUBLIC	?katino@@YAXPAUaction@@@Z			; katino
PUBLIC	?oft_test@@YAPAUaction@@XZ			; oft_test
PUBLIC	?monster@@YAXPAUaction@@@Z			; monster
PUBLIC	?DisplayAttackEffect@@YAXPAUaction@@@Z		; DisplayAttackEffect
PUBLIC	?SetDisplayAttackEffect@@YAXPAUaction@@H@Z	; SetDisplayAttackEffect
PUBLIC	?kakushi_command@@YAXXZ				; kakushi_command
PUBLIC	?damage_num@@YAXPAUaction@@@Z			; damage_num
PUBLIC	??$sprintf_s@$0BAA@@@YAHAAY0BAA@DPBDZZ		; sprintf_s<256>
PUBLIC	?set_damage_num@@YAXPAUaction@@HH@Z		; set_damage_num
PUBLIC	?play_damage@@YAXHH@Z				; play_damage
PUBLIC	?disp_kanji@@YAXPAUaction@@@Z			; disp_kanji
PUBLIC	?magic_effect@@YAXPAUaction@@@Z			; magic_effect
PUBLIC	?hit_mark_critical@@YAXPAUaction@@@Z		; hit_mark_critical
PUBLIC	?hit_mark@@YAXPAUaction@@@Z			; hit_mark
PUBLIC	?set_hit_mark@@YAXPAUaction@@@Z			; set_hit_mark
PUBLIC	?disp_guard_mark@@YAXPAUaction@@@Z		; disp_guard_mark
PUBLIC	?set_guard_mark@@YAXPAUaction@@@Z		; set_guard_mark
PUBLIC	?set_jujutsu_hit_mark@@YAXPAUaction@@@Z		; set_jujutsu_hit_mark
PUBLIC	?piyo_loop@@YAXPAUaction@@@Z			; piyo_loop
PUBLIC	?set_piyo_loop@@YAXPAUaction@@@Z		; set_piyo_loop
PUBLIC	?播放光环@@YAXPAUaction@@@Z			; 播放光环
PUBLIC	?set_光环@@YAXHPAUaction@@@Z			; set_光环
PUBLIC	?set_single_jujutsu@@YAXHPAUaction@@@Z		; set_single_jujutsu
PUBLIC	?attrib_reverse@@YAXPAUaction@@@Z		; attrib_reverse
PUBLIC	?set_attrib_reverse@@YAXPAUaction@@@Z		; set_attrib_reverse
PUBLIC	?boomerang@@YAXPAUaction@@@Z			; boomerang
PUBLIC	?stick_bow@@YAXPAUaction@@@Z			; stick_bow
PUBLIC	?shoot@@YAXPAUaction@@@Z			; shoot
PUBLIC	?bow@@YAXPAUaction@@@Z				; bow
PUBLIC	?axe@@YAXPAUaction@@@Z				; axe
PUBLIC	?fireHunter@@YAXPAUaction@@@Z			; fireHunter
PUBLIC	?axe_shadow@@YAXPAUaction@@@Z			; axe_shadow
PUBLIC	?stone@@YAXPAUaction@@@Z			; stone
PUBLIC	?stone_shadow@@YAXPAUaction@@@Z			; stone_shadow
PUBLIC	?firecracker_shadow@@YAXPAUaction@@@Z		; firecracker_shadow
PUBLIC	?missile@@YAXPAUaction@@@Z			; missile
PUBLIC	?amelioration@@YAXPAUaction@@@Z			; amelioration
PUBLIC	?sort_chr@@YAHPAUSORT_CHR_EQU@@0@Z		; sort_chr
PUBLIC	?set_raster_pos@@YAXPAUaction@@@Z		; set_raster_pos
PUBLIC	?get_name@@YAXPAUaction@@@Z			; get_name
PUBLIC	?check_all_dead@@YAHXZ				; check_all_dead
PUBLIC	?disp_attrib@@YAXPAUaction@@@Z			; disp_attrib
PUBLIC	?get_command_asc@@YAXXZ				; get_command_asc
PUBLIC	?RunTimeMagicToCall@@YAHXZ			; RunTimeMagicToCall
PUBLIC	?master@@YAXPAUaction@@@Z			; master
PUBLIC	?get_bc_num@@YAHXZ				; get_bc_num
PUBLIC	?get_bc_asc@@YAXPAUaction@@H@Z			; get_bc_asc
PUBLIC	?get_bc_asc_ridepet@@YAXPAUaction@@@Z		; get_bc_asc_ridepet
PUBLIC	?set_party_光环@@YAXXZ				; set_party_光环
PUBLIC	?set_bc@@YAXXZ					; set_bc
PUBLIC	?disp_shild@@YAXXZ				; disp_shild
PUBLIC	??$__vcrt_va_start_verify_argument_type@PBD@@YAXXZ ; __vcrt_va_start_verify_argument_type<char const *>
PUBLIC	?_OptionsStorage@?1??__local_stdio_printf_options@@9@4_KA ; `__local_stdio_printf_options'::`2'::_OptionsStorage
PUBLIC	??_C@_04INDFNAKP@Miss?$AA@			; `string'
PUBLIC	??_C@_07IKJEKJLO@Counter?$AA@			; `string'
PUBLIC	??_C@_05LICMIJMM@Guard?$AA@			; `string'
PUBLIC	??_C@_07EGAJKHF@Capture?$AA@			; `string'
PUBLIC	??_C@_02DPKJAMEF@?$CFd?$AA@			; `string'
PUBLIC	??_C@_07PBILKAFL@Success?$AA@			; `string'
PUBLIC	??_C@_04ODLKOBGJ@Fail?$AA@			; `string'
PUBLIC	??_C@_06OIGFGPHJ@Escape?$AA@			; `string'
PUBLIC	??_C@_05NHFMPFPE@Come?$CB?$AA@			; `string'
PUBLIC	??_C@_03BHGMNJJJ@Go?$CB?$AA@			; `string'
PUBLIC	??_C@_0M@DBACIDCK@Guard?5break?$AA@		; `string'
PUBLIC	??_C@_06MCJJLJDN@Danger?$AA@			; `string'
PUBLIC	??_C@_05KMBJHHBA@Leave?$AA@			; `string'
PUBLIC	??_C@_02JINPPBEP@No?$AA@			; `string'
PUBLIC	??_C@_04EMFHMJHP@Roar?$AA@			; `string'
PUBLIC	??_C@_0M@NHOFEJMF@SelfExplode?$AA@		; `string'
PUBLIC	??_C@_03GLKEJMAA@?$CF4d?$AA@			; `string'
PUBLIC	??_C@_04FEPFCGFN@?$NP?$LO?c?$KO?$AA@		; `string'
PUBLIC	??_C@_04HKBLFKAB@?y?$LL?K?$LN?$AA@		; `string'
PUBLIC	??_C@_07OJGJELHN@?$PM?$NO?y?$KN?5?$CFs?$AA@	; `string'
PUBLIC	??_C@_09GEAOALJ@?M?t?5?$CFs?$CFd?$KD?$KF?$AA@	; `string'
PUBLIC	??_C@_09EIFGJEIL@?$NL?A?5?$CFs?$CFd?$KD?$KF?$AA@ ; `string'
PUBLIC	??_C@_09JOBJMDHA@?Z?B?5?$CFs?$CFd?$KD?$KF?$AA@	; `string'
PUBLIC	??_C@_09IIPGOBOB@LightTake?$AA@			; `string'
PUBLIC	??_C@_0L@EGPLNANN@?$DP?$NP?H?y?w?$OA?u?$PM?$NO?$DP?$AA@ ; `string'
PUBLIC	??_C@_0P@MLDKCEHF@?$DP?$NP?H?y?w?$OA?u?5?$CFs?$CFd?$KD?$KF?$AA@ ; `string'
PUBLIC	??_C@_03PEJDBJAE@?$DP?$NN?$LL?$AA@		; `string'
PUBLIC	??_C@_04BOKPGBJO@?i?S?b?$KC?$AA@		; `string'
PUBLIC	??_C@_05PHLFPKGG@?q?$KH?$DP?y?$KB?$AA@		; `string'
PUBLIC	??_C@_05BEGCDMJP@?i?S?$DP?y?$KB?$AA@		; `string'
PUBLIC	??_C@_03PAOHCFLP@?i?$KG?$DP?$AA@		; `string'
PUBLIC	??_C@_04KKGCIKBG@?q?$KH?b?$KC?$AA@		; `string'
PUBLIC	??_C@_04NMNAOJOJ@?$PL?$LJ?m?$KN?$AA@		; `string'
PUBLIC	??_C@_04DKIAPBFG@?b?$KC?w?$NP?$AA@		; `string'
PUBLIC	??_C@_09MFDBOBKF@?$DP?y?$LL?5?$CFs?5?$DP?$DP?$AA@ ; `string'
PUBLIC	?__LINE__Var@?0??master@@YAXPAUaction@@@Z@4JA	; `master'::`1'::__LINE__Var
PUBLIC	?__LINE__Var@?0??monster@@YAXPAUaction@@@Z@4JA	; `monster'::`1'::__LINE__Var
PUBLIC	__real@3ff3333333333333
PUBLIC	__real@4034000000000000
EXTRN	___report_rangecheckfailure:PROC
EXTRN	_memset:PROC
EXTRN	__imp__IsDBCSLeadByte@4:PROC
EXTRN	__imp__qsort:PROC
EXTRN	_abs:PROC
EXTRN	__imp__atoi:PROC
EXTRN	__imp____stdio_common_vsprintf_s:PROC
EXTRN	?LoadBmp@@YAHH@Z:PROC				; LoadBmp
EXTRN	?split_damage@@YAHPADDPAHI@Z:PROC		; split_damage
EXTRN	?GetAction@@YAPAUaction@@EI@Z:PROC		; GetAction
EXTRN	?DeathAction@@YAXPAUaction@@@Z:PROC		; DeathAction
EXTRN	?Rnd@@YAHHH@Z:PROC				; Rnd
EXTRN	?GetStrWidth@@YAHPAD@Z:PROC			; GetStrWidth
EXTRN	?StockFontBuffer@@YAHHHDHPADH@Z:PROC		; StockFontBuffer
EXTRN	?radar@@YAXPAUaction@@PAH1@Z:PROC		; radar
EXTRN	?radar2@@YAHPAUaction@@HHH@Z:PROC		; radar2
EXTRN	?gemini@@YAXPAUaction@@@Z:PROC			; gemini
EXTRN	?pattern@@YAHPAUaction@@HH@Z:PROC		; pattern
EXTRN	?makeStringFromEscaped@@YAPADPAD@Z:PROC		; makeStringFromEscaped
EXTRN	?play_se@@YAHHHH@Z:PROC				; play_se
EXTRN	?play_bgm@@YAHH@Z:PROC				; play_bgm
EXTRN	?MakeWindowDisp@@YAPAUaction@@HHHHHH@Z:PROC	; MakeWindowDisp
EXTRN	?MakeAnimDisp@@YAPAUaction@@HHHH@Z:PROC		; MakeAnimDisp
EXTRN	_sqrt:PROC
EXTRN	?JL_卡档复位@@YAXPAUaction@@@Z:PROC		; JL_卡档复位
EXTRN	@_RTC_CheckStackVars@8:PROC
EXTRN	@__security_check_cookie@4:PROC
EXTRN	__RTC_CheckEsp:PROC
EXTRN	__RTC_InitBase:PROC
EXTRN	__RTC_Shutdown:PROC
EXTRN	__RTC_UninitUse:PROC
EXTRN	__ftol2_sse:PROC
EXTRN	?DISPLACEMENT_X@@3HA:DWORD			; DISPLACEMENT_X
EXTRN	?DISPLACEMENT_Y@@3HA:DWORD			; DISPLACEMENT_Y
EXTRN	?SpriteInfo@@3PAUSPRITE_INFO@@A:BYTE		; SpriteInfo
EXTRN	?lpDraw@@3PAUDIRECT_DRAW@@A:DWORD		; lpDraw
EXTRN	?ResoMode@@3HA:DWORD				; ResoMode
EXTRN	?LowResoCmdFlag@@3HA:DWORD			; LowResoCmdFlag
EXTRN	?joy_con@@3PAKA:QWORD				; joy_con
EXTRN	?s_timer@@3GA:WORD				; s_timer
EXTRN	?slow_flg@@3HA:DWORD				; slow_flg
EXTRN	?flash_vct_no@@3HA:DWORD			; flash_vct_no
EXTRN	?p_party@@3PAPAUaction@@A:BYTE			; p_party
EXTRN	?action_inf@@3HA:DWORD				; action_inf
EXTRN	?BattleCmd@@3PADA:BYTE				; BattleCmd
EXTRN	?BattleStatus@@3PADA:BYTE			; BattleStatus
EXTRN	?BattleMyNo@@3HA:DWORD				; BattleMyNo
EXTRN	?battlePetNoBak2@@3HA:DWORD			; battlePetNoBak2
EXTRN	?BattleBpFlag@@3HA:DWORD			; BattleBpFlag
EXTRN	?pc@@3UPC@@A:BYTE				; pc
EXTRN	?t_music_bgm_no@@3HA:DWORD			; t_music_bgm_no
EXTRN	?BattleMapNo@@3HA:DWORD				; BattleMapNo
EXTRN	?g_bUseAlpha@@3HA:DWORD				; g_bUseAlpha
EXTRN	?bNewServer@@3HA:DWORD				; bNewServer
EXTRN	?piyo_tbl@@3PAHA:BYTE				; piyo_tbl
EXTRN	?piyo_point@@3HA:DWORD				; piyo_point
EXTRN	?gStr光环@@3PADA:BYTE				; gStr光环
EXTRN	___security_cookie:DWORD
EXTRN	__fltused:DWORD
;	COMDAT ?_OptionsStorage@?1??__local_stdio_printf_options@@9@4_KA
_BSS	SEGMENT
?_OptionsStorage@?1??__local_stdio_printf_options@@9@4_KA DQ 01H DUP (?) ; `__local_stdio_printf_options'::`2'::_OptionsStorage
_BSS	ENDS
_BSS	SEGMENT
?command_point@@3HA DD 01H DUP (?)			; command_point
?p_kanji@@3PAUaction@@A DD 01H DUP (?)			; p_kanji
?kanji_buf@@3PAY0IA@DA DB 0200H DUP (?)			; kanji_buf
?p_master@@3PAUaction@@A DD 01H DUP (?)			; p_master
?p_attrib@@3PAUaction@@A DD 01H DUP (?)			; p_attrib
?p_missile@@3PAPAUaction@@A DD 015H DUP (?)		; p_missile
	ALIGN	8

?sort_chr_buf@@3PAUSORT_CHR_EQU@@A DQ 028H DUP (?)	; sort_chr_buf
?monster_start_pos@@3PAHA DD 028H DUP (?)		; monster_start_pos
?monster_place_pos@@3PAHA DD 028H DUP (?)		; monster_place_pos
?AttMgc@@3UATTACK_MAGIC@@A DB 0c8H DUP (?)		; AttMgc
?AttackedInfo@@3PAHA DD 028H DUP (?)			; AttackedInfo
?iAttackedNum@@3HA DD 01H DUP (?)			; iAttackedNum
?iCurAttackedFinishNum@@3HA DD 01H DUP (?)		; iCurAttackedFinishNum
?ToCallMgc@@3UTOCALL_MAGIC@@A DB 0ccH DUP (?)		; ToCallMgc
?a0tmp@?1??monster@@YAXPAUaction@@@Z@4PAPAU2@A DD 0aH DUP (?) ; `monster'::`2'::a0tmp
?a0mark@?1??monster@@YAXPAUaction@@@Z@4PAHA DD 0aH DUP (?) ; `monster'::`2'::a0mark
?a0tmpcount@?1??monster@@YAXPAUaction@@@Z@4HA DD 01H DUP (?) ; `monster'::`2'::a0tmpcount
?bc_pointer@@3HA DD 01H DUP (?)				; bc_pointer
_BSS	ENDS
;	COMDAT __real@4034000000000000
CONST	SEGMENT
__real@4034000000000000 DQ 04034000000000000r	; 20
CONST	ENDS
;	COMDAT __real@3ff3333333333333
CONST	SEGMENT
__real@3ff3333333333333 DQ 03ff3333333333333r	; 1.2
CONST	ENDS
;	COMDAT rtc$TMZ
rtc$TMZ	SEGMENT
__RTC_Shutdown.rtc$TMZ DD FLAT:__RTC_Shutdown
rtc$TMZ	ENDS
;	COMDAT rtc$IMZ
rtc$IMZ	SEGMENT
__RTC_InitBase.rtc$IMZ DD FLAT:__RTC_InitBase
rtc$IMZ	ENDS
;	COMDAT ?__LINE__Var@?0??monster@@YAXPAUaction@@@Z@4JA
_DATA	SEGMENT
?__LINE__Var@?0??monster@@YAXPAUaction@@@Z@4JA DD 018b4H ; `monster'::`1'::__LINE__Var
_DATA	ENDS
;	COMDAT ?__LINE__Var@?0??master@@YAXPAUaction@@@Z@4JA
_DATA	SEGMENT
?__LINE__Var@?0??master@@YAXPAUaction@@@Z@4JA DD 013ccH	; `master'::`1'::__LINE__Var
_DATA	ENDS
;	COMDAT ??_C@_09MFDBOBKF@?$DP?y?$LL?5?$CFs?5?$DP?$DP?$AA@
CONST	SEGMENT
??_C@_09MFDBOBKF@?$DP?y?$LL?5?$CFs?5?$DP?$DP?$AA@ DB '?', 0f9H, 0bbH, ' %'
	DB	's ??', 00H					; `string'
CONST	ENDS
;	COMDAT ??_C@_04DKIAPBFG@?b?$KC?w?$NP?$AA@
CONST	SEGMENT
??_C@_04DKIAPBFG@?b?$KC?w?$NP?$AA@ DB 0e2H, 0a2H, 0f7H, 0dfH, 00H ; `string'
CONST	ENDS
;	COMDAT ??_C@_04NMNAOJOJ@?$PL?$LJ?m?$KN?$AA@
CONST	SEGMENT
??_C@_04NMNAOJOJ@?$PL?$LJ?m?$KN?$AA@ DB 0fbH, 0b9H, 0edH, 0adH, 00H ; `string'
CONST	ENDS
;	COMDAT ??_C@_04KKGCIKBG@?q?$KH?b?$KC?$AA@
CONST	SEGMENT
??_C@_04KKGCIKBG@?q?$KH?b?$KC?$AA@ DB 0f1H, 0a7H, 0e2H, 0a2H, 00H ; `string'
CONST	ENDS
;	COMDAT ??_C@_03PAOHCFLP@?i?$KG?$DP?$AA@
CONST	SEGMENT
??_C@_03PAOHCFLP@?i?$KG?$DP?$AA@ DB 0e9H, 0a6H, '?', 00H ; `string'
CONST	ENDS
;	COMDAT ??_C@_05BEGCDMJP@?i?S?$DP?y?$KB?$AA@
CONST	SEGMENT
??_C@_05BEGCDMJP@?i?S?$DP?y?$KB?$AA@ DB 0e9H, 0d3H, '?', 0f9H, 0a1H, 00H ; `string'
CONST	ENDS
;	COMDAT ??_C@_05PHLFPKGG@?q?$KH?$DP?y?$KB?$AA@
CONST	SEGMENT
??_C@_05PHLFPKGG@?q?$KH?$DP?y?$KB?$AA@ DB 0f1H, 0a7H, '?', 0f9H, 0a1H, 00H ; `string'
CONST	ENDS
;	COMDAT ??_C@_04BOKPGBJO@?i?S?b?$KC?$AA@
CONST	SEGMENT
??_C@_04BOKPGBJO@?i?S?b?$KC?$AA@ DB 0e9H, 0d3H, 0e2H, 0a2H, 00H ; `string'
CONST	ENDS
;	COMDAT ??_C@_03PEJDBJAE@?$DP?$NN?$LL?$AA@
CONST	SEGMENT
??_C@_03PEJDBJAE@?$DP?$NN?$LL?$AA@ DB '?', 0ddH, 0bbH, 00H ; `string'
CONST	ENDS
;	COMDAT ??_C@_0P@MLDKCEHF@?$DP?$NP?H?y?w?$OA?u?5?$CFs?$CFd?$KD?$KF?$AA@
CONST	SEGMENT
??_C@_0P@MLDKCEHF@?$DP?$NP?H?y?w?$OA?u?5?$CFs?$CFd?$KD?$KF?$AA@ DB '?', 0dfH
	DB	0c8H, 0f9H, 0f7H, 0e0H, 0f5H, ' %s%d', 0a3H, 0a5H, 00H ; `string'
CONST	ENDS
;	COMDAT ??_C@_0L@EGPLNANN@?$DP?$NP?H?y?w?$OA?u?$PM?$NO?$DP?$AA@
CONST	SEGMENT
??_C@_0L@EGPLNANN@?$DP?$NP?H?y?w?$OA?u?$PM?$NO?$DP?$AA@ DB '?', 0dfH, 0c8H
	DB	0f9H, 0f7H, 0e0H, 0f5H, 0fcH, 0deH, '?', 00H	; `string'
CONST	ENDS
;	COMDAT ??_C@_09IIPGOBOB@LightTake?$AA@
CONST	SEGMENT
??_C@_09IIPGOBOB@LightTake?$AA@ DB 'LightTake', 00H	; `string'
CONST	ENDS
;	COMDAT ??_C@_09JOBJMDHA@?Z?B?5?$CFs?$CFd?$KD?$KF?$AA@
CONST	SEGMENT
??_C@_09JOBJMDHA@?Z?B?5?$CFs?$CFd?$KD?$KF?$AA@ DB 0daH, 0c2H, ' %s%d', 0a3H
	DB	0a5H, 00H					; `string'
CONST	ENDS
;	COMDAT ??_C@_09EIFGJEIL@?$NL?A?5?$CFs?$CFd?$KD?$KF?$AA@
CONST	SEGMENT
??_C@_09EIFGJEIL@?$NL?A?5?$CFs?$CFd?$KD?$KF?$AA@ DB 0dbH, 0c1H, ' %s%d', 0a3H
	DB	0a5H, 00H					; `string'
CONST	ENDS
;	COMDAT ??_C@_09GEAOALJ@?M?t?5?$CFs?$CFd?$KD?$KF?$AA@
CONST	SEGMENT
??_C@_09GEAOALJ@?M?t?5?$CFs?$CFd?$KD?$KF?$AA@ DB 0cdH, 0f4H, ' %s%d', 0a3H
	DB	0a5H, 00H					; `string'
CONST	ENDS
;	COMDAT ??_C@_07OJGJELHN@?$PM?$NO?y?$KN?5?$CFs?$AA@
CONST	SEGMENT
??_C@_07OJGJELHN@?$PM?$NO?y?$KN?5?$CFs?$AA@ DB 0fcH, 0deH, 0f9H, 0adH, ' '
	DB	'%s', 00H					; `string'
CONST	ENDS
;	COMDAT ??_C@_04HKBLFKAB@?y?$LL?K?$LN?$AA@
CONST	SEGMENT
??_C@_04HKBLFKAB@?y?$LL?K?$LN?$AA@ DB 0f9H, 0bbH, 0cbH, 0bdH, 00H ; `string'
CONST	ENDS
;	COMDAT ??_C@_04FEPFCGFN@?$NP?$LO?c?$KO?$AA@
CONST	SEGMENT
??_C@_04FEPFCGFN@?$NP?$LO?c?$KO?$AA@ DB 0dfH, 0beH, 0e3H, 0aeH, 00H ; `string'
CONST	ENDS
;	COMDAT ??_C@_03GLKEJMAA@?$CF4d?$AA@
CONST	SEGMENT
??_C@_03GLKEJMAA@?$CF4d?$AA@ DB '%4d', 00H		; `string'
CONST	ENDS
;	COMDAT ??_C@_0M@NHOFEJMF@SelfExplode?$AA@
CONST	SEGMENT
??_C@_0M@NHOFEJMF@SelfExplode?$AA@ DB 'SelfExplode', 00H ; `string'
CONST	ENDS
;	COMDAT ??_C@_04EMFHMJHP@Roar?$AA@
CONST	SEGMENT
??_C@_04EMFHMJHP@Roar?$AA@ DB 'Roar', 00H		; `string'
CONST	ENDS
;	COMDAT ??_C@_02JINPPBEP@No?$AA@
CONST	SEGMENT
??_C@_02JINPPBEP@No?$AA@ DB 'No', 00H			; `string'
CONST	ENDS
;	COMDAT ??_C@_05KMBJHHBA@Leave?$AA@
CONST	SEGMENT
??_C@_05KMBJHHBA@Leave?$AA@ DB 'Leave', 00H		; `string'
CONST	ENDS
;	COMDAT ??_C@_06MCJJLJDN@Danger?$AA@
CONST	SEGMENT
??_C@_06MCJJLJDN@Danger?$AA@ DB 'Danger', 00H		; `string'
CONST	ENDS
;	COMDAT ??_C@_0M@DBACIDCK@Guard?5break?$AA@
CONST	SEGMENT
??_C@_0M@DBACIDCK@Guard?5break?$AA@ DB 'Guard break', 00H ; `string'
CONST	ENDS
;	COMDAT ??_C@_03BHGMNJJJ@Go?$CB?$AA@
CONST	SEGMENT
??_C@_03BHGMNJJJ@Go?$CB?$AA@ DB 'Go!', 00H		; `string'
CONST	ENDS
;	COMDAT ??_C@_05NHFMPFPE@Come?$CB?$AA@
CONST	SEGMENT
??_C@_05NHFMPFPE@Come?$CB?$AA@ DB 'Come!', 00H		; `string'
CONST	ENDS
;	COMDAT ??_C@_06OIGFGPHJ@Escape?$AA@
CONST	SEGMENT
??_C@_06OIGFGPHJ@Escape?$AA@ DB 'Escape', 00H		; `string'
CONST	ENDS
;	COMDAT ??_C@_04ODLKOBGJ@Fail?$AA@
CONST	SEGMENT
??_C@_04ODLKOBGJ@Fail?$AA@ DB 'Fail', 00H		; `string'
CONST	ENDS
;	COMDAT ??_C@_07PBILKAFL@Success?$AA@
CONST	SEGMENT
??_C@_07PBILKAFL@Success?$AA@ DB 'Success', 00H		; `string'
CONST	ENDS
;	COMDAT ??_C@_02DPKJAMEF@?$CFd?$AA@
CONST	SEGMENT
??_C@_02DPKJAMEF@?$CFd?$AA@ DB '%d', 00H		; `string'
CONST	ENDS
;	COMDAT ??_C@_07EGAJKHF@Capture?$AA@
CONST	SEGMENT
??_C@_07EGAJKHF@Capture?$AA@ DB 'Capture', 00H		; `string'
CONST	ENDS
;	COMDAT ??_C@_05LICMIJMM@Guard?$AA@
CONST	SEGMENT
??_C@_05LICMIJMM@Guard?$AA@ DB 'Guard', 00H		; `string'
CONST	ENDS
;	COMDAT ??_C@_07IKJEKJLO@Counter?$AA@
CONST	SEGMENT
??_C@_07IKJEKJLO@Counter?$AA@ DB 'Counter', 00H		; `string'
CONST	ENDS
;	COMDAT ??_C@_04INDFNAKP@Miss?$AA@
CONST	SEGMENT
??_C@_04INDFNAKP@Miss?$AA@ DB 'Miss', 00H		; `string'
CONST	ENDS
; Function compile flags: /Odtp /RTCsu /ZI
; File c:\program files (x86)\microsoft visual studio 14.0\vc\include\vadefs.h
;	COMDAT ??$__vcrt_va_start_verify_argument_type@PBD@@YAXXZ
_TEXT	SEGMENT
??$__vcrt_va_start_verify_argument_type@PBD@@YAXXZ PROC	; __vcrt_va_start_verify_argument_type<char const *>, COMDAT

; 144  :         {

  00000	55		 push	 ebp
  00001	8b ec		 mov	 ebp, esp
  00003	81 ec c0 00 00
	00		 sub	 esp, 192		; 000000c0H
  00009	53		 push	 ebx
  0000a	56		 push	 esi
  0000b	57		 push	 edi
  0000c	8d bd 40 ff ff
	ff		 lea	 edi, DWORD PTR [ebp-192]
  00012	b9 30 00 00 00	 mov	 ecx, 48			; 00000030H
  00017	b8 cc cc cc cc	 mov	 eax, -858993460		; ccccccccH
  0001c	f3 ab		 rep stosd

; 145  :             static_assert(!__vcrt_va_list_is_reference<_Ty>::__the_value, "va_start argument must not have reference type and must not be parenthesized");
; 146  :         }

  0001e	5f		 pop	 edi
  0001f	5e		 pop	 esi
  00020	5b		 pop	 ebx
  00021	8b e5		 mov	 esp, ebp
  00023	5d		 pop	 ebp
  00024	c3		 ret	 0
??$__vcrt_va_start_verify_argument_type@PBD@@YAXXZ ENDP	; __vcrt_va_start_verify_argument_type<char const *>
_TEXT	ENDS
; Function compile flags: /Odtp /RTCsu /ZI
; File c:\users\administrator\desktop\????? ??\????? ??\client source code\oft\oft.cpp
;	COMDAT ?disp_shild@@YAXXZ
_TEXT	SEGMENT
_psource$ = -416					; size = 4
_d7$ = -401						; size = 1
_d6$ = -389						; size = 1
_ddsd$ = -380						; size = 108
_box$ = -264						; size = 256
__$ArrayPad$ = -4					; size = 4
?disp_shild@@YAXXZ PROC					; disp_shild, COMDAT

; 12352: {

  00000	55		 push	 ebp
  00001	8b ec		 mov	 ebp, esp
  00003	81 ec 64 02 00
	00		 sub	 esp, 612		; 00000264H
  00009	53		 push	 ebx
  0000a	56		 push	 esi
  0000b	57		 push	 edi
  0000c	8d bd 9c fd ff
	ff		 lea	 edi, DWORD PTR [ebp-612]
  00012	b9 99 00 00 00	 mov	 ecx, 153		; 00000099H
  00017	b8 cc cc cc cc	 mov	 eax, -858993460		; ccccccccH
  0001c	f3 ab		 rep stosd
  0001e	a1 00 00 00 00	 mov	 eax, DWORD PTR ___security_cookie
  00023	33 c5		 xor	 eax, ebp
  00025	89 45 fc	 mov	 DWORD PTR __$ArrayPad$[ebp], eax

; 12353: 	char box[] = { 0, 0, 0, 0, 0, 1, 1, 1, 1, 1, 1, 0, 0, 0, 0, 0,

  00028	c6 85 f8 fe ff
	ff 00		 mov	 BYTE PTR _box$[ebp], 0
  0002f	c6 85 f9 fe ff
	ff 00		 mov	 BYTE PTR _box$[ebp+1], 0
  00036	c6 85 fa fe ff
	ff 00		 mov	 BYTE PTR _box$[ebp+2], 0
  0003d	c6 85 fb fe ff
	ff 00		 mov	 BYTE PTR _box$[ebp+3], 0
  00044	c6 85 fc fe ff
	ff 00		 mov	 BYTE PTR _box$[ebp+4], 0
  0004b	c6 85 fd fe ff
	ff 01		 mov	 BYTE PTR _box$[ebp+5], 1
  00052	c6 85 fe fe ff
	ff 01		 mov	 BYTE PTR _box$[ebp+6], 1
  00059	c6 85 ff fe ff
	ff 01		 mov	 BYTE PTR _box$[ebp+7], 1
  00060	c6 85 00 ff ff
	ff 01		 mov	 BYTE PTR _box$[ebp+8], 1
  00067	c6 85 01 ff ff
	ff 01		 mov	 BYTE PTR _box$[ebp+9], 1
  0006e	c6 85 02 ff ff
	ff 01		 mov	 BYTE PTR _box$[ebp+10], 1
  00075	c6 85 03 ff ff
	ff 00		 mov	 BYTE PTR _box$[ebp+11], 0
  0007c	c6 85 04 ff ff
	ff 00		 mov	 BYTE PTR _box$[ebp+12], 0
  00083	c6 85 05 ff ff
	ff 00		 mov	 BYTE PTR _box$[ebp+13], 0
  0008a	c6 85 06 ff ff
	ff 00		 mov	 BYTE PTR _box$[ebp+14], 0
  00091	c6 85 07 ff ff
	ff 00		 mov	 BYTE PTR _box$[ebp+15], 0

; 12354: 		0, 0, 0, 1, 1, 1, 1, 1, 1, 1, 1, 1, 1, 0, 0, 0,

  00098	c6 85 08 ff ff
	ff 00		 mov	 BYTE PTR _box$[ebp+16], 0
  0009f	c6 85 09 ff ff
	ff 00		 mov	 BYTE PTR _box$[ebp+17], 0
  000a6	c6 85 0a ff ff
	ff 00		 mov	 BYTE PTR _box$[ebp+18], 0
  000ad	c6 85 0b ff ff
	ff 01		 mov	 BYTE PTR _box$[ebp+19], 1
  000b4	c6 85 0c ff ff
	ff 01		 mov	 BYTE PTR _box$[ebp+20], 1
  000bb	c6 85 0d ff ff
	ff 01		 mov	 BYTE PTR _box$[ebp+21], 1
  000c2	c6 85 0e ff ff
	ff 01		 mov	 BYTE PTR _box$[ebp+22], 1
  000c9	c6 85 0f ff ff
	ff 01		 mov	 BYTE PTR _box$[ebp+23], 1
  000d0	c6 85 10 ff ff
	ff 01		 mov	 BYTE PTR _box$[ebp+24], 1
  000d7	c6 85 11 ff ff
	ff 01		 mov	 BYTE PTR _box$[ebp+25], 1
  000de	c6 85 12 ff ff
	ff 01		 mov	 BYTE PTR _box$[ebp+26], 1
  000e5	c6 85 13 ff ff
	ff 01		 mov	 BYTE PTR _box$[ebp+27], 1
  000ec	c6 85 14 ff ff
	ff 01		 mov	 BYTE PTR _box$[ebp+28], 1
  000f3	c6 85 15 ff ff
	ff 00		 mov	 BYTE PTR _box$[ebp+29], 0
  000fa	c6 85 16 ff ff
	ff 00		 mov	 BYTE PTR _box$[ebp+30], 0
  00101	c6 85 17 ff ff
	ff 00		 mov	 BYTE PTR _box$[ebp+31], 0

; 12355: 		0, 0, 1, 1, 1, 1, 1, 1, 1, 1, 1, 1, 1, 1, 0, 0,

  00108	c6 85 18 ff ff
	ff 00		 mov	 BYTE PTR _box$[ebp+32], 0
  0010f	c6 85 19 ff ff
	ff 00		 mov	 BYTE PTR _box$[ebp+33], 0
  00116	c6 85 1a ff ff
	ff 01		 mov	 BYTE PTR _box$[ebp+34], 1
  0011d	c6 85 1b ff ff
	ff 01		 mov	 BYTE PTR _box$[ebp+35], 1
  00124	c6 85 1c ff ff
	ff 01		 mov	 BYTE PTR _box$[ebp+36], 1
  0012b	c6 85 1d ff ff
	ff 01		 mov	 BYTE PTR _box$[ebp+37], 1
  00132	c6 85 1e ff ff
	ff 01		 mov	 BYTE PTR _box$[ebp+38], 1
  00139	c6 85 1f ff ff
	ff 01		 mov	 BYTE PTR _box$[ebp+39], 1
  00140	c6 85 20 ff ff
	ff 01		 mov	 BYTE PTR _box$[ebp+40], 1
  00147	c6 85 21 ff ff
	ff 01		 mov	 BYTE PTR _box$[ebp+41], 1
  0014e	c6 85 22 ff ff
	ff 01		 mov	 BYTE PTR _box$[ebp+42], 1
  00155	c6 85 23 ff ff
	ff 01		 mov	 BYTE PTR _box$[ebp+43], 1
  0015c	c6 85 24 ff ff
	ff 01		 mov	 BYTE PTR _box$[ebp+44], 1
  00163	c6 85 25 ff ff
	ff 01		 mov	 BYTE PTR _box$[ebp+45], 1
  0016a	c6 85 26 ff ff
	ff 00		 mov	 BYTE PTR _box$[ebp+46], 0
  00171	c6 85 27 ff ff
	ff 00		 mov	 BYTE PTR _box$[ebp+47], 0

; 12356: 		0, 0, 1, 1, 1, 1, 1, 1, 1, 1, 1, 1, 1, 1, 0, 0,

  00178	c6 85 28 ff ff
	ff 00		 mov	 BYTE PTR _box$[ebp+48], 0
  0017f	c6 85 29 ff ff
	ff 00		 mov	 BYTE PTR _box$[ebp+49], 0
  00186	c6 85 2a ff ff
	ff 01		 mov	 BYTE PTR _box$[ebp+50], 1
  0018d	c6 85 2b ff ff
	ff 01		 mov	 BYTE PTR _box$[ebp+51], 1
  00194	c6 85 2c ff ff
	ff 01		 mov	 BYTE PTR _box$[ebp+52], 1
  0019b	c6 85 2d ff ff
	ff 01		 mov	 BYTE PTR _box$[ebp+53], 1
  001a2	c6 85 2e ff ff
	ff 01		 mov	 BYTE PTR _box$[ebp+54], 1
  001a9	c6 85 2f ff ff
	ff 01		 mov	 BYTE PTR _box$[ebp+55], 1
  001b0	c6 85 30 ff ff
	ff 01		 mov	 BYTE PTR _box$[ebp+56], 1
  001b7	c6 85 31 ff ff
	ff 01		 mov	 BYTE PTR _box$[ebp+57], 1
  001be	c6 85 32 ff ff
	ff 01		 mov	 BYTE PTR _box$[ebp+58], 1
  001c5	c6 85 33 ff ff
	ff 01		 mov	 BYTE PTR _box$[ebp+59], 1
  001cc	c6 85 34 ff ff
	ff 01		 mov	 BYTE PTR _box$[ebp+60], 1
  001d3	c6 85 35 ff ff
	ff 01		 mov	 BYTE PTR _box$[ebp+61], 1
  001da	c6 85 36 ff ff
	ff 00		 mov	 BYTE PTR _box$[ebp+62], 0
  001e1	c6 85 37 ff ff
	ff 00		 mov	 BYTE PTR _box$[ebp+63], 0

; 12357: 		0, 1, 1, 1, 0, 0, 0, 1, 1, 0, 0, 0, 1, 1, 1, 0,

  001e8	c6 85 38 ff ff
	ff 00		 mov	 BYTE PTR _box$[ebp+64], 0
  001ef	c6 85 39 ff ff
	ff 01		 mov	 BYTE PTR _box$[ebp+65], 1
  001f6	c6 85 3a ff ff
	ff 01		 mov	 BYTE PTR _box$[ebp+66], 1
  001fd	c6 85 3b ff ff
	ff 01		 mov	 BYTE PTR _box$[ebp+67], 1
  00204	c6 85 3c ff ff
	ff 00		 mov	 BYTE PTR _box$[ebp+68], 0
  0020b	c6 85 3d ff ff
	ff 00		 mov	 BYTE PTR _box$[ebp+69], 0
  00212	c6 85 3e ff ff
	ff 00		 mov	 BYTE PTR _box$[ebp+70], 0
  00219	c6 85 3f ff ff
	ff 01		 mov	 BYTE PTR _box$[ebp+71], 1
  00220	c6 85 40 ff ff
	ff 01		 mov	 BYTE PTR _box$[ebp+72], 1
  00227	c6 85 41 ff ff
	ff 00		 mov	 BYTE PTR _box$[ebp+73], 0
  0022e	c6 85 42 ff ff
	ff 00		 mov	 BYTE PTR _box$[ebp+74], 0
  00235	c6 85 43 ff ff
	ff 00		 mov	 BYTE PTR _box$[ebp+75], 0
  0023c	c6 85 44 ff ff
	ff 01		 mov	 BYTE PTR _box$[ebp+76], 1
  00243	c6 85 45 ff ff
	ff 01		 mov	 BYTE PTR _box$[ebp+77], 1
  0024a	c6 85 46 ff ff
	ff 01		 mov	 BYTE PTR _box$[ebp+78], 1
  00251	c6 85 47 ff ff
	ff 00		 mov	 BYTE PTR _box$[ebp+79], 0

; 12358: 		0, 1, 1, 1, 0, 0, 0, 1, 1, 0, 0, 0, 1, 1, 1, 0,

  00258	c6 85 48 ff ff
	ff 00		 mov	 BYTE PTR _box$[ebp+80], 0
  0025f	c6 85 49 ff ff
	ff 01		 mov	 BYTE PTR _box$[ebp+81], 1
  00266	c6 85 4a ff ff
	ff 01		 mov	 BYTE PTR _box$[ebp+82], 1
  0026d	c6 85 4b ff ff
	ff 01		 mov	 BYTE PTR _box$[ebp+83], 1
  00274	c6 85 4c ff ff
	ff 00		 mov	 BYTE PTR _box$[ebp+84], 0
  0027b	c6 85 4d ff ff
	ff 00		 mov	 BYTE PTR _box$[ebp+85], 0
  00282	c6 85 4e ff ff
	ff 00		 mov	 BYTE PTR _box$[ebp+86], 0
  00289	c6 85 4f ff ff
	ff 01		 mov	 BYTE PTR _box$[ebp+87], 1
  00290	c6 85 50 ff ff
	ff 01		 mov	 BYTE PTR _box$[ebp+88], 1
  00297	c6 85 51 ff ff
	ff 00		 mov	 BYTE PTR _box$[ebp+89], 0
  0029e	c6 85 52 ff ff
	ff 00		 mov	 BYTE PTR _box$[ebp+90], 0
  002a5	c6 85 53 ff ff
	ff 00		 mov	 BYTE PTR _box$[ebp+91], 0
  002ac	c6 85 54 ff ff
	ff 01		 mov	 BYTE PTR _box$[ebp+92], 1
  002b3	c6 85 55 ff ff
	ff 01		 mov	 BYTE PTR _box$[ebp+93], 1
  002ba	c6 85 56 ff ff
	ff 01		 mov	 BYTE PTR _box$[ebp+94], 1
  002c1	c6 85 57 ff ff
	ff 00		 mov	 BYTE PTR _box$[ebp+95], 0

; 12359: 		0, 1, 1, 1, 1, 1, 1, 1, 1, 1, 1, 1, 1, 1, 1, 0,

  002c8	c6 85 58 ff ff
	ff 00		 mov	 BYTE PTR _box$[ebp+96], 0
  002cf	c6 85 59 ff ff
	ff 01		 mov	 BYTE PTR _box$[ebp+97], 1
  002d6	c6 85 5a ff ff
	ff 01		 mov	 BYTE PTR _box$[ebp+98], 1
  002dd	c6 85 5b ff ff
	ff 01		 mov	 BYTE PTR _box$[ebp+99], 1
  002e4	c6 85 5c ff ff
	ff 01		 mov	 BYTE PTR _box$[ebp+100], 1
  002eb	c6 85 5d ff ff
	ff 01		 mov	 BYTE PTR _box$[ebp+101], 1
  002f2	c6 85 5e ff ff
	ff 01		 mov	 BYTE PTR _box$[ebp+102], 1
  002f9	c6 85 5f ff ff
	ff 01		 mov	 BYTE PTR _box$[ebp+103], 1
  00300	c6 85 60 ff ff
	ff 01		 mov	 BYTE PTR _box$[ebp+104], 1
  00307	c6 85 61 ff ff
	ff 01		 mov	 BYTE PTR _box$[ebp+105], 1
  0030e	c6 85 62 ff ff
	ff 01		 mov	 BYTE PTR _box$[ebp+106], 1
  00315	c6 85 63 ff ff
	ff 01		 mov	 BYTE PTR _box$[ebp+107], 1
  0031c	c6 85 64 ff ff
	ff 01		 mov	 BYTE PTR _box$[ebp+108], 1
  00323	c6 85 65 ff ff
	ff 01		 mov	 BYTE PTR _box$[ebp+109], 1
  0032a	c6 85 66 ff ff
	ff 01		 mov	 BYTE PTR _box$[ebp+110], 1
  00331	c6 85 67 ff ff
	ff 00		 mov	 BYTE PTR _box$[ebp+111], 0

; 12360: 		0, 1, 1, 1, 1, 1, 1, 1, 1, 1, 1, 1, 1, 1, 1, 0,

  00338	c6 85 68 ff ff
	ff 00		 mov	 BYTE PTR _box$[ebp+112], 0
  0033f	c6 85 69 ff ff
	ff 01		 mov	 BYTE PTR _box$[ebp+113], 1
  00346	c6 85 6a ff ff
	ff 01		 mov	 BYTE PTR _box$[ebp+114], 1
  0034d	c6 85 6b ff ff
	ff 01		 mov	 BYTE PTR _box$[ebp+115], 1
  00354	c6 85 6c ff ff
	ff 01		 mov	 BYTE PTR _box$[ebp+116], 1
  0035b	c6 85 6d ff ff
	ff 01		 mov	 BYTE PTR _box$[ebp+117], 1
  00362	c6 85 6e ff ff
	ff 01		 mov	 BYTE PTR _box$[ebp+118], 1
  00369	c6 85 6f ff ff
	ff 01		 mov	 BYTE PTR _box$[ebp+119], 1
  00370	c6 85 70 ff ff
	ff 01		 mov	 BYTE PTR _box$[ebp+120], 1
  00377	c6 85 71 ff ff
	ff 01		 mov	 BYTE PTR _box$[ebp+121], 1
  0037e	c6 85 72 ff ff
	ff 01		 mov	 BYTE PTR _box$[ebp+122], 1
  00385	c6 85 73 ff ff
	ff 01		 mov	 BYTE PTR _box$[ebp+123], 1
  0038c	c6 85 74 ff ff
	ff 01		 mov	 BYTE PTR _box$[ebp+124], 1
  00393	c6 85 75 ff ff
	ff 01		 mov	 BYTE PTR _box$[ebp+125], 1
  0039a	c6 85 76 ff ff
	ff 01		 mov	 BYTE PTR _box$[ebp+126], 1
  003a1	c6 85 77 ff ff
	ff 00		 mov	 BYTE PTR _box$[ebp+127], 0

; 12361: 		0, 0, 0, 1, 1, 1, 1, 0, 0, 1, 1, 1, 1, 0, 0, 0,

  003a8	c6 85 78 ff ff
	ff 00		 mov	 BYTE PTR _box$[ebp+128], 0
  003af	c6 85 79 ff ff
	ff 00		 mov	 BYTE PTR _box$[ebp+129], 0
  003b6	c6 85 7a ff ff
	ff 00		 mov	 BYTE PTR _box$[ebp+130], 0
  003bd	c6 85 7b ff ff
	ff 01		 mov	 BYTE PTR _box$[ebp+131], 1
  003c4	c6 85 7c ff ff
	ff 01		 mov	 BYTE PTR _box$[ebp+132], 1
  003cb	c6 85 7d ff ff
	ff 01		 mov	 BYTE PTR _box$[ebp+133], 1
  003d2	c6 85 7e ff ff
	ff 01		 mov	 BYTE PTR _box$[ebp+134], 1
  003d9	c6 85 7f ff ff
	ff 00		 mov	 BYTE PTR _box$[ebp+135], 0
  003e0	c6 45 80 00	 mov	 BYTE PTR _box$[ebp+136], 0
  003e4	c6 45 81 01	 mov	 BYTE PTR _box$[ebp+137], 1
  003e8	c6 45 82 01	 mov	 BYTE PTR _box$[ebp+138], 1
  003ec	c6 45 83 01	 mov	 BYTE PTR _box$[ebp+139], 1
  003f0	c6 45 84 01	 mov	 BYTE PTR _box$[ebp+140], 1
  003f4	c6 45 85 00	 mov	 BYTE PTR _box$[ebp+141], 0
  003f8	c6 45 86 00	 mov	 BYTE PTR _box$[ebp+142], 0
  003fc	c6 45 87 00	 mov	 BYTE PTR _box$[ebp+143], 0

; 12362: 		0, 0, 0, 1, 1, 1, 1, 1, 1, 1, 1, 1, 1, 0, 0, 0,

  00400	c6 45 88 00	 mov	 BYTE PTR _box$[ebp+144], 0
  00404	c6 45 89 00	 mov	 BYTE PTR _box$[ebp+145], 0
  00408	c6 45 8a 00	 mov	 BYTE PTR _box$[ebp+146], 0
  0040c	c6 45 8b 01	 mov	 BYTE PTR _box$[ebp+147], 1
  00410	c6 45 8c 01	 mov	 BYTE PTR _box$[ebp+148], 1
  00414	c6 45 8d 01	 mov	 BYTE PTR _box$[ebp+149], 1
  00418	c6 45 8e 01	 mov	 BYTE PTR _box$[ebp+150], 1
  0041c	c6 45 8f 01	 mov	 BYTE PTR _box$[ebp+151], 1
  00420	c6 45 90 01	 mov	 BYTE PTR _box$[ebp+152], 1
  00424	c6 45 91 01	 mov	 BYTE PTR _box$[ebp+153], 1
  00428	c6 45 92 01	 mov	 BYTE PTR _box$[ebp+154], 1
  0042c	c6 45 93 01	 mov	 BYTE PTR _box$[ebp+155], 1
  00430	c6 45 94 01	 mov	 BYTE PTR _box$[ebp+156], 1
  00434	c6 45 95 00	 mov	 BYTE PTR _box$[ebp+157], 0
  00438	c6 45 96 00	 mov	 BYTE PTR _box$[ebp+158], 0
  0043c	c6 45 97 00	 mov	 BYTE PTR _box$[ebp+159], 0

; 12363: 		0, 0, 1, 1, 1, 1, 0, 1, 1, 0, 1, 1, 1, 1, 0, 0,

  00440	c6 45 98 00	 mov	 BYTE PTR _box$[ebp+160], 0
  00444	c6 45 99 00	 mov	 BYTE PTR _box$[ebp+161], 0
  00448	c6 45 9a 01	 mov	 BYTE PTR _box$[ebp+162], 1
  0044c	c6 45 9b 01	 mov	 BYTE PTR _box$[ebp+163], 1
  00450	c6 45 9c 01	 mov	 BYTE PTR _box$[ebp+164], 1
  00454	c6 45 9d 01	 mov	 BYTE PTR _box$[ebp+165], 1
  00458	c6 45 9e 00	 mov	 BYTE PTR _box$[ebp+166], 0
  0045c	c6 45 9f 01	 mov	 BYTE PTR _box$[ebp+167], 1
  00460	c6 45 a0 01	 mov	 BYTE PTR _box$[ebp+168], 1
  00464	c6 45 a1 00	 mov	 BYTE PTR _box$[ebp+169], 0
  00468	c6 45 a2 01	 mov	 BYTE PTR _box$[ebp+170], 1
  0046c	c6 45 a3 01	 mov	 BYTE PTR _box$[ebp+171], 1
  00470	c6 45 a4 01	 mov	 BYTE PTR _box$[ebp+172], 1
  00474	c6 45 a5 01	 mov	 BYTE PTR _box$[ebp+173], 1
  00478	c6 45 a6 00	 mov	 BYTE PTR _box$[ebp+174], 0
  0047c	c6 45 a7 00	 mov	 BYTE PTR _box$[ebp+175], 0

; 12364: 		0, 1, 1, 1, 0, 0, 0, 0, 0, 0, 0, 0, 1, 1, 1, 0,

  00480	c6 45 a8 00	 mov	 BYTE PTR _box$[ebp+176], 0
  00484	c6 45 a9 01	 mov	 BYTE PTR _box$[ebp+177], 1
  00488	c6 45 aa 01	 mov	 BYTE PTR _box$[ebp+178], 1
  0048c	c6 45 ab 01	 mov	 BYTE PTR _box$[ebp+179], 1
  00490	c6 45 ac 00	 mov	 BYTE PTR _box$[ebp+180], 0
  00494	c6 45 ad 00	 mov	 BYTE PTR _box$[ebp+181], 0
  00498	c6 45 ae 00	 mov	 BYTE PTR _box$[ebp+182], 0
  0049c	c6 45 af 00	 mov	 BYTE PTR _box$[ebp+183], 0
  004a0	c6 45 b0 00	 mov	 BYTE PTR _box$[ebp+184], 0
  004a4	c6 45 b1 00	 mov	 BYTE PTR _box$[ebp+185], 0
  004a8	c6 45 b2 00	 mov	 BYTE PTR _box$[ebp+186], 0
  004ac	c6 45 b3 00	 mov	 BYTE PTR _box$[ebp+187], 0
  004b0	c6 45 b4 01	 mov	 BYTE PTR _box$[ebp+188], 1
  004b4	c6 45 b5 01	 mov	 BYTE PTR _box$[ebp+189], 1
  004b8	c6 45 b6 01	 mov	 BYTE PTR _box$[ebp+190], 1
  004bc	c6 45 b7 00	 mov	 BYTE PTR _box$[ebp+191], 0

; 12365: 		0, 0, 0, 0, 0, 0, 0, 0, 0, 0, 0, 0, 0, 0, 0, 0,

  004c0	c6 45 b8 00	 mov	 BYTE PTR _box$[ebp+192], 0
  004c4	c6 45 b9 00	 mov	 BYTE PTR _box$[ebp+193], 0
  004c8	c6 45 ba 00	 mov	 BYTE PTR _box$[ebp+194], 0
  004cc	c6 45 bb 00	 mov	 BYTE PTR _box$[ebp+195], 0
  004d0	c6 45 bc 00	 mov	 BYTE PTR _box$[ebp+196], 0
  004d4	c6 45 bd 00	 mov	 BYTE PTR _box$[ebp+197], 0
  004d8	c6 45 be 00	 mov	 BYTE PTR _box$[ebp+198], 0
  004dc	c6 45 bf 00	 mov	 BYTE PTR _box$[ebp+199], 0
  004e0	c6 45 c0 00	 mov	 BYTE PTR _box$[ebp+200], 0
  004e4	c6 45 c1 00	 mov	 BYTE PTR _box$[ebp+201], 0
  004e8	c6 45 c2 00	 mov	 BYTE PTR _box$[ebp+202], 0
  004ec	c6 45 c3 00	 mov	 BYTE PTR _box$[ebp+203], 0
  004f0	c6 45 c4 00	 mov	 BYTE PTR _box$[ebp+204], 0
  004f4	c6 45 c5 00	 mov	 BYTE PTR _box$[ebp+205], 0
  004f8	c6 45 c6 00	 mov	 BYTE PTR _box$[ebp+206], 0
  004fc	c6 45 c7 00	 mov	 BYTE PTR _box$[ebp+207], 0

; 12366: 		0, 0, 0, 0, 0, 0, 0, 0, 0, 0, 0, 0, 0, 0, 0, 0,

  00500	c6 45 c8 00	 mov	 BYTE PTR _box$[ebp+208], 0
  00504	c6 45 c9 00	 mov	 BYTE PTR _box$[ebp+209], 0
  00508	c6 45 ca 00	 mov	 BYTE PTR _box$[ebp+210], 0
  0050c	c6 45 cb 00	 mov	 BYTE PTR _box$[ebp+211], 0
  00510	c6 45 cc 00	 mov	 BYTE PTR _box$[ebp+212], 0
  00514	c6 45 cd 00	 mov	 BYTE PTR _box$[ebp+213], 0
  00518	c6 45 ce 00	 mov	 BYTE PTR _box$[ebp+214], 0
  0051c	c6 45 cf 00	 mov	 BYTE PTR _box$[ebp+215], 0
  00520	c6 45 d0 00	 mov	 BYTE PTR _box$[ebp+216], 0
  00524	c6 45 d1 00	 mov	 BYTE PTR _box$[ebp+217], 0
  00528	c6 45 d2 00	 mov	 BYTE PTR _box$[ebp+218], 0
  0052c	c6 45 d3 00	 mov	 BYTE PTR _box$[ebp+219], 0
  00530	c6 45 d4 00	 mov	 BYTE PTR _box$[ebp+220], 0
  00534	c6 45 d5 00	 mov	 BYTE PTR _box$[ebp+221], 0
  00538	c6 45 d6 00	 mov	 BYTE PTR _box$[ebp+222], 0
  0053c	c6 45 d7 00	 mov	 BYTE PTR _box$[ebp+223], 0

; 12367: 		0, 0, 0, 0, 0, 0, 0, 0, 0, 0, 0, 0, 0, 0, 0, 0,

  00540	c6 45 d8 00	 mov	 BYTE PTR _box$[ebp+224], 0
  00544	c6 45 d9 00	 mov	 BYTE PTR _box$[ebp+225], 0
  00548	c6 45 da 00	 mov	 BYTE PTR _box$[ebp+226], 0
  0054c	c6 45 db 00	 mov	 BYTE PTR _box$[ebp+227], 0
  00550	c6 45 dc 00	 mov	 BYTE PTR _box$[ebp+228], 0
  00554	c6 45 dd 00	 mov	 BYTE PTR _box$[ebp+229], 0
  00558	c6 45 de 00	 mov	 BYTE PTR _box$[ebp+230], 0
  0055c	c6 45 df 00	 mov	 BYTE PTR _box$[ebp+231], 0
  00560	c6 45 e0 00	 mov	 BYTE PTR _box$[ebp+232], 0
  00564	c6 45 e1 00	 mov	 BYTE PTR _box$[ebp+233], 0
  00568	c6 45 e2 00	 mov	 BYTE PTR _box$[ebp+234], 0
  0056c	c6 45 e3 00	 mov	 BYTE PTR _box$[ebp+235], 0
  00570	c6 45 e4 00	 mov	 BYTE PTR _box$[ebp+236], 0
  00574	c6 45 e5 00	 mov	 BYTE PTR _box$[ebp+237], 0
  00578	c6 45 e6 00	 mov	 BYTE PTR _box$[ebp+238], 0
  0057c	c6 45 e7 00	 mov	 BYTE PTR _box$[ebp+239], 0

; 12368: 		0, 0, 0, 0, 0, 0, 0, 0, 0, 0, 0, 0, 0, 0, 0, 0,

  00580	c6 45 e8 00	 mov	 BYTE PTR _box$[ebp+240], 0
  00584	c6 45 e9 00	 mov	 BYTE PTR _box$[ebp+241], 0
  00588	c6 45 ea 00	 mov	 BYTE PTR _box$[ebp+242], 0
  0058c	c6 45 eb 00	 mov	 BYTE PTR _box$[ebp+243], 0
  00590	c6 45 ec 00	 mov	 BYTE PTR _box$[ebp+244], 0
  00594	c6 45 ed 00	 mov	 BYTE PTR _box$[ebp+245], 0
  00598	c6 45 ee 00	 mov	 BYTE PTR _box$[ebp+246], 0
  0059c	c6 45 ef 00	 mov	 BYTE PTR _box$[ebp+247], 0
  005a0	c6 45 f0 00	 mov	 BYTE PTR _box$[ebp+248], 0
  005a4	c6 45 f1 00	 mov	 BYTE PTR _box$[ebp+249], 0
  005a8	c6 45 f2 00	 mov	 BYTE PTR _box$[ebp+250], 0
  005ac	c6 45 f3 00	 mov	 BYTE PTR _box$[ebp+251], 0
  005b0	c6 45 f4 00	 mov	 BYTE PTR _box$[ebp+252], 0
  005b4	c6 45 f5 00	 mov	 BYTE PTR _box$[ebp+253], 0
  005b8	c6 45 f6 00	 mov	 BYTE PTR _box$[ebp+254], 0
  005bc	c6 45 f7 00	 mov	 BYTE PTR _box$[ebp+255], 0

; 12369: 	};
; 12370: 
; 12371: 	DDSURFACEDESC ddsd;	// ??????Bl
; 12372: 	char d6, d7;
; 12373: 	char *psource;		// ?I?????
; 12374: 
; 12375: 	ZeroMemory(&ddsd, sizeof(DDSURFACEDESC));

  005c0	6a 6c		 push	 108			; 0000006cH
  005c2	6a 00		 push	 0
  005c4	8d 85 84 fe ff
	ff		 lea	 eax, DWORD PTR _ddsd$[ebp]
  005ca	50		 push	 eax
  005cb	e8 00 00 00 00	 call	 _memset
  005d0	83 c4 0c	 add	 esp, 12			; 0000000cH

; 12376: 	ddsd.dwSize = sizeof(DDSURFACEDESC);

  005d3	c7 85 84 fe ff
	ff 6c 00 00 00	 mov	 DWORD PTR _ddsd$[ebp], 108 ; 0000006cH

; 12377: 
; 12378: 	// ?????????????????( i?? ddsd ?雪?V????? )
; 12379: 	if (lpDraw->lpBACKBUFFER->Lock(NULL, &ddsd, DDLOCK_WAIT, NULL) != DD_OK)

  005dd	8b f4		 mov	 esi, esp
  005df	6a 00		 push	 0
  005e1	6a 01		 push	 1
  005e3	8d 85 84 fe ff
	ff		 lea	 eax, DWORD PTR _ddsd$[ebp]
  005e9	50		 push	 eax
  005ea	6a 00		 push	 0
  005ec	8b 0d 00 00 00
	00		 mov	 ecx, DWORD PTR ?lpDraw@@3PAUDIRECT_DRAW@@A ; lpDraw
  005f2	8b 51 0c	 mov	 edx, DWORD PTR [ecx+12]
  005f5	a1 00 00 00 00	 mov	 eax, DWORD PTR ?lpDraw@@3PAUDIRECT_DRAW@@A ; lpDraw
  005fa	8b 48 0c	 mov	 ecx, DWORD PTR [eax+12]
  005fd	8b 12		 mov	 edx, DWORD PTR [edx]
  005ff	51		 push	 ecx
  00600	8b 42 64	 mov	 eax, DWORD PTR [edx+100]
  00603	ff d0		 call	 eax
  00605	3b f4		 cmp	 esi, esp
  00607	e8 00 00 00 00	 call	 __RTC_CheckEsp
  0060c	85 c0		 test	 eax, eax
  0060e	74 05		 je	 SHORT $LN2@disp_shild

; 12380: 	{
; 12381: 		//MessageBoxNew( hWnd, "Surface的lock失败！", "??", MB_OK | MB_ICONSTOP );
; 12382: 		return;

  00610	e9 8b 00 00 00	 jmp	 $LN1@disp_shild
$LN2@disp_shild:

; 12383: 	}
; 12384: 
; 12385: 	psource = box;		// ???????

  00615	8d 85 f8 fe ff
	ff		 lea	 eax, DWORD PTR _box$[ebp]
  0061b	89 85 60 fe ff
	ff		 mov	 DWORD PTR _psource$[ebp], eax

; 12386: 	_asm{
; 12387: 		//		push	eax
; 12388: 		//		push	ebx
; 12389: 		//		push	ecx
; 12390: 		//		push	edx
; 12391: 		//		push	esi
; 12392: 		//		push	edi
; 12393: 
; 12394: 		mov		edx, [ddsd.lpSurface]		//Id????

  00621	8b 95 a8 fe ff
	ff		 mov	 edx, DWORD PTR _ddsd$[ebp+36]

; 12395: 			add		edx, 640 - 24						//

  00627	81 c2 68 02 00
	00		 add	 edx, 616		; 00000268H

; 12396: 
; 12397: 			mov		ebx, [ddsd.lPitch]		//?????????

  0062d	8b 9d 94 fe ff
	ff		 mov	 ebx, DWORD PTR _ddsd$[ebp+16]

; 12398: 			sub		ebx, 16

  00633	83 eb 10	 sub	 ebx, 16			; 00000010H

; 12399: 
; 12400: 			mov		al, 10 - 9		//????????

  00636	b0 01		 mov	 al, 1

; 12401: 			mov[d6], al	//

  00638	88 85 7b fe ff
	ff		 mov	 BYTE PTR _d6$[ebp], al
$disp_shild_100$9:

; 12402: 
; 12403: 		disp_shild_100 :
; 12404: 		mov		al, 30				//????????

  0063e	b0 1e		 mov	 al, 30			; 0000001eH

; 12405: 			mov[d7], al			//

  00640	88 85 6f fe ff
	ff		 mov	 BYTE PTR _d7$[ebp], al

; 12406: 			mov		edi, edx		//?????

  00646	8b fa		 mov	 edi, edx
$disp_shild_200$10:

; 12407: 
; 12408: 		disp_shild_200 :
; 12409: 		mov		cl, 16		//?????????

  00648	b1 10		 mov	 cl, 16			; 00000010H

; 12410: 			//		mov		esi,edx
; 12411: 			mov		esi, [psource]

  0064a	8b b5 60 fe ff
	ff		 mov	 esi, DWORD PTR _psource$[ebp]
$disp_shild_300$11:

; 12412: 
; 12413: 		disp_shild_300 :
; 12414: 					   mov		ch, 16		//?????????

  00650	b5 10		 mov	 ch, 16			; 00000010H
$loop_x$12:

; 12415: 
; 12416: 				   loop_x :
; 12417: 						  mov		al, [esi]

  00652	8a 06		 mov	 al, BYTE PTR [esi]

; 12418: 						  or		al, al

  00654	0a c0		 or	 al, al

; 12419: 						  je		skip

  00656	74 02		 je	 SHORT $skip$13

; 12420: 
; 12421: 						  mov[edi], al

  00658	88 07		 mov	 BYTE PTR [edi], al
$skip$13:

; 12422: 
; 12423: 					  skip :
; 12424: 		inc		esi

  0065a	46		 inc	 esi

; 12425: 			inc		edi

  0065b	47		 inc	 edi

; 12426: 			dec		ch

  0065c	fe cd		 dec	 ch

; 12427: 			jne		loop_x

  0065e	75 f2		 jne	 SHORT $loop_x$12

; 12428: 
; 12429: 			add		edi, ebx

  00660	03 fb		 add	 edi, ebx

; 12430: 			dec		cl

  00662	fe c9		 dec	 cl

; 12431: 			jne		disp_shild_300

  00664	75 ea		 jne	 SHORT $disp_shild_300$11

; 12432: 
; 12433: 			dec[d7]

  00666	fe 8d 6f fe ff
	ff		 dec	 BYTE PTR _d7$[ebp]

; 12434: 			jne		disp_shild_200

  0066c	75 da		 jne	 SHORT $disp_shild_200$10

; 12435: 
; 12436: 			add		edx, 16						//

  0066e	83 c2 10	 add	 edx, 16			; 00000010H

; 12437: 			dec[d6]

  00671	fe 8d 7b fe ff
	ff		 dec	 BYTE PTR _d6$[ebp]

; 12438: 			jne		disp_shild_100

  00677	75 c5		 jne	 SHORT $disp_shild_100$9

; 12439: 
; 12440: 			//		pop		edi
; 12441: 			//		pop		esi
; 12442: 			//		pop		edx
; 12443: 			//		pop		ecx
; 12444: 			//		pop		ebx
; 12445: 			//		pop		eax
; 12446: 	}
; 12447: 
; 12448: 	// ???????????????????
; 12449: 	if (lpDraw->lpBACKBUFFER->Unlock(NULL) != DD_OK)

  00679	8b f4		 mov	 esi, esp
  0067b	6a 00		 push	 0
  0067d	a1 00 00 00 00	 mov	 eax, DWORD PTR ?lpDraw@@3PAUDIRECT_DRAW@@A ; lpDraw
  00682	8b 48 0c	 mov	 ecx, DWORD PTR [eax+12]
  00685	8b 15 00 00 00
	00		 mov	 edx, DWORD PTR ?lpDraw@@3PAUDIRECT_DRAW@@A ; lpDraw
  0068b	8b 42 0c	 mov	 eax, DWORD PTR [edx+12]
  0068e	8b 09		 mov	 ecx, DWORD PTR [ecx]
  00690	50		 push	 eax
  00691	8b 91 80 00 00
	00		 mov	 edx, DWORD PTR [ecx+128]
  00697	ff d2		 call	 edx
  00699	3b f4		 cmp	 esi, esp
  0069b	e8 00 00 00 00	 call	 __RTC_CheckEsp
$LN1@disp_shild:

; 12450: 	{
; 12451: 	//	extern int MessageBoxNew(HWND hWnd, LPCSTR lpText, LPCSTR lpCaption, UINT uType);
; 12452: 	//	MessageBoxNew(hWnd, "Surface的Unlock失败！", "??", MB_OK | MB_ICONSTOP);
; 12453: 		return;
; 12454: 	}
; 12455: 
; 12456: 	return;
; 12457: }

  006a0	52		 push	 edx
  006a1	8b cd		 mov	 ecx, ebp
  006a3	50		 push	 eax
  006a4	8d 15 00 00 00
	00		 lea	 edx, DWORD PTR $LN8@disp_shild
  006aa	e8 00 00 00 00	 call	 @_RTC_CheckStackVars@8
  006af	58		 pop	 eax
  006b0	5a		 pop	 edx
  006b1	5f		 pop	 edi
  006b2	5e		 pop	 esi
  006b3	5b		 pop	 ebx
  006b4	8b 4d fc	 mov	 ecx, DWORD PTR __$ArrayPad$[ebp]
  006b7	33 cd		 xor	 ecx, ebp
  006b9	e8 00 00 00 00	 call	 @__security_check_cookie@4
  006be	81 c4 64 02 00
	00		 add	 esp, 612		; 00000264H
  006c4	3b ec		 cmp	 ebp, esp
  006c6	e8 00 00 00 00	 call	 __RTC_CheckEsp
  006cb	8b e5		 mov	 esp, ebp
  006cd	5d		 pop	 ebp
  006ce	c3		 ret	 0
  006cf	90		 npad	 1
$LN8@disp_shild:
  006d0	02 00 00 00	 DD	 2
  006d4	00 00 00 00	 DD	 $LN7@disp_shild
$LN7@disp_shild:
  006d8	f8 fe ff ff	 DD	 -264			; fffffef8H
  006dc	00 01 00 00	 DD	 256			; 00000100H
  006e0	00 00 00 00	 DD	 $LN5@disp_shild
  006e4	84 fe ff ff	 DD	 -380			; fffffe84H
  006e8	6c 00 00 00	 DD	 108			; 0000006cH
  006ec	00 00 00 00	 DD	 $LN6@disp_shild
$LN6@disp_shild:
  006f0	64		 DB	 100			; 00000064H
  006f1	64		 DB	 100			; 00000064H
  006f2	73		 DB	 115			; 00000073H
  006f3	64		 DB	 100			; 00000064H
  006f4	00		 DB	 0
$LN5@disp_shild:
  006f5	62		 DB	 98			; 00000062H
  006f6	6f		 DB	 111			; 0000006fH
  006f7	78		 DB	 120			; 00000078H
  006f8	00		 DB	 0
?disp_shild@@YAXXZ ENDP					; disp_shild
_TEXT	ENDS
; Function compile flags: /Odtp /RTCsu /ZI
; File c:\users\administrator\desktop\????? ??\????? ??\client source code\oft\oft.cpp
;	COMDAT ?set_bc@@YAXXZ
_TEXT	SEGMENT
tv366 = -280						; size = 4
tv312 = -280						; size = 4
tv200 = -280						; size = 4
_o$1 = -80						; size = 4
_k$2 = -68						; size = 4
_d1$ = -56						; size = 4
_d3$ = -44						; size = 4
_d2$ = -32						; size = 4
_d0$ = -20						; size = 4
_a1$ = -8						; size = 4
?set_bc@@YAXXZ PROC					; set_bc, COMDAT

; 12040: {

  00000	55		 push	 ebp
  00001	8b ec		 mov	 ebp, esp
  00003	81 ec 18 01 00
	00		 sub	 esp, 280		; 00000118H
  00009	53		 push	 ebx
  0000a	56		 push	 esi
  0000b	57		 push	 edi
  0000c	8d bd e8 fe ff
	ff		 lea	 edi, DWORD PTR [ebp-280]
  00012	b9 46 00 00 00	 mov	 ecx, 70			; 00000046H
  00017	b8 cc cc cc cc	 mov	 eax, -858993460		; ccccccccH
  0001c	f3 ab		 rep stosd

; 12041: 	ACTION *a1;
; 12042: 	int d0, d2, d3, d1 = 0;

  0001e	c7 45 c8 00 00
	00 00		 mov	 DWORD PTR _d1$[ebp], 0

; 12043: 
; 12044: 	//????????
; 12045: 	bc_pointer = 3;

  00025	c7 05 00 00 00
	00 03 00 00 00	 mov	 DWORD PTR ?bc_pointer@@3HA, 3

; 12046: 	//?????N
; 12047: 	ATR_ATTRIB(p_master) = get_bc_num();

  0002f	e8 00 00 00 00	 call	 ?get_bc_num@@YAHXZ	; get_bc_num
  00034	8b 0d 00 00 00
	00		 mov	 ecx, DWORD PTR ?p_master@@3PAUaction@@A
  0003a	89 81 a4 00 00
	00		 mov	 DWORD PTR [ecx+164], eax
$LN2@set_bc:

; 12048: 	//Pf????????
; 12049: 	while (BattleStatus[bc_pointer] != NULL)

  00040	a1 00 00 00 00	 mov	 eax, DWORD PTR ?bc_pointer@@3HA
  00045	0f be 88 00 00
	00 00		 movsx	 ecx, BYTE PTR ?BattleStatus@@3PADA[eax]
  0004c	85 c9		 test	 ecx, ecx
  0004e	0f 84 2d 09 00
	00		 je	 $LN3@set_bc

; 12050: 	{
; 12051: 		//??k????
; 12052: 		d2 = get_bc_num();

  00054	e8 00 00 00 00	 call	 ?get_bc_num@@YAHXZ	; get_bc_num
  00059	89 45 e0	 mov	 DWORD PTR _d2$[ebp], eax

; 12053: #ifdef _STONDEBUG_
; 12054: 		if (d2 >= BATTLKPKPLYAERNUM)
; 12055: 			MessageBox(hWnd, "初始化失败,超过设定数量", "Error", MB_OK);
; 12056: #endif
; 12057: 		//?????????????
; 12058: 		a1 = p_party[d2];

  0005c	8b 45 e0	 mov	 eax, DWORD PTR _d2$[ebp]
  0005f	8b 0c 85 00 00
	00 00		 mov	 ecx, DWORD PTR ?p_party@@3PAPAUaction@@A[eax*4]
  00066	89 4d f8	 mov	 DWORD PTR _a1$[ebp], ecx

; 12059: 
; 12060: 		/* ??? */
; 12061: 		ATR_NAME(a1) = monster;

  00069	8b 45 f8	 mov	 eax, DWORD PTR _a1$[ebp]
  0006c	c7 40 08 00 00
	00 00		 mov	 DWORD PTR [eax+8], OFFSET ?monster@@YAXPAUaction@@@Z ; monster

; 12062: 		//q???
; 12063: 		get_bc_asc(a1, 0);

  00073	6a 00		 push	 0
  00075	8b 45 f8	 mov	 eax, DWORD PTR _a1$[ebp]
  00078	50		 push	 eax
  00079	e8 00 00 00 00	 call	 ?get_bc_asc@@YAXPAUaction@@H@Z ; get_bc_asc
  0007e	83 c4 08	 add	 esp, 8

; 12064: 		//????
; 12065: 		get_bc_asc(a1, 1);

  00081	6a 01		 push	 1
  00083	8b 45 f8	 mov	 eax, DWORD PTR _a1$[ebp]
  00086	50		 push	 eax
  00087	e8 00 00 00 00	 call	 ?get_bc_asc@@YAXPAUaction@@H@Z ; get_bc_asc
  0008c	83 c4 08	 add	 esp, 8

; 12066: 		//???k????
; 12067: 		ATR_CHR_NO(a1) = get_bc_num();

  0008f	e8 00 00 00 00	 call	 ?get_bc_num@@YAHXZ	; get_bc_num
  00094	8b 4d f8	 mov	 ecx, DWORD PTR _a1$[ebp]
  00097	89 81 44 01 00
	00		 mov	 DWORD PTR [ecx+324], eax

; 12068: 		//??????
; 12069: 		ATR_LEVEL(a1) = get_bc_num();

  0009d	e8 00 00 00 00	 call	 ?get_bc_num@@YAHXZ	; get_bc_num
  000a2	8b 4d f8	 mov	 ecx, DWORD PTR _a1$[ebp]
  000a5	89 81 8c 00 00
	00		 mov	 DWORD PTR [ecx+140], eax

; 12070: 		//?????
; 12071: 		ATR_LIFE(a1) = get_bc_num();

  000ab	e8 00 00 00 00	 call	 ?get_bc_num@@YAHXZ	; get_bc_num
  000b0	8b 4d f8	 mov	 ecx, DWORD PTR _a1$[ebp]
  000b3	89 41 78	 mov	 DWORD PTR [ecx+120], eax

; 12072: 
; 12073: #ifdef _SFUMATO
; 12074: 		ATR_SFUMATO(a1) = 0xff0000;	
; 12075: #endif
; 12076: 
; 12077: 		//??????
; 12078: 		ATR_MAX_LIFE(a1) = get_bc_num();

  000b6	e8 00 00 00 00	 call	 ?get_bc_num@@YAHXZ	; get_bc_num
  000bb	8b 4d f8	 mov	 ecx, DWORD PTR _a1$[ebp]
  000be	89 81 80 00 00
	00		 mov	 DWORD PTR [ecx+128], eax

; 12079: #ifdef _BATTLESKILL				// (不可开) Syu ADD 战斗技能介面
; 12080: 		ATR_MAX_MANA(a1) = pc.maxMp ;

  000c4	8b 45 f8	 mov	 eax, DWORD PTR _a1$[ebp]
  000c7	8b 0d 1c 00 00
	00		 mov	 ecx, DWORD PTR ?pc@@3UPC@@A+28
  000cd	89 88 88 00 00
	00		 mov	 DWORD PTR [eax+136], ecx

; 12081: #endif
; 12082: 		//??????
; 12083: 		d0 = get_bc_num();

  000d3	e8 00 00 00 00	 call	 ?get_bc_num@@YAHXZ	; get_bc_num
  000d8	89 45 ec	 mov	 DWORD PTR _d0$[ebp], eax

; 12084: 		// Robin 0728 ridePet
; 12085: 		if (bNewServer)

  000db	83 3d 00 00 00
	00 00		 cmp	 DWORD PTR ?bNewServer@@3HA, 0 ; bNewServer
  000e2	74 5e		 je	 SHORT $LN6@set_bc

; 12086: 		{
; 12087: 			ATR_RIDE(a1) = get_bc_num();

  000e4	e8 00 00 00 00	 call	 ?get_bc_num@@YAHXZ	; get_bc_num
  000e9	8b 4d f8	 mov	 ecx, DWORD PTR _a1$[ebp]
  000ec	89 81 94 01 00
	00		 mov	 DWORD PTR [ecx+404], eax

; 12088: 			get_bc_asc_ridepet(a1);

  000f2	8b 45 f8	 mov	 eax, DWORD PTR _a1$[ebp]
  000f5	50		 push	 eax
  000f6	e8 00 00 00 00	 call	 ?get_bc_asc_ridepet@@YAXPAUaction@@@Z ; get_bc_asc_ridepet
  000fb	83 c4 04	 add	 esp, 4

; 12089: 			ATR_PETLEVEL(a1) = get_bc_num();

  000fe	e8 00 00 00 00	 call	 ?get_bc_num@@YAHXZ	; get_bc_num
  00103	8b 4d f8	 mov	 ecx, DWORD PTR _a1$[ebp]
  00106	89 81 ac 01 00
	00		 mov	 DWORD PTR [ecx+428], eax

; 12090: 			ATR_PET_LIFE(a1) = get_bc_num();

  0010c	e8 00 00 00 00	 call	 ?get_bc_num@@YAHXZ	; get_bc_num
  00111	8b 4d f8	 mov	 ecx, DWORD PTR _a1$[ebp]
  00114	89 81 b0 01 00
	00		 mov	 DWORD PTR [ecx+432], eax

; 12091: 			int k = ATR_PET_LIFE(a1);

  0011a	8b 45 f8	 mov	 eax, DWORD PTR _a1$[ebp]
  0011d	8b 88 b0 01 00
	00		 mov	 ecx, DWORD PTR [eax+432]
  00123	89 4d bc	 mov	 DWORD PTR _k$2[ebp], ecx

; 12092: 			ATR_PET_MAX_LIFE(a1) = get_bc_num();

  00126	e8 00 00 00 00	 call	 ?get_bc_num@@YAHXZ	; get_bc_num
  0012b	8b 4d f8	 mov	 ecx, DWORD PTR _a1$[ebp]
  0012e	89 81 b4 01 00
	00		 mov	 DWORD PTR [ecx+436], eax

; 12093: 			int o = ATR_PET_MAX_LIFE(a1);

  00134	8b 45 f8	 mov	 eax, DWORD PTR _a1$[ebp]
  00137	8b 88 b4 01 00
	00		 mov	 ecx, DWORD PTR [eax+436]
  0013d	89 4d b0	 mov	 DWORD PTR _o$1[ebp], ecx

; 12094: 		}
; 12095: 		else

  00140	eb 47		 jmp	 SHORT $LN7@set_bc
$LN6@set_bc:

; 12096: 		{
; 12097: 			ATR_RIDE(a1) = 0;

  00142	8b 45 f8	 mov	 eax, DWORD PTR _a1$[ebp]
  00145	c7 80 94 01 00
	00 00 00 00 00	 mov	 DWORD PTR [eax+404], 0

; 12098: 			ATR_PETNAME(a1)[0] = NULL;

  0014f	b8 01 00 00 00	 mov	 eax, 1
  00154	6b c8 00	 imul	 ecx, eax, 0
  00157	8b 55 f8	 mov	 edx, DWORD PTR _a1$[ebp]
  0015a	c6 84 0a 98 01
	00 00 00	 mov	 BYTE PTR [edx+ecx+408], 0

; 12099: 			ATR_PETLEVEL(a1) = 0;

  00162	8b 45 f8	 mov	 eax, DWORD PTR _a1$[ebp]
  00165	c7 80 ac 01 00
	00 00 00 00 00	 mov	 DWORD PTR [eax+428], 0

; 12100: 			ATR_PET_LIFE(a1) = 0;

  0016f	8b 45 f8	 mov	 eax, DWORD PTR _a1$[ebp]
  00172	c7 80 b0 01 00
	00 00 00 00 00	 mov	 DWORD PTR [eax+432], 0

; 12101: 			ATR_PET_MAX_LIFE(a1) = 0;

  0017c	8b 45 f8	 mov	 eax, DWORD PTR _a1$[ebp]
  0017f	c7 80 b4 01 00
	00 00 00 00 00	 mov	 DWORD PTR [eax+436], 0
$LN7@set_bc:

; 12102: 		}
; 12103: 		//???
; 12104: 		if (d0 & BC_FRESH)

  00189	8b 45 ec	 mov	 eax, DWORD PTR _d0$[ebp]
  0018c	83 e0 01	 and	 eax, 1
  0018f	0f 84 52 02 00
	00		 je	 $LN8@set_bc

; 12105: 		{
; 12106: 			//????
; 12107: 			if ((ATR_CHR_NO(a1) >= SPR_mwood1 && ATR_CHR_NO(a1) <= SPR_mstone3) ||
; 12108: 				(ATR_CHR_NO(a1) == 15323) || (ATR_CHR_NO(a1) == 10812) || (ATR_CHR_NO(a1) == 15527) ||
; 12109: 				(ATR_CHR_NO(a1) == 15543) || (ATR_CHR_NO(a1) == 15575) || (ATR_CHR_NO(a1) == 15607))

  00195	8b 45 f8	 mov	 eax, DWORD PTR _a1$[ebp]
  00198	81 b8 44 01 00
	00 72 88 01 00	 cmp	 DWORD PTR [eax+324], 100466 ; 00018872H
  001a2	7c 0f		 jl	 SHORT $LN13@set_bc
  001a4	8b 45 f8	 mov	 eax, DWORD PTR _a1$[ebp]
  001a7	81 b8 44 01 00
	00 77 88 01 00	 cmp	 DWORD PTR [eax+324], 100471 ; 00018877H
  001b1	7e 5e		 jle	 SHORT $LN12@set_bc
$LN13@set_bc:
  001b3	8b 45 f8	 mov	 eax, DWORD PTR _a1$[ebp]
  001b6	81 b8 44 01 00
	00 db 3b 00 00	 cmp	 DWORD PTR [eax+324], 15323 ; 00003bdbH
  001c0	74 4f		 je	 SHORT $LN12@set_bc
  001c2	8b 45 f8	 mov	 eax, DWORD PTR _a1$[ebp]
  001c5	81 b8 44 01 00
	00 3c 2a 00 00	 cmp	 DWORD PTR [eax+324], 10812 ; 00002a3cH
  001cf	74 40		 je	 SHORT $LN12@set_bc
  001d1	8b 45 f8	 mov	 eax, DWORD PTR _a1$[ebp]
  001d4	81 b8 44 01 00
	00 a7 3c 00 00	 cmp	 DWORD PTR [eax+324], 15527 ; 00003ca7H
  001de	74 31		 je	 SHORT $LN12@set_bc
  001e0	8b 45 f8	 mov	 eax, DWORD PTR _a1$[ebp]
  001e3	81 b8 44 01 00
	00 b7 3c 00 00	 cmp	 DWORD PTR [eax+324], 15543 ; 00003cb7H
  001ed	74 22		 je	 SHORT $LN12@set_bc
  001ef	8b 45 f8	 mov	 eax, DWORD PTR _a1$[ebp]
  001f2	81 b8 44 01 00
	00 d7 3c 00 00	 cmp	 DWORD PTR [eax+324], 15575 ; 00003cd7H
  001fc	74 13		 je	 SHORT $LN12@set_bc
  001fe	8b 45 f8	 mov	 eax, DWORD PTR _a1$[ebp]
  00201	81 b8 44 01 00
	00 f7 3c 00 00	 cmp	 DWORD PTR [eax+324], 15607 ; 00003cf7H
  0020b	0f 85 2c 01 00
	00		 jne	 $LN10@set_bc
$LN12@set_bc:

; 12110: 			{
; 12111: 				ATR_ATTRIB(a1) &= ~ACT_ATR_HIDE;		//??

  00211	8b 45 f8	 mov	 eax, DWORD PTR _a1$[ebp]
  00214	8b 88 a4 00 00
	00		 mov	 ecx, DWORD PTR [eax+164]
  0021a	83 e1 fd	 and	 ecx, -3			; fffffffdH
  0021d	8b 55 f8	 mov	 edx, DWORD PTR _a1$[ebp]
  00220	89 8a a4 00 00
	00		 mov	 DWORD PTR [edx+164], ecx

; 12112: 				//r??
; 12113: 				ATR_VCT_NO(a1) = 0;

  00226	8b 45 f8	 mov	 eax, DWORD PTR _a1$[ebp]
  00229	8b 48 0c	 mov	 ecx, DWORD PTR [eax+12]
  0022c	c6 01 00	 mov	 BYTE PTR [ecx], 0

; 12114: 				ATR_CHR_ACT(a1) = ANIM_STAND;

  0022f	8b 45 f8	 mov	 eax, DWORD PTR _a1$[ebp]
  00232	c7 80 4c 01 00
	00 03 00 00 00	 mov	 DWORD PTR [eax+332], 3

; 12115: 				ATR_H_POS(a1) = ATR_INT_WORK0(a1) = monster_place_pos[monster_place_no[d2] * 2];

  0023c	8b 45 e0	 mov	 eax, DWORD PTR _d2$[ebp]
  0023f	8b 0c 85 00 00
	00 00		 mov	 ecx, DWORD PTR ?monster_place_no@@3PAHA[eax*4]
  00246	d1 e1		 shl	 ecx, 1
  00248	8b 55 f8	 mov	 edx, DWORD PTR _a1$[ebp]
  0024b	8b 42 0c	 mov	 eax, DWORD PTR [edx+12]
  0024e	8b 0c 8d 00 00
	00 00		 mov	 ecx, DWORD PTR ?monster_place_pos@@3PAHA[ecx*4]
  00255	89 88 24 01 00
	00		 mov	 DWORD PTR [eax+292], ecx
  0025b	8b 55 f8	 mov	 edx, DWORD PTR _a1$[ebp]
  0025e	8b 42 0c	 mov	 eax, DWORD PTR [edx+12]
  00261	8b 4d f8	 mov	 ecx, DWORD PTR _a1$[ebp]
  00264	8b 90 24 01 00
	00		 mov	 edx, DWORD PTR [eax+292]
  0026a	89 51 18	 mov	 DWORD PTR [ecx+24], edx

; 12116: 				ATR_V_POS(a1) = ATR_INT_WORK1(a1) = monster_place_pos[monster_place_no[d2] * 2 + 1];

  0026d	8b 45 e0	 mov	 eax, DWORD PTR _d2$[ebp]
  00270	8b 0c 85 00 00
	00 00		 mov	 ecx, DWORD PTR ?monster_place_no@@3PAHA[eax*4]
  00277	d1 e1		 shl	 ecx, 1
  00279	8b 55 f8	 mov	 edx, DWORD PTR _a1$[ebp]
  0027c	8b 42 0c	 mov	 eax, DWORD PTR [edx+12]
  0027f	8b 0c 8d 04 00
	00 00		 mov	 ecx, DWORD PTR ?monster_place_pos@@3PAHA[ecx*4+4]
  00286	89 88 28 01 00
	00		 mov	 DWORD PTR [eax+296], ecx
  0028c	8b 55 f8	 mov	 edx, DWORD PTR _a1$[ebp]
  0028f	8b 42 0c	 mov	 eax, DWORD PTR [edx+12]
  00292	8b 4d f8	 mov	 ecx, DWORD PTR _a1$[ebp]
  00295	8b 90 28 01 00
	00		 mov	 edx, DWORD PTR [eax+296]
  0029b	89 51 1c	 mov	 DWORD PTR [ecx+28], edx

; 12117: 				//???
; 12118: 				if (ATR_GROUP_FLG(a1) == 0)

  0029e	8b 45 f8	 mov	 eax, DWORD PTR _a1$[ebp]
  002a1	8b 48 0c	 mov	 ecx, DWORD PTR [eax+12]
  002a4	0f b6 51 5e	 movzx	 edx, BYTE PTR [ecx+94]
  002a8	85 d2		 test	 edx, edx
  002aa	75 0f		 jne	 SHORT $LN14@set_bc

; 12119: 					ATR_CHR_ANG(a1) = 3;

  002ac	8b 45 f8	 mov	 eax, DWORD PTR _a1$[ebp]
  002af	c7 80 54 01 00
	00 03 00 00 00	 mov	 DWORD PTR [eax+340], 3
  002b9	eb 1c		 jmp	 SHORT $LN15@set_bc
$LN14@set_bc:

; 12120: 				else if (ATR_GROUP_FLG(a1) == 1)

  002bb	8b 45 f8	 mov	 eax, DWORD PTR _a1$[ebp]
  002be	8b 48 0c	 mov	 ecx, DWORD PTR [eax+12]
  002c1	0f b6 51 5e	 movzx	 edx, BYTE PTR [ecx+94]
  002c5	83 fa 01	 cmp	 edx, 1
  002c8	75 0d		 jne	 SHORT $LN15@set_bc

; 12121: 					ATR_CHR_ANG(a1) = 7;

  002ca	8b 45 f8	 mov	 eax, DWORD PTR _a1$[ebp]
  002cd	c7 80 54 01 00
	00 07 00 00 00	 mov	 DWORD PTR [eax+340], 7
$LN15@set_bc:

; 12122: #ifdef _BATTLE_PK_PLAYER_FOR_40
; 12123: 				else if (ATR_GROUP_FLG(a1) == 2)
; 12124: 					ATR_CHR_ANG(a1) = 5;
; 12125: 				else if (ATR_GROUP_FLG(a1) == 3)	
; 12126: 					ATR_CHR_ANG(a1) = 1;
; 12127: #endif
; 12128: 				ATR_CRS_OLD(a1) = ATR_CRS(a1) = crs_change_tbl2[ATR_CHR_ANG(a1)];

  002d7	8b 45 f8	 mov	 eax, DWORD PTR _a1$[ebp]
  002da	8b 88 54 01 00
	00		 mov	 ecx, DWORD PTR [eax+340]
  002e0	0f b6 91 00 00
	00 00		 movzx	 edx, BYTE PTR ?crs_change_tbl2@@3PAEA[ecx]
  002e7	89 95 e8 fe ff
	ff		 mov	 DWORD PTR tv200[ebp], edx
  002ed	8b 45 f8	 mov	 eax, DWORD PTR _a1$[ebp]
  002f0	8b 8d e8 fe ff
	ff		 mov	 ecx, DWORD PTR tv200[ebp]
  002f6	89 88 38 01 00
	00		 mov	 DWORD PTR [eax+312], ecx
  002fc	8b 55 f8	 mov	 edx, DWORD PTR _a1$[ebp]
  002ff	8b 42 0c	 mov	 eax, DWORD PTR [edx+12]
  00302	8a 8d e8 fe ff
	ff		 mov	 cl, BYTE PTR tv200[ebp]
  00308	88 88 22 01 00
	00		 mov	 BYTE PTR [eax+290], cl

; 12129: 				ATR_CHR_ACT(a1) = ANIM_WALK;

  0030e	8b 45 f8	 mov	 eax, DWORD PTR _a1$[ebp]
  00311	c7 80 4c 01 00
	00 04 00 00 00	 mov	 DWORD PTR [eax+332], 4

; 12130: 				ATR_CHR_ACT_OLD(a1) = -1;

  0031b	8b 45 f8	 mov	 eax, DWORD PTR _a1$[ebp]
  0031e	c7 80 50 01 00
	00 ff ff ff ff	 mov	 DWORD PTR [eax+336], -1

; 12131: 				pattern(a1, ANM_NOMAL_SPD, ANM_LOOP);

  00328	6a 00		 push	 0
  0032a	6a 00		 push	 0
  0032c	8b 45 f8	 mov	 eax, DWORD PTR _a1$[ebp]
  0032f	50		 push	 eax
  00330	e8 00 00 00 00	 call	 ?pattern@@YAHPAUaction@@HH@Z ; pattern
  00335	83 c4 0c	 add	 esp, 12			; 0000000cH

; 12132: 			}
; 12133: 			else

  00338	e9 99 00 00 00	 jmp	 $LN11@set_bc
$LN10@set_bc:

; 12134: 			{
; 12135: 				//K?
; 12136: 				ATR_VCT_NO(a1) = VCT_NO_APPEAR;

  0033d	8b 45 f8	 mov	 eax, DWORD PTR _a1$[ebp]
  00340	8b 48 0c	 mov	 ecx, DWORD PTR [eax+12]
  00343	c6 01 f9	 mov	 BYTE PTR [ecx], 249	; 000000f9H

; 12137: 				ATR_ATTRIB(a1) &= ~ACT_ATR_HIDE;		//??

  00346	8b 45 f8	 mov	 eax, DWORD PTR _a1$[ebp]
  00349	8b 88 a4 00 00
	00		 mov	 ecx, DWORD PTR [eax+164]
  0034f	83 e1 fd	 and	 ecx, -3			; fffffffdH
  00352	8b 55 f8	 mov	 edx, DWORD PTR _a1$[ebp]
  00355	89 8a a4 00 00
	00		 mov	 DWORD PTR [edx+164], ecx

; 12138: 				//K廷r?
; 12139: 				ATR_VCT_NO(p_master) = 3;

  0035b	a1 00 00 00 00	 mov	 eax, DWORD PTR ?p_master@@3PAUaction@@A
  00360	8b 48 0c	 mov	 ecx, DWORD PTR [eax+12]
  00363	c6 01 03	 mov	 BYTE PTR [ecx], 3

; 12140: 				/* ???? */
; 12141: 				ATR_H_POS(a1) = monster_start_pos[monster_place_no[d2] * 2];

  00366	8b 45 e0	 mov	 eax, DWORD PTR _d2$[ebp]
  00369	8b 0c 85 00 00
	00 00		 mov	 ecx, DWORD PTR ?monster_place_no@@3PAHA[eax*4]
  00370	d1 e1		 shl	 ecx, 1
  00372	8b 55 f8	 mov	 edx, DWORD PTR _a1$[ebp]
  00375	8b 04 8d 00 00
	00 00		 mov	 eax, DWORD PTR ?monster_start_pos@@3PAHA[ecx*4]
  0037c	89 42 18	 mov	 DWORD PTR [edx+24], eax

; 12142: 				ATR_V_POS(a1) = monster_start_pos[monster_place_no[d2] * 2 + 1];

  0037f	8b 45 e0	 mov	 eax, DWORD PTR _d2$[ebp]
  00382	8b 0c 85 00 00
	00 00		 mov	 ecx, DWORD PTR ?monster_place_no@@3PAHA[eax*4]
  00389	d1 e1		 shl	 ecx, 1
  0038b	8b 55 f8	 mov	 edx, DWORD PTR _a1$[ebp]
  0038e	8b 04 8d 04 00
	00 00		 mov	 eax, DWORD PTR ?monster_start_pos@@3PAHA[ecx*4+4]
  00395	89 42 1c	 mov	 DWORD PTR [edx+28], eax

; 12143: 				ATR_INT_WORK0(a1) = monster_place_pos[monster_place_no[d2] * 2];

  00398	8b 45 e0	 mov	 eax, DWORD PTR _d2$[ebp]
  0039b	8b 0c 85 00 00
	00 00		 mov	 ecx, DWORD PTR ?monster_place_no@@3PAHA[eax*4]
  003a2	d1 e1		 shl	 ecx, 1
  003a4	8b 55 f8	 mov	 edx, DWORD PTR _a1$[ebp]
  003a7	8b 42 0c	 mov	 eax, DWORD PTR [edx+12]
  003aa	8b 0c 8d 00 00
	00 00		 mov	 ecx, DWORD PTR ?monster_place_pos@@3PAHA[ecx*4]
  003b1	89 88 24 01 00
	00		 mov	 DWORD PTR [eax+292], ecx

; 12144: 				ATR_INT_WORK1(a1) = monster_place_pos[monster_place_no[d2] * 2 + 1];

  003b7	8b 45 e0	 mov	 eax, DWORD PTR _d2$[ebp]
  003ba	8b 0c 85 00 00
	00 00		 mov	 ecx, DWORD PTR ?monster_place_no@@3PAHA[eax*4]
  003c1	d1 e1		 shl	 ecx, 1
  003c3	8b 55 f8	 mov	 edx, DWORD PTR _a1$[ebp]
  003c6	8b 42 0c	 mov	 eax, DWORD PTR [edx+12]
  003c9	8b 0c 8d 04 00
	00 00		 mov	 ecx, DWORD PTR ?monster_place_pos@@3PAHA[ecx*4+4]
  003d0	89 88 28 01 00
	00		 mov	 DWORD PTR [eax+296], ecx
$LN11@set_bc:

; 12145: 			}
; 12146: 			//????????????
; 12147: 			set_raster_pos(a1);

  003d6	8b 45 f8	 mov	 eax, DWORD PTR _a1$[ebp]
  003d9	50		 push	 eax
  003da	e8 00 00 00 00	 call	 ?set_raster_pos@@YAXPAUaction@@@Z ; set_raster_pos
  003df	83 c4 04	 add	 esp, 4

; 12148: 			//148 149 150
; 12149: 		}
; 12150: 		else

  003e2	e9 d9 01 00 00	 jmp	 $LN9@set_bc
$LN8@set_bc:

; 12151: 		{
; 12152: 			if (ATR_LIFE(a1) > 0)

  003e7	8b 45 f8	 mov	 eax, DWORD PTR _a1$[ebp]
  003ea	83 78 78 00	 cmp	 DWORD PTR [eax+120], 0
  003ee	0f 8e cc 01 00
	00		 jle	 $LN9@set_bc

; 12153: 			{	//?????
; 12154: 				if (d0 & BC_FADE_OUT)

  003f4	8b 45 ec	 mov	 eax, DWORD PTR _d0$[ebp]
  003f7	25 00 02 00 00	 and	 eax, 512		; 00000200H
  003fc	74 7e		 je	 SHORT $LN18@set_bc

; 12155: 				{	// ??s???
; 12156: 					ATR_ATTRIB(a1) |= ACT_ATR_TRAVEL;

  003fe	8b 45 f8	 mov	 eax, DWORD PTR _a1$[ebp]
  00401	8b 88 a4 00 00
	00		 mov	 ecx, DWORD PTR [eax+164]
  00407	81 c9 00 00 02
	00		 or	 ecx, 131072		; 00020000H
  0040d	8b 55 f8	 mov	 edx, DWORD PTR _a1$[ebp]
  00410	89 8a a4 00 00
	00		 mov	 DWORD PTR [edx+164], ecx

; 12157: 					//??????
; 12158: 					ATR_ATTACK_KIND(2, a1) = 1;

  00416	8b 45 f8	 mov	 eax, DWORD PTR _a1$[ebp]
  00419	8b 48 0c	 mov	 ecx, DWORD PTR [eax+12]
  0041c	ba 04 00 00 00	 mov	 edx, 4
  00421	d1 e2		 shl	 edx, 1
  00423	c7 44 11 60 01
	00 00 00	 mov	 DWORD PTR [ecx+edx+96], 1

; 12159: 					if (ATR_GROUP_FLG(a1) == 0)

  0042b	8b 45 f8	 mov	 eax, DWORD PTR _a1$[ebp]
  0042e	8b 48 0c	 mov	 ecx, DWORD PTR [eax+12]
  00431	0f b6 51 5e	 movzx	 edx, BYTE PTR [ecx+94]
  00435	85 d2		 test	 edx, edx
  00437	75 2a		 jne	 SHORT $LN20@set_bc

; 12160: 					{	//????????
; 12161: 						ATR_V_POS(a1) = lpDraw->ySize + 16;

  00439	a1 00 00 00 00	 mov	 eax, DWORD PTR ?lpDraw@@3PAUDIRECT_DRAW@@A ; lpDraw
  0043e	8b 88 88 00 00
	00		 mov	 ecx, DWORD PTR [eax+136]
  00444	83 c1 10	 add	 ecx, 16			; 00000010H
  00447	8b 55 f8	 mov	 edx, DWORD PTR _a1$[ebp]
  0044a	89 4a 1c	 mov	 DWORD PTR [edx+28], ecx

; 12162: 						ATR_H_POS(a1) = lpDraw->xSize + SCREEN_OUT;

  0044d	a1 00 00 00 00	 mov	 eax, DWORD PTR ?lpDraw@@3PAUDIRECT_DRAW@@A ; lpDraw
  00452	8b 88 84 00 00
	00		 mov	 ecx, DWORD PTR [eax+132]
  00458	83 c1 6a	 add	 ecx, 106		; 0000006aH
  0045b	8b 55 f8	 mov	 edx, DWORD PTR _a1$[ebp]
  0045e	89 4a 18	 mov	 DWORD PTR [edx+24], ecx

; 12163: 					}
; 12164: 					else

  00461	eb 14		 jmp	 SHORT $LN21@set_bc
$LN20@set_bc:

; 12165: 					{
; 12166: 						ATR_V_POS(a1) = -18;

  00463	8b 45 f8	 mov	 eax, DWORD PTR _a1$[ebp]
  00466	c7 40 1c ee ff
	ff ff		 mov	 DWORD PTR [eax+28], -18	; ffffffeeH

; 12167: 						ATR_H_POS(a1) = -SCREEN_OUT;

  0046d	8b 45 f8	 mov	 eax, DWORD PTR _a1$[ebp]
  00470	c7 40 18 96 ff
	ff ff		 mov	 DWORD PTR [eax+24], -106 ; ffffff96H
$LN21@set_bc:

; 12168: 					}
; 12169: 				}
; 12170: 				else

  00477	e9 86 00 00 00	 jmp	 $LN19@set_bc
$LN18@set_bc:

; 12171: 				{
; 12172: 					ATR_ATTRIB(a1) &= ~ACT_ATR_TRAVEL;

  0047c	8b 45 f8	 mov	 eax, DWORD PTR _a1$[ebp]
  0047f	8b 88 a4 00 00
	00		 mov	 ecx, DWORD PTR [eax+164]
  00485	81 e1 ff ff fd
	ff		 and	 ecx, -131073		; fffdffffH
  0048b	8b 55 f8	 mov	 edx, DWORD PTR _a1$[ebp]
  0048e	89 8a a4 00 00
	00		 mov	 DWORD PTR [edx+164], ecx

; 12173: 					ATR_H_POS(a1) = ATR_INT_WORK0(a1) = monster_place_pos[monster_place_no[d2] * 2];

  00494	8b 45 e0	 mov	 eax, DWORD PTR _d2$[ebp]
  00497	8b 0c 85 00 00
	00 00		 mov	 ecx, DWORD PTR ?monster_place_no@@3PAHA[eax*4]
  0049e	d1 e1		 shl	 ecx, 1
  004a0	8b 55 f8	 mov	 edx, DWORD PTR _a1$[ebp]
  004a3	8b 42 0c	 mov	 eax, DWORD PTR [edx+12]
  004a6	8b 0c 8d 00 00
	00 00		 mov	 ecx, DWORD PTR ?monster_place_pos@@3PAHA[ecx*4]
  004ad	89 88 24 01 00
	00		 mov	 DWORD PTR [eax+292], ecx
  004b3	8b 55 f8	 mov	 edx, DWORD PTR _a1$[ebp]
  004b6	8b 42 0c	 mov	 eax, DWORD PTR [edx+12]
  004b9	8b 4d f8	 mov	 ecx, DWORD PTR _a1$[ebp]
  004bc	8b 90 24 01 00
	00		 mov	 edx, DWORD PTR [eax+292]
  004c2	89 51 18	 mov	 DWORD PTR [ecx+24], edx

; 12174: 					ATR_V_POS(a1) = ATR_INT_WORK1(a1) = monster_place_pos[monster_place_no[d2] * 2 + 1];

  004c5	8b 45 e0	 mov	 eax, DWORD PTR _d2$[ebp]
  004c8	8b 0c 85 00 00
	00 00		 mov	 ecx, DWORD PTR ?monster_place_no@@3PAHA[eax*4]
  004cf	d1 e1		 shl	 ecx, 1
  004d1	8b 55 f8	 mov	 edx, DWORD PTR _a1$[ebp]
  004d4	8b 42 0c	 mov	 eax, DWORD PTR [edx+12]
  004d7	8b 0c 8d 04 00
	00 00		 mov	 ecx, DWORD PTR ?monster_place_pos@@3PAHA[ecx*4+4]
  004de	89 88 28 01 00
	00		 mov	 DWORD PTR [eax+296], ecx
  004e4	8b 55 f8	 mov	 edx, DWORD PTR _a1$[ebp]
  004e7	8b 42 0c	 mov	 eax, DWORD PTR [edx+12]
  004ea	8b 4d f8	 mov	 ecx, DWORD PTR _a1$[ebp]
  004ed	8b 90 28 01 00
	00		 mov	 edx, DWORD PTR [eax+296]
  004f3	89 51 1c	 mov	 DWORD PTR [ecx+28], edx

; 12175: 					//????????????
; 12176: 					set_raster_pos(a1);

  004f6	8b 45 f8	 mov	 eax, DWORD PTR _a1$[ebp]
  004f9	50		 push	 eax
  004fa	e8 00 00 00 00	 call	 ?set_raster_pos@@YAXPAUaction@@@Z ; set_raster_pos
  004ff	83 c4 04	 add	 esp, 4
$LN19@set_bc:

; 12177: 				}
; 12178: 				//r??
; 12179: 				ATR_VCT_NO(a1) = 0;

  00502	8b 45 f8	 mov	 eax, DWORD PTR _a1$[ebp]
  00505	8b 48 0c	 mov	 ecx, DWORD PTR [eax+12]
  00508	c6 01 00	 mov	 BYTE PTR [ecx], 0

; 12180: 				ATR_CHR_ACT(a1) = ANIM_STAND;

  0050b	8b 45 f8	 mov	 eax, DWORD PTR _a1$[ebp]
  0050e	c7 80 4c 01 00
	00 03 00 00 00	 mov	 DWORD PTR [eax+332], 3

; 12181: 				if (BattleBpFlag & BATTLE_BP_JOIN)

  00518	a1 00 00 00 00	 mov	 eax, DWORD PTR ?BattleBpFlag@@3HA ; BattleBpFlag
  0051d	83 e0 01	 and	 eax, 1
  00520	0f 84 9a 00 00
	00		 je	 $LN9@set_bc

; 12182: 				{	// 印P??
; 12183: 					//???
; 12184: 					if (ATR_GROUP_FLG(a1) == 0)

  00526	8b 45 f8	 mov	 eax, DWORD PTR _a1$[ebp]
  00529	8b 48 0c	 mov	 ecx, DWORD PTR [eax+12]
  0052c	0f b6 51 5e	 movzx	 edx, BYTE PTR [ecx+94]
  00530	85 d2		 test	 edx, edx
  00532	75 0f		 jne	 SHORT $LN23@set_bc

; 12185: 						ATR_CHR_ANG(a1) = 3;

  00534	8b 45 f8	 mov	 eax, DWORD PTR _a1$[ebp]
  00537	c7 80 54 01 00
	00 03 00 00 00	 mov	 DWORD PTR [eax+340], 3
  00541	eb 1c		 jmp	 SHORT $LN24@set_bc
$LN23@set_bc:

; 12186: 					else if (ATR_GROUP_FLG(a1) == 1)

  00543	8b 45 f8	 mov	 eax, DWORD PTR _a1$[ebp]
  00546	8b 48 0c	 mov	 ecx, DWORD PTR [eax+12]
  00549	0f b6 51 5e	 movzx	 edx, BYTE PTR [ecx+94]
  0054d	83 fa 01	 cmp	 edx, 1
  00550	75 0d		 jne	 SHORT $LN24@set_bc

; 12187: 						ATR_CHR_ANG(a1) = 7;

  00552	8b 45 f8	 mov	 eax, DWORD PTR _a1$[ebp]
  00555	c7 80 54 01 00
	00 07 00 00 00	 mov	 DWORD PTR [eax+340], 7
$LN24@set_bc:

; 12188: #ifdef _BATTLE_PK_PLAYER_FOR_40
; 12189: 					else if (ATR_GROUP_FLG(a1) == 2)
; 12190: 						ATR_CHR_ANG(a1) = 5;
; 12191: 					else if (ATR_GROUP_FLG(a1) == 3)	
; 12192: 						ATR_CHR_ANG(a1) = 1;
; 12193: #endif
; 12194: 					ATR_CRS_OLD(a1) = ATR_CRS(a1) = crs_change_tbl2[ATR_CHR_ANG(a1)];

  0055f	8b 45 f8	 mov	 eax, DWORD PTR _a1$[ebp]
  00562	8b 88 54 01 00
	00		 mov	 ecx, DWORD PTR [eax+340]
  00568	0f b6 91 00 00
	00 00		 movzx	 edx, BYTE PTR ?crs_change_tbl2@@3PAEA[ecx]
  0056f	89 95 e8 fe ff
	ff		 mov	 DWORD PTR tv312[ebp], edx
  00575	8b 45 f8	 mov	 eax, DWORD PTR _a1$[ebp]
  00578	8b 8d e8 fe ff
	ff		 mov	 ecx, DWORD PTR tv312[ebp]
  0057e	89 88 38 01 00
	00		 mov	 DWORD PTR [eax+312], ecx
  00584	8b 55 f8	 mov	 edx, DWORD PTR _a1$[ebp]
  00587	8b 42 0c	 mov	 eax, DWORD PTR [edx+12]
  0058a	8a 8d e8 fe ff
	ff		 mov	 cl, BYTE PTR tv312[ebp]
  00590	88 88 22 01 00
	00		 mov	 BYTE PTR [eax+290], cl

; 12195: 					ATR_CHR_ACT(a1) = ANIM_WALK;

  00596	8b 45 f8	 mov	 eax, DWORD PTR _a1$[ebp]
  00599	c7 80 4c 01 00
	00 04 00 00 00	 mov	 DWORD PTR [eax+332], 4

; 12196: 					ATR_CHR_ACT_OLD(a1) = -1;

  005a3	8b 45 f8	 mov	 eax, DWORD PTR _a1$[ebp]
  005a6	c7 80 50 01 00
	00 ff ff ff ff	 mov	 DWORD PTR [eax+336], -1

; 12197: 					pattern(a1, ANM_NOMAL_SPD, ANM_LOOP);

  005b0	6a 00		 push	 0
  005b2	6a 00		 push	 0
  005b4	8b 45 f8	 mov	 eax, DWORD PTR _a1$[ebp]
  005b7	50		 push	 eax
  005b8	e8 00 00 00 00	 call	 ?pattern@@YAHPAUaction@@HH@Z ; pattern
  005bd	83 c4 0c	 add	 esp, 12			; 0000000cH
$LN9@set_bc:

; 12198: 				}
; 12199: 			}
; 12200: 		}
; 12201: 		//???
; 12202: 		if (d0 & BC_DEATH)

  005c0	8b 45 ec	 mov	 eax, DWORD PTR _d0$[ebp]
  005c3	83 e0 02	 and	 eax, 2
  005c6	0f 84 5e 01 00
	00		 je	 $LN26@set_bc

; 12203: 		{
; 12204: 			if (ATR_VCT_NO(a1) == VCT_NO_APPEAR)

  005cc	8b 45 f8	 mov	 eax, DWORD PTR _a1$[ebp]
  005cf	8b 48 0c	 mov	 ecx, DWORD PTR [eax+12]
  005d2	0f b6 11	 movzx	 edx, BYTE PTR [ecx]
  005d5	81 fa f9 00 00
	00		 cmp	 edx, 249		; 000000f9H
  005db	0f 85 49 01 00
	00		 jne	 $LN26@set_bc

; 12205: 			{	//???????
; 12206: 				//????
; 12207: 				ATR_VCT_NO(a1) = VCT_NO_DIE + 2;

  005e1	8b 45 f8	 mov	 eax, DWORD PTR _a1$[ebp]
  005e4	8b 48 0c	 mov	 ecx, DWORD PTR [eax+12]
  005e7	c6 01 fc	 mov	 BYTE PTR [ecx], 252	; 000000fcH

; 12208: 				ATR_H_POS(a1) = ATR_INT_WORK0(a1) = monster_place_pos[monster_place_no[d2] * 2];

  005ea	8b 45 e0	 mov	 eax, DWORD PTR _d2$[ebp]
  005ed	8b 0c 85 00 00
	00 00		 mov	 ecx, DWORD PTR ?monster_place_no@@3PAHA[eax*4]
  005f4	d1 e1		 shl	 ecx, 1
  005f6	8b 55 f8	 mov	 edx, DWORD PTR _a1$[ebp]
  005f9	8b 42 0c	 mov	 eax, DWORD PTR [edx+12]
  005fc	8b 0c 8d 00 00
	00 00		 mov	 ecx, DWORD PTR ?monster_place_pos@@3PAHA[ecx*4]
  00603	89 88 24 01 00
	00		 mov	 DWORD PTR [eax+292], ecx
  00609	8b 55 f8	 mov	 edx, DWORD PTR _a1$[ebp]
  0060c	8b 42 0c	 mov	 eax, DWORD PTR [edx+12]
  0060f	8b 4d f8	 mov	 ecx, DWORD PTR _a1$[ebp]
  00612	8b 90 24 01 00
	00		 mov	 edx, DWORD PTR [eax+292]
  00618	89 51 18	 mov	 DWORD PTR [ecx+24], edx

; 12209: 				ATR_V_POS(a1) = ATR_INT_WORK1(a1) = monster_place_pos[monster_place_no[d2] * 2 + 1];

  0061b	8b 45 e0	 mov	 eax, DWORD PTR _d2$[ebp]
  0061e	8b 0c 85 00 00
	00 00		 mov	 ecx, DWORD PTR ?monster_place_no@@3PAHA[eax*4]
  00625	d1 e1		 shl	 ecx, 1
  00627	8b 55 f8	 mov	 edx, DWORD PTR _a1$[ebp]
  0062a	8b 42 0c	 mov	 eax, DWORD PTR [edx+12]
  0062d	8b 0c 8d 04 00
	00 00		 mov	 ecx, DWORD PTR ?monster_place_pos@@3PAHA[ecx*4+4]
  00634	89 88 28 01 00
	00		 mov	 DWORD PTR [eax+296], ecx
  0063a	8b 55 f8	 mov	 edx, DWORD PTR _a1$[ebp]
  0063d	8b 42 0c	 mov	 eax, DWORD PTR [edx+12]
  00640	8b 4d f8	 mov	 ecx, DWORD PTR _a1$[ebp]
  00643	8b 90 28 01 00
	00		 mov	 edx, DWORD PTR [eax+296]
  00649	89 51 1c	 mov	 DWORD PTR [ecx+28], edx

; 12210: 				//????????????
; 12211: 				set_raster_pos(a1);

  0064c	8b 45 f8	 mov	 eax, DWORD PTR _a1$[ebp]
  0064f	50		 push	 eax
  00650	e8 00 00 00 00	 call	 ?set_raster_pos@@YAXPAUaction@@@Z ; set_raster_pos
  00655	83 c4 04	 add	 esp, 4

; 12212: 				//????
; 12213: 				ATR_LIFE(a1) = 0;

  00658	8b 45 f8	 mov	 eax, DWORD PTR _a1$[ebp]
  0065b	c7 40 78 00 00
	00 00		 mov	 DWORD PTR [eax+120], 0

; 12214: 				//????????
; 12215: 				if (ATR_GROUP_FLG(a1) == 0)

  00662	8b 45 f8	 mov	 eax, DWORD PTR _a1$[ebp]
  00665	8b 48 0c	 mov	 ecx, DWORD PTR [eax+12]
  00668	0f b6 51 5e	 movzx	 edx, BYTE PTR [ecx+94]
  0066c	85 d2		 test	 edx, edx
  0066e	75 0f		 jne	 SHORT $LN28@set_bc

; 12216: 					ATR_CHR_ANG(a1) = 3;

  00670	8b 45 f8	 mov	 eax, DWORD PTR _a1$[ebp]
  00673	c7 80 54 01 00
	00 03 00 00 00	 mov	 DWORD PTR [eax+340], 3
  0067d	eb 1c		 jmp	 SHORT $LN29@set_bc
$LN28@set_bc:

; 12217: 				else if (ATR_GROUP_FLG(a1) == 1)

  0067f	8b 45 f8	 mov	 eax, DWORD PTR _a1$[ebp]
  00682	8b 48 0c	 mov	 ecx, DWORD PTR [eax+12]
  00685	0f b6 51 5e	 movzx	 edx, BYTE PTR [ecx+94]
  00689	83 fa 01	 cmp	 edx, 1
  0068c	75 0d		 jne	 SHORT $LN29@set_bc

; 12218: 					ATR_CHR_ANG(a1) = 7;

  0068e	8b 45 f8	 mov	 eax, DWORD PTR _a1$[ebp]
  00691	c7 80 54 01 00
	00 07 00 00 00	 mov	 DWORD PTR [eax+340], 7
$LN29@set_bc:

; 12219: #ifdef _BATTLE_PK_PLAYER_FOR_40
; 12220: 				else if (ATR_GROUP_FLG(a1) == 2)
; 12221: 					ATR_CHR_ANG(a1) = 5;
; 12222: 				else if (ATR_GROUP_FLG(a1) == 3)	
; 12223: 					ATR_CHR_ANG(a1) = 1;
; 12224: #endif
; 12225: 				ATR_CRS_OLD(a1) = ATR_CRS(a1) = crs_change_tbl2[ATR_CHR_ANG(a1)];

  0069b	8b 45 f8	 mov	 eax, DWORD PTR _a1$[ebp]
  0069e	8b 88 54 01 00
	00		 mov	 ecx, DWORD PTR [eax+340]
  006a4	0f b6 91 00 00
	00 00		 movzx	 edx, BYTE PTR ?crs_change_tbl2@@3PAEA[ecx]
  006ab	89 95 e8 fe ff
	ff		 mov	 DWORD PTR tv366[ebp], edx
  006b1	8b 45 f8	 mov	 eax, DWORD PTR _a1$[ebp]
  006b4	8b 8d e8 fe ff
	ff		 mov	 ecx, DWORD PTR tv366[ebp]
  006ba	89 88 38 01 00
	00		 mov	 DWORD PTR [eax+312], ecx
  006c0	8b 55 f8	 mov	 edx, DWORD PTR _a1$[ebp]
  006c3	8b 42 0c	 mov	 eax, DWORD PTR [edx+12]
  006c6	8a 8d e8 fe ff
	ff		 mov	 cl, BYTE PTR tv366[ebp]
  006cc	88 88 22 01 00
	00		 mov	 BYTE PTR [eax+290], cl

; 12226: 				ATR_CHR_ACT(a1) = ANIM_DEAD;		//????????

  006d2	8b 45 f8	 mov	 eax, DWORD PTR _a1$[ebp]
  006d5	c7 80 4c 01 00
	00 02 00 00 00	 mov	 DWORD PTR [eax+332], 2

; 12227: 				ATR_CHR_ACT_OLD(a1) = -1;

  006df	8b 45 f8	 mov	 eax, DWORD PTR _a1$[ebp]
  006e2	c7 80 50 01 00
	00 ff ff ff ff	 mov	 DWORD PTR [eax+336], -1
$LN4@set_bc:

; 12228: 				while (1)

  006ec	b8 01 00 00 00	 mov	 eax, 1
  006f1	85 c0		 test	 eax, eax
  006f3	74 18		 je	 SHORT $LN5@set_bc

; 12229: 				{
; 12230: 					if (pattern(a1, 1, ANM_NO_LOOP))	//??????

  006f5	6a 01		 push	 1
  006f7	6a 01		 push	 1
  006f9	8b 45 f8	 mov	 eax, DWORD PTR _a1$[ebp]
  006fc	50		 push	 eax
  006fd	e8 00 00 00 00	 call	 ?pattern@@YAHPAUaction@@HH@Z ; pattern
  00702	83 c4 0c	 add	 esp, 12			; 0000000cH
  00705	85 c0		 test	 eax, eax
  00707	74 02		 je	 SHORT $LN31@set_bc

; 12231: 						break;

  00709	eb 02		 jmp	 SHORT $LN5@set_bc
$LN31@set_bc:

; 12232: 				}

  0070b	eb df		 jmp	 SHORT $LN4@set_bc
$LN5@set_bc:

; 12233: 				//????
; 12234: 				LoadBmp(ATR_PAT_NO(a1));

  0070d	8b 45 f8	 mov	 eax, DWORD PTR _a1$[ebp]
  00710	8b 88 9c 00 00
	00		 mov	 ecx, DWORD PTR [eax+156]
  00716	51		 push	 ecx
  00717	e8 00 00 00 00	 call	 ?LoadBmp@@YAHH@Z	; LoadBmp
  0071c	83 c4 04	 add	 esp, 4

; 12235: #ifndef _PETSKILL_ANTINTER
; 12236: 				set_piyo_loop(a1);
; 12237: #endif			
; 12238: 				//?r?`
; 12239: 				ATR_VCT_NO(p_master) = 3;

  0071f	a1 00 00 00 00	 mov	 eax, DWORD PTR ?p_master@@3PAUaction@@A
  00724	8b 48 0c	 mov	 ecx, DWORD PTR [eax+12]
  00727	c6 01 03	 mov	 BYTE PTR [ecx], 3
$LN26@set_bc:

; 12240: 			}
; 12241: 		}
; 12242: 		//????V?ＯＫ??
; 12243: 		if (d0 & BC_PET_OK)

  0072a	8b 45 ec	 mov	 eax, DWORD PTR _d0$[ebp]
  0072d	83 e0 04	 and	 eax, 4
  00730	74 0d		 je	 SHORT $LN32@set_bc

; 12244: 			ATR_PET_OK(a1) = 1;

  00732	8b 45 f8	 mov	 eax, DWORD PTR _a1$[ebp]
  00735	8b 48 0c	 mov	 ecx, DWORD PTR [eax+12]
  00738	c6 81 20 01 00
	00 01		 mov	 BYTE PTR [ecx+288], 1
$LN32@set_bc:

; 12245: 		//??????????????
; 12246: 		if (ATR_JUJUTSU_WORK(a1) == NULL)

  0073f	8b 45 f8	 mov	 eax, DWORD PTR _a1$[ebp]
  00742	8b 48 0c	 mov	 ecx, DWORD PTR [eax+12]
  00745	83 b9 10 01 00
	00 00		 cmp	 DWORD PTR [ecx+272], 0
  0074c	0f 85 05 02 00
	00		 jne	 $LN33@set_bc

; 12247: 		{
; 12248: 			d3 = 0;

  00752	c7 45 d4 00 00
	00 00		 mov	 DWORD PTR _d3$[ebp], 0

; 12249: 			if (d0 & BC_BIT3)		//  ""??

  00759	8b 45 ec	 mov	 eax, DWORD PTR _d0$[ebp]
  0075c	83 e0 08	 and	 eax, 8
  0075f	74 09		 je	 SHORT $LN34@set_bc

; 12250: 				d3 = 1;

  00761	c7 45 d4 01 00
	00 00		 mov	 DWORD PTR _d3$[ebp], 1
  00768	eb 57		 jmp	 SHORT $LN35@set_bc
$LN34@set_bc:

; 12251: 			else if (d0 & BC_BIT4)		//  "??"??

  0076a	8b 45 ec	 mov	 eax, DWORD PTR _d0$[ebp]
  0076d	83 e0 10	 and	 eax, 16			; 00000010H
  00770	74 09		 je	 SHORT $LN36@set_bc

; 12252: 				d3 = 2;

  00772	c7 45 d4 02 00
	00 00		 mov	 DWORD PTR _d3$[ebp], 2
  00779	eb 46		 jmp	 SHORT $LN35@set_bc
$LN36@set_bc:

; 12253: 			else if (d0 & BC_BIT5)		//  "?"??

  0077b	8b 45 ec	 mov	 eax, DWORD PTR _d0$[ebp]
  0077e	83 e0 20	 and	 eax, 32			; 00000020H
  00781	74 09		 je	 SHORT $LN38@set_bc

; 12254: 				d3 = 3;

  00783	c7 45 d4 03 00
	00 00		 mov	 DWORD PTR _d3$[ebp], 3
  0078a	eb 35		 jmp	 SHORT $LN35@set_bc
$LN38@set_bc:

; 12255: 			else if (d0 & BC_BIT6)		//  "?"??

  0078c	8b 45 ec	 mov	 eax, DWORD PTR _d0$[ebp]
  0078f	83 e0 40	 and	 eax, 64			; 00000040H
  00792	74 09		 je	 SHORT $LN40@set_bc

; 12256: 				d3 = 4;

  00794	c7 45 d4 04 00
	00 00		 mov	 DWORD PTR _d3$[ebp], 4
  0079b	eb 24		 jmp	 SHORT $LN35@set_bc
$LN40@set_bc:

; 12257: 			else if (d0 & BC_BIT7)		//  "???"??

  0079d	8b 45 ec	 mov	 eax, DWORD PTR _d0$[ebp]
  007a0	25 80 00 00 00	 and	 eax, 128		; 00000080H
  007a5	74 09		 je	 SHORT $LN42@set_bc

; 12258: 				d3 = 5;

  007a7	c7 45 d4 05 00
	00 00		 mov	 DWORD PTR _d3$[ebp], 5
  007ae	eb 11		 jmp	 SHORT $LN35@set_bc
$LN42@set_bc:

; 12259: 			else if (d0 & BC_BIT8)		//  "??"??

  007b0	8b 45 ec	 mov	 eax, DWORD PTR _d0$[ebp]
  007b3	25 00 01 00 00	 and	 eax, 256		; 00000100H
  007b8	74 07		 je	 SHORT $LN35@set_bc

; 12260: 				d3 = 6;

  007ba	c7 45 d4 06 00
	00 00		 mov	 DWORD PTR _d3$[ebp], 6
$LN35@set_bc:

; 12261: #ifdef _MAGIC_WEAKEN
; 12262: 			if (d0 & BC_WEAKEN)    //虚弱

  007c1	8b 45 ec	 mov	 eax, DWORD PTR _d0$[ebp]
  007c4	25 00 08 00 00	 and	 eax, 2048		; 00000800H
  007c9	74 07		 je	 SHORT $LN45@set_bc

; 12263: 				d3 = 7;

  007cb	c7 45 d4 07 00
	00 00		 mov	 DWORD PTR _d3$[ebp], 7
$LN45@set_bc:

; 12264: #endif
; 12265: #ifdef _MAGIC_DEEPPOISION
; 12266: 			if (d0 & BC_DEEPPOISON)  //剧毒

  007d2	8b 45 ec	 mov	 eax, DWORD PTR _d0$[ebp]
  007d5	25 00 10 00 00	 and	 eax, 4096		; 00001000H
  007da	74 07		 je	 SHORT $LN46@set_bc

; 12267: 				d3 = 8;

  007dc	c7 45 d4 08 00
	00 00		 mov	 DWORD PTR _d3$[ebp], 8
$LN46@set_bc:

; 12268: #endif
; 12269: #ifdef _MAGIC_BARRIER
; 12270: 			if (d0 & BC_BARRIER)  //魔障

  007e3	8b 45 ec	 mov	 eax, DWORD PTR _d0$[ebp]
  007e6	25 00 20 00 00	 and	 eax, 8192		; 00002000H
  007eb	74 07		 je	 SHORT $LN47@set_bc

; 12271: 				d3 = 9;

  007ed	c7 45 d4 09 00
	00 00		 mov	 DWORD PTR _d3$[ebp], 9
$LN47@set_bc:

; 12272: #endif
; 12273: #ifdef _MAGIC_NOCAST
; 12274: 			if (d0 & BC_NOCAST)   //沉默

  007f4	8b 45 ec	 mov	 eax, DWORD PTR _d0$[ebp]
  007f7	25 00 40 00 00	 and	 eax, 16384		; 00004000H
  007fc	74 07		 je	 SHORT $LN48@set_bc

; 12275: 				d3 = 10;

  007fe	c7 45 d4 0a 00
	00 00		 mov	 DWORD PTR _d3$[ebp], 10	; 0000000aH
$LN48@set_bc:

; 12276: #endif
; 12277: #ifdef _SARS						// WON ADD 毒煞蔓延
; 12278: 			if (d0 & BC_SARS)		// 毒煞蔓延

  00805	8b 45 ec	 mov	 eax, DWORD PTR _d0$[ebp]
  00808	25 00 80 00 00	 and	 eax, 32768		; 00008000H
  0080d	74 07		 je	 SHORT $LN49@set_bc

; 12279: 				d3 = 11;

  0080f	c7 45 d4 0b 00
	00 00		 mov	 DWORD PTR _d3$[ebp], 11	; 0000000bH
$LN49@set_bc:

; 12280: #endif
; 12281: #ifdef _CHAR_PROFESSION						// WON ADD	晕眩
; 12282: 			if (d0 & BC_DIZZY)		// 晕眩

  00816	8b 45 ec	 mov	 eax, DWORD PTR _d0$[ebp]
  00819	25 00 00 01 00	 and	 eax, 65536		; 00010000H
  0081e	74 07		 je	 SHORT $LN50@set_bc

; 12283: 				d3 = 12;

  00820	c7 45 d4 0c 00
	00 00		 mov	 DWORD PTR _d3$[ebp], 12	; 0000000cH
$LN50@set_bc:

; 12284: 			if (d0 & BC_ENTWINE)	// 树根缠绕

  00827	8b 45 ec	 mov	 eax, DWORD PTR _d0$[ebp]
  0082a	25 00 00 02 00	 and	 eax, 131072		; 00020000H
  0082f	74 07		 je	 SHORT $LN51@set_bc

; 12285: 				d3 = 13;

  00831	c7 45 d4 0d 00
	00 00		 mov	 DWORD PTR _d3$[ebp], 13	; 0000000dH
$LN51@set_bc:

; 12286: 			if (d0 & BC_DRAGNET)	// 天罗地网

  00838	8b 45 ec	 mov	 eax, DWORD PTR _d0$[ebp]
  0083b	25 00 00 04 00	 and	 eax, 262144		; 00040000H
  00840	74 07		 je	 SHORT $LN52@set_bc

; 12287: 				d3 = 14;

  00842	c7 45 d4 0e 00
	00 00		 mov	 DWORD PTR _d3$[ebp], 14	; 0000000eH
$LN52@set_bc:

; 12288: 			if (d0 & BC_ICECRACK)	// 冰爆术

  00849	8b 45 ec	 mov	 eax, DWORD PTR _d0$[ebp]
  0084c	25 00 00 08 00	 and	 eax, 524288		; 00080000H
  00851	74 07		 je	 SHORT $LN53@set_bc

; 12289: 				d3 = 15;

  00853	c7 45 d4 0f 00
	00 00		 mov	 DWORD PTR _d3$[ebp], 15	; 0000000fH
$LN53@set_bc:

; 12290: 			if (d0 & BC_OBLIVION)	// 遗忘

  0085a	8b 45 ec	 mov	 eax, DWORD PTR _d0$[ebp]
  0085d	25 00 00 10 00	 and	 eax, 1048576		; 00100000H
  00862	74 07		 je	 SHORT $LN54@set_bc

; 12291: 				d3 = 16;

  00864	c7 45 d4 10 00
	00 00		 mov	 DWORD PTR _d3$[ebp], 16	; 00000010H
$LN54@set_bc:

; 12292: 			if (d0 & BC_ICEARROW)	// 冰箭

  0086b	8b 45 ec	 mov	 eax, DWORD PTR _d0$[ebp]
  0086e	25 00 00 20 00	 and	 eax, 2097152		; 00200000H
  00873	74 07		 je	 SHORT $LN55@set_bc

; 12293: 				d3 = 17;

  00875	c7 45 d4 11 00
	00 00		 mov	 DWORD PTR _d3$[ebp], 17	; 00000011H
$LN55@set_bc:

; 12294: 			if (d0 & BC_BLOODWORMS)// 嗜血蛊

  0087c	8b 45 ec	 mov	 eax, DWORD PTR _d0$[ebp]
  0087f	25 00 00 40 00	 and	 eax, 4194304		; 00400000H
  00884	74 07		 je	 SHORT $LN56@set_bc

; 12295: 				d3 = 18;

  00886	c7 45 d4 12 00
	00 00		 mov	 DWORD PTR _d3$[ebp], 18	; 00000012H
$LN56@set_bc:

; 12296: 			if (d0 & BC_SIGN)		// 一针见血

  0088d	8b 45 ec	 mov	 eax, DWORD PTR _d0$[ebp]
  00890	25 00 00 80 00	 and	 eax, 8388608		; 00800000H
  00895	74 07		 je	 SHORT $LN57@set_bc

; 12297: 				d3 = 19;

  00897	c7 45 d4 13 00
	00 00		 mov	 DWORD PTR _d3$[ebp], 19	; 00000013H
$LN57@set_bc:

; 12298: 			if (d0 & BC_CRAZY)		// 挑拨

  0089e	8b 45 ec	 mov	 eax, DWORD PTR _d0$[ebp]
  008a1	25 00 00 00 01	 and	 eax, 16777216		; 01000000H
  008a6	74 07		 je	 SHORT $LN58@set_bc

; 12299: 				d3 = 20;

  008a8	c7 45 d4 14 00
	00 00		 mov	 DWORD PTR _d3$[ebp], 20	; 00000014H
$LN58@set_bc:

; 12300: 			if (d0 & BC_F_ENCLOSE)		// 火附体

  008af	8b 45 ec	 mov	 eax, DWORD PTR _d0$[ebp]
  008b2	25 00 00 00 02	 and	 eax, 33554432		; 02000000H
  008b7	74 07		 je	 SHORT $LN59@set_bc

; 12301: 				d3 = 21;

  008b9	c7 45 d4 15 00
	00 00		 mov	 DWORD PTR _d3$[ebp], 21	; 00000015H
$LN59@set_bc:

; 12302: 			if (d0 & BC_I_ENCLOSE)		// 冰附体

  008c0	8b 45 ec	 mov	 eax, DWORD PTR _d0$[ebp]
  008c3	25 00 00 00 04	 and	 eax, 67108864		; 04000000H
  008c8	74 07		 je	 SHORT $LN60@set_bc

; 12303: 				d3 = 22;

  008ca	c7 45 d4 16 00
	00 00		 mov	 DWORD PTR _d3$[ebp], 22	; 00000016H
$LN60@set_bc:

; 12304: 			if (d0 & BC_T_ENCLOSE)		// 雷附体

  008d1	8b 45 ec	 mov	 eax, DWORD PTR _d0$[ebp]
  008d4	25 00 00 00 08	 and	 eax, 134217728		; 08000000H
  008d9	74 07		 je	 SHORT $LN61@set_bc

; 12305: 				d3 = 23;

  008db	c7 45 d4 17 00
	00 00		 mov	 DWORD PTR _d3$[ebp], 23	; 00000017H
$LN61@set_bc:

; 12306: #ifdef _PROFESSION_ADDSKILL
; 12307: 			if (d0 & BC_WATER)

  008e2	8b 45 ec	 mov	 eax, DWORD PTR _d0$[ebp]
  008e5	25 00 00 00 10	 and	 eax, 268435456		; 10000000H
  008ea	74 07		 je	 SHORT $LN62@set_bc

; 12308: 				d3 = 32;		// 水附体

  008ec	c7 45 d4 20 00
	00 00		 mov	 DWORD PTR _d3$[ebp], 32	; 00000020H
$LN62@set_bc:

; 12309: 			if (d0 & BC_WATER)

  008f3	8b 45 ec	 mov	 eax, DWORD PTR _d0$[ebp]
  008f6	25 00 00 00 10	 and	 eax, 268435456		; 10000000H
  008fb	74 07		 je	 SHORT $LN63@set_bc

; 12310: 				d3 = 33;		// 恐惧

  008fd	c7 45 d4 21 00
	00 00		 mov	 DWORD PTR _d3$[ebp], 33	; 00000021H
$LN63@set_bc:

; 12311: 			//if (d0 & BC_F_I_T_ENCLOSE)  // 火冰雷附体
; 12312: 			//    d3 = 24;
; 12313: #endif
; 12314: #ifdef _PETSKILL_LER
; 12315: 			if (d0 & BC_CHANGE)

  00904	8b 45 ec	 mov	 eax, DWORD PTR _d0$[ebp]
  00907	25 00 00 00 40	 and	 eax, 1073741824		; 40000000H
  0090c	74 07		 je	 SHORT $LN64@set_bc

; 12316: 				d3 = 34; // 雷尔变身

  0090e	c7 45 d4 22 00
	00 00		 mov	 DWORD PTR _d3$[ebp], 34	; 00000022H
$LN64@set_bc:

; 12317: #endif
; 12318: #ifdef _PRO_KILLME
; 12319: 			if (d0 & BC_ANGER)
; 12320: 				d3 = 35; // 怒
; 12321: #endif
; 12322: 
; 12323: #endif
; 12324: #ifdef _PETSKILL_LER
; 12325: 			if (d0 & BC_CHANGE)

  00915	8b 45 ec	 mov	 eax, DWORD PTR _d0$[ebp]
  00918	25 00 00 00 40	 and	 eax, 1073741824		; 40000000H
  0091d	74 07		 je	 SHORT $LN65@set_bc

; 12326: 				d3 = 34; // 雷尔变身

  0091f	c7 45 d4 22 00
	00 00		 mov	 DWORD PTR _d3$[ebp], 34	; 00000022H
$LN65@set_bc:

; 12327: #endif
; 12328: 			if (d3)

  00926	83 7d d4 00	 cmp	 DWORD PTR _d3$[ebp], 0
  0092a	74 1e		 je	 SHORT $LN66@set_bc

; 12329: 			{	//??????
; 12330: 				set_single_jujutsu(d3, a1);		//Ol鳇???

  0092c	8b 45 f8	 mov	 eax, DWORD PTR _a1$[ebp]
  0092f	50		 push	 eax
  00930	8b 4d d4	 mov	 ecx, DWORD PTR _d3$[ebp]
  00933	51		 push	 ecx
  00934	e8 00 00 00 00	 call	 ?set_single_jujutsu@@YAXHPAUaction@@@Z ; set_single_jujutsu
  00939	83 c4 08	 add	 esp, 8

; 12331: 				ATR_STATUS(a1) = d3;		//????????

  0093c	8b 45 f8	 mov	 eax, DWORD PTR _a1$[ebp]
  0093f	8b 4d d4	 mov	 ecx, DWORD PTR _d3$[ebp]
  00942	89 88 90 00 00
	00		 mov	 DWORD PTR [eax+144], ecx

; 12332: 			}
; 12333: 			else

  00948	eb 0d		 jmp	 SHORT $LN33@set_bc
$LN66@set_bc:

; 12334: 				ATR_STATUS(a1) = 0;		//?????正

  0094a	8b 45 f8	 mov	 eax, DWORD PTR _a1$[ebp]
  0094d	c7 80 90 00 00
	00 00 00 00 00	 mov	 DWORD PTR [eax+144], 0
$LN33@set_bc:

; 12335: 		}
; 12336: 		//N艇T????????
; 12337: 		if (ATR_ATTRIB_WORK(a1) == NULL)

  00957	8b 45 f8	 mov	 eax, DWORD PTR _a1$[ebp]
  0095a	8b 48 0c	 mov	 ecx, DWORD PTR [eax+12]
  0095d	83 b9 18 01 00
	00 00		 cmp	 DWORD PTR [ecx+280], 0
  00964	75 16		 jne	 SHORT $LN68@set_bc

; 12338: 		{
; 12339: 			if (d0 & BC_REVERSE)		//T??

  00966	8b 45 ec	 mov	 eax, DWORD PTR _d0$[ebp]
  00969	25 00 04 00 00	 and	 eax, 1024		; 00000400H
  0096e	74 0c		 je	 SHORT $LN68@set_bc

; 12340: 				set_attrib_reverse(a1);		//N艇T???

  00970	8b 45 f8	 mov	 eax, DWORD PTR _a1$[ebp]
  00973	50		 push	 eax
  00974	e8 00 00 00 00	 call	 ?set_attrib_reverse@@YAXPAUaction@@@Z ; set_attrib_reverse
  00979	83 c4 04	 add	 esp, 4
$LN68@set_bc:

; 12341: 		}
; 12342: 
; 12343: 
; 12344: 	}

  0097c	e9 bf f6 ff ff	 jmp	 $LN2@set_bc
$LN3@set_bc:

; 12345: 	//K廷r??????
; 12346: 	if (ATR_VCT_NO(p_master) != 3)

  00981	a1 00 00 00 00	 mov	 eax, DWORD PTR ?p_master@@3PAUaction@@A
  00986	8b 48 0c	 mov	 ecx, DWORD PTR [eax+12]
  00989	0f b6 11	 movzx	 edx, BYTE PTR [ecx]
  0098c	83 fa 03	 cmp	 edx, 3
  0098f	74 0a		 je	 SHORT $LN1@set_bc

; 12347: 		action_inf = 3;		//K?尹?

  00991	c7 05 00 00 00
	00 03 00 00 00	 mov	 DWORD PTR ?action_inf@@3HA, 3 ; action_inf
$LN1@set_bc:

; 12348: }

  0099b	5f		 pop	 edi
  0099c	5e		 pop	 esi
  0099d	5b		 pop	 ebx
  0099e	81 c4 18 01 00
	00		 add	 esp, 280		; 00000118H
  009a4	3b ec		 cmp	 ebp, esp
  009a6	e8 00 00 00 00	 call	 __RTC_CheckEsp
  009ab	8b e5		 mov	 esp, ebp
  009ad	5d		 pop	 ebp
  009ae	c3		 ret	 0
?set_bc@@YAXXZ ENDP					; set_bc
_TEXT	ENDS
; Function compile flags: /Odtp /RTCsu /ZI
; File c:\users\administrator\desktop\????? ??\????? ??\client source code\oft\oft.cpp
;	COMDAT ?set_party_光环@@YAXXZ
_TEXT	SEGMENT
$T1 = -672						; size = 4
_image$2 = -468						; size = 4
_index$3 = -456						; size = 4
_i$4 = -444						; size = 4
_count$ = -432						; size = 4
_array$ = -420						; size = 400
_a1$ = -12						; size = 4
__$ArrayPad$ = -4					; size = 4
?set_party_光环@@YAXXZ PROC				; set_party_光环, COMDAT

; 12017: {

  00000	55		 push	 ebp
  00001	8b ec		 mov	 ebp, esp
  00003	81 ec a4 02 00
	00		 sub	 esp, 676		; 000002a4H
  00009	53		 push	 ebx
  0000a	56		 push	 esi
  0000b	57		 push	 edi
  0000c	8d bd 5c fd ff
	ff		 lea	 edi, DWORD PTR [ebp-676]
  00012	b9 a9 00 00 00	 mov	 ecx, 169		; 000000a9H
  00017	b8 cc cc cc cc	 mov	 eax, -858993460		; ccccccccH
  0001c	f3 ab		 rep stosd
  0001e	a1 00 00 00 00	 mov	 eax, DWORD PTR ___security_cookie
  00023	33 c5		 xor	 eax, ebp
  00025	89 45 fc	 mov	 DWORD PTR __$ArrayPad$[ebp], eax

; 12018: 	if (*gStr光环 == 0)return;

  00028	b8 01 00 00 00	 mov	 eax, 1
  0002d	6b c8 00	 imul	 ecx, eax, 0
  00030	0f be 91 00 00
	00 00		 movsx	 edx, BYTE PTR ?gStr光环@@3PADA[ecx]
  00037	85 d2		 test	 edx, edx
  00039	75 05		 jne	 SHORT $LN5@set_party_
  0003b	e9 ef 00 00 00	 jmp	 $LN6@set_party_
$LN5@set_party_:

; 12019: 	ACTION *a1;
; 12020: 	char* array[100];
; 12021: 	int count = split_damage(gStr光环, '|', (int*)array, 50);

  00040	6a 32		 push	 50			; 00000032H
  00042	8d 85 5c fe ff
	ff		 lea	 eax, DWORD PTR _array$[ebp]
  00048	50		 push	 eax
  00049	6a 7c		 push	 124			; 0000007cH
  0004b	68 00 00 00 00	 push	 OFFSET ?gStr光环@@3PADA	; gStr光环
  00050	e8 00 00 00 00	 call	 ?split_damage@@YAHPADDPAHI@Z ; split_damage
  00055	83 c4 10	 add	 esp, 16			; 00000010H
  00058	89 85 50 fe ff
	ff		 mov	 DWORD PTR _count$[ebp], eax

; 12022: 	for (int i = 0; i < count/2; i++)

  0005e	c7 85 44 fe ff
	ff 00 00 00 00	 mov	 DWORD PTR _i$4[ebp], 0
  00068	eb 0f		 jmp	 SHORT $LN4@set_party_
$LN2@set_party_:
  0006a	8b 85 44 fe ff
	ff		 mov	 eax, DWORD PTR _i$4[ebp]
  00070	83 c0 01	 add	 eax, 1
  00073	89 85 44 fe ff
	ff		 mov	 DWORD PTR _i$4[ebp], eax
$LN4@set_party_:
  00079	8b 85 50 fe ff
	ff		 mov	 eax, DWORD PTR _count$[ebp]
  0007f	99		 cdq
  00080	2b c2		 sub	 eax, edx
  00082	d1 f8		 sar	 eax, 1
  00084	39 85 44 fe ff
	ff		 cmp	 DWORD PTR _i$4[ebp], eax
  0008a	7d 78		 jge	 SHORT $LN3@set_party_

; 12023: 	{
; 12024: 		int index = atoi(array[2 * i]);

  0008c	8b 85 44 fe ff
	ff		 mov	 eax, DWORD PTR _i$4[ebp]
  00092	d1 e0		 shl	 eax, 1
  00094	8b f4		 mov	 esi, esp
  00096	8b 8c 85 5c fe
	ff ff		 mov	 ecx, DWORD PTR _array$[ebp+eax*4]
  0009d	51		 push	 ecx
  0009e	ff 15 00 00 00
	00		 call	 DWORD PTR __imp__atoi
  000a4	83 c4 04	 add	 esp, 4
  000a7	3b f4		 cmp	 esi, esp
  000a9	e8 00 00 00 00	 call	 __RTC_CheckEsp
  000ae	89 85 38 fe ff
	ff		 mov	 DWORD PTR _index$3[ebp], eax

; 12025: 		int image = atoi(array[2 * i + 1]);

  000b4	8b 85 44 fe ff
	ff		 mov	 eax, DWORD PTR _i$4[ebp]
  000ba	d1 e0		 shl	 eax, 1
  000bc	8b f4		 mov	 esi, esp
  000be	8b 8c 85 60 fe
	ff ff		 mov	 ecx, DWORD PTR _array$[ebp+eax*4+4]
  000c5	51		 push	 ecx
  000c6	ff 15 00 00 00
	00		 call	 DWORD PTR __imp__atoi
  000cc	83 c4 04	 add	 esp, 4
  000cf	3b f4		 cmp	 esi, esp
  000d1	e8 00 00 00 00	 call	 __RTC_CheckEsp
  000d6	89 85 2c fe ff
	ff		 mov	 DWORD PTR _image$2[ebp], eax

; 12026: 		a1 = p_party[index];

  000dc	8b 85 38 fe ff
	ff		 mov	 eax, DWORD PTR _index$3[ebp]
  000e2	8b 0c 85 00 00
	00 00		 mov	 ecx, DWORD PTR ?p_party@@3PAPAUaction@@A[eax*4]
  000e9	89 4d f4	 mov	 DWORD PTR _a1$[ebp], ecx

; 12027: 		set_光环(image, a1);

  000ec	8b 45 f4	 mov	 eax, DWORD PTR _a1$[ebp]
  000ef	50		 push	 eax
  000f0	8b 8d 2c fe ff
	ff		 mov	 ecx, DWORD PTR _image$2[ebp]
  000f6	51		 push	 ecx
  000f7	e8 00 00 00 00	 call	 ?set_光环@@YAXHPAUaction@@@Z ; set_光环
  000fc	83 c4 08	 add	 esp, 8

; 12028: 	}

  000ff	e9 66 ff ff ff	 jmp	 $LN2@set_party_
$LN3@set_party_:

; 12029: 	*gStr光环 = 0;

  00104	b8 01 00 00 00	 mov	 eax, 1
  00109	6b c8 00	 imul	 ecx, eax, 0
  0010c	89 8d 60 fd ff
	ff		 mov	 DWORD PTR $T1[ebp], ecx
  00112	83 bd 60 fd ff
	ff 64		 cmp	 DWORD PTR $T1[ebp], 100	; 00000064H
  00119	73 02		 jae	 SHORT $LN7@set_party_
  0011b	eb 05		 jmp	 SHORT $LN8@set_party_
$LN7@set_party_:
  0011d	e8 00 00 00 00	 call	 ___report_rangecheckfailure
$LN8@set_party_:
  00122	8b 95 60 fd ff
	ff		 mov	 edx, DWORD PTR $T1[ebp]
  00128	c6 82 00 00 00
	00 00		 mov	 BYTE PTR ?gStr光环@@3PADA[edx], 0
$LN6@set_party_:

; 12030: }

  0012f	52		 push	 edx
  00130	8b cd		 mov	 ecx, ebp
  00132	50		 push	 eax
  00133	8d 15 00 00 00
	00		 lea	 edx, DWORD PTR $LN11@set_party_
  00139	e8 00 00 00 00	 call	 @_RTC_CheckStackVars@8
  0013e	58		 pop	 eax
  0013f	5a		 pop	 edx
  00140	5f		 pop	 edi
  00141	5e		 pop	 esi
  00142	5b		 pop	 ebx
  00143	8b 4d fc	 mov	 ecx, DWORD PTR __$ArrayPad$[ebp]
  00146	33 cd		 xor	 ecx, ebp
  00148	e8 00 00 00 00	 call	 @__security_check_cookie@4
  0014d	81 c4 a4 02 00
	00		 add	 esp, 676		; 000002a4H
  00153	3b ec		 cmp	 ebp, esp
  00155	e8 00 00 00 00	 call	 __RTC_CheckEsp
  0015a	8b e5		 mov	 esp, ebp
  0015c	5d		 pop	 ebp
  0015d	c3		 ret	 0
  0015e	66 90		 npad	 2
$LN11@set_party_:
  00160	01 00 00 00	 DD	 1
  00164	00 00 00 00	 DD	 $LN10@set_party_
$LN10@set_party_:
  00168	5c fe ff ff	 DD	 -420			; fffffe5cH
  0016c	90 01 00 00	 DD	 400			; 00000190H
  00170	00 00 00 00	 DD	 $LN9@set_party_
$LN9@set_party_:
  00174	61		 DB	 97			; 00000061H
  00175	72		 DB	 114			; 00000072H
  00176	72		 DB	 114			; 00000072H
  00177	61		 DB	 97			; 00000061H
  00178	79		 DB	 121			; 00000079H
  00179	00		 DB	 0
?set_party_光环@@YAXXZ ENDP				; set_party_光环
_TEXT	ENDS
; Function compile flags: /Odtp /RTCsu /ZI
; File c:\users\administrator\desktop\????? ??\????? ??\client source code\oft\oft.cpp
;	COMDAT ?get_bc_asc_ridepet@@YAXPAUaction@@@Z
_TEXT	SEGMENT
_a2$ = -20						; size = 4
_d0$ = -5						; size = 1
_a1$ = 8						; size = 4
?get_bc_asc_ridepet@@YAXPAUaction@@@Z PROC		; get_bc_asc_ridepet, COMDAT

; 11985: {

  00000	55		 push	 ebp
  00001	8b ec		 mov	 ebp, esp
  00003	81 ec d8 00 00
	00		 sub	 esp, 216		; 000000d8H
  00009	53		 push	 ebx
  0000a	56		 push	 esi
  0000b	57		 push	 edi
  0000c	8d bd 28 ff ff
	ff		 lea	 edi, DWORD PTR [ebp-216]
  00012	b9 36 00 00 00	 mov	 ecx, 54			; 00000036H
  00017	b8 cc cc cc cc	 mov	 eax, -858993460		; ccccccccH
  0001c	f3 ab		 rep stosd

; 11986: 	char d0;
; 11987: 	char *a2;
; 11988: 
; 11989: 	a2 = ATR_PETNAME(a1);

  0001e	8b 45 08	 mov	 eax, DWORD PTR _a1$[ebp]
  00021	05 98 01 00 00	 add	 eax, 408		; 00000198H
  00026	89 45 ec	 mov	 DWORD PTR _a2$[ebp], eax
$LN2@get_bc_asc:

; 11990: 	while (1)

  00029	b8 01 00 00 00	 mov	 eax, 1
  0002e	85 c0		 test	 eax, eax
  00030	0f 84 a9 00 00
	00		 je	 $LN3@get_bc_asc

; 11991: 	{
; 11992: 		d0 = BattleStatus[bc_pointer++];		//????

  00036	a1 00 00 00 00	 mov	 eax, DWORD PTR ?bc_pointer@@3HA
  0003b	8a 88 00 00 00
	00		 mov	 cl, BYTE PTR ?BattleStatus@@3PADA[eax]
  00041	88 4d fb	 mov	 BYTE PTR _d0$[ebp], cl
  00044	8b 15 00 00 00
	00		 mov	 edx, DWORD PTR ?bc_pointer@@3HA
  0004a	83 c2 01	 add	 edx, 1
  0004d	89 15 00 00 00
	00		 mov	 DWORD PTR ?bc_pointer@@3HA, edx

; 11993: 		if (d0 == NULL)

  00053	0f be 45 fb	 movsx	 eax, BYTE PTR _d0$[ebp]
  00057	85 c0		 test	 eax, eax
  00059	75 0f		 jne	 SHORT $LN4@get_bc_asc

; 11994: 		{	//???
; 11995: 			bc_pointer--;

  0005b	a1 00 00 00 00	 mov	 eax, DWORD PTR ?bc_pointer@@3HA
  00060	83 e8 01	 sub	 eax, 1
  00063	a3 00 00 00 00	 mov	 DWORD PTR ?bc_pointer@@3HA, eax

; 11996: 			break;

  00068	eb 75		 jmp	 SHORT $LN3@get_bc_asc
$LN4@get_bc_asc:

; 11997: 		}
; 11998: 		//????
; 11999: 		if (d0 == '|')

  0006a	0f be 45 fb	 movsx	 eax, BYTE PTR _d0$[ebp]
  0006e	83 f8 7c	 cmp	 eax, 124		; 0000007cH
  00071	75 02		 jne	 SHORT $LN5@get_bc_asc

; 12000: 			break;

  00073	eb 6a		 jmp	 SHORT $LN3@get_bc_asc
$LN5@get_bc_asc:

; 12001: 		if (IsDBCSLeadByte(d0))

  00075	8b f4		 mov	 esi, esp
  00077	0f b6 45 fb	 movzx	 eax, BYTE PTR _d0$[ebp]
  0007b	50		 push	 eax
  0007c	ff 15 00 00 00
	00		 call	 DWORD PTR __imp__IsDBCSLeadByte@4
  00082	3b f4		 cmp	 esi, esp
  00084	e8 00 00 00 00	 call	 __RTC_CheckEsp
  00089	85 c0		 test	 eax, eax
  0008b	74 3c		 je	 SHORT $LN6@get_bc_asc

; 12002: 		{
; 12003: 			*a2++ = d0;

  0008d	8b 45 ec	 mov	 eax, DWORD PTR _a2$[ebp]
  00090	8a 4d fb	 mov	 cl, BYTE PTR _d0$[ebp]
  00093	88 08		 mov	 BYTE PTR [eax], cl
  00095	8b 55 ec	 mov	 edx, DWORD PTR _a2$[ebp]
  00098	83 c2 01	 add	 edx, 1
  0009b	89 55 ec	 mov	 DWORD PTR _a2$[ebp], edx

; 12004: 			*a2++ = BattleStatus[bc_pointer++];

  0009e	8b 45 ec	 mov	 eax, DWORD PTR _a2$[ebp]
  000a1	8b 0d 00 00 00
	00		 mov	 ecx, DWORD PTR ?bc_pointer@@3HA
  000a7	8a 91 00 00 00
	00		 mov	 dl, BYTE PTR ?BattleStatus@@3PADA[ecx]
  000ad	88 10		 mov	 BYTE PTR [eax], dl
  000af	8b 45 ec	 mov	 eax, DWORD PTR _a2$[ebp]
  000b2	83 c0 01	 add	 eax, 1
  000b5	89 45 ec	 mov	 DWORD PTR _a2$[ebp], eax
  000b8	8b 0d 00 00 00
	00		 mov	 ecx, DWORD PTR ?bc_pointer@@3HA
  000be	83 c1 01	 add	 ecx, 1
  000c1	89 0d 00 00 00
	00		 mov	 DWORD PTR ?bc_pointer@@3HA, ecx

; 12005: 		}
; 12006: 		else

  000c7	eb 11		 jmp	 SHORT $LN7@get_bc_asc
$LN6@get_bc_asc:

; 12007: 			*a2++ = d0;

  000c9	8b 45 ec	 mov	 eax, DWORD PTR _a2$[ebp]
  000cc	8a 4d fb	 mov	 cl, BYTE PTR _d0$[ebp]
  000cf	88 08		 mov	 BYTE PTR [eax], cl
  000d1	8b 55 ec	 mov	 edx, DWORD PTR _a2$[ebp]
  000d4	83 c2 01	 add	 edx, 1
  000d7	89 55 ec	 mov	 DWORD PTR _a2$[ebp], edx
$LN7@get_bc_asc:

; 12008: 	}

  000da	e9 4a ff ff ff	 jmp	 $LN2@get_bc_asc
$LN3@get_bc_asc:

; 12009: 	//????
; 12010: 	*a2 = 0;

  000df	8b 45 ec	 mov	 eax, DWORD PTR _a2$[ebp]
  000e2	c6 00 00	 mov	 BYTE PTR [eax], 0

; 12011: 	makeStringFromEscaped(ATR_PETNAME(a1));

  000e5	8b 45 08	 mov	 eax, DWORD PTR _a1$[ebp]
  000e8	05 98 01 00 00	 add	 eax, 408		; 00000198H
  000ed	50		 push	 eax
  000ee	e8 00 00 00 00	 call	 ?makeStringFromEscaped@@YAPADPAD@Z ; makeStringFromEscaped
  000f3	83 c4 04	 add	 esp, 4

; 12012: }

  000f6	5f		 pop	 edi
  000f7	5e		 pop	 esi
  000f8	5b		 pop	 ebx
  000f9	81 c4 d8 00 00
	00		 add	 esp, 216		; 000000d8H
  000ff	3b ec		 cmp	 ebp, esp
  00101	e8 00 00 00 00	 call	 __RTC_CheckEsp
  00106	8b e5		 mov	 esp, ebp
  00108	5d		 pop	 ebp
  00109	c3		 ret	 0
?get_bc_asc_ridepet@@YAXPAUaction@@@Z ENDP		; get_bc_asc_ridepet
_TEXT	ENDS
; Function compile flags: /Odtp /RTCsu /ZI
; File c:\users\administrator\desktop\????? ??\????? ??\client source code\oft\oft.cpp
;	COMDAT ?get_bc_asc@@YAXPAUaction@@H@Z
_TEXT	SEGMENT
_a2$ = -20						; size = 4
_d0$ = -5						; size = 1
_a1$ = 8						; size = 4
_flg$ = 12						; size = 4
?get_bc_asc@@YAXPAUaction@@H@Z PROC			; get_bc_asc, COMDAT

; 11947: {

  00000	55		 push	 ebp
  00001	8b ec		 mov	 ebp, esp
  00003	81 ec d8 00 00
	00		 sub	 esp, 216		; 000000d8H
  00009	53		 push	 ebx
  0000a	56		 push	 esi
  0000b	57		 push	 edi
  0000c	8d bd 28 ff ff
	ff		 lea	 edi, DWORD PTR [ebp-216]
  00012	b9 36 00 00 00	 mov	 ecx, 54			; 00000036H
  00017	b8 cc cc cc cc	 mov	 eax, -858993460		; ccccccccH
  0001c	f3 ab		 rep stosd

; 11948: 	char d0;
; 11949: 	char *a2;
; 11950: 
; 11951: 	if (flg == 0)

  0001e	83 7d 0c 00	 cmp	 DWORD PTR _flg$[ebp], 0
  00022	75 0b		 jne	 SHORT $LN4@get_bc_asc

; 11952: 		a2 = ATR_HANDLE(a1);

  00024	8b 45 08	 mov	 eax, DWORD PTR _a1$[ebp]
  00027	83 c0 38	 add	 eax, 56			; 00000038H
  0002a	89 45 ec	 mov	 DWORD PTR _a2$[ebp], eax

; 11953: 	else

  0002d	eb 09		 jmp	 SHORT $LN2@get_bc_asc
$LN4@get_bc_asc:

; 11954: 		a2 = ATR_TITLE(a1);

  0002f	8b 45 08	 mov	 eax, DWORD PTR _a1$[ebp]
  00032	83 c0 55	 add	 eax, 85			; 00000055H
  00035	89 45 ec	 mov	 DWORD PTR _a2$[ebp], eax
$LN2@get_bc_asc:

; 11955: 	while (1)

  00038	b8 01 00 00 00	 mov	 eax, 1
  0003d	85 c0		 test	 eax, eax
  0003f	0f 84 a9 00 00
	00		 je	 $LN3@get_bc_asc

; 11956: 	{
; 11957: 		d0 = BattleStatus[bc_pointer++];		//????

  00045	a1 00 00 00 00	 mov	 eax, DWORD PTR ?bc_pointer@@3HA
  0004a	8a 88 00 00 00
	00		 mov	 cl, BYTE PTR ?BattleStatus@@3PADA[eax]
  00050	88 4d fb	 mov	 BYTE PTR _d0$[ebp], cl
  00053	8b 15 00 00 00
	00		 mov	 edx, DWORD PTR ?bc_pointer@@3HA
  00059	83 c2 01	 add	 edx, 1
  0005c	89 15 00 00 00
	00		 mov	 DWORD PTR ?bc_pointer@@3HA, edx

; 11958: 		if (d0 == NULL)

  00062	0f be 45 fb	 movsx	 eax, BYTE PTR _d0$[ebp]
  00066	85 c0		 test	 eax, eax
  00068	75 0f		 jne	 SHORT $LN6@get_bc_asc

; 11959: 		{	//???
; 11960: 			bc_pointer--;

  0006a	a1 00 00 00 00	 mov	 eax, DWORD PTR ?bc_pointer@@3HA
  0006f	83 e8 01	 sub	 eax, 1
  00072	a3 00 00 00 00	 mov	 DWORD PTR ?bc_pointer@@3HA, eax

; 11961: 			break;

  00077	eb 75		 jmp	 SHORT $LN3@get_bc_asc
$LN6@get_bc_asc:

; 11962: 		}
; 11963: 		//????
; 11964: 		if (d0 == '|')

  00079	0f be 45 fb	 movsx	 eax, BYTE PTR _d0$[ebp]
  0007d	83 f8 7c	 cmp	 eax, 124		; 0000007cH
  00080	75 02		 jne	 SHORT $LN7@get_bc_asc

; 11965: 			break;

  00082	eb 6a		 jmp	 SHORT $LN3@get_bc_asc
$LN7@get_bc_asc:

; 11966: 		if (IsDBCSLeadByte(d0))

  00084	8b f4		 mov	 esi, esp
  00086	0f b6 45 fb	 movzx	 eax, BYTE PTR _d0$[ebp]
  0008a	50		 push	 eax
  0008b	ff 15 00 00 00
	00		 call	 DWORD PTR __imp__IsDBCSLeadByte@4
  00091	3b f4		 cmp	 esi, esp
  00093	e8 00 00 00 00	 call	 __RTC_CheckEsp
  00098	85 c0		 test	 eax, eax
  0009a	74 3c		 je	 SHORT $LN8@get_bc_asc

; 11967: 		{
; 11968: 			*a2++ = d0;

  0009c	8b 45 ec	 mov	 eax, DWORD PTR _a2$[ebp]
  0009f	8a 4d fb	 mov	 cl, BYTE PTR _d0$[ebp]
  000a2	88 08		 mov	 BYTE PTR [eax], cl
  000a4	8b 55 ec	 mov	 edx, DWORD PTR _a2$[ebp]
  000a7	83 c2 01	 add	 edx, 1
  000aa	89 55 ec	 mov	 DWORD PTR _a2$[ebp], edx

; 11969: 			*a2++ = BattleStatus[bc_pointer++];

  000ad	8b 45 ec	 mov	 eax, DWORD PTR _a2$[ebp]
  000b0	8b 0d 00 00 00
	00		 mov	 ecx, DWORD PTR ?bc_pointer@@3HA
  000b6	8a 91 00 00 00
	00		 mov	 dl, BYTE PTR ?BattleStatus@@3PADA[ecx]
  000bc	88 10		 mov	 BYTE PTR [eax], dl
  000be	8b 45 ec	 mov	 eax, DWORD PTR _a2$[ebp]
  000c1	83 c0 01	 add	 eax, 1
  000c4	89 45 ec	 mov	 DWORD PTR _a2$[ebp], eax
  000c7	8b 0d 00 00 00
	00		 mov	 ecx, DWORD PTR ?bc_pointer@@3HA
  000cd	83 c1 01	 add	 ecx, 1
  000d0	89 0d 00 00 00
	00		 mov	 DWORD PTR ?bc_pointer@@3HA, ecx

; 11970: 		}
; 11971: 		else

  000d6	eb 11		 jmp	 SHORT $LN9@get_bc_asc
$LN8@get_bc_asc:

; 11972: 			*a2++ = d0;

  000d8	8b 45 ec	 mov	 eax, DWORD PTR _a2$[ebp]
  000db	8a 4d fb	 mov	 cl, BYTE PTR _d0$[ebp]
  000de	88 08		 mov	 BYTE PTR [eax], cl
  000e0	8b 55 ec	 mov	 edx, DWORD PTR _a2$[ebp]
  000e3	83 c2 01	 add	 edx, 1
  000e6	89 55 ec	 mov	 DWORD PTR _a2$[ebp], edx
$LN9@get_bc_asc:

; 11973: 	}

  000e9	e9 4a ff ff ff	 jmp	 $LN2@get_bc_asc
$LN3@get_bc_asc:

; 11974: 	//????
; 11975: 	*a2 = 0;

  000ee	8b 45 ec	 mov	 eax, DWORD PTR _a2$[ebp]
  000f1	c6 00 00	 mov	 BYTE PTR [eax], 0

; 11976: 	if (flg == 0)

  000f4	83 7d 0c 00	 cmp	 DWORD PTR _flg$[ebp], 0
  000f8	75 11		 jne	 SHORT $LN10@get_bc_asc

; 11977: 		makeStringFromEscaped(ATR_HANDLE(a1));

  000fa	8b 45 08	 mov	 eax, DWORD PTR _a1$[ebp]
  000fd	83 c0 38	 add	 eax, 56			; 00000038H
  00100	50		 push	 eax
  00101	e8 00 00 00 00	 call	 ?makeStringFromEscaped@@YAPADPAD@Z ; makeStringFromEscaped
  00106	83 c4 04	 add	 esp, 4

; 11978: 	else

  00109	eb 0f		 jmp	 SHORT $LN1@get_bc_asc
$LN10@get_bc_asc:

; 11979: 		makeStringFromEscaped(ATR_TITLE(a1));

  0010b	8b 45 08	 mov	 eax, DWORD PTR _a1$[ebp]
  0010e	83 c0 55	 add	 eax, 85			; 00000055H
  00111	50		 push	 eax
  00112	e8 00 00 00 00	 call	 ?makeStringFromEscaped@@YAPADPAD@Z ; makeStringFromEscaped
  00117	83 c4 04	 add	 esp, 4
$LN1@get_bc_asc:

; 11980: }

  0011a	5f		 pop	 edi
  0011b	5e		 pop	 esi
  0011c	5b		 pop	 ebx
  0011d	81 c4 d8 00 00
	00		 add	 esp, 216		; 000000d8H
  00123	3b ec		 cmp	 ebp, esp
  00125	e8 00 00 00 00	 call	 __RTC_CheckEsp
  0012a	8b e5		 mov	 esp, ebp
  0012c	5d		 pop	 ebp
  0012d	c3		 ret	 0
?get_bc_asc@@YAXPAUaction@@H@Z ENDP			; get_bc_asc
_TEXT	ENDS
; Function compile flags: /Odtp /RTCsu /ZI
; File c:\users\administrator\desktop\????? ??\????? ??\client source code\oft\oft.cpp
;	COMDAT ?get_bc_num@@YAHXZ
_TEXT	SEGMENT
_d1$ = -20						; size = 4
_d0$ = -8						; size = 4
?get_bc_num@@YAHXZ PROC					; get_bc_num, COMDAT

; 11902: {

  00000	55		 push	 ebp
  00001	8b ec		 mov	 ebp, esp
  00003	81 ec d8 00 00
	00		 sub	 esp, 216		; 000000d8H
  00009	53		 push	 ebx
  0000a	56		 push	 esi
  0000b	57		 push	 edi
  0000c	8d bd 28 ff ff
	ff		 lea	 edi, DWORD PTR [ebp-216]
  00012	b9 36 00 00 00	 mov	 ecx, 54			; 00000036H
  00017	b8 cc cc cc cc	 mov	 eax, -858993460		; ccccccccH
  0001c	f3 ab		 rep stosd
$LN2@get_bc_num:

; 11903: 	int d0, d1;
; 11904: 
; 11905: 	while (1)

  0001e	b8 01 00 00 00	 mov	 eax, 1
  00023	85 c0		 test	 eax, eax
  00025	74 57		 je	 SHORT $LN3@get_bc_num

; 11906: 	{
; 11907: 		d0 = BattleStatus[bc_pointer++];		//????

  00027	a1 00 00 00 00	 mov	 eax, DWORD PTR ?bc_pointer@@3HA
  0002c	0f be 88 00 00
	00 00		 movsx	 ecx, BYTE PTR ?BattleStatus@@3PADA[eax]
  00033	89 4d f8	 mov	 DWORD PTR _d0$[ebp], ecx
  00036	8b 15 00 00 00
	00		 mov	 edx, DWORD PTR ?bc_pointer@@3HA
  0003c	83 c2 01	 add	 edx, 1
  0003f	89 15 00 00 00
	00		 mov	 DWORD PTR ?bc_pointer@@3HA, edx

; 11908: 		if (d0 == NULL)

  00045	83 7d f8 00	 cmp	 DWORD PTR _d0$[ebp], 0
  00049	75 15		 jne	 SHORT $LN6@get_bc_num

; 11909: 		{	//???
; 11910: 			bc_pointer--;

  0004b	a1 00 00 00 00	 mov	 eax, DWORD PTR ?bc_pointer@@3HA
  00050	83 e8 01	 sub	 eax, 1
  00053	a3 00 00 00 00	 mov	 DWORD PTR ?bc_pointer@@3HA, eax

; 11911: 			return -1;

  00058	83 c8 ff	 or	 eax, -1
  0005b	e9 c1 00 00 00	 jmp	 $LN1@get_bc_num
$LN6@get_bc_num:

; 11912: 		}
; 11913: 		if (d0 >= '0' && d0 <= '9')		//???

  00060	83 7d f8 30	 cmp	 DWORD PTR _d0$[ebp], 48	; 00000030H
  00064	7c 08		 jl	 SHORT $LN7@get_bc_num
  00066	83 7d f8 39	 cmp	 DWORD PTR _d0$[ebp], 57	; 00000039H
  0006a	7f 02		 jg	 SHORT $LN7@get_bc_num

; 11914: 			break;						//??????

  0006c	eb 10		 jmp	 SHORT $LN3@get_bc_num
$LN7@get_bc_num:

; 11915: 		if (d0 >= 'A' && d0 <= 'F')		//?????

  0006e	83 7d f8 41	 cmp	 DWORD PTR _d0$[ebp], 65	; 00000041H
  00072	7c 08		 jl	 SHORT $LN8@get_bc_num
  00074	83 7d f8 46	 cmp	 DWORD PTR _d0$[ebp], 70	; 00000046H
  00078	7f 02		 jg	 SHORT $LN8@get_bc_num

; 11916: 			break;						//??????

  0007a	eb 02		 jmp	 SHORT $LN3@get_bc_num
$LN8@get_bc_num:

; 11917: 	}

  0007c	eb a0		 jmp	 SHORT $LN2@get_bc_num
$LN3@get_bc_num:

; 11918: 	if (d0 >= 'A')		//?????

  0007e	83 7d f8 41	 cmp	 DWORD PTR _d0$[ebp], 65	; 00000041H
  00082	7c 0b		 jl	 SHORT $LN9@get_bc_num

; 11919: 		d1 = d0 - 'A' + 10;

  00084	8b 45 f8	 mov	 eax, DWORD PTR _d0$[ebp]
  00087	83 e8 37	 sub	 eax, 55			; 00000037H
  0008a	89 45 ec	 mov	 DWORD PTR _d1$[ebp], eax

; 11920: 	else

  0008d	eb 09		 jmp	 SHORT $LN4@get_bc_num
$LN9@get_bc_num:

; 11921: 		d1 = d0 - '0';

  0008f	8b 45 f8	 mov	 eax, DWORD PTR _d0$[ebp]
  00092	83 e8 30	 sub	 eax, 48			; 00000030H
  00095	89 45 ec	 mov	 DWORD PTR _d1$[ebp], eax
$LN4@get_bc_num:

; 11922: 
; 11923: 	while (1)

  00098	b8 01 00 00 00	 mov	 eax, 1
  0009d	85 c0		 test	 eax, eax
  0009f	74 7d		 je	 SHORT $LN5@get_bc_num

; 11924: 	{
; 11925: 		d0 = BattleStatus[bc_pointer++];		//???????

  000a1	a1 00 00 00 00	 mov	 eax, DWORD PTR ?bc_pointer@@3HA
  000a6	0f be 88 00 00
	00 00		 movsx	 ecx, BYTE PTR ?BattleStatus@@3PADA[eax]
  000ad	89 4d f8	 mov	 DWORD PTR _d0$[ebp], ecx
  000b0	8b 15 00 00 00
	00		 mov	 edx, DWORD PTR ?bc_pointer@@3HA
  000b6	83 c2 01	 add	 edx, 1
  000b9	89 15 00 00 00
	00		 mov	 DWORD PTR ?bc_pointer@@3HA, edx

; 11926: 		if (d0 == NULL)

  000bf	83 7d f8 00	 cmp	 DWORD PTR _d0$[ebp], 0
  000c3	75 0f		 jne	 SHORT $LN11@get_bc_num

; 11927: 		{	//???
; 11928: 			bc_pointer--;

  000c5	a1 00 00 00 00	 mov	 eax, DWORD PTR ?bc_pointer@@3HA
  000ca	83 e8 01	 sub	 eax, 1
  000cd	a3 00 00 00 00	 mov	 DWORD PTR ?bc_pointer@@3HA, eax

; 11929: 			break;

  000d2	eb 4a		 jmp	 SHORT $LN5@get_bc_num
$LN11@get_bc_num:

; 11930: 		}
; 11931: 		if (d0 < '0' || d0 > '9')

  000d4	83 7d f8 30	 cmp	 DWORD PTR _d0$[ebp], 48	; 00000030H
  000d8	7c 06		 jl	 SHORT $LN13@get_bc_num
  000da	83 7d f8 39	 cmp	 DWORD PTR _d0$[ebp], 57	; 00000039H
  000de	7e 0e		 jle	 SHORT $LN12@get_bc_num
$LN13@get_bc_num:

; 11932: 		{	//??????
; 11933: 			if (d0 < 'A' || d0 > 'F')		//????????

  000e0	83 7d f8 41	 cmp	 DWORD PTR _d0$[ebp], 65	; 00000041H
  000e4	7c 06		 jl	 SHORT $LN15@get_bc_num
  000e6	83 7d f8 46	 cmp	 DWORD PTR _d0$[ebp], 70	; 00000046H
  000ea	7e 02		 jle	 SHORT $LN12@get_bc_num
$LN15@get_bc_num:

; 11934: 				break;						//?

  000ec	eb 30		 jmp	 SHORT $LN5@get_bc_num
$LN12@get_bc_num:

; 11935: 		}
; 11936: 		d1 = d1 << 4;		//???????

  000ee	8b 45 ec	 mov	 eax, DWORD PTR _d1$[ebp]
  000f1	c1 e0 04	 shl	 eax, 4
  000f4	89 45 ec	 mov	 DWORD PTR _d1$[ebp], eax

; 11937: 		if (d0 >= 'A')		//?????

  000f7	83 7d f8 41	 cmp	 DWORD PTR _d0$[ebp], 65	; 00000041H
  000fb	7c 0f		 jl	 SHORT $LN16@get_bc_num

; 11938: 			d1 += d0 - 'A' + 10;

  000fd	8b 45 f8	 mov	 eax, DWORD PTR _d0$[ebp]
  00100	8b 4d ec	 mov	 ecx, DWORD PTR _d1$[ebp]
  00103	8d 54 01 c9	 lea	 edx, DWORD PTR [ecx+eax-55]
  00107	89 55 ec	 mov	 DWORD PTR _d1$[ebp], edx

; 11939: 		else

  0010a	eb 0d		 jmp	 SHORT $LN17@get_bc_num
$LN16@get_bc_num:

; 11940: 			d1 += d0 - '0';

  0010c	8b 45 f8	 mov	 eax, DWORD PTR _d0$[ebp]
  0010f	8b 4d ec	 mov	 ecx, DWORD PTR _d1$[ebp]
  00112	8d 54 01 d0	 lea	 edx, DWORD PTR [ecx+eax-48]
  00116	89 55 ec	 mov	 DWORD PTR _d1$[ebp], edx
$LN17@get_bc_num:

; 11941: 	}

  00119	e9 7a ff ff ff	 jmp	 $LN4@get_bc_num
$LN5@get_bc_num:

; 11942: 	return d1;

  0011e	8b 45 ec	 mov	 eax, DWORD PTR _d1$[ebp]
$LN1@get_bc_num:

; 11943: }

  00121	5f		 pop	 edi
  00122	5e		 pop	 esi
  00123	5b		 pop	 ebx
  00124	8b e5		 mov	 esp, ebp
  00126	5d		 pop	 ebp
  00127	c3		 ret	 0
?get_bc_num@@YAHXZ ENDP					; get_bc_num
_TEXT	ENDS
; Function compile flags: /Odtp /RTCsu /ZI
; File c:\users\administrator\desktop\????? ??\????? ??\client source code\oft\oft.cpp
;	COMDAT ?master@@YAXPAUaction@@@Z
_TEXT	SEGMENT
tv1541 = -472						; size = 4
tv1495 = -472						; size = 4
tv1359 = -472						; size = 4
tv1349 = -472						; size = 4
tv1245 = -472						; size = 4
tv1049 = -472						; size = 4
tv997 = -472						; size = 4
tv831 = -472						; size = 4
tv830 = -472						; size = 4
tv781 = -472						; size = 4
tv574 = -472						; size = 4
tv76 = -472						; size = 4
$T1 = -461						; size = 1
_x$2 = -260						; size = 4
_k$3 = -248						; size = 4
_param$4 = -236						; size = 4
_effect_anim$5 = -224					; size = 4
_effect$6 = -212					; size = 4
_who$7 = -200						; size = 4
_target$8 = -188					; size = 4
_petfall_flg$ = -176					; size = 4
_castflg$ = -164					; size = 4
_sav_command_point$ = -152				; size = 4
_command_no$ = -140					; size = 4
_jjj$ = -128						; size = 4
_z$ = -116						; size = 4
_d7$ = -104						; size = 4
_d6$ = -92						; size = 4
_d3$ = -80						; size = 4
_d2$ = -68						; size = 4
_d1$ = -56						; size = 4
_d0$ = -44						; size = 4
_a3$ = -32						; size = 4
_a2$ = -20						; size = 4
_a1$ = -8						; size = 4
_a0$ = 8						; size = 4
?master@@YAXPAUaction@@@Z PROC				; master, COMDAT

; 5068 : {

  00000	55		 push	 ebp
  00001	8b ec		 mov	 ebp, esp
  00003	81 ec d8 01 00
	00		 sub	 esp, 472		; 000001d8H
  00009	53		 push	 ebx
  0000a	56		 push	 esi
  0000b	57		 push	 edi
  0000c	8d bd 28 fe ff
	ff		 lea	 edi, DWORD PTR [ebp-472]
  00012	b9 76 00 00 00	 mov	 ecx, 118		; 00000076H
  00017	b8 cc cc cc cc	 mov	 eax, -858993460		; ccccccccH
  0001c	f3 ab		 rep stosd
  0001e	c6 85 33 fe ff
	ff 00		 mov	 BYTE PTR $T1[ebp], 0

; 5069 : 	ACTION *a1, *a2, *a3;
; 5070 : 	int d0, d1, d2, d3, d6, d7;
; 5071 : 	int z = 0;

  00025	c7 45 8c 00 00
	00 00		 mov	 DWORD PTR _z$[ebp], 0

; 5072 : 	int jjj = 0;

  0002c	c7 45 80 00 00
	00 00		 mov	 DWORD PTR _jjj$[ebp], 0

; 5073 : 	int command_no;
; 5074 : 	int sav_command_point, castflg = 0;

  00033	c7 85 5c ff ff
	ff 00 00 00 00	 mov	 DWORD PTR _castflg$[ebp], 0

; 5075 : 	int petfall_flg = 0;

  0003d	c7 85 50 ff ff
	ff 00 00 00 00	 mov	 DWORD PTR _petfall_flg$[ebp], 0

; 5076 : 
; 5077 : 	static int 初始化 = 0;
; 5078 : 
; 5079 : 	//属性表示
; 5080 : 	disp_attrib(a0);

  00047	8b 45 08	 mov	 eax, DWORD PTR _a0$[ebp]
  0004a	50		 push	 eax
  0004b	e8 00 00 00 00	 call	 ?disp_attrib@@YAXPAUaction@@@Z ; disp_attrib
  00050	83 c4 04	 add	 esp, 4

; 5081 : 	if (ATR_VCT_NO(a0) == 0)	// 命令确认

  00053	8b 45 08	 mov	 eax, DWORD PTR _a0$[ebp]
  00056	8b 48 0c	 mov	 ecx, DWORD PTR [eax+12]
  00059	0f b6 11	 movzx	 edx, BYTE PTR [ecx]
  0005c	85 d2		 test	 edx, edx
  0005e	75 1d		 jne	 SHORT $LN66@master

; 5082 : 	{
; 5083 : 		if (BattleCmd[0] == NULL)		//战斗命令确认

  00060	b8 01 00 00 00	 mov	 eax, 1
  00065	6b c8 00	 imul	 ecx, eax, 0
  00068	0f be 91 00 00
	00 00		 movsx	 edx, BYTE PTR ?BattleCmd@@3PADA[ecx]
  0006f	85 d2		 test	 edx, edx
  00071	75 0a		 jne	 SHORT $LN66@master

; 5084 : 			goto master_500;

  00073	e9 98 2d 00 00	 jmp	 $master_500$328
  00078	e9 93 2d 00 00	 jmp	 $master_500$328
$LN66@master:

; 5085 : 	}
; 5086 : 	switch (ATR_VCT_NO(a0))

  0007d	8b 45 08	 mov	 eax, DWORD PTR _a0$[ebp]
  00080	8b 48 0c	 mov	 ecx, DWORD PTR [eax+12]
  00083	0f b6 11	 movzx	 edx, BYTE PTR [ecx]
  00086	89 95 28 fe ff
	ff		 mov	 DWORD PTR tv76[ebp], edx
  0008c	83 bd 28 fe ff
	ff 04		 cmp	 DWORD PTR tv76[ebp], 4
  00093	0f 87 77 2d 00
	00		 ja	 $master_500$328
  00099	8b 85 28 fe ff
	ff		 mov	 eax, DWORD PTR tv76[ebp]
  0009f	ff 24 85 00 00
	00 00		 jmp	 DWORD PTR $LN325@master[eax*4]
$LN69@master:

; 5087 : 	{
; 5088 : 	case 0:
; 5089 : 		sav_command_point = command_point;

  000a6	a1 00 00 00 00	 mov	 eax, DWORD PTR ?command_point@@3HA
  000ab	89 85 68 ff ff
	ff		 mov	 DWORD PTR _sav_command_point$[ebp], eax

; 5090 : 		command_no = get_command();

  000b1	e8 00 00 00 00	 call	 ?get_command@@YADXZ	; get_command
  000b6	0f be c0	 movsx	 eax, al
  000b9	89 85 74 ff ff
	ff		 mov	 DWORD PTR _command_no$[ebp], eax

; 5091 : 		if (command_no == -1){

  000bf	83 bd 74 ff ff
	ff ff		 cmp	 DWORD PTR _command_no$[ebp], -1
  000c6	75 18		 jne	 SHORT $LN70@master

; 5092 : 			ATR_VCT_NO(a0) = 4;

  000c8	8b 45 08	 mov	 eax, DWORD PTR _a0$[ebp]
  000cb	8b 48 0c	 mov	 ecx, DWORD PTR [eax+12]
  000ce	c6 01 04	 mov	 BYTE PTR [ecx], 4

; 5093 : 			command_point = 0;

  000d1	c7 05 00 00 00
	00 00 00 00 00	 mov	 DWORD PTR ?command_point@@3HA, 0

; 5094 : 			break;

  000db	e9 30 2d 00 00	 jmp	 $master_500$328
$LN70@master:

; 5095 : 		}
; 5096 : 		if (command_no == ATT_KANJI){

  000e0	83 bd 74 ff ff
	ff 4b		 cmp	 DWORD PTR _command_no$[ebp], 75 ; 0000004bH
  000e7	0f 85 5a 01 00
	00		 jne	 $LN71@master

; 5097 : 			if (p_kanji != NULL){

  000ed	83 3d 00 00 00
	00 00		 cmp	 DWORD PTR ?p_kanji@@3PAUaction@@A, 0
  000f4	74 25		 je	 SHORT $LN72@master

; 5098 : 				a1 = ATR_BODY_WORK(0, p_kanji);

  000f6	a1 00 00 00 00	 mov	 eax, DWORD PTR ?p_kanji@@3PAUaction@@A
  000fb	8b 48 0c	 mov	 ecx, DWORD PTR [eax+12]
  000fe	ba 04 00 00 00	 mov	 edx, 4
  00103	6b c2 00	 imul	 eax, edx, 0
  00106	8b 4c 01 04	 mov	 ecx, DWORD PTR [ecx+eax+4]
  0010a	89 4d f8	 mov	 DWORD PTR _a1$[ebp], ecx

; 5099 : 				DeathAction(a1);

  0010d	8b 45 f8	 mov	 eax, DWORD PTR _a1$[ebp]
  00110	50		 push	 eax
  00111	e8 00 00 00 00	 call	 ?DeathAction@@YAXPAUaction@@@Z ; DeathAction
  00116	83 c4 04	 add	 esp, 4

; 5100 : 			}else{

  00119	eb 22		 jmp	 SHORT $LN73@master
$LN72@master:

; 5101 : 				p_kanji = GetAction(T_PRIO_MISSILE, sizeof(ATR_EQU));

  0011b	68 60 02 00 00	 push	 608			; 00000260H
  00120	6a 47		 push	 71			; 00000047H
  00122	e8 00 00 00 00	 call	 ?GetAction@@YAPAUaction@@EI@Z ; GetAction
  00127	83 c4 08	 add	 esp, 8
  0012a	a3 00 00 00 00	 mov	 DWORD PTR ?p_kanji@@3PAUaction@@A, eax

; 5102 : 				if (p_kanji == NULL)

  0012f	83 3d 00 00 00
	00 00		 cmp	 DWORD PTR ?p_kanji@@3PAUaction@@A, 0
  00136	75 05		 jne	 SHORT $LN73@master

; 5103 : 					return;

  00138	e9 97 2e 00 00	 jmp	 $LN1@master
$LN73@master:

; 5104 : 			}
; 5105 : 			//中文BOX做成
; 5106 : 			a1 = MakeWindowDisp(640 - 4 - 64 * 4, 4, 4, 2, 0, 2);

  0013d	6a 02		 push	 2
  0013f	6a 00		 push	 0
  00141	6a 02		 push	 2
  00143	6a 04		 push	 4
  00145	6a 04		 push	 4
  00147	68 7c 01 00 00	 push	 380			; 0000017cH
  0014c	e8 00 00 00 00	 call	 ?MakeWindowDisp@@YAPAUaction@@HHHHHH@Z ; MakeWindowDisp
  00151	83 c4 18	 add	 esp, 24			; 00000018H
  00154	89 45 f8	 mov	 DWORD PTR _a1$[ebp], eax

; 5107 : 			//记忆体不足产生失败
; 5108 : 			if (a1 == NULL)

  00157	83 7d f8 00	 cmp	 DWORD PTR _a1$[ebp], 0
  0015b	75 05		 jne	 SHORT $LN75@master

; 5109 : 				return;

  0015d	e9 72 2e 00 00	 jmp	 $LN1@master
$LN75@master:

; 5110 : 			ATR_BODY_WORK(0, p_kanji) = a1;

  00162	a1 00 00 00 00	 mov	 eax, DWORD PTR ?p_kanji@@3PAUaction@@A
  00167	8b 48 0c	 mov	 ecx, DWORD PTR [eax+12]
  0016a	ba 04 00 00 00	 mov	 edx, 4
  0016f	6b c2 00	 imul	 eax, edx, 0
  00172	8b 55 f8	 mov	 edx, DWORD PTR _a1$[ebp]
  00175	89 54 01 04	 mov	 DWORD PTR [ecx+eax+4], edx

; 5111 : 			ATR_NAME(p_kanji) = disp_kanji;

  00179	a1 00 00 00 00	 mov	 eax, DWORD PTR ?p_kanji@@3PAUaction@@A
  0017e	c7 40 08 00 00
	00 00		 mov	 DWORD PTR [eax+8], OFFSET ?disp_kanji@@YAXPAUaction@@@Z ; disp_kanji

; 5112 : 			ATR_ATTRIB(p_kanji) = ACT_ATR_HIDE;

  00185	a1 00 00 00 00	 mov	 eax, DWORD PTR ?p_kanji@@3PAUaction@@A
  0018a	c7 80 a4 00 00
	00 02 00 00 00	 mov	 DWORD PTR [eax+164], 2

; 5113 : 			play_se(202, 320, 240);

  00194	68 f0 00 00 00	 push	 240			; 000000f0H
  00199	68 40 01 00 00	 push	 320			; 00000140H
  0019e	68 ca 00 00 00	 push	 202			; 000000caH
  001a3	e8 00 00 00 00	 call	 ?play_se@@YAHHHH@Z	; play_se
  001a8	83 c4 0c	 add	 esp, 12			; 0000000cH

; 5114 : 			command_point++;

  001ab	a1 00 00 00 00	 mov	 eax, DWORD PTR ?command_point@@3HA
  001b0	83 c0 01	 add	 eax, 1
  001b3	a3 00 00 00 00	 mov	 DWORD PTR ?command_point@@3HA, eax

; 5115 : 			get_command_asc();

  001b8	e8 00 00 00 00	 call	 ?get_command_asc@@YAXXZ	; get_command_asc

; 5116 : 			d0 = 60;

  001bd	c7 45 d4 3c 00
	00 00		 mov	 DWORD PTR _d0$[ebp], 60	; 0000003cH

; 5117 : 			for (d7 = 0; d7 < 4; d7++){

  001c4	c7 45 98 00 00
	00 00		 mov	 DWORD PTR _d7$[ebp], 0
  001cb	eb 09		 jmp	 SHORT $LN6@master
$LN4@master:
  001cd	8b 45 98	 mov	 eax, DWORD PTR _d7$[ebp]
  001d0	83 c0 01	 add	 eax, 1
  001d3	89 45 98	 mov	 DWORD PTR _d7$[ebp], eax
$LN6@master:
  001d6	83 7d 98 04	 cmp	 DWORD PTR _d7$[ebp], 4
  001da	7d 25		 jge	 SHORT $LN5@master

; 5118 : 				if (kanji_buf[d7][0])

  001dc	8b 45 98	 mov	 eax, DWORD PTR _d7$[ebp]
  001df	c1 e0 07	 shl	 eax, 7
  001e2	b9 01 00 00 00	 mov	 ecx, 1
  001e7	6b d1 00	 imul	 edx, ecx, 0
  001ea	0f be 84 10 00
	00 00 00	 movsx	 eax, BYTE PTR ?kanji_buf@@3PAY0IA@DA[eax+edx]
  001f2	85 c0		 test	 eax, eax
  001f4	74 09		 je	 SHORT $LN76@master

; 5119 : 					d0 += 60;

  001f6	8b 45 d4	 mov	 eax, DWORD PTR _d0$[ebp]
  001f9	83 c0 3c	 add	 eax, 60			; 0000003cH
  001fc	89 45 d4	 mov	 DWORD PTR _d0$[ebp], eax
$LN76@master:

; 5120 : 			}

  001ff	eb cc		 jmp	 SHORT $LN4@master
$LN5@master:

; 5121 : 			ATR_INT_WORK0(p_kanji) = d0;

  00201	a1 00 00 00 00	 mov	 eax, DWORD PTR ?p_kanji@@3PAUaction@@A
  00206	8b 48 0c	 mov	 ecx, DWORD PTR [eax+12]
  00209	8b 55 d4	 mov	 edx, DWORD PTR _d0$[ebp]
  0020c	89 91 24 01 00
	00		 mov	 DWORD PTR [ecx+292], edx

; 5122 : 			ATR_VCT_NO(a0) = 1;

  00212	8b 45 08	 mov	 eax, DWORD PTR _a0$[ebp]
  00215	8b 48 0c	 mov	 ecx, DWORD PTR [eax+12]
  00218	c6 01 01	 mov	 BYTE PTR [ecx], 1

; 5123 : 			ATR_BODY_CNT(a0) = 1;

  0021b	8b 45 08	 mov	 eax, DWORD PTR _a0$[ebp]
  0021e	8b 48 0c	 mov	 ecx, DWORD PTR [eax+12]
  00221	c6 41 54 01	 mov	 BYTE PTR [ecx+84], 1

; 5124 : 			ATR_DAMAGE(a0) = 0;

  00225	8b 45 08	 mov	 eax, DWORD PTR _a0$[ebp]
  00228	8b 48 0c	 mov	 ecx, DWORD PTR [eax+12]
  0022b	c7 41 58 00 00
	00 00		 mov	 DWORD PTR [ecx+88], 0

; 5125 : 			ATR_PET_DAMAGE(a0) = 0;

  00232	8b 45 08	 mov	 eax, DWORD PTR _a0$[ebp]
  00235	8b 48 0c	 mov	 ecx, DWORD PTR [eax+12]
  00238	c7 81 24 02 00
	00 00 00 00 00	 mov	 DWORD PTR [ecx+548], 0

; 5126 : 			break;

  00242	e9 c9 2b 00 00	 jmp	 $master_500$328
$LN71@master:

; 5127 : 		}
; 5128 : 		if (command_no == ATT_EFFECT){

  00247	83 bd 74 ff ff
	ff 6a		 cmp	 DWORD PTR _command_no$[ebp], 106 ; 0000006aH
  0024e	0f 85 ea 00 00
	00		 jne	 $LN77@master

; 5129 : #ifdef __NEW_BATTLE_EFFECT
; 5130 : 			// Bj | target(who) | effect(effect no) | effect_anim | param | .... | FF
; 5131 : 			ACTION *target = NULL;

  00254	c7 85 44 ff ff
	ff 00 00 00 00	 mov	 DWORD PTR _target$8[ebp], 0

; 5132 : 			int who;
; 5133 : 			int effect;
; 5134 : 			int effect_anim;
; 5135 : 			int param;
; 5136 : 
; 5137 : 			ATR_VCT_NO(a0) = 1;

  0025e	8b 45 08	 mov	 eax, DWORD PTR _a0$[ebp]
  00261	8b 48 0c	 mov	 ecx, DWORD PTR [eax+12]
  00264	c6 01 01	 mov	 BYTE PTR [ecx], 1
$LN7@master:

; 5138 : 			while (1){

  00267	b8 01 00 00 00	 mov	 eax, 1
  0026c	85 c0		 test	 eax, eax
  0026e	0f 84 c5 00 00
	00		 je	 $LN8@master

; 5139 : 				who = get_num();

  00274	e8 00 00 00 00	 call	 ?get_num@@YAHXZ		; get_num
  00279	89 85 38 ff ff
	ff		 mov	 DWORD PTR _who$7[ebp], eax

; 5140 : 				if (who == 255)

  0027f	81 bd 38 ff ff
	ff ff 00 00 00	 cmp	 DWORD PTR _who$7[ebp], 255 ; 000000ffH
  00289	75 05		 jne	 SHORT $LN78@master

; 5141 : 					break;

  0028b	e9 a9 00 00 00	 jmp	 $LN8@master
$LN78@master:

; 5142 : 				effect = get_num();			//特效的编号

  00290	e8 00 00 00 00	 call	 ?get_num@@YAHXZ		; get_num
  00295	89 85 2c ff ff
	ff		 mov	 DWORD PTR _effect$6[ebp], eax

; 5143 : 				effect_anim = get_num();	//特效的动画

  0029b	e8 00 00 00 00	 call	 ?get_num@@YAHXZ		; get_num
  002a0	89 85 20 ff ff
	ff		 mov	 DWORD PTR _effect_anim$5[ebp], eax

; 5144 : 				param = get_num();			//参数

  002a6	e8 00 00 00 00	 call	 ?get_num@@YAHXZ		; get_num
  002ab	89 85 14 ff ff
	ff		 mov	 DWORD PTR _param$4[ebp], eax

; 5145 : 
; 5146 : 				target = NULL;

  002b1	c7 85 44 ff ff
	ff 00 00 00 00	 mov	 DWORD PTR _target$8[ebp], 0

; 5147 : 				if (who < BATTLKPKPLYAERNUM)

  002bb	83 bd 38 ff ff
	ff 14		 cmp	 DWORD PTR _who$7[ebp], 20 ; 00000014H
  002c2	7d 13		 jge	 SHORT $LN79@master

; 5148 : 					target = p_party[who];

  002c4	8b 85 38 ff ff
	ff		 mov	 eax, DWORD PTR _who$7[ebp]
  002ca	8b 0c 85 00 00
	00 00		 mov	 ecx, DWORD PTR ?p_party@@3PAPAUaction@@A[eax*4]
  002d1	89 8d 44 ff ff
	ff		 mov	 DWORD PTR _target$8[ebp], ecx
$LN79@master:

; 5149 : 				if (target){

  002d7	83 bd 44 ff ff
	ff 00		 cmp	 DWORD PTR _target$8[ebp], 0
  002de	74 54		 je	 SHORT $LN80@master

; 5150 : 					ATR_EFFECT_FLAG(target) = effect;

  002e0	8b 85 44 ff ff
	ff		 mov	 eax, DWORD PTR _target$8[ebp]
  002e6	8b 48 0c	 mov	 ecx, DWORD PTR [eax+12]
  002e9	8b 95 2c ff ff
	ff		 mov	 edx, DWORD PTR _effect$6[ebp]
  002ef	89 91 48 02 00
	00		 mov	 DWORD PTR [ecx+584], edx

; 5151 : 					ATR_EFFECT_ANIM(target) = effect_anim;

  002f5	8b 85 44 ff ff
	ff		 mov	 eax, DWORD PTR _target$8[ebp]
  002fb	8b 48 0c	 mov	 ecx, DWORD PTR [eax+12]
  002fe	8b 95 20 ff ff
	ff		 mov	 edx, DWORD PTR _effect_anim$5[ebp]
  00304	89 91 4c 02 00
	00		 mov	 DWORD PTR [ecx+588], edx

; 5152 : 					ATR_EFFECT_PARAM(target) = param;

  0030a	8b 85 44 ff ff
	ff		 mov	 eax, DWORD PTR _target$8[ebp]
  00310	8b 48 0c	 mov	 ecx, DWORD PTR [eax+12]
  00313	8b 95 14 ff ff
	ff		 mov	 edx, DWORD PTR _param$4[ebp]
  00319	89 91 50 02 00
	00		 mov	 DWORD PTR [ecx+592], edx

; 5153 : 					ATR_BODY_CNT(a0)++;

  0031f	8b 45 08	 mov	 eax, DWORD PTR _a0$[ebp]
  00322	8b 48 0c	 mov	 ecx, DWORD PTR [eax+12]
  00325	8a 51 54	 mov	 dl, BYTE PTR [ecx+84]
  00328	80 c2 01	 add	 dl, 1
  0032b	8b 45 08	 mov	 eax, DWORD PTR _a0$[ebp]
  0032e	8b 48 0c	 mov	 ecx, DWORD PTR [eax+12]
  00331	88 51 54	 mov	 BYTE PTR [ecx+84], dl
$LN80@master:

; 5154 : 				}
; 5155 : 			}

  00334	e9 2e ff ff ff	 jmp	 $LN7@master
$LN8@master:

; 5156 : #endif
; 5157 : 			break;

  00339	e9 d2 2a 00 00	 jmp	 $master_500$328
$LN77@master:

; 5158 : 		}
; 5159 : #ifdef _PETSKILL_BATTLE_MODEL
; 5160 : 		if (command_no == ATT_BATTLE_MODEL)			// 宠物技能战斗模组

  0033e	83 bd 74 ff ff
	ff 62		 cmp	 DWORD PTR _command_no$[ebp], 98 ; 00000062H
  00345	0f 85 0a 09 00
	00		 jne	 $LN81@master

; 5161 : 		{
; 5162 : 			ATR_VCT_NO(a0) = 1;

  0034b	8b 45 08	 mov	 eax, DWORD PTR _a0$[ebp]
  0034e	8b 48 0c	 mov	 ecx, DWORD PTR [eax+12]
  00351	c6 01 01	 mov	 BYTE PTR [ecx], 1

; 5163 : 			ATR_PET_DAMAGE(a0) = 0;

  00354	8b 45 08	 mov	 eax, DWORD PTR _a0$[ebp]
  00357	8b 48 0c	 mov	 ecx, DWORD PTR [eax+12]
  0035a	c7 81 24 02 00
	00 00 00 00 00	 mov	 DWORD PTR [ecx+548], 0

; 5164 : 			for (d7 = 0; d7 < BATTLKPKPLYAERNUM; d7++)

  00364	c7 45 98 00 00
	00 00		 mov	 DWORD PTR _d7$[ebp], 0
  0036b	eb 09		 jmp	 SHORT $LN11@master
$LN9@master:
  0036d	8b 45 98	 mov	 eax, DWORD PTR _d7$[ebp]
  00370	83 c0 01	 add	 eax, 1
  00373	89 45 98	 mov	 DWORD PTR _d7$[ebp], eax
$LN11@master:
  00376	83 7d 98 14	 cmp	 DWORD PTR _d7$[ebp], 20	; 00000014H
  0037a	0f 8d 74 01 00
	00		 jge	 $LN10@master

; 5165 : 			{
; 5166 : 				ATR_SYNC_FLG(p_party[d7]) = 0;

  00380	8b 45 98	 mov	 eax, DWORD PTR _d7$[ebp]
  00383	8b 0c 85 00 00
	00 00		 mov	 ecx, DWORD PTR ?p_party@@3PAPAUaction@@A[eax*4]
  0038a	8b 51 0c	 mov	 edx, DWORD PTR [ecx+12]
  0038d	c6 82 23 01 00
	00 00		 mov	 BYTE PTR [edx+291], 0

; 5167 : 				ATR_ATTACK_KIND(0, p_party[d7]) = 0;

  00394	8b 45 98	 mov	 eax, DWORD PTR _d7$[ebp]
  00397	8b 0c 85 00 00
	00 00		 mov	 ecx, DWORD PTR ?p_party@@3PAPAUaction@@A[eax*4]
  0039e	8b 51 0c	 mov	 edx, DWORD PTR [ecx+12]
  003a1	b8 04 00 00 00	 mov	 eax, 4
  003a6	6b c8 00	 imul	 ecx, eax, 0
  003a9	c7 44 0a 60 00
	00 00 00	 mov	 DWORD PTR [edx+ecx+96], 0

; 5168 : 				ATR_ATTACK_KIND(1, p_party[d7]) = 0;

  003b1	8b 45 98	 mov	 eax, DWORD PTR _d7$[ebp]
  003b4	8b 0c 85 00 00
	00 00		 mov	 ecx, DWORD PTR ?p_party@@3PAPAUaction@@A[eax*4]
  003bb	8b 51 0c	 mov	 edx, DWORD PTR [ecx+12]
  003be	b8 04 00 00 00	 mov	 eax, 4
  003c3	c1 e0 00	 shl	 eax, 0
  003c6	c7 44 02 60 00
	00 00 00	 mov	 DWORD PTR [edx+eax+96], 0

; 5169 : 				ATR_ATTACK_POW(0, p_party[d7]) = 0;

  003ce	8b 45 98	 mov	 eax, DWORD PTR _d7$[ebp]
  003d1	8b 0c 85 00 00
	00 00		 mov	 ecx, DWORD PTR ?p_party@@3PAPAUaction@@A[eax*4]
  003d8	8b 51 0c	 mov	 edx, DWORD PTR [ecx+12]
  003db	b8 04 00 00 00	 mov	 eax, 4
  003e0	6b c8 00	 imul	 ecx, eax, 0
  003e3	c7 84 0a b0 00
	00 00 00 00 00
	00		 mov	 DWORD PTR [edx+ecx+176], 0

; 5170 : 				ATR_ATTACK_PET_POW(0, p_party[d7]) = 0;

  003ee	8b 45 98	 mov	 eax, DWORD PTR _d7$[ebp]
  003f1	8b 0c 85 00 00
	00 00		 mov	 ecx, DWORD PTR ?p_party@@3PAPAUaction@@A[eax*4]
  003f8	8b 51 0c	 mov	 edx, DWORD PTR [ecx+12]
  003fb	b8 04 00 00 00	 mov	 eax, 4
  00400	6b c8 00	 imul	 ecx, eax, 0
  00403	c7 84 0a d4 01
	00 00 00 00 00
	00		 mov	 DWORD PTR [edx+ecx+468], 0

; 5171 : 				ATR_MPDAMAGE(p_party[d7]) = 0;

  0040e	8b 45 98	 mov	 eax, DWORD PTR _d7$[ebp]
  00411	8b 0c 85 00 00
	00 00		 mov	 ecx, DWORD PTR ?p_party@@3PAPAUaction@@A[eax*4]
  00418	8b 51 0c	 mov	 edx, DWORD PTR [ecx+12]
  0041b	c7 82 30 02 00
	00 00 00 00 00	 mov	 DWORD PTR [edx+560], 0

; 5172 : 				ATR_MPDFLG(p_party[d7]) = 0;

  00425	8b 45 98	 mov	 eax, DWORD PTR _d7$[ebp]
  00428	8b 0c 85 00 00
	00 00		 mov	 ecx, DWORD PTR ?p_party@@3PAPAUaction@@A[eax*4]
  0042f	8b 51 0c	 mov	 edx, DWORD PTR [ecx+12]
  00432	c7 82 38 02 00
	00 00 00 00 00	 mov	 DWORD PTR [edx+568], 0

; 5173 : 				ATR_ADDHP(p_party[d7]) = 0;

  0043c	8b 45 98	 mov	 eax, DWORD PTR _d7$[ebp]
  0043f	8b 0c 85 00 00
	00 00		 mov	 ecx, DWORD PTR ?p_party@@3PAPAUaction@@A[eax*4]
  00446	8b 51 0c	 mov	 edx, DWORD PTR [ecx+12]
  00449	c7 82 34 02 00
	00 00 00 00 00	 mov	 DWORD PTR [edx+564], 0

; 5174 : 				ATR_ADDHPFLG(p_party[d7])=0;

  00453	8b 45 98	 mov	 eax, DWORD PTR _d7$[ebp]
  00456	8b 0c 85 00 00
	00 00		 mov	 ecx, DWORD PTR ?p_party@@3PAPAUaction@@A[eax*4]
  0045d	8b 51 0c	 mov	 edx, DWORD PTR [ecx+12]
  00460	c7 82 3c 02 00
	00 00 00 00 00	 mov	 DWORD PTR [edx+572], 0

; 5175 : 				ATR_SHOWADDHP(p_party[d7])=0;

  0046a	8b 45 98	 mov	 eax, DWORD PTR _d7$[ebp]
  0046d	8b 0c 85 00 00
	00 00		 mov	 ecx, DWORD PTR ?p_party@@3PAPAUaction@@A[eax*4]
  00474	8b 51 0c	 mov	 edx, DWORD PTR [ecx+12]
  00477	c7 82 40 02 00
	00 00 00 00 00	 mov	 DWORD PTR [edx+576], 0

; 5176 : 				ATR_LONG_WORK(0, p_party[d7]) = 0;

  00481	8b 45 98	 mov	 eax, DWORD PTR _d7$[ebp]
  00484	8b 0c 85 00 00
	00 00		 mov	 ecx, DWORD PTR ?p_party@@3PAPAUaction@@A[eax*4]
  0048b	8b 51 0c	 mov	 edx, DWORD PTR [ecx+12]
  0048e	b8 04 00 00 00	 mov	 eax, 4
  00493	6b c8 00	 imul	 ecx, eax, 0
  00496	c7 84 0a 34 01
	00 00 00 00 00
	00		 mov	 DWORD PTR [edx+ecx+308], 0

; 5177 : 				ATR_BATTLE_MODEL(p_party[d7]) = 0;

  004a1	8b 45 98	 mov	 eax, DWORD PTR _d7$[ebp]
  004a4	8b 0c 85 00 00
	00 00		 mov	 ecx, DWORD PTR ?p_party@@3PAPAUaction@@A[eax*4]
  004ab	8b 51 0c	 mov	 edx, DWORD PTR [ecx+12]
  004ae	c7 82 58 02 00
	00 00 00 00 00	 mov	 DWORD PTR [edx+600], 0

; 5178 : 				memset(&ATR_BODY_WORK(0, p_party[d7]), 0, sizeof(ACTION*) * 20);

  004b8	6a 50		 push	 80			; 00000050H
  004ba	6a 00		 push	 0
  004bc	8b 45 98	 mov	 eax, DWORD PTR _d7$[ebp]
  004bf	8b 0c 85 00 00
	00 00		 mov	 ecx, DWORD PTR ?p_party@@3PAPAUaction@@A[eax*4]
  004c6	8b 51 0c	 mov	 edx, DWORD PTR [ecx+12]
  004c9	b8 04 00 00 00	 mov	 eax, 4
  004ce	6b c8 00	 imul	 ecx, eax, 0
  004d1	8d 54 0a 04	 lea	 edx, DWORD PTR [edx+ecx+4]
  004d5	52		 push	 edx
  004d6	e8 00 00 00 00	 call	 _memset
  004db	83 c4 0c	 add	 esp, 12			; 0000000cH

; 5179 : 				memset(p_missile, 0, sizeof(p_missile));

  004de	6a 54		 push	 84			; 00000054H
  004e0	6a 00		 push	 0
  004e2	68 00 00 00 00	 push	 OFFSET ?p_missile@@3PAPAUaction@@A
  004e7	e8 00 00 00 00	 call	 _memset
  004ec	83 c4 0c	 add	 esp, 12			; 0000000cH

; 5180 : 			}

  004ef	e9 79 fe ff ff	 jmp	 $LN9@master
$LN10@master:

; 5181 : 			d7 = 0;

  004f4	c7 45 98 00 00
	00 00		 mov	 DWORD PTR _d7$[ebp], 0

; 5182 : 			// 先取出攻击的宠物编号
; 5183 : 			d0 = get_num();

  004fb	e8 00 00 00 00	 call	 ?get_num@@YAHXZ		; get_num
  00500	89 45 d4	 mov	 DWORD PTR _d0$[ebp], eax

; 5184 : 			a3 = p_party[d0];

  00503	8b 45 d4	 mov	 eax, DWORD PTR _d0$[ebp]
  00506	8b 0c 85 00 00
	00 00		 mov	 ecx, DWORD PTR ?p_party@@3PAPAUaction@@A[eax*4]
  0050d	89 4d e0	 mov	 DWORD PTR _a3$[ebp], ecx

; 5185 : 			// 判断攻击方是左上还右下来??初始位置
; 5186 : 			if (ATR_GROUP_FLG(a3) == 0){

  00510	8b 45 e0	 mov	 eax, DWORD PTR _a3$[ebp]
  00513	8b 48 0c	 mov	 ecx, DWORD PTR [eax+12]
  00516	0f b6 51 5e	 movzx	 edx, BYTE PTR [ecx+94]
  0051a	85 d2		 test	 edx, edx
  0051c	75 10		 jne	 SHORT $LN82@master

; 5187 : 				d2 = 3;	// 右下

  0051e	c7 45 bc 03 00
	00 00		 mov	 DWORD PTR _d2$[ebp], 3

; 5188 : 				d0 = 0;

  00525	c7 45 d4 00 00
	00 00		 mov	 DWORD PTR _d0$[ebp], 0

; 5189 : 			}else{

  0052c	eb 0e		 jmp	 SHORT $LN83@master
$LN82@master:

; 5190 : 				d2 = 7; // 左上

  0052e	c7 45 bc 07 00
	00 00		 mov	 DWORD PTR _d2$[ebp], 7

; 5191 : 				d0 = 10;

  00535	c7 45 d4 0a 00
	00 00		 mov	 DWORD PTR _d0$[ebp], 10	; 0000000aH
$LN83@master:

; 5192 : 			}
; 5193 : 			// 取出目标攻击物件编号
; 5194 : 			a1 = NULL;

  0053c	c7 45 f8 00 00
	00 00		 mov	 DWORD PTR _a1$[ebp], 0
$LN12@master:

; 5195 : 			while ((d6 = get_num()) != 255){

  00543	e8 00 00 00 00	 call	 ?get_num@@YAHXZ		; get_num
  00548	89 45 a4	 mov	 DWORD PTR _d6$[ebp], eax
  0054b	81 7d a4 ff 00
	00 00		 cmp	 DWORD PTR _d6$[ebp], 255 ; 000000ffH
  00552	0f 84 af 06 00
	00		 je	 $LN13@master

; 5196 : 				a1 = p_party[d6];

  00558	8b 45 a4	 mov	 eax, DWORD PTR _d6$[ebp]
  0055b	8b 0c 85 00 00
	00 00		 mov	 ecx, DWORD PTR ?p_party@@3PAPAUaction@@A[eax*4]
  00562	89 4d f8	 mov	 DWORD PTR _a1$[ebp], ecx

; 5197 : 				if (ATR_VCT_NO(a1) != 55)

  00565	8b 45 f8	 mov	 eax, DWORD PTR _a1$[ebp]
  00568	8b 48 0c	 mov	 ecx, DWORD PTR [eax+12]
  0056b	0f b6 11	 movzx	 edx, BYTE PTR [ecx]
  0056e	83 fa 37	 cmp	 edx, 55			; 00000037H
  00571	74 0d		 je	 SHORT $LN84@master

; 5198 : 					ATR_FIRST_FLG(a1) = 0;

  00573	8b 45 f8	 mov	 eax, DWORD PTR _a1$[ebp]
  00576	8b 48 0c	 mov	 ecx, DWORD PTR [eax+12]
  00579	c6 81 1e 01 00
	00 00		 mov	 BYTE PTR [ecx+286], 0
$LN84@master:

; 5199 : 				ATR_ATTACK_KIND(2, a1) = 0;

  00580	8b 45 f8	 mov	 eax, DWORD PTR _a1$[ebp]
  00583	8b 48 0c	 mov	 ecx, DWORD PTR [eax+12]
  00586	ba 04 00 00 00	 mov	 edx, 4
  0058b	d1 e2		 shl	 edx, 1
  0058d	c7 44 11 60 00
	00 00 00	 mov	 DWORD PTR [ecx+edx+96], 0

; 5200 : 				d3 = get_num();			// 取出攻击物件编号

  00595	e8 00 00 00 00	 call	 ?get_num@@YAHXZ		; get_num
  0059a	89 45 b0	 mov	 DWORD PTR _d3$[ebp], eax

; 5201 : 				// 判断 p_missile[d3] 有没有在使用
; 5202 : 				// 有使用,表示这个攻击物件要攻击复数目标
; 5203 : 				if (p_missile[d3] != NULL){

  0059d	8b 45 b0	 mov	 eax, DWORD PTR _d3$[ebp]
  005a0	83 3c 85 00 00
	00 00 00	 cmp	 DWORD PTR ?p_missile@@3PAPAUaction@@A[eax*4], 0
  005a8	0f 84 6e 02 00
	00		 je	 $LN85@master

; 5204 : 					a2 = p_missile[d3];

  005ae	c6 85 33 fe ff
	ff 01		 mov	 BYTE PTR $T1[ebp], 1
  005b5	8b 45 b0	 mov	 eax, DWORD PTR _d3$[ebp]
  005b8	8b 0c 85 00 00
	00 00		 mov	 ecx, DWORD PTR ?p_missile@@3PAPAUaction@@A[eax*4]
  005bf	89 4d ec	 mov	 DWORD PTR _a2$[ebp], ecx

; 5205 : 					ATR_BODY_WORK(ATR_INT_WORK1(a2), a2) = a1;				// 被攻方

  005c2	80 bd 33 fe ff
	ff 00		 cmp	 BYTE PTR $T1[ebp], 0
  005c9	75 0d		 jne	 SHORT $LN268@master
  005cb	68 00 00 00 00	 push	 OFFSET $LN269@master
  005d0	e8 00 00 00 00	 call	 __RTC_UninitUse
  005d5	83 c4 04	 add	 esp, 4
$LN268@master:
  005d8	80 bd 33 fe ff
	ff 00		 cmp	 BYTE PTR $T1[ebp], 0
  005df	75 0d		 jne	 SHORT $LN270@master
  005e1	68 00 00 00 00	 push	 OFFSET $LN269@master
  005e6	e8 00 00 00 00	 call	 __RTC_UninitUse
  005eb	83 c4 04	 add	 esp, 4
$LN270@master:
  005ee	8b 45 ec	 mov	 eax, DWORD PTR _a2$[ebp]
  005f1	8b 48 0c	 mov	 ecx, DWORD PTR [eax+12]
  005f4	8b 55 ec	 mov	 edx, DWORD PTR _a2$[ebp]
  005f7	8b 42 0c	 mov	 eax, DWORD PTR [edx+12]
  005fa	8b 90 28 01 00
	00		 mov	 edx, DWORD PTR [eax+296]
  00600	8b 45 f8	 mov	 eax, DWORD PTR _a1$[ebp]
  00603	89 44 91 04	 mov	 DWORD PTR [ecx+edx*4+4], eax

; 5206 : 					ATR_BATTLE_MODEL(a1) = ATT_BATTLE_MODEL;				// 此目标是被 ATT_BATTLE_MODEL 型态攻击

  00607	8b 45 f8	 mov	 eax, DWORD PTR _a1$[ebp]
  0060a	8b 48 0c	 mov	 ecx, DWORD PTR [eax+12]
  0060d	c7 81 58 02 00
	00 62 00 00 00	 mov	 DWORD PTR [ecx+600], 98	; 00000062H

; 5207 : 					ATR_ATTACK_KIND(ATR_INT_WORK1(a2), a2) = get_num();		// 攻击种类

  00617	80 bd 33 fe ff
	ff 00		 cmp	 BYTE PTR $T1[ebp], 0
  0061e	75 0d		 jne	 SHORT $LN271@master
  00620	68 00 00 00 00	 push	 OFFSET $LN269@master
  00625	e8 00 00 00 00	 call	 __RTC_UninitUse
  0062a	83 c4 04	 add	 esp, 4
$LN271@master:
  0062d	80 bd 33 fe ff
	ff 00		 cmp	 BYTE PTR $T1[ebp], 0
  00634	75 0d		 jne	 SHORT $LN272@master
  00636	68 00 00 00 00	 push	 OFFSET $LN269@master
  0063b	e8 00 00 00 00	 call	 __RTC_UninitUse
  00640	83 c4 04	 add	 esp, 4
$LN272@master:
  00643	e8 00 00 00 00	 call	 ?get_num@@YAHXZ		; get_num
  00648	8b 4d ec	 mov	 ecx, DWORD PTR _a2$[ebp]
  0064b	8b 51 0c	 mov	 edx, DWORD PTR [ecx+12]
  0064e	8b 4d ec	 mov	 ecx, DWORD PTR _a2$[ebp]
  00651	8b 49 0c	 mov	 ecx, DWORD PTR [ecx+12]
  00654	8b 89 28 01 00
	00		 mov	 ecx, DWORD PTR [ecx+296]
  0065a	89 44 8a 60	 mov	 DWORD PTR [edx+ecx*4+96], eax

; 5208 : 					ATR_ATTACK_POW(ATR_INT_WORK1(a2), a2) = get_num();		// 攻击力

  0065e	80 bd 33 fe ff
	ff 00		 cmp	 BYTE PTR $T1[ebp], 0
  00665	75 0d		 jne	 SHORT $LN273@master
  00667	68 00 00 00 00	 push	 OFFSET $LN269@master
  0066c	e8 00 00 00 00	 call	 __RTC_UninitUse
  00671	83 c4 04	 add	 esp, 4
$LN273@master:
  00674	80 bd 33 fe ff
	ff 00		 cmp	 BYTE PTR $T1[ebp], 0
  0067b	75 0d		 jne	 SHORT $LN274@master
  0067d	68 00 00 00 00	 push	 OFFSET $LN269@master
  00682	e8 00 00 00 00	 call	 __RTC_UninitUse
  00687	83 c4 04	 add	 esp, 4
$LN274@master:
  0068a	e8 00 00 00 00	 call	 ?get_num@@YAHXZ		; get_num
  0068f	8b 4d ec	 mov	 ecx, DWORD PTR _a2$[ebp]
  00692	8b 51 0c	 mov	 edx, DWORD PTR [ecx+12]
  00695	8b 4d ec	 mov	 ecx, DWORD PTR _a2$[ebp]
  00698	8b 49 0c	 mov	 ecx, DWORD PTR [ecx+12]
  0069b	8b 89 28 01 00
	00		 mov	 ecx, DWORD PTR [ecx+296]
  006a1	89 84 8a b0 00
	00 00		 mov	 DWORD PTR [edx+ecx*4+176], eax

; 5209 : 					ATR_ATTACK_PET_POW(ATR_INT_WORK1(a2), a2) = get_num();	// pet攻击力

  006a8	80 bd 33 fe ff
	ff 00		 cmp	 BYTE PTR $T1[ebp], 0
  006af	75 0d		 jne	 SHORT $LN275@master
  006b1	68 00 00 00 00	 push	 OFFSET $LN269@master
  006b6	e8 00 00 00 00	 call	 __RTC_UninitUse
  006bb	83 c4 04	 add	 esp, 4
$LN275@master:
  006be	80 bd 33 fe ff
	ff 00		 cmp	 BYTE PTR $T1[ebp], 0
  006c5	75 0d		 jne	 SHORT $LN276@master
  006c7	68 00 00 00 00	 push	 OFFSET $LN269@master
  006cc	e8 00 00 00 00	 call	 __RTC_UninitUse
  006d1	83 c4 04	 add	 esp, 4
$LN276@master:
  006d4	e8 00 00 00 00	 call	 ?get_num@@YAHXZ		; get_num
  006d9	8b 4d ec	 mov	 ecx, DWORD PTR _a2$[ebp]
  006dc	8b 51 0c	 mov	 edx, DWORD PTR [ecx+12]
  006df	8b 4d ec	 mov	 ecx, DWORD PTR _a2$[ebp]
  006e2	8b 49 0c	 mov	 ecx, DWORD PTR [ecx+12]
  006e5	8b 89 28 01 00
	00		 mov	 ecx, DWORD PTR [ecx+296]
  006eb	89 84 8a d4 01
	00 00		 mov	 DWORD PTR [edx+ecx*4+468], eax

; 5210 : 					ATR_CHR_NO(a2) = get_num();																	// 攻击物件图号

  006f2	80 bd 33 fe ff
	ff 00		 cmp	 BYTE PTR $T1[ebp], 0
  006f9	75 0d		 jne	 SHORT $LN277@master
  006fb	68 00 00 00 00	 push	 OFFSET $LN269@master
  00700	e8 00 00 00 00	 call	 __RTC_UninitUse
  00705	83 c4 04	 add	 esp, 4
$LN277@master:
  00708	e8 00 00 00 00	 call	 ?get_num@@YAHXZ		; get_num
  0070d	8b 4d ec	 mov	 ecx, DWORD PTR _a2$[ebp]
  00710	89 81 44 01 00
	00		 mov	 DWORD PTR [ecx+324], eax

; 5211 : 					// 如果有忠犬效果,记录使用忠犬的目标
; 5212 : 					if (BattleCmd[command_point] == 'g')

  00716	a1 00 00 00 00	 mov	 eax, DWORD PTR ?command_point@@3HA
  0071b	0f be 88 00 00
	00 00		 movsx	 ecx, BYTE PTR ?BattleCmd@@3PADA[eax]
  00722	83 f9 67	 cmp	 ecx, 103		; 00000067H
  00725	75 4a		 jne	 SHORT $LN87@master

; 5213 : 						ATR_LONG_WORK(ATR_INT_WORK1(a2), a2) = get_num();

  00727	80 bd 33 fe ff
	ff 00		 cmp	 BYTE PTR $T1[ebp], 0
  0072e	75 0d		 jne	 SHORT $LN278@master
  00730	68 00 00 00 00	 push	 OFFSET $LN269@master
  00735	e8 00 00 00 00	 call	 __RTC_UninitUse
  0073a	83 c4 04	 add	 esp, 4
$LN278@master:
  0073d	80 bd 33 fe ff
	ff 00		 cmp	 BYTE PTR $T1[ebp], 0
  00744	75 0d		 jne	 SHORT $LN279@master
  00746	68 00 00 00 00	 push	 OFFSET $LN269@master
  0074b	e8 00 00 00 00	 call	 __RTC_UninitUse
  00750	83 c4 04	 add	 esp, 4
$LN279@master:
  00753	e8 00 00 00 00	 call	 ?get_num@@YAHXZ		; get_num
  00758	8b 4d ec	 mov	 ecx, DWORD PTR _a2$[ebp]
  0075b	8b 51 0c	 mov	 edx, DWORD PTR [ecx+12]
  0075e	8b 4d ec	 mov	 ecx, DWORD PTR _a2$[ebp]
  00761	8b 49 0c	 mov	 ecx, DWORD PTR [ecx+12]
  00764	8b 89 28 01 00
	00		 mov	 ecx, DWORD PTR [ecx+296]
  0076a	89 84 8a 34 01
	00 00		 mov	 DWORD PTR [edx+ecx*4+308], eax
$LN87@master:

; 5214 : 					ATR_INT_WORK1(a2)++;

  00771	80 bd 33 fe ff
	ff 00		 cmp	 BYTE PTR $T1[ebp], 0
  00778	75 0d		 jne	 SHORT $LN280@master
  0077a	68 00 00 00 00	 push	 OFFSET $LN269@master
  0077f	e8 00 00 00 00	 call	 __RTC_UninitUse
  00784	83 c4 04	 add	 esp, 4
$LN280@master:
  00787	80 bd 33 fe ff
	ff 00		 cmp	 BYTE PTR $T1[ebp], 0
  0078e	75 0d		 jne	 SHORT $LN281@master
  00790	68 00 00 00 00	 push	 OFFSET $LN269@master
  00795	e8 00 00 00 00	 call	 __RTC_UninitUse
  0079a	83 c4 04	 add	 esp, 4
$LN281@master:
  0079d	8b 45 ec	 mov	 eax, DWORD PTR _a2$[ebp]
  007a0	8b 48 0c	 mov	 ecx, DWORD PTR [eax+12]
  007a3	8b 91 28 01 00
	00		 mov	 edx, DWORD PTR [ecx+296]
  007a9	83 c2 01	 add	 edx, 1
  007ac	8b 45 ec	 mov	 eax, DWORD PTR _a2$[ebp]
  007af	8b 48 0c	 mov	 ecx, DWORD PTR [eax+12]
  007b2	89 91 28 01 00
	00		 mov	 DWORD PTR [ecx+296], edx

; 5215 : 					// 记录目标有被此攻击物件攻击
; 5216 : 					if (ATR_LONG_WORK(0, a1) == 0){

  007b8	8b 45 f8	 mov	 eax, DWORD PTR _a1$[ebp]
  007bb	8b 48 0c	 mov	 ecx, DWORD PTR [eax+12]
  007be	ba 04 00 00 00	 mov	 edx, 4
  007c3	6b c2 00	 imul	 eax, edx, 0
  007c6	83 bc 01 34 01
	00 00 00	 cmp	 DWORD PTR [ecx+eax+308], 0
  007ce	75 31		 jne	 SHORT $LN88@master

; 5217 : 						ATR_LONG_WORK(0, a1) = 1;		// ATR_LONG_WORK 栏位 : 位址 0 : 是设定目标是否被攻击过,所以都会设定为1

  007d0	8b 45 f8	 mov	 eax, DWORD PTR _a1$[ebp]
  007d3	8b 48 0c	 mov	 ecx, DWORD PTR [eax+12]
  007d6	ba 04 00 00 00	 mov	 edx, 4
  007db	6b c2 00	 imul	 eax, edx, 0
  007de	c7 84 01 34 01
	00 00 01 00 00
	00		 mov	 DWORD PTR [ecx+eax+308], 1

; 5218 : 						ATR_LONG_WORK(d3, a1) = d7 + 1; //						位址 d3: d3 是攻击物件的编号,而 d3 的位址是用来

  007e9	8b 45 98	 mov	 eax, DWORD PTR _d7$[ebp]
  007ec	83 c0 01	 add	 eax, 1
  007ef	8b 4d f8	 mov	 ecx, DWORD PTR _a1$[ebp]
  007f2	8b 51 0c	 mov	 edx, DWORD PTR [ecx+12]
  007f5	8b 4d b0	 mov	 ecx, DWORD PTR _d3$[ebp]
  007f8	89 84 8a 34 01
	00 00		 mov	 DWORD PTR [edx+ecx*4+308], eax

; 5219 : 						//								 纪录攻击物件在第 d7 + 1 的回合攻击目标
; 5220 : 					}else

  007ff	eb 16		 jmp	 SHORT $LN89@master
$LN88@master:

; 5221 : 						ATR_LONG_WORK(d3, a1) = d7 + 1;	// 当 ATR_LONG_WORK 栏位 0 不为 0 时,表示这个目标已被别的攻击物件攻击,

  00801	8b 45 98	 mov	 eax, DWORD PTR _d7$[ebp]
  00804	83 c0 01	 add	 eax, 1
  00807	8b 4d f8	 mov	 ecx, DWORD PTR _a1$[ebp]
  0080a	8b 51 0c	 mov	 edx, DWORD PTR [ecx+12]
  0080d	8b 4d b0	 mov	 ecx, DWORD PTR _d3$[ebp]
  00810	89 84 8a 34 01
	00 00		 mov	 DWORD PTR [edx+ecx*4+308], eax
$LN89@master:

; 5222 : 					// 所以直接在 d3 的位址记录要在 d7 + 1 的回合攻击目标
; 5223 : 				}else{// 没使用过

  00817	e9 dd 03 00 00	 jmp	 $LN86@master
$LN85@master:

; 5224 : 					p_missile[d3] = GetAction(T_PRIO_BOW, sizeof(ATR_EQU));

  0081c	68 60 02 00 00	 push	 608			; 00000260H
  00821	6a 65		 push	 101			; 00000065H
  00823	e8 00 00 00 00	 call	 ?GetAction@@YAPAUaction@@EI@Z ; GetAction
  00828	83 c4 08	 add	 esp, 8
  0082b	8b 4d b0	 mov	 ecx, DWORD PTR _d3$[ebp]
  0082e	89 04 8d 00 00
	00 00		 mov	 DWORD PTR ?p_missile@@3PAPAUaction@@A[ecx*4], eax

; 5225 : 					if (p_missile[d3] == NULL)

  00835	8b 45 b0	 mov	 eax, DWORD PTR _d3$[ebp]
  00838	83 3c 85 00 00
	00 00 00	 cmp	 DWORD PTR ?p_missile@@3PAPAUaction@@A[eax*4], 0
  00840	75 05		 jne	 SHORT $LN90@master

; 5226 : 						break;	// 不太可能

  00842	e9 c0 03 00 00	 jmp	 $LN13@master
$LN90@master:

; 5227 : 					a2 = p_missile[d3];

  00847	c6 85 33 fe ff
	ff 01		 mov	 BYTE PTR $T1[ebp], 1
  0084e	8b 45 b0	 mov	 eax, DWORD PTR _d3$[ebp]
  00851	8b 0c 85 00 00
	00 00		 mov	 ecx, DWORD PTR ?p_missile@@3PAPAUaction@@A[eax*4]
  00858	89 4d ec	 mov	 DWORD PTR _a2$[ebp], ecx

; 5228 : 					// 初始化
; 5229 : 					ATR_NAME(a2) = monster;

  0085b	80 bd 33 fe ff
	ff 00		 cmp	 BYTE PTR $T1[ebp], 0
  00862	75 0d		 jne	 SHORT $LN282@master
  00864	68 00 00 00 00	 push	 OFFSET $LN269@master
  00869	e8 00 00 00 00	 call	 __RTC_UninitUse
  0086e	83 c4 04	 add	 esp, 4
$LN282@master:
  00871	8b 45 ec	 mov	 eax, DWORD PTR _a2$[ebp]
  00874	c7 40 08 00 00
	00 00		 mov	 DWORD PTR [eax+8], OFFSET ?monster@@YAXPAUaction@@@Z ; monster

; 5230 : 					ATR_CHR_ANG(a2) = d2;

  0087b	80 bd 33 fe ff
	ff 00		 cmp	 BYTE PTR $T1[ebp], 0
  00882	75 0d		 jne	 SHORT $LN283@master
  00884	68 00 00 00 00	 push	 OFFSET $LN269@master
  00889	e8 00 00 00 00	 call	 __RTC_UninitUse
  0088e	83 c4 04	 add	 esp, 4
$LN283@master:
  00891	8b 45 ec	 mov	 eax, DWORD PTR _a2$[ebp]
  00894	8b 4d bc	 mov	 ecx, DWORD PTR _d2$[ebp]
  00897	89 88 54 01 00
	00		 mov	 DWORD PTR [eax+340], ecx

; 5231 : 					ATR_H_POS(a2) = monster_start_pos[monster_place_no[d3 + d0] * 2];

  0089d	80 bd 33 fe ff
	ff 00		 cmp	 BYTE PTR $T1[ebp], 0
  008a4	75 0d		 jne	 SHORT $LN284@master
  008a6	68 00 00 00 00	 push	 OFFSET $LN269@master
  008ab	e8 00 00 00 00	 call	 __RTC_UninitUse
  008b0	83 c4 04	 add	 esp, 4
$LN284@master:
  008b3	8b 45 b0	 mov	 eax, DWORD PTR _d3$[ebp]
  008b6	03 45 d4	 add	 eax, DWORD PTR _d0$[ebp]
  008b9	8b 0c 85 00 00
	00 00		 mov	 ecx, DWORD PTR ?monster_place_no@@3PAHA[eax*4]
  008c0	d1 e1		 shl	 ecx, 1
  008c2	8b 55 ec	 mov	 edx, DWORD PTR _a2$[ebp]
  008c5	8b 04 8d 00 00
	00 00		 mov	 eax, DWORD PTR ?monster_start_pos@@3PAHA[ecx*4]
  008cc	89 42 18	 mov	 DWORD PTR [edx+24], eax

; 5232 : 					ATR_V_POS(a2) = monster_start_pos[monster_place_no[d3 + d0] * 2 + 1];

  008cf	80 bd 33 fe ff
	ff 00		 cmp	 BYTE PTR $T1[ebp], 0
  008d6	75 0d		 jne	 SHORT $LN285@master
  008d8	68 00 00 00 00	 push	 OFFSET $LN269@master
  008dd	e8 00 00 00 00	 call	 __RTC_UninitUse
  008e2	83 c4 04	 add	 esp, 4
$LN285@master:
  008e5	8b 45 b0	 mov	 eax, DWORD PTR _d3$[ebp]
  008e8	03 45 d4	 add	 eax, DWORD PTR _d0$[ebp]
  008eb	8b 0c 85 00 00
	00 00		 mov	 ecx, DWORD PTR ?monster_place_no@@3PAHA[eax*4]
  008f2	d1 e1		 shl	 ecx, 1
  008f4	8b 55 ec	 mov	 edx, DWORD PTR _a2$[ebp]
  008f7	8b 04 8d 04 00
	00 00		 mov	 eax, DWORD PTR ?monster_start_pos@@3PAHA[ecx*4+4]
  008fe	89 42 1c	 mov	 DWORD PTR [edx+28], eax

; 5233 : 
; 5234 : 					ATR_CHR_ACT(a2) = ANIM_STAND;

  00901	80 bd 33 fe ff
	ff 00		 cmp	 BYTE PTR $T1[ebp], 0
  00908	75 0d		 jne	 SHORT $LN286@master
  0090a	68 00 00 00 00	 push	 OFFSET $LN269@master
  0090f	e8 00 00 00 00	 call	 __RTC_UninitUse
  00914	83 c4 04	 add	 esp, 4
$LN286@master:
  00917	8b 45 ec	 mov	 eax, DWORD PTR _a2$[ebp]
  0091a	c7 80 4c 01 00
	00 03 00 00 00	 mov	 DWORD PTR [eax+332], 3

; 5235 : 					ATR_GROUP_FLG(a2) = ATR_GROUP_FLG(a3);

  00924	80 bd 33 fe ff
	ff 00		 cmp	 BYTE PTR $T1[ebp], 0
  0092b	75 0d		 jne	 SHORT $LN287@master
  0092d	68 00 00 00 00	 push	 OFFSET $LN269@master
  00932	e8 00 00 00 00	 call	 __RTC_UninitUse
  00937	83 c4 04	 add	 esp, 4
$LN287@master:
  0093a	8b 45 e0	 mov	 eax, DWORD PTR _a3$[ebp]
  0093d	8b 48 0c	 mov	 ecx, DWORD PTR [eax+12]
  00940	8b 55 ec	 mov	 edx, DWORD PTR _a2$[ebp]
  00943	8b 42 0c	 mov	 eax, DWORD PTR [edx+12]
  00946	8a 49 5e	 mov	 cl, BYTE PTR [ecx+94]
  00949	88 48 5e	 mov	 BYTE PTR [eax+94], cl

; 5236 : 					a2->hitDispNo = a3->hitDispNo;

  0094c	80 bd 33 fe ff
	ff 00		 cmp	 BYTE PTR $T1[ebp], 0
  00953	75 0d		 jne	 SHORT $LN288@master
  00955	68 00 00 00 00	 push	 OFFSET $LN269@master
  0095a	e8 00 00 00 00	 call	 __RTC_UninitUse
  0095f	83 c4 04	 add	 esp, 4
$LN288@master:
  00962	8b 45 ec	 mov	 eax, DWORD PTR _a2$[ebp]
  00965	8b 4d e0	 mov	 ecx, DWORD PTR _a3$[ebp]
  00968	8b 51 20	 mov	 edx, DWORD PTR [ecx+32]
  0096b	89 50 20	 mov	 DWORD PTR [eax+32], edx

; 5237 : 					ATR_VCT_NO(a2) = 1;							// 前进

  0096e	80 bd 33 fe ff
	ff 00		 cmp	 BYTE PTR $T1[ebp], 0
  00975	75 0d		 jne	 SHORT $LN289@master
  00977	68 00 00 00 00	 push	 OFFSET $LN269@master
  0097c	e8 00 00 00 00	 call	 __RTC_UninitUse
  00981	83 c4 04	 add	 esp, 4
$LN289@master:
  00984	8b 45 ec	 mov	 eax, DWORD PTR _a2$[ebp]
  00987	8b 48 0c	 mov	 ecx, DWORD PTR [eax+12]
  0098a	c6 01 01	 mov	 BYTE PTR [ecx], 1

; 5238 : 					ATR_BODY_WORK(0, a2) = a1;					// 被攻击目标

  0098d	80 bd 33 fe ff
	ff 00		 cmp	 BYTE PTR $T1[ebp], 0
  00994	75 0d		 jne	 SHORT $LN290@master
  00996	68 00 00 00 00	 push	 OFFSET $LN269@master
  0099b	e8 00 00 00 00	 call	 __RTC_UninitUse
  009a0	83 c4 04	 add	 esp, 4
$LN290@master:
  009a3	8b 45 ec	 mov	 eax, DWORD PTR _a2$[ebp]
  009a6	8b 48 0c	 mov	 ecx, DWORD PTR [eax+12]
  009a9	ba 04 00 00 00	 mov	 edx, 4
  009ae	6b c2 00	 imul	 eax, edx, 0
  009b1	8b 55 f8	 mov	 edx, DWORD PTR _a1$[ebp]
  009b4	89 54 01 04	 mov	 DWORD PTR [ecx+eax+4], edx

; 5239 : 					ATR_BATTLE_MODEL(a1) = ATT_BATTLE_MODEL;	// 此目标是被 ATT_BATTLE_MODEL 型态攻击

  009b8	8b 45 f8	 mov	 eax, DWORD PTR _a1$[ebp]
  009bb	8b 48 0c	 mov	 ecx, DWORD PTR [eax+12]
  009be	c7 81 58 02 00
	00 62 00 00 00	 mov	 DWORD PTR [ecx+600], 98	; 00000062H

; 5240 : 					// 记录目标有被此攻击物件攻击
; 5241 : 					if (ATR_LONG_WORK(0, a1) == 0)

  009c8	8b 45 f8	 mov	 eax, DWORD PTR _a1$[ebp]
  009cb	8b 48 0c	 mov	 ecx, DWORD PTR [eax+12]
  009ce	ba 04 00 00 00	 mov	 edx, 4
  009d3	6b c2 00	 imul	 eax, edx, 0
  009d6	83 bc 01 34 01
	00 00 00	 cmp	 DWORD PTR [ecx+eax+308], 0
  009de	75 31		 jne	 SHORT $LN91@master

; 5242 : 					{
; 5243 : 						ATR_LONG_WORK(0, a1) = 1;			// ATR_LONG_WORK 栏位 : 位址 0 : 是设定目标是否被攻击过,所以都会设定为1

  009e0	8b 45 f8	 mov	 eax, DWORD PTR _a1$[ebp]
  009e3	8b 48 0c	 mov	 ecx, DWORD PTR [eax+12]
  009e6	ba 04 00 00 00	 mov	 edx, 4
  009eb	6b c2 00	 imul	 eax, edx, 0
  009ee	c7 84 01 34 01
	00 00 01 00 00
	00		 mov	 DWORD PTR [ecx+eax+308], 1

; 5244 : 						ATR_LONG_WORK(d3, a1) = d7 + 1;		//						位址 d3: d3 是攻击物件的编号,而 d3 的位址是用来

  009f9	8b 45 98	 mov	 eax, DWORD PTR _d7$[ebp]
  009fc	83 c0 01	 add	 eax, 1
  009ff	8b 4d f8	 mov	 ecx, DWORD PTR _a1$[ebp]
  00a02	8b 51 0c	 mov	 edx, DWORD PTR [ecx+12]
  00a05	8b 4d b0	 mov	 ecx, DWORD PTR _d3$[ebp]
  00a08	89 84 8a 34 01
	00 00		 mov	 DWORD PTR [edx+ecx*4+308], eax

; 5245 : 						//								 纪录攻击物件在第 d7 + 1 的回合攻击目标
; 5246 : 					}
; 5247 : 					else

  00a0f	eb 16		 jmp	 SHORT $LN92@master
$LN91@master:

; 5248 : 						ATR_LONG_WORK(d3, a1) = d7 + 1;		// 当 ATR_LONG_WORK 栏位 0 不为 0 时,表示这个目标已被别的攻击物件攻击,

  00a11	8b 45 98	 mov	 eax, DWORD PTR _d7$[ebp]
  00a14	83 c0 01	 add	 eax, 1
  00a17	8b 4d f8	 mov	 ecx, DWORD PTR _a1$[ebp]
  00a1a	8b 51 0c	 mov	 edx, DWORD PTR [ecx+12]
  00a1d	8b 4d b0	 mov	 ecx, DWORD PTR _d3$[ebp]
  00a20	89 84 8a 34 01
	00 00		 mov	 DWORD PTR [edx+ecx*4+308], eax
$LN92@master:

; 5249 : 					// 所以直接在 d3 的位址记录要在 d7 + 1 的回合攻击目标
; 5250 : 					ATR_ATTACK_KIND(0, a2) = get_num();		// 攻击种类

  00a27	80 bd 33 fe ff
	ff 00		 cmp	 BYTE PTR $T1[ebp], 0
  00a2e	75 0d		 jne	 SHORT $LN291@master
  00a30	68 00 00 00 00	 push	 OFFSET $LN269@master
  00a35	e8 00 00 00 00	 call	 __RTC_UninitUse
  00a3a	83 c4 04	 add	 esp, 4
$LN291@master:
  00a3d	e8 00 00 00 00	 call	 ?get_num@@YAHXZ		; get_num
  00a42	8b 4d ec	 mov	 ecx, DWORD PTR _a2$[ebp]
  00a45	8b 51 0c	 mov	 edx, DWORD PTR [ecx+12]
  00a48	b9 04 00 00 00	 mov	 ecx, 4
  00a4d	6b c9 00	 imul	 ecx, ecx, 0
  00a50	89 44 0a 60	 mov	 DWORD PTR [edx+ecx+96], eax

; 5251 : 					ATR_ATTACK_POW(0, a2) = get_num();		// 攻击力

  00a54	80 bd 33 fe ff
	ff 00		 cmp	 BYTE PTR $T1[ebp], 0
  00a5b	75 0d		 jne	 SHORT $LN292@master
  00a5d	68 00 00 00 00	 push	 OFFSET $LN269@master
  00a62	e8 00 00 00 00	 call	 __RTC_UninitUse
  00a67	83 c4 04	 add	 esp, 4
$LN292@master:
  00a6a	e8 00 00 00 00	 call	 ?get_num@@YAHXZ		; get_num
  00a6f	8b 4d ec	 mov	 ecx, DWORD PTR _a2$[ebp]
  00a72	8b 51 0c	 mov	 edx, DWORD PTR [ecx+12]
  00a75	b9 04 00 00 00	 mov	 ecx, 4
  00a7a	6b c9 00	 imul	 ecx, ecx, 0
  00a7d	89 84 0a b0 00
	00 00		 mov	 DWORD PTR [edx+ecx+176], eax

; 5252 : 					ATR_ATTACK_PET_POW(0, a2) = get_num();	// pet攻击力

  00a84	80 bd 33 fe ff
	ff 00		 cmp	 BYTE PTR $T1[ebp], 0
  00a8b	75 0d		 jne	 SHORT $LN293@master
  00a8d	68 00 00 00 00	 push	 OFFSET $LN269@master
  00a92	e8 00 00 00 00	 call	 __RTC_UninitUse
  00a97	83 c4 04	 add	 esp, 4
$LN293@master:
  00a9a	e8 00 00 00 00	 call	 ?get_num@@YAHXZ		; get_num
  00a9f	8b 4d ec	 mov	 ecx, DWORD PTR _a2$[ebp]
  00aa2	8b 51 0c	 mov	 edx, DWORD PTR [ecx+12]
  00aa5	b9 04 00 00 00	 mov	 ecx, 4
  00aaa	6b c9 00	 imul	 ecx, ecx, 0
  00aad	89 84 0a d4 01
	00 00		 mov	 DWORD PTR [edx+ecx+468], eax

; 5253 : 					ATR_CHR_NO(a2) = get_num();				// 攻击物件图号

  00ab4	80 bd 33 fe ff
	ff 00		 cmp	 BYTE PTR $T1[ebp], 0
  00abb	75 0d		 jne	 SHORT $LN294@master
  00abd	68 00 00 00 00	 push	 OFFSET $LN269@master
  00ac2	e8 00 00 00 00	 call	 __RTC_UninitUse
  00ac7	83 c4 04	 add	 esp, 4
$LN294@master:
  00aca	e8 00 00 00 00	 call	 ?get_num@@YAHXZ		; get_num
  00acf	8b 4d ec	 mov	 ecx, DWORD PTR _a2$[ebp]
  00ad2	89 81 44 01 00
	00		 mov	 DWORD PTR [ecx+324], eax

; 5254 : 					ATR_PLACE_NO(a2) = d3;					// 记录攻击物件编号

  00ad8	80 bd 33 fe ff
	ff 00		 cmp	 BYTE PTR $T1[ebp], 0
  00adf	75 0d		 jne	 SHORT $LN295@master
  00ae1	68 00 00 00 00	 push	 OFFSET $LN269@master
  00ae6	e8 00 00 00 00	 call	 __RTC_UninitUse
  00aeb	83 c4 04	 add	 esp, 4
$LN295@master:
  00aee	8b 45 ec	 mov	 eax, DWORD PTR _a2$[ebp]
  00af1	8b 48 0c	 mov	 ecx, DWORD PTR [eax+12]
  00af4	8a 55 b0	 mov	 dl, BYTE PTR _d3$[ebp]
  00af7	88 91 1f 01 00
	00		 mov	 BYTE PTR [ecx+287], dl

; 5255 : 					ATR_INT_WORK0(a2) = ATT_BATTLE_MODEL;	// 设定此 action 是 ATT_BATTLE_MODEL 在使用,以方便之后处理的辨识,使用 work0 记录

  00afd	80 bd 33 fe ff
	ff 00		 cmp	 BYTE PTR $T1[ebp], 0
  00b04	75 0d		 jne	 SHORT $LN296@master
  00b06	68 00 00 00 00	 push	 OFFSET $LN269@master
  00b0b	e8 00 00 00 00	 call	 __RTC_UninitUse
  00b10	83 c4 04	 add	 esp, 4
$LN296@master:
  00b13	8b 45 ec	 mov	 eax, DWORD PTR _a2$[ebp]
  00b16	8b 48 0c	 mov	 ecx, DWORD PTR [eax+12]
  00b19	c7 81 24 01 00
	00 62 00 00 00	 mov	 DWORD PTR [ecx+292], 98	; 00000062H

; 5256 : 					ATR_INT_WORK1(a2) = 1;					// 设定此攻击物件目前攻击目标数量,使用 work1记录

  00b23	80 bd 33 fe ff
	ff 00		 cmp	 BYTE PTR $T1[ebp], 0
  00b2a	75 0d		 jne	 SHORT $LN297@master
  00b2c	68 00 00 00 00	 push	 OFFSET $LN269@master
  00b31	e8 00 00 00 00	 call	 __RTC_UninitUse
  00b36	83 c4 04	 add	 esp, 4
$LN297@master:
  00b39	8b 45 ec	 mov	 eax, DWORD PTR _a2$[ebp]
  00b3c	8b 48 0c	 mov	 ecx, DWORD PTR [eax+12]
  00b3f	c7 81 28 01 00
	00 01 00 00 00	 mov	 DWORD PTR [ecx+296], 1

; 5257 : 					ATR_INT_WORK2(a2) = 0;					// 作为是否第一次执行离开动画旗标

  00b49	80 bd 33 fe ff
	ff 00		 cmp	 BYTE PTR $T1[ebp], 0
  00b50	75 0d		 jne	 SHORT $LN298@master
  00b52	68 00 00 00 00	 push	 OFFSET $LN269@master
  00b57	e8 00 00 00 00	 call	 __RTC_UninitUse
  00b5c	83 c4 04	 add	 esp, 4
$LN298@master:
  00b5f	8b 45 ec	 mov	 eax, DWORD PTR _a2$[ebp]
  00b62	8b 48 0c	 mov	 ecx, DWORD PTR [eax+12]
  00b65	c7 81 2c 01 00
	00 00 00 00 00	 mov	 DWORD PTR [ecx+300], 0

; 5258 : 					ATR_INT_WORK3(a2) = 0;					// 作为若有忠犬则检查过后不再检查忠犬的旗标

  00b6f	80 bd 33 fe ff
	ff 00		 cmp	 BYTE PTR $T1[ebp], 0
  00b76	75 0d		 jne	 SHORT $LN299@master
  00b78	68 00 00 00 00	 push	 OFFSET $LN269@master
  00b7d	e8 00 00 00 00	 call	 __RTC_UninitUse
  00b82	83 c4 04	 add	 esp, 4
$LN299@master:
  00b85	8b 45 ec	 mov	 eax, DWORD PTR _a2$[ebp]
  00b88	8b 48 0c	 mov	 ecx, DWORD PTR [eax+12]
  00b8b	c7 81 30 01 00
	00 00 00 00 00	 mov	 DWORD PTR [ecx+304], 0

; 5259 : 					// 如果有忠犬效果,记录使用忠犬的目标
; 5260 : 					if (BattleCmd[command_point] == 'g')

  00b95	a1 00 00 00 00	 mov	 eax, DWORD PTR ?command_point@@3HA
  00b9a	0f be 88 00 00
	00 00		 movsx	 ecx, BYTE PTR ?BattleCmd@@3PADA[eax]
  00ba1	83 f9 67	 cmp	 ecx, 103		; 00000067H
  00ba4	75 30		 jne	 SHORT $LN93@master

; 5261 : 						ATR_LONG_WORK(0, a2) = get_num();

  00ba6	80 bd 33 fe ff
	ff 00		 cmp	 BYTE PTR $T1[ebp], 0
  00bad	75 0d		 jne	 SHORT $LN300@master
  00baf	68 00 00 00 00	 push	 OFFSET $LN269@master
  00bb4	e8 00 00 00 00	 call	 __RTC_UninitUse
  00bb9	83 c4 04	 add	 esp, 4
$LN300@master:
  00bbc	e8 00 00 00 00	 call	 ?get_num@@YAHXZ		; get_num
  00bc1	8b 4d ec	 mov	 ecx, DWORD PTR _a2$[ebp]
  00bc4	8b 51 0c	 mov	 edx, DWORD PTR [ecx+12]
  00bc7	b9 04 00 00 00	 mov	 ecx, 4
  00bcc	6b c9 00	 imul	 ecx, ecx, 0
  00bcf	89 84 0a 34 01
	00 00		 mov	 DWORD PTR [edx+ecx+308], eax
$LN93@master:

; 5262 : 					ATR_SPD(a2) = 32;						// 移动速度

  00bd6	80 bd 33 fe ff
	ff 00		 cmp	 BYTE PTR $T1[ebp], 0
  00bdd	75 0d		 jne	 SHORT $LN301@master
  00bdf	68 00 00 00 00	 push	 OFFSET $LN269@master
  00be4	e8 00 00 00 00	 call	 __RTC_UninitUse
  00be9	83 c4 04	 add	 esp, 4
$LN301@master:
  00bec	8b 45 ec	 mov	 eax, DWORD PTR _a2$[ebp]
  00bef	c7 80 34 01 00
	00 20 00 00 00	 mov	 DWORD PTR [eax+308], 32	; 00000020H
$LN86@master:

; 5263 : 				}
; 5264 : 				d7++;

  00bf9	8b 45 98	 mov	 eax, DWORD PTR _d7$[ebp]
  00bfc	83 c0 01	 add	 eax, 1
  00bff	89 45 98	 mov	 DWORD PTR _d7$[ebp], eax

; 5265 : 			}

  00c02	e9 3c f9 ff ff	 jmp	 $LN12@master
$LN13@master:

; 5266 : 			ATR_COUNTER(a0) = a1;

  00c07	8b 45 08	 mov	 eax, DWORD PTR _a0$[ebp]
  00c0a	8b 48 0c	 mov	 ecx, DWORD PTR [eax+12]
  00c0d	8b 55 f8	 mov	 edx, DWORD PTR _a1$[ebp]
  00c10	89 91 08 01 00
	00		 mov	 DWORD PTR [ecx+264], edx

; 5267 : 			ATR_DAMAGE(a0) = -d7;	// 设为负数,让正常时候的 ATR_DAMAGE(p_master) 不会等于 ATR_BODY_CNT(p_master)

  00c16	8b 45 98	 mov	 eax, DWORD PTR _d7$[ebp]
  00c19	f7 d8		 neg	 eax
  00c1b	8b 4d 08	 mov	 ecx, DWORD PTR _a0$[ebp]
  00c1e	8b 51 0c	 mov	 edx, DWORD PTR [ecx+12]
  00c21	89 42 58	 mov	 DWORD PTR [edx+88], eax

; 5268 : 			ATR_INT_WORK1(a0) = 0;	// 确认 p_missile 是否都被清空

  00c24	8b 45 08	 mov	 eax, DWORD PTR _a0$[ebp]
  00c27	8b 48 0c	 mov	 ecx, DWORD PTR [eax+12]
  00c2a	c7 81 28 01 00
	00 00 00 00 00	 mov	 DWORD PTR [ecx+296], 0

; 5269 : 			ATR_INT_WORK2(a0) = 1;	// 攻击物件攻击时的顺序,先从 ATR_LONG_WORK 为 1 的先执行

  00c34	8b 45 08	 mov	 eax, DWORD PTR _a0$[ebp]
  00c37	8b 48 0c	 mov	 ecx, DWORD PTR [eax+12]
  00c3a	c7 81 2c 01 00
	00 01 00 00 00	 mov	 DWORD PTR [ecx+300], 1

; 5270 : 			ATR_BODY_CNT(a0) = d7;	// 攻击总次数,每完成一次动作 ATR_DAMAGE(p_master) 都会递增,直到 ATR_DAMAGE(p_master) ==  ATR_BODY_CNT(p_master)

  00c44	8b 45 08	 mov	 eax, DWORD PTR _a0$[ebp]
  00c47	8b 48 0c	 mov	 ecx, DWORD PTR [eax+12]
  00c4a	8a 55 98	 mov	 dl, BYTE PTR _d7$[ebp]
  00c4d	88 51 54	 mov	 BYTE PTR [ecx+84], dl

; 5271 : 			// p_master 才会去继续处理下一笔 BattleCmd 里的资料 (这里的 a0 就是 p_master)
; 5272 : 			break;

  00c50	e9 bb 21 00 00	 jmp	 $master_500$328
$LN81@master:

; 5273 : 		}
; 5274 : #endif
; 5275 : 		d0 = get_num();

  00c55	e8 00 00 00 00	 call	 ?get_num@@YAHXZ		; get_num
  00c5a	89 45 d4	 mov	 DWORD PTR _d0$[ebp], eax

; 5276 : 		if (d0 < 0 || d0 >= BATTLKPKPLYAERNUM){

  00c5d	83 7d d4 00	 cmp	 DWORD PTR _d0$[ebp], 0
  00c61	7c 06		 jl	 SHORT $LN95@master
  00c63	83 7d d4 14	 cmp	 DWORD PTR _d0$[ebp], 20	; 00000014H
  00c67	7c 26		 jl	 SHORT $LN94@master
$LN95@master:

; 5277 : 			if (command_no == ATT_VARIABLE){

  00c69	83 bd 74 ff ff
	ff 56		 cmp	 DWORD PTR _command_no$[ebp], 86 ; 00000056H
  00c70	75 18		 jne	 SHORT $LN96@master

; 5278 : 				ATR_ATTRIB(p_master) = get_num();

  00c72	e8 00 00 00 00	 call	 ?get_num@@YAHXZ		; get_num
  00c77	8b 0d 00 00 00
	00		 mov	 ecx, DWORD PTR ?p_master@@3PAUaction@@A
  00c7d	89 81 a4 00 00
	00		 mov	 DWORD PTR [ecx+164], eax

; 5279 : 				break;

  00c83	e9 88 21 00 00	 jmp	 $master_500$328

; 5280 : 			}else{

  00c88	eb 05		 jmp	 SHORT $LN94@master
$LN96@master:

; 5281 : #ifdef _STONDEBUG_
; 5282 : 				MessageBox(hWnd, "command_no != ATT_VARIABLE", "Error", MB_OK);
; 5283 : #endif
; 5284 : 				break;

  00c8a	e9 81 21 00 00	 jmp	 $master_500$328
$LN94@master:

; 5285 : 			}
; 5286 : 		}
; 5287 : 		a1 = p_party[d0];

  00c8f	8b 45 d4	 mov	 eax, DWORD PTR _d0$[ebp]
  00c92	8b 0c 85 00 00
	00 00		 mov	 ecx, DWORD PTR ?p_party@@3PAPAUaction@@A[eax*4]
  00c99	89 4d f8	 mov	 DWORD PTR _a1$[ebp], ecx

; 5288 : 		if (ATR_NAME(a1) == NULL){

  00c9c	8b 45 f8	 mov	 eax, DWORD PTR _a1$[ebp]
  00c9f	83 78 08 00	 cmp	 DWORD PTR [eax+8], 0
  00ca3	75 41		 jne	 SHORT $LN98@master

; 5289 : #ifdef _STONDEBUG_
; 5290 : 			MessageBox(hWnd, "ATR_NAME(a1) == NULL", "Error", MB_OK);
; 5291 : #endif
; 5292 : 			command_no = get_command();

  00ca5	e8 00 00 00 00	 call	 ?get_command@@YADXZ	; get_command
  00caa	0f be c0	 movsx	 eax, al
  00cad	89 85 74 ff ff
	ff		 mov	 DWORD PTR _command_no$[ebp], eax

; 5293 : 			if (command_no == -1){

  00cb3	83 bd 74 ff ff
	ff ff		 cmp	 DWORD PTR _command_no$[ebp], -1
  00cba	75 18		 jne	 SHORT $LN99@master

; 5294 : 				ATR_VCT_NO(a0) = 4;

  00cbc	8b 45 08	 mov	 eax, DWORD PTR _a0$[ebp]
  00cbf	8b 48 0c	 mov	 ecx, DWORD PTR [eax+12]
  00cc2	c6 01 04	 mov	 BYTE PTR [ecx], 4

; 5295 : 				command_point = 0;

  00cc5	c7 05 00 00 00
	00 00 00 00 00	 mov	 DWORD PTR ?command_point@@3HA, 0

; 5296 : 				break;

  00ccf	e9 3c 21 00 00	 jmp	 $master_500$328
$LN99@master:

; 5297 : 			}
; 5298 : 			command_point -= 2;

  00cd4	a1 00 00 00 00	 mov	 eax, DWORD PTR ?command_point@@3HA
  00cd9	83 e8 02	 sub	 eax, 2
  00cdc	a3 00 00 00 00	 mov	 DWORD PTR ?command_point@@3HA, eax

; 5299 : 			break;

  00ce1	e9 2a 21 00 00	 jmp	 $master_500$328
$LN98@master:

; 5300 : 		}
; 5301 : 		if (command_no != ATT_MALFUNCTION){

  00ce6	83 bd 74 ff ff
	ff 4d		 cmp	 DWORD PTR _command_no$[ebp], 77 ; 0000004dH
  00ced	74 12		 je	 SHORT $LN100@master

; 5302 : 			if (ATR_LIFE(a1) <= 0)

  00cef	8b 45 f8	 mov	 eax, DWORD PTR _a1$[ebp]
  00cf2	83 78 78 00	 cmp	 DWORD PTR [eax+120], 0
  00cf6	7f 09		 jg	 SHORT $LN100@master

; 5303 : 				ATR_VCT_NO(a1) = 0;

  00cf8	8b 45 f8	 mov	 eax, DWORD PTR _a1$[ebp]
  00cfb	8b 48 0c	 mov	 ecx, DWORD PTR [eax+12]
  00cfe	c6 01 00	 mov	 BYTE PTR [ecx], 0
$LN100@master:

; 5304 : 		}
; 5305 : 		if (command_no != ATT_MALFUNCTION){

  00d01	83 bd 74 ff ff
	ff 4d		 cmp	 DWORD PTR _command_no$[ebp], 77 ; 0000004dH
  00d08	74 12		 je	 SHORT $LN102@master

; 5306 : 			if (ATR_VCT_NO(a1) != 0)//command_point = sav_command_point;

  00d0a	8b 45 f8	 mov	 eax, DWORD PTR _a1$[ebp]
  00d0d	8b 48 0c	 mov	 ecx, DWORD PTR [eax+12]
  00d10	0f b6 11	 movzx	 edx, BYTE PTR [ecx]
  00d13	85 d2		 test	 edx, edx
  00d15	74 05		 je	 SHORT $LN102@master

; 5307 : 				break;

  00d17	e9 f4 20 00 00	 jmp	 $master_500$328
$LN102@master:

; 5308 : 		}
; 5309 : 		ATR_VCT_NO(a0) = 1;

  00d1c	8b 45 08	 mov	 eax, DWORD PTR _a0$[ebp]
  00d1f	8b 48 0c	 mov	 ecx, DWORD PTR [eax+12]
  00d22	c6 01 01	 mov	 BYTE PTR [ecx], 1

; 5310 : 		ATR_DAMAGE(a0) = 0;

  00d25	8b 45 08	 mov	 eax, DWORD PTR _a0$[ebp]
  00d28	8b 48 0c	 mov	 ecx, DWORD PTR [eax+12]
  00d2b	c7 41 58 00 00
	00 00		 mov	 DWORD PTR [ecx+88], 0

; 5311 : 		ATR_PET_DAMAGE(a0) = 0;

  00d32	8b 45 08	 mov	 eax, DWORD PTR _a0$[ebp]
  00d35	8b 48 0c	 mov	 ecx, DWORD PTR [eax+12]
  00d38	c7 81 24 02 00
	00 00 00 00 00	 mov	 DWORD PTR [ecx+548], 0

; 5312 : 		ATR_COUNTER(a0) = a1;

  00d42	8b 45 08	 mov	 eax, DWORD PTR _a0$[ebp]
  00d45	8b 48 0c	 mov	 ecx, DWORD PTR [eax+12]
  00d48	8b 55 f8	 mov	 edx, DWORD PTR _a1$[ebp]
  00d4b	89 91 08 01 00
	00		 mov	 DWORD PTR [ecx+264], edx

; 5313 : 		if (ATR_VCT_NO(a1) != 55)

  00d51	8b 45 f8	 mov	 eax, DWORD PTR _a1$[ebp]
  00d54	8b 48 0c	 mov	 ecx, DWORD PTR [eax+12]
  00d57	0f b6 11	 movzx	 edx, BYTE PTR [ecx]
  00d5a	83 fa 37	 cmp	 edx, 55			; 00000037H
  00d5d	74 0d		 je	 SHORT $LN104@master

; 5314 : 			ATR_FIRST_FLG(a1) = 0;

  00d5f	8b 45 f8	 mov	 eax, DWORD PTR _a1$[ebp]
  00d62	8b 48 0c	 mov	 ecx, DWORD PTR [eax+12]
  00d65	c6 81 1e 01 00
	00 00		 mov	 BYTE PTR [ecx+286], 0
$LN104@master:

; 5315 : 		for (d7 = 0; d7 < BATTLKPKPLYAERNUM; d7++){

  00d6c	c7 45 98 00 00
	00 00		 mov	 DWORD PTR _d7$[ebp], 0
  00d73	eb 09		 jmp	 SHORT $LN16@master
$LN14@master:
  00d75	8b 45 98	 mov	 eax, DWORD PTR _d7$[ebp]
  00d78	83 c0 01	 add	 eax, 1
  00d7b	89 45 98	 mov	 DWORD PTR _d7$[ebp], eax
$LN16@master:
  00d7e	83 7d 98 14	 cmp	 DWORD PTR _d7$[ebp], 20	; 00000014H
  00d82	0f 8d 3a 01 00
	00		 jge	 $LN15@master

; 5316 : 			ATR_SYNC_FLG(p_party[d7]) = 0;

  00d88	8b 45 98	 mov	 eax, DWORD PTR _d7$[ebp]
  00d8b	8b 0c 85 00 00
	00 00		 mov	 ecx, DWORD PTR ?p_party@@3PAPAUaction@@A[eax*4]
  00d92	8b 51 0c	 mov	 edx, DWORD PTR [ecx+12]
  00d95	c6 82 23 01 00
	00 00		 mov	 BYTE PTR [edx+291], 0

; 5317 : 			ATR_ATTACK_KIND(0, p_party[d7]) = 0;

  00d9c	8b 45 98	 mov	 eax, DWORD PTR _d7$[ebp]
  00d9f	8b 0c 85 00 00
	00 00		 mov	 ecx, DWORD PTR ?p_party@@3PAPAUaction@@A[eax*4]
  00da6	8b 51 0c	 mov	 edx, DWORD PTR [ecx+12]
  00da9	b8 04 00 00 00	 mov	 eax, 4
  00dae	6b c8 00	 imul	 ecx, eax, 0
  00db1	c7 44 0a 60 00
	00 00 00	 mov	 DWORD PTR [edx+ecx+96], 0

; 5318 : 			ATR_ATTACK_KIND(1, p_party[d7]) = 0;

  00db9	8b 45 98	 mov	 eax, DWORD PTR _d7$[ebp]
  00dbc	8b 0c 85 00 00
	00 00		 mov	 ecx, DWORD PTR ?p_party@@3PAPAUaction@@A[eax*4]
  00dc3	8b 51 0c	 mov	 edx, DWORD PTR [ecx+12]
  00dc6	b8 04 00 00 00	 mov	 eax, 4
  00dcb	c1 e0 00	 shl	 eax, 0
  00dce	c7 44 02 60 00
	00 00 00	 mov	 DWORD PTR [edx+eax+96], 0

; 5319 : 			ATR_ATTACK_POW(0, p_party[d7]) = 0;

  00dd6	8b 45 98	 mov	 eax, DWORD PTR _d7$[ebp]
  00dd9	8b 0c 85 00 00
	00 00		 mov	 ecx, DWORD PTR ?p_party@@3PAPAUaction@@A[eax*4]
  00de0	8b 51 0c	 mov	 edx, DWORD PTR [ecx+12]
  00de3	b8 04 00 00 00	 mov	 eax, 4
  00de8	6b c8 00	 imul	 ecx, eax, 0
  00deb	c7 84 0a b0 00
	00 00 00 00 00
	00		 mov	 DWORD PTR [edx+ecx+176], 0

; 5320 : 			ATR_ATTACK_PET_POW(0, p_party[d7]) = 0;

  00df6	8b 45 98	 mov	 eax, DWORD PTR _d7$[ebp]
  00df9	8b 0c 85 00 00
	00 00		 mov	 ecx, DWORD PTR ?p_party@@3PAPAUaction@@A[eax*4]
  00e00	8b 51 0c	 mov	 edx, DWORD PTR [ecx+12]
  00e03	b8 04 00 00 00	 mov	 eax, 4
  00e08	6b c8 00	 imul	 ecx, eax, 0
  00e0b	c7 84 0a d4 01
	00 00 00 00 00
	00		 mov	 DWORD PTR [edx+ecx+468], 0

; 5321 : 			//andy_mp
; 5322 : 			ATR_MPDAMAGE(p_party[d7]) = 0;

  00e16	8b 45 98	 mov	 eax, DWORD PTR _d7$[ebp]
  00e19	8b 0c 85 00 00
	00 00		 mov	 ecx, DWORD PTR ?p_party@@3PAPAUaction@@A[eax*4]
  00e20	8b 51 0c	 mov	 edx, DWORD PTR [ecx+12]
  00e23	c7 82 30 02 00
	00 00 00 00 00	 mov	 DWORD PTR [edx+560], 0

; 5323 : 			ATR_MPDFLG(p_party[d7]) = 0;

  00e2d	8b 45 98	 mov	 eax, DWORD PTR _d7$[ebp]
  00e30	8b 0c 85 00 00
	00 00		 mov	 ecx, DWORD PTR ?p_party@@3PAPAUaction@@A[eax*4]
  00e37	8b 51 0c	 mov	 edx, DWORD PTR [ecx+12]
  00e3a	c7 82 38 02 00
	00 00 00 00 00	 mov	 DWORD PTR [edx+568], 0

; 5324 : 			ATR_ADDHP(p_party[d7]) = 0;

  00e44	8b 45 98	 mov	 eax, DWORD PTR _d7$[ebp]
  00e47	8b 0c 85 00 00
	00 00		 mov	 ecx, DWORD PTR ?p_party@@3PAPAUaction@@A[eax*4]
  00e4e	8b 51 0c	 mov	 edx, DWORD PTR [ecx+12]
  00e51	c7 82 34 02 00
	00 00 00 00 00	 mov	 DWORD PTR [edx+564], 0

; 5325 : 			ATR_ADDHPFLG(p_party[d7]) = 0;

  00e5b	8b 45 98	 mov	 eax, DWORD PTR _d7$[ebp]
  00e5e	8b 0c 85 00 00
	00 00		 mov	 ecx, DWORD PTR ?p_party@@3PAPAUaction@@A[eax*4]
  00e65	8b 51 0c	 mov	 edx, DWORD PTR [ecx+12]
  00e68	c7 82 3c 02 00
	00 00 00 00 00	 mov	 DWORD PTR [edx+572], 0

; 5326 : 			ATR_SHOWADDHP(p_party[d7]) = 0;

  00e72	8b 45 98	 mov	 eax, DWORD PTR _d7$[ebp]
  00e75	8b 0c 85 00 00
	00 00		 mov	 ecx, DWORD PTR ?p_party@@3PAPAUaction@@A[eax*4]
  00e7c	8b 51 0c	 mov	 edx, DWORD PTR [ecx+12]
  00e7f	c7 82 40 02 00
	00 00 00 00 00	 mov	 DWORD PTR [edx+576], 0

; 5327 : #ifdef _PETSKILL_BATTLE_MODEL
; 5328 : 			ATR_BATTLE_MODEL(p_party[d7]) = 0;

  00e89	8b 45 98	 mov	 eax, DWORD PTR _d7$[ebp]
  00e8c	8b 0c 85 00 00
	00 00		 mov	 ecx, DWORD PTR ?p_party@@3PAPAUaction@@A[eax*4]
  00e93	8b 51 0c	 mov	 edx, DWORD PTR [ecx+12]
  00e96	c7 82 58 02 00
	00 00 00 00 00	 mov	 DWORD PTR [edx+600], 0

; 5329 : 			ATR_BODY_WORK(0, p_party[d7]) = NULL;

  00ea0	8b 45 98	 mov	 eax, DWORD PTR _d7$[ebp]
  00ea3	8b 0c 85 00 00
	00 00		 mov	 ecx, DWORD PTR ?p_party@@3PAPAUaction@@A[eax*4]
  00eaa	8b 51 0c	 mov	 edx, DWORD PTR [ecx+12]
  00ead	b8 04 00 00 00	 mov	 eax, 4
  00eb2	6b c8 00	 imul	 ecx, eax, 0
  00eb5	c7 44 0a 04 00
	00 00 00	 mov	 DWORD PTR [edx+ecx+4], 0

; 5330 : #endif
; 5331 : 		}

  00ebd	e9 b3 fe ff ff	 jmp	 $LN14@master
$LN15@master:

; 5332 : 		ATR_ATTACK_KIND(2, a1) = 0;

  00ec2	8b 45 f8	 mov	 eax, DWORD PTR _a1$[ebp]
  00ec5	8b 48 0c	 mov	 ecx, DWORD PTR [eax+12]
  00ec8	ba 04 00 00 00	 mov	 edx, 4
  00ecd	d1 e2		 shl	 edx, 1
  00ecf	c7 44 11 60 00
	00 00 00	 mov	 DWORD PTR [ecx+edx+96], 0

; 5333 : 		switch (command_no){

  00ed7	8b 85 74 ff ff
	ff		 mov	 eax, DWORD PTR _command_no$[ebp]
  00edd	89 85 28 fe ff
	ff		 mov	 DWORD PTR tv574[ebp], eax
  00ee3	8b 8d 28 fe ff
	ff		 mov	 ecx, DWORD PTR tv574[ebp]
  00ee9	83 e9 02	 sub	 ecx, 2
  00eec	89 8d 28 fe ff
	ff		 mov	 DWORD PTR tv574[ebp], ecx
  00ef2	83 bd 28 fe ff
	ff 6e		 cmp	 DWORD PTR tv574[ebp], 110 ; 0000006eH
  00ef9	0f 87 5b 1b 00
	00		 ja	 $LN226@master
  00eff	8b 95 28 fe ff
	ff		 mov	 edx, DWORD PTR tv574[ebp]
  00f05	0f b6 82 00 00
	00 00		 movzx	 eax, BYTE PTR $LN320@master[edx]
  00f0c	ff 24 85 00 00
	00 00		 jmp	 DWORD PTR $LN326@master[eax*4]
$LN105@master:

; 5334 : 			// BI jibun_5 teki_F flg_2 damage_1 teki_9 flg_2 damage_1 FF
; 5335 : 		case ATT_IN:		//??????????  ???  ??????????
; 5336 : 			if (ATR_GROUP_FLG(a1) == 0)		//????????

  00f13	8b 45 f8	 mov	 eax, DWORD PTR _a1$[ebp]
  00f16	8b 48 0c	 mov	 ecx, DWORD PTR [eax+12]
  00f19	0f b6 51 5e	 movzx	 edx, BYTE PTR [ecx+94]
  00f1d	85 d2		 test	 edx, edx
  00f1f	75 16		 jne	 SHORT $LN106@master

; 5337 : 			{
; 5338 : 				ATR_V_POS(a1) = 8;

  00f21	8b 45 f8	 mov	 eax, DWORD PTR _a1$[ebp]
  00f24	c7 40 1c 08 00
	00 00		 mov	 DWORD PTR [eax+28], 8

; 5339 : 				ATR_H_POS(a1) = -SCREEN_OUT;

  00f2b	8b 45 f8	 mov	 eax, DWORD PTR _a1$[ebp]
  00f2e	c7 40 18 96 ff
	ff ff		 mov	 DWORD PTR [eax+24], -106 ; ffffff96H

; 5340 : 			}
; 5341 : 			else

  00f35	eb 28		 jmp	 SHORT $LN108@master
$LN106@master:

; 5342 : 			{
; 5343 : 				ATR_V_POS(a1) = lpDraw->ySize - 8;

  00f37	a1 00 00 00 00	 mov	 eax, DWORD PTR ?lpDraw@@3PAUDIRECT_DRAW@@A ; lpDraw
  00f3c	8b 88 88 00 00
	00		 mov	 ecx, DWORD PTR [eax+136]
  00f42	83 e9 08	 sub	 ecx, 8
  00f45	8b 55 f8	 mov	 edx, DWORD PTR _a1$[ebp]
  00f48	89 4a 1c	 mov	 DWORD PTR [edx+28], ecx

; 5344 : 				ATR_H_POS(a1) = lpDraw->xSize + SCREEN_OUT;

  00f4b	a1 00 00 00 00	 mov	 eax, DWORD PTR ?lpDraw@@3PAUDIRECT_DRAW@@A ; lpDraw
  00f50	8b 88 84 00 00
	00		 mov	 ecx, DWORD PTR [eax+132]
  00f56	83 c1 6a	 add	 ecx, 106		; 0000006aH
  00f59	8b 55 f8	 mov	 edx, DWORD PTR _a1$[ebp]
  00f5c	89 4a 18	 mov	 DWORD PTR [edx+24], ecx
$LN108@master:

; 5345 : 			}
; 5346 : 		case ATT_HIT:		//====================直接攻击===============
; 5347 : 			ATR_VCT_NO(a1) = 1;							//前进

  00f5f	8b 45 f8	 mov	 eax, DWORD PTR _a1$[ebp]
  00f62	8b 48 0c	 mov	 ecx, DWORD PTR [eax+12]
  00f65	c6 01 01	 mov	 BYTE PTR [ecx], 1

; 5348 : 			ATR_BODY_WORK(0, a1) = p_party[get_num()];	//被攻方

  00f68	e8 00 00 00 00	 call	 ?get_num@@YAHXZ		; get_num
  00f6d	8b 4d f8	 mov	 ecx, DWORD PTR _a1$[ebp]
  00f70	8b 51 0c	 mov	 edx, DWORD PTR [ecx+12]
  00f73	b9 04 00 00 00	 mov	 ecx, 4
  00f78	6b c9 00	 imul	 ecx, ecx, 0
  00f7b	8b 04 85 00 00
	00 00		 mov	 eax, DWORD PTR ?p_party@@3PAPAUaction@@A[eax*4]
  00f82	89 44 0a 04	 mov	 DWORD PTR [edx+ecx+4], eax

; 5349 : 
; 5350 : 			//JL fix自己打自己卡住
; 5351 : 			if (ATR_BODY_WORK(0, a1) == a1){//如果自己打自己

  00f86	8b 45 f8	 mov	 eax, DWORD PTR _a1$[ebp]
  00f89	8b 48 0c	 mov	 ecx, DWORD PTR [eax+12]
  00f8c	ba 04 00 00 00	 mov	 edx, 4
  00f91	6b c2 00	 imul	 eax, edx, 0
  00f94	8b 4c 01 04	 mov	 ecx, DWORD PTR [ecx+eax+4]
  00f98	3b 4d f8	 cmp	 ecx, DWORD PTR _a1$[ebp]
  00f9b	75 37		 jne	 SHORT $LN109@master

; 5352 : 				ATR_VCT_NO(a1) = 0; // 待机

  00f9d	8b 45 f8	 mov	 eax, DWORD PTR _a1$[ebp]
  00fa0	8b 48 0c	 mov	 ecx, DWORD PTR [eax+12]
  00fa3	c6 01 00	 mov	 BYTE PTR [ecx], 0

; 5353 : 				ATR_BODY_WORK(0, a1) = NULL;	// 清空

  00fa6	8b 45 f8	 mov	 eax, DWORD PTR _a1$[ebp]
  00fa9	8b 48 0c	 mov	 ecx, DWORD PTR [eax+12]
  00fac	ba 04 00 00 00	 mov	 edx, 4
  00fb1	6b c2 00	 imul	 eax, edx, 0
  00fb4	c7 44 01 04 00
	00 00 00	 mov	 DWORD PTR [ecx+eax+4], 0

; 5354 : 				ATR_BODY_CNT(a0) = 1;

  00fbc	8b 45 08	 mov	 eax, DWORD PTR _a0$[ebp]
  00fbf	8b 48 0c	 mov	 ecx, DWORD PTR [eax+12]
  00fc2	c6 41 54 01	 mov	 BYTE PTR [ecx+84], 1

; 5355 : 				((ATR_EQU *)a0->pYobi)->vct_no = 0; //强制复位可行动

  00fc6	8b 45 08	 mov	 eax, DWORD PTR _a0$[ebp]
  00fc9	8b 48 0c	 mov	 ecx, DWORD PTR [eax+12]
  00fcc	c6 01 00	 mov	 BYTE PTR [ecx], 0

; 5356 : 				break;

  00fcf	e9 9a 1a 00 00	 jmp	 $LN17@master
$LN109@master:

; 5357 : 			}
; 5358 : 
; 5359 : 
; 5360 : 			ATR_ATTACK_KIND(0, a1) = get_num();			//攻击种类

  00fd4	e8 00 00 00 00	 call	 ?get_num@@YAHXZ		; get_num
  00fd9	8b 4d f8	 mov	 ecx, DWORD PTR _a1$[ebp]
  00fdc	8b 51 0c	 mov	 edx, DWORD PTR [ecx+12]
  00fdf	b9 04 00 00 00	 mov	 ecx, 4
  00fe4	6b c9 00	 imul	 ecx, ecx, 0
  00fe7	89 44 0a 60	 mov	 DWORD PTR [edx+ecx+96], eax

; 5361 : 			ATR_ATTACK_POW(0, a1) = get_num();			//攻击力

  00feb	e8 00 00 00 00	 call	 ?get_num@@YAHXZ		; get_num
  00ff0	8b 4d f8	 mov	 ecx, DWORD PTR _a1$[ebp]
  00ff3	8b 51 0c	 mov	 edx, DWORD PTR [ecx+12]
  00ff6	b9 04 00 00 00	 mov	 ecx, 4
  00ffb	6b c9 00	 imul	 ecx, ecx, 0
  00ffe	89 84 0a b0 00
	00 00		 mov	 DWORD PTR [edx+ecx+176], eax

; 5362 : 			if (BattleCmd[command_point] == 'p')

  01005	a1 00 00 00 00	 mov	 eax, DWORD PTR ?command_point@@3HA
  0100a	0f be 88 00 00
	00 00		 movsx	 ecx, BYTE PTR ?BattleCmd@@3PADA[eax]
  01011	83 f9 70	 cmp	 ecx, 112		; 00000070H
  01014	75 1a		 jne	 SHORT $LN110@master

; 5363 : 				ATR_ATTACK_PET_POW(0, a1) = get_num();	//pet攻击力

  01016	e8 00 00 00 00	 call	 ?get_num@@YAHXZ		; get_num
  0101b	8b 4d f8	 mov	 ecx, DWORD PTR _a1$[ebp]
  0101e	8b 51 0c	 mov	 edx, DWORD PTR [ecx+12]
  01021	b9 04 00 00 00	 mov	 ecx, 4
  01026	6b c9 00	 imul	 ecx, ecx, 0
  01029	89 84 0a d4 01
	00 00		 mov	 DWORD PTR [edx+ecx+468], eax
$LN110@master:

; 5364 : #ifdef _STONDEBUG_
; 5365 : 			else
; 5366 : 				LogToBattleError( BattleCmd, __LINE__ );
; 5367 : #endif
; 5368 : 			ATR_BODY_CNT(a0) = 1;

  01030	8b 45 08	 mov	 eax, DWORD PTR _a0$[ebp]
  01033	8b 48 0c	 mov	 ecx, DWORD PTR [eax+12]
  01036	c6 41 54 01	 mov	 BYTE PTR [ecx+84], 1

; 5369 : #ifdef _ATTDOUBLE_ATTACK
; 5370 : 			//andy_add
; 5371 : 			if (ATR_ATTACK_KIND(0, a1) & ATT_ATTDOUBLE || ATR_ATTACK_KIND(0, a1) & BCF_MODIFY)

  0103a	8b 45 f8	 mov	 eax, DWORD PTR _a1$[ebp]
  0103d	8b 48 0c	 mov	 ecx, DWORD PTR [eax+12]
  01040	ba 04 00 00 00	 mov	 edx, 4
  01045	6b c2 00	 imul	 eax, edx, 0
  01048	8b 4c 01 60	 mov	 ecx, DWORD PTR [ecx+eax+96]
  0104c	81 e1 00 00 01
	00		 and	 ecx, 65536		; 00010000H
  01052	75 1a		 jne	 SHORT $LN112@master
  01054	8b 45 f8	 mov	 eax, DWORD PTR _a1$[ebp]
  01057	8b 48 0c	 mov	 ecx, DWORD PTR [eax+12]
  0105a	ba 04 00 00 00	 mov	 edx, 4
  0105f	6b c2 00	 imul	 eax, edx, 0
  01062	8b 4c 01 60	 mov	 ecx, DWORD PTR [ecx+eax+96]
  01066	81 e1 00 00 20
	00		 and	 ecx, 2097152		; 00200000H
  0106c	74 11		 je	 SHORT $LN111@master
$LN112@master:

; 5372 : 				ATR_BATTLEGRANO(a1) = get_num();

  0106e	e8 00 00 00 00	 call	 ?get_num@@YAHXZ		; get_num
  01073	8b 4d f8	 mov	 ecx, DWORD PTR _a1$[ebp]
  01076	8b 51 0c	 mov	 edx, DWORD PTR [ecx+12]
  01079	89 82 44 02 00
	00		 mov	 DWORD PTR [edx+580], eax
$LN111@master:

; 5373 : #endif
; 5374 : #ifdef _ATTACK_EFFECT
; 5375 : 			//修正忠犬  xiezi
; 5376 : 			if (BattleCmd[command_point] == 's')

  0107f	a1 00 00 00 00	 mov	 eax, DWORD PTR ?command_point@@3HA
  01084	0f be 88 00 00
	00 00		 movsx	 ecx, BYTE PTR ?BattleCmd@@3PADA[eax]
  0108b	83 f9 73	 cmp	 ecx, 115		; 00000073H
  0108e	75 1a		 jne	 SHORT $LN113@master

; 5377 : 				ATR_LONG_WORK(0, a1) = get_num();	// 记录特效编号

  01090	e8 00 00 00 00	 call	 ?get_num@@YAHXZ		; get_num
  01095	8b 4d f8	 mov	 ecx, DWORD PTR _a1$[ebp]
  01098	8b 51 0c	 mov	 edx, DWORD PTR [ecx+12]
  0109b	b9 04 00 00 00	 mov	 ecx, 4
  010a0	6b c9 00	 imul	 ecx, ecx, 0
  010a3	89 84 0a 34 01
	00 00		 mov	 DWORD PTR [edx+ecx+308], eax
$LN113@master:

; 5378 : #endif
; 5379 : 			break;

  010aa	e9 bf 19 00 00	 jmp	 $LN17@master
$LN114@master:

; 5380 : #ifdef _MAGIC_DEEPPOISION
; 5381 : 		case ATT_DEEPPOISION:	//剧毒
; 5382 : 			ATR_VCT_NO(a1) = 1;	//攻方动作

  010af	8b 45 f8	 mov	 eax, DWORD PTR _a1$[ebp]
  010b2	8b 48 0c	 mov	 ecx, DWORD PTR [eax+12]
  010b5	c6 01 01	 mov	 BYTE PTR [ecx], 1

; 5383 : 			ATR_BODY_WORK(0, a1) = p_party[get_num()];//攻方编号

  010b8	e8 00 00 00 00	 call	 ?get_num@@YAHXZ		; get_num
  010bd	8b 4d f8	 mov	 ecx, DWORD PTR _a1$[ebp]
  010c0	8b 51 0c	 mov	 edx, DWORD PTR [ecx+12]
  010c3	b9 04 00 00 00	 mov	 ecx, 4
  010c8	6b c9 00	 imul	 ecx, ecx, 0
  010cb	8b 04 85 00 00
	00 00		 mov	 eax, DWORD PTR ?p_party@@3PAPAUaction@@A[eax*4]
  010d2	89 44 0a 04	 mov	 DWORD PTR [edx+ecx+4], eax

; 5384 : 			ATR_ATTACK_KIND(0, a1) = get_num();		//我方防御种类

  010d6	e8 00 00 00 00	 call	 ?get_num@@YAHXZ		; get_num
  010db	8b 4d f8	 mov	 ecx, DWORD PTR _a1$[ebp]
  010de	8b 51 0c	 mov	 edx, DWORD PTR [ecx+12]
  010e1	b9 04 00 00 00	 mov	 ecx, 4
  010e6	6b c9 00	 imul	 ecx, ecx, 0
  010e9	89 44 0a 60	 mov	 DWORD PTR [edx+ecx+96], eax

; 5385 : 			ATR_ATTACK_POW(0, a1) = get_num();		//攻击力

  010ed	e8 00 00 00 00	 call	 ?get_num@@YAHXZ		; get_num
  010f2	8b 4d f8	 mov	 ecx, DWORD PTR _a1$[ebp]
  010f5	8b 51 0c	 mov	 edx, DWORD PTR [ecx+12]
  010f8	b9 04 00 00 00	 mov	 ecx, 4
  010fd	6b c9 00	 imul	 ecx, ecx, 0
  01100	89 84 0a b0 00
	00 00		 mov	 DWORD PTR [edx+ecx+176], eax

; 5386 : 			ATR_ATTACK_PET_POW(0, a1) = get_num();//骑宠损伤

  01107	e8 00 00 00 00	 call	 ?get_num@@YAHXZ		; get_num
  0110c	8b 4d f8	 mov	 ecx, DWORD PTR _a1$[ebp]
  0110f	8b 51 0c	 mov	 edx, DWORD PTR [ecx+12]
  01112	b9 04 00 00 00	 mov	 ecx, 4
  01117	6b c9 00	 imul	 ecx, ecx, 0
  0111a	89 84 0a d4 01
	00 00		 mov	 DWORD PTR [edx+ecx+468], eax

; 5387 : 			ATR_BODY_CNT(a0) = 1;//攻击次数

  01121	8b 45 08	 mov	 eax, DWORD PTR _a0$[ebp]
  01124	8b 48 0c	 mov	 ecx, DWORD PTR [eax+12]
  01127	c6 41 54 01	 mov	 BYTE PTR [ecx+84], 1

; 5388 : 			ATR_DEEPPOISION(a1) = 1;

  0112b	8b 45 f8	 mov	 eax, DWORD PTR _a1$[ebp]
  0112e	c7 80 d8 01 00
	00 01 00 00 00	 mov	 DWORD PTR [eax+472], 1

; 5389 : 			break;

  01138	e9 31 19 00 00	 jmp	 $LN17@master
$LN115@master:

; 5390 : #endif
; 5391 : 			//andy_mp
; 5392 : 		case ATT_MPDAMAGE://MP伤害
; 5393 : 			ATR_VCT_NO(a1) = 1;

  0113d	8b 45 f8	 mov	 eax, DWORD PTR _a1$[ebp]
  01140	8b 48 0c	 mov	 ecx, DWORD PTR [eax+12]
  01143	c6 01 01	 mov	 BYTE PTR [ecx], 1

; 5394 : 			ATR_BODY_WORK(0, a1) = p_party[get_num()];

  01146	e8 00 00 00 00	 call	 ?get_num@@YAHXZ		; get_num
  0114b	8b 4d f8	 mov	 ecx, DWORD PTR _a1$[ebp]
  0114e	8b 51 0c	 mov	 edx, DWORD PTR [ecx+12]
  01151	b9 04 00 00 00	 mov	 ecx, 4
  01156	6b c9 00	 imul	 ecx, ecx, 0
  01159	8b 04 85 00 00
	00 00		 mov	 eax, DWORD PTR ?p_party@@3PAPAUaction@@A[eax*4]
  01160	89 44 0a 04	 mov	 DWORD PTR [edx+ecx+4], eax

; 5395 : 			ATR_ATTACK_KIND(0, a1) = get_num();

  01164	e8 00 00 00 00	 call	 ?get_num@@YAHXZ		; get_num
  01169	8b 4d f8	 mov	 ecx, DWORD PTR _a1$[ebp]
  0116c	8b 51 0c	 mov	 edx, DWORD PTR [ecx+12]
  0116f	b9 04 00 00 00	 mov	 ecx, 4
  01174	6b c9 00	 imul	 ecx, ecx, 0
  01177	89 44 0a 60	 mov	 DWORD PTR [edx+ecx+96], eax

; 5396 : 			ATR_ATTACK_POW(0, a1) = get_num();

  0117b	e8 00 00 00 00	 call	 ?get_num@@YAHXZ		; get_num
  01180	8b 4d f8	 mov	 ecx, DWORD PTR _a1$[ebp]
  01183	8b 51 0c	 mov	 edx, DWORD PTR [ecx+12]
  01186	b9 04 00 00 00	 mov	 ecx, 4
  0118b	6b c9 00	 imul	 ecx, ecx, 0
  0118e	89 84 0a b0 00
	00 00		 mov	 DWORD PTR [edx+ecx+176], eax

; 5397 : 			ATR_ATTACK_PET_POW(0, a1) = get_num();

  01195	e8 00 00 00 00	 call	 ?get_num@@YAHXZ		; get_num
  0119a	8b 4d f8	 mov	 ecx, DWORD PTR _a1$[ebp]
  0119d	8b 51 0c	 mov	 edx, DWORD PTR [ecx+12]
  011a0	b9 04 00 00 00	 mov	 ecx, 4
  011a5	6b c9 00	 imul	 ecx, ecx, 0
  011a8	89 84 0a d4 01
	00 00		 mov	 DWORD PTR [edx+ecx+468], eax

; 5398 : 			ATR_MPDAMAGE(a1) = get_num();

  011af	e8 00 00 00 00	 call	 ?get_num@@YAHXZ		; get_num
  011b4	8b 4d f8	 mov	 ecx, DWORD PTR _a1$[ebp]
  011b7	8b 51 0c	 mov	 edx, DWORD PTR [ecx+12]
  011ba	89 82 30 02 00
	00		 mov	 DWORD PTR [edx+560], eax

; 5399 : 			ATR_BODY_CNT(a0) = 1;

  011c0	8b 45 08	 mov	 eax, DWORD PTR _a0$[ebp]
  011c3	8b 48 0c	 mov	 ecx, DWORD PTR [eax+12]
  011c6	c6 41 54 01	 mov	 BYTE PTR [ecx+84], 1

; 5400 : 			ATR_MPDFLG(a1) = 1;

  011ca	8b 45 f8	 mov	 eax, DWORD PTR _a1$[ebp]
  011cd	8b 48 0c	 mov	 ecx, DWORD PTR [eax+12]
  011d0	c7 81 38 02 00
	00 01 00 00 00	 mov	 DWORD PTR [ecx+568], 1

; 5401 : 			break;	//set_damage_num( a1, 16, -64 )

  011da	e9 8f 18 00 00	 jmp	 $LN17@master
$LN116@master:

; 5402 : 
; 5403 : 		case ATT_DAMAGETOHP:
; 5404 : 			ATR_VCT_NO(a1) = 1;

  011df	8b 45 f8	 mov	 eax, DWORD PTR _a1$[ebp]
  011e2	8b 48 0c	 mov	 ecx, DWORD PTR [eax+12]
  011e5	c6 01 01	 mov	 BYTE PTR [ecx], 1

; 5405 : 			ATR_BODY_WORK(0, a1) = p_party[get_num()];

  011e8	e8 00 00 00 00	 call	 ?get_num@@YAHXZ		; get_num
  011ed	8b 4d f8	 mov	 ecx, DWORD PTR _a1$[ebp]
  011f0	8b 51 0c	 mov	 edx, DWORD PTR [ecx+12]
  011f3	b9 04 00 00 00	 mov	 ecx, 4
  011f8	6b c9 00	 imul	 ecx, ecx, 0
  011fb	8b 04 85 00 00
	00 00		 mov	 eax, DWORD PTR ?p_party@@3PAPAUaction@@A[eax*4]
  01202	89 44 0a 04	 mov	 DWORD PTR [edx+ecx+4], eax

; 5406 : 			ATR_ATTACK_KIND(0, a1) = get_num();

  01206	e8 00 00 00 00	 call	 ?get_num@@YAHXZ		; get_num
  0120b	8b 4d f8	 mov	 ecx, DWORD PTR _a1$[ebp]
  0120e	8b 51 0c	 mov	 edx, DWORD PTR [ecx+12]
  01211	b9 04 00 00 00	 mov	 ecx, 4
  01216	6b c9 00	 imul	 ecx, ecx, 0
  01219	89 44 0a 60	 mov	 DWORD PTR [edx+ecx+96], eax

; 5407 : 			ATR_ATTACK_POW(0, a1) = get_num();

  0121d	e8 00 00 00 00	 call	 ?get_num@@YAHXZ		; get_num
  01222	8b 4d f8	 mov	 ecx, DWORD PTR _a1$[ebp]
  01225	8b 51 0c	 mov	 edx, DWORD PTR [ecx+12]
  01228	b9 04 00 00 00	 mov	 ecx, 4
  0122d	6b c9 00	 imul	 ecx, ecx, 0
  01230	89 84 0a b0 00
	00 00		 mov	 DWORD PTR [edx+ecx+176], eax

; 5408 : 			ATR_ATTACK_PET_POW(0, a1) = get_num();

  01237	e8 00 00 00 00	 call	 ?get_num@@YAHXZ		; get_num
  0123c	8b 4d f8	 mov	 ecx, DWORD PTR _a1$[ebp]
  0123f	8b 51 0c	 mov	 edx, DWORD PTR [ecx+12]
  01242	b9 04 00 00 00	 mov	 ecx, 4
  01247	6b c9 00	 imul	 ecx, ecx, 0
  0124a	89 84 0a d4 01
	00 00		 mov	 DWORD PTR [edx+ecx+468], eax

; 5409 : 			ATR_ADDHP(a1) = get_num();

  01251	e8 00 00 00 00	 call	 ?get_num@@YAHXZ		; get_num
  01256	8b 4d f8	 mov	 ecx, DWORD PTR _a1$[ebp]
  01259	8b 51 0c	 mov	 edx, DWORD PTR [ecx+12]
  0125c	89 82 34 02 00
	00		 mov	 DWORD PTR [edx+564], eax

; 5410 : 			ATR_BODY_CNT(a0) = 1;

  01262	8b 45 08	 mov	 eax, DWORD PTR _a0$[ebp]
  01265	8b 48 0c	 mov	 ecx, DWORD PTR [eax+12]
  01268	c6 41 54 01	 mov	 BYTE PTR [ecx+84], 1

; 5411 : 			ATR_SHOWADDHP(a1) = 1;

  0126c	8b 45 f8	 mov	 eax, DWORD PTR _a1$[ebp]
  0126f	8b 48 0c	 mov	 ecx, DWORD PTR [eax+12]
  01272	c7 81 40 02 00
	00 01 00 00 00	 mov	 DWORD PTR [ecx+576], 1

; 5412 : 			ATR_ADDHPFLG(a1) = 1;

  0127c	8b 45 f8	 mov	 eax, DWORD PTR _a1$[ebp]
  0127f	8b 48 0c	 mov	 ecx, DWORD PTR [eax+12]
  01282	c7 81 3c 02 00
	00 01 00 00 00	 mov	 DWORD PTR [ecx+572], 1

; 5413 : 			break;

  0128c	e9 dd 17 00 00	 jmp	 $LN17@master
$LN117@master:

; 5414 : 			//BF jibun_5
; 5415 : 		case ATT_FADE_OUT:		//??????????  ???  ??????????
; 5416 : 			ATR_VCT_NO(a1) = 80;		//?~?

  01291	8b 45 f8	 mov	 eax, DWORD PTR _a1$[ebp]
  01294	8b 48 0c	 mov	 ecx, DWORD PTR [eax+12]
  01297	c6 01 50	 mov	 BYTE PTR [ecx], 80	; 00000050H

; 5417 : 			//??????
; 5418 : 			ATR_ATTACK_KIND(2, a1) = 1;

  0129a	8b 45 f8	 mov	 eax, DWORD PTR _a1$[ebp]
  0129d	8b 48 0c	 mov	 ecx, DWORD PTR [eax+12]
  012a0	ba 04 00 00 00	 mov	 edx, 4
  012a5	d1 e2		 shl	 edx, 1
  012a7	c7 44 11 60 01
	00 00 00	 mov	 DWORD PTR [ecx+edx+96], 1

; 5419 : 			ATR_BODY_CNT(a0) = 1;

  012af	8b 45 08	 mov	 eax, DWORD PTR _a0$[ebp]
  012b2	8b 48 0c	 mov	 ecx, DWORD PTR [eax+12]
  012b5	c6 41 54 01	 mov	 BYTE PTR [ecx+84], 1

; 5420 : 			break;

  012b9	e9 b0 17 00 00	 jmp	 $LN17@master
$LN118@master:

; 5421 : 			//BN|???哀k?|?????k?|
; 5422 : 		case ATT_NEXT_EQUIP:		//??????????  ??  ??????????
; 5423 : 			ATR_VCT_NO(a1) = 82;		//??

  012be	8b 45 f8	 mov	 eax, DWORD PTR _a1$[ebp]
  012c1	8b 48 0c	 mov	 ecx, DWORD PTR [eax+12]
  012c4	c6 01 52	 mov	 BYTE PTR [ecx], 82	; 00000052H

; 5424 : 			ATR_BODY_CNT(a0) = 1;

  012c7	8b 45 08	 mov	 eax, DWORD PTR _a0$[ebp]
  012ca	8b 48 0c	 mov	 ecx, DWORD PTR [eax+12]
  012cd	c6 41 54 01	 mov	 BYTE PTR [ecx+84], 1

; 5425 : 			break;

  012d1	e9 98 17 00 00	 jmp	 $LN17@master
$LN119@master:

; 5426 : 			//BJ|Attacker's No( 0 - 19 )|Attacker's MP|Attacker's animation index|
; 5427 : 			//                                                Opposite's animation index|Opposite's index ...
; 5428 : 			//BJ|???哀k?|??|????????k?|??????????k?|?????|?????|FF
; 5429 : 		case ATT_JUJUTSU:		//??????????  鳇  ??????????
; 5430 : 			ATR_VCT_NO(a1) = 75;		//??鳇印ua??

  012d6	8b 45 f8	 mov	 eax, DWORD PTR _a1$[ebp]
  012d9	8b 48 0c	 mov	 ecx, DWORD PTR [eax+12]
  012dc	c6 01 4b	 mov	 BYTE PTR [ecx], 75	; 0000004bH

; 5431 : 			ATR_MP(a1) = get_num();		//?????

  012df	e8 00 00 00 00	 call	 ?get_num@@YAHXZ		; get_num
  012e4	8b 4d f8	 mov	 ecx, DWORD PTR _a1$[ebp]
  012e7	89 81 84 00 00
	00		 mov	 DWORD PTR [ecx+132], eax

; 5432 : 			ATR_BODY_CNT(a0) = 1;

  012ed	8b 45 08	 mov	 eax, DWORD PTR _a0$[ebp]
  012f0	8b 48 0c	 mov	 ecx, DWORD PTR [eax+12]
  012f3	c6 41 54 01	 mov	 BYTE PTR [ecx+84], 1

; 5433 : #ifdef __ATTACK_MAGIC
; 5434 : 			if (ATTACK_MAGIC_ID == ATR_MP(a1))

  012f7	8b 45 f8	 mov	 eax, DWORD PTR _a1$[ebp]
  012fa	81 b8 84 00 00
	00 4e 61 bc 00	 cmp	 DWORD PTR [eax+132], 12345678 ; 00bc614eH
  01304	75 10		 jne	 SHORT $LN120@master

; 5435 : 				BuildAttackMagicData(a0, a1);

  01306	8b 45 f8	 mov	 eax, DWORD PTR _a1$[ebp]
  01309	50		 push	 eax
  0130a	8b 4d 08	 mov	 ecx, DWORD PTR _a0$[ebp]
  0130d	51		 push	 ecx
  0130e	e8 00 00 00 00	 call	 ?BuildAttackMagicData@@YAHPAUaction@@0@Z ; BuildAttackMagicData
  01313	83 c4 08	 add	 esp, 8
$LN120@master:

; 5436 : #endif
; 5437 : 			break;

  01316	e9 53 17 00 00	 jmp	 $LN17@master
$LN121@master:

; 5438 : 		case ATT_TOCALL:
; 5439 : 			ATR_VCT_NO(a1) = 2;		//??鳇印ua??

  0131b	8b 45 f8	 mov	 eax, DWORD PTR _a1$[ebp]
  0131e	8b 48 0c	 mov	 ecx, DWORD PTR [eax+12]
  01321	c6 01 02	 mov	 BYTE PTR [ecx], 2

; 5440 : 			ATR_MP(a1) = get_num();		//?????

  01324	e8 00 00 00 00	 call	 ?get_num@@YAHXZ		; get_num
  01329	8b 4d f8	 mov	 ecx, DWORD PTR _a1$[ebp]
  0132c	89 81 84 00 00
	00		 mov	 DWORD PTR [ecx+132], eax

; 5441 : 			ATR_BODY_CNT(a0) = 1;

  01332	8b 45 08	 mov	 eax, DWORD PTR _a0$[ebp]
  01335	8b 48 0c	 mov	 ecx, DWORD PTR [eax+12]
  01338	c6 41 54 01	 mov	 BYTE PTR [ecx+84], 1

; 5442 : #ifdef __TOCALL_MAGIC
; 5443 : 			if (TOCALL_MAGIC_ID == ATR_MP(a1))

  0133c	8b 45 f8	 mov	 eax, DWORD PTR _a1$[ebp]
  0133f	81 b8 84 00 00
	00 4e 26 57 00	 cmp	 DWORD PTR [eax+132], 5711438 ; 0057264eH
  01349	75 10		 jne	 SHORT $LN122@master

; 5444 : 				BuildToCallMagicData(a0, a1);

  0134b	8b 45 f8	 mov	 eax, DWORD PTR _a1$[ebp]
  0134e	50		 push	 eax
  0134f	8b 4d 08	 mov	 ecx, DWORD PTR _a0$[ebp]
  01352	51		 push	 ecx
  01353	e8 00 00 00 00	 call	 ?BuildToCallMagicData@@YAHPAUaction@@0@Z ; BuildToCallMagicData
  01358	83 c4 08	 add	 esp, 8
$LN122@master:

; 5445 : #endif
; 5446 : 			break;

  0135b	e9 0e 17 00 00	 jmp	 $LN17@master
$LN123@master:

; 5447 : 		case ATT_MALFUNCTION:		//??????????  Ol鳇  ??????????
; 5448 : 			d0 = get_num();		//鳇缨k???

  01360	e8 00 00 00 00	 call	 ?get_num@@YAHXZ		; get_num
  01365	89 45 d4	 mov	 DWORD PTR _d0$[ebp], eax

; 5449 : 			ATR_STATUS(a1) = d0;		//????????

  01368	8b 45 f8	 mov	 eax, DWORD PTR _a1$[ebp]
  0136b	8b 4d d4	 mov	 ecx, DWORD PTR _d0$[ebp]
  0136e	89 88 90 00 00
	00		 mov	 DWORD PTR [eax+144], ecx

; 5450 : 			switch (d0)

  01374	8b 45 d4	 mov	 eax, DWORD PTR _d0$[ebp]
  01377	89 85 28 fe ff
	ff		 mov	 DWORD PTR tv781[ebp], eax
  0137d	83 bd 28 fe ff
	ff 00		 cmp	 DWORD PTR tv781[ebp], 0
  01384	74 1b		 je	 SHORT $LN124@master
  01386	83 bd 28 fe ff
	ff 02		 cmp	 DWORD PTR tv781[ebp], 2
  0138d	74 65		 je	 SHORT $LN125@master
  0138f	83 bd 28 fe ff
	ff 1f		 cmp	 DWORD PTR tv781[ebp], 31 ; 0000001fH
  01396	0f 84 9b 00 00
	00		 je	 $LN128@master
  0139c	e9 a1 00 00 00	 jmp	 $LN129@master
$LN124@master:

; 5451 : 			{
; 5452 : 				//??
; 5453 : 			case 0:
; 5454 : 				ATR_VCT_NO(a0) = 0;		//????

  013a1	8b 45 08	 mov	 eax, DWORD PTR _a0$[ebp]
  013a4	8b 48 0c	 mov	 ecx, DWORD PTR [eax+12]
  013a7	c6 01 00	 mov	 BYTE PTR [ecx], 0

; 5455 : 				a2 = ATR_JUJUTSU_WORK(a1);

  013aa	8b 45 f8	 mov	 eax, DWORD PTR _a1$[ebp]
  013ad	8b 48 0c	 mov	 ecx, DWORD PTR [eax+12]
  013b0	c6 85 33 fe ff
	ff 01		 mov	 BYTE PTR $T1[ebp], 1
  013b7	8b 91 10 01 00
	00		 mov	 edx, DWORD PTR [ecx+272]
  013bd	89 55 ec	 mov	 DWORD PTR _a2$[ebp], edx

; 5456 : 				ATR_JUJUTSU_WORK(a1) = NULL;

  013c0	8b 45 f8	 mov	 eax, DWORD PTR _a1$[ebp]
  013c3	8b 48 0c	 mov	 ecx, DWORD PTR [eax+12]
  013c6	c7 81 10 01 00
	00 00 00 00 00	 mov	 DWORD PTR [ecx+272], 0

; 5457 : 				DeathAction(a2);		//?

  013d0	80 bd 33 fe ff
	ff 00		 cmp	 BYTE PTR $T1[ebp], 0
  013d7	75 0d		 jne	 SHORT $LN302@master
  013d9	68 00 00 00 00	 push	 OFFSET $LN269@master
  013de	e8 00 00 00 00	 call	 __RTC_UninitUse
  013e3	83 c4 04	 add	 esp, 4
$LN302@master:
  013e6	8b 45 ec	 mov	 eax, DWORD PTR _a2$[ebp]
  013e9	50		 push	 eax
  013ea	e8 00 00 00 00	 call	 ?DeathAction@@YAXPAUaction@@@Z ; DeathAction
  013ef	83 c4 04	 add	 esp, 4

; 5458 : 				break;

  013f2	eb 67		 jmp	 SHORT $LN19@master
$LN125@master:

; 5459 : 				//??
; 5460 : 			case 2:
; 5461 : 				//?????
; 5462 : 				if (ATR_LIFE(a1) > 0)

  013f4	8b 45 f8	 mov	 eax, DWORD PTR _a1$[ebp]
  013f7	83 78 78 00	 cmp	 DWORD PTR [eax+120], 0
  013fb	7e 2f		 jle	 SHORT $LN126@master

; 5463 : 				{
; 5464 : 					ATR_BODY_CNT(a0) = 1;

  013fd	8b 45 08	 mov	 eax, DWORD PTR _a0$[ebp]
  01400	8b 48 0c	 mov	 ecx, DWORD PTR [eax+12]
  01403	c6 41 54 01	 mov	 BYTE PTR [ecx+84], 1

; 5465 : 					ATR_VCT_NO(a1) = 105;		//??r??

  01407	8b 45 f8	 mov	 eax, DWORD PTR _a1$[ebp]
  0140a	8b 48 0c	 mov	 ecx, DWORD PTR [eax+12]
  0140d	c6 01 69	 mov	 BYTE PTR [ecx], 105	; 00000069H

; 5466 : 					ATR_STIMER(a1) = 60;

  01410	8b 45 f8	 mov	 eax, DWORD PTR _a1$[ebp]
  01413	8b 48 0c	 mov	 ecx, DWORD PTR [eax+12]
  01416	c6 41 01 3c	 mov	 BYTE PTR [ecx+1], 60	; 0000003cH

; 5467 : 					set_single_jujutsu(d0, a1);		//Ol鳇???

  0141a	8b 45 f8	 mov	 eax, DWORD PTR _a1$[ebp]
  0141d	50		 push	 eax
  0141e	8b 4d d4	 mov	 ecx, DWORD PTR _d0$[ebp]
  01421	51		 push	 ecx
  01422	e8 00 00 00 00	 call	 ?set_single_jujutsu@@YAXHPAUaction@@@Z ; set_single_jujutsu
  01427	83 c4 08	 add	 esp, 8

; 5468 : 				}
; 5469 : 				else

  0142a	eb 09		 jmp	 SHORT $LN127@master
$LN126@master:

; 5470 : 					ATR_VCT_NO(a0) = 0;		//????

  0142c	8b 45 08	 mov	 eax, DWORD PTR _a0$[ebp]
  0142f	8b 48 0c	 mov	 ecx, DWORD PTR [eax+12]
  01432	c6 01 00	 mov	 BYTE PTR [ecx], 0
$LN127@master:

; 5471 : 				break;

  01435	eb 24		 jmp	 SHORT $LN19@master
$LN128@master:

; 5472 : 			case 31:                     //JL fix 新增31的处理，自然威能是31,不设置状态
; 5473 : 				ATR_VCT_NO(a0) = 0;

  01437	8b 45 08	 mov	 eax, DWORD PTR _a0$[ebp]
  0143a	8b 48 0c	 mov	 ecx, DWORD PTR [eax+12]
  0143d	c6 01 00	 mov	 BYTE PTR [ecx], 0

; 5474 : 				break;

  01440	eb 19		 jmp	 SHORT $LN19@master
$LN129@master:

; 5475 : 			default:
; 5476 : 				ATR_VCT_NO(a0) = 0;		//????

  01442	8b 45 08	 mov	 eax, DWORD PTR _a0$[ebp]
  01445	8b 48 0c	 mov	 ecx, DWORD PTR [eax+12]
  01448	c6 01 00	 mov	 BYTE PTR [ecx], 0

; 5477 : 				set_single_jujutsu(d0, a1);		//Ol鳇???

  0144b	8b 45 f8	 mov	 eax, DWORD PTR _a1$[ebp]
  0144e	50		 push	 eax
  0144f	8b 4d d4	 mov	 ecx, DWORD PTR _d0$[ebp]
  01452	51		 push	 ecx
  01453	e8 00 00 00 00	 call	 ?set_single_jujutsu@@YAXHPAUaction@@@Z ; set_single_jujutsu
  01458	83 c4 08	 add	 esp, 8
$LN19@master:

; 5478 : 				break;
; 5479 : 			}
; 5480 : 			break;

  0145b	e9 0e 16 00 00	 jmp	 $LN17@master
$LN130@master:

; 5481 : 			//ATR_ATTACK_KIND(a1);
; 5482 : 			/*
; 5483 : 					case ATT_MAGICSTATUS:	//andy_add magicstatus
; 5484 : 					d0 = get_num();
; 5485 : 					ATR_STATUS(a1) = d0;
; 5486 : 					switch (d0){
; 5487 : 					case 0:
; 5488 : 					ATR_VCT_NO(a0) = 0;
; 5489 : 					a2 = ATR_MAGICSU_WORK(a1);
; 5490 : 					ATR_MAGICSU_WORK(a1) = NULL;
; 5491 : 					DeathAction( a2 );
; 5492 : 					break;
; 5493 : 
; 5494 : 					default:
; 5495 : 					ATR_VCT_NO(a0) = 0;
; 5496 : 					set_magic_status(d0, a1);
; 5497 : 					break;
; 5498 : 					}
; 5499 : 					break;
; 5500 : 					*/
; 5501 : 
; 5502 : 			// ???????????????????k
; 5503 : 		case ATT_DAMAGE:
; 5504 : 			ATR_BODY_CNT(a0) = 1;

  01460	8b 45 08	 mov	 eax, DWORD PTR _a0$[ebp]
  01463	8b 48 0c	 mov	 ecx, DWORD PTR [eax+12]
  01466	c6 41 54 01	 mov	 BYTE PTR [ecx+84], 1

; 5505 : 			ATR_VCT_NO(a1) = 79;

  0146a	8b 45 f8	 mov	 eax, DWORD PTR _a1$[ebp]
  0146d	8b 48 0c	 mov	 ecx, DWORD PTR [eax+12]
  01470	c6 01 4f	 mov	 BYTE PTR [ecx], 79	; 0000004fH

; 5506 : 			ATR_LONG_WORK(0, a1) = 0;

  01473	8b 45 f8	 mov	 eax, DWORD PTR _a1$[ebp]
  01476	8b 48 0c	 mov	 ecx, DWORD PTR [eax+12]
  01479	ba 04 00 00 00	 mov	 edx, 4
  0147e	6b c2 00	 imul	 eax, edx, 0
  01481	c7 84 01 34 01
	00 00 00 00 00
	00		 mov	 DWORD PTR [ecx+eax+308], 0

; 5507 : 			d2 = d0 = get_num();

  0148c	e8 00 00 00 00	 call	 ?get_num@@YAHXZ		; get_num
  01491	89 45 d4	 mov	 DWORD PTR _d0$[ebp], eax
  01494	8b 45 d4	 mov	 eax, DWORD PTR _d0$[ebp]
  01497	89 45 bc	 mov	 DWORD PTR _d2$[ebp], eax

; 5508 : 			d3 = d1 = get_num();

  0149a	e8 00 00 00 00	 call	 ?get_num@@YAHXZ		; get_num
  0149f	89 45 c8	 mov	 DWORD PTR _d1$[ebp], eax
  014a2	8b 45 c8	 mov	 eax, DWORD PTR _d1$[ebp]
  014a5	89 45 b0	 mov	 DWORD PTR _d3$[ebp], eax
$att_damage_loop$329:

; 5509 : 		att_damage_loop:
; 5510 : 			ATR_DAMAGE(a1) = get_num();

  014a8	e8 00 00 00 00	 call	 ?get_num@@YAHXZ		; get_num
  014ad	8b 4d f8	 mov	 ecx, DWORD PTR _a1$[ebp]
  014b0	8b 51 0c	 mov	 edx, DWORD PTR [ecx+12]
  014b3	89 42 58	 mov	 DWORD PTR [edx+88], eax

; 5511 : 			if (BattleCmd[command_point] == 'p')

  014b6	a1 00 00 00 00	 mov	 eax, DWORD PTR ?command_point@@3HA
  014bb	0f be 88 00 00
	00 00		 movsx	 ecx, BYTE PTR ?BattleCmd@@3PADA[eax]
  014c2	83 f9 70	 cmp	 ecx, 112		; 00000070H
  014c5	75 11		 jne	 SHORT $LN131@master

; 5512 : 				ATR_PET_DAMAGE(a1) = get_num();		//pet damage

  014c7	e8 00 00 00 00	 call	 ?get_num@@YAHXZ		; get_num
  014cc	8b 4d f8	 mov	 ecx, DWORD PTR _a1$[ebp]
  014cf	8b 51 0c	 mov	 edx, DWORD PTR [ecx+12]
  014d2	89 82 24 02 00
	00		 mov	 DWORD PTR [edx+548], eax
$LN131@master:

; 5513 : 
; 5514 : 			switch (d0)

  014d8	8b 45 d4	 mov	 eax, DWORD PTR _d0$[ebp]
  014db	89 85 28 fe ff
	ff		 mov	 DWORD PTR tv830[ebp], eax
  014e1	83 bd 28 fe ff
	ff 00		 cmp	 DWORD PTR tv830[ebp], 0
  014e8	74 1f		 je	 SHORT $LN132@master
  014ea	83 bd 28 fe ff
	ff 01		 cmp	 DWORD PTR tv830[ebp], 1
  014f1	0f 84 64 04 00
	00		 je	 $LN152@master
  014f7	83 bd 28 fe ff
	ff 03		 cmp	 DWORD PTR tv830[ebp], 3
  014fe	0f 84 20 05 00
	00		 je	 $LN157@master
  01504	e9 2b 05 00 00	 jmp	 $LN21@master
$LN132@master:

; 5515 : 			{
; 5516 : 			case 0:
; 5517 : 				switch (d1)

  01509	8b 45 c8	 mov	 eax, DWORD PTR _d1$[ebp]
  0150c	89 85 28 fe ff
	ff		 mov	 DWORD PTR tv831[ebp], eax
  01512	83 bd 28 fe ff
	ff 08		 cmp	 DWORD PTR tv831[ebp], 8
  01519	0f 87 37 04 00
	00		 ja	 $LN23@master
  0151f	8b 8d 28 fe ff
	ff		 mov	 ecx, DWORD PTR tv831[ebp]
  01525	ff 24 8d 00 00
	00 00		 jmp	 DWORD PTR $LN327@master[ecx*4]
$LN133@master:

; 5518 : 				{
; 5519 : 				case 0:
; 5520 : 					set_damage_num(a1, 6, -64);

  0152c	6a c0		 push	 -64			; ffffffc0H
  0152e	6a 06		 push	 6
  01530	8b 45 f8	 mov	 eax, DWORD PTR _a1$[ebp]
  01533	50		 push	 eax
  01534	e8 00 00 00 00	 call	 ?set_damage_num@@YAXPAUaction@@HH@Z ; set_damage_num
  01539	83 c4 0c	 add	 esp, 12			; 0000000cH

; 5521 : 					ATR_LIFE(a1) -= ATR_DAMAGE(a1);

  0153c	8b 45 f8	 mov	 eax, DWORD PTR _a1$[ebp]
  0153f	8b 48 0c	 mov	 ecx, DWORD PTR [eax+12]
  01542	8b 55 f8	 mov	 edx, DWORD PTR _a1$[ebp]
  01545	8b 42 78	 mov	 eax, DWORD PTR [edx+120]
  01548	2b 41 58	 sub	 eax, DWORD PTR [ecx+88]
  0154b	8b 4d f8	 mov	 ecx, DWORD PTR _a1$[ebp]
  0154e	89 41 78	 mov	 DWORD PTR [ecx+120], eax

; 5522 : 					set_jujutsu_hit_mark(a1);		//鳇??????

  01551	8b 45 f8	 mov	 eax, DWORD PTR _a1$[ebp]
  01554	50		 push	 eax
  01555	e8 00 00 00 00	 call	 ?set_jujutsu_hit_mark@@YAXPAUaction@@@Z ; set_jujutsu_hit_mark
  0155a	83 c4 04	 add	 esp, 4

; 5523 : 					if (ATR_LIFE(a1) <= 0)		//??????

  0155d	8b 45 f8	 mov	 eax, DWORD PTR _a1$[ebp]
  01560	83 78 78 00	 cmp	 DWORD PTR [eax+120], 0
  01564	7f 17		 jg	 SHORT $LN134@master

; 5524 : 					{
; 5525 : 						ATR_LIFE(a1) = 0;

  01566	8b 45 f8	 mov	 eax, DWORD PTR _a1$[ebp]
  01569	c7 40 78 00 00
	00 00		 mov	 DWORD PTR [eax+120], 0

; 5526 : 						slow_flg++;		//????

  01570	a1 00 00 00 00	 mov	 eax, DWORD PTR ?slow_flg@@3HA ; slow_flg
  01575	83 c0 01	 add	 eax, 1
  01578	a3 00 00 00 00	 mov	 DWORD PTR ?slow_flg@@3HA, eax ; slow_flg
$LN134@master:

; 5527 : 					}
; 5528 : 					ATR_PET_LIFE(a1) -= ATR_PET_DAMAGE(a1);

  0157d	8b 45 f8	 mov	 eax, DWORD PTR _a1$[ebp]
  01580	8b 48 0c	 mov	 ecx, DWORD PTR [eax+12]
  01583	8b 55 f8	 mov	 edx, DWORD PTR _a1$[ebp]
  01586	8b 82 b0 01 00
	00		 mov	 eax, DWORD PTR [edx+432]
  0158c	2b 81 24 02 00
	00		 sub	 eax, DWORD PTR [ecx+548]
  01592	8b 4d f8	 mov	 ecx, DWORD PTR _a1$[ebp]
  01595	89 81 b0 01 00
	00		 mov	 DWORD PTR [ecx+432], eax

; 5529 : 					set_jujutsu_hit_mark(a1);		//

  0159b	8b 45 f8	 mov	 eax, DWORD PTR _a1$[ebp]
  0159e	50		 push	 eax
  0159f	e8 00 00 00 00	 call	 ?set_jujutsu_hit_mark@@YAXPAUaction@@@Z ; set_jujutsu_hit_mark
  015a4	83 c4 04	 add	 esp, 4

; 5530 : 					//andy_log
; 5531 : 					if (ATR_PETFALL(a0) == 1)

  015a7	8b 45 08	 mov	 eax, DWORD PTR _a0$[ebp]
  015aa	83 b8 bc 01 00
	00 01		 cmp	 DWORD PTR [eax+444], 1
  015b1	75 15		 jne	 SHORT $LN135@master

; 5532 : 					{
; 5533 : 						if (ATR_LIFE(a0) > 0)

  015b3	8b 45 08	 mov	 eax, DWORD PTR _a0$[ebp]
  015b6	83 78 78 00	 cmp	 DWORD PTR [eax+120], 0
  015ba	7e 0c		 jle	 SHORT $LN135@master

; 5534 : 							petfallChangeGraph(a0);

  015bc	8b 45 08	 mov	 eax, DWORD PTR _a0$[ebp]
  015bf	50		 push	 eax
  015c0	e8 00 00 00 00	 call	 ?petfallChangeGraph@@YAXPAUaction@@@Z ; petfallChangeGraph
  015c5	83 c4 04	 add	 esp, 4
$LN135@master:

; 5535 : 					}
; 5536 : 					if (ATR_PET_LIFE(a1) <= 0 && ATR_RIDE(a1))		//??????

  015c8	8b 45 f8	 mov	 eax, DWORD PTR _a1$[ebp]
  015cb	83 b8 b0 01 00
	00 00		 cmp	 DWORD PTR [eax+432], 0
  015d2	7f 2e		 jg	 SHORT $LN137@master
  015d4	8b 45 f8	 mov	 eax, DWORD PTR _a1$[ebp]
  015d7	83 b8 94 01 00
	00 00		 cmp	 DWORD PTR [eax+404], 0
  015de	74 22		 je	 SHORT $LN137@master

; 5537 : 					{
; 5538 : 						ATR_PET_LIFE(a1) = 0;

  015e0	8b 45 f8	 mov	 eax, DWORD PTR _a1$[ebp]
  015e3	c7 80 b0 01 00
	00 00 00 00 00	 mov	 DWORD PTR [eax+432], 0

; 5539 : 						//slow_flg++;		//????
; 5540 : 						if (ATR_LIFE(a1) > 0)

  015ed	8b 45 f8	 mov	 eax, DWORD PTR _a1$[ebp]
  015f0	83 78 78 00	 cmp	 DWORD PTR [eax+120], 0
  015f4	7e 0c		 jle	 SHORT $LN137@master

; 5541 : 							petfallChangeGraph(a1);

  015f6	8b 45 f8	 mov	 eax, DWORD PTR _a1$[ebp]
  015f9	50		 push	 eax
  015fa	e8 00 00 00 00	 call	 ?petfallChangeGraph@@YAXPAUaction@@@Z ; petfallChangeGraph
  015ff	83 c4 04	 add	 esp, 4
$LN137@master:

; 5542 : 					}
; 5543 : 					ATR_CHR_ACT(a1) = ANIM_DAMAGE;		//???????????

  01602	8b 45 f8	 mov	 eax, DWORD PTR _a1$[ebp]
  01605	c7 80 4c 01 00
	00 01 00 00 00	 mov	 DWORD PTR [eax+332], 1

; 5544 : 					ATR_CHR_ACT_OLD(a1) = -1;

  0160f	8b 45 f8	 mov	 eax, DWORD PTR _a1$[ebp]
  01612	c7 80 50 01 00
	00 ff ff ff ff	 mov	 DWORD PTR [eax+336], -1

; 5545 : 					pattern(a1, ANM_NOMAL_SPD, ANM_LOOP);

  0161c	6a 00		 push	 0
  0161e	6a 00		 push	 0
  01620	8b 45 f8	 mov	 eax, DWORD PTR _a1$[ebp]
  01623	50		 push	 eax
  01624	e8 00 00 00 00	 call	 ?pattern@@YAHPAUaction@@HH@Z ; pattern
  01629	83 c4 0c	 add	 esp, 12			; 0000000cH

; 5546 : 					ATR_VCT_NO(a1) = 78;		//???????

  0162c	8b 45 f8	 mov	 eax, DWORD PTR _a1$[ebp]
  0162f	8b 48 0c	 mov	 ecx, DWORD PTR [eax+12]
  01632	c6 01 4e	 mov	 BYTE PTR [ecx], 78	; 0000004eH

; 5547 : 					break;

  01635	e9 1c 03 00 00	 jmp	 $LN23@master
$LN139@master:

; 5548 : 				case 1:		//?
; 5549 : 					//??k
; 5550 : 					set_damage_num(a1, 14, -64);

  0163a	6a c0		 push	 -64			; ffffffc0H
  0163c	6a 0e		 push	 14			; 0000000eH
  0163e	8b 45 f8	 mov	 eax, DWORD PTR _a1$[ebp]
  01641	50		 push	 eax
  01642	e8 00 00 00 00	 call	 ?set_damage_num@@YAXPAUaction@@HH@Z ; set_damage_num
  01647	83 c4 0c	 add	 esp, 12			; 0000000cH

; 5551 : 					ATR_LIFE(a1) += ATR_DAMAGE(a1);

  0164a	8b 45 f8	 mov	 eax, DWORD PTR _a1$[ebp]
  0164d	8b 48 0c	 mov	 ecx, DWORD PTR [eax+12]
  01650	8b 55 f8	 mov	 edx, DWORD PTR _a1$[ebp]
  01653	8b 42 78	 mov	 eax, DWORD PTR [edx+120]
  01656	03 41 58	 add	 eax, DWORD PTR [ecx+88]
  01659	8b 4d f8	 mov	 ecx, DWORD PTR _a1$[ebp]
  0165c	89 41 78	 mov	 DWORD PTR [ecx+120], eax

; 5552 : 					if (ATR_LIFE(a1) > ATR_MAX_LIFE(a1))		//????

  0165f	8b 45 f8	 mov	 eax, DWORD PTR _a1$[ebp]
  01662	8b 4d f8	 mov	 ecx, DWORD PTR _a1$[ebp]
  01665	8b 50 78	 mov	 edx, DWORD PTR [eax+120]
  01668	3b 91 80 00 00
	00		 cmp	 edx, DWORD PTR [ecx+128]
  0166e	7e 0f		 jle	 SHORT $LN140@master

; 5553 : 						ATR_LIFE(a1) = ATR_MAX_LIFE(a1);		//????

  01670	8b 45 f8	 mov	 eax, DWORD PTR _a1$[ebp]
  01673	8b 4d f8	 mov	 ecx, DWORD PTR _a1$[ebp]
  01676	8b 91 80 00 00
	00		 mov	 edx, DWORD PTR [ecx+128]
  0167c	89 50 78	 mov	 DWORD PTR [eax+120], edx
$LN140@master:

; 5554 : 					ATR_PET_LIFE(a1) += ATR_PET_DAMAGE(a1);

  0167f	8b 45 f8	 mov	 eax, DWORD PTR _a1$[ebp]
  01682	8b 48 0c	 mov	 ecx, DWORD PTR [eax+12]
  01685	8b 55 f8	 mov	 edx, DWORD PTR _a1$[ebp]
  01688	8b 82 b0 01 00
	00		 mov	 eax, DWORD PTR [edx+432]
  0168e	03 81 24 02 00
	00		 add	 eax, DWORD PTR [ecx+548]
  01694	8b 4d f8	 mov	 ecx, DWORD PTR _a1$[ebp]
  01697	89 81 b0 01 00
	00		 mov	 DWORD PTR [ecx+432], eax

; 5555 : 					if (ATR_PET_LIFE(a1) > ATR_PET_MAX_LIFE(a1))

  0169d	8b 45 f8	 mov	 eax, DWORD PTR _a1$[ebp]
  016a0	8b 4d f8	 mov	 ecx, DWORD PTR _a1$[ebp]
  016a3	8b 90 b0 01 00
	00		 mov	 edx, DWORD PTR [eax+432]
  016a9	3b 91 b4 01 00
	00		 cmp	 edx, DWORD PTR [ecx+436]
  016af	7e 12		 jle	 SHORT $LN141@master

; 5556 : 						ATR_PET_LIFE(a1) = ATR_PET_MAX_LIFE(a1);

  016b1	8b 45 f8	 mov	 eax, DWORD PTR _a1$[ebp]
  016b4	8b 4d f8	 mov	 ecx, DWORD PTR _a1$[ebp]
  016b7	8b 91 b4 01 00
	00		 mov	 edx, DWORD PTR [ecx+436]
  016bd	89 90 b0 01 00
	00		 mov	 DWORD PTR [eax+432], edx
$LN141@master:

; 5557 : 					play_se(102, ATR_H_POS(a1), 240);

  016c3	68 f0 00 00 00	 push	 240			; 000000f0H
  016c8	8b 45 f8	 mov	 eax, DWORD PTR _a1$[ebp]
  016cb	8b 48 18	 mov	 ecx, DWORD PTR [eax+24]
  016ce	51		 push	 ecx
  016cf	6a 66		 push	 102			; 00000066H
  016d1	e8 00 00 00 00	 call	 ?play_se@@YAHHHH@Z	; play_se
  016d6	83 c4 0c	 add	 esp, 12			; 0000000cH

; 5558 : 					break;

  016d9	e9 78 02 00 00	 jmp	 $LN23@master
$LN142@master:

; 5559 : 					//andy_add	回合补血
; 5560 : 				case 2:
; 5561 : 					if (BattleCmd[command_point] == 'm')

  016de	a1 00 00 00 00	 mov	 eax, DWORD PTR ?command_point@@3HA
  016e3	0f be 88 00 00
	00 00		 movsx	 ecx, BYTE PTR ?BattleCmd@@3PADA[eax]
  016ea	83 f9 6d	 cmp	 ecx, 109		; 0000006dH
  016ed	75 11		 jne	 SHORT $LN143@master

; 5562 : 						ATR_MPDAMAGE(a1) = get_num();

  016ef	e8 00 00 00 00	 call	 ?get_num@@YAHXZ		; get_num
  016f4	8b 4d f8	 mov	 ecx, DWORD PTR _a1$[ebp]
  016f7	8b 51 0c	 mov	 edx, DWORD PTR [ecx+12]
  016fa	89 82 30 02 00
	00		 mov	 DWORD PTR [edx+560], eax
$LN143@master:

; 5563 : 					set_damage_num(a1, 36, -64);

  01700	6a c0		 push	 -64			; ffffffc0H
  01702	6a 24		 push	 36			; 00000024H
  01704	8b 45 f8	 mov	 eax, DWORD PTR _a1$[ebp]
  01707	50		 push	 eax
  01708	e8 00 00 00 00	 call	 ?set_damage_num@@YAXPAUaction@@HH@Z ; set_damage_num
  0170d	83 c4 0c	 add	 esp, 12			; 0000000cH

; 5564 : 					ATR_LIFE(a1) += ATR_DAMAGE(a1);

  01710	8b 45 f8	 mov	 eax, DWORD PTR _a1$[ebp]
  01713	8b 48 0c	 mov	 ecx, DWORD PTR [eax+12]
  01716	8b 55 f8	 mov	 edx, DWORD PTR _a1$[ebp]
  01719	8b 42 78	 mov	 eax, DWORD PTR [edx+120]
  0171c	03 41 58	 add	 eax, DWORD PTR [ecx+88]
  0171f	8b 4d f8	 mov	 ecx, DWORD PTR _a1$[ebp]
  01722	89 41 78	 mov	 DWORD PTR [ecx+120], eax

; 5565 : 					ATR_MP(a1) += ATR_MPDAMAGE(a1);

  01725	8b 45 f8	 mov	 eax, DWORD PTR _a1$[ebp]
  01728	8b 48 0c	 mov	 ecx, DWORD PTR [eax+12]
  0172b	8b 55 f8	 mov	 edx, DWORD PTR _a1$[ebp]
  0172e	8b 82 84 00 00
	00		 mov	 eax, DWORD PTR [edx+132]
  01734	03 81 30 02 00
	00		 add	 eax, DWORD PTR [ecx+560]
  0173a	8b 4d f8	 mov	 ecx, DWORD PTR _a1$[ebp]
  0173d	89 81 84 00 00
	00		 mov	 DWORD PTR [ecx+132], eax

; 5566 : 					if (ATR_LIFE(a1) > ATR_MAX_LIFE(a1))

  01743	8b 45 f8	 mov	 eax, DWORD PTR _a1$[ebp]
  01746	8b 4d f8	 mov	 ecx, DWORD PTR _a1$[ebp]
  01749	8b 50 78	 mov	 edx, DWORD PTR [eax+120]
  0174c	3b 91 80 00 00
	00		 cmp	 edx, DWORD PTR [ecx+128]
  01752	7e 0f		 jle	 SHORT $LN144@master

; 5567 : 						ATR_LIFE(a1) = ATR_MAX_LIFE(a1);

  01754	8b 45 f8	 mov	 eax, DWORD PTR _a1$[ebp]
  01757	8b 4d f8	 mov	 ecx, DWORD PTR _a1$[ebp]
  0175a	8b 91 80 00 00
	00		 mov	 edx, DWORD PTR [ecx+128]
  01760	89 50 78	 mov	 DWORD PTR [eax+120], edx
$LN144@master:

; 5568 : 					ATR_PET_LIFE(a1) += ATR_PET_DAMAGE(a1);

  01763	8b 45 f8	 mov	 eax, DWORD PTR _a1$[ebp]
  01766	8b 48 0c	 mov	 ecx, DWORD PTR [eax+12]
  01769	8b 55 f8	 mov	 edx, DWORD PTR _a1$[ebp]
  0176c	8b 82 b0 01 00
	00		 mov	 eax, DWORD PTR [edx+432]
  01772	03 81 24 02 00
	00		 add	 eax, DWORD PTR [ecx+548]
  01778	8b 4d f8	 mov	 ecx, DWORD PTR _a1$[ebp]
  0177b	89 81 b0 01 00
	00		 mov	 DWORD PTR [ecx+432], eax

; 5569 : 					if (ATR_PET_LIFE(a1) >= ATR_PET_MAX_LIFE(a1))

  01781	8b 45 f8	 mov	 eax, DWORD PTR _a1$[ebp]
  01784	8b 4d f8	 mov	 ecx, DWORD PTR _a1$[ebp]
  01787	8b 90 b0 01 00
	00		 mov	 edx, DWORD PTR [eax+432]
  0178d	3b 91 b4 01 00
	00		 cmp	 edx, DWORD PTR [ecx+436]
  01793	7c 3f		 jl	 SHORT $LN145@master

; 5570 : 					{
; 5571 : 						int k;
; 5572 : 
; 5573 : 						k = ATR_PET_MAX_LIFE(a1);

  01795	8b 45 f8	 mov	 eax, DWORD PTR _a1$[ebp]
  01798	8b 88 b4 01 00
	00		 mov	 ecx, DWORD PTR [eax+436]
  0179e	89 8d 08 ff ff
	ff		 mov	 DWORD PTR _k$3[ebp], ecx

; 5574 : 						k = ATR_PET_LIFE(a1);

  017a4	8b 45 f8	 mov	 eax, DWORD PTR _a1$[ebp]
  017a7	8b 88 b0 01 00
	00		 mov	 ecx, DWORD PTR [eax+432]
  017ad	89 8d 08 ff ff
	ff		 mov	 DWORD PTR _k$3[ebp], ecx

; 5575 : 						ATR_PET_LIFE(a1) = ATR_PET_MAX_LIFE(a1);

  017b3	8b 45 f8	 mov	 eax, DWORD PTR _a1$[ebp]
  017b6	8b 4d f8	 mov	 ecx, DWORD PTR _a1$[ebp]
  017b9	8b 91 b4 01 00
	00		 mov	 edx, DWORD PTR [ecx+436]
  017bf	89 90 b0 01 00
	00		 mov	 DWORD PTR [eax+432], edx

; 5576 : 						k = ATR_PET_LIFE(a1);

  017c5	8b 45 f8	 mov	 eax, DWORD PTR _a1$[ebp]
  017c8	8b 88 b0 01 00
	00		 mov	 ecx, DWORD PTR [eax+432]
  017ce	89 8d 08 ff ff
	ff		 mov	 DWORD PTR _k$3[ebp], ecx
$LN145@master:

; 5577 : 					}
; 5578 : 					//ATR_CHR_ACT(a1) = ANIM_DAMAGE;
; 5579 : 					ATR_CHR_ACT_OLD(a1) = -1;

  017d4	8b 45 f8	 mov	 eax, DWORD PTR _a1$[ebp]
  017d7	c7 80 50 01 00
	00 ff ff ff ff	 mov	 DWORD PTR [eax+336], -1

; 5580 : 					pattern(a1, ANM_NOMAL_SPD, ANM_LOOP);

  017e1	6a 00		 push	 0
  017e3	6a 00		 push	 0
  017e5	8b 45 f8	 mov	 eax, DWORD PTR _a1$[ebp]
  017e8	50		 push	 eax
  017e9	e8 00 00 00 00	 call	 ?pattern@@YAHPAUaction@@HH@Z ; pattern
  017ee	83 c4 0c	 add	 esp, 12			; 0000000cH

; 5581 : 					ATR_VCT_NO(a1) = 78;

  017f1	8b 45 f8	 mov	 eax, DWORD PTR _a1$[ebp]
  017f4	8b 48 0c	 mov	 ecx, DWORD PTR [eax+12]
  017f7	c6 01 4e	 mov	 BYTE PTR [ecx], 78	; 0000004eH

; 5582 : 					break;

  017fa	e9 57 01 00 00	 jmp	 $LN23@master
$LN146@master:

; 5583 : 				case 3:
; 5584 : 					set_damage_num(a1, 37, -64);

  017ff	6a c0		 push	 -64			; ffffffc0H
  01801	6a 25		 push	 37			; 00000025H
  01803	8b 45 f8	 mov	 eax, DWORD PTR _a1$[ebp]
  01806	50		 push	 eax
  01807	e8 00 00 00 00	 call	 ?set_damage_num@@YAXPAUaction@@HH@Z ; set_damage_num
  0180c	83 c4 0c	 add	 esp, 12			; 0000000cH

; 5585 : 					ATR_CHR_ACT_OLD(a1) = -1;

  0180f	8b 45 f8	 mov	 eax, DWORD PTR _a1$[ebp]
  01812	c7 80 50 01 00
	00 ff ff ff ff	 mov	 DWORD PTR [eax+336], -1

; 5586 : 					pattern(a1, ANM_NOMAL_SPD, ANM_LOOP);

  0181c	6a 00		 push	 0
  0181e	6a 00		 push	 0
  01820	8b 45 f8	 mov	 eax, DWORD PTR _a1$[ebp]
  01823	50		 push	 eax
  01824	e8 00 00 00 00	 call	 ?pattern@@YAHPAUaction@@HH@Z ; pattern
  01829	83 c4 0c	 add	 esp, 12			; 0000000cH

; 5587 : 					ATR_VCT_NO(a1) = 78;

  0182c	8b 45 f8	 mov	 eax, DWORD PTR _a1$[ebp]
  0182f	8b 48 0c	 mov	 ecx, DWORD PTR [eax+12]
  01832	c6 01 4e	 mov	 BYTE PTR [ecx], 78	; 0000004eH

; 5588 : 					break;

  01835	e9 1c 01 00 00	 jmp	 $LN23@master
$LN147@master:

; 5589 : 				case 4://攻
; 5590 : 					set_damage_num(a1, 38, -64);

  0183a	6a c0		 push	 -64			; ffffffc0H
  0183c	6a 26		 push	 38			; 00000026H
  0183e	8b 45 f8	 mov	 eax, DWORD PTR _a1$[ebp]
  01841	50		 push	 eax
  01842	e8 00 00 00 00	 call	 ?set_damage_num@@YAXPAUaction@@HH@Z ; set_damage_num
  01847	83 c4 0c	 add	 esp, 12			; 0000000cH

; 5591 : 					ATR_CHR_ACT_OLD(a1) = -1;

  0184a	8b 45 f8	 mov	 eax, DWORD PTR _a1$[ebp]
  0184d	c7 80 50 01 00
	00 ff ff ff ff	 mov	 DWORD PTR [eax+336], -1

; 5592 : 					pattern(a1, ANM_NOMAL_SPD, ANM_LOOP);

  01857	6a 00		 push	 0
  01859	6a 00		 push	 0
  0185b	8b 45 f8	 mov	 eax, DWORD PTR _a1$[ebp]
  0185e	50		 push	 eax
  0185f	e8 00 00 00 00	 call	 ?pattern@@YAHPAUaction@@HH@Z ; pattern
  01864	83 c4 0c	 add	 esp, 12			; 0000000cH

; 5593 : 					ATR_VCT_NO(a1) = 78;

  01867	8b 45 f8	 mov	 eax, DWORD PTR _a1$[ebp]
  0186a	8b 48 0c	 mov	 ecx, DWORD PTR [eax+12]
  0186d	c6 01 4e	 mov	 BYTE PTR [ecx], 78	; 0000004eH

; 5594 : 					break;

  01870	e9 e1 00 00 00	 jmp	 $LN23@master
$LN148@master:

; 5595 : 				case 5://防
; 5596 : 					set_damage_num(a1, 39, -64);

  01875	6a c0		 push	 -64			; ffffffc0H
  01877	6a 27		 push	 39			; 00000027H
  01879	8b 45 f8	 mov	 eax, DWORD PTR _a1$[ebp]
  0187c	50		 push	 eax
  0187d	e8 00 00 00 00	 call	 ?set_damage_num@@YAXPAUaction@@HH@Z ; set_damage_num
  01882	83 c4 0c	 add	 esp, 12			; 0000000cH

; 5597 : 					ATR_CHR_ACT_OLD(a1) = -1;

  01885	8b 45 f8	 mov	 eax, DWORD PTR _a1$[ebp]
  01888	c7 80 50 01 00
	00 ff ff ff ff	 mov	 DWORD PTR [eax+336], -1

; 5598 : 					pattern(a1, ANM_NOMAL_SPD, ANM_LOOP);

  01892	6a 00		 push	 0
  01894	6a 00		 push	 0
  01896	8b 45 f8	 mov	 eax, DWORD PTR _a1$[ebp]
  01899	50		 push	 eax
  0189a	e8 00 00 00 00	 call	 ?pattern@@YAHPAUaction@@HH@Z ; pattern
  0189f	83 c4 0c	 add	 esp, 12			; 0000000cH

; 5599 : 					ATR_VCT_NO(a1) = 78;

  018a2	8b 45 f8	 mov	 eax, DWORD PTR _a1$[ebp]
  018a5	8b 48 0c	 mov	 ecx, DWORD PTR [eax+12]
  018a8	c6 01 4e	 mov	 BYTE PTR [ecx], 78	; 0000004eH

; 5600 : 					break;

  018ab	e9 a6 00 00 00	 jmp	 $LN23@master
$LN149@master:

; 5601 : 				case 6://敏
; 5602 : 					set_damage_num(a1, 40, -64);

  018b0	6a c0		 push	 -64			; ffffffc0H
  018b2	6a 28		 push	 40			; 00000028H
  018b4	8b 45 f8	 mov	 eax, DWORD PTR _a1$[ebp]
  018b7	50		 push	 eax
  018b8	e8 00 00 00 00	 call	 ?set_damage_num@@YAXPAUaction@@HH@Z ; set_damage_num
  018bd	83 c4 0c	 add	 esp, 12			; 0000000cH

; 5603 : 					ATR_CHR_ACT_OLD(a1) = -1;

  018c0	8b 45 f8	 mov	 eax, DWORD PTR _a1$[ebp]
  018c3	c7 80 50 01 00
	00 ff ff ff ff	 mov	 DWORD PTR [eax+336], -1

; 5604 : 					pattern(a1, ANM_NOMAL_SPD, ANM_LOOP);

  018cd	6a 00		 push	 0
  018cf	6a 00		 push	 0
  018d1	8b 45 f8	 mov	 eax, DWORD PTR _a1$[ebp]
  018d4	50		 push	 eax
  018d5	e8 00 00 00 00	 call	 ?pattern@@YAHPAUaction@@HH@Z ; pattern
  018da	83 c4 0c	 add	 esp, 12			; 0000000cH

; 5605 : 					ATR_VCT_NO(a1) = 78;

  018dd	8b 45 f8	 mov	 eax, DWORD PTR _a1$[ebp]
  018e0	8b 48 0c	 mov	 ecx, DWORD PTR [eax+12]
  018e3	c6 01 4e	 mov	 BYTE PTR [ecx], 78	; 0000004eH

; 5606 : 					break;

  018e6	eb 6e		 jmp	 SHORT $LN23@master
$LN150@master:

; 5607 : #ifdef _SKILL_ADDBARRIER
; 5608 : 				case 7://抗性
; 5609 : 					set_damage_num(a1, 43, -64);

  018e8	6a c0		 push	 -64			; ffffffc0H
  018ea	6a 2b		 push	 43			; 0000002bH
  018ec	8b 45 f8	 mov	 eax, DWORD PTR _a1$[ebp]
  018ef	50		 push	 eax
  018f0	e8 00 00 00 00	 call	 ?set_damage_num@@YAXPAUaction@@HH@Z ; set_damage_num
  018f5	83 c4 0c	 add	 esp, 12			; 0000000cH

; 5610 : 					ATR_CHR_ACT_OLD(a1) = -1;

  018f8	8b 45 f8	 mov	 eax, DWORD PTR _a1$[ebp]
  018fb	c7 80 50 01 00
	00 ff ff ff ff	 mov	 DWORD PTR [eax+336], -1

; 5611 : 					pattern(a1, ANM_NOMAL_SPD, ANM_LOOP);

  01905	6a 00		 push	 0
  01907	6a 00		 push	 0
  01909	8b 45 f8	 mov	 eax, DWORD PTR _a1$[ebp]
  0190c	50		 push	 eax
  0190d	e8 00 00 00 00	 call	 ?pattern@@YAHPAUaction@@HH@Z ; pattern
  01912	83 c4 0c	 add	 esp, 12			; 0000000cH

; 5612 : 					ATR_VCT_NO(a1) = 78;

  01915	8b 45 f8	 mov	 eax, DWORD PTR _a1$[ebp]
  01918	8b 48 0c	 mov	 ecx, DWORD PTR [eax+12]
  0191b	c6 01 4e	 mov	 BYTE PTR [ecx], 78	; 0000004eH

; 5613 : 					break;

  0191e	eb 36		 jmp	 SHORT $LN23@master
$LN151@master:

; 5614 : #endif 
; 5615 : #ifdef _PETSKILL_PEEL
; 5616 : 				case 8://被卸下装备
; 5617 : 					set_damage_num(a1, 44, -64);

  01920	6a c0		 push	 -64			; ffffffc0H
  01922	6a 2c		 push	 44			; 0000002cH
  01924	8b 45 f8	 mov	 eax, DWORD PTR _a1$[ebp]
  01927	50		 push	 eax
  01928	e8 00 00 00 00	 call	 ?set_damage_num@@YAXPAUaction@@HH@Z ; set_damage_num
  0192d	83 c4 0c	 add	 esp, 12			; 0000000cH

; 5618 : 					ATR_CHR_ACT_OLD(a1) = -1;

  01930	8b 45 f8	 mov	 eax, DWORD PTR _a1$[ebp]
  01933	c7 80 50 01 00
	00 ff ff ff ff	 mov	 DWORD PTR [eax+336], -1

; 5619 : 					pattern(a1, ANM_NOMAL_SPD, ANM_LOOP);

  0193d	6a 00		 push	 0
  0193f	6a 00		 push	 0
  01941	8b 45 f8	 mov	 eax, DWORD PTR _a1$[ebp]
  01944	50		 push	 eax
  01945	e8 00 00 00 00	 call	 ?pattern@@YAHPAUaction@@HH@Z ; pattern
  0194a	83 c4 0c	 add	 esp, 12			; 0000000cH

; 5620 : 					ATR_VCT_NO(a1) = 78;

  0194d	8b 45 f8	 mov	 eax, DWORD PTR _a1$[ebp]
  01950	8b 48 0c	 mov	 ecx, DWORD PTR [eax+12]
  01953	c6 01 4e	 mov	 BYTE PTR [ecx], 78	; 0000004eH
$LN23@master:

; 5621 : 					break;
; 5622 : #endif
; 5623 : #ifdef _PETSKILL_JUSTICE
; 5624 : 				case 9:
; 5625 : 					set_damage_num(a1, 45, -64);
; 5626 : 					ATR_CHR_ACT_OLD(a1) = -1;
; 5627 : 					pattern(a1, ANM_NOMAL_SPD, ANM_LOOP);
; 5628 : 					ATR_VCT_NO(a1) = 78;
; 5629 : 					break;
; 5630 : #endif
; 5631 : #ifdef _PETSKILL_PROVOKEFIGHT
; 5632 : 				case 10:
; 5633 : 					set_damage_num(a1, 48, -64);
; 5634 : 					ATR_CHR_ACT_OLD(a1) = -1;
; 5635 : 					pattern(a1, ANM_NOMAL_SPD, ANM_LOOP);
; 5636 : 					ATR_VCT_NO(a1) = 78;
; 5637 : 					break;
; 5638 : #endif
; 5639 : #ifdef _PRO3_ADDSKILL
; 5640 : 				case 11:
; 5641 : 					set_damage_num(a1, 49, -64);
; 5642 : 					ATR_CHR_ACT_OLD(a1) = -1;
; 5643 : 					pattern(a1, ANM_NOMAL_SPD, ANM_LOOP);
; 5644 : 					ATR_VCT_NO(a1) = 78;
; 5645 : 					break;
; 5646 : 				case 12:
; 5647 : 					set_damage_num(a1, 50, -64);
; 5648 : 					ATR_CHR_ACT_OLD(a1) = -1;
; 5649 : 					pattern(a1, ANM_NOMAL_SPD, ANM_LOOP);
; 5650 : 					ATR_VCT_NO(a1) = 78;
; 5651 : 					break;
; 5652 : 				case 13:
; 5653 : 					set_damage_num(a1, 51, -64);
; 5654 : 					ATR_CHR_ACT_OLD(a1) = -1;
; 5655 : 					pattern(a1, ANM_NOMAL_SPD, ANM_LOOP);
; 5656 : 					ATR_VCT_NO(a1) = 78;
; 5657 : 					break;
; 5658 : #endif
; 5659 : #ifdef _PETSKILL_ADDATTCRAZED
; 5660 : 					/*	case 10:
; 5661 : 							set_damage_num(a1, 46, -64);
; 5662 : 							ATR_CHR_ACT_OLD(a1) = -1;
; 5663 : 							pattern(a1, ANM_NOMAL_SPD, ANM_LOOP);
; 5664 : 							ATR_VCT_NO(a1) = 78;
; 5665 : 							break;*/
; 5666 : #endif
; 5667 : 				}
; 5668 : 				break;

  01956	e9 d9 00 00 00	 jmp	 $LN21@master
$LN152@master:

; 5669 : 
; 5670 : 			case 1:		//??
; 5671 : 				switch (d1)

  0195b	8b 45 c8	 mov	 eax, DWORD PTR _d1$[ebp]
  0195e	89 85 28 fe ff
	ff		 mov	 DWORD PTR tv997[ebp], eax
  01964	83 bd 28 fe ff
	ff 00		 cmp	 DWORD PTR tv997[ebp], 0
  0196b	74 0e		 je	 SHORT $LN153@master
  0196d	83 bd 28 fe ff
	ff 01		 cmp	 DWORD PTR tv997[ebp], 1
  01974	74 4b		 je	 SHORT $LN155@master
  01976	e9 a7 00 00 00	 jmp	 $LN25@master
$LN153@master:

; 5672 : 				{
; 5673 : 				case 0:		//?
; 5674 : 					set_damage_num(a1, 16, -64);

  0197b	6a c0		 push	 -64			; ffffffc0H
  0197d	6a 10		 push	 16			; 00000010H
  0197f	8b 45 f8	 mov	 eax, DWORD PTR _a1$[ebp]
  01982	50		 push	 eax
  01983	e8 00 00 00 00	 call	 ?set_damage_num@@YAXPAUaction@@HH@Z ; set_damage_num
  01988	83 c4 0c	 add	 esp, 12			; 0000000cH

; 5675 : 					ATR_MP(a1) -= ATR_DAMAGE(a1);		//??????

  0198b	8b 45 f8	 mov	 eax, DWORD PTR _a1$[ebp]
  0198e	8b 48 0c	 mov	 ecx, DWORD PTR [eax+12]
  01991	8b 55 f8	 mov	 edx, DWORD PTR _a1$[ebp]
  01994	8b 82 84 00 00
	00		 mov	 eax, DWORD PTR [edx+132]
  0199a	2b 41 58	 sub	 eax, DWORD PTR [ecx+88]
  0199d	8b 4d f8	 mov	 ecx, DWORD PTR _a1$[ebp]
  019a0	89 81 84 00 00
	00		 mov	 DWORD PTR [ecx+132], eax

; 5676 : 					if (ATR_MP(a1) < 0)		//?t???

  019a6	8b 45 f8	 mov	 eax, DWORD PTR _a1$[ebp]
  019a9	83 b8 84 00 00
	00 00		 cmp	 DWORD PTR [eax+132], 0
  019b0	7d 0d		 jge	 SHORT $LN154@master

; 5677 : 						ATR_MP(a1) = 0;		//????

  019b2	8b 45 f8	 mov	 eax, DWORD PTR _a1$[ebp]
  019b5	c7 80 84 00 00
	00 00 00 00 00	 mov	 DWORD PTR [eax+132], 0
$LN154@master:

; 5678 : 					break;

  019bf	eb 61		 jmp	 SHORT $LN25@master
$LN155@master:

; 5679 : 				case 1:		//?
; 5680 : 					set_damage_num(a1, 15, -64);

  019c1	6a c0		 push	 -64			; ffffffc0H
  019c3	6a 0f		 push	 15			; 0000000fH
  019c5	8b 45 f8	 mov	 eax, DWORD PTR _a1$[ebp]
  019c8	50		 push	 eax
  019c9	e8 00 00 00 00	 call	 ?set_damage_num@@YAXPAUaction@@HH@Z ; set_damage_num
  019ce	83 c4 0c	 add	 esp, 12			; 0000000cH

; 5681 : 					ATR_MP(a1) += ATR_DAMAGE(a1);		//?????

  019d1	8b 45 f8	 mov	 eax, DWORD PTR _a1$[ebp]
  019d4	8b 48 0c	 mov	 ecx, DWORD PTR [eax+12]
  019d7	8b 55 f8	 mov	 edx, DWORD PTR _a1$[ebp]
  019da	8b 82 84 00 00
	00		 mov	 eax, DWORD PTR [edx+132]
  019e0	03 41 58	 add	 eax, DWORD PTR [ecx+88]
  019e3	8b 4d f8	 mov	 ecx, DWORD PTR _a1$[ebp]
  019e6	89 81 84 00 00
	00		 mov	 DWORD PTR [ecx+132], eax

; 5682 : 
; 5683 : #ifdef _FIXSHOWMPERR //Syu ADD 修正补气时动画显示错误
; 5684 : 					if (ATR_MP(a1) > pc.maxMp)

  019ec	8b 45 f8	 mov	 eax, DWORD PTR _a1$[ebp]
  019ef	8b 88 84 00 00
	00		 mov	 ecx, DWORD PTR [eax+132]
  019f5	3b 0d 1c 00 00
	00		 cmp	 ecx, DWORD PTR ?pc@@3UPC@@A+28
  019fb	7e 0f		 jle	 SHORT $LN156@master

; 5685 : 						ATR_MP(a1) = pc.maxMp;

  019fd	8b 45 f8	 mov	 eax, DWORD PTR _a1$[ebp]
  01a00	8b 0d 1c 00 00
	00		 mov	 ecx, DWORD PTR ?pc@@3UPC@@A+28
  01a06	89 88 84 00 00
	00		 mov	 DWORD PTR [eax+132], ecx
$LN156@master:

; 5686 : #else
; 5687 : 					if (ATR_MP(a1) > 100)		//??????
; 5688 : 						ATR_MP(a1) = 100;		//??????
; 5689 : #endif
; 5690 : 					//???
; 5691 : 					play_se(102, ATR_H_POS(a1), 240);

  01a0c	68 f0 00 00 00	 push	 240			; 000000f0H
  01a11	8b 45 f8	 mov	 eax, DWORD PTR _a1$[ebp]
  01a14	8b 48 18	 mov	 ecx, DWORD PTR [eax+24]
  01a17	51		 push	 ecx
  01a18	6a 66		 push	 102			; 00000066H
  01a1a	e8 00 00 00 00	 call	 ?play_se@@YAHHHH@Z	; play_se
  01a1f	83 c4 0c	 add	 esp, 12			; 0000000cH
$LN25@master:

; 5692 : 					break;
; 5693 : #ifdef _PETSKILL_ADDATTCRAZED
; 5694 : 				case 3:
; 5695 : 					set_damage_num(a1, 46, -64);
; 5696 : 					ATR_CHR_ACT_OLD(a1) = -1;
; 5697 : 					pattern(a1, ANM_NOMAL_SPD, ANM_LOOP);
; 5698 : 					ATR_VCT_NO(a1) = 78;
; 5699 : 					break;
; 5700 : 				case 4:
; 5701 : 					set_damage_num(a1, 47, -64);
; 5702 : 					ATR_CHR_ACT_OLD(a1) = -1;
; 5703 : 					pattern(a1, ANM_NOMAL_SPD, ANM_LOOP);
; 5704 : 					ATR_VCT_NO(a1) = 78;
; 5705 : 					break;
; 5706 : #endif
; 5707 : 				}
; 5708 : 				break;

  01a22	eb 10		 jmp	 SHORT $LN21@master
$LN157@master:

; 5709 : #ifdef _PETSKILL_LER
; 5710 : 			case 3:	// 闪开攻击
; 5711 : 				set_damage_num(a1, 0, -64);

  01a24	6a c0		 push	 -64			; ffffffc0H
  01a26	6a 00		 push	 0
  01a28	8b 45 f8	 mov	 eax, DWORD PTR _a1$[ebp]
  01a2b	50		 push	 eax
  01a2c	e8 00 00 00 00	 call	 ?set_damage_num@@YAXPAUaction@@HH@Z ; set_damage_num
  01a31	83 c4 0c	 add	 esp, 12			; 0000000cH
$LN21@master:

; 5712 : 				break;
; 5713 : #endif
; 5714 : 			}
; 5715 : 			d6 = command_point;		//????????~

  01a34	a1 00 00 00 00	 mov	 eax, DWORD PTR ?command_point@@3HA
  01a39	89 45 a4	 mov	 DWORD PTR _d6$[ebp], eax

; 5716 : 			d0 = get_command();		//????????

  01a3c	e8 00 00 00 00	 call	 ?get_command@@YADXZ	; get_command
  01a41	0f be c0	 movsx	 eax, al
  01a44	89 45 d4	 mov	 DWORD PTR _d0$[ebp], eax

; 5717 : 			if (d0 == ATT_DAMAGE)		//??????

  01a47	83 7d d4 44	 cmp	 DWORD PTR _d0$[ebp], 68	; 00000044H
  01a4b	75 3a		 jne	 SHORT $LN158@master

; 5718 : 			{
; 5719 : 				a1 = p_party[d0 = get_num()];		//???????

  01a4d	e8 00 00 00 00	 call	 ?get_num@@YAHXZ		; get_num
  01a52	89 45 d4	 mov	 DWORD PTR _d0$[ebp], eax
  01a55	8b 45 d4	 mov	 eax, DWORD PTR _d0$[ebp]
  01a58	8b 0c 85 00 00
	00 00		 mov	 ecx, DWORD PTR ?p_party@@3PAPAUaction@@A[eax*4]
  01a5f	89 4d f8	 mov	 DWORD PTR _a1$[ebp], ecx

; 5720 : 				d0 = get_num();		//???????

  01a62	e8 00 00 00 00	 call	 ?get_num@@YAHXZ		; get_num
  01a67	89 45 d4	 mov	 DWORD PTR _d0$[ebp], eax

; 5721 : 				if (d2 == d0)		//????i???

  01a6a	8b 45 bc	 mov	 eax, DWORD PTR _d2$[ebp]
  01a6d	3b 45 d4	 cmp	 eax, DWORD PTR _d0$[ebp]
  01a70	75 15		 jne	 SHORT $LN158@master

; 5722 : 				{
; 5723 : 					d1 = get_num();		//???????

  01a72	e8 00 00 00 00	 call	 ?get_num@@YAHXZ		; get_num
  01a77	89 45 c8	 mov	 DWORD PTR _d1$[ebp], eax

; 5724 : 					if (d3 == d1)		//????i???

  01a7a	8b 45 b0	 mov	 eax, DWORD PTR _d3$[ebp]
  01a7d	3b 45 c8	 cmp	 eax, DWORD PTR _d1$[ebp]
  01a80	75 05		 jne	 SHORT $LN158@master

; 5725 : 						goto att_damage_loop;

  01a82	e9 21 fa ff ff	 jmp	 $att_damage_loop$329
$LN158@master:

; 5726 : 				}
; 5727 : 			}
; 5728 : 			command_point = d6;		//??????????

  01a87	8b 45 a4	 mov	 eax, DWORD PTR _d6$[ebp]
  01a8a	a3 00 00 00 00	 mov	 DWORD PTR ?command_point@@3HA, eax

; 5729 : 			break;

  01a8f	e9 da 0f 00 00	 jmp	 $LN17@master
$LN161@master:

; 5730 : 			//BV|???哀k??????|N艇k?
; 5731 : 		case ATT_VARIABLE:		//??????????  ?????N通?  ??????????
; 5732 : 			ATR_BODY_CNT(a0) = 1;

  01a94	8b 45 08	 mov	 eax, DWORD PTR _a0$[ebp]
  01a97	8b 48 0c	 mov	 ecx, DWORD PTR [eax+12]
  01a9a	c6 41 54 01	 mov	 BYTE PTR [ecx+84], 1

; 5733 : 			ATR_VCT_NO(a1) = 85;		//?????N通??

  01a9e	8b 45 f8	 mov	 eax, DWORD PTR _a1$[ebp]
  01aa1	8b 48 0c	 mov	 ecx, DWORD PTR [eax+12]
  01aa4	c6 01 55	 mov	 BYTE PTR [ecx], 85	; 00000055H

; 5734 : 			break;

  01aa7	e9 c2 0f 00 00	 jmp	 $LN17@master
$LN162@master:

; 5735 : 			//BR|????|????????
; 5736 : 		case ATT_REVERSE:		//??????????  N艇T  ??????????
; 5737 : 			ATR_VCT_NO(a0) = 0;		//????

  01aac	8b 45 08	 mov	 eax, DWORD PTR _a0$[ebp]
  01aaf	8b 48 0c	 mov	 ecx, DWORD PTR [eax+12]
  01ab2	c6 01 00	 mov	 BYTE PTR [ecx], 0

; 5738 : 			d0 = get_num();		//???????????

  01ab5	e8 00 00 00 00	 call	 ?get_num@@YAHXZ		; get_num
  01aba	89 45 d4	 mov	 DWORD PTR _d0$[ebp], eax

; 5739 : 			switch (d0)

  01abd	8b 45 d4	 mov	 eax, DWORD PTR _d0$[ebp]
  01ac0	89 85 28 fe ff
	ff		 mov	 DWORD PTR tv1049[ebp], eax
  01ac6	83 bd 28 fe ff
	ff 00		 cmp	 DWORD PTR tv1049[ebp], 0
  01acd	74 02		 je	 SHORT $LN163@master
  01acf	eb 4a		 jmp	 SHORT $LN164@master
$LN163@master:

; 5740 : 			{
; 5741 : 				//???
; 5742 : 			case 0:
; 5743 : 				a2 = ATR_ATTRIB_WORK(a1);

  01ad1	8b 45 f8	 mov	 eax, DWORD PTR _a1$[ebp]
  01ad4	8b 48 0c	 mov	 ecx, DWORD PTR [eax+12]
  01ad7	c6 85 33 fe ff
	ff 01		 mov	 BYTE PTR $T1[ebp], 1
  01ade	8b 91 18 01 00
	00		 mov	 edx, DWORD PTR [ecx+280]
  01ae4	89 55 ec	 mov	 DWORD PTR _a2$[ebp], edx

; 5744 : 				ATR_ATTRIB_WORK(a1) = NULL;

  01ae7	8b 45 f8	 mov	 eax, DWORD PTR _a1$[ebp]
  01aea	8b 48 0c	 mov	 ecx, DWORD PTR [eax+12]
  01aed	c7 81 18 01 00
	00 00 00 00 00	 mov	 DWORD PTR [ecx+280], 0

; 5745 : 				DeathAction(a2);		//?

  01af7	80 bd 33 fe ff
	ff 00		 cmp	 BYTE PTR $T1[ebp], 0
  01afe	75 0d		 jne	 SHORT $LN303@master
  01b00	68 00 00 00 00	 push	 OFFSET $LN269@master
  01b05	e8 00 00 00 00	 call	 __RTC_UninitUse
  01b0a	83 c4 04	 add	 esp, 4
$LN303@master:
  01b0d	8b 45 ec	 mov	 eax, DWORD PTR _a2$[ebp]
  01b10	50		 push	 eax
  01b11	e8 00 00 00 00	 call	 ?DeathAction@@YAXPAUaction@@@Z ; DeathAction
  01b16	83 c4 04	 add	 esp, 4

; 5746 : 				break;

  01b19	eb 0c		 jmp	 SHORT $LN27@master
$LN164@master:

; 5747 : 				//??
; 5748 : 			default:
; 5749 : 				set_attrib_reverse(a1);		//N艇T???

  01b1b	8b 45 f8	 mov	 eax, DWORD PTR _a1$[ebp]
  01b1e	50		 push	 eax
  01b1f	e8 00 00 00 00	 call	 ?set_attrib_reverse@@YAXPAUaction@@@Z ; set_attrib_reverse
  01b24	83 c4 04	 add	 esp, 4
$LN27@master:

; 5750 : 				break;
; 5751 : 			}
; 5752 : 			break;

  01b27	e9 42 0f 00 00	 jmp	 $LN17@master
$LN165@master:

; 5753 : 			//BL|????|??
; 5754 : 		case ATT_LIFE:		//??????????  ??  ??????????
; 5755 : 			ATR_VCT_NO(a0) = 0;		//????

  01b2c	8b 45 08	 mov	 eax, DWORD PTR _a0$[ebp]
  01b2f	8b 48 0c	 mov	 ecx, DWORD PTR [eax+12]
  01b32	c6 01 00	 mov	 BYTE PTR [ecx], 0

; 5756 : 			ATR_DAMAGE(a1) = get_num();		//????

  01b35	e8 00 00 00 00	 call	 ?get_num@@YAHXZ		; get_num
  01b3a	8b 4d f8	 mov	 ecx, DWORD PTR _a1$[ebp]
  01b3d	8b 51 0c	 mov	 edx, DWORD PTR [ecx+12]
  01b40	89 42 58	 mov	 DWORD PTR [edx+88], eax

; 5757 : 			//??k
; 5758 : 			ATR_LIFE(a1) = ATR_DAMAGE(a1);

  01b43	8b 45 f8	 mov	 eax, DWORD PTR _a1$[ebp]
  01b46	8b 48 0c	 mov	 ecx, DWORD PTR [eax+12]
  01b49	8b 55 f8	 mov	 edx, DWORD PTR _a1$[ebp]
  01b4c	8b 41 58	 mov	 eax, DWORD PTR [ecx+88]
  01b4f	89 42 78	 mov	 DWORD PTR [edx+120], eax

; 5759 : 			if (ATR_LIFE(a1) > ATR_MAX_LIFE(a1))		//????

  01b52	8b 45 f8	 mov	 eax, DWORD PTR _a1$[ebp]
  01b55	8b 4d f8	 mov	 ecx, DWORD PTR _a1$[ebp]
  01b58	8b 50 78	 mov	 edx, DWORD PTR [eax+120]
  01b5b	3b 91 80 00 00
	00		 cmp	 edx, DWORD PTR [ecx+128]
  01b61	7e 0f		 jle	 SHORT $LN166@master

; 5760 : 				ATR_LIFE(a1) = ATR_MAX_LIFE(a1);		//????

  01b63	8b 45 f8	 mov	 eax, DWORD PTR _a1$[ebp]
  01b66	8b 4d f8	 mov	 ecx, DWORD PTR _a1$[ebp]
  01b69	8b 91 80 00 00
	00		 mov	 edx, DWORD PTR [ecx+128]
  01b6f	89 50 78	 mov	 DWORD PTR [eax+120], edx
$LN166@master:

; 5761 : 			ATR_VCT_NO(a1) = 0;		//_?

  01b72	8b 45 f8	 mov	 eax, DWORD PTR _a1$[ebp]
  01b75	8b 48 0c	 mov	 ecx, DWORD PTR [eax+12]
  01b78	c6 01 00	 mov	 BYTE PTR [ecx], 0

; 5762 : 			ATR_CHR_ACT(a1) = ANIM_STAND;		//_???????

  01b7b	8b 45 f8	 mov	 eax, DWORD PTR _a1$[ebp]
  01b7e	c7 80 4c 01 00
	00 03 00 00 00	 mov	 DWORD PTR [eax+332], 3

; 5763 : 			pattern(a1, ANM_NOMAL_SPD, ANM_LOOP);

  01b88	6a 00		 push	 0
  01b8a	6a 00		 push	 0
  01b8c	8b 45 f8	 mov	 eax, DWORD PTR _a1$[ebp]
  01b8f	50		 push	 eax
  01b90	e8 00 00 00 00	 call	 ?pattern@@YAHPAUaction@@HH@Z ; pattern
  01b95	83 c4 0c	 add	 esp, 12			; 0000000cH

; 5764 : 			break;

  01b98	e9 d1 0e 00 00	 jmp	 $LN17@master
$LN167@master:

; 5765 : 			//BQ|????
; 5766 : 		case ATT_QUIT:		//??????????  ???`??  ??????????
; 5767 : 			ATR_BODY_CNT(a0) = 1;

  01b9d	8b 45 08	 mov	 eax, DWORD PTR _a0$[ebp]
  01ba0	8b 48 0c	 mov	 ecx, DWORD PTR [eax+12]
  01ba3	c6 41 54 01	 mov	 BYTE PTR [ecx+84], 1

; 5768 : 			ATR_VCT_NO(a1) = 87;		//???`??q?

  01ba7	8b 45 f8	 mov	 eax, DWORD PTR _a1$[ebp]
  01baa	8b 48 0c	 mov	 ecx, DWORD PTR [eax+12]
  01bad	c6 01 57	 mov	 BYTE PTR [ecx], 87	; 00000057H

; 5769 : 			break;

  01bb0	e9 b9 0e 00 00	 jmp	 $LN17@master
$LN168@master:

; 5770 : 			//BX|????
; 5771 : 		case ATT_NIX:		//??????????  ????r  ??????????
; 5772 : 			ATR_BODY_CNT(a0) = 1;

  01bb5	8b 45 08	 mov	 eax, DWORD PTR _a0$[ebp]
  01bb8	8b 48 0c	 mov	 ecx, DWORD PTR [eax+12]
  01bbb	c6 41 54 01	 mov	 BYTE PTR [ecx+84], 1

; 5773 : 			ATR_VCT_NO(a1) = 90;		//????r

  01bbf	8b 45 f8	 mov	 eax, DWORD PTR _a1$[ebp]
  01bc2	8b 48 0c	 mov	 ecx, DWORD PTR [eax+12]
  01bc5	c6 01 5a	 mov	 BYTE PTR [ecx], 90	; 0000005aH

; 5774 : 			break;

  01bc8	e9 a1 0e 00 00	 jmp	 $LN17@master
$LN169@master:

; 5775 : 			//B!|??????????????????
; 5776 : 		case ATT_COMPANIONS:	//??????????  s????  ??????????
; 5777 : 			ATR_BODY_CNT(a0) = 1;

  01bcd	8b 45 08	 mov	 eax, DWORD PTR _a0$[ebp]
  01bd0	8b 48 0c	 mov	 ecx, DWORD PTR [eax+12]
  01bd3	c6 41 54 01	 mov	 BYTE PTR [ecx+84], 1

; 5778 : 			ATR_VCT_NO(a1) = 95;		//s??????

  01bd7	8b 45 f8	 mov	 eax, DWORD PTR _a1$[ebp]
  01bda	8b 48 0c	 mov	 ecx, DWORD PTR [eax+12]
  01bdd	c6 01 5f	 mov	 BYTE PTR [ecx], 95	; 0000005fH

; 5779 : 			break;

  01be0	e9 89 0e 00 00	 jmp	 $LN17@master
$LN170@master:

; 5780 : 			//B#|????????????
; 5781 : 		case ATT_STEAL:	//??????????  ????  ??????????
; 5782 : 			ATR_BODY_CNT(a0) = 1;

  01be5	8b 45 08	 mov	 eax, DWORD PTR _a0$[ebp]
  01be8	8b 48 0c	 mov	 ecx, DWORD PTR [eax+12]
  01beb	c6 41 54 01	 mov	 BYTE PTR [ecx+84], 1

; 5783 : 			ATR_VCT_NO(a1) = 100;		//??????

  01bef	8b 45 f8	 mov	 eax, DWORD PTR _a1$[ebp]
  01bf2	8b 48 0c	 mov	 ecx, DWORD PTR [eax+12]
  01bf5	c6 01 64	 mov	 BYTE PTR [ecx], 100	; 00000064H

; 5784 : 			break;

  01bf8	e9 71 0e 00 00	 jmp	 $LN17@master
$LN171@master:

; 5785 : 			//B%|????????k?
; 5786 : 		case ATT_TALK:	//??????????  ????  ??????????
; 5787 : 			ATR_BODY_CNT(a0) = 1;

  01bfd	8b 45 08	 mov	 eax, DWORD PTR _a0$[ebp]
  01c00	8b 48 0c	 mov	 ecx, DWORD PTR [eax+12]
  01c03	c6 41 54 01	 mov	 BYTE PTR [ecx+84], 1

; 5788 : 			ATR_VCT_NO(a1) = 110;		//?????

  01c07	8b 45 f8	 mov	 eax, DWORD PTR _a1$[ebp]
  01c0a	8b 48 0c	 mov	 ecx, DWORD PTR [eax+12]
  01c0d	c6 01 6e	 mov	 BYTE PTR [ecx], 110	; 0000006eH

; 5789 : 			ATR_STIMER(a1) = 60;

  01c10	8b 45 f8	 mov	 eax, DWORD PTR _a1$[ebp]
  01c13	8b 48 0c	 mov	 ecx, DWORD PTR [eax+12]
  01c16	c6 41 01 3c	 mov	 BYTE PTR [ecx+1], 60	; 0000003cH

; 5790 : 			d0 = get_num();		//???k???

  01c1a	e8 00 00 00 00	 call	 ?get_num@@YAHXZ		; get_num
  01c1f	89 45 d4	 mov	 DWORD PTR _d0$[ebp], eax

; 5791 : 			//?????????
; 5792 : 			set_damage_num(a1, 20, -64);

  01c22	6a c0		 push	 -64			; ffffffc0H
  01c24	6a 14		 push	 20			; 00000014H
  01c26	8b 45 f8	 mov	 eax, DWORD PTR _a1$[ebp]
  01c29	50		 push	 eax
  01c2a	e8 00 00 00 00	 call	 ?set_damage_num@@YAXPAUaction@@HH@Z ; set_damage_num
  01c2f	83 c4 0c	 add	 esp, 12			; 0000000cH

; 5793 : 			break;

  01c32	e9 37 0e 00 00	 jmp	 $LN17@master
$LN172@master:

; 5794 : #ifdef _FIREHUNTER_SKILL				// (不可开) ROG ADD 朱雀技能_火线猎杀
; 5795 : 		case ATT_FIRESKILL:
; 5796 : 			ATR_VCT_NO(a1) = FIRE_HUNTER_SKILL;		//火线猎杀

  01c37	8b 45 f8	 mov	 eax, DWORD PTR _a1$[ebp]
  01c3a	8b 48 0c	 mov	 ecx, DWORD PTR [eax+12]
  01c3d	c6 01 f0	 mov	 BYTE PTR [ecx], 240	; 000000f0H

; 5797 : 			ATR_FIRST_FLG(a1) = 0;

  01c40	8b 45 f8	 mov	 eax, DWORD PTR _a1$[ebp]
  01c43	8b 48 0c	 mov	 ecx, DWORD PTR [eax+12]
  01c46	c6 81 1e 01 00
	00 00		 mov	 BYTE PTR [ecx+286], 0

; 5798 : 			iBeAttNum = get_num();

  01c4d	e8 00 00 00 00	 call	 ?get_num@@YAHXZ		; get_num
  01c52	a3 00 00 00 00	 mov	 DWORD PTR ?iBeAttNum@@3HA, eax ; iBeAttNum

; 5799 : 			ATR_BODY_WORK(0, a1) = p_party[iBeAttNum];		//敌人位址

  01c57	8b 45 f8	 mov	 eax, DWORD PTR _a1$[ebp]
  01c5a	8b 48 0c	 mov	 ecx, DWORD PTR [eax+12]
  01c5d	ba 04 00 00 00	 mov	 edx, 4
  01c62	6b c2 00	 imul	 eax, edx, 0
  01c65	8b 15 00 00 00
	00		 mov	 edx, DWORD PTR ?iBeAttNum@@3HA ; iBeAttNum
  01c6b	8b 14 95 00 00
	00 00		 mov	 edx, DWORD PTR ?p_party@@3PAPAUaction@@A[edx*4]
  01c72	89 54 01 04	 mov	 DWORD PTR [ecx+eax+4], edx

; 5800 : 			ATR_ATTACK_KIND(0, a1) = get_num();				//攻击种类

  01c76	e8 00 00 00 00	 call	 ?get_num@@YAHXZ		; get_num
  01c7b	8b 4d f8	 mov	 ecx, DWORD PTR _a1$[ebp]
  01c7e	8b 51 0c	 mov	 edx, DWORD PTR [ecx+12]
  01c81	b9 04 00 00 00	 mov	 ecx, 4
  01c86	6b c9 00	 imul	 ecx, ecx, 0
  01c89	89 44 0a 60	 mov	 DWORD PTR [edx+ecx+96], eax

; 5801 : 			ATR_ATTACK_POW(0, a1) = get_num();				//攻击力

  01c8d	e8 00 00 00 00	 call	 ?get_num@@YAHXZ		; get_num
  01c92	8b 4d f8	 mov	 ecx, DWORD PTR _a1$[ebp]
  01c95	8b 51 0c	 mov	 edx, DWORD PTR [ecx+12]
  01c98	b9 04 00 00 00	 mov	 ecx, 4
  01c9d	6b c9 00	 imul	 ecx, ecx, 0
  01ca0	89 84 0a b0 00
	00 00		 mov	 DWORD PTR [edx+ecx+176], eax

; 5802 : 			//			if ( BattleCmd[command_point] == 'p' )	{
; 5803 : 			ATR_ATTACK_PET_POW(0, a1) = get_num();		//pet攻击力??

  01ca7	e8 00 00 00 00	 call	 ?get_num@@YAHXZ		; get_num
  01cac	8b 4d f8	 mov	 ecx, DWORD PTR _a1$[ebp]
  01caf	8b 51 0c	 mov	 edx, DWORD PTR [ecx+12]
  01cb2	b9 04 00 00 00	 mov	 ecx, 4
  01cb7	6b c9 00	 imul	 ecx, ecx, 0
  01cba	89 84 0a d4 01
	00 00		 mov	 DWORD PTR [edx+ecx+468], eax

; 5804 : 			//			}
; 5805 : 			d0 = get_num();							//人数

  01cc1	e8 00 00 00 00	 call	 ?get_num@@YAHXZ		; get_num
  01cc6	89 45 d4	 mov	 DWORD PTR _d0$[ebp], eax

; 5806 : 			ATR_BODY_CNT(a1) = d0;					//多人攻击

  01cc9	8b 45 f8	 mov	 eax, DWORD PTR _a1$[ebp]
  01ccc	8b 48 0c	 mov	 ecx, DWORD PTR [eax+12]
  01ccf	8a 55 d4	 mov	 dl, BYTE PTR _d0$[ebp]
  01cd2	88 51 54	 mov	 BYTE PTR [ecx+84], dl

; 5807 : 			for (d7 = 2; d7 < d0 + 2; d7++)

  01cd5	c7 45 98 02 00
	00 00		 mov	 DWORD PTR _d7$[ebp], 2
  01cdc	eb 09		 jmp	 SHORT $LN31@master
$LN29@master:
  01cde	8b 45 98	 mov	 eax, DWORD PTR _d7$[ebp]
  01ce1	83 c0 01	 add	 eax, 1
  01ce4	89 45 98	 mov	 DWORD PTR _d7$[ebp], eax
$LN31@master:
  01ce7	8b 45 d4	 mov	 eax, DWORD PTR _d0$[ebp]
  01cea	83 c0 02	 add	 eax, 2
  01ced	39 45 98	 cmp	 DWORD PTR _d7$[ebp], eax
  01cf0	0f 8d 86 00 00
	00		 jge	 $LN30@master

; 5808 : 			{
; 5809 : 				int x = get_num();

  01cf6	e8 00 00 00 00	 call	 ?get_num@@YAHXZ		; get_num
  01cfb	89 85 fc fe ff
	ff		 mov	 DWORD PTR _x$2[ebp], eax

; 5810 : 
; 5811 : 				if (x == iBeAttNum)               //被攻击目标的魔法伤害

  01d01	8b 85 fc fe ff
	ff		 mov	 eax, DWORD PTR _x$2[ebp]
  01d07	3b 05 00 00 00
	00		 cmp	 eax, DWORD PTR ?iBeAttNum@@3HA ; iBeAttNum
  01d0d	75 12		 jne	 SHORT $LN173@master

; 5812 : 				{
; 5813 : 					tarMgiDem = 1;

  01d0f	c7 05 00 00 00
	00 01 00 00 00	 mov	 DWORD PTR ?tarMgiDem@@3HA, 1 ; tarMgiDem

; 5814 : 					tarpos = d7;//ATR_BODY_CNT(a1)--;

  01d19	8b 45 98	 mov	 eax, DWORD PTR _d7$[ebp]
  01d1c	a3 00 00 00 00	 mov	 DWORD PTR ?tarpos@@3HA, eax ; tarpos
$LN173@master:

; 5815 : 				}
; 5816 : 				ATR_BODY_WORK(d7 ,a1) = p_party[x];		//敌人位址

  01d21	8b 45 f8	 mov	 eax, DWORD PTR _a1$[ebp]
  01d24	8b 48 0c	 mov	 ecx, DWORD PTR [eax+12]
  01d27	8b 55 98	 mov	 edx, DWORD PTR _d7$[ebp]
  01d2a	8b 85 fc fe ff
	ff		 mov	 eax, DWORD PTR _x$2[ebp]
  01d30	8b 04 85 00 00
	00 00		 mov	 eax, DWORD PTR ?p_party@@3PAPAUaction@@A[eax*4]
  01d37	89 44 91 04	 mov	 DWORD PTR [ecx+edx*4+4], eax

; 5817 : 				ATR_ATTACK_KIND(d7 ,a1) = get_num();		//攻击种类

  01d3b	e8 00 00 00 00	 call	 ?get_num@@YAHXZ		; get_num
  01d40	8b 4d f8	 mov	 ecx, DWORD PTR _a1$[ebp]
  01d43	8b 51 0c	 mov	 edx, DWORD PTR [ecx+12]
  01d46	8b 4d 98	 mov	 ecx, DWORD PTR _d7$[ebp]
  01d49	89 44 8a 60	 mov	 DWORD PTR [edx+ecx*4+96], eax

; 5818 : 				ATR_ATTACK_POW(d7 ,a1) = get_num();				//攻击力

  01d4d	e8 00 00 00 00	 call	 ?get_num@@YAHXZ		; get_num
  01d52	8b 4d f8	 mov	 ecx, DWORD PTR _a1$[ebp]
  01d55	8b 51 0c	 mov	 edx, DWORD PTR [ecx+12]
  01d58	8b 4d 98	 mov	 ecx, DWORD PTR _d7$[ebp]
  01d5b	89 84 8a b0 00
	00 00		 mov	 DWORD PTR [edx+ecx*4+176], eax

; 5819 : 				ATR_ATTACK_PET_POW(d7 ,a1) = get_num();		//pet攻击力

  01d62	e8 00 00 00 00	 call	 ?get_num@@YAHXZ		; get_num
  01d67	8b 4d f8	 mov	 ecx, DWORD PTR _a1$[ebp]
  01d6a	8b 51 0c	 mov	 edx, DWORD PTR [ecx+12]
  01d6d	8b 4d 98	 mov	 ecx, DWORD PTR _d7$[ebp]
  01d70	89 84 8a d4 01
	00 00		 mov	 DWORD PTR [edx+ecx*4+468], eax

; 5820 : 				//}
; 5821 : 			}

  01d77	e9 62 ff ff ff	 jmp	 $LN29@master
$LN30@master:

; 5822 : 			break;

  01d7c	e9 ed 0c 00 00	 jmp	 $LN17@master
$LN174@master:

; 5823 : #endif
; 5824 : #ifdef _PROFESSION_ADDSKILL
; 5825 : 		case ATT_BOUNDARY:
; 5826 : 			ATR_VCT_NO(a0) = 0;

  01d81	8b 45 08	 mov	 eax, DWORD PTR _a0$[ebp]
  01d84	8b 48 0c	 mov	 ecx, DWORD PTR [eax+12]
  01d87	c6 01 00	 mov	 BYTE PTR [ecx], 0

; 5827 : 			ATR_CHR_ACT(a0) = ANIM_STAND;

  01d8a	8b 45 08	 mov	 eax, DWORD PTR _a0$[ebp]
  01d8d	c7 80 4c 01 00
	00 03 00 00 00	 mov	 DWORD PTR [eax+332], 3

; 5828 : 			ATR_FIRST_FLG(a0) = 0;	

  01d97	8b 45 08	 mov	 eax, DWORD PTR _a0$[ebp]
  01d9a	8b 48 0c	 mov	 ecx, DWORD PTR [eax+12]
  01d9d	c6 81 1e 01 00
	00 00		 mov	 BYTE PTR [ecx+286], 0

; 5829 : 			ATR_VCT_NO(a1) = 0;		//_?

  01da4	8b 45 f8	 mov	 eax, DWORD PTR _a1$[ebp]
  01da7	8b 48 0c	 mov	 ecx, DWORD PTR [eax+12]
  01daa	c6 01 00	 mov	 BYTE PTR [ecx], 0

; 5830 : 			ATR_CHR_ACT(a1) = ANIM_STAND;		//_???????

  01dad	8b 45 f8	 mov	 eax, DWORD PTR _a1$[ebp]
  01db0	c7 80 4c 01 00
	00 03 00 00 00	 mov	 DWORD PTR [eax+332], 3

; 5831 : 			ATR_FIRST_FLG(a1) = 0;

  01dba	8b 45 f8	 mov	 eax, DWORD PTR _a1$[ebp]
  01dbd	8b 48 0c	 mov	 ecx, DWORD PTR [eax+12]
  01dc0	c6 81 1e 01 00
	00 00		 mov	 BYTE PTR [ecx+286], 0

; 5832 : 			d0 = get_num();		//???????????

  01dc7	e8 00 00 00 00	 call	 ?get_num@@YAHXZ		; get_num
  01dcc	89 45 d4	 mov	 DWORD PTR _d0$[ebp], eax

; 5833 : 			BuildBoundaryMagicData( d0 );

  01dcf	8b 45 d4	 mov	 eax, DWORD PTR _d0$[ebp]
  01dd2	50		 push	 eax
  01dd3	e8 00 00 00 00	 call	 ?BuildBoundaryMagicData@@YAHH@Z ; BuildBoundaryMagicData
  01dd8	83 c4 04	 add	 esp, 4

; 5834 : 			d0 = get_num();

  01ddb	e8 00 00 00 00	 call	 ?get_num@@YAHXZ		; get_num
  01de0	89 45 d4	 mov	 DWORD PTR _d0$[ebp], eax

; 5835 : 			break;

  01de3	e9 86 0c 00 00	 jmp	 $LN17@master
$LN175@master:

; 5836 : #endif
; 5837 : #ifdef _PETSKILL_RIDE
; 5838 : 		case ATT_RIDE:
; 5839 : 			ATR_VCT_NO(a0) = 0;

  01de8	8b 45 08	 mov	 eax, DWORD PTR _a0$[ebp]
  01deb	8b 48 0c	 mov	 ecx, DWORD PTR [eax+12]
  01dee	c6 01 00	 mov	 BYTE PTR [ecx], 0

; 5840 : 			ATR_CHR_ACT(a0) = ANIM_STAND;

  01df1	8b 45 08	 mov	 eax, DWORD PTR _a0$[ebp]
  01df4	c7 80 4c 01 00
	00 03 00 00 00	 mov	 DWORD PTR [eax+332], 3

; 5841 : 			ATR_FIRST_FLG(a0) = 0;	

  01dfe	8b 45 08	 mov	 eax, DWORD PTR _a0$[ebp]
  01e01	8b 48 0c	 mov	 ecx, DWORD PTR [eax+12]
  01e04	c6 81 1e 01 00
	00 00		 mov	 BYTE PTR [ecx+286], 0

; 5842 : 			ATR_VCT_NO(a1) = 0;		//_?

  01e0b	8b 45 f8	 mov	 eax, DWORD PTR _a1$[ebp]
