; Listing generated by Microsoft (R) Optimizing Compiler Version 19.00.24215.1 

	TITLE	C:\Users\Administrator\Desktop\????? ??\????? ??\Client Source Code\ohta\ohta_proc.cpp
	.686P
	.XMM
	include listing.inc
	.model	flat

INCLUDELIB MSVCRTD
INCLUDELIB OLDNAMES

PUBLIC	?OhtaTestProc@@YAXXZ				; OhtaTestProc
EXTRN	?PaletteProc@@YAXXZ:PROC			; PaletteProc
EXTRN	?RunAction@@YAXXZ:PROC				; RunAction
EXTRN	?StockTaskDispBuffer@@YAXXZ:PROC		; StockTaskDispBuffer
EXTRN	?ChatBufferToFontBuffer@@YAXXZ:PROC		; ChatBufferToFontBuffer
EXTRN	?ChatProc@@YAXXZ:PROC				; ChatProc
EXTRN	?GetKeyInputFocus@@YAXPAUSTR_BUFFER@@@Z:PROC	; GetKeyInputFocus
EXTRN	?InitChat@@YAXXZ:PROC				; InitChat
EXTRN	?FlashKeyboardCursor@@YAXXZ:PROC		; FlashKeyboardCursor
EXTRN	?MakeJiki@@YAPAUaction@@XZ:PROC			; MakeJiki
EXTRN	?ImeProc@@YAXXZ:PROC				; ImeProc
EXTRN	?drawMap@@YAXXZ:PROC				; drawMap
EXTRN	?drawGrid@@YAXXZ:PROC				; drawGrid
EXTRN	?moveProc@@YAXXZ:PROC				; moveProc
EXTRN	?MenuProc@@YAXXZ:PROC				; MenuProc
EXTRN	__RTC_CheckEsp:PROC
EXTRN	__RTC_InitBase:PROC
EXTRN	__RTC_Shutdown:PROC
EXTRN	?SubProcNo@@3IA:DWORD				; SubProcNo
EXTRN	?MyChatBuffer@@3USTR_BUFFER@@A:BYTE		; MyChatBuffer
EXTRN	?mouse@@3UMOUSE@@A:BYTE				; mouse
EXTRN	?TaskBarFlag@@3HA:DWORD				; TaskBarFlag
;	COMDAT rtc$TMZ
rtc$TMZ	SEGMENT
__RTC_Shutdown.rtc$TMZ DD FLAT:__RTC_Shutdown
rtc$TMZ	ENDS
;	COMDAT rtc$IMZ
rtc$IMZ	SEGMENT
__RTC_InitBase.rtc$IMZ DD FLAT:__RTC_InitBase
rtc$IMZ	ENDS
; Function compile flags: /Odtp /RTCsu /ZI
; File c:\users\administrator\desktop\????? ??\????? ??\client source code\ohta\ohta_proc.cpp
;	COMDAT ?OhtaTestProc@@YAXXZ
_TEXT	SEGMENT
tv64 = -196						; size = 4
?OhtaTestProc@@YAXXZ PROC				; OhtaTestProc, COMDAT

; 13   : {

  00000	55		 push	 ebp
  00001	8b ec		 mov	 ebp, esp
  00003	81 ec c4 00 00
	00		 sub	 esp, 196		; 000000c4H
  00009	53		 push	 ebx
  0000a	56		 push	 esi
  0000b	57		 push	 edi
  0000c	8d bd 3c ff ff
	ff		 lea	 edi, DWORD PTR [ebp-196]
  00012	b9 31 00 00 00	 mov	 ecx, 49			; 00000031H
  00017	b8 cc cc cc cc	 mov	 eax, -858993460		; ccccccccH
  0001c	f3 ab		 rep stosd

; 14   : 	switch( SubProcNo ){

  0001e	a1 00 00 00 00	 mov	 eax, DWORD PTR ?SubProcNo@@3IA ; SubProcNo
  00023	89 85 3c ff ff
	ff		 mov	 DWORD PTR tv64[ebp], eax
  00029	83 bd 3c ff ff
	ff 00		 cmp	 DWORD PTR tv64[ebp], 0
  00030	74 0b		 je	 SHORT $LN4@OhtaTestPr
  00032	83 bd 3c ff ff
	ff 01		 cmp	 DWORD PTR tv64[ebp], 1
  00039	74 28		 je	 SHORT $LN5@OhtaTestPr
  0003b	eb 72		 jmp	 SHORT $LN1@OhtaTestPr
$LN4@OhtaTestPr:

; 15   : 		case 0:
; 16   : 			MakeJiki();

  0003d	e8 00 00 00 00	 call	 ?MakeJiki@@YAPAUaction@@XZ ; MakeJiki

; 17   : 			SubProcNo++;

  00042	a1 00 00 00 00	 mov	 eax, DWORD PTR ?SubProcNo@@3IA ; SubProcNo
  00047	83 c0 01	 add	 eax, 1
  0004a	a3 00 00 00 00	 mov	 DWORD PTR ?SubProcNo@@3IA, eax ; SubProcNo

; 18   : 			InitChat();

  0004f	e8 00 00 00 00	 call	 ?InitChat@@YAXXZ	; InitChat

; 19   : 			GetKeyInputFocus( &MyChatBuffer );

  00054	68 00 00 00 00	 push	 OFFSET ?MyChatBuffer@@3USTR_BUFFER@@A ; MyChatBuffer
  00059	e8 00 00 00 00	 call	 ?GetKeyInputFocus@@YAXPAUSTR_BUFFER@@@Z ; GetKeyInputFocus
  0005e	83 c4 04	 add	 esp, 4

; 20   : 			break;

  00061	eb 4c		 jmp	 SHORT $LN1@OhtaTestPr
$LN5@OhtaTestPr:

; 21   : 		
; 22   : 		case 1:
; 23   : 			FlashKeyboardCursor();

  00063	e8 00 00 00 00	 call	 ?FlashKeyboardCursor@@YAXXZ ; FlashKeyboardCursor

; 24   : 			if( mouse.level < DISP_PRIO_MENU && TaskBarFlag == FALSE ){

  00068	0f b6 05 44 00
	00 00		 movzx	 eax, BYTE PTR ?mouse@@3UMOUSE@@A+68
  0006f	83 f8 68	 cmp	 eax, 104		; 00000068H
  00072	7d 13		 jge	 SHORT $LN6@OhtaTestPr
  00074	83 3d 00 00 00
	00 00		 cmp	 DWORD PTR ?TaskBarFlag@@3HA, 0 ; TaskBarFlag
  0007b	75 0a		 jne	 SHORT $LN6@OhtaTestPr

; 25   : 				drawGrid();

  0007d	e8 00 00 00 00	 call	 ?drawGrid@@YAXXZ	; drawGrid

; 26   : 				moveProc();

  00082	e8 00 00 00 00	 call	 ?moveProc@@YAXXZ	; moveProc
$LN6@OhtaTestPr:

; 27   : 			}
; 28   : 
; 29   : 			RunAction();

  00087	e8 00 00 00 00	 call	 ?RunAction@@YAXXZ	; RunAction

; 30   : 			StockTaskDispBuffer();

  0008c	e8 00 00 00 00	 call	 ?StockTaskDispBuffer@@YAXXZ ; StockTaskDispBuffer

; 31   : 			drawMap();

  00091	e8 00 00 00 00	 call	 ?drawMap@@YAXXZ		; drawMap

; 32   : 			ChatProc();

  00096	e8 00 00 00 00	 call	 ?ChatProc@@YAXXZ	; ChatProc

; 33   : 			ChatBufferToFontBuffer(); 

  0009b	e8 00 00 00 00	 call	 ?ChatBufferToFontBuffer@@YAXXZ ; ChatBufferToFontBuffer

; 34   : 			MenuProc();

  000a0	e8 00 00 00 00	 call	 ?MenuProc@@YAXXZ	; MenuProc

; 35   : 			ImeProc();		

  000a5	e8 00 00 00 00	 call	 ?ImeProc@@YAXXZ		; ImeProc

; 36   : 			PaletteProc();

  000aa	e8 00 00 00 00	 call	 ?PaletteProc@@YAXXZ	; PaletteProc
$LN1@OhtaTestPr:

; 37   : 			break;
; 38   : 	}
; 39   : }

  000af	5f		 pop	 edi
  000b0	5e		 pop	 esi
  000b1	5b		 pop	 ebx
  000b2	81 c4 c4 00 00
	00		 add	 esp, 196		; 000000c4H
  000b8	3b ec		 cmp	 ebp, esp
  000ba	e8 00 00 00 00	 call	 __RTC_CheckEsp
  000bf	8b e5		 mov	 esp, ebp
  000c1	5d		 pop	 ebp
  000c2	c3		 ret	 0
?OhtaTestProc@@YAXXZ ENDP				; OhtaTestProc
_TEXT	ENDS
END
