; Listing generated by Microsoft (R) Optimizing Compiler Version 19.00.24215.1 

	TITLE	C:\Users\Administrator\Desktop\????? ??\????? ??\Client Source Code\ohta\Ohta.cpp
	.686P
	.XMM
	include listing.inc
	.model	flat

INCLUDELIB MSVCRTD
INCLUDELIB OLDNAMES

PUBLIC	?pJiki@@3PAUaction@@A				; pJiki
PUBLIC	?bomData@@3PAHA					; bomData
_BSS	SEGMENT
?pJiki@@3PAUaction@@A DD 01H DUP (?)			; pJiki
_BSS	ENDS
_DATA	SEGMENT
?bomData@@3PAHA DD 015H					; bomData
	DD	016H
	DD	017H
	DD	017H
	DD	016H
	DD	015H
?No@@3HA DD	08ca0H					; No
_DATA	ENDS
PUBLIC	?MakeJiki@@YAPAUaction@@XZ			; MakeJiki
PUBLIC	?Jiki@@YAXPAUaction@@@Z				; Jiki
PUBLIC	?MakeJikiTama@@YAPAUaction@@HHHHH@Z		; MakeJikiTama
PUBLIC	?JikiTama@@YAXPAUaction@@@Z			; JikiTama
PUBLIC	?MakeEnemy@@YAPAUaction@@XZ			; MakeEnemy
PUBLIC	?Enemy@@YAXPAUaction@@@Z			; Enemy
PUBLIC	?MakeEnemyTama@@YAPAUaction@@PAU1@@Z		; MakeEnemyTama
PUBLIC	?EnemyTama@@YAXPAUaction@@@Z			; EnemyTama
PUBLIC	?MakeBg@@YAPAUaction@@XZ			; MakeBg
PUBLIC	?Bg@@YAXPAUaction@@@Z				; Bg
PUBLIC	?MakeKen@@YAPAUaction@@XZ			; MakeKen
PUBLIC	?Ken@@YAXPAUaction@@@Z				; Ken
PUBLIC	?MakeGameOver@@YAPAUaction@@XZ			; MakeGameOver
PUBLIC	?GameOver@@YAXPAUaction@@@Z			; GameOver
PUBLIC	?enemy_missile@@YAXPAUaction@@@Z		; enemy_missile
PUBLIC	??_C@_0L@EODHLCGM@BmpNo?5?$DN?5?$CFd?$AA@	; `string'
EXTRN	__imp__wsprintfA:PROC
EXTRN	__imp__GetAsyncKeyState@4:PROC
EXTRN	?GetAction@@YAPAUaction@@EI@Z:PROC		; GetAction
EXTRN	?DeathAction@@YAXPAUaction@@@Z:PROC		; DeathAction
EXTRN	?Rnd@@YAHHH@Z:PROC				; Rnd
EXTRN	?StockFontBuffer2@@YAXPAUSTR_BUFFER@@@Z:PROC	; StockFontBuffer2
EXTRN	?radar@@YAXPAUaction@@PAH1@Z:PROC		; radar
EXTRN	?radar2@@YAHPAUaction@@HHH@Z:PROC		; radar2
EXTRN	?gemini@@YAXPAUaction@@@Z:PROC			; gemini
EXTRN	?pattern@@YAHPAUaction@@HH@Z:PROC		; pattern
EXTRN	?play_se@@YAHHHH@Z:PROC				; play_se
EXTRN	@_RTC_CheckStackVars@8:PROC
EXTRN	@__security_check_cookie@4:PROC
EXTRN	__RTC_CheckEsp:PROC
EXTRN	__RTC_InitBase:PROC
EXTRN	__RTC_Shutdown:PROC
EXTRN	?joy_con@@3PAKA:QWORD				; joy_con
EXTRN	?mouse@@3UMOUSE@@A:BYTE				; mouse
EXTRN	?HitDispNo@@3HA:DWORD				; HitDispNo
EXTRN	___security_cookie:DWORD
;	COMDAT rtc$TMZ
rtc$TMZ	SEGMENT
__RTC_Shutdown.rtc$TMZ DD FLAT:__RTC_Shutdown
rtc$TMZ	ENDS
;	COMDAT rtc$IMZ
rtc$IMZ	SEGMENT
__RTC_InitBase.rtc$IMZ DD FLAT:__RTC_InitBase
rtc$IMZ	ENDS
;	COMDAT ??_C@_0L@EODHLCGM@BmpNo?5?$DN?5?$CFd?$AA@
CONST	SEGMENT
??_C@_0L@EODHLCGM@BmpNo?5?$DN?5?$CFd?$AA@ DB 'BmpNo = %d', 00H ; `string'
CONST	ENDS
; Function compile flags: /Odtp /RTCsu /ZI
; File c:\users\administrator\desktop\????? ??\????? ??\client source code\ohta\ohta.cpp
;	COMDAT ?enemy_missile@@YAXPAUaction@@@Z
_TEXT	SEGMENT
_a0$ = 8						; size = 4
?enemy_missile@@YAXPAUaction@@@Z PROC			; enemy_missile, COMDAT

; 527  : {

  00000	55		 push	 ebp
  00001	8b ec		 mov	 ebp, esp
  00003	81 ec c0 00 00
	00		 sub	 esp, 192		; 000000c0H
  00009	53		 push	 ebx
  0000a	56		 push	 esi
  0000b	57		 push	 edi
  0000c	8d bd 40 ff ff
	ff		 lea	 edi, DWORD PTR [ebp-192]
  00012	b9 30 00 00 00	 mov	 ecx, 48			; 00000030H
  00017	b8 cc cc cc cc	 mov	 eax, -858993460		; ccccccccH
  0001c	f3 ab		 rep stosd

; 528  : 	gemini(a0);		//移

  0001e	8b 45 08	 mov	 eax, DWORD PTR _a0$[ebp]
  00021	50		 push	 eax
  00022	e8 00 00 00 00	 call	 ?gemini@@YAXPAUaction@@@Z ; gemini
  00027	83 c4 04	 add	 esp, 4

; 529  : 	//画面外なら
; 530  : 	if(ATR_H_POS(a0)>=640 || ATR_H_POS(a0)<-32 || ATR_V_POS(a0)>480 || ATR_V_POS(a0)<-32)

  0002a	8b 45 08	 mov	 eax, DWORD PTR _a0$[ebp]
  0002d	81 78 18 80 02
	00 00		 cmp	 DWORD PTR [eax+24], 640	; 00000280H
  00034	7d 1e		 jge	 SHORT $LN3@enemy_miss
  00036	8b 45 08	 mov	 eax, DWORD PTR _a0$[ebp]
  00039	83 78 18 e0	 cmp	 DWORD PTR [eax+24], -32	; ffffffe0H
  0003d	7c 15		 jl	 SHORT $LN3@enemy_miss
  0003f	8b 45 08	 mov	 eax, DWORD PTR _a0$[ebp]
  00042	81 78 1c e0 01
	00 00		 cmp	 DWORD PTR [eax+28], 480	; 000001e0H
  00049	7f 09		 jg	 SHORT $LN3@enemy_miss
  0004b	8b 45 08	 mov	 eax, DWORD PTR _a0$[ebp]
  0004e	83 78 1c e0	 cmp	 DWORD PTR [eax+28], -32	; ffffffe0H
  00052	7d 0c		 jge	 SHORT $LN1@enemy_miss
$LN3@enemy_miss:

; 531  : 		DeathAction( a0 );		//K了

  00054	8b 45 08	 mov	 eax, DWORD PTR _a0$[ebp]
  00057	50		 push	 eax
  00058	e8 00 00 00 00	 call	 ?DeathAction@@YAXPAUaction@@@Z ; DeathAction
  0005d	83 c4 04	 add	 esp, 4
$LN1@enemy_miss:

; 532  : }

  00060	5f		 pop	 edi
  00061	5e		 pop	 esi
  00062	5b		 pop	 ebx
  00063	81 c4 c0 00 00
	00		 add	 esp, 192		; 000000c0H
  00069	3b ec		 cmp	 ebp, esp
  0006b	e8 00 00 00 00	 call	 __RTC_CheckEsp
  00070	8b e5		 mov	 esp, ebp
  00072	5d		 pop	 ebp
  00073	c3		 ret	 0
?enemy_missile@@YAXPAUaction@@@Z ENDP			; enemy_missile
_TEXT	ENDS
; Function compile flags: /Odtp /RTCsu /ZI
; File c:\users\administrator\desktop\????? ??\????? ??\client source code\ohta\ohta.cpp
;	COMDAT ?GameOver@@YAXPAUaction@@@Z
_TEXT	SEGMENT
_pAct$ = 8						; size = 4
?GameOver@@YAXPAUaction@@@Z PROC			; GameOver, COMDAT

; 799  : {

  00000	55		 push	 ebp
  00001	8b ec		 mov	 ebp, esp
  00003	81 ec c0 00 00
	00		 sub	 esp, 192		; 000000c0H
  00009	53		 push	 ebx
  0000a	56		 push	 esi
  0000b	57		 push	 edi
  0000c	8d bd 40 ff ff
	ff		 lea	 edi, DWORD PTR [ebp-192]
  00012	b9 30 00 00 00	 mov	 ecx, 48			; 00000030H
  00017	b8 cc cc cc cc	 mov	 eax, -858993460		; ccccccccH
  0001c	f3 ab		 rep stosd

; 800  : 	//char szMoji[128];
; 801  : 	
; 802  : 	// GAME OVER 表示
; 803  : 	
; 804  : }

  0001e	5f		 pop	 edi
  0001f	5e		 pop	 esi
  00020	5b		 pop	 ebx
  00021	8b e5		 mov	 esp, ebp
  00023	5d		 pop	 ebp
  00024	c3		 ret	 0
?GameOver@@YAXPAUaction@@@Z ENDP			; GameOver
_TEXT	ENDS
; Function compile flags: /Odtp /RTCsu /ZI
; File c:\users\administrator\desktop\????? ??\????? ??\client source code\ohta\ohta.cpp
;	COMDAT ?MakeGameOver@@YAPAUaction@@XZ
_TEXT	SEGMENT
_pAct$ = -8						; size = 4
?MakeGameOver@@YAPAUaction@@XZ PROC			; MakeGameOver, COMDAT

; 771  : {

  00000	55		 push	 ebp
  00001	8b ec		 mov	 ebp, esp
  00003	81 ec cc 00 00
	00		 sub	 esp, 204		; 000000ccH
  00009	53		 push	 ebx
  0000a	56		 push	 esi
  0000b	57		 push	 edi
  0000c	8d bd 34 ff ff
	ff		 lea	 edi, DWORD PTR [ebp-204]
  00012	b9 33 00 00 00	 mov	 ecx, 51			; 00000033H
  00017	b8 cc cc cc cc	 mov	 eax, -858993460		; ccccccccH
  0001c	f3 ab		 rep stosd

; 772  : 	ACTION *pAct;
; 773  : 	
; 774  : 	/* アクションリストに登h */
; 775  : 	pAct = GetAction( PRIO_GAME_OVER, 0 );

  0001e	6a 00		 push	 0
  00020	6a 09		 push	 9
  00022	e8 00 00 00 00	 call	 ?GetAction@@YAPAUaction@@EI@Z ; GetAction
  00027	83 c4 08	 add	 esp, 8
  0002a	89 45 f8	 mov	 DWORD PTR _pAct$[ebp], eax

; 776  : 	if( pAct == NULL ) return NULL;

  0002d	83 7d f8 00	 cmp	 DWORD PTR _pAct$[ebp], 0
  00031	75 04		 jne	 SHORT $LN2@MakeGameOv
  00033	33 c0		 xor	 eax, eax
  00035	eb 4d		 jmp	 SHORT $LN1@MakeGameOv
$LN2@MakeGameOv:

; 777  : 	
; 778  : 	/* g行v数 */
; 779  : 	pAct->func = GameOver;

  00037	8b 45 f8	 mov	 eax, DWORD PTR _pAct$[ebp]
  0003a	c7 40 08 00 00
	00 00		 mov	 DWORD PTR [eax+8], OFFSET ?GameOver@@YAXPAUaction@@@Z ; GameOver

; 780  : 	
; 781  : 	// 非表示
; 782  : 	pAct->atr |= ACT_ATR_HIDE;

  00041	8b 45 f8	 mov	 eax, DWORD PTR _pAct$[ebp]
  00044	8b 88 a4 00 00
	00		 mov	 ecx, DWORD PTR [eax+164]
  0004a	83 c9 02	 or	 ecx, 2
  0004d	8b 55 f8	 mov	 edx, DWORD PTR _pAct$[ebp]
  00050	89 8a a4 00 00
	00		 mov	 DWORD PTR [edx+164], ecx

; 783  : 	
; 784  : 	/* スプライト番号 */
; 785  : 	pAct->bmpNo = 0;

  00056	8b 45 f8	 mov	 eax, DWORD PTR _pAct$[ebp]
  00059	c7 80 9c 00 00
	00 00 00 00 00	 mov	 DWORD PTR [eax+156], 0

; 786  : //	pAct->bmpNo = 30;
; 787  : 	/* ＨＰ */
; 788  : 	pAct->hp = 100;

  00063	8b 45 f8	 mov	 eax, DWORD PTR _pAct$[ebp]
  00066	c7 40 78 64 00
	00 00		 mov	 DWORD PTR [eax+120], 100 ; 00000064H

; 789  : 	/* 初期位置 */
; 790  : 	pAct->x = 250;

  0006d	8b 45 f8	 mov	 eax, DWORD PTR _pAct$[ebp]
  00070	c7 40 18 fa 00
	00 00		 mov	 DWORD PTR [eax+24], 250	; 000000faH

; 791  : 	pAct->y = 200;

  00077	8b 45 f8	 mov	 eax, DWORD PTR _pAct$[ebp]
  0007a	c7 40 1c c8 00
	00 00		 mov	 DWORD PTR [eax+28], 200	; 000000c8H

; 792  : 
; 793  : 	return pAct;

  00081	8b 45 f8	 mov	 eax, DWORD PTR _pAct$[ebp]
$LN1@MakeGameOv:

; 794  : 	
; 795  : }

  00084	5f		 pop	 edi
  00085	5e		 pop	 esi
  00086	5b		 pop	 ebx
  00087	81 c4 cc 00 00
	00		 add	 esp, 204		; 000000ccH
  0008d	3b ec		 cmp	 ebp, esp
  0008f	e8 00 00 00 00	 call	 __RTC_CheckEsp
  00094	8b e5		 mov	 esp, ebp
  00096	5d		 pop	 ebp
  00097	c3		 ret	 0
?MakeGameOver@@YAPAUaction@@XZ ENDP			; MakeGameOver
_TEXT	ENDS
; Function compile flags: /Odtp /RTCsu /ZI
; File c:\users\administrator\desktop\????? ??\????? ??\client source code\ohta\ohta.cpp
;	COMDAT ?Ken@@YAXPAUaction@@@Z
_TEXT	SEGMENT
_anim$ = -104						; size = 96
__$ArrayPad$ = -4					; size = 4
_pAct$ = 8						; size = 4
?Ken@@YAXPAUaction@@@Z PROC				; Ken, COMDAT

; 880  : {

  00000	55		 push	 ebp
  00001	8b ec		 mov	 ebp, esp
  00003	81 ec 2c 01 00
	00		 sub	 esp, 300		; 0000012cH
  00009	53		 push	 ebx
  0000a	56		 push	 esi
  0000b	57		 push	 edi
  0000c	8d bd d4 fe ff
	ff		 lea	 edi, DWORD PTR [ebp-300]
  00012	b9 4b 00 00 00	 mov	 ecx, 75			; 0000004bH
  00017	b8 cc cc cc cc	 mov	 eax, -858993460		; ccccccccH
  0001c	f3 ab		 rep stosd
  0001e	a1 00 00 00 00	 mov	 eax, DWORD PTR ___security_cookie
  00023	33 c5		 xor	 eax, ebp
  00025	89 45 fc	 mov	 DWORD PTR __$ArrayPad$[ebp], eax

; 881  : 	int anim[] = { 	0,0,0,0,

  00028	c7 45 98 00 00
	00 00		 mov	 DWORD PTR _anim$[ebp], 0
  0002f	c7 45 9c 00 00
	00 00		 mov	 DWORD PTR _anim$[ebp+4], 0
  00036	c7 45 a0 00 00
	00 00		 mov	 DWORD PTR _anim$[ebp+8], 0
  0003d	c7 45 a4 00 00
	00 00		 mov	 DWORD PTR _anim$[ebp+12], 0

; 882  : 					1,1,1,1,

  00044	c7 45 a8 01 00
	00 00		 mov	 DWORD PTR _anim$[ebp+16], 1
  0004b	c7 45 ac 01 00
	00 00		 mov	 DWORD PTR _anim$[ebp+20], 1
  00052	c7 45 b0 01 00
	00 00		 mov	 DWORD PTR _anim$[ebp+24], 1
  00059	c7 45 b4 01 00
	00 00		 mov	 DWORD PTR _anim$[ebp+28], 1

; 883  : 					2,2,2,2,

  00060	c7 45 b8 02 00
	00 00		 mov	 DWORD PTR _anim$[ebp+32], 2
  00067	c7 45 bc 02 00
	00 00		 mov	 DWORD PTR _anim$[ebp+36], 2
  0006e	c7 45 c0 02 00
	00 00		 mov	 DWORD PTR _anim$[ebp+40], 2
  00075	c7 45 c4 02 00
	00 00		 mov	 DWORD PTR _anim$[ebp+44], 2

; 884  : 					3,3,3,3,

  0007c	c7 45 c8 03 00
	00 00		 mov	 DWORD PTR _anim$[ebp+48], 3
  00083	c7 45 cc 03 00
	00 00		 mov	 DWORD PTR _anim$[ebp+52], 3
  0008a	c7 45 d0 03 00
	00 00		 mov	 DWORD PTR _anim$[ebp+56], 3
  00091	c7 45 d4 03 00
	00 00		 mov	 DWORD PTR _anim$[ebp+60], 3

; 885  : 					2,2,2,2,

  00098	c7 45 d8 02 00
	00 00		 mov	 DWORD PTR _anim$[ebp+64], 2
  0009f	c7 45 dc 02 00
	00 00		 mov	 DWORD PTR _anim$[ebp+68], 2
  000a6	c7 45 e0 02 00
	00 00		 mov	 DWORD PTR _anim$[ebp+72], 2
  000ad	c7 45 e4 02 00
	00 00		 mov	 DWORD PTR _anim$[ebp+76], 2

; 886  : 					1,1,1,1 

  000b4	c7 45 e8 01 00
	00 00		 mov	 DWORD PTR _anim$[ebp+80], 1
  000bb	c7 45 ec 01 00
	00 00		 mov	 DWORD PTR _anim$[ebp+84], 1
  000c2	c7 45 f0 01 00
	00 00		 mov	 DWORD PTR _anim$[ebp+88], 1
  000c9	c7 45 f4 01 00
	00 00		 mov	 DWORD PTR _anim$[ebp+92], 1

; 887  : 					};
; 888  : }

  000d0	52		 push	 edx
  000d1	8b cd		 mov	 ecx, ebp
  000d3	50		 push	 eax
  000d4	8d 15 00 00 00
	00		 lea	 edx, DWORD PTR $LN5@Ken
  000da	e8 00 00 00 00	 call	 @_RTC_CheckStackVars@8
  000df	58		 pop	 eax
  000e0	5a		 pop	 edx
  000e1	5f		 pop	 edi
  000e2	5e		 pop	 esi
  000e3	5b		 pop	 ebx
  000e4	8b 4d fc	 mov	 ecx, DWORD PTR __$ArrayPad$[ebp]
  000e7	33 cd		 xor	 ecx, ebp
  000e9	e8 00 00 00 00	 call	 @__security_check_cookie@4
  000ee	8b e5		 mov	 esp, ebp
  000f0	5d		 pop	 ebp
  000f1	c3		 ret	 0
  000f2	66 90		 npad	 2
$LN5@Ken:
  000f4	01 00 00 00	 DD	 1
  000f8	00 00 00 00	 DD	 $LN4@Ken
$LN4@Ken:
  000fc	98 ff ff ff	 DD	 -104			; ffffff98H
  00100	60 00 00 00	 DD	 96			; 00000060H
  00104	00 00 00 00	 DD	 $LN3@Ken
$LN3@Ken:
  00108	61		 DB	 97			; 00000061H
  00109	6e		 DB	 110			; 0000006eH
  0010a	69		 DB	 105			; 00000069H
  0010b	6d		 DB	 109			; 0000006dH
  0010c	00		 DB	 0
?Ken@@YAXPAUaction@@@Z ENDP				; Ken
_TEXT	ENDS
; Function compile flags: /Odtp /RTCsu /ZI
; File c:\users\administrator\desktop\????? ??\????? ??\client source code\ohta\ohta.cpp
;	COMDAT ?MakeKen@@YAPAUaction@@XZ
_TEXT	SEGMENT
_pAct$ = -8						; size = 4
?MakeKen@@YAPAUaction@@XZ PROC				; MakeKen, COMDAT

; 852  : {

  00000	55		 push	 ebp
  00001	8b ec		 mov	 ebp, esp
  00003	81 ec cc 00 00
	00		 sub	 esp, 204		; 000000ccH
  00009	53		 push	 ebx
  0000a	56		 push	 esi
  0000b	57		 push	 edi
  0000c	8d bd 34 ff ff
	ff		 lea	 edi, DWORD PTR [ebp-204]
  00012	b9 33 00 00 00	 mov	 ecx, 51			; 00000033H
  00017	b8 cc cc cc cc	 mov	 eax, -858993460		; ccccccccH
  0001c	f3 ab		 rep stosd

; 853  : 	ACTION *pAct;
; 854  : 	
; 855  : 	/* アクションリストに登h */
; 856  : 	pAct = GetAction( PRIO_BG, NULL );

  0001e	6a 00		 push	 0
  00020	6a 02		 push	 2
  00022	e8 00 00 00 00	 call	 ?GetAction@@YAPAUaction@@EI@Z ; GetAction
  00027	83 c4 08	 add	 esp, 8
  0002a	89 45 f8	 mov	 DWORD PTR _pAct$[ebp], eax

; 857  : 	if( pAct == NULL ) return NULL;

  0002d	83 7d f8 00	 cmp	 DWORD PTR _pAct$[ebp], 0
  00031	75 04		 jne	 SHORT $LN2@MakeKen
  00033	33 c0		 xor	 eax, eax
  00035	eb 35		 jmp	 SHORT $LN1@MakeKen
$LN2@MakeKen:

; 858  : 	
; 859  : 	/* g行v数 */
; 860  : 	pAct->func = Ken;

  00037	8b 45 f8	 mov	 eax, DWORD PTR _pAct$[ebp]
  0003a	c7 40 08 00 00
	00 00		 mov	 DWORD PTR [eax+8], OFFSET ?Ken@@YAXPAUaction@@@Z ; Ken

; 861  : 	
; 862  : 	/* スプライト番号 */
; 863  : 	pAct->bmpNo = 33;

  00041	8b 45 f8	 mov	 eax, DWORD PTR _pAct$[ebp]
  00044	c7 80 9c 00 00
	00 21 00 00 00	 mov	 DWORD PTR [eax+156], 33	; 00000021H

; 864  : 	/* 表示先度 */
; 865  : 	pAct->dispPrio = 100;

  0004e	8b 45 f8	 mov	 eax, DWORD PTR _pAct$[ebp]
  00051	c6 40 15 64	 mov	 BYTE PTR [eax+21], 100	; 00000064H

; 866  : 	/* 初期位置 */
; 867  : 	pAct->x = 100;

  00055	8b 45 f8	 mov	 eax, DWORD PTR _pAct$[ebp]
  00058	c7 40 18 64 00
	00 00		 mov	 DWORD PTR [eax+24], 100	; 00000064H

; 868  : 	pAct->y = 100;

  0005f	8b 45 f8	 mov	 eax, DWORD PTR _pAct$[ebp]
  00062	c7 40 1c 64 00
	00 00		 mov	 DWORD PTR [eax+28], 100	; 00000064H

; 869  : 	
; 870  : 	// 取出す座
; 871  : 	//pYobi->rcX = 0;
; 872  : 	//pYobi->rcY = 480;
; 873  : 	//SetRect( &Rc[ pAct->bmpNo ], pYobi->rcX, pYobi->rcY, pYobi->rcX + 640, pYobi->rcY + 480 ); 
; 874  : 
; 875  : 	return pAct;

  00069	8b 45 f8	 mov	 eax, DWORD PTR _pAct$[ebp]
$LN1@MakeKen:

; 876  : }

  0006c	5f		 pop	 edi
  0006d	5e		 pop	 esi
  0006e	5b		 pop	 ebx
  0006f	81 c4 cc 00 00
	00		 add	 esp, 204		; 000000ccH
  00075	3b ec		 cmp	 ebp, esp
  00077	e8 00 00 00 00	 call	 __RTC_CheckEsp
  0007c	8b e5		 mov	 esp, ebp
  0007e	5d		 pop	 ebp
  0007f	c3		 ret	 0
?MakeKen@@YAPAUaction@@XZ ENDP				; MakeKen
_TEXT	ENDS
; Function compile flags: /Odtp /RTCsu /ZI
; File c:\users\administrator\desktop\????? ??\????? ??\client source code\ohta\ohta.cpp
;	COMDAT ?Bg@@YAXPAUaction@@@Z
_TEXT	SEGMENT
_pAct$ = 8						; size = 4
?Bg@@YAXPAUaction@@@Z PROC				; Bg, COMDAT

; 838  : {

  00000	55		 push	 ebp
  00001	8b ec		 mov	 ebp, esp
  00003	81 ec c0 00 00
	00		 sub	 esp, 192		; 000000c0H
  00009	53		 push	 ebx
  0000a	56		 push	 esi
  0000b	57		 push	 edi
  0000c	8d bd 40 ff ff
	ff		 lea	 edi, DWORD PTR [ebp-192]
  00012	b9 30 00 00 00	 mov	 ecx, 48			; 00000030H
  00017	b8 cc cc cc cc	 mov	 eax, -858993460		; ccccccccH
  0001c	f3 ab		 rep stosd

; 839  : 	// 取出す座
; 840  : 	// 取出す座
; 841  : 	//pAct->y++;
; 842  : 	//if( pAct->y >= 240 ) pAct->y = -240; 
; 843  : 	pattern( pAct, ANM_NOMAL_SPD, ANM_LOOP );		//アニメ`ションI理

  0001e	6a 00		 push	 0
  00020	6a 00		 push	 0
  00022	8b 45 08	 mov	 eax, DWORD PTR _pAct$[ebp]
  00025	50		 push	 eax
  00026	e8 00 00 00 00	 call	 ?pattern@@YAHPAUaction@@HH@Z ; pattern
  0002b	83 c4 0c	 add	 esp, 12			; 0000000cH

; 844  : 	//StockDispBuffer( pAct->x, pAct->y+480, 0, pAct->anim_chr_no, 0 );
; 845  : 	//StockDispBuffer( pAct->x, pAct->y, 0, pAct->anim_chr_no, 0 );
; 846  : 	//StockDispBuffer( pAct->x, pAct->y+480, 0, pAct->anim_chr_no, 0);
; 847  : }

  0002e	5f		 pop	 edi
  0002f	5e		 pop	 esi
  00030	5b		 pop	 ebx
  00031	81 c4 c0 00 00
	00		 add	 esp, 192		; 000000c0H
  00037	3b ec		 cmp	 ebp, esp
  00039	e8 00 00 00 00	 call	 __RTC_CheckEsp
  0003e	8b e5		 mov	 esp, ebp
  00040	5d		 pop	 ebp
  00041	c3		 ret	 0
?Bg@@YAXPAUaction@@@Z ENDP				; Bg
_TEXT	ENDS
; Function compile flags: /Odtp /RTCsu /ZI
; File c:\users\administrator\desktop\????? ??\????? ??\client source code\ohta\ohta.cpp
;	COMDAT ?MakeBg@@YAPAUaction@@XZ
_TEXT	SEGMENT
_pAct$ = -8						; size = 4
?MakeBg@@YAPAUaction@@XZ PROC				; MakeBg, COMDAT

; 808  : {

  00000	55		 push	 ebp
  00001	8b ec		 mov	 ebp, esp
  00003	81 ec cc 00 00
	00		 sub	 esp, 204		; 000000ccH
  00009	53		 push	 ebx
  0000a	56		 push	 esi
  0000b	57		 push	 edi
  0000c	8d bd 34 ff ff
	ff		 lea	 edi, DWORD PTR [ebp-204]
  00012	b9 33 00 00 00	 mov	 ecx, 51			; 00000033H
  00017	b8 cc cc cc cc	 mov	 eax, -858993460		; ccccccccH
  0001c	f3 ab		 rep stosd

; 809  : 	ACTION *pAct;
; 810  : 	
; 811  : 	/* アクションリストに登h */
; 812  : 	pAct = GetAction( PRIO_BG, NULL );

  0001e	6a 00		 push	 0
  00020	6a 02		 push	 2
  00022	e8 00 00 00 00	 call	 ?GetAction@@YAPAUaction@@EI@Z ; GetAction
  00027	83 c4 08	 add	 esp, 8
  0002a	89 45 f8	 mov	 DWORD PTR _pAct$[ebp], eax

; 813  : 	if( pAct == NULL ) return NULL;

  0002d	83 7d f8 00	 cmp	 DWORD PTR _pAct$[ebp], 0
  00031	75 04		 jne	 SHORT $LN2@MakeBg
  00033	33 c0		 xor	 eax, eax
  00035	eb 35		 jmp	 SHORT $LN1@MakeBg
$LN2@MakeBg:

; 814  : 	
; 815  : 	/* g行v数 */
; 816  : 	pAct->func = Bg;

  00037	8b 45 f8	 mov	 eax, DWORD PTR _pAct$[ebp]
  0003a	c7 40 08 00 00
	00 00		 mov	 DWORD PTR [eax+8], OFFSET ?Bg@@YAXPAUaction@@@Z ; Bg

; 817  : 	
; 818  : 	/* スプライト番号 */
; 819  : 	//pAct->bmpNo = 30;
; 820  : //	pAct->bmpNo = 44;
; 821  : 	pAct->anim_chr_no = 9376;

  00041	8b 45 f8	 mov	 eax, DWORD PTR _pAct$[ebp]
  00044	c7 80 44 01 00
	00 a0 24 00 00	 mov	 DWORD PTR [eax+324], 9376 ; 000024a0H

; 822  : 	/* 表示先度 */
; 823  : 	pAct->dispPrio = 0;

  0004e	8b 45 f8	 mov	 eax, DWORD PTR _pAct$[ebp]
  00051	c6 40 15 00	 mov	 BYTE PTR [eax+21], 0

; 824  : 	/* 初期位置 */
; 825  : 	pAct->x = 320;

  00055	8b 45 f8	 mov	 eax, DWORD PTR _pAct$[ebp]
  00058	c7 40 18 40 01
	00 00		 mov	 DWORD PTR [eax+24], 320	; 00000140H

; 826  : 	pAct->y = 240;

  0005f	8b 45 f8	 mov	 eax, DWORD PTR _pAct$[ebp]
  00062	c7 40 1c f0 00
	00 00		 mov	 DWORD PTR [eax+28], 240	; 000000f0H

; 827  : 
; 828  : 	// 取出す座
; 829  : 	//pYobi->rcX = 0;
; 830  : 	//pYobi->rcY = 480;
; 831  : 	//SetRect( &Rc[ pAct->bmpNo ], pYobi->rcX, pYobi->rcY, pYobi->rcX + 640, pYobi->rcY + 480 ); 
; 832  : 
; 833  : 	return pAct;

  00069	8b 45 f8	 mov	 eax, DWORD PTR _pAct$[ebp]
$LN1@MakeBg:

; 834  : }

  0006c	5f		 pop	 edi
  0006d	5e		 pop	 esi
  0006e	5b		 pop	 ebx
  0006f	81 c4 cc 00 00
	00		 add	 esp, 204		; 000000ccH
  00075	3b ec		 cmp	 ebp, esp
  00077	e8 00 00 00 00	 call	 __RTC_CheckEsp
  0007c	8b e5		 mov	 esp, ebp
  0007e	5d		 pop	 ebp
  0007f	c3		 ret	 0
?MakeBg@@YAPAUaction@@XZ ENDP				; MakeBg
_TEXT	ENDS
; Function compile flags: /Odtp /RTCsu /ZI
; File c:\users\administrator\desktop\????? ??\????? ??\client source code\ohta\ohta.cpp
;	COMDAT ?EnemyTama@@YAXPAUaction@@@Z
_TEXT	SEGMENT
tv75 = -196						; size = 4
_pAct$ = 8						; size = 4
?EnemyTama@@YAXPAUaction@@@Z PROC			; EnemyTama, COMDAT

; 703  : {

  00000	55		 push	 ebp
  00001	8b ec		 mov	 ebp, esp
  00003	81 ec c4 00 00
	00		 sub	 esp, 196		; 000000c4H
  00009	53		 push	 ebx
  0000a	56		 push	 esi
  0000b	57		 push	 edi
  0000c	8d bd 3c ff ff
	ff		 lea	 edi, DWORD PTR [ebp-196]
  00012	b9 31 00 00 00	 mov	 ecx, 49			; 00000031H
  00017	b8 cc cc cc cc	 mov	 eax, -858993460		; ccccccccH
  0001c	f3 ab		 rep stosd

; 704  : 
; 705  : 	/* 攻氖埭堡r */
; 706  : 	if( pAct->damage > 0 ){

  0001e	8b 45 08	 mov	 eax, DWORD PTR _pAct$[ebp]
  00021	83 b8 b0 00 00
	00 00		 cmp	 DWORD PTR [eax+176], 0
  00028	7e 38		 jle	 SHORT $LN4@EnemyTama

; 707  : 		pAct->hp -= pAct->damage;

  0002a	8b 45 08	 mov	 eax, DWORD PTR _pAct$[ebp]
  0002d	8b 4d 08	 mov	 ecx, DWORD PTR _pAct$[ebp]
  00030	8b 50 78	 mov	 edx, DWORD PTR [eax+120]
  00033	2b 91 b0 00 00
	00		 sub	 edx, DWORD PTR [ecx+176]
  00039	8b 45 08	 mov	 eax, DWORD PTR _pAct$[ebp]
  0003c	89 50 78	 mov	 DWORD PTR [eax+120], edx

; 708  : 		if( pAct->hp <= 0 ){ 

  0003f	8b 45 08	 mov	 eax, DWORD PTR _pAct$[ebp]
  00042	83 78 78 00	 cmp	 DWORD PTR [eax+120], 0
  00046	7f 0d		 jg	 SHORT $LN5@EnemyTama

; 709  : 			pAct->state = ACT_STATE_DEAD;

  00048	8b 45 08	 mov	 eax, DWORD PTR _pAct$[ebp]
  0004b	c7 80 a8 00 00
	00 01 00 00 00	 mov	 DWORD PTR [eax+168], 1
$LN5@EnemyTama:

; 710  : 		}
; 711  : 		pAct->damage = 0;

  00055	8b 45 08	 mov	 eax, DWORD PTR _pAct$[ebp]
  00058	c7 80 b0 00 00
	00 00 00 00 00	 mov	 DWORD PTR [eax+176], 0
$LN4@EnemyTama:

; 712  : 	}
; 713  : 
; 714  : 	/* 状Bで分岐 */
; 715  : 	switch( pAct->state ){

  00062	8b 45 08	 mov	 eax, DWORD PTR _pAct$[ebp]
  00065	8b 88 a8 00 00
	00		 mov	 ecx, DWORD PTR [eax+168]
  0006b	89 8d 3c ff ff
	ff		 mov	 DWORD PTR tv75[ebp], ecx
  00071	83 bd 3c ff ff
	ff 00		 cmp	 DWORD PTR tv75[ebp], 0
  00078	74 0b		 je	 SHORT $LN6@EnemyTama
  0007a	83 bd 3c ff ff
	ff 01		 cmp	 DWORD PTR tv75[ebp], 1
  00081	74 4a		 je	 SHORT $LN10@EnemyTama
  00083	eb 54		 jmp	 SHORT $LN2@EnemyTama
$LN6@EnemyTama:

; 716  : 		/* 通常r */
; 717  : 		case ACT_STATE_ACT:
; 718  : 			
; 719  : 			// マウスカ`ソルがヒットしていたら
; 720  : 			if( pAct->hitDispNo == HitDispNo ){

  00085	8b 45 08	 mov	 eax, DWORD PTR _pAct$[ebp]
  00088	8b 48 20	 mov	 ecx, DWORD PTR [eax+32]
  0008b	3b 0d 00 00 00
	00		 cmp	 ecx, DWORD PTR ?HitDispNo@@3HA ; HitDispNo
  00091	75 38		 jne	 SHORT $LN7@EnemyTama

; 721  : 				// 左クリックが押されているr
; 722  : 				if( mouse.state & MOUSE_LEFT_CRICK ){

  00093	a1 28 00 00 00	 mov	 eax, DWORD PTR ?mouse@@3UMOUSE@@A+40
  00098	83 e0 01	 and	 eax, 1
  0009b	74 18		 je	 SHORT $LN8@EnemyTama

; 723  : 					// ドラッグ移
; 724  : 					pAct->x = mouse.nowPoint.x;

  0009d	8b 45 08	 mov	 eax, DWORD PTR _pAct$[ebp]
  000a0	8b 0d 00 00 00
	00		 mov	 ecx, DWORD PTR ?mouse@@3UMOUSE@@A
  000a6	89 48 18	 mov	 DWORD PTR [eax+24], ecx

; 725  : 					pAct->y = mouse.nowPoint.y;

  000a9	8b 45 08	 mov	 eax, DWORD PTR _pAct$[ebp]
  000ac	8b 0d 04 00 00
	00		 mov	 ecx, DWORD PTR ?mouse@@3UMOUSE@@A+4
  000b2	89 48 1c	 mov	 DWORD PTR [eax+28], ecx
$LN8@EnemyTama:

; 726  : 				}
; 727  : 				// 左クリックが押されているr
; 728  : 				if( mouse.state & MOUSE_RIGHT_CRICK ){

  000b5	a1 28 00 00 00	 mov	 eax, DWORD PTR ?mouse@@3UMOUSE@@A+40
  000ba	83 e0 02	 and	 eax, 2
  000bd	74 0c		 je	 SHORT $LN7@EnemyTama

; 729  : 					// ドラッグ移
; 730  : 					DeathAction( pAct );

  000bf	8b 45 08	 mov	 eax, DWORD PTR _pAct$[ebp]
  000c2	50		 push	 eax
  000c3	e8 00 00 00 00	 call	 ?DeathAction@@YAXPAUaction@@@Z ; DeathAction
  000c8	83 c4 04	 add	 esp, 4
$LN7@EnemyTama:

; 731  : 				}
; 732  : 				
; 733  : 			}	
; 734  : 			/* 移 */
; 735  : 			//pAct->x += pAct->dx;
; 736  : 			//pAct->y += pAct->dy;
; 737  : 			//gemini( pAct );		//移
; 738  : #if 0	
; 739  : 			/* リミット */
; 740  : 			if(	pAct->y <= 0 ){
; 741  : 				pAct->y = 0;
; 742  : 				DeathAction( pAct );
; 743  : 			}else
; 744  : 			if(	pAct->y >= 481 ){ 
; 745  : 				DeathAction( pAct );
; 746  : 			}
; 747  : 			if(	pAct->x <= -8 ){
; 748  : 				DeathAction( pAct );
; 749  : 			}else
; 750  : 			if( 640 <= pAct->x ){ 
; 751  : 				DeathAction( pAct );
; 752  : 			}
; 753  : #endif			
; 754  : 			break;

  000cb	eb 0c		 jmp	 SHORT $LN2@EnemyTama
$LN10@EnemyTama:

; 755  : 		
; 756  : 		/* 死亡r */	
; 757  : 		case ACT_STATE_DEAD:
; 758  : 		
; 759  : 			DeathAction( pAct );

  000cd	8b 45 08	 mov	 eax, DWORD PTR _pAct$[ebp]
  000d0	50		 push	 eax
  000d1	e8 00 00 00 00	 call	 ?DeathAction@@YAXPAUaction@@@Z ; DeathAction
  000d6	83 c4 04	 add	 esp, 4
$LN2@EnemyTama:

; 760  : 			
; 761  : 			break;
; 762  : 	}
; 763  : 	// 移臃较	
; 764  : 	radar2( pAct, pJiki->x, pJiki->y, Rnd( 0, 10 ) );

  000d9	6a 0a		 push	 10			; 0000000aH
  000db	6a 00		 push	 0
  000dd	e8 00 00 00 00	 call	 ?Rnd@@YAHHH@Z		; Rnd
  000e2	83 c4 08	 add	 esp, 8
  000e5	50		 push	 eax
  000e6	a1 00 00 00 00	 mov	 eax, DWORD PTR ?pJiki@@3PAUaction@@A ; pJiki
  000eb	8b 48 1c	 mov	 ecx, DWORD PTR [eax+28]
  000ee	51		 push	 ecx
  000ef	8b 15 00 00 00
	00		 mov	 edx, DWORD PTR ?pJiki@@3PAUaction@@A ; pJiki
  000f5	8b 42 18	 mov	 eax, DWORD PTR [edx+24]
  000f8	50		 push	 eax
  000f9	8b 4d 08	 mov	 ecx, DWORD PTR _pAct$[ebp]
  000fc	51		 push	 ecx
  000fd	e8 00 00 00 00	 call	 ?radar2@@YAHPAUaction@@HHH@Z ; radar2
  00102	83 c4 10	 add	 esp, 16			; 00000010H

; 765  : 	// アニメ`ション
; 766  : 	pattern( pAct, ANM_NOMAL_SPD, ANM_LOOP );

  00105	6a 00		 push	 0
  00107	6a 00		 push	 0
  00109	8b 45 08	 mov	 eax, DWORD PTR _pAct$[ebp]
  0010c	50		 push	 eax
  0010d	e8 00 00 00 00	 call	 ?pattern@@YAHPAUaction@@HH@Z ; pattern
  00112	83 c4 0c	 add	 esp, 12			; 0000000cH

; 767  : }

  00115	5f		 pop	 edi
  00116	5e		 pop	 esi
  00117	5b		 pop	 ebx
  00118	81 c4 c4 00 00
	00		 add	 esp, 196		; 000000c4H
  0011e	3b ec		 cmp	 ebp, esp
  00120	e8 00 00 00 00	 call	 __RTC_CheckEsp
  00125	8b e5		 mov	 esp, ebp
  00127	5d		 pop	 ebp
  00128	c3		 ret	 0
?EnemyTama@@YAXPAUaction@@@Z ENDP			; EnemyTama
_TEXT	ENDS
; Function compile flags: /Odtp /RTCsu /ZI
; File c:\users\administrator\desktop\????? ??\????? ??\client source code\ohta\ohta.cpp
;	COMDAT ?MakeEnemyTama@@YAPAUaction@@PAU1@@Z
_TEXT	SEGMENT
_pAct$ = -8						; size = 4
_pOya$ = 8						; size = 4
?MakeEnemyTama@@YAPAUaction@@PAU1@@Z PROC		; MakeEnemyTama, COMDAT

; 664  : {

  00000	55		 push	 ebp
  00001	8b ec		 mov	 ebp, esp
  00003	81 ec cc 00 00
	00		 sub	 esp, 204		; 000000ccH
  00009	53		 push	 ebx
  0000a	56		 push	 esi
  0000b	57		 push	 edi
  0000c	8d bd 34 ff ff
	ff		 lea	 edi, DWORD PTR [ebp-204]
  00012	b9 33 00 00 00	 mov	 ecx, 51			; 00000033H
  00017	b8 cc cc cc cc	 mov	 eax, -858993460		; ccccccccH
  0001c	f3 ab		 rep stosd

; 665  : 	ACTION *pAct;
; 666  : 	//float dir;
; 667  : 	
; 668  : 	/* アクションリストに登h */
; 669  : 	pAct = GetAction( PRIO_ENEMY_TAMA, 0 );

  0001e	6a 00		 push	 0
  00020	6a 05		 push	 5
  00022	e8 00 00 00 00	 call	 ?GetAction@@YAPAUaction@@EI@Z ; GetAction
  00027	83 c4 08	 add	 esp, 8
  0002a	89 45 f8	 mov	 DWORD PTR _pAct$[ebp], eax

; 670  : 	if( pAct == NULL ) return NULL;

  0002d	83 7d f8 00	 cmp	 DWORD PTR _pAct$[ebp], 0
  00031	75 07		 jne	 SHORT $LN2@MakeEnemyT
  00033	33 c0		 xor	 eax, eax
  00035	e9 c3 00 00 00	 jmp	 $LN1@MakeEnemyT
$LN2@MakeEnemyT:

; 671  : 	
; 672  : 	/* g行v数 */
; 673  : 	pAct->func = EnemyTama;

  0003a	8b 45 f8	 mov	 eax, DWORD PTR _pAct$[ebp]
  0003d	c7 40 08 00 00
	00 00		 mov	 DWORD PTR [eax+8], OFFSET ?EnemyTama@@YAXPAUaction@@@Z ; EnemyTama

; 674  : 	/* スプライト番号 */
; 675  : 	pAct->anim_chr_no = Rnd( 31554, 31556 );		//スライム

  00044	68 44 7b 00 00	 push	 31556			; 00007b44H
  00049	68 42 7b 00 00	 push	 31554			; 00007b42H
  0004e	e8 00 00 00 00	 call	 ?Rnd@@YAHHH@Z		; Rnd
  00053	83 c4 08	 add	 esp, 8
  00056	8b 4d f8	 mov	 ecx, DWORD PTR _pAct$[ebp]
  00059	89 81 44 01 00
	00		 mov	 DWORD PTR [ecx+324], eax

; 676  : 	// 当たり判定 + ボックス表示
; 677  : 	pAct->atr |= ACT_ATR_HIT_BOX;

  0005f	8b 45 f8	 mov	 eax, DWORD PTR _pAct$[ebp]
  00062	8b 88 a4 00 00
	00		 mov	 ecx, DWORD PTR [eax+164]
  00068	83 c9 08	 or	 ecx, 8
  0006b	8b 55 f8	 mov	 edx, DWORD PTR _pAct$[ebp]
  0006e	89 8a a4 00 00
	00		 mov	 DWORD PTR [edx+164], ecx

; 678  : 	//pAct->anim_no = Rnd( ANIM_ATTACK, ANIM_SATTACK );
; 679  : 	//pAct->anim_no = ANIM_ATTACK;
; 680  : 	pAct->anim_no = ANIM_WALK;

  00074	8b 45 f8	 mov	 eax, DWORD PTR _pAct$[ebp]
  00077	c7 80 4c 01 00
	00 04 00 00 00	 mov	 DWORD PTR [eax+332], 4

; 681  : 	/* 表示先度 */
; 682  : 	pAct->dispPrio = DISP_PRIO_JIKI;

  00081	8b 45 f8	 mov	 eax, DWORD PTR _pAct$[ebp]
  00084	c6 40 15 1e	 mov	 BYTE PTR [eax+21], 30	; 0000001eH

; 683  : 	/* ＨＰ */
; 684  : 	pAct->hp = 0;

  00088	8b 45 f8	 mov	 eax, DWORD PTR _pAct$[ebp]
  0008b	c7 40 78 00 00
	00 00		 mov	 DWORD PTR [eax+120], 0

; 685  : 	/* 初期位置 */
; 686  : 	//pAct->x = pOya->x + 16;
; 687  : 	//pAct->y = pOya->y + 32 ;
; 688  : 	pAct->x = Rnd( 100, 500 );

  00092	68 f4 01 00 00	 push	 500			; 000001f4H
  00097	6a 64		 push	 100			; 00000064H
  00099	e8 00 00 00 00	 call	 ?Rnd@@YAHHH@Z		; Rnd
  0009e	83 c4 08	 add	 esp, 8
  000a1	8b 4d f8	 mov	 ecx, DWORD PTR _pAct$[ebp]
  000a4	89 41 18	 mov	 DWORD PTR [ecx+24], eax

; 689  : 	pAct->y = Rnd( 100, 400 );

  000a7	68 90 01 00 00	 push	 400			; 00000190H
  000ac	6a 64		 push	 100			; 00000064H
  000ae	e8 00 00 00 00	 call	 ?Rnd@@YAHHH@Z		; Rnd
  000b3	83 c4 08	 add	 esp, 8
  000b6	8b 4d f8	 mov	 ecx, DWORD PTR _pAct$[ebp]
  000b9	89 41 1c	 mov	 DWORD PTR [ecx+28], eax

; 690  : 	
; 691  : 	// 移臃较	
; 692  : 	radar2( pAct, pJiki->x, pJiki->y, 1 );

  000bc	6a 01		 push	 1
  000be	a1 00 00 00 00	 mov	 eax, DWORD PTR ?pJiki@@3PAUaction@@A ; pJiki
  000c3	8b 48 1c	 mov	 ecx, DWORD PTR [eax+28]
  000c6	51		 push	 ecx
  000c7	8b 15 00 00 00
	00		 mov	 edx, DWORD PTR ?pJiki@@3PAUaction@@A ; pJiki
  000cd	8b 42 18	 mov	 eax, DWORD PTR [edx+24]
  000d0	50		 push	 eax
  000d1	8b 4d f8	 mov	 ecx, DWORD PTR _pAct$[ebp]
  000d4	51		 push	 ecx
  000d5	e8 00 00 00 00	 call	 ?radar2@@YAHPAUaction@@HHH@Z ; radar2
  000da	83 c4 10	 add	 esp, 16			; 00000010H

; 693  : 	//移铀俣
; 694  : 	pAct->spd = 16;			

  000dd	8b 45 f8	 mov	 eax, DWORD PTR _pAct$[ebp]
  000e0	c7 80 34 01 00
	00 10 00 00 00	 mov	 DWORD PTR [eax+308], 16	; 00000010H

; 695  : 	
; 696  : 	// アニメ`ション
; 697  : 	pattern( pAct, ANM_NOMAL_SPD, ANM_LOOP );

  000ea	6a 00		 push	 0
  000ec	6a 00		 push	 0
  000ee	8b 45 f8	 mov	 eax, DWORD PTR _pAct$[ebp]
  000f1	50		 push	 eax
  000f2	e8 00 00 00 00	 call	 ?pattern@@YAHPAUaction@@HH@Z ; pattern
  000f7	83 c4 0c	 add	 esp, 12			; 0000000cH

; 698  : 	return pAct;

  000fa	8b 45 f8	 mov	 eax, DWORD PTR _pAct$[ebp]
$LN1@MakeEnemyT:

; 699  : }

  000fd	5f		 pop	 edi
  000fe	5e		 pop	 esi
  000ff	5b		 pop	 ebx
  00100	81 c4 cc 00 00
	00		 add	 esp, 204		; 000000ccH
  00106	3b ec		 cmp	 ebp, esp
  00108	e8 00 00 00 00	 call	 __RTC_CheckEsp
  0010d	8b e5		 mov	 esp, ebp
  0010f	5d		 pop	 ebp
  00110	c3		 ret	 0
?MakeEnemyTama@@YAPAUaction@@PAU1@@Z ENDP		; MakeEnemyTama
_TEXT	ENDS
; Function compile flags: /Odtp /RTCsu /ZI
; File c:\users\administrator\desktop\????? ??\????? ??\client source code\ohta\ohta.cpp
;	COMDAT ?Enemy@@YAXPAUaction@@@Z
_TEXT	SEGMENT
tv79 = -244						; size = 4
_d2$1 = -44						; size = 4
_d1$2 = -32						; size = 4
_a1$3 = -20						; size = 4
_pYobi$ = -8						; size = 4
_pAct$ = 8						; size = 4
?Enemy@@YAXPAUaction@@@Z PROC				; Enemy, COMDAT

; 536  : {

  00000	55		 push	 ebp
  00001	8b ec		 mov	 ebp, esp
  00003	81 ec f4 00 00
	00		 sub	 esp, 244		; 000000f4H
  00009	53		 push	 ebx
  0000a	56		 push	 esi
  0000b	57		 push	 edi
  0000c	8d bd 0c ff ff
	ff		 lea	 edi, DWORD PTR [ebp-244]
  00012	b9 3d 00 00 00	 mov	 ecx, 61			; 0000003dH
  00017	b8 cc cc cc cc	 mov	 eax, -858993460		; ccccccccH
  0001c	f3 ab		 rep stosd

; 537  : 	ENEMY *pYobi = ( ENEMY *)pAct->pYobi;

  0001e	8b 45 08	 mov	 eax, DWORD PTR _pAct$[ebp]
  00021	8b 48 0c	 mov	 ecx, DWORD PTR [eax+12]
  00024	89 4d f8	 mov	 DWORD PTR _pYobi$[ebp], ecx

; 538  : 
; 539  : 	/* 攻氖埭堡r */
; 540  : 	if( pAct->damage > 0 ){

  00027	8b 45 08	 mov	 eax, DWORD PTR _pAct$[ebp]
  0002a	83 b8 b0 00 00
	00 00		 cmp	 DWORD PTR [eax+176], 0
  00031	7e 55		 jle	 SHORT $LN4@Enemy

; 541  : 		pAct->hp -= pAct->damage;

  00033	8b 45 08	 mov	 eax, DWORD PTR _pAct$[ebp]
  00036	8b 4d 08	 mov	 ecx, DWORD PTR _pAct$[ebp]
  00039	8b 50 78	 mov	 edx, DWORD PTR [eax+120]
  0003c	2b 91 b0 00 00
	00		 sub	 edx, DWORD PTR [ecx+176]
  00042	8b 45 08	 mov	 eax, DWORD PTR _pAct$[ebp]
  00045	89 50 78	 mov	 DWORD PTR [eax+120], edx

; 542  : 		if( pAct->hp <= 0 ){ 

  00048	8b 45 08	 mov	 eax, DWORD PTR _pAct$[ebp]
  0004b	83 78 78 00	 cmp	 DWORD PTR [eax+120], 0
  0004f	7f 2a		 jg	 SHORT $LN5@Enemy

; 543  : 			pAct->state = ACT_STATE_DEAD;

  00051	8b 45 08	 mov	 eax, DWORD PTR _pAct$[ebp]
  00054	c7 80 a8 00 00
	00 01 00 00 00	 mov	 DWORD PTR [eax+168], 1

; 544  : 			pYobi->cnt  = 0;

  0005e	8b 45 f8	 mov	 eax, DWORD PTR _pYobi$[ebp]
  00061	c7 00 00 00 00
	00		 mov	 DWORD PTR [eax], 0

; 545  : 			pYobi->cnt2 = 0;

  00067	8b 45 f8	 mov	 eax, DWORD PTR _pYobi$[ebp]
  0006a	c7 40 04 00 00
	00 00		 mov	 DWORD PTR [eax+4], 0

; 546  : 			pYobi->cnt3 = 0;

  00071	8b 45 f8	 mov	 eax, DWORD PTR _pYobi$[ebp]
  00074	c7 40 08 00 00
	00 00		 mov	 DWORD PTR [eax+8], 0
$LN5@Enemy:

; 547  : 		}
; 548  : 		pAct->damage = 0;

  0007b	8b 45 08	 mov	 eax, DWORD PTR _pAct$[ebp]
  0007e	c7 80 b0 00 00
	00 00 00 00 00	 mov	 DWORD PTR [eax+176], 0
$LN4@Enemy:

; 549  : 	}
; 550  : 
; 551  : 	/* 状Bで分岐 */
; 552  : 	switch( pAct->state ){

  00088	8b 45 08	 mov	 eax, DWORD PTR _pAct$[ebp]
  0008b	8b 88 a8 00 00
	00		 mov	 ecx, DWORD PTR [eax+168]
  00091	89 8d 0c ff ff
	ff		 mov	 DWORD PTR tv79[ebp], ecx
  00097	83 bd 0c ff ff
	ff 00		 cmp	 DWORD PTR tv79[ebp], 0
  0009e	74 12		 je	 SHORT $LN6@Enemy
  000a0	83 bd 0c ff ff
	ff 01		 cmp	 DWORD PTR tv79[ebp], 1
  000a7	0f 84 a6 01 00
	00		 je	 $LN15@Enemy
  000ad	e9 21 02 00 00	 jmp	 $LN1@Enemy
$LN6@Enemy:

; 553  : 		/* 通常r */
; 554  : 		case ACT_STATE_ACT:
; 555  : 		
; 556  : 			/* 移 */
; 557  : //			pAct->x += pAct->dx;
; 558  : //			pAct->y += pAct->dy;
; 559  : 
; 560  : 			/* リミットチェック */
; 561  : //			if( pAct->x < 0 ){ 
; 562  : //				pAct->x = 0;
; 563  : //				pAct->dx *= -1;
; 564  : //			}
; 565  : //			else
; 566  : //			if( pAct->x > 608 ){ 
; 567  : //				pAct->x = 608;
; 568  : //				pAct->dx *= -1;
; 569  : //			}
; 570  : //			if( pAct->y > 480 ){ 
; 571  : //				pAct->y = -32;
; 572  : //			}
; 573  : 
; 574  : 			pAct->dx++;		//２割りzみに１回スピ`ド涓する

  000b2	8b 45 08	 mov	 eax, DWORD PTR _pAct$[ebp]
  000b5	8b 48 28	 mov	 ecx, DWORD PTR [eax+40]
  000b8	83 c1 01	 add	 ecx, 1
  000bb	8b 55 08	 mov	 edx, DWORD PTR _pAct$[ebp]
  000be	89 4a 28	 mov	 DWORD PTR [edx+40], ecx

; 575  : 			pAct->dx&=1;	//

  000c1	8b 45 08	 mov	 eax, DWORD PTR _pAct$[ebp]
  000c4	8b 48 28	 mov	 ecx, DWORD PTR [eax+40]
  000c7	83 e1 01	 and	 ecx, 1
  000ca	8b 55 08	 mov	 edx, DWORD PTR _pAct$[ebp]
  000cd	89 4a 28	 mov	 DWORD PTR [edx+40], ecx

; 576  : 			gemini(pAct);		//移

  000d0	8b 45 08	 mov	 eax, DWORD PTR _pAct$[ebp]
  000d3	50		 push	 eax
  000d4	e8 00 00 00 00	 call	 ?gemini@@YAXPAUaction@@@Z ; gemini
  000d9	83 c4 04	 add	 esp, 4

; 577  : 			if(ATR_CRS(pAct)==0){		//上移又肖胜

  000dc	8b 45 08	 mov	 eax, DWORD PTR _pAct$[ebp]
  000df	83 b8 38 01 00
	00 00		 cmp	 DWORD PTR [eax+312], 0
  000e6	75 65		 jne	 SHORT $LN7@Enemy

; 578  : 				if( pAct->y < -32 ){			//上端なら

  000e8	8b 45 08	 mov	 eax, DWORD PTR _pAct$[ebp]
  000eb	83 78 1c e0	 cmp	 DWORD PTR [eax+28], -32	; ffffffe0H
  000ef	7d 39		 jge	 SHORT $LN9@Enemy

; 579  : 					ATR_CRS(pAct)=16;			//下移娱_始

  000f1	8b 45 08	 mov	 eax, DWORD PTR _pAct$[ebp]
  000f4	c7 80 38 01 00
	00 10 00 00 00	 mov	 DWORD PTR [eax+312], 16	; 00000010H

; 580  : 					ATR_SPD(pAct) = Rnd( 28, 36 );

  000fe	6a 24		 push	 36			; 00000024H
  00100	6a 1c		 push	 28			; 0000001cH
  00102	e8 00 00 00 00	 call	 ?Rnd@@YAHHH@Z		; Rnd
  00107	83 c4 08	 add	 esp, 8
  0010a	8b 4d 08	 mov	 ecx, DWORD PTR _pAct$[ebp]
  0010d	89 81 34 01 00
	00		 mov	 DWORD PTR [ecx+308], eax

; 581  : 					pAct->x = Rnd( 0, 640 );	//

  00113	68 80 02 00 00	 push	 640			; 00000280H
  00118	6a 00		 push	 0
  0011a	e8 00 00 00 00	 call	 ?Rnd@@YAHHH@Z		; Rnd
  0011f	83 c4 08	 add	 esp, 8
  00122	8b 4d 08	 mov	 ecx, DWORD PTR _pAct$[ebp]
  00125	89 41 18	 mov	 DWORD PTR [ecx+24], eax

; 582  : 				} else {

  00128	eb 1e		 jmp	 SHORT $LN10@Enemy
$LN9@Enemy:

; 583  : 					if(pAct->dx)

  0012a	8b 45 08	 mov	 eax, DWORD PTR _pAct$[ebp]
  0012d	83 78 28 00	 cmp	 DWORD PTR [eax+40], 0
  00131	74 15		 je	 SHORT $LN10@Enemy

; 584  : 						ATR_SPD(pAct)++;		//スピ`ドアップ

  00133	8b 45 08	 mov	 eax, DWORD PTR _pAct$[ebp]
  00136	8b 88 34 01 00
	00		 mov	 ecx, DWORD PTR [eax+308]
  0013c	83 c1 01	 add	 ecx, 1
  0013f	8b 55 08	 mov	 edx, DWORD PTR _pAct$[ebp]
  00142	89 8a 34 01 00
	00		 mov	 DWORD PTR [edx+308], ecx
$LN10@Enemy:

; 585  : 				}
; 586  : 			} else {

  00148	e9 01 01 00 00	 jmp	 $LN8@Enemy
$LN7@Enemy:

; 587  : 				if(pAct->dx){

  0014d	8b 45 08	 mov	 eax, DWORD PTR _pAct$[ebp]
  00150	83 78 28 00	 cmp	 DWORD PTR [eax+40], 0
  00154	0f 84 f4 00 00
	00		 je	 $LN8@Enemy

; 588  : 					ATR_SPD(pAct)--;		//スピ`ドダウン

  0015a	8b 45 08	 mov	 eax, DWORD PTR _pAct$[ebp]
  0015d	8b 88 34 01 00
	00		 mov	 ecx, DWORD PTR [eax+308]
  00163	83 e9 01	 sub	 ecx, 1
  00166	8b 55 08	 mov	 edx, DWORD PTR _pAct$[ebp]
  00169	89 8a 34 01 00
	00		 mov	 DWORD PTR [edx+308], ecx

; 589  : 					if(!ATR_SPD(pAct)){		//停止したなら

  0016f	8b 45 08	 mov	 eax, DWORD PTR _pAct$[ebp]
  00172	83 b8 34 01 00
	00 00		 cmp	 DWORD PTR [eax+308], 0
  00179	0f 85 cf 00 00
	00		 jne	 $LN8@Enemy

; 590  : 						ATR_CRS(pAct)=0;		//上移娱_始

  0017f	8b 45 08	 mov	 eax, DWORD PTR _pAct$[ebp]
  00182	c7 80 38 01 00
	00 00 00 00 00	 mov	 DWORD PTR [eax+312], 0

; 591  : 						ACTION *a1;		//ミサイルk射
; 592  : 						int d1,d2;
; 593  : 						/* アクションリストに登h */
; 594  : 						a1 = GetAction( PRIO_ENEMY_TAMA, 0 );

  0018c	6a 00		 push	 0
  0018e	6a 05		 push	 5
  00190	e8 00 00 00 00	 call	 ?GetAction@@YAPAUaction@@EI@Z ; GetAction
  00195	83 c4 08	 add	 esp, 8
  00198	89 45 ec	 mov	 DWORD PTR _a1$3[ebp], eax

; 595  : 						if( a1 == NULL ) break;

  0019b	83 7d ec 00	 cmp	 DWORD PTR _a1$3[ebp], 0
  0019f	75 05		 jne	 SHORT $LN14@Enemy
  001a1	e9 2d 01 00 00	 jmp	 $LN1@Enemy
$LN14@Enemy:

; 596  : 						/* g行v数 */
; 597  : 						a1->func = enemy_missile;

  001a6	8b 45 ec	 mov	 eax, DWORD PTR _a1$3[ebp]
  001a9	c7 40 08 00 00
	00 00		 mov	 DWORD PTR [eax+8], OFFSET ?enemy_missile@@YAXPAUaction@@@Z ; enemy_missile

; 598  : 						/* スプライト番号 */
; 599  : 						a1->bmpNo = No++;

  001b0	8b 45 ec	 mov	 eax, DWORD PTR _a1$3[ebp]
  001b3	8b 0d 00 00 00
	00		 mov	 ecx, DWORD PTR ?No@@3HA
  001b9	89 88 9c 00 00
	00		 mov	 DWORD PTR [eax+156], ecx
  001bf	8b 15 00 00 00
	00		 mov	 edx, DWORD PTR ?No@@3HA
  001c5	83 c2 01	 add	 edx, 1
  001c8	89 15 00 00 00
	00		 mov	 DWORD PTR ?No@@3HA, edx

; 600  : 						/* 表示先度 */
; 601  : 						a1->dispPrio = 3;

  001ce	8b 45 ec	 mov	 eax, DWORD PTR _a1$3[ebp]
  001d1	c6 40 15 03	 mov	 BYTE PTR [eax+21], 3

; 602  : 						/* 初期位置 */
; 603  : 						ATR_H_POS(a1) = ATR_H_POS(pAct)+16;

  001d5	8b 45 08	 mov	 eax, DWORD PTR _pAct$[ebp]
  001d8	8b 48 18	 mov	 ecx, DWORD PTR [eax+24]
  001db	83 c1 10	 add	 ecx, 16			; 00000010H
  001de	8b 55 ec	 mov	 edx, DWORD PTR _a1$3[ebp]
  001e1	89 4a 18	 mov	 DWORD PTR [edx+24], ecx

; 604  : 						ATR_V_POS(a1) = ATR_V_POS(pAct)+16;

  001e4	8b 45 08	 mov	 eax, DWORD PTR _pAct$[ebp]
  001e7	8b 48 1c	 mov	 ecx, DWORD PTR [eax+28]
  001ea	83 c1 10	 add	 ecx, 16			; 00000010H
  001ed	8b 55 ec	 mov	 edx, DWORD PTR _a1$3[ebp]
  001f0	89 4a 1c	 mov	 DWORD PTR [edx+28], ecx

; 605  : 						d1 = pJiki->x;			//自Cの方向セット

  001f3	a1 00 00 00 00	 mov	 eax, DWORD PTR ?pJiki@@3PAUaction@@A ; pJiki
  001f8	8b 48 18	 mov	 ecx, DWORD PTR [eax+24]
  001fb	89 4d e0	 mov	 DWORD PTR _d1$2[ebp], ecx

; 606  : 						d2 = pJiki->y;			//

  001fe	a1 00 00 00 00	 mov	 eax, DWORD PTR ?pJiki@@3PAUaction@@A ; pJiki
  00203	8b 48 1c	 mov	 ecx, DWORD PTR [eax+28]
  00206	89 4d d4	 mov	 DWORD PTR _d2$1[ebp], ecx

; 607  : 						radar(a1, &d1, &d2);	//

  00209	8d 45 d4	 lea	 eax, DWORD PTR _d2$1[ebp]
  0020c	50		 push	 eax
  0020d	8d 4d e0	 lea	 ecx, DWORD PTR _d1$2[ebp]
  00210	51		 push	 ecx
  00211	8b 55 ec	 mov	 edx, DWORD PTR _a1$3[ebp]
  00214	52		 push	 edx
  00215	e8 00 00 00 00	 call	 ?radar@@YAXPAUaction@@PAH1@Z ; radar
  0021a	83 c4 0c	 add	 esp, 12			; 0000000cH

; 608  : 						ATR_CRS(a1)=d1;			//

  0021d	8b 45 ec	 mov	 eax, DWORD PTR _a1$3[ebp]
  00220	8b 4d e0	 mov	 ecx, DWORD PTR _d1$2[ebp]
  00223	89 88 38 01 00
	00		 mov	 DWORD PTR [eax+312], ecx

; 609  : 						ATR_SPD(a1)=16;			//移铀俣

  00229	8b 45 ec	 mov	 eax, DWORD PTR _a1$3[ebp]
  0022c	c7 80 34 01 00
	00 10 00 00 00	 mov	 DWORD PTR [eax+308], 16	; 00000010H

; 610  : 						play_se( 2, ATR_H_POS(a1), ATR_V_POS(a1) );		//ミサイルk射音

  00236	8b 45 ec	 mov	 eax, DWORD PTR _a1$3[ebp]
  00239	8b 48 1c	 mov	 ecx, DWORD PTR [eax+28]
  0023c	51		 push	 ecx
  0023d	8b 55 ec	 mov	 edx, DWORD PTR _a1$3[ebp]
  00240	8b 42 18	 mov	 eax, DWORD PTR [edx+24]
  00243	50		 push	 eax
  00244	6a 02		 push	 2
  00246	e8 00 00 00 00	 call	 ?play_se@@YAHHHH@Z	; play_se
  0024b	83 c4 0c	 add	 esp, 12			; 0000000cH
$LN8@Enemy:

; 611  : 					}
; 612  : 				}
; 613  : 			}
; 614  : 			// アニメ`ション
; 615  : /*			pYobi->cnt3 += pAct->dy;
; 616  : 			if( pYobi->cnt3 >= 20 ){ 
; 617  : 				pYobi->cnt3 = 0;
; 618  : 				pYobi->animCnt = pYobi->animCnt * ( -2 ) + 1;
; 619  : 				pAct->bmpNo += pYobi->animCnt;
; 620  : 			}
; 621  : */
; 622  : /*			
; 623  : 			pAct->cnt++;
; 624  : 			if( pAct->cnt >= 300 ){
; 625  : 				pAct->state = ACT_STATE_DEAD;
; 626  : 				pAct->cnt = 0;
; 627  : 			}
; 628  : */			
; 629  : 			//if( Rnd( 0, 300 ) == 0 ) MakeEnemyTama( pAct );
; 630  : 			//MakeEnemyTama( pAct );
; 631  : 			
; 632  : 			break;

  0024e	e9 80 00 00 00	 jmp	 $LN1@Enemy
$LN15@Enemy:

; 633  : 		
; 634  : 		/* 死亡r */	
; 635  : 		case ACT_STATE_DEAD:
; 636  : 		
; 637  : 			if( pYobi->cnt == 0 ){ 

  00253	8b 45 f8	 mov	 eax, DWORD PTR _pYobi$[ebp]
  00256	83 38 00	 cmp	 DWORD PTR [eax], 0
  00259	75 20		 jne	 SHORT $LN16@Enemy

; 638  : 				pAct->bmpNo = bomData[ 0 ];

  0025b	b8 04 00 00 00	 mov	 eax, 4
  00260	6b c8 00	 imul	 ecx, eax, 0
  00263	8b 55 08	 mov	 edx, DWORD PTR _pAct$[ebp]
  00266	8b 81 00 00 00
	00		 mov	 eax, DWORD PTR ?bomData@@3PAHA[ecx]
  0026c	89 82 9c 00 00
	00		 mov	 DWORD PTR [edx+156], eax

; 639  : 				pYobi->cnt = 1;

  00272	8b 45 f8	 mov	 eax, DWORD PTR _pYobi$[ebp]
  00275	c7 00 01 00 00
	00		 mov	 DWORD PTR [eax], 1
$LN16@Enemy:

; 640  : 			}
; 641  : 			/* 爆kアニメ`ション */
; 642  : 			pYobi->cnt2++;

  0027b	8b 45 f8	 mov	 eax, DWORD PTR _pYobi$[ebp]
  0027e	8b 48 04	 mov	 ecx, DWORD PTR [eax+4]
  00281	83 c1 01	 add	 ecx, 1
  00284	8b 55 f8	 mov	 edx, DWORD PTR _pYobi$[ebp]
  00287	89 4a 04	 mov	 DWORD PTR [edx+4], ecx

; 643  : 			if( pYobi->cnt2 >= 5 ){

  0028a	8b 45 f8	 mov	 eax, DWORD PTR _pYobi$[ebp]
  0028d	83 78 04 05	 cmp	 DWORD PTR [eax+4], 5
  00291	7c 40		 jl	 SHORT $LN1@Enemy

; 644  : 				pAct->bmpNo = bomData[ pYobi->cnt ];

  00293	8b 45 f8	 mov	 eax, DWORD PTR _pYobi$[ebp]
  00296	8b 08		 mov	 ecx, DWORD PTR [eax]
  00298	8b 55 08	 mov	 edx, DWORD PTR _pAct$[ebp]
  0029b	8b 04 8d 00 00
	00 00		 mov	 eax, DWORD PTR ?bomData@@3PAHA[ecx*4]
  002a2	89 82 9c 00 00
	00		 mov	 DWORD PTR [edx+156], eax

; 645  : 				pYobi->cnt++;

  002a8	8b 45 f8	 mov	 eax, DWORD PTR _pYobi$[ebp]
  002ab	8b 08		 mov	 ecx, DWORD PTR [eax]
  002ad	83 c1 01	 add	 ecx, 1
  002b0	8b 55 f8	 mov	 edx, DWORD PTR _pYobi$[ebp]
  002b3	89 0a		 mov	 DWORD PTR [edx], ecx

; 646  : 				pYobi->cnt2 = 0;

  002b5	8b 45 f8	 mov	 eax, DWORD PTR _pYobi$[ebp]
  002b8	c7 40 04 00 00
	00 00		 mov	 DWORD PTR [eax+4], 0

; 647  : 				/* Kわったら死ぬ */
; 648  : 				if( pYobi->cnt == 6 ){

  002bf	8b 45 f8	 mov	 eax, DWORD PTR _pYobi$[ebp]
  002c2	83 38 06	 cmp	 DWORD PTR [eax], 6
  002c5	75 0c		 jne	 SHORT $LN1@Enemy

; 649  : 					DeathAction( pAct );

  002c7	8b 45 08	 mov	 eax, DWORD PTR _pAct$[ebp]
  002ca	50		 push	 eax
  002cb	e8 00 00 00 00	 call	 ?DeathAction@@YAXPAUaction@@@Z ; DeathAction
  002d0	83 c4 04	 add	 esp, 4
$LN1@Enemy:

; 650  : 				}
; 651  : 			}
; 652  : 			
; 653  : 			break;
; 654  : 	}
; 655  : 
; 656  : }

  002d3	52		 push	 edx
  002d4	8b cd		 mov	 ecx, ebp
  002d6	50		 push	 eax
  002d7	8d 15 00 00 00
	00		 lea	 edx, DWORD PTR $LN23@Enemy
  002dd	e8 00 00 00 00	 call	 @_RTC_CheckStackVars@8
  002e2	58		 pop	 eax
  002e3	5a		 pop	 edx
  002e4	5f		 pop	 edi
  002e5	5e		 pop	 esi
  002e6	5b		 pop	 ebx
  002e7	81 c4 f4 00 00
	00		 add	 esp, 244		; 000000f4H
  002ed	3b ec		 cmp	 ebp, esp
  002ef	e8 00 00 00 00	 call	 __RTC_CheckEsp
  002f4	8b e5		 mov	 esp, ebp
  002f6	5d		 pop	 ebp
  002f7	c3		 ret	 0
$LN23@Enemy:
  002f8	02 00 00 00	 DD	 2
  002fc	00 00 00 00	 DD	 $LN22@Enemy
$LN22@Enemy:
  00300	e0 ff ff ff	 DD	 -32			; ffffffe0H
  00304	04 00 00 00	 DD	 4
  00308	00 00 00 00	 DD	 $LN20@Enemy
  0030c	d4 ff ff ff	 DD	 -44			; ffffffd4H
  00310	04 00 00 00	 DD	 4
  00314	00 00 00 00	 DD	 $LN21@Enemy
$LN21@Enemy:
  00318	64		 DB	 100			; 00000064H
  00319	32		 DB	 50			; 00000032H
  0031a	00		 DB	 0
$LN20@Enemy:
  0031b	64		 DB	 100			; 00000064H
  0031c	31		 DB	 49			; 00000031H
  0031d	00		 DB	 0
?Enemy@@YAXPAUaction@@@Z ENDP				; Enemy
_TEXT	ENDS
; Function compile flags: /Odtp /RTCsu /ZI
; File c:\users\administrator\desktop\????? ??\????? ??\client source code\ohta\ohta.cpp
;	COMDAT ?MakeEnemy@@YAPAUaction@@XZ
_TEXT	SEGMENT
_bmpTbl$ = -44						; size = 12
_pYobi$ = -24						; size = 4
_pAct$ = -12						; size = 4
__$ArrayPad$ = -4					; size = 4
?MakeEnemy@@YAPAUaction@@XZ PROC			; MakeEnemy, COMDAT

; 489  : {

  00000	55		 push	 ebp
  00001	8b ec		 mov	 ebp, esp
  00003	81 ec f0 00 00
	00		 sub	 esp, 240		; 000000f0H
  00009	53		 push	 ebx
  0000a	56		 push	 esi
  0000b	57		 push	 edi
  0000c	8d bd 10 ff ff
	ff		 lea	 edi, DWORD PTR [ebp-240]
  00012	b9 3c 00 00 00	 mov	 ecx, 60			; 0000003cH
  00017	b8 cc cc cc cc	 mov	 eax, -858993460		; ccccccccH
  0001c	f3 ab		 rep stosd
  0001e	a1 00 00 00 00	 mov	 eax, DWORD PTR ___security_cookie
  00023	33 c5		 xor	 eax, ebp
  00025	89 45 fc	 mov	 DWORD PTR __$ArrayPad$[ebp], eax

; 490  : 	ACTION *pAct;
; 491  : 	ENEMY *pYobi;
; 492  : 	short bmpTbl[] = { 1, 3, 5, 7, 9, 29 };

  00028	b8 01 00 00 00	 mov	 eax, 1
  0002d	66 89 45 d4	 mov	 WORD PTR _bmpTbl$[ebp], ax
  00031	b8 03 00 00 00	 mov	 eax, 3
  00036	66 89 45 d6	 mov	 WORD PTR _bmpTbl$[ebp+2], ax
  0003a	b8 05 00 00 00	 mov	 eax, 5
  0003f	66 89 45 d8	 mov	 WORD PTR _bmpTbl$[ebp+4], ax
  00043	b8 07 00 00 00	 mov	 eax, 7
  00048	66 89 45 da	 mov	 WORD PTR _bmpTbl$[ebp+6], ax
  0004c	b8 09 00 00 00	 mov	 eax, 9
  00051	66 89 45 dc	 mov	 WORD PTR _bmpTbl$[ebp+8], ax
  00055	b8 1d 00 00 00	 mov	 eax, 29			; 0000001dH
  0005a	66 89 45 de	 mov	 WORD PTR _bmpTbl$[ebp+10], ax

; 493  : 	
; 494  : 	/* アクションリストに登h */
; 495  : 	pAct = GetAction( PRIO_ENEMY, sizeof( ENEMY ) );

  0005e	6a 10		 push	 16			; 00000010H
  00060	6a 04		 push	 4
  00062	e8 00 00 00 00	 call	 ?GetAction@@YAPAUaction@@EI@Z ; GetAction
  00067	83 c4 08	 add	 esp, 8
  0006a	89 45 f4	 mov	 DWORD PTR _pAct$[ebp], eax

; 496  : 	if( pAct == NULL ) return NULL;

  0006d	83 7d f4 00	 cmp	 DWORD PTR _pAct$[ebp], 0
  00071	75 07		 jne	 SHORT $LN2@MakeEnemy
  00073	33 c0		 xor	 eax, eax
  00075	e9 b0 00 00 00	 jmp	 $LN1@MakeEnemy
$LN2@MakeEnemy:

; 497  : 	
; 498  : 	/* 予造体のアドレス */
; 499  : 	pYobi = ( ENEMY *)pAct->pYobi;

  0007a	8b 45 f4	 mov	 eax, DWORD PTR _pAct$[ebp]
  0007d	8b 48 0c	 mov	 ecx, DWORD PTR [eax+12]
  00080	89 4d e8	 mov	 DWORD PTR _pYobi$[ebp], ecx

; 500  : 	
; 501  : 	/* g行v数 */
; 502  : 	pAct->func = Enemy;

  00083	8b 45 f4	 mov	 eax, DWORD PTR _pAct$[ebp]
  00086	c7 40 08 00 00
	00 00		 mov	 DWORD PTR [eax+8], OFFSET ?Enemy@@YAXPAUaction@@@Z ; Enemy

; 503  : 	/* スプライト番号 */
; 504  : 	pAct->bmpNo = bmpTbl[ ( int )Rnd( 0, 4 ) ];

  0008d	6a 04		 push	 4
  0008f	6a 00		 push	 0
  00091	e8 00 00 00 00	 call	 ?Rnd@@YAHHH@Z		; Rnd
  00096	83 c4 08	 add	 esp, 8
  00099	0f bf 44 45 d4	 movsx	 eax, WORD PTR _bmpTbl$[ebp+eax*2]
  0009e	8b 4d f4	 mov	 ecx, DWORD PTR _pAct$[ebp]
  000a1	89 81 9c 00 00
	00		 mov	 DWORD PTR [ecx+156], eax

; 505  : 	//pAct->bmpNo = Rnd( 1, 10 );
; 506  : 	/* 表示先度 */
; 507  : 	pAct->dispPrio = 1;

  000a7	8b 45 f4	 mov	 eax, DWORD PTR _pAct$[ebp]
  000aa	c6 40 15 01	 mov	 BYTE PTR [eax+21], 1

; 508  : 	/* ＨＰ */
; 509  :     pAct->hp = 10;//Rnd( 10, 50 );

  000ae	8b 45 f4	 mov	 eax, DWORD PTR _pAct$[ebp]
  000b1	c7 40 78 0a 00
	00 00		 mov	 DWORD PTR [eax+120], 10	; 0000000aH

; 510  : 	/* 初期位置ランダム */
; 511  : //	pAct->x = Rnd( 0, 608 );
; 512  : 	pAct->x = Rnd( 0, 640 );

  000b8	68 80 02 00 00	 push	 640			; 00000280H
  000bd	6a 00		 push	 0
  000bf	e8 00 00 00 00	 call	 ?Rnd@@YAHHH@Z		; Rnd
  000c4	83 c4 08	 add	 esp, 8
  000c7	8b 4d f4	 mov	 ecx, DWORD PTR _pAct$[ebp]
  000ca	89 41 18	 mov	 DWORD PTR [ecx+24], eax

; 513  : 	ATR_CRS(pAct) = 16;

  000cd	8b 45 f4	 mov	 eax, DWORD PTR _pAct$[ebp]
  000d0	c7 80 38 01 00
	00 10 00 00 00	 mov	 DWORD PTR [eax+312], 16	; 00000010H

; 514  : 	ATR_SPD(pAct) = Rnd( 28, 36 );

  000da	6a 24		 push	 36			; 00000024H
  000dc	6a 1c		 push	 28			; 0000001cH
  000de	e8 00 00 00 00	 call	 ?Rnd@@YAHHH@Z		; Rnd
  000e3	83 c4 08	 add	 esp, 8
  000e6	8b 4d f4	 mov	 ecx, DWORD PTR _pAct$[ebp]
  000e9	89 81 34 01 00
	00		 mov	 DWORD PTR [ecx+308], eax

; 515  : 	pAct->dx = 0;

  000ef	8b 45 f4	 mov	 eax, DWORD PTR _pAct$[ebp]
  000f2	c7 40 28 00 00
	00 00		 mov	 DWORD PTR [eax+40], 0

; 516  : 
; 517  : 	pAct->y = 0;

  000f9	8b 45 f4	 mov	 eax, DWORD PTR _pAct$[ebp]
  000fc	c7 40 1c 00 00
	00 00		 mov	 DWORD PTR [eax+28], 0

; 518  : 	/* 分ランダム */
; 519  : 	pAct->dx = Rnd( -3, 3 );

  00103	6a 03		 push	 3
  00105	6a fd		 push	 -3			; fffffffdH
  00107	e8 00 00 00 00	 call	 ?Rnd@@YAHHH@Z		; Rnd
  0010c	83 c4 08	 add	 esp, 8
  0010f	8b 4d f4	 mov	 ecx, DWORD PTR _pAct$[ebp]
  00112	89 41 28	 mov	 DWORD PTR [ecx+40], eax

; 520  : 	pAct->dy = Rnd( 1, 3 );

  00115	6a 03		 push	 3
  00117	6a 01		 push	 1
  00119	e8 00 00 00 00	 call	 ?Rnd@@YAHHH@Z		; Rnd
  0011e	83 c4 08	 add	 esp, 8
  00121	8b 4d f4	 mov	 ecx, DWORD PTR _pAct$[ebp]
  00124	89 41 2c	 mov	 DWORD PTR [ecx+44], eax

; 521  : 	
; 522  : 	return pAct;

  00127	8b 45 f4	 mov	 eax, DWORD PTR _pAct$[ebp]
$LN1@MakeEnemy:

; 523  : }

  0012a	52		 push	 edx
  0012b	8b cd		 mov	 ecx, ebp
  0012d	50		 push	 eax
  0012e	8d 15 00 00 00
	00		 lea	 edx, DWORD PTR $LN6@MakeEnemy
  00134	e8 00 00 00 00	 call	 @_RTC_CheckStackVars@8
  00139	58		 pop	 eax
  0013a	5a		 pop	 edx
  0013b	5f		 pop	 edi
  0013c	5e		 pop	 esi
  0013d	5b		 pop	 ebx
  0013e	8b 4d fc	 mov	 ecx, DWORD PTR __$ArrayPad$[ebp]
  00141	33 cd		 xor	 ecx, ebp
  00143	e8 00 00 00 00	 call	 @__security_check_cookie@4
  00148	81 c4 f0 00 00
	00		 add	 esp, 240		; 000000f0H
  0014e	3b ec		 cmp	 ebp, esp
  00150	e8 00 00 00 00	 call	 __RTC_CheckEsp
  00155	8b e5		 mov	 esp, ebp
  00157	5d		 pop	 ebp
  00158	c3		 ret	 0
  00159	0f 1f 00	 npad	 3
$LN6@MakeEnemy:
  0015c	01 00 00 00	 DD	 1
  00160	00 00 00 00	 DD	 $LN5@MakeEnemy
$LN5@MakeEnemy:
  00164	d4 ff ff ff	 DD	 -44			; ffffffd4H
  00168	0c 00 00 00	 DD	 12			; 0000000cH
  0016c	00 00 00 00	 DD	 $LN4@MakeEnemy
$LN4@MakeEnemy:
  00170	62		 DB	 98			; 00000062H
  00171	6d		 DB	 109			; 0000006dH
  00172	70		 DB	 112			; 00000070H
  00173	54		 DB	 84			; 00000054H
  00174	62		 DB	 98			; 00000062H
  00175	6c		 DB	 108			; 0000006cH
  00176	00		 DB	 0
?MakeEnemy@@YAPAUaction@@XZ ENDP			; MakeEnemy
_TEXT	ENDS
; Function compile flags: /Odtp /RTCsu /ZI
; File c:\users\administrator\desktop\????? ??\????? ??\client source code\ohta\ohta.cpp
;	COMDAT ?JikiTama@@YAXPAUaction@@@Z
_TEXT	SEGMENT
tv75 = -196						; size = 4
_pAct$ = 8						; size = 4
?JikiTama@@YAXPAUaction@@@Z PROC			; JikiTama, COMDAT

; 419  : {

  00000	55		 push	 ebp
  00001	8b ec		 mov	 ebp, esp
  00003	81 ec c4 00 00
	00		 sub	 esp, 196		; 000000c4H
  00009	53		 push	 ebx
  0000a	56		 push	 esi
  0000b	57		 push	 edi
  0000c	8d bd 3c ff ff
	ff		 lea	 edi, DWORD PTR [ebp-196]
  00012	b9 31 00 00 00	 mov	 ecx, 49			; 00000031H
  00017	b8 cc cc cc cc	 mov	 eax, -858993460		; ccccccccH
  0001c	f3 ab		 rep stosd

; 420  : 
; 421  : 	/* 攻氖埭堡r */
; 422  : 	if( pAct->damage > 0 ){

  0001e	8b 45 08	 mov	 eax, DWORD PTR _pAct$[ebp]
  00021	83 b8 b0 00 00
	00 00		 cmp	 DWORD PTR [eax+176], 0
  00028	7e 38		 jle	 SHORT $LN4@JikiTama

; 423  : 		pAct->hp -= pAct->damage;

  0002a	8b 45 08	 mov	 eax, DWORD PTR _pAct$[ebp]
  0002d	8b 4d 08	 mov	 ecx, DWORD PTR _pAct$[ebp]
  00030	8b 50 78	 mov	 edx, DWORD PTR [eax+120]
  00033	2b 91 b0 00 00
	00		 sub	 edx, DWORD PTR [ecx+176]
  00039	8b 45 08	 mov	 eax, DWORD PTR _pAct$[ebp]
  0003c	89 50 78	 mov	 DWORD PTR [eax+120], edx

; 424  : 		if( pAct->hp <= 0 ){ 

  0003f	8b 45 08	 mov	 eax, DWORD PTR _pAct$[ebp]
  00042	83 78 78 00	 cmp	 DWORD PTR [eax+120], 0
  00046	7f 0d		 jg	 SHORT $LN5@JikiTama

; 425  : 			pAct->state = ACT_STATE_DEAD;

  00048	8b 45 08	 mov	 eax, DWORD PTR _pAct$[ebp]
  0004b	c7 80 a8 00 00
	00 01 00 00 00	 mov	 DWORD PTR [eax+168], 1
$LN5@JikiTama:

; 426  : 		}
; 427  : 		pAct->damage = 0;

  00055	8b 45 08	 mov	 eax, DWORD PTR _pAct$[ebp]
  00058	c7 80 b0 00 00
	00 00 00 00 00	 mov	 DWORD PTR [eax+176], 0
$LN4@JikiTama:

; 428  : 	}
; 429  : 
; 430  : 	/* 状Bで分岐 */
; 431  : 	switch( pAct->state ){

  00062	8b 45 08	 mov	 eax, DWORD PTR _pAct$[ebp]
  00065	8b 88 a8 00 00
	00		 mov	 ecx, DWORD PTR [eax+168]
  0006b	89 8d 3c ff ff
	ff		 mov	 DWORD PTR tv75[ebp], ecx
  00071	83 bd 3c ff ff
	ff 00		 cmp	 DWORD PTR tv75[ebp], 0
  00078	74 12		 je	 SHORT $LN6@JikiTama
  0007a	83 bd 3c ff ff
	ff 01		 cmp	 DWORD PTR tv75[ebp], 1
  00081	0f 84 bd 00 00
	00		 je	 $LN13@JikiTama
  00087	e9 c4 00 00 00	 jmp	 $LN2@JikiTama
$LN6@JikiTama:

; 432  : 		/* 通常r */
; 433  : 		case ACT_STATE_ACT:
; 434  : 
; 435  : 			/* 长趣蔚堡郡昱卸 */
; 436  : 			//Hit( pAct, PRIO_ENEMY );
; 437  : 
; 438  : 			/* 移 */
; 439  : 			pAct->x += pAct->dx;

  0008c	8b 45 08	 mov	 eax, DWORD PTR _pAct$[ebp]
  0008f	8b 48 18	 mov	 ecx, DWORD PTR [eax+24]
  00092	8b 55 08	 mov	 edx, DWORD PTR _pAct$[ebp]
  00095	03 4a 28	 add	 ecx, DWORD PTR [edx+40]
  00098	8b 45 08	 mov	 eax, DWORD PTR _pAct$[ebp]
  0009b	89 48 18	 mov	 DWORD PTR [eax+24], ecx

; 440  : 			pAct->y += pAct->dy;

  0009e	8b 45 08	 mov	 eax, DWORD PTR _pAct$[ebp]
  000a1	8b 48 1c	 mov	 ecx, DWORD PTR [eax+28]
  000a4	8b 55 08	 mov	 edx, DWORD PTR _pAct$[ebp]
  000a7	03 4a 2c	 add	 ecx, DWORD PTR [edx+44]
  000aa	8b 45 08	 mov	 eax, DWORD PTR _pAct$[ebp]
  000ad	89 48 1c	 mov	 DWORD PTR [eax+28], ecx

; 441  : 	
; 442  : 			/* リミット */
; 443  : 			if(	pAct->y <= -32 ){ 

  000b0	8b 45 08	 mov	 eax, DWORD PTR _pAct$[ebp]
  000b3	83 78 1c e0	 cmp	 DWORD PTR [eax+28], -32	; ffffffe0H
  000b7	7f 24		 jg	 SHORT $LN7@JikiTama

; 444  : 				pAct->y = -32;

  000b9	8b 45 08	 mov	 eax, DWORD PTR _pAct$[ebp]
  000bc	c7 40 1c e0 ff
	ff ff		 mov	 DWORD PTR [eax+28], -32	; ffffffe0H

; 445  : 				MakeEnemyTama( pAct );

  000c3	8b 45 08	 mov	 eax, DWORD PTR _pAct$[ebp]
  000c6	50		 push	 eax
  000c7	e8 00 00 00 00	 call	 ?MakeEnemyTama@@YAPAUaction@@PAU1@@Z ; MakeEnemyTama
  000cc	83 c4 04	 add	 esp, 4

; 446  : 				DeathAction( pAct );

  000cf	8b 45 08	 mov	 eax, DWORD PTR _pAct$[ebp]
  000d2	50		 push	 eax
  000d3	e8 00 00 00 00	 call	 ?DeathAction@@YAXPAUaction@@@Z ; DeathAction
  000d8	83 c4 04	 add	 esp, 4

; 447  : 			}else

  000db	eb 22		 jmp	 SHORT $LN8@JikiTama
$LN7@JikiTama:

; 448  : 			if( 480 <= pAct->y ){ 

  000dd	8b 45 08	 mov	 eax, DWORD PTR _pAct$[ebp]
  000e0	81 78 1c e0 01
	00 00		 cmp	 DWORD PTR [eax+28], 480	; 000001e0H
  000e7	7c 16		 jl	 SHORT $LN8@JikiTama

; 449  : 				pAct->y = 480;

  000e9	8b 45 08	 mov	 eax, DWORD PTR _pAct$[ebp]
  000ec	c7 40 1c e0 01
	00 00		 mov	 DWORD PTR [eax+28], 480	; 000001e0H

; 450  : 				DeathAction( pAct );

  000f3	8b 45 08	 mov	 eax, DWORD PTR _pAct$[ebp]
  000f6	50		 push	 eax
  000f7	e8 00 00 00 00	 call	 ?DeathAction@@YAXPAUaction@@@Z ; DeathAction
  000fc	83 c4 04	 add	 esp, 4
$LN8@JikiTama:

; 451  : 			}
; 452  : 			
; 453  : 			if(	pAct->x <= -32 ){

  000ff	8b 45 08	 mov	 eax, DWORD PTR _pAct$[ebp]
  00102	83 78 18 e0	 cmp	 DWORD PTR [eax+24], -32	; ffffffe0H
  00106	7f 18		 jg	 SHORT $LN10@JikiTama

; 454  : 				pAct->x = -32;

  00108	8b 45 08	 mov	 eax, DWORD PTR _pAct$[ebp]
  0010b	c7 40 18 e0 ff
	ff ff		 mov	 DWORD PTR [eax+24], -32	; ffffffe0H

; 455  : 				DeathAction( pAct );

  00112	8b 45 08	 mov	 eax, DWORD PTR _pAct$[ebp]
  00115	50		 push	 eax
  00116	e8 00 00 00 00	 call	 ?DeathAction@@YAXPAUaction@@@Z ; DeathAction
  0011b	83 c4 04	 add	 esp, 4

; 456  : 			}else

  0011e	eb 22		 jmp	 SHORT $LN11@JikiTama
$LN10@JikiTama:

; 457  : 			if( 640 <= pAct->x ){ 

  00120	8b 45 08	 mov	 eax, DWORD PTR _pAct$[ebp]
  00123	81 78 18 80 02
	00 00		 cmp	 DWORD PTR [eax+24], 640	; 00000280H
  0012a	7c 16		 jl	 SHORT $LN11@JikiTama

; 458  : 				pAct->x = 640;

  0012c	8b 45 08	 mov	 eax, DWORD PTR _pAct$[ebp]
  0012f	c7 40 18 80 02
	00 00		 mov	 DWORD PTR [eax+24], 640	; 00000280H

; 459  : 				DeathAction( pAct );

  00136	8b 45 08	 mov	 eax, DWORD PTR _pAct$[ebp]
  00139	50		 push	 eax
  0013a	e8 00 00 00 00	 call	 ?DeathAction@@YAXPAUaction@@@Z ; DeathAction
  0013f	83 c4 04	 add	 esp, 4
$LN11@JikiTama:

; 460  : 			}
; 461  : 
; 462  : 			break;

  00142	eb 0c		 jmp	 SHORT $LN2@JikiTama
$LN13@JikiTama:

; 463  : 		
; 464  : 		/* 死亡r */	
; 465  : 		case ACT_STATE_DEAD:
; 466  : 		
; 467  : 			DeathAction( pAct );

  00144	8b 45 08	 mov	 eax, DWORD PTR _pAct$[ebp]
  00147	50		 push	 eax
  00148	e8 00 00 00 00	 call	 ?DeathAction@@YAXPAUaction@@@Z ; DeathAction
  0014d	83 c4 04	 add	 esp, 4
$LN2@JikiTama:

; 468  : 			
; 469  : 			break;
; 470  : 	}
; 471  : 	
; 472  : 	
; 473  : 	// アニメ`ション
; 474  : 	pattern( pAct, ANM_NOMAL_SPD, ANM_LOOP );

  00150	6a 00		 push	 0
  00152	6a 00		 push	 0
  00154	8b 45 08	 mov	 eax, DWORD PTR _pAct$[ebp]
  00157	50		 push	 eax
  00158	e8 00 00 00 00	 call	 ?pattern@@YAHPAUaction@@HH@Z ; pattern
  0015d	83 c4 0c	 add	 esp, 12			; 0000000cH

; 475  : }

  00160	5f		 pop	 edi
  00161	5e		 pop	 esi
  00162	5b		 pop	 ebx
  00163	81 c4 c4 00 00
	00		 add	 esp, 196		; 000000c4H
  00169	3b ec		 cmp	 ebp, esp
  0016b	e8 00 00 00 00	 call	 __RTC_CheckEsp
  00170	8b e5		 mov	 esp, ebp
  00172	5d		 pop	 ebp
  00173	c3		 ret	 0
?JikiTama@@YAXPAUaction@@@Z ENDP			; JikiTama
_TEXT	ENDS
; Function compile flags: /Odtp /RTCsu /ZI
; File c:\users\administrator\desktop\????? ??\????? ??\client source code\ohta\ohta.cpp
;	COMDAT ?MakeJikiTama@@YAPAUaction@@HHHHH@Z
_TEXT	SEGMENT
_pAct$ = -8						; size = 4
_x$ = 8							; size = 4
_y$ = 12						; size = 4
_dx$ = 16						; size = 4
_dy$ = 20						; size = 4
_bmpNo$ = 24						; size = 4
?MakeJikiTama@@YAPAUaction@@HHHHH@Z PROC		; MakeJikiTama, COMDAT

; 384  : {

  00000	55		 push	 ebp
  00001	8b ec		 mov	 ebp, esp
  00003	81 ec cc 00 00
	00		 sub	 esp, 204		; 000000ccH
  00009	53		 push	 ebx
  0000a	56		 push	 esi
  0000b	57		 push	 edi
  0000c	8d bd 34 ff ff
	ff		 lea	 edi, DWORD PTR [ebp-204]
  00012	b9 33 00 00 00	 mov	 ecx, 51			; 00000033H
  00017	b8 cc cc cc cc	 mov	 eax, -858993460		; ccccccccH
  0001c	f3 ab		 rep stosd

; 385  : 	ACTION *pAct;
; 386  : 	
; 387  : 	/* アクションリストに登h */
; 388  : 	pAct = GetAction( PRIO_JIKI_TAMA, 0 );

  0001e	6a 00		 push	 0
  00020	6a 06		 push	 6
  00022	e8 00 00 00 00	 call	 ?GetAction@@YAPAUaction@@EI@Z ; GetAction
  00027	83 c4 08	 add	 esp, 8
  0002a	89 45 f8	 mov	 DWORD PTR _pAct$[ebp], eax

; 389  : 	if( pAct == NULL ) return NULL;

  0002d	83 7d f8 00	 cmp	 DWORD PTR _pAct$[ebp], 0
  00031	75 07		 jne	 SHORT $LN2@MakeJikiTa
  00033	33 c0		 xor	 eax, eax
  00035	e9 88 00 00 00	 jmp	 $LN1@MakeJikiTa
$LN2@MakeJikiTa:

; 390  : 	
; 391  : 	/* g行v数 */
; 392  : 	pAct->func = JikiTama;

  0003a	8b 45 f8	 mov	 eax, DWORD PTR _pAct$[ebp]
  0003d	c7 40 08 00 00
	00 00		 mov	 DWORD PTR [eax+8], OFFSET ?JikiTama@@YAXPAUaction@@@Z ; JikiTama

; 393  : 	// anim_tbl.h の番号
; 394  : 	pAct->anim_chr_no = bmpNo; // イノシシ

  00044	8b 45 f8	 mov	 eax, DWORD PTR _pAct$[ebp]
  00047	8b 4d 18	 mov	 ecx, DWORD PTR _bmpNo$[ebp]
  0004a	89 88 44 01 00
	00		 mov	 DWORD PTR [eax+324], ecx

; 395  : 	// 幼鞣号
; 396  : 	//pAct->anim_no = ANIM_ATTACK;
; 397  : 	pAct->anim_no = Rnd( ANIM_ATTACK, ANIM_LIST_);

  00050	6a 0d		 push	 13			; 0000000dH
  00052	6a 00		 push	 0
  00054	e8 00 00 00 00	 call	 ?Rnd@@YAHHH@Z		; Rnd
  00059	83 c4 08	 add	 esp, 8
  0005c	8b 4d f8	 mov	 ecx, DWORD PTR _pAct$[ebp]
  0005f	89 81 4c 01 00
	00		 mov	 DWORD PTR [ecx+332], eax

; 398  : 	//pAct->anim_no = ANIM_WALK;
; 399  : 	// アニメ`ション向き( ０～７ )( 下が０で右回り )
; 400  : 	pAct->anim_ang = Rnd( 0, 7 );

  00065	6a 07		 push	 7
  00067	6a 00		 push	 0
  00069	e8 00 00 00 00	 call	 ?Rnd@@YAHHH@Z		; Rnd
  0006e	83 c4 08	 add	 esp, 8
  00071	8b 4d f8	 mov	 ecx, DWORD PTR _pAct$[ebp]
  00074	89 81 54 01 00
	00		 mov	 DWORD PTR [ecx+340], eax

; 401  : 	///* スプライト番号 */
; 402  : 	//pAct->bmpNo = bmpNo;
; 403  : 	/* 表示先度 */
; 404  : 	pAct->dispPrio = 2;

  0007a	8b 45 f8	 mov	 eax, DWORD PTR _pAct$[ebp]
  0007d	c6 40 15 02	 mov	 BYTE PTR [eax+21], 2

; 405  : 	/* ＨＰ */
; 406  : 	pAct->hp = 10000;

  00081	8b 45 f8	 mov	 eax, DWORD PTR _pAct$[ebp]
  00084	c7 40 78 10 27
	00 00		 mov	 DWORD PTR [eax+120], 10000 ; 00002710H

; 407  : 	/* 初期位置 */
; 408  : 	pAct->x = x - dx;

  0008b	8b 45 08	 mov	 eax, DWORD PTR _x$[ebp]
  0008e	2b 45 10	 sub	 eax, DWORD PTR _dx$[ebp]
  00091	8b 4d f8	 mov	 ecx, DWORD PTR _pAct$[ebp]
  00094	89 41 18	 mov	 DWORD PTR [ecx+24], eax

; 409  : 	pAct->y = y - dy;

  00097	8b 45 0c	 mov	 eax, DWORD PTR _y$[ebp]
  0009a	2b 45 14	 sub	 eax, DWORD PTR _dy$[ebp]
  0009d	8b 4d f8	 mov	 ecx, DWORD PTR _pAct$[ebp]
  000a0	89 41 1c	 mov	 DWORD PTR [ecx+28], eax

; 410  : 	/* 分 */
; 411  : 	pAct->dx = dx / 2;

  000a3	8b 45 10	 mov	 eax, DWORD PTR _dx$[ebp]
  000a6	99		 cdq
  000a7	2b c2		 sub	 eax, edx
  000a9	d1 f8		 sar	 eax, 1
  000ab	8b 4d f8	 mov	 ecx, DWORD PTR _pAct$[ebp]
  000ae	89 41 28	 mov	 DWORD PTR [ecx+40], eax

; 412  : 	pAct->dy = dy / 2;

  000b1	8b 45 14	 mov	 eax, DWORD PTR _dy$[ebp]
  000b4	99		 cdq
  000b5	2b c2		 sub	 eax, edx
  000b7	d1 f8		 sar	 eax, 1
  000b9	8b 4d f8	 mov	 ecx, DWORD PTR _pAct$[ebp]
  000bc	89 41 2c	 mov	 DWORD PTR [ecx+44], eax

; 413  : 	
; 414  : 	return pAct;

  000bf	8b 45 f8	 mov	 eax, DWORD PTR _pAct$[ebp]
$LN1@MakeJikiTa:

; 415  : }

  000c2	5f		 pop	 edi
  000c3	5e		 pop	 esi
  000c4	5b		 pop	 ebx
  000c5	81 c4 cc 00 00
	00		 add	 esp, 204		; 000000ccH
  000cb	3b ec		 cmp	 ebp, esp
  000cd	e8 00 00 00 00	 call	 __RTC_CheckEsp
  000d2	8b e5		 mov	 esp, ebp
  000d4	5d		 pop	 ebp
  000d5	c3		 ret	 0
?MakeJikiTama@@YAPAUaction@@HHHHH@Z ENDP		; MakeJikiTama
_TEXT	ENDS
; Function compile flags: /Odtp /RTCsu /ZI
; File c:\users\administrator\desktop\????? ??\????? ??\client source code\ohta\ohta.cpp
;	COMDAT ?Jiki@@YAXPAUaction@@@Z
_TEXT	SEGMENT
tv176 = -476						; size = 4
tv128 = -476						; size = 4
_szMoji$1 = -276					; size = 256
_pYobi$ = -12						; size = 4
__$ArrayPad$ = -4					; size = 4
_pAct$ = 8						; size = 4
?Jiki@@YAXPAUaction@@@Z PROC				; Jiki, COMDAT

; 130  : {

  00000	55		 push	 ebp
  00001	8b ec		 mov	 ebp, esp
  00003	81 ec dc 01 00
	00		 sub	 esp, 476		; 000001dcH
  00009	53		 push	 ebx
  0000a	56		 push	 esi
  0000b	57		 push	 edi
  0000c	8d bd 24 fe ff
	ff		 lea	 edi, DWORD PTR [ebp-476]
  00012	b9 77 00 00 00	 mov	 ecx, 119		; 00000077H
  00017	b8 cc cc cc cc	 mov	 eax, -858993460		; ccccccccH
  0001c	f3 ab		 rep stosd
  0001e	a1 00 00 00 00	 mov	 eax, DWORD PTR ___security_cookie
  00023	33 c5		 xor	 eax, ebp
  00025	89 45 fc	 mov	 DWORD PTR __$ArrayPad$[ebp], eax

; 131  : 	JIKI *pYobi = ( JIKI *)pAct->pYobi;

  00028	8b 45 08	 mov	 eax, DWORD PTR _pAct$[ebp]
  0002b	8b 48 0c	 mov	 ecx, DWORD PTR [eax+12]
  0002e	89 4d f4	 mov	 DWORD PTR _pYobi$[ebp], ecx

; 132  : 	//int i;
; 133  : 	
; 134  : 	/* 攻氖埭堡r */
; 135  : 	if( pAct->damage > 0 ){

  00031	8b 45 08	 mov	 eax, DWORD PTR _pAct$[ebp]
  00034	83 b8 b0 00 00
	00 00		 cmp	 DWORD PTR [eax+176], 0
  0003b	7e 55		 jle	 SHORT $LN6@Jiki

; 136  : 		pAct->hp -= pAct->damage;

  0003d	8b 45 08	 mov	 eax, DWORD PTR _pAct$[ebp]
  00040	8b 4d 08	 mov	 ecx, DWORD PTR _pAct$[ebp]
  00043	8b 50 78	 mov	 edx, DWORD PTR [eax+120]
  00046	2b 91 b0 00 00
	00		 sub	 edx, DWORD PTR [ecx+176]
  0004c	8b 45 08	 mov	 eax, DWORD PTR _pAct$[ebp]
  0004f	89 50 78	 mov	 DWORD PTR [eax+120], edx

; 137  : 		if( pAct->hp <= 0 ){ 

  00052	8b 45 08	 mov	 eax, DWORD PTR _pAct$[ebp]
  00055	83 78 78 00	 cmp	 DWORD PTR [eax+120], 0
  00059	7f 2a		 jg	 SHORT $LN7@Jiki

; 138  : 			pAct->state = ACT_STATE_DEAD;

  0005b	8b 45 08	 mov	 eax, DWORD PTR _pAct$[ebp]
  0005e	c7 80 a8 00 00
	00 01 00 00 00	 mov	 DWORD PTR [eax+168], 1

; 139  : 			pYobi->cnt  = 0;

  00068	8b 45 f4	 mov	 eax, DWORD PTR _pYobi$[ebp]
  0006b	c7 00 00 00 00
	00		 mov	 DWORD PTR [eax], 0

; 140  : 			pYobi->cnt2 = 0;

  00071	8b 45 f4	 mov	 eax, DWORD PTR _pYobi$[ebp]
  00074	c7 40 04 00 00
	00 00		 mov	 DWORD PTR [eax+4], 0

; 141  : 			pYobi->cnt3 = 0;

  0007b	8b 45 f4	 mov	 eax, DWORD PTR _pYobi$[ebp]
  0007e	c7 40 08 00 00
	00 00		 mov	 DWORD PTR [eax+8], 0
$LN7@Jiki:

; 142  : 		}
; 143  : 		pAct->damage = 0;

  00085	8b 45 08	 mov	 eax, DWORD PTR _pAct$[ebp]
  00088	c7 80 b0 00 00
	00 00 00 00 00	 mov	 DWORD PTR [eax+176], 0
$LN6@Jiki:

; 144  : 	}
; 145  : 	// 取出す座
; 146  : //	rcX = Rnd( 0,608 );
; 147  : //	rcY = Rnd( 0,400 );
; 148  : //	SetRect( &Rc[ pAct->bmpNo ], rcX, rcY, rcX + 32, rcY + 32 ); 
; 149  : 	
; 150  : 	// マウス移
; 151  : 	//pAct->x = mouse.nowPoint.x;
; 152  : 	//pAct->y = mouse.nowPoint.y;
; 153  : 
; 154  : 	// マウスでk射
; 155  : 	if( pYobi->cnt3 <= 0 ){

  00092	8b 45 f4	 mov	 eax, DWORD PTR _pYobi$[ebp]
  00095	83 78 08 00	 cmp	 DWORD PTR [eax+8], 0
  00099	7f 4a		 jg	 SHORT $LN8@Jiki

; 156  : 		// k射
; 157  : 		//if( mouse.state == MOUSE_LEFT_CRICK ){
; 158  : 		if( mouse.onceState & MOUSE_LEFT_CRICK ){

  0009b	a1 2c 00 00 00	 mov	 eax, DWORD PTR ?mouse@@3UMOUSE@@A+44
  000a0	83 e0 01	 and	 eax, 1
  000a3	74 0a		 je	 SHORT $LN10@Jiki

; 159  : 			// 入力フォ`カス取得
; 160  : 			//GetKeyInputFocus( &pYobi->strTestBuffer );
; 161  : 			/* 作成 */
; 162  : 			//MakeJikiTama( pAct->x , pAct->y -16, 0, -8, Rnd( 0, BMP_FILE - 1 ) );
; 163  : 			//MakeJikiTama( pAct->x , pAct->y -16, 0, -8, 1034 );
; 164  : 			//MakeJikiTama( pAct->x, 	   	pAct->y -16,  0, -8, 25 );
; 165  : 			
; 166  : 			//MakeJikiTama( pAct->x, 	   	pAct->y -16,  0, -8, Rnd( 0, BMP_FILE - 2 ) );
; 167  : 			
; 168  : 			//MakeJikiTama( pAct->x, 	   	pAct->y -16,  0, -8, Rnd( 31554, 31557 ) ); // ＴＧＳ
; 169  : 			//MakeJikiTama( pAct->x, 	   	pAct->y -16,  0, -8, Rnd( 31000, 31069 ) ); // モンスタ`
; 170  : //			MakeJikiTama( pAct->x, 	   	pAct->y -16,  0, -8, Rnd( 30100, 30135 ) ); // ＰＣ
; 171  : 			//MakeJikiTama( pAct->x + 10, pAct->y -16, 0, -8, Rnd( 0, BMP_FILE - 1 ) );
; 172  : 			//MakeJikiTama( pAct->x, pAct->y -16, 0, -8, 29 );
; 173  : 			//MakeJikiTama( pAct->x - 10, pAct->y -16, 0, -8, 29 );
; 174  : 			//MakeJikiTama( pAct->x + 10, pAct->y -16, 0, -8, 29 );
; 175  : 			pYobi->cnt3 = 5;

  000a5	8b 45 f4	 mov	 eax, DWORD PTR _pYobi$[ebp]
  000a8	c7 40 08 05 00
	00 00		 mov	 DWORD PTR [eax+8], 5
$LN10@Jiki:

; 176  : #if 0
; 177  : 			for( i = 0; i < (int)256; i++ ){
; 178  : 				// 明るくする
; 179  : 				Palette[i].peRed 	 *= 0.95;
; 180  : 				Palette[i].peGreen *= 0.95;
; 181  : 				Palette[i].peBlue  *= 0.95;
; 182  : 			}
; 183  : 			// パレットの中身をO定
; 184  : 			lpDraw->lpPALETTE->SetEntries( 0, 0, 256, Palette );
; 185  : #endif
; 186  : 		}
; 187  : 		// 真中ボタン
; 188  : 		if( GetAsyncKeyState( VK_MBUTTON ) ){

  000af	8b f4		 mov	 esi, esp
  000b1	6a 04		 push	 4
  000b3	ff 15 00 00 00
	00		 call	 DWORD PTR __imp__GetAsyncKeyState@4
  000b9	3b f4		 cmp	 esi, esp
  000bb	e8 00 00 00 00	 call	 __RTC_CheckEsp
  000c0	98		 cwde
  000c1	85 c0		 test	 eax, eax
  000c3	74 0a		 je	 SHORT $LN11@Jiki

; 189  : 			//MakeJikiTama( pAct->x, pAct->y -16, 0, -8, 29 );
; 190  : 			//MakeJikiTama( pAct->x, 	   	pAct->y -16,  0, -8, Rnd( 0, BMP_FILE - 1 ) );
; 191  : 	//		MakeJikiTama( pAct->x, 	   	pAct->y -16,  0, -8, 32 );
; 192  : 			pYobi->cnt3 = 5;

  000c5	8b 45 f4	 mov	 eax, DWORD PTR _pYobi$[ebp]
  000c8	c7 40 08 05 00
	00 00		 mov	 DWORD PTR [eax+8], 5
$LN11@Jiki:

; 193  : 			
; 194  : 		}
; 195  : 		// k射
; 196  : 		//if( mouse.onceState & MOUSE_RIGHT_CRICK ){
; 197  : 		if( mouse.state & MOUSE_RIGHT_CRICK ){

  000cf	a1 28 00 00 00	 mov	 eax, DWORD PTR ?mouse@@3UMOUSE@@A+40
  000d4	83 e0 02	 and	 eax, 2
  000d7	74 0a		 je	 SHORT $LN12@Jiki

; 198  : 			// 入力フォ`カス取得
; 199  : 			//GetKeyInputFocus( &MyChatBuffer );
; 200  : 		//if( GetAsyncKeyState( VK_RBUTTON ) 	& 0x8000 ){
; 201  : 		//	MakeJikiTama( pAct->x, pAct->y -16, 0, -8, 29 );
; 202  : 		// サ`フェスがあったら
; 203  : 		//if( lpSurface[ 0 ] != NULL ){
; 204  : 		//	// リリ`ス
; 205  : 		//	lpSurface[ 0 ]->Release( );
; 206  : 		//	lpSurface[ 0 ] = NULL;
; 207  : 		//}
; 208  : 		//	MakeBg();
; 209  : #if 0		
; 210  : 			MakeJikiTama( pAct->x - 10, pAct->y -16, -6, -8, Rnd( 0, BMP_FILE - 2 ) );
; 211  : 			MakeJikiTama( pAct->x -  5, pAct->y -16, -3, -8, Rnd( 0, BMP_FILE - 2 ) );
; 212  : 			MakeJikiTama( pAct->x, 	   	pAct->y -16,  0, -8, Rnd( 0, BMP_FILE - 2 ) );
; 213  : 			MakeJikiTama( pAct->x +  5, pAct->y -16,  3, -8, Rnd( 0, BMP_FILE - 2 ) );
; 214  : 			MakeJikiTama( pAct->x + 10, pAct->y -16,  6, -8, Rnd( 0, BMP_FILE - 2 ) );
; 215  : #else
; 216  : 	//		MakeJikiTama( pAct->x - 10, pAct->y -16, -6, -8, No );
; 217  : 	//		MakeJikiTama( pAct->x -  5, pAct->y -16, -3, -8, No );
; 218  : 	//		MakeJikiTama( pAct->x, 	   	pAct->y -16,  0, -8, No );
; 219  : 	//		MakeJikiTama( pAct->x +  5, pAct->y -16,  3, -8, No );
; 220  : 	//		MakeJikiTama( pAct->x + 10, pAct->y -16,  6, -8, No );
; 221  : #endif		
; 222  : 			pYobi->cnt3 = 5;

  000d9	8b 45 f4	 mov	 eax, DWORD PTR _pYobi$[ebp]
  000dc	c7 40 08 05 00
	00 00		 mov	 DWORD PTR [eax+8], 5
$LN12@Jiki:

; 223  : #if 0
; 224  : 			for( i = 0; i < (int)256; i++ ){
; 225  : 				// 暗くする
; 226  : 				Palette[i].peRed  *= 1.05;
; 227  : 				Palette[i].peGreen*= 1.05;
; 228  : 				Palette[i].peBlue *= 1.05;
; 229  : 			}
; 230  : 			//パレットの中身をO定
; 231  : 			lpDraw->lpPALETTE->SetEntries( 0, 0, 256, Palette );
; 232  : #endif
; 233  : 		}

  000e3	eb 0f		 jmp	 SHORT $LN9@Jiki
$LN8@Jiki:

; 234  : 		
; 235  : 	}else pYobi->cnt3--;

  000e5	8b 45 f4	 mov	 eax, DWORD PTR _pYobi$[ebp]
  000e8	8b 48 08	 mov	 ecx, DWORD PTR [eax+8]
  000eb	83 e9 01	 sub	 ecx, 1
  000ee	8b 55 f4	 mov	 edx, DWORD PTR _pYobi$[ebp]
  000f1	89 4a 08	 mov	 DWORD PTR [edx+8], ecx
$LN9@Jiki:

; 236  : 
; 237  : 	/* 状Bで分岐 */
; 238  : 	switch( pAct->state ){

  000f4	8b 45 08	 mov	 eax, DWORD PTR _pAct$[ebp]
  000f7	8b 88 a8 00 00
	00		 mov	 ecx, DWORD PTR [eax+168]
  000fd	89 8d 24 fe ff
	ff		 mov	 DWORD PTR tv128[ebp], ecx
  00103	83 bd 24 fe ff
	ff 00		 cmp	 DWORD PTR tv128[ebp], 0
  0010a	74 12		 je	 SHORT $LN13@Jiki
  0010c	83 bd 24 fe ff
	ff 01		 cmp	 DWORD PTR tv128[ebp], 1
  00113	0f 84 01 03 00
	00		 je	 $LN35@Jiki
  00119	e9 81 03 00 00	 jmp	 $LN2@Jiki
$LN13@Jiki:

; 239  : 		/* 通常r */
; 240  : 		case ACT_STATE_ACT:
; 241  : 		
; 242  : 			/* との当たり判定 */
; 243  : 			//Hit( pAct, PRIO_ENEMY_TAMA );
; 244  : 			/* 长趣蔚堡郡昱卸 */
; 245  : 			//Hit( pAct, PRIO_ENEMY );
; 246  : 
; 247  : 			/* 移 */
; 248  : 			if( joy_con[ 0 ] & JOY_UP ){	/* 上 */

  0011e	b8 04 00 00 00	 mov	 eax, 4
  00123	6b c8 00	 imul	 ecx, eax, 0
  00126	8b 91 00 00 00
	00		 mov	 edx, DWORD PTR ?joy_con@@3PAKA[ecx]
  0012c	81 e2 00 10 00
	00		 and	 edx, 4096		; 00001000H
  00132	74 22		 je	 SHORT $LN14@Jiki

; 249  : 				pAct->y -= 2;

  00134	8b 45 08	 mov	 eax, DWORD PTR _pAct$[ebp]
  00137	8b 48 1c	 mov	 ecx, DWORD PTR [eax+28]
  0013a	83 e9 02	 sub	 ecx, 2
  0013d	8b 55 08	 mov	 edx, DWORD PTR _pAct$[ebp]
  00140	89 4a 1c	 mov	 DWORD PTR [edx+28], ecx

; 250  : 				if( pAct->y < 0 ) pAct->y = 0;

  00143	8b 45 08	 mov	 eax, DWORD PTR _pAct$[ebp]
  00146	83 78 1c 00	 cmp	 DWORD PTR [eax+28], 0
  0014a	7d 0a		 jge	 SHORT $LN14@Jiki
  0014c	8b 45 08	 mov	 eax, DWORD PTR _pAct$[ebp]
  0014f	c7 40 1c 00 00
	00 00		 mov	 DWORD PTR [eax+28], 0
$LN14@Jiki:

; 251  : 			}
; 252  : 			if( joy_con[ 0 ] & JOY_DOWN ){	/* 下 */

  00156	b8 04 00 00 00	 mov	 eax, 4
  0015b	6b c8 00	 imul	 ecx, eax, 0
  0015e	8b 91 00 00 00
	00		 mov	 edx, DWORD PTR ?joy_con@@3PAKA[ecx]
  00164	81 e2 00 20 00
	00		 and	 edx, 8192		; 00002000H
  0016a	74 25		 je	 SHORT $LN16@Jiki

; 253  : 				pAct->y += 2;

  0016c	8b 45 08	 mov	 eax, DWORD PTR _pAct$[ebp]
  0016f	8b 48 1c	 mov	 ecx, DWORD PTR [eax+28]
  00172	83 c1 02	 add	 ecx, 2
  00175	8b 55 08	 mov	 edx, DWORD PTR _pAct$[ebp]
  00178	89 4a 1c	 mov	 DWORD PTR [edx+28], ecx

; 254  : 				if( pAct->y > 448 ) pAct->y = 448;

  0017b	8b 45 08	 mov	 eax, DWORD PTR _pAct$[ebp]
  0017e	81 78 1c c0 01
	00 00		 cmp	 DWORD PTR [eax+28], 448	; 000001c0H
  00185	7e 0a		 jle	 SHORT $LN16@Jiki
  00187	8b 45 08	 mov	 eax, DWORD PTR _pAct$[ebp]
  0018a	c7 40 1c c0 01
	00 00		 mov	 DWORD PTR [eax+28], 448	; 000001c0H
$LN16@Jiki:

; 255  : 			}
; 256  : 			if( joy_con[ 0 ] & JOY_LEFT ){	/* 左 */

  00191	b8 04 00 00 00	 mov	 eax, 4
  00196	6b c8 00	 imul	 ecx, eax, 0
  00199	8b 91 00 00 00
	00		 mov	 edx, DWORD PTR ?joy_con@@3PAKA[ecx]
  0019f	81 e2 00 40 00
	00		 and	 edx, 16384		; 00004000H
  001a5	74 22		 je	 SHORT $LN18@Jiki

; 257  : 				pAct->x -= 2;

  001a7	8b 45 08	 mov	 eax, DWORD PTR _pAct$[ebp]
  001aa	8b 48 18	 mov	 ecx, DWORD PTR [eax+24]
  001ad	83 e9 02	 sub	 ecx, 2
  001b0	8b 55 08	 mov	 edx, DWORD PTR _pAct$[ebp]
  001b3	89 4a 18	 mov	 DWORD PTR [edx+24], ecx

; 258  : 				if( pAct->x < 0 ) pAct->x = 0;

  001b6	8b 45 08	 mov	 eax, DWORD PTR _pAct$[ebp]
  001b9	83 78 18 00	 cmp	 DWORD PTR [eax+24], 0
  001bd	7d 0a		 jge	 SHORT $LN18@Jiki
  001bf	8b 45 08	 mov	 eax, DWORD PTR _pAct$[ebp]
  001c2	c7 40 18 00 00
	00 00		 mov	 DWORD PTR [eax+24], 0
$LN18@Jiki:

; 259  : 			}
; 260  : 			if( joy_con[ 0 ] & JOY_RIGHT ){	/* 右 */

  001c9	b8 04 00 00 00	 mov	 eax, 4
  001ce	6b c8 00	 imul	 ecx, eax, 0
  001d1	8b 91 00 00 00
	00		 mov	 edx, DWORD PTR ?joy_con@@3PAKA[ecx]
  001d7	81 e2 00 80 00
	00		 and	 edx, 32768		; 00008000H
  001dd	74 25		 je	 SHORT $LN20@Jiki

; 261  : 				pAct->x += 2;

  001df	8b 45 08	 mov	 eax, DWORD PTR _pAct$[ebp]
  001e2	8b 48 18	 mov	 ecx, DWORD PTR [eax+24]
  001e5	83 c1 02	 add	 ecx, 2
  001e8	8b 55 08	 mov	 edx, DWORD PTR _pAct$[ebp]
  001eb	89 4a 18	 mov	 DWORD PTR [edx+24], ecx

; 262  : 				if( pAct->x > 608 ) pAct->x = 608;

  001ee	8b 45 08	 mov	 eax, DWORD PTR _pAct$[ebp]
  001f1	81 78 18 60 02
	00 00		 cmp	 DWORD PTR [eax+24], 608	; 00000260H
  001f8	7e 0a		 jle	 SHORT $LN20@Jiki
  001fa	8b 45 08	 mov	 eax, DWORD PTR _pAct$[ebp]
  001fd	c7 40 18 60 02
	00 00		 mov	 DWORD PTR [eax+24], 608	; 00000260H
$LN20@Jiki:

; 263  : 			}
; 264  : 			
; 265  : 			// 匙鞒
; 266  : 			//if( joy_con[ 0 ] & JOY_B )	MakeEnemy();
; 267  : 			
; 268  : 			/* k射 */
; 269  : 			if( pYobi->cnt3 <= 0 ){ /* ウェイト */

  00204	8b 45 f4	 mov	 eax, DWORD PTR _pYobi$[ebp]
  00207	83 78 08 00	 cmp	 DWORD PTR [eax+8], 0
  0020b	0f 8f 99 01 00
	00		 jg	 $LN22@Jiki

; 270  : 				if( joy_con[ 0 ] & JOY_A ){

  00211	b8 04 00 00 00	 mov	 eax, 4
  00216	6b c8 00	 imul	 ecx, eax, 0
  00219	8b 91 00 00 00
	00		 mov	 edx, DWORD PTR ?joy_con@@3PAKA[ecx]
  0021f	81 e2 00 04 00
	00		 and	 edx, 1024		; 00000400H
  00225	0f 84 7d 01 00
	00		 je	 $LN24@Jiki

; 271  : 					
; 272  : 					/*DeathAllAction();*/
; 273  : 					/* のNで分岐 */
; 274  : 					switch( pYobi->attackKind ){

  0022b	8b 45 f4	 mov	 eax, DWORD PTR _pYobi$[ebp]
  0022e	8b 48 14	 mov	 ecx, DWORD PTR [eax+20]
  00231	89 8d 24 fe ff
	ff		 mov	 DWORD PTR tv176[ebp], ecx
  00237	83 bd 24 fe ff
	ff 03		 cmp	 DWORD PTR tv176[ebp], 3
  0023e	0f 87 5a 01 00
	00		 ja	 $LN4@Jiki
  00244	8b 95 24 fe ff
	ff		 mov	 edx, DWORD PTR tv176[ebp]
  0024a	ff 24 95 00 00
	00 00		 jmp	 DWORD PTR $LN43@Jiki[edx*4]
$LN25@Jiki:

; 275  : 						
; 276  : 						case TAMA_NORMAL:
; 277  : 						
; 278  : 							/* 作成 */
; 279  : 							MakeJikiTama( pAct->x, pAct->y -16, 0, -8, 28 );

  00251	6a 1c		 push	 28			; 0000001cH
  00253	6a f8		 push	 -8			; fffffff8H
  00255	6a 00		 push	 0
  00257	8b 45 08	 mov	 eax, DWORD PTR _pAct$[ebp]
  0025a	8b 48 1c	 mov	 ecx, DWORD PTR [eax+28]
  0025d	83 e9 10	 sub	 ecx, 16			; 00000010H
  00260	51		 push	 ecx
  00261	8b 55 08	 mov	 edx, DWORD PTR _pAct$[ebp]
  00264	8b 42 18	 mov	 eax, DWORD PTR [edx+24]
  00267	50		 push	 eax
  00268	e8 00 00 00 00	 call	 ?MakeJikiTama@@YAPAUaction@@HHHHH@Z ; MakeJikiTama
  0026d	83 c4 14	 add	 esp, 20			; 00000014H

; 280  : 							
; 281  : 							break;

  00270	e9 29 01 00 00	 jmp	 $LN4@Jiki
$LN26@Jiki:

; 282  : 							
; 283  : 						case TAMA_TWIN:
; 284  : 						
; 285  : 							/* 作成 */
; 286  : 							MakeJikiTama( pAct->x - 10, pAct->y -16, 0, -8, 29 );

  00275	6a 1d		 push	 29			; 0000001dH
  00277	6a f8		 push	 -8			; fffffff8H
  00279	6a 00		 push	 0
  0027b	8b 45 08	 mov	 eax, DWORD PTR _pAct$[ebp]
  0027e	8b 48 1c	 mov	 ecx, DWORD PTR [eax+28]
  00281	83 e9 10	 sub	 ecx, 16			; 00000010H
  00284	51		 push	 ecx
  00285	8b 55 08	 mov	 edx, DWORD PTR _pAct$[ebp]
  00288	8b 42 18	 mov	 eax, DWORD PTR [edx+24]
  0028b	83 e8 0a	 sub	 eax, 10			; 0000000aH
  0028e	50		 push	 eax
  0028f	e8 00 00 00 00	 call	 ?MakeJikiTama@@YAPAUaction@@HHHHH@Z ; MakeJikiTama
  00294	83 c4 14	 add	 esp, 20			; 00000014H

; 287  : 							MakeJikiTama( pAct->x + 10, pAct->y -16, 0, -8, 29 );

  00297	6a 1d		 push	 29			; 0000001dH
  00299	6a f8		 push	 -8			; fffffff8H
  0029b	6a 00		 push	 0
  0029d	8b 45 08	 mov	 eax, DWORD PTR _pAct$[ebp]
  002a0	8b 48 1c	 mov	 ecx, DWORD PTR [eax+28]
  002a3	83 e9 10	 sub	 ecx, 16			; 00000010H
  002a6	51		 push	 ecx
  002a7	8b 55 08	 mov	 edx, DWORD PTR _pAct$[ebp]
  002aa	8b 42 18	 mov	 eax, DWORD PTR [edx+24]
  002ad	83 c0 0a	 add	 eax, 10			; 0000000aH
  002b0	50		 push	 eax
  002b1	e8 00 00 00 00	 call	 ?MakeJikiTama@@YAPAUaction@@HHHHH@Z ; MakeJikiTama
  002b6	83 c4 14	 add	 esp, 20			; 00000014H

; 288  : 							
; 289  : 							break;

  002b9	e9 e0 00 00 00	 jmp	 $LN4@Jiki
$LN27@Jiki:

; 290  : 							
; 291  : 						case TAMA_3WAY:
; 292  : 						
; 293  : 							MakeJikiTama( pAct->x - 10, pAct->y -16, -4, -8, 29 );

  002be	6a 1d		 push	 29			; 0000001dH
  002c0	6a f8		 push	 -8			; fffffff8H
  002c2	6a fc		 push	 -4			; fffffffcH
  002c4	8b 45 08	 mov	 eax, DWORD PTR _pAct$[ebp]
  002c7	8b 48 1c	 mov	 ecx, DWORD PTR [eax+28]
  002ca	83 e9 10	 sub	 ecx, 16			; 00000010H
  002cd	51		 push	 ecx
  002ce	8b 55 08	 mov	 edx, DWORD PTR _pAct$[ebp]
  002d1	8b 42 18	 mov	 eax, DWORD PTR [edx+24]
  002d4	83 e8 0a	 sub	 eax, 10			; 0000000aH
  002d7	50		 push	 eax
  002d8	e8 00 00 00 00	 call	 ?MakeJikiTama@@YAPAUaction@@HHHHH@Z ; MakeJikiTama
  002dd	83 c4 14	 add	 esp, 20			; 00000014H

; 294  : 							MakeJikiTama( pAct->x, 	   	pAct->y -16,  0, -8, 29 );

  002e0	6a 1d		 push	 29			; 0000001dH
  002e2	6a f8		 push	 -8			; fffffff8H
  002e4	6a 00		 push	 0
  002e6	8b 45 08	 mov	 eax, DWORD PTR _pAct$[ebp]
  002e9	8b 48 1c	 mov	 ecx, DWORD PTR [eax+28]
  002ec	83 e9 10	 sub	 ecx, 16			; 00000010H
  002ef	51		 push	 ecx
  002f0	8b 55 08	 mov	 edx, DWORD PTR _pAct$[ebp]
  002f3	8b 42 18	 mov	 eax, DWORD PTR [edx+24]
  002f6	50		 push	 eax
  002f7	e8 00 00 00 00	 call	 ?MakeJikiTama@@YAPAUaction@@HHHHH@Z ; MakeJikiTama
  002fc	83 c4 14	 add	 esp, 20			; 00000014H

; 295  : 							MakeJikiTama( pAct->x + 10, pAct->y -16,  4, -8, 29 );

  002ff	6a 1d		 push	 29			; 0000001dH
  00301	6a f8		 push	 -8			; fffffff8H
  00303	6a 04		 push	 4
  00305	8b 45 08	 mov	 eax, DWORD PTR _pAct$[ebp]
  00308	8b 48 1c	 mov	 ecx, DWORD PTR [eax+28]
  0030b	83 e9 10	 sub	 ecx, 16			; 00000010H
  0030e	51		 push	 ecx
  0030f	8b 55 08	 mov	 edx, DWORD PTR _pAct$[ebp]
  00312	8b 42 18	 mov	 eax, DWORD PTR [edx+24]
  00315	83 c0 0a	 add	 eax, 10			; 0000000aH
  00318	50		 push	 eax
  00319	e8 00 00 00 00	 call	 ?MakeJikiTama@@YAPAUaction@@HHHHH@Z ; MakeJikiTama
  0031e	83 c4 14	 add	 esp, 20			; 00000014H

; 296  : 							
; 297  : 							break;

  00321	eb 7b		 jmp	 SHORT $LN4@Jiki
$LN28@Jiki:

; 298  : 							
; 299  : 						case TAMA_DIR:
; 300  : 						
; 301  : 							MakeJikiTama( pAct->x, pAct->y -16,  pYobi->tamaDx, -8, 29 );

  00323	6a 1d		 push	 29			; 0000001dH
  00325	6a f8		 push	 -8			; fffffff8H
  00327	8b 45 f4	 mov	 eax, DWORD PTR _pYobi$[ebp]
  0032a	8b 48 10	 mov	 ecx, DWORD PTR [eax+16]
  0032d	51		 push	 ecx
  0032e	8b 55 08	 mov	 edx, DWORD PTR _pAct$[ebp]
  00331	8b 42 1c	 mov	 eax, DWORD PTR [edx+28]
  00334	83 e8 10	 sub	 eax, 16			; 00000010H
  00337	50		 push	 eax
  00338	8b 4d 08	 mov	 ecx, DWORD PTR _pAct$[ebp]
  0033b	8b 51 18	 mov	 edx, DWORD PTR [ecx+24]
  0033e	52		 push	 edx
  0033f	e8 00 00 00 00	 call	 ?MakeJikiTama@@YAPAUaction@@HHHHH@Z ; MakeJikiTama
  00344	83 c4 14	 add	 esp, 20			; 00000014H

; 302  : 							MakeJikiTama( pAct->x, pAct->y -16, -pYobi->tamaDx, -8, 29 );

  00347	6a 1d		 push	 29			; 0000001dH
  00349	6a f8		 push	 -8			; fffffff8H
  0034b	8b 45 f4	 mov	 eax, DWORD PTR _pYobi$[ebp]
  0034e	8b 48 10	 mov	 ecx, DWORD PTR [eax+16]
  00351	f7 d9		 neg	 ecx
  00353	51		 push	 ecx
  00354	8b 55 08	 mov	 edx, DWORD PTR _pAct$[ebp]
  00357	8b 42 1c	 mov	 eax, DWORD PTR [edx+28]
  0035a	83 e8 10	 sub	 eax, 16			; 00000010H
  0035d	50		 push	 eax
  0035e	8b 4d 08	 mov	 ecx, DWORD PTR _pAct$[ebp]
  00361	8b 51 18	 mov	 edx, DWORD PTR [ecx+24]
  00364	52		 push	 edx
  00365	e8 00 00 00 00	 call	 ?MakeJikiTama@@YAPAUaction@@HHHHH@Z ; MakeJikiTama
  0036a	83 c4 14	 add	 esp, 20			; 00000014H

; 303  : 							/* 方向 */
; 304  : 							pYobi->tamaDx += pYobi->tamaDir;

  0036d	8b 45 f4	 mov	 eax, DWORD PTR _pYobi$[ebp]
  00370	8b 48 10	 mov	 ecx, DWORD PTR [eax+16]
  00373	8b 55 f4	 mov	 edx, DWORD PTR _pYobi$[ebp]
  00376	03 4a 0c	 add	 ecx, DWORD PTR [edx+12]
  00379	8b 45 f4	 mov	 eax, DWORD PTR _pYobi$[ebp]
  0037c	89 48 10	 mov	 DWORD PTR [eax+16], ecx

; 305  : 							if(	pYobi->tamaDx <= -10 || 10 <= pYobi->tamaDx ){

  0037f	8b 45 f4	 mov	 eax, DWORD PTR _pYobi$[ebp]
  00382	83 78 10 f6	 cmp	 DWORD PTR [eax+16], -10	; fffffff6H
  00386	7e 09		 jle	 SHORT $LN30@Jiki
  00388	8b 45 f4	 mov	 eax, DWORD PTR _pYobi$[ebp]
  0038b	83 78 10 0a	 cmp	 DWORD PTR [eax+16], 10	; 0000000aH
  0038f	7c 0d		 jl	 SHORT $LN4@Jiki
$LN30@Jiki:

; 306  : 								pYobi->tamaDir *= -1;

  00391	8b 45 f4	 mov	 eax, DWORD PTR _pYobi$[ebp]
  00394	6b 48 0c ff	 imul	 ecx, DWORD PTR [eax+12], -1
  00398	8b 55 f4	 mov	 edx, DWORD PTR _pYobi$[ebp]
  0039b	89 4a 0c	 mov	 DWORD PTR [edx+12], ecx
$LN4@Jiki:

; 307  : 							}
; 308  : 							break;
; 309  : 					}
; 310  : 					pYobi->cnt3 = 2; /*  ウェイト */

  0039e	8b 45 f4	 mov	 eax, DWORD PTR _pYobi$[ebp]
  003a1	c7 40 08 02 00
	00 00		 mov	 DWORD PTR [eax+8], 2
$LN24@Jiki:

; 311  : 					//pYobi->cnt3 = 0; /*  ウェイト */
; 312  : 				}
; 313  : 			}else{

  003a8	eb 18		 jmp	 SHORT $LN23@Jiki
$LN22@Jiki:

; 314  : 				if( pYobi->cnt3 > 0 ) pYobi->cnt3--;

  003aa	8b 45 f4	 mov	 eax, DWORD PTR _pYobi$[ebp]
  003ad	83 78 08 00	 cmp	 DWORD PTR [eax+8], 0
  003b1	7e 0f		 jle	 SHORT $LN23@Jiki
  003b3	8b 45 f4	 mov	 eax, DWORD PTR _pYobi$[ebp]
  003b6	8b 48 08	 mov	 ecx, DWORD PTR [eax+8]
  003b9	83 e9 01	 sub	 ecx, 1
  003bc	8b 55 f4	 mov	 edx, DWORD PTR _pYobi$[ebp]
  003bf	89 4a 08	 mov	 DWORD PTR [edx+8], ecx
$LN23@Jiki:

; 315  : 			}
; 316  : 			
; 317  : 			/* 点 */
; 318  : /*			if( ( int )pAct->x % 2 ) pAct->atr |= ACT_ATR_HIDE;
; 319  : 			else pAct->atr &= ~ACT_ATR_HIDE;
; 320  : */		
; 321  : 			/* 匙鞒 */
; 322  : 			pYobi->cnt++;

  003c2	8b 45 f4	 mov	 eax, DWORD PTR _pYobi$[ebp]
  003c5	8b 08		 mov	 ecx, DWORD PTR [eax]
  003c7	83 c1 01	 add	 ecx, 1
  003ca	8b 55 f4	 mov	 edx, DWORD PTR _pYobi$[ebp]
  003cd	89 0a		 mov	 DWORD PTR [edx], ecx

; 323  : 			if( pYobi->cnt >= 1 ){

  003cf	8b 45 f4	 mov	 eax, DWORD PTR _pYobi$[ebp]
  003d2	83 38 01	 cmp	 DWORD PTR [eax], 1
  003d5	7c 3e		 jl	 SHORT $LN32@Jiki

; 324  : 				//MakeEnemy();
; 325  : 				pYobi->cnt2++;

  003d7	8b 45 f4	 mov	 eax, DWORD PTR _pYobi$[ebp]
  003da	8b 48 04	 mov	 ecx, DWORD PTR [eax+4]
  003dd	83 c1 01	 add	 ecx, 1
  003e0	8b 55 f4	 mov	 edx, DWORD PTR _pYobi$[ebp]
  003e3	89 4a 04	 mov	 DWORD PTR [edx+4], ecx

; 326  : 				if( pYobi->cnt2 >= 5 ){

  003e6	8b 45 f4	 mov	 eax, DWORD PTR _pYobi$[ebp]
  003e9	83 78 04 05	 cmp	 DWORD PTR [eax+4], 5
  003ed	7c 1d		 jl	 SHORT $LN33@Jiki

; 327  : 					pYobi->cnt2 = 0;

  003ef	8b 45 f4	 mov	 eax, DWORD PTR _pYobi$[ebp]
  003f2	c7 40 04 00 00
	00 00		 mov	 DWORD PTR [eax+4], 0

; 328  : 					/* 涓 */
; 329  : 					//pYobi->attackKind++;
; 330  : 					if( pYobi->attackKind >= TAMA_END ){

  003f9	8b 45 f4	 mov	 eax, DWORD PTR _pYobi$[ebp]
  003fc	83 78 14 04	 cmp	 DWORD PTR [eax+20], 4
  00400	7c 0a		 jl	 SHORT $LN33@Jiki

; 331  : 						pYobi->attackKind = 0;

  00402	8b 45 f4	 mov	 eax, DWORD PTR _pYobi$[ebp]
  00405	c7 40 14 00 00
	00 00		 mov	 DWORD PTR [eax+20], 0
$LN33@Jiki:

; 332  : 					}
; 333  : 				}
; 334  : 				pYobi->cnt = 0;

  0040c	8b 45 f4	 mov	 eax, DWORD PTR _pYobi$[ebp]
  0040f	c7 00 00 00 00
	00		 mov	 DWORD PTR [eax], 0
$LN32@Jiki:

; 335  : 			}
; 336  : 			
; 337  : 			break;

  00415	e9 85 00 00 00	 jmp	 $LN2@Jiki
$LN35@Jiki:

; 338  : 	
; 339  : 		/* 死亡r */	
; 340  : 		case ACT_STATE_DEAD:
; 341  : 		
; 342  : 			if( pYobi->cnt == 0 ){ 

  0041a	8b 45 f4	 mov	 eax, DWORD PTR _pYobi$[ebp]
  0041d	83 38 00	 cmp	 DWORD PTR [eax], 0
  00420	75 20		 jne	 SHORT $LN36@Jiki

; 343  : 				pAct->bmpNo = bomData[ 0 ];

  00422	b8 04 00 00 00	 mov	 eax, 4
  00427	6b c8 00	 imul	 ecx, eax, 0
  0042a	8b 55 08	 mov	 edx, DWORD PTR _pAct$[ebp]
  0042d	8b 81 00 00 00
	00		 mov	 eax, DWORD PTR ?bomData@@3PAHA[ecx]
  00433	89 82 9c 00 00
	00		 mov	 DWORD PTR [edx+156], eax

; 344  : 				pYobi->cnt = 1;

  00439	8b 45 f4	 mov	 eax, DWORD PTR _pYobi$[ebp]
  0043c	c7 00 01 00 00
	00		 mov	 DWORD PTR [eax], 1
$LN36@Jiki:

; 345  : 			}
; 346  : 			/* 爆kアニメ`ション */
; 347  : 			pYobi->cnt2++;

  00442	8b 45 f4	 mov	 eax, DWORD PTR _pYobi$[ebp]
  00445	8b 48 04	 mov	 ecx, DWORD PTR [eax+4]
  00448	83 c1 01	 add	 ecx, 1
  0044b	8b 55 f4	 mov	 edx, DWORD PTR _pYobi$[ebp]
  0044e	89 4a 04	 mov	 DWORD PTR [edx+4], ecx

; 348  : 			if( pYobi->cnt2 >= 5 ){

  00451	8b 45 f4	 mov	 eax, DWORD PTR _pYobi$[ebp]
  00454	83 78 04 05	 cmp	 DWORD PTR [eax+4], 5
  00458	7c 45		 jl	 SHORT $LN2@Jiki

; 349  : 				pAct->bmpNo = bomData[ pYobi->cnt ];

  0045a	8b 45 f4	 mov	 eax, DWORD PTR _pYobi$[ebp]
  0045d	8b 08		 mov	 ecx, DWORD PTR [eax]
  0045f	8b 55 08	 mov	 edx, DWORD PTR _pAct$[ebp]
  00462	8b 04 8d 00 00
	00 00		 mov	 eax, DWORD PTR ?bomData@@3PAHA[ecx*4]
  00469	89 82 9c 00 00
	00		 mov	 DWORD PTR [edx+156], eax

; 350  : 				pYobi->cnt++;

  0046f	8b 45 f4	 mov	 eax, DWORD PTR _pYobi$[ebp]
  00472	8b 08		 mov	 ecx, DWORD PTR [eax]
  00474	83 c1 01	 add	 ecx, 1
  00477	8b 55 f4	 mov	 edx, DWORD PTR _pYobi$[ebp]
  0047a	89 0a		 mov	 DWORD PTR [edx], ecx

; 351  : 				pYobi->cnt2 = 0;

  0047c	8b 45 f4	 mov	 eax, DWORD PTR _pYobi$[ebp]
  0047f	c7 40 04 00 00
	00 00		 mov	 DWORD PTR [eax+4], 0

; 352  : 				/* Kわったら死ぬ */
; 353  : 				if( pYobi->cnt == 6 ){

  00486	8b 45 f4	 mov	 eax, DWORD PTR _pYobi$[ebp]
  00489	83 38 06	 cmp	 DWORD PTR [eax], 6
  0048c	75 11		 jne	 SHORT $LN2@Jiki

; 354  : 					DeathAction( pAct );

  0048e	8b 45 08	 mov	 eax, DWORD PTR _pAct$[ebp]
  00491	50		 push	 eax
  00492	e8 00 00 00 00	 call	 ?DeathAction@@YAXPAUaction@@@Z ; DeathAction
  00497	83 c4 04	 add	 esp, 4

; 355  : 					MakeGameOver( );

  0049a	e8 00 00 00 00	 call	 ?MakeGameOver@@YAPAUaction@@XZ ; MakeGameOver
$LN2@Jiki:

; 356  : 				}
; 357  : 			}
; 358  : 			
; 359  : 			break;
; 360  : 	}
; 361  : 	
; 362  : 	// 表示デ`タをバッファに溜める
; 363  : 	//StockDispBuffer( pAct->x + 32, pAct->y, pAct->dispPrio, pAct->anim_chr_no, 0 );
; 364  : 	//StockDispBuffer( pAct->x - 32, pAct->y, pAct->dispPrio, pAct->anim_chr_no, 0 );
; 365  : 	{
; 366  : 		char szMoji[ 256 ];
; 367  : 		wsprintf( szMoji,"BmpNo = %d",No );

  0049f	8b f4		 mov	 esi, esp
  004a1	a1 00 00 00 00	 mov	 eax, DWORD PTR ?No@@3HA
  004a6	50		 push	 eax
  004a7	68 00 00 00 00	 push	 OFFSET ??_C@_0L@EODHLCGM@BmpNo?5?$DN?5?$CFd?$AA@
  004ac	8d 8d ec fe ff
	ff		 lea	 ecx, DWORD PTR _szMoji$1[ebp]
  004b2	51		 push	 ecx
  004b3	ff 15 00 00 00
	00		 call	 DWORD PTR __imp__wsprintfA
  004b9	83 c4 0c	 add	 esp, 12			; 0000000cH
  004bc	3b f4		 cmp	 esi, esp
  004be	e8 00 00 00 00	 call	 __RTC_CheckEsp

; 368  : 	//	StockFontBuffer( pAct->x, pAct->y, FONT_PRIO_FRONT, 2, szMoji, 0 );
; 369  : 	}
; 370  : 	
; 371  : 	// アニメ`ション
; 372  : 	pattern( pAct, ANM_NOMAL_SPD, ANM_LOOP );

  004c3	6a 00		 push	 0
  004c5	6a 00		 push	 0
  004c7	8b 45 08	 mov	 eax, DWORD PTR _pAct$[ebp]
  004ca	50		 push	 eax
  004cb	e8 00 00 00 00	 call	 ?pattern@@YAHPAUaction@@HH@Z ; pattern
  004d0	83 c4 0c	 add	 esp, 12			; 0000000cH

; 373  : 	// テスト文字列表示
; 374  : 	//StockFontBuffer( 320, 200, FONT_PRIO_FRONT, pYobi->strTestBuffer.color, pYobi->strTestBuffer.buffer, 0 );
; 375  : 	StockFontBuffer2( &pYobi->strTestBuffer );

  004d3	8b 45 f4	 mov	 eax, DWORD PTR _pYobi$[ebp]
  004d6	83 c0 18	 add	 eax, 24			; 00000018H
  004d9	50		 push	 eax
  004da	e8 00 00 00 00	 call	 ?StockFontBuffer2@@YAXPAUSTR_BUFFER@@@Z ; StockFontBuffer2
  004df	83 c4 04	 add	 esp, 4

; 376  : }

  004e2	52		 push	 edx
  004e3	8b cd		 mov	 ecx, ebp
  004e5	50		 push	 eax
  004e6	8d 15 00 00 00
	00		 lea	 edx, DWORD PTR $LN42@Jiki
  004ec	e8 00 00 00 00	 call	 @_RTC_CheckStackVars@8
  004f1	58		 pop	 eax
  004f2	5a		 pop	 edx
  004f3	5f		 pop	 edi
  004f4	5e		 pop	 esi
  004f5	5b		 pop	 ebx
  004f6	8b 4d fc	 mov	 ecx, DWORD PTR __$ArrayPad$[ebp]
  004f9	33 cd		 xor	 ecx, ebp
  004fb	e8 00 00 00 00	 call	 @__security_check_cookie@4
  00500	81 c4 dc 01 00
	00		 add	 esp, 476		; 000001dcH
  00506	3b ec		 cmp	 ebp, esp
  00508	e8 00 00 00 00	 call	 __RTC_CheckEsp
  0050d	8b e5		 mov	 esp, ebp
  0050f	5d		 pop	 ebp
  00510	c3		 ret	 0
  00511	0f 1f 00	 npad	 3
$LN42@Jiki:
  00514	01 00 00 00	 DD	 1
  00518	00 00 00 00	 DD	 $LN41@Jiki
$LN41@Jiki:
  0051c	ec fe ff ff	 DD	 -276			; fffffeecH
  00520	00 01 00 00	 DD	 256			; 00000100H
  00524	00 00 00 00	 DD	 $LN40@Jiki
$LN40@Jiki:
  00528	73		 DB	 115			; 00000073H
  00529	7a		 DB	 122			; 0000007aH
  0052a	4d		 DB	 77			; 0000004dH
  0052b	6f		 DB	 111			; 0000006fH
  0052c	6a		 DB	 106			; 0000006aH
  0052d	69		 DB	 105			; 00000069H
  0052e	00		 DB	 0
  0052f	90		 npad	 1
$LN43@Jiki:
  00530	00 00 00 00	 DD	 $LN25@Jiki
  00534	00 00 00 00	 DD	 $LN26@Jiki
  00538	00 00 00 00	 DD	 $LN27@Jiki
  0053c	00 00 00 00	 DD	 $LN28@Jiki
?Jiki@@YAXPAUaction@@@Z ENDP				; Jiki
_TEXT	ENDS
; Function compile flags: /Odtp /RTCsu /ZI
; File c:\users\administrator\desktop\????? ??\????? ??\client source code\ohta\ohta.cpp
;	COMDAT ?MakeJiki@@YAPAUaction@@XZ
_TEXT	SEGMENT
_pYobi$ = -20						; size = 4
_pAct$ = -8						; size = 4
?MakeJiki@@YAPAUaction@@XZ PROC				; MakeJiki, COMDAT

; 64   : {

  00000	55		 push	 ebp
  00001	8b ec		 mov	 ebp, esp
  00003	81 ec d8 00 00
	00		 sub	 esp, 216		; 000000d8H
  00009	53		 push	 ebx
  0000a	56		 push	 esi
  0000b	57		 push	 edi
  0000c	8d bd 28 ff ff
	ff		 lea	 edi, DWORD PTR [ebp-216]
  00012	b9 36 00 00 00	 mov	 ecx, 54			; 00000036H
  00017	b8 cc cc cc cc	 mov	 eax, -858993460		; ccccccccH
  0001c	f3 ab		 rep stosd

; 65   : 	ACTION *pAct;
; 66   : 	JIKI *pYobi;
; 67   : 	
; 68   : 	/* アクションリストに登h */
; 69   : 	pAct = GetAction( PRIO_JIKI, sizeof( JIKI ) );

  0001e	68 40 01 00 00	 push	 320			; 00000140H
  00023	6a 03		 push	 3
  00025	e8 00 00 00 00	 call	 ?GetAction@@YAPAUaction@@EI@Z ; GetAction
  0002a	83 c4 08	 add	 esp, 8
  0002d	89 45 f8	 mov	 DWORD PTR _pAct$[ebp], eax

; 70   : 	if( pAct == NULL ) return NULL;

  00030	83 7d f8 00	 cmp	 DWORD PTR _pAct$[ebp], 0
  00034	75 07		 jne	 SHORT $LN2@MakeJiki
  00036	33 c0		 xor	 eax, eax
  00038	e9 e7 00 00 00	 jmp	 $LN1@MakeJiki
$LN2@MakeJiki:

; 71   : 	
; 72   : 	/* 予造体のアドレス */
; 73   : 	pYobi = ( JIKI *)pAct->pYobi;

  0003d	8b 45 f8	 mov	 eax, DWORD PTR _pAct$[ebp]
  00040	8b 48 0c	 mov	 ecx, DWORD PTR [eax+12]
  00043	89 4d ec	 mov	 DWORD PTR _pYobi$[ebp], ecx

; 74   : 	
; 75   : 	/* g行v数 */
; 76   : 	pAct->func = Jiki;

  00046	8b 45 f8	 mov	 eax, DWORD PTR _pAct$[ebp]
  00049	c7 40 08 00 00
	00 00		 mov	 DWORD PTR [eax+8], OFFSET ?Jiki@@YAXPAUaction@@@Z ; Jiki

; 77   : 	/* 表示先度 */
; 78   : 	pAct->dispPrio = DISP_PRIO_JIKI;

  00050	8b 45 f8	 mov	 eax, DWORD PTR _pAct$[ebp]
  00053	c6 40 15 1e	 mov	 BYTE PTR [eax+21], 30	; 0000001eH

; 79   : 	// 当たり判定 + ボックス表示
; 80   : 	pAct->atr |= ACT_ATR_HIT_BOX;

  00057	8b 45 f8	 mov	 eax, DWORD PTR _pAct$[ebp]
  0005a	8b 88 a4 00 00
	00		 mov	 ecx, DWORD PTR [eax+164]
  00060	83 c9 08	 or	 ecx, 8
  00063	8b 55 f8	 mov	 edx, DWORD PTR _pAct$[ebp]
  00066	89 8a a4 00 00
	00		 mov	 DWORD PTR [edx+164], ecx

; 81   : 	/* スプライト番号 */
; 82   : 	//pAct->bmpNo = 31;
; 83   : 	//pAct->anim_chr_no = 20001;
; 84   : 	// anim_tbl.h の番号
; 85   : 	pAct->anim_chr_no = 31555; // イノシシ

  0006c	8b 45 f8	 mov	 eax, DWORD PTR _pAct$[ebp]
  0006f	c7 80 44 01 00
	00 43 7b 00 00	 mov	 DWORD PTR [eax+324], 31555 ; 00007b43H

; 86   : 	//pAct->anim_chr_no = 5200; // マウスカ`ソル
; 87   : 	//pAct->anim_chr_no = 9350; // SCORE
; 88   : 	// 幼鞣号
; 89   : 	//pAct->anim_no = ANIM_ATTACK;
; 90   : 	pAct->anim_no = ANIM_STAND;

  00079	8b 45 f8	 mov	 eax, DWORD PTR _pAct$[ebp]
  0007c	c7 80 4c 01 00
	00 03 00 00 00	 mov	 DWORD PTR [eax+332], 3

; 91   : 	pAct->anim_no = ANIM_STAND + 1;

  00086	8b 45 f8	 mov	 eax, DWORD PTR _pAct$[ebp]
  00089	c7 80 4c 01 00
	00 04 00 00 00	 mov	 DWORD PTR [eax+332], 4

; 92   : 	// アニメ`ション向き( ０～７ )( 下が０で右回り )
; 93   : 	pAct->anim_ang = 0;

  00093	8b 45 f8	 mov	 eax, DWORD PTR _pAct$[ebp]
  00096	c7 80 54 01 00
	00 00 00 00 00	 mov	 DWORD PTR [eax+340], 0

; 94   : 	/* ＨＰ */
; 95   : 	pAct->hp = 100;

  000a0	8b 45 f8	 mov	 eax, DWORD PTR _pAct$[ebp]
  000a3	c7 40 78 64 00
	00 00		 mov	 DWORD PTR [eax+120], 100 ; 00000064H

; 96   : 	/* 初期位置 */
; 97   : 	pAct->x = 304;

  000aa	8b 45 f8	 mov	 eax, DWORD PTR _pAct$[ebp]
  000ad	c7 40 18 30 01
	00 00		 mov	 DWORD PTR [eax+24], 304	; 00000130H

; 98   : 	pAct->y = 400;

  000b4	8b 45 f8	 mov	 eax, DWORD PTR _pAct$[ebp]
  000b7	c7 40 1c 90 01
	00 00		 mov	 DWORD PTR [eax+28], 400	; 00000190H

; 99   : 
; 100  : 	/* 匙鞒 */
; 101  : 	MakeEnemy();

  000be	e8 00 00 00 00	 call	 ?MakeEnemy@@YAPAUaction@@XZ ; MakeEnemy

; 102  : 	/* ＢＧ作成 */
; 103  : 	MakeBg();

  000c3	e8 00 00 00 00	 call	 ?MakeBg@@YAPAUaction@@XZ ; MakeBg

; 104  : 	
; 105  : 	/* ケン作成 */
; 106  : 	MakeKen();

  000c8	e8 00 00 00 00	 call	 ?MakeKen@@YAPAUaction@@XZ ; MakeKen

; 107  : 	
; 108  : 	/* 攻膜畏N */
; 109  : 	//pYobi->attackKind = TAMA_DIR;
; 110  : 	pYobi->attackKind = TAMA_3WAY;

  000cd	8b 45 ec	 mov	 eax, DWORD PTR _pYobi$[ebp]
  000d0	c7 40 14 02 00
	00 00		 mov	 DWORD PTR [eax+20], 2

; 111  : 	/* 方向 */
; 112  : 	pYobi->tamaDir = 1;

  000d7	8b 45 ec	 mov	 eax, DWORD PTR _pYobi$[ebp]
  000da	c7 40 0c 01 00
	00 00		 mov	 DWORD PTR [eax+12], 1

; 113  : 	pYobi->tamaDx = 1;

  000e1	8b 45 ec	 mov	 eax, DWORD PTR _pYobi$[ebp]
  000e4	c7 40 10 01 00
	00 00		 mov	 DWORD PTR [eax+16], 1

; 114  : 	/* グロ`バルに保存 */
; 115  : 	pJiki = pAct;

  000eb	8b 45 f8	 mov	 eax, DWORD PTR _pAct$[ebp]
  000ee	a3 00 00 00 00	 mov	 DWORD PTR ?pJiki@@3PAUaction@@A, eax ; pJiki

; 116  : 	
; 117  : 	// 文字列のLさ
; 118  : 	pYobi->strTestBuffer.len = 10;

  000f3	8b 45 ec	 mov	 eax, DWORD PTR _pYobi$[ebp]
  000f6	c6 80 1c 01 00
	00 0a		 mov	 BYTE PTR [eax+284], 10	; 0000000aH

; 119  : 	// 文字列の色
; 120  : 	pYobi->strTestBuffer.color = 1;

  000fd	8b 45 ec	 mov	 eax, DWORD PTR _pYobi$[ebp]
  00100	c6 80 20 01 00
	00 01		 mov	 BYTE PTR [eax+288], 1

; 121  : 	pYobi->strTestBuffer.x = 320;

  00107	8b 45 ec	 mov	 eax, DWORD PTR _pYobi$[ebp]
  0010a	c7 80 24 01 00
	00 40 01 00 00	 mov	 DWORD PTR [eax+292], 320 ; 00000140H

; 122  : 	pYobi->strTestBuffer.y = 260;

  00114	8b 45 ec	 mov	 eax, DWORD PTR _pYobi$[ebp]
  00117	c7 80 28 01 00
	00 04 01 00 00	 mov	 DWORD PTR [eax+296], 260 ; 00000104H

; 123  : 	
; 124  : 	return pAct;

  00121	8b 45 f8	 mov	 eax, DWORD PTR _pAct$[ebp]
$LN1@MakeJiki:

; 125  : 	
; 126  : }

  00124	5f		 pop	 edi
  00125	5e		 pop	 esi
  00126	5b		 pop	 ebx
  00127	81 c4 d8 00 00
	00		 add	 esp, 216		; 000000d8H
  0012d	3b ec		 cmp	 ebp, esp
  0012f	e8 00 00 00 00	 call	 __RTC_CheckEsp
  00134	8b e5		 mov	 esp, ebp
  00136	5d		 pop	 ebp
  00137	c3		 ret	 0
?MakeJiki@@YAPAUaction@@XZ ENDP				; MakeJiki
_TEXT	ENDS
END
