; Listing generated by Microsoft (R) Optimizing Compiler Version 19.00.24215.1 

	TITLE	C:\Users\Administrator\Desktop\????? ??\????? ??\Client Source Code\system\Pattern.cpp
	.686P
	.XMM
	include listing.inc
	.model	flat

INCLUDELIB MSVCRTD
INCLUDELIB OLDNAMES

_DATA	SEGMENT
?ridePetTable@@3PAUtagRidePetTable@@A DD 018a88H	; ridePetTable
	DD	0186a0H
	DD	018800H
	DD	00H
	DD	018a89H
	DD	0186a5H
	DD	018800H
	DD	00H
	DD	018a8aH
	DD	0186aaH
	DD	018800H
	DD	00H
	DD	018a8bH
	DD	0186afH
	DD	018800H
	DD	00H
	DD	018a8cH
	DD	0186a0H
	DD	0187e9H
	DD	00H
	DD	018a8dH
	DD	0186a5H
	DD	0187e7H
	DD	00H
	DD	018a8eH
	DD	0186aaH
	DD	0187eaH
	DD	00H
	DD	018a8fH
	DD	0186afH
	DD	0187e8H
	DD	00H
	DD	018a90H
	DD	01895cH
	DD	018814H
	DD	00H
	DD	018a91H
	DD	018961H
	DD	018815H
	DD	00H
	DD	018e65H
	DD	018961H
	DD	018cc8H
	DD	00H
	DD	018e5aH
	DD	018961H
	DD	018c9cH
	DD	00H
	DD	018a92H
	DD	0186b4H
	DD	01882cH
	DD	00H
	DD	018a93H
	DD	0186b9H
	DD	01882cH
	DD	00H
	DD	018a94H
	DD	0186beH
	DD	01882cH
	DD	00H
	DD	018a95H
	DD	0186c3H
	DD	01882cH
	DD	00H
	DD	018a96H
	DD	0186b4H
	DD	0187e8H
	DD	00H
	DD	018a97H
	DD	0186b9H
	DD	0187e9H
	DD	00H
	DD	018a98H
	DD	0186beH
	DD	0187e7H
	DD	00H
	DD	018a99H
	DD	0186c3H
	DD	0187eaH
	DD	00H
	DD	018a9aH
	DD	018966H
	DD	018814H
	DD	00H
	DD	018a9bH
	DD	01896bH
	DD	018815H
	DD	00H
	DD	018e64H
	DD	01896bH
	DD	018cc8H
	DD	00H
	DD	018e62H
	DD	01896bH
	DD	018c9cH
	DD	00H
	DD	018a9cH
	DD	0186c8H
	DD	0187ffH
	DD	00H
	DD	018a9dH
	DD	0186cdH
	DD	0187ffH
	DD	00H
	DD	018a9eH
	DD	0186d2H
	DD	0187ffH
	DD	00H
	DD	018a9fH
	DD	0186d7H
	DD	0187ffH
	DD	00H
	DD	018aa0H
	DD	0186c8H
	DD	0187e8H
	DD	00H
	DD	018aa1H
	DD	0186cdH
	DD	0187eaH
	DD	00H
	DD	018aa2H
	DD	0186d2H
	DD	0187e7H
	DD	00H
	DD	018aa3H
	DD	0186d7H
	DD	0187e9H
	DD	00H
	DD	018aa4H
	DD	018970H
	DD	018814H
	DD	00H
	DD	018aa5H
	DD	018975H
	DD	018815H
	DD	00H
	DD	018e4dH
	DD	018975H
	DD	018cc8H
	DD	00H
	DD	018e57H
	DD	018975H
	DD	018c9cH
	DD	00H
	DD	018aa6H
	DD	0186dcH
	DD	018801H
	DD	00H
	DD	018aa7H
	DD	0186e1H
	DD	018801H
	DD	00H
	DD	018aa8H
	DD	0186e6H
	DD	018801H
	DD	00H
	DD	018aa9H
	DD	0186ebH
	DD	018801H
	DD	00H
	DD	018aaaH
	DD	0186dcH
	DD	0187e9H
	DD	00H
	DD	018aabH
	DD	0186e1H
	DD	0187e7H
	DD	00H
	DD	018aacH
	DD	0186e6H
	DD	0187eaH
	DD	00H
	DD	018aadH
	DD	0186ebH
	DD	0187e8H
	DD	00H
	DD	018aaeH
	DD	01897aH
	DD	018814H
	DD	00H
	DD	018aafH
	DD	01897fH
	DD	018815H
	DD	00H
	DD	018e4eH
	DD	01897fH
	DD	018cc8H
	DD	00H
	DD	018e58H
	DD	01897fH
	DD	018c9cH
	DD	00H
	DD	018ab0H
	DD	0186f0H
	DD	01882cH
	DD	00H
	DD	018ab1H
	DD	0186f5H
	DD	01882cH
	DD	00H
	DD	018ab2H
	DD	0186faH
	DD	01882cH
	DD	00H
	DD	018ab3H
	DD	0186ffH
	DD	01882cH
	DD	00H
	DD	018ab4H
	DD	0186f0H
	DD	0187e8H
	DD	00H
	DD	018ab5H
	DD	0186f5H
	DD	0187e7H
	DD	00H
	DD	018ab6H
	DD	0186faH
	DD	0187eaH
	DD	00H
	DD	018ab7H
	DD	0186ffH
	DD	0187e9H
	DD	00H
	DD	018ab8H
	DD	018984H
	DD	018814H
	DD	00H
	DD	018ab9H
	DD	018989H
	DD	018815H
	DD	00H
	DD	018e55H
	DD	018989H
	DD	018cc8H
	DD	00H
	DD	018e60H
	DD	018989H
	DD	018c9cH
	DD	00H
	DD	018abaH
	DD	018704H
	DD	018801H
	DD	00H
	DD	018abbH
	DD	018709H
	DD	018801H
	DD	00H
	DD	018abcH
	DD	01870eH
	DD	018801H
	DD	00H
	DD	018abdH
	DD	018713H
	DD	018801H
	DD	00H
	DD	018abeH
	DD	018704H
	DD	0187e9H
	DD	00H
	DD	018abfH
	DD	018709H
	DD	0187e8H
	DD	00H
	DD	018ac0H
	DD	01870eH
	DD	0187eaH
	DD	00H
	DD	018ac1H
	DD	018713H
	DD	0187e7H
	DD	00H
	DD	018ac2H
	DD	01898eH
	DD	018814H
	DD	00H
	DD	018ac3H
	DD	018993H
	DD	018815H
	DD	00H
	DD	018e56H
	DD	018993H
	DD	018cc8H
	DD	00H
	DD	018e61H
	DD	018993H
	DD	018c9cH
	DD	00H
	DD	018ac4H
	DD	018718H
	DD	018802H
	DD	00H
	DD	018ac5H
	DD	01871dH
	DD	018802H
	DD	00H
	DD	018ac6H
	DD	018722H
	DD	018802H
	DD	00H
	DD	018ac7H
	DD	018727H
	DD	018802H
	DD	00H
	DD	018ac8H
	DD	018718H
	DD	0187e7H
	DD	00H
	DD	018ac9H
	DD	01871dH
	DD	0187eaH
	DD	00H
	DD	018acaH
	DD	018722H
	DD	0187e8H
	DD	00H
	DD	018acbH
	DD	018727H
	DD	0187e9H
	DD	00H
	DD	018accH
	DD	018998H
	DD	018814H
	DD	00H
	DD	018acdH
	DD	01899dH
	DD	018815H
	DD	00H
	DD	018e4fH
	DD	01899dH
	DD	018cc8H
	DD	00H
	DD	018e59H
	DD	01899dH
	DD	018c9cH
	DD	00H
	DD	018aceH
	DD	01872cH
	DD	018802H
	DD	00H
	DD	018acfH
	DD	018731H
	DD	018802H
	DD	00H
	DD	018ad0H
	DD	018736H
	DD	018802H
	DD	00H
	DD	018ad1H
	DD	01873bH
	DD	018802H
	DD	00H
	DD	018ad2H
	DD	01872cH
	DD	0187e7H
	DD	00H
	DD	018ad3H
	DD	018731H
	DD	0187e9H
	DD	00H
	DD	018ad4H
	DD	018736H
	DD	0187eaH
	DD	00H
	DD	018ad5H
	DD	01873bH
	DD	0187e8H
	DD	00H
	DD	018ad6H
	DD	0189a2H
	DD	018814H
	DD	00H
	DD	018ad7H
	DD	0189a7H
	DD	018815H
	DD	00H
	DD	018e50H
	DD	0189a7H
	DD	018cc8H
	DD	00H
	DD	018e5bH
	DD	0189a7H
	DD	018c9cH
	DD	00H
	DD	018ad8H
	DD	018740H
	DD	018800H
	DD	00H
	DD	018ad9H
	DD	018745H
	DD	018800H
	DD	00H
	DD	018adaH
	DD	01874aH
	DD	018800H
	DD	00H
	DD	018adbH
	DD	01874fH
	DD	018800H
	DD	00H
	DD	018adcH
	DD	018740H
	DD	0187eaH
	DD	00H
	DD	018addH
	DD	018745H
	DD	0187e9H
	DD	00H
	DD	018adeH
	DD	01874aH
	DD	0187e7H
	DD	00H
	DD	018adfH
	DD	01874fH
	DD	0187e8H
	DD	00H
	DD	018ae0H
	DD	0189acH
	DD	018814H
	DD	00H
	DD	018ae1H
	DD	0189b1H
	DD	018815H
	DD	00H
	DD	018e52H
	DD	0189b1H
	DD	018cc8H
	DD	00H
	DD	018e5dH
	DD	0189b1H
	DD	018c9cH
	DD	00H
	DD	018ae2H
	DD	018754H
	DD	0187ffH
	DD	00H
	DD	018ae3H
	DD	018759H
	DD	0187ffH
	DD	00H
	DD	018ae4H
	DD	01875eH
	DD	0187ffH
	DD	00H
	DD	018ae5H
	DD	018763H
	DD	0187ffH
	DD	00H
	DD	018ae6H
	DD	018754H
	DD	0187e8H
	DD	00H
	DD	018ae7H
	DD	018759H
	DD	0187eaH
	DD	00H
	DD	018ae8H
	DD	01875eH
	DD	0187e9H
	DD	00H
	DD	018ae9H
	DD	018763H
	DD	0187e7H
	DD	00H
	DD	018aeaH
	DD	0189b6H
	DD	018814H
	DD	00H
	DD	018aebH
	DD	0189bbH
	DD	018815H
	DD	00H
	DD	018e51H
	DD	0189bbH
	DD	018cc8H
	DD	00H
	DD	018e5cH
	DD	0189bbH
	DD	018c9cH
	DD	00H
	DD	018aecH
	DD	018768H
	DD	018801H
	DD	00H
	DD	018aedH
	DD	01876dH
	DD	018801H
	DD	00H
	DD	018aeeH
	DD	018772H
	DD	018801H
	DD	00H
	DD	018aefH
	DD	018777H
	DD	018801H
	DD	00H
	DD	018af0H
	DD	018768H
	DD	0187e9H
	DD	00H
	DD	018af1H
	DD	01876dH
	DD	0187e8H
	DD	00H
	DD	018af2H
	DD	018772H
	DD	0187e7H
	DD	00H
	DD	018af3H
	DD	018777H
	DD	0187eaH
	DD	00H
	DD	018af4H
	DD	0189c0H
	DD	018814H
	DD	00H
	DD	018af5H
	DD	0189c5H
	DD	018815H
	DD	00H
	DD	018e54H
	DD	0189c5H
	DD	018cc8H
	DD	00H
	DD	018e5fH
	DD	0189c5H
	DD	018c9cH
	DD	00H
	DD	018af6H
	DD	01877cH
	DD	01882cH
	DD	00H
	DD	018af7H
	DD	018781H
	DD	01882cH
	DD	00H
	DD	018af8H
	DD	018786H
	DD	01882cH
	DD	00H
	DD	018af9H
	DD	01878bH
	DD	01882cH
	DD	00H
	DD	018afaH
	DD	01877cH
	DD	0187eaH
	DD	00H
	DD	018afbH
	DD	018781H
	DD	0187e7H
	DD	00H
	DD	018afcH
	DD	018786H
	DD	0187e9H
	DD	00H
	DD	018afdH
	DD	01878bH
	DD	0187e8H
	DD	00H
	DD	018afeH
	DD	0189caH
	DD	018814H
	DD	00H
	DD	018affH
	DD	0189cfH
	DD	018815H
	DD	00H
	DD	018e53H
	DD	0189cfH
	DD	018cc8H
	DD	00H
	DD	018e5eH
	DD	0189cfH
	DD	018c9cH
	DD	00H
	DD	018b3bH
	DD	018b39H
	DD	018b3aH
	DD	00H
	DD	018b3bH
	DD	018b3aH
	DD	018b39H
	DD	00H
?RideCodeMode@@3PAUtagRideCodeMode@@A DD 018816H	; RideCodeMode
	DD	01H
	DD	018806H
	DD	02H
	DD	01880aH
	DD	04H
	DD	0187b7H
	DD	08H
	DD	0187c0H
	DD	010H
	DD	0187bbH
	DD	020H
	DD	0187faH
	DD	040H
	DD	0187d6H
	DD	080H
	DD	018814H
	DD	0100H
	DD	018815H
	DD	0200H
	DD	018c9cH
	DD	0800H
	DD	018cc8H
	DD	0400H
	DD	018812H
	DD	01000H
	DD	018811H
	DD	02000H
	DD	018a28H
	DD	04000H
	DD	018a2bH
	DD	08000H
	DD	018f30H
	DD	010000H
	DD	018f31H
	DD	020000H
	DD	018f68H
	DD	040000H
	DD	0187fcH
	DD	080000H
	DD	0187d3H
	DD	0100000H
	DD	018fa9H
	DD	0200000H
	DD	018faaH
	DD	0400000H
	DD	018a09H
	DD	0800000H
	DD	018a0aH
	DD	01000000H
	DD	019394H
	DD	02000000H
	DD	0187b2H
	DD	04000000H
?RideNoList@@3PAUtagRideNoList@@A DD 018bb9H		; RideNoList
	DD	018bbaH
	DD	018bbbH
	DD	018bbcH
	DD	018bbdH
	DD	018bbeH
	DD	018bbfH
	DD	018bc0H
	DD	018a90H
	DD	018a91H
	DD	018e5aH
	DD	018e65H
	DD	018849H
	DD	018844H
	DD	01885dH
	DD	018ee5H
	DD	018f0dH
	DD	018f19H
	DD	018f76H
	ORG $+32
	DD	018bc1H
	DD	018bc2H
	DD	018bc3H
	DD	018bc4H
	DD	018bc5H
	DD	018bc6H
	DD	018bc7H
	DD	018bc8H
	DD	018a9aH
	DD	018a9bH
	DD	018e62H
	DD	018e64H
	DD	018849H
	DD	018844H
	DD	01885dH
	DD	018ee6H
	DD	018f0eH
	DD	018f1aH
	DD	018f77H
	ORG $+32
	DD	018bc9H
	DD	018bcaH
	DD	018bcbH
	DD	018bccH
	DD	018bcdH
	DD	018bceH
	DD	018bcfH
	DD	018bd0H
	DD	018aa4H
	DD	018aa5H
	DD	018e57H
	DD	018e4dH
	DD	018849H
	DD	018844H
	DD	01885dH
	DD	018ee7H
	DD	018f0fH
	DD	018f1bH
	DD	018f78H
	ORG $+32
	DD	018bd1H
	DD	018bd2H
	DD	018bd3H
	DD	018bd4H
	DD	018bd5H
	DD	018bd6H
	DD	018bd7H
	DD	018bd8H
	DD	018aaeH
	DD	018aafH
	DD	018e58H
	DD	018e4eH
	DD	018849H
	DD	018844H
	DD	01885dH
	DD	018ee8H
	DD	018f10H
	DD	018f1cH
	DD	018f79H
	ORG $+32
	DD	018bd9H
	DD	018bdaH
	DD	018bdbH
	DD	018bdcH
	DD	018bddH
	DD	018bdeH
	DD	018bdfH
	DD	018be0H
	DD	018ab8H
	DD	018ab9H
	DD	018e60H
	DD	018e55H
	DD	018849H
	DD	018844H
	DD	01885dH
	DD	018ee9H
	DD	018f11H
	DD	018f1dH
	DD	018f7aH
	ORG $+32
	DD	018be1H
	DD	018be2H
	DD	018be3H
	DD	018be4H
	DD	018be5H
	DD	018be6H
	DD	018be7H
	DD	018be8H
	DD	018ac2H
	DD	018ac3H
	DD	018e61H
	DD	018e56H
	DD	018849H
	DD	018844H
	DD	01885dH
	DD	018eeaH
	DD	018f12H
	DD	018f1eH
	DD	018f7bH
	ORG $+32
	DD	018be9H
	DD	018beaH
	DD	018bebH
	DD	018becH
	DD	018bedH
	DD	018beeH
	DD	018befH
	DD	018bf0H
	DD	018accH
	DD	018acdH
	DD	018e59H
	DD	018e4fH
	DD	018849H
	DD	018844H
	DD	01885dH
	DD	018eebH
	DD	018f13H
	DD	018f1fH
	DD	018f7cH
	ORG $+32
	DD	018bf1H
	DD	018bf2H
	DD	018bf3H
	DD	018bf4H
	DD	018bf5H
	DD	018bf6H
	DD	018bf7H
	DD	018bf8H
	DD	018ad6H
	DD	018ad7H
	DD	018e5bH
	DD	018e50H
	DD	018849H
	DD	018844H
	DD	01885dH
	DD	018eecH
	DD	018f14H
	DD	018f20H
	DD	018f7dH
	ORG $+32
	DD	018bf9H
	DD	018bfaH
	DD	018bfbH
	DD	018bfcH
	DD	018bfdH
	DD	018bfeH
	DD	018bffH
	DD	018c00H
	DD	018ae0H
	DD	018ae1H
	DD	018e5dH
	DD	018e52H
	DD	018849H
	DD	018844H
	DD	01885dH
	DD	018eedH
	DD	018f15H
	DD	018f21H
	DD	018f7eH
	ORG $+32
	DD	018c01H
	DD	018c02H
	DD	018c03H
	DD	018c04H
	DD	018c05H
	DD	018c06H
	DD	018c07H
	DD	018c08H
	DD	018aeaH
	DD	018aebH
	DD	018e5cH
	DD	018e51H
	DD	018849H
	DD	018844H
	DD	01885dH
	DD	018eeeH
	DD	018f16H
	DD	018f22H
	DD	018f7fH
	ORG $+32
	DD	018c09H
	DD	018c0aH
	DD	018c0bH
	DD	018c0cH
	DD	018c0dH
	DD	018c0eH
	DD	018c0fH
	DD	018c10H
	DD	018af4H
	DD	018af5H
	DD	018e5fH
	DD	018e54H
	DD	018849H
	DD	018844H
	DD	01885dH
	DD	018eefH
	DD	018f17H
	DD	018f23H
	DD	018f80H
	ORG $+32
	DD	018c11H
	DD	018c12H
	DD	018c13H
	DD	018c14H
	DD	018c15H
	DD	018c16H
	DD	018c17H
	DD	018c18H
	DD	018afeH
	DD	018affH
	DD	018e5eH
	DD	018e53H
	DD	018849H
	DD	018844H
	DD	01885dH
	DD	018ef0H
	DD	018f18H
	DD	018f24H
	DD	018f81H
	ORG $+32
?RPlistMode@@3PAUtagRidePetList@@A DD 0186a0H		; RPlistMode
	DD	00H
	DD	0186a5H
	DD	00H
	DD	0186aaH
	DD	00H
	DD	0186afH
	DD	00H
	DD	0186b4H
	DD	01H
	DD	0186b9H
	DD	01H
	DD	0186beH
	DD	01H
	DD	0186c3H
	DD	01H
	DD	0186c8H
	DD	02H
	DD	0186cdH
	DD	02H
	DD	0186d2H
	DD	02H
	DD	0186d7H
	DD	02H
	DD	0186dcH
	DD	03H
	DD	0186e1H
	DD	03H
	DD	0186e6H
	DD	03H
	DD	0186ebH
	DD	03H
	DD	0186f0H
	DD	04H
	DD	0186f5H
	DD	04H
	DD	0186faH
	DD	04H
	DD	0186ffH
	DD	04H
	DD	018704H
	DD	05H
	DD	018709H
	DD	05H
	DD	01870eH
	DD	05H
	DD	018713H
	DD	05H
	DD	018718H
	DD	06H
	DD	01871dH
	DD	06H
	DD	018722H
	DD	06H
	DD	018727H
	DD	06H
	DD	01872cH
	DD	07H
	DD	018731H
	DD	07H
	DD	018736H
	DD	07H
	DD	01873bH
	DD	07H
	DD	018740H
	DD	08H
	DD	018745H
	DD	08H
	DD	01874aH
	DD	08H
	DD	01874fH
	DD	08H
	DD	018754H
	DD	09H
	DD	018759H
	DD	09H
	DD	01875eH
	DD	09H
	DD	018763H
	DD	09H
	DD	018768H
	DD	0aH
	DD	01876dH
	DD	0aH
	DD	018772H
	DD	0aH
	DD	018777H
	DD	0aH
	DD	01877cH
	DD	0bH
	DD	018781H
	DD	0bH
	DD	018786H
	DD	0bH
	DD	01878bH
	DD	0bH
?FontPal@@3PAKA DD 0ffffffH				; FontPal
	DD	0ffff00H
	DD	0ff00ffH
	DD	0ff0000H
	DD	0ffffH
	DD	0ff00H
	DD	0ffH
	DD	0a4a0a0H
	DD	0f0caa6H
	DD	0c0dcc0H
	DD	08cffH
	DD	0247fffH
_DATA	ENDS
PUBLIC	?pattern@@YAHPAUaction@@HH@Z			; pattern
PUBLIC	?picture_play@@YAXPAUaction@@@Z			; picture_play
EXTRN	?realGetPos@@YAHKPAF0@Z:PROC			; realGetPos
EXTRN	?realGetNo@@YAHKPAK@Z:PROC			; realGetNo
EXTRN	?play_se@@YAHHHH@Z:PROC				; play_se
EXTRN	?getCharType@@YAHPAUaction@@@Z:PROC		; getCharType
EXTRN	@_RTC_CheckStackVars@8:PROC
EXTRN	@__security_check_cookie@4:PROC
EXTRN	__RTC_CheckEsp:PROC
EXTRN	__RTC_InitBase:PROC
EXTRN	__RTC_Shutdown:PROC
EXTRN	?SpriteData@@3PAUSPRITEDATA@@A:BYTE		; SpriteData
EXTRN	?g_bUseAlpha@@3HA:DWORD				; g_bUseAlpha
EXTRN	___security_cookie:DWORD
;	COMDAT rtc$TMZ
rtc$TMZ	SEGMENT
__RTC_Shutdown.rtc$TMZ DD FLAT:__RTC_Shutdown
rtc$TMZ	ENDS
;	COMDAT rtc$IMZ
rtc$IMZ	SEGMENT
__RTC_InitBase.rtc$IMZ DD FLAT:__RTC_InitBase
rtc$IMZ	ENDS
; Function compile flags: /Odtp /RTCsu /ZI
; File c:\users\administrator\desktop\????? ??\????? ??\client source code\system\pattern.cpp
;	COMDAT ?picture_play@@YAXPAUaction@@@Z
_TEXT	SEGMENT
_picture4$1 = -92					; size = 4
_picture3$2 = -80					; size = 4
_picture2$3 = -68					; size = 4
_picture1$4 = -56					; size = 4
_pictable$ = -44					; size = 36
__$ArrayPad$ = -4					; size = 4
_a0$ = 8						; size = 4
?picture_play@@YAXPAUaction@@@Z PROC			; picture_play, COMDAT

; 24   : {

  00000	55		 push	 ebp
  00001	8b ec		 mov	 ebp, esp
  00003	81 ec 20 01 00
	00		 sub	 esp, 288		; 00000120H
  00009	53		 push	 ebx
  0000a	56		 push	 esi
  0000b	57		 push	 edi
  0000c	8d bd e0 fe ff
	ff		 lea	 edi, DWORD PTR [ebp-288]
  00012	b9 48 00 00 00	 mov	 ecx, 72			; 00000048H
  00017	b8 cc cc cc cc	 mov	 eax, -858993460		; ccccccccH
  0001c	f3 ab		 rep stosd
  0001e	a1 00 00 00 00	 mov	 eax, DWORD PTR ___security_cookie
  00023	33 c5		 xor	 eax, ebp
  00025	89 45 fc	 mov	 DWORD PTR __$ArrayPad$[ebp], eax

; 25   : 	//int i,j; 
; 26   : 	int pictable[9] = { 100388,100841,101178,100854,101570,100353,101759,101424,101489 };

  00028	c7 45 d4 24 88
	01 00		 mov	 DWORD PTR _pictable$[ebp], 100388 ; 00018824H
  0002f	c7 45 d8 e9 89
	01 00		 mov	 DWORD PTR _pictable$[ebp+4], 100841 ; 000189e9H
  00036	c7 45 dc 3a 8b
	01 00		 mov	 DWORD PTR _pictable$[ebp+8], 101178 ; 00018b3aH
  0003d	c7 45 e0 f6 89
	01 00		 mov	 DWORD PTR _pictable$[ebp+12], 100854 ; 000189f6H
  00044	c7 45 e4 c2 8c
	01 00		 mov	 DWORD PTR _pictable$[ebp+16], 101570 ; 00018cc2H
  0004b	c7 45 e8 01 88
	01 00		 mov	 DWORD PTR _pictable$[ebp+20], 100353 ; 00018801H
  00052	c7 45 ec 7f 8d
	01 00		 mov	 DWORD PTR _pictable$[ebp+24], 101759 ; 00018d7fH
  00059	c7 45 f0 30 8c
	01 00		 mov	 DWORD PTR _pictable$[ebp+28], 101424 ; 00018c30H
  00060	c7 45 f4 71 8c
	01 00		 mov	 DWORD PTR _pictable$[ebp+32], 101489 ; 00018c71H

; 27   : 	if (a0->picture != 0) {

  00067	8b 45 08	 mov	 eax, DWORD PTR _a0$[ebp]
  0006a	83 b8 24 02 00
	00 00		 cmp	 DWORD PTR [eax+548], 0
  00071	0f 84 fe 01 00
	00		 je	 $LN1@picture_pl

; 28   : 		int picture1 = ((((a0->picture) & 0xff000000) >> 24) & 0x000000ff);

  00077	8b 45 08	 mov	 eax, DWORD PTR _a0$[ebp]
  0007a	8b 88 24 02 00
	00		 mov	 ecx, DWORD PTR [eax+548]
  00080	81 e1 00 00 00
	ff		 and	 ecx, -16777216		; ff000000H
  00086	c1 e9 18	 shr	 ecx, 24			; 00000018H
  00089	81 e1 ff 00 00
	00		 and	 ecx, 255		; 000000ffH
  0008f	89 4d c8	 mov	 DWORD PTR _picture1$4[ebp], ecx

; 29   : 		int picture2 = ((((a0->picture) & 0x00ff0000) >> 16) & 0x000000ff);

  00092	8b 45 08	 mov	 eax, DWORD PTR _a0$[ebp]
  00095	8b 88 24 02 00
	00		 mov	 ecx, DWORD PTR [eax+548]
  0009b	81 e1 00 00 ff
	00		 and	 ecx, 16711680		; 00ff0000H
  000a1	c1 f9 10	 sar	 ecx, 16			; 00000010H
  000a4	81 e1 ff 00 00
	00		 and	 ecx, 255		; 000000ffH
  000aa	89 4d bc	 mov	 DWORD PTR _picture2$3[ebp], ecx

; 30   : 		int picture3 = ((((a0->picture) & 0x0000ff00) >> 8) & 0x000000ff);

  000ad	8b 45 08	 mov	 eax, DWORD PTR _a0$[ebp]
  000b0	8b 88 24 02 00
	00		 mov	 ecx, DWORD PTR [eax+548]
  000b6	81 e1 00 ff 00
	00		 and	 ecx, 65280		; 0000ff00H
  000bc	c1 f9 08	 sar	 ecx, 8
  000bf	81 e1 ff 00 00
	00		 and	 ecx, 255		; 000000ffH
  000c5	89 4d b0	 mov	 DWORD PTR _picture3$2[ebp], ecx

; 31   : 		int picture4 = ((a0->picture) & 0x000000ff);

  000c8	8b 45 08	 mov	 eax, DWORD PTR _a0$[ebp]
  000cb	8b 88 24 02 00
	00		 mov	 ecx, DWORD PTR [eax+548]
  000d1	81 e1 ff 00 00
	00		 and	 ecx, 255		; 000000ffH
  000d7	89 4d a4	 mov	 DWORD PTR _picture4$1[ebp], ecx

; 32   : 		//a0->anim_no = ANIM_WALK;
; 33   : 		if (picture1 == 1) {//不断变身

  000da	83 7d c8 01	 cmp	 DWORD PTR _picture1$4[ebp], 1
  000de	0f 85 8a 00 00
	00		 jne	 $LN3@picture_pl

; 34   : 			if (a0->anim_chr_no == 101936) {

  000e4	8b 45 08	 mov	 eax, DWORD PTR _a0$[ebp]
  000e7	81 b8 44 01 00
	00 30 8e 01 00	 cmp	 DWORD PTR [eax+324], 101936 ; 00018e30H
  000f1	75 14		 jne	 SHORT $LN5@picture_pl

; 35   : 				a0->anim_chr_no = 101863;

  000f3	8b 45 08	 mov	 eax, DWORD PTR _a0$[ebp]
  000f6	c7 80 44 01 00
	00 e7 8d 01 00	 mov	 DWORD PTR [eax+324], 101863 ; 00018de7H

; 36   : 				return;

  00100	e9 70 01 00 00	 jmp	 $LN1@picture_pl
  00105	eb 34		 jmp	 SHORT $LN6@picture_pl
$LN5@picture_pl:

; 37   : 			}
; 38   : 			else if (a0->anim_chr_no == 101863) {

  00107	8b 45 08	 mov	 eax, DWORD PTR _a0$[ebp]
  0010a	81 b8 44 01 00
	00 e7 8d 01 00	 cmp	 DWORD PTR [eax+324], 101863 ; 00018de7H
  00114	75 18		 jne	 SHORT $LN7@picture_pl

; 39   : 				a0->anim_chr_no = pictable[a0->picturetemp];

  00116	8b 45 08	 mov	 eax, DWORD PTR _a0$[ebp]
  00119	8b 88 28 02 00
	00		 mov	 ecx, DWORD PTR [eax+552]
  0011f	8b 55 08	 mov	 edx, DWORD PTR _a0$[ebp]
  00122	8b 44 8d d4	 mov	 eax, DWORD PTR _pictable$[ebp+ecx*4]
  00126	89 82 44 01 00
	00		 mov	 DWORD PTR [edx+324], eax

; 40   : 			}
; 41   : 			else

  0012c	eb 0d		 jmp	 SHORT $LN6@picture_pl
$LN7@picture_pl:

; 42   : 				a0->anim_chr_no = 101863;

  0012e	8b 45 08	 mov	 eax, DWORD PTR _a0$[ebp]
  00131	c7 80 44 01 00
	00 e7 8d 01 00	 mov	 DWORD PTR [eax+324], 101863 ; 00018de7H
$LN6@picture_pl:

; 43   : 			++a0->picturetemp;

  0013b	8b 45 08	 mov	 eax, DWORD PTR _a0$[ebp]
  0013e	8b 88 28 02 00
	00		 mov	 ecx, DWORD PTR [eax+552]
  00144	83 c1 01	 add	 ecx, 1
  00147	8b 55 08	 mov	 edx, DWORD PTR _a0$[ebp]
  0014a	89 8a 28 02 00
	00		 mov	 DWORD PTR [edx+552], ecx

; 44   : 			if (a0->picturetemp == 9)

  00150	8b 45 08	 mov	 eax, DWORD PTR _a0$[ebp]
  00153	83 b8 28 02 00
	00 09		 cmp	 DWORD PTR [eax+552], 9
  0015a	75 0d		 jne	 SHORT $LN9@picture_pl

; 45   : 				a0->picturetemp = 0;

  0015c	8b 45 08	 mov	 eax, DWORD PTR _a0$[ebp]
  0015f	c7 80 28 02 00
	00 00 00 00 00	 mov	 DWORD PTR [eax+552], 0
$LN9@picture_pl:

; 46   : 		}

  00169	e9 07 01 00 00	 jmp	 $LN1@picture_pl
$LN3@picture_pl:

; 47   : 		else if (picture1 == 2) {//变身于某个图号

  0016e	83 7d c8 02	 cmp	 DWORD PTR _picture1$4[ebp], 2
  00172	0f 85 a0 00 00
	00		 jne	 $LN10@picture_pl

; 48   : 			if (a0->anim_chr_no != pictable[picture2]) {

  00178	8b 45 08	 mov	 eax, DWORD PTR _a0$[ebp]
  0017b	8b 4d bc	 mov	 ecx, DWORD PTR _picture2$3[ebp]
  0017e	8b 90 44 01 00
	00		 mov	 edx, DWORD PTR [eax+324]
  00184	3b 54 8d d4	 cmp	 edx, DWORD PTR _pictable$[ebp+ecx*4]
  00188	74 36		 je	 SHORT $LN12@picture_pl

; 49   : 				if (a0->anim_chr_no == 101863)

  0018a	8b 45 08	 mov	 eax, DWORD PTR _a0$[ebp]
  0018d	81 b8 44 01 00
	00 e7 8d 01 00	 cmp	 DWORD PTR [eax+324], 101863 ; 00018de7H
  00197	75 18		 jne	 SHORT $LN14@picture_pl

; 50   : 					a0->anim_chr_no = pictable[a0->picturetemp];

  00199	8b 45 08	 mov	 eax, DWORD PTR _a0$[ebp]
  0019c	8b 88 28 02 00
	00		 mov	 ecx, DWORD PTR [eax+552]
  001a2	8b 55 08	 mov	 edx, DWORD PTR _a0$[ebp]
  001a5	8b 44 8d d4	 mov	 eax, DWORD PTR _pictable$[ebp+ecx*4]
  001a9	89 82 44 01 00
	00		 mov	 DWORD PTR [edx+324], eax

; 51   : 				else

  001af	eb 0d		 jmp	 SHORT $LN15@picture_pl
$LN14@picture_pl:

; 52   : 					a0->anim_chr_no = 101863;

  001b1	8b 45 08	 mov	 eax, DWORD PTR _a0$[ebp]
  001b4	c7 80 44 01 00
	00 e7 8d 01 00	 mov	 DWORD PTR [eax+324], 101863 ; 00018de7H
$LN15@picture_pl:

; 53   : 			}
; 54   : 			else {

  001be	eb 28		 jmp	 SHORT $LN13@picture_pl
$LN12@picture_pl:

; 55   : 				if (a0->anim_no == 0)//设定动作

  001c0	8b 45 08	 mov	 eax, DWORD PTR _a0$[ebp]
  001c3	83 b8 4c 01 00
	00 00		 cmp	 DWORD PTR [eax+332], 0
  001ca	75 0f		 jne	 SHORT $LN16@picture_pl

; 56   : 					a0->anim_no = 3;

  001cc	8b 45 08	 mov	 eax, DWORD PTR _a0$[ebp]
  001cf	c7 80 4c 01 00
	00 03 00 00 00	 mov	 DWORD PTR [eax+332], 3

; 57   : 				else

  001d9	eb 0d		 jmp	 SHORT $LN13@picture_pl
$LN16@picture_pl:

; 58   : 					a0->anim_no = 0;

  001db	8b 45 08	 mov	 eax, DWORD PTR _a0$[ebp]
  001de	c7 80 4c 01 00
	00 00 00 00 00	 mov	 DWORD PTR [eax+332], 0
$LN13@picture_pl:

; 59   : 			}
; 60   : 			++a0->picturetemp;

  001e8	8b 45 08	 mov	 eax, DWORD PTR _a0$[ebp]
  001eb	8b 88 28 02 00
	00		 mov	 ecx, DWORD PTR [eax+552]
  001f1	83 c1 01	 add	 ecx, 1
  001f4	8b 55 08	 mov	 edx, DWORD PTR _a0$[ebp]
  001f7	89 8a 28 02 00
	00		 mov	 DWORD PTR [edx+552], ecx

; 61   : 			if (a0->picturetemp == 9)

  001fd	8b 45 08	 mov	 eax, DWORD PTR _a0$[ebp]
  00200	83 b8 28 02 00
	00 09		 cmp	 DWORD PTR [eax+552], 9
  00207	75 0d		 jne	 SHORT $LN18@picture_pl

; 62   : 				a0->picturetemp = 0;

  00209	8b 45 08	 mov	 eax, DWORD PTR _a0$[ebp]
  0020c	c7 80 28 02 00
	00 00 00 00 00	 mov	 DWORD PTR [eax+552], 0
$LN18@picture_pl:

; 63   : 		}

  00216	eb 5d		 jmp	 SHORT $LN1@picture_pl
$LN10@picture_pl:

; 64   : 		else if (picture1 == 3) {

  00218	83 7d c8 03	 cmp	 DWORD PTR _picture1$4[ebp], 3
  0021c	75 57		 jne	 SHORT $LN1@picture_pl

; 65   : 			if (g_bUseAlpha) a0->anim_chr_no = 101805; else a0->anim_chr_no = 101858;

  0021e	83 3d 00 00 00
	00 00		 cmp	 DWORD PTR ?g_bUseAlpha@@3HA, 0 ; g_bUseAlpha
  00225	74 0f		 je	 SHORT $LN20@picture_pl
  00227	8b 45 08	 mov	 eax, DWORD PTR _a0$[ebp]
  0022a	c7 80 44 01 00
	00 ad 8d 01 00	 mov	 DWORD PTR [eax+324], 101805 ; 00018dadH
  00234	eb 0d		 jmp	 SHORT $LN21@picture_pl
$LN20@picture_pl:
  00236	8b 45 08	 mov	 eax, DWORD PTR _a0$[ebp]
  00239	c7 80 44 01 00
	00 e2 8d 01 00	 mov	 DWORD PTR [eax+324], 101858 ; 00018de2H
$LN21@picture_pl:

; 66   : 			a0->picture = (((1) << 24) & 0xff000000)

  00243	8b 45 bc	 mov	 eax, DWORD PTR _picture2$3[ebp]
  00246	c1 e0 10	 shl	 eax, 16			; 00000010H
  00249	25 00 00 ff 00	 and	 eax, 16711680		; 00ff0000H
  0024e	0d 00 00 00 01	 or	 eax, 16777216		; 01000000H
  00253	8b 4d b0	 mov	 ecx, DWORD PTR _picture3$2[ebp]
  00256	c1 e1 08	 shl	 ecx, 8
  00259	81 e1 00 ff 00
	00		 and	 ecx, 65280		; 0000ff00H
  0025f	0b c1		 or	 eax, ecx
  00261	8b 55 a4	 mov	 edx, DWORD PTR _picture4$1[ebp]
  00264	81 e2 ff 00 00
	00		 and	 edx, 255		; 000000ffH
  0026a	0b c2		 or	 eax, edx
  0026c	8b 4d 08	 mov	 ecx, DWORD PTR _a0$[ebp]
  0026f	89 81 24 02 00
	00		 mov	 DWORD PTR [ecx+548], eax
$LN1@picture_pl:

; 67   : 				| (((picture2) << 16) & 0x00ff0000)
; 68   : 				| (((picture3) << 8) & 0x0000ff00)
; 69   : 				| ((picture4) & 0x000000ff);
; 70   : 		}
; 71   : 
; 72   : 	}
; 73   : }

  00275	52		 push	 edx
  00276	8b cd		 mov	 ecx, ebp
  00278	50		 push	 eax
  00279	8d 15 00 00 00
	00		 lea	 edx, DWORD PTR $LN25@picture_pl
  0027f	e8 00 00 00 00	 call	 @_RTC_CheckStackVars@8
  00284	58		 pop	 eax
  00285	5a		 pop	 edx
  00286	5f		 pop	 edi
  00287	5e		 pop	 esi
  00288	5b		 pop	 ebx
  00289	8b 4d fc	 mov	 ecx, DWORD PTR __$ArrayPad$[ebp]
  0028c	33 cd		 xor	 ecx, ebp
  0028e	e8 00 00 00 00	 call	 @__security_check_cookie@4
  00293	8b e5		 mov	 esp, ebp
  00295	5d		 pop	 ebp
  00296	c3		 ret	 0
  00297	90		 npad	 1
$LN25@picture_pl:
  00298	01 00 00 00	 DD	 1
  0029c	00 00 00 00	 DD	 $LN24@picture_pl
$LN24@picture_pl:
  002a0	d4 ff ff ff	 DD	 -44			; ffffffd4H
  002a4	24 00 00 00	 DD	 36			; 00000024H
  002a8	00 00 00 00	 DD	 $LN23@picture_pl
$LN23@picture_pl:
  002ac	70		 DB	 112			; 00000070H
  002ad	69		 DB	 105			; 00000069H
  002ae	63		 DB	 99			; 00000063H
  002af	74		 DB	 116			; 00000074H
  002b0	61		 DB	 97			; 00000061H
  002b1	62		 DB	 98			; 00000062H
  002b2	6c		 DB	 108			; 0000006cH
  002b3	65		 DB	 101			; 00000065H
  002b4	00		 DB	 0
?picture_play@@YAXPAUaction@@@Z ENDP			; picture_play
_TEXT	ENDS
; Function compile flags: /Odtp /RTCsu /ZI
; File c:\users\administrator\desktop\????? ??\????? ??\client source code\system\pattern.cpp
;	COMDAT ?pattern@@YAHPAUaction@@HH@Z
_TEXT	SEGMENT
tv304 = -352						; size = 4
_soundnum$1 = -152					; size = 4
_pictable$2 = -140					; size = 36
_sh_i$3 = -96						; size = 4
_chrNo$ = -84						; size = 4
_BmpNo$ = -72						; size = 4
_dy$ = -60						; size = 2
_dx$ = -48						; size = 2
_i$ = -36						; size = 4
_ptFramelist$ = -24					; size = 4
_ptAnimlist$ = -12					; size = 4
__$ArrayPad$ = -4					; size = 4
_a0$ = 8						; size = 4
_anim_spd$ = 12						; size = 4
_loop_flg$ = 16						; size = 4
?pattern@@YAHPAUaction@@HH@Z PROC			; pattern, COMDAT

; 80   : {

  00000	55		 push	 ebp
  00001	8b ec		 mov	 ebp, esp
  00003	81 ec 60 01 00
	00		 sub	 esp, 352		; 00000160H
  00009	53		 push	 ebx
  0000a	56		 push	 esi
  0000b	57		 push	 edi
  0000c	8d bd a0 fe ff
	ff		 lea	 edi, DWORD PTR [ebp-352]
  00012	b9 58 00 00 00	 mov	 ecx, 88			; 00000058H
  00017	b8 cc cc cc cc	 mov	 eax, -858993460		; ccccccccH
  0001c	f3 ab		 rep stosd
  0001e	a1 00 00 00 00	 mov	 eax, DWORD PTR ___security_cookie
  00023	33 c5		 xor	 eax, ebp
  00025	89 45 fc	 mov	 DWORD PTR __$ArrayPad$[ebp], eax

; 81   : 	ANIMLIST	*ptAnimlist;
; 82   : 	FRAMELIST	*ptFramelist;
; 83   : 	int i;
; 84   : 	short dx, dy;
; 85   : 	int BmpNo;
; 86   : 	U4 chrNo;
; 87   : 	extern int getCharType(ACTION *ptAct);
; 88   : 	if (getCharType(a0)) {

  00028	8b 45 08	 mov	 eax, DWORD PTR _a0$[ebp]
  0002b	50		 push	 eax
  0002c	e8 00 00 00 00	 call	 ?getCharType@@YAHPAUaction@@@Z ; getCharType
  00031	83 c4 04	 add	 esp, 4
  00034	85 c0		 test	 eax, eax
  00036	74 34		 je	 SHORT $LN10@pattern

; 89   : 		if (ATR_PAT_NO(a0)) {

  00038	8b 45 08	 mov	 eax, DWORD PTR _a0$[ebp]
  0003b	83 b8 9c 00 00
	00 00		 cmp	 DWORD PTR [eax+156], 0
  00042	74 1f		 je	 SHORT $LN12@pattern

; 90   : 			ATR_PAT_BAK_NO(a0) = ATR_PAT_NO(a0);

  00044	8b 45 08	 mov	 eax, DWORD PTR _a0$[ebp]
  00047	8b 4d 08	 mov	 ecx, DWORD PTR _a0$[ebp]
  0004a	8b 91 9c 00 00
	00		 mov	 edx, DWORD PTR [ecx+156]
  00050	89 90 a0 00 00
	00		 mov	 DWORD PTR [eax+160], edx

; 91   : 			ATR_PAT_NO(a0) = 0;

  00056	8b 45 08	 mov	 eax, DWORD PTR _a0$[ebp]
  00059	c7 80 9c 00 00
	00 00 00 00 00	 mov	 DWORD PTR [eax+156], 0
$LN12@pattern:

; 92   : 		}
; 93   : 		return 0;

  00063	33 c0		 xor	 eax, eax
  00065	e9 78 07 00 00	 jmp	 $LN1@pattern

; 94   : 	}
; 95   : 	else {

  0006a	eb 2a		 jmp	 SHORT $LN11@pattern
$LN10@pattern:

; 96   : 		if (!ATR_PAT_NO(a0) && ATR_PAT_BAK_NO(a0)) ATR_PAT_NO(a0) = ATR_PAT_BAK_NO(a0);

  0006c	8b 45 08	 mov	 eax, DWORD PTR _a0$[ebp]
  0006f	83 b8 9c 00 00
	00 00		 cmp	 DWORD PTR [eax+156], 0
  00076	75 1e		 jne	 SHORT $LN11@pattern
  00078	8b 45 08	 mov	 eax, DWORD PTR _a0$[ebp]
  0007b	83 b8 a0 00 00
	00 00		 cmp	 DWORD PTR [eax+160], 0
  00082	74 12		 je	 SHORT $LN11@pattern
  00084	8b 45 08	 mov	 eax, DWORD PTR _a0$[ebp]
  00087	8b 4d 08	 mov	 ecx, DWORD PTR _a0$[ebp]
  0008a	8b 91 a0 00 00
	00		 mov	 edx, DWORD PTR [ecx+160]
  00090	89 90 9c 00 00
	00		 mov	 DWORD PTR [eax+156], edx
$LN11@pattern:

; 97   : 	}
; 98   : 	if (ATR_CHR_ACT_OLD(a0) != ATR_CHR_ACT(a0) ||
; 99   : 		ATR_CHR_ANG(a0) != ATR_CHR_ANG_OLD(a0) ||

  00096	8b 45 08	 mov	 eax, DWORD PTR _a0$[ebp]
  00099	8b 4d 08	 mov	 ecx, DWORD PTR _a0$[ebp]
  0009c	8b 90 50 01 00
	00		 mov	 edx, DWORD PTR [eax+336]
  000a2	3b 91 4c 01 00
	00		 cmp	 edx, DWORD PTR [ecx+332]
  000a8	75 28		 jne	 SHORT $LN15@pattern
  000aa	8b 45 08	 mov	 eax, DWORD PTR _a0$[ebp]
  000ad	8b 4d 08	 mov	 ecx, DWORD PTR _a0$[ebp]
  000b0	8b 90 54 01 00
	00		 mov	 edx, DWORD PTR [eax+340]
  000b6	3b 91 58 01 00
	00		 cmp	 edx, DWORD PTR [ecx+344]
  000bc	75 14		 jne	 SHORT $LN15@pattern
  000be	8b 45 08	 mov	 eax, DWORD PTR _a0$[ebp]
  000c1	8b 4d 08	 mov	 ecx, DWORD PTR _a0$[ebp]
  000c4	8b 90 44 01 00
	00		 mov	 edx, DWORD PTR [eax+324]
  000ca	3b 91 48 01 00
	00		 cmp	 edx, DWORD PTR [ecx+328]
  000d0	74 50		 je	 SHORT $LN14@pattern
$LN15@pattern:

; 100  : 		ATR_CHR_NO(a0) != ATR_CHR_NO_OLD(a0)) {
; 101  : 		ATR_CHR_NO_OLD(a0) = ATR_CHR_NO(a0);		/*????????????*/

  000d2	8b 45 08	 mov	 eax, DWORD PTR _a0$[ebp]
  000d5	8b 4d 08	 mov	 ecx, DWORD PTR _a0$[ebp]
  000d8	8b 91 44 01 00
	00		 mov	 edx, DWORD PTR [ecx+324]
  000de	89 90 48 01 00
	00		 mov	 DWORD PTR [eax+328], edx

; 102  : 		ATR_CHR_ACT_OLD(a0) = ATR_CHR_ACT(a0);		/*??h????*/

  000e4	8b 45 08	 mov	 eax, DWORD PTR _a0$[ebp]
  000e7	8b 4d 08	 mov	 ecx, DWORD PTR _a0$[ebp]
  000ea	8b 91 4c 01 00
	00		 mov	 edx, DWORD PTR [ecx+332]
  000f0	89 90 50 01 00
	00		 mov	 DWORD PTR [eax+336], edx

; 103  : 		ATR_CHR_ANG_OLD(a0) = ATR_CHR_ANG(a0);		/*???????*/

  000f6	8b 45 08	 mov	 eax, DWORD PTR _a0$[ebp]
  000f9	8b 4d 08	 mov	 ecx, DWORD PTR _a0$[ebp]
  000fc	8b 91 54 01 00
	00		 mov	 edx, DWORD PTR [ecx+340]
  00102	89 90 58 01 00
	00		 mov	 DWORD PTR [eax+344], edx

; 104  : 		ATR_CHR_TIM(a0) = 0;//frame counter设为一

  00108	8b 45 08	 mov	 eax, DWORD PTR _a0$[ebp]
  0010b	c7 80 60 01 00
	00 00 00 00 00	 mov	 DWORD PTR [eax+352], 0

; 105  : 		ATR_CHR_CNT(a0) = 0;//这个动画的第几张图

  00115	8b 45 08	 mov	 eax, DWORD PTR _a0$[ebp]
  00118	c7 80 5c 01 00
	00 00 00 00 00	 mov	 DWORD PTR [eax+348], 0
$LN14@pattern:

; 106  : 	}
; 107  : 	if (ATR_CHR_TIM(a0)) {

  00122	8b 45 08	 mov	 eax, DWORD PTR _a0$[ebp]
  00125	83 b8 60 01 00
	00 00		 cmp	 DWORD PTR [eax+352], 0
  0012c	74 1c		 je	 SHORT $LN16@pattern

; 108  : 		ATR_CHR_TIM(a0)--;	//frame counter减一

  0012e	8b 45 08	 mov	 eax, DWORD PTR _a0$[ebp]
  00131	8b 88 60 01 00
	00		 mov	 ecx, DWORD PTR [eax+352]
  00137	83 e9 01	 sub	 ecx, 1
  0013a	8b 55 08	 mov	 edx, DWORD PTR _a0$[ebp]
  0013d	89 8a 60 01 00
	00		 mov	 DWORD PTR [edx+352], ecx

; 109  : 		return 0;

  00143	33 c0		 xor	 eax, eax
  00145	e9 98 06 00 00	 jmp	 $LN1@pattern
$LN16@pattern:

; 110  : 	}
; 111  : 	if (ATR_CHR_NO(a0) <= CG_INVISIBLE) {

  0014a	8b 45 08	 mov	 eax, DWORD PTR _a0$[ebp]
  0014d	83 b8 44 01 00
	00 63		 cmp	 DWORD PTR [eax+324], 99	; 00000063H
  00154	7f 20		 jg	 SHORT $LN17@pattern

; 112  : 		ATR_PAT_NO(a0) = 0;	//指定为第0张图

  00156	8b 45 08	 mov	 eax, DWORD PTR _a0$[ebp]
  00159	c7 80 9c 00 00
	00 00 00 00 00	 mov	 DWORD PTR [eax+156], 0

; 113  : #ifdef _NPC_PICTURE
; 114  : 		picture_play(a0);

  00163	8b 45 08	 mov	 eax, DWORD PTR _a0$[ebp]
  00166	50		 push	 eax
  00167	e8 00 00 00 00	 call	 ?picture_play@@YAXPAUaction@@@Z ; picture_play
  0016c	83 c4 04	 add	 esp, 4

; 115  : #endif
; 116  : 		return 0;

  0016f	33 c0		 xor	 eax, eax
  00171	e9 6c 06 00 00	 jmp	 $LN1@pattern
$LN17@pattern:

; 117  : 	}
; 118  : 	if (ATR_CHR_NO(a0) < SPRSTART) {	//不是sprite

  00176	8b 45 08	 mov	 eax, DWORD PTR _a0$[ebp]
  00179	81 b8 44 01 00
	00 a0 86 01 00	 cmp	 DWORD PTR [eax+324], 100000 ; 000186a0H
  00183	0f 8d f8 00 00
	00		 jge	 $LN18@pattern

; 119  : 		realGetNo(ATR_CHR_NO(a0), (U4 *)&BmpNo);

  00189	8d 45 b8	 lea	 eax, DWORD PTR _BmpNo$[ebp]
  0018c	50		 push	 eax
  0018d	8b 4d 08	 mov	 ecx, DWORD PTR _a0$[ebp]
  00190	8b 91 44 01 00
	00		 mov	 edx, DWORD PTR [ecx+324]
  00196	52		 push	 edx
  00197	e8 00 00 00 00	 call	 ?realGetNo@@YAHKPAK@Z	; realGetNo
  0019c	83 c4 08	 add	 esp, 8

; 120  : 		realGetPos(BmpNo, &dx, &dy);

  0019f	8d 45 c4	 lea	 eax, DWORD PTR _dy$[ebp]
  001a2	50		 push	 eax
  001a3	8d 4d d0	 lea	 ecx, DWORD PTR _dx$[ebp]
  001a6	51		 push	 ecx
  001a7	8b 55 b8	 mov	 edx, DWORD PTR _BmpNo$[ebp]
  001aa	52		 push	 edx
  001ab	e8 00 00 00 00	 call	 ?realGetPos@@YAHKPAF0@Z	; realGetPos
  001b0	83 c4 0c	 add	 esp, 12			; 0000000cH

; 121  : 		ATR_PAT_NO(a0) = BmpNo;		//BMP的图档编号

  001b3	8b 45 08	 mov	 eax, DWORD PTR _a0$[ebp]
  001b6	8b 4d b8	 mov	 ecx, DWORD PTR _BmpNo$[ebp]
  001b9	89 88 9c 00 00
	00		 mov	 DWORD PTR [eax+156], ecx

; 122  : #ifdef _FIX_CG_ATR_ICON
; 123  : 		if (ATR_CHR_NO(a0) >= CG_ATR_ICON_EARTH_BATTLE && ATR_CHR_NO(a0) <= CG_ATR_ICON_WIND_BATTLE) {
; 124  : 			ATR_CHR_H_POS(a0) = dx - 20;		//X座标
; 125  : 		}
; 126  : 		else {
; 127  : 			ATR_CHR_H_POS(a0) = dx;		//X座标
; 128  : 		}
; 129  : #else
; 130  : 		ATR_CHR_H_POS(a0) = dx;		//X座标

  001bf	0f bf 45 d0	 movsx	 eax, WORD PTR _dx$[ebp]
  001c3	8b 4d 08	 mov	 ecx, DWORD PTR _a0$[ebp]
  001c6	89 81 64 01 00
	00		 mov	 DWORD PTR [ecx+356], eax

; 131  : #endif
; 132  : 		ATR_CHR_V_POS(a0) = dy;		//Y座标

  001cc	0f bf 45 c4	 movsx	 eax, WORD PTR _dy$[ebp]
  001d0	8b 4d 08	 mov	 ecx, DWORD PTR _a0$[ebp]
  001d3	89 81 68 01 00
	00		 mov	 DWORD PTR [ecx+360], eax

; 133  : 		ATR_CHR_TIM(a0) = 0x7fffffff;

  001d9	8b 45 08	 mov	 eax, DWORD PTR _a0$[ebp]
  001dc	c7 80 60 01 00
	00 ff ff ff 7f	 mov	 DWORD PTR [eax+352], 2147483647 ; 7fffffffH

; 134  : 		//cary 
; 135  : 		if (ATR_CHR_ACT(a0) == ANIM_ATTACK && ATR_CHR_CNT(a0) == 0) {

  001e6	8b 45 08	 mov	 eax, DWORD PTR _a0$[ebp]
  001e9	83 b8 4c 01 00
	00 00		 cmp	 DWORD PTR [eax+332], 0
  001f0	75 46		 jne	 SHORT $LN19@pattern
  001f2	8b 45 08	 mov	 eax, DWORD PTR _a0$[ebp]
  001f5	83 b8 5c 01 00
	00 00		 cmp	 DWORD PTR [eax+348], 0
  001fc	75 3a		 jne	 SHORT $LN19@pattern

; 136  : 			ATR_CHR_TIM(a0) = 0;

  001fe	8b 45 08	 mov	 eax, DWORD PTR _a0$[ebp]
  00201	c7 80 60 01 00
	00 00 00 00 00	 mov	 DWORD PTR [eax+352], 0

; 137  : 			ATR_HIT(a0) = 10000;

  0020b	8b 45 08	 mov	 eax, DWORD PTR _a0$[ebp]
  0020e	c7 80 6c 01 00
	00 10 27 00 00	 mov	 DWORD PTR [eax+364], 10000 ; 00002710H

; 138  : 			ATR_CHR_CNT(a0) = 1;

  00218	8b 45 08	 mov	 eax, DWORD PTR _a0$[ebp]
  0021b	c7 80 5c 01 00
	00 01 00 00 00	 mov	 DWORD PTR [eax+348], 1

; 139  : #ifdef _NPC_PICTURE
; 140  : 			picture_play(a0);

  00225	8b 45 08	 mov	 eax, DWORD PTR _a0$[ebp]
  00228	50		 push	 eax
  00229	e8 00 00 00 00	 call	 ?picture_play@@YAXPAUaction@@@Z ; picture_play
  0022e	83 c4 04	 add	 esp, 4

; 141  : #endif
; 142  : 			return 0;

  00231	33 c0		 xor	 eax, eax
  00233	e9 aa 05 00 00	 jmp	 $LN1@pattern
$LN19@pattern:

; 143  : 		}
; 144  : 		ATR_CHR_CNT(a0) = 0;

  00238	8b 45 08	 mov	 eax, DWORD PTR _a0$[ebp]
  0023b	c7 80 5c 01 00
	00 00 00 00 00	 mov	 DWORD PTR [eax+348], 0

; 145  : 		ATR_CHR_ACT(a0) = ANIM_STAND;

  00245	8b 45 08	 mov	 eax, DWORD PTR _a0$[ebp]
  00248	c7 80 4c 01 00
	00 03 00 00 00	 mov	 DWORD PTR [eax+332], 3

; 146  : 		if (loop_flg == ANM_NO_LOOP) {

  00252	83 7d 10 01	 cmp	 DWORD PTR _loop_flg$[ebp], 1
  00256	75 16		 jne	 SHORT $LN20@pattern

; 147  : #ifdef _NPC_PICTURE
; 148  : 			picture_play(a0);

  00258	8b 45 08	 mov	 eax, DWORD PTR _a0$[ebp]
  0025b	50		 push	 eax
  0025c	e8 00 00 00 00	 call	 ?picture_play@@YAXPAUaction@@@Z ; picture_play
  00261	83 c4 04	 add	 esp, 4

; 149  : #endif
; 150  : 			return 1;

  00264	b8 01 00 00 00	 mov	 eax, 1
  00269	e9 74 05 00 00	 jmp	 $LN1@pattern
$LN20@pattern:

; 151  : 		}
; 152  : 		//cary end
; 153  : #ifdef _NPC_PICTURE
; 154  : 		picture_play(a0);

  0026e	8b 45 08	 mov	 eax, DWORD PTR _a0$[ebp]
  00271	50		 push	 eax
  00272	e8 00 00 00 00	 call	 ?picture_play@@YAXPAUaction@@@Z ; picture_play
  00277	83 c4 04	 add	 esp, 4

; 155  : #endif
; 156  : 		return 0;

  0027a	33 c0		 xor	 eax, eax
  0027c	e9 61 05 00 00	 jmp	 $LN1@pattern
$LN18@pattern:

; 157  : 	}
; 158  : 	if (ATR_CHR_NO(a0) > SPRSTART + mxSPRITE) {

  00281	8b 45 08	 mov	 eax, DWORD PTR _a0$[ebp]
  00284	81 b8 44 01 00
	00 e0 22 02 00	 cmp	 DWORD PTR [eax+324], 140000 ; 000222e0H
  0028e	7e 13		 jle	 SHORT $LN21@pattern

; 159  : #ifdef _NPC_PICTURE
; 160  : 		picture_play(a0);

  00290	8b 45 08	 mov	 eax, DWORD PTR _a0$[ebp]
  00293	50		 push	 eax
  00294	e8 00 00 00 00	 call	 ?picture_play@@YAXPAUaction@@@Z ; picture_play
  00299	83 c4 04	 add	 esp, 4

; 161  : #endif
; 162  : 		return 0;		//超出sprite的范围

  0029c	33 c0		 xor	 eax, eax
  0029e	e9 3f 05 00 00	 jmp	 $LN1@pattern
$LN21@pattern:

; 163  : 	}
; 164  : 	chrNo = ATR_CHR_NO(a0) - SPRSTART;

  002a3	8b 45 08	 mov	 eax, DWORD PTR _a0$[ebp]
  002a6	8b 88 44 01 00
	00		 mov	 ecx, DWORD PTR [eax+324]
  002ac	81 e9 a0 86 01
	00		 sub	 ecx, 100000		; 000186a0H
  002b2	89 4d ac	 mov	 DWORD PTR _chrNo$[ebp], ecx

; 165  : 
; 166  : #ifdef _NB_Fix无动画补丁
; 167  : 	if (SpriteData[chrNo].animSize == 0) {

  002b5	8b 45 ac	 mov	 eax, DWORD PTR _chrNo$[ebp]
  002b8	0f b7 0c c5 00
	00 00 00	 movzx	 ecx, WORD PTR ?SpriteData@@3PAUSPRITEDATA@@A[eax*8]
  002c0	85 c9		 test	 ecx, ecx
  002c2	75 1f		 jne	 SHORT $LN22@pattern

; 168  : 		ATR_CHR_NO(a0) = 100000;

  002c4	8b 45 08	 mov	 eax, DWORD PTR _a0$[ebp]
  002c7	c7 80 44 01 00
	00 a0 86 01 00	 mov	 DWORD PTR [eax+324], 100000 ; 000186a0H

; 169  : 		chrNo = ATR_CHR_NO(a0) - SPRSTART;

  002d1	8b 45 08	 mov	 eax, DWORD PTR _a0$[ebp]
  002d4	8b 88 44 01 00
	00		 mov	 ecx, DWORD PTR [eax+324]
  002da	81 e9 a0 86 01
	00		 sub	 ecx, 100000		; 000186a0H
  002e0	89 4d ac	 mov	 DWORD PTR _chrNo$[ebp], ecx
$LN22@pattern:

; 170  : 	}
; 171  : #endif
; 172  : 	ptAnimlist = SpriteData[chrNo].ptAnimlist;

  002e3	8b 45 ac	 mov	 eax, DWORD PTR _chrNo$[ebp]
  002e6	8b 0c c5 04 00
	00 00		 mov	 ecx, DWORD PTR ?SpriteData@@3PAUSPRITEDATA@@A[eax*8+4]
  002ed	89 4d f4	 mov	 DWORD PTR _ptAnimlist$[ebp], ecx

; 173  : 	if (SpriteData[chrNo].animSize == 0) {

  002f0	8b 45 ac	 mov	 eax, DWORD PTR _chrNo$[ebp]
  002f3	0f b7 0c c5 00
	00 00 00	 movzx	 ecx, WORD PTR ?SpriteData@@3PAUSPRITEDATA@@A[eax*8]
  002fb	85 c9		 test	 ecx, ecx
  002fd	75 13		 jne	 SHORT $LN23@pattern

; 174  : #ifdef _NPC_PICTURE
; 175  : 		picture_play(a0);

  002ff	8b 45 08	 mov	 eax, DWORD PTR _a0$[ebp]
  00302	50		 push	 eax
  00303	e8 00 00 00 00	 call	 ?picture_play@@YAXPAUaction@@@Z ; picture_play
  00308	83 c4 04	 add	 esp, 4

; 176  : #endif
; 177  : 		return 0;	//无动画

  0030b	33 c0		 xor	 eax, eax
  0030d	e9 d0 04 00 00	 jmp	 $LN1@pattern
$LN23@pattern:

; 178  : 	}
; 179  : 	//选择想要的方向和动画
; 180  : 	for (i = 0; i < SpriteData[chrNo].animSize; i++) {

  00312	c7 45 dc 00 00
	00 00		 mov	 DWORD PTR _i$[ebp], 0
  00319	eb 09		 jmp	 SHORT $LN4@pattern
$LN2@pattern:
  0031b	8b 45 dc	 mov	 eax, DWORD PTR _i$[ebp]
  0031e	83 c0 01	 add	 eax, 1
  00321	89 45 dc	 mov	 DWORD PTR _i$[ebp], eax
$LN4@pattern:
  00324	8b 45 ac	 mov	 eax, DWORD PTR _chrNo$[ebp]
  00327	0f b7 0c c5 00
	00 00 00	 movzx	 ecx, WORD PTR ?SpriteData@@3PAUSPRITEDATA@@A[eax*8]
  0032f	39 4d dc	 cmp	 DWORD PTR _i$[ebp], ecx
  00332	7d 35		 jge	 SHORT $LN3@pattern

; 181  : 		if (ATR_CHR_ANG(a0) == ptAnimlist[i].dir && ptAnimlist[i].no == ATR_CHR_ACT(a0))

  00334	8b 45 dc	 mov	 eax, DWORD PTR _i$[ebp]
  00337	c1 e0 04	 shl	 eax, 4
  0033a	8b 4d f4	 mov	 ecx, DWORD PTR _ptAnimlist$[ebp]
  0033d	0f b7 14 01	 movzx	 edx, WORD PTR [ecx+eax]
  00341	8b 45 08	 mov	 eax, DWORD PTR _a0$[ebp]
  00344	39 90 54 01 00
	00		 cmp	 DWORD PTR [eax+340], edx
  0034a	75 1b		 jne	 SHORT $LN24@pattern
  0034c	8b 45 dc	 mov	 eax, DWORD PTR _i$[ebp]
  0034f	c1 e0 04	 shl	 eax, 4
  00352	8b 4d f4	 mov	 ecx, DWORD PTR _ptAnimlist$[ebp]
  00355	0f b7 54 01 02	 movzx	 edx, WORD PTR [ecx+eax+2]
  0035a	8b 45 08	 mov	 eax, DWORD PTR _a0$[ebp]
  0035d	3b 90 4c 01 00
	00		 cmp	 edx, DWORD PTR [eax+332]
  00363	75 02		 jne	 SHORT $LN24@pattern

; 182  : 			break;

  00365	eb 02		 jmp	 SHORT $LN3@pattern
$LN24@pattern:

; 183  : 	}

  00367	eb b2		 jmp	 SHORT $LN2@pattern
$LN3@pattern:

; 184  : 	if (i >= SpriteData[chrNo].animSize) {

  00369	8b 45 ac	 mov	 eax, DWORD PTR _chrNo$[ebp]
  0036c	0f b7 0c c5 00
	00 00 00	 movzx	 ecx, WORD PTR ?SpriteData@@3PAUSPRITEDATA@@A[eax*8]
  00374	39 4d dc	 cmp	 DWORD PTR _i$[ebp], ecx
  00377	7c 60		 jl	 SHORT $LN25@pattern

; 185  : 		// shan remark
; 186  : 		// i = 0;		
; 187  : 		for (int sh_i = 0; sh_i < SpriteData[chrNo].animSize; sh_i++) {

  00379	c7 45 a0 00 00
	00 00		 mov	 DWORD PTR _sh_i$3[ebp], 0
  00380	eb 09		 jmp	 SHORT $LN7@pattern
$LN5@pattern:
  00382	8b 45 a0	 mov	 eax, DWORD PTR _sh_i$3[ebp]
  00385	83 c0 01	 add	 eax, 1
  00388	89 45 a0	 mov	 DWORD PTR _sh_i$3[ebp], eax
$LN7@pattern:
  0038b	8b 45 ac	 mov	 eax, DWORD PTR _chrNo$[ebp]
  0038e	0f b7 0c c5 00
	00 00 00	 movzx	 ecx, WORD PTR ?SpriteData@@3PAUSPRITEDATA@@A[eax*8]
  00396	39 4d a0	 cmp	 DWORD PTR _sh_i$3[ebp], ecx
  00399	7d 3e		 jge	 SHORT $LN25@pattern

; 188  : 			if (ATR_CHR_ANG(a0) == ptAnimlist[sh_i].dir && ptAnimlist[sh_i].no == ANIM_STAND) {

  0039b	8b 45 a0	 mov	 eax, DWORD PTR _sh_i$3[ebp]
  0039e	c1 e0 04	 shl	 eax, 4
  003a1	8b 4d f4	 mov	 ecx, DWORD PTR _ptAnimlist$[ebp]
  003a4	0f b7 14 01	 movzx	 edx, WORD PTR [ecx+eax]
  003a8	8b 45 08	 mov	 eax, DWORD PTR _a0$[ebp]
  003ab	39 90 54 01 00
	00		 cmp	 DWORD PTR [eax+340], edx
  003b1	75 1d		 jne	 SHORT $LN26@pattern
  003b3	8b 45 a0	 mov	 eax, DWORD PTR _sh_i$3[ebp]
  003b6	c1 e0 04	 shl	 eax, 4
  003b9	8b 4d f4	 mov	 ecx, DWORD PTR _ptAnimlist$[ebp]
  003bc	0f b7 54 01 02	 movzx	 edx, WORD PTR [ecx+eax+2]
  003c1	83 fa 03	 cmp	 edx, 3
  003c4	75 0a		 jne	 SHORT $LN26@pattern

; 189  : 				i = sh_i;

  003c6	8b 45 a0	 mov	 eax, DWORD PTR _sh_i$3[ebp]
  003c9	89 45 dc	 mov	 DWORD PTR _i$[ebp], eax

; 190  : 				break;

  003cc	eb 0b		 jmp	 SHORT $LN25@pattern

; 191  : 			}
; 192  : 			else {

  003ce	eb 07		 jmp	 SHORT $LN27@pattern
$LN26@pattern:

; 193  : 				i = 0;

  003d0	c7 45 dc 00 00
	00 00		 mov	 DWORD PTR _i$[ebp], 0
$LN27@pattern:

; 194  : 			}
; 195  : 		}

  003d7	eb a9		 jmp	 SHORT $LN5@pattern
$LN25@pattern:

; 196  : 	}
; 197  : 	ptFramelist = ptAnimlist[i].ptFramelist;

  003d9	8b 45 dc	 mov	 eax, DWORD PTR _i$[ebp]
  003dc	c1 e0 04	 shl	 eax, 4
  003df	8b 4d f4	 mov	 ecx, DWORD PTR _ptAnimlist$[ebp]
  003e2	8b 54 01 0c	 mov	 edx, DWORD PTR [ecx+eax+12]
  003e6	89 55 e8	 mov	 DWORD PTR _ptFramelist$[ebp], edx

; 198  : 	if (anim_spd)	//有指定动画速度

  003e9	83 7d 0c 00	 cmp	 DWORD PTR _anim_spd$[ebp], 0
  003ed	74 0e		 je	 SHORT $LN28@pattern

; 199  : 		ATR_CHR_TIM(a0) = anim_spd;

  003ef	8b 45 08	 mov	 eax, DWORD PTR _a0$[ebp]
  003f2	8b 4d 0c	 mov	 ecx, DWORD PTR _anim_spd$[ebp]
  003f5	89 88 60 01 00
	00		 mov	 DWORD PTR [eax+352], ecx

; 200  : 	else

  003fb	eb 16		 jmp	 SHORT $LN29@pattern
$LN28@pattern:

; 201  : 		ATR_CHR_TIM(a0) = ptAnimlist[i].dtAnim;

  003fd	8b 45 dc	 mov	 eax, DWORD PTR _i$[ebp]
  00400	c1 e0 04	 shl	 eax, 4
  00403	8b 4d 08	 mov	 ecx, DWORD PTR _a0$[ebp]
  00406	8b 55 f4	 mov	 edx, DWORD PTR _ptAnimlist$[ebp]
  00409	8b 44 02 04	 mov	 eax, DWORD PTR [edx+eax+4]
  0040d	89 81 60 01 00
	00		 mov	 DWORD PTR [ecx+352], eax
$LN29@pattern:

; 202  : #ifdef _NPC_PICTURE	
; 203  : 	if (a0->picture != 0) {

  00413	8b 45 08	 mov	 eax, DWORD PTR _a0$[ebp]
  00416	83 b8 24 02 00
	00 00		 cmp	 DWORD PTR [eax+548], 0
  0041d	0f 84 e6 00 00
	00		 je	 $LN30@pattern

; 204  : 		int pictable[9] = { 100388,100841,101178,100854,101570,100353,101759,101424,101489 };

  00423	c7 85 74 ff ff
	ff 24 88 01 00	 mov	 DWORD PTR _pictable$2[ebp], 100388 ; 00018824H
  0042d	c7 85 78 ff ff
	ff e9 89 01 00	 mov	 DWORD PTR _pictable$2[ebp+4], 100841 ; 000189e9H
  00437	c7 85 7c ff ff
	ff 3a 8b 01 00	 mov	 DWORD PTR _pictable$2[ebp+8], 101178 ; 00018b3aH
  00441	c7 45 80 f6 89
	01 00		 mov	 DWORD PTR _pictable$2[ebp+12], 100854 ; 000189f6H
  00448	c7 45 84 c2 8c
	01 00		 mov	 DWORD PTR _pictable$2[ebp+16], 101570 ; 00018cc2H
  0044f	c7 45 88 01 88
	01 00		 mov	 DWORD PTR _pictable$2[ebp+20], 100353 ; 00018801H
  00456	c7 45 8c 7f 8d
	01 00		 mov	 DWORD PTR _pictable$2[ebp+24], 101759 ; 00018d7fH
  0045d	c7 45 90 30 8c
	01 00		 mov	 DWORD PTR _pictable$2[ebp+28], 101424 ; 00018c30H
  00464	c7 45 94 71 8c
	01 00		 mov	 DWORD PTR _pictable$2[ebp+32], 101489 ; 00018c71H

; 205  : 		/*if( (((a0->picture&0xff000000)>>24) & 0x000000ff) == 1
; 206  : 		|| (((a0->picture&0xff000000)>>24) & 0x000000ff) == 3
; 207  : 		|| ( (((a0->picture&&0xff000000)>>24) & 0x000000ff) == 2
; 208  : 		&& ( a0->anim_chr_no != pictable[(((a0->picture&0x00ff0000)>>16)&0x000000ff)] ) ) )
; 209  : 		ATR_CHR_TIM(a0) = 1;//变身npc速度调最快
; 210  : 		*/
; 211  : 		if (a0->anim_chr_no != pictable[(((a0->picture & 0x00ff0000) >> 16) & 0x000000ff)]
; 212  : 			|| (((a0->picture & 0xff000000) >> 24) & 0x000000ff) == 1
; 213  : 			|| (((a0->picture & 0xff000000) >> 24) & 0x000000ff) == 3)

  0046b	8b 45 08	 mov	 eax, DWORD PTR _a0$[ebp]
  0046e	8b 88 24 02 00
	00		 mov	 ecx, DWORD PTR [eax+548]
  00474	81 e1 00 00 ff
	00		 and	 ecx, 16711680		; 00ff0000H
  0047a	c1 f9 10	 sar	 ecx, 16			; 00000010H
  0047d	81 e1 ff 00 00
	00		 and	 ecx, 255		; 000000ffH
  00483	8b 55 08	 mov	 edx, DWORD PTR _a0$[ebp]
  00486	8b 82 44 01 00
	00		 mov	 eax, DWORD PTR [edx+324]
  0048c	3b 84 8d 74 ff
	ff ff		 cmp	 eax, DWORD PTR _pictable$2[ebp+ecx*4]
  00493	75 3a		 jne	 SHORT $LN32@pattern
  00495	8b 45 08	 mov	 eax, DWORD PTR _a0$[ebp]
  00498	8b 88 24 02 00
	00		 mov	 ecx, DWORD PTR [eax+548]
  0049e	81 e1 00 00 00
	ff		 and	 ecx, -16777216		; ff000000H
  004a4	c1 e9 18	 shr	 ecx, 24			; 00000018H
  004a7	81 e1 ff 00 00
	00		 and	 ecx, 255		; 000000ffH
  004ad	83 f9 01	 cmp	 ecx, 1
  004b0	74 1d		 je	 SHORT $LN32@pattern
  004b2	8b 45 08	 mov	 eax, DWORD PTR _a0$[ebp]
  004b5	8b 88 24 02 00
	00		 mov	 ecx, DWORD PTR [eax+548]
  004bb	81 e1 00 00 00
	ff		 and	 ecx, -16777216		; ff000000H
  004c1	c1 e9 18	 shr	 ecx, 24			; 00000018H
  004c4	81 e1 ff 00 00
	00		 and	 ecx, 255		; 000000ffH
  004ca	83 f9 03	 cmp	 ecx, 3
  004cd	75 3a		 jne	 SHORT $LN30@pattern
$LN32@pattern:

; 214  : 			if (a0->anim_chr_no != 101805 && a0->anim_chr_no != 101858 && a0->anim_chr_no != 101936)

  004cf	8b 45 08	 mov	 eax, DWORD PTR _a0$[ebp]
  004d2	81 b8 44 01 00
	00 ad 8d 01 00	 cmp	 DWORD PTR [eax+324], 101805 ; 00018dadH
  004dc	74 2b		 je	 SHORT $LN30@pattern
  004de	8b 45 08	 mov	 eax, DWORD PTR _a0$[ebp]
  004e1	81 b8 44 01 00
	00 e2 8d 01 00	 cmp	 DWORD PTR [eax+324], 101858 ; 00018de2H
  004eb	74 1c		 je	 SHORT $LN30@pattern
  004ed	8b 45 08	 mov	 eax, DWORD PTR _a0$[ebp]
  004f0	81 b8 44 01 00
	00 30 8e 01 00	 cmp	 DWORD PTR [eax+324], 101936 ; 00018e30H
  004fa	74 0d		 je	 SHORT $LN30@pattern

; 215  : 				ATR_CHR_TIM(a0) = 1;//变身npc速度调最快

  004fc	8b 45 08	 mov	 eax, DWORD PTR _a0$[ebp]
  004ff	c7 80 60 01 00
	00 01 00 00 00	 mov	 DWORD PTR [eax+352], 1
$LN30@pattern:

; 216  : 	}
; 217  : #endif
; 218  : 	if ((U4)ATR_CHR_CNT(a0) >= ptAnimlist[i].frameCnt) {	//????????????

  00509	8b 45 dc	 mov	 eax, DWORD PTR _i$[ebp]
  0050c	c1 e0 04	 shl	 eax, 4
  0050f	8b 4d 08	 mov	 ecx, DWORD PTR _a0$[ebp]
  00512	8b 55 f4	 mov	 edx, DWORD PTR _ptAnimlist$[ebp]
  00515	8b 89 5c 01 00
	00		 mov	 ecx, DWORD PTR [ecx+348]
  0051b	3b 4c 02 08	 cmp	 ecx, DWORD PTR [edx+eax+8]
  0051f	72 38		 jb	 SHORT $LN34@pattern

; 219  : #ifdef _NPC_PICTURE	
; 220  : 		picture_play(a0);

  00521	8b 45 08	 mov	 eax, DWORD PTR _a0$[ebp]
  00524	50		 push	 eax
  00525	e8 00 00 00 00	 call	 ?picture_play@@YAXPAUaction@@@Z ; picture_play
  0052a	83 c4 04	 add	 esp, 4

; 221  : #endif
; 222  : 		if (loop_flg == ANM_NO_LOOP) {		//?????

  0052d	83 7d 10 01	 cmp	 DWORD PTR _loop_flg$[ebp], 1
  00531	75 19		 jne	 SHORT $LN35@pattern

; 223  : 			ATR_CHR_TIM(a0) = 255;

  00533	8b 45 08	 mov	 eax, DWORD PTR _a0$[ebp]
  00536	c7 80 60 01 00
	00 ff 00 00 00	 mov	 DWORD PTR [eax+352], 255 ; 000000ffH

; 224  : 			return 1;		//????????

  00540	b8 01 00 00 00	 mov	 eax, 1
  00545	e9 98 02 00 00	 jmp	 $LN1@pattern

; 225  : 		}
; 226  : 		else

  0054a	eb 0d		 jmp	 SHORT $LN34@pattern
$LN35@pattern:

; 227  : 			ATR_CHR_CNT(a0) = 0;		//Id???

  0054c	8b 45 08	 mov	 eax, DWORD PTR _a0$[ebp]
  0054f	c7 80 5c 01 00
	00 00 00 00 00	 mov	 DWORD PTR [eax+348], 0
$LN34@pattern:

; 228  : 	}
; 229  : 	//??????
; 230  : 	if (ptFramelist[ATR_CHR_CNT(a0)].SoundNo != 0) {

  00559	8b 45 08	 mov	 eax, DWORD PTR _a0$[ebp]
  0055c	6b 88 5c 01 00
	00 0c		 imul	 ecx, DWORD PTR [eax+348], 12
  00563	8b 55 e8	 mov	 edx, DWORD PTR _ptFramelist$[ebp]
  00566	0f b7 44 0a 08	 movzx	 eax, WORD PTR [edx+ecx+8]
  0056b	85 c0		 test	 eax, eax
  0056d	74 64		 je	 SHORT $LN37@pattern

; 231  : 		if (ptFramelist[ATR_CHR_CNT(a0)].SoundNo < 10000)

  0056f	8b 45 08	 mov	 eax, DWORD PTR _a0$[ebp]
  00572	6b 88 5c 01 00
	00 0c		 imul	 ecx, DWORD PTR [eax+348], 12
  00579	8b 55 e8	 mov	 edx, DWORD PTR _ptFramelist$[ebp]
  0057c	0f b7 44 0a 08	 movzx	 eax, WORD PTR [edx+ecx+8]
  00581	3d 10 27 00 00	 cmp	 eax, 10000		; 00002710H
  00586	7d 2b		 jge	 SHORT $LN39@pattern

; 232  : 			play_se(ptFramelist[ATR_CHR_CNT(a0)].SoundNo, ATR_H_POS(a0), ATR_V_POS(a0));

  00588	8b 45 08	 mov	 eax, DWORD PTR _a0$[ebp]
  0058b	8b 48 1c	 mov	 ecx, DWORD PTR [eax+28]
  0058e	51		 push	 ecx
  0058f	8b 55 08	 mov	 edx, DWORD PTR _a0$[ebp]
  00592	8b 42 18	 mov	 eax, DWORD PTR [edx+24]
  00595	50		 push	 eax
  00596	8b 4d 08	 mov	 ecx, DWORD PTR _a0$[ebp]
  00599	6b 91 5c 01 00
	00 0c		 imul	 edx, DWORD PTR [ecx+348], 12
  005a0	8b 45 e8	 mov	 eax, DWORD PTR _ptFramelist$[ebp]
  005a3	0f b7 4c 10 08	 movzx	 ecx, WORD PTR [eax+edx+8]
  005a8	51		 push	 ecx
  005a9	e8 00 00 00 00	 call	 ?play_se@@YAHHHH@Z	; play_se
  005ae	83 c4 0c	 add	 esp, 12			; 0000000cH

; 233  : 		else

  005b1	eb 1b		 jmp	 SHORT $LN40@pattern
$LN39@pattern:

; 234  : 		{
; 235  : 			ATR_HIT(a0) = ptFramelist[ATR_CHR_CNT(a0)].SoundNo;

  005b3	8b 45 08	 mov	 eax, DWORD PTR _a0$[ebp]
  005b6	6b 88 5c 01 00
	00 0c		 imul	 ecx, DWORD PTR [eax+348], 12
  005bd	8b 55 e8	 mov	 edx, DWORD PTR _ptFramelist$[ebp]
  005c0	0f b7 44 0a 08	 movzx	 eax, WORD PTR [edx+ecx+8]
  005c5	8b 4d 08	 mov	 ecx, DWORD PTR _a0$[ebp]
  005c8	89 81 6c 01 00
	00		 mov	 DWORD PTR [ecx+364], eax
$LN40@pattern:

; 236  : 		}
; 237  : 			
; 238  : 	}
; 239  : #ifdef _PROFESSION_ADDSKILL
; 240  : 	else {

  005ce	e9 67 01 00 00	 jmp	 $LN38@pattern
$LN37@pattern:

; 241  : 		if (ATR_CHR_NO(a0) >= 101769 && ATR_CHR_NO(a0) <= 101797) {

  005d3	8b 45 08	 mov	 eax, DWORD PTR _a0$[ebp]
  005d6	81 b8 44 01 00
	00 89 8d 01 00	 cmp	 DWORD PTR [eax+324], 101769 ; 00018d89H
  005e0	0f 8c 54 01 00
	00		 jl	 $LN38@pattern
  005e6	8b 45 08	 mov	 eax, DWORD PTR _a0$[ebp]
  005e9	81 b8 44 01 00
	00 a5 8d 01 00	 cmp	 DWORD PTR [eax+324], 101797 ; 00018da5H
  005f3	0f 8f 41 01 00
	00		 jg	 $LN38@pattern

; 242  : 			int soundnum = 0;

  005f9	c7 85 68 ff ff
	ff 00 00 00 00	 mov	 DWORD PTR _soundnum$1[ebp], 0

; 243  : 			switch (ATR_PAT_NO(a0)) {

  00603	8b 45 08	 mov	 eax, DWORD PTR _a0$[ebp]
  00606	8b 88 9c 00 00
	00		 mov	 ecx, DWORD PTR [eax+156]
  0060c	89 8d a0 fe ff
	ff		 mov	 DWORD PTR tv304[ebp], ecx
  00612	81 bd a0 fe ff
	ff 95 43 0f 00	 cmp	 DWORD PTR tv304[ebp], 1000341 ; 000f4395H
  0061c	7f 42		 jg	 SHORT $LN57@pattern
  0061e	81 bd a0 fe ff
	ff 95 43 0f 00	 cmp	 DWORD PTR tv304[ebp], 1000341 ; 000f4395H
  00628	74 7d		 je	 SHORT $LN46@pattern
  0062a	8b 95 a0 fe ff
	ff		 mov	 edx, DWORD PTR tv304[ebp]
  00630	81 ea 7c 42 0f
	00		 sub	 edx, 1000060		; 000f427cH
  00636	89 95 a0 fe ff
	ff		 mov	 DWORD PTR tv304[ebp], edx
  0063c	81 bd a0 fe ff
	ff f4 00 00 00	 cmp	 DWORD PTR tv304[ebp], 244 ; 000000f4H
  00646	0f 87 d1 00 00
	00		 ja	 $LN8@pattern
  0064c	8b 85 a0 fe ff
	ff		 mov	 eax, DWORD PTR tv304[ebp]
  00652	0f b6 88 00 00
	00 00		 movzx	 ecx, BYTE PTR $LN58@pattern[eax]
  00659	ff 24 8d 00 00
	00 00		 jmp	 DWORD PTR $LN65@pattern[ecx*4]
$LN57@pattern:
  00660	81 bd a0 fe ff
	ff bc 43 0f 00	 cmp	 DWORD PTR tv304[ebp], 1000380 ; 000f43bcH
  0066a	74 5f		 je	 SHORT $LN49@pattern
  0066c	81 bd a0 fe ff
	ff e1 43 0f 00	 cmp	 DWORD PTR tv304[ebp], 1000417 ; 000f43e1H
  00676	74 5f		 je	 SHORT $LN50@pattern
  00678	e9 a0 00 00 00	 jmp	 $LN8@pattern
$LN43@pattern:

; 244  : 			case 156 + OLD_GRAPHICS_START:
; 245  : 				soundnum = 390; break;//水结界390

  0067d	c7 85 68 ff ff
	ff 86 01 00 00	 mov	 DWORD PTR _soundnum$1[ebp], 390 ; 00000186H
  00687	e9 91 00 00 00	 jmp	 $LN8@pattern
$LN44@pattern:

; 246  : 			case 193 + OLD_GRAPHICS_START:
; 247  : 				soundnum = 390; break;//水结界390

  0068c	c7 85 68 ff ff
	ff 86 01 00 00	 mov	 DWORD PTR _soundnum$1[ebp], 390 ; 00000186H
  00696	e9 82 00 00 00	 jmp	 $LN8@pattern
$LN45@pattern:

; 248  : 			case 304 + OLD_GRAPHICS_START:
; 249  : 				soundnum = 327; break;//地结界

  0069b	c7 85 68 ff ff
	ff 47 01 00 00	 mov	 DWORD PTR _soundnum$1[ebp], 327 ; 00000147H
  006a5	eb 76		 jmp	 SHORT $LN8@pattern
$LN46@pattern:

; 250  : 			case 341 + OLD_GRAPHICS_START:
; 251  : 				soundnum = 327; break;//地结界

  006a7	c7 85 68 ff ff
	ff 47 01 00 00	 mov	 DWORD PTR _soundnum$1[ebp], 327 ; 00000147H
  006b1	eb 6a		 jmp	 SHORT $LN8@pattern
$LN47@pattern:

; 252  : 			case 231 + OLD_GRAPHICS_START:
; 253  : 				soundnum = 395; break;//火结界

  006b3	c7 85 68 ff ff
	ff 8b 01 00 00	 mov	 DWORD PTR _soundnum$1[ebp], 395 ; 0000018bH
  006bd	eb 5e		 jmp	 SHORT $LN8@pattern
$LN48@pattern:

; 254  : 			case 268 + OLD_GRAPHICS_START:
; 255  : 				soundnum = 268; break;//火结界

  006bf	c7 85 68 ff ff
	ff 0c 01 00 00	 mov	 DWORD PTR _soundnum$1[ebp], 268 ; 0000010cH
  006c9	eb 52		 jmp	 SHORT $LN8@pattern
$LN49@pattern:

; 256  : 			case 380 + OLD_GRAPHICS_START:
; 257  : 				soundnum = 154; break;//风结界

  006cb	c7 85 68 ff ff
	ff 9a 00 00 00	 mov	 DWORD PTR _soundnum$1[ebp], 154 ; 0000009aH
  006d5	eb 46		 jmp	 SHORT $LN8@pattern
$LN50@pattern:

; 258  : 			case 417 + OLD_GRAPHICS_START:
; 259  : 				soundnum = 154; break;//风结界	

  006d7	c7 85 68 ff ff
	ff 9a 00 00 00	 mov	 DWORD PTR _soundnum$1[ebp], 154 ; 0000009aH
  006e1	eb 3a		 jmp	 SHORT $LN8@pattern
$LN51@pattern:

; 260  : 			case 75 + OLD_GRAPHICS_START:
; 261  : 				soundnum = 324; break;//破结界

  006e3	c7 85 68 ff ff
	ff 44 01 00 00	 mov	 DWORD PTR _soundnum$1[ebp], 324 ; 00000144H
  006ed	eb 2e		 jmp	 SHORT $LN8@pattern
$LN52@pattern:

; 262  : 			case 97 + OLD_GRAPHICS_START:
; 263  : 				soundnum = 324; break;//破结界

  006ef	c7 85 68 ff ff
	ff 44 01 00 00	 mov	 DWORD PTR _soundnum$1[ebp], 324 ; 00000144H
  006f9	eb 22		 jmp	 SHORT $LN8@pattern
$LN53@pattern:

; 264  : 			case 117 + OLD_GRAPHICS_START:
; 265  : 				soundnum = 385; break;//号召自然

  006fb	c7 85 68 ff ff
	ff 81 01 00 00	 mov	 DWORD PTR _soundnum$1[ebp], 385 ; 00000181H
  00705	eb 16		 jmp	 SHORT $LN8@pattern
$LN54@pattern:

; 266  : 			case 137 + OLD_GRAPHICS_START:
; 267  : 				soundnum = 385; break;//号召自然	

  00707	c7 85 68 ff ff
	ff 81 01 00 00	 mov	 DWORD PTR _soundnum$1[ebp], 385 ; 00000181H
  00711	eb 0a		 jmp	 SHORT $LN8@pattern
$LN55@pattern:

; 268  : 			case 60 + OLD_GRAPHICS_START:
; 269  : 				soundnum = 388; break;//自然威能	

  00713	c7 85 68 ff ff
	ff 84 01 00 00	 mov	 DWORD PTR _soundnum$1[ebp], 388 ; 00000184H
$LN8@pattern:

; 270  : 			}
; 271  : 			play_se(soundnum, ATR_H_POS(a0), ATR_V_POS(a0));

  0071d	8b 45 08	 mov	 eax, DWORD PTR _a0$[ebp]
  00720	8b 48 1c	 mov	 ecx, DWORD PTR [eax+28]
  00723	51		 push	 ecx
  00724	8b 55 08	 mov	 edx, DWORD PTR _a0$[ebp]
  00727	8b 42 18	 mov	 eax, DWORD PTR [edx+24]
  0072a	50		 push	 eax
  0072b	8b 8d 68 ff ff
	ff		 mov	 ecx, DWORD PTR _soundnum$1[ebp]
  00731	51		 push	 ecx
  00732	e8 00 00 00 00	 call	 ?play_se@@YAHHHH@Z	; play_se
  00737	83 c4 0c	 add	 esp, 12			; 0000000cH
$LN38@pattern:

; 272  : 		}
; 273  : 		else
; 274  : 		{
; 275  : 
; 276  : 		}
; 277  : 	}
; 278  : #endif
; 279  : 	ATR_PAT_NO(a0) = ptFramelist[ATR_CHR_CNT(a0)].BmpNo;			//???k????

  0073a	8b 45 08	 mov	 eax, DWORD PTR _a0$[ebp]
  0073d	6b 88 5c 01 00
	00 0c		 imul	 ecx, DWORD PTR [eax+348], 12
  00744	8b 55 08	 mov	 edx, DWORD PTR _a0$[ebp]
  00747	8b 45 e8	 mov	 eax, DWORD PTR _ptFramelist$[ebp]
  0074a	8b 0c 08	 mov	 ecx, DWORD PTR [eax+ecx]
  0074d	89 8a 9c 00 00
	00		 mov	 DWORD PTR [edx+156], ecx

; 280  : 	realGetPos(ptFramelist[ATR_CHR_CNT(a0)].BmpNo, &dx, &dy);		//??????????觖??

  00753	8d 45 c4	 lea	 eax, DWORD PTR _dy$[ebp]
  00756	50		 push	 eax
  00757	8d 4d d0	 lea	 ecx, DWORD PTR _dx$[ebp]
  0075a	51		 push	 ecx
  0075b	8b 55 08	 mov	 edx, DWORD PTR _a0$[ebp]
  0075e	6b 82 5c 01 00
	00 0c		 imul	 eax, DWORD PTR [edx+348], 12
  00765	8b 4d e8	 mov	 ecx, DWORD PTR _ptFramelist$[ebp]
  00768	8b 14 01	 mov	 edx, DWORD PTR [ecx+eax]
  0076b	52		 push	 edx
  0076c	e8 00 00 00 00	 call	 ?realGetPos@@YAHKPAF0@Z	; realGetPos
  00771	83 c4 0c	 add	 esp, 12			; 0000000cH

; 281  : 	ATR_CHR_H_POS(a0) = ptFramelist[ATR_CHR_CNT(a0)].PosX + dx;		//??????????

  00774	8b 45 08	 mov	 eax, DWORD PTR _a0$[ebp]
  00777	6b 88 5c 01 00
	00 0c		 imul	 ecx, DWORD PTR [eax+348], 12
  0077e	8b 55 e8	 mov	 edx, DWORD PTR _ptFramelist$[ebp]
  00781	0f bf 44 0a 04	 movsx	 eax, WORD PTR [edx+ecx+4]
  00786	0f bf 4d d0	 movsx	 ecx, WORD PTR _dx$[ebp]
  0078a	03 c1		 add	 eax, ecx
  0078c	8b 55 08	 mov	 edx, DWORD PTR _a0$[ebp]
  0078f	89 82 64 01 00
	00		 mov	 DWORD PTR [edx+356], eax

; 282  : 	ATR_CHR_V_POS(a0) = ptFramelist[ATR_CHR_CNT(a0)].PosY + dy;		//??????????

  00795	8b 45 08	 mov	 eax, DWORD PTR _a0$[ebp]
  00798	6b 88 5c 01 00
	00 0c		 imul	 ecx, DWORD PTR [eax+348], 12
  0079f	8b 55 e8	 mov	 edx, DWORD PTR _ptFramelist$[ebp]
  007a2	0f bf 44 0a 06	 movsx	 eax, WORD PTR [edx+ecx+6]
  007a7	0f bf 4d c4	 movsx	 ecx, WORD PTR _dy$[ebp]
  007ab	03 c1		 add	 eax, ecx
  007ad	8b 55 08	 mov	 edx, DWORD PTR _a0$[ebp]
  007b0	89 82 68 01 00
	00		 mov	 DWORD PTR [edx+360], eax

; 283  : 	ATR_CHR_CNT(a0)++;

  007b6	8b 45 08	 mov	 eax, DWORD PTR _a0$[ebp]
  007b9	8b 88 5c 01 00
	00		 mov	 ecx, DWORD PTR [eax+348]
  007bf	83 c1 01	 add	 ecx, 1
  007c2	8b 55 08	 mov	 edx, DWORD PTR _a0$[ebp]
  007c5	89 8a 5c 01 00
	00		 mov	 DWORD PTR [edx+348], ecx

; 284  : 	ATR_CHR_TIM(a0)--;

  007cb	8b 45 08	 mov	 eax, DWORD PTR _a0$[ebp]
  007ce	8b 88 60 01 00
	00		 mov	 ecx, DWORD PTR [eax+352]
  007d4	83 e9 01	 sub	 ecx, 1
  007d7	8b 55 08	 mov	 edx, DWORD PTR _a0$[ebp]
  007da	89 8a 60 01 00
	00		 mov	 DWORD PTR [edx+352], ecx

; 285  : 	return 0;

  007e0	33 c0		 xor	 eax, eax
$LN1@pattern:

; 286  : }

  007e2	52		 push	 edx
  007e3	8b cd		 mov	 ecx, ebp
  007e5	50		 push	 eax
  007e6	8d 15 00 00 00
	00		 lea	 edx, DWORD PTR $LN64@pattern
  007ec	e8 00 00 00 00	 call	 @_RTC_CheckStackVars@8
  007f1	58		 pop	 eax
  007f2	5a		 pop	 edx
  007f3	5f		 pop	 edi
  007f4	5e		 pop	 esi
  007f5	5b		 pop	 ebx
  007f6	8b 4d fc	 mov	 ecx, DWORD PTR __$ArrayPad$[ebp]
  007f9	33 cd		 xor	 ecx, ebp
  007fb	e8 00 00 00 00	 call	 @__security_check_cookie@4
  00800	81 c4 60 01 00
	00		 add	 esp, 352		; 00000160H
  00806	3b ec		 cmp	 ebp, esp
  00808	e8 00 00 00 00	 call	 __RTC_CheckEsp
  0080d	8b e5		 mov	 esp, ebp
  0080f	5d		 pop	 ebp
  00810	c3		 ret	 0
  00811	0f 1f 00	 npad	 3
$LN64@pattern:
  00814	04 00 00 00	 DD	 4
  00818	00 00 00 00	 DD	 $LN63@pattern
$LN63@pattern:
  0081c	d0 ff ff ff	 DD	 -48			; ffffffd0H
  00820	02 00 00 00	 DD	 2
  00824	00 00 00 00	 DD	 $LN59@pattern
  00828	c4 ff ff ff	 DD	 -60			; ffffffc4H
  0082c	02 00 00 00	 DD	 2
  00830	00 00 00 00	 DD	 $LN60@pattern
  00834	b8 ff ff ff	 DD	 -72			; ffffffb8H
  00838	04 00 00 00	 DD	 4
  0083c	00 00 00 00	 DD	 $LN61@pattern
  00840	74 ff ff ff	 DD	 -140			; ffffff74H
  00844	24 00 00 00	 DD	 36			; 00000024H
  00848	00 00 00 00	 DD	 $LN62@pattern
$LN62@pattern:
  0084c	70		 DB	 112			; 00000070H
  0084d	69		 DB	 105			; 00000069H
  0084e	63		 DB	 99			; 00000063H
  0084f	74		 DB	 116			; 00000074H
  00850	61		 DB	 97			; 00000061H
  00851	62		 DB	 98			; 00000062H
  00852	6c		 DB	 108			; 0000006cH
  00853	65		 DB	 101			; 00000065H
  00854	00		 DB	 0
$LN61@pattern:
  00855	42		 DB	 66			; 00000042H
  00856	6d		 DB	 109			; 0000006dH
  00857	70		 DB	 112			; 00000070H
  00858	4e		 DB	 78			; 0000004eH
  00859	6f		 DB	 111			; 0000006fH
  0085a	00		 DB	 0
$LN60@pattern:
  0085b	64		 DB	 100			; 00000064H
  0085c	79		 DB	 121			; 00000079H
  0085d	00		 DB	 0
$LN59@pattern:
  0085e	64		 DB	 100			; 00000064H
  0085f	78		 DB	 120			; 00000078H
  00860	00		 DB	 0
  00861	0f 1f 00	 npad	 3
$LN65@pattern:
  00864	00 00 00 00	 DD	 $LN55@pattern
  00868	00 00 00 00	 DD	 $LN51@pattern
  0086c	00 00 00 00	 DD	 $LN52@pattern
  00870	00 00 00 00	 DD	 $LN53@pattern
  00874	00 00 00 00	 DD	 $LN54@pattern
  00878	00 00 00 00	 DD	 $LN43@pattern
  0087c	00 00 00 00	 DD	 $LN44@pattern
  00880	00 00 00 00	 DD	 $LN47@pattern
  00884	00 00 00 00	 DD	 $LN48@pattern
  00888	00 00 00 00	 DD	 $LN45@pattern
  0088c	00 00 00 00	 DD	 $LN8@pattern
$LN58@pattern:
  00890	00		 DB	 0
  00891	0a		 DB	 10			; 0000000aH
  00892	0a		 DB	 10			; 0000000aH
  00893	0a		 DB	 10			; 0000000aH
  00894	0a		 DB	 10			; 0000000aH
  00895	0a		 DB	 10			; 0000000aH
  00896	0a		 DB	 10			; 0000000aH
  00897	0a		 DB	 10			; 0000000aH
  00898	0a		 DB	 10			; 0000000aH
  00899	0a		 DB	 10			; 0000000aH
  0089a	0a		 DB	 10			; 0000000aH
  0089b	0a		 DB	 10			; 0000000aH
  0089c	0a		 DB	 10			; 0000000aH
  0089d	0a		 DB	 10			; 0000000aH
  0089e	0a		 DB	 10			; 0000000aH
  0089f	01		 DB	 1
  008a0	0a		 DB	 10			; 0000000aH
  008a1	0a		 DB	 10			; 0000000aH
  008a2	0a		 DB	 10			; 0000000aH
  008a3	0a		 DB	 10			; 0000000aH
  008a4	0a		 DB	 10			; 0000000aH
  008a5	0a		 DB	 10			; 0000000aH
  008a6	0a		 DB	 10			; 0000000aH
  008a7	0a		 DB	 10			; 0000000aH
  008a8	0a		 DB	 10			; 0000000aH
  008a9	0a		 DB	 10			; 0000000aH
  008aa	0a		 DB	 10			; 0000000aH
  008ab	0a		 DB	 10			; 0000000aH
  008ac	0a		 DB	 10			; 0000000aH
  008ad	0a		 DB	 10			; 0000000aH
  008ae	0a		 DB	 10			; 0000000aH
  008af	0a		 DB	 10			; 0000000aH
  008b0	0a		 DB	 10			; 0000000aH
  008b1	0a		 DB	 10			; 0000000aH
  008b2	0a		 DB	 10			; 0000000aH
  008b3	0a		 DB	 10			; 0000000aH
  008b4	0a		 DB	 10			; 0000000aH
  008b5	02		 DB	 2
  008b6	0a		 DB	 10			; 0000000aH
  008b7	0a		 DB	 10			; 0000000aH
  008b8	0a		 DB	 10			; 0000000aH
  008b9	0a		 DB	 10			; 0000000aH
  008ba	0a		 DB	 10			; 0000000aH
  008bb	0a		 DB	 10			; 0000000aH
  008bc	0a		 DB	 10			; 0000000aH
  008bd	0a		 DB	 10			; 0000000aH
  008be	0a		 DB	 10			; 0000000aH
  008bf	0a		 DB	 10			; 0000000aH
  008c0	0a		 DB	 10			; 0000000aH
  008c1	0a		 DB	 10			; 0000000aH
  008c2	0a		 DB	 10			; 0000000aH
  008c3	0a		 DB	 10			; 0000000aH
  008c4	0a		 DB	 10			; 0000000aH
  008c5	0a		 DB	 10			; 0000000aH
  008c6	0a		 DB	 10			; 0000000aH
  008c7	0a		 DB	 10			; 0000000aH
  008c8	0a		 DB	 10			; 0000000aH
  008c9	03		 DB	 3
  008ca	0a		 DB	 10			; 0000000aH
  008cb	0a		 DB	 10			; 0000000aH
  008cc	0a		 DB	 10			; 0000000aH
  008cd	0a		 DB	 10			; 0000000aH
  008ce	0a		 DB	 10			; 0000000aH
  008cf	0a		 DB	 10			; 0000000aH
  008d0	0a		 DB	 10			; 0000000aH
  008d1	0a		 DB	 10			; 0000000aH
  008d2	0a		 DB	 10			; 0000000aH
  008d3	0a		 DB	 10			; 0000000aH
  008d4	0a		 DB	 10			; 0000000aH
  008d5	0a		 DB	 10			; 0000000aH
  008d6	0a		 DB	 10			; 0000000aH
  008d7	0a		 DB	 10			; 0000000aH
  008d8	0a		 DB	 10			; 0000000aH
  008d9	0a		 DB	 10			; 0000000aH
  008da	0a		 DB	 10			; 0000000aH
  008db	0a		 DB	 10			; 0000000aH
  008dc	0a		 DB	 10			; 0000000aH
  008dd	04		 DB	 4
  008de	0a		 DB	 10			; 0000000aH
  008df	0a		 DB	 10			; 0000000aH
  008e0	0a		 DB	 10			; 0000000aH
  008e1	0a		 DB	 10			; 0000000aH
  008e2	0a		 DB	 10			; 0000000aH
  008e3	0a		 DB	 10			; 0000000aH
  008e4	0a		 DB	 10			; 0000000aH
  008e5	0a		 DB	 10			; 0000000aH
  008e6	0a		 DB	 10			; 0000000aH
  008e7	0a		 DB	 10			; 0000000aH
  008e8	0a		 DB	 10			; 0000000aH
  008e9	0a		 DB	 10			; 0000000aH
  008ea	0a		 DB	 10			; 0000000aH
  008eb	0a		 DB	 10			; 0000000aH
  008ec	0a		 DB	 10			; 0000000aH
  008ed	0a		 DB	 10			; 0000000aH
  008ee	0a		 DB	 10			; 0000000aH
  008ef	0a		 DB	 10			; 0000000aH
  008f0	05		 DB	 5
  008f1	0a		 DB	 10			; 0000000aH
  008f2	0a		 DB	 10			; 0000000aH
  008f3	0a		 DB	 10			; 0000000aH
  008f4	0a		 DB	 10			; 0000000aH
  008f5	0a		 DB	 10			; 0000000aH
  008f6	0a		 DB	 10			; 0000000aH
  008f7	0a		 DB	 10			; 0000000aH
  008f8	0a		 DB	 10			; 0000000aH
  008f9	0a		 DB	 10			; 0000000aH
  008fa	0a		 DB	 10			; 0000000aH
  008fb	0a		 DB	 10			; 0000000aH
  008fc	0a		 DB	 10			; 0000000aH
  008fd	0a		 DB	 10			; 0000000aH
  008fe	0a		 DB	 10			; 0000000aH
  008ff	0a		 DB	 10			; 0000000aH
  00900	0a		 DB	 10			; 0000000aH
  00901	0a		 DB	 10			; 0000000aH
  00902	0a		 DB	 10			; 0000000aH
  00903	0a		 DB	 10			; 0000000aH
  00904	0a		 DB	 10			; 0000000aH
  00905	0a		 DB	 10			; 0000000aH
  00906	0a		 DB	 10			; 0000000aH
  00907	0a		 DB	 10			; 0000000aH
  00908	0a		 DB	 10			; 0000000aH
  00909	0a		 DB	 10			; 0000000aH
  0090a	0a		 DB	 10			; 0000000aH
  0090b	0a		 DB	 10			; 0000000aH
  0090c	0a		 DB	 10			; 0000000aH
  0090d	0a		 DB	 10			; 0000000aH
  0090e	0a		 DB	 10			; 0000000aH
  0090f	0a		 DB	 10			; 0000000aH
  00910	0a		 DB	 10			; 0000000aH
  00911	0a		 DB	 10			; 0000000aH
  00912	0a		 DB	 10			; 0000000aH
  00913	0a		 DB	 10			; 0000000aH
  00914	0a		 DB	 10			; 0000000aH
  00915	06		 DB	 6
  00916	0a		 DB	 10			; 0000000aH
  00917	0a		 DB	 10			; 0000000aH
  00918	0a		 DB	 10			; 0000000aH
  00919	0a		 DB	 10			; 0000000aH
  0091a	0a		 DB	 10			; 0000000aH
  0091b	0a		 DB	 10			; 0000000aH
  0091c	0a		 DB	 10			; 0000000aH
  0091d	0a		 DB	 10			; 0000000aH
  0091e	0a		 DB	 10			; 0000000aH
  0091f	0a		 DB	 10			; 0000000aH
  00920	0a		 DB	 10			; 0000000aH
  00921	0a		 DB	 10			; 0000000aH
  00922	0a		 DB	 10			; 0000000aH
  00923	0a		 DB	 10			; 0000000aH
  00924	0a		 DB	 10			; 0000000aH
  00925	0a		 DB	 10			; 0000000aH
  00926	0a		 DB	 10			; 0000000aH
  00927	0a		 DB	 10			; 0000000aH
  00928	0a		 DB	 10			; 0000000aH
  00929	0a		 DB	 10			; 0000000aH
  0092a	0a		 DB	 10			; 0000000aH
  0092b	0a		 DB	 10			; 0000000aH
  0092c	0a		 DB	 10			; 0000000aH
  0092d	0a		 DB	 10			; 0000000aH
  0092e	0a		 DB	 10			; 0000000aH
  0092f	0a		 DB	 10			; 0000000aH
  00930	0a		 DB	 10			; 0000000aH
  00931	0a		 DB	 10			; 0000000aH
  00932	0a		 DB	 10			; 0000000aH
  00933	0a		 DB	 10			; 0000000aH
  00934	0a		 DB	 10			; 0000000aH
  00935	0a		 DB	 10			; 0000000aH
  00936	0a		 DB	 10			; 0000000aH
  00937	0a		 DB	 10			; 0000000aH
  00938	0a		 DB	 10			; 0000000aH
  00939	0a		 DB	 10			; 0000000aH
  0093a	0a		 DB	 10			; 0000000aH
  0093b	07		 DB	 7
  0093c	0a		 DB	 10			; 0000000aH
  0093d	0a		 DB	 10			; 0000000aH
  0093e	0a		 DB	 10			; 0000000aH
  0093f	0a		 DB	 10			; 0000000aH
  00940	0a		 DB	 10			; 0000000aH
  00941	0a		 DB	 10			; 0000000aH
  00942	0a		 DB	 10			; 0000000aH
  00943	0a		 DB	 10			; 0000000aH
  00944	0a		 DB	 10			; 0000000aH
  00945	0a		 DB	 10			; 0000000aH
  00946	0a		 DB	 10			; 0000000aH
  00947	0a		 DB	 10			; 0000000aH
  00948	0a		 DB	 10			; 0000000aH
  00949	0a		 DB	 10			; 0000000aH
  0094a	0a		 DB	 10			; 0000000aH
  0094b	0a		 DB	 10			; 0000000aH
  0094c	0a		 DB	 10			; 0000000aH
  0094d	0a		 DB	 10			; 0000000aH
  0094e	0a		 DB	 10			; 0000000aH
  0094f	0a		 DB	 10			; 0000000aH
  00950	0a		 DB	 10			; 0000000aH
  00951	0a		 DB	 10			; 0000000aH
  00952	0a		 DB	 10			; 0000000aH
  00953	0a		 DB	 10			; 0000000aH
  00954	0a		 DB	 10			; 0000000aH
  00955	0a		 DB	 10			; 0000000aH
  00956	0a		 DB	 10			; 0000000aH
  00957	0a		 DB	 10			; 0000000aH
  00958	0a		 DB	 10			; 0000000aH
  00959	0a		 DB	 10			; 0000000aH
  0095a	0a		 DB	 10			; 0000000aH
  0095b	0a		 DB	 10			; 0000000aH
  0095c	0a		 DB	 10			; 0000000aH
  0095d	0a		 DB	 10			; 0000000aH
  0095e	0a		 DB	 10			; 0000000aH
  0095f	0a		 DB	 10			; 0000000aH
  00960	08		 DB	 8
  00961	0a		 DB	 10			; 0000000aH
  00962	0a		 DB	 10			; 0000000aH
  00963	0a		 DB	 10			; 0000000aH
  00964	0a		 DB	 10			; 0000000aH
  00965	0a		 DB	 10			; 0000000aH
  00966	0a		 DB	 10			; 0000000aH
  00967	0a		 DB	 10			; 0000000aH
  00968	0a		 DB	 10			; 0000000aH
  00969	0a		 DB	 10			; 0000000aH
  0096a	0a		 DB	 10			; 0000000aH
  0096b	0a		 DB	 10			; 0000000aH
  0096c	0a		 DB	 10			; 0000000aH
  0096d	0a		 DB	 10			; 0000000aH
  0096e	0a		 DB	 10			; 0000000aH
  0096f	0a		 DB	 10			; 0000000aH
  00970	0a		 DB	 10			; 0000000aH
  00971	0a		 DB	 10			; 0000000aH
  00972	0a		 DB	 10			; 0000000aH
  00973	0a		 DB	 10			; 0000000aH
  00974	0a		 DB	 10			; 0000000aH
  00975	0a		 DB	 10			; 0000000aH
  00976	0a		 DB	 10			; 0000000aH
  00977	0a		 DB	 10			; 0000000aH
  00978	0a		 DB	 10			; 0000000aH
  00979	0a		 DB	 10			; 0000000aH
  0097a	0a		 DB	 10			; 0000000aH
  0097b	0a		 DB	 10			; 0000000aH
  0097c	0a		 DB	 10			; 0000000aH
  0097d	0a		 DB	 10			; 0000000aH
  0097e	0a		 DB	 10			; 0000000aH
  0097f	0a		 DB	 10			; 0000000aH
  00980	0a		 DB	 10			; 0000000aH
  00981	0a		 DB	 10			; 0000000aH
  00982	0a		 DB	 10			; 0000000aH
  00983	0a		 DB	 10			; 0000000aH
  00984	09		 DB	 9
?pattern@@YAHPAUaction@@HH@Z ENDP			; pattern
_TEXT	ENDS
END
