; Listing generated by Microsoft (R) Optimizing Compiler Version 19.00.24215.1 

	TITLE	C:\Users\Administrator\Desktop\????? ??\????? ??\Client Source Code\other\PtternSeparationBin.cpp
	.686P
	.XMM
	include listing.inc
	.model	flat

INCLUDELIB MSVCRTD
INCLUDELIB OLDNAMES

PUBLIC	?MaxAdrnID@@3HA					; MaxAdrnID
PUBLIC	?nextMaxAdrnID@@3HA				; nextMaxAdrnID
_BSS	SEGMENT
?MaxAdrnID@@3HA DD 01H DUP (?)				; MaxAdrnID
?nextMaxAdrnID@@3HA DD 01H DUP (?)			; nextMaxAdrnID
_BSS	ENDS
_DATA	SEGMENT
?FontPal@@3PAKA DD 0ffffffH				; FontPal
	DD	0ffff00H
	DD	0ff00ffH
	DD	0ff0000H
	DD	0ffffH
	DD	0ff00H
	DD	0ffH
	DD	0a4a0a0H
	DD	0f0caa6H
	DD	0c0dcc0H
	DD	08cffH
	DD	0247fffH
?ridePetTable@@3PAUtagRidePetTable@@A DD 018a88H	; ridePetTable
	DD	0186a0H
	DD	018800H
	DD	00H
	DD	018a89H
	DD	0186a5H
	DD	018800H
	DD	00H
	DD	018a8aH
	DD	0186aaH
	DD	018800H
	DD	00H
	DD	018a8bH
	DD	0186afH
	DD	018800H
	DD	00H
	DD	018a8cH
	DD	0186a0H
	DD	0187e9H
	DD	00H
	DD	018a8dH
	DD	0186a5H
	DD	0187e7H
	DD	00H
	DD	018a8eH
	DD	0186aaH
	DD	0187eaH
	DD	00H
	DD	018a8fH
	DD	0186afH
	DD	0187e8H
	DD	00H
	DD	018a90H
	DD	01895cH
	DD	018814H
	DD	00H
	DD	018a91H
	DD	018961H
	DD	018815H
	DD	00H
	DD	018e65H
	DD	018961H
	DD	018cc8H
	DD	00H
	DD	018e5aH
	DD	018961H
	DD	018c9cH
	DD	00H
	DD	018a92H
	DD	0186b4H
	DD	01882cH
	DD	00H
	DD	018a93H
	DD	0186b9H
	DD	01882cH
	DD	00H
	DD	018a94H
	DD	0186beH
	DD	01882cH
	DD	00H
	DD	018a95H
	DD	0186c3H
	DD	01882cH
	DD	00H
	DD	018a96H
	DD	0186b4H
	DD	0187e8H
	DD	00H
	DD	018a97H
	DD	0186b9H
	DD	0187e9H
	DD	00H
	DD	018a98H
	DD	0186beH
	DD	0187e7H
	DD	00H
	DD	018a99H
	DD	0186c3H
	DD	0187eaH
	DD	00H
	DD	018a9aH
	DD	018966H
	DD	018814H
	DD	00H
	DD	018a9bH
	DD	01896bH
	DD	018815H
	DD	00H
	DD	018e64H
	DD	01896bH
	DD	018cc8H
	DD	00H
	DD	018e62H
	DD	01896bH
	DD	018c9cH
	DD	00H
	DD	018a9cH
	DD	0186c8H
	DD	0187ffH
	DD	00H
	DD	018a9dH
	DD	0186cdH
	DD	0187ffH
	DD	00H
	DD	018a9eH
	DD	0186d2H
	DD	0187ffH
	DD	00H
	DD	018a9fH
	DD	0186d7H
	DD	0187ffH
	DD	00H
	DD	018aa0H
	DD	0186c8H
	DD	0187e8H
	DD	00H
	DD	018aa1H
	DD	0186cdH
	DD	0187eaH
	DD	00H
	DD	018aa2H
	DD	0186d2H
	DD	0187e7H
	DD	00H
	DD	018aa3H
	DD	0186d7H
	DD	0187e9H
	DD	00H
	DD	018aa4H
	DD	018970H
	DD	018814H
	DD	00H
	DD	018aa5H
	DD	018975H
	DD	018815H
	DD	00H
	DD	018e4dH
	DD	018975H
	DD	018cc8H
	DD	00H
	DD	018e57H
	DD	018975H
	DD	018c9cH
	DD	00H
	DD	018aa6H
	DD	0186dcH
	DD	018801H
	DD	00H
	DD	018aa7H
	DD	0186e1H
	DD	018801H
	DD	00H
	DD	018aa8H
	DD	0186e6H
	DD	018801H
	DD	00H
	DD	018aa9H
	DD	0186ebH
	DD	018801H
	DD	00H
	DD	018aaaH
	DD	0186dcH
	DD	0187e9H
	DD	00H
	DD	018aabH
	DD	0186e1H
	DD	0187e7H
	DD	00H
	DD	018aacH
	DD	0186e6H
	DD	0187eaH
	DD	00H
	DD	018aadH
	DD	0186ebH
	DD	0187e8H
	DD	00H
	DD	018aaeH
	DD	01897aH
	DD	018814H
	DD	00H
	DD	018aafH
	DD	01897fH
	DD	018815H
	DD	00H
	DD	018e4eH
	DD	01897fH
	DD	018cc8H
	DD	00H
	DD	018e58H
	DD	01897fH
	DD	018c9cH
	DD	00H
	DD	018ab0H
	DD	0186f0H
	DD	01882cH
	DD	00H
	DD	018ab1H
	DD	0186f5H
	DD	01882cH
	DD	00H
	DD	018ab2H
	DD	0186faH
	DD	01882cH
	DD	00H
	DD	018ab3H
	DD	0186ffH
	DD	01882cH
	DD	00H
	DD	018ab4H
	DD	0186f0H
	DD	0187e8H
	DD	00H
	DD	018ab5H
	DD	0186f5H
	DD	0187e7H
	DD	00H
	DD	018ab6H
	DD	0186faH
	DD	0187eaH
	DD	00H
	DD	018ab7H
	DD	0186ffH
	DD	0187e9H
	DD	00H
	DD	018ab8H
	DD	018984H
	DD	018814H
	DD	00H
	DD	018ab9H
	DD	018989H
	DD	018815H
	DD	00H
	DD	018e55H
	DD	018989H
	DD	018cc8H
	DD	00H
	DD	018e60H
	DD	018989H
	DD	018c9cH
	DD	00H
	DD	018abaH
	DD	018704H
	DD	018801H
	DD	00H
	DD	018abbH
	DD	018709H
	DD	018801H
	DD	00H
	DD	018abcH
	DD	01870eH
	DD	018801H
	DD	00H
	DD	018abdH
	DD	018713H
	DD	018801H
	DD	00H
	DD	018abeH
	DD	018704H
	DD	0187e9H
	DD	00H
	DD	018abfH
	DD	018709H
	DD	0187e8H
	DD	00H
	DD	018ac0H
	DD	01870eH
	DD	0187eaH
	DD	00H
	DD	018ac1H
	DD	018713H
	DD	0187e7H
	DD	00H
	DD	018ac2H
	DD	01898eH
	DD	018814H
	DD	00H
	DD	018ac3H
	DD	018993H
	DD	018815H
	DD	00H
	DD	018e56H
	DD	018993H
	DD	018cc8H
	DD	00H
	DD	018e61H
	DD	018993H
	DD	018c9cH
	DD	00H
	DD	018ac4H
	DD	018718H
	DD	018802H
	DD	00H
	DD	018ac5H
	DD	01871dH
	DD	018802H
	DD	00H
	DD	018ac6H
	DD	018722H
	DD	018802H
	DD	00H
	DD	018ac7H
	DD	018727H
	DD	018802H
	DD	00H
	DD	018ac8H
	DD	018718H
	DD	0187e7H
	DD	00H
	DD	018ac9H
	DD	01871dH
	DD	0187eaH
	DD	00H
	DD	018acaH
	DD	018722H
	DD	0187e8H
	DD	00H
	DD	018acbH
	DD	018727H
	DD	0187e9H
	DD	00H
	DD	018accH
	DD	018998H
	DD	018814H
	DD	00H
	DD	018acdH
	DD	01899dH
	DD	018815H
	DD	00H
	DD	018e4fH
	DD	01899dH
	DD	018cc8H
	DD	00H
	DD	018e59H
	DD	01899dH
	DD	018c9cH
	DD	00H
	DD	018aceH
	DD	01872cH
	DD	018802H
	DD	00H
	DD	018acfH
	DD	018731H
	DD	018802H
	DD	00H
	DD	018ad0H
	DD	018736H
	DD	018802H
	DD	00H
	DD	018ad1H
	DD	01873bH
	DD	018802H
	DD	00H
	DD	018ad2H
	DD	01872cH
	DD	0187e7H
	DD	00H
	DD	018ad3H
	DD	018731H
	DD	0187e9H
	DD	00H
	DD	018ad4H
	DD	018736H
	DD	0187eaH
	DD	00H
	DD	018ad5H
	DD	01873bH
	DD	0187e8H
	DD	00H
	DD	018ad6H
	DD	0189a2H
	DD	018814H
	DD	00H
	DD	018ad7H
	DD	0189a7H
	DD	018815H
	DD	00H
	DD	018e50H
	DD	0189a7H
	DD	018cc8H
	DD	00H
	DD	018e5bH
	DD	0189a7H
	DD	018c9cH
	DD	00H
	DD	018ad8H
	DD	018740H
	DD	018800H
	DD	00H
	DD	018ad9H
	DD	018745H
	DD	018800H
	DD	00H
	DD	018adaH
	DD	01874aH
	DD	018800H
	DD	00H
	DD	018adbH
	DD	01874fH
	DD	018800H
	DD	00H
	DD	018adcH
	DD	018740H
	DD	0187eaH
	DD	00H
	DD	018addH
	DD	018745H
	DD	0187e9H
	DD	00H
	DD	018adeH
	DD	01874aH
	DD	0187e7H
	DD	00H
	DD	018adfH
	DD	01874fH
	DD	0187e8H
	DD	00H
	DD	018ae0H
	DD	0189acH
	DD	018814H
	DD	00H
	DD	018ae1H
	DD	0189b1H
	DD	018815H
	DD	00H
	DD	018e52H
	DD	0189b1H
	DD	018cc8H
	DD	00H
	DD	018e5dH
	DD	0189b1H
	DD	018c9cH
	DD	00H
	DD	018ae2H
	DD	018754H
	DD	0187ffH
	DD	00H
	DD	018ae3H
	DD	018759H
	DD	0187ffH
	DD	00H
	DD	018ae4H
	DD	01875eH
	DD	0187ffH
	DD	00H
	DD	018ae5H
	DD	018763H
	DD	0187ffH
	DD	00H
	DD	018ae6H
	DD	018754H
	DD	0187e8H
	DD	00H
	DD	018ae7H
	DD	018759H
	DD	0187eaH
	DD	00H
	DD	018ae8H
	DD	01875eH
	DD	0187e9H
	DD	00H
	DD	018ae9H
	DD	018763H
	DD	0187e7H
	DD	00H
	DD	018aeaH
	DD	0189b6H
	DD	018814H
	DD	00H
	DD	018aebH
	DD	0189bbH
	DD	018815H
	DD	00H
	DD	018e51H
	DD	0189bbH
	DD	018cc8H
	DD	00H
	DD	018e5cH
	DD	0189bbH
	DD	018c9cH
	DD	00H
	DD	018aecH
	DD	018768H
	DD	018801H
	DD	00H
	DD	018aedH
	DD	01876dH
	DD	018801H
	DD	00H
	DD	018aeeH
	DD	018772H
	DD	018801H
	DD	00H
	DD	018aefH
	DD	018777H
	DD	018801H
	DD	00H
	DD	018af0H
	DD	018768H
	DD	0187e9H
	DD	00H
	DD	018af1H
	DD	01876dH
	DD	0187e8H
	DD	00H
	DD	018af2H
	DD	018772H
	DD	0187e7H
	DD	00H
	DD	018af3H
	DD	018777H
	DD	0187eaH
	DD	00H
	DD	018af4H
	DD	0189c0H
	DD	018814H
	DD	00H
	DD	018af5H
	DD	0189c5H
	DD	018815H
	DD	00H
	DD	018e54H
	DD	0189c5H
	DD	018cc8H
	DD	00H
	DD	018e5fH
	DD	0189c5H
	DD	018c9cH
	DD	00H
	DD	018af6H
	DD	01877cH
	DD	01882cH
	DD	00H
	DD	018af7H
	DD	018781H
	DD	01882cH
	DD	00H
	DD	018af8H
	DD	018786H
	DD	01882cH
	DD	00H
	DD	018af9H
	DD	01878bH
	DD	01882cH
	DD	00H
	DD	018afaH
	DD	01877cH
	DD	0187eaH
	DD	00H
	DD	018afbH
	DD	018781H
	DD	0187e7H
	DD	00H
	DD	018afcH
	DD	018786H
	DD	0187e9H
	DD	00H
	DD	018afdH
	DD	01878bH
	DD	0187e8H
	DD	00H
	DD	018afeH
	DD	0189caH
	DD	018814H
	DD	00H
	DD	018affH
	DD	0189cfH
	DD	018815H
	DD	00H
	DD	018e53H
	DD	0189cfH
	DD	018cc8H
	DD	00H
	DD	018e5eH
	DD	0189cfH
	DD	018c9cH
	DD	00H
	DD	018b3bH
	DD	018b39H
	DD	018b3aH
	DD	00H
	DD	018b3bH
	DD	018b3aH
	DD	018b39H
	DD	00H
?RideCodeMode@@3PAUtagRideCodeMode@@A DD 018816H	; RideCodeMode
	DD	01H
	DD	018806H
	DD	02H
	DD	01880aH
	DD	04H
	DD	0187b7H
	DD	08H
	DD	0187c0H
	DD	010H
	DD	0187bbH
	DD	020H
	DD	0187faH
	DD	040H
	DD	0187d6H
	DD	080H
	DD	018814H
	DD	0100H
	DD	018815H
	DD	0200H
	DD	018c9cH
	DD	0800H
	DD	018cc8H
	DD	0400H
	DD	018812H
	DD	01000H
	DD	018811H
	DD	02000H
	DD	018a28H
	DD	04000H
	DD	018a2bH
	DD	08000H
	DD	018f30H
	DD	010000H
	DD	018f31H
	DD	020000H
	DD	018f68H
	DD	040000H
	DD	0187fcH
	DD	080000H
	DD	0187d3H
	DD	0100000H
	DD	018fa9H
	DD	0200000H
	DD	018faaH
	DD	0400000H
	DD	018a09H
	DD	0800000H
	DD	018a0aH
	DD	01000000H
	DD	019394H
	DD	02000000H
	DD	0187b2H
	DD	04000000H
?RideNoList@@3PAUtagRideNoList@@A DD 018bb9H		; RideNoList
	DD	018bbaH
	DD	018bbbH
	DD	018bbcH
	DD	018bbdH
	DD	018bbeH
	DD	018bbfH
	DD	018bc0H
	DD	018a90H
	DD	018a91H
	DD	018e5aH
	DD	018e65H
	DD	018849H
	DD	018844H
	DD	01885dH
	DD	018ee5H
	DD	018f0dH
	DD	018f19H
	DD	018f76H
	ORG $+32
	DD	018bc1H
	DD	018bc2H
	DD	018bc3H
	DD	018bc4H
	DD	018bc5H
	DD	018bc6H
	DD	018bc7H
	DD	018bc8H
	DD	018a9aH
	DD	018a9bH
	DD	018e62H
	DD	018e64H
	DD	018849H
	DD	018844H
	DD	01885dH
	DD	018ee6H
	DD	018f0eH
	DD	018f1aH
	DD	018f77H
	ORG $+32
	DD	018bc9H
	DD	018bcaH
	DD	018bcbH
	DD	018bccH
	DD	018bcdH
	DD	018bceH
	DD	018bcfH
	DD	018bd0H
	DD	018aa4H
	DD	018aa5H
	DD	018e57H
	DD	018e4dH
	DD	018849H
	DD	018844H
	DD	01885dH
	DD	018ee7H
	DD	018f0fH
	DD	018f1bH
	DD	018f78H
	ORG $+32
	DD	018bd1H
	DD	018bd2H
	DD	018bd3H
	DD	018bd4H
	DD	018bd5H
	DD	018bd6H
	DD	018bd7H
	DD	018bd8H
	DD	018aaeH
	DD	018aafH
	DD	018e58H
	DD	018e4eH
	DD	018849H
	DD	018844H
	DD	01885dH
	DD	018ee8H
	DD	018f10H
	DD	018f1cH
	DD	018f79H
	ORG $+32
	DD	018bd9H
	DD	018bdaH
	DD	018bdbH
	DD	018bdcH
	DD	018bddH
	DD	018bdeH
	DD	018bdfH
	DD	018be0H
	DD	018ab8H
	DD	018ab9H
	DD	018e60H
	DD	018e55H
	DD	018849H
	DD	018844H
	DD	01885dH
	DD	018ee9H
	DD	018f11H
	DD	018f1dH
	DD	018f7aH
	ORG $+32
	DD	018be1H
	DD	018be2H
	DD	018be3H
	DD	018be4H
	DD	018be5H
	DD	018be6H
	DD	018be7H
	DD	018be8H
	DD	018ac2H
	DD	018ac3H
	DD	018e61H
	DD	018e56H
	DD	018849H
	DD	018844H
	DD	01885dH
	DD	018eeaH
	DD	018f12H
	DD	018f1eH
	DD	018f7bH
	ORG $+32
	DD	018be9H
	DD	018beaH
	DD	018bebH
	DD	018becH
	DD	018bedH
	DD	018beeH
	DD	018befH
	DD	018bf0H
	DD	018accH
	DD	018acdH
	DD	018e59H
	DD	018e4fH
	DD	018849H
	DD	018844H
	DD	01885dH
	DD	018eebH
	DD	018f13H
	DD	018f1fH
	DD	018f7cH
	ORG $+32
	DD	018bf1H
	DD	018bf2H
	DD	018bf3H
	DD	018bf4H
	DD	018bf5H
	DD	018bf6H
	DD	018bf7H
	DD	018bf8H
	DD	018ad6H
	DD	018ad7H
	DD	018e5bH
	DD	018e50H
	DD	018849H
	DD	018844H
	DD	01885dH
	DD	018eecH
	DD	018f14H
	DD	018f20H
	DD	018f7dH
	ORG $+32
	DD	018bf9H
	DD	018bfaH
	DD	018bfbH
	DD	018bfcH
	DD	018bfdH
	DD	018bfeH
	DD	018bffH
	DD	018c00H
	DD	018ae0H
	DD	018ae1H
	DD	018e5dH
	DD	018e52H
	DD	018849H
	DD	018844H
	DD	01885dH
	DD	018eedH
	DD	018f15H
	DD	018f21H
	DD	018f7eH
	ORG $+32
	DD	018c01H
	DD	018c02H
	DD	018c03H
	DD	018c04H
	DD	018c05H
	DD	018c06H
	DD	018c07H
	DD	018c08H
	DD	018aeaH
	DD	018aebH
	DD	018e5cH
	DD	018e51H
	DD	018849H
	DD	018844H
	DD	01885dH
	DD	018eeeH
	DD	018f16H
	DD	018f22H
	DD	018f7fH
	ORG $+32
	DD	018c09H
	DD	018c0aH
	DD	018c0bH
	DD	018c0cH
	DD	018c0dH
	DD	018c0eH
	DD	018c0fH
	DD	018c10H
	DD	018af4H
	DD	018af5H
	DD	018e5fH
	DD	018e54H
	DD	018849H
	DD	018844H
	DD	01885dH
	DD	018eefH
	DD	018f17H
	DD	018f23H
	DD	018f80H
	ORG $+32
	DD	018c11H
	DD	018c12H
	DD	018c13H
	DD	018c14H
	DD	018c15H
	DD	018c16H
	DD	018c17H
	DD	018c18H
	DD	018afeH
	DD	018affH
	DD	018e5eH
	DD	018e53H
	DD	018849H
	DD	018844H
	DD	01885dH
	DD	018ef0H
	DD	018f18H
	DD	018f24H
	DD	018f81H
	ORG $+32
?RPlistMode@@3PAUtagRidePetList@@A DD 0186a0H		; RPlistMode
	DD	00H
	DD	0186a5H
	DD	00H
	DD	0186aaH
	DD	00H
	DD	0186afH
	DD	00H
	DD	0186b4H
	DD	01H
	DD	0186b9H
	DD	01H
	DD	0186beH
	DD	01H
	DD	0186c3H
	DD	01H
	DD	0186c8H
	DD	02H
	DD	0186cdH
	DD	02H
	DD	0186d2H
	DD	02H
	DD	0186d7H
	DD	02H
	DD	0186dcH
	DD	03H
	DD	0186e1H
	DD	03H
	DD	0186e6H
	DD	03H
	DD	0186ebH
	DD	03H
	DD	0186f0H
	DD	04H
	DD	0186f5H
	DD	04H
	DD	0186faH
	DD	04H
	DD	0186ffH
	DD	04H
	DD	018704H
	DD	05H
	DD	018709H
	DD	05H
	DD	01870eH
	DD	05H
	DD	018713H
	DD	05H
	DD	018718H
	DD	06H
	DD	01871dH
	DD	06H
	DD	018722H
	DD	06H
	DD	018727H
	DD	06H
	DD	01872cH
	DD	07H
	DD	018731H
	DD	07H
	DD	018736H
	DD	07H
	DD	01873bH
	DD	07H
	DD	018740H
	DD	08H
	DD	018745H
	DD	08H
	DD	01874aH
	DD	08H
	DD	01874fH
	DD	08H
	DD	018754H
	DD	09H
	DD	018759H
	DD	09H
	DD	01875eH
	DD	09H
	DD	018763H
	DD	09H
	DD	018768H
	DD	0aH
	DD	01876dH
	DD	0aH
	DD	018772H
	DD	0aH
	DD	018777H
	DD	0aH
	DD	01877cH
	DD	0bH
	DD	018781H
	DD	0bH
	DD	018786H
	DD	0bH
	DD	01878bH
	DD	0bH
_DATA	ENDS
PUBLIC	?AdrnInit@@YAHPBD0H@Z				; AdrnInit
PUBLIC	?InitPteernSeparationBin@@YAXPBD@Z		; InitPteernSeparationBin
PUBLIC	?getfilesize@@YAHPAU_iobuf@@@Z			; getfilesize
PUBLIC	??_C@_01KICIPPFI@?2?$AA@			; `string'
PUBLIC	??_C@_03EMIMMIHL@?$CK?4?$CK?$AA@		; `string'
PUBLIC	??_C@_06PDPEOAFG@?$CFs?1?1?$CFs?$AA@		; `string'
PUBLIC	??_C@_0N@KDCKLNDG@?$CFs?1?1adrn?4bin?$AA@	; `string'
PUBLIC	??_C@_0N@OBDDOEEE@?$CFs?1?1real?4bin?$AA@	; `string'
PUBLIC	??_C@_0BA@DMKBCIEN@?$CFs?1?1spradrn?4bin?$AA@	; `string'
PUBLIC	??_C@_0M@FLJNEGFM@?$CFs?1?1spr?4bin?$AA@	; `string'
PUBLIC	??_C@_02JDPG@rb?$AA@				; `string'
EXTRN	__imp__GetCurrentDirectoryA@8:PROC
EXTRN	__imp__FindClose@4:PROC
EXTRN	__imp__FindFirstFileA@8:PROC
EXTRN	__imp__FindNextFileA@8:PROC
EXTRN	__imp__lstrcpyA@8:PROC
EXTRN	__imp__lstrcatA@8:PROC
EXTRN	__imp__wsprintfA:PROC
EXTRN	__imp__fopen_s:PROC
EXTRN	__imp__fclose:PROC
EXTRN	__imp__feof:PROC
EXTRN	__imp__fread:PROC
EXTRN	__imp__fseek:PROC
EXTRN	__imp__ftell:PROC
EXTRN	?InitSprBinFileOpen@@YAHPAD0@Z:PROC		; InitSprBinFileOpen
EXTRN	@_RTC_CheckStackVars@8:PROC
EXTRN	@__security_check_cookie@4:PROC
EXTRN	__RTC_CheckEsp:PROC
EXTRN	__RTC_InitBase:PROC
EXTRN	__RTC_Shutdown:PROC
EXTRN	?adrnbuff@@3PAUADRNBIN@@A:BYTE			; adrnbuff
EXTRN	?bitmapnumbertable@@3PAKA:BYTE			; bitmapnumbertable
EXTRN	?Realbinfp@@3PAPAU_iobuf@@A:BYTE		; Realbinfp
EXTRN	___security_cookie:DWORD
;	COMDAT rtc$TMZ
rtc$TMZ	SEGMENT
__RTC_Shutdown.rtc$TMZ DD FLAT:__RTC_Shutdown
rtc$TMZ	ENDS
;	COMDAT rtc$IMZ
rtc$IMZ	SEGMENT
__RTC_InitBase.rtc$IMZ DD FLAT:__RTC_InitBase
rtc$IMZ	ENDS
;	COMDAT ??_C@_02JDPG@rb?$AA@
CONST	SEGMENT
??_C@_02JDPG@rb?$AA@ DB 'rb', 00H			; `string'
CONST	ENDS
;	COMDAT ??_C@_0M@FLJNEGFM@?$CFs?1?1spr?4bin?$AA@
CONST	SEGMENT
??_C@_0M@FLJNEGFM@?$CFs?1?1spr?4bin?$AA@ DB '%s//spr.bin', 00H ; `string'
CONST	ENDS
;	COMDAT ??_C@_0BA@DMKBCIEN@?$CFs?1?1spradrn?4bin?$AA@
CONST	SEGMENT
??_C@_0BA@DMKBCIEN@?$CFs?1?1spradrn?4bin?$AA@ DB '%s//spradrn.bin', 00H ; `string'
CONST	ENDS
;	COMDAT ??_C@_0N@OBDDOEEE@?$CFs?1?1real?4bin?$AA@
CONST	SEGMENT
??_C@_0N@OBDDOEEE@?$CFs?1?1real?4bin?$AA@ DB '%s//real.bin', 00H ; `string'
CONST	ENDS
;	COMDAT ??_C@_0N@KDCKLNDG@?$CFs?1?1adrn?4bin?$AA@
CONST	SEGMENT
??_C@_0N@KDCKLNDG@?$CFs?1?1adrn?4bin?$AA@ DB '%s//adrn.bin', 00H ; `string'
CONST	ENDS
;	COMDAT ??_C@_06PDPEOAFG@?$CFs?1?1?$CFs?$AA@
CONST	SEGMENT
??_C@_06PDPEOAFG@?$CFs?1?1?$CFs?$AA@ DB '%s//%s', 00H	; `string'
CONST	ENDS
;	COMDAT ??_C@_03EMIMMIHL@?$CK?4?$CK?$AA@
CONST	SEGMENT
??_C@_03EMIMMIHL@?$CK?4?$CK?$AA@ DB '*.*', 00H		; `string'
CONST	ENDS
;	COMDAT ??_C@_01KICIPPFI@?2?$AA@
CONST	SEGMENT
??_C@_01KICIPPFI@?2?$AA@ DB '\', 00H			; `string'
CONST	ENDS
; Function compile flags: /Odtp /RTCsu /ZI
; File c:\users\administrator\desktop\????? ??\????? ??\client source code\other\ptternseparationbin.cpp
;	COMDAT ?getfilesize@@YAHPAU_iobuf@@@Z
_TEXT	SEGMENT
_size$ = -8						; size = 4
_fp$ = 8						; size = 4
?getfilesize@@YAHPAU_iobuf@@@Z PROC			; getfilesize, COMDAT

; 19   : {

  00000	55		 push	 ebp
  00001	8b ec		 mov	 ebp, esp
  00003	81 ec cc 00 00
	00		 sub	 esp, 204		; 000000ccH
  00009	53		 push	 ebx
  0000a	56		 push	 esi
  0000b	57		 push	 edi
  0000c	8d bd 34 ff ff
	ff		 lea	 edi, DWORD PTR [ebp-204]
  00012	b9 33 00 00 00	 mov	 ecx, 51			; 00000033H
  00017	b8 cc cc cc cc	 mov	 eax, -858993460		; ccccccccH
  0001c	f3 ab		 rep stosd

; 20   : 	if (fp == NULL) return 0;

  0001e	83 7d 08 00	 cmp	 DWORD PTR _fp$[ebp], 0
  00022	75 04		 jne	 SHORT $LN2@getfilesiz
  00024	33 c0		 xor	 eax, eax
  00026	eb 50		 jmp	 SHORT $LN1@getfilesiz
$LN2@getfilesiz:

; 21   : 	int size;
; 22   : 	fseek(fp, 0, SEEK_END);

  00028	8b f4		 mov	 esi, esp
  0002a	6a 02		 push	 2
  0002c	6a 00		 push	 0
  0002e	8b 45 08	 mov	 eax, DWORD PTR _fp$[ebp]
  00031	50		 push	 eax
  00032	ff 15 00 00 00
	00		 call	 DWORD PTR __imp__fseek
  00038	83 c4 0c	 add	 esp, 12			; 0000000cH
  0003b	3b f4		 cmp	 esi, esp
  0003d	e8 00 00 00 00	 call	 __RTC_CheckEsp

; 23   : 	size = ftell(fp);

  00042	8b f4		 mov	 esi, esp
  00044	8b 45 08	 mov	 eax, DWORD PTR _fp$[ebp]
  00047	50		 push	 eax
  00048	ff 15 00 00 00
	00		 call	 DWORD PTR __imp__ftell
  0004e	83 c4 04	 add	 esp, 4
  00051	3b f4		 cmp	 esi, esp
  00053	e8 00 00 00 00	 call	 __RTC_CheckEsp
  00058	89 45 f8	 mov	 DWORD PTR _size$[ebp], eax

; 24   : 	fseek(fp, 0, SEEK_SET);

  0005b	8b f4		 mov	 esi, esp
  0005d	6a 00		 push	 0
  0005f	6a 00		 push	 0
  00061	8b 45 08	 mov	 eax, DWORD PTR _fp$[ebp]
  00064	50		 push	 eax
  00065	ff 15 00 00 00
	00		 call	 DWORD PTR __imp__fseek
  0006b	83 c4 0c	 add	 esp, 12			; 0000000cH
  0006e	3b f4		 cmp	 esi, esp
  00070	e8 00 00 00 00	 call	 __RTC_CheckEsp

; 25   : 	return size;

  00075	8b 45 f8	 mov	 eax, DWORD PTR _size$[ebp]
$LN1@getfilesiz:

; 26   : }

  00078	5f		 pop	 edi
  00079	5e		 pop	 esi
  0007a	5b		 pop	 ebx
  0007b	81 c4 cc 00 00
	00		 add	 esp, 204		; 000000ccH
  00081	3b ec		 cmp	 ebp, esp
  00083	e8 00 00 00 00	 call	 __RTC_CheckEsp
  00088	8b e5		 mov	 esp, ebp
  0008a	5d		 pop	 ebp
  0008b	c3		 ret	 0
?getfilesize@@YAHPAU_iobuf@@@Z ENDP			; getfilesize
_TEXT	ENDS
; Function compile flags: /Odtp /RTCsu /ZI
; File c:\users\administrator\desktop\????? ??\????? ??\client source code\other\ptternseparationbin.cpp
;	COMDAT ?InitPteernSeparationBin@@YAXPBD@Z
_TEXT	SEGMENT
_FilePath$1 = -2168					; size = 200
_szFindSprName$2 = -1960				; size = 260
_szFindSprAdrnName$3 = -1692				; size = 260
_szFindRealName$4 = -1424				; size = 260
_szFindAdrnName$5 = -1156				; size = 260
_szFile$6 = -888					; size = 260
_index$ = -620						; size = 4
_hFind$ = -608						; size = 4
_wfd$ = -596						; size = 320
_szFind$ = -268						; size = 260
__$ArrayPad$ = -4					; size = 4
_lpszPath$ = 8						; size = 4
?InitPteernSeparationBin@@YAXPBD@Z PROC			; InitPteernSeparationBin, COMDAT

; 32   : {

  00000	55		 push	 ebp
  00001	8b ec		 mov	 ebp, esp
  00003	81 ec 3c 0c 00
	00		 sub	 esp, 3132		; 00000c3cH
  00009	53		 push	 ebx
  0000a	56		 push	 esi
  0000b	57		 push	 edi
  0000c	8d bd c4 f3 ff
	ff		 lea	 edi, DWORD PTR [ebp-3132]
  00012	b9 0f 03 00 00	 mov	 ecx, 783		; 0000030fH
  00017	b8 cc cc cc cc	 mov	 eax, -858993460		; ccccccccH
  0001c	f3 ab		 rep stosd
  0001e	a1 00 00 00 00	 mov	 eax, DWORD PTR ___security_cookie
  00023	33 c5		 xor	 eax, ebp
  00025	89 45 fc	 mov	 DWORD PTR __$ArrayPad$[ebp], eax

; 33   : 
; 34   : 	TCHAR szFind[MAX_PATH]; 
; 35   : 	lstrcpy(szFind, lpszPath); 

  00028	8b f4		 mov	 esi, esp
  0002a	8b 45 08	 mov	 eax, DWORD PTR _lpszPath$[ebp]
  0002d	50		 push	 eax
  0002e	8d 8d f4 fe ff
	ff		 lea	 ecx, DWORD PTR _szFind$[ebp]
  00034	51		 push	 ecx
  00035	ff 15 00 00 00
	00		 call	 DWORD PTR __imp__lstrcpyA@8
  0003b	3b f4		 cmp	 esi, esp
  0003d	e8 00 00 00 00	 call	 __RTC_CheckEsp

; 36   : 	lstrcat(szFind, "\\"); 

  00042	8b f4		 mov	 esi, esp
  00044	68 00 00 00 00	 push	 OFFSET ??_C@_01KICIPPFI@?2?$AA@
  00049	8d 85 f4 fe ff
	ff		 lea	 eax, DWORD PTR _szFind$[ebp]
  0004f	50		 push	 eax
  00050	ff 15 00 00 00
	00		 call	 DWORD PTR __imp__lstrcatA@8
  00056	3b f4		 cmp	 esi, esp
  00058	e8 00 00 00 00	 call	 __RTC_CheckEsp

; 37   : 	lstrcat(szFind, "*.*"); // 找所有文件 

  0005d	8b f4		 mov	 esi, esp
  0005f	68 00 00 00 00	 push	 OFFSET ??_C@_03EMIMMIHL@?$CK?4?$CK?$AA@
  00064	8d 85 f4 fe ff
	ff		 lea	 eax, DWORD PTR _szFind$[ebp]
  0006a	50		 push	 eax
  0006b	ff 15 00 00 00
	00		 call	 DWORD PTR __imp__lstrcatA@8
  00071	3b f4		 cmp	 esi, esp
  00073	e8 00 00 00 00	 call	 __RTC_CheckEsp

; 38   : 	WIN32_FIND_DATA wfd; 
; 39   : 	HANDLE hFind = FindFirstFile(szFind, &wfd); 

  00078	8b f4		 mov	 esi, esp
  0007a	8d 85 ac fd ff
	ff		 lea	 eax, DWORD PTR _wfd$[ebp]
  00080	50		 push	 eax
  00081	8d 8d f4 fe ff
	ff		 lea	 ecx, DWORD PTR _szFind$[ebp]
  00087	51		 push	 ecx
  00088	ff 15 00 00 00
	00		 call	 DWORD PTR __imp__FindFirstFileA@8
  0008e	3b f4		 cmp	 esi, esp
  00090	e8 00 00 00 00	 call	 __RTC_CheckEsp
  00095	89 85 a0 fd ff
	ff		 mov	 DWORD PTR _hFind$[ebp], eax

; 40   : 	if (hFind == INVALID_HANDLE_VALUE) // 如果没有找到或查找失败 

  0009b	83 bd a0 fd ff
	ff ff		 cmp	 DWORD PTR _hFind$[ebp], -1
  000a2	75 05		 jne	 SHORT $LN5@InitPteern

; 41   : 		return; 

  000a4	e9 d0 01 00 00	 jmp	 $LN1@InitPteern
$LN5@InitPteern:

; 42   : 	int index = 2;

  000a9	c7 85 94 fd ff
	ff 02 00 00 00	 mov	 DWORD PTR _index$[ebp], 2
$LN4@InitPteern:

; 43   : 	do 
; 44   : 	{ 
; 45   : 		if (wfd.cFileName[0] == '.') 

  000b3	b8 01 00 00 00	 mov	 eax, 1
  000b8	6b c8 00	 imul	 ecx, eax, 0
  000bb	0f be 94 0d d8
	fd ff ff	 movsx	 edx, BYTE PTR _wfd$[ebp+ecx+44]
  000c3	83 fa 2e	 cmp	 edx, 46			; 0000002eH
  000c6	75 05		 jne	 SHORT $LN6@InitPteern

; 46   : 			continue; // 过滤这两个目录 

  000c8	e9 71 01 00 00	 jmp	 $LN2@InitPteern
$LN6@InitPteern:

; 47   : 		if (wfd.dwFileAttributes & FILE_ATTRIBUTE_DIRECTORY){ 

  000cd	8b 85 ac fd ff
	ff		 mov	 eax, DWORD PTR _wfd$[ebp]
  000d3	83 e0 10	 and	 eax, 16			; 00000010H
  000d6	0f 84 62 01 00
	00		 je	 $LN2@InitPteern

; 48   : 			TCHAR szFile[MAX_PATH]; 
; 49   : 			TCHAR szFindAdrnName[MAX_PATH]; 
; 50   : 			TCHAR szFindRealName[MAX_PATH]; 
; 51   : 			TCHAR szFindSprAdrnName[MAX_PATH]; 
; 52   : 			TCHAR szFindSprName[MAX_PATH]; 
; 53   : 
; 54   : 			char FilePath[200]; 
; 55   : 			GetCurrentDirectory(200,FilePath); 

  000dc	8b f4		 mov	 esi, esp
  000de	8d 85 88 f7 ff
	ff		 lea	 eax, DWORD PTR _FilePath$1[ebp]
  000e4	50		 push	 eax
  000e5	68 c8 00 00 00	 push	 200			; 000000c8H
  000ea	ff 15 00 00 00
	00		 call	 DWORD PTR __imp__GetCurrentDirectoryA@8
  000f0	3b f4		 cmp	 esi, esp
  000f2	e8 00 00 00 00	 call	 __RTC_CheckEsp

; 56   : 			wsprintf(szFile, "%s//%s", FilePath, lpszPath); 

  000f7	8b f4		 mov	 esi, esp
  000f9	8b 45 08	 mov	 eax, DWORD PTR _lpszPath$[ebp]
  000fc	50		 push	 eax
  000fd	8d 8d 88 f7 ff
	ff		 lea	 ecx, DWORD PTR _FilePath$1[ebp]
  00103	51		 push	 ecx
  00104	68 00 00 00 00	 push	 OFFSET ??_C@_06PDPEOAFG@?$CFs?1?1?$CFs?$AA@
  00109	8d 95 88 fc ff
	ff		 lea	 edx, DWORD PTR _szFile$6[ebp]
  0010f	52		 push	 edx
  00110	ff 15 00 00 00
	00		 call	 DWORD PTR __imp__wsprintfA
  00116	83 c4 10	 add	 esp, 16			; 00000010H
  00119	3b f4		 cmp	 esi, esp
  0011b	e8 00 00 00 00	 call	 __RTC_CheckEsp

; 57   : 			wsprintf(szFile, "%s//%s", lpszPath, wfd.cFileName); 

  00120	8b f4		 mov	 esi, esp
  00122	8d 85 d8 fd ff
	ff		 lea	 eax, DWORD PTR _wfd$[ebp+44]
  00128	50		 push	 eax
  00129	8b 4d 08	 mov	 ecx, DWORD PTR _lpszPath$[ebp]
  0012c	51		 push	 ecx
  0012d	68 00 00 00 00	 push	 OFFSET ??_C@_06PDPEOAFG@?$CFs?1?1?$CFs?$AA@
  00132	8d 95 88 fc ff
	ff		 lea	 edx, DWORD PTR _szFile$6[ebp]
  00138	52		 push	 edx
  00139	ff 15 00 00 00
	00		 call	 DWORD PTR __imp__wsprintfA
  0013f	83 c4 10	 add	 esp, 16			; 00000010H
  00142	3b f4		 cmp	 esi, esp
  00144	e8 00 00 00 00	 call	 __RTC_CheckEsp

; 58   : 
; 59   : #ifdef 分离补丁加密
; 60   : 			wsprintf(szFindAdrnName, "%s//adrn.sq", szFile); 
; 61   : 			wsprintf(szFindRealName, "%s//real.sq", szFile); 
; 62   : #else
; 63   : 			wsprintf(szFindAdrnName, "%s//adrn.bin", szFile);

  00149	8b f4		 mov	 esi, esp
  0014b	8d 85 88 fc ff
	ff		 lea	 eax, DWORD PTR _szFile$6[ebp]
  00151	50		 push	 eax
  00152	68 00 00 00 00	 push	 OFFSET ??_C@_0N@KDCKLNDG@?$CFs?1?1adrn?4bin?$AA@
  00157	8d 8d 7c fb ff
	ff		 lea	 ecx, DWORD PTR _szFindAdrnName$5[ebp]
  0015d	51		 push	 ecx
  0015e	ff 15 00 00 00
	00		 call	 DWORD PTR __imp__wsprintfA
  00164	83 c4 0c	 add	 esp, 12			; 0000000cH
  00167	3b f4		 cmp	 esi, esp
  00169	e8 00 00 00 00	 call	 __RTC_CheckEsp

; 64   : 			wsprintf(szFindRealName, "%s//real.bin", szFile);

  0016e	8b f4		 mov	 esi, esp
  00170	8d 85 88 fc ff
	ff		 lea	 eax, DWORD PTR _szFile$6[ebp]
  00176	50		 push	 eax
  00177	68 00 00 00 00	 push	 OFFSET ??_C@_0N@OBDDOEEE@?$CFs?1?1real?4bin?$AA@
  0017c	8d 8d 70 fa ff
	ff		 lea	 ecx, DWORD PTR _szFindRealName$4[ebp]
  00182	51		 push	 ecx
  00183	ff 15 00 00 00
	00		 call	 DWORD PTR __imp__wsprintfA
  00189	83 c4 0c	 add	 esp, 12			; 0000000cH
  0018c	3b f4		 cmp	 esi, esp
  0018e	e8 00 00 00 00	 call	 __RTC_CheckEsp

; 65   : #endif
; 66   : 
; 67   : 			if(AdrnInit(szFindAdrnName, szFindRealName, index)==TRUE){

  00193	8b 85 94 fd ff
	ff		 mov	 eax, DWORD PTR _index$[ebp]
  00199	50		 push	 eax
  0019a	8d 8d 70 fa ff
	ff		 lea	 ecx, DWORD PTR _szFindRealName$4[ebp]
  001a0	51		 push	 ecx
  001a1	8d 95 7c fb ff
	ff		 lea	 edx, DWORD PTR _szFindAdrnName$5[ebp]
  001a7	52		 push	 edx
  001a8	e8 00 00 00 00	 call	 ?AdrnInit@@YAHPBD0H@Z	; AdrnInit
  001ad	83 c4 0c	 add	 esp, 12			; 0000000cH
  001b0	83 f8 01	 cmp	 eax, 1
  001b3	75 7a		 jne	 SHORT $LN9@InitPteern

; 68   : #ifdef 分离补丁加密
; 69   : 				wsprintf(szFindSprAdrnName, "%s//spradrn.sq", szFile); 
; 70   : 				wsprintf(szFindSprName, "%s//spr.sq", szFile); 
; 71   : #else
; 72   : 				wsprintf(szFindSprAdrnName, "%s//spradrn.bin", szFile); 

  001b5	8b f4		 mov	 esi, esp
  001b7	8d 85 88 fc ff
	ff		 lea	 eax, DWORD PTR _szFile$6[ebp]
  001bd	50		 push	 eax
  001be	68 00 00 00 00	 push	 OFFSET ??_C@_0BA@DMKBCIEN@?$CFs?1?1spradrn?4bin?$AA@
  001c3	8d 8d 64 f9 ff
	ff		 lea	 ecx, DWORD PTR _szFindSprAdrnName$3[ebp]
  001c9	51		 push	 ecx
  001ca	ff 15 00 00 00
	00		 call	 DWORD PTR __imp__wsprintfA
  001d0	83 c4 0c	 add	 esp, 12			; 0000000cH
  001d3	3b f4		 cmp	 esi, esp
  001d5	e8 00 00 00 00	 call	 __RTC_CheckEsp

; 73   : 				wsprintf(szFindSprName, "%s//spr.bin", szFile); 

  001da	8b f4		 mov	 esi, esp
  001dc	8d 85 88 fc ff
	ff		 lea	 eax, DWORD PTR _szFile$6[ebp]
  001e2	50		 push	 eax
  001e3	68 00 00 00 00	 push	 OFFSET ??_C@_0M@FLJNEGFM@?$CFs?1?1spr?4bin?$AA@
  001e8	8d 8d 58 f8 ff
	ff		 lea	 ecx, DWORD PTR _szFindSprName$2[ebp]
  001ee	51		 push	 ecx
  001ef	ff 15 00 00 00
	00		 call	 DWORD PTR __imp__wsprintfA
  001f5	83 c4 0c	 add	 esp, 12			; 0000000cH
  001f8	3b f4		 cmp	 esi, esp
  001fa	e8 00 00 00 00	 call	 __RTC_CheckEsp

; 74   : #endif
; 75   : 				extern BOOL InitSprBinFileOpen( char *SPR_BIN, char *SPRADRN_BIN );
; 76   : 				InitSprBinFileOpen(szFindSprName,szFindSprAdrnName);

  001ff	8d 85 64 f9 ff
	ff		 lea	 eax, DWORD PTR _szFindSprAdrnName$3[ebp]
  00205	50		 push	 eax
  00206	8d 8d 58 f8 ff
	ff		 lea	 ecx, DWORD PTR _szFindSprName$2[ebp]
  0020c	51		 push	 ecx
  0020d	e8 00 00 00 00	 call	 ?InitSprBinFileOpen@@YAHPAD0@Z ; InitSprBinFileOpen
  00212	83 c4 08	 add	 esp, 8

; 77   : 				index++;

  00215	8b 85 94 fd ff
	ff		 mov	 eax, DWORD PTR _index$[ebp]
  0021b	83 c0 01	 add	 eax, 1
  0021e	89 85 94 fd ff
	ff		 mov	 DWORD PTR _index$[ebp], eax

; 78   : 				if(index>100)break;

  00224	83 bd 94 fd ff
	ff 64		 cmp	 DWORD PTR _index$[ebp], 100 ; 00000064H
  0022b	7e 02		 jle	 SHORT $LN9@InitPteern
  0022d	eb 34		 jmp	 SHORT $LN3@InitPteern
$LN9@InitPteern:

; 79   : 			}
; 80   : 			InitPteernSeparationBin(szFile); // 如果找到的是目录，则进入此目录进行递归

  0022f	8d 85 88 fc ff
	ff		 lea	 eax, DWORD PTR _szFile$6[ebp]
  00235	50		 push	 eax
  00236	e8 00 00 00 00	 call	 ?InitPteernSeparationBin@@YAXPBD@Z ; InitPteernSeparationBin
  0023b	83 c4 04	 add	 esp, 4
$LN2@InitPteern:

; 81   : 		}else{ 
; 82   : 
; 83   : 		} 
; 84   : 	} while (FindNextFile(hFind, &wfd)); 

  0023e	8b f4		 mov	 esi, esp
  00240	8d 85 ac fd ff
	ff		 lea	 eax, DWORD PTR _wfd$[ebp]
  00246	50		 push	 eax
  00247	8b 8d a0 fd ff
	ff		 mov	 ecx, DWORD PTR _hFind$[ebp]
  0024d	51		 push	 ecx
  0024e	ff 15 00 00 00
	00		 call	 DWORD PTR __imp__FindNextFileA@8
  00254	3b f4		 cmp	 esi, esp
  00256	e8 00 00 00 00	 call	 __RTC_CheckEsp
  0025b	85 c0		 test	 eax, eax
  0025d	0f 85 50 fe ff
	ff		 jne	 $LN4@InitPteern
$LN3@InitPteern:

; 85   : 	FindClose(hFind); // 关闭查找句柄 

  00263	8b f4		 mov	 esi, esp
  00265	8b 85 a0 fd ff
	ff		 mov	 eax, DWORD PTR _hFind$[ebp]
  0026b	50		 push	 eax
  0026c	ff 15 00 00 00
	00		 call	 DWORD PTR __imp__FindClose@4
  00272	3b f4		 cmp	 esi, esp
  00274	e8 00 00 00 00	 call	 __RTC_CheckEsp
$LN1@InitPteern:

; 86   : 
; 87   : } 

  00279	52		 push	 edx
  0027a	8b cd		 mov	 ecx, ebp
  0027c	50		 push	 eax
  0027d	8d 15 00 00 00
	00		 lea	 edx, DWORD PTR $LN21@InitPteern
  00283	e8 00 00 00 00	 call	 @_RTC_CheckStackVars@8
  00288	58		 pop	 eax
  00289	5a		 pop	 edx
  0028a	5f		 pop	 edi
  0028b	5e		 pop	 esi
  0028c	5b		 pop	 ebx
  0028d	8b 4d fc	 mov	 ecx, DWORD PTR __$ArrayPad$[ebp]
  00290	33 cd		 xor	 ecx, ebp
  00292	e8 00 00 00 00	 call	 @__security_check_cookie@4
  00297	81 c4 3c 0c 00
	00		 add	 esp, 3132		; 00000c3cH
  0029d	3b ec		 cmp	 ebp, esp
  0029f	e8 00 00 00 00	 call	 __RTC_CheckEsp
  002a4	8b e5		 mov	 esp, ebp
  002a6	5d		 pop	 ebp
  002a7	c3		 ret	 0
$LN21@InitPteern:
  002a8	08 00 00 00	 DD	 8
  002ac	00 00 00 00	 DD	 $LN20@InitPteern
$LN20@InitPteern:
  002b0	f4 fe ff ff	 DD	 -268			; fffffef4H
  002b4	04 01 00 00	 DD	 260			; 00000104H
  002b8	00 00 00 00	 DD	 $LN12@InitPteern
  002bc	ac fd ff ff	 DD	 -596			; fffffdacH
  002c0	40 01 00 00	 DD	 320			; 00000140H
  002c4	00 00 00 00	 DD	 $LN13@InitPteern
  002c8	88 fc ff ff	 DD	 -888			; fffffc88H
  002cc	04 01 00 00	 DD	 260			; 00000104H
  002d0	00 00 00 00	 DD	 $LN14@InitPteern
  002d4	7c fb ff ff	 DD	 -1156			; fffffb7cH
  002d8	04 01 00 00	 DD	 260			; 00000104H
  002dc	00 00 00 00	 DD	 $LN15@InitPteern
  002e0	70 fa ff ff	 DD	 -1424			; fffffa70H
  002e4	04 01 00 00	 DD	 260			; 00000104H
  002e8	00 00 00 00	 DD	 $LN16@InitPteern
  002ec	64 f9 ff ff	 DD	 -1692			; fffff964H
  002f0	04 01 00 00	 DD	 260			; 00000104H
  002f4	00 00 00 00	 DD	 $LN17@InitPteern
  002f8	58 f8 ff ff	 DD	 -1960			; fffff858H
  002fc	04 01 00 00	 DD	 260			; 00000104H
  00300	00 00 00 00	 DD	 $LN18@InitPteern
  00304	88 f7 ff ff	 DD	 -2168			; fffff788H
  00308	c8 00 00 00	 DD	 200			; 000000c8H
  0030c	00 00 00 00	 DD	 $LN19@InitPteern
$LN19@InitPteern:
  00310	46		 DB	 70			; 00000046H
  00311	69		 DB	 105			; 00000069H
  00312	6c		 DB	 108			; 0000006cH
  00313	65		 DB	 101			; 00000065H
  00314	50		 DB	 80			; 00000050H
  00315	61		 DB	 97			; 00000061H
  00316	74		 DB	 116			; 00000074H
  00317	68		 DB	 104			; 00000068H
  00318	00		 DB	 0
$LN18@InitPteern:
  00319	73		 DB	 115			; 00000073H
  0031a	7a		 DB	 122			; 0000007aH
  0031b	46		 DB	 70			; 00000046H
  0031c	69		 DB	 105			; 00000069H
  0031d	6e		 DB	 110			; 0000006eH
  0031e	64		 DB	 100			; 00000064H
  0031f	53		 DB	 83			; 00000053H
  00320	70		 DB	 112			; 00000070H
  00321	72		 DB	 114			; 00000072H
  00322	4e		 DB	 78			; 0000004eH
  00323	61		 DB	 97			; 00000061H
  00324	6d		 DB	 109			; 0000006dH
  00325	65		 DB	 101			; 00000065H
  00326	00		 DB	 0
$LN17@InitPteern:
  00327	73		 DB	 115			; 00000073H
  00328	7a		 DB	 122			; 0000007aH
  00329	46		 DB	 70			; 00000046H
  0032a	69		 DB	 105			; 00000069H
  0032b	6e		 DB	 110			; 0000006eH
  0032c	64		 DB	 100			; 00000064H
  0032d	53		 DB	 83			; 00000053H
  0032e	70		 DB	 112			; 00000070H
  0032f	72		 DB	 114			; 00000072H
  00330	41		 DB	 65			; 00000041H
  00331	64		 DB	 100			; 00000064H
  00332	72		 DB	 114			; 00000072H
  00333	6e		 DB	 110			; 0000006eH
  00334	4e		 DB	 78			; 0000004eH
  00335	61		 DB	 97			; 00000061H
  00336	6d		 DB	 109			; 0000006dH
  00337	65		 DB	 101			; 00000065H
  00338	00		 DB	 0
$LN16@InitPteern:
  00339	73		 DB	 115			; 00000073H
  0033a	7a		 DB	 122			; 0000007aH
  0033b	46		 DB	 70			; 00000046H
  0033c	69		 DB	 105			; 00000069H
  0033d	6e		 DB	 110			; 0000006eH
  0033e	64		 DB	 100			; 00000064H
  0033f	52		 DB	 82			; 00000052H
  00340	65		 DB	 101			; 00000065H
  00341	61		 DB	 97			; 00000061H
  00342	6c		 DB	 108			; 0000006cH
  00343	4e		 DB	 78			; 0000004eH
  00344	61		 DB	 97			; 00000061H
  00345	6d		 DB	 109			; 0000006dH
  00346	65		 DB	 101			; 00000065H
  00347	00		 DB	 0
$LN15@InitPteern:
  00348	73		 DB	 115			; 00000073H
  00349	7a		 DB	 122			; 0000007aH
  0034a	46		 DB	 70			; 00000046H
  0034b	69		 DB	 105			; 00000069H
  0034c	6e		 DB	 110			; 0000006eH
  0034d	64		 DB	 100			; 00000064H
  0034e	41		 DB	 65			; 00000041H
  0034f	64		 DB	 100			; 00000064H
  00350	72		 DB	 114			; 00000072H
  00351	6e		 DB	 110			; 0000006eH
  00352	4e		 DB	 78			; 0000004eH
  00353	61		 DB	 97			; 00000061H
  00354	6d		 DB	 109			; 0000006dH
  00355	65		 DB	 101			; 00000065H
  00356	00		 DB	 0
$LN14@InitPteern:
  00357	73		 DB	 115			; 00000073H
  00358	7a		 DB	 122			; 0000007aH
  00359	46		 DB	 70			; 00000046H
  0035a	69		 DB	 105			; 00000069H
  0035b	6c		 DB	 108			; 0000006cH
  0035c	65		 DB	 101			; 00000065H
  0035d	00		 DB	 0
$LN13@InitPteern:
  0035e	77		 DB	 119			; 00000077H
  0035f	66		 DB	 102			; 00000066H
  00360	64		 DB	 100			; 00000064H
  00361	00		 DB	 0
$LN12@InitPteern:
  00362	73		 DB	 115			; 00000073H
  00363	7a		 DB	 122			; 0000007aH
  00364	46		 DB	 70			; 00000046H
  00365	69		 DB	 105			; 00000069H
  00366	6e		 DB	 110			; 0000006eH
  00367	64		 DB	 100			; 00000064H
  00368	00		 DB	 0
?InitPteernSeparationBin@@YAXPBD@Z ENDP			; InitPteernSeparationBin
_TEXT	ENDS
; Function compile flags: /Odtp /RTCsu /ZI
; File c:\users\administrator\desktop\????? ??\????? ??\client source code\other\ptternseparationbin.cpp
;	COMDAT ?AdrnInit@@YAHPBD0H@Z
_TEXT	SEGMENT
_maxid$ = -124						; size = 4
_Addrbinfp$ = -112					; size = 4
_Realfp$ = -100						; size = 4
_tmpadrnbuff$ = -88					; size = 80
__$ArrayPad$ = -4					; size = 4
_strAdrnFileName$ = 8					; size = 4
_strRealFileName$ = 12					; size = 4
_index$ = 16						; size = 4
?AdrnInit@@YAHPBD0H@Z PROC				; AdrnInit, COMDAT

; 90   : {

  00000	55		 push	 ebp
  00001	8b ec		 mov	 ebp, esp
  00003	81 ec 40 01 00
	00		 sub	 esp, 320		; 00000140H
  00009	53		 push	 ebx
  0000a	56		 push	 esi
  0000b	57		 push	 edi
  0000c	8d bd c0 fe ff
	ff		 lea	 edi, DWORD PTR [ebp-320]
  00012	b9 50 00 00 00	 mov	 ecx, 80			; 00000050H
  00017	b8 cc cc cc cc	 mov	 eax, -858993460		; ccccccccH
  0001c	f3 ab		 rep stosd
  0001e	a1 00 00 00 00	 mov	 eax, DWORD PTR ___security_cookie
  00023	33 c5		 xor	 eax, ebp
  00025	89 45 fc	 mov	 DWORD PTR __$ArrayPad$[ebp], eax

; 91   : 	ADRNBIN tmpadrnbuff;
; 92   : 	FILE *Realfp, *Addrbinfp;
; 93   : 	nextMaxAdrnID = MaxAdrnID;

  00028	a1 00 00 00 00	 mov	 eax, DWORD PTR ?MaxAdrnID@@3HA ; MaxAdrnID
  0002d	a3 00 00 00 00	 mov	 DWORD PTR ?nextMaxAdrnID@@3HA, eax ; nextMaxAdrnID

; 94   : 	int maxid = MaxAdrnID;

  00032	a1 00 00 00 00	 mov	 eax, DWORD PTR ?MaxAdrnID@@3HA ; MaxAdrnID
  00037	89 45 84	 mov	 DWORD PTR _maxid$[ebp], eax

; 95   : 	if (fopen_s(&Addrbinfp, strAdrnFileName, "rb")) {

  0003a	8b f4		 mov	 esi, esp
  0003c	68 00 00 00 00	 push	 OFFSET ??_C@_02JDPG@rb?$AA@
  00041	8b 45 08	 mov	 eax, DWORD PTR _strAdrnFileName$[ebp]
  00044	50		 push	 eax
  00045	8d 4d 90	 lea	 ecx, DWORD PTR _Addrbinfp$[ebp]
  00048	51		 push	 ecx
  00049	ff 15 00 00 00
	00		 call	 DWORD PTR __imp__fopen_s
  0004f	83 c4 0c	 add	 esp, 12			; 0000000cH
  00052	3b f4		 cmp	 esi, esp
  00054	e8 00 00 00 00	 call	 __RTC_CheckEsp
  00059	85 c0		 test	 eax, eax
  0005b	74 07		 je	 SHORT $LN4@AdrnInit

; 96   : 		return FALSE;

  0005d	33 c0		 xor	 eax, eax
  0005f	e9 da 00 00 00	 jmp	 $LN1@AdrnInit
$LN4@AdrnInit:

; 97   : 	}
; 98   : 	if (fopen_s(&Realfp, strRealFileName, "rb")) {

  00064	8b f4		 mov	 esi, esp
  00066	68 00 00 00 00	 push	 OFFSET ??_C@_02JDPG@rb?$AA@
  0006b	8b 45 0c	 mov	 eax, DWORD PTR _strRealFileName$[ebp]
  0006e	50		 push	 eax
  0006f	8d 4d 9c	 lea	 ecx, DWORD PTR _Realfp$[ebp]
  00072	51		 push	 ecx
  00073	ff 15 00 00 00
	00		 call	 DWORD PTR __imp__fopen_s
  00079	83 c4 0c	 add	 esp, 12			; 0000000cH
  0007c	3b f4		 cmp	 esi, esp
  0007e	e8 00 00 00 00	 call	 __RTC_CheckEsp
  00083	85 c0		 test	 eax, eax
  00085	74 07		 je	 SHORT $LN2@AdrnInit

; 99   : 		return FALSE;

  00087	33 c0		 xor	 eax, eax
  00089	e9 b0 00 00 00	 jmp	 $LN1@AdrnInit
$LN2@AdrnInit:

; 100  : 	}
; 101  : #ifdef 分离补丁加密
; 102  : VMProtectBegin("bin");
; 103  : 	int size = getfilesize(Addrbinfp);
; 104  : 	char * sadrnbin = (char*)malloc(size);
; 105  : 	fread(sadrnbin, 1, size, Addrbinfp);
; 106  : 	TEA解密((long*)sadrnbin, (size / 4), (long *)VMProtectDecryptStringA(_分离补丁密钥));
; 107  : VMProtectEnd();
; 108  : 	int i = 0;
; 109  : 	for (i; i < size / sizeof(ADRNBIN); i++) {
; 110  : 		memcpy(&tmpadrnbuff, sadrnbin + i * sizeof(ADRNBIN), sizeof(ADRNBIN));
; 111  : 		if (adrnbuff[tmpadrnbuff.bitmapno + maxid].bitmapno)
; 112  : 		{
; 113  : 			__asm nop;
; 114  : 		}
; 115  : 		adrnbuff[tmpadrnbuff.bitmapno + maxid] = tmpadrnbuff;
; 116  : 		Realbinfp[tmpadrnbuff.bitmapno + maxid] = Realfp;
; 117  : 		if ((ULONG)MaxAdrnID < tmpadrnbuff.bitmapno + maxid) {
; 118  : 			MaxAdrnID = tmpadrnbuff.bitmapno + maxid;
; 119  : 		}
; 120  : 		if (tmpadrnbuff.attr.bmpnumber != 0) {
; 121  : 			bitmapnumbertable[tmpadrnbuff.attr.bmpnumber] = tmpadrnbuff.bitmapno + maxid;
; 122  : 		}
; 123  : 	}
; 124  : 	fclose(Addrbinfp);
; 125  : 	free(sadrnbin);
; 126  : #else
; 127  : 	while (!feof(Addrbinfp)) {

  0008e	8b f4		 mov	 esi, esp
  00090	8b 45 90	 mov	 eax, DWORD PTR _Addrbinfp$[ebp]
  00093	50		 push	 eax
  00094	ff 15 00 00 00
	00		 call	 DWORD PTR __imp__feof
  0009a	83 c4 04	 add	 esp, 4
  0009d	3b f4		 cmp	 esi, esp
  0009f	e8 00 00 00 00	 call	 __RTC_CheckEsp
  000a4	85 c0		 test	 eax, eax
  000a6	75 7b		 jne	 SHORT $LN3@AdrnInit

; 128  : 		fread(&tmpadrnbuff, sizeof(tmpadrnbuff), 1, Addrbinfp);

  000a8	8b f4		 mov	 esi, esp
  000aa	8b 45 90	 mov	 eax, DWORD PTR _Addrbinfp$[ebp]
  000ad	50		 push	 eax
  000ae	6a 01		 push	 1
  000b0	6a 50		 push	 80			; 00000050H
  000b2	8d 4d a8	 lea	 ecx, DWORD PTR _tmpadrnbuff$[ebp]
  000b5	51		 push	 ecx
  000b6	ff 15 00 00 00
	00		 call	 DWORD PTR __imp__fread
  000bc	83 c4 10	 add	 esp, 16			; 00000010H
  000bf	3b f4		 cmp	 esi, esp
  000c1	e8 00 00 00 00	 call	 __RTC_CheckEsp

; 129  : 		adrnbuff[tmpadrnbuff.bitmapno + maxid] = tmpadrnbuff;

  000c6	8b 45 a8	 mov	 eax, DWORD PTR _tmpadrnbuff$[ebp]
  000c9	03 45 84	 add	 eax, DWORD PTR _maxid$[ebp]
  000cc	6b f8 50	 imul	 edi, eax, 80
  000cf	81 c7 00 00 00
	00		 add	 edi, OFFSET ?adrnbuff@@3PAUADRNBIN@@A ; adrnbuff
  000d5	b9 14 00 00 00	 mov	 ecx, 20			; 00000014H
  000da	8d 75 a8	 lea	 esi, DWORD PTR _tmpadrnbuff$[ebp]
  000dd	f3 a5		 rep movsd

; 130  : 		Realbinfp[tmpadrnbuff.bitmapno + maxid] = Realfp;

  000df	8b 45 a8	 mov	 eax, DWORD PTR _tmpadrnbuff$[ebp]
  000e2	03 45 84	 add	 eax, DWORD PTR _maxid$[ebp]
  000e5	8b 4d 9c	 mov	 ecx, DWORD PTR _Realfp$[ebp]
  000e8	89 0c 85 00 00
	00 00		 mov	 DWORD PTR ?Realbinfp@@3PAPAU_iobuf@@A[eax*4], ecx

; 131  : 		if ((ULONG)MaxAdrnID < tmpadrnbuff.bitmapno + maxid) {

  000ef	8b 45 a8	 mov	 eax, DWORD PTR _tmpadrnbuff$[ebp]
  000f2	03 45 84	 add	 eax, DWORD PTR _maxid$[ebp]
  000f5	39 05 00 00 00
	00		 cmp	 DWORD PTR ?MaxAdrnID@@3HA, eax ; MaxAdrnID
  000fb	73 0b		 jae	 SHORT $LN6@AdrnInit

; 132  : 			MaxAdrnID = tmpadrnbuff.bitmapno + maxid;

  000fd	8b 45 a8	 mov	 eax, DWORD PTR _tmpadrnbuff$[ebp]
  00100	03 45 84	 add	 eax, DWORD PTR _maxid$[ebp]
  00103	a3 00 00 00 00	 mov	 DWORD PTR ?MaxAdrnID@@3HA, eax ; MaxAdrnID
$LN6@AdrnInit:

; 133  : 		}
; 134  : 		if (tmpadrnbuff.attr.bmpnumber != 0) {

  00108	83 7d f4 00	 cmp	 DWORD PTR _tmpadrnbuff$[ebp+76], 0
  0010c	74 10		 je	 SHORT $LN7@AdrnInit

; 135  : 			bitmapnumbertable[tmpadrnbuff.attr.bmpnumber] = tmpadrnbuff.bitmapno + maxid;

  0010e	8b 45 a8	 mov	 eax, DWORD PTR _tmpadrnbuff$[ebp]
  00111	03 45 84	 add	 eax, DWORD PTR _maxid$[ebp]
  00114	8b 4d f4	 mov	 ecx, DWORD PTR _tmpadrnbuff$[ebp+76]
  00117	89 04 8d 00 00
	00 00		 mov	 DWORD PTR ?bitmapnumbertable@@3PAKA[ecx*4], eax
$LN7@AdrnInit:

; 136  : 		}
; 137  : 	}

  0011e	e9 6b ff ff ff	 jmp	 $LN2@AdrnInit
$LN3@AdrnInit:

; 138  : 	fclose(Addrbinfp);

  00123	8b f4		 mov	 esi, esp
  00125	8b 45 90	 mov	 eax, DWORD PTR _Addrbinfp$[ebp]
  00128	50		 push	 eax
  00129	ff 15 00 00 00
	00		 call	 DWORD PTR __imp__fclose
  0012f	83 c4 04	 add	 esp, 4
  00132	3b f4		 cmp	 esi, esp
  00134	e8 00 00 00 00	 call	 __RTC_CheckEsp

; 139  : #endif
; 140  : 	return TRUE;

  00139	b8 01 00 00 00	 mov	 eax, 1
$LN1@AdrnInit:

; 141  : }

  0013e	52		 push	 edx
  0013f	8b cd		 mov	 ecx, ebp
  00141	50		 push	 eax
  00142	8d 15 00 00 00
	00		 lea	 edx, DWORD PTR $LN13@AdrnInit
  00148	e8 00 00 00 00	 call	 @_RTC_CheckStackVars@8
  0014d	58		 pop	 eax
  0014e	5a		 pop	 edx
  0014f	5f		 pop	 edi
  00150	5e		 pop	 esi
  00151	5b		 pop	 ebx
  00152	8b 4d fc	 mov	 ecx, DWORD PTR __$ArrayPad$[ebp]
  00155	33 cd		 xor	 ecx, ebp
  00157	e8 00 00 00 00	 call	 @__security_check_cookie@4
  0015c	81 c4 40 01 00
	00		 add	 esp, 320		; 00000140H
  00162	3b ec		 cmp	 ebp, esp
  00164	e8 00 00 00 00	 call	 __RTC_CheckEsp
  00169	8b e5		 mov	 esp, ebp
  0016b	5d		 pop	 ebp
  0016c	c3		 ret	 0
  0016d	0f 1f 00	 npad	 3
$LN13@AdrnInit:
  00170	03 00 00 00	 DD	 3
  00174	00 00 00 00	 DD	 $LN12@AdrnInit
$LN12@AdrnInit:
  00178	a8 ff ff ff	 DD	 -88			; ffffffa8H
  0017c	50 00 00 00	 DD	 80			; 00000050H
  00180	00 00 00 00	 DD	 $LN9@AdrnInit
  00184	9c ff ff ff	 DD	 -100			; ffffff9cH
  00188	04 00 00 00	 DD	 4
  0018c	00 00 00 00	 DD	 $LN10@AdrnInit
  00190	90 ff ff ff	 DD	 -112			; ffffff90H
  00194	04 00 00 00	 DD	 4
  00198	00 00 00 00	 DD	 $LN11@AdrnInit
$LN11@AdrnInit:
  0019c	41		 DB	 65			; 00000041H
  0019d	64		 DB	 100			; 00000064H
  0019e	64		 DB	 100			; 00000064H
  0019f	72		 DB	 114			; 00000072H
  001a0	62		 DB	 98			; 00000062H
  001a1	69		 DB	 105			; 00000069H
  001a2	6e		 DB	 110			; 0000006eH
  001a3	66		 DB	 102			; 00000066H
  001a4	70		 DB	 112			; 00000070H
  001a5	00		 DB	 0
$LN10@AdrnInit:
  001a6	52		 DB	 82			; 00000052H
  001a7	65		 DB	 101			; 00000065H
  001a8	61		 DB	 97			; 00000061H
  001a9	6c		 DB	 108			; 0000006cH
  001aa	66		 DB	 102			; 00000066H
  001ab	70		 DB	 112			; 00000070H
  001ac	00		 DB	 0
$LN9@AdrnInit:
  001ad	74		 DB	 116			; 00000074H
  001ae	6d		 DB	 109			; 0000006dH
  001af	70		 DB	 112			; 00000070H
  001b0	61		 DB	 97			; 00000061H
  001b1	64		 DB	 100			; 00000064H
  001b2	72		 DB	 114			; 00000072H
  001b3	6e		 DB	 110			; 0000006eH
  001b4	62		 DB	 98			; 00000062H
  001b5	75		 DB	 117			; 00000075H
  001b6	66		 DB	 102			; 00000066H
  001b7	66		 DB	 102			; 00000066H
  001b8	00		 DB	 0
?AdrnInit@@YAHPBD0H@Z ENDP				; AdrnInit
_TEXT	ENDS
END
