; Listing generated by Microsoft (R) Optimizing Compiler Version 19.00.24215.1 

	TITLE	C:\Users\Administrator\Desktop\????? ??\????? ??\Client Source Code\system\Radar.cpp
	.686P
	.XMM
	include listing.inc
	.model	flat

INCLUDELIB MSVCRTD
INCLUDELIB OLDNAMES

PUBLIC	?Course_Tbl@@3PACA				; Course_Tbl
PUBLIC	?Distance_Tbl@@3PACA				; Distance_Tbl
_DATA	SEGMENT
?Course_Tbl@@3PACA DB 010H				; Course_Tbl
	DB	08H
	DB	08H
	DB	08H
	DB	08H
	DB	08H
	DB	08H
	DB	08H
	DB	08H
	DB	08H
	DB	08H
	DB	08H
	DB	08H
	DB	08H
	DB	08H
	DB	08H
	DB	08H
	DB	08H
	DB	08H
	DB	08H
	DB	08H
	DB	08H
	DB	08H
	DB	08H
	DB	08H
	DB	08H
	DB	08H
	DB	08H
	DB	08H
	DB	08H
	DB	08H
	DB	08H
	DB	08H
	DB	08H
	DB	08H
	DB	08H
	DB	08H
	DB	08H
	DB	08H
	DB	08H
	DB	08H
	DB	08H
	DB	08H
	DB	08H
	DB	08H
	DB	08H
	DB	08H
	DB	08H
	DB	08H
	DB	08H
	DB	08H
	DB	08H
	DB	08H
	DB	08H
	DB	08H
	DB	08H
	DB	08H
	DB	08H
	DB	08H
	DB	08H
	DB	08H
	DB	08H
	DB	08H
	DB	08H
	DB	010H
	DB	0cH
	DB	0aH
	DB	0aH
	DB	09H
	DB	09H
	DB	09H
	DB	09H
	DB	09H
	DB	09H
	DB	09H
	DB	08H
	DB	08H
	DB	08H
	DB	08H
	DB	08H
	DB	08H
	DB	08H
	DB	08H
	DB	08H
	DB	08H
	DB	08H
	DB	08H
	DB	08H
	DB	08H
	DB	08H
	DB	08H
	DB	08H
	DB	08H
	DB	08H
	DB	08H
	DB	08H
	DB	08H
	DB	08H
	DB	08H
	DB	08H
	DB	08H
	DB	08H
	DB	08H
	DB	08H
	DB	08H
	DB	08H
	DB	08H
	DB	08H
	DB	08H
	DB	08H
	DB	08H
	DB	08H
	DB	08H
	DB	08H
	DB	08H
	DB	08H
	DB	08H
	DB	08H
	DB	08H
	DB	08H
	DB	08H
	DB	08H
	DB	08H
	DB	08H
	DB	08H
	DB	08H
	DB	08H
	DB	08H
	DB	010H
	DB	0eH
	DB	0cH
	DB	0bH
	DB	0aH
	DB	0aH
	DB	0aH
	DB	09H
	DB	09H
	DB	09H
	DB	09H
	DB	09H
	DB	09H
	DB	09H
	DB	09H
	DB	09H
	DB	09H
	DB	09H
	DB	09H
	DB	09H
	DB	09H
	DB	08H
	DB	08H
	DB	08H
	DB	08H
	DB	08H
	DB	08H
	DB	08H
	DB	08H
	DB	08H
	DB	08H
	DB	08H
	DB	08H
	DB	08H
	DB	08H
	DB	08H
	DB	08H
	DB	08H
	DB	08H
	DB	08H
	DB	08H
	DB	08H
	DB	08H
	DB	08H
	DB	08H
	DB	08H
	DB	08H
	DB	08H
	DB	08H
	DB	08H
	DB	08H
	DB	08H
	DB	08H
	DB	08H
	DB	08H
	DB	08H
	DB	08H
	DB	08H
	DB	08H
	DB	08H
	DB	08H
	DB	08H
	DB	08H
	DB	08H
	DB	010H
	DB	0eH
	DB	0dH
	DB	0cH
	DB	0bH
	DB	0bH
	DB	0aH
	DB	0aH
	DB	0aH
	DB	0aH
	DB	09H
	DB	09H
	DB	09H
	DB	09H
	DB	09H
	DB	09H
	DB	09H
	DB	09H
	DB	09H
	DB	09H
	DB	09H
	DB	09H
	DB	09H
	DB	09H
	DB	09H
	DB	09H
	DB	09H
	DB	09H
	DB	09H
	DB	09H
	DB	09H
	DB	08H
	DB	08H
	DB	08H
	DB	08H
	DB	08H
	DB	08H
	DB	08H
	DB	08H
	DB	08H
	DB	08H
	DB	08H
	DB	08H
	DB	08H
	DB	08H
	DB	08H
	DB	08H
	DB	08H
	DB	08H
	DB	08H
	DB	08H
	DB	08H
	DB	08H
	DB	08H
	DB	08H
	DB	08H
	DB	08H
	DB	08H
	DB	08H
	DB	08H
	DB	08H
	DB	08H
	DB	08H
	DB	08H
	DB	010H
	DB	0fH
	DB	0eH
	DB	0dH
	DB	0cH
	DB	0bH
	DB	0bH
	DB	0bH
	DB	0aH
	DB	0aH
	DB	0aH
	DB	0aH
	DB	0aH
	DB	0aH
	DB	09H
	DB	09H
	DB	09H
	DB	09H
	DB	09H
	DB	09H
	DB	09H
	DB	09H
	DB	09H
	DB	09H
	DB	09H
	DB	09H
	DB	09H
	DB	09H
	DB	09H
	DB	09H
	DB	09H
	DB	09H
	DB	09H
	DB	09H
	DB	09H
	DB	09H
	DB	09H
	DB	09H
	DB	09H
	DB	09H
	DB	09H
	DB	08H
	DB	08H
	DB	08H
	DB	08H
	DB	08H
	DB	08H
	DB	08H
	DB	08H
	DB	08H
	DB	08H
	DB	08H
	DB	08H
	DB	08H
	DB	08H
	DB	08H
	DB	08H
	DB	08H
	DB	08H
	DB	08H
	DB	08H
	DB	08H
	DB	08H
	DB	08H
	DB	010H
	DB	0fH
	DB	0eH
	DB	0dH
	DB	0dH
	DB	0cH
	DB	0cH
	DB	0bH
	DB	0bH
	DB	0bH
	DB	0aH
	DB	0aH
	DB	0aH
	DB	0aH
	DB	0aH
	DB	0aH
	DB	0aH
	DB	09H
	DB	09H
	DB	09H
	DB	09H
	DB	09H
	DB	09H
	DB	09H
	DB	09H
	DB	09H
	DB	09H
	DB	09H
	DB	09H
	DB	09H
	DB	09H
	DB	09H
	DB	09H
	DB	09H
	DB	09H
	DB	09H
	DB	09H
	DB	09H
	DB	09H
	DB	09H
	DB	09H
	DB	09H
	DB	09H
	DB	09H
	DB	09H
	DB	09H
	DB	09H
	DB	09H
	DB	09H
	DB	09H
	DB	09H
	DB	08H
	DB	08H
	DB	08H
	DB	08H
	DB	08H
	DB	08H
	DB	08H
	DB	08H
	DB	08H
	DB	08H
	DB	08H
	DB	08H
	DB	08H
	DB	010H
	DB	0fH
	DB	0eH
	DB	0eH
	DB	0dH
	DB	0cH
	DB	0cH
	DB	0cH
	DB	0bH
	DB	0bH
	DB	0bH
	DB	0bH
	DB	0aH
	DB	0aH
	DB	0aH
	DB	0aH
	DB	0aH
	DB	0aH
	DB	0aH
	DB	0aH
	DB	09H
	DB	09H
	DB	09H
	DB	09H
	DB	09H
	DB	09H
	DB	09H
	DB	09H
	DB	09H
	DB	09H
	DB	09H
	DB	09H
	DB	09H
	DB	09H
	DB	09H
	DB	09H
	DB	09H
	DB	09H
	DB	09H
	DB	09H
	DB	09H
	DB	09H
	DB	09H
	DB	09H
	DB	09H
	DB	09H
	DB	09H
	DB	09H
	DB	09H
	DB	09H
	DB	09H
	DB	09H
	DB	09H
	DB	09H
	DB	09H
	DB	09H
	DB	09H
	DB	09H
	DB	09H
	DB	09H
	DB	09H
	DB	08H
	DB	08H
	DB	08H
	DB	010H
	DB	0fH
	DB	0fH
	DB	0eH
	DB	0dH
	DB	0dH
	DB	0cH
	DB	0cH
	DB	0cH
	DB	0bH
	DB	0bH
	DB	0bH
	DB	0bH
	DB	0bH
	DB	0aH
	DB	0aH
	DB	0aH
	DB	0aH
	DB	0aH
	DB	0aH
	DB	0aH
	DB	0aH
	DB	0aH
	DB	0aH
	DB	09H
	DB	09H
	DB	09H
	DB	09H
	DB	09H
	DB	09H
	DB	09H
	DB	09H
	DB	09H
	DB	09H
	DB	09H
	DB	09H
	DB	09H
	DB	09H
	DB	09H
	DB	09H
	DB	09H
	DB	09H
	DB	09H
	DB	09H
	DB	09H
	DB	09H
	DB	09H
	DB	09H
	DB	09H
	DB	09H
	DB	09H
	DB	09H
	DB	09H
	DB	09H
	DB	09H
	DB	09H
	DB	09H
	DB	09H
	DB	09H
	DB	09H
	DB	09H
	DB	09H
	DB	09H
	DB	09H
	DB	010H
	DB	0fH
	DB	0fH
	DB	0eH
	DB	0eH
	DB	0dH
	DB	0dH
	DB	0cH
	DB	0cH
	DB	0cH
	DB	0bH
	DB	0bH
	DB	0bH
	DB	0bH
	DB	0bH
	DB	0aH
	DB	0aH
	DB	0aH
	DB	0aH
	DB	0aH
	DB	0aH
	DB	0aH
	DB	0aH
	DB	0aH
	DB	0aH
	DB	0aH
	DB	0aH
	DB	09H
	DB	09H
	DB	09H
	DB	09H
	DB	09H
	DB	09H
	DB	09H
	DB	09H
	DB	09H
	DB	09H
	DB	09H
	DB	09H
	DB	09H
	DB	09H
	DB	09H
	DB	09H
	DB	09H
	DB	09H
	DB	09H
	DB	09H
	DB	09H
	DB	09H
	DB	09H
	DB	09H
	DB	09H
	DB	09H
	DB	09H
	DB	09H
	DB	09H
	DB	09H
	DB	09H
	DB	09H
	DB	09H
	DB	09H
	DB	09H
	DB	09H
	DB	09H
	DB	010H
	DB	0fH
	DB	0fH
	DB	0eH
	DB	0eH
	DB	0dH
	DB	0dH
	DB	0dH
	DB	0cH
	DB	0cH
	DB	0cH
	DB	0bH
	DB	0bH
	DB	0bH
	DB	0bH
	DB	0bH
	DB	0bH
	DB	0aH
	DB	0aH
	DB	0aH
	DB	0aH
	DB	0aH
	DB	0aH
	DB	0aH
	DB	0aH
	DB	0aH
	DB	0aH
	DB	0aH
	DB	0aH
	DB	0aH
	DB	09H
	DB	09H
	DB	09H
	DB	09H
	DB	09H
	DB	09H
	DB	09H
	DB	09H
	DB	09H
	DB	09H
	DB	09H
	DB	09H
	DB	09H
	DB	09H
	DB	09H
	DB	09H
	DB	09H
	DB	09H
	DB	09H
	DB	09H
	DB	09H
	DB	09H
	DB	09H
	DB	09H
	DB	09H
	DB	09H
	DB	09H
	DB	09H
	DB	09H
	DB	09H
	DB	09H
	DB	09H
	DB	09H
	DB	09H
	DB	010H
	DB	0fH
	DB	0fH
	DB	0fH
	DB	0eH
	DB	0eH
	DB	0dH
	DB	0dH
	DB	0dH
	DB	0cH
	DB	0cH
	DB	0cH
	DB	0cH
	DB	0bH
	DB	0bH
	DB	0bH
	DB	0bH
	DB	0bH
	DB	0bH
	DB	0aH
	DB	0aH
	DB	0aH
	DB	0aH
	DB	0aH
	DB	0aH
	DB	0aH
	DB	0aH
	DB	0aH
	DB	0aH
	DB	0aH
	DB	0aH
	DB	0aH
	DB	0aH
	DB	09H
	DB	09H
	DB	09H
	DB	09H
	DB	09H
	DB	09H
	DB	09H
	DB	09H
	DB	09H
	DB	09H
	DB	09H
	DB	09H
	DB	09H
	DB	09H
	DB	09H
	DB	09H
	DB	09H
	DB	09H
	DB	09H
	DB	09H
	DB	09H
	DB	09H
	DB	09H
	DB	09H
	DB	09H
	DB	09H
	DB	09H
	DB	09H
	DB	09H
	DB	09H
	DB	09H
	DB	010H
	DB	010H
	DB	0fH
	DB	0fH
	DB	0eH
	DB	0eH
	DB	0dH
	DB	0dH
	DB	0dH
	DB	0dH
	DB	0cH
	DB	0cH
	DB	0cH
	DB	0cH
	DB	0bH
	DB	0bH
	DB	0bH
	DB	0bH
	DB	0bH
	DB	0bH
	DB	0bH
	DB	0aH
	DB	0aH
	DB	0aH
	DB	0aH
	DB	0aH
	DB	0aH
	DB	0aH
	DB	0aH
	DB	0aH
	DB	0aH
	DB	0aH
	DB	0aH
	DB	0aH
	DB	0aH
	DB	0aH
	DB	0aH
	DB	09H
	DB	09H
	DB	09H
	DB	09H
	DB	09H
	DB	09H
	DB	09H
	DB	09H
	DB	09H
	DB	09H
	DB	09H
	DB	09H
	DB	09H
	DB	09H
	DB	09H
	DB	09H
	DB	09H
	DB	09H
	DB	09H
	DB	09H
	DB	09H
	DB	09H
	DB	09H
	DB	09H
	DB	09H
	DB	09H
	DB	09H
	DB	010H
	DB	010H
	DB	0fH
	DB	0fH
	DB	0eH
	DB	0eH
	DB	0eH
	DB	0dH
	DB	0dH
	DB	0dH
	DB	0cH
	DB	0cH
	DB	0cH
	DB	0cH
	DB	0cH
	DB	0bH
	DB	0bH
	DB	0bH
	DB	0bH
	DB	0bH
	DB	0bH
	DB	0bH
	DB	0bH
	DB	0aH
	DB	0aH
	DB	0aH
	DB	0aH
	DB	0aH
	DB	0aH
	DB	0aH
	DB	0aH
	DB	0aH
	DB	0aH
	DB	0aH
	DB	0aH
	DB	0aH
	DB	0aH
	DB	0aH
	DB	0aH
	DB	0aH
	DB	09H
	DB	09H
	DB	09H
	DB	09H
	DB	09H
	DB	09H
	DB	09H
	DB	09H
	DB	09H
	DB	09H
	DB	09H
	DB	09H
	DB	09H
	DB	09H
	DB	09H
	DB	09H
	DB	09H
	DB	09H
	DB	09H
	DB	09H
	DB	09H
	DB	09H
	DB	09H
	DB	09H
	DB	010H
	DB	010H
	DB	0fH
	DB	0fH
	DB	0eH
	DB	0eH
	DB	0eH
	DB	0dH
	DB	0dH
	DB	0dH
	DB	0dH
	DB	0cH
	DB	0cH
	DB	0cH
	DB	0cH
	DB	0cH
	DB	0bH
	DB	0bH
	DB	0bH
	DB	0bH
	DB	0bH
	DB	0bH
	DB	0bH
	DB	0bH
	DB	0bH
	DB	0aH
	DB	0aH
	DB	0aH
	DB	0aH
	DB	0aH
	DB	0aH
	DB	0aH
	DB	0aH
	DB	0aH
	DB	0aH
	DB	0aH
	DB	0aH
	DB	0aH
	DB	0aH
	DB	0aH
	DB	0aH
	DB	0aH
	DB	0aH
	DB	09H
	DB	09H
	DB	09H
	DB	09H
	DB	09H
	DB	09H
	DB	09H
	DB	09H
	DB	09H
	DB	09H
	DB	09H
	DB	09H
	DB	09H
	DB	09H
	DB	09H
	DB	09H
	DB	09H
	DB	09H
	DB	09H
	DB	09H
	DB	09H
	DB	010H
	DB	010H
	DB	0fH
	DB	0fH
	DB	0fH
	DB	0eH
	DB	0eH
	DB	0eH
	DB	0dH
	DB	0dH
	DB	0dH
	DB	0dH
	DB	0cH
	DB	0cH
	DB	0cH
	DB	0cH
	DB	0cH
	DB	0cH
	DB	0bH
	DB	0bH
	DB	0bH
	DB	0bH
	DB	0bH
	DB	0bH
	DB	0bH
	DB	0bH
	DB	0bH
	DB	0aH
	DB	0aH
	DB	0aH
	DB	0aH
	DB	0aH
	DB	0aH
	DB	0aH
	DB	0aH
	DB	0aH
	DB	0aH
	DB	0aH
	DB	0aH
	DB	0aH
	DB	0aH
	DB	0aH
	DB	0aH
	DB	0aH
	DB	0aH
	DB	0aH
	DB	0aH
	DB	09H
	DB	09H
	DB	09H
	DB	09H
	DB	09H
	DB	09H
	DB	09H
	DB	09H
	DB	09H
	DB	09H
	DB	09H
	DB	09H
	DB	09H
	DB	09H
	DB	09H
	DB	09H
	DB	09H
	DB	010H
	DB	010H
	DB	0fH
	DB	0fH
	DB	0fH
	DB	0eH
	DB	0eH
	DB	0eH
	DB	0eH
	DB	0dH
	DB	0dH
	DB	0dH
	DB	0dH
	DB	0cH
	DB	0cH
	DB	0cH
	DB	0cH
	DB	0cH
	DB	0cH
	DB	0bH
	DB	0bH
	DB	0bH
	DB	0bH
	DB	0bH
	DB	0bH
	DB	0bH
	DB	0bH
	DB	0bH
	DB	0bH
	DB	0aH
	DB	0aH
	DB	0aH
	DB	0aH
	DB	0aH
	DB	0aH
	DB	0aH
	DB	0aH
	DB	0aH
	DB	0aH
	DB	0aH
	DB	0aH
	DB	0aH
	DB	0aH
	DB	0aH
	DB	0aH
	DB	0aH
	DB	0aH
	DB	0aH
	DB	0aH
	DB	0aH
	DB	09H
	DB	09H
	DB	09H
	DB	09H
	DB	09H
	DB	09H
	DB	09H
	DB	09H
	DB	09H
	DB	09H
	DB	09H
	DB	09H
	DB	09H
	DB	09H
	DB	010H
	DB	010H
	DB	0fH
	DB	0fH
	DB	0fH
	DB	0eH
	DB	0eH
	DB	0eH
	DB	0eH
	DB	0dH
	DB	0dH
	DB	0dH
	DB	0dH
	DB	0dH
	DB	0cH
	DB	0cH
	DB	0cH
	DB	0cH
	DB	0cH
	DB	0cH
	DB	0bH
	DB	0bH
	DB	0bH
	DB	0bH
	DB	0bH
	DB	0bH
	DB	0bH
	DB	0bH
	DB	0bH
	DB	0bH
	DB	0aH
	DB	0aH
	DB	0aH
	DB	0aH
	DB	0aH
	DB	0aH
	DB	0aH
	DB	0aH
	DB	0aH
	DB	0aH
	DB	0aH
	DB	0aH
	DB	0aH
	DB	0aH
	DB	0aH
	DB	0aH
	DB	0aH
	DB	0aH
	DB	0aH
	DB	0aH
	DB	0aH
	DB	0aH
	DB	0aH
	DB	09H
	DB	09H
	DB	09H
	DB	09H
	DB	09H
	DB	09H
	DB	09H
	DB	09H
	DB	09H
	DB	09H
	DB	09H
	DB	010H
	DB	010H
	DB	0fH
	DB	0fH
	DB	0fH
	DB	0fH
	DB	0eH
	DB	0eH
	DB	0eH
	DB	0eH
	DB	0dH
	DB	0dH
	DB	0dH
	DB	0dH
	DB	0cH
	DB	0cH
	DB	0cH
	DB	0cH
	DB	0cH
	DB	0cH
	DB	0cH
	DB	0bH
	DB	0bH
	DB	0bH
	DB	0bH
	DB	0bH
	DB	0bH
	DB	0bH
	DB	0bH
	DB	0bH
	DB	0bH
	DB	0bH
	DB	0aH
	DB	0aH
	DB	0aH
	DB	0aH
	DB	0aH
	DB	0aH
	DB	0aH
	DB	0aH
	DB	0aH
	DB	0aH
	DB	0aH
	DB	0aH
	DB	0aH
	DB	0aH
	DB	0aH
	DB	0aH
	DB	0aH
	DB	0aH
	DB	0aH
	DB	0aH
	DB	0aH
	DB	0aH
	DB	0aH
	DB	0aH
	DB	0aH
	DB	09H
	DB	09H
	DB	09H
	DB	09H
	DB	09H
	DB	09H
	DB	09H
	DB	010H
	DB	010H
	DB	0fH
	DB	0fH
	DB	0fH
	DB	0fH
	DB	0eH
	DB	0eH
	DB	0eH
	DB	0eH
	DB	0dH
	DB	0dH
	DB	0dH
	DB	0dH
	DB	0dH
	DB	0cH
	DB	0cH
	DB	0cH
	DB	0cH
	DB	0cH
	DB	0cH
	DB	0cH
	DB	0bH
	DB	0bH
	DB	0bH
	DB	0bH
	DB	0bH
	DB	0bH
	DB	0bH
	DB	0bH
	DB	0bH
	DB	0bH
	DB	0bH
	DB	0bH
	DB	0aH
	DB	0aH
	DB	0aH
	DB	0aH
	DB	0aH
	DB	0aH
	DB	0aH
	DB	0aH
	DB	0aH
	DB	0aH
	DB	0aH
	DB	0aH
	DB	0aH
	DB	0aH
	DB	0aH
	DB	0aH
	DB	0aH
	DB	0aH
	DB	0aH
	DB	0aH
	DB	0aH
	DB	0aH
	DB	0aH
	DB	0aH
	DB	0aH
	DB	0aH
	DB	09H
	DB	09H
	DB	09H
	DB	09H
	DB	010H
	DB	010H
	DB	0fH
	DB	0fH
	DB	0fH
	DB	0fH
	DB	0eH
	DB	0eH
	DB	0eH
	DB	0eH
	DB	0eH
	DB	0dH
	DB	0dH
	DB	0dH
	DB	0dH
	DB	0dH
	DB	0cH
	DB	0cH
	DB	0cH
	DB	0cH
	DB	0cH
	DB	0cH
	DB	0cH
	DB	0cH
	DB	0bH
	DB	0bH
	DB	0bH
	DB	0bH
	DB	0bH
	DB	0bH
	DB	0bH
	DB	0bH
	DB	0bH
	DB	0bH
	DB	0bH
	DB	0bH
	DB	0aH
	DB	0aH
	DB	0aH
	DB	0aH
	DB	0aH
	DB	0aH
	DB	0aH
	DB	0aH
	DB	0aH
	DB	0aH
	DB	0aH
	DB	0aH
	DB	0aH
	DB	0aH
	DB	0aH
	DB	0aH
	DB	0aH
	DB	0aH
	DB	0aH
	DB	0aH
	DB	0aH
	DB	0aH
	DB	0aH
	DB	0aH
	DB	0aH
	DB	0aH
	DB	0aH
	DB	09H
	DB	010H
	DB	010H
	DB	0fH
	DB	0fH
	DB	0fH
	DB	0fH
	DB	0fH
	DB	0eH
	DB	0eH
	DB	0eH
	DB	0eH
	DB	0dH
	DB	0dH
	DB	0dH
	DB	0dH
	DB	0dH
	DB	0dH
	DB	0cH
	DB	0cH
	DB	0cH
	DB	0cH
	DB	0cH
	DB	0cH
	DB	0cH
	DB	0cH
	DB	0bH
	DB	0bH
	DB	0bH
	DB	0bH
	DB	0bH
	DB	0bH
	DB	0bH
	DB	0bH
	DB	0bH
	DB	0bH
	DB	0bH
	DB	0bH
	DB	0bH
	DB	0aH
	DB	0aH
	DB	0aH
	DB	0aH
	DB	0aH
	DB	0aH
	DB	0aH
	DB	0aH
	DB	0aH
	DB	0aH
	DB	0aH
	DB	0aH
	DB	0aH
	DB	0aH
	DB	0aH
	DB	0aH
	DB	0aH
	DB	0aH
	DB	0aH
	DB	0aH
	DB	0aH
	DB	0aH
	DB	0aH
	DB	0aH
	DB	0aH
	DB	0aH
	DB	010H
	DB	010H
	DB	010H
	DB	0fH
	DB	0fH
	DB	0fH
	DB	0fH
	DB	0eH
	DB	0eH
	DB	0eH
	DB	0eH
	DB	0eH
	DB	0dH
	DB	0dH
	DB	0dH
	DB	0dH
	DB	0dH
	DB	0dH
	DB	0cH
	DB	0cH
	DB	0cH
	DB	0cH
	DB	0cH
	DB	0cH
	DB	0cH
	DB	0cH
	DB	0bH
	DB	0bH
	DB	0bH
	DB	0bH
	DB	0bH
	DB	0bH
	DB	0bH
	DB	0bH
	DB	0bH
	DB	0bH
	DB	0bH
	DB	0bH
	DB	0bH
	DB	0bH
	DB	0aH
	DB	0aH
	DB	0aH
	DB	0aH
	DB	0aH
	DB	0aH
	DB	0aH
	DB	0aH
	DB	0aH
	DB	0aH
	DB	0aH
	DB	0aH
	DB	0aH
	DB	0aH
	DB	0aH
	DB	0aH
	DB	0aH
	DB	0aH
	DB	0aH
	DB	0aH
	DB	0aH
	DB	0aH
	DB	0aH
	DB	0aH
	DB	010H
	DB	010H
	DB	010H
	DB	0fH
	DB	0fH
	DB	0fH
	DB	0fH
	DB	0eH
	DB	0eH
	DB	0eH
	DB	0eH
	DB	0eH
	DB	0dH
	DB	0dH
	DB	0dH
	DB	0dH
	DB	0dH
	DB	0dH
	DB	0dH
	DB	0cH
	DB	0cH
	DB	0cH
	DB	0cH
	DB	0cH
	DB	0cH
	DB	0cH
	DB	0cH
	DB	0bH
	DB	0bH
	DB	0bH
	DB	0bH
	DB	0bH
	DB	0bH
	DB	0bH
	DB	0bH
	DB	0bH
	DB	0bH
	DB	0bH
	DB	0bH
	DB	0bH
	DB	0bH
	DB	0bH
	DB	0aH
	DB	0aH
	DB	0aH
	DB	0aH
	DB	0aH
	DB	0aH
	DB	0aH
	DB	0aH
	DB	0aH
	DB	0aH
	DB	0aH
	DB	0aH
	DB	0aH
	DB	0aH
	DB	0aH
	DB	0aH
	DB	0aH
	DB	0aH
	DB	0aH
	DB	0aH
	DB	0aH
	DB	0aH
	DB	010H
	DB	010H
	DB	010H
	DB	0fH
	DB	0fH
	DB	0fH
	DB	0fH
	DB	0eH
	DB	0eH
	DB	0eH
	DB	0eH
	DB	0eH
	DB	0eH
	DB	0dH
	DB	0dH
	DB	0dH
	DB	0dH
	DB	0dH
	DB	0dH
	DB	0cH
	DB	0cH
	DB	0cH
	DB	0cH
	DB	0cH
	DB	0cH
	DB	0cH
	DB	0cH
	DB	0cH
	DB	0cH
	DB	0bH
	DB	0bH
	DB	0bH
	DB	0bH
	DB	0bH
	DB	0bH
	DB	0bH
	DB	0bH
	DB	0bH
	DB	0bH
	DB	0bH
	DB	0bH
	DB	0bH
	DB	0bH
	DB	0bH
	DB	0aH
	DB	0aH
	DB	0aH
	DB	0aH
	DB	0aH
	DB	0aH
	DB	0aH
	DB	0aH
	DB	0aH
	DB	0aH
	DB	0aH
	DB	0aH
	DB	0aH
	DB	0aH
	DB	0aH
	DB	0aH
	DB	0aH
	DB	0aH
	DB	0aH
	DB	0aH
	DB	010H
	DB	010H
	DB	010H
	DB	0fH
	DB	0fH
	DB	0fH
	DB	0fH
	DB	0fH
	DB	0eH
	DB	0eH
	DB	0eH
	DB	0eH
	DB	0eH
	DB	0dH
	DB	0dH
	DB	0dH
	DB	0dH
	DB	0dH
	DB	0dH
	DB	0dH
	DB	0cH
	DB	0cH
	DB	0cH
	DB	0cH
	DB	0cH
	DB	0cH
	DB	0cH
	DB	0cH
	DB	0cH
	DB	0cH
	DB	0bH
	DB	0bH
	DB	0bH
	DB	0bH
	DB	0bH
	DB	0bH
	DB	0bH
	DB	0bH
	DB	0bH
	DB	0bH
	DB	0bH
	DB	0bH
	DB	0bH
	DB	0bH
	DB	0bH
	DB	0aH
	DB	0aH
	DB	0aH
	DB	0aH
	DB	0aH
	DB	0aH
	DB	0aH
	DB	0aH
	DB	0aH
	DB	0aH
	DB	0aH
	DB	0aH
	DB	0aH
	DB	0aH
	DB	0aH
	DB	0aH
	DB	0aH
	DB	0aH
	DB	0aH
	DB	010H
	DB	010H
	DB	010H
	DB	0fH
	DB	0fH
	DB	0fH
	DB	0fH
	DB	0fH
	DB	0eH
	DB	0eH
	DB	0eH
	DB	0eH
	DB	0eH
	DB	0eH
	DB	0dH
	DB	0dH
	DB	0dH
	DB	0dH
	DB	0dH
	DB	0dH
	DB	0dH
	DB	0cH
	DB	0cH
	DB	0cH
	DB	0cH
	DB	0cH
	DB	0cH
	DB	0cH
	DB	0cH
	DB	0cH
	DB	0cH
	DB	0bH
	DB	0bH
	DB	0bH
	DB	0bH
	DB	0bH
	DB	0bH
	DB	0bH
	DB	0bH
	DB	0bH
	DB	0bH
	DB	0bH
	DB	0bH
	DB	0bH
	DB	0bH
	DB	0bH
	DB	0bH
	DB	0aH
	DB	0aH
	DB	0aH
	DB	0aH
	DB	0aH
	DB	0aH
	DB	0aH
	DB	0aH
	DB	0aH
	DB	0aH
	DB	0aH
	DB	0aH
	DB	0aH
	DB	0aH
	DB	0aH
	DB	0aH
	DB	0aH
	DB	010H
	DB	010H
	DB	010H
	DB	0fH
	DB	0fH
	DB	0fH
	DB	0fH
	DB	0fH
	DB	0eH
	DB	0eH
	DB	0eH
	DB	0eH
	DB	0eH
	DB	0eH
	DB	0dH
	DB	0dH
	DB	0dH
	DB	0dH
	DB	0dH
	DB	0dH
	DB	0dH
	DB	0dH
	DB	0cH
	DB	0cH
	DB	0cH
	DB	0cH
	DB	0cH
	DB	0cH
	DB	0cH
	DB	0cH
	DB	0cH
	DB	0cH
	DB	0bH
	DB	0bH
	DB	0bH
	DB	0bH
	DB	0bH
	DB	0bH
	DB	0bH
	DB	0bH
	DB	0bH
	DB	0bH
	DB	0bH
	DB	0bH
	DB	0bH
	DB	0bH
	DB	0bH
	DB	0bH
	DB	0bH
	DB	0aH
	DB	0aH
	DB	0aH
	DB	0aH
	DB	0aH
	DB	0aH
	DB	0aH
	DB	0aH
	DB	0aH
	DB	0aH
	DB	0aH
	DB	0aH
	DB	0aH
	DB	0aH
	DB	0aH
	DB	010H
	DB	010H
	DB	010H
	DB	0fH
	DB	0fH
	DB	0fH
	DB	0fH
	DB	0fH
	DB	0fH
	DB	0eH
	DB	0eH
	DB	0eH
	DB	0eH
	DB	0eH
	DB	0eH
	DB	0dH
	DB	0dH
	DB	0dH
	DB	0dH
	DB	0dH
	DB	0dH
	DB	0dH
	DB	0dH
	DB	0cH
	DB	0cH
	DB	0cH
	DB	0cH
	DB	0cH
	DB	0cH
	DB	0cH
	DB	0cH
	DB	0cH
	DB	0cH
	DB	0bH
	DB	0bH
	DB	0bH
	DB	0bH
	DB	0bH
	DB	0bH
	DB	0bH
	DB	0bH
	DB	0bH
	DB	0bH
	DB	0bH
	DB	0bH
	DB	0bH
	DB	0bH
	DB	0bH
	DB	0bH
	DB	0bH
	DB	0bH
	DB	0aH
	DB	0aH
	DB	0aH
	DB	0aH
	DB	0aH
	DB	0aH
	DB	0aH
	DB	0aH
	DB	0aH
	DB	0aH
	DB	0aH
	DB	0aH
	DB	0aH
	DB	010H
	DB	010H
	DB	010H
	DB	0fH
	DB	0fH
	DB	0fH
	DB	0fH
	DB	0fH
	DB	0fH
	DB	0eH
	DB	0eH
	DB	0eH
	DB	0eH
	DB	0eH
	DB	0eH
	DB	0dH
	DB	0dH
	DB	0dH
	DB	0dH
	DB	0dH
	DB	0dH
	DB	0dH
	DB	0dH
	DB	0cH
	DB	0cH
	DB	0cH
	DB	0cH
	DB	0cH
	DB	0cH
	DB	0cH
	DB	0cH
	DB	0cH
	DB	0cH
	DB	0cH
	DB	0cH
	DB	0bH
	DB	0bH
	DB	0bH
	DB	0bH
	DB	0bH
	DB	0bH
	DB	0bH
	DB	0bH
	DB	0bH
	DB	0bH
	DB	0bH
	DB	0bH
	DB	0bH
	DB	0bH
	DB	0bH
	DB	0bH
	DB	0bH
	DB	0bH
	DB	0aH
	DB	0aH
	DB	0aH
	DB	0aH
	DB	0aH
	DB	0aH
	DB	0aH
	DB	0aH
	DB	0aH
	DB	0aH
	DB	0aH
	DB	010H
	DB	010H
	DB	010H
	DB	0fH
	DB	0fH
	DB	0fH
	DB	0fH
	DB	0fH
	DB	0fH
	DB	0eH
	DB	0eH
	DB	0eH
	DB	0eH
	DB	0eH
	DB	0eH
	DB	0eH
	DB	0dH
	DB	0dH
	DB	0dH
	DB	0dH
	DB	0dH
	DB	0dH
	DB	0dH
	DB	0dH
	DB	0cH
	DB	0cH
	DB	0cH
	DB	0cH
	DB	0cH
	DB	0cH
	DB	0cH
	DB	0cH
	DB	0cH
	DB	0cH
	DB	0cH
	DB	0cH
	DB	0bH
	DB	0bH
	DB	0bH
	DB	0bH
	DB	0bH
	DB	0bH
	DB	0bH
	DB	0bH
	DB	0bH
	DB	0bH
	DB	0bH
	DB	0bH
	DB	0bH
	DB	0bH
	DB	0bH
	DB	0bH
	DB	0bH
	DB	0bH
	DB	0bH
	DB	0aH
	DB	0aH
	DB	0aH
	DB	0aH
	DB	0aH
	DB	0aH
	DB	0aH
	DB	0aH
	DB	0aH
	DB	010H
	DB	010H
	DB	010H
	DB	0fH
	DB	0fH
	DB	0fH
	DB	0fH
	DB	0fH
	DB	0fH
	DB	0fH
	DB	0eH
	DB	0eH
	DB	0eH
	DB	0eH
	DB	0eH
	DB	0eH
	DB	0eH
	DB	0dH
	DB	0dH
	DB	0dH
	DB	0dH
	DB	0dH
	DB	0dH
	DB	0dH
	DB	0dH
	DB	0cH
	DB	0cH
	DB	0cH
	DB	0cH
	DB	0cH
	DB	0cH
	DB	0cH
	DB	0cH
	DB	0cH
	DB	0cH
	DB	0cH
	DB	0cH
	DB	0bH
	DB	0bH
	DB	0bH
	DB	0bH
	DB	0bH
	DB	0bH
	DB	0bH
	DB	0bH
	DB	0bH
	DB	0bH
	DB	0bH
	DB	0bH
	DB	0bH
	DB	0bH
	DB	0bH
	DB	0bH
	DB	0bH
	DB	0bH
	DB	0bH
	DB	0bH
	DB	0aH
	DB	0aH
	DB	0aH
	DB	0aH
	DB	0aH
	DB	0aH
	DB	0aH
	DB	010H
	DB	010H
	DB	010H
	DB	010H
	DB	0fH
	DB	0fH
	DB	0fH
	DB	0fH
	DB	0fH
	DB	0fH
	DB	0eH
	DB	0eH
	DB	0eH
	DB	0eH
	DB	0eH
	DB	0eH
	DB	0eH
	DB	0dH
	DB	0dH
	DB	0dH
	DB	0dH
	DB	0dH
	DB	0dH
	DB	0dH
	DB	0dH
	DB	0dH
	DB	0cH
	DB	0cH
	DB	0cH
	DB	0cH
	DB	0cH
	DB	0cH
	DB	0cH
	DB	0cH
	DB	0cH
	DB	0cH
	DB	0cH
	DB	0cH
	DB	0bH
	DB	0bH
	DB	0bH
	DB	0bH
	DB	0bH
	DB	0bH
	DB	0bH
	DB	0bH
	DB	0bH
	DB	0bH
	DB	0bH
	DB	0bH
	DB	0bH
	DB	0bH
	DB	0bH
	DB	0bH
	DB	0bH
	DB	0bH
	DB	0bH
	DB	0bH
	DB	0aH
	DB	0aH
	DB	0aH
	DB	0aH
	DB	0aH
	DB	0aH
	DB	010H
	DB	010H
	DB	010H
	DB	010H
	DB	0fH
	DB	0fH
	DB	0fH
	DB	0fH
	DB	0fH
	DB	0fH
	DB	0eH
	DB	0eH
	DB	0eH
	DB	0eH
	DB	0eH
	DB	0eH
	DB	0eH
	DB	0eH
	DB	0dH
	DB	0dH
	DB	0dH
	DB	0dH
	DB	0dH
	DB	0dH
	DB	0dH
	DB	0dH
	DB	0dH
	DB	0cH
	DB	0cH
	DB	0cH
	DB	0cH
	DB	0cH
	DB	0cH
	DB	0cH
	DB	0cH
	DB	0cH
	DB	0cH
	DB	0cH
	DB	0cH
	DB	0bH
	DB	0bH
	DB	0bH
	DB	0bH
	DB	0bH
	DB	0bH
	DB	0bH
	DB	0bH
	DB	0bH
	DB	0bH
	DB	0bH
	DB	0bH
	DB	0bH
	DB	0bH
	DB	0bH
	DB	0bH
	DB	0bH
	DB	0bH
	DB	0bH
	DB	0bH
	DB	0bH
	DB	0aH
	DB	0aH
	DB	0aH
	DB	0aH
	DB	010H
	DB	010H
	DB	010H
	DB	010H
	DB	0fH
	DB	0fH
	DB	0fH
	DB	0fH
	DB	0fH
	DB	0fH
	DB	0fH
	DB	0eH
	DB	0eH
	DB	0eH
	DB	0eH
	DB	0eH
	DB	0eH
	DB	0eH
	DB	0dH
	DB	0dH
	DB	0dH
	DB	0dH
	DB	0dH
	DB	0dH
	DB	0dH
	DB	0dH
	DB	0dH
	DB	0dH
	DB	0cH
	DB	0cH
	DB	0cH
	DB	0cH
	DB	0cH
	DB	0cH
	DB	0cH
	DB	0cH
	DB	0cH
	DB	0cH
	DB	0cH
	DB	0cH
	DB	0cH
	DB	0bH
	DB	0bH
	DB	0bH
	DB	0bH
	DB	0bH
	DB	0bH
	DB	0bH
	DB	0bH
	DB	0bH
	DB	0bH
	DB	0bH
	DB	0bH
	DB	0bH
	DB	0bH
	DB	0bH
	DB	0bH
	DB	0bH
	DB	0bH
	DB	0bH
	DB	0bH
	DB	0bH
	DB	0aH
	DB	0aH
	DB	010H
	DB	010H
	DB	010H
	DB	010H
	DB	0fH
	DB	0fH
	DB	0fH
	DB	0fH
	DB	0fH
	DB	0fH
	DB	0fH
	DB	0eH
	DB	0eH
	DB	0eH
	DB	0eH
	DB	0eH
	DB	0eH
	DB	0eH
	DB	0eH
	DB	0dH
	DB	0dH
	DB	0dH
	DB	0dH
	DB	0dH
	DB	0dH
	DB	0dH
	DB	0dH
	DB	0dH
	DB	0cH
	DB	0cH
	DB	0cH
	DB	0cH
	DB	0cH
	DB	0cH
	DB	0cH
	DB	0cH
	DB	0cH
	DB	0cH
	DB	0cH
	DB	0cH
	DB	0cH
	DB	0cH
	DB	0bH
	DB	0bH
	DB	0bH
	DB	0bH
	DB	0bH
	DB	0bH
	DB	0bH
	DB	0bH
	DB	0bH
	DB	0bH
	DB	0bH
	DB	0bH
	DB	0bH
	DB	0bH
	DB	0bH
	DB	0bH
	DB	0bH
	DB	0bH
	DB	0bH
	DB	0bH
	DB	0bH
	DB	0bH
	DB	010H
	DB	010H
	DB	010H
	DB	010H
	DB	0fH
	DB	0fH
	DB	0fH
	DB	0fH
	DB	0fH
	DB	0fH
	DB	0fH
	DB	0eH
	DB	0eH
	DB	0eH
	DB	0eH
	DB	0eH
	DB	0eH
	DB	0eH
	DB	0eH
	DB	0dH
	DB	0dH
	DB	0dH
	DB	0dH
	DB	0dH
	DB	0dH
	DB	0dH
	DB	0dH
	DB	0dH
	DB	0dH
	DB	0cH
	DB	0cH
	DB	0cH
	DB	0cH
	DB	0cH
	DB	0cH
	DB	0cH
	DB	0cH
	DB	0cH
	DB	0cH
	DB	0cH
	DB	0cH
	DB	0cH
	DB	0cH
	DB	0bH
	DB	0bH
	DB	0bH
	DB	0bH
	DB	0bH
	DB	0bH
	DB	0bH
	DB	0bH
	DB	0bH
	DB	0bH
	DB	0bH
	DB	0bH
	DB	0bH
	DB	0bH
	DB	0bH
	DB	0bH
	DB	0bH
	DB	0bH
	DB	0bH
	DB	0bH
	DB	0bH
	DB	010H
	DB	010H
	DB	010H
	DB	010H
	DB	0fH
	DB	0fH
	DB	0fH
	DB	0fH
	DB	0fH
	DB	0fH
	DB	0fH
	DB	0eH
	DB	0eH
	DB	0eH
	DB	0eH
	DB	0eH
	DB	0eH
	DB	0eH
	DB	0eH
	DB	0eH
	DB	0dH
	DB	0dH
	DB	0dH
	DB	0dH
	DB	0dH
	DB	0dH
	DB	0dH
	DB	0dH
	DB	0dH
	DB	0dH
	DB	0cH
	DB	0cH
	DB	0cH
	DB	0cH
	DB	0cH
	DB	0cH
	DB	0cH
	DB	0cH
	DB	0cH
	DB	0cH
	DB	0cH
	DB	0cH
	DB	0cH
	DB	0cH
	DB	0bH
	DB	0bH
	DB	0bH
	DB	0bH
	DB	0bH
	DB	0bH
	DB	0bH
	DB	0bH
	DB	0bH
	DB	0bH
	DB	0bH
	DB	0bH
	DB	0bH
	DB	0bH
	DB	0bH
	DB	0bH
	DB	0bH
	DB	0bH
	DB	0bH
	DB	0bH
	DB	010H
	DB	010H
	DB	010H
	DB	010H
	DB	0fH
	DB	0fH
	DB	0fH
	DB	0fH
	DB	0fH
	DB	0fH
	DB	0fH
	DB	0fH
	DB	0eH
	DB	0eH
	DB	0eH
	DB	0eH
	DB	0eH
	DB	0eH
	DB	0eH
	DB	0eH
	DB	0dH
	DB	0dH
	DB	0dH
	DB	0dH
	DB	0dH
	DB	0dH
	DB	0dH
	DB	0dH
	DB	0dH
	DB	0dH
	DB	0dH
	DB	0cH
	DB	0cH
	DB	0cH
	DB	0cH
	DB	0cH
	DB	0cH
	DB	0cH
	DB	0cH
	DB	0cH
	DB	0cH
	DB	0cH
	DB	0cH
	DB	0cH
	DB	0cH
	DB	0cH
	DB	0bH
	DB	0bH
	DB	0bH
	DB	0bH
	DB	0bH
	DB	0bH
	DB	0bH
	DB	0bH
	DB	0bH
	DB	0bH
	DB	0bH
	DB	0bH
	DB	0bH
	DB	0bH
	DB	0bH
	DB	0bH
	DB	0bH
	DB	0bH
	DB	010H
	DB	010H
	DB	010H
	DB	010H
	DB	0fH
	DB	0fH
	DB	0fH
	DB	0fH
	DB	0fH
	DB	0fH
	DB	0fH
	DB	0fH
	DB	0eH
	DB	0eH
	DB	0eH
	DB	0eH
	DB	0eH
	DB	0eH
	DB	0eH
	DB	0eH
	DB	0eH
	DB	0dH
	DB	0dH
	DB	0dH
	DB	0dH
	DB	0dH
	DB	0dH
	DB	0dH
	DB	0dH
	DB	0dH
	DB	0dH
	DB	0dH
	DB	0cH
	DB	0cH
	DB	0cH
	DB	0cH
	DB	0cH
	DB	0cH
	DB	0cH
	DB	0cH
	DB	0cH
	DB	0cH
	DB	0cH
	DB	0cH
	DB	0cH
	DB	0cH
	DB	0cH
	DB	0bH
	DB	0bH
	DB	0bH
	DB	0bH
	DB	0bH
	DB	0bH
	DB	0bH
	DB	0bH
	DB	0bH
	DB	0bH
	DB	0bH
	DB	0bH
	DB	0bH
	DB	0bH
	DB	0bH
	DB	0bH
	DB	0bH
	DB	010H
	DB	010H
	DB	010H
	DB	010H
	DB	0fH
	DB	0fH
	DB	0fH
	DB	0fH
	DB	0fH
	DB	0fH
	DB	0fH
	DB	0fH
	DB	0eH
	DB	0eH
	DB	0eH
	DB	0eH
	DB	0eH
	DB	0eH
	DB	0eH
	DB	0eH
	DB	0eH
	DB	0dH
	DB	0dH
	DB	0dH
	DB	0dH
	DB	0dH
	DB	0dH
	DB	0dH
	DB	0dH
	DB	0dH
	DB	0dH
	DB	0dH
	DB	0dH
	DB	0cH
	DB	0cH
	DB	0cH
	DB	0cH
	DB	0cH
	DB	0cH
	DB	0cH
	DB	0cH
	DB	0cH
	DB	0cH
	DB	0cH
	DB	0cH
	DB	0cH
	DB	0cH
	DB	0cH
	DB	0bH
	DB	0bH
	DB	0bH
	DB	0bH
	DB	0bH
	DB	0bH
	DB	0bH
	DB	0bH
	DB	0bH
	DB	0bH
	DB	0bH
	DB	0bH
	DB	0bH
	DB	0bH
	DB	0bH
	DB	0bH
	DB	010H
	DB	010H
	DB	010H
	DB	010H
	DB	0fH
	DB	0fH
	DB	0fH
	DB	0fH
	DB	0fH
	DB	0fH
	DB	0fH
	DB	0fH
	DB	0fH
	DB	0eH
	DB	0eH
	DB	0eH
	DB	0eH
	DB	0eH
	DB	0eH
	DB	0eH
	DB	0eH
	DB	0eH
	DB	0dH
	DB	0dH
	DB	0dH
	DB	0dH
	DB	0dH
	DB	0dH
	DB	0dH
	DB	0dH
	DB	0dH
	DB	0dH
	DB	0dH
	DB	0cH
	DB	0cH
	DB	0cH
	DB	0cH
	DB	0cH
	DB	0cH
	DB	0cH
	DB	0cH
	DB	0cH
	DB	0cH
	DB	0cH
	DB	0cH
	DB	0cH
	DB	0cH
	DB	0cH
	DB	0cH
	DB	0bH
	DB	0bH
	DB	0bH
	DB	0bH
	DB	0bH
	DB	0bH
	DB	0bH
	DB	0bH
	DB	0bH
	DB	0bH
	DB	0bH
	DB	0bH
	DB	0bH
	DB	0bH
	DB	0bH
	DB	010H
	DB	010H
	DB	010H
	DB	010H
	DB	010H
	DB	0fH
	DB	0fH
	DB	0fH
	DB	0fH
	DB	0fH
	DB	0fH
	DB	0fH
	DB	0fH
	DB	0eH
	DB	0eH
	DB	0eH
	DB	0eH
	DB	0eH
	DB	0eH
	DB	0eH
	DB	0eH
	DB	0eH
	DB	0dH
	DB	0dH
	DB	0dH
	DB	0dH
	DB	0dH
	DB	0dH
	DB	0dH
	DB	0dH
	DB	0dH
	DB	0dH
	DB	0dH
	DB	0dH
	DB	0cH
	DB	0cH
	DB	0cH
	DB	0cH
	DB	0cH
	DB	0cH
	DB	0cH
	DB	0cH
	DB	0cH
	DB	0cH
	DB	0cH
	DB	0cH
	DB	0cH
	DB	0cH
	DB	0cH
	DB	0cH
	DB	0bH
	DB	0bH
	DB	0bH
	DB	0bH
	DB	0bH
	DB	0bH
	DB	0bH
	DB	0bH
	DB	0bH
	DB	0bH
	DB	0bH
	DB	0bH
	DB	0bH
	DB	0bH
	DB	010H
	DB	010H
	DB	010H
	DB	010H
	DB	010H
	DB	0fH
	DB	0fH
	DB	0fH
	DB	0fH
	DB	0fH
	DB	0fH
	DB	0fH
	DB	0fH
	DB	0eH
	DB	0eH
	DB	0eH
	DB	0eH
	DB	0eH
	DB	0eH
	DB	0eH
	DB	0eH
	DB	0eH
	DB	0eH
	DB	0dH
	DB	0dH
	DB	0dH
	DB	0dH
	DB	0dH
	DB	0dH
	DB	0dH
	DB	0dH
	DB	0dH
	DB	0dH
	DB	0dH
	DB	0dH
	DB	0cH
	DB	0cH
	DB	0cH
	DB	0cH
	DB	0cH
	DB	0cH
	DB	0cH
	DB	0cH
	DB	0cH
	DB	0cH
	DB	0cH
	DB	0cH
	DB	0cH
	DB	0cH
	DB	0cH
	DB	0cH
	DB	0cH
	DB	0bH
	DB	0bH
	DB	0bH
	DB	0bH
	DB	0bH
	DB	0bH
	DB	0bH
	DB	0bH
	DB	0bH
	DB	0bH
	DB	0bH
	DB	0bH
	DB	010H
	DB	010H
	DB	010H
	DB	010H
	DB	010H
	DB	0fH
	DB	0fH
	DB	0fH
	DB	0fH
	DB	0fH
	DB	0fH
	DB	0fH
	DB	0fH
	DB	0fH
	DB	0eH
	DB	0eH
	DB	0eH
	DB	0eH
	DB	0eH
	DB	0eH
	DB	0eH
	DB	0eH
	DB	0eH
	DB	0dH
	DB	0dH
	DB	0dH
	DB	0dH
	DB	0dH
	DB	0dH
	DB	0dH
	DB	0dH
	DB	0dH
	DB	0dH
	DB	0dH
	DB	0dH
	DB	0dH
	DB	0cH
	DB	0cH
	DB	0cH
	DB	0cH
	DB	0cH
	DB	0cH
	DB	0cH
	DB	0cH
	DB	0cH
	DB	0cH
	DB	0cH
	DB	0cH
	DB	0cH
	DB	0cH
	DB	0cH
	DB	0cH
	DB	0cH
	DB	0bH
	DB	0bH
	DB	0bH
	DB	0bH
	DB	0bH
	DB	0bH
	DB	0bH
	DB	0bH
	DB	0bH
	DB	0bH
	DB	0bH
	DB	010H
	DB	010H
	DB	010H
	DB	010H
	DB	010H
	DB	0fH
	DB	0fH
	DB	0fH
	DB	0fH
	DB	0fH
	DB	0fH
	DB	0fH
	DB	0fH
	DB	0fH
	DB	0eH
	DB	0eH
	DB	0eH
	DB	0eH
	DB	0eH
	DB	0eH
	DB	0eH
	DB	0eH
	DB	0eH
	DB	0eH
	DB	0dH
	DB	0dH
	DB	0dH
	DB	0dH
	DB	0dH
	DB	0dH
	DB	0dH
	DB	0dH
	DB	0dH
	DB	0dH
	DB	0dH
	DB	0dH
	DB	0dH
	DB	0cH
	DB	0cH
	DB	0cH
	DB	0cH
	DB	0cH
	DB	0cH
	DB	0cH
	DB	0cH
	DB	0cH
	DB	0cH
	DB	0cH
	DB	0cH
	DB	0cH
	DB	0cH
	DB	0cH
	DB	0cH
	DB	0cH
	DB	0bH
	DB	0bH
	DB	0bH
	DB	0bH
	DB	0bH
	DB	0bH
	DB	0bH
	DB	0bH
	DB	0bH
	DB	0bH
	DB	010H
	DB	010H
	DB	010H
	DB	010H
	DB	010H
	DB	0fH
	DB	0fH
	DB	0fH
	DB	0fH
	DB	0fH
	DB	0fH
	DB	0fH
	DB	0fH
	DB	0fH
	DB	0eH
	DB	0eH
	DB	0eH
	DB	0eH
	DB	0eH
	DB	0eH
	DB	0eH
	DB	0eH
	DB	0eH
	DB	0eH
	DB	0eH
	DB	0dH
	DB	0dH
	DB	0dH
	DB	0dH
	DB	0dH
	DB	0dH
	DB	0dH
	DB	0dH
	DB	0dH
	DB	0dH
	DB	0dH
	DB	0dH
	DB	0cH
	DB	0cH
	DB	0cH
	DB	0cH
	DB	0cH
	DB	0cH
	DB	0cH
	DB	0cH
	DB	0cH
	DB	0cH
	DB	0cH
	DB	0cH
	DB	0cH
	DB	0cH
	DB	0cH
	DB	0cH
	DB	0cH
	DB	0cH
	DB	0bH
	DB	0bH
	DB	0bH
	DB	0bH
	DB	0bH
	DB	0bH
	DB	0bH
	DB	0bH
	DB	0bH
	DB	010H
	DB	010H
	DB	010H
	DB	010H
	DB	010H
	DB	0fH
	DB	0fH
	DB	0fH
	DB	0fH
	DB	0fH
	DB	0fH
	DB	0fH
	DB	0fH
	DB	0fH
	DB	0eH
	DB	0eH
	DB	0eH
	DB	0eH
	DB	0eH
	DB	0eH
	DB	0eH
	DB	0eH
	DB	0eH
	DB	0eH
	DB	0eH
	DB	0dH
	DB	0dH
	DB	0dH
	DB	0dH
	DB	0dH
	DB	0dH
	DB	0dH
	DB	0dH
	DB	0dH
	DB	0dH
	DB	0dH
	DB	0dH
	DB	0dH
	DB	0cH
	DB	0cH
	DB	0cH
	DB	0cH
	DB	0cH
	DB	0cH
	DB	0cH
	DB	0cH
	DB	0cH
	DB	0cH
	DB	0cH
	DB	0cH
	DB	0cH
	DB	0cH
	DB	0cH
	DB	0cH
	DB	0cH
	DB	0cH
	DB	0cH
	DB	0bH
	DB	0bH
	DB	0bH
	DB	0bH
	DB	0bH
	DB	0bH
	DB	0bH
	DB	010H
	DB	010H
	DB	010H
	DB	010H
	DB	010H
	DB	0fH
	DB	0fH
	DB	0fH
	DB	0fH
	DB	0fH
	DB	0fH
	DB	0fH
	DB	0fH
	DB	0fH
	DB	0fH
	DB	0eH
	DB	0eH
	DB	0eH
	DB	0eH
	DB	0eH
	DB	0eH
	DB	0eH
	DB	0eH
	DB	0eH
	DB	0eH
	DB	0eH
	DB	0dH
	DB	0dH
	DB	0dH
	DB	0dH
	DB	0dH
	DB	0dH
	DB	0dH
	DB	0dH
	DB	0dH
	DB	0dH
	DB	0dH
	DB	0dH
	DB	0dH
	DB	0cH
	DB	0cH
	DB	0cH
	DB	0cH
	DB	0cH
	DB	0cH
	DB	0cH
	DB	0cH
	DB	0cH
	DB	0cH
	DB	0cH
	DB	0cH
	DB	0cH
	DB	0cH
	DB	0cH
	DB	0cH
	DB	0cH
	DB	0cH
	DB	0cH
	DB	0bH
	DB	0bH
	DB	0bH
	DB	0bH
	DB	0bH
	DB	0bH
	DB	010H
	DB	010H
	DB	010H
	DB	010H
	DB	010H
	DB	0fH
	DB	0fH
	DB	0fH
	DB	0fH
	DB	0fH
	DB	0fH
	DB	0fH
	DB	0fH
	DB	0fH
	DB	0fH
	DB	0eH
	DB	0eH
	DB	0eH
	DB	0eH
	DB	0eH
	DB	0eH
	DB	0eH
	DB	0eH
	DB	0eH
	DB	0eH
	DB	0eH
	DB	0dH
	DB	0dH
	DB	0dH
	DB	0dH
	DB	0dH
	DB	0dH
	DB	0dH
	DB	0dH
	DB	0dH
	DB	0dH
	DB	0dH
	DB	0dH
	DB	0dH
	DB	0dH
	DB	0cH
	DB	0cH
	DB	0cH
	DB	0cH
	DB	0cH
	DB	0cH
	DB	0cH
	DB	0cH
	DB	0cH
	DB	0cH
	DB	0cH
	DB	0cH
	DB	0cH
	DB	0cH
	DB	0cH
	DB	0cH
	DB	0cH
	DB	0cH
	DB	0cH
	DB	0bH
	DB	0bH
	DB	0bH
	DB	0bH
	DB	0bH
	DB	010H
	DB	010H
	DB	010H
	DB	010H
	DB	010H
	DB	0fH
	DB	0fH
	DB	0fH
	DB	0fH
	DB	0fH
	DB	0fH
	DB	0fH
	DB	0fH
	DB	0fH
	DB	0fH
	DB	0eH
	DB	0eH
	DB	0eH
	DB	0eH
	DB	0eH
	DB	0eH
	DB	0eH
	DB	0eH
	DB	0eH
	DB	0eH
	DB	0eH
	DB	0eH
	DB	0dH
	DB	0dH
	DB	0dH
	DB	0dH
	DB	0dH
	DB	0dH
	DB	0dH
	DB	0dH
	DB	0dH
	DB	0dH
	DB	0dH
	DB	0dH
	DB	0dH
	DB	0dH
	DB	0cH
	DB	0cH
	DB	0cH
	DB	0cH
	DB	0cH
	DB	0cH
	DB	0cH
	DB	0cH
	DB	0cH
	DB	0cH
	DB	0cH
	DB	0cH
	DB	0cH
	DB	0cH
	DB	0cH
	DB	0cH
	DB	0cH
	DB	0cH
	DB	0cH
	DB	0bH
	DB	0bH
	DB	0bH
	DB	0bH
	DB	010H
	DB	010H
	DB	010H
	DB	010H
	DB	010H
	DB	0fH
	DB	0fH
	DB	0fH
	DB	0fH
	DB	0fH
	DB	0fH
	DB	0fH
	DB	0fH
	DB	0fH
	DB	0fH
	DB	0fH
	DB	0eH
	DB	0eH
	DB	0eH
	DB	0eH
	DB	0eH
	DB	0eH
	DB	0eH
	DB	0eH
	DB	0eH
	DB	0eH
	DB	0eH
	DB	0dH
	DB	0dH
	DB	0dH
	DB	0dH
	DB	0dH
	DB	0dH
	DB	0dH
	DB	0dH
	DB	0dH
	DB	0dH
	DB	0dH
	DB	0dH
	DB	0dH
	DB	0dH
	DB	0dH
	DB	0cH
	DB	0cH
	DB	0cH
	DB	0cH
	DB	0cH
	DB	0cH
	DB	0cH
	DB	0cH
	DB	0cH
	DB	0cH
	DB	0cH
	DB	0cH
	DB	0cH
	DB	0cH
	DB	0cH
	DB	0cH
	DB	0cH
	DB	0cH
	DB	0cH
	DB	0bH
	DB	0bH
	DB	0bH
	DB	010H
	DB	010H
	DB	010H
	DB	010H
	DB	010H
	DB	010H
	DB	0fH
	DB	0fH
	DB	0fH
	DB	0fH
	DB	0fH
	DB	0fH
	DB	0fH
	DB	0fH
	DB	0fH
	DB	0fH
	DB	0eH
	DB	0eH
	DB	0eH
	DB	0eH
	DB	0eH
	DB	0eH
	DB	0eH
	DB	0eH
	DB	0eH
	DB	0eH
	DB	0eH
	DB	0eH
	DB	0dH
	DB	0dH
	DB	0dH
	DB	0dH
	DB	0dH
	DB	0dH
	DB	0dH
	DB	0dH
	DB	0dH
	DB	0dH
	DB	0dH
	DB	0dH
	DB	0dH
	DB	0dH
	DB	0cH
	DB	0cH
	DB	0cH
	DB	0cH
	DB	0cH
	DB	0cH
	DB	0cH
	DB	0cH
	DB	0cH
	DB	0cH
	DB	0cH
	DB	0cH
	DB	0cH
	DB	0cH
	DB	0cH
	DB	0cH
	DB	0cH
	DB	0cH
	DB	0cH
	DB	0cH
	DB	0cH
	DB	0bH
	DB	010H
	DB	010H
	DB	010H
	DB	010H
	DB	010H
	DB	010H
	DB	0fH
	DB	0fH
	DB	0fH
	DB	0fH
	DB	0fH
	DB	0fH
	DB	0fH
	DB	0fH
	DB	0fH
	DB	0fH
	DB	0eH
	DB	0eH
	DB	0eH
	DB	0eH
	DB	0eH
	DB	0eH
	DB	0eH
	DB	0eH
	DB	0eH
	DB	0eH
	DB	0eH
	DB	0eH
	DB	0dH
	DB	0dH
	DB	0dH
	DB	0dH
	DB	0dH
	DB	0dH
	DB	0dH
	DB	0dH
	DB	0dH
	DB	0dH
	DB	0dH
	DB	0dH
	DB	0dH
	DB	0dH
	DB	0dH
	DB	0cH
	DB	0cH
	DB	0cH
	DB	0cH
	DB	0cH
	DB	0cH
	DB	0cH
	DB	0cH
	DB	0cH
	DB	0cH
	DB	0cH
	DB	0cH
	DB	0cH
	DB	0cH
	DB	0cH
	DB	0cH
	DB	0cH
	DB	0cH
	DB	0cH
	DB	0cH
	DB	0cH
	DB	010H
	DB	010H
	DB	010H
	DB	010H
	DB	010H
	DB	010H
	DB	0fH
	DB	0fH
	DB	0fH
	DB	0fH
	DB	0fH
	DB	0fH
	DB	0fH
	DB	0fH
	DB	0fH
	DB	0fH
	DB	0fH
	DB	0eH
	DB	0eH
	DB	0eH
	DB	0eH
	DB	0eH
	DB	0eH
	DB	0eH
	DB	0eH
	DB	0eH
	DB	0eH
	DB	0eH
	DB	0eH
	DB	0dH
	DB	0dH
	DB	0dH
	DB	0dH
	DB	0dH
	DB	0dH
	DB	0dH
	DB	0dH
	DB	0dH
	DB	0dH
	DB	0dH
	DB	0dH
	DB	0dH
	DB	0dH
	DB	0dH
	DB	0cH
	DB	0cH
	DB	0cH
	DB	0cH
	DB	0cH
	DB	0cH
	DB	0cH
	DB	0cH
	DB	0cH
	DB	0cH
	DB	0cH
	DB	0cH
	DB	0cH
	DB	0cH
	DB	0cH
	DB	0cH
	DB	0cH
	DB	0cH
	DB	0cH
	DB	0cH
	DB	010H
	DB	010H
	DB	010H
	DB	010H
	DB	010H
	DB	010H
	DB	0fH
	DB	0fH
	DB	0fH
	DB	0fH
	DB	0fH
	DB	0fH
	DB	0fH
	DB	0fH
	DB	0fH
	DB	0fH
	DB	0fH
	DB	0eH
	DB	0eH
	DB	0eH
	DB	0eH
	DB	0eH
	DB	0eH
	DB	0eH
	DB	0eH
	DB	0eH
	DB	0eH
	DB	0eH
	DB	0eH
	DB	0dH
	DB	0dH
	DB	0dH
	DB	0dH
	DB	0dH
	DB	0dH
	DB	0dH
	DB	0dH
	DB	0dH
	DB	0dH
	DB	0dH
	DB	0dH
	DB	0dH
	DB	0dH
	DB	0dH
	DB	0dH
	DB	0cH
	DB	0cH
	DB	0cH
	DB	0cH
	DB	0cH
	DB	0cH
	DB	0cH
	DB	0cH
	DB	0cH
	DB	0cH
	DB	0cH
	DB	0cH
	DB	0cH
	DB	0cH
	DB	0cH
	DB	0cH
	DB	0cH
	DB	0cH
	DB	0cH
	DB	010H
	DB	010H
	DB	010H
	DB	010H
	DB	010H
	DB	010H
	DB	0fH
	DB	0fH
	DB	0fH
	DB	0fH
	DB	0fH
	DB	0fH
	DB	0fH
	DB	0fH
	DB	0fH
	DB	0fH
	DB	0fH
	DB	0eH
	DB	0eH
	DB	0eH
	DB	0eH
	DB	0eH
	DB	0eH
	DB	0eH
	DB	0eH
	DB	0eH
	DB	0eH
	DB	0eH
	DB	0eH
	DB	0eH
	DB	0dH
	DB	0dH
	DB	0dH
	DB	0dH
	DB	0dH
	DB	0dH
	DB	0dH
	DB	0dH
	DB	0dH
	DB	0dH
	DB	0dH
	DB	0dH
	DB	0dH
	DB	0dH
	DB	0dH
	DB	0dH
	DB	0cH
	DB	0cH
	DB	0cH
	DB	0cH
	DB	0cH
	DB	0cH
	DB	0cH
	DB	0cH
	DB	0cH
	DB	0cH
	DB	0cH
	DB	0cH
	DB	0cH
	DB	0cH
	DB	0cH
	DB	0cH
	DB	0cH
	DB	0cH
	DB	010H
	DB	010H
	DB	010H
	DB	010H
	DB	010H
	DB	010H
	DB	0fH
	DB	0fH
	DB	0fH
	DB	0fH
	DB	0fH
	DB	0fH
	DB	0fH
	DB	0fH
	DB	0fH
	DB	0fH
	DB	0fH
	DB	0eH
	DB	0eH
	DB	0eH
	DB	0eH
	DB	0eH
	DB	0eH
	DB	0eH
	DB	0eH
	DB	0eH
	DB	0eH
	DB	0eH
	DB	0eH
	DB	0eH
	DB	0dH
	DB	0dH
	DB	0dH
	DB	0dH
	DB	0dH
	DB	0dH
	DB	0dH
	DB	0dH
	DB	0dH
	DB	0dH
	DB	0dH
	DB	0dH
	DB	0dH
	DB	0dH
	DB	0dH
	DB	0dH
	DB	0cH
	DB	0cH
	DB	0cH
	DB	0cH
	DB	0cH
	DB	0cH
	DB	0cH
	DB	0cH
	DB	0cH
	DB	0cH
	DB	0cH
	DB	0cH
	DB	0cH
	DB	0cH
	DB	0cH
	DB	0cH
	DB	0cH
	DB	0cH
	DB	010H
	DB	010H
	DB	010H
	DB	010H
	DB	010H
	DB	010H
	DB	0fH
	DB	0fH
	DB	0fH
	DB	0fH
	DB	0fH
	DB	0fH
	DB	0fH
	DB	0fH
	DB	0fH
	DB	0fH
	DB	0fH
	DB	0fH
	DB	0eH
	DB	0eH
	DB	0eH
	DB	0eH
	DB	0eH
	DB	0eH
	DB	0eH
	DB	0eH
	DB	0eH
	DB	0eH
	DB	0eH
	DB	0eH
	DB	0eH
	DB	0dH
	DB	0dH
	DB	0dH
	DB	0dH
	DB	0dH
	DB	0dH
	DB	0dH
	DB	0dH
	DB	0dH
	DB	0dH
	DB	0dH
	DB	0dH
	DB	0dH
	DB	0dH
	DB	0dH
	DB	0dH
	DB	0cH
	DB	0cH
	DB	0cH
	DB	0cH
	DB	0cH
	DB	0cH
	DB	0cH
	DB	0cH
	DB	0cH
	DB	0cH
	DB	0cH
	DB	0cH
	DB	0cH
	DB	0cH
	DB	0cH
	DB	0cH
	DB	0cH
	DB	010H
	DB	010H
	DB	010H
	DB	010H
	DB	010H
	DB	010H
	DB	0fH
	DB	0fH
	DB	0fH
	DB	0fH
	DB	0fH
	DB	0fH
	DB	0fH
	DB	0fH
	DB	0fH
	DB	0fH
	DB	0fH
	DB	0fH
	DB	0eH
	DB	0eH
	DB	0eH
	DB	0eH
	DB	0eH
	DB	0eH
	DB	0eH
	DB	0eH
	DB	0eH
	DB	0eH
	DB	0eH
	DB	0eH
	DB	0eH
	DB	0eH
	DB	0dH
	DB	0dH
	DB	0dH
	DB	0dH
	DB	0dH
	DB	0dH
	DB	0dH
	DB	0dH
	DB	0dH
	DB	0dH
	DB	0dH
	DB	0dH
	DB	0dH
	DB	0dH
	DB	0dH
	DB	0dH
	DB	0cH
	DB	0cH
	DB	0cH
	DB	0cH
	DB	0cH
	DB	0cH
	DB	0cH
	DB	0cH
	DB	0cH
	DB	0cH
	DB	0cH
	DB	0cH
	DB	0cH
	DB	0cH
	DB	0cH
	DB	0cH
	DB	010H
	DB	010H
	DB	010H
	DB	010H
	DB	010H
	DB	010H
	DB	0fH
	DB	0fH
	DB	0fH
	DB	0fH
	DB	0fH
	DB	0fH
	DB	0fH
	DB	0fH
	DB	0fH
	DB	0fH
	DB	0fH
	DB	0fH
	DB	0eH
	DB	0eH
	DB	0eH
	DB	0eH
	DB	0eH
	DB	0eH
	DB	0eH
	DB	0eH
	DB	0eH
	DB	0eH
	DB	0eH
	DB	0eH
	DB	0eH
	DB	0eH
	DB	0dH
	DB	0dH
	DB	0dH
	DB	0dH
	DB	0dH
	DB	0dH
	DB	0dH
	DB	0dH
	DB	0dH
	DB	0dH
	DB	0dH
	DB	0dH
	DB	0dH
	DB	0dH
	DB	0dH
	DB	0dH
	DB	0dH
	DB	0cH
	DB	0cH
	DB	0cH
	DB	0cH
	DB	0cH
	DB	0cH
	DB	0cH
	DB	0cH
	DB	0cH
	DB	0cH
	DB	0cH
	DB	0cH
	DB	0cH
	DB	0cH
	DB	0cH
	DB	010H
	DB	010H
	DB	010H
	DB	010H
	DB	010H
	DB	010H
	DB	0fH
	DB	0fH
	DB	0fH
	DB	0fH
	DB	0fH
	DB	0fH
	DB	0fH
	DB	0fH
	DB	0fH
	DB	0fH
	DB	0fH
	DB	0fH
	DB	0fH
	DB	0eH
	DB	0eH
	DB	0eH
	DB	0eH
	DB	0eH
	DB	0eH
	DB	0eH
	DB	0eH
	DB	0eH
	DB	0eH
	DB	0eH
	DB	0eH
	DB	0eH
	DB	0eH
	DB	0dH
	DB	0dH
	DB	0dH
	DB	0dH
	DB	0dH
	DB	0dH
	DB	0dH
	DB	0dH
	DB	0dH
	DB	0dH
	DB	0dH
	DB	0dH
	DB	0dH
	DB	0dH
	DB	0dH
	DB	0dH
	DB	0dH
	DB	0cH
	DB	0cH
	DB	0cH
	DB	0cH
	DB	0cH
	DB	0cH
	DB	0cH
	DB	0cH
	DB	0cH
	DB	0cH
	DB	0cH
	DB	0cH
	DB	0cH
	DB	0cH
	DB	010H
	DB	010H
	DB	010H
	DB	010H
	DB	010H
	DB	010H
	DB	010H
	DB	0fH
	DB	0fH
	DB	0fH
	DB	0fH
	DB	0fH
	DB	0fH
	DB	0fH
	DB	0fH
	DB	0fH
	DB	0fH
	DB	0fH
	DB	0fH
	DB	0eH
	DB	0eH
	DB	0eH
	DB	0eH
	DB	0eH
	DB	0eH
	DB	0eH
	DB	0eH
	DB	0eH
	DB	0eH
	DB	0eH
	DB	0eH
	DB	0eH
	DB	0eH
	DB	0dH
	DB	0dH
	DB	0dH
	DB	0dH
	DB	0dH
	DB	0dH
	DB	0dH
	DB	0dH
	DB	0dH
	DB	0dH
	DB	0dH
	DB	0dH
	DB	0dH
	DB	0dH
	DB	0dH
	DB	0dH
	DB	0dH
	DB	0dH
	DB	0cH
	DB	0cH
	DB	0cH
	DB	0cH
	DB	0cH
	DB	0cH
	DB	0cH
	DB	0cH
	DB	0cH
	DB	0cH
	DB	0cH
	DB	0cH
	DB	0cH
	DB	010H
	DB	010H
	DB	010H
	DB	010H
	DB	010H
	DB	010H
	DB	010H
	DB	0fH
	DB	0fH
	DB	0fH
	DB	0fH
	DB	0fH
	DB	0fH
	DB	0fH
	DB	0fH
	DB	0fH
	DB	0fH
	DB	0fH
	DB	0fH
	DB	0eH
	DB	0eH
	DB	0eH
	DB	0eH
	DB	0eH
	DB	0eH
	DB	0eH
	DB	0eH
	DB	0eH
	DB	0eH
	DB	0eH
	DB	0eH
	DB	0eH
	DB	0eH
	DB	0eH
	DB	0dH
	DB	0dH
	DB	0dH
	DB	0dH
	DB	0dH
	DB	0dH
	DB	0dH
	DB	0dH
	DB	0dH
	DB	0dH
	DB	0dH
	DB	0dH
	DB	0dH
	DB	0dH
	DB	0dH
	DB	0dH
	DB	0dH
	DB	0cH
	DB	0cH
	DB	0cH
	DB	0cH
	DB	0cH
	DB	0cH
	DB	0cH
	DB	0cH
	DB	0cH
	DB	0cH
	DB	0cH
	DB	0cH
	DB	0cH
	DB	010H
	DB	010H
	DB	010H
	DB	010H
	DB	010H
	DB	010H
	DB	010H
	DB	0fH
	DB	0fH
	DB	0fH
	DB	0fH
	DB	0fH
	DB	0fH
	DB	0fH
	DB	0fH
	DB	0fH
	DB	0fH
	DB	0fH
	DB	0fH
	DB	0fH
	DB	0eH
	DB	0eH
	DB	0eH
	DB	0eH
	DB	0eH
	DB	0eH
	DB	0eH
	DB	0eH
	DB	0eH
	DB	0eH
	DB	0eH
	DB	0eH
	DB	0eH
	DB	0eH
	DB	0dH
	DB	0dH
	DB	0dH
	DB	0dH
	DB	0dH
	DB	0dH
	DB	0dH
	DB	0dH
	DB	0dH
	DB	0dH
	DB	0dH
	DB	0dH
	DB	0dH
	DB	0dH
	DB	0dH
	DB	0dH
	DB	0dH
	DB	0dH
	DB	0cH
	DB	0cH
	DB	0cH
	DB	0cH
	DB	0cH
	DB	0cH
	DB	0cH
	DB	0cH
	DB	0cH
	DB	0cH
	DB	0cH
	DB	0cH
?Distance_Tbl@@3PACA DB 00H				; Distance_Tbl
	DB	01H
	DB	02H
	DB	03H
	DB	04H
	DB	05H
	DB	06H
	DB	07H
	DB	08H
	DB	09H
	DB	0aH
	DB	0bH
	DB	0cH
	DB	0dH
	DB	0eH
	DB	0fH
	DB	010H
	DB	011H
	DB	012H
	DB	013H
	DB	014H
	DB	015H
	DB	016H
	DB	017H
	DB	018H
	DB	019H
	DB	01aH
	DB	01bH
	DB	01cH
	DB	01dH
	DB	01eH
	DB	01fH
	DB	020H
	DB	021H
	DB	022H
	DB	023H
	DB	024H
	DB	025H
	DB	026H
	DB	027H
	DB	028H
	DB	029H
	DB	02aH
	DB	02bH
	DB	02cH
	DB	02dH
	DB	02eH
	DB	02fH
	DB	030H
	DB	031H
	DB	032H
	DB	033H
	DB	034H
	DB	035H
	DB	036H
	DB	037H
	DB	038H
	DB	039H
	DB	03aH
	DB	03bH
	DB	03cH
	DB	03dH
	DB	03eH
	DB	03fH
	DB	01H
	DB	01H
	DB	02H
	DB	03H
	DB	04H
	DB	05H
	DB	06H
	DB	07H
	DB	08H
	DB	09H
	DB	0aH
	DB	0bH
	DB	0cH
	DB	0dH
	DB	0eH
	DB	0fH
	DB	010H
	DB	011H
	DB	012H
	DB	013H
	DB	014H
	DB	015H
	DB	016H
	DB	017H
	DB	018H
	DB	019H
	DB	01aH
	DB	01bH
	DB	01cH
	DB	01dH
	DB	01eH
	DB	01fH
	DB	020H
	DB	021H
	DB	022H
	DB	023H
	DB	024H
	DB	025H
	DB	026H
	DB	027H
	DB	028H
	DB	029H
	DB	02aH
	DB	02bH
	DB	02cH
	DB	02dH
	DB	02eH
	DB	02fH
	DB	030H
	DB	031H
	DB	032H
	DB	033H
	DB	034H
	DB	035H
	DB	036H
	DB	037H
	DB	038H
	DB	039H
	DB	03aH
	DB	03bH
	DB	03cH
	DB	03dH
	DB	03eH
	DB	03fH
	DB	02H
	DB	02H
	DB	02H
	DB	03H
	DB	04H
	DB	05H
	DB	06H
	DB	07H
	DB	08H
	DB	09H
	DB	0aH
	DB	0bH
	DB	0cH
	DB	0dH
	DB	0eH
	DB	0fH
	DB	010H
	DB	011H
	DB	012H
	DB	013H
	DB	014H
	DB	015H
	DB	016H
	DB	017H
	DB	018H
	DB	019H
	DB	01aH
	DB	01bH
	DB	01cH
	DB	01dH
	DB	01eH
	DB	01fH
	DB	020H
	DB	021H
	DB	022H
	DB	023H
	DB	024H
	DB	025H
	DB	026H
	DB	027H
	DB	028H
	DB	029H
	DB	02aH
	DB	02bH
	DB	02cH
	DB	02dH
	DB	02eH
	DB	02fH
	DB	030H
	DB	031H
	DB	032H
	DB	033H
	DB	034H
	DB	035H
	DB	036H
	DB	037H
	DB	038H
	DB	039H
	DB	03aH
	DB	03bH
	DB	03cH
	DB	03dH
	DB	03eH
	DB	03fH
	DB	03H
	DB	03H
	DB	03H
	DB	04H
	DB	05H
	DB	05H
	DB	06H
	DB	07H
	DB	08H
	DB	09H
	DB	0aH
	DB	0bH
	DB	0cH
	DB	0dH
	DB	0eH
	DB	0fH
	DB	010H
	DB	011H
	DB	012H
	DB	013H
	DB	014H
	DB	015H
	DB	016H
	DB	017H
	DB	018H
	DB	019H
	DB	01aH
	DB	01bH
	DB	01cH
	DB	01dH
	DB	01eH
	DB	01fH
	DB	020H
	DB	021H
	DB	022H
	DB	023H
	DB	024H
	DB	025H
	DB	026H
	DB	027H
	DB	028H
	DB	029H
	DB	02aH
	DB	02bH
	DB	02cH
	DB	02dH
	DB	02eH
	DB	02fH
	DB	030H
	DB	031H
	DB	032H
	DB	033H
	DB	034H
	DB	035H
	DB	036H
	DB	037H
	DB	038H
	DB	039H
	DB	03aH
	DB	03bH
	DB	03cH
	DB	03dH
	DB	03eH
	DB	03fH
	DB	04H
	DB	04H
	DB	04H
	DB	05H
	DB	05H
	DB	06H
	DB	07H
	DB	08H
	DB	08H
	DB	09H
	DB	0aH
	DB	0bH
	DB	0cH
	DB	0dH
	DB	0eH
	DB	0fH
	DB	010H
	DB	011H
	DB	012H
	DB	013H
	DB	014H
	DB	015H
	DB	016H
	DB	017H
	DB	018H
	DB	019H
	DB	01aH
	DB	01bH
	DB	01cH
	DB	01dH
	DB	01eH
	DB	01fH
	DB	020H
	DB	021H
	DB	022H
	DB	023H
	DB	024H
	DB	025H
	DB	026H
	DB	027H
	DB	028H
	DB	029H
	DB	02aH
	DB	02bH
	DB	02cH
	DB	02dH
	DB	02eH
	DB	02fH
	DB	030H
	DB	031H
	DB	032H
	DB	033H
	DB	034H
	DB	035H
	DB	036H
	DB	037H
	DB	038H
	DB	039H
	DB	03aH
	DB	03bH
	DB	03cH
	DB	03dH
	DB	03eH
	DB	03fH
	DB	05H
	DB	05H
	DB	05H
	DB	05H
	DB	06H
	DB	07H
	DB	07H
	DB	08H
	DB	09H
	DB	0aH
	DB	0bH
	DB	0cH
	DB	0dH
	DB	0dH
	DB	0eH
	DB	0fH
	DB	010H
	DB	011H
	DB	012H
	DB	013H
	DB	014H
	DB	015H
	DB	016H
	DB	017H
	DB	018H
	DB	019H
	DB	01aH
	DB	01bH
	DB	01cH
	DB	01dH
	DB	01eH
	DB	01fH
	DB	020H
	DB	021H
	DB	022H
	DB	023H
	DB	024H
	DB	025H
	DB	026H
	DB	027H
	DB	028H
	DB	029H
	DB	02aH
	DB	02bH
	DB	02cH
	DB	02dH
	DB	02eH
	DB	02fH
	DB	030H
	DB	031H
	DB	032H
	DB	033H
	DB	034H
	DB	035H
	DB	036H
	DB	037H
	DB	038H
	DB	039H
	DB	03aH
	DB	03bH
	DB	03cH
	DB	03dH
	DB	03eH
	DB	03fH
	DB	06H
	DB	06H
	DB	06H
	DB	06H
	DB	07H
	DB	07H
	DB	08H
	DB	09H
	DB	0aH
	DB	0aH
	DB	0bH
	DB	0cH
	DB	0dH
	DB	0eH
	DB	0fH
	DB	010H
	DB	011H
	DB	012H
	DB	012H
	DB	013H
	DB	014H
	DB	015H
	DB	016H
	DB	017H
	DB	018H
	DB	019H
	DB	01aH
	DB	01bH
	DB	01cH
	DB	01dH
	DB	01eH
	DB	01fH
	DB	020H
	DB	021H
	DB	022H
	DB	023H
	DB	024H
	DB	025H
	DB	026H
	DB	027H
	DB	028H
	DB	029H
	DB	02aH
	DB	02bH
	DB	02cH
	DB	02dH
	DB	02eH
	DB	02fH
	DB	030H
	DB	031H
	DB	032H
	DB	033H
	DB	034H
	DB	035H
	DB	036H
	DB	037H
	DB	038H
	DB	039H
	DB	03aH
	DB	03bH
	DB	03cH
	DB	03dH
	DB	03eH
	DB	03fH
	DB	07H
	DB	07H
	DB	07H
	DB	07H
	DB	08H
	DB	08H
	DB	09H
	DB	09H
	DB	0aH
	DB	0bH
	DB	0cH
	DB	0dH
	DB	0dH
	DB	0eH
	DB	0fH
	DB	010H
	DB	011H
	DB	012H
	DB	013H
	DB	014H
	DB	015H
	DB	016H
	DB	017H
	DB	018H
	DB	019H
	DB	019H
	DB	01aH
	DB	01bH
	DB	01cH
	DB	01dH
	DB	01eH
	DB	01fH
	DB	020H
	DB	021H
	DB	022H
	DB	023H
	DB	024H
	DB	025H
	DB	026H
	DB	027H
	DB	028H
	DB	029H
	DB	02aH
	DB	02bH
	DB	02cH
	DB	02dH
	DB	02eH
	DB	02fH
	DB	030H
	DB	031H
	DB	032H
	DB	033H
	DB	034H
	DB	035H
	DB	036H
	DB	037H
	DB	038H
	DB	039H
	DB	03aH
	DB	03bH
	DB	03cH
	DB	03dH
	DB	03eH
	DB	03fH
	DB	08H
	DB	08H
	DB	08H
	DB	08H
	DB	08H
	DB	09H
	DB	0aH
	DB	0aH
	DB	0bH
	DB	0cH
	DB	0cH
	DB	0dH
	DB	0eH
	DB	0fH
	DB	010H
	DB	011H
	DB	011H
	DB	012H
	DB	013H
	DB	014H
	DB	015H
	DB	016H
	DB	017H
	DB	018H
	DB	019H
	DB	01aH
	DB	01bH
	DB	01cH
	DB	01dH
	DB	01eH
	DB	01fH
	DB	020H
	DB	020H
	DB	021H
	DB	022H
	DB	023H
	DB	024H
	DB	025H
	DB	026H
	DB	027H
	DB	028H
	DB	029H
	DB	02aH
	DB	02bH
	DB	02cH
	DB	02dH
	DB	02eH
	DB	02fH
	DB	030H
	DB	031H
	DB	032H
	DB	033H
	DB	034H
	DB	035H
	DB	036H
	DB	037H
	DB	038H
	DB	039H
	DB	03aH
	DB	03bH
	DB	03cH
	DB	03dH
	DB	03eH
	DB	03fH
	DB	09H
	DB	09H
	DB	09H
	DB	09H
	DB	09H
	DB	0aH
	DB	0aH
	DB	0bH
	DB	0cH
	DB	0cH
	DB	0dH
	DB	0eH
	DB	0fH
	DB	0fH
	DB	010H
	DB	011H
	DB	012H
	DB	013H
	DB	014H
	DB	015H
	DB	015H
	DB	016H
	DB	017H
	DB	018H
	DB	019H
	DB	01aH
	DB	01bH
	DB	01cH
	DB	01dH
	DB	01eH
	DB	01fH
	DB	020H
	DB	021H
	DB	022H
	DB	023H
	DB	024H
	DB	025H
	DB	026H
	DB	027H
	DB	028H
	DB	029H
	DB	029H
	DB	02aH
	DB	02bH
	DB	02cH
	DB	02dH
	DB	02eH
	DB	02fH
	DB	030H
	DB	031H
	DB	032H
	DB	033H
	DB	034H
	DB	035H
	DB	036H
	DB	037H
	DB	038H
	DB	039H
	DB	03aH
	DB	03bH
	DB	03cH
	DB	03dH
	DB	03eH
	DB	03fH
	DB	0aH
	DB	0aH
	DB	0aH
	DB	0aH
	DB	0aH
	DB	0bH
	DB	0bH
	DB	0cH
	DB	0cH
	DB	0dH
	DB	0eH
	DB	0eH
	DB	0fH
	DB	010H
	DB	011H
	DB	012H
	DB	012H
	DB	013H
	DB	014H
	DB	015H
	DB	016H
	DB	017H
	DB	018H
	DB	019H
	DB	01aH
	DB	01aH
	DB	01bH
	DB	01cH
	DB	01dH
	DB	01eH
	DB	01fH
	DB	020H
	DB	021H
	DB	022H
	DB	023H
	DB	024H
	DB	025H
	DB	026H
	DB	027H
	DB	028H
	DB	029H
	DB	02aH
	DB	02bH
	DB	02cH
	DB	02dH
	DB	02eH
	DB	02fH
	DB	030H
	DB	031H
	DB	032H
	DB	032H
	DB	033H
	DB	034H
	DB	035H
	DB	036H
	DB	037H
	DB	038H
	DB	039H
	DB	03aH
	DB	03bH
	DB	03cH
	DB	03dH
	DB	03eH
	DB	03fH
	DB	0bH
	DB	0bH
	DB	0bH
	DB	0bH
	DB	0bH
	DB	0cH
	DB	0cH
	DB	0dH
	DB	0dH
	DB	0eH
	DB	0eH
	DB	0fH
	DB	010H
	DB	011H
	DB	011H
	DB	012H
	DB	013H
	DB	014H
	DB	015H
	DB	015H
	DB	016H
	DB	017H
	DB	018H
	DB	019H
	DB	01aH
	DB	01bH
	DB	01cH
	DB	01dH
	DB	01eH
	DB	01fH
	DB	01fH
	DB	020H
	DB	021H
	DB	022H
	DB	023H
	DB	024H
	DB	025H
	DB	026H
	DB	027H
	DB	028H
	DB	029H
	DB	02aH
	DB	02bH
	DB	02cH
	DB	02dH
	DB	02eH
	DB	02fH
	DB	030H
	DB	031H
	DB	032H
	DB	033H
	DB	034H
	DB	035H
	DB	036H
	DB	037H
	DB	038H
	DB	039H
	DB	03aH
	DB	03bH
	DB	03cH
	DB	03dH
	DB	03dH
	DB	03eH
	DB	03fH
	DB	0cH
	DB	0cH
	DB	0cH
	DB	0cH
	DB	0cH
	DB	0dH
	DB	0dH
	DB	0dH
	DB	0eH
	DB	0fH
	DB	0fH
	DB	010H
	DB	010H
	DB	011H
	DB	012H
	DB	013H
	DB	014H
	DB	014H
	DB	015H
	DB	016H
	DB	017H
	DB	018H
	DB	019H
	DB	019H
	DB	01aH
	DB	01bH
	DB	01cH
	DB	01dH
	DB	01eH
	DB	01fH
	DB	020H
	DB	021H
	DB	022H
	DB	023H
	DB	024H
	DB	025H
	DB	025H
	DB	026H
	DB	027H
	DB	028H
	DB	029H
	DB	02aH
	DB	02bH
	DB	02cH
	DB	02dH
	DB	02eH
	DB	02fH
	DB	030H
	DB	031H
	DB	032H
	DB	033H
	DB	034H
	DB	035H
	DB	036H
	DB	037H
	DB	038H
	DB	039H
	DB	03aH
	DB	03bH
	DB	03cH
	DB	03dH
	DB	03eH
	DB	03fH
	DB	040H
	DB	0dH
	DB	0dH
	DB	0dH
	DB	0dH
	DB	0dH
	DB	0dH
	DB	0eH
	DB	0eH
	DB	0fH
	DB	0fH
	DB	010H
	DB	011H
	DB	011H
	DB	012H
	DB	013H
	DB	013H
	DB	014H
	DB	015H
	DB	016H
	DB	017H
	DB	017H
	DB	018H
	DB	019H
	DB	01aH
	DB	01bH
	DB	01cH
	DB	01dH
	DB	01dH
	DB	01eH
	DB	01fH
	DB	020H
	DB	021H
	DB	022H
	DB	023H
	DB	024H
	DB	025H
	DB	026H
	DB	027H
	DB	028H
	DB	029H
	DB	02aH
	DB	02bH
	DB	02bH
	DB	02cH
	DB	02dH
	DB	02eH
	DB	02fH
	DB	030H
	DB	031H
	DB	032H
	DB	033H
	DB	034H
	DB	035H
	DB	036H
	DB	037H
	DB	038H
	DB	039H
	DB	03aH
	DB	03bH
	DB	03cH
	DB	03dH
	DB	03eH
	DB	03fH
	DB	040H
	DB	0eH
	DB	0eH
	DB	0eH
	DB	0eH
	DB	0eH
	DB	0eH
	DB	0fH
	DB	0fH
	DB	010H
	DB	010H
	DB	011H
	DB	011H
	DB	012H
	DB	013H
	DB	013H
	DB	014H
	DB	015H
	DB	016H
	DB	016H
	DB	017H
	DB	018H
	DB	019H
	DB	01aH
	DB	01aH
	DB	01bH
	DB	01cH
	DB	01dH
	DB	01eH
	DB	01fH
	DB	020H
	DB	021H
	DB	022H
	DB	022H
	DB	023H
	DB	024H
	DB	025H
	DB	026H
	DB	027H
	DB	028H
	DB	029H
	DB	02aH
	DB	02bH
	DB	02cH
	DB	02dH
	DB	02eH
	DB	02fH
	DB	030H
	DB	031H
	DB	032H
	DB	032H
	DB	033H
	DB	034H
	DB	035H
	DB	036H
	DB	037H
	DB	038H
	DB	039H
	DB	03aH
	DB	03bH
	DB	03cH
	DB	03dH
	DB	03eH
	DB	03fH
	DB	040H
	DB	0fH
	DB	0fH
	DB	0fH
	DB	0fH
	DB	0fH
	DB	0fH
	DB	010H
	DB	010H
	DB	011H
	DB	011H
	DB	012H
	DB	012H
	DB	013H
	DB	013H
	DB	014H
	DB	015H
	DB	015H
	DB	016H
	DB	017H
	DB	018H
	DB	019H
	DB	019H
	DB	01aH
	DB	01bH
	DB	01cH
	DB	01dH
	DB	01eH
	DB	01eH
	DB	01fH
	DB	020H
	DB	021H
	DB	022H
	DB	023H
	DB	024H
	DB	025H
	DB	026H
	DB	027H
	DB	027H
	DB	028H
	DB	029H
	DB	02aH
	DB	02bH
	DB	02cH
	DB	02dH
	DB	02eH
	DB	02fH
	DB	030H
	DB	031H
	DB	032H
	DB	033H
	DB	034H
	DB	035H
	DB	036H
	DB	037H
	DB	038H
	DB	039H
	DB	039H
	DB	03aH
	DB	03bH
	DB	03cH
	DB	03dH
	DB	03eH
	DB	03fH
	DB	040H
	DB	010H
	DB	010H
	DB	010H
	DB	010H
	DB	010H
	DB	010H
	DB	011H
	DB	011H
	DB	011H
	DB	012H
	DB	012H
	DB	013H
	DB	014H
	DB	014H
	DB	015H
	DB	015H
	DB	016H
	DB	017H
	DB	018H
	DB	018H
	DB	019H
	DB	01aH
	DB	01bH
	DB	01cH
	DB	01cH
	DB	01dH
	DB	01eH
	DB	01fH
	DB	020H
	DB	021H
	DB	022H
	DB	022H
	DB	023H
	DB	024H
	DB	025H
	DB	026H
	DB	027H
	DB	028H
	DB	029H
	DB	02aH
	DB	02bH
	DB	02cH
	DB	02cH
	DB	02dH
	DB	02eH
	DB	02fH
	DB	030H
	DB	031H
	DB	032H
	DB	033H
	DB	034H
	DB	035H
	DB	036H
	DB	037H
	DB	038H
	DB	039H
	DB	03aH
	DB	03bH
	DB	03cH
	DB	03dH
	DB	03eH
	DB	03fH
	DB	040H
	DB	041H
	DB	011H
	DB	011H
	DB	011H
	DB	011H
	DB	011H
	DB	011H
	DB	012H
	DB	012H
	DB	012H
	DB	013H
	DB	013H
	DB	014H
	DB	014H
	DB	015H
	DB	016H
	DB	016H
	DB	017H
	DB	018H
	DB	018H
	DB	019H
	DB	01aH
	DB	01bH
	DB	01bH
	DB	01cH
	DB	01dH
	DB	01eH
	DB	01fH
	DB	01fH
	DB	020H
	DB	021H
	DB	022H
	DB	023H
	DB	024H
	DB	025H
	DB	026H
	DB	026H
	DB	027H
	DB	028H
	DB	029H
	DB	02aH
	DB	02bH
	DB	02cH
	DB	02dH
	DB	02eH
	DB	02fH
	DB	030H
	DB	031H
	DB	031H
	DB	032H
	DB	033H
	DB	034H
	DB	035H
	DB	036H
	DB	037H
	DB	038H
	DB	039H
	DB	03aH
	DB	03bH
	DB	03cH
	DB	03dH
	DB	03eH
	DB	03fH
	DB	040H
	DB	041H
	DB	012H
	DB	012H
	DB	012H
	DB	012H
	DB	012H
	DB	012H
	DB	012H
	DB	013H
	DB	013H
	DB	014H
	DB	014H
	DB	015H
	DB	015H
	DB	016H
	DB	016H
	DB	017H
	DB	018H
	DB	018H
	DB	019H
	DB	01aH
	DB	01aH
	DB	01bH
	DB	01cH
	DB	01dH
	DB	01eH
	DB	01eH
	DB	01fH
	DB	020H
	DB	021H
	DB	022H
	DB	022H
	DB	023H
	DB	024H
	DB	025H
	DB	026H
	DB	027H
	DB	028H
	DB	029H
	DB	02aH
	DB	02aH
	DB	02bH
	DB	02cH
	DB	02dH
	DB	02eH
	DB	02fH
	DB	030H
	DB	031H
	DB	032H
	DB	033H
	DB	034H
	DB	035H
	DB	036H
	DB	037H
	DB	037H
	DB	038H
	DB	039H
	DB	03aH
	DB	03bH
	DB	03cH
	DB	03dH
	DB	03eH
	DB	03fH
	DB	040H
	DB	041H
	DB	013H
	DB	013H
	DB	013H
	DB	013H
	DB	013H
	DB	013H
	DB	013H
	DB	014H
	DB	014H
	DB	015H
	DB	015H
	DB	015H
	DB	016H
	DB	017H
	DB	017H
	DB	018H
	DB	018H
	DB	019H
	DB	01aH
	DB	01aH
	DB	01bH
	DB	01cH
	DB	01dH
	DB	01dH
	DB	01eH
	DB	01fH
	DB	020H
	DB	021H
	DB	021H
	DB	022H
	DB	023H
	DB	024H
	DB	025H
	DB	026H
	DB	026H
	DB	027H
	DB	028H
	DB	029H
	DB	02aH
	DB	02bH
	DB	02cH
	DB	02dH
	DB	02eH
	DB	02fH
	DB	02fH
	DB	030H
	DB	031H
	DB	032H
	DB	033H
	DB	034H
	DB	035H
	DB	036H
	DB	037H
	DB	038H
	DB	039H
	DB	03aH
	DB	03bH
	DB	03cH
	DB	03dH
	DB	03dH
	DB	03eH
	DB	03fH
	DB	040H
	DB	041H
	DB	014H
	DB	014H
	DB	014H
	DB	014H
	DB	014H
	DB	014H
	DB	014H
	DB	015H
	DB	015H
	DB	015H
	DB	016H
	DB	016H
	DB	017H
	DB	017H
	DB	018H
	DB	019H
	DB	019H
	DB	01aH
	DB	01aH
	DB	01bH
	DB	01cH
	DB	01dH
	DB	01dH
	DB	01eH
	DB	01fH
	DB	020H
	DB	020H
	DB	021H
	DB	022H
	DB	023H
	DB	024H
	DB	024H
	DB	025H
	DB	026H
	DB	027H
	DB	028H
	DB	029H
	DB	02aH
	DB	02aH
	DB	02bH
	DB	02cH
	DB	02dH
	DB	02eH
	DB	02fH
	DB	030H
	DB	031H
	DB	032H
	DB	033H
	DB	034H
	DB	034H
	DB	035H
	DB	036H
	DB	037H
	DB	038H
	DB	039H
	DB	03aH
	DB	03bH
	DB	03cH
	DB	03dH
	DB	03eH
	DB	03fH
	DB	040H
	DB	041H
	DB	042H
	DB	015H
	DB	015H
	DB	015H
	DB	015H
	DB	015H
	DB	015H
	DB	015H
	DB	016H
	DB	016H
	DB	016H
	DB	017H
	DB	017H
	DB	018H
	DB	018H
	DB	019H
	DB	019H
	DB	01aH
	DB	01bH
	DB	01bH
	DB	01cH
	DB	01dH
	DB	01dH
	DB	01eH
	DB	01fH
	DB	01fH
	DB	020H
	DB	021H
	DB	022H
	DB	023H
	DB	023H
	DB	024H
	DB	025H
	DB	026H
	DB	027H
	DB	027H
	DB	028H
	DB	029H
	DB	02aH
	DB	02bH
	DB	02cH
	DB	02dH
	DB	02eH
	DB	02eH
	DB	02fH
	DB	030H
	DB	031H
	DB	032H
	DB	033H
	DB	034H
	DB	035H
	DB	036H
	DB	037H
	DB	038H
	DB	039H
	DB	039H
	DB	03aH
	DB	03bH
	DB	03cH
	DB	03dH
	DB	03eH
	DB	03fH
	DB	040H
	DB	041H
	DB	042H
	DB	016H
	DB	016H
	DB	016H
	DB	016H
	DB	016H
	DB	016H
	DB	016H
	DB	017H
	DB	017H
	DB	017H
	DB	018H
	DB	018H
	DB	019H
	DB	019H
	DB	01aH
	DB	01aH
	DB	01bH
	DB	01bH
	DB	01cH
	DB	01dH
	DB	01dH
	DB	01eH
	DB	01fH
	DB	01fH
	DB	020H
	DB	021H
	DB	022H
	DB	022H
	DB	023H
	DB	024H
	DB	025H
	DB	026H
	DB	026H
	DB	027H
	DB	028H
	DB	029H
	DB	02aH
	DB	02bH
	DB	02bH
	DB	02cH
	DB	02dH
	DB	02eH
	DB	02fH
	DB	030H
	DB	031H
	DB	032H
	DB	032H
	DB	033H
	DB	034H
	DB	035H
	DB	036H
	DB	037H
	DB	038H
	DB	039H
	DB	03aH
	DB	03bH
	DB	03cH
	DB	03dH
	DB	03eH
	DB	03eH
	DB	03fH
	DB	040H
	DB	041H
	DB	042H
	DB	017H
	DB	017H
	DB	017H
	DB	017H
	DB	017H
	DB	017H
	DB	017H
	DB	018H
	DB	018H
	DB	018H
	DB	019H
	DB	019H
	DB	019H
	DB	01aH
	DB	01aH
	DB	01bH
	DB	01cH
	DB	01cH
	DB	01dH
	DB	01dH
	DB	01eH
	DB	01fH
	DB	01fH
	DB	020H
	DB	021H
	DB	021H
	DB	022H
	DB	023H
	DB	024H
	DB	025H
	DB	025H
	DB	026H
	DB	027H
	DB	028H
	DB	029H
	DB	029H
	DB	02aH
	DB	02bH
	DB	02cH
	DB	02dH
	DB	02eH
	DB	02fH
	DB	02fH
	DB	030H
	DB	031H
	DB	032H
	DB	033H
	DB	034H
	DB	035H
	DB	036H
	DB	037H
	DB	037H
	DB	038H
	DB	039H
	DB	03aH
	DB	03bH
	DB	03cH
	DB	03dH
	DB	03eH
	DB	03fH
	DB	040H
	DB	041H
	DB	042H
	DB	043H
	DB	018H
	DB	018H
	DB	018H
	DB	018H
	DB	018H
	DB	018H
	DB	018H
	DB	019H
	DB	019H
	DB	019H
	DB	01aH
	DB	01aH
	DB	01aH
	DB	01bH
	DB	01bH
	DB	01cH
	DB	01cH
	DB	01dH
	DB	01eH
	DB	01eH
	DB	01fH
	DB	01fH
	DB	020H
	DB	021H
	DB	021H
	DB	022H
	DB	023H
	DB	024H
	DB	024H
	DB	025H
	DB	026H
	DB	027H
	DB	028H
	DB	028H
	DB	029H
	DB	02aH
	DB	02bH
	DB	02cH
	DB	02cH
	DB	02dH
	DB	02eH
	DB	02fH
	DB	030H
	DB	031H
	DB	032H
	DB	033H
	DB	033H
	DB	034H
	DB	035H
	DB	036H
	DB	037H
	DB	038H
	DB	039H
	DB	03aH
	DB	03bH
	DB	03cH
	DB	03cH
	DB	03dH
	DB	03eH
	DB	03fH
	DB	040H
	DB	041H
	DB	042H
	DB	043H
	DB	019H
	DB	019H
	DB	019H
	DB	019H
	DB	019H
	DB	019H
	DB	019H
	DB	019H
	DB	01aH
	DB	01aH
	DB	01aH
	DB	01bH
	DB	01bH
	DB	01cH
	DB	01cH
	DB	01dH
	DB	01dH
	DB	01eH
	DB	01eH
	DB	01fH
	DB	020H
	DB	020H
	DB	021H
	DB	021H
	DB	022H
	DB	023H
	DB	024H
	DB	024H
	DB	025H
	DB	026H
	DB	027H
	DB	027H
	DB	028H
	DB	029H
	DB	02aH
	DB	02bH
	DB	02bH
	DB	02cH
	DB	02dH
	DB	02eH
	DB	02fH
	DB	030H
	DB	030H
	DB	031H
	DB	032H
	DB	033H
	DB	034H
	DB	035H
	DB	036H
	DB	037H
	DB	037H
	DB	038H
	DB	039H
	DB	03aH
	DB	03bH
	DB	03cH
	DB	03dH
	DB	03eH
	DB	03fH
	DB	040H
	DB	041H
	DB	041H
	DB	042H
	DB	043H
	DB	01aH
	DB	01aH
	DB	01aH
	DB	01aH
	DB	01aH
	DB	01aH
	DB	01aH
	DB	01aH
	DB	01bH
	DB	01bH
	DB	01bH
	DB	01cH
	DB	01cH
	DB	01dH
	DB	01dH
	DB	01eH
	DB	01eH
	DB	01fH
	DB	01fH
	DB	020H
	DB	020H
	DB	021H
	DB	022H
	DB	022H
	DB	023H
	DB	024H
	DB	024H
	DB	025H
	DB	026H
	DB	026H
	DB	027H
	DB	028H
	DB	029H
	DB	02aH
	DB	02aH
	DB	02bH
	DB	02cH
	DB	02dH
	DB	02eH
	DB	02eH
	DB	02fH
	DB	030H
	DB	031H
	DB	032H
	DB	033H
	DB	033H
	DB	034H
	DB	035H
	DB	036H
	DB	037H
	DB	038H
	DB	039H
	DB	03aH
	DB	03bH
	DB	03bH
	DB	03cH
	DB	03dH
	DB	03eH
	DB	03fH
	DB	040H
	DB	041H
	DB	042H
	DB	043H
	DB	044H
	DB	01bH
	DB	01bH
	DB	01bH
	DB	01bH
	DB	01bH
	DB	01bH
	DB	01bH
	DB	01bH
	DB	01cH
	DB	01cH
	DB	01cH
	DB	01dH
	DB	01dH
	DB	01dH
	DB	01eH
	DB	01eH
	DB	01fH
	DB	01fH
	DB	020H
	DB	021H
	DB	021H
	DB	022H
	DB	022H
	DB	023H
	DB	024H
	DB	024H
	DB	025H
	DB	026H
	DB	026H
	DB	027H
	DB	028H
	DB	029H
	DB	029H
	DB	02aH
	DB	02bH
	DB	02cH
	DB	02dH
	DB	02dH
	DB	02eH
	DB	02fH
	DB	030H
	DB	031H
	DB	031H
	DB	032H
	DB	033H
	DB	034H
	DB	035H
	DB	036H
	DB	037H
	DB	037H
	DB	038H
	DB	039H
	DB	03aH
	DB	03bH
	DB	03cH
	DB	03dH
	DB	03eH
	DB	03fH
	DB	03fH
	DB	040H
	DB	041H
	DB	042H
	DB	043H
	DB	044H
	DB	01cH
	DB	01cH
	DB	01cH
	DB	01cH
	DB	01cH
	DB	01cH
	DB	01cH
	DB	01cH
	DB	01dH
	DB	01dH
	DB	01dH
	DB	01eH
	DB	01eH
	DB	01eH
	DB	01fH
	DB	01fH
	DB	020H
	DB	020H
	DB	021H
	DB	021H
	DB	022H
	DB	023H
	DB	023H
	DB	024H
	DB	024H
	DB	025H
	DB	026H
	DB	026H
	DB	027H
	DB	028H
	DB	029H
	DB	029H
	DB	02aH
	DB	02bH
	DB	02cH
	DB	02cH
	DB	02dH
	DB	02eH
	DB	02fH
	DB	030H
	DB	030H
	DB	031H
	DB	032H
	DB	033H
	DB	034H
	DB	035H
	DB	035H
	DB	036H
	DB	037H
	DB	038H
	DB	039H
	DB	03aH
	DB	03bH
	DB	03bH
	DB	03cH
	DB	03dH
	DB	03eH
	DB	03fH
	DB	040H
	DB	041H
	DB	042H
	DB	043H
	DB	044H
	DB	044H
	DB	01dH
	DB	01dH
	DB	01dH
	DB	01dH
	DB	01dH
	DB	01dH
	DB	01dH
	DB	01dH
	DB	01eH
	DB	01eH
	DB	01eH
	DB	01fH
	DB	01fH
	DB	01fH
	DB	020H
	DB	020H
	DB	021H
	DB	021H
	DB	022H
	DB	022H
	DB	023H
	DB	023H
	DB	024H
	DB	025H
	DB	025H
	DB	026H
	DB	026H
	DB	027H
	DB	028H
	DB	029H
	DB	029H
	DB	02aH
	DB	02bH
	DB	02bH
	DB	02cH
	DB	02dH
	DB	02eH
	DB	02fH
	DB	02fH
	DB	030H
	DB	031H
	DB	032H
	DB	033H
	DB	033H
	DB	034H
	DB	035H
	DB	036H
	DB	037H
	DB	038H
	DB	038H
	DB	039H
	DB	03aH
	DB	03bH
	DB	03cH
	DB	03dH
	DB	03eH
	DB	03fH
	DB	03fH
	DB	040H
	DB	041H
	DB	042H
	DB	043H
	DB	044H
	DB	045H
	DB	01eH
	DB	01eH
	DB	01eH
	DB	01eH
	DB	01eH
	DB	01eH
	DB	01eH
	DB	01eH
	DB	01fH
	DB	01fH
	DB	01fH
	DB	01fH
	DB	020H
	DB	020H
	DB	021H
	DB	021H
	DB	022H
	DB	022H
	DB	022H
	DB	023H
	DB	024H
	DB	024H
	DB	025H
	DB	025H
	DB	026H
	DB	027H
	DB	027H
	DB	028H
	DB	029H
	DB	029H
	DB	02aH
	DB	02bH
	DB	02bH
	DB	02cH
	DB	02dH
	DB	02eH
	DB	02eH
	DB	02fH
	DB	030H
	DB	031H
	DB	032H
	DB	032H
	DB	033H
	DB	034H
	DB	035H
	DB	036H
	DB	036H
	DB	037H
	DB	038H
	DB	039H
	DB	03aH
	DB	03bH
	DB	03cH
	DB	03cH
	DB	03dH
	DB	03eH
	DB	03fH
	DB	040H
	DB	041H
	DB	042H
	DB	043H
	DB	043H
	DB	044H
	DB	045H
	DB	01fH
	DB	01fH
	DB	01fH
	DB	01fH
	DB	01fH
	DB	01fH
	DB	01fH
	DB	01fH
	DB	020H
	DB	020H
	DB	020H
	DB	020H
	DB	021H
	DB	021H
	DB	022H
	DB	022H
	DB	022H
	DB	023H
	DB	023H
	DB	024H
	DB	024H
	DB	025H
	DB	026H
	DB	026H
	DB	027H
	DB	027H
	DB	028H
	DB	029H
	DB	029H
	DB	02aH
	DB	02bH
	DB	02bH
	DB	02cH
	DB	02dH
	DB	02eH
	DB	02eH
	DB	02fH
	DB	030H
	DB	031H
	DB	031H
	DB	032H
	DB	033H
	DB	034H
	DB	035H
	DB	035H
	DB	036H
	DB	037H
	DB	038H
	DB	039H
	DB	039H
	DB	03aH
	DB	03bH
	DB	03cH
	DB	03dH
	DB	03eH
	DB	03fH
	DB	040H
	DB	040H
	DB	041H
	DB	042H
	DB	043H
	DB	044H
	DB	045H
	DB	046H
	DB	020H
	DB	020H
	DB	020H
	DB	020H
	DB	020H
	DB	020H
	DB	020H
	DB	020H
	DB	020H
	DB	021H
	DB	021H
	DB	021H
	DB	022H
	DB	022H
	DB	022H
	DB	023H
	DB	023H
	DB	024H
	DB	024H
	DB	025H
	DB	025H
	DB	026H
	DB	026H
	DB	027H
	DB	028H
	DB	028H
	DB	029H
	DB	029H
	DB	02aH
	DB	02bH
	DB	02bH
	DB	02cH
	DB	02dH
	DB	02dH
	DB	02eH
	DB	02fH
	DB	030H
	DB	030H
	DB	031H
	DB	032H
	DB	033H
	DB	034H
	DB	034H
	DB	035H
	DB	036H
	DB	037H
	DB	038H
	DB	038H
	DB	039H
	DB	03aH
	DB	03bH
	DB	03cH
	DB	03dH
	DB	03dH
	DB	03eH
	DB	03fH
	DB	040H
	DB	041H
	DB	042H
	DB	043H
	DB	044H
	DB	044H
	DB	045H
	DB	046H
	DB	021H
	DB	021H
	DB	021H
	DB	021H
	DB	021H
	DB	021H
	DB	021H
	DB	021H
	DB	021H
	DB	022H
	DB	022H
	DB	022H
	DB	023H
	DB	023H
	DB	023H
	DB	024H
	DB	024H
	DB	025H
	DB	025H
	DB	026H
	DB	026H
	DB	027H
	DB	027H
	DB	028H
	DB	028H
	DB	029H
	DB	02aH
	DB	02aH
	DB	02bH
	DB	02bH
	DB	02cH
	DB	02dH
	DB	02dH
	DB	02eH
	DB	02fH
	DB	030H
	DB	030H
	DB	031H
	DB	032H
	DB	033H
	DB	033H
	DB	034H
	DB	035H
	DB	036H
	DB	037H
	DB	037H
	DB	038H
	DB	039H
	DB	03aH
	DB	03bH
	DB	03bH
	DB	03cH
	DB	03dH
	DB	03eH
	DB	03fH
	DB	040H
	DB	041H
	DB	041H
	DB	042H
	DB	043H
	DB	044H
	DB	045H
	DB	046H
	DB	047H
	DB	022H
	DB	022H
	DB	022H
	DB	022H
	DB	022H
	DB	022H
	DB	022H
	DB	022H
	DB	022H
	DB	023H
	DB	023H
	DB	023H
	DB	024H
	DB	024H
	DB	024H
	DB	025H
	DB	025H
	DB	026H
	DB	026H
	DB	026H
	DB	027H
	DB	027H
	DB	028H
	DB	029H
	DB	029H
	DB	02aH
	DB	02aH
	DB	02bH
	DB	02cH
	DB	02cH
	DB	02dH
	DB	02eH
	DB	02eH
	DB	02fH
	DB	030H
	DB	030H
	DB	031H
	DB	032H
	DB	032H
	DB	033H
	DB	034H
	DB	035H
	DB	036H
	DB	036H
	DB	037H
	DB	038H
	DB	039H
	DB	03aH
	DB	03aH
	DB	03bH
	DB	03cH
	DB	03dH
	DB	03eH
	DB	03eH
	DB	03fH
	DB	040H
	DB	041H
	DB	042H
	DB	043H
	DB	044H
	DB	044H
	DB	045H
	DB	046H
	DB	047H
	DB	023H
	DB	023H
	DB	023H
	DB	023H
	DB	023H
	DB	023H
	DB	023H
	DB	023H
	DB	023H
	DB	024H
	DB	024H
	DB	024H
	DB	025H
	DB	025H
	DB	025H
	DB	026H
	DB	026H
	DB	026H
	DB	027H
	DB	027H
	DB	028H
	DB	028H
	DB	029H
	DB	029H
	DB	02aH
	DB	02bH
	DB	02bH
	DB	02cH
	DB	02cH
	DB	02dH
	DB	02eH
	DB	02eH
	DB	02fH
	DB	030H
	DB	030H
	DB	031H
	DB	032H
	DB	032H
	DB	033H
	DB	034H
	DB	035H
	DB	035H
	DB	036H
	DB	037H
	DB	038H
	DB	039H
	DB	039H
	DB	03aH
	DB	03bH
	DB	03cH
	DB	03dH
	DB	03dH
	DB	03eH
	DB	03fH
	DB	040H
	DB	041H
	DB	042H
	DB	042H
	DB	043H
	DB	044H
	DB	045H
	DB	046H
	DB	047H
	DB	048H
	DB	024H
	DB	024H
	DB	024H
	DB	024H
	DB	024H
	DB	024H
	DB	024H
	DB	024H
	DB	024H
	DB	025H
	DB	025H
	DB	025H
	DB	025H
	DB	026H
	DB	026H
	DB	027H
	DB	027H
	DB	027H
	DB	028H
	DB	028H
	DB	029H
	DB	029H
	DB	02aH
	DB	02aH
	DB	02bH
	DB	02bH
	DB	02cH
	DB	02dH
	DB	02dH
	DB	02eH
	DB	02eH
	DB	02fH
	DB	030H
	DB	030H
	DB	031H
	DB	032H
	DB	032H
	DB	033H
	DB	034H
	DB	035H
	DB	035H
	DB	036H
	DB	037H
	DB	038H
	DB	038H
	DB	039H
	DB	03aH
	DB	03bH
	DB	03cH
	DB	03cH
	DB	03dH
	DB	03eH
	DB	03fH
	DB	040H
	DB	040H
	DB	041H
	DB	042H
	DB	043H
	DB	044H
	DB	045H
	DB	045H
	DB	046H
	DB	047H
	DB	048H
	DB	025H
	DB	025H
	DB	025H
	DB	025H
	DB	025H
	DB	025H
	DB	025H
	DB	025H
	DB	025H
	DB	026H
	DB	026H
	DB	026H
	DB	026H
	DB	027H
	DB	027H
	DB	027H
	DB	028H
	DB	028H
	DB	029H
	DB	029H
	DB	02aH
	DB	02aH
	DB	02bH
	DB	02bH
	DB	02cH
	DB	02cH
	DB	02dH
	DB	02dH
	DB	02eH
	DB	02fH
	DB	02fH
	DB	030H
	DB	030H
	DB	031H
	DB	032H
	DB	032H
	DB	033H
	DB	034H
	DB	035H
	DB	035H
	DB	036H
	DB	037H
	DB	037H
	DB	038H
	DB	039H
	DB	03aH
	DB	03bH
	DB	03bH
	DB	03cH
	DB	03dH
	DB	03eH
	DB	03fH
	DB	03fH
	DB	040H
	DB	041H
	DB	042H
	DB	043H
	DB	043H
	DB	044H
	DB	045H
	DB	046H
	DB	047H
	DB	048H
	DB	049H
	DB	026H
	DB	026H
	DB	026H
	DB	026H
	DB	026H
	DB	026H
	DB	026H
	DB	026H
	DB	026H
	DB	027H
	DB	027H
	DB	027H
	DB	027H
	DB	028H
	DB	028H
	DB	028H
	DB	029H
	DB	029H
	DB	02aH
	DB	02aH
	DB	02aH
	DB	02bH
	DB	02bH
	DB	02cH
	DB	02cH
	DB	02dH
	DB	02eH
	DB	02eH
	DB	02fH
	DB	02fH
	DB	030H
	DB	031H
	DB	031H
	DB	032H
	DB	032H
	DB	033H
	DB	034H
	DB	035H
	DB	035H
	DB	036H
	DB	037H
	DB	037H
	DB	038H
	DB	039H
	DB	03aH
	DB	03aH
	DB	03bH
	DB	03cH
	DB	03dH
	DB	03eH
	DB	03eH
	DB	03fH
	DB	040H
	DB	041H
	DB	042H
	DB	042H
	DB	043H
	DB	044H
	DB	045H
	DB	046H
	DB	047H
	DB	047H
	DB	048H
	DB	049H
	DB	027H
	DB	027H
	DB	027H
	DB	027H
	DB	027H
	DB	027H
	DB	027H
	DB	027H
	DB	027H
	DB	028H
	DB	028H
	DB	028H
	DB	028H
	DB	029H
	DB	029H
	DB	029H
	DB	02aH
	DB	02aH
	DB	02aH
	DB	02bH
	DB	02bH
	DB	02cH
	DB	02cH
	DB	02dH
	DB	02dH
	DB	02eH
	DB	02eH
	DB	02fH
	DB	030H
	DB	030H
	DB	031H
	DB	031H
	DB	032H
	DB	033H
	DB	033H
	DB	034H
	DB	035H
	DB	035H
	DB	036H
	DB	037H
	DB	037H
	DB	038H
	DB	039H
	DB	03aH
	DB	03aH
	DB	03bH
	DB	03cH
	DB	03dH
	DB	03dH
	DB	03eH
	DB	03fH
	DB	040H
	DB	041H
	DB	041H
	DB	042H
	DB	043H
	DB	044H
	DB	045H
	DB	045H
	DB	046H
	DB	047H
	DB	048H
	DB	049H
	DB	04aH
	DB	028H
	DB	028H
	DB	028H
	DB	028H
	DB	028H
	DB	028H
	DB	028H
	DB	028H
	DB	028H
	DB	029H
	DB	029H
	DB	029H
	DB	029H
	DB	02aH
	DB	02aH
	DB	02aH
	DB	02bH
	DB	02bH
	DB	02bH
	DB	02cH
	DB	02cH
	DB	02dH
	DB	02dH
	DB	02eH
	DB	02eH
	DB	02fH
	DB	02fH
	DB	030H
	DB	030H
	DB	031H
	DB	032H
	DB	032H
	DB	033H
	DB	033H
	DB	034H
	DB	035H
	DB	035H
	DB	036H
	DB	037H
	DB	037H
	DB	038H
	DB	039H
	DB	03aH
	DB	03aH
	DB	03bH
	DB	03cH
	DB	03cH
	DB	03dH
	DB	03eH
	DB	03fH
	DB	040H
	DB	040H
	DB	041H
	DB	042H
	DB	043H
	DB	044H
	DB	044H
	DB	045H
	DB	046H
	DB	047H
	DB	048H
	DB	048H
	DB	049H
	DB	04aH
	DB	029H
	DB	029H
	DB	029H
	DB	029H
	DB	029H
	DB	029H
	DB	029H
	DB	029H
	DB	029H
	DB	029H
	DB	02aH
	DB	02aH
	DB	02aH
	DB	02bH
	DB	02bH
	DB	02bH
	DB	02cH
	DB	02cH
	DB	02cH
	DB	02dH
	DB	02dH
	DB	02eH
	DB	02eH
	DB	02fH
	DB	02fH
	DB	030H
	DB	030H
	DB	031H
	DB	031H
	DB	032H
	DB	032H
	DB	033H
	DB	034H
	DB	034H
	DB	035H
	DB	035H
	DB	036H
	DB	037H
	DB	037H
	DB	038H
	DB	039H
	DB	039H
	DB	03aH
	DB	03bH
	DB	03cH
	DB	03cH
	DB	03dH
	DB	03eH
	DB	03fH
	DB	03fH
	DB	040H
	DB	041H
	DB	042H
	DB	043H
	DB	043H
	DB	044H
	DB	045H
	DB	046H
	DB	047H
	DB	047H
	DB	048H
	DB	049H
	DB	04aH
	DB	04bH
	DB	02aH
	DB	02aH
	DB	02aH
	DB	02aH
	DB	02aH
	DB	02aH
	DB	02aH
	DB	02aH
	DB	02aH
	DB	02aH
	DB	02bH
	DB	02bH
	DB	02bH
	DB	02bH
	DB	02cH
	DB	02cH
	DB	02cH
	DB	02dH
	DB	02dH
	DB	02eH
	DB	02eH
	DB	02eH
	DB	02fH
	DB	02fH
	DB	030H
	DB	030H
	DB	031H
	DB	031H
	DB	032H
	DB	033H
	DB	033H
	DB	034H
	DB	034H
	DB	035H
	DB	036H
	DB	036H
	DB	037H
	DB	037H
	DB	038H
	DB	039H
	DB	03aH
	DB	03aH
	DB	03bH
	DB	03cH
	DB	03cH
	DB	03dH
	DB	03eH
	DB	03fH
	DB	03fH
	DB	040H
	DB	041H
	DB	042H
	DB	042H
	DB	043H
	DB	044H
	DB	045H
	DB	046H
	DB	046H
	DB	047H
	DB	048H
	DB	049H
	DB	04aH
	DB	04aH
	DB	04bH
	DB	02bH
	DB	02bH
	DB	02bH
	DB	02bH
	DB	02bH
	DB	02bH
	DB	02bH
	DB	02bH
	DB	02bH
	DB	02bH
	DB	02cH
	DB	02cH
	DB	02cH
	DB	02cH
	DB	02dH
	DB	02dH
	DB	02dH
	DB	02eH
	DB	02eH
	DB	02fH
	DB	02fH
	DB	02fH
	DB	030H
	DB	030H
	DB	031H
	DB	031H
	DB	032H
	DB	032H
	DB	033H
	DB	033H
	DB	034H
	DB	035H
	DB	035H
	DB	036H
	DB	036H
	DB	037H
	DB	038H
	DB	038H
	DB	039H
	DB	03aH
	DB	03aH
	DB	03bH
	DB	03cH
	DB	03cH
	DB	03dH
	DB	03eH
	DB	03eH
	DB	03fH
	DB	040H
	DB	041H
	DB	041H
	DB	042H
	DB	043H
	DB	044H
	DB	045H
	DB	045H
	DB	046H
	DB	047H
	DB	048H
	DB	049H
	DB	049H
	DB	04aH
	DB	04bH
	DB	04cH
	DB	02cH
	DB	02cH
	DB	02cH
	DB	02cH
	DB	02cH
	DB	02cH
	DB	02cH
	DB	02cH
	DB	02cH
	DB	02cH
	DB	02dH
	DB	02dH
	DB	02dH
	DB	02dH
	DB	02eH
	DB	02eH
	DB	02eH
	DB	02fH
	DB	02fH
	DB	02fH
	DB	030H
	DB	030H
	DB	031H
	DB	031H
	DB	032H
	DB	032H
	DB	033H
	DB	033H
	DB	034H
	DB	034H
	DB	035H
	DB	035H
	DB	036H
	DB	037H
	DB	037H
	DB	038H
	DB	038H
	DB	039H
	DB	03aH
	DB	03aH
	DB	03bH
	DB	03cH
	DB	03cH
	DB	03dH
	DB	03eH
	DB	03eH
	DB	03fH
	DB	040H
	DB	041H
	DB	041H
	DB	042H
	DB	043H
	DB	044H
	DB	044H
	DB	045H
	DB	046H
	DB	047H
	DB	048H
	DB	048H
	DB	049H
	DB	04aH
	DB	04bH
	DB	04cH
	DB	04cH
	DB	02dH
	DB	02dH
	DB	02dH
	DB	02dH
	DB	02dH
	DB	02dH
	DB	02dH
	DB	02dH
	DB	02dH
	DB	02dH
	DB	02eH
	DB	02eH
	DB	02eH
	DB	02eH
	DB	02fH
	DB	02fH
	DB	02fH
	DB	030H
	DB	030H
	DB	030H
	DB	031H
	DB	031H
	DB	032H
	DB	032H
	DB	033H
	DB	033H
	DB	033H
	DB	034H
	DB	035H
	DB	035H
	DB	036H
	DB	036H
	DB	037H
	DB	037H
	DB	038H
	DB	039H
	DB	039H
	DB	03aH
	DB	03aH
	DB	03bH
	DB	03cH
	DB	03cH
	DB	03dH
	DB	03eH
	DB	03eH
	DB	03fH
	DB	040H
	DB	041H
	DB	041H
	DB	042H
	DB	043H
	DB	044H
	DB	044H
	DB	045H
	DB	046H
	DB	047H
	DB	047H
	DB	048H
	DB	049H
	DB	04aH
	DB	04bH
	DB	04bH
	DB	04cH
	DB	04dH
	DB	02eH
	DB	02eH
	DB	02eH
	DB	02eH
	DB	02eH
	DB	02eH
	DB	02eH
	DB	02eH
	DB	02eH
	DB	02eH
	DB	02fH
	DB	02fH
	DB	02fH
	DB	02fH
	DB	030H
	DB	030H
	DB	030H
	DB	031H
	DB	031H
	DB	031H
	DB	032H
	DB	032H
	DB	032H
	DB	033H
	DB	033H
	DB	034H
	DB	034H
	DB	035H
	DB	035H
	DB	036H
	DB	036H
	DB	037H
	DB	038H
	DB	038H
	DB	039H
	DB	039H
	DB	03aH
	DB	03bH
	DB	03bH
	DB	03cH
	DB	03cH
	DB	03dH
	DB	03eH
	DB	03eH
	DB	03fH
	DB	040H
	DB	041H
	DB	041H
	DB	042H
	DB	043H
	DB	043H
	DB	044H
	DB	045H
	DB	046H
	DB	046H
	DB	047H
	DB	048H
	DB	049H
	DB	04aH
	DB	04aH
	DB	04bH
	DB	04cH
	DB	04dH
	DB	04eH
	DB	02fH
	DB	02fH
	DB	02fH
	DB	02fH
	DB	02fH
	DB	02fH
	DB	02fH
	DB	02fH
	DB	02fH
	DB	02fH
	DB	030H
	DB	030H
	DB	030H
	DB	030H
	DB	031H
	DB	031H
	DB	031H
	DB	031H
	DB	032H
	DB	032H
	DB	033H
	DB	033H
	DB	033H
	DB	034H
	DB	034H
	DB	035H
	DB	035H
	DB	036H
	DB	036H
	DB	037H
	DB	037H
	DB	038H
	DB	038H
	DB	039H
	DB	03aH
	DB	03aH
	DB	03bH
	DB	03bH
	DB	03cH
	DB	03dH
	DB	03dH
	DB	03eH
	DB	03fH
	DB	03fH
	DB	040H
	DB	041H
	DB	041H
	DB	042H
	DB	043H
	DB	043H
	DB	044H
	DB	045H
	DB	046H
	DB	046H
	DB	047H
	DB	048H
	DB	049H
	DB	049H
	DB	04aH
	DB	04bH
	DB	04cH
	DB	04dH
	DB	04dH
	DB	04eH
	DB	030H
	DB	030H
	DB	030H
	DB	030H
	DB	030H
	DB	030H
	DB	030H
	DB	030H
	DB	030H
	DB	030H
	DB	031H
	DB	031H
	DB	031H
	DB	031H
	DB	032H
	DB	032H
	DB	032H
	DB	032H
	DB	033H
	DB	033H
	DB	034H
	DB	034H
	DB	034H
	DB	035H
	DB	035H
	DB	036H
	DB	036H
	DB	037H
	DB	037H
	DB	038H
	DB	038H
	DB	039H
	DB	039H
	DB	03aH
	DB	03aH
	DB	03bH
	DB	03cH
	DB	03cH
	DB	03dH
	DB	03dH
	DB	03eH
	DB	03fH
	DB	03fH
	DB	040H
	DB	041H
	DB	041H
	DB	042H
	DB	043H
	DB	043H
	DB	044H
	DB	045H
	DB	046H
	DB	046H
	DB	047H
	DB	048H
	DB	049H
	DB	049H
	DB	04aH
	DB	04bH
	DB	04cH
	DB	04cH
	DB	04dH
	DB	04eH
	DB	04fH
	DB	031H
	DB	031H
	DB	031H
	DB	031H
	DB	031H
	DB	031H
	DB	031H
	DB	031H
	DB	031H
	DB	031H
	DB	032H
	DB	032H
	DB	032H
	DB	032H
	DB	032H
	DB	033H
	DB	033H
	DB	033H
	DB	034H
	DB	034H
	DB	034H
	DB	035H
	DB	035H
	DB	036H
	DB	036H
	DB	037H
	DB	037H
	DB	037H
	DB	038H
	DB	038H
	DB	039H
	DB	039H
	DB	03aH
	DB	03bH
	DB	03bH
	DB	03cH
	DB	03cH
	DB	03dH
	DB	03eH
	DB	03eH
	DB	03fH
	DB	03fH
	DB	040H
	DB	041H
	DB	041H
	DB	042H
	DB	043H
	DB	043H
	DB	044H
	DB	045H
	DB	046H
	DB	046H
	DB	047H
	DB	048H
	DB	048H
	DB	049H
	DB	04aH
	DB	04bH
	DB	04bH
	DB	04cH
	DB	04dH
	DB	04eH
	DB	04fH
	DB	04fH
	DB	032H
	DB	032H
	DB	032H
	DB	032H
	DB	032H
	DB	032H
	DB	032H
	DB	032H
	DB	032H
	DB	032H
	DB	032H
	DB	033H
	DB	033H
	DB	033H
	DB	033H
	DB	034H
	DB	034H
	DB	034H
	DB	035H
	DB	035H
	DB	035H
	DB	036H
	DB	036H
	DB	037H
	DB	037H
	DB	037H
	DB	038H
	DB	038H
	DB	039H
	DB	039H
	DB	03aH
	DB	03aH
	DB	03bH
	DB	03bH
	DB	03cH
	DB	03dH
	DB	03dH
	DB	03eH
	DB	03eH
	DB	03fH
	DB	040H
	DB	040H
	DB	041H
	DB	041H
	DB	042H
	DB	043H
	DB	043H
	DB	044H
	DB	045H
	DB	046H
	DB	046H
	DB	047H
	DB	048H
	DB	048H
	DB	049H
	DB	04aH
	DB	04bH
	DB	04bH
	DB	04cH
	DB	04dH
	DB	04eH
	DB	04eH
	DB	04fH
	DB	050H
	DB	033H
	DB	033H
	DB	033H
	DB	033H
	DB	033H
	DB	033H
	DB	033H
	DB	033H
	DB	033H
	DB	033H
	DB	033H
	DB	034H
	DB	034H
	DB	034H
	DB	034H
	DB	035H
	DB	035H
	DB	035H
	DB	036H
	DB	036H
	DB	036H
	DB	037H
	DB	037H
	DB	037H
	DB	038H
	DB	038H
	DB	039H
	DB	039H
	DB	03aH
	DB	03aH
	DB	03bH
	DB	03bH
	DB	03cH
	DB	03cH
	DB	03dH
	DB	03dH
	DB	03eH
	DB	03fH
	DB	03fH
	DB	040H
	DB	040H
	DB	041H
	DB	042H
	DB	042H
	DB	043H
	DB	044H
	DB	044H
	DB	045H
	DB	046H
	DB	046H
	DB	047H
	DB	048H
	DB	048H
	DB	049H
	DB	04aH
	DB	04bH
	DB	04bH
	DB	04cH
	DB	04dH
	DB	04dH
	DB	04eH
	DB	04fH
	DB	050H
	DB	051H
	DB	034H
	DB	034H
	DB	034H
	DB	034H
	DB	034H
	DB	034H
	DB	034H
	DB	034H
	DB	034H
	DB	034H
	DB	034H
	DB	035H
	DB	035H
	DB	035H
	DB	035H
	DB	036H
	DB	036H
	DB	036H
	DB	037H
	DB	037H
	DB	037H
	DB	038H
	DB	038H
	DB	038H
	DB	039H
	DB	039H
	DB	03aH
	DB	03aH
	DB	03bH
	DB	03bH
	DB	03cH
	DB	03cH
	DB	03dH
	DB	03dH
	DB	03eH
	DB	03eH
	DB	03fH
	DB	03fH
	DB	040H
	DB	041H
	DB	041H
	DB	042H
	DB	042H
	DB	043H
	DB	044H
	DB	044H
	DB	045H
	DB	046H
	DB	046H
	DB	047H
	DB	048H
	DB	048H
	DB	049H
	DB	04aH
	DB	04aH
	DB	04bH
	DB	04cH
	DB	04dH
	DB	04dH
	DB	04eH
	DB	04fH
	DB	050H
	DB	050H
	DB	051H
	DB	035H
	DB	035H
	DB	035H
	DB	035H
	DB	035H
	DB	035H
	DB	035H
	DB	035H
	DB	035H
	DB	035H
	DB	035H
	DB	036H
	DB	036H
	DB	036H
	DB	036H
	DB	037H
	DB	037H
	DB	037H
	DB	037H
	DB	038H
	DB	038H
	DB	039H
	DB	039H
	DB	039H
	DB	03aH
	DB	03aH
	DB	03bH
	DB	03bH
	DB	03bH
	DB	03cH
	DB	03cH
	DB	03dH
	DB	03dH
	DB	03eH
	DB	03eH
	DB	03fH
	DB	040H
	DB	040H
	DB	041H
	DB	041H
	DB	042H
	DB	043H
	DB	043H
	DB	044H
	DB	044H
	DB	045H
	DB	046H
	DB	046H
	DB	047H
	DB	048H
	DB	048H
	DB	049H
	DB	04aH
	DB	04aH
	DB	04bH
	DB	04cH
	DB	04dH
	DB	04dH
	DB	04eH
	DB	04fH
	DB	050H
	DB	050H
	DB	051H
	DB	052H
	DB	036H
	DB	036H
	DB	036H
	DB	036H
	DB	036H
	DB	036H
	DB	036H
	DB	036H
	DB	036H
	DB	036H
	DB	036H
	DB	037H
	DB	037H
	DB	037H
	DB	037H
	DB	038H
	DB	038H
	DB	038H
	DB	038H
	DB	039H
	DB	039H
	DB	039H
	DB	03aH
	DB	03aH
	DB	03bH
	DB	03bH
	DB	03bH
	DB	03cH
	DB	03cH
	DB	03dH
	DB	03dH
	DB	03eH
	DB	03eH
	DB	03fH
	DB	03fH
	DB	040H
	DB	040H
	DB	041H
	DB	042H
	DB	042H
	DB	043H
	DB	043H
	DB	044H
	DB	045H
	DB	045H
	DB	046H
	DB	046H
	DB	047H
	DB	048H
	DB	048H
	DB	049H
	DB	04aH
	DB	04aH
	DB	04bH
	DB	04cH
	DB	04dH
	DB	04dH
	DB	04eH
	DB	04fH
	DB	04fH
	DB	050H
	DB	051H
	DB	052H
	DB	052H
	DB	037H
	DB	037H
	DB	037H
	DB	037H
	DB	037H
	DB	037H
	DB	037H
	DB	037H
	DB	037H
	DB	037H
	DB	037H
	DB	038H
	DB	038H
	DB	038H
	DB	038H
	DB	039H
	DB	039H
	DB	039H
	DB	039H
	DB	03aH
	DB	03aH
	DB	03aH
	DB	03bH
	DB	03bH
	DB	03cH
	DB	03cH
	DB	03cH
	DB	03dH
	DB	03dH
	DB	03eH
	DB	03eH
	DB	03fH
	DB	03fH
	DB	040H
	DB	040H
	DB	041H
	DB	041H
	DB	042H
	DB	042H
	DB	043H
	DB	044H
	DB	044H
	DB	045H
	DB	045H
	DB	046H
	DB	047H
	DB	047H
	DB	048H
	DB	049H
	DB	049H
	DB	04aH
	DB	04bH
	DB	04bH
	DB	04cH
	DB	04dH
	DB	04dH
	DB	04eH
	DB	04fH
	DB	04fH
	DB	050H
	DB	051H
	DB	052H
	DB	052H
	DB	053H
	DB	038H
	DB	038H
	DB	038H
	DB	038H
	DB	038H
	DB	038H
	DB	038H
	DB	038H
	DB	038H
	DB	038H
	DB	038H
	DB	039H
	DB	039H
	DB	039H
	DB	039H
	DB	039H
	DB	03aH
	DB	03aH
	DB	03aH
	DB	03bH
	DB	03bH
	DB	03bH
	DB	03cH
	DB	03cH
	DB	03cH
	DB	03dH
	DB	03dH
	DB	03eH
	DB	03eH
	DB	03fH
	DB	03fH
	DB	040H
	DB	040H
	DB	041H
	DB	041H
	DB	042H
	DB	042H
	DB	043H
	DB	043H
	DB	044H
	DB	044H
	DB	045H
	DB	046H
	DB	046H
	DB	047H
	DB	047H
	DB	048H
	DB	049H
	DB	049H
	DB	04aH
	DB	04bH
	DB	04bH
	DB	04cH
	DB	04dH
	DB	04dH
	DB	04eH
	DB	04fH
	DB	04fH
	DB	050H
	DB	051H
	DB	052H
	DB	052H
	DB	053H
	DB	054H
	DB	039H
	DB	039H
	DB	039H
	DB	039H
	DB	039H
	DB	039H
	DB	039H
	DB	039H
	DB	039H
	DB	039H
	DB	039H
	DB	03aH
	DB	03aH
	DB	03aH
	DB	03aH
	DB	03aH
	DB	03bH
	DB	03bH
	DB	03bH
	DB	03cH
	DB	03cH
	DB	03cH
	DB	03dH
	DB	03dH
	DB	03dH
	DB	03eH
	DB	03eH
	DB	03fH
	DB	03fH
	DB	03fH
	DB	040H
	DB	040H
	DB	041H
	DB	041H
	DB	042H
	DB	042H
	DB	043H
	DB	043H
	DB	044H
	DB	045H
	DB	045H
	DB	046H
	DB	046H
	DB	047H
	DB	048H
	DB	048H
	DB	049H
	DB	049H
	DB	04aH
	DB	04bH
	DB	04bH
	DB	04cH
	DB	04dH
	DB	04dH
	DB	04eH
	DB	04fH
	DB	04fH
	DB	050H
	DB	051H
	DB	052H
	DB	052H
	DB	053H
	DB	054H
	DB	054H
	DB	03aH
	DB	03aH
	DB	03aH
	DB	03aH
	DB	03aH
	DB	03aH
	DB	03aH
	DB	03aH
	DB	03aH
	DB	03aH
	DB	03aH
	DB	03bH
	DB	03bH
	DB	03bH
	DB	03bH
	DB	03bH
	DB	03cH
	DB	03cH
	DB	03cH
	DB	03dH
	DB	03dH
	DB	03dH
	DB	03eH
	DB	03eH
	DB	03eH
	DB	03fH
	DB	03fH
	DB	03fH
	DB	040H
	DB	040H
	DB	041H
	DB	041H
	DB	042H
	DB	042H
	DB	043H
	DB	043H
	DB	044H
	DB	044H
	DB	045H
	DB	045H
	DB	046H
	DB	047H
	DB	047H
	DB	048H
	DB	048H
	DB	049H
	DB	04aH
	DB	04aH
	DB	04bH
	DB	04bH
	DB	04cH
	DB	04dH
	DB	04dH
	DB	04eH
	DB	04fH
	DB	04fH
	DB	050H
	DB	051H
	DB	052H
	DB	052H
	DB	053H
	DB	054H
	DB	054H
	DB	055H
	DB	03bH
	DB	03bH
	DB	03bH
	DB	03bH
	DB	03bH
	DB	03bH
	DB	03bH
	DB	03bH
	DB	03bH
	DB	03bH
	DB	03bH
	DB	03cH
	DB	03cH
	DB	03cH
	DB	03cH
	DB	03cH
	DB	03dH
	DB	03dH
	DB	03dH
	DB	03dH
	DB	03eH
	DB	03eH
	DB	03eH
	DB	03fH
	DB	03fH
	DB	040H
	DB	040H
	DB	040H
	DB	041H
	DB	041H
	DB	042H
	DB	042H
	DB	043H
	DB	043H
	DB	044H
	DB	044H
	DB	045H
	DB	045H
	DB	046H
	DB	046H
	DB	047H
	DB	047H
	DB	048H
	DB	049H
	DB	049H
	DB	04aH
	DB	04aH
	DB	04bH
	DB	04cH
	DB	04cH
	DB	04dH
	DB	04dH
	DB	04eH
	DB	04fH
	DB	04fH
	DB	050H
	DB	051H
	DB	052H
	DB	052H
	DB	053H
	DB	054H
	DB	054H
	DB	055H
	DB	056H
	DB	03cH
	DB	03cH
	DB	03cH
	DB	03cH
	DB	03cH
	DB	03cH
	DB	03cH
	DB	03cH
	DB	03cH
	DB	03cH
	DB	03cH
	DB	03dH
	DB	03dH
	DB	03dH
	DB	03dH
	DB	03dH
	DB	03eH
	DB	03eH
	DB	03eH
	DB	03eH
	DB	03fH
	DB	03fH
	DB	03fH
	DB	040H
	DB	040H
	DB	041H
	DB	041H
	DB	041H
	DB	042H
	DB	042H
	DB	043H
	DB	043H
	DB	044H
	DB	044H
	DB	044H
	DB	045H
	DB	045H
	DB	046H
	DB	047H
	DB	047H
	DB	048H
	DB	048H
	DB	049H
	DB	049H
	DB	04aH
	DB	04bH
	DB	04bH
	DB	04cH
	DB	04cH
	DB	04dH
	DB	04eH
	DB	04eH
	DB	04fH
	DB	050H
	DB	050H
	DB	051H
	DB	052H
	DB	052H
	DB	053H
	DB	054H
	DB	054H
	DB	055H
	DB	056H
	DB	057H
	DB	03dH
	DB	03dH
	DB	03dH
	DB	03dH
	DB	03dH
	DB	03dH
	DB	03dH
	DB	03dH
	DB	03dH
	DB	03dH
	DB	03dH
	DB	03dH
	DB	03eH
	DB	03eH
	DB	03eH
	DB	03eH
	DB	03fH
	DB	03fH
	DB	03fH
	DB	03fH
	DB	040H
	DB	040H
	DB	040H
	DB	041H
	DB	041H
	DB	041H
	DB	042H
	DB	042H
	DB	043H
	DB	043H
	DB	043H
	DB	044H
	DB	044H
	DB	045H
	DB	045H
	DB	046H
	DB	046H
	DB	047H
	DB	047H
	DB	048H
	DB	048H
	DB	049H
	DB	04aH
	DB	04aH
	DB	04bH
	DB	04bH
	DB	04cH
	DB	04dH
	DB	04dH
	DB	04eH
	DB	04eH
	DB	04fH
	DB	050H
	DB	050H
	DB	051H
	DB	052H
	DB	052H
	DB	053H
	DB	054H
	DB	054H
	DB	055H
	DB	056H
	DB	056H
	DB	057H
	DB	03eH
	DB	03eH
	DB	03eH
	DB	03eH
	DB	03eH
	DB	03eH
	DB	03eH
	DB	03eH
	DB	03eH
	DB	03eH
	DB	03eH
	DB	03eH
	DB	03fH
	DB	03fH
	DB	03fH
	DB	03fH
	DB	040H
	DB	040H
	DB	040H
	DB	040H
	DB	041H
	DB	041H
	DB	041H
	DB	042H
	DB	042H
	DB	042H
	DB	043H
	DB	043H
	DB	044H
	DB	044H
	DB	044H
	DB	045H
	DB	045H
	DB	046H
	DB	046H
	DB	047H
	DB	047H
	DB	048H
	DB	048H
	DB	049H
	DB	049H
	DB	04aH
	DB	04aH
	DB	04bH
	DB	04cH
	DB	04cH
	DB	04dH
	DB	04dH
	DB	04eH
	DB	04fH
	DB	04fH
	DB	050H
	DB	050H
	DB	051H
	DB	052H
	DB	052H
	DB	053H
	DB	054H
	DB	054H
	DB	055H
	DB	056H
	DB	056H
	DB	057H
	DB	058H
	DB	03fH
	DB	03fH
	DB	03fH
	DB	03fH
	DB	03fH
	DB	03fH
	DB	03fH
	DB	03fH
	DB	03fH
	DB	03fH
	DB	03fH
	DB	03fH
	DB	040H
	DB	040H
	DB	040H
	DB	040H
	DB	041H
	DB	041H
	DB	041H
	DB	041H
	DB	042H
	DB	042H
	DB	042H
	DB	043H
	DB	043H
	DB	043H
	DB	044H
	DB	044H
	DB	044H
	DB	045H
	DB	045H
	DB	046H
	DB	046H
	DB	047H
	DB	047H
	DB	048H
	DB	048H
	DB	049H
	DB	049H
	DB	04aH
	DB	04aH
	DB	04bH
	DB	04bH
	DB	04cH
	DB	04cH
	DB	04dH
	DB	04eH
	DB	04eH
	DB	04fH
	DB	04fH
	DB	050H
	DB	051H
	DB	051H
	DB	052H
	DB	052H
	DB	053H
	DB	054H
	DB	054H
	DB	055H
	DB	056H
	DB	057H
	DB	057H
	DB	058H
	DB	059H
_DATA	ENDS
PUBLIC	?radar@@YAXPAUaction@@PAH1@Z			; radar
PUBLIC	?radar2@@YAHPAUaction@@HHH@Z			; radar2
EXTRN	__RTC_InitBase:PROC
EXTRN	__RTC_Shutdown:PROC
;	COMDAT rtc$TMZ
rtc$TMZ	SEGMENT
__RTC_Shutdown.rtc$TMZ DD FLAT:__RTC_Shutdown
rtc$TMZ	ENDS
;	COMDAT rtc$IMZ
rtc$IMZ	SEGMENT
__RTC_InitBase.rtc$IMZ DD FLAT:__RTC_InitBase
rtc$IMZ	ENDS
; Function compile flags: /Odtp /RTCsu /ZI
; File c:\users\administrator\desktop\????? ??\????? ??\client source code\system\radar.cpp
;	COMDAT ?radar2@@YAHPAUaction@@HHH@Z
_TEXT	SEGMENT
_dist$ = -44						; size = 4
_d4$ = -32						; size = 4
_d3$ = -20						; size = 4
_d0$ = -8						; size = 4
_pAct$ = 8						; size = 4
_x$ = 12						; size = 4
_y$ = 16						; size = 4
_cnt$ = 20						; size = 4
?radar2@@YAHPAUaction@@HHH@Z PROC			; radar2, COMDAT

; 258  : {

  00000	55		 push	 ebp
  00001	8b ec		 mov	 ebp, esp
  00003	81 ec f0 00 00
	00		 sub	 esp, 240		; 000000f0H
  00009	53		 push	 ebx
  0000a	56		 push	 esi
  0000b	57		 push	 edi
  0000c	8d bd 10 ff ff
	ff		 lea	 edi, DWORD PTR [ebp-240]
  00012	b9 3c 00 00 00	 mov	 ecx, 60			; 0000003cH
  00017	b8 cc cc cc cc	 mov	 eax, -858993460		; ccccccccH
  0001c	f3 ab		 rep stosd

; 259  : 	int d0,d3=0,d4;

  0001e	c7 45 ec 00 00
	00 00		 mov	 DWORD PTR _d3$[ebp], 0

; 260  : 	int dist;	// ?????
; 261  : 	
; 262  : 	x-=ATR_H_POS(pAct);		/*???t*/

  00025	8b 45 08	 mov	 eax, DWORD PTR _pAct$[ebp]
  00028	8b 4d 0c	 mov	 ecx, DWORD PTR _x$[ebp]
  0002b	2b 48 18	 sub	 ecx, DWORD PTR [eax+24]
  0002e	89 4d 0c	 mov	 DWORD PTR _x$[ebp], ecx

; 263  : 	if(x<0){

  00031	79 11		 jns	 SHORT $LN2@radar2

; 264  : 		x = 0 - x;		/*Enk???*/

  00033	33 c0		 xor	 eax, eax
  00035	2b 45 0c	 sub	 eax, DWORD PTR _x$[ebp]
  00038	89 45 0c	 mov	 DWORD PTR _x$[ebp], eax

; 265  : 		d3++;		/*?T???*/

  0003b	8b 45 ec	 mov	 eax, DWORD PTR _d3$[ebp]
  0003e	83 c0 01	 add	 eax, 1
  00041	89 45 ec	 mov	 DWORD PTR _d3$[ebp], eax
$LN2@radar2:

; 266  : 	}
; 267  : 	d4=(x)>>6;

  00044	8b 45 0c	 mov	 eax, DWORD PTR _x$[ebp]
  00047	c1 f8 06	 sar	 eax, 6
  0004a	89 45 e0	 mov	 DWORD PTR _d4$[ebp], eax

; 268  : 
; 269  : 	y-=ATR_V_POS(pAct);		/*???k*/

  0004d	8b 45 08	 mov	 eax, DWORD PTR _pAct$[ebp]
  00050	8b 4d 10	 mov	 ecx, DWORD PTR _y$[ebp]
  00053	2b 48 1c	 sub	 ecx, DWORD PTR [eax+28]
  00056	89 4d 10	 mov	 DWORD PTR _y$[ebp], ecx

; 270  : 	if(y<0){

  00059	79 11		 jns	 SHORT $LN3@radar2

; 271  : 		y = 0 - y;

  0005b	33 c0		 xor	 eax, eax
  0005d	2b 45 10	 sub	 eax, DWORD PTR _y$[ebp]
  00060	89 45 10	 mov	 DWORD PTR _y$[ebp], eax

; 272  : 		d3+=2;

  00063	8b 45 ec	 mov	 eax, DWORD PTR _d3$[ebp]
  00066	83 c0 02	 add	 eax, 2
  00069	89 45 ec	 mov	 DWORD PTR _d3$[ebp], eax
$LN3@radar2:

; 273  : 	}
; 274  : 	d0=(y)>>6;			/*?????????????*/

  0006c	8b 45 10	 mov	 eax, DWORD PTR _y$[ebp]
  0006f	c1 f8 06	 sar	 eax, 6
  00072	89 45 f8	 mov	 DWORD PTR _d0$[ebp], eax

; 275  : 
; 276  : 	if(d4<d0) d4=d0;		/*?????*/

  00075	8b 45 e0	 mov	 eax, DWORD PTR _d4$[ebp]
  00078	3b 45 f8	 cmp	 eax, DWORD PTR _d0$[ebp]
  0007b	7d 06		 jge	 SHORT $LN4@radar2
  0007d	8b 45 f8	 mov	 eax, DWORD PTR _d0$[ebp]
  00080	89 45 e0	 mov	 DWORD PTR _d4$[ebp], eax
$LN4@radar2:

; 277  : 
; 278  : 	x=(x)>>d4;		/*?????*/

  00083	8b 45 0c	 mov	 eax, DWORD PTR _x$[ebp]
  00086	8b 4d e0	 mov	 ecx, DWORD PTR _d4$[ebp]
  00089	d3 f8		 sar	 eax, cl
  0008b	89 45 0c	 mov	 DWORD PTR _x$[ebp], eax

; 279  : 	y=(y)>>d4;

  0008e	8b 45 10	 mov	 eax, DWORD PTR _y$[ebp]
  00091	8b 4d e0	 mov	 ecx, DWORD PTR _d4$[ebp]
  00094	d3 f8		 sar	 eax, cl
  00096	89 45 10	 mov	 DWORD PTR _y$[ebp], eax

; 280  : 
; 281  : 	y=(y)<<6;

  00099	8b 45 10	 mov	 eax, DWORD PTR _y$[ebp]
  0009c	c1 e0 06	 shl	 eax, 6
  0009f	89 45 10	 mov	 DWORD PTR _y$[ebp], eax

; 282  : 	y+=x;		/*??????k???*/

  000a2	8b 45 10	 mov	 eax, DWORD PTR _y$[ebp]
  000a5	03 45 0c	 add	 eax, DWORD PTR _x$[ebp]
  000a8	89 45 10	 mov	 DWORD PTR _y$[ebp], eax

; 283  : 
; 284  : 	x = (int)(Course_Tbl[y]);		/*?????????*/

  000ab	8b 45 10	 mov	 eax, DWORD PTR _y$[ebp]
  000ae	0f be 88 00 00
	00 00		 movsx	 ecx, BYTE PTR ?Course_Tbl@@3PACA[eax]
  000b5	89 4d 0c	 mov	 DWORD PTR _x$[ebp], ecx

; 285  : 
; 286  : 	if(d3==1){

  000b8	83 7d ec 01	 cmp	 DWORD PTR _d3$[ebp], 1
  000bc	75 11		 jne	 SHORT $LN5@radar2

; 287  : 		x-=32;		/*T??????*/

  000be	8b 45 0c	 mov	 eax, DWORD PTR _x$[ebp]
  000c1	83 e8 20	 sub	 eax, 32			; 00000020H
  000c4	89 45 0c	 mov	 DWORD PTR _x$[ebp], eax

; 288  : 		x = 0 - x;

  000c7	33 c0		 xor	 eax, eax
  000c9	2b 45 0c	 sub	 eax, DWORD PTR _x$[ebp]
  000cc	89 45 0c	 mov	 DWORD PTR _x$[ebp], eax
$LN5@radar2:

; 289  : 	}
; 290  : 	if(d3==2){

  000cf	83 7d ec 02	 cmp	 DWORD PTR _d3$[ebp], 2
  000d3	75 11		 jne	 SHORT $LN6@radar2

; 291  : 		x-=16;		/*T???????*/

  000d5	8b 45 0c	 mov	 eax, DWORD PTR _x$[ebp]
  000d8	83 e8 10	 sub	 eax, 16			; 00000010H
  000db	89 45 0c	 mov	 DWORD PTR _x$[ebp], eax

; 292  : 		x = 0 - x;

  000de	33 c0		 xor	 eax, eax
  000e0	2b 45 0c	 sub	 eax, DWORD PTR _x$[ebp]
  000e3	89 45 0c	 mov	 DWORD PTR _x$[ebp], eax
$LN6@radar2:

; 293  : 	}
; 294  : 	if(d3==3){

  000e6	83 7d ec 03	 cmp	 DWORD PTR _d3$[ebp], 3
  000ea	75 12		 jne	 SHORT $LN7@radar2

; 295  : 	x+=16;		/*??T*/

  000ec	8b 45 0c	 mov	 eax, DWORD PTR _x$[ebp]
  000ef	83 c0 10	 add	 eax, 16			; 00000010H
  000f2	89 45 0c	 mov	 DWORD PTR _x$[ebp], eax

; 296  : 	x=x&31;

  000f5	8b 45 0c	 mov	 eax, DWORD PTR _x$[ebp]
  000f8	83 e0 1f	 and	 eax, 31			; 0000001fH
  000fb	89 45 0c	 mov	 DWORD PTR _x$[ebp], eax
$LN7@radar2:

; 297  : 	}
; 298  : 	
; 299  : 	
; 300  : 	// ??????????
; 301  : 	if( pAct->dirCnt == 0 ){ 

  000fe	8b 45 08	 mov	 eax, DWORD PTR _pAct$[ebp]
  00101	83 b8 30 01 00
	00 00		 cmp	 DWORD PTR [eax+304], 0
  00108	0f 85 b2 00 00
	00		 jne	 $LN8@radar2

; 302  : 		// ????????
; 303  : 		// ?
; 304  : 		if( x - pAct->crs >  16 ) x -= 32;	

  0010e	8b 45 08	 mov	 eax, DWORD PTR _pAct$[ebp]
  00111	8b 4d 0c	 mov	 ecx, DWORD PTR _x$[ebp]
  00114	2b 88 38 01 00
	00		 sub	 ecx, DWORD PTR [eax+312]
  0011a	83 f9 10	 cmp	 ecx, 16			; 00000010H
  0011d	7e 0b		 jle	 SHORT $LN9@radar2
  0011f	8b 45 0c	 mov	 eax, DWORD PTR _x$[ebp]
  00122	83 e8 20	 sub	 eax, 32			; 00000020H
  00125	89 45 0c	 mov	 DWORD PTR _x$[ebp], eax
  00128	eb 1a		 jmp	 SHORT $LN10@radar2
$LN9@radar2:

; 305  : 		else if( x - pAct->crs < -16 ) x += 32;

  0012a	8b 45 08	 mov	 eax, DWORD PTR _pAct$[ebp]
  0012d	8b 4d 0c	 mov	 ecx, DWORD PTR _x$[ebp]
  00130	2b 88 38 01 00
	00		 sub	 ecx, DWORD PTR [eax+312]
  00136	83 f9 f0	 cmp	 ecx, -16		; fffffff0H
  00139	7d 09		 jge	 SHORT $LN10@radar2
  0013b	8b 45 0c	 mov	 eax, DWORD PTR _x$[ebp]
  0013e	83 c0 20	 add	 eax, 32			; 00000020H
  00141	89 45 0c	 mov	 DWORD PTR _x$[ebp], eax
$LN10@radar2:

; 306  : 		// ??
; 307  : 		if( x - pAct->crs != 0 ){

  00144	8b 45 08	 mov	 eax, DWORD PTR _pAct$[ebp]
  00147	8b 4d 0c	 mov	 ecx, DWORD PTR _x$[ebp]
  0014a	2b 88 38 01 00
	00		 sub	 ecx, DWORD PTR [eax+312]
  00150	74 6e		 je	 SHORT $LN8@radar2

; 308  : 			if( x - pAct->crs > 0 ){ 

  00152	8b 45 08	 mov	 eax, DWORD PTR _pAct$[ebp]
  00155	8b 4d 0c	 mov	 ecx, DWORD PTR _x$[ebp]
  00158	2b 88 38 01 00
	00		 sub	 ecx, DWORD PTR [eax+312]
  0015e	85 c9		 test	 ecx, ecx
  00160	7e 30		 jle	 SHORT $LN13@radar2

; 309  : 				pAct->crs++;

  00162	8b 45 08	 mov	 eax, DWORD PTR _pAct$[ebp]
  00165	8b 88 38 01 00
	00		 mov	 ecx, DWORD PTR [eax+312]
  0016b	83 c1 01	 add	 ecx, 1
  0016e	8b 55 08	 mov	 edx, DWORD PTR _pAct$[ebp]
  00171	89 8a 38 01 00
	00		 mov	 DWORD PTR [edx+312], ecx

; 310  : 				if( pAct->crs == 32 ) pAct->crs = 0;

  00177	8b 45 08	 mov	 eax, DWORD PTR _pAct$[ebp]
  0017a	83 b8 38 01 00
	00 20		 cmp	 DWORD PTR [eax+312], 32	; 00000020H
  00181	75 0d		 jne	 SHORT $LN15@radar2
  00183	8b 45 08	 mov	 eax, DWORD PTR _pAct$[ebp]
  00186	c7 80 38 01 00
	00 00 00 00 00	 mov	 DWORD PTR [eax+312], 0
$LN15@radar2:

; 311  : 			}else{

  00190	eb 2e		 jmp	 SHORT $LN8@radar2
$LN13@radar2:

; 312  : 				pAct->crs--;

  00192	8b 45 08	 mov	 eax, DWORD PTR _pAct$[ebp]
  00195	8b 88 38 01 00
	00		 mov	 ecx, DWORD PTR [eax+312]
  0019b	83 e9 01	 sub	 ecx, 1
  0019e	8b 55 08	 mov	 edx, DWORD PTR _pAct$[ebp]
  001a1	89 8a 38 01 00
	00		 mov	 DWORD PTR [edx+312], ecx

; 313  : 				if( pAct->crs == -1 ) pAct->crs = 31;

  001a7	8b 45 08	 mov	 eax, DWORD PTR _pAct$[ebp]
  001aa	83 b8 38 01 00
	00 ff		 cmp	 DWORD PTR [eax+312], -1
  001b1	75 0d		 jne	 SHORT $LN8@radar2
  001b3	8b 45 08	 mov	 eax, DWORD PTR _pAct$[ebp]
  001b6	c7 80 38 01 00
	00 1f 00 00 00	 mov	 DWORD PTR [eax+312], 31	; 0000001fH
$LN8@radar2:

; 314  : 			}
; 315  : 		}
; 316  : 		
; 317  : 	}
; 318  : 	// ????????
; 319  : 	pAct->dirCnt++;

  001c0	8b 45 08	 mov	 eax, DWORD PTR _pAct$[ebp]
  001c3	8b 88 30 01 00
	00		 mov	 ecx, DWORD PTR [eax+304]
  001c9	83 c1 01	 add	 ecx, 1
  001cc	8b 55 08	 mov	 edx, DWORD PTR _pAct$[ebp]
  001cf	89 8a 30 01 00
	00		 mov	 DWORD PTR [edx+304], ecx

; 320  : 	if( pAct->dirCnt >= cnt ) pAct->dirCnt = 0;

  001d5	8b 45 08	 mov	 eax, DWORD PTR _pAct$[ebp]
  001d8	8b 88 30 01 00
	00		 mov	 ecx, DWORD PTR [eax+304]
  001de	3b 4d 14	 cmp	 ecx, DWORD PTR _cnt$[ebp]
  001e1	7c 0d		 jl	 SHORT $LN17@radar2
  001e3	8b 45 08	 mov	 eax, DWORD PTR _pAct$[ebp]
  001e6	c7 80 30 01 00
	00 00 00 00 00	 mov	 DWORD PTR [eax+304], 0
$LN17@radar2:

; 321  : 	
; 322  : 	dist =(int)(Distance_Tbl[ y ]);		/*??(89??)*/

  001f0	8b 45 10	 mov	 eax, DWORD PTR _y$[ebp]
  001f3	0f be 88 00 00
	00 00		 movsx	 ecx, BYTE PTR ?Distance_Tbl@@3PACA[eax]
  001fa	89 4d d4	 mov	 DWORD PTR _dist$[ebp], ecx

; 323  : 	return  dist<<d4;		/*??????*/

  001fd	8b 45 d4	 mov	 eax, DWORD PTR _dist$[ebp]
  00200	8b 4d e0	 mov	 ecx, DWORD PTR _d4$[ebp]
  00203	d3 e0		 shl	 eax, cl

; 324  : }

  00205	5f		 pop	 edi
  00206	5e		 pop	 esi
  00207	5b		 pop	 ebx
  00208	8b e5		 mov	 esp, ebp
  0020a	5d		 pop	 ebp
  0020b	c3		 ret	 0
?radar2@@YAHPAUaction@@HHH@Z ENDP			; radar2
_TEXT	ENDS
; Function compile flags: /Odtp /RTCsu /ZI
; File c:\users\administrator\desktop\????? ??\????? ??\client source code\system\radar.cpp
;	COMDAT ?radar@@YAXPAUaction@@PAH1@Z
_TEXT	SEGMENT
_d4$ = -32						; size = 4
_d3$ = -20						; size = 4
_d0$ = -8						; size = 4
_a0$ = 8						; size = 4
_d1$ = 12						; size = 4
_d2$ = 16						; size = 4
?radar@@YAXPAUaction@@PAH1@Z PROC			; radar, COMDAT

; 158  : {

  00000	55		 push	 ebp
  00001	8b ec		 mov	 ebp, esp
  00003	81 ec e4 00 00
	00		 sub	 esp, 228		; 000000e4H
  00009	53		 push	 ebx
  0000a	56		 push	 esi
  0000b	57		 push	 edi
  0000c	8d bd 1c ff ff
	ff		 lea	 edi, DWORD PTR [ebp-228]
  00012	b9 39 00 00 00	 mov	 ecx, 57			; 00000039H
  00017	b8 cc cc cc cc	 mov	 eax, -858993460		; ccccccccH
  0001c	f3 ab		 rep stosd

; 159  : 	int d0,d3=0,d4;

  0001e	c7 45 ec 00 00
	00 00		 mov	 DWORD PTR _d3$[ebp], 0

; 160  : #if 0
; 161  : 	*d1-=ATR_H_POS(a0);		/*???t*/
; 162  : 	if(*d1<0){
; 163  : 		*d1 = 0 - *d1;		/*Enk???*/
; 164  : 		d3++;		/*?T???*/
; 165  : 	}
; 166  : 	d4=(*d1)>>6;
; 167  : 
; 168  : 	*d2-=ATR_V_POS(a0);		/*???k*/
; 169  : 	if(*d2<0){
; 170  : 		*d2 = 0 - *d2;
; 171  : 		d3+=2;
; 172  : 	}
; 173  : 	d0=(*d2)>>6;			/*?????????????*/
; 174  : 
; 175  : 	if(d4<d0) d4=d0;		/*?????*/
; 176  : 
; 177  : 	*d1=(*d1)>>d4;		/*?????*/
; 178  : 	*d2=(*d2)>>d4;
; 179  : 
; 180  : 	*d2=(*d2)<<6;
; 181  : 	*d2+=*d1;		/*??????k???*/
; 182  : 
; 183  : 	*d1=(int)(Course_Tbl[*d2]);		/*?????????*/
; 184  : 
; 185  : 	if(d3==1){
; 186  : 		*d1-=32;		/*T??????*/
; 187  : 		*d1 = 0 - *d1;		/*Enk???*/
; 188  : 	}
; 189  : 	if(d3==2){
; 190  : 		*d1-=16;		/*T???????*/
; 191  : 		*d1 = 0 - *d1;		/*Enk???*/
; 192  : 	}
; 193  : 	if(d3==3){
; 194  : 	*d1+=16;		/*??T*/
; 195  : 	*d1=*d1&31;
; 196  : 	}
; 197  : 	*d2=(int)(Distance_Tbl[*d2]);		/*??(89??)*/
; 198  : 	*d2=*d2<<d4;		/*??????*/
; 199  : #else
; 200  : 	*d1-=ATR_H_POS(a0);		/*???t*/

  00025	8b 45 0c	 mov	 eax, DWORD PTR _d1$[ebp]
  00028	8b 4d 08	 mov	 ecx, DWORD PTR _a0$[ebp]
  0002b	8b 10		 mov	 edx, DWORD PTR [eax]
  0002d	2b 51 18	 sub	 edx, DWORD PTR [ecx+24]
  00030	8b 45 0c	 mov	 eax, DWORD PTR _d1$[ebp]
  00033	89 10		 mov	 DWORD PTR [eax], edx

; 201  : 	if(*d1<0){

  00035	8b 45 0c	 mov	 eax, DWORD PTR _d1$[ebp]
  00038	83 38 00	 cmp	 DWORD PTR [eax], 0
  0003b	7d 15		 jge	 SHORT $LN2@radar

; 202  : 		*d1 = 0 - *d1;		/*Enk???*/

  0003d	8b 45 0c	 mov	 eax, DWORD PTR _d1$[ebp]
  00040	33 c9		 xor	 ecx, ecx
  00042	2b 08		 sub	 ecx, DWORD PTR [eax]
  00044	8b 55 0c	 mov	 edx, DWORD PTR _d1$[ebp]
  00047	89 0a		 mov	 DWORD PTR [edx], ecx

; 203  : 		d3++;		/*?T???*/

  00049	8b 45 ec	 mov	 eax, DWORD PTR _d3$[ebp]
  0004c	83 c0 01	 add	 eax, 1
  0004f	89 45 ec	 mov	 DWORD PTR _d3$[ebp], eax
$LN2@radar:

; 204  : 	}
; 205  : 	d4=(*d1)/64;

  00052	8b 45 0c	 mov	 eax, DWORD PTR _d1$[ebp]
  00055	8b 00		 mov	 eax, DWORD PTR [eax]
  00057	99		 cdq
  00058	83 e2 3f	 and	 edx, 63			; 0000003fH
  0005b	03 c2		 add	 eax, edx
  0005d	c1 f8 06	 sar	 eax, 6
  00060	89 45 e0	 mov	 DWORD PTR _d4$[ebp], eax

; 206  : 
; 207  : 	*d2-=ATR_V_POS(a0);		/*???k*/

  00063	8b 45 10	 mov	 eax, DWORD PTR _d2$[ebp]
  00066	8b 4d 08	 mov	 ecx, DWORD PTR _a0$[ebp]
  00069	8b 10		 mov	 edx, DWORD PTR [eax]
  0006b	2b 51 1c	 sub	 edx, DWORD PTR [ecx+28]
  0006e	8b 45 10	 mov	 eax, DWORD PTR _d2$[ebp]
  00071	89 10		 mov	 DWORD PTR [eax], edx

; 208  : 	if(*d2<0){

  00073	8b 45 10	 mov	 eax, DWORD PTR _d2$[ebp]
  00076	83 38 00	 cmp	 DWORD PTR [eax], 0
  00079	7d 15		 jge	 SHORT $LN3@radar

; 209  : 		*d2 = 0 - *d2;

  0007b	8b 45 10	 mov	 eax, DWORD PTR _d2$[ebp]
  0007e	33 c9		 xor	 ecx, ecx
  00080	2b 08		 sub	 ecx, DWORD PTR [eax]
  00082	8b 55 10	 mov	 edx, DWORD PTR _d2$[ebp]
  00085	89 0a		 mov	 DWORD PTR [edx], ecx

; 210  : 		d3+=2;

  00087	8b 45 ec	 mov	 eax, DWORD PTR _d3$[ebp]
  0008a	83 c0 02	 add	 eax, 2
  0008d	89 45 ec	 mov	 DWORD PTR _d3$[ebp], eax
$LN3@radar:

; 211  : 	}
; 212  : 	d0=(*d2)/64;			/*?????????????*/

  00090	8b 45 10	 mov	 eax, DWORD PTR _d2$[ebp]
  00093	8b 00		 mov	 eax, DWORD PTR [eax]
  00095	99		 cdq
  00096	83 e2 3f	 and	 edx, 63			; 0000003fH
  00099	03 c2		 add	 eax, edx
  0009b	c1 f8 06	 sar	 eax, 6
  0009e	89 45 f8	 mov	 DWORD PTR _d0$[ebp], eax

; 213  : 
; 214  : 	if(d4<d0) d4=d0;		/*?????*/

  000a1	8b 45 e0	 mov	 eax, DWORD PTR _d4$[ebp]
  000a4	3b 45 f8	 cmp	 eax, DWORD PTR _d0$[ebp]
  000a7	7d 06		 jge	 SHORT $LN4@radar
  000a9	8b 45 f8	 mov	 eax, DWORD PTR _d0$[ebp]
  000ac	89 45 e0	 mov	 DWORD PTR _d4$[ebp], eax
$LN4@radar:

; 215  : 
; 216  : 	d4++;		//????

  000af	8b 45 e0	 mov	 eax, DWORD PTR _d4$[ebp]
  000b2	83 c0 01	 add	 eax, 1
  000b5	89 45 e0	 mov	 DWORD PTR _d4$[ebp], eax

; 217  : 
; 218  : 	*d1=(*d1)/d4;		/*?????*/

  000b8	8b 45 0c	 mov	 eax, DWORD PTR _d1$[ebp]
  000bb	8b 00		 mov	 eax, DWORD PTR [eax]
  000bd	99		 cdq
  000be	f7 7d e0	 idiv	 DWORD PTR _d4$[ebp]
  000c1	8b 4d 0c	 mov	 ecx, DWORD PTR _d1$[ebp]
  000c4	89 01		 mov	 DWORD PTR [ecx], eax

; 219  : 	*d2=(*d2)/d4;

  000c6	8b 45 10	 mov	 eax, DWORD PTR _d2$[ebp]
  000c9	8b 00		 mov	 eax, DWORD PTR [eax]
  000cb	99		 cdq
  000cc	f7 7d e0	 idiv	 DWORD PTR _d4$[ebp]
  000cf	8b 4d 10	 mov	 ecx, DWORD PTR _d2$[ebp]
  000d2	89 01		 mov	 DWORD PTR [ecx], eax

; 220  : 
; 221  : 	*d2=(*d2)<<6;

  000d4	8b 45 10	 mov	 eax, DWORD PTR _d2$[ebp]
  000d7	8b 08		 mov	 ecx, DWORD PTR [eax]
  000d9	c1 e1 06	 shl	 ecx, 6
  000dc	8b 55 10	 mov	 edx, DWORD PTR _d2$[ebp]
  000df	89 0a		 mov	 DWORD PTR [edx], ecx

; 222  : 	*d2+=*d1;		/*??????k???*/

  000e1	8b 45 10	 mov	 eax, DWORD PTR _d2$[ebp]
  000e4	8b 08		 mov	 ecx, DWORD PTR [eax]
  000e6	8b 55 0c	 mov	 edx, DWORD PTR _d1$[ebp]
  000e9	03 0a		 add	 ecx, DWORD PTR [edx]
  000eb	8b 45 10	 mov	 eax, DWORD PTR _d2$[ebp]
  000ee	89 08		 mov	 DWORD PTR [eax], ecx

; 223  : 
; 224  : 	*d1=(int)(Course_Tbl[*d2]);		/*?????????*/

  000f0	8b 45 10	 mov	 eax, DWORD PTR _d2$[ebp]
  000f3	8b 08		 mov	 ecx, DWORD PTR [eax]
  000f5	0f be 91 00 00
	00 00		 movsx	 edx, BYTE PTR ?Course_Tbl@@3PACA[ecx]
  000fc	8b 45 0c	 mov	 eax, DWORD PTR _d1$[ebp]
  000ff	89 10		 mov	 DWORD PTR [eax], edx

; 225  : 
; 226  : 	if(d3==1){

  00101	83 7d ec 01	 cmp	 DWORD PTR _d3$[ebp], 1
  00105	75 19		 jne	 SHORT $LN5@radar

; 227  : 		*d1-=32;		/*T??????*/

  00107	8b 45 0c	 mov	 eax, DWORD PTR _d1$[ebp]
  0010a	8b 08		 mov	 ecx, DWORD PTR [eax]
  0010c	83 e9 20	 sub	 ecx, 32			; 00000020H
  0010f	8b 55 0c	 mov	 edx, DWORD PTR _d1$[ebp]
  00112	89 0a		 mov	 DWORD PTR [edx], ecx

; 228  : 		*d1 = 0 - *d1;		/*Enk???*/

  00114	8b 45 0c	 mov	 eax, DWORD PTR _d1$[ebp]
  00117	33 c9		 xor	 ecx, ecx
  00119	2b 08		 sub	 ecx, DWORD PTR [eax]
  0011b	8b 55 0c	 mov	 edx, DWORD PTR _d1$[ebp]
  0011e	89 0a		 mov	 DWORD PTR [edx], ecx
$LN5@radar:

; 229  : 	}
; 230  : 	if(d3==2){

  00120	83 7d ec 02	 cmp	 DWORD PTR _d3$[ebp], 2
  00124	75 19		 jne	 SHORT $LN6@radar

; 231  : 		*d1-=16;		/*T???????*/

  00126	8b 45 0c	 mov	 eax, DWORD PTR _d1$[ebp]
  00129	8b 08		 mov	 ecx, DWORD PTR [eax]
  0012b	83 e9 10	 sub	 ecx, 16			; 00000010H
  0012e	8b 55 0c	 mov	 edx, DWORD PTR _d1$[ebp]
  00131	89 0a		 mov	 DWORD PTR [edx], ecx

; 232  : 		*d1 = 0 - *d1;		/*Enk???*/

  00133	8b 45 0c	 mov	 eax, DWORD PTR _d1$[ebp]
  00136	33 c9		 xor	 ecx, ecx
  00138	2b 08		 sub	 ecx, DWORD PTR [eax]
  0013a	8b 55 0c	 mov	 edx, DWORD PTR _d1$[ebp]
  0013d	89 0a		 mov	 DWORD PTR [edx], ecx
$LN6@radar:

; 233  : 	}
; 234  : 	if(d3==3){

  0013f	83 7d ec 03	 cmp	 DWORD PTR _d3$[ebp], 3
  00143	75 1a		 jne	 SHORT $LN7@radar

; 235  : 	*d1+=16;		/*??T*/

  00145	8b 45 0c	 mov	 eax, DWORD PTR _d1$[ebp]
  00148	8b 08		 mov	 ecx, DWORD PTR [eax]
  0014a	83 c1 10	 add	 ecx, 16			; 00000010H
  0014d	8b 55 0c	 mov	 edx, DWORD PTR _d1$[ebp]
  00150	89 0a		 mov	 DWORD PTR [edx], ecx

; 236  : 	*d1=*d1&31;

  00152	8b 45 0c	 mov	 eax, DWORD PTR _d1$[ebp]
  00155	8b 08		 mov	 ecx, DWORD PTR [eax]
  00157	83 e1 1f	 and	 ecx, 31			; 0000001fH
  0015a	8b 55 0c	 mov	 edx, DWORD PTR _d1$[ebp]
  0015d	89 0a		 mov	 DWORD PTR [edx], ecx
$LN7@radar:

; 237  : 	}
; 238  : 	*d2=(int)(Distance_Tbl[*d2]);		/*??(89??)*/

  0015f	8b 45 10	 mov	 eax, DWORD PTR _d2$[ebp]
  00162	8b 08		 mov	 ecx, DWORD PTR [eax]
  00164	0f be 91 00 00
	00 00		 movsx	 edx, BYTE PTR ?Distance_Tbl@@3PACA[ecx]
  0016b	8b 45 10	 mov	 eax, DWORD PTR _d2$[ebp]
  0016e	89 10		 mov	 DWORD PTR [eax], edx

; 239  : 	*d2=*d2*d4;		/*??????*/

  00170	8b 45 10	 mov	 eax, DWORD PTR _d2$[ebp]
  00173	8b 08		 mov	 ecx, DWORD PTR [eax]
  00175	0f af 4d e0	 imul	 ecx, DWORD PTR _d4$[ebp]
  00179	8b 55 10	 mov	 edx, DWORD PTR _d2$[ebp]
  0017c	89 0a		 mov	 DWORD PTR [edx], ecx

; 240  : #endif
; 241  : }

  0017e	5f		 pop	 edi
  0017f	5e		 pop	 esi
  00180	5b		 pop	 ebx
  00181	8b e5		 mov	 esp, ebp
  00183	5d		 pop	 ebp
  00184	c3		 ret	 0
?radar@@YAXPAUaction@@PAH1@Z ENDP			; radar
_TEXT	ENDS
END
