; Listing generated by Microsoft (R) Optimizing Compiler Version 19.00.24215.1 

	TITLE	C:\Users\Administrator\Desktop\????? ??\????? ??\Client Source Code\mylua\sa.cpp
	.686P
	.XMM
	include listing.inc
	.model	flat

INCLUDELIB MSVCRTD
INCLUDELIB OLDNAMES

PUBLIC	?SaLuaPrint@@YAHPAUlua_State@@@Z		; SaLuaPrint
PUBLIC	??_C@_0BM@NLALFBCK@getStringFromIndexWithDelim?$AA@ ; `string'
PUBLIC	??_C@_09BCFEFPBE@strmemcpy?$AA@			; `string'
PUBLIC	??_C@_0BA@DPLOLLBI@StockFontBuffer?$AA@		; `string'
PUBLIC	??_C@_0L@DAIBAIMF@MakeHitBox?$AA@		; `string'
PUBLIC	??_C@_0M@JIDNPOHH@DeathAction?$AA@		; `string'
PUBLIC	??_C@_0P@BDLLBODD@MakeWindowDisp?$AA@		; `string'
PUBLIC	??_C@_0N@MJPPOPAH@MakeAnimDisp?$AA@		; `string'
PUBLIC	??_C@_0BA@LDAJNJEC@StockDispBuffer?$AA@		; `string'
PUBLIC	??_C@_0BD@HFFBLKCD@StockBoxDispBuffer?$AA@	; `string'
PUBLIC	??_C@_06PKGFLIPH@PlaySe?$AA@			; `string'
PUBLIC	??_C@_09OCNLBMHE@LeftShift?$AA@			; `string'
PUBLIC	??_C@_0L@NIAMFDCL@RightShift?$AA@		; `string'
PUBLIC	??_C@_09GKCMFMAI@SaD1AndD2?$AA@			; `string'
PUBLIC	??_C@_0BB@PDIFIMKJ@GetKeyInputFocus?$AA@	; `string'
PUBLIC	??_C@_0N@CNLOGDLA@getTickCount?$AA@		; `string'
PUBLIC	??_C@_0N@BFFIJKHB@ShellExecute?$AA@		; `string'
PUBLIC	??_C@_0M@BPKMLENP@ShowMessage?$AA@		; `string'
PUBLIC	??_C@_08JKJBMNEB@GetCdkey?$AA@			; `string'
PUBLIC	??_C@_05IJDJACGD@print?$AA@			; `string'
PUBLIC	??_C@_0M@DEPJBPP@timeGetTime?$AA@		; `string'
PUBLIC	??_C@_0O@MKLBEJHD@getTextLength?$AA@		; `string'
PUBLIC	??_C@_0M@GKAPEPNC@GetResoMode?$AA@		; `string'
;	COMDAT ??_C@_0M@GKAPEPNC@GetResoMode?$AA@
CONST	SEGMENT
??_C@_0M@GKAPEPNC@GetResoMode?$AA@ DB 'GetResoMode', 00H ; `string'
CONST	ENDS
;	COMDAT ??_C@_0O@MKLBEJHD@getTextLength?$AA@
CONST	SEGMENT
??_C@_0O@MKLBEJHD@getTextLength?$AA@ DB 'getTextLength', 00H ; `string'
CONST	ENDS
;	COMDAT ??_C@_0M@DEPJBPP@timeGetTime?$AA@
CONST	SEGMENT
??_C@_0M@DEPJBPP@timeGetTime?$AA@ DB 'timeGetTime', 00H	; `string'
CONST	ENDS
;	COMDAT ??_C@_05IJDJACGD@print?$AA@
CONST	SEGMENT
??_C@_05IJDJACGD@print?$AA@ DB 'print', 00H		; `string'
CONST	ENDS
;	COMDAT ??_C@_08JKJBMNEB@GetCdkey?$AA@
CONST	SEGMENT
??_C@_08JKJBMNEB@GetCdkey?$AA@ DB 'GetCdkey', 00H	; `string'
CONST	ENDS
;	COMDAT ??_C@_0M@BPKMLENP@ShowMessage?$AA@
CONST	SEGMENT
??_C@_0M@BPKMLENP@ShowMessage?$AA@ DB 'ShowMessage', 00H ; `string'
CONST	ENDS
;	COMDAT ??_C@_0N@BFFIJKHB@ShellExecute?$AA@
CONST	SEGMENT
??_C@_0N@BFFIJKHB@ShellExecute?$AA@ DB 'ShellExecute', 00H ; `string'
CONST	ENDS
;	COMDAT ??_C@_0N@CNLOGDLA@getTickCount?$AA@
CONST	SEGMENT
??_C@_0N@CNLOGDLA@getTickCount?$AA@ DB 'getTickCount', 00H ; `string'
CONST	ENDS
;	COMDAT ??_C@_0BB@PDIFIMKJ@GetKeyInputFocus?$AA@
CONST	SEGMENT
??_C@_0BB@PDIFIMKJ@GetKeyInputFocus?$AA@ DB 'GetKeyInputFocus', 00H ; `string'
CONST	ENDS
;	COMDAT ??_C@_09GKCMFMAI@SaD1AndD2?$AA@
CONST	SEGMENT
??_C@_09GKCMFMAI@SaD1AndD2?$AA@ DB 'SaD1AndD2', 00H	; `string'
CONST	ENDS
;	COMDAT ??_C@_0L@NIAMFDCL@RightShift?$AA@
CONST	SEGMENT
??_C@_0L@NIAMFDCL@RightShift?$AA@ DB 'RightShift', 00H	; `string'
CONST	ENDS
;	COMDAT ??_C@_09OCNLBMHE@LeftShift?$AA@
CONST	SEGMENT
??_C@_09OCNLBMHE@LeftShift?$AA@ DB 'LeftShift', 00H	; `string'
CONST	ENDS
;	COMDAT ??_C@_06PKGFLIPH@PlaySe?$AA@
CONST	SEGMENT
??_C@_06PKGFLIPH@PlaySe?$AA@ DB 'PlaySe', 00H		; `string'
CONST	ENDS
;	COMDAT ??_C@_0BD@HFFBLKCD@StockBoxDispBuffer?$AA@
CONST	SEGMENT
??_C@_0BD@HFFBLKCD@StockBoxDispBuffer?$AA@ DB 'StockBoxDispBuffer', 00H ; `string'
CONST	ENDS
;	COMDAT ??_C@_0BA@LDAJNJEC@StockDispBuffer?$AA@
CONST	SEGMENT
??_C@_0BA@LDAJNJEC@StockDispBuffer?$AA@ DB 'StockDispBuffer', 00H ; `string'
CONST	ENDS
;	COMDAT ??_C@_0N@MJPPOPAH@MakeAnimDisp?$AA@
CONST	SEGMENT
??_C@_0N@MJPPOPAH@MakeAnimDisp?$AA@ DB 'MakeAnimDisp', 00H ; `string'
CONST	ENDS
;	COMDAT ??_C@_0P@BDLLBODD@MakeWindowDisp?$AA@
CONST	SEGMENT
??_C@_0P@BDLLBODD@MakeWindowDisp?$AA@ DB 'MakeWindowDisp', 00H ; `string'
CONST	ENDS
;	COMDAT ??_C@_0M@JIDNPOHH@DeathAction?$AA@
CONST	SEGMENT
??_C@_0M@JIDNPOHH@DeathAction?$AA@ DB 'DeathAction', 00H ; `string'
CONST	ENDS
;	COMDAT ??_C@_0L@DAIBAIMF@MakeHitBox?$AA@
CONST	SEGMENT
??_C@_0L@DAIBAIMF@MakeHitBox?$AA@ DB 'MakeHitBox', 00H	; `string'
CONST	ENDS
;	COMDAT ??_C@_0BA@DPLOLLBI@StockFontBuffer?$AA@
CONST	SEGMENT
??_C@_0BA@DPLOLLBI@StockFontBuffer?$AA@ DB 'StockFontBuffer', 00H ; `string'
CONST	ENDS
;	COMDAT ??_C@_09BCFEFPBE@strmemcpy?$AA@
CONST	SEGMENT
??_C@_09BCFEFPBE@strmemcpy?$AA@ DB 'strmemcpy', 00H	; `string'
CONST	ENDS
;	COMDAT ??_C@_0BM@NLALFBCK@getStringFromIndexWithDelim?$AA@
CONST	SEGMENT
??_C@_0BM@NLALFBCK@getStringFromIndexWithDelim?$AA@ DB 'getStringFromInde'
	DB	'xWithDelim', 00H				; `string'
CONST	ENDS
CONST	SEGMENT
?salib@@3QBUluaL_Reg@@B DD FLAT:??_C@_0BM@NLALFBCK@getStringFromIndexWithDelim?$AA@ ; salib
	DD	FLAT:?Lua_getStringFromIndexWithDelim_body@@YAHPAUlua_State@@@Z
	DD	FLAT:??_C@_09BCFEFPBE@strmemcpy?$AA@
	DD	FLAT:?Lua_strmemcpy@@YAHPAUlua_State@@@Z
	DD	FLAT:??_C@_0BA@DPLOLLBI@StockFontBuffer?$AA@
	DD	FLAT:?SaStockFontBuffer@@YAHPAUlua_State@@@Z
	DD	FLAT:??_C@_0L@DAIBAIMF@MakeHitBox?$AA@
	DD	FLAT:?SaMakeHitBox@@YAHPAUlua_State@@@Z
	DD	FLAT:??_C@_0M@JIDNPOHH@DeathAction?$AA@
	DD	FLAT:?SaDeathAction@@YAHPAUlua_State@@@Z
	DD	FLAT:??_C@_0P@BDLLBODD@MakeWindowDisp?$AA@
	DD	FLAT:?SaMakeWindowDisp@@YAHPAUlua_State@@@Z
	DD	FLAT:??_C@_0N@MJPPOPAH@MakeAnimDisp?$AA@
	DD	FLAT:?SaMakeAnimDisp@@YAHPAUlua_State@@@Z
	DD	FLAT:??_C@_0BA@LDAJNJEC@StockDispBuffer?$AA@
	DD	FLAT:?SaStockDispBuffer@@YAHPAUlua_State@@@Z
	DD	FLAT:??_C@_0BD@HFFBLKCD@StockBoxDispBuffer?$AA@
	DD	FLAT:?SaStockBoxDispBuffer@@YAHPAUlua_State@@@Z
	DD	FLAT:??_C@_06PKGFLIPH@PlaySe?$AA@
	DD	FLAT:?SaPlaySe@@YAHPAUlua_State@@@Z
	DD	FLAT:??_C@_09OCNLBMHE@LeftShift?$AA@
	DD	FLAT:?SaLeftShift@@YAHPAUlua_State@@@Z
	DD	FLAT:??_C@_0L@NIAMFDCL@RightShift?$AA@
	DD	FLAT:?SaRightShift@@YAHPAUlua_State@@@Z
	DD	FLAT:??_C@_09GKCMFMAI@SaD1AndD2?$AA@
	DD	FLAT:?SaD1AndD2@@YAHPAUlua_State@@@Z
	DD	FLAT:??_C@_0BB@PDIFIMKJ@GetKeyInputFocus?$AA@
	DD	FLAT:?SaGetKeyInputFocus@@YAHPAUlua_State@@@Z
	DD	FLAT:??_C@_0N@CNLOGDLA@getTickCount?$AA@
	DD	FLAT:?getTickCount@@YAHPAUlua_State@@@Z
	DD	FLAT:??_C@_0N@BFFIJKHB@ShellExecute?$AA@
	DD	FLAT:?SaShellExecute@@YAHPAUlua_State@@@Z
	DD	FLAT:??_C@_0M@BPKMLENP@ShowMessage?$AA@
	DD	FLAT:?SaShowMessage@@YAHPAUlua_State@@@Z
	DD	FLAT:??_C@_08JKJBMNEB@GetCdkey?$AA@
	DD	FLAT:?SaGetCdkey@@YAHPAUlua_State@@@Z
	DD	FLAT:??_C@_05IJDJACGD@print?$AA@
	DD	FLAT:?SaLuaPrint@@YAHPAUlua_State@@@Z
	DD	FLAT:??_C@_0M@DEPJBPP@timeGetTime?$AA@
	DD	FLAT:?SAtimeGetTime@@YAHPAUlua_State@@@Z
	DD	FLAT:??_C@_0O@MKLBEJHD@getTextLength?$AA@
	DD	FLAT:?Lua_getTextLength@@YAHPAUlua_State@@@Z
	DD	FLAT:??_C@_0M@GKAPEPNC@GetResoMode?$AA@
	DD	FLAT:?GetResoMode@@YAHPAUlua_State@@@Z
	DD	00H
	DD	00H
CONST	ENDS
PUBLIC	?strchr@@YAPADQADH@Z				; strchr
PUBLIC	___local_stdio_printf_options
PUBLIC	__vfprintf_l
PUBLIC	??$__vcrt_va_start_verify_argument_type@QBD@@YAXXZ ; __vcrt_va_start_verify_argument_type<char const * const>
PUBLIC	_printf
PUBLIC	__vsnprintf_l
PUBLIC	__vsprintf_l
PUBLIC	_sprintf
PUBLIC	?luaopen_Sa@@YAHPAUlua_State@@@Z		; luaopen_Sa
PUBLIC	?_OptionsStorage@?1??__local_stdio_printf_options@@9@4_KA ; `__local_stdio_printf_options'::`2'::_OptionsStorage
PUBLIC	??_C@_05GGBDHNF@?9?$CL?5?$CD0?$AA@		; `string'
PUBLIC	??_C@_0CA@COOMGCAO@invalid?5format?5?$CIrepeated?5flags?$CJ?$AA@ ; `string'
PUBLIC	??_C@_0CN@KALFEKPN@invalid?5format?5?$CIwidth?5or?5precisi@ ; `string'
PUBLIC	??_C@_01HHGOMJKL@l?$AA@				; `string'
PUBLIC	??_C@_02HIBBOKEN@?2r?$AA@			; `string'
PUBLIC	??_C@_04MPDIABOK@?2000?$AA@			; `string'
PUBLIC	??_C@_0CC@KIPBEOBI@invalid?5option?5?8?$CF?$CF?$CFc?8?5to?5?8format@ ; `string'
PUBLIC	??_C@_04PMOCAHAA@open?$AA@			; `string'
PUBLIC	??_C@_02CKOPKKAC@sa?$AA@			; `string'
EXTRN	__imp__isdigit:PROC
EXTRN	_memcpy:PROC
EXTRN	_memset:PROC
EXTRN	__imp__strchr:PROC
EXTRN	_strcpy:PROC
EXTRN	_strlen:PROC
EXTRN	__imp__strncpy:PROC
EXTRN	__imp__GetTickCount@0:PROC
EXTRN	__imp__timeGetTime@0:PROC
EXTRN	__imp__ShellExecuteA@24:PROC
EXTRN	__imp____acrt_iob_func:PROC
EXTRN	__imp____stdio_common_vfprintf:PROC
EXTRN	__imp____stdio_common_vsprintf:PROC
EXTRN	?DeathAction@@YAXPAUaction@@@Z:PROC		; DeathAction
EXTRN	?StockDispBuffer@@YAHHHEHH@Z:PROC		; StockDispBuffer
EXTRN	?StockChatBufferLine@@YAXPADEH@Z:PROC		; StockChatBufferLine
EXTRN	?GetKeyInputFocus@@YAXPAUSTR_BUFFER@@@Z:PROC	; GetKeyInputFocus
EXTRN	?StockFontBuffer@@YAHHHDHPADH@Z:PROC		; StockFontBuffer
EXTRN	_lua_pushvalue:PROC
EXTRN	_lua_pushinteger:PROC
EXTRN	_lua_pushstring:PROC
EXTRN	_luaL_register:PROC
EXTRN	_luaL_checklstring:PROC
EXTRN	_luaL_checknumber:PROC
EXTRN	_luaL_checkinteger:PROC
EXTRN	_luaL_error:PROC
EXTRN	_luaL_buffinit:PROC
EXTRN	_luaL_prepbuffer:PROC
EXTRN	_luaL_addlstring:PROC
EXTRN	_luaL_addvalue:PROC
EXTRN	?MakeWindowDisp@@YAPAUaction@@HHHHHH@Z:PROC	; MakeWindowDisp
EXTRN	?MakeHitBox@@YAHHHHHH@Z:PROC			; MakeHitBox
EXTRN	?MakeAnimDisp@@YAPAUaction@@HHHH@Z:PROC		; MakeAnimDisp
EXTRN	?play_se@@YAHHHH@Z:PROC				; play_se
EXTRN	?getTextLength@@YAHPAD@Z:PROC			; getTextLength
EXTRN	?getStringFromIndexWithDelim_body@@YAHPAD0H0H@Z:PROC ; getStringFromIndexWithDelim_body
EXTRN	@_RTC_CheckStackVars@8:PROC
EXTRN	@__security_check_cookie@4:PROC
EXTRN	__RTC_CheckEsp:PROC
EXTRN	__RTC_InitBase:PROC
EXTRN	__RTC_Shutdown:PROC
EXTRN	__RTC_UninitUse:PROC
EXTRN	__ftol2_sse:PROC
EXTRN	?ResoMode@@3HA:DWORD				; ResoMode
EXTRN	?MyChatBuffer@@3USTR_BUFFER@@A:BYTE		; MyChatBuffer
EXTRN	?szUser@@3PADA:BYTE				; szUser
EXTRN	___security_cookie:DWORD
EXTRN	__fltused:DWORD
;	COMDAT ?_OptionsStorage@?1??__local_stdio_printf_options@@9@4_KA
_BSS	SEGMENT
?_OptionsStorage@?1??__local_stdio_printf_options@@9@4_KA DQ 01H DUP (?) ; `__local_stdio_printf_options'::`2'::_OptionsStorage
_BSS	ENDS
;	COMDAT rtc$TMZ
rtc$TMZ	SEGMENT
__RTC_Shutdown.rtc$TMZ DD FLAT:__RTC_Shutdown
rtc$TMZ	ENDS
;	COMDAT rtc$IMZ
rtc$IMZ	SEGMENT
__RTC_InitBase.rtc$IMZ DD FLAT:__RTC_InitBase
rtc$IMZ	ENDS
;	COMDAT ??_C@_02CKOPKKAC@sa?$AA@
CONST	SEGMENT
??_C@_02CKOPKKAC@sa?$AA@ DB 'sa', 00H			; `string'
CONST	ENDS
;	COMDAT ??_C@_04PMOCAHAA@open?$AA@
CONST	SEGMENT
??_C@_04PMOCAHAA@open?$AA@ DB 'open', 00H		; `string'
CONST	ENDS
;	COMDAT ??_C@_0CC@KIPBEOBI@invalid?5option?5?8?$CF?$CF?$CFc?8?5to?5?8format@
CONST	SEGMENT
??_C@_0CC@KIPBEOBI@invalid?5option?5?8?$CF?$CF?$CFc?8?5to?5?8format@ DB 'i'
	DB	'nvalid option ''%%%c'' to ''format''', 00H	; `string'
CONST	ENDS
;	COMDAT ??_C@_04MPDIABOK@?2000?$AA@
CONST	SEGMENT
??_C@_04MPDIABOK@?2000?$AA@ DB '\000', 00H		; `string'
CONST	ENDS
;	COMDAT ??_C@_02HIBBOKEN@?2r?$AA@
CONST	SEGMENT
??_C@_02HIBBOKEN@?2r?$AA@ DB '\r', 00H			; `string'
CONST	ENDS
;	COMDAT ??_C@_01HHGOMJKL@l?$AA@
CONST	SEGMENT
??_C@_01HHGOMJKL@l?$AA@ DB 'l', 00H			; `string'
CONST	ENDS
;	COMDAT ??_C@_0CN@KALFEKPN@invalid?5format?5?$CIwidth?5or?5precisi@
CONST	SEGMENT
??_C@_0CN@KALFEKPN@invalid?5format?5?$CIwidth?5or?5precisi@ DB 'invalid f'
	DB	'ormat (width or precision too long)', 00H	; `string'
CONST	ENDS
;	COMDAT ??_C@_0CA@COOMGCAO@invalid?5format?5?$CIrepeated?5flags?$CJ?$AA@
CONST	SEGMENT
??_C@_0CA@COOMGCAO@invalid?5format?5?$CIrepeated?5flags?$CJ?$AA@ DB 'inva'
	DB	'lid format (repeated flags)', 00H		; `string'
CONST	ENDS
;	COMDAT ??_C@_05GGBDHNF@?9?$CL?5?$CD0?$AA@
CONST	SEGMENT
??_C@_05GGBDHNF@?9?$CL?5?$CD0?$AA@ DB '-+ #0', 00H	; `string'
CONST	ENDS
; Function compile flags: /Odtp /RTCsu /ZI
; File c:\users\administrator\desktop\????? ??\????? ??\client source code\mylua\sa.cpp
;	COMDAT ?GetResoMode@@YAHPAUlua_State@@@Z
_TEXT	SEGMENT
_L$ = 8							; size = 4
?GetResoMode@@YAHPAUlua_State@@@Z PROC			; GetResoMode, COMDAT

; 383  : static int GetResoMode(lua_State *L){

  00000	55		 push	 ebp
  00001	8b ec		 mov	 ebp, esp
  00003	81 ec cc 00 00
	00		 sub	 esp, 204		; 000000ccH
  00009	53		 push	 ebx
  0000a	56		 push	 esi
  0000b	57		 push	 edi
  0000c	8d bd 34 ff ff
	ff		 lea	 edi, DWORD PTR [ebp-204]
  00012	b9 33 00 00 00	 mov	 ecx, 51			; 00000033H
  00017	b8 cc cc cc cc	 mov	 eax, -858993460		; ccccccccH
  0001c	f3 ab		 rep stosd

; 384  : 	size_t l;
; 385  : 	lua_pushinteger(L, ResoMode);

  0001e	a1 00 00 00 00	 mov	 eax, DWORD PTR ?ResoMode@@3HA ; ResoMode
  00023	50		 push	 eax
  00024	8b 4d 08	 mov	 ecx, DWORD PTR _L$[ebp]
  00027	51		 push	 ecx
  00028	e8 00 00 00 00	 call	 _lua_pushinteger
  0002d	83 c4 08	 add	 esp, 8

; 386  : 	return 1;

  00030	b8 01 00 00 00	 mov	 eax, 1

; 387  : }

  00035	5f		 pop	 edi
  00036	5e		 pop	 esi
  00037	5b		 pop	 ebx
  00038	81 c4 cc 00 00
	00		 add	 esp, 204		; 000000ccH
  0003e	3b ec		 cmp	 ebp, esp
  00040	e8 00 00 00 00	 call	 __RTC_CheckEsp
  00045	8b e5		 mov	 esp, ebp
  00047	5d		 pop	 ebp
  00048	c3		 ret	 0
?GetResoMode@@YAHPAUlua_State@@@Z ENDP			; GetResoMode
_TEXT	ENDS
; Function compile flags: /Odtp /RTCsu /ZI
; File c:\users\administrator\desktop\????? ??\????? ??\client source code\mylua\sa.cpp
;	COMDAT ?Lua_strmemcpy@@YAHPAUlua_State@@@Z
_TEXT	SEGMENT
_index2$ = -2104					; size = 4
_index1$ = -2092					; size = 4
_str$ = -2080						; size = 4
_l$ = -2068						; size = 4
_temp$ = -2056						; size = 2048
__$ArrayPad$ = -4					; size = 4
_L$ = 8							; size = 4
?Lua_strmemcpy@@YAHPAUlua_State@@@Z PROC		; Lua_strmemcpy, COMDAT

; 369  : {

  00000	55		 push	 ebp
  00001	8b ec		 mov	 ebp, esp
  00003	81 ec fc 0b 00
	00		 sub	 esp, 3068		; 00000bfcH
  00009	53		 push	 ebx
  0000a	56		 push	 esi
  0000b	57		 push	 edi
  0000c	8d bd 04 f4 ff
	ff		 lea	 edi, DWORD PTR [ebp-3068]
  00012	b9 ff 02 00 00	 mov	 ecx, 767		; 000002ffH
  00017	b8 cc cc cc cc	 mov	 eax, -858993460		; ccccccccH
  0001c	f3 ab		 rep stosd
  0001e	a1 00 00 00 00	 mov	 eax, DWORD PTR ___security_cookie
  00023	33 c5		 xor	 eax, ebp
  00025	89 45 fc	 mov	 DWORD PTR __$ArrayPad$[ebp], eax

; 370  : 	char temp[2048];
; 371  : 	memset(temp,0,2024);

  00028	68 e8 07 00 00	 push	 2024			; 000007e8H
  0002d	6a 00		 push	 0
  0002f	8d 85 f8 f7 ff
	ff		 lea	 eax, DWORD PTR _temp$[ebp]
  00035	50		 push	 eax
  00036	e8 00 00 00 00	 call	 _memset
  0003b	83 c4 0c	 add	 esp, 12			; 0000000cH

; 372  : 	size_t l;
; 373  : 	const char *str=luaL_checklstring(L, 1, &l);

  0003e	8d 85 ec f7 ff
	ff		 lea	 eax, DWORD PTR _l$[ebp]
  00044	50		 push	 eax
  00045	6a 01		 push	 1
  00047	8b 4d 08	 mov	 ecx, DWORD PTR _L$[ebp]
  0004a	51		 push	 ecx
  0004b	e8 00 00 00 00	 call	 _luaL_checklstring
  00050	83 c4 0c	 add	 esp, 12			; 0000000cH
  00053	89 85 e0 f7 ff
	ff		 mov	 DWORD PTR _str$[ebp], eax

; 374  : 	const int index1=luaL_checkint(L, 2);

  00059	6a 02		 push	 2
  0005b	8b 45 08	 mov	 eax, DWORD PTR _L$[ebp]
  0005e	50		 push	 eax
  0005f	e8 00 00 00 00	 call	 _luaL_checkinteger
  00064	83 c4 08	 add	 esp, 8
  00067	89 85 d4 f7 ff
	ff		 mov	 DWORD PTR _index1$[ebp], eax

; 375  : 	const int index2=luaL_checkint(L, 3);

  0006d	6a 03		 push	 3
  0006f	8b 45 08	 mov	 eax, DWORD PTR _L$[ebp]
  00072	50		 push	 eax
  00073	e8 00 00 00 00	 call	 _luaL_checkinteger
  00078	83 c4 08	 add	 esp, 8
  0007b	89 85 c8 f7 ff
	ff		 mov	 DWORD PTR _index2$[ebp], eax

; 376  : 	memcpy(temp,str+index1-1,index2);

  00081	8b 85 c8 f7 ff
	ff		 mov	 eax, DWORD PTR _index2$[ebp]
  00087	50		 push	 eax
  00088	8b 8d d4 f7 ff
	ff		 mov	 ecx, DWORD PTR _index1$[ebp]
  0008e	8b 95 e0 f7 ff
	ff		 mov	 edx, DWORD PTR _str$[ebp]
  00094	8d 44 0a ff	 lea	 eax, DWORD PTR [edx+ecx-1]
  00098	50		 push	 eax
  00099	8d 8d f8 f7 ff
	ff		 lea	 ecx, DWORD PTR _temp$[ebp]
  0009f	51		 push	 ecx
  000a0	e8 00 00 00 00	 call	 _memcpy
  000a5	83 c4 0c	 add	 esp, 12			; 0000000cH

; 377  : 	lua_pushstring(L, temp);

  000a8	8d 85 f8 f7 ff
	ff		 lea	 eax, DWORD PTR _temp$[ebp]
  000ae	50		 push	 eax
  000af	8b 4d 08	 mov	 ecx, DWORD PTR _L$[ebp]
  000b2	51		 push	 ecx
  000b3	e8 00 00 00 00	 call	 _lua_pushstring
  000b8	83 c4 08	 add	 esp, 8

; 378  : 	return 1;

  000bb	b8 01 00 00 00	 mov	 eax, 1

; 379  : }

  000c0	52		 push	 edx
  000c1	8b cd		 mov	 ecx, ebp
  000c3	50		 push	 eax
  000c4	8d 15 00 00 00
	00		 lea	 edx, DWORD PTR $LN6@Lua_strmem
  000ca	e8 00 00 00 00	 call	 @_RTC_CheckStackVars@8
  000cf	58		 pop	 eax
  000d0	5a		 pop	 edx
  000d1	5f		 pop	 edi
  000d2	5e		 pop	 esi
  000d3	5b		 pop	 ebx
  000d4	8b 4d fc	 mov	 ecx, DWORD PTR __$ArrayPad$[ebp]
  000d7	33 cd		 xor	 ecx, ebp
  000d9	e8 00 00 00 00	 call	 @__security_check_cookie@4
  000de	81 c4 fc 0b 00
	00		 add	 esp, 3068		; 00000bfcH
  000e4	3b ec		 cmp	 ebp, esp
  000e6	e8 00 00 00 00	 call	 __RTC_CheckEsp
  000eb	8b e5		 mov	 esp, ebp
  000ed	5d		 pop	 ebp
  000ee	c3		 ret	 0
  000ef	90		 npad	 1
$LN6@Lua_strmem:
  000f0	02 00 00 00	 DD	 2
  000f4	00 00 00 00	 DD	 $LN5@Lua_strmem
$LN5@Lua_strmem:
  000f8	f8 f7 ff ff	 DD	 -2056			; fffff7f8H
  000fc	00 08 00 00	 DD	 2048			; 00000800H
  00100	00 00 00 00	 DD	 $LN3@Lua_strmem
  00104	ec f7 ff ff	 DD	 -2068			; fffff7ecH
  00108	04 00 00 00	 DD	 4
  0010c	00 00 00 00	 DD	 $LN4@Lua_strmem
$LN4@Lua_strmem:
  00110	6c		 DB	 108			; 0000006cH
  00111	00		 DB	 0
$LN3@Lua_strmem:
  00112	74		 DB	 116			; 00000074H
  00113	65		 DB	 101			; 00000065H
  00114	6d		 DB	 109			; 0000006dH
  00115	70		 DB	 112			; 00000070H
  00116	00		 DB	 0
?Lua_strmemcpy@@YAHPAUlua_State@@@Z ENDP		; Lua_strmemcpy
_TEXT	ENDS
; Function compile flags: /Odtp /RTCsu /ZI
; File c:\users\administrator\desktop\????? ??\????? ??\client source code\mylua\sa.cpp
;	COMDAT ?Lua_getStringFromIndexWithDelim_body@@YAHPAUlua_State@@@Z
_TEXT	SEGMENT
_delim$ = -2104						; size = 4
_index$ = -2092						; size = 4
_str$ = -2080						; size = 4
_l$ = -2068						; size = 4
_temp$ = -2056						; size = 2048
__$ArrayPad$ = -4					; size = 4
_L$ = 8							; size = 4
?Lua_getStringFromIndexWithDelim_body@@YAHPAUlua_State@@@Z PROC ; Lua_getStringFromIndexWithDelim_body, COMDAT

; 355  : {

  00000	55		 push	 ebp
  00001	8b ec		 mov	 ebp, esp
  00003	81 ec fc 0b 00
	00		 sub	 esp, 3068		; 00000bfcH
  00009	53		 push	 ebx
  0000a	56		 push	 esi
  0000b	57		 push	 edi
  0000c	8d bd 04 f4 ff
	ff		 lea	 edi, DWORD PTR [ebp-3068]
  00012	b9 ff 02 00 00	 mov	 ecx, 767		; 000002ffH
  00017	b8 cc cc cc cc	 mov	 eax, -858993460		; ccccccccH
  0001c	f3 ab		 rep stosd
  0001e	a1 00 00 00 00	 mov	 eax, DWORD PTR ___security_cookie
  00023	33 c5		 xor	 eax, ebp
  00025	89 45 fc	 mov	 DWORD PTR __$ArrayPad$[ebp], eax

; 356  : 	extern BOOL getStringFromIndexWithDelim_body( char* src ,char* delim ,int index,char* buf , int buflen);
; 357  : 	char temp[2048];
; 358  : 	memset(temp,0,2024);

  00028	68 e8 07 00 00	 push	 2024			; 000007e8H
  0002d	6a 00		 push	 0
  0002f	8d 85 f8 f7 ff
	ff		 lea	 eax, DWORD PTR _temp$[ebp]
  00035	50		 push	 eax
  00036	e8 00 00 00 00	 call	 _memset
  0003b	83 c4 0c	 add	 esp, 12			; 0000000cH

; 359  : 	size_t l;
; 360  : 	const char *str=luaL_checklstring(L, 1, &l);

  0003e	8d 85 ec f7 ff
	ff		 lea	 eax, DWORD PTR _l$[ebp]
  00044	50		 push	 eax
  00045	6a 01		 push	 1
  00047	8b 4d 08	 mov	 ecx, DWORD PTR _L$[ebp]
  0004a	51		 push	 ecx
  0004b	e8 00 00 00 00	 call	 _luaL_checklstring
  00050	83 c4 0c	 add	 esp, 12			; 0000000cH
  00053	89 85 e0 f7 ff
	ff		 mov	 DWORD PTR _str$[ebp], eax

; 361  : 	const int index=luaL_checkint(L, 2);

  00059	6a 02		 push	 2
  0005b	8b 45 08	 mov	 eax, DWORD PTR _L$[ebp]
  0005e	50		 push	 eax
  0005f	e8 00 00 00 00	 call	 _luaL_checkinteger
  00064	83 c4 08	 add	 esp, 8
  00067	89 85 d4 f7 ff
	ff		 mov	 DWORD PTR _index$[ebp], eax

; 362  : 	const char *delim=luaL_checklstring(L, 3, &l);

  0006d	8d 85 ec f7 ff
	ff		 lea	 eax, DWORD PTR _l$[ebp]
  00073	50		 push	 eax
  00074	6a 03		 push	 3
  00076	8b 4d 08	 mov	 ecx, DWORD PTR _L$[ebp]
  00079	51		 push	 ecx
  0007a	e8 00 00 00 00	 call	 _luaL_checklstring
  0007f	83 c4 0c	 add	 esp, 12			; 0000000cH
  00082	89 85 c8 f7 ff
	ff		 mov	 DWORD PTR _delim$[ebp], eax

; 363  : 	getStringFromIndexWithDelim_body((char *)str,(char *)delim,index,temp,2024);

  00088	68 e8 07 00 00	 push	 2024			; 000007e8H
  0008d	8d 85 f8 f7 ff
	ff		 lea	 eax, DWORD PTR _temp$[ebp]
  00093	50		 push	 eax
  00094	8b 8d d4 f7 ff
	ff		 mov	 ecx, DWORD PTR _index$[ebp]
  0009a	51		 push	 ecx
  0009b	8b 95 c8 f7 ff
	ff		 mov	 edx, DWORD PTR _delim$[ebp]
  000a1	52		 push	 edx
  000a2	8b 85 e0 f7 ff
	ff		 mov	 eax, DWORD PTR _str$[ebp]
  000a8	50		 push	 eax
  000a9	e8 00 00 00 00	 call	 ?getStringFromIndexWithDelim_body@@YAHPAD0H0H@Z ; getStringFromIndexWithDelim_body
  000ae	83 c4 14	 add	 esp, 20			; 00000014H

; 364  : 	lua_pushstring(L, temp);

  000b1	8d 85 f8 f7 ff
	ff		 lea	 eax, DWORD PTR _temp$[ebp]
  000b7	50		 push	 eax
  000b8	8b 4d 08	 mov	 ecx, DWORD PTR _L$[ebp]
  000bb	51		 push	 ecx
  000bc	e8 00 00 00 00	 call	 _lua_pushstring
  000c1	83 c4 08	 add	 esp, 8

; 365  : 	return 1;

  000c4	b8 01 00 00 00	 mov	 eax, 1

; 366  : }

  000c9	52		 push	 edx
  000ca	8b cd		 mov	 ecx, ebp
  000cc	50		 push	 eax
  000cd	8d 15 00 00 00
	00		 lea	 edx, DWORD PTR $LN6@Lua_getStr
  000d3	e8 00 00 00 00	 call	 @_RTC_CheckStackVars@8
  000d8	58		 pop	 eax
  000d9	5a		 pop	 edx
  000da	5f		 pop	 edi
  000db	5e		 pop	 esi
  000dc	5b		 pop	 ebx
  000dd	8b 4d fc	 mov	 ecx, DWORD PTR __$ArrayPad$[ebp]
  000e0	33 cd		 xor	 ecx, ebp
  000e2	e8 00 00 00 00	 call	 @__security_check_cookie@4
  000e7	81 c4 fc 0b 00
	00		 add	 esp, 3068		; 00000bfcH
  000ed	3b ec		 cmp	 ebp, esp
  000ef	e8 00 00 00 00	 call	 __RTC_CheckEsp
  000f4	8b e5		 mov	 esp, ebp
  000f6	5d		 pop	 ebp
  000f7	c3		 ret	 0
$LN6@Lua_getStr:
  000f8	02 00 00 00	 DD	 2
  000fc	00 00 00 00	 DD	 $LN5@Lua_getStr
$LN5@Lua_getStr:
  00100	f8 f7 ff ff	 DD	 -2056			; fffff7f8H
  00104	00 08 00 00	 DD	 2048			; 00000800H
  00108	00 00 00 00	 DD	 $LN3@Lua_getStr
  0010c	ec f7 ff ff	 DD	 -2068			; fffff7ecH
  00110	04 00 00 00	 DD	 4
  00114	00 00 00 00	 DD	 $LN4@Lua_getStr
$LN4@Lua_getStr:
  00118	6c		 DB	 108			; 0000006cH
  00119	00		 DB	 0
$LN3@Lua_getStr:
  0011a	74		 DB	 116			; 00000074H
  0011b	65		 DB	 101			; 00000065H
  0011c	6d		 DB	 109			; 0000006dH
  0011d	70		 DB	 112			; 00000070H
  0011e	00		 DB	 0
?Lua_getStringFromIndexWithDelim_body@@YAHPAUlua_State@@@Z ENDP ; Lua_getStringFromIndexWithDelim_body
_TEXT	ENDS
; Function compile flags: /Odtp /RTCsu /ZI
; File c:\users\administrator\desktop\????? ??\????? ??\client source code\mylua\sa.cpp
;	COMDAT ?Lua_getTextLength@@YAHPAUlua_State@@@Z
_TEXT	SEGMENT
_ret$ = -32						; size = 4
_str$ = -20						; size = 4
_l$ = -8						; size = 4
_L$ = 8							; size = 4
?Lua_getTextLength@@YAHPAUlua_State@@@Z PROC		; Lua_getTextLength, COMDAT

; 326  : {

  00000	55		 push	 ebp
  00001	8b ec		 mov	 ebp, esp
  00003	81 ec e4 00 00
	00		 sub	 esp, 228		; 000000e4H
  00009	53		 push	 ebx
  0000a	56		 push	 esi
  0000b	57		 push	 edi
  0000c	8d bd 1c ff ff
	ff		 lea	 edi, DWORD PTR [ebp-228]
  00012	b9 39 00 00 00	 mov	 ecx, 57			; 00000039H
  00017	b8 cc cc cc cc	 mov	 eax, -858993460		; ccccccccH
  0001c	f3 ab		 rep stosd

; 327  : 	size_t l;
; 328  : 	const char *str=luaL_checklstring(L, 1, &l);

  0001e	8d 45 f8	 lea	 eax, DWORD PTR _l$[ebp]
  00021	50		 push	 eax
  00022	6a 01		 push	 1
  00024	8b 4d 08	 mov	 ecx, DWORD PTR _L$[ebp]
  00027	51		 push	 ecx
  00028	e8 00 00 00 00	 call	 _luaL_checklstring
  0002d	83 c4 0c	 add	 esp, 12			; 0000000cH
  00030	89 45 ec	 mov	 DWORD PTR _str$[ebp], eax

; 329  : 	int ret = getTextLength((char *)str);

  00033	8b 45 ec	 mov	 eax, DWORD PTR _str$[ebp]
  00036	50		 push	 eax
  00037	e8 00 00 00 00	 call	 ?getTextLength@@YAHPAD@Z ; getTextLength
  0003c	83 c4 04	 add	 esp, 4
  0003f	89 45 e0	 mov	 DWORD PTR _ret$[ebp], eax

; 330  : 	lua_pushinteger(L,ret);

  00042	8b 45 e0	 mov	 eax, DWORD PTR _ret$[ebp]
  00045	50		 push	 eax
  00046	8b 4d 08	 mov	 ecx, DWORD PTR _L$[ebp]
  00049	51		 push	 ecx
  0004a	e8 00 00 00 00	 call	 _lua_pushinteger
  0004f	83 c4 08	 add	 esp, 8

; 331  : 	return 1;

  00052	b8 01 00 00 00	 mov	 eax, 1

; 332  : }

  00057	52		 push	 edx
  00058	8b cd		 mov	 ecx, ebp
  0005a	50		 push	 eax
  0005b	8d 15 00 00 00
	00		 lea	 edx, DWORD PTR $LN5@Lua_getTex
  00061	e8 00 00 00 00	 call	 @_RTC_CheckStackVars@8
  00066	58		 pop	 eax
  00067	5a		 pop	 edx
  00068	5f		 pop	 edi
  00069	5e		 pop	 esi
  0006a	5b		 pop	 ebx
  0006b	81 c4 e4 00 00
	00		 add	 esp, 228		; 000000e4H
  00071	3b ec		 cmp	 ebp, esp
  00073	e8 00 00 00 00	 call	 __RTC_CheckEsp
  00078	8b e5		 mov	 esp, ebp
  0007a	5d		 pop	 ebp
  0007b	c3		 ret	 0
$LN5@Lua_getTex:
  0007c	01 00 00 00	 DD	 1
  00080	00 00 00 00	 DD	 $LN4@Lua_getTex
$LN4@Lua_getTex:
  00084	f8 ff ff ff	 DD	 -8			; fffffff8H
  00088	04 00 00 00	 DD	 4
  0008c	00 00 00 00	 DD	 $LN3@Lua_getTex
$LN3@Lua_getTex:
  00090	6c		 DB	 108			; 0000006cH
  00091	00		 DB	 0
?Lua_getTextLength@@YAHPAUlua_State@@@Z ENDP		; Lua_getTextLength
_TEXT	ENDS
; Function compile flags: /Odtp /RTCsu /ZI
; File c:\users\administrator\desktop\????? ??\????? ??\client source code\mylua\sa.cpp
;	COMDAT ?SAtimeGetTime@@YAHPAUlua_State@@@Z
_TEXT	SEGMENT
_L$ = 8							; size = 4
?SAtimeGetTime@@YAHPAUlua_State@@@Z PROC		; SAtimeGetTime, COMDAT

; 319  : {

  00000	55		 push	 ebp
  00001	8b ec		 mov	 ebp, esp
  00003	81 ec c0 00 00
	00		 sub	 esp, 192		; 000000c0H
  00009	53		 push	 ebx
  0000a	56		 push	 esi
  0000b	57		 push	 edi
  0000c	8d bd 40 ff ff
	ff		 lea	 edi, DWORD PTR [ebp-192]
  00012	b9 30 00 00 00	 mov	 ecx, 48			; 00000030H
  00017	b8 cc cc cc cc	 mov	 eax, -858993460		; ccccccccH
  0001c	f3 ab		 rep stosd

; 320  : 	lua_pushinteger(L, timeGetTime());

  0001e	8b f4		 mov	 esi, esp
  00020	ff 15 00 00 00
	00		 call	 DWORD PTR __imp__timeGetTime@0
  00026	3b f4		 cmp	 esi, esp
  00028	e8 00 00 00 00	 call	 __RTC_CheckEsp
  0002d	50		 push	 eax
  0002e	8b 45 08	 mov	 eax, DWORD PTR _L$[ebp]
  00031	50		 push	 eax
  00032	e8 00 00 00 00	 call	 _lua_pushinteger
  00037	83 c4 08	 add	 esp, 8

; 321  : 	return 1;

  0003a	b8 01 00 00 00	 mov	 eax, 1

; 322  : }

  0003f	5f		 pop	 edi
  00040	5e		 pop	 esi
  00041	5b		 pop	 ebx
  00042	81 c4 c0 00 00
	00		 add	 esp, 192		; 000000c0H
  00048	3b ec		 cmp	 ebp, esp
  0004a	e8 00 00 00 00	 call	 __RTC_CheckEsp
  0004f	8b e5		 mov	 esp, ebp
  00051	5d		 pop	 ebp
  00052	c3		 ret	 0
?SAtimeGetTime@@YAHPAUlua_State@@@Z ENDP		; SAtimeGetTime
_TEXT	ENDS
; Function compile flags: /Odtp /RTCsu /ZI
; File c:\users\administrator\desktop\????? ??\????? ??\client source code\mylua\sa.cpp
;	COMDAT ?SaGetCdkey@@YAHPAUlua_State@@@Z
_TEXT	SEGMENT
_L$ = 8							; size = 4
?SaGetCdkey@@YAHPAUlua_State@@@Z PROC			; SaGetCdkey, COMDAT

; 313  : {

  00000	55		 push	 ebp
  00001	8b ec		 mov	 ebp, esp
  00003	81 ec c0 00 00
	00		 sub	 esp, 192		; 000000c0H
  00009	53		 push	 ebx
  0000a	56		 push	 esi
  0000b	57		 push	 edi
  0000c	8d bd 40 ff ff
	ff		 lea	 edi, DWORD PTR [ebp-192]
  00012	b9 30 00 00 00	 mov	 ecx, 48			; 00000030H
  00017	b8 cc cc cc cc	 mov	 eax, -858993460		; ccccccccH
  0001c	f3 ab		 rep stosd

; 314  : 	lua_pushstring(L, szUser);

  0001e	68 00 00 00 00	 push	 OFFSET ?szUser@@3PADA	; szUser
  00023	8b 45 08	 mov	 eax, DWORD PTR _L$[ebp]
  00026	50		 push	 eax
  00027	e8 00 00 00 00	 call	 _lua_pushstring
  0002c	83 c4 08	 add	 esp, 8

; 315  : 	return 1;

  0002f	b8 01 00 00 00	 mov	 eax, 1

; 316  : }

  00034	5f		 pop	 edi
  00035	5e		 pop	 esi
  00036	5b		 pop	 ebx
  00037	81 c4 c0 00 00
	00		 add	 esp, 192		; 000000c0H
  0003d	3b ec		 cmp	 ebp, esp
  0003f	e8 00 00 00 00	 call	 __RTC_CheckEsp
  00044	8b e5		 mov	 esp, ebp
  00046	5d		 pop	 ebp
  00047	c3		 ret	 0
?SaGetCdkey@@YAHPAUlua_State@@@Z ENDP			; SaGetCdkey
_TEXT	ENDS
; Function compile flags: /Odtp /RTCsu /ZI
; File c:\users\administrator\desktop\????? ??\????? ??\client source code\mylua\sa.cpp
;	COMDAT ?SaShowMessage@@YAHPAUlua_State@@@Z
_TEXT	SEGMENT
_color$ = -32						; size = 4
_str$ = -20						; size = 4
_l$ = -8						; size = 4
_L$ = 8							; size = 4
?SaShowMessage@@YAHPAUlua_State@@@Z PROC		; SaShowMessage, COMDAT

; 304  : {

  00000	55		 push	 ebp
  00001	8b ec		 mov	 ebp, esp
  00003	81 ec e4 00 00
	00		 sub	 esp, 228		; 000000e4H
  00009	53		 push	 ebx
  0000a	56		 push	 esi
  0000b	57		 push	 edi
  0000c	8d bd 1c ff ff
	ff		 lea	 edi, DWORD PTR [ebp-228]
  00012	b9 39 00 00 00	 mov	 ecx, 57			; 00000039H
  00017	b8 cc cc cc cc	 mov	 eax, -858993460		; ccccccccH
  0001c	f3 ab		 rep stosd

; 305  : 	size_t l;
; 306  : 	const char *str=luaL_checklstring(L, 1, &l);

  0001e	8d 45 f8	 lea	 eax, DWORD PTR _l$[ebp]
  00021	50		 push	 eax
  00022	6a 01		 push	 1
  00024	8b 4d 08	 mov	 ecx, DWORD PTR _L$[ebp]
  00027	51		 push	 ecx
  00028	e8 00 00 00 00	 call	 _luaL_checklstring
  0002d	83 c4 0c	 add	 esp, 12			; 0000000cH
  00030	89 45 ec	 mov	 DWORD PTR _str$[ebp], eax

; 307  : 	const int color=luaL_checkint(L, 2);

  00033	6a 02		 push	 2
  00035	8b 45 08	 mov	 eax, DWORD PTR _L$[ebp]
  00038	50		 push	 eax
  00039	e8 00 00 00 00	 call	 _luaL_checkinteger
  0003e	83 c4 08	 add	 esp, 8
  00041	89 45 e0	 mov	 DWORD PTR _color$[ebp], eax

; 308  : 	StockChatBufferLine( (char *)str, color);

  00044	6a 00		 push	 0
  00046	0f b6 45 e0	 movzx	 eax, BYTE PTR _color$[ebp]
  0004a	50		 push	 eax
  0004b	8b 4d ec	 mov	 ecx, DWORD PTR _str$[ebp]
  0004e	51		 push	 ecx
  0004f	e8 00 00 00 00	 call	 ?StockChatBufferLine@@YAXPADEH@Z ; StockChatBufferLine
  00054	83 c4 0c	 add	 esp, 12			; 0000000cH

; 309  : 	return 1;

  00057	b8 01 00 00 00	 mov	 eax, 1

; 310  : }

  0005c	52		 push	 edx
  0005d	8b cd		 mov	 ecx, ebp
  0005f	50		 push	 eax
  00060	8d 15 00 00 00
	00		 lea	 edx, DWORD PTR $LN5@SaShowMess
  00066	e8 00 00 00 00	 call	 @_RTC_CheckStackVars@8
  0006b	58		 pop	 eax
  0006c	5a		 pop	 edx
  0006d	5f		 pop	 edi
  0006e	5e		 pop	 esi
  0006f	5b		 pop	 ebx
  00070	81 c4 e4 00 00
	00		 add	 esp, 228		; 000000e4H
  00076	3b ec		 cmp	 ebp, esp
  00078	e8 00 00 00 00	 call	 __RTC_CheckEsp
  0007d	8b e5		 mov	 esp, ebp
  0007f	5d		 pop	 ebp
  00080	c3		 ret	 0
  00081	0f 1f 00	 npad	 3
$LN5@SaShowMess:
  00084	01 00 00 00	 DD	 1
  00088	00 00 00 00	 DD	 $LN4@SaShowMess
$LN4@SaShowMess:
  0008c	f8 ff ff ff	 DD	 -8			; fffffff8H
  00090	04 00 00 00	 DD	 4
  00094	00 00 00 00	 DD	 $LN3@SaShowMess
$LN3@SaShowMess:
  00098	6c		 DB	 108			; 0000006cH
  00099	00		 DB	 0
?SaShowMessage@@YAHPAUlua_State@@@Z ENDP		; SaShowMessage
_TEXT	ENDS
; Function compile flags: /Odtp /RTCsu /ZI
; File c:\users\administrator\desktop\????? ??\????? ??\client source code\mylua\sa.cpp
;	COMDAT ?SaShellExecute@@YAHPAUlua_State@@@Z
_TEXT	SEGMENT
_data$ = -20						; size = 4
_l$ = -8						; size = 4
_L$ = 8							; size = 4
?SaShellExecute@@YAHPAUlua_State@@@Z PROC		; SaShellExecute, COMDAT

; 296  : {

  00000	55		 push	 ebp
  00001	8b ec		 mov	 ebp, esp
  00003	81 ec d8 00 00
	00		 sub	 esp, 216		; 000000d8H
  00009	53		 push	 ebx
  0000a	56		 push	 esi
  0000b	57		 push	 edi
  0000c	8d bd 28 ff ff
	ff		 lea	 edi, DWORD PTR [ebp-216]
  00012	b9 36 00 00 00	 mov	 ecx, 54			; 00000036H
  00017	b8 cc cc cc cc	 mov	 eax, -858993460		; ccccccccH
  0001c	f3 ab		 rep stosd

; 297  : 	size_t l;
; 298  : 	const char *data=luaL_checklstring(L, 1, &l);

  0001e	8d 45 f8	 lea	 eax, DWORD PTR _l$[ebp]
  00021	50		 push	 eax
  00022	6a 01		 push	 1
  00024	8b 4d 08	 mov	 ecx, DWORD PTR _L$[ebp]
  00027	51		 push	 ecx
  00028	e8 00 00 00 00	 call	 _luaL_checklstring
  0002d	83 c4 0c	 add	 esp, 12			; 0000000cH
  00030	89 45 ec	 mov	 DWORD PTR _data$[ebp], eax

; 299  : 	ShellExecute(NULL,"open",data,NULL,NULL,SW_SHOWNORMAL);

  00033	8b f4		 mov	 esi, esp
  00035	6a 01		 push	 1
  00037	6a 00		 push	 0
  00039	6a 00		 push	 0
  0003b	8b 45 ec	 mov	 eax, DWORD PTR _data$[ebp]
  0003e	50		 push	 eax
  0003f	68 00 00 00 00	 push	 OFFSET ??_C@_04PMOCAHAA@open?$AA@
  00044	6a 00		 push	 0
  00046	ff 15 00 00 00
	00		 call	 DWORD PTR __imp__ShellExecuteA@24
  0004c	3b f4		 cmp	 esi, esp
  0004e	e8 00 00 00 00	 call	 __RTC_CheckEsp

; 300  : 	return 1;

  00053	b8 01 00 00 00	 mov	 eax, 1

; 301  : }

  00058	52		 push	 edx
  00059	8b cd		 mov	 ecx, ebp
  0005b	50		 push	 eax
  0005c	8d 15 00 00 00
	00		 lea	 edx, DWORD PTR $LN5@SaShellExe
  00062	e8 00 00 00 00	 call	 @_RTC_CheckStackVars@8
  00067	58		 pop	 eax
  00068	5a		 pop	 edx
  00069	5f		 pop	 edi
  0006a	5e		 pop	 esi
  0006b	5b		 pop	 ebx
  0006c	81 c4 d8 00 00
	00		 add	 esp, 216		; 000000d8H
  00072	3b ec		 cmp	 ebp, esp
  00074	e8 00 00 00 00	 call	 __RTC_CheckEsp
  00079	8b e5		 mov	 esp, ebp
  0007b	5d		 pop	 ebp
  0007c	c3		 ret	 0
  0007d	0f 1f 00	 npad	 3
$LN5@SaShellExe:
  00080	01 00 00 00	 DD	 1
  00084	00 00 00 00	 DD	 $LN4@SaShellExe
$LN4@SaShellExe:
  00088	f8 ff ff ff	 DD	 -8			; fffffff8H
  0008c	04 00 00 00	 DD	 4
  00090	00 00 00 00	 DD	 $LN3@SaShellExe
$LN3@SaShellExe:
  00094	6c		 DB	 108			; 0000006cH
  00095	00		 DB	 0
?SaShellExecute@@YAHPAUlua_State@@@Z ENDP		; SaShellExecute
_TEXT	ENDS
; Function compile flags: /Odtp /RTCsu /ZI
; File c:\users\administrator\desktop\????? ??\????? ??\client source code\mylua\sa.cpp
;	COMDAT ?getTickCount@@YAHPAUlua_State@@@Z
_TEXT	SEGMENT
_L$ = 8							; size = 4
?getTickCount@@YAHPAUlua_State@@@Z PROC			; getTickCount, COMDAT

; 289  : {

  00000	55		 push	 ebp
  00001	8b ec		 mov	 ebp, esp
  00003	81 ec c0 00 00
	00		 sub	 esp, 192		; 000000c0H
  00009	53		 push	 ebx
  0000a	56		 push	 esi
  0000b	57		 push	 edi
  0000c	8d bd 40 ff ff
	ff		 lea	 edi, DWORD PTR [ebp-192]
  00012	b9 30 00 00 00	 mov	 ecx, 48			; 00000030H
  00017	b8 cc cc cc cc	 mov	 eax, -858993460		; ccccccccH
  0001c	f3 ab		 rep stosd

; 290  : 	lua_pushinteger(L, GetTickCount());

  0001e	8b f4		 mov	 esi, esp
  00020	ff 15 00 00 00
	00		 call	 DWORD PTR __imp__GetTickCount@0
  00026	3b f4		 cmp	 esi, esp
  00028	e8 00 00 00 00	 call	 __RTC_CheckEsp
  0002d	50		 push	 eax
  0002e	8b 45 08	 mov	 eax, DWORD PTR _L$[ebp]
  00031	50		 push	 eax
  00032	e8 00 00 00 00	 call	 _lua_pushinteger
  00037	83 c4 08	 add	 esp, 8

; 291  : 	
; 292  : 	return 1;

  0003a	b8 01 00 00 00	 mov	 eax, 1

; 293  : }

  0003f	5f		 pop	 edi
  00040	5e		 pop	 esi
  00041	5b		 pop	 ebx
  00042	81 c4 c0 00 00
	00		 add	 esp, 192		; 000000c0H
  00048	3b ec		 cmp	 ebp, esp
  0004a	e8 00 00 00 00	 call	 __RTC_CheckEsp
  0004f	8b e5		 mov	 esp, ebp
  00051	5d		 pop	 ebp
  00052	c3		 ret	 0
?getTickCount@@YAHPAUlua_State@@@Z ENDP			; getTickCount
_TEXT	ENDS
; Function compile flags: /Odtp /RTCsu /ZI
; File c:\users\administrator\desktop\????? ??\????? ??\client source code\mylua\sa.cpp
;	COMDAT ?SaGetKeyInputFocus@@YAHPAUlua_State@@@Z
_TEXT	SEGMENT
_L$ = 8							; size = 4
?SaGetKeyInputFocus@@YAHPAUlua_State@@@Z PROC		; SaGetKeyInputFocus, COMDAT

; 283  : {

  00000	55		 push	 ebp
  00001	8b ec		 mov	 ebp, esp
  00003	81 ec c0 00 00
	00		 sub	 esp, 192		; 000000c0H
  00009	53		 push	 ebx
  0000a	56		 push	 esi
  0000b	57		 push	 edi
  0000c	8d bd 40 ff ff
	ff		 lea	 edi, DWORD PTR [ebp-192]
  00012	b9 30 00 00 00	 mov	 ecx, 48			; 00000030H
  00017	b8 cc cc cc cc	 mov	 eax, -858993460		; ccccccccH
  0001c	f3 ab		 rep stosd

; 284  : 	GetKeyInputFocus(&MyChatBuffer);

  0001e	68 00 00 00 00	 push	 OFFSET ?MyChatBuffer@@3USTR_BUFFER@@A ; MyChatBuffer
  00023	e8 00 00 00 00	 call	 ?GetKeyInputFocus@@YAXPAUSTR_BUFFER@@@Z ; GetKeyInputFocus
  00028	83 c4 04	 add	 esp, 4

; 285  : 	return 1;

  0002b	b8 01 00 00 00	 mov	 eax, 1

; 286  : }

  00030	5f		 pop	 edi
  00031	5e		 pop	 esi
  00032	5b		 pop	 ebx
  00033	81 c4 c0 00 00
	00		 add	 esp, 192		; 000000c0H
  00039	3b ec		 cmp	 ebp, esp
  0003b	e8 00 00 00 00	 call	 __RTC_CheckEsp
  00040	8b e5		 mov	 esp, ebp
  00042	5d		 pop	 ebp
  00043	c3		 ret	 0
?SaGetKeyInputFocus@@YAHPAUlua_State@@@Z ENDP		; SaGetKeyInputFocus
_TEXT	ENDS
; Function compile flags: /Odtp /RTCsu /ZI
; File c:\users\administrator\desktop\????? ??\????? ??\client source code\mylua\sa.cpp
;	COMDAT ?SaD1AndD2@@YAHPAUlua_State@@@Z
_TEXT	SEGMENT
_d2$ = -20						; size = 4
_d1$ = -8						; size = 4
_L$ = 8							; size = 4
?SaD1AndD2@@YAHPAUlua_State@@@Z PROC			; SaD1AndD2, COMDAT

; 274  : {

  00000	55		 push	 ebp
  00001	8b ec		 mov	 ebp, esp
  00003	81 ec d8 00 00
	00		 sub	 esp, 216		; 000000d8H
  00009	53		 push	 ebx
  0000a	56		 push	 esi
  0000b	57		 push	 edi
  0000c	8d bd 28 ff ff
	ff		 lea	 edi, DWORD PTR [ebp-216]
  00012	b9 36 00 00 00	 mov	 ecx, 54			; 00000036H
  00017	b8 cc cc cc cc	 mov	 eax, -858993460		; ccccccccH
  0001c	f3 ab		 rep stosd

; 275  : 	const int d1 = luaL_checkint(L, 1);

  0001e	6a 01		 push	 1
  00020	8b 45 08	 mov	 eax, DWORD PTR _L$[ebp]
  00023	50		 push	 eax
  00024	e8 00 00 00 00	 call	 _luaL_checkinteger
  00029	83 c4 08	 add	 esp, 8
  0002c	89 45 f8	 mov	 DWORD PTR _d1$[ebp], eax

; 276  : 	const int d2 = luaL_checkint(L, 2);

  0002f	6a 02		 push	 2
  00031	8b 45 08	 mov	 eax, DWORD PTR _L$[ebp]
  00034	50		 push	 eax
  00035	e8 00 00 00 00	 call	 _luaL_checkinteger
  0003a	83 c4 08	 add	 esp, 8
  0003d	89 45 ec	 mov	 DWORD PTR _d2$[ebp], eax

; 277  : 
; 278  : 	lua_pushinteger(L, d1 & d2);

  00040	8b 45 f8	 mov	 eax, DWORD PTR _d1$[ebp]
  00043	23 45 ec	 and	 eax, DWORD PTR _d2$[ebp]
  00046	50		 push	 eax
  00047	8b 4d 08	 mov	 ecx, DWORD PTR _L$[ebp]
  0004a	51		 push	 ecx
  0004b	e8 00 00 00 00	 call	 _lua_pushinteger
  00050	83 c4 08	 add	 esp, 8

; 279  : 	return 1;

  00053	b8 01 00 00 00	 mov	 eax, 1

; 280  : }

  00058	5f		 pop	 edi
  00059	5e		 pop	 esi
  0005a	5b		 pop	 ebx
  0005b	81 c4 d8 00 00
	00		 add	 esp, 216		; 000000d8H
  00061	3b ec		 cmp	 ebp, esp
  00063	e8 00 00 00 00	 call	 __RTC_CheckEsp
  00068	8b e5		 mov	 esp, ebp
  0006a	5d		 pop	 ebp
  0006b	c3		 ret	 0
?SaD1AndD2@@YAHPAUlua_State@@@Z ENDP			; SaD1AndD2
_TEXT	ENDS
; Function compile flags: /Odtp /RTCsu /ZI
; File c:\users\administrator\desktop\????? ??\????? ??\client source code\mylua\sa.cpp
;	COMDAT ?SaRightShift@@YAHPAUlua_State@@@Z
_TEXT	SEGMENT
_id$ = -20						; size = 4
_mask$ = -8						; size = 4
_L$ = 8							; size = 4
?SaRightShift@@YAHPAUlua_State@@@Z PROC			; SaRightShift, COMDAT

; 265  : {

  00000	55		 push	 ebp
  00001	8b ec		 mov	 ebp, esp
  00003	81 ec d8 00 00
	00		 sub	 esp, 216		; 000000d8H
  00009	53		 push	 ebx
  0000a	56		 push	 esi
  0000b	57		 push	 edi
  0000c	8d bd 28 ff ff
	ff		 lea	 edi, DWORD PTR [ebp-216]
  00012	b9 36 00 00 00	 mov	 ecx, 54			; 00000036H
  00017	b8 cc cc cc cc	 mov	 eax, -858993460		; ccccccccH
  0001c	f3 ab		 rep stosd

; 266  : 	int mask = (int)luaL_checkint(L, 1);

  0001e	6a 01		 push	 1
  00020	8b 45 08	 mov	 eax, DWORD PTR _L$[ebp]
  00023	50		 push	 eax
  00024	e8 00 00 00 00	 call	 _luaL_checkinteger
  00029	83 c4 08	 add	 esp, 8
  0002c	89 45 f8	 mov	 DWORD PTR _mask$[ebp], eax

; 267  : 	const int id = luaL_checkint(L, 2);

  0002f	6a 02		 push	 2
  00031	8b 45 08	 mov	 eax, DWORD PTR _L$[ebp]
  00034	50		 push	 eax
  00035	e8 00 00 00 00	 call	 _luaL_checkinteger
  0003a	83 c4 08	 add	 esp, 8
  0003d	89 45 ec	 mov	 DWORD PTR _id$[ebp], eax

; 268  : 
; 269  : 	lua_pushinteger(L, mask >>= id);

  00040	8b 45 f8	 mov	 eax, DWORD PTR _mask$[ebp]
  00043	8b 4d ec	 mov	 ecx, DWORD PTR _id$[ebp]
  00046	d3 f8		 sar	 eax, cl
  00048	89 45 f8	 mov	 DWORD PTR _mask$[ebp], eax
  0004b	8b 4d f8	 mov	 ecx, DWORD PTR _mask$[ebp]
  0004e	51		 push	 ecx
  0004f	8b 55 08	 mov	 edx, DWORD PTR _L$[ebp]
  00052	52		 push	 edx
  00053	e8 00 00 00 00	 call	 _lua_pushinteger
  00058	83 c4 08	 add	 esp, 8

; 270  : 	return 1;

  0005b	b8 01 00 00 00	 mov	 eax, 1

; 271  : }

  00060	5f		 pop	 edi
  00061	5e		 pop	 esi
  00062	5b		 pop	 ebx
  00063	81 c4 d8 00 00
	00		 add	 esp, 216		; 000000d8H
  00069	3b ec		 cmp	 ebp, esp
  0006b	e8 00 00 00 00	 call	 __RTC_CheckEsp
  00070	8b e5		 mov	 esp, ebp
  00072	5d		 pop	 ebp
  00073	c3		 ret	 0
?SaRightShift@@YAHPAUlua_State@@@Z ENDP			; SaRightShift
_TEXT	ENDS
; Function compile flags: /Odtp /RTCsu /ZI
; File c:\users\administrator\desktop\????? ??\????? ??\client source code\mylua\sa.cpp
;	COMDAT ?SaLeftShift@@YAHPAUlua_State@@@Z
_TEXT	SEGMENT
_id$ = -20						; size = 4
_mask$ = -8						; size = 4
_L$ = 8							; size = 4
?SaLeftShift@@YAHPAUlua_State@@@Z PROC			; SaLeftShift, COMDAT

; 256  : {

  00000	55		 push	 ebp
  00001	8b ec		 mov	 ebp, esp
  00003	81 ec d8 00 00
	00		 sub	 esp, 216		; 000000d8H
  00009	53		 push	 ebx
  0000a	56		 push	 esi
  0000b	57		 push	 edi
  0000c	8d bd 28 ff ff
	ff		 lea	 edi, DWORD PTR [ebp-216]
  00012	b9 36 00 00 00	 mov	 ecx, 54			; 00000036H
  00017	b8 cc cc cc cc	 mov	 eax, -858993460		; ccccccccH
  0001c	f3 ab		 rep stosd

; 257  : 	int mask = (int)luaL_checkint(L, 1);

  0001e	6a 01		 push	 1
  00020	8b 45 08	 mov	 eax, DWORD PTR _L$[ebp]
  00023	50		 push	 eax
  00024	e8 00 00 00 00	 call	 _luaL_checkinteger
  00029	83 c4 08	 add	 esp, 8
  0002c	89 45 f8	 mov	 DWORD PTR _mask$[ebp], eax

; 258  : 	const int id = luaL_checkint(L, 2);

  0002f	6a 02		 push	 2
  00031	8b 45 08	 mov	 eax, DWORD PTR _L$[ebp]
  00034	50		 push	 eax
  00035	e8 00 00 00 00	 call	 _luaL_checkinteger
  0003a	83 c4 08	 add	 esp, 8
  0003d	89 45 ec	 mov	 DWORD PTR _id$[ebp], eax

; 259  : 
; 260  : 	lua_pushinteger(L, mask <<= id);

  00040	8b 45 f8	 mov	 eax, DWORD PTR _mask$[ebp]
  00043	8b 4d ec	 mov	 ecx, DWORD PTR _id$[ebp]
  00046	d3 e0		 shl	 eax, cl
  00048	89 45 f8	 mov	 DWORD PTR _mask$[ebp], eax
  0004b	8b 4d f8	 mov	 ecx, DWORD PTR _mask$[ebp]
  0004e	51		 push	 ecx
  0004f	8b 55 08	 mov	 edx, DWORD PTR _L$[ebp]
  00052	52		 push	 edx
  00053	e8 00 00 00 00	 call	 _lua_pushinteger
  00058	83 c4 08	 add	 esp, 8

; 261  : 	return 1;

  0005b	b8 01 00 00 00	 mov	 eax, 1

; 262  : }

  00060	5f		 pop	 edi
  00061	5e		 pop	 esi
  00062	5b		 pop	 ebx
  00063	81 c4 d8 00 00
	00		 add	 esp, 216		; 000000d8H
  00069	3b ec		 cmp	 ebp, esp
  0006b	e8 00 00 00 00	 call	 __RTC_CheckEsp
  00070	8b e5		 mov	 esp, ebp
  00072	5d		 pop	 ebp
  00073	c3		 ret	 0
?SaLeftShift@@YAHPAUlua_State@@@Z ENDP			; SaLeftShift
_TEXT	ENDS
; Function compile flags: /Odtp /RTCsu /ZI
; File c:\users\administrator\desktop\????? ??\????? ??\client source code\mylua\sa.cpp
;	COMDAT ?SaPlaySe@@YAHPAUlua_State@@@Z
_TEXT	SEGMENT
_y$ = -32						; size = 4
_x$ = -20						; size = 4
_tone$ = -8						; size = 4
_L$ = 8							; size = 4
?SaPlaySe@@YAHPAUlua_State@@@Z PROC			; SaPlaySe, COMDAT

; 246  : {

  00000	55		 push	 ebp
  00001	8b ec		 mov	 ebp, esp
  00003	81 ec e4 00 00
	00		 sub	 esp, 228		; 000000e4H
  00009	53		 push	 ebx
  0000a	56		 push	 esi
  0000b	57		 push	 edi
  0000c	8d bd 1c ff ff
	ff		 lea	 edi, DWORD PTR [ebp-228]
  00012	b9 39 00 00 00	 mov	 ecx, 57			; 00000039H
  00017	b8 cc cc cc cc	 mov	 eax, -858993460		; ccccccccH
  0001c	f3 ab		 rep stosd

; 247  : 	const int tone = luaL_checkint(L, 1);

  0001e	6a 01		 push	 1
  00020	8b 45 08	 mov	 eax, DWORD PTR _L$[ebp]
  00023	50		 push	 eax
  00024	e8 00 00 00 00	 call	 _luaL_checkinteger
  00029	83 c4 08	 add	 esp, 8
  0002c	89 45 f8	 mov	 DWORD PTR _tone$[ebp], eax

; 248  : 	const int x = luaL_checkint(L, 2);

  0002f	6a 02		 push	 2
  00031	8b 45 08	 mov	 eax, DWORD PTR _L$[ebp]
  00034	50		 push	 eax
  00035	e8 00 00 00 00	 call	 _luaL_checkinteger
  0003a	83 c4 08	 add	 esp, 8
  0003d	89 45 ec	 mov	 DWORD PTR _x$[ebp], eax

; 249  : 	const int y = luaL_checkint(L, 3);

  00040	6a 03		 push	 3
  00042	8b 45 08	 mov	 eax, DWORD PTR _L$[ebp]
  00045	50		 push	 eax
  00046	e8 00 00 00 00	 call	 _luaL_checkinteger
  0004b	83 c4 08	 add	 esp, 8
  0004e	89 45 e0	 mov	 DWORD PTR _y$[ebp], eax

; 250  : 	extern int play_se(int tone, int x, int y);
; 251  : 	play_se(tone, x, y);

  00051	8b 45 e0	 mov	 eax, DWORD PTR _y$[ebp]
  00054	50		 push	 eax
  00055	8b 4d ec	 mov	 ecx, DWORD PTR _x$[ebp]
  00058	51		 push	 ecx
  00059	8b 55 f8	 mov	 edx, DWORD PTR _tone$[ebp]
  0005c	52		 push	 edx
  0005d	e8 00 00 00 00	 call	 ?play_se@@YAHHHH@Z	; play_se
  00062	83 c4 0c	 add	 esp, 12			; 0000000cH

; 252  : 	return 1;

  00065	b8 01 00 00 00	 mov	 eax, 1

; 253  : }

  0006a	5f		 pop	 edi
  0006b	5e		 pop	 esi
  0006c	5b		 pop	 ebx
  0006d	81 c4 e4 00 00
	00		 add	 esp, 228		; 000000e4H
  00073	3b ec		 cmp	 ebp, esp
  00075	e8 00 00 00 00	 call	 __RTC_CheckEsp
  0007a	8b e5		 mov	 esp, ebp
  0007c	5d		 pop	 ebp
  0007d	c3		 ret	 0
?SaPlaySe@@YAHPAUlua_State@@@Z ENDP			; SaPlaySe
_TEXT	ENDS
; Function compile flags: /Odtp /RTCsu /ZI
; File c:\users\administrator\desktop\????? ??\????? ??\client source code\mylua\sa.cpp
;	COMDAT ?SaStockBoxDispBuffer@@YAHPAUlua_State@@@Z
_TEXT	SEGMENT
$T1 = -317						; size = 1
_y$ = -116						; size = 4
_x$ = -104						; size = 4
_col$ = -92						; size = 4
_fill$ = -80						; size = 4
_color$ = -68						; size = 4
_dispPrio$ = -56					; size = 4
_y2$ = -44						; size = 4
_x2$ = -32						; size = 4
_y1$ = -20						; size = 4
_x1$ = -8						; size = 4
_L$ = 8							; size = 4
?SaStockBoxDispBuffer@@YAHPAUlua_State@@@Z PROC		; SaStockBoxDispBuffer, COMDAT

; 219  : {

  00000	55		 push	 ebp
  00001	8b ec		 mov	 ebp, esp
  00003	81 ec 44 01 00
	00		 sub	 esp, 324		; 00000144H
  00009	53		 push	 ebx
  0000a	56		 push	 esi
  0000b	57		 push	 edi
  0000c	8d bd bc fe ff
	ff		 lea	 edi, DWORD PTR [ebp-324]
  00012	b9 51 00 00 00	 mov	 ecx, 81			; 00000051H
  00017	b8 cc cc cc cc	 mov	 eax, -858993460		; ccccccccH
  0001c	f3 ab		 rep stosd
  0001e	c6 85 c3 fe ff
	ff 00		 mov	 BYTE PTR $T1[ebp], 0

; 220  : #define STOCK_DISP_BUFFER_NO_BMP	( 1 << 31 ) 	// ???????
; 221  : #define STOCK_DISP_BUFFER_LINE		( 1 << 30 ) 	// ???
; 222  : #define STOCK_DISP_BUFFER_BOX		( 1 << 29 ) 	// ????
; 223  : #define STOCK_DISP_BUFFER_BOX_FILL	( 1 << 28 )		// ????¥D????
; 224  : #define STOCK_DISP_BUFFER_CIRCLE	( 1 << 27 ) 	// ?
; 225  : 	const int x1 = luaL_checkint(L, 1);

  00025	6a 01		 push	 1
  00027	8b 45 08	 mov	 eax, DWORD PTR _L$[ebp]
  0002a	50		 push	 eax
  0002b	e8 00 00 00 00	 call	 _luaL_checkinteger
  00030	83 c4 08	 add	 esp, 8
  00033	89 45 f8	 mov	 DWORD PTR _x1$[ebp], eax

; 226  : 	const int y1 = luaL_checkint(L, 2);

  00036	6a 02		 push	 2
  00038	8b 45 08	 mov	 eax, DWORD PTR _L$[ebp]
  0003b	50		 push	 eax
  0003c	e8 00 00 00 00	 call	 _luaL_checkinteger
  00041	83 c4 08	 add	 esp, 8
  00044	89 45 ec	 mov	 DWORD PTR _y1$[ebp], eax

; 227  : 	const int x2 = luaL_checkint(L, 3);

  00047	6a 03		 push	 3
  00049	8b 45 08	 mov	 eax, DWORD PTR _L$[ebp]
  0004c	50		 push	 eax
  0004d	e8 00 00 00 00	 call	 _luaL_checkinteger
  00052	83 c4 08	 add	 esp, 8
  00055	89 45 e0	 mov	 DWORD PTR _x2$[ebp], eax

; 228  : 	const int y2 = luaL_checkint(L, 4);

  00058	6a 04		 push	 4
  0005a	8b 45 08	 mov	 eax, DWORD PTR _L$[ebp]
  0005d	50		 push	 eax
  0005e	e8 00 00 00 00	 call	 _luaL_checkinteger
  00063	83 c4 08	 add	 esp, 8
  00066	89 45 d4	 mov	 DWORD PTR _y2$[ebp], eax

; 229  : 	const int dispPrio = luaL_checkint(L, 5);

  00069	6a 05		 push	 5
  0006b	8b 45 08	 mov	 eax, DWORD PTR _L$[ebp]
  0006e	50		 push	 eax
  0006f	e8 00 00 00 00	 call	 _luaL_checkinteger
  00074	83 c4 08	 add	 esp, 8
  00077	89 45 c8	 mov	 DWORD PTR _dispPrio$[ebp], eax

; 230  : 	const int color = luaL_checkint(L, 6);

  0007a	6a 06		 push	 6
  0007c	8b 45 08	 mov	 eax, DWORD PTR _L$[ebp]
  0007f	50		 push	 eax
  00080	e8 00 00 00 00	 call	 _luaL_checkinteger
  00085	83 c4 08	 add	 esp, 8
  00088	89 45 bc	 mov	 DWORD PTR _color$[ebp], eax

; 231  : 	const int fill = luaL_checkint(L, 7);

  0008b	6a 07		 push	 7
  0008d	8b 45 08	 mov	 eax, DWORD PTR _L$[ebp]
  00090	50		 push	 eax
  00091	e8 00 00 00 00	 call	 _luaL_checkinteger
  00096	83 c4 08	 add	 esp, 8
  00099	89 45 b0	 mov	 DWORD PTR _fill$[ebp], eax

; 232  : 	
; 233  : 	int col;
; 234  : 	int x = ( x1 << 16 ) | x2;

  0009c	8b 45 f8	 mov	 eax, DWORD PTR _x1$[ebp]
  0009f	c1 e0 10	 shl	 eax, 16			; 00000010H
  000a2	0b 45 e0	 or	 eax, DWORD PTR _x2$[ebp]
  000a5	89 45 98	 mov	 DWORD PTR _x$[ebp], eax

; 235  : 	int y = ( y1 << 16 ) | y2;

  000a8	8b 45 ec	 mov	 eax, DWORD PTR _y1$[ebp]
  000ab	c1 e0 10	 shl	 eax, 16			; 00000010H
  000ae	0b 45 d4	 or	 eax, DWORD PTR _y2$[ebp]
  000b1	89 45 8c	 mov	 DWORD PTR _y$[ebp], eax

; 236  : 
; 237  : 	if( fill == 0 ) col = color | STOCK_DISP_BUFFER_BOX | STOCK_DISP_BUFFER_NO_BMP ;

  000b4	83 7d b0 00	 cmp	 DWORD PTR _fill$[ebp], 0
  000b8	75 19		 jne	 SHORT $LN2@SaStockBox
  000ba	8b 45 bc	 mov	 eax, DWORD PTR _color$[ebp]
  000bd	0d 00 00 00 20	 or	 eax, 536870912		; 20000000H
  000c2	0d 00 00 00 80	 or	 eax, -2147483648	; 80000000H
  000c7	c6 85 c3 fe ff
	ff 01		 mov	 BYTE PTR $T1[ebp], 1
  000ce	89 45 a4	 mov	 DWORD PTR _col$[ebp], eax
  000d1	eb 3c		 jmp	 SHORT $LN3@SaStockBox
$LN2@SaStockBox:

; 238  : 	else if( fill == 1 ) col = color | STOCK_DISP_BUFFER_BOX_FILL | STOCK_DISP_BUFFER_NO_BMP ;

  000d3	83 7d b0 01	 cmp	 DWORD PTR _fill$[ebp], 1
  000d7	75 19		 jne	 SHORT $LN4@SaStockBox
  000d9	8b 45 bc	 mov	 eax, DWORD PTR _color$[ebp]
  000dc	0d 00 00 00 10	 or	 eax, 268435456		; 10000000H
  000e1	0d 00 00 00 80	 or	 eax, -2147483648	; 80000000H
  000e6	c6 85 c3 fe ff
	ff 01		 mov	 BYTE PTR $T1[ebp], 1
  000ed	89 45 a4	 mov	 DWORD PTR _col$[ebp], eax
  000f0	eb 1d		 jmp	 SHORT $LN3@SaStockBox
$LN4@SaStockBox:

; 239  : 	else if( fill == 2 ) col = color | STOCK_DISP_BUFFER_LINE | STOCK_DISP_BUFFER_NO_BMP ;

  000f2	83 7d b0 02	 cmp	 DWORD PTR _fill$[ebp], 2
  000f6	75 17		 jne	 SHORT $LN3@SaStockBox
  000f8	8b 45 bc	 mov	 eax, DWORD PTR _color$[ebp]
  000fb	0d 00 00 00 40	 or	 eax, 1073741824		; 40000000H
  00100	0d 00 00 00 80	 or	 eax, -2147483648	; 80000000H
  00105	c6 85 c3 fe ff
	ff 01		 mov	 BYTE PTR $T1[ebp], 1
  0010c	89 45 a4	 mov	 DWORD PTR _col$[ebp], eax
$LN3@SaStockBox:

; 240  : 
; 241  : 	StockDispBuffer( x, y, dispPrio, col, 0 );

  0010f	80 bd c3 fe ff
	ff 00		 cmp	 BYTE PTR $T1[ebp], 0
  00116	75 0d		 jne	 SHORT $LN8@SaStockBox
  00118	68 00 00 00 00	 push	 OFFSET $LN9@SaStockBox
  0011d	e8 00 00 00 00	 call	 __RTC_UninitUse
  00122	83 c4 04	 add	 esp, 4
$LN8@SaStockBox:
  00125	6a 00		 push	 0
  00127	8b 45 a4	 mov	 eax, DWORD PTR _col$[ebp]
  0012a	50		 push	 eax
  0012b	0f b6 4d c8	 movzx	 ecx, BYTE PTR _dispPrio$[ebp]
  0012f	51		 push	 ecx
  00130	8b 55 8c	 mov	 edx, DWORD PTR _y$[ebp]
  00133	52		 push	 edx
  00134	8b 45 98	 mov	 eax, DWORD PTR _x$[ebp]
  00137	50		 push	 eax
  00138	e8 00 00 00 00	 call	 ?StockDispBuffer@@YAHHHEHH@Z ; StockDispBuffer
  0013d	83 c4 14	 add	 esp, 20			; 00000014H

; 242  : 	return 1;

  00140	b8 01 00 00 00	 mov	 eax, 1

; 243  : }

  00145	5f		 pop	 edi
  00146	5e		 pop	 esi
  00147	5b		 pop	 ebx
  00148	81 c4 44 01 00
	00		 add	 esp, 324		; 00000144H
  0014e	3b ec		 cmp	 ebp, esp
  00150	e8 00 00 00 00	 call	 __RTC_CheckEsp
  00155	8b e5		 mov	 esp, ebp
  00157	5d		 pop	 ebp
  00158	c3		 ret	 0
$LN10@SaStockBox:
$LN9@SaStockBox:
  00159	63		 DB	 99			; 00000063H
  0015a	6f		 DB	 111			; 0000006fH
  0015b	6c		 DB	 108			; 0000006cH
  0015c	00		 DB	 0
?SaStockBoxDispBuffer@@YAHPAUlua_State@@@Z ENDP		; SaStockBoxDispBuffer
_TEXT	ENDS
; Function compile flags: /Odtp /RTCsu /ZI
; File c:\users\administrator\desktop\????? ??\????? ??\client source code\mylua\sa.cpp
;	COMDAT ?SaStockDispBuffer@@YAHPAUlua_State@@@Z
_TEXT	SEGMENT
_hitFlag$ = -56						; size = 4
_bmpNo$ = -44						; size = 4
_dispPrio$ = -32					; size = 4
_y$ = -20						; size = 4
_x$ = -8						; size = 4
_L$ = 8							; size = 4
?SaStockDispBuffer@@YAHPAUlua_State@@@Z PROC		; SaStockDispBuffer, COMDAT

; 208  : {

  00000	55		 push	 ebp
  00001	8b ec		 mov	 ebp, esp
  00003	81 ec fc 00 00
	00		 sub	 esp, 252		; 000000fcH
  00009	53		 push	 ebx
  0000a	56		 push	 esi
  0000b	57		 push	 edi
  0000c	8d bd 04 ff ff
	ff		 lea	 edi, DWORD PTR [ebp-252]
  00012	b9 3f 00 00 00	 mov	 ecx, 63			; 0000003fH
  00017	b8 cc cc cc cc	 mov	 eax, -858993460		; ccccccccH
  0001c	f3 ab		 rep stosd

; 209  : 	const int x = luaL_checkint(L, 1);

  0001e	6a 01		 push	 1
  00020	8b 45 08	 mov	 eax, DWORD PTR _L$[ebp]
  00023	50		 push	 eax
  00024	e8 00 00 00 00	 call	 _luaL_checkinteger
  00029	83 c4 08	 add	 esp, 8
  0002c	89 45 f8	 mov	 DWORD PTR _x$[ebp], eax

; 210  : 	const int y = luaL_checkint(L, 2);

  0002f	6a 02		 push	 2
  00031	8b 45 08	 mov	 eax, DWORD PTR _L$[ebp]
  00034	50		 push	 eax
  00035	e8 00 00 00 00	 call	 _luaL_checkinteger
  0003a	83 c4 08	 add	 esp, 8
  0003d	89 45 ec	 mov	 DWORD PTR _y$[ebp], eax

; 211  : 	const int dispPrio = luaL_checkint(L, 3);

  00040	6a 03		 push	 3
  00042	8b 45 08	 mov	 eax, DWORD PTR _L$[ebp]
  00045	50		 push	 eax
  00046	e8 00 00 00 00	 call	 _luaL_checkinteger
  0004b	83 c4 08	 add	 esp, 8
  0004e	89 45 e0	 mov	 DWORD PTR _dispPrio$[ebp], eax

; 212  : 	const int bmpNo = luaL_checkint(L, 4);

  00051	6a 04		 push	 4
  00053	8b 45 08	 mov	 eax, DWORD PTR _L$[ebp]
  00056	50		 push	 eax
  00057	e8 00 00 00 00	 call	 _luaL_checkinteger
  0005c	83 c4 08	 add	 esp, 8
  0005f	89 45 d4	 mov	 DWORD PTR _bmpNo$[ebp], eax

; 213  : 	const int hitFlag = luaL_checkint(L, 5);

  00062	6a 05		 push	 5
  00064	8b 45 08	 mov	 eax, DWORD PTR _L$[ebp]
  00067	50		 push	 eax
  00068	e8 00 00 00 00	 call	 _luaL_checkinteger
  0006d	83 c4 08	 add	 esp, 8
  00070	89 45 c8	 mov	 DWORD PTR _hitFlag$[ebp], eax

; 214  : 	lua_pushinteger(L, (int)StockDispBuffer(x,y,dispPrio,bmpNo, hitFlag));

  00073	8b 45 c8	 mov	 eax, DWORD PTR _hitFlag$[ebp]
  00076	50		 push	 eax
  00077	8b 4d d4	 mov	 ecx, DWORD PTR _bmpNo$[ebp]
  0007a	51		 push	 ecx
  0007b	0f b6 55 e0	 movzx	 edx, BYTE PTR _dispPrio$[ebp]
  0007f	52		 push	 edx
  00080	8b 45 ec	 mov	 eax, DWORD PTR _y$[ebp]
  00083	50		 push	 eax
  00084	8b 4d f8	 mov	 ecx, DWORD PTR _x$[ebp]
  00087	51		 push	 ecx
  00088	e8 00 00 00 00	 call	 ?StockDispBuffer@@YAHHHEHH@Z ; StockDispBuffer
  0008d	83 c4 14	 add	 esp, 20			; 00000014H
  00090	50		 push	 eax
  00091	8b 55 08	 mov	 edx, DWORD PTR _L$[ebp]
  00094	52		 push	 edx
  00095	e8 00 00 00 00	 call	 _lua_pushinteger
  0009a	83 c4 08	 add	 esp, 8

; 215  : 	return 1;

  0009d	b8 01 00 00 00	 mov	 eax, 1

; 216  : }

  000a2	5f		 pop	 edi
  000a3	5e		 pop	 esi
  000a4	5b		 pop	 ebx
  000a5	81 c4 fc 00 00
	00		 add	 esp, 252		; 000000fcH
  000ab	3b ec		 cmp	 ebp, esp
  000ad	e8 00 00 00 00	 call	 __RTC_CheckEsp
  000b2	8b e5		 mov	 esp, ebp
  000b4	5d		 pop	 ebp
  000b5	c3		 ret	 0
?SaStockDispBuffer@@YAHPAUlua_State@@@Z ENDP		; SaStockDispBuffer
_TEXT	ENDS
; Function compile flags: /Odtp /RTCsu /ZI
; File c:\users\administrator\desktop\????? ??\????? ??\client source code\mylua\sa.cpp
;	COMDAT ?SaMakeAnimDisp@@YAHPAUlua_State@@@Z
_TEXT	SEGMENT
_mode$ = -44						; size = 4
_sprNo$ = -32						; size = 4
_y$ = -20						; size = 4
_x$ = -8						; size = 4
_L$ = 8							; size = 4
?SaMakeAnimDisp@@YAHPAUlua_State@@@Z PROC		; SaMakeAnimDisp, COMDAT

; 198  : {

  00000	55		 push	 ebp
  00001	8b ec		 mov	 ebp, esp
  00003	81 ec f0 00 00
	00		 sub	 esp, 240		; 000000f0H
  00009	53		 push	 ebx
  0000a	56		 push	 esi
  0000b	57		 push	 edi
  0000c	8d bd 10 ff ff
	ff		 lea	 edi, DWORD PTR [ebp-240]
  00012	b9 3c 00 00 00	 mov	 ecx, 60			; 0000003cH
  00017	b8 cc cc cc cc	 mov	 eax, -858993460		; ccccccccH
  0001c	f3 ab		 rep stosd

; 199  : 	const int x = luaL_checkint(L, 1);

  0001e	6a 01		 push	 1
  00020	8b 45 08	 mov	 eax, DWORD PTR _L$[ebp]
  00023	50		 push	 eax
  00024	e8 00 00 00 00	 call	 _luaL_checkinteger
  00029	83 c4 08	 add	 esp, 8
  0002c	89 45 f8	 mov	 DWORD PTR _x$[ebp], eax

; 200  : 	const int y = luaL_checkint(L, 2);

  0002f	6a 02		 push	 2
  00031	8b 45 08	 mov	 eax, DWORD PTR _L$[ebp]
  00034	50		 push	 eax
  00035	e8 00 00 00 00	 call	 _luaL_checkinteger
  0003a	83 c4 08	 add	 esp, 8
  0003d	89 45 ec	 mov	 DWORD PTR _y$[ebp], eax

; 201  : 	const int sprNo = luaL_checkint(L, 3);

  00040	6a 03		 push	 3
  00042	8b 45 08	 mov	 eax, DWORD PTR _L$[ebp]
  00045	50		 push	 eax
  00046	e8 00 00 00 00	 call	 _luaL_checkinteger
  0004b	83 c4 08	 add	 esp, 8
  0004e	89 45 e0	 mov	 DWORD PTR _sprNo$[ebp], eax

; 202  : 	const int mode = luaL_checkint(L, 4);

  00051	6a 04		 push	 4
  00053	8b 45 08	 mov	 eax, DWORD PTR _L$[ebp]
  00056	50		 push	 eax
  00057	e8 00 00 00 00	 call	 _luaL_checkinteger
  0005c	83 c4 08	 add	 esp, 8
  0005f	89 45 d4	 mov	 DWORD PTR _mode$[ebp], eax

; 203  : 	lua_pushinteger(L, (int)MakeAnimDisp(x,y,sprNo,mode));

  00062	8b 45 d4	 mov	 eax, DWORD PTR _mode$[ebp]
  00065	50		 push	 eax
  00066	8b 4d e0	 mov	 ecx, DWORD PTR _sprNo$[ebp]
  00069	51		 push	 ecx
  0006a	8b 55 ec	 mov	 edx, DWORD PTR _y$[ebp]
  0006d	52		 push	 edx
  0006e	8b 45 f8	 mov	 eax, DWORD PTR _x$[ebp]
  00071	50		 push	 eax
  00072	e8 00 00 00 00	 call	 ?MakeAnimDisp@@YAPAUaction@@HHHH@Z ; MakeAnimDisp
  00077	83 c4 10	 add	 esp, 16			; 00000010H
  0007a	50		 push	 eax
  0007b	8b 4d 08	 mov	 ecx, DWORD PTR _L$[ebp]
  0007e	51		 push	 ecx
  0007f	e8 00 00 00 00	 call	 _lua_pushinteger
  00084	83 c4 08	 add	 esp, 8

; 204  : 	return 1;

  00087	b8 01 00 00 00	 mov	 eax, 1

; 205  : }

  0008c	5f		 pop	 edi
  0008d	5e		 pop	 esi
  0008e	5b		 pop	 ebx
  0008f	81 c4 f0 00 00
	00		 add	 esp, 240		; 000000f0H
  00095	3b ec		 cmp	 ebp, esp
  00097	e8 00 00 00 00	 call	 __RTC_CheckEsp
  0009c	8b e5		 mov	 esp, ebp
  0009e	5d		 pop	 ebp
  0009f	c3		 ret	 0
?SaMakeAnimDisp@@YAHPAUlua_State@@@Z ENDP		; SaMakeAnimDisp
_TEXT	ENDS
; Function compile flags: /Odtp /RTCsu /ZI
; File c:\users\administrator\desktop\????? ??\????? ??\client source code\mylua\sa.cpp
;	COMDAT ?SaMakeWindowDisp@@YAHPAUlua_State@@@Z
_TEXT	SEGMENT
_wndType$ = -68						; size = 4
_titleNo$ = -56						; size = 4
_sizeY$ = -44						; size = 4
_sizeX$ = -32						; size = 4
_y$ = -20						; size = 4
_x$ = -8						; size = 4
_L$ = 8							; size = 4
?SaMakeWindowDisp@@YAHPAUlua_State@@@Z PROC		; SaMakeWindowDisp, COMDAT

; 185  : {

  00000	55		 push	 ebp
  00001	8b ec		 mov	 ebp, esp
  00003	81 ec 08 01 00
	00		 sub	 esp, 264		; 00000108H
  00009	53		 push	 ebx
  0000a	56		 push	 esi
  0000b	57		 push	 edi
  0000c	8d bd f8 fe ff
	ff		 lea	 edi, DWORD PTR [ebp-264]
  00012	b9 42 00 00 00	 mov	 ecx, 66			; 00000042H
  00017	b8 cc cc cc cc	 mov	 eax, -858993460		; ccccccccH
  0001c	f3 ab		 rep stosd

; 186  : 	const int x = luaL_checkint(L, 1);

  0001e	6a 01		 push	 1
  00020	8b 45 08	 mov	 eax, DWORD PTR _L$[ebp]
  00023	50		 push	 eax
  00024	e8 00 00 00 00	 call	 _luaL_checkinteger
  00029	83 c4 08	 add	 esp, 8
  0002c	89 45 f8	 mov	 DWORD PTR _x$[ebp], eax

; 187  : 	const int y = luaL_checkint(L, 2);

  0002f	6a 02		 push	 2
  00031	8b 45 08	 mov	 eax, DWORD PTR _L$[ebp]
  00034	50		 push	 eax
  00035	e8 00 00 00 00	 call	 _luaL_checkinteger
  0003a	83 c4 08	 add	 esp, 8
  0003d	89 45 ec	 mov	 DWORD PTR _y$[ebp], eax

; 188  : 	const int sizeX = luaL_checkint(L, 3);

  00040	6a 03		 push	 3
  00042	8b 45 08	 mov	 eax, DWORD PTR _L$[ebp]
  00045	50		 push	 eax
  00046	e8 00 00 00 00	 call	 _luaL_checkinteger
  0004b	83 c4 08	 add	 esp, 8
  0004e	89 45 e0	 mov	 DWORD PTR _sizeX$[ebp], eax

; 189  : 	const int sizeY = luaL_checkint(L, 4);

  00051	6a 04		 push	 4
  00053	8b 45 08	 mov	 eax, DWORD PTR _L$[ebp]
  00056	50		 push	 eax
  00057	e8 00 00 00 00	 call	 _luaL_checkinteger
  0005c	83 c4 08	 add	 esp, 8
  0005f	89 45 d4	 mov	 DWORD PTR _sizeY$[ebp], eax

; 190  : 	const int titleNo = luaL_checkint(L, 5);

  00062	6a 05		 push	 5
  00064	8b 45 08	 mov	 eax, DWORD PTR _L$[ebp]
  00067	50		 push	 eax
  00068	e8 00 00 00 00	 call	 _luaL_checkinteger
  0006d	83 c4 08	 add	 esp, 8
  00070	89 45 c8	 mov	 DWORD PTR _titleNo$[ebp], eax

; 191  : 	const int wndType = luaL_checkint(L, 6);

  00073	6a 06		 push	 6
  00075	8b 45 08	 mov	 eax, DWORD PTR _L$[ebp]
  00078	50		 push	 eax
  00079	e8 00 00 00 00	 call	 _luaL_checkinteger
  0007e	83 c4 08	 add	 esp, 8
  00081	89 45 bc	 mov	 DWORD PTR _wndType$[ebp], eax

; 192  : 	lua_pushinteger(L, (int)MakeWindowDisp(x,y,sizeX,sizeY,titleNo,wndType));

  00084	8b 45 bc	 mov	 eax, DWORD PTR _wndType$[ebp]
  00087	50		 push	 eax
  00088	8b 4d c8	 mov	 ecx, DWORD PTR _titleNo$[ebp]
  0008b	51		 push	 ecx
  0008c	8b 55 d4	 mov	 edx, DWORD PTR _sizeY$[ebp]
  0008f	52		 push	 edx
  00090	8b 45 e0	 mov	 eax, DWORD PTR _sizeX$[ebp]
  00093	50		 push	 eax
  00094	8b 4d ec	 mov	 ecx, DWORD PTR _y$[ebp]
  00097	51		 push	 ecx
  00098	8b 55 f8	 mov	 edx, DWORD PTR _x$[ebp]
  0009b	52		 push	 edx
  0009c	e8 00 00 00 00	 call	 ?MakeWindowDisp@@YAPAUaction@@HHHHHH@Z ; MakeWindowDisp
  000a1	83 c4 18	 add	 esp, 24			; 00000018H
  000a4	50		 push	 eax
  000a5	8b 45 08	 mov	 eax, DWORD PTR _L$[ebp]
  000a8	50		 push	 eax
  000a9	e8 00 00 00 00	 call	 _lua_pushinteger
  000ae	83 c4 08	 add	 esp, 8

; 193  : 	return 1;

  000b1	b8 01 00 00 00	 mov	 eax, 1

; 194  : }

  000b6	5f		 pop	 edi
  000b7	5e		 pop	 esi
  000b8	5b		 pop	 ebx
  000b9	81 c4 08 01 00
	00		 add	 esp, 264		; 00000108H
  000bf	3b ec		 cmp	 ebp, esp
  000c1	e8 00 00 00 00	 call	 __RTC_CheckEsp
  000c6	8b e5		 mov	 esp, ebp
  000c8	5d		 pop	 ebp
  000c9	c3		 ret	 0
?SaMakeWindowDisp@@YAHPAUlua_State@@@Z ENDP		; SaMakeWindowDisp
_TEXT	ENDS
; Function compile flags: /Odtp /RTCsu /ZI
; File c:\users\administrator\desktop\????? ??\????? ??\client source code\mylua\sa.cpp
;	COMDAT ?SaDeathAction@@YAHPAUlua_State@@@Z
_TEXT	SEGMENT
_addr$ = -8						; size = 4
_L$ = 8							; size = 4
?SaDeathAction@@YAHPAUlua_State@@@Z PROC		; SaDeathAction, COMDAT

; 178  : {

  00000	55		 push	 ebp
  00001	8b ec		 mov	 ebp, esp
  00003	81 ec cc 00 00
	00		 sub	 esp, 204		; 000000ccH
  00009	53		 push	 ebx
  0000a	56		 push	 esi
  0000b	57		 push	 edi
  0000c	8d bd 34 ff ff
	ff		 lea	 edi, DWORD PTR [ebp-204]
  00012	b9 33 00 00 00	 mov	 ecx, 51			; 00000033H
  00017	b8 cc cc cc cc	 mov	 eax, -858993460		; ccccccccH
  0001c	f3 ab		 rep stosd

; 179  : 	const int addr = luaL_checkint(L, 1);

  0001e	6a 01		 push	 1
  00020	8b 45 08	 mov	 eax, DWORD PTR _L$[ebp]
  00023	50		 push	 eax
  00024	e8 00 00 00 00	 call	 _luaL_checkinteger
  00029	83 c4 08	 add	 esp, 8
  0002c	89 45 f8	 mov	 DWORD PTR _addr$[ebp], eax

; 180  : 	DeathAction((ACTION *)addr);

  0002f	8b 45 f8	 mov	 eax, DWORD PTR _addr$[ebp]
  00032	50		 push	 eax
  00033	e8 00 00 00 00	 call	 ?DeathAction@@YAXPAUaction@@@Z ; DeathAction
  00038	83 c4 04	 add	 esp, 4

; 181  : 	return 1;

  0003b	b8 01 00 00 00	 mov	 eax, 1

; 182  : }

  00040	5f		 pop	 edi
  00041	5e		 pop	 esi
  00042	5b		 pop	 ebx
  00043	81 c4 cc 00 00
	00		 add	 esp, 204		; 000000ccH
  00049	3b ec		 cmp	 ebp, esp
  0004b	e8 00 00 00 00	 call	 __RTC_CheckEsp
  00050	8b e5		 mov	 esp, ebp
  00052	5d		 pop	 ebp
  00053	c3		 ret	 0
?SaDeathAction@@YAHPAUlua_State@@@Z ENDP		; SaDeathAction
_TEXT	ENDS
; Function compile flags: /Odtp /RTCsu /ZI
; File c:\users\administrator\desktop\????? ??\????? ??\client source code\mylua\sa.cpp
;	COMDAT ?SaMakeHitBox@@YAHPAUlua_State@@@Z
_TEXT	SEGMENT
_dispPrio$ = -56					; size = 4
_y2$ = -44						; size = 4
_x2$ = -32						; size = 4
_y1$ = -20						; size = 4
_x1$ = -8						; size = 4
_L$ = 8							; size = 4
?SaMakeHitBox@@YAHPAUlua_State@@@Z PROC			; SaMakeHitBox, COMDAT

; 166  : {

  00000	55		 push	 ebp
  00001	8b ec		 mov	 ebp, esp
  00003	81 ec fc 00 00
	00		 sub	 esp, 252		; 000000fcH
  00009	53		 push	 ebx
  0000a	56		 push	 esi
  0000b	57		 push	 edi
  0000c	8d bd 04 ff ff
	ff		 lea	 edi, DWORD PTR [ebp-252]
  00012	b9 3f 00 00 00	 mov	 ecx, 63			; 0000003fH
  00017	b8 cc cc cc cc	 mov	 eax, -858993460		; ccccccccH
  0001c	f3 ab		 rep stosd

; 167  : 	const int x1 = luaL_checkint(L, 1);

  0001e	6a 01		 push	 1
  00020	8b 45 08	 mov	 eax, DWORD PTR _L$[ebp]
  00023	50		 push	 eax
  00024	e8 00 00 00 00	 call	 _luaL_checkinteger
  00029	83 c4 08	 add	 esp, 8
  0002c	89 45 f8	 mov	 DWORD PTR _x1$[ebp], eax

; 168  : 	const int y1 = luaL_checkint(L, 2);

  0002f	6a 02		 push	 2
  00031	8b 45 08	 mov	 eax, DWORD PTR _L$[ebp]
  00034	50		 push	 eax
  00035	e8 00 00 00 00	 call	 _luaL_checkinteger
  0003a	83 c4 08	 add	 esp, 8
  0003d	89 45 ec	 mov	 DWORD PTR _y1$[ebp], eax

; 169  : 	const int x2 = luaL_checkint(L, 3);

  00040	6a 03		 push	 3
  00042	8b 45 08	 mov	 eax, DWORD PTR _L$[ebp]
  00045	50		 push	 eax
  00046	e8 00 00 00 00	 call	 _luaL_checkinteger
  0004b	83 c4 08	 add	 esp, 8
  0004e	89 45 e0	 mov	 DWORD PTR _x2$[ebp], eax

; 170  : 	const int y2 = luaL_checkint(L, 4);

  00051	6a 04		 push	 4
  00053	8b 45 08	 mov	 eax, DWORD PTR _L$[ebp]
  00056	50		 push	 eax
  00057	e8 00 00 00 00	 call	 _luaL_checkinteger
  0005c	83 c4 08	 add	 esp, 8
  0005f	89 45 d4	 mov	 DWORD PTR _y2$[ebp], eax

; 171  : 	const int dispPrio = luaL_checkint(L, 5);

  00062	6a 05		 push	 5
  00064	8b 45 08	 mov	 eax, DWORD PTR _L$[ebp]
  00067	50		 push	 eax
  00068	e8 00 00 00 00	 call	 _luaL_checkinteger
  0006d	83 c4 08	 add	 esp, 8
  00070	89 45 c8	 mov	 DWORD PTR _dispPrio$[ebp], eax

; 172  : 
; 173  : 	lua_pushinteger(L, MakeHitBox( x1, y1 - 3, x2, y2 - 3, dispPrio ));

  00073	8b 45 c8	 mov	 eax, DWORD PTR _dispPrio$[ebp]
  00076	50		 push	 eax
  00077	8b 4d d4	 mov	 ecx, DWORD PTR _y2$[ebp]
  0007a	83 e9 03	 sub	 ecx, 3
  0007d	51		 push	 ecx
  0007e	8b 55 e0	 mov	 edx, DWORD PTR _x2$[ebp]
  00081	52		 push	 edx
  00082	8b 45 ec	 mov	 eax, DWORD PTR _y1$[ebp]
  00085	83 e8 03	 sub	 eax, 3
  00088	50		 push	 eax
  00089	8b 4d f8	 mov	 ecx, DWORD PTR _x1$[ebp]
  0008c	51		 push	 ecx
  0008d	e8 00 00 00 00	 call	 ?MakeHitBox@@YAHHHHHH@Z	; MakeHitBox
  00092	83 c4 14	 add	 esp, 20			; 00000014H
  00095	50		 push	 eax
  00096	8b 55 08	 mov	 edx, DWORD PTR _L$[ebp]
  00099	52		 push	 edx
  0009a	e8 00 00 00 00	 call	 _lua_pushinteger
  0009f	83 c4 08	 add	 esp, 8

; 174  : 	return 1;

  000a2	b8 01 00 00 00	 mov	 eax, 1

; 175  : }

  000a7	5f		 pop	 edi
  000a8	5e		 pop	 esi
  000a9	5b		 pop	 ebx
  000aa	81 c4 fc 00 00
	00		 add	 esp, 252		; 000000fcH
  000b0	3b ec		 cmp	 ebp, esp
  000b2	e8 00 00 00 00	 call	 __RTC_CheckEsp
  000b7	8b e5		 mov	 esp, ebp
  000b9	5d		 pop	 ebp
  000ba	c3		 ret	 0
?SaMakeHitBox@@YAHPAUlua_State@@@Z ENDP			; SaMakeHitBox
_TEXT	ENDS
; Function compile flags: /Odtp /RTCsu /ZI
; File c:\users\administrator\desktop\????? ??\????? ??\client source code\mylua\sa.cpp
;	COMDAT ?SaStockFontBuffer@@YAHPAUlua_State@@@Z
_TEXT	SEGMENT
_hitFlag$ = -80						; size = 4
_data$ = -68						; size = 4
_color$ = -56						; size = 4
_fontPrio$ = -44					; size = 4
_winY$ = -32						; size = 4
_winX$ = -20						; size = 4
_l$ = -8						; size = 4
_L$ = 8							; size = 4
?SaStockFontBuffer@@YAHPAUlua_State@@@Z PROC		; SaStockFontBuffer, COMDAT

; 153  : {

  00000	55		 push	 ebp
  00001	8b ec		 mov	 ebp, esp
  00003	81 ec 14 01 00
	00		 sub	 esp, 276		; 00000114H
  00009	53		 push	 ebx
  0000a	56		 push	 esi
  0000b	57		 push	 edi
  0000c	8d bd ec fe ff
	ff		 lea	 edi, DWORD PTR [ebp-276]
  00012	b9 45 00 00 00	 mov	 ecx, 69			; 00000045H
  00017	b8 cc cc cc cc	 mov	 eax, -858993460		; ccccccccH
  0001c	f3 ab		 rep stosd

; 154  : 	size_t l;
; 155  : 	const int winX = luaL_checkint(L, 1);

  0001e	6a 01		 push	 1
  00020	8b 45 08	 mov	 eax, DWORD PTR _L$[ebp]
  00023	50		 push	 eax
  00024	e8 00 00 00 00	 call	 _luaL_checkinteger
  00029	83 c4 08	 add	 esp, 8
  0002c	89 45 ec	 mov	 DWORD PTR _winX$[ebp], eax

; 156  : 	const int winY = luaL_checkint(L, 2);

  0002f	6a 02		 push	 2
  00031	8b 45 08	 mov	 eax, DWORD PTR _L$[ebp]
  00034	50		 push	 eax
  00035	e8 00 00 00 00	 call	 _luaL_checkinteger
  0003a	83 c4 08	 add	 esp, 8
  0003d	89 45 e0	 mov	 DWORD PTR _winY$[ebp], eax

; 157  : 	const int fontPrio = luaL_checkint(L, 3);

  00040	6a 03		 push	 3
  00042	8b 45 08	 mov	 eax, DWORD PTR _L$[ebp]
  00045	50		 push	 eax
  00046	e8 00 00 00 00	 call	 _luaL_checkinteger
  0004b	83 c4 08	 add	 esp, 8
  0004e	89 45 d4	 mov	 DWORD PTR _fontPrio$[ebp], eax

; 158  : 	const int color = luaL_checkint(L, 4);

  00051	6a 04		 push	 4
  00053	8b 45 08	 mov	 eax, DWORD PTR _L$[ebp]
  00056	50		 push	 eax
  00057	e8 00 00 00 00	 call	 _luaL_checkinteger
  0005c	83 c4 08	 add	 esp, 8
  0005f	89 45 c8	 mov	 DWORD PTR _color$[ebp], eax

; 159  : 	const char *data=luaL_checklstring(L, 5, &l);

  00062	8d 45 f8	 lea	 eax, DWORD PTR _l$[ebp]
  00065	50		 push	 eax
  00066	6a 05		 push	 5
  00068	8b 4d 08	 mov	 ecx, DWORD PTR _L$[ebp]
  0006b	51		 push	 ecx
  0006c	e8 00 00 00 00	 call	 _luaL_checklstring
  00071	83 c4 0c	 add	 esp, 12			; 0000000cH
  00074	89 45 bc	 mov	 DWORD PTR _data$[ebp], eax

; 160  : 	const int hitFlag = luaL_checkint(L, 6);

  00077	6a 06		 push	 6
  00079	8b 45 08	 mov	 eax, DWORD PTR _L$[ebp]
  0007c	50		 push	 eax
  0007d	e8 00 00 00 00	 call	 _luaL_checkinteger
  00082	83 c4 08	 add	 esp, 8
  00085	89 45 b0	 mov	 DWORD PTR _hitFlag$[ebp], eax

; 161  : 	lua_pushinteger(L, StockFontBuffer( winX, winY, fontPrio, color, (char *)data, hitFlag ));

  00088	8b 45 b0	 mov	 eax, DWORD PTR _hitFlag$[ebp]
  0008b	50		 push	 eax
  0008c	8b 4d bc	 mov	 ecx, DWORD PTR _data$[ebp]
  0008f	51		 push	 ecx
  00090	8b 55 c8	 mov	 edx, DWORD PTR _color$[ebp]
  00093	52		 push	 edx
  00094	0f b6 45 d4	 movzx	 eax, BYTE PTR _fontPrio$[ebp]
  00098	50		 push	 eax
  00099	8b 4d e0	 mov	 ecx, DWORD PTR _winY$[ebp]
  0009c	51		 push	 ecx
  0009d	8b 55 ec	 mov	 edx, DWORD PTR _winX$[ebp]
  000a0	52		 push	 edx
  000a1	e8 00 00 00 00	 call	 ?StockFontBuffer@@YAHHHDHPADH@Z ; StockFontBuffer
  000a6	83 c4 18	 add	 esp, 24			; 00000018H
  000a9	50		 push	 eax
  000aa	8b 45 08	 mov	 eax, DWORD PTR _L$[ebp]
  000ad	50		 push	 eax
  000ae	e8 00 00 00 00	 call	 _lua_pushinteger
  000b3	83 c4 08	 add	 esp, 8

; 162  : 	return 1;

  000b6	b8 01 00 00 00	 mov	 eax, 1

; 163  : }

  000bb	52		 push	 edx
  000bc	8b cd		 mov	 ecx, ebp
  000be	50		 push	 eax
  000bf	8d 15 00 00 00
	00		 lea	 edx, DWORD PTR $LN5@SaStockFon
  000c5	e8 00 00 00 00	 call	 @_RTC_CheckStackVars@8
  000ca	58		 pop	 eax
  000cb	5a		 pop	 edx
  000cc	5f		 pop	 edi
  000cd	5e		 pop	 esi
  000ce	5b		 pop	 ebx
  000cf	81 c4 14 01 00
	00		 add	 esp, 276		; 00000114H
  000d5	3b ec		 cmp	 ebp, esp
  000d7	e8 00 00 00 00	 call	 __RTC_CheckEsp
  000dc	8b e5		 mov	 esp, ebp
  000de	5d		 pop	 ebp
  000df	c3		 ret	 0
$LN5@SaStockFon:
  000e0	01 00 00 00	 DD	 1
  000e4	00 00 00 00	 DD	 $LN4@SaStockFon
$LN4@SaStockFon:
  000e8	f8 ff ff ff	 DD	 -8			; fffffff8H
  000ec	04 00 00 00	 DD	 4
  000f0	00 00 00 00	 DD	 $LN3@SaStockFon
$LN3@SaStockFon:
  000f4	6c		 DB	 108			; 0000006cH
  000f5	00		 DB	 0
?SaStockFontBuffer@@YAHPAUlua_State@@@Z ENDP		; SaStockFontBuffer
_TEXT	ENDS
; Function compile flags: /Odtp /RTCsu /ZI
; File c:\users\administrator\desktop\????? ??\????? ??\client source code\mylua\sa.cpp
;	COMDAT ?SaLuaPrint@@YAHPAUlua_State@@@Z
_TEXT	SEGMENT
tv270 = -1748						; size = 8
tv268 = -1740						; size = 4
tv140 = -1740						; size = 4
tv139 = -1736						; size = 4
tv265 = -1734						; size = 2
_s$1 = -1152						; size = 4
_l$2 = -1140						; size = 4
_buff$3 = -1128						; size = 512
_form$4 = -608						; size = 18
_b$ = -580						; size = 524
_strfrmt_end$ = -48					; size = 4
_strfrmt$ = -36						; size = 4
_sfl$ = -24						; size = 4
_arg$ = -12						; size = 4
__$ArrayPad$ = -4					; size = 4
_L$ = 8							; size = 4
?SaLuaPrint@@YAHPAUlua_State@@@Z PROC			; SaLuaPrint, COMDAT

; 83   : {

  00000	55		 push	 ebp
  00001	8b ec		 mov	 ebp, esp
  00003	81 ec d4 06 00
	00		 sub	 esp, 1748		; 000006d4H
  00009	53		 push	 ebx
  0000a	56		 push	 esi
  0000b	57		 push	 edi
  0000c	8d bd 2c f9 ff
	ff		 lea	 edi, DWORD PTR [ebp-1748]
  00012	b9 b5 01 00 00	 mov	 ecx, 437		; 000001b5H
  00017	b8 cc cc cc cc	 mov	 eax, -858993460		; ccccccccH
  0001c	f3 ab		 rep stosd
  0001e	a1 00 00 00 00	 mov	 eax, DWORD PTR ___security_cookie
  00023	33 c5		 xor	 eax, ebp
  00025	89 45 fc	 mov	 DWORD PTR __$ArrayPad$[ebp], eax

; 84   :   int arg = 1;

  00028	c7 45 f4 01 00
	00 00		 mov	 DWORD PTR _arg$[ebp], 1

; 85   :   size_t sfl;
; 86   :   const char *strfrmt = luaL_checklstring(L, arg, &sfl);

  0002f	8d 45 e8	 lea	 eax, DWORD PTR _sfl$[ebp]
  00032	50		 push	 eax
  00033	8b 4d f4	 mov	 ecx, DWORD PTR _arg$[ebp]
  00036	51		 push	 ecx
  00037	8b 55 08	 mov	 edx, DWORD PTR _L$[ebp]
  0003a	52		 push	 edx
  0003b	e8 00 00 00 00	 call	 _luaL_checklstring
  00040	83 c4 0c	 add	 esp, 12			; 0000000cH
  00043	89 45 dc	 mov	 DWORD PTR _strfrmt$[ebp], eax

; 87   :   const char *strfrmt_end = strfrmt+sfl;

  00046	8b 45 dc	 mov	 eax, DWORD PTR _strfrmt$[ebp]
  00049	03 45 e8	 add	 eax, DWORD PTR _sfl$[ebp]
  0004c	89 45 d0	 mov	 DWORD PTR _strfrmt_end$[ebp], eax

; 88   :   luaL_Buffer b;
; 89   :   memset(b.buffer,0,LUAL_BUFFERSIZE);

  0004f	68 00 02 00 00	 push	 512			; 00000200H
  00054	6a 00		 push	 0
  00056	8d 85 c8 fd ff
	ff		 lea	 eax, DWORD PTR _b$[ebp+12]
  0005c	50		 push	 eax
  0005d	e8 00 00 00 00	 call	 _memset
  00062	83 c4 0c	 add	 esp, 12			; 0000000cH

; 90   :   luaL_buffinit(L, &b);

  00065	8d 85 bc fd ff
	ff		 lea	 eax, DWORD PTR _b$[ebp]
  0006b	50		 push	 eax
  0006c	8b 4d 08	 mov	 ecx, DWORD PTR _L$[ebp]
  0006f	51		 push	 ecx
  00070	e8 00 00 00 00	 call	 _luaL_buffinit
  00075	83 c4 08	 add	 esp, 8
$LN23@SaLuaPrint:

; 91   :   while (strfrmt < strfrmt_end) {

  00078	8b 45 dc	 mov	 eax, DWORD PTR _strfrmt$[ebp]
  0007b	3b 45 d0	 cmp	 eax, DWORD PTR _strfrmt_end$[ebp]
  0007e	0f 83 2d 03 00
	00		 jae	 $LN3@SaLuaPrint

; 92   :     if (*strfrmt != L_ESC)

  00084	8b 45 dc	 mov	 eax, DWORD PTR _strfrmt$[ebp]
  00087	0f be 08	 movsx	 ecx, BYTE PTR [eax]
  0008a	83 f9 25	 cmp	 ecx, 37			; 00000025H
  0008d	74 44		 je	 SHORT $LN6@SaLuaPrint

; 93   :       luaL_addchar(&b, *strfrmt++);

  0008f	8d 45 c8	 lea	 eax, DWORD PTR _b$[ebp+524]
  00092	39 85 bc fd ff
	ff		 cmp	 DWORD PTR _b$[ebp], eax
  00098	72 0f		 jb	 SHORT $LN20@SaLuaPrint
  0009a	8d 8d bc fd ff
	ff		 lea	 ecx, DWORD PTR _b$[ebp]
  000a0	51		 push	 ecx
  000a1	e8 00 00 00 00	 call	 _luaL_prepbuffer
  000a6	83 c4 04	 add	 esp, 4
$LN20@SaLuaPrint:
  000a9	8b 95 bc fd ff
	ff		 mov	 edx, DWORD PTR _b$[ebp]
  000af	8b 45 dc	 mov	 eax, DWORD PTR _strfrmt$[ebp]
  000b2	8a 08		 mov	 cl, BYTE PTR [eax]
  000b4	88 0a		 mov	 BYTE PTR [edx], cl
  000b6	8b 95 bc fd ff
	ff		 mov	 edx, DWORD PTR _b$[ebp]
  000bc	83 c2 01	 add	 edx, 1
  000bf	89 95 bc fd ff
	ff		 mov	 DWORD PTR _b$[ebp], edx
  000c5	8b 45 dc	 mov	 eax, DWORD PTR _strfrmt$[ebp]
  000c8	83 c0 01	 add	 eax, 1
  000cb	89 45 dc	 mov	 DWORD PTR _strfrmt$[ebp], eax
  000ce	e9 d9 02 00 00	 jmp	 $LN9@SaLuaPrint
$LN6@SaLuaPrint:

; 94   :     else if (*++strfrmt == L_ESC)

  000d3	8b 45 dc	 mov	 eax, DWORD PTR _strfrmt$[ebp]
  000d6	83 c0 01	 add	 eax, 1
  000d9	89 45 dc	 mov	 DWORD PTR _strfrmt$[ebp], eax
  000dc	8b 4d dc	 mov	 ecx, DWORD PTR _strfrmt$[ebp]
  000df	0f be 11	 movsx	 edx, BYTE PTR [ecx]
  000e2	83 fa 25	 cmp	 edx, 37			; 00000025H
  000e5	75 44		 jne	 SHORT $LN8@SaLuaPrint

; 95   :       luaL_addchar(&b, *strfrmt++);  

  000e7	8d 45 c8	 lea	 eax, DWORD PTR _b$[ebp+524]
  000ea	39 85 bc fd ff
	ff		 cmp	 DWORD PTR _b$[ebp], eax
  000f0	72 0f		 jb	 SHORT $LN21@SaLuaPrint
  000f2	8d 8d bc fd ff
	ff		 lea	 ecx, DWORD PTR _b$[ebp]
  000f8	51		 push	 ecx
  000f9	e8 00 00 00 00	 call	 _luaL_prepbuffer
  000fe	83 c4 04	 add	 esp, 4
$LN21@SaLuaPrint:
  00101	8b 95 bc fd ff
	ff		 mov	 edx, DWORD PTR _b$[ebp]
  00107	8b 45 dc	 mov	 eax, DWORD PTR _strfrmt$[ebp]
  0010a	8a 08		 mov	 cl, BYTE PTR [eax]
  0010c	88 0a		 mov	 BYTE PTR [edx], cl
  0010e	8b 95 bc fd ff
	ff		 mov	 edx, DWORD PTR _b$[ebp]
  00114	83 c2 01	 add	 edx, 1
  00117	89 95 bc fd ff
	ff		 mov	 DWORD PTR _b$[ebp], edx
  0011d	8b 45 dc	 mov	 eax, DWORD PTR _strfrmt$[ebp]
  00120	83 c0 01	 add	 eax, 1
  00123	89 45 dc	 mov	 DWORD PTR _strfrmt$[ebp], eax

; 96   :     else { 

  00126	e9 81 02 00 00	 jmp	 $LN9@SaLuaPrint
$LN8@SaLuaPrint:

; 97   :       char form[MAX_FORMAT]; 
; 98   :       char buff[MAX_ITEM]; 
; 99   : 	  memset(form,0,MAX_FORMAT);

  0012b	6a 12		 push	 18			; 00000012H
  0012d	6a 00		 push	 0
  0012f	8d 85 a0 fd ff
	ff		 lea	 eax, DWORD PTR _form$4[ebp]
  00135	50		 push	 eax
  00136	e8 00 00 00 00	 call	 _memset
  0013b	83 c4 0c	 add	 esp, 12			; 0000000cH

; 100  : 	  memset(buff,0,MAX_ITEM);

  0013e	68 00 02 00 00	 push	 512			; 00000200H
  00143	6a 00		 push	 0
  00145	8d 85 98 fb ff
	ff		 lea	 eax, DWORD PTR _buff$3[ebp]
  0014b	50		 push	 eax
  0014c	e8 00 00 00 00	 call	 _memset
  00151	83 c4 0c	 add	 esp, 12			; 0000000cH

; 101  :       arg++;

  00154	8b 45 f4	 mov	 eax, DWORD PTR _arg$[ebp]
  00157	83 c0 01	 add	 eax, 1
  0015a	89 45 f4	 mov	 DWORD PTR _arg$[ebp], eax

; 102  :       strfrmt = scanformat(L, strfrmt, form);

  0015d	8d 85 a0 fd ff
	ff		 lea	 eax, DWORD PTR _form$4[ebp]
  00163	50		 push	 eax
  00164	8b 4d dc	 mov	 ecx, DWORD PTR _strfrmt$[ebp]
  00167	51		 push	 ecx
  00168	8b 55 08	 mov	 edx, DWORD PTR _L$[ebp]
  0016b	52		 push	 edx
  0016c	e8 00 00 00 00	 call	 ?scanformat@@YAPBDPAUlua_State@@PBDPAD@Z ; scanformat
  00171	83 c4 0c	 add	 esp, 12			; 0000000cH
  00174	89 45 dc	 mov	 DWORD PTR _strfrmt$[ebp], eax

; 103  :       switch (*strfrmt++) {

  00177	8b 45 dc	 mov	 eax, DWORD PTR _strfrmt$[ebp]
  0017a	0f be 08	 movsx	 ecx, BYTE PTR [eax]
  0017d	89 8d 38 f9 ff
	ff		 mov	 DWORD PTR tv139[ebp], ecx
  00183	8b 55 dc	 mov	 edx, DWORD PTR _strfrmt$[ebp]
  00186	83 c2 01	 add	 edx, 1
  00189	89 55 dc	 mov	 DWORD PTR _strfrmt$[ebp], edx
  0018c	8b 85 38 f9 ff
	ff		 mov	 eax, DWORD PTR tv139[ebp]
  00192	89 85 34 f9 ff
	ff		 mov	 DWORD PTR tv140[ebp], eax
  00198	8b 8d 34 f9 ff
	ff		 mov	 ecx, DWORD PTR tv140[ebp]
  0019e	83 e9 45	 sub	 ecx, 69			; 00000045H
  001a1	89 8d 34 f9 ff
	ff		 mov	 DWORD PTR tv140[ebp], ecx
  001a7	83 bd 34 f9 ff
	ff 33		 cmp	 DWORD PTR tv140[ebp], 51 ; 00000033H
  001ae	0f 87 b7 01 00
	00		 ja	 $LN17@SaLuaPrint
  001b4	8b 95 34 f9 ff
	ff		 mov	 edx, DWORD PTR tv140[ebp]
  001ba	0f b6 82 00 00
	00 00		 movzx	 eax, BYTE PTR $LN24@SaLuaPrint[edx]
  001c1	ff 24 85 00 00
	00 00		 jmp	 DWORD PTR $LN32@SaLuaPrint[eax*4]
$LN10@SaLuaPrint:

; 104  :         case 'c': {
; 105  :           sprintf(buff, form, (int)luaL_checknumber(L, arg));

  001c8	8b 45 f4	 mov	 eax, DWORD PTR _arg$[ebp]
  001cb	50		 push	 eax
  001cc	8b 4d 08	 mov	 ecx, DWORD PTR _L$[ebp]
  001cf	51		 push	 ecx
  001d0	e8 00 00 00 00	 call	 _luaL_checknumber
  001d5	83 c4 08	 add	 esp, 8
  001d8	e8 00 00 00 00	 call	 __ftol2_sse
  001dd	50		 push	 eax
  001de	8d 95 a0 fd ff
	ff		 lea	 edx, DWORD PTR _form$4[ebp]
  001e4	52		 push	 edx
  001e5	8d 85 98 fb ff
	ff		 lea	 eax, DWORD PTR _buff$3[ebp]
  001eb	50		 push	 eax
  001ec	e8 00 00 00 00	 call	 _sprintf
  001f1	83 c4 0c	 add	 esp, 12			; 0000000cH

; 106  :           break;

  001f4	e9 8d 01 00 00	 jmp	 $LN4@SaLuaPrint
$LN11@SaLuaPrint:

; 107  :         }
; 108  :         case 'd':  case 'i': {
; 109  :           addintlen(form);

  001f9	8d 85 a0 fd ff
	ff		 lea	 eax, DWORD PTR _form$4[ebp]
  001ff	50		 push	 eax
  00200	e8 00 00 00 00	 call	 ?addintlen@@YAXPAD@Z	; addintlen
  00205	83 c4 04	 add	 esp, 4

; 110  :           sprintf(buff, form, (LUA_INTFRM_T)luaL_checknumber(L, arg));

  00208	8b 45 f4	 mov	 eax, DWORD PTR _arg$[ebp]
  0020b	50		 push	 eax
  0020c	8b 4d 08	 mov	 ecx, DWORD PTR _L$[ebp]
  0020f	51		 push	 ecx
  00210	e8 00 00 00 00	 call	 _luaL_checknumber
  00215	83 c4 08	 add	 esp, 8
  00218	e8 00 00 00 00	 call	 __ftol2_sse
  0021d	50		 push	 eax
  0021e	8d 95 a0 fd ff
	ff		 lea	 edx, DWORD PTR _form$4[ebp]
  00224	52		 push	 edx
  00225	8d 85 98 fb ff
	ff		 lea	 eax, DWORD PTR _buff$3[ebp]
  0022b	50		 push	 eax
  0022c	e8 00 00 00 00	 call	 _sprintf
  00231	83 c4 0c	 add	 esp, 12			; 0000000cH

; 111  :           break;

  00234	e9 4d 01 00 00	 jmp	 $LN4@SaLuaPrint
$LN12@SaLuaPrint:

; 112  :         }
; 113  :         case 'o':  case 'u':  case 'x':  case 'X': {
; 114  :           addintlen(form);

  00239	8d 85 a0 fd ff
	ff		 lea	 eax, DWORD PTR _form$4[ebp]
  0023f	50		 push	 eax
  00240	e8 00 00 00 00	 call	 ?addintlen@@YAXPAD@Z	; addintlen
  00245	83 c4 04	 add	 esp, 4

; 115  :           sprintf(buff, form, (unsigned LUA_INTFRM_T)luaL_checknumber(L, arg));

  00248	8b 45 f4	 mov	 eax, DWORD PTR _arg$[ebp]
  0024b	50		 push	 eax
  0024c	8b 4d 08	 mov	 ecx, DWORD PTR _L$[ebp]
  0024f	51		 push	 ecx
  00250	e8 00 00 00 00	 call	 _luaL_checknumber
  00255	83 c4 08	 add	 esp, 8
  00258	d9 bd 3a f9 ff
	ff		 fnstcw	 WORD PTR tv265[ebp]
  0025e	0f b7 85 3a f9
	ff ff		 movzx	 eax, WORD PTR tv265[ebp]
  00265	0d 00 0c 00 00	 or	 eax, 3072		; 00000c00H
  0026a	89 85 34 f9 ff
	ff		 mov	 DWORD PTR tv268[ebp], eax
  00270	d9 ad 34 f9 ff
	ff		 fldcw	 WORD PTR tv268[ebp]
  00276	df bd 2c f9 ff
	ff		 fistp	 QWORD PTR tv270[ebp]
  0027c	d9 ad 3a f9 ff
	ff		 fldcw	 WORD PTR tv265[ebp]
  00282	8b 95 2c f9 ff
	ff		 mov	 edx, DWORD PTR tv270[ebp]
  00288	52		 push	 edx
  00289	8d 85 a0 fd ff
	ff		 lea	 eax, DWORD PTR _form$4[ebp]
  0028f	50		 push	 eax
  00290	8d 8d 98 fb ff
	ff		 lea	 ecx, DWORD PTR _buff$3[ebp]
  00296	51		 push	 ecx
  00297	e8 00 00 00 00	 call	 _sprintf
  0029c	83 c4 0c	 add	 esp, 12			; 0000000cH

; 116  :           break;

  0029f	e9 e2 00 00 00	 jmp	 $LN4@SaLuaPrint
$LN13@SaLuaPrint:

; 117  :         }
; 118  :         case 'e':  case 'E': case 'f':
; 119  :         case 'g': case 'G': {
; 120  :           sprintf(buff, form, (double)luaL_checknumber(L, arg));

  002a4	8b 45 f4	 mov	 eax, DWORD PTR _arg$[ebp]
  002a7	50		 push	 eax
  002a8	8b 4d 08	 mov	 ecx, DWORD PTR _L$[ebp]
  002ab	51		 push	 ecx
  002ac	e8 00 00 00 00	 call	 _luaL_checknumber
  002b1	dd 1c 24	 fstp	 QWORD PTR [esp]
  002b4	8d 95 a0 fd ff
	ff		 lea	 edx, DWORD PTR _form$4[ebp]
  002ba	52		 push	 edx
  002bb	8d 85 98 fb ff
	ff		 lea	 eax, DWORD PTR _buff$3[ebp]
  002c1	50		 push	 eax
  002c2	e8 00 00 00 00	 call	 _sprintf
  002c7	83 c4 10	 add	 esp, 16			; 00000010H

; 121  :           break;

  002ca	e9 b7 00 00 00	 jmp	 $LN4@SaLuaPrint
$LN14@SaLuaPrint:

; 122  :         }
; 123  :         case 'q': {
; 124  :           addquoted(L, &b, arg);

  002cf	8b 45 f4	 mov	 eax, DWORD PTR _arg$[ebp]
  002d2	50		 push	 eax
  002d3	8d 8d bc fd ff
	ff		 lea	 ecx, DWORD PTR _b$[ebp]
  002d9	51		 push	 ecx
  002da	8b 55 08	 mov	 edx, DWORD PTR _L$[ebp]
  002dd	52		 push	 edx
  002de	e8 00 00 00 00	 call	 ?addquoted@@YAXPAUlua_State@@PAUluaL_Buffer@@H@Z ; addquoted
  002e3	83 c4 0c	 add	 esp, 12			; 0000000cH

; 125  :           continue;  

  002e6	e9 8d fd ff ff	 jmp	 $LN23@SaLuaPrint
$LN15@SaLuaPrint:

; 126  :         }
; 127  :         case 's': {
; 128  :           size_t l;
; 129  :           const char *s = luaL_checklstring(L, arg, &l);

  002eb	8d 85 8c fb ff
	ff		 lea	 eax, DWORD PTR _l$2[ebp]
  002f1	50		 push	 eax
  002f2	8b 4d f4	 mov	 ecx, DWORD PTR _arg$[ebp]
  002f5	51		 push	 ecx
  002f6	8b 55 08	 mov	 edx, DWORD PTR _L$[ebp]
  002f9	52		 push	 edx
  002fa	e8 00 00 00 00	 call	 _luaL_checklstring
  002ff	83 c4 0c	 add	 esp, 12			; 0000000cH
  00302	89 85 80 fb ff
	ff		 mov	 DWORD PTR _s$1[ebp], eax

; 130  :           if (!strchr(form, '.') && l >= 100) {

  00308	6a 2e		 push	 46			; 0000002eH
  0030a	8d 85 a0 fd ff
	ff		 lea	 eax, DWORD PTR _form$4[ebp]
  00310	50		 push	 eax
  00311	e8 00 00 00 00	 call	 ?strchr@@YAPADQADH@Z	; strchr
  00316	83 c4 08	 add	 esp, 8
  00319	85 c0		 test	 eax, eax
  0031b	75 2f		 jne	 SHORT $LN16@SaLuaPrint
  0031d	83 bd 8c fb ff
	ff 64		 cmp	 DWORD PTR _l$2[ebp], 100 ; 00000064H
  00324	72 26		 jb	 SHORT $LN16@SaLuaPrint

; 131  :             lua_pushvalue(L, arg);

  00326	8b 45 f4	 mov	 eax, DWORD PTR _arg$[ebp]
  00329	50		 push	 eax
  0032a	8b 4d 08	 mov	 ecx, DWORD PTR _L$[ebp]
  0032d	51		 push	 ecx
  0032e	e8 00 00 00 00	 call	 _lua_pushvalue
  00333	83 c4 08	 add	 esp, 8

; 132  :             luaL_addvalue(&b);

  00336	8d 85 bc fd ff
	ff		 lea	 eax, DWORD PTR _b$[ebp]
  0033c	50		 push	 eax
  0033d	e8 00 00 00 00	 call	 _luaL_addvalue
  00342	83 c4 04	 add	 esp, 4

; 133  :             continue; 

  00345	e9 2e fd ff ff	 jmp	 $LN23@SaLuaPrint

; 134  :           }
; 135  :           else {

  0034a	eb 1f		 jmp	 SHORT $LN17@SaLuaPrint
$LN16@SaLuaPrint:

; 136  :             sprintf(buff, form, s);

  0034c	8b 85 80 fb ff
	ff		 mov	 eax, DWORD PTR _s$1[ebp]
  00352	50		 push	 eax
  00353	8d 8d a0 fd ff
	ff		 lea	 ecx, DWORD PTR _form$4[ebp]
  00359	51		 push	 ecx
  0035a	8d 95 98 fb ff
	ff		 lea	 edx, DWORD PTR _buff$3[ebp]
  00360	52		 push	 edx
  00361	e8 00 00 00 00	 call	 _sprintf
  00366	83 c4 0c	 add	 esp, 12			; 0000000cH

; 137  :             break;

  00369	eb 1b		 jmp	 SHORT $LN4@SaLuaPrint
$LN17@SaLuaPrint:

; 138  :           }
; 139  :         }
; 140  :         default: {  
; 141  :           return luaL_error(L, "invalid option " LUA_QL("%%%c") " to "

  0036b	8b 45 dc	 mov	 eax, DWORD PTR _strfrmt$[ebp]
  0036e	0f be 48 ff	 movsx	 ecx, BYTE PTR [eax-1]
  00372	51		 push	 ecx
  00373	68 00 00 00 00	 push	 OFFSET ??_C@_0CC@KIPBEOBI@invalid?5option?5?8?$CF?$CF?$CFc?8?5to?5?8format@
  00378	8b 55 08	 mov	 edx, DWORD PTR _L$[ebp]
  0037b	52		 push	 edx
  0037c	e8 00 00 00 00	 call	 _luaL_error
  00381	83 c4 0c	 add	 esp, 12			; 0000000cH
  00384	eb 3f		 jmp	 SHORT $LN1@SaLuaPrint
$LN4@SaLuaPrint:

; 142  :                                LUA_QL("format"), *(strfrmt - 1));
; 143  :         }
; 144  :       }
; 145  :       luaL_addlstring(&b, buff, strlen(buff));

  00386	8d 85 98 fb ff
	ff		 lea	 eax, DWORD PTR _buff$3[ebp]
  0038c	50		 push	 eax
  0038d	e8 00 00 00 00	 call	 _strlen
  00392	83 c4 04	 add	 esp, 4
  00395	50		 push	 eax
  00396	8d 8d 98 fb ff
	ff		 lea	 ecx, DWORD PTR _buff$3[ebp]
  0039c	51		 push	 ecx
  0039d	8d 95 bc fd ff
	ff		 lea	 edx, DWORD PTR _b$[ebp]
  003a3	52		 push	 edx
  003a4	e8 00 00 00 00	 call	 _luaL_addlstring
  003a9	83 c4 0c	 add	 esp, 12			; 0000000cH
$LN9@SaLuaPrint:

; 146  :     }
; 147  :   }

  003ac	e9 c7 fc ff ff	 jmp	 $LN23@SaLuaPrint
$LN3@SaLuaPrint:

; 148  :   printf(b.buffer); 

  003b1	8d 85 c8 fd ff
	ff		 lea	 eax, DWORD PTR _b$[ebp+12]
  003b7	50		 push	 eax
  003b8	e8 00 00 00 00	 call	 _printf
  003bd	83 c4 04	 add	 esp, 4

; 149  :   return 1;

  003c0	b8 01 00 00 00	 mov	 eax, 1
$LN1@SaLuaPrint:

; 150  : }

  003c5	52		 push	 edx
  003c6	8b cd		 mov	 ecx, ebp
  003c8	50		 push	 eax
  003c9	8d 15 00 00 00
	00		 lea	 edx, DWORD PTR $LN31@SaLuaPrint
  003cf	e8 00 00 00 00	 call	 @_RTC_CheckStackVars@8
  003d4	58		 pop	 eax
  003d5	5a		 pop	 edx
  003d6	5f		 pop	 edi
  003d7	5e		 pop	 esi
  003d8	5b		 pop	 ebx
  003d9	8b 4d fc	 mov	 ecx, DWORD PTR __$ArrayPad$[ebp]
  003dc	33 cd		 xor	 ecx, ebp
  003de	e8 00 00 00 00	 call	 @__security_check_cookie@4
  003e3	81 c4 d4 06 00
	00		 add	 esp, 1748		; 000006d4H
  003e9	3b ec		 cmp	 ebp, esp
  003eb	e8 00 00 00 00	 call	 __RTC_CheckEsp
  003f0	8b e5		 mov	 esp, ebp
  003f2	5d		 pop	 ebp
  003f3	c3		 ret	 0
$LN31@SaLuaPrint:
  003f4	05 00 00 00	 DD	 5
  003f8	00 00 00 00	 DD	 $LN30@SaLuaPrint
$LN30@SaLuaPrint:
  003fc	e8 ff ff ff	 DD	 -24			; ffffffe8H
  00400	04 00 00 00	 DD	 4
  00404	00 00 00 00	 DD	 $LN25@SaLuaPrint
  00408	bc fd ff ff	 DD	 -580			; fffffdbcH
  0040c	0c 02 00 00	 DD	 524			; 0000020cH
  00410	00 00 00 00	 DD	 $LN26@SaLuaPrint
  00414	a0 fd ff ff	 DD	 -608			; fffffda0H
  00418	12 00 00 00	 DD	 18			; 00000012H
  0041c	00 00 00 00	 DD	 $LN27@SaLuaPrint
  00420	98 fb ff ff	 DD	 -1128			; fffffb98H
  00424	00 02 00 00	 DD	 512			; 00000200H
  00428	00 00 00 00	 DD	 $LN28@SaLuaPrint
  0042c	8c fb ff ff	 DD	 -1140			; fffffb8cH
  00430	04 00 00 00	 DD	 4
  00434	00 00 00 00	 DD	 $LN29@SaLuaPrint
$LN29@SaLuaPrint:
  00438	6c		 DB	 108			; 0000006cH
  00439	00		 DB	 0
$LN28@SaLuaPrint:
  0043a	62		 DB	 98			; 00000062H
  0043b	75		 DB	 117			; 00000075H
  0043c	66		 DB	 102			; 00000066H
  0043d	66		 DB	 102			; 00000066H
  0043e	00		 DB	 0
$LN27@SaLuaPrint:
  0043f	66		 DB	 102			; 00000066H
  00440	6f		 DB	 111			; 0000006fH
  00441	72		 DB	 114			; 00000072H
  00442	6d		 DB	 109			; 0000006dH
  00443	00		 DB	 0
$LN26@SaLuaPrint:
  00444	62		 DB	 98			; 00000062H
  00445	00		 DB	 0
$LN25@SaLuaPrint:
  00446	73		 DB	 115			; 00000073H
  00447	66		 DB	 102			; 00000066H
  00448	6c		 DB	 108			; 0000006cH
  00449	00		 DB	 0
  0044a	66 90		 npad	 2
$LN32@SaLuaPrint:
  0044c	00 00 00 00	 DD	 $LN13@SaLuaPrint
  00450	00 00 00 00	 DD	 $LN12@SaLuaPrint
  00454	00 00 00 00	 DD	 $LN10@SaLuaPrint
  00458	00 00 00 00	 DD	 $LN11@SaLuaPrint
  0045c	00 00 00 00	 DD	 $LN14@SaLuaPrint
  00460	00 00 00 00	 DD	 $LN15@SaLuaPrint
  00464	00 00 00 00	 DD	 $LN17@SaLuaPrint
$LN24@SaLuaPrint:
  00468	00		 DB	 0
  00469	06		 DB	 6
  0046a	00		 DB	 0
  0046b	06		 DB	 6
  0046c	06		 DB	 6
  0046d	06		 DB	 6
  0046e	06		 DB	 6
  0046f	06		 DB	 6
  00470	06		 DB	 6
  00471	06		 DB	 6
  00472	06		 DB	 6
  00473	06		 DB	 6
  00474	06		 DB	 6
  00475	06		 DB	 6
  00476	06		 DB	 6
  00477	06		 DB	 6
  00478	06		 DB	 6
  00479	06		 DB	 6
  0047a	06		 DB	 6
  0047b	01		 DB	 1
  0047c	06		 DB	 6
  0047d	06		 DB	 6
  0047e	06		 DB	 6
  0047f	06		 DB	 6
  00480	06		 DB	 6
  00481	06		 DB	 6
  00482	06		 DB	 6
  00483	06		 DB	 6
  00484	06		 DB	 6
  00485	06		 DB	 6
  00486	02		 DB	 2
  00487	03		 DB	 3
  00488	00		 DB	 0
  00489	00		 DB	 0
  0048a	00		 DB	 0
  0048b	06		 DB	 6
  0048c	03		 DB	 3
  0048d	06		 DB	 6
  0048e	06		 DB	 6
  0048f	06		 DB	 6
  00490	06		 DB	 6
  00491	06		 DB	 6
  00492	01		 DB	 1
  00493	06		 DB	 6
  00494	04		 DB	 4
  00495	06		 DB	 6
  00496	05		 DB	 5
  00497	06		 DB	 6
  00498	01		 DB	 1
  00499	06		 DB	 6
  0049a	06		 DB	 6
  0049b	01		 DB	 1
?SaLuaPrint@@YAHPAUlua_State@@@Z ENDP			; SaLuaPrint
_TEXT	ENDS
; Function compile flags: /Odtp /RTCsu /ZI
; File c:\users\administrator\desktop\????? ??\????? ??\client source code\mylua\sa.cpp
;	COMDAT ?addquoted@@YAXPAUlua_State@@PAUluaL_Buffer@@H@Z
_TEXT	SEGMENT
tv84 = -220						; size = 4
tv81 = -220						; size = 4
_s$ = -20						; size = 4
_l$ = -8						; size = 4
_L$ = 8							; size = 4
_b$ = 12						; size = 4
_arg$ = 16						; size = 4
?addquoted@@YAXPAUlua_State@@PAUluaL_Buffer@@H@Z PROC	; addquoted, COMDAT

; 53   : static void addquoted (lua_State *L, luaL_Buffer *b, int arg) {

  00000	55		 push	 ebp
  00001	8b ec		 mov	 ebp, esp
  00003	81 ec dc 00 00
	00		 sub	 esp, 220		; 000000dcH
  00009	53		 push	 ebx
  0000a	56		 push	 esi
  0000b	57		 push	 edi
  0000c	8d bd 24 ff ff
	ff		 lea	 edi, DWORD PTR [ebp-220]
  00012	b9 37 00 00 00	 mov	 ecx, 55			; 00000037H
  00017	b8 cc cc cc cc	 mov	 eax, -858993460		; ccccccccH
  0001c	f3 ab		 rep stosd

; 54   :   size_t l;
; 55   :   const char *s = luaL_checklstring(L, arg, &l);

  0001e	8d 45 f8	 lea	 eax, DWORD PTR _l$[ebp]
  00021	50		 push	 eax
  00022	8b 4d 10	 mov	 ecx, DWORD PTR _arg$[ebp]
  00025	51		 push	 ecx
  00026	8b 55 08	 mov	 edx, DWORD PTR _L$[ebp]
  00029	52		 push	 edx
  0002a	e8 00 00 00 00	 call	 _luaL_checklstring
  0002f	83 c4 0c	 add	 esp, 12			; 0000000cH
  00032	89 45 ec	 mov	 DWORD PTR _s$[ebp], eax

; 56   :   luaL_addchar(b, '"');

  00035	8b 45 0c	 mov	 eax, DWORD PTR _b$[ebp]
  00038	05 0c 02 00 00	 add	 eax, 524		; 0000020cH
  0003d	8b 4d 0c	 mov	 ecx, DWORD PTR _b$[ebp]
  00040	39 01		 cmp	 DWORD PTR [ecx], eax
  00042	72 0c		 jb	 SHORT $LN11@addquoted
  00044	8b 55 0c	 mov	 edx, DWORD PTR _b$[ebp]
  00047	52		 push	 edx
  00048	e8 00 00 00 00	 call	 _luaL_prepbuffer
  0004d	83 c4 04	 add	 esp, 4
$LN11@addquoted:
  00050	8b 45 0c	 mov	 eax, DWORD PTR _b$[ebp]
  00053	8b 08		 mov	 ecx, DWORD PTR [eax]
  00055	c6 01 22	 mov	 BYTE PTR [ecx], 34	; 00000022H
  00058	8b 55 0c	 mov	 edx, DWORD PTR _b$[ebp]
  0005b	8b 02		 mov	 eax, DWORD PTR [edx]
  0005d	83 c0 01	 add	 eax, 1
  00060	8b 4d 0c	 mov	 ecx, DWORD PTR _b$[ebp]
  00063	89 01		 mov	 DWORD PTR [ecx], eax
$LN2@addquoted:

; 57   :   while (l--) {

  00065	8b 45 f8	 mov	 eax, DWORD PTR _l$[ebp]
  00068	89 85 24 ff ff
	ff		 mov	 DWORD PTR tv81[ebp], eax
  0006e	8b 4d f8	 mov	 ecx, DWORD PTR _l$[ebp]
  00071	83 e9 01	 sub	 ecx, 1
  00074	89 4d f8	 mov	 DWORD PTR _l$[ebp], ecx
  00077	83 bd 24 ff ff
	ff 00		 cmp	 DWORD PTR tv81[ebp], 0
  0007e	0f 84 ff 00 00
	00		 je	 $LN3@addquoted

; 58   :     switch (*s) {

  00084	8b 45 ec	 mov	 eax, DWORD PTR _s$[ebp]
  00087	0f be 08	 movsx	 ecx, BYTE PTR [eax]
  0008a	89 8d 24 ff ff
	ff		 mov	 DWORD PTR tv84[ebp], ecx
  00090	83 bd 24 ff ff
	ff 5c		 cmp	 DWORD PTR tv84[ebp], 92	; 0000005cH
  00097	0f 87 a4 00 00
	00		 ja	 $LN9@addquoted
  0009d	8b 95 24 ff ff
	ff		 mov	 edx, DWORD PTR tv84[ebp]
  000a3	0f b6 82 00 00
	00 00		 movzx	 eax, BYTE PTR $LN16@addquoted[edx]
  000aa	ff 24 85 00 00
	00 00		 jmp	 DWORD PTR $LN20@addquoted[eax*4]
$LN6@addquoted:

; 59   :       case '"': case '\\': case '\n': {
; 60   :         luaL_addchar(b, '\\');

  000b1	8b 45 0c	 mov	 eax, DWORD PTR _b$[ebp]
  000b4	05 0c 02 00 00	 add	 eax, 524		; 0000020cH
  000b9	8b 4d 0c	 mov	 ecx, DWORD PTR _b$[ebp]
  000bc	39 01		 cmp	 DWORD PTR [ecx], eax
  000be	72 0c		 jb	 SHORT $LN12@addquoted
  000c0	8b 55 0c	 mov	 edx, DWORD PTR _b$[ebp]
  000c3	52		 push	 edx
  000c4	e8 00 00 00 00	 call	 _luaL_prepbuffer
  000c9	83 c4 04	 add	 esp, 4
$LN12@addquoted:
  000cc	8b 45 0c	 mov	 eax, DWORD PTR _b$[ebp]
  000cf	8b 08		 mov	 ecx, DWORD PTR [eax]
  000d1	c6 01 5c	 mov	 BYTE PTR [ecx], 92	; 0000005cH
  000d4	8b 55 0c	 mov	 edx, DWORD PTR _b$[ebp]
  000d7	8b 02		 mov	 eax, DWORD PTR [edx]
  000d9	83 c0 01	 add	 eax, 1
  000dc	8b 4d 0c	 mov	 ecx, DWORD PTR _b$[ebp]
  000df	89 01		 mov	 DWORD PTR [ecx], eax

; 61   :         luaL_addchar(b, *s);

  000e1	8b 45 0c	 mov	 eax, DWORD PTR _b$[ebp]
  000e4	05 0c 02 00 00	 add	 eax, 524		; 0000020cH
  000e9	8b 4d 0c	 mov	 ecx, DWORD PTR _b$[ebp]
  000ec	39 01		 cmp	 DWORD PTR [ecx], eax
  000ee	72 0c		 jb	 SHORT $LN13@addquoted
  000f0	8b 55 0c	 mov	 edx, DWORD PTR _b$[ebp]
  000f3	52		 push	 edx
  000f4	e8 00 00 00 00	 call	 _luaL_prepbuffer
  000f9	83 c4 04	 add	 esp, 4
$LN13@addquoted:
  000fc	8b 45 0c	 mov	 eax, DWORD PTR _b$[ebp]
  000ff	8b 08		 mov	 ecx, DWORD PTR [eax]
  00101	8b 55 ec	 mov	 edx, DWORD PTR _s$[ebp]
  00104	8a 02		 mov	 al, BYTE PTR [edx]
  00106	88 01		 mov	 BYTE PTR [ecx], al
  00108	8b 4d 0c	 mov	 ecx, DWORD PTR _b$[ebp]
  0010b	8b 11		 mov	 edx, DWORD PTR [ecx]
  0010d	83 c2 01	 add	 edx, 1
  00110	8b 45 0c	 mov	 eax, DWORD PTR _b$[ebp]
  00113	89 10		 mov	 DWORD PTR [eax], edx

; 62   :         break;

  00115	eb 5e		 jmp	 SHORT $LN4@addquoted
$LN7@addquoted:

; 63   :       }
; 64   :       case '\r': {
; 65   :         luaL_addlstring(b, "\\r", 2);

  00117	6a 02		 push	 2
  00119	68 00 00 00 00	 push	 OFFSET ??_C@_02HIBBOKEN@?2r?$AA@
  0011e	8b 45 0c	 mov	 eax, DWORD PTR _b$[ebp]
  00121	50		 push	 eax
  00122	e8 00 00 00 00	 call	 _luaL_addlstring
  00127	83 c4 0c	 add	 esp, 12			; 0000000cH

; 66   :         break;

  0012a	eb 49		 jmp	 SHORT $LN4@addquoted
$LN8@addquoted:

; 67   :       }
; 68   :       case '\0': {
; 69   :         luaL_addlstring(b, "\\000", 4);

  0012c	6a 04		 push	 4
  0012e	68 00 00 00 00	 push	 OFFSET ??_C@_04MPDIABOK@?2000?$AA@
  00133	8b 45 0c	 mov	 eax, DWORD PTR _b$[ebp]
  00136	50		 push	 eax
  00137	e8 00 00 00 00	 call	 _luaL_addlstring
  0013c	83 c4 0c	 add	 esp, 12			; 0000000cH

; 70   :         break;

  0013f	eb 34		 jmp	 SHORT $LN4@addquoted
$LN9@addquoted:

; 71   :       }
; 72   :       default: {
; 73   :         luaL_addchar(b, *s);

  00141	8b 45 0c	 mov	 eax, DWORD PTR _b$[ebp]
  00144	05 0c 02 00 00	 add	 eax, 524		; 0000020cH
  00149	8b 4d 0c	 mov	 ecx, DWORD PTR _b$[ebp]
  0014c	39 01		 cmp	 DWORD PTR [ecx], eax
  0014e	72 0c		 jb	 SHORT $LN14@addquoted
  00150	8b 55 0c	 mov	 edx, DWORD PTR _b$[ebp]
  00153	52		 push	 edx
  00154	e8 00 00 00 00	 call	 _luaL_prepbuffer
  00159	83 c4 04	 add	 esp, 4
$LN14@addquoted:
  0015c	8b 45 0c	 mov	 eax, DWORD PTR _b$[ebp]
  0015f	8b 08		 mov	 ecx, DWORD PTR [eax]
  00161	8b 55 ec	 mov	 edx, DWORD PTR _s$[ebp]
  00164	8a 02		 mov	 al, BYTE PTR [edx]
  00166	88 01		 mov	 BYTE PTR [ecx], al
  00168	8b 4d 0c	 mov	 ecx, DWORD PTR _b$[ebp]
  0016b	8b 11		 mov	 edx, DWORD PTR [ecx]
  0016d	83 c2 01	 add	 edx, 1
  00170	8b 45 0c	 mov	 eax, DWORD PTR _b$[ebp]
  00173	89 10		 mov	 DWORD PTR [eax], edx
$LN4@addquoted:

; 74   :         break;
; 75   :       }
; 76   :     }
; 77   :     s++;

  00175	8b 45 ec	 mov	 eax, DWORD PTR _s$[ebp]
  00178	83 c0 01	 add	 eax, 1
  0017b	89 45 ec	 mov	 DWORD PTR _s$[ebp], eax

; 78   :   }

  0017e	e9 e2 fe ff ff	 jmp	 $LN2@addquoted
$LN3@addquoted:

; 79   :   luaL_addchar(b, '"');

  00183	8b 45 0c	 mov	 eax, DWORD PTR _b$[ebp]
  00186	05 0c 02 00 00	 add	 eax, 524		; 0000020cH
  0018b	8b 4d 0c	 mov	 ecx, DWORD PTR _b$[ebp]
  0018e	39 01		 cmp	 DWORD PTR [ecx], eax
  00190	72 0c		 jb	 SHORT $LN15@addquoted
  00192	8b 55 0c	 mov	 edx, DWORD PTR _b$[ebp]
  00195	52		 push	 edx
  00196	e8 00 00 00 00	 call	 _luaL_prepbuffer
  0019b	83 c4 04	 add	 esp, 4
$LN15@addquoted:
  0019e	8b 45 0c	 mov	 eax, DWORD PTR _b$[ebp]
  001a1	8b 08		 mov	 ecx, DWORD PTR [eax]
  001a3	c6 01 22	 mov	 BYTE PTR [ecx], 34	; 00000022H
  001a6	8b 55 0c	 mov	 edx, DWORD PTR _b$[ebp]
  001a9	8b 02		 mov	 eax, DWORD PTR [edx]
  001ab	83 c0 01	 add	 eax, 1
  001ae	8b 4d 0c	 mov	 ecx, DWORD PTR _b$[ebp]
  001b1	89 01		 mov	 DWORD PTR [ecx], eax

; 80   : }

  001b3	52		 push	 edx
  001b4	8b cd		 mov	 ecx, ebp
  001b6	50		 push	 eax
  001b7	8d 15 00 00 00
	00		 lea	 edx, DWORD PTR $LN19@addquoted
  001bd	e8 00 00 00 00	 call	 @_RTC_CheckStackVars@8
  001c2	58		 pop	 eax
  001c3	5a		 pop	 edx
  001c4	5f		 pop	 edi
  001c5	5e		 pop	 esi
  001c6	5b		 pop	 ebx
  001c7	81 c4 dc 00 00
	00		 add	 esp, 220		; 000000dcH
  001cd	3b ec		 cmp	 ebp, esp
  001cf	e8 00 00 00 00	 call	 __RTC_CheckEsp
  001d4	8b e5		 mov	 esp, ebp
  001d6	5d		 pop	 ebp
  001d7	c3		 ret	 0
$LN19@addquoted:
  001d8	01 00 00 00	 DD	 1
  001dc	00 00 00 00	 DD	 $LN18@addquoted
$LN18@addquoted:
  001e0	f8 ff ff ff	 DD	 -8			; fffffff8H
  001e4	04 00 00 00	 DD	 4
  001e8	00 00 00 00	 DD	 $LN17@addquoted
$LN17@addquoted:
  001ec	6c		 DB	 108			; 0000006cH
  001ed	00		 DB	 0
  001ee	66 90		 npad	 2
$LN20@addquoted:
  001f0	00 00 00 00	 DD	 $LN8@addquoted
  001f4	00 00 00 00	 DD	 $LN6@addquoted
  001f8	00 00 00 00	 DD	 $LN7@addquoted
  001fc	00 00 00 00	 DD	 $LN9@addquoted
$LN16@addquoted:
  00200	00		 DB	 0
  00201	03		 DB	 3
  00202	03		 DB	 3
  00203	03		 DB	 3
  00204	03		 DB	 3
  00205	03		 DB	 3
  00206	03		 DB	 3
  00207	03		 DB	 3
  00208	03		 DB	 3
  00209	03		 DB	 3
  0020a	01		 DB	 1
  0020b	03		 DB	 3
  0020c	03		 DB	 3
  0020d	02		 DB	 2
  0020e	03		 DB	 3
  0020f	03		 DB	 3
  00210	03		 DB	 3
  00211	03		 DB	 3
  00212	03		 DB	 3
  00213	03		 DB	 3
  00214	03		 DB	 3
  00215	03		 DB	 3
  00216	03		 DB	 3
  00217	03		 DB	 3
  00218	03		 DB	 3
  00219	03		 DB	 3
  0021a	03		 DB	 3
  0021b	03		 DB	 3
  0021c	03		 DB	 3
  0021d	03		 DB	 3
  0021e	03		 DB	 3
  0021f	03		 DB	 3
  00220	03		 DB	 3
  00221	03		 DB	 3
  00222	01		 DB	 1
  00223	03		 DB	 3
  00224	03		 DB	 3
  00225	03		 DB	 3
  00226	03		 DB	 3
  00227	03		 DB	 3
  00228	03		 DB	 3
  00229	03		 DB	 3
  0022a	03		 DB	 3
  0022b	03		 DB	 3
  0022c	03		 DB	 3
  0022d	03		 DB	 3
  0022e	03		 DB	 3
  0022f	03		 DB	 3
  00230	03		 DB	 3
  00231	03		 DB	 3
  00232	03		 DB	 3
  00233	03		 DB	 3
  00234	03		 DB	 3
  00235	03		 DB	 3
  00236	03		 DB	 3
  00237	03		 DB	 3
  00238	03		 DB	 3
  00239	03		 DB	 3
  0023a	03		 DB	 3
  0023b	03		 DB	 3
  0023c	03		 DB	 3
  0023d	03		 DB	 3
  0023e	03		 DB	 3
  0023f	03		 DB	 3
  00240	03		 DB	 3
  00241	03		 DB	 3
  00242	03		 DB	 3
  00243	03		 DB	 3
  00244	03		 DB	 3
  00245	03		 DB	 3
  00246	03		 DB	 3
  00247	03		 DB	 3
  00248	03		 DB	 3
  00249	03		 DB	 3
  0024a	03		 DB	 3
  0024b	03		 DB	 3
  0024c	03		 DB	 3
  0024d	03		 DB	 3
  0024e	03		 DB	 3
  0024f	03		 DB	 3
  00250	03		 DB	 3
  00251	03		 DB	 3
  00252	03		 DB	 3
  00253	03		 DB	 3
  00254	03		 DB	 3
  00255	03		 DB	 3
  00256	03		 DB	 3
  00257	03		 DB	 3
  00258	03		 DB	 3
  00259	03		 DB	 3
  0025a	03		 DB	 3
  0025b	03		 DB	 3
  0025c	01		 DB	 1
?addquoted@@YAXPAUlua_State@@PAUluaL_Buffer@@H@Z ENDP	; addquoted
_TEXT	ENDS
; Function compile flags: /Odtp /RTCsu /ZI
; File c:\users\administrator\desktop\????? ??\????? ??\client source code\mylua\sa.cpp
;	COMDAT ?addintlen@@YAXPAD@Z
_TEXT	SEGMENT
_spec$ = -17						; size = 1
_l$ = -8						; size = 4
_form$ = 8						; size = 4
?addintlen@@YAXPAD@Z PROC				; addintlen, COMDAT

; 45   : static void addintlen (char *form) {

  00000	55		 push	 ebp
  00001	8b ec		 mov	 ebp, esp
  00003	81 ec d8 00 00
	00		 sub	 esp, 216		; 000000d8H
  00009	53		 push	 ebx
  0000a	56		 push	 esi
  0000b	57		 push	 edi
  0000c	8d bd 28 ff ff
	ff		 lea	 edi, DWORD PTR [ebp-216]
  00012	b9 36 00 00 00	 mov	 ecx, 54			; 00000036H
  00017	b8 cc cc cc cc	 mov	 eax, -858993460		; ccccccccH
  0001c	f3 ab		 rep stosd

; 46   :   size_t l = strlen(form);

  0001e	8b 45 08	 mov	 eax, DWORD PTR _form$[ebp]
  00021	50		 push	 eax
  00022	e8 00 00 00 00	 call	 _strlen
  00027	83 c4 04	 add	 esp, 4
  0002a	89 45 f8	 mov	 DWORD PTR _l$[ebp], eax

; 47   :   char spec = form[l - 1];

  0002d	8b 45 08	 mov	 eax, DWORD PTR _form$[ebp]
  00030	03 45 f8	 add	 eax, DWORD PTR _l$[ebp]
  00033	8a 48 ff	 mov	 cl, BYTE PTR [eax-1]
  00036	88 4d ef	 mov	 BYTE PTR _spec$[ebp], cl

; 48   :   strcpy(form + l - 1, LUA_INTFRMLEN);

  00039	68 00 00 00 00	 push	 OFFSET ??_C@_01HHGOMJKL@l?$AA@
  0003e	8b 45 f8	 mov	 eax, DWORD PTR _l$[ebp]
  00041	8b 4d 08	 mov	 ecx, DWORD PTR _form$[ebp]
  00044	8d 54 01 ff	 lea	 edx, DWORD PTR [ecx+eax-1]
  00048	52		 push	 edx
  00049	e8 00 00 00 00	 call	 _strcpy
  0004e	83 c4 08	 add	 esp, 8

; 49   :   form[l + sizeof(LUA_INTFRMLEN) - 2] = spec;

  00051	8b 45 08	 mov	 eax, DWORD PTR _form$[ebp]
  00054	03 45 f8	 add	 eax, DWORD PTR _l$[ebp]
  00057	8a 4d ef	 mov	 cl, BYTE PTR _spec$[ebp]
  0005a	88 08		 mov	 BYTE PTR [eax], cl

; 50   :   form[l + sizeof(LUA_INTFRMLEN) - 1] = '\0';

  0005c	8b 45 08	 mov	 eax, DWORD PTR _form$[ebp]
  0005f	03 45 f8	 add	 eax, DWORD PTR _l$[ebp]
  00062	c6 40 01 00	 mov	 BYTE PTR [eax+1], 0

; 51   : }

  00066	5f		 pop	 edi
  00067	5e		 pop	 esi
  00068	5b		 pop	 ebx
  00069	81 c4 d8 00 00
	00		 add	 esp, 216		; 000000d8H
  0006f	3b ec		 cmp	 ebp, esp
  00071	e8 00 00 00 00	 call	 __RTC_CheckEsp
  00076	8b e5		 mov	 esp, ebp
  00078	5d		 pop	 ebp
  00079	c3		 ret	 0
?addintlen@@YAXPAD@Z ENDP				; addintlen
_TEXT	ENDS
; Function compile flags: /Odtp /RTCsu /ZI
; File c:\users\administrator\desktop\????? ??\????? ??\client source code\mylua\sa.cpp
;	COMDAT ?scanformat@@YAPBDPAUlua_State@@PBDPAD@Z
_TEXT	SEGMENT
_p$ = -8						; size = 4
_L$ = 8							; size = 4
_strfrmt$ = 12						; size = 4
_form$ = 16						; size = 4
?scanformat@@YAPBDPAUlua_State@@PBDPAD@Z PROC		; scanformat, COMDAT

; 23   : static const char *scanformat (lua_State *L, const char *strfrmt, char *form) {

  00000	55		 push	 ebp
  00001	8b ec		 mov	 ebp, esp
  00003	81 ec cc 00 00
	00		 sub	 esp, 204		; 000000ccH
  00009	53		 push	 ebx
  0000a	56		 push	 esi
  0000b	57		 push	 edi
  0000c	8d bd 34 ff ff
	ff		 lea	 edi, DWORD PTR [ebp-204]
  00012	b9 33 00 00 00	 mov	 ecx, 51			; 00000033H
  00017	b8 cc cc cc cc	 mov	 eax, -858993460		; ccccccccH
  0001c	f3 ab		 rep stosd

; 24   :   const char *p = strfrmt;

  0001e	8b 45 0c	 mov	 eax, DWORD PTR _strfrmt$[ebp]
  00021	89 45 f8	 mov	 DWORD PTR _p$[ebp], eax
$LN2@scanformat:

; 25   :   while (*p != '\0' && strchr(FLAGS, *p) != NULL) p++; 

  00024	8b 45 f8	 mov	 eax, DWORD PTR _p$[ebp]
  00027	0f be 08	 movsx	 ecx, BYTE PTR [eax]
  0002a	85 c9		 test	 ecx, ecx
  0002c	74 2d		 je	 SHORT $LN3@scanformat
  0002e	8b 45 f8	 mov	 eax, DWORD PTR _p$[ebp]
  00031	0f be 08	 movsx	 ecx, BYTE PTR [eax]
  00034	8b f4		 mov	 esi, esp
  00036	51		 push	 ecx
  00037	68 00 00 00 00	 push	 OFFSET ??_C@_05GGBDHNF@?9?$CL?5?$CD0?$AA@
  0003c	ff 15 00 00 00
	00		 call	 DWORD PTR __imp__strchr
  00042	83 c4 08	 add	 esp, 8
  00045	3b f4		 cmp	 esi, esp
  00047	e8 00 00 00 00	 call	 __RTC_CheckEsp
  0004c	85 c0		 test	 eax, eax
  0004e	74 0b		 je	 SHORT $LN3@scanformat
  00050	8b 45 f8	 mov	 eax, DWORD PTR _p$[ebp]
  00053	83 c0 01	 add	 eax, 1
  00056	89 45 f8	 mov	 DWORD PTR _p$[ebp], eax
  00059	eb c9		 jmp	 SHORT $LN2@scanformat
$LN3@scanformat:

; 26   :   if ((size_t)(p - strfrmt) >= sizeof(FLAGS))

  0005b	8b 45 f8	 mov	 eax, DWORD PTR _p$[ebp]
  0005e	2b 45 0c	 sub	 eax, DWORD PTR _strfrmt$[ebp]
  00061	83 f8 06	 cmp	 eax, 6
  00064	72 11		 jb	 SHORT $LN4@scanformat

; 27   :     luaL_error(L, "invalid format (repeated flags)");

  00066	68 00 00 00 00	 push	 OFFSET ??_C@_0CA@COOMGCAO@invalid?5format?5?$CIrepeated?5flags?$CJ?$AA@
  0006b	8b 45 08	 mov	 eax, DWORD PTR _L$[ebp]
  0006e	50		 push	 eax
  0006f	e8 00 00 00 00	 call	 _luaL_error
  00074	83 c4 08	 add	 esp, 8
$LN4@scanformat:

; 28   :   if (isdigit(uchar(*p))) p++; 

  00077	8b 45 f8	 mov	 eax, DWORD PTR _p$[ebp]
  0007a	0f b6 08	 movzx	 ecx, BYTE PTR [eax]
  0007d	8b f4		 mov	 esi, esp
  0007f	51		 push	 ecx
  00080	ff 15 00 00 00
	00		 call	 DWORD PTR __imp__isdigit
  00086	83 c4 04	 add	 esp, 4
  00089	3b f4		 cmp	 esi, esp
  0008b	e8 00 00 00 00	 call	 __RTC_CheckEsp
  00090	85 c0		 test	 eax, eax
  00092	74 09		 je	 SHORT $LN5@scanformat
  00094	8b 45 f8	 mov	 eax, DWORD PTR _p$[ebp]
  00097	83 c0 01	 add	 eax, 1
  0009a	89 45 f8	 mov	 DWORD PTR _p$[ebp], eax
$LN5@scanformat:

; 29   :   if (isdigit(uchar(*p))) p++; 

  0009d	8b 45 f8	 mov	 eax, DWORD PTR _p$[ebp]
  000a0	0f b6 08	 movzx	 ecx, BYTE PTR [eax]
  000a3	8b f4		 mov	 esi, esp
  000a5	51		 push	 ecx
  000a6	ff 15 00 00 00
	00		 call	 DWORD PTR __imp__isdigit
  000ac	83 c4 04	 add	 esp, 4
  000af	3b f4		 cmp	 esi, esp
  000b1	e8 00 00 00 00	 call	 __RTC_CheckEsp
  000b6	85 c0		 test	 eax, eax
  000b8	74 09		 je	 SHORT $LN6@scanformat
  000ba	8b 45 f8	 mov	 eax, DWORD PTR _p$[ebp]
  000bd	83 c0 01	 add	 eax, 1
  000c0	89 45 f8	 mov	 DWORD PTR _p$[ebp], eax
$LN6@scanformat:

; 30   :   if (*p == '.') {

  000c3	8b 45 f8	 mov	 eax, DWORD PTR _p$[ebp]
  000c6	0f be 08	 movsx	 ecx, BYTE PTR [eax]
  000c9	83 f9 2e	 cmp	 ecx, 46			; 0000002eH
  000cc	75 55		 jne	 SHORT $LN7@scanformat

; 31   :     p++;

  000ce	8b 45 f8	 mov	 eax, DWORD PTR _p$[ebp]
  000d1	83 c0 01	 add	 eax, 1
  000d4	89 45 f8	 mov	 DWORD PTR _p$[ebp], eax

; 32   :     if (isdigit(uchar(*p))) p++;

  000d7	8b 45 f8	 mov	 eax, DWORD PTR _p$[ebp]
  000da	0f b6 08	 movzx	 ecx, BYTE PTR [eax]
  000dd	8b f4		 mov	 esi, esp
  000df	51		 push	 ecx
  000e0	ff 15 00 00 00
	00		 call	 DWORD PTR __imp__isdigit
  000e6	83 c4 04	 add	 esp, 4
  000e9	3b f4		 cmp	 esi, esp
  000eb	e8 00 00 00 00	 call	 __RTC_CheckEsp
  000f0	85 c0		 test	 eax, eax
  000f2	74 09		 je	 SHORT $LN8@scanformat
  000f4	8b 45 f8	 mov	 eax, DWORD PTR _p$[ebp]
  000f7	83 c0 01	 add	 eax, 1
  000fa	89 45 f8	 mov	 DWORD PTR _p$[ebp], eax
$LN8@scanformat:

; 33   :     if (isdigit(uchar(*p))) p++; 

  000fd	8b 45 f8	 mov	 eax, DWORD PTR _p$[ebp]
  00100	0f b6 08	 movzx	 ecx, BYTE PTR [eax]
  00103	8b f4		 mov	 esi, esp
  00105	51		 push	 ecx
  00106	ff 15 00 00 00
	00		 call	 DWORD PTR __imp__isdigit
  0010c	83 c4 04	 add	 esp, 4
  0010f	3b f4		 cmp	 esi, esp
  00111	e8 00 00 00 00	 call	 __RTC_CheckEsp
  00116	85 c0		 test	 eax, eax
  00118	74 09		 je	 SHORT $LN7@scanformat
  0011a	8b 45 f8	 mov	 eax, DWORD PTR _p$[ebp]
  0011d	83 c0 01	 add	 eax, 1
  00120	89 45 f8	 mov	 DWORD PTR _p$[ebp], eax
$LN7@scanformat:

; 34   :   }
; 35   :   if (isdigit(uchar(*p)))

  00123	8b 45 f8	 mov	 eax, DWORD PTR _p$[ebp]
  00126	0f b6 08	 movzx	 ecx, BYTE PTR [eax]
  00129	8b f4		 mov	 esi, esp
  0012b	51		 push	 ecx
  0012c	ff 15 00 00 00
	00		 call	 DWORD PTR __imp__isdigit
  00132	83 c4 04	 add	 esp, 4
  00135	3b f4		 cmp	 esi, esp
  00137	e8 00 00 00 00	 call	 __RTC_CheckEsp
  0013c	85 c0		 test	 eax, eax
  0013e	74 11		 je	 SHORT $LN10@scanformat

; 36   :     luaL_error(L, "invalid format (width or precision too long)");

  00140	68 00 00 00 00	 push	 OFFSET ??_C@_0CN@KALFEKPN@invalid?5format?5?$CIwidth?5or?5precisi@
  00145	8b 45 08	 mov	 eax, DWORD PTR _L$[ebp]
  00148	50		 push	 eax
  00149	e8 00 00 00 00	 call	 _luaL_error
  0014e	83 c4 08	 add	 esp, 8
$LN10@scanformat:

; 37   :   *(form++) = '%';

  00151	8b 45 10	 mov	 eax, DWORD PTR _form$[ebp]
  00154	c6 00 25	 mov	 BYTE PTR [eax], 37	; 00000025H
  00157	8b 4d 10	 mov	 ecx, DWORD PTR _form$[ebp]
  0015a	83 c1 01	 add	 ecx, 1
  0015d	89 4d 10	 mov	 DWORD PTR _form$[ebp], ecx

; 38   :   strncpy(form, strfrmt, p - strfrmt + 1);

  00160	8b 45 f8	 mov	 eax, DWORD PTR _p$[ebp]
  00163	2b 45 0c	 sub	 eax, DWORD PTR _strfrmt$[ebp]
  00166	83 c0 01	 add	 eax, 1
  00169	8b f4		 mov	 esi, esp
  0016b	50		 push	 eax
  0016c	8b 4d 0c	 mov	 ecx, DWORD PTR _strfrmt$[ebp]
  0016f	51		 push	 ecx
  00170	8b 55 10	 mov	 edx, DWORD PTR _form$[ebp]
  00173	52		 push	 edx
  00174	ff 15 00 00 00
	00		 call	 DWORD PTR __imp__strncpy
  0017a	83 c4 0c	 add	 esp, 12			; 0000000cH
  0017d	3b f4		 cmp	 esi, esp
  0017f	e8 00 00 00 00	 call	 __RTC_CheckEsp

; 39   :   form += p - strfrmt + 1;

  00184	8b 45 f8	 mov	 eax, DWORD PTR _p$[ebp]
  00187	2b 45 0c	 sub	 eax, DWORD PTR _strfrmt$[ebp]
  0018a	8b 4d 10	 mov	 ecx, DWORD PTR _form$[ebp]
  0018d	8d 54 01 01	 lea	 edx, DWORD PTR [ecx+eax+1]
  00191	89 55 10	 mov	 DWORD PTR _form$[ebp], edx

; 40   :   *form = '\0';

  00194	8b 45 10	 mov	 eax, DWORD PTR _form$[ebp]
  00197	c6 00 00	 mov	 BYTE PTR [eax], 0

; 41   :   return p;

  0019a	8b 45 f8	 mov	 eax, DWORD PTR _p$[ebp]

; 42   : }

  0019d	5f		 pop	 edi
  0019e	5e		 pop	 esi
  0019f	5b		 pop	 ebx
  001a0	81 c4 cc 00 00
	00		 add	 esp, 204		; 000000ccH
  001a6	3b ec		 cmp	 ebp, esp
  001a8	e8 00 00 00 00	 call	 __RTC_CheckEsp
  001ad	8b e5		 mov	 esp, ebp
  001af	5d		 pop	 ebp
  001b0	c3		 ret	 0
?scanformat@@YAPBDPAUlua_State@@PBDPAD@Z ENDP		; scanformat
_TEXT	ENDS
; Function compile flags: /Odtp /RTCsu /ZI
; File c:\users\administrator\desktop\????? ??\????? ??\client source code\mylua\sa.cpp
;	COMDAT ?luaopen_Sa@@YAHPAUlua_State@@@Z
_TEXT	SEGMENT
_L$ = 8							; size = 4
?luaopen_Sa@@YAHPAUlua_State@@@Z PROC			; luaopen_Sa, COMDAT

; 416  : LUALIB_API int luaopen_Sa (lua_State *L) {

  00000	55		 push	 ebp
  00001	8b ec		 mov	 ebp, esp
  00003	81 ec c0 00 00
	00		 sub	 esp, 192		; 000000c0H
  00009	53		 push	 ebx
  0000a	56		 push	 esi
  0000b	57		 push	 edi
  0000c	8d bd 40 ff ff
	ff		 lea	 edi, DWORD PTR [ebp-192]
  00012	b9 30 00 00 00	 mov	 ecx, 48			; 00000030H
  00017	b8 cc cc cc cc	 mov	 eax, -858993460		; ccccccccH
  0001c	f3 ab		 rep stosd

; 417  : 	luaL_register(L, "sa", salib);

  0001e	68 00 00 00 00	 push	 OFFSET ?salib@@3QBUluaL_Reg@@B
  00023	68 00 00 00 00	 push	 OFFSET ??_C@_02CKOPKKAC@sa?$AA@
  00028	8b 45 08	 mov	 eax, DWORD PTR _L$[ebp]
  0002b	50		 push	 eax
  0002c	e8 00 00 00 00	 call	 _luaL_register
  00031	83 c4 0c	 add	 esp, 12			; 0000000cH

; 418  : 	return 1;

  00034	b8 01 00 00 00	 mov	 eax, 1

; 419  : }

  00039	5f		 pop	 edi
  0003a	5e		 pop	 esi
  0003b	5b		 pop	 ebx
  0003c	81 c4 c0 00 00
	00		 add	 esp, 192		; 000000c0H
  00042	3b ec		 cmp	 ebp, esp
  00044	e8 00 00 00 00	 call	 __RTC_CheckEsp
  00049	8b e5		 mov	 esp, ebp
  0004b	5d		 pop	 ebp
  0004c	c3		 ret	 0
?luaopen_Sa@@YAHPAUlua_State@@@Z ENDP			; luaopen_Sa
_TEXT	ENDS
; Function compile flags: /Odtp /RTCsu /ZI
; File c:\program files (x86)\windows kits\10\include\10.0.10240.0\ucrt\stdio.h
;	COMDAT _sprintf
_TEXT	SEGMENT
__ArgList$ = -20					; size = 4
__Result$ = -8						; size = 4
__Buffer$ = 8						; size = 4
__Format$ = 12						; size = 4
_sprintf PROC						; COMDAT

; 1776 : {

  00000	55		 push	 ebp
  00001	8b ec		 mov	 ebp, esp
  00003	81 ec d8 00 00
	00		 sub	 esp, 216		; 000000d8H
  00009	53		 push	 ebx
  0000a	56		 push	 esi
  0000b	57		 push	 edi
  0000c	8d bd 28 ff ff
	ff		 lea	 edi, DWORD PTR [ebp-216]
  00012	b9 36 00 00 00	 mov	 ecx, 54			; 00000036H
  00017	b8 cc cc cc cc	 mov	 eax, -858993460		; ccccccccH
  0001c	f3 ab		 rep stosd

; 1777 :     int _Result;
; 1778 :     va_list _ArgList;
; 1779 :     __crt_va_start(_ArgList, _Format);

  0001e	e8 00 00 00 00	 call	 ??$__vcrt_va_start_verify_argument_type@QBD@@YAXXZ ; __vcrt_va_start_verify_argument_type<char const * const>
  00023	8d 45 10	 lea	 eax, DWORD PTR __Format$[ebp+4]
  00026	89 45 ec	 mov	 DWORD PTR __ArgList$[ebp], eax

; 1780 : 
; 1781 :     #pragma warning(push)
; 1782 :     #pragma warning(disable: 4996) // Deprecation
; 1783 :     _Result = _vsprintf_l(_Buffer, _Format, NULL, _ArgList);

  00029	8b 45 ec	 mov	 eax, DWORD PTR __ArgList$[ebp]
  0002c	50		 push	 eax
  0002d	6a 00		 push	 0
  0002f	8b 4d 0c	 mov	 ecx, DWORD PTR __Format$[ebp]
  00032	51		 push	 ecx
  00033	8b 55 08	 mov	 edx, DWORD PTR __Buffer$[ebp]
  00036	52		 push	 edx
  00037	e8 00 00 00 00	 call	 __vsprintf_l
  0003c	83 c4 10	 add	 esp, 16			; 00000010H
  0003f	89 45 f8	 mov	 DWORD PTR __Result$[ebp], eax

; 1784 :     #pragma warning(pop)
; 1785 : 
; 1786 :     __crt_va_end(_ArgList);

  00042	c7 45 ec 00 00
	00 00		 mov	 DWORD PTR __ArgList$[ebp], 0

; 1787 :     return _Result;

  00049	8b 45 f8	 mov	 eax, DWORD PTR __Result$[ebp]

; 1788 : }

  0004c	5f		 pop	 edi
  0004d	5e		 pop	 esi
  0004e	5b		 pop	 ebx
  0004f	81 c4 d8 00 00
	00		 add	 esp, 216		; 000000d8H
  00055	3b ec		 cmp	 ebp, esp
  00057	e8 00 00 00 00	 call	 __RTC_CheckEsp
  0005c	8b e5		 mov	 esp, ebp
  0005e	5d		 pop	 ebp
  0005f	c3		 ret	 0
_sprintf ENDP
_TEXT	ENDS
; Function compile flags: /Odtp /RTCsu /ZI
; File c:\program files (x86)\windows kits\10\include\10.0.10240.0\ucrt\stdio.h
;	COMDAT __vsprintf_l
_TEXT	SEGMENT
__Buffer$ = 8						; size = 4
__Format$ = 12						; size = 4
__Locale$ = 16						; size = 4
__ArgList$ = 20						; size = 4
__vsprintf_l PROC					; COMDAT

; 1455 : {

  00000	55		 push	 ebp
  00001	8b ec		 mov	 ebp, esp
  00003	81 ec c0 00 00
	00		 sub	 esp, 192		; 000000c0H
  00009	53		 push	 ebx
  0000a	56		 push	 esi
  0000b	57		 push	 edi
  0000c	8d bd 40 ff ff
	ff		 lea	 edi, DWORD PTR [ebp-192]
  00012	b9 30 00 00 00	 mov	 ecx, 48			; 00000030H
  00017	b8 cc cc cc cc	 mov	 eax, -858993460		; ccccccccH
  0001c	f3 ab		 rep stosd

; 1456 :     #pragma warning(push)
; 1457 :     #pragma warning(disable: 4996) // Deprecation
; 1458 :     return _vsnprintf_l(_Buffer, (size_t)-1, _Format, _Locale, _ArgList);

  0001e	8b 45 14	 mov	 eax, DWORD PTR __ArgList$[ebp]
  00021	50		 push	 eax
  00022	8b 4d 10	 mov	 ecx, DWORD PTR __Locale$[ebp]
  00025	51		 push	 ecx
  00026	8b 55 0c	 mov	 edx, DWORD PTR __Format$[ebp]
  00029	52		 push	 edx
  0002a	6a ff		 push	 -1
  0002c	8b 45 08	 mov	 eax, DWORD PTR __Buffer$[ebp]
  0002f	50		 push	 eax
  00030	e8 00 00 00 00	 call	 __vsnprintf_l
  00035	83 c4 14	 add	 esp, 20			; 00000014H

; 1459 :     #pragma warning(pop)
; 1460 : }

  00038	5f		 pop	 edi
  00039	5e		 pop	 esi
  0003a	5b		 pop	 ebx
  0003b	81 c4 c0 00 00
	00		 add	 esp, 192		; 000000c0H
  00041	3b ec		 cmp	 ebp, esp
  00043	e8 00 00 00 00	 call	 __RTC_CheckEsp
  00048	8b e5		 mov	 esp, ebp
  0004a	5d		 pop	 ebp
  0004b	c3		 ret	 0
__vsprintf_l ENDP
_TEXT	ENDS
; Function compile flags: /Odtp /RTCsu /ZI
; File c:\program files (x86)\windows kits\10\include\10.0.10240.0\ucrt\stdio.h
;	COMDAT __vsnprintf_l
_TEXT	SEGMENT
tv74 = -208						; size = 4
__Result$ = -8						; size = 4
__Buffer$ = 8						; size = 4
__BufferCount$ = 12					; size = 4
__Format$ = 16						; size = 4
__Locale$ = 20						; size = 4
__ArgList$ = 24						; size = 4
__vsnprintf_l PROC					; COMDAT

; 1385 : {

  00000	55		 push	 ebp
  00001	8b ec		 mov	 ebp, esp
  00003	81 ec d0 00 00
	00		 sub	 esp, 208		; 000000d0H
  00009	53		 push	 ebx
  0000a	56		 push	 esi
  0000b	57		 push	 edi
  0000c	8d bd 30 ff ff
	ff		 lea	 edi, DWORD PTR [ebp-208]
  00012	b9 34 00 00 00	 mov	 ecx, 52			; 00000034H
  00017	b8 cc cc cc cc	 mov	 eax, -858993460		; ccccccccH
  0001c	f3 ab		 rep stosd

; 1386 :     int const _Result = __stdio_common_vsprintf(

  0001e	8b f4		 mov	 esi, esp
  00020	8b 45 18	 mov	 eax, DWORD PTR __ArgList$[ebp]
  00023	50		 push	 eax
  00024	8b 4d 14	 mov	 ecx, DWORD PTR __Locale$[ebp]
  00027	51		 push	 ecx
  00028	8b 55 10	 mov	 edx, DWORD PTR __Format$[ebp]
  0002b	52		 push	 edx
  0002c	8b 45 0c	 mov	 eax, DWORD PTR __BufferCount$[ebp]
  0002f	50		 push	 eax
  00030	8b 4d 08	 mov	 ecx, DWORD PTR __Buffer$[ebp]
  00033	51		 push	 ecx
  00034	e8 00 00 00 00	 call	 ___local_stdio_printf_options
  00039	8b 10		 mov	 edx, DWORD PTR [eax]
  0003b	83 ca 01	 or	 edx, 1
  0003e	8b 40 04	 mov	 eax, DWORD PTR [eax+4]
  00041	50		 push	 eax
  00042	52		 push	 edx
  00043	ff 15 00 00 00
	00		 call	 DWORD PTR __imp____stdio_common_vsprintf
  00049	83 c4 1c	 add	 esp, 28			; 0000001cH
  0004c	3b f4		 cmp	 esi, esp
  0004e	e8 00 00 00 00	 call	 __RTC_CheckEsp
  00053	89 45 f8	 mov	 DWORD PTR __Result$[ebp], eax

; 1387 :         _CRT_INTERNAL_LOCAL_PRINTF_OPTIONS | _CRT_INTERNAL_PRINTF_LEGACY_VSPRINTF_NULL_TERMINATION,
; 1388 :         _Buffer, _BufferCount, _Format, _Locale, _ArgList);
; 1389 : 
; 1390 :     return _Result < 0 ? -1 : _Result;

  00056	83 7d f8 00	 cmp	 DWORD PTR __Result$[ebp], 0
  0005a	7d 0c		 jge	 SHORT $LN3@vsnprintf_
  0005c	c7 85 30 ff ff
	ff ff ff ff ff	 mov	 DWORD PTR tv74[ebp], -1
  00066	eb 09		 jmp	 SHORT $LN4@vsnprintf_
$LN3@vsnprintf_:
  00068	8b 45 f8	 mov	 eax, DWORD PTR __Result$[ebp]
  0006b	89 85 30 ff ff
	ff		 mov	 DWORD PTR tv74[ebp], eax
$LN4@vsnprintf_:
  00071	8b 85 30 ff ff
	ff		 mov	 eax, DWORD PTR tv74[ebp]

; 1391 : }

  00077	5f		 pop	 edi
  00078	5e		 pop	 esi
  00079	5b		 pop	 ebx
  0007a	81 c4 d0 00 00
	00		 add	 esp, 208		; 000000d0H
  00080	3b ec		 cmp	 ebp, esp
  00082	e8 00 00 00 00	 call	 __RTC_CheckEsp
  00087	8b e5		 mov	 esp, ebp
  00089	5d		 pop	 ebp
  0008a	c3		 ret	 0
__vsnprintf_l ENDP
_TEXT	ENDS
; Function compile flags: /Odtp /RTCsu /ZI
; File c:\program files (x86)\windows kits\10\include\10.0.10240.0\ucrt\stdio.h
;	COMDAT _printf
_TEXT	SEGMENT
__ArgList$ = -20					; size = 4
__Result$ = -8						; size = 4
__Format$ = 8						; size = 4
_printf	PROC						; COMDAT

; 950  : {

  00000	55		 push	 ebp
  00001	8b ec		 mov	 ebp, esp
  00003	81 ec d8 00 00
	00		 sub	 esp, 216		; 000000d8H
  00009	53		 push	 ebx
  0000a	56		 push	 esi
  0000b	57		 push	 edi
  0000c	8d bd 28 ff ff
	ff		 lea	 edi, DWORD PTR [ebp-216]
  00012	b9 36 00 00 00	 mov	 ecx, 54			; 00000036H
  00017	b8 cc cc cc cc	 mov	 eax, -858993460		; ccccccccH
  0001c	f3 ab		 rep stosd

; 951  :     int _Result;
; 952  :     va_list _ArgList;
; 953  :     __crt_va_start(_ArgList, _Format);

  0001e	e8 00 00 00 00	 call	 ??$__vcrt_va_start_verify_argument_type@QBD@@YAXXZ ; __vcrt_va_start_verify_argument_type<char const * const>
  00023	8d 45 0c	 lea	 eax, DWORD PTR __Format$[ebp+4]
  00026	89 45 ec	 mov	 DWORD PTR __ArgList$[ebp], eax

; 954  :     _Result = _vfprintf_l(stdout, _Format, NULL, _ArgList);

  00029	8b 45 ec	 mov	 eax, DWORD PTR __ArgList$[ebp]
  0002c	50		 push	 eax
  0002d	6a 00		 push	 0
  0002f	8b 4d 08	 mov	 ecx, DWORD PTR __Format$[ebp]
  00032	51		 push	 ecx
  00033	8b f4		 mov	 esi, esp
  00035	6a 01		 push	 1
  00037	ff 15 00 00 00
	00		 call	 DWORD PTR __imp____acrt_iob_func
  0003d	83 c4 04	 add	 esp, 4
  00040	3b f4		 cmp	 esi, esp
  00042	e8 00 00 00 00	 call	 __RTC_CheckEsp
  00047	50		 push	 eax
  00048	e8 00 00 00 00	 call	 __vfprintf_l
  0004d	83 c4 10	 add	 esp, 16			; 00000010H
  00050	89 45 f8	 mov	 DWORD PTR __Result$[ebp], eax

; 955  :     __crt_va_end(_ArgList);

  00053	c7 45 ec 00 00
	00 00		 mov	 DWORD PTR __ArgList$[ebp], 0

; 956  :     return _Result;

  0005a	8b 45 f8	 mov	 eax, DWORD PTR __Result$[ebp]

; 957  : }

  0005d	5f		 pop	 edi
  0005e	5e		 pop	 esi
  0005f	5b		 pop	 ebx
  00060	81 c4 d8 00 00
	00		 add	 esp, 216		; 000000d8H
  00066	3b ec		 cmp	 ebp, esp
  00068	e8 00 00 00 00	 call	 __RTC_CheckEsp
  0006d	8b e5		 mov	 esp, ebp
  0006f	5d		 pop	 ebp
  00070	c3		 ret	 0
_printf	ENDP
_TEXT	ENDS
; Function compile flags: /Odtp /RTCsu /ZI
; File c:\program files (x86)\microsoft visual studio 14.0\vc\include\vadefs.h
;	COMDAT ??$__vcrt_va_start_verify_argument_type@QBD@@YAXXZ
_TEXT	SEGMENT
??$__vcrt_va_start_verify_argument_type@QBD@@YAXXZ PROC	; __vcrt_va_start_verify_argument_type<char const * const>, COMDAT

; 144  :         {

  00000	55		 push	 ebp
  00001	8b ec		 mov	 ebp, esp
  00003	81 ec c0 00 00
	00		 sub	 esp, 192		; 000000c0H
  00009	53		 push	 ebx
  0000a	56		 push	 esi
  0000b	57		 push	 edi
  0000c	8d bd 40 ff ff
	ff		 lea	 edi, DWORD PTR [ebp-192]
  00012	b9 30 00 00 00	 mov	 ecx, 48			; 00000030H
  00017	b8 cc cc cc cc	 mov	 eax, -858993460		; ccccccccH
  0001c	f3 ab		 rep stosd

; 145  :             static_assert(!__vcrt_va_list_is_reference<_Ty>::__the_value, "va_start argument must not have reference type and must not be parenthesized");
; 146  :         }

  0001e	5f		 pop	 edi
  0001f	5e		 pop	 esi
  00020	5b		 pop	 ebx
  00021	8b e5		 mov	 esp, ebp
  00023	5d		 pop	 ebp
  00024	c3		 ret	 0
??$__vcrt_va_start_verify_argument_type@QBD@@YAXXZ ENDP	; __vcrt_va_start_verify_argument_type<char const * const>
_TEXT	ENDS
; Function compile flags: /Odtp /RTCsu /ZI
; File c:\program files (x86)\windows kits\10\include\10.0.10240.0\ucrt\stdio.h
;	COMDAT __vfprintf_l
_TEXT	SEGMENT
__Stream$ = 8						; size = 4
__Format$ = 12						; size = 4
__Locale$ = 16						; size = 4
__ArgList$ = 20						; size = 4
__vfprintf_l PROC					; COMDAT

; 638  : {

  00000	55		 push	 ebp
  00001	8b ec		 mov	 ebp, esp
  00003	81 ec c0 00 00
	00		 sub	 esp, 192		; 000000c0H
  00009	53		 push	 ebx
  0000a	56		 push	 esi
  0000b	57		 push	 edi
  0000c	8d bd 40 ff ff
	ff		 lea	 edi, DWORD PTR [ebp-192]
  00012	b9 30 00 00 00	 mov	 ecx, 48			; 00000030H
  00017	b8 cc cc cc cc	 mov	 eax, -858993460		; ccccccccH
  0001c	f3 ab		 rep stosd

; 639  :     return __stdio_common_vfprintf(_CRT_INTERNAL_LOCAL_PRINTF_OPTIONS, _Stream, _Format, _Locale, _ArgList);

  0001e	8b f4		 mov	 esi, esp
  00020	8b 45 14	 mov	 eax, DWORD PTR __ArgList$[ebp]
  00023	50		 push	 eax
  00024	8b 4d 10	 mov	 ecx, DWORD PTR __Locale$[ebp]
  00027	51		 push	 ecx
  00028	8b 55 0c	 mov	 edx, DWORD PTR __Format$[ebp]
  0002b	52		 push	 edx
  0002c	8b 45 08	 mov	 eax, DWORD PTR __Stream$[ebp]
  0002f	50		 push	 eax
  00030	e8 00 00 00 00	 call	 ___local_stdio_printf_options
  00035	8b 48 04	 mov	 ecx, DWORD PTR [eax+4]
  00038	51		 push	 ecx
  00039	8b 10		 mov	 edx, DWORD PTR [eax]
  0003b	52		 push	 edx
  0003c	ff 15 00 00 00
	00		 call	 DWORD PTR __imp____stdio_common_vfprintf
  00042	83 c4 18	 add	 esp, 24			; 00000018H
  00045	3b f4		 cmp	 esi, esp
  00047	e8 00 00 00 00	 call	 __RTC_CheckEsp

; 640  : }

  0004c	5f		 pop	 edi
  0004d	5e		 pop	 esi
  0004e	5b		 pop	 ebx
  0004f	81 c4 c0 00 00
	00		 add	 esp, 192		; 000000c0H
  00055	3b ec		 cmp	 ebp, esp
  00057	e8 00 00 00 00	 call	 __RTC_CheckEsp
  0005c	8b e5		 mov	 esp, ebp
  0005e	5d		 pop	 ebp
  0005f	c3		 ret	 0
__vfprintf_l ENDP
_TEXT	ENDS
; Function compile flags: /Odtp /RTCsu /ZI
; File c:\program files (x86)\windows kits\10\include\10.0.10240.0\ucrt\corecrt_stdio_config.h
;	COMDAT ___local_stdio_printf_options
_TEXT	SEGMENT
___local_stdio_printf_options PROC			; COMDAT

; 73   : {

  00000	55		 push	 ebp
  00001	8b ec		 mov	 ebp, esp
  00003	81 ec c0 00 00
	00		 sub	 esp, 192		; 000000c0H
  00009	53		 push	 ebx
  0000a	56		 push	 esi
  0000b	57		 push	 edi
  0000c	8d bd 40 ff ff
	ff		 lea	 edi, DWORD PTR [ebp-192]
  00012	b9 30 00 00 00	 mov	 ecx, 48			; 00000030H
  00017	b8 cc cc cc cc	 mov	 eax, -858993460		; ccccccccH
  0001c	f3 ab		 rep stosd

; 74   :     static unsigned __int64 _OptionsStorage;
; 75   :     return &_OptionsStorage;

  0001e	b8 00 00 00 00	 mov	 eax, OFFSET ?_OptionsStorage@?1??__local_stdio_printf_options@@9@4_KA ; `__local_stdio_printf_options'::`2'::_OptionsStorage

; 76   : }

  00023	5f		 pop	 edi
  00024	5e		 pop	 esi
  00025	5b		 pop	 ebx
  00026	8b e5		 mov	 esp, ebp
  00028	5d		 pop	 ebp
  00029	c3		 ret	 0
___local_stdio_printf_options ENDP
_TEXT	ENDS
; Function compile flags: /Odtp /RTCsu /ZI
; File c:\program files (x86)\windows kits\10\include\10.0.10240.0\ucrt\string.h
;	COMDAT ?strchr@@YAPADQADH@Z
_TEXT	SEGMENT
__String$ = 8						; size = 4
__Ch$ = 12						; size = 4
?strchr@@YAPADQADH@Z PROC				; strchr, COMDAT

; 518  :     {

  00000	55		 push	 ebp
  00001	8b ec		 mov	 ebp, esp
  00003	81 ec c0 00 00
	00		 sub	 esp, 192		; 000000c0H
  00009	53		 push	 ebx
  0000a	56		 push	 esi
  0000b	57		 push	 edi
  0000c	8d bd 40 ff ff
	ff		 lea	 edi, DWORD PTR [ebp-192]
  00012	b9 30 00 00 00	 mov	 ecx, 48			; 00000030H
  00017	b8 cc cc cc cc	 mov	 eax, -858993460		; ccccccccH
  0001c	f3 ab		 rep stosd

; 519  :         return const_cast<char*>(strchr(static_cast<char const*>(_String), _Ch));

  0001e	8b f4		 mov	 esi, esp
  00020	8b 45 0c	 mov	 eax, DWORD PTR __Ch$[ebp]
  00023	50		 push	 eax
  00024	8b 4d 08	 mov	 ecx, DWORD PTR __String$[ebp]
  00027	51		 push	 ecx
  00028	ff 15 00 00 00
	00		 call	 DWORD PTR __imp__strchr
  0002e	83 c4 08	 add	 esp, 8
  00031	3b f4		 cmp	 esi, esp
  00033	e8 00 00 00 00	 call	 __RTC_CheckEsp

; 520  :     }

  00038	5f		 pop	 edi
  00039	5e		 pop	 esi
  0003a	5b		 pop	 ebx
  0003b	81 c4 c0 00 00
	00		 add	 esp, 192		; 000000c0H
  00041	3b ec		 cmp	 ebp, esp
  00043	e8 00 00 00 00	 call	 __RTC_CheckEsp
  00048	8b e5		 mov	 esp, ebp
  0004a	5d		 pop	 ebp
  0004b	c3		 ret	 0
?strchr@@YAPADQADH@Z ENDP				; strchr
_TEXT	ENDS
END
