; Listing generated by Microsoft (R) Optimizing Compiler Version 19.00.24215.1 

	TITLE	C:\Users\Administrator\Desktop\????? ??\????? ??\Client Source Code\system\savedata.cpp
	.686P
	.XMM
	include listing.inc
	.model	flat

INCLUDELIB MSVCRTD
INCLUDELIB OLDNAMES

PUBLIC	?savedataErrorCode@@3EA				; savedataErrorCode
PUBLIC	?sPetStatFlag@@3HA				; sPetStatFlag
PUBLIC	?fMapBgm@@3HA					; fMapBgm
PUBLIC	?sCharSide@@3HA					; sCharSide
_BSS	SEGMENT
?savedataErrorCode@@3EA DB 01H DUP (?)			; savedataErrorCode
	ALIGN	4

?sPetStatFlag@@3HA DD 01H DUP (?)			; sPetStatFlag
?fMapBgm@@3HA DD 01H DUP (?)				; fMapBgm
?sCharSide@@3HA DD 01H DUP (?)				; sCharSide
_BSS	ENDS
PUBLIC	?strstr@@YAPADQADQBD@Z				; strstr
PUBLIC	?saveUserSetting@@YAHXZ				; saveUserSetting
PUBLIC	?loadUserSetting@@YAHXZ				; loadUserSetting
PUBLIC	?setUserSetting@@YAXH@Z				; setUserSetting
PUBLIC	?getUserSetting@@YAXH@Z				; getUserSetting
PUBLIC	?clearUserSetting@@YAXH@Z			; clearUserSetting
PUBLIC	?setUserSoundOption@@YAXXZ			; setUserSoundOption
PUBLIC	?getUserSoundOption@@YAXXZ			; getUserSoundOption
PUBLIC	?setUserChatOption@@YAXXZ			; setUserChatOption
PUBLIC	?getUserChatOption@@YAXXZ			; getUserChatOption
PUBLIC	?setUserInterfaceOption@@YAXXZ			; setUserInterfaceOption
PUBLIC	?getUserInterfaceOption@@YAXXZ			; getUserInterfaceOption
PUBLIC	?saveNowState@@YAHXZ				; saveNowState
PUBLIC	?loadNowState@@YAHXZ				; loadNowState
PUBLIC	?createSaveFile@@YAHXZ				; createSaveFile
PUBLIC	??_C@_0N@DGECLGHJ@explorer?4exe?$AA@		; `string'
PUBLIC	??_C@_03BFHAFKOB@wb?$CL?$AA@			; `string'
PUBLIC	??_C@_0BC@OGIKFLLL@data?2savedata?4dat?$AA@	; `string'
PUBLIC	??_C@_03CCKOKKND@rb?$CL?$AA@			; `string'
EXTRN	___report_rangecheckfailure:PROC
EXTRN	__imp__fclose:PROC
EXTRN	__imp__ferror:PROC
EXTRN	__imp__fopen:PROC
EXTRN	__imp__fread:PROC
EXTRN	__imp__fwrite:PROC
EXTRN	_memset:PROC
EXTRN	__imp__strstr:PROC
EXTRN	?jEncode@@YAXPADHH0PAHH@Z:PROC			; jEncode
EXTRN	?jDecode@@YAXPADHH0PAH@Z:PROC			; jDecode
EXTRN	__imp__CloseHandle@4:PROC
EXTRN	__imp__OpenProcess@12:PROC
EXTRN	?lssproto_PETST_send@@YAXHHH@Z:PROC		; lssproto_PETST_send
EXTRN	_Process32First@8:PROC
EXTRN	_Process32Next@8:PROC
EXTRN	@_RTC_CheckStackVars@8:PROC
EXTRN	@__security_check_cookie@4:PROC
EXTRN	__RTC_CheckEsp:PROC
EXTRN	__RTC_InitBase:PROC
EXTRN	__RTC_Shutdown:PROC
EXTRN	__chkstk:PROC
EXTRN	?MyChatBuffer@@3USTR_BUFFER@@A:BYTE		; MyChatBuffer
EXTRN	?NowMaxChatLine@@3HA:DWORD			; NowMaxChatLine
EXTRN	?NowMaxVoice@@3HA:DWORD				; NowMaxVoice
EXTRN	?pc@@3UPC@@A:BYTE				; pc
EXTRN	?selectPcNo@@3FA:WORD				; selectPcNo
EXTRN	?stereo_flg@@3HA:DWORD				; stereo_flg
EXTRN	?t_music_se_volume@@3HA:DWORD			; t_music_se_volume
EXTRN	?t_music_bgm_volume@@3HA:DWORD			; t_music_bgm_volume
EXTRN	?t_music_bgm_pitch@@3PADA:BYTE			; t_music_bgm_pitch
EXTRN	?声音开关@@3HA:DWORD				; 声音开关
EXTRN	?MouseCursorFlag@@3HA:DWORD			; MouseCursorFlag
EXTRN	?sockfd@@3IA:DWORD				; sockfd
EXTRN	?hProcessSnap@@3PAXA:DWORD			; hProcessSnap
EXTRN	?hParentProcess@@3PAXA:DWORD			; hParentProcess
EXTRN	?dwPID@@3KA:DWORD				; dwPID
EXTRN	?pe32@@3UtagPROCESSENTRY32@@A:BYTE		; pe32
EXTRN	___security_cookie:DWORD
_BSS	SEGMENT
?savedatabuf@@3PAEA DB 07fH DUP (?)			; savedatabuf
_BSS	ENDS
;	COMDAT rtc$TMZ
rtc$TMZ	SEGMENT
__RTC_Shutdown.rtc$TMZ DD FLAT:__RTC_Shutdown
rtc$TMZ	ENDS
;	COMDAT rtc$IMZ
rtc$IMZ	SEGMENT
__RTC_InitBase.rtc$IMZ DD FLAT:__RTC_InitBase
rtc$IMZ	ENDS
;	COMDAT ??_C@_03CCKOKKND@rb?$CL?$AA@
CONST	SEGMENT
??_C@_03CCKOKKND@rb?$CL?$AA@ DB 'rb+', 00H		; `string'
CONST	ENDS
;	COMDAT ??_C@_0BC@OGIKFLLL@data?2savedata?4dat?$AA@
CONST	SEGMENT
??_C@_0BC@OGIKFLLL@data?2savedata?4dat?$AA@ DB 'data\savedata.dat', 00H ; `string'
CONST	ENDS
;	COMDAT ??_C@_03BFHAFKOB@wb?$CL?$AA@
CONST	SEGMENT
??_C@_03BFHAFKOB@wb?$CL?$AA@ DB 'wb+', 00H		; `string'
CONST	ENDS
;	COMDAT ??_C@_0N@DGECLGHJ@explorer?4exe?$AA@
CONST	SEGMENT
??_C@_0N@DGECLGHJ@explorer?4exe?$AA@ DB 'explorer.exe', 00H ; `string'
CONST	ENDS
; Function compile flags: /Odtp /RTCsu /ZI
; File c:\users\administrator\desktop\????? ??\????? ??\client source code\system\savedata.cpp
;	COMDAT ?createSaveFile@@YAHXZ
_TEXT	SEGMENT
_i$ = -4044						; size = 4
_writebufferlen$ = -4032				; size = 4
_writebuffer$ = -4020					; size = 4000
_fp$ = -12						; size = 4
__$ArrayPad$ = -4					; size = 4
?createSaveFile@@YAHXZ PROC				; createSaveFile, COMDAT

; 284  : {

  00000	55		 push	 ebp
  00001	8b ec		 mov	 ebp, esp
  00003	b8 d0 15 00 00	 mov	 eax, 5584		; 000015d0H
  00008	e8 00 00 00 00	 call	 __chkstk
  0000d	53		 push	 ebx
  0000e	56		 push	 esi
  0000f	57		 push	 edi
  00010	8d bd 30 ea ff
	ff		 lea	 edi, DWORD PTR [ebp-5584]
  00016	b9 74 05 00 00	 mov	 ecx, 1396		; 00000574H
  0001b	b8 cc cc cc cc	 mov	 eax, -858993460		; ccccccccH
  00020	f3 ab		 rep stosd
  00022	a1 00 00 00 00	 mov	 eax, DWORD PTR ___security_cookie
  00027	33 c5		 xor	 eax, ebp
  00029	89 45 fc	 mov	 DWORD PTR __$ArrayPad$[ebp], eax

; 285  : 	FILE *fp;
; 286  : 	char writebuffer[4000];
; 287  : 	int writebufferlen;
; 288  : 	int i;
; 289  : 
; 290  : 	// ?????????????
; 291  : 	memset( savedatabuf, 0, SAVEDATA_SIZE );

  0002c	6a 7f		 push	 127			; 0000007fH
  0002e	6a 00		 push	 0
  00030	68 00 00 00 00	 push	 OFFSET ?savedatabuf@@3PAEA
  00035	e8 00 00 00 00	 call	 _memset
  0003a	83 c4 0c	 add	 esp, 12			; 0000000cH

; 292  : 
; 293  : 	// ????????????V????
; 294  : 	*((unsigned short *)savedatabuf+SAVEDATA_VER) = SAVEDATA_VERSION;

  0003d	b8 06 00 00 00	 mov	 eax, 6
  00042	66 a3 00 00 00
	00		 mov	 WORD PTR ?savedatabuf@@3PAEA, ax

; 295  : 
; 296  : 	// ??k?@e
; 297  : 	savedatabuf[STEREO_FLAG]	= (unsigned char)stereo_flg;

  00048	b8 01 00 00 00	 mov	 eax, 1
  0004d	6b c8 24	 imul	 ecx, eax, 36
  00050	8a 15 00 00 00
	00		 mov	 dl, BYTE PTR ?stereo_flg@@3HA
  00056	88 91 00 00 00
	00		 mov	 BYTE PTR ?savedatabuf@@3PAEA[ecx], dl

; 298  : 	savedatabuf[SE_VOL]			= (unsigned char)t_music_se_volume;

  0005c	b8 01 00 00 00	 mov	 eax, 1
  00061	6b c8 25	 imul	 ecx, eax, 37
  00064	8a 15 00 00 00
	00		 mov	 dl, BYTE PTR ?t_music_se_volume@@3HA
  0006a	88 91 00 00 00
	00		 mov	 BYTE PTR ?savedatabuf@@3PAEA[ecx], dl

; 299  : 	savedatabuf[BGM_VOL]		= (unsigned char)t_music_bgm_volume;

  00070	b8 01 00 00 00	 mov	 eax, 1
  00075	6b c8 26	 imul	 ecx, eax, 38
  00078	8a 15 00 00 00
	00		 mov	 dl, BYTE PTR ?t_music_bgm_volume@@3HA
  0007e	88 91 00 00 00
	00		 mov	 BYTE PTR ?savedatabuf@@3PAEA[ecx], dl

; 300  : 	for( i = 0; i < 16; i++ )

  00084	c7 85 34 f0 ff
	ff 00 00 00 00	 mov	 DWORD PTR _i$[ebp], 0
  0008e	eb 0f		 jmp	 SHORT $LN4@createSave
$LN2@createSave:
  00090	8b 85 34 f0 ff
	ff		 mov	 eax, DWORD PTR _i$[ebp]
  00096	83 c0 01	 add	 eax, 1
  00099	89 85 34 f0 ff
	ff		 mov	 DWORD PTR _i$[ebp], eax
$LN4@createSave:
  0009f	83 bd 34 f0 ff
	ff 10		 cmp	 DWORD PTR _i$[ebp], 16	; 00000010H
  000a6	7d 1a		 jge	 SHORT $LN3@createSave

; 301  : 		savedatabuf[BGM_PITCH+i] = t_music_bgm_pitch[i];

  000a8	8b 85 34 f0 ff
	ff		 mov	 eax, DWORD PTR _i$[ebp]
  000ae	8b 8d 34 f0 ff
	ff		 mov	 ecx, DWORD PTR _i$[ebp]
  000b4	8a 91 00 00 00
	00		 mov	 dl, BYTE PTR ?t_music_bgm_pitch@@3PADA[ecx]
  000ba	88 90 27 00 00
	00		 mov	 BYTE PTR ?savedatabuf@@3PAEA[eax+39], dl
  000c0	eb ce		 jmp	 SHORT $LN2@createSave
$LN3@createSave:

; 302  : 
; 303  : 	savedatabuf[CHAT_LINE]		= 10;

  000c2	b8 01 00 00 00	 mov	 eax, 1
  000c7	6b c8 38	 imul	 ecx, eax, 56
  000ca	c6 81 00 00 00
	00 0a		 mov	 BYTE PTR ?savedatabuf@@3PAEA[ecx], 10 ; 0000000aH

; 304  : 	savedatabuf[CHAT_AREA]		= DEF_VOICE;

  000d1	b8 01 00 00 00	 mov	 eax, 1
  000d6	6b c8 39	 imul	 ecx, eax, 57
  000d9	c6 81 00 00 00
	00 03		 mov	 BYTE PTR ?savedatabuf@@3PAEA[ecx], 3

; 305  : 
; 306  : 
; 307  : 	// ??????????
; 308  : 	jEncode( (char *)savedatabuf, SAVEDATA_SIZE, 0,

  000e0	68 a0 0f 00 00	 push	 4000			; 00000fa0H
  000e5	8d 85 40 f0 ff
	ff		 lea	 eax, DWORD PTR _writebufferlen$[ebp]
  000eb	50		 push	 eax
  000ec	8d 8d 4c f0 ff
	ff		 lea	 ecx, DWORD PTR _writebuffer$[ebp]
  000f2	51		 push	 ecx
  000f3	6a 00		 push	 0
  000f5	6a 7f		 push	 127			; 0000007fH
  000f7	68 00 00 00 00	 push	 OFFSET ?savedatabuf@@3PAEA
  000fc	e8 00 00 00 00	 call	 ?jEncode@@YAXPADHH0PAHH@Z ; jEncode
  00101	83 c4 18	 add	 esp, 24			; 00000018H

; 309  : 		writebuffer, &writebufferlen, sizeof( writebuffer ) );
; 310  : #ifndef PROFILE_TEST
; 311  : 	if( (fp = fopen( SAVEFILE_NAME, "wb+" )) == NULL )

  00104	8b f4		 mov	 esi, esp
  00106	68 00 00 00 00	 push	 OFFSET ??_C@_03BFHAFKOB@wb?$CL?$AA@
  0010b	68 00 00 00 00	 push	 OFFSET ??_C@_0BC@OGIKFLLL@data?2savedata?4dat?$AA@
  00110	ff 15 00 00 00
	00		 call	 DWORD PTR __imp__fopen
  00116	83 c4 08	 add	 esp, 8
  00119	3b f4		 cmp	 esi, esp
  0011b	e8 00 00 00 00	 call	 __RTC_CheckEsp
  00120	89 45 f4	 mov	 DWORD PTR _fp$[ebp], eax
  00123	83 7d f4 00	 cmp	 DWORD PTR _fp$[ebp], 0
  00127	75 04		 jne	 SHORT $LN5@createSave

; 312  : #else
; 313  : 	if( (fp = fopen( "d:\\sa\\data\\savedata.dat", "wb+" )) == NULL )
; 314  : #endif
; 315  : 	{
; 316  : 		return FALSE;

  00129	33 c0		 xor	 eax, eax
  0012b	eb 4d		 jmp	 SHORT $LN1@createSave
$LN5@createSave:

; 317  : 	}
; 318  : 	if( fwrite( writebuffer, 1, writebufferlen, fp ) < (unsigned int)writebufferlen )

  0012d	8b f4		 mov	 esi, esp
  0012f	8b 45 f4	 mov	 eax, DWORD PTR _fp$[ebp]
  00132	50		 push	 eax
  00133	8b 8d 40 f0 ff
	ff		 mov	 ecx, DWORD PTR _writebufferlen$[ebp]
  00139	51		 push	 ecx
  0013a	6a 01		 push	 1
  0013c	8d 95 4c f0 ff
	ff		 lea	 edx, DWORD PTR _writebuffer$[ebp]
  00142	52		 push	 edx
  00143	ff 15 00 00 00
	00		 call	 DWORD PTR __imp__fwrite
  00149	83 c4 10	 add	 esp, 16			; 00000010H
  0014c	3b f4		 cmp	 esi, esp
  0014e	e8 00 00 00 00	 call	 __RTC_CheckEsp
  00153	3b 85 40 f0 ff
	ff		 cmp	 eax, DWORD PTR _writebufferlen$[ebp]
  00159	73 04		 jae	 SHORT $LN6@createSave

; 319  : 	{
; 320  : 		return FALSE;

  0015b	33 c0		 xor	 eax, eax
  0015d	eb 1b		 jmp	 SHORT $LN1@createSave
$LN6@createSave:

; 321  : 	}
; 322  : 
; 323  : 	fclose( fp );

  0015f	8b f4		 mov	 esi, esp
  00161	8b 45 f4	 mov	 eax, DWORD PTR _fp$[ebp]
  00164	50		 push	 eax
  00165	ff 15 00 00 00
	00		 call	 DWORD PTR __imp__fclose
  0016b	83 c4 04	 add	 esp, 4
  0016e	3b f4		 cmp	 esi, esp
  00170	e8 00 00 00 00	 call	 __RTC_CheckEsp

; 324  : 
; 325  : 	return TRUE;

  00175	b8 01 00 00 00	 mov	 eax, 1
$LN1@createSave:

; 326  : }

  0017a	52		 push	 edx
  0017b	8b cd		 mov	 ecx, ebp
  0017d	50		 push	 eax
  0017e	8d 15 00 00 00
	00		 lea	 edx, DWORD PTR $LN11@createSave
  00184	e8 00 00 00 00	 call	 @_RTC_CheckStackVars@8
  00189	58		 pop	 eax
  0018a	5a		 pop	 edx
  0018b	5f		 pop	 edi
  0018c	5e		 pop	 esi
  0018d	5b		 pop	 ebx
  0018e	8b 4d fc	 mov	 ecx, DWORD PTR __$ArrayPad$[ebp]
  00191	33 cd		 xor	 ecx, ebp
  00193	e8 00 00 00 00	 call	 @__security_check_cookie@4
  00198	81 c4 d0 15 00
	00		 add	 esp, 5584		; 000015d0H
  0019e	3b ec		 cmp	 ebp, esp
  001a0	e8 00 00 00 00	 call	 __RTC_CheckEsp
  001a5	8b e5		 mov	 esp, ebp
  001a7	5d		 pop	 ebp
  001a8	c3		 ret	 0
  001a9	0f 1f 00	 npad	 3
$LN11@createSave:
  001ac	02 00 00 00	 DD	 2
  001b0	00 00 00 00	 DD	 $LN10@createSave
$LN10@createSave:
  001b4	4c f0 ff ff	 DD	 -4020			; fffff04cH
  001b8	a0 0f 00 00	 DD	 4000			; 00000fa0H
  001bc	00 00 00 00	 DD	 $LN8@createSave
  001c0	40 f0 ff ff	 DD	 -4032			; fffff040H
  001c4	04 00 00 00	 DD	 4
  001c8	00 00 00 00	 DD	 $LN9@createSave
$LN9@createSave:
  001cc	77		 DB	 119			; 00000077H
  001cd	72		 DB	 114			; 00000072H
  001ce	69		 DB	 105			; 00000069H
  001cf	74		 DB	 116			; 00000074H
  001d0	65		 DB	 101			; 00000065H
  001d1	62		 DB	 98			; 00000062H
  001d2	75		 DB	 117			; 00000075H
  001d3	66		 DB	 102			; 00000066H
  001d4	66		 DB	 102			; 00000066H
  001d5	65		 DB	 101			; 00000065H
  001d6	72		 DB	 114			; 00000072H
  001d7	6c		 DB	 108			; 0000006cH
  001d8	65		 DB	 101			; 00000065H
  001d9	6e		 DB	 110			; 0000006eH
  001da	00		 DB	 0
$LN8@createSave:
  001db	77		 DB	 119			; 00000077H
  001dc	72		 DB	 114			; 00000072H
  001dd	69		 DB	 105			; 00000069H
  001de	74		 DB	 116			; 00000074H
  001df	65		 DB	 101			; 00000065H
  001e0	62		 DB	 98			; 00000062H
  001e1	75		 DB	 117			; 00000075H
  001e2	66		 DB	 102			; 00000066H
  001e3	66		 DB	 102			; 00000066H
  001e4	65		 DB	 101			; 00000065H
  001e5	72		 DB	 114			; 00000072H
  001e6	00		 DB	 0
?createSaveFile@@YAHXZ ENDP				; createSaveFile
_TEXT	ENDS
; Function compile flags: /Odtp /RTCsu /ZI
; File c:\users\administrator\desktop\????? ??\????? ??\client source code\system\savedata.cpp
;	COMDAT ?loadNowState@@YAHXZ
_TEXT	SEGMENT
$T1 = -5592						; size = 4
_tmpsavedatalen$ = -4044				; size = 4
_readbufferlen$ = -4032					; size = 4
_readbuffer$ = -4020					; size = 4000
_fp$ = -12						; size = 4
__$ArrayPad$ = -4					; size = 4
?loadNowState@@YAHXZ PROC				; loadNowState, COMDAT

; 208  : {

  00000	55		 push	 ebp
  00001	8b ec		 mov	 ebp, esp
  00003	b8 dc 15 00 00	 mov	 eax, 5596		; 000015dcH
  00008	e8 00 00 00 00	 call	 __chkstk
  0000d	53		 push	 ebx
  0000e	56		 push	 esi
  0000f	57		 push	 edi
  00010	8d bd 24 ea ff
	ff		 lea	 edi, DWORD PTR [ebp-5596]
  00016	b9 77 05 00 00	 mov	 ecx, 1399		; 00000577H
  0001b	b8 cc cc cc cc	 mov	 eax, -858993460		; ccccccccH
  00020	f3 ab		 rep stosd
  00022	a1 00 00 00 00	 mov	 eax, DWORD PTR ___security_cookie
  00027	33 c5		 xor	 eax, ebp
  00029	89 45 fc	 mov	 DWORD PTR __$ArrayPad$[ebp], eax

; 209  : 	FILE *fp;
; 210  : 	char readbuffer[4000];
; 211  : 	int readbufferlen;
; 212  : 	int tmpsavedatalen;
; 213  : 	savedataErrorCode = 0;

  0002c	c6 05 00 00 00
	00 00		 mov	 BYTE PTR ?savedataErrorCode@@3EA, 0 ; savedataErrorCode

; 214  : #ifndef PROFILE_TEST
; 215  : 	if( (fp = fopen( SAVEFILE_NAME, "rb+" )) == NULL ){

  00033	8b f4		 mov	 esi, esp
  00035	68 00 00 00 00	 push	 OFFSET ??_C@_03CCKOKKND@rb?$CL?$AA@
  0003a	68 00 00 00 00	 push	 OFFSET ??_C@_0BC@OGIKFLLL@data?2savedata?4dat?$AA@
  0003f	ff 15 00 00 00
	00		 call	 DWORD PTR __imp__fopen
  00045	83 c4 08	 add	 esp, 8
  00048	3b f4		 cmp	 esi, esp
  0004a	e8 00 00 00 00	 call	 __RTC_CheckEsp
  0004f	89 45 f4	 mov	 DWORD PTR _fp$[ebp], eax
  00052	83 7d f4 00	 cmp	 DWORD PTR _fp$[ebp], 0
  00056	75 4a		 jne	 SHORT $LN2@loadNowSta

; 216  : #else
; 217  : 	if( (fp = fopen( "d:\\sa\\data\\savedata.dat", "rb+" )) == NULL ){
; 218  : #endif
; 219  : 		if( createSaveFile() == FALSE ){

  00058	e8 00 00 00 00	 call	 ?createSaveFile@@YAHXZ	; createSaveFile
  0005d	85 c0		 test	 eax, eax
  0005f	75 0e		 jne	 SHORT $LN3@loadNowSta

; 220  : 			savedataErrorCode = 1;

  00061	c6 05 00 00 00
	00 01		 mov	 BYTE PTR ?savedataErrorCode@@3EA, 1 ; savedataErrorCode

; 221  : 			return FALSE;

  00068	33 c0		 xor	 eax, eax
  0006a	e9 a6 01 00 00	 jmp	 $LN12@loadNowSta
$LN3@loadNowSta:

; 222  : 		}
; 223  : 		if( (fp = fopen( SAVEFILE_NAME, "rb+" ))==NULL ){

  0006f	8b f4		 mov	 esi, esp
  00071	68 00 00 00 00	 push	 OFFSET ??_C@_03CCKOKKND@rb?$CL?$AA@
  00076	68 00 00 00 00	 push	 OFFSET ??_C@_0BC@OGIKFLLL@data?2savedata?4dat?$AA@
  0007b	ff 15 00 00 00
	00		 call	 DWORD PTR __imp__fopen
  00081	83 c4 08	 add	 esp, 8
  00084	3b f4		 cmp	 esi, esp
  00086	e8 00 00 00 00	 call	 __RTC_CheckEsp
  0008b	89 45 f4	 mov	 DWORD PTR _fp$[ebp], eax
  0008e	83 7d f4 00	 cmp	 DWORD PTR _fp$[ebp], 0
  00092	75 0e		 jne	 SHORT $LN2@loadNowSta

; 224  : 			savedataErrorCode = 2;

  00094	c6 05 00 00 00
	00 02		 mov	 BYTE PTR ?savedataErrorCode@@3EA, 2 ; savedataErrorCode

; 225  : 			return FALSE;

  0009b	33 c0		 xor	 eax, eax
  0009d	e9 73 01 00 00	 jmp	 $LN12@loadNowSta
$LN2@loadNowSta:

; 226  : 		}
; 227  : 	}
; 228  : 	readbufferlen = fread( readbuffer, 1, sizeof( readbuffer ), fp );

  000a2	8b f4		 mov	 esi, esp
  000a4	8b 45 f4	 mov	 eax, DWORD PTR _fp$[ebp]
  000a7	50		 push	 eax
  000a8	68 a0 0f 00 00	 push	 4000			; 00000fa0H
  000ad	6a 01		 push	 1
  000af	8d 8d 4c f0 ff
	ff		 lea	 ecx, DWORD PTR _readbuffer$[ebp]
  000b5	51		 push	 ecx
  000b6	ff 15 00 00 00
	00		 call	 DWORD PTR __imp__fread
  000bc	83 c4 10	 add	 esp, 16			; 00000010H
  000bf	3b f4		 cmp	 esi, esp
  000c1	e8 00 00 00 00	 call	 __RTC_CheckEsp
  000c6	89 85 40 f0 ff
	ff		 mov	 DWORD PTR _readbufferlen$[ebp], eax

; 229  : 	if( ferror( fp ) )

  000cc	8b f4		 mov	 esi, esp
  000ce	8b 45 f4	 mov	 eax, DWORD PTR _fp$[ebp]
  000d1	50		 push	 eax
  000d2	ff 15 00 00 00
	00		 call	 DWORD PTR __imp__ferror
  000d8	83 c4 04	 add	 esp, 4
  000db	3b f4		 cmp	 esi, esp
  000dd	e8 00 00 00 00	 call	 __RTC_CheckEsp
  000e2	85 c0		 test	 eax, eax
  000e4	74 24		 je	 SHORT $LN5@loadNowSta

; 230  : 	{
; 231  : 		// ??????
; 232  : 		savedataErrorCode = 3;

  000e6	c6 05 00 00 00
	00 03		 mov	 BYTE PTR ?savedataErrorCode@@3EA, 3 ; savedataErrorCode

; 233  : 		fclose( fp );

  000ed	8b f4		 mov	 esi, esp
  000ef	8b 45 f4	 mov	 eax, DWORD PTR _fp$[ebp]
  000f2	50		 push	 eax
  000f3	ff 15 00 00 00
	00		 call	 DWORD PTR __imp__fclose
  000f9	83 c4 04	 add	 esp, 4
  000fc	3b f4		 cmp	 esi, esp
  000fe	e8 00 00 00 00	 call	 __RTC_CheckEsp

; 234  : 		return FALSE;

  00103	33 c0		 xor	 eax, eax
  00105	e9 0b 01 00 00	 jmp	 $LN12@loadNowSta
$LN5@loadNowSta:

; 235  : 	}
; 236  : 	fclose( fp );

  0010a	8b f4		 mov	 esi, esp
  0010c	8b 45 f4	 mov	 eax, DWORD PTR _fp$[ebp]
  0010f	50		 push	 eax
  00110	ff 15 00 00 00
	00		 call	 DWORD PTR __imp__fclose
  00116	83 c4 04	 add	 esp, 4
  00119	3b f4		 cmp	 esi, esp
  0011b	e8 00 00 00 00	 call	 __RTC_CheckEsp

; 237  : 
; 238  : 	jDecode( readbuffer, readbufferlen, 0, (char *)savedatabuf, &tmpsavedatalen );

  00120	8d 85 34 f0 ff
	ff		 lea	 eax, DWORD PTR _tmpsavedatalen$[ebp]
  00126	50		 push	 eax
  00127	68 00 00 00 00	 push	 OFFSET ?savedatabuf@@3PAEA
  0012c	6a 00		 push	 0
  0012e	8b 8d 40 f0 ff
	ff		 mov	 ecx, DWORD PTR _readbufferlen$[ebp]
  00134	51		 push	 ecx
  00135	8d 95 4c f0 ff
	ff		 lea	 edx, DWORD PTR _readbuffer$[ebp]
  0013b	52		 push	 edx
  0013c	e8 00 00 00 00	 call	 ?jDecode@@YAXPADHH0PAH@Z ; jDecode
  00141	83 c4 14	 add	 esp, 20			; 00000014H

; 239  : 
; 240  : #if 1
; 241  : 	// ???????????????????????
; 242  : 	if( tmpsavedatalen == 57
; 243  : 	 && *((unsigned short *)savedatabuf+SAVEDATA_VER) == 0x0004 )

  00144	83 bd 34 f0 ff
	ff 39		 cmp	 DWORD PTR _tmpsavedatalen$[ebp], 57 ; 00000039H
  0014b	75 3b		 jne	 SHORT $LN6@loadNowSta
  0014d	0f b7 05 00 00
	00 00		 movzx	 eax, WORD PTR ?savedatabuf@@3PAEA
  00154	83 f8 04	 cmp	 eax, 4
  00157	75 2f		 jne	 SHORT $LN6@loadNowSta

; 244  : 	{
; 245  : 		savedatabuf[SAVEDATA_VER] = SAVEDATA_VERSION;

  00159	b8 01 00 00 00	 mov	 eax, 1
  0015e	6b c8 00	 imul	 ecx, eax, 0
  00161	c6 81 00 00 00
	00 06		 mov	 BYTE PTR ?savedatabuf@@3PAEA[ecx], 6

; 246  : 		savedatabuf[CHAT_AREA] = 3;

  00168	b8 01 00 00 00	 mov	 eax, 1
  0016d	6b c8 39	 imul	 ecx, eax, 57
  00170	c6 81 00 00 00
	00 03		 mov	 BYTE PTR ?savedatabuf@@3PAEA[ecx], 3

; 247  : 		saveNowState();

  00177	e8 00 00 00 00	 call	 ?saveNowState@@YAHXZ	; saveNowState

; 248  : 		return TRUE;

  0017c	b8 01 00 00 00	 mov	 eax, 1
  00181	e9 8f 00 00 00	 jmp	 $LN12@loadNowSta

; 249  : 	}
; 250  : 	else

  00186	eb 71		 jmp	 SHORT $LN7@loadNowSta
$LN6@loadNowSta:

; 251  : 	if( tmpsavedatalen == 127
; 252  : 	 && *((unsigned short *)savedatabuf+SAVEDATA_VER) == 0x0005 )

  00188	83 bd 34 f0 ff
	ff 7f		 cmp	 DWORD PTR _tmpsavedatalen$[ebp], 127 ; 0000007fH
  0018f	75 54		 jne	 SHORT $LN8@loadNowSta
  00191	0f b7 05 00 00
	00 00		 movzx	 eax, WORD PTR ?savedatabuf@@3PAEA
  00198	83 f8 05	 cmp	 eax, 5
  0019b	75 48		 jne	 SHORT $LN8@loadNowSta

; 253  : 	{
; 254  : 		savedatabuf[SAVEDATA_VER] = SAVEDATA_VERSION;

  0019d	b8 01 00 00 00	 mov	 eax, 1
  001a2	6b c8 00	 imul	 ecx, eax, 0
  001a5	c6 81 00 00 00
	00 06		 mov	 BYTE PTR ?savedatabuf@@3PAEA[ecx], 6

; 255  : 		savedatabuf[MOUSE_CUR_SEL] = 0;

  001ac	b8 01 00 00 00	 mov	 eax, 1
  001b1	6b c8 3a	 imul	 ecx, eax, 58
  001b4	89 8d 28 ea ff
	ff		 mov	 DWORD PTR $T1[ebp], ecx
  001ba	83 bd 28 ea ff
	ff 7f		 cmp	 DWORD PTR $T1[ebp], 127	; 0000007fH
  001c1	73 02		 jae	 SHORT $LN13@loadNowSta
  001c3	eb 05		 jmp	 SHORT $LN14@loadNowSta
$LN13@loadNowSta:
  001c5	e8 00 00 00 00	 call	 ___report_rangecheckfailure
$LN14@loadNowSta:
  001ca	8b 95 28 ea ff
	ff		 mov	 edx, DWORD PTR $T1[ebp]
  001d0	c6 82 00 00 00
	00 00		 mov	 BYTE PTR ?savedatabuf@@3PAEA[edx], 0

; 256  : 		saveNowState();

  001d7	e8 00 00 00 00	 call	 ?saveNowState@@YAHXZ	; saveNowState

; 257  : 		return TRUE;

  001dc	b8 01 00 00 00	 mov	 eax, 1
  001e1	eb 32		 jmp	 SHORT $LN12@loadNowSta

; 258  : 	}
; 259  : 	else

  001e3	eb 14		 jmp	 SHORT $LN7@loadNowSta
$LN8@loadNowSta:

; 260  : #endif
; 261  : 
; 262  : 	if( tmpsavedatalen != SAVEDATA_SIZE )

  001e5	83 bd 34 f0 ff
	ff 7f		 cmp	 DWORD PTR _tmpsavedatalen$[ebp], 127 ; 0000007fH
  001ec	74 0b		 je	 SHORT $LN7@loadNowSta

; 263  : 	{
; 264  : 		// ??????????
; 265  : 		savedataErrorCode = 4;

  001ee	c6 05 00 00 00
	00 04		 mov	 BYTE PTR ?savedataErrorCode@@3EA, 4 ; savedataErrorCode

; 266  : 		return FALSE;

  001f5	33 c0		 xor	 eax, eax
  001f7	eb 1c		 jmp	 SHORT $LN12@loadNowSta
$LN7@loadNowSta:

; 267  : 	}
; 268  : 
; 269  : 	// ????????????????
; 270  : 	if( *((unsigned short *)savedatabuf+SAVEDATA_VER) != SAVEDATA_VERSION )

  001f9	0f b7 05 00 00
	00 00		 movzx	 eax, WORD PTR ?savedatabuf@@3PAEA
  00200	83 f8 06	 cmp	 eax, 6
  00203	74 0b		 je	 SHORT $LN11@loadNowSta

; 271  : 	{
; 272  : 		// ???????
; 273  : 		savedataErrorCode = 5;

  00205	c6 05 00 00 00
	00 05		 mov	 BYTE PTR ?savedataErrorCode@@3EA, 5 ; savedataErrorCode

; 274  : 		return FALSE;

  0020c	33 c0		 xor	 eax, eax
  0020e	eb 05		 jmp	 SHORT $LN12@loadNowSta
$LN11@loadNowSta:

; 275  : 	}
; 276  : 
; 277  : 	return TRUE;

  00210	b8 01 00 00 00	 mov	 eax, 1
$LN12@loadNowSta:

; 278  : }

  00215	52		 push	 edx
  00216	8b cd		 mov	 ecx, ebp
  00218	50		 push	 eax
  00219	8d 15 00 00 00
	00		 lea	 edx, DWORD PTR $LN18@loadNowSta
  0021f	e8 00 00 00 00	 call	 @_RTC_CheckStackVars@8
  00224	58		 pop	 eax
  00225	5a		 pop	 edx
  00226	5f		 pop	 edi
  00227	5e		 pop	 esi
  00228	5b		 pop	 ebx
  00229	8b 4d fc	 mov	 ecx, DWORD PTR __$ArrayPad$[ebp]
  0022c	33 cd		 xor	 ecx, ebp
  0022e	e8 00 00 00 00	 call	 @__security_check_cookie@4
  00233	81 c4 dc 15 00
	00		 add	 esp, 5596		; 000015dcH
  00239	3b ec		 cmp	 ebp, esp
  0023b	e8 00 00 00 00	 call	 __RTC_CheckEsp
  00240	8b e5		 mov	 esp, ebp
  00242	5d		 pop	 ebp
  00243	c3		 ret	 0
$LN18@loadNowSta:
  00244	02 00 00 00	 DD	 2
  00248	00 00 00 00	 DD	 $LN17@loadNowSta
$LN17@loadNowSta:
  0024c	4c f0 ff ff	 DD	 -4020			; fffff04cH
  00250	a0 0f 00 00	 DD	 4000			; 00000fa0H
  00254	00 00 00 00	 DD	 $LN15@loadNowSta
  00258	34 f0 ff ff	 DD	 -4044			; fffff034H
  0025c	04 00 00 00	 DD	 4
  00260	00 00 00 00	 DD	 $LN16@loadNowSta
$LN16@loadNowSta:
  00264	74		 DB	 116			; 00000074H
  00265	6d		 DB	 109			; 0000006dH
  00266	70		 DB	 112			; 00000070H
  00267	73		 DB	 115			; 00000073H
  00268	61		 DB	 97			; 00000061H
  00269	76		 DB	 118			; 00000076H
  0026a	65		 DB	 101			; 00000065H
  0026b	64		 DB	 100			; 00000064H
  0026c	61		 DB	 97			; 00000061H
  0026d	74		 DB	 116			; 00000074H
  0026e	61		 DB	 97			; 00000061H
  0026f	6c		 DB	 108			; 0000006cH
  00270	65		 DB	 101			; 00000065H
  00271	6e		 DB	 110			; 0000006eH
  00272	00		 DB	 0
$LN15@loadNowSta:
  00273	72		 DB	 114			; 00000072H
  00274	65		 DB	 101			; 00000065H
  00275	61		 DB	 97			; 00000061H
  00276	64		 DB	 100			; 00000064H
  00277	62		 DB	 98			; 00000062H
  00278	75		 DB	 117			; 00000075H
  00279	66		 DB	 102			; 00000066H
  0027a	66		 DB	 102			; 00000066H
  0027b	65		 DB	 101			; 00000065H
  0027c	72		 DB	 114			; 00000072H
  0027d	00		 DB	 0
?loadNowState@@YAHXZ ENDP				; loadNowState
_TEXT	ENDS
; Function compile flags: /Odtp /RTCsu /ZI
; File c:\users\administrator\desktop\????? ??\????? ??\client source code\system\savedata.cpp
;	COMDAT ?saveNowState@@YAHXZ
_TEXT	SEGMENT
_i$ = -4180						; size = 4
_tmpsavedatabuf$ = -4168				; size = 127
_writebufferlen$ = -4032				; size = 4
_writebuffer$ = -4020					; size = 4000
_fp$ = -12						; size = 4
__$ArrayPad$ = -4					; size = 4
?saveNowState@@YAHXZ PROC				; saveNowState, COMDAT

; 150  : {

  00000	55		 push	 ebp
  00001	8b ec		 mov	 ebp, esp
  00003	b8 58 16 00 00	 mov	 eax, 5720		; 00001658H
  00008	e8 00 00 00 00	 call	 __chkstk
  0000d	53		 push	 ebx
  0000e	56		 push	 esi
  0000f	57		 push	 edi
  00010	8d bd a8 e9 ff
	ff		 lea	 edi, DWORD PTR [ebp-5720]
  00016	b9 96 05 00 00	 mov	 ecx, 1430		; 00000596H
  0001b	b8 cc cc cc cc	 mov	 eax, -858993460		; ccccccccH
  00020	f3 ab		 rep stosd
  00022	a1 00 00 00 00	 mov	 eax, DWORD PTR ___security_cookie
  00027	33 c5		 xor	 eax, ebp
  00029	89 45 fc	 mov	 DWORD PTR __$ArrayPad$[ebp], eax

; 151  : #ifdef __NEW_CLIENT
; 152  : 	extern HANDLE hProcessSnap, hParentProcess;
; 153  : 	extern DWORD dwPID;
; 154  : 	extern PROCESSENTRY32 pe32;
; 155  : 	if( dwPID){

  0002c	83 3d 00 00 00
	00 00		 cmp	 DWORD PTR ?dwPID@@3KA, 0 ; dwPID
  00033	0f 84 a0 00 00
	00		 je	 $LN8@saveNowSta

; 156  : 		pe32.dwSize = sizeof(PROCESSENTRY32);

  00039	c7 05 00 00 00
	00 28 01 00 00	 mov	 DWORD PTR ?pe32@@3UtagPROCESSENTRY32@@A, 296 ; 00000128H

; 157  : 		if( Process32First( hProcessSnap, &pe32)){ 

  00043	68 00 00 00 00	 push	 OFFSET ?pe32@@3UtagPROCESSENTRY32@@A ; pe32
  00048	a1 00 00 00 00	 mov	 eax, DWORD PTR ?hProcessSnap@@3PAXA ; hProcessSnap
  0004d	50		 push	 eax
  0004e	e8 00 00 00 00	 call	 _Process32First@8
  00053	85 c0		 test	 eax, eax
  00055	74 78		 je	 SHORT $LN9@saveNowSta
$LN4@saveNowSta:

; 158  : 			do{
; 159  : 				if( pe32.th32ProcessID == dwPID){

  00057	a1 08 00 00 00	 mov	 eax, DWORD PTR ?pe32@@3UtagPROCESSENTRY32@@A+8
  0005c	3b 05 00 00 00
	00		 cmp	 eax, DWORD PTR ?dwPID@@3KA ; dwPID
  00062	75 57		 jne	 SHORT $LN2@saveNowSta

; 160  : 					if( !strstr( pe32.szExeFile, "explorer.exe") && (hParentProcess = OpenProcess( PROCESS_ALL_ACCESS, FALSE, dwPID))){

  00064	68 00 00 00 00	 push	 OFFSET ??_C@_0N@DGECLGHJ@explorer?4exe?$AA@
  00069	68 24 00 00 00	 push	 OFFSET ?pe32@@3UtagPROCESSENTRY32@@A+36
  0006e	e8 00 00 00 00	 call	 ?strstr@@YAPADQADQBD@Z	; strstr
  00073	83 c4 08	 add	 esp, 8
  00076	85 c0		 test	 eax, eax
  00078	75 3f		 jne	 SHORT $LN11@saveNowSta
  0007a	8b f4		 mov	 esi, esp
  0007c	a1 00 00 00 00	 mov	 eax, DWORD PTR ?dwPID@@3KA ; dwPID
  00081	50		 push	 eax
  00082	6a 00		 push	 0
  00084	68 ff ff 1f 00	 push	 2097151			; 001fffffH
  00089	ff 15 00 00 00
	00		 call	 DWORD PTR __imp__OpenProcess@12
  0008f	3b f4		 cmp	 esi, esp
  00091	e8 00 00 00 00	 call	 __RTC_CheckEsp
  00096	a3 00 00 00 00	 mov	 DWORD PTR ?hParentProcess@@3PAXA, eax ; hParentProcess
  0009b	83 3d 00 00 00
	00 00		 cmp	 DWORD PTR ?hParentProcess@@3PAXA, 0 ; hParentProcess
  000a2	74 15		 je	 SHORT $LN11@saveNowSta

; 161  : 	#ifndef NO_TERMINATER
; 162  : 				//		TerminateProcess( hParentProcess, 0);
; 163  : 	#endif
; 164  : 						CloseHandle( hParentProcess);

  000a4	8b f4		 mov	 esi, esp
  000a6	a1 00 00 00 00	 mov	 eax, DWORD PTR ?hParentProcess@@3PAXA ; hParentProcess
  000ab	50		 push	 eax
  000ac	ff 15 00 00 00
	00		 call	 DWORD PTR __imp__CloseHandle@4
  000b2	3b f4		 cmp	 esi, esp
  000b4	e8 00 00 00 00	 call	 __RTC_CheckEsp
$LN11@saveNowSta:

; 165  : 					}
; 166  : 					break;

  000b9	eb 14		 jmp	 SHORT $LN9@saveNowSta
$LN2@saveNowSta:

; 167  : 				}
; 168  : 			}while( Process32Next( hProcessSnap, &pe32));

  000bb	68 00 00 00 00	 push	 OFFSET ?pe32@@3UtagPROCESSENTRY32@@A ; pe32
  000c0	a1 00 00 00 00	 mov	 eax, DWORD PTR ?hProcessSnap@@3PAXA ; hProcessSnap
  000c5	50		 push	 eax
  000c6	e8 00 00 00 00	 call	 _Process32Next@8
  000cb	85 c0		 test	 eax, eax
  000cd	75 88		 jne	 SHORT $LN4@saveNowSta
$LN9@saveNowSta:

; 169  : 		}
; 170  : 		dwPID = 0;

  000cf	c7 05 00 00 00
	00 00 00 00 00	 mov	 DWORD PTR ?dwPID@@3KA, 0 ; dwPID
$LN8@saveNowSta:

; 171  : 	}
; 172  : #endif
; 173  : 	FILE *fp;
; 174  : 	char writebuffer[4000];
; 175  : 	int writebufferlen;
; 176  : 	unsigned char tmpsavedatabuf[SAVEDATA_SIZE];
; 177  : 	int i;
; 178  : 
; 179  : 	for( i = 0; i < SAVEDATA_SIZE; i++ )

  000d9	c7 85 ac ef ff
	ff 00 00 00 00	 mov	 DWORD PTR _i$[ebp], 0
  000e3	eb 0f		 jmp	 SHORT $LN7@saveNowSta
$LN5@saveNowSta:
  000e5	8b 85 ac ef ff
	ff		 mov	 eax, DWORD PTR _i$[ebp]
  000eb	83 c0 01	 add	 eax, 1
  000ee	89 85 ac ef ff
	ff		 mov	 DWORD PTR _i$[ebp], eax
$LN7@saveNowSta:
  000f4	83 bd ac ef ff
	ff 7f		 cmp	 DWORD PTR _i$[ebp], 127	; 0000007fH
  000fb	7d 1b		 jge	 SHORT $LN6@saveNowSta

; 180  : 	{
; 181  : 		tmpsavedatabuf[i] = savedatabuf[i];

  000fd	8b 85 ac ef ff
	ff		 mov	 eax, DWORD PTR _i$[ebp]
  00103	8b 8d ac ef ff
	ff		 mov	 ecx, DWORD PTR _i$[ebp]
  00109	8a 91 00 00 00
	00		 mov	 dl, BYTE PTR ?savedatabuf@@3PAEA[ecx]
  0010f	88 94 05 b8 ef
	ff ff		 mov	 BYTE PTR _tmpsavedatabuf$[ebp+eax], dl

; 182  : 	}

  00116	eb cd		 jmp	 SHORT $LN5@saveNowSta
$LN6@saveNowSta:

; 183  : 
; 184  : 	// ??????????
; 185  : 	jEncode( (char *)tmpsavedatabuf, SAVEDATA_SIZE, 0,

  00118	68 a0 0f 00 00	 push	 4000			; 00000fa0H
  0011d	8d 85 40 f0 ff
	ff		 lea	 eax, DWORD PTR _writebufferlen$[ebp]
  00123	50		 push	 eax
  00124	8d 8d 4c f0 ff
	ff		 lea	 ecx, DWORD PTR _writebuffer$[ebp]
  0012a	51		 push	 ecx
  0012b	6a 00		 push	 0
  0012d	6a 7f		 push	 127			; 0000007fH
  0012f	8d 95 b8 ef ff
	ff		 lea	 edx, DWORD PTR _tmpsavedatabuf$[ebp]
  00135	52		 push	 edx
  00136	e8 00 00 00 00	 call	 ?jEncode@@YAXPADHH0PAHH@Z ; jEncode
  0013b	83 c4 18	 add	 esp, 24			; 00000018H

; 186  : 		writebuffer, &writebufferlen, sizeof( writebuffer ) );
; 187  : 
; 188  : 	// ??????颌V
; 189  : 	if( (fp = fopen( SAVEFILE_NAME, "wb+" )) == NULL )

  0013e	8b f4		 mov	 esi, esp
  00140	68 00 00 00 00	 push	 OFFSET ??_C@_03BFHAFKOB@wb?$CL?$AA@
  00145	68 00 00 00 00	 push	 OFFSET ??_C@_0BC@OGIKFLLL@data?2savedata?4dat?$AA@
  0014a	ff 15 00 00 00
	00		 call	 DWORD PTR __imp__fopen
  00150	83 c4 08	 add	 esp, 8
  00153	3b f4		 cmp	 esi, esp
  00155	e8 00 00 00 00	 call	 __RTC_CheckEsp
  0015a	89 45 f4	 mov	 DWORD PTR _fp$[ebp], eax
  0015d	83 7d f4 00	 cmp	 DWORD PTR _fp$[ebp], 0
  00161	75 04		 jne	 SHORT $LN12@saveNowSta

; 190  : 	{
; 191  : 		return FALSE;

  00163	33 c0		 xor	 eax, eax
  00165	eb 4d		 jmp	 SHORT $LN1@saveNowSta
$LN12@saveNowSta:

; 192  : 	}
; 193  : 	if( fwrite( writebuffer, 1, writebufferlen, fp ) < (unsigned int)writebufferlen )

  00167	8b f4		 mov	 esi, esp
  00169	8b 45 f4	 mov	 eax, DWORD PTR _fp$[ebp]
  0016c	50		 push	 eax
  0016d	8b 8d 40 f0 ff
	ff		 mov	 ecx, DWORD PTR _writebufferlen$[ebp]
  00173	51		 push	 ecx
  00174	6a 01		 push	 1
  00176	8d 95 4c f0 ff
	ff		 lea	 edx, DWORD PTR _writebuffer$[ebp]
  0017c	52		 push	 edx
  0017d	ff 15 00 00 00
	00		 call	 DWORD PTR __imp__fwrite
  00183	83 c4 10	 add	 esp, 16			; 00000010H
  00186	3b f4		 cmp	 esi, esp
  00188	e8 00 00 00 00	 call	 __RTC_CheckEsp
  0018d	3b 85 40 f0 ff
	ff		 cmp	 eax, DWORD PTR _writebufferlen$[ebp]
  00193	73 04		 jae	 SHORT $LN13@saveNowSta

; 194  : 	{
; 195  : 		return FALSE;

  00195	33 c0		 xor	 eax, eax
  00197	eb 1b		 jmp	 SHORT $LN1@saveNowSta
$LN13@saveNowSta:

; 196  : 	}
; 197  : 	fclose( fp );

  00199	8b f4		 mov	 esi, esp
  0019b	8b 45 f4	 mov	 eax, DWORD PTR _fp$[ebp]
  0019e	50		 push	 eax
  0019f	ff 15 00 00 00
	00		 call	 DWORD PTR __imp__fclose
  001a5	83 c4 04	 add	 esp, 4
  001a8	3b f4		 cmp	 esi, esp
  001aa	e8 00 00 00 00	 call	 __RTC_CheckEsp

; 198  : 
; 199  : 	return TRUE;

  001af	b8 01 00 00 00	 mov	 eax, 1
$LN1@saveNowSta:

; 200  : }

  001b4	52		 push	 edx
  001b5	8b cd		 mov	 ecx, ebp
  001b7	50		 push	 eax
  001b8	8d 15 00 00 00
	00		 lea	 edx, DWORD PTR $LN19@saveNowSta
  001be	e8 00 00 00 00	 call	 @_RTC_CheckStackVars@8
  001c3	58		 pop	 eax
  001c4	5a		 pop	 edx
  001c5	5f		 pop	 edi
  001c6	5e		 pop	 esi
  001c7	5b		 pop	 ebx
  001c8	8b 4d fc	 mov	 ecx, DWORD PTR __$ArrayPad$[ebp]
  001cb	33 cd		 xor	 ecx, ebp
  001cd	e8 00 00 00 00	 call	 @__security_check_cookie@4
  001d2	81 c4 58 16 00
	00		 add	 esp, 5720		; 00001658H
  001d8	3b ec		 cmp	 ebp, esp
  001da	e8 00 00 00 00	 call	 __RTC_CheckEsp
  001df	8b e5		 mov	 esp, ebp
  001e1	5d		 pop	 ebp
  001e2	c3		 ret	 0
  001e3	90		 npad	 1
$LN19@saveNowSta:
  001e4	03 00 00 00	 DD	 3
  001e8	00 00 00 00	 DD	 $LN18@saveNowSta
$LN18@saveNowSta:
  001ec	4c f0 ff ff	 DD	 -4020			; fffff04cH
  001f0	a0 0f 00 00	 DD	 4000			; 00000fa0H
  001f4	00 00 00 00	 DD	 $LN15@saveNowSta
  001f8	40 f0 ff ff	 DD	 -4032			; fffff040H
  001fc	04 00 00 00	 DD	 4
  00200	00 00 00 00	 DD	 $LN16@saveNowSta
  00204	b8 ef ff ff	 DD	 -4168			; ffffefb8H
  00208	7f 00 00 00	 DD	 127			; 0000007fH
  0020c	00 00 00 00	 DD	 $LN17@saveNowSta
$LN17@saveNowSta:
  00210	74		 DB	 116			; 00000074H
  00211	6d		 DB	 109			; 0000006dH
  00212	70		 DB	 112			; 00000070H
  00213	73		 DB	 115			; 00000073H
  00214	61		 DB	 97			; 00000061H
  00215	76		 DB	 118			; 00000076H
  00216	65		 DB	 101			; 00000065H
  00217	64		 DB	 100			; 00000064H
  00218	61		 DB	 97			; 00000061H
  00219	74		 DB	 116			; 00000074H
  0021a	61		 DB	 97			; 00000061H
  0021b	62		 DB	 98			; 00000062H
  0021c	75		 DB	 117			; 00000075H
  0021d	66		 DB	 102			; 00000066H
  0021e	00		 DB	 0
$LN16@saveNowSta:
  0021f	77		 DB	 119			; 00000077H
  00220	72		 DB	 114			; 00000072H
  00221	69		 DB	 105			; 00000069H
  00222	74		 DB	 116			; 00000074H
  00223	65		 DB	 101			; 00000065H
  00224	62		 DB	 98			; 00000062H
  00225	75		 DB	 117			; 00000075H
  00226	66		 DB	 102			; 00000066H
  00227	66		 DB	 102			; 00000066H
  00228	65		 DB	 101			; 00000065H
  00229	72		 DB	 114			; 00000072H
  0022a	6c		 DB	 108			; 0000006cH
  0022b	65		 DB	 101			; 00000065H
  0022c	6e		 DB	 110			; 0000006eH
  0022d	00		 DB	 0
$LN15@saveNowSta:
  0022e	77		 DB	 119			; 00000077H
  0022f	72		 DB	 114			; 00000072H
  00230	69		 DB	 105			; 00000069H
  00231	74		 DB	 116			; 00000074H
  00232	65		 DB	 101			; 00000065H
  00233	62		 DB	 98			; 00000062H
  00234	75		 DB	 117			; 00000075H
  00235	66		 DB	 102			; 00000066H
  00236	66		 DB	 102			; 00000066H
  00237	65		 DB	 101			; 00000065H
  00238	72		 DB	 114			; 00000072H
  00239	00		 DB	 0
?saveNowState@@YAHXZ ENDP				; saveNowState
_TEXT	ENDS
; Function compile flags: /Odtp /RTCsu /ZI
; File c:\users\administrator\desktop\????? ??\????? ??\client source code\system\savedata.cpp
;	COMDAT ?getUserInterfaceOption@@YAXXZ
_TEXT	SEGMENT
?getUserInterfaceOption@@YAXXZ PROC			; getUserInterfaceOption, COMDAT

; 487  : {

  00000	55		 push	 ebp
  00001	8b ec		 mov	 ebp, esp
  00003	81 ec c0 00 00
	00		 sub	 esp, 192		; 000000c0H
  00009	53		 push	 ebx
  0000a	56		 push	 esi
  0000b	57		 push	 edi
  0000c	8d bd 40 ff ff
	ff		 lea	 edi, DWORD PTR [ebp-192]
  00012	b9 30 00 00 00	 mov	 ecx, 48			; 00000030H
  00017	b8 cc cc cc cc	 mov	 eax, -858993460		; ccccccccH
  0001c	f3 ab		 rep stosd

; 488  : 	MouseCursorFlag =  (int)savedatabuf[MOUSE_CUR_SEL];

  0001e	b8 01 00 00 00	 mov	 eax, 1
  00023	6b c8 3a	 imul	 ecx, eax, 58
  00026	0f b6 91 00 00
	00 00		 movzx	 edx, BYTE PTR ?savedatabuf@@3PAEA[ecx]
  0002d	89 15 00 00 00
	00		 mov	 DWORD PTR ?MouseCursorFlag@@3HA, edx ; MouseCursorFlag

; 489  : }

  00033	5f		 pop	 edi
  00034	5e		 pop	 esi
  00035	5b		 pop	 ebx
  00036	8b e5		 mov	 esp, ebp
  00038	5d		 pop	 ebp
  00039	c3		 ret	 0
?getUserInterfaceOption@@YAXXZ ENDP			; getUserInterfaceOption
_TEXT	ENDS
; Function compile flags: /Odtp /RTCsu /ZI
; File c:\users\administrator\desktop\????? ??\????? ??\client source code\system\savedata.cpp
;	COMDAT ?setUserInterfaceOption@@YAXXZ
_TEXT	SEGMENT
?setUserInterfaceOption@@YAXXZ PROC			; setUserInterfaceOption, COMDAT

; 480  : {

  00000	55		 push	 ebp
  00001	8b ec		 mov	 ebp, esp
  00003	81 ec c0 00 00
	00		 sub	 esp, 192		; 000000c0H
  00009	53		 push	 ebx
  0000a	56		 push	 esi
  0000b	57		 push	 edi
  0000c	8d bd 40 ff ff
	ff		 lea	 edi, DWORD PTR [ebp-192]
  00012	b9 30 00 00 00	 mov	 ecx, 48			; 00000030H
  00017	b8 cc cc cc cc	 mov	 eax, -858993460		; ccccccccH
  0001c	f3 ab		 rep stosd

; 481  : 	savedatabuf[MOUSE_CUR_SEL] = (unsigned char)MouseCursorFlag;

  0001e	b8 01 00 00 00	 mov	 eax, 1
  00023	6b c8 3a	 imul	 ecx, eax, 58
  00026	8a 15 00 00 00
	00		 mov	 dl, BYTE PTR ?MouseCursorFlag@@3HA
  0002c	88 91 00 00 00
	00		 mov	 BYTE PTR ?savedatabuf@@3PAEA[ecx], dl

; 482  : }

  00032	5f		 pop	 edi
  00033	5e		 pop	 esi
  00034	5b		 pop	 ebx
  00035	8b e5		 mov	 esp, ebp
  00037	5d		 pop	 ebp
  00038	c3		 ret	 0
?setUserInterfaceOption@@YAXXZ ENDP			; setUserInterfaceOption
_TEXT	ENDS
; Function compile flags: /Odtp /RTCsu /ZI
; File c:\users\administrator\desktop\????? ??\????? ??\client source code\system\savedata.cpp
;	COMDAT ?getUserChatOption@@YAXXZ
_TEXT	SEGMENT
?getUserChatOption@@YAXXZ PROC				; getUserChatOption, COMDAT

; 471  : {

  00000	55		 push	 ebp
  00001	8b ec		 mov	 ebp, esp
  00003	81 ec c0 00 00
	00		 sub	 esp, 192		; 000000c0H
  00009	53		 push	 ebx
  0000a	56		 push	 esi
  0000b	57		 push	 edi
  0000c	8d bd 40 ff ff
	ff		 lea	 edi, DWORD PTR [ebp-192]
  00012	b9 30 00 00 00	 mov	 ecx, 48			; 00000030H
  00017	b8 cc cc cc cc	 mov	 eax, -858993460		; ccccccccH
  0001c	f3 ab		 rep stosd

; 472  : 	MyChatBuffer.color	= savedatabuf[CHAT_COLOR];			// ?????

  0001e	b8 01 00 00 00	 mov	 eax, 1
  00023	6b c8 37	 imul	 ecx, eax, 55
  00026	8a 91 00 00 00
	00		 mov	 dl, BYTE PTR ?savedatabuf@@3PAEA[ecx]
  0002c	88 15 08 01 00
	00		 mov	 BYTE PTR ?MyChatBuffer@@3USTR_BUFFER@@A+264, dl

; 473  : 	NowMaxChatLine		= (int)savedatabuf[CHAT_LINE];		// ??????

  00032	b8 01 00 00 00	 mov	 eax, 1
  00037	6b c8 38	 imul	 ecx, eax, 56
  0003a	0f b6 91 00 00
	00 00		 movzx	 edx, BYTE PTR ?savedatabuf@@3PAEA[ecx]
  00041	89 15 00 00 00
	00		 mov	 DWORD PTR ?NowMaxChatLine@@3HA, edx ; NowMaxChatLine

; 474  : 	NowMaxVoice			= savedatabuf[CHAT_AREA];			// ????d?

  00047	b8 01 00 00 00	 mov	 eax, 1
  0004c	6b c8 39	 imul	 ecx, eax, 57
  0004f	0f b6 91 00 00
	00 00		 movzx	 edx, BYTE PTR ?savedatabuf@@3PAEA[ecx]
  00056	89 15 00 00 00
	00		 mov	 DWORD PTR ?NowMaxVoice@@3HA, edx ; NowMaxVoice

; 475  : }

  0005c	5f		 pop	 edi
  0005d	5e		 pop	 esi
  0005e	5b		 pop	 ebx
  0005f	8b e5		 mov	 esp, ebp
  00061	5d		 pop	 ebp
  00062	c3		 ret	 0
?getUserChatOption@@YAXXZ ENDP				; getUserChatOption
_TEXT	ENDS
; Function compile flags: /Odtp /RTCsu /ZI
; File c:\users\administrator\desktop\????? ??\????? ??\client source code\system\savedata.cpp
;	COMDAT ?setUserChatOption@@YAXXZ
_TEXT	SEGMENT
?setUserChatOption@@YAXXZ PROC				; setUserChatOption, COMDAT

; 462  : {

  00000	55		 push	 ebp
  00001	8b ec		 mov	 ebp, esp
  00003	81 ec c0 00 00
	00		 sub	 esp, 192		; 000000c0H
  00009	53		 push	 ebx
  0000a	56		 push	 esi
  0000b	57		 push	 edi
  0000c	8d bd 40 ff ff
	ff		 lea	 edi, DWORD PTR [ebp-192]
  00012	b9 30 00 00 00	 mov	 ecx, 48			; 00000030H
  00017	b8 cc cc cc cc	 mov	 eax, -858993460		; ccccccccH
  0001c	f3 ab		 rep stosd

; 463  : 	savedatabuf[CHAT_COLOR]		= MyChatBuffer.color;				// ?????

  0001e	b8 01 00 00 00	 mov	 eax, 1
  00023	6b c8 37	 imul	 ecx, eax, 55
  00026	8a 15 08 01 00
	00		 mov	 dl, BYTE PTR ?MyChatBuffer@@3USTR_BUFFER@@A+264
  0002c	88 91 00 00 00
	00		 mov	 BYTE PTR ?savedatabuf@@3PAEA[ecx], dl

; 464  : 	savedatabuf[CHAT_LINE]		= (unsigned char)NowMaxChatLine;	// ??????

  00032	b8 01 00 00 00	 mov	 eax, 1
  00037	6b c8 38	 imul	 ecx, eax, 56
  0003a	8a 15 00 00 00
	00		 mov	 dl, BYTE PTR ?NowMaxChatLine@@3HA
  00040	88 91 00 00 00
	00		 mov	 BYTE PTR ?savedatabuf@@3PAEA[ecx], dl

; 465  : 	savedatabuf[CHAT_AREA]		= NowMaxVoice;						// ????d?

  00046	b8 01 00 00 00	 mov	 eax, 1
  0004b	6b c8 39	 imul	 ecx, eax, 57
  0004e	8a 15 00 00 00
	00		 mov	 dl, BYTE PTR ?NowMaxVoice@@3HA
  00054	88 91 00 00 00
	00		 mov	 BYTE PTR ?savedatabuf@@3PAEA[ecx], dl

; 466  : }

  0005a	5f		 pop	 edi
  0005b	5e		 pop	 esi
  0005c	5b		 pop	 ebx
  0005d	8b e5		 mov	 esp, ebp
  0005f	5d		 pop	 ebp
  00060	c3		 ret	 0
?setUserChatOption@@YAXXZ ENDP				; setUserChatOption
_TEXT	ENDS
; Function compile flags: /Odtp /RTCsu /ZI
; File c:\users\administrator\desktop\????? ??\????? ??\client source code\system\savedata.cpp
;	COMDAT ?getUserSoundOption@@YAXXZ
_TEXT	SEGMENT
_i$ = -8						; size = 4
?getUserSoundOption@@YAXXZ PROC				; getUserSoundOption, COMDAT

; 446  : {

  00000	55		 push	 ebp
  00001	8b ec		 mov	 ebp, esp
  00003	81 ec cc 00 00
	00		 sub	 esp, 204		; 000000ccH
  00009	53		 push	 ebx
  0000a	56		 push	 esi
  0000b	57		 push	 edi
  0000c	8d bd 34 ff ff
	ff		 lea	 edi, DWORD PTR [ebp-204]
  00012	b9 33 00 00 00	 mov	 ecx, 51			; 00000033H
  00017	b8 cc cc cc cc	 mov	 eax, -858993460		; ccccccccH
  0001c	f3 ab		 rep stosd

; 447  : 	int i;
; 448  : 
; 449  : 	stereo_flg			= (int)savedatabuf[STEREO_FLAG];	// ?????v????

  0001e	b8 01 00 00 00	 mov	 eax, 1
  00023	6b c8 24	 imul	 ecx, eax, 36
  00026	0f b6 91 00 00
	00 00		 movzx	 edx, BYTE PTR ?savedatabuf@@3PAEA[ecx]
  0002d	89 15 00 00 00
	00		 mov	 DWORD PTR ?stereo_flg@@3HA, edx ; stereo_flg

; 450  : 	t_music_se_volume	= (int)savedatabuf[SE_VOL];			// SE?????

  00033	b8 01 00 00 00	 mov	 eax, 1
  00038	6b c8 25	 imul	 ecx, eax, 37
  0003b	0f b6 91 00 00
	00 00		 movzx	 edx, BYTE PTR ?savedatabuf@@3PAEA[ecx]
  00042	89 15 00 00 00
	00		 mov	 DWORD PTR ?t_music_se_volume@@3HA, edx ; t_music_se_volume

; 451  : 	t_music_bgm_volume	= (int)savedatabuf[BGM_VOL];		// BGM?????

  00048	b8 01 00 00 00	 mov	 eax, 1
  0004d	6b c8 26	 imul	 ecx, eax, 38
  00050	0f b6 91 00 00
	00 00		 movzx	 edx, BYTE PTR ?savedatabuf@@3PAEA[ecx]
  00057	89 15 00 00 00
	00		 mov	 DWORD PTR ?t_music_bgm_volume@@3HA, edx ; t_music_bgm_volume

; 452  : #ifdef _NB_CANCEL_BGM
; 453  : 	声音开关 = (savedatabuf[BGM_VOL] & 0x80);

  0005d	b8 01 00 00 00	 mov	 eax, 1
  00062	6b c8 26	 imul	 ecx, eax, 38
  00065	0f b6 91 00 00
	00 00		 movzx	 edx, BYTE PTR ?savedatabuf@@3PAEA[ecx]
  0006c	81 e2 80 00 00
	00		 and	 edx, 128		; 00000080H
  00072	89 15 00 00 00
	00		 mov	 DWORD PTR ?声音开关@@3HA, edx ; 声音开关

; 454  : #endif
; 455  : 	for( i = 0; i < 16; i++ )								// BGM???

  00078	c7 45 f8 00 00
	00 00		 mov	 DWORD PTR _i$[ebp], 0
  0007f	eb 09		 jmp	 SHORT $LN4@getUserSou
$LN2@getUserSou:
  00081	8b 45 f8	 mov	 eax, DWORD PTR _i$[ebp]
  00084	83 c0 01	 add	 eax, 1
  00087	89 45 f8	 mov	 DWORD PTR _i$[ebp], eax
$LN4@getUserSou:
  0008a	83 7d f8 10	 cmp	 DWORD PTR _i$[ebp], 16	; 00000010H
  0008e	7d 14		 jge	 SHORT $LN1@getUserSou

; 456  : 		t_music_bgm_pitch[i] = savedatabuf[BGM_PITCH+i];

  00090	8b 45 f8	 mov	 eax, DWORD PTR _i$[ebp]
  00093	8b 4d f8	 mov	 ecx, DWORD PTR _i$[ebp]
  00096	8a 91 27 00 00
	00		 mov	 dl, BYTE PTR ?savedatabuf@@3PAEA[ecx+39]
  0009c	88 90 00 00 00
	00		 mov	 BYTE PTR ?t_music_bgm_pitch@@3PADA[eax], dl
  000a2	eb dd		 jmp	 SHORT $LN2@getUserSou
$LN1@getUserSou:

; 457  : }

  000a4	5f		 pop	 edi
  000a5	5e		 pop	 esi
  000a6	5b		 pop	 ebx
  000a7	8b e5		 mov	 esp, ebp
  000a9	5d		 pop	 ebp
  000aa	c3		 ret	 0
?getUserSoundOption@@YAXXZ ENDP				; getUserSoundOption
_TEXT	ENDS
; Function compile flags: /Odtp /RTCsu /ZI
; File c:\users\administrator\desktop\????? ??\????? ??\client source code\system\savedata.cpp
;	COMDAT ?setUserSoundOption@@YAXXZ
_TEXT	SEGMENT
_i$ = -8						; size = 4
?setUserSoundOption@@YAXXZ PROC				; setUserSoundOption, COMDAT

; 426  : {

  00000	55		 push	 ebp
  00001	8b ec		 mov	 ebp, esp
  00003	81 ec cc 00 00
	00		 sub	 esp, 204		; 000000ccH
  00009	53		 push	 ebx
  0000a	56		 push	 esi
  0000b	57		 push	 edi
  0000c	8d bd 34 ff ff
	ff		 lea	 edi, DWORD PTR [ebp-204]
  00012	b9 33 00 00 00	 mov	 ecx, 51			; 00000033H
  00017	b8 cc cc cc cc	 mov	 eax, -858993460		; ccccccccH
  0001c	f3 ab		 rep stosd

; 427  : 	int i;
; 428  : 
; 429  : 	savedatabuf[STEREO_FLAG]	= (unsigned char)stereo_flg;		// ?????v????

  0001e	b8 01 00 00 00	 mov	 eax, 1
  00023	6b c8 24	 imul	 ecx, eax, 36
  00026	8a 15 00 00 00
	00		 mov	 dl, BYTE PTR ?stereo_flg@@3HA
  0002c	88 91 00 00 00
	00		 mov	 BYTE PTR ?savedatabuf@@3PAEA[ecx], dl

; 430  : 	savedatabuf[SE_VOL]			= (unsigned char)t_music_se_volume;	// SE?????

  00032	b8 01 00 00 00	 mov	 eax, 1
  00037	6b c8 25	 imul	 ecx, eax, 37
  0003a	8a 15 00 00 00
	00		 mov	 dl, BYTE PTR ?t_music_se_volume@@3HA
  00040	88 91 00 00 00
	00		 mov	 BYTE PTR ?savedatabuf@@3PAEA[ecx], dl

; 431  : 	savedatabuf[BGM_VOL]		= (unsigned char)t_music_bgm_volume;// BGM?????

  00046	b8 01 00 00 00	 mov	 eax, 1
  0004b	6b c8 26	 imul	 ecx, eax, 38
  0004e	8a 15 00 00 00
	00		 mov	 dl, BYTE PTR ?t_music_bgm_volume@@3HA
  00054	88 91 00 00 00
	00		 mov	 BYTE PTR ?savedatabuf@@3PAEA[ecx], dl

; 432  : #ifdef _NB_CANCEL_BGM
; 433  : 	if (声音开关){

  0005a	83 3d 00 00 00
	00 00		 cmp	 DWORD PTR ?声音开关@@3HA, 0 ; 声音开关
  00061	74 1a		 je	 SHORT $LN5@setUserSou

; 434  : 		savedatabuf[BGM_VOL] = (unsigned char)(t_music_bgm_volume | 0x80);		

  00063	a1 00 00 00 00	 mov	 eax, DWORD PTR ?t_music_bgm_volume@@3HA ; t_music_bgm_volume
  00068	0d 80 00 00 00	 or	 eax, 128		; 00000080H
  0006d	b9 01 00 00 00	 mov	 ecx, 1
  00072	6b d1 26	 imul	 edx, ecx, 38
  00075	88 82 00 00 00
	00		 mov	 BYTE PTR ?savedatabuf@@3PAEA[edx], al

; 435  : 	}else{

  0007b	eb 14		 jmp	 SHORT $LN6@setUserSou
$LN5@setUserSou:

; 436  : 		savedatabuf[BGM_VOL] = (unsigned char)t_music_bgm_volume;// BGM?????

  0007d	b8 01 00 00 00	 mov	 eax, 1
  00082	6b c8 26	 imul	 ecx, eax, 38
  00085	8a 15 00 00 00
	00		 mov	 dl, BYTE PTR ?t_music_bgm_volume@@3HA
  0008b	88 91 00 00 00
	00		 mov	 BYTE PTR ?savedatabuf@@3PAEA[ecx], dl
$LN6@setUserSou:

; 437  : 	}
; 438  : #endif
; 439  : 	for( i = 0; i < 16; i++ )										// BGM???

  00091	c7 45 f8 00 00
	00 00		 mov	 DWORD PTR _i$[ebp], 0
  00098	eb 09		 jmp	 SHORT $LN4@setUserSou
$LN2@setUserSou:
  0009a	8b 45 f8	 mov	 eax, DWORD PTR _i$[ebp]
  0009d	83 c0 01	 add	 eax, 1
  000a0	89 45 f8	 mov	 DWORD PTR _i$[ebp], eax
$LN4@setUserSou:
  000a3	83 7d f8 10	 cmp	 DWORD PTR _i$[ebp], 16	; 00000010H
  000a7	7d 14		 jge	 SHORT $LN1@setUserSou

; 440  : 		savedatabuf[BGM_PITCH+i] = t_music_bgm_pitch[i];

  000a9	8b 45 f8	 mov	 eax, DWORD PTR _i$[ebp]
  000ac	8b 4d f8	 mov	 ecx, DWORD PTR _i$[ebp]
  000af	8a 91 00 00 00
	00		 mov	 dl, BYTE PTR ?t_music_bgm_pitch@@3PADA[ecx]
  000b5	88 90 27 00 00
	00		 mov	 BYTE PTR ?savedatabuf@@3PAEA[eax+39], dl
  000bb	eb dd		 jmp	 SHORT $LN2@setUserSou
$LN1@setUserSou:

; 441  : }

  000bd	5f		 pop	 edi
  000be	5e		 pop	 esi
  000bf	5b		 pop	 ebx
  000c0	8b e5		 mov	 esp, ebp
  000c2	5d		 pop	 ebp
  000c3	c3		 ret	 0
?setUserSoundOption@@YAXXZ ENDP				; setUserSoundOption
_TEXT	ENDS
; Function compile flags: /Odtp /RTCsu /ZI
; File c:\users\administrator\desktop\????? ??\????? ??\client source code\system\savedata.cpp
;	COMDAT ?clearUserSetting@@YAXH@Z
_TEXT	SEGMENT
$T1 = -212						; size = 4
_i$ = -8						; size = 4
_no$ = 8						; size = 4
?clearUserSetting@@YAXH@Z PROC				; clearUserSetting, COMDAT

; 407  : {

  00000	55		 push	 ebp
  00001	8b ec		 mov	 ebp, esp
  00003	81 ec d8 00 00
	00		 sub	 esp, 216		; 000000d8H
  00009	53		 push	 ebx
  0000a	56		 push	 esi
  0000b	57		 push	 edi
  0000c	8d bd 28 ff ff
	ff		 lea	 edi, DWORD PTR [ebp-216]
  00012	b9 36 00 00 00	 mov	 ecx, 54			; 00000036H
  00017	b8 cc cc cc cc	 mov	 eax, -858993460		; ccccccccH
  0001c	f3 ab		 rep stosd

; 408  : 	int i;
; 409  : 
; 410  : 	if( no < 0 || MAXCHARACTER <= no )

  0001e	83 7d 08 00	 cmp	 DWORD PTR _no$[ebp], 0
  00022	7c 06		 jl	 SHORT $LN6@clearUserS
  00024	83 7d 08 02	 cmp	 DWORD PTR _no$[ebp], 2
  00028	7c 02		 jl	 SHORT $LN5@clearUserS
$LN6@clearUserS:

; 411  : 		return;

  0002a	eb 51		 jmp	 SHORT $LN7@clearUserS
$LN5@clearUserS:

; 412  : 
; 413  : 	pc.battlePetNo = -1;

  0002c	83 c8 ff	 or	 eax, -1
  0002f	66 a3 aa 00 00
	00		 mov	 WORD PTR ?pc@@3UPC@@A+170, ax

; 414  : 
; 415  : 	// Pf???????
; 416  : 	// Pf?k??????
; 417  : 	for( i = 0; i < MAX_PET; i++ )

  00035	c7 45 f8 00 00
	00 00		 mov	 DWORD PTR _i$[ebp], 0
  0003c	eb 09		 jmp	 SHORT $LN4@clearUserS
$LN2@clearUserS:
  0003e	8b 45 f8	 mov	 eax, DWORD PTR _i$[ebp]
  00041	83 c0 01	 add	 eax, 1
  00044	89 45 f8	 mov	 DWORD PTR _i$[ebp], eax
$LN4@clearUserS:
  00047	83 7d f8 05	 cmp	 DWORD PTR _i$[ebp], 5
  0004b	7d 30		 jge	 SHORT $LN7@clearUserS

; 418  : 	{
; 419  : 		savedatabuf[BA_SEL_PEN+MAX_PET*no+i] = 0x00;

  0004d	6b 45 08 05	 imul	 eax, DWORD PTR _no$[ebp], 5
  00051	8b 4d f8	 mov	 ecx, DWORD PTR _i$[ebp]
  00054	8d 54 08 1a	 lea	 edx, DWORD PTR [eax+ecx+26]
  00058	89 95 2c ff ff
	ff		 mov	 DWORD PTR $T1[ebp], edx
  0005e	83 bd 2c ff ff
	ff 7f		 cmp	 DWORD PTR $T1[ebp], 127	; 0000007fH
  00065	73 02		 jae	 SHORT $LN8@clearUserS
  00067	eb 05		 jmp	 SHORT $LN9@clearUserS
$LN8@clearUserS:
  00069	e8 00 00 00 00	 call	 ___report_rangecheckfailure
$LN9@clearUserS:
  0006e	8b 85 2c ff ff
	ff		 mov	 eax, DWORD PTR $T1[ebp]
  00074	c6 80 00 00 00
	00 00		 mov	 BYTE PTR ?savedatabuf@@3PAEA[eax], 0

; 420  : 	}

  0007b	eb c1		 jmp	 SHORT $LN2@clearUserS
$LN7@clearUserS:

; 421  : }

  0007d	5f		 pop	 edi
  0007e	5e		 pop	 esi
  0007f	5b		 pop	 ebx
  00080	81 c4 d8 00 00
	00		 add	 esp, 216		; 000000d8H
  00086	3b ec		 cmp	 ebp, esp
  00088	e8 00 00 00 00	 call	 __RTC_CheckEsp
  0008d	8b e5		 mov	 esp, ebp
  0008f	5d		 pop	 ebp
  00090	c3		 ret	 0
?clearUserSetting@@YAXH@Z ENDP				; clearUserSetting
_TEXT	ENDS
; Function compile flags: /Odtp /RTCsu /ZI
; File c:\users\administrator\desktop\????? ??\????? ??\client source code\system\savedata.cpp
;	COMDAT ?getUserSetting@@YAXH@Z
_TEXT	SEGMENT
_i$ = -8						; size = 4
_no$ = 8						; size = 4
?getUserSetting@@YAXH@Z PROC				; getUserSetting, COMDAT

; 377  : {

  00000	55		 push	 ebp
  00001	8b ec		 mov	 ebp, esp
  00003	81 ec cc 00 00
	00		 sub	 esp, 204		; 000000ccH
  00009	53		 push	 ebx
  0000a	56		 push	 esi
  0000b	57		 push	 edi
  0000c	8d bd 34 ff ff
	ff		 lea	 edi, DWORD PTR [ebp-204]
  00012	b9 33 00 00 00	 mov	 ecx, 51			; 00000033H
  00017	b8 cc cc cc cc	 mov	 eax, -858993460		; ccccccccH
  0001c	f3 ab		 rep stosd

; 378  : 	int i;
; 379  : 
; 380  : 	if( no < 0 || MAXCHARACTER <= no )

  0001e	83 7d 08 00	 cmp	 DWORD PTR _no$[ebp], 0
  00022	7c 06		 jl	 SHORT $LN6@getUserSet
  00024	83 7d 08 02	 cmp	 DWORD PTR _no$[ebp], 2
  00028	7c 02		 jl	 SHORT $LN5@getUserSet
$LN6@getUserSet:

; 381  : 		return;

  0002a	eb 74		 jmp	 SHORT $LN1@getUserSet
$LN5@getUserSet:

; 382  : 
; 383  : 	// Pf???????
; 384  : 	// Pf?k??????
; 385  : 	pc.battlePetNo = -1;

  0002c	83 c8 ff	 or	 eax, -1
  0002f	66 a3 aa 00 00
	00		 mov	 WORD PTR ?pc@@3UPC@@A+170, ax

; 386  : 	for( i = 0; i < MAX_PET; i++ )

  00035	c7 45 f8 00 00
	00 00		 mov	 DWORD PTR _i$[ebp], 0
  0003c	eb 09		 jmp	 SHORT $LN4@getUserSet
$LN2@getUserSet:
  0003e	8b 45 f8	 mov	 eax, DWORD PTR _i$[ebp]
  00041	83 c0 01	 add	 eax, 1
  00044	89 45 f8	 mov	 DWORD PTR _i$[ebp], eax
$LN4@getUserSet:
  00047	83 7d f8 05	 cmp	 DWORD PTR _i$[ebp], 5
  0004b	7d 53		 jge	 SHORT $LN1@getUserSet

; 387  : 	{
; 388  : 		if( (savedatabuf[BA_SEL_PEN+MAX_PET*no+i] & 0x01) )

  0004d	6b 45 08 05	 imul	 eax, DWORD PTR _no$[ebp], 5
  00051	8b 4d f8	 mov	 ecx, DWORD PTR _i$[ebp]
  00054	0f b6 94 08 1a
	00 00 00	 movzx	 edx, BYTE PTR ?savedatabuf@@3PAEA[eax+ecx+26]
  0005c	83 e2 01	 and	 edx, 1
  0005f	74 12		 je	 SHORT $LN7@getUserSet

; 389  : 		{
; 390  : 			pc.selectPetNo[i] = 1;			

  00061	b8 01 00 00 00	 mov	 eax, 1
  00066	8b 4d f8	 mov	 ecx, DWORD PTR _i$[ebp]
  00069	66 89 04 4d ac
	00 00 00	 mov	 WORD PTR ?pc@@3UPC@@A[ecx*2+172], ax

; 391  : 		}
; 392  : 		else

  00071	eb 0d		 jmp	 SHORT $LN8@getUserSet
$LN7@getUserSet:

; 393  : 		{
; 394  : 			pc.selectPetNo[i] = 0;

  00073	33 c0		 xor	 eax, eax
  00075	8b 4d f8	 mov	 ecx, DWORD PTR _i$[ebp]
  00078	66 89 04 4d ac
	00 00 00	 mov	 WORD PTR ?pc@@3UPC@@A[ecx*2+172], ax
$LN8@getUserSet:

; 395  : 		}
; 396  : 		// ??????
; 397  : 		if( (savedatabuf[BA_SEL_PEN+MAX_PET*no+i] & 0x04) )

  00080	6b 45 08 05	 imul	 eax, DWORD PTR _no$[ebp], 5
  00084	8b 4d f8	 mov	 ecx, DWORD PTR _i$[ebp]
  00087	0f b6 94 08 1a
	00 00 00	 movzx	 edx, BYTE PTR ?savedatabuf@@3PAEA[eax+ecx+26]
  0008f	83 e2 04	 and	 edx, 4
  00092	74 0a		 je	 SHORT $LN9@getUserSet

; 398  : 		{
; 399  : 			pc.mailPetNo = i;

  00094	66 8b 45 f8	 mov	 ax, WORD PTR _i$[ebp]
  00098	66 a3 b6 00 00
	00		 mov	 WORD PTR ?pc@@3UPC@@A+182, ax
$LN9@getUserSet:

; 400  : 		}
; 401  : 	}

  0009e	eb 9e		 jmp	 SHORT $LN2@getUserSet
$LN1@getUserSet:

; 402  : }

  000a0	5f		 pop	 edi
  000a1	5e		 pop	 esi
  000a2	5b		 pop	 ebx
  000a3	8b e5		 mov	 esp, ebp
  000a5	5d		 pop	 ebp
  000a6	c3		 ret	 0
?getUserSetting@@YAXH@Z ENDP				; getUserSetting
_TEXT	ENDS
; Function compile flags: /Odtp /RTCsu /ZI
; File c:\users\administrator\desktop\????? ??\????? ??\client source code\system\savedata.cpp
;	COMDAT ?setUserSetting@@YAXH@Z
_TEXT	SEGMENT
$T1 = -212						; size = 4
_i$ = -8						; size = 4
_no$ = 8						; size = 4
?setUserSetting@@YAXH@Z PROC				; setUserSetting, COMDAT

; 332  : {

  00000	55		 push	 ebp
  00001	8b ec		 mov	 ebp, esp
  00003	81 ec d8 00 00
	00		 sub	 esp, 216		; 000000d8H
  00009	53		 push	 ebx
  0000a	56		 push	 esi
  0000b	57		 push	 edi
  0000c	8d bd 28 ff ff
	ff		 lea	 edi, DWORD PTR [ebp-216]
  00012	b9 36 00 00 00	 mov	 ecx, 54			; 00000036H
  00017	b8 cc cc cc cc	 mov	 eax, -858993460		; ccccccccH
  0001c	f3 ab		 rep stosd

; 333  : 	int i;
; 334  : 
; 335  : 	if( no < 0 || MAXCHARACTER <= no )

  0001e	83 7d 08 00	 cmp	 DWORD PTR _no$[ebp], 0
  00022	7c 06		 jl	 SHORT $LN6@setUserSet
  00024	83 7d 08 02	 cmp	 DWORD PTR _no$[ebp], 2
  00028	7c 05		 jl	 SHORT $LN5@setUserSet
$LN6@setUserSet:

; 336  : 		return;

  0002a	e9 ff 00 00 00	 jmp	 $LN13@setUserSet
$LN5@setUserSet:

; 337  : 
; 338  : 	// Pf???????
; 339  : 	// Pf?k??????
; 340  : 	for( i = 0; i < MAX_PET; i++ )

  0002f	c7 45 f8 00 00
	00 00		 mov	 DWORD PTR _i$[ebp], 0
  00036	eb 09		 jmp	 SHORT $LN4@setUserSet
$LN2@setUserSet:
  00038	8b 45 f8	 mov	 eax, DWORD PTR _i$[ebp]
  0003b	83 c0 01	 add	 eax, 1
  0003e	89 45 f8	 mov	 DWORD PTR _i$[ebp], eax
$LN4@setUserSet:
  00041	83 7d f8 05	 cmp	 DWORD PTR _i$[ebp], 5
  00045	0f 8d d9 00 00
	00		 jge	 $LN3@setUserSet

; 341  : 	{
; 342  : 		if( pc.selectPetNo[i] != 0 )

  0004b	8b 45 f8	 mov	 eax, DWORD PTR _i$[ebp]
  0004e	0f bf 0c 45 ac
	00 00 00	 movsx	 ecx, WORD PTR ?pc@@3UPC@@A[eax*2+172]
  00056	85 c9		 test	 ecx, ecx
  00058	74 2f		 je	 SHORT $LN7@setUserSet

; 343  : 		{
; 344  : 			savedatabuf[BA_SEL_PEN+MAX_PET*no+i] = 0x01;

  0005a	6b 45 08 05	 imul	 eax, DWORD PTR _no$[ebp], 5
  0005e	8b 4d f8	 mov	 ecx, DWORD PTR _i$[ebp]
  00061	c6 84 08 1a 00
	00 00 01	 mov	 BYTE PTR ?savedatabuf@@3PAEA[eax+ecx+26], 1

; 345  : 			// shan 2001/01/10
; 346  : 			if(sPetStatFlag==1)

  00069	83 3d 00 00 00
	00 01		 cmp	 DWORD PTR ?sPetStatFlag@@3HA, 1 ; sPetStatFlag
  00070	75 15		 jne	 SHORT $LN9@setUserSet

; 347  : 				lssproto_PETST_send( sockfd, i, 1);			

  00072	6a 01		 push	 1
  00074	8b 45 f8	 mov	 eax, DWORD PTR _i$[ebp]
  00077	50		 push	 eax
  00078	8b 0d 00 00 00
	00		 mov	 ecx, DWORD PTR ?sockfd@@3IA ; sockfd
  0007e	51		 push	 ecx
  0007f	e8 00 00 00 00	 call	 ?lssproto_PETST_send@@YAXHHH@Z ; lssproto_PETST_send
  00084	83 c4 0c	 add	 esp, 12			; 0000000cH
$LN9@setUserSet:

; 348  : 		}
; 349  : 		else

  00087	eb 4c		 jmp	 SHORT $LN8@setUserSet
$LN7@setUserSet:

; 350  : 		{
; 351  : 			savedatabuf[BA_SEL_PEN+MAX_PET*no+i] = 0x00;

  00089	6b 45 08 05	 imul	 eax, DWORD PTR _no$[ebp], 5
  0008d	8b 4d f8	 mov	 ecx, DWORD PTR _i$[ebp]
  00090	8d 54 08 1a	 lea	 edx, DWORD PTR [eax+ecx+26]
  00094	89 95 2c ff ff
	ff		 mov	 DWORD PTR $T1[ebp], edx
  0009a	83 bd 2c ff ff
	ff 7f		 cmp	 DWORD PTR $T1[ebp], 127	; 0000007fH
  000a1	73 02		 jae	 SHORT $LN14@setUserSet
  000a3	eb 05		 jmp	 SHORT $LN15@setUserSet
$LN14@setUserSet:
  000a5	e8 00 00 00 00	 call	 ___report_rangecheckfailure
$LN15@setUserSet:
  000aa	8b 85 2c ff ff
	ff		 mov	 eax, DWORD PTR $T1[ebp]
  000b0	c6 80 00 00 00
	00 00		 mov	 BYTE PTR ?savedatabuf@@3PAEA[eax], 0

; 352  : 			// shan 2001/01/10
; 353  : 			if(sPetStatFlag==1)

  000b7	83 3d 00 00 00
	00 01		 cmp	 DWORD PTR ?sPetStatFlag@@3HA, 1 ; sPetStatFlag
  000be	75 15		 jne	 SHORT $LN8@setUserSet

; 354  : 				lssproto_PETST_send( sockfd, i, 0);

  000c0	6a 00		 push	 0
  000c2	8b 45 f8	 mov	 eax, DWORD PTR _i$[ebp]
  000c5	50		 push	 eax
  000c6	8b 0d 00 00 00
	00		 mov	 ecx, DWORD PTR ?sockfd@@3IA ; sockfd
  000cc	51		 push	 ecx
  000cd	e8 00 00 00 00	 call	 ?lssproto_PETST_send@@YAXHHH@Z ; lssproto_PETST_send
  000d2	83 c4 0c	 add	 esp, 12			; 0000000cH
$LN8@setUserSet:

; 355  : 		}
; 356  : #if 0	// ????雪???????????
; 357  : 		if( i == pc.battlePetNo )
; 358  : 		{
; 359  : 			savedatabuf[BA_SEL_PEN+MAX_PET*no+i] |= 0x02;
; 360  : 		}
; 361  : #endif
; 362  : 		// ?????????
; 363  : 		if( i == pc.mailPetNo )

  000d5	0f bf 05 b6 00
	00 00		 movsx	 eax, WORD PTR ?pc@@3UPC@@A+182
  000dc	39 45 f8	 cmp	 DWORD PTR _i$[ebp], eax
  000df	75 3e		 jne	 SHORT $LN11@setUserSet

; 364  : 		{
; 365  : 			savedatabuf[BA_SEL_PEN+MAX_PET*no+i] |= 0x04;

  000e1	6b 45 08 05	 imul	 eax, DWORD PTR _no$[ebp], 5
  000e5	8b 4d f8	 mov	 ecx, DWORD PTR _i$[ebp]
  000e8	0f b6 94 08 1a
	00 00 00	 movzx	 edx, BYTE PTR ?savedatabuf@@3PAEA[eax+ecx+26]
  000f0	83 ca 04	 or	 edx, 4
  000f3	6b 45 08 05	 imul	 eax, DWORD PTR _no$[ebp], 5
  000f7	8b 4d f8	 mov	 ecx, DWORD PTR _i$[ebp]
  000fa	88 94 08 1a 00
	00 00		 mov	 BYTE PTR ?savedatabuf@@3PAEA[eax+ecx+26], dl

; 366  : 			// shan 2001/01/10
; 367  : 			if(sPetStatFlag==1)

  00101	83 3d 00 00 00
	00 01		 cmp	 DWORD PTR ?sPetStatFlag@@3HA, 1 ; sPetStatFlag
  00108	75 15		 jne	 SHORT $LN11@setUserSet

; 368  : 				lssproto_PETST_send( sockfd, i, 4);			

  0010a	6a 04		 push	 4
  0010c	8b 45 f8	 mov	 eax, DWORD PTR _i$[ebp]
  0010f	50		 push	 eax
  00110	8b 0d 00 00 00
	00		 mov	 ecx, DWORD PTR ?sockfd@@3IA ; sockfd
  00116	51		 push	 ecx
  00117	e8 00 00 00 00	 call	 ?lssproto_PETST_send@@YAXHHH@Z ; lssproto_PETST_send
  0011c	83 c4 0c	 add	 esp, 12			; 0000000cH
$LN11@setUserSet:

; 369  : 		}
; 370  : 	}

  0011f	e9 14 ff ff ff	 jmp	 $LN2@setUserSet
$LN3@setUserSet:

; 371  : 	sPetStatFlag = 0;

  00124	c7 05 00 00 00
	00 00 00 00 00	 mov	 DWORD PTR ?sPetStatFlag@@3HA, 0 ; sPetStatFlag
$LN13@setUserSet:

; 372  : }

  0012e	5f		 pop	 edi
  0012f	5e		 pop	 esi
  00130	5b		 pop	 ebx
  00131	81 c4 d8 00 00
	00		 add	 esp, 216		; 000000d8H
  00137	3b ec		 cmp	 ebp, esp
  00139	e8 00 00 00 00	 call	 __RTC_CheckEsp
  0013e	8b e5		 mov	 esp, ebp
  00140	5d		 pop	 ebp
  00141	c3		 ret	 0
?setUserSetting@@YAXH@Z ENDP				; setUserSetting
_TEXT	ENDS
; Function compile flags: /Odtp /RTCsu /ZI
; File c:\users\administrator\desktop\????? ??\????? ??\client source code\system\savedata.cpp
;	COMDAT ?loadUserSetting@@YAHXZ
_TEXT	SEGMENT
?loadUserSetting@@YAHXZ PROC				; loadUserSetting, COMDAT

; 132  : {

  00000	55		 push	 ebp
  00001	8b ec		 mov	 ebp, esp
  00003	81 ec c0 00 00
	00		 sub	 esp, 192		; 000000c0H
  00009	53		 push	 ebx
  0000a	56		 push	 esi
  0000b	57		 push	 edi
  0000c	8d bd 40 ff ff
	ff		 lea	 edi, DWORD PTR [ebp-192]
  00012	b9 30 00 00 00	 mov	 ecx, 48			; 00000030H
  00017	b8 cc cc cc cc	 mov	 eax, -858993460		; ccccccccH
  0001c	f3 ab		 rep stosd

; 133  : 	if( loadNowState() )

  0001e	e8 00 00 00 00	 call	 ?loadNowState@@YAHXZ	; loadNowState
  00023	85 c0		 test	 eax, eax
  00025	74 16		 je	 SHORT $LN2@loadUserSe

; 134  : 	{
; 135  : 		getUserSoundOption();

  00027	e8 00 00 00 00	 call	 ?getUserSoundOption@@YAXXZ ; getUserSoundOption

; 136  : 		getUserChatOption();

  0002c	e8 00 00 00 00	 call	 ?getUserChatOption@@YAXXZ ; getUserChatOption

; 137  : 		getUserInterfaceOption();

  00031	e8 00 00 00 00	 call	 ?getUserInterfaceOption@@YAXXZ ; getUserInterfaceOption

; 138  : 
; 139  : 		return TRUE;

  00036	b8 01 00 00 00	 mov	 eax, 1
  0003b	eb 02		 jmp	 SHORT $LN1@loadUserSe
$LN2@loadUserSe:

; 140  : 	}
; 141  : 
; 142  : 	return FALSE;

  0003d	33 c0		 xor	 eax, eax
$LN1@loadUserSe:

; 143  : }

  0003f	5f		 pop	 edi
  00040	5e		 pop	 esi
  00041	5b		 pop	 ebx
  00042	81 c4 c0 00 00
	00		 add	 esp, 192		; 000000c0H
  00048	3b ec		 cmp	 ebp, esp
  0004a	e8 00 00 00 00	 call	 __RTC_CheckEsp
  0004f	8b e5		 mov	 esp, ebp
  00051	5d		 pop	 ebp
  00052	c3		 ret	 0
?loadUserSetting@@YAHXZ ENDP				; loadUserSetting
_TEXT	ENDS
; Function compile flags: /Odtp /RTCsu /ZI
; File c:\users\administrator\desktop\????? ??\????? ??\client source code\system\savedata.cpp
;	COMDAT ?saveUserSetting@@YAHXZ
_TEXT	SEGMENT
?saveUserSetting@@YAHXZ PROC				; saveUserSetting, COMDAT

; 118  : {

  00000	55		 push	 ebp
  00001	8b ec		 mov	 ebp, esp
  00003	81 ec c0 00 00
	00		 sub	 esp, 192		; 000000c0H
  00009	53		 push	 ebx
  0000a	56		 push	 esi
  0000b	57		 push	 edi
  0000c	8d bd 40 ff ff
	ff		 lea	 edi, DWORD PTR [ebp-192]
  00012	b9 30 00 00 00	 mov	 ecx, 48			; 00000030H
  00017	b8 cc cc cc cc	 mov	 eax, -858993460		; ccccccccH
  0001c	f3 ab		 rep stosd

; 119  : 	setUserSetting( selectPcNo );

  0001e	0f bf 05 00 00
	00 00		 movsx	 eax, WORD PTR ?selectPcNo@@3FA ; selectPcNo
  00025	50		 push	 eax
  00026	e8 00 00 00 00	 call	 ?setUserSetting@@YAXH@Z	; setUserSetting
  0002b	83 c4 04	 add	 esp, 4

; 120  : 	setUserSoundOption();

  0002e	e8 00 00 00 00	 call	 ?setUserSoundOption@@YAXXZ ; setUserSoundOption

; 121  : 	setUserChatOption();

  00033	e8 00 00 00 00	 call	 ?setUserChatOption@@YAXXZ ; setUserChatOption

; 122  : 	setUserInterfaceOption();

  00038	e8 00 00 00 00	 call	 ?setUserInterfaceOption@@YAXXZ ; setUserInterfaceOption

; 123  : 
; 124  : 	return saveNowState();

  0003d	e8 00 00 00 00	 call	 ?saveNowState@@YAHXZ	; saveNowState

; 125  : }

  00042	5f		 pop	 edi
  00043	5e		 pop	 esi
  00044	5b		 pop	 ebx
  00045	81 c4 c0 00 00
	00		 add	 esp, 192		; 000000c0H
  0004b	3b ec		 cmp	 ebp, esp
  0004d	e8 00 00 00 00	 call	 __RTC_CheckEsp
  00052	8b e5		 mov	 esp, ebp
  00054	5d		 pop	 ebp
  00055	c3		 ret	 0
?saveUserSetting@@YAHXZ ENDP				; saveUserSetting
_TEXT	ENDS
; Function compile flags: /Odtp /RTCsu /ZI
; File c:\program files (x86)\windows kits\10\include\10.0.10240.0\ucrt\string.h
;	COMDAT ?strstr@@YAPADQADQBD@Z
_TEXT	SEGMENT
__String$ = 8						; size = 4
__SubString$ = 12					; size = 4
?strstr@@YAPADQADQBD@Z PROC				; strstr, COMDAT

; 536  :     {

  00000	55		 push	 ebp
  00001	8b ec		 mov	 ebp, esp
  00003	81 ec c0 00 00
	00		 sub	 esp, 192		; 000000c0H
  00009	53		 push	 ebx
  0000a	56		 push	 esi
  0000b	57		 push	 edi
  0000c	8d bd 40 ff ff
	ff		 lea	 edi, DWORD PTR [ebp-192]
  00012	b9 30 00 00 00	 mov	 ecx, 48			; 00000030H
  00017	b8 cc cc cc cc	 mov	 eax, -858993460		; ccccccccH
  0001c	f3 ab		 rep stosd

; 537  :         return const_cast<char*>(strstr(static_cast<char const*>(_String), _SubString));

  0001e	8b f4		 mov	 esi, esp
  00020	8b 45 0c	 mov	 eax, DWORD PTR __SubString$[ebp]
  00023	50		 push	 eax
  00024	8b 4d 08	 mov	 ecx, DWORD PTR __String$[ebp]
  00027	51		 push	 ecx
  00028	ff 15 00 00 00
	00		 call	 DWORD PTR __imp__strstr
  0002e	83 c4 08	 add	 esp, 8
  00031	3b f4		 cmp	 esi, esp
  00033	e8 00 00 00 00	 call	 __RTC_CheckEsp

; 538  :     }

  00038	5f		 pop	 edi
  00039	5e		 pop	 esi
  0003a	5b		 pop	 ebx
  0003b	81 c4 c0 00 00
	00		 add	 esp, 192		; 000000c0H
  00041	3b ec		 cmp	 ebp, esp
  00043	e8 00 00 00 00	 call	 __RTC_CheckEsp
  00048	8b e5		 mov	 esp, ebp
  0004a	5d		 pop	 ebp
  0004b	c3		 ret	 0
?strstr@@YAPADQADQBD@Z ENDP				; strstr
_TEXT	ENDS
END
