; Listing generated by Microsoft (R) Optimizing Compiler Version 19.00.24215.1 

	TITLE	C:\Users\Administrator\Desktop\????? ??\????? ??\Client Source Code\oft\sys2.cpp
	.686P
	.XMM
	include listing.inc
	.model	flat

INCLUDELIB MSVCRTD
INCLUDELIB OLDNAMES

PUBLIC	?pDInput@@3PAUIDirectInputA@@A			; pDInput
PUBLIC	?pDInput2@@3PAUIDirectInputA@@A			; pDInput2
PUBLIC	?m_bt@@3_NA					; m_bt
_BSS	SEGMENT
?pDInput@@3PAUIDirectInputA@@A DD 01H DUP (?)		; pDInput
?pDInput2@@3PAUIDirectInputA@@A DD 01H DUP (?)		; pDInput2
?m_bt@@3_NA DB	01H DUP (?)				; m_bt
_BSS	ENDS
_DATA	SEGMENT
?RideCodeMode@@3PAUtagRideCodeMode@@A DD 018816H	; RideCodeMode
	DD	01H
	DD	018806H
	DD	02H
	DD	01880aH
	DD	04H
	DD	0187b7H
	DD	08H
	DD	0187c0H
	DD	010H
	DD	0187bbH
	DD	020H
	DD	0187faH
	DD	040H
	DD	0187d6H
	DD	080H
	DD	018814H
	DD	0100H
	DD	018815H
	DD	0200H
	DD	018c9cH
	DD	0800H
	DD	018cc8H
	DD	0400H
	DD	018812H
	DD	01000H
	DD	018811H
	DD	02000H
	DD	018a28H
	DD	04000H
	DD	018a2bH
	DD	08000H
	DD	018f30H
	DD	010000H
	DD	018f31H
	DD	020000H
	DD	018f68H
	DD	040000H
	DD	0187fcH
	DD	080000H
	DD	0187d3H
	DD	0100000H
	DD	018fa9H
	DD	0200000H
	DD	018faaH
	DD	0400000H
	DD	018a09H
	DD	0800000H
	DD	018a0aH
	DD	01000000H
	DD	019394H
	DD	02000000H
	DD	0187b2H
	DD	04000000H
?RideNoList@@3PAUtagRideNoList@@A DD 018bb9H		; RideNoList
	DD	018bbaH
	DD	018bbbH
	DD	018bbcH
	DD	018bbdH
	DD	018bbeH
	DD	018bbfH
	DD	018bc0H
	DD	018a90H
	DD	018a91H
	DD	018e5aH
	DD	018e65H
	DD	018849H
	DD	018844H
	DD	01885dH
	DD	018ee5H
	DD	018f0dH
	DD	018f19H
	DD	018f76H
	ORG $+32
	DD	018bc1H
	DD	018bc2H
	DD	018bc3H
	DD	018bc4H
	DD	018bc5H
	DD	018bc6H
	DD	018bc7H
	DD	018bc8H
	DD	018a9aH
	DD	018a9bH
	DD	018e62H
	DD	018e64H
	DD	018849H
	DD	018844H
	DD	01885dH
	DD	018ee6H
	DD	018f0eH
	DD	018f1aH
	DD	018f77H
	ORG $+32
	DD	018bc9H
	DD	018bcaH
	DD	018bcbH
	DD	018bccH
	DD	018bcdH
	DD	018bceH
	DD	018bcfH
	DD	018bd0H
	DD	018aa4H
	DD	018aa5H
	DD	018e57H
	DD	018e4dH
	DD	018849H
	DD	018844H
	DD	01885dH
	DD	018ee7H
	DD	018f0fH
	DD	018f1bH
	DD	018f78H
	ORG $+32
	DD	018bd1H
	DD	018bd2H
	DD	018bd3H
	DD	018bd4H
	DD	018bd5H
	DD	018bd6H
	DD	018bd7H
	DD	018bd8H
	DD	018aaeH
	DD	018aafH
	DD	018e58H
	DD	018e4eH
	DD	018849H
	DD	018844H
	DD	01885dH
	DD	018ee8H
	DD	018f10H
	DD	018f1cH
	DD	018f79H
	ORG $+32
	DD	018bd9H
	DD	018bdaH
	DD	018bdbH
	DD	018bdcH
	DD	018bddH
	DD	018bdeH
	DD	018bdfH
	DD	018be0H
	DD	018ab8H
	DD	018ab9H
	DD	018e60H
	DD	018e55H
	DD	018849H
	DD	018844H
	DD	01885dH
	DD	018ee9H
	DD	018f11H
	DD	018f1dH
	DD	018f7aH
	ORG $+32
	DD	018be1H
	DD	018be2H
	DD	018be3H
	DD	018be4H
	DD	018be5H
	DD	018be6H
	DD	018be7H
	DD	018be8H
	DD	018ac2H
	DD	018ac3H
	DD	018e61H
	DD	018e56H
	DD	018849H
	DD	018844H
	DD	01885dH
	DD	018eeaH
	DD	018f12H
	DD	018f1eH
	DD	018f7bH
	ORG $+32
	DD	018be9H
	DD	018beaH
	DD	018bebH
	DD	018becH
	DD	018bedH
	DD	018beeH
	DD	018befH
	DD	018bf0H
	DD	018accH
	DD	018acdH
	DD	018e59H
	DD	018e4fH
	DD	018849H
	DD	018844H
	DD	01885dH
	DD	018eebH
	DD	018f13H
	DD	018f1fH
	DD	018f7cH
	ORG $+32
	DD	018bf1H
	DD	018bf2H
	DD	018bf3H
	DD	018bf4H
	DD	018bf5H
	DD	018bf6H
	DD	018bf7H
	DD	018bf8H
	DD	018ad6H
	DD	018ad7H
	DD	018e5bH
	DD	018e50H
	DD	018849H
	DD	018844H
	DD	01885dH
	DD	018eecH
	DD	018f14H
	DD	018f20H
	DD	018f7dH
	ORG $+32
	DD	018bf9H
	DD	018bfaH
	DD	018bfbH
	DD	018bfcH
	DD	018bfdH
	DD	018bfeH
	DD	018bffH
	DD	018c00H
	DD	018ae0H
	DD	018ae1H
	DD	018e5dH
	DD	018e52H
	DD	018849H
	DD	018844H
	DD	01885dH
	DD	018eedH
	DD	018f15H
	DD	018f21H
	DD	018f7eH
	ORG $+32
	DD	018c01H
	DD	018c02H
	DD	018c03H
	DD	018c04H
	DD	018c05H
	DD	018c06H
	DD	018c07H
	DD	018c08H
	DD	018aeaH
	DD	018aebH
	DD	018e5cH
	DD	018e51H
	DD	018849H
	DD	018844H
	DD	01885dH
	DD	018eeeH
	DD	018f16H
	DD	018f22H
	DD	018f7fH
	ORG $+32
	DD	018c09H
	DD	018c0aH
	DD	018c0bH
	DD	018c0cH
	DD	018c0dH
	DD	018c0eH
	DD	018c0fH
	DD	018c10H
	DD	018af4H
	DD	018af5H
	DD	018e5fH
	DD	018e54H
	DD	018849H
	DD	018844H
	DD	01885dH
	DD	018eefH
	DD	018f17H
	DD	018f23H
	DD	018f80H
	ORG $+32
	DD	018c11H
	DD	018c12H
	DD	018c13H
	DD	018c14H
	DD	018c15H
	DD	018c16H
	DD	018c17H
	DD	018c18H
	DD	018afeH
	DD	018affH
	DD	018e5eH
	DD	018e53H
	DD	018849H
	DD	018844H
	DD	01885dH
	DD	018ef0H
	DD	018f18H
	DD	018f24H
	DD	018f81H
	ORG $+32
?RPlistMode@@3PAUtagRidePetList@@A DD 0186a0H		; RPlistMode
	DD	00H
	DD	0186a5H
	DD	00H
	DD	0186aaH
	DD	00H
	DD	0186afH
	DD	00H
	DD	0186b4H
	DD	01H
	DD	0186b9H
	DD	01H
	DD	0186beH
	DD	01H
	DD	0186c3H
	DD	01H
	DD	0186c8H
	DD	02H
	DD	0186cdH
	DD	02H
	DD	0186d2H
	DD	02H
	DD	0186d7H
	DD	02H
	DD	0186dcH
	DD	03H
	DD	0186e1H
	DD	03H
	DD	0186e6H
	DD	03H
	DD	0186ebH
	DD	03H
	DD	0186f0H
	DD	04H
	DD	0186f5H
	DD	04H
	DD	0186faH
	DD	04H
	DD	0186ffH
	DD	04H
	DD	018704H
	DD	05H
	DD	018709H
	DD	05H
	DD	01870eH
	DD	05H
	DD	018713H
	DD	05H
	DD	018718H
	DD	06H
	DD	01871dH
	DD	06H
	DD	018722H
	DD	06H
	DD	018727H
	DD	06H
	DD	01872cH
	DD	07H
	DD	018731H
	DD	07H
	DD	018736H
	DD	07H
	DD	01873bH
	DD	07H
	DD	018740H
	DD	08H
	DD	018745H
	DD	08H
	DD	01874aH
	DD	08H
	DD	01874fH
	DD	08H
	DD	018754H
	DD	09H
	DD	018759H
	DD	09H
	DD	01875eH
	DD	09H
	DD	018763H
	DD	09H
	DD	018768H
	DD	0aH
	DD	01876dH
	DD	0aH
	DD	018772H
	DD	0aH
	DD	018777H
	DD	0aH
	DD	01877cH
	DD	0bH
	DD	018781H
	DD	0bH
	DD	018786H
	DD	0bH
	DD	01878bH
	DD	0bH
?ridePetTable@@3PAUtagRidePetTable@@A DD 018a88H	; ridePetTable
	DD	0186a0H
	DD	018800H
	DD	00H
	DD	018a89H
	DD	0186a5H
	DD	018800H
	DD	00H
	DD	018a8aH
	DD	0186aaH
	DD	018800H
	DD	00H
	DD	018a8bH
	DD	0186afH
	DD	018800H
	DD	00H
	DD	018a8cH
	DD	0186a0H
	DD	0187e9H
	DD	00H
	DD	018a8dH
	DD	0186a5H
	DD	0187e7H
	DD	00H
	DD	018a8eH
	DD	0186aaH
	DD	0187eaH
	DD	00H
	DD	018a8fH
	DD	0186afH
	DD	0187e8H
	DD	00H
	DD	018a90H
	DD	01895cH
	DD	018814H
	DD	00H
	DD	018a91H
	DD	018961H
	DD	018815H
	DD	00H
	DD	018e65H
	DD	018961H
	DD	018cc8H
	DD	00H
	DD	018e5aH
	DD	018961H
	DD	018c9cH
	DD	00H
	DD	018a92H
	DD	0186b4H
	DD	01882cH
	DD	00H
	DD	018a93H
	DD	0186b9H
	DD	01882cH
	DD	00H
	DD	018a94H
	DD	0186beH
	DD	01882cH
	DD	00H
	DD	018a95H
	DD	0186c3H
	DD	01882cH
	DD	00H
	DD	018a96H
	DD	0186b4H
	DD	0187e8H
	DD	00H
	DD	018a97H
	DD	0186b9H
	DD	0187e9H
	DD	00H
	DD	018a98H
	DD	0186beH
	DD	0187e7H
	DD	00H
	DD	018a99H
	DD	0186c3H
	DD	0187eaH
	DD	00H
	DD	018a9aH
	DD	018966H
	DD	018814H
	DD	00H
	DD	018a9bH
	DD	01896bH
	DD	018815H
	DD	00H
	DD	018e64H
	DD	01896bH
	DD	018cc8H
	DD	00H
	DD	018e62H
	DD	01896bH
	DD	018c9cH
	DD	00H
	DD	018a9cH
	DD	0186c8H
	DD	0187ffH
	DD	00H
	DD	018a9dH
	DD	0186cdH
	DD	0187ffH
	DD	00H
	DD	018a9eH
	DD	0186d2H
	DD	0187ffH
	DD	00H
	DD	018a9fH
	DD	0186d7H
	DD	0187ffH
	DD	00H
	DD	018aa0H
	DD	0186c8H
	DD	0187e8H
	DD	00H
	DD	018aa1H
	DD	0186cdH
	DD	0187eaH
	DD	00H
	DD	018aa2H
	DD	0186d2H
	DD	0187e7H
	DD	00H
	DD	018aa3H
	DD	0186d7H
	DD	0187e9H
	DD	00H
	DD	018aa4H
	DD	018970H
	DD	018814H
	DD	00H
	DD	018aa5H
	DD	018975H
	DD	018815H
	DD	00H
	DD	018e4dH
	DD	018975H
	DD	018cc8H
	DD	00H
	DD	018e57H
	DD	018975H
	DD	018c9cH
	DD	00H
	DD	018aa6H
	DD	0186dcH
	DD	018801H
	DD	00H
	DD	018aa7H
	DD	0186e1H
	DD	018801H
	DD	00H
	DD	018aa8H
	DD	0186e6H
	DD	018801H
	DD	00H
	DD	018aa9H
	DD	0186ebH
	DD	018801H
	DD	00H
	DD	018aaaH
	DD	0186dcH
	DD	0187e9H
	DD	00H
	DD	018aabH
	DD	0186e1H
	DD	0187e7H
	DD	00H
	DD	018aacH
	DD	0186e6H
	DD	0187eaH
	DD	00H
	DD	018aadH
	DD	0186ebH
	DD	0187e8H
	DD	00H
	DD	018aaeH
	DD	01897aH
	DD	018814H
	DD	00H
	DD	018aafH
	DD	01897fH
	DD	018815H
	DD	00H
	DD	018e4eH
	DD	01897fH
	DD	018cc8H
	DD	00H
	DD	018e58H
	DD	01897fH
	DD	018c9cH
	DD	00H
	DD	018ab0H
	DD	0186f0H
	DD	01882cH
	DD	00H
	DD	018ab1H
	DD	0186f5H
	DD	01882cH
	DD	00H
	DD	018ab2H
	DD	0186faH
	DD	01882cH
	DD	00H
	DD	018ab3H
	DD	0186ffH
	DD	01882cH
	DD	00H
	DD	018ab4H
	DD	0186f0H
	DD	0187e8H
	DD	00H
	DD	018ab5H
	DD	0186f5H
	DD	0187e7H
	DD	00H
	DD	018ab6H
	DD	0186faH
	DD	0187eaH
	DD	00H
	DD	018ab7H
	DD	0186ffH
	DD	0187e9H
	DD	00H
	DD	018ab8H
	DD	018984H
	DD	018814H
	DD	00H
	DD	018ab9H
	DD	018989H
	DD	018815H
	DD	00H
	DD	018e55H
	DD	018989H
	DD	018cc8H
	DD	00H
	DD	018e60H
	DD	018989H
	DD	018c9cH
	DD	00H
	DD	018abaH
	DD	018704H
	DD	018801H
	DD	00H
	DD	018abbH
	DD	018709H
	DD	018801H
	DD	00H
	DD	018abcH
	DD	01870eH
	DD	018801H
	DD	00H
	DD	018abdH
	DD	018713H
	DD	018801H
	DD	00H
	DD	018abeH
	DD	018704H
	DD	0187e9H
	DD	00H
	DD	018abfH
	DD	018709H
	DD	0187e8H
	DD	00H
	DD	018ac0H
	DD	01870eH
	DD	0187eaH
	DD	00H
	DD	018ac1H
	DD	018713H
	DD	0187e7H
	DD	00H
	DD	018ac2H
	DD	01898eH
	DD	018814H
	DD	00H
	DD	018ac3H
	DD	018993H
	DD	018815H
	DD	00H
	DD	018e56H
	DD	018993H
	DD	018cc8H
	DD	00H
	DD	018e61H
	DD	018993H
	DD	018c9cH
	DD	00H
	DD	018ac4H
	DD	018718H
	DD	018802H
	DD	00H
	DD	018ac5H
	DD	01871dH
	DD	018802H
	DD	00H
	DD	018ac6H
	DD	018722H
	DD	018802H
	DD	00H
	DD	018ac7H
	DD	018727H
	DD	018802H
	DD	00H
	DD	018ac8H
	DD	018718H
	DD	0187e7H
	DD	00H
	DD	018ac9H
	DD	01871dH
	DD	0187eaH
	DD	00H
	DD	018acaH
	DD	018722H
	DD	0187e8H
	DD	00H
	DD	018acbH
	DD	018727H
	DD	0187e9H
	DD	00H
	DD	018accH
	DD	018998H
	DD	018814H
	DD	00H
	DD	018acdH
	DD	01899dH
	DD	018815H
	DD	00H
	DD	018e4fH
	DD	01899dH
	DD	018cc8H
	DD	00H
	DD	018e59H
	DD	01899dH
	DD	018c9cH
	DD	00H
	DD	018aceH
	DD	01872cH
	DD	018802H
	DD	00H
	DD	018acfH
	DD	018731H
	DD	018802H
	DD	00H
	DD	018ad0H
	DD	018736H
	DD	018802H
	DD	00H
	DD	018ad1H
	DD	01873bH
	DD	018802H
	DD	00H
	DD	018ad2H
	DD	01872cH
	DD	0187e7H
	DD	00H
	DD	018ad3H
	DD	018731H
	DD	0187e9H
	DD	00H
	DD	018ad4H
	DD	018736H
	DD	0187eaH
	DD	00H
	DD	018ad5H
	DD	01873bH
	DD	0187e8H
	DD	00H
	DD	018ad6H
	DD	0189a2H
	DD	018814H
	DD	00H
	DD	018ad7H
	DD	0189a7H
	DD	018815H
	DD	00H
	DD	018e50H
	DD	0189a7H
	DD	018cc8H
	DD	00H
	DD	018e5bH
	DD	0189a7H
	DD	018c9cH
	DD	00H
	DD	018ad8H
	DD	018740H
	DD	018800H
	DD	00H
	DD	018ad9H
	DD	018745H
	DD	018800H
	DD	00H
	DD	018adaH
	DD	01874aH
	DD	018800H
	DD	00H
	DD	018adbH
	DD	01874fH
	DD	018800H
	DD	00H
	DD	018adcH
	DD	018740H
	DD	0187eaH
	DD	00H
	DD	018addH
	DD	018745H
	DD	0187e9H
	DD	00H
	DD	018adeH
	DD	01874aH
	DD	0187e7H
	DD	00H
	DD	018adfH
	DD	01874fH
	DD	0187e8H
	DD	00H
	DD	018ae0H
	DD	0189acH
	DD	018814H
	DD	00H
	DD	018ae1H
	DD	0189b1H
	DD	018815H
	DD	00H
	DD	018e52H
	DD	0189b1H
	DD	018cc8H
	DD	00H
	DD	018e5dH
	DD	0189b1H
	DD	018c9cH
	DD	00H
	DD	018ae2H
	DD	018754H
	DD	0187ffH
	DD	00H
	DD	018ae3H
	DD	018759H
	DD	0187ffH
	DD	00H
	DD	018ae4H
	DD	01875eH
	DD	0187ffH
	DD	00H
	DD	018ae5H
	DD	018763H
	DD	0187ffH
	DD	00H
	DD	018ae6H
	DD	018754H
	DD	0187e8H
	DD	00H
	DD	018ae7H
	DD	018759H
	DD	0187eaH
	DD	00H
	DD	018ae8H
	DD	01875eH
	DD	0187e9H
	DD	00H
	DD	018ae9H
	DD	018763H
	DD	0187e7H
	DD	00H
	DD	018aeaH
	DD	0189b6H
	DD	018814H
	DD	00H
	DD	018aebH
	DD	0189bbH
	DD	018815H
	DD	00H
	DD	018e51H
	DD	0189bbH
	DD	018cc8H
	DD	00H
	DD	018e5cH
	DD	0189bbH
	DD	018c9cH
	DD	00H
	DD	018aecH
	DD	018768H
	DD	018801H
	DD	00H
	DD	018aedH
	DD	01876dH
	DD	018801H
	DD	00H
	DD	018aeeH
	DD	018772H
	DD	018801H
	DD	00H
	DD	018aefH
	DD	018777H
	DD	018801H
	DD	00H
	DD	018af0H
	DD	018768H
	DD	0187e9H
	DD	00H
	DD	018af1H
	DD	01876dH
	DD	0187e8H
	DD	00H
	DD	018af2H
	DD	018772H
	DD	0187e7H
	DD	00H
	DD	018af3H
	DD	018777H
	DD	0187eaH
	DD	00H
	DD	018af4H
	DD	0189c0H
	DD	018814H
	DD	00H
	DD	018af5H
	DD	0189c5H
	DD	018815H
	DD	00H
	DD	018e54H
	DD	0189c5H
	DD	018cc8H
	DD	00H
	DD	018e5fH
	DD	0189c5H
	DD	018c9cH
	DD	00H
	DD	018af6H
	DD	01877cH
	DD	01882cH
	DD	00H
	DD	018af7H
	DD	018781H
	DD	01882cH
	DD	00H
	DD	018af8H
	DD	018786H
	DD	01882cH
	DD	00H
	DD	018af9H
	DD	01878bH
	DD	01882cH
	DD	00H
	DD	018afaH
	DD	01877cH
	DD	0187eaH
	DD	00H
	DD	018afbH
	DD	018781H
	DD	0187e7H
	DD	00H
	DD	018afcH
	DD	018786H
	DD	0187e9H
	DD	00H
	DD	018afdH
	DD	01878bH
	DD	0187e8H
	DD	00H
	DD	018afeH
	DD	0189caH
	DD	018814H
	DD	00H
	DD	018affH
	DD	0189cfH
	DD	018815H
	DD	00H
	DD	018e53H
	DD	0189cfH
	DD	018cc8H
	DD	00H
	DD	018e5eH
	DD	0189cfH
	DD	018c9cH
	DD	00H
	DD	018b3bH
	DD	018b39H
	DD	018b3aH
	DD	00H
	DD	018b3bH
	DD	018b3aH
	DD	018b39H
	DD	00H
_DATA	ENDS
PUBLIC	?joy_auto_repeat@@YAKE@Z			; joy_auto_repeat
PUBLIC	?GetJoystickCallback@@YGHPAUDIDEVICEINSTANCEA@@PAX@Z ; GetJoystickCallback
PUBLIC	?joy_read@@YAXXZ				; joy_read
PUBLIC	?InitDInput@@YAHXZ				; InitDInput
PUBLIC	?EndDInput@@YAHXZ				; EndDInput
EXTRN	___report_rangecheckfailure:PROC
EXTRN	__imp__GetAsyncKeyState@4:PROC
EXTRN	_DirectInputCreateA@16:PROC
EXTRN	?GetImeString@@YAPADXZ:PROC			; GetImeString
EXTRN	?lssproto_MA_send@@YAXHHHH@Z:PROC		; lssproto_MA_send
EXTRN	?setCharMind@@YAXPAUaction@@H@Z:PROC		; setCharMind
EXTRN	@_RTC_CheckStackVars@8:PROC
EXTRN	@__security_check_cookie@4:PROC
EXTRN	__RTC_CheckEsp:PROC
EXTRN	__RTC_InitBase:PROC
EXTRN	__RTC_Shutdown:PROC
EXTRN	?hWnd@@3PAUHWND__@@A:DWORD			; hWnd
EXTRN	_IID_IDirectInputDevice2A:BYTE
EXTRN	_GUID_SysKeyboard:BYTE
EXTRN	_c_dfDIKeyboard:BYTE
EXTRN	_c_dfDIJoystick:BYTE
EXTRN	?joy_con@@3PAKA:QWORD				; joy_con
EXTRN	?joy_trg@@3PAKA:QWORD				; joy_trg
EXTRN	?joy_pul@@3PAKA:QWORD				; joy_pul
EXTRN	?joy_buf@@3PAKA:QWORD				; joy_buf
EXTRN	?joy_auto@@3PAKA:QWORD				; joy_auto
EXTRN	?joy_timer@@3PAGA:DWORD				; joy_timer
EXTRN	?di_key@@3PAEA:BYTE				; di_key
EXTRN	?pDInputDevice@@3PAUIDirectInputDeviceA@@A:DWORD ; pDInputDevice
EXTRN	?pDInputDevice2@@3PAUIDirectInputDevice2A@@A:DWORD ; pDInputDevice2
EXTRN	?joy_flg@@3DA:BYTE				; joy_flg
EXTRN	?keyboad_flg@@3DA:BYTE				; keyboad_flg
EXTRN	?DInputActiveFlag@@3HA:DWORD			; DInputActiveFlag
EXTRN	?pc@@3UPC@@A:BYTE				; pc
EXTRN	?sockfd@@3IA:DWORD				; sockfd
EXTRN	?nowGx@@3HA:DWORD				; nowGx
EXTRN	?nowGy@@3HA:DWORD				; nowGy
EXTRN	?hInst@@3PAUHINSTANCE__@@A:DWORD		; hInst
EXTRN	___security_cookie:DWORD
;	COMDAT rtc$TMZ
rtc$TMZ	SEGMENT
__RTC_Shutdown.rtc$TMZ DD FLAT:__RTC_Shutdown
rtc$TMZ	ENDS
;	COMDAT rtc$IMZ
rtc$IMZ	SEGMENT
__RTC_InitBase.rtc$IMZ DD FLAT:__RTC_InitBase
rtc$IMZ	ENDS
; Function compile flags: /Odtp /RTCsu /ZI
; File c:\users\administrator\desktop\????? ??\????? ??\client source code\oft\sys2.cpp
;	COMDAT ?EndDInput@@YAHXZ
_TEXT	SEGMENT
?EndDInput@@YAHXZ PROC					; EndDInput, COMDAT

; 667  : {

  00000	55		 push	 ebp
  00001	8b ec		 mov	 ebp, esp
  00003	81 ec c0 00 00
	00		 sub	 esp, 192		; 000000c0H
  00009	53		 push	 ebx
  0000a	56		 push	 esi
  0000b	57		 push	 edi
  0000c	8d bd 40 ff ff
	ff		 lea	 edi, DWORD PTR [ebp-192]
  00012	b9 30 00 00 00	 mov	 ecx, 48			; 00000030H
  00017	b8 cc cc cc cc	 mov	 eax, -858993460		; ccccccccH
  0001c	f3 ab		 rep stosd

; 668  : 	//?????£Ï£Ë??
; 669  : 	if(keyboad_flg == TRUE){

  0001e	0f be 05 00 00
	00 00		 movsx	 eax, BYTE PTR ?keyboad_flg@@3DA ; keyboad_flg
  00025	83 f8 01	 cmp	 eax, 1
  00028	75 7a		 jne	 SHORT $LN2@EndDInput

; 670  : 		pDInputDevice->Unacquire();

  0002a	a1 00 00 00 00	 mov	 eax, DWORD PTR ?pDInputDevice@@3PAUIDirectInputDeviceA@@A ; pDInputDevice
  0002f	8b 08		 mov	 ecx, DWORD PTR [eax]
  00031	8b f4		 mov	 esi, esp
  00033	8b 15 00 00 00
	00		 mov	 edx, DWORD PTR ?pDInputDevice@@3PAUIDirectInputDeviceA@@A ; pDInputDevice
  00039	52		 push	 edx
  0003a	8b 41 20	 mov	 eax, DWORD PTR [ecx+32]
  0003d	ff d0		 call	 eax
  0003f	3b f4		 cmp	 esi, esp
  00041	e8 00 00 00 00	 call	 __RTC_CheckEsp

; 671  : 		RELEASE(pDInputDevice);

  00046	83 3d 00 00 00
	00 00		 cmp	 DWORD PTR ?pDInputDevice@@3PAUIDirectInputDeviceA@@A, 0 ; pDInputDevice
  0004d	74 26		 je	 SHORT $LN3@EndDInput
  0004f	a1 00 00 00 00	 mov	 eax, DWORD PTR ?pDInputDevice@@3PAUIDirectInputDeviceA@@A ; pDInputDevice
  00054	8b 08		 mov	 ecx, DWORD PTR [eax]
  00056	8b f4		 mov	 esi, esp
  00058	8b 15 00 00 00
	00		 mov	 edx, DWORD PTR ?pDInputDevice@@3PAUIDirectInputDeviceA@@A ; pDInputDevice
  0005e	52		 push	 edx
  0005f	8b 41 08	 mov	 eax, DWORD PTR [ecx+8]
  00062	ff d0		 call	 eax
  00064	3b f4		 cmp	 esi, esp
  00066	e8 00 00 00 00	 call	 __RTC_CheckEsp
  0006b	c7 05 00 00 00
	00 00 00 00 00	 mov	 DWORD PTR ?pDInputDevice@@3PAUIDirectInputDeviceA@@A, 0 ; pDInputDevice
$LN3@EndDInput:

; 672  : 		RELEASE(pDInput);

  00075	83 3d 00 00 00
	00 00		 cmp	 DWORD PTR ?pDInput@@3PAUIDirectInputA@@A, 0 ; pDInput
  0007c	74 26		 je	 SHORT $LN2@EndDInput
  0007e	a1 00 00 00 00	 mov	 eax, DWORD PTR ?pDInput@@3PAUIDirectInputA@@A ; pDInput
  00083	8b 08		 mov	 ecx, DWORD PTR [eax]
  00085	8b f4		 mov	 esi, esp
  00087	8b 15 00 00 00
	00		 mov	 edx, DWORD PTR ?pDInput@@3PAUIDirectInputA@@A ; pDInput
  0008d	52		 push	 edx
  0008e	8b 41 08	 mov	 eax, DWORD PTR [ecx+8]
  00091	ff d0		 call	 eax
  00093	3b f4		 cmp	 esi, esp
  00095	e8 00 00 00 00	 call	 __RTC_CheckEsp
  0009a	c7 05 00 00 00
	00 00 00 00 00	 mov	 DWORD PTR ?pDInput@@3PAUIDirectInputA@@A, 0 ; pDInput
$LN2@EndDInput:

; 673  : 	}
; 674  : 	//????????£Ï£Ë??
; 675  : 	if(joy_flg == TRUE){

  000a4	0f be 05 00 00
	00 00		 movsx	 eax, BYTE PTR ?joy_flg@@3DA ; joy_flg
  000ab	83 f8 01	 cmp	 eax, 1
  000ae	75 7a		 jne	 SHORT $LN5@EndDInput

; 676  : 		pDInputDevice2->Unacquire();

  000b0	a1 00 00 00 00	 mov	 eax, DWORD PTR ?pDInputDevice2@@3PAUIDirectInputDevice2A@@A ; pDInputDevice2
  000b5	8b 08		 mov	 ecx, DWORD PTR [eax]
  000b7	8b f4		 mov	 esi, esp
  000b9	8b 15 00 00 00
	00		 mov	 edx, DWORD PTR ?pDInputDevice2@@3PAUIDirectInputDevice2A@@A ; pDInputDevice2
  000bf	52		 push	 edx
  000c0	8b 41 20	 mov	 eax, DWORD PTR [ecx+32]
  000c3	ff d0		 call	 eax
  000c5	3b f4		 cmp	 esi, esp
  000c7	e8 00 00 00 00	 call	 __RTC_CheckEsp

; 677  : 		RELEASE(pDInputDevice2);

  000cc	83 3d 00 00 00
	00 00		 cmp	 DWORD PTR ?pDInputDevice2@@3PAUIDirectInputDevice2A@@A, 0 ; pDInputDevice2
  000d3	74 26		 je	 SHORT $LN6@EndDInput
  000d5	a1 00 00 00 00	 mov	 eax, DWORD PTR ?pDInputDevice2@@3PAUIDirectInputDevice2A@@A ; pDInputDevice2
  000da	8b 08		 mov	 ecx, DWORD PTR [eax]
  000dc	8b f4		 mov	 esi, esp
  000de	8b 15 00 00 00
	00		 mov	 edx, DWORD PTR ?pDInputDevice2@@3PAUIDirectInputDevice2A@@A ; pDInputDevice2
  000e4	52		 push	 edx
  000e5	8b 41 08	 mov	 eax, DWORD PTR [ecx+8]
  000e8	ff d0		 call	 eax
  000ea	3b f4		 cmp	 esi, esp
  000ec	e8 00 00 00 00	 call	 __RTC_CheckEsp
  000f1	c7 05 00 00 00
	00 00 00 00 00	 mov	 DWORD PTR ?pDInputDevice2@@3PAUIDirectInputDevice2A@@A, 0 ; pDInputDevice2
$LN6@EndDInput:

; 678  : 		RELEASE(pDInput2);

  000fb	83 3d 00 00 00
	00 00		 cmp	 DWORD PTR ?pDInput2@@3PAUIDirectInputA@@A, 0 ; pDInput2
  00102	74 26		 je	 SHORT $LN5@EndDInput
  00104	a1 00 00 00 00	 mov	 eax, DWORD PTR ?pDInput2@@3PAUIDirectInputA@@A ; pDInput2
  00109	8b 08		 mov	 ecx, DWORD PTR [eax]
  0010b	8b f4		 mov	 esi, esp
  0010d	8b 15 00 00 00
	00		 mov	 edx, DWORD PTR ?pDInput2@@3PAUIDirectInputA@@A ; pDInput2
  00113	52		 push	 edx
  00114	8b 41 08	 mov	 eax, DWORD PTR [ecx+8]
  00117	ff d0		 call	 eax
  00119	3b f4		 cmp	 esi, esp
  0011b	e8 00 00 00 00	 call	 __RTC_CheckEsp
  00120	c7 05 00 00 00
	00 00 00 00 00	 mov	 DWORD PTR ?pDInput2@@3PAUIDirectInputA@@A, 0 ; pDInput2
$LN5@EndDInput:

; 679  : 	}
; 680  : 
; 681  : 	return TRUE;

  0012a	b8 01 00 00 00	 mov	 eax, 1

; 682  : }

  0012f	5f		 pop	 edi
  00130	5e		 pop	 esi
  00131	5b		 pop	 ebx
  00132	81 c4 c0 00 00
	00		 add	 esp, 192		; 000000c0H
  00138	3b ec		 cmp	 ebp, esp
  0013a	e8 00 00 00 00	 call	 __RTC_CheckEsp
  0013f	8b e5		 mov	 esp, ebp
  00141	5d		 pop	 ebp
  00142	c3		 ret	 0
?EndDInput@@YAHXZ ENDP					; EndDInput
_TEXT	ENDS
; Function compile flags: /Odtp /RTCsu /ZI
; File c:\users\administrator\desktop\????? ??\????? ??\client source code\oft\sys2.cpp
;	COMDAT ?InitDInput@@YAHXZ
_TEXT	SEGMENT
_diprg$ = -44						; size = 24
_ret$ = -12						; size = 4
__$ArrayPad$ = -4					; size = 4
?InitDInput@@YAHXZ PROC					; InitDInput, COMDAT

; 555  : {

  00000	55		 push	 ebp
  00001	8b ec		 mov	 ebp, esp
  00003	81 ec f0 00 00
	00		 sub	 esp, 240		; 000000f0H
  00009	53		 push	 ebx
  0000a	56		 push	 esi
  0000b	57		 push	 edi
  0000c	8d bd 10 ff ff
	ff		 lea	 edi, DWORD PTR [ebp-240]
  00012	b9 3c 00 00 00	 mov	 ecx, 60			; 0000003cH
  00017	b8 cc cc cc cc	 mov	 eax, -858993460		; ccccccccH
  0001c	f3 ab		 rep stosd
  0001e	a1 00 00 00 00	 mov	 eax, DWORD PTR ___security_cookie
  00023	33 c5		 xor	 eax, ebp
  00025	89 45 fc	 mov	 DWORD PTR __$ArrayPad$[ebp], eax

; 556  : 	HRESULT ret;
; 557  : 
; 558  : 	if( GetAsyncKeyState( VK_CONTROL ) & 0x8000 ){		//????????????

  00028	8b f4		 mov	 esi, esp
  0002a	6a 11		 push	 17			; 00000011H
  0002c	ff 15 00 00 00
	00		 call	 DWORD PTR __imp__GetAsyncKeyState@4
  00032	3b f4		 cmp	 esi, esp
  00034	e8 00 00 00 00	 call	 __RTC_CheckEsp
  00039	98		 cwde
  0003a	25 00 80 00 00	 and	 eax, 32768		; 00008000H
  0003f	74 07		 je	 SHORT $LN2@InitDInput

; 559  : 		return FALSE;

  00041	33 c0		 xor	 eax, eax
  00043	e9 38 04 00 00	 jmp	 $LN1@InitDInput
$LN2@InitDInput:

; 560  : 	}
; 561  : #ifndef DI_2
; 562  : 	ret = DirectInput8Create( hInst, DIRECTINPUT_VERSION, IID_IDirectInput8, (void**)&pDInput, NULL);
; 563  : 	if(ret != DI_OK){
; 564  : 		return FALSE;
; 565  : 	}
; 566  : #else
; 567  : 	ret = DirectInputCreate(hInst,DIRECTINPUT_VERSION,&pDInput,NULL);

  00048	6a 00		 push	 0
  0004a	68 00 00 00 00	 push	 OFFSET ?pDInput@@3PAUIDirectInputA@@A ; pDInput
  0004f	68 00 07 00 00	 push	 1792			; 00000700H
  00054	a1 00 00 00 00	 mov	 eax, DWORD PTR ?hInst@@3PAUHINSTANCE__@@A ; hInst
  00059	50		 push	 eax
  0005a	e8 00 00 00 00	 call	 _DirectInputCreateA@16
  0005f	89 45 f4	 mov	 DWORD PTR _ret$[ebp], eax

; 568  : 	if(ret != DI_OK){

  00062	83 7d f4 00	 cmp	 DWORD PTR _ret$[ebp], 0
  00066	74 07		 je	 SHORT $LN3@InitDInput

; 569  : 		return FALSE;

  00068	33 c0		 xor	 eax, eax
  0006a	e9 11 04 00 00	 jmp	 $LN1@InitDInput
$LN3@InitDInput:

; 570  : 	}
; 571  : #endif
; 572  : 	//???????????????????þÎ
; 573  : 	ret = pDInput->CreateDevice(GUID_SysKeyboard,&pDInputDevice,NULL);

  0006f	8b f4		 mov	 esi, esp
  00071	6a 00		 push	 0
  00073	68 00 00 00 00	 push	 OFFSET ?pDInputDevice@@3PAUIDirectInputDeviceA@@A ; pDInputDevice
  00078	68 00 00 00 00	 push	 OFFSET _GUID_SysKeyboard
  0007d	a1 00 00 00 00	 mov	 eax, DWORD PTR ?pDInput@@3PAUIDirectInputA@@A ; pDInput
  00082	8b 08		 mov	 ecx, DWORD PTR [eax]
  00084	8b 15 00 00 00
	00		 mov	 edx, DWORD PTR ?pDInput@@3PAUIDirectInputA@@A ; pDInput
  0008a	52		 push	 edx
  0008b	8b 41 0c	 mov	 eax, DWORD PTR [ecx+12]
  0008e	ff d0		 call	 eax
  00090	3b f4		 cmp	 esi, esp
  00092	e8 00 00 00 00	 call	 __RTC_CheckEsp
  00097	89 45 f4	 mov	 DWORD PTR _ret$[ebp], eax

; 574  : 	if(ret != DI_OK){

  0009a	83 7d f4 00	 cmp	 DWORD PTR _ret$[ebp], 0
  0009e	74 36		 je	 SHORT $LN4@InitDInput

; 575  : 		RELEASE(pDInput);

  000a0	83 3d 00 00 00
	00 00		 cmp	 DWORD PTR ?pDInput@@3PAUIDirectInputA@@A, 0 ; pDInput
  000a7	74 26		 je	 SHORT $LN5@InitDInput
  000a9	a1 00 00 00 00	 mov	 eax, DWORD PTR ?pDInput@@3PAUIDirectInputA@@A ; pDInput
  000ae	8b 08		 mov	 ecx, DWORD PTR [eax]
  000b0	8b f4		 mov	 esi, esp
  000b2	8b 15 00 00 00
	00		 mov	 edx, DWORD PTR ?pDInput@@3PAUIDirectInputA@@A ; pDInput
  000b8	52		 push	 edx
  000b9	8b 41 08	 mov	 eax, DWORD PTR [ecx+8]
  000bc	ff d0		 call	 eax
  000be	3b f4		 cmp	 esi, esp
  000c0	e8 00 00 00 00	 call	 __RTC_CheckEsp
  000c5	c7 05 00 00 00
	00 00 00 00 00	 mov	 DWORD PTR ?pDInput@@3PAUIDirectInputA@@A, 0 ; pDInput
$LN5@InitDInput:

; 576  : 		return FALSE;

  000cf	33 c0		 xor	 eax, eax
  000d1	e9 aa 03 00 00	 jmp	 $LN1@InitDInput
$LN4@InitDInput:

; 577  : 	}
; 578  : 
; 579  : 	//??????????¡@¤e
; 580  : 	ret = pDInputDevice->SetDataFormat(&c_dfDIKeyboard);

  000d6	8b f4		 mov	 esi, esp
  000d8	68 00 00 00 00	 push	 OFFSET _c_dfDIKeyboard
  000dd	a1 00 00 00 00	 mov	 eax, DWORD PTR ?pDInputDevice@@3PAUIDirectInputDeviceA@@A ; pDInputDevice
  000e2	8b 08		 mov	 ecx, DWORD PTR [eax]
  000e4	8b 15 00 00 00
	00		 mov	 edx, DWORD PTR ?pDInputDevice@@3PAUIDirectInputDeviceA@@A ; pDInputDevice
  000ea	52		 push	 edx
  000eb	8b 41 2c	 mov	 eax, DWORD PTR [ecx+44]
  000ee	ff d0		 call	 eax
  000f0	3b f4		 cmp	 esi, esp
  000f2	e8 00 00 00 00	 call	 __RTC_CheckEsp
  000f7	89 45 f4	 mov	 DWORD PTR _ret$[ebp], eax

; 581  : 	if(ret != DI_OK){

  000fa	83 7d f4 00	 cmp	 DWORD PTR _ret$[ebp], 0
  000fe	74 65		 je	 SHORT $LN6@InitDInput

; 582  : 		RELEASE(pDInputDevice);

  00100	83 3d 00 00 00
	00 00		 cmp	 DWORD PTR ?pDInputDevice@@3PAUIDirectInputDeviceA@@A, 0 ; pDInputDevice
  00107	74 26		 je	 SHORT $LN7@InitDInput
  00109	a1 00 00 00 00	 mov	 eax, DWORD PTR ?pDInputDevice@@3PAUIDirectInputDeviceA@@A ; pDInputDevice
  0010e	8b 08		 mov	 ecx, DWORD PTR [eax]
  00110	8b f4		 mov	 esi, esp
  00112	8b 15 00 00 00
	00		 mov	 edx, DWORD PTR ?pDInputDevice@@3PAUIDirectInputDeviceA@@A ; pDInputDevice
  00118	52		 push	 edx
  00119	8b 41 08	 mov	 eax, DWORD PTR [ecx+8]
  0011c	ff d0		 call	 eax
  0011e	3b f4		 cmp	 esi, esp
  00120	e8 00 00 00 00	 call	 __RTC_CheckEsp
  00125	c7 05 00 00 00
	00 00 00 00 00	 mov	 DWORD PTR ?pDInputDevice@@3PAUIDirectInputDeviceA@@A, 0 ; pDInputDevice
$LN7@InitDInput:

; 583  : 		RELEASE(pDInput);

  0012f	83 3d 00 00 00
	00 00		 cmp	 DWORD PTR ?pDInput@@3PAUIDirectInputA@@A, 0 ; pDInput
  00136	74 26		 je	 SHORT $LN8@InitDInput
  00138	a1 00 00 00 00	 mov	 eax, DWORD PTR ?pDInput@@3PAUIDirectInputA@@A ; pDInput
  0013d	8b 08		 mov	 ecx, DWORD PTR [eax]
  0013f	8b f4		 mov	 esi, esp
  00141	8b 15 00 00 00
	00		 mov	 edx, DWORD PTR ?pDInput@@3PAUIDirectInputA@@A ; pDInput
  00147	52		 push	 edx
  00148	8b 41 08	 mov	 eax, DWORD PTR [ecx+8]
  0014b	ff d0		 call	 eax
  0014d	3b f4		 cmp	 esi, esp
  0014f	e8 00 00 00 00	 call	 __RTC_CheckEsp
  00154	c7 05 00 00 00
	00 00 00 00 00	 mov	 DWORD PTR ?pDInput@@3PAUIDirectInputA@@A, 0 ; pDInput
$LN8@InitDInput:

; 584  : 		return FALSE;

  0015e	33 c0		 xor	 eax, eax
  00160	e9 1b 03 00 00	 jmp	 $LN1@InitDInput
$LN6@InitDInput:

; 585  : 	}
; 586  : 
; 587  : 	//????¡@¤e
; 588  : 	ret = pDInputDevice->SetCooperativeLevel(hWnd,DISCL_NONEXCLUSIVE | DISCL_FOREGROUND);

  00165	8b f4		 mov	 esi, esp
  00167	6a 06		 push	 6
  00169	a1 00 00 00 00	 mov	 eax, DWORD PTR ?hWnd@@3PAUHWND__@@A ; hWnd
  0016e	50		 push	 eax
  0016f	8b 0d 00 00 00
	00		 mov	 ecx, DWORD PTR ?pDInputDevice@@3PAUIDirectInputDeviceA@@A ; pDInputDevice
  00175	8b 11		 mov	 edx, DWORD PTR [ecx]
  00177	a1 00 00 00 00	 mov	 eax, DWORD PTR ?pDInputDevice@@3PAUIDirectInputDeviceA@@A ; pDInputDevice
  0017c	50		 push	 eax
  0017d	8b 4a 34	 mov	 ecx, DWORD PTR [edx+52]
  00180	ff d1		 call	 ecx
  00182	3b f4		 cmp	 esi, esp
  00184	e8 00 00 00 00	 call	 __RTC_CheckEsp
  00189	89 45 f4	 mov	 DWORD PTR _ret$[ebp], eax

; 589  : 	if(ret != DI_OK){

  0018c	83 7d f4 00	 cmp	 DWORD PTR _ret$[ebp], 0
  00190	74 65		 je	 SHORT $LN9@InitDInput

; 590  : 		RELEASE(pDInputDevice);

  00192	83 3d 00 00 00
	00 00		 cmp	 DWORD PTR ?pDInputDevice@@3PAUIDirectInputDeviceA@@A, 0 ; pDInputDevice
  00199	74 26		 je	 SHORT $LN10@InitDInput
  0019b	a1 00 00 00 00	 mov	 eax, DWORD PTR ?pDInputDevice@@3PAUIDirectInputDeviceA@@A ; pDInputDevice
  001a0	8b 08		 mov	 ecx, DWORD PTR [eax]
  001a2	8b f4		 mov	 esi, esp
  001a4	8b 15 00 00 00
	00		 mov	 edx, DWORD PTR ?pDInputDevice@@3PAUIDirectInputDeviceA@@A ; pDInputDevice
  001aa	52		 push	 edx
  001ab	8b 41 08	 mov	 eax, DWORD PTR [ecx+8]
  001ae	ff d0		 call	 eax
  001b0	3b f4		 cmp	 esi, esp
  001b2	e8 00 00 00 00	 call	 __RTC_CheckEsp
  001b7	c7 05 00 00 00
	00 00 00 00 00	 mov	 DWORD PTR ?pDInputDevice@@3PAUIDirectInputDeviceA@@A, 0 ; pDInputDevice
$LN10@InitDInput:

; 591  : 		RELEASE(pDInput);

  001c1	83 3d 00 00 00
	00 00		 cmp	 DWORD PTR ?pDInput@@3PAUIDirectInputA@@A, 0 ; pDInput
  001c8	74 26		 je	 SHORT $LN11@InitDInput
  001ca	a1 00 00 00 00	 mov	 eax, DWORD PTR ?pDInput@@3PAUIDirectInputA@@A ; pDInput
  001cf	8b 08		 mov	 ecx, DWORD PTR [eax]
  001d1	8b f4		 mov	 esi, esp
  001d3	8b 15 00 00 00
	00		 mov	 edx, DWORD PTR ?pDInput@@3PAUIDirectInputA@@A ; pDInput
  001d9	52		 push	 edx
  001da	8b 41 08	 mov	 eax, DWORD PTR [ecx+8]
  001dd	ff d0		 call	 eax
  001df	3b f4		 cmp	 esi, esp
  001e1	e8 00 00 00 00	 call	 __RTC_CheckEsp
  001e6	c7 05 00 00 00
	00 00 00 00 00	 mov	 DWORD PTR ?pDInput@@3PAUIDirectInputA@@A, 0 ; pDInput
$LN11@InitDInput:

; 592  : 		return FALSE;

  001f0	33 c0		 xor	 eax, eax
  001f2	e9 89 02 00 00	 jmp	 $LN1@InitDInput
$LN9@InitDInput:

; 593  : 	}
; 594  : 
; 595  : 	pDInputDevice->Acquire();

  001f7	a1 00 00 00 00	 mov	 eax, DWORD PTR ?pDInputDevice@@3PAUIDirectInputDeviceA@@A ; pDInputDevice
  001fc	8b 08		 mov	 ecx, DWORD PTR [eax]
  001fe	8b f4		 mov	 esi, esp
  00200	8b 15 00 00 00
	00		 mov	 edx, DWORD PTR ?pDInputDevice@@3PAUIDirectInputDeviceA@@A ; pDInputDevice
  00206	52		 push	 edx
  00207	8b 41 1c	 mov	 eax, DWORD PTR [ecx+28]
  0020a	ff d0		 call	 eax
  0020c	3b f4		 cmp	 esi, esp
  0020e	e8 00 00 00 00	 call	 __RTC_CheckEsp

; 596  : 
; 597  : #ifndef DI_2
; 598  : 	ret = DirectInput8Create( hInst, DIRECTINPUT_VERSION, IID_IDirectInput8, (void**)&pDInput, NULL);
; 599  : 	if(ret != DI_OK){
; 600  : 		return FALSE;
; 601  : 	}
; 602  : #else
; 603  : 	ret = DirectInputCreate(hInst,DIRECTINPUT_VERSION,&pDInput2,NULL);

  00213	6a 00		 push	 0
  00215	68 00 00 00 00	 push	 OFFSET ?pDInput2@@3PAUIDirectInputA@@A ; pDInput2
  0021a	68 00 07 00 00	 push	 1792			; 00000700H
  0021f	a1 00 00 00 00	 mov	 eax, DWORD PTR ?hInst@@3PAUHINSTANCE__@@A ; hInst
  00224	50		 push	 eax
  00225	e8 00 00 00 00	 call	 _DirectInputCreateA@16
  0022a	89 45 f4	 mov	 DWORD PTR _ret$[ebp], eax

; 604  : 	if(ret != DI_OK){

  0022d	83 7d f4 00	 cmp	 DWORD PTR _ret$[ebp], 0
  00231	74 07		 je	 SHORT $LN12@InitDInput

; 605  : 		return FALSE;

  00233	33 c0		 xor	 eax, eax
  00235	e9 46 02 00 00	 jmp	 $LN1@InitDInput
$LN12@InitDInput:

; 606  : 	}
; 607  : #endif
; 608  : 	keyboad_flg = TRUE;		//?????£Ï£Ë

  0023a	c6 05 00 00 00
	00 01		 mov	 BYTE PTR ?keyboad_flg@@3DA, 1 ; keyboad_flg

; 609  : 
; 610  : 	joy_flg = FALSE;		//????????þtúé?

  00241	c6 05 00 00 00
	00 00		 mov	 BYTE PTR ?joy_flg@@3DA, 0 ; joy_flg

; 611  : 	return TRUE;

  00248	b8 01 00 00 00	 mov	 eax, 1
  0024d	e9 2e 02 00 00	 jmp	 $LN1@InitDInput

; 612  : 
; 613  : 	//?????????£S?
; 614  : 	pDInputDevice2 = NULL;

  00252	c7 05 00 00 00
	00 00 00 00 00	 mov	 DWORD PTR ?pDInputDevice2@@3PAUIDirectInputDevice2A@@A, 0 ; pDInputDevice2

; 615  : 
; 616  : #ifndef DI_2
; 617  : 	pDInput2->EnumDevices( DI8DEVCLASS_GAMECTRL, (LPDIENUMDEVICESCALLBACK)GetJoystickCallback, NULL, DIEDFL_ATTACHEDONLY);
; 618  : 	if(pDInputDevice2 == NULL){
; 619  : 		RELEASE(pDInput2);
; 620  : 		return FALSE;
; 621  : 	}
; 622  : #else
; 623  : 	pDInput2->EnumDevices(DIDEVTYPE_JOYSTICK,(LPDIENUMDEVICESCALLBACK)GetJoystickCallback,NULL,DIEDFL_ATTACHEDONLY);

  0025c	8b f4		 mov	 esi, esp
  0025e	6a 01		 push	 1
  00260	6a 00		 push	 0
  00262	68 00 00 00 00	 push	 OFFSET ?GetJoystickCallback@@YGHPAUDIDEVICEINSTANCEA@@PAX@Z ; GetJoystickCallback
  00267	6a 04		 push	 4
  00269	a1 00 00 00 00	 mov	 eax, DWORD PTR ?pDInput2@@3PAUIDirectInputA@@A ; pDInput2
  0026e	8b 08		 mov	 ecx, DWORD PTR [eax]
  00270	8b 15 00 00 00
	00		 mov	 edx, DWORD PTR ?pDInput2@@3PAUIDirectInputA@@A ; pDInput2
  00276	52		 push	 edx
  00277	8b 41 10	 mov	 eax, DWORD PTR [ecx+16]
  0027a	ff d0		 call	 eax
  0027c	3b f4		 cmp	 esi, esp
  0027e	e8 00 00 00 00	 call	 __RTC_CheckEsp

; 624  : 	if(pDInputDevice2 == NULL){

  00283	83 3d 00 00 00
	00 00		 cmp	 DWORD PTR ?pDInputDevice2@@3PAUIDirectInputDevice2A@@A, 0 ; pDInputDevice2
  0028a	75 36		 jne	 SHORT $LN13@InitDInput

; 625  : 		RELEASE(pDInput2);

  0028c	83 3d 00 00 00
	00 00		 cmp	 DWORD PTR ?pDInput2@@3PAUIDirectInputA@@A, 0 ; pDInput2
  00293	74 26		 je	 SHORT $LN14@InitDInput
  00295	a1 00 00 00 00	 mov	 eax, DWORD PTR ?pDInput2@@3PAUIDirectInputA@@A ; pDInput2
  0029a	8b 08		 mov	 ecx, DWORD PTR [eax]
  0029c	8b f4		 mov	 esi, esp
  0029e	8b 15 00 00 00
	00		 mov	 edx, DWORD PTR ?pDInput2@@3PAUIDirectInputA@@A ; pDInput2
  002a4	52		 push	 edx
  002a5	8b 41 08	 mov	 eax, DWORD PTR [ecx+8]
  002a8	ff d0		 call	 eax
  002aa	3b f4		 cmp	 esi, esp
  002ac	e8 00 00 00 00	 call	 __RTC_CheckEsp
  002b1	c7 05 00 00 00
	00 00 00 00 00	 mov	 DWORD PTR ?pDInput2@@3PAUIDirectInputA@@A, 0 ; pDInput2
$LN14@InitDInput:

; 626  : 		return FALSE;

  002bb	33 c0		 xor	 eax, eax
  002bd	e9 be 01 00 00	 jmp	 $LN1@InitDInput
$LN13@InitDInput:

; 627  : 	}
; 628  : #endif
; 629  : 	//??????????¡@¤e
; 630  : 	ret = pDInputDevice2->SetDataFormat(&c_dfDIJoystick);

  002c2	8b f4		 mov	 esi, esp
  002c4	68 00 00 00 00	 push	 OFFSET _c_dfDIJoystick
  002c9	a1 00 00 00 00	 mov	 eax, DWORD PTR ?pDInputDevice2@@3PAUIDirectInputDevice2A@@A ; pDInputDevice2
  002ce	8b 08		 mov	 ecx, DWORD PTR [eax]
  002d0	8b 15 00 00 00
	00		 mov	 edx, DWORD PTR ?pDInputDevice2@@3PAUIDirectInputDevice2A@@A ; pDInputDevice2
  002d6	52		 push	 edx
  002d7	8b 41 2c	 mov	 eax, DWORD PTR [ecx+44]
  002da	ff d0		 call	 eax
  002dc	3b f4		 cmp	 esi, esp
  002de	e8 00 00 00 00	 call	 __RTC_CheckEsp
  002e3	89 45 f4	 mov	 DWORD PTR _ret$[ebp], eax

; 631  : 	if(ret != DI_OK){

  002e6	83 7d f4 00	 cmp	 DWORD PTR _ret$[ebp], 0
  002ea	74 65		 je	 SHORT $LN15@InitDInput

; 632  : 		RELEASE(pDInputDevice2);

  002ec	83 3d 00 00 00
	00 00		 cmp	 DWORD PTR ?pDInputDevice2@@3PAUIDirectInputDevice2A@@A, 0 ; pDInputDevice2
  002f3	74 26		 je	 SHORT $LN16@InitDInput
  002f5	a1 00 00 00 00	 mov	 eax, DWORD PTR ?pDInputDevice2@@3PAUIDirectInputDevice2A@@A ; pDInputDevice2
  002fa	8b 08		 mov	 ecx, DWORD PTR [eax]
  002fc	8b f4		 mov	 esi, esp
  002fe	8b 15 00 00 00
	00		 mov	 edx, DWORD PTR ?pDInputDevice2@@3PAUIDirectInputDevice2A@@A ; pDInputDevice2
  00304	52		 push	 edx
  00305	8b 41 08	 mov	 eax, DWORD PTR [ecx+8]
  00308	ff d0		 call	 eax
  0030a	3b f4		 cmp	 esi, esp
  0030c	e8 00 00 00 00	 call	 __RTC_CheckEsp
  00311	c7 05 00 00 00
	00 00 00 00 00	 mov	 DWORD PTR ?pDInputDevice2@@3PAUIDirectInputDevice2A@@A, 0 ; pDInputDevice2
$LN16@InitDInput:

; 633  : 		RELEASE(pDInput2);

  0031b	83 3d 00 00 00
	00 00		 cmp	 DWORD PTR ?pDInput2@@3PAUIDirectInputA@@A, 0 ; pDInput2
  00322	74 26		 je	 SHORT $LN17@InitDInput
  00324	a1 00 00 00 00	 mov	 eax, DWORD PTR ?pDInput2@@3PAUIDirectInputA@@A ; pDInput2
  00329	8b 08		 mov	 ecx, DWORD PTR [eax]
  0032b	8b f4		 mov	 esi, esp
  0032d	8b 15 00 00 00
	00		 mov	 edx, DWORD PTR ?pDInput2@@3PAUIDirectInputA@@A ; pDInput2
  00333	52		 push	 edx
  00334	8b 41 08	 mov	 eax, DWORD PTR [ecx+8]
  00337	ff d0		 call	 eax
  00339	3b f4		 cmp	 esi, esp
  0033b	e8 00 00 00 00	 call	 __RTC_CheckEsp
  00340	c7 05 00 00 00
	00 00 00 00 00	 mov	 DWORD PTR ?pDInput2@@3PAUIDirectInputA@@A, 0 ; pDInput2
$LN17@InitDInput:

; 634  : 		return FALSE;

  0034a	33 c0		 xor	 eax, eax
  0034c	e9 2f 01 00 00	 jmp	 $LN1@InitDInput
$LN15@InitDInput:

; 635  : 	}
; 636  : 
; 637  : 	//????¡@¤e
; 638  : 	ret = pDInputDevice2->SetCooperativeLevel(hWnd,DISCL_NONEXCLUSIVE | DISCL_FOREGROUND);

  00351	8b f4		 mov	 esi, esp
  00353	6a 06		 push	 6
  00355	a1 00 00 00 00	 mov	 eax, DWORD PTR ?hWnd@@3PAUHWND__@@A ; hWnd
  0035a	50		 push	 eax
  0035b	8b 0d 00 00 00
	00		 mov	 ecx, DWORD PTR ?pDInputDevice2@@3PAUIDirectInputDevice2A@@A ; pDInputDevice2
  00361	8b 11		 mov	 edx, DWORD PTR [ecx]
  00363	a1 00 00 00 00	 mov	 eax, DWORD PTR ?pDInputDevice2@@3PAUIDirectInputDevice2A@@A ; pDInputDevice2
  00368	50		 push	 eax
  00369	8b 4a 34	 mov	 ecx, DWORD PTR [edx+52]
  0036c	ff d1		 call	 ecx
  0036e	3b f4		 cmp	 esi, esp
  00370	e8 00 00 00 00	 call	 __RTC_CheckEsp
  00375	89 45 f4	 mov	 DWORD PTR _ret$[ebp], eax

; 639  : 	if(ret != DI_OK){

  00378	83 7d f4 00	 cmp	 DWORD PTR _ret$[ebp], 0
  0037c	74 65		 je	 SHORT $LN18@InitDInput

; 640  : 		RELEASE(pDInputDevice2);

  0037e	83 3d 00 00 00
	00 00		 cmp	 DWORD PTR ?pDInputDevice2@@3PAUIDirectInputDevice2A@@A, 0 ; pDInputDevice2
  00385	74 26		 je	 SHORT $LN19@InitDInput
  00387	a1 00 00 00 00	 mov	 eax, DWORD PTR ?pDInputDevice2@@3PAUIDirectInputDevice2A@@A ; pDInputDevice2
  0038c	8b 08		 mov	 ecx, DWORD PTR [eax]
  0038e	8b f4		 mov	 esi, esp
  00390	8b 15 00 00 00
	00		 mov	 edx, DWORD PTR ?pDInputDevice2@@3PAUIDirectInputDevice2A@@A ; pDInputDevice2
  00396	52		 push	 edx
  00397	8b 41 08	 mov	 eax, DWORD PTR [ecx+8]
  0039a	ff d0		 call	 eax
  0039c	3b f4		 cmp	 esi, esp
  0039e	e8 00 00 00 00	 call	 __RTC_CheckEsp
  003a3	c7 05 00 00 00
	00 00 00 00 00	 mov	 DWORD PTR ?pDInputDevice2@@3PAUIDirectInputDevice2A@@A, 0 ; pDInputDevice2
$LN19@InitDInput:

; 641  : 		RELEASE(pDInput2);

  003ad	83 3d 00 00 00
	00 00		 cmp	 DWORD PTR ?pDInput2@@3PAUIDirectInputA@@A, 0 ; pDInput2
  003b4	74 26		 je	 SHORT $LN20@InitDInput
  003b6	a1 00 00 00 00	 mov	 eax, DWORD PTR ?pDInput2@@3PAUIDirectInputA@@A ; pDInput2
  003bb	8b 08		 mov	 ecx, DWORD PTR [eax]
  003bd	8b f4		 mov	 esi, esp
  003bf	8b 15 00 00 00
	00		 mov	 edx, DWORD PTR ?pDInput2@@3PAUIDirectInputA@@A ; pDInput2
  003c5	52		 push	 edx
  003c6	8b 41 08	 mov	 eax, DWORD PTR [ecx+8]
  003c9	ff d0		 call	 eax
  003cb	3b f4		 cmp	 esi, esp
  003cd	e8 00 00 00 00	 call	 __RTC_CheckEsp
  003d2	c7 05 00 00 00
	00 00 00 00 00	 mov	 DWORD PTR ?pDInput2@@3PAUIDirectInputA@@A, 0 ; pDInput2
$LN20@InitDInput:

; 642  : 		return FALSE;

  003dc	33 c0		 xor	 eax, eax
  003de	e9 9d 00 00 00	 jmp	 $LN1@InitDInput
$LN18@InitDInput:

; 643  : 	}
; 644  : 
; 645  : 	DIPROPRANGE diprg; 
; 646  :  
; 647  : 	// û´?£k?§d??¡@¤e
; 648  : 	diprg.diph.dwSize	= sizeof(diprg); 

  003e3	c7 45 d4 18 00
	00 00		 mov	 DWORD PTR _diprg$[ebp], 24 ; 00000018H

; 649  : 	diprg.diph.dwHeaderSize	= sizeof(diprg.diph); 

  003ea	c7 45 d8 10 00
	00 00		 mov	 DWORD PTR _diprg$[ebp+4], 16 ; 00000010H

; 650  : 	diprg.diph.dwObj	= DIJOFS_X; 

  003f1	c7 45 dc 00 00
	00 00		 mov	 DWORD PTR _diprg$[ebp+8], 0

; 651  : 	diprg.diph.dwHow	= DIPH_BYOFFSET; 

  003f8	c7 45 e0 01 00
	00 00		 mov	 DWORD PTR _diprg$[ebp+12], 1

; 652  : 	diprg.lMin	= -1000; 

  003ff	c7 45 e4 18 fc
	ff ff		 mov	 DWORD PTR _diprg$[ebp+16], -1000 ; fffffc18H

; 653  : 	diprg.lMax	= +1000; 

  00406	c7 45 e8 e8 03
	00 00		 mov	 DWORD PTR _diprg$[ebp+20], 1000 ; 000003e8H

; 654  :  	pDInputDevice2->SetProperty(DIPROP_RANGE, &diprg.diph);

  0040d	8b f4		 mov	 esi, esp
  0040f	8d 45 d4	 lea	 eax, DWORD PTR _diprg$[ebp]
  00412	50		 push	 eax
  00413	6a 04		 push	 4
  00415	8b 0d 00 00 00
	00		 mov	 ecx, DWORD PTR ?pDInputDevice2@@3PAUIDirectInputDevice2A@@A ; pDInputDevice2
  0041b	8b 11		 mov	 edx, DWORD PTR [ecx]
  0041d	a1 00 00 00 00	 mov	 eax, DWORD PTR ?pDInputDevice2@@3PAUIDirectInputDevice2A@@A ; pDInputDevice2
  00422	50		 push	 eax
  00423	8b 4a 18	 mov	 ecx, DWORD PTR [edx+24]
  00426	ff d1		 call	 ecx
  00428	3b f4		 cmp	 esi, esp
  0042a	e8 00 00 00 00	 call	 __RTC_CheckEsp

; 655  : 	diprg.diph.dwObj	= DIJOFS_Y; 

  0042f	c7 45 dc 04 00
	00 00		 mov	 DWORD PTR _diprg$[ebp+8], 4

; 656  :  	pDInputDevice2->SetProperty(DIPROP_RANGE, &diprg.diph);

  00436	8b f4		 mov	 esi, esp
  00438	8d 45 d4	 lea	 eax, DWORD PTR _diprg$[ebp]
  0043b	50		 push	 eax
  0043c	6a 04		 push	 4
  0043e	8b 0d 00 00 00
	00		 mov	 ecx, DWORD PTR ?pDInputDevice2@@3PAUIDirectInputDevice2A@@A ; pDInputDevice2
  00444	8b 11		 mov	 edx, DWORD PTR [ecx]
  00446	a1 00 00 00 00	 mov	 eax, DWORD PTR ?pDInputDevice2@@3PAUIDirectInputDevice2A@@A ; pDInputDevice2
  0044b	50		 push	 eax
  0044c	8b 4a 18	 mov	 ecx, DWORD PTR [edx+24]
  0044f	ff d1		 call	 ecx
  00451	3b f4		 cmp	 esi, esp
  00453	e8 00 00 00 00	 call	 __RTC_CheckEsp

; 657  : 
; 658  : 	pDInputDevice2->Acquire();

  00458	a1 00 00 00 00	 mov	 eax, DWORD PTR ?pDInputDevice2@@3PAUIDirectInputDevice2A@@A ; pDInputDevice2
  0045d	8b 08		 mov	 ecx, DWORD PTR [eax]
  0045f	8b f4		 mov	 esi, esp
  00461	8b 15 00 00 00
	00		 mov	 edx, DWORD PTR ?pDInputDevice2@@3PAUIDirectInputDevice2A@@A ; pDInputDevice2
  00467	52		 push	 edx
  00468	8b 41 1c	 mov	 eax, DWORD PTR [ecx+28]
  0046b	ff d0		 call	 eax
  0046d	3b f4		 cmp	 esi, esp
  0046f	e8 00 00 00 00	 call	 __RTC_CheckEsp

; 659  : 
; 660  : 	joy_flg = TRUE;		//????????£Ï£Ë

  00474	c6 05 00 00 00
	00 01		 mov	 BYTE PTR ?joy_flg@@3DA, 1 ; joy_flg

; 661  : 	return TRUE;

  0047b	b8 01 00 00 00	 mov	 eax, 1
$LN1@InitDInput:

; 662  : }

  00480	52		 push	 edx
  00481	8b cd		 mov	 ecx, ebp
  00483	50		 push	 eax
  00484	8d 15 00 00 00
	00		 lea	 edx, DWORD PTR $LN24@InitDInput
  0048a	e8 00 00 00 00	 call	 @_RTC_CheckStackVars@8
  0048f	58		 pop	 eax
  00490	5a		 pop	 edx
  00491	5f		 pop	 edi
  00492	5e		 pop	 esi
  00493	5b		 pop	 ebx
  00494	8b 4d fc	 mov	 ecx, DWORD PTR __$ArrayPad$[ebp]
  00497	33 cd		 xor	 ecx, ebp
  00499	e8 00 00 00 00	 call	 @__security_check_cookie@4
  0049e	81 c4 f0 00 00
	00		 add	 esp, 240		; 000000f0H
  004a4	3b ec		 cmp	 ebp, esp
  004a6	e8 00 00 00 00	 call	 __RTC_CheckEsp
  004ab	8b e5		 mov	 esp, ebp
  004ad	5d		 pop	 ebp
  004ae	c3		 ret	 0
  004af	90		 npad	 1
$LN24@InitDInput:
  004b0	01 00 00 00	 DD	 1
  004b4	00 00 00 00	 DD	 $LN23@InitDInput
$LN23@InitDInput:
  004b8	d4 ff ff ff	 DD	 -44			; ffffffd4H
  004bc	18 00 00 00	 DD	 24			; 00000018H
  004c0	00 00 00 00	 DD	 $LN22@InitDInput
$LN22@InitDInput:
  004c4	64		 DB	 100			; 00000064H
  004c5	69		 DB	 105			; 00000069H
  004c6	70		 DB	 112			; 00000070H
  004c7	72		 DB	 114			; 00000072H
  004c8	67		 DB	 103			; 00000067H
  004c9	00		 DB	 0
?InitDInput@@YAHXZ ENDP					; InitDInput
_TEXT	ENDS
; Function compile flags: /Odtp /RTCsu /ZI
; File c:\users\administrator\desktop\????? ??\????? ??\client source code\oft\sys2.cpp
;	COMDAT ?joy_read@@YAXXZ
_TEXT	SEGMENT
_ext$1 = -160						; size = 4
_dijs$ = -148						; size = 80
_ret$ = -60						; size = 4
_c$ = -48						; size = 4
_a$ = -36						; size = 4
_d1$ = -24						; size = 4
_d0$ = -12						; size = 4
__$ArrayPad$ = -4					; size = 4
?joy_read@@YAXXZ PROC					; joy_read, COMDAT

; 261  : {

  00000	55		 push	 ebp
  00001	8b ec		 mov	 ebp, esp
  00003	81 ec 64 01 00
	00		 sub	 esp, 356		; 00000164H
  00009	53		 push	 ebx
  0000a	56		 push	 esi
  0000b	57		 push	 edi
  0000c	8d bd 9c fe ff
	ff		 lea	 edi, DWORD PTR [ebp-356]
  00012	b9 59 00 00 00	 mov	 ecx, 89			; 00000059H
  00017	b8 cc cc cc cc	 mov	 eax, -858993460		; ccccccccH
  0001c	f3 ab		 rep stosd
  0001e	a1 00 00 00 00	 mov	 eax, DWORD PTR ___security_cookie
  00023	33 c5		 xor	 eax, ebp
  00025	89 45 fc	 mov	 DWORD PTR __$ArrayPad$[ebp], eax

; 262  : 	Uint32	d0,d1;
; 263  : 	Uint32 a,c;
; 264  : 	HRESULT ret = DI_OK;

  00028	c7 45 c4 00 00
	00 00		 mov	 DWORD PTR _ret$[ebp], 0

; 265  : 	DIJOYSTATE dijs;
; 266  : 
; 267  : 	if(keyboad_flg == FALSE){		//?????????

  0002f	0f be 05 00 00
	00 00		 movsx	 eax, BYTE PTR ?keyboad_flg@@3DA ; keyboad_flg
  00036	85 c0		 test	 eax, eax
  00038	75 05		 jne	 SHORT $LN2@joy_read

; 268  : 		return;

  0003a	e9 81 13 00 00	 jmp	 $LN1@joy_read
$LN2@joy_read:

; 269  : 	}
; 270  : 
; 271  : 	d0=0;						

  0003f	c7 45 f4 00 00
	00 00		 mov	 DWORD PTR _d0$[ebp], 0

; 272  : 	
; 273  : 	//??¢Dûè???
; 274  : 	
; 275  : 	if( DInputActiveFlag == TRUE ){

  00046	83 3d 00 00 00
	00 01		 cmp	 DWORD PTR ?DInputActiveFlag@@3HA, 1 ; DInputActiveFlag
  0004d	0f 85 4a 01 00
	00		 jne	 $LN3@joy_read

; 276  : 		if(joy_flg == TRUE){		//????????£Ï£Ë??

  00053	0f be 05 00 00
	00 00		 movsx	 eax, BYTE PTR ?joy_flg@@3DA ; joy_flg
  0005a	83 f8 01	 cmp	 eax, 1
  0005d	0f 85 11 01 00
	00		 jne	 $LN4@joy_read

; 277  : 			pDInputDevice2->Poll();		//????????¥‚???

  00063	a1 00 00 00 00	 mov	 eax, DWORD PTR ?pDInputDevice2@@3PAUIDirectInputDevice2A@@A ; pDInputDevice2
  00068	8b 08		 mov	 ecx, DWORD PTR [eax]
  0006a	8b f4		 mov	 esi, esp
  0006c	8b 15 00 00 00
	00		 mov	 edx, DWORD PTR ?pDInputDevice2@@3PAUIDirectInputDevice2A@@A ; pDInputDevice2
  00072	52		 push	 edx
  00073	8b 41 64	 mov	 eax, DWORD PTR [ecx+100]
  00076	ff d0		 call	 eax
  00078	3b f4		 cmp	 esi, esp
  0007a	e8 00 00 00 00	 call	 __RTC_CheckEsp

; 278  : 			ret = pDInputDevice2->GetDeviceState(sizeof(DIJOYSTATE),&dijs);

  0007f	8b f4		 mov	 esi, esp
  00081	8d 85 6c ff ff
	ff		 lea	 eax, DWORD PTR _dijs$[ebp]
  00087	50		 push	 eax
  00088	6a 50		 push	 80			; 00000050H
  0008a	8b 0d 00 00 00
	00		 mov	 ecx, DWORD PTR ?pDInputDevice2@@3PAUIDirectInputDevice2A@@A ; pDInputDevice2
  00090	8b 11		 mov	 edx, DWORD PTR [ecx]
  00092	a1 00 00 00 00	 mov	 eax, DWORD PTR ?pDInputDevice2@@3PAUIDirectInputDevice2A@@A ; pDInputDevice2
  00097	50		 push	 eax
  00098	8b 4a 24	 mov	 ecx, DWORD PTR [edx+36]
  0009b	ff d1		 call	 ecx
  0009d	3b f4		 cmp	 esi, esp
  0009f	e8 00 00 00 00	 call	 __RTC_CheckEsp
  000a4	89 45 c4	 mov	 DWORD PTR _ret$[ebp], eax

; 279  : 			if(ret == DI_OK){

  000a7	83 7d c4 00	 cmp	 DWORD PTR _ret$[ebp], 0
  000ab	0f 85 9e 00 00
	00		 jne	 $LN5@joy_read

; 280  : 				if(dijs.lX > 500)

  000b1	81 bd 6c ff ff
	ff f4 01 00 00	 cmp	 DWORD PTR _dijs$[ebp], 500 ; 000001f4H
  000bb	7e 0b		 jle	 SHORT $LN7@joy_read

; 281  : 					d0|=JOY_RIGHT;

  000bd	8b 45 f4	 mov	 eax, DWORD PTR _d0$[ebp]
  000c0	0d 00 80 00 00	 or	 eax, 32768		; 00008000H
  000c5	89 45 f4	 mov	 DWORD PTR _d0$[ebp], eax
$LN7@joy_read:

; 282  : 				if(dijs.lX < -500)

  000c8	81 bd 6c ff ff
	ff 0c fe ff ff	 cmp	 DWORD PTR _dijs$[ebp], -500 ; fffffe0cH
  000d2	7d 0b		 jge	 SHORT $LN8@joy_read

; 283  : 					d0|=JOY_LEFT;

  000d4	8b 45 f4	 mov	 eax, DWORD PTR _d0$[ebp]
  000d7	0d 00 40 00 00	 or	 eax, 16384		; 00004000H
  000dc	89 45 f4	 mov	 DWORD PTR _d0$[ebp], eax
$LN8@joy_read:

; 284  : 				if(dijs.lY > 500)

  000df	81 bd 70 ff ff
	ff f4 01 00 00	 cmp	 DWORD PTR _dijs$[ebp+4], 500 ; 000001f4H
  000e9	7e 0b		 jle	 SHORT $LN9@joy_read

; 285  : 					d0|=JOY_DOWN;

  000eb	8b 45 f4	 mov	 eax, DWORD PTR _d0$[ebp]
  000ee	0d 00 20 00 00	 or	 eax, 8192		; 00002000H
  000f3	89 45 f4	 mov	 DWORD PTR _d0$[ebp], eax
$LN9@joy_read:

; 286  : 				if(dijs.lY < -500)

  000f6	81 bd 70 ff ff
	ff 0c fe ff ff	 cmp	 DWORD PTR _dijs$[ebp+4], -500 ; fffffe0cH
  00100	7d 0b		 jge	 SHORT $LN10@joy_read

; 287  : 					d0|=JOY_UP;

  00102	8b 45 f4	 mov	 eax, DWORD PTR _d0$[ebp]
  00105	0d 00 10 00 00	 or	 eax, 4096		; 00001000H
  0010a	89 45 f4	 mov	 DWORD PTR _d0$[ebp], eax
$LN10@joy_read:

; 288  : 				if(dijs.rgbButtons[0] & 0x80)

  0010d	b8 01 00 00 00	 mov	 eax, 1
  00112	6b c8 00	 imul	 ecx, eax, 0
  00115	0f b6 54 0d 9c	 movzx	 edx, BYTE PTR _dijs$[ebp+ecx+48]
  0011a	81 e2 80 00 00
	00		 and	 edx, 128		; 00000080H
  00120	74 0b		 je	 SHORT $LN11@joy_read

; 289  : 					d0|=JOY_A;

  00122	8b 45 f4	 mov	 eax, DWORD PTR _d0$[ebp]
  00125	0d 00 04 00 00	 or	 eax, 1024		; 00000400H
  0012a	89 45 f4	 mov	 DWORD PTR _d0$[ebp], eax
$LN11@joy_read:

; 290  : 				if(dijs.rgbButtons[1] & 0x80)

  0012d	b8 01 00 00 00	 mov	 eax, 1
  00132	c1 e0 00	 shl	 eax, 0
  00135	0f b6 4c 05 9c	 movzx	 ecx, BYTE PTR _dijs$[ebp+eax+48]
  0013a	81 e1 80 00 00
	00		 and	 ecx, 128		; 00000080H
  00140	74 0b		 je	 SHORT $LN12@joy_read

; 291  : 					d0|=JOY_B;

  00142	8b 45 f4	 mov	 eax, DWORD PTR _d0$[ebp]
  00145	0d 00 01 00 00	 or	 eax, 256		; 00000100H
  0014a	89 45 f4	 mov	 DWORD PTR _d0$[ebp], eax
$LN12@joy_read:

; 292  : 			}

  0014d	eb 25		 jmp	 SHORT $LN4@joy_read
$LN5@joy_read:

; 293  : 			else if(ret == DIERR_INPUTLOST){

  0014f	81 7d c4 1e 00
	07 80		 cmp	 DWORD PTR _ret$[ebp], -2147024866 ; 8007001eH
  00156	75 1c		 jne	 SHORT $LN4@joy_read

; 294  : 				pDInputDevice2->Acquire();

  00158	a1 00 00 00 00	 mov	 eax, DWORD PTR ?pDInputDevice2@@3PAUIDirectInputDevice2A@@A ; pDInputDevice2
  0015d	8b 08		 mov	 ecx, DWORD PTR [eax]
  0015f	8b f4		 mov	 esi, esp
  00161	8b 15 00 00 00
	00		 mov	 edx, DWORD PTR ?pDInputDevice2@@3PAUIDirectInputDevice2A@@A ; pDInputDevice2
  00167	52		 push	 edx
  00168	8b 41 1c	 mov	 eax, DWORD PTR [ecx+28]
  0016b	ff d0		 call	 eax
  0016d	3b f4		 cmp	 esi, esp
  0016f	e8 00 00 00 00	 call	 __RTC_CheckEsp
$LN4@joy_read:

; 295  : 			}
; 296  : 		}
; 297  : 		ret = pDInputDevice->GetDeviceState(256,di_key);		//?????¥‚???

  00174	8b f4		 mov	 esi, esp
  00176	68 00 00 00 00	 push	 OFFSET ?di_key@@3PAEA	; di_key
  0017b	68 00 01 00 00	 push	 256			; 00000100H
  00180	a1 00 00 00 00	 mov	 eax, DWORD PTR ?pDInputDevice@@3PAUIDirectInputDeviceA@@A ; pDInputDevice
  00185	8b 08		 mov	 ecx, DWORD PTR [eax]
  00187	8b 15 00 00 00
	00		 mov	 edx, DWORD PTR ?pDInputDevice@@3PAUIDirectInputDeviceA@@A ; pDInputDevice
  0018d	52		 push	 edx
  0018e	8b 41 24	 mov	 eax, DWORD PTR [ecx+36]
  00191	ff d0		 call	 eax
  00193	3b f4		 cmp	 esi, esp
  00195	e8 00 00 00 00	 call	 __RTC_CheckEsp
  0019a	89 45 c4	 mov	 DWORD PTR _ret$[ebp], eax
$LN3@joy_read:

; 298  : 	}
; 299  : 	if(ret == DI_OK){

  0019d	83 7d c4 00	 cmp	 DWORD PTR _ret$[ebp], 0
  001a1	0f 85 f4 11 00
	00		 jne	 $LN14@joy_read

; 300  : 		if(di_key[DIK_LEFT] & 0x80)

  001a7	b8 01 00 00 00	 mov	 eax, 1
  001ac	69 c8 cb 00 00
	00		 imul	 ecx, eax, 203
  001b2	0f b6 91 00 00
	00 00		 movzx	 edx, BYTE PTR ?di_key@@3PAEA[ecx]
  001b9	81 e2 80 00 00
	00		 and	 edx, 128		; 00000080H
  001bf	74 0b		 je	 SHORT $LN16@joy_read

; 301  : 			d0|=JOY_LEFT;

  001c1	8b 45 f4	 mov	 eax, DWORD PTR _d0$[ebp]
  001c4	0d 00 40 00 00	 or	 eax, 16384		; 00004000H
  001c9	89 45 f4	 mov	 DWORD PTR _d0$[ebp], eax
$LN16@joy_read:

; 302  : 		if(di_key[DIK_UP] & 0x80)

  001cc	b8 01 00 00 00	 mov	 eax, 1
  001d1	69 c8 c8 00 00
	00		 imul	 ecx, eax, 200
  001d7	0f b6 91 00 00
	00 00		 movzx	 edx, BYTE PTR ?di_key@@3PAEA[ecx]
  001de	81 e2 80 00 00
	00		 and	 edx, 128		; 00000080H
  001e4	74 0b		 je	 SHORT $LN17@joy_read

; 303  : 			d0|=JOY_UP;

  001e6	8b 45 f4	 mov	 eax, DWORD PTR _d0$[ebp]
  001e9	0d 00 10 00 00	 or	 eax, 4096		; 00001000H
  001ee	89 45 f4	 mov	 DWORD PTR _d0$[ebp], eax
$LN17@joy_read:

; 304  : 		if(di_key[DIK_RIGHT] & 0x80)

  001f1	b8 01 00 00 00	 mov	 eax, 1
  001f6	69 c8 cd 00 00
	00		 imul	 ecx, eax, 205
  001fc	0f b6 91 00 00
	00 00		 movzx	 edx, BYTE PTR ?di_key@@3PAEA[ecx]
  00203	81 e2 80 00 00
	00		 and	 edx, 128		; 00000080H
  00209	74 0b		 je	 SHORT $LN18@joy_read

; 305  : 			d0|=JOY_RIGHT;

  0020b	8b 45 f4	 mov	 eax, DWORD PTR _d0$[ebp]
  0020e	0d 00 80 00 00	 or	 eax, 32768		; 00008000H
  00213	89 45 f4	 mov	 DWORD PTR _d0$[ebp], eax
$LN18@joy_read:

; 306  : 		if(di_key[DIK_DOWN] & 0x80)

  00216	b8 01 00 00 00	 mov	 eax, 1
  0021b	69 c8 d0 00 00
	00		 imul	 ecx, eax, 208
  00221	0f b6 91 00 00
	00 00		 movzx	 edx, BYTE PTR ?di_key@@3PAEA[ecx]
  00228	81 e2 80 00 00
	00		 and	 edx, 128		; 00000080H
  0022e	74 0b		 je	 SHORT $LN19@joy_read

; 307  : 			d0|=JOY_DOWN;

  00230	8b 45 f4	 mov	 eax, DWORD PTR _d0$[ebp]
  00233	0d 00 20 00 00	 or	 eax, 8192		; 00002000H
  00238	89 45 f4	 mov	 DWORD PTR _d0$[ebp], eax
$LN19@joy_read:

; 308  : 		//if(di_key[DIK_Z] & 0x80)
; 309  : 		//	d0|=JOY_A;
; 310  : 		//if(di_key[DIK_X] & 0x80)
; 311  : 		//	d0|=JOY_B;
; 312  : 		//if(di_key[DIK_G] & 0x80)
; 313  : 		//	d0|=JOY_A;
; 314  : 		//if(di_key[DIK_H] & 0x80)
; 315  : 		//	d0|=JOY_B;
; 316  : 			
; 317  : 		// ???? ?????????
; 318  : 		// ESC ??
; 319  : 		if(di_key[DIK_ESCAPE] & 0x80){

  0023b	b8 01 00 00 00	 mov	 eax, 1
  00240	c1 e0 00	 shl	 eax, 0
  00243	0f b6 88 00 00
	00 00		 movzx	 ecx, BYTE PTR ?di_key@@3PAEA[eax]
  0024a	81 e1 80 00 00
	00		 and	 ecx, 128		; 00000080H
  00250	74 0b		 je	 SHORT $LN20@joy_read

; 320  : 			// ?????????§ó??þ†??
; 321  : 			//if( ImeBufferBak2 == NULL ) 
; 322  : 			d0|=JOY_ESC;

  00252	8b 45 f4	 mov	 eax, DWORD PTR _d0$[ebp]
  00255	0d 00 00 00 80	 or	 eax, -2147483648	; 80000000H
  0025a	89 45 f4	 mov	 DWORD PTR _d0$[ebp], eax
$LN20@joy_read:

; 323  : 		}
; 324  : 		
; 325  : 		// ??????? Ctrl ???????????
; 326  : 		if( di_key[DIK_RCONTROL] & 0x80 || di_key[DIK_LCONTROL] & 0x80 ){ 

  0025d	b8 01 00 00 00	 mov	 eax, 1
  00262	69 c8 9d 00 00
	00		 imul	 ecx, eax, 157
  00268	0f b6 91 00 00
	00 00		 movzx	 edx, BYTE PTR ?di_key@@3PAEA[ecx]
  0026f	81 e2 80 00 00
	00		 and	 edx, 128		; 00000080H
  00275	75 1b		 jne	 SHORT $LN22@joy_read
  00277	b8 01 00 00 00	 mov	 eax, 1
  0027c	6b c8 1d	 imul	 ecx, eax, 29
  0027f	0f b6 91 00 00
	00 00		 movzx	 edx, BYTE PTR ?di_key@@3PAEA[ecx]
  00286	81 e2 80 00 00
	00		 and	 edx, 128		; 00000080H
  0028c	0f 84 54 01 00
	00		 je	 $LN21@joy_read
$LN22@joy_read:

; 327  : 			// Ctrl + M
; 328  : 			if( di_key[DIK_M] & 0x80 )	d0|=JOY_CTRL_M;

  00292	b8 01 00 00 00	 mov	 eax, 1
  00297	6b c8 32	 imul	 ecx, eax, 50
  0029a	0f b6 91 00 00
	00 00		 movzx	 edx, BYTE PTR ?di_key@@3PAEA[ecx]
  002a1	81 e2 80 00 00
	00		 and	 edx, 128		; 00000080H
  002a7	74 0b		 je	 SHORT $LN23@joy_read
  002a9	8b 45 f4	 mov	 eax, DWORD PTR _d0$[ebp]
  002ac	0d 00 00 00 40	 or	 eax, 1073741824		; 40000000H
  002b1	89 45 f4	 mov	 DWORD PTR _d0$[ebp], eax
$LN23@joy_read:

; 329  : 			// Ctrl + S
; 330  : 			if( di_key[DIK_S] & 0x80 )	d0|=JOY_CTRL_S;

  002b4	b8 01 00 00 00	 mov	 eax, 1
  002b9	6b c8 1f	 imul	 ecx, eax, 31
  002bc	0f b6 91 00 00
	00 00		 movzx	 edx, BYTE PTR ?di_key@@3PAEA[ecx]
  002c3	81 e2 80 00 00
	00		 and	 edx, 128		; 00000080H
  002c9	74 0b		 je	 SHORT $LN24@joy_read
  002cb	8b 45 f4	 mov	 eax, DWORD PTR _d0$[ebp]
  002ce	0d 00 00 00 20	 or	 eax, 536870912		; 20000000H
  002d3	89 45 f4	 mov	 DWORD PTR _d0$[ebp], eax
$LN24@joy_read:

; 331  : 			// Ctrl + P
; 332  : 			if( di_key[DIK_P] & 0x80 )	d0|=JOY_CTRL_P;

  002d6	b8 01 00 00 00	 mov	 eax, 1
  002db	6b c8 19	 imul	 ecx, eax, 25
  002de	0f b6 91 00 00
	00 00		 movzx	 edx, BYTE PTR ?di_key@@3PAEA[ecx]
  002e5	81 e2 80 00 00
	00		 and	 edx, 128		; 00000080H
  002eb	74 0b		 je	 SHORT $LN25@joy_read
  002ed	8b 45 f4	 mov	 eax, DWORD PTR _d0$[ebp]
  002f0	0d 00 00 00 10	 or	 eax, 268435456		; 10000000H
  002f5	89 45 f4	 mov	 DWORD PTR _d0$[ebp], eax
$LN25@joy_read:

; 333  : 			// Ctrl + I
; 334  : 			if( di_key[DIK_I] & 0x80 )	d0|=JOY_CTRL_I;

  002f8	b8 01 00 00 00	 mov	 eax, 1
  002fd	6b c8 17	 imul	 ecx, eax, 23
  00300	0f b6 91 00 00
	00 00		 movzx	 edx, BYTE PTR ?di_key@@3PAEA[ecx]
  00307	81 e2 80 00 00
	00		 and	 edx, 128		; 00000080H
  0030d	74 0b		 je	 SHORT $LN26@joy_read
  0030f	8b 45 f4	 mov	 eax, DWORD PTR _d0$[ebp]
  00312	0d 00 00 00 08	 or	 eax, 134217728		; 08000000H
  00317	89 45 f4	 mov	 DWORD PTR _d0$[ebp], eax
$LN26@joy_read:

; 335  : 			// Ctrl + E
; 336  : 			if( di_key[DIK_E] & 0x80 )	d0|=JOY_CTRL_E;

  0031a	b8 01 00 00 00	 mov	 eax, 1
  0031f	6b c8 12	 imul	 ecx, eax, 18
  00322	0f b6 91 00 00
	00 00		 movzx	 edx, BYTE PTR ?di_key@@3PAEA[ecx]
  00329	81 e2 80 00 00
	00		 and	 edx, 128		; 00000080H
  0032f	74 0b		 je	 SHORT $LN27@joy_read
  00331	8b 45 f4	 mov	 eax, DWORD PTR _d0$[ebp]
  00334	0d 00 00 00 04	 or	 eax, 67108864		; 04000000H
  00339	89 45 f4	 mov	 DWORD PTR _d0$[ebp], eax
$LN27@joy_read:

; 337  : 			// Ctrl + A
; 338  : 			if( di_key[DIK_A] & 0x80 )	d0|=JOY_CTRL_A;

  0033c	b8 01 00 00 00	 mov	 eax, 1
  00341	6b c8 1e	 imul	 ecx, eax, 30
  00344	0f b6 91 00 00
	00 00		 movzx	 edx, BYTE PTR ?di_key@@3PAEA[ecx]
  0034b	81 e2 80 00 00
	00		 and	 edx, 128		; 00000080H
  00351	74 0b		 je	 SHORT $LN28@joy_read
  00353	8b 45 f4	 mov	 eax, DWORD PTR _d0$[ebp]
  00356	0d 00 00 00 02	 or	 eax, 33554432		; 02000000H
  0035b	89 45 f4	 mov	 DWORD PTR _d0$[ebp], eax
$LN28@joy_read:

; 339  : 			// Ctrl + C
; 340  : 			if( di_key[DIK_C] & 0x80 )	d0|=JOY_CTRL_C;

  0035e	b8 01 00 00 00	 mov	 eax, 1
  00363	6b c8 2e	 imul	 ecx, eax, 46
  00366	0f b6 91 00 00
	00 00		 movzx	 edx, BYTE PTR ?di_key@@3PAEA[ecx]
  0036d	81 e2 80 00 00
	00		 and	 edx, 128		; 00000080H
  00373	74 0b		 je	 SHORT $LN29@joy_read
  00375	8b 45 f4	 mov	 eax, DWORD PTR _d0$[ebp]
  00378	0d 00 00 00 01	 or	 eax, 16777216		; 01000000H
  0037d	89 45 f4	 mov	 DWORD PTR _d0$[ebp], eax
$LN29@joy_read:

; 341  : 			// Ctrl + V
; 342  : 			if( di_key[DIK_V] & 0x80 )	d0|=JOY_CTRL_V;

  00380	b8 01 00 00 00	 mov	 eax, 1
  00385	6b c8 2f	 imul	 ecx, eax, 47
  00388	0f b6 91 00 00
	00 00		 movzx	 edx, BYTE PTR ?di_key@@3PAEA[ecx]
  0038f	81 e2 80 00 00
	00		 and	 edx, 128		; 00000080H
  00395	74 0b		 je	 SHORT $LN30@joy_read
  00397	8b 45 f4	 mov	 eax, DWORD PTR _d0$[ebp]
  0039a	0d 00 00 80 00	 or	 eax, 8388608		; 00800000H
  0039f	89 45 f4	 mov	 DWORD PTR _d0$[ebp], eax
$LN30@joy_read:

; 343  : 			// Ctrl + Z
; 344  : 			if( di_key[DIK_Z] & 0x80 )	d0|=JOY_A;

  003a2	b8 01 00 00 00	 mov	 eax, 1
  003a7	6b c8 2c	 imul	 ecx, eax, 44
  003aa	0f b6 91 00 00
	00 00		 movzx	 edx, BYTE PTR ?di_key@@3PAEA[ecx]
  003b1	81 e2 80 00 00
	00		 and	 edx, 128		; 00000080H
  003b7	74 0b		 je	 SHORT $LN31@joy_read
  003b9	8b 45 f4	 mov	 eax, DWORD PTR _d0$[ebp]
  003bc	0d 00 04 00 00	 or	 eax, 1024		; 00000400H
  003c1	89 45 f4	 mov	 DWORD PTR _d0$[ebp], eax
$LN31@joy_read:

; 345  : 			// Ctrl + X
; 346  : 			if( di_key[DIK_X] & 0x80 )	d0|=JOY_B;

  003c4	b8 01 00 00 00	 mov	 eax, 1
  003c9	6b c8 2d	 imul	 ecx, eax, 45
  003cc	0f b6 91 00 00
	00 00		 movzx	 edx, BYTE PTR ?di_key@@3PAEA[ecx]
  003d3	81 e2 80 00 00
	00		 and	 edx, 128		; 00000080H
  003d9	74 0b		 je	 SHORT $LN21@joy_read
  003db	8b 45 f4	 mov	 eax, DWORD PTR _d0$[ebp]
  003de	0d 00 01 00 00	 or	 eax, 256		; 00000100H
  003e3	89 45 f4	 mov	 DWORD PTR _d0$[ebp], eax
$LN21@joy_read:

; 347  : 			// Ctrl + T
; 348  : 			//if( di_key[DIK_T] & 0x80 )	d0|=JOY_CTRL_T;
; 349  : 			
; 350  : 		}
; 351  : 		
; 352  : 		// ¥{ûì??
; 353  : 		if( di_key[DIK_PRIOR]	& 0x80)		d0|=JOY_P_UP;

  003e6	b8 01 00 00 00	 mov	 eax, 1
  003eb	69 c8 c9 00 00
	00		 imul	 ecx, eax, 201
  003f1	0f b6 91 00 00
	00 00		 movzx	 edx, BYTE PTR ?di_key@@3PAEA[ecx]
  003f8	81 e2 80 00 00
	00		 and	 edx, 128		; 00000080H
  003fe	74 09		 je	 SHORT $LN33@joy_read
  00400	8b 45 f4	 mov	 eax, DWORD PTR _d0$[ebp]
  00403	83 c8 01	 or	 eax, 1
  00406	89 45 f4	 mov	 DWORD PTR _d0$[ebp], eax
$LN33@joy_read:

; 354  : 		if( di_key[DIK_NEXT] 	& 0x80)		d0|=JOY_P_DOWN;

  00409	b8 01 00 00 00	 mov	 eax, 1
  0040e	69 c8 d1 00 00
	00		 imul	 ecx, eax, 209
  00414	0f b6 91 00 00
	00 00		 movzx	 edx, BYTE PTR ?di_key@@3PAEA[ecx]
  0041b	81 e2 80 00 00
	00		 and	 edx, 128		; 00000080H
  00421	74 09		 je	 SHORT $LN34@joy_read
  00423	8b 45 f4	 mov	 eax, DWORD PTR _d0$[ebp]
  00426	83 c8 02	 or	 eax, 2
  00429	89 45 f4	 mov	 DWORD PTR _d0$[ebp], eax
$LN34@joy_read:

; 355  : 		if( di_key[DIK_HOME] 	& 0x80)		d0|=JOY_HOME;

  0042c	b8 01 00 00 00	 mov	 eax, 1
  00431	69 c8 c7 00 00
	00		 imul	 ecx, eax, 199
  00437	0f b6 91 00 00
	00 00		 movzx	 edx, BYTE PTR ?di_key@@3PAEA[ecx]
  0043e	81 e2 80 00 00
	00		 and	 edx, 128		; 00000080H
  00444	74 09		 je	 SHORT $LN35@joy_read
  00446	8b 45 f4	 mov	 eax, DWORD PTR _d0$[ebp]
  00449	83 c8 04	 or	 eax, 4
  0044c	89 45 f4	 mov	 DWORD PTR _d0$[ebp], eax
$LN35@joy_read:

; 356  : 		if( di_key[DIK_END] 	& 0x80)		d0|=JOY_END;

  0044f	b8 01 00 00 00	 mov	 eax, 1
  00454	69 c8 cf 00 00
	00		 imul	 ecx, eax, 207
  0045a	0f b6 91 00 00
	00 00		 movzx	 edx, BYTE PTR ?di_key@@3PAEA[ecx]
  00461	81 e2 80 00 00
	00		 and	 edx, 128		; 00000080H
  00467	74 09		 je	 SHORT $LN36@joy_read
  00469	8b 45 f4	 mov	 eax, DWORD PTR _d0$[ebp]
  0046c	83 c8 08	 or	 eax, 8
  0046f	89 45 f4	 mov	 DWORD PTR _d0$[ebp], eax
$LN36@joy_read:

; 357  : 		if( di_key[DIK_INSERT] 	& 0x80)		d0|=JOY_INS;

  00472	b8 01 00 00 00	 mov	 eax, 1
  00477	69 c8 d2 00 00
	00		 imul	 ecx, eax, 210
  0047d	0f b6 91 00 00
	00 00		 movzx	 edx, BYTE PTR ?di_key@@3PAEA[ecx]
  00484	81 e2 80 00 00
	00		 and	 edx, 128		; 00000080H
  0048a	74 09		 je	 SHORT $LN37@joy_read
  0048c	8b 45 f4	 mov	 eax, DWORD PTR _d0$[ebp]
  0048f	83 c8 10	 or	 eax, 16			; 00000010H
  00492	89 45 f4	 mov	 DWORD PTR _d0$[ebp], eax
$LN37@joy_read:

; 358  : 		if( di_key[DIK_DELETE] 	& 0x80)		d0|=JOY_DEL;

  00495	b8 01 00 00 00	 mov	 eax, 1
  0049a	69 c8 d3 00 00
	00		 imul	 ecx, eax, 211
  004a0	0f b6 91 00 00
	00 00		 movzx	 edx, BYTE PTR ?di_key@@3PAEA[ecx]
  004a7	81 e2 80 00 00
	00		 and	 edx, 128		; 00000080H
  004ad	74 09		 je	 SHORT $LN38@joy_read
  004af	8b 45 f4	 mov	 eax, DWORD PTR _d0$[ebp]
  004b2	83 c8 20	 or	 eax, 32			; 00000020H
  004b5	89 45 f4	 mov	 DWORD PTR _d0$[ebp], eax
$LN38@joy_read:

; 359  : 		
; 360  : 		
; 361  : 		
; 362  : 		joy_con[0] = d0;

  004b8	b8 04 00 00 00	 mov	 eax, 4
  004bd	6b c8 00	 imul	 ecx, eax, 0
  004c0	8b 55 f4	 mov	 edx, DWORD PTR _d0$[ebp]
  004c3	89 91 00 00 00
	00		 mov	 DWORD PTR ?joy_con@@3PAKA[ecx], edx

; 363  : 
; 364  : 		d0=0;

  004c9	c7 45 f4 00 00
	00 00		 mov	 DWORD PTR _d0$[ebp], 0

; 365  : 		
; 366  : 		//??¢Dûè???
; 367  : 		// ???¨Á???þ†??
; 368  : 		if( GetImeString() == NULL ){

  004d0	e8 00 00 00 00	 call	 ?GetImeString@@YAPADXZ	; GetImeString
  004d5	85 c0		 test	 eax, eax
  004d7	0f 85 8a 01 00
	00		 jne	 $LN39@joy_read

; 369  : 			
; 370  : 			// ?????????
; 371  : 			if(di_key[DIK_F1] & 0x80) d0|=JOY_F1;

  004dd	b8 01 00 00 00	 mov	 eax, 1
  004e2	6b c8 3b	 imul	 ecx, eax, 59
  004e5	0f b6 91 00 00
	00 00		 movzx	 edx, BYTE PTR ?di_key@@3PAEA[ecx]
  004ec	81 e2 80 00 00
	00		 and	 edx, 128		; 00000080H
  004f2	74 09		 je	 SHORT $LN40@joy_read
  004f4	8b 45 f4	 mov	 eax, DWORD PTR _d0$[ebp]
  004f7	83 c8 01	 or	 eax, 1
  004fa	89 45 f4	 mov	 DWORD PTR _d0$[ebp], eax
$LN40@joy_read:

; 372  : 			if(di_key[DIK_F2] & 0x80) d0|=JOY_F2;

  004fd	b8 01 00 00 00	 mov	 eax, 1
  00502	6b c8 3c	 imul	 ecx, eax, 60
  00505	0f b6 91 00 00
	00 00		 movzx	 edx, BYTE PTR ?di_key@@3PAEA[ecx]
  0050c	81 e2 80 00 00
	00		 and	 edx, 128		; 00000080H
  00512	74 09		 je	 SHORT $LN41@joy_read
  00514	8b 45 f4	 mov	 eax, DWORD PTR _d0$[ebp]
  00517	83 c8 02	 or	 eax, 2
  0051a	89 45 f4	 mov	 DWORD PTR _d0$[ebp], eax
$LN41@joy_read:

; 373  : 			if(di_key[DIK_F3] & 0x80) d0|=JOY_F3;

  0051d	b8 01 00 00 00	 mov	 eax, 1
  00522	6b c8 3d	 imul	 ecx, eax, 61
  00525	0f b6 91 00 00
	00 00		 movzx	 edx, BYTE PTR ?di_key@@3PAEA[ecx]
  0052c	81 e2 80 00 00
	00		 and	 edx, 128		; 00000080H
  00532	74 09		 je	 SHORT $LN42@joy_read
  00534	8b 45 f4	 mov	 eax, DWORD PTR _d0$[ebp]
  00537	83 c8 04	 or	 eax, 4
  0053a	89 45 f4	 mov	 DWORD PTR _d0$[ebp], eax
$LN42@joy_read:

; 374  : 			if(di_key[DIK_F4] & 0x80) d0|=JOY_F4;

  0053d	b8 01 00 00 00	 mov	 eax, 1
  00542	6b c8 3e	 imul	 ecx, eax, 62
  00545	0f b6 91 00 00
	00 00		 movzx	 edx, BYTE PTR ?di_key@@3PAEA[ecx]
  0054c	81 e2 80 00 00
	00		 and	 edx, 128		; 00000080H
  00552	74 09		 je	 SHORT $LN43@joy_read
  00554	8b 45 f4	 mov	 eax, DWORD PTR _d0$[ebp]
  00557	83 c8 08	 or	 eax, 8
  0055a	89 45 f4	 mov	 DWORD PTR _d0$[ebp], eax
$LN43@joy_read:

; 375  : 			
; 376  : 			if(di_key[DIK_F5] & 0x80) d0|=JOY_F5;

  0055d	b8 01 00 00 00	 mov	 eax, 1
  00562	6b c8 3f	 imul	 ecx, eax, 63
  00565	0f b6 91 00 00
	00 00		 movzx	 edx, BYTE PTR ?di_key@@3PAEA[ecx]
  0056c	81 e2 80 00 00
	00		 and	 edx, 128		; 00000080H
  00572	74 09		 je	 SHORT $LN44@joy_read
  00574	8b 45 f4	 mov	 eax, DWORD PTR _d0$[ebp]
  00577	83 c8 10	 or	 eax, 16			; 00000010H
  0057a	89 45 f4	 mov	 DWORD PTR _d0$[ebp], eax
$LN44@joy_read:

; 377  : 			if(di_key[DIK_F6] & 0x80) d0|=JOY_F6;

  0057d	b8 01 00 00 00	 mov	 eax, 1
  00582	c1 e0 06	 shl	 eax, 6
  00585	0f b6 88 00 00
	00 00		 movzx	 ecx, BYTE PTR ?di_key@@3PAEA[eax]
  0058c	81 e1 80 00 00
	00		 and	 ecx, 128		; 00000080H
  00592	74 09		 je	 SHORT $LN45@joy_read
  00594	8b 45 f4	 mov	 eax, DWORD PTR _d0$[ebp]
  00597	83 c8 20	 or	 eax, 32			; 00000020H
  0059a	89 45 f4	 mov	 DWORD PTR _d0$[ebp], eax
$LN45@joy_read:

; 378  : 			if(di_key[DIK_F7] & 0x80) d0|=JOY_F7;

  0059d	b8 01 00 00 00	 mov	 eax, 1
  005a2	6b c8 41	 imul	 ecx, eax, 65
  005a5	0f b6 91 00 00
	00 00		 movzx	 edx, BYTE PTR ?di_key@@3PAEA[ecx]
  005ac	81 e2 80 00 00
	00		 and	 edx, 128		; 00000080H
  005b2	74 09		 je	 SHORT $LN46@joy_read
  005b4	8b 45 f4	 mov	 eax, DWORD PTR _d0$[ebp]
  005b7	83 c8 40	 or	 eax, 64			; 00000040H
  005ba	89 45 f4	 mov	 DWORD PTR _d0$[ebp], eax
$LN46@joy_read:

; 379  : 			if(di_key[DIK_F8] & 0x80) d0|=JOY_F8;

  005bd	b8 01 00 00 00	 mov	 eax, 1
  005c2	6b c8 42	 imul	 ecx, eax, 66
  005c5	0f b6 91 00 00
	00 00		 movzx	 edx, BYTE PTR ?di_key@@3PAEA[ecx]
  005cc	81 e2 80 00 00
	00		 and	 edx, 128		; 00000080H
  005d2	74 0b		 je	 SHORT $LN47@joy_read
  005d4	8b 45 f4	 mov	 eax, DWORD PTR _d0$[ebp]
  005d7	0d 80 00 00 00	 or	 eax, 128		; 00000080H
  005dc	89 45 f4	 mov	 DWORD PTR _d0$[ebp], eax
$LN47@joy_read:

; 380  : 			
; 381  : 			if(di_key[DIK_F9] & 0x80) d0|=JOY_F9;

  005df	b8 01 00 00 00	 mov	 eax, 1
  005e4	6b c8 43	 imul	 ecx, eax, 67
  005e7	0f b6 91 00 00
	00 00		 movzx	 edx, BYTE PTR ?di_key@@3PAEA[ecx]
  005ee	81 e2 80 00 00
	00		 and	 edx, 128		; 00000080H
  005f4	74 0b		 je	 SHORT $LN48@joy_read
  005f6	8b 45 f4	 mov	 eax, DWORD PTR _d0$[ebp]
  005f9	0d 00 01 00 00	 or	 eax, 256		; 00000100H
  005fe	89 45 f4	 mov	 DWORD PTR _d0$[ebp], eax
$LN48@joy_read:

; 382  : 			if(di_key[DIK_F10] & 0x80) d0|=JOY_F10;

  00601	b8 01 00 00 00	 mov	 eax, 1
  00606	6b c8 44	 imul	 ecx, eax, 68
  00609	0f b6 91 00 00
	00 00		 movzx	 edx, BYTE PTR ?di_key@@3PAEA[ecx]
  00610	81 e2 80 00 00
	00		 and	 edx, 128		; 00000080H
  00616	74 0b		 je	 SHORT $LN49@joy_read
  00618	8b 45 f4	 mov	 eax, DWORD PTR _d0$[ebp]
  0061b	0d 00 02 00 00	 or	 eax, 512		; 00000200H
  00620	89 45 f4	 mov	 DWORD PTR _d0$[ebp], eax
$LN49@joy_read:

; 383  : 			if(di_key[DIK_F11] & 0x80) d0|=JOY_F11;

  00623	b8 01 00 00 00	 mov	 eax, 1
  00628	6b c8 57	 imul	 ecx, eax, 87
  0062b	0f b6 91 00 00
	00 00		 movzx	 edx, BYTE PTR ?di_key@@3PAEA[ecx]
  00632	81 e2 80 00 00
	00		 and	 edx, 128		; 00000080H
  00638	74 0b		 je	 SHORT $LN50@joy_read
  0063a	8b 45 f4	 mov	 eax, DWORD PTR _d0$[ebp]
  0063d	0d 00 04 00 00	 or	 eax, 1024		; 00000400H
  00642	89 45 f4	 mov	 DWORD PTR _d0$[ebp], eax
$LN50@joy_read:

; 384  : 			if(di_key[DIK_F12] & 0x80) d0|=JOY_F12;

  00645	b8 01 00 00 00	 mov	 eax, 1
  0064a	6b c8 58	 imul	 ecx, eax, 88
  0064d	0f b6 91 00 00
	00 00		 movzx	 edx, BYTE PTR ?di_key@@3PAEA[ecx]
  00654	81 e2 80 00 00
	00		 and	 edx, 128		; 00000080H
  0065a	74 0b		 je	 SHORT $LN39@joy_read
  0065c	8b 45 f4	 mov	 eax, DWORD PTR _d0$[ebp]
  0065f	0d 00 08 00 00	 or	 eax, 2048		; 00000800H
  00664	89 45 f4	 mov	 DWORD PTR _d0$[ebp], eax
$LN39@joy_read:

; 385  : 		}
; 386  : 		// ??????? Ctrl ???????????
; 387  : 		if( di_key[DIK_RCONTROL] & 0x80 || di_key[DIK_LCONTROL] & 0x80 ){ 

  00667	b8 01 00 00 00	 mov	 eax, 1
  0066c	69 c8 9d 00 00
	00		 imul	 ecx, eax, 157
  00672	0f b6 91 00 00
	00 00		 movzx	 edx, BYTE PTR ?di_key@@3PAEA[ecx]
  00679	81 e2 80 00 00
	00		 and	 edx, 128		; 00000080H
  0067f	75 1b		 jne	 SHORT $LN53@joy_read
  00681	b8 01 00 00 00	 mov	 eax, 1
  00686	6b c8 1d	 imul	 ecx, eax, 29
  00689	0f b6 91 00 00
	00 00		 movzx	 edx, BYTE PTR ?di_key@@3PAEA[ecx]
  00690	81 e2 80 00 00
	00		 and	 edx, 128		; 00000080H
  00696	0f 84 85 02 00
	00		 je	 $LN52@joy_read
$LN53@joy_read:

; 388  : 			// ??????????????
; 389  : 			if(di_key[DIK_1] & 0x80) d0|=JOY_CTRL_1;

  0069c	b8 01 00 00 00	 mov	 eax, 1
  006a1	d1 e0		 shl	 eax, 1
  006a3	0f b6 88 00 00
	00 00		 movzx	 ecx, BYTE PTR ?di_key@@3PAEA[eax]
  006aa	81 e1 80 00 00
	00		 and	 ecx, 128		; 00000080H
  006b0	74 0b		 je	 SHORT $LN54@joy_read
  006b2	8b 45 f4	 mov	 eax, DWORD PTR _d0$[ebp]
  006b5	0d 00 10 00 00	 or	 eax, 4096		; 00001000H
  006ba	89 45 f4	 mov	 DWORD PTR _d0$[ebp], eax
$LN54@joy_read:

; 390  : 			if(di_key[DIK_2] & 0x80) d0|=JOY_CTRL_2;

  006bd	b8 01 00 00 00	 mov	 eax, 1
  006c2	6b c8 03	 imul	 ecx, eax, 3
  006c5	0f b6 91 00 00
	00 00		 movzx	 edx, BYTE PTR ?di_key@@3PAEA[ecx]
  006cc	81 e2 80 00 00
	00		 and	 edx, 128		; 00000080H
  006d2	74 0b		 je	 SHORT $LN55@joy_read
  006d4	8b 45 f4	 mov	 eax, DWORD PTR _d0$[ebp]
  006d7	0d 00 20 00 00	 or	 eax, 8192		; 00002000H
  006dc	89 45 f4	 mov	 DWORD PTR _d0$[ebp], eax
$LN55@joy_read:

; 391  : 			if(di_key[DIK_3] & 0x80) d0|=JOY_CTRL_3;

  006df	b8 01 00 00 00	 mov	 eax, 1
  006e4	c1 e0 02	 shl	 eax, 2
  006e7	0f b6 88 00 00
	00 00		 movzx	 ecx, BYTE PTR ?di_key@@3PAEA[eax]
  006ee	81 e1 80 00 00
	00		 and	 ecx, 128		; 00000080H
  006f4	74 0b		 je	 SHORT $LN56@joy_read
  006f6	8b 45 f4	 mov	 eax, DWORD PTR _d0$[ebp]
  006f9	0d 00 40 00 00	 or	 eax, 16384		; 00004000H
  006fe	89 45 f4	 mov	 DWORD PTR _d0$[ebp], eax
$LN56@joy_read:

; 392  : 			if(di_key[DIK_4] & 0x80) d0|=JOY_CTRL_4;

  00701	b8 01 00 00 00	 mov	 eax, 1
  00706	6b c8 05	 imul	 ecx, eax, 5
  00709	0f b6 91 00 00
	00 00		 movzx	 edx, BYTE PTR ?di_key@@3PAEA[ecx]
  00710	81 e2 80 00 00
	00		 and	 edx, 128		; 00000080H
  00716	74 0b		 je	 SHORT $LN57@joy_read
  00718	8b 45 f4	 mov	 eax, DWORD PTR _d0$[ebp]
  0071b	0d 00 80 00 00	 or	 eax, 32768		; 00008000H
  00720	89 45 f4	 mov	 DWORD PTR _d0$[ebp], eax
$LN57@joy_read:

; 393  : 			if(di_key[DIK_5] & 0x80) d0|=JOY_CTRL_5;

  00723	b8 01 00 00 00	 mov	 eax, 1
  00728	6b c8 06	 imul	 ecx, eax, 6
  0072b	0f b6 91 00 00
	00 00		 movzx	 edx, BYTE PTR ?di_key@@3PAEA[ecx]
  00732	81 e2 80 00 00
	00		 and	 edx, 128		; 00000080H
  00738	74 0b		 je	 SHORT $LN58@joy_read
  0073a	8b 45 f4	 mov	 eax, DWORD PTR _d0$[ebp]
  0073d	0d 00 00 01 00	 or	 eax, 65536		; 00010000H
  00742	89 45 f4	 mov	 DWORD PTR _d0$[ebp], eax
$LN58@joy_read:

; 394  : 			if(di_key[DIK_6] & 0x80) d0|=JOY_CTRL_6;

  00745	b8 01 00 00 00	 mov	 eax, 1
  0074a	6b c8 07	 imul	 ecx, eax, 7
  0074d	0f b6 91 00 00
	00 00		 movzx	 edx, BYTE PTR ?di_key@@3PAEA[ecx]
  00754	81 e2 80 00 00
	00		 and	 edx, 128		; 00000080H
  0075a	74 0b		 je	 SHORT $LN59@joy_read
  0075c	8b 45 f4	 mov	 eax, DWORD PTR _d0$[ebp]
  0075f	0d 00 00 02 00	 or	 eax, 131072		; 00020000H
  00764	89 45 f4	 mov	 DWORD PTR _d0$[ebp], eax
$LN59@joy_read:

; 395  : 			if(di_key[DIK_7] & 0x80) d0|=JOY_CTRL_7;

  00767	b8 01 00 00 00	 mov	 eax, 1
  0076c	c1 e0 03	 shl	 eax, 3
  0076f	0f b6 88 00 00
	00 00		 movzx	 ecx, BYTE PTR ?di_key@@3PAEA[eax]
  00776	81 e1 80 00 00
	00		 and	 ecx, 128		; 00000080H
  0077c	74 0b		 je	 SHORT $LN60@joy_read
  0077e	8b 45 f4	 mov	 eax, DWORD PTR _d0$[ebp]
  00781	0d 00 00 04 00	 or	 eax, 262144		; 00040000H
  00786	89 45 f4	 mov	 DWORD PTR _d0$[ebp], eax
$LN60@joy_read:

; 396  : 			if(di_key[DIK_8] & 0x80) d0|=JOY_CTRL_8;

  00789	b8 01 00 00 00	 mov	 eax, 1
  0078e	6b c8 09	 imul	 ecx, eax, 9
  00791	0f b6 91 00 00
	00 00		 movzx	 edx, BYTE PTR ?di_key@@3PAEA[ecx]
  00798	81 e2 80 00 00
	00		 and	 edx, 128		; 00000080H
  0079e	74 0b		 je	 SHORT $LN61@joy_read
  007a0	8b 45 f4	 mov	 eax, DWORD PTR _d0$[ebp]
  007a3	0d 00 00 08 00	 or	 eax, 524288		; 00080000H
  007a8	89 45 f4	 mov	 DWORD PTR _d0$[ebp], eax
$LN61@joy_read:

; 397  : 			if(di_key[DIK_9] & 0x80) d0|=JOY_CTRL_9;

  007ab	b8 01 00 00 00	 mov	 eax, 1
  007b0	6b c8 0a	 imul	 ecx, eax, 10
  007b3	0f b6 91 00 00
	00 00		 movzx	 edx, BYTE PTR ?di_key@@3PAEA[ecx]
  007ba	81 e2 80 00 00
	00		 and	 edx, 128		; 00000080H
  007c0	74 0b		 je	 SHORT $LN62@joy_read
  007c2	8b 45 f4	 mov	 eax, DWORD PTR _d0$[ebp]
  007c5	0d 00 00 10 00	 or	 eax, 1048576		; 00100000H
  007ca	89 45 f4	 mov	 DWORD PTR _d0$[ebp], eax
$LN62@joy_read:

; 398  : 			if(di_key[DIK_0] & 0x80) d0|=JOY_CTRL_0;

  007cd	b8 01 00 00 00	 mov	 eax, 1
  007d2	6b c8 0b	 imul	 ecx, eax, 11
  007d5	0f b6 91 00 00
	00 00		 movzx	 edx, BYTE PTR ?di_key@@3PAEA[ecx]
  007dc	81 e2 80 00 00
	00		 and	 edx, 128		; 00000080H
  007e2	74 0b		 je	 SHORT $LN63@joy_read
  007e4	8b 45 f4	 mov	 eax, DWORD PTR _d0$[ebp]
  007e7	0d 00 00 20 00	 or	 eax, 2097152		; 00200000H
  007ec	89 45 f4	 mov	 DWORD PTR _d0$[ebp], eax
$LN63@joy_read:

; 399  : 			if(di_key[DIK_MINUS] & 0x80) 	d0|=JOY_CTRL_MINUS;

  007ef	b8 01 00 00 00	 mov	 eax, 1
  007f4	6b c8 0c	 imul	 ecx, eax, 12
  007f7	0f b6 91 00 00
	00 00		 movzx	 edx, BYTE PTR ?di_key@@3PAEA[ecx]
  007fe	81 e2 80 00 00
	00		 and	 edx, 128		; 00000080H
  00804	74 0b		 je	 SHORT $LN64@joy_read
  00806	8b 45 f4	 mov	 eax, DWORD PTR _d0$[ebp]
  00809	0d 00 00 40 00	 or	 eax, 4194304		; 00400000H
  0080e	89 45 f4	 mov	 DWORD PTR _d0$[ebp], eax
$LN64@joy_read:

; 400  : 			//cary Ê®Áù
; 401  : 			if(di_key[DIK_EQUALS] & 0x80) 	d0|=JOY_CTRL_CIRCUMFLEX;

  00811	b8 01 00 00 00	 mov	 eax, 1
  00816	6b c8 0d	 imul	 ecx, eax, 13
  00819	0f b6 91 00 00
	00 00		 movzx	 edx, BYTE PTR ?di_key@@3PAEA[ecx]
  00820	81 e2 80 00 00
	00		 and	 edx, 128		; 00000080H
  00826	74 0b		 je	 SHORT $LN65@joy_read
  00828	8b 45 f4	 mov	 eax, DWORD PTR _d0$[ebp]
  0082b	0d 00 00 80 00	 or	 eax, 8388608		; 00800000H
  00830	89 45 f4	 mov	 DWORD PTR _d0$[ebp], eax
$LN65@joy_read:

; 402  : 			if(di_key[DIK_BACKSLASH] & 0x80) d0|=JOY_CTRL_YEN;

  00833	b8 01 00 00 00	 mov	 eax, 1
  00838	6b c8 2b	 imul	 ecx, eax, 43
  0083b	0f b6 91 00 00
	00 00		 movzx	 edx, BYTE PTR ?di_key@@3PAEA[ecx]
  00842	81 e2 80 00 00
	00		 and	 edx, 128		; 00000080H
  00848	74 0b		 je	 SHORT $LN66@joy_read
  0084a	8b 45 f4	 mov	 eax, DWORD PTR _d0$[ebp]
  0084d	0d 00 00 00 10	 or	 eax, 268435456		; 10000000H
  00852	89 45 f4	 mov	 DWORD PTR _d0$[ebp], eax
$LN66@joy_read:

; 403  : 			if(di_key[DIK_J] & 0x80) d0|=JOY_CTRL_J;

  00855	b8 01 00 00 00	 mov	 eax, 1
  0085a	6b c8 24	 imul	 ecx, eax, 36
  0085d	0f b6 91 00 00
	00 00		 movzx	 edx, BYTE PTR ?di_key@@3PAEA[ecx]
  00864	81 e2 80 00 00
	00		 and	 edx, 128		; 00000080H
  0086a	74 0b		 je	 SHORT $LN67@joy_read
  0086c	8b 45 f4	 mov	 eax, DWORD PTR _d0$[ebp]
  0086f	0d 00 00 00 01	 or	 eax, 16777216		; 01000000H
  00874	89 45 f4	 mov	 DWORD PTR _d0$[ebp], eax
$LN67@joy_read:

; 404  : 			if(di_key[DIK_Q] & 0x80) d0|=JOY_CTRL_Q;

  00877	b8 01 00 00 00	 mov	 eax, 1
  0087c	c1 e0 04	 shl	 eax, 4
  0087f	0f b6 88 00 00
	00 00		 movzx	 ecx, BYTE PTR ?di_key@@3PAEA[eax]
  00886	81 e1 80 00 00
	00		 and	 ecx, 128		; 00000080H
  0088c	74 0b		 je	 SHORT $LN68@joy_read
  0088e	8b 45 f4	 mov	 eax, DWORD PTR _d0$[ebp]
  00891	0d 00 00 00 20	 or	 eax, 536870912		; 20000000H
  00896	89 45 f4	 mov	 DWORD PTR _d0$[ebp], eax
$LN68@joy_read:

; 405  : 			if(di_key[DIK_W] & 0x80) d0|=JOY_CTRL_W;

  00899	b8 01 00 00 00	 mov	 eax, 1
  0089e	6b c8 11	 imul	 ecx, eax, 17
  008a1	0f b6 91 00 00
	00 00		 movzx	 edx, BYTE PTR ?di_key@@3PAEA[ecx]
  008a8	81 e2 80 00 00
	00		 and	 edx, 128		; 00000080H
  008ae	74 0b		 je	 SHORT $LN69@joy_read
  008b0	8b 45 f4	 mov	 eax, DWORD PTR _d0$[ebp]
  008b3	0d 00 00 00 40	 or	 eax, 1073741824		; 40000000H
  008b8	89 45 f4	 mov	 DWORD PTR _d0$[ebp], eax
$LN69@joy_read:

; 406  : 			if(di_key[DIK_G] & 0x80) d0|=JOY_CTRL_G;

  008bb	b8 01 00 00 00	 mov	 eax, 1
  008c0	6b c8 22	 imul	 ecx, eax, 34
  008c3	0f b6 91 00 00
	00 00		 movzx	 edx, BYTE PTR ?di_key@@3PAEA[ecx]
  008ca	81 e2 80 00 00
	00		 and	 edx, 128		; 00000080H
  008d0	74 0b		 je	 SHORT $LN70@joy_read
  008d2	8b 45 f4	 mov	 eax, DWORD PTR _d0$[ebp]
  008d5	0d 00 00 00 80	 or	 eax, -2147483648	; 80000000H
  008da	89 45 f4	 mov	 DWORD PTR _d0$[ebp], eax
$LN70@joy_read:

; 407  : 			
; 408  : 			// Robin 0607 channel
; 409  : 			if(di_key[DIK_C] & 0x80) d0|=JOY_CTRL_C;

  008dd	b8 01 00 00 00	 mov	 eax, 1
  008e2	6b c8 2e	 imul	 ecx, eax, 46
  008e5	0f b6 91 00 00
	00 00		 movzx	 edx, BYTE PTR ?di_key@@3PAEA[ecx]
  008ec	81 e2 80 00 00
	00		 and	 edx, 128		; 00000080H
  008f2	74 0b		 je	 SHORT $LN71@joy_read
  008f4	8b 45 f4	 mov	 eax, DWORD PTR _d0$[ebp]
  008f7	0d 00 00 00 01	 or	 eax, 16777216		; 01000000H
  008fc	89 45 f4	 mov	 DWORD PTR _d0$[ebp], eax
$LN71@joy_read:

; 410  : 
; 411  : 			#ifdef _TELLCHANNEL				//ROG ADD ÃÜÓïÆµµÀ
; 412  : 			if( di_key[DIK_R] & 0x80 ) d0|=JOY_CTRL_R;

  008ff	b8 01 00 00 00	 mov	 eax, 1
  00904	6b c8 13	 imul	 ecx, eax, 19
  00907	0f b6 91 00 00
	00 00		 movzx	 edx, BYTE PTR ?di_key@@3PAEA[ecx]
  0090e	81 e2 80 00 00
	00		 and	 edx, 128		; 00000080H
  00914	74 0b		 je	 SHORT $LN52@joy_read
  00916	8b 45 f4	 mov	 eax, DWORD PTR _d0$[ebp]
  00919	0d 00 00 00 80	 or	 eax, -2147483648	; 80000000H
  0091e	89 45 f4	 mov	 DWORD PTR _d0$[ebp], eax
$LN52@joy_read:

; 413  : 			#endif
; 414  : 
; 415  : 		}
; 416  : 		
; 417  : 		// ?????????
; 418  : 		//if(di_key[DIK_SYSRQ] & 0x80) d0|=JOY_PRINT_SCREEN;
; 419  : 		// ????
; 420  : 		if (di_key[DIK_TAB] & 0x80)

  00921	b8 01 00 00 00	 mov	 eax, 1
  00926	6b c8 0f	 imul	 ecx, eax, 15
  00929	0f b6 91 00 00
	00 00		 movzx	 edx, BYTE PTR ?di_key@@3PAEA[ecx]
  00930	81 e2 80 00 00
	00		 and	 edx, 128		; 00000080H
  00936	74 0b		 je	 SHORT $LN73@joy_read

; 421  : 		{
; 422  : 					d0 |= JOY_TAB;

  00938	8b 45 f4	 mov	 eax, DWORD PTR _d0$[ebp]
  0093b	0d 00 00 00 02	 or	 eax, 33554432		; 02000000H
  00940	89 45 f4	 mov	 DWORD PTR _d0$[ebp], eax
$LN73@joy_read:

; 423  : 		}
; 424  : 		// ?????
; 425  : 		if(di_key[DIK_RSHIFT] & 0x80) d0|=JOY_RSHIFT;

  00943	b8 01 00 00 00	 mov	 eax, 1
  00948	6b c8 36	 imul	 ecx, eax, 54
  0094b	0f b6 91 00 00
	00 00		 movzx	 edx, BYTE PTR ?di_key@@3PAEA[ecx]
  00952	81 e2 80 00 00
	00		 and	 edx, 128		; 00000080H
  00958	74 0b		 je	 SHORT $LN74@joy_read
  0095a	8b 45 f4	 mov	 eax, DWORD PTR _d0$[ebp]
  0095d	0d 00 00 00 04	 or	 eax, 67108864		; 04000000H
  00962	89 45 f4	 mov	 DWORD PTR _d0$[ebp], eax
$LN74@joy_read:

; 426  : 		if(di_key[DIK_LSHIFT] & 0x80) d0|=JOY_LSHIFT;

  00965	b8 01 00 00 00	 mov	 eax, 1
  0096a	6b c8 2a	 imul	 ecx, eax, 42
  0096d	0f b6 91 00 00
	00 00		 movzx	 edx, BYTE PTR ?di_key@@3PAEA[ecx]
  00974	81 e2 80 00 00
	00		 and	 edx, 128		; 00000080H
  0097a	74 0b		 je	 SHORT $LN75@joy_read
  0097c	8b 45 f4	 mov	 eax, DWORD PTR _d0$[ebp]
  0097f	0d 00 00 00 08	 or	 eax, 134217728		; 08000000H
  00984	89 45 f4	 mov	 DWORD PTR _d0$[ebp], eax
$LN75@joy_read:

; 427  : 		// ??????
; 428  : 		//if(di_key[DIK_RETURN] & 0x80) d0|=JOY_RETURN;
; 429  : 
; 430  : #ifdef _MIND_ICON		
; 431  : 		if( (pc.ptAct) && ((di_key[DIK_LMENU] & 0x80) || (di_key[DIK_RMENU] & 0x80)) && pc.ptAct->pYobi ){

  00987	83 3d ec 50 00
	00 00		 cmp	 DWORD PTR ?pc@@3UPC@@A+20716, 0
  0098e	0f 84 96 08 00
	00		 je	 $LN76@joy_read
  00994	b8 01 00 00 00	 mov	 eax, 1
  00999	6b c8 38	 imul	 ecx, eax, 56
  0099c	0f b6 91 00 00
	00 00		 movzx	 edx, BYTE PTR ?di_key@@3PAEA[ecx]
  009a3	81 e2 80 00 00
	00		 and	 edx, 128		; 00000080H
  009a9	75 1e		 jne	 SHORT $LN77@joy_read
  009ab	b8 01 00 00 00	 mov	 eax, 1
  009b0	69 c8 b8 00 00
	00		 imul	 ecx, eax, 184
  009b6	0f b6 91 00 00
	00 00		 movzx	 edx, BYTE PTR ?di_key@@3PAEA[ecx]
  009bd	81 e2 80 00 00
	00		 and	 edx, 128		; 00000080H
  009c3	0f 84 61 08 00
	00		 je	 $LN76@joy_read
$LN77@joy_read:
  009c9	a1 ec 50 00 00	 mov	 eax, DWORD PTR ?pc@@3UPC@@A+20716
  009ce	83 78 0c 00	 cmp	 DWORD PTR [eax+12], 0
  009d2	0f 84 52 08 00
	00		 je	 $LN76@joy_read

; 432  : 			CHAREXTRA *ext;	
; 433  : 			ext = (CHAREXTRA *)pc.ptAct->pYobi;

  009d8	a1 ec 50 00 00	 mov	 eax, DWORD PTR ?pc@@3UPC@@A+20716
  009dd	8b 48 0c	 mov	 ecx, DWORD PTR [eax+12]
  009e0	89 8d 60 ff ff
	ff		 mov	 DWORD PTR _ext$1[ebp], ecx

; 434  : 			if(!ext->ptMindIcon){

  009e6	8b 85 60 ff ff
	ff		 mov	 eax, DWORD PTR _ext$1[ebp]
  009ec	83 78 10 00	 cmp	 DWORD PTR [eax+16], 0
  009f0	0f 85 34 08 00
	00		 jne	 $LN76@joy_read

; 435  : 				if(!m_bt && (di_key[DIK_Q] & 0x80)){

  009f6	0f b6 05 00 00
	00 00		 movzx	 eax, BYTE PTR ?m_bt@@3_NA ; m_bt
  009fd	85 c0		 test	 eax, eax
  009ff	75 57		 jne	 SHORT $LN79@joy_read
  00a01	b8 01 00 00 00	 mov	 eax, 1
  00a06	c1 e0 04	 shl	 eax, 4
  00a09	0f b6 88 00 00
	00 00		 movzx	 ecx, BYTE PTR ?di_key@@3PAEA[eax]
  00a10	81 e1 80 00 00
	00		 and	 ecx, 128		; 00000080H
  00a16	74 40		 je	 SHORT $LN79@joy_read

; 436  : 					m_bt = true; setCharMind( pc.ptAct, SPR_heart);			    

  00a18	c6 05 00 00 00
	00 01		 mov	 BYTE PTR ?m_bt@@3_NA, 1	; m_bt
  00a1f	68 b0 8b 01 00	 push	 101296			; 00018bb0H
  00a24	a1 ec 50 00 00	 mov	 eax, DWORD PTR ?pc@@3UPC@@A+20716
  00a29	50		 push	 eax
  00a2a	e8 00 00 00 00	 call	 ?setCharMind@@YAXPAUaction@@H@Z ; setCharMind
  00a2f	83 c4 08	 add	 esp, 8

; 437  : 					lssproto_MA_send( sockfd, nowGx, nowGy, SPR_heart);

  00a32	68 b0 8b 01 00	 push	 101296			; 00018bb0H
  00a37	a1 00 00 00 00	 mov	 eax, DWORD PTR ?nowGy@@3HA ; nowGy
  00a3c	50		 push	 eax
  00a3d	8b 0d 00 00 00
	00		 mov	 ecx, DWORD PTR ?nowGx@@3HA ; nowGx
  00a43	51		 push	 ecx
  00a44	8b 15 00 00 00
	00		 mov	 edx, DWORD PTR ?sockfd@@3IA ; sockfd
  00a4a	52		 push	 edx
  00a4b	e8 00 00 00 00	 call	 ?lssproto_MA_send@@YAXHHHH@Z ; lssproto_MA_send
  00a50	83 c4 10	 add	 esp, 16			; 00000010H
  00a53	e9 18 06 00 00	 jmp	 $LN80@joy_read
$LN79@joy_read:

; 438  : 				}else if(!m_bt && (di_key[DIK_W] & 0x80)){

  00a58	0f b6 05 00 00
	00 00		 movzx	 eax, BYTE PTR ?m_bt@@3_NA ; m_bt
  00a5f	85 c0		 test	 eax, eax
  00a61	75 57		 jne	 SHORT $LN81@joy_read
  00a63	b8 01 00 00 00	 mov	 eax, 1
  00a68	6b c8 11	 imul	 ecx, eax, 17
  00a6b	0f b6 91 00 00
	00 00		 movzx	 edx, BYTE PTR ?di_key@@3PAEA[ecx]
  00a72	81 e2 80 00 00
	00		 and	 edx, 128		; 00000080H
  00a78	74 40		 je	 SHORT $LN81@joy_read

; 439  : 					m_bt = true; setCharMind( pc.ptAct, SPR_broken);				

  00a7a	c6 05 00 00 00
	00 01		 mov	 BYTE PTR ?m_bt@@3_NA, 1	; m_bt
  00a81	68 b1 8b 01 00	 push	 101297			; 00018bb1H
  00a86	a1 ec 50 00 00	 mov	 eax, DWORD PTR ?pc@@3UPC@@A+20716
  00a8b	50		 push	 eax
  00a8c	e8 00 00 00 00	 call	 ?setCharMind@@YAXPAUaction@@H@Z ; setCharMind
  00a91	83 c4 08	 add	 esp, 8

; 440  : 					lssproto_MA_send( sockfd, nowGx, nowGy, SPR_broken);

  00a94	68 b1 8b 01 00	 push	 101297			; 00018bb1H
  00a99	a1 00 00 00 00	 mov	 eax, DWORD PTR ?nowGy@@3HA ; nowGy
  00a9e	50		 push	 eax
  00a9f	8b 0d 00 00 00
	00		 mov	 ecx, DWORD PTR ?nowGx@@3HA ; nowGx
  00aa5	51		 push	 ecx
  00aa6	8b 15 00 00 00
	00		 mov	 edx, DWORD PTR ?sockfd@@3IA ; sockfd
  00aac	52		 push	 edx
  00aad	e8 00 00 00 00	 call	 ?lssproto_MA_send@@YAXHHHH@Z ; lssproto_MA_send
  00ab2	83 c4 10	 add	 esp, 16			; 00000010H
  00ab5	e9 b6 05 00 00	 jmp	 $LN80@joy_read
$LN81@joy_read:

; 441  : 				}else if(!m_bt && (di_key[DIK_E] & 0x80)){

  00aba	0f b6 05 00 00
	00 00		 movzx	 eax, BYTE PTR ?m_bt@@3_NA ; m_bt
  00ac1	85 c0		 test	 eax, eax
  00ac3	75 57		 jne	 SHORT $LN83@joy_read
  00ac5	b8 01 00 00 00	 mov	 eax, 1
  00aca	6b c8 12	 imul	 ecx, eax, 18
  00acd	0f b6 91 00 00
	00 00		 movzx	 edx, BYTE PTR ?di_key@@3PAEA[ecx]
  00ad4	81 e2 80 00 00
	00		 and	 edx, 128		; 00000080H
  00ada	74 40		 je	 SHORT $LN83@joy_read

; 442  : 					m_bt = true; setCharMind( pc.ptAct, SPR_m_clip);				

  00adc	c6 05 00 00 00
	00 01		 mov	 BYTE PTR ?m_bt@@3_NA, 1	; m_bt
  00ae3	68 b4 8b 01 00	 push	 101300			; 00018bb4H
  00ae8	a1 ec 50 00 00	 mov	 eax, DWORD PTR ?pc@@3UPC@@A+20716
  00aed	50		 push	 eax
  00aee	e8 00 00 00 00	 call	 ?setCharMind@@YAXPAUaction@@H@Z ; setCharMind
  00af3	83 c4 08	 add	 esp, 8

; 443  : 					lssproto_MA_send( sockfd, nowGx, nowGy, SPR_m_clip);

  00af6	68 b4 8b 01 00	 push	 101300			; 00018bb4H
  00afb	a1 00 00 00 00	 mov	 eax, DWORD PTR ?nowGy@@3HA ; nowGy
  00b00	50		 push	 eax
  00b01	8b 0d 00 00 00
	00		 mov	 ecx, DWORD PTR ?nowGx@@3HA ; nowGx
  00b07	51		 push	 ecx
  00b08	8b 15 00 00 00
	00		 mov	 edx, DWORD PTR ?sockfd@@3IA ; sockfd
  00b0e	52		 push	 edx
  00b0f	e8 00 00 00 00	 call	 ?lssproto_MA_send@@YAXHHHH@Z ; lssproto_MA_send
  00b14	83 c4 10	 add	 esp, 16			; 00000010H
  00b17	e9 54 05 00 00	 jmp	 $LN80@joy_read
$LN83@joy_read:

; 444  : 				}else if(!m_bt && (di_key[DIK_R] & 0x80)){

  00b1c	0f b6 05 00 00
	00 00		 movzx	 eax, BYTE PTR ?m_bt@@3_NA ; m_bt
  00b23	85 c0		 test	 eax, eax
  00b25	75 57		 jne	 SHORT $LN85@joy_read
  00b27	b8 01 00 00 00	 mov	 eax, 1
  00b2c	6b c8 13	 imul	 ecx, eax, 19
  00b2f	0f b6 91 00 00
	00 00		 movzx	 edx, BYTE PTR ?di_key@@3PAEA[ecx]
  00b36	81 e2 80 00 00
	00		 and	 edx, 128		; 00000080H
  00b3c	74 40		 je	 SHORT $LN85@joy_read

; 445  : 					m_bt = true; setCharMind( pc.ptAct, SPR_m_stone);				

  00b3e	c6 05 00 00 00
	00 01		 mov	 BYTE PTR ?m_bt@@3_NA, 1	; m_bt
  00b45	68 b5 8b 01 00	 push	 101301			; 00018bb5H
  00b4a	a1 ec 50 00 00	 mov	 eax, DWORD PTR ?pc@@3UPC@@A+20716
  00b4f	50		 push	 eax
  00b50	e8 00 00 00 00	 call	 ?setCharMind@@YAXPAUaction@@H@Z ; setCharMind
  00b55	83 c4 08	 add	 esp, 8

; 446  : 					lssproto_MA_send( sockfd, nowGx, nowGy, SPR_m_stone);

  00b58	68 b5 8b 01 00	 push	 101301			; 00018bb5H
  00b5d	a1 00 00 00 00	 mov	 eax, DWORD PTR ?nowGy@@3HA ; nowGy
  00b62	50		 push	 eax
  00b63	8b 0d 00 00 00
	00		 mov	 ecx, DWORD PTR ?nowGx@@3HA ; nowGx
  00b69	51		 push	 ecx
  00b6a	8b 15 00 00 00
	00		 mov	 edx, DWORD PTR ?sockfd@@3IA ; sockfd
  00b70	52		 push	 edx
  00b71	e8 00 00 00 00	 call	 ?lssproto_MA_send@@YAXHHHH@Z ; lssproto_MA_send
  00b76	83 c4 10	 add	 esp, 16			; 00000010H
  00b79	e9 f2 04 00 00	 jmp	 $LN80@joy_read
$LN85@joy_read:

; 447  : 				}else if(!m_bt && (di_key[DIK_T] & 0x80)){

  00b7e	0f b6 05 00 00
	00 00		 movzx	 eax, BYTE PTR ?m_bt@@3_NA ; m_bt
  00b85	85 c0		 test	 eax, eax
  00b87	75 57		 jne	 SHORT $LN87@joy_read
  00b89	b8 01 00 00 00	 mov	 eax, 1
  00b8e	6b c8 14	 imul	 ecx, eax, 20
  00b91	0f b6 91 00 00
	00 00		 movzx	 edx, BYTE PTR ?di_key@@3PAEA[ecx]
  00b98	81 e2 80 00 00
	00		 and	 edx, 128		; 00000080H
  00b9e	74 40		 je	 SHORT $LN87@joy_read

; 448  : 					m_bt = true; setCharMind( pc.ptAct, SPR_m_burlap);				

  00ba0	c6 05 00 00 00
	00 01		 mov	 BYTE PTR ?m_bt@@3_NA, 1	; m_bt
  00ba7	68 b6 8b 01 00	 push	 101302			; 00018bb6H
  00bac	a1 ec 50 00 00	 mov	 eax, DWORD PTR ?pc@@3UPC@@A+20716
  00bb1	50		 push	 eax
  00bb2	e8 00 00 00 00	 call	 ?setCharMind@@YAXPAUaction@@H@Z ; setCharMind
  00bb7	83 c4 08	 add	 esp, 8

; 449  : 					lssproto_MA_send( sockfd, nowGx, nowGy, SPR_m_burlap);

  00bba	68 b6 8b 01 00	 push	 101302			; 00018bb6H
  00bbf	a1 00 00 00 00	 mov	 eax, DWORD PTR ?nowGy@@3HA ; nowGy
  00bc4	50		 push	 eax
  00bc5	8b 0d 00 00 00
	00		 mov	 ecx, DWORD PTR ?nowGx@@3HA ; nowGx
  00bcb	51		 push	 ecx
  00bcc	8b 15 00 00 00
	00		 mov	 edx, DWORD PTR ?sockfd@@3IA ; sockfd
  00bd2	52		 push	 edx
  00bd3	e8 00 00 00 00	 call	 ?lssproto_MA_send@@YAXHHHH@Z ; lssproto_MA_send
  00bd8	83 c4 10	 add	 esp, 16			; 00000010H
  00bdb	e9 90 04 00 00	 jmp	 $LN80@joy_read
$LN87@joy_read:

; 450  : 				}else if(!m_bt && (di_key[DIK_Y] & 0x80)){

  00be0	0f b6 05 00 00
	00 00		 movzx	 eax, BYTE PTR ?m_bt@@3_NA ; m_bt
  00be7	85 c0		 test	 eax, eax
  00be9	75 57		 jne	 SHORT $LN89@joy_read
  00beb	b8 01 00 00 00	 mov	 eax, 1
  00bf0	6b c8 15	 imul	 ecx, eax, 21
  00bf3	0f b6 91 00 00
	00 00		 movzx	 edx, BYTE PTR ?di_key@@3PAEA[ecx]
  00bfa	81 e2 80 00 00
	00		 and	 edx, 128		; 00000080H
  00c00	74 40		 je	 SHORT $LN89@joy_read

; 451  : 					m_bt = true; setCharMind( pc.ptAct, SPR_screamer);				

  00c02	c6 05 00 00 00
	00 01		 mov	 BYTE PTR ?m_bt@@3_NA, 1	; m_bt
  00c09	68 b3 8b 01 00	 push	 101299			; 00018bb3H
  00c0e	a1 ec 50 00 00	 mov	 eax, DWORD PTR ?pc@@3UPC@@A+20716
  00c13	50		 push	 eax
  00c14	e8 00 00 00 00	 call	 ?setCharMind@@YAXPAUaction@@H@Z ; setCharMind
  00c19	83 c4 08	 add	 esp, 8

; 452  : 					lssproto_MA_send( sockfd, nowGx, nowGy, SPR_screamer);

  00c1c	68 b3 8b 01 00	 push	 101299			; 00018bb3H
  00c21	a1 00 00 00 00	 mov	 eax, DWORD PTR ?nowGy@@3HA ; nowGy
  00c26	50		 push	 eax
  00c27	8b 0d 00 00 00
	00		 mov	 ecx, DWORD PTR ?nowGx@@3HA ; nowGx
  00c2d	51		 push	 ecx
  00c2e	8b 15 00 00 00
	00		 mov	 edx, DWORD PTR ?sockfd@@3IA ; sockfd
  00c34	52		 push	 edx
  00c35	e8 00 00 00 00	 call	 ?lssproto_MA_send@@YAXHHHH@Z ; lssproto_MA_send
  00c3a	83 c4 10	 add	 esp, 16			; 00000010H
  00c3d	e9 2e 04 00 00	 jmp	 $LN80@joy_read
$LN89@joy_read:

; 453  : 				}else if(!m_bt && (di_key[DIK_U] & 0x80)){

  00c42	0f b6 05 00 00
	00 00		 movzx	 eax, BYTE PTR ?m_bt@@3_NA ; m_bt
  00c49	85 c0		 test	 eax, eax
  00c4b	75 57		 jne	 SHORT $LN91@joy_read
  00c4d	b8 01 00 00 00	 mov	 eax, 1
  00c52	6b c8 16	 imul	 ecx, eax, 22
  00c55	0f b6 91 00 00
	00 00		 movzx	 edx, BYTE PTR ?di_key@@3PAEA[ecx]
  00c5c	81 e2 80 00 00
	00		 and	 edx, 128		; 00000080H
  00c62	74 40		 je	 SHORT $LN91@joy_read

; 454  : 					m_bt = true; setCharMind( pc.ptAct, SPR_question_mark);				

  00c64	c6 05 00 00 00
	00 01		 mov	 BYTE PTR ?m_bt@@3_NA, 1	; m_bt
  00c6b	68 a9 8b 01 00	 push	 101289			; 00018ba9H
  00c70	a1 ec 50 00 00	 mov	 eax, DWORD PTR ?pc@@3UPC@@A+20716
  00c75	50		 push	 eax
  00c76	e8 00 00 00 00	 call	 ?setCharMind@@YAXPAUaction@@H@Z ; setCharMind
  00c7b	83 c4 08	 add	 esp, 8

; 455  : 					lssproto_MA_send( sockfd, nowGx, nowGy, SPR_question_mark);

  00c7e	68 a9 8b 01 00	 push	 101289			; 00018ba9H
  00c83	a1 00 00 00 00	 mov	 eax, DWORD PTR ?nowGy@@3HA ; nowGy
  00c88	50		 push	 eax
  00c89	8b 0d 00 00 00
	00		 mov	 ecx, DWORD PTR ?nowGx@@3HA ; nowGx
  00c8f	51		 push	 ecx
  00c90	8b 15 00 00 00
	00		 mov	 edx, DWORD PTR ?sockfd@@3IA ; sockfd
  00c96	52		 push	 edx
  00c97	e8 00 00 00 00	 call	 ?lssproto_MA_send@@YAXHHHH@Z ; lssproto_MA_send
  00c9c	83 c4 10	 add	 esp, 16			; 00000010H
  00c9f	e9 cc 03 00 00	 jmp	 $LN80@joy_read
$LN91@joy_read:

; 456  : 				}else if(!m_bt && (di_key[DIK_I] & 0x80)){

  00ca4	0f b6 05 00 00
	00 00		 movzx	 eax, BYTE PTR ?m_bt@@3_NA ; m_bt
  00cab	85 c0		 test	 eax, eax
  00cad	75 57		 jne	 SHORT $LN93@joy_read
  00caf	b8 01 00 00 00	 mov	 eax, 1
  00cb4	6b c8 17	 imul	 ecx, eax, 23
  00cb7	0f b6 91 00 00
	00 00		 movzx	 edx, BYTE PTR ?di_key@@3PAEA[ecx]
  00cbe	81 e2 80 00 00
	00		 and	 edx, 128		; 00000080H
  00cc4	74 40		 je	 SHORT $LN93@joy_read

; 457  : 					m_bt = true; setCharMind( pc.ptAct, SPR_cramp);				

  00cc6	c6 05 00 00 00
	00 01		 mov	 BYTE PTR ?m_bt@@3_NA, 1	; m_bt
  00ccd	68 ac 8b 01 00	 push	 101292			; 00018bacH
  00cd2	a1 ec 50 00 00	 mov	 eax, DWORD PTR ?pc@@3UPC@@A+20716
  00cd7	50		 push	 eax
  00cd8	e8 00 00 00 00	 call	 ?setCharMind@@YAXPAUaction@@H@Z ; setCharMind
  00cdd	83 c4 08	 add	 esp, 8

; 458  : 					lssproto_MA_send( sockfd, nowGx, nowGy, SPR_cramp);

  00ce0	68 ac 8b 01 00	 push	 101292			; 00018bacH
  00ce5	a1 00 00 00 00	 mov	 eax, DWORD PTR ?nowGy@@3HA ; nowGy
  00cea	50		 push	 eax
  00ceb	8b 0d 00 00 00
	00		 mov	 ecx, DWORD PTR ?nowGx@@3HA ; nowGx
  00cf1	51		 push	 ecx
  00cf2	8b 15 00 00 00
	00		 mov	 edx, DWORD PTR ?sockfd@@3IA ; sockfd
  00cf8	52		 push	 edx
  00cf9	e8 00 00 00 00	 call	 ?lssproto_MA_send@@YAXHHHH@Z ; lssproto_MA_send
  00cfe	83 c4 10	 add	 esp, 16			; 00000010H
  00d01	e9 6a 03 00 00	 jmp	 $LN80@joy_read
$LN93@joy_read:

; 459  : 				}else if(!m_bt && (di_key[DIK_O] & 0x80)){

  00d06	0f b6 05 00 00
	00 00		 movzx	 eax, BYTE PTR ?m_bt@@3_NA ; m_bt
  00d0d	85 c0		 test	 eax, eax
  00d0f	75 57		 jne	 SHORT $LN95@joy_read
  00d11	b8 01 00 00 00	 mov	 eax, 1
  00d16	6b c8 18	 imul	 ecx, eax, 24
  00d19	0f b6 91 00 00
	00 00		 movzx	 edx, BYTE PTR ?di_key@@3PAEA[ecx]
  00d20	81 e2 80 00 00
	00		 and	 edx, 128		; 00000080H
  00d26	74 40		 je	 SHORT $LN95@joy_read

; 460  : 					m_bt = true; setCharMind( pc.ptAct, SPR_black_squall);				

  00d28	c6 05 00 00 00
	00 01		 mov	 BYTE PTR ?m_bt@@3_NA, 1	; m_bt
  00d2f	68 ad 8b 01 00	 push	 101293			; 00018badH
  00d34	a1 ec 50 00 00	 mov	 eax, DWORD PTR ?pc@@3UPC@@A+20716
  00d39	50		 push	 eax
  00d3a	e8 00 00 00 00	 call	 ?setCharMind@@YAXPAUaction@@H@Z ; setCharMind
  00d3f	83 c4 08	 add	 esp, 8

; 461  : 					lssproto_MA_send( sockfd, nowGx, nowGy, SPR_black_squall);

  00d42	68 ad 8b 01 00	 push	 101293			; 00018badH
  00d47	a1 00 00 00 00	 mov	 eax, DWORD PTR ?nowGy@@3HA ; nowGy
  00d4c	50		 push	 eax
  00d4d	8b 0d 00 00 00
	00		 mov	 ecx, DWORD PTR ?nowGx@@3HA ; nowGx
  00d53	51		 push	 ecx
  00d54	8b 15 00 00 00
	00		 mov	 edx, DWORD PTR ?sockfd@@3IA ; sockfd
  00d5a	52		 push	 edx
  00d5b	e8 00 00 00 00	 call	 ?lssproto_MA_send@@YAXHHHH@Z ; lssproto_MA_send
  00d60	83 c4 10	 add	 esp, 16			; 00000010H
  00d63	e9 08 03 00 00	 jmp	 $LN80@joy_read
$LN95@joy_read:

; 462  : 				}else if(!m_bt && (di_key[DIK_P] & 0x80)){

  00d68	0f b6 05 00 00
	00 00		 movzx	 eax, BYTE PTR ?m_bt@@3_NA ; m_bt
  00d6f	85 c0		 test	 eax, eax
  00d71	75 57		 jne	 SHORT $LN97@joy_read
  00d73	b8 01 00 00 00	 mov	 eax, 1
  00d78	6b c8 19	 imul	 ecx, eax, 25
  00d7b	0f b6 91 00 00
	00 00		 movzx	 edx, BYTE PTR ?di_key@@3PAEA[ecx]
  00d82	81 e2 80 00 00
	00		 and	 edx, 128		; 00000080H
  00d88	74 40		 je	 SHORT $LN97@joy_read

; 463  : 					m_bt = true; setCharMind( pc.ptAct, SPR_perspiration);				

  00d8a	c6 05 00 00 00
	00 01		 mov	 BYTE PTR ?m_bt@@3_NA, 1	; m_bt
  00d91	68 b2 8b 01 00	 push	 101298			; 00018bb2H
  00d96	a1 ec 50 00 00	 mov	 eax, DWORD PTR ?pc@@3UPC@@A+20716
  00d9b	50		 push	 eax
  00d9c	e8 00 00 00 00	 call	 ?setCharMind@@YAXPAUaction@@H@Z ; setCharMind
  00da1	83 c4 08	 add	 esp, 8

; 464  : 					lssproto_MA_send( sockfd, nowGx, nowGy, SPR_perspiration);

  00da4	68 b2 8b 01 00	 push	 101298			; 00018bb2H
  00da9	a1 00 00 00 00	 mov	 eax, DWORD PTR ?nowGy@@3HA ; nowGy
  00dae	50		 push	 eax
  00daf	8b 0d 00 00 00
	00		 mov	 ecx, DWORD PTR ?nowGx@@3HA ; nowGx
  00db5	51		 push	 ecx
  00db6	8b 15 00 00 00
	00		 mov	 edx, DWORD PTR ?sockfd@@3IA ; sockfd
  00dbc	52		 push	 edx
  00dbd	e8 00 00 00 00	 call	 ?lssproto_MA_send@@YAXHHHH@Z ; lssproto_MA_send
  00dc2	83 c4 10	 add	 esp, 16			; 00000010H
  00dc5	e9 a6 02 00 00	 jmp	 $LN80@joy_read
$LN97@joy_read:

; 465  : 				}else if(!m_bt && (di_key[DIK_A] & 0x80)){

  00dca	0f b6 05 00 00
	00 00		 movzx	 eax, BYTE PTR ?m_bt@@3_NA ; m_bt
  00dd1	85 c0		 test	 eax, eax
  00dd3	75 57		 jne	 SHORT $LN99@joy_read
  00dd5	b8 01 00 00 00	 mov	 eax, 1
  00dda	6b c8 1e	 imul	 ecx, eax, 30
  00ddd	0f b6 91 00 00
	00 00		 movzx	 edx, BYTE PTR ?di_key@@3PAEA[ecx]
  00de4	81 e2 80 00 00
	00		 and	 edx, 128		; 00000080H
  00dea	74 40		 je	 SHORT $LN99@joy_read

; 466  : 					m_bt = true; setCharMind( pc.ptAct, SPR_silence);				

  00dec	c6 05 00 00 00
	00 01		 mov	 BYTE PTR ?m_bt@@3_NA, 1	; m_bt
  00df3	68 ab 8b 01 00	 push	 101291			; 00018babH
  00df8	a1 ec 50 00 00	 mov	 eax, DWORD PTR ?pc@@3UPC@@A+20716
  00dfd	50		 push	 eax
  00dfe	e8 00 00 00 00	 call	 ?setCharMind@@YAXPAUaction@@H@Z ; setCharMind
  00e03	83 c4 08	 add	 esp, 8

; 467  : 					lssproto_MA_send( sockfd, nowGx, nowGy, SPR_silence);

  00e06	68 ab 8b 01 00	 push	 101291			; 00018babH
  00e0b	a1 00 00 00 00	 mov	 eax, DWORD PTR ?nowGy@@3HA ; nowGy
  00e10	50		 push	 eax
  00e11	8b 0d 00 00 00
	00		 mov	 ecx, DWORD PTR ?nowGx@@3HA ; nowGx
  00e17	51		 push	 ecx
  00e18	8b 15 00 00 00
	00		 mov	 edx, DWORD PTR ?sockfd@@3IA ; sockfd
  00e1e	52		 push	 edx
  00e1f	e8 00 00 00 00	 call	 ?lssproto_MA_send@@YAXHHHH@Z ; lssproto_MA_send
  00e24	83 c4 10	 add	 esp, 16			; 00000010H
  00e27	e9 44 02 00 00	 jmp	 $LN80@joy_read
$LN99@joy_read:

; 468  : 				}else if(!m_bt && (di_key[DIK_S] & 0x80)){

  00e2c	0f b6 05 00 00
	00 00		 movzx	 eax, BYTE PTR ?m_bt@@3_NA ; m_bt
  00e33	85 c0		 test	 eax, eax
  00e35	75 57		 jne	 SHORT $LN101@joy_read
  00e37	b8 01 00 00 00	 mov	 eax, 1
  00e3c	6b c8 1f	 imul	 ecx, eax, 31
  00e3f	0f b6 91 00 00
	00 00		 movzx	 edx, BYTE PTR ?di_key@@3PAEA[ecx]
  00e46	81 e2 80 00 00
	00		 and	 edx, 128		; 00000080H
  00e4c	74 40		 je	 SHORT $LN101@joy_read

; 469  : 					m_bt = true; setCharMind( pc.ptAct, SPR_asleep);				

  00e4e	c6 05 00 00 00
	00 01		 mov	 BYTE PTR ?m_bt@@3_NA, 1	; m_bt
  00e55	68 aa 8b 01 00	 push	 101290			; 00018baaH
  00e5a	a1 ec 50 00 00	 mov	 eax, DWORD PTR ?pc@@3UPC@@A+20716
  00e5f	50		 push	 eax
  00e60	e8 00 00 00 00	 call	 ?setCharMind@@YAXPAUaction@@H@Z ; setCharMind
  00e65	83 c4 08	 add	 esp, 8

; 470  : 					lssproto_MA_send( sockfd, nowGx, nowGy, SPR_asleep);

  00e68	68 aa 8b 01 00	 push	 101290			; 00018baaH
  00e6d	a1 00 00 00 00	 mov	 eax, DWORD PTR ?nowGy@@3HA ; nowGy
  00e72	50		 push	 eax
  00e73	8b 0d 00 00 00
	00		 mov	 ecx, DWORD PTR ?nowGx@@3HA ; nowGx
  00e79	51		 push	 ecx
  00e7a	8b 15 00 00 00
	00		 mov	 edx, DWORD PTR ?sockfd@@3IA ; sockfd
  00e80	52		 push	 edx
  00e81	e8 00 00 00 00	 call	 ?lssproto_MA_send@@YAXHHHH@Z ; lssproto_MA_send
  00e86	83 c4 10	 add	 esp, 16			; 00000010H
  00e89	e9 e2 01 00 00	 jmp	 $LN80@joy_read
$LN101@joy_read:

; 471  : 				}else if(!m_bt && (di_key[DIK_D] & 0x80)){

  00e8e	0f b6 05 00 00
	00 00		 movzx	 eax, BYTE PTR ?m_bt@@3_NA ; m_bt
  00e95	85 c0		 test	 eax, eax
  00e97	75 57		 jne	 SHORT $LN103@joy_read
  00e99	b8 01 00 00 00	 mov	 eax, 1
  00e9e	c1 e0 05	 shl	 eax, 5
  00ea1	0f b6 88 00 00
	00 00		 movzx	 ecx, BYTE PTR ?di_key@@3PAEA[eax]
  00ea8	81 e1 80 00 00
	00		 and	 ecx, 128		; 00000080H
  00eae	74 40		 je	 SHORT $LN103@joy_read

; 472  : 					m_bt = true; setCharMind( pc.ptAct, SPR_cafe);				

  00eb0	c6 05 00 00 00
	00 01		 mov	 BYTE PTR ?m_bt@@3_NA, 1	; m_bt
  00eb7	68 ae 8b 01 00	 push	 101294			; 00018baeH
  00ebc	a1 ec 50 00 00	 mov	 eax, DWORD PTR ?pc@@3UPC@@A+20716
  00ec1	50		 push	 eax
  00ec2	e8 00 00 00 00	 call	 ?setCharMind@@YAXPAUaction@@H@Z ; setCharMind
  00ec7	83 c4 08	 add	 esp, 8

; 473  : 					lssproto_MA_send( sockfd, nowGx, nowGy, SPR_cafe);

  00eca	68 ae 8b 01 00	 push	 101294			; 00018baeH
  00ecf	a1 00 00 00 00	 mov	 eax, DWORD PTR ?nowGy@@3HA ; nowGy
  00ed4	50		 push	 eax
  00ed5	8b 0d 00 00 00
	00		 mov	 ecx, DWORD PTR ?nowGx@@3HA ; nowGx
  00edb	51		 push	 ecx
  00edc	8b 15 00 00 00
	00		 mov	 edx, DWORD PTR ?sockfd@@3IA ; sockfd
  00ee2	52		 push	 edx
  00ee3	e8 00 00 00 00	 call	 ?lssproto_MA_send@@YAXHHHH@Z ; lssproto_MA_send
  00ee8	83 c4 10	 add	 esp, 16			; 00000010H
  00eeb	e9 80 01 00 00	 jmp	 $LN80@joy_read
$LN103@joy_read:

; 474  : 				}else if(!m_bt && (di_key[DIK_F] & 0x80)){

  00ef0	0f b6 05 00 00
	00 00		 movzx	 eax, BYTE PTR ?m_bt@@3_NA ; m_bt
  00ef7	85 c0		 test	 eax, eax
  00ef9	75 57		 jne	 SHORT $LN105@joy_read
  00efb	b8 01 00 00 00	 mov	 eax, 1
  00f00	6b c8 21	 imul	 ecx, eax, 33
  00f03	0f b6 91 00 00
	00 00		 movzx	 edx, BYTE PTR ?di_key@@3PAEA[ecx]
  00f0a	81 e2 80 00 00
	00		 and	 edx, 128		; 00000080H
  00f10	74 40		 je	 SHORT $LN105@joy_read

; 475  : 					m_bt = true; setCharMind( pc.ptAct, SPR_lightbulb);				

  00f12	c6 05 00 00 00
	00 01		 mov	 BYTE PTR ?m_bt@@3_NA, 1	; m_bt
  00f19	68 af 8b 01 00	 push	 101295			; 00018bafH
  00f1e	a1 ec 50 00 00	 mov	 eax, DWORD PTR ?pc@@3UPC@@A+20716
  00f23	50		 push	 eax
  00f24	e8 00 00 00 00	 call	 ?setCharMind@@YAXPAUaction@@H@Z ; setCharMind
  00f29	83 c4 08	 add	 esp, 8

; 476  : 					lssproto_MA_send( sockfd, nowGx, nowGy, SPR_lightbulb);

  00f2c	68 af 8b 01 00	 push	 101295			; 00018bafH
  00f31	a1 00 00 00 00	 mov	 eax, DWORD PTR ?nowGy@@3HA ; nowGy
  00f36	50		 push	 eax
  00f37	8b 0d 00 00 00
	00		 mov	 ecx, DWORD PTR ?nowGx@@3HA ; nowGx
  00f3d	51		 push	 ecx
  00f3e	8b 15 00 00 00
	00		 mov	 edx, DWORD PTR ?sockfd@@3IA ; sockfd
  00f44	52		 push	 edx
  00f45	e8 00 00 00 00	 call	 ?lssproto_MA_send@@YAXHHHH@Z ; lssproto_MA_send
  00f4a	83 c4 10	 add	 esp, 16			; 00000010H
  00f4d	e9 1e 01 00 00	 jmp	 $LN80@joy_read
$LN105@joy_read:

; 477  : 				}else if(!m_bt && (di_key[DIK_G] & 0x80)){

  00f52	0f b6 05 00 00
	00 00		 movzx	 eax, BYTE PTR ?m_bt@@3_NA ; m_bt
  00f59	85 c0		 test	 eax, eax
  00f5b	75 57		 jne	 SHORT $LN107@joy_read
  00f5d	b8 01 00 00 00	 mov	 eax, 1
  00f62	6b c8 22	 imul	 ecx, eax, 34
  00f65	0f b6 91 00 00
	00 00		 movzx	 edx, BYTE PTR ?di_key@@3PAEA[ecx]
  00f6c	81 e2 80 00 00
	00		 and	 edx, 128		; 00000080H
  00f72	74 40		 je	 SHORT $LN107@joy_read

; 478  : 					m_bt = true; setCharMind( pc.ptAct, SPR_accent);				

  00f74	c6 05 00 00 00
	00 01		 mov	 BYTE PTR ?m_bt@@3_NA, 1	; m_bt
  00f7b	68 a8 8b 01 00	 push	 101288			; 00018ba8H
  00f80	a1 ec 50 00 00	 mov	 eax, DWORD PTR ?pc@@3UPC@@A+20716
  00f85	50		 push	 eax
  00f86	e8 00 00 00 00	 call	 ?setCharMind@@YAXPAUaction@@H@Z ; setCharMind
  00f8b	83 c4 08	 add	 esp, 8

; 479  : 					lssproto_MA_send( sockfd, nowGx, nowGy, SPR_accent);

  00f8e	68 a8 8b 01 00	 push	 101288			; 00018ba8H
  00f93	a1 00 00 00 00	 mov	 eax, DWORD PTR ?nowGy@@3HA ; nowGy
  00f98	50		 push	 eax
  00f99	8b 0d 00 00 00
	00		 mov	 ecx, DWORD PTR ?nowGx@@3HA ; nowGx
  00f9f	51		 push	 ecx
  00fa0	8b 15 00 00 00
	00		 mov	 edx, DWORD PTR ?sockfd@@3IA ; sockfd
  00fa6	52		 push	 edx
  00fa7	e8 00 00 00 00	 call	 ?lssproto_MA_send@@YAXHHHH@Z ; lssproto_MA_send
  00fac	83 c4 10	 add	 esp, 16			; 00000010H
  00faf	e9 bc 00 00 00	 jmp	 $LN80@joy_read
$LN107@joy_read:

; 480  : 				}else if(!m_bt && (di_key[DIK_H] & 0x80)){

  00fb4	0f b6 05 00 00
	00 00		 movzx	 eax, BYTE PTR ?m_bt@@3_NA ; m_bt
  00fbb	85 c0		 test	 eax, eax
  00fbd	75 54		 jne	 SHORT $LN109@joy_read
  00fbf	b8 01 00 00 00	 mov	 eax, 1
  00fc4	6b c8 23	 imul	 ecx, eax, 35
  00fc7	0f b6 91 00 00
	00 00		 movzx	 edx, BYTE PTR ?di_key@@3PAEA[ecx]
  00fce	81 e2 80 00 00
	00		 and	 edx, 128		; 00000080H
  00fd4	74 3d		 je	 SHORT $LN109@joy_read

; 481  : 					m_bt = true; setCharMind( pc.ptAct, SPR_money);				

  00fd6	c6 05 00 00 00
	00 01		 mov	 BYTE PTR ?m_bt@@3_NA, 1	; m_bt
  00fdd	68 b7 8b 01 00	 push	 101303			; 00018bb7H
  00fe2	a1 ec 50 00 00	 mov	 eax, DWORD PTR ?pc@@3UPC@@A+20716
  00fe7	50		 push	 eax
  00fe8	e8 00 00 00 00	 call	 ?setCharMind@@YAXPAUaction@@H@Z ; setCharMind
  00fed	83 c4 08	 add	 esp, 8

; 482  : 					lssproto_MA_send( sockfd, nowGx, nowGy, SPR_money);

  00ff0	68 b7 8b 01 00	 push	 101303			; 00018bb7H
  00ff5	a1 00 00 00 00	 mov	 eax, DWORD PTR ?nowGy@@3HA ; nowGy
  00ffa	50		 push	 eax
  00ffb	8b 0d 00 00 00
	00		 mov	 ecx, DWORD PTR ?nowGx@@3HA ; nowGx
  01001	51		 push	 ecx
  01002	8b 15 00 00 00
	00		 mov	 edx, DWORD PTR ?sockfd@@3IA ; sockfd
  01008	52		 push	 edx
  01009	e8 00 00 00 00	 call	 ?lssproto_MA_send@@YAXHHHH@Z ; lssproto_MA_send
  0100e	83 c4 10	 add	 esp, 16			; 00000010H
  01011	eb 5d		 jmp	 SHORT $LN80@joy_read
$LN109@joy_read:

; 483  : 				}else if(!m_bt && (di_key[DIK_J] & 0x80)){

  01013	0f b6 05 00 00
	00 00		 movzx	 eax, BYTE PTR ?m_bt@@3_NA ; m_bt
  0101a	85 c0		 test	 eax, eax
  0101c	75 52		 jne	 SHORT $LN80@joy_read
  0101e	b8 01 00 00 00	 mov	 eax, 1
  01023	6b c8 24	 imul	 ecx, eax, 36
  01026	0f b6 91 00 00
	00 00		 movzx	 edx, BYTE PTR ?di_key@@3PAEA[ecx]
  0102d	81 e2 80 00 00
	00		 and	 edx, 128		; 00000080H
  01033	74 3b		 je	 SHORT $LN80@joy_read

; 484  : 					m_bt = true; setCharMind( pc.ptAct, SPR_pk);				

  01035	c6 05 00 00 00
	00 01		 mov	 BYTE PTR ?m_bt@@3_NA, 1	; m_bt
  0103c	68 b8 8b 01 00	 push	 101304			; 00018bb8H
  01041	a1 ec 50 00 00	 mov	 eax, DWORD PTR ?pc@@3UPC@@A+20716
  01046	50		 push	 eax
  01047	e8 00 00 00 00	 call	 ?setCharMind@@YAXPAUaction@@H@Z ; setCharMind
  0104c	83 c4 08	 add	 esp, 8

; 485  : 					lssproto_MA_send( sockfd, nowGx, nowGy, SPR_pk);

  0104f	68 b8 8b 01 00	 push	 101304			; 00018bb8H
  01054	a1 00 00 00 00	 mov	 eax, DWORD PTR ?nowGy@@3HA ; nowGy
  01059	50		 push	 eax
  0105a	8b 0d 00 00 00
	00		 mov	 ecx, DWORD PTR ?nowGx@@3HA ; nowGx
  01060	51		 push	 ecx
  01061	8b 15 00 00 00
	00		 mov	 edx, DWORD PTR ?sockfd@@3IA ; sockfd
  01067	52		 push	 edx
  01068	e8 00 00 00 00	 call	 ?lssproto_MA_send@@YAXHHHH@Z ; lssproto_MA_send
  0106d	83 c4 10	 add	 esp, 16			; 00000010H
$LN80@joy_read:

; 486  : 				}
; 487  : 				if(!(di_key[0x10]&0x80) && !(di_key[0x11]&0x80) && !(di_key[0x12]&0x80) &&
; 488  : 				   !(di_key[0x13]&0x80) && !(di_key[0x14]&0x80) && !(di_key[0x15]&0x80) &&
; 489  : 				   !(di_key[0x16]&0x80) && !(di_key[0x17]&0x80) && !(di_key[0x18]&0x80) &&
; 490  : 				   !(di_key[0x19]&0x80) && !(di_key[0x1E]&0x80) && !(di_key[0x1F]&0x80) &&
; 491  : 				   !(di_key[0x20]&0x80) && !(di_key[0x21]&0x80) && !(di_key[0x22]&0x80) &&
; 492  : 				   !(di_key[0x23]&0x80) && !(di_key[0x24]&0x80)

  01070	b8 01 00 00 00	 mov	 eax, 1
  01075	c1 e0 04	 shl	 eax, 4
  01078	0f b6 88 00 00
	00 00		 movzx	 ecx, BYTE PTR ?di_key@@3PAEA[eax]
  0107f	81 e1 80 00 00
	00		 and	 ecx, 128		; 00000080H
  01085	0f 85 9f 01 00
	00		 jne	 $LN76@joy_read
  0108b	b8 01 00 00 00	 mov	 eax, 1
  01090	6b c8 11	 imul	 ecx, eax, 17
  01093	0f b6 91 00 00
	00 00		 movzx	 edx, BYTE PTR ?di_key@@3PAEA[ecx]
  0109a	81 e2 80 00 00
	00		 and	 edx, 128		; 00000080H
  010a0	0f 85 84 01 00
	00		 jne	 $LN76@joy_read
  010a6	b8 01 00 00 00	 mov	 eax, 1
  010ab	6b c8 12	 imul	 ecx, eax, 18
  010ae	0f b6 91 00 00
	00 00		 movzx	 edx, BYTE PTR ?di_key@@3PAEA[ecx]
  010b5	81 e2 80 00 00
	00		 and	 edx, 128		; 00000080H
  010bb	0f 85 69 01 00
	00		 jne	 $LN76@joy_read
  010c1	b8 01 00 00 00	 mov	 eax, 1
  010c6	6b c8 13	 imul	 ecx, eax, 19
  010c9	0f b6 91 00 00
	00 00		 movzx	 edx, BYTE PTR ?di_key@@3PAEA[ecx]
  010d0	81 e2 80 00 00
	00		 and	 edx, 128		; 00000080H
  010d6	0f 85 4e 01 00
	00		 jne	 $LN76@joy_read
  010dc	b8 01 00 00 00	 mov	 eax, 1
  010e1	6b c8 14	 imul	 ecx, eax, 20
  010e4	0f b6 91 00 00
	00 00		 movzx	 edx, BYTE PTR ?di_key@@3PAEA[ecx]
  010eb	81 e2 80 00 00
	00		 and	 edx, 128		; 00000080H
  010f1	0f 85 33 01 00
	00		 jne	 $LN76@joy_read
  010f7	b8 01 00 00 00	 mov	 eax, 1
  010fc	6b c8 15	 imul	 ecx, eax, 21
  010ff	0f b6 91 00 00
	00 00		 movzx	 edx, BYTE PTR ?di_key@@3PAEA[ecx]
  01106	81 e2 80 00 00
	00		 and	 edx, 128		; 00000080H
  0110c	0f 85 18 01 00
	00		 jne	 $LN76@joy_read
  01112	b8 01 00 00 00	 mov	 eax, 1
  01117	6b c8 16	 imul	 ecx, eax, 22
  0111a	0f b6 91 00 00
	00 00		 movzx	 edx, BYTE PTR ?di_key@@3PAEA[ecx]
  01121	81 e2 80 00 00
	00		 and	 edx, 128		; 00000080H
  01127	0f 85 fd 00 00
	00		 jne	 $LN76@joy_read
  0112d	b8 01 00 00 00	 mov	 eax, 1
  01132	6b c8 17	 imul	 ecx, eax, 23
  01135	0f b6 91 00 00
	00 00		 movzx	 edx, BYTE PTR ?di_key@@3PAEA[ecx]
  0113c	81 e2 80 00 00
	00		 and	 edx, 128		; 00000080H
  01142	0f 85 e2 00 00
	00		 jne	 $LN76@joy_read
  01148	b8 01 00 00 00	 mov	 eax, 1
  0114d	6b c8 18	 imul	 ecx, eax, 24
  01150	0f b6 91 00 00
	00 00		 movzx	 edx, BYTE PTR ?di_key@@3PAEA[ecx]
  01157	81 e2 80 00 00
	00		 and	 edx, 128		; 00000080H
  0115d	0f 85 c7 00 00
	00		 jne	 $LN76@joy_read
  01163	b8 01 00 00 00	 mov	 eax, 1
  01168	6b c8 19	 imul	 ecx, eax, 25
  0116b	0f b6 91 00 00
	00 00		 movzx	 edx, BYTE PTR ?di_key@@3PAEA[ecx]
  01172	81 e2 80 00 00
	00		 and	 edx, 128		; 00000080H
  01178	0f 85 ac 00 00
	00		 jne	 $LN76@joy_read
  0117e	b8 01 00 00 00	 mov	 eax, 1
  01183	6b c8 1e	 imul	 ecx, eax, 30
  01186	0f b6 91 00 00
	00 00		 movzx	 edx, BYTE PTR ?di_key@@3PAEA[ecx]
  0118d	81 e2 80 00 00
	00		 and	 edx, 128		; 00000080H
  01193	0f 85 91 00 00
	00		 jne	 $LN76@joy_read
  01199	b8 01 00 00 00	 mov	 eax, 1
  0119e	6b c8 1f	 imul	 ecx, eax, 31
  011a1	0f b6 91 00 00
	00 00		 movzx	 edx, BYTE PTR ?di_key@@3PAEA[ecx]
  011a8	81 e2 80 00 00
	00		 and	 edx, 128		; 00000080H
  011ae	75 7a		 jne	 SHORT $LN76@joy_read
  011b0	b8 01 00 00 00	 mov	 eax, 1
  011b5	c1 e0 05	 shl	 eax, 5
  011b8	0f b6 88 00 00
	00 00		 movzx	 ecx, BYTE PTR ?di_key@@3PAEA[eax]
  011bf	81 e1 80 00 00
	00		 and	 ecx, 128		; 00000080H
  011c5	75 63		 jne	 SHORT $LN76@joy_read
  011c7	b8 01 00 00 00	 mov	 eax, 1
  011cc	6b c8 21	 imul	 ecx, eax, 33
  011cf	0f b6 91 00 00
	00 00		 movzx	 edx, BYTE PTR ?di_key@@3PAEA[ecx]
  011d6	81 e2 80 00 00
	00		 and	 edx, 128		; 00000080H
  011dc	75 4c		 jne	 SHORT $LN76@joy_read
  011de	b8 01 00 00 00	 mov	 eax, 1
  011e3	6b c8 22	 imul	 ecx, eax, 34
  011e6	0f b6 91 00 00
	00 00		 movzx	 edx, BYTE PTR ?di_key@@3PAEA[ecx]
  011ed	81 e2 80 00 00
	00		 and	 edx, 128		; 00000080H
  011f3	75 35		 jne	 SHORT $LN76@joy_read
  011f5	b8 01 00 00 00	 mov	 eax, 1
  011fa	6b c8 23	 imul	 ecx, eax, 35
  011fd	0f b6 91 00 00
	00 00		 movzx	 edx, BYTE PTR ?di_key@@3PAEA[ecx]
  01204	81 e2 80 00 00
	00		 and	 edx, 128		; 00000080H
  0120a	75 1e		 jne	 SHORT $LN76@joy_read
  0120c	b8 01 00 00 00	 mov	 eax, 1
  01211	6b c8 24	 imul	 ecx, eax, 36
  01214	0f b6 91 00 00
	00 00		 movzx	 edx, BYTE PTR ?di_key@@3PAEA[ecx]
  0121b	81 e2 80 00 00
	00		 and	 edx, 128		; 00000080H
  01221	75 07		 jne	 SHORT $LN76@joy_read

; 493  : 				  )
; 494  : 					m_bt = false;

  01223	c6 05 00 00 00
	00 00		 mov	 BYTE PTR ?m_bt@@3_NA, 0	; m_bt
$LN76@joy_read:

; 495  : 			}
; 496  : 		}		
; 497  : #endif
; 498  : 
; 499  : #if 0		
; 500  : 		if(di_key[DIK_NUMPAD4] & 0x80)
; 501  : 			d0|=JOY_LEFT;
; 502  : 		if(di_key[DIK_NUMPAD8] & 0x80)
; 503  : 			d0|=JOY_UP;
; 504  : 		if(di_key[DIK_NUMPAD6] & 0x80)
; 505  : 			d0|=JOY_RIGHT;
; 506  : 		if(di_key[DIK_NUMPAD2] & 0x80)
; 507  : 			d0|=JOY_DOWN;
; 508  : 		if(di_key[DIK_A] & 0x80)
; 509  : 			d0|=JOY_A;
; 510  : 		if(di_key[DIK_S] & 0x80)
; 511  : 			d0|=JOY_B;
; 512  : 		if(di_key[DIK_T] & 0x80)
; 513  : 			d0|=JOY_A;
; 514  : 		if(di_key[DIK_Y] & 0x80)
; 515  : 			d0|=JOY_B;
; 516  : #endif			
; 517  : 		
; 518  : 		
; 519  : 		joy_con[1] = d0;

  0122a	b8 04 00 00 00	 mov	 eax, 4
  0122f	c1 e0 00	 shl	 eax, 0
  01232	8b 4d f4	 mov	 ecx, DWORD PTR _d0$[ebp]
  01235	89 88 00 00 00
	00		 mov	 DWORD PTR ?joy_con@@3PAKA[eax], ecx

; 520  : 
; 521  : 		d1 = ~(joy_buf[0]);				//??¢D???

  0123b	b8 04 00 00 00	 mov	 eax, 4
  01240	6b c8 00	 imul	 ecx, eax, 0
  01243	8b 91 00 00 00
	00		 mov	 edx, DWORD PTR ?joy_buf@@3PAKA[ecx]
  01249	f7 d2		 not	 edx
  0124b	89 55 e8	 mov	 DWORD PTR _d1$[ebp], edx

; 522  : 		joy_trg[0] = d1 & joy_con[0];

  0124e	b8 04 00 00 00	 mov	 eax, 4
  01253	6b c8 00	 imul	 ecx, eax, 0
  01256	8b 55 e8	 mov	 edx, DWORD PTR _d1$[ebp]
  01259	23 91 00 00 00
	00		 and	 edx, DWORD PTR ?joy_con@@3PAKA[ecx]
  0125f	b8 04 00 00 00	 mov	 eax, 4
  01264	6b c8 00	 imul	 ecx, eax, 0
  01267	89 91 00 00 00
	00		 mov	 DWORD PTR ?joy_trg@@3PAKA[ecx], edx

; 523  : 
; 524  : 		d1 = ~(joy_buf[1]);				//??¢D???

  0126d	b8 04 00 00 00	 mov	 eax, 4
  01272	c1 e0 00	 shl	 eax, 0
  01275	8b 88 00 00 00
	00		 mov	 ecx, DWORD PTR ?joy_buf@@3PAKA[eax]
  0127b	f7 d1		 not	 ecx
  0127d	89 4d e8	 mov	 DWORD PTR _d1$[ebp], ecx

; 525  : 		joy_trg[1] = d1 & joy_con[1];

  01280	b8 04 00 00 00	 mov	 eax, 4
  01285	c1 e0 00	 shl	 eax, 0
  01288	8b 4d e8	 mov	 ecx, DWORD PTR _d1$[ebp]
  0128b	23 88 00 00 00
	00		 and	 ecx, DWORD PTR ?joy_con@@3PAKA[eax]
  01291	ba 04 00 00 00	 mov	 edx, 4
  01296	c1 e2 00	 shl	 edx, 0
  01299	89 8a 00 00 00
	00		 mov	 DWORD PTR ?joy_trg@@3PAKA[edx], ecx

; 526  : 
; 527  : 		c = ~(joy_con[0]);				//??¢D¢¬úÇ?

  0129f	b8 04 00 00 00	 mov	 eax, 4
  012a4	6b c8 00	 imul	 ecx, eax, 0
  012a7	8b 91 00 00 00
	00		 mov	 edx, DWORD PTR ?joy_con@@3PAKA[ecx]
  012ad	f7 d2		 not	 edx
  012af	89 55 d0	 mov	 DWORD PTR _c$[ebp], edx

; 528  : 		a = ~(joy_buf[0]);

  012b2	b8 04 00 00 00	 mov	 eax, 4
  012b7	6b c8 00	 imul	 ecx, eax, 0
  012ba	8b 91 00 00 00
	00		 mov	 edx, DWORD PTR ?joy_buf@@3PAKA[ecx]
  012c0	f7 d2		 not	 edx
  012c2	89 55 dc	 mov	 DWORD PTR _a$[ebp], edx

; 529  : 		a ^= c;

  012c5	8b 45 dc	 mov	 eax, DWORD PTR _a$[ebp]
  012c8	33 45 d0	 xor	 eax, DWORD PTR _c$[ebp]
  012cb	89 45 dc	 mov	 DWORD PTR _a$[ebp], eax

; 530  : 		a &= c;

  012ce	8b 45 dc	 mov	 eax, DWORD PTR _a$[ebp]
  012d1	23 45 d0	 and	 eax, DWORD PTR _c$[ebp]
  012d4	89 45 dc	 mov	 DWORD PTR _a$[ebp], eax

; 531  : 		joy_pul[0] = a;

  012d7	b8 04 00 00 00	 mov	 eax, 4
  012dc	6b c8 00	 imul	 ecx, eax, 0
  012df	8b 55 dc	 mov	 edx, DWORD PTR _a$[ebp]
  012e2	89 91 00 00 00
	00		 mov	 DWORD PTR ?joy_pul@@3PAKA[ecx], edx

; 532  : 
; 533  : 		c = ~(joy_con[1]);				//??¢D¢¬úÇ?

  012e8	b8 04 00 00 00	 mov	 eax, 4
  012ed	c1 e0 00	 shl	 eax, 0
  012f0	8b 88 00 00 00
	00		 mov	 ecx, DWORD PTR ?joy_con@@3PAKA[eax]
  012f6	f7 d1		 not	 ecx
  012f8	89 4d d0	 mov	 DWORD PTR _c$[ebp], ecx

; 534  : 		a = ~(joy_buf[1]);

  012fb	b8 04 00 00 00	 mov	 eax, 4
  01300	c1 e0 00	 shl	 eax, 0
  01303	8b 88 00 00 00
	00		 mov	 ecx, DWORD PTR ?joy_buf@@3PAKA[eax]
  01309	f7 d1		 not	 ecx
  0130b	89 4d dc	 mov	 DWORD PTR _a$[ebp], ecx

; 535  : 		a ^= c;

  0130e	8b 45 dc	 mov	 eax, DWORD PTR _a$[ebp]
  01311	33 45 d0	 xor	 eax, DWORD PTR _c$[ebp]
  01314	89 45 dc	 mov	 DWORD PTR _a$[ebp], eax

; 536  : 		a &= c;

  01317	8b 45 dc	 mov	 eax, DWORD PTR _a$[ebp]
  0131a	23 45 d0	 and	 eax, DWORD PTR _c$[ebp]
  0131d	89 45 dc	 mov	 DWORD PTR _a$[ebp], eax

; 537  : 		joy_pul[1] = a;

  01320	b8 04 00 00 00	 mov	 eax, 4
  01325	c1 e0 00	 shl	 eax, 0
  01328	8b 4d dc	 mov	 ecx, DWORD PTR _a$[ebp]
  0132b	89 88 00 00 00
	00		 mov	 DWORD PTR ?joy_pul@@3PAKA[eax], ecx

; 538  : 
; 539  : 		joy_buf[0] = joy_con[0];

  01331	b8 04 00 00 00	 mov	 eax, 4
  01336	6b c8 00	 imul	 ecx, eax, 0
  01339	ba 04 00 00 00	 mov	 edx, 4
  0133e	6b c2 00	 imul	 eax, edx, 0
  01341	8b 89 00 00 00
	00		 mov	 ecx, DWORD PTR ?joy_con@@3PAKA[ecx]
  01347	89 88 00 00 00
	00		 mov	 DWORD PTR ?joy_buf@@3PAKA[eax], ecx

; 540  : 		joy_buf[1] = joy_con[1];

  0134d	b8 04 00 00 00	 mov	 eax, 4
  01352	c1 e0 00	 shl	 eax, 0
  01355	b9 04 00 00 00	 mov	 ecx, 4
  0135a	c1 e1 00	 shl	 ecx, 0
  0135d	8b 90 00 00 00
	00		 mov	 edx, DWORD PTR ?joy_con@@3PAKA[eax]
  01363	89 91 00 00 00
	00		 mov	 DWORD PTR ?joy_buf@@3PAKA[ecx], edx

; 541  : 
; 542  : 		joy_auto[0] = joy_auto_repeat(0);

  01369	6a 00		 push	 0
  0136b	e8 00 00 00 00	 call	 ?joy_auto_repeat@@YAKE@Z ; joy_auto_repeat
  01370	83 c4 04	 add	 esp, 4
  01373	b9 04 00 00 00	 mov	 ecx, 4
  01378	6b d1 00	 imul	 edx, ecx, 0
  0137b	89 82 00 00 00
	00		 mov	 DWORD PTR ?joy_auto@@3PAKA[edx], eax

; 543  : 		joy_auto[1] = joy_auto_repeat(1);

  01381	6a 01		 push	 1
  01383	e8 00 00 00 00	 call	 ?joy_auto_repeat@@YAKE@Z ; joy_auto_repeat
  01388	83 c4 04	 add	 esp, 4
  0138b	b9 04 00 00 00	 mov	 ecx, 4
  01390	c1 e1 00	 shl	 ecx, 0
  01393	89 81 00 00 00
	00		 mov	 DWORD PTR ?joy_auto@@3PAKA[ecx], eax
  01399	eb 25		 jmp	 SHORT $LN1@joy_read
$LN14@joy_read:

; 544  : 	}
; 545  : 	else if(ret == DIERR_INPUTLOST){

  0139b	81 7d c4 1e 00
	07 80		 cmp	 DWORD PTR _ret$[ebp], -2147024866 ; 8007001eH
  013a2	75 1c		 jne	 SHORT $LN1@joy_read

; 546  : 		pDInputDevice->Acquire();

  013a4	a1 00 00 00 00	 mov	 eax, DWORD PTR ?pDInputDevice@@3PAUIDirectInputDeviceA@@A ; pDInputDevice
  013a9	8b 08		 mov	 ecx, DWORD PTR [eax]
  013ab	8b f4		 mov	 esi, esp
  013ad	8b 15 00 00 00
	00		 mov	 edx, DWORD PTR ?pDInputDevice@@3PAUIDirectInputDeviceA@@A ; pDInputDevice
  013b3	52		 push	 edx
  013b4	8b 41 1c	 mov	 eax, DWORD PTR [ecx+28]
  013b7	ff d0		 call	 eax
  013b9	3b f4		 cmp	 esi, esp
  013bb	e8 00 00 00 00	 call	 __RTC_CheckEsp
$LN1@joy_read:

; 547  : 	}
; 548  : }

  013c0	52		 push	 edx
  013c1	8b cd		 mov	 ecx, ebp
  013c3	50		 push	 eax
  013c4	8d 15 00 00 00
	00		 lea	 edx, DWORD PTR $LN117@joy_read
  013ca	e8 00 00 00 00	 call	 @_RTC_CheckStackVars@8
  013cf	58		 pop	 eax
  013d0	5a		 pop	 edx
  013d1	5f		 pop	 edi
  013d2	5e		 pop	 esi
  013d3	5b		 pop	 ebx
  013d4	8b 4d fc	 mov	 ecx, DWORD PTR __$ArrayPad$[ebp]
  013d7	33 cd		 xor	 ecx, ebp
  013d9	e8 00 00 00 00	 call	 @__security_check_cookie@4
  013de	81 c4 64 01 00
	00		 add	 esp, 356		; 00000164H
  013e4	3b ec		 cmp	 ebp, esp
  013e6	e8 00 00 00 00	 call	 __RTC_CheckEsp
  013eb	8b e5		 mov	 esp, ebp
  013ed	5d		 pop	 ebp
  013ee	c3		 ret	 0
  013ef	90		 npad	 1
$LN117@joy_read:
  013f0	01 00 00 00	 DD	 1
  013f4	00 00 00 00	 DD	 $LN116@joy_read
$LN116@joy_read:
  013f8	6c ff ff ff	 DD	 -148			; ffffff6cH
  013fc	50 00 00 00	 DD	 80			; 00000050H
  01400	00 00 00 00	 DD	 $LN115@joy_read
$LN115@joy_read:
  01404	64		 DB	 100			; 00000064H
  01405	69		 DB	 105			; 00000069H
  01406	6a		 DB	 106			; 0000006aH
  01407	73		 DB	 115			; 00000073H
  01408	00		 DB	 0
?joy_read@@YAXXZ ENDP					; joy_read
_TEXT	ENDS
; Function compile flags: /Odtp /RTCsu /ZI
; File c:\users\administrator\desktop\????? ??\????? ??\client source code\oft\sys2.cpp
;	COMDAT ?GetJoystickCallback@@YGHPAUDIDEVICEINSTANCEA@@PAX@Z
_TEXT	SEGMENT
_pDev$ = -20						; size = 4
_ret$ = -8						; size = 4
_lpddi$ = 8						; size = 4
_pvRef$ = 12						; size = 4
?GetJoystickCallback@@YGHPAUDIDEVICEINSTANCEA@@PAX@Z PROC ; GetJoystickCallback, COMDAT

; 238  : {

  00000	55		 push	 ebp
  00001	8b ec		 mov	 ebp, esp
  00003	81 ec d8 00 00
	00		 sub	 esp, 216		; 000000d8H
  00009	53		 push	 ebx
  0000a	56		 push	 esi
  0000b	57		 push	 edi
  0000c	8d bd 28 ff ff
	ff		 lea	 edi, DWORD PTR [ebp-216]
  00012	b9 36 00 00 00	 mov	 ecx, 54			; 00000036H
  00017	b8 cc cc cc cc	 mov	 eax, -858993460		; ccccccccH
  0001c	f3 ab		 rep stosd

; 239  : 	HRESULT ret;
; 240  : 
; 241  : #ifndef DI_2
; 242  : 	//??????????????????????þÎ
; 243  : 	ret = pDInput->CreateDevice(lpddi->guidInstance,&pDInputDevice2,NULL);
; 244  : 	if(ret != DI_OK){
; 245  : 		return DIENUM_CONTINUE;
; 246  : 	}
; 247  : #else
; 248  : 	LPDIRECTINPUTDEVICE pDev;
; 249  : 	//??????????????????????þÎ
; 250  : 	ret = pDInput->CreateDevice(lpddi->guidInstance,&pDev,NULL);

  0001e	8b f4		 mov	 esi, esp
  00020	6a 00		 push	 0
  00022	8d 45 ec	 lea	 eax, DWORD PTR _pDev$[ebp]
  00025	50		 push	 eax
  00026	8b 4d 08	 mov	 ecx, DWORD PTR _lpddi$[ebp]
  00029	83 c1 04	 add	 ecx, 4
  0002c	51		 push	 ecx
  0002d	8b 15 00 00 00
	00		 mov	 edx, DWORD PTR ?pDInput@@3PAUIDirectInputA@@A ; pDInput
  00033	8b 02		 mov	 eax, DWORD PTR [edx]
  00035	8b 0d 00 00 00
	00		 mov	 ecx, DWORD PTR ?pDInput@@3PAUIDirectInputA@@A ; pDInput
  0003b	51		 push	 ecx
  0003c	8b 50 0c	 mov	 edx, DWORD PTR [eax+12]
  0003f	ff d2		 call	 edx
  00041	3b f4		 cmp	 esi, esp
  00043	e8 00 00 00 00	 call	 __RTC_CheckEsp
  00048	89 45 f8	 mov	 DWORD PTR _ret$[ebp], eax

; 251  : 	if(ret != DI_OK){

  0004b	83 7d f8 00	 cmp	 DWORD PTR _ret$[ebp], 0
  0004f	74 07		 je	 SHORT $LN2@GetJoystic

; 252  : 		return DIENUM_CONTINUE;

  00051	b8 01 00 00 00	 mov	 eax, 1
  00056	eb 22		 jmp	 SHORT $LN1@GetJoystic
$LN2@GetJoystic:

; 253  : 	}
; 254  : 	pDev->QueryInterface(IID_IDirectInputDevice2,(LPVOID *)&pDInputDevice2);

  00058	8b f4		 mov	 esi, esp
  0005a	68 00 00 00 00	 push	 OFFSET ?pDInputDevice2@@3PAUIDirectInputDevice2A@@A ; pDInputDevice2
  0005f	68 00 00 00 00	 push	 OFFSET _IID_IDirectInputDevice2A
  00064	8b 45 ec	 mov	 eax, DWORD PTR _pDev$[ebp]
  00067	8b 08		 mov	 ecx, DWORD PTR [eax]
  00069	8b 55 ec	 mov	 edx, DWORD PTR _pDev$[ebp]
  0006c	52		 push	 edx
  0006d	8b 01		 mov	 eax, DWORD PTR [ecx]
  0006f	ff d0		 call	 eax
  00071	3b f4		 cmp	 esi, esp
  00073	e8 00 00 00 00	 call	 __RTC_CheckEsp

; 255  : #endif
; 256  : 	return DIENUM_STOP;

  00078	33 c0		 xor	 eax, eax
$LN1@GetJoystic:

; 257  : }

  0007a	52		 push	 edx
  0007b	8b cd		 mov	 ecx, ebp
  0007d	50		 push	 eax
  0007e	8d 15 00 00 00
	00		 lea	 edx, DWORD PTR $LN6@GetJoystic
  00084	e8 00 00 00 00	 call	 @_RTC_CheckStackVars@8
  00089	58		 pop	 eax
  0008a	5a		 pop	 edx
  0008b	5f		 pop	 edi
  0008c	5e		 pop	 esi
  0008d	5b		 pop	 ebx
  0008e	81 c4 d8 00 00
	00		 add	 esp, 216		; 000000d8H
  00094	3b ec		 cmp	 ebp, esp
  00096	e8 00 00 00 00	 call	 __RTC_CheckEsp
  0009b	8b e5		 mov	 esp, ebp
  0009d	5d		 pop	 ebp
  0009e	c2 08 00	 ret	 8
  000a1	0f 1f 00	 npad	 3
$LN6@GetJoystic:
  000a4	01 00 00 00	 DD	 1
  000a8	00 00 00 00	 DD	 $LN5@GetJoystic
$LN5@GetJoystic:
  000ac	ec ff ff ff	 DD	 -20			; ffffffecH
  000b0	04 00 00 00	 DD	 4
  000b4	00 00 00 00	 DD	 $LN4@GetJoystic
$LN4@GetJoystic:
  000b8	70		 DB	 112			; 00000070H
  000b9	44		 DB	 68			; 00000044H
  000ba	65		 DB	 101			; 00000065H
  000bb	76		 DB	 118			; 00000076H
  000bc	00		 DB	 0
?GetJoystickCallback@@YGHPAUDIDEVICEINSTANCEA@@PAX@Z ENDP ; GetJoystickCallback
_TEXT	ENDS
; Function compile flags: /Odtp /RTCsu /ZI
; File c:\users\administrator\desktop\????? ??\????? ??\client source code\oft\sys2.cpp
;	COMDAT ?joy_auto_repeat@@YAKE@Z
_TEXT	SEGMENT
$T1 = -212						; size = 4
_d0$ = -8						; size = 4
_d1$ = 8						; size = 1
?joy_auto_repeat@@YAKE@Z PROC				; joy_auto_repeat, COMDAT

; 41   : {

  00000	55		 push	 ebp
  00001	8b ec		 mov	 ebp, esp
  00003	81 ec d8 00 00
	00		 sub	 esp, 216		; 000000d8H
  00009	53		 push	 ebx
  0000a	56		 push	 esi
  0000b	57		 push	 edi
  0000c	8d bd 28 ff ff
	ff		 lea	 edi, DWORD PTR [ebp-216]
  00012	b9 36 00 00 00	 mov	 ecx, 54			; 00000036H
  00017	b8 cc cc cc cc	 mov	 eax, -858993460		; ccccccccH
  0001c	f3 ab		 rep stosd

; 42   : 	Uint32 d0=0;

  0001e	c7 45 f8 00 00
	00 00		 mov	 DWORD PTR _d0$[ebp], 0

; 43   : 	if( (joy_con[d1] & JOY_UP+JOY_DOWN+JOY_RIGHT+JOY_LEFT+JOY_A+JOY_B+JOY_F5+JOY_F6+JOY_F7+JOY_F8)==0  ){	/*???????*/

  00025	0f b6 45 08	 movzx	 eax, BYTE PTR _d1$[ebp]
  00029	8b 0c 85 00 00
	00 00		 mov	 ecx, DWORD PTR ?joy_con@@3PAKA[eax*4]
  00030	81 e1 f0 f5 00
	00		 and	 ecx, 62960		; 0000f5f0H
  00036	75 32		 jne	 SHORT $LN2@joy_auto_r

; 44   : 		joy_timer[d1]=0;		/*?????????????*/

  00038	0f b6 45 08	 movzx	 eax, BYTE PTR _d1$[ebp]
  0003c	d1 e0		 shl	 eax, 1
  0003e	89 85 2c ff ff
	ff		 mov	 DWORD PTR $T1[ebp], eax
  00044	83 bd 2c ff ff
	ff 04		 cmp	 DWORD PTR $T1[ebp], 4
  0004b	73 02		 jae	 SHORT $LN44@joy_auto_r
  0004d	eb 05		 jmp	 SHORT $LN45@joy_auto_r
$LN44@joy_auto_r:
  0004f	e8 00 00 00 00	 call	 ___report_rangecheckfailure
$LN45@joy_auto_r:
  00054	33 c9		 xor	 ecx, ecx
  00056	8b 95 2c ff ff
	ff		 mov	 edx, DWORD PTR $T1[ebp]
  0005c	66 89 8a 00 00
	00 00		 mov	 WORD PTR ?joy_timer@@3PAGA[edx], cx

; 45   : 		return 0;

  00063	33 c0		 xor	 eax, eax
  00065	e9 21 05 00 00	 jmp	 $LN43@joy_auto_r
$LN2@joy_auto_r:

; 46   : 	}
; 47   : 	if(joy_trg[d1] & JOY_UP){				/*ýÆ?*/

  0006a	0f b6 45 08	 movzx	 eax, BYTE PTR _d1$[ebp]
  0006e	8b 0c 85 00 00
	00 00		 mov	 ecx, DWORD PTR ?joy_trg@@3PAKA[eax*4]
  00075	81 e1 00 10 00
	00		 and	 ecx, 4096		; 00001000H
  0007b	74 0d		 je	 SHORT $LN3@joy_auto_r

; 48   : 		d0|=JOY_UP;					/*????ýÆ???*/

  0007d	8b 45 f8	 mov	 eax, DWORD PTR _d0$[ebp]
  00080	0d 00 10 00 00	 or	 eax, 4096		; 00001000H
  00085	89 45 f8	 mov	 DWORD PTR _d0$[ebp], eax

; 49   : 	} else {

  00088	eb 66		 jmp	 SHORT $LN4@joy_auto_r
$LN3@joy_auto_r:

; 50   : 		if(joy_con[d1] & JOY_UP){			/*ýÆ?*/

  0008a	0f b6 45 08	 movzx	 eax, BYTE PTR _d1$[ebp]
  0008e	8b 0c 85 00 00
	00 00		 mov	 ecx, DWORD PTR ?joy_con@@3PAKA[eax*4]
  00095	81 e1 00 10 00
	00		 and	 ecx, 4096		; 00001000H
  0009b	74 53		 je	 SHORT $LN4@joy_auto_r

; 51   : 			joy_timer[d1]++;	/*??*/

  0009d	0f b6 45 08	 movzx	 eax, BYTE PTR _d1$[ebp]
  000a1	66 8b 0c 45 00
	00 00 00	 mov	 cx, WORD PTR ?joy_timer@@3PAGA[eax*2]
  000a9	66 83 c1 01	 add	 cx, 1
  000ad	0f b6 55 08	 movzx	 edx, BYTE PTR _d1$[ebp]
  000b1	66 89 0c 55 00
	00 00 00	 mov	 WORD PTR ?joy_timer@@3PAGA[edx*2], cx

; 52   : 			if(joy_timer[d1]==REPEAT_TIME){

  000b9	0f b6 45 08	 movzx	 eax, BYTE PTR _d1$[ebp]
  000bd	0f b7 0c 45 00
	00 00 00	 movzx	 ecx, WORD PTR ?joy_timer@@3PAGA[eax*2]
  000c5	83 f9 1e	 cmp	 ecx, 30			; 0000001eH
  000c8	75 26		 jne	 SHORT $LN4@joy_auto_r

; 53   : 				joy_timer[d1]-=REPEAT_SPEED;

  000ca	0f b6 45 08	 movzx	 eax, BYTE PTR _d1$[ebp]
  000ce	0f b7 0c 45 00
	00 00 00	 movzx	 ecx, WORD PTR ?joy_timer@@3PAGA[eax*2]
  000d6	83 e9 07	 sub	 ecx, 7
  000d9	0f b6 55 08	 movzx	 edx, BYTE PTR _d1$[ebp]
  000dd	66 89 0c 55 00
	00 00 00	 mov	 WORD PTR ?joy_timer@@3PAGA[edx*2], cx

; 54   : 				d0|=JOY_UP;

  000e5	8b 45 f8	 mov	 eax, DWORD PTR _d0$[ebp]
  000e8	0d 00 10 00 00	 or	 eax, 4096		; 00001000H
  000ed	89 45 f8	 mov	 DWORD PTR _d0$[ebp], eax
$LN4@joy_auto_r:

; 55   : 			}
; 56   : 		}
; 57   : 	}
; 58   : 	if(joy_trg[d1] & JOY_DOWN){				/*??*/

  000f0	0f b6 45 08	 movzx	 eax, BYTE PTR _d1$[ebp]
  000f4	8b 0c 85 00 00
	00 00		 mov	 ecx, DWORD PTR ?joy_trg@@3PAKA[eax*4]
  000fb	81 e1 00 20 00
	00		 and	 ecx, 8192		; 00002000H
  00101	74 0d		 je	 SHORT $LN7@joy_auto_r

; 59   : 		d0|=JOY_DOWN;					/*????????*/

  00103	8b 45 f8	 mov	 eax, DWORD PTR _d0$[ebp]
  00106	0d 00 20 00 00	 or	 eax, 8192		; 00002000H
  0010b	89 45 f8	 mov	 DWORD PTR _d0$[ebp], eax

; 60   : 	} else {

  0010e	eb 66		 jmp	 SHORT $LN8@joy_auto_r
$LN7@joy_auto_r:

; 61   : 		if(joy_con[d1] & JOY_DOWN){			/*??*/

  00110	0f b6 45 08	 movzx	 eax, BYTE PTR _d1$[ebp]
  00114	8b 0c 85 00 00
	00 00		 mov	 ecx, DWORD PTR ?joy_con@@3PAKA[eax*4]
  0011b	81 e1 00 20 00
	00		 and	 ecx, 8192		; 00002000H
  00121	74 53		 je	 SHORT $LN8@joy_auto_r

; 62   : 			joy_timer[d1]++;	/*??*/

  00123	0f b6 45 08	 movzx	 eax, BYTE PTR _d1$[ebp]
  00127	66 8b 0c 45 00
	00 00 00	 mov	 cx, WORD PTR ?joy_timer@@3PAGA[eax*2]
  0012f	66 83 c1 01	 add	 cx, 1
  00133	0f b6 55 08	 movzx	 edx, BYTE PTR _d1$[ebp]
  00137	66 89 0c 55 00
	00 00 00	 mov	 WORD PTR ?joy_timer@@3PAGA[edx*2], cx

; 63   : 			if(joy_timer[d1]==REPEAT_TIME){

  0013f	0f b6 45 08	 movzx	 eax, BYTE PTR _d1$[ebp]
  00143	0f b7 0c 45 00
	00 00 00	 movzx	 ecx, WORD PTR ?joy_timer@@3PAGA[eax*2]
  0014b	83 f9 1e	 cmp	 ecx, 30			; 0000001eH
  0014e	75 26		 jne	 SHORT $LN8@joy_auto_r

; 64   : 				joy_timer[d1]-=REPEAT_SPEED;

  00150	0f b6 45 08	 movzx	 eax, BYTE PTR _d1$[ebp]
  00154	0f b7 0c 45 00
	00 00 00	 movzx	 ecx, WORD PTR ?joy_timer@@3PAGA[eax*2]
  0015c	83 e9 07	 sub	 ecx, 7
  0015f	0f b6 55 08	 movzx	 edx, BYTE PTR _d1$[ebp]
  00163	66 89 0c 55 00
	00 00 00	 mov	 WORD PTR ?joy_timer@@3PAGA[edx*2], cx

; 65   : 				d0|=JOY_DOWN;

  0016b	8b 45 f8	 mov	 eax, DWORD PTR _d0$[ebp]
  0016e	0d 00 20 00 00	 or	 eax, 8192		; 00002000H
  00173	89 45 f8	 mov	 DWORD PTR _d0$[ebp], eax
$LN8@joy_auto_r:

; 66   : 			}
; 67   : 		}
; 68   : 	}
; 69   : 	if(joy_trg[d1] & JOY_RIGHT){				/*??*/

  00176	0f b6 45 08	 movzx	 eax, BYTE PTR _d1$[ebp]
  0017a	8b 0c 85 00 00
	00 00		 mov	 ecx, DWORD PTR ?joy_trg@@3PAKA[eax*4]
  00181	81 e1 00 80 00
	00		 and	 ecx, 32768		; 00008000H
  00187	74 0d		 je	 SHORT $LN11@joy_auto_r

; 70   : 		d0|=JOY_RIGHT;					/*????????*/

  00189	8b 45 f8	 mov	 eax, DWORD PTR _d0$[ebp]
  0018c	0d 00 80 00 00	 or	 eax, 32768		; 00008000H
  00191	89 45 f8	 mov	 DWORD PTR _d0$[ebp], eax

; 71   : 	} else {

  00194	eb 66		 jmp	 SHORT $LN12@joy_auto_r
$LN11@joy_auto_r:

; 72   : 		if(joy_con[d1] & JOY_RIGHT){			/*??*/

  00196	0f b6 45 08	 movzx	 eax, BYTE PTR _d1$[ebp]
  0019a	8b 0c 85 00 00
	00 00		 mov	 ecx, DWORD PTR ?joy_con@@3PAKA[eax*4]
  001a1	81 e1 00 80 00
	00		 and	 ecx, 32768		; 00008000H
  001a7	74 53		 je	 SHORT $LN12@joy_auto_r

; 73   : 			joy_timer[d1]++;	/*??*/

  001a9	0f b6 45 08	 movzx	 eax, BYTE PTR _d1$[ebp]
  001ad	66 8b 0c 45 00
	00 00 00	 mov	 cx, WORD PTR ?joy_timer@@3PAGA[eax*2]
  001b5	66 83 c1 01	 add	 cx, 1
  001b9	0f b6 55 08	 movzx	 edx, BYTE PTR _d1$[ebp]
  001bd	66 89 0c 55 00
	00 00 00	 mov	 WORD PTR ?joy_timer@@3PAGA[edx*2], cx

; 74   : 			if(joy_timer[d1]==REPEAT_TIME){

  001c5	0f b6 45 08	 movzx	 eax, BYTE PTR _d1$[ebp]
  001c9	0f b7 0c 45 00
	00 00 00	 movzx	 ecx, WORD PTR ?joy_timer@@3PAGA[eax*2]
  001d1	83 f9 1e	 cmp	 ecx, 30			; 0000001eH
  001d4	75 26		 jne	 SHORT $LN12@joy_auto_r

; 75   : 				joy_timer[d1]-=REPEAT_SPEED;

  001d6	0f b6 45 08	 movzx	 eax, BYTE PTR _d1$[ebp]
  001da	0f b7 0c 45 00
	00 00 00	 movzx	 ecx, WORD PTR ?joy_timer@@3PAGA[eax*2]
  001e2	83 e9 07	 sub	 ecx, 7
  001e5	0f b6 55 08	 movzx	 edx, BYTE PTR _d1$[ebp]
  001e9	66 89 0c 55 00
	00 00 00	 mov	 WORD PTR ?joy_timer@@3PAGA[edx*2], cx

; 76   : 				d0|=JOY_RIGHT;

  001f1	8b 45 f8	 mov	 eax, DWORD PTR _d0$[ebp]
  001f4	0d 00 80 00 00	 or	 eax, 32768		; 00008000H
  001f9	89 45 f8	 mov	 DWORD PTR _d0$[ebp], eax
$LN12@joy_auto_r:

; 77   : 			}
; 78   : 		}
; 79   : 	}
; 80   : 	if(joy_trg[d1] & JOY_LEFT){				/*??*/

  001fc	0f b6 45 08	 movzx	 eax, BYTE PTR _d1$[ebp]
  00200	8b 0c 85 00 00
	00 00		 mov	 ecx, DWORD PTR ?joy_trg@@3PAKA[eax*4]
  00207	81 e1 00 40 00
	00		 and	 ecx, 16384		; 00004000H
  0020d	74 0d		 je	 SHORT $LN15@joy_auto_r

; 81   : 		d0|=JOY_LEFT;					/*????????*/

  0020f	8b 45 f8	 mov	 eax, DWORD PTR _d0$[ebp]
  00212	0d 00 40 00 00	 or	 eax, 16384		; 00004000H
  00217	89 45 f8	 mov	 DWORD PTR _d0$[ebp], eax

; 82   : 	} else {

  0021a	eb 66		 jmp	 SHORT $LN16@joy_auto_r
$LN15@joy_auto_r:

; 83   : 		if(joy_con[d1] & JOY_LEFT){			/*??*/

  0021c	0f b6 45 08	 movzx	 eax, BYTE PTR _d1$[ebp]
  00220	8b 0c 85 00 00
	00 00		 mov	 ecx, DWORD PTR ?joy_con@@3PAKA[eax*4]
  00227	81 e1 00 40 00
	00		 and	 ecx, 16384		; 00004000H
  0022d	74 53		 je	 SHORT $LN16@joy_auto_r

; 84   : 			joy_timer[d1]++;	/*??*/

  0022f	0f b6 45 08	 movzx	 eax, BYTE PTR _d1$[ebp]
  00233	66 8b 0c 45 00
	00 00 00	 mov	 cx, WORD PTR ?joy_timer@@3PAGA[eax*2]
  0023b	66 83 c1 01	 add	 cx, 1
  0023f	0f b6 55 08	 movzx	 edx, BYTE PTR _d1$[ebp]
  00243	66 89 0c 55 00
	00 00 00	 mov	 WORD PTR ?joy_timer@@3PAGA[edx*2], cx

; 85   : 			if(joy_timer[d1]==REPEAT_TIME){

  0024b	0f b6 45 08	 movzx	 eax, BYTE PTR _d1$[ebp]
  0024f	0f b7 0c 45 00
	00 00 00	 movzx	 ecx, WORD PTR ?joy_timer@@3PAGA[eax*2]
  00257	83 f9 1e	 cmp	 ecx, 30			; 0000001eH
  0025a	75 26		 jne	 SHORT $LN16@joy_auto_r

; 86   : 				joy_timer[d1]-=REPEAT_SPEED;

  0025c	0f b6 45 08	 movzx	 eax, BYTE PTR _d1$[ebp]
  00260	0f b7 0c 45 00
	00 00 00	 movzx	 ecx, WORD PTR ?joy_timer@@3PAGA[eax*2]
  00268	83 e9 07	 sub	 ecx, 7
  0026b	0f b6 55 08	 movzx	 edx, BYTE PTR _d1$[ebp]
  0026f	66 89 0c 55 00
	00 00 00	 mov	 WORD PTR ?joy_timer@@3PAGA[edx*2], cx

; 87   : 				d0|=JOY_LEFT;

  00277	8b 45 f8	 mov	 eax, DWORD PTR _d0$[ebp]
  0027a	0d 00 40 00 00	 or	 eax, 16384		; 00004000H
  0027f	89 45 f8	 mov	 DWORD PTR _d0$[ebp], eax
$LN16@joy_auto_r:

; 88   : 			}
; 89   : 		}
; 90   : 	}
; 91   : 	
; 92   : #if 1
; 93   : 	if(joy_trg[d1] & JOY_A){				/*A?*/

  00282	0f b6 45 08	 movzx	 eax, BYTE PTR _d1$[ebp]
  00286	8b 0c 85 00 00
	00 00		 mov	 ecx, DWORD PTR ?joy_trg@@3PAKA[eax*4]
  0028d	81 e1 00 04 00
	00		 and	 ecx, 1024		; 00000400H
  00293	74 0d		 je	 SHORT $LN19@joy_auto_r

; 94   : 		d0|=JOY_A;					/*????????*/

  00295	8b 45 f8	 mov	 eax, DWORD PTR _d0$[ebp]
  00298	0d 00 04 00 00	 or	 eax, 1024		; 00000400H
  0029d	89 45 f8	 mov	 DWORD PTR _d0$[ebp], eax

; 95   : 	} else {

  002a0	eb 66		 jmp	 SHORT $LN20@joy_auto_r
$LN19@joy_auto_r:

; 96   : 		if(joy_con[d1] & JOY_A){			/*??*/

  002a2	0f b6 45 08	 movzx	 eax, BYTE PTR _d1$[ebp]
  002a6	8b 0c 85 00 00
	00 00		 mov	 ecx, DWORD PTR ?joy_con@@3PAKA[eax*4]
  002ad	81 e1 00 04 00
	00		 and	 ecx, 1024		; 00000400H
  002b3	74 53		 je	 SHORT $LN20@joy_auto_r

; 97   : 			joy_timer[d1]++;	/*??*/

  002b5	0f b6 45 08	 movzx	 eax, BYTE PTR _d1$[ebp]
  002b9	66 8b 0c 45 00
	00 00 00	 mov	 cx, WORD PTR ?joy_timer@@3PAGA[eax*2]
  002c1	66 83 c1 01	 add	 cx, 1
  002c5	0f b6 55 08	 movzx	 edx, BYTE PTR _d1$[ebp]
  002c9	66 89 0c 55 00
	00 00 00	 mov	 WORD PTR ?joy_timer@@3PAGA[edx*2], cx

; 98   : 			if(joy_timer[d1]==REPEAT_TIME){

  002d1	0f b6 45 08	 movzx	 eax, BYTE PTR _d1$[ebp]
  002d5	0f b7 0c 45 00
	00 00 00	 movzx	 ecx, WORD PTR ?joy_timer@@3PAGA[eax*2]
  002dd	83 f9 1e	 cmp	 ecx, 30			; 0000001eH
  002e0	75 26		 jne	 SHORT $LN20@joy_auto_r

; 99   : 				joy_timer[d1]-=REPEAT_SPEED;

  002e2	0f b6 45 08	 movzx	 eax, BYTE PTR _d1$[ebp]
  002e6	0f b7 0c 45 00
	00 00 00	 movzx	 ecx, WORD PTR ?joy_timer@@3PAGA[eax*2]
  002ee	83 e9 07	 sub	 ecx, 7
  002f1	0f b6 55 08	 movzx	 edx, BYTE PTR _d1$[ebp]
  002f5	66 89 0c 55 00
	00 00 00	 mov	 WORD PTR ?joy_timer@@3PAGA[edx*2], cx

; 100  : 				d0|=JOY_A;

  002fd	8b 45 f8	 mov	 eax, DWORD PTR _d0$[ebp]
  00300	0d 00 04 00 00	 or	 eax, 1024		; 00000400H
  00305	89 45 f8	 mov	 DWORD PTR _d0$[ebp], eax
$LN20@joy_auto_r:

; 101  : 			}
; 102  : 		}
; 103  : 	}
; 104  : 	
; 105  : 	if(joy_trg[d1] & JOY_B){				/*B?*/

  00308	0f b6 45 08	 movzx	 eax, BYTE PTR _d1$[ebp]
  0030c	8b 0c 85 00 00
	00 00		 mov	 ecx, DWORD PTR ?joy_trg@@3PAKA[eax*4]
  00313	81 e1 00 01 00
	00		 and	 ecx, 256		; 00000100H
  00319	74 0d		 je	 SHORT $LN23@joy_auto_r

; 106  : 		d0|=JOY_B;					/*????????*/

  0031b	8b 45 f8	 mov	 eax, DWORD PTR _d0$[ebp]
  0031e	0d 00 01 00 00	 or	 eax, 256		; 00000100H
  00323	89 45 f8	 mov	 DWORD PTR _d0$[ebp], eax

; 107  : 	} else {

  00326	eb 66		 jmp	 SHORT $LN24@joy_auto_r
$LN23@joy_auto_r:

; 108  : 		if(joy_con[d1] & JOY_B){			/*??*/

  00328	0f b6 45 08	 movzx	 eax, BYTE PTR _d1$[ebp]
  0032c	8b 0c 85 00 00
	00 00		 mov	 ecx, DWORD PTR ?joy_con@@3PAKA[eax*4]
  00333	81 e1 00 01 00
	00		 and	 ecx, 256		; 00000100H
  00339	74 53		 je	 SHORT $LN24@joy_auto_r

; 109  : 			joy_timer[d1]++;	/*??*/

  0033b	0f b6 45 08	 movzx	 eax, BYTE PTR _d1$[ebp]
  0033f	66 8b 0c 45 00
	00 00 00	 mov	 cx, WORD PTR ?joy_timer@@3PAGA[eax*2]
  00347	66 83 c1 01	 add	 cx, 1
  0034b	0f b6 55 08	 movzx	 edx, BYTE PTR _d1$[ebp]
  0034f	66 89 0c 55 00
	00 00 00	 mov	 WORD PTR ?joy_timer@@3PAGA[edx*2], cx

; 110  : 			if(joy_timer[d1]==REPEAT_TIME){

  00357	0f b6 45 08	 movzx	 eax, BYTE PTR _d1$[ebp]
  0035b	0f b7 0c 45 00
	00 00 00	 movzx	 ecx, WORD PTR ?joy_timer@@3PAGA[eax*2]
  00363	83 f9 1e	 cmp	 ecx, 30			; 0000001eH
  00366	75 26		 jne	 SHORT $LN24@joy_auto_r

; 111  : 				joy_timer[d1]-=REPEAT_SPEED;

  00368	0f b6 45 08	 movzx	 eax, BYTE PTR _d1$[ebp]
  0036c	0f b7 0c 45 00
	00 00 00	 movzx	 ecx, WORD PTR ?joy_timer@@3PAGA[eax*2]
  00374	83 e9 07	 sub	 ecx, 7
  00377	0f b6 55 08	 movzx	 edx, BYTE PTR _d1$[ebp]
  0037b	66 89 0c 55 00
	00 00 00	 mov	 WORD PTR ?joy_timer@@3PAGA[edx*2], cx

; 112  : 				d0|=JOY_B;

  00383	8b 45 f8	 mov	 eax, DWORD PTR _d0$[ebp]
  00386	0d 00 01 00 00	 or	 eax, 256		; 00000100H
  0038b	89 45 f8	 mov	 DWORD PTR _d0$[ebp], eax
$LN24@joy_auto_r:

; 113  : 			}
; 114  : 		}
; 115  : 	}
; 116  : #endif	
; 117  : 	
; 118  : 	if(joy_trg[d1] & JOY_F5){				/*F5?*/

  0038e	0f b6 45 08	 movzx	 eax, BYTE PTR _d1$[ebp]
  00392	8b 0c 85 00 00
	00 00		 mov	 ecx, DWORD PTR ?joy_trg@@3PAKA[eax*4]
  00399	83 e1 10	 and	 ecx, 16			; 00000010H
  0039c	74 0b		 je	 SHORT $LN27@joy_auto_r

; 119  : 		d0|=JOY_F5;					/*????????*/

  0039e	8b 45 f8	 mov	 eax, DWORD PTR _d0$[ebp]
  003a1	83 c8 10	 or	 eax, 16			; 00000010H
  003a4	89 45 f8	 mov	 DWORD PTR _d0$[ebp], eax

; 120  : 	} else {

  003a7	eb 61		 jmp	 SHORT $LN28@joy_auto_r
$LN27@joy_auto_r:

; 121  : 		if(joy_con[d1] & JOY_F5){			/*??*/

  003a9	0f b6 45 08	 movzx	 eax, BYTE PTR _d1$[ebp]
  003ad	8b 0c 85 00 00
	00 00		 mov	 ecx, DWORD PTR ?joy_con@@3PAKA[eax*4]
  003b4	83 e1 10	 and	 ecx, 16			; 00000010H
  003b7	74 51		 je	 SHORT $LN28@joy_auto_r

; 122  : 			joy_timer[d1]++;	/*??*/

  003b9	0f b6 45 08	 movzx	 eax, BYTE PTR _d1$[ebp]
  003bd	66 8b 0c 45 00
	00 00 00	 mov	 cx, WORD PTR ?joy_timer@@3PAGA[eax*2]
  003c5	66 83 c1 01	 add	 cx, 1
  003c9	0f b6 55 08	 movzx	 edx, BYTE PTR _d1$[ebp]
  003cd	66 89 0c 55 00
	00 00 00	 mov	 WORD PTR ?joy_timer@@3PAGA[edx*2], cx

; 123  : 			if(joy_timer[d1]==REPEAT_TIME){

  003d5	0f b6 45 08	 movzx	 eax, BYTE PTR _d1$[ebp]
  003d9	0f b7 0c 45 00
	00 00 00	 movzx	 ecx, WORD PTR ?joy_timer@@3PAGA[eax*2]
  003e1	83 f9 1e	 cmp	 ecx, 30			; 0000001eH
  003e4	75 24		 jne	 SHORT $LN28@joy_auto_r

; 124  : 				joy_timer[d1]-=REPEAT_SPEED;

  003e6	0f b6 45 08	 movzx	 eax, BYTE PTR _d1$[ebp]
  003ea	0f b7 0c 45 00
	00 00 00	 movzx	 ecx, WORD PTR ?joy_timer@@3PAGA[eax*2]
  003f2	83 e9 07	 sub	 ecx, 7
  003f5	0f b6 55 08	 movzx	 edx, BYTE PTR _d1$[ebp]
  003f9	66 89 0c 55 00
	00 00 00	 mov	 WORD PTR ?joy_timer@@3PAGA[edx*2], cx

; 125  : 				d0|=JOY_F5;

  00401	8b 45 f8	 mov	 eax, DWORD PTR _d0$[ebp]
  00404	83 c8 10	 or	 eax, 16			; 00000010H
  00407	89 45 f8	 mov	 DWORD PTR _d0$[ebp], eax
$LN28@joy_auto_r:

; 126  : 			}
; 127  : 		}
; 128  : 	}
; 129  : 	if(joy_trg[d1] & JOY_F6){				/*F6?*/

  0040a	0f b6 45 08	 movzx	 eax, BYTE PTR _d1$[ebp]
  0040e	8b 0c 85 00 00
	00 00		 mov	 ecx, DWORD PTR ?joy_trg@@3PAKA[eax*4]
  00415	83 e1 20	 and	 ecx, 32			; 00000020H
  00418	74 0b		 je	 SHORT $LN31@joy_auto_r

; 130  : 		d0|=JOY_F6;					/*????????*/

  0041a	8b 45 f8	 mov	 eax, DWORD PTR _d0$[ebp]
  0041d	83 c8 20	 or	 eax, 32			; 00000020H
  00420	89 45 f8	 mov	 DWORD PTR _d0$[ebp], eax

; 131  : 	} else {

  00423	eb 61		 jmp	 SHORT $LN32@joy_auto_r
$LN31@joy_auto_r:

; 132  : 		if(joy_con[d1] & JOY_F6){			/*??*/

  00425	0f b6 45 08	 movzx	 eax, BYTE PTR _d1$[ebp]
  00429	8b 0c 85 00 00
	00 00		 mov	 ecx, DWORD PTR ?joy_con@@3PAKA[eax*4]
  00430	83 e1 20	 and	 ecx, 32			; 00000020H
  00433	74 51		 je	 SHORT $LN32@joy_auto_r

; 133  : 			joy_timer[d1]++;	/*??*/

  00435	0f b6 45 08	 movzx	 eax, BYTE PTR _d1$[ebp]
  00439	66 8b 0c 45 00
	00 00 00	 mov	 cx, WORD PTR ?joy_timer@@3PAGA[eax*2]
  00441	66 83 c1 01	 add	 cx, 1
  00445	0f b6 55 08	 movzx	 edx, BYTE PTR _d1$[ebp]
  00449	66 89 0c 55 00
	00 00 00	 mov	 WORD PTR ?joy_timer@@3PAGA[edx*2], cx

; 134  : 			if(joy_timer[d1]==REPEAT_TIME){

  00451	0f b6 45 08	 movzx	 eax, BYTE PTR _d1$[ebp]
  00455	0f b7 0c 45 00
	00 00 00	 movzx	 ecx, WORD PTR ?joy_timer@@3PAGA[eax*2]
  0045d	83 f9 1e	 cmp	 ecx, 30			; 0000001eH
  00460	75 24		 jne	 SHORT $LN32@joy_auto_r

; 135  : 				joy_timer[d1]-=REPEAT_SPEED;

  00462	0f b6 45 08	 movzx	 eax, BYTE PTR _d1$[ebp]
  00466	0f b7 0c 45 00
	00 00 00	 movzx	 ecx, WORD PTR ?joy_timer@@3PAGA[eax*2]
  0046e	83 e9 07	 sub	 ecx, 7
  00471	0f b6 55 08	 movzx	 edx, BYTE PTR _d1$[ebp]
  00475	66 89 0c 55 00
	00 00 00	 mov	 WORD PTR ?joy_timer@@3PAGA[edx*2], cx

; 136  : 				d0|=JOY_F6;

  0047d	8b 45 f8	 mov	 eax, DWORD PTR _d0$[ebp]
  00480	83 c8 20	 or	 eax, 32			; 00000020H
  00483	89 45 f8	 mov	 DWORD PTR _d0$[ebp], eax
$LN32@joy_auto_r:

; 137  : 			}
; 138  : 		}
; 139  : 	}
; 140  : 	if(joy_trg[d1] & JOY_F7){				/*F7?*/

  00486	0f b6 45 08	 movzx	 eax, BYTE PTR _d1$[ebp]
  0048a	8b 0c 85 00 00
	00 00		 mov	 ecx, DWORD PTR ?joy_trg@@3PAKA[eax*4]
  00491	83 e1 40	 and	 ecx, 64			; 00000040H
  00494	74 0b		 je	 SHORT $LN35@joy_auto_r

; 141  : 		d0|=JOY_F7;					/*????????*/

  00496	8b 45 f8	 mov	 eax, DWORD PTR _d0$[ebp]
  00499	83 c8 40	 or	 eax, 64			; 00000040H
  0049c	89 45 f8	 mov	 DWORD PTR _d0$[ebp], eax

; 142  : 	} else {

  0049f	eb 61		 jmp	 SHORT $LN36@joy_auto_r
$LN35@joy_auto_r:

; 143  : 		if(joy_con[d1] & JOY_F7){			/*??*/

  004a1	0f b6 45 08	 movzx	 eax, BYTE PTR _d1$[ebp]
  004a5	8b 0c 85 00 00
	00 00		 mov	 ecx, DWORD PTR ?joy_con@@3PAKA[eax*4]
  004ac	83 e1 40	 and	 ecx, 64			; 00000040H
  004af	74 51		 je	 SHORT $LN36@joy_auto_r

; 144  : 			joy_timer[d1]++;	/*??*/

  004b1	0f b6 45 08	 movzx	 eax, BYTE PTR _d1$[ebp]
  004b5	66 8b 0c 45 00
	00 00 00	 mov	 cx, WORD PTR ?joy_timer@@3PAGA[eax*2]
  004bd	66 83 c1 01	 add	 cx, 1
  004c1	0f b6 55 08	 movzx	 edx, BYTE PTR _d1$[ebp]
  004c5	66 89 0c 55 00
	00 00 00	 mov	 WORD PTR ?joy_timer@@3PAGA[edx*2], cx

; 145  : 			if(joy_timer[d1]==REPEAT_TIME){

  004cd	0f b6 45 08	 movzx	 eax, BYTE PTR _d1$[ebp]
  004d1	0f b7 0c 45 00
	00 00 00	 movzx	 ecx, WORD PTR ?joy_timer@@3PAGA[eax*2]
  004d9	83 f9 1e	 cmp	 ecx, 30			; 0000001eH
  004dc	75 24		 jne	 SHORT $LN36@joy_auto_r

; 146  : 				joy_timer[d1]-=REPEAT_SPEED;

  004de	0f b6 45 08	 movzx	 eax, BYTE PTR _d1$[ebp]
  004e2	0f b7 0c 45 00
	00 00 00	 movzx	 ecx, WORD PTR ?joy_timer@@3PAGA[eax*2]
  004ea	83 e9 07	 sub	 ecx, 7
  004ed	0f b6 55 08	 movzx	 edx, BYTE PTR _d1$[ebp]
  004f1	66 89 0c 55 00
	00 00 00	 mov	 WORD PTR ?joy_timer@@3PAGA[edx*2], cx

; 147  : 				d0|=JOY_F7;

  004f9	8b 45 f8	 mov	 eax, DWORD PTR _d0$[ebp]
  004fc	83 c8 40	 or	 eax, 64			; 00000040H
  004ff	89 45 f8	 mov	 DWORD PTR _d0$[ebp], eax
$LN36@joy_auto_r:

; 148  : 			}
; 149  : 		}
; 150  : 	}
; 151  : 	if(joy_trg[d1] & JOY_F8){				/*F8?*/

  00502	0f b6 45 08	 movzx	 eax, BYTE PTR _d1$[ebp]
  00506	8b 0c 85 00 00
	00 00		 mov	 ecx, DWORD PTR ?joy_trg@@3PAKA[eax*4]
  0050d	81 e1 80 00 00
	00		 and	 ecx, 128		; 00000080H
  00513	74 0d		 je	 SHORT $LN39@joy_auto_r

; 152  : 		d0|=JOY_F8;					/*????????*/

  00515	8b 45 f8	 mov	 eax, DWORD PTR _d0$[ebp]
  00518	0d 80 00 00 00	 or	 eax, 128		; 00000080H
  0051d	89 45 f8	 mov	 DWORD PTR _d0$[ebp], eax

; 153  : 	} else {

  00520	eb 66		 jmp	 SHORT $LN40@joy_auto_r
$LN39@joy_auto_r:

; 154  : 		if(joy_con[d1] & JOY_F8){			/*??*/

  00522	0f b6 45 08	 movzx	 eax, BYTE PTR _d1$[ebp]
  00526	8b 0c 85 00 00
	00 00		 mov	 ecx, DWORD PTR ?joy_con@@3PAKA[eax*4]
  0052d	81 e1 80 00 00
	00		 and	 ecx, 128		; 00000080H
  00533	74 53		 je	 SHORT $LN40@joy_auto_r

; 155  : 			joy_timer[d1]++;	/*??*/

  00535	0f b6 45 08	 movzx	 eax, BYTE PTR _d1$[ebp]
  00539	66 8b 0c 45 00
	00 00 00	 mov	 cx, WORD PTR ?joy_timer@@3PAGA[eax*2]
  00541	66 83 c1 01	 add	 cx, 1
  00545	0f b6 55 08	 movzx	 edx, BYTE PTR _d1$[ebp]
  00549	66 89 0c 55 00
	00 00 00	 mov	 WORD PTR ?joy_timer@@3PAGA[edx*2], cx

; 156  : 			if(joy_timer[d1]==REPEAT_TIME){

  00551	0f b6 45 08	 movzx	 eax, BYTE PTR _d1$[ebp]
  00555	0f b7 0c 45 00
	00 00 00	 movzx	 ecx, WORD PTR ?joy_timer@@3PAGA[eax*2]
  0055d	83 f9 1e	 cmp	 ecx, 30			; 0000001eH
  00560	75 26		 jne	 SHORT $LN40@joy_auto_r

; 157  : 				joy_timer[d1]-=REPEAT_SPEED;

  00562	0f b6 45 08	 movzx	 eax, BYTE PTR _d1$[ebp]
  00566	0f b7 0c 45 00
	00 00 00	 movzx	 ecx, WORD PTR ?joy_timer@@3PAGA[eax*2]
  0056e	83 e9 07	 sub	 ecx, 7
  00571	0f b6 55 08	 movzx	 edx, BYTE PTR _d1$[ebp]
  00575	66 89 0c 55 00
	00 00 00	 mov	 WORD PTR ?joy_timer@@3PAGA[edx*2], cx

; 158  : 				d0|=JOY_F8;

  0057d	8b 45 f8	 mov	 eax, DWORD PTR _d0$[ebp]
  00580	0d 80 00 00 00	 or	 eax, 128		; 00000080H
  00585	89 45 f8	 mov	 DWORD PTR _d0$[ebp], eax
$LN40@joy_auto_r:

; 159  : 			}
; 160  : 		}
; 161  : 	}
; 162  : 	return d0;

  00588	8b 45 f8	 mov	 eax, DWORD PTR _d0$[ebp]
$LN43@joy_auto_r:

; 163  : }

  0058b	5f		 pop	 edi
  0058c	5e		 pop	 esi
  0058d	5b		 pop	 ebx
  0058e	81 c4 d8 00 00
	00		 add	 esp, 216		; 000000d8H
  00594	3b ec		 cmp	 ebp, esp
  00596	e8 00 00 00 00	 call	 __RTC_CheckEsp
  0059b	8b e5		 mov	 esp, ebp
  0059d	5d		 pop	 ebp
  0059e	c3		 ret	 0
?joy_auto_repeat@@YAKE@Z ENDP				; joy_auto_repeat
_TEXT	ENDS
END
