; Listing generated by Microsoft (R) Optimizing Compiler Version 19.00.24215.1 

	TITLE	C:\Users\Administrator\Desktop\????? ??\????? ??\Client Source Code\system\t_music.cpp
	.686P
	.XMM
	include listing.inc
	.model	flat

INCLUDELIB MSVCRTD
INCLUDELIB OLDNAMES

PUBLIC	?bgm_tbl@@3PAUT_MUSIC_BGM@@A			; bgm_tbl
PUBLIC	?tone_tbl@@3PAUTONE_EQU@@A			; tone_tbl
PUBLIC	?cdda_no@@3HA					; cdda_no
PUBLIC	?stereo_flg@@3HA				; stereo_flg
PUBLIC	?t_music_se_volume@@3HA				; t_music_se_volume
PUBLIC	?t_music_bgm_volume@@3HA			; t_music_bgm_volume
PUBLIC	?t_music_bgm_no@@3HA				; t_music_bgm_no
PUBLIC	?t_music_se_no@@3HA				; t_music_se_no
PUBLIC	?t_music_bgm_pitch@@3PADA			; t_music_bgm_pitch
PUBLIC	?draw_map_bgm_flg@@3HA				; draw_map_bgm_flg
PUBLIC	?map_bgm_no@@3HA				; map_bgm_no
PUBLIC	?声音开关@@3HA					; 声音开关
PUBLIC	?env_tbl@@3PAUENVIRONMENT_EQU@@A		; env_tbl
PUBLIC	?hEvent@@3PAPAXA				; hEvent
PUBLIC	?hThreadHandle@@3PAXA				; hThreadHandle
PUBLIC	?dwThreadID@@3KA				; dwThreadID
PUBLIC	?sd@@3USoundData@@A				; sd
PUBLIC	??_C@_0BG@BPJPJLMH@data?2bgm?2sabgm_s0?4wav?$AA@ ; `string'
PUBLIC	??_C@_0BG@NEMDEIGC@data?2bgm?2sabgm_s1?4wav?$AA@ ; `string'
PUBLIC	??_C@_0BG@BBGEHGOM@data?2bgm?2sabgm_t1?4wav?$AA@ ; `string'
PUBLIC	??_C@_0BG@NKDIKFEJ@data?2bgm?2sabgm_t0?4wav?$AA@ ; `string'
PUBLIC	??_C@_0BG@NODGAMLN@data?2bgm?2sabgm_b0?4wav?$AA@ ; `string'
PUBLIC	??_C@_0BG@BFGKNPBI@data?2bgm?2sabgm_b1?4wav?$AA@ ; `string'
PUBLIC	??_C@_0BG@LNOGDJIH@data?2bgm?2sabgm_d0?4wav?$AA@ ; `string'
PUBLIC	??_C@_0BG@HGLKOKCC@data?2bgm?2sabgm_d1?4wav?$AA@ ; `string'
PUBLIC	??_C@_0BG@PACOJIIM@data?2bgm?2sabgm_d2?4wav?$AA@ ; `string'
PUBLIC	??_C@_0BG@CKHJCIKO@data?2bgm?2sabgm_f0?4wav?$AA@ ; `string'
PUBLIC	??_C@_0BG@OBCFPLAL@data?2bgm?2sabgm_f1?4wav?$AA@ ; `string'
PUBLIC	??_C@_0BG@FIKCHOBD@data?2bgm?2sabgm_b3?4wav?$AA@ ; `string'
PUBLIC	??_C@_0BG@JDPOKNLG@data?2bgm?2sabgm_b2?4wav?$AA@ ; `string'
PUBLIC	??_C@_0BG@EFKHEOKL@data?2bgm?2sabgm_b4?4wav?$AA@ ; `string'
PUBLIC	??_C@_0BG@GHLBIJKF@data?2bgm?2sabgm_f2?4wav?$AA@ ; `string'
PUBLIC	??_C@_0BG@JHPAAEEC@data?2bgm?2sabgm_t2?4wav?$AA@ ; `string'
PUBLIC	??_C@_0BG@FMKMNHOH@data?2bgm?2sabgm_t3?4wav?$AA@ ; `string'
PUBLIC	??_C@_0BG@EBKJOHFP@data?2bgm?2sabgm_t4?4wav?$AA@ ; `string'
PUBLIC	??_C@_0BG@IKPFDEPK@data?2bgm?2sabgm_t5?4wav?$AA@ ; `string'
PUBLIC	??_C@_0BG@MGBEGFE@data?2bgm?2sabgm_t6?4wav?$AA@	; `string'
PUBLIC	??_C@_0BG@MHDNJFPB@data?2bgm?2sabgm_t7?4wav?$AA@ ; `string'
PUBLIC	??_C@_0BG@DGGLCHCE@data?2bgm?2sabgm_t8?4wav?$AA@ ; `string'
PUBLIC	??_C@_0BG@PNDHPEIB@data?2bgm?2sabgm_t9?4wav?$AA@ ; `string'
PUBLIC	??_C@_0BH@LAAMGHLC@data?2bgm?2sabgm_t10?4wav?$AA@ ; `string'
PUBLIC	??_C@_0BH@HLFALEBH@data?2bgm?2sabgm_t11?4wav?$AA@ ; `string'
PUBLIC	??_C@_0BH@PNMEMGLJ@data?2bgm?2sabgm_t12?4wav?$AA@ ; `string'
PUBLIC	??_C@_08LOOFPHBM@?$DP?d?P?$DP?$DP?c?w?$DP?$AA@	; `string'
PUBLIC	??_C@_0N@INFHKGBA@?$KD?S?$KD?t?$KD?e?$KD?p?$DP?$DP?$DP?$DP?$AA@ ; `string'
PUBLIC	??_C@_09JCKPJEPE@?k?e?$DP?r?$KG?o?R?$DP?$DP?$AA@ ; `string'
PUBLIC	??_C@_08IOICGCMD@?$KD?L?r?$KG?V?$LF?$DP?$DP?$AA@ ; `string'
PUBLIC	??_C@_08CBNMEIFN@?$KD?T?r?$KG?V?$LF?$DP?$DP?$AA@ ; `string'
PUBLIC	??_C@_08GDPJEPCA@?$KD?V?r?$KG?V?$LF?$DP?$DP?$AA@ ; `string'
PUBLIC	??_C@_0L@POFHDIIK@?$KD?$MA?$KD?V?r?$KG?V?$LF?$DP?$DP?$AA@ ; `string'
PUBLIC	??_C@_0L@DIDIDBAN@?$KD?$MA?$KD?P?r?$KG?V?$LF?$DP?$DP?$AA@ ; `string'
PUBLIC	??_C@_0L@ICOMAJKB@?$KD?$MA?$KD?F?r?$KG?V?$LF?$DP?$DP?$AA@ ; `string'
PUBLIC	??_C@_08NJCNHHIM@?$KD?$MA?r?$KG?V?$LF?$DP?$DP?$AA@ ; `string'
PUBLIC	??_C@_0P@BPNGJDFB@?$KD?C?$KD?o?$KD?o?$KD?k?r?$KG?V?$LF?$DP?$DP?$AA@ ; `string'
PUBLIC	??_C@_08ICLMPPGO@?$KD?M?$KD?M?$KD?L?$DP?$DP?$AA@ ; `string'
PUBLIC	??_C@_0L@MAMJAONM@?$KD?$MA?$KD?D?r?$KG?V?$LF?$DP?$DP?$AA@ ; `string'
PUBLIC	??_C@_0L@NLIJCIGI@?q?$LC?w?n?$DP?u?$LB?$DP?$DP?$DP?$AA@ ; `string'
PUBLIC	??_C@_0O@BDPOMKKB@?f?Q?q?$LE?k?e?$DP?r?$KG?o?R?$DP?$DP?$AA@ ; `string'
PUBLIC	?BakBgm@@3HA					; BakBgm
PUBLIC	??_C@_0N@PMDODFEN@?Z?c?$DP?$DP?$NL?$KP?r?$KG?V?$LF?$DP?$DP?$AA@ ; `string'
PUBLIC	??_C@_0M@KADLMLCJ@?Z?c?$DP?$DP?$NL?$KP?$DP?$NM?t?y?j?$AA@ ; `string'
PUBLIC	??_C@_0L@KBDAPCLE@?$DP?k?e?$DP?r?$KG?o?R?$DP?$DP?$AA@ ; `string'
PUBLIC	??_C@_0L@DCPNDIBE@?$KD?$MA?$KD?W?r?$KG?V?$LF?$DP?$DP?$AA@ ; `string'
PUBLIC	??_C@_09DBOICEHL@?$DP?q?$LE?r?$KG?V?$LF?$DP?$DP?$AA@ ; `string'
PUBLIC	??_C@_08GJDMEGDJ@?$KD?Q?r?$KG?V?$LF?$DP?$DP?$AA@ ; `string'
PUBLIC	??_C@_0L@BJOJBMHA@?$KD?$MA?$KD?K?r?$KG?V?$LF?$DP?$DP?$AA@ ; `string'
PUBLIC	??_C@_06HJKPLLII@?$PL?z?k?e?$DP?$DP?$AA@	; `string'
PUBLIC	??_C@_08NGFCA@?$KD?O?r?$KG?V?$LF?$DP?$DP?$AA@	; `string'
PUBLIC	??_C@_0L@JHGGBLJD@?$KD?$MA?$KD?H?r?$KG?V?$LF?$DP?$DP?$AA@ ; `string'
PUBLIC	??_C@_0L@NPIGBFPH@?$KD?$MA?$KD?M?r?$KG?V?$LF?$DP?$DP?$AA@ ; `string'
PUBLIC	??_C@_0L@LGLHDGOO@?$KD?$MA?$KD?S?r?$KG?V?$LF?$DP?$DP?$AA@ ; `string'
PUBLIC	?thread_flg@@3HA				; thread_flg
PUBLIC	?dsound_flg@@3HA				; dsound_flg
PUBLIC	?pDSound@@3PAUIDirectSound@@A			; pDSound
PUBLIC	?pDSPrimary@@3PAUIDirectSoundBuffer@@A		; pDSPrimary
PUBLIC	?primaryVolume@@3JA				; primaryVolume
PUBLIC	?primaryPan@@3JA				; primaryPan
PUBLIC	?primaryFrequency@@3JA				; primaryFrequency
PUBLIC	?pDSData_tone@@3PAPAUIDirectSoundBuffer@@A	; pDSData_tone
PUBLIC	?pDSData_stream@@3PAUIDirectSoundBuffer@@A	; pDSData_stream
PUBLIC	?pDSData@@3PAPAUIDirectSoundBuffer@@A		; pDSData
PUBLIC	?dataPlay@@3PAHA				; dataPlay
PUBLIC	?dataVolume@@3PAHA				; dataVolume
PUBLIC	?dataPan@@3PAHA					; dataPan
PUBLIC	?dataFrequency@@3PAJA				; dataFrequency
PUBLIC	?voice@@3PAUVOICE_EQU@@A			; voice
PUBLIC	?tone_max_buf@@3HA				; tone_max_buf
PUBLIC	?t_music_playing_flg@@3HA			; t_music_playing_flg
PUBLIC	?t_music_fade_flg@@3HA				; t_music_fade_flg
PUBLIC	?t_music_fade_vol@@3HA				; t_music_fade_vol
_BSS	SEGMENT
?tone_tbl@@3PAUTONE_EQU@@A DB 03e80H DUP (?)		; tone_tbl
?t_music_bgm_pitch@@3PADA DB 010H DUP (?)		; t_music_bgm_pitch
?draw_map_bgm_flg@@3HA DD 01H DUP (?)			; draw_map_bgm_flg
?map_bgm_no@@3HA DD 01H DUP (?)				; map_bgm_no
?声音开关@@3HA DD 01H DUP (?)				; 声音开关
?voice_seek_point@@3HA DD 01H DUP (?)			; voice_seek_point
?env_tbl@@3PAUENVIRONMENT_EQU@@A DB 02d0H DUP (?)	; env_tbl
?hEvent@@3PAPAXA DD 03H DUP (?)				; hEvent
?hThreadHandle@@3PAXA DD 01H DUP (?)			; hThreadHandle
?dwThreadID@@3KA DD 01H DUP (?)				; dwThreadID
?sd@@3USoundData@@A DB 01cH DUP (?)			; sd
?wave_count@@3JA DD 01H DUP (?)				; wave_count
?wave_address@@3JA DD 01H DUP (?)			; wave_address
?buffer_address@@3JA DD 01H DUP (?)			; buffer_address
?thread_start_flg@@3HC DD 01H DUP (?)			; thread_start_flg
?exit_thread_flg@@3DC DB 01H DUP (?)			; exit_thread_flg
	ALIGN	4

?thread_stop_flg@@3HA DD 01H DUP (?)			; thread_stop_flg
?pDSNotify@@3PAUIDirectSoundNotify@@A DD 01H DUP (?)	; pDSNotify
?stream_flg@@3DA DB 01H DUP (?)				; stream_flg
	ALIGN	4

?cnt@@3HA DD	01H DUP (?)				; cnt
?cnt2@@3HA DD	01H DUP (?)				; cnt2
?BakBgm@@3HA DD	01H DUP (?)				; BakBgm
?open@@3UtagMCI_OPEN_PARMSA@@A DB 014H DUP (?)		; open
?dwRes@@3KA DD	01H DUP (?)				; dwRes
?mes_flg@@3HA DD 01H DUP (?)				; mes_flg
?thread_flg@@3HA DD 01H DUP (?)				; thread_flg
?dsound_flg@@3HA DD 01H DUP (?)				; dsound_flg
?pDSound@@3PAUIDirectSound@@A DD 01H DUP (?)		; pDSound
?pDSPrimary@@3PAUIDirectSoundBuffer@@A DD 01H DUP (?)	; pDSPrimary
?primaryVolume@@3JA DD 01H DUP (?)			; primaryVolume
?primaryPan@@3JA DD 01H DUP (?)				; primaryPan
?primaryFrequency@@3JA DD 01H DUP (?)			; primaryFrequency
?pDSData_tone@@3PAPAUIDirectSoundBuffer@@A DD 01f5H DUP (?) ; pDSData_tone
?pDSData_stream@@3PAUIDirectSoundBuffer@@A DD 01H DUP (?) ; pDSData_stream
?pDSData@@3PAPAUIDirectSoundBuffer@@A DD 040H DUP (?)	; pDSData
?dataPlay@@3PAHA DD 040H DUP (?)			; dataPlay
?dataVolume@@3PAHA DD 020H DUP (?)			; dataVolume
?dataPan@@3PAHA DD 020H DUP (?)				; dataPan
?dataFrequency@@3PAJA DD 020H DUP (?)			; dataFrequency
?voice@@3PAUVOICE_EQU@@A DB 0f00H DUP (?)		; voice
?tone_max_buf@@3HA DD 01H DUP (?)			; tone_max_buf
?t_music_playing_flg@@3HA DD 01H DUP (?)		; t_music_playing_flg
?t_music_fade_flg@@3HA DD 01H DUP (?)			; t_music_fade_flg
?t_music_fade_vol@@3HA DD 01H DUP (?)			; t_music_fade_vol
?map_bgm_vct_no@@3HA DD 01H DUP (?)			; map_bgm_vct_no
_BSS	ENDS
;	COMDAT ??_C@_0L@LGLHDGOO@?$KD?$MA?$KD?S?r?$KG?V?$LF?$DP?$DP?$AA@
CONST	SEGMENT
??_C@_0L@LGLHDGOO@?$KD?$MA?$KD?S?r?$KG?V?$LF?$DP?$DP?$AA@ DB 0a3H, 0c0H, 0a3H
	DB	0d3H, 0f2H, 0a6H, 0d6H, 0b5H, '??', 00H	; `string'
CONST	ENDS
;	COMDAT ??_C@_0L@NPIGBFPH@?$KD?$MA?$KD?M?r?$KG?V?$LF?$DP?$DP?$AA@
CONST	SEGMENT
??_C@_0L@NPIGBFPH@?$KD?$MA?$KD?M?r?$KG?V?$LF?$DP?$DP?$AA@ DB 0a3H, 0c0H, 0a3H
	DB	0cdH, 0f2H, 0a6H, 0d6H, 0b5H, '??', 00H	; `string'
CONST	ENDS
;	COMDAT ??_C@_0L@JHGGBLJD@?$KD?$MA?$KD?H?r?$KG?V?$LF?$DP?$DP?$AA@
CONST	SEGMENT
??_C@_0L@JHGGBLJD@?$KD?$MA?$KD?H?r?$KG?V?$LF?$DP?$DP?$AA@ DB 0a3H, 0c0H, 0a3H
	DB	0c8H, 0f2H, 0a6H, 0d6H, 0b5H, '??', 00H	; `string'
CONST	ENDS
;	COMDAT ??_C@_08NGFCA@?$KD?O?r?$KG?V?$LF?$DP?$DP?$AA@
CONST	SEGMENT
??_C@_08NGFCA@?$KD?O?r?$KG?V?$LF?$DP?$DP?$AA@ DB 0a3H, 0cfH, 0f2H, 0a6H, 0d6H
	DB	0b5H, '??', 00H				; `string'
CONST	ENDS
;	COMDAT ??_C@_06HJKPLLII@?$PL?z?k?e?$DP?$DP?$AA@
CONST	SEGMENT
??_C@_06HJKPLLII@?$PL?z?k?e?$DP?$DP?$AA@ DB 0fbH, 0faH, 0ebH, 0e5H, '??', 00H ; `string'
CONST	ENDS
;	COMDAT ??_C@_0L@BJOJBMHA@?$KD?$MA?$KD?K?r?$KG?V?$LF?$DP?$DP?$AA@
CONST	SEGMENT
??_C@_0L@BJOJBMHA@?$KD?$MA?$KD?K?r?$KG?V?$LF?$DP?$DP?$AA@ DB 0a3H, 0c0H, 0a3H
	DB	0cbH, 0f2H, 0a6H, 0d6H, 0b5H, '??', 00H	; `string'
CONST	ENDS
;	COMDAT ??_C@_08GJDMEGDJ@?$KD?Q?r?$KG?V?$LF?$DP?$DP?$AA@
CONST	SEGMENT
??_C@_08GJDMEGDJ@?$KD?Q?r?$KG?V?$LF?$DP?$DP?$AA@ DB 0a3H, 0d1H, 0f2H, 0a6H
	DB	0d6H, 0b5H, '??', 00H			; `string'
CONST	ENDS
;	COMDAT ??_C@_09DBOICEHL@?$DP?q?$LE?r?$KG?V?$LF?$DP?$DP?$AA@
CONST	SEGMENT
??_C@_09DBOICEHL@?$DP?q?$LE?r?$KG?V?$LF?$DP?$DP?$AA@ DB '?', 0f1H, 0b4H, 0f2H
	DB	0a6H, 0d6H, 0b5H, '??', 00H			; `string'
CONST	ENDS
;	COMDAT ??_C@_0L@DCPNDIBE@?$KD?$MA?$KD?W?r?$KG?V?$LF?$DP?$DP?$AA@
CONST	SEGMENT
??_C@_0L@DCPNDIBE@?$KD?$MA?$KD?W?r?$KG?V?$LF?$DP?$DP?$AA@ DB 0a3H, 0c0H, 0a3H
	DB	0d7H, 0f2H, 0a6H, 0d6H, 0b5H, '??', 00H	; `string'
CONST	ENDS
;	COMDAT ??_C@_0L@KBDAPCLE@?$DP?k?e?$DP?r?$KG?o?R?$DP?$DP?$AA@
CONST	SEGMENT
??_C@_0L@KBDAPCLE@?$DP?k?e?$DP?r?$KG?o?R?$DP?$DP?$AA@ DB '?', 0ebH, 0e5H, '?'
	DB	0f2H, 0a6H, 0efH, 0d2H, '??', 00H		; `string'
CONST	ENDS
;	COMDAT ??_C@_0M@KADLMLCJ@?Z?c?$DP?$DP?$NL?$KP?$DP?$NM?t?y?j?$AA@
CONST	SEGMENT
??_C@_0M@KADLMLCJ@?Z?c?$DP?$DP?$NL?$KP?$DP?$NM?t?y?j?$AA@ DB 0daH, 0e3H, '?'
	DB	'?', 0dbH, 0afH, '?', 0dcH, 0f4H, 0f9H, 0eaH, 00H ; `string'
CONST	ENDS
;	COMDAT ??_C@_0N@PMDODFEN@?Z?c?$DP?$DP?$NL?$KP?r?$KG?V?$LF?$DP?$DP?$AA@
CONST	SEGMENT
??_C@_0N@PMDODFEN@?Z?c?$DP?$DP?$NL?$KP?r?$KG?V?$LF?$DP?$DP?$AA@ DB 0daH, 0e3H
	DB	'??', 0dbH, 0afH, 0f2H, 0a6H, 0d6H, 0b5H, '??', 00H ; `string'
CONST	ENDS
;	COMDAT ??_C@_0O@BDPOMKKB@?f?Q?q?$LE?k?e?$DP?r?$KG?o?R?$DP?$DP?$AA@
CONST	SEGMENT
??_C@_0O@BDPOMKKB@?f?Q?q?$LE?k?e?$DP?r?$KG?o?R?$DP?$DP?$AA@ DB 0e6H, 0d1H
	DB	0f1H, 0b4H, 0ebH, 0e5H, '?', 0f2H, 0a6H, 0efH, 0d2H, '??', 00H ; `string'
CONST	ENDS
;	COMDAT ??_C@_0L@NLIJCIGI@?q?$LC?w?n?$DP?u?$LB?$DP?$DP?$DP?$AA@
CONST	SEGMENT
??_C@_0L@NLIJCIGI@?q?$LC?w?n?$DP?u?$LB?$DP?$DP?$DP?$AA@ DB 0f1H, 0b2H, 0f7H
	DB	0eeH, '?', 0f5H, 0b1H, '???', 00H		; `string'
CONST	ENDS
;	COMDAT ??_C@_0L@MAMJAONM@?$KD?$MA?$KD?D?r?$KG?V?$LF?$DP?$DP?$AA@
CONST	SEGMENT
??_C@_0L@MAMJAONM@?$KD?$MA?$KD?D?r?$KG?V?$LF?$DP?$DP?$AA@ DB 0a3H, 0c0H, 0a3H
	DB	0c4H, 0f2H, 0a6H, 0d6H, 0b5H, '??', 00H	; `string'
CONST	ENDS
;	COMDAT ??_C@_08ICLMPPGO@?$KD?M?$KD?M?$KD?L?$DP?$DP?$AA@
CONST	SEGMENT
??_C@_08ICLMPPGO@?$KD?M?$KD?M?$KD?L?$DP?$DP?$AA@ DB 0a3H, 0cdH, 0a3H, 0cdH
	DB	0a3H, 0ccH, '??', 00H			; `string'
CONST	ENDS
;	COMDAT ??_C@_0P@BPNGJDFB@?$KD?C?$KD?o?$KD?o?$KD?k?r?$KG?V?$LF?$DP?$DP?$AA@
CONST	SEGMENT
??_C@_0P@BPNGJDFB@?$KD?C?$KD?o?$KD?o?$KD?k?r?$KG?V?$LF?$DP?$DP?$AA@ DB 0a3H
	DB	0c3H, 0a3H, 0efH, 0a3H, 0efH, 0a3H, 0ebH, 0f2H, 0a6H, 0d6H, 0b5H
	DB	'??', 00H					; `string'
CONST	ENDS
;	COMDAT ??_C@_08NJCNHHIM@?$KD?$MA?r?$KG?V?$LF?$DP?$DP?$AA@
CONST	SEGMENT
??_C@_08NJCNHHIM@?$KD?$MA?r?$KG?V?$LF?$DP?$DP?$AA@ DB 0a3H, 0c0H, 0f2H, 0a6H
	DB	0d6H, 0b5H, '??', 00H			; `string'
CONST	ENDS
;	COMDAT ??_C@_0L@ICOMAJKB@?$KD?$MA?$KD?F?r?$KG?V?$LF?$DP?$DP?$AA@
CONST	SEGMENT
??_C@_0L@ICOMAJKB@?$KD?$MA?$KD?F?r?$KG?V?$LF?$DP?$DP?$AA@ DB 0a3H, 0c0H, 0a3H
	DB	0c6H, 0f2H, 0a6H, 0d6H, 0b5H, '??', 00H	; `string'
CONST	ENDS
;	COMDAT ??_C@_0L@DIDIDBAN@?$KD?$MA?$KD?P?r?$KG?V?$LF?$DP?$DP?$AA@
CONST	SEGMENT
??_C@_0L@DIDIDBAN@?$KD?$MA?$KD?P?r?$KG?V?$LF?$DP?$DP?$AA@ DB 0a3H, 0c0H, 0a3H
	DB	0d0H, 0f2H, 0a6H, 0d6H, 0b5H, '??', 00H	; `string'
CONST	ENDS
;	COMDAT ??_C@_0L@POFHDIIK@?$KD?$MA?$KD?V?r?$KG?V?$LF?$DP?$DP?$AA@
CONST	SEGMENT
??_C@_0L@POFHDIIK@?$KD?$MA?$KD?V?r?$KG?V?$LF?$DP?$DP?$AA@ DB 0a3H, 0c0H, 0a3H
	DB	0d6H, 0f2H, 0a6H, 0d6H, 0b5H, '??', 00H	; `string'
CONST	ENDS
;	COMDAT ??_C@_08GDPJEPCA@?$KD?V?r?$KG?V?$LF?$DP?$DP?$AA@
CONST	SEGMENT
??_C@_08GDPJEPCA@?$KD?V?r?$KG?V?$LF?$DP?$DP?$AA@ DB 0a3H, 0d6H, 0f2H, 0a6H
	DB	0d6H, 0b5H, '??', 00H			; `string'
CONST	ENDS
;	COMDAT ??_C@_08CBNMEIFN@?$KD?T?r?$KG?V?$LF?$DP?$DP?$AA@
CONST	SEGMENT
??_C@_08CBNMEIFN@?$KD?T?r?$KG?V?$LF?$DP?$DP?$AA@ DB 0a3H, 0d4H, 0f2H, 0a6H
	DB	0d6H, 0b5H, '??', 00H			; `string'
CONST	ENDS
;	COMDAT ??_C@_08IOICGCMD@?$KD?L?r?$KG?V?$LF?$DP?$DP?$AA@
CONST	SEGMENT
??_C@_08IOICGCMD@?$KD?L?r?$KG?V?$LF?$DP?$DP?$AA@ DB 0a3H, 0ccH, 0f2H, 0a6H
	DB	0d6H, 0b5H, '??', 00H			; `string'
CONST	ENDS
;	COMDAT ??_C@_09JCKPJEPE@?k?e?$DP?r?$KG?o?R?$DP?$DP?$AA@
CONST	SEGMENT
??_C@_09JCKPJEPE@?k?e?$DP?r?$KG?o?R?$DP?$DP?$AA@ DB 0ebH, 0e5H, '?', 0f2H
	DB	0a6H, 0efH, 0d2H, '??', 00H			; `string'
CONST	ENDS
;	COMDAT ??_C@_0N@INFHKGBA@?$KD?S?$KD?t?$KD?e?$KD?p?$DP?$DP?$DP?$DP?$AA@
CONST	SEGMENT
??_C@_0N@INFHKGBA@?$KD?S?$KD?t?$KD?e?$KD?p?$DP?$DP?$DP?$DP?$AA@ DB 0a3H, 0d3H
	DB	0a3H, 0f4H, 0a3H, 0e5H, 0a3H, 0f0H, '????', 00H ; `string'
CONST	ENDS
;	COMDAT ??_C@_08LOOFPHBM@?$DP?d?P?$DP?$DP?c?w?$DP?$AA@
CONST	SEGMENT
??_C@_08LOOFPHBM@?$DP?d?P?$DP?$DP?c?w?$DP?$AA@ DB '?', 0e4H, 0d0H, '??', 0e3H
	DB	0f7H, '?', 00H				; `string'
CONST	ENDS
;	COMDAT ??_C@_0BH@PNMEMGLJ@data?2bgm?2sabgm_t12?4wav?$AA@
CONST	SEGMENT
??_C@_0BH@PNMEMGLJ@data?2bgm?2sabgm_t12?4wav?$AA@ DB 'data\bgm\sabgm_t12.'
	DB	'wav', 00H					; `string'
CONST	ENDS
;	COMDAT ??_C@_0BH@HLFALEBH@data?2bgm?2sabgm_t11?4wav?$AA@
CONST	SEGMENT
??_C@_0BH@HLFALEBH@data?2bgm?2sabgm_t11?4wav?$AA@ DB 'data\bgm\sabgm_t11.'
	DB	'wav', 00H					; `string'
CONST	ENDS
;	COMDAT ??_C@_0BH@LAAMGHLC@data?2bgm?2sabgm_t10?4wav?$AA@
CONST	SEGMENT
??_C@_0BH@LAAMGHLC@data?2bgm?2sabgm_t10?4wav?$AA@ DB 'data\bgm\sabgm_t10.'
	DB	'wav', 00H					; `string'
CONST	ENDS
;	COMDAT ??_C@_0BG@PNDHPEIB@data?2bgm?2sabgm_t9?4wav?$AA@
CONST	SEGMENT
??_C@_0BG@PNDHPEIB@data?2bgm?2sabgm_t9?4wav?$AA@ DB 'data\bgm\sabgm_t9.wa'
	DB	'v', 00H					; `string'
CONST	ENDS
;	COMDAT ??_C@_0BG@DGGLCHCE@data?2bgm?2sabgm_t8?4wav?$AA@
CONST	SEGMENT
??_C@_0BG@DGGLCHCE@data?2bgm?2sabgm_t8?4wav?$AA@ DB 'data\bgm\sabgm_t8.wa'
	DB	'v', 00H					; `string'
CONST	ENDS
;	COMDAT ??_C@_0BG@MHDNJFPB@data?2bgm?2sabgm_t7?4wav?$AA@
CONST	SEGMENT
??_C@_0BG@MHDNJFPB@data?2bgm?2sabgm_t7?4wav?$AA@ DB 'data\bgm\sabgm_t7.wa'
	DB	'v', 00H					; `string'
CONST	ENDS
;	COMDAT ??_C@_0BG@MGBEGFE@data?2bgm?2sabgm_t6?4wav?$AA@
CONST	SEGMENT
??_C@_0BG@MGBEGFE@data?2bgm?2sabgm_t6?4wav?$AA@ DB 'data\bgm\sabgm_t6.wav'
	DB	00H						; `string'
CONST	ENDS
;	COMDAT ??_C@_0BG@IKPFDEPK@data?2bgm?2sabgm_t5?4wav?$AA@
CONST	SEGMENT
??_C@_0BG@IKPFDEPK@data?2bgm?2sabgm_t5?4wav?$AA@ DB 'data\bgm\sabgm_t5.wa'
	DB	'v', 00H					; `string'
CONST	ENDS
;	COMDAT ??_C@_0BG@EBKJOHFP@data?2bgm?2sabgm_t4?4wav?$AA@
CONST	SEGMENT
??_C@_0BG@EBKJOHFP@data?2bgm?2sabgm_t4?4wav?$AA@ DB 'data\bgm\sabgm_t4.wa'
	DB	'v', 00H					; `string'
CONST	ENDS
;	COMDAT ??_C@_0BG@FMKMNHOH@data?2bgm?2sabgm_t3?4wav?$AA@
CONST	SEGMENT
??_C@_0BG@FMKMNHOH@data?2bgm?2sabgm_t3?4wav?$AA@ DB 'data\bgm\sabgm_t3.wa'
	DB	'v', 00H					; `string'
CONST	ENDS
;	COMDAT ??_C@_0BG@JHPAAEEC@data?2bgm?2sabgm_t2?4wav?$AA@
CONST	SEGMENT
??_C@_0BG@JHPAAEEC@data?2bgm?2sabgm_t2?4wav?$AA@ DB 'data\bgm\sabgm_t2.wa'
	DB	'v', 00H					; `string'
CONST	ENDS
;	COMDAT ??_C@_0BG@GHLBIJKF@data?2bgm?2sabgm_f2?4wav?$AA@
CONST	SEGMENT
??_C@_0BG@GHLBIJKF@data?2bgm?2sabgm_f2?4wav?$AA@ DB 'data\bgm\sabgm_f2.wa'
	DB	'v', 00H					; `string'
CONST	ENDS
;	COMDAT ??_C@_0BG@EFKHEOKL@data?2bgm?2sabgm_b4?4wav?$AA@
CONST	SEGMENT
??_C@_0BG@EFKHEOKL@data?2bgm?2sabgm_b4?4wav?$AA@ DB 'data\bgm\sabgm_b4.wa'
	DB	'v', 00H					; `string'
CONST	ENDS
;	COMDAT ??_C@_0BG@JDPOKNLG@data?2bgm?2sabgm_b2?4wav?$AA@
CONST	SEGMENT
??_C@_0BG@JDPOKNLG@data?2bgm?2sabgm_b2?4wav?$AA@ DB 'data\bgm\sabgm_b2.wa'
	DB	'v', 00H					; `string'
CONST	ENDS
;	COMDAT ??_C@_0BG@FIKCHOBD@data?2bgm?2sabgm_b3?4wav?$AA@
CONST	SEGMENT
??_C@_0BG@FIKCHOBD@data?2bgm?2sabgm_b3?4wav?$AA@ DB 'data\bgm\sabgm_b3.wa'
	DB	'v', 00H					; `string'
CONST	ENDS
;	COMDAT ??_C@_0BG@OBCFPLAL@data?2bgm?2sabgm_f1?4wav?$AA@
CONST	SEGMENT
??_C@_0BG@OBCFPLAL@data?2bgm?2sabgm_f1?4wav?$AA@ DB 'data\bgm\sabgm_f1.wa'
	DB	'v', 00H					; `string'
CONST	ENDS
;	COMDAT ??_C@_0BG@CKHJCIKO@data?2bgm?2sabgm_f0?4wav?$AA@
CONST	SEGMENT
??_C@_0BG@CKHJCIKO@data?2bgm?2sabgm_f0?4wav?$AA@ DB 'data\bgm\sabgm_f0.wa'
	DB	'v', 00H					; `string'
CONST	ENDS
;	COMDAT ??_C@_0BG@PACOJIIM@data?2bgm?2sabgm_d2?4wav?$AA@
CONST	SEGMENT
??_C@_0BG@PACOJIIM@data?2bgm?2sabgm_d2?4wav?$AA@ DB 'data\bgm\sabgm_d2.wa'
	DB	'v', 00H					; `string'
CONST	ENDS
;	COMDAT ??_C@_0BG@HGLKOKCC@data?2bgm?2sabgm_d1?4wav?$AA@
CONST	SEGMENT
??_C@_0BG@HGLKOKCC@data?2bgm?2sabgm_d1?4wav?$AA@ DB 'data\bgm\sabgm_d1.wa'
	DB	'v', 00H					; `string'
CONST	ENDS
;	COMDAT ??_C@_0BG@LNOGDJIH@data?2bgm?2sabgm_d0?4wav?$AA@
CONST	SEGMENT
??_C@_0BG@LNOGDJIH@data?2bgm?2sabgm_d0?4wav?$AA@ DB 'data\bgm\sabgm_d0.wa'
	DB	'v', 00H					; `string'
CONST	ENDS
;	COMDAT ??_C@_0BG@BFGKNPBI@data?2bgm?2sabgm_b1?4wav?$AA@
CONST	SEGMENT
??_C@_0BG@BFGKNPBI@data?2bgm?2sabgm_b1?4wav?$AA@ DB 'data\bgm\sabgm_b1.wa'
	DB	'v', 00H					; `string'
CONST	ENDS
;	COMDAT ??_C@_0BG@NODGAMLN@data?2bgm?2sabgm_b0?4wav?$AA@
CONST	SEGMENT
??_C@_0BG@NODGAMLN@data?2bgm?2sabgm_b0?4wav?$AA@ DB 'data\bgm\sabgm_b0.wa'
	DB	'v', 00H					; `string'
CONST	ENDS
;	COMDAT ??_C@_0BG@NKDIKFEJ@data?2bgm?2sabgm_t0?4wav?$AA@
CONST	SEGMENT
??_C@_0BG@NKDIKFEJ@data?2bgm?2sabgm_t0?4wav?$AA@ DB 'data\bgm\sabgm_t0.wa'
	DB	'v', 00H					; `string'
CONST	ENDS
;	COMDAT ??_C@_0BG@BBGEHGOM@data?2bgm?2sabgm_t1?4wav?$AA@
CONST	SEGMENT
??_C@_0BG@BBGEHGOM@data?2bgm?2sabgm_t1?4wav?$AA@ DB 'data\bgm\sabgm_t1.wa'
	DB	'v', 00H					; `string'
CONST	ENDS
;	COMDAT ??_C@_0BG@NEMDEIGC@data?2bgm?2sabgm_s1?4wav?$AA@
CONST	SEGMENT
??_C@_0BG@NEMDEIGC@data?2bgm?2sabgm_s1?4wav?$AA@ DB 'data\bgm\sabgm_s1.wa'
	DB	'v', 00H					; `string'
CONST	ENDS
;	COMDAT ??_C@_0BG@BPJPJLMH@data?2bgm?2sabgm_s0?4wav?$AA@
CONST	SEGMENT
??_C@_0BG@BPJPJLMH@data?2bgm?2sabgm_s0?4wav?$AA@ DB 'data\bgm\sabgm_s0.wa'
	DB	'v', 00H					; `string'
CONST	ENDS
_DATA	SEGMENT
?bgm_tbl@@3PAUT_MUSIC_BGM@@A DD FLAT:??_C@_0BG@BPJPJLMH@data?2bgm?2sabgm_s0?4wav?$AA@ ; bgm_tbl
	DD	06eH
	DB	00H
	ORG $+3
	DD	00H
	DD	FLAT:??_C@_0BG@NEMDEIGC@data?2bgm?2sabgm_s1?4wav?$AA@
	DD	078H
	DB	00H
	ORG $+3
	DD	00H
	DD	FLAT:??_C@_0BG@NEMDEIGC@data?2bgm?2sabgm_s1?4wav?$AA@
	DD	069H
	DB	02H
	ORG $+3
	DD	00H
	DD	FLAT:??_C@_0BG@BBGEHGOM@data?2bgm?2sabgm_t1?4wav?$AA@
	DD	07fH
	DB	02H
	ORG $+3
	DD	00H
	DD	FLAT:??_C@_0BG@NKDIKFEJ@data?2bgm?2sabgm_t0?4wav?$AA@
	DD	05fH
	DB	02H
	ORG $+3
	DD	00H
	DD	FLAT:??_C@_0BG@NODGAMLN@data?2bgm?2sabgm_b0?4wav?$AA@
	DD	07aH
	DB	01H
	ORG $+3
	DD	00H
	DD	FLAT:??_C@_0BG@BFGKNPBI@data?2bgm?2sabgm_b1?4wav?$AA@
	DD	07aH
	DB	02H
	ORG $+3
	DD	00H
	DD	FLAT:??_C@_0BG@LNOGDJIH@data?2bgm?2sabgm_d0?4wav?$AA@
	DD	078H
	DB	01H
	ORG $+3
	DD	00H
	DD	FLAT:??_C@_0BG@HGLKOKCC@data?2bgm?2sabgm_d1?4wav?$AA@
	DD	069H
	DB	01H
	ORG $+3
	DD	00H
	DD	FLAT:??_C@_0BG@PACOJIIM@data?2bgm?2sabgm_d2?4wav?$AA@
	DD	064H
	DB	02H
	ORG $+3
	DD	00H
	DD	FLAT:??_C@_0BG@CKHJCIKO@data?2bgm?2sabgm_f0?4wav?$AA@
	DD	07fH
	DB	02H
	ORG $+3
	DD	00H
	DD	FLAT:??_C@_0BG@OBCFPLAL@data?2bgm?2sabgm_f1?4wav?$AA@
	DD	064H
	DB	02H
	ORG $+3
	DD	00H
	DD	FLAT:??_C@_0BG@FIKCHOBD@data?2bgm?2sabgm_b3?4wav?$AA@
	DD	06eH
	DB	02H
	ORG $+3
	DD	00H
	DD	FLAT:??_C@_0BG@JDPOKNLG@data?2bgm?2sabgm_b2?4wav?$AA@
	DD	06eH
	DB	02H
	ORG $+3
	DD	00H
	DD	FLAT:??_C@_0BG@EFKHEOKL@data?2bgm?2sabgm_b4?4wav?$AA@
	DD	06eH
	DB	02H
	ORG $+3
	DD	00H
	DD	FLAT:??_C@_0BG@GHLBIJKF@data?2bgm?2sabgm_f2?4wav?$AA@
	DD	06eH
	DB	02H
	ORG $+3
	DD	00H
	DD	FLAT:??_C@_0BG@JHPAAEEC@data?2bgm?2sabgm_t2?4wav?$AA@
	DD	06eH
	DB	02H
	ORG $+3
	DD	00H
	DD	FLAT:??_C@_0BG@FMKMNHOH@data?2bgm?2sabgm_t3?4wav?$AA@
	DD	06eH
	DB	02H
	ORG $+3
	DD	00H
	DD	FLAT:??_C@_0BG@EBKJOHFP@data?2bgm?2sabgm_t4?4wav?$AA@
	DD	06eH
	DB	02H
	ORG $+3
	DD	00H
	DD	FLAT:??_C@_0BG@IKPFDEPK@data?2bgm?2sabgm_t5?4wav?$AA@
	DD	06eH
	DB	02H
	ORG $+3
	DD	00H
	DD	FLAT:??_C@_0BG@MGBEGFE@data?2bgm?2sabgm_t6?4wav?$AA@
	DD	06eH
	DB	02H
	ORG $+3
	DD	00H
	DD	FLAT:??_C@_0BG@MHDNJFPB@data?2bgm?2sabgm_t7?4wav?$AA@
	DD	06eH
	DB	02H
	ORG $+3
	DD	00H
	DD	FLAT:??_C@_0BG@DGGLCHCE@data?2bgm?2sabgm_t8?4wav?$AA@
	DD	06eH
	DB	02H
	ORG $+3
	DD	00H
	DD	FLAT:??_C@_0BG@PNDHPEIB@data?2bgm?2sabgm_t9?4wav?$AA@
	DD	06eH
	DB	02H
	ORG $+3
	DD	00H
	DD	FLAT:??_C@_0BH@LAAMGHLC@data?2bgm?2sabgm_t10?4wav?$AA@
	DD	06eH
	DB	02H
	ORG $+3
	DD	00H
	DD	FLAT:??_C@_0BH@HLFALEBH@data?2bgm?2sabgm_t11?4wav?$AA@
	DD	06eH
	DB	02H
	ORG $+3
	DD	00H
	DD	FLAT:??_C@_0BH@PNMEMGLJ@data?2bgm?2sabgm_t12?4wav?$AA@
	DD	06eH
	DB	02H
	ORG $+3
	DD	00H
?cdda_no@@3HA DD 0ffffffffH				; cdda_no
?stereo_flg@@3HA DD 01H					; stereo_flg
?t_music_se_volume@@3HA DD 0fH				; t_music_se_volume
?t_music_bgm_volume@@3HA DD 0fH				; t_music_bgm_volume
?t_music_bgm_no@@3HA DD 0ffffffffH			; t_music_bgm_no
?t_music_se_no@@3HA DD 0ffffffffH			; t_music_se_no
?err_msg@@3PAPADA DD FLAT:??_C@_08LOOFPHBM@?$DP?d?P?$DP?$DP?c?w?$DP?$AA@ ; err_msg
	DD	FLAT:??_C@_0N@INFHKGBA@?$KD?S?$KD?t?$KD?e?$KD?p?$DP?$DP?$DP?$DP?$AA@
	DD	FLAT:??_C@_09JCKPJEPE@?k?e?$DP?r?$KG?o?R?$DP?$DP?$AA@
	DD	FLAT:??_C@_08IOICGCMD@?$KD?L?r?$KG?V?$LF?$DP?$DP?$AA@
	DD	FLAT:??_C@_08CBNMEIFN@?$KD?T?r?$KG?V?$LF?$DP?$DP?$AA@
	DD	FLAT:??_C@_08GDPJEPCA@?$KD?V?r?$KG?V?$LF?$DP?$DP?$AA@
	DD	FLAT:??_C@_0L@POFHDIIK@?$KD?$MA?$KD?V?r?$KG?V?$LF?$DP?$DP?$AA@
	DD	FLAT:??_C@_0L@DIDIDBAN@?$KD?$MA?$KD?P?r?$KG?V?$LF?$DP?$DP?$AA@
	DD	FLAT:??_C@_0L@ICOMAJKB@?$KD?$MA?$KD?F?r?$KG?V?$LF?$DP?$DP?$AA@
	DD	FLAT:??_C@_08NJCNHHIM@?$KD?$MA?r?$KG?V?$LF?$DP?$DP?$AA@
	DD	FLAT:??_C@_0P@BPNGJDFB@?$KD?C?$KD?o?$KD?o?$KD?k?r?$KG?V?$LF?$DP?$DP?$AA@
	DD	FLAT:??_C@_08ICLMPPGO@?$KD?M?$KD?M?$KD?L?$DP?$DP?$AA@
	DD	FLAT:??_C@_0L@MAMJAONM@?$KD?$MA?$KD?D?r?$KG?V?$LF?$DP?$DP?$AA@
	DD	FLAT:??_C@_0L@NLIJCIGI@?q?$LC?w?n?$DP?u?$LB?$DP?$DP?$DP?$AA@
	DD	FLAT:??_C@_0O@BDPOMKKB@?f?Q?q?$LE?k?e?$DP?r?$KG?o?R?$DP?$DP?$AA@
	DD	FLAT:??_C@_0N@PMDODFEN@?Z?c?$DP?$DP?$NL?$KP?r?$KG?V?$LF?$DP?$DP?$AA@
	DD	FLAT:??_C@_0M@KADLMLCJ@?Z?c?$DP?$DP?$NL?$KP?$DP?$NM?t?y?j?$AA@
	DD	FLAT:??_C@_0L@KBDAPCLE@?$DP?k?e?$DP?r?$KG?o?R?$DP?$DP?$AA@
	DD	FLAT:??_C@_0L@DCPNDIBE@?$KD?$MA?$KD?W?r?$KG?V?$LF?$DP?$DP?$AA@
	DD	FLAT:??_C@_09DBOICEHL@?$DP?q?$LE?r?$KG?V?$LF?$DP?$DP?$AA@
	DD	FLAT:??_C@_08GJDMEGDJ@?$KD?Q?r?$KG?V?$LF?$DP?$DP?$AA@
	DD	FLAT:??_C@_0L@BJOJBMHA@?$KD?$MA?$KD?K?r?$KG?V?$LF?$DP?$DP?$AA@
	DD	FLAT:??_C@_06HJKPLLII@?$PL?z?k?e?$DP?$DP?$AA@
	DD	FLAT:??_C@_08NGFCA@?$KD?O?r?$KG?V?$LF?$DP?$DP?$AA@
	DD	FLAT:??_C@_0L@JHGGBLJD@?$KD?$MA?$KD?H?r?$KG?V?$LF?$DP?$DP?$AA@
	DD	FLAT:??_C@_0L@NPIGBFPH@?$KD?$MA?$KD?M?r?$KG?V?$LF?$DP?$DP?$AA@
	DD	FLAT:??_C@_0L@LGLHDGOO@?$KD?$MA?$KD?S?r?$KG?V?$LF?$DP?$DP?$AA@
?note_change_tbl@@3PAHA DD 09H				; note_change_tbl
	DD	0bH
	DD	00H
	DD	02H
	DD	04H
	DD	05H
	DD	07H
?freq_tbl@@3PAHA DD 05b4H				; freq_tbl
	DD	0ac4H
	DD	0b68H
	DD	0c15H
	DD	0ccdH
	DD	0d90H
	DD	0e5fH
	DD	0f1aH
	DD	01021H
	DD	01117H
	DD	0121bH
	DD	0132eH
	DD	01452H
	DD	01588H
	DD	016d0H
	DD	0182bH
	DD	0199bH
	DD	01b21H
	DD	01cbeH
	DD	01e34H
	DD	02043H
	DD	0222eH
	DD	02436H
	DD	0265dH
	DD	028a5H
	DD	02b11H
	DD	02da0H
	DD	03057H
	DD	03336H
	DD	03642H
	DD	0397cH
	DD	03c68H
	DD	04086H
	DD	0445dH
	DD	0486dH
	DD	04cbbH
	DD	0514bH
	DD	05622H
	DD	05b40H
	DD	060aeH
	DD	0666dH
	DD	06c84H
	DD	072f8H
	DD	078d1H
	DD	0810dH
	DD	088baH
	DD	090daH
	DD	09977H
	DD	0a297H
	DD	0ac44H
	DD	0b681H
	DD	0c15cH
	DD	0ccdbH
	DD	0d909H
	DD	0e5f1H
	DD	0f1a3H
	DD	01021aH
	DD	011174H
	DD	0121b5H
	DD	0132efH
	DD	01452fH
	DD	015888H
	DD	016d02H
	DD	0182b9H
	DD	0199b7H
	DD	01b213H
	DD	01cbe3H
	DD	01e346H
	DD	020435H
	DD	0222e8H
	DD	02436bH
	DD	0265deH
	DD	028a5fH
?cdda_check_cnt@@3HA DD 0ffffffffH			; cdda_check_cnt
_DATA	ENDS
PUBLIC	?t_music_init@@YAHXZ				; t_music_init
PUBLIC	?t_music_end@@YAXXZ				; t_music_end
PUBLIC	?check_se_loop@@YAXXZ				; check_se_loop
PUBLIC	?cdda_play@@YA_NH@Z				; cdda_play
PUBLIC	?cdda_stop@@YA_NXZ				; cdda_stop
PUBLIC	?play_se@@YAHHHH@Z				; play_se
PUBLIC	?play_bgm@@YAHH@Z				; play_bgm
PUBLIC	?bgm_volume_change@@YAXXZ			; bgm_volume_change
PUBLIC	?set_gbm_pitch@@YAXXZ				; set_gbm_pitch
PUBLIC	?stop_bgm@@YAXXZ				; stop_bgm
PUBLIC	?fade_out_bgm@@YAXXZ				; fade_out_bgm
PUBLIC	?play_environment@@YAHHHH@Z			; play_environment
PUBLIC	?play_map_bgm@@YAHH@Z				; play_map_bgm
PUBLIC	___local_stdio_printf_options
PUBLIC	??$__vcrt_va_start_verify_argument_type@QBD@@YAXXZ ; __vcrt_va_start_verify_argument_type<char const * const>
PUBLIC	__vsnprintf_l
PUBLIC	__vsprintf_l
PUBLIC	_sprintf
PUBLIC	?LoadWave@@YAHPBDAAPAUtWAVEFORMATEX@@AAPAEAAK@Z	; LoadWave
PUBLIC	?CreateSoundData@@YAHPBDAAPAUIDirectSoundBuffer@@@Z ; CreateSoundData
PUBLIC	?f_get@@YAHPAU_iobuf@@@Z			; f_get
PUBLIC	?get_num@@YAHPAU_iobuf@@@Z			; get_num
PUBLIC	?num_check@@YAHPAU_iobuf@@@Z			; num_check
PUBLIC	?InitDSound@@YAHXZ				; InitDSound
PUBLIC	?stop_thread@@YAXXZ				; stop_thread
PUBLIC	?EndApp@@YAHXZ					; EndApp
PUBLIC	?get_num2@@YAHPAU_iobuf@@@Z			; get_num2
PUBLIC	?num_check2@@YAHPAU_iobuf@@@Z			; num_check2
PUBLIC	?get_step@@YAHPAU_iobuf@@H@Z			; get_step
PUBLIC	?music_read@@YAHXZ				; music_read
PUBLIC	?music_init@@YAXXZ				; music_init
PUBLIC	?play_stop@@YAXXZ				; play_stop
PUBLIC	?play_start@@YAXXZ				; play_start
PUBLIC	?voice_lfo@@YAXH@Z				; voice_lfo
PUBLIC	?voice_action@@YAXH@Z				; voice_action
PUBLIC	?set_voice_param@@YAXHJHH@Z			; set_voice_param
PUBLIC	?set_tone@@YAHHJHH@Z				; set_tone
PUBLIC	?stop_voice@@YAXXZ				; stop_voice
PUBLIC	?gate@@YAXXZ					; gate
PUBLIC	?music@@YAXXZ					; music
PUBLIC	?Block_Copy@@YAXPAUIDirectSoundBuffer@@KKPAEAAJJ@Z ; Block_Copy
PUBLIC	?MyThreadFunc@@YGKPAX@Z				; MyThreadFunc
PUBLIC	?play_environment_tone@@YAHHH@Z			; play_environment_tone
PUBLIC	?play_map_bgm_check@@YAXXZ			; play_map_bgm_check
PUBLIC	?play_environment_check@@YAXXZ			; play_environment_check
PUBLIC	?bgm_fade_check@@YAXXZ				; bgm_fade_check
PUBLIC	?cdda_open@@YA_NH@Z				; cdda_open
PUBLIC	?cdda_start@@YA_NH@Z				; cdda_start
PUBLIC	?_OptionsStorage@?1??__local_stdio_printf_options@@9@4_KA ; `__local_stdio_printf_options'::`2'::_OptionsStorage
PUBLIC	??_C@_04HFHJMNCD@WAVE?$AA@			; `string'
PUBLIC	??_C@_0BD@KCLMPBKD@data?2se?2sap_01?4wav?$AA@	; `string'
PUBLIC	??_C@_0BD@CECIIDAN@data?2se?2sap_02?4wav?$AA@	; `string'
PUBLIC	??_C@_0BD@OPHEFAKI@data?2se?2sap_03?4wav?$AA@	; `string'
PUBLIC	??_C@_0BD@PCHBGABA@data?2se?2sap_04?4wav?$AA@	; `string'
PUBLIC	??_C@_0BD@DJCNLDLF@data?2se?2sap_05?4wav?$AA@	; `string'
PUBLIC	??_C@_0BD@LPLJMBBL@data?2se?2sap_06?4wav?$AA@	; `string'
PUBLIC	??_C@_0BD@HEOFBCLO@data?2se?2sap_07?4wav?$AA@	; `string'
PUBLIC	??_C@_0BD@IFLDKAGL@data?2se?2sap_08?4wav?$AA@	; `string'
PUBLIC	??_C@_0BD@EOOPHDMO@data?2se?2sap_09?4wav?$AA@	; `string'
PUBLIC	??_C@_0BD@MPJHCJLC@data?2se?2sap_10?4wav?$AA@	; `string'
PUBLIC	??_C@_0BD@EMLPKBH@data?2se?2sap_11?4wav?$AA@	; `string'
PUBLIC	??_C@_0BD@FEAGGLKE@data?2se?2sap_14?4wav?$AA@	; `string'
PUBLIC	??_C@_0BD@ICFPIILJ@data?2se?2sap_12?4wav?$AA@	; `string'
PUBLIC	??_C@_0BD@EJADFLBM@data?2se?2sap_13?4wav?$AA@	; `string'
PUBLIC	??_C@_0BD@EEOLPGJN@data?2se?2sae_01?4wav?$AA@	; `string'
PUBLIC	??_C@_0BD@MCHPIEDD@data?2se?2sae_02?4wav?$AA@	; `string'
PUBLIC	??_C@_0BD@JCDFHJG@data?2se?2sae_03?4wav?$AA@	; `string'
PUBLIC	??_C@_0BD@BECGGHCO@data?2se?2sae_04?4wav?$AA@	; `string'
PUBLIC	??_C@_0BD@NPHKLEIL@data?2se?2sae_05?4wav?$AA@	; `string'
PUBLIC	??_C@_0BD@FJOOMGCF@data?2se?2sae_06?4wav?$AA@	; `string'
PUBLIC	??_C@_0BD@JCLCBFIA@data?2se?2sae_07?4wav?$AA@	; `string'
PUBLIC	??_C@_0BD@GDOEKHFF@data?2se?2sae_08?4wav?$AA@	; `string'
PUBLIC	??_C@_0BD@KILIHEPA@data?2se?2sae_09?4wav?$AA@	; `string'
PUBLIC	??_C@_0BD@CJMACOIM@data?2se?2sae_10?4wav?$AA@	; `string'
PUBLIC	??_C@_0BD@OCJMPNCJ@data?2se?2sae_11?4wav?$AA@	; `string'
PUBLIC	??_C@_0BD@GEAIIPIH@data?2se?2sae_12?4wav?$AA@	; `string'
PUBLIC	??_C@_0BD@KPFEFMCC@data?2se?2sae_13?4wav?$AA@	; `string'
PUBLIC	??_C@_0BD@LCFBGMJK@data?2se?2sae_14?4wav?$AA@	; `string'
PUBLIC	??_C@_0BD@HJANLPDP@data?2se?2sae_15?4wav?$AA@	; `string'
PUBLIC	??_C@_0BD@PPJJMNJB@data?2se?2sae_16?4wav?$AA@	; `string'
PUBLIC	??_C@_0BD@DEMFBODE@data?2se?2sae_17?4wav?$AA@	; `string'
PUBLIC	??_C@_0BD@MFJDKMOB@data?2se?2sae_18?4wav?$AA@	; `string'
PUBLIC	??_C@_0BD@OMPHPEE@data?2se?2sae_19?4wav?$AA@	; `string'
PUBLIC	??_C@_0BD@BICIDEBB@data?2se?2sae_20?4wav?$AA@	; `string'
PUBLIC	??_C@_0BD@NDHEOHLE@data?2se?2sae_21?4wav?$AA@	; `string'
PUBLIC	??_C@_0BD@FFOAJFBK@data?2se?2sae_22?4wav?$AA@	; `string'
PUBLIC	??_C@_0BD@JOLMEGLP@data?2se?2sae_23?4wav?$AA@	; `string'
PUBLIC	??_C@_0BD@IDLJHGAH@data?2se?2sae_24?4wav?$AA@	; `string'
PUBLIC	??_C@_0BD@EIOFKFKC@data?2se?2sae_25?4wav?$AA@	; `string'
PUBLIC	??_C@_0BD@MOHBNHAM@data?2se?2sae_26?4wav?$AA@	; `string'
PUBLIC	??_C@_0BD@FCNAEKJ@data?2se?2sae_27?4wav?$AA@	; `string'
PUBLIC	??_C@_0BD@PEHLLGHM@data?2se?2sae_28?4wav?$AA@	; `string'
PUBLIC	??_C@_0BD@DPCHGFNJ@data?2se?2sae_29?4wav?$AA@	; `string'
PUBLIC	??_C@_0BD@LOFPDPKF@data?2se?2sae_30?4wav?$AA@	; `string'
PUBLIC	??_C@_0BD@HFADOMAA@data?2se?2sae_31?4wav?$AA@	; `string'
PUBLIC	??_C@_0BD@PDJHJOKO@data?2se?2sae_32?4wav?$AA@	; `string'
PUBLIC	??_C@_0BD@PPDDFEIF@data?2se?2sam_01?4wav?$AA@	; `string'
PUBLIC	??_C@_0BD@HJKHCGCL@data?2se?2sam_02?4wav?$AA@	; `string'
PUBLIC	??_C@_0BD@LCPLPFIO@data?2se?2sam_03?4wav?$AA@	; `string'
PUBLIC	??_C@_0BD@KPPOMFDG@data?2se?2sam_04?4wav?$AA@	; `string'
PUBLIC	??_C@_0BD@GEKCBGJD@data?2se?2sam_05?4wav?$AA@	; `string'
PUBLIC	??_C@_0BD@OCDGGEDN@data?2se?2sam_06?4wav?$AA@	; `string'
PUBLIC	??_C@_0BD@CJGKLHJI@data?2se?2sam_07?4wav?$AA@	; `string'
PUBLIC	??_C@_0BD@NIDMAFEN@data?2se?2sam_08?4wav?$AA@	; `string'
PUBLIC	??_C@_0BD@BDGANGOI@data?2se?2sam_09?4wav?$AA@	; `string'
PUBLIC	??_C@_0BD@JCBIIMJE@data?2se?2sam_10?4wav?$AA@	; `string'
PUBLIC	??_C@_0BD@FJEEFPDB@data?2se?2sam_11?4wav?$AA@	; `string'
PUBLIC	??_C@_0BD@NPNACNJP@data?2se?2sam_12?4wav?$AA@	; `string'
PUBLIC	??_C@_0BD@BEIMPODK@data?2se?2sam_13?4wav?$AA@	; `string'
PUBLIC	??_C@_0BD@JIJMOIC@data?2se?2sam_14?4wav?$AA@	; `string'
PUBLIC	??_C@_0BD@MCNFBNCH@data?2se?2sam_15?4wav?$AA@	; `string'
PUBLIC	??_C@_0BD@EEEBGPIJ@data?2se?2sam_16?4wav?$AA@	; `string'
PUBLIC	??_C@_0BD@IPBNLMCM@data?2se?2sam_17?4wav?$AA@	; `string'
PUBLIC	??_C@_0BD@HOELAOPJ@data?2se?2sam_18?4wav?$AA@	; `string'
PUBLIC	??_C@_0BD@LFBHNNFM@data?2se?2sam_19?4wav?$AA@	; `string'
PUBLIC	??_C@_0BD@KDPAJGAJ@data?2se?2sam_20?4wav?$AA@	; `string'
PUBLIC	??_C@_0BD@GIKMEFKM@data?2se?2sam_21?4wav?$AA@	; `string'
PUBLIC	??_C@_0BD@OODIDHAC@data?2se?2sam_22?4wav?$AA@	; `string'
PUBLIC	??_C@_0BD@CFGEOEKH@data?2se?2sam_23?4wav?$AA@	; `string'
PUBLIC	??_C@_0BD@DIGBNEBP@data?2se?2sam_24?4wav?$AA@	; `string'
PUBLIC	??_C@_0BD@IMCJCNAP@data?2se?2sak_01?4wav?$AA@	; `string'
PUBLIC	??_C@_0BD@KLNFPKB@data?2se?2sak_02?4wav?$AA@	; `string'
PUBLIC	??_C@_0BD@MBOBIMAE@data?2se?2sak_03?4wav?$AA@	; `string'
PUBLIC	??_C@_0BD@NMOELMLM@data?2se?2sak_04?4wav?$AA@	; `string'
PUBLIC	??_C@_0BD@BHLIGPBJ@data?2se?2sak_05?4wav?$AA@	; `string'
PUBLIC	??_C@_0BD@JBCMBNLH@data?2se?2sak_06?4wav?$AA@	; `string'
PUBLIC	??_C@_0BD@FKHAMOBC@data?2se?2sak_07?4wav?$AA@	; `string'
PUBLIC	??_C@_0BD@KLCGHMMH@data?2se?2sak_08?4wav?$AA@	; `string'
PUBLIC	??_C@_0BE@HNKPAMBO@data?2se?2sak_09a?4wav?$AA@	; `string'
PUBLIC	??_C@_0BD@OBACPFBO@data?2se?2sak_10?4wav?$AA@	; `string'
PUBLIC	??_C@_0BD@CKFOCGLL@data?2se?2sak_11?4wav?$AA@	; `string'
PUBLIC	??_C@_0BD@KMMKFEBF@data?2se?2sak_12?4wav?$AA@	; `string'
PUBLIC	??_C@_0BD@GHJGIHLA@data?2se?2sak_13?4wav?$AA@	; `string'
PUBLIC	??_C@_0BD@HKJDLHAI@data?2se?2sak_14?4wav?$AA@	; `string'
PUBLIC	??_C@_0BD@LBMPGEKN@data?2se?2sak_15?4wav?$AA@	; `string'
PUBLIC	??_C@_0BD@DHFLBGAD@data?2se?2sak_16?4wav?$AA@	; `string'
PUBLIC	??_C@_0BD@PMAHMFKG@data?2se?2sak_17?4wav?$AA@	; `string'
PUBLIC	??_C@_0BE@PLDLHOLA@data?2se?2sak_09b?4wav?$AA@	; `string'
PUBLIC	??_C@_0BD@JLDBMNGG@data?2se?2sas_01?4wav?$AA@	; `string'
PUBLIC	??_C@_0BD@BNKFLPMI@data?2se?2sas_02?4wav?$AA@	; `string'
PUBLIC	??_C@_0BD@NGPJGMGN@data?2se?2sas_03?4wav?$AA@	; `string'
PUBLIC	??_C@_0BD@MLPMFMNF@data?2se?2sas_04?4wav?$AA@	; `string'
PUBLIC	??_C@_0BD@KAIPHA@data?2se?2sas_05?4wav?$AA@	; `string'
PUBLIC	??_C@_0BD@IGDEPNNO@data?2se?2sas_06?4wav?$AA@	; `string'
PUBLIC	??_C@_0BD@ENGICOHL@data?2se?2sas_07?4wav?$AA@	; `string'
PUBLIC	??_C@_0BD@LMDOJMKO@data?2se?2sas_08?4wav?$AA@	; `string'
PUBLIC	??_C@_0BD@HHGCEPAL@data?2se?2sas_09?4wav?$AA@	; `string'
PUBLIC	??_C@_0BD@PGBKBFHH@data?2se?2sas_10?4wav?$AA@	; `string'
PUBLIC	??_C@_0BD@DNEGMGNC@data?2se?2sas_11?4wav?$AA@	; `string'
PUBLIC	??_C@_0BD@LLNCLEHM@data?2se?2sas_12?4wav?$AA@	; `string'
PUBLIC	??_C@_0BD@HAIOGHNJ@data?2se?2sas_13?4wav?$AA@	; `string'
PUBLIC	??_C@_0BD@KGNHIEME@data?2se?2sas_15?4wav?$AA@	; `string'
PUBLIC	??_C@_0BD@CAEDPGGK@data?2se?2sas_16?4wav?$AA@	; `string'
PUBLIC	??_C@_0BD@OLBPCFMP@data?2se?2sas_17?4wav?$AA@	; `string'
PUBLIC	??_C@_0BD@BKEJJHBK@data?2se?2sas_18?4wav?$AA@	; `string'
PUBLIC	??_C@_0BD@NBBFEELP@data?2se?2sas_19?4wav?$AA@	; `string'
PUBLIC	??_C@_0BD@MHPCAPOK@data?2se?2sas_20?4wav?$AA@	; `string'
PUBLIC	??_C@_0BD@MKONMEP@data?2se?2sas_21?4wav?$AA@	; `string'
PUBLIC	??_C@_0BD@FDJAOCNO@data?2se?2sad_01?4wav?$AA@	; `string'
PUBLIC	??_C@_0BD@NFAEJAHA@data?2se?2sad_02?4wav?$AA@	; `string'
PUBLIC	??_C@_0BD@BOFIEDNF@data?2se?2sad_03?4wav?$AA@	; `string'
PUBLIC	??_C@_0BD@DFNHDGN@data?2se?2sad_04?4wav?$AA@	; `string'
PUBLIC	??_C@_0BD@MIABKAMI@data?2se?2sad_05?4wav?$AA@	; `string'
PUBLIC	??_C@_0BE@PKJHILLA@data?2se?2saam_01?4wav?$AA@	; `string'
PUBLIC	??_C@_0BE@HMADPJBO@data?2se?2saam_02?4wav?$AA@	; `string'
PUBLIC	??_C@_0BE@LHFPCKLL@data?2se?2saam_03?4wav?$AA@	; `string'
PUBLIC	??_C@_0BE@KKFKBKAD@data?2se?2saam_04?4wav?$AA@	; `string'
PUBLIC	??_C@_0BE@GBAGMJKG@data?2se?2saam_05?4wav?$AA@	; `string'
PUBLIC	??_C@_0BE@OHJCLLAI@data?2se?2saam_06?4wav?$AA@	; `string'
PUBLIC	??_C@_0BE@CMMOGIKN@data?2se?2saam_07?4wav?$AA@	; `string'
PUBLIC	??_C@_0BE@NNJINKHI@data?2se?2saam_08?4wav?$AA@	; `string'
PUBLIC	??_C@_0BE@BGMEAJNN@data?2se?2saam_09?4wav?$AA@	; `string'
PUBLIC	??_C@_0BE@JHLMFDKB@data?2se?2saam_10?4wav?$AA@	; `string'
PUBLIC	??_C@_0BE@FMOAIAAE@data?2se?2saam_11?4wav?$AA@	; `string'
PUBLIC	??_C@_0BE@NKHEPCKK@data?2se?2saam_12?4wav?$AA@	; `string'
PUBLIC	??_C@_0BE@BBCICBAP@data?2se?2saam_13?4wav?$AA@	; `string'
PUBLIC	??_C@_0BE@MCNBBLH@data?2se?2saam_14?4wav?$AA@	; `string'
PUBLIC	??_C@_0BE@MHHBMCBC@data?2se?2saam_15?4wav?$AA@	; `string'
PUBLIC	??_C@_0BE@EBOFLALM@data?2se?2saam_16?4wav?$AA@	; `string'
PUBLIC	??_C@_0BE@IKLJGDBJ@data?2se?2saam_17?4wav?$AA@	; `string'
PUBLIC	??_C@_0BE@HLOPNBMM@data?2se?2saam_18?4wav?$AA@	; `string'
PUBLIC	??_C@_0BE@LALDACGJ@data?2se?2saam_19?4wav?$AA@	; `string'
PUBLIC	??_C@_0BE@KGFEEJDM@data?2se?2saam_20?4wav?$AA@	; `string'
PUBLIC	??_C@_0BE@GNAIJKJJ@data?2se?2saam_21?4wav?$AA@	; `string'
PUBLIC	??_C@_0BE@OLJMOIDH@data?2se?2saam_22?4wav?$AA@	; `string'
PUBLIC	??_C@_0BE@CAMADLJC@data?2se?2saam_23?4wav?$AA@	; `string'
PUBLIC	??_C@_0BE@DNMFALCK@data?2se?2saam_24?4wav?$AA@	; `string'
PUBLIC	??_C@_0BE@PGJJNIIP@data?2se?2saam_25?4wav?$AA@	; `string'
PUBLIC	??_C@_0BE@HAANKKCB@data?2se?2saam_26?4wav?$AA@	; `string'
PUBLIC	??_C@_0BE@LLFBHJIE@data?2se?2saam_27?4wav?$AA@	; `string'
PUBLIC	??_C@_0BD@GLFFOGOH@data?2se?2sa1_01?4wav?$AA@	; `string'
PUBLIC	??_C@_0BD@ONMBJEEJ@data?2se?2sa1_02?4wav?$AA@	; `string'
PUBLIC	??_C@_0BD@FCNINKCC@data?2se?2sa2_01?4wav?$AA@	; `string'
PUBLIC	??_C@_0BD@NEEMKIIM@data?2se?2sa2_02?4wav?$AA@	; `string'
PUBLIC	??_C@_0BD@BPBAHLCJ@data?2se?2sa2_03?4wav?$AA@	; `string'
PUBLIC	??_C@_0BD@CBFELJB@data?2se?2sa2_04?4wav?$AA@	; `string'
PUBLIC	??_C@_0BD@MJEJJIDE@data?2se?2sa2_05?4wav?$AA@	; `string'
PUBLIC	??_C@_0BD@EPNNOKJK@data?2se?2sa2_06?4wav?$AA@	; `string'
PUBLIC	??_C@_0BD@IEIBDJDP@data?2se?2sa2_07?4wav?$AA@	; `string'
PUBLIC	??_C@_0BD@HFNHILOK@data?2se?2sa2_08?4wav?$AA@	; `string'
PUBLIC	??_C@_0BD@LOILFIEP@data?2se?2sa2_09?4wav?$AA@	; `string'
PUBLIC	??_C@_0BD@DPPDACDD@data?2se?2sa2_10?4wav?$AA@	; `string'
PUBLIC	??_C@_0BD@EFKDMOGB@data?2se?2sa3_01?4wav?$AA@	; `string'
PUBLIC	??_C@_0BD@MDDHLMMP@data?2se?2sa3_02?4wav?$AA@	; `string'
PUBLIC	??_C@_0BD@IGLGPGK@data?2se?2sa3_03?4wav?$AA@	; `string'
PUBLIC	??_C@_0BD@BFGOFPNC@data?2se?2sa3_04?4wav?$AA@	; `string'
PUBLIC	??_C@_0BD@NODCIMHH@data?2se?2sa3_05?4wav?$AA@	; `string'
PUBLIC	??_C@_0BD@FIKGPONJ@data?2se?2sa3_06?4wav?$AA@	; `string'
PUBLIC	??_C@_0BD@JDPKCNHM@data?2se?2sa3_07?4wav?$AA@	; `string'
PUBLIC	??_C@_0BD@CGJNEHOM@data?2se?2sa1_03?4wav?$AA@	; `string'
PUBLIC	??_C@_0BD@DLJIHHFE@data?2se?2sa1_04?4wav?$AA@	; `string'
PUBLIC	??_C@_0BD@PAMEKEPB@data?2se?2sa1_05?4wav?$AA@	; `string'
PUBLIC	??_C@_0BD@HGFANGFP@data?2se?2sa1_06?4wav?$AA@	; `string'
PUBLIC	??_C@_0BD@LNAMAFPK@data?2se?2sa1_07?4wav?$AA@	; `string'
PUBLIC	??_C@_0BD@EMFKLHCP@data?2se?2sa1_08?4wav?$AA@	; `string'
PUBLIC	??_C@_0BD@IHAGGEIK@data?2se?2sa1_09?4wav?$AA@	; `string'
PUBLIC	??_C@_0BD@GHODOPG@data?2se?2sa1_10?4wav?$AA@	; `string'
PUBLIC	??_C@_0BD@MNCCONFD@data?2se?2sa1_11?4wav?$AA@	; `string'
PUBLIC	??_C@_0BD@ELLGJPPN@data?2se?2sa1_12?4wav?$AA@	; `string'
PUBLIC	??_C@_0BD@GCKMJPKJ@data?2se?2sa3_08?4wav?$AA@	; `string'
PUBLIC	??_C@_0BD@KJPAEMAM@data?2se?2sa3_09?4wav?$AA@	; `string'
PUBLIC	??_C@_0BD@IAOKEMFI@data?2se?2sa1_13?4wav?$AA@	; `string'
PUBLIC	??_C@_0BD@JNOPHMOA@data?2se?2sa1_14?4wav?$AA@	; `string'
PUBLIC	??_C@_0BD@FGLDKPEF@data?2se?2sa1_15?4wav?$AA@	; `string'
PUBLIC	??_C@_0BD@NACHNNOL@data?2se?2sa1_16?4wav?$AA@	; `string'
PUBLIC	??_C@_0BD@BLHLAOEO@data?2se?2sa1_17?4wav?$AA@	; `string'
PUBLIC	??_C@_0BD@OKCNLMJL@data?2se?2sa1_18?4wav?$AA@	; `string'
PUBLIC	??_C@_0BD@CBHBGPDO@data?2se?2sa1_19?4wav?$AA@	; `string'
PUBLIC	??_C@_0BD@DHJGCEGL@data?2se?2sa1_20?4wav?$AA@	; `string'
PUBLIC	??_C@_0BD@PMMKPHMO@data?2se?2sa1_21?4wav?$AA@	; `string'
PUBLIC	??_C@_0BD@HKFOIFGA@data?2se?2sa1_22?4wav?$AA@	; `string'
PUBLIC	??_C@_0BD@LBACFGMF@data?2se?2sa1_23?4wav?$AA@	; `string'
PUBLIC	??_C@_0BD@HCDLKDDI@data?2se?2sa2_12?4wav?$AA@	; `string'
PUBLIC	??_C@_0BD@BJGEFDLL@data?2se?2sax_01?4wav?$AA@	; `string'
PUBLIC	??_C@_0BD@JPPACBBF@data?2se?2sax_02?4wav?$AA@	; `string'
PUBLIC	??_C@_0BD@FEKMPCLA@data?2se?2sax_03?4wav?$AA@	; `string'
PUBLIC	??_C@_0BD@BJLBGINM@data?2se?2sak_91?4wav?$AA@	; `string'
PUBLIC	??_C@_0BD@FEHJMJNH@data?2se?2sak_93?4wav?$AA@	; `string'
PUBLIC	??_C@_0BD@EJHMPJGP@data?2se?2sak_94?4wav?$AA@	; `string'
PUBLIC	??_C@_02JDPG@rb?$AA@				; `string'
PUBLIC	??_C@_01KDCPPGHE@r?$AA@				; `string'
PUBLIC	??_C@_07NFDJGGOK@oft?4mml?$AA@			; `string'
PUBLIC	??_C@_02DKCKIIND@?$CFs?$AA@			; `string'
PUBLIC	??_C@_0M@EFJNBEIB@?p?$KP?5?$CFd?5?z?$LM?5?$CFs?$AA@ ; `string'
PUBLIC	??_C@_0N@MJJPGILB@?p?$KP?5?$CFd?5?k?e?$DP?5?$CFs?$AA@ ; `string'
PUBLIC	??_C@_0O@PAAFIOGP@map?2bgm?$CFd?4dat?$AA@	; `string'
PUBLIC	??_C@_02DPKJAMEF@?$CFd?$AA@			; `string'
PUBLIC	??_C@_03CCKOKKND@rb?$CL?$AA@			; `string'
PUBLIC	??_C@_03HBNNNHNM@map?$AA@			; `string'
PUBLIC	??_C@_02GMLFBBN@wb?$AA@				; `string'
PUBLIC	?__LINE__Var@?0??cdda_open@@YA_NH@Z@4JA		; `cdda_open'::`1'::__LINE__Var
PUBLIC	??_C@_17CNPHIMPH@?$AA?$CF?$AAl?$AAs?$AA?$AA@	; `string'
PUBLIC	??_C@_1KO@IMAHILFL@?$AAc?$AA?3?$AA?2?$AAu?$AAs?$AAe?$AAr?$AAs?$AA?2?$AAa?$AAd?$AAm?$AAi?$AAn?$AAi?$AAs?$AAt?$AAr?$AAa?$AAt?$AAo?$AAr?$AA?2?$AAd?$AAe?$AAs?$AAk?$AAt?$AAo?$AAp?$AA?2?B?$KE@ ; `string'
PUBLIC	??_C@_07FIPNLLOL@cdaudio?$AA@			; `string'
PUBLIC	__real@0000000000000000
PUBLIC	__real@3ff0000000000000
PUBLIC	__real@4003880000000000
PUBLIC	__real@4059000000000000
PUBLIC	__real@405fc00000000000
PUBLIC	__real@40b3880000000000
PUBLIC	__real@40c3880000000000
PUBLIC	__real@42f00000
PUBLIC	__real@4644e000
PUBLIC	__real@c0c3880000000000
EXTRN	_memcpy:PROC
EXTRN	_memset:PROC
EXTRN	_strcpy:PROC
EXTRN	__imp__QueryPerformanceCounter@4:PROC
EXTRN	__imp__CreateEventA@16:PROC
EXTRN	__imp__Sleep@4:PROC
EXTRN	__imp__CreateThread@24:PROC
EXTRN	__imp__ExitThread@4:PROC
EXTRN	__imp__LoadResource@8:PROC
EXTRN	__imp__LockResource@4:PROC
EXTRN	__imp__WaitForMultipleObjects@16:PROC
EXTRN	__imp__FindResourceA@12:PROC
EXTRN	__imp__GetAsyncKeyState@4:PROC
EXTRN	__imp__mciSendCommandA@16:PROC
EXTRN	__imp__mmioOpenA@12:PROC
EXTRN	__imp__mmioClose@8:PROC
EXTRN	__imp__mmioRead@12:PROC
EXTRN	__imp__mmioDescend@16:PROC
EXTRN	__imp__mmioAscend@12:PROC
EXTRN	_abs:PROC
EXTRN	__imp___mkdir:PROC
EXTRN	__imp___CrtDbgReportW:PROC
EXTRN	?TimeGetTime@@YAIXZ:PROC			; TimeGetTime
EXTRN	_DirectSoundCreate@12:PROC
EXTRN	__imp__fclose:PROC
EXTRN	__imp__fgetc:PROC
EXTRN	__imp__fopen:PROC
EXTRN	__imp__fseek:PROC
EXTRN	__imp__fwrite:PROC
EXTRN	__imp____stdio_common_vsprintf:PROC
EXTRN	?Rnd@@YAHHH@Z:PROC				; Rnd
EXTRN	_log:PROC
EXTRN	_sqrt:PROC
EXTRN	@_RTC_CheckStackVars@8:PROC
EXTRN	@__security_check_cookie@4:PROC
EXTRN	__RTC_CheckEsp:PROC
EXTRN	__RTC_InitBase:PROC
EXTRN	__RTC_Shutdown:PROC
EXTRN	__chkstk:PROC
EXTRN	__ftol2_sse:PROC
EXTRN	_memset:PROC
EXTRN	?SaTimeZoneNo@@3HA:DWORD			; SaTimeZoneNo
EXTRN	?sCharSide@@3HA:DWORD				; sCharSide
EXTRN	?NowTime@@3KA:DWORD				; NowTime
EXTRN	_IID_IDirectSoundNotify:BYTE
EXTRN	?hWnd@@3PAUHWND__@@A:DWORD			; hWnd
EXTRN	___security_cookie:DWORD
EXTRN	__fltused:DWORD
;	COMDAT ?_OptionsStorage@?1??__local_stdio_printf_options@@9@4_KA
_BSS	SEGMENT
?_OptionsStorage@?1??__local_stdio_printf_options@@9@4_KA DQ 01H DUP (?) ; `__local_stdio_printf_options'::`2'::_OptionsStorage
_BSS	ENDS
_BSS	SEGMENT
?pDSbuffData@@3PAEA DD 01H DUP (?)			; pDSbuffData
?thread_loop_start@@3HA DD 01H DUP (?)			; thread_loop_start
?d_cnt@@3T_LARGE_INTEGER@@A DQ 01H DUP (?)		; d_cnt
?ch@@3HA DD	01H DUP (?)				; ch
?step_time@@3PAHA DD 020H DUP (?)			; step_time
?gate_time@@3PAHA DD 020H DUP (?)			; gate_time
?d_pedal@@3PAHA DD 020H DUP (?)				; d_pedal
?wave@@3PAHA DD	020H DUP (?)				; wave
?step_point@@3PAHA DD 020H DUP (?)			; step_point
?step_def@@3PAHA DD 020H DUP (?)			; step_def
?play_flg@@3PAHA DD 020H DUP (?)			; play_flg
?play_track_flg@@3PAHA DD 020H DUP (?)			; play_track_flg
?play_kuri_num@@3PAY0CA@HA DD 0100H DUP (?)		; play_kuri_num
?play_kuri_lv@@3PAHA DD 020H DUP (?)			; play_kuri_lv
?play_use_task@@3PAY07HA DD 0100H DUP (?)		; play_use_task
?dataToneNo@@3PAHA DD 020H DUP (?)			; dataToneNo
?tie_flg@@3PAHA DD 020H DUP (?)				; tie_flg
?note_old@@3PAY07HA DD 0100H DUP (?)			; note_old
?play_use_task_cnt@@3PAHA DD 020H DUP (?)		; play_use_task_cnt
?play_detune@@3PAHA DD 020H DUP (?)			; play_detune
?play_lfo_h@@3PAHA DD 020H DUP (?)			; play_lfo_h
?play_lfo_m@@3PAHA DD 020H DUP (?)			; play_lfo_m
?play_lfo_s@@3PAHA DD 020H DUP (?)			; play_lfo_s
?pause_flg@@3HA DD 01H DUP (?)				; pause_flg
?tempo@@3T_LARGE_INTEGER@@A DQ 01H DUP (?)		; tempo
?step@@3PAY0EAAA@HA DD 080000H DUP (?)			; step
?volume_tbl@@3PAJA DD 080H DUP (?)			; volume_tbl
?panpot_tbl@@3PAJA DD 080H DUP (?)			; panpot_tbl
?detune_tbl@@3PAHA DD 041H DUP (?)			; detune_tbl
?cdda_flg@@3HA DD 01H DUP (?)				; cdda_flg
_BSS	ENDS
;	COMDAT __real@c0c3880000000000
CONST	SEGMENT
__real@c0c3880000000000 DQ 0c0c3880000000000r	; -10000
CONST	ENDS
;	COMDAT __real@4644e000
CONST	SEGMENT
__real@4644e000 DD 04644e000r			; 12600
CONST	ENDS
;	COMDAT __real@42f00000
CONST	SEGMENT
__real@42f00000 DD 042f00000r			; 120
CONST	ENDS
;	COMDAT __real@40c3880000000000
CONST	SEGMENT
__real@40c3880000000000 DQ 040c3880000000000r	; 10000
CONST	ENDS
;	COMDAT __real@40b3880000000000
CONST	SEGMENT
__real@40b3880000000000 DQ 040b3880000000000r	; 5000
CONST	ENDS
;	COMDAT __real@405fc00000000000
CONST	SEGMENT
__real@405fc00000000000 DQ 0405fc00000000000r	; 127
CONST	ENDS
;	COMDAT __real@4059000000000000
CONST	SEGMENT
__real@4059000000000000 DQ 04059000000000000r	; 100
CONST	ENDS
;	COMDAT __real@4003880000000000
CONST	SEGMENT
__real@4003880000000000 DQ 04003880000000000r	; 2.44141
CONST	ENDS
;	COMDAT __real@3ff0000000000000
CONST	SEGMENT
__real@3ff0000000000000 DQ 03ff0000000000000r	; 1
CONST	ENDS
;	COMDAT __real@0000000000000000
CONST	SEGMENT
__real@0000000000000000 DQ 00000000000000000r	; 0
CONST	ENDS
;	COMDAT rtc$TMZ
rtc$TMZ	SEGMENT
__RTC_Shutdown.rtc$TMZ DD FLAT:__RTC_Shutdown
rtc$TMZ	ENDS
;	COMDAT rtc$IMZ
rtc$IMZ	SEGMENT
__RTC_InitBase.rtc$IMZ DD FLAT:__RTC_InitBase
rtc$IMZ	ENDS
;	COMDAT ??_C@_07FIPNLLOL@cdaudio?$AA@
CONST	SEGMENT
??_C@_07FIPNLLOL@cdaudio?$AA@ DB 'cdaudio', 00H		; `string'
CONST	ENDS
;	COMDAT ??_C@_1KO@IMAHILFL@?$AAc?$AA?3?$AA?2?$AAu?$AAs?$AAe?$AAr?$AAs?$AA?2?$AAa?$AAd?$AAm?$AAi?$AAn?$AAi?$AAs?$AAt?$AAr?$AAa?$AAt?$AAo?$AAr?$AA?2?$AAd?$AAe?$AAs?$AAk?$AAt?$AAo?$AAp?$AA?2?B?$KE@
CONST	SEGMENT
??_C@_1KO@IMAHILFL@?$AAc?$AA?3?$AA?2?$AAu?$AAs?$AAe?$AAr?$AAs?$AA?2?$AAa?$AAd?$AAm?$AAi?$AAn?$AAi?$AAs?$AAt?$AAr?$AAa?$AAt?$AAo?$AAr?$AA?2?$AAd?$AAe?$AAs?$AAk?$AAt?$AAo?$AAp?$AA?2?B?$KE@ DB 'c'
	DB	00H, ':', 00H, '\', 00H, 'u', 00H, 's', 00H, 'e', 00H, 'r', 00H
	DB	's', 00H, '\', 00H, 'a', 00H, 'd', 00H, 'm', 00H, 'i', 00H, 'n'
	DB	00H, 'i', 00H, 's', 00H, 't', 00H, 'r', 00H, 'a', 00H, 't', 00H
	DB	'o', 00H, 'r', 00H, '\', 00H, 'd', 00H, 'e', 00H, 's', 00H, 'k'
	DB	00H, 't', 00H, 'o', 00H, 'p', 00H, '\', 00H, 0a4H, 0c2H, 0a4H, 0d1H
	DB	0d0H, 0c5H, 't', 0c7H, 0c0H, 0c9H, ' ', 00H, 090H, 0c7H, 0ccH, 0b8H
	DB	'\', 00H, 't', 0d0H, '|', 0b7H, 't', 0c7H, 0b8H, 0c5H, 0b8H, 0d2H
	DB	' ', 00H, 090H, 0c7H, 0ccH, 0b8H, '\', 00H, 'c', 00H, 'l', 00H
	DB	'i', 00H, 'e', 00H, 'n', 00H, 't', 00H, ' ', 00H, 's', 00H, 'o'
	DB	00H, 'u', 00H, 'r', 00H, 'c', 00H, 'e', 00H, ' ', 00H, 'c', 00H
	DB	'o', 00H, 'd', 00H, 'e', 00H, '\', 00H, 's', 00H, 'y', 00H, 's'
	DB	00H, 't', 00H, 'e', 00H, 'm', 00H, '\', 00H, 't', 00H, '_', 00H
	DB	'm', 00H, 'u', 00H, 's', 00H, 'i', 00H, 'c', 00H, '.', 00H, 'c'
	DB	00H, 'p', 00H, 'p', 00H, 00H, 00H		; `string'
CONST	ENDS
;	COMDAT ??_C@_17CNPHIMPH@?$AA?$CF?$AAl?$AAs?$AA?$AA@
CONST	SEGMENT
??_C@_17CNPHIMPH@?$AA?$CF?$AAl?$AAs?$AA?$AA@ DB '%', 00H, 'l', 00H, 's', 00H
	DB	00H, 00H					; `string'
CONST	ENDS
;	COMDAT ?__LINE__Var@?0??cdda_open@@YA_NH@Z@4JA
_DATA	SEGMENT
?__LINE__Var@?0??cdda_open@@YA_NH@Z@4JA DD 0ddcH	; `cdda_open'::`1'::__LINE__Var
_DATA	ENDS
;	COMDAT ??_C@_02GMLFBBN@wb?$AA@
CONST	SEGMENT
??_C@_02GMLFBBN@wb?$AA@ DB 'wb', 00H			; `string'
CONST	ENDS
;	COMDAT ??_C@_03HBNNNHNM@map?$AA@
CONST	SEGMENT
??_C@_03HBNNNHNM@map?$AA@ DB 'map', 00H			; `string'
CONST	ENDS
;	COMDAT ??_C@_03CCKOKKND@rb?$CL?$AA@
CONST	SEGMENT
??_C@_03CCKOKKND@rb?$CL?$AA@ DB 'rb+', 00H		; `string'
CONST	ENDS
;	COMDAT ??_C@_02DPKJAMEF@?$CFd?$AA@
CONST	SEGMENT
??_C@_02DPKJAMEF@?$CFd?$AA@ DB '%d', 00H		; `string'
CONST	ENDS
;	COMDAT ??_C@_0O@PAAFIOGP@map?2bgm?$CFd?4dat?$AA@
CONST	SEGMENT
??_C@_0O@PAAFIOGP@map?2bgm?$CFd?4dat?$AA@ DB 'map\bgm%d.dat', 00H ; `string'
CONST	ENDS
;	COMDAT ??_C@_0N@MJJPGILB@?p?$KP?5?$CFd?5?k?e?$DP?5?$CFs?$AA@
CONST	SEGMENT
??_C@_0N@MJJPGILB@?p?$KP?5?$CFd?5?k?e?$DP?5?$CFs?$AA@ DB 0f0H, 0afH, ' %d'
	DB	' ', 0ebH, 0e5H, '? %s', 00H			; `string'
CONST	ENDS
;	COMDAT ??_C@_0M@EFJNBEIB@?p?$KP?5?$CFd?5?z?$LM?5?$CFs?$AA@
CONST	SEGMENT
??_C@_0M@EFJNBEIB@?p?$KP?5?$CFd?5?z?$LM?5?$CFs?$AA@ DB 0f0H, 0afH, ' %d ', 0faH
	DB	0bcH, ' %s', 00H				; `string'
CONST	ENDS
;	COMDAT ??_C@_02DKCKIIND@?$CFs?$AA@
CONST	SEGMENT
??_C@_02DKCKIIND@?$CFs?$AA@ DB '%s', 00H		; `string'
CONST	ENDS
;	COMDAT ??_C@_07NFDJGGOK@oft?4mml?$AA@
CONST	SEGMENT
??_C@_07NFDJGGOK@oft?4mml?$AA@ DB 'oft.mml', 00H	; `string'
CONST	ENDS
;	COMDAT ??_C@_01KDCPPGHE@r?$AA@
CONST	SEGMENT
??_C@_01KDCPPGHE@r?$AA@ DB 'r', 00H			; `string'
CONST	ENDS
;	COMDAT ??_C@_02JDPG@rb?$AA@
CONST	SEGMENT
??_C@_02JDPG@rb?$AA@ DB 'rb', 00H			; `string'
CONST	ENDS
;	COMDAT ??_C@_0BD@EJHMPJGP@data?2se?2sak_94?4wav?$AA@
CONST	SEGMENT
??_C@_0BD@EJHMPJGP@data?2se?2sak_94?4wav?$AA@ DB 'data\se\sak_94.wav', 00H ; `string'
CONST	ENDS
;	COMDAT ??_C@_0BD@FEHJMJNH@data?2se?2sak_93?4wav?$AA@
CONST	SEGMENT
??_C@_0BD@FEHJMJNH@data?2se?2sak_93?4wav?$AA@ DB 'data\se\sak_93.wav', 00H ; `string'
CONST	ENDS
;	COMDAT ??_C@_0BD@BJLBGINM@data?2se?2sak_91?4wav?$AA@
CONST	SEGMENT
??_C@_0BD@BJLBGINM@data?2se?2sak_91?4wav?$AA@ DB 'data\se\sak_91.wav', 00H ; `string'
CONST	ENDS
;	COMDAT ??_C@_0BD@FEKMPCLA@data?2se?2sax_03?4wav?$AA@
CONST	SEGMENT
??_C@_0BD@FEKMPCLA@data?2se?2sax_03?4wav?$AA@ DB 'data\se\sax_03.wav', 00H ; `string'
CONST	ENDS
;	COMDAT ??_C@_0BD@JPPACBBF@data?2se?2sax_02?4wav?$AA@
CONST	SEGMENT
??_C@_0BD@JPPACBBF@data?2se?2sax_02?4wav?$AA@ DB 'data\se\sax_02.wav', 00H ; `string'
CONST	ENDS
;	COMDAT ??_C@_0BD@BJGEFDLL@data?2se?2sax_01?4wav?$AA@
CONST	SEGMENT
??_C@_0BD@BJGEFDLL@data?2se?2sax_01?4wav?$AA@ DB 'data\se\sax_01.wav', 00H ; `string'
CONST	ENDS
;	COMDAT ??_C@_0BD@HCDLKDDI@data?2se?2sa2_12?4wav?$AA@
CONST	SEGMENT
??_C@_0BD@HCDLKDDI@data?2se?2sa2_12?4wav?$AA@ DB 'data\se\sa2_12.wav', 00H ; `string'
CONST	ENDS
;	COMDAT ??_C@_0BD@LBACFGMF@data?2se?2sa1_23?4wav?$AA@
CONST	SEGMENT
??_C@_0BD@LBACFGMF@data?2se?2sa1_23?4wav?$AA@ DB 'data\se\sa1_23.wav', 00H ; `string'
CONST	ENDS
;	COMDAT ??_C@_0BD@HKFOIFGA@data?2se?2sa1_22?4wav?$AA@
CONST	SEGMENT
??_C@_0BD@HKFOIFGA@data?2se?2sa1_22?4wav?$AA@ DB 'data\se\sa1_22.wav', 00H ; `string'
CONST	ENDS
;	COMDAT ??_C@_0BD@PMMKPHMO@data?2se?2sa1_21?4wav?$AA@
CONST	SEGMENT
??_C@_0BD@PMMKPHMO@data?2se?2sa1_21?4wav?$AA@ DB 'data\se\sa1_21.wav', 00H ; `string'
CONST	ENDS
;	COMDAT ??_C@_0BD@DHJGCEGL@data?2se?2sa1_20?4wav?$AA@
CONST	SEGMENT
??_C@_0BD@DHJGCEGL@data?2se?2sa1_20?4wav?$AA@ DB 'data\se\sa1_20.wav', 00H ; `string'
CONST	ENDS
;	COMDAT ??_C@_0BD@CBHBGPDO@data?2se?2sa1_19?4wav?$AA@
CONST	SEGMENT
??_C@_0BD@CBHBGPDO@data?2se?2sa1_19?4wav?$AA@ DB 'data\se\sa1_19.wav', 00H ; `string'
CONST	ENDS
;	COMDAT ??_C@_0BD@OKCNLMJL@data?2se?2sa1_18?4wav?$AA@
CONST	SEGMENT
??_C@_0BD@OKCNLMJL@data?2se?2sa1_18?4wav?$AA@ DB 'data\se\sa1_18.wav', 00H ; `string'
CONST	ENDS
;	COMDAT ??_C@_0BD@BLHLAOEO@data?2se?2sa1_17?4wav?$AA@
CONST	SEGMENT
??_C@_0BD@BLHLAOEO@data?2se?2sa1_17?4wav?$AA@ DB 'data\se\sa1_17.wav', 00H ; `string'
CONST	ENDS
;	COMDAT ??_C@_0BD@NACHNNOL@data?2se?2sa1_16?4wav?$AA@
CONST	SEGMENT
??_C@_0BD@NACHNNOL@data?2se?2sa1_16?4wav?$AA@ DB 'data\se\sa1_16.wav', 00H ; `string'
CONST	ENDS
;	COMDAT ??_C@_0BD@FGLDKPEF@data?2se?2sa1_15?4wav?$AA@
CONST	SEGMENT
??_C@_0BD@FGLDKPEF@data?2se?2sa1_15?4wav?$AA@ DB 'data\se\sa1_15.wav', 00H ; `string'
CONST	ENDS
;	COMDAT ??_C@_0BD@JNOPHMOA@data?2se?2sa1_14?4wav?$AA@
CONST	SEGMENT
??_C@_0BD@JNOPHMOA@data?2se?2sa1_14?4wav?$AA@ DB 'data\se\sa1_14.wav', 00H ; `string'
CONST	ENDS
;	COMDAT ??_C@_0BD@IAOKEMFI@data?2se?2sa1_13?4wav?$AA@
CONST	SEGMENT
??_C@_0BD@IAOKEMFI@data?2se?2sa1_13?4wav?$AA@ DB 'data\se\sa1_13.wav', 00H ; `string'
CONST	ENDS
;	COMDAT ??_C@_0BD@KJPAEMAM@data?2se?2sa3_09?4wav?$AA@
CONST	SEGMENT
??_C@_0BD@KJPAEMAM@data?2se?2sa3_09?4wav?$AA@ DB 'data\se\sa3_09.wav', 00H ; `string'
CONST	ENDS
;	COMDAT ??_C@_0BD@GCKMJPKJ@data?2se?2sa3_08?4wav?$AA@
CONST	SEGMENT
??_C@_0BD@GCKMJPKJ@data?2se?2sa3_08?4wav?$AA@ DB 'data\se\sa3_08.wav', 00H ; `string'
CONST	ENDS
;	COMDAT ??_C@_0BD@ELLGJPPN@data?2se?2sa1_12?4wav?$AA@
CONST	SEGMENT
??_C@_0BD@ELLGJPPN@data?2se?2sa1_12?4wav?$AA@ DB 'data\se\sa1_12.wav', 00H ; `string'
CONST	ENDS
;	COMDAT ??_C@_0BD@MNCCONFD@data?2se?2sa1_11?4wav?$AA@
CONST	SEGMENT
??_C@_0BD@MNCCONFD@data?2se?2sa1_11?4wav?$AA@ DB 'data\se\sa1_11.wav', 00H ; `string'
CONST	ENDS
;	COMDAT ??_C@_0BD@GHODOPG@data?2se?2sa1_10?4wav?$AA@
CONST	SEGMENT
??_C@_0BD@GHODOPG@data?2se?2sa1_10?4wav?$AA@ DB 'data\se\sa1_10.wav', 00H ; `string'
CONST	ENDS
;	COMDAT ??_C@_0BD@IHAGGEIK@data?2se?2sa1_09?4wav?$AA@
CONST	SEGMENT
??_C@_0BD@IHAGGEIK@data?2se?2sa1_09?4wav?$AA@ DB 'data\se\sa1_09.wav', 00H ; `string'
CONST	ENDS
;	COMDAT ??_C@_0BD@EMFKLHCP@data?2se?2sa1_08?4wav?$AA@
CONST	SEGMENT
??_C@_0BD@EMFKLHCP@data?2se?2sa1_08?4wav?$AA@ DB 'data\se\sa1_08.wav', 00H ; `string'
CONST	ENDS
;	COMDAT ??_C@_0BD@LNAMAFPK@data?2se?2sa1_07?4wav?$AA@
CONST	SEGMENT
??_C@_0BD@LNAMAFPK@data?2se?2sa1_07?4wav?$AA@ DB 'data\se\sa1_07.wav', 00H ; `string'
CONST	ENDS
;	COMDAT ??_C@_0BD@HGFANGFP@data?2se?2sa1_06?4wav?$AA@
CONST	SEGMENT
??_C@_0BD@HGFANGFP@data?2se?2sa1_06?4wav?$AA@ DB 'data\se\sa1_06.wav', 00H ; `string'
CONST	ENDS
;	COMDAT ??_C@_0BD@PAMEKEPB@data?2se?2sa1_05?4wav?$AA@
CONST	SEGMENT
??_C@_0BD@PAMEKEPB@data?2se?2sa1_05?4wav?$AA@ DB 'data\se\sa1_05.wav', 00H ; `string'
CONST	ENDS
;	COMDAT ??_C@_0BD@DLJIHHFE@data?2se?2sa1_04?4wav?$AA@
CONST	SEGMENT
??_C@_0BD@DLJIHHFE@data?2se?2sa1_04?4wav?$AA@ DB 'data\se\sa1_04.wav', 00H ; `string'
CONST	ENDS
;	COMDAT ??_C@_0BD@CGJNEHOM@data?2se?2sa1_03?4wav?$AA@
CONST	SEGMENT
??_C@_0BD@CGJNEHOM@data?2se?2sa1_03?4wav?$AA@ DB 'data\se\sa1_03.wav', 00H ; `string'
CONST	ENDS
;	COMDAT ??_C@_0BD@JDPKCNHM@data?2se?2sa3_07?4wav?$AA@
CONST	SEGMENT
??_C@_0BD@JDPKCNHM@data?2se?2sa3_07?4wav?$AA@ DB 'data\se\sa3_07.wav', 00H ; `string'
CONST	ENDS
;	COMDAT ??_C@_0BD@FIKGPONJ@data?2se?2sa3_06?4wav?$AA@
CONST	SEGMENT
??_C@_0BD@FIKGPONJ@data?2se?2sa3_06?4wav?$AA@ DB 'data\se\sa3_06.wav', 00H ; `string'
CONST	ENDS
;	COMDAT ??_C@_0BD@NODCIMHH@data?2se?2sa3_05?4wav?$AA@
CONST	SEGMENT
??_C@_0BD@NODCIMHH@data?2se?2sa3_05?4wav?$AA@ DB 'data\se\sa3_05.wav', 00H ; `string'
CONST	ENDS
;	COMDAT ??_C@_0BD@BFGOFPNC@data?2se?2sa3_04?4wav?$AA@
CONST	SEGMENT
??_C@_0BD@BFGOFPNC@data?2se?2sa3_04?4wav?$AA@ DB 'data\se\sa3_04.wav', 00H ; `string'
CONST	ENDS
;	COMDAT ??_C@_0BD@IGLGPGK@data?2se?2sa3_03?4wav?$AA@
CONST	SEGMENT
??_C@_0BD@IGLGPGK@data?2se?2sa3_03?4wav?$AA@ DB 'data\se\sa3_03.wav', 00H ; `string'
CONST	ENDS
;	COMDAT ??_C@_0BD@MDDHLMMP@data?2se?2sa3_02?4wav?$AA@
CONST	SEGMENT
??_C@_0BD@MDDHLMMP@data?2se?2sa3_02?4wav?$AA@ DB 'data\se\sa3_02.wav', 00H ; `string'
CONST	ENDS
;	COMDAT ??_C@_0BD@EFKDMOGB@data?2se?2sa3_01?4wav?$AA@
CONST	SEGMENT
??_C@_0BD@EFKDMOGB@data?2se?2sa3_01?4wav?$AA@ DB 'data\se\sa3_01.wav', 00H ; `string'
CONST	ENDS
;	COMDAT ??_C@_0BD@DPPDACDD@data?2se?2sa2_10?4wav?$AA@
CONST	SEGMENT
??_C@_0BD@DPPDACDD@data?2se?2sa2_10?4wav?$AA@ DB 'data\se\sa2_10.wav', 00H ; `string'
CONST	ENDS
;	COMDAT ??_C@_0BD@LOILFIEP@data?2se?2sa2_09?4wav?$AA@
CONST	SEGMENT
??_C@_0BD@LOILFIEP@data?2se?2sa2_09?4wav?$AA@ DB 'data\se\sa2_09.wav', 00H ; `string'
CONST	ENDS
;	COMDAT ??_C@_0BD@HFNHILOK@data?2se?2sa2_08?4wav?$AA@
CONST	SEGMENT
??_C@_0BD@HFNHILOK@data?2se?2sa2_08?4wav?$AA@ DB 'data\se\sa2_08.wav', 00H ; `string'
CONST	ENDS
;	COMDAT ??_C@_0BD@IEIBDJDP@data?2se?2sa2_07?4wav?$AA@
CONST	SEGMENT
??_C@_0BD@IEIBDJDP@data?2se?2sa2_07?4wav?$AA@ DB 'data\se\sa2_07.wav', 00H ; `string'
CONST	ENDS
;	COMDAT ??_C@_0BD@EPNNOKJK@data?2se?2sa2_06?4wav?$AA@
CONST	SEGMENT
??_C@_0BD@EPNNOKJK@data?2se?2sa2_06?4wav?$AA@ DB 'data\se\sa2_06.wav', 00H ; `string'
CONST	ENDS
;	COMDAT ??_C@_0BD@MJEJJIDE@data?2se?2sa2_05?4wav?$AA@
CONST	SEGMENT
??_C@_0BD@MJEJJIDE@data?2se?2sa2_05?4wav?$AA@ DB 'data\se\sa2_05.wav', 00H ; `string'
CONST	ENDS
;	COMDAT ??_C@_0BD@CBFELJB@data?2se?2sa2_04?4wav?$AA@
CONST	SEGMENT
??_C@_0BD@CBFELJB@data?2se?2sa2_04?4wav?$AA@ DB 'data\se\sa2_04.wav', 00H ; `string'
CONST	ENDS
;	COMDAT ??_C@_0BD@BPBAHLCJ@data?2se?2sa2_03?4wav?$AA@
CONST	SEGMENT
??_C@_0BD@BPBAHLCJ@data?2se?2sa2_03?4wav?$AA@ DB 'data\se\sa2_03.wav', 00H ; `string'
CONST	ENDS
;	COMDAT ??_C@_0BD@NEEMKIIM@data?2se?2sa2_02?4wav?$AA@
CONST	SEGMENT
??_C@_0BD@NEEMKIIM@data?2se?2sa2_02?4wav?$AA@ DB 'data\se\sa2_02.wav', 00H ; `string'
CONST	ENDS
;	COMDAT ??_C@_0BD@FCNINKCC@data?2se?2sa2_01?4wav?$AA@
CONST	SEGMENT
??_C@_0BD@FCNINKCC@data?2se?2sa2_01?4wav?$AA@ DB 'data\se\sa2_01.wav', 00H ; `string'
CONST	ENDS
;	COMDAT ??_C@_0BD@ONMBJEEJ@data?2se?2sa1_02?4wav?$AA@
CONST	SEGMENT
??_C@_0BD@ONMBJEEJ@data?2se?2sa1_02?4wav?$AA@ DB 'data\se\sa1_02.wav', 00H ; `string'
CONST	ENDS
;	COMDAT ??_C@_0BD@GLFFOGOH@data?2se?2sa1_01?4wav?$AA@
CONST	SEGMENT
??_C@_0BD@GLFFOGOH@data?2se?2sa1_01?4wav?$AA@ DB 'data\se\sa1_01.wav', 00H ; `string'
CONST	ENDS
;	COMDAT ??_C@_0BE@LLFBHJIE@data?2se?2saam_27?4wav?$AA@
CONST	SEGMENT
??_C@_0BE@LLFBHJIE@data?2se?2saam_27?4wav?$AA@ DB 'data\se\saam_27.wav', 00H ; `string'
CONST	ENDS
;	COMDAT ??_C@_0BE@HAANKKCB@data?2se?2saam_26?4wav?$AA@
CONST	SEGMENT
??_C@_0BE@HAANKKCB@data?2se?2saam_26?4wav?$AA@ DB 'data\se\saam_26.wav', 00H ; `string'
CONST	ENDS
;	COMDAT ??_C@_0BE@PGJJNIIP@data?2se?2saam_25?4wav?$AA@
CONST	SEGMENT
??_C@_0BE@PGJJNIIP@data?2se?2saam_25?4wav?$AA@ DB 'data\se\saam_25.wav', 00H ; `string'
CONST	ENDS
;	COMDAT ??_C@_0BE@DNMFALCK@data?2se?2saam_24?4wav?$AA@
CONST	SEGMENT
??_C@_0BE@DNMFALCK@data?2se?2saam_24?4wav?$AA@ DB 'data\se\saam_24.wav', 00H ; `string'
CONST	ENDS
;	COMDAT ??_C@_0BE@CAMADLJC@data?2se?2saam_23?4wav?$AA@
CONST	SEGMENT
??_C@_0BE@CAMADLJC@data?2se?2saam_23?4wav?$AA@ DB 'data\se\saam_23.wav', 00H ; `string'
CONST	ENDS
;	COMDAT ??_C@_0BE@OLJMOIDH@data?2se?2saam_22?4wav?$AA@
CONST	SEGMENT
??_C@_0BE@OLJMOIDH@data?2se?2saam_22?4wav?$AA@ DB 'data\se\saam_22.wav', 00H ; `string'
CONST	ENDS
;	COMDAT ??_C@_0BE@GNAIJKJJ@data?2se?2saam_21?4wav?$AA@
CONST	SEGMENT
??_C@_0BE@GNAIJKJJ@data?2se?2saam_21?4wav?$AA@ DB 'data\se\saam_21.wav', 00H ; `string'
CONST	ENDS
;	COMDAT ??_C@_0BE@KGFEEJDM@data?2se?2saam_20?4wav?$AA@
CONST	SEGMENT
??_C@_0BE@KGFEEJDM@data?2se?2saam_20?4wav?$AA@ DB 'data\se\saam_20.wav', 00H ; `string'
CONST	ENDS
;	COMDAT ??_C@_0BE@LALDACGJ@data?2se?2saam_19?4wav?$AA@
CONST	SEGMENT
??_C@_0BE@LALDACGJ@data?2se?2saam_19?4wav?$AA@ DB 'data\se\saam_19.wav', 00H ; `string'
CONST	ENDS
;	COMDAT ??_C@_0BE@HLOPNBMM@data?2se?2saam_18?4wav?$AA@
CONST	SEGMENT
??_C@_0BE@HLOPNBMM@data?2se?2saam_18?4wav?$AA@ DB 'data\se\saam_18.wav', 00H ; `string'
CONST	ENDS
;	COMDAT ??_C@_0BE@IKLJGDBJ@data?2se?2saam_17?4wav?$AA@
CONST	SEGMENT
??_C@_0BE@IKLJGDBJ@data?2se?2saam_17?4wav?$AA@ DB 'data\se\saam_17.wav', 00H ; `string'
CONST	ENDS
;	COMDAT ??_C@_0BE@EBOFLALM@data?2se?2saam_16?4wav?$AA@
CONST	SEGMENT
??_C@_0BE@EBOFLALM@data?2se?2saam_16?4wav?$AA@ DB 'data\se\saam_16.wav', 00H ; `string'
CONST	ENDS
;	COMDAT ??_C@_0BE@MHHBMCBC@data?2se?2saam_15?4wav?$AA@
CONST	SEGMENT
??_C@_0BE@MHHBMCBC@data?2se?2saam_15?4wav?$AA@ DB 'data\se\saam_15.wav', 00H ; `string'
CONST	ENDS
;	COMDAT ??_C@_0BE@MCNBBLH@data?2se?2saam_14?4wav?$AA@
CONST	SEGMENT
??_C@_0BE@MCNBBLH@data?2se?2saam_14?4wav?$AA@ DB 'data\se\saam_14.wav', 00H ; `string'
CONST	ENDS
;	COMDAT ??_C@_0BE@BBCICBAP@data?2se?2saam_13?4wav?$AA@
CONST	SEGMENT
??_C@_0BE@BBCICBAP@data?2se?2saam_13?4wav?$AA@ DB 'data\se\saam_13.wav', 00H ; `string'
CONST	ENDS
;	COMDAT ??_C@_0BE@NKHEPCKK@data?2se?2saam_12?4wav?$AA@
CONST	SEGMENT
??_C@_0BE@NKHEPCKK@data?2se?2saam_12?4wav?$AA@ DB 'data\se\saam_12.wav', 00H ; `string'
CONST	ENDS
;	COMDAT ??_C@_0BE@FMOAIAAE@data?2se?2saam_11?4wav?$AA@
CONST	SEGMENT
??_C@_0BE@FMOAIAAE@data?2se?2saam_11?4wav?$AA@ DB 'data\se\saam_11.wav', 00H ; `string'
CONST	ENDS
;	COMDAT ??_C@_0BE@JHLMFDKB@data?2se?2saam_10?4wav?$AA@
CONST	SEGMENT
??_C@_0BE@JHLMFDKB@data?2se?2saam_10?4wav?$AA@ DB 'data\se\saam_10.wav', 00H ; `string'
CONST	ENDS
;	COMDAT ??_C@_0BE@BGMEAJNN@data?2se?2saam_09?4wav?$AA@
CONST	SEGMENT
??_C@_0BE@BGMEAJNN@data?2se?2saam_09?4wav?$AA@ DB 'data\se\saam_09.wav', 00H ; `string'
CONST	ENDS
;	COMDAT ??_C@_0BE@NNJINKHI@data?2se?2saam_08?4wav?$AA@
CONST	SEGMENT
??_C@_0BE@NNJINKHI@data?2se?2saam_08?4wav?$AA@ DB 'data\se\saam_08.wav', 00H ; `string'
CONST	ENDS
;	COMDAT ??_C@_0BE@CMMOGIKN@data?2se?2saam_07?4wav?$AA@
CONST	SEGMENT
??_C@_0BE@CMMOGIKN@data?2se?2saam_07?4wav?$AA@ DB 'data\se\saam_07.wav', 00H ; `string'
CONST	ENDS
;	COMDAT ??_C@_0BE@OHJCLLAI@data?2se?2saam_06?4wav?$AA@
CONST	SEGMENT
??_C@_0BE@OHJCLLAI@data?2se?2saam_06?4wav?$AA@ DB 'data\se\saam_06.wav', 00H ; `string'
CONST	ENDS
;	COMDAT ??_C@_0BE@GBAGMJKG@data?2se?2saam_05?4wav?$AA@
CONST	SEGMENT
??_C@_0BE@GBAGMJKG@data?2se?2saam_05?4wav?$AA@ DB 'data\se\saam_05.wav', 00H ; `string'
CONST	ENDS
;	COMDAT ??_C@_0BE@KKFKBKAD@data?2se?2saam_04?4wav?$AA@
CONST	SEGMENT
??_C@_0BE@KKFKBKAD@data?2se?2saam_04?4wav?$AA@ DB 'data\se\saam_04.wav', 00H ; `string'
CONST	ENDS
;	COMDAT ??_C@_0BE@LHFPCKLL@data?2se?2saam_03?4wav?$AA@
CONST	SEGMENT
??_C@_0BE@LHFPCKLL@data?2se?2saam_03?4wav?$AA@ DB 'data\se\saam_03.wav', 00H ; `string'
CONST	ENDS
;	COMDAT ??_C@_0BE@HMADPJBO@data?2se?2saam_02?4wav?$AA@
CONST	SEGMENT
??_C@_0BE@HMADPJBO@data?2se?2saam_02?4wav?$AA@ DB 'data\se\saam_02.wav', 00H ; `string'
CONST	ENDS
;	COMDAT ??_C@_0BE@PKJHILLA@data?2se?2saam_01?4wav?$AA@
CONST	SEGMENT
??_C@_0BE@PKJHILLA@data?2se?2saam_01?4wav?$AA@ DB 'data\se\saam_01.wav', 00H ; `string'
CONST	ENDS
;	COMDAT ??_C@_0BD@MIABKAMI@data?2se?2sad_05?4wav?$AA@
CONST	SEGMENT
??_C@_0BD@MIABKAMI@data?2se?2sad_05?4wav?$AA@ DB 'data\se\sad_05.wav', 00H ; `string'
CONST	ENDS
;	COMDAT ??_C@_0BD@DFNHDGN@data?2se?2sad_04?4wav?$AA@
CONST	SEGMENT
??_C@_0BD@DFNHDGN@data?2se?2sad_04?4wav?$AA@ DB 'data\se\sad_04.wav', 00H ; `string'
CONST	ENDS
;	COMDAT ??_C@_0BD@BOFIEDNF@data?2se?2sad_03?4wav?$AA@
CONST	SEGMENT
??_C@_0BD@BOFIEDNF@data?2se?2sad_03?4wav?$AA@ DB 'data\se\sad_03.wav', 00H ; `string'
CONST	ENDS
;	COMDAT ??_C@_0BD@NFAEJAHA@data?2se?2sad_02?4wav?$AA@
CONST	SEGMENT
??_C@_0BD@NFAEJAHA@data?2se?2sad_02?4wav?$AA@ DB 'data\se\sad_02.wav', 00H ; `string'
CONST	ENDS
;	COMDAT ??_C@_0BD@FDJAOCNO@data?2se?2sad_01?4wav?$AA@
CONST	SEGMENT
??_C@_0BD@FDJAOCNO@data?2se?2sad_01?4wav?$AA@ DB 'data\se\sad_01.wav', 00H ; `string'
CONST	ENDS
;	COMDAT ??_C@_0BD@MKONMEP@data?2se?2sas_21?4wav?$AA@
CONST	SEGMENT
??_C@_0BD@MKONMEP@data?2se?2sas_21?4wav?$AA@ DB 'data\se\sas_21.wav', 00H ; `string'
CONST	ENDS
;	COMDAT ??_C@_0BD@MHPCAPOK@data?2se?2sas_20?4wav?$AA@
CONST	SEGMENT
??_C@_0BD@MHPCAPOK@data?2se?2sas_20?4wav?$AA@ DB 'data\se\sas_20.wav', 00H ; `string'
CONST	ENDS
;	COMDAT ??_C@_0BD@NBBFEELP@data?2se?2sas_19?4wav?$AA@
CONST	SEGMENT
??_C@_0BD@NBBFEELP@data?2se?2sas_19?4wav?$AA@ DB 'data\se\sas_19.wav', 00H ; `string'
CONST	ENDS
;	COMDAT ??_C@_0BD@BKEJJHBK@data?2se?2sas_18?4wav?$AA@
CONST	SEGMENT
??_C@_0BD@BKEJJHBK@data?2se?2sas_18?4wav?$AA@ DB 'data\se\sas_18.wav', 00H ; `string'
CONST	ENDS
;	COMDAT ??_C@_0BD@OLBPCFMP@data?2se?2sas_17?4wav?$AA@
CONST	SEGMENT
??_C@_0BD@OLBPCFMP@data?2se?2sas_17?4wav?$AA@ DB 'data\se\sas_17.wav', 00H ; `string'
CONST	ENDS
;	COMDAT ??_C@_0BD@CAEDPGGK@data?2se?2sas_16?4wav?$AA@
CONST	SEGMENT
??_C@_0BD@CAEDPGGK@data?2se?2sas_16?4wav?$AA@ DB 'data\se\sas_16.wav', 00H ; `string'
CONST	ENDS
;	COMDAT ??_C@_0BD@KGNHIEME@data?2se?2sas_15?4wav?$AA@
CONST	SEGMENT
??_C@_0BD@KGNHIEME@data?2se?2sas_15?4wav?$AA@ DB 'data\se\sas_15.wav', 00H ; `string'
CONST	ENDS
;	COMDAT ??_C@_0BD@HAIOGHNJ@data?2se?2sas_13?4wav?$AA@
CONST	SEGMENT
??_C@_0BD@HAIOGHNJ@data?2se?2sas_13?4wav?$AA@ DB 'data\se\sas_13.wav', 00H ; `string'
CONST	ENDS
;	COMDAT ??_C@_0BD@LLNCLEHM@data?2se?2sas_12?4wav?$AA@
CONST	SEGMENT
??_C@_0BD@LLNCLEHM@data?2se?2sas_12?4wav?$AA@ DB 'data\se\sas_12.wav', 00H ; `string'
CONST	ENDS
;	COMDAT ??_C@_0BD@DNEGMGNC@data?2se?2sas_11?4wav?$AA@
CONST	SEGMENT
??_C@_0BD@DNEGMGNC@data?2se?2sas_11?4wav?$AA@ DB 'data\se\sas_11.wav', 00H ; `string'
CONST	ENDS
;	COMDAT ??_C@_0BD@PGBKBFHH@data?2se?2sas_10?4wav?$AA@
CONST	SEGMENT
??_C@_0BD@PGBKBFHH@data?2se?2sas_10?4wav?$AA@ DB 'data\se\sas_10.wav', 00H ; `string'
CONST	ENDS
;	COMDAT ??_C@_0BD@HHGCEPAL@data?2se?2sas_09?4wav?$AA@
CONST	SEGMENT
??_C@_0BD@HHGCEPAL@data?2se?2sas_09?4wav?$AA@ DB 'data\se\sas_09.wav', 00H ; `string'
CONST	ENDS
;	COMDAT ??_C@_0BD@LMDOJMKO@data?2se?2sas_08?4wav?$AA@
CONST	SEGMENT
??_C@_0BD@LMDOJMKO@data?2se?2sas_08?4wav?$AA@ DB 'data\se\sas_08.wav', 00H ; `string'
CONST	ENDS
;	COMDAT ??_C@_0BD@ENGICOHL@data?2se?2sas_07?4wav?$AA@
CONST	SEGMENT
??_C@_0BD@ENGICOHL@data?2se?2sas_07?4wav?$AA@ DB 'data\se\sas_07.wav', 00H ; `string'
CONST	ENDS
;	COMDAT ??_C@_0BD@IGDEPNNO@data?2se?2sas_06?4wav?$AA@
CONST	SEGMENT
??_C@_0BD@IGDEPNNO@data?2se?2sas_06?4wav?$AA@ DB 'data\se\sas_06.wav', 00H ; `string'
CONST	ENDS
;	COMDAT ??_C@_0BD@KAIPHA@data?2se?2sas_05?4wav?$AA@
CONST	SEGMENT
??_C@_0BD@KAIPHA@data?2se?2sas_05?4wav?$AA@ DB 'data\se\sas_05.wav', 00H ; `string'
CONST	ENDS
;	COMDAT ??_C@_0BD@MLPMFMNF@data?2se?2sas_04?4wav?$AA@
CONST	SEGMENT
??_C@_0BD@MLPMFMNF@data?2se?2sas_04?4wav?$AA@ DB 'data\se\sas_04.wav', 00H ; `string'
CONST	ENDS
;	COMDAT ??_C@_0BD@NGPJGMGN@data?2se?2sas_03?4wav?$AA@
CONST	SEGMENT
??_C@_0BD@NGPJGMGN@data?2se?2sas_03?4wav?$AA@ DB 'data\se\sas_03.wav', 00H ; `string'
CONST	ENDS
;	COMDAT ??_C@_0BD@BNKFLPMI@data?2se?2sas_02?4wav?$AA@
CONST	SEGMENT
??_C@_0BD@BNKFLPMI@data?2se?2sas_02?4wav?$AA@ DB 'data\se\sas_02.wav', 00H ; `string'
CONST	ENDS
;	COMDAT ??_C@_0BD@JLDBMNGG@data?2se?2sas_01?4wav?$AA@
CONST	SEGMENT
??_C@_0BD@JLDBMNGG@data?2se?2sas_01?4wav?$AA@ DB 'data\se\sas_01.wav', 00H ; `string'
CONST	ENDS
;	COMDAT ??_C@_0BE@PLDLHOLA@data?2se?2sak_09b?4wav?$AA@
CONST	SEGMENT
??_C@_0BE@PLDLHOLA@data?2se?2sak_09b?4wav?$AA@ DB 'data\se\sak_09b.wav', 00H ; `string'
CONST	ENDS
;	COMDAT ??_C@_0BD@PMAHMFKG@data?2se?2sak_17?4wav?$AA@
CONST	SEGMENT
??_C@_0BD@PMAHMFKG@data?2se?2sak_17?4wav?$AA@ DB 'data\se\sak_17.wav', 00H ; `string'
CONST	ENDS
;	COMDAT ??_C@_0BD@DHFLBGAD@data?2se?2sak_16?4wav?$AA@
CONST	SEGMENT
??_C@_0BD@DHFLBGAD@data?2se?2sak_16?4wav?$AA@ DB 'data\se\sak_16.wav', 00H ; `string'
CONST	ENDS
;	COMDAT ??_C@_0BD@LBMPGEKN@data?2se?2sak_15?4wav?$AA@
CONST	SEGMENT
??_C@_0BD@LBMPGEKN@data?2se?2sak_15?4wav?$AA@ DB 'data\se\sak_15.wav', 00H ; `string'
CONST	ENDS
;	COMDAT ??_C@_0BD@HKJDLHAI@data?2se?2sak_14?4wav?$AA@
CONST	SEGMENT
??_C@_0BD@HKJDLHAI@data?2se?2sak_14?4wav?$AA@ DB 'data\se\sak_14.wav', 00H ; `string'
CONST	ENDS
;	COMDAT ??_C@_0BD@GHJGIHLA@data?2se?2sak_13?4wav?$AA@
CONST	SEGMENT
??_C@_0BD@GHJGIHLA@data?2se?2sak_13?4wav?$AA@ DB 'data\se\sak_13.wav', 00H ; `string'
CONST	ENDS
;	COMDAT ??_C@_0BD@KMMKFEBF@data?2se?2sak_12?4wav?$AA@
CONST	SEGMENT
??_C@_0BD@KMMKFEBF@data?2se?2sak_12?4wav?$AA@ DB 'data\se\sak_12.wav', 00H ; `string'
CONST	ENDS
;	COMDAT ??_C@_0BD@CKFOCGLL@data?2se?2sak_11?4wav?$AA@
CONST	SEGMENT
??_C@_0BD@CKFOCGLL@data?2se?2sak_11?4wav?$AA@ DB 'data\se\sak_11.wav', 00H ; `string'
CONST	ENDS
;	COMDAT ??_C@_0BD@OBACPFBO@data?2se?2sak_10?4wav?$AA@
CONST	SEGMENT
??_C@_0BD@OBACPFBO@data?2se?2sak_10?4wav?$AA@ DB 'data\se\sak_10.wav', 00H ; `string'
CONST	ENDS
;	COMDAT ??_C@_0BE@HNKPAMBO@data?2se?2sak_09a?4wav?$AA@
CONST	SEGMENT
??_C@_0BE@HNKPAMBO@data?2se?2sak_09a?4wav?$AA@ DB 'data\se\sak_09a.wav', 00H ; `string'
CONST	ENDS
;	COMDAT ??_C@_0BD@KLCGHMMH@data?2se?2sak_08?4wav?$AA@
CONST	SEGMENT
??_C@_0BD@KLCGHMMH@data?2se?2sak_08?4wav?$AA@ DB 'data\se\sak_08.wav', 00H ; `string'
CONST	ENDS
;	COMDAT ??_C@_0BD@FKHAMOBC@data?2se?2sak_07?4wav?$AA@
CONST	SEGMENT
??_C@_0BD@FKHAMOBC@data?2se?2sak_07?4wav?$AA@ DB 'data\se\sak_07.wav', 00H ; `string'
CONST	ENDS
;	COMDAT ??_C@_0BD@JBCMBNLH@data?2se?2sak_06?4wav?$AA@
CONST	SEGMENT
??_C@_0BD@JBCMBNLH@data?2se?2sak_06?4wav?$AA@ DB 'data\se\sak_06.wav', 00H ; `string'
CONST	ENDS
;	COMDAT ??_C@_0BD@BHLIGPBJ@data?2se?2sak_05?4wav?$AA@
CONST	SEGMENT
??_C@_0BD@BHLIGPBJ@data?2se?2sak_05?4wav?$AA@ DB 'data\se\sak_05.wav', 00H ; `string'
CONST	ENDS
;	COMDAT ??_C@_0BD@NMOELMLM@data?2se?2sak_04?4wav?$AA@
CONST	SEGMENT
??_C@_0BD@NMOELMLM@data?2se?2sak_04?4wav?$AA@ DB 'data\se\sak_04.wav', 00H ; `string'
CONST	ENDS
;	COMDAT ??_C@_0BD@MBOBIMAE@data?2se?2sak_03?4wav?$AA@
CONST	SEGMENT
??_C@_0BD@MBOBIMAE@data?2se?2sak_03?4wav?$AA@ DB 'data\se\sak_03.wav', 00H ; `string'
CONST	ENDS
;	COMDAT ??_C@_0BD@KLNFPKB@data?2se?2sak_02?4wav?$AA@
CONST	SEGMENT
??_C@_0BD@KLNFPKB@data?2se?2sak_02?4wav?$AA@ DB 'data\se\sak_02.wav', 00H ; `string'
CONST	ENDS
;	COMDAT ??_C@_0BD@IMCJCNAP@data?2se?2sak_01?4wav?$AA@
CONST	SEGMENT
??_C@_0BD@IMCJCNAP@data?2se?2sak_01?4wav?$AA@ DB 'data\se\sak_01.wav', 00H ; `string'
CONST	ENDS
;	COMDAT ??_C@_0BD@DIGBNEBP@data?2se?2sam_24?4wav?$AA@
CONST	SEGMENT
??_C@_0BD@DIGBNEBP@data?2se?2sam_24?4wav?$AA@ DB 'data\se\sam_24.wav', 00H ; `string'
CONST	ENDS
;	COMDAT ??_C@_0BD@CFGEOEKH@data?2se?2sam_23?4wav?$AA@
CONST	SEGMENT
??_C@_0BD@CFGEOEKH@data?2se?2sam_23?4wav?$AA@ DB 'data\se\sam_23.wav', 00H ; `string'
CONST	ENDS
;	COMDAT ??_C@_0BD@OODIDHAC@data?2se?2sam_22?4wav?$AA@
CONST	SEGMENT
??_C@_0BD@OODIDHAC@data?2se?2sam_22?4wav?$AA@ DB 'data\se\sam_22.wav', 00H ; `string'
CONST	ENDS
;	COMDAT ??_C@_0BD@GIKMEFKM@data?2se?2sam_21?4wav?$AA@
CONST	SEGMENT
??_C@_0BD@GIKMEFKM@data?2se?2sam_21?4wav?$AA@ DB 'data\se\sam_21.wav', 00H ; `string'
CONST	ENDS
;	COMDAT ??_C@_0BD@KDPAJGAJ@data?2se?2sam_20?4wav?$AA@
CONST	SEGMENT
??_C@_0BD@KDPAJGAJ@data?2se?2sam_20?4wav?$AA@ DB 'data\se\sam_20.wav', 00H ; `string'
CONST	ENDS
;	COMDAT ??_C@_0BD@LFBHNNFM@data?2se?2sam_19?4wav?$AA@
CONST	SEGMENT
??_C@_0BD@LFBHNNFM@data?2se?2sam_19?4wav?$AA@ DB 'data\se\sam_19.wav', 00H ; `string'
CONST	ENDS
;	COMDAT ??_C@_0BD@HOELAOPJ@data?2se?2sam_18?4wav?$AA@
CONST	SEGMENT
??_C@_0BD@HOELAOPJ@data?2se?2sam_18?4wav?$AA@ DB 'data\se\sam_18.wav', 00H ; `string'
CONST	ENDS
;	COMDAT ??_C@_0BD@IPBNLMCM@data?2se?2sam_17?4wav?$AA@
CONST	SEGMENT
??_C@_0BD@IPBNLMCM@data?2se?2sam_17?4wav?$AA@ DB 'data\se\sam_17.wav', 00H ; `string'
CONST	ENDS
;	COMDAT ??_C@_0BD@EEEBGPIJ@data?2se?2sam_16?4wav?$AA@
CONST	SEGMENT
??_C@_0BD@EEEBGPIJ@data?2se?2sam_16?4wav?$AA@ DB 'data\se\sam_16.wav', 00H ; `string'
CONST	ENDS
;	COMDAT ??_C@_0BD@MCNFBNCH@data?2se?2sam_15?4wav?$AA@
CONST	SEGMENT
??_C@_0BD@MCNFBNCH@data?2se?2sam_15?4wav?$AA@ DB 'data\se\sam_15.wav', 00H ; `string'
CONST	ENDS
;	COMDAT ??_C@_0BD@JIJMOIC@data?2se?2sam_14?4wav?$AA@
CONST	SEGMENT
??_C@_0BD@JIJMOIC@data?2se?2sam_14?4wav?$AA@ DB 'data\se\sam_14.wav', 00H ; `string'
CONST	ENDS
;	COMDAT ??_C@_0BD@BEIMPODK@data?2se?2sam_13?4wav?$AA@
CONST	SEGMENT
??_C@_0BD@BEIMPODK@data?2se?2sam_13?4wav?$AA@ DB 'data\se\sam_13.wav', 00H ; `string'
CONST	ENDS
;	COMDAT ??_C@_0BD@NPNACNJP@data?2se?2sam_12?4wav?$AA@
CONST	SEGMENT
??_C@_0BD@NPNACNJP@data?2se?2sam_12?4wav?$AA@ DB 'data\se\sam_12.wav', 00H ; `string'
CONST	ENDS
;	COMDAT ??_C@_0BD@FJEEFPDB@data?2se?2sam_11?4wav?$AA@
CONST	SEGMENT
??_C@_0BD@FJEEFPDB@data?2se?2sam_11?4wav?$AA@ DB 'data\se\sam_11.wav', 00H ; `string'
CONST	ENDS
;	COMDAT ??_C@_0BD@JCBIIMJE@data?2se?2sam_10?4wav?$AA@
CONST	SEGMENT
??_C@_0BD@JCBIIMJE@data?2se?2sam_10?4wav?$AA@ DB 'data\se\sam_10.wav', 00H ; `string'
CONST	ENDS
;	COMDAT ??_C@_0BD@BDGANGOI@data?2se?2sam_09?4wav?$AA@
CONST	SEGMENT
??_C@_0BD@BDGANGOI@data?2se?2sam_09?4wav?$AA@ DB 'data\se\sam_09.wav', 00H ; `string'
CONST	ENDS
;	COMDAT ??_C@_0BD@NIDMAFEN@data?2se?2sam_08?4wav?$AA@
CONST	SEGMENT
??_C@_0BD@NIDMAFEN@data?2se?2sam_08?4wav?$AA@ DB 'data\se\sam_08.wav', 00H ; `string'
CONST	ENDS
;	COMDAT ??_C@_0BD@CJGKLHJI@data?2se?2sam_07?4wav?$AA@
CONST	SEGMENT
??_C@_0BD@CJGKLHJI@data?2se?2sam_07?4wav?$AA@ DB 'data\se\sam_07.wav', 00H ; `string'
CONST	ENDS
;	COMDAT ??_C@_0BD@OCDGGEDN@data?2se?2sam_06?4wav?$AA@
CONST	SEGMENT
??_C@_0BD@OCDGGEDN@data?2se?2sam_06?4wav?$AA@ DB 'data\se\sam_06.wav', 00H ; `string'
CONST	ENDS
;	COMDAT ??_C@_0BD@GEKCBGJD@data?2se?2sam_05?4wav?$AA@
CONST	SEGMENT
??_C@_0BD@GEKCBGJD@data?2se?2sam_05?4wav?$AA@ DB 'data\se\sam_05.wav', 00H ; `string'
CONST	ENDS
;	COMDAT ??_C@_0BD@KPPOMFDG@data?2se?2sam_04?4wav?$AA@
CONST	SEGMENT
??_C@_0BD@KPPOMFDG@data?2se?2sam_04?4wav?$AA@ DB 'data\se\sam_04.wav', 00H ; `string'
CONST	ENDS
;	COMDAT ??_C@_0BD@LCPLPFIO@data?2se?2sam_03?4wav?$AA@
CONST	SEGMENT
??_C@_0BD@LCPLPFIO@data?2se?2sam_03?4wav?$AA@ DB 'data\se\sam_03.wav', 00H ; `string'
CONST	ENDS
;	COMDAT ??_C@_0BD@HJKHCGCL@data?2se?2sam_02?4wav?$AA@
CONST	SEGMENT
??_C@_0BD@HJKHCGCL@data?2se?2sam_02?4wav?$AA@ DB 'data\se\sam_02.wav', 00H ; `string'
CONST	ENDS
;	COMDAT ??_C@_0BD@PPDDFEIF@data?2se?2sam_01?4wav?$AA@
CONST	SEGMENT
??_C@_0BD@PPDDFEIF@data?2se?2sam_01?4wav?$AA@ DB 'data\se\sam_01.wav', 00H ; `string'
CONST	ENDS
;	COMDAT ??_C@_0BD@PDJHJOKO@data?2se?2sae_32?4wav?$AA@
CONST	SEGMENT
??_C@_0BD@PDJHJOKO@data?2se?2sae_32?4wav?$AA@ DB 'data\se\sae_32.wav', 00H ; `string'
CONST	ENDS
;	COMDAT ??_C@_0BD@HFADOMAA@data?2se?2sae_31?4wav?$AA@
CONST	SEGMENT
??_C@_0BD@HFADOMAA@data?2se?2sae_31?4wav?$AA@ DB 'data\se\sae_31.wav', 00H ; `string'
CONST	ENDS
;	COMDAT ??_C@_0BD@LOFPDPKF@data?2se?2sae_30?4wav?$AA@
CONST	SEGMENT
??_C@_0BD@LOFPDPKF@data?2se?2sae_30?4wav?$AA@ DB 'data\se\sae_30.wav', 00H ; `string'
CONST	ENDS
;	COMDAT ??_C@_0BD@DPCHGFNJ@data?2se?2sae_29?4wav?$AA@
CONST	SEGMENT
??_C@_0BD@DPCHGFNJ@data?2se?2sae_29?4wav?$AA@ DB 'data\se\sae_29.wav', 00H ; `string'
CONST	ENDS
;	COMDAT ??_C@_0BD@PEHLLGHM@data?2se?2sae_28?4wav?$AA@
CONST	SEGMENT
??_C@_0BD@PEHLLGHM@data?2se?2sae_28?4wav?$AA@ DB 'data\se\sae_28.wav', 00H ; `string'
CONST	ENDS
;	COMDAT ??_C@_0BD@FCNAEKJ@data?2se?2sae_27?4wav?$AA@
CONST	SEGMENT
??_C@_0BD@FCNAEKJ@data?2se?2sae_27?4wav?$AA@ DB 'data\se\sae_27.wav', 00H ; `string'
CONST	ENDS
;	COMDAT ??_C@_0BD@MOHBNHAM@data?2se?2sae_26?4wav?$AA@
CONST	SEGMENT
??_C@_0BD@MOHBNHAM@data?2se?2sae_26?4wav?$AA@ DB 'data\se\sae_26.wav', 00H ; `string'
CONST	ENDS
;	COMDAT ??_C@_0BD@EIOFKFKC@data?2se?2sae_25?4wav?$AA@
CONST	SEGMENT
??_C@_0BD@EIOFKFKC@data?2se?2sae_25?4wav?$AA@ DB 'data\se\sae_25.wav', 00H ; `string'
CONST	ENDS
;	COMDAT ??_C@_0BD@IDLJHGAH@data?2se?2sae_24?4wav?$AA@
CONST	SEGMENT
??_C@_0BD@IDLJHGAH@data?2se?2sae_24?4wav?$AA@ DB 'data\se\sae_24.wav', 00H ; `string'
CONST	ENDS
;	COMDAT ??_C@_0BD@JOLMEGLP@data?2se?2sae_23?4wav?$AA@
CONST	SEGMENT
??_C@_0BD@JOLMEGLP@data?2se?2sae_23?4wav?$AA@ DB 'data\se\sae_23.wav', 00H ; `string'
CONST	ENDS
;	COMDAT ??_C@_0BD@FFOAJFBK@data?2se?2sae_22?4wav?$AA@
CONST	SEGMENT
??_C@_0BD@FFOAJFBK@data?2se?2sae_22?4wav?$AA@ DB 'data\se\sae_22.wav', 00H ; `string'
CONST	ENDS
;	COMDAT ??_C@_0BD@NDHEOHLE@data?2se?2sae_21?4wav?$AA@
CONST	SEGMENT
??_C@_0BD@NDHEOHLE@data?2se?2sae_21?4wav?$AA@ DB 'data\se\sae_21.wav', 00H ; `string'
CONST	ENDS
;	COMDAT ??_C@_0BD@BICIDEBB@data?2se?2sae_20?4wav?$AA@
CONST	SEGMENT
??_C@_0BD@BICIDEBB@data?2se?2sae_20?4wav?$AA@ DB 'data\se\sae_20.wav', 00H ; `string'
CONST	ENDS
;	COMDAT ??_C@_0BD@OMPHPEE@data?2se?2sae_19?4wav?$AA@
CONST	SEGMENT
??_C@_0BD@OMPHPEE@data?2se?2sae_19?4wav?$AA@ DB 'data\se\sae_19.wav', 00H ; `string'
CONST	ENDS
;	COMDAT ??_C@_0BD@MFJDKMOB@data?2se?2sae_18?4wav?$AA@
CONST	SEGMENT
??_C@_0BD@MFJDKMOB@data?2se?2sae_18?4wav?$AA@ DB 'data\se\sae_18.wav', 00H ; `string'
CONST	ENDS
;	COMDAT ??_C@_0BD@DEMFBODE@data?2se?2sae_17?4wav?$AA@
CONST	SEGMENT
??_C@_0BD@DEMFBODE@data?2se?2sae_17?4wav?$AA@ DB 'data\se\sae_17.wav', 00H ; `string'
CONST	ENDS
;	COMDAT ??_C@_0BD@PPJJMNJB@data?2se?2sae_16?4wav?$AA@
CONST	SEGMENT
??_C@_0BD@PPJJMNJB@data?2se?2sae_16?4wav?$AA@ DB 'data\se\sae_16.wav', 00H ; `string'
CONST	ENDS
;	COMDAT ??_C@_0BD@HJANLPDP@data?2se?2sae_15?4wav?$AA@
CONST	SEGMENT
??_C@_0BD@HJANLPDP@data?2se?2sae_15?4wav?$AA@ DB 'data\se\sae_15.wav', 00H ; `string'
CONST	ENDS
;	COMDAT ??_C@_0BD@LCFBGMJK@data?2se?2sae_14?4wav?$AA@
CONST	SEGMENT
??_C@_0BD@LCFBGMJK@data?2se?2sae_14?4wav?$AA@ DB 'data\se\sae_14.wav', 00H ; `string'
CONST	ENDS
;	COMDAT ??_C@_0BD@KPFEFMCC@data?2se?2sae_13?4wav?$AA@
CONST	SEGMENT
??_C@_0BD@KPFEFMCC@data?2se?2sae_13?4wav?$AA@ DB 'data\se\sae_13.wav', 00H ; `string'
CONST	ENDS
;	COMDAT ??_C@_0BD@GEAIIPIH@data?2se?2sae_12?4wav?$AA@
CONST	SEGMENT
??_C@_0BD@GEAIIPIH@data?2se?2sae_12?4wav?$AA@ DB 'data\se\sae_12.wav', 00H ; `string'
CONST	ENDS
;	COMDAT ??_C@_0BD@OCJMPNCJ@data?2se?2sae_11?4wav?$AA@
CONST	SEGMENT
??_C@_0BD@OCJMPNCJ@data?2se?2sae_11?4wav?$AA@ DB 'data\se\sae_11.wav', 00H ; `string'
CONST	ENDS
;	COMDAT ??_C@_0BD@CJMACOIM@data?2se?2sae_10?4wav?$AA@
CONST	SEGMENT
??_C@_0BD@CJMACOIM@data?2se?2sae_10?4wav?$AA@ DB 'data\se\sae_10.wav', 00H ; `string'
CONST	ENDS
;	COMDAT ??_C@_0BD@KILIHEPA@data?2se?2sae_09?4wav?$AA@
CONST	SEGMENT
??_C@_0BD@KILIHEPA@data?2se?2sae_09?4wav?$AA@ DB 'data\se\sae_09.wav', 00H ; `string'
CONST	ENDS
;	COMDAT ??_C@_0BD@GDOEKHFF@data?2se?2sae_08?4wav?$AA@
CONST	SEGMENT
??_C@_0BD@GDOEKHFF@data?2se?2sae_08?4wav?$AA@ DB 'data\se\sae_08.wav', 00H ; `string'
CONST	ENDS
;	COMDAT ??_C@_0BD@JCLCBFIA@data?2se?2sae_07?4wav?$AA@
CONST	SEGMENT
??_C@_0BD@JCLCBFIA@data?2se?2sae_07?4wav?$AA@ DB 'data\se\sae_07.wav', 00H ; `string'
CONST	ENDS
;	COMDAT ??_C@_0BD@FJOOMGCF@data?2se?2sae_06?4wav?$AA@
CONST	SEGMENT
??_C@_0BD@FJOOMGCF@data?2se?2sae_06?4wav?$AA@ DB 'data\se\sae_06.wav', 00H ; `string'
CONST	ENDS
;	COMDAT ??_C@_0BD@NPHKLEIL@data?2se?2sae_05?4wav?$AA@
CONST	SEGMENT
??_C@_0BD@NPHKLEIL@data?2se?2sae_05?4wav?$AA@ DB 'data\se\sae_05.wav', 00H ; `string'
CONST	ENDS
;	COMDAT ??_C@_0BD@BECGGHCO@data?2se?2sae_04?4wav?$AA@
CONST	SEGMENT
??_C@_0BD@BECGGHCO@data?2se?2sae_04?4wav?$AA@ DB 'data\se\sae_04.wav', 00H ; `string'
CONST	ENDS
;	COMDAT ??_C@_0BD@JCDFHJG@data?2se?2sae_03?4wav?$AA@
CONST	SEGMENT
??_C@_0BD@JCDFHJG@data?2se?2sae_03?4wav?$AA@ DB 'data\se\sae_03.wav', 00H ; `string'
CONST	ENDS
;	COMDAT ??_C@_0BD@MCHPIEDD@data?2se?2sae_02?4wav?$AA@
CONST	SEGMENT
??_C@_0BD@MCHPIEDD@data?2se?2sae_02?4wav?$AA@ DB 'data\se\sae_02.wav', 00H ; `string'
CONST	ENDS
;	COMDAT ??_C@_0BD@EEOLPGJN@data?2se?2sae_01?4wav?$AA@
CONST	SEGMENT
??_C@_0BD@EEOLPGJN@data?2se?2sae_01?4wav?$AA@ DB 'data\se\sae_01.wav', 00H ; `string'
CONST	ENDS
;	COMDAT ??_C@_0BD@EJADFLBM@data?2se?2sap_13?4wav?$AA@
CONST	SEGMENT
??_C@_0BD@EJADFLBM@data?2se?2sap_13?4wav?$AA@ DB 'data\se\sap_13.wav', 00H ; `string'
CONST	ENDS
;	COMDAT ??_C@_0BD@ICFPIILJ@data?2se?2sap_12?4wav?$AA@
CONST	SEGMENT
??_C@_0BD@ICFPIILJ@data?2se?2sap_12?4wav?$AA@ DB 'data\se\sap_12.wav', 00H ; `string'
CONST	ENDS
;	COMDAT ??_C@_0BD@FEAGGLKE@data?2se?2sap_14?4wav?$AA@
CONST	SEGMENT
??_C@_0BD@FEAGGLKE@data?2se?2sap_14?4wav?$AA@ DB 'data\se\sap_14.wav', 00H ; `string'
CONST	ENDS
;	COMDAT ??_C@_0BD@EMLPKBH@data?2se?2sap_11?4wav?$AA@
CONST	SEGMENT
??_C@_0BD@EMLPKBH@data?2se?2sap_11?4wav?$AA@ DB 'data\se\sap_11.wav', 00H ; `string'
CONST	ENDS
;	COMDAT ??_C@_0BD@MPJHCJLC@data?2se?2sap_10?4wav?$AA@
CONST	SEGMENT
??_C@_0BD@MPJHCJLC@data?2se?2sap_10?4wav?$AA@ DB 'data\se\sap_10.wav', 00H ; `string'
CONST	ENDS
;	COMDAT ??_C@_0BD@EOOPHDMO@data?2se?2sap_09?4wav?$AA@
CONST	SEGMENT
??_C@_0BD@EOOPHDMO@data?2se?2sap_09?4wav?$AA@ DB 'data\se\sap_09.wav', 00H ; `string'
CONST	ENDS
;	COMDAT ??_C@_0BD@IFLDKAGL@data?2se?2sap_08?4wav?$AA@
CONST	SEGMENT
??_C@_0BD@IFLDKAGL@data?2se?2sap_08?4wav?$AA@ DB 'data\se\sap_08.wav', 00H ; `string'
CONST	ENDS
;	COMDAT ??_C@_0BD@HEOFBCLO@data?2se?2sap_07?4wav?$AA@
CONST	SEGMENT
??_C@_0BD@HEOFBCLO@data?2se?2sap_07?4wav?$AA@ DB 'data\se\sap_07.wav', 00H ; `string'
CONST	ENDS
;	COMDAT ??_C@_0BD@LPLJMBBL@data?2se?2sap_06?4wav?$AA@
CONST	SEGMENT
??_C@_0BD@LPLJMBBL@data?2se?2sap_06?4wav?$AA@ DB 'data\se\sap_06.wav', 00H ; `string'
CONST	ENDS
;	COMDAT ??_C@_0BD@DJCNLDLF@data?2se?2sap_05?4wav?$AA@
CONST	SEGMENT
??_C@_0BD@DJCNLDLF@data?2se?2sap_05?4wav?$AA@ DB 'data\se\sap_05.wav', 00H ; `string'
CONST	ENDS
;	COMDAT ??_C@_0BD@PCHBGABA@data?2se?2sap_04?4wav?$AA@
CONST	SEGMENT
??_C@_0BD@PCHBGABA@data?2se?2sap_04?4wav?$AA@ DB 'data\se\sap_04.wav', 00H ; `string'
CONST	ENDS
;	COMDAT ??_C@_0BD@OPHEFAKI@data?2se?2sap_03?4wav?$AA@
CONST	SEGMENT
??_C@_0BD@OPHEFAKI@data?2se?2sap_03?4wav?$AA@ DB 'data\se\sap_03.wav', 00H ; `string'
CONST	ENDS
;	COMDAT ??_C@_0BD@CECIIDAN@data?2se?2sap_02?4wav?$AA@
CONST	SEGMENT
??_C@_0BD@CECIIDAN@data?2se?2sap_02?4wav?$AA@ DB 'data\se\sap_02.wav', 00H ; `string'
CONST	ENDS
;	COMDAT ??_C@_0BD@KCLMPBKD@data?2se?2sap_01?4wav?$AA@
CONST	SEGMENT
??_C@_0BD@KCLMPBKD@data?2se?2sap_01?4wav?$AA@ DB 'data\se\sap_01.wav', 00H ; `string'
CONST	ENDS
;	COMDAT ??_C@_04HFHJMNCD@WAVE?$AA@
CONST	SEGMENT
??_C@_04HFHJMNCD@WAVE?$AA@ DB 'WAVE', 00H		; `string'
CONST	ENDS
; Function compile flags: /Odtp /RTCsu /ZI
; File c:\users\administrator\desktop\????? ??\????? ??\client source code\system\t_music.cpp
;	COMDAT ?cdda_start@@YA_NH@Z
_TEXT	SEGMENT
_play$ = -20						; size = 12
__$ArrayPad$ = -4					; size = 4
_n$ = 8							; size = 4
?cdda_start@@YA_NH@Z PROC				; cdda_start, COMDAT

; 3587 : {

  00000	55		 push	 ebp
  00001	8b ec		 mov	 ebp, esp
  00003	81 ec d8 00 00
	00		 sub	 esp, 216		; 000000d8H
  00009	53		 push	 ebx
  0000a	56		 push	 esi
  0000b	57		 push	 edi
  0000c	8d bd 28 ff ff
	ff		 lea	 edi, DWORD PTR [ebp-216]
  00012	b9 36 00 00 00	 mov	 ecx, 54			; 00000036H
  00017	b8 cc cc cc cc	 mov	 eax, -858993460		; ccccccccH
  0001c	f3 ab		 rep stosd
  0001e	a1 00 00 00 00	 mov	 eax, DWORD PTR ___security_cookie
  00023	33 c5		 xor	 eax, ebp
  00025	89 45 fc	 mov	 DWORD PTR __$ArrayPad$[ebp], eax

; 3588 : // ???
; 3589 :     // ???? n??
; 3590 :     MCI_PLAY_PARMS play;
; 3591 :     play.dwFrom = MCI_MAKE_TMSF( n,0,0,0);

  00028	0f b6 45 08	 movzx	 eax, BYTE PTR _n$[ebp]
  0002c	89 45 f0	 mov	 DWORD PTR _play$[ebp+4], eax

; 3592 :     play.dwTo   = MCI_MAKE_TMSF( n+1,0,0,0);

  0002f	8b 45 08	 mov	 eax, DWORD PTR _n$[ebp]
  00032	83 c0 01	 add	 eax, 1
  00035	0f b6 c8	 movzx	 ecx, al
  00038	89 4d f4	 mov	 DWORD PTR _play$[ebp+8], ecx

; 3593 :     dwRes = mciSendCommand( open.wDeviceID, 

  0003b	8b f4		 mov	 esi, esp
  0003d	8d 45 ec	 lea	 eax, DWORD PTR _play$[ebp]
  00040	50		 push	 eax
  00041	6a 0c		 push	 12			; 0000000cH
  00043	68 06 08 00 00	 push	 2054			; 00000806H
  00048	8b 0d 04 00 00
	00		 mov	 ecx, DWORD PTR ?open@@3UtagMCI_OPEN_PARMSA@@A+4
  0004e	51		 push	 ecx
  0004f	ff 15 00 00 00
	00		 call	 DWORD PTR __imp__mciSendCommandA@16
  00055	3b f4		 cmp	 esi, esp
  00057	e8 00 00 00 00	 call	 __RTC_CheckEsp
  0005c	a3 00 00 00 00	 mov	 DWORD PTR ?dwRes@@3KA, eax

; 3594 :                             MCI_PLAY, MCI_FROM | MCI_TO,
; 3595 :                             (DWORD)&play);
; 3596 :     if ( dwRes)

  00061	83 3d 00 00 00
	00 00		 cmp	 DWORD PTR ?dwRes@@3KA, 0
  00068	74 0e		 je	 SHORT $LN2@cdda_start

; 3597 :     {
; 3598 : #ifdef  _STONDEBUG_
; 3599 : //		MessageBox(hWnd, "??????????????", "??", MB_OK);
; 3600 : #endif
; 3601 : 		cdda_flg = 2;		//????????害

  0006a	c7 05 00 00 00
	00 02 00 00 00	 mov	 DWORD PTR ?cdda_flg@@3HA, 2

; 3602 :         return FALSE;

  00074	32 c0		 xor	 al, al
  00076	eb 02		 jmp	 SHORT $LN1@cdda_start
$LN2@cdda_start:

; 3603 :     }
; 3604 : 	return TRUE;

  00078	b0 01		 mov	 al, 1
$LN1@cdda_start:

; 3605 : }

  0007a	52		 push	 edx
  0007b	8b cd		 mov	 ecx, ebp
  0007d	50		 push	 eax
  0007e	8d 15 00 00 00
	00		 lea	 edx, DWORD PTR $LN6@cdda_start
  00084	e8 00 00 00 00	 call	 @_RTC_CheckStackVars@8
  00089	58		 pop	 eax
  0008a	5a		 pop	 edx
  0008b	5f		 pop	 edi
  0008c	5e		 pop	 esi
  0008d	5b		 pop	 ebx
  0008e	8b 4d fc	 mov	 ecx, DWORD PTR __$ArrayPad$[ebp]
  00091	33 cd		 xor	 ecx, ebp
  00093	e8 00 00 00 00	 call	 @__security_check_cookie@4
  00098	81 c4 d8 00 00
	00		 add	 esp, 216		; 000000d8H
  0009e	3b ec		 cmp	 ebp, esp
  000a0	e8 00 00 00 00	 call	 __RTC_CheckEsp
  000a5	8b e5		 mov	 esp, ebp
  000a7	5d		 pop	 ebp
  000a8	c3		 ret	 0
  000a9	0f 1f 00	 npad	 3
$LN6@cdda_start:
  000ac	01 00 00 00	 DD	 1
  000b0	00 00 00 00	 DD	 $LN5@cdda_start
$LN5@cdda_start:
  000b4	ec ff ff ff	 DD	 -20			; ffffffecH
  000b8	0c 00 00 00	 DD	 12			; 0000000cH
  000bc	00 00 00 00	 DD	 $LN4@cdda_start
$LN4@cdda_start:
  000c0	70		 DB	 112			; 00000070H
  000c1	6c		 DB	 108			; 0000006cH
  000c2	61		 DB	 97			; 00000061H
  000c3	79		 DB	 121			; 00000079H
  000c4	00		 DB	 0
?cdda_start@@YA_NH@Z ENDP				; cdda_start
_TEXT	ENDS
; Function compile flags: /Odtp /RTCsu /ZI
; File c:\users\administrator\desktop\????? ??\????? ??\client source code\system\t_music.cpp
;	COMDAT ?cdda_open@@YA_NH@Z
_TEXT	SEGMENT
_set$ = -20						; size = 12
__$ArrayPad$ = -4					; size = 4
_n$ = 8							; size = 4
?cdda_open@@YA_NH@Z PROC				; cdda_open, COMDAT

; 3548 : {

  00000	55		 push	 ebp
  00001	8b ec		 mov	 ebp, esp
  00003	81 ec d8 00 00
	00		 sub	 esp, 216		; 000000d8H
  00009	53		 push	 ebx
  0000a	56		 push	 esi
  0000b	57		 push	 edi
  0000c	8d bd 28 ff ff
	ff		 lea	 edi, DWORD PTR [ebp-216]
  00012	b9 36 00 00 00	 mov	 ecx, 54			; 00000036H
  00017	b8 cc cc cc cc	 mov	 eax, -858993460		; ccccccccH
  0001c	f3 ab		 rep stosd
  0001e	a1 00 00 00 00	 mov	 eax, DWORD PTR ___security_cookie
  00023	33 c5		 xor	 eax, ebp
  00025	89 45 fc	 mov	 DWORD PTR __$ArrayPad$[ebp], eax

; 3549 : 	cdda_flg = 0;

  00028	c7 05 00 00 00
	00 00 00 00 00	 mov	 DWORD PTR ?cdda_flg@@3HA, 0

; 3550 : // ?????? 2???????
; 3551 :     _ASSERT( n > 1);

  00032	83 7d 08 01	 cmp	 DWORD PTR _n$[ebp], 1
  00036	7f 31		 jg	 SHORT $LN5@cdda_open
  00038	8b f4		 mov	 esi, esp
  0003a	6a 00		 push	 0
  0003c	68 00 00 00 00	 push	 OFFSET ??_C@_17CNPHIMPH@?$AA?$CF?$AAl?$AAs?$AA?$AA@
  00041	6a 00		 push	 0
  00043	a1 00 00 00 00	 mov	 eax, DWORD PTR ?__LINE__Var@?0??cdda_open@@YA_NH@Z@4JA
  00048	83 c0 03	 add	 eax, 3
  0004b	50		 push	 eax
  0004c	68 00 00 00 00	 push	 OFFSET ??_C@_1KO@IMAHILFL@?$AAc?$AA?3?$AA?2?$AAu?$AAs?$AAe?$AAr?$AAs?$AA?2?$AAa?$AAd?$AAm?$AAi?$AAn?$AAi?$AAs?$AAt?$AAr?$AAa?$AAt?$AAo?$AAr?$AA?2?$AAd?$AAe?$AAs?$AAk?$AAt?$AAo?$AAp?$AA?2?B?$KE@
  00051	6a 02		 push	 2
  00053	ff 15 00 00 00
	00		 call	 DWORD PTR __imp___CrtDbgReportW
  00059	83 c4 18	 add	 esp, 24			; 00000018H
  0005c	3b f4		 cmp	 esi, esp
  0005e	e8 00 00 00 00	 call	 __RTC_CheckEsp
  00063	83 f8 01	 cmp	 eax, 1
  00066	75 01		 jne	 SHORT $LN5@cdda_open
  00068	cc		 int	 3
$LN5@cdda_open:

; 3552 : 
; 3553 : //    MCI_OPEN_PARMS open  = {0};
; 3554 : //  MCIERROR       dwRes = {0};
; 3555 : 
; 3556 : // ???????
; 3557 :     open.lpstrDeviceType  = "cdaudio";

  00069	c7 05 08 00 00
	00 00 00 00 00	 mov	 DWORD PTR ?open@@3UtagMCI_OPEN_PARMSA@@A+8, OFFSET ??_C@_07FIPNLLOL@cdaudio?$AA@

; 3558 :     dwRes = mciSendCommand( 0, MCI_OPEN, MCI_OPEN_TYPE, (DWORD)&open);

  00073	8b f4		 mov	 esi, esp
  00075	68 00 00 00 00	 push	 OFFSET ?open@@3UtagMCI_OPEN_PARMSA@@A
  0007a	68 00 20 00 00	 push	 8192			; 00002000H
  0007f	68 03 08 00 00	 push	 2051			; 00000803H
  00084	6a 00		 push	 0
  00086	ff 15 00 00 00
	00		 call	 DWORD PTR __imp__mciSendCommandA@16
  0008c	3b f4		 cmp	 esi, esp
  0008e	e8 00 00 00 00	 call	 __RTC_CheckEsp
  00093	a3 00 00 00 00	 mov	 DWORD PTR ?dwRes@@3KA, eax

; 3559 :     if ( dwRes)

  00098	83 3d 00 00 00
	00 00		 cmp	 DWORD PTR ?dwRes@@3KA, 0
  0009f	74 0e		 je	 SHORT $LN2@cdda_open

; 3560 :     {
; 3561 : #ifdef  _STONDEBUG_
; 3562 : //		MessageBox(hWnd, "打开CD音轨失败！", "??", MB_OK);
; 3563 : #endif
; 3564 : 		cdda_flg = 1;

  000a1	c7 05 00 00 00
	00 01 00 00 00	 mov	 DWORD PTR ?cdda_flg@@3HA, 1

; 3565 :         return FALSE;

  000ab	32 c0		 xor	 al, al
  000ad	eb 49		 jmp	 SHORT $LN1@cdda_open
$LN2@cdda_open:

; 3566 :     }
; 3567 : 
; 3568 : // ?????????????e???
; 3569 :     MCI_SET_PARMS set;
; 3570 :     set.dwTimeFormat = MCI_FORMAT_TMSF;

  000af	c7 45 f0 0a 00
	00 00		 mov	 DWORD PTR _set$[ebp+4], 10 ; 0000000aH

; 3571 :     dwRes = mciSendCommand( open.wDeviceID, MCI_SET, 

  000b6	8b f4		 mov	 esi, esp
  000b8	8d 45 ec	 lea	 eax, DWORD PTR _set$[ebp]
  000bb	50		 push	 eax
  000bc	68 00 04 00 00	 push	 1024			; 00000400H
  000c1	68 0d 08 00 00	 push	 2061			; 0000080dH
  000c6	8b 0d 04 00 00
	00		 mov	 ecx, DWORD PTR ?open@@3UtagMCI_OPEN_PARMSA@@A+4
  000cc	51		 push	 ecx
  000cd	ff 15 00 00 00
	00		 call	 DWORD PTR __imp__mciSendCommandA@16
  000d3	3b f4		 cmp	 esi, esp
  000d5	e8 00 00 00 00	 call	 __RTC_CheckEsp
  000da	a3 00 00 00 00	 mov	 DWORD PTR ?dwRes@@3KA, eax

; 3572 :                             MCI_SET_TIME_FORMAT, (DWORD)&set); 
; 3573 :     if ( dwRes)

  000df	83 3d 00 00 00
	00 00		 cmp	 DWORD PTR ?dwRes@@3KA, 0
  000e6	74 0e		 je	 SHORT $LN3@cdda_open

; 3574 :     {
; 3575 : #ifdef  _STONDEBUG_
; 3576 : //		MessageBox(hWnd, "打开CD音轨失败！", "??", MB_OK);
; 3577 : #endif
; 3578 : 		cdda_flg = 1;

  000e8	c7 05 00 00 00
	00 01 00 00 00	 mov	 DWORD PTR ?cdda_flg@@3HA, 1

; 3579 :         return FALSE;

  000f2	32 c0		 xor	 al, al
  000f4	eb 02		 jmp	 SHORT $LN1@cdda_open
$LN3@cdda_open:

; 3580 :     }
; 3581 : 	return TRUE;

  000f6	b0 01		 mov	 al, 1
$LN1@cdda_open:

; 3582 : }

  000f8	52		 push	 edx
  000f9	8b cd		 mov	 ecx, ebp
  000fb	50		 push	 eax
  000fc	8d 15 00 00 00
	00		 lea	 edx, DWORD PTR $LN8@cdda_open
  00102	e8 00 00 00 00	 call	 @_RTC_CheckStackVars@8
  00107	58		 pop	 eax
  00108	5a		 pop	 edx
  00109	5f		 pop	 edi
  0010a	5e		 pop	 esi
  0010b	5b		 pop	 ebx
  0010c	8b 4d fc	 mov	 ecx, DWORD PTR __$ArrayPad$[ebp]
  0010f	33 cd		 xor	 ecx, ebp
  00111	e8 00 00 00 00	 call	 @__security_check_cookie@4
  00116	81 c4 d8 00 00
	00		 add	 esp, 216		; 000000d8H
  0011c	3b ec		 cmp	 ebp, esp
  0011e	e8 00 00 00 00	 call	 __RTC_CheckEsp
  00123	8b e5		 mov	 esp, ebp
  00125	5d		 pop	 ebp
  00126	c3		 ret	 0
  00127	90		 npad	 1
$LN8@cdda_open:
  00128	01 00 00 00	 DD	 1
  0012c	00 00 00 00	 DD	 $LN7@cdda_open
$LN7@cdda_open:
  00130	ec ff ff ff	 DD	 -20			; ffffffecH
  00134	0c 00 00 00	 DD	 12			; 0000000cH
  00138	00 00 00 00	 DD	 $LN6@cdda_open
$LN6@cdda_open:
  0013c	73		 DB	 115			; 00000073H
  0013d	65		 DB	 101			; 00000065H
  0013e	74		 DB	 116			; 00000074H
  0013f	00		 DB	 0
?cdda_open@@YA_NH@Z ENDP				; cdda_open
_TEXT	ENDS
; Function compile flags: /Odtp /RTCsu /ZI
; File c:\users\administrator\desktop\????? ??\????? ??\client source code\system\t_music.cpp
;	COMDAT ?bgm_fade_check@@YAXXZ
_TEXT	SEGMENT
?bgm_fade_check@@YAXXZ PROC				; bgm_fade_check, COMDAT

; 3480 : {

  00000	55		 push	 ebp
  00001	8b ec		 mov	 ebp, esp
  00003	81 ec c0 00 00
	00		 sub	 esp, 192		; 000000c0H
  00009	53		 push	 ebx
  0000a	56		 push	 esi
  0000b	57		 push	 edi
  0000c	8d bd 40 ff ff
	ff		 lea	 edi, DWORD PTR [ebp-192]
  00012	b9 30 00 00 00	 mov	 ecx, 48			; 00000030H
  00017	b8 cc cc cc cc	 mov	 eax, -858993460		; ccccccccH
  0001c	f3 ab		 rep stosd

; 3481 : 	//???????
; 3482 : 	if(t_music_playing_flg == 0){

  0001e	83 3d 00 00 00
	00 00		 cmp	 DWORD PTR ?t_music_playing_flg@@3HA, 0 ; t_music_playing_flg
  00025	75 0c		 jne	 SHORT $LN2@bgm_fade_c

; 3483 : 		t_music_fade_flg = 0;

  00027	c7 05 00 00 00
	00 00 00 00 00	 mov	 DWORD PTR ?t_music_fade_flg@@3HA, 0 ; t_music_fade_flg

; 3484 : 		return;

  00031	eb 73		 jmp	 SHORT $LN1@bgm_fade_c
$LN2@bgm_fade_c:

; 3485 : 	}
; 3486 : 	//????????????
; 3487 : 	if(!t_music_fade_flg){

  00033	83 3d 00 00 00
	00 00		 cmp	 DWORD PTR ?t_music_fade_flg@@3HA, 0 ; t_music_fade_flg
  0003a	75 02		 jne	 SHORT $LN3@bgm_fade_c

; 3488 : 		return;

  0003c	eb 68		 jmp	 SHORT $LN1@bgm_fade_c
$LN3@bgm_fade_c:

; 3489 : 	}
; 3490 : 	//??????????
; 3491 : 	if(!t_music_fade_vol){

  0003e	83 3d 00 00 00
	00 00		 cmp	 DWORD PTR ?t_music_fade_vol@@3HA, 0 ; t_music_fade_vol
  00045	75 11		 jne	 SHORT $LN4@bgm_fade_c

; 3492 : 		stop_bgm();

  00047	e8 00 00 00 00	 call	 ?stop_bgm@@YAXXZ	; stop_bgm

; 3493 : 		t_music_bgm_no = -1;

  0004c	c7 05 00 00 00
	00 ff ff ff ff	 mov	 DWORD PTR ?t_music_bgm_no@@3HA, -1 ; t_music_bgm_no

; 3494 : 	} else {

  00056	eb 4e		 jmp	 SHORT $LN1@bgm_fade_c
$LN4@bgm_fade_c:

; 3495 : 		// ????????
; 3496 : 		pDSData_tone[ TONE_MAX ]->SetVolume(volume_tbl[ --t_music_fade_vol ]);

  00058	a1 00 00 00 00	 mov	 eax, DWORD PTR ?t_music_fade_vol@@3HA ; t_music_fade_vol
  0005d	83 e8 01	 sub	 eax, 1
  00060	a3 00 00 00 00	 mov	 DWORD PTR ?t_music_fade_vol@@3HA, eax ; t_music_fade_vol
  00065	8b f4		 mov	 esi, esp
  00067	8b 0d 00 00 00
	00		 mov	 ecx, DWORD PTR ?t_music_fade_vol@@3HA ; t_music_fade_vol
  0006d	8b 14 8d 00 00
	00 00		 mov	 edx, DWORD PTR ?volume_tbl@@3PAJA[ecx*4]
  00074	52		 push	 edx
  00075	b8 04 00 00 00	 mov	 eax, 4
  0007a	69 c8 f4 01 00
	00		 imul	 ecx, eax, 500
  00080	8b 91 00 00 00
	00		 mov	 edx, DWORD PTR ?pDSData_tone@@3PAPAUIDirectSoundBuffer@@A[ecx]
  00086	b8 04 00 00 00	 mov	 eax, 4
  0008b	69 c8 f4 01 00
	00		 imul	 ecx, eax, 500
  00091	8b 81 00 00 00
	00		 mov	 eax, DWORD PTR ?pDSData_tone@@3PAPAUIDirectSoundBuffer@@A[ecx]
  00097	8b 0a		 mov	 ecx, DWORD PTR [edx]
  00099	50		 push	 eax
  0009a	8b 51 3c	 mov	 edx, DWORD PTR [ecx+60]
  0009d	ff d2		 call	 edx
  0009f	3b f4		 cmp	 esi, esp
  000a1	e8 00 00 00 00	 call	 __RTC_CheckEsp
$LN1@bgm_fade_c:

; 3497 : 	}
; 3498 : }

  000a6	5f		 pop	 edi
  000a7	5e		 pop	 esi
  000a8	5b		 pop	 ebx
  000a9	81 c4 c0 00 00
	00		 add	 esp, 192		; 000000c0H
  000af	3b ec		 cmp	 ebp, esp
  000b1	e8 00 00 00 00	 call	 __RTC_CheckEsp
  000b6	8b e5		 mov	 esp, ebp
  000b8	5d		 pop	 ebp
  000b9	c3		 ret	 0
?bgm_fade_check@@YAXXZ ENDP				; bgm_fade_check
_TEXT	ENDS
; Function compile flags: /Odtp /RTCsu /ZI
; File c:\users\administrator\desktop\????? ??\????? ??\client source code\system\t_music.cpp
;	COMDAT ?play_environment_check@@YAXXZ
_TEXT	SEGMENT
_d7$ = -44						; size = 4
_d3$ = -32						; size = 4
_d1$ = -20						; size = 4
_d0$ = -8						; size = 4
?play_environment_check@@YAXXZ PROC			; play_environment_check, COMDAT

; 3430 : {

  00000	55		 push	 ebp
  00001	8b ec		 mov	 ebp, esp
  00003	81 ec f0 00 00
	00		 sub	 esp, 240		; 000000f0H
  00009	53		 push	 ebx
  0000a	56		 push	 esi
  0000b	57		 push	 edi
  0000c	8d bd 10 ff ff
	ff		 lea	 edi, DWORD PTR [ebp-240]
  00012	b9 3c 00 00 00	 mov	 ecx, 60			; 0000003cH
  00017	b8 cc cc cc cc	 mov	 eax, -858993460		; ccccccccH
  0001c	f3 ab		 rep stosd

; 3431 : 	int d0,d1,d3,d7;
; 3432 : 	for(d7=0; d7<MAX_ENV; d7++){

  0001e	c7 45 d4 00 00
	00 00		 mov	 DWORD PTR _d7$[ebp], 0
  00025	eb 09		 jmp	 SHORT $LN4@play_envir
$LN2@play_envir:
  00027	8b 45 d4	 mov	 eax, DWORD PTR _d7$[ebp]
  0002a	83 c0 01	 add	 eax, 1
  0002d	89 45 d4	 mov	 DWORD PTR _d7$[ebp], eax
$LN4@play_envir:
  00030	83 7d d4 14	 cmp	 DWORD PTR _d7$[ebp], 20	; 00000014H
  00034	0f 8d 85 01 00
	00		 jge	 $LN1@play_envir

; 3433 : 		if(env_tbl[d7].count == 0){		//????

  0003a	6b 45 d4 24	 imul	 eax, DWORD PTR _d7$[ebp], 36
  0003e	83 b8 08 00 00
	00 00		 cmp	 DWORD PTR ?env_tbl@@3PAUENVIRONMENT_EQU@@A[eax+8], 0
  00045	75 68		 jne	 SHORT $LN5@play_envir

; 3434 : 			if(env_tbl[d7].voice_address != -1){		//???

  00047	6b 45 d4 24	 imul	 eax, DWORD PTR _d7$[ebp], 36
  0004b	83 b8 00 00 00
	00 ff		 cmp	 DWORD PTR ?env_tbl@@3PAUENVIRONMENT_EQU@@A[eax], -1
  00052	74 56		 je	 SHORT $LN6@play_envir

; 3435 : 				pDSData[ env_tbl[d7].voice_address ]->Stop();		//????

  00054	6b 45 d4 24	 imul	 eax, DWORD PTR _d7$[ebp], 36
  00058	8b 88 00 00 00
	00		 mov	 ecx, DWORD PTR ?env_tbl@@3PAUENVIRONMENT_EQU@@A[eax]
  0005e	8b 14 8d 00 00
	00 00		 mov	 edx, DWORD PTR ?pDSData@@3PAPAUIDirectSoundBuffer@@A[ecx*4]
  00065	6b 45 d4 24	 imul	 eax, DWORD PTR _d7$[ebp], 36
  00069	8b 88 00 00 00
	00		 mov	 ecx, DWORD PTR ?env_tbl@@3PAUENVIRONMENT_EQU@@A[eax]
  0006f	8b 04 8d 00 00
	00 00		 mov	 eax, DWORD PTR ?pDSData@@3PAPAUIDirectSoundBuffer@@A[ecx*4]
  00076	8b 0a		 mov	 ecx, DWORD PTR [edx]
  00078	8b f4		 mov	 esi, esp
  0007a	50		 push	 eax
  0007b	8b 51 48	 mov	 edx, DWORD PTR [ecx+72]
  0007e	ff d2		 call	 edx
  00080	3b f4		 cmp	 esi, esp
  00082	e8 00 00 00 00	 call	 __RTC_CheckEsp

; 3436 : 				voice[ env_tbl[d7].voice_address ].loop_flg = 0;		//????攸?

  00087	6b 45 d4 24	 imul	 eax, DWORD PTR _d7$[ebp], 36
  0008b	6b 88 00 00 00
	00 3c		 imul	 ecx, DWORD PTR ?env_tbl@@3PAUENVIRONMENT_EQU@@A[eax], 60
  00092	c7 81 30 00 00
	00 00 00 00 00	 mov	 DWORD PTR ?voice@@3PAUVOICE_EQU@@A[ecx+48], 0

; 3437 : 				env_tbl[d7].voice_address = -1;

  0009c	6b 45 d4 24	 imul	 eax, DWORD PTR _d7$[ebp], 36
  000a0	c7 80 00 00 00
	00 ff ff ff ff	 mov	 DWORD PTR ?env_tbl@@3PAUENVIRONMENT_EQU@@A[eax], -1
$LN6@play_envir:

; 3438 : 			}
; 3439 : 			continue;

  000aa	e9 78 ff ff ff	 jmp	 $LN2@play_envir
$LN5@play_envir:

; 3440 : 		}
; 3441 : 		if(env_tbl[d7].voice_address == -1){		//???

  000af	6b 45 d4 24	 imul	 eax, DWORD PTR _d7$[ebp], 36
  000b3	83 b8 00 00 00
	00 ff		 cmp	 DWORD PTR ?env_tbl@@3PAUENVIRONMENT_EQU@@A[eax], -1
  000ba	75 35		 jne	 SHORT $LN7@play_envir

; 3442 : 			env_tbl[d7].voice_address = voice_seek_point;

  000bc	6b 45 d4 24	 imul	 eax, DWORD PTR _d7$[ebp], 36
  000c0	8b 0d 00 00 00
	00		 mov	 ecx, DWORD PTR ?voice_seek_point@@3HA
  000c6	89 88 00 00 00
	00		 mov	 DWORD PTR ?env_tbl@@3PAUENVIRONMENT_EQU@@A[eax], ecx

; 3443 : 			env_tbl[d7].volume_old = -1;

  000cc	6b 45 d4 24	 imul	 eax, DWORD PTR _d7$[ebp], 36
  000d0	c7 80 14 00 00
	00 ff ff ff ff	 mov	 DWORD PTR ?env_tbl@@3PAUENVIRONMENT_EQU@@A[eax+20], -1

; 3444 : 			env_tbl[d7].panpot_old = -1;

  000da	6b 45 d4 24	 imul	 eax, DWORD PTR _d7$[ebp], 36
  000de	c7 80 20 00 00
	00 ff ff ff ff	 mov	 DWORD PTR ?env_tbl@@3PAUENVIRONMENT_EQU@@A[eax+32], -1

; 3445 : 			d0 = 1;

  000e8	c7 45 f8 01 00
	00 00		 mov	 DWORD PTR _d0$[ebp], 1

; 3446 : 		} else {

  000ef	eb 07		 jmp	 SHORT $LN8@play_envir
$LN7@play_envir:

; 3447 : 			d0 = 0;

  000f1	c7 45 f8 00 00
	00 00		 mov	 DWORD PTR _d0$[ebp], 0
$LN8@play_envir:

; 3448 : 		}
; 3449 : 
; 3450 : 		if(stereo_flg == T_MUSIC_MONO){		//??????

  000f8	83 3d 00 00 00
	00 00		 cmp	 DWORD PTR ?stereo_flg@@3HA, 0 ; stereo_flg
  000ff	75 16		 jne	 SHORT $LN9@play_envir

; 3451 : 			env_tbl[d7].panpot = d1 = 64;

  00101	c7 45 ec 40 00
	00 00		 mov	 DWORD PTR _d1$[ebp], 64	; 00000040H
  00108	6b 45 d4 24	 imul	 eax, DWORD PTR _d7$[ebp], 36
  0010c	8b 4d ec	 mov	 ecx, DWORD PTR _d1$[ebp]
  0010f	89 88 1c 00 00
	00		 mov	 DWORD PTR ?env_tbl@@3PAUENVIRONMENT_EQU@@A[eax+28], ecx

; 3452 : 		} else {

  00115	eb 2f		 jmp	 SHORT $LN10@play_envir
$LN9@play_envir:

; 3453 : 			d1 = env_tbl[d7].side / 5;			//?????k??

  00117	6b 45 d4 24	 imul	 eax, DWORD PTR _d7$[ebp], 36
  0011b	8b 80 18 00 00
	00		 mov	 eax, DWORD PTR ?env_tbl@@3PAUENVIRONMENT_EQU@@A[eax+24]
  00121	99		 cdq
  00122	b9 05 00 00 00	 mov	 ecx, 5
  00127	f7 f9		 idiv	 ecx
  00129	89 45 ec	 mov	 DWORD PTR _d1$[ebp], eax

; 3454 : 			if(d1 < 0)			//

  0012c	83 7d ec 00	 cmp	 DWORD PTR _d1$[ebp], 0
  00130	7d 07		 jge	 SHORT $LN11@play_envir

; 3455 : 				d1 = 0;			//

  00132	c7 45 ec 00 00
	00 00		 mov	 DWORD PTR _d1$[ebp], 0
$LN11@play_envir:

; 3456 : 			if(d1 > 127)		//

  00139	83 7d ec 7f	 cmp	 DWORD PTR _d1$[ebp], 127 ; 0000007fH
  0013d	7e 07		 jle	 SHORT $LN10@play_envir

; 3457 : 				d1 = 127;		//

  0013f	c7 45 ec 7f 00
	00 00		 mov	 DWORD PTR _d1$[ebp], 127 ; 0000007fH
$LN10@play_envir:

; 3458 : 		}
; 3459 : 
; 3460 : 		if(d0){		//???

  00146	83 7d f8 00	 cmp	 DWORD PTR _d0$[ebp], 0
  0014a	74 0f		 je	 SHORT $LN13@play_envir

; 3461 : 			env_tbl[d7].panpot = d1;

  0014c	6b 45 d4 24	 imul	 eax, DWORD PTR _d7$[ebp], 36
  00150	8b 4d ec	 mov	 ecx, DWORD PTR _d1$[ebp]
  00153	89 88 1c 00 00
	00		 mov	 DWORD PTR ?env_tbl@@3PAUENVIRONMENT_EQU@@A[eax+28], ecx

; 3462 : 		} else {

  00159	eb 41		 jmp	 SHORT $LN14@play_envir
$LN13@play_envir:

; 3463 : 			d3 = d1 - env_tbl[d7].panpot;

  0015b	6b 45 d4 24	 imul	 eax, DWORD PTR _d7$[ebp], 36
  0015f	8b 4d ec	 mov	 ecx, DWORD PTR _d1$[ebp]
  00162	2b 88 1c 00 00
	00		 sub	 ecx, DWORD PTR ?env_tbl@@3PAUENVIRONMENT_EQU@@A[eax+28]
  00168	89 4d e0	 mov	 DWORD PTR _d3$[ebp], ecx

; 3464 : 			if(d3 > 2)

  0016b	83 7d e0 02	 cmp	 DWORD PTR _d3$[ebp], 2
  0016f	7e 07		 jle	 SHORT $LN15@play_envir

; 3465 : 				d3 = 2;

  00171	c7 45 e0 02 00
	00 00		 mov	 DWORD PTR _d3$[ebp], 2
$LN15@play_envir:

; 3466 : 			if(d3 < -2)

  00178	83 7d e0 fe	 cmp	 DWORD PTR _d3$[ebp], -2	; fffffffeH
  0017c	7d 07		 jge	 SHORT $LN16@play_envir

; 3467 : 				d3 = -2;

  0017e	c7 45 e0 fe ff
	ff ff		 mov	 DWORD PTR _d3$[ebp], -2	; fffffffeH
$LN16@play_envir:

; 3468 : 			//?????@e
; 3469 : 			env_tbl[d7].panpot += d3;

  00185	6b 45 d4 24	 imul	 eax, DWORD PTR _d7$[ebp], 36
  00189	8b 88 1c 00 00
	00		 mov	 ecx, DWORD PTR ?env_tbl@@3PAUENVIRONMENT_EQU@@A[eax+28]
  0018f	03 4d e0	 add	 ecx, DWORD PTR _d3$[ebp]
  00192	6b 55 d4 24	 imul	 edx, DWORD PTR _d7$[ebp], 36
  00196	89 8a 1c 00 00
	00		 mov	 DWORD PTR ?env_tbl@@3PAUENVIRONMENT_EQU@@A[edx+28], ecx
$LN14@play_envir:

; 3470 : 		}
; 3471 : //		play_environment_tone(env_tbl[d7].tone, env_tbl[d7].distance, env_tbl[d7].voice_address, env_tbl[d7].panpot, d0);
; 3472 : 		play_environment_tone(d7, d0);

  0019c	8b 45 f8	 mov	 eax, DWORD PTR _d0$[ebp]
  0019f	50		 push	 eax
  001a0	8b 4d d4	 mov	 ecx, DWORD PTR _d7$[ebp]
  001a3	51		 push	 ecx
  001a4	e8 00 00 00 00	 call	 ?play_environment_tone@@YAHHH@Z ; play_environment_tone
  001a9	83 c4 08	 add	 esp, 8

; 3473 : 
; 3474 : 		env_tbl[d7].count = 0;		//????????

  001ac	6b 45 d4 24	 imul	 eax, DWORD PTR _d7$[ebp], 36
  001b0	c7 80 08 00 00
	00 00 00 00 00	 mov	 DWORD PTR ?env_tbl@@3PAUENVIRONMENT_EQU@@A[eax+8], 0

; 3475 : 	}

  001ba	e9 68 fe ff ff	 jmp	 $LN2@play_envir
$LN1@play_envir:

; 3476 : }

  001bf	5f		 pop	 edi
  001c0	5e		 pop	 esi
  001c1	5b		 pop	 ebx
  001c2	81 c4 f0 00 00
	00		 add	 esp, 240		; 000000f0H
  001c8	3b ec		 cmp	 ebp, esp
  001ca	e8 00 00 00 00	 call	 __RTC_CheckEsp
  001cf	8b e5		 mov	 esp, ebp
  001d1	5d		 pop	 ebp
  001d2	c3		 ret	 0
?play_environment_check@@YAXXZ ENDP			; play_environment_check
_TEXT	ENDS
; Function compile flags: /Odtp /RTCsu /ZI
; File c:\users\administrator\desktop\????? ??\????? ??\client source code\system\t_music.cpp
;	COMDAT ?play_map_bgm_check@@YAXXZ
_TEXT	SEGMENT
tv64 = -196						; size = 4
?play_map_bgm_check@@YAXXZ PROC				; play_map_bgm_check, COMDAT

; 3229 : {

  00000	55		 push	 ebp
  00001	8b ec		 mov	 ebp, esp
  00003	81 ec c4 00 00
	00		 sub	 esp, 196		; 000000c4H
  00009	53		 push	 ebx
  0000a	56		 push	 esi
  0000b	57		 push	 edi
  0000c	8d bd 3c ff ff
	ff		 lea	 edi, DWORD PTR [ebp-196]
  00012	b9 31 00 00 00	 mov	 ecx, 49			; 00000031H
  00017	b8 cc cc cc cc	 mov	 eax, -858993460		; ccccccccH
  0001c	f3 ab		 rep stosd

; 3230 : 	switch(map_bgm_vct_no){

  0001e	a1 00 00 00 00	 mov	 eax, DWORD PTR ?map_bgm_vct_no@@3HA
  00023	89 85 3c ff ff
	ff		 mov	 DWORD PTR tv64[ebp], eax
  00029	83 bd 3c ff ff
	ff 03		 cmp	 DWORD PTR tv64[ebp], 3
  00030	0f 87 80 00 00
	00		 ja	 $LN1@play_map_b
  00036	8b 8d 3c ff ff
	ff		 mov	 ecx, DWORD PTR tv64[ebp]
  0003c	ff 24 8d 00 00
	00 00		 jmp	 DWORD PTR $LN12@play_map_b[ecx*4]
$LN4@play_map_b:

; 3231 : 	case 0:		//????????
; 3232 : 		if(draw_map_bgm_flg){

  00043	83 3d 00 00 00
	00 00		 cmp	 DWORD PTR ?draw_map_bgm_flg@@3HA, 0 ; draw_map_bgm_flg
  0004a	74 1a		 je	 SHORT $LN5@play_map_b

; 3233 : 			if(t_music_bgm_no != map_bgm_no){		//??????

  0004c	a1 00 00 00 00	 mov	 eax, DWORD PTR ?t_music_bgm_no@@3HA ; t_music_bgm_no
  00051	3b 05 00 00 00
	00		 cmp	 eax, DWORD PTR ?map_bgm_no@@3HA ; map_bgm_no
  00057	74 0d		 je	 SHORT $LN5@play_map_b

; 3234 : 				map_bgm_vct_no++;		//?????????

  00059	a1 00 00 00 00	 mov	 eax, DWORD PTR ?map_bgm_vct_no@@3HA
  0005e	83 c0 01	 add	 eax, 1
  00061	a3 00 00 00 00	 mov	 DWORD PTR ?map_bgm_vct_no@@3HA, eax
$LN5@play_map_b:

; 3235 : 			}
; 3236 : 		}
; 3237 : 		draw_map_bgm_flg = 0;

  00066	c7 05 00 00 00
	00 00 00 00 00	 mov	 DWORD PTR ?draw_map_bgm_flg@@3HA, 0 ; draw_map_bgm_flg

; 3238 : 		break;

  00070	eb 44		 jmp	 SHORT $LN1@play_map_b
$LN7@play_map_b:

; 3239 : 
; 3240 : 	case 1:		//???????????
; 3241 : 		fade_out_bgm();

  00072	e8 00 00 00 00	 call	 ?fade_out_bgm@@YAXXZ	; fade_out_bgm

; 3242 : 		map_bgm_vct_no++;		//????????r??

  00077	a1 00 00 00 00	 mov	 eax, DWORD PTR ?map_bgm_vct_no@@3HA
  0007c	83 c0 01	 add	 eax, 1
  0007f	a3 00 00 00 00	 mov	 DWORD PTR ?map_bgm_vct_no@@3HA, eax

; 3243 : 		break;

  00084	eb 30		 jmp	 SHORT $LN1@play_map_b
$LN8@play_map_b:

; 3244 : 
; 3245 : 	case 2:		//???????????r?
; 3246 : 		if(t_music_fade_flg == 0){		//??????????

  00086	83 3d 00 00 00
	00 00		 cmp	 DWORD PTR ?t_music_fade_flg@@3HA, 0 ; t_music_fade_flg
  0008d	75 0d		 jne	 SHORT $LN9@play_map_b

; 3247 : 			map_bgm_vct_no++;		//?????

  0008f	a1 00 00 00 00	 mov	 eax, DWORD PTR ?map_bgm_vct_no@@3HA
  00094	83 c0 01	 add	 eax, 1
  00097	a3 00 00 00 00	 mov	 DWORD PTR ?map_bgm_vct_no@@3HA, eax
$LN9@play_map_b:

; 3248 : 		}
; 3249 : 		break;

  0009c	eb 18		 jmp	 SHORT $LN1@play_map_b
$LN10@play_map_b:

; 3250 : 
; 3251 : 	case 3:		//????
; 3252 : 		play_bgm(map_bgm_no);		//????

  0009e	a1 00 00 00 00	 mov	 eax, DWORD PTR ?map_bgm_no@@3HA ; map_bgm_no
  000a3	50		 push	 eax
  000a4	e8 00 00 00 00	 call	 ?play_bgm@@YAHH@Z	; play_bgm
  000a9	83 c4 04	 add	 esp, 4

; 3253 : 		map_bgm_vct_no = 0;		//?????????

  000ac	c7 05 00 00 00
	00 00 00 00 00	 mov	 DWORD PTR ?map_bgm_vct_no@@3HA, 0
$LN1@play_map_b:

; 3254 : 		break;
; 3255 : 	}
; 3256 : }

  000b6	5f		 pop	 edi
  000b7	5e		 pop	 esi
  000b8	5b		 pop	 ebx
  000b9	81 c4 c4 00 00
	00		 add	 esp, 196		; 000000c4H
  000bf	3b ec		 cmp	 ebp, esp
  000c1	e8 00 00 00 00	 call	 __RTC_CheckEsp
  000c6	8b e5		 mov	 esp, ebp
  000c8	5d		 pop	 ebp
  000c9	c3		 ret	 0
  000ca	66 90		 npad	 2
$LN12@play_map_b:
  000cc	00 00 00 00	 DD	 $LN4@play_map_b
  000d0	00 00 00 00	 DD	 $LN7@play_map_b
  000d4	00 00 00 00	 DD	 $LN8@play_map_b
  000d8	00 00 00 00	 DD	 $LN10@play_map_b
?play_map_bgm_check@@YAXXZ ENDP				; play_map_bgm_check
_TEXT	ENDS
; Function compile flags: /Odtp /RTCsu /ZI
; File c:\users\administrator\desktop\????? ??\????? ??\client source code\system\t_music.cpp
;	COMDAT ?play_environment_tone@@YAHHH@Z
_TEXT	SEGMENT
_d0$ = -8						; size = 4
_tbl_no$ = 8						; size = 4
_new_flg$ = 12						; size = 4
?play_environment_tone@@YAHHH@Z PROC			; play_environment_tone, COMDAT

; 3126 : {

  00000	55		 push	 ebp
  00001	8b ec		 mov	 ebp, esp
  00003	81 ec cc 00 00
	00		 sub	 esp, 204		; 000000ccH
  00009	53		 push	 ebx
  0000a	56		 push	 esi
  0000b	57		 push	 edi
  0000c	8d bd 34 ff ff
	ff		 lea	 edi, DWORD PTR [ebp-204]
  00012	b9 33 00 00 00	 mov	 ecx, 51			; 00000033H
  00017	b8 cc cc cc cc	 mov	 eax, -858993460		; ccccccccH
  0001c	f3 ab		 rep stosd

; 3127 : 	int d0;
; 3128 : //	int total_level;
; 3129 : 
; 3130 : //	t_music_se_no = tone;
; 3131 : #ifdef _NB_CANCEL_BGM
; 3132 : 	if (声音开关) return -1;

  0001e	83 3d 00 00 00
	00 00		 cmp	 DWORD PTR ?声音开关@@3HA, 0 ; 声音开关
  00025	74 08		 je	 SHORT $LN4@play_envir
  00027	83 c8 ff	 or	 eax, -1
  0002a	e9 27 04 00 00	 jmp	 $LN1@play_envir
$LN4@play_envir:

; 3133 : #endif
; 3134 : 	if(dsound_flg == -1)

  0002f	83 3d 00 00 00
	00 ff		 cmp	 DWORD PTR ?dsound_flg@@3HA, -1 ; dsound_flg
  00036	75 08		 jne	 SHORT $LN5@play_envir

; 3135 : 		return -1;

  00038	83 c8 ff	 or	 eax, -1
  0003b	e9 16 04 00 00	 jmp	 $LN1@play_envir
$LN5@play_envir:

; 3136 : 
; 3137 : 	if(env_tbl[tbl_no].tone > TONE_MAX){		//???????

  00040	6b 45 08 24	 imul	 eax, DWORD PTR _tbl_no$[ebp], 36
  00044	81 b8 04 00 00
	00 f4 01 00 00	 cmp	 DWORD PTR ?env_tbl@@3PAUENVIRONMENT_EQU@@A[eax+4], 500 ; 000001f4H
  0004e	7e 08		 jle	 SHORT $LN6@play_envir

; 3138 : 		return -1;

  00050	83 c8 ff	 or	 eax, -1
  00053	e9 fe 03 00 00	 jmp	 $LN1@play_envir
$LN6@play_envir:

; 3139 : 	}
; 3140 : 
; 3141 : 	if(tone_tbl[ env_tbl[tbl_no].tone ].voice_place == -1){		//te????

  00058	6b 45 08 24	 imul	 eax, DWORD PTR _tbl_no$[ebp], 36
  0005c	8b 88 04 00 00
	00		 mov	 ecx, DWORD PTR ?env_tbl@@3PAUENVIRONMENT_EQU@@A[eax+4]
  00062	c1 e1 05	 shl	 ecx, 5
  00065	83 b9 00 00 00
	00 ff		 cmp	 DWORD PTR ?tone_tbl@@3PAUTONE_EQU@@A[ecx], -1
  0006c	75 08		 jne	 SHORT $LN7@play_envir

; 3142 : 		return -1;

  0006e	83 c8 ff	 or	 eax, -1
  00071	e9 e0 03 00 00	 jmp	 $LN1@play_envir
$LN7@play_envir:

; 3143 : 	}
; 3144 : 
; 3145 : //	if(tone_tbl[ env_tbl[tbl_no].tone ].play_time){		//??????
; 3146 : //		return 0;
; 3147 : //	}
; 3148 : 
; 3149 : 	env_tbl[tbl_no].distance = env_tbl[tbl_no].distance << 4;		//?????k??

  00076	6b 45 08 24	 imul	 eax, DWORD PTR _tbl_no$[ebp], 36
  0007a	8b 88 0c 00 00
	00		 mov	 ecx, DWORD PTR ?env_tbl@@3PAUENVIRONMENT_EQU@@A[eax+12]
  00080	c1 e1 04	 shl	 ecx, 4
  00083	6b 55 08 24	 imul	 edx, DWORD PTR _tbl_no$[ebp], 36
  00087	89 8a 0c 00 00
	00		 mov	 DWORD PTR ?env_tbl@@3PAUENVIRONMENT_EQU@@A[edx+12], ecx

; 3150 : 	env_tbl[tbl_no].distance /= 0x6a;				//

  0008d	6b 45 08 24	 imul	 eax, DWORD PTR _tbl_no$[ebp], 36
  00091	8b 80 0c 00 00
	00		 mov	 eax, DWORD PTR ?env_tbl@@3PAUENVIRONMENT_EQU@@A[eax+12]
  00097	99		 cdq
  00098	b9 6a 00 00 00	 mov	 ecx, 106		; 0000006aH
  0009d	f7 f9		 idiv	 ecx
  0009f	6b 55 08 24	 imul	 edx, DWORD PTR _tbl_no$[ebp], 36
  000a3	89 82 0c 00 00
	00		 mov	 DWORD PTR ?env_tbl@@3PAUENVIRONMENT_EQU@@A[edx+12], eax

; 3151 : 
; 3152 : //	if(env_tbl[tbl_no].distance >= 127)				//d????
; 3153 : //		return 0;					//????
; 3154 : 
; 3155 : 	if(env_tbl[tbl_no].distance >= 127)				//d????

  000a9	6b 45 08 24	 imul	 eax, DWORD PTR _tbl_no$[ebp], 36
  000ad	83 b8 0c 00 00
	00 7f		 cmp	 DWORD PTR ?env_tbl@@3PAUENVIRONMENT_EQU@@A[eax+12], 127 ; 0000007fH
  000b4	7c 0e		 jl	 SHORT $LN8@play_envir

; 3156 : 		env_tbl[tbl_no].distance = 127;					//????

  000b6	6b 45 08 24	 imul	 eax, DWORD PTR _tbl_no$[ebp], 36
  000ba	c7 80 0c 00 00
	00 7f 00 00 00	 mov	 DWORD PTR ?env_tbl@@3PAUENVIRONMENT_EQU@@A[eax+12], 127 ; 0000007fH
$LN8@play_envir:

; 3157 : 
; 3158 : 	if(new_flg){		//???

  000c4	83 7d 0c 00	 cmp	 DWORD PTR _new_flg$[ebp], 0
  000c8	0f 84 1c 01 00
	00		 je	 $LN9@play_envir

; 3159 : 		//q???瑙k????
; 3160 : 		d0 = voice[ env_tbl[tbl_no].voice_address ].tone_no;

  000ce	6b 45 08 24	 imul	 eax, DWORD PTR _tbl_no$[ebp], 36
  000d2	6b 88 00 00 00
	00 3c		 imul	 ecx, DWORD PTR ?env_tbl@@3PAUENVIRONMENT_EQU@@A[eax], 60
  000d9	8b 91 04 00 00
	00		 mov	 edx, DWORD PTR ?voice@@3PAUVOICE_EQU@@A[ecx+4]
  000df	89 55 f8	 mov	 DWORD PTR _d0$[ebp], edx

; 3161 : 		if(voice[ env_tbl[tbl_no].voice_address ].tone_no != env_tbl[tbl_no].tone){		//i??瑙k??????

  000e2	6b 45 08 24	 imul	 eax, DWORD PTR _tbl_no$[ebp], 36
  000e6	6b 88 00 00 00
	00 3c		 imul	 ecx, DWORD PTR ?env_tbl@@3PAUENVIRONMENT_EQU@@A[eax], 60
  000ed	6b 55 08 24	 imul	 edx, DWORD PTR _tbl_no$[ebp], 36
  000f1	8b 81 04 00 00
	00		 mov	 eax, DWORD PTR ?voice@@3PAUVOICE_EQU@@A[ecx+4]
  000f7	3b 82 04 00 00
	00		 cmp	 eax, DWORD PTR ?env_tbl@@3PAUENVIRONMENT_EQU@@A[edx+4]
  000fd	0f 84 e7 00 00
	00		 je	 $LN9@play_envir

; 3162 : 			voice[ env_tbl[tbl_no].voice_address ].tone_no = env_tbl[tbl_no].tone;		//?瑙k?颌V

  00103	6b 45 08 24	 imul	 eax, DWORD PTR _tbl_no$[ebp], 36
  00107	6b 4d 08 24	 imul	 ecx, DWORD PTR _tbl_no$[ebp], 36
  0010b	6b 91 00 00 00
	00 3c		 imul	 edx, DWORD PTR ?env_tbl@@3PAUENVIRONMENT_EQU@@A[ecx], 60
  00112	8b 80 04 00 00
	00		 mov	 eax, DWORD PTR ?env_tbl@@3PAUENVIRONMENT_EQU@@A[eax+4]
  00118	89 82 04 00 00
	00		 mov	 DWORD PTR ?voice@@3PAUVOICE_EQU@@A[edx+4], eax

; 3163 : 			//???????????蓰害?????
; 3164 : 			if(d0 != -2){

  0011e	83 7d f8 fe	 cmp	 DWORD PTR _d0$[ebp], -2	; fffffffeH
  00122	74 5c		 je	 SHORT $LN11@play_envir

; 3165 : 				RELEASE(pDSData[env_tbl[tbl_no].voice_address]);		//?

  00124	6b 45 08 24	 imul	 eax, DWORD PTR _tbl_no$[ebp], 36
  00128	8b 88 00 00 00
	00		 mov	 ecx, DWORD PTR ?env_tbl@@3PAUENVIRONMENT_EQU@@A[eax]
  0012e	83 3c 8d 00 00
	00 00 00	 cmp	 DWORD PTR ?pDSData@@3PAPAUIDirectSoundBuffer@@A[ecx*4], 0
  00136	74 48		 je	 SHORT $LN11@play_envir
  00138	6b 45 08 24	 imul	 eax, DWORD PTR _tbl_no$[ebp], 36
  0013c	8b 88 00 00 00
	00		 mov	 ecx, DWORD PTR ?env_tbl@@3PAUENVIRONMENT_EQU@@A[eax]
  00142	8b 14 8d 00 00
	00 00		 mov	 edx, DWORD PTR ?pDSData@@3PAPAUIDirectSoundBuffer@@A[ecx*4]
  00149	6b 45 08 24	 imul	 eax, DWORD PTR _tbl_no$[ebp], 36
  0014d	8b 88 00 00 00
	00		 mov	 ecx, DWORD PTR ?env_tbl@@3PAUENVIRONMENT_EQU@@A[eax]
  00153	8b 04 8d 00 00
	00 00		 mov	 eax, DWORD PTR ?pDSData@@3PAPAUIDirectSoundBuffer@@A[ecx*4]
  0015a	8b 0a		 mov	 ecx, DWORD PTR [edx]
  0015c	8b f4		 mov	 esi, esp
  0015e	50		 push	 eax
  0015f	8b 51 08	 mov	 edx, DWORD PTR [ecx+8]
  00162	ff d2		 call	 edx
  00164	3b f4		 cmp	 esi, esp
  00166	e8 00 00 00 00	 call	 __RTC_CheckEsp
  0016b	6b 45 08 24	 imul	 eax, DWORD PTR _tbl_no$[ebp], 36
  0016f	8b 88 00 00 00
	00		 mov	 ecx, DWORD PTR ?env_tbl@@3PAUENVIRONMENT_EQU@@A[eax]
  00175	c7 04 8d 00 00
	00 00 00 00 00
	00		 mov	 DWORD PTR ?pDSData@@3PAPAUIDirectSoundBuffer@@A[ecx*4], 0
$LN11@play_envir:

; 3166 : 			}
; 3167 : 			//????
; 3168 : 			if( pDSound->DuplicateSoundBuffer(pDSData_tone[tone_tbl[ env_tbl[tbl_no].tone ].voice_place],&pDSData[env_tbl[tbl_no].voice_address]) != DS_OK ){

  00180	6b 45 08 24	 imul	 eax, DWORD PTR _tbl_no$[ebp], 36
  00184	8b 88 00 00 00
	00		 mov	 ecx, DWORD PTR ?env_tbl@@3PAUENVIRONMENT_EQU@@A[eax]
  0018a	8d 14 8d 00 00
	00 00		 lea	 edx, DWORD PTR ?pDSData@@3PAPAUIDirectSoundBuffer@@A[ecx*4]
  00191	8b f4		 mov	 esi, esp
  00193	52		 push	 edx
  00194	6b 45 08 24	 imul	 eax, DWORD PTR _tbl_no$[ebp], 36
  00198	8b 88 04 00 00
	00		 mov	 ecx, DWORD PTR ?env_tbl@@3PAUENVIRONMENT_EQU@@A[eax+4]
  0019e	c1 e1 05	 shl	 ecx, 5
  001a1	8b 91 00 00 00
	00		 mov	 edx, DWORD PTR ?tone_tbl@@3PAUTONE_EQU@@A[ecx]
  001a7	8b 04 95 00 00
	00 00		 mov	 eax, DWORD PTR ?pDSData_tone@@3PAPAUIDirectSoundBuffer@@A[edx*4]
  001ae	50		 push	 eax
  001af	8b 0d 00 00 00
	00		 mov	 ecx, DWORD PTR ?pDSound@@3PAUIDirectSound@@A ; pDSound
  001b5	8b 11		 mov	 edx, DWORD PTR [ecx]
  001b7	a1 00 00 00 00	 mov	 eax, DWORD PTR ?pDSound@@3PAUIDirectSound@@A ; pDSound
  001bc	50		 push	 eax
  001bd	8b 4a 14	 mov	 ecx, DWORD PTR [edx+20]
  001c0	ff d1		 call	 ecx
  001c2	3b f4		 cmp	 esi, esp
  001c4	e8 00 00 00 00	 call	 __RTC_CheckEsp
  001c9	85 c0		 test	 eax, eax
  001cb	74 1d		 je	 SHORT $LN9@play_envir

; 3169 : #ifdef  _STONDEBUG_
; 3170 : 				MessageBox(hWnd, "复制声音buffer失败！", "Error", MB_OK);
; 3171 : #endif
; 3172 : 				//???????????蓰害??????
; 3173 : 				voice[ env_tbl[tbl_no].voice_address ].tone_no = -2;

  001cd	6b 45 08 24	 imul	 eax, DWORD PTR _tbl_no$[ebp], 36
  001d1	6b 88 00 00 00
	00 3c		 imul	 ecx, DWORD PTR ?env_tbl@@3PAUENVIRONMENT_EQU@@A[eax], 60
  001d8	c7 81 04 00 00
	00 fe ff ff ff	 mov	 DWORD PTR ?voice@@3PAUVOICE_EQU@@A[ecx+4], -2 ; fffffffeH

; 3174 : 				return -1;

  001e2	83 c8 ff	 or	 eax, -1
  001e5	e9 6c 02 00 00	 jmp	 $LN1@play_envir
$LN9@play_envir:

; 3175 : 			}
; 3176 : 		}
; 3177 : 	}
; 3178 : 
; 3179 : 	//??????
; 3180 : //	total_level = (127 - env_tbl[tbl_no].volume) * tone_tbl[ env_tbl[tbl_no].tone ].voice_volume / 127;
; 3181 : 
; 3182 : 	//?????????
; 3183 : //	total_level = total_level * t_music_se_volume / 15;
; 3184 : 
; 3185 : 	//???????????
; 3186 : 	if(env_tbl[tbl_no].volume != env_tbl[tbl_no].volume_old){

  001ea	6b 45 08 24	 imul	 eax, DWORD PTR _tbl_no$[ebp], 36
  001ee	6b 4d 08 24	 imul	 ecx, DWORD PTR _tbl_no$[ebp], 36
  001f2	8b 90 10 00 00
	00		 mov	 edx, DWORD PTR ?env_tbl@@3PAUENVIRONMENT_EQU@@A[eax+16]
  001f8	3b 91 14 00 00
	00		 cmp	 edx, DWORD PTR ?env_tbl@@3PAUENVIRONMENT_EQU@@A[ecx+20]
  001fe	74 59		 je	 SHORT $LN14@play_envir

; 3187 : 		// ????????
; 3188 : 		pDSData[ env_tbl[tbl_no].voice_address ]->SetVolume(volume_tbl[ env_tbl[tbl_no].volume ]);

  00200	6b 45 08 24	 imul	 eax, DWORD PTR _tbl_no$[ebp], 36
  00204	8b 88 10 00 00
	00		 mov	 ecx, DWORD PTR ?env_tbl@@3PAUENVIRONMENT_EQU@@A[eax+16]
  0020a	8b f4		 mov	 esi, esp
  0020c	8b 14 8d 00 00
	00 00		 mov	 edx, DWORD PTR ?volume_tbl@@3PAJA[ecx*4]
  00213	52		 push	 edx
  00214	6b 45 08 24	 imul	 eax, DWORD PTR _tbl_no$[ebp], 36
  00218	8b 88 00 00 00
	00		 mov	 ecx, DWORD PTR ?env_tbl@@3PAUENVIRONMENT_EQU@@A[eax]
  0021e	8b 14 8d 00 00
	00 00		 mov	 edx, DWORD PTR ?pDSData@@3PAPAUIDirectSoundBuffer@@A[ecx*4]
  00225	6b 45 08 24	 imul	 eax, DWORD PTR _tbl_no$[ebp], 36
  00229	8b 88 00 00 00
	00		 mov	 ecx, DWORD PTR ?env_tbl@@3PAUENVIRONMENT_EQU@@A[eax]
  0022f	8b 04 8d 00 00
	00 00		 mov	 eax, DWORD PTR ?pDSData@@3PAPAUIDirectSoundBuffer@@A[ecx*4]
  00236	8b 0a		 mov	 ecx, DWORD PTR [edx]
  00238	50		 push	 eax
  00239	8b 51 3c	 mov	 edx, DWORD PTR [ecx+60]
  0023c	ff d2		 call	 edx
  0023e	3b f4		 cmp	 esi, esp
  00240	e8 00 00 00 00	 call	 __RTC_CheckEsp

; 3189 : 		env_tbl[tbl_no].volume_old = env_tbl[tbl_no].volume;

  00245	6b 45 08 24	 imul	 eax, DWORD PTR _tbl_no$[ebp], 36
  00249	6b 4d 08 24	 imul	 ecx, DWORD PTR _tbl_no$[ebp], 36
  0024d	8b 90 10 00 00
	00		 mov	 edx, DWORD PTR ?env_tbl@@3PAUENVIRONMENT_EQU@@A[eax+16]
  00253	89 91 14 00 00
	00		 mov	 DWORD PTR ?env_tbl@@3PAUENVIRONMENT_EQU@@A[ecx+20], edx
$LN14@play_envir:

; 3190 : 	}
; 3191 : 
; 3192 : 	//???????????
; 3193 : 	if(env_tbl[tbl_no].panpot != env_tbl[tbl_no].panpot_old){

  00259	6b 45 08 24	 imul	 eax, DWORD PTR _tbl_no$[ebp], 36
  0025d	6b 4d 08 24	 imul	 ecx, DWORD PTR _tbl_no$[ebp], 36
  00261	8b 90 1c 00 00
	00		 mov	 edx, DWORD PTR ?env_tbl@@3PAUENVIRONMENT_EQU@@A[eax+28]
  00267	3b 91 20 00 00
	00		 cmp	 edx, DWORD PTR ?env_tbl@@3PAUENVIRONMENT_EQU@@A[ecx+32]
  0026d	74 59		 je	 SHORT $LN15@play_envir

; 3194 : 		// ????????
; 3195 : 		pDSData[ env_tbl[tbl_no].voice_address ]->SetPan(panpot_tbl[ env_tbl[tbl_no].panpot ]);

  0026f	6b 45 08 24	 imul	 eax, DWORD PTR _tbl_no$[ebp], 36
  00273	8b 88 1c 00 00
	00		 mov	 ecx, DWORD PTR ?env_tbl@@3PAUENVIRONMENT_EQU@@A[eax+28]
  00279	8b f4		 mov	 esi, esp
  0027b	8b 14 8d 00 00
	00 00		 mov	 edx, DWORD PTR ?panpot_tbl@@3PAJA[ecx*4]
  00282	52		 push	 edx
  00283	6b 45 08 24	 imul	 eax, DWORD PTR _tbl_no$[ebp], 36
  00287	8b 88 00 00 00
	00		 mov	 ecx, DWORD PTR ?env_tbl@@3PAUENVIRONMENT_EQU@@A[eax]
  0028d	8b 14 8d 00 00
	00 00		 mov	 edx, DWORD PTR ?pDSData@@3PAPAUIDirectSoundBuffer@@A[ecx*4]
  00294	6b 45 08 24	 imul	 eax, DWORD PTR _tbl_no$[ebp], 36
  00298	8b 88 00 00 00
	00		 mov	 ecx, DWORD PTR ?env_tbl@@3PAUENVIRONMENT_EQU@@A[eax]
  0029e	8b 04 8d 00 00
	00 00		 mov	 eax, DWORD PTR ?pDSData@@3PAPAUIDirectSoundBuffer@@A[ecx*4]
  002a5	8b 0a		 mov	 ecx, DWORD PTR [edx]
  002a7	50		 push	 eax
  002a8	8b 51 40	 mov	 edx, DWORD PTR [ecx+64]
  002ab	ff d2		 call	 edx
  002ad	3b f4		 cmp	 esi, esp
  002af	e8 00 00 00 00	 call	 __RTC_CheckEsp

; 3196 : 		env_tbl[tbl_no].panpot_old = env_tbl[tbl_no].panpot;

  002b4	6b 45 08 24	 imul	 eax, DWORD PTR _tbl_no$[ebp], 36
  002b8	6b 4d 08 24	 imul	 ecx, DWORD PTR _tbl_no$[ebp], 36
  002bc	8b 90 1c 00 00
	00		 mov	 edx, DWORD PTR ?env_tbl@@3PAUENVIRONMENT_EQU@@A[eax+28]
  002c2	89 91 20 00 00
	00		 mov	 DWORD PTR ?env_tbl@@3PAUENVIRONMENT_EQU@@A[ecx+32], edx
$LN15@play_envir:

; 3197 : 	}
; 3198 : 
; 3199 : 	//???k?e??
; 3200 : 	if(tone_tbl[ env_tbl[tbl_no].tone ].voice_note){

  002c8	6b 45 08 24	 imul	 eax, DWORD PTR _tbl_no$[ebp], 36
  002cc	8b 88 04 00 00
	00		 mov	 ecx, DWORD PTR ?env_tbl@@3PAUENVIRONMENT_EQU@@A[eax+4]
  002d2	c1 e1 05	 shl	 ecx, 5
  002d5	83 b9 10 00 00
	00 00		 cmp	 DWORD PTR ?tone_tbl@@3PAUTONE_EQU@@A[ecx+16], 0
  002dc	74 61		 je	 SHORT $LN16@play_envir

; 3201 : 		pDSData[ env_tbl[tbl_no].voice_address ]->SetFrequency(

  002de	6b 45 08 24	 imul	 eax, DWORD PTR _tbl_no$[ebp], 36
  002e2	8b 88 04 00 00
	00		 mov	 ecx, DWORD PTR ?env_tbl@@3PAUENVIRONMENT_EQU@@A[eax+4]
  002e8	c1 e1 05	 shl	 ecx, 5
  002eb	6b 55 08 24	 imul	 edx, DWORD PTR _tbl_no$[ebp], 36
  002ef	8b 82 04 00 00
	00		 mov	 eax, DWORD PTR ?env_tbl@@3PAUENVIRONMENT_EQU@@A[edx+4]
  002f5	c1 e0 05	 shl	 eax, 5
  002f8	8b 89 10 00 00
	00		 mov	 ecx, DWORD PTR ?tone_tbl@@3PAUTONE_EQU@@A[ecx+16]
  002fe	03 88 18 00 00
	00		 add	 ecx, DWORD PTR ?tone_tbl@@3PAUTONE_EQU@@A[eax+24]
  00304	8b f4		 mov	 esi, esp
  00306	8b 14 8d 00 00
	00 00		 mov	 edx, DWORD PTR ?freq_tbl@@3PAHA[ecx*4]
  0030d	52		 push	 edx
  0030e	6b 45 08 24	 imul	 eax, DWORD PTR _tbl_no$[ebp], 36
  00312	8b 88 00 00 00
	00		 mov	 ecx, DWORD PTR ?env_tbl@@3PAUENVIRONMENT_EQU@@A[eax]
  00318	8b 14 8d 00 00
	00 00		 mov	 edx, DWORD PTR ?pDSData@@3PAPAUIDirectSoundBuffer@@A[ecx*4]
  0031f	6b 45 08 24	 imul	 eax, DWORD PTR _tbl_no$[ebp], 36
  00323	8b 88 00 00 00
	00		 mov	 ecx, DWORD PTR ?env_tbl@@3PAUENVIRONMENT_EQU@@A[eax]
  00329	8b 04 8d 00 00
	00 00		 mov	 eax, DWORD PTR ?pDSData@@3PAPAUIDirectSoundBuffer@@A[ecx*4]
  00330	8b 0a		 mov	 ecx, DWORD PTR [edx]
  00332	50		 push	 eax
  00333	8b 51 44	 mov	 edx, DWORD PTR [ecx+68]
  00336	ff d2		 call	 edx
  00338	3b f4		 cmp	 esi, esp
  0033a	e8 00 00 00 00	 call	 __RTC_CheckEsp
$LN16@play_envir:

; 3202 : 			(DWORD)freq_tbl[tone_tbl[ env_tbl[tbl_no].tone ].voice_note + tone_tbl[ env_tbl[tbl_no].tone ].voice_rate]);
; 3203 : 	}
; 3204 : 
; 3205 : 	if(new_flg){		//???

  0033f	83 7d 0c 00	 cmp	 DWORD PTR _new_flg$[ebp], 0
  00343	0f 84 0b 01 00
	00		 je	 $LN17@play_envir

; 3206 : 		pDSData[ env_tbl[tbl_no].voice_address ]->SetCurrentPosition(0);	//

  00349	8b f4		 mov	 esi, esp
  0034b	6a 00		 push	 0
  0034d	6b 45 08 24	 imul	 eax, DWORD PTR _tbl_no$[ebp], 36
  00351	8b 88 00 00 00
	00		 mov	 ecx, DWORD PTR ?env_tbl@@3PAUENVIRONMENT_EQU@@A[eax]
  00357	8b 14 8d 00 00
	00 00		 mov	 edx, DWORD PTR ?pDSData@@3PAPAUIDirectSoundBuffer@@A[ecx*4]
  0035e	6b 45 08 24	 imul	 eax, DWORD PTR _tbl_no$[ebp], 36
  00362	8b 88 00 00 00
	00		 mov	 ecx, DWORD PTR ?env_tbl@@3PAUENVIRONMENT_EQU@@A[eax]
  00368	8b 04 8d 00 00
	00 00		 mov	 eax, DWORD PTR ?pDSData@@3PAPAUIDirectSoundBuffer@@A[ecx*4]
  0036f	8b 0a		 mov	 ecx, DWORD PTR [edx]
  00371	50		 push	 eax
  00372	8b 51 34	 mov	 edx, DWORD PTR [ecx+52]
  00375	ff d2		 call	 edx
  00377	3b f4		 cmp	 esi, esp
  00379	e8 00 00 00 00	 call	 __RTC_CheckEsp

; 3207 : 		if(tone_tbl[ env_tbl[tbl_no].tone ].voice_loop == 0 ){		//??????

  0037e	6b 45 08 24	 imul	 eax, DWORD PTR _tbl_no$[ebp], 36
  00382	8b 88 04 00 00
	00		 mov	 ecx, DWORD PTR ?env_tbl@@3PAUENVIRONMENT_EQU@@A[eax+4]
  00388	c1 e1 05	 shl	 ecx, 5
  0038b	83 b9 08 00 00
	00 00		 cmp	 DWORD PTR ?tone_tbl@@3PAUTONE_EQU@@A[ecx+8], 0
  00392	75 3b		 jne	 SHORT $LN18@play_envir

; 3208 : 			pDSData[ env_tbl[tbl_no].voice_address ]->Play(0, 0, 0);			//????

  00394	8b f4		 mov	 esi, esp
  00396	6a 00		 push	 0
  00398	6a 00		 push	 0
  0039a	6a 00		 push	 0
  0039c	6b 45 08 24	 imul	 eax, DWORD PTR _tbl_no$[ebp], 36
  003a0	8b 88 00 00 00
	00		 mov	 ecx, DWORD PTR ?env_tbl@@3PAUENVIRONMENT_EQU@@A[eax]
  003a6	8b 14 8d 00 00
	00 00		 mov	 edx, DWORD PTR ?pDSData@@3PAPAUIDirectSoundBuffer@@A[ecx*4]
  003ad	6b 45 08 24	 imul	 eax, DWORD PTR _tbl_no$[ebp], 36
  003b1	8b 88 00 00 00
	00		 mov	 ecx, DWORD PTR ?env_tbl@@3PAUENVIRONMENT_EQU@@A[eax]
  003b7	8b 04 8d 00 00
	00 00		 mov	 eax, DWORD PTR ?pDSData@@3PAPAUIDirectSoundBuffer@@A[ecx*4]
  003be	8b 0a		 mov	 ecx, DWORD PTR [edx]
  003c0	50		 push	 eax
  003c1	8b 51 30	 mov	 edx, DWORD PTR [ecx+48]
  003c4	ff d2		 call	 edx
  003c6	3b f4		 cmp	 esi, esp
  003c8	e8 00 00 00 00	 call	 __RTC_CheckEsp

; 3209 : 		} else {

  003cd	eb 4e		 jmp	 SHORT $LN2@play_envir
$LN18@play_envir:

; 3210 : 			voice[ env_tbl[tbl_no].voice_address ].loop_flg = 1;		//????

  003cf	6b 45 08 24	 imul	 eax, DWORD PTR _tbl_no$[ebp], 36
  003d3	6b 88 00 00 00
	00 3c		 imul	 ecx, DWORD PTR ?env_tbl@@3PAUENVIRONMENT_EQU@@A[eax], 60
  003da	c7 81 30 00 00
	00 01 00 00 00	 mov	 DWORD PTR ?voice@@3PAUVOICE_EQU@@A[ecx+48], 1

; 3211 : 			pDSData[ env_tbl[tbl_no].voice_address ]->Play(0, 0, DSBPLAY_LOOPING);		//????

  003e4	8b f4		 mov	 esi, esp
  003e6	6a 01		 push	 1
  003e8	6a 00		 push	 0
  003ea	6a 00		 push	 0
  003ec	6b 45 08 24	 imul	 eax, DWORD PTR _tbl_no$[ebp], 36
  003f0	8b 88 00 00 00
	00		 mov	 ecx, DWORD PTR ?env_tbl@@3PAUENVIRONMENT_EQU@@A[eax]
  003f6	8b 14 8d 00 00
	00 00		 mov	 edx, DWORD PTR ?pDSData@@3PAPAUIDirectSoundBuffer@@A[ecx*4]
  003fd	6b 45 08 24	 imul	 eax, DWORD PTR _tbl_no$[ebp], 36
  00401	8b 88 00 00 00
	00		 mov	 ecx, DWORD PTR ?env_tbl@@3PAUENVIRONMENT_EQU@@A[eax]
  00407	8b 04 8d 00 00
	00 00		 mov	 eax, DWORD PTR ?pDSData@@3PAPAUIDirectSoundBuffer@@A[ecx*4]
  0040e	8b 0a		 mov	 ecx, DWORD PTR [edx]
  00410	50		 push	 eax
  00411	8b 51 30	 mov	 edx, DWORD PTR [ecx+48]
  00414	ff d2		 call	 edx
  00416	3b f4		 cmp	 esi, esp
  00418	e8 00 00 00 00	 call	 __RTC_CheckEsp
$LN2@play_envir:

; 3212 : 		}
; 3213 : 
; 3214 : 		while(1){

  0041d	b8 01 00 00 00	 mov	 eax, 1
  00422	85 c0		 test	 eax, eax
  00424	74 2e		 je	 SHORT $LN17@play_envir

; 3215 : 			voice_seek_point++;		//??????

  00426	a1 00 00 00 00	 mov	 eax, DWORD PTR ?voice_seek_point@@3HA
  0042b	83 c0 01	 add	 eax, 1
  0042e	a3 00 00 00 00	 mov	 DWORD PTR ?voice_seek_point@@3HA, eax

; 3216 : 			voice_seek_point&=VOICE_MAX-1;				//

  00433	a1 00 00 00 00	 mov	 eax, DWORD PTR ?voice_seek_point@@3HA
  00438	83 e0 3f	 and	 eax, 63			; 0000003fH
  0043b	a3 00 00 00 00	 mov	 DWORD PTR ?voice_seek_point@@3HA, eax

; 3217 : 			if(voice[ voice_seek_point ].loop_flg == 0){		//??????????

  00440	6b 05 00 00 00
	00 3c		 imul	 eax, DWORD PTR ?voice_seek_point@@3HA, 60
  00447	83 b8 30 00 00
	00 00		 cmp	 DWORD PTR ?voice@@3PAUVOICE_EQU@@A[eax+48], 0
  0044e	75 02		 jne	 SHORT $LN20@play_envir

; 3218 : 				break;

  00450	eb 02		 jmp	 SHORT $LN17@play_envir
$LN20@play_envir:

; 3219 : 			}
; 3220 : 		}

  00452	eb c9		 jmp	 SHORT $LN2@play_envir
$LN17@play_envir:

; 3221 : 	}
; 3222 : //	tone_tbl[ env_tbl[tbl_no].tone ].play_time = 8;		//???????
; 3223 : 
; 3224 : 	return 0;

  00454	33 c0		 xor	 eax, eax
$LN1@play_envir:

; 3225 : }

  00456	5f		 pop	 edi
  00457	5e		 pop	 esi
  00458	5b		 pop	 ebx
  00459	81 c4 cc 00 00
	00		 add	 esp, 204		; 000000ccH
  0045f	3b ec		 cmp	 ebp, esp
  00461	e8 00 00 00 00	 call	 __RTC_CheckEsp
  00466	8b e5		 mov	 esp, ebp
  00468	5d		 pop	 ebp
  00469	c3		 ret	 0
?play_environment_tone@@YAHHH@Z ENDP			; play_environment_tone
_TEXT	ENDS
; Function compile flags: /Odtp /RTCsu /ZI
; File c:\users\administrator\desktop\????? ??\????? ??\client source code\system\t_music.cpp
;	COMDAT ?dwSoundInit2@@YAHPAUtWAVEFORMATEX@@KPAPAUIDirectSoundBuffer@@PAUHMMIO__@@@Z
_TEXT	SEGMENT
_hr$ = -172						; size = 4
_pn$ = -160						; size = 24
_dsbdesc$ = -128					; size = 36
_ret$ = -84						; size = 4
_dsbufferdesc$ = -72					; size = 36
_pcmwf$ = -28						; size = 18
__$ArrayPad$ = -4					; size = 4
_pWfmtx$ = 8						; size = 4
_DataSize$ = 12						; size = 4
_ppData$ = 16						; size = 4
_hmmio$ = 20						; size = 4
?dwSoundInit2@@YAHPAUtWAVEFORMATEX@@KPAPAUIDirectSoundBuffer@@PAUHMMIO__@@@Z PROC ; dwSoundInit2, COMDAT

; 2639 : {

  00000	55		 push	 ebp
  00001	8b ec		 mov	 ebp, esp
  00003	81 ec 70 01 00
	00		 sub	 esp, 368		; 00000170H
  00009	53		 push	 ebx
  0000a	56		 push	 esi
  0000b	57		 push	 edi
  0000c	8d bd 90 fe ff
	ff		 lea	 edi, DWORD PTR [ebp-368]
  00012	b9 5c 00 00 00	 mov	 ecx, 92			; 0000005cH
  00017	b8 cc cc cc cc	 mov	 eax, -858993460		; ccccccccH
  0001c	f3 ab		 rep stosd
  0001e	a1 00 00 00 00	 mov	 eax, DWORD PTR ___security_cookie
  00023	33 c5		 xor	 eax, ebp
  00025	89 45 fc	 mov	 DWORD PTR __$ArrayPad$[ebp], eax

; 2640 : 	// ?????????????????????
; 2641 : 	WAVEFORMATEX pcmwf = *pWfmtx;

  00028	8b 45 08	 mov	 eax, DWORD PTR _pWfmtx$[ebp]
  0002b	8b 08		 mov	 ecx, DWORD PTR [eax]
  0002d	89 4d e4	 mov	 DWORD PTR _pcmwf$[ebp], ecx
  00030	8b 50 04	 mov	 edx, DWORD PTR [eax+4]
  00033	89 55 e8	 mov	 DWORD PTR _pcmwf$[ebp+4], edx
  00036	8b 48 08	 mov	 ecx, DWORD PTR [eax+8]
  00039	89 4d ec	 mov	 DWORD PTR _pcmwf$[ebp+8], ecx
  0003c	8b 50 0c	 mov	 edx, DWORD PTR [eax+12]
  0003f	89 55 f0	 mov	 DWORD PTR _pcmwf$[ebp+12], edx
  00042	66 8b 40 10	 mov	 ax, WORD PTR [eax+16]
  00046	66 89 45 f4	 mov	 WORD PTR _pcmwf$[ebp+16], ax

; 2642 : 	DSBUFFERDESC  dsbufferdesc;
; 2643 : 	HRESULT ret;
; 2644 : 
; 2645 : 	//?????
; 2646 : 	if(stream_flg == 1){

  0004a	0f be 05 00 00
	00 00		 movsx	 eax, BYTE PTR ?stream_flg@@3DA
  00051	83 f8 01	 cmp	 eax, 1
  00054	75 36		 jne	 SHORT $LN4@dwSoundIni

; 2647 : 		RELEASE(pDSNotify);

  00056	83 3d 00 00 00
	00 00		 cmp	 DWORD PTR ?pDSNotify@@3PAUIDirectSoundNotify@@A, 0
  0005d	74 26		 je	 SHORT $LN5@dwSoundIni
  0005f	a1 00 00 00 00	 mov	 eax, DWORD PTR ?pDSNotify@@3PAUIDirectSoundNotify@@A
  00064	8b 08		 mov	 ecx, DWORD PTR [eax]
  00066	8b f4		 mov	 esi, esp
  00068	8b 15 00 00 00
	00		 mov	 edx, DWORD PTR ?pDSNotify@@3PAUIDirectSoundNotify@@A
  0006e	52		 push	 edx
  0006f	8b 41 08	 mov	 eax, DWORD PTR [ecx+8]
  00072	ff d0		 call	 eax
  00074	3b f4		 cmp	 esi, esp
  00076	e8 00 00 00 00	 call	 __RTC_CheckEsp
  0007b	c7 05 00 00 00
	00 00 00 00 00	 mov	 DWORD PTR ?pDSNotify@@3PAUIDirectSoundNotify@@A, 0
$LN5@dwSoundIni:

; 2648 : 		stream_flg = 0;

  00085	c6 05 00 00 00
	00 00		 mov	 BYTE PTR ?stream_flg@@3DA, 0
$LN4@dwSoundIni:

; 2649 : 	}
; 2650 : 	//??????????????
; 2651 : 	memset( &dsbufferdesc , 0  , sizeof( DSBUFFERDESC ) );

  0008c	6a 24		 push	 36			; 00000024H
  0008e	6a 00		 push	 0
  00090	8d 45 b8	 lea	 eax, DWORD PTR _dsbufferdesc$[ebp]
  00093	50		 push	 eax
  00094	e8 00 00 00 00	 call	 _memset
  00099	83 c4 0c	 add	 esp, 12			; 0000000cH

; 2652 : 	dsbufferdesc.dwSize = sizeof( DSBUFFERDESC );

  0009c	c7 45 b8 24 00
	00 00		 mov	 DWORD PTR _dsbufferdesc$[ebp], 36 ; 00000024H

; 2653 : 	dsbufferdesc.dwFlags = DSBCAPS_CTRLPOSITIONNOTIFY | /*DSBCAPS_CTRLDEFAULT*/DSBCAPS_CTRLPAN | DSBCAPS_CTRLVOLUME | DSBCAPS_CTRLFREQUENCY | DSBCAPS_GETCURRENTPOSITION2; 

  000a3	c7 45 bc e0 01
	01 00		 mov	 DWORD PTR _dsbufferdesc$[ebp+4], 66016 ; 000101e0H

; 2654 : //	dsbufferdesc.dwFlags = DSBCAPS_CTRLPOSITIONNOTIFY | DSBCAPS_STATIC | DSBCAPS_CTRLDEFAULT | DSBCAPS_GETCURRENTPOSITION2 | DSBCAPS_GLOBALFOCUS; 
; 2655 :     dsbufferdesc.dwBufferBytes = DataSize;

  000aa	8b 45 0c	 mov	 eax, DWORD PTR _DataSize$[ebp]
  000ad	89 45 c0	 mov	 DWORD PTR _dsbufferdesc$[ebp+8], eax

; 2656 :     dsbufferdesc.lpwfxFormat   = pWfmtx;

  000b0	8b 45 08	 mov	 eax, DWORD PTR _pWfmtx$[ebp]
  000b3	89 45 c8	 mov	 DWORD PTR _dsbufferdesc$[ebp+16], eax

; 2657 :     if ( pDSound->CreateSoundBuffer( &dsbufferdesc , ppData , NULL ) != DS_OK ){

  000b6	8b f4		 mov	 esi, esp
  000b8	6a 00		 push	 0
  000ba	8b 45 10	 mov	 eax, DWORD PTR _ppData$[ebp]
  000bd	50		 push	 eax
  000be	8d 4d b8	 lea	 ecx, DWORD PTR _dsbufferdesc$[ebp]
  000c1	51		 push	 ecx
  000c2	8b 15 00 00 00
	00		 mov	 edx, DWORD PTR ?pDSound@@3PAUIDirectSound@@A ; pDSound
  000c8	8b 02		 mov	 eax, DWORD PTR [edx]
  000ca	8b 0d 00 00 00
	00		 mov	 ecx, DWORD PTR ?pDSound@@3PAUIDirectSound@@A ; pDSound
  000d0	51		 push	 ecx
  000d1	8b 50 0c	 mov	 edx, DWORD PTR [eax+12]
  000d4	ff d2		 call	 edx
  000d6	3b f4		 cmp	 esi, esp
  000d8	e8 00 00 00 00	 call	 __RTC_CheckEsp
  000dd	85 c0		 test	 eax, eax
  000df	74 07		 je	 SHORT $LN6@dwSoundIni

; 2658 : #ifdef  _STONDEBUG_
; 2659 : 	    MessageBox(hWnd, "建立声音的buffer失败！", "Error", MB_OK);
; 2660 : #endif
; 2661 : 		return FALSE;

  000e1	33 c0		 xor	 eax, eax
  000e3	e9 3f 04 00 00	 jmp	 $LN1@dwSoundIni
$LN6@dwSoundIni:

; 2662 : 	}
; 2663 : 
; 2664 : 
; 2665 : 	//??????????
; 2666 : 	if( WaveDataRead( hmmio, &DataSize, pDSData_stream ) == FALSE  ){

  000e8	a1 00 00 00 00	 mov	 eax, DWORD PTR ?pDSData_stream@@3PAUIDirectSoundBuffer@@A ; pDSData_stream
  000ed	50		 push	 eax
  000ee	8d 4d 0c	 lea	 ecx, DWORD PTR _DataSize$[ebp]
  000f1	51		 push	 ecx
  000f2	8b 55 14	 mov	 edx, DWORD PTR _hmmio$[ebp]
  000f5	52		 push	 edx
  000f6	e8 00 00 00 00	 call	 ?WaveDataRead@@YAHPAUHMMIO__@@PAKPAUIDirectSoundBuffer@@@Z ; WaveDataRead
  000fb	83 c4 0c	 add	 esp, 12			; 0000000cH
  000fe	85 c0		 test	 eax, eax
  00100	75 07		 jne	 SHORT $LN7@dwSoundIni

; 2667 : #ifdef  _STONDEBUG_
; 2668 : 		MessageBox(hWnd, "读取WAV档失败！", "Error", MB_OK);
; 2669 : #endif
; 2670 : 		return FALSE;

  00102	33 c0		 xor	 eax, eax
  00104	e9 1e 04 00 00	 jmp	 $LN1@dwSoundIni
$LN7@dwSoundIni:

; 2671 : 	}
; 2672 : 
; 2673 : 	// ?????????????????????
; 2674 : //	WAVEFORMATEX pcmwf = *pWaveHeader;
; 2675 : 	DSBUFFERDESC dsbdesc; 
; 2676 : 	// DSBUFFERDESC?Bl?@e
; 2677 : 	ZeroMemory(&dsbdesc, sizeof(DSBUFFERDESC));

  00109	6a 24		 push	 36			; 00000024H
  0010b	6a 00		 push	 0
  0010d	8d 45 80	 lea	 eax, DWORD PTR _dsbdesc$[ebp]
  00110	50		 push	 eax
  00111	e8 00 00 00 00	 call	 _memset
  00116	83 c4 0c	 add	 esp, 12			; 0000000cH

; 2678 : 	dsbdesc.dwSize = sizeof(DSBUFFERDESC); 

  00119	c7 45 80 24 00
	00 00		 mov	 DWORD PTR _dsbdesc$[ebp], 36 ; 00000024H

; 2679 : #if ACTIVE
; 2680 : 	dsbdesc.dwFlags = DSBCAPS_CTRLPOSITIONNOTIFY | /*DSBCAPS_CTRLDEFAULT*/DSBCAPS_CTRLPAN | DSBCAPS_CTRLVOLUME | DSBCAPS_CTRLFREQUENCY | DSBCAPS_GETCURRENTPOSITION2 | DSBCAPS_GLOBALFOCUS; 

  00120	c7 45 84 e0 81
	01 00		 mov	 DWORD PTR _dsbdesc$[ebp+4], 98784 ; 000181e0H

; 2681 : #else
; 2682 : 	dsbdesc.dwFlags = DSBCAPS_CTRLPOSITIONNOTIFY | /*DSBCAPS_CTRLDEFAULT*/DSBCAPS_CTRLPAN | DSBCAPS_CTRLVOLUME | DSBCAPS_CTRLFREQUENCY | DSBCAPS_GETCURRENTPOSITION2; 
; 2683 : #endif
; 2684 : 	// ?@e??Wave??????????????????
; 2685 : 	dsbdesc.dwBufferBytes = 2 * pcmwf.nAvgBytesPerSec; 

  00127	8b 45 ec	 mov	 eax, DWORD PTR _pcmwf$[ebp+8]
  0012a	d1 e0		 shl	 eax, 1
  0012c	89 45 88	 mov	 DWORD PTR _dsbdesc$[ebp+8], eax

; 2686 : 	dsbdesc.lpwfxFormat = &pcmwf; 

  0012f	8d 45 e4	 lea	 eax, DWORD PTR _pcmwf$[ebp]
  00132	89 45 90	 mov	 DWORD PTR _dsbdesc$[ebp+16], eax

; 2687 : 	ret = pDSound->CreateSoundBuffer(&dsbdesc, &pDSData_tone[ TONE_MAX ], NULL); 

  00135	8b f4		 mov	 esi, esp
  00137	6a 00		 push	 0
  00139	b8 04 00 00 00	 mov	 eax, 4
  0013e	69 c8 f4 01 00
	00		 imul	 ecx, eax, 500
  00144	81 c1 00 00 00
	00		 add	 ecx, OFFSET ?pDSData_tone@@3PAPAUIDirectSoundBuffer@@A ; pDSData_tone
  0014a	51		 push	 ecx
  0014b	8d 55 80	 lea	 edx, DWORD PTR _dsbdesc$[ebp]
  0014e	52		 push	 edx
  0014f	a1 00 00 00 00	 mov	 eax, DWORD PTR ?pDSound@@3PAUIDirectSound@@A ; pDSound
  00154	8b 08		 mov	 ecx, DWORD PTR [eax]
  00156	8b 15 00 00 00
	00		 mov	 edx, DWORD PTR ?pDSound@@3PAUIDirectSound@@A ; pDSound
  0015c	52		 push	 edx
  0015d	8b 41 0c	 mov	 eax, DWORD PTR [ecx+12]
  00160	ff d0		 call	 eax
  00162	3b f4		 cmp	 esi, esp
  00164	e8 00 00 00 00	 call	 __RTC_CheckEsp
  00169	89 45 ac	 mov	 DWORD PTR _ret$[ebp], eax

; 2688 : 	if(ret != DS_OK) { 

  0016c	83 7d ac 00	 cmp	 DWORD PTR _ret$[ebp], 0
  00170	74 36		 je	 SHORT $LN8@dwSoundIni

; 2689 : 	    // ???????害
; 2690 : //		RELEASE(pDSound);
; 2691 : 		RELEASE(pDSData_stream);

  00172	83 3d 00 00 00
	00 00		 cmp	 DWORD PTR ?pDSData_stream@@3PAUIDirectSoundBuffer@@A, 0 ; pDSData_stream
  00179	74 26		 je	 SHORT $LN9@dwSoundIni
  0017b	a1 00 00 00 00	 mov	 eax, DWORD PTR ?pDSData_stream@@3PAUIDirectSoundBuffer@@A ; pDSData_stream
  00180	8b 08		 mov	 ecx, DWORD PTR [eax]
  00182	8b f4		 mov	 esi, esp
  00184	8b 15 00 00 00
	00		 mov	 edx, DWORD PTR ?pDSData_stream@@3PAUIDirectSoundBuffer@@A ; pDSData_stream
  0018a	52		 push	 edx
  0018b	8b 41 08	 mov	 eax, DWORD PTR [ecx+8]
  0018e	ff d0		 call	 eax
  00190	3b f4		 cmp	 esi, esp
  00192	e8 00 00 00 00	 call	 __RTC_CheckEsp
  00197	c7 05 00 00 00
	00 00 00 00 00	 mov	 DWORD PTR ?pDSData_stream@@3PAUIDirectSoundBuffer@@A, 0 ; pDSData_stream
$LN9@dwSoundIni:

; 2692 : #ifdef  _STONDEBUG_
; 2693 : 	    MessageBox(hWnd, "建立声音的buffer失败！", "Error", MB_OK);
; 2694 : #endif
; 2695 : 		return FALSE;

  001a1	33 c0		 xor	 eax, eax
  001a3	e9 7f 03 00 00	 jmp	 $LN1@dwSoundIni
$LN8@dwSoundIni:

; 2696 : 	}
; 2697 : 
; 2698 : 	// DirectSoundNotify??????????
; 2699 : 	ret = pDSData_tone[ TONE_MAX ]->QueryInterface(IID_IDirectSoundNotify, (LPVOID*)&pDSNotify);

  001a8	8b f4		 mov	 esi, esp
  001aa	68 00 00 00 00	 push	 OFFSET ?pDSNotify@@3PAUIDirectSoundNotify@@A
  001af	68 00 00 00 00	 push	 OFFSET _IID_IDirectSoundNotify
  001b4	b8 04 00 00 00	 mov	 eax, 4
  001b9	69 c8 f4 01 00
	00		 imul	 ecx, eax, 500
  001bf	8b 91 00 00 00
	00		 mov	 edx, DWORD PTR ?pDSData_tone@@3PAPAUIDirectSoundBuffer@@A[ecx]
  001c5	b8 04 00 00 00	 mov	 eax, 4
  001ca	69 c8 f4 01 00
	00		 imul	 ecx, eax, 500
  001d0	8b 81 00 00 00
	00		 mov	 eax, DWORD PTR ?pDSData_tone@@3PAPAUIDirectSoundBuffer@@A[ecx]
  001d6	8b 0a		 mov	 ecx, DWORD PTR [edx]
  001d8	50		 push	 eax
  001d9	8b 11		 mov	 edx, DWORD PTR [ecx]
  001db	ff d2		 call	 edx
  001dd	3b f4		 cmp	 esi, esp
  001df	e8 00 00 00 00	 call	 __RTC_CheckEsp
  001e4	89 45 ac	 mov	 DWORD PTR _ret$[ebp], eax

; 2700 : 	if(ret != DS_OK)

  001e7	83 7d ac 00	 cmp	 DWORD PTR _ret$[ebp], 0
  001eb	0f 84 92 00 00
	00		 je	 $LN10@dwSoundIni

; 2701 : 	{
; 2702 : //		RELEASE(pDSound);
; 2703 : 		RELEASE(pDSData_stream);

  001f1	83 3d 00 00 00
	00 00		 cmp	 DWORD PTR ?pDSData_stream@@3PAUIDirectSoundBuffer@@A, 0 ; pDSData_stream
  001f8	74 26		 je	 SHORT $LN11@dwSoundIni
  001fa	a1 00 00 00 00	 mov	 eax, DWORD PTR ?pDSData_stream@@3PAUIDirectSoundBuffer@@A ; pDSData_stream
  001ff	8b 08		 mov	 ecx, DWORD PTR [eax]
  00201	8b f4		 mov	 esi, esp
  00203	8b 15 00 00 00
	00		 mov	 edx, DWORD PTR ?pDSData_stream@@3PAUIDirectSoundBuffer@@A ; pDSData_stream
  00209	52		 push	 edx
  0020a	8b 41 08	 mov	 eax, DWORD PTR [ecx+8]
  0020d	ff d0		 call	 eax
  0020f	3b f4		 cmp	 esi, esp
  00211	e8 00 00 00 00	 call	 __RTC_CheckEsp
  00216	c7 05 00 00 00
	00 00 00 00 00	 mov	 DWORD PTR ?pDSData_stream@@3PAUIDirectSoundBuffer@@A, 0 ; pDSData_stream
$LN11@dwSoundIni:

; 2704 : 		RELEASE(pDSData_tone[ TONE_MAX ]);

  00220	b8 04 00 00 00	 mov	 eax, 4
  00225	69 c8 f4 01 00
	00		 imul	 ecx, eax, 500
  0022b	83 b9 00 00 00
	00 00		 cmp	 DWORD PTR ?pDSData_tone@@3PAPAUIDirectSoundBuffer@@A[ecx], 0
  00232	74 48		 je	 SHORT $LN12@dwSoundIni
  00234	b8 04 00 00 00	 mov	 eax, 4
  00239	69 c8 f4 01 00
	00		 imul	 ecx, eax, 500
  0023f	8b 91 00 00 00
	00		 mov	 edx, DWORD PTR ?pDSData_tone@@3PAPAUIDirectSoundBuffer@@A[ecx]
  00245	b8 04 00 00 00	 mov	 eax, 4
  0024a	69 c8 f4 01 00
	00		 imul	 ecx, eax, 500
  00250	8b 81 00 00 00
	00		 mov	 eax, DWORD PTR ?pDSData_tone@@3PAPAUIDirectSoundBuffer@@A[ecx]
  00256	8b 0a		 mov	 ecx, DWORD PTR [edx]
  00258	8b f4		 mov	 esi, esp
  0025a	50		 push	 eax
  0025b	8b 51 08	 mov	 edx, DWORD PTR [ecx+8]
  0025e	ff d2		 call	 edx
  00260	3b f4		 cmp	 esi, esp
  00262	e8 00 00 00 00	 call	 __RTC_CheckEsp
  00267	b8 04 00 00 00	 mov	 eax, 4
  0026c	69 c8 f4 01 00
	00		 imul	 ecx, eax, 500
  00272	c7 81 00 00 00
	00 00 00 00 00	 mov	 DWORD PTR ?pDSData_tone@@3PAPAUIDirectSoundBuffer@@A[ecx], 0
$LN12@dwSoundIni:

; 2705 : #ifdef  _STONDEBUG_
; 2706 : 	    MessageBox(hWnd, "建立DirectSoundNotify失败！", "Error", MB_OK);
; 2707 : #endif
; 2708 : 		return FALSE;

  0027c	33 c0		 xor	 eax, eax
  0027e	e9 a4 02 00 00	 jmp	 $LN1@dwSoundIni
$LN10@dwSoundIni:

; 2709 : 		//  ??害
; 2710 : 	}
; 2711 : 
; 2712 : 	// ?????????????
; 2713 : 	hEvent[0] = CreateEvent(NULL, FALSE, FALSE, NULL);

  00283	8b f4		 mov	 esi, esp
  00285	6a 00		 push	 0
  00287	6a 00		 push	 0
  00289	6a 00		 push	 0
  0028b	6a 00		 push	 0
  0028d	ff 15 00 00 00
	00		 call	 DWORD PTR __imp__CreateEventA@16
  00293	3b f4		 cmp	 esi, esp
  00295	e8 00 00 00 00	 call	 __RTC_CheckEsp
  0029a	b9 04 00 00 00	 mov	 ecx, 4
  0029f	6b d1 00	 imul	 edx, ecx, 0
  002a2	89 82 00 00 00
	00		 mov	 DWORD PTR ?hEvent@@3PAPAXA[edx], eax

; 2714 : 	hEvent[1] = CreateEvent(NULL, FALSE, FALSE, NULL);

  002a8	8b f4		 mov	 esi, esp
  002aa	6a 00		 push	 0
  002ac	6a 00		 push	 0
  002ae	6a 00		 push	 0
  002b0	6a 00		 push	 0
  002b2	ff 15 00 00 00
	00		 call	 DWORD PTR __imp__CreateEventA@16
  002b8	3b f4		 cmp	 esi, esp
  002ba	e8 00 00 00 00	 call	 __RTC_CheckEsp
  002bf	b9 04 00 00 00	 mov	 ecx, 4
  002c4	c1 e1 00	 shl	 ecx, 0
  002c7	89 81 00 00 00
	00		 mov	 DWORD PTR ?hEvent@@3PAPAXA[ecx], eax

; 2715 : 	hEvent[2] = CreateEvent(NULL, FALSE, FALSE, NULL);

  002cd	8b f4		 mov	 esi, esp
  002cf	6a 00		 push	 0
  002d1	6a 00		 push	 0
  002d3	6a 00		 push	 0
  002d5	6a 00		 push	 0
  002d7	ff 15 00 00 00
	00		 call	 DWORD PTR __imp__CreateEventA@16
  002dd	3b f4		 cmp	 esi, esp
  002df	e8 00 00 00 00	 call	 __RTC_CheckEsp
  002e4	b9 04 00 00 00	 mov	 ecx, 4
  002e9	d1 e1		 shl	 ecx, 1
  002eb	89 81 00 00 00
	00		 mov	 DWORD PTR ?hEvent@@3PAPAXA[ecx], eax

; 2716 : 
; 2717 : 	// DirectSoundNotify???????@e??
; 2718 : 	// ?Bl????
; 2719 : 	DSBPOSITIONNOTIFY  pn[3];
; 2720 : 	pn[0].dwOffset = 0;	// ??

  002f1	b8 08 00 00 00	 mov	 eax, 8
  002f6	6b c8 00	 imul	 ecx, eax, 0
  002f9	c7 84 0d 60 ff
	ff ff 00 00 00
	00		 mov	 DWORD PTR _pn$[ebp+ecx], 0

; 2721 : 	pn[0].hEventNotify = hEvent[0];

  00304	b8 04 00 00 00	 mov	 eax, 4
  00309	6b c8 00	 imul	 ecx, eax, 0
  0030c	ba 08 00 00 00	 mov	 edx, 8
  00311	6b c2 00	 imul	 eax, edx, 0
  00314	8b 89 00 00 00
	00		 mov	 ecx, DWORD PTR ?hEvent@@3PAPAXA[ecx]
  0031a	89 8c 05 64 ff
	ff ff		 mov	 DWORD PTR _pn$[ebp+eax+4], ecx

; 2722 : 	pn[1].dwOffset = 1 * pcmwf.nAvgBytesPerSec;	// ??

  00321	b8 08 00 00 00	 mov	 eax, 8
  00326	c1 e0 00	 shl	 eax, 0
  00329	8b 4d ec	 mov	 ecx, DWORD PTR _pcmwf$[ebp+8]
  0032c	89 8c 05 60 ff
	ff ff		 mov	 DWORD PTR _pn$[ebp+eax], ecx

; 2723 : 	pn[1].hEventNotify = hEvent[1];

  00333	b8 04 00 00 00	 mov	 eax, 4
  00338	c1 e0 00	 shl	 eax, 0
  0033b	b9 08 00 00 00	 mov	 ecx, 8
  00340	c1 e1 00	 shl	 ecx, 0
  00343	8b 90 00 00 00
	00		 mov	 edx, DWORD PTR ?hEvent@@3PAPAXA[eax]
  00349	89 94 0d 64 ff
	ff ff		 mov	 DWORD PTR _pn$[ebp+ecx+4], edx

; 2724 : 	pn[2].dwOffset = DSBPN_OFFSETSTOP;	// ?丐_

  00350	b8 08 00 00 00	 mov	 eax, 8
  00355	d1 e0		 shl	 eax, 1
  00357	c7 84 05 60 ff
	ff ff ff ff ff
	ff		 mov	 DWORD PTR _pn$[ebp+eax], -1

; 2725 : 	pn[2].hEventNotify = hEvent[2];	// ??????????????_??????????

  00362	b8 04 00 00 00	 mov	 eax, 4
  00367	d1 e0		 shl	 eax, 1
  00369	b9 08 00 00 00	 mov	 ecx, 8
  0036e	d1 e1		 shl	 ecx, 1
  00370	8b 90 00 00 00
	00		 mov	 edx, DWORD PTR ?hEvent@@3PAPAXA[eax]
  00376	89 94 0d 64 ff
	ff ff		 mov	 DWORD PTR _pn$[ebp+ecx+4], edx

; 2726 : 
; 2727 : 	// _?t@e
; 2728 : 	HRESULT hr;
; 2729 : 	hr = pDSNotify->SetNotificationPositions(3, pn);

  0037d	8b f4		 mov	 esi, esp
  0037f	8d 85 60 ff ff
	ff		 lea	 eax, DWORD PTR _pn$[ebp]
  00385	50		 push	 eax
  00386	6a 03		 push	 3
  00388	8b 0d 00 00 00
	00		 mov	 ecx, DWORD PTR ?pDSNotify@@3PAUIDirectSoundNotify@@A
  0038e	8b 11		 mov	 edx, DWORD PTR [ecx]
  00390	a1 00 00 00 00	 mov	 eax, DWORD PTR ?pDSNotify@@3PAUIDirectSoundNotify@@A
  00395	50		 push	 eax
  00396	8b 4a 0c	 mov	 ecx, DWORD PTR [edx+12]
  00399	ff d1		 call	 ecx
  0039b	3b f4		 cmp	 esi, esp
  0039d	e8 00 00 00 00	 call	 __RTC_CheckEsp
  003a2	89 85 54 ff ff
	ff		 mov	 DWORD PTR _hr$[ebp], eax

; 2730 : 	if(hr != DS_OK)

  003a8	83 bd 54 ff ff
	ff 00		 cmp	 DWORD PTR _hr$[ebp], 0
  003af	0f 84 c1 00 00
	00		 je	 $LN13@dwSoundIni

; 2731 : 	{
; 2732 : 	    // @e害
; 2733 : 		RELEASE(pDSNotify);

  003b5	83 3d 00 00 00
	00 00		 cmp	 DWORD PTR ?pDSNotify@@3PAUIDirectSoundNotify@@A, 0
  003bc	74 26		 je	 SHORT $LN14@dwSoundIni
  003be	a1 00 00 00 00	 mov	 eax, DWORD PTR ?pDSNotify@@3PAUIDirectSoundNotify@@A
  003c3	8b 08		 mov	 ecx, DWORD PTR [eax]
  003c5	8b f4		 mov	 esi, esp
  003c7	8b 15 00 00 00
	00		 mov	 edx, DWORD PTR ?pDSNotify@@3PAUIDirectSoundNotify@@A
  003cd	52		 push	 edx
  003ce	8b 41 08	 mov	 eax, DWORD PTR [ecx+8]
  003d1	ff d0		 call	 eax
  003d3	3b f4		 cmp	 esi, esp
  003d5	e8 00 00 00 00	 call	 __RTC_CheckEsp
  003da	c7 05 00 00 00
	00 00 00 00 00	 mov	 DWORD PTR ?pDSNotify@@3PAUIDirectSoundNotify@@A, 0
$LN14@dwSoundIni:

; 2734 : //		RELEASE(pDSound);
; 2735 : 		RELEASE(pDSData_stream);

  003e4	83 3d 00 00 00
	00 00		 cmp	 DWORD PTR ?pDSData_stream@@3PAUIDirectSoundBuffer@@A, 0 ; pDSData_stream
  003eb	74 26		 je	 SHORT $LN15@dwSoundIni
  003ed	a1 00 00 00 00	 mov	 eax, DWORD PTR ?pDSData_stream@@3PAUIDirectSoundBuffer@@A ; pDSData_stream
  003f2	8b 08		 mov	 ecx, DWORD PTR [eax]
  003f4	8b f4		 mov	 esi, esp
  003f6	8b 15 00 00 00
	00		 mov	 edx, DWORD PTR ?pDSData_stream@@3PAUIDirectSoundBuffer@@A ; pDSData_stream
  003fc	52		 push	 edx
  003fd	8b 41 08	 mov	 eax, DWORD PTR [ecx+8]
  00400	ff d0		 call	 eax
  00402	3b f4		 cmp	 esi, esp
  00404	e8 00 00 00 00	 call	 __RTC_CheckEsp
  00409	c7 05 00 00 00
	00 00 00 00 00	 mov	 DWORD PTR ?pDSData_stream@@3PAUIDirectSoundBuffer@@A, 0 ; pDSData_stream
$LN15@dwSoundIni:

; 2736 : 		RELEASE(pDSData_tone[ TONE_MAX ]);

  00413	b8 04 00 00 00	 mov	 eax, 4
  00418	69 c8 f4 01 00
	00		 imul	 ecx, eax, 500
  0041e	83 b9 00 00 00
	00 00		 cmp	 DWORD PTR ?pDSData_tone@@3PAPAUIDirectSoundBuffer@@A[ecx], 0
  00425	74 48		 je	 SHORT $LN16@dwSoundIni
  00427	b8 04 00 00 00	 mov	 eax, 4
  0042c	69 c8 f4 01 00
	00		 imul	 ecx, eax, 500
  00432	8b 91 00 00 00
	00		 mov	 edx, DWORD PTR ?pDSData_tone@@3PAPAUIDirectSoundBuffer@@A[ecx]
  00438	b8 04 00 00 00	 mov	 eax, 4
  0043d	69 c8 f4 01 00
	00		 imul	 ecx, eax, 500
  00443	8b 81 00 00 00
	00		 mov	 eax, DWORD PTR ?pDSData_tone@@3PAPAUIDirectSoundBuffer@@A[ecx]
  00449	8b 0a		 mov	 ecx, DWORD PTR [edx]
  0044b	8b f4		 mov	 esi, esp
  0044d	50		 push	 eax
  0044e	8b 51 08	 mov	 edx, DWORD PTR [ecx+8]
  00451	ff d2		 call	 edx
  00453	3b f4		 cmp	 esi, esp
  00455	e8 00 00 00 00	 call	 __RTC_CheckEsp
  0045a	b8 04 00 00 00	 mov	 eax, 4
  0045f	69 c8 f4 01 00
	00		 imul	 ecx, eax, 500
  00465	c7 81 00 00 00
	00 00 00 00 00	 mov	 DWORD PTR ?pDSData_tone@@3PAPAUIDirectSoundBuffer@@A[ecx], 0
$LN16@dwSoundIni:

; 2737 : #ifdef  _STONDEBUG_
; 2738 : 	    MessageBox(hWnd, "设定DirectSoundNotify失败！", "Error", MB_OK);
; 2739 : #endif
; 2740 : 		return FALSE;

  0046f	33 c0		 xor	 eax, eax
  00471	e9 b1 00 00 00	 jmp	 $LN1@dwSoundIni
$LN13@dwSoundIni:

; 2741 : 	}
; 2742 : 
; 2743 : 	stream_flg = 1;		//???????

  00476	c6 05 00 00 00
	00 01		 mov	 BYTE PTR ?stream_flg@@3DA, 1

; 2744 : 
; 2745 : 	// ??????????????
; 2746 : 	thread_start_flg = 0;

  0047d	c7 05 00 00 00
	00 00 00 00 00	 mov	 DWORD PTR ?thread_start_flg@@3HC, 0

; 2747 : 
; 2748 : 	// ?????????
; 2749 : 	sd.pDSBuffer = pDSData_tone[ TONE_MAX ];	// ??????????DirectSoundBuffer??????

  00487	b8 04 00 00 00	 mov	 eax, 4
  0048c	69 c8 f4 01 00
	00		 imul	 ecx, eax, 500
  00492	8b 91 00 00 00
	00		 mov	 edx, DWORD PTR ?pDSData_tone@@3PAPAUIDirectSoundBuffer@@A[ecx]
  00498	89 15 00 00 00
	00		 mov	 DWORD PTR ?sd@@3USoundData@@A, edx

; 2750 : 	sd.phEvent = hEvent;	// 4.4.???????????????

  0049e	c7 05 04 00 00
	00 00 00 00 00	 mov	 DWORD PTR ?sd@@3USoundData@@A+4, OFFSET ?hEvent@@3PAPAXA ; hEvent

; 2751 : 	sd.dwEventNum = 3;	// ????????????

  004a8	c7 05 08 00 00
	00 03 00 00 00	 mov	 DWORD PTR ?sd@@3USoundData@@A+8, 3

; 2752 : 	sd.dwStopEventNum = 2;	// ??????????????_?????

  004b2	c7 05 0c 00 00
	00 02 00 00 00	 mov	 DWORD PTR ?sd@@3USoundData@@A+12, 2

; 2753 : 	sd.lpWaveData = pDSbuffData;	// ???Wave?????????@e?

  004bc	a1 00 00 00 00	 mov	 eax, DWORD PTR ?pDSbuffData@@3PAEA
  004c1	a3 10 00 00 00	 mov	 DWORD PTR ?sd@@3USoundData@@A+16, eax

; 2754 : 	sd.dwWaveSize = DataSize;	// ???Wave???????@e?

  004c6	8b 45 0c	 mov	 eax, DWORD PTR _DataSize$[ebp]
  004c9	a3 14 00 00 00	 mov	 DWORD PTR ?sd@@3USoundData@@A+20, eax

; 2755 : 	sd.dwBlock_size = pcmwf.nAvgBytesPerSec;	// 44.1kHz???????????

  004ce	8b 45 ec	 mov	 eax, DWORD PTR _pcmwf$[ebp+8]
  004d1	a3 18 00 00 00	 mov	 DWORD PTR ?sd@@3USoundData@@A+24, eax

; 2756 : 
; 2757 : 	// ??????????
; 2758 : 	hThreadHandle = CreateThread(NULL, 0, MyThreadFunc, &sd, 0, &dwThreadID);

  004d6	8b f4		 mov	 esi, esp
  004d8	68 00 00 00 00	 push	 OFFSET ?dwThreadID@@3KA	; dwThreadID
  004dd	6a 00		 push	 0
  004df	68 00 00 00 00	 push	 OFFSET ?sd@@3USoundData@@A ; sd
  004e4	68 00 00 00 00	 push	 OFFSET ?MyThreadFunc@@YGKPAX@Z ; MyThreadFunc
  004e9	6a 00		 push	 0
  004eb	6a 00		 push	 0
  004ed	ff 15 00 00 00
	00		 call	 DWORD PTR __imp__CreateThread@24
  004f3	3b f4		 cmp	 esi, esp
  004f5	e8 00 00 00 00	 call	 __RTC_CheckEsp
  004fa	a3 00 00 00 00	 mov	 DWORD PTR ?hThreadHandle@@3PAXA, eax ; hThreadHandle

; 2759 : 	if(hThreadHandle == NULL)

  004ff	83 3d 00 00 00
	00 00		 cmp	 DWORD PTR ?hThreadHandle@@3PAXA, 0 ; hThreadHandle
  00506	75 04		 jne	 SHORT $LN2@dwSoundIni

; 2760 : 	{
; 2761 : #ifdef  _STONDEBUG_
; 2762 : 	    // ?????佝?害
; 2763 : #ifdef  _STONDEBUG_
; 2764 : 	    MessageBox(hWnd, "建立Thread失败！", "Error", MB_OK);
; 2765 : #endif
; 2766 : #endif
; 2767 : 		return FALSE;

  00508	33 c0		 xor	 eax, eax
  0050a	eb 1b		 jmp	 SHORT $LN1@dwSoundIni
$LN2@dwSoundIni:

; 2768 : 	}
; 2769 : 
; 2770 : 	// ??????????r?
; 2771 : 	while(1){

  0050c	b8 01 00 00 00	 mov	 eax, 1
  00511	85 c0		 test	 eax, eax
  00513	74 0d		 je	 SHORT $LN3@dwSoundIni

; 2772 : 		if(thread_start_flg)

  00515	83 3d 00 00 00
	00 00		 cmp	 DWORD PTR ?thread_start_flg@@3HC, 0
  0051c	74 02		 je	 SHORT $LN18@dwSoundIni

; 2773 : 			break;

  0051e	eb 02		 jmp	 SHORT $LN3@dwSoundIni
$LN18@dwSoundIni:

; 2774 : 	}

  00520	eb ea		 jmp	 SHORT $LN2@dwSoundIni
$LN3@dwSoundIni:

; 2775 : 
; 2776 : //	SetThreadPriority(hThreadHandle,THREAD_PRIORITY_HIGHEST);
; 2777 : //	SetThreadPriority(hThreadHandle,THREAD_PRIORITY_ABOVE_NORMAL);
; 2778 : //	pDSData_tone[ TONE_MAX ]->Play(0, 0, DSBPLAY_LOOPING);
; 2779 : 	return TRUE;

  00522	b8 01 00 00 00	 mov	 eax, 1
$LN1@dwSoundIni:

; 2780 : }

  00527	52		 push	 edx
  00528	8b cd		 mov	 ecx, ebp
  0052a	50		 push	 eax
  0052b	8d 15 00 00 00
	00		 lea	 edx, DWORD PTR $LN25@dwSoundIni
  00531	e8 00 00 00 00	 call	 @_RTC_CheckStackVars@8
  00536	58		 pop	 eax
  00537	5a		 pop	 edx
  00538	5f		 pop	 edi
  00539	5e		 pop	 esi
  0053a	5b		 pop	 ebx
  0053b	8b 4d fc	 mov	 ecx, DWORD PTR __$ArrayPad$[ebp]
  0053e	33 cd		 xor	 ecx, ebp
  00540	e8 00 00 00 00	 call	 @__security_check_cookie@4
  00545	81 c4 70 01 00
	00		 add	 esp, 368		; 00000170H
  0054b	3b ec		 cmp	 ebp, esp
  0054d	e8 00 00 00 00	 call	 __RTC_CheckEsp
  00552	8b e5		 mov	 esp, ebp
  00554	5d		 pop	 ebp
  00555	c3		 ret	 0
  00556	66 90		 npad	 2
$LN25@dwSoundIni:
  00558	04 00 00 00	 DD	 4
  0055c	00 00 00 00	 DD	 $LN24@dwSoundIni
$LN24@dwSoundIni:
  00560	e4 ff ff ff	 DD	 -28			; ffffffe4H
  00564	12 00 00 00	 DD	 18			; 00000012H
  00568	00 00 00 00	 DD	 $LN20@dwSoundIni
  0056c	b8 ff ff ff	 DD	 -72			; ffffffb8H
  00570	24 00 00 00	 DD	 36			; 00000024H
  00574	00 00 00 00	 DD	 $LN21@dwSoundIni
  00578	80 ff ff ff	 DD	 -128			; ffffff80H
  0057c	24 00 00 00	 DD	 36			; 00000024H
  00580	00 00 00 00	 DD	 $LN22@dwSoundIni
  00584	60 ff ff ff	 DD	 -160			; ffffff60H
  00588	18 00 00 00	 DD	 24			; 00000018H
  0058c	00 00 00 00	 DD	 $LN23@dwSoundIni
$LN23@dwSoundIni:
  00590	70		 DB	 112			; 00000070H
  00591	6e		 DB	 110			; 0000006eH
  00592	00		 DB	 0
$LN22@dwSoundIni:
  00593	64		 DB	 100			; 00000064H
  00594	73		 DB	 115			; 00000073H
  00595	62		 DB	 98			; 00000062H
  00596	64		 DB	 100			; 00000064H
  00597	65		 DB	 101			; 00000065H
  00598	73		 DB	 115			; 00000073H
  00599	63		 DB	 99			; 00000063H
  0059a	00		 DB	 0
$LN21@dwSoundIni:
  0059b	64		 DB	 100			; 00000064H
  0059c	73		 DB	 115			; 00000073H
  0059d	62		 DB	 98			; 00000062H
  0059e	75		 DB	 117			; 00000075H
  0059f	66		 DB	 102			; 00000066H
  005a0	66		 DB	 102			; 00000066H
  005a1	65		 DB	 101			; 00000065H
  005a2	72		 DB	 114			; 00000072H
  005a3	64		 DB	 100			; 00000064H
  005a4	65		 DB	 101			; 00000065H
  005a5	73		 DB	 115			; 00000073H
  005a6	63		 DB	 99			; 00000063H
  005a7	00		 DB	 0
$LN20@dwSoundIni:
  005a8	70		 DB	 112			; 00000070H
  005a9	63		 DB	 99			; 00000063H
  005aa	6d		 DB	 109			; 0000006dH
  005ab	77		 DB	 119			; 00000077H
  005ac	66		 DB	 102			; 00000066H
  005ad	00		 DB	 0
?dwSoundInit2@@YAHPAUtWAVEFORMATEX@@KPAPAUIDirectSoundBuffer@@PAUHMMIO__@@@Z ENDP ; dwSoundInit2
_TEXT	ENDS
; Function compile flags: /Odtp /RTCsu /ZI
; File c:\users\administrator\desktop\????? ??\????? ??\client source code\system\t_music.cpp
;	COMDAT ?MyThreadFunc@@YGKPAX@Z
_TEXT	SEGMENT
tv77 = -220						; size = 4
_i$1 = -20						; size = 4
_waveAdd$ = -8						; size = 4
_param$ = 8						; size = 4
?MyThreadFunc@@YGKPAX@Z PROC				; MyThreadFunc, COMDAT

; 2592 : {

  00000	55		 push	 ebp
  00001	8b ec		 mov	 ebp, esp
  00003	81 ec dc 00 00
	00		 sub	 esp, 220		; 000000dcH
  00009	53		 push	 ebx
  0000a	56		 push	 esi
  0000b	57		 push	 edi
  0000c	8d bd 24 ff ff
	ff		 lea	 edi, DWORD PTR [ebp-220]
  00012	b9 37 00 00 00	 mov	 ecx, 55			; 00000037H
  00017	b8 cc cc cc cc	 mov	 eax, -858993460		; ccccccccH
  0001c	f3 ab		 rep stosd

; 2593 : 	LONG waveAdd = 0;

  0001e	c7 45 f8 00 00
	00 00		 mov	 DWORD PTR _waveAdd$[ebp], 0

; 2594 :     // ??????????????????????
; 2595 :     Block_Copy(sd.pDSBuffer, 0, sd.dwBlock_size, sd.lpWaveData, waveAdd, sd.dwWaveSize);

  00025	a1 14 00 00 00	 mov	 eax, DWORD PTR ?sd@@3USoundData@@A+20
  0002a	50		 push	 eax
  0002b	8d 4d f8	 lea	 ecx, DWORD PTR _waveAdd$[ebp]
  0002e	51		 push	 ecx
  0002f	8b 15 10 00 00
	00		 mov	 edx, DWORD PTR ?sd@@3USoundData@@A+16
  00035	52		 push	 edx
  00036	a1 18 00 00 00	 mov	 eax, DWORD PTR ?sd@@3USoundData@@A+24
  0003b	50		 push	 eax
  0003c	6a 00		 push	 0
  0003e	8b 0d 00 00 00
	00		 mov	 ecx, DWORD PTR ?sd@@3USoundData@@A
  00044	51		 push	 ecx
  00045	e8 00 00 00 00	 call	 ?Block_Copy@@YAXPAUIDirectSoundBuffer@@KKPAEAAJJ@Z ; Block_Copy
  0004a	83 c4 18	 add	 esp, 24			; 00000018H

; 2596 : 	thread_start_flg = 1;

  0004d	c7 05 00 00 00
	00 01 00 00 00	 mov	 DWORD PTR ?thread_start_flg@@3HC, 1
$LN2@MyThreadFu:

; 2597 :     // ?????????????V??
; 2598 :     while(TRUE)

  00057	b8 01 00 00 00	 mov	 eax, 1
  0005c	85 c0		 test	 eax, eax
  0005e	0f 84 0f 01 00
	00		 je	 $LN3@MyThreadFu

; 2599 :     {
; 2600 :         // DirectSoundBuffer????????r?
; 2601 :         DWORD i = WaitForMultipleObjects(sd.dwEventNum, sd.phEvent, FALSE, INFINITE);

  00064	8b f4		 mov	 esi, esp
  00066	6a ff		 push	 -1
  00068	6a 00		 push	 0
  0006a	a1 04 00 00 00	 mov	 eax, DWORD PTR ?sd@@3USoundData@@A+4
  0006f	50		 push	 eax
  00070	8b 0d 08 00 00
	00		 mov	 ecx, DWORD PTR ?sd@@3USoundData@@A+8
  00076	51		 push	 ecx
  00077	ff 15 00 00 00
	00		 call	 DWORD PTR __imp__WaitForMultipleObjects@16
  0007d	3b f4		 cmp	 esi, esp
  0007f	e8 00 00 00 00	 call	 __RTC_CheckEsp
  00084	89 45 ec	 mov	 DWORD PTR _i$1[ebp], eax

; 2602 :         // ?????????????????????????????????
; 2603 : 		wave_count++;

  00087	a1 00 00 00 00	 mov	 eax, DWORD PTR ?wave_count@@3JA
  0008c	83 c0 01	 add	 eax, 1
  0008f	a3 00 00 00 00	 mov	 DWORD PTR ?wave_count@@3JA, eax

; 2604 :         switch(i)

  00094	8b 45 ec	 mov	 eax, DWORD PTR _i$1[ebp]
  00097	89 85 24 ff ff
	ff		 mov	 DWORD PTR tv77[ebp], eax
  0009d	83 bd 24 ff ff
	ff 00		 cmp	 DWORD PTR tv77[ebp], 0
  000a4	74 57		 je	 SHORT $LN7@MyThreadFu
  000a6	83 bd 24 ff ff
	ff 01		 cmp	 DWORD PTR tv77[ebp], 1
  000ad	74 12		 je	 SHORT $LN6@MyThreadFu
  000af	83 bd 24 ff ff
	ff 02		 cmp	 DWORD PTR tv77[ebp], 2
  000b6	0f 84 82 00 00
	00		 je	 $LN8@MyThreadFu
  000bc	e9 95 00 00 00	 jmp	 $LN9@MyThreadFu
$LN6@MyThreadFu:

; 2605 :         {
; 2606 :             case WAIT_OBJECT_0 + 1:
; 2607 :                 // ?k???????????
; 2608 : 				buffer_address = 0; wave_address = waveAdd;

  000c1	c7 05 00 00 00
	00 00 00 00 00	 mov	 DWORD PTR ?buffer_address@@3JA, 0
  000cb	8b 45 f8	 mov	 eax, DWORD PTR _waveAdd$[ebp]
  000ce	a3 00 00 00 00	 mov	 DWORD PTR ?wave_address@@3JA, eax

; 2609 :                 Block_Copy(sd.pDSBuffer, 0, sd.dwBlock_size, sd.lpWaveData, waveAdd, sd.dwWaveSize);

  000d3	a1 14 00 00 00	 mov	 eax, DWORD PTR ?sd@@3USoundData@@A+20
  000d8	50		 push	 eax
  000d9	8d 4d f8	 lea	 ecx, DWORD PTR _waveAdd$[ebp]
  000dc	51		 push	 ecx
  000dd	8b 15 10 00 00
	00		 mov	 edx, DWORD PTR ?sd@@3USoundData@@A+16
  000e3	52		 push	 edx
  000e4	a1 18 00 00 00	 mov	 eax, DWORD PTR ?sd@@3USoundData@@A+24
  000e9	50		 push	 eax
  000ea	6a 00		 push	 0
  000ec	8b 0d 00 00 00
	00		 mov	 ecx, DWORD PTR ?sd@@3USoundData@@A
  000f2	51		 push	 ecx
  000f3	e8 00 00 00 00	 call	 ?Block_Copy@@YAXPAUIDirectSoundBuffer@@KKPAEAAJJ@Z ; Block_Copy
  000f8	83 c4 18	 add	 esp, 24			; 00000018H

; 2610 :                 break;

  000fb	eb 71		 jmp	 SHORT $LN4@MyThreadFu
$LN7@MyThreadFu:

; 2611 :             case WAIT_OBJECT_0:
; 2612 :                 // ?k???????????
; 2613 : 				buffer_address = sd.dwBlock_size; wave_address = waveAdd;

  000fd	a1 18 00 00 00	 mov	 eax, DWORD PTR ?sd@@3USoundData@@A+24
  00102	a3 00 00 00 00	 mov	 DWORD PTR ?buffer_address@@3JA, eax
  00107	8b 45 f8	 mov	 eax, DWORD PTR _waveAdd$[ebp]
  0010a	a3 00 00 00 00	 mov	 DWORD PTR ?wave_address@@3JA, eax

; 2614 :                 Block_Copy(sd.pDSBuffer, sd.dwBlock_size, sd.dwBlock_size, sd.lpWaveData, waveAdd, sd.dwWaveSize);

  0010f	a1 14 00 00 00	 mov	 eax, DWORD PTR ?sd@@3USoundData@@A+20
  00114	50		 push	 eax
  00115	8d 4d f8	 lea	 ecx, DWORD PTR _waveAdd$[ebp]
  00118	51		 push	 ecx
  00119	8b 15 10 00 00
	00		 mov	 edx, DWORD PTR ?sd@@3USoundData@@A+16
  0011f	52		 push	 edx
  00120	a1 18 00 00 00	 mov	 eax, DWORD PTR ?sd@@3USoundData@@A+24
  00125	50		 push	 eax
  00126	8b 0d 18 00 00
	00		 mov	 ecx, DWORD PTR ?sd@@3USoundData@@A+24
  0012c	51		 push	 ecx
  0012d	8b 15 00 00 00
	00		 mov	 edx, DWORD PTR ?sd@@3USoundData@@A
  00133	52		 push	 edx
  00134	e8 00 00 00 00	 call	 ?Block_Copy@@YAXPAUIDirectSoundBuffer@@KKPAEAAJJ@Z ; Block_Copy
  00139	83 c4 18	 add	 esp, 24			; 00000018H

; 2615 :                 break;

  0013c	eb 30		 jmp	 SHORT $LN4@MyThreadFu
$LN8@MyThreadFu:

; 2616 :             case WAIT_OBJECT_0 + 2:
; 2617 :                  // ?攸????????????
; 2618 : 				exit_thread_flg = 1;

  0013e	c6 05 00 00 00
	00 01		 mov	 BYTE PTR ?exit_thread_flg@@3DC, 1

; 2619 : 				ExitThread(TRUE);

  00145	8b f4		 mov	 esi, esp
  00147	6a 01		 push	 1
  00149	ff 15 00 00 00
	00		 call	 DWORD PTR __imp__ExitThread@4
  0014f	3b f4		 cmp	 esi, esp
  00151	e8 00 00 00 00	 call	 __RTC_CheckEsp
$LN9@MyThreadFu:

; 2620 :             default:
; 2621 :                  // ?攸????????????
; 2622 : 				exit_thread_flg = 1;

  00156	c6 05 00 00 00
	00 01		 mov	 BYTE PTR ?exit_thread_flg@@3DC, 1

; 2623 : 				ExitThread(TRUE);

  0015d	8b f4		 mov	 esi, esp
  0015f	6a 01		 push	 1
  00161	ff 15 00 00 00
	00		 call	 DWORD PTR __imp__ExitThread@4
  00167	3b f4		 cmp	 esi, esp
  00169	e8 00 00 00 00	 call	 __RTC_CheckEsp
$LN4@MyThreadFu:

; 2624 :         }
; 2625 : //		InvalidateRect(hwndApp, NULL, TRUE);
; 2626 :     }

  0016e	e9 e4 fe ff ff	 jmp	 $LN2@MyThreadFu
$LN3@MyThreadFu:

; 2627 : 	return 0L;

  00173	33 c0		 xor	 eax, eax
$LN10@MyThreadFu:

; 2628 : }

  00175	52		 push	 edx
  00176	8b cd		 mov	 ecx, ebp
  00178	50		 push	 eax
  00179	8d 15 00 00 00
	00		 lea	 edx, DWORD PTR $LN13@MyThreadFu
  0017f	e8 00 00 00 00	 call	 @_RTC_CheckStackVars@8
  00184	58		 pop	 eax
  00185	5a		 pop	 edx
  00186	5f		 pop	 edi
  00187	5e		 pop	 esi
  00188	5b		 pop	 ebx
  00189	81 c4 dc 00 00
	00		 add	 esp, 220		; 000000dcH
  0018f	3b ec		 cmp	 ebp, esp
  00191	e8 00 00 00 00	 call	 __RTC_CheckEsp
  00196	8b e5		 mov	 esp, ebp
  00198	5d		 pop	 ebp
  00199	c2 04 00	 ret	 4
$LN13@MyThreadFu:
  0019c	01 00 00 00	 DD	 1
  001a0	00 00 00 00	 DD	 $LN12@MyThreadFu
$LN12@MyThreadFu:
  001a4	f8 ff ff ff	 DD	 -8			; fffffff8H
  001a8	04 00 00 00	 DD	 4
  001ac	00 00 00 00	 DD	 $LN11@MyThreadFu
$LN11@MyThreadFu:
  001b0	77		 DB	 119			; 00000077H
  001b1	61		 DB	 97			; 00000061H
  001b2	76		 DB	 118			; 00000076H
  001b3	65		 DB	 101			; 00000065H
  001b4	41		 DB	 65			; 00000041H
  001b5	64		 DB	 100			; 00000064H
  001b6	64		 DB	 100			; 00000064H
  001b7	00		 DB	 0
?MyThreadFunc@@YGKPAX@Z ENDP				; MyThreadFunc
_TEXT	ENDS
; Function compile flags: /Odtp /RTCsu /ZI
; File c:\users\administrator\desktop\????? ??\????? ??\client source code\system\t_music.cpp
;	COMDAT ?Block_Copy@@YAXPAUIDirectSoundBuffer@@KKPAEAAJJ@Z
_TEXT	SEGMENT
_hr$ = -68						; size = 4
_ws$ = -56						; size = 4
_blockSize2$ = -44					; size = 4
_blockSize1$ = -32					; size = 4
_lpBlockAdd2$ = -20					; size = 4
_lpBlockAdd1$ = -8					; size = 4
_lpBuffer$ = 8						; size = 4
_blockadd$ = 12						; size = 4
_blocksize$ = 16					; size = 4
_lpWave$ = 20						; size = 4
_waveAdd$ = 24						; size = 4
_waveSize$ = 28						; size = 4
?Block_Copy@@YAXPAUIDirectSoundBuffer@@KKPAEAAJJ@Z PROC	; Block_Copy, COMDAT

; 2544 : {

  00000	55		 push	 ebp
  00001	8b ec		 mov	 ebp, esp
  00003	81 ec 08 01 00
	00		 sub	 esp, 264		; 00000108H
  00009	53		 push	 ebx
  0000a	56		 push	 esi
  0000b	57		 push	 edi
  0000c	8d bd f8 fe ff
	ff		 lea	 edi, DWORD PTR [ebp-264]
  00012	b9 42 00 00 00	 mov	 ecx, 66			; 00000042H
  00017	b8 cc cc cc cc	 mov	 eax, -858993460		; ccccccccH
  0001c	f3 ab		 rep stosd

; 2545 :     LPBYTE lpBlockAdd1, lpBlockAdd2;
; 2546 :     DWORD blockSize1, blockSize2;
; 2547 : 	LONG ws = waveSize - waveAdd;

  0001e	8b 45 18	 mov	 eax, DWORD PTR _waveAdd$[ebp]
  00021	8b 4d 1c	 mov	 ecx, DWORD PTR _waveSize$[ebp]
  00024	2b 08		 sub	 ecx, DWORD PTR [eax]
  00026	89 4d c8	 mov	 DWORD PTR _ws$[ebp], ecx

; 2548 : 
; 2549 :     // ????????
; 2550 :     HRESULT hr = lpBuffer->Lock(blockadd, blocksize, (LPVOID*)&lpBlockAdd1, &blockSize1, (LPVOID*)&lpBlockAdd2, &blockSize2, 0);

  00029	8b f4		 mov	 esi, esp
  0002b	6a 00		 push	 0
  0002d	8d 45 d4	 lea	 eax, DWORD PTR _blockSize2$[ebp]
  00030	50		 push	 eax
  00031	8d 4d ec	 lea	 ecx, DWORD PTR _lpBlockAdd2$[ebp]
  00034	51		 push	 ecx
  00035	8d 55 e0	 lea	 edx, DWORD PTR _blockSize1$[ebp]
  00038	52		 push	 edx
  00039	8d 45 f8	 lea	 eax, DWORD PTR _lpBlockAdd1$[ebp]
  0003c	50		 push	 eax
  0003d	8b 4d 10	 mov	 ecx, DWORD PTR _blocksize$[ebp]
  00040	51		 push	 ecx
  00041	8b 55 0c	 mov	 edx, DWORD PTR _blockadd$[ebp]
  00044	52		 push	 edx
  00045	8b 45 08	 mov	 eax, DWORD PTR _lpBuffer$[ebp]
  00048	8b 08		 mov	 ecx, DWORD PTR [eax]
  0004a	8b 55 08	 mov	 edx, DWORD PTR _lpBuffer$[ebp]
  0004d	52		 push	 edx
  0004e	8b 41 2c	 mov	 eax, DWORD PTR [ecx+44]
  00051	ff d0		 call	 eax
  00053	3b f4		 cmp	 esi, esp
  00055	e8 00 00 00 00	 call	 __RTC_CheckEsp
  0005a	89 45 bc	 mov	 DWORD PTR _hr$[ebp], eax

; 2551 :     if(hr == DS_OK)

  0005d	83 7d bc 00	 cmp	 DWORD PTR _hr$[ebp], 0
  00061	0f 85 42 01 00
	00		 jne	 $LN1@Block_Copy

; 2552 :     {
; 2553 :         if(ws < (long)blockSize1)

  00067	8b 45 c8	 mov	 eax, DWORD PTR _ws$[ebp]
  0006a	3b 45 e0	 cmp	 eax, DWORD PTR _blockSize1$[ebp]
  0006d	7d 55		 jge	 SHORT $LN3@Block_Copy

; 2554 :         {
; 2555 :             CopyMemory(lpBlockAdd1, lpWave + waveAdd, ws);

  0006f	8b 45 c8	 mov	 eax, DWORD PTR _ws$[ebp]
  00072	50		 push	 eax
  00073	8b 4d 18	 mov	 ecx, DWORD PTR _waveAdd$[ebp]
  00076	8b 55 14	 mov	 edx, DWORD PTR _lpWave$[ebp]
  00079	03 11		 add	 edx, DWORD PTR [ecx]
  0007b	52		 push	 edx
  0007c	8b 45 f8	 mov	 eax, DWORD PTR _lpBlockAdd1$[ebp]
  0007f	50		 push	 eax
  00080	e8 00 00 00 00	 call	 _memcpy
  00085	83 c4 0c	 add	 esp, 12			; 0000000cH

; 2556 : 			waveAdd = blockSize1 - ws;

  00088	8b 45 e0	 mov	 eax, DWORD PTR _blockSize1$[ebp]
  0008b	2b 45 c8	 sub	 eax, DWORD PTR _ws$[ebp]
  0008e	8b 4d 18	 mov	 ecx, DWORD PTR _waveAdd$[ebp]
  00091	89 01		 mov	 DWORD PTR [ecx], eax

; 2557 :             CopyMemory(lpBlockAdd1 + ws, lpWave + thread_loop_start, waveAdd);

  00093	8b 45 18	 mov	 eax, DWORD PTR _waveAdd$[ebp]
  00096	8b 08		 mov	 ecx, DWORD PTR [eax]
  00098	51		 push	 ecx
  00099	8b 55 14	 mov	 edx, DWORD PTR _lpWave$[ebp]
  0009c	03 15 00 00 00
	00		 add	 edx, DWORD PTR ?thread_loop_start@@3HA
  000a2	52		 push	 edx
  000a3	8b 45 f8	 mov	 eax, DWORD PTR _lpBlockAdd1$[ebp]
  000a6	03 45 c8	 add	 eax, DWORD PTR _ws$[ebp]
  000a9	50		 push	 eax
  000aa	e8 00 00 00 00	 call	 _memcpy
  000af	83 c4 0c	 add	 esp, 12			; 0000000cH

; 2558 :             waveAdd += thread_loop_start;

  000b2	8b 45 18	 mov	 eax, DWORD PTR _waveAdd$[ebp]
  000b5	8b 08		 mov	 ecx, DWORD PTR [eax]
  000b7	03 0d 00 00 00
	00		 add	 ecx, DWORD PTR ?thread_loop_start@@3HA
  000bd	8b 55 18	 mov	 edx, DWORD PTR _waveAdd$[ebp]
  000c0	89 0a		 mov	 DWORD PTR [edx], ecx

; 2559 :         }
; 2560 :         else

  000c2	eb 26		 jmp	 SHORT $LN4@Block_Copy
$LN3@Block_Copy:

; 2561 :         {
; 2562 :             CopyMemory(lpBlockAdd1, lpWave + waveAdd, blockSize1);

  000c4	8b 45 e0	 mov	 eax, DWORD PTR _blockSize1$[ebp]
  000c7	50		 push	 eax
  000c8	8b 4d 18	 mov	 ecx, DWORD PTR _waveAdd$[ebp]
  000cb	8b 55 14	 mov	 edx, DWORD PTR _lpWave$[ebp]
  000ce	03 11		 add	 edx, DWORD PTR [ecx]
  000d0	52		 push	 edx
  000d1	8b 45 f8	 mov	 eax, DWORD PTR _lpBlockAdd1$[ebp]
  000d4	50		 push	 eax
  000d5	e8 00 00 00 00	 call	 _memcpy
  000da	83 c4 0c	 add	 esp, 12			; 0000000cH

; 2563 :             waveAdd += blockSize1;

  000dd	8b 45 18	 mov	 eax, DWORD PTR _waveAdd$[ebp]
  000e0	8b 08		 mov	 ecx, DWORD PTR [eax]
  000e2	03 4d e0	 add	 ecx, DWORD PTR _blockSize1$[ebp]
  000e5	8b 55 18	 mov	 edx, DWORD PTR _waveAdd$[ebp]
  000e8	89 0a		 mov	 DWORD PTR [edx], ecx
$LN4@Block_Copy:

; 2564 :         }
; 2565 :         if(lpBlockAdd2)

  000ea	83 7d ec 00	 cmp	 DWORD PTR _lpBlockAdd2$[ebp], 0
  000ee	0f 84 8e 00 00
	00		 je	 $LN5@Block_Copy

; 2566 :         {
; 2567 : 			ws = waveSize - waveAdd;

  000f4	8b 45 18	 mov	 eax, DWORD PTR _waveAdd$[ebp]
  000f7	8b 4d 1c	 mov	 ecx, DWORD PTR _waveSize$[ebp]
  000fa	2b 08		 sub	 ecx, DWORD PTR [eax]
  000fc	89 4d c8	 mov	 DWORD PTR _ws$[ebp], ecx

; 2568 :             if(ws < (long)blockSize2)

  000ff	8b 45 c8	 mov	 eax, DWORD PTR _ws$[ebp]
  00102	3b 45 d4	 cmp	 eax, DWORD PTR _blockSize2$[ebp]
  00105	7d 55		 jge	 SHORT $LN6@Block_Copy

; 2569 :             {
; 2570 :                 CopyMemory(lpBlockAdd1, lpWave + waveAdd, ws);

  00107	8b 45 c8	 mov	 eax, DWORD PTR _ws$[ebp]
  0010a	50		 push	 eax
  0010b	8b 4d 18	 mov	 ecx, DWORD PTR _waveAdd$[ebp]
  0010e	8b 55 14	 mov	 edx, DWORD PTR _lpWave$[ebp]
  00111	03 11		 add	 edx, DWORD PTR [ecx]
  00113	52		 push	 edx
  00114	8b 45 f8	 mov	 eax, DWORD PTR _lpBlockAdd1$[ebp]
  00117	50		 push	 eax
  00118	e8 00 00 00 00	 call	 _memcpy
  0011d	83 c4 0c	 add	 esp, 12			; 0000000cH

; 2571 : 				waveAdd = blockSize2 - ws;

  00120	8b 45 d4	 mov	 eax, DWORD PTR _blockSize2$[ebp]
  00123	2b 45 c8	 sub	 eax, DWORD PTR _ws$[ebp]
  00126	8b 4d 18	 mov	 ecx, DWORD PTR _waveAdd$[ebp]
  00129	89 01		 mov	 DWORD PTR [ecx], eax

; 2572 :                 CopyMemory(lpBlockAdd1 + ws, lpWave + thread_loop_start, waveAdd);

  0012b	8b 45 18	 mov	 eax, DWORD PTR _waveAdd$[ebp]
  0012e	8b 08		 mov	 ecx, DWORD PTR [eax]
  00130	51		 push	 ecx
  00131	8b 55 14	 mov	 edx, DWORD PTR _lpWave$[ebp]
  00134	03 15 00 00 00
	00		 add	 edx, DWORD PTR ?thread_loop_start@@3HA
  0013a	52		 push	 edx
  0013b	8b 45 f8	 mov	 eax, DWORD PTR _lpBlockAdd1$[ebp]
  0013e	03 45 c8	 add	 eax, DWORD PTR _ws$[ebp]
  00141	50		 push	 eax
  00142	e8 00 00 00 00	 call	 _memcpy
  00147	83 c4 0c	 add	 esp, 12			; 0000000cH

; 2573 : 	            waveAdd += thread_loop_start;

  0014a	8b 45 18	 mov	 eax, DWORD PTR _waveAdd$[ebp]
  0014d	8b 08		 mov	 ecx, DWORD PTR [eax]
  0014f	03 0d 00 00 00
	00		 add	 ecx, DWORD PTR ?thread_loop_start@@3HA
  00155	8b 55 18	 mov	 edx, DWORD PTR _waveAdd$[ebp]
  00158	89 0a		 mov	 DWORD PTR [edx], ecx

; 2574 :             }
; 2575 :             else

  0015a	eb 26		 jmp	 SHORT $LN5@Block_Copy
$LN6@Block_Copy:

; 2576 :             {
; 2577 :                 CopyMemory(lpBlockAdd2, lpWave + waveAdd, blockSize2);

  0015c	8b 45 d4	 mov	 eax, DWORD PTR _blockSize2$[ebp]
  0015f	50		 push	 eax
  00160	8b 4d 18	 mov	 ecx, DWORD PTR _waveAdd$[ebp]
  00163	8b 55 14	 mov	 edx, DWORD PTR _lpWave$[ebp]
  00166	03 11		 add	 edx, DWORD PTR [ecx]
  00168	52		 push	 edx
  00169	8b 45 ec	 mov	 eax, DWORD PTR _lpBlockAdd2$[ebp]
  0016c	50		 push	 eax
  0016d	e8 00 00 00 00	 call	 _memcpy
  00172	83 c4 0c	 add	 esp, 12			; 0000000cH

; 2578 : 				waveAdd += blockSize2;

  00175	8b 45 18	 mov	 eax, DWORD PTR _waveAdd$[ebp]
  00178	8b 08		 mov	 ecx, DWORD PTR [eax]
  0017a	03 4d d4	 add	 ecx, DWORD PTR _blockSize2$[ebp]
  0017d	8b 55 18	 mov	 edx, DWORD PTR _waveAdd$[ebp]
  00180	89 0a		 mov	 DWORD PTR [edx], ecx
$LN5@Block_Copy:

; 2579 :             }
; 2580 :         }
; 2581 :         lpBuffer->Unlock(lpBlockAdd1, blockSize1, lpBlockAdd2, blockSize2);

  00182	8b f4		 mov	 esi, esp
  00184	8b 45 d4	 mov	 eax, DWORD PTR _blockSize2$[ebp]
  00187	50		 push	 eax
  00188	8b 4d ec	 mov	 ecx, DWORD PTR _lpBlockAdd2$[ebp]
  0018b	51		 push	 ecx
  0018c	8b 55 e0	 mov	 edx, DWORD PTR _blockSize1$[ebp]
  0018f	52		 push	 edx
  00190	8b 45 f8	 mov	 eax, DWORD PTR _lpBlockAdd1$[ebp]
  00193	50		 push	 eax
  00194	8b 4d 08	 mov	 ecx, DWORD PTR _lpBuffer$[ebp]
  00197	8b 11		 mov	 edx, DWORD PTR [ecx]
  00199	8b 45 08	 mov	 eax, DWORD PTR _lpBuffer$[ebp]
  0019c	50		 push	 eax
  0019d	8b 4a 4c	 mov	 ecx, DWORD PTR [edx+76]
  001a0	ff d1		 call	 ecx
  001a2	3b f4		 cmp	 esi, esp
  001a4	e8 00 00 00 00	 call	 __RTC_CheckEsp
$LN1@Block_Copy:

; 2582 :     }
; 2583 : }

  001a9	52		 push	 edx
  001aa	8b cd		 mov	 ecx, ebp
  001ac	50		 push	 eax
  001ad	8d 15 00 00 00
	00		 lea	 edx, DWORD PTR $LN14@Block_Copy
  001b3	e8 00 00 00 00	 call	 @_RTC_CheckStackVars@8
  001b8	58		 pop	 eax
  001b9	5a		 pop	 edx
  001ba	5f		 pop	 edi
  001bb	5e		 pop	 esi
  001bc	5b		 pop	 ebx
  001bd	81 c4 08 01 00
	00		 add	 esp, 264		; 00000108H
  001c3	3b ec		 cmp	 ebp, esp
  001c5	e8 00 00 00 00	 call	 __RTC_CheckEsp
  001ca	8b e5		 mov	 esp, ebp
  001cc	5d		 pop	 ebp
  001cd	c3		 ret	 0
  001ce	66 90		 npad	 2
$LN14@Block_Copy:
  001d0	04 00 00 00	 DD	 4
  001d4	00 00 00 00	 DD	 $LN13@Block_Copy
$LN13@Block_Copy:
  001d8	f8 ff ff ff	 DD	 -8			; fffffff8H
  001dc	04 00 00 00	 DD	 4
  001e0	00 00 00 00	 DD	 $LN9@Block_Copy
  001e4	ec ff ff ff	 DD	 -20			; ffffffecH
  001e8	04 00 00 00	 DD	 4
  001ec	00 00 00 00	 DD	 $LN10@Block_Copy
  001f0	e0 ff ff ff	 DD	 -32			; ffffffe0H
  001f4	04 00 00 00	 DD	 4
  001f8	00 00 00 00	 DD	 $LN11@Block_Copy
  001fc	d4 ff ff ff	 DD	 -44			; ffffffd4H
  00200	04 00 00 00	 DD	 4
  00204	00 00 00 00	 DD	 $LN12@Block_Copy
$LN12@Block_Copy:
  00208	62		 DB	 98			; 00000062H
  00209	6c		 DB	 108			; 0000006cH
  0020a	6f		 DB	 111			; 0000006fH
  0020b	63		 DB	 99			; 00000063H
  0020c	6b		 DB	 107			; 0000006bH
  0020d	53		 DB	 83			; 00000053H
  0020e	69		 DB	 105			; 00000069H
  0020f	7a		 DB	 122			; 0000007aH
  00210	65		 DB	 101			; 00000065H
  00211	32		 DB	 50			; 00000032H
  00212	00		 DB	 0
$LN11@Block_Copy:
  00213	62		 DB	 98			; 00000062H
  00214	6c		 DB	 108			; 0000006cH
  00215	6f		 DB	 111			; 0000006fH
  00216	63		 DB	 99			; 00000063H
  00217	6b		 DB	 107			; 0000006bH
  00218	53		 DB	 83			; 00000053H
  00219	69		 DB	 105			; 00000069H
  0021a	7a		 DB	 122			; 0000007aH
  0021b	65		 DB	 101			; 00000065H
  0021c	31		 DB	 49			; 00000031H
  0021d	00		 DB	 0
$LN10@Block_Copy:
  0021e	6c		 DB	 108			; 0000006cH
  0021f	70		 DB	 112			; 00000070H
  00220	42		 DB	 66			; 00000042H
  00221	6c		 DB	 108			; 0000006cH
  00222	6f		 DB	 111			; 0000006fH
  00223	63		 DB	 99			; 00000063H
  00224	6b		 DB	 107			; 0000006bH
  00225	41		 DB	 65			; 00000041H
  00226	64		 DB	 100			; 00000064H
  00227	64		 DB	 100			; 00000064H
  00228	32		 DB	 50			; 00000032H
  00229	00		 DB	 0
$LN9@Block_Copy:
  0022a	6c		 DB	 108			; 0000006cH
  0022b	70		 DB	 112			; 00000070H
  0022c	42		 DB	 66			; 00000042H
  0022d	6c		 DB	 108			; 0000006cH
  0022e	6f		 DB	 111			; 0000006fH
  0022f	63		 DB	 99			; 00000063H
  00230	6b		 DB	 107			; 0000006bH
  00231	41		 DB	 65			; 00000041H
  00232	64		 DB	 100			; 00000064H
  00233	64		 DB	 100			; 00000064H
  00234	31		 DB	 49			; 00000031H
  00235	00		 DB	 0
?Block_Copy@@YAXPAUIDirectSoundBuffer@@KKPAEAAJJ@Z ENDP	; Block_Copy
_TEXT	ENDS
; Function compile flags: /Odtp /RTCsu /ZI
; File c:\users\administrator\desktop\????? ??\????? ??\client source code\system\t_music.cpp
;	COMDAT ?music@@YAXXZ
_TEXT	SEGMENT
_d0$1 = -24						; size = 8
_d7$ = -8						; size = 4
?music@@YAXXZ PROC					; music, COMDAT

; 2313 : {

  00000	55		 push	 ebp
  00001	8b ec		 mov	 ebp, esp
  00003	81 ec dc 00 00
	00		 sub	 esp, 220		; 000000dcH
  00009	53		 push	 ebx
  0000a	56		 push	 esi
  0000b	57		 push	 edi
  0000c	8d bd 24 ff ff
	ff		 lea	 edi, DWORD PTR [ebp-220]
  00012	b9 37 00 00 00	 mov	 ecx, 55			; 00000037H
  00017	b8 cc cc cc cc	 mov	 eax, -858993460		; ccccccccH
  0001c	f3 ab		 rep stosd
$LN2@music:

; 2314 : 	int d7;
; 2315 : #if 1
; 2316 : #if THREAD_ON
; 2317 : 	while(!thread_flg){

  0001e	83 3d 00 00 00
	00 00		 cmp	 DWORD PTR ?thread_flg@@3HA, 0 ; thread_flg
  00025	0f 85 e6 00 00
	00		 jne	 $LN3@music

; 2318 : #if CLASS_UP
; 2319 : 		Sleep(1);		//??

  0002b	8b f4		 mov	 esi, esp
  0002d	6a 01		 push	 1
  0002f	ff 15 00 00 00
	00		 call	 DWORD PTR __imp__Sleep@4
  00035	3b f4		 cmp	 esi, esp
  00037	e8 00 00 00 00	 call	 __RTC_CheckEsp

; 2320 : #endif
; 2321 : #endif
; 2322 : 		LARGE_INTEGER d0;
; 2323 : 		QueryPerformanceCounter( &d0 );

  0003c	8b f4		 mov	 esi, esp
  0003e	8d 45 e8	 lea	 eax, DWORD PTR _d0$1[ebp]
  00041	50		 push	 eax
  00042	ff 15 00 00 00
	00		 call	 DWORD PTR __imp__QueryPerformanceCounter@4
  00048	3b f4		 cmp	 esi, esp
  0004a	e8 00 00 00 00	 call	 __RTC_CheckEsp

; 2324 : 		if((d_cnt.LowPart + tempo.LowPart) > d0.LowPart)

  0004f	a1 00 00 00 00	 mov	 eax, DWORD PTR ?d_cnt@@3T_LARGE_INTEGER@@A
  00054	03 05 00 00 00
	00		 add	 eax, DWORD PTR ?tempo@@3T_LARGE_INTEGER@@A
  0005a	3b 45 e8	 cmp	 eax, DWORD PTR _d0$1[ebp]
  0005d	76 02		 jbe	 SHORT $LN10@music

; 2325 : #if THREAD_ON
; 2326 : 		{
; 2327 : 			continue;

  0005f	eb bd		 jmp	 SHORT $LN2@music
$LN10@music:

; 2328 : 		}
; 2329 : #else
; 2330 : 			return;
; 2331 : #endif
; 2332 : #if !DEBUG_ON
; 2333 : 		if(abs(d0.LowPart - d_cnt.LowPart) > 3333333)
; 2334 : #if THREAD_ON
; 2335 : 			continue;
; 2336 : #else
; 2337 : 			return;
; 2338 : #endif
; 2339 : #endif
; 2340 : 		d_cnt.LowPart += tempo.LowPart;

  00061	a1 00 00 00 00	 mov	 eax, DWORD PTR ?d_cnt@@3T_LARGE_INTEGER@@A
  00066	03 05 00 00 00
	00		 add	 eax, DWORD PTR ?tempo@@3T_LARGE_INTEGER@@A
  0006c	a3 00 00 00 00	 mov	 DWORD PTR ?d_cnt@@3T_LARGE_INTEGER@@A, eax

; 2341 : #endif
; 2342 : 		if(!pause_flg){

  00071	83 3d 00 00 00
	00 00		 cmp	 DWORD PTR ?pause_flg@@3HA, 0
  00078	75 6d		 jne	 SHORT $LN11@music

; 2343 : #if VOICE_KILL_ON
; 2344 : 			for( d7 = 0 ; d7 < voice_kill_point ; d7++ ){
; 2345 : 				voice[ voice_kill_buf[ d7 ] ].name = 0;			//??????
; 2346 : 				pDSData[ voice_kill_buf[ d7 ] ]->Stop();		//????
; 2347 : 				pDSData[ voice_kill_buf[ d7 ] ]->SetCurrentPosition(0);	//
; 2348 : 			}
; 2349 : 			voice_kill_point=0;
; 2350 : #endif
; 2351 : 			for( d7 = 0 ; d7 < VOICE_MAX ; d7++ ){

  0007a	c7 45 f8 00 00
	00 00		 mov	 DWORD PTR _d7$[ebp], 0
  00081	eb 09		 jmp	 SHORT $LN6@music
$LN4@music:
  00083	8b 45 f8	 mov	 eax, DWORD PTR _d7$[ebp]
  00086	83 c0 01	 add	 eax, 1
  00089	89 45 f8	 mov	 DWORD PTR _d7$[ebp], eax
$LN6@music:
  0008c	83 7d f8 40	 cmp	 DWORD PTR _d7$[ebp], 64	; 00000040H
  00090	7d 1b		 jge	 SHORT $LN5@music

; 2352 : 				if(voice[ d7 ].name){

  00092	6b 45 f8 3c	 imul	 eax, DWORD PTR _d7$[ebp], 60
  00096	83 b8 00 00 00
	00 00		 cmp	 DWORD PTR ?voice@@3PAUVOICE_EQU@@A[eax], 0
  0009d	74 0c		 je	 SHORT $LN13@music

; 2353 : 					voice_action( d7 );

  0009f	8b 45 f8	 mov	 eax, DWORD PTR _d7$[ebp]
  000a2	50		 push	 eax
  000a3	e8 00 00 00 00	 call	 ?voice_action@@YAXH@Z	; voice_action
  000a8	83 c4 04	 add	 esp, 4
$LN13@music:

; 2354 : 				}
; 2355 : 			}

  000ab	eb d6		 jmp	 SHORT $LN4@music
$LN5@music:

; 2356 : 			for( ch = 0 ; ch < TRACK_MAX ; ch++ ){

  000ad	c7 05 00 00 00
	00 00 00 00 00	 mov	 DWORD PTR ?ch@@3HA, 0
  000b7	eb 0d		 jmp	 SHORT $LN9@music
$LN7@music:
  000b9	a1 00 00 00 00	 mov	 eax, DWORD PTR ?ch@@3HA
  000be	83 c0 01	 add	 eax, 1
  000c1	a3 00 00 00 00	 mov	 DWORD PTR ?ch@@3HA, eax
$LN9@music:
  000c6	83 3d 00 00 00
	00 20		 cmp	 DWORD PTR ?ch@@3HA, 32	; 00000020H
  000cd	7d 16		 jge	 SHORT $LN8@music

; 2357 : 				if(play_track_flg[ ch ])

  000cf	a1 00 00 00 00	 mov	 eax, DWORD PTR ?ch@@3HA
  000d4	83 3c 85 00 00
	00 00 00	 cmp	 DWORD PTR ?play_track_flg@@3PAHA[eax*4], 0
  000dc	74 05		 je	 SHORT $LN14@music

; 2358 : 					gate();

  000de	e8 00 00 00 00	 call	 ?gate@@YAXXZ		; gate
$LN14@music:

; 2359 : 			}

  000e3	eb d4		 jmp	 SHORT $LN7@music
$LN8@music:

; 2360 : 		} else {

  000e5	eb 25		 jmp	 SHORT $LN12@music
$LN11@music:

; 2361 : 
; 2362 : #if CLASS_UP
; 2363 : 			Sleep(8);		//????

  000e7	8b f4		 mov	 esi, esp
  000e9	6a 08		 push	 8
  000eb	ff 15 00 00 00
	00		 call	 DWORD PTR __imp__Sleep@4
  000f1	3b f4		 cmp	 esi, esp
  000f3	e8 00 00 00 00	 call	 __RTC_CheckEsp

; 2364 : #endif
; 2365 : 			QueryPerformanceCounter( &d_cnt );

  000f8	8b f4		 mov	 esi, esp
  000fa	68 00 00 00 00	 push	 OFFSET ?d_cnt@@3T_LARGE_INTEGER@@A
  000ff	ff 15 00 00 00
	00		 call	 DWORD PTR __imp__QueryPerformanceCounter@4
  00105	3b f4		 cmp	 esi, esp
  00107	e8 00 00 00 00	 call	 __RTC_CheckEsp
$LN12@music:

; 2366 : 		}
; 2367 : 
; 2368 : #if 0		//--------------
; 2369 : 
; 2370 : #if CLASS_UP
; 2371 : #if MODE98
; 2372 : 	if( tempo.LowPart > 10080*2 )		//??????t???
; 2373 : #else
; 2374 : 	if( tempo.LowPart > 10080 )		//??????t???
; 2375 : #endif
; 2376 : 		Sleep(2);		//??
; 2377 : 	else
; 2378 : 		Sleep(1);		//??
; 2379 : #endif
; 2380 : 
; 2381 : #endif		//--------------
; 2382 : 
; 2383 : #if THREAD_ON
; 2384 : 	}

  0010c	e9 0d ff ff ff	 jmp	 $LN2@music
$LN3@music:

; 2385 : 	thread_flg=2;

  00111	c7 05 00 00 00
	00 02 00 00 00	 mov	 DWORD PTR ?thread_flg@@3HA, 2 ; thread_flg

; 2386 : 	ExitThread( TRUE );

  0011b	8b f4		 mov	 esi, esp
  0011d	6a 01		 push	 1
  0011f	ff 15 00 00 00
	00		 call	 DWORD PTR __imp__ExitThread@4
  00125	3b f4		 cmp	 esi, esp
  00127	e8 00 00 00 00	 call	 __RTC_CheckEsp

; 2387 : #endif
; 2388 : 	d7=0;

  0012c	c7 45 f8 00 00
	00 00		 mov	 DWORD PTR _d7$[ebp], 0
$LN15@music:

; 2389 : 	return;
; 2390 : }

  00133	52		 push	 edx
  00134	8b cd		 mov	 ecx, ebp
  00136	50		 push	 eax
  00137	8d 15 00 00 00
	00		 lea	 edx, DWORD PTR $LN19@music
  0013d	e8 00 00 00 00	 call	 @_RTC_CheckStackVars@8
  00142	58		 pop	 eax
  00143	5a		 pop	 edx
  00144	5f		 pop	 edi
  00145	5e		 pop	 esi
  00146	5b		 pop	 ebx
  00147	81 c4 dc 00 00
	00		 add	 esp, 220		; 000000dcH
  0014d	3b ec		 cmp	 ebp, esp
  0014f	e8 00 00 00 00	 call	 __RTC_CheckEsp
  00154	8b e5		 mov	 esp, ebp
  00156	5d		 pop	 ebp
  00157	c3		 ret	 0
$LN19@music:
  00158	01 00 00 00	 DD	 1
  0015c	00 00 00 00	 DD	 $LN18@music
$LN18@music:
  00160	e8 ff ff ff	 DD	 -24			; ffffffe8H
  00164	08 00 00 00	 DD	 8
  00168	00 00 00 00	 DD	 $LN17@music
$LN17@music:
  0016c	64		 DB	 100			; 00000064H
  0016d	30		 DB	 48			; 00000030H
  0016e	00		 DB	 0
?music@@YAXXZ ENDP					; music
_TEXT	ENDS
; Function compile flags: /Odtp /RTCsu /ZI
; File c:\users\administrator\desktop\????? ??\????? ??\client source code\system\t_music.cpp
;	COMDAT ?gate@@YAXXZ
_TEXT	SEGMENT
_cnt$1 = -128						; size = 4
_cnt$2 = -116						; size = 4
_cnt$3 = -104						; size = 4
_waon_delay_total$4 = -92				; size = 4
_waon_delay$5 = -80					; size = 4
_waon_cnt$6 = -68					; size = 4
_cnt$7 = -56						; size = 4
_cnt$8 = -44						; size = 4
_cnt$9 = -32						; size = 4
_Status$ = -20						; size = 4
_next_command$ = -8					; size = 4
?gate@@YAXXZ PROC					; gate, COMDAT

; 2107 : {

  00000	55		 push	 ebp
  00001	8b ec		 mov	 ebp, esp
  00003	81 ec 44 01 00
	00		 sub	 esp, 324		; 00000144H
  00009	53		 push	 ebx
  0000a	56		 push	 esi
  0000b	57		 push	 edi
  0000c	8d bd bc fe ff
	ff		 lea	 edi, DWORD PTR [ebp-324]
  00012	b9 51 00 00 00	 mov	 ecx, 81			; 00000051H
  00017	b8 cc cc cc cc	 mov	 eax, -858993460		; ccccccccH
  0001c	f3 ab		 rep stosd

; 2108 : 	int next_command;
; 2109 : 	DWORD	Status = 0;

  0001e	c7 45 ec 00 00
	00 00		 mov	 DWORD PTR _Status$[ebp], 0

; 2110 : 	if(!play_flg[ ch ])		//_??

  00025	a1 00 00 00 00	 mov	 eax, DWORD PTR ?ch@@3HA
  0002a	83 3c 85 00 00
	00 00 00	 cmp	 DWORD PTR ?play_flg@@3PAHA[eax*4], 0
  00032	75 05		 jne	 SHORT $LN20@gate

; 2111 : 		return;				//????I??

  00034	e9 71 0d 00 00	 jmp	 $LN1@gate
$LN20@gate:

; 2112 : 
; 2113 : 	gate_time[ch]--;		//???????

  00039	a1 00 00 00 00	 mov	 eax, DWORD PTR ?ch@@3HA
  0003e	8b 0c 85 00 00
	00 00		 mov	 ecx, DWORD PTR ?gate_time@@3PAHA[eax*4]
  00045	83 e9 01	 sub	 ecx, 1
  00048	8b 15 00 00 00
	00		 mov	 edx, DWORD PTR ?ch@@3HA
  0004e	89 0c 95 00 00
	00 00		 mov	 DWORD PTR ?gate_time@@3PAHA[edx*4], ecx

; 2114 : 	if(!gate_time[ch]){		//??????

  00055	a1 00 00 00 00	 mov	 eax, DWORD PTR ?ch@@3HA
  0005a	83 3c 85 00 00
	00 00 00	 cmp	 DWORD PTR ?gate_time@@3PAHA[eax*4], 0
  00062	75 7c		 jne	 SHORT $LN21@gate

; 2115 : 		if( !d_pedal[ch] ){		//????????

  00064	a1 00 00 00 00	 mov	 eax, DWORD PTR ?ch@@3HA
  00069	83 3c 85 00 00
	00 00 00	 cmp	 DWORD PTR ?d_pedal@@3PAHA[eax*4], 0
  00071	75 6d		 jne	 SHORT $LN21@gate

; 2116 : 			if( !wave[ch] ){	//???????

  00073	a1 00 00 00 00	 mov	 eax, DWORD PTR ?ch@@3HA
  00078	83 3c 85 00 00
	00 00 00	 cmp	 DWORD PTR ?wave@@3PAHA[eax*4], 0
  00080	75 07		 jne	 SHORT $LN23@gate

; 2117 : 				stop_voice();		//???????

  00082	e8 00 00 00 00	 call	 ?stop_voice@@YAXXZ	; stop_voice

; 2118 : 			} else {

  00087	eb 57		 jmp	 SHORT $LN21@gate
$LN23@gate:

; 2119 : 				for(int cnt=0;cnt<play_use_task_cnt[ch];cnt++){

  00089	c7 45 e0 00 00
	00 00		 mov	 DWORD PTR _cnt$9[ebp], 0
  00090	eb 09		 jmp	 SHORT $LN4@gate
$LN2@gate:
  00092	8b 45 e0	 mov	 eax, DWORD PTR _cnt$9[ebp]
  00095	83 c0 01	 add	 eax, 1
  00098	89 45 e0	 mov	 DWORD PTR _cnt$9[ebp], eax
$LN4@gate:
  0009b	a1 00 00 00 00	 mov	 eax, DWORD PTR ?ch@@3HA
  000a0	8b 4d e0	 mov	 ecx, DWORD PTR _cnt$9[ebp]
  000a3	3b 0c 85 00 00
	00 00		 cmp	 ecx, DWORD PTR ?play_use_task_cnt@@3PAHA[eax*4]
  000aa	7d 34		 jge	 SHORT $LN21@gate

; 2120 : 					if(play_use_task[ch][cnt]!=-1){					//??????

  000ac	a1 00 00 00 00	 mov	 eax, DWORD PTR ?ch@@3HA
  000b1	c1 e0 05	 shl	 eax, 5
  000b4	8b 4d e0	 mov	 ecx, DWORD PTR _cnt$9[ebp]
  000b7	83 bc 88 00 00
	00 00 ff	 cmp	 DWORD PTR ?play_use_task@@3PAY07HA[eax+ecx*4], -1
  000bf	74 1d		 je	 SHORT $LN25@gate

; 2121 : 						voice[ play_use_task[ch][cnt] ].name = VOICE_KEY_OFF;	//????????

  000c1	a1 00 00 00 00	 mov	 eax, DWORD PTR ?ch@@3HA
  000c6	c1 e0 05	 shl	 eax, 5
  000c9	8b 4d e0	 mov	 ecx, DWORD PTR _cnt$9[ebp]
  000cc	6b 94 88 00 00
	00 00 3c	 imul	 edx, DWORD PTR ?play_use_task@@3PAY07HA[eax+ecx*4], 60
  000d4	c7 82 00 00 00
	00 64 00 00 00	 mov	 DWORD PTR ?voice@@3PAUVOICE_EQU@@A[edx], 100 ; 00000064H
$LN25@gate:

; 2122 : 					}
; 2123 : 				}

  000de	eb b2		 jmp	 SHORT $LN2@gate
$LN21@gate:

; 2124 : 			}
; 2125 : 		}
; 2126 : 	}
; 2127 : 
; 2128 : 	step_time[ch]--;			//?????

  000e0	a1 00 00 00 00	 mov	 eax, DWORD PTR ?ch@@3HA
  000e5	8b 0c 85 00 00
	00 00		 mov	 ecx, DWORD PTR ?step_time@@3PAHA[eax*4]
  000ec	83 e9 01	 sub	 ecx, 1
  000ef	8b 15 00 00 00
	00		 mov	 edx, DWORD PTR ?ch@@3HA
  000f5	89 0c 95 00 00
	00 00		 mov	 DWORD PTR ?step_time@@3PAHA[edx*4], ecx

; 2129 : 	if(step_time[ch]>0){		//

  000fc	a1 00 00 00 00	 mov	 eax, DWORD PTR ?ch@@3HA
  00101	83 3c 85 00 00
	00 00 00	 cmp	 DWORD PTR ?step_time@@3PAHA[eax*4], 0
  00109	7e 0a		 jle	 SHORT $LN26@gate

; 2130 : 		return;				//???????I??

  0010b	e9 9a 0c 00 00	 jmp	 $LN1@gate

; 2131 : 	} else {

  00110	e9 95 0c 00 00	 jmp	 $LN1@gate
$LN26@gate:

; 2132 : 		if(!tie_flg[ch]){		//???????

  00115	a1 00 00 00 00	 mov	 eax, DWORD PTR ?ch@@3HA
  0011a	83 3c 85 00 00
	00 00 00	 cmp	 DWORD PTR ?tie_flg@@3PAHA[eax*4], 0
  00122	75 7c		 jne	 SHORT $gate_100$84

; 2133 : 			if( !d_pedal[ch] ){		//????????

  00124	a1 00 00 00 00	 mov	 eax, DWORD PTR ?ch@@3HA
  00129	83 3c 85 00 00
	00 00 00	 cmp	 DWORD PTR ?d_pedal@@3PAHA[eax*4], 0
  00131	75 6d		 jne	 SHORT $gate_100$84

; 2134 : 				if( !wave[ch] ){	//???????

  00133	a1 00 00 00 00	 mov	 eax, DWORD PTR ?ch@@3HA
  00138	83 3c 85 00 00
	00 00 00	 cmp	 DWORD PTR ?wave@@3PAHA[eax*4], 0
  00140	75 07		 jne	 SHORT $LN30@gate

; 2135 : 					stop_voice();		//???????

  00142	e8 00 00 00 00	 call	 ?stop_voice@@YAXXZ	; stop_voice

; 2136 : 				} else {

  00147	eb 57		 jmp	 SHORT $gate_100$84
$LN30@gate:

; 2137 : 					for(int cnt=0;cnt<play_use_task_cnt[ch];cnt++){

  00149	c7 45 d4 00 00
	00 00		 mov	 DWORD PTR _cnt$8[ebp], 0
  00150	eb 09		 jmp	 SHORT $LN7@gate
$LN5@gate:
  00152	8b 45 d4	 mov	 eax, DWORD PTR _cnt$8[ebp]
  00155	83 c0 01	 add	 eax, 1
  00158	89 45 d4	 mov	 DWORD PTR _cnt$8[ebp], eax
$LN7@gate:
  0015b	a1 00 00 00 00	 mov	 eax, DWORD PTR ?ch@@3HA
  00160	8b 4d d4	 mov	 ecx, DWORD PTR _cnt$8[ebp]
  00163	3b 0c 85 00 00
	00 00		 cmp	 ecx, DWORD PTR ?play_use_task_cnt@@3PAHA[eax*4]
  0016a	7d 34		 jge	 SHORT $gate_100$84

; 2138 : 						if(play_use_task[ch][cnt]!=-1){					//??????

  0016c	a1 00 00 00 00	 mov	 eax, DWORD PTR ?ch@@3HA
  00171	c1 e0 05	 shl	 eax, 5
  00174	8b 4d d4	 mov	 ecx, DWORD PTR _cnt$8[ebp]
  00177	83 bc 88 00 00
	00 00 ff	 cmp	 DWORD PTR ?play_use_task@@3PAY07HA[eax+ecx*4], -1
  0017f	74 1d		 je	 SHORT $LN32@gate

; 2139 : 							voice[ play_use_task[ch][cnt] ].name = VOICE_KEY_OFF;	//????????

  00181	a1 00 00 00 00	 mov	 eax, DWORD PTR ?ch@@3HA
  00186	c1 e0 05	 shl	 eax, 5
  00189	8b 4d d4	 mov	 ecx, DWORD PTR _cnt$8[ebp]
  0018c	6b 94 88 00 00
	00 00 3c	 imul	 edx, DWORD PTR ?play_use_task@@3PAY07HA[eax+ecx*4], 60
  00194	c7 82 00 00 00
	00 64 00 00 00	 mov	 DWORD PTR ?voice@@3PAUVOICE_EQU@@A[edx], 100 ; 00000064H
$LN32@gate:

; 2140 : 						}
; 2141 : 					}

  0019e	eb b2		 jmp	 SHORT $LN5@gate
$gate_100$84:

; 2142 : 				}
; 2143 : 			}
; 2144 : 		}
; 2145 : 
; 2146 : gate_100:
; 2147 : 		next_command = step[ch][step_point[ch]++];		//??????

  001a0	a1 00 00 00 00	 mov	 eax, DWORD PTR ?ch@@3HA
  001a5	c1 e0 10	 shl	 eax, 16			; 00000010H
  001a8	8b 0d 00 00 00
	00		 mov	 ecx, DWORD PTR ?ch@@3HA
  001ae	8b 14 8d 00 00
	00 00		 mov	 edx, DWORD PTR ?step_point@@3PAHA[ecx*4]
  001b5	8b 84 90 00 00
	00 00		 mov	 eax, DWORD PTR ?step@@3PAY0EAAA@HA[eax+edx*4]
  001bc	89 45 f8	 mov	 DWORD PTR _next_command$[ebp], eax
  001bf	8b 0d 00 00 00
	00		 mov	 ecx, DWORD PTR ?ch@@3HA
  001c5	8b 14 8d 00 00
	00 00		 mov	 edx, DWORD PTR ?step_point@@3PAHA[ecx*4]
  001cc	83 c2 01	 add	 edx, 1
  001cf	a1 00 00 00 00	 mov	 eax, DWORD PTR ?ch@@3HA
  001d4	89 14 85 00 00
	00 00		 mov	 DWORD PTR ?step_point@@3PAHA[eax*4], edx

; 2148 : 
; 2149 : 		if(next_command >= 0){		//???k???

  001db	83 7d f8 00	 cmp	 DWORD PTR _next_command$[ebp], 0
  001df	0f 8c c7 01 00
	00		 jl	 $LN33@gate

; 2150 : 			if(play_use_task_cnt[ch]!=1 && tie_flg[ch]==1){		//??????????

  001e5	a1 00 00 00 00	 mov	 eax, DWORD PTR ?ch@@3HA
  001ea	83 3c 85 00 00
	00 00 01	 cmp	 DWORD PTR ?play_use_task_cnt@@3PAHA[eax*4], 1
  001f2	74 1f		 je	 SHORT $LN34@gate
  001f4	a1 00 00 00 00	 mov	 eax, DWORD PTR ?ch@@3HA
  001f9	83 3c 85 00 00
	00 00 01	 cmp	 DWORD PTR ?tie_flg@@3PAHA[eax*4], 1
  00201	75 10		 jne	 SHORT $LN34@gate

; 2151 : 				tie_flg[ch]=0;		//???

  00203	a1 00 00 00 00	 mov	 eax, DWORD PTR ?ch@@3HA
  00208	c7 04 85 00 00
	00 00 00 00 00
	00		 mov	 DWORD PTR ?tie_flg@@3PAHA[eax*4], 0
$LN34@gate:

; 2152 : 			}
; 2153 : 			if(!tie_flg[ch]){		//???????

  00213	a1 00 00 00 00	 mov	 eax, DWORD PTR ?ch@@3HA
  00218	83 3c 85 00 00
	00 00 00	 cmp	 DWORD PTR ?tie_flg@@3PAHA[eax*4], 0
  00220	75 3f		 jne	 SHORT $LN35@gate

; 2154 : 				stop_voice();		//??????_

  00222	e8 00 00 00 00	 call	 ?stop_voice@@YAXXZ	; stop_voice

; 2155 : 				set_tone( dataToneNo[ch], next_command, 0, 0);	//O?????

  00227	6a 00		 push	 0
  00229	6a 00		 push	 0
  0022b	8b 45 f8	 mov	 eax, DWORD PTR _next_command$[ebp]
  0022e	50		 push	 eax
  0022f	8b 0d 00 00 00
	00		 mov	 ecx, DWORD PTR ?ch@@3HA
  00235	8b 14 8d 00 00
	00 00		 mov	 edx, DWORD PTR ?dataToneNo@@3PAHA[ecx*4]
  0023c	52		 push	 edx
  0023d	e8 00 00 00 00	 call	 ?set_tone@@YAHHJHH@Z	; set_tone
  00242	83 c4 10	 add	 esp, 16			; 00000010H

; 2156 : 				note_old[ch][0] = next_command;		//??????k?颌V

  00245	a1 00 00 00 00	 mov	 eax, DWORD PTR ?ch@@3HA
  0024a	c1 e0 05	 shl	 eax, 5
  0024d	b9 04 00 00 00	 mov	 ecx, 4
  00252	6b d1 00	 imul	 edx, ecx, 0
  00255	8b 4d f8	 mov	 ecx, DWORD PTR _next_command$[ebp]
  00258	89 8c 10 00 00
	00 00		 mov	 DWORD PTR ?note_old@@3PAY07HA[eax+edx], ecx

; 2157 : 			} else {

  0025f	eb 7b		 jmp	 SHORT $LN36@gate
$LN35@gate:

; 2158 : 				for(int cnt=0;cnt<play_use_task_cnt[ch];cnt++){

  00261	c7 45 c8 00 00
	00 00		 mov	 DWORD PTR _cnt$7[ebp], 0
  00268	eb 09		 jmp	 SHORT $LN10@gate
$LN8@gate:
  0026a	8b 45 c8	 mov	 eax, DWORD PTR _cnt$7[ebp]
  0026d	83 c0 01	 add	 eax, 1
  00270	89 45 c8	 mov	 DWORD PTR _cnt$7[ebp], eax
$LN10@gate:
  00273	a1 00 00 00 00	 mov	 eax, DWORD PTR ?ch@@3HA
  00278	8b 4d c8	 mov	 ecx, DWORD PTR _cnt$7[ebp]
  0027b	3b 0c 85 00 00
	00 00		 cmp	 ecx, DWORD PTR ?play_use_task_cnt@@3PAHA[eax*4]
  00282	7d 58		 jge	 SHORT $LN36@gate

; 2159 : 					//???????
; 2160 : 					voice[ play_use_task[ch][cnt] ].name = VOICE_TIE_SET;

  00284	a1 00 00 00 00	 mov	 eax, DWORD PTR ?ch@@3HA
  00289	c1 e0 05	 shl	 eax, 5
  0028c	8b 4d c8	 mov	 ecx, DWORD PTR _cnt$7[ebp]
  0028f	6b 94 88 00 00
	00 00 3c	 imul	 edx, DWORD PTR ?play_use_task@@3PAY07HA[eax+ecx*4], 60
  00297	c7 82 00 00 00
	00 0a 00 00 00	 mov	 DWORD PTR ?voice@@3PAUVOICE_EQU@@A[edx], 10 ; 0000000aH

; 2161 : 					//???????????
; 2162 : 					set_voice_param( play_use_task[ch][cnt], next_command, -1, 0 );

  002a1	6a 00		 push	 0
  002a3	6a ff		 push	 -1
  002a5	8b 45 f8	 mov	 eax, DWORD PTR _next_command$[ebp]
  002a8	50		 push	 eax
  002a9	8b 0d 00 00 00
	00		 mov	 ecx, DWORD PTR ?ch@@3HA
  002af	c1 e1 05	 shl	 ecx, 5
  002b2	8b 55 c8	 mov	 edx, DWORD PTR _cnt$7[ebp]
  002b5	8b 84 91 00 00
	00 00		 mov	 eax, DWORD PTR ?play_use_task@@3PAY07HA[ecx+edx*4]
  002bc	50		 push	 eax
  002bd	e8 00 00 00 00	 call	 ?set_voice_param@@YAXHJHH@Z ; set_voice_param
  002c2	83 c4 10	 add	 esp, 16			; 00000010H

; 2163 : 					note_old[ch][cnt] = next_command;		//??????k?颌V

  002c5	a1 00 00 00 00	 mov	 eax, DWORD PTR ?ch@@3HA
  002ca	c1 e0 05	 shl	 eax, 5
  002cd	8b 4d c8	 mov	 ecx, DWORD PTR _cnt$7[ebp]
  002d0	8b 55 f8	 mov	 edx, DWORD PTR _next_command$[ebp]
  002d3	89 94 88 00 00
	00 00		 mov	 DWORD PTR ?note_old@@3PAY07HA[eax+ecx*4], edx

; 2164 : 				}

  002da	eb 8e		 jmp	 SHORT $LN8@gate
$LN36@gate:

; 2165 : 			}
; 2166 : 			step_time[ch] = step[ch][step_point[ch]++];		//???????

  002dc	a1 00 00 00 00	 mov	 eax, DWORD PTR ?ch@@3HA
  002e1	c1 e0 10	 shl	 eax, 16			; 00000010H
  002e4	8b 0d 00 00 00
	00		 mov	 ecx, DWORD PTR ?ch@@3HA
  002ea	8b 14 8d 00 00
	00 00		 mov	 edx, DWORD PTR ?step_point@@3PAHA[ecx*4]
  002f1	8b 0d 00 00 00
	00		 mov	 ecx, DWORD PTR ?ch@@3HA
  002f7	8b 94 90 00 00
	00 00		 mov	 edx, DWORD PTR ?step@@3PAY0EAAA@HA[eax+edx*4]
  002fe	89 14 8d 00 00
	00 00		 mov	 DWORD PTR ?step_time@@3PAHA[ecx*4], edx
  00305	a1 00 00 00 00	 mov	 eax, DWORD PTR ?ch@@3HA
  0030a	8b 0c 85 00 00
	00 00		 mov	 ecx, DWORD PTR ?step_point@@3PAHA[eax*4]
  00311	83 c1 01	 add	 ecx, 1
  00314	8b 15 00 00 00
	00		 mov	 edx, DWORD PTR ?ch@@3HA
  0031a	89 0c 95 00 00
	00 00		 mov	 DWORD PTR ?step_point@@3PAHA[edx*4], ecx

; 2167 : 			gate_time[ch] = step[ch][step_point[ch]++];		//??????

  00321	a1 00 00 00 00	 mov	 eax, DWORD PTR ?ch@@3HA
  00326	c1 e0 10	 shl	 eax, 16			; 00000010H
  00329	8b 0d 00 00 00
	00		 mov	 ecx, DWORD PTR ?ch@@3HA
  0032f	8b 14 8d 00 00
	00 00		 mov	 edx, DWORD PTR ?step_point@@3PAHA[ecx*4]
  00336	8b 0d 00 00 00
	00		 mov	 ecx, DWORD PTR ?ch@@3HA
  0033c	8b 94 90 00 00
	00 00		 mov	 edx, DWORD PTR ?step@@3PAY0EAAA@HA[eax+edx*4]
  00343	89 14 8d 00 00
	00 00		 mov	 DWORD PTR ?gate_time@@3PAHA[ecx*4], edx
  0034a	a1 00 00 00 00	 mov	 eax, DWORD PTR ?ch@@3HA
  0034f	8b 0c 85 00 00
	00 00		 mov	 ecx, DWORD PTR ?step_point@@3PAHA[eax*4]
  00356	83 c1 01	 add	 ecx, 1
  00359	8b 15 00 00 00
	00		 mov	 edx, DWORD PTR ?ch@@3HA
  0035f	89 0c 95 00 00
	00 00		 mov	 DWORD PTR ?step_point@@3PAHA[edx*4], ecx

; 2168 : 			if(gate_time[ch]==-1){		//????

  00366	a1 00 00 00 00	 mov	 eax, DWORD PTR ?ch@@3HA
  0036b	83 3c 85 00 00
	00 00 ff	 cmp	 DWORD PTR ?gate_time@@3PAHA[eax*4], -1
  00373	75 12		 jne	 SHORT $LN37@gate

; 2169 : 				tie_flg[ch]=1;

  00375	a1 00 00 00 00	 mov	 eax, DWORD PTR ?ch@@3HA
  0037a	c7 04 85 00 00
	00 00 01 00 00
	00		 mov	 DWORD PTR ?tie_flg@@3PAHA[eax*4], 1

; 2170 : 			} else {

  00385	eb 10		 jmp	 SHORT $LN38@gate
$LN37@gate:

; 2171 : 				tie_flg[ch]=0;

  00387	a1 00 00 00 00	 mov	 eax, DWORD PTR ?ch@@3HA
  0038c	c7 04 85 00 00
	00 00 00 00 00
	00		 mov	 DWORD PTR ?tie_flg@@3PAHA[eax*4], 0
$LN38@gate:

; 2172 : 			}
; 2173 : 			play_use_task_cnt[ch] = 1;		//D?????

  00397	a1 00 00 00 00	 mov	 eax, DWORD PTR ?ch@@3HA
  0039c	c7 04 85 00 00
	00 00 01 00 00
	00		 mov	 DWORD PTR ?play_use_task_cnt@@3PAHA[eax*4], 1

; 2174 : 			return;

  003a7	e9 fe 09 00 00	 jmp	 $LN1@gate
$LN33@gate:

; 2175 : 		}
; 2176 : 		if(next_command==MUSIC_WAON){		//????

  003ac	83 7d f8 f2	 cmp	 DWORD PTR _next_command$[ebp], -14 ; fffffff2H
  003b0	0f 85 1b 03 00
	00		 jne	 $LN39@gate

; 2177 : 			int waon_cnt,waon_delay,waon_delay_total=0;

  003b6	c7 45 a4 00 00
	00 00		 mov	 DWORD PTR _waon_delay_total$4[ebp], 0

; 2178 : 			waon_cnt = step[ch][step_point[ch]++];		//?????

  003bd	a1 00 00 00 00	 mov	 eax, DWORD PTR ?ch@@3HA
  003c2	c1 e0 10	 shl	 eax, 16			; 00000010H
  003c5	8b 0d 00 00 00
	00		 mov	 ecx, DWORD PTR ?ch@@3HA
  003cb	8b 14 8d 00 00
	00 00		 mov	 edx, DWORD PTR ?step_point@@3PAHA[ecx*4]
  003d2	8b 84 90 00 00
	00 00		 mov	 eax, DWORD PTR ?step@@3PAY0EAAA@HA[eax+edx*4]
  003d9	89 45 bc	 mov	 DWORD PTR _waon_cnt$6[ebp], eax
  003dc	8b 0d 00 00 00
	00		 mov	 ecx, DWORD PTR ?ch@@3HA
  003e2	8b 14 8d 00 00
	00 00		 mov	 edx, DWORD PTR ?step_point@@3PAHA[ecx*4]
  003e9	83 c2 01	 add	 edx, 1
  003ec	a1 00 00 00 00	 mov	 eax, DWORD PTR ?ch@@3HA
  003f1	89 14 85 00 00
	00 00		 mov	 DWORD PTR ?step_point@@3PAHA[eax*4], edx

; 2179 : 			waon_delay = step[ch][step_point[ch]++];		//????????

  003f8	a1 00 00 00 00	 mov	 eax, DWORD PTR ?ch@@3HA
  003fd	c1 e0 10	 shl	 eax, 16			; 00000010H
  00400	8b 0d 00 00 00
	00		 mov	 ecx, DWORD PTR ?ch@@3HA
  00406	8b 14 8d 00 00
	00 00		 mov	 edx, DWORD PTR ?step_point@@3PAHA[ecx*4]
  0040d	8b 84 90 00 00
	00 00		 mov	 eax, DWORD PTR ?step@@3PAY0EAAA@HA[eax+edx*4]
  00414	89 45 b0	 mov	 DWORD PTR _waon_delay$5[ebp], eax
  00417	8b 0d 00 00 00
	00		 mov	 ecx, DWORD PTR ?ch@@3HA
  0041d	8b 14 8d 00 00
	00 00		 mov	 edx, DWORD PTR ?step_point@@3PAHA[ecx*4]
  00424	83 c2 01	 add	 edx, 1
  00427	a1 00 00 00 00	 mov	 eax, DWORD PTR ?ch@@3HA
  0042c	89 14 85 00 00
	00 00		 mov	 DWORD PTR ?step_point@@3PAHA[eax*4], edx

; 2180 : 			if(waon_cnt != play_use_task_cnt[ch] && tie_flg[ch]==1){		//??????????

  00433	a1 00 00 00 00	 mov	 eax, DWORD PTR ?ch@@3HA
  00438	8b 4d bc	 mov	 ecx, DWORD PTR _waon_cnt$6[ebp]
  0043b	3b 0c 85 00 00
	00 00		 cmp	 ecx, DWORD PTR ?play_use_task_cnt@@3PAHA[eax*4]
  00442	74 1f		 je	 SHORT $LN40@gate
  00444	a1 00 00 00 00	 mov	 eax, DWORD PTR ?ch@@3HA
  00449	83 3c 85 00 00
	00 00 01	 cmp	 DWORD PTR ?tie_flg@@3PAHA[eax*4], 1
  00451	75 10		 jne	 SHORT $LN40@gate

; 2181 : 				tie_flg[ch]=0;		//???

  00453	a1 00 00 00 00	 mov	 eax, DWORD PTR ?ch@@3HA
  00458	c7 04 85 00 00
	00 00 00 00 00
	00		 mov	 DWORD PTR ?tie_flg@@3PAHA[eax*4], 0
$LN40@gate:

; 2182 : 			}
; 2183 : 			if(!tie_flg[ch]){		//???????

  00463	a1 00 00 00 00	 mov	 eax, DWORD PTR ?ch@@3HA
  00468	83 3c 85 00 00
	00 00 00	 cmp	 DWORD PTR ?tie_flg@@3PAHA[eax*4], 0
  00470	0f 85 bb 00 00
	00		 jne	 $LN41@gate

; 2184 : 				stop_voice();		//??????_

  00476	e8 00 00 00 00	 call	 ?stop_voice@@YAXXZ	; stop_voice

; 2185 : 				for(int cnt=0;cnt<waon_cnt;cnt++){

  0047b	c7 45 98 00 00
	00 00		 mov	 DWORD PTR _cnt$3[ebp], 0
  00482	eb 09		 jmp	 SHORT $LN13@gate
$LN11@gate:
  00484	8b 45 98	 mov	 eax, DWORD PTR _cnt$3[ebp]
  00487	83 c0 01	 add	 eax, 1
  0048a	89 45 98	 mov	 DWORD PTR _cnt$3[ebp], eax
$LN13@gate:
  0048d	8b 45 98	 mov	 eax, DWORD PTR _cnt$3[ebp]
  00490	3b 45 bc	 cmp	 eax, DWORD PTR _waon_cnt$6[ebp]
  00493	0f 8d 93 00 00
	00		 jge	 $LN12@gate

; 2186 : 					//??????
; 2187 : 					set_tone( dataToneNo[ch], step[ch][step_point[ch]], cnt, waon_delay_total);

  00499	8b 45 a4	 mov	 eax, DWORD PTR _waon_delay_total$4[ebp]
  0049c	50		 push	 eax
  0049d	8b 4d 98	 mov	 ecx, DWORD PTR _cnt$3[ebp]
  004a0	51		 push	 ecx
  004a1	8b 15 00 00 00
	00		 mov	 edx, DWORD PTR ?ch@@3HA
  004a7	c1 e2 10	 shl	 edx, 16			; 00000010H
  004aa	a1 00 00 00 00	 mov	 eax, DWORD PTR ?ch@@3HA
  004af	8b 0c 85 00 00
	00 00		 mov	 ecx, DWORD PTR ?step_point@@3PAHA[eax*4]
  004b6	8b 94 8a 00 00
	00 00		 mov	 edx, DWORD PTR ?step@@3PAY0EAAA@HA[edx+ecx*4]
  004bd	52		 push	 edx
  004be	a1 00 00 00 00	 mov	 eax, DWORD PTR ?ch@@3HA
  004c3	8b 0c 85 00 00
	00 00		 mov	 ecx, DWORD PTR ?dataToneNo@@3PAHA[eax*4]
  004ca	51		 push	 ecx
  004cb	e8 00 00 00 00	 call	 ?set_tone@@YAHHJHH@Z	; set_tone
  004d0	83 c4 10	 add	 esp, 16			; 00000010H

; 2188 : 					note_old[ch][cnt] = step[ch][step_point[ch]++];		//??????k?颌V

  004d3	a1 00 00 00 00	 mov	 eax, DWORD PTR ?ch@@3HA
  004d8	c1 e0 10	 shl	 eax, 16			; 00000010H
  004db	8b 0d 00 00 00
	00		 mov	 ecx, DWORD PTR ?ch@@3HA
  004e1	8b 14 8d 00 00
	00 00		 mov	 edx, DWORD PTR ?step_point@@3PAHA[ecx*4]
  004e8	8b 0d 00 00 00
	00		 mov	 ecx, DWORD PTR ?ch@@3HA
  004ee	c1 e1 05	 shl	 ecx, 5
  004f1	8b 75 98	 mov	 esi, DWORD PTR _cnt$3[ebp]
  004f4	8b 94 90 00 00
	00 00		 mov	 edx, DWORD PTR ?step@@3PAY0EAAA@HA[eax+edx*4]
  004fb	89 94 b1 00 00
	00 00		 mov	 DWORD PTR ?note_old@@3PAY07HA[ecx+esi*4], edx
  00502	a1 00 00 00 00	 mov	 eax, DWORD PTR ?ch@@3HA
  00507	8b 0c 85 00 00
	00 00		 mov	 ecx, DWORD PTR ?step_point@@3PAHA[eax*4]
  0050e	83 c1 01	 add	 ecx, 1
  00511	8b 15 00 00 00
	00		 mov	 edx, DWORD PTR ?ch@@3HA
  00517	89 0c 95 00 00
	00 00		 mov	 DWORD PTR ?step_point@@3PAHA[edx*4], ecx

; 2189 : 					waon_delay_total += waon_delay;

  0051e	8b 45 a4	 mov	 eax, DWORD PTR _waon_delay_total$4[ebp]
  00521	03 45 b0	 add	 eax, DWORD PTR _waon_delay$5[ebp]
  00524	89 45 a4	 mov	 DWORD PTR _waon_delay_total$4[ebp], eax

; 2190 : 				}

  00527	e9 58 ff ff ff	 jmp	 $LN11@gate
$LN12@gate:

; 2191 : 			} else {

  0052c	e9 d1 00 00 00	 jmp	 $LN42@gate
$LN41@gate:

; 2192 : 				for(int cnt=0;cnt<play_use_task_cnt[ch];cnt++){

  00531	c7 45 8c 00 00
	00 00		 mov	 DWORD PTR _cnt$2[ebp], 0
  00538	eb 09		 jmp	 SHORT $LN16@gate
$LN14@gate:
  0053a	8b 45 8c	 mov	 eax, DWORD PTR _cnt$2[ebp]
  0053d	83 c0 01	 add	 eax, 1
  00540	89 45 8c	 mov	 DWORD PTR _cnt$2[ebp], eax
$LN16@gate:
  00543	a1 00 00 00 00	 mov	 eax, DWORD PTR ?ch@@3HA
  00548	8b 4d 8c	 mov	 ecx, DWORD PTR _cnt$2[ebp]
  0054b	3b 0c 85 00 00
	00 00		 cmp	 ecx, DWORD PTR ?play_use_task_cnt@@3PAHA[eax*4]
  00552	0f 8d aa 00 00
	00		 jge	 $LN42@gate

; 2193 : 					//???????
; 2194 : 					voice[ play_use_task[ch][cnt] ].name = VOICE_TIE_SET;

  00558	a1 00 00 00 00	 mov	 eax, DWORD PTR ?ch@@3HA
  0055d	c1 e0 05	 shl	 eax, 5
  00560	8b 4d 8c	 mov	 ecx, DWORD PTR _cnt$2[ebp]
  00563	6b 94 88 00 00
	00 00 3c	 imul	 edx, DWORD PTR ?play_use_task@@3PAY07HA[eax+ecx*4], 60
  0056b	c7 82 00 00 00
	00 0a 00 00 00	 mov	 DWORD PTR ?voice@@3PAUVOICE_EQU@@A[edx], 10 ; 0000000aH

; 2195 : 					//???????????
; 2196 : 					set_voice_param( play_use_task[ch][cnt], step[ch][step_point[ch]], -1, 0 );

  00575	6a 00		 push	 0
  00577	6a ff		 push	 -1
  00579	a1 00 00 00 00	 mov	 eax, DWORD PTR ?ch@@3HA
  0057e	c1 e0 10	 shl	 eax, 16			; 00000010H
  00581	8b 0d 00 00 00
	00		 mov	 ecx, DWORD PTR ?ch@@3HA
  00587	8b 14 8d 00 00
	00 00		 mov	 edx, DWORD PTR ?step_point@@3PAHA[ecx*4]
  0058e	8b 84 90 00 00
	00 00		 mov	 eax, DWORD PTR ?step@@3PAY0EAAA@HA[eax+edx*4]
  00595	50		 push	 eax
  00596	8b 0d 00 00 00
	00		 mov	 ecx, DWORD PTR ?ch@@3HA
  0059c	c1 e1 05	 shl	 ecx, 5
  0059f	8b 55 8c	 mov	 edx, DWORD PTR _cnt$2[ebp]
  005a2	8b 84 91 00 00
	00 00		 mov	 eax, DWORD PTR ?play_use_task@@3PAY07HA[ecx+edx*4]
  005a9	50		 push	 eax
  005aa	e8 00 00 00 00	 call	 ?set_voice_param@@YAXHJHH@Z ; set_voice_param
  005af	83 c4 10	 add	 esp, 16			; 00000010H

; 2197 : 					note_old[ch][cnt] = step[ch][step_point[ch]++];		//??????k?颌V

  005b2	a1 00 00 00 00	 mov	 eax, DWORD PTR ?ch@@3HA
  005b7	c1 e0 10	 shl	 eax, 16			; 00000010H
  005ba	8b 0d 00 00 00
	00		 mov	 ecx, DWORD PTR ?ch@@3HA
  005c0	8b 14 8d 00 00
	00 00		 mov	 edx, DWORD PTR ?step_point@@3PAHA[ecx*4]
  005c7	8b 0d 00 00 00
	00		 mov	 ecx, DWORD PTR ?ch@@3HA
  005cd	c1 e1 05	 shl	 ecx, 5
  005d0	8b 75 8c	 mov	 esi, DWORD PTR _cnt$2[ebp]
  005d3	8b 94 90 00 00
	00 00		 mov	 edx, DWORD PTR ?step@@3PAY0EAAA@HA[eax+edx*4]
  005da	89 94 b1 00 00
	00 00		 mov	 DWORD PTR ?note_old@@3PAY07HA[ecx+esi*4], edx
  005e1	a1 00 00 00 00	 mov	 eax, DWORD PTR ?ch@@3HA
  005e6	8b 0c 85 00 00
	00 00		 mov	 ecx, DWORD PTR ?step_point@@3PAHA[eax*4]
  005ed	83 c1 01	 add	 ecx, 1
  005f0	8b 15 00 00 00
	00		 mov	 edx, DWORD PTR ?ch@@3HA
  005f6	89 0c 95 00 00
	00 00		 mov	 DWORD PTR ?step_point@@3PAHA[edx*4], ecx

; 2198 : 				}

  005fd	e9 38 ff ff ff	 jmp	 $LN14@gate
$LN42@gate:

; 2199 : 			}
; 2200 : 			step_time[ch] = step[ch][step_point[ch]++];		//???????

  00602	a1 00 00 00 00	 mov	 eax, DWORD PTR ?ch@@3HA
  00607	c1 e0 10	 shl	 eax, 16			; 00000010H
  0060a	8b 0d 00 00 00
	00		 mov	 ecx, DWORD PTR ?ch@@3HA
  00610	8b 14 8d 00 00
	00 00		 mov	 edx, DWORD PTR ?step_point@@3PAHA[ecx*4]
  00617	8b 0d 00 00 00
	00		 mov	 ecx, DWORD PTR ?ch@@3HA
  0061d	8b 94 90 00 00
	00 00		 mov	 edx, DWORD PTR ?step@@3PAY0EAAA@HA[eax+edx*4]
  00624	89 14 8d 00 00
	00 00		 mov	 DWORD PTR ?step_time@@3PAHA[ecx*4], edx
  0062b	a1 00 00 00 00	 mov	 eax, DWORD PTR ?ch@@3HA
  00630	8b 0c 85 00 00
	00 00		 mov	 ecx, DWORD PTR ?step_point@@3PAHA[eax*4]
  00637	83 c1 01	 add	 ecx, 1
  0063a	8b 15 00 00 00
	00		 mov	 edx, DWORD PTR ?ch@@3HA
  00640	89 0c 95 00 00
	00 00		 mov	 DWORD PTR ?step_point@@3PAHA[edx*4], ecx

; 2201 : 			gate_time[ch] = step[ch][step_point[ch]++];		//??????

  00647	a1 00 00 00 00	 mov	 eax, DWORD PTR ?ch@@3HA
  0064c	c1 e0 10	 shl	 eax, 16			; 00000010H
  0064f	8b 0d 00 00 00
	00		 mov	 ecx, DWORD PTR ?ch@@3HA
  00655	8b 14 8d 00 00
	00 00		 mov	 edx, DWORD PTR ?step_point@@3PAHA[ecx*4]
  0065c	8b 0d 00 00 00
	00		 mov	 ecx, DWORD PTR ?ch@@3HA
  00662	8b 94 90 00 00
	00 00		 mov	 edx, DWORD PTR ?step@@3PAY0EAAA@HA[eax+edx*4]
  00669	89 14 8d 00 00
	00 00		 mov	 DWORD PTR ?gate_time@@3PAHA[ecx*4], edx
  00670	a1 00 00 00 00	 mov	 eax, DWORD PTR ?ch@@3HA
  00675	8b 0c 85 00 00
	00 00		 mov	 ecx, DWORD PTR ?step_point@@3PAHA[eax*4]
  0067c	83 c1 01	 add	 ecx, 1
  0067f	8b 15 00 00 00
	00		 mov	 edx, DWORD PTR ?ch@@3HA
  00685	89 0c 95 00 00
	00 00		 mov	 DWORD PTR ?step_point@@3PAHA[edx*4], ecx

; 2202 : 			if(gate_time[ch]==-1){		//????

  0068c	a1 00 00 00 00	 mov	 eax, DWORD PTR ?ch@@3HA
  00691	83 3c 85 00 00
	00 00 ff	 cmp	 DWORD PTR ?gate_time@@3PAHA[eax*4], -1
  00699	75 12		 jne	 SHORT $LN43@gate

; 2203 : 				tie_flg[ch]=1;

  0069b	a1 00 00 00 00	 mov	 eax, DWORD PTR ?ch@@3HA
  006a0	c7 04 85 00 00
	00 00 01 00 00
	00		 mov	 DWORD PTR ?tie_flg@@3PAHA[eax*4], 1

; 2204 : 			} else {

  006ab	eb 10		 jmp	 SHORT $LN44@gate
$LN43@gate:

; 2205 : 				tie_flg[ch]=0;

  006ad	a1 00 00 00 00	 mov	 eax, DWORD PTR ?ch@@3HA
  006b2	c7 04 85 00 00
	00 00 00 00 00
	00		 mov	 DWORD PTR ?tie_flg@@3PAHA[eax*4], 0
$LN44@gate:

; 2206 : 			}
; 2207 : 			play_use_task_cnt[ch] = waon_cnt;		//D?????

  006bd	a1 00 00 00 00	 mov	 eax, DWORD PTR ?ch@@3HA
  006c2	8b 4d bc	 mov	 ecx, DWORD PTR _waon_cnt$6[ebp]
  006c5	89 0c 85 00 00
	00 00		 mov	 DWORD PTR ?play_use_task_cnt@@3PAHA[eax*4], ecx

; 2208 : 			return;

  006cc	e9 d9 06 00 00	 jmp	 $LN1@gate
$LN39@gate:

; 2209 : 		}
; 2210 : 		if(next_command==MUSIC_TEMPO){		//????

  006d1	83 7d f8 f9	 cmp	 DWORD PTR _next_command$[ebp], -7 ; fffffff9H
  006d5	75 42		 jne	 SHORT $LN45@gate

; 2211 : 			tempo.LowPart = step[ch][step_point[ch]++];

  006d7	a1 00 00 00 00	 mov	 eax, DWORD PTR ?ch@@3HA
  006dc	c1 e0 10	 shl	 eax, 16			; 00000010H
  006df	8b 0d 00 00 00
	00		 mov	 ecx, DWORD PTR ?ch@@3HA
  006e5	8b 14 8d 00 00
	00 00		 mov	 edx, DWORD PTR ?step_point@@3PAHA[ecx*4]
  006ec	8b 84 90 00 00
	00 00		 mov	 eax, DWORD PTR ?step@@3PAY0EAAA@HA[eax+edx*4]
  006f3	a3 00 00 00 00	 mov	 DWORD PTR ?tempo@@3T_LARGE_INTEGER@@A, eax
  006f8	8b 0d 00 00 00
	00		 mov	 ecx, DWORD PTR ?ch@@3HA
  006fe	8b 14 8d 00 00
	00 00		 mov	 edx, DWORD PTR ?step_point@@3PAHA[ecx*4]
  00705	83 c2 01	 add	 edx, 1
  00708	a1 00 00 00 00	 mov	 eax, DWORD PTR ?ch@@3HA
  0070d	89 14 85 00 00
	00 00		 mov	 DWORD PTR ?step_point@@3PAHA[eax*4], edx

; 2212 : 			goto gate_100;

  00714	e9 87 fa ff ff	 jmp	 $gate_100$84
$LN45@gate:

; 2213 : 		}
; 2214 : 		if(next_command==MUSIC_NEIRO_NO){		//?棹?v??

  00719	83 7d f8 f7	 cmp	 DWORD PTR _next_command$[ebp], -9 ; fffffff7H
  0071d	75 4a		 jne	 SHORT $LN46@gate

; 2215 : //			change_neiro( ch, step[ch][step_point[ch]++] );
; 2216 : 			dataToneNo[ch] = step[ch][step_point[ch]++];

  0071f	a1 00 00 00 00	 mov	 eax, DWORD PTR ?ch@@3HA
  00724	c1 e0 10	 shl	 eax, 16			; 00000010H
  00727	8b 0d 00 00 00
	00		 mov	 ecx, DWORD PTR ?ch@@3HA
  0072d	8b 14 8d 00 00
	00 00		 mov	 edx, DWORD PTR ?step_point@@3PAHA[ecx*4]
  00734	8b 0d 00 00 00
	00		 mov	 ecx, DWORD PTR ?ch@@3HA
  0073a	8b 94 90 00 00
	00 00		 mov	 edx, DWORD PTR ?step@@3PAY0EAAA@HA[eax+edx*4]
  00741	89 14 8d 00 00
	00 00		 mov	 DWORD PTR ?dataToneNo@@3PAHA[ecx*4], edx
  00748	a1 00 00 00 00	 mov	 eax, DWORD PTR ?ch@@3HA
  0074d	8b 0c 85 00 00
	00 00		 mov	 ecx, DWORD PTR ?step_point@@3PAHA[eax*4]
  00754	83 c1 01	 add	 ecx, 1
  00757	8b 15 00 00 00
	00		 mov	 edx, DWORD PTR ?ch@@3HA
  0075d	89 0c 95 00 00
	00 00		 mov	 DWORD PTR ?step_point@@3PAHA[edx*4], ecx

; 2217 : 			goto gate_100;

  00764	e9 37 fa ff ff	 jmp	 $gate_100$84
$LN46@gate:

; 2218 : 		}
; 2219 : 		if(next_command==MUSIC_LOOP){		//????

  00769	83 7d f8 fd	 cmp	 DWORD PTR _next_command$[ebp], -3 ; fffffffdH
  0076d	75 2e		 jne	 SHORT $LN47@gate

; 2220 : 			step_point[ch] = step[ch][step_point[ch]];

  0076f	a1 00 00 00 00	 mov	 eax, DWORD PTR ?ch@@3HA
  00774	c1 e0 10	 shl	 eax, 16			; 00000010H
  00777	8b 0d 00 00 00
	00		 mov	 ecx, DWORD PTR ?ch@@3HA
  0077d	8b 14 8d 00 00
	00 00		 mov	 edx, DWORD PTR ?step_point@@3PAHA[ecx*4]
  00784	8b 0d 00 00 00
	00		 mov	 ecx, DWORD PTR ?ch@@3HA
  0078a	8b 94 90 00 00
	00 00		 mov	 edx, DWORD PTR ?step@@3PAY0EAAA@HA[eax+edx*4]
  00791	89 14 8d 00 00
	00 00		 mov	 DWORD PTR ?step_point@@3PAHA[ecx*4], edx

; 2221 : 			goto gate_100;

  00798	e9 03 fa ff ff	 jmp	 $gate_100$84
$LN47@gate:

; 2222 : 		}
; 2223 : 		if(next_command==MUSIC_KURI_START){		//?????

  0079d	83 7d f8 f4	 cmp	 DWORD PTR _next_command$[ebp], -12 ; fffffff4H
  007a1	75 76		 jne	 SHORT $LN48@gate

; 2224 : 			play_kuri_lv[ch]++;		//???????

  007a3	a1 00 00 00 00	 mov	 eax, DWORD PTR ?ch@@3HA
  007a8	8b 0c 85 00 00
	00 00		 mov	 ecx, DWORD PTR ?play_kuri_lv@@3PAHA[eax*4]
  007af	83 c1 01	 add	 ecx, 1
  007b2	8b 15 00 00 00
	00		 mov	 edx, DWORD PTR ?ch@@3HA
  007b8	89 0c 95 00 00
	00 00		 mov	 DWORD PTR ?play_kuri_lv@@3PAHA[edx*4], ecx

; 2225 : 			play_kuri_num[play_kuri_lv[ch]][ch] = step[ch][step_point[ch]++];

  007bf	a1 00 00 00 00	 mov	 eax, DWORD PTR ?ch@@3HA
  007c4	c1 e0 10	 shl	 eax, 16			; 00000010H
  007c7	8b 0d 00 00 00
	00		 mov	 ecx, DWORD PTR ?ch@@3HA
  007cd	8b 14 8d 00 00
	00 00		 mov	 edx, DWORD PTR ?step_point@@3PAHA[ecx*4]
  007d4	8b 0d 00 00 00
	00		 mov	 ecx, DWORD PTR ?ch@@3HA
  007da	8b 0c 8d 00 00
	00 00		 mov	 ecx, DWORD PTR ?play_kuri_lv@@3PAHA[ecx*4]
  007e1	c1 e1 07	 shl	 ecx, 7
  007e4	8b 35 00 00 00
	00		 mov	 esi, DWORD PTR ?ch@@3HA
  007ea	8b 94 90 00 00
	00 00		 mov	 edx, DWORD PTR ?step@@3PAY0EAAA@HA[eax+edx*4]
  007f1	89 94 b1 00 00
	00 00		 mov	 DWORD PTR ?play_kuri_num@@3PAY0CA@HA[ecx+esi*4], edx
  007f8	a1 00 00 00 00	 mov	 eax, DWORD PTR ?ch@@3HA
  007fd	8b 0c 85 00 00
	00 00		 mov	 ecx, DWORD PTR ?step_point@@3PAHA[eax*4]
  00804	83 c1 01	 add	 ecx, 1
  00807	8b 15 00 00 00
	00		 mov	 edx, DWORD PTR ?ch@@3HA
  0080d	89 0c 95 00 00
	00 00		 mov	 DWORD PTR ?step_point@@3PAHA[edx*4], ecx

; 2226 : 			goto gate_100;

  00814	e9 87 f9 ff ff	 jmp	 $gate_100$84
$LN48@gate:

; 2227 : 		}
; 2228 : 		if(next_command==MUSIC_KURI_SKIP){		//???D?

  00819	83 7d f8 f5	 cmp	 DWORD PTR _next_command$[ebp], -11 ; fffffff5H
  0081d	0f 85 87 00 00
	00		 jne	 $LN49@gate

; 2229 : 			if(play_kuri_num[play_kuri_lv[ch]][ch] == 1){

  00823	a1 00 00 00 00	 mov	 eax, DWORD PTR ?ch@@3HA
  00828	8b 0c 85 00 00
	00 00		 mov	 ecx, DWORD PTR ?play_kuri_lv@@3PAHA[eax*4]
  0082f	c1 e1 07	 shl	 ecx, 7
  00832	8b 15 00 00 00
	00		 mov	 edx, DWORD PTR ?ch@@3HA
  00838	83 bc 91 00 00
	00 00 01	 cmp	 DWORD PTR ?play_kuri_num@@3PAY0CA@HA[ecx+edx*4], 1
  00840	75 47		 jne	 SHORT $LN50@gate

; 2230 : 				step_point[ch] = step[ch][step_point[ch]];

  00842	a1 00 00 00 00	 mov	 eax, DWORD PTR ?ch@@3HA
  00847	c1 e0 10	 shl	 eax, 16			; 00000010H
  0084a	8b 0d 00 00 00
	00		 mov	 ecx, DWORD PTR ?ch@@3HA
  00850	8b 14 8d 00 00
	00 00		 mov	 edx, DWORD PTR ?step_point@@3PAHA[ecx*4]
  00857	8b 0d 00 00 00
	00		 mov	 ecx, DWORD PTR ?ch@@3HA
  0085d	8b 94 90 00 00
	00 00		 mov	 edx, DWORD PTR ?step@@3PAY0EAAA@HA[eax+edx*4]
  00864	89 14 8d 00 00
	00 00		 mov	 DWORD PTR ?step_point@@3PAHA[ecx*4], edx

; 2231 : 				play_kuri_lv[ch]--;		//???????

  0086b	a1 00 00 00 00	 mov	 eax, DWORD PTR ?ch@@3HA
  00870	8b 0c 85 00 00
	00 00		 mov	 ecx, DWORD PTR ?play_kuri_lv@@3PAHA[eax*4]
  00877	83 e9 01	 sub	 ecx, 1
  0087a	8b 15 00 00 00
	00		 mov	 edx, DWORD PTR ?ch@@3HA
  00880	89 0c 95 00 00
	00 00		 mov	 DWORD PTR ?play_kuri_lv@@3PAHA[edx*4], ecx

; 2232 : 			} else {

  00887	eb 1c		 jmp	 SHORT $LN51@gate
$LN50@gate:

; 2233 : 				step_point[ch]++;

  00889	a1 00 00 00 00	 mov	 eax, DWORD PTR ?ch@@3HA
  0088e	8b 0c 85 00 00
	00 00		 mov	 ecx, DWORD PTR ?step_point@@3PAHA[eax*4]
  00895	83 c1 01	 add	 ecx, 1
  00898	8b 15 00 00 00
	00		 mov	 edx, DWORD PTR ?ch@@3HA
  0089e	89 0c 95 00 00
	00 00		 mov	 DWORD PTR ?step_point@@3PAHA[edx*4], ecx
$LN51@gate:

; 2234 : 			}
; 2235 : 			goto gate_100;

  008a5	e9 f6 f8 ff ff	 jmp	 $gate_100$84
$LN49@gate:

; 2236 : 		}
; 2237 : 		if(next_command==MUSIC_KURI_RET){		//?????

  008aa	83 7d f8 f6	 cmp	 DWORD PTR _next_command$[ebp], -10 ; fffffff6H
  008ae	0f 85 c3 00 00
	00		 jne	 $LN52@gate

; 2238 : 			play_kuri_num[play_kuri_lv[ch]][ch]--;

  008b4	a1 00 00 00 00	 mov	 eax, DWORD PTR ?ch@@3HA
  008b9	8b 0c 85 00 00
	00 00		 mov	 ecx, DWORD PTR ?play_kuri_lv@@3PAHA[eax*4]
  008c0	c1 e1 07	 shl	 ecx, 7
  008c3	8b 15 00 00 00
	00		 mov	 edx, DWORD PTR ?ch@@3HA
  008c9	8b 84 91 00 00
	00 00		 mov	 eax, DWORD PTR ?play_kuri_num@@3PAY0CA@HA[ecx+edx*4]
  008d0	83 e8 01	 sub	 eax, 1
  008d3	8b 0d 00 00 00
	00		 mov	 ecx, DWORD PTR ?ch@@3HA
  008d9	8b 14 8d 00 00
	00 00		 mov	 edx, DWORD PTR ?play_kuri_lv@@3PAHA[ecx*4]
  008e0	c1 e2 07	 shl	 edx, 7
  008e3	8b 0d 00 00 00
	00		 mov	 ecx, DWORD PTR ?ch@@3HA
  008e9	89 84 8a 00 00
	00 00		 mov	 DWORD PTR ?play_kuri_num@@3PAY0CA@HA[edx+ecx*4], eax

; 2239 : 			if(play_kuri_num[play_kuri_lv[ch]][ch] > 0){

  008f0	a1 00 00 00 00	 mov	 eax, DWORD PTR ?ch@@3HA
  008f5	8b 0c 85 00 00
	00 00		 mov	 ecx, DWORD PTR ?play_kuri_lv@@3PAHA[eax*4]
  008fc	c1 e1 07	 shl	 ecx, 7
  008ff	8b 15 00 00 00
	00		 mov	 edx, DWORD PTR ?ch@@3HA
  00905	83 bc 91 00 00
	00 00 00	 cmp	 DWORD PTR ?play_kuri_num@@3PAY0CA@HA[ecx+edx*4], 0
  0090d	7e 2b		 jle	 SHORT $LN53@gate

; 2240 : 				step_point[ch] = step[ch][step_point[ch]];

  0090f	a1 00 00 00 00	 mov	 eax, DWORD PTR ?ch@@3HA
  00914	c1 e0 10	 shl	 eax, 16			; 00000010H
  00917	8b 0d 00 00 00
	00		 mov	 ecx, DWORD PTR ?ch@@3HA
  0091d	8b 14 8d 00 00
	00 00		 mov	 edx, DWORD PTR ?step_point@@3PAHA[ecx*4]
  00924	8b 0d 00 00 00
	00		 mov	 ecx, DWORD PTR ?ch@@3HA
  0092a	8b 94 90 00 00
	00 00		 mov	 edx, DWORD PTR ?step@@3PAY0EAAA@HA[eax+edx*4]
  00931	89 14 8d 00 00
	00 00		 mov	 DWORD PTR ?step_point@@3PAHA[ecx*4], edx

; 2241 : 			} else {

  00938	eb 38		 jmp	 SHORT $LN54@gate
$LN53@gate:

; 2242 : 				step_point[ch]++;

  0093a	a1 00 00 00 00	 mov	 eax, DWORD PTR ?ch@@3HA
  0093f	8b 0c 85 00 00
	00 00		 mov	 ecx, DWORD PTR ?step_point@@3PAHA[eax*4]
  00946	83 c1 01	 add	 ecx, 1
  00949	8b 15 00 00 00
	00		 mov	 edx, DWORD PTR ?ch@@3HA
  0094f	89 0c 95 00 00
	00 00		 mov	 DWORD PTR ?step_point@@3PAHA[edx*4], ecx

; 2243 : 				play_kuri_lv[ch]--;		//???????

  00956	a1 00 00 00 00	 mov	 eax, DWORD PTR ?ch@@3HA
  0095b	8b 0c 85 00 00
	00 00		 mov	 ecx, DWORD PTR ?play_kuri_lv@@3PAHA[eax*4]
  00962	83 e9 01	 sub	 ecx, 1
  00965	8b 15 00 00 00
	00		 mov	 edx, DWORD PTR ?ch@@3HA
  0096b	89 0c 95 00 00
	00 00		 mov	 DWORD PTR ?play_kuri_lv@@3PAHA[edx*4], ecx
$LN54@gate:

; 2244 : 			}
; 2245 : 			goto gate_100;

  00972	e9 29 f8 ff ff	 jmp	 $gate_100$84
$LN52@gate:

; 2246 : 		}
; 2247 : 		if(next_command==MUSIC_R){		//??

  00977	83 7d f8 fe	 cmp	 DWORD PTR _next_command$[ebp], -2 ; fffffffeH
  0097b	0f 85 43 01 00
	00		 jne	 $LN55@gate

; 2248 : 			if(tie_flg[ch]){		//????

  00981	a1 00 00 00 00	 mov	 eax, DWORD PTR ?ch@@3HA
  00986	83 3c 85 00 00
	00 00 00	 cmp	 DWORD PTR ?tie_flg@@3PAHA[eax*4], 0
  0098e	74 74		 je	 SHORT $LN56@gate

; 2249 : 				for(int cnt=0;cnt<play_use_task_cnt[ch];cnt++){

  00990	c7 45 80 00 00
	00 00		 mov	 DWORD PTR _cnt$1[ebp], 0
  00997	eb 09		 jmp	 SHORT $LN19@gate
$LN17@gate:
  00999	8b 45 80	 mov	 eax, DWORD PTR _cnt$1[ebp]
  0099c	83 c0 01	 add	 eax, 1
  0099f	89 45 80	 mov	 DWORD PTR _cnt$1[ebp], eax
$LN19@gate:
  009a2	a1 00 00 00 00	 mov	 eax, DWORD PTR ?ch@@3HA
  009a7	8b 4d 80	 mov	 ecx, DWORD PTR _cnt$1[ebp]
  009aa	3b 0c 85 00 00
	00 00		 cmp	 ecx, DWORD PTR ?play_use_task_cnt@@3PAHA[eax*4]
  009b1	7d 51		 jge	 SHORT $LN56@gate

; 2250 : 					//???????
; 2251 : 					voice[ play_use_task[ch][cnt] ].name = VOICE_TIE_SET;

  009b3	a1 00 00 00 00	 mov	 eax, DWORD PTR ?ch@@3HA
  009b8	c1 e0 05	 shl	 eax, 5
  009bb	8b 4d 80	 mov	 ecx, DWORD PTR _cnt$1[ebp]
  009be	6b 94 88 00 00
	00 00 3c	 imul	 edx, DWORD PTR ?play_use_task@@3PAY07HA[eax+ecx*4], 60
  009c6	c7 82 00 00 00
	00 0a 00 00 00	 mov	 DWORD PTR ?voice@@3PAUVOICE_EQU@@A[edx], 10 ; 0000000aH

; 2252 : 					//???????????
; 2253 : 					set_voice_param( play_use_task[ch][cnt], note_old[ch][cnt], -1, 0 );

  009d0	6a 00		 push	 0
  009d2	6a ff		 push	 -1
  009d4	a1 00 00 00 00	 mov	 eax, DWORD PTR ?ch@@3HA
  009d9	c1 e0 05	 shl	 eax, 5
  009dc	8b 4d 80	 mov	 ecx, DWORD PTR _cnt$1[ebp]
  009df	8b 94 88 00 00
	00 00		 mov	 edx, DWORD PTR ?note_old@@3PAY07HA[eax+ecx*4]
  009e6	52		 push	 edx
  009e7	a1 00 00 00 00	 mov	 eax, DWORD PTR ?ch@@3HA
  009ec	c1 e0 05	 shl	 eax, 5
  009ef	8b 4d 80	 mov	 ecx, DWORD PTR _cnt$1[ebp]
  009f2	8b 94 88 00 00
	00 00		 mov	 edx, DWORD PTR ?play_use_task@@3PAY07HA[eax+ecx*4]
  009f9	52		 push	 edx
  009fa	e8 00 00 00 00	 call	 ?set_voice_param@@YAXHJHH@Z ; set_voice_param
  009ff	83 c4 10	 add	 esp, 16			; 00000010H

; 2254 : 				}

  00a02	eb 95		 jmp	 SHORT $LN17@gate
$LN56@gate:

; 2255 : 			}
; 2256 : 			step_time[ch] = step[ch][step_point[ch]++];		//???????

  00a04	a1 00 00 00 00	 mov	 eax, DWORD PTR ?ch@@3HA
  00a09	c1 e0 10	 shl	 eax, 16			; 00000010H
  00a0c	8b 0d 00 00 00
	00		 mov	 ecx, DWORD PTR ?ch@@3HA
  00a12	8b 14 8d 00 00
	00 00		 mov	 edx, DWORD PTR ?step_point@@3PAHA[ecx*4]
  00a19	8b 0d 00 00 00
	00		 mov	 ecx, DWORD PTR ?ch@@3HA
  00a1f	8b 94 90 00 00
	00 00		 mov	 edx, DWORD PTR ?step@@3PAY0EAAA@HA[eax+edx*4]
  00a26	89 14 8d 00 00
	00 00		 mov	 DWORD PTR ?step_time@@3PAHA[ecx*4], edx
  00a2d	a1 00 00 00 00	 mov	 eax, DWORD PTR ?ch@@3HA
  00a32	8b 0c 85 00 00
	00 00		 mov	 ecx, DWORD PTR ?step_point@@3PAHA[eax*4]
  00a39	83 c1 01	 add	 ecx, 1
  00a3c	8b 15 00 00 00
	00		 mov	 edx, DWORD PTR ?ch@@3HA
  00a42	89 0c 95 00 00
	00 00		 mov	 DWORD PTR ?step_point@@3PAHA[edx*4], ecx

; 2257 : 			gate_time[ch] = step[ch][step_point[ch]++];		//??????

  00a49	a1 00 00 00 00	 mov	 eax, DWORD PTR ?ch@@3HA
  00a4e	c1 e0 10	 shl	 eax, 16			; 00000010H
  00a51	8b 0d 00 00 00
	00		 mov	 ecx, DWORD PTR ?ch@@3HA
  00a57	8b 14 8d 00 00
	00 00		 mov	 edx, DWORD PTR ?step_point@@3PAHA[ecx*4]
  00a5e	8b 0d 00 00 00
	00		 mov	 ecx, DWORD PTR ?ch@@3HA
  00a64	8b 94 90 00 00
	00 00		 mov	 edx, DWORD PTR ?step@@3PAY0EAAA@HA[eax+edx*4]
  00a6b	89 14 8d 00 00
	00 00		 mov	 DWORD PTR ?gate_time@@3PAHA[ecx*4], edx
  00a72	a1 00 00 00 00	 mov	 eax, DWORD PTR ?ch@@3HA
  00a77	8b 0c 85 00 00
	00 00		 mov	 ecx, DWORD PTR ?step_point@@3PAHA[eax*4]
  00a7e	83 c1 01	 add	 ecx, 1
  00a81	8b 15 00 00 00
	00		 mov	 edx, DWORD PTR ?ch@@3HA
  00a87	89 0c 95 00 00
	00 00		 mov	 DWORD PTR ?step_point@@3PAHA[edx*4], ecx

; 2258 : 			if(gate_time[ch]==-1){		//????

  00a8e	a1 00 00 00 00	 mov	 eax, DWORD PTR ?ch@@3HA
  00a93	83 3c 85 00 00
	00 00 ff	 cmp	 DWORD PTR ?gate_time@@3PAHA[eax*4], -1
  00a9b	75 12		 jne	 SHORT $LN57@gate

; 2259 : 				tie_flg[ch]=1;

  00a9d	a1 00 00 00 00	 mov	 eax, DWORD PTR ?ch@@3HA
  00aa2	c7 04 85 00 00
	00 00 01 00 00
	00		 mov	 DWORD PTR ?tie_flg@@3PAHA[eax*4], 1

; 2260 : 			} else {

  00aad	eb 10		 jmp	 SHORT $LN58@gate
$LN57@gate:

; 2261 : 				tie_flg[ch]=0;

  00aaf	a1 00 00 00 00	 mov	 eax, DWORD PTR ?ch@@3HA
  00ab4	c7 04 85 00 00
	00 00 00 00 00
	00		 mov	 DWORD PTR ?tie_flg@@3PAHA[eax*4], 0
$LN58@gate:

; 2262 : 			}
; 2263 : 			return;

  00abf	e9 e6 02 00 00	 jmp	 $LN1@gate
$LN55@gate:

; 2264 : 		}
; 2265 : 		if(next_command==MUSIC_LFO_H){		//??????

  00ac4	83 7d f8 f0	 cmp	 DWORD PTR _next_command$[ebp], -16 ; fffffff0H
  00ac8	75 4a		 jne	 SHORT $LN59@gate

; 2266 : 			play_lfo_h[ch]=step[ch][step_point[ch]++];

  00aca	a1 00 00 00 00	 mov	 eax, DWORD PTR ?ch@@3HA
  00acf	c1 e0 10	 shl	 eax, 16			; 00000010H
  00ad2	8b 0d 00 00 00
	00		 mov	 ecx, DWORD PTR ?ch@@3HA
  00ad8	8b 14 8d 00 00
	00 00		 mov	 edx, DWORD PTR ?step_point@@3PAHA[ecx*4]
  00adf	8b 0d 00 00 00
	00		 mov	 ecx, DWORD PTR ?ch@@3HA
  00ae5	8b 94 90 00 00
	00 00		 mov	 edx, DWORD PTR ?step@@3PAY0EAAA@HA[eax+edx*4]
  00aec	89 14 8d 00 00
	00 00		 mov	 DWORD PTR ?play_lfo_h@@3PAHA[ecx*4], edx
  00af3	a1 00 00 00 00	 mov	 eax, DWORD PTR ?ch@@3HA
  00af8	8b 0c 85 00 00
	00 00		 mov	 ecx, DWORD PTR ?step_point@@3PAHA[eax*4]
  00aff	83 c1 01	 add	 ecx, 1
  00b02	8b 15 00 00 00
	00		 mov	 edx, DWORD PTR ?ch@@3HA
  00b08	89 0c 95 00 00
	00 00		 mov	 DWORD PTR ?step_point@@3PAHA[edx*4], ecx

; 2267 : 			goto gate_100;

  00b0f	e9 8c f6 ff ff	 jmp	 $gate_100$84
$LN59@gate:

; 2268 : 		}
; 2269 : 		if(next_command==MUSIC_LFO_M){		//??????

  00b14	83 7d f8 ef	 cmp	 DWORD PTR _next_command$[ebp], -17 ; ffffffefH
  00b18	75 4a		 jne	 SHORT $LN60@gate

; 2270 : 			play_lfo_m[ch]=step[ch][step_point[ch]++];

  00b1a	a1 00 00 00 00	 mov	 eax, DWORD PTR ?ch@@3HA
  00b1f	c1 e0 10	 shl	 eax, 16			; 00000010H
  00b22	8b 0d 00 00 00
	00		 mov	 ecx, DWORD PTR ?ch@@3HA
  00b28	8b 14 8d 00 00
	00 00		 mov	 edx, DWORD PTR ?step_point@@3PAHA[ecx*4]
  00b2f	8b 0d 00 00 00
	00		 mov	 ecx, DWORD PTR ?ch@@3HA
  00b35	8b 94 90 00 00
	00 00		 mov	 edx, DWORD PTR ?step@@3PAY0EAAA@HA[eax+edx*4]
  00b3c	89 14 8d 00 00
	00 00		 mov	 DWORD PTR ?play_lfo_m@@3PAHA[ecx*4], edx
  00b43	a1 00 00 00 00	 mov	 eax, DWORD PTR ?ch@@3HA
  00b48	8b 0c 85 00 00
	00 00		 mov	 ecx, DWORD PTR ?step_point@@3PAHA[eax*4]
  00b4f	83 c1 01	 add	 ecx, 1
  00b52	8b 15 00 00 00
	00		 mov	 edx, DWORD PTR ?ch@@3HA
  00b58	89 0c 95 00 00
	00 00		 mov	 DWORD PTR ?step_point@@3PAHA[edx*4], ecx

; 2271 : 			goto gate_100;

  00b5f	e9 3c f6 ff ff	 jmp	 $gate_100$84
$LN60@gate:

; 2272 : 		}
; 2273 : 		if(next_command==MUSIC_LFO_S){		//??????

  00b64	83 7d f8 ee	 cmp	 DWORD PTR _next_command$[ebp], -18 ; ffffffeeH
  00b68	75 4a		 jne	 SHORT $LN61@gate

; 2274 : 			play_lfo_s[ch]=step[ch][step_point[ch]++];

  00b6a	a1 00 00 00 00	 mov	 eax, DWORD PTR ?ch@@3HA
  00b6f	c1 e0 10	 shl	 eax, 16			; 00000010H
  00b72	8b 0d 00 00 00
	00		 mov	 ecx, DWORD PTR ?ch@@3HA
  00b78	8b 14 8d 00 00
	00 00		 mov	 edx, DWORD PTR ?step_point@@3PAHA[ecx*4]
  00b7f	8b 0d 00 00 00
	00		 mov	 ecx, DWORD PTR ?ch@@3HA
  00b85	8b 94 90 00 00
	00 00		 mov	 edx, DWORD PTR ?step@@3PAY0EAAA@HA[eax+edx*4]
  00b8c	89 14 8d 00 00
	00 00		 mov	 DWORD PTR ?play_lfo_s@@3PAHA[ecx*4], edx
  00b93	a1 00 00 00 00	 mov	 eax, DWORD PTR ?ch@@3HA
  00b98	8b 0c 85 00 00
	00 00		 mov	 ecx, DWORD PTR ?step_point@@3PAHA[eax*4]
  00b9f	83 c1 01	 add	 ecx, 1
  00ba2	8b 15 00 00 00
	00		 mov	 edx, DWORD PTR ?ch@@3HA
  00ba8	89 0c 95 00 00
	00 00		 mov	 DWORD PTR ?step_point@@3PAHA[edx*4], ecx

; 2275 : 			goto gate_100;

  00baf	e9 ec f5 ff ff	 jmp	 $gate_100$84
$LN61@gate:

; 2276 : 		}
; 2277 : 		if(next_command==MUSIC_PEDAL){		//????????

  00bb4	83 7d f8 f8	 cmp	 DWORD PTR _next_command$[ebp], -8 ; fffffff8H
  00bb8	75 4a		 jne	 SHORT $LN62@gate

; 2278 : 			d_pedal[ch]=step[ch][step_point[ch]++];

  00bba	a1 00 00 00 00	 mov	 eax, DWORD PTR ?ch@@3HA
  00bbf	c1 e0 10	 shl	 eax, 16			; 00000010H
  00bc2	8b 0d 00 00 00
	00		 mov	 ecx, DWORD PTR ?ch@@3HA
  00bc8	8b 14 8d 00 00
	00 00		 mov	 edx, DWORD PTR ?step_point@@3PAHA[ecx*4]
  00bcf	8b 0d 00 00 00
	00		 mov	 ecx, DWORD PTR ?ch@@3HA
  00bd5	8b 94 90 00 00
	00 00		 mov	 edx, DWORD PTR ?step@@3PAY0EAAA@HA[eax+edx*4]
  00bdc	89 14 8d 00 00
	00 00		 mov	 DWORD PTR ?d_pedal@@3PAHA[ecx*4], edx
  00be3	a1 00 00 00 00	 mov	 eax, DWORD PTR ?ch@@3HA
  00be8	8b 0c 85 00 00
	00 00		 mov	 ecx, DWORD PTR ?step_point@@3PAHA[eax*4]
  00bef	83 c1 01	 add	 ecx, 1
  00bf2	8b 15 00 00 00
	00		 mov	 edx, DWORD PTR ?ch@@3HA
  00bf8	89 0c 95 00 00
	00 00		 mov	 DWORD PTR ?step_point@@3PAHA[edx*4], ecx

; 2279 : 			goto gate_100;

  00bff	e9 9c f5 ff ff	 jmp	 $gate_100$84
$LN62@gate:

; 2280 : 		}
; 2281 : 		if(next_command==MUSIC_WAVE){		//???????

  00c04	83 7d f8 f3	 cmp	 DWORD PTR _next_command$[ebp], -13 ; fffffff3H
  00c08	75 4a		 jne	 SHORT $LN63@gate

; 2282 : 			wave[ch]=step[ch][step_point[ch]++];

  00c0a	a1 00 00 00 00	 mov	 eax, DWORD PTR ?ch@@3HA
  00c0f	c1 e0 10	 shl	 eax, 16			; 00000010H
  00c12	8b 0d 00 00 00
	00		 mov	 ecx, DWORD PTR ?ch@@3HA
  00c18	8b 14 8d 00 00
	00 00		 mov	 edx, DWORD PTR ?step_point@@3PAHA[ecx*4]
  00c1f	8b 0d 00 00 00
	00		 mov	 ecx, DWORD PTR ?ch@@3HA
  00c25	8b 94 90 00 00
	00 00		 mov	 edx, DWORD PTR ?step@@3PAY0EAAA@HA[eax+edx*4]
  00c2c	89 14 8d 00 00
	00 00		 mov	 DWORD PTR ?wave@@3PAHA[ecx*4], edx
  00c33	a1 00 00 00 00	 mov	 eax, DWORD PTR ?ch@@3HA
  00c38	8b 0c 85 00 00
	00 00		 mov	 ecx, DWORD PTR ?step_point@@3PAHA[eax*4]
  00c3f	83 c1 01	 add	 ecx, 1
  00c42	8b 15 00 00 00
	00		 mov	 edx, DWORD PTR ?ch@@3HA
  00c48	89 0c 95 00 00
	00 00		 mov	 DWORD PTR ?step_point@@3PAHA[edx*4], ecx

; 2283 : 			goto gate_100;

  00c4f	e9 4c f5 ff ff	 jmp	 $gate_100$84
$LN63@gate:

; 2284 : 		}
; 2285 : 		if(next_command==MUSIC_VOL){		//????

  00c54	83 7d f8 fb	 cmp	 DWORD PTR _next_command$[ebp], -5 ; fffffffbH
  00c58	75 4a		 jne	 SHORT $LN64@gate

; 2286 : 			dataVolume[ch]=step[ch][step_point[ch]++];

  00c5a	a1 00 00 00 00	 mov	 eax, DWORD PTR ?ch@@3HA
  00c5f	c1 e0 10	 shl	 eax, 16			; 00000010H
  00c62	8b 0d 00 00 00
	00		 mov	 ecx, DWORD PTR ?ch@@3HA
  00c68	8b 14 8d 00 00
	00 00		 mov	 edx, DWORD PTR ?step_point@@3PAHA[ecx*4]
  00c6f	8b 0d 00 00 00
	00		 mov	 ecx, DWORD PTR ?ch@@3HA
  00c75	8b 94 90 00 00
	00 00		 mov	 edx, DWORD PTR ?step@@3PAY0EAAA@HA[eax+edx*4]
  00c7c	89 14 8d 00 00
	00 00		 mov	 DWORD PTR ?dataVolume@@3PAHA[ecx*4], edx
  00c83	a1 00 00 00 00	 mov	 eax, DWORD PTR ?ch@@3HA
  00c88	8b 0c 85 00 00
	00 00		 mov	 ecx, DWORD PTR ?step_point@@3PAHA[eax*4]
  00c8f	83 c1 01	 add	 ecx, 1
  00c92	8b 15 00 00 00
	00		 mov	 edx, DWORD PTR ?ch@@3HA
  00c98	89 0c 95 00 00
	00 00		 mov	 DWORD PTR ?step_point@@3PAHA[edx*4], ecx

; 2287 : //			pDSData[play_use_task[ch]]->SetVolume(dataVolume[ch]);
; 2288 : 			goto gate_100;

  00c9f	e9 fc f4 ff ff	 jmp	 $gate_100$84
$LN64@gate:

; 2289 : 		}
; 2290 : 		if(next_command==MUSIC_DETUNE){		//??????

  00ca4	83 7d f8 f1	 cmp	 DWORD PTR _next_command$[ebp], -15 ; fffffff1H
  00ca8	75 4a		 jne	 SHORT $LN65@gate

; 2291 : 			play_detune[ch] = step[ch][step_point[ch]++];

  00caa	a1 00 00 00 00	 mov	 eax, DWORD PTR ?ch@@3HA
  00caf	c1 e0 10	 shl	 eax, 16			; 00000010H
  00cb2	8b 0d 00 00 00
	00		 mov	 ecx, DWORD PTR ?ch@@3HA
  00cb8	8b 14 8d 00 00
	00 00		 mov	 edx, DWORD PTR ?step_point@@3PAHA[ecx*4]
  00cbf	8b 0d 00 00 00
	00		 mov	 ecx, DWORD PTR ?ch@@3HA
  00cc5	8b 94 90 00 00
	00 00		 mov	 edx, DWORD PTR ?step@@3PAY0EAAA@HA[eax+edx*4]
  00ccc	89 14 8d 00 00
	00 00		 mov	 DWORD PTR ?play_detune@@3PAHA[ecx*4], edx
  00cd3	a1 00 00 00 00	 mov	 eax, DWORD PTR ?ch@@3HA
  00cd8	8b 0c 85 00 00
	00 00		 mov	 ecx, DWORD PTR ?step_point@@3PAHA[eax*4]
  00cdf	83 c1 01	 add	 ecx, 1
  00ce2	8b 15 00 00 00
	00		 mov	 edx, DWORD PTR ?ch@@3HA
  00ce8	89 0c 95 00 00
	00 00		 mov	 DWORD PTR ?step_point@@3PAHA[edx*4], ecx

; 2292 : 			goto gate_100;

  00cef	e9 ac f4 ff ff	 jmp	 $gate_100$84
$LN65@gate:

; 2293 : 		}
; 2294 : 		if(next_command==MUSIC_FREQ){		//??

  00cf4	83 7d f8 fc	 cmp	 DWORD PTR _next_command$[ebp], -4 ; fffffffcH
  00cf8	75 4a		 jne	 SHORT $LN66@gate

; 2295 : 			dataFrequency[ch]=step[ch][step_point[ch]++];

  00cfa	a1 00 00 00 00	 mov	 eax, DWORD PTR ?ch@@3HA
  00cff	c1 e0 10	 shl	 eax, 16			; 00000010H
  00d02	8b 0d 00 00 00
	00		 mov	 ecx, DWORD PTR ?ch@@3HA
  00d08	8b 14 8d 00 00
	00 00		 mov	 edx, DWORD PTR ?step_point@@3PAHA[ecx*4]
  00d0f	8b 0d 00 00 00
	00		 mov	 ecx, DWORD PTR ?ch@@3HA
  00d15	8b 94 90 00 00
	00 00		 mov	 edx, DWORD PTR ?step@@3PAY0EAAA@HA[eax+edx*4]
  00d1c	89 14 8d 00 00
	00 00		 mov	 DWORD PTR ?dataFrequency@@3PAJA[ecx*4], edx
  00d23	a1 00 00 00 00	 mov	 eax, DWORD PTR ?ch@@3HA
  00d28	8b 0c 85 00 00
	00 00		 mov	 ecx, DWORD PTR ?step_point@@3PAHA[eax*4]
  00d2f	83 c1 01	 add	 ecx, 1
  00d32	8b 15 00 00 00
	00		 mov	 edx, DWORD PTR ?ch@@3HA
  00d38	89 0c 95 00 00
	00 00		 mov	 DWORD PTR ?step_point@@3PAHA[edx*4], ecx

; 2296 : //			pDSData[play_use_task[ch]]->SetFrequency((DWORD)dataFrequency[ch]);
; 2297 : 			goto gate_100;

  00d3f	e9 5c f4 ff ff	 jmp	 $gate_100$84
$LN66@gate:

; 2298 : 		}
; 2299 : 		if(next_command==MUSIC_PAN){		//??????

  00d44	83 7d f8 fa	 cmp	 DWORD PTR _next_command$[ebp], -6 ; fffffffaH
  00d48	75 4a		 jne	 SHORT $LN67@gate

; 2300 : 			dataPan[ch]=step[ch][step_point[ch]++];

  00d4a	a1 00 00 00 00	 mov	 eax, DWORD PTR ?ch@@3HA
  00d4f	c1 e0 10	 shl	 eax, 16			; 00000010H
  00d52	8b 0d 00 00 00
	00		 mov	 ecx, DWORD PTR ?ch@@3HA
  00d58	8b 14 8d 00 00
	00 00		 mov	 edx, DWORD PTR ?step_point@@3PAHA[ecx*4]
  00d5f	8b 0d 00 00 00
	00		 mov	 ecx, DWORD PTR ?ch@@3HA
  00d65	8b 94 90 00 00
	00 00		 mov	 edx, DWORD PTR ?step@@3PAY0EAAA@HA[eax+edx*4]
  00d6c	89 14 8d 00 00
	00 00		 mov	 DWORD PTR ?dataPan@@3PAHA[ecx*4], edx
  00d73	a1 00 00 00 00	 mov	 eax, DWORD PTR ?ch@@3HA
  00d78	8b 0c 85 00 00
	00 00		 mov	 ecx, DWORD PTR ?step_point@@3PAHA[eax*4]
  00d7f	83 c1 01	 add	 ecx, 1
  00d82	8b 15 00 00 00
	00		 mov	 edx, DWORD PTR ?ch@@3HA
  00d88	89 0c 95 00 00
	00 00		 mov	 DWORD PTR ?step_point@@3PAHA[edx*4], ecx

; 2301 : //			pDSData[play_use_task[ch]]->SetPan(dataPan[ch]);
; 2302 : 			goto gate_100;

  00d8f	e9 0c f4 ff ff	 jmp	 $gate_100$84
$LN67@gate:

; 2303 : 		}
; 2304 : 		if(next_command==MUSIC_END){		//??

  00d94	83 7d f8 ff	 cmp	 DWORD PTR _next_command$[ebp], -1
  00d98	75 10		 jne	 SHORT $LN1@gate

; 2305 : 			play_flg[ ch ] = 0;

  00d9a	a1 00 00 00 00	 mov	 eax, DWORD PTR ?ch@@3HA
  00d9f	c7 04 85 00 00
	00 00 00 00 00
	00		 mov	 DWORD PTR ?play_flg@@3PAHA[eax*4], 0
$LN1@gate:

; 2306 : 			return;
; 2307 : 		}
; 2308 : 	}
; 2309 : }

  00daa	5f		 pop	 edi
  00dab	5e		 pop	 esi
  00dac	5b		 pop	 ebx
  00dad	81 c4 44 01 00
	00		 add	 esp, 324		; 00000144H
  00db3	3b ec		 cmp	 ebp, esp
  00db5	e8 00 00 00 00	 call	 __RTC_CheckEsp
  00dba	8b e5		 mov	 esp, ebp
  00dbc	5d		 pop	 ebp
  00dbd	c3		 ret	 0
?gate@@YAXXZ ENDP					; gate
_TEXT	ENDS
; Function compile flags: /Odtp /RTCsu /ZI
; File c:\users\administrator\desktop\????? ??\????? ??\client source code\system\t_music.cpp
;	COMDAT ?stop_voice@@YAXXZ
_TEXT	SEGMENT
_cnt$1 = -8						; size = 4
?stop_voice@@YAXXZ PROC					; stop_voice, COMDAT

; 2092 : {

  00000	55		 push	 ebp
  00001	8b ec		 mov	 ebp, esp
  00003	81 ec cc 00 00
	00		 sub	 esp, 204		; 000000ccH
  00009	53		 push	 ebx
  0000a	56		 push	 esi
  0000b	57		 push	 edi
  0000c	8d bd 34 ff ff
	ff		 lea	 edi, DWORD PTR [ebp-204]
  00012	b9 33 00 00 00	 mov	 ecx, 51			; 00000033H
  00017	b8 cc cc cc cc	 mov	 eax, -858993460		; ccccccccH
  0001c	f3 ab		 rep stosd

; 2093 : 	for(int cnt=0;cnt<play_use_task_cnt[ch];cnt++){

  0001e	c7 45 f8 00 00
	00 00		 mov	 DWORD PTR _cnt$1[ebp], 0
  00025	eb 09		 jmp	 SHORT $LN4@stop_voice
$LN2@stop_voice:
  00027	8b 45 f8	 mov	 eax, DWORD PTR _cnt$1[ebp]
  0002a	83 c0 01	 add	 eax, 1
  0002d	89 45 f8	 mov	 DWORD PTR _cnt$1[ebp], eax
$LN4@stop_voice:
  00030	a1 00 00 00 00	 mov	 eax, DWORD PTR ?ch@@3HA
  00035	8b 4d f8	 mov	 ecx, DWORD PTR _cnt$1[ebp]
  00038	3b 0c 85 00 00
	00 00		 cmp	 ecx, DWORD PTR ?play_use_task_cnt@@3PAHA[eax*4]
  0003f	7d 4a		 jge	 SHORT $LN1@stop_voice

; 2094 : 		if(play_use_task[ch][cnt]!=-1){					//??????

  00041	a1 00 00 00 00	 mov	 eax, DWORD PTR ?ch@@3HA
  00046	c1 e0 05	 shl	 eax, 5
  00049	8b 4d f8	 mov	 ecx, DWORD PTR _cnt$1[ebp]
  0004c	83 bc 88 00 00
	00 00 ff	 cmp	 DWORD PTR ?play_use_task@@3PAY07HA[eax+ecx*4], -1
  00054	74 33		 je	 SHORT $LN5@stop_voice

; 2095 : #if VOICE_KILL_ON
; 2096 : 			voice_kill_buf[voice_kill_point++]=play_use_task[ch][cnt];
; 2097 : #else
; 2098 : 			voice[ play_use_task[ch][cnt] ].name = VOICE_KEY_OFF_FAST;		//????L?????

  00056	a1 00 00 00 00	 mov	 eax, DWORD PTR ?ch@@3HA
  0005b	c1 e0 05	 shl	 eax, 5
  0005e	8b 4d f8	 mov	 ecx, DWORD PTR _cnt$1[ebp]
  00061	6b 94 88 00 00
	00 00 3c	 imul	 edx, DWORD PTR ?play_use_task@@3PAY07HA[eax+ecx*4], 60
  00069	c7 82 00 00 00
	00 6e 00 00 00	 mov	 DWORD PTR ?voice@@3PAUVOICE_EQU@@A[edx], 110 ; 0000006eH

; 2099 : #endif
; 2100 : 			play_use_task[ch][cnt]=-1;					//???t?

  00073	a1 00 00 00 00	 mov	 eax, DWORD PTR ?ch@@3HA
  00078	c1 e0 05	 shl	 eax, 5
  0007b	8b 4d f8	 mov	 ecx, DWORD PTR _cnt$1[ebp]
  0007e	c7 84 88 00 00
	00 00 ff ff ff
	ff		 mov	 DWORD PTR ?play_use_task@@3PAY07HA[eax+ecx*4], -1
$LN5@stop_voice:

; 2101 : 		}
; 2102 : 	}

  00089	eb 9c		 jmp	 SHORT $LN2@stop_voice
$LN1@stop_voice:

; 2103 : }

  0008b	5f		 pop	 edi
  0008c	5e		 pop	 esi
  0008d	5b		 pop	 ebx
  0008e	8b e5		 mov	 esp, ebp
  00090	5d		 pop	 ebp
  00091	c3		 ret	 0
?stop_voice@@YAXXZ ENDP					; stop_voice
_TEXT	ENDS
; Function compile flags: /Odtp /RTCsu /ZI
; File c:\users\administrator\desktop\????? ??\????? ??\client source code\system\t_music.cpp
;	COMDAT ?set_tone@@YAHHJHH@Z
_TEXT	SEGMENT
_d1$ = -20						; size = 4
_d7$ = -8						; size = 4
_tone$ = 8						; size = 4
_note$ = 12						; size = 4
_use_task_cnt$ = 16					; size = 4
_delay$ = 20						; size = 4
?set_tone@@YAHHJHH@Z PROC				; set_tone, COMDAT

; 2044 : {

  00000	55		 push	 ebp
  00001	8b ec		 mov	 ebp, esp
  00003	81 ec d8 00 00
	00		 sub	 esp, 216		; 000000d8H
  00009	53		 push	 ebx
  0000a	56		 push	 esi
  0000b	57		 push	 edi
  0000c	8d bd 28 ff ff
	ff		 lea	 edi, DWORD PTR [ebp-216]
  00012	b9 36 00 00 00	 mov	 ecx, 54			; 00000036H
  00017	b8 cc cc cc cc	 mov	 eax, -858993460		; ccccccccH
  0001c	f3 ab		 rep stosd

; 2045 : 	int d7,d1=0;

  0001e	c7 45 ec 00 00
	00 00		 mov	 DWORD PTR _d1$[ebp], 0

; 2046 : 
; 2047 : 	for(d7=0;d7<VOICE_MAX;d7++){		//???????S?

  00025	c7 45 f8 00 00
	00 00		 mov	 DWORD PTR _d7$[ebp], 0
  0002c	eb 09		 jmp	 SHORT $LN4@set_tone
$LN2@set_tone:
  0002e	8b 45 f8	 mov	 eax, DWORD PTR _d7$[ebp]
  00031	83 c0 01	 add	 eax, 1
  00034	89 45 f8	 mov	 DWORD PTR _d7$[ebp], eax
$LN4@set_tone:
  00037	83 7d f8 40	 cmp	 DWORD PTR _d7$[ebp], 64	; 00000040H
  0003b	7d 35		 jge	 SHORT $LN3@set_tone

; 2048 : //		if( voice[ d7 ].name == 0){		//???
; 2049 : 		if( voice[ voice_seek_point ].name == 0){		//???

  0003d	6b 05 00 00 00
	00 3c		 imul	 eax, DWORD PTR ?voice_seek_point@@3HA, 60
  00044	83 b8 00 00 00
	00 00		 cmp	 DWORD PTR ?voice@@3PAUVOICE_EQU@@A[eax], 0
  0004b	75 09		 jne	 SHORT $LN5@set_tone

; 2050 : 			d1=1;										//??????

  0004d	c7 45 ec 01 00
	00 00		 mov	 DWORD PTR _d1$[ebp], 1

; 2051 : 			break;

  00054	eb 1c		 jmp	 SHORT $LN3@set_tone
$LN5@set_tone:

; 2052 : 		}
; 2053 : 		voice_seek_point++;

  00056	a1 00 00 00 00	 mov	 eax, DWORD PTR ?voice_seek_point@@3HA
  0005b	83 c0 01	 add	 eax, 1
  0005e	a3 00 00 00 00	 mov	 DWORD PTR ?voice_seek_point@@3HA, eax

; 2054 : 		voice_seek_point&=VOICE_MAX-1;

  00063	a1 00 00 00 00	 mov	 eax, DWORD PTR ?voice_seek_point@@3HA
  00068	83 e0 3f	 and	 eax, 63			; 0000003fH
  0006b	a3 00 00 00 00	 mov	 DWORD PTR ?voice_seek_point@@3HA, eax

; 2055 : 	}

  00070	eb bc		 jmp	 SHORT $LN2@set_tone
$LN3@set_tone:

; 2056 : 	if(!d1){		//????????

  00072	83 7d ec 00	 cmp	 DWORD PTR _d1$[ebp], 0
  00076	75 1e		 jne	 SHORT $LN6@set_tone

; 2057 : #ifdef  _STONDEBUG_
; 2058 : 		MessageBox(hWnd, "????", "Error", MB_OK);		//????I??
; 2059 : #endif
; 2060 : 		play_use_task[ch][use_task_cnt]=-1;		//??????

  00078	a1 00 00 00 00	 mov	 eax, DWORD PTR ?ch@@3HA
  0007d	c1 e0 05	 shl	 eax, 5
  00080	8b 4d 10	 mov	 ecx, DWORD PTR _use_task_cnt$[ebp]
  00083	c7 84 88 00 00
	00 00 ff ff ff
	ff		 mov	 DWORD PTR ?play_use_task@@3PAY07HA[eax+ecx*4], -1

; 2061 : 		return -1;

  0008e	83 c8 ff	 or	 eax, -1
  00091	e9 fa 00 00 00	 jmp	 $LN1@set_tone
$LN6@set_tone:

; 2062 : 	}
; 2063 : 	d7 = voice_seek_point;

  00096	a1 00 00 00 00	 mov	 eax, DWORD PTR ?voice_seek_point@@3HA
  0009b	89 45 f8	 mov	 DWORD PTR _d7$[ebp], eax

; 2064 : 
; 2065 : 	play_use_task[ch][use_task_cnt]=d7;		//????k?颌V

  0009e	a1 00 00 00 00	 mov	 eax, DWORD PTR ?ch@@3HA
  000a3	c1 e0 05	 shl	 eax, 5
  000a6	8b 4d 10	 mov	 ecx, DWORD PTR _use_task_cnt$[ebp]
  000a9	8b 55 f8	 mov	 edx, DWORD PTR _d7$[ebp]
  000ac	89 94 88 00 00
	00 00		 mov	 DWORD PTR ?play_use_task@@3PAY07HA[eax+ecx*4], edx

; 2066 : 
; 2067 : 	voice[ d7 ].name = VOICE_KEY_ON;			//G????

  000b3	6b 45 f8 3c	 imul	 eax, DWORD PTR _d7$[ebp], 60
  000b7	c7 80 00 00 00
	00 01 00 00 00	 mov	 DWORD PTR ?voice@@3PAUVOICE_EQU@@A[eax], 1

; 2068 : 
; 2069 : 	if(voice[ d7 ].tone_no == tone)		//i??瑙k??

  000c1	6b 45 f8 3c	 imul	 eax, DWORD PTR _d7$[ebp], 60
  000c5	8b 88 04 00 00
	00		 mov	 ecx, DWORD PTR ?voice@@3PAUVOICE_EQU@@A[eax+4]
  000cb	3b 4d 08	 cmp	 ecx, DWORD PTR _tone$[ebp]
  000ce	75 0a		 jne	 SHORT $LN7@set_tone

; 2070 : 		goto set_tone_500;				//??????

  000d0	e9 a3 00 00 00	 jmp	 $set_tone_500$12
  000d5	e9 9e 00 00 00	 jmp	 $set_tone_500$12
$LN7@set_tone:

; 2071 : 
; 2072 : 	voice[ d7 ].tone_no = tone;		//?瑙k?颌V

  000da	6b 45 f8 3c	 imul	 eax, DWORD PTR _d7$[ebp], 60
  000de	8b 4d 08	 mov	 ecx, DWORD PTR _tone$[ebp]
  000e1	89 88 04 00 00
	00		 mov	 DWORD PTR ?voice@@3PAUVOICE_EQU@@A[eax+4], ecx

; 2073 : 
; 2074 : 	RELEASE(pDSData[d7]);

  000e7	8b 45 f8	 mov	 eax, DWORD PTR _d7$[ebp]
  000ea	83 3c 85 00 00
	00 00 00	 cmp	 DWORD PTR ?pDSData@@3PAPAUIDirectSoundBuffer@@A[eax*4], 0
  000f2	74 33		 je	 SHORT $LN9@set_tone
  000f4	8b 45 f8	 mov	 eax, DWORD PTR _d7$[ebp]
  000f7	8b 0c 85 00 00
	00 00		 mov	 ecx, DWORD PTR ?pDSData@@3PAPAUIDirectSoundBuffer@@A[eax*4]
  000fe	8b 55 f8	 mov	 edx, DWORD PTR _d7$[ebp]
  00101	8b 04 95 00 00
	00 00		 mov	 eax, DWORD PTR ?pDSData@@3PAPAUIDirectSoundBuffer@@A[edx*4]
  00108	8b 09		 mov	 ecx, DWORD PTR [ecx]
  0010a	8b f4		 mov	 esi, esp
  0010c	50		 push	 eax
  0010d	8b 51 08	 mov	 edx, DWORD PTR [ecx+8]
  00110	ff d2		 call	 edx
  00112	3b f4		 cmp	 esi, esp
  00114	e8 00 00 00 00	 call	 __RTC_CheckEsp
  00119	8b 45 f8	 mov	 eax, DWORD PTR _d7$[ebp]
  0011c	c7 04 85 00 00
	00 00 00 00 00
	00		 mov	 DWORD PTR ?pDSData@@3PAPAUIDirectSoundBuffer@@A[eax*4], 0
$LN9@set_tone:

; 2075 : 
; 2076 : 	if( pDSound->DuplicateSoundBuffer(pDSData_tone[tone],&pDSData[d7]) != DS_OK ){		//????

  00127	8b 45 f8	 mov	 eax, DWORD PTR _d7$[ebp]
  0012a	8d 0c 85 00 00
	00 00		 lea	 ecx, DWORD PTR ?pDSData@@3PAPAUIDirectSoundBuffer@@A[eax*4]
  00131	8b f4		 mov	 esi, esp
  00133	51		 push	 ecx
  00134	8b 55 08	 mov	 edx, DWORD PTR _tone$[ebp]
  00137	8b 04 95 00 00
	00 00		 mov	 eax, DWORD PTR ?pDSData_tone@@3PAPAUIDirectSoundBuffer@@A[edx*4]
  0013e	50		 push	 eax
  0013f	8b 0d 00 00 00
	00		 mov	 ecx, DWORD PTR ?pDSound@@3PAUIDirectSound@@A ; pDSound
  00145	8b 11		 mov	 edx, DWORD PTR [ecx]
  00147	a1 00 00 00 00	 mov	 eax, DWORD PTR ?pDSound@@3PAUIDirectSound@@A ; pDSound
  0014c	50		 push	 eax
  0014d	8b 4a 14	 mov	 ecx, DWORD PTR [edx+20]
  00150	ff d1		 call	 ecx
  00152	3b f4		 cmp	 esi, esp
  00154	e8 00 00 00 00	 call	 __RTC_CheckEsp
  00159	85 c0		 test	 eax, eax
  0015b	74 1b		 je	 SHORT $set_tone_500$12

; 2077 : #ifdef  _STONDEBUG_
; 2078 : 		MessageBox(hWnd, "复制声音buffer失败！", "Error", MB_OK);
; 2079 : #endif
; 2080 : 		play_use_task[ch][use_task_cnt]=-1;		//??????

  0015d	a1 00 00 00 00	 mov	 eax, DWORD PTR ?ch@@3HA
  00162	c1 e0 05	 shl	 eax, 5
  00165	8b 4d 10	 mov	 ecx, DWORD PTR _use_task_cnt$[ebp]
  00168	c7 84 88 00 00
	00 00 ff ff ff
	ff		 mov	 DWORD PTR ?play_use_task@@3PAY07HA[eax+ecx*4], -1

; 2081 : 		return -1;

  00173	83 c8 ff	 or	 eax, -1
  00176	eb 18		 jmp	 SHORT $LN1@set_tone
$set_tone_500$12:

; 2082 : 	}
; 2083 : 
; 2084 : set_tone_500:
; 2085 : 	set_voice_param( d7, note, delay, 1 );		//???????????

  00178	6a 01		 push	 1
  0017a	8b 45 14	 mov	 eax, DWORD PTR _delay$[ebp]
  0017d	50		 push	 eax
  0017e	8b 4d 0c	 mov	 ecx, DWORD PTR _note$[ebp]
  00181	51		 push	 ecx
  00182	8b 55 f8	 mov	 edx, DWORD PTR _d7$[ebp]
  00185	52		 push	 edx
  00186	e8 00 00 00 00	 call	 ?set_voice_param@@YAXHJHH@Z ; set_voice_param
  0018b	83 c4 10	 add	 esp, 16			; 00000010H

; 2086 : 
; 2087 : 	return 0;

  0018e	33 c0		 xor	 eax, eax
$LN1@set_tone:

; 2088 : }

  00190	5f		 pop	 edi
  00191	5e		 pop	 esi
  00192	5b		 pop	 ebx
  00193	81 c4 d8 00 00
	00		 add	 esp, 216		; 000000d8H
  00199	3b ec		 cmp	 ebp, esp
  0019b	e8 00 00 00 00	 call	 __RTC_CheckEsp
  001a0	8b e5		 mov	 esp, ebp
  001a2	5d		 pop	 ebp
  001a3	c3		 ret	 0
?set_tone@@YAHHJHH@Z ENDP				; set_tone
_TEXT	ENDS
; Function compile flags: /Odtp /RTCsu /ZI
; File c:\users\administrator\desktop\????? ??\????? ??\client source code\system\t_music.cpp
;	COMDAT ?set_voice_param@@YAXHJHH@Z
_TEXT	SEGMENT
_task_no$ = 8						; size = 4
_note$ = 12						; size = 4
_delay$ = 16						; size = 4
_lfo_flg$ = 20						; size = 4
?set_voice_param@@YAXHJHH@Z PROC			; set_voice_param, COMDAT

; 2006 : {

  00000	55		 push	 ebp
  00001	8b ec		 mov	 ebp, esp
  00003	81 ec c0 00 00
	00		 sub	 esp, 192		; 000000c0H
  00009	53		 push	 ebx
  0000a	56		 push	 esi
  0000b	57		 push	 edi
  0000c	8d bd 40 ff ff
	ff		 lea	 edi, DWORD PTR [ebp-192]
  00012	b9 30 00 00 00	 mov	 ecx, 48			; 00000030H
  00017	b8 cc cc cc cc	 mov	 eax, -858993460		; ccccccccH
  0001c	f3 ab		 rep stosd

; 2007 : 	voice[ task_no ].volume = dataVolume[ch];			// ????????

  0001e	6b 45 08 3c	 imul	 eax, DWORD PTR _task_no$[ebp], 60
  00022	8b 0d 00 00 00
	00		 mov	 ecx, DWORD PTR ?ch@@3HA
  00028	8b 14 8d 00 00
	00 00		 mov	 edx, DWORD PTR ?dataVolume@@3PAHA[ecx*4]
  0002f	89 90 08 00 00
	00		 mov	 DWORD PTR ?voice@@3PAUVOICE_EQU@@A[eax+8], edx

; 2008 : //	voice[ task_no ].freq = freq + dataFrequency[ch];	// ????
; 2009 : 	// ????
; 2010 : 	if(play_detune[ch]>0){		//???????????

  00035	a1 00 00 00 00	 mov	 eax, DWORD PTR ?ch@@3HA
  0003a	83 3c 85 00 00
	00 00 00	 cmp	 DWORD PTR ?play_detune@@3PAHA[eax*4], 0
  00042	7e 46		 jle	 SHORT $LN2@set_voice_

; 2011 : 		voice[ task_no ].freq = freq_tbl[ note ] + detune_tbl[ note ]*play_detune[ch]/64 + dataFrequency[ch];

  00044	8b 45 0c	 mov	 eax, DWORD PTR _note$[ebp]
  00047	8b 0d 00 00 00
	00		 mov	 ecx, DWORD PTR ?ch@@3HA
  0004d	8b 04 85 00 00
	00 00		 mov	 eax, DWORD PTR ?detune_tbl@@3PAHA[eax*4]
  00054	0f af 04 8d 00
	00 00 00	 imul	 eax, DWORD PTR ?play_detune@@3PAHA[ecx*4]
  0005c	99		 cdq
  0005d	83 e2 3f	 and	 edx, 63			; 0000003fH
  00060	03 c2		 add	 eax, edx
  00062	c1 f8 06	 sar	 eax, 6
  00065	8b 55 0c	 mov	 edx, DWORD PTR _note$[ebp]
  00068	8b 0c 95 00 00
	00 00		 mov	 ecx, DWORD PTR ?freq_tbl@@3PAHA[edx*4]
  0006f	03 c8		 add	 ecx, eax
  00071	8b 15 00 00 00
	00		 mov	 edx, DWORD PTR ?ch@@3HA
  00077	03 0c 95 00 00
	00 00		 add	 ecx, DWORD PTR ?dataFrequency@@3PAJA[edx*4]
  0007e	6b 45 08 3c	 imul	 eax, DWORD PTR _task_no$[ebp], 60
  00082	89 88 38 00 00
	00		 mov	 DWORD PTR ?voice@@3PAUVOICE_EQU@@A[eax+56], ecx
  00088	eb 76		 jmp	 SHORT $LN3@set_voice_
$LN2@set_voice_:

; 2012 : 	} else if(play_detune[ch]<0){		//????????????

  0008a	a1 00 00 00 00	 mov	 eax, DWORD PTR ?ch@@3HA
  0008f	83 3c 85 00 00
	00 00 00	 cmp	 DWORD PTR ?play_detune@@3PAHA[eax*4], 0
  00097	7d 46		 jge	 SHORT $LN4@set_voice_

; 2013 : 		voice[ task_no ].freq = freq_tbl[ note ] + detune_tbl[ note-1 ]*play_detune[ch]/64 + dataFrequency[ch];

  00099	8b 45 0c	 mov	 eax, DWORD PTR _note$[ebp]
  0009c	8b 0d 00 00 00
	00		 mov	 ecx, DWORD PTR ?ch@@3HA
  000a2	8b 04 85 fc ff
	ff ff		 mov	 eax, DWORD PTR ?detune_tbl@@3PAHA[eax*4-4]
  000a9	0f af 04 8d 00
	00 00 00	 imul	 eax, DWORD PTR ?play_detune@@3PAHA[ecx*4]
  000b1	99		 cdq
  000b2	83 e2 3f	 and	 edx, 63			; 0000003fH
  000b5	03 c2		 add	 eax, edx
  000b7	c1 f8 06	 sar	 eax, 6
  000ba	8b 55 0c	 mov	 edx, DWORD PTR _note$[ebp]
  000bd	8b 0c 95 00 00
	00 00		 mov	 ecx, DWORD PTR ?freq_tbl@@3PAHA[edx*4]
  000c4	03 c8		 add	 ecx, eax
  000c6	8b 15 00 00 00
	00		 mov	 edx, DWORD PTR ?ch@@3HA
  000cc	03 0c 95 00 00
	00 00		 add	 ecx, DWORD PTR ?dataFrequency@@3PAJA[edx*4]
  000d3	6b 45 08 3c	 imul	 eax, DWORD PTR _task_no$[ebp], 60
  000d7	89 88 38 00 00
	00		 mov	 DWORD PTR ?voice@@3PAUVOICE_EQU@@A[eax+56], ecx

; 2014 : 	} else {					//?????e?????

  000dd	eb 21		 jmp	 SHORT $LN3@set_voice_
$LN4@set_voice_:

; 2015 : 		voice[ task_no ].freq = freq_tbl[ note ] + dataFrequency[ch];

  000df	8b 45 0c	 mov	 eax, DWORD PTR _note$[ebp]
  000e2	8b 0c 85 00 00
	00 00		 mov	 ecx, DWORD PTR ?freq_tbl@@3PAHA[eax*4]
  000e9	8b 15 00 00 00
	00		 mov	 edx, DWORD PTR ?ch@@3HA
  000ef	03 0c 95 00 00
	00 00		 add	 ecx, DWORD PTR ?dataFrequency@@3PAJA[edx*4]
  000f6	6b 45 08 3c	 imul	 eax, DWORD PTR _task_no$[ebp], 60
  000fa	89 88 38 00 00
	00		 mov	 DWORD PTR ?voice@@3PAUVOICE_EQU@@A[eax+56], ecx
$LN3@set_voice_:

; 2016 : 	}
; 2017 : 	voice[ task_no ].note_no = note;				// ???k????

  00100	6b 45 08 3c	 imul	 eax, DWORD PTR _task_no$[ebp], 60
  00104	8b 4d 0c	 mov	 ecx, DWORD PTR _note$[ebp]
  00107	89 88 0c 00 00
	00		 mov	 DWORD PTR ?voice@@3PAUVOICE_EQU@@A[eax+12], ecx

; 2018 : 	voice[ task_no ].pan = dataPan[ch];				// ????????

  0010d	6b 45 08 3c	 imul	 eax, DWORD PTR _task_no$[ebp], 60
  00111	8b 0d 00 00 00
	00		 mov	 ecx, DWORD PTR ?ch@@3HA
  00117	8b 14 8d 00 00
	00 00		 mov	 edx, DWORD PTR ?dataPan@@3PAHA[ecx*4]
  0011e	89 90 2c 00 00
	00		 mov	 DWORD PTR ?voice@@3PAUVOICE_EQU@@A[eax+44], edx

; 2019 : 	voice[ task_no ].release_spd = wave[ch];		// ?????????

  00124	6b 45 08 3c	 imul	 eax, DWORD PTR _task_no$[ebp], 60
  00128	8b 0d 00 00 00
	00		 mov	 ecx, DWORD PTR ?ch@@3HA
  0012e	8b 14 8d 00 00
	00 00		 mov	 edx, DWORD PTR ?wave@@3PAHA[ecx*4]
  00135	89 90 14 00 00
	00		 mov	 DWORD PTR ?voice@@3PAUVOICE_EQU@@A[eax+20], edx

; 2020 : 	voice[ task_no ].release_cnt = 0;				//

  0013b	6b 45 08 3c	 imul	 eax, DWORD PTR _task_no$[ebp], 60
  0013f	c7 80 10 00 00
	00 00 00 00 00	 mov	 DWORD PTR ?voice@@3PAUVOICE_EQU@@A[eax+16], 0

; 2021 : 	if(voice[ task_no ].tone_no == 12-1){				//??????

  00149	6b 45 08 3c	 imul	 eax, DWORD PTR _task_no$[ebp], 60
  0014d	83 b8 04 00 00
	00 0b		 cmp	 DWORD PTR ?voice@@3PAUVOICE_EQU@@A[eax+4], 11 ; 0000000bH
  00154	75 10		 jne	 SHORT $LN6@set_voice_

; 2022 : 		voice[ task_no ].loop_flg = DSBPLAY_LOOPING;	//

  00156	6b 45 08 3c	 imul	 eax, DWORD PTR _task_no$[ebp], 60
  0015a	c7 80 30 00 00
	00 01 00 00 00	 mov	 DWORD PTR ?voice@@3PAUVOICE_EQU@@A[eax+48], 1

; 2023 : 	} else {

  00164	eb 0e		 jmp	 SHORT $LN7@set_voice_
$LN6@set_voice_:

; 2024 : 		voice[ task_no ].loop_flg = 0;					//

  00166	6b 45 08 3c	 imul	 eax, DWORD PTR _task_no$[ebp], 60
  0016a	c7 80 30 00 00
	00 00 00 00 00	 mov	 DWORD PTR ?voice@@3PAUVOICE_EQU@@A[eax+48], 0
$LN7@set_voice_:

; 2025 : 	}
; 2026 : 	if(delay >= 0){								//?????????????

  00174	83 7d 10 00	 cmp	 DWORD PTR _delay$[ebp], 0
  00178	7c 0d		 jl	 SHORT $LN8@set_voice_

; 2027 : 		voice[ task_no ].delay_cnt = delay;		//

  0017a	6b 45 08 3c	 imul	 eax, DWORD PTR _task_no$[ebp], 60
  0017e	8b 4d 10	 mov	 ecx, DWORD PTR _delay$[ebp]
  00181	89 88 34 00 00
	00		 mov	 DWORD PTR ?voice@@3PAUVOICE_EQU@@A[eax+52], ecx
$LN8@set_voice_:

; 2028 : 	}
; 2029 : 	if(lfo_flg){		//??????????

  00187	83 7d 14 00	 cmp	 DWORD PTR _lfo_flg$[ebp], 0
  0018b	74 7e		 je	 SHORT $LN1@set_voice_

; 2030 : 		voice[ task_no ].lfo_h = play_lfo_h[ ch ];					//??????

  0018d	6b 45 08 3c	 imul	 eax, DWORD PTR _task_no$[ebp], 60
  00191	8b 0d 00 00 00
	00		 mov	 ecx, DWORD PTR ?ch@@3HA
  00197	8b 14 8d 00 00
	00 00		 mov	 edx, DWORD PTR ?play_lfo_h@@3PAHA[ecx*4]
  0019e	89 90 18 00 00
	00		 mov	 DWORD PTR ?voice@@3PAUVOICE_EQU@@A[eax+24], edx

; 2031 : 		voice[ task_no ].lfo_m = play_lfo_m[ ch ];					//

  001a4	6b 45 08 3c	 imul	 eax, DWORD PTR _task_no$[ebp], 60
  001a8	8b 0d 00 00 00
	00		 mov	 ecx, DWORD PTR ?ch@@3HA
  001ae	8b 14 8d 00 00
	00 00		 mov	 edx, DWORD PTR ?play_lfo_m@@3PAHA[ecx*4]
  001b5	89 90 1c 00 00
	00		 mov	 DWORD PTR ?voice@@3PAUVOICE_EQU@@A[eax+28], edx

; 2032 : 		if((voice[ task_no ].lfo_s = play_lfo_s[ ch ]) >= 0){		//

  001bb	6b 45 08 3c	 imul	 eax, DWORD PTR _task_no$[ebp], 60
  001bf	8b 0d 00 00 00
	00		 mov	 ecx, DWORD PTR ?ch@@3HA
  001c5	8b 14 8d 00 00
	00 00		 mov	 edx, DWORD PTR ?play_lfo_s@@3PAHA[ecx*4]
  001cc	89 90 20 00 00
	00		 mov	 DWORD PTR ?voice@@3PAUVOICE_EQU@@A[eax+32], edx
  001d2	6b 45 08 3c	 imul	 eax, DWORD PTR _task_no$[ebp], 60
  001d6	83 b8 20 00 00
	00 00		 cmp	 DWORD PTR ?voice@@3PAUVOICE_EQU@@A[eax+32], 0
  001dd	7c 10		 jl	 SHORT $LN10@set_voice_

; 2033 : 			voice[ task_no ].lfo_s_ang = 1;							//

  001df	6b 45 08 3c	 imul	 eax, DWORD PTR _task_no$[ebp], 60
  001e3	c7 80 28 00 00
	00 01 00 00 00	 mov	 DWORD PTR ?voice@@3PAUVOICE_EQU@@A[eax+40], 1

; 2034 : 		} else {

  001ed	eb 0e		 jmp	 SHORT $LN11@set_voice_
$LN10@set_voice_:

; 2035 : 			voice[ task_no ].lfo_s_ang = -1;						//

  001ef	6b 45 08 3c	 imul	 eax, DWORD PTR _task_no$[ebp], 60
  001f3	c7 80 28 00 00
	00 ff ff ff ff	 mov	 DWORD PTR ?voice@@3PAUVOICE_EQU@@A[eax+40], -1
$LN11@set_voice_:

; 2036 : 		}
; 2037 : 		voice[ task_no ].lfo_s_cnt = 0;								//

  001fd	6b 45 08 3c	 imul	 eax, DWORD PTR _task_no$[ebp], 60
  00201	c7 80 24 00 00
	00 00 00 00 00	 mov	 DWORD PTR ?voice@@3PAUVOICE_EQU@@A[eax+36], 0
$LN1@set_voice_:

; 2038 : 	}
; 2039 : }

  0020b	5f		 pop	 edi
  0020c	5e		 pop	 esi
  0020d	5b		 pop	 ebx
  0020e	8b e5		 mov	 esp, ebp
  00210	5d		 pop	 ebp
  00211	c3		 ret	 0
?set_voice_param@@YAXHJHH@Z ENDP			; set_voice_param
_TEXT	ENDS
; Function compile flags: /Odtp /RTCsu /ZI
; File c:\users\administrator\desktop\????? ??\????? ??\client source code\system\t_music.cpp
;	COMDAT ?voice_action@@YAXH@Z
_TEXT	SEGMENT
tv67 = -208						; size = 4
_Status$ = -8						; size = 4
_a0$ = 8						; size = 4
?voice_action@@YAXH@Z PROC				; voice_action, COMDAT

; 1945 : {

  00000	55		 push	 ebp
  00001	8b ec		 mov	 ebp, esp
  00003	81 ec d0 00 00
	00		 sub	 esp, 208		; 000000d0H
  00009	53		 push	 ebx
  0000a	56		 push	 esi
  0000b	57		 push	 edi
  0000c	8d bd 30 ff ff
	ff		 lea	 edi, DWORD PTR [ebp-208]
  00012	b9 34 00 00 00	 mov	 ecx, 52			; 00000034H
  00017	b8 cc cc cc cc	 mov	 eax, -858993460		; ccccccccH
  0001c	f3 ab		 rep stosd

; 1946 : 	DWORD	Status = 0;

  0001e	c7 45 f8 00 00
	00 00		 mov	 DWORD PTR _Status$[ebp], 0

; 1947 : 
; 1948 : 	switch(voice[ a0 ].name){

  00025	6b 45 08 3c	 imul	 eax, DWORD PTR _a0$[ebp], 60
  00029	8b 88 00 00 00
	00		 mov	 ecx, DWORD PTR ?voice@@3PAUVOICE_EQU@@A[eax]
  0002f	89 8d 30 ff ff
	ff		 mov	 DWORD PTR tv67[ebp], ecx
  00035	8b 95 30 ff ff
	ff		 mov	 edx, DWORD PTR tv67[ebp]
  0003b	83 ea 01	 sub	 edx, 1
  0003e	89 95 30 ff ff
	ff		 mov	 DWORD PTR tv67[ebp], edx
  00044	83 bd 30 ff ff
	ff 6d		 cmp	 DWORD PTR tv67[ebp], 109 ; 0000006dH
  0004b	0f 87 62 03 00
	00		 ja	 $LN1@voice_acti
  00051	8b 85 30 ff ff
	ff		 mov	 eax, DWORD PTR tv67[ebp]
  00057	0f b6 88 00 00
	00 00		 movzx	 ecx, BYTE PTR $LN13@voice_acti[eax]
  0005e	ff 24 8d 00 00
	00 00		 jmp	 DWORD PTR $LN14@voice_acti[ecx*4]
$LN4@voice_acti:

; 1949 : 	case VOICE_KEY_ON:		//G????
; 1950 : 		if(voice[ a0 ].delay_cnt){		//?????????

  00065	6b 45 08 3c	 imul	 eax, DWORD PTR _a0$[ebp], 60
  00069	83 b8 34 00 00
	00 00		 cmp	 DWORD PTR ?voice@@3PAUVOICE_EQU@@A[eax+52], 0
  00070	74 1c		 je	 SHORT $LN5@voice_acti

; 1951 : 			voice[ a0 ].delay_cnt--;

  00072	6b 45 08 3c	 imul	 eax, DWORD PTR _a0$[ebp], 60
  00076	8b 88 34 00 00
	00		 mov	 ecx, DWORD PTR ?voice@@3PAUVOICE_EQU@@A[eax+52]
  0007c	83 e9 01	 sub	 ecx, 1
  0007f	6b 55 08 3c	 imul	 edx, DWORD PTR _a0$[ebp], 60
  00083	89 8a 34 00 00
	00		 mov	 DWORD PTR ?voice@@3PAUVOICE_EQU@@A[edx+52], ecx

; 1952 : 			return;

  00089	e9 25 03 00 00	 jmp	 $LN1@voice_acti
$LN5@voice_acti:

; 1953 : 		}
; 1954 : 		pDSData[ a0 ]->SetVolume(volume_tbl[ voice[ a0 ].volume ]);		// ????????

  0008e	6b 45 08 3c	 imul	 eax, DWORD PTR _a0$[ebp], 60
  00092	8b 88 08 00 00
	00		 mov	 ecx, DWORD PTR ?voice@@3PAUVOICE_EQU@@A[eax+8]
  00098	8b f4		 mov	 esi, esp
  0009a	8b 14 8d 00 00
	00 00		 mov	 edx, DWORD PTR ?volume_tbl@@3PAJA[ecx*4]
  000a1	52		 push	 edx
  000a2	8b 45 08	 mov	 eax, DWORD PTR _a0$[ebp]
  000a5	8b 0c 85 00 00
	00 00		 mov	 ecx, DWORD PTR ?pDSData@@3PAPAUIDirectSoundBuffer@@A[eax*4]
  000ac	8b 55 08	 mov	 edx, DWORD PTR _a0$[ebp]
  000af	8b 04 95 00 00
	00 00		 mov	 eax, DWORD PTR ?pDSData@@3PAPAUIDirectSoundBuffer@@A[edx*4]
  000b6	8b 09		 mov	 ecx, DWORD PTR [ecx]
  000b8	50		 push	 eax
  000b9	8b 51 3c	 mov	 edx, DWORD PTR [ecx+60]
  000bc	ff d2		 call	 edx
  000be	3b f4		 cmp	 esi, esp
  000c0	e8 00 00 00 00	 call	 __RTC_CheckEsp

; 1955 : 		pDSData[ a0 ]->SetFrequency((DWORD)voice[ a0 ].freq);			// ????

  000c5	6b 45 08 3c	 imul	 eax, DWORD PTR _a0$[ebp], 60
  000c9	8b f4		 mov	 esi, esp
  000cb	8b 88 38 00 00
	00		 mov	 ecx, DWORD PTR ?voice@@3PAUVOICE_EQU@@A[eax+56]
  000d1	51		 push	 ecx
  000d2	8b 55 08	 mov	 edx, DWORD PTR _a0$[ebp]
  000d5	8b 04 95 00 00
	00 00		 mov	 eax, DWORD PTR ?pDSData@@3PAPAUIDirectSoundBuffer@@A[edx*4]
  000dc	8b 4d 08	 mov	 ecx, DWORD PTR _a0$[ebp]
  000df	8b 14 8d 00 00
	00 00		 mov	 edx, DWORD PTR ?pDSData@@3PAPAUIDirectSoundBuffer@@A[ecx*4]
  000e6	8b 00		 mov	 eax, DWORD PTR [eax]
  000e8	52		 push	 edx
  000e9	8b 48 44	 mov	 ecx, DWORD PTR [eax+68]
  000ec	ff d1		 call	 ecx
  000ee	3b f4		 cmp	 esi, esp
  000f0	e8 00 00 00 00	 call	 __RTC_CheckEsp

; 1956 : 		pDSData[ a0 ]->SetPan(panpot_tbl[ voice[ a0 ].pan ]);			// ????????

  000f5	6b 45 08 3c	 imul	 eax, DWORD PTR _a0$[ebp], 60
  000f9	8b 88 2c 00 00
	00		 mov	 ecx, DWORD PTR ?voice@@3PAUVOICE_EQU@@A[eax+44]
