; Listing generated by Microsoft (R) Optimizing Compiler Version 19.00.24215.1 

	TITLE	C:\Users\Administrator\Desktop\????? ??\????? ??\Client Source Code\system\t_music.cpp
	.686P
	.XMM
	include listing.inc
	.model	flat

INCLUDELIB MSVCRTD
INCLUDELIB OLDNAMES

PUBLIC	?bgm_tbl@@3PAUT_MUSIC_BGM@@A			; bgm_tbl
PUBLIC	?tone_tbl@@3PAUTONE_EQU@@A			; tone_tbl
PUBLIC	?cdda_no@@3HA					; cdda_no
PUBLIC	?stereo_flg@@3HA				; stereo_flg
PUBLIC	?t_music_se_volume@@3HA				; t_music_se_volume
PUBLIC	?t_music_bgm_volume@@3HA			; t_music_bgm_volume
PUBLIC	?t_music_bgm_no@@3HA				; t_music_bgm_no
PUBLIC	?t_music_se_no@@3HA				; t_music_se_no
PUBLIC	?t_music_bgm_pitch@@3PADA			; t_music_bgm_pitch
PUBLIC	?draw_map_bgm_flg@@3HA				; draw_map_bgm_flg
PUBLIC	?map_bgm_no@@3HA				; map_bgm_no
PUBLIC	?声音开关@@3HA					; 声音开关
PUBLIC	?env_tbl@@3PAUENVIRONMENT_EQU@@A		; env_tbl
PUBLIC	?hEvent@@3PAPAXA				; hEvent
PUBLIC	?hThreadHandle@@3PAXA				; hThreadHandle
PUBLIC	?dwThreadID@@3KA				; dwThreadID
PUBLIC	?sd@@3USoundData@@A				; sd
PUBLIC	??_C@_0BG@BPJPJLMH@data?2bgm?2sabgm_s0?4wav?$AA@ ; `string'
PUBLIC	??_C@_0BG@NEMDEIGC@data?2bgm?2sabgm_s1?4wav?$AA@ ; `string'
PUBLIC	??_C@_0BG@BBGEHGOM@data?2bgm?2sabgm_t1?4wav?$AA@ ; `string'
PUBLIC	??_C@_0BG@NKDIKFEJ@data?2bgm?2sabgm_t0?4wav?$AA@ ; `string'
PUBLIC	??_C@_0BG@NODGAMLN@data?2bgm?2sabgm_b0?4wav?$AA@ ; `string'
PUBLIC	??_C@_0BG@BFGKNPBI@data?2bgm?2sabgm_b1?4wav?$AA@ ; `string'
PUBLIC	??_C@_0BG@LNOGDJIH@data?2bgm?2sabgm_d0?4wav?$AA@ ; `string'
PUBLIC	??_C@_0BG@HGLKOKCC@data?2bgm?2sabgm_d1?4wav?$AA@ ; `string'
PUBLIC	??_C@_0BG@PACOJIIM@data?2bgm?2sabgm_d2?4wav?$AA@ ; `string'
PUBLIC	??_C@_0BG@CKHJCIKO@data?2bgm?2sabgm_f0?4wav?$AA@ ; `string'
PUBLIC	??_C@_0BG@OBCFPLAL@data?2bgm?2sabgm_f1?4wav?$AA@ ; `string'
PUBLIC	??_C@_0BG@FIKCHOBD@data?2bgm?2sabgm_b3?4wav?$AA@ ; `string'
PUBLIC	??_C@_0BG@JDPOKNLG@data?2bgm?2sabgm_b2?4wav?$AA@ ; `string'
PUBLIC	??_C@_0BG@EFKHEOKL@data?2bgm?2sabgm_b4?4wav?$AA@ ; `string'
PUBLIC	??_C@_0BG@GHLBIJKF@data?2bgm?2sabgm_f2?4wav?$AA@ ; `string'
PUBLIC	??_C@_0BG@JHPAAEEC@data?2bgm?2sabgm_t2?4wav?$AA@ ; `string'
PUBLIC	??_C@_0BG@FMKMNHOH@data?2bgm?2sabgm_t3?4wav?$AA@ ; `string'
PUBLIC	??_C@_0BG@EBKJOHFP@data?2bgm?2sabgm_t4?4wav?$AA@ ; `string'
PUBLIC	??_C@_0BG@IKPFDEPK@data?2bgm?2sabgm_t5?4wav?$AA@ ; `string'
PUBLIC	??_C@_0BG@MGBEGFE@data?2bgm?2sabgm_t6?4wav?$AA@	; `string'
PUBLIC	??_C@_0BG@MHDNJFPB@data?2bgm?2sabgm_t7?4wav?$AA@ ; `string'
PUBLIC	??_C@_0BG@DGGLCHCE@data?2bgm?2sabgm_t8?4wav?$AA@ ; `string'
PUBLIC	??_C@_0BG@PNDHPEIB@data?2bgm?2sabgm_t9?4wav?$AA@ ; `string'
PUBLIC	??_C@_0BH@LAAMGHLC@data?2bgm?2sabgm_t10?4wav?$AA@ ; `string'
PUBLIC	??_C@_0BH@HLFALEBH@data?2bgm?2sabgm_t11?4wav?$AA@ ; `string'
PUBLIC	??_C@_0BH@PNMEMGLJ@data?2bgm?2sabgm_t12?4wav?$AA@ ; `string'
PUBLIC	??_C@_08LOOFPHBM@?$DP?d?P?$DP?$DP?c?w?$DP?$AA@	; `string'
PUBLIC	??_C@_0N@INFHKGBA@?$KD?S?$KD?t?$KD?e?$KD?p?$DP?$DP?$DP?$DP?$AA@ ; `string'
PUBLIC	??_C@_09JCKPJEPE@?k?e?$DP?r?$KG?o?R?$DP?$DP?$AA@ ; `string'
PUBLIC	??_C@_08IOICGCMD@?$KD?L?r?$KG?V?$LF?$DP?$DP?$AA@ ; `string'
PUBLIC	??_C@_08CBNMEIFN@?$KD?T?r?$KG?V?$LF?$DP?$DP?$AA@ ; `string'
PUBLIC	??_C@_08GDPJEPCA@?$KD?V?r?$KG?V?$LF?$DP?$DP?$AA@ ; `string'
PUBLIC	??_C@_0L@POFHDIIK@?$KD?$MA?$KD?V?r?$KG?V?$LF?$DP?$DP?$AA@ ; `string'
PUBLIC	??_C@_0L@DIDIDBAN@?$KD?$MA?$KD?P?r?$KG?V?$LF?$DP?$DP?$AA@ ; `string'
PUBLIC	??_C@_0L@ICOMAJKB@?$KD?$MA?$KD?F?r?$KG?V?$LF?$DP?$DP?$AA@ ; `string'
PUBLIC	??_C@_08NJCNHHIM@?$KD?$MA?r?$KG?V?$LF?$DP?$DP?$AA@ ; `string'
PUBLIC	??_C@_0P@BPNGJDFB@?$KD?C?$KD?o?$KD?o?$KD?k?r?$KG?V?$LF?$DP?$DP?$AA@ ; `string'
PUBLIC	??_C@_08ICLMPPGO@?$KD?M?$KD?M?$KD?L?$DP?$DP?$AA@ ; `string'
PUBLIC	??_C@_0L@MAMJAONM@?$KD?$MA?$KD?D?r?$KG?V?$LF?$DP?$DP?$AA@ ; `string'
PUBLIC	??_C@_0L@NLIJCIGI@?q?$LC?w?n?$DP?u?$LB?$DP?$DP?$DP?$AA@ ; `string'
PUBLIC	??_C@_0O@BDPOMKKB@?f?Q?q?$LE?k?e?$DP?r?$KG?o?R?$DP?$DP?$AA@ ; `string'
PUBLIC	?BakBgm@@3HA					; BakBgm
PUBLIC	??_C@_0N@PMDODFEN@?Z?c?$DP?$DP?$NL?$KP?r?$KG?V?$LF?$DP?$DP?$AA@ ; `string'
PUBLIC	??_C@_0M@KADLMLCJ@?Z?c?$DP?$DP?$NL?$KP?$DP?$NM?t?y?j?$AA@ ; `string'
PUBLIC	??_C@_0L@KBDAPCLE@?$DP?k?e?$DP?r?$KG?o?R?$DP?$DP?$AA@ ; `string'
PUBLIC	??_C@_0L@DCPNDIBE@?$KD?$MA?$KD?W?r?$KG?V?$LF?$DP?$DP?$AA@ ; `string'
PUBLIC	??_C@_09DBOICEHL@?$DP?q?$LE?r?$KG?V?$LF?$DP?$DP?$AA@ ; `string'
PUBLIC	??_C@_08GJDMEGDJ@?$KD?Q?r?$KG?V?$LF?$DP?$DP?$AA@ ; `string'
PUBLIC	??_C@_0L@BJOJBMHA@?$KD?$MA?$KD?K?r?$KG?V?$LF?$DP?$DP?$AA@ ; `string'
PUBLIC	??_C@_06HJKPLLII@?$PL?z?k?e?$DP?$DP?$AA@	; `string'
PUBLIC	??_C@_08NGFCA@?$KD?O?r?$KG?V?$LF?$DP?$DP?$AA@	; `string'
PUBLIC	??_C@_0L@JHGGBLJD@?$KD?$MA?$KD?H?r?$KG?V?$LF?$DP?$DP?$AA@ ; `string'
PUBLIC	??_C@_0L@NPIGBFPH@?$KD?$MA?$KD?M?r?$KG?V?$LF?$DP?$DP?$AA@ ; `string'
PUBLIC	??_C@_0L@LGLHDGOO@?$KD?$MA?$KD?S?r?$KG?V?$LF?$DP?$DP?$AA@ ; `string'
PUBLIC	?thread_flg@@3HA				; thread_flg
PUBLIC	?dsound_flg@@3HA				; dsound_flg
PUBLIC	?pDSound@@3PAUIDirectSound@@A			; pDSound
PUBLIC	?pDSPrimary@@3PAUIDirectSoundBuffer@@A		; pDSPrimary
PUBLIC	?primaryVolume@@3JA				; primaryVolume
PUBLIC	?primaryPan@@3JA				; primaryPan
PUBLIC	?primaryFrequency@@3JA				; primaryFrequency
PUBLIC	?pDSData_tone@@3PAPAUIDirectSoundBuffer@@A	; pDSData_tone
PUBLIC	?pDSData_stream@@3PAUIDirectSoundBuffer@@A	; pDSData_stream
PUBLIC	?pDSData@@3PAPAUIDirectSoundBuffer@@A		; pDSData
PUBLIC	?dataPlay@@3PAHA				; dataPlay
PUBLIC	?dataVolume@@3PAHA				; dataVolume
PUBLIC	?dataPan@@3PAHA					; dataPan
PUBLIC	?dataFrequency@@3PAJA				; dataFrequency
PUBLIC	?voice@@3PAUVOICE_EQU@@A			; voice
PUBLIC	?tone_max_buf@@3HA				; tone_max_buf
PUBLIC	?t_music_playing_flg@@3HA			; t_music_playing_flg
PUBLIC	?t_music_fade_flg@@3HA				; t_music_fade_flg
PUBLIC	?t_music_fade_vol@@3HA				; t_music_fade_vol
_BSS	SEGMENT
?tone_tbl@@3PAUTONE_EQU@@A DB 03e80H DUP (?)		; tone_tbl
?t_music_bgm_pitch@@3PADA DB 010H DUP (?)		; t_music_bgm_pitch
?draw_map_bgm_flg@@3HA DD 01H DUP (?)			; draw_map_bgm_flg
?map_bgm_no@@3HA DD 01H DUP (?)				; map_bgm_no
?声音开关@@3HA DD 01H DUP (?)				; 声音开关
?voice_seek_point@@3HA DD 01H DUP (?)			; voice_seek_point
?env_tbl@@3PAUENVIRONMENT_EQU@@A DB 02d0H DUP (?)	; env_tbl
?hEvent@@3PAPAXA DD 03H DUP (?)				; hEvent
?hThreadHandle@@3PAXA DD 01H DUP (?)			; hThreadHandle
?dwThreadID@@3KA DD 01H DUP (?)				; dwThreadID
?sd@@3USoundData@@A DB 01cH DUP (?)			; sd
?wave_count@@3JA DD 01H DUP (?)				; wave_count
?wave_address@@3JA DD 01H DUP (?)			; wave_address
?buffer_address@@3JA DD 01H DUP (?)			; buffer_address
?thread_start_flg@@3HC DD 01H DUP (?)			; thread_start_flg
?exit_thread_flg@@3DC DB 01H DUP (?)			; exit_thread_flg
	ALIGN	4

?thread_stop_flg@@3HA DD 01H DUP (?)			; thread_stop_flg
?pDSNotify@@3PAUIDirectSoundNotify@@A DD 01H DUP (?)	; pDSNotify
?stream_flg@@3DA DB 01H DUP (?)				; stream_flg
	ALIGN	4

?cnt@@3HA DD	01H DUP (?)				; cnt
?cnt2@@3HA DD	01H DUP (?)				; cnt2
?BakBgm@@3HA DD	01H DUP (?)				; BakBgm
?open@@3UtagMCI_OPEN_PARMSA@@A DB 014H DUP (?)		; open
?dwRes@@3KA DD	01H DUP (?)				; dwRes
?mes_flg@@3HA DD 01H DUP (?)				; mes_flg
?thread_flg@@3HA DD 01H DUP (?)				; thread_flg
?dsound_flg@@3HA DD 01H DUP (?)				; dsound_flg
?pDSound@@3PAUIDirectSound@@A DD 01H DUP (?)		; pDSound
?pDSPrimary@@3PAUIDirectSoundBuffer@@A DD 01H DUP (?)	; pDSPrimary
?primaryVolume@@3JA DD 01H DUP (?)			; primaryVolume
?primaryPan@@3JA DD 01H DUP (?)				; primaryPan
?primaryFrequency@@3JA DD 01H DUP (?)			; primaryFrequency
?pDSData_tone@@3PAPAUIDirectSoundBuffer@@A DD 01f5H DUP (?) ; pDSData_tone
?pDSData_stream@@3PAUIDirectSoundBuffer@@A DD 01H DUP (?) ; pDSData_stream
?pDSData@@3PAPAUIDirectSoundBuffer@@A DD 040H DUP (?)	; pDSData
?dataPlay@@3PAHA DD 040H DUP (?)			; dataPlay
?dataVolume@@3PAHA DD 020H DUP (?)			; dataVolume
?dataPan@@3PAHA DD 020H DUP (?)				; dataPan
?dataFrequency@@3PAJA DD 020H DUP (?)			; dataFrequency
?voice@@3PAUVOICE_EQU@@A DB 0f00H DUP (?)		; voice
?tone_max_buf@@3HA DD 01H DUP (?)			; tone_max_buf
?t_music_playing_flg@@3HA DD 01H DUP (?)		; t_music_playing_flg
?t_music_fade_flg@@3HA DD 01H DUP (?)			; t_music_fade_flg
?t_music_fade_vol@@3HA DD 01H DUP (?)			; t_music_fade_vol
?map_bgm_vct_no@@3HA DD 01H DUP (?)			; map_bgm_vct_no
_BSS	ENDS
;	COMDAT ??_C@_0L@LGLHDGOO@?$KD?$MA?$KD?S?r?$KG?V?$LF?$DP?$DP?$AA@
CONST	SEGMENT
??_C@_0L@LGLHDGOO@?$KD?$MA?$KD?S?r?$KG?V?$LF?$DP?$DP?$AA@ DB 0a3H, 0c0H, 0a3H
	DB	0d3H, 0f2H, 0a6H, 0d6H, 0b5H, '??', 00H	; `string'
CONST	ENDS
;	COMDAT ??_C@_0L@NPIGBFPH@?$KD?$MA?$KD?M?r?$KG?V?$LF?$DP?$DP?$AA@
CONST	SEGMENT
??_C@_0L@NPIGBFPH@?$KD?$MA?$KD?M?r?$KG?V?$LF?$DP?$DP?$AA@ DB 0a3H, 0c0H, 0a3H
	DB	0cdH, 0f2H, 0a6H, 0d6H, 0b5H, '??', 00H	; `string'
CONST	ENDS
;	COMDAT ??_C@_0L@JHGGBLJD@?$KD?$MA?$KD?H?r?$KG?V?$LF?$DP?$DP?$AA@
CONST	SEGMENT
??_C@_0L@JHGGBLJD@?$KD?$MA?$KD?H?r?$KG?V?$LF?$DP?$DP?$AA@ DB 0a3H, 0c0H, 0a3H
	DB	0c8H, 0f2H, 0a6H, 0d6H, 0b5H, '??', 00H	; `string'
CONST	ENDS
;	COMDAT ??_C@_08NGFCA@?$KD?O?r?$KG?V?$LF?$DP?$DP?$AA@
CONST	SEGMENT
??_C@_08NGFCA@?$KD?O?r?$KG?V?$LF?$DP?$DP?$AA@ DB 0a3H, 0cfH, 0f2H, 0a6H, 0d6H
	DB	0b5H, '??', 00H				; `string'
CONST	ENDS
;	COMDAT ??_C@_06HJKPLLII@?$PL?z?k?e?$DP?$DP?$AA@
CONST	SEGMENT
??_C@_06HJKPLLII@?$PL?z?k?e?$DP?$DP?$AA@ DB 0fbH, 0faH, 0ebH, 0e5H, '??', 00H ; `string'
CONST	ENDS
;	COMDAT ??_C@_0L@BJOJBMHA@?$KD?$MA?$KD?K?r?$KG?V?$LF?$DP?$DP?$AA@
CONST	SEGMENT
??_C@_0L@BJOJBMHA@?$KD?$MA?$KD?K?r?$KG?V?$LF?$DP?$DP?$AA@ DB 0a3H, 0c0H, 0a3H
	DB	0cbH, 0f2H, 0a6H, 0d6H, 0b5H, '??', 00H	; `string'
CONST	ENDS
;	COMDAT ??_C@_08GJDMEGDJ@?$KD?Q?r?$KG?V?$LF?$DP?$DP?$AA@
CONST	SEGMENT
??_C@_08GJDMEGDJ@?$KD?Q?r?$KG?V?$LF?$DP?$DP?$AA@ DB 0a3H, 0d1H, 0f2H, 0a6H
	DB	0d6H, 0b5H, '??', 00H			; `string'
CONST	ENDS
;	COMDAT ??_C@_09DBOICEHL@?$DP?q?$LE?r?$KG?V?$LF?$DP?$DP?$AA@
CONST	SEGMENT
??_C@_09DBOICEHL@?$DP?q?$LE?r?$KG?V?$LF?$DP?$DP?$AA@ DB '?', 0f1H, 0b4H, 0f2H
	DB	0a6H, 0d6H, 0b5H, '??', 00H			; `string'
CONST	ENDS
;	COMDAT ??_C@_0L@DCPNDIBE@?$KD?$MA?$KD?W?r?$KG?V?$LF?$DP?$DP?$AA@
CONST	SEGMENT
??_C@_0L@DCPNDIBE@?$KD?$MA?$KD?W?r?$KG?V?$LF?$DP?$DP?$AA@ DB 0a3H, 0c0H, 0a3H
	DB	0d7H, 0f2H, 0a6H, 0d6H, 0b5H, '??', 00H	; `string'
CONST	ENDS
;	COMDAT ??_C@_0L@KBDAPCLE@?$DP?k?e?$DP?r?$KG?o?R?$DP?$DP?$AA@
CONST	SEGMENT
??_C@_0L@KBDAPCLE@?$DP?k?e?$DP?r?$KG?o?R?$DP?$DP?$AA@ DB '?', 0ebH, 0e5H, '?'
	DB	0f2H, 0a6H, 0efH, 0d2H, '??', 00H		; `string'
CONST	ENDS
;	COMDAT ??_C@_0M@KADLMLCJ@?Z?c?$DP?$DP?$NL?$KP?$DP?$NM?t?y?j?$AA@
CONST	SEGMENT
??_C@_0M@KADLMLCJ@?Z?c?$DP?$DP?$NL?$KP?$DP?$NM?t?y?j?$AA@ DB 0daH, 0e3H, '?'
	DB	'?', 0dbH, 0afH, '?', 0dcH, 0f4H, 0f9H, 0eaH, 00H ; `string'
CONST	ENDS
;	COMDAT ??_C@_0N@PMDODFEN@?Z?c?$DP?$DP?$NL?$KP?r?$KG?V?$LF?$DP?$DP?$AA@
CONST	SEGMENT
??_C@_0N@PMDODFEN@?Z?c?$DP?$DP?$NL?$KP?r?$KG?V?$LF?$DP?$DP?$AA@ DB 0daH, 0e3H
	DB	'??', 0dbH, 0afH, 0f2H, 0a6H, 0d6H, 0b5H, '??', 00H ; `string'
CONST	ENDS
;	COMDAT ??_C@_0O@BDPOMKKB@?f?Q?q?$LE?k?e?$DP?r?$KG?o?R?$DP?$DP?$AA@
CONST	SEGMENT
??_C@_0O@BDPOMKKB@?f?Q?q?$LE?k?e?$DP?r?$KG?o?R?$DP?$DP?$AA@ DB 0e6H, 0d1H
	DB	0f1H, 0b4H, 0ebH, 0e5H, '?', 0f2H, 0a6H, 0efH, 0d2H, '??', 00H ; `string'
CONST	ENDS
;	COMDAT ??_C@_0L@NLIJCIGI@?q?$LC?w?n?$DP?u?$LB?$DP?$DP?$DP?$AA@
CONST	SEGMENT
??_C@_0L@NLIJCIGI@?q?$LC?w?n?$DP?u?$LB?$DP?$DP?$DP?$AA@ DB 0f1H, 0b2H, 0f7H
	DB	0eeH, '?', 0f5H, 0b1H, '???', 00H		; `string'
CONST	ENDS
;	COMDAT ??_C@_0L@MAMJAONM@?$KD?$MA?$KD?D?r?$KG?V?$LF?$DP?$DP?$AA@
CONST	SEGMENT
??_C@_0L@MAMJAONM@?$KD?$MA?$KD?D?r?$KG?V?$LF?$DP?$DP?$AA@ DB 0a3H, 0c0H, 0a3H
	DB	0c4H, 0f2H, 0a6H, 0d6H, 0b5H, '??', 00H	; `string'
CONST	ENDS
;	COMDAT ??_C@_08ICLMPPGO@?$KD?M?$KD?M?$KD?L?$DP?$DP?$AA@
CONST	SEGMENT
??_C@_08ICLMPPGO@?$KD?M?$KD?M?$KD?L?$DP?$DP?$AA@ DB 0a3H, 0cdH, 0a3H, 0cdH
	DB	0a3H, 0ccH, '??', 00H			; `string'
CONST	ENDS
;	COMDAT ??_C@_0P@BPNGJDFB@?$KD?C?$KD?o?$KD?o?$KD?k?r?$KG?V?$LF?$DP?$DP?$AA@
CONST	SEGMENT
??_C@_0P@BPNGJDFB@?$KD?C?$KD?o?$KD?o?$KD?k?r?$KG?V?$LF?$DP?$DP?$AA@ DB 0a3H
	DB	0c3H, 0a3H, 0efH, 0a3H, 0efH, 0a3H, 0ebH, 0f2H, 0a6H, 0d6H, 0b5H
	DB	'??', 00H					; `string'
CONST	ENDS
;	COMDAT ??_C@_08NJCNHHIM@?$KD?$MA?r?$KG?V?$LF?$DP?$DP?$AA@
CONST	SEGMENT
??_C@_08NJCNHHIM@?$KD?$MA?r?$KG?V?$LF?$DP?$DP?$AA@ DB 0a3H, 0c0H, 0f2H, 0a6H
	DB	0d6H, 0b5H, '??', 00H			; `string'
CONST	ENDS
;	COMDAT ??_C@_0L@ICOMAJKB@?$KD?$MA?$KD?F?r?$KG?V?$LF?$DP?$DP?$AA@
CONST	SEGMENT
??_C@_0L@ICOMAJKB@?$KD?$MA?$KD?F?r?$KG?V?$LF?$DP?$DP?$AA@ DB 0a3H, 0c0H, 0a3H
	DB	0c6H, 0f2H, 0a6H, 0d6H, 0b5H, '??', 00H	; `string'
CONST	ENDS
;	COMDAT ??_C@_0L@DIDIDBAN@?$KD?$MA?$KD?P?r?$KG?V?$LF?$DP?$DP?$AA@
CONST	SEGMENT
??_C@_0L@DIDIDBAN@?$KD?$MA?$KD?P?r?$KG?V?$LF?$DP?$DP?$AA@ DB 0a3H, 0c0H, 0a3H
	DB	0d0H, 0f2H, 0a6H, 0d6H, 0b5H, '??', 00H	; `string'
CONST	ENDS
;	COMDAT ??_C@_0L@POFHDIIK@?$KD?$MA?$KD?V?r?$KG?V?$LF?$DP?$DP?$AA@
CONST	SEGMENT
??_C@_0L@POFHDIIK@?$KD?$MA?$KD?V?r?$KG?V?$LF?$DP?$DP?$AA@ DB 0a3H, 0c0H, 0a3H
	DB	0d6H, 0f2H, 0a6H, 0d6H, 0b5H, '??', 00H	; `string'
CONST	ENDS
;	COMDAT ??_C@_08GDPJEPCA@?$KD?V?r?$KG?V?$LF?$DP?$DP?$AA@
CONST	SEGMENT
??_C@_08GDPJEPCA@?$KD?V?r?$KG?V?$LF?$DP?$DP?$AA@ DB 0a3H, 0d6H, 0f2H, 0a6H
	DB	0d6H, 0b5H, '??', 00H			; `string'
CONST	ENDS
;	COMDAT ??_C@_08CBNMEIFN@?$KD?T?r?$KG?V?$LF?$DP?$DP?$AA@
CONST	SEGMENT
??_C@_08CBNMEIFN@?$KD?T?r?$KG?V?$LF?$DP?$DP?$AA@ DB 0a3H, 0d4H, 0f2H, 0a6H
	DB	0d6H, 0b5H, '??', 00H			; `string'
CONST	ENDS
;	COMDAT ??_C@_08IOICGCMD@?$KD?L?r?$KG?V?$LF?$DP?$DP?$AA@
CONST	SEGMENT
??_C@_08IOICGCMD@?$KD?L?r?$KG?V?$LF?$DP?$DP?$AA@ DB 0a3H, 0ccH, 0f2H, 0a6H
	DB	0d6H, 0b5H, '??', 00H			; `string'
CONST	ENDS
;	COMDAT ??_C@_09JCKPJEPE@?k?e?$DP?r?$KG?o?R?$DP?$DP?$AA@
CONST	SEGMENT
??_C@_09JCKPJEPE@?k?e?$DP?r?$KG?o?R?$DP?$DP?$AA@ DB 0ebH, 0e5H, '?', 0f2H
	DB	0a6H, 0efH, 0d2H, '??', 00H			; `string'
CONST	ENDS
;	COMDAT ??_C@_0N@INFHKGBA@?$KD?S?$KD?t?$KD?e?$KD?p?$DP?$DP?$DP?$DP?$AA@
CONST	SEGMENT
??_C@_0N@INFHKGBA@?$KD?S?$KD?t?$KD?e?$KD?p?$DP?$DP?$DP?$DP?$AA@ DB 0a3H, 0d3H
	DB	0a3H, 0f4H, 0a3H, 0e5H, 0a3H, 0f0H, '????', 00H ; `string'
CONST	ENDS
;	COMDAT ??_C@_08LOOFPHBM@?$DP?d?P?$DP?$DP?c?w?$DP?$AA@
CONST	SEGMENT
??_C@_08LOOFPHBM@?$DP?d?P?$DP?$DP?c?w?$DP?$AA@ DB '?', 0e4H, 0d0H, '??', 0e3H
	DB	0f7H, '?', 00H				; `string'
CONST	ENDS
;	COMDAT ??_C@_0BH@PNMEMGLJ@data?2bgm?2sabgm_t12?4wav?$AA@
CONST	SEGMENT
??_C@_0BH@PNMEMGLJ@data?2bgm?2sabgm_t12?4wav?$AA@ DB 'data\bgm\sabgm_t12.'
	DB	'wav', 00H					; `string'
CONST	ENDS
;	COMDAT ??_C@_0BH@HLFALEBH@data?2bgm?2sabgm_t11?4wav?$AA@
CONST	SEGMENT
??_C@_0BH@HLFALEBH@data?2bgm?2sabgm_t11?4wav?$AA@ DB 'data\bgm\sabgm_t11.'
	DB	'wav', 00H					; `string'
CONST	ENDS
;	COMDAT ??_C@_0BH@LAAMGHLC@data?2bgm?2sabgm_t10?4wav?$AA@
CONST	SEGMENT
??_C@_0BH@LAAMGHLC@data?2bgm?2sabgm_t10?4wav?$AA@ DB 'data\bgm\sabgm_t10.'
	DB	'wav', 00H					; `string'
CONST	ENDS
;	COMDAT ??_C@_0BG@PNDHPEIB@data?2bgm?2sabgm_t9?4wav?$AA@
CONST	SEGMENT
??_C@_0BG@PNDHPEIB@data?2bgm?2sabgm_t9?4wav?$AA@ DB 'data\bgm\sabgm_t9.wa'
	DB	'v', 00H					; `string'
CONST	ENDS
;	COMDAT ??_C@_0BG@DGGLCHCE@data?2bgm?2sabgm_t8?4wav?$AA@
CONST	SEGMENT
??_C@_0BG@DGGLCHCE@data?2bgm?2sabgm_t8?4wav?$AA@ DB 'data\bgm\sabgm_t8.wa'
	DB	'v', 00H					; `string'
CONST	ENDS
;	COMDAT ??_C@_0BG@MHDNJFPB@data?2bgm?2sabgm_t7?4wav?$AA@
CONST	SEGMENT
??_C@_0BG@MHDNJFPB@data?2bgm?2sabgm_t7?4wav?$AA@ DB 'data\bgm\sabgm_t7.wa'
	DB	'v', 00H					; `string'
CONST	ENDS
;	COMDAT ??_C@_0BG@MGBEGFE@data?2bgm?2sabgm_t6?4wav?$AA@
CONST	SEGMENT
??_C@_0BG@MGBEGFE@data?2bgm?2sabgm_t6?4wav?$AA@ DB 'data\bgm\sabgm_t6.wav'
	DB	00H						; `string'
CONST	ENDS
;	COMDAT ??_C@_0BG@IKPFDEPK@data?2bgm?2sabgm_t5?4wav?$AA@
CONST	SEGMENT
??_C@_0BG@IKPFDEPK@data?2bgm?2sabgm_t5?4wav?$AA@ DB 'data\bgm\sabgm_t5.wa'
	DB	'v', 00H					; `string'
CONST	ENDS
;	COMDAT ??_C@_0BG@EBKJOHFP@data?2bgm?2sabgm_t4?4wav?$AA@
CONST	SEGMENT
??_C@_0BG@EBKJOHFP@data?2bgm?2sabgm_t4?4wav?$AA@ DB 'data\bgm\sabgm_t4.wa'
	DB	'v', 00H					; `string'
CONST	ENDS
;	COMDAT ??_C@_0BG@FMKMNHOH@data?2bgm?2sabgm_t3?4wav?$AA@
CONST	SEGMENT
??_C@_0BG@FMKMNHOH@data?2bgm?2sabgm_t3?4wav?$AA@ DB 'data\bgm\sabgm_t3.wa'
	DB	'v', 00H					; `string'
CONST	ENDS
;	COMDAT ??_C@_0BG@JHPAAEEC@data?2bgm?2sabgm_t2?4wav?$AA@
CONST	SEGMENT
??_C@_0BG@JHPAAEEC@data?2bgm?2sabgm_t2?4wav?$AA@ DB 'data\bgm\sabgm_t2.wa'
	DB	'v', 00H					; `string'
CONST	ENDS
;	COMDAT ??_C@_0BG@GHLBIJKF@data?2bgm?2sabgm_f2?4wav?$AA@
CONST	SEGMENT
??_C@_0BG@GHLBIJKF@data?2bgm?2sabgm_f2?4wav?$AA@ DB 'data\bgm\sabgm_f2.wa'
	DB	'v', 00H					; `string'
CONST	ENDS
;	COMDAT ??_C@_0BG@EFKHEOKL@data?2bgm?2sabgm_b4?4wav?$AA@
CONST	SEGMENT
??_C@_0BG@EFKHEOKL@data?2bgm?2sabgm_b4?4wav?$AA@ DB 'data\bgm\sabgm_b4.wa'
	DB	'v', 00H					; `string'
CONST	ENDS
;	COMDAT ??_C@_0BG@JDPOKNLG@data?2bgm?2sabgm_b2?4wav?$AA@
CONST	SEGMENT
??_C@_0BG@JDPOKNLG@data?2bgm?2sabgm_b2?4wav?$AA@ DB 'data\bgm\sabgm_b2.wa'
	DB	'v', 00H					; `string'
CONST	ENDS
;	COMDAT ??_C@_0BG@FIKCHOBD@data?2bgm?2sabgm_b3?4wav?$AA@
CONST	SEGMENT
??_C@_0BG@FIKCHOBD@data?2bgm?2sabgm_b3?4wav?$AA@ DB 'data\bgm\sabgm_b3.wa'
	DB	'v', 00H					; `string'
CONST	ENDS
;	COMDAT ??_C@_0BG@OBCFPLAL@data?2bgm?2sabgm_f1?4wav?$AA@
CONST	SEGMENT
??_C@_0BG@OBCFPLAL@data?2bgm?2sabgm_f1?4wav?$AA@ DB 'data\bgm\sabgm_f1.wa'
	DB	'v', 00H					; `string'
CONST	ENDS
;	COMDAT ??_C@_0BG@CKHJCIKO@data?2bgm?2sabgm_f0?4wav?$AA@
CONST	SEGMENT
??_C@_0BG@CKHJCIKO@data?2bgm?2sabgm_f0?4wav?$AA@ DB 'data\bgm\sabgm_f0.wa'
	DB	'v', 00H					; `string'
CONST	ENDS
;	COMDAT ??_C@_0BG@PACOJIIM@data?2bgm?2sabgm_d2?4wav?$AA@
CONST	SEGMENT
??_C@_0BG@PACOJIIM@data?2bgm?2sabgm_d2?4wav?$AA@ DB 'data\bgm\sabgm_d2.wa'
	DB	'v', 00H					; `string'
CONST	ENDS
;	COMDAT ??_C@_0BG@HGLKOKCC@data?2bgm?2sabgm_d1?4wav?$AA@
CONST	SEGMENT
??_C@_0BG@HGLKOKCC@data?2bgm?2sabgm_d1?4wav?$AA@ DB 'data\bgm\sabgm_d1.wa'
	DB	'v', 00H					; `string'
CONST	ENDS
;	COMDAT ??_C@_0BG@LNOGDJIH@data?2bgm?2sabgm_d0?4wav?$AA@
CONST	SEGMENT
??_C@_0BG@LNOGDJIH@data?2bgm?2sabgm_d0?4wav?$AA@ DB 'data\bgm\sabgm_d0.wa'
	DB	'v', 00H					; `string'
CONST	ENDS
;	COMDAT ??_C@_0BG@BFGKNPBI@data?2bgm?2sabgm_b1?4wav?$AA@
CONST	SEGMENT
??_C@_0BG@BFGKNPBI@data?2bgm?2sabgm_b1?4wav?$AA@ DB 'data\bgm\sabgm_b1.wa'
	DB	'v', 00H					; `string'
CONST	ENDS
;	COMDAT ??_C@_0BG@NODGAMLN@data?2bgm?2sabgm_b0?4wav?$AA@
CONST	SEGMENT
??_C@_0BG@NODGAMLN@data?2bgm?2sabgm_b0?4wav?$AA@ DB 'data\bgm\sabgm_b0.wa'
	DB	'v', 00H					; `string'
CONST	ENDS
;	COMDAT ??_C@_0BG@NKDIKFEJ@data?2bgm?2sabgm_t0?4wav?$AA@
CONST	SEGMENT
??_C@_0BG@NKDIKFEJ@data?2bgm?2sabgm_t0?4wav?$AA@ DB 'data\bgm\sabgm_t0.wa'
	DB	'v', 00H					; `string'
CONST	ENDS
;	COMDAT ??_C@_0BG@BBGEHGOM@data?2bgm?2sabgm_t1?4wav?$AA@
CONST	SEGMENT
??_C@_0BG@BBGEHGOM@data?2bgm?2sabgm_t1?4wav?$AA@ DB 'data\bgm\sabgm_t1.wa'
	DB	'v', 00H					; `string'
CONST	ENDS
;	COMDAT ??_C@_0BG@NEMDEIGC@data?2bgm?2sabgm_s1?4wav?$AA@
CONST	SEGMENT
??_C@_0BG@NEMDEIGC@data?2bgm?2sabgm_s1?4wav?$AA@ DB 'data\bgm\sabgm_s1.wa'
	DB	'v', 00H					; `string'
CONST	ENDS
;	COMDAT ??_C@_0BG@BPJPJLMH@data?2bgm?2sabgm_s0?4wav?$AA@
CONST	SEGMENT
??_C@_0BG@BPJPJLMH@data?2bgm?2sabgm_s0?4wav?$AA@ DB 'data\bgm\sabgm_s0.wa'
	DB	'v', 00H					; `string'
CONST	ENDS
_DATA	SEGMENT
?bgm_tbl@@3PAUT_MUSIC_BGM@@A DD FLAT:??_C@_0BG@BPJPJLMH@data?2bgm?2sabgm_s0?4wav?$AA@ ; bgm_tbl
	DD	06eH
	DB	00H
	ORG $+3
	DD	00H
	DD	FLAT:??_C@_0BG@NEMDEIGC@data?2bgm?2sabgm_s1?4wav?$AA@
	DD	078H
	DB	00H
	ORG $+3
	DD	00H
	DD	FLAT:??_C@_0BG@NEMDEIGC@data?2bgm?2sabgm_s1?4wav?$AA@
	DD	069H
	DB	02H
	ORG $+3
	DD	00H
	DD	FLAT:??_C@_0BG@BBGEHGOM@data?2bgm?2sabgm_t1?4wav?$AA@
	DD	07fH
	DB	02H
	ORG $+3
	DD	00H
	DD	FLAT:??_C@_0BG@NKDIKFEJ@data?2bgm?2sabgm_t0?4wav?$AA@
	DD	05fH
	DB	02H
	ORG $+3
	DD	00H
	DD	FLAT:??_C@_0BG@NODGAMLN@data?2bgm?2sabgm_b0?4wav?$AA@
	DD	07aH
	DB	01H
	ORG $+3
	DD	00H
	DD	FLAT:??_C@_0BG@BFGKNPBI@data?2bgm?2sabgm_b1?4wav?$AA@
	DD	07aH
	DB	02H
	ORG $+3
	DD	00H
	DD	FLAT:??_C@_0BG@LNOGDJIH@data?2bgm?2sabgm_d0?4wav?$AA@
	DD	078H
	DB	01H
	ORG $+3
	DD	00H
	DD	FLAT:??_C@_0BG@HGLKOKCC@data?2bgm?2sabgm_d1?4wav?$AA@
	DD	069H
	DB	01H
	ORG $+3
	DD	00H
	DD	FLAT:??_C@_0BG@PACOJIIM@data?2bgm?2sabgm_d2?4wav?$AA@
	DD	064H
	DB	02H
	ORG $+3
	DD	00H
	DD	FLAT:??_C@_0BG@CKHJCIKO@data?2bgm?2sabgm_f0?4wav?$AA@
	DD	07fH
	DB	02H
	ORG $+3
	DD	00H
	DD	FLAT:??_C@_0BG@OBCFPLAL@data?2bgm?2sabgm_f1?4wav?$AA@
	DD	064H
	DB	02H
	ORG $+3
	DD	00H
	DD	FLAT:??_C@_0BG@FIKCHOBD@data?2bgm?2sabgm_b3?4wav?$AA@
	DD	06eH
	DB	02H
	ORG $+3
	DD	00H
	DD	FLAT:??_C@_0BG@JDPOKNLG@data?2bgm?2sabgm_b2?4wav?$AA@
	DD	06eH
	DB	02H
	ORG $+3
	DD	00H
	DD	FLAT:??_C@_0BG@EFKHEOKL@data?2bgm?2sabgm_b4?4wav?$AA@
	DD	06eH
	DB	02H
	ORG $+3
	DD	00H
	DD	FLAT:??_C@_0BG@GHLBIJKF@data?2bgm?2sabgm_f2?4wav?$AA@
	DD	06eH
	DB	02H
	ORG $+3
	DD	00H
	DD	FLAT:??_C@_0BG@JHPAAEEC@data?2bgm?2sabgm_t2?4wav?$AA@
	DD	06eH
	DB	02H
	ORG $+3
	DD	00H
	DD	FLAT:??_C@_0BG@FMKMNHOH@data?2bgm?2sabgm_t3?4wav?$AA@
	DD	06eH
	DB	02H
	ORG $+3
	DD	00H
	DD	FLAT:??_C@_0BG@EBKJOHFP@data?2bgm?2sabgm_t4?4wav?$AA@
	DD	06eH
	DB	02H
	ORG $+3
	DD	00H
	DD	FLAT:??_C@_0BG@IKPFDEPK@data?2bgm?2sabgm_t5?4wav?$AA@
	DD	06eH
	DB	02H
	ORG $+3
	DD	00H
	DD	FLAT:??_C@_0BG@MGBEGFE@data?2bgm?2sabgm_t6?4wav?$AA@
	DD	06eH
	DB	02H
	ORG $+3
	DD	00H
	DD	FLAT:??_C@_0BG@MHDNJFPB@data?2bgm?2sabgm_t7?4wav?$AA@
	DD	06eH
	DB	02H
	ORG $+3
	DD	00H
	DD	FLAT:??_C@_0BG@DGGLCHCE@data?2bgm?2sabgm_t8?4wav?$AA@
	DD	06eH
	DB	02H
	ORG $+3
	DD	00H
	DD	FLAT:??_C@_0BG@PNDHPEIB@data?2bgm?2sabgm_t9?4wav?$AA@
	DD	06eH
	DB	02H
	ORG $+3
	DD	00H
	DD	FLAT:??_C@_0BH@LAAMGHLC@data?2bgm?2sabgm_t10?4wav?$AA@
	DD	06eH
	DB	02H
	ORG $+3
	DD	00H
	DD	FLAT:??_C@_0BH@HLFALEBH@data?2bgm?2sabgm_t11?4wav?$AA@
	DD	06eH
	DB	02H
	ORG $+3
	DD	00H
	DD	FLAT:??_C@_0BH@PNMEMGLJ@data?2bgm?2sabgm_t12?4wav?$AA@
	DD	06eH
	DB	02H
	ORG $+3
	DD	00H
?cdda_no@@3HA DD 0ffffffffH				; cdda_no
?stereo_flg@@3HA DD 01H					; stereo_flg
?t_music_se_volume@@3HA DD 0fH				; t_music_se_volume
?t_music_bgm_volume@@3HA DD 0fH				; t_music_bgm_volume
?t_music_bgm_no@@3HA DD 0ffffffffH			; t_music_bgm_no
?t_music_se_no@@3HA DD 0ffffffffH			; t_music_se_no
?err_msg@@3PAPADA DD FLAT:??_C@_08LOOFPHBM@?$DP?d?P?$DP?$DP?c?w?$DP?$AA@ ; err_msg
	DD	FLAT:??_C@_0N@INFHKGBA@?$KD?S?$KD?t?$KD?e?$KD?p?$DP?$DP?$DP?$DP?$AA@
	DD	FLAT:??_C@_09JCKPJEPE@?k?e?$DP?r?$KG?o?R?$DP?$DP?$AA@
	DD	FLAT:??_C@_08IOICGCMD@?$KD?L?r?$KG?V?$LF?$DP?$DP?$AA@
	DD	FLAT:??_C@_08CBNMEIFN@?$KD?T?r?$KG?V?$LF?$DP?$DP?$AA@
	DD	FLAT:??_C@_08GDPJEPCA@?$KD?V?r?$KG?V?$LF?$DP?$DP?$AA@
	DD	FLAT:??_C@_0L@POFHDIIK@?$KD?$MA?$KD?V?r?$KG?V?$LF?$DP?$DP?$AA@
	DD	FLAT:??_C@_0L@DIDIDBAN@?$KD?$MA?$KD?P?r?$KG?V?$LF?$DP?$DP?$AA@
	DD	FLAT:??_C@_0L@ICOMAJKB@?$KD?$MA?$KD?F?r?$KG?V?$LF?$DP?$DP?$AA@
	DD	FLAT:??_C@_08NJCNHHIM@?$KD?$MA?r?$KG?V?$LF?$DP?$DP?$AA@
	DD	FLAT:??_C@_0P@BPNGJDFB@?$KD?C?$KD?o?$KD?o?$KD?k?r?$KG?V?$LF?$DP?$DP?$AA@
	DD	FLAT:??_C@_08ICLMPPGO@?$KD?M?$KD?M?$KD?L?$DP?$DP?$AA@
	DD	FLAT:??_C@_0L@MAMJAONM@?$KD?$MA?$KD?D?r?$KG?V?$LF?$DP?$DP?$AA@
	DD	FLAT:??_C@_0L@NLIJCIGI@?q?$LC?w?n?$DP?u?$LB?$DP?$DP?$DP?$AA@
	DD	FLAT:??_C@_0O@BDPOMKKB@?f?Q?q?$LE?k?e?$DP?r?$KG?o?R?$DP?$DP?$AA@
	DD	FLAT:??_C@_0N@PMDODFEN@?Z?c?$DP?$DP?$NL?$KP?r?$KG?V?$LF?$DP?$DP?$AA@
	DD	FLAT:??_C@_0M@KADLMLCJ@?Z?c?$DP?$DP?$NL?$KP?$DP?$NM?t?y?j?$AA@
	DD	FLAT:??_C@_0L@KBDAPCLE@?$DP?k?e?$DP?r?$KG?o?R?$DP?$DP?$AA@
	DD	FLAT:??_C@_0L@DCPNDIBE@?$KD?$MA?$KD?W?r?$KG?V?$LF?$DP?$DP?$AA@
	DD	FLAT:??_C@_09DBOICEHL@?$DP?q?$LE?r?$KG?V?$LF?$DP?$DP?$AA@
	DD	FLAT:??_C@_08GJDMEGDJ@?$KD?Q?r?$KG?V?$LF?$DP?$DP?$AA@
	DD	FLAT:??_C@_0L@BJOJBMHA@?$KD?$MA?$KD?K?r?$KG?V?$LF?$DP?$DP?$AA@
	DD	FLAT:??_C@_06HJKPLLII@?$PL?z?k?e?$DP?$DP?$AA@
	DD	FLAT:??_C@_08NGFCA@?$KD?O?r?$KG?V?$LF?$DP?$DP?$AA@
	DD	FLAT:??_C@_0L@JHGGBLJD@?$KD?$MA?$KD?H?r?$KG?V?$LF?$DP?$DP?$AA@
	DD	FLAT:??_C@_0L@NPIGBFPH@?$KD?$MA?$KD?M?r?$KG?V?$LF?$DP?$DP?$AA@
	DD	FLAT:??_C@_0L@LGLHDGOO@?$KD?$MA?$KD?S?r?$KG?V?$LF?$DP?$DP?$AA@
?note_change_tbl@@3PAHA DD 09H				; note_change_tbl
	DD	0bH
	DD	00H
	DD	02H
	DD	04H
	DD	05H
	DD	07H
?freq_tbl@@3PAHA DD 05b4H				; freq_tbl
	DD	0ac4H
	DD	0b68H
	DD	0c15H
	DD	0ccdH
	DD	0d90H
	DD	0e5fH
	DD	0f1aH
	DD	01021H
	DD	01117H
	DD	0121bH
	DD	0132eH
	DD	01452H
	DD	01588H
	DD	016d0H
	DD	0182bH
	DD	0199bH
	DD	01b21H
	DD	01cbeH
	DD	01e34H
	DD	02043H
	DD	0222eH
	DD	02436H
	DD	0265dH
	DD	028a5H
	DD	02b11H
	DD	02da0H
	DD	03057H
	DD	03336H
	DD	03642H
	DD	0397cH
	DD	03c68H
	DD	04086H
	DD	0445dH
	DD	0486dH
	DD	04cbbH
	DD	0514bH
	DD	05622H
	DD	05b40H
	DD	060aeH
	DD	0666dH
	DD	06c84H
	DD	072f8H
	DD	078d1H
	DD	0810dH
	DD	088baH
	DD	090daH
	DD	09977H
	DD	0a297H
	DD	0ac44H
	DD	0b681H
	DD	0c15cH
	DD	0ccdbH
	DD	0d909H
	DD	0e5f1H
	DD	0f1a3H
	DD	01021aH
	DD	011174H
	DD	0121b5H
	DD	0132efH
	DD	01452fH
	DD	015888H
	DD	016d02H
	DD	0182b9H
	DD	0199b7H
	DD	01b213H
	DD	01cbe3H
	DD	01e346H
	DD	020435H
	DD	0222e8H
	DD	02436bH
	DD	0265deH
	DD	028a5fH
?cdda_check_cnt@@3HA DD 0ffffffffH			; cdda_check_cnt
_DATA	ENDS
PUBLIC	?t_music_init@@YAHXZ				; t_music_init
PUBLIC	?t_music_end@@YAXXZ				; t_music_end
PUBLIC	?check_se_loop@@YAXXZ				; check_se_loop
PUBLIC	?cdda_play@@YA_NH@Z				; cdda_play
PUBLIC	?cdda_stop@@YA_NXZ				; cdda_stop
PUBLIC	?play_se@@YAHHHH@Z				; play_se
PUBLIC	?play_bgm@@YAHH@Z				; play_bgm
PUBLIC	?bgm_volume_change@@YAXXZ			; bgm_volume_change
PUBLIC	?set_gbm_pitch@@YAXXZ				; set_gbm_pitch
PUBLIC	?stop_bgm@@YAXXZ				; stop_bgm
PUBLIC	?fade_out_bgm@@YAXXZ				; fade_out_bgm
PUBLIC	?play_environment@@YAHHHH@Z			; play_environment
PUBLIC	?play_map_bgm@@YAHH@Z				; play_map_bgm
PUBLIC	___local_stdio_printf_options
PUBLIC	??$__vcrt_va_start_verify_argument_type@QBD@@YAXXZ ; __vcrt_va_start_verify_argument_type<char const * const>
PUBLIC	__vsnprintf_l
PUBLIC	__vsprintf_l
PUBLIC	_sprintf
PUBLIC	?LoadWave@@YAHPBDAAPAUtWAVEFORMATEX@@AAPAEAAK@Z	; LoadWave
PUBLIC	?CreateSoundData@@YAHPBDAAPAUIDirectSoundBuffer@@@Z ; CreateSoundData
PUBLIC	?f_get@@YAHPAU_iobuf@@@Z			; f_get
PUBLIC	?get_num@@YAHPAU_iobuf@@@Z			; get_num
PUBLIC	?num_check@@YAHPAU_iobuf@@@Z			; num_check
PUBLIC	?InitDSound@@YAHXZ				; InitDSound
PUBLIC	?stop_thread@@YAXXZ				; stop_thread
PUBLIC	?EndApp@@YAHXZ					; EndApp
PUBLIC	?get_num2@@YAHPAU_iobuf@@@Z			; get_num2
PUBLIC	?num_check2@@YAHPAU_iobuf@@@Z			; num_check2
PUBLIC	?get_step@@YAHPAU_iobuf@@H@Z			; get_step
PUBLIC	?music_read@@YAHXZ				; music_read
PUBLIC	?music_init@@YAXXZ				; music_init
PUBLIC	?play_stop@@YAXXZ				; play_stop
PUBLIC	?play_start@@YAXXZ				; play_start
PUBLIC	?voice_lfo@@YAXH@Z				; voice_lfo
PUBLIC	?voice_action@@YAXH@Z				; voice_action
PUBLIC	?set_voice_param@@YAXHJHH@Z			; set_voice_param
PUBLIC	?set_tone@@YAHHJHH@Z				; set_tone
PUBLIC	?stop_voice@@YAXXZ				; stop_voice
PUBLIC	?gate@@YAXXZ					; gate
PUBLIC	?music@@YAXXZ					; music
PUBLIC	?Block_Copy@@YAXPAUIDirectSoundBuffer@@KKPAEAAJJ@Z ; Block_Copy
PUBLIC	?MyThreadFunc@@YGKPAX@Z				; MyThreadFunc
PUBLIC	?play_environment_tone@@YAHHH@Z			; play_environment_tone
PUBLIC	?play_map_bgm_check@@YAXXZ			; play_map_bgm_check
PUBLIC	?play_environment_check@@YAXXZ			; play_environment_check
PUBLIC	?bgm_fade_check@@YAXXZ				; bgm_fade_check
PUBLIC	?cdda_open@@YA_NH@Z				; cdda_open
PUBLIC	?cdda_start@@YA_NH@Z				; cdda_start
PUBLIC	?_OptionsStorage@?1??__local_stdio_printf_options@@9@4_KA ; `__local_stdio_printf_options'::`2'::_OptionsStorage
PUBLIC	??_C@_04HFHJMNCD@WAVE?$AA@			; `string'
PUBLIC	??_C@_0BD@KCLMPBKD@data?2se?2sap_01?4wav?$AA@	; `string'
PUBLIC	??_C@_0BD@CECIIDAN@data?2se?2sap_02?4wav?$AA@	; `string'
PUBLIC	??_C@_0BD@OPHEFAKI@data?2se?2sap_03?4wav?$AA@	; `string'
PUBLIC	??_C@_0BD@PCHBGABA@data?2se?2sap_04?4wav?$AA@	; `string'
PUBLIC	??_C@_0BD@DJCNLDLF@data?2se?2sap_05?4wav?$AA@	; `string'
PUBLIC	??_C@_0BD@LPLJMBBL@data?2se?2sap_06?4wav?$AA@	; `string'
PUBLIC	??_C@_0BD@HEOFBCLO@data?2se?2sap_07?4wav?$AA@	; `string'
PUBLIC	??_C@_0BD@IFLDKAGL@data?2se?2sap_08?4wav?$AA@	; `string'
PUBLIC	??_C@_0BD@EOOPHDMO@data?2se?2sap_09?4wav?$AA@	; `string'
PUBLIC	??_C@_0BD@MPJHCJLC@data?2se?2sap_10?4wav?$AA@	; `string'
PUBLIC	??_C@_0BD@EMLPKBH@data?2se?2sap_11?4wav?$AA@	; `string'
PUBLIC	??_C@_0BD@FEAGGLKE@data?2se?2sap_14?4wav?$AA@	; `string'
PUBLIC	??_C@_0BD@ICFPIILJ@data?2se?2sap_12?4wav?$AA@	; `string'
PUBLIC	??_C@_0BD@EJADFLBM@data?2se?2sap_13?4wav?$AA@	; `string'
PUBLIC	??_C@_0BD@EEOLPGJN@data?2se?2sae_01?4wav?$AA@	; `string'
PUBLIC	??_C@_0BD@MCHPIEDD@data?2se?2sae_02?4wav?$AA@	; `string'
PUBLIC	??_C@_0BD@JCDFHJG@data?2se?2sae_03?4wav?$AA@	; `string'
PUBLIC	??_C@_0BD@BECGGHCO@data?2se?2sae_04?4wav?$AA@	; `string'
PUBLIC	??_C@_0BD@NPHKLEIL@data?2se?2sae_05?4wav?$AA@	; `string'
PUBLIC	??_C@_0BD@FJOOMGCF@data?2se?2sae_06?4wav?$AA@	; `string'
PUBLIC	??_C@_0BD@JCLCBFIA@data?2se?2sae_07?4wav?$AA@	; `string'
PUBLIC	??_C@_0BD@GDOEKHFF@data?2se?2sae_08?4wav?$AA@	; `string'
PUBLIC	??_C@_0BD@KILIHEPA@data?2se?2sae_09?4wav?$AA@	; `string'
PUBLIC	??_C@_0BD@CJMACOIM@data?2se?2sae_10?4wav?$AA@	; `string'
PUBLIC	??_C@_0BD@OCJMPNCJ@data?2se?2sae_11?4wav?$AA@	; `string'
PUBLIC	??_C@_0BD@GEAIIPIH@data?2se?2sae_12?4wav?$AA@	; `string'
PUBLIC	??_C@_0BD@KPFEFMCC@data?2se?2sae_13?4wav?$AA@	; `string'
PUBLIC	??_C@_0BD@LCFBGMJK@data?2se?2sae_14?4wav?$AA@	; `string'
PUBLIC	??_C@_0BD@HJANLPDP@data?2se?2sae_15?4wav?$AA@	; `string'
PUBLIC	??_C@_0BD@PPJJMNJB@data?2se?2sae_16?4wav?$AA@	; `string'
PUBLIC	??_C@_0BD@DEMFBODE@data?2se?2sae_17?4wav?$AA@	; `string'
PUBLIC	??_C@_0BD@MFJDKMOB@data?2se?2sae_18?4wav?$AA@	; `string'
PUBLIC	??_C@_0BD@OMPHPEE@data?2se?2sae_19?4wav?$AA@	; `string'
PUBLIC	??_C@_0BD@BICIDEBB@data?2se?2sae_20?4wav?$AA@	; `string'
PUBLIC	??_C@_0BD@NDHEOHLE@data?2se?2sae_21?4wav?$AA@	; `string'
PUBLIC	??_C@_0BD@FFOAJFBK@data?2se?2sae_22?4wav?$AA@	; `string'
PUBLIC	??_C@_0BD@JOLMEGLP@data?2se?2sae_23?4wav?$AA@	; `string'
PUBLIC	??_C@_0BD@IDLJHGAH@data?2se?2sae_24?4wav?$AA@	; `string'
PUBLIC	??_C@_0BD@EIOFKFKC@data?2se?2sae_25?4wav?$AA@	; `string'
PUBLIC	??_C@_0BD@MOHBNHAM@data?2se?2sae_26?4wav?$AA@	; `string'
PUBLIC	??_C@_0BD@FCNAEKJ@data?2se?2sae_27?4wav?$AA@	; `string'
PUBLIC	??_C@_0BD@PEHLLGHM@data?2se?2sae_28?4wav?$AA@	; `string'
PUBLIC	??_C@_0BD@DPCHGFNJ@data?2se?2sae_29?4wav?$AA@	; `string'
PUBLIC	??_C@_0BD@LOFPDPKF@data?2se?2sae_30?4wav?$AA@	; `string'
PUBLIC	??_C@_0BD@HFADOMAA@data?2se?2sae_31?4wav?$AA@	; `string'
PUBLIC	??_C@_0BD@PDJHJOKO@data?2se?2sae_32?4wav?$AA@	; `string'
PUBLIC	??_C@_0BD@PPDDFEIF@data?2se?2sam_01?4wav?$AA@	; `string'
PUBLIC	??_C@_0BD@HJKHCGCL@data?2se?2sam_02?4wav?$AA@	; `string'
PUBLIC	??_C@_0BD@LCPLPFIO@data?2se?2sam_03?4wav?$AA@	; `string'
PUBLIC	??_C@_0BD@KPPOMFDG@data?2se?2sam_04?4wav?$AA@	; `string'
PUBLIC	??_C@_0BD@GEKCBGJD@data?2se?2sam_05?4wav?$AA@	; `string'
PUBLIC	??_C@_0BD@OCDGGEDN@data?2se?2sam_06?4wav?$AA@	; `string'
PUBLIC	??_C@_0BD@CJGKLHJI@data?2se?2sam_07?4wav?$AA@	; `string'
PUBLIC	??_C@_0BD@NIDMAFEN@data?2se?2sam_08?4wav?$AA@	; `string'
PUBLIC	??_C@_0BD@BDGANGOI@data?2se?2sam_09?4wav?$AA@	; `string'
PUBLIC	??_C@_0BD@JCBIIMJE@data?2se?2sam_10?4wav?$AA@	; `string'
PUBLIC	??_C@_0BD@FJEEFPDB@data?2se?2sam_11?4wav?$AA@	; `string'
PUBLIC	??_C@_0BD@NPNACNJP@data?2se?2sam_12?4wav?$AA@	; `string'
PUBLIC	??_C@_0BD@BEIMPODK@data?2se?2sam_13?4wav?$AA@	; `string'
PUBLIC	??_C@_0BD@JIJMOIC@data?2se?2sam_14?4wav?$AA@	; `string'
PUBLIC	??_C@_0BD@MCNFBNCH@data?2se?2sam_15?4wav?$AA@	; `string'
PUBLIC	??_C@_0BD@EEEBGPIJ@data?2se?2sam_16?4wav?$AA@	; `string'
PUBLIC	??_C@_0BD@IPBNLMCM@data?2se?2sam_17?4wav?$AA@	; `string'
PUBLIC	??_C@_0BD@HOELAOPJ@data?2se?2sam_18?4wav?$AA@	; `string'
PUBLIC	??_C@_0BD@LFBHNNFM@data?2se?2sam_19?4wav?$AA@	; `string'
PUBLIC	??_C@_0BD@KDPAJGAJ@data?2se?2sam_20?4wav?$AA@	; `string'
PUBLIC	??_C@_0BD@GIKMEFKM@data?2se?2sam_21?4wav?$AA@	; `string'
PUBLIC	??_C@_0BD@OODIDHAC@data?2se?2sam_22?4wav?$AA@	; `string'
PUBLIC	??_C@_0BD@CFGEOEKH@data?2se?2sam_23?4wav?$AA@	; `string'
PUBLIC	??_C@_0BD@DIGBNEBP@data?2se?2sam_24?4wav?$AA@	; `string'
PUBLIC	??_C@_0BD@IMCJCNAP@data?2se?2sak_01?4wav?$AA@	; `string'
PUBLIC	??_C@_0BD@KLNFPKB@data?2se?2sak_02?4wav?$AA@	; `string'
PUBLIC	??_C@_0BD@MBOBIMAE@data?2se?2sak_03?4wav?$AA@	; `string'
PUBLIC	??_C@_0BD@NMOELMLM@data?2se?2sak_04?4wav?$AA@	; `string'
PUBLIC	??_C@_0BD@BHLIGPBJ@data?2se?2sak_05?4wav?$AA@	; `string'
PUBLIC	??_C@_0BD@JBCMBNLH@data?2se?2sak_06?4wav?$AA@	; `string'
PUBLIC	??_C@_0BD@FKHAMOBC@data?2se?2sak_07?4wav?$AA@	; `string'
PUBLIC	??_C@_0BD@KLCGHMMH@data?2se?2sak_08?4wav?$AA@	; `string'
PUBLIC	??_C@_0BE@HNKPAMBO@data?2se?2sak_09a?4wav?$AA@	; `string'
PUBLIC	??_C@_0BD@OBACPFBO@data?2se?2sak_10?4wav?$AA@	; `string'
PUBLIC	??_C@_0BD@CKFOCGLL@data?2se?2sak_11?4wav?$AA@	; `string'
PUBLIC	??_C@_0BD@KMMKFEBF@data?2se?2sak_12?4wav?$AA@	; `string'
PUBLIC	??_C@_0BD@GHJGIHLA@data?2se?2sak_13?4wav?$AA@	; `string'
PUBLIC	??_C@_0BD@HKJDLHAI@data?2se?2sak_14?4wav?$AA@	; `string'
PUBLIC	??_C@_0BD@LBMPGEKN@data?2se?2sak_15?4wav?$AA@	; `string'
PUBLIC	??_C@_0BD@DHFLBGAD@data?2se?2sak_16?4wav?$AA@	; `string'
PUBLIC	??_C@_0BD@PMAHMFKG@data?2se?2sak_17?4wav?$AA@	; `string'
PUBLIC	??_C@_0BE@PLDLHOLA@data?2se?2sak_09b?4wav?$AA@	; `string'
PUBLIC	??_C@_0BD@JLDBMNGG@data?2se?2sas_01?4wav?$AA@	; `string'
PUBLIC	??_C@_0BD@BNKFLPMI@data?2se?2sas_02?4wav?$AA@	; `string'
PUBLIC	??_C@_0BD@NGPJGMGN@data?2se?2sas_03?4wav?$AA@	; `string'
PUBLIC	??_C@_0BD@MLPMFMNF@data?2se?2sas_04?4wav?$AA@	; `string'
PUBLIC	??_C@_0BD@KAIPHA@data?2se?2sas_05?4wav?$AA@	; `string'
PUBLIC	??_C@_0BD@IGDEPNNO@data?2se?2sas_06?4wav?$AA@	; `string'
PUBLIC	??_C@_0BD@ENGICOHL@data?2se?2sas_07?4wav?$AA@	; `string'
PUBLIC	??_C@_0BD@LMDOJMKO@data?2se?2sas_08?4wav?$AA@	; `string'
PUBLIC	??_C@_0BD@HHGCEPAL@data?2se?2sas_09?4wav?$AA@	; `string'
PUBLIC	??_C@_0BD@PGBKBFHH@data?2se?2sas_10?4wav?$AA@	; `string'
PUBLIC	??_C@_0BD@DNEGMGNC@data?2se?2sas_11?4wav?$AA@	; `string'
PUBLIC	??_C@_0BD@LLNCLEHM@data?2se?2sas_12?4wav?$AA@	; `string'
PUBLIC	??_C@_0BD@HAIOGHNJ@data?2se?2sas_13?4wav?$AA@	; `string'
PUBLIC	??_C@_0BD@KGNHIEME@data?2se?2sas_15?4wav?$AA@	; `string'
PUBLIC	??_C@_0BD@CAEDPGGK@data?2se?2sas_16?4wav?$AA@	; `string'
PUBLIC	??_C@_0BD@OLBPCFMP@data?2se?2sas_17?4wav?$AA@	; `string'
PUBLIC	??_C@_0BD@BKEJJHBK@data?2se?2sas_18?4wav?$AA@	; `string'
PUBLIC	??_C@_0BD@NBBFEELP@data?2se?2sas_19?4wav?$AA@	; `string'
PUBLIC	??_C@_0BD@MHPCAPOK@data?2se?2sas_20?4wav?$AA@	; `string'
PUBLIC	??_C@_0BD@MKONMEP@data?2se?2sas_21?4wav?$AA@	; `string'
PUBLIC	??_C@_0BD@FDJAOCNO@data?2se?2sad_01?4wav?$AA@	; `string'
PUBLIC	??_C@_0BD@NFAEJAHA@data?2se?2sad_02?4wav?$AA@	; `string'
PUBLIC	??_C@_0BD@BOFIEDNF@data?2se?2sad_03?4wav?$AA@	; `string'
PUBLIC	??_C@_0BD@DFNHDGN@data?2se?2sad_04?4wav?$AA@	; `string'
PUBLIC	??_C@_0BD@MIABKAMI@data?2se?2sad_05?4wav?$AA@	; `string'
PUBLIC	??_C@_0BE@PKJHILLA@data?2se?2saam_01?4wav?$AA@	; `string'
PUBLIC	??_C@_0BE@HMADPJBO@data?2se?2saam_02?4wav?$AA@	; `string'
PUBLIC	??_C@_0BE@LHFPCKLL@data?2se?2saam_03?4wav?$AA@	; `string'
PUBLIC	??_C@_0BE@KKFKBKAD@data?2se?2saam_04?4wav?$AA@	; `string'
PUBLIC	??_C@_0BE@GBAGMJKG@data?2se?2saam_05?4wav?$AA@	; `string'
PUBLIC	??_C@_0BE@OHJCLLAI@data?2se?2saam_06?4wav?$AA@	; `string'
PUBLIC	??_C@_0BE@CMMOGIKN@data?2se?2saam_07?4wav?$AA@	; `string'
PUBLIC	??_C@_0BE@NNJINKHI@data?2se?2saam_08?4wav?$AA@	; `string'
PUBLIC	??_C@_0BE@BGMEAJNN@data?2se?2saam_09?4wav?$AA@	; `string'
PUBLIC	??_C@_0BE@JHLMFDKB@data?2se?2saam_10?4wav?$AA@	; `string'
PUBLIC	??_C@_0BE@FMOAIAAE@data?2se?2saam_11?4wav?$AA@	; `string'
PUBLIC	??_C@_0BE@NKHEPCKK@data?2se?2saam_12?4wav?$AA@	; `string'
PUBLIC	??_C@_0BE@BBCICBAP@data?2se?2saam_13?4wav?$AA@	; `string'
PUBLIC	??_C@_0BE@MCNBBLH@data?2se?2saam_14?4wav?$AA@	; `string'
PUBLIC	??_C@_0BE@MHHBMCBC@data?2se?2saam_15?4wav?$AA@	; `string'
PUBLIC	??_C@_0BE@EBOFLALM@data?2se?2saam_16?4wav?$AA@	; `string'
PUBLIC	??_C@_0BE@IKLJGDBJ@data?2se?2saam_17?4wav?$AA@	; `string'
PUBLIC	??_C@_0BE@HLOPNBMM@data?2se?2saam_18?4wav?$AA@	; `string'
PUBLIC	??_C@_0BE@LALDACGJ@data?2se?2saam_19?4wav?$AA@	; `string'
PUBLIC	??_C@_0BE@KGFEEJDM@data?2se?2saam_20?4wav?$AA@	; `string'
PUBLIC	??_C@_0BE@GNAIJKJJ@data?2se?2saam_21?4wav?$AA@	; `string'
PUBLIC	??_C@_0BE@OLJMOIDH@data?2se?2saam_22?4wav?$AA@	; `string'
PUBLIC	??_C@_0BE@CAMADLJC@data?2se?2saam_23?4wav?$AA@	; `string'
PUBLIC	??_C@_0BE@DNMFALCK@data?2se?2saam_24?4wav?$AA@	; `string'
PUBLIC	??_C@_0BE@PGJJNIIP@data?2se?2saam_25?4wav?$AA@	; `string'
PUBLIC	??_C@_0BE@HAANKKCB@data?2se?2saam_26?4wav?$AA@	; `string'
PUBLIC	??_C@_0BE@LLFBHJIE@data?2se?2saam_27?4wav?$AA@	; `string'
PUBLIC	??_C@_0BD@GLFFOGOH@data?2se?2sa1_01?4wav?$AA@	; `string'
PUBLIC	??_C@_0BD@ONMBJEEJ@data?2se?2sa1_02?4wav?$AA@	; `string'
PUBLIC	??_C@_0BD@FCNINKCC@data?2se?2sa2_01?4wav?$AA@	; `string'
PUBLIC	??_C@_0BD@NEEMKIIM@data?2se?2sa2_02?4wav?$AA@	; `string'
PUBLIC	??_C@_0BD@BPBAHLCJ@data?2se?2sa2_03?4wav?$AA@	; `string'
PUBLIC	??_C@_0BD@CBFELJB@data?2se?2sa2_04?4wav?$AA@	; `string'
PUBLIC	??_C@_0BD@MJEJJIDE@data?2se?2sa2_05?4wav?$AA@	; `string'
PUBLIC	??_C@_0BD@EPNNOKJK@data?2se?2sa2_06?4wav?$AA@	; `string'
PUBLIC	??_C@_0BD@IEIBDJDP@data?2se?2sa2_07?4wav?$AA@	; `string'
PUBLIC	??_C@_0BD@HFNHILOK@data?2se?2sa2_08?4wav?$AA@	; `string'
PUBLIC	??_C@_0BD@LOILFIEP@data?2se?2sa2_09?4wav?$AA@	; `string'
PUBLIC	??_C@_0BD@DPPDACDD@data?2se?2sa2_10?4wav?$AA@	; `string'
PUBLIC	??_C@_0BD@EFKDMOGB@data?2se?2sa3_01?4wav?$AA@	; `string'
PUBLIC	??_C@_0BD@MDDHLMMP@data?2se?2sa3_02?4wav?$AA@	; `string'
PUBLIC	??_C@_0BD@IGLGPGK@data?2se?2sa3_03?4wav?$AA@	; `string'
PUBLIC	??_C@_0BD@BFGOFPNC@data?2se?2sa3_04?4wav?$AA@	; `string'
PUBLIC	??_C@_0BD@NODCIMHH@data?2se?2sa3_05?4wav?$AA@	; `string'
PUBLIC	??_C@_0BD@FIKGPONJ@data?2se?2sa3_06?4wav?$AA@	; `string'
PUBLIC	??_C@_0BD@JDPKCNHM@data?2se?2sa3_07?4wav?$AA@	; `string'
PUBLIC	??_C@_0BD@CGJNEHOM@data?2se?2sa1_03?4wav?$AA@	; `string'
PUBLIC	??_C@_0BD@DLJIHHFE@data?2se?2sa1_04?4wav?$AA@	; `string'
PUBLIC	??_C@_0BD@PAMEKEPB@data?2se?2sa1_05?4wav?$AA@	; `string'
PUBLIC	??_C@_0BD@HGFANGFP@data?2se?2sa1_06?4wav?$AA@	; `string'
PUBLIC	??_C@_0BD@LNAMAFPK@data?2se?2sa1_07?4wav?$AA@	; `string'
PUBLIC	??_C@_0BD@EMFKLHCP@data?2se?2sa1_08?4wav?$AA@	; `string'
PUBLIC	??_C@_0BD@IHAGGEIK@data?2se?2sa1_09?4wav?$AA@	; `string'
PUBLIC	??_C@_0BD@GHODOPG@data?2se?2sa1_10?4wav?$AA@	; `string'
PUBLIC	??_C@_0BD@MNCCONFD@data?2se?2sa1_11?4wav?$AA@	; `string'
PUBLIC	??_C@_0BD@ELLGJPPN@data?2se?2sa1_12?4wav?$AA@	; `string'
PUBLIC	??_C@_0BD@GCKMJPKJ@data?2se?2sa3_08?4wav?$AA@	; `string'
PUBLIC	??_C@_0BD@KJPAEMAM@data?2se?2sa3_09?4wav?$AA@	; `string'
PUBLIC	??_C@_0BD@IAOKEMFI@data?2se?2sa1_13?4wav?$AA@	; `string'
PUBLIC	??_C@_0BD@JNOPHMOA@data?2se?2sa1_14?4wav?$AA@	; `string'
PUBLIC	??_C@_0BD@FGLDKPEF@data?2se?2sa1_15?4wav?$AA@	; `string'
PUBLIC	??_C@_0BD@NACHNNOL@data?2se?2sa1_16?4wav?$AA@	; `string'
PUBLIC	??_C@_0BD@BLHLAOEO@data?2se?2sa1_17?4wav?$AA@	; `string'
PUBLIC	??_C@_0BD@OKCNLMJL@data?2se?2sa1_18?4wav?$AA@	; `string'
PUBLIC	??_C@_0BD@CBHBGPDO@data?2se?2sa1_19?4wav?$AA@	; `string'
PUBLIC	??_C@_0BD@DHJGCEGL@data?2se?2sa1_20?4wav?$AA@	; `string'
PUBLIC	??_C@_0BD@PMMKPHMO@data?2se?2sa1_21?4wav?$AA@	; `string'
PUBLIC	??_C@_0BD@HKFOIFGA@data?2se?2sa1_22?4wav?$AA@	; `string'
PUBLIC	??_C@_0BD@LBACFGMF@data?2se?2sa1_23?4wav?$AA@	; `string'
PUBLIC	??_C@_0BD@HCDLKDDI@data?2se?2sa2_12?4wav?$AA@	; `string'
PUBLIC	??_C@_0BD@BJGEFDLL@data?2se?2sax_01?4wav?$AA@	; `string'
PUBLIC	??_C@_0BD@JPPACBBF@data?2se?2sax_02?4wav?$AA@	; `string'
PUBLIC	??_C@_0BD@FEKMPCLA@data?2se?2sax_03?4wav?$AA@	; `string'
PUBLIC	??_C@_0BD@BJLBGINM@data?2se?2sak_91?4wav?$AA@	; `string'
PUBLIC	??_C@_0BD@FEHJMJNH@data?2se?2sak_93?4wav?$AA@	; `string'
PUBLIC	??_C@_0BD@EJHMPJGP@data?2se?2sak_94?4wav?$AA@	; `string'
PUBLIC	??_C@_02JDPG@rb?$AA@				; `string'
PUBLIC	??_C@_01KDCPPGHE@r?$AA@				; `string'
PUBLIC	??_C@_07NFDJGGOK@oft?4mml?$AA@			; `string'
PUBLIC	??_C@_02DKCKIIND@?$CFs?$AA@			; `string'
PUBLIC	??_C@_0M@EFJNBEIB@?p?$KP?5?$CFd?5?z?$LM?5?$CFs?$AA@ ; `string'
PUBLIC	??_C@_0N@MJJPGILB@?p?$KP?5?$CFd?5?k?e?$DP?5?$CFs?$AA@ ; `string'
PUBLIC	??_C@_0O@PAAFIOGP@map?2bgm?$CFd?4dat?$AA@	; `string'
PUBLIC	??_C@_02DPKJAMEF@?$CFd?$AA@			; `string'
PUBLIC	??_C@_03CCKOKKND@rb?$CL?$AA@			; `string'
PUBLIC	??_C@_03HBNNNHNM@map?$AA@			; `string'
PUBLIC	??_C@_02GMLFBBN@wb?$AA@				; `string'
PUBLIC	?__LINE__Var@?0??cdda_open@@YA_NH@Z@4JA		; `cdda_open'::`1'::__LINE__Var
PUBLIC	??_C@_17CNPHIMPH@?$AA?$CF?$AAl?$AAs?$AA?$AA@	; `string'
PUBLIC	??_C@_1KO@IMAHILFL@?$AAc?$AA?3?$AA?2?$AAu?$AAs?$AAe?$AAr?$AAs?$AA?2?$AAa?$AAd?$AAm?$AAi?$AAn?$AAi?$AAs?$AAt?$AAr?$AAa?$AAt?$AAo?$AAr?$AA?2?$AAd?$AAe?$AAs?$AAk?$AAt?$AAo?$AAp?$AA?2?B?$KE@ ; `string'
PUBLIC	??_C@_07FIPNLLOL@cdaudio?$AA@			; `string'
PUBLIC	__real@0000000000000000
PUBLIC	__real@3ff0000000000000
PUBLIC	__real@4003880000000000
PUBLIC	__real@4059000000000000
PUBLIC	__real@405fc00000000000
PUBLIC	__real@40b3880000000000
PUBLIC	__real@40c3880000000000
PUBLIC	__real@42f00000
PUBLIC	__real@4644e000
PUBLIC	__real@c0c3880000000000
EXTRN	_memcpy:PROC
EXTRN	_memset:PROC
EXTRN	_strcpy:PROC
EXTRN	__imp__QueryPerformanceCounter@4:PROC
EXTRN	__imp__CreateEventA@16:PROC
EXTRN	__imp__Sleep@4:PROC
EXTRN	__imp__CreateThread@24:PROC
EXTRN	__imp__ExitThread@4:PROC
EXTRN	__imp__LoadResource@8:PROC
EXTRN	__imp__LockResource@4:PROC
EXTRN	__imp__WaitForMultipleObjects@16:PROC
EXTRN	__imp__FindResourceA@12:PROC
EXTRN	__imp__GetAsyncKeyState@4:PROC
EXTRN	__imp__mciSendCommandA@16:PROC
EXTRN	__imp__mmioOpenA@12:PROC
EXTRN	__imp__mmioClose@8:PROC
EXTRN	__imp__mmioRead@12:PROC
EXTRN	__imp__mmioDescend@16:PROC
EXTRN	__imp__mmioAscend@12:PROC
EXTRN	_abs:PROC
EXTRN	__imp___mkdir:PROC
EXTRN	__imp___CrtDbgReportW:PROC
EXTRN	?TimeGetTime@@YAIXZ:PROC			; TimeGetTime
EXTRN	_DirectSoundCreate@12:PROC
EXTRN	__imp__fclose:PROC
EXTRN	__imp__fgetc:PROC
EXTRN	__imp__fopen:PROC
EXTRN	__imp__fseek:PROC
EXTRN	__imp__fwrite:PROC
EXTRN	__imp____stdio_common_vsprintf:PROC
EXTRN	?Rnd@@YAHHH@Z:PROC				; Rnd
EXTRN	_log:PROC
EXTRN	_sqrt:PROC
EXTRN	@_RTC_CheckStackVars@8:PROC
EXTRN	@__security_check_cookie@4:PROC
EXTRN	__RTC_CheckEsp:PROC
EXTRN	__RTC_InitBase:PROC
EXTRN	__RTC_Shutdown:PROC
EXTRN	__chkstk:PROC
EXTRN	__ftol2_sse:PROC
EXTRN	_memset:PROC
EXTRN	?SaTimeZoneNo@@3HA:DWORD			; SaTimeZoneNo
EXTRN	?sCharSide@@3HA:DWORD				; sCharSide
EXTRN	?NowTime@@3KA:DWORD				; NowTime
EXTRN	_IID_IDirectSoundNotify:BYTE
EXTRN	?hWnd@@3PAUHWND__@@A:DWORD			; hWnd
EXTRN	___security_cookie:DWORD
EXTRN	__fltused:DWORD
;	COMDAT ?_OptionsStorage@?1??__local_stdio_printf_options@@9@4_KA
_BSS	SEGMENT
?_OptionsStorage@?1??__local_stdio_printf_options@@9@4_KA DQ 01H DUP (?) ; `__local_stdio_printf_options'::`2'::_OptionsStorage
_BSS	ENDS
_BSS	SEGMENT
?pDSbuffData@@3PAEA DD 01H DUP (?)			; pDSbuffData
?thread_loop_start@@3HA DD 01H DUP (?)			; thread_loop_start
?d_cnt@@3T_LARGE_INTEGER@@A DQ 01H DUP (?)		; d_cnt
?ch@@3HA DD	01H DUP (?)				; ch
?step_time@@3PAHA DD 020H DUP (?)			; step_time
?gate_time@@3PAHA DD 020H DUP (?)			; gate_time
?d_pedal@@3PAHA DD 020H DUP (?)				; d_pedal
?wave@@3PAHA DD	020H DUP (?)				; wave
?step_point@@3PAHA DD 020H DUP (?)			; step_point
?step_def@@3PAHA DD 020H DUP (?)			; step_def
?play_flg@@3PAHA DD 020H DUP (?)			; play_flg
?play_track_flg@@3PAHA DD 020H DUP (?)			; play_track_flg
?play_kuri_num@@3PAY0CA@HA DD 0100H DUP (?)		; play_kuri_num
?play_kuri_lv@@3PAHA DD 020H DUP (?)			; play_kuri_lv
?play_use_task@@3PAY07HA DD 0100H DUP (?)		; play_use_task
?dataToneNo@@3PAHA DD 020H DUP (?)			; dataToneNo
?tie_flg@@3PAHA DD 020H DUP (?)				; tie_flg
?note_old@@3PAY07HA DD 0100H DUP (?)			; note_old
?play_use_task_cnt@@3PAHA DD 020H DUP (?)		; play_use_task_cnt
?play_detune@@3PAHA DD 020H DUP (?)			; play_detune
?play_lfo_h@@3PAHA DD 020H DUP (?)			; play_lfo_h
?play_lfo_m@@3PAHA DD 020H DUP (?)			; play_lfo_m
?play_lfo_s@@3PAHA DD 020H DUP (?)			; play_lfo_s
?pause_flg@@3HA DD 01H DUP (?)				; pause_flg
?tempo@@3T_LARGE_INTEGER@@A DQ 01H DUP (?)		; tempo
?step@@3PAY0EAAA@HA DD 080000H DUP (?)			; step
?volume_tbl@@3PAJA DD 080H DUP (?)			; volume_tbl
?panpot_tbl@@3PAJA DD 080H DUP (?)			; panpot_tbl
?detune_tbl@@3PAHA DD 041H DUP (?)			; detune_tbl
?cdda_flg@@3HA DD 01H DUP (?)				; cdda_flg
_BSS	ENDS
;	COMDAT __real@c0c3880000000000
CONST	SEGMENT
__real@c0c3880000000000 DQ 0c0c3880000000000r	; -10000
CONST	ENDS
;	COMDAT __real@4644e000
CONST	SEGMENT
__real@4644e000 DD 04644e000r			; 12600
CONST	ENDS
;	COMDAT __real@42f00000
CONST	SEGMENT
__real@42f00000 DD 042f00000r			; 120
CONST	ENDS
;	COMDAT __real@40c3880000000000
CONST	SEGMENT
__real@40c3880000000000 DQ 040c3880000000000r	; 10000
CONST	ENDS
;	COMDAT __real@40b3880000000000
CONST	SEGMENT
__real@40b3880000000000 DQ 040b3880000000000r	; 5000
CONST	ENDS
;	COMDAT __real@405fc00000000000
CONST	SEGMENT
__real@405fc00000000000 DQ 0405fc00000000000r	; 127
CONST	ENDS
;	COMDAT __real@4059000000000000
CONST	SEGMENT
__real@4059000000000000 DQ 04059000000000000r	; 100
CONST	ENDS
;	COMDAT __real@4003880000000000
CONST	SEGMENT
__real@4003880000000000 DQ 04003880000000000r	; 2.44141
CONST	ENDS
;	COMDAT __real@3ff0000000000000
CONST	SEGMENT
__real@3ff0000000000000 DQ 03ff0000000000000r	; 1
CONST	ENDS
;	COMDAT __real@0000000000000000
CONST	SEGMENT
__real@0000000000000000 DQ 00000000000000000r	; 0
CONST	ENDS
;	COMDAT rtc$TMZ
rtc$TMZ	SEGMENT
__RTC_Shutdown.rtc$TMZ DD FLAT:__RTC_Shutdown
rtc$TMZ	ENDS
;	COMDAT rtc$IMZ
rtc$IMZ	SEGMENT
__RTC_InitBase.rtc$IMZ DD FLAT:__RTC_InitBase
rtc$IMZ	ENDS
;	COMDAT ??_C@_07FIPNLLOL@cdaudio?$AA@
CONST	SEGMENT
??_C@_07FIPNLLOL@cdaudio?$AA@ DB 'cdaudio', 00H		; `string'
CONST	ENDS
;	COMDAT ??_C@_1KO@IMAHILFL@?$AAc?$AA?3?$AA?2?$AAu?$AAs?$AAe?$AAr?$AAs?$AA?2?$AAa?$AAd?$AAm?$AAi?$AAn?$AAi?$AAs?$AAt?$AAr?$AAa?$AAt?$AAo?$AAr?$AA?2?$AAd?$AAe?$AAs?$AAk?$AAt?$AAo?$AAp?$AA?2?B?$KE@
CONST	SEGMENT
??_C@_1KO@IMAHILFL@?$AAc?$AA?3?$AA?2?$AAu?$AAs?$AAe?$AAr?$AAs?$AA?2?$AAa?$AAd?$AAm?$AAi?$AAn?$AAi?$AAs?$AAt?$AAr?$AAa?$AAt?$AAo?$AAr?$AA?2?$AAd?$AAe?$AAs?$AAk?$AAt?$AAo?$AAp?$AA?2?B?$KE@ DB 'c'
	DB	00H, ':', 00H, '\', 00H, 'u', 00H, 's', 00H, 'e', 00H, 'r', 00H
	DB	's', 00H, '\', 00H, 'a', 00H, 'd', 00H, 'm', 00H, 'i', 00H, 'n'
	DB	00H, 'i', 00H, 's', 00H, 't', 00H, 'r', 00H, 'a', 00H, 't', 00H
	DB	'o', 00H, 'r', 00H, '\', 00H, 'd', 00H, 'e', 00H, 's', 00H, 'k'
	DB	00H, 't', 00H, 'o', 00H, 'p', 00H, '\', 00H, 0a4H, 0c2H, 0a4H, 0d1H
	DB	0d0H, 0c5H, 't', 0c7H, 0c0H, 0c9H, ' ', 00H, 090H, 0c7H, 0ccH, 0b8H
	DB	'\', 00H, 't', 0d0H, '|', 0b7H, 't', 0c7H, 0b8H, 0c5H, 0b8H, 0d2H
	DB	' ', 00H, 090H, 0c7H, 0ccH, 0b8H, '\', 00H, 'c', 00H, 'l', 00H
	DB	'i', 00H, 'e', 00H, 'n', 00H, 't', 00H, ' ', 00H, 's', 00H, 'o'
	DB	00H, 'u', 00H, 'r', 00H, 'c', 00H, 'e', 00H, ' ', 00H, 'c', 00H
	DB	'o', 00H, 'd', 00H, 'e', 00H, '\', 00H, 's', 00H, 'y', 00H, 's'
	DB	00H, 't', 00H, 'e', 00H, 'm', 00H, '\', 00H, 't', 00H, '_', 00H
	DB	'm', 00H, 'u', 00H, 's', 00H, 'i', 00H, 'c', 00H, '.', 00H, 'c'
	DB	00H, 'p', 00H, 'p', 00H, 00H, 00H		; `string'
CONST	ENDS
;	COMDAT ??_C@_17CNPHIMPH@?$AA?$CF?$AAl?$AAs?$AA?$AA@
CONST	SEGMENT
??_C@_17CNPHIMPH@?$AA?$CF?$AAl?$AAs?$AA?$AA@ DB '%', 00H, 'l', 00H, 's', 00H
	DB	00H, 00H					; `string'
CONST	ENDS
;	COMDAT ?__LINE__Var@?0??cdda_open@@YA_NH@Z@4JA
_DATA	SEGMENT
?__LINE__Var@?0??cdda_open@@YA_NH@Z@4JA DD 0ddcH	; `cdda_open'::`1'::__LINE__Var
_DATA	ENDS
;	COMDAT ??_C@_02GMLFBBN@wb?$AA@
CONST	SEGMENT
??_C@_02GMLFBBN@wb?$AA@ DB 'wb', 00H			; `string'
CONST	ENDS
;	COMDAT ??_C@_03HBNNNHNM@map?$AA@
CONST	SEGMENT
??_C@_03HBNNNHNM@map?$AA@ DB 'map', 00H			; `string'
CONST	ENDS
;	COMDAT ??_C@_03CCKOKKND@rb?$CL?$AA@
CONST	SEGMENT
??_C@_03CCKOKKND@rb?$CL?$AA@ DB 'rb+', 00H		; `string'
CONST	ENDS
;	COMDAT ??_C@_02DPKJAMEF@?$CFd?$AA@
CONST	SEGMENT
??_C@_02DPKJAMEF@?$CFd?$AA@ DB '%d', 00H		; `string'
CONST	ENDS
;	COMDAT ??_C@_0O@PAAFIOGP@map?2bgm?$CFd?4dat?$AA@
CONST	SEGMENT
??_C@_0O@PAAFIOGP@map?2bgm?$CFd?4dat?$AA@ DB 'map\bgm%d.dat', 00H ; `string'
CONST	ENDS
;	COMDAT ??_C@_0N@MJJPGILB@?p?$KP?5?$CFd?5?k?e?$DP?5?$CFs?$AA@
CONST	SEGMENT
??_C@_0N@MJJPGILB@?p?$KP?5?$CFd?5?k?e?$DP?5?$CFs?$AA@ DB 0f0H, 0afH, ' %d'
	DB	' ', 0ebH, 0e5H, '? %s', 00H			; `string'
CONST	ENDS
;	COMDAT ??_C@_0M@EFJNBEIB@?p?$KP?5?$CFd?5?z?$LM?5?$CFs?$AA@
CONST	SEGMENT
??_C@_0M@EFJNBEIB@?p?$KP?5?$CFd?5?z?$LM?5?$CFs?$AA@ DB 0f0H, 0afH, ' %d ', 0faH
	DB	0bcH, ' %s', 00H				; `string'
CONST	ENDS
;	COMDAT ??_C@_02DKCKIIND@?$CFs?$AA@
CONST	SEGMENT
??_C@_02DKCKIIND@?$CFs?$AA@ DB '%s', 00H		; `string'
CONST	ENDS
;	COMDAT ??_C@_07NFDJGGOK@oft?4mml?$AA@
CONST	SEGMENT
??_C@_07NFDJGGOK@oft?4mml?$AA@ DB 'oft.mml', 00H	; `string'
CONST	ENDS
;	COMDAT ??_C@_01KDCPPGHE@r?$AA@
CONST	SEGMENT
??_C@_01KDCPPGHE@r?$AA@ DB 'r', 00H			; `string'
CONST	ENDS
;	COMDAT ??_C@_02JDPG@rb?$AA@
CONST	SEGMENT
??_C@_02JDPG@rb?$AA@ DB 'rb', 00H			; `string'
CONST	ENDS
;	COMDAT ??_C@_0BD@EJHMPJGP@data?2se?2sak_94?4wav?$AA@
CONST	SEGMENT
??_C@_0BD@EJHMPJGP@data?2se?2sak_94?4wav?$AA@ DB 'data\se\sak_94.wav', 00H ; `string'
CONST	ENDS
;	COMDAT ??_C@_0BD@FEHJMJNH@data?2se?2sak_93?4wav?$AA@
CONST	SEGMENT
??_C@_0BD@FEHJMJNH@data?2se?2sak_93?4wav?$AA@ DB 'data\se\sak_93.wav', 00H ; `string'
CONST	ENDS
;	COMDAT ??_C@_0BD@BJLBGINM@data?2se?2sak_91?4wav?$AA@
CONST	SEGMENT
??_C@_0BD@BJLBGINM@data?2se?2sak_91?4wav?$AA@ DB 'data\se\sak_91.wav', 00H ; `string'
CONST	ENDS
;	COMDAT ??_C@_0BD@FEKMPCLA@data?2se?2sax_03?4wav?$AA@
CONST	SEGMENT
??_C@_0BD@FEKMPCLA@data?2se?2sax_03?4wav?$AA@ DB 'data\se\sax_03.wav', 00H ; `string'
CONST	ENDS
;	COMDAT ??_C@_0BD@JPPACBBF@data?2se?2sax_02?4wav?$AA@
CONST	SEGMENT
??_C@_0BD@JPPACBBF@data?2se?2sax_02?4wav?$AA@ DB 'data\se\sax_02.wav', 00H ; `string'
CONST	ENDS
;	COMDAT ??_C@_0BD@BJGEFDLL@data?2se?2sax_01?4wav?$AA@
CONST	SEGMENT
??_C@_0BD@BJGEFDLL@data?2se?2sax_01?4wav?$AA@ DB 'data\se\sax_01.wav', 00H ; `string'
CONST	ENDS
;	COMDAT ??_C@_0BD@HCDLKDDI@data?2se?2sa2_12?4wav?$AA@
CONST	SEGMENT
??_C@_0BD@HCDLKDDI@data?2se?2sa2_12?4wav?$AA@ DB 'data\se\sa2_12.wav', 00H ; `string'
CONST	ENDS
;	COMDAT ??_C@_0BD@LBACFGMF@data?2se?2sa1_23?4wav?$AA@
CONST	SEGMENT
??_C@_0BD@LBACFGMF@data?2se?2sa1_23?4wav?$AA@ DB 'data\se\sa1_23.wav', 00H ; `string'
CONST	ENDS
;	COMDAT ??_C@_0BD@HKFOIFGA@data?2se?2sa1_22?4wav?$AA@
CONST	SEGMENT
??_C@_0BD@HKFOIFGA@data?2se?2sa1_22?4wav?$AA@ DB 'data\se\sa1_22.wav', 00H ; `string'
CONST	ENDS
;	COMDAT ??_C@_0BD@PMMKPHMO@data?2se?2sa1_21?4wav?$AA@
CONST	SEGMENT
??_C@_0BD@PMMKPHMO@data?2se?2sa1_21?4wav?$AA@ DB 'data\se\sa1_21.wav', 00H ; `string'
CONST	ENDS
;	COMDAT ??_C@_0BD@DHJGCEGL@data?2se?2sa1_20?4wav?$AA@
CONST	SEGMENT
??_C@_0BD@DHJGCEGL@data?2se?2sa1_20?4wav?$AA@ DB 'data\se\sa1_20.wav', 00H ; `string'
CONST	ENDS
;	COMDAT ??_C@_0BD@CBHBGPDO@data?2se?2sa1_19?4wav?$AA@
CONST	SEGMENT
??_C@_0BD@CBHBGPDO@data?2se?2sa1_19?4wav?$AA@ DB 'data\se\sa1_19.wav', 00H ; `string'
CONST	ENDS
;	COMDAT ??_C@_0BD@OKCNLMJL@data?2se?2sa1_18?4wav?$AA@
CONST	SEGMENT
??_C@_0BD@OKCNLMJL@data?2se?2sa1_18?4wav?$AA@ DB 'data\se\sa1_18.wav', 00H ; `string'
CONST	ENDS
;	COMDAT ??_C@_0BD@BLHLAOEO@data?2se?2sa1_17?4wav?$AA@
CONST	SEGMENT
??_C@_0BD@BLHLAOEO@data?2se?2sa1_17?4wav?$AA@ DB 'data\se\sa1_17.wav', 00H ; `string'
CONST	ENDS
;	COMDAT ??_C@_0BD@NACHNNOL@data?2se?2sa1_16?4wav?$AA@
CONST	SEGMENT
??_C@_0BD@NACHNNOL@data?2se?2sa1_16?4wav?$AA@ DB 'data\se\sa1_16.wav', 00H ; `string'
CONST	ENDS
;	COMDAT ??_C@_0BD@FGLDKPEF@data?2se?2sa1_15?4wav?$AA@
CONST	SEGMENT
??_C@_0BD@FGLDKPEF@data?2se?2sa1_15?4wav?$AA@ DB 'data\se\sa1_15.wav', 00H ; `string'
CONST	ENDS
;	COMDAT ??_C@_0BD@JNOPHMOA@data?2se?2sa1_14?4wav?$AA@
CONST	SEGMENT
??_C@_0BD@JNOPHMOA@data?2se?2sa1_14?4wav?$AA@ DB 'data\se\sa1_14.wav', 00H ; `string'
CONST	ENDS
;	COMDAT ??_C@_0BD@IAOKEMFI@data?2se?2sa1_13?4wav?$AA@
CONST	SEGMENT
??_C@_0BD@IAOKEMFI@data?2se?2sa1_13?4wav?$AA@ DB 'data\se\sa1_13.wav', 00H ; `string'
CONST	ENDS
;	COMDAT ??_C@_0BD@KJPAEMAM@data?2se?2sa3_09?4wav?$AA@
CONST	SEGMENT
??_C@_0BD@KJPAEMAM@data?2se?2sa3_09?4wav?$AA@ DB 'data\se\sa3_09.wav', 00H ; `string'
CONST	ENDS
;	COMDAT ??_C@_0BD@GCKMJPKJ@data?2se?2sa3_08?4wav?$AA@
CONST	SEGMENT
??_C@_0BD@GCKMJPKJ@data?2se?2sa3_08?4wav?$AA@ DB 'data\se\sa3_08.wav', 00H ; `string'
CONST	ENDS
;	COMDAT ??_C@_0BD@ELLGJPPN@data?2se?2sa1_12?4wav?$AA@
CONST	SEGMENT
??_C@_0BD@ELLGJPPN@data?2se?2sa1_12?4wav?$AA@ DB 'data\se\sa1_12.wav', 00H ; `string'
CONST	ENDS
;	COMDAT ??_C@_0BD@MNCCONFD@data?2se?2sa1_11?4wav?$AA@
CONST	SEGMENT
??_C@_0BD@MNCCONFD@data?2se?2sa1_11?4wav?$AA@ DB 'data\se\sa1_11.wav', 00H ; `string'
CONST	ENDS
;	COMDAT ??_C@_0BD@GHODOPG@data?2se?2sa1_10?4wav?$AA@
CONST	SEGMENT
??_C@_0BD@GHODOPG@data?2se?2sa1_10?4wav?$AA@ DB 'data\se\sa1_10.wav', 00H ; `string'
CONST	ENDS
;	COMDAT ??_C@_0BD@IHAGGEIK@data?2se?2sa1_09?4wav?$AA@
CONST	SEGMENT
??_C@_0BD@IHAGGEIK@data?2se?2sa1_09?4wav?$AA@ DB 'data\se\sa1_09.wav', 00H ; `string'
CONST	ENDS
;	COMDAT ??_C@_0BD@EMFKLHCP@data?2se?2sa1_08?4wav?$AA@
CONST	SEGMENT
??_C@_0BD@EMFKLHCP@data?2se?2sa1_08?4wav?$AA@ DB 'data\se\sa1_08.wav', 00H ; `string'
CONST	ENDS
;	COMDAT ??_C@_0BD@LNAMAFPK@data?2se?2sa1_07?4wav?$AA@
CONST	SEGMENT
??_C@_0BD@LNAMAFPK@data?2se?2sa1_07?4wav?$AA@ DB 'data\se\sa1_07.wav', 00H ; `string'
CONST	ENDS
;	COMDAT ??_C@_0BD@HGFANGFP@data?2se?2sa1_06?4wav?$AA@
CONST	SEGMENT
??_C@_0BD@HGFANGFP@data?2se?2sa1_06?4wav?$AA@ DB 'data\se\sa1_06.wav', 00H ; `string'
CONST	ENDS
;	COMDAT ??_C@_0BD@PAMEKEPB@data?2se?2sa1_05?4wav?$AA@
CONST	SEGMENT
??_C@_0BD@PAMEKEPB@data?2se?2sa1_05?4wav?$AA@ DB 'data\se\sa1_05.wav', 00H ; `string'
CONST	ENDS
;	COMDAT ??_C@_0BD@DLJIHHFE@data?2se?2sa1_04?4wav?$AA@
CONST	SEGMENT
??_C@_0BD@DLJIHHFE@data?2se?2sa1_04?4wav?$AA@ DB 'data\se\sa1_04.wav', 00H ; `string'
CONST	ENDS
;	COMDAT ??_C@_0BD@CGJNEHOM@data?2se?2sa1_03?4wav?$AA@
CONST	SEGMENT
??_C@_0BD@CGJNEHOM@data?2se?2sa1_03?4wav?$AA@ DB 'data\se\sa1_03.wav', 00H ; `string'
CONST	ENDS
;	COMDAT ??_C@_0BD@JDPKCNHM@data?2se?2sa3_07?4wav?$AA@
CONST	SEGMENT
??_C@_0BD@JDPKCNHM@data?2se?2sa3_07?4wav?$AA@ DB 'data\se\sa3_07.wav', 00H ; `string'
CONST	ENDS
;	COMDAT ??_C@_0BD@FIKGPONJ@data?2se?2sa3_06?4wav?$AA@
CONST	SEGMENT
??_C@_0BD@FIKGPONJ@data?2se?2sa3_06?4wav?$AA@ DB 'data\se\sa3_06.wav', 00H ; `string'
CONST	ENDS
;	COMDAT ??_C@_0BD@NODCIMHH@data?2se?2sa3_05?4wav?$AA@
CONST	SEGMENT
??_C@_0BD@NODCIMHH@data?2se?2sa3_05?4wav?$AA@ DB 'data\se\sa3_05.wav', 00H ; `string'
CONST	ENDS
;	COMDAT ??_C@_0BD@BFGOFPNC@data?2se?2sa3_04?4wav?$AA@
CONST	SEGMENT
??_C@_0BD@BFGOFPNC@data?2se?2sa3_04?4wav?$AA@ DB 'data\se\sa3_04.wav', 00H ; `string'
CONST	ENDS
;	COMDAT ??_C@_0BD@IGLGPGK@data?2se?2sa3_03?4wav?$AA@
CONST	SEGMENT
??_C@_0BD@IGLGPGK@data?2se?2sa3_03?4wav?$AA@ DB 'data\se\sa3_03.wav', 00H ; `string'
CONST	ENDS
;	COMDAT ??_C@_0BD@MDDHLMMP@data?2se?2sa3_02?4wav?$AA@
CONST	SEGMENT
??_C@_0BD@MDDHLMMP@data?2se?2sa3_02?4wav?$AA@ DB 'data\se\sa3_02.wav', 00H ; `string'
CONST	ENDS
;	COMDAT ??_C@_0BD@EFKDMOGB@data?2se?2sa3_01?4wav?$AA@
CONST	SEGMENT
??_C@_0BD@EFKDMOGB@data?2se?2sa3_01?4wav?$AA@ DB 'data\se\sa3_01.wav', 00H ; `string'
CONST	ENDS
;	COMDAT ??_C@_0BD@DPPDACDD@data?2se?2sa2_10?4wav?$AA@
CONST	SEGMENT
??_C@_0BD@DPPDACDD@data?2se?2sa2_10?4wav?$AA@ DB 'data\se\sa2_10.wav', 00H ; `string'
CONST	ENDS
;	COMDAT ??_C@_0BD@LOILFIEP@data?2se?2sa2_09?4wav?$AA@
CONST	SEGMENT
??_C@_0BD@LOILFIEP@data?2se?2sa2_09?4wav?$AA@ DB 'data\se\sa2_09.wav', 00H ; `string'
CONST	ENDS
;	COMDAT ??_C@_0BD@HFNHILOK@data?2se?2sa2_08?4wav?$AA@
CONST	SEGMENT
??_C@_0BD@HFNHILOK@data?2se?2sa2_08?4wav?$AA@ DB 'data\se\sa2_08.wav', 00H ; `string'
CONST	ENDS
;	COMDAT ??_C@_0BD@IEIBDJDP@data?2se?2sa2_07?4wav?$AA@
CONST	SEGMENT
??_C@_0BD@IEIBDJDP@data?2se?2sa2_07?4wav?$AA@ DB 'data\se\sa2_07.wav', 00H ; `string'
CONST	ENDS
;	COMDAT ??_C@_0BD@EPNNOKJK@data?2se?2sa2_06?4wav?$AA@
CONST	SEGMENT
??_C@_0BD@EPNNOKJK@data?2se?2sa2_06?4wav?$AA@ DB 'data\se\sa2_06.wav', 00H ; `string'
CONST	ENDS
;	COMDAT ??_C@_0BD@MJEJJIDE@data?2se?2sa2_05?4wav?$AA@
CONST	SEGMENT
??_C@_0BD@MJEJJIDE@data?2se?2sa2_05?4wav?$AA@ DB 'data\se\sa2_05.wav', 00H ; `string'
CONST	ENDS
;	COMDAT ??_C@_0BD@CBFELJB@data?2se?2sa2_04?4wav?$AA@
CONST	SEGMENT
??_C@_0BD@CBFELJB@data?2se?2sa2_04?4wav?$AA@ DB 'data\se\sa2_04.wav', 00H ; `string'
CONST	ENDS
;	COMDAT ??_C@_0BD@BPBAHLCJ@data?2se?2sa2_03?4wav?$AA@
CONST	SEGMENT
??_C@_0BD@BPBAHLCJ@data?2se?2sa2_03?4wav?$AA@ DB 'data\se\sa2_03.wav', 00H ; `string'
CONST	ENDS
;	COMDAT ??_C@_0BD@NEEMKIIM@data?2se?2sa2_02?4wav?$AA@
CONST	SEGMENT
??_C@_0BD@NEEMKIIM@data?2se?2sa2_02?4wav?$AA@ DB 'data\se\sa2_02.wav', 00H ; `string'
CONST	ENDS
;	COMDAT ??_C@_0BD@FCNINKCC@data?2se?2sa2_01?4wav?$AA@
CONST	SEGMENT
??_C@_0BD@FCNINKCC@data?2se?2sa2_01?4wav?$AA@ DB 'data\se\sa2_01.wav', 00H ; `string'
CONST	ENDS
;	COMDAT ??_C@_0BD@ONMBJEEJ@data?2se?2sa1_02?4wav?$AA@
CONST	SEGMENT
??_C@_0BD@ONMBJEEJ@data?2se?2sa1_02?4wav?$AA@ DB 'data\se\sa1_02.wav', 00H ; `string'
CONST	ENDS
;	COMDAT ??_C@_0BD@GLFFOGOH@data?2se?2sa1_01?4wav?$AA@
CONST	SEGMENT
??_C@_0BD@GLFFOGOH@data?2se?2sa1_01?4wav?$AA@ DB 'data\se\sa1_01.wav', 00H ; `string'
CONST	ENDS
;	COMDAT ??_C@_0BE@LLFBHJIE@data?2se?2saam_27?4wav?$AA@
CONST	SEGMENT
??_C@_0BE@LLFBHJIE@data?2se?2saam_27?4wav?$AA@ DB 'data\se\saam_27.wav', 00H ; `string'
CONST	ENDS
;	COMDAT ??_C@_0BE@HAANKKCB@data?2se?2saam_26?4wav?$AA@
CONST	SEGMENT
??_C@_0BE@HAANKKCB@data?2se?2saam_26?4wav?$AA@ DB 'data\se\saam_26.wav', 00H ; `string'
CONST	ENDS
;	COMDAT ??_C@_0BE@PGJJNIIP@data?2se?2saam_25?4wav?$AA@
CONST	SEGMENT
??_C@_0BE@PGJJNIIP@data?2se?2saam_25?4wav?$AA@ DB 'data\se\saam_25.wav', 00H ; `string'
CONST	ENDS
;	COMDAT ??_C@_0BE@DNMFALCK@data?2se?2saam_24?4wav?$AA@
CONST	SEGMENT
??_C@_0BE@DNMFALCK@data?2se?2saam_24?4wav?$AA@ DB 'data\se\saam_24.wav', 00H ; `string'
CONST	ENDS
;	COMDAT ??_C@_0BE@CAMADLJC@data?2se?2saam_23?4wav?$AA@
CONST	SEGMENT
??_C@_0BE@CAMADLJC@data?2se?2saam_23?4wav?$AA@ DB 'data\se\saam_23.wav', 00H ; `string'
CONST	ENDS
;	COMDAT ??_C@_0BE@OLJMOIDH@data?2se?2saam_22?4wav?$AA@
CONST	SEGMENT
??_C@_0BE@OLJMOIDH@data?2se?2saam_22?4wav?$AA@ DB 'data\se\saam_22.wav', 00H ; `string'
CONST	ENDS
;	COMDAT ??_C@_0BE@GNAIJKJJ@data?2se?2saam_21?4wav?$AA@
CONST	SEGMENT
??_C@_0BE@GNAIJKJJ@data?2se?2saam_21?4wav?$AA@ DB 'data\se\saam_21.wav', 00H ; `string'
CONST	ENDS
;	COMDAT ??_C@_0BE@KGFEEJDM@data?2se?2saam_20?4wav?$AA@
CONST	SEGMENT
??_C@_0BE@KGFEEJDM@data?2se?2saam_20?4wav?$AA@ DB 'data\se\saam_20.wav', 00H ; `string'
CONST	ENDS
;	COMDAT ??_C@_0BE@LALDACGJ@data?2se?2saam_19?4wav?$AA@
CONST	SEGMENT
??_C@_0BE@LALDACGJ@data?2se?2saam_19?4wav?$AA@ DB 'data\se\saam_19.wav', 00H ; `string'
CONST	ENDS
;	COMDAT ??_C@_0BE@HLOPNBMM@data?2se?2saam_18?4wav?$AA@
CONST	SEGMENT
??_C@_0BE@HLOPNBMM@data?2se?2saam_18?4wav?$AA@ DB 'data\se\saam_18.wav', 00H ; `string'
CONST	ENDS
;	COMDAT ??_C@_0BE@IKLJGDBJ@data?2se?2saam_17?4wav?$AA@
CONST	SEGMENT
??_C@_0BE@IKLJGDBJ@data?2se?2saam_17?4wav?$AA@ DB 'data\se\saam_17.wav', 00H ; `string'
CONST	ENDS
;	COMDAT ??_C@_0BE@EBOFLALM@data?2se?2saam_16?4wav?$AA@
CONST	SEGMENT
??_C@_0BE@EBOFLALM@data?2se?2saam_16?4wav?$AA@ DB 'data\se\saam_16.wav', 00H ; `string'
CONST	ENDS
;	COMDAT ??_C@_0BE@MHHBMCBC@data?2se?2saam_15?4wav?$AA@
CONST	SEGMENT
??_C@_0BE@MHHBMCBC@data?2se?2saam_15?4wav?$AA@ DB 'data\se\saam_15.wav', 00H ; `string'
CONST	ENDS
;	COMDAT ??_C@_0BE@MCNBBLH@data?2se?2saam_14?4wav?$AA@
CONST	SEGMENT
??_C@_0BE@MCNBBLH@data?2se?2saam_14?4wav?$AA@ DB 'data\se\saam_14.wav', 00H ; `string'
CONST	ENDS
;	COMDAT ??_C@_0BE@BBCICBAP@data?2se?2saam_13?4wav?$AA@
CONST	SEGMENT
??_C@_0BE@BBCICBAP@data?2se?2saam_13?4wav?$AA@ DB 'data\se\saam_13.wav', 00H ; `string'
CONST	ENDS
;	COMDAT ??_C@_0BE@NKHEPCKK@data?2se?2saam_12?4wav?$AA@
CONST	SEGMENT
??_C@_0BE@NKHEPCKK@data?2se?2saam_12?4wav?$AA@ DB 'data\se\saam_12.wav', 00H ; `string'
CONST	ENDS
;	COMDAT ??_C@_0BE@FMOAIAAE@data?2se?2saam_11?4wav?$AA@
CONST	SEGMENT
??_C@_0BE@FMOAIAAE@data?2se?2saam_11?4wav?$AA@ DB 'data\se\saam_11.wav', 00H ; `string'
CONST	ENDS
;	COMDAT ??_C@_0BE@JHLMFDKB@data?2se?2saam_10?4wav?$AA@
CONST	SEGMENT
??_C@_0BE@JHLMFDKB@data?2se?2saam_10?4wav?$AA@ DB 'data\se\saam_10.wav', 00H ; `string'
CONST	ENDS
;	COMDAT ??_C@_0BE@BGMEAJNN@data?2se?2saam_09?4wav?$AA@
CONST	SEGMENT
??_C@_0BE@BGMEAJNN@data?2se?2saam_09?4wav?$AA@ DB 'data\se\saam_09.wav', 00H ; `string'
CONST	ENDS
;	COMDAT ??_C@_0BE@NNJINKHI@data?2se?2saam_08?4wav?$AA@
CONST	SEGMENT
??_C@_0BE@NNJINKHI@data?2se?2saam_08?4wav?$AA@ DB 'data\se\saam_08.wav', 00H ; `string'
CONST	ENDS
;	COMDAT ??_C@_0BE@CMMOGIKN@data?2se?2saam_07?4wav?$AA@
CONST	SEGMENT
??_C@_0BE@CMMOGIKN@data?2se?2saam_07?4wav?$AA@ DB 'data\se\saam_07.wav', 00H ; `string'
CONST	ENDS
;	COMDAT ??_C@_0BE@OHJCLLAI@data?2se?2saam_06?4wav?$AA@
CONST	SEGMENT
??_C@_0BE@OHJCLLAI@data?2se?2saam_06?4wav?$AA@ DB 'data\se\saam_06.wav', 00H ; `string'
CONST	ENDS
;	COMDAT ??_C@_0BE@GBAGMJKG@data?2se?2saam_05?4wav?$AA@
CONST	SEGMENT
??_C@_0BE@GBAGMJKG@data?2se?2saam_05?4wav?$AA@ DB 'data\se\saam_05.wav', 00H ; `string'
CONST	ENDS
;	COMDAT ??_C@_0BE@KKFKBKAD@data?2se?2saam_04?4wav?$AA@
CONST	SEGMENT
??_C@_0BE@KKFKBKAD@data?2se?2saam_04?4wav?$AA@ DB 'data\se\saam_04.wav', 00H ; `string'
CONST	ENDS
;	COMDAT ??_C@_0BE@LHFPCKLL@data?2se?2saam_03?4wav?$AA@
CONST	SEGMENT
??_C@_0BE@LHFPCKLL@data?2se?2saam_03?4wav?$AA@ DB 'data\se\saam_03.wav', 00H ; `string'
CONST	ENDS
;	COMDAT ??_C@_0BE@HMADPJBO@data?2se?2saam_02?4wav?$AA@
CONST	SEGMENT
??_C@_0BE@HMADPJBO@data?2se?2saam_02?4wav?$AA@ DB 'data\se\saam_02.wav', 00H ; `string'
CONST	ENDS
;	COMDAT ??_C@_0BE@PKJHILLA@data?2se?2saam_01?4wav?$AA@
CONST	SEGMENT
??_C@_0BE@PKJHILLA@data?2se?2saam_01?4wav?$AA@ DB 'data\se\saam_01.wav', 00H ; `string'
CONST	ENDS
;	COMDAT ??_C@_0BD@MIABKAMI@data?2se?2sad_05?4wav?$AA@
CONST	SEGMENT
??_C@_0BD@MIABKAMI@data?2se?2sad_05?4wav?$AA@ DB 'data\se\sad_05.wav', 00H ; `string'
CONST	ENDS
;	COMDAT ??_C@_0BD@DFNHDGN@data?2se?2sad_04?4wav?$AA@
CONST	SEGMENT
??_C@_0BD@DFNHDGN@data?2se?2sad_04?4wav?$AA@ DB 'data\se\sad_04.wav', 00H ; `string'
CONST	ENDS
;	COMDAT ??_C@_0BD@BOFIEDNF@data?2se?2sad_03?4wav?$AA@
CONST	SEGMENT
??_C@_0BD@BOFIEDNF@data?2se?2sad_03?4wav?$AA@ DB 'data\se\sad_03.wav', 00H ; `string'
CONST	ENDS
;	COMDAT ??_C@_0BD@NFAEJAHA@data?2se?2sad_02?4wav?$AA@
CONST	SEGMENT
??_C@_0BD@NFAEJAHA@data?2se?2sad_02?4wav?$AA@ DB 'data\se\sad_02.wav', 00H ; `string'
CONST	ENDS
;	COMDAT ??_C@_0BD@FDJAOCNO@data?2se?2sad_01?4wav?$AA@
CONST	SEGMENT
??_C@_0BD@FDJAOCNO@data?2se?2sad_01?4wav?$AA@ DB 'data\se\sad_01.wav', 00H ; `string'
CONST	ENDS
;	COMDAT ??_C@_0BD@MKONMEP@data?2se?2sas_21?4wav?$AA@
CONST	SEGMENT
??_C@_0BD@MKONMEP@data?2se?2sas_21?4wav?$AA@ DB 'data\se\sas_21.wav', 00H ; `string'
CONST	ENDS
;	COMDAT ??_C@_0BD@MHPCAPOK@data?2se?2sas_20?4wav?$AA@
CONST	SEGMENT
??_C@_0BD@MHPCAPOK@data?2se?2sas_20?4wav?$AA@ DB 'data\se\sas_20.wav', 00H ; `string'
CONST	ENDS
;	COMDAT ??_C@_0BD@NBBFEELP@data?2se?2sas_19?4wav?$AA@
CONST	SEGMENT
??_C@_0BD@NBBFEELP@data?2se?2sas_19?4wav?$AA@ DB 'data\se\sas_19.wav', 00H ; `string'
CONST	ENDS
;	COMDAT ??_C@_0BD@BKEJJHBK@data?2se?2sas_18?4wav?$AA@
CONST	SEGMENT
??_C@_0BD@BKEJJHBK@data?2se?2sas_18?4wav?$AA@ DB 'data\se\sas_18.wav', 00H ; `string'
CONST	ENDS
;	COMDAT ??_C@_0BD@OLBPCFMP@data?2se?2sas_17?4wav?$AA@
CONST	SEGMENT
??_C@_0BD@OLBPCFMP@data?2se?2sas_17?4wav?$AA@ DB 'data\se\sas_17.wav', 00H ; `string'
CONST	ENDS
;	COMDAT ??_C@_0BD@CAEDPGGK@data?2se?2sas_16?4wav?$AA@
CONST	SEGMENT
??_C@_0BD@CAEDPGGK@data?2se?2sas_16?4wav?$AA@ DB 'data\se\sas_16.wav', 00H ; `string'
CONST	ENDS
;	COMDAT ??_C@_0BD@KGNHIEME@data?2se?2sas_15?4wav?$AA@
CONST	SEGMENT
??_C@_0BD@KGNHIEME@data?2se?2sas_15?4wav?$AA@ DB 'data\se\sas_15.wav', 00H ; `string'
CONST	ENDS
;	COMDAT ??_C@_0BD@HAIOGHNJ@data?2se?2sas_13?4wav?$AA@
CONST	SEGMENT
??_C@_0BD@HAIOGHNJ@data?2se?2sas_13?4wav?$AA@ DB 'data\se\sas_13.wav', 00H ; `string'
CONST	ENDS
;	COMDAT ??_C@_0BD@LLNCLEHM@data?2se?2sas_12?4wav?$AA@
CONST	SEGMENT
??_C@_0BD@LLNCLEHM@data?2se?2sas_12?4wav?$AA@ DB 'data\se\sas_12.wav', 00H ; `string'
CONST	ENDS
;	COMDAT ??_C@_0BD@DNEGMGNC@data?2se?2sas_11?4wav?$AA@
CONST	SEGMENT
??_C@_0BD@DNEGMGNC@data?2se?2sas_11?4wav?$AA@ DB 'data\se\sas_11.wav', 00H ; `string'
CONST	ENDS
;	COMDAT ??_C@_0BD@PGBKBFHH@data?2se?2sas_10?4wav?$AA@
CONST	SEGMENT
??_C@_0BD@PGBKBFHH@data?2se?2sas_10?4wav?$AA@ DB 'data\se\sas_10.wav', 00H ; `string'
CONST	ENDS
;	COMDAT ??_C@_0BD@HHGCEPAL@data?2se?2sas_09?4wav?$AA@
CONST	SEGMENT
??_C@_0BD@HHGCEPAL@data?2se?2sas_09?4wav?$AA@ DB 'data\se\sas_09.wav', 00H ; `string'
CONST	ENDS
;	COMDAT ??_C@_0BD@LMDOJMKO@data?2se?2sas_08?4wav?$AA@
CONST	SEGMENT
??_C@_0BD@LMDOJMKO@data?2se?2sas_08?4wav?$AA@ DB 'data\se\sas_08.wav', 00H ; `string'
CONST	ENDS
;	COMDAT ??_C@_0BD@ENGICOHL@data?2se?2sas_07?4wav?$AA@
CONST	SEGMENT
??_C@_0BD@ENGICOHL@data?2se?2sas_07?4wav?$AA@ DB 'data\se\sas_07.wav', 00H ; `string'
CONST	ENDS
;	COMDAT ??_C@_0BD@IGDEPNNO@data?2se?2sas_06?4wav?$AA@
CONST	SEGMENT
??_C@_0BD@IGDEPNNO@data?2se?2sas_06?4wav?$AA@ DB 'data\se\sas_06.wav', 00H ; `string'
CONST	ENDS
;	COMDAT ??_C@_0BD@KAIPHA@data?2se?2sas_05?4wav?$AA@
CONST	SEGMENT
??_C@_0BD@KAIPHA@data?2se?2sas_05?4wav?$AA@ DB 'data\se\sas_05.wav', 00H ; `string'
CONST	ENDS
;	COMDAT ??_C@_0BD@MLPMFMNF@data?2se?2sas_04?4wav?$AA@
CONST	SEGMENT
??_C@_0BD@MLPMFMNF@data?2se?2sas_04?4wav?$AA@ DB 'data\se\sas_04.wav', 00H ; `string'
CONST	ENDS
;	COMDAT ??_C@_0BD@NGPJGMGN@data?2se?2sas_03?4wav?$AA@
CONST	SEGMENT
??_C@_0BD@NGPJGMGN@data?2se?2sas_03?4wav?$AA@ DB 'data\se\sas_03.wav', 00H ; `string'
CONST	ENDS
;	COMDAT ??_C@_0BD@BNKFLPMI@data?2se?2sas_02?4wav?$AA@
CONST	SEGMENT
??_C@_0BD@BNKFLPMI@data?2se?2sas_02?4wav?$AA@ DB 'data\se\sas_02.wav', 00H ; `string'
CONST	ENDS
;	COMDAT ??_C@_0BD@JLDBMNGG@data?2se?2sas_01?4wav?$AA@
CONST	SEGMENT
??_C@_0BD@JLDBMNGG@data?2se?2sas_01?4wav?$AA@ DB 'data\se\sas_01.wav', 00H ; `string'
CONST	ENDS
;	COMDAT ??_C@_0BE@PLDLHOLA@data?2se?2sak_09b?4wav?$AA@
CONST	SEGMENT
??_C@_0BE@PLDLHOLA@data?2se?2sak_09b?4wav?$AA@ DB 'data\se\sak_09b.wav', 00H ; `string'
CONST	ENDS
;	COMDAT ??_C@_0BD@PMAHMFKG@data?2se?2sak_17?4wav?$AA@
CONST	SEGMENT
??_C@_0BD@PMAHMFKG@data?2se?2sak_17?4wav?$AA@ DB 'data\se\sak_17.wav', 00H ; `string'
CONST	ENDS
;	COMDAT ??_C@_0BD@DHFLBGAD@data?2se?2sak_16?4wav?$AA@
CONST	SEGMENT
??_C@_0BD@DHFLBGAD@data?2se?2sak_16?4wav?$AA@ DB 'data\se\sak_16.wav', 00H ; `string'
CONST	ENDS
;	COMDAT ??_C@_0BD@LBMPGEKN@data?2se?2sak_15?4wav?$AA@
CONST	SEGMENT
??_C@_0BD@LBMPGEKN@data?2se?2sak_15?4wav?$AA@ DB 'data\se\sak_15.wav', 00H ; `string'
CONST	ENDS
;	COMDAT ??_C@_0BD@HKJDLHAI@data?2se?2sak_14?4wav?$AA@
CONST	SEGMENT
??_C@_0BD@HKJDLHAI@data?2se?2sak_14?4wav?$AA@ DB 'data\se\sak_14.wav', 00H ; `string'
CONST	ENDS
;	COMDAT ??_C@_0BD@GHJGIHLA@data?2se?2sak_13?4wav?$AA@
CONST	SEGMENT
??_C@_0BD@GHJGIHLA@data?2se?2sak_13?4wav?$AA@ DB 'data\se\sak_13.wav', 00H ; `string'
CONST	ENDS
;	COMDAT ??_C@_0BD@KMMKFEBF@data?2se?2sak_12?4wav?$AA@
CONST	SEGMENT
??_C@_0BD@KMMKFEBF@data?2se?2sak_12?4wav?$AA@ DB 'data\se\sak_12.wav', 00H ; `string'
CONST	ENDS
;	COMDAT ??_C@_0BD@CKFOCGLL@data?2se?2sak_11?4wav?$AA@
CONST	SEGMENT
??_C@_0BD@CKFOCGLL@data?2se?2sak_11?4wav?$AA@ DB 'data\se\sak_11.wav', 00H ; `string'
CONST	ENDS
;	COMDAT ??_C@_0BD@OBACPFBO@data?2se?2sak_10?4wav?$AA@
CONST	SEGMENT
??_C@_0BD@OBACPFBO@data?2se?2sak_10?4wav?$AA@ DB 'data\se\sak_10.wav', 00H ; `string'
CONST	ENDS
;	COMDAT ??_C@_0BE@HNKPAMBO@data?2se?2sak_09a?4wav?$AA@
CONST	SEGMENT
??_C@_0BE@HNKPAMBO@data?2se?2sak_09a?4wav?$AA@ DB 'data\se\sak_09a.wav', 00H ; `string'
CONST	ENDS
;	COMDAT ??_C@_0BD@KLCGHMMH@data?2se?2sak_08?4wav?$AA@
CONST	SEGMENT
??_C@_0BD@KLCGHMMH@data?2se?2sak_08?4wav?$AA@ DB 'data\se\sak_08.wav', 00H ; `string'
CONST	ENDS
;	COMDAT ??_C@_0BD@FKHAMOBC@data?2se?2sak_07?4wav?$AA@
CONST	SEGMENT
??_C@_0BD@FKHAMOBC@data?2se?2sak_07?4wav?$AA@ DB 'data\se\sak_07.wav', 00H ; `string'
CONST	ENDS
;	COMDAT ??_C@_0BD@JBCMBNLH@data?2se?2sak_06?4wav?$AA@
CONST	SEGMENT
??_C@_0BD@JBCMBNLH@data?2se?2sak_06?4wav?$AA@ DB 'data\se\sak_06.wav', 00H ; `string'
CONST	ENDS
;	COMDAT ??_C@_0BD@BHLIGPBJ@data?2se?2sak_05?4wav?$AA@
CONST	SEGMENT
??_C@_0BD@BHLIGPBJ@data?2se?2sak_05?4wav?$AA@ DB 'data\se\sak_05.wav', 00H ; `string'
CONST	ENDS
;	COMDAT ??_C@_0BD@NMOELMLM@data?2se?2sak_04?4wav?$AA@
CONST	SEGMENT
??_C@_0BD@NMOELMLM@data?2se?2sak_04?4wav?$AA@ DB 'data\se\sak_04.wav', 00H ; `string'
CONST	ENDS
;	COMDAT ??_C@_0BD@MBOBIMAE@data?2se?2sak_03?4wav?$AA@
CONST	SEGMENT
??_C@_0BD@MBOBIMAE@data?2se?2sak_03?4wav?$AA@ DB 'data\se\sak_03.wav', 00H ; `string'
CONST	ENDS
;	COMDAT ??_C@_0BD@KLNFPKB@data?2se?2sak_02?4wav?$AA@
CONST	SEGMENT
??_C@_0BD@KLNFPKB@data?2se?2sak_02?4wav?$AA@ DB 'data\se\sak_02.wav', 00H ; `string'
CONST	ENDS
;	COMDAT ??_C@_0BD@IMCJCNAP@data?2se?2sak_01?4wav?$AA@
CONST	SEGMENT
??_C@_0BD@IMCJCNAP@data?2se?2sak_01?4wav?$AA@ DB 'data\se\sak_01.wav', 00H ; `string'
CONST	ENDS
;	COMDAT ??_C@_0BD@DIGBNEBP@data?2se?2sam_24?4wav?$AA@
CONST	SEGMENT
??_C@_0BD@DIGBNEBP@data?2se?2sam_24?4wav?$AA@ DB 'data\se\sam_24.wav', 00H ; `string'
CONST	ENDS
;	COMDAT ??_C@_0BD@CFGEOEKH@data?2se?2sam_23?4wav?$AA@
CONST	SEGMENT
??_C@_0BD@CFGEOEKH@data?2se?2sam_23?4wav?$AA@ DB 'data\se\sam_23.wav', 00H ; `string'
CONST	ENDS
;	COMDAT ??_C@_0BD@OODIDHAC@data?2se?2sam_22?4wav?$AA@
CONST	SEGMENT
??_C@_0BD@OODIDHAC@data?2se?2sam_22?4wav?$AA@ DB 'data\se\sam_22.wav', 00H ; `string'
CONST	ENDS
;	COMDAT ??_C@_0BD@GIKMEFKM@data?2se?2sam_21?4wav?$AA@
CONST	SEGMENT
??_C@_0BD@GIKMEFKM@data?2se?2sam_21?4wav?$AA@ DB 'data\se\sam_21.wav', 00H ; `string'
CONST	ENDS
;	COMDAT ??_C@_0BD@KDPAJGAJ@data?2se?2sam_20?4wav?$AA@
CONST	SEGMENT
??_C@_0BD@KDPAJGAJ@data?2se?2sam_20?4wav?$AA@ DB 'data\se\sam_20.wav', 00H ; `string'
CONST	ENDS
;	COMDAT ??_C@_0BD@LFBHNNFM@data?2se?2sam_19?4wav?$AA@
CONST	SEGMENT
??_C@_0BD@LFBHNNFM@data?2se?2sam_19?4wav?$AA@ DB 'data\se\sam_19.wav', 00H ; `string'
CONST	ENDS
;	COMDAT ??_C@_0BD@HOELAOPJ@data?2se?2sam_18?4wav?$AA@
CONST	SEGMENT
??_C@_0BD@HOELAOPJ@data?2se?2sam_18?4wav?$AA@ DB 'data\se\sam_18.wav', 00H ; `string'
CONST	ENDS
;	COMDAT ??_C@_0BD@IPBNLMCM@data?2se?2sam_17?4wav?$AA@
CONST	SEGMENT
??_C@_0BD@IPBNLMCM@data?2se?2sam_17?4wav?$AA@ DB 'data\se\sam_17.wav', 00H ; `string'
CONST	ENDS
;	COMDAT ??_C@_0BD@EEEBGPIJ@data?2se?2sam_16?4wav?$AA@
CONST	SEGMENT
??_C@_0BD@EEEBGPIJ@data?2se?2sam_16?4wav?$AA@ DB 'data\se\sam_16.wav', 00H ; `string'
CONST	ENDS
;	COMDAT ??_C@_0BD@MCNFBNCH@data?2se?2sam_15?4wav?$AA@
CONST	SEGMENT
??_C@_0BD@MCNFBNCH@data?2se?2sam_15?4wav?$AA@ DB 'data\se\sam_15.wav', 00H ; `string'
CONST	ENDS
;	COMDAT ??_C@_0BD@JIJMOIC@data?2se?2sam_14?4wav?$AA@
CONST	SEGMENT
??_C@_0BD@JIJMOIC@data?2se?2sam_14?4wav?$AA@ DB 'data\se\sam_14.wav', 00H ; `string'
CONST	ENDS
;	COMDAT ??_C@_0BD@BEIMPODK@data?2se?2sam_13?4wav?$AA@
CONST	SEGMENT
??_C@_0BD@BEIMPODK@data?2se?2sam_13?4wav?$AA@ DB 'data\se\sam_13.wav', 00H ; `string'
CONST	ENDS
;	COMDAT ??_C@_0BD@NPNACNJP@data?2se?2sam_12?4wav?$AA@
CONST	SEGMENT
??_C@_0BD@NPNACNJP@data?2se?2sam_12?4wav?$AA@ DB 'data\se\sam_12.wav', 00H ; `string'
CONST	ENDS
;	COMDAT ??_C@_0BD@FJEEFPDB@data?2se?2sam_11?4wav?$AA@
CONST	SEGMENT
??_C@_0BD@FJEEFPDB@data?2se?2sam_11?4wav?$AA@ DB 'data\se\sam_11.wav', 00H ; `string'
CONST	ENDS
;	COMDAT ??_C@_0BD@JCBIIMJE@data?2se?2sam_10?4wav?$AA@
CONST	SEGMENT
??_C@_0BD@JCBIIMJE@data?2se?2sam_10?4wav?$AA@ DB 'data\se\sam_10.wav', 00H ; `string'
CONST	ENDS
;	COMDAT ??_C@_0BD@BDGANGOI@data?2se?2sam_09?4wav?$AA@
CONST	SEGMENT
??_C@_0BD@BDGANGOI@data?2se?2sam_09?4wav?$AA@ DB 'data\se\sam_09.wav', 00H ; `string'
CONST	ENDS
;	COMDAT ??_C@_0BD@NIDMAFEN@data?2se?2sam_08?4wav?$AA@
CONST	SEGMENT
??_C@_0BD@NIDMAFEN@data?2se?2sam_08?4wav?$AA@ DB 'data\se\sam_08.wav', 00H ; `string'
CONST	ENDS
;	COMDAT ??_C@_0BD@CJGKLHJI@data?2se?2sam_07?4wav?$AA@
CONST	SEGMENT
??_C@_0BD@CJGKLHJI@data?2se?2sam_07?4wav?$AA@ DB 'data\se\sam_07.wav', 00H ; `string'
CONST	ENDS
;	COMDAT ??_C@_0BD@OCDGGEDN@data?2se?2sam_06?4wav?$AA@
CONST	SEGMENT
??_C@_0BD@OCDGGEDN@data?2se?2sam_06?4wav?$AA@ DB 'data\se\sam_06.wav', 00H ; `string'
CONST	ENDS
;	COMDAT ??_C@_0BD@GEKCBGJD@data?2se?2sam_05?4wav?$AA@
CONST	SEGMENT
??_C@_0BD@GEKCBGJD@data?2se?2sam_05?4wav?$AA@ DB 'data\se\sam_05.wav', 00H ; `string'
CONST	ENDS
;	COMDAT ??_C@_0BD@KPPOMFDG@data?2se?2sam_04?4wav?$AA@
CONST	SEGMENT
??_C@_0BD@KPPOMFDG@data?2se?2sam_04?4wav?$AA@ DB 'data\se\sam_04.wav', 00H ; `string'
CONST	ENDS
;	COMDAT ??_C@_0BD@LCPLPFIO@data?2se?2sam_03?4wav?$AA@
CONST	SEGMENT
??_C@_0BD@LCPLPFIO@data?2se?2sam_03?4wav?$AA@ DB 'data\se\sam_03.wav', 00H ; `string'
CONST	ENDS
;	COMDAT ??_C@_0BD@HJKHCGCL@data?2se?2sam_02?4wav?$AA@
CONST	SEGMENT
??_C@_0BD@HJKHCGCL@data?2se?2sam_02?4wav?$AA@ DB 'data\se\sam_02.wav', 00H ; `string'
CONST	ENDS
;	COMDAT ??_C@_0BD@PPDDFEIF@data?2se?2sam_01?4wav?$AA@
CONST	SEGMENT
??_C@_0BD@PPDDFEIF@data?2se?2sam_01?4wav?$AA@ DB 'data\se\sam_01.wav', 00H ; `string'
CONST	ENDS
;	COMDAT ??_C@_0BD@PDJHJOKO@data?2se?2sae_32?4wav?$AA@
CONST	SEGMENT
??_C@_0BD@PDJHJOKO@data?2se?2sae_32?4wav?$AA@ DB 'data\se\sae_32.wav', 00H ; `string'
CONST	ENDS
;	COMDAT ??_C@_0BD@HFADOMAA@data?2se?2sae_31?4wav?$AA@
CONST	SEGMENT
??_C@_0BD@HFADOMAA@data?2se?2sae_31?4wav?$AA@ DB 'data\se\sae_31.wav', 00H ; `string'
CONST	ENDS
;	COMDAT ??_C@_0BD@LOFPDPKF@data?2se?2sae_30?4wav?$AA@
CONST	SEGMENT
??_C@_0BD@LOFPDPKF@data?2se?2sae_30?4wav?$AA@ DB 'data\se\sae_30.wav', 00H ; `string'
CONST	ENDS
;	COMDAT ??_C@_0BD@DPCHGFNJ@data?2se?2sae_29?4wav?$AA@
CONST	SEGMENT
??_C@_0BD@DPCHGFNJ@data?2se?2sae_29?4wav?$AA@ DB 'data\se\sae_29.wav', 00H ; `string'
CONST	ENDS
;	COMDAT ??_C@_0BD@PEHLLGHM@data?2se?2sae_28?4wav?$AA@
CONST	SEGMENT
??_C@_0BD@PEHLLGHM@data?2se?2sae_28?4wav?$AA@ DB 'data\se\sae_28.wav', 00H ; `string'
CONST	ENDS
;	COMDAT ??_C@_0BD@FCNAEKJ@data?2se?2sae_27?4wav?$AA@
CONST	SEGMENT
??_C@_0BD@FCNAEKJ@data?2se?2sae_27?4wav?$AA@ DB 'data\se\sae_27.wav', 00H ; `string'
CONST	ENDS
;	COMDAT ??_C@_0BD@MOHBNHAM@data?2se?2sae_26?4wav?$AA@
CONST	SEGMENT
??_C@_0BD@MOHBNHAM@data?2se?2sae_26?4wav?$AA@ DB 'data\se\sae_26.wav', 00H ; `string'
CONST	ENDS
;	COMDAT ??_C@_0BD@EIOFKFKC@data?2se?2sae_25?4wav?$AA@
CONST	SEGMENT
??_C@_0BD@EIOFKFKC@data?2se?2sae_25?4wav?$AA@ DB 'data\se\sae_25.wav', 00H ; `string'
CONST	ENDS
;	COMDAT ??_C@_0BD@IDLJHGAH@data?2se?2sae_24?4wav?$AA@
CONST	SEGMENT
??_C@_0BD@IDLJHGAH@data?2se?2sae_24?4wav?$AA@ DB 'data\se\sae_24.wav', 00H ; `string'
CONST	ENDS
;	COMDAT ??_C@_0BD@JOLMEGLP@data?2se?2sae_23?4wav?$AA@
CONST	SEGMENT
??_C@_0BD@JOLMEGLP@data?2se?2sae_23?4wav?$AA@ DB 'data\se\sae_23.wav', 00H ; `string'
CONST	ENDS
;	COMDAT ??_C@_0BD@FFOAJFBK@data?2se?2sae_22?4wav?$AA@
CONST	SEGMENT
??_C@_0BD@FFOAJFBK@data?2se?2sae_22?4wav?$AA@ DB 'data\se\sae_22.wav', 00H ; `string'
CONST	ENDS
;	COMDAT ??_C@_0BD@NDHEOHLE@data?2se?2sae_21?4wav?$AA@
CONST	SEGMENT
??_C@_0BD@NDHEOHLE@data?2se?2sae_21?4wav?$AA@ DB 'data\se\sae_21.wav', 00H ; `string'
CONST	ENDS
;	COMDAT ??_C@_0BD@BICIDEBB@data?2se?2sae_20?4wav?$AA@
CONST	SEGMENT
??_C@_0BD@BICIDEBB@data?2se?2sae_20?4wav?$AA@ DB 'data\se\sae_20.wav', 00H ; `string'
CONST	ENDS
;	COMDAT ??_C@_0BD@OMPHPEE@data?2se?2sae_19?4wav?$AA@
CONST	SEGMENT
??_C@_0BD@OMPHPEE@data?2se?2sae_19?4wav?$AA@ DB 'data\se\sae_19.wav', 00H ; `string'
CONST	ENDS
;	COMDAT ??_C@_0BD@MFJDKMOB@data?2se?2sae_18?4wav?$AA@
CONST	SEGMENT
??_C@_0BD@MFJDKMOB@data?2se?2sae_18?4wav?$AA@ DB 'data\se\sae_18.wav', 00H ; `string'
CONST	ENDS
;	COMDAT ??_C@_0BD@DEMFBODE@data?2se?2sae_17?4wav?$AA@
CONST	SEGMENT
??_C@_0BD@DEMFBODE@data?2se?2sae_17?4wav?$AA@ DB 'data\se\sae_17.wav', 00H ; `string'
CONST	ENDS
;	COMDAT ??_C@_0BD@PPJJMNJB@data?2se?2sae_16?4wav?$AA@
CONST	SEGMENT
??_C@_0BD@PPJJMNJB@data?2se?2sae_16?4wav?$AA@ DB 'data\se\sae_16.wav', 00H ; `string'
CONST	ENDS
;	COMDAT ??_C@_0BD@HJANLPDP@data?2se?2sae_15?4wav?$AA@
CONST	SEGMENT
??_C@_0BD@HJANLPDP@data?2se?2sae_15?4wav?$AA@ DB 'data\se\sae_15.wav', 00H ; `string'
CONST	ENDS
;	COMDAT ??_C@_0BD@LCFBGMJK@data?2se?2sae_14?4wav?$AA@
CONST	SEGMENT
??_C@_0BD@LCFBGMJK@data?2se?2sae_14?4wav?$AA@ DB 'data\se\sae_14.wav', 00H ; `string'
CONST	ENDS
;	COMDAT ??_C@_0BD@KPFEFMCC@data?2se?2sae_13?4wav?$AA@
CONST	SEGMENT
??_C@_0BD@KPFEFMCC@data?2se?2sae_13?4wav?$AA@ DB 'data\se\sae_13.wav', 00H ; `string'
CONST	ENDS
;	COMDAT ??_C@_0BD@GEAIIPIH@data?2se?2sae_12?4wav?$AA@
CONST	SEGMENT
??_C@_0BD@GEAIIPIH@data?2se?2sae_12?4wav?$AA@ DB 'data\se\sae_12.wav', 00H ; `string'
CONST	ENDS
;	COMDAT ??_C@_0BD@OCJMPNCJ@data?2se?2sae_11?4wav?$AA@
CONST	SEGMENT
??_C@_0BD@OCJMPNCJ@data?2se?2sae_11?4wav?$AA@ DB 'data\se\sae_11.wav', 00H ; `string'
CONST	ENDS
;	COMDAT ??_C@_0BD@CJMACOIM@data?2se?2sae_10?4wav?$AA@
CONST	SEGMENT
??_C@_0BD@CJMACOIM@data?2se?2sae_10?4wav?$AA@ DB 'data\se\sae_10.wav', 00H ; `string'
CONST	ENDS
;	COMDAT ??_C@_0BD@KILIHEPA@data?2se?2sae_09?4wav?$AA@
CONST	SEGMENT
??_C@_0BD@KILIHEPA@data?2se?2sae_09?4wav?$AA@ DB 'data\se\sae_09.wav', 00H ; `string'
CONST	ENDS
;	COMDAT ??_C@_0BD@GDOEKHFF@data?2se?2sae_08?4wav?$AA@
CONST	SEGMENT
??_C@_0BD@GDOEKHFF@data?2se?2sae_08?4wav?$AA@ DB 'data\se\sae_08.wav', 00H ; `string'
CONST	ENDS
;	COMDAT ??_C@_0BD@JCLCBFIA@data?2se?2sae_07?4wav?$AA@
CONST	SEGMENT
??_C@_0BD@JCLCBFIA@data?2se?2sae_07?4wav?$AA@ DB 'data\se\sae_07.wav', 00H ; `string'
CONST	ENDS
;	COMDAT ??_C@_0BD@FJOOMGCF@data?2se?2sae_06?4wav?$AA@
CONST	SEGMENT
??_C@_0BD@FJOOMGCF@data?2se?2sae_06?4wav?$AA@ DB 'data\se\sae_06.wav', 00H ; `string'
CONST	ENDS
;	COMDAT ??_C@_0BD@NPHKLEIL@data?2se?2sae_05?4wav?$AA@
CONST	SEGMENT
??_C@_0BD@NPHKLEIL@data?2se?2sae_05?4wav?$AA@ DB 'data\se\sae_05.wav', 00H ; `string'
CONST	ENDS
;	COMDAT ??_C@_0BD@BECGGHCO@data?2se?2sae_04?4wav?$AA@
CONST	SEGMENT
??_C@_0BD@BECGGHCO@data?2se?2sae_04?4wav?$AA@ DB 'data\se\sae_04.wav', 00H ; `string'
CONST	ENDS
;	COMDAT ??_C@_0BD@JCDFHJG@data?2se?2sae_03?4wav?$AA@
CONST	SEGMENT
??_C@_0BD@JCDFHJG@data?2se?2sae_03?4wav?$AA@ DB 'data\se\sae_03.wav', 00H ; `string'
CONST	ENDS
;	COMDAT ??_C@_0BD@MCHPIEDD@data?2se?2sae_02?4wav?$AA@
CONST	SEGMENT
??_C@_0BD@MCHPIEDD@data?2se?2sae_02?4wav?$AA@ DB 'data\se\sae_02.wav', 00H ; `string'
CONST	ENDS
;	COMDAT ??_C@_0BD@EEOLPGJN@data?2se?2sae_01?4wav?$AA@
CONST	SEGMENT
??_C@_0BD@EEOLPGJN@data?2se?2sae_01?4wav?$AA@ DB 'data\se\sae_01.wav', 00H ; `string'
CONST	ENDS
;	COMDAT ??_C@_0BD@EJADFLBM@data?2se?2sap_13?4wav?$AA@
CONST	SEGMENT
??_C@_0BD@EJADFLBM@data?2se?2sap_13?4wav?$AA@ DB 'data\se\sap_13.wav', 00H ; `string'
CONST	ENDS
;	COMDAT ??_C@_0BD@ICFPIILJ@data?2se?2sap_12?4wav?$AA@
CONST	SEGMENT
??_C@_0BD@ICFPIILJ@data?2se?2sap_12?4wav?$AA@ DB 'data\se\sap_12.wav', 00H ; `string'
CONST	ENDS
;	COMDAT ??_C@_0BD@FEAGGLKE@data?2se?2sap_14?4wav?$AA@
CONST	SEGMENT
??_C@_0BD@FEAGGLKE@data?2se?2sap_14?4wav?$AA@ DB 'data\se\sap_14.wav', 00H ; `string'
CONST	ENDS
;	COMDAT ??_C@_0BD@EMLPKBH@data?2se?2sap_11?4wav?$AA@
CONST	SEGMENT
??_C@_0BD@EMLPKBH@data?2se?2sap_11?4wav?$AA@ DB 'data\se\sap_11.wav', 00H ; `string'
CONST	ENDS
;	COMDAT ??_C@_0BD@MPJHCJLC@data?2se?2sap_10?4wav?$AA@
CONST	SEGMENT
??_C@_0BD@MPJHCJLC@data?2se?2sap_10?4wav?$AA@ DB 'data\se\sap_10.wav', 00H ; `string'
CONST	ENDS
;	COMDAT ??_C@_0BD@EOOPHDMO@data?2se?2sap_09?4wav?$AA@
CONST	SEGMENT
??_C@_0BD@EOOPHDMO@data?2se?2sap_09?4wav?$AA@ DB 'data\se\sap_09.wav', 00H ; `string'
CONST	ENDS
;	COMDAT ??_C@_0BD@IFLDKAGL@data?2se?2sap_08?4wav?$AA@
CONST	SEGMENT
??_C@_0BD@IFLDKAGL@data?2se?2sap_08?4wav?$AA@ DB 'data\se\sap_08.wav', 00H ; `string'
CONST	ENDS
;	COMDAT ??_C@_0BD@HEOFBCLO@data?2se?2sap_07?4wav?$AA@
CONST	SEGMENT
??_C@_0BD@HEOFBCLO@data?2se?2sap_07?4wav?$AA@ DB 'data\se\sap_07.wav', 00H ; `string'
CONST	ENDS
;	COMDAT ??_C@_0BD@LPLJMBBL@data?2se?2sap_06?4wav?$AA@
CONST	SEGMENT
??_C@_0BD@LPLJMBBL@data?2se?2sap_06?4wav?$AA@ DB 'data\se\sap_06.wav', 00H ; `string'
CONST	ENDS
;	COMDAT ??_C@_0BD@DJCNLDLF@data?2se?2sap_05?4wav?$AA@
CONST	SEGMENT
??_C@_0BD@DJCNLDLF@data?2se?2sap_05?4wav?$AA@ DB 'data\se\sap_05.wav', 00H ; `string'
CONST	ENDS
;	COMDAT ??_C@_0BD@PCHBGABA@data?2se?2sap_04?4wav?$AA@
CONST	SEGMENT
??_C@_0BD@PCHBGABA@data?2se?2sap_04?4wav?$AA@ DB 'data\se\sap_04.wav', 00H ; `string'
CONST	ENDS
;	COMDAT ??_C@_0BD@OPHEFAKI@data?2se?2sap_03?4wav?$AA@
CONST	SEGMENT
??_C@_0BD@OPHEFAKI@data?2se?2sap_03?4wav?$AA@ DB 'data\se\sap_03.wav', 00H ; `string'
CONST	ENDS
;	COMDAT ??_C@_0BD@CECIIDAN@data?2se?2sap_02?4wav?$AA@
CONST	SEGMENT
??_C@_0BD@CECIIDAN@data?2se?2sap_02?4wav?$AA@ DB 'data\se\sap_02.wav', 00H ; `string'
CONST	ENDS
;	COMDAT ??_C@_0BD@KCLMPBKD@data?2se?2sap_01?4wav?$AA@
CONST	SEGMENT
??_C@_0BD@KCLMPBKD@data?2se?2sap_01?4wav?$AA@ DB 'data\se\sap_01.wav', 00H ; `string'
CONST	ENDS
;	COMDAT ??_C@_04HFHJMNCD@WAVE?$AA@
CONST	SEGMENT
??_C@_04HFHJMNCD@WAVE?$AA@ DB 'WAVE', 00H		; `string'
CONST	ENDS
; Function compile flags: /Odtp /RTCsu /ZI
; File c:\users\administrator\desktop\????? ??\????? ??\client source code\system\t_music.cpp
;	COMDAT ?cdda_start@@YA_NH@Z
_TEXT	SEGMENT
_play$ = -20						; size = 12
__$ArrayPad$ = -4					; size = 4
_n$ = 8							; size = 4
?cdda_start@@YA_NH@Z PROC				; cdda_start, COMDAT

; 3587 : {

  00000	55		 push	 ebp
  00001	8b ec		 mov	 ebp, esp
  00003	81 ec d8 00 00
	00		 sub	 esp, 216		; 000000d8H
  00009	53		 push	 ebx
  0000a	56		 push	 esi
  0000b	57		 push	 edi
  0000c	8d bd 28 ff ff
	ff		 lea	 edi, DWORD PTR [ebp-216]
  00012	b9 36 00 00 00	 mov	 ecx, 54			; 00000036H
  00017	b8 cc cc cc cc	 mov	 eax, -858993460		; ccccccccH
  0001c	f3 ab		 rep stosd
  0001e	a1 00 00 00 00	 mov	 eax, DWORD PTR ___security_cookie
  00023	33 c5		 xor	 eax, ebp
  00025	89 45 fc	 mov	 DWORD PTR __$ArrayPad$[ebp], eax

; 3588 : // ???
; 3589 :     // ???? n??
; 3590 :     MCI_PLAY_PARMS play;
; 3591 :     play.dwFrom = MCI_MAKE_TMSF( n,0,0,0);

  00028	0f b6 45 08	 movzx	 eax, BYTE PTR _n$[ebp]
  0002c	89 45 f0	 mov	 DWORD PTR _play$[ebp+4], eax

; 3592 :     play.dwTo   = MCI_MAKE_TMSF( n+1,0,0,0);

  0002f	8b 45 08	 mov	 eax, DWORD PTR _n$[ebp]
  00032	83 c0 01	 add	 eax, 1
  00035	0f b6 c8	 movzx	 ecx, al
  00038	89 4d f4	 mov	 DWORD PTR _play$[ebp+8], ecx

; 3593 :     dwRes = mciSendCommand( open.wDeviceID, 

  0003b	8b f4		 mov	 esi, esp
  0003d	8d 45 ec	 lea	 eax, DWORD PTR _play$[ebp]
  00040	50		 push	 eax
  00041	6a 0c		 push	 12			; 0000000cH
  00043	68 06 08 00 00	 push	 2054			; 00000806H
  00048	8b 0d 04 00 00
	00		 mov	 ecx, DWORD PTR ?open@@3UtagMCI_OPEN_PARMSA@@A+4
  0004e	51		 push	 ecx
  0004f	ff 15 00 00 00
	00		 call	 DWORD PTR __imp__mciSendCommandA@16
  00055	3b f4		 cmp	 esi, esp
  00057	e8 00 00 00 00	 call	 __RTC_CheckEsp
  0005c	a3 00 00 00 00	 mov	 DWORD PTR ?dwRes@@3KA, eax

; 3594 :                             MCI_PLAY, MCI_FROM | MCI_TO,
; 3595 :                             (DWORD)&play);
; 3596 :     if ( dwRes)

  00061	83 3d 00 00 00
	00 00		 cmp	 DWORD PTR ?dwRes@@3KA, 0
  00068	74 0e		 je	 SHORT $LN2@cdda_start

; 3597 :     {
; 3598 : #ifdef  _STONDEBUG_
; 3599 : //		MessageBox(hWnd, "??????????????", "??", MB_OK);
; 3600 : #endif
; 3601 : 		cdda_flg = 2;		//????????害

  0006a	c7 05 00 00 00
	00 02 00 00 00	 mov	 DWORD PTR ?cdda_flg@@3HA, 2

; 3602 :         return FALSE;

  00074	32 c0		 xor	 al, al
  00076	eb 02		 jmp	 SHORT $LN1@cdda_start
$LN2@cdda_start:

; 3603 :     }
; 3604 : 	return TRUE;

  00078	b0 01		 mov	 al, 1
$LN1@cdda_start:

; 3605 : }

  0007a	52		 push	 edx
  0007b	8b cd		 mov	 ecx, ebp
  0007d	50		 push	 eax
  0007e	8d 15 00 00 00
	00		 lea	 edx, DWORD PTR $LN6@cdda_start
  00084	e8 00 00 00 00	 call	 @_RTC_CheckStackVars@8
  00089	58		 pop	 eax
  0008a	5a		 pop	 edx
  0008b	5f		 pop	 edi
  0008c	5e		 pop	 esi
  0008d	5b		 pop	 ebx
  0008e	8b 4d fc	 mov	 ecx, DWORD PTR __$ArrayPad$[ebp]
  00091	33 cd		 xor	 ecx, ebp
  00093	e8 00 00 00 00	 call	 @__security_check_cookie@4
  00098	81 c4 d8 00 00
	00		 add	 esp, 216		; 000000d8H
  0009e	3b ec		 cmp	 ebp, esp
  000a0	e8 00 00 00 00	 call	 __RTC_CheckEsp
  000a5	8b e5		 mov	 esp, ebp
  000a7	5d		 pop	 ebp
  000a8	c3		 ret	 0
  000a9	0f 1f 00	 npad	 3
$LN6@cdda_start:
  000ac	01 00 00 00	 DD	 1
  000b0	00 00 00 00	 DD	 $LN5@cdda_start
$LN5@cdda_start:
  000b4	ec ff ff ff	 DD	 -20			; ffffffecH
  000b8	0c 00 00 00	 DD	 12			; 0000000cH
  000bc	00 00 00 00	 DD	 $LN4@cdda_start
$LN4@cdda_start:
  000c0	70		 DB	 112			; 00000070H
  000c1	6c		 DB	 108			; 0000006cH
  000c2	61		 DB	 97			; 00000061H
  000c3	79		 DB	 121			; 00000079H
  000c4	00		 DB	 0
?cdda_start@@YA_NH@Z ENDP				; cdda_start
_TEXT	ENDS
; Function compile flags: /Odtp /RTCsu /ZI
; File c:\users\administrator\desktop\????? ??\????? ??\client source code\system\t_music.cpp
;	COMDAT ?cdda_open@@YA_NH@Z
_TEXT	SEGMENT
_set$ = -20						; size = 12
__$ArrayPad$ = -4					; size = 4
_n$ = 8							; size = 4
?cdda_open@@YA_NH@Z PROC				; cdda_open, COMDAT

; 3548 : {

  00000	55		 push	 ebp
  00001	8b ec		 mov	 ebp, esp
  00003	81 ec d8 00 00
	00		 sub	 esp, 216		; 000000d8H
  00009	53		 push	 ebx
  0000a	56		 push	 esi
  0000b	57		 push	 edi
  0000c	8d bd 28 ff ff
	ff		 lea	 edi, DWORD PTR [ebp-216]
  00012	b9 36 00 00 00	 mov	 ecx, 54			; 00000036H
  00017	b8 cc cc cc cc	 mov	 eax, -858993460		; ccccccccH
  0001c	f3 ab		 rep stosd
  0001e	a1 00 00 00 00	 mov	 eax, DWORD PTR ___security_cookie
  00023	33 c5		 xor	 eax, ebp
  00025	89 45 fc	 mov	 DWORD PTR __$ArrayPad$[ebp], eax

; 3549 : 	cdda_flg = 0;

  00028	c7 05 00 00 00
	00 00 00 00 00	 mov	 DWORD PTR ?cdda_flg@@3HA, 0

; 3550 : // ?????? 2???????
; 3551 :     _ASSERT( n > 1);

  00032	83 7d 08 01	 cmp	 DWORD PTR _n$[ebp], 1
  00036	7f 31		 jg	 SHORT $LN5@cdda_open
  00038	8b f4		 mov	 esi, esp
  0003a	6a 00		 push	 0
  0003c	68 00 00 00 00	 push	 OFFSET ??_C@_17CNPHIMPH@?$AA?$CF?$AAl?$AAs?$AA?$AA@
  00041	6a 00		 push	 0
  00043	a1 00 00 00 00	 mov	 eax, DWORD PTR ?__LINE__Var@?0??cdda_open@@YA_NH@Z@4JA
  00048	83 c0 03	 add	 eax, 3
  0004b	50		 push	 eax
  0004c	68 00 00 00 00	 push	 OFFSET ??_C@_1KO@IMAHILFL@?$AAc?$AA?3?$AA?2?$AAu?$AAs?$AAe?$AAr?$AAs?$AA?2?$AAa?$AAd?$AAm?$AAi?$AAn?$AAi?$AAs?$AAt?$AAr?$AAa?$AAt?$AAo?$AAr?$AA?2?$AAd?$AAe?$AAs?$AAk?$AAt?$AAo?$AAp?$AA?2?B?$KE@
  00051	6a 02		 push	 2
  00053	ff 15 00 00 00
	00		 call	 DWORD PTR __imp___CrtDbgReportW
  00059	83 c4 18	 add	 esp, 24			; 00000018H
  0005c	3b f4		 cmp	 esi, esp
  0005e	e8 00 00 00 00	 call	 __RTC_CheckEsp
  00063	83 f8 01	 cmp	 eax, 1
  00066	75 01		 jne	 SHORT $LN5@cdda_open
  00068	cc		 int	 3
$LN5@cdda_open:

; 3552 : 
; 3553 : //    MCI_OPEN_PARMS open  = {0};
; 3554 : //  MCIERROR       dwRes = {0};
; 3555 : 
; 3556 : // ???????
; 3557 :     open.lpstrDeviceType  = "cdaudio";

  00069	c7 05 08 00 00
	00 00 00 00 00	 mov	 DWORD PTR ?open@@3UtagMCI_OPEN_PARMSA@@A+8, OFFSET ??_C@_07FIPNLLOL@cdaudio?$AA@

; 3558 :     dwRes = mciSendCommand( 0, MCI_OPEN, MCI_OPEN_TYPE, (DWORD)&open);

  00073	8b f4		 mov	 esi, esp
  00075	68 00 00 00 00	 push	 OFFSET ?open@@3UtagMCI_OPEN_PARMSA@@A
  0007a	68 00 20 00 00	 push	 8192			; 00002000H
  0007f	68 03 08 00 00	 push	 2051			; 00000803H
  00084	6a 00		 push	 0
  00086	ff 15 00 00 00
	00		 call	 DWORD PTR __imp__mciSendCommandA@16
  0008c	3b f4		 cmp	 esi, esp
  0008e	e8 00 00 00 00	 call	 __RTC_CheckEsp
  00093	a3 00 00 00 00	 mov	 DWORD PTR ?dwRes@@3KA, eax

; 3559 :     if ( dwRes)

  00098	83 3d 00 00 00
	00 00		 cmp	 DWORD PTR ?dwRes@@3KA, 0
  0009f	74 0e		 je	 SHORT $LN2@cdda_open

; 3560 :     {
; 3561 : #ifdef  _STONDEBUG_
; 3562 : //		MessageBox(hWnd, "打开CD音轨失败！", "??", MB_OK);
; 3563 : #endif
; 3564 : 		cdda_flg = 1;

  000a1	c7 05 00 00 00
	00 01 00 00 00	 mov	 DWORD PTR ?cdda_flg@@3HA, 1

; 3565 :         return FALSE;

  000ab	32 c0		 xor	 al, al
  000ad	eb 49		 jmp	 SHORT $LN1@cdda_open
$LN2@cdda_open:

; 3566 :     }
; 3567 : 
; 3568 : // ?????????????e???
; 3569 :     MCI_SET_PARMS set;
; 3570 :     set.dwTimeFormat = MCI_FORMAT_TMSF;

  000af	c7 45 f0 0a 00
	00 00		 mov	 DWORD PTR _set$[ebp+4], 10 ; 0000000aH

; 3571 :     dwRes = mciSendCommand( open.wDeviceID, MCI_SET, 

  000b6	8b f4		 mov	 esi, esp
  000b8	8d 45 ec	 lea	 eax, DWORD PTR _set$[ebp]
  000bb	50		 push	 eax
  000bc	68 00 04 00 00	 push	 1024			; 00000400H
  000c1	68 0d 08 00 00	 push	 2061			; 0000080dH
  000c6	8b 0d 04 00 00
	00		 mov	 ecx, DWORD PTR ?open@@3UtagMCI_OPEN_PARMSA@@A+4
  000cc	51		 push	 ecx
  000cd	ff 15 00 00 00
	00		 call	 DWORD PTR __imp__mciSendCommandA@16
  000d3	3b f4		 cmp	 esi, esp
  000d5	e8 00 00 00 00	 call	 __RTC_CheckEsp
  000da	a3 00 00 00 00	 mov	 DWORD PTR ?dwRes@@3KA, eax

; 3572 :                             MCI_SET_TIME_FORMAT, (DWORD)&set); 
; 3573 :     if ( dwRes)

  000df	83 3d 00 00 00
	00 00		 cmp	 DWORD PTR ?dwRes@@3KA, 0
  000e6	74 0e		 je	 SHORT $LN3@cdda_open

; 3574 :     {
; 3575 : #ifdef  _STONDEBUG_
; 3576 : //		MessageBox(hWnd, "打开CD音轨失败！", "??", MB_OK);
; 3577 : #endif
; 3578 : 		cdda_flg = 1;

  000e8	c7 05 00 00 00
	00 01 00 00 00	 mov	 DWORD PTR ?cdda_flg@@3HA, 1

; 3579 :         return FALSE;

  000f2	32 c0		 xor	 al, al
  000f4	eb 02		 jmp	 SHORT $LN1@cdda_open
$LN3@cdda_open:

; 3580 :     }
; 3581 : 	return TRUE;

  000f6	b0 01		 mov	 al, 1
$LN1@cdda_open:

; 3582 : }

  000f8	52		 push	 edx
  000f9	8b cd		 mov	 ecx, ebp
  000fb	50		 push	 eax
  000fc	8d 15 00 00 00
	00		 lea	 edx, DWORD PTR $LN8@cdda_open
  00102	e8 00 00 00 00	 call	 @_RTC_CheckStackVars@8
  00107	58		 pop	 eax
  00108	5a		 pop	 edx
  00109	5f		 pop	 edi
  0010a	5e		 pop	 esi
  0010b	5b		 pop	 ebx
  0010c	8b 4d fc	 mov	 ecx, DWORD PTR __$ArrayPad$[ebp]
  0010f	33 cd		 xor	 ecx, ebp
  00111	e8 00 00 00 00	 call	 @__security_check_cookie@4
  00116	81 c4 d8 00 00
	00		 add	 esp, 216		; 000000d8H
  0011c	3b ec		 cmp	 ebp, esp
  0011e	e8 00 00 00 00	 call	 __RTC_CheckEsp
  00123	8b e5		 mov	 esp, ebp
  00125	5d		 pop	 ebp
  00126	c3		 ret	 0
  00127	90		 npad	 1
$LN8@cdda_open:
  00128	01 00 00 00	 DD	 1
  0012c	00 00 00 00	 DD	 $LN7@cdda_open
$LN7@cdda_open:
  00130	ec ff ff ff	 DD	 -20			; ffffffecH
  00134	0c 00 00 00	 DD	 12			; 0000000cH
  00138	00 00 00 00	 DD	 $LN6@cdda_open
$LN6@cdda_open:
  0013c	73		 DB	 115			; 00000073H
  0013d	65		 DB	 101			; 00000065H
  0013e	74		 DB	 116			; 00000074H
  0013f	00		 DB	 0
?cdda_open@@YA_NH@Z ENDP				; cdda_open
_TEXT	ENDS
; Function compile flags: /Odtp /RTCsu /ZI
; File c:\users\administrator\desktop\????? ??\????? ??\client source code\system\t_music.cpp
;	COMDAT ?bgm_fade_check@@YAXXZ
_TEXT	SEGMENT
?bgm_fade_check@@YAXXZ PROC				; bgm_fade_check, COMDAT

; 3480 : {

  00000	55		 push	 ebp
  00001	8b ec		 mov	 ebp, esp
  00003	81 ec c0 00 00
	00		 sub	 esp, 192		; 000000c0H
  00009	53		 push	 ebx
  0000a	56		 push	 esi
  0000b	57		 push	 edi
  0000c	8d bd 40 ff ff
	ff		 lea	 edi, DWORD PTR [ebp-192]
  00012	b9 30 00 00 00	 mov	 ecx, 48			; 00000030H
  00017	b8 cc cc cc cc	 mov	 eax, -858993460		; ccccccccH
  0001c	f3 ab		 rep stosd

; 3481 : 	//???????
; 3482 : 	if(t_music_playing_flg == 0){

  0001e	83 3d 00 00 00
	00 00		 cmp	 DWORD PTR ?t_music_playing_flg@@3HA, 0 ; t_music_playing_flg
  00025	75 0c		 jne	 SHORT $LN2@bgm_fade_c

; 3483 : 		t_music_fade_flg = 0;

  00027	c7 05 00 00 00
	00 00 00 00 00	 mov	 DWORD PTR ?t_music_fade_flg@@3HA, 0 ; t_music_fade_flg

; 3484 : 		return;

  00031	eb 73		 jmp	 SHORT $LN1@bgm_fade_c
$LN2@bgm_fade_c:

; 3485 : 	}
; 3486 : 	//????????????
; 3487 : 	if(!t_music_fade_flg){

  00033	83 3d 00 00 00
	00 00		 cmp	 DWORD PTR ?t_music_fade_flg@@3HA, 0 ; t_music_fade_flg
  0003a	75 02		 jne	 SHORT $LN3@bgm_fade_c

; 3488 : 		return;

  0003c	eb 68		 jmp	 SHORT $LN1@bgm_fade_c
$LN3@bgm_fade_c:

; 3489 : 	}
; 3490 : 	//??????????
; 3491 : 	if(!t_music_fade_vol){

  0003e	83 3d 00 00 00
	00 00		 cmp	 DWORD PTR ?t_music_fade_vol@@3HA, 0 ; t_music_fade_vol
  00045	75 11		 jne	 SHORT $LN4@bgm_fade_c

; 3492 : 		stop_bgm();

  00047	e8 00 00 00 00	 call	 ?stop_bgm@@YAXXZ	; stop_bgm

; 3493 : 		t_music_bgm_no = -1;

  0004c	c7 05 00 00 00
	00 ff ff ff ff	 mov	 DWORD PTR ?t_music_bgm_no@@3HA, -1 ; t_music_bgm_no

; 3494 : 	} else {

  00056	eb 4e		 jmp	 SHORT $LN1@bgm_fade_c
$LN4@bgm_fade_c:

; 3495 : 		// ????????
; 3496 : 		pDSData_tone[ TONE_MAX ]->SetVolume(volume_tbl[ --t_music_fade_vol ]);

  00058	a1 00 00 00 00	 mov	 eax, DWORD PTR ?t_music_fade_vol@@3HA ; t_music_fade_vol
  0005d	83 e8 01	 sub	 eax, 1
  00060	a3 00 00 00 00	 mov	 DWORD PTR ?t_music_fade_vol@@3HA, eax ; t_music_fade_vol
  00065	8b f4		 mov	 esi, esp
  00067	8b 0d 00 00 00
	00		 mov	 ecx, DWORD PTR ?t_music_fade_vol@@3HA ; t_music_fade_vol
  0006d	8b 14 8d 00 00
	00 00		 mov	 edx, DWORD PTR ?volume_tbl@@3PAJA[ecx*4]
  00074	52		 push	 edx
  00075	b8 04 00 00 00	 mov	 eax, 4
  0007a	69 c8 f4 01 00
	00		 imul	 ecx, eax, 500
  00080	8b 91 00 00 00
	00		 mov	 edx, DWORD PTR ?pDSData_tone@@3PAPAUIDirectSoundBuffer@@A[ecx]
  00086	b8 04 00 00 00	 mov	 eax, 4
  0008b	69 c8 f4 01 00
	00		 imul	 ecx, eax, 500
  00091	8b 81 00 00 00
	00		 mov	 eax, DWORD PTR ?pDSData_tone@@3PAPAUIDirectSoundBuffer@@A[ecx]
  00097	8b 0a		 mov	 ecx, DWORD PTR [edx]
  00099	50		 push	 eax
  0009a	8b 51 3c	 mov	 edx, DWORD PTR [ecx+60]
  0009d	ff d2		 call	 edx
  0009f	3b f4		 cmp	 esi, esp
  000a1	e8 00 00 00 00	 call	 __RTC_CheckEsp
$LN1@bgm_fade_c:

; 3497 : 	}
; 3498 : }

  000a6	5f		 pop	 edi
  000a7	5e		 pop	 esi
  000a8	5b		 pop	 ebx
  000a9	81 c4 c0 00 00
	00		 add	 esp, 192		; 000000c0H
  000af	3b ec		 cmp	 ebp, esp
  000b1	e8 00 00 00 00	 call	 __RTC_CheckEsp
  000b6	8b e5		 mov	 esp, ebp
  000b8	5d		 pop	 ebp
  000b9	c3		 ret	 0
?bgm_fade_check@@YAXXZ ENDP				; bgm_fade_check
_TEXT	ENDS
; Function compile flags: /Odtp /RTCsu /ZI
; File c:\users\administrator\desktop\????? ??\????? ??\client source code\system\t_music.cpp
;	COMDAT ?play_environment_check@@YAXXZ
_TEXT	SEGMENT
_d7$ = -44						; size = 4
_d3$ = -32						; size = 4
_d1$ = -20						; size = 4
_d0$ = -8						; size = 4
?play_environment_check@@YAXXZ PROC			; play_environment_check, COMDAT

; 3430 : {

  00000	55		 push	 ebp
  00001	8b ec		 mov	 ebp, esp
  00003	81 ec f0 00 00
	00		 sub	 esp, 240		; 000000f0H
  00009	53		 push	 ebx
  0000a	56		 push	 esi
  0000b	57		 push	 edi
  0000c	8d bd 10 ff ff
	ff		 lea	 edi, DWORD PTR [ebp-240]
  00012	b9 3c 00 00 00	 mov	 ecx, 60			; 0000003cH
  00017	b8 cc cc cc cc	 mov	 eax, -858993460		; ccccccccH
  0001c	f3 ab		 rep stosd

; 3431 : 	int d0,d1,d3,d7;
; 3432 : 	for(d7=0; d7<MAX_ENV; d7++){

  0001e	c7 45 d4 00 00
	00 00		 mov	 DWORD PTR _d7$[ebp], 0
  00025	eb 09		 jmp	 SHORT $LN4@play_envir
$LN2@play_envir:
  00027	8b 45 d4	 mov	 eax, DWORD PTR _d7$[ebp]
  0002a	83 c0 01	 add	 eax, 1
  0002d	89 45 d4	 mov	 DWORD PTR _d7$[ebp], eax
$LN4@play_envir:
  00030	83 7d d4 14	 cmp	 DWORD PTR _d7$[ebp], 20	; 00000014H
  00034	0f 8d 85 01 00
	00		 jge	 $LN1@play_envir

; 3433 : 		if(env_tbl[d7].count == 0){		//????

  0003a	6b 45 d4 24	 imul	 eax, DWORD PTR _d7$[ebp], 36
  0003e	83 b8 08 00 00
	00 00		 cmp	 DWORD PTR ?env_tbl@@3PAUENVIRONMENT_EQU@@A[eax+8], 0
  00045	75 68		 jne	 SHORT $LN5@play_envir

; 3434 : 			if(env_tbl[d7].voice_address != -1){		//???

  00047	6b 45 d4 24	 imul	 eax, DWORD PTR _d7$[ebp], 36
  0004b	83 b8 00 00 00
	00 ff		 cmp	 DWORD PTR ?env_tbl@@3PAUENVIRONMENT_EQU@@A[eax], -1
  00052	74 56		 je	 SHORT $LN6@play_envir

; 3435 : 				pDSData[ env_tbl[d7].voice_address ]->Stop();		//????

  00054	6b 45 d4 24	 imul	 eax, DWORD PTR _d7$[ebp], 36
  00058	8b 88 00 00 00
	00		 mov	 ecx, DWORD PTR ?env_tbl@@3PAUENVIRONMENT_EQU@@A[eax]
  0005e	8b 14 8d 00 00
	00 00		 mov	 edx, DWORD PTR ?pDSData@@3PAPAUIDirectSoundBuffer@@A[ecx*4]
  00065	6b 45 d4 24	 imul	 eax, DWORD PTR _d7$[ebp], 36
  00069	8b 88 00 00 00
	00		 mov	 ecx, DWORD PTR ?env_tbl@@3PAUENVIRONMENT_EQU@@A[eax]
  0006f	8b 04 8d 00 00
	00 00		 mov	 eax, DWORD PTR ?pDSData@@3PAPAUIDirectSoundBuffer@@A[ecx*4]
  00076	8b 0a		 mov	 ecx, DWORD PTR [edx]
  00078	8b f4		 mov	 esi, esp
  0007a	50		 push	 eax
  0007b	8b 51 48	 mov	 edx, DWORD PTR [ecx+72]
  0007e	ff d2		 call	 edx
  00080	3b f4		 cmp	 esi, esp
  00082	e8 00 00 00 00	 call	 __RTC_CheckEsp

; 3436 : 				voice[ env_tbl[d7].voice_address ].loop_flg = 0;		//????攸?

  00087	6b 45 d4 24	 imul	 eax, DWORD PTR _d7$[ebp], 36
  0008b	6b 88 00 00 00
	00 3c		 imul	 ecx, DWORD PTR ?env_tbl@@3PAUENVIRONMENT_EQU@@A[eax], 60
  00092	c7 81 30 00 00
	00 00 00 00 00	 mov	 DWORD PTR ?voice@@3PAUVOICE_EQU@@A[ecx+48], 0

; 3437 : 				env_tbl[d7].voice_address = -1;

  0009c	6b 45 d4 24	 imul	 eax, DWORD PTR _d7$[ebp], 36
  000a0	c7 80 00 00 00
	00 ff ff ff ff	 mov	 DWORD PTR ?env_tbl@@3PAUENVIRONMENT_EQU@@A[eax], -1
$LN6@play_envir:

; 3438 : 			}
; 3439 : 			continue;

  000aa	e9 78 ff ff ff	 jmp	 $LN2@play_envir
$LN5@play_envir:

; 3440 : 		}
; 3441 : 		if(env_tbl[d7].voice_address == -1){		//???

  000af	6b 45 d4 24	 imul	 eax, DWORD PTR _d7$[ebp], 36
  000b3	83 b8 00 00 00
	00 ff		 cmp	 DWORD PTR ?env_tbl@@3PAUENVIRONMENT_EQU@@A[eax], -1
  000ba	75 35		 jne	 SHORT $LN7@play_envir

; 3442 : 			env_tbl[d7].voice_address = voice_seek_point;

  000bc	6b 45 d4 24	 imul	 eax, DWORD PTR _d7$[ebp], 36
  000c0	8b 0d 00 00 00
	00		 mov	 ecx, DWORD PTR ?voice_seek_point@@3HA
  000c6	89 88 00 00 00
	00		 mov	 DWORD PTR ?env_tbl@@3PAUENVIRONMENT_EQU@@A[eax], ecx

; 3443 : 			env_tbl[d7].volume_old = -1;

  000cc	6b 45 d4 24	 imul	 eax, DWORD PTR _d7$[ebp], 36
  000d0	c7 80 14 00 00
	00 ff ff ff ff	 mov	 DWORD PTR ?env_tbl@@3PAUENVIRONMENT_EQU@@A[eax+20], -1

; 3444 : 			env_tbl[d7].panpot_old = -1;

  000da	6b 45 d4 24	 imul	 eax, DWORD PTR _d7$[ebp], 36
  000de	c7 80 20 00 00
	00 ff ff ff ff	 mov	 DWORD PTR ?env_tbl@@3PAUENVIRONMENT_EQU@@A[eax+32], -1

; 3445 : 			d0 = 1;

  000e8	c7 45 f8 01 00
	00 00		 mov	 DWORD PTR _d0$[ebp], 1

; 3446 : 		} else {

  000ef	eb 07		 jmp	 SHORT $LN8@play_envir
$LN7@play_envir:

; 3447 : 			d0 = 0;

  000f1	c7 45 f8 00 00
	00 00		 mov	 DWORD PTR _d0$[ebp], 0
$LN8@play_envir:

; 3448 : 		}
; 3449 : 
; 3450 : 		if(stereo_flg == T_MUSIC_MONO){		//??????

  000f8	83 3d 00 00 00
	00 00		 cmp	 DWORD PTR ?stereo_flg@@3HA, 0 ; stereo_flg
  000ff	75 16		 jne	 SHORT $LN9@play_envir

; 3451 : 			env_tbl[d7].panpot = d1 = 64;

  00101	c7 45 ec 40 00
	00 00		 mov	 DWORD PTR _d1$[ebp], 64	; 00000040H
  00108	6b 45 d4 24	 imul	 eax, DWORD PTR _d7$[ebp], 36
  0010c	8b 4d ec	 mov	 ecx, DWORD PTR _d1$[ebp]
  0010f	89 88 1c 00 00
	00		 mov	 DWORD PTR ?env_tbl@@3PAUENVIRONMENT_EQU@@A[eax+28], ecx

; 3452 : 		} else {

  00115	eb 2f		 jmp	 SHORT $LN10@play_envir
$LN9@play_envir:

; 3453 : 			d1 = env_tbl[d7].side / 5;			//?????k??

  00117	6b 45 d4 24	 imul	 eax, DWORD PTR _d7$[ebp], 36
  0011b	8b 80 18 00 00
	00		 mov	 eax, DWORD PTR ?env_tbl@@3PAUENVIRONMENT_EQU@@A[eax+24]
  00121	99		 cdq
  00122	b9 05 00 00 00	 mov	 ecx, 5
  00127	f7 f9		 idiv	 ecx
  00129	89 45 ec	 mov	 DWORD PTR _d1$[ebp], eax

; 3454 : 			if(d1 < 0)			//

  0012c	83 7d ec 00	 cmp	 DWORD PTR _d1$[ebp], 0
  00130	7d 07		 jge	 SHORT $LN11@play_envir

; 3455 : 				d1 = 0;			//

  00132	c7 45 ec 00 00
	00 00		 mov	 DWORD PTR _d1$[ebp], 0
$LN11@play_envir:

; 3456 : 			if(d1 > 127)		//

  00139	83 7d ec 7f	 cmp	 DWORD PTR _d1$[ebp], 127 ; 0000007fH
  0013d	7e 07		 jle	 SHORT $LN10@play_envir

; 3457 : 				d1 = 127;		//

  0013f	c7 45 ec 7f 00
	00 00		 mov	 DWORD PTR _d1$[ebp], 127 ; 0000007fH
$LN10@play_envir:

; 3458 : 		}
; 3459 : 
; 3460 : 		if(d0){		//???

  00146	83 7d f8 00	 cmp	 DWORD PTR _d0$[ebp], 0
  0014a	74 0f		 je	 SHORT $LN13@play_envir

; 3461 : 			env_tbl[d7].panpot = d1;

  0014c	6b 45 d4 24	 imul	 eax, DWORD PTR _d7$[ebp], 36
  00150	8b 4d ec	 mov	 ecx, DWORD PTR _d1$[ebp]
  00153	89 88 1c 00 00
	00		 mov	 DWORD PTR ?env_tbl@@3PAUENVIRONMENT_EQU@@A[eax+28], ecx

; 3462 : 		} else {

  00159	eb 41		 jmp	 SHORT $LN14@play_envir
$LN13@play_envir:

; 3463 : 			d3 = d1 - env_tbl[d7].panpot;

  0015b	6b 45 d4 24	 imul	 eax, DWORD PTR _d7$[ebp], 36
  0015f	8b 4d ec	 mov	 ecx, DWORD PTR _d1$[ebp]
  00162	2b 88 1c 00 00
	00		 sub	 ecx, DWORD PTR ?env_tbl@@3PAUENVIRONMENT_EQU@@A[eax+28]
  00168	89 4d e0	 mov	 DWORD PTR _d3$[ebp], ecx

; 3464 : 			if(d3 > 2)

  0016b	83 7d e0 02	 cmp	 DWORD PTR _d3$[ebp], 2
  0016f	7e 07		 jle	 SHORT $LN15@play_envir

; 3465 : 				d3 = 2;

  00171	c7 45 e0 02 00
	00 00		 mov	 DWORD PTR _d3$[ebp], 2
$LN15@play_envir:

; 3466 : 			if(d3 < -2)

  00178	83 7d e0 fe	 cmp	 DWORD PTR _d3$[ebp], -2	; fffffffeH
  0017c	7d 07		 jge	 SHORT $LN16@play_envir

; 3467 : 				d3 = -2;

  0017e	c7 45 e0 fe ff
	ff ff		 mov	 DWORD PTR _d3$[ebp], -2	; fffffffeH
$LN16@play_envir:

; 3468 : 			//?????@e
; 3469 : 			env_tbl[d7].panpot += d3;

  00185	6b 45 d4 24	 imul	 eax, DWORD PTR _d7$[ebp], 36
  00189	8b 88 1c 00 00
	00		 mov	 ecx, DWORD PTR ?env_tbl@@3PAUENVIRONMENT_EQU@@A[eax+28]
  0018f	03 4d e0	 add	 ecx, DWORD PTR _d3$[ebp]
  00192	6b 55 d4 24	 imul	 edx, DWORD PTR _d7$[ebp], 36
  00196	89 8a 1c 00 00
	00		 mov	 DWORD PTR ?env_tbl@@3PAUENVIRONMENT_EQU@@A[edx+28], ecx
$LN14@play_envir:

; 3470 : 		}
; 3471 : //		play_environment_tone(env_tbl[d7].tone, env_tbl[d7].distance, env_tbl[d7].voice_address, env_tbl[d7].panpot, d0);
; 3472 : 		play_environment_tone(d7, d0);

  0019c	8b 45 f8	 mov	 eax, DWORD PTR _d0$[ebp]
  0019f	50		 push	 eax
  001a0	8b 4d d4	 mov	 ecx, DWORD PTR _d7$[ebp]
  001a3	51		 push	 ecx
  001a4	e8 00 00 00 00	 call	 ?play_environment_tone@@YAHHH@Z ; play_environment_tone
  001a9	83 c4 08	 add	 esp, 8

; 3473 : 
; 3474 : 		env_tbl[d7].count = 0;		//????????

  001ac	6b 45 d4 24	 imul	 eax, DWORD PTR _d7$[ebp], 36
  001b0	c7 80 08 00 00
	00 00 00 00 00	 mov	 DWORD PTR ?env_tbl@@3PAUENVIRONMENT_EQU@@A[eax+8], 0

; 3475 : 	}

  001ba	e9 68 fe ff ff	 jmp	 $LN2@play_envir
$LN1@play_envir:

; 3476 : }

  001bf	5f		 pop	 edi
  001c0	5e		 pop	 esi
  001c1	5b		 pop	 ebx
  001c2	81 c4 f0 00 00
	00		 add	 esp, 240		; 000000f0H
  001c8	3b ec		 cmp	 ebp, esp
  001ca	e8 00 00 00 00	 call	 __RTC_CheckEsp
  001cf	8b e5		 mov	 esp, ebp
  001d1	5d		 pop	 ebp
  001d2	c3		 ret	 0
?play_environment_check@@YAXXZ ENDP			; play_environment_check
_TEXT	ENDS
; Function compile flags: /Odtp /RTCsu /ZI
; File c:\users\administrator\desktop\????? ??\????? ??\client source code\system\t_music.cpp
;	COMDAT ?play_map_bgm_check@@YAXXZ
_TEXT	SEGMENT
tv64 = -196						; size = 4
?play_map_bgm_check@@YAXXZ PROC				; play_map_bgm_check, COMDAT

; 3229 : {

  00000	55		 push	 ebp
  00001	8b ec		 mov	 ebp, esp
  00003	81 ec c4 00 00
	00		 sub	 esp, 196		; 000000c4H
  00009	53		 push	 ebx
  0000a	56		 push	 esi
  0000b	57		 push	 edi
  0000c	8d bd 3c ff ff
	ff		 lea	 edi, DWORD PTR [ebp-196]
  00012	b9 31 00 00 00	 mov	 ecx, 49			; 00000031H
  00017	b8 cc cc cc cc	 mov	 eax, -858993460		; ccccccccH
  0001c	f3 ab		 rep stosd

; 3230 : 	switch(map_bgm_vct_no){

  0001e	a1 00 00 00 00	 mov	 eax, DWORD PTR ?map_bgm_vct_no@@3HA
  00023	89 85 3c ff ff
	ff		 mov	 DWORD PTR tv64[ebp], eax
  00029	83 bd 3c ff ff
	ff 03		 cmp	 DWORD PTR tv64[ebp], 3
  00030	0f 87 80 00 00
	00		 ja	 $LN1@play_map_b
  00036	8b 8d 3c ff ff
	ff		 mov	 ecx, DWORD PTR tv64[ebp]
  0003c	ff 24 8d 00 00
	00 00		 jmp	 DWORD PTR $LN12@play_map_b[ecx*4]
$LN4@play_map_b:

; 3231 : 	case 0:		//????????
; 3232 : 		if(draw_map_bgm_flg){

  00043	83 3d 00 00 00
	00 00		 cmp	 DWORD PTR ?draw_map_bgm_flg@@3HA, 0 ; draw_map_bgm_flg
  0004a	74 1a		 je	 SHORT $LN5@play_map_b

; 3233 : 			if(t_music_bgm_no != map_bgm_no){		//??????

  0004c	a1 00 00 00 00	 mov	 eax, DWORD PTR ?t_music_bgm_no@@3HA ; t_music_bgm_no
  00051	3b 05 00 00 00
	00		 cmp	 eax, DWORD PTR ?map_bgm_no@@3HA ; map_bgm_no
  00057	74 0d		 je	 SHORT $LN5@play_map_b

; 3234 : 				map_bgm_vct_no++;		//?????????

  00059	a1 00 00 00 00	 mov	 eax, DWORD PTR ?map_bgm_vct_no@@3HA
  0005e	83 c0 01	 add	 eax, 1
  00061	a3 00 00 00 00	 mov	 DWORD PTR ?map_bgm_vct_no@@3HA, eax
$LN5@play_map_b:

; 3235 : 			}
; 3236 : 		}
; 3237 : 		draw_map_bgm_flg = 0;

  00066	c7 05 00 00 00
	00 00 00 00 00	 mov	 DWORD PTR ?draw_map_bgm_flg@@3HA, 0 ; draw_map_bgm_flg

; 3238 : 		break;

  00070	eb 44		 jmp	 SHORT $LN1@play_map_b
$LN7@play_map_b:

; 3239 : 
; 3240 : 	case 1:		//???????????
; 3241 : 		fade_out_bgm();

  00072	e8 00 00 00 00	 call	 ?fade_out_bgm@@YAXXZ	; fade_out_bgm

; 3242 : 		map_bgm_vct_no++;		//????????r??

  00077	a1 00 00 00 00	 mov	 eax, DWORD PTR ?map_bgm_vct_no@@3HA
  0007c	83 c0 01	 add	 eax, 1
  0007f	a3 00 00 00 00	 mov	 DWORD PTR ?map_bgm_vct_no@@3HA, eax

; 3243 : 		break;

  00084	eb 30		 jmp	 SHORT $LN1@play_map_b
$LN8@play_map_b:

; 3244 : 
; 3245 : 	case 2:		//???????????r?
; 3246 : 		if(t_music_fade_flg == 0){		//??????????

  00086	83 3d 00 00 00
	00 00		 cmp	 DWORD PTR ?t_music_fade_flg@@3HA, 0 ; t_music_fade_flg
  0008d	75 0d		 jne	 SHORT $LN9@play_map_b

; 3247 : 			map_bgm_vct_no++;		//?????

  0008f	a1 00 00 00 00	 mov	 eax, DWORD PTR ?map_bgm_vct_no@@3HA
  00094	83 c0 01	 add	 eax, 1
  00097	a3 00 00 00 00	 mov	 DWORD PTR ?map_bgm_vct_no@@3HA, eax
$LN9@play_map_b:

; 3248 : 		}
; 3249 : 		break;

  0009c	eb 18		 jmp	 SHORT $LN1@play_map_b
$LN10@play_map_b:

; 3250 : 
; 3251 : 	case 3:		//????
; 3252 : 		play_bgm(map_bgm_no);		//????

  0009e	a1 00 00 00 00	 mov	 eax, DWORD PTR ?map_bgm_no@@3HA ; map_bgm_no
  000a3	50		 push	 eax
  000a4	e8 00 00 00 00	 call	 ?play_bgm@@YAHH@Z	; play_bgm
  000a9	83 c4 04	 add	 esp, 4

; 3253 : 		map_bgm_vct_no = 0;		//?????????

  000ac	c7 05 00 00 00
	00 00 00 00 00	 mov	 DWORD PTR ?map_bgm_vct_no@@3HA, 0
$LN1@play_map_b:

; 3254 : 		break;
; 3255 : 	}
; 3256 : }

  000b6	5f		 pop	 edi
  000b7	5e		 pop	 esi
  000b8	5b		 pop	 ebx
  000b9	81 c4 c4 00 00
	00		 add	 esp, 196		; 000000c4H
  000bf	3b ec		 cmp	 ebp, esp
  000c1	e8 00 00 00 00	 call	 __RTC_CheckEsp
  000c6	8b e5		 mov	 esp, ebp
  000c8	5d		 pop	 ebp
  000c9	c3		 ret	 0
  000ca	66 90		 npad	 2
$LN12@play_map_b:
  000cc	00 00 00 00	 DD	 $LN4@play_map_b
  000d0	00 00 00 00	 DD	 $LN7@play_map_b
  000d4	00 00 00 00	 DD	 $LN8@play_map_b
  000d8	00 00 00 00	 DD	 $LN10@play_map_b
?play_map_bgm_check@@YAXXZ ENDP				; play_map_bgm_check
_TEXT	ENDS
; Function compile flags: /Odtp /RTCsu /ZI
; File c:\users\administrator\desktop\????? ??\????? ??\client source code\system\t_music.cpp
;	COMDAT ?play_environment_tone@@YAHHH@Z
_TEXT	SEGMENT
_d0$ = -8						; size = 4
_tbl_no$ = 8						; size = 4
_new_flg$ = 12						; size = 4
?play_environment_tone@@YAHHH@Z PROC			; play_environment_tone, COMDAT

; 3126 : {

  00000	55		 push	 ebp
  00001	8b ec		 mov	 ebp, esp
  00003	81 ec cc 00 00
	00		 sub	 esp, 204		; 000000ccH
  00009	53		 push	 ebx
  0000a	56		 push	 esi
  0000b	57		 push	 edi
  0000c	8d bd 34 ff ff
	ff		 lea	 edi, DWORD PTR [ebp-204]
  00012	b9 33 00 00 00	 mov	 ecx, 51			; 00000033H
  00017	b8 cc cc cc cc	 mov	 eax, -858993460		; ccccccccH
  0001c	f3 ab		 rep stosd

; 3127 : 	int d0;
; 3128 : //	int total_level;
; 3129 : 
; 3130 : //	t_music_se_no = tone;
; 3131 : #ifdef _NB_CANCEL_BGM
; 3132 : 	if (声音开关) return -1;

  0001e	83 3d 00 00 00
	00 00		 cmp	 DWORD PTR ?声音开关@@3HA, 0 ; 声音开关
  00025	74 08		 je	 SHORT $LN4@play_envir
  00027	83 c8 ff	 or	 eax, -1
  0002a	e9 27 04 00 00	 jmp	 $LN1@play_envir
$LN4@play_envir:

; 3133 : #endif
; 3134 : 	if(dsound_flg == -1)

  0002f	83 3d 00 00 00
	00 ff		 cmp	 DWORD PTR ?dsound_flg@@3HA, -1 ; dsound_flg
  00036	75 08		 jne	 SHORT $LN5@play_envir

; 3135 : 		return -1;

  00038	83 c8 ff	 or	 eax, -1
  0003b	e9 16 04 00 00	 jmp	 $LN1@play_envir
$LN5@play_envir:

; 3136 : 
; 3137 : 	if(env_tbl[tbl_no].tone > TONE_MAX){		//???????

  00040	6b 45 08 24	 imul	 eax, DWORD PTR _tbl_no$[ebp], 36
  00044	81 b8 04 00 00
	00 f4 01 00 00	 cmp	 DWORD PTR ?env_tbl@@3PAUENVIRONMENT_EQU@@A[eax+4], 500 ; 000001f4H
  0004e	7e 08		 jle	 SHORT $LN6@play_envir

; 3138 : 		return -1;

  00050	83 c8 ff	 or	 eax, -1
  00053	e9 fe 03 00 00	 jmp	 $LN1@play_envir
$LN6@play_envir:

; 3139 : 	}
; 3140 : 
; 3141 : 	if(tone_tbl[ env_tbl[tbl_no].tone ].voice_place == -1){		//te????

  00058	6b 45 08 24	 imul	 eax, DWORD PTR _tbl_no$[ebp], 36
  0005c	8b 88 04 00 00
	00		 mov	 ecx, DWORD PTR ?env_tbl@@3PAUENVIRONMENT_EQU@@A[eax+4]
  00062	c1 e1 05	 shl	 ecx, 5
  00065	83 b9 00 00 00
	00 ff		 cmp	 DWORD PTR ?tone_tbl@@3PAUTONE_EQU@@A[ecx], -1
  0006c	75 08		 jne	 SHORT $LN7@play_envir

; 3142 : 		return -1;

  0006e	83 c8 ff	 or	 eax, -1
  00071	e9 e0 03 00 00	 jmp	 $LN1@play_envir
$LN7@play_envir:

; 3143 : 	}
; 3144 : 
; 3145 : //	if(tone_tbl[ env_tbl[tbl_no].tone ].play_time){		//??????
; 3146 : //		return 0;
; 3147 : //	}
; 3148 : 
; 3149 : 	env_tbl[tbl_no].distance = env_tbl[tbl_no].distance << 4;		//?????k??

  00076	6b 45 08 24	 imul	 eax, DWORD PTR _tbl_no$[ebp], 36
  0007a	8b 88 0c 00 00
	00		 mov	 ecx, DWORD PTR ?env_tbl@@3PAUENVIRONMENT_EQU@@A[eax+12]
  00080	c1 e1 04	 shl	 ecx, 4
  00083	6b 55 08 24	 imul	 edx, DWORD PTR _tbl_no$[ebp], 36
  00087	89 8a 0c 00 00
	00		 mov	 DWORD PTR ?env_tbl@@3PAUENVIRONMENT_EQU@@A[edx+12], ecx

; 3150 : 	env_tbl[tbl_no].distance /= 0x6a;				//

  0008d	6b 45 08 24	 imul	 eax, DWORD PTR _tbl_no$[ebp], 36
  00091	8b 80 0c 00 00
	00		 mov	 eax, DWORD PTR ?env_tbl@@3PAUENVIRONMENT_EQU@@A[eax+12]
  00097	99		 cdq
  00098	b9 6a 00 00 00	 mov	 ecx, 106		; 0000006aH
  0009d	f7 f9		 idiv	 ecx
  0009f	6b 55 08 24	 imul	 edx, DWORD PTR _tbl_no$[ebp], 36
  000a3	89 82 0c 00 00
	00		 mov	 DWORD PTR ?env_tbl@@3PAUENVIRONMENT_EQU@@A[edx+12], eax

; 3151 : 
; 3152 : //	if(env_tbl[tbl_no].distance >= 127)				//d????
; 3153 : //		return 0;					//????
; 3154 : 
; 3155 : 	if(env_tbl[tbl_no].distance >= 127)				//d????

  000a9	6b 45 08 24	 imul	 eax, DWORD PTR _tbl_no$[ebp], 36
  000ad	83 b8 0c 00 00
	00 7f		 cmp	 DWORD PTR ?env_tbl@@3PAUENVIRONMENT_EQU@@A[eax+12], 127 ; 0000007fH
  000b4	7c 0e		 jl	 SHORT $LN8@play_envir

; 3156 : 		env_tbl[tbl_no].distance = 127;					//????

  000b6	6b 45 08 24	 imul	 eax, DWORD PTR _tbl_no$[ebp], 36
  000ba	c7 80 0c 00 00
	00 7f 00 00 00	 mov	 DWORD PTR ?env_tbl@@3PAUENVIRONMENT_EQU@@A[eax+12], 127 ; 0000007fH
$LN8@play_envir:

; 3157 : 
; 3158 : 	if(new_flg){		//???

  000c4	83 7d 0c 00	 cmp	 DWORD PTR _new_flg$[ebp], 0
  000c8	0f 84 1c 01 00
	00		 je	 $LN9@play_envir

; 3159 : 		//q???瑙k????
; 3160 : 		d0 = voice[ env_tbl[tbl_no].voice_address ].tone_no;

  000ce	6b 45 08 24	 imul	 eax, DWORD PTR _tbl_no$[ebp], 36
  000d2	6b 88 00 00 00
	00 3c		 imul	 ecx, DWORD PTR ?env_tbl@@3PAUENVIRONMENT_EQU@@A[eax], 60
  000d9	8b 91 04 00 00
	00		 mov	 edx, DWORD PTR ?voice@@3PAUVOICE_EQU@@A[ecx+4]
  000df	89 55 f8	 mov	 DWORD PTR _d0$[ebp], edx

; 3161 : 		if(voice[ env_tbl[tbl_no].voice_address ].tone_no != env_tbl[tbl_no].tone){		//i??瑙k??????

  000e2	6b 45 08 24	 imul	 eax, DWORD PTR _tbl_no$[ebp], 36
  000e6	6b 88 00 00 00
	00 3c		 imul	 ecx, DWORD PTR ?env_tbl@@3PAUENVIRONMENT_EQU@@A[eax], 60
  000ed	6b 55 08 24	 imul	 edx, DWORD PTR _tbl_no$[ebp], 36
  000f1	8b 81 04 00 00
	00		 mov	 eax, DWORD PTR ?voice@@3PAUVOICE_EQU@@A[ecx+4]
  000f7	3b 82 04 00 00
	00		 cmp	 eax, DWORD PTR ?env_tbl@@3PAUENVIRONMENT_EQU@@A[edx+4]
  000fd	0f 84 e7 00 00
	00		 je	 $LN9@play_envir

; 3162 : 			voice[ env_tbl[tbl_no].voice_address ].tone_no = env_tbl[tbl_no].tone;		//?瑙k?颌V

  00103	6b 45 08 24	 imul	 eax, DWORD PTR _tbl_no$[ebp], 36
  00107	6b 4d 08 24	 imul	 ecx, DWORD PTR _tbl_no$[ebp], 36
  0010b	6b 91 00 00 00
	00 3c		 imul	 edx, DWORD PTR ?env_tbl@@3PAUENVIRONMENT_EQU@@A[ecx], 60
  00112	8b 80 04 00 00
	00		 mov	 eax, DWORD PTR ?env_tbl@@3PAUENVIRONMENT_EQU@@A[eax+4]
  00118	89 82 04 00 00
	00		 mov	 DWORD PTR ?voice@@3PAUVOICE_EQU@@A[edx+4], eax

; 3163 : 			//???????????蓰害?????
; 3164 : 			if(d0 != -2){

  0011e	83 7d f8 fe	 cmp	 DWORD PTR _d0$[ebp], -2	; fffffffeH
  00122	74 5c		 je	 SHORT $LN11@play_envir

; 3165 : 				RELEASE(pDSData[env_tbl[tbl_no].voice_address]);		//?

  00124	6b 45 08 24	 imul	 eax, DWORD PTR _tbl_no$[ebp], 36
  00128	8b 88 00 00 00
	00		 mov	 ecx, DWORD PTR ?env_tbl@@3PAUENVIRONMENT_EQU@@A[eax]
  0012e	83 3c 8d 00 00
	00 00 00	 cmp	 DWORD PTR ?pDSData@@3PAPAUIDirectSoundBuffer@@A[ecx*4], 0
  00136	74 48		 je	 SHORT $LN11@play_envir
  00138	6b 45 08 24	 imul	 eax, DWORD PTR _tbl_no$[ebp], 36
  0013c	8b 88 00 00 00
	00		 mov	 ecx, DWORD PTR ?env_tbl@@3PAUENVIRONMENT_EQU@@A[eax]
  00142	8b 14 8d 00 00
	00 00		 mov	 edx, DWORD PTR ?pDSData@@3PAPAUIDirectSoundBuffer@@A[ecx*4]
  00149	6b 45 08 24	 imul	 eax, DWORD PTR _tbl_no$[ebp], 36
  0014d	8b 88 00 00 00
	00		 mov	 ecx, DWORD PTR ?env_tbl@@3PAUENVIRONMENT_EQU@@A[eax]
  00153	8b 04 8d 00 00
	00 00		 mov	 eax, DWORD PTR ?pDSData@@3PAPAUIDirectSoundBuffer@@A[ecx*4]
  0015a	8b 0a		 mov	 ecx, DWORD PTR [edx]
  0015c	8b f4		 mov	 esi, esp
  0015e	50		 push	 eax
  0015f	8b 51 08	 mov	 edx, DWORD PTR [ecx+8]
  00162	ff d2		 call	 edx
  00164	3b f4		 cmp	 esi, esp
  00166	e8 00 00 00 00	 call	 __RTC_CheckEsp
  0016b	6b 45 08 24	 imul	 eax, DWORD PTR _tbl_no$[ebp], 36
  0016f	8b 88 00 00 00
	00		 mov	 ecx, DWORD PTR ?env_tbl@@3PAUENVIRONMENT_EQU@@A[eax]
  00175	c7 04 8d 00 00
	00 00 00 00 00
	00		 mov	 DWORD PTR ?pDSData@@3PAPAUIDirectSoundBuffer@@A[ecx*4], 0
$LN11@play_envir:

; 3166 : 			}
; 3167 : 			//????
; 3168 : 			if( pDSound->DuplicateSoundBuffer(pDSData_tone[tone_tbl[ env_tbl[tbl_no].tone ].voice_place],&pDSData[env_tbl[tbl_no].voice_address]) != DS_OK ){

  00180	6b 45 08 24	 imul	 eax, DWORD PTR _tbl_no$[ebp], 36
  00184	8b 88 00 00 00
	00		 mov	 ecx, DWORD PTR ?env_tbl@@3PAUENVIRONMENT_EQU@@A[eax]
  0018a	8d 14 8d 00 00
	00 00		 lea	 edx, DWORD PTR ?pDSData@@3PAPAUIDirectSoundBuffer@@A[ecx*4]
  00191	8b f4		 mov	 esi, esp
  00193	52		 push	 edx
  00194	6b 45 08 24	 imul	 eax, DWORD PTR _tbl_no$[ebp], 36
  00198	8b 88 04 00 00
	00		 mov	 ecx, DWORD PTR ?env_tbl@@3PAUENVIRONMENT_EQU@@A[eax+4]
  0019e	c1 e1 05	 shl	 ecx, 5
  001a1	8b 91 00 00 00
	00		 mov	 edx, DWORD PTR ?tone_tbl@@3PAUTONE_EQU@@A[ecx]
  001a7	8b 04 95 00 00
	00 00		 mov	 eax, DWORD PTR ?pDSData_tone@@3PAPAUIDirectSoundBuffer@@A[edx*4]
  001ae	50		 push	 eax
  001af	8b 0d 00 00 00
	00		 mov	 ecx, DWORD PTR ?pDSound@@3PAUIDirectSound@@A ; pDSound
  001b5	8b 11		 mov	 edx, DWORD PTR [ecx]
  001b7	a1 00 00 00 00	 mov	 eax, DWORD PTR ?pDSound@@3PAUIDirectSound@@A ; pDSound
  001bc	50		 push	 eax
  001bd	8b 4a 14	 mov	 ecx, DWORD PTR [edx+20]
  001c0	ff d1		 call	 ecx
  001c2	3b f4		 cmp	 esi, esp
  001c4	e8 00 00 00 00	 call	 __RTC_CheckEsp
  001c9	85 c0		 test	 eax, eax
  001cb	74 1d		 je	 SHORT $LN9@play_envir

; 3169 : #ifdef  _STONDEBUG_
; 3170 : 				MessageBox(hWnd, "复制声音buffer失败！", "Error", MB_OK);
; 3171 : #endif
; 3172 : 				//???????????蓰害??????
; 3173 : 				voice[ env_tbl[tbl_no].voice_address ].tone_no = -2;

  001cd	6b 45 08 24	 imul	 eax, DWORD PTR _tbl_no$[ebp], 36
  001d1	6b 88 00 00 00
	00 3c		 imul	 ecx, DWORD PTR ?env_tbl@@3PAUENVIRONMENT_EQU@@A[eax], 60
  001d8	c7 81 04 00 00
	00 fe ff ff ff	 mov	 DWORD PTR ?voice@@3PAUVOICE_EQU@@A[ecx+4], -2 ; fffffffeH

; 3174 : 				return -1;

  001e2	83 c8 ff	 or	 eax, -1
  001e5	e9 6c 02 00 00	 jmp	 $LN1@play_envir
$LN9@play_envir:

; 3175 : 			}
; 3176 : 		}
; 3177 : 	}
; 3178 : 
; 3179 : 	//??????
; 3180 : //	total_level = (127 - env_tbl[tbl_no].volume) * tone_tbl[ env_tbl[tbl_no].tone ].voice_volume / 127;
; 3181 : 
; 3182 : 	//?????????
; 3183 : //	total_level = total_level * t_music_se_volume / 15;
; 3184 : 
; 3185 : 	//???????????
; 3186 : 	if(env_tbl[tbl_no].volume != env_tbl[tbl_no].volume_old){

  001ea	6b 45 08 24	 imul	 eax, DWORD PTR _tbl_no$[ebp], 36
  001ee	6b 4d 08 24	 imul	 ecx, DWORD PTR _tbl_no$[ebp], 36
  001f2	8b 90 10 00 00
	00		 mov	 edx, DWORD PTR ?env_tbl@@3PAUENVIRONMENT_EQU@@A[eax+16]
  001f8	3b 91 14 00 00
	00		 cmp	 edx, DWORD PTR ?env_tbl@@3PAUENVIRONMENT_EQU@@A[ecx+20]
  001fe	74 59		 je	 SHORT $LN14@play_envir

; 3187 : 		// ????????
; 3188 : 		pDSData[ env_tbl[tbl_no].voice_address ]->SetVolume(volume_tbl[ env_tbl[tbl_no].volume ]);

  00200	6b 45 08 24	 imul	 eax, DWORD PTR _tbl_no$[ebp], 36
  00204	8b 88 10 00 00
	00		 mov	 ecx, DWORD PTR ?env_tbl@@3PAUENVIRONMENT_EQU@@A[eax+16]
  0020a	8b f4		 mov	 esi, esp
  0020c	8b 14 8d 00 00
	00 00		 mov	 edx, DWORD PTR ?volume_tbl@@3PAJA[ecx*4]
  00213	52		 push	 edx
  00214	6b 45 08 24	 imul	 eax, DWORD PTR _tbl_no$[ebp], 36
  00218	8b 88 00 00 00
	00		 mov	 ecx, DWORD PTR ?env_tbl@@3PAUENVIRONMENT_EQU@@A[eax]
  0021e	8b 14 8d 00 00
	00 00		 mov	 edx, DWORD PTR ?pDSData@@3PAPAUIDirectSoundBuffer@@A[ecx*4]
  00225	6b 45 08 24	 imul	 eax, DWORD PTR _tbl_no$[ebp], 36
  00229	8b 88 00 00 00
	00		 mov	 ecx, DWORD PTR ?env_tbl@@3PAUENVIRONMENT_EQU@@A[eax]
  0022f	8b 04 8d 00 00
	00 00		 mov	 eax, DWORD PTR ?pDSData@@3PAPAUIDirectSoundBuffer@@A[ecx*4]
  00236	8b 0a		 mov	 ecx, DWORD PTR [edx]
  00238	50		 push	 eax
  00239	8b 51 3c	 mov	 edx, DWORD PTR [ecx+60]
  0023c	ff d2		 call	 edx
  0023e	3b f4		 cmp	 esi, esp
  00240	e8 00 00 00 00	 call	 __RTC_CheckEsp

; 3189 : 		env_tbl[tbl_no].volume_old = env_tbl[tbl_no].volume;

  00245	6b 45 08 24	 imul	 eax, DWORD PTR _tbl_no$[ebp], 36
  00249	6b 4d 08 24	 imul	 ecx, DWORD PTR _tbl_no$[ebp], 36
  0024d	8b 90 10 00 00
	00		 mov	 edx, DWORD PTR ?env_tbl@@3PAUENVIRONMENT_EQU@@A[eax+16]
  00253	89 91 14 00 00
	00		 mov	 DWORD PTR ?env_tbl@@3PAUENVIRONMENT_EQU@@A[ecx+20], edx
$LN14@play_envir:

; 3190 : 	}
; 3191 : 
; 3192 : 	//???????????
; 3193 : 	if(env_tbl[tbl_no].panpot != env_tbl[tbl_no].panpot_old){

  00259	6b 45 08 24	 imul	 eax, DWORD PTR _tbl_no$[ebp], 36
  0025d	6b 4d 08 24	 imul	 ecx, DWORD PTR _tbl_no$[ebp], 36
  00261	8b 90 1c 00 00
	00		 mov	 edx, DWORD PTR ?env_tbl@@3PAUENVIRONMENT_EQU@@A[eax+28]
  00267	3b 91 20 00 00
	00		 cmp	 edx, DWORD PTR ?env_tbl@@3PAUENVIRONMENT_EQU@@A[ecx+32]
  0026d	74 59		 je	 SHORT $LN15@play_envir

; 3194 : 		// ????????
; 3195 : 		pDSData[ env_tbl[tbl_no].voice_address ]->SetPan(panpot_tbl[ env_tbl[tbl_no].panpot ]);

  0026f	6b 45 08 24	 imul	 eax, DWORD PTR _tbl_no$[ebp], 36
  00273	8b 88 1c 00 00
	00		 mov	 ecx, DWORD PTR ?env_tbl@@3PAUENVIRONMENT_EQU@@A[eax+28]
  00279	8b f4		 mov	 esi, esp
  0027b	8b 14 8d 00 00
	00 00		 mov	 edx, DWORD PTR ?panpot_tbl@@3PAJA[ecx*4]
  00282	52		 push	 edx
  00283	6b 45 08 24	 imul	 eax, DWORD PTR _tbl_no$[ebp], 36
  00287	8b 88 00 00 00
	00		 mov	 ecx, DWORD PTR ?env_tbl@@3PAUENVIRONMENT_EQU@@A[eax]
  0028d	8b 14 8d 00 00
	00 00		 mov	 edx, DWORD PTR ?pDSData@@3PAPAUIDirectSoundBuffer@@A[ecx*4]
  00294	6b 45 08 24	 imul	 eax, DWORD PTR _tbl_no$[ebp], 36
  00298	8b 88 00 00 00
	00		 mov	 ecx, DWORD PTR ?env_tbl@@3PAUENVIRONMENT_EQU@@A[eax]
  0029e	8b 04 8d 00 00
	00 00		 mov	 eax, DWORD PTR ?pDSData@@3PAPAUIDirectSoundBuffer@@A[ecx*4]
  002a5	8b 0a		 mov	 ecx, DWORD PTR [edx]
  002a7	50		 push	 eax
  002a8	8b 51 40	 mov	 edx, DWORD PTR [ecx+64]
  002ab	ff d2		 call	 edx
  002ad	3b f4		 cmp	 esi, esp
  002af	e8 00 00 00 00	 call	 __RTC_CheckEsp

; 3196 : 		env_tbl[tbl_no].panpot_old = env_tbl[tbl_no].panpot;

  002b4	6b 45 08 24	 imul	 eax, DWORD PTR _tbl_no$[ebp], 36
  002b8	6b 4d 08 24	 imul	 ecx, DWORD PTR _tbl_no$[ebp], 36
  002bc	8b 90 1c 00 00
	00		 mov	 edx, DWORD PTR ?env_tbl@@3PAUENVIRONMENT_EQU@@A[eax+28]
  002c2	89 91 20 00 00
	00		 mov	 DWORD PTR ?env_tbl@@3PAUENVIRONMENT_EQU@@A[ecx+32], edx
$LN15@play_envir:

; 3197 : 	}
; 3198 : 
; 3199 : 	//???k?e??
; 3200 : 	if(tone_tbl[ env_tbl[tbl_no].tone ].voice_note){

  002c8	6b 45 08 24	 imul	 eax, DWORD PTR _tbl_no$[ebp], 36
  002cc	8b 88 04 00 00
	00		 mov	 ecx, DWORD PTR ?env_tbl@@3PAUENVIRONMENT_EQU@@A[eax+4]
  002d2	c1 e1 05	 shl	 ecx, 5
  002d5	83 b9 10 00 00
	00 00		 cmp	 DWORD PTR ?tone_tbl@@3PAUTONE_EQU@@A[ecx+16], 0
  002dc	74 61		 je	 SHORT $LN16@play_envir

; 3201 : 		pDSData[ env_tbl[tbl_no].voice_address ]->SetFrequency(

  002de	6b 45 08 24	 imul	 eax, DWORD PTR _tbl_no$[ebp], 36
  002e2	8b 88 04 00 00
	00		 mov	 ecx, DWORD PTR ?env_tbl@@3PAUENVIRONMENT_EQU@@A[eax+4]
  002e8	c1 e1 05	 shl	 ecx, 5
  002eb	6b 55 08 24	 imul	 edx, DWORD PTR _tbl_no$[ebp], 36
  002ef	8b 82 04 00 00
	00		 mov	 eax, DWORD PTR ?env_tbl@@3PAUENVIRONMENT_EQU@@A[edx+4]
  002f5	c1 e0 05	 shl	 eax, 5
  002f8	8b 89 10 00 00
	00		 mov	 ecx, DWORD PTR ?tone_tbl@@3PAUTONE_EQU@@A[ecx+16]
  002fe	03 88 18 00 00
	00		 add	 ecx, DWORD PTR ?tone_tbl@@3PAUTONE_EQU@@A[eax+24]
  00304	8b f4		 mov	 esi, esp
  00306	8b 14 8d 00 00
	00 00		 mov	 edx, DWORD PTR ?freq_tbl@@3PAHA[ecx*4]
  0030d	52		 push	 edx
  0030e	6b 45 08 24	 imul	 eax, DWORD PTR _tbl_no$[ebp], 36
  00312	8b 88 00 00 00
	00		 mov	 ecx, DWORD PTR ?env_tbl@@3PAUENVIRONMENT_EQU@@A[eax]
  00318	8b 14 8d 00 00
	00 00		 mov	 edx, DWORD PTR ?pDSData@@3PAPAUIDirectSoundBuffer@@A[ecx*4]
  0031f	6b 45 08 24	 imul	 eax, DWORD PTR _tbl_no$[ebp], 36
  00323	8b 88 00 00 00
	00		 mov	 ecx, DWORD PTR ?env_tbl@@3PAUENVIRONMENT_EQU@@A[eax]
  00329	8b 04 8d 00 00
	00 00		 mov	 eax, DWORD PTR ?pDSData@@3PAPAUIDirectSoundBuffer@@A[ecx*4]
  00330	8b 0a		 mov	 ecx, DWORD PTR [edx]
  00332	50		 push	 eax
  00333	8b 51 44	 mov	 edx, DWORD PTR [ecx+68]
  00336	ff d2		 call	 edx
  00338	3b f4		 cmp	 esi, esp
  0033a	e8 00 00 00 00	 call	 __RTC_CheckEsp
$LN16@play_envir:

; 3202 : 			(DWORD)freq_tbl[tone_tbl[ env_tbl[tbl_no].tone ].voice_note + tone_tbl[ env_tbl[tbl_no].tone ].voice_rate]);
; 3203 : 	}
; 3204 : 
; 3205 : 	if(new_flg){		//???

  0033f	83 7d 0c 00	 cmp	 DWORD PTR _new_flg$[ebp], 0
  00343	0f 84 0b 01 00
	00		 je	 $LN17@play_envir

; 3206 : 		pDSData[ env_tbl[tbl_no].voice_address ]->SetCurrentPosition(0);	//

  00349	8b f4		 mov	 esi, esp
  0034b	6a 00		 push	 0
  0034d	6b 45 08 24	 imul	 eax, DWORD PTR _tbl_no$[ebp], 36
  00351	8b 88 00 00 00
	00		 mov	 ecx, DWORD PTR ?env_tbl@@3PAUENVIRONMENT_EQU@@A[eax]
  00357	8b 14 8d 00 00
	00 00		 mov	 edx, DWORD PTR ?pDSData@@3PAPAUIDirectSoundBuffer@@A[ecx*4]
  0035e	6b 45 08 24	 imul	 eax, DWORD PTR _tbl_no$[ebp], 36
  00362	8b 88 00 00 00
	00		 mov	 ecx, DWORD PTR ?env_tbl@@3PAUENVIRONMENT_EQU@@A[eax]
  00368	8b 04 8d 00 00
	00 00		 mov	 eax, DWORD PTR ?pDSData@@3PAPAUIDirectSoundBuffer@@A[ecx*4]
  0036f	8b 0a		 mov	 ecx, DWORD PTR [edx]
  00371	50		 push	 eax
  00372	8b 51 34	 mov	 edx, DWORD PTR [ecx+52]
  00375	ff d2		 call	 edx
  00377	3b f4		 cmp	 esi, esp
  00379	e8 00 00 00 00	 call	 __RTC_CheckEsp

; 3207 : 		if(tone_tbl[ env_tbl[tbl_no].tone ].voice_loop == 0 ){		//??????

  0037e	6b 45 08 24	 imul	 eax, DWORD PTR _tbl_no$[ebp], 36
  00382	8b 88 04 00 00
	00		 mov	 ecx, DWORD PTR ?env_tbl@@3PAUENVIRONMENT_EQU@@A[eax+4]
  00388	c1 e1 05	 shl	 ecx, 5
  0038b	83 b9 08 00 00
	00 00		 cmp	 DWORD PTR ?tone_tbl@@3PAUTONE_EQU@@A[ecx+8], 0
  00392	75 3b		 jne	 SHORT $LN18@play_envir

; 3208 : 			pDSData[ env_tbl[tbl_no].voice_address ]->Play(0, 0, 0);			//????

  00394	8b f4		 mov	 esi, esp
  00396	6a 00		 push	 0
  00398	6a 00		 push	 0
  0039a	6a 00		 push	 0
  0039c	6b 45 08 24	 imul	 eax, DWORD PTR _tbl_no$[ebp], 36
  003a0	8b 88 00 00 00
	00		 mov	 ecx, DWORD PTR ?env_tbl@@3PAUENVIRONMENT_EQU@@A[eax]
  003a6	8b 14 8d 00 00
	00 00		 mov	 edx, DWORD PTR ?pDSData@@3PAPAUIDirectSoundBuffer@@A[ecx*4]
  003ad	6b 45 08 24	 imul	 eax, DWORD PTR _tbl_no$[ebp], 36
  003b1	8b 88 00 00 00
	00		 mov	 ecx, DWORD PTR ?env_tbl@@3PAUENVIRONMENT_EQU@@A[eax]
  003b7	8b 04 8d 00 00
	00 00		 mov	 eax, DWORD PTR ?pDSData@@3PAPAUIDirectSoundBuffer@@A[ecx*4]
  003be	8b 0a		 mov	 ecx, DWORD PTR [edx]
  003c0	50		 push	 eax
  003c1	8b 51 30	 mov	 edx, DWORD PTR [ecx+48]
  003c4	ff d2		 call	 edx
  003c6	3b f4		 cmp	 esi, esp
  003c8	e8 00 00 00 00	 call	 __RTC_CheckEsp

; 3209 : 		} else {

  003cd	eb 4e		 jmp	 SHORT $LN2@play_envir
$LN18@play_envir:

; 3210 : 			voice[ env_tbl[tbl_no].voice_address ].loop_flg = 1;		//????

  003cf	6b 45 08 24	 imul	 eax, DWORD PTR _tbl_no$[ebp], 36
  003d3	6b 88 00 00 00
	00 3c		 imul	 ecx, DWORD PTR ?env_tbl@@3PAUENVIRONMENT_EQU@@A[eax], 60
  003da	c7 81 30 00 00
	00 01 00 00 00	 mov	 DWORD PTR ?voice@@3PAUVOICE_EQU@@A[ecx+48], 1

; 3211 : 			pDSData[ env_tbl[tbl_no].voice_address ]->Play(0, 0, DSBPLAY_LOOPING);		//????

  003e4	8b f4		 mov	 esi, esp
  003e6	6a 01		 push	 1
  003e8	6a 00		 push	 0
  003ea	6a 00		 push	 0
  003ec	6b 45 08 24	 imul	 eax, DWORD PTR _tbl_no$[ebp], 36
  003f0	8b 88 00 00 00
	00		 mov	 ecx, DWORD PTR ?env_tbl@@3PAUENVIRONMENT_EQU@@A[eax]
  003f6	8b 14 8d 00 00
	00 00		 mov	 edx, DWORD PTR ?pDSData@@3PAPAUIDirectSoundBuffer@@A[ecx*4]
  003fd	6b 45 08 24	 imul	 eax, DWORD PTR _tbl_no$[ebp], 36
  00401	8b 88 00 00 00
	00		 mov	 ecx, DWORD PTR ?env_tbl@@3PAUENVIRONMENT_EQU@@A[eax]
  00407	8b 04 8d 00 00
	00 00		 mov	 eax, DWORD PTR ?pDSData@@3PAPAUIDirectSoundBuffer@@A[ecx*4]
  0040e	8b 0a		 mov	 ecx, DWORD PTR [edx]
  00410	50		 push	 eax
  00411	8b 51 30	 mov	 edx, DWORD PTR [ecx+48]
  00414	ff d2		 call	 edx
  00416	3b f4		 cmp	 esi, esp
  00418	e8 00 00 00 00	 call	 __RTC_CheckEsp
$LN2@play_envir:

; 3212 : 		}
; 3213 : 
; 3214 : 		while(1){

  0041d	b8 01 00 00 00	 mov	 eax, 1
  00422	85 c0		 test	 eax, eax
  00424	74 2e		 je	 SHORT $LN17@play_envir

; 3215 : 			voice_seek_point++;		//??????

  00426	a1 00 00 00 00	 mov	 eax, DWORD PTR ?voice_seek_point@@3HA
  0042b	83 c0 01	 add	 eax, 1
  0042e	a3 00 00 00 00	 mov	 DWORD PTR ?voice_seek_point@@3HA, eax

; 3216 : 			voice_seek_point&=VOICE_MAX-1;				//

  00433	a1 00 00 00 00	 mov	 eax, DWORD PTR ?voice_seek_point@@3HA
  00438	83 e0 3f	 and	 eax, 63			; 0000003fH
  0043b	a3 00 00 00 00	 mov	 DWORD PTR ?voice_seek_point@@3HA, eax

; 3217 : 			if(voice[ voice_seek_point ].loop_flg == 0){		//??????????

  00440	6b 05 00 00 00
	00 3c		 imul	 eax, DWORD PTR ?voice_seek_point@@3HA, 60
  00447	83 b8 30 00 00
	00 00		 cmp	 DWORD PTR ?voice@@3PAUVOICE_EQU@@A[eax+48], 0
  0044e	75 02		 jne	 SHORT $LN20@play_envir

; 3218 : 				break;

  00450	eb 02		 jmp	 SHORT $LN17@play_envir
$LN20@play_envir:

; 3219 : 			}
; 3220 : 		}

  00452	eb c9		 jmp	 SHORT $LN2@play_envir
$LN17@play_envir:

; 3221 : 	}
; 3222 : //	tone_tbl[ env_tbl[tbl_no].tone ].play_time = 8;		//???????
; 3223 : 
; 3224 : 	return 0;

  00454	33 c0		 xor	 eax, eax
$LN1@play_envir:

; 3225 : }

  00456	5f		 pop	 edi
  00457	5e		 pop	 esi
  00458	5b		 pop	 ebx
  00459	81 c4 cc 00 00
	00		 add	 esp, 204		; 000000ccH
  0045f	3b ec		 cmp	 ebp, esp
  00461	e8 00 00 00 00	 call	 __RTC_CheckEsp
  00466	8b e5		 mov	 esp, ebp
  00468	5d		 pop	 ebp
  00469	c3		 ret	 0
?play_environment_tone@@YAHHH@Z ENDP			; play_environment_tone
_TEXT	ENDS
; Function compile flags: /Odtp /RTCsu /ZI
; File c:\users\administrator\desktop\????? ??\????? ??\client source code\system\t_music.cpp
;	COMDAT ?dwSoundInit2@@YAHPAUtWAVEFORMATEX@@KPAPAUIDirectSoundBuffer@@PAUHMMIO__@@@Z
_TEXT	SEGMENT
_hr$ = -172						; size = 4
_pn$ = -160						; size = 24
_dsbdesc$ = -128					; size = 36
_ret$ = -84						; size = 4
_dsbufferdesc$ = -72					; size = 36
_pcmwf$ = -28						; size = 18
__$ArrayPad$ = -4					; size = 4
_pWfmtx$ = 8						; size = 4
_DataSize$ = 12						; size = 4
_ppData$ = 16						; size = 4
_hmmio$ = 20						; size = 4
?dwSoundInit2@@YAHPAUtWAVEFORMATEX@@KPAPAUIDirectSoundBuffer@@PAUHMMIO__@@@Z PROC ; dwSoundInit2, COMDAT

; 2639 : {

  00000	55		 push	 ebp
  00001	8b ec		 mov	 ebp, esp
  00003	81 ec 70 01 00
	00		 sub	 esp, 368		; 00000170H
  00009	53		 push	 ebx
  0000a	56		 push	 esi
  0000b	57		 push	 edi
  0000c	8d bd 90 fe ff
	ff		 lea	 edi, DWORD PTR [ebp-368]
  00012	b9 5c 00 00 00	 mov	 ecx, 92			; 0000005cH
  00017	b8 cc cc cc cc	 mov	 eax, -858993460		; ccccccccH
  0001c	f3 ab		 rep stosd
  0001e	a1 00 00 00 00	 mov	 eax, DWORD PTR ___security_cookie
  00023	33 c5		 xor	 eax, ebp
  00025	89 45 fc	 mov	 DWORD PTR __$ArrayPad$[ebp], eax

; 2640 : 	// ?????????????????????
; 2641 : 	WAVEFORMATEX pcmwf = *pWfmtx;

  00028	8b 45 08	 mov	 eax, DWORD PTR _pWfmtx$[ebp]
  0002b	8b 08		 mov	 ecx, DWORD PTR [eax]
  0002d	89 4d e4	 mov	 DWORD PTR _pcmwf$[ebp], ecx
  00030	8b 50 04	 mov	 edx, DWORD PTR [eax+4]
  00033	89 55 e8	 mov	 DWORD PTR _pcmwf$[ebp+4], edx
  00036	8b 48 08	 mov	 ecx, DWORD PTR [eax+8]
  00039	89 4d ec	 mov	 DWORD PTR _pcmwf$[ebp+8], ecx
  0003c	8b 50 0c	 mov	 edx, DWORD PTR [eax+12]
  0003f	89 55 f0	 mov	 DWORD PTR _pcmwf$[ebp+12], edx
  00042	66 8b 40 10	 mov	 ax, WORD PTR [eax+16]
  00046	66 89 45 f4	 mov	 WORD PTR _pcmwf$[ebp+16], ax

; 2642 : 	DSBUFFERDESC  dsbufferdesc;
; 2643 : 	HRESULT ret;
; 2644 : 
; 2645 : 	//?????
; 2646 : 	if(stream_flg == 1){

  0004a	0f be 05 00 00
	00 00		 movsx	 eax, BYTE PTR ?stream_flg@@3DA
  00051	83 f8 01	 cmp	 eax, 1
  00054	75 36		 jne	 SHORT $LN4@dwSoundIni

; 2647 : 		RELEASE(pDSNotify);

  00056	83 3d 00 00 00
	00 00		 cmp	 DWORD PTR ?pDSNotify@@3PAUIDirectSoundNotify@@A, 0
  0005d	74 26		 je	 SHORT $LN5@dwSoundIni
  0005f	a1 00 00 00 00	 mov	 eax, DWORD PTR ?pDSNotify@@3PAUIDirectSoundNotify@@A
  00064	8b 08		 mov	 ecx, DWORD PTR [eax]
  00066	8b f4		 mov	 esi, esp
  00068	8b 15 00 00 00
	00		 mov	 edx, DWORD PTR ?pDSNotify@@3PAUIDirectSoundNotify@@A
  0006e	52		 push	 edx
  0006f	8b 41 08	 mov	 eax, DWORD PTR [ecx+8]
  00072	ff d0		 call	 eax
  00074	3b f4		 cmp	 esi, esp
  00076	e8 00 00 00 00	 call	 __RTC_CheckEsp
  0007b	c7 05 00 00 00
	00 00 00 00 00	 mov	 DWORD PTR ?pDSNotify@@3PAUIDirectSoundNotify@@A, 0
$LN5@dwSoundIni:

; 2648 : 		stream_flg = 0;

  00085	c6 05 00 00 00
	00 00		 mov	 BYTE PTR ?stream_flg@@3DA, 0
$LN4@dwSoundIni:

; 2649 : 	}
; 2650 : 	//??????????????
; 2651 : 	memset( &dsbufferdesc , 0  , sizeof( DSBUFFERDESC ) );

  0008c	6a 24		 push	 36			; 00000024H
  0008e	6a 00		 push	 0
  00090	8d 45 b8	 lea	 eax, DWORD PTR _dsbufferdesc$[ebp]
  00093	50		 push	 eax
  00094	e8 00 00 00 00	 call	 _memset
  00099	83 c4 0c	 add	 esp, 12			; 0000000cH

; 2652 : 	dsbufferdesc.dwSize = sizeof( DSBUFFERDESC );

  0009c	c7 45 b8 24 00
	00 00		 mov	 DWORD PTR _dsbufferdesc$[ebp], 36 ; 00000024H

; 2653 : 	dsbufferdesc.dwFlags = DSBCAPS_CTRLPOSITIONNOTIFY | /*DSBCAPS_CTRLDEFAULT*/DSBCAPS_CTRLPAN | DSBCAPS_CTRLVOLUME | DSBCAPS_CTRLFREQUENCY | DSBCAPS_GETCURRENTPOSITION2; 

  000a3	c7 45 bc e0 01
	01 00		 mov	 DWORD PTR _dsbufferdesc$[ebp+4], 66016 ; 000101e0H

; 2654 : //	dsbufferdesc.dwFlags = DSBCAPS_CTRLPOSITIONNOTIFY | DSBCAPS_STATIC | DSBCAPS_CTRLDEFAULT | DSBCAPS_GETCURRENTPOSITION2 | DSBCAPS_GLOBALFOCUS; 
; 2655 :     dsbufferdesc.dwBufferBytes = DataSize;

  000aa	8b 45 0c	 mov	 eax, DWORD PTR _DataSize$[ebp]
  000ad	89 45 c0	 mov	 DWORD PTR _dsbufferdesc$[ebp+8], eax

; 2656 :     dsbufferdesc.lpwfxFormat   = pWfmtx;

  000b0	8b 45 08	 mov	 eax, DWORD PTR _pWfmtx$[ebp]
  000b3	89 45 c8	 mov	 DWORD PTR _dsbufferdesc$[ebp+16], eax

; 2657 :     if ( pDSound->CreateSoundBuffer( &dsbufferdesc , ppData , NULL ) != DS_OK ){

  000b6	8b f4		 mov	 esi, esp
  000b8	6a 00		 push	 0
  000ba	8b 45 10	 mov	 eax, DWORD PTR _ppData$[ebp]
  000bd	50		 push	 eax
  000be	8d 4d b8	 lea	 ecx, DWORD PTR _dsbufferdesc$[ebp]
  000c1	51		 push	 ecx
  000c2	8b 15 00 00 00
	00		 mov	 edx, DWORD PTR ?pDSound@@3PAUIDirectSound@@A ; pDSound
  000c8	8b 02		 mov	 eax, DWORD PTR [edx]
  000ca	8b 0d 00 00 00
	00		 mov	 ecx, DWORD PTR ?pDSound@@3PAUIDirectSound@@A ; pDSound
  000d0	51		 push	 ecx
  000d1	8b 50 0c	 mov	 edx, DWORD PTR [eax+12]
  000d4	ff d2		 call	 edx
  000d6	3b f4		 cmp	 esi, esp
  000d8	e8 00 00 00 00	 call	 __RTC_CheckEsp
  000dd	85 c0		 test	 eax, eax
  000df	74 07		 je	 SHORT $LN6@dwSoundIni

; 2658 : #ifdef  _STONDEBUG_
; 2659 : 	    MessageBox(hWnd, "建立声音的buffer失败！", "Error", MB_OK);
; 2660 : #endif
; 2661 : 		return FALSE;

  000e1	33 c0		 xor	 eax, eax
  000e3	e9 3f 04 00 00	 jmp	 $LN1@dwSoundIni
$LN6@dwSoundIni:

; 2662 : 	}
; 2663 : 
; 2664 : 
; 2665 : 	//??????????
; 2666 : 	if( WaveDataRead( hmmio, &DataSize, pDSData_stream ) == FALSE  ){

  000e8	a1 00 00 00 00	 mov	 eax, DWORD PTR ?pDSData_stream@@3PAUIDirectSoundBuffer@@A ; pDSData_stream
  000ed	50		 push	 eax
  000ee	8d 4d 0c	 lea	 ecx, DWORD PTR _DataSize$[ebp]
  000f1	51		 push	 ecx
  000f2	8b 55 14	 mov	 edx, DWORD PTR _hmmio$[ebp]
  000f5	52		 push	 edx
  000f6	e8 00 00 00 00	 call	 ?WaveDataRead@@YAHPAUHMMIO__@@PAKPAUIDirectSoundBuffer@@@Z ; WaveDataRead
  000fb	83 c4 0c	 add	 esp, 12			; 0000000cH
  000fe	85 c0		 test	 eax, eax
  00100	75 07		 jne	 SHORT $LN7@dwSoundIni

; 2667 : #ifdef  _STONDEBUG_
; 2668 : 		MessageBox(hWnd, "读取WAV档失败！", "Error", MB_OK);
; 2669 : #endif
; 2670 : 		return FALSE;

  00102	33 c0		 xor	 eax, eax
  00104	e9 1e 04 00 00	 jmp	 $LN1@dwSoundIni
$LN7@dwSoundIni:

; 2671 : 	}
; 2672 : 
; 2673 : 	// ?????????????????????
; 2674 : //	WAVEFORMATEX pcmwf = *pWaveHeader;
; 2675 : 	DSBUFFERDESC dsbdesc; 
; 2676 : 	// DSBUFFERDESC?Bl?@e
; 2677 : 	ZeroMemory(&dsbdesc, sizeof(DSBUFFERDESC));

  00109	6a 24		 push	 36			; 00000024H
  0010b	6a 00		 push	 0
  0010d	8d 45 80	 lea	 eax, DWORD PTR _dsbdesc$[ebp]
  00110	50		 push	 eax
  00111	e8 00 00 00 00	 call	 _memset
  00116	83 c4 0c	 add	 esp, 12			; 0000000cH

; 2678 : 	dsbdesc.dwSize = sizeof(DSBUFFERDESC); 

  00119	c7 45 80 24 00
	00 00		 mov	 DWORD PTR _dsbdesc$[ebp], 36 ; 00000024H

; 2679 : #if ACTIVE
; 2680 : 	dsbdesc.dwFlags = DSBCAPS_CTRLPOSITIONNOTIFY | /*DSBCAPS_CTRLDEFAULT*/DSBCAPS_CTRLPAN | DSBCAPS_CTRLVOLUME | DSBCAPS_CTRLFREQUENCY | DSBCAPS_GETCURRENTPOSITION2 | DSBCAPS_GLOBALFOCUS; 

  00120	c7 45 84 e0 81
	01 00		 mov	 DWORD PTR _dsbdesc$[ebp+4], 98784 ; 000181e0H

; 2681 : #else
; 2682 : 	dsbdesc.dwFlags = DSBCAPS_CTRLPOSITIONNOTIFY | /*DSBCAPS_CTRLDEFAULT*/DSBCAPS_CTRLPAN | DSBCAPS_CTRLVOLUME | DSBCAPS_CTRLFREQUENCY | DSBCAPS_GETCURRENTPOSITION2; 
; 2683 : #endif
; 2684 : 	// ?@e??Wave??????????????????
; 2685 : 	dsbdesc.dwBufferBytes = 2 * pcmwf.nAvgBytesPerSec; 

  00127	8b 45 ec	 mov	 eax, DWORD PTR _pcmwf$[ebp+8]
  0012a	d1 e0		 shl	 eax, 1
  0012c	89 45 88	 mov	 DWORD PTR _dsbdesc$[ebp+8], eax

; 2686 : 	dsbdesc.lpwfxFormat = &pcmwf; 

  0012f	8d 45 e4	 lea	 eax, DWORD PTR _pcmwf$[ebp]
  00132	89 45 90	 mov	 DWORD PTR _dsbdesc$[ebp+16], eax

; 2687 : 	ret = pDSound->CreateSoundBuffer(&dsbdesc, &pDSData_tone[ TONE_MAX ], NULL); 

  00135	8b f4		 mov	 esi, esp
  00137	6a 00		 push	 0
  00139	b8 04 00 00 00	 mov	 eax, 4
  0013e	69 c8 f4 01 00
	00		 imul	 ecx, eax, 500
  00144	81 c1 00 00 00
	00		 add	 ecx, OFFSET ?pDSData_tone@@3PAPAUIDirectSoundBuffer@@A ; pDSData_tone
  0014a	51		 push	 ecx
  0014b	8d 55 80	 lea	 edx, DWORD PTR _dsbdesc$[ebp]
  0014e	52		 push	 edx
  0014f	a1 00 00 00 00	 mov	 eax, DWORD PTR ?pDSound@@3PAUIDirectSound@@A ; pDSound
  00154	8b 08		 mov	 ecx, DWORD PTR [eax]
  00156	8b 15 00 00 00
	00		 mov	 edx, DWORD PTR ?pDSound@@3PAUIDirectSound@@A ; pDSound
  0015c	52		 push	 edx
  0015d	8b 41 0c	 mov	 eax, DWORD PTR [ecx+12]
  00160	ff d0		 call	 eax
  00162	3b f4		 cmp	 esi, esp
  00164	e8 00 00 00 00	 call	 __RTC_CheckEsp
  00169	89 45 ac	 mov	 DWORD PTR _ret$[ebp], eax

; 2688 : 	if(ret != DS_OK) { 

  0016c	83 7d ac 00	 cmp	 DWORD PTR _ret$[ebp], 0
  00170	74 36		 je	 SHORT $LN8@dwSoundIni

; 2689 : 	    // ???????害
; 2690 : //		RELEASE(pDSound);
; 2691 : 		RELEASE(pDSData_stream);

  00172	83 3d 00 00 00
	00 00		 cmp	 DWORD PTR ?pDSData_stream@@3PAUIDirectSoundBuffer@@A, 0 ; pDSData_stream
  00179	74 26		 je	 SHORT $LN9@dwSoundIni
  0017b	a1 00 00 00 00	 mov	 eax, DWORD PTR ?pDSData_stream@@3PAUIDirectSoundBuffer@@A ; pDSData_stream
  00180	8b 08		 mov	 ecx, DWORD PTR [eax]
  00182	8b f4		 mov	 esi, esp
  00184	8b 15 00 00 00
	00		 mov	 edx, DWORD PTR ?pDSData_stream@@3PAUIDirectSoundBuffer@@A ; pDSData_stream
  0018a	52		 push	 edx
  0018b	8b 41 08	 mov	 eax, DWORD PTR [ecx+8]
  0018e	ff d0		 call	 eax
  00190	3b f4		 cmp	 esi, esp
  00192	e8 00 00 00 00	 call	 __RTC_CheckEsp
  00197	c7 05 00 00 00
	00 00 00 00 00	 mov	 DWORD PTR ?pDSData_stream@@3PAUIDirectSoundBuffer@@A, 0 ; pDSData_stream
$LN9@dwSoundIni:

; 2692 : #ifdef  _STONDEBUG_
; 2693 : 	    MessageBox(hWnd, "建立声音的buffer失败！", "Error", MB_OK);
; 2694 : #endif
; 2695 : 		return FALSE;

  001a1	33 c0		 xor	 eax, eax
  001a3	e9 7f 03 00 00	 jmp	 $LN1@dwSoundIni
$LN8@dwSoundIni:

; 2696 : 	}
; 2697 : 
; 2698 : 	// DirectSoundNotify??????????
; 2699 : 	ret = pDSData_tone[ TONE_MAX ]->QueryInterface(IID_IDirectSoundNotify, (LPVOID*)&pDSNotify);

  001a8	8b f4		 mov	 esi, esp
  001aa	68 00 00 00 00	 push	 OFFSET ?pDSNotify@@3PAUIDirectSoundNotify@@A
  001af	68 00 00 00 00	 push	 OFFSET _IID_IDirectSoundNotify
  001b4	b8 04 00 00 00	 mov	 eax, 4
  001b9	69 c8 f4 01 00
	00		 imul	 ecx, eax, 500
  001bf	8b 91 00 00 00
	00		 mov	 edx, DWORD PTR ?pDSData_tone@@3PAPAUIDirectSoundBuffer@@A[ecx]
  001c5	b8 04 00 00 00	 mov	 eax, 4
  001ca	69 c8 f4 01 00
	00		 imul	 ecx, eax, 500
  001d0	8b 81 00 00 00
	00		 mov	 eax, DWORD PTR ?pDSData_tone@@3PAPAUIDirectSoundBuffer@@A[ecx]
  001d6	8b 0a		 mov	 ecx, DWORD PTR [edx]
  001d8	50		 push	 eax
  001d9	8b 11		 mov	 edx, DWORD PTR [ecx]
  001db	ff d2		 call	 edx
  001dd	3b f4		 cmp	 esi, esp
  001df	e8 00 00 00 00	 call	 __RTC_CheckEsp
  001e4	89 45 ac	 mov	 DWORD PTR _ret$[ebp], eax

; 2700 : 	if(ret != DS_OK)

  001e7	83 7d ac 00	 cmp	 DWORD PTR _ret$[ebp], 0
  001eb	0f 84 92 00 00
	00		 je	 $LN10@dwSoundIni

; 2701 : 	{
; 2702 : //		RELEASE(pDSound);
; 2703 : 		RELEASE(pDSData_stream);

  001f1	83 3d 00 00 00
	00 00		 cmp	 DWORD PTR ?pDSData_stream@@3PAUIDirectSoundBuffer@@A, 0 ; pDSData_stream
  001f8	74 26		 je	 SHORT $LN11@dwSoundIni
  001fa	a1 00 00 00 00	 mov	 eax, DWORD PTR ?pDSData_stream@@3PAUIDirectSoundBuffer@@A ; pDSData_stream
  001ff	8b 08		 mov	 ecx, DWORD PTR [eax]
  00201	8b f4		 mov	 esi, esp
  00203	8b 15 00 00 00
	00		 mov	 edx, DWORD PTR ?pDSData_stream@@3PAUIDirectSoundBuffer@@A ; pDSData_stream
  00209	52		 push	 edx
  0020a	8b 41 08	 mov	 eax, DWORD PTR [ecx+8]
  0020d	ff d0		 call	 eax
  0020f	3b f4		 cmp	 esi, esp
  00211	e8 00 00 00 00	 call	 __RTC_CheckEsp
  00216	c7 05 00 00 00
	00 00 00 00 00	 mov	 DWORD PTR ?pDSData_stream@@3PAUIDirectSoundBuffer@@A, 0 ; pDSData_stream
$LN11@dwSoundIni:

; 2704 : 		RELEASE(pDSData_tone[ TONE_MAX ]);

  00220	b8 04 00 00 00	 mov	 eax, 4
  00225	69 c8 f4 01 00
	00		 imul	 ecx, eax, 500
  0022b	83 b9 00 00 00
	00 00		 cmp	 DWORD PTR ?pDSData_tone@@3PAPAUIDirectSoundBuffer@@A[ecx], 0
  00232	74 48		 je	 SHORT $LN12@dwSoundIni
  00234	b8 04 00 00 00	 mov	 eax, 4
  00239	69 c8 f4 01 00
	00		 imul	 ecx, eax, 500
  0023f	8b 91 00 00 00
	00		 mov	 edx, DWORD PTR ?pDSData_tone@@3PAPAUIDirectSoundBuffer@@A[ecx]
  00245	b8 04 00 00 00	 mov	 eax, 4
  0024a	69 c8 f4 01 00
	00		 imul	 ecx, eax, 500
  00250	8b 81 00 00 00
	00		 mov	 eax, DWORD PTR ?pDSData_tone@@3PAPAUIDirectSoundBuffer@@A[ecx]
  00256	8b 0a		 mov	 ecx, DWORD PTR [edx]
  00258	8b f4		 mov	 esi, esp
  0025a	50		 push	 eax
  0025b	8b 51 08	 mov	 edx, DWORD PTR [ecx+8]
  0025e	ff d2		 call	 edx
  00260	3b f4		 cmp	 esi, esp
  00262	e8 00 00 00 00	 call	 __RTC_CheckEsp
  00267	b8 04 00 00 00	 mov	 eax, 4
  0026c	69 c8 f4 01 00
	00		 imul	 ecx, eax, 500
  00272	c7 81 00 00 00
	00 00 00 00 00	 mov	 DWORD PTR ?pDSData_tone@@3PAPAUIDirectSoundBuffer@@A[ecx], 0
$LN12@dwSoundIni:

; 2705 : #ifdef  _STONDEBUG_
; 2706 : 	    MessageBox(hWnd, "建立DirectSoundNotify失败！", "Error", MB_OK);
; 2707 : #endif
; 2708 : 		return FALSE;

  0027c	33 c0		 xor	 eax, eax
  0027e	e9 a4 02 00 00	 jmp	 $LN1@dwSoundIni
$LN10@dwSoundIni:

; 2709 : 		//  ??害
; 2710 : 	}
; 2711 : 
; 2712 : 	// ?????????????
; 2713 : 	hEvent[0] = CreateEvent(NULL, FALSE, FALSE, NULL);

  00283	8b f4		 mov	 esi, esp
  00285	6a 00		 push	 0
  00287	6a 00		 push	 0
  00289	6a 00		 push	 0
  0028b	6a 00		 push	 0
  0028d	ff 15 00 00 00
	00		 call	 DWORD PTR __imp__CreateEventA@16
  00293	3b f4		 cmp	 esi, esp
  00295	e8 00 00 00 00	 call	 __RTC_CheckEsp
  0029a	b9 04 00 00 00	 mov	 ecx, 4
  0029f	6b d1 00	 imul	 edx, ecx, 0
  002a2	89 82 00 00 00
	00		 mov	 DWORD PTR ?hEvent@@3PAPAXA[edx], eax

; 2714 : 	hEvent[1] = CreateEvent(NULL, FALSE, FALSE, NULL);

  002a8	8b f4		 mov	 esi, esp
  002aa	6a 00		 push	 0
  002ac	6a 00		 push	 0
  002ae	6a 00		 push	 0
  002b0	6a 00		 push	 0
  002b2	ff 15 00 00 00
	00		 call	 DWORD PTR __imp__CreateEventA@16
  002b8	3b f4		 cmp	 esi, esp
  002ba	e8 00 00 00 00	 call	 __RTC_CheckEsp
  002bf	b9 04 00 00 00	 mov	 ecx, 4
  002c4	c1 e1 00	 shl	 ecx, 0
  002c7	89 81 00 00 00
	00		 mov	 DWORD PTR ?hEvent@@3PAPAXA[ecx], eax

; 2715 : 	hEvent[2] = CreateEvent(NULL, FALSE, FALSE, NULL);

  002cd	8b f4		 mov	 esi, esp
  002cf	6a 00		 push	 0
  002d1	6a 00		 push	 0
  002d3	6a 00		 push	 0
  002d5	6a 00		 push	 0
  002d7	ff 15 00 00 00
	00		 call	 DWORD PTR __imp__CreateEventA@16
  002dd	3b f4		 cmp	 esi, esp
  002df	e8 00 00 00 00	 call	 __RTC_CheckEsp
  002e4	b9 04 00 00 00	 mov	 ecx, 4
  002e9	d1 e1		 shl	 ecx, 1
  002eb	89 81 00 00 00
	00		 mov	 DWORD PTR ?hEvent@@3PAPAXA[ecx], eax

; 2716 : 
; 2717 : 	// DirectSoundNotify???????@e??
; 2718 : 	// ?Bl????
; 2719 : 	DSBPOSITIONNOTIFY  pn[3];
; 2720 : 	pn[0].dwOffset = 0;	// ??

  002f1	b8 08 00 00 00	 mov	 eax, 8
  002f6	6b c8 00	 imul	 ecx, eax, 0
  002f9	c7 84 0d 60 ff
	ff ff 00 00 00
	00		 mov	 DWORD PTR _pn$[ebp+ecx], 0

; 2721 : 	pn[0].hEventNotify = hEvent[0];

  00304	b8 04 00 00 00	 mov	 eax, 4
  00309	6b c8 00	 imul	 ecx, eax, 0
  0030c	ba 08 00 00 00	 mov	 edx, 8
  00311	6b c2 00	 imul	 eax, edx, 0
  00314	8b 89 00 00 00
	00		 mov	 ecx, DWORD PTR ?hEvent@@3PAPAXA[ecx]
  0031a	89 8c 05 64 ff
	ff ff		 mov	 DWORD PTR _pn$[ebp+eax+4], ecx

; 2722 : 	pn[1].dwOffset = 1 * pcmwf.nAvgBytesPerSec;	// ??

  00321	b8 08 00 00 00	 mov	 eax, 8
  00326	c1 e0 00	 shl	 eax, 0
  00329	8b 4d ec	 mov	 ecx, DWORD PTR _pcmwf$[ebp+8]
  0032c	89 8c 05 60 ff
	ff ff		 mov	 DWORD PTR _pn$[ebp+eax], ecx

; 2723 : 	pn[1].hEventNotify = hEvent[1];

  00333	b8 04 00 00 00	 mov	 eax, 4
  00338	c1 e0 00	 shl	 eax, 0
  0033b	b9 08 00 00 00	 mov	 ecx, 8
  00340	c1 e1 00	 shl	 ecx, 0
  00343	8b 90 00 00 00
	00		 mov	 edx, DWORD PTR ?hEvent@@3PAPAXA[eax]
  00349	89 94 0d 64 ff
	ff ff		 mov	 DWORD PTR _pn$[ebp+ecx+4], edx

; 2724 : 	pn[2].dwOffset = DSBPN_OFFSETSTOP;	// ?丐_

  00350	b8 08 00 00 00	 mov	 eax, 8
  00355	d1 e0		 shl	 eax, 1
  00357	c7 84 05 60 ff
	ff ff ff ff ff
	ff		 mov	 DWORD PTR _pn$[ebp+eax], -1

; 2725 : 	pn[2].hEventNotify = hEvent[2];	// ??????????????_??????????

  00362	b8 04 00 00 00	 mov	 eax, 4
  00367	d1 e0		 shl	 eax, 1
  00369	b9 08 00 00 00	 mov	 ecx, 8
  0036e	d1 e1		 shl	 ecx, 1
  00370	8b 90 00 00 00
	00		 mov	 edx, DWORD PTR ?hEvent@@3PAPAXA[eax]
  00376	89 94 0d 64 ff
	ff ff		 mov	 DWORD PTR _pn$[ebp+ecx+4], edx

; 2726 : 
; 2727 : 	// _?t@e
; 2728 : 	HRESULT hr;
; 2729 : 	hr = pDSNotify->SetNotificationPositions(3, pn);

  0037d	8b f4		 mov	 esi, esp
  0037f	8d 85 60 ff ff
	ff		 lea	 eax, DWORD PTR _pn$[ebp]
  00385	50		 push	 eax
  00386	6a 03		 push	 3
  00388	8b 0d 00 00 00
	00		 mov	 ecx, DWORD PTR ?pDSNotify@@3PAUIDirectSoundNotify@@A
  0038e	8b 11		 mov	 edx, DWORD PTR [ecx]
  00390	a1 00 00 00 00	 mov	 eax, DWORD PTR ?pDSNotify@@3PAUIDirectSoundNotify@@A
  00395	50		 push	 eax
  00396	8b 4a 0c	 mov	 ecx, DWORD PTR [edx+12]
  00399	ff d1		 call	 ecx
  0039b	3b f4		 cmp	 esi, esp
  0039d	e8 00 00 00 00	 call	 __RTC_CheckEsp
  003a2	89 85 54 ff ff
	ff		 mov	 DWORD PTR _hr$[ebp], eax

; 2730 : 	if(hr != DS_OK)

  003a8	83 bd 54 ff ff
	ff 00		 cmp	 DWORD PTR _hr$[ebp], 0
  003af	0f 84 c1 00 00
	00		 je	 $LN13@dwSoundIni

; 2731 : 	{
; 2732 : 	    // @e害
; 2733 : 		RELEASE(pDSNotify);

  003b5	83 3d 00 00 00
	00 00		 cmp	 DWORD PTR ?pDSNotify@@3PAUIDirectSoundNotify@@A, 0
  003bc	74 26		 je	 SHORT $LN14@dwSoundIni
  003be	a1 00 00 00 00	 mov	 eax, DWORD PTR ?pDSNotify@@3PAUIDirectSoundNotify@@A
  003c3	8b 08		 mov	 ecx, DWORD PTR [eax]
  003c5	8b f4		 mov	 esi, esp
  003c7	8b 15 00 00 00
	00		 mov	 edx, DWORD PTR ?pDSNotify@@3PAUIDirectSoundNotify@@A
  003cd	52		 push	 edx
  003ce	8b 41 08	 mov	 eax, DWORD PTR [ecx+8]
  003d1	ff d0		 call	 eax
  003d3	3b f4		 cmp	 esi, esp
  003d5	e8 00 00 00 00	 call	 __RTC_CheckEsp
  003da	c7 05 00 00 00
	00 00 00 00 00	 mov	 DWORD PTR ?pDSNotify@@3PAUIDirectSoundNotify@@A, 0
$LN14@dwSoundIni:

; 2734 : //		RELEASE(pDSound);
; 2735 : 		RELEASE(pDSData_stream);

  003e4	83 3d 00 00 00
	00 00		 cmp	 DWORD PTR ?pDSData_stream@@3PAUIDirectSoundBuffer@@A, 0 ; pDSData_stream
  003eb	74 26		 je	 SHORT $LN15@dwSoundIni
  003ed	a1 00 00 00 00	 mov	 eax, DWORD PTR ?pDSData_stream@@3PAUIDirectSoundBuffer@@A ; pDSData_stream
  003f2	8b 08		 mov	 ecx, DWORD PTR [eax]
  003f4	8b f4		 mov	 esi, esp
  003f6	8b 15 00 00 00
	00		 mov	 edx, DWORD PTR ?pDSData_stream@@3PAUIDirectSoundBuffer@@A ; pDSData_stream
  003fc	52		 push	 edx
  003fd	8b 41 08	 mov	 eax, DWORD PTR [ecx+8]
  00400	ff d0		 call	 eax
  00402	3b f4		 cmp	 esi, esp
  00404	e8 00 00 00 00	 call	 __RTC_CheckEsp
  00409	c7 05 00 00 00
	00 00 00 00 00	 mov	 DWORD PTR ?pDSData_stream@@3PAUIDirectSoundBuffer@@A, 0 ; pDSData_stream
$LN15@dwSoundIni:

; 2736 : 		RELEASE(pDSData_tone[ TONE_MAX ]);

  00413	b8 04 00 00 00	 mov	 eax, 4
  00418	69 c8 f4 01 00
	00		 imul	 ecx, eax, 500
  0041e	83 b9 00 00 00
	00 00		 cmp	 DWORD PTR ?pDSData_tone@@3PAPAUIDirectSoundBuffer@@A[ecx], 0
  00425	74 48		 je	 SHORT $LN16@dwSoundIni
  00427	b8 04 00 00 00	 mov	 eax, 4
  0042c	69 c8 f4 01 00
	00		 imul	 ecx, eax, 500
  00432	8b 91 00 00 00
	00		 mov	 edx, DWORD PTR ?pDSData_tone@@3PAPAUIDirectSoundBuffer@@A[ecx]
  00438	b8 04 00 00 00	 mov	 eax, 4
  0043d	69 c8 f4 01 00
	00		 imul	 ecx, eax, 500
  00443	8b 81 00 00 00
	00		 mov	 eax, DWORD PTR ?pDSData_tone@@3PAPAUIDirectSoundBuffer@@A[ecx]
  00449	8b 0a		 mov	 ecx, DWORD PTR [edx]
  0044b	8b f4		 mov	 esi, esp
  0044d	50		 push	 eax
  0044e	8b 51 08	 mov	 edx, DWORD PTR [ecx+8]
  00451	ff d2		 call	 edx
  00453	3b f4		 cmp	 esi, esp
  00455	e8 00 00 00 00	 call	 __RTC_CheckEsp
  0045a	b8 04 00 00 00	 mov	 eax, 4
  0045f	69 c8 f4 01 00
	00		 imul	 ecx, eax, 500
  00465	c7 81 00 00 00
	00 00 00 00 00	 mov	 DWORD PTR ?pDSData_tone@@3PAPAUIDirectSoundBuffer@@A[ecx], 0
$LN16@dwSoundIni:

; 2737 : #ifdef  _STONDEBUG_
; 2738 : 	    MessageBox(hWnd, "设定DirectSoundNotify失败！", "Error", MB_OK);
; 2739 : #endif
; 2740 : 		return FALSE;

  0046f	33 c0		 xor	 eax, eax
  00471	e9 b1 00 00 00	 jmp	 $LN1@dwSoundIni
$LN13@dwSoundIni:

; 2741 : 	}
; 2742 : 
; 2743 : 	stream_flg = 1;		//???????

  00476	c6 05 00 00 00
	00 01		 mov	 BYTE PTR ?stream_flg@@3DA, 1

; 2744 : 
; 2745 : 	// ??????????????
; 2746 : 	thread_start_flg = 0;

  0047d	c7 05 00 00 00
	00 00 00 00 00	 mov	 DWORD PTR ?thread_start_flg@@3HC, 0

; 2747 : 
; 2748 : 	// ?????????
; 2749 : 	sd.pDSBuffer = pDSData_tone[ TONE_MAX ];	// ??????????DirectSoundBuffer??????

  00487	b8 04 00 00 00	 mov	 eax, 4
  0048c	69 c8 f4 01 00
	00		 imul	 ecx, eax, 500
  00492	8b 91 00 00 00
	00		 mov	 edx, DWORD PTR ?pDSData_tone@@3PAPAUIDirectSoundBuffer@@A[ecx]
  00498	89 15 00 00 00
	00		 mov	 DWORD PTR ?sd@@3USoundData@@A, edx

; 2750 : 	sd.phEvent = hEvent;	// 4.4.???????????????

  0049e	c7 05 04 00 00
	00 00 00 00 00	 mov	 DWORD PTR ?sd@@3USoundData@@A+4, OFFSET ?hEvent@@3PAPAXA ; hEvent

; 2751 : 	sd.dwEventNum = 3;	// ????????????

  004a8	c7 05 08 00 00
	00 03 00 00 00	 mov	 DWORD PTR ?sd@@3USoundData@@A+8, 3

; 2752 : 	sd.dwStopEventNum = 2;	// ??????????????_?????

  004b2	c7 05 0c 00 00
	00 02 00 00 00	 mov	 DWORD PTR ?sd@@3USoundData@@A+12, 2

; 2753 : 	sd.lpWaveData = pDSbuffData;	// ???Wave?????????@e?

  004bc	a1 00 00 00 00	 mov	 eax, DWORD PTR ?pDSbuffData@@3PAEA
  004c1	a3 10 00 00 00	 mov	 DWORD PTR ?sd@@3USoundData@@A+16, eax

; 2754 : 	sd.dwWaveSize = DataSize;	// ???Wave???????@e?

  004c6	8b 45 0c	 mov	 eax, DWORD PTR _DataSize$[ebp]
  004c9	a3 14 00 00 00	 mov	 DWORD PTR ?sd@@3USoundData@@A+20, eax

; 2755 : 	sd.dwBlock_size = pcmwf.nAvgBytesPerSec;	// 44.1kHz???????????

  004ce	8b 45 ec	 mov	 eax, DWORD PTR _pcmwf$[ebp+8]
  004d1	a3 18 00 00 00	 mov	 DWORD PTR ?sd@@3USoundData@@A+24, eax

; 2756 : 
; 2757 : 	// ??????????
; 2758 : 	hThreadHandle = CreateThread(NULL, 0, MyThreadFunc, &sd, 0, &dwThreadID);

  004d6	8b f4		 mov	 esi, esp
  004d8	68 00 00 00 00	 push	 OFFSET ?dwThreadID@@3KA	; dwThreadID
  004dd	6a 00		 push	 0
  004df	68 00 00 00 00	 push	 OFFSET ?sd@@3USoundData@@A ; sd
  004e4	68 00 00 00 00	 push	 OFFSET ?MyThreadFunc@@YGKPAX@Z ; MyThreadFunc
  004e9	6a 00		 push	 0
  004eb	6a 00		 push	 0
  004ed	ff 15 00 00 00
	00		 call	 DWORD PTR __imp__CreateThread@24
  004f3	3b f4		 cmp	 esi, esp
  004f5	e8 00 00 00 00	 call	 __RTC_CheckEsp
  004fa	a3 00 00 00 00	 mov	 DWORD PTR ?hThreadHandle@@3PAXA, eax ; hThreadHandle

; 2759 : 	if(hThreadHandle == NULL)

  004ff	83 3d 00 00 00
	00 00		 cmp	 DWORD PTR ?hThreadHandle@@3PAXA, 0 ; hThreadHandle
  00506	75 04		 jne	 SHORT $LN2@dwSoundIni

; 2760 : 	{
; 2761 : #ifdef  _STONDEBUG_
; 2762 : 	    // ?????佝?害
; 2763 : #ifdef  _STONDEBUG_
; 2764 : 	    MessageBox(hWnd, "建立Thread失败！", "Error", MB_OK);
; 2765 : #endif
; 2766 : #endif
; 2767 : 		return FALSE;

  00508	33 c0		 xor	 eax, eax
  0050a	eb 1b		 jmp	 SHORT $LN1@dwSoundIni
$LN2@dwSoundIni:

; 2768 : 	}
; 2769 : 
; 2770 : 	// ??????????r?
; 2771 : 	while(1){

  0050c	b8 01 00 00 00	 mov	 eax, 1
  00511	85 c0		 test	 eax, eax
  00513	74 0d		 je	 SHORT $LN3@dwSoundIni

; 2772 : 		if(thread_start_flg)

  00515	83 3d 00 00 00
	00 00		 cmp	 DWORD PTR ?thread_start_flg@@3HC, 0
  0051c	74 02		 je	 SHORT $LN18@dwSoundIni

; 2773 : 			break;

  0051e	eb 02		 jmp	 SHORT $LN3@dwSoundIni
$LN18@dwSoundIni:

; 2774 : 	}

  00520	eb ea		 jmp	 SHORT $LN2@dwSoundIni
$LN3@dwSoundIni:

; 2775 : 
; 2776 : //	SetThreadPriority(hThreadHandle,THREAD_PRIORITY_HIGHEST);
; 2777 : //	SetThreadPriority(hThreadHandle,THREAD_PRIORITY_ABOVE_NORMAL);
; 2778 : //	pDSData_tone[ TONE_MAX ]->Play(0, 0, DSBPLAY_LOOPING);
; 2779 : 	return TRUE;

  00522	b8 01 00 00 00	 mov	 eax, 1
$LN1@dwSoundIni:

; 2780 : }

  00527	52		 push	 edx
  00528	8b cd		 mov	 ecx, ebp
  0052a	50		 push	 eax
  0052b	8d 15 00 00 00
	00		 lea	 edx, DWORD PTR $LN25@dwSoundIni
  00531	e8 00 00 00 00	 call	 @_RTC_CheckStackVars@8
  00536	58		 pop	 eax
  00537	5a		 pop	 edx
  00538	5f		 pop	 edi
  00539	5e		 pop	 esi
  0053a	5b		 pop	 ebx
  0053b	8b 4d fc	 mov	 ecx, DWORD PTR __$ArrayPad$[ebp]
  0053e	33 cd		 xor	 ecx, ebp
  00540	e8 00 00 00 00	 call	 @__security_check_cookie@4
  00545	81 c4 70 01 00
	00		 add	 esp, 368		; 00000170H
  0054b	3b ec		 cmp	 ebp, esp
  0054d	e8 00 00 00 00	 call	 __RTC_CheckEsp
  00552	8b e5		 mov	 esp, ebp
  00554	5d		 pop	 ebp
  00555	c3		 ret	 0
  00556	66 90		 npad	 2
$LN25@dwSoundIni:
  00558	04 00 00 00	 DD	 4
  0055c	00 00 00 00	 DD	 $LN24@dwSoundIni
$LN24@dwSoundIni:
  00560	e4 ff ff ff	 DD	 -28			; ffffffe4H
  00564	12 00 00 00	 DD	 18			; 00000012H
  00568	00 00 00 00	 DD	 $LN20@dwSoundIni
  0056c	b8 ff ff ff	 DD	 -72			; ffffffb8H
  00570	24 00 00 00	 DD	 36			; 00000024H
  00574	00 00 00 00	 DD	 $LN21@dwSoundIni
  00578	80 ff ff ff	 DD	 -128			; ffffff80H
  0057c	24 00 00 00	 DD	 36			; 00000024H
  00580	00 00 00 00	 DD	 $LN22@dwSoundIni
  00584	60 ff ff ff	 DD	 -160			; ffffff60H
  00588	18 00 00 00	 DD	 24			; 00000018H
  0058c	00 00 00 00	 DD	 $LN23@dwSoundIni
$LN23@dwSoundIni:
  00590	70		 DB	 112			; 00000070H
  00591	6e		 DB	 110			; 0000006eH
  00592	00		 DB	 0
$LN22@dwSoundIni:
  00593	64		 DB	 100			; 00000064H
  00594	73		 DB	 115			; 00000073H
  00595	62		 DB	 98			; 00000062H
  00596	64		 DB	 100			; 00000064H
  00597	65		 DB	 101			; 00000065H
  00598	73		 DB	 115			; 00000073H
  00599	63		 DB	 99			; 00000063H
  0059a	00		 DB	 0
$LN21@dwSoundIni:
  0059b	64		 DB	 100			; 00000064H
  0059c	73		 DB	 115			; 00000073H
  0059d	62		 DB	 98			; 00000062H
  0059e	75		 DB	 117			; 00000075H
  0059f	66		 DB	 102			; 00000066H
  005a0	66		 DB	 102			; 00000066H
  005a1	65		 DB	 101			; 00000065H
  005a2	72		 DB	 114			; 00000072H
  005a3	64		 DB	 100			; 00000064H
  005a4	65		 DB	 101			; 00000065H
  005a5	73		 DB	 115			; 00000073H
  005a6	63		 DB	 99			; 00000063H
  005a7	00		 DB	 0
$LN20@dwSoundIni:
  005a8	70		 DB	 112			; 00000070H
  005a9	63		 DB	 99			; 00000063H
  005aa	6d		 DB	 109			; 0000006dH
  005ab	77		 DB	 119			; 00000077H
  005ac	66		 DB	 102			; 00000066H
  005ad	00		 DB	 0
?dwSoundInit2@@YAHPAUtWAVEFORMATEX@@KPAPAUIDirectSoundBuffer@@PAUHMMIO__@@@Z ENDP ; dwSoundInit2
_TEXT	ENDS
; Function compile flags: /Odtp /RTCsu /ZI
; File c:\users\administrator\desktop\????? ??\????? ??\client source code\system\t_music.cpp
;	COMDAT ?MyThreadFunc@@YGKPAX@Z
_TEXT	SEGMENT
tv77 = -220						; size = 4
_i$1 = -20						; size = 4
_waveAdd$ = -8						; size = 4
_param$ = 8						; size = 4
?MyThreadFunc@@YGKPAX@Z PROC				; MyThreadFunc, COMDAT

; 2592 : {

  00000	55		 push	 ebp
  00001	8b ec		 mov	 ebp, esp
  00003	81 ec dc 00 00
	00		 sub	 esp, 220		; 000000dcH
  00009	53		 push	 ebx
  0000a	56		 push	 esi
  0000b	57		 push	 edi
  0000c	8d bd 24 ff ff
	ff		 lea	 edi, DWORD PTR [ebp-220]
  00012	b9 37 00 00 00	 mov	 ecx, 55			; 00000037H
  00017	b8 cc cc cc cc	 mov	 eax, -858993460		; ccccccccH
  0001c	f3 ab		 rep stosd

; 2593 : 	LONG waveAdd = 0;

  0001e	c7 45 f8 00 00
	00 00		 mov	 DWORD PTR _waveAdd$[ebp], 0

; 2594 :     // ??????????????????????
; 2595 :     Block_Copy(sd.pDSBuffer, 0, sd.dwBlock_size, sd.lpWaveData, waveAdd, sd.dwWaveSize);

  00025	a1 14 00 00 00	 mov	 eax, DWORD PTR ?sd@@3USoundData@@A+20
  0002a	50		 push	 eax
  0002b	8d 4d f8	 lea	 ecx, DWORD PTR _waveAdd$[ebp]
  0002e	51		 push	 ecx
  0002f	8b 15 10 00 00
	00		 mov	 edx, DWORD PTR ?sd@@3USoundData@@A+16
  00035	52		 push	 edx
  00036	a1 18 00 00 00	 mov	 eax, DWORD PTR ?sd@@3USoundData@@A+24
  0003b	50		 push	 eax
  0003c	6a 00		 push	 0
  0003e	8b 0d 00 00 00
	00		 mov	 ecx, DWORD PTR ?sd@@3USoundData@@A
  00044	51		 push	 ecx
  00045	e8 00 00 00 00	 call	 ?Block_Copy@@YAXPAUIDirectSoundBuffer@@KKPAEAAJJ@Z ; Block_Copy
  0004a	83 c4 18	 add	 esp, 24			; 00000018H

; 2596 : 	thread_start_flg = 1;

  0004d	c7 05 00 00 00
	00 01 00 00 00	 mov	 DWORD PTR ?thread_start_flg@@3HC, 1
$LN2@MyThreadFu:

; 2597 :     // ?????????????V??
; 2598 :     while(TRUE)

  00057	b8 01 00 00 00	 mov	 eax, 1
  0005c	85 c0		 test	 eax, eax
  0005e	0f 84 0f 01 00
	00		 je	 $LN3@MyThreadFu

; 2599 :     {
; 2600 :         // DirectSoundBuffer????????r?
; 2601 :         DWORD i = WaitForMultipleObjects(sd.dwEventNum, sd.phEvent, FALSE, INFINITE);

  00064	8b f4		 mov	 esi, esp
  00066	6a ff		 push	 -1
  00068	6a 00		 push	 0
  0006a	a1 04 00 00 00	 mov	 eax, DWORD PTR ?sd@@3USoundData@@A+4
  0006f	50		 push	 eax
  00070	8b 0d 08 00 00
	00		 mov	 ecx, DWORD PTR ?sd@@3USoundData@@A+8
  00076	51		 push	 ecx
  00077	ff 15 00 00 00
	00		 call	 DWORD PTR __imp__WaitForMultipleObjects@16
  0007d	3b f4		 cmp	 esi, esp
  0007f	e8 00 00 00 00	 call	 __RTC_CheckEsp
  00084	89 45 ec	 mov	 DWORD PTR _i$1[ebp], eax

; 2602 :         // ?????????????????????????????????
; 2603 : 		wave_count++;

  00087	a1 00 00 00 00	 mov	 eax, DWORD PTR ?wave_count@@3JA
  0008c	83 c0 01	 add	 eax, 1
  0008f	a3 00 00 00 00	 mov	 DWORD PTR ?wave_count@@3JA, eax

; 2604 :         switch(i)

  00094	8b 45 ec	 mov	 eax, DWORD PTR _i$1[ebp]
  00097	89 85 24 ff ff
	ff		 mov	 DWORD PTR tv77[ebp], eax
  0009d	83 bd 24 ff ff
	ff 00		 cmp	 DWORD PTR tv77[ebp], 0
  000a4	74 57		 je	 SHORT $LN7@MyThreadFu
  000a6	83 bd 24 ff ff
	ff 01		 cmp	 DWORD PTR tv77[ebp], 1
  000ad	74 12		 je	 SHORT $LN6@MyThreadFu
  000af	83 bd 24 ff ff
	ff 02		 cmp	 DWORD PTR tv77[ebp], 2
  000b6	0f 84 82 00 00
	00		 je	 $LN8@MyThreadFu
  000bc	e9 95 00 00 00	 jmp	 $LN9@MyThreadFu
$LN6@MyThreadFu:

; 2605 :         {
; 2606 :             case WAIT_OBJECT_0 + 1:
; 2607 :                 // ?k???????????
; 2608 : 				buffer_address = 0; wave_address = waveAdd;

  000c1	c7 05 00 00 00
	00 00 00 00 00	 mov	 DWORD PTR ?buffer_address@@3JA, 0
  000cb	8b 45 f8	 mov	 eax, DWORD PTR _waveAdd$[ebp]
  000ce	a3 00 00 00 00	 mov	 DWORD PTR ?wave_address@@3JA, eax

; 2609 :                 Block_Copy(sd.pDSBuffer, 0, sd.dwBlock_size, sd.lpWaveData, waveAdd, sd.dwWaveSize);

  000d3	a1 14 00 00 00	 mov	 eax, DWORD PTR ?sd@@3USoundData@@A+20
  000d8	50		 push	 eax
  000d9	8d 4d f8	 lea	 ecx, DWORD PTR _waveAdd$[ebp]
  000dc	51		 push	 ecx
  000dd	8b 15 10 00 00
	00		 mov	 edx, DWORD PTR ?sd@@3USoundData@@A+16
  000e3	52		 push	 edx
  000e4	a1 18 00 00 00	 mov	 eax, DWORD PTR ?sd@@3USoundData@@A+24
  000e9	50		 push	 eax
  000ea	6a 00		 push	 0
  000ec	8b 0d 00 00 00
	00		 mov	 ecx, DWORD PTR ?sd@@3USoundData@@A
  000f2	51		 push	 ecx
  000f3	e8 00 00 00 00	 call	 ?Block_Copy@@YAXPAUIDirectSoundBuffer@@KKPAEAAJJ@Z ; Block_Copy
  000f8	83 c4 18	 add	 esp, 24			; 00000018H

; 2610 :                 break;

  000fb	eb 71		 jmp	 SHORT $LN4@MyThreadFu
$LN7@MyThreadFu:

; 2611 :             case WAIT_OBJECT_0:
; 2612 :                 // ?k???????????
; 2613 : 				buffer_address = sd.dwBlock_size; wave_address = waveAdd;

  000fd	a1 18 00 00 00	 mov	 eax, DWORD PTR ?sd@@3USoundData@@A+24
  00102	a3 00 00 00 00	 mov	 DWORD PTR ?buffer_address@@3JA, eax
  00107	8b 45 f8	 mov	 eax, DWORD PTR _waveAdd$[ebp]
  0010a	a3 00 00 00 00	 mov	 DWORD PTR ?wave_address@@3JA, eax

; 2614 :                 Block_Copy(sd.pDSBuffer, sd.dwBlock_size, sd.dwBlock_size, sd.lpWaveData, waveAdd, sd.dwWaveSize);

  0010f	a1 14 00 00 00	 mov	 eax, DWORD PTR ?sd@@3USoundData@@A+20
  00114	50		 push	 eax
  00115	8d 4d f8	 lea	 ecx, DWORD PTR _waveAdd$[ebp]
  00118	51		 push	 ecx
  00119	8b 15 10 00 00
	00		 mov	 edx, DWORD PTR ?sd@@3USoundData@@A+16
  0011f	52		 push	 edx
  00120	a1 18 00 00 00	 mov	 eax, DWORD PTR ?sd@@3USoundData@@A+24
  00125	50		 push	 eax
  00126	8b 0d 18 00 00
	00		 mov	 ecx, DWORD PTR ?sd@@3USoundData@@A+24
  0012c	51		 push	 ecx
  0012d	8b 15 00 00 00
	00		 mov	 edx, DWORD PTR ?sd@@3USoundData@@A
  00133	52		 push	 edx
  00134	e8 00 00 00 00	 call	 ?Block_Copy@@YAXPAUIDirectSoundBuffer@@KKPAEAAJJ@Z ; Block_Copy
  00139	83 c4 18	 add	 esp, 24			; 00000018H

; 2615 :                 break;

  0013c	eb 30		 jmp	 SHORT $LN4@MyThreadFu
$LN8@MyThreadFu:

; 2616 :             case WAIT_OBJECT_0 + 2:
; 2617 :                  // ?攸????????????
; 2618 : 				exit_thread_flg = 1;

  0013e	c6 05 00 00 00
	00 01		 mov	 BYTE PTR ?exit_thread_flg@@3DC, 1

; 2619 : 				ExitThread(TRUE);

  00145	8b f4		 mov	 esi, esp
  00147	6a 01		 push	 1
  00149	ff 15 00 00 00
	00		 call	 DWORD PTR __imp__ExitThread@4
  0014f	3b f4		 cmp	 esi, esp
  00151	e8 00 00 00 00	 call	 __RTC_CheckEsp
$LN9@MyThreadFu:

; 2620 :             default:
; 2621 :                  // ?攸????????????
; 2622 : 				exit_thread_flg = 1;

  00156	c6 05 00 00 00
	00 01		 mov	 BYTE PTR ?exit_thread_flg@@3DC, 1

; 2623 : 				ExitThread(TRUE);

  0015d	8b f4		 mov	 esi, esp
  0015f	6a 01		 push	 1
  00161	ff 15 00 00 00
	00		 call	 DWORD PTR __imp__ExitThread@4
  00167	3b f4		 cmp	 esi, esp
  00169	e8 00 00 00 00	 call	 __RTC_CheckEsp
$LN4@MyThreadFu:

; 2624 :         }
; 2625 : //		InvalidateRect(hwndApp, NULL, TRUE);
; 2626 :     }

  0016e	e9 e4 fe ff ff	 jmp	 $LN2@MyThreadFu
$LN3@MyThreadFu:

; 2627 : 	return 0L;

  00173	33 c0		 xor	 eax, eax
$LN10@MyThreadFu:

; 2628 : }

  00175	52		 push	 edx
  00176	8b cd		 mov	 ecx, ebp
  00178	50		 push	 eax
  00179	8d 15 00 00 00
	00		 lea	 edx, DWORD PTR $LN13@MyThreadFu
  0017f	e8 00 00 00 00	 call	 @_RTC_CheckStackVars@8
  00184	58		 pop	 eax
  00185	5a		 pop	 edx
  00186	5f		 pop	 edi
  00187	5e		 pop	 esi
  00188	5b		 pop	 ebx
  00189	81 c4 dc 00 00
	00		 add	 esp, 220		; 000000dcH
  0018f	3b ec		 cmp	 ebp, esp
  00191	e8 00 00 00 00	 call	 __RTC_CheckEsp
  00196	8b e5		 mov	 esp, ebp
  00198	5d		 pop	 ebp
  00199	c2 04 00	 ret	 4
$LN13@MyThreadFu:
  0019c	01 00 00 00	 DD	 1
  001a0	00 00 00 00	 DD	 $LN12@MyThreadFu
$LN12@MyThreadFu:
  001a4	f8 ff ff ff	 DD	 -8			; fffffff8H
  001a8	04 00 00 00	 DD	 4
  001ac	00 00 00 00	 DD	 $LN11@MyThreadFu
$LN11@MyThreadFu:
  001b0	77		 DB	 119			; 00000077H
  001b1	61		 DB	 97			; 00000061H
  001b2	76		 DB	 118			; 00000076H
  001b3	65		 DB	 101			; 00000065H
  001b4	41		 DB	 65			; 00000041H
  001b5	64		 DB	 100			; 00000064H
  001b6	64		 DB	 100			; 00000064H
  001b7	00		 DB	 0
?MyThreadFunc@@YGKPAX@Z ENDP				; MyThreadFunc
_TEXT	ENDS
; Function compile flags: /Odtp /RTCsu /ZI
; File c:\users\administrator\desktop\????? ??\????? ??\client source code\system\t_music.cpp
;	COMDAT ?Block_Copy@@YAXPAUIDirectSoundBuffer@@KKPAEAAJJ@Z
_TEXT	SEGMENT
_hr$ = -68						; size = 4
_ws$ = -56						; size = 4
_blockSize2$ = -44					; size = 4
_blockSize1$ = -32					; size = 4
_lpBlockAdd2$ = -20					; size = 4
_lpBlockAdd1$ = -8					; size = 4
_lpBuffer$ = 8						; size = 4
_blockadd$ = 12						; size = 4
_blocksize$ = 16					; size = 4
_lpWave$ = 20						; size = 4
_waveAdd$ = 24						; size = 4
_waveSize$ = 28						; size = 4
?Block_Copy@@YAXPAUIDirectSoundBuffer@@KKPAEAAJJ@Z PROC	; Block_Copy, COMDAT

; 2544 : {

  00000	55		 push	 ebp
  00001	8b ec		 mov	 ebp, esp
  00003	81 ec 08 01 00
	00		 sub	 esp, 264		; 00000108H
  00009	53		 push	 ebx
  0000a	56		 push	 esi
  0000b	57		 push	 edi
  0000c	8d bd f8 fe ff
	ff		 lea	 edi, DWORD PTR [ebp-264]
  00012	b9 42 00 00 00	 mov	 ecx, 66			; 00000042H
  00017	b8 cc cc cc cc	 mov	 eax, -858993460		; ccccccccH
  0001c	f3 ab		 rep stosd

; 2545 :     LPBYTE lpBlockAdd1, lpBlockAdd2;
; 2546 :     DWORD blockSize1, blockSize2;
; 2547 : 	LONG ws = waveSize - waveAdd;

  0001e	8b 45 18	 mov	 eax, DWORD PTR _waveAdd$[ebp]
  00021	8b 4d 1c	 mov	 ecx, DWORD PTR _waveSize$[ebp]
  00024	2b 08		 sub	 ecx, DWORD PTR [eax]
  00026	89 4d c8	 mov	 DWORD PTR _ws$[ebp], ecx

; 2548 : 
; 2549 :     // ????????
; 2550 :     HRESULT hr = lpBuffer->Lock(blockadd, blocksize, (LPVOID*)&lpBlockAdd1, &blockSize1, (LPVOID*)&lpBlockAdd2, &blockSize2, 0);

  00029	8b f4		 mov	 esi, esp
  0002b	6a 00		 push	 0
  0002d	8d 45 d4	 lea	 eax, DWORD PTR _blockSize2$[ebp]
  00030	50		 push	 eax
  00031	8d 4d ec	 lea	 ecx, DWORD PTR _lpBlockAdd2$[ebp]
  00034	51		 push	 ecx
  00035	8d 55 e0	 lea	 edx, DWORD PTR _blockSize1$[ebp]
  00038	52		 push	 edx
  00039	8d 45 f8	 lea	 eax, DWORD PTR _lpBlockAdd1$[ebp]
  0003c	50		 push	 eax
  0003d	8b 4d 10	 mov	 ecx, DWORD PTR _blocksize$[ebp]
  00040	51		 push	 ecx
  00041	8b 55 0c	 mov	 edx, DWORD PTR _blockadd$[ebp]
  00044	52		 push	 edx
  00045	8b 45 08	 mov	 eax, DWORD PTR _lpBuffer$[ebp]
  00048	8b 08		 mov	 ecx, DWORD PTR [eax]
  0004a	8b 55 08	 mov	 edx, DWORD PTR _lpBuffer$[ebp]
  0004d	52		 push	 edx
  0004e	8b 41 2c	 mov	 eax, DWORD PTR [ecx+44]
  00051	ff d0		 call	 eax
  00053	3b f4		 cmp	 esi, esp
  00055	e8 00 00 00 00	 call	 __RTC_CheckEsp
  0005a	89 45 bc	 mov	 DWORD PTR _hr$[ebp], eax

; 2551 :     if(hr == DS_OK)

  0005d	83 7d bc 00	 cmp	 DWORD PTR _hr$[ebp], 0
  00061	0f 85 42 01 00
	00		 jne	 $LN1@Block_Copy

; 2552 :     {
; 2553 :         if(ws < (long)blockSize1)

  00067	8b 45 c8	 mov	 eax, DWORD PTR _ws$[ebp]
  0006a	3b 45 e0	 cmp	 eax, DWORD PTR _blockSize1$[ebp]
  0006d	7d 55		 jge	 SHORT $LN3@Block_Copy

; 2554 :         {
; 2555 :             CopyMemory(lpBlockAdd1, lpWave + waveAdd, ws);

  0006f	8b 45 c8	 mov	 eax, DWORD PTR _ws$[ebp]
  00072	50		 push	 eax
  00073	8b 4d 18	 mov	 ecx, DWORD PTR _waveAdd$[ebp]
  00076	8b 55 14	 mov	 edx, DWORD PTR _lpWave$[ebp]
  00079	03 11		 add	 edx, DWORD PTR [ecx]
  0007b	52		 push	 edx
  0007c	8b 45 f8	 mov	 eax, DWORD PTR _lpBlockAdd1$[ebp]
  0007f	50		 push	 eax
  00080	e8 00 00 00 00	 call	 _memcpy
  00085	83 c4 0c	 add	 esp, 12			; 0000000cH

; 2556 : 			waveAdd = blockSize1 - ws;

  00088	8b 45 e0	 mov	 eax, DWORD PTR _blockSize1$[ebp]
  0008b	2b 45 c8	 sub	 eax, DWORD PTR _ws$[ebp]
  0008e	8b 4d 18	 mov	 ecx, DWORD PTR _waveAdd$[ebp]
  00091	89 01		 mov	 DWORD PTR [ecx], eax

; 2557 :             CopyMemory(lpBlockAdd1 + ws, lpWave + thread_loop_start, waveAdd);

  00093	8b 45 18	 mov	 eax, DWORD PTR _waveAdd$[ebp]
  00096	8b 08		 mov	 ecx, DWORD PTR [eax]
  00098	51		 push	 ecx
  00099	8b 55 14	 mov	 edx, DWORD PTR _lpWave$[ebp]
  0009c	03 15 00 00 00
	00		 add	 edx, DWORD PTR ?thread_loop_start@@3HA
  000a2	52		 push	 edx
  000a3	8b 45 f8	 mov	 eax, DWORD PTR _lpBlockAdd1$[ebp]
  000a6	03 45 c8	 add	 eax, DWORD PTR _ws$[ebp]
  000a9	50		 push	 eax
  000aa	e8 00 00 00 00	 call	 _memcpy
  000af	83 c4 0c	 add	 esp, 12			; 0000000cH

; 2558 :             waveAdd += thread_loop_start;

  000b2	8b 45 18	 mov	 eax, DWORD PTR _waveAdd$[ebp]
  000b5	8b 08		 mov	 ecx, DWORD PTR [eax]
  000b7	03 0d 00 00 00
	00		 add	 ecx, DWORD PTR ?thread_loop_start@@3HA
  000bd	8b 55 18	 mov	 edx, DWORD PTR _waveAdd$[ebp]
  000c0	89 0a		 mov	 DWORD PTR [edx], ecx

; 2559 :         }
; 2560 :         else

  000c2	eb 26		 jmp	 SHORT $LN4@Block_Copy
$LN3@Block_Copy:

; 2561 :         {
; 2562 :             CopyMemory(lpBlockAdd1, lpWave + waveAdd, blockSize1);

  000c4	8b 45 e0	 mov	 eax, DWORD PTR _blockSize1$[ebp]
  000c7	50		 push	 eax
  000c8	8b 4d 18	 mov	 ecx, DWORD PTR _waveAdd$[ebp]
  000cb	8b 55 14	 mov	 edx, DWORD PTR _lpWave$[ebp]
  000ce	03 11		 add	 edx, DWORD PTR [ecx]
  000d0	52		 push	 edx
  000d1	8b 45 f8	 mov	 eax, DWORD PTR _lpBlockAdd1$[ebp]
  000d4	50		 push	 eax
  000d5	e8 00 00 00 00	 call	 _memcpy
  000da	83 c4 0c	 add	 esp, 12			; 0000000cH

; 2563 :             waveAdd += blockSize1;

  000dd	8b 45 18	 mov	 eax, DWORD PTR _waveAdd$[ebp]
  000e0	8b 08		 mov	 ecx, DWORD PTR [eax]
  000e2	03 4d e0	 add	 ecx, DWORD PTR _blockSize1$[ebp]
  000e5	8b 55 18	 mov	 edx, DWORD PTR _waveAdd$[ebp]
  000e8	89 0a		 mov	 DWORD PTR [edx], ecx
$LN4@Block_Copy:

; 2564 :         }
; 2565 :         if(lpBlockAdd2)

  000ea	83 7d ec 00	 cmp	 DWORD PTR _lpBlockAdd2$[ebp], 0
  000ee	0f 84 8e 00 00
	00		 je	 $LN5@Block_Copy

; 2566 :         {
; 2567 : 			ws = waveSize - waveAdd;

  000f4	8b 45 18	 mov	 eax, DWORD PTR _waveAdd$[ebp]
  000f7	8b 4d 1c	 mov	 ecx, DWORD PTR _waveSize$[ebp]
  000fa	2b 08		 sub	 ecx, DWORD PTR [eax]
  000fc	89 4d c8	 mov	 DWORD PTR _ws$[ebp], ecx

; 2568 :             if(ws < (long)blockSize2)

  000ff	8b 45 c8	 mov	 eax, DWORD PTR _ws$[ebp]
  00102	3b 45 d4	 cmp	 eax, DWORD PTR _blockSize2$[ebp]
  00105	7d 55		 jge	 SHORT $LN6@Block_Copy

; 2569 :             {
; 2570 :                 CopyMemory(lpBlockAdd1, lpWave + waveAdd, ws);

  00107	8b 45 c8	 mov	 eax, DWORD PTR _ws$[ebp]
  0010a	50		 push	 eax
  0010b	8b 4d 18	 mov	 ecx, DWORD PTR _waveAdd$[ebp]
  0010e	8b 55 14	 mov	 edx, DWORD PTR _lpWave$[ebp]
  00111	03 11		 add	 edx, DWORD PTR [ecx]
  00113	52		 push	 edx
  00114	8b 45 f8	 mov	 eax, DWORD PTR _lpBlockAdd1$[ebp]
  00117	50		 push	 eax
  00118	e8 00 00 00 00	 call	 _memcpy
  0011d	83 c4 0c	 add	 esp, 12			; 0000000cH

; 2571 : 				waveAdd = blockSize2 - ws;

  00120	8b 45 d4	 mov	 eax, DWORD PTR _blockSize2$[ebp]
  00123	2b 45 c8	 sub	 eax, DWORD PTR _ws$[ebp]
  00126	8b 4d 18	 mov	 ecx, DWORD PTR _waveAdd$[ebp]
  00129	89 01		 mov	 DWORD PTR [ecx], eax

; 2572 :                 CopyMemory(lpBlockAdd1 + ws, lpWave + thread_loop_start, waveAdd);

  0012b	8b 45 18	 mov	 eax, DWORD PTR _waveAdd$[ebp]
  0012e	8b 08		 mov	 ecx, DWORD PTR [eax]
  00130	51		 push	 ecx
  00131	8b 55 14	 mov	 edx, DWORD PTR _lpWave$[ebp]
  00134	03 15 00 00 00
	00		 add	 edx, DWORD PTR ?thread_loop_start@@3HA
  0013a	52		 push	 edx
  0013b	8b 45 f8	 mov	 eax, DWORD PTR _lpBlockAdd1$[ebp]
  0013e	03 45 c8	 add	 eax, DWORD PTR _ws$[ebp]
  00141	50		 push	 eax
  00142	e8 00 00 00 00	 call	 _memcpy
  00147	83 c4 0c	 add	 esp, 12			; 0000000cH

; 2573 : 	            waveAdd += thread_loop_start;

  0014a	8b 45 18	 mov	 eax, DWORD PTR _waveAdd$[ebp]
  0014d	8b 08		 mov	 ecx, DWORD PTR [eax]
  0014f	03 0d 00 00 00
	00		 add	 ecx, DWORD PTR ?thread_loop_start@@3HA
  00155	8b 55 18	 mov	 edx, DWORD PTR _waveAdd$[ebp]
  00158	89 0a		 mov	 DWORD PTR [edx], ecx

; 2574 :             }
; 2575 :             else

  0015a	eb 26		 jmp	 SHORT $LN5@Block_Copy
$LN6@Block_Copy:

; 2576 :             {
; 2577 :                 CopyMemory(lpBlockAdd2, lpWave + waveAdd, blockSize2);

  0015c	8b 45 d4	 mov	 eax, DWORD PTR _blockSize2$[ebp]
  0015f	50		 push	 eax
  00160	8b 4d 18	 mov	 ecx, DWORD PTR _waveAdd$[ebp]
  00163	8b 55 14	 mov	 edx, DWORD PTR _lpWave$[ebp]
  00166	03 11		 add	 edx, DWORD PTR [ecx]
  00168	52		 push	 edx
  00169	8b 45 ec	 mov	 eax, DWORD PTR _lpBlockAdd2$[ebp]
  0016c	50		 push	 eax
  0016d	e8 00 00 00 00	 call	 _memcpy
  00172	83 c4 0c	 add	 esp, 12			; 0000000cH

; 2578 : 				waveAdd += blockSize2;

  00175	8b 45 18	 mov	 eax, DWORD PTR _waveAdd$[ebp]
  00178	8b 08		 mov	 ecx, DWORD PTR [eax]
  0017a	03 4d d4	 add	 ecx, DWORD PTR _blockSize2$[ebp]
  0017d	8b 55 18	 mov	 edx, DWORD PTR _waveAdd$[ebp]
  00180	89 0a		 mov	 DWORD PTR [edx], ecx
$LN5@Block_Copy:

; 2579 :             }
; 2580 :         }
; 2581 :         lpBuffer->Unlock(lpBlockAdd1, blockSize1, lpBlockAdd2, blockSize2);

  00182	8b f4		 mov	 esi, esp
  00184	8b 45 d4	 mov	 eax, DWORD PTR _blockSize2$[ebp]
  00187	50		 push	 eax
  00188	8b 4d ec	 mov	 ecx, DWORD PTR _lpBlockAdd2$[ebp]
  0018b	51		 push	 ecx
  0018c	8b 55 e0	 mov	 edx, DWORD PTR _blockSize1$[ebp]
  0018f	52		 push	 edx
  00190	8b 45 f8	 mov	 eax, DWORD PTR _lpBlockAdd1$[ebp]
  00193	50		 push	 eax
  00194	8b 4d 08	 mov	 ecx, DWORD PTR _lpBuffer$[ebp]
  00197	8b 11		 mov	 edx, DWORD PTR [ecx]
  00199	8b 45 08	 mov	 eax, DWORD PTR _lpBuffer$[ebp]
  0019c	50		 push	 eax
  0019d	8b 4a 4c	 mov	 ecx, DWORD PTR [edx+76]
  001a0	ff d1		 call	 ecx
  001a2	3b f4		 cmp	 esi, esp
  001a4	e8 00 00 00 00	 call	 __RTC_CheckEsp
$LN1@Block_Copy:

; 2582 :     }
; 2583 : }

  001a9	52		 push	 edx
  001aa	8b cd		 mov	 ecx, ebp
  001ac	50		 push	 eax
  001ad	8d 15 00 00 00
	00		 lea	 edx, DWORD PTR $LN14@Block_Copy
  001b3	e8 00 00 00 00	 call	 @_RTC_CheckStackVars@8
  001b8	58		 pop	 eax
  001b9	5a		 pop	 edx
  001ba	5f		 pop	 edi
  001bb	5e		 pop	 esi
  001bc	5b		 pop	 ebx
  001bd	81 c4 08 01 00
	00		 add	 esp, 264		; 00000108H
  001c3	3b ec		 cmp	 ebp, esp
  001c5	e8 00 00 00 00	 call	 __RTC_CheckEsp
  001ca	8b e5		 mov	 esp, ebp
  001cc	5d		 pop	 ebp
  001cd	c3		 ret	 0
  001ce	66 90		 npad	 2
$LN14@Block_Copy:
  001d0	04 00 00 00	 DD	 4
  001d4	00 00 00 00	 DD	 $LN13@Block_Copy
$LN13@Block_Copy:
  001d8	f8 ff ff ff	 DD	 -8			; fffffff8H
  001dc	04 00 00 00	 DD	 4
  001e0	00 00 00 00	 DD	 $LN9@Block_Copy
  001e4	ec ff ff ff	 DD	 -20			; ffffffecH
  001e8	04 00 00 00	 DD	 4
  001ec	00 00 00 00	 DD	 $LN10@Block_Copy
  001f0	e0 ff ff ff	 DD	 -32			; ffffffe0H
  001f4	04 00 00 00	 DD	 4
  001f8	00 00 00 00	 DD	 $LN11@Block_Copy
  001fc	d4 ff ff ff	 DD	 -44			; ffffffd4H
  00200	04 00 00 00	 DD	 4
  00204	00 00 00 00	 DD	 $LN12@Block_Copy
$LN12@Block_Copy:
  00208	62		 DB	 98			; 00000062H
  00209	6c		 DB	 108			; 0000006cH
  0020a	6f		 DB	 111			; 0000006fH
  0020b	63		 DB	 99			; 00000063H
  0020c	6b		 DB	 107			; 0000006bH
  0020d	53		 DB	 83			; 00000053H
  0020e	69		 DB	 105			; 00000069H
  0020f	7a		 DB	 122			; 0000007aH
  00210	65		 DB	 101			; 00000065H
  00211	32		 DB	 50			; 00000032H
  00212	00		 DB	 0
$LN11@Block_Copy:
  00213	62		 DB	 98			; 00000062H
  00214	6c		 DB	 108			; 0000006cH
  00215	6f		 DB	 111			; 0000006fH
  00216	63		 DB	 99			; 00000063H
  00217	6b		 DB	 107			; 0000006bH
  00218	53		 DB	 83			; 00000053H
  00219	69		 DB	 105			; 00000069H
  0021a	7a		 DB	 122			; 0000007aH
  0021b	65		 DB	 101			; 00000065H
  0021c	31		 DB	 49			; 00000031H
  0021d	00		 DB	 0
$LN10@Block_Copy:
  0021e	6c		 DB	 108			; 0000006cH
  0021f	70		 DB	 112			; 00000070H
  00220	42		 DB	 66			; 00000042H
  00221	6c		 DB	 108			; 0000006cH
  00222	6f		 DB	 111			; 0000006fH
  00223	63		 DB	 99			; 00000063H
  00224	6b		 DB	 107			; 0000006bH
  00225	41		 DB	 65			; 00000041H
  00226	64		 DB	 100			; 00000064H
  00227	64		 DB	 100			; 00000064H
  00228	32		 DB	 50			; 00000032H
  00229	00		 DB	 0
$LN9@Block_Copy:
  0022a	6c		 DB	 108			; 0000006cH
  0022b	70		 DB	 112			; 00000070H
  0022c	42		 DB	 66			; 00000042H
  0022d	6c		 DB	 108			; 0000006cH
  0022e	6f		 DB	 111			; 0000006fH
  0022f	63		 DB	 99			; 00000063H
  00230	6b		 DB	 107			; 0000006bH
  00231	41		 DB	 65			; 00000041H
  00232	64		 DB	 100			; 00000064H
  00233	64		 DB	 100			; 00000064H
  00234	31		 DB	 49			; 00000031H
  00235	00		 DB	 0
?Block_Copy@@YAXPAUIDirectSoundBuffer@@KKPAEAAJJ@Z ENDP	; Block_Copy
_TEXT	ENDS
; Function compile flags: /Odtp /RTCsu /ZI
; File c:\users\administrator\desktop\????? ??\????? ??\client source code\system\t_music.cpp
;	COMDAT ?music@@YAXXZ
_TEXT	SEGMENT
_d0$1 = -24						; size = 8
_d7$ = -8						; size = 4
?music@@YAXXZ PROC					; music, COMDAT

; 2313 : {

  00000	55		 push	 ebp
  00001	8b ec		 mov	 ebp, esp
  00003	81 ec dc 00 00
	00		 sub	 esp, 220		; 000000dcH
  00009	53		 push	 ebx
  0000a	56		 push	 esi
  0000b	57		 push	 edi
  0000c	8d bd 24 ff ff
	ff		 lea	 edi, DWORD PTR [ebp-220]
  00012	b9 37 00 00 00	 mov	 ecx, 55			; 00000037H
  00017	b8 cc cc cc cc	 mov	 eax, -858993460		; ccccccccH
  0001c	f3 ab		 rep stosd
$LN2@music:

; 2314 : 	int d7;
; 2315 : #if 1
; 2316 : #if THREAD_ON
; 2317 : 	while(!thread_flg){

  0001e	83 3d 00 00 00
	00 00		 cmp	 DWORD PTR ?thread_flg@@3HA, 0 ; thread_flg
  00025	0f 85 e6 00 00
	00		 jne	 $LN3@music

; 2318 : #if CLASS_UP
; 2319 : 		Sleep(1);		//??

  0002b	8b f4		 mov	 esi, esp
  0002d	6a 01		 push	 1
  0002f	ff 15 00 00 00
	00		 call	 DWORD PTR __imp__Sleep@4
  00035	3b f4		 cmp	 esi, esp
  00037	e8 00 00 00 00	 call	 __RTC_CheckEsp

; 2320 : #endif
; 2321 : #endif
; 2322 : 		LARGE_INTEGER d0;
; 2323 : 		QueryPerformanceCounter( &d0 );

  0003c	8b f4		 mov	 esi, esp
  0003e	8d 45 e8	 lea	 eax, DWORD PTR _d0$1[ebp]
  00041	50		 push	 eax
  00042	ff 15 00 00 00
	00		 call	 DWORD PTR __imp__QueryPerformanceCounter@4
  00048	3b f4		 cmp	 esi, esp
  0004a	e8 00 00 00 00	 call	 __RTC_CheckEsp

; 2324 : 		if((d_cnt.LowPart + tempo.LowPart) > d0.LowPart)

  0004f	a1 00 00 00 00	 mov	 eax, DWORD PTR ?d_cnt@@3T_LARGE_INTEGER@@A
  00054	03 05 00 00 00
	00		 add	 eax, DWORD PTR ?tempo@@3T_LARGE_INTEGER@@A
  0005a	3b 45 e8	 cmp	 eax, DWORD PTR _d0$1[ebp]
  0005d	76 02		 jbe	 SHORT $LN10@music

; 2325 : #if THREAD_ON
; 2326 : 		{
; 2327 : 			continue;

  0005f	eb bd		 jmp	 SHORT $LN2@music
$LN10@music:

; 2328 : 		}
; 2329 : #else
; 2330 : 			return;
; 2331 : #endif
; 2332 : #if !DEBUG_ON
; 2333 : 		if(abs(d0.LowPart - d_cnt.LowPart) > 3333333)
; 2334 : #if THREAD_ON
; 2335 : 			continue;
; 2336 : #else
; 2337 : 			return;
; 2338 : #endif
; 2339 : #endif
; 2340 : 		d_cnt.LowPart += tempo.LowPart;

  00061	a1 00 00 00 00	 mov	 eax, DWORD PTR ?d_cnt@@3T_LARGE_INTEGER@@A
  00066	03 05 00 00 00
	00		 add	 eax, DWORD PTR ?tempo@@3T_LARGE_INTEGER@@A
  0006c	a3 00 00 00 00	 mov	 DWORD PTR ?d_cnt@@3T_LARGE_INTEGER@@A, eax

; 2341 : #endif
; 2342 : 		if(!pause_flg){

  00071	83 3d 00 00 00
	00 00		 cmp	 DWORD PTR ?pause_flg@@3HA, 0
  00078	75 6d		 jne	 SHORT $LN11@music

; 2343 : #if VOICE_KILL_ON
; 2344 : 			for( d7 = 0 ; d7 < voice_kill_point ; d7++ ){
; 2345 : 				voice[ voice_kill_buf[ d7 ] ].name = 0;			//??????
; 2346 : 				pDSData[ voice_kill_buf[ d7 ] ]->Stop();		//????
; 2347 : 				pDSData[ voice_kill_buf[ d7 ] ]->SetCurrentPosition(0);	//
; 2348 : 			}
; 2349 : 			voice_kill_point=0;
; 2350 : #endif
; 2351 : 			for( d7 = 0 ; d7 < VOICE_MAX ; d7++ ){

  0007a	c7 45 f8 00 00
	00 00		 mov	 DWORD PTR _d7$[ebp], 0
  00081	eb 09		 jmp	 SHORT $LN6@music
$LN4@music:
  00083	8b 45 f8	 mov	 eax, DWORD PTR _d7$[ebp]
  00086	83 c0 01	 add	 eax, 1
  00089	89 45 f8	 mov	 DWORD PTR _d7$[ebp], eax
$LN6@music:
  0008c	83 7d f8 40	 cmp	 DWORD PTR _d7$[ebp], 64	; 00000040H
  00090	7d 1b		 jge	 SHORT $LN5@music

; 2352 : 				if(voice[ d7 ].name){

  00092	6b 45 f8 3c	 imul	 eax, DWORD PTR _d7$[ebp], 60
  00096	83 b8 00 00 00
	00 00		 cmp	 DWORD PTR ?voice@@3PAUVOICE_EQU@@A[eax], 0
  0009d	74 0c		 je	 SHORT $LN13@music

; 2353 : 					voice_action( d7 );

  0009f	8b 45 f8	 mov	 eax, DWORD PTR _d7$[ebp]
  000a2	50		 push	 eax
  000a3	e8 00 00 00 00	 call	 ?voice_action@@YAXH@Z	; voice_action
  000a8	83 c4 04	 add	 esp, 4
$LN13@music:

; 2354 : 				}
; 2355 : 			}

  000ab	eb d6		 jmp	 SHORT $LN4@music
$LN5@music:

; 2356 : 			for( ch = 0 ; ch < TRACK_MAX ; ch++ ){

  000ad	c7 05 00 00 00
	00 00 00 00 00	 mov	 DWORD PTR ?ch@@3HA, 0
  000b7	eb 0d		 jmp	 SHORT $LN9@music
$LN7@music:
  000b9	a1 00 00 00 00	 mov	 eax, DWORD PTR ?ch@@3HA
  000be	83 c0 01	 add	 eax, 1
  000c1	a3 00 00 00 00	 mov	 DWORD PTR ?ch@@3HA, eax
$LN9@music:
  000c6	83 3d 00 00 00
	00 20		 cmp	 DWORD PTR ?ch@@3HA, 32	; 00000020H
  000cd	7d 16		 jge	 SHORT $LN8@music

; 2357 : 				if(play_track_flg[ ch ])

  000cf	a1 00 00 00 00	 mov	 eax, DWORD PTR ?ch@@3HA
  000d4	83 3c 85 00 00
	00 00 00	 cmp	 DWORD PTR ?play_track_flg@@3PAHA[eax*4], 0
  000dc	74 05		 je	 SHORT $LN14@music

; 2358 : 					gate();

  000de	e8 00 00 00 00	 call	 ?gate@@YAXXZ		; gate
$LN14@music:

; 2359 : 			}

  000e3	eb d4		 jmp	 SHORT $LN7@music
$LN8@music:

; 2360 : 		} else {

  000e5	eb 25		 jmp	 SHORT $LN12@music
$LN11@music:

; 2361 : 
; 2362 : #if CLASS_UP
; 2363 : 			Sleep(8);		//????

  000e7	8b f4		 mov	 esi, esp
  000e9	6a 08		 push	 8
  000eb	ff 15 00 00 00
	00		 call	 DWORD PTR __imp__Sleep@4
  000f1	3b f4		 cmp	 esi, esp
  000f3	e8 00 00 00 00	 call	 __RTC_CheckEsp

; 2364 : #endif
; 2365 : 			QueryPerformanceCounter( &d_cnt );

  000f8	8b f4		 mov	 esi, esp
  000fa	68 00 00 00 00	 push	 OFFSET ?d_cnt@@3T_LARGE_INTEGER@@A
  000ff	ff 15 00 00 00
	00		 call	 DWORD PTR __imp__QueryPerformanceCounter@4
  00105	3b f4		 cmp	 esi, esp
  00107	e8 00 00 00 00	 call	 __RTC_CheckEsp
$LN12@music:

; 2366 : 		}
; 2367 : 
; 2368 : #if 0		//--------------
; 2369 : 
; 2370 : #if CLASS_UP
; 2371 : #if MODE98
; 2372 : 	if( tempo.LowPart > 10080*2 )		//??????t???
; 2373 : #else
; 2374 : 	if( tempo.LowPart > 10080 )		//??????t???
; 2375 : #endif
; 2376 : 		Sleep(2);		//??
; 2377 : 	else
; 2378 : 		Sleep(1);		//??
; 2379 : #endif
; 2380 : 
; 2381 : #endif		//--------------
; 2382 : 
; 2383 : #if THREAD_ON
; 2384 : 	}

  0010c	e9 0d ff ff ff	 jmp	 $LN2@music
$LN3@music:

; 2385 : 	thread_flg=2;

  00111	c7 05 00 00 00
	00 02 00 00 00	 mov	 DWORD PTR ?thread_flg@@3HA, 2 ; thread_flg

; 2386 : 	ExitThread( TRUE );

  0011b	8b f4		 mov	 esi, esp
  0011d	6a 01		 push	 1
  0011f	ff 15 00 00 00
	00		 call	 DWORD PTR __imp__ExitThread@4
  00125	3b f4		 cmp	 esi, esp
  00127	e8 00 00 00 00	 call	 __RTC_CheckEsp

; 2387 : #endif
; 2388 : 	d7=0;

  0012c	c7 45 f8 00 00
	00 00		 mov	 DWORD PTR _d7$[ebp], 0
$LN15@music:

; 2389 : 	return;
; 2390 : }

  00133	52		 push	 edx
  00134	8b cd		 mov	 ecx, ebp
  00136	50		 push	 eax
  00137	8d 15 00 00 00
	00		 lea	 edx, DWORD PTR $LN19@music
  0013d	e8 00 00 00 00	 call	 @_RTC_CheckStackVars@8
  00142	58		 pop	 eax
  00143	5a		 pop	 edx
  00144	5f		 pop	 edi
  00145	5e		 pop	 esi
  00146	5b		 pop	 ebx
  00147	81 c4 dc 00 00
	00		 add	 esp, 220		; 000000dcH
  0014d	3b ec		 cmp	 ebp, esp
  0014f	e8 00 00 00 00	 call	 __RTC_CheckEsp
  00154	8b e5		 mov	 esp, ebp
  00156	5d		 pop	 ebp
  00157	c3		 ret	 0
$LN19@music:
  00158	01 00 00 00	 DD	 1
  0015c	00 00 00 00	 DD	 $LN18@music
$LN18@music:
  00160	e8 ff ff ff	 DD	 -24			; ffffffe8H
  00164	08 00 00 00	 DD	 8
  00168	00 00 00 00	 DD	 $LN17@music
$LN17@music:
  0016c	64		 DB	 100			; 00000064H
  0016d	30		 DB	 48			; 00000030H
  0016e	00		 DB	 0
?music@@YAXXZ ENDP					; music
_TEXT	ENDS
; Function compile flags: /Odtp /RTCsu /ZI
; File c:\users\administrator\desktop\????? ??\????? ??\client source code\system\t_music.cpp
;	COMDAT ?gate@@YAXXZ
_TEXT	SEGMENT
_cnt$1 = -128						; size = 4
_cnt$2 = -116						; size = 4
_cnt$3 = -104						; size = 4
_waon_delay_total$4 = -92				; size = 4
_waon_delay$5 = -80					; size = 4
_waon_cnt$6 = -68					; size = 4
_cnt$7 = -56						; size = 4
_cnt$8 = -44						; size = 4
_cnt$9 = -32						; size = 4
_Status$ = -20						; size = 4
_next_command$ = -8					; size = 4
?gate@@YAXXZ PROC					; gate, COMDAT

; 2107 : {

  00000	55		 push	 ebp
  00001	8b ec		 mov	 ebp, esp
  00003	81 ec 44 01 00
	00		 sub	 esp, 324		; 00000144H
  00009	53		 push	 ebx
  0000a	56		 push	 esi
  0000b	57		 push	 edi
  0000c	8d bd bc fe ff
	ff		 lea	 edi, DWORD PTR [ebp-324]
  00012	b9 51 00 00 00	 mov	 ecx, 81			; 00000051H
  00017	b8 cc cc cc cc	 mov	 eax, -858993460		; ccccccccH
  0001c	f3 ab		 rep stosd

; 2108 : 	int next_command;
; 2109 : 	DWORD	Status = 0;

  0001e	c7 45 ec 00 00
	00 00		 mov	 DWORD PTR _Status$[ebp], 0

; 2110 : 	if(!play_flg[ ch ])		//_??

  00025	a1 00 00 00 00	 mov	 eax, DWORD PTR ?ch@@3HA
  0002a	83 3c 85 00 00
	00 00 00	 cmp	 DWORD PTR ?play_flg@@3PAHA[eax*4], 0
  00032	75 05		 jne	 SHORT $LN20@gate

; 2111 : 		return;				//????I??

  00034	e9 71 0d 00 00	 jmp	 $LN1@gate
$LN20@gate:

; 2112 : 
; 2113 : 	gate_time[ch]--;		//???????

  00039	a1 00 00 00 00	 mov	 eax, DWORD PTR ?ch@@3HA
  0003e	8b 0c 85 00 00
	00 00		 mov	 ecx, DWORD PTR ?gate_time@@3PAHA[eax*4]
  00045	83 e9 01	 sub	 ecx, 1
  00048	8b 15 00 00 00
	00		 mov	 edx, DWORD PTR ?ch@@3HA
  0004e	89 0c 95 00 00
	00 00		 mov	 DWORD PTR ?gate_time@@3PAHA[edx*4], ecx

; 2114 : 	if(!gate_time[ch]){		//??????

  00055	a1 00 00 00 00	 mov	 eax, DWORD PTR ?ch@@3HA
  0005a	83 3c 85 00 00
	00 00 00	 cmp	 DWORD PTR ?gate_time@@3PAHA[eax*4], 0
  00062	75 7c		 jne	 SHORT $LN21@gate

; 2115 : 		if( !d_pedal[ch] ){		//????????

  00064	a1 00 00 00 00	 mov	 eax, DWORD PTR ?ch@@3HA
  00069	83 3c 85 00 00
	00 00 00	 cmp	 DWORD PTR ?d_pedal@@3PAHA[eax*4], 0
  00071	75 6d		 jne	 SHORT $LN21@gate

; 2116 : 			if( !wave[ch] ){	//???????

  00073	a1 00 00 00 00	 mov	 eax, DWORD PTR ?ch@@3HA
  00078	83 3c 85 00 00
	00 00 00	 cmp	 DWORD PTR ?wave@@3PAHA[eax*4], 0
  00080	75 07		 jne	 SHORT $LN23@gate

; 2117 : 				stop_voice();		//???????

  00082	e8 00 00 00 00	 call	 ?stop_voice@@YAXXZ	; stop_voice

; 2118 : 			} else {

  00087	eb 57		 jmp	 SHORT $LN21@gate
$LN23@gate:

; 2119 : 				for(int cnt=0;cnt<play_use_task_cnt[ch];cnt++){

  00089	c7 45 e0 00 00
	00 00		 mov	 DWORD PTR _cnt$9[ebp], 0
  00090	eb 09		 jmp	 SHORT $LN4@gate
$LN2@gate:
  00092	8b 45 e0	 mov	 eax, DWORD PTR _cnt$9[ebp]
  00095	83 c0 01	 add	 eax, 1
  00098	89 45 e0	 mov	 DWORD PTR _cnt$9[ebp], eax
$LN4@gate:
  0009b	a1 00 00 00 00	 mov	 eax, DWORD PTR ?ch@@3HA
  000a0	8b 4d e0	 mov	 ecx, DWORD PTR _cnt$9[ebp]
  000a3	3b 0c 85 00 00
	00 00		 cmp	 ecx, DWORD PTR ?play_use_task_cnt@@3PAHA[eax*4]
  000aa	7d 34		 jge	 SHORT $LN21@gate

; 2120 : 					if(play_use_task[ch][cnt]!=-1){					//??????

  000ac	a1 00 00 00 00	 mov	 eax, DWORD PTR ?ch@@3HA
  000b1	c1 e0 05	 shl	 eax, 5
  000b4	8b 4d e0	 mov	 ecx, DWORD PTR _cnt$9[ebp]
  000b7	83 bc 88 00 00
	00 00 ff	 cmp	 DWORD PTR ?play_use_task@@3PAY07HA[eax+ecx*4], -1
  000bf	74 1d		 je	 SHORT $LN25@gate

; 2121 : 						voice[ play_use_task[ch][cnt] ].name = VOICE_KEY_OFF;	//????????

  000c1	a1 00 00 00 00	 mov	 eax, DWORD PTR ?ch@@3HA
  000c6	c1 e0 05	 shl	 eax, 5
  000c9	8b 4d e0	 mov	 ecx, DWORD PTR _cnt$9[ebp]
  000cc	6b 94 88 00 00
	00 00 3c	 imul	 edx, DWORD PTR ?play_use_task@@3PAY07HA[eax+ecx*4], 60
  000d4	c7 82 00 00 00
	00 64 00 00 00	 mov	 DWORD PTR ?voice@@3PAUVOICE_EQU@@A[edx], 100 ; 00000064H
$LN25@gate:

; 2122 : 					}
; 2123 : 				}

  000de	eb b2		 jmp	 SHORT $LN2@gate
$LN21@gate:

; 2124 : 			}
; 2125 : 		}
; 2126 : 	}
; 2127 : 
; 2128 : 	step_time[ch]--;			//?????

  000e0	a1 00 00 00 00	 mov	 eax, DWORD PTR ?ch@@3HA
  000e5	8b 0c 85 00 00
	00 00		 mov	 ecx, DWORD PTR ?step_time@@3PAHA[eax*4]
  000ec	83 e9 01	 sub	 ecx, 1
  000ef	8b 15 00 00 00
	00		 mov	 edx, DWORD PTR ?ch@@3HA
  000f5	89 0c 95 00 00
	00 00		 mov	 DWORD PTR ?step_time@@3PAHA[edx*4], ecx

; 2129 : 	if(step_time[ch]>0){		//

  000fc	a1 00 00 00 00	 mov	 eax, DWORD PTR ?ch@@3HA
  00101	83 3c 85 00 00
	00 00 00	 cmp	 DWORD PTR ?step_time@@3PAHA[eax*4], 0
  00109	7e 0a		 jle	 SHORT $LN26@gate

; 2130 : 		return;				//???????I??

  0010b	e9 9a 0c 00 00	 jmp	 $LN1@gate

; 2131 : 	} else {

  00110	e9 95 0c 00 00	 jmp	 $LN1@gate
$LN26@gate:

; 2132 : 		if(!tie_flg[ch]){		//???????

  00115	a1 00 00 00 00	 mov	 eax, DWORD PTR ?ch@@3HA
  0011a	83 3c 85 00 00
	00 00 00	 cmp	 DWORD PTR ?tie_flg@@3PAHA[eax*4], 0
  00122	75 7c		 jne	 SHORT $gate_100$84

; 2133 : 			if( !d_pedal[ch] ){		//????????

  00124	a1 00 00 00 00	 mov	 eax, DWORD PTR ?ch@@3HA
  00129	83 3c 85 00 00
	00 00 00	 cmp	 DWORD PTR ?d_pedal@@3PAHA[eax*4], 0
  00131	75 6d		 jne	 SHORT $gate_100$84

; 2134 : 				if( !wave[ch] ){	//???????

  00133	a1 00 00 00 00	 mov	 eax, DWORD PTR ?ch@@3HA
  00138	83 3c 85 00 00
	00 00 00	 cmp	 DWORD PTR ?wave@@3PAHA[eax*4], 0
  00140	75 07		 jne	 SHORT $LN30@gate

; 2135 : 					stop_voice();		//???????

  00142	e8 00 00 00 00	 call	 ?stop_voice@@YAXXZ	; stop_voice

; 2136 : 				} else {

  00147	eb 57		 jmp	 SHORT $gate_100$84
$LN30@gate:

; 2137 : 					for(int cnt=0;cnt<play_use_task_cnt[ch];cnt++){

  00149	c7 45 d4 00 00
	00 00		 mov	 DWORD PTR _cnt$8[ebp], 0
  00150	eb 09		 jmp	 SHORT $LN7@gate
$LN5@gate:
  00152	8b 45 d4	 mov	 eax, DWORD PTR _cnt$8[ebp]
  00155	83 c0 01	 add	 eax, 1
  00158	89 45 d4	 mov	 DWORD PTR _cnt$8[ebp], eax
$LN7@gate:
  0015b	a1 00 00 00 00	 mov	 eax, DWORD PTR ?ch@@3HA
  00160	8b 4d d4	 mov	 ecx, DWORD PTR _cnt$8[ebp]
  00163	3b 0c 85 00 00
	00 00		 cmp	 ecx, DWORD PTR ?play_use_task_cnt@@3PAHA[eax*4]
  0016a	7d 34		 jge	 SHORT $gate_100$84

; 2138 : 						if(play_use_task[ch][cnt]!=-1){					//??????

  0016c	a1 00 00 00 00	 mov	 eax, DWORD PTR ?ch@@3HA
  00171	c1 e0 05	 shl	 eax, 5
  00174	8b 4d d4	 mov	 ecx, DWORD PTR _cnt$8[ebp]
  00177	83 bc 88 00 00
	00 00 ff	 cmp	 DWORD PTR ?play_use_task@@3PAY07HA[eax+ecx*4], -1
  0017f	74 1d		 je	 SHORT $LN32@gate

; 2139 : 							voice[ play_use_task[ch][cnt] ].name = VOICE_KEY_OFF;	//????????

  00181	a1 00 00 00 00	 mov	 eax, DWORD PTR ?ch@@3HA
  00186	c1 e0 05	 shl	 eax, 5
  00189	8b 4d d4	 mov	 ecx, DWORD PTR _cnt$8[ebp]
  0018c	6b 94 88 00 00
	00 00 3c	 imul	 edx, DWORD PTR ?play_use_task@@3PAY07HA[eax+ecx*4], 60
  00194	c7 82 00 00 00
	00 64 00 00 00	 mov	 DWORD PTR ?voice@@3PAUVOICE_EQU@@A[edx], 100 ; 00000064H
$LN32@gate:

; 2140 : 						}
; 2141 : 					}

  0019e	eb b2		 jmp	 SHORT $LN5@gate
$gate_100$84:

; 2142 : 				}
; 2143 : 			}
; 2144 : 		}
; 2145 : 
; 2146 : gate_100:
; 2147 : 		next_command = step[ch][step_point[ch]++];		//??????

  001a0	a1 00 00 00 00	 mov	 eax, DWORD PTR ?ch@@3HA
  001a5	c1 e0 10	 shl	 eax, 16			; 00000010H
  001a8	8b 0d 00 00 00
	00		 mov	 ecx, DWORD PTR ?ch@@3HA
  001ae	8b 14 8d 00 00
	00 00		 mov	 edx, DWORD PTR ?step_point@@3PAHA[ecx*4]
  001b5	8b 84 90 00 00
	00 00		 mov	 eax, DWORD PTR ?step@@3PAY0EAAA@HA[eax+edx*4]
  001bc	89 45 f8	 mov	 DWORD PTR _next_command$[ebp], eax
  001bf	8b 0d 00 00 00
	00		 mov	 ecx, DWORD PTR ?ch@@3HA
  001c5	8b 14 8d 00 00
	00 00		 mov	 edx, DWORD PTR ?step_point@@3PAHA[ecx*4]
  001cc	83 c2 01	 add	 edx, 1
  001cf	a1 00 00 00 00	 mov	 eax, DWORD PTR ?ch@@3HA
  001d4	89 14 85 00 00
	00 00		 mov	 DWORD PTR ?step_point@@3PAHA[eax*4], edx

; 2148 : 
; 2149 : 		if(next_command >= 0){		//???k???

  001db	83 7d f8 00	 cmp	 DWORD PTR _next_command$[ebp], 0
  001df	0f 8c c7 01 00
	00		 jl	 $LN33@gate

; 2150 : 			if(play_use_task_cnt[ch]!=1 && tie_flg[ch]==1){		//??????????

  001e5	a1 00 00 00 00	 mov	 eax, DWORD PTR ?ch@@3HA
  001ea	83 3c 85 00 00
	00 00 01	 cmp	 DWORD PTR ?play_use_task_cnt@@3PAHA[eax*4], 1
  001f2	74 1f		 je	 SHORT $LN34@gate
  001f4	a1 00 00 00 00	 mov	 eax, DWORD PTR ?ch@@3HA
  001f9	83 3c 85 00 00
	00 00 01	 cmp	 DWORD PTR ?tie_flg@@3PAHA[eax*4], 1
  00201	75 10		 jne	 SHORT $LN34@gate

; 2151 : 				tie_flg[ch]=0;		//???

  00203	a1 00 00 00 00	 mov	 eax, DWORD PTR ?ch@@3HA
  00208	c7 04 85 00 00
	00 00 00 00 00
	00		 mov	 DWORD PTR ?tie_flg@@3PAHA[eax*4], 0
$LN34@gate:

; 2152 : 			}
; 2153 : 			if(!tie_flg[ch]){		//???????

  00213	a1 00 00 00 00	 mov	 eax, DWORD PTR ?ch@@3HA
  00218	83 3c 85 00 00
	00 00 00	 cmp	 DWORD PTR ?tie_flg@@3PAHA[eax*4], 0
  00220	75 3f		 jne	 SHORT $LN35@gate

; 2154 : 				stop_voice();		//??????_

  00222	e8 00 00 00 00	 call	 ?stop_voice@@YAXXZ	; stop_voice

; 2155 : 				set_tone( dataToneNo[ch], next_command, 0, 0);	//O?????

  00227	6a 00		 push	 0
  00229	6a 00		 push	 0
  0022b	8b 45 f8	 mov	 eax, DWORD PTR _next_command$[ebp]
  0022e	50		 push	 eax
  0022f	8b 0d 00 00 00
	00		 mov	 ecx, DWORD PTR ?ch@@3HA
  00235	8b 14 8d 00 00
	00 00		 mov	 edx, DWORD PTR ?dataToneNo@@3PAHA[ecx*4]
  0023c	52		 push	 edx
  0023d	e8 00 00 00 00	 call	 ?set_tone@@YAHHJHH@Z	; set_tone
  00242	83 c4 10	 add	 esp, 16			; 00000010H

; 2156 : 				note_old[ch][0] = next_command;		//??????k?颌V

  00245	a1 00 00 00 00	 mov	 eax, DWORD PTR ?ch@@3HA
  0024a	c1 e0 05	 shl	 eax, 5
  0024d	b9 04 00 00 00	 mov	 ecx, 4
  00252	6b d1 00	 imul	 edx, ecx, 0
  00255	8b 4d f8	 mov	 ecx, DWORD PTR _next_command$[ebp]
  00258	89 8c 10 00 00
	00 00		 mov	 DWORD PTR ?note_old@@3PAY07HA[eax+edx], ecx

; 2157 : 			} else {

  0025f	eb 7b		 jmp	 SHORT $LN36@gate
$LN35@gate:

; 2158 : 				for(int cnt=0;cnt<play_use_task_cnt[ch];cnt++){

  00261	c7 45 c8 00 00
	00 00		 mov	 DWORD PTR _cnt$7[ebp], 0
  00268	eb 09		 jmp	 SHORT $LN10@gate
$LN8@gate:
  0026a	8b 45 c8	 mov	 eax, DWORD PTR _cnt$7[ebp]
  0026d	83 c0 01	 add	 eax, 1
  00270	89 45 c8	 mov	 DWORD PTR _cnt$7[ebp], eax
$LN10@gate:
  00273	a1 00 00 00 00	 mov	 eax, DWORD PTR ?ch@@3HA
  00278	8b 4d c8	 mov	 ecx, DWORD PTR _cnt$7[ebp]
  0027b	3b 0c 85 00 00
	00 00		 cmp	 ecx, DWORD PTR ?play_use_task_cnt@@3PAHA[eax*4]
  00282	7d 58		 jge	 SHORT $LN36@gate

; 2159 : 					//???????
; 2160 : 					voice[ play_use_task[ch][cnt] ].name = VOICE_TIE_SET;

  00284	a1 00 00 00 00	 mov	 eax, DWORD PTR ?ch@@3HA
  00289	c1 e0 05	 shl	 eax, 5
  0028c	8b 4d c8	 mov	 ecx, DWORD PTR _cnt$7[ebp]
  0028f	6b 94 88 00 00
	00 00 3c	 imul	 edx, DWORD PTR ?play_use_task@@3PAY07HA[eax+ecx*4], 60
  00297	c7 82 00 00 00
	00 0a 00 00 00	 mov	 DWORD PTR ?voice@@3PAUVOICE_EQU@@A[edx], 10 ; 0000000aH

; 2161 : 					//???????????
; 2162 : 					set_voice_param( play_use_task[ch][cnt], next_command, -1, 0 );

  002a1	6a 00		 push	 0
  002a3	6a ff		 push	 -1
  002a5	8b 45 f8	 mov	 eax, DWORD PTR _next_command$[ebp]
  002a8	50		 push	 eax
  002a9	8b 0d 00 00 00
	00		 mov	 ecx, DWORD PTR ?ch@@3HA
  002af	c1 e1 05	 shl	 ecx, 5
  002b2	8b 55 c8	 mov	 edx, DWORD PTR _cnt$7[ebp]
  002b5	8b 84 91 00 00
	00 00		 mov	 eax, DWORD PTR ?play_use_task@@3PAY07HA[ecx+edx*4]
  002bc	50		 push	 eax
  002bd	e8 00 00 00 00	 call	 ?set_voice_param@@YAXHJHH@Z ; set_voice_param
  002c2	83 c4 10	 add	 esp, 16			; 00000010H

; 2163 : 					note_old[ch][cnt] = next_command;		//??????k?颌V

  002c5	a1 00 00 00 00	 mov	 eax, DWORD PTR ?ch@@3HA
  002ca	c1 e0 05	 shl	 eax, 5
  002cd	8b 4d c8	 mov	 ecx, DWORD PTR _cnt$7[ebp]
  002d0	8b 55 f8	 mov	 edx, DWORD PTR _next_command$[ebp]
  002d3	89 94 88 00 00
	00 00		 mov	 DWORD PTR ?note_old@@3PAY07HA[eax+ecx*4], edx

; 2164 : 				}

  002da	eb 8e		 jmp	 SHORT $LN8@gate
$LN36@gate:

; 2165 : 			}
; 2166 : 			step_time[ch] = step[ch][step_point[ch]++];		//???????

  002dc	a1 00 00 00 00	 mov	 eax, DWORD PTR ?ch@@3HA
  002e1	c1 e0 10	 shl	 eax, 16			; 00000010H
  002e4	8b 0d 00 00 00
	00		 mov	 ecx, DWORD PTR ?ch@@3HA
  002ea	8b 14 8d 00 00
	00 00		 mov	 edx, DWORD PTR ?step_point@@3PAHA[ecx*4]
  002f1	8b 0d 00 00 00
	00		 mov	 ecx, DWORD PTR ?ch@@3HA
  002f7	8b 94 90 00 00
	00 00		 mov	 edx, DWORD PTR ?step@@3PAY0EAAA@HA[eax+edx*4]
  002fe	89 14 8d 00 00
	00 00		 mov	 DWORD PTR ?step_time@@3PAHA[ecx*4], edx
  00305	a1 00 00 00 00	 mov	 eax, DWORD PTR ?ch@@3HA
  0030a	8b 0c 85 00 00
	00 00		 mov	 ecx, DWORD PTR ?step_point@@3PAHA[eax*4]
  00311	83 c1 01	 add	 ecx, 1
  00314	8b 15 00 00 00
	00		 mov	 edx, DWORD PTR ?ch@@3HA
  0031a	89 0c 95 00 00
	00 00		 mov	 DWORD PTR ?step_point@@3PAHA[edx*4], ecx

; 2167 : 			gate_time[ch] = step[ch][step_point[ch]++];		//??????

  00321	a1 00 00 00 00	 mov	 eax, DWORD PTR ?ch@@3HA
  00326	c1 e0 10	 shl	 eax, 16			; 00000010H
  00329	8b 0d 00 00 00
	00		 mov	 ecx, DWORD PTR ?ch@@3HA
  0032f	8b 14 8d 00 00
	00 00		 mov	 edx, DWORD PTR ?step_point@@3PAHA[ecx*4]
  00336	8b 0d 00 00 00
	00		 mov	 ecx, DWORD PTR ?ch@@3HA
  0033c	8b 94 90 00 00
	00 00		 mov	 edx, DWORD PTR ?step@@3PAY0EAAA@HA[eax+edx*4]
  00343	89 14 8d 00 00
	00 00		 mov	 DWORD PTR ?gate_time@@3PAHA[ecx*4], edx
  0034a	a1 00 00 00 00	 mov	 eax, DWORD PTR ?ch@@3HA
  0034f	8b 0c 85 00 00
	00 00		 mov	 ecx, DWORD PTR ?step_point@@3PAHA[eax*4]
  00356	83 c1 01	 add	 ecx, 1
  00359	8b 15 00 00 00
	00		 mov	 edx, DWORD PTR ?ch@@3HA
  0035f	89 0c 95 00 00
	00 00		 mov	 DWORD PTR ?step_point@@3PAHA[edx*4], ecx

; 2168 : 			if(gate_time[ch]==-1){		//????

  00366	a1 00 00 00 00	 mov	 eax, DWORD PTR ?ch@@3HA
  0036b	83 3c 85 00 00
	00 00 ff	 cmp	 DWORD PTR ?gate_time@@3PAHA[eax*4], -1
  00373	75 12		 jne	 SHORT $LN37@gate

; 2169 : 				tie_flg[ch]=1;

  00375	a1 00 00 00 00	 mov	 eax, DWORD PTR ?ch@@3HA
  0037a	c7 04 85 00 00
	00 00 01 00 00
	00		 mov	 DWORD PTR ?tie_flg@@3PAHA[eax*4], 1

; 2170 : 			} else {

  00385	eb 10		 jmp	 SHORT $LN38@gate
$LN37@gate:

; 2171 : 				tie_flg[ch]=0;

  00387	a1 00 00 00 00	 mov	 eax, DWORD PTR ?ch@@3HA
  0038c	c7 04 85 00 00
	00 00 00 00 00
	00		 mov	 DWORD PTR ?tie_flg@@3PAHA[eax*4], 0
$LN38@gate:

; 2172 : 			}
; 2173 : 			play_use_task_cnt[ch] = 1;		//D?????

  00397	a1 00 00 00 00	 mov	 eax, DWORD PTR ?ch@@3HA
  0039c	c7 04 85 00 00
	00 00 01 00 00
	00		 mov	 DWORD PTR ?play_use_task_cnt@@3PAHA[eax*4], 1

; 2174 : 			return;

  003a7	e9 fe 09 00 00	 jmp	 $LN1@gate
$LN33@gate:

; 2175 : 		}
; 2176 : 		if(next_command==MUSIC_WAON){		//????

  003ac	83 7d f8 f2	 cmp	 DWORD PTR _next_command$[ebp], -14 ; fffffff2H
  003b0	0f 85 1b 03 00
	00		 jne	 $LN39@gate

; 2177 : 			int waon_cnt,waon_delay,waon_delay_total=0;

  003b6	c7 45 a4 00 00
	00 00		 mov	 DWORD PTR _waon_delay_total$4[ebp], 0

; 2178 : 			waon_cnt = step[ch][step_point[ch]++];		//?????

  003bd	a1 00 00 00 00	 mov	 eax, DWORD PTR ?ch@@3HA
  003c2	c1 e0 10	 shl	 eax, 16			; 00000010H
  003c5	8b 0d 00 00 00
	00		 mov	 ecx, DWORD PTR ?ch@@3HA
  003cb	8b 14 8d 00 00
	00 00		 mov	 edx, DWORD PTR ?step_point@@3PAHA[ecx*4]
  003d2	8b 84 90 00 00
	00 00		 mov	 eax, DWORD PTR ?step@@3PAY0EAAA@HA[eax+edx*4]
  003d9	89 45 bc	 mov	 DWORD PTR _waon_cnt$6[ebp], eax
  003dc	8b 0d 00 00 00
	00		 mov	 ecx, DWORD PTR ?ch@@3HA
  003e2	8b 14 8d 00 00
	00 00		 mov	 edx, DWORD PTR ?step_point@@3PAHA[ecx*4]
  003e9	83 c2 01	 add	 edx, 1
  003ec	a1 00 00 00 00	 mov	 eax, DWORD PTR ?ch@@3HA
  003f1	89 14 85 00 00
	00 00		 mov	 DWORD PTR ?step_point@@3PAHA[eax*4], edx

; 2179 : 			waon_delay = step[ch][step_point[ch]++];		//????????

  003f8	a1 00 00 00 00	 mov	 eax, DWORD PTR ?ch@@3HA
  003fd	c1 e0 10	 shl	 eax, 16			; 00000010H
  00400	8b 0d 00 00 00
	00		 mov	 ecx, DWORD PTR ?ch@@3HA
  00406	8b 14 8d 00 00
	00 00		 mov	 edx, DWORD PTR ?step_point@@3PAHA[ecx*4]
  0040d	8b 84 90 00 00
	00 00		 mov	 eax, DWORD PTR ?step@@3PAY0EAAA@HA[eax+edx*4]
  00414	89 45 b0	 mov	 DWORD PTR _waon_delay$5[ebp], eax
  00417	8b 0d 00 00 00
	00		 mov	 ecx, DWORD PTR ?ch@@3HA
  0041d	8b 14 8d 00 00
	00 00		 mov	 edx, DWORD PTR ?step_point@@3PAHA[ecx*4]
  00424	83 c2 01	 add	 edx, 1
  00427	a1 00 00 00 00	 mov	 eax, DWORD PTR ?ch@@3HA
  0042c	89 14 85 00 00
	00 00		 mov	 DWORD PTR ?step_point@@3PAHA[eax*4], edx

; 2180 : 			if(waon_cnt != play_use_task_cnt[ch] && tie_flg[ch]==1){		//??????????

  00433	a1 00 00 00 00	 mov	 eax, DWORD PTR ?ch@@3HA
  00438	8b 4d bc	 mov	 ecx, DWORD PTR _waon_cnt$6[ebp]
  0043b	3b 0c 85 00 00
	00 00		 cmp	 ecx, DWORD PTR ?play_use_task_cnt@@3PAHA[eax*4]
  00442	74 1f		 je	 SHORT $LN40@gate
  00444	a1 00 00 00 00	 mov	 eax, DWORD PTR ?ch@@3HA
  00449	83 3c 85 00 00
	00 00 01	 cmp	 DWORD PTR ?tie_flg@@3PAHA[eax*4], 1
  00451	75 10		 jne	 SHORT $LN40@gate

; 2181 : 				tie_flg[ch]=0;		//???

  00453	a1 00 00 00 00	 mov	 eax, DWORD PTR ?ch@@3HA
  00458	c7 04 85 00 00
	00 00 00 00 00
	00		 mov	 DWORD PTR ?tie_flg@@3PAHA[eax*4], 0
$LN40@gate:

; 2182 : 			}
; 2183 : 			if(!tie_flg[ch]){		//???????

  00463	a1 00 00 00 00	 mov	 eax, DWORD PTR ?ch@@3HA
  00468	83 3c 85 00 00
	00 00 00	 cmp	 DWORD PTR ?tie_flg@@3PAHA[eax*4], 0
  00470	0f 85 bb 00 00
	00		 jne	 $LN41@gate

; 2184 : 				stop_voice();		//??????_

  00476	e8 00 00 00 00	 call	 ?stop_voice@@YAXXZ	; stop_voice

; 2185 : 				for(int cnt=0;cnt<waon_cnt;cnt++){

  0047b	c7 45 98 00 00
	00 00		 mov	 DWORD PTR _cnt$3[ebp], 0
  00482	eb 09		 jmp	 SHORT $LN13@gate
$LN11@gate:
  00484	8b 45 98	 mov	 eax, DWORD PTR _cnt$3[ebp]
  00487	83 c0 01	 add	 eax, 1
  0048a	89 45 98	 mov	 DWORD PTR _cnt$3[ebp], eax
$LN13@gate:
  0048d	8b 45 98	 mov	 eax, DWORD PTR _cnt$3[ebp]
  00490	3b 45 bc	 cmp	 eax, DWORD PTR _waon_cnt$6[ebp]
  00493	0f 8d 93 00 00
	00		 jge	 $LN12@gate

; 2186 : 					//??????
; 2187 : 					set_tone( dataToneNo[ch], step[ch][step_point[ch]], cnt, waon_delay_total);

  00499	8b 45 a4	 mov	 eax, DWORD PTR _waon_delay_total$4[ebp]
  0049c	50		 push	 eax
  0049d	8b 4d 98	 mov	 ecx, DWORD PTR _cnt$3[ebp]
  004a0	51		 push	 ecx
  004a1	8b 15 00 00 00
	00		 mov	 edx, DWORD PTR ?ch@@3HA
  004a7	c1 e2 10	 shl	 edx, 16			; 00000010H
  004aa	a1 00 00 00 00	 mov	 eax, DWORD PTR ?ch@@3HA
  004af	8b 0c 85 00 00
	00 00		 mov	 ecx, DWORD PTR ?step_point@@3PAHA[eax*4]
  004b6	8b 94 8a 00 00
	00 00		 mov	 edx, DWORD PTR ?step@@3PAY0EAAA@HA[edx+ecx*4]
  004bd	52		 push	 edx
  004be	a1 00 00 00 00	 mov	 eax, DWORD PTR ?ch@@3HA
  004c3	8b 0c 85 00 00
	00 00		 mov	 ecx, DWORD PTR ?dataToneNo@@3PAHA[eax*4]
  004ca	51		 push	 ecx
  004cb	e8 00 00 00 00	 call	 ?set_tone@@YAHHJHH@Z	; set_tone
  004d0	83 c4 10	 add	 esp, 16			; 00000010H

; 2188 : 					note_old[ch][cnt] = step[ch][step_point[ch]++];		//??????k?颌V

  004d3	a1 00 00 00 00	 mov	 eax, DWORD PTR ?ch@@3HA
  004d8	c1 e0 10	 shl	 eax, 16			; 00000010H
  004db	8b 0d 00 00 00
	00		 mov	 ecx, DWORD PTR ?ch@@3HA
  004e1	8b 14 8d 00 00
	00 00		 mov	 edx, DWORD PTR ?step_point@@3PAHA[ecx*4]
  004e8	8b 0d 00 00 00
	00		 mov	 ecx, DWORD PTR ?ch@@3HA
  004ee	c1 e1 05	 shl	 ecx, 5
  004f1	8b 75 98	 mov	 esi, DWORD PTR _cnt$3[ebp]
  004f4	8b 94 90 00 00
	00 00		 mov	 edx, DWORD PTR ?step@@3PAY0EAAA@HA[eax+edx*4]
  004fb	89 94 b1 00 00
	00 00		 mov	 DWORD PTR ?note_old@@3PAY07HA[ecx+esi*4], edx
  00502	a1 00 00 00 00	 mov	 eax, DWORD PTR ?ch@@3HA
  00507	8b 0c 85 00 00
	00 00		 mov	 ecx, DWORD PTR ?step_point@@3PAHA[eax*4]
  0050e	83 c1 01	 add	 ecx, 1
  00511	8b 15 00 00 00
	00		 mov	 edx, DWORD PTR ?ch@@3HA
  00517	89 0c 95 00 00
	00 00		 mov	 DWORD PTR ?step_point@@3PAHA[edx*4], ecx

; 2189 : 					waon_delay_total += waon_delay;

  0051e	8b 45 a4	 mov	 eax, DWORD PTR _waon_delay_total$4[ebp]
  00521	03 45 b0	 add	 eax, DWORD PTR _waon_delay$5[ebp]
  00524	89 45 a4	 mov	 DWORD PTR _waon_delay_total$4[ebp], eax

; 2190 : 				}

  00527	e9 58 ff ff ff	 jmp	 $LN11@gate
$LN12@gate:

; 2191 : 			} else {

  0052c	e9 d1 00 00 00	 jmp	 $LN42@gate
$LN41@gate:

; 2192 : 				for(int cnt=0;cnt<play_use_task_cnt[ch];cnt++){

  00531	c7 45 8c 00 00
	00 00		 mov	 DWORD PTR _cnt$2[ebp], 0
  00538	eb 09		 jmp	 SHORT $LN16@gate
$LN14@gate:
  0053a	8b 45 8c	 mov	 eax, DWORD PTR _cnt$2[ebp]
  0053d	83 c0 01	 add	 eax, 1
  00540	89 45 8c	 mov	 DWORD PTR _cnt$2[ebp], eax
$LN16@gate:
  00543	a1 00 00 00 00	 mov	 eax, DWORD PTR ?ch@@3HA
  00548	8b 4d 8c	 mov	 ecx, DWORD PTR _cnt$2[ebp]
  0054b	3b 0c 85 00 00
	00 00		 cmp	 ecx, DWORD PTR ?play_use_task_cnt@@3PAHA[eax*4]
  00552	0f 8d aa 00 00
	00		 jge	 $LN42@gate

; 2193 : 					//???????
; 2194 : 					voice[ play_use_task[ch][cnt] ].name = VOICE_TIE_SET;

  00558	a1 00 00 00 00	 mov	 eax, DWORD PTR ?ch@@3HA
  0055d	c1 e0 05	 shl	 eax, 5
  00560	8b 4d 8c	 mov	 ecx, DWORD PTR _cnt$2[ebp]
  00563	6b 94 88 00 00
	00 00 3c	 imul	 edx, DWORD PTR ?play_use_task@@3PAY07HA[eax+ecx*4], 60
  0056b	c7 82 00 00 00
	00 0a 00 00 00	 mov	 DWORD PTR ?voice@@3PAUVOICE_EQU@@A[edx], 10 ; 0000000aH

; 2195 : 					//???????????
; 2196 : 					set_voice_param( play_use_task[ch][cnt], step[ch][step_point[ch]], -1, 0 );

  00575	6a 00		 push	 0
  00577	6a ff		 push	 -1
  00579	a1 00 00 00 00	 mov	 eax, DWORD PTR ?ch@@3HA
  0057e	c1 e0 10	 shl	 eax, 16			; 00000010H
  00581	8b 0d 00 00 00
	00		 mov	 ecx, DWORD PTR ?ch@@3HA
  00587	8b 14 8d 00 00
	00 00		 mov	 edx, DWORD PTR ?step_point@@3PAHA[ecx*4]
  0058e	8b 84 90 00 00
	00 00		 mov	 eax, DWORD PTR ?step@@3PAY0EAAA@HA[eax+edx*4]
  00595	50		 push	 eax
  00596	8b 0d 00 00 00
	00		 mov	 ecx, DWORD PTR ?ch@@3HA
  0059c	c1 e1 05	 shl	 ecx, 5
  0059f	8b 55 8c	 mov	 edx, DWORD PTR _cnt$2[ebp]
  005a2	8b 84 91 00 00
	00 00		 mov	 eax, DWORD PTR ?play_use_task@@3PAY07HA[ecx+edx*4]
  005a9	50		 push	 eax
  005aa	e8 00 00 00 00	 call	 ?set_voice_param@@YAXHJHH@Z ; set_voice_param
  005af	83 c4 10	 add	 esp, 16			; 00000010H

; 2197 : 					note_old[ch][cnt] = step[ch][step_point[ch]++];		//??????k?颌V

  005b2	a1 00 00 00 00	 mov	 eax, DWORD PTR ?ch@@3HA
  005b7	c1 e0 10	 shl	 eax, 16			; 00000010H
  005ba	8b 0d 00 00 00
	00		 mov	 ecx, DWORD PTR ?ch@@3HA
  005c0	8b 14 8d 00 00
	00 00		 mov	 edx, DWORD PTR ?step_point@@3PAHA[ecx*4]
  005c7	8b 0d 00 00 00
	00		 mov	 ecx, DWORD PTR ?ch@@3HA
  005cd	c1 e1 05	 shl	 ecx, 5
  005d0	8b 75 8c	 mov	 esi, DWORD PTR _cnt$2[ebp]
  005d3	8b 94 90 00 00
	00 00		 mov	 edx, DWORD PTR ?step@@3PAY0EAAA@HA[eax+edx*4]
  005da	89 94 b1 00 00
	00 00		 mov	 DWORD PTR ?note_old@@3PAY07HA[ecx+esi*4], edx
  005e1	a1 00 00 00 00	 mov	 eax, DWORD PTR ?ch@@3HA
  005e6	8b 0c 85 00 00
	00 00		 mov	 ecx, DWORD PTR ?step_point@@3PAHA[eax*4]
  005ed	83 c1 01	 add	 ecx, 1
  005f0	8b 15 00 00 00
	00		 mov	 edx, DWORD PTR ?ch@@3HA
  005f6	89 0c 95 00 00
	00 00		 mov	 DWORD PTR ?step_point@@3PAHA[edx*4], ecx

; 2198 : 				}

  005fd	e9 38 ff ff ff	 jmp	 $LN14@gate
$LN42@gate:

; 2199 : 			}
; 2200 : 			step_time[ch] = step[ch][step_point[ch]++];		//???????

  00602	a1 00 00 00 00	 mov	 eax, DWORD PTR ?ch@@3HA
  00607	c1 e0 10	 shl	 eax, 16			; 00000010H
  0060a	8b 0d 00 00 00
	00		 mov	 ecx, DWORD PTR ?ch@@3HA
  00610	8b 14 8d 00 00
	00 00		 mov	 edx, DWORD PTR ?step_point@@3PAHA[ecx*4]
  00617	8b 0d 00 00 00
	00		 mov	 ecx, DWORD PTR ?ch@@3HA
  0061d	8b 94 90 00 00
	00 00		 mov	 edx, DWORD PTR ?step@@3PAY0EAAA@HA[eax+edx*4]
  00624	89 14 8d 00 00
	00 00		 mov	 DWORD PTR ?step_time@@3PAHA[ecx*4], edx
  0062b	a1 00 00 00 00	 mov	 eax, DWORD PTR ?ch@@3HA
  00630	8b 0c 85 00 00
	00 00		 mov	 ecx, DWORD PTR ?step_point@@3PAHA[eax*4]
  00637	83 c1 01	 add	 ecx, 1
  0063a	8b 15 00 00 00
	00		 mov	 edx, DWORD PTR ?ch@@3HA
  00640	89 0c 95 00 00
	00 00		 mov	 DWORD PTR ?step_point@@3PAHA[edx*4], ecx

; 2201 : 			gate_time[ch] = step[ch][step_point[ch]++];		//??????

  00647	a1 00 00 00 00	 mov	 eax, DWORD PTR ?ch@@3HA
  0064c	c1 e0 10	 shl	 eax, 16			; 00000010H
  0064f	8b 0d 00 00 00
	00		 mov	 ecx, DWORD PTR ?ch@@3HA
  00655	8b 14 8d 00 00
	00 00		 mov	 edx, DWORD PTR ?step_point@@3PAHA[ecx*4]
  0065c	8b 0d 00 00 00
	00		 mov	 ecx, DWORD PTR ?ch@@3HA
  00662	8b 94 90 00 00
	00 00		 mov	 edx, DWORD PTR ?step@@3PAY0EAAA@HA[eax+edx*4]
  00669	89 14 8d 00 00
	00 00		 mov	 DWORD PTR ?gate_time@@3PAHA[ecx*4], edx
  00670	a1 00 00 00 00	 mov	 eax, DWORD PTR ?ch@@3HA
  00675	8b 0c 85 00 00
	00 00		 mov	 ecx, DWORD PTR ?step_point@@3PAHA[eax*4]
  0067c	83 c1 01	 add	 ecx, 1
  0067f	8b 15 00 00 00
	00		 mov	 edx, DWORD PTR ?ch@@3HA
  00685	89 0c 95 00 00
	00 00		 mov	 DWORD PTR ?step_point@@3PAHA[edx*4], ecx

; 2202 : 			if(gate_time[ch]==-1){		//????

  0068c	a1 00 00 00 00	 mov	 eax, DWORD PTR ?ch@@3HA
  00691	83 3c 85 00 00
	00 00 ff	 cmp	 DWORD PTR ?gate_time@@3PAHA[eax*4], -1
  00699	75 12		 jne	 SHORT $LN43@gate

; 2203 : 				tie_flg[ch]=1;

  0069b	a1 00 00 00 00	 mov	 eax, DWORD PTR ?ch@@3HA
  006a0	c7 04 85 00 00
	00 00 01 00 00
	00		 mov	 DWORD PTR ?tie_flg@@3PAHA[eax*4], 1

; 2204 : 			} else {

  006ab	eb 10		 jmp	 SHORT $LN44@gate
$LN43@gate:

; 2205 : 				tie_flg[ch]=0;

  006ad	a1 00 00 00 00	 mov	 eax, DWORD PTR ?ch@@3HA
  006b2	c7 04 85 00 00
	00 00 00 00 00
	00		 mov	 DWORD PTR ?tie_flg@@3PAHA[eax*4], 0
$LN44@gate:

; 2206 : 			}
; 2207 : 			play_use_task_cnt[ch] = waon_cnt;		//D?????

  006bd	a1 00 00 00 00	 mov	 eax, DWORD PTR ?ch@@3HA
  006c2	8b 4d bc	 mov	 ecx, DWORD PTR _waon_cnt$6[ebp]
  006c5	89 0c 85 00 00
	00 00		 mov	 DWORD PTR ?play_use_task_cnt@@3PAHA[eax*4], ecx

; 2208 : 			return;

  006cc	e9 d9 06 00 00	 jmp	 $LN1@gate
$LN39@gate:

; 2209 : 		}
; 2210 : 		if(next_command==MUSIC_TEMPO){		//????

  006d1	83 7d f8 f9	 cmp	 DWORD PTR _next_command$[ebp], -7 ; fffffff9H
  006d5	75 42		 jne	 SHORT $LN45@gate

; 2211 : 			tempo.LowPart = step[ch][step_point[ch]++];

  006d7	a1 00 00 00 00	 mov	 eax, DWORD PTR ?ch@@3HA
  006dc	c1 e0 10	 shl	 eax, 16			; 00000010H
  006df	8b 0d 00 00 00
	00		 mov	 ecx, DWORD PTR ?ch@@3HA
  006e5	8b 14 8d 00 00
	00 00		 mov	 edx, DWORD PTR ?step_point@@3PAHA[ecx*4]
  006ec	8b 84 90 00 00
	00 00		 mov	 eax, DWORD PTR ?step@@3PAY0EAAA@HA[eax+edx*4]
  006f3	a3 00 00 00 00	 mov	 DWORD PTR ?tempo@@3T_LARGE_INTEGER@@A, eax
  006f8	8b 0d 00 00 00
	00		 mov	 ecx, DWORD PTR ?ch@@3HA
  006fe	8b 14 8d 00 00
	00 00		 mov	 edx, DWORD PTR ?step_point@@3PAHA[ecx*4]
  00705	83 c2 01	 add	 edx, 1
  00708	a1 00 00 00 00	 mov	 eax, DWORD PTR ?ch@@3HA
  0070d	89 14 85 00 00
	00 00		 mov	 DWORD PTR ?step_point@@3PAHA[eax*4], edx

; 2212 : 			goto gate_100;

  00714	e9 87 fa ff ff	 jmp	 $gate_100$84
$LN45@gate:

; 2213 : 		}
; 2214 : 		if(next_command==MUSIC_NEIRO_NO){		//?棹?v??

  00719	83 7d f8 f7	 cmp	 DWORD PTR _next_command$[ebp], -9 ; fffffff7H
  0071d	75 4a		 jne	 SHORT $LN46@gate

; 2215 : //			change_neiro( ch, step[ch][step_point[ch]++] );
; 2216 : 			dataToneNo[ch] = step[ch][step_point[ch]++];

  0071f	a1 00 00 00 00	 mov	 eax, DWORD PTR ?ch@@3HA
  00724	c1 e0 10	 shl	 eax, 16			; 00000010H
  00727	8b 0d 00 00 00
	00		 mov	 ecx, DWORD PTR ?ch@@3HA
  0072d	8b 14 8d 00 00
	00 00		 mov	 edx, DWORD PTR ?step_point@@3PAHA[ecx*4]
  00734	8b 0d 00 00 00
	00		 mov	 ecx, DWORD PTR ?ch@@3HA
  0073a	8b 94 90 00 00
	00 00		 mov	 edx, DWORD PTR ?step@@3PAY0EAAA@HA[eax+edx*4]
  00741	89 14 8d 00 00
	00 00		 mov	 DWORD PTR ?dataToneNo@@3PAHA[ecx*4], edx
  00748	a1 00 00 00 00	 mov	 eax, DWORD PTR ?ch@@3HA
  0074d	8b 0c 85 00 00
	00 00		 mov	 ecx, DWORD PTR ?step_point@@3PAHA[eax*4]
  00754	83 c1 01	 add	 ecx, 1
  00757	8b 15 00 00 00
	00		 mov	 edx, DWORD PTR ?ch@@3HA
  0075d	89 0c 95 00 00
	00 00		 mov	 DWORD PTR ?step_point@@3PAHA[edx*4], ecx

; 2217 : 			goto gate_100;

  00764	e9 37 fa ff ff	 jmp	 $gate_100$84
$LN46@gate:

; 2218 : 		}
; 2219 : 		if(next_command==MUSIC_LOOP){		//????

  00769	83 7d f8 fd	 cmp	 DWORD PTR _next_command$[ebp], -3 ; fffffffdH
  0076d	75 2e		 jne	 SHORT $LN47@gate

; 2220 : 			step_point[ch] = step[ch][step_point[ch]];

  0076f	a1 00 00 00 00	 mov	 eax, DWORD PTR ?ch@@3HA
  00774	c1 e0 10	 shl	 eax, 16			; 00000010H
  00777	8b 0d 00 00 00
	00		 mov	 ecx, DWORD PTR ?ch@@3HA
  0077d	8b 14 8d 00 00
	00 00		 mov	 edx, DWORD PTR ?step_point@@3PAHA[ecx*4]
  00784	8b 0d 00 00 00
	00		 mov	 ecx, DWORD PTR ?ch@@3HA
  0078a	8b 94 90 00 00
	00 00		 mov	 edx, DWORD PTR ?step@@3PAY0EAAA@HA[eax+edx*4]
  00791	89 14 8d 00 00
	00 00		 mov	 DWORD PTR ?step_point@@3PAHA[ecx*4], edx

; 2221 : 			goto gate_100;

  00798	e9 03 fa ff ff	 jmp	 $gate_100$84
$LN47@gate:

; 2222 : 		}
; 2223 : 		if(next_command==MUSIC_KURI_START){		//?????

  0079d	83 7d f8 f4	 cmp	 DWORD PTR _next_command$[ebp], -12 ; fffffff4H
  007a1	75 76		 jne	 SHORT $LN48@gate

; 2224 : 			play_kuri_lv[ch]++;		//???????

  007a3	a1 00 00 00 00	 mov	 eax, DWORD PTR ?ch@@3HA
  007a8	8b 0c 85 00 00
	00 00		 mov	 ecx, DWORD PTR ?play_kuri_lv@@3PAHA[eax*4]
  007af	83 c1 01	 add	 ecx, 1
  007b2	8b 15 00 00 00
	00		 mov	 edx, DWORD PTR ?ch@@3HA
  007b8	89 0c 95 00 00
	00 00		 mov	 DWORD PTR ?play_kuri_lv@@3PAHA[edx*4], ecx

; 2225 : 			play_kuri_num[play_kuri_lv[ch]][ch] = step[ch][step_point[ch]++];

  007bf	a1 00 00 00 00	 mov	 eax, DWORD PTR ?ch@@3HA
  007c4	c1 e0 10	 shl	 eax, 16			; 00000010H
  007c7	8b 0d 00 00 00
	00		 mov	 ecx, DWORD PTR ?ch@@3HA
  007cd	8b 14 8d 00 00
	00 00		 mov	 edx, DWORD PTR ?step_point@@3PAHA[ecx*4]
  007d4	8b 0d 00 00 00
	00		 mov	 ecx, DWORD PTR ?ch@@3HA
  007da	8b 0c 8d 00 00
	00 00		 mov	 ecx, DWORD PTR ?play_kuri_lv@@3PAHA[ecx*4]
  007e1	c1 e1 07	 shl	 ecx, 7
  007e4	8b 35 00 00 00
	00		 mov	 esi, DWORD PTR ?ch@@3HA
  007ea	8b 94 90 00 00
	00 00		 mov	 edx, DWORD PTR ?step@@3PAY0EAAA@HA[eax+edx*4]
  007f1	89 94 b1 00 00
	00 00		 mov	 DWORD PTR ?play_kuri_num@@3PAY0CA@HA[ecx+esi*4], edx
  007f8	a1 00 00 00 00	 mov	 eax, DWORD PTR ?ch@@3HA
  007fd	8b 0c 85 00 00
	00 00		 mov	 ecx, DWORD PTR ?step_point@@3PAHA[eax*4]
  00804	83 c1 01	 add	 ecx, 1
  00807	8b 15 00 00 00
	00		 mov	 edx, DWORD PTR ?ch@@3HA
  0080d	89 0c 95 00 00
	00 00		 mov	 DWORD PTR ?step_point@@3PAHA[edx*4], ecx

; 2226 : 			goto gate_100;

  00814	e9 87 f9 ff ff	 jmp	 $gate_100$84
$LN48@gate:

; 2227 : 		}
; 2228 : 		if(next_command==MUSIC_KURI_SKIP){		//???D?

  00819	83 7d f8 f5	 cmp	 DWORD PTR _next_command$[ebp], -11 ; fffffff5H
  0081d	0f 85 87 00 00
	00		 jne	 $LN49@gate

; 2229 : 			if(play_kuri_num[play_kuri_lv[ch]][ch] == 1){

  00823	a1 00 00 00 00	 mov	 eax, DWORD PTR ?ch@@3HA
  00828	8b 0c 85 00 00
	00 00		 mov	 ecx, DWORD PTR ?play_kuri_lv@@3PAHA[eax*4]
  0082f	c1 e1 07	 shl	 ecx, 7
  00832	8b 15 00 00 00
	00		 mov	 edx, DWORD PTR ?ch@@3HA
  00838	83 bc 91 00 00
	00 00 01	 cmp	 DWORD PTR ?play_kuri_num@@3PAY0CA@HA[ecx+edx*4], 1
  00840	75 47		 jne	 SHORT $LN50@gate

; 2230 : 				step_point[ch] = step[ch][step_point[ch]];

  00842	a1 00 00 00 00	 mov	 eax, DWORD PTR ?ch@@3HA
  00847	c1 e0 10	 shl	 eax, 16			; 00000010H
  0084a	8b 0d 00 00 00
	00		 mov	 ecx, DWORD PTR ?ch@@3HA
  00850	8b 14 8d 00 00
	00 00		 mov	 edx, DWORD PTR ?step_point@@3PAHA[ecx*4]
  00857	8b 0d 00 00 00
	00		 mov	 ecx, DWORD PTR ?ch@@3HA
  0085d	8b 94 90 00 00
	00 00		 mov	 edx, DWORD PTR ?step@@3PAY0EAAA@HA[eax+edx*4]
  00864	89 14 8d 00 00
	00 00		 mov	 DWORD PTR ?step_point@@3PAHA[ecx*4], edx

; 2231 : 				play_kuri_lv[ch]--;		//???????

  0086b	a1 00 00 00 00	 mov	 eax, DWORD PTR ?ch@@3HA
  00870	8b 0c 85 00 00
	00 00		 mov	 ecx, DWORD PTR ?play_kuri_lv@@3PAHA[eax*4]
  00877	83 e9 01	 sub	 ecx, 1
  0087a	8b 15 00 00 00
	00		 mov	 edx, DWORD PTR ?ch@@3HA
  00880	89 0c 95 00 00
	00 00		 mov	 DWORD PTR ?play_kuri_lv@@3PAHA[edx*4], ecx

; 2232 : 			} else {

  00887	eb 1c		 jmp	 SHORT $LN51@gate
$LN50@gate:

; 2233 : 				step_point[ch]++;

  00889	a1 00 00 00 00	 mov	 eax, DWORD PTR ?ch@@3HA
  0088e	8b 0c 85 00 00
	00 00		 mov	 ecx, DWORD PTR ?step_point@@3PAHA[eax*4]
  00895	83 c1 01	 add	 ecx, 1
  00898	8b 15 00 00 00
	00		 mov	 edx, DWORD PTR ?ch@@3HA
  0089e	89 0c 95 00 00
	00 00		 mov	 DWORD PTR ?step_point@@3PAHA[edx*4], ecx
$LN51@gate:

; 2234 : 			}
; 2235 : 			goto gate_100;

  008a5	e9 f6 f8 ff ff	 jmp	 $gate_100$84
$LN49@gate:

; 2236 : 		}
; 2237 : 		if(next_command==MUSIC_KURI_RET){		//?????

  008aa	83 7d f8 f6	 cmp	 DWORD PTR _next_command$[ebp], -10 ; fffffff6H
  008ae	0f 85 c3 00 00
	00		 jne	 $LN52@gate

; 2238 : 			play_kuri_num[play_kuri_lv[ch]][ch]--;

  008b4	a1 00 00 00 00	 mov	 eax, DWORD PTR ?ch@@3HA
  008b9	8b 0c 85 00 00
	00 00		 mov	 ecx, DWORD PTR ?play_kuri_lv@@3PAHA[eax*4]
  008c0	c1 e1 07	 shl	 ecx, 7
  008c3	8b 15 00 00 00
	00		 mov	 edx, DWORD PTR ?ch@@3HA
  008c9	8b 84 91 00 00
	00 00		 mov	 eax, DWORD PTR ?play_kuri_num@@3PAY0CA@HA[ecx+edx*4]
  008d0	83 e8 01	 sub	 eax, 1
  008d3	8b 0d 00 00 00
	00		 mov	 ecx, DWORD PTR ?ch@@3HA
  008d9	8b 14 8d 00 00
	00 00		 mov	 edx, DWORD PTR ?play_kuri_lv@@3PAHA[ecx*4]
  008e0	c1 e2 07	 shl	 edx, 7
  008e3	8b 0d 00 00 00
	00		 mov	 ecx, DWORD PTR ?ch@@3HA
  008e9	89 84 8a 00 00
	00 00		 mov	 DWORD PTR ?play_kuri_num@@3PAY0CA@HA[edx+ecx*4], eax

; 2239 : 			if(play_kuri_num[play_kuri_lv[ch]][ch] > 0){

  008f0	a1 00 00 00 00	 mov	 eax, DWORD PTR ?ch@@3HA
  008f5	8b 0c 85 00 00
	00 00		 mov	 ecx, DWORD PTR ?play_kuri_lv@@3PAHA[eax*4]
  008fc	c1 e1 07	 shl	 ecx, 7
  008ff	8b 15 00 00 00
	00		 mov	 edx, DWORD PTR ?ch@@3HA
  00905	83 bc 91 00 00
	00 00 00	 cmp	 DWORD PTR ?play_kuri_num@@3PAY0CA@HA[ecx+edx*4], 0
  0090d	7e 2b		 jle	 SHORT $LN53@gate

; 2240 : 				step_point[ch] = step[ch][step_point[ch]];

  0090f	a1 00 00 00 00	 mov	 eax, DWORD PTR ?ch@@3HA
  00914	c1 e0 10	 shl	 eax, 16			; 00000010H
  00917	8b 0d 00 00 00
	00		 mov	 ecx, DWORD PTR ?ch@@3HA
  0091d	8b 14 8d 00 00
	00 00		 mov	 edx, DWORD PTR ?step_point@@3PAHA[ecx*4]
  00924	8b 0d 00 00 00
	00		 mov	 ecx, DWORD PTR ?ch@@3HA
  0092a	8b 94 90 00 00
	00 00		 mov	 edx, DWORD PTR ?step@@3PAY0EAAA@HA[eax+edx*4]
  00931	89 14 8d 00 00
	00 00		 mov	 DWORD PTR ?step_point@@3PAHA[ecx*4], edx

; 2241 : 			} else {

  00938	eb 38		 jmp	 SHORT $LN54@gate
$LN53@gate:

; 2242 : 				step_point[ch]++;

  0093a	a1 00 00 00 00	 mov	 eax, DWORD PTR ?ch@@3HA
  0093f	8b 0c 85 00 00
	00 00		 mov	 ecx, DWORD PTR ?step_point@@3PAHA[eax*4]
  00946	83 c1 01	 add	 ecx, 1
  00949	8b 15 00 00 00
	00		 mov	 edx, DWORD PTR ?ch@@3HA
  0094f	89 0c 95 00 00
	00 00		 mov	 DWORD PTR ?step_point@@3PAHA[edx*4], ecx

; 2243 : 				play_kuri_lv[ch]--;		//???????

  00956	a1 00 00 00 00	 mov	 eax, DWORD PTR ?ch@@3HA
  0095b	8b 0c 85 00 00
	00 00		 mov	 ecx, DWORD PTR ?play_kuri_lv@@3PAHA[eax*4]
  00962	83 e9 01	 sub	 ecx, 1
  00965	8b 15 00 00 00
	00		 mov	 edx, DWORD PTR ?ch@@3HA
  0096b	89 0c 95 00 00
	00 00		 mov	 DWORD PTR ?play_kuri_lv@@3PAHA[edx*4], ecx
$LN54@gate:

; 2244 : 			}
; 2245 : 			goto gate_100;

  00972	e9 29 f8 ff ff	 jmp	 $gate_100$84
$LN52@gate:

; 2246 : 		}
; 2247 : 		if(next_command==MUSIC_R){		//??

  00977	83 7d f8 fe	 cmp	 DWORD PTR _next_command$[ebp], -2 ; fffffffeH
  0097b	0f 85 43 01 00
	00		 jne	 $LN55@gate

; 2248 : 			if(tie_flg[ch]){		//????

  00981	a1 00 00 00 00	 mov	 eax, DWORD PTR ?ch@@3HA
  00986	83 3c 85 00 00
	00 00 00	 cmp	 DWORD PTR ?tie_flg@@3PAHA[eax*4], 0
  0098e	74 74		 je	 SHORT $LN56@gate

; 2249 : 				for(int cnt=0;cnt<play_use_task_cnt[ch];cnt++){

  00990	c7 45 80 00 00
	00 00		 mov	 DWORD PTR _cnt$1[ebp], 0
  00997	eb 09		 jmp	 SHORT $LN19@gate
$LN17@gate:
  00999	8b 45 80	 mov	 eax, DWORD PTR _cnt$1[ebp]
  0099c	83 c0 01	 add	 eax, 1
  0099f	89 45 80	 mov	 DWORD PTR _cnt$1[ebp], eax
$LN19@gate:
  009a2	a1 00 00 00 00	 mov	 eax, DWORD PTR ?ch@@3HA
  009a7	8b 4d 80	 mov	 ecx, DWORD PTR _cnt$1[ebp]
  009aa	3b 0c 85 00 00
	00 00		 cmp	 ecx, DWORD PTR ?play_use_task_cnt@@3PAHA[eax*4]
  009b1	7d 51		 jge	 SHORT $LN56@gate

; 2250 : 					//???????
; 2251 : 					voice[ play_use_task[ch][cnt] ].name = VOICE_TIE_SET;

  009b3	a1 00 00 00 00	 mov	 eax, DWORD PTR ?ch@@3HA
  009b8	c1 e0 05	 shl	 eax, 5
  009bb	8b 4d 80	 mov	 ecx, DWORD PTR _cnt$1[ebp]
  009be	6b 94 88 00 00
	00 00 3c	 imul	 edx, DWORD PTR ?play_use_task@@3PAY07HA[eax+ecx*4], 60
  009c6	c7 82 00 00 00
	00 0a 00 00 00	 mov	 DWORD PTR ?voice@@3PAUVOICE_EQU@@A[edx], 10 ; 0000000aH

; 2252 : 					//???????????
; 2253 : 					set_voice_param( play_use_task[ch][cnt], note_old[ch][cnt], -1, 0 );

  009d0	6a 00		 push	 0
  009d2	6a ff		 push	 -1
  009d4	a1 00 00 00 00	 mov	 eax, DWORD PTR ?ch@@3HA
  009d9	c1 e0 05	 shl	 eax, 5
  009dc	8b 4d 80	 mov	 ecx, DWORD PTR _cnt$1[ebp]
  009df	8b 94 88 00 00
	00 00		 mov	 edx, DWORD PTR ?note_old@@3PAY07HA[eax+ecx*4]
  009e6	52		 push	 edx
  009e7	a1 00 00 00 00	 mov	 eax, DWORD PTR ?ch@@3HA
  009ec	c1 e0 05	 shl	 eax, 5
  009ef	8b 4d 80	 mov	 ecx, DWORD PTR _cnt$1[ebp]
  009f2	8b 94 88 00 00
	00 00		 mov	 edx, DWORD PTR ?play_use_task@@3PAY07HA[eax+ecx*4]
  009f9	52		 push	 edx
  009fa	e8 00 00 00 00	 call	 ?set_voice_param@@YAXHJHH@Z ; set_voice_param
  009ff	83 c4 10	 add	 esp, 16			; 00000010H

; 2254 : 				}

  00a02	eb 95		 jmp	 SHORT $LN17@gate
$LN56@gate:

; 2255 : 			}
; 2256 : 			step_time[ch] = step[ch][step_point[ch]++];		//???????

  00a04	a1 00 00 00 00	 mov	 eax, DWORD PTR ?ch@@3HA
  00a09	c1 e0 10	 shl	 eax, 16			; 00000010H
  00a0c	8b 0d 00 00 00
	00		 mov	 ecx, DWORD PTR ?ch@@3HA
  00a12	8b 14 8d 00 00
	00 00		 mov	 edx, DWORD PTR ?step_point@@3PAHA[ecx*4]
  00a19	8b 0d 00 00 00
	00		 mov	 ecx, DWORD PTR ?ch@@3HA
  00a1f	8b 94 90 00 00
	00 00		 mov	 edx, DWORD PTR ?step@@3PAY0EAAA@HA[eax+edx*4]
  00a26	89 14 8d 00 00
	00 00		 mov	 DWORD PTR ?step_time@@3PAHA[ecx*4], edx
  00a2d	a1 00 00 00 00	 mov	 eax, DWORD PTR ?ch@@3HA
  00a32	8b 0c 85 00 00
	00 00		 mov	 ecx, DWORD PTR ?step_point@@3PAHA[eax*4]
  00a39	83 c1 01	 add	 ecx, 1
  00a3c	8b 15 00 00 00
	00		 mov	 edx, DWORD PTR ?ch@@3HA
  00a42	89 0c 95 00 00
	00 00		 mov	 DWORD PTR ?step_point@@3PAHA[edx*4], ecx

; 2257 : 			gate_time[ch] = step[ch][step_point[ch]++];		//??????

  00a49	a1 00 00 00 00	 mov	 eax, DWORD PTR ?ch@@3HA
  00a4e	c1 e0 10	 shl	 eax, 16			; 00000010H
  00a51	8b 0d 00 00 00
	00		 mov	 ecx, DWORD PTR ?ch@@3HA
  00a57	8b 14 8d 00 00
	00 00		 mov	 edx, DWORD PTR ?step_point@@3PAHA[ecx*4]
  00a5e	8b 0d 00 00 00
	00		 mov	 ecx, DWORD PTR ?ch@@3HA
  00a64	8b 94 90 00 00
	00 00		 mov	 edx, DWORD PTR ?step@@3PAY0EAAA@HA[eax+edx*4]
  00a6b	89 14 8d 00 00
	00 00		 mov	 DWORD PTR ?gate_time@@3PAHA[ecx*4], edx
  00a72	a1 00 00 00 00	 mov	 eax, DWORD PTR ?ch@@3HA
  00a77	8b 0c 85 00 00
	00 00		 mov	 ecx, DWORD PTR ?step_point@@3PAHA[eax*4]
  00a7e	83 c1 01	 add	 ecx, 1
  00a81	8b 15 00 00 00
	00		 mov	 edx, DWORD PTR ?ch@@3HA
  00a87	89 0c 95 00 00
	00 00		 mov	 DWORD PTR ?step_point@@3PAHA[edx*4], ecx

; 2258 : 			if(gate_time[ch]==-1){		//????

  00a8e	a1 00 00 00 00	 mov	 eax, DWORD PTR ?ch@@3HA
  00a93	83 3c 85 00 00
	00 00 ff	 cmp	 DWORD PTR ?gate_time@@3PAHA[eax*4], -1
  00a9b	75 12		 jne	 SHORT $LN57@gate

; 2259 : 				tie_flg[ch]=1;

  00a9d	a1 00 00 00 00	 mov	 eax, DWORD PTR ?ch@@3HA
  00aa2	c7 04 85 00 00
	00 00 01 00 00
	00		 mov	 DWORD PTR ?tie_flg@@3PAHA[eax*4], 1

; 2260 : 			} else {

  00aad	eb 10		 jmp	 SHORT $LN58@gate
$LN57@gate:

; 2261 : 				tie_flg[ch]=0;

  00aaf	a1 00 00 00 00	 mov	 eax, DWORD PTR ?ch@@3HA
  00ab4	c7 04 85 00 00
	00 00 00 00 00
	00		 mov	 DWORD PTR ?tie_flg@@3PAHA[eax*4], 0
$LN58@gate:

; 2262 : 			}
; 2263 : 			return;

  00abf	e9 e6 02 00 00	 jmp	 $LN1@gate
$LN55@gate:

; 2264 : 		}
; 2265 : 		if(next_command==MUSIC_LFO_H){		//??????

  00ac4	83 7d f8 f0	 cmp	 DWORD PTR _next_command$[ebp], -16 ; fffffff0H
  00ac8	75 4a		 jne	 SHORT $LN59@gate

; 2266 : 			play_lfo_h[ch]=step[ch][step_point[ch]++];

  00aca	a1 00 00 00 00	 mov	 eax, DWORD PTR ?ch@@3HA
  00acf	c1 e0 10	 shl	 eax, 16			; 00000010H
  00ad2	8b 0d 00 00 00
	00		 mov	 ecx, DWORD PTR ?ch@@3HA
  00ad8	8b 14 8d 00 00
	00 00		 mov	 edx, DWORD PTR ?step_point@@3PAHA[ecx*4]
  00adf	8b 0d 00 00 00
	00		 mov	 ecx, DWORD PTR ?ch@@3HA
  00ae5	8b 94 90 00 00
	00 00		 mov	 edx, DWORD PTR ?step@@3PAY0EAAA@HA[eax+edx*4]
  00aec	89 14 8d 00 00
	00 00		 mov	 DWORD PTR ?play_lfo_h@@3PAHA[ecx*4], edx
  00af3	a1 00 00 00 00	 mov	 eax, DWORD PTR ?ch@@3HA
  00af8	8b 0c 85 00 00
	00 00		 mov	 ecx, DWORD PTR ?step_point@@3PAHA[eax*4]
  00aff	83 c1 01	 add	 ecx, 1
  00b02	8b 15 00 00 00
	00		 mov	 edx, DWORD PTR ?ch@@3HA
  00b08	89 0c 95 00 00
	00 00		 mov	 DWORD PTR ?step_point@@3PAHA[edx*4], ecx

; 2267 : 			goto gate_100;

  00b0f	e9 8c f6 ff ff	 jmp	 $gate_100$84
$LN59@gate:

; 2268 : 		}
; 2269 : 		if(next_command==MUSIC_LFO_M){		//??????

  00b14	83 7d f8 ef	 cmp	 DWORD PTR _next_command$[ebp], -17 ; ffffffefH
  00b18	75 4a		 jne	 SHORT $LN60@gate

; 2270 : 			play_lfo_m[ch]=step[ch][step_point[ch]++];

  00b1a	a1 00 00 00 00	 mov	 eax, DWORD PTR ?ch@@3HA
  00b1f	c1 e0 10	 shl	 eax, 16			; 00000010H
  00b22	8b 0d 00 00 00
	00		 mov	 ecx, DWORD PTR ?ch@@3HA
  00b28	8b 14 8d 00 00
	00 00		 mov	 edx, DWORD PTR ?step_point@@3PAHA[ecx*4]
  00b2f	8b 0d 00 00 00
	00		 mov	 ecx, DWORD PTR ?ch@@3HA
  00b35	8b 94 90 00 00
	00 00		 mov	 edx, DWORD PTR ?step@@3PAY0EAAA@HA[eax+edx*4]
  00b3c	89 14 8d 00 00
	00 00		 mov	 DWORD PTR ?play_lfo_m@@3PAHA[ecx*4], edx
  00b43	a1 00 00 00 00	 mov	 eax, DWORD PTR ?ch@@3HA
  00b48	8b 0c 85 00 00
	00 00		 mov	 ecx, DWORD PTR ?step_point@@3PAHA[eax*4]
  00b4f	83 c1 01	 add	 ecx, 1
  00b52	8b 15 00 00 00
	00		 mov	 edx, DWORD PTR ?ch@@3HA
  00b58	89 0c 95 00 00
	00 00		 mov	 DWORD PTR ?step_point@@3PAHA[edx*4], ecx

; 2271 : 			goto gate_100;

  00b5f	e9 3c f6 ff ff	 jmp	 $gate_100$84
$LN60@gate:

; 2272 : 		}
; 2273 : 		if(next_command==MUSIC_LFO_S){		//??????

  00b64	83 7d f8 ee	 cmp	 DWORD PTR _next_command$[ebp], -18 ; ffffffeeH
  00b68	75 4a		 jne	 SHORT $LN61@gate

; 2274 : 			play_lfo_s[ch]=step[ch][step_point[ch]++];

  00b6a	a1 00 00 00 00	 mov	 eax, DWORD PTR ?ch@@3HA
  00b6f	c1 e0 10	 shl	 eax, 16			; 00000010H
  00b72	8b 0d 00 00 00
	00		 mov	 ecx, DWORD PTR ?ch@@3HA
  00b78	8b 14 8d 00 00
	00 00		 mov	 edx, DWORD PTR ?step_point@@3PAHA[ecx*4]
  00b7f	8b 0d 00 00 00
	00		 mov	 ecx, DWORD PTR ?ch@@3HA
  00b85	8b 94 90 00 00
	00 00		 mov	 edx, DWORD PTR ?step@@3PAY0EAAA@HA[eax+edx*4]
  00b8c	89 14 8d 00 00
	00 00		 mov	 DWORD PTR ?play_lfo_s@@3PAHA[ecx*4], edx
  00b93	a1 00 00 00 00	 mov	 eax, DWORD PTR ?ch@@3HA
  00b98	8b 0c 85 00 00
	00 00		 mov	 ecx, DWORD PTR ?step_point@@3PAHA[eax*4]
  00b9f	83 c1 01	 add	 ecx, 1
  00ba2	8b 15 00 00 00
	00		 mov	 edx, DWORD PTR ?ch@@3HA
  00ba8	89 0c 95 00 00
	00 00		 mov	 DWORD PTR ?step_point@@3PAHA[edx*4], ecx

; 2275 : 			goto gate_100;

  00baf	e9 ec f5 ff ff	 jmp	 $gate_100$84
$LN61@gate:

; 2276 : 		}
; 2277 : 		if(next_command==MUSIC_PEDAL){		//????????

  00bb4	83 7d f8 f8	 cmp	 DWORD PTR _next_command$[ebp], -8 ; fffffff8H
  00bb8	75 4a		 jne	 SHORT $LN62@gate

; 2278 : 			d_pedal[ch]=step[ch][step_point[ch]++];

  00bba	a1 00 00 00 00	 mov	 eax, DWORD PTR ?ch@@3HA
  00bbf	c1 e0 10	 shl	 eax, 16			; 00000010H
  00bc2	8b 0d 00 00 00
	00		 mov	 ecx, DWORD PTR ?ch@@3HA
  00bc8	8b 14 8d 00 00
	00 00		 mov	 edx, DWORD PTR ?step_point@@3PAHA[ecx*4]
  00bcf	8b 0d 00 00 00
	00		 mov	 ecx, DWORD PTR ?ch@@3HA
  00bd5	8b 94 90 00 00
	00 00		 mov	 edx, DWORD PTR ?step@@3PAY0EAAA@HA[eax+edx*4]
  00bdc	89 14 8d 00 00
	00 00		 mov	 DWORD PTR ?d_pedal@@3PAHA[ecx*4], edx
  00be3	a1 00 00 00 00	 mov	 eax, DWORD PTR ?ch@@3HA
  00be8	8b 0c 85 00 00
	00 00		 mov	 ecx, DWORD PTR ?step_point@@3PAHA[eax*4]
  00bef	83 c1 01	 add	 ecx, 1
  00bf2	8b 15 00 00 00
	00		 mov	 edx, DWORD PTR ?ch@@3HA
  00bf8	89 0c 95 00 00
	00 00		 mov	 DWORD PTR ?step_point@@3PAHA[edx*4], ecx

; 2279 : 			goto gate_100;

  00bff	e9 9c f5 ff ff	 jmp	 $gate_100$84
$LN62@gate:

; 2280 : 		}
; 2281 : 		if(next_command==MUSIC_WAVE){		//???????

  00c04	83 7d f8 f3	 cmp	 DWORD PTR _next_command$[ebp], -13 ; fffffff3H
  00c08	75 4a		 jne	 SHORT $LN63@gate

; 2282 : 			wave[ch]=step[ch][step_point[ch]++];

  00c0a	a1 00 00 00 00	 mov	 eax, DWORD PTR ?ch@@3HA
  00c0f	c1 e0 10	 shl	 eax, 16			; 00000010H
  00c12	8b 0d 00 00 00
	00		 mov	 ecx, DWORD PTR ?ch@@3HA
  00c18	8b 14 8d 00 00
	00 00		 mov	 edx, DWORD PTR ?step_point@@3PAHA[ecx*4]
  00c1f	8b 0d 00 00 00
	00		 mov	 ecx, DWORD PTR ?ch@@3HA
  00c25	8b 94 90 00 00
	00 00		 mov	 edx, DWORD PTR ?step@@3PAY0EAAA@HA[eax+edx*4]
  00c2c	89 14 8d 00 00
	00 00		 mov	 DWORD PTR ?wave@@3PAHA[ecx*4], edx
  00c33	a1 00 00 00 00	 mov	 eax, DWORD PTR ?ch@@3HA
  00c38	8b 0c 85 00 00
	00 00		 mov	 ecx, DWORD PTR ?step_point@@3PAHA[eax*4]
  00c3f	83 c1 01	 add	 ecx, 1
  00c42	8b 15 00 00 00
	00		 mov	 edx, DWORD PTR ?ch@@3HA
  00c48	89 0c 95 00 00
	00 00		 mov	 DWORD PTR ?step_point@@3PAHA[edx*4], ecx

; 2283 : 			goto gate_100;

  00c4f	e9 4c f5 ff ff	 jmp	 $gate_100$84
$LN63@gate:

; 2284 : 		}
; 2285 : 		if(next_command==MUSIC_VOL){		//????

  00c54	83 7d f8 fb	 cmp	 DWORD PTR _next_command$[ebp], -5 ; fffffffbH
  00c58	75 4a		 jne	 SHORT $LN64@gate

; 2286 : 			dataVolume[ch]=step[ch][step_point[ch]++];

  00c5a	a1 00 00 00 00	 mov	 eax, DWORD PTR ?ch@@3HA
  00c5f	c1 e0 10	 shl	 eax, 16			; 00000010H
  00c62	8b 0d 00 00 00
	00		 mov	 ecx, DWORD PTR ?ch@@3HA
  00c68	8b 14 8d 00 00
	00 00		 mov	 edx, DWORD PTR ?step_point@@3PAHA[ecx*4]
  00c6f	8b 0d 00 00 00
	00		 mov	 ecx, DWORD PTR ?ch@@3HA
  00c75	8b 94 90 00 00
	00 00		 mov	 edx, DWORD PTR ?step@@3PAY0EAAA@HA[eax+edx*4]
  00c7c	89 14 8d 00 00
	00 00		 mov	 DWORD PTR ?dataVolume@@3PAHA[ecx*4], edx
  00c83	a1 00 00 00 00	 mov	 eax, DWORD PTR ?ch@@3HA
  00c88	8b 0c 85 00 00
	00 00		 mov	 ecx, DWORD PTR ?step_point@@3PAHA[eax*4]
  00c8f	83 c1 01	 add	 ecx, 1
  00c92	8b 15 00 00 00
	00		 mov	 edx, DWORD PTR ?ch@@3HA
  00c98	89 0c 95 00 00
	00 00		 mov	 DWORD PTR ?step_point@@3PAHA[edx*4], ecx

; 2287 : //			pDSData[play_use_task[ch]]->SetVolume(dataVolume[ch]);
; 2288 : 			goto gate_100;

  00c9f	e9 fc f4 ff ff	 jmp	 $gate_100$84
$LN64@gate:

; 2289 : 		}
; 2290 : 		if(next_command==MUSIC_DETUNE){		//??????

  00ca4	83 7d f8 f1	 cmp	 DWORD PTR _next_command$[ebp], -15 ; fffffff1H
  00ca8	75 4a		 jne	 SHORT $LN65@gate

; 2291 : 			play_detune[ch] = step[ch][step_point[ch]++];

  00caa	a1 00 00 00 00	 mov	 eax, DWORD PTR ?ch@@3HA
  00caf	c1 e0 10	 shl	 eax, 16			; 00000010H
  00cb2	8b 0d 00 00 00
	00		 mov	 ecx, DWORD PTR ?ch@@3HA
  00cb8	8b 14 8d 00 00
	00 00		 mov	 edx, DWORD PTR ?step_point@@3PAHA[ecx*4]
  00cbf	8b 0d 00 00 00
	00		 mov	 ecx, DWORD PTR ?ch@@3HA
  00cc5	8b 94 90 00 00
	00 00		 mov	 edx, DWORD PTR ?step@@3PAY0EAAA@HA[eax+edx*4]
  00ccc	89 14 8d 00 00
	00 00		 mov	 DWORD PTR ?play_detune@@3PAHA[ecx*4], edx
  00cd3	a1 00 00 00 00	 mov	 eax, DWORD PTR ?ch@@3HA
  00cd8	8b 0c 85 00 00
	00 00		 mov	 ecx, DWORD PTR ?step_point@@3PAHA[eax*4]
  00cdf	83 c1 01	 add	 ecx, 1
  00ce2	8b 15 00 00 00
	00		 mov	 edx, DWORD PTR ?ch@@3HA
  00ce8	89 0c 95 00 00
	00 00		 mov	 DWORD PTR ?step_point@@3PAHA[edx*4], ecx

; 2292 : 			goto gate_100;

  00cef	e9 ac f4 ff ff	 jmp	 $gate_100$84
$LN65@gate:

; 2293 : 		}
; 2294 : 		if(next_command==MUSIC_FREQ){		//??

  00cf4	83 7d f8 fc	 cmp	 DWORD PTR _next_command$[ebp], -4 ; fffffffcH
  00cf8	75 4a		 jne	 SHORT $LN66@gate

; 2295 : 			dataFrequency[ch]=step[ch][step_point[ch]++];

  00cfa	a1 00 00 00 00	 mov	 eax, DWORD PTR ?ch@@3HA
  00cff	c1 e0 10	 shl	 eax, 16			; 00000010H
  00d02	8b 0d 00 00 00
	00		 mov	 ecx, DWORD PTR ?ch@@3HA
  00d08	8b 14 8d 00 00
	00 00		 mov	 edx, DWORD PTR ?step_point@@3PAHA[ecx*4]
  00d0f	8b 0d 00 00 00
	00		 mov	 ecx, DWORD PTR ?ch@@3HA
  00d15	8b 94 90 00 00
	00 00		 mov	 edx, DWORD PTR ?step@@3PAY0EAAA@HA[eax+edx*4]
  00d1c	89 14 8d 00 00
	00 00		 mov	 DWORD PTR ?dataFrequency@@3PAJA[ecx*4], edx
  00d23	a1 00 00 00 00	 mov	 eax, DWORD PTR ?ch@@3HA
  00d28	8b 0c 85 00 00
	00 00		 mov	 ecx, DWORD PTR ?step_point@@3PAHA[eax*4]
  00d2f	83 c1 01	 add	 ecx, 1
  00d32	8b 15 00 00 00
	00		 mov	 edx, DWORD PTR ?ch@@3HA
  00d38	89 0c 95 00 00
	00 00		 mov	 DWORD PTR ?step_point@@3PAHA[edx*4], ecx

; 2296 : //			pDSData[play_use_task[ch]]->SetFrequency((DWORD)dataFrequency[ch]);
; 2297 : 			goto gate_100;

  00d3f	e9 5c f4 ff ff	 jmp	 $gate_100$84
$LN66@gate:

; 2298 : 		}
; 2299 : 		if(next_command==MUSIC_PAN){		//??????

  00d44	83 7d f8 fa	 cmp	 DWORD PTR _next_command$[ebp], -6 ; fffffffaH
  00d48	75 4a		 jne	 SHORT $LN67@gate

; 2300 : 			dataPan[ch]=step[ch][step_point[ch]++];

  00d4a	a1 00 00 00 00	 mov	 eax, DWORD PTR ?ch@@3HA
  00d4f	c1 e0 10	 shl	 eax, 16			; 00000010H
  00d52	8b 0d 00 00 00
	00		 mov	 ecx, DWORD PTR ?ch@@3HA
  00d58	8b 14 8d 00 00
	00 00		 mov	 edx, DWORD PTR ?step_point@@3PAHA[ecx*4]
  00d5f	8b 0d 00 00 00
	00		 mov	 ecx, DWORD PTR ?ch@@3HA
  00d65	8b 94 90 00 00
	00 00		 mov	 edx, DWORD PTR ?step@@3PAY0EAAA@HA[eax+edx*4]
  00d6c	89 14 8d 00 00
	00 00		 mov	 DWORD PTR ?dataPan@@3PAHA[ecx*4], edx
  00d73	a1 00 00 00 00	 mov	 eax, DWORD PTR ?ch@@3HA
  00d78	8b 0c 85 00 00
	00 00		 mov	 ecx, DWORD PTR ?step_point@@3PAHA[eax*4]
  00d7f	83 c1 01	 add	 ecx, 1
  00d82	8b 15 00 00 00
	00		 mov	 edx, DWORD PTR ?ch@@3HA
  00d88	89 0c 95 00 00
	00 00		 mov	 DWORD PTR ?step_point@@3PAHA[edx*4], ecx

; 2301 : //			pDSData[play_use_task[ch]]->SetPan(dataPan[ch]);
; 2302 : 			goto gate_100;

  00d8f	e9 0c f4 ff ff	 jmp	 $gate_100$84
$LN67@gate:

; 2303 : 		}
; 2304 : 		if(next_command==MUSIC_END){		//??

  00d94	83 7d f8 ff	 cmp	 DWORD PTR _next_command$[ebp], -1
  00d98	75 10		 jne	 SHORT $LN1@gate

; 2305 : 			play_flg[ ch ] = 0;

  00d9a	a1 00 00 00 00	 mov	 eax, DWORD PTR ?ch@@3HA
  00d9f	c7 04 85 00 00
	00 00 00 00 00
	00		 mov	 DWORD PTR ?play_flg@@3PAHA[eax*4], 0
$LN1@gate:

; 2306 : 			return;
; 2307 : 		}
; 2308 : 	}
; 2309 : }

  00daa	5f		 pop	 edi
  00dab	5e		 pop	 esi
  00dac	5b		 pop	 ebx
  00dad	81 c4 44 01 00
	00		 add	 esp, 324		; 00000144H
  00db3	3b ec		 cmp	 ebp, esp
  00db5	e8 00 00 00 00	 call	 __RTC_CheckEsp
  00dba	8b e5		 mov	 esp, ebp
  00dbc	5d		 pop	 ebp
  00dbd	c3		 ret	 0
?gate@@YAXXZ ENDP					; gate
_TEXT	ENDS
; Function compile flags: /Odtp /RTCsu /ZI
; File c:\users\administrator\desktop\????? ??\????? ??\client source code\system\t_music.cpp
;	COMDAT ?stop_voice@@YAXXZ
_TEXT	SEGMENT
_cnt$1 = -8						; size = 4
?stop_voice@@YAXXZ PROC					; stop_voice, COMDAT

; 2092 : {

  00000	55		 push	 ebp
  00001	8b ec		 mov	 ebp, esp
  00003	81 ec cc 00 00
	00		 sub	 esp, 204		; 000000ccH
  00009	53		 push	 ebx
  0000a	56		 push	 esi
  0000b	57		 push	 edi
  0000c	8d bd 34 ff ff
	ff		 lea	 edi, DWORD PTR [ebp-204]
  00012	b9 33 00 00 00	 mov	 ecx, 51			; 00000033H
  00017	b8 cc cc cc cc	 mov	 eax, -858993460		; ccccccccH
  0001c	f3 ab		 rep stosd

; 2093 : 	for(int cnt=0;cnt<play_use_task_cnt[ch];cnt++){

  0001e	c7 45 f8 00 00
	00 00		 mov	 DWORD PTR _cnt$1[ebp], 0
  00025	eb 09		 jmp	 SHORT $LN4@stop_voice
$LN2@stop_voice:
  00027	8b 45 f8	 mov	 eax, DWORD PTR _cnt$1[ebp]
  0002a	83 c0 01	 add	 eax, 1
  0002d	89 45 f8	 mov	 DWORD PTR _cnt$1[ebp], eax
$LN4@stop_voice:
  00030	a1 00 00 00 00	 mov	 eax, DWORD PTR ?ch@@3HA
  00035	8b 4d f8	 mov	 ecx, DWORD PTR _cnt$1[ebp]
  00038	3b 0c 85 00 00
	00 00		 cmp	 ecx, DWORD PTR ?play_use_task_cnt@@3PAHA[eax*4]
  0003f	7d 4a		 jge	 SHORT $LN1@stop_voice

; 2094 : 		if(play_use_task[ch][cnt]!=-1){					//??????

  00041	a1 00 00 00 00	 mov	 eax, DWORD PTR ?ch@@3HA
  00046	c1 e0 05	 shl	 eax, 5
  00049	8b 4d f8	 mov	 ecx, DWORD PTR _cnt$1[ebp]
  0004c	83 bc 88 00 00
	00 00 ff	 cmp	 DWORD PTR ?play_use_task@@3PAY07HA[eax+ecx*4], -1
  00054	74 33		 je	 SHORT $LN5@stop_voice

; 2095 : #if VOICE_KILL_ON
; 2096 : 			voice_kill_buf[voice_kill_point++]=play_use_task[ch][cnt];
; 2097 : #else
; 2098 : 			voice[ play_use_task[ch][cnt] ].name = VOICE_KEY_OFF_FAST;		//????L?????

  00056	a1 00 00 00 00	 mov	 eax, DWORD PTR ?ch@@3HA
  0005b	c1 e0 05	 shl	 eax, 5
  0005e	8b 4d f8	 mov	 ecx, DWORD PTR _cnt$1[ebp]
  00061	6b 94 88 00 00
	00 00 3c	 imul	 edx, DWORD PTR ?play_use_task@@3PAY07HA[eax+ecx*4], 60
  00069	c7 82 00 00 00
	00 6e 00 00 00	 mov	 DWORD PTR ?voice@@3PAUVOICE_EQU@@A[edx], 110 ; 0000006eH

; 2099 : #endif
; 2100 : 			play_use_task[ch][cnt]=-1;					//???t?

  00073	a1 00 00 00 00	 mov	 eax, DWORD PTR ?ch@@3HA
  00078	c1 e0 05	 shl	 eax, 5
  0007b	8b 4d f8	 mov	 ecx, DWORD PTR _cnt$1[ebp]
  0007e	c7 84 88 00 00
	00 00 ff ff ff
	ff		 mov	 DWORD PTR ?play_use_task@@3PAY07HA[eax+ecx*4], -1
$LN5@stop_voice:

; 2101 : 		}
; 2102 : 	}

  00089	eb 9c		 jmp	 SHORT $LN2@stop_voice
$LN1@stop_voice:

; 2103 : }

  0008b	5f		 pop	 edi
  0008c	5e		 pop	 esi
  0008d	5b		 pop	 ebx
  0008e	8b e5		 mov	 esp, ebp
  00090	5d		 pop	 ebp
  00091	c3		 ret	 0
?stop_voice@@YAXXZ ENDP					; stop_voice
_TEXT	ENDS
; Function compile flags: /Odtp /RTCsu /ZI
; File c:\users\administrator\desktop\????? ??\????? ??\client source code\system\t_music.cpp
;	COMDAT ?set_tone@@YAHHJHH@Z
_TEXT	SEGMENT
_d1$ = -20						; size = 4
_d7$ = -8						; size = 4
_tone$ = 8						; size = 4
_note$ = 12						; size = 4
_use_task_cnt$ = 16					; size = 4
_delay$ = 20						; size = 4
?set_tone@@YAHHJHH@Z PROC				; set_tone, COMDAT

; 2044 : {

  00000	55		 push	 ebp
  00001	8b ec		 mov	 ebp, esp
  00003	81 ec d8 00 00
	00		 sub	 esp, 216		; 000000d8H
  00009	53		 push	 ebx
  0000a	56		 push	 esi
  0000b	57		 push	 edi
  0000c	8d bd 28 ff ff
	ff		 lea	 edi, DWORD PTR [ebp-216]
  00012	b9 36 00 00 00	 mov	 ecx, 54			; 00000036H
  00017	b8 cc cc cc cc	 mov	 eax, -858993460		; ccccccccH
  0001c	f3 ab		 rep stosd

; 2045 : 	int d7,d1=0;

  0001e	c7 45 ec 00 00
	00 00		 mov	 DWORD PTR _d1$[ebp], 0

; 2046 : 
; 2047 : 	for(d7=0;d7<VOICE_MAX;d7++){		//???????S?

  00025	c7 45 f8 00 00
	00 00		 mov	 DWORD PTR _d7$[ebp], 0
  0002c	eb 09		 jmp	 SHORT $LN4@set_tone
$LN2@set_tone:
  0002e	8b 45 f8	 mov	 eax, DWORD PTR _d7$[ebp]
  00031	83 c0 01	 add	 eax, 1
  00034	89 45 f8	 mov	 DWORD PTR _d7$[ebp], eax
$LN4@set_tone:
  00037	83 7d f8 40	 cmp	 DWORD PTR _d7$[ebp], 64	; 00000040H
  0003b	7d 35		 jge	 SHORT $LN3@set_tone

; 2048 : //		if( voice[ d7 ].name == 0){		//???
; 2049 : 		if( voice[ voice_seek_point ].name == 0){		//???

  0003d	6b 05 00 00 00
	00 3c		 imul	 eax, DWORD PTR ?voice_seek_point@@3HA, 60
  00044	83 b8 00 00 00
	00 00		 cmp	 DWORD PTR ?voice@@3PAUVOICE_EQU@@A[eax], 0
  0004b	75 09		 jne	 SHORT $LN5@set_tone

; 2050 : 			d1=1;										//??????

  0004d	c7 45 ec 01 00
	00 00		 mov	 DWORD PTR _d1$[ebp], 1

; 2051 : 			break;

  00054	eb 1c		 jmp	 SHORT $LN3@set_tone
$LN5@set_tone:

; 2052 : 		}
; 2053 : 		voice_seek_point++;

  00056	a1 00 00 00 00	 mov	 eax, DWORD PTR ?voice_seek_point@@3HA
  0005b	83 c0 01	 add	 eax, 1
  0005e	a3 00 00 00 00	 mov	 DWORD PTR ?voice_seek_point@@3HA, eax

; 2054 : 		voice_seek_point&=VOICE_MAX-1;

  00063	a1 00 00 00 00	 mov	 eax, DWORD PTR ?voice_seek_point@@3HA
  00068	83 e0 3f	 and	 eax, 63			; 0000003fH
  0006b	a3 00 00 00 00	 mov	 DWORD PTR ?voice_seek_point@@3HA, eax

; 2055 : 	}

  00070	eb bc		 jmp	 SHORT $LN2@set_tone
$LN3@set_tone:

; 2056 : 	if(!d1){		//????????

  00072	83 7d ec 00	 cmp	 DWORD PTR _d1$[ebp], 0
  00076	75 1e		 jne	 SHORT $LN6@set_tone

; 2057 : #ifdef  _STONDEBUG_
; 2058 : 		MessageBox(hWnd, "????", "Error", MB_OK);		//????I??
; 2059 : #endif
; 2060 : 		play_use_task[ch][use_task_cnt]=-1;		//??????

  00078	a1 00 00 00 00	 mov	 eax, DWORD PTR ?ch@@3HA
  0007d	c1 e0 05	 shl	 eax, 5
  00080	8b 4d 10	 mov	 ecx, DWORD PTR _use_task_cnt$[ebp]
  00083	c7 84 88 00 00
	00 00 ff ff ff
	ff		 mov	 DWORD PTR ?play_use_task@@3PAY07HA[eax+ecx*4], -1

; 2061 : 		return -1;

  0008e	83 c8 ff	 or	 eax, -1
  00091	e9 fa 00 00 00	 jmp	 $LN1@set_tone
$LN6@set_tone:

; 2062 : 	}
; 2063 : 	d7 = voice_seek_point;

  00096	a1 00 00 00 00	 mov	 eax, DWORD PTR ?voice_seek_point@@3HA
  0009b	89 45 f8	 mov	 DWORD PTR _d7$[ebp], eax

; 2064 : 
; 2065 : 	play_use_task[ch][use_task_cnt]=d7;		//????k?颌V

  0009e	a1 00 00 00 00	 mov	 eax, DWORD PTR ?ch@@3HA
  000a3	c1 e0 05	 shl	 eax, 5
  000a6	8b 4d 10	 mov	 ecx, DWORD PTR _use_task_cnt$[ebp]
  000a9	8b 55 f8	 mov	 edx, DWORD PTR _d7$[ebp]
  000ac	89 94 88 00 00
	00 00		 mov	 DWORD PTR ?play_use_task@@3PAY07HA[eax+ecx*4], edx

; 2066 : 
; 2067 : 	voice[ d7 ].name = VOICE_KEY_ON;			//G????

  000b3	6b 45 f8 3c	 imul	 eax, DWORD PTR _d7$[ebp], 60
  000b7	c7 80 00 00 00
	00 01 00 00 00	 mov	 DWORD PTR ?voice@@3PAUVOICE_EQU@@A[eax], 1

; 2068 : 
; 2069 : 	if(voice[ d7 ].tone_no == tone)		//i??瑙k??

  000c1	6b 45 f8 3c	 imul	 eax, DWORD PTR _d7$[ebp], 60
  000c5	8b 88 04 00 00
	00		 mov	 ecx, DWORD PTR ?voice@@3PAUVOICE_EQU@@A[eax+4]
  000cb	3b 4d 08	 cmp	 ecx, DWORD PTR _tone$[ebp]
  000ce	75 0a		 jne	 SHORT $LN7@set_tone

; 2070 : 		goto set_tone_500;				//??????

  000d0	e9 a3 00 00 00	 jmp	 $set_tone_500$12
  000d5	e9 9e 00 00 00	 jmp	 $set_tone_500$12
$LN7@set_tone:

; 2071 : 
; 2072 : 	voice[ d7 ].tone_no = tone;		//?瑙k?颌V

  000da	6b 45 f8 3c	 imul	 eax, DWORD PTR _d7$[ebp], 60
  000de	8b 4d 08	 mov	 ecx, DWORD PTR _tone$[ebp]
  000e1	89 88 04 00 00
	00		 mov	 DWORD PTR ?voice@@3PAUVOICE_EQU@@A[eax+4], ecx

; 2073 : 
; 2074 : 	RELEASE(pDSData[d7]);

  000e7	8b 45 f8	 mov	 eax, DWORD PTR _d7$[ebp]
  000ea	83 3c 85 00 00
	00 00 00	 cmp	 DWORD PTR ?pDSData@@3PAPAUIDirectSoundBuffer@@A[eax*4], 0
  000f2	74 33		 je	 SHORT $LN9@set_tone
  000f4	8b 45 f8	 mov	 eax, DWORD PTR _d7$[ebp]
  000f7	8b 0c 85 00 00
	00 00		 mov	 ecx, DWORD PTR ?pDSData@@3PAPAUIDirectSoundBuffer@@A[eax*4]
  000fe	8b 55 f8	 mov	 edx, DWORD PTR _d7$[ebp]
  00101	8b 04 95 00 00
	00 00		 mov	 eax, DWORD PTR ?pDSData@@3PAPAUIDirectSoundBuffer@@A[edx*4]
  00108	8b 09		 mov	 ecx, DWORD PTR [ecx]
  0010a	8b f4		 mov	 esi, esp
  0010c	50		 push	 eax
  0010d	8b 51 08	 mov	 edx, DWORD PTR [ecx+8]
  00110	ff d2		 call	 edx
  00112	3b f4		 cmp	 esi, esp
  00114	e8 00 00 00 00	 call	 __RTC_CheckEsp
  00119	8b 45 f8	 mov	 eax, DWORD PTR _d7$[ebp]
  0011c	c7 04 85 00 00
	00 00 00 00 00
	00		 mov	 DWORD PTR ?pDSData@@3PAPAUIDirectSoundBuffer@@A[eax*4], 0
$LN9@set_tone:

; 2075 : 
; 2076 : 	if( pDSound->DuplicateSoundBuffer(pDSData_tone[tone],&pDSData[d7]) != DS_OK ){		//????

  00127	8b 45 f8	 mov	 eax, DWORD PTR _d7$[ebp]
  0012a	8d 0c 85 00 00
	00 00		 lea	 ecx, DWORD PTR ?pDSData@@3PAPAUIDirectSoundBuffer@@A[eax*4]
  00131	8b f4		 mov	 esi, esp
  00133	51		 push	 ecx
  00134	8b 55 08	 mov	 edx, DWORD PTR _tone$[ebp]
  00137	8b 04 95 00 00
	00 00		 mov	 eax, DWORD PTR ?pDSData_tone@@3PAPAUIDirectSoundBuffer@@A[edx*4]
  0013e	50		 push	 eax
  0013f	8b 0d 00 00 00
	00		 mov	 ecx, DWORD PTR ?pDSound@@3PAUIDirectSound@@A ; pDSound
  00145	8b 11		 mov	 edx, DWORD PTR [ecx]
  00147	a1 00 00 00 00	 mov	 eax, DWORD PTR ?pDSound@@3PAUIDirectSound@@A ; pDSound
  0014c	50		 push	 eax
  0014d	8b 4a 14	 mov	 ecx, DWORD PTR [edx+20]
  00150	ff d1		 call	 ecx
  00152	3b f4		 cmp	 esi, esp
  00154	e8 00 00 00 00	 call	 __RTC_CheckEsp
  00159	85 c0		 test	 eax, eax
  0015b	74 1b		 je	 SHORT $set_tone_500$12

; 2077 : #ifdef  _STONDEBUG_
; 2078 : 		MessageBox(hWnd, "复制声音buffer失败！", "Error", MB_OK);
; 2079 : #endif
; 2080 : 		play_use_task[ch][use_task_cnt]=-1;		//??????

  0015d	a1 00 00 00 00	 mov	 eax, DWORD PTR ?ch@@3HA
  00162	c1 e0 05	 shl	 eax, 5
  00165	8b 4d 10	 mov	 ecx, DWORD PTR _use_task_cnt$[ebp]
  00168	c7 84 88 00 00
	00 00 ff ff ff
	ff		 mov	 DWORD PTR ?play_use_task@@3PAY07HA[eax+ecx*4], -1

; 2081 : 		return -1;

  00173	83 c8 ff	 or	 eax, -1
  00176	eb 18		 jmp	 SHORT $LN1@set_tone
$set_tone_500$12:

; 2082 : 	}
; 2083 : 
; 2084 : set_tone_500:
; 2085 : 	set_voice_param( d7, note, delay, 1 );		//???????????

  00178	6a 01		 push	 1
  0017a	8b 45 14	 mov	 eax, DWORD PTR _delay$[ebp]
  0017d	50		 push	 eax
  0017e	8b 4d 0c	 mov	 ecx, DWORD PTR _note$[ebp]
  00181	51		 push	 ecx
  00182	8b 55 f8	 mov	 edx, DWORD PTR _d7$[ebp]
  00185	52		 push	 edx
  00186	e8 00 00 00 00	 call	 ?set_voice_param@@YAXHJHH@Z ; set_voice_param
  0018b	83 c4 10	 add	 esp, 16			; 00000010H

; 2086 : 
; 2087 : 	return 0;

  0018e	33 c0		 xor	 eax, eax
$LN1@set_tone:

; 2088 : }

  00190	5f		 pop	 edi
  00191	5e		 pop	 esi
  00192	5b		 pop	 ebx
  00193	81 c4 d8 00 00
	00		 add	 esp, 216		; 000000d8H
  00199	3b ec		 cmp	 ebp, esp
  0019b	e8 00 00 00 00	 call	 __RTC_CheckEsp
  001a0	8b e5		 mov	 esp, ebp
  001a2	5d		 pop	 ebp
  001a3	c3		 ret	 0
?set_tone@@YAHHJHH@Z ENDP				; set_tone
_TEXT	ENDS
; Function compile flags: /Odtp /RTCsu /ZI
; File c:\users\administrator\desktop\????? ??\????? ??\client source code\system\t_music.cpp
;	COMDAT ?set_voice_param@@YAXHJHH@Z
_TEXT	SEGMENT
_task_no$ = 8						; size = 4
_note$ = 12						; size = 4
_delay$ = 16						; size = 4
_lfo_flg$ = 20						; size = 4
?set_voice_param@@YAXHJHH@Z PROC			; set_voice_param, COMDAT

; 2006 : {

  00000	55		 push	 ebp
  00001	8b ec		 mov	 ebp, esp
  00003	81 ec c0 00 00
	00		 sub	 esp, 192		; 000000c0H
  00009	53		 push	 ebx
  0000a	56		 push	 esi
  0000b	57		 push	 edi
  0000c	8d bd 40 ff ff
	ff		 lea	 edi, DWORD PTR [ebp-192]
  00012	b9 30 00 00 00	 mov	 ecx, 48			; 00000030H
  00017	b8 cc cc cc cc	 mov	 eax, -858993460		; ccccccccH
  0001c	f3 ab		 rep stosd

; 2007 : 	voice[ task_no ].volume = dataVolume[ch];			// ????????

  0001e	6b 45 08 3c	 imul	 eax, DWORD PTR _task_no$[ebp], 60
  00022	8b 0d 00 00 00
	00		 mov	 ecx, DWORD PTR ?ch@@3HA
  00028	8b 14 8d 00 00
	00 00		 mov	 edx, DWORD PTR ?dataVolume@@3PAHA[ecx*4]
  0002f	89 90 08 00 00
	00		 mov	 DWORD PTR ?voice@@3PAUVOICE_EQU@@A[eax+8], edx

; 2008 : //	voice[ task_no ].freq = freq + dataFrequency[ch];	// ????
; 2009 : 	// ????
; 2010 : 	if(play_detune[ch]>0){		//???????????

  00035	a1 00 00 00 00	 mov	 eax, DWORD PTR ?ch@@3HA
  0003a	83 3c 85 00 00
	00 00 00	 cmp	 DWORD PTR ?play_detune@@3PAHA[eax*4], 0
  00042	7e 46		 jle	 SHORT $LN2@set_voice_

; 2011 : 		voice[ task_no ].freq = freq_tbl[ note ] + detune_tbl[ note ]*play_detune[ch]/64 + dataFrequency[ch];

  00044	8b 45 0c	 mov	 eax, DWORD PTR _note$[ebp]
  00047	8b 0d 00 00 00
	00		 mov	 ecx, DWORD PTR ?ch@@3HA
  0004d	8b 04 85 00 00
	00 00		 mov	 eax, DWORD PTR ?detune_tbl@@3PAHA[eax*4]
  00054	0f af 04 8d 00
	00 00 00	 imul	 eax, DWORD PTR ?play_detune@@3PAHA[ecx*4]
  0005c	99		 cdq
  0005d	83 e2 3f	 and	 edx, 63			; 0000003fH
  00060	03 c2		 add	 eax, edx
  00062	c1 f8 06	 sar	 eax, 6
  00065	8b 55 0c	 mov	 edx, DWORD PTR _note$[ebp]
  00068	8b 0c 95 00 00
	00 00		 mov	 ecx, DWORD PTR ?freq_tbl@@3PAHA[edx*4]
  0006f	03 c8		 add	 ecx, eax
  00071	8b 15 00 00 00
	00		 mov	 edx, DWORD PTR ?ch@@3HA
  00077	03 0c 95 00 00
	00 00		 add	 ecx, DWORD PTR ?dataFrequency@@3PAJA[edx*4]
  0007e	6b 45 08 3c	 imul	 eax, DWORD PTR _task_no$[ebp], 60
  00082	89 88 38 00 00
	00		 mov	 DWORD PTR ?voice@@3PAUVOICE_EQU@@A[eax+56], ecx
  00088	eb 76		 jmp	 SHORT $LN3@set_voice_
$LN2@set_voice_:

; 2012 : 	} else if(play_detune[ch]<0){		//????????????

  0008a	a1 00 00 00 00	 mov	 eax, DWORD PTR ?ch@@3HA
  0008f	83 3c 85 00 00
	00 00 00	 cmp	 DWORD PTR ?play_detune@@3PAHA[eax*4], 0
  00097	7d 46		 jge	 SHORT $LN4@set_voice_

; 2013 : 		voice[ task_no ].freq = freq_tbl[ note ] + detune_tbl[ note-1 ]*play_detune[ch]/64 + dataFrequency[ch];

  00099	8b 45 0c	 mov	 eax, DWORD PTR _note$[ebp]
  0009c	8b 0d 00 00 00
	00		 mov	 ecx, DWORD PTR ?ch@@3HA
  000a2	8b 04 85 fc ff
	ff ff		 mov	 eax, DWORD PTR ?detune_tbl@@3PAHA[eax*4-4]
  000a9	0f af 04 8d 00
	00 00 00	 imul	 eax, DWORD PTR ?play_detune@@3PAHA[ecx*4]
  000b1	99		 cdq
  000b2	83 e2 3f	 and	 edx, 63			; 0000003fH
  000b5	03 c2		 add	 eax, edx
  000b7	c1 f8 06	 sar	 eax, 6
  000ba	8b 55 0c	 mov	 edx, DWORD PTR _note$[ebp]
  000bd	8b 0c 95 00 00
	00 00		 mov	 ecx, DWORD PTR ?freq_tbl@@3PAHA[edx*4]
  000c4	03 c8		 add	 ecx, eax
  000c6	8b 15 00 00 00
	00		 mov	 edx, DWORD PTR ?ch@@3HA
  000cc	03 0c 95 00 00
	00 00		 add	 ecx, DWORD PTR ?dataFrequency@@3PAJA[edx*4]
  000d3	6b 45 08 3c	 imul	 eax, DWORD PTR _task_no$[ebp], 60
  000d7	89 88 38 00 00
	00		 mov	 DWORD PTR ?voice@@3PAUVOICE_EQU@@A[eax+56], ecx

; 2014 : 	} else {					//?????e?????

  000dd	eb 21		 jmp	 SHORT $LN3@set_voice_
$LN4@set_voice_:

; 2015 : 		voice[ task_no ].freq = freq_tbl[ note ] + dataFrequency[ch];

  000df	8b 45 0c	 mov	 eax, DWORD PTR _note$[ebp]
  000e2	8b 0c 85 00 00
	00 00		 mov	 ecx, DWORD PTR ?freq_tbl@@3PAHA[eax*4]
  000e9	8b 15 00 00 00
	00		 mov	 edx, DWORD PTR ?ch@@3HA
  000ef	03 0c 95 00 00
	00 00		 add	 ecx, DWORD PTR ?dataFrequency@@3PAJA[edx*4]
  000f6	6b 45 08 3c	 imul	 eax, DWORD PTR _task_no$[ebp], 60
  000fa	89 88 38 00 00
	00		 mov	 DWORD PTR ?voice@@3PAUVOICE_EQU@@A[eax+56], ecx
$LN3@set_voice_:

; 2016 : 	}
; 2017 : 	voice[ task_no ].note_no = note;				// ???k????

  00100	6b 45 08 3c	 imul	 eax, DWORD PTR _task_no$[ebp], 60
  00104	8b 4d 0c	 mov	 ecx, DWORD PTR _note$[ebp]
  00107	89 88 0c 00 00
	00		 mov	 DWORD PTR ?voice@@3PAUVOICE_EQU@@A[eax+12], ecx

; 2018 : 	voice[ task_no ].pan = dataPan[ch];				// ????????

  0010d	6b 45 08 3c	 imul	 eax, DWORD PTR _task_no$[ebp], 60
  00111	8b 0d 00 00 00
	00		 mov	 ecx, DWORD PTR ?ch@@3HA
  00117	8b 14 8d 00 00
	00 00		 mov	 edx, DWORD PTR ?dataPan@@3PAHA[ecx*4]
  0011e	89 90 2c 00 00
	00		 mov	 DWORD PTR ?voice@@3PAUVOICE_EQU@@A[eax+44], edx

; 2019 : 	voice[ task_no ].release_spd = wave[ch];		// ?????????

  00124	6b 45 08 3c	 imul	 eax, DWORD PTR _task_no$[ebp], 60
  00128	8b 0d 00 00 00
	00		 mov	 ecx, DWORD PTR ?ch@@3HA
  0012e	8b 14 8d 00 00
	00 00		 mov	 edx, DWORD PTR ?wave@@3PAHA[ecx*4]
  00135	89 90 14 00 00
	00		 mov	 DWORD PTR ?voice@@3PAUVOICE_EQU@@A[eax+20], edx

; 2020 : 	voice[ task_no ].release_cnt = 0;				//

  0013b	6b 45 08 3c	 imul	 eax, DWORD PTR _task_no$[ebp], 60
  0013f	c7 80 10 00 00
	00 00 00 00 00	 mov	 DWORD PTR ?voice@@3PAUVOICE_EQU@@A[eax+16], 0

; 2021 : 	if(voice[ task_no ].tone_no == 12-1){				//??????

  00149	6b 45 08 3c	 imul	 eax, DWORD PTR _task_no$[ebp], 60
  0014d	83 b8 04 00 00
	00 0b		 cmp	 DWORD PTR ?voice@@3PAUVOICE_EQU@@A[eax+4], 11 ; 0000000bH
  00154	75 10		 jne	 SHORT $LN6@set_voice_

; 2022 : 		voice[ task_no ].loop_flg = DSBPLAY_LOOPING;	//

  00156	6b 45 08 3c	 imul	 eax, DWORD PTR _task_no$[ebp], 60
  0015a	c7 80 30 00 00
	00 01 00 00 00	 mov	 DWORD PTR ?voice@@3PAUVOICE_EQU@@A[eax+48], 1

; 2023 : 	} else {

  00164	eb 0e		 jmp	 SHORT $LN7@set_voice_
$LN6@set_voice_:

; 2024 : 		voice[ task_no ].loop_flg = 0;					//

  00166	6b 45 08 3c	 imul	 eax, DWORD PTR _task_no$[ebp], 60
  0016a	c7 80 30 00 00
	00 00 00 00 00	 mov	 DWORD PTR ?voice@@3PAUVOICE_EQU@@A[eax+48], 0
$LN7@set_voice_:

; 2025 : 	}
; 2026 : 	if(delay >= 0){								//?????????????

  00174	83 7d 10 00	 cmp	 DWORD PTR _delay$[ebp], 0
  00178	7c 0d		 jl	 SHORT $LN8@set_voice_

; 2027 : 		voice[ task_no ].delay_cnt = delay;		//

  0017a	6b 45 08 3c	 imul	 eax, DWORD PTR _task_no$[ebp], 60
  0017e	8b 4d 10	 mov	 ecx, DWORD PTR _delay$[ebp]
  00181	89 88 34 00 00
	00		 mov	 DWORD PTR ?voice@@3PAUVOICE_EQU@@A[eax+52], ecx
$LN8@set_voice_:

; 2028 : 	}
; 2029 : 	if(lfo_flg){		//??????????

  00187	83 7d 14 00	 cmp	 DWORD PTR _lfo_flg$[ebp], 0
  0018b	74 7e		 je	 SHORT $LN1@set_voice_

; 2030 : 		voice[ task_no ].lfo_h = play_lfo_h[ ch ];					//??????

  0018d	6b 45 08 3c	 imul	 eax, DWORD PTR _task_no$[ebp], 60
  00191	8b 0d 00 00 00
	00		 mov	 ecx, DWORD PTR ?ch@@3HA
  00197	8b 14 8d 00 00
	00 00		 mov	 edx, DWORD PTR ?play_lfo_h@@3PAHA[ecx*4]
  0019e	89 90 18 00 00
	00		 mov	 DWORD PTR ?voice@@3PAUVOICE_EQU@@A[eax+24], edx

; 2031 : 		voice[ task_no ].lfo_m = play_lfo_m[ ch ];					//

  001a4	6b 45 08 3c	 imul	 eax, DWORD PTR _task_no$[ebp], 60
  001a8	8b 0d 00 00 00
	00		 mov	 ecx, DWORD PTR ?ch@@3HA
  001ae	8b 14 8d 00 00
	00 00		 mov	 edx, DWORD PTR ?play_lfo_m@@3PAHA[ecx*4]
  001b5	89 90 1c 00 00
	00		 mov	 DWORD PTR ?voice@@3PAUVOICE_EQU@@A[eax+28], edx

; 2032 : 		if((voice[ task_no ].lfo_s = play_lfo_s[ ch ]) >= 0){		//

  001bb	6b 45 08 3c	 imul	 eax, DWORD PTR _task_no$[ebp], 60
  001bf	8b 0d 00 00 00
	00		 mov	 ecx, DWORD PTR ?ch@@3HA
  001c5	8b 14 8d 00 00
	00 00		 mov	 edx, DWORD PTR ?play_lfo_s@@3PAHA[ecx*4]
  001cc	89 90 20 00 00
	00		 mov	 DWORD PTR ?voice@@3PAUVOICE_EQU@@A[eax+32], edx
  001d2	6b 45 08 3c	 imul	 eax, DWORD PTR _task_no$[ebp], 60
  001d6	83 b8 20 00 00
	00 00		 cmp	 DWORD PTR ?voice@@3PAUVOICE_EQU@@A[eax+32], 0
  001dd	7c 10		 jl	 SHORT $LN10@set_voice_

; 2033 : 			voice[ task_no ].lfo_s_ang = 1;							//

  001df	6b 45 08 3c	 imul	 eax, DWORD PTR _task_no$[ebp], 60
  001e3	c7 80 28 00 00
	00 01 00 00 00	 mov	 DWORD PTR ?voice@@3PAUVOICE_EQU@@A[eax+40], 1

; 2034 : 		} else {

  001ed	eb 0e		 jmp	 SHORT $LN11@set_voice_
$LN10@set_voice_:

; 2035 : 			voice[ task_no ].lfo_s_ang = -1;						//

  001ef	6b 45 08 3c	 imul	 eax, DWORD PTR _task_no$[ebp], 60
  001f3	c7 80 28 00 00
	00 ff ff ff ff	 mov	 DWORD PTR ?voice@@3PAUVOICE_EQU@@A[eax+40], -1
$LN11@set_voice_:

; 2036 : 		}
; 2037 : 		voice[ task_no ].lfo_s_cnt = 0;								//

  001fd	6b 45 08 3c	 imul	 eax, DWORD PTR _task_no$[ebp], 60
  00201	c7 80 24 00 00
	00 00 00 00 00	 mov	 DWORD PTR ?voice@@3PAUVOICE_EQU@@A[eax+36], 0
$LN1@set_voice_:

; 2038 : 	}
; 2039 : }

  0020b	5f		 pop	 edi
  0020c	5e		 pop	 esi
  0020d	5b		 pop	 ebx
  0020e	8b e5		 mov	 esp, ebp
  00210	5d		 pop	 ebp
  00211	c3		 ret	 0
?set_voice_param@@YAXHJHH@Z ENDP			; set_voice_param
_TEXT	ENDS
; Function compile flags: /Odtp /RTCsu /ZI
; File c:\users\administrator\desktop\????? ??\????? ??\client source code\system\t_music.cpp
;	COMDAT ?voice_action@@YAXH@Z
_TEXT	SEGMENT
tv67 = -208						; size = 4
_Status$ = -8						; size = 4
_a0$ = 8						; size = 4
?voice_action@@YAXH@Z PROC				; voice_action, COMDAT

; 1945 : {

  00000	55		 push	 ebp
  00001	8b ec		 mov	 ebp, esp
  00003	81 ec d0 00 00
	00		 sub	 esp, 208		; 000000d0H
  00009	53		 push	 ebx
  0000a	56		 push	 esi
  0000b	57		 push	 edi
  0000c	8d bd 30 ff ff
	ff		 lea	 edi, DWORD PTR [ebp-208]
  00012	b9 34 00 00 00	 mov	 ecx, 52			; 00000034H
  00017	b8 cc cc cc cc	 mov	 eax, -858993460		; ccccccccH
  0001c	f3 ab		 rep stosd

; 1946 : 	DWORD	Status = 0;

  0001e	c7 45 f8 00 00
	00 00		 mov	 DWORD PTR _Status$[ebp], 0

; 1947 : 
; 1948 : 	switch(voice[ a0 ].name){

  00025	6b 45 08 3c	 imul	 eax, DWORD PTR _a0$[ebp], 60
  00029	8b 88 00 00 00
	00		 mov	 ecx, DWORD PTR ?voice@@3PAUVOICE_EQU@@A[eax]
  0002f	89 8d 30 ff ff
	ff		 mov	 DWORD PTR tv67[ebp], ecx
  00035	8b 95 30 ff ff
	ff		 mov	 edx, DWORD PTR tv67[ebp]
  0003b	83 ea 01	 sub	 edx, 1
  0003e	89 95 30 ff ff
	ff		 mov	 DWORD PTR tv67[ebp], edx
  00044	83 bd 30 ff ff
	ff 6d		 cmp	 DWORD PTR tv67[ebp], 109 ; 0000006dH
  0004b	0f 87 62 03 00
	00		 ja	 $LN1@voice_acti
  00051	8b 85 30 ff ff
	ff		 mov	 eax, DWORD PTR tv67[ebp]
  00057	0f b6 88 00 00
	00 00		 movzx	 ecx, BYTE PTR $LN13@voice_acti[eax]
  0005e	ff 24 8d 00 00
	00 00		 jmp	 DWORD PTR $LN14@voice_acti[ecx*4]
$LN4@voice_acti:

; 1949 : 	case VOICE_KEY_ON:		//G????
; 1950 : 		if(voice[ a0 ].delay_cnt){		//?????????

  00065	6b 45 08 3c	 imul	 eax, DWORD PTR _a0$[ebp], 60
  00069	83 b8 34 00 00
	00 00		 cmp	 DWORD PTR ?voice@@3PAUVOICE_EQU@@A[eax+52], 0
  00070	74 1c		 je	 SHORT $LN5@voice_acti

; 1951 : 			voice[ a0 ].delay_cnt--;

  00072	6b 45 08 3c	 imul	 eax, DWORD PTR _a0$[ebp], 60
  00076	8b 88 34 00 00
	00		 mov	 ecx, DWORD PTR ?voice@@3PAUVOICE_EQU@@A[eax+52]
  0007c	83 e9 01	 sub	 ecx, 1
  0007f	6b 55 08 3c	 imul	 edx, DWORD PTR _a0$[ebp], 60
  00083	89 8a 34 00 00
	00		 mov	 DWORD PTR ?voice@@3PAUVOICE_EQU@@A[edx+52], ecx

; 1952 : 			return;

  00089	e9 25 03 00 00	 jmp	 $LN1@voice_acti
$LN5@voice_acti:

; 1953 : 		}
; 1954 : 		pDSData[ a0 ]->SetVolume(volume_tbl[ voice[ a0 ].volume ]);		// ????????

  0008e	6b 45 08 3c	 imul	 eax, DWORD PTR _a0$[ebp], 60
  00092	8b 88 08 00 00
	00		 mov	 ecx, DWORD PTR ?voice@@3PAUVOICE_EQU@@A[eax+8]
  00098	8b f4		 mov	 esi, esp
  0009a	8b 14 8d 00 00
	00 00		 mov	 edx, DWORD PTR ?volume_tbl@@3PAJA[ecx*4]
  000a1	52		 push	 edx
  000a2	8b 45 08	 mov	 eax, DWORD PTR _a0$[ebp]
  000a5	8b 0c 85 00 00
	00 00		 mov	 ecx, DWORD PTR ?pDSData@@3PAPAUIDirectSoundBuffer@@A[eax*4]
  000ac	8b 55 08	 mov	 edx, DWORD PTR _a0$[ebp]
  000af	8b 04 95 00 00
	00 00		 mov	 eax, DWORD PTR ?pDSData@@3PAPAUIDirectSoundBuffer@@A[edx*4]
  000b6	8b 09		 mov	 ecx, DWORD PTR [ecx]
  000b8	50		 push	 eax
  000b9	8b 51 3c	 mov	 edx, DWORD PTR [ecx+60]
  000bc	ff d2		 call	 edx
  000be	3b f4		 cmp	 esi, esp
  000c0	e8 00 00 00 00	 call	 __RTC_CheckEsp

; 1955 : 		pDSData[ a0 ]->SetFrequency((DWORD)voice[ a0 ].freq);			// ????

  000c5	6b 45 08 3c	 imul	 eax, DWORD PTR _a0$[ebp], 60
  000c9	8b f4		 mov	 esi, esp
  000cb	8b 88 38 00 00
	00		 mov	 ecx, DWORD PTR ?voice@@3PAUVOICE_EQU@@A[eax+56]
  000d1	51		 push	 ecx
  000d2	8b 55 08	 mov	 edx, DWORD PTR _a0$[ebp]
  000d5	8b 04 95 00 00
	00 00		 mov	 eax, DWORD PTR ?pDSData@@3PAPAUIDirectSoundBuffer@@A[edx*4]
  000dc	8b 4d 08	 mov	 ecx, DWORD PTR _a0$[ebp]
  000df	8b 14 8d 00 00
	00 00		 mov	 edx, DWORD PTR ?pDSData@@3PAPAUIDirectSoundBuffer@@A[ecx*4]
  000e6	8b 00		 mov	 eax, DWORD PTR [eax]
  000e8	52		 push	 edx
  000e9	8b 48 44	 mov	 ecx, DWORD PTR [eax+68]
  000ec	ff d1		 call	 ecx
  000ee	3b f4		 cmp	 esi, esp
  000f0	e8 00 00 00 00	 call	 __RTC_CheckEsp

; 1956 : 		pDSData[ a0 ]->SetPan(panpot_tbl[ voice[ a0 ].pan ]);			// ????????

  000f5	6b 45 08 3c	 imul	 eax, DWORD PTR _a0$[ebp], 60
  000f9	8b 88 2c 00 00
	00		 mov	 ecx, DWORD PTR ?voice@@3PAUVOICE_EQU@@A[eax+44]
  000ff	8b f4		 mov	 esi, esp
  00101	8b 14 8d 00 00
	00 00		 mov	 edx, DWORD PTR ?panpot_tbl@@3PAJA[ecx*4]
  00108	52		 push	 edx
  00109	8b 45 08	 mov	 eax, DWORD PTR _a0$[ebp]
  0010c	8b 0c 85 00 00
	00 00		 mov	 ecx, DWORD PTR ?pDSData@@3PAPAUIDirectSoundBuffer@@A[eax*4]
  00113	8b 55 08	 mov	 edx, DWORD PTR _a0$[ebp]
  00116	8b 04 95 00 00
	00 00		 mov	 eax, DWORD PTR ?pDSData@@3PAPAUIDirectSoundBuffer@@A[edx*4]
  0011d	8b 09		 mov	 ecx, DWORD PTR [ecx]
  0011f	50		 push	 eax
  00120	8b 51 40	 mov	 edx, DWORD PTR [ecx+64]
  00123	ff d2		 call	 edx
  00125	3b f4		 cmp	 esi, esp
  00127	e8 00 00 00 00	 call	 __RTC_CheckEsp

; 1957 : 		pDSData[ a0 ]->Play(0, 0, voice[ a0 ].loop_flg);				//????

  0012c	6b 45 08 3c	 imul	 eax, DWORD PTR _a0$[ebp], 60
  00130	8b f4		 mov	 esi, esp
  00132	8b 88 30 00 00
	00		 mov	 ecx, DWORD PTR ?voice@@3PAUVOICE_EQU@@A[eax+48]
  00138	51		 push	 ecx
  00139	6a 00		 push	 0
  0013b	6a 00		 push	 0
  0013d	8b 55 08	 mov	 edx, DWORD PTR _a0$[ebp]
  00140	8b 04 95 00 00
	00 00		 mov	 eax, DWORD PTR ?pDSData@@3PAPAUIDirectSoundBuffer@@A[edx*4]
  00147	8b 4d 08	 mov	 ecx, DWORD PTR _a0$[ebp]
  0014a	8b 14 8d 00 00
	00 00		 mov	 edx, DWORD PTR ?pDSData@@3PAPAUIDirectSoundBuffer@@A[ecx*4]
  00151	8b 00		 mov	 eax, DWORD PTR [eax]
  00153	52		 push	 edx
  00154	8b 48 30	 mov	 ecx, DWORD PTR [eax+48]
  00157	ff d1		 call	 ecx
  00159	3b f4		 cmp	 esi, esp
  0015b	e8 00 00 00 00	 call	 __RTC_CheckEsp

; 1958 : 		voice[ a0 ].name = VOICE_NORMAL;

  00160	6b 45 08 3c	 imul	 eax, DWORD PTR _a0$[ebp], 60
  00164	c7 80 00 00 00
	00 02 00 00 00	 mov	 DWORD PTR ?voice@@3PAUVOICE_EQU@@A[eax], 2

; 1959 : 		voice_lfo( a0 );		//??????

  0016e	8b 45 08	 mov	 eax, DWORD PTR _a0$[ebp]
  00171	50		 push	 eax
  00172	e8 00 00 00 00	 call	 ?voice_lfo@@YAXH@Z	; voice_lfo
  00177	83 c4 04	 add	 esp, 4

; 1960 : 		break;

  0017a	e9 34 02 00 00	 jmp	 $LN1@voice_acti
$LN6@voice_acti:

; 1961 : 	case VOICE_NORMAL:		//G?????
; 1962 : 		voice_lfo( a0 );		//??????

  0017f	8b 45 08	 mov	 eax, DWORD PTR _a0$[ebp]
  00182	50		 push	 eax
  00183	e8 00 00 00 00	 call	 ?voice_lfo@@YAXH@Z	; voice_lfo
  00188	83 c4 04	 add	 esp, 4

; 1963 : 		break;

  0018b	e9 23 02 00 00	 jmp	 $LN1@voice_acti
$LN7@voice_acti:

; 1964 : 	case VOICE_TIE_SET:		//???????
; 1965 : 		pDSData[ a0 ]->SetVolume(volume_tbl[ voice[ a0 ].volume ]);		// ????????

  00190	6b 45 08 3c	 imul	 eax, DWORD PTR _a0$[ebp], 60
  00194	8b 88 08 00 00
	00		 mov	 ecx, DWORD PTR ?voice@@3PAUVOICE_EQU@@A[eax+8]
  0019a	8b f4		 mov	 esi, esp
  0019c	8b 14 8d 00 00
	00 00		 mov	 edx, DWORD PTR ?volume_tbl@@3PAJA[ecx*4]
  001a3	52		 push	 edx
  001a4	8b 45 08	 mov	 eax, DWORD PTR _a0$[ebp]
  001a7	8b 0c 85 00 00
	00 00		 mov	 ecx, DWORD PTR ?pDSData@@3PAPAUIDirectSoundBuffer@@A[eax*4]
  001ae	8b 55 08	 mov	 edx, DWORD PTR _a0$[ebp]
  001b1	8b 04 95 00 00
	00 00		 mov	 eax, DWORD PTR ?pDSData@@3PAPAUIDirectSoundBuffer@@A[edx*4]
  001b8	8b 09		 mov	 ecx, DWORD PTR [ecx]
  001ba	50		 push	 eax
  001bb	8b 51 3c	 mov	 edx, DWORD PTR [ecx+60]
  001be	ff d2		 call	 edx
  001c0	3b f4		 cmp	 esi, esp
  001c2	e8 00 00 00 00	 call	 __RTC_CheckEsp

; 1966 : 		pDSData[ a0 ]->SetFrequency((DWORD)voice[ a0 ].freq);		// ????

  001c7	6b 45 08 3c	 imul	 eax, DWORD PTR _a0$[ebp], 60
  001cb	8b f4		 mov	 esi, esp
  001cd	8b 88 38 00 00
	00		 mov	 ecx, DWORD PTR ?voice@@3PAUVOICE_EQU@@A[eax+56]
  001d3	51		 push	 ecx
  001d4	8b 55 08	 mov	 edx, DWORD PTR _a0$[ebp]
  001d7	8b 04 95 00 00
	00 00		 mov	 eax, DWORD PTR ?pDSData@@3PAPAUIDirectSoundBuffer@@A[edx*4]
  001de	8b 4d 08	 mov	 ecx, DWORD PTR _a0$[ebp]
  001e1	8b 14 8d 00 00
	00 00		 mov	 edx, DWORD PTR ?pDSData@@3PAPAUIDirectSoundBuffer@@A[ecx*4]
  001e8	8b 00		 mov	 eax, DWORD PTR [eax]
  001ea	52		 push	 edx
  001eb	8b 48 44	 mov	 ecx, DWORD PTR [eax+68]
  001ee	ff d1		 call	 ecx
  001f0	3b f4		 cmp	 esi, esp
  001f2	e8 00 00 00 00	 call	 __RTC_CheckEsp

; 1967 : 		pDSData[ a0 ]->SetPan(panpot_tbl[ voice[ a0 ].pan ]);			// ????????

  001f7	6b 45 08 3c	 imul	 eax, DWORD PTR _a0$[ebp], 60
  001fb	8b 88 2c 00 00
	00		 mov	 ecx, DWORD PTR ?voice@@3PAUVOICE_EQU@@A[eax+44]
  00201	8b f4		 mov	 esi, esp
  00203	8b 14 8d 00 00
	00 00		 mov	 edx, DWORD PTR ?panpot_tbl@@3PAJA[ecx*4]
  0020a	52		 push	 edx
  0020b	8b 45 08	 mov	 eax, DWORD PTR _a0$[ebp]
  0020e	8b 0c 85 00 00
	00 00		 mov	 ecx, DWORD PTR ?pDSData@@3PAPAUIDirectSoundBuffer@@A[eax*4]
  00215	8b 55 08	 mov	 edx, DWORD PTR _a0$[ebp]
  00218	8b 04 95 00 00
	00 00		 mov	 eax, DWORD PTR ?pDSData@@3PAPAUIDirectSoundBuffer@@A[edx*4]
  0021f	8b 09		 mov	 ecx, DWORD PTR [ecx]
  00221	50		 push	 eax
  00222	8b 51 40	 mov	 edx, DWORD PTR [ecx+64]
  00225	ff d2		 call	 edx
  00227	3b f4		 cmp	 esi, esp
  00229	e8 00 00 00 00	 call	 __RTC_CheckEsp

; 1968 : 		voice[ a0 ].name = VOICE_NORMAL;

  0022e	6b 45 08 3c	 imul	 eax, DWORD PTR _a0$[ebp], 60
  00232	c7 80 00 00 00
	00 02 00 00 00	 mov	 DWORD PTR ?voice@@3PAUVOICE_EQU@@A[eax], 2

; 1969 : 		break;

  0023c	e9 72 01 00 00	 jmp	 $LN1@voice_acti
$LN8@voice_acti:

; 1970 : 	case VOICE_KEY_OFF:		//G????
; 1971 : //		if( pDSData[ a0 ]->GetStatus( &Status ) == DS_OK ){
; 1972 : ///		pDSData[ a0 ]->GetStatus( &Status );		//??????????
; 1973 : ///		if( Status & DSBSTATUS_PLAYING || Status & DSBSTATUS_LOOPING ){		//????
; 1974 : 			if(voice[ a0 ].volume){		//??????????

  00241	6b 45 08 3c	 imul	 eax, DWORD PTR _a0$[ebp], 60
  00245	83 b8 08 00 00
	00 00		 cmp	 DWORD PTR ?voice@@3PAUVOICE_EQU@@A[eax+8], 0
  0024c	0f 84 ab 00 00
	00		 je	 $LN9@voice_acti

; 1975 : 				voice[ a0 ].release_cnt++;		//??????????

  00252	6b 45 08 3c	 imul	 eax, DWORD PTR _a0$[ebp], 60
  00256	8b 88 10 00 00
	00		 mov	 ecx, DWORD PTR ?voice@@3PAUVOICE_EQU@@A[eax+16]
  0025c	83 c1 01	 add	 ecx, 1
  0025f	6b 55 08 3c	 imul	 edx, DWORD PTR _a0$[ebp], 60
  00263	89 8a 10 00 00
	00		 mov	 DWORD PTR ?voice@@3PAUVOICE_EQU@@A[edx+16], ecx

; 1976 : 				if(voice[ a0 ].release_spd != voice[ a0 ].release_cnt){

  00269	6b 45 08 3c	 imul	 eax, DWORD PTR _a0$[ebp], 60
  0026d	6b 4d 08 3c	 imul	 ecx, DWORD PTR _a0$[ebp], 60
  00271	8b 90 14 00 00
	00		 mov	 edx, DWORD PTR ?voice@@3PAUVOICE_EQU@@A[eax+20]
  00277	3b 91 10 00 00
	00		 cmp	 edx, DWORD PTR ?voice@@3PAUVOICE_EQU@@A[ecx+16]
  0027d	74 11		 je	 SHORT $LN10@voice_acti

; 1977 : 					voice_lfo( a0 );		//??????

  0027f	8b 45 08	 mov	 eax, DWORD PTR _a0$[ebp]
  00282	50		 push	 eax
  00283	e8 00 00 00 00	 call	 ?voice_lfo@@YAXH@Z	; voice_lfo
  00288	83 c4 04	 add	 esp, 4

; 1978 : 					break;		//???????I??

  0028b	e9 23 01 00 00	 jmp	 $LN1@voice_acti
$LN10@voice_acti:

; 1979 : 				}
; 1980 : 				voice[ a0 ].release_cnt = 0;		//???????

  00290	6b 45 08 3c	 imul	 eax, DWORD PTR _a0$[ebp], 60
  00294	c7 80 10 00 00
	00 00 00 00 00	 mov	 DWORD PTR ?voice@@3PAUVOICE_EQU@@A[eax+16], 0

; 1981 : 				voice[ a0 ].volume--;		//????????

  0029e	6b 45 08 3c	 imul	 eax, DWORD PTR _a0$[ebp], 60
  002a2	8b 88 08 00 00
	00		 mov	 ecx, DWORD PTR ?voice@@3PAUVOICE_EQU@@A[eax+8]
  002a8	83 e9 01	 sub	 ecx, 1
  002ab	6b 55 08 3c	 imul	 edx, DWORD PTR _a0$[ebp], 60
  002af	89 8a 08 00 00
	00		 mov	 DWORD PTR ?voice@@3PAUVOICE_EQU@@A[edx+8], ecx

; 1982 : //				if(voice[ a0 ].volume < 0){		//??????????
; 1983 : //					voice[ a0 ].volume=0;		//?????????
; 1984 : //				}
; 1985 : 				pDSData[ a0 ]->SetVolume(volume_tbl[ voice[ a0 ].volume ]);		// ??????

  002b5	6b 45 08 3c	 imul	 eax, DWORD PTR _a0$[ebp], 60
  002b9	8b 88 08 00 00
	00		 mov	 ecx, DWORD PTR ?voice@@3PAUVOICE_EQU@@A[eax+8]
  002bf	8b f4		 mov	 esi, esp
  002c1	8b 14 8d 00 00
	00 00		 mov	 edx, DWORD PTR ?volume_tbl@@3PAJA[ecx*4]
  002c8	52		 push	 edx
  002c9	8b 45 08	 mov	 eax, DWORD PTR _a0$[ebp]
  002cc	8b 0c 85 00 00
	00 00		 mov	 ecx, DWORD PTR ?pDSData@@3PAPAUIDirectSoundBuffer@@A[eax*4]
  002d3	8b 55 08	 mov	 edx, DWORD PTR _a0$[ebp]
  002d6	8b 04 95 00 00
	00 00		 mov	 eax, DWORD PTR ?pDSData@@3PAPAUIDirectSoundBuffer@@A[edx*4]
  002dd	8b 09		 mov	 ecx, DWORD PTR [ecx]
  002df	50		 push	 eax
  002e0	8b 51 3c	 mov	 edx, DWORD PTR [ecx+60]
  002e3	ff d2		 call	 edx
  002e5	3b f4		 cmp	 esi, esp
  002e7	e8 00 00 00 00	 call	 __RTC_CheckEsp

; 1986 : 				voice_lfo( a0 );		//??????

  002ec	8b 45 08	 mov	 eax, DWORD PTR _a0$[ebp]
  002ef	50		 push	 eax
  002f0	e8 00 00 00 00	 call	 ?voice_lfo@@YAXH@Z	; voice_lfo
  002f5	83 c4 04	 add	 esp, 4

; 1987 : 				break;		//????I??

  002f8	e9 b6 00 00 00	 jmp	 $LN1@voice_acti
$LN9@voice_acti:

; 1988 : 			}
; 1989 : ///		}
; 1990 : 		pDSData[ a0 ]->Stop();							//????

  002fd	8b 45 08	 mov	 eax, DWORD PTR _a0$[ebp]
  00300	8b 0c 85 00 00
	00 00		 mov	 ecx, DWORD PTR ?pDSData@@3PAPAUIDirectSoundBuffer@@A[eax*4]
  00307	8b 55 08	 mov	 edx, DWORD PTR _a0$[ebp]
  0030a	8b 04 95 00 00
	00 00		 mov	 eax, DWORD PTR ?pDSData@@3PAPAUIDirectSoundBuffer@@A[edx*4]
  00311	8b 09		 mov	 ecx, DWORD PTR [ecx]
  00313	8b f4		 mov	 esi, esp
  00315	50		 push	 eax
  00316	8b 51 48	 mov	 edx, DWORD PTR [ecx+72]
  00319	ff d2		 call	 edx
  0031b	3b f4		 cmp	 esi, esp
  0031d	e8 00 00 00 00	 call	 __RTC_CheckEsp

; 1991 : 		pDSData[ a0 ]->SetCurrentPosition(0);			//

  00322	8b f4		 mov	 esi, esp
  00324	6a 00		 push	 0
  00326	8b 45 08	 mov	 eax, DWORD PTR _a0$[ebp]
  00329	8b 0c 85 00 00
	00 00		 mov	 ecx, DWORD PTR ?pDSData@@3PAPAUIDirectSoundBuffer@@A[eax*4]
  00330	8b 55 08	 mov	 edx, DWORD PTR _a0$[ebp]
  00333	8b 04 95 00 00
	00 00		 mov	 eax, DWORD PTR ?pDSData@@3PAPAUIDirectSoundBuffer@@A[edx*4]
  0033a	8b 09		 mov	 ecx, DWORD PTR [ecx]
  0033c	50		 push	 eax
  0033d	8b 51 34	 mov	 edx, DWORD PTR [ecx+52]
  00340	ff d2		 call	 edx
  00342	3b f4		 cmp	 esi, esp
  00344	e8 00 00 00 00	 call	 __RTC_CheckEsp

; 1992 : 		voice[ a0 ].name = VOICE_KEY_OFF_WAIT;			//?????r?

  00349	6b 45 08 3c	 imul	 eax, DWORD PTR _a0$[ebp], 60
  0034d	c7 80 00 00 00
	00 c8 00 00 00	 mov	 DWORD PTR ?voice@@3PAUVOICE_EQU@@A[eax], 200 ; 000000c8H

; 1993 : //		play_use_task[ voice[ a0 ].track_no	] = -1;		//
; 1994 : 		break;

  00357	eb 5a		 jmp	 SHORT $LN1@voice_acti
$LN11@voice_acti:

; 1995 : #if !VOICE_KILL_ON
; 1996 : 	case VOICE_KEY_OFF_FAST:		//L?????
; 1997 : 		pDSData[ a0 ]->Stop();					//????

  00359	8b 45 08	 mov	 eax, DWORD PTR _a0$[ebp]
  0035c	8b 0c 85 00 00
	00 00		 mov	 ecx, DWORD PTR ?pDSData@@3PAPAUIDirectSoundBuffer@@A[eax*4]
  00363	8b 55 08	 mov	 edx, DWORD PTR _a0$[ebp]
  00366	8b 04 95 00 00
	00 00		 mov	 eax, DWORD PTR ?pDSData@@3PAPAUIDirectSoundBuffer@@A[edx*4]
  0036d	8b 09		 mov	 ecx, DWORD PTR [ecx]
  0036f	8b f4		 mov	 esi, esp
  00371	50		 push	 eax
  00372	8b 51 48	 mov	 edx, DWORD PTR [ecx+72]
  00375	ff d2		 call	 edx
  00377	3b f4		 cmp	 esi, esp
  00379	e8 00 00 00 00	 call	 __RTC_CheckEsp

; 1998 : 		pDSData[ a0 ]->SetCurrentPosition(0);			//

  0037e	8b f4		 mov	 esi, esp
  00380	6a 00		 push	 0
  00382	8b 45 08	 mov	 eax, DWORD PTR _a0$[ebp]
  00385	8b 0c 85 00 00
	00 00		 mov	 ecx, DWORD PTR ?pDSData@@3PAPAUIDirectSoundBuffer@@A[eax*4]
  0038c	8b 55 08	 mov	 edx, DWORD PTR _a0$[ebp]
  0038f	8b 04 95 00 00
	00 00		 mov	 eax, DWORD PTR ?pDSData@@3PAPAUIDirectSoundBuffer@@A[edx*4]
  00396	8b 09		 mov	 ecx, DWORD PTR [ecx]
  00398	50		 push	 eax
  00399	8b 51 34	 mov	 edx, DWORD PTR [ecx+52]
  0039c	ff d2		 call	 edx
  0039e	3b f4		 cmp	 esi, esp
  003a0	e8 00 00 00 00	 call	 __RTC_CheckEsp

; 1999 : 		voice[ a0 ].name = 0;					//

  003a5	6b 45 08 3c	 imul	 eax, DWORD PTR _a0$[ebp], 60
  003a9	c7 80 00 00 00
	00 00 00 00 00	 mov	 DWORD PTR ?voice@@3PAUVOICE_EQU@@A[eax], 0
$LN1@voice_acti:

; 2000 : 		break;
; 2001 : #endif
; 2002 : 	}
; 2003 : }

  003b3	5f		 pop	 edi
  003b4	5e		 pop	 esi
  003b5	5b		 pop	 ebx
  003b6	81 c4 d0 00 00
	00		 add	 esp, 208		; 000000d0H
  003bc	3b ec		 cmp	 ebp, esp
  003be	e8 00 00 00 00	 call	 __RTC_CheckEsp
  003c3	8b e5		 mov	 esp, ebp
  003c5	5d		 pop	 ebp
  003c6	c3		 ret	 0
  003c7	90		 npad	 1
$LN14@voice_acti:
  003c8	00 00 00 00	 DD	 $LN4@voice_acti
  003cc	00 00 00 00	 DD	 $LN6@voice_acti
  003d0	00 00 00 00	 DD	 $LN7@voice_acti
  003d4	00 00 00 00	 DD	 $LN8@voice_acti
  003d8	00 00 00 00	 DD	 $LN11@voice_acti
  003dc	00 00 00 00	 DD	 $LN1@voice_acti
$LN13@voice_acti:
  003e0	00		 DB	 0
  003e1	01		 DB	 1
  003e2	05		 DB	 5
  003e3	05		 DB	 5
  003e4	05		 DB	 5
  003e5	05		 DB	 5
  003e6	05		 DB	 5
  003e7	05		 DB	 5
  003e8	05		 DB	 5
  003e9	02		 DB	 2
  003ea	05		 DB	 5
  003eb	05		 DB	 5
  003ec	05		 DB	 5
  003ed	05		 DB	 5
  003ee	05		 DB	 5
  003ef	05		 DB	 5
  003f0	05		 DB	 5
  003f1	05		 DB	 5
  003f2	05		 DB	 5
  003f3	05		 DB	 5
  003f4	05		 DB	 5
  003f5	05		 DB	 5
  003f6	05		 DB	 5
  003f7	05		 DB	 5
  003f8	05		 DB	 5
  003f9	05		 DB	 5
  003fa	05		 DB	 5
  003fb	05		 DB	 5
  003fc	05		 DB	 5
  003fd	05		 DB	 5
  003fe	05		 DB	 5
  003ff	05		 DB	 5
  00400	05		 DB	 5
  00401	05		 DB	 5
  00402	05		 DB	 5
  00403	05		 DB	 5
  00404	05		 DB	 5
  00405	05		 DB	 5
  00406	05		 DB	 5
  00407	05		 DB	 5
  00408	05		 DB	 5
  00409	05		 DB	 5
  0040a	05		 DB	 5
  0040b	05		 DB	 5
  0040c	05		 DB	 5
  0040d	05		 DB	 5
  0040e	05		 DB	 5
  0040f	05		 DB	 5
  00410	05		 DB	 5
  00411	05		 DB	 5
  00412	05		 DB	 5
  00413	05		 DB	 5
  00414	05		 DB	 5
  00415	05		 DB	 5
  00416	05		 DB	 5
  00417	05		 DB	 5
  00418	05		 DB	 5
  00419	05		 DB	 5
  0041a	05		 DB	 5
  0041b	05		 DB	 5
  0041c	05		 DB	 5
  0041d	05		 DB	 5
  0041e	05		 DB	 5
  0041f	05		 DB	 5
  00420	05		 DB	 5
  00421	05		 DB	 5
  00422	05		 DB	 5
  00423	05		 DB	 5
  00424	05		 DB	 5
  00425	05		 DB	 5
  00426	05		 DB	 5
  00427	05		 DB	 5
  00428	05		 DB	 5
  00429	05		 DB	 5
  0042a	05		 DB	 5
  0042b	05		 DB	 5
  0042c	05		 DB	 5
  0042d	05		 DB	 5
  0042e	05		 DB	 5
  0042f	05		 DB	 5
  00430	05		 DB	 5
  00431	05		 DB	 5
  00432	05		 DB	 5
  00433	05		 DB	 5
  00434	05		 DB	 5
  00435	05		 DB	 5
  00436	05		 DB	 5
  00437	05		 DB	 5
  00438	05		 DB	 5
  00439	05		 DB	 5
  0043a	05		 DB	 5
  0043b	05		 DB	 5
  0043c	05		 DB	 5
  0043d	05		 DB	 5
  0043e	05		 DB	 5
  0043f	05		 DB	 5
  00440	05		 DB	 5
  00441	05		 DB	 5
  00442	05		 DB	 5
  00443	03		 DB	 3
  00444	05		 DB	 5
  00445	05		 DB	 5
  00446	05		 DB	 5
  00447	05		 DB	 5
  00448	05		 DB	 5
  00449	05		 DB	 5
  0044a	05		 DB	 5
  0044b	05		 DB	 5
  0044c	05		 DB	 5
  0044d	04		 DB	 4
?voice_action@@YAXH@Z ENDP				; voice_action
_TEXT	ENDS
; Function compile flags: /Odtp /RTCsu /ZI
; File c:\users\administrator\desktop\????? ??\????? ??\client source code\system\t_music.cpp
;	COMDAT ?voice_lfo@@YAXH@Z
_TEXT	SEGMENT
_d0$ = -8						; size = 4
_a0$ = 8						; size = 4
?voice_lfo@@YAXH@Z PROC					; voice_lfo, COMDAT

; 1908 : {

  00000	55		 push	 ebp
  00001	8b ec		 mov	 ebp, esp
  00003	81 ec cc 00 00
	00		 sub	 esp, 204		; 000000ccH
  00009	53		 push	 ebx
  0000a	56		 push	 esi
  0000b	57		 push	 edi
  0000c	8d bd 34 ff ff
	ff		 lea	 edi, DWORD PTR [ebp-204]
  00012	b9 33 00 00 00	 mov	 ecx, 51			; 00000033H
  00017	b8 cc cc cc cc	 mov	 eax, -858993460		; ccccccccH
  0001c	f3 ab		 rep stosd

; 1909 : 	long d0;
; 1910 : 	if(!voice[ a0 ].lfo_m){		//??????

  0001e	6b 45 08 3c	 imul	 eax, DWORD PTR _a0$[ebp], 60
  00022	83 b8 1c 00 00
	00 00		 cmp	 DWORD PTR ?voice@@3PAUVOICE_EQU@@A[eax+28], 0
  00029	75 05		 jne	 SHORT $LN2@voice_lfo

; 1911 : 		return;

  0002b	e9 7a 01 00 00	 jmp	 $LN1@voice_lfo
$LN2@voice_lfo:

; 1912 : 	}
; 1913 : 	if(!voice[ a0 ].lfo_s){		//??????

  00030	6b 45 08 3c	 imul	 eax, DWORD PTR _a0$[ebp], 60
  00034	83 b8 20 00 00
	00 00		 cmp	 DWORD PTR ?voice@@3PAUVOICE_EQU@@A[eax+32], 0
  0003b	75 05		 jne	 SHORT $LN3@voice_lfo

; 1914 : 		return;

  0003d	e9 68 01 00 00	 jmp	 $LN1@voice_lfo
$LN3@voice_lfo:

; 1915 : 	}
; 1916 : 	if(voice[ a0 ].lfo_h){			//?????????

  00042	6b 45 08 3c	 imul	 eax, DWORD PTR _a0$[ebp], 60
  00046	83 b8 18 00 00
	00 00		 cmp	 DWORD PTR ?voice@@3PAUVOICE_EQU@@A[eax+24], 0
  0004d	74 1c		 je	 SHORT $LN4@voice_lfo

; 1917 : 		voice[ a0 ].lfo_h--;

  0004f	6b 45 08 3c	 imul	 eax, DWORD PTR _a0$[ebp], 60
  00053	8b 88 18 00 00
	00		 mov	 ecx, DWORD PTR ?voice@@3PAUVOICE_EQU@@A[eax+24]
  00059	83 e9 01	 sub	 ecx, 1
  0005c	6b 55 08 3c	 imul	 edx, DWORD PTR _a0$[ebp], 60
  00060	89 8a 18 00 00
	00		 mov	 DWORD PTR ?voice@@3PAUVOICE_EQU@@A[edx+24], ecx

; 1918 : 		return;

  00066	e9 3f 01 00 00	 jmp	 $LN1@voice_lfo
$LN4@voice_lfo:

; 1919 : 	}
; 1920 : 
; 1921 : 	voice[ a0 ].lfo_s_cnt += voice[ a0 ].lfo_s_ang;		//???????

  0006b	6b 45 08 3c	 imul	 eax, DWORD PTR _a0$[ebp], 60
  0006f	6b 4d 08 3c	 imul	 ecx, DWORD PTR _a0$[ebp], 60
  00073	8b 90 24 00 00
	00		 mov	 edx, DWORD PTR ?voice@@3PAUVOICE_EQU@@A[eax+36]
  00079	03 91 28 00 00
	00		 add	 edx, DWORD PTR ?voice@@3PAUVOICE_EQU@@A[ecx+40]
  0007f	6b 45 08 3c	 imul	 eax, DWORD PTR _a0$[ebp], 60
  00083	89 90 24 00 00
	00		 mov	 DWORD PTR ?voice@@3PAUVOICE_EQU@@A[eax+36], edx

; 1922 : 
; 1923 : //	if(voice[ a0 ].lfo_s_ang >= 0){		//???????
; 1924 : 	if(voice[ a0 ].lfo_s_cnt >= 0){		//???????

  00089	6b 45 08 3c	 imul	 eax, DWORD PTR _a0$[ebp], 60
  0008d	83 b8 24 00 00
	00 00		 cmp	 DWORD PTR ?voice@@3PAUVOICE_EQU@@A[eax+36], 0
  00094	7c 51		 jl	 SHORT $LN5@voice_lfo

; 1925 : 		d0 = detune_tbl[ voice[ a0 ].note_no ] * voice[ a0 ].lfo_m / 128 * voice[ a0 ].lfo_s_cnt / abs(voice[ a0 ].lfo_s);

  00096	6b 45 08 3c	 imul	 eax, DWORD PTR _a0$[ebp], 60
  0009a	8b 88 0c 00 00
	00		 mov	 ecx, DWORD PTR ?voice@@3PAUVOICE_EQU@@A[eax+12]
  000a0	6b 55 08 3c	 imul	 edx, DWORD PTR _a0$[ebp], 60
  000a4	8b 04 8d 00 00
	00 00		 mov	 eax, DWORD PTR ?detune_tbl@@3PAHA[ecx*4]
  000ab	0f af 82 1c 00
	00 00		 imul	 eax, DWORD PTR ?voice@@3PAUVOICE_EQU@@A[edx+28]
  000b2	99		 cdq
  000b3	83 e2 7f	 and	 edx, 127		; 0000007fH
  000b6	03 c2		 add	 eax, edx
  000b8	8b f0		 mov	 esi, eax
  000ba	c1 fe 07	 sar	 esi, 7
  000bd	6b 45 08 3c	 imul	 eax, DWORD PTR _a0$[ebp], 60
  000c1	0f af b0 24 00
	00 00		 imul	 esi, DWORD PTR ?voice@@3PAUVOICE_EQU@@A[eax+36]
  000c8	6b 4d 08 3c	 imul	 ecx, DWORD PTR _a0$[ebp], 60
  000cc	8b 91 20 00 00
	00		 mov	 edx, DWORD PTR ?voice@@3PAUVOICE_EQU@@A[ecx+32]
  000d2	52		 push	 edx
  000d3	e8 00 00 00 00	 call	 _abs
  000d8	83 c4 04	 add	 esp, 4
  000db	8b c8		 mov	 ecx, eax
  000dd	8b c6		 mov	 eax, esi
  000df	99		 cdq
  000e0	f7 f9		 idiv	 ecx
  000e2	89 45 f8	 mov	 DWORD PTR _d0$[ebp], eax

; 1926 : 	} else {

  000e5	eb 4f		 jmp	 SHORT $LN6@voice_lfo
$LN5@voice_lfo:

; 1927 : 		d0 = detune_tbl[ voice[ a0 ].note_no-1 ] * voice[ a0 ].lfo_m / 128 * voice[ a0 ].lfo_s_cnt / abs(voice[ a0 ].lfo_s);

  000e7	6b 45 08 3c	 imul	 eax, DWORD PTR _a0$[ebp], 60
  000eb	8b 88 0c 00 00
	00		 mov	 ecx, DWORD PTR ?voice@@3PAUVOICE_EQU@@A[eax+12]
  000f1	6b 55 08 3c	 imul	 edx, DWORD PTR _a0$[ebp], 60
  000f5	8b 04 8d fc ff
	ff ff		 mov	 eax, DWORD PTR ?detune_tbl@@3PAHA[ecx*4-4]
  000fc	0f af 82 1c 00
	00 00		 imul	 eax, DWORD PTR ?voice@@3PAUVOICE_EQU@@A[edx+28]
  00103	99		 cdq
  00104	83 e2 7f	 and	 edx, 127		; 0000007fH
  00107	03 c2		 add	 eax, edx
  00109	8b f0		 mov	 esi, eax
  0010b	c1 fe 07	 sar	 esi, 7
  0010e	6b 45 08 3c	 imul	 eax, DWORD PTR _a0$[ebp], 60
  00112	0f af b0 24 00
	00 00		 imul	 esi, DWORD PTR ?voice@@3PAUVOICE_EQU@@A[eax+36]
  00119	6b 4d 08 3c	 imul	 ecx, DWORD PTR _a0$[ebp], 60
  0011d	8b 91 20 00 00
	00		 mov	 edx, DWORD PTR ?voice@@3PAUVOICE_EQU@@A[ecx+32]
  00123	52		 push	 edx
  00124	e8 00 00 00 00	 call	 _abs
  00129	83 c4 04	 add	 esp, 4
  0012c	8b c8		 mov	 ecx, eax
  0012e	8b c6		 mov	 eax, esi
  00130	99		 cdq
  00131	f7 f9		 idiv	 ecx
  00133	89 45 f8	 mov	 DWORD PTR _d0$[ebp], eax
$LN6@voice_lfo:

; 1928 : 	}
; 1929 : 	pDSData[ a0 ]->SetFrequency((DWORD)(voice[ a0 ].freq + d0));			// ????

  00136	6b 45 08 3c	 imul	 eax, DWORD PTR _a0$[ebp], 60
  0013a	8b 88 38 00 00
	00		 mov	 ecx, DWORD PTR ?voice@@3PAUVOICE_EQU@@A[eax+56]
  00140	03 4d f8	 add	 ecx, DWORD PTR _d0$[ebp]
  00143	8b f4		 mov	 esi, esp
  00145	51		 push	 ecx
  00146	8b 55 08	 mov	 edx, DWORD PTR _a0$[ebp]
  00149	8b 04 95 00 00
	00 00		 mov	 eax, DWORD PTR ?pDSData@@3PAPAUIDirectSoundBuffer@@A[edx*4]
  00150	8b 4d 08	 mov	 ecx, DWORD PTR _a0$[ebp]
  00153	8b 14 8d 00 00
	00 00		 mov	 edx, DWORD PTR ?pDSData@@3PAPAUIDirectSoundBuffer@@A[ecx*4]
  0015a	8b 00		 mov	 eax, DWORD PTR [eax]
  0015c	52		 push	 edx
  0015d	8b 48 44	 mov	 ecx, DWORD PTR [eax+68]
  00160	ff d1		 call	 ecx
  00162	3b f4		 cmp	 esi, esp
  00164	e8 00 00 00 00	 call	 __RTC_CheckEsp

; 1930 : 
; 1931 : 	if(abs(voice[ a0 ].lfo_s_cnt) == abs(voice[ a0 ].lfo_s)){		//????

  00169	6b 45 08 3c	 imul	 eax, DWORD PTR _a0$[ebp], 60
  0016d	8b 88 24 00 00
	00		 mov	 ecx, DWORD PTR ?voice@@3PAUVOICE_EQU@@A[eax+36]
  00173	51		 push	 ecx
  00174	e8 00 00 00 00	 call	 _abs
  00179	83 c4 04	 add	 esp, 4
  0017c	8b f0		 mov	 esi, eax
  0017e	6b 55 08 3c	 imul	 edx, DWORD PTR _a0$[ebp], 60
  00182	8b 82 20 00 00
	00		 mov	 eax, DWORD PTR ?voice@@3PAUVOICE_EQU@@A[edx+32]
  00188	50		 push	 eax
  00189	e8 00 00 00 00	 call	 _abs
  0018e	83 c4 04	 add	 esp, 4
  00191	3b f0		 cmp	 esi, eax
  00193	75 15		 jne	 SHORT $LN1@voice_lfo

; 1932 : 		voice[ a0 ].lfo_s_ang *= -1;

  00195	6b 45 08 3c	 imul	 eax, DWORD PTR _a0$[ebp], 60
  00199	6b 88 28 00 00
	00 ff		 imul	 ecx, DWORD PTR ?voice@@3PAUVOICE_EQU@@A[eax+40], -1
  001a0	6b 55 08 3c	 imul	 edx, DWORD PTR _a0$[ebp], 60
  001a4	89 8a 28 00 00
	00		 mov	 DWORD PTR ?voice@@3PAUVOICE_EQU@@A[edx+40], ecx
$LN1@voice_lfo:

; 1933 : 	}
; 1934 : }

  001aa	5f		 pop	 edi
  001ab	5e		 pop	 esi
  001ac	5b		 pop	 ebx
  001ad	81 c4 cc 00 00
	00		 add	 esp, 204		; 000000ccH
  001b3	3b ec		 cmp	 ebp, esp
  001b5	e8 00 00 00 00	 call	 __RTC_CheckEsp
  001ba	8b e5		 mov	 esp, ebp
  001bc	5d		 pop	 ebp
  001bd	c3		 ret	 0
?voice_lfo@@YAXH@Z ENDP					; voice_lfo
_TEXT	ENDS
; Function compile flags: /Odtp /RTCsu /ZI
; File c:\users\administrator\desktop\????? ??\????? ??\client source code\system\t_music.cpp
;	COMDAT ?play_start@@YAXXZ
_TEXT	SEGMENT
_d7$ = -8						; size = 4
?play_start@@YAXXZ PROC					; play_start, COMDAT

; 1897 : {

  00000	55		 push	 ebp
  00001	8b ec		 mov	 ebp, esp
  00003	81 ec cc 00 00
	00		 sub	 esp, 204		; 000000ccH
  00009	53		 push	 ebx
  0000a	56		 push	 esi
  0000b	57		 push	 edi
  0000c	8d bd 34 ff ff
	ff		 lea	 edi, DWORD PTR [ebp-204]
  00012	b9 33 00 00 00	 mov	 ecx, 51			; 00000033H
  00017	b8 cc cc cc cc	 mov	 eax, -858993460		; ccccccccH
  0001c	f3 ab		 rep stosd

; 1898 : 	int d7;
; 1899 : 	for(d7=0;d7<VOICE_MAX;d7++){

  0001e	c7 45 f8 00 00
	00 00		 mov	 DWORD PTR _d7$[ebp], 0
  00025	eb 09		 jmp	 SHORT $LN4@play_start
$LN2@play_start:
  00027	8b 45 f8	 mov	 eax, DWORD PTR _d7$[ebp]
  0002a	83 c0 01	 add	 eax, 1
  0002d	89 45 f8	 mov	 DWORD PTR _d7$[ebp], eax
$LN4@play_start:
  00030	83 7d f8 40	 cmp	 DWORD PTR _d7$[ebp], 64	; 00000040H
  00034	7d 4e		 jge	 SHORT $LN3@play_start

; 1900 : 		pDSData[d7]->Stop();

  00036	8b 45 f8	 mov	 eax, DWORD PTR _d7$[ebp]
  00039	8b 0c 85 00 00
	00 00		 mov	 ecx, DWORD PTR ?pDSData@@3PAPAUIDirectSoundBuffer@@A[eax*4]
  00040	8b 55 f8	 mov	 edx, DWORD PTR _d7$[ebp]
  00043	8b 04 95 00 00
	00 00		 mov	 eax, DWORD PTR ?pDSData@@3PAPAUIDirectSoundBuffer@@A[edx*4]
  0004a	8b 09		 mov	 ecx, DWORD PTR [ecx]
  0004c	8b f4		 mov	 esi, esp
  0004e	50		 push	 eax
  0004f	8b 51 48	 mov	 edx, DWORD PTR [ecx+72]
  00052	ff d2		 call	 edx
  00054	3b f4		 cmp	 esi, esp
  00056	e8 00 00 00 00	 call	 __RTC_CheckEsp

; 1901 : 		pDSData[d7]->SetCurrentPosition(0);

  0005b	8b f4		 mov	 esi, esp
  0005d	6a 00		 push	 0
  0005f	8b 45 f8	 mov	 eax, DWORD PTR _d7$[ebp]
  00062	8b 0c 85 00 00
	00 00		 mov	 ecx, DWORD PTR ?pDSData@@3PAPAUIDirectSoundBuffer@@A[eax*4]
  00069	8b 55 f8	 mov	 edx, DWORD PTR _d7$[ebp]
  0006c	8b 04 95 00 00
	00 00		 mov	 eax, DWORD PTR ?pDSData@@3PAPAUIDirectSoundBuffer@@A[edx*4]
  00073	8b 09		 mov	 ecx, DWORD PTR [ecx]
  00075	50		 push	 eax
  00076	8b 51 34	 mov	 edx, DWORD PTR [ecx+52]
  00079	ff d2		 call	 edx
  0007b	3b f4		 cmp	 esi, esp
  0007d	e8 00 00 00 00	 call	 __RTC_CheckEsp

; 1902 : 	}

  00082	eb a3		 jmp	 SHORT $LN2@play_start
$LN3@play_start:

; 1903 : 	music_init();		//????????		

  00084	e8 00 00 00 00	 call	 ?music_init@@YAXXZ	; music_init

; 1904 : }

  00089	5f		 pop	 edi
  0008a	5e		 pop	 esi
  0008b	5b		 pop	 ebx
  0008c	81 c4 cc 00 00
	00		 add	 esp, 204		; 000000ccH
  00092	3b ec		 cmp	 ebp, esp
  00094	e8 00 00 00 00	 call	 __RTC_CheckEsp
  00099	8b e5		 mov	 esp, ebp
  0009b	5d		 pop	 ebp
  0009c	c3		 ret	 0
?play_start@@YAXXZ ENDP					; play_start
_TEXT	ENDS
; Function compile flags: /Odtp /RTCsu /ZI
; File c:\users\administrator\desktop\????? ??\????? ??\client source code\system\t_music.cpp
;	COMDAT ?play_stop@@YAXXZ
_TEXT	SEGMENT
_d7$ = -8						; size = 4
?play_stop@@YAXXZ PROC					; play_stop, COMDAT

; 1883 : {

  00000	55		 push	 ebp
  00001	8b ec		 mov	 ebp, esp
  00003	81 ec cc 00 00
	00		 sub	 esp, 204		; 000000ccH
  00009	53		 push	 ebx
  0000a	56		 push	 esi
  0000b	57		 push	 edi
  0000c	8d bd 34 ff ff
	ff		 lea	 edi, DWORD PTR [ebp-204]
  00012	b9 33 00 00 00	 mov	 ecx, 51			; 00000033H
  00017	b8 cc cc cc cc	 mov	 eax, -858993460		; ccccccccH
  0001c	f3 ab		 rep stosd

; 1884 : 	int d7;
; 1885 : 	for(d7=0;d7<VOICE_MAX;d7++){

  0001e	c7 45 f8 00 00
	00 00		 mov	 DWORD PTR _d7$[ebp], 0
  00025	eb 09		 jmp	 SHORT $LN4@play_stop
$LN2@play_stop:
  00027	8b 45 f8	 mov	 eax, DWORD PTR _d7$[ebp]
  0002a	83 c0 01	 add	 eax, 1
  0002d	89 45 f8	 mov	 DWORD PTR _d7$[ebp], eax
$LN4@play_stop:
  00030	83 7d f8 40	 cmp	 DWORD PTR _d7$[ebp], 64	; 00000040H
  00034	7d 4e		 jge	 SHORT $LN3@play_stop

; 1886 : 		pDSData[d7]->Stop();

  00036	8b 45 f8	 mov	 eax, DWORD PTR _d7$[ebp]
  00039	8b 0c 85 00 00
	00 00		 mov	 ecx, DWORD PTR ?pDSData@@3PAPAUIDirectSoundBuffer@@A[eax*4]
  00040	8b 55 f8	 mov	 edx, DWORD PTR _d7$[ebp]
  00043	8b 04 95 00 00
	00 00		 mov	 eax, DWORD PTR ?pDSData@@3PAPAUIDirectSoundBuffer@@A[edx*4]
  0004a	8b 09		 mov	 ecx, DWORD PTR [ecx]
  0004c	8b f4		 mov	 esi, esp
  0004e	50		 push	 eax
  0004f	8b 51 48	 mov	 edx, DWORD PTR [ecx+72]
  00052	ff d2		 call	 edx
  00054	3b f4		 cmp	 esi, esp
  00056	e8 00 00 00 00	 call	 __RTC_CheckEsp

; 1887 : 		pDSData[d7]->SetCurrentPosition(0);

  0005b	8b f4		 mov	 esi, esp
  0005d	6a 00		 push	 0
  0005f	8b 45 f8	 mov	 eax, DWORD PTR _d7$[ebp]
  00062	8b 0c 85 00 00
	00 00		 mov	 ecx, DWORD PTR ?pDSData@@3PAPAUIDirectSoundBuffer@@A[eax*4]
  00069	8b 55 f8	 mov	 edx, DWORD PTR _d7$[ebp]
  0006c	8b 04 95 00 00
	00 00		 mov	 eax, DWORD PTR ?pDSData@@3PAPAUIDirectSoundBuffer@@A[edx*4]
  00073	8b 09		 mov	 ecx, DWORD PTR [ecx]
  00075	50		 push	 eax
  00076	8b 51 34	 mov	 edx, DWORD PTR [ecx+52]
  00079	ff d2		 call	 edx
  0007b	3b f4		 cmp	 esi, esp
  0007d	e8 00 00 00 00	 call	 __RTC_CheckEsp

; 1888 : //		play_flg[ d7 ] = 0;
; 1889 : 	}

  00082	eb a3		 jmp	 SHORT $LN2@play_stop
$LN3@play_stop:

; 1890 : 	pause_flg=1;

  00084	c7 05 00 00 00
	00 01 00 00 00	 mov	 DWORD PTR ?pause_flg@@3HA, 1

; 1891 : }

  0008e	5f		 pop	 edi
  0008f	5e		 pop	 esi
  00090	5b		 pop	 ebx
  00091	81 c4 cc 00 00
	00		 add	 esp, 204		; 000000ccH
  00097	3b ec		 cmp	 ebp, esp
  00099	e8 00 00 00 00	 call	 __RTC_CheckEsp
  0009e	8b e5		 mov	 esp, ebp
  000a0	5d		 pop	 ebp
  000a1	c3		 ret	 0
?play_stop@@YAXXZ ENDP					; play_stop
_TEXT	ENDS
; Function compile flags: /Odtp /RTCsu /ZI
; File c:\users\administrator\desktop\????? ??\????? ??\client source code\system\t_music.cpp
;	COMDAT ?music_init@@YAXXZ
_TEXT	SEGMENT
tv371 = -292						; size = 8
tv338 = -292						; size = 8
tv309 = -292						; size = 8
tv422 = -284						; size = 8
tv418 = -284						; size = 8
tv382 = -284						; size = 8
tv365 = -276						; size = 8
tv332 = -276						; size = 8
tv303 = -276						; size = 8
tv360 = -268						; size = 8
tv327 = -268						; size = 8
tv298 = -268						; size = 8
tv420 = -260						; size = 8
tv416 = -260						; size = 8
tv380 = -260						; size = 8
tv354 = -252						; size = 8
tv321 = -252						; size = 8
tv292 = -252						; size = 8
_d6$ = -48						; size = 8
_y$ = -32						; size = 4
_d5$ = -20						; size = 4
_d7$ = -8						; size = 4
?music_init@@YAXXZ PROC					; music_init, COMDAT

; 1806 : {

  00000	55		 push	 ebp
  00001	8b ec		 mov	 ebp, esp
  00003	81 ec 24 01 00
	00		 sub	 esp, 292		; 00000124H
  00009	53		 push	 ebx
  0000a	56		 push	 esi
  0000b	57		 push	 edi
  0000c	8d bd dc fe ff
	ff		 lea	 edi, DWORD PTR [ebp-292]
  00012	b9 49 00 00 00	 mov	 ecx, 73			; 00000049H
  00017	b8 cc cc cc cc	 mov	 eax, -858993460		; ccccccccH
  0001c	f3 ab		 rep stosd

; 1807 : 	int d7,d5;
; 1808 : 	for(d7=0;d7<VOICE_MAX;d7++){

  0001e	c7 45 f8 00 00
	00 00		 mov	 DWORD PTR _d7$[ebp], 0
  00025	eb 09		 jmp	 SHORT $LN4@music_init
$LN2@music_init:
  00027	8b 45 f8	 mov	 eax, DWORD PTR _d7$[ebp]
  0002a	83 c0 01	 add	 eax, 1
  0002d	89 45 f8	 mov	 DWORD PTR _d7$[ebp], eax
$LN4@music_init:
  00030	83 7d f8 40	 cmp	 DWORD PTR _d7$[ebp], 64	; 00000040H
  00034	7d 2c		 jge	 SHORT $LN3@music_init

; 1809 : 		voice[ d7 ].name = 0;

  00036	6b 45 f8 3c	 imul	 eax, DWORD PTR _d7$[ebp], 60
  0003a	c7 80 00 00 00
	00 00 00 00 00	 mov	 DWORD PTR ?voice@@3PAUVOICE_EQU@@A[eax], 0

; 1810 : 		voice[ d7 ].tone_no = -1;		//???????????瑙k?

  00044	6b 45 f8 3c	 imul	 eax, DWORD PTR _d7$[ebp], 60
  00048	c7 80 04 00 00
	00 ff ff ff ff	 mov	 DWORD PTR ?voice@@3PAUVOICE_EQU@@A[eax+4], -1

; 1811 : 		voice[ d7 ].loop_flg = 0;

  00052	6b 45 f8 3c	 imul	 eax, DWORD PTR _d7$[ebp], 60
  00056	c7 80 30 00 00
	00 00 00 00 00	 mov	 DWORD PTR ?voice@@3PAUVOICE_EQU@@A[eax+48], 0

; 1812 : 	}

  00060	eb c5		 jmp	 SHORT $LN2@music_init
$LN3@music_init:

; 1813 : 	for(d7=0;d7<TRACK_MAX;d7++){

  00062	c7 45 f8 00 00
	00 00		 mov	 DWORD PTR _d7$[ebp], 0
  00069	eb 09		 jmp	 SHORT $LN7@music_init
$LN5@music_init:
  0006b	8b 45 f8	 mov	 eax, DWORD PTR _d7$[ebp]
  0006e	83 c0 01	 add	 eax, 1
  00071	89 45 f8	 mov	 DWORD PTR _d7$[ebp], eax
$LN7@music_init:
  00074	83 7d f8 20	 cmp	 DWORD PTR _d7$[ebp], 32	; 00000020H
  00078	0f 8d 05 01 00
	00		 jge	 $LN6@music_init

; 1814 : 		step_time[ d7 ] = 0;

  0007e	8b 45 f8	 mov	 eax, DWORD PTR _d7$[ebp]
  00081	c7 04 85 00 00
	00 00 00 00 00
	00		 mov	 DWORD PTR ?step_time@@3PAHA[eax*4], 0

; 1815 : 		gate_time[ d7 ] = 0;

  0008c	8b 45 f8	 mov	 eax, DWORD PTR _d7$[ebp]
  0008f	c7 04 85 00 00
	00 00 00 00 00
	00		 mov	 DWORD PTR ?gate_time@@3PAHA[eax*4], 0

; 1816 : 		step_point[ d7 ] = 0;

  0009a	8b 45 f8	 mov	 eax, DWORD PTR _d7$[ebp]
  0009d	c7 04 85 00 00
	00 00 00 00 00
	00		 mov	 DWORD PTR ?step_point@@3PAHA[eax*4], 0

; 1817 : 		play_flg[ d7 ] = 1;

  000a8	8b 45 f8	 mov	 eax, DWORD PTR _d7$[ebp]
  000ab	c7 04 85 00 00
	00 00 01 00 00
	00		 mov	 DWORD PTR ?play_flg@@3PAHA[eax*4], 1

; 1818 : 		play_kuri_lv[ d7 ] = -1;

  000b6	8b 45 f8	 mov	 eax, DWORD PTR _d7$[ebp]
  000b9	c7 04 85 00 00
	00 00 ff ff ff
	ff		 mov	 DWORD PTR ?play_kuri_lv@@3PAHA[eax*4], -1

; 1819 : 		dataToneNo[ d7 ] = 0;		//????????????瑙k?

  000c4	8b 45 f8	 mov	 eax, DWORD PTR _d7$[ebp]
  000c7	c7 04 85 00 00
	00 00 00 00 00
	00		 mov	 DWORD PTR ?dataToneNo@@3PAHA[eax*4], 0

; 1820 : 		dataVolume[ d7 ] = 0;

  000d2	8b 45 f8	 mov	 eax, DWORD PTR _d7$[ebp]
  000d5	c7 04 85 00 00
	00 00 00 00 00
	00		 mov	 DWORD PTR ?dataVolume@@3PAHA[eax*4], 0

; 1821 : 		dataPan[ d7 ] = 0;

  000e0	8b 45 f8	 mov	 eax, DWORD PTR _d7$[ebp]
  000e3	c7 04 85 00 00
	00 00 00 00 00
	00		 mov	 DWORD PTR ?dataPan@@3PAHA[eax*4], 0

; 1822 : 		dataFrequency[ d7 ] = 0;

  000ee	8b 45 f8	 mov	 eax, DWORD PTR _d7$[ebp]
  000f1	c7 04 85 00 00
	00 00 00 00 00
	00		 mov	 DWORD PTR ?dataFrequency@@3PAJA[eax*4], 0

; 1823 : 		tie_flg[ d7 ] = 0;

  000fc	8b 45 f8	 mov	 eax, DWORD PTR _d7$[ebp]
  000ff	c7 04 85 00 00
	00 00 00 00 00
	00		 mov	 DWORD PTR ?tie_flg@@3PAHA[eax*4], 0

; 1824 : 		for(d5=0;d5<8;d5++)

  0010a	c7 45 ec 00 00
	00 00		 mov	 DWORD PTR _d5$[ebp], 0
  00111	eb 09		 jmp	 SHORT $LN10@music_init
$LN8@music_init:
  00113	8b 45 ec	 mov	 eax, DWORD PTR _d5$[ebp]
  00116	83 c0 01	 add	 eax, 1
  00119	89 45 ec	 mov	 DWORD PTR _d5$[ebp], eax
$LN10@music_init:
  0011c	83 7d ec 08	 cmp	 DWORD PTR _d5$[ebp], 8
  00120	7d 16		 jge	 SHORT $LN9@music_init

; 1825 : 			play_use_task[ d7 ][ d5 ] = -1;		//????k????

  00122	8b 45 f8	 mov	 eax, DWORD PTR _d7$[ebp]
  00125	c1 e0 05	 shl	 eax, 5
  00128	8b 4d ec	 mov	 ecx, DWORD PTR _d5$[ebp]
  0012b	c7 84 88 00 00
	00 00 ff ff ff
	ff		 mov	 DWORD PTR ?play_use_task@@3PAY07HA[eax+ecx*4], -1
  00136	eb db		 jmp	 SHORT $LN8@music_init
$LN9@music_init:

; 1826 : 		play_use_task_cnt[ d7 ] = 0;

  00138	8b 45 f8	 mov	 eax, DWORD PTR _d7$[ebp]
  0013b	c7 04 85 00 00
	00 00 00 00 00
	00		 mov	 DWORD PTR ?play_use_task_cnt@@3PAHA[eax*4], 0

; 1827 : 		play_detune[ d7 ] = 0;

  00146	8b 45 f8	 mov	 eax, DWORD PTR _d7$[ebp]
  00149	c7 04 85 00 00
	00 00 00 00 00
	00		 mov	 DWORD PTR ?play_detune@@3PAHA[eax*4], 0

; 1828 : 		play_lfo_h[ d7 ] = 0;

  00154	8b 45 f8	 mov	 eax, DWORD PTR _d7$[ebp]
  00157	c7 04 85 00 00
	00 00 00 00 00
	00		 mov	 DWORD PTR ?play_lfo_h@@3PAHA[eax*4], 0

; 1829 : 		play_lfo_m[ d7 ] = 0;

  00162	8b 45 f8	 mov	 eax, DWORD PTR _d7$[ebp]
  00165	c7 04 85 00 00
	00 00 00 00 00
	00		 mov	 DWORD PTR ?play_lfo_m@@3PAHA[eax*4], 0

; 1830 : 		play_lfo_s[ d7 ] = 0;

  00170	8b 45 f8	 mov	 eax, DWORD PTR _d7$[ebp]
  00173	c7 04 85 00 00
	00 00 00 00 00
	00		 mov	 DWORD PTR ?play_lfo_s@@3PAHA[eax*4], 0

; 1831 : 	}

  0017e	e9 e8 fe ff ff	 jmp	 $LN5@music_init
$LN6@music_init:

; 1832 : 	//??????
; 1833 : 	for(d7=0;d7<MAX_ENV;d7++){

  00183	c7 45 f8 00 00
	00 00		 mov	 DWORD PTR _d7$[ebp], 0
  0018a	eb 09		 jmp	 SHORT $LN13@music_init
$LN11@music_init:
  0018c	8b 45 f8	 mov	 eax, DWORD PTR _d7$[ebp]
  0018f	83 c0 01	 add	 eax, 1
  00192	89 45 f8	 mov	 DWORD PTR _d7$[ebp], eax
$LN13@music_init:
  00195	83 7d f8 14	 cmp	 DWORD PTR _d7$[ebp], 20	; 00000014H
  00199	7d 1e		 jge	 SHORT $LN12@music_init

; 1834 : 		env_tbl[d7].voice_address = -1;

  0019b	6b 45 f8 24	 imul	 eax, DWORD PTR _d7$[ebp], 36
  0019f	c7 80 00 00 00
	00 ff ff ff ff	 mov	 DWORD PTR ?env_tbl@@3PAUENVIRONMENT_EQU@@A[eax], -1

; 1835 : 		env_tbl[d7].count = 0;

  001a9	6b 45 f8 24	 imul	 eax, DWORD PTR _d7$[ebp], 36
  001ad	c7 80 08 00 00
	00 00 00 00 00	 mov	 DWORD PTR ?env_tbl@@3PAUENVIRONMENT_EQU@@A[eax+8], 0

; 1836 : 	}

  001b7	eb d3		 jmp	 SHORT $LN11@music_init
$LN12@music_init:

; 1837 : #define PAN_POINT	5000
; 1838 : 	//???????
; 1839 : 	int y;
; 1840 : 	double d6;		//?
; 1841 : 	for(d7=64,d6=127;d6>=0;d6--){

  001b9	c7 45 f8 40 00
	00 00		 mov	 DWORD PTR _d7$[ebp], 64	; 00000040H
  001c0	f2 0f 10 05 00
	00 00 00	 movsd	 xmm0, QWORD PTR __real@405fc00000000000
  001c8	f2 0f 11 45 d0	 movsd	 QWORD PTR _d6$[ebp], xmm0
  001cd	eb 12		 jmp	 SHORT $LN16@music_init
$LN14@music_init:
  001cf	f2 0f 10 45 d0	 movsd	 xmm0, QWORD PTR _d6$[ebp]
  001d4	f2 0f 5c 05 00
	00 00 00	 subsd	 xmm0, QWORD PTR __real@3ff0000000000000
  001dc	f2 0f 11 45 d0	 movsd	 QWORD PTR _d6$[ebp], xmm0
$LN16@music_init:
  001e1	f2 0f 10 45 d0	 movsd	 xmm0, QWORD PTR _d6$[ebp]
  001e6	66 0f 2f 05 00
	00 00 00	 comisd	 xmm0, QWORD PTR __real@0000000000000000
  001ee	0f 82 0d 01 00
	00		 jb	 $LN15@music_init

; 1842 : 		if(!((int)d6&1))

  001f4	f2 0f 2c 45 d0	 cvttsd2si eax, QWORD PTR _d6$[ebp]
  001f9	83 e0 01	 and	 eax, 1
  001fc	75 02		 jne	 SHORT $LN26@music_init

; 1843 : 			continue;

  001fe	eb cf		 jmp	 SHORT $LN14@music_init
$LN26@music_init:

; 1844 : 		y=(int)(LOG(100,127)*PAN_POINT) - (int)(LOG(100,d6)*PAN_POINT);

  00200	83 ec 08	 sub	 esp, 8
  00203	f2 0f 10 05 00
	00 00 00	 movsd	 xmm0, QWORD PTR __real@405fc00000000000
  0020b	f2 0f 11 04 24	 movsd	 QWORD PTR [esp], xmm0
  00210	e8 00 00 00 00	 call	 _log
  00215	83 c4 08	 add	 esp, 8
  00218	dd 9d 04 ff ff
	ff		 fstp	 QWORD PTR tv292[ebp]
  0021e	f2 0f 10 85 04
	ff ff ff	 movsd	 xmm0, QWORD PTR tv292[ebp]
  00226	83 ec 08	 sub	 esp, 8
  00229	f2 0f 10 0d 00
	00 00 00	 movsd	 xmm1, QWORD PTR __real@4059000000000000
  00231	f2 0f 11 0c 24	 movsd	 QWORD PTR [esp], xmm1
  00236	f2 0f 11 85 fc
	fe ff ff	 movsd	 QWORD PTR tv380[ebp], xmm0
  0023e	e8 00 00 00 00	 call	 _log
  00243	83 c4 08	 add	 esp, 8
  00246	dd 9d f4 fe ff
	ff		 fstp	 QWORD PTR tv298[ebp]
  0024c	f2 0f 10 85 fc
	fe ff ff	 movsd	 xmm0, QWORD PTR tv380[ebp]
  00254	f2 0f 5e 85 f4
	fe ff ff	 divsd	 xmm0, QWORD PTR tv298[ebp]
  0025c	f2 0f 59 05 00
	00 00 00	 mulsd	 xmm0, QWORD PTR __real@40b3880000000000
  00264	f2 0f 2c f0	 cvttsd2si esi, xmm0
  00268	f2 0f 5a 45 d0	 cvtsd2ss xmm0, QWORD PTR _d6$[ebp]
  0026d	f3 0f 5a c0	 cvtss2sd xmm0, xmm0
  00271	83 ec 08	 sub	 esp, 8
  00274	f2 0f 11 04 24	 movsd	 QWORD PTR [esp], xmm0
  00279	e8 00 00 00 00	 call	 _log
  0027e	83 c4 08	 add	 esp, 8
  00281	dd 9d ec fe ff
	ff		 fstp	 QWORD PTR tv303[ebp]
  00287	f2 0f 10 85 ec
	fe ff ff	 movsd	 xmm0, QWORD PTR tv303[ebp]
  0028f	83 ec 08	 sub	 esp, 8
  00292	f2 0f 10 0d 00
	00 00 00	 movsd	 xmm1, QWORD PTR __real@4059000000000000
  0029a	f2 0f 11 0c 24	 movsd	 QWORD PTR [esp], xmm1
  0029f	f2 0f 11 85 e4
	fe ff ff	 movsd	 QWORD PTR tv382[ebp], xmm0
  002a7	e8 00 00 00 00	 call	 _log
  002ac	83 c4 08	 add	 esp, 8
  002af	dd 9d dc fe ff
	ff		 fstp	 QWORD PTR tv309[ebp]
  002b5	f2 0f 10 85 e4
	fe ff ff	 movsd	 xmm0, QWORD PTR tv382[ebp]
  002bd	f2 0f 5e 85 dc
	fe ff ff	 divsd	 xmm0, QWORD PTR tv309[ebp]
  002c5	f2 0f 59 05 00
	00 00 00	 mulsd	 xmm0, QWORD PTR __real@40b3880000000000
  002cd	f2 0f 2c c0	 cvttsd2si eax, xmm0
  002d1	2b f0		 sub	 esi, eax
  002d3	89 75 e0	 mov	 DWORD PTR _y$[ebp], esi

; 1845 : 		if(y>PAN_POINT)

  002d6	81 7d e0 88 13
	00 00		 cmp	 DWORD PTR _y$[ebp], 5000 ; 00001388H
  002dd	7e 07		 jle	 SHORT $LN27@music_init

; 1846 : 			y=10000;

  002df	c7 45 e0 10 27
	00 00		 mov	 DWORD PTR _y$[ebp], 10000 ; 00002710H
$LN27@music_init:

; 1847 : 		panpot_tbl[d7++]=y;

  002e6	8b 45 f8	 mov	 eax, DWORD PTR _d7$[ebp]
  002e9	8b 4d e0	 mov	 ecx, DWORD PTR _y$[ebp]
  002ec	89 0c 85 00 00
	00 00		 mov	 DWORD PTR ?panpot_tbl@@3PAJA[eax*4], ecx
  002f3	8b 55 f8	 mov	 edx, DWORD PTR _d7$[ebp]
  002f6	83 c2 01	 add	 edx, 1
  002f9	89 55 f8	 mov	 DWORD PTR _d7$[ebp], edx

; 1848 : 	}

  002fc	e9 ce fe ff ff	 jmp	 $LN14@music_init
$LN15@music_init:

; 1849 : 	for(d7=64,d6=127;d6>=0;d6--){

  00301	c7 45 f8 40 00
	00 00		 mov	 DWORD PTR _d7$[ebp], 64	; 00000040H
  00308	f2 0f 10 05 00
	00 00 00	 movsd	 xmm0, QWORD PTR __real@405fc00000000000
  00310	f2 0f 11 45 d0	 movsd	 QWORD PTR _d6$[ebp], xmm0
  00315	eb 12		 jmp	 SHORT $LN19@music_init
$LN17@music_init:
  00317	f2 0f 10 45 d0	 movsd	 xmm0, QWORD PTR _d6$[ebp]
  0031c	f2 0f 5c 05 00
	00 00 00	 subsd	 xmm0, QWORD PTR __real@3ff0000000000000
  00324	f2 0f 11 45 d0	 movsd	 QWORD PTR _d6$[ebp], xmm0
$LN19@music_init:
  00329	f2 0f 10 45 d0	 movsd	 xmm0, QWORD PTR _d6$[ebp]
  0032e	66 0f 2f 05 00
	00 00 00	 comisd	 xmm0, QWORD PTR __real@0000000000000000
  00336	0f 82 0f 01 00
	00		 jb	 $LN18@music_init

; 1850 : 		if(!((int)d6&1))

  0033c	f2 0f 2c 45 d0	 cvttsd2si eax, QWORD PTR _d6$[ebp]
  00341	83 e0 01	 and	 eax, 1
  00344	75 02		 jne	 SHORT $LN28@music_init

; 1851 : 			continue;

  00346	eb cf		 jmp	 SHORT $LN17@music_init
$LN28@music_init:

; 1852 : 		y=(int)(LOG(100,127)*PAN_POINT) - (int)(LOG(100,d6)*PAN_POINT);

  00348	83 ec 08	 sub	 esp, 8
  0034b	f2 0f 10 05 00
	00 00 00	 movsd	 xmm0, QWORD PTR __real@405fc00000000000
  00353	f2 0f 11 04 24	 movsd	 QWORD PTR [esp], xmm0
  00358	e8 00 00 00 00	 call	 _log
  0035d	83 c4 08	 add	 esp, 8
  00360	dd 9d 04 ff ff
	ff		 fstp	 QWORD PTR tv321[ebp]
  00366	f2 0f 10 85 04
	ff ff ff	 movsd	 xmm0, QWORD PTR tv321[ebp]
  0036e	83 ec 08	 sub	 esp, 8
  00371	f2 0f 10 0d 00
	00 00 00	 movsd	 xmm1, QWORD PTR __real@4059000000000000
  00379	f2 0f 11 0c 24	 movsd	 QWORD PTR [esp], xmm1
  0037e	f2 0f 11 85 fc
	fe ff ff	 movsd	 QWORD PTR tv416[ebp], xmm0
  00386	e8 00 00 00 00	 call	 _log
  0038b	83 c4 08	 add	 esp, 8
  0038e	dd 9d f4 fe ff
	ff		 fstp	 QWORD PTR tv327[ebp]
  00394	f2 0f 10 85 fc
	fe ff ff	 movsd	 xmm0, QWORD PTR tv416[ebp]
  0039c	f2 0f 5e 85 f4
	fe ff ff	 divsd	 xmm0, QWORD PTR tv327[ebp]
  003a4	f2 0f 59 05 00
	00 00 00	 mulsd	 xmm0, QWORD PTR __real@40b3880000000000
  003ac	f2 0f 2c f0	 cvttsd2si esi, xmm0
  003b0	f2 0f 5a 45 d0	 cvtsd2ss xmm0, QWORD PTR _d6$[ebp]
  003b5	f3 0f 5a c0	 cvtss2sd xmm0, xmm0
  003b9	83 ec 08	 sub	 esp, 8
  003bc	f2 0f 11 04 24	 movsd	 QWORD PTR [esp], xmm0
  003c1	e8 00 00 00 00	 call	 _log
  003c6	83 c4 08	 add	 esp, 8
  003c9	dd 9d ec fe ff
	ff		 fstp	 QWORD PTR tv332[ebp]
  003cf	f2 0f 10 85 ec
	fe ff ff	 movsd	 xmm0, QWORD PTR tv332[ebp]
  003d7	83 ec 08	 sub	 esp, 8
  003da	f2 0f 10 0d 00
	00 00 00	 movsd	 xmm1, QWORD PTR __real@4059000000000000
  003e2	f2 0f 11 0c 24	 movsd	 QWORD PTR [esp], xmm1
  003e7	f2 0f 11 85 e4
	fe ff ff	 movsd	 QWORD PTR tv418[ebp], xmm0
  003ef	e8 00 00 00 00	 call	 _log
  003f4	83 c4 08	 add	 esp, 8
  003f7	dd 9d dc fe ff
	ff		 fstp	 QWORD PTR tv338[ebp]
  003fd	f2 0f 10 85 e4
	fe ff ff	 movsd	 xmm0, QWORD PTR tv418[ebp]
  00405	f2 0f 5e 85 dc
	fe ff ff	 divsd	 xmm0, QWORD PTR tv338[ebp]
  0040d	f2 0f 59 05 00
	00 00 00	 mulsd	 xmm0, QWORD PTR __real@40b3880000000000
  00415	f2 0f 2c c0	 cvttsd2si eax, xmm0
  00419	2b f0		 sub	 esi, eax
  0041b	89 75 e0	 mov	 DWORD PTR _y$[ebp], esi

; 1853 : 		if(y>PAN_POINT)

  0041e	81 7d e0 88 13
	00 00		 cmp	 DWORD PTR _y$[ebp], 5000 ; 00001388H
  00425	7e 07		 jle	 SHORT $LN29@music_init

; 1854 : 			y=10000;

  00427	c7 45 e0 10 27
	00 00		 mov	 DWORD PTR _y$[ebp], 10000 ; 00002710H
$LN29@music_init:

; 1855 : 		panpot_tbl[d7--]=-y;

  0042e	8b 45 e0	 mov	 eax, DWORD PTR _y$[ebp]
  00431	f7 d8		 neg	 eax
  00433	8b 4d f8	 mov	 ecx, DWORD PTR _d7$[ebp]
  00436	89 04 8d 00 00
	00 00		 mov	 DWORD PTR ?panpot_tbl@@3PAJA[ecx*4], eax
  0043d	8b 55 f8	 mov	 edx, DWORD PTR _d7$[ebp]
  00440	83 ea 01	 sub	 edx, 1
  00443	89 55 f8	 mov	 DWORD PTR _d7$[ebp], edx

; 1856 : 	}

  00446	e9 cc fe ff ff	 jmp	 $LN17@music_init
$LN18@music_init:

; 1857 : 	d6=panpot_tbl[0]=-10000;

  0044b	b8 04 00 00 00	 mov	 eax, 4
  00450	6b c8 00	 imul	 ecx, eax, 0
  00453	c7 81 00 00 00
	00 f0 d8 ff ff	 mov	 DWORD PTR ?panpot_tbl@@3PAJA[ecx], -10000 ; ffffd8f0H
  0045d	f2 0f 10 05 00
	00 00 00	 movsd	 xmm0, QWORD PTR __real@c0c3880000000000
  00465	f2 0f 11 45 d0	 movsd	 QWORD PTR _d6$[ebp], xmm0

; 1858 : 	d6=panpot_tbl[127]=10000;

  0046a	b8 04 00 00 00	 mov	 eax, 4
  0046f	6b c8 7f	 imul	 ecx, eax, 127
  00472	c7 81 00 00 00
	00 10 27 00 00	 mov	 DWORD PTR ?panpot_tbl@@3PAJA[ecx], 10000 ; 00002710H
  0047c	f2 0f 10 05 00
	00 00 00	 movsd	 xmm0, QWORD PTR __real@40c3880000000000
  00484	f2 0f 11 45 d0	 movsd	 QWORD PTR _d6$[ebp], xmm0

; 1859 : 	//??????????
; 1860 : 	for(d6=127;d6>=0;d6--){

  00489	f2 0f 10 05 00
	00 00 00	 movsd	 xmm0, QWORD PTR __real@405fc00000000000
  00491	f2 0f 11 45 d0	 movsd	 QWORD PTR _d6$[ebp], xmm0
  00496	eb 12		 jmp	 SHORT $LN22@music_init
$LN20@music_init:
  00498	f2 0f 10 45 d0	 movsd	 xmm0, QWORD PTR _d6$[ebp]
  0049d	f2 0f 5c 05 00
	00 00 00	 subsd	 xmm0, QWORD PTR __real@3ff0000000000000
  004a5	f2 0f 11 45 d0	 movsd	 QWORD PTR _d6$[ebp], xmm0
$LN22@music_init:
  004aa	f2 0f 10 45 d0	 movsd	 xmm0, QWORD PTR _d6$[ebp]
  004af	66 0f 2f 05 00
	00 00 00	 comisd	 xmm0, QWORD PTR __real@0000000000000000
  004b7	0f 82 fc 00 00
	00		 jb	 $LN21@music_init

; 1861 : 		y=(int)(LOG(100,127)*10000) - (int)(LOG(100,d6)*10000);

  004bd	83 ec 08	 sub	 esp, 8
  004c0	f2 0f 10 05 00
	00 00 00	 movsd	 xmm0, QWORD PTR __real@405fc00000000000
  004c8	f2 0f 11 04 24	 movsd	 QWORD PTR [esp], xmm0
  004cd	e8 00 00 00 00	 call	 _log
  004d2	83 c4 08	 add	 esp, 8
  004d5	dd 9d 04 ff ff
	ff		 fstp	 QWORD PTR tv354[ebp]
  004db	f2 0f 10 85 04
	ff ff ff	 movsd	 xmm0, QWORD PTR tv354[ebp]
  004e3	83 ec 08	 sub	 esp, 8
  004e6	f2 0f 10 0d 00
	00 00 00	 movsd	 xmm1, QWORD PTR __real@4059000000000000
  004ee	f2 0f 11 0c 24	 movsd	 QWORD PTR [esp], xmm1
  004f3	f2 0f 11 85 fc
	fe ff ff	 movsd	 QWORD PTR tv420[ebp], xmm0
  004fb	e8 00 00 00 00	 call	 _log
  00500	83 c4 08	 add	 esp, 8
  00503	dd 9d f4 fe ff
	ff		 fstp	 QWORD PTR tv360[ebp]
  00509	f2 0f 10 85 fc
	fe ff ff	 movsd	 xmm0, QWORD PTR tv420[ebp]
  00511	f2 0f 5e 85 f4
	fe ff ff	 divsd	 xmm0, QWORD PTR tv360[ebp]
  00519	f2 0f 59 05 00
	00 00 00	 mulsd	 xmm0, QWORD PTR __real@40c3880000000000
  00521	f2 0f 2c f0	 cvttsd2si esi, xmm0
  00525	f2 0f 5a 45 d0	 cvtsd2ss xmm0, QWORD PTR _d6$[ebp]
  0052a	f3 0f 5a c0	 cvtss2sd xmm0, xmm0
  0052e	83 ec 08	 sub	 esp, 8
  00531	f2 0f 11 04 24	 movsd	 QWORD PTR [esp], xmm0
  00536	e8 00 00 00 00	 call	 _log
  0053b	83 c4 08	 add	 esp, 8
  0053e	dd 9d ec fe ff
	ff		 fstp	 QWORD PTR tv365[ebp]
  00544	f2 0f 10 85 ec
	fe ff ff	 movsd	 xmm0, QWORD PTR tv365[ebp]
  0054c	83 ec 08	 sub	 esp, 8
  0054f	f2 0f 10 0d 00
	00 00 00	 movsd	 xmm1, QWORD PTR __real@4059000000000000
  00557	f2 0f 11 0c 24	 movsd	 QWORD PTR [esp], xmm1
  0055c	f2 0f 11 85 e4
	fe ff ff	 movsd	 QWORD PTR tv422[ebp], xmm0
  00564	e8 00 00 00 00	 call	 _log
  00569	83 c4 08	 add	 esp, 8
  0056c	dd 9d dc fe ff
	ff		 fstp	 QWORD PTR tv371[ebp]
  00572	f2 0f 10 85 e4
	fe ff ff	 movsd	 xmm0, QWORD PTR tv422[ebp]
  0057a	f2 0f 5e 85 dc
	fe ff ff	 divsd	 xmm0, QWORD PTR tv371[ebp]
  00582	f2 0f 59 05 00
	00 00 00	 mulsd	 xmm0, QWORD PTR __real@40c3880000000000
  0058a	f2 0f 2c c0	 cvttsd2si eax, xmm0
  0058e	2b f0		 sub	 esi, eax
  00590	89 75 e0	 mov	 DWORD PTR _y$[ebp], esi

; 1862 : 		if(y>10000)

  00593	81 7d e0 10 27
	00 00		 cmp	 DWORD PTR _y$[ebp], 10000 ; 00002710H
  0059a	7e 07		 jle	 SHORT $LN30@music_init

; 1863 : 			y=10000;

  0059c	c7 45 e0 10 27
	00 00		 mov	 DWORD PTR _y$[ebp], 10000 ; 00002710H
$LN30@music_init:

; 1864 : 		volume_tbl[(int)d6]=-y;

  005a3	8b 45 e0	 mov	 eax, DWORD PTR _y$[ebp]
  005a6	f7 d8		 neg	 eax
  005a8	f2 0f 2c 4d d0	 cvttsd2si ecx, QWORD PTR _d6$[ebp]
  005ad	89 04 8d 00 00
	00 00		 mov	 DWORD PTR ?volume_tbl@@3PAJA[ecx*4], eax

; 1865 : 	}

  005b4	e9 df fe ff ff	 jmp	 $LN20@music_init
$LN21@music_init:

; 1866 : 	//CCFIX
; 1867 : 	//volume_tbl[0]的值有问题
; 1868 : 	//手工修到-10000
; 1869 : 	volume_tbl[0]=-10000;

  005b9	b8 04 00 00 00	 mov	 eax, 4
  005be	6b c8 00	 imul	 ecx, eax, 0
  005c1	c7 81 00 00 00
	00 f0 d8 ff ff	 mov	 DWORD PTR ?volume_tbl@@3PAJA[ecx], -10000 ; ffffd8f0H

; 1870 : 
; 1871 : 	//??????????
; 1872 : 	for(d7=0;d7<12*5+5;d7++)

  005cb	c7 45 f8 00 00
	00 00		 mov	 DWORD PTR _d7$[ebp], 0
  005d2	eb 09		 jmp	 SHORT $LN25@music_init
$LN23@music_init:
  005d4	8b 45 f8	 mov	 eax, DWORD PTR _d7$[ebp]
  005d7	83 c0 01	 add	 eax, 1
  005da	89 45 f8	 mov	 DWORD PTR _d7$[ebp], eax
$LN25@music_init:
  005dd	83 7d f8 41	 cmp	 DWORD PTR _d7$[ebp], 65	; 00000041H
  005e1	7d 20		 jge	 SHORT $LN24@music_init

; 1873 : 		detune_tbl[d7]=freq_tbl[d7+1]-freq_tbl[d7];

  005e3	8b 45 f8	 mov	 eax, DWORD PTR _d7$[ebp]
  005e6	8b 4d f8	 mov	 ecx, DWORD PTR _d7$[ebp]
  005e9	8b 14 85 04 00
	00 00		 mov	 edx, DWORD PTR ?freq_tbl@@3PAHA[eax*4+4]
  005f0	2b 14 8d 00 00
	00 00		 sub	 edx, DWORD PTR ?freq_tbl@@3PAHA[ecx*4]
  005f7	8b 45 f8	 mov	 eax, DWORD PTR _d7$[ebp]
  005fa	89 14 85 00 00
	00 00		 mov	 DWORD PTR ?detune_tbl@@3PAHA[eax*4], edx
  00601	eb d1		 jmp	 SHORT $LN23@music_init
$LN24@music_init:

; 1874 : 
; 1875 : //	play_bgm( 2);
; 1876 : 
; 1877 : }

  00603	5f		 pop	 edi
  00604	5e		 pop	 esi
  00605	5b		 pop	 ebx
  00606	81 c4 24 01 00
	00		 add	 esp, 292		; 00000124H
  0060c	3b ec		 cmp	 ebp, esp
  0060e	e8 00 00 00 00	 call	 __RTC_CheckEsp
  00613	8b e5		 mov	 esp, ebp
  00615	5d		 pop	 ebp
  00616	c3		 ret	 0
?music_init@@YAXXZ ENDP					; music_init
_TEXT	ENDS
; Function compile flags: /Odtp /RTCsu /ZI
; File c:\users\administrator\desktop\????? ??\????? ??\client source code\system\t_music.cpp
;	COMDAT ?music_read@@YAHXZ
_TEXT	SEGMENT
tv1029 = -4696						; size = 4
tv760 = -4696						; size = 4
tv279 = -4696						; size = 4
tv260 = -4696						; size = 4
_waon_delay_point$1 = -3344				; size = 4
_octave$2 = -3332					; size = 4
_waon_cnt$3 = -3320					; size = 4
_waon_note$4 = -3308					; size = 36
_waon_step$5 = -3264					; size = 4
_fp$ = -3252						; size = 4
_moji$ = -3240						; size = 256
_d6$ = -2976						; size = 4
_q_com$ = -2964						; size = 128
_o_tempo$ = -2828					; size = 4
_waon_delay$ = -2816					; size = 128
_ch_kuri_lv$ = -2680					; size = 128
_ch_skip$ = -2544					; size = 1024
_ch_ret$ = -1512					; size = 1024
_err_line$ = -480					; size = 4
_err_flg$ = -468					; size = 4
_ch_oct$ = -456						; size = 128
_do_p$ = -320						; size = 128
_ch_p$ = -184						; size = 128
_ch$ = -48						; size = 4
_d7$ = -36						; size = 4
_d1$ = -24						; size = 4
_d0$ = -12						; size = 4
__$ArrayPad$ = -4					; size = 4
?music_read@@YAHXZ PROC					; music_read, COMDAT

; 1084 : {

  00000	55		 push	 ebp
  00001	8b ec		 mov	 ebp, esp
  00003	b8 58 12 00 00	 mov	 eax, 4696		; 00001258H
  00008	e8 00 00 00 00	 call	 __chkstk
  0000d	53		 push	 ebx
  0000e	56		 push	 esi
  0000f	57		 push	 edi
  00010	8d bd a8 ed ff
	ff		 lea	 edi, DWORD PTR [ebp-4696]
  00016	b9 96 04 00 00	 mov	 ecx, 1174		; 00000496H
  0001b	b8 cc cc cc cc	 mov	 eax, -858993460		; ccccccccH
  00020	f3 ab		 rep stosd
  00022	a1 00 00 00 00	 mov	 eax, DWORD PTR ___security_cookie
  00027	33 c5		 xor	 eax, ebp
  00029	89 45 fc	 mov	 DWORD PTR __$ArrayPad$[ebp], eax

; 1085 : 	int d0,d1,d7,ch,ch_p[TRACK_MAX],do_p[TRACK_MAX],ch_oct[TRACK_MAX],err_flg=-1,err_line=0;

  0002c	c7 85 2c fe ff
	ff ff ff ff ff	 mov	 DWORD PTR _err_flg$[ebp], -1
  00036	c7 85 20 fe ff
	ff 00 00 00 00	 mov	 DWORD PTR _err_line$[ebp], 0

; 1086 : 	int ch_ret[8][TRACK_MAX],ch_skip[8][TRACK_MAX],ch_kuri_lv[TRACK_MAX],waon_delay[TRACK_MAX];
; 1087 : 	int o_tempo,q_com[TRACK_MAX];
; 1088 : 	long d6;
; 1089 : 	char moji[256];
; 1090 : 	FILE *fp;
; 1091 : 	fp = fopen( "oft.mml", "r" );

  00040	8b f4		 mov	 esi, esp
  00042	68 00 00 00 00	 push	 OFFSET ??_C@_01KDCPPGHE@r?$AA@
  00047	68 00 00 00 00	 push	 OFFSET ??_C@_07NFDJGGOK@oft?4mml?$AA@
  0004c	ff 15 00 00 00
	00		 call	 DWORD PTR __imp__fopen
  00052	83 c4 08	 add	 esp, 8
  00055	3b f4		 cmp	 esi, esp
  00057	e8 00 00 00 00	 call	 __RTC_CheckEsp
  0005c	89 85 4c f3 ff
	ff		 mov	 DWORD PTR _fp$[ebp], eax

; 1092 : 	if( fp == NULL ){

  00062	83 bd 4c f3 ff
	ff 00		 cmp	 DWORD PTR _fp$[ebp], 0
  00069	75 2e		 jne	 SHORT $LN40@music_read

; 1093 : 		sprintf( moji ,"%s" ,err_msg[0] );

  0006b	b8 04 00 00 00	 mov	 eax, 4
  00070	6b c8 00	 imul	 ecx, eax, 0
  00073	8b 91 00 00 00
	00		 mov	 edx, DWORD PTR ?err_msg@@3PAPADA[ecx]
  00079	52		 push	 edx
  0007a	68 00 00 00 00	 push	 OFFSET ??_C@_02DKCKIIND@?$CFs?$AA@
  0007f	8d 85 58 f3 ff
	ff		 lea	 eax, DWORD PTR _moji$[ebp]
  00085	50		 push	 eax
  00086	e8 00 00 00 00	 call	 _sprintf
  0008b	83 c4 0c	 add	 esp, 12			; 0000000cH

; 1094 : #ifdef  _STONDEBUG_
; 1095 : 		MessageBox(hWnd, moji, "Error", MB_OK);
; 1096 : #endif
; 1097 : 		return err_flg;

  0008e	8b 85 2c fe ff
	ff		 mov	 eax, DWORD PTR _err_flg$[ebp]
  00094	e9 55 21 00 00	 jmp	 $LN1@music_read
$LN40@music_read:

; 1098 : 	}
; 1099 : 
; 1100 : 	for(d7=0;d7<TRACK_MAX;d7++){

  00099	c7 45 dc 00 00
	00 00		 mov	 DWORD PTR _d7$[ebp], 0
  000a0	eb 09		 jmp	 SHORT $LN4@music_read
$LN2@music_read:
  000a2	8b 45 dc	 mov	 eax, DWORD PTR _d7$[ebp]
  000a5	83 c0 01	 add	 eax, 1
  000a8	89 45 dc	 mov	 DWORD PTR _d7$[ebp], eax
$LN4@music_read:
  000ab	83 7d dc 20	 cmp	 DWORD PTR _d7$[ebp], 32	; 00000020H
  000af	0f 8d b5 00 00
	00		 jge	 $LN3@music_read

; 1101 : 		ch_p[d7] = 0;

  000b5	8b 45 dc	 mov	 eax, DWORD PTR _d7$[ebp]
  000b8	c7 84 85 48 ff
	ff ff 00 00 00
	00		 mov	 DWORD PTR _ch_p$[ebp+eax*4], 0

; 1102 : 		do_p[d7] = 0;

  000c3	8b 45 dc	 mov	 eax, DWORD PTR _d7$[ebp]
  000c6	c7 84 85 c0 fe
	ff ff 00 00 00
	00		 mov	 DWORD PTR _do_p$[ebp+eax*4], 0

; 1103 : 		ch_oct[d7] = 4;

  000d1	8b 45 dc	 mov	 eax, DWORD PTR _d7$[ebp]
  000d4	c7 84 85 38 fe
	ff ff 04 00 00
	00		 mov	 DWORD PTR _ch_oct$[ebp+eax*4], 4

; 1104 : 		step_def[d7] = 48;

  000df	8b 45 dc	 mov	 eax, DWORD PTR _d7$[ebp]
  000e2	c7 04 85 00 00
	00 00 30 00 00
	00		 mov	 DWORD PTR ?step_def@@3PAHA[eax*4], 48 ; 00000030H

; 1105 : 		play_track_flg[ d7 ] = 0;

  000ed	8b 45 dc	 mov	 eax, DWORD PTR _d7$[ebp]
  000f0	c7 04 85 00 00
	00 00 00 00 00
	00		 mov	 DWORD PTR ?play_track_flg@@3PAHA[eax*4], 0

; 1106 : 		ch_kuri_lv[d7] = -1;

  000fb	8b 45 dc	 mov	 eax, DWORD PTR _d7$[ebp]
  000fe	c7 84 85 88 f5
	ff ff ff ff ff
	ff		 mov	 DWORD PTR _ch_kuri_lv$[ebp+eax*4], -1

; 1107 : 		for(d6=0;d6<8;d6++)

  00109	c7 85 60 f4 ff
	ff 00 00 00 00	 mov	 DWORD PTR _d6$[ebp], 0
  00113	eb 0f		 jmp	 SHORT $LN7@music_read
$LN5@music_read:
  00115	8b 85 60 f4 ff
	ff		 mov	 eax, DWORD PTR _d6$[ebp]
  0011b	83 c0 01	 add	 eax, 1
  0011e	89 85 60 f4 ff
	ff		 mov	 DWORD PTR _d6$[ebp], eax
$LN7@music_read:
  00124	83 bd 60 f4 ff
	ff 08		 cmp	 DWORD PTR _d6$[ebp], 8
  0012b	7d 1c		 jge	 SHORT $LN6@music_read

; 1108 : 			ch_skip[d6][d7] = -1;

  0012d	8b 85 60 f4 ff
	ff		 mov	 eax, DWORD PTR _d6$[ebp]
  00133	c1 e0 07	 shl	 eax, 7
  00136	8d 8c 05 10 f6
	ff ff		 lea	 ecx, DWORD PTR _ch_skip$[ebp+eax]
  0013d	8b 55 dc	 mov	 edx, DWORD PTR _d7$[ebp]
  00140	c7 04 91 ff ff
	ff ff		 mov	 DWORD PTR [ecx+edx*4], -1
  00147	eb cc		 jmp	 SHORT $LN5@music_read
$LN6@music_read:

; 1109 : 		q_com[d7] = 8;

  00149	8b 45 dc	 mov	 eax, DWORD PTR _d7$[ebp]
  0014c	c7 84 85 6c f4
	ff ff 08 00 00
	00		 mov	 DWORD PTR _q_com$[ebp+eax*4], 8

; 1110 : 		waon_delay[d7] = 0;

  00157	8b 45 dc	 mov	 eax, DWORD PTR _d7$[ebp]
  0015a	c7 84 85 00 f5
	ff ff 00 00 00
	00		 mov	 DWORD PTR _waon_delay$[ebp+eax*4], 0

; 1111 : 	}

  00165	e9 38 ff ff ff	 jmp	 $LN2@music_read
$LN3@music_read:

; 1112 : 	o_tempo=0;

  0016a	c7 85 f4 f4 ff
	ff 00 00 00 00	 mov	 DWORD PTR _o_tempo$[ebp], 0
$LN269@music_read:

; 1113 : 
; 1114 : 	//??????????  ??  ??????????
; 1115 : 
; 1116 : 	while(1){

  00174	b8 01 00 00 00	 mov	 eax, 1
  00179	85 c0		 test	 eax, eax
  0017b	0f 84 29 1f 00
	00		 je	 $LN9@music_read

; 1117 : 
; 1118 : 		//??????????  ????k?@e  ??????????
; 1119 : 
; 1120 : 		err_line++;

  00181	8b 85 20 fe ff
	ff		 mov	 eax, DWORD PTR _err_line$[ebp]
  00187	83 c0 01	 add	 eax, 1
  0018a	89 85 20 fe ff
	ff		 mov	 DWORD PTR _err_line$[ebp], eax

; 1121 : 
; 1122 : 		if((d0 = f_get( fp )) == EOF)		//????k???

  00190	8b 85 4c f3 ff
	ff		 mov	 eax, DWORD PTR _fp$[ebp]
  00196	50		 push	 eax
  00197	e8 00 00 00 00	 call	 ?f_get@@YAHPAU_iobuf@@@Z ; f_get
  0019c	83 c4 04	 add	 esp, 4
  0019f	89 45 f4	 mov	 DWORD PTR _d0$[ebp], eax
  001a2	83 7d f4 ff	 cmp	 DWORD PTR _d0$[ebp], -1
  001a6	75 05		 jne	 SHORT $LN41@music_read

; 1123 : 			break;		//?????Z?

  001a8	e9 fd 1e 00 00	 jmp	 $LN9@music_read
$LN41@music_read:

; 1124 : 		if( d0 == '\n' )		//???

  001ad	83 7d f4 0a	 cmp	 DWORD PTR _d0$[ebp], 10	; 0000000aH
  001b1	75 02		 jne	 SHORT $LN42@music_read

; 1125 : 			continue;			//???????

  001b3	eb bf		 jmp	 SHORT $LN269@music_read
$LN42@music_read:

; 1126 : 		if( d0 == '/' ){		//?????

  001b5	83 7d f4 2f	 cmp	 DWORD PTR _d0$[ebp], 47	; 0000002fH
  001b9	75 2d		 jne	 SHORT $LN43@music_read
$LN10@music_read:

; 1127 : 			while(1){			//????????

  001bb	b8 01 00 00 00	 mov	 eax, 1
  001c0	85 c0		 test	 eax, eax
  001c2	74 22		 je	 SHORT $LN11@music_read

; 1128 : 				d0 = f_get( fp );

  001c4	8b 85 4c f3 ff
	ff		 mov	 eax, DWORD PTR _fp$[ebp]
  001ca	50		 push	 eax
  001cb	e8 00 00 00 00	 call	 ?f_get@@YAHPAU_iobuf@@@Z ; f_get
  001d0	83 c4 04	 add	 esp, 4
  001d3	89 45 f4	 mov	 DWORD PTR _d0$[ebp], eax

; 1129 : 				if(d0 == '\n' || d0 == EOF )

  001d6	83 7d f4 0a	 cmp	 DWORD PTR _d0$[ebp], 10	; 0000000aH
  001da	74 06		 je	 SHORT $LN45@music_read
  001dc	83 7d f4 ff	 cmp	 DWORD PTR _d0$[ebp], -1
  001e0	75 02		 jne	 SHORT $LN44@music_read
$LN45@music_read:

; 1130 : 					break;

  001e2	eb 02		 jmp	 SHORT $LN11@music_read
$LN44@music_read:

; 1131 : 			}

  001e4	eb d5		 jmp	 SHORT $LN10@music_read
$LN11@music_read:

; 1132 : 			continue;			//???????

  001e6	eb 8c		 jmp	 SHORT $LN269@music_read
$LN43@music_read:

; 1133 : 		}
; 1134 : 		if( d0 != '(' ){		//??????

  001e8	83 7d f4 28	 cmp	 DWORD PTR _d0$[ebp], 40	; 00000028H
  001ec	74 14		 je	 SHORT $LN46@music_read

; 1135 : 			err_flg=M_TRACK_ERR;

  001ee	c7 85 2c fe ff
	ff 02 00 00 00	 mov	 DWORD PTR _err_flg$[ebp], 2

; 1136 : 			goto music_read_999;

  001f8	e9 ee 1e 00 00	 jmp	 $LN47@music_read
  001fd	e9 3d 1f 00 00	 jmp	 $music_read_999$312
$LN46@music_read:

; 1137 : 		}
; 1138 : 		if((d0 = f_get( fp )) == EOF)		//????k???

  00202	8b 85 4c f3 ff
	ff		 mov	 eax, DWORD PTR _fp$[ebp]
  00208	50		 push	 eax
  00209	e8 00 00 00 00	 call	 ?f_get@@YAHPAU_iobuf@@@Z ; f_get
  0020e	83 c4 04	 add	 esp, 4
  00211	89 45 f4	 mov	 DWORD PTR _d0$[ebp], eax
  00214	83 7d f4 ff	 cmp	 DWORD PTR _d0$[ebp], -1
  00218	75 05		 jne	 SHORT $LN48@music_read

; 1139 : 			break;		//?????Z?

  0021a	e9 8b 1e 00 00	 jmp	 $LN9@music_read
$LN48@music_read:

; 1140 : 		if( d0 == 'p' ){		//?????e?

  0021f	83 7d f4 70	 cmp	 DWORD PTR _d0$[ebp], 112 ; 00000070H
  00223	0f 85 58 01 00
	00		 jne	 $LN49@music_read

; 1141 : 			if((d0 = f_get( fp )) == EOF){		//u??????

  00229	8b 85 4c f3 ff
	ff		 mov	 eax, DWORD PTR _fp$[ebp]
  0022f	50		 push	 eax
  00230	e8 00 00 00 00	 call	 ?f_get@@YAHPAU_iobuf@@@Z ; f_get
  00235	83 c4 04	 add	 esp, 4
  00238	89 45 f4	 mov	 DWORD PTR _d0$[ebp], eax
  0023b	83 7d f4 ff	 cmp	 DWORD PTR _d0$[ebp], -1
  0023f	75 14		 jne	 SHORT $LN50@music_read

; 1142 : 				err_flg=M_PLAY_ERR;

  00241	c7 85 2c fe ff
	ff 0e 00 00 00	 mov	 DWORD PTR _err_flg$[ebp], 14 ; 0000000eH

; 1143 : 				goto music_read_999;

  0024b	e9 9d 1e 00 00	 jmp	 $LN51@music_read
  00250	e9 ea 1e 00 00	 jmp	 $music_read_999$312
$LN50@music_read:

; 1144 : 
; 1145 : 			}
; 1146 : 			if( d0 == ')'){		//??

  00255	83 7d f4 29	 cmp	 DWORD PTR _d0$[ebp], 41	; 00000029H
  00259	75 14		 jne	 SHORT $LN52@music_read

; 1147 : 				err_line--;		//??Q??????????

  0025b	8b 85 20 fe ff
	ff		 mov	 eax, DWORD PTR _err_line$[ebp]
  00261	83 e8 01	 sub	 eax, 1
  00264	89 85 20 fe ff
	ff		 mov	 DWORD PTR _err_line$[ebp], eax

; 1148 : 				continue;

  0026a	e9 05 ff ff ff	 jmp	 $LN269@music_read
$LN52@music_read:

; 1149 : 			}
; 1150 : 
; 1151 : 			fseek(fp,-1,SEEK_CUR);		//??????

  0026f	8b f4		 mov	 esi, esp
  00271	6a 01		 push	 1
  00273	6a ff		 push	 -1
  00275	8b 85 4c f3 ff
	ff		 mov	 eax, DWORD PTR _fp$[ebp]
  0027b	50		 push	 eax
  0027c	ff 15 00 00 00
	00		 call	 DWORD PTR __imp__fseek
  00282	83 c4 0c	 add	 esp, 12			; 0000000cH
  00285	3b f4		 cmp	 esi, esp
  00287	e8 00 00 00 00	 call	 __RTC_CheckEsp

; 1152 : 			for(d7=0;d7<TRACK_MAX;d7++)		//????????

  0028c	c7 45 dc 00 00
	00 00		 mov	 DWORD PTR _d7$[ebp], 0
  00293	eb 09		 jmp	 SHORT $LN14@music_read
$LN12@music_read:
  00295	8b 45 dc	 mov	 eax, DWORD PTR _d7$[ebp]
  00298	83 c0 01	 add	 eax, 1
  0029b	89 45 dc	 mov	 DWORD PTR _d7$[ebp], eax
$LN14@music_read:
  0029e	83 7d dc 20	 cmp	 DWORD PTR _d7$[ebp], 32	; 00000020H
  002a2	7d 10		 jge	 SHORT $LN13@music_read

; 1153 : 				play_track_flg[ d7 ] = 0;	//

  002a4	8b 45 dc	 mov	 eax, DWORD PTR _d7$[ebp]
  002a7	c7 04 85 00 00
	00 00 00 00 00
	00		 mov	 DWORD PTR ?play_track_flg@@3PAHA[eax*4], 0
  002b2	eb e1		 jmp	 SHORT $LN12@music_read
$LN13@music_read:

; 1154 : 
; 1155 : 			while(1){

  002b4	b8 01 00 00 00	 mov	 eax, 1
  002b9	85 c0		 test	 eax, eax
  002bb	0f 84 ac 00 00
	00		 je	 $LN16@music_read

; 1156 : 				if((d0 = fgetc( fp )) == EOF){		//??

  002c1	8b f4		 mov	 esi, esp
  002c3	8b 85 4c f3 ff
	ff		 mov	 eax, DWORD PTR _fp$[ebp]
  002c9	50		 push	 eax
  002ca	ff 15 00 00 00
	00		 call	 DWORD PTR __imp__fgetc
  002d0	83 c4 04	 add	 esp, 4
  002d3	3b f4		 cmp	 esi, esp
  002d5	e8 00 00 00 00	 call	 __RTC_CheckEsp
  002da	89 45 f4	 mov	 DWORD PTR _d0$[ebp], eax
  002dd	83 7d f4 ff	 cmp	 DWORD PTR _d0$[ebp], -1
  002e1	75 14		 jne	 SHORT $LN53@music_read

; 1157 : 					err_flg=M_PLAY_ERR;

  002e3	c7 85 2c fe ff
	ff 0e 00 00 00	 mov	 DWORD PTR _err_flg$[ebp], 14 ; 0000000eH

; 1158 : 					goto music_read_999;

  002ed	e9 fd 1d 00 00	 jmp	 $LN54@music_read
  002f2	e9 48 1e 00 00	 jmp	 $music_read_999$312
$LN53@music_read:

; 1159 : 				}
; 1160 : 				if( d0 == ')')			//??

  002f7	83 7d f4 29	 cmp	 DWORD PTR _d0$[ebp], 41	; 00000029H
  002fb	75 02		 jne	 SHORT $LN55@music_read

; 1161 : 					break;

  002fd	eb 6e		 jmp	 SHORT $LN16@music_read
$LN55@music_read:

; 1162 : 
; 1163 : 				if( d0 >= '0' && d0<= '9' ){		//???

  002ff	83 7d f4 30	 cmp	 DWORD PTR _d0$[ebp], 48	; 00000030H
  00303	7c 63		 jl	 SHORT $LN56@music_read
  00305	83 7d f4 39	 cmp	 DWORD PTR _d0$[ebp], 57	; 00000039H
  00309	7f 5d		 jg	 SHORT $LN56@music_read

; 1164 : 					fseek(fp,-1,SEEK_CUR);		//??????

  0030b	8b f4		 mov	 esi, esp
  0030d	6a 01		 push	 1
  0030f	6a ff		 push	 -1
  00311	8b 85 4c f3 ff
	ff		 mov	 eax, DWORD PTR _fp$[ebp]
  00317	50		 push	 eax
  00318	ff 15 00 00 00
	00		 call	 DWORD PTR __imp__fseek
  0031e	83 c4 0c	 add	 esp, 12			; 0000000cH
  00321	3b f4		 cmp	 esi, esp
  00323	e8 00 00 00 00	 call	 __RTC_CheckEsp

; 1165 : 					d0 = get_num( fp );

  00328	8b 85 4c f3 ff
	ff		 mov	 eax, DWORD PTR _fp$[ebp]
  0032e	50		 push	 eax
  0032f	e8 00 00 00 00	 call	 ?get_num@@YAHPAU_iobuf@@@Z ; get_num
  00334	83 c4 04	 add	 esp, 4
  00337	89 45 f4	 mov	 DWORD PTR _d0$[ebp], eax

; 1166 : 					if(d0 < 1 || d0 > TRACK_MAX){

  0033a	83 7d f4 01	 cmp	 DWORD PTR _d0$[ebp], 1
  0033e	7c 06		 jl	 SHORT $LN58@music_read
  00340	83 7d f4 20	 cmp	 DWORD PTR _d0$[ebp], 32	; 00000020H
  00344	7e 14		 jle	 SHORT $LN57@music_read
$LN58@music_read:

; 1167 : 						err_flg=M_PLAY_ERR;

  00346	c7 85 2c fe ff
	ff 0e 00 00 00	 mov	 DWORD PTR _err_flg$[ebp], 14 ; 0000000eH

; 1168 : 						goto music_read_999;

  00350	e9 9c 1d 00 00	 jmp	 $LN59@music_read
  00355	e9 e5 1d 00 00	 jmp	 $music_read_999$312
$LN57@music_read:

; 1169 : 					}
; 1170 : 					play_track_flg[ d0-1 ] = 1;	//????????

  0035a	8b 45 f4	 mov	 eax, DWORD PTR _d0$[ebp]
  0035d	c7 04 85 fc ff
	ff ff 01 00 00
	00		 mov	 DWORD PTR ?play_track_flg@@3PAHA[eax*4-4], 1
$LN56@music_read:

; 1171 : 				}
; 1172 : 			}

  00368	e9 47 ff ff ff	 jmp	 $LN13@music_read
$LN16@music_read:

; 1173 : 			err_line--;		//??Q??????????

  0036d	8b 85 20 fe ff
	ff		 mov	 eax, DWORD PTR _err_line$[ebp]
  00373	83 e8 01	 sub	 eax, 1
  00376	89 85 20 fe ff
	ff		 mov	 DWORD PTR _err_line$[ebp], eax

; 1174 : 			continue;

  0037c	e9 f3 fd ff ff	 jmp	 $LN269@music_read
$LN49@music_read:

; 1175 : 		}
; 1176 : 
; 1177 : 		if( d0 == 's' ){		//????????e?

  00381	83 7d f4 73	 cmp	 DWORD PTR _d0$[ebp], 115 ; 00000073H
  00385	0f 85 cd 00 00
	00		 jne	 $LN60@music_read
$LN17@music_read:

; 1178 : 			while(1){

  0038b	b8 01 00 00 00	 mov	 eax, 1
  00390	85 c0		 test	 eax, eax
  00392	0f 84 ac 00 00
	00		 je	 $LN18@music_read

; 1179 : 				if((d0 = fgetc( fp )) == EOF){		//??

  00398	8b f4		 mov	 esi, esp
  0039a	8b 85 4c f3 ff
	ff		 mov	 eax, DWORD PTR _fp$[ebp]
  003a0	50		 push	 eax
  003a1	ff 15 00 00 00
	00		 call	 DWORD PTR __imp__fgetc
  003a7	83 c4 04	 add	 esp, 4
  003aa	3b f4		 cmp	 esi, esp
  003ac	e8 00 00 00 00	 call	 __RTC_CheckEsp
  003b1	89 45 f4	 mov	 DWORD PTR _d0$[ebp], eax
  003b4	83 7d f4 ff	 cmp	 DWORD PTR _d0$[ebp], -1
  003b8	75 14		 jne	 SHORT $LN61@music_read

; 1180 : 					err_flg=M_MUTE_ERR;

  003ba	c7 85 2c fe ff
	ff 11 00 00 00	 mov	 DWORD PTR _err_flg$[ebp], 17 ; 00000011H

; 1181 : 					goto music_read_999;

  003c4	e9 2a 1d 00 00	 jmp	 $LN62@music_read
  003c9	e9 71 1d 00 00	 jmp	 $music_read_999$312
$LN61@music_read:

; 1182 : 				}
; 1183 : 				if( d0 == ')')			//??

  003ce	83 7d f4 29	 cmp	 DWORD PTR _d0$[ebp], 41	; 00000029H
  003d2	75 02		 jne	 SHORT $LN63@music_read

; 1184 : 					break;

  003d4	eb 6e		 jmp	 SHORT $LN18@music_read
$LN63@music_read:

; 1185 : 
; 1186 : 				if( d0 >= '0' && d0<= '9' ){		//???

  003d6	83 7d f4 30	 cmp	 DWORD PTR _d0$[ebp], 48	; 00000030H
  003da	7c 63		 jl	 SHORT $LN64@music_read
  003dc	83 7d f4 39	 cmp	 DWORD PTR _d0$[ebp], 57	; 00000039H
  003e0	7f 5d		 jg	 SHORT $LN64@music_read

; 1187 : 					fseek(fp,-1,SEEK_CUR);		//??????

  003e2	8b f4		 mov	 esi, esp
  003e4	6a 01		 push	 1
  003e6	6a ff		 push	 -1
  003e8	8b 85 4c f3 ff
	ff		 mov	 eax, DWORD PTR _fp$[ebp]
  003ee	50		 push	 eax
  003ef	ff 15 00 00 00
	00		 call	 DWORD PTR __imp__fseek
  003f5	83 c4 0c	 add	 esp, 12			; 0000000cH
  003f8	3b f4		 cmp	 esi, esp
  003fa	e8 00 00 00 00	 call	 __RTC_CheckEsp

; 1188 : 					d0 = get_num( fp );

  003ff	8b 85 4c f3 ff
	ff		 mov	 eax, DWORD PTR _fp$[ebp]
  00405	50		 push	 eax
  00406	e8 00 00 00 00	 call	 ?get_num@@YAHPAU_iobuf@@@Z ; get_num
  0040b	83 c4 04	 add	 esp, 4
  0040e	89 45 f4	 mov	 DWORD PTR _d0$[ebp], eax

; 1189 : 					if(d0 < 1 || d0 > TRACK_MAX){

  00411	83 7d f4 01	 cmp	 DWORD PTR _d0$[ebp], 1
  00415	7c 06		 jl	 SHORT $LN66@music_read
  00417	83 7d f4 20	 cmp	 DWORD PTR _d0$[ebp], 32	; 00000020H
  0041b	7e 14		 jle	 SHORT $LN65@music_read
$LN66@music_read:

; 1190 : 						err_flg=M_MUTE_ERR;

  0041d	c7 85 2c fe ff
	ff 11 00 00 00	 mov	 DWORD PTR _err_flg$[ebp], 17 ; 00000011H

; 1191 : 						goto music_read_999;

  00427	e9 c9 1c 00 00	 jmp	 $LN67@music_read
  0042c	e9 0e 1d 00 00	 jmp	 $music_read_999$312
$LN65@music_read:

; 1192 : 					}
; 1193 : 					play_track_flg[ d0-1 ] = 0;	//???????????

  00431	8b 45 f4	 mov	 eax, DWORD PTR _d0$[ebp]
  00434	c7 04 85 fc ff
	ff ff 00 00 00
	00		 mov	 DWORD PTR ?play_track_flg@@3PAHA[eax*4-4], 0
$LN64@music_read:

; 1194 : 				}
; 1195 : 			}

  0043f	e9 47 ff ff ff	 jmp	 $LN17@music_read
$LN18@music_read:

; 1196 : 			err_line--;		//??Q??????????

  00444	8b 85 20 fe ff
	ff		 mov	 eax, DWORD PTR _err_line$[ebp]
  0044a	83 e8 01	 sub	 eax, 1
  0044d	89 85 20 fe ff
	ff		 mov	 DWORD PTR _err_line$[ebp], eax

; 1197 : 			continue;

  00453	e9 1c fd ff ff	 jmp	 $LN269@music_read
$LN60@music_read:

; 1198 : 		}
; 1199 : 
; 1200 : 		if( d0 == 'o' ){		//???e?

  00458	83 7d f4 6f	 cmp	 DWORD PTR _d0$[ebp], 111 ; 0000006fH
  0045c	0f 85 a0 00 00
	00		 jne	 $LN68@music_read

; 1201 : 			if(!num_check( fp )){		//???????

  00462	8b 85 4c f3 ff
	ff		 mov	 eax, DWORD PTR _fp$[ebp]
  00468	50		 push	 eax
  00469	e8 00 00 00 00	 call	 ?num_check@@YAHPAU_iobuf@@@Z ; num_check
  0046e	83 c4 04	 add	 esp, 4
  00471	85 c0		 test	 eax, eax
  00473	75 14		 jne	 SHORT $LN69@music_read

; 1202 : 				err_flg=M_TOCOMMAND_ERR;

  00475	c7 85 2c fe ff
	ff 13 00 00 00	 mov	 DWORD PTR _err_flg$[ebp], 19 ; 00000013H

; 1203 : 				goto music_read_999;

  0047f	e9 73 1c 00 00	 jmp	 $LN70@music_read
  00484	e9 b6 1c 00 00	 jmp	 $music_read_999$312
$LN69@music_read:

; 1204 : 			}
; 1205 : 			o_tempo = get_num( fp );		//?????

  00489	8b 85 4c f3 ff
	ff		 mov	 eax, DWORD PTR _fp$[ebp]
  0048f	50		 push	 eax
  00490	e8 00 00 00 00	 call	 ?get_num@@YAHPAU_iobuf@@@Z ; get_num
  00495	83 c4 04	 add	 esp, 4
  00498	89 85 f4 f4 ff
	ff		 mov	 DWORD PTR _o_tempo$[ebp], eax

; 1206 : 			if((d0 = fgetc( fp )) == EOF){		//??

  0049e	8b f4		 mov	 esi, esp
  004a0	8b 85 4c f3 ff
	ff		 mov	 eax, DWORD PTR _fp$[ebp]
  004a6	50		 push	 eax
  004a7	ff 15 00 00 00
	00		 call	 DWORD PTR __imp__fgetc
  004ad	83 c4 04	 add	 esp, 4
  004b0	3b f4		 cmp	 esi, esp
  004b2	e8 00 00 00 00	 call	 __RTC_CheckEsp
  004b7	89 45 f4	 mov	 DWORD PTR _d0$[ebp], eax
  004ba	83 7d f4 ff	 cmp	 DWORD PTR _d0$[ebp], -1
  004be	75 14		 jne	 SHORT $LN71@music_read

; 1207 : 				err_flg=M_TOCOMMAND_ERR;

  004c0	c7 85 2c fe ff
	ff 13 00 00 00	 mov	 DWORD PTR _err_flg$[ebp], 19 ; 00000013H

; 1208 : 				goto music_read_999;

  004ca	e9 2a 1c 00 00	 jmp	 $LN72@music_read
  004cf	e9 6b 1c 00 00	 jmp	 $music_read_999$312
$LN71@music_read:

; 1209 : 			}
; 1210 : 			if(d0 != ')'){

  004d4	83 7d f4 29	 cmp	 DWORD PTR _d0$[ebp], 41	; 00000029H
  004d8	74 14		 je	 SHORT $LN73@music_read

; 1211 : 				err_flg=M_TOCOMMAND_ERR;

  004da	c7 85 2c fe ff
	ff 13 00 00 00	 mov	 DWORD PTR _err_flg$[ebp], 19 ; 00000013H

; 1212 : 				goto music_read_999;

  004e4	e9 12 1c 00 00	 jmp	 $LN74@music_read
  004e9	e9 51 1c 00 00	 jmp	 $music_read_999$312
$LN73@music_read:

; 1213 : 			}
; 1214 : 			err_line--;		//??Q??????????

  004ee	8b 85 20 fe ff
	ff		 mov	 eax, DWORD PTR _err_line$[ebp]
  004f4	83 e8 01	 sub	 eax, 1
  004f7	89 85 20 fe ff
	ff		 mov	 DWORD PTR _err_line$[ebp], eax

; 1215 : 			continue;

  004fd	e9 72 fc ff ff	 jmp	 $LN269@music_read
$LN68@music_read:

; 1216 : 		}
; 1217 : 
; 1218 : 		if( d0 != 't' ){		//?????

  00502	83 7d f4 74	 cmp	 DWORD PTR _d0$[ebp], 116 ; 00000074H
  00506	74 14		 je	 SHORT $LN75@music_read

; 1219 : 			err_flg=M_TRACK_ERR;

  00508	c7 85 2c fe ff
	ff 02 00 00 00	 mov	 DWORD PTR _err_flg$[ebp], 2

; 1220 : 			goto music_read_999;

  00512	e9 e6 1b 00 00	 jmp	 $LN76@music_read
  00517	e9 23 1c 00 00	 jmp	 $music_read_999$312
$LN75@music_read:

; 1221 : 		}
; 1222 : 		if((d0 = f_get( fp )) == EOF)		//????k???

  0051c	8b 85 4c f3 ff
	ff		 mov	 eax, DWORD PTR _fp$[ebp]
  00522	50		 push	 eax
  00523	e8 00 00 00 00	 call	 ?f_get@@YAHPAU_iobuf@@@Z ; f_get
  00528	83 c4 04	 add	 esp, 4
  0052b	89 45 f4	 mov	 DWORD PTR _d0$[ebp], eax
  0052e	83 7d f4 ff	 cmp	 DWORD PTR _d0$[ebp], -1
  00532	75 05		 jne	 SHORT $LN77@music_read

; 1223 : 			break;		//?????Z?

  00534	e9 71 1b 00 00	 jmp	 $LN9@music_read
$LN77@music_read:

; 1224 : 		if( d0 < '0' || d0> '9' ){		//?????

  00539	83 7d f4 30	 cmp	 DWORD PTR _d0$[ebp], 48	; 00000030H
  0053d	7c 06		 jl	 SHORT $LN79@music_read
  0053f	83 7d f4 39	 cmp	 DWORD PTR _d0$[ebp], 57	; 00000039H
  00543	7e 14		 jle	 SHORT $LN78@music_read
$LN79@music_read:

; 1225 : 			err_flg=M_TRACK_ERR;

  00545	c7 85 2c fe ff
	ff 02 00 00 00	 mov	 DWORD PTR _err_flg$[ebp], 2

; 1226 : 			goto music_read_999;

  0054f	e9 ab 1b 00 00	 jmp	 $LN80@music_read
  00554	e9 e6 1b 00 00	 jmp	 $music_read_999$312
$LN78@music_read:

; 1227 : 		}
; 1228 : 		fseek(fp,-1,SEEK_CUR);		//??????

  00559	8b f4		 mov	 esi, esp
  0055b	6a 01		 push	 1
  0055d	6a ff		 push	 -1
  0055f	8b 85 4c f3 ff
	ff		 mov	 eax, DWORD PTR _fp$[ebp]
  00565	50		 push	 eax
  00566	ff 15 00 00 00
	00		 call	 DWORD PTR __imp__fseek
  0056c	83 c4 0c	 add	 esp, 12			; 0000000cH
  0056f	3b f4		 cmp	 esi, esp
  00571	e8 00 00 00 00	 call	 __RTC_CheckEsp

; 1229 : 		ch = get_num( fp );

  00576	8b 85 4c f3 ff
	ff		 mov	 eax, DWORD PTR _fp$[ebp]
  0057c	50		 push	 eax
  0057d	e8 00 00 00 00	 call	 ?get_num@@YAHPAU_iobuf@@@Z ; get_num
  00582	83 c4 04	 add	 esp, 4
  00585	89 45 d0	 mov	 DWORD PTR _ch$[ebp], eax

; 1230 : 		if((d0 = f_get( fp )) == EOF)		//????k???

  00588	8b 85 4c f3 ff
	ff		 mov	 eax, DWORD PTR _fp$[ebp]
  0058e	50		 push	 eax
  0058f	e8 00 00 00 00	 call	 ?f_get@@YAHPAU_iobuf@@@Z ; f_get
  00594	83 c4 04	 add	 esp, 4
  00597	89 45 f4	 mov	 DWORD PTR _d0$[ebp], eax
  0059a	83 7d f4 ff	 cmp	 DWORD PTR _d0$[ebp], -1
  0059e	75 05		 jne	 SHORT $LN81@music_read

; 1231 : 			break;		//?????Z?

  005a0	e9 05 1b 00 00	 jmp	 $LN9@music_read
$LN81@music_read:

; 1232 : 		if( d0 != ')' ){		//?????

  005a5	83 7d f4 29	 cmp	 DWORD PTR _d0$[ebp], 41	; 00000029H
  005a9	74 14		 je	 SHORT $LN82@music_read

; 1233 : 			err_flg=M_TRACK_ERR;

  005ab	c7 85 2c fe ff
	ff 02 00 00 00	 mov	 DWORD PTR _err_flg$[ebp], 2

; 1234 : 			goto music_read_999;

  005b5	e9 47 1b 00 00	 jmp	 $LN83@music_read
  005ba	e9 80 1b 00 00	 jmp	 $music_read_999$312
$LN82@music_read:

; 1235 : 		}
; 1236 : 
; 1237 : 		if(ch < 1 || ch > TRACK_MAX){

  005bf	83 7d d0 01	 cmp	 DWORD PTR _ch$[ebp], 1
  005c3	7c 06		 jl	 SHORT $LN85@music_read
  005c5	83 7d d0 20	 cmp	 DWORD PTR _ch$[ebp], 32	; 00000020H
  005c9	7e 14		 jle	 SHORT $LN84@music_read
$LN85@music_read:

; 1238 : 			err_flg=M_TRACK_ERR;

  005cb	c7 85 2c fe ff
	ff 02 00 00 00	 mov	 DWORD PTR _err_flg$[ebp], 2

; 1239 : 			goto music_read_999;

  005d5	e9 29 1b 00 00	 jmp	 $LN86@music_read
  005da	e9 60 1b 00 00	 jmp	 $music_read_999$312
$LN84@music_read:

; 1240 : 		}
; 1241 : 
; 1242 : 		ch--;		//?????e

  005df	8b 45 d0	 mov	 eax, DWORD PTR _ch$[ebp]
  005e2	83 e8 01	 sub	 eax, 1
  005e5	89 45 d0	 mov	 DWORD PTR _ch$[ebp], eax

; 1243 : 		play_track_flg[ ch ] = 1;	//

  005e8	8b 45 d0	 mov	 eax, DWORD PTR _ch$[ebp]
  005eb	c7 04 85 00 00
	00 00 01 00 00
	00		 mov	 DWORD PTR ?play_track_flg@@3PAHA[eax*4], 1

; 1244 : 
; 1245 : 		if(o_tempo!=0 && ch_p[ch]==0){		//???e?????

  005f6	83 bd f4 f4 ff
	ff 00		 cmp	 DWORD PTR _o_tempo$[ebp], 0
  005fd	0f 84 91 00 00
	00		 je	 $music_read_100$313
  00603	8b 45 d0	 mov	 eax, DWORD PTR _ch$[ebp]
  00606	83 bc 85 48 ff
	ff ff 00	 cmp	 DWORD PTR _ch_p$[ebp+eax*4], 0
  0060e	0f 85 80 00 00
	00		 jne	 $music_read_100$313

; 1246 : 			step[ch][ch_p[ch]++] = MUSIC_TEMPO;		//u???????????

  00614	8b 45 d0	 mov	 eax, DWORD PTR _ch$[ebp]
  00617	c1 e0 10	 shl	 eax, 16			; 00000010H
  0061a	8b 4d d0	 mov	 ecx, DWORD PTR _ch$[ebp]
  0061d	8b 94 8d 48 ff
	ff ff		 mov	 edx, DWORD PTR _ch_p$[ebp+ecx*4]
  00624	c7 84 90 00 00
	00 00 f9 ff ff
	ff		 mov	 DWORD PTR ?step@@3PAY0EAAA@HA[eax+edx*4], -7 ; fffffff9H
  0062f	8b 45 d0	 mov	 eax, DWORD PTR _ch$[ebp]
  00632	8b 8c 85 48 ff
	ff ff		 mov	 ecx, DWORD PTR _ch_p$[ebp+eax*4]
  00639	83 c1 01	 add	 ecx, 1
  0063c	8b 55 d0	 mov	 edx, DWORD PTR _ch$[ebp]
  0063f	89 8c 95 48 ff
	ff ff		 mov	 DWORD PTR _ch_p$[ebp+edx*4], ecx

; 1247 : #if MODE98
; 1248 : 			step[ch][ch_p[ch]++] = (int)((float)120 / (float)o_tempo * (float)12600)*2;
; 1249 : #else
; 1250 : 			step[ch][ch_p[ch]++] = (int)((float)120 / (float)o_tempo * (float)12600);

  00646	f3 0f 2a 85 f4
	f4 ff ff	 cvtsi2ss xmm0, DWORD PTR _o_tempo$[ebp]
  0064e	f3 0f 10 0d 00
	00 00 00	 movss	 xmm1, DWORD PTR __real@42f00000
  00656	f3 0f 5e c8	 divss	 xmm1, xmm0
  0065a	f3 0f 59 0d 00
	00 00 00	 mulss	 xmm1, DWORD PTR __real@4644e000
  00662	f3 0f 2c c1	 cvttss2si eax, xmm1
  00666	8b 4d d0	 mov	 ecx, DWORD PTR _ch$[ebp]
  00669	c1 e1 10	 shl	 ecx, 16			; 00000010H
  0066c	8b 55 d0	 mov	 edx, DWORD PTR _ch$[ebp]
  0066f	8b 94 95 48 ff
	ff ff		 mov	 edx, DWORD PTR _ch_p$[ebp+edx*4]
  00676	89 84 91 00 00
	00 00		 mov	 DWORD PTR ?step@@3PAY0EAAA@HA[ecx+edx*4], eax
  0067d	8b 45 d0	 mov	 eax, DWORD PTR _ch$[ebp]
  00680	8b 8c 85 48 ff
	ff ff		 mov	 ecx, DWORD PTR _ch_p$[ebp+eax*4]
  00687	83 c1 01	 add	 ecx, 1
  0068a	8b 55 d0	 mov	 edx, DWORD PTR _ch$[ebp]
  0068d	89 8c 95 48 ff
	ff ff		 mov	 DWORD PTR _ch_p$[ebp+edx*4], ecx
$music_read_100$313:

; 1251 : #endif
; 1252 : 		}
; 1253 : 
; 1254 : 		//??????????  ???????@e  ??????????
; 1255 : 
; 1256 : music_read_100:
; 1257 : 		if((d0 = f_get( fp )) == EOF)		//??????

  00694	8b 85 4c f3 ff
	ff		 mov	 eax, DWORD PTR _fp$[ebp]
  0069a	50		 push	 eax
  0069b	e8 00 00 00 00	 call	 ?f_get@@YAHPAU_iobuf@@@Z ; f_get
  006a0	83 c4 04	 add	 esp, 4
  006a3	89 45 f4	 mov	 DWORD PTR _d0$[ebp], eax
  006a6	83 7d f4 ff	 cmp	 DWORD PTR _d0$[ebp], -1
  006aa	75 05		 jne	 SHORT $LN88@music_read

; 1258 : 			break;		//?????Z?

  006ac	e9 f9 19 00 00	 jmp	 $LN9@music_read
$LN88@music_read:

; 1259 : 		switch(d0){

  006b1	8b 45 f4	 mov	 eax, DWORD PTR _d0$[ebp]
  006b4	89 85 a8 ed ff
	ff		 mov	 DWORD PTR tv260[ebp], eax
  006ba	8b 8d a8 ed ff
	ff		 mov	 ecx, DWORD PTR tv260[ebp]
  006c0	83 e9 0a	 sub	 ecx, 10			; 0000000aH
  006c3	89 8d a8 ed ff
	ff		 mov	 DWORD PTR tv260[ebp], ecx
  006c9	83 bd a8 ed ff
	ff 72		 cmp	 DWORD PTR tv260[ebp], 114 ; 00000072H
  006d0	0f 87 bb 19 00
	00		 ja	 $LN258@music_read
  006d6	8b 95 a8 ed ff
	ff		 mov	 edx, DWORD PTR tv260[ebp]
  006dc	0f b6 82 00 00
	00 00		 movzx	 eax, BYTE PTR $LN296@music_read[edx]
  006e3	ff 24 85 00 00
	00 00		 jmp	 DWORD PTR $LN310@music_read[eax*4]
$LN89@music_read:

; 1260 : 		case '\n':		//??
; 1261 : 			break;

  006ea	e9 b6 19 00 00	 jmp	 $LN19@music_read
$LN90@music_read:

; 1262 : 		case '/':		//?????
; 1263 : 			while(1){			//????????

  006ef	b8 01 00 00 00	 mov	 eax, 1
  006f4	85 c0		 test	 eax, eax
  006f6	74 22		 je	 SHORT $LN22@music_read

; 1264 : 				d0 = f_get( fp );

  006f8	8b 85 4c f3 ff
	ff		 mov	 eax, DWORD PTR _fp$[ebp]
  006fe	50		 push	 eax
  006ff	e8 00 00 00 00	 call	 ?f_get@@YAHPAU_iobuf@@@Z ; f_get
  00704	83 c4 04	 add	 esp, 4
  00707	89 45 f4	 mov	 DWORD PTR _d0$[ebp], eax

; 1265 : 				if(d0 == '\n' || d0 == EOF )

  0070a	83 7d f4 0a	 cmp	 DWORD PTR _d0$[ebp], 10	; 0000000aH
  0070e	74 06		 je	 SHORT $LN92@music_read
  00710	83 7d f4 ff	 cmp	 DWORD PTR _d0$[ebp], -1
  00714	75 02		 jne	 SHORT $LN91@music_read
$LN92@music_read:

; 1266 : 					break;

  00716	eb 02		 jmp	 SHORT $LN22@music_read
$LN91@music_read:

; 1267 : 			}

  00718	eb d5		 jmp	 SHORT $LN90@music_read
$LN22@music_read:

; 1268 : 			break;

  0071a	e9 86 19 00 00	 jmp	 $LN19@music_read
$LN93@music_read:

; 1269 : 		case '\'':		//????
; 1270 : 			int waon_step,waon_note[8+1],waon_cnt,octave,waon_delay_point;
; 1271 : 			waon_step = waon_cnt = 0;

  0071f	c7 85 08 f3 ff
	ff 00 00 00 00	 mov	 DWORD PTR _waon_cnt$3[ebp], 0
  00729	8b 85 08 f3 ff
	ff		 mov	 eax, DWORD PTR _waon_cnt$3[ebp]
  0072f	89 85 40 f3 ff
	ff		 mov	 DWORD PTR _waon_step$5[ebp], eax

; 1272 : 			octave = ch_oct[ch];

  00735	8b 45 d0	 mov	 eax, DWORD PTR _ch$[ebp]
  00738	8b 8c 85 38 fe
	ff ff		 mov	 ecx, DWORD PTR _ch_oct$[ebp+eax*4]
  0073f	89 8d fc f2 ff
	ff		 mov	 DWORD PTR _octave$2[ebp], ecx
$LN295@music_read:

; 1273 : 
; 1274 : 			while(1){

  00745	b8 01 00 00 00	 mov	 eax, 1
  0074a	85 c0		 test	 eax, eax
  0074c	0f 84 f3 01 00
	00		 je	 $LN24@music_read

; 1275 : 				d0 = f_get( fp );		//?????

  00752	8b 85 4c f3 ff
	ff		 mov	 eax, DWORD PTR _fp$[ebp]
  00758	50		 push	 eax
  00759	e8 00 00 00 00	 call	 ?f_get@@YAHPAU_iobuf@@@Z ; f_get
  0075e	83 c4 04	 add	 esp, 4
  00761	89 45 f4	 mov	 DWORD PTR _d0$[ebp], eax

; 1276 : 				if( d0 >= '0' && d0<= '9' ){		//????????

  00764	83 7d f4 30	 cmp	 DWORD PTR _d0$[ebp], 48	; 00000030H
  00768	7c 1a		 jl	 SHORT $LN94@music_read
  0076a	83 7d f4 39	 cmp	 DWORD PTR _d0$[ebp], 57	; 00000039H
  0076e	7f 14		 jg	 SHORT $LN94@music_read

; 1277 : 					err_flg=M_WAON_ERR;				//???

  00770	c7 85 2c fe ff
	ff 16 00 00 00	 mov	 DWORD PTR _err_flg$[ebp], 22 ; 00000016H

; 1278 : 					goto music_read_999;

  0077a	e9 86 19 00 00	 jmp	 $LN95@music_read
  0077f	e9 bb 19 00 00	 jmp	 $music_read_999$312
$LN94@music_read:

; 1279 : 				}
; 1280 : 				if(d0 =='<'){		//???????

  00784	83 7d f4 3c	 cmp	 DWORD PTR _d0$[ebp], 60	; 0000003cH
  00788	75 11		 jne	 SHORT $LN96@music_read

; 1281 : 					octave++;

  0078a	8b 85 fc f2 ff
	ff		 mov	 eax, DWORD PTR _octave$2[ebp]
  00790	83 c0 01	 add	 eax, 1
  00793	89 85 fc f2 ff
	ff		 mov	 DWORD PTR _octave$2[ebp], eax

; 1282 : 					continue;

  00799	eb aa		 jmp	 SHORT $LN295@music_read
$LN96@music_read:

; 1283 : 				}
; 1284 : 				if(d0 =='>'){		//????????

  0079b	83 7d f4 3e	 cmp	 DWORD PTR _d0$[ebp], 62	; 0000003eH
  0079f	75 2a		 jne	 SHORT $LN97@music_read

; 1285 : 					octave--;

  007a1	8b 85 fc f2 ff
	ff		 mov	 eax, DWORD PTR _octave$2[ebp]
  007a7	83 e8 01	 sub	 eax, 1
  007aa	89 85 fc f2 ff
	ff		 mov	 DWORD PTR _octave$2[ebp], eax

; 1286 : 					if(octave < 0){		//????????

  007b0	79 14		 jns	 SHORT $LN98@music_read

; 1287 : 						err_flg=M_NOTE_ERR;		//???

  007b2	c7 85 2c fe ff
	ff 0d 00 00 00	 mov	 DWORD PTR _err_flg$[ebp], 13 ; 0000000dH

; 1288 : 						goto music_read_999;	//

  007bc	e9 46 19 00 00	 jmp	 $LN99@music_read
  007c1	e9 79 19 00 00	 jmp	 $music_read_999$312
$LN98@music_read:

; 1289 : 					}
; 1290 : 					continue;

  007c6	e9 7a ff ff ff	 jmp	 $LN295@music_read
$LN97@music_read:

; 1291 : 				}
; 1292 : 				if(d0 =='\''){		//?????

  007cb	83 7d f4 27	 cmp	 DWORD PTR _d0$[ebp], 39	; 00000027H
  007cf	75 05		 jne	 SHORT $LN100@music_read

; 1293 : 					break;

  007d1	e9 6f 01 00 00	 jmp	 $LN24@music_read
$LN100@music_read:

; 1294 : 				}
; 1295 : 				switch(d0){

  007d6	8b 45 f4	 mov	 eax, DWORD PTR _d0$[ebp]
  007d9	89 85 a8 ed ff
	ff		 mov	 DWORD PTR tv279[ebp], eax
  007df	83 bd a8 ed ff
	ff 61		 cmp	 DWORD PTR tv279[ebp], 97 ; 00000061H
  007e6	0f 8c 40 01 00
	00		 jl	 $LN114@music_read
  007ec	83 bd a8 ed ff
	ff 67		 cmp	 DWORD PTR tv279[ebp], 103 ; 00000067H
  007f3	7e 05		 jle	 SHORT $LN101@music_read
  007f5	e9 32 01 00 00	 jmp	 $LN114@music_read
$LN101@music_read:

; 1296 : 				case 'c':		//??
; 1297 : 				case 'd':		//??
; 1298 : 				case 'e':		//??
; 1299 : 				case 'f':		//??
; 1300 : 				case 'g':		//??
; 1301 : 				case 'a':		//??
; 1302 : 				case 'b':		//??
; 1303 : 					d0-='a';

  007fa	8b 45 f4	 mov	 eax, DWORD PTR _d0$[ebp]
  007fd	83 e8 61	 sub	 eax, 97			; 00000061H
  00800	89 45 f4	 mov	 DWORD PTR _d0$[ebp], eax

; 1304 : 					d1 = note_change_tbl[d0];

  00803	8b 45 f4	 mov	 eax, DWORD PTR _d0$[ebp]
  00806	8b 0c 85 00 00
	00 00		 mov	 ecx, DWORD PTR ?note_change_tbl@@3PAHA[eax*4]
  0080d	89 4d e8	 mov	 DWORD PTR _d1$[ebp], ecx

; 1305 : 					d0 = f_get( fp );		//?????

  00810	8b 85 4c f3 ff
	ff		 mov	 eax, DWORD PTR _fp$[ebp]
  00816	50		 push	 eax
  00817	e8 00 00 00 00	 call	 ?f_get@@YAHPAU_iobuf@@@Z ; f_get
  0081c	83 c4 04	 add	 esp, 4
  0081f	89 45 f4	 mov	 DWORD PTR _d0$[ebp], eax

; 1306 : 					if(d0 == '+')

  00822	83 7d f4 2b	 cmp	 DWORD PTR _d0$[ebp], 43	; 0000002bH
  00826	75 0b		 jne	 SHORT $LN102@music_read

; 1307 : 						d1++;

  00828	8b 45 e8	 mov	 eax, DWORD PTR _d1$[ebp]
  0082b	83 c0 01	 add	 eax, 1
  0082e	89 45 e8	 mov	 DWORD PTR _d1$[ebp], eax
  00831	eb 2e		 jmp	 SHORT $LN105@music_read
$LN102@music_read:

; 1308 : 					else if(d0 == '-')

  00833	83 7d f4 2d	 cmp	 DWORD PTR _d0$[ebp], 45	; 0000002dH
  00837	75 0b		 jne	 SHORT $LN104@music_read

; 1309 : 						d1--;

  00839	8b 45 e8	 mov	 eax, DWORD PTR _d1$[ebp]
  0083c	83 e8 01	 sub	 eax, 1
  0083f	89 45 e8	 mov	 DWORD PTR _d1$[ebp], eax
  00842	eb 1d		 jmp	 SHORT $LN105@music_read
$LN104@music_read:

; 1310 : 					else fseek(fp,-1,SEEK_CUR);		//??????

  00844	8b f4		 mov	 esi, esp
  00846	6a 01		 push	 1
  00848	6a ff		 push	 -1
  0084a	8b 85 4c f3 ff
	ff		 mov	 eax, DWORD PTR _fp$[ebp]
  00850	50		 push	 eax
  00851	ff 15 00 00 00
	00		 call	 DWORD PTR __imp__fseek
  00857	83 c4 0c	 add	 esp, 12			; 0000000cH
  0085a	3b f4		 cmp	 esi, esp
  0085c	e8 00 00 00 00	 call	 __RTC_CheckEsp
$LN105@music_read:

; 1311 : 
; 1312 : 					d0 = octave * 12 + d1 +1;	//???k???????

  00861	6b 85 fc f2 ff
	ff 0c		 imul	 eax, DWORD PTR _octave$2[ebp], 12
  00868	8b 4d e8	 mov	 ecx, DWORD PTR _d1$[ebp]
  0086b	8d 54 08 01	 lea	 edx, DWORD PTR [eax+ecx+1]
  0086f	89 55 f4	 mov	 DWORD PTR _d0$[ebp], edx

; 1313 : 					if(d0 < 1 || d0 > 62){		//

  00872	83 7d f4 01	 cmp	 DWORD PTR _d0$[ebp], 1
  00876	7c 06		 jl	 SHORT $LN107@music_read
  00878	83 7d f4 3e	 cmp	 DWORD PTR _d0$[ebp], 62	; 0000003eH
  0087c	7e 14		 jle	 SHORT $LN106@music_read
$LN107@music_read:

; 1314 : 						err_flg=M_NOTE_ERR;		//???

  0087e	c7 85 2c fe ff
	ff 0d 00 00 00	 mov	 DWORD PTR _err_flg$[ebp], 13 ; 0000000dH

; 1315 : 						goto music_read_999;	//

  00888	e9 7c 18 00 00	 jmp	 $LN108@music_read
  0088d	e9 ad 18 00 00	 jmp	 $music_read_999$312
$LN106@music_read:

; 1316 : 					}
; 1317 : 					waon_note[ waon_cnt++ ] = d0;	//???k????

  00892	8b 85 08 f3 ff
	ff		 mov	 eax, DWORD PTR _waon_cnt$3[ebp]
  00898	8b 4d f4	 mov	 ecx, DWORD PTR _d0$[ebp]
  0089b	89 8c 85 14 f3
	ff ff		 mov	 DWORD PTR _waon_note$4[ebp+eax*4], ecx
  008a2	8b 95 08 f3 ff
	ff		 mov	 edx, DWORD PTR _waon_cnt$3[ebp]
  008a8	83 c2 01	 add	 edx, 1
  008ab	89 95 08 f3 ff
	ff		 mov	 DWORD PTR _waon_cnt$3[ebp], edx

; 1318 : 
; 1319 : 					d0 = f_get( fp );		//?????

  008b1	8b 85 4c f3 ff
	ff		 mov	 eax, DWORD PTR _fp$[ebp]
  008b7	50		 push	 eax
  008b8	e8 00 00 00 00	 call	 ?f_get@@YAHPAU_iobuf@@@Z ; f_get
  008bd	83 c4 04	 add	 esp, 4
  008c0	89 45 f4	 mov	 DWORD PTR _d0$[ebp], eax

; 1320 : 					fseek(fp,-1,SEEK_CUR);		//??????

  008c3	8b f4		 mov	 esi, esp
  008c5	6a 01		 push	 1
  008c7	6a ff		 push	 -1
  008c9	8b 85 4c f3 ff
	ff		 mov	 eax, DWORD PTR _fp$[ebp]
  008cf	50		 push	 eax
  008d0	ff 15 00 00 00
	00		 call	 DWORD PTR __imp__fseek
  008d6	83 c4 0c	 add	 esp, 12			; 0000000cH
  008d9	3b f4		 cmp	 esi, esp
  008db	e8 00 00 00 00	 call	 __RTC_CheckEsp

; 1321 : 					if( d0 < '0' || d0> '9' ){		//???????

  008e0	83 7d f4 30	 cmp	 DWORD PTR _d0$[ebp], 48	; 00000030H
  008e4	7c 06		 jl	 SHORT $LN110@music_read
  008e6	83 7d f4 39	 cmp	 DWORD PTR _d0$[ebp], 57	; 00000039H
  008ea	7e 08		 jle	 SHORT $LN111@music_read
$LN110@music_read:

; 1322 : 						if( d0 != '*' ){		//???????????

  008ec	83 7d f4 2a	 cmp	 DWORD PTR _d0$[ebp], 42	; 0000002aH
  008f0	74 02		 je	 SHORT $LN111@music_read

; 1323 : 							break;

  008f2	eb 4c		 jmp	 SHORT $LN25@music_read
$LN111@music_read:

; 1324 : 						}
; 1325 : 					}
; 1326 : 					waon_step = get_step( fp, ch );		//?????????

  008f4	8b 45 d0	 mov	 eax, DWORD PTR _ch$[ebp]
  008f7	50		 push	 eax
  008f8	8b 8d 4c f3 ff
	ff		 mov	 ecx, DWORD PTR _fp$[ebp]
  008fe	51		 push	 ecx
  008ff	e8 00 00 00 00	 call	 ?get_step@@YAHPAU_iobuf@@H@Z ; get_step
  00904	83 c4 08	 add	 esp, 8
  00907	89 85 40 f3 ff
	ff		 mov	 DWORD PTR _waon_step$5[ebp], eax

; 1327 : 					if(waon_step == -1){		//?????

  0090d	83 bd 40 f3 ff
	ff ff		 cmp	 DWORD PTR _waon_step$5[ebp], -1
  00914	75 14		 jne	 SHORT $LN112@music_read

; 1328 : 						err_flg=M_WAON_ERR;				//???

  00916	c7 85 2c fe ff
	ff 16 00 00 00	 mov	 DWORD PTR _err_flg$[ebp], 22 ; 00000016H

; 1329 : 						goto music_read_999;

  00920	e9 e6 17 00 00	 jmp	 $LN113@music_read
  00925	e9 15 18 00 00	 jmp	 $music_read_999$312
$LN112@music_read:

; 1330 : 					}
; 1331 : 					break;

  0092a	eb 14		 jmp	 SHORT $LN25@music_read
$LN114@music_read:

; 1332 : 				default:
; 1333 : 					err_flg=M_WAON_ERR;				//???

  0092c	c7 85 2c fe ff
	ff 16 00 00 00	 mov	 DWORD PTR _err_flg$[ebp], 22 ; 00000016H

; 1334 : 					goto music_read_999;

  00936	e9 d2 17 00 00	 jmp	 $LN115@music_read
  0093b	e9 ff 17 00 00	 jmp	 $music_read_999$312
$LN25@music_read:

; 1335 : 				}
; 1336 : 			}

  00940	e9 00 fe ff ff	 jmp	 $LN295@music_read
$LN24@music_read:

; 1337 : 			if(waon_cnt > 8 || waon_cnt == 0){		//????????

  00945	83 bd 08 f3 ff
	ff 08		 cmp	 DWORD PTR _waon_cnt$3[ebp], 8
  0094c	7f 09		 jg	 SHORT $LN117@music_read
  0094e	83 bd 08 f3 ff
	ff 00		 cmp	 DWORD PTR _waon_cnt$3[ebp], 0
  00955	75 14		 jne	 SHORT $LN116@music_read
$LN117@music_read:

; 1338 : 				err_flg=M_WAON_ERR;				//???

  00957	c7 85 2c fe ff
	ff 16 00 00 00	 mov	 DWORD PTR _err_flg$[ebp], 22 ; 00000016H

; 1339 : 				goto music_read_999;

  00961	e9 a9 17 00 00	 jmp	 $LN118@music_read
  00966	e9 d4 17 00 00	 jmp	 $music_read_999$312
$LN116@music_read:

; 1340 : 			}
; 1341 : 
; 1342 : 			if(num_check( fp )){		//????

  0096b	8b 85 4c f3 ff
	ff		 mov	 eax, DWORD PTR _fp$[ebp]
  00971	50		 push	 eax
  00972	e8 00 00 00 00	 call	 ?num_check@@YAHPAU_iobuf@@@Z ; num_check
  00977	83 c4 04	 add	 esp, 4
  0097a	85 c0		 test	 eax, eax
  0097c	74 15		 je	 SHORT $LN119@music_read

; 1343 : 				waon_step = get_num( fp );		//??????????

  0097e	8b 85 4c f3 ff
	ff		 mov	 eax, DWORD PTR _fp$[ebp]
  00984	50		 push	 eax
  00985	e8 00 00 00 00	 call	 ?get_num@@YAHPAU_iobuf@@@Z ; get_num
  0098a	83 c4 04	 add	 esp, 4
  0098d	89 85 40 f3 ff
	ff		 mov	 DWORD PTR _waon_step$5[ebp], eax
$LN119@music_read:

; 1344 : 			}
; 1345 : 			step[ch][ch_p[ch]++] = MUSIC_WAON;		//?????

  00993	8b 45 d0	 mov	 eax, DWORD PTR _ch$[ebp]
  00996	c1 e0 10	 shl	 eax, 16			; 00000010H
  00999	8b 4d d0	 mov	 ecx, DWORD PTR _ch$[ebp]
  0099c	8b 94 8d 48 ff
	ff ff		 mov	 edx, DWORD PTR _ch_p$[ebp+ecx*4]
  009a3	c7 84 90 00 00
	00 00 f2 ff ff
	ff		 mov	 DWORD PTR ?step@@3PAY0EAAA@HA[eax+edx*4], -14 ; fffffff2H
  009ae	8b 45 d0	 mov	 eax, DWORD PTR _ch$[ebp]
  009b1	8b 8c 85 48 ff
	ff ff		 mov	 ecx, DWORD PTR _ch_p$[ebp+eax*4]
  009b8	83 c1 01	 add	 ecx, 1
  009bb	8b 55 d0	 mov	 edx, DWORD PTR _ch$[ebp]
  009be	89 8c 95 48 ff
	ff ff		 mov	 DWORD PTR _ch_p$[ebp+edx*4], ecx

; 1346 : 			step[ch][ch_p[ch]++] = waon_cnt;		//??????

  009c5	8b 45 d0	 mov	 eax, DWORD PTR _ch$[ebp]
  009c8	c1 e0 10	 shl	 eax, 16			; 00000010H
  009cb	8b 4d d0	 mov	 ecx, DWORD PTR _ch$[ebp]
  009ce	8b 94 8d 48 ff
	ff ff		 mov	 edx, DWORD PTR _ch_p$[ebp+ecx*4]
  009d5	8b 8d 08 f3 ff
	ff		 mov	 ecx, DWORD PTR _waon_cnt$3[ebp]
  009db	89 8c 90 00 00
	00 00		 mov	 DWORD PTR ?step@@3PAY0EAAA@HA[eax+edx*4], ecx
  009e2	8b 55 d0	 mov	 edx, DWORD PTR _ch$[ebp]
  009e5	8b 84 95 48 ff
	ff ff		 mov	 eax, DWORD PTR _ch_p$[ebp+edx*4]
  009ec	83 c0 01	 add	 eax, 1
  009ef	8b 4d d0	 mov	 ecx, DWORD PTR _ch$[ebp]
  009f2	89 84 8d 48 ff
	ff ff		 mov	 DWORD PTR _ch_p$[ebp+ecx*4], eax

; 1347 : 			waon_delay_point = ch_p[ch];		//??????????颌V

  009f9	8b 45 d0	 mov	 eax, DWORD PTR _ch$[ebp]
  009fc	8b 8c 85 48 ff
	ff ff		 mov	 ecx, DWORD PTR _ch_p$[ebp+eax*4]
  00a03	89 8d f0 f2 ff
	ff		 mov	 DWORD PTR _waon_delay_point$1[ebp], ecx

; 1348 : 			ch_p[ch]++;		//??@e??

  00a09	8b 45 d0	 mov	 eax, DWORD PTR _ch$[ebp]
  00a0c	8b 8c 85 48 ff
	ff ff		 mov	 ecx, DWORD PTR _ch_p$[ebp+eax*4]
  00a13	83 c1 01	 add	 ecx, 1
  00a16	8b 55 d0	 mov	 edx, DWORD PTR _ch$[ebp]
  00a19	89 8c 95 48 ff
	ff ff		 mov	 DWORD PTR _ch_p$[ebp+edx*4], ecx

; 1349 : 
; 1350 : 			for(d7=0;d7<waon_cnt;d7++){

  00a20	c7 45 dc 00 00
	00 00		 mov	 DWORD PTR _d7$[ebp], 0
  00a27	eb 09		 jmp	 SHORT $LN29@music_read
$LN27@music_read:
  00a29	8b 45 dc	 mov	 eax, DWORD PTR _d7$[ebp]
  00a2c	83 c0 01	 add	 eax, 1
  00a2f	89 45 dc	 mov	 DWORD PTR _d7$[ebp], eax
$LN29@music_read:
  00a32	8b 45 dc	 mov	 eax, DWORD PTR _d7$[ebp]
  00a35	3b 85 08 f3 ff
	ff		 cmp	 eax, DWORD PTR _waon_cnt$3[ebp]
  00a3b	7d 3a		 jge	 SHORT $LN28@music_read

; 1351 : 				step[ch][ch_p[ch]++] = waon_note[d7];		//???k????

  00a3d	8b 45 d0	 mov	 eax, DWORD PTR _ch$[ebp]
  00a40	c1 e0 10	 shl	 eax, 16			; 00000010H
  00a43	8b 4d d0	 mov	 ecx, DWORD PTR _ch$[ebp]
  00a46	8b 94 8d 48 ff
	ff ff		 mov	 edx, DWORD PTR _ch_p$[ebp+ecx*4]
  00a4d	8b 4d dc	 mov	 ecx, DWORD PTR _d7$[ebp]
  00a50	8b 8c 8d 14 f3
	ff ff		 mov	 ecx, DWORD PTR _waon_note$4[ebp+ecx*4]
  00a57	89 8c 90 00 00
	00 00		 mov	 DWORD PTR ?step@@3PAY0EAAA@HA[eax+edx*4], ecx
  00a5e	8b 55 d0	 mov	 edx, DWORD PTR _ch$[ebp]
  00a61	8b 84 95 48 ff
	ff ff		 mov	 eax, DWORD PTR _ch_p$[ebp+edx*4]
  00a68	83 c0 01	 add	 eax, 1
  00a6b	8b 4d d0	 mov	 ecx, DWORD PTR _ch$[ebp]
  00a6e	89 84 8d 48 ff
	ff ff		 mov	 DWORD PTR _ch_p$[ebp+ecx*4], eax

; 1352 : 			}

  00a75	eb b2		 jmp	 SHORT $LN27@music_read
$LN28@music_read:

; 1353 : 			if(waon_step){		//????????e?????

  00a77	83 bd 40 f3 ff
	ff 00		 cmp	 DWORD PTR _waon_step$5[ebp], 0
  00a7e	74 0b		 je	 SHORT $LN120@music_read

; 1354 : 				d0 = waon_step;		//??????????

  00a80	8b 85 40 f3 ff
	ff		 mov	 eax, DWORD PTR _waon_step$5[ebp]
  00a86	89 45 f4	 mov	 DWORD PTR _d0$[ebp], eax

; 1355 : 			} else {

  00a89	eb 0d		 jmp	 SHORT $LN121@music_read
$LN120@music_read:

; 1356 : 				d0 = step_def[ch];	//??????????

  00a8b	8b 45 d0	 mov	 eax, DWORD PTR _ch$[ebp]
  00a8e	8b 0c 85 00 00
	00 00		 mov	 ecx, DWORD PTR ?step_def@@3PAHA[eax*4]
  00a95	89 4d f4	 mov	 DWORD PTR _d0$[ebp], ecx
$LN121@music_read:

; 1357 : 			}
; 1358 : 			step[ch][ch_p[ch]++] = d0;		//??????????

  00a98	8b 45 d0	 mov	 eax, DWORD PTR _ch$[ebp]
  00a9b	c1 e0 10	 shl	 eax, 16			; 00000010H
  00a9e	8b 4d d0	 mov	 ecx, DWORD PTR _ch$[ebp]
  00aa1	8b 94 8d 48 ff
	ff ff		 mov	 edx, DWORD PTR _ch_p$[ebp+ecx*4]
  00aa8	8b 4d f4	 mov	 ecx, DWORD PTR _d0$[ebp]
  00aab	89 8c 90 00 00
	00 00		 mov	 DWORD PTR ?step@@3PAY0EAAA@HA[eax+edx*4], ecx
  00ab2	8b 55 d0	 mov	 edx, DWORD PTR _ch$[ebp]
  00ab5	8b 84 95 48 ff
	ff ff		 mov	 eax, DWORD PTR _ch_p$[ebp+edx*4]
  00abc	83 c0 01	 add	 eax, 1
  00abf	8b 4d d0	 mov	 ecx, DWORD PTR _ch$[ebp]
  00ac2	89 84 8d 48 ff
	ff ff		 mov	 DWORD PTR _ch_p$[ebp+ecx*4], eax

; 1359 : 			d1 = f_get( fp );		//????

  00ac9	8b 85 4c f3 ff
	ff		 mov	 eax, DWORD PTR _fp$[ebp]
  00acf	50		 push	 eax
  00ad0	e8 00 00 00 00	 call	 ?f_get@@YAHPAU_iobuf@@@Z ; f_get
  00ad5	83 c4 04	 add	 esp, 4
  00ad8	89 45 e8	 mov	 DWORD PTR _d1$[ebp], eax

; 1360 : 			if(d1 == '&'){

  00adb	83 7d e8 26	 cmp	 DWORD PTR _d1$[ebp], 38	; 00000026H
  00adf	75 34		 jne	 SHORT $LN122@music_read

; 1361 : 				step[ch][ch_p[ch]++] = -1;	//?????????

  00ae1	8b 45 d0	 mov	 eax, DWORD PTR _ch$[ebp]
  00ae4	c1 e0 10	 shl	 eax, 16			; 00000010H
  00ae7	8b 4d d0	 mov	 ecx, DWORD PTR _ch$[ebp]
  00aea	8b 94 8d 48 ff
	ff ff		 mov	 edx, DWORD PTR _ch_p$[ebp+ecx*4]
  00af1	c7 84 90 00 00
	00 00 ff ff ff
	ff		 mov	 DWORD PTR ?step@@3PAY0EAAA@HA[eax+edx*4], -1
  00afc	8b 45 d0	 mov	 eax, DWORD PTR _ch$[ebp]
  00aff	8b 8c 85 48 ff
	ff ff		 mov	 ecx, DWORD PTR _ch_p$[ebp+eax*4]
  00b06	83 c1 01	 add	 ecx, 1
  00b09	8b 55 d0	 mov	 edx, DWORD PTR _ch$[ebp]
  00b0c	89 8c 95 48 ff
	ff ff		 mov	 DWORD PTR _ch_p$[ebp+edx*4], ecx

; 1362 : 			} else {

  00b13	eb 64		 jmp	 SHORT $LN123@music_read
$LN122@music_read:

; 1363 : 				fseek(fp,-1,SEEK_CUR);		//??????

  00b15	8b f4		 mov	 esi, esp
  00b17	6a 01		 push	 1
  00b19	6a ff		 push	 -1
  00b1b	8b 85 4c f3 ff
	ff		 mov	 eax, DWORD PTR _fp$[ebp]
  00b21	50		 push	 eax
  00b22	ff 15 00 00 00
	00		 call	 DWORD PTR __imp__fseek
  00b28	83 c4 0c	 add	 esp, 12			; 0000000cH
  00b2b	3b f4		 cmp	 esi, esp
  00b2d	e8 00 00 00 00	 call	 __RTC_CheckEsp

; 1364 : 				step[ch][ch_p[ch]++] = d0 * q_com[ch] / 8;	//?????????

  00b32	8b 45 d0	 mov	 eax, DWORD PTR _ch$[ebp]
  00b35	8b 4d f4	 mov	 ecx, DWORD PTR _d0$[ebp]
  00b38	0f af 8c 85 6c
	f4 ff ff	 imul	 ecx, DWORD PTR _q_com$[ebp+eax*4]
  00b40	8b c1		 mov	 eax, ecx
  00b42	99		 cdq
  00b43	83 e2 07	 and	 edx, 7
  00b46	03 c2		 add	 eax, edx
  00b48	c1 f8 03	 sar	 eax, 3
  00b4b	8b 55 d0	 mov	 edx, DWORD PTR _ch$[ebp]
  00b4e	c1 e2 10	 shl	 edx, 16			; 00000010H
  00b51	8b 4d d0	 mov	 ecx, DWORD PTR _ch$[ebp]
  00b54	8b 8c 8d 48 ff
	ff ff		 mov	 ecx, DWORD PTR _ch_p$[ebp+ecx*4]
  00b5b	89 84 8a 00 00
	00 00		 mov	 DWORD PTR ?step@@3PAY0EAAA@HA[edx+ecx*4], eax
  00b62	8b 55 d0	 mov	 edx, DWORD PTR _ch$[ebp]
  00b65	8b 84 95 48 ff
	ff ff		 mov	 eax, DWORD PTR _ch_p$[ebp+edx*4]
  00b6c	83 c0 01	 add	 eax, 1
  00b6f	8b 4d d0	 mov	 ecx, DWORD PTR _ch$[ebp]
  00b72	89 84 8d 48 ff
	ff ff		 mov	 DWORD PTR _ch_p$[ebp+ecx*4], eax
$LN123@music_read:

; 1365 : 			}
; 1366 : 
; 1367 : 			d0 = f_get( fp );		//????e????

  00b79	8b 85 4c f3 ff
	ff		 mov	 eax, DWORD PTR _fp$[ebp]
  00b7f	50		 push	 eax
  00b80	e8 00 00 00 00	 call	 ?f_get@@YAHPAU_iobuf@@@Z ; f_get
  00b85	83 c4 04	 add	 esp, 4
  00b88	89 45 f4	 mov	 DWORD PTR _d0$[ebp], eax

; 1368 : 			if(d0 == ','){

  00b8b	83 7d f4 2c	 cmp	 DWORD PTR _d0$[ebp], 44	; 0000002cH
  00b8f	75 44		 jne	 SHORT $LN124@music_read

; 1369 : 				if(num_check( fp )){		//????

  00b91	8b 85 4c f3 ff
	ff		 mov	 eax, DWORD PTR _fp$[ebp]
  00b97	50		 push	 eax
  00b98	e8 00 00 00 00	 call	 ?num_check@@YAHPAU_iobuf@@@Z ; num_check
  00b9d	83 c4 04	 add	 esp, 4
  00ba0	85 c0		 test	 eax, eax
  00ba2	74 1b		 je	 SHORT $LN126@music_read

; 1370 : 					waon_delay[ch] = get_num( fp );		//????k???

  00ba4	8b 85 4c f3 ff
	ff		 mov	 eax, DWORD PTR _fp$[ebp]
  00baa	50		 push	 eax
  00bab	e8 00 00 00 00	 call	 ?get_num@@YAHPAU_iobuf@@@Z ; get_num
  00bb0	83 c4 04	 add	 esp, 4
  00bb3	8b 4d d0	 mov	 ecx, DWORD PTR _ch$[ebp]
  00bb6	89 84 8d 00 f5
	ff ff		 mov	 DWORD PTR _waon_delay$[ebp+ecx*4], eax

; 1371 : 				} else {		//???????

  00bbd	eb 14		 jmp	 SHORT $LN127@music_read
$LN126@music_read:

; 1372 : 					err_flg=M_WAON_ERR;				//???

  00bbf	c7 85 2c fe ff
	ff 16 00 00 00	 mov	 DWORD PTR _err_flg$[ebp], 22 ; 00000016H

; 1373 : 					goto music_read_999;

  00bc9	e9 43 15 00 00	 jmp	 $LN128@music_read
  00bce	e9 6c 15 00 00	 jmp	 $music_read_999$312
$LN127@music_read:

; 1374 : 				}
; 1375 : 			} else {		//????e????

  00bd3	eb 1d		 jmp	 SHORT $LN125@music_read
$LN124@music_read:

; 1376 : 				fseek(fp,-1,SEEK_CUR);		//??????

  00bd5	8b f4		 mov	 esi, esp
  00bd7	6a 01		 push	 1
  00bd9	6a ff		 push	 -1
  00bdb	8b 85 4c f3 ff
	ff		 mov	 eax, DWORD PTR _fp$[ebp]
  00be1	50		 push	 eax
  00be2	ff 15 00 00 00
	00		 call	 DWORD PTR __imp__fseek
  00be8	83 c4 0c	 add	 esp, 12			; 0000000cH
  00beb	3b f4		 cmp	 esi, esp
  00bed	e8 00 00 00 00	 call	 __RTC_CheckEsp
$LN125@music_read:

; 1377 : 			}
; 1378 : 			step[ch][waon_delay_point] = waon_delay[ch];		//???????

  00bf2	8b 45 d0	 mov	 eax, DWORD PTR _ch$[ebp]
  00bf5	c1 e0 10	 shl	 eax, 16			; 00000010H
  00bf8	8b 8d f0 f2 ff
	ff		 mov	 ecx, DWORD PTR _waon_delay_point$1[ebp]
  00bfe	8b 55 d0	 mov	 edx, DWORD PTR _ch$[ebp]
  00c01	8b 94 95 00 f5
	ff ff		 mov	 edx, DWORD PTR _waon_delay$[ebp+edx*4]
  00c08	89 94 88 00 00
	00 00		 mov	 DWORD PTR ?step@@3PAY0EAAA@HA[eax+ecx*4], edx

; 1379 : 			goto music_read_100;

  00c0f	e9 80 fa ff ff	 jmp	 $music_read_100$313
$LN129@music_read:

; 1380 : 		case 'l':		//??
; 1381 : 			d0 = f_get( fp );		//???k?

  00c14	8b 85 4c f3 ff
	ff		 mov	 eax, DWORD PTR _fp$[ebp]
  00c1a	50		 push	 eax
  00c1b	e8 00 00 00 00	 call	 ?f_get@@YAHPAU_iobuf@@@Z ; f_get
  00c20	83 c4 04	 add	 esp, 4
  00c23	89 45 f4	 mov	 DWORD PTR _d0$[ebp], eax

; 1382 : 			if( d0 >= '0' && d0<= '9' ){		//???

  00c26	83 7d f4 30	 cmp	 DWORD PTR _d0$[ebp], 48	; 00000030H
  00c2a	7c 74		 jl	 SHORT $LN130@music_read
  00c2c	83 7d f4 39	 cmp	 DWORD PTR _d0$[ebp], 57	; 00000039H
  00c30	7f 6e		 jg	 SHORT $LN130@music_read

; 1383 : 				fseek(fp,-1,SEEK_CUR);		//??????

  00c32	8b f4		 mov	 esi, esp
  00c34	6a 01		 push	 1
  00c36	6a ff		 push	 -1
  00c38	8b 85 4c f3 ff
	ff		 mov	 eax, DWORD PTR _fp$[ebp]
  00c3e	50		 push	 eax
  00c3f	ff 15 00 00 00
	00		 call	 DWORD PTR __imp__fseek
  00c45	83 c4 0c	 add	 esp, 12			; 0000000cH
  00c48	3b f4		 cmp	 esi, esp
  00c4a	e8 00 00 00 00	 call	 __RTC_CheckEsp

; 1384 : 				d0 = 192 / get_num( fp );

  00c4f	8b 85 4c f3 ff
	ff		 mov	 eax, DWORD PTR _fp$[ebp]
  00c55	50		 push	 eax
  00c56	e8 00 00 00 00	 call	 ?get_num@@YAHPAU_iobuf@@@Z ; get_num
  00c5b	83 c4 04	 add	 esp, 4
  00c5e	8b c8		 mov	 ecx, eax
  00c60	b8 c0 00 00 00	 mov	 eax, 192		; 000000c0H
  00c65	99		 cdq
  00c66	f7 f9		 idiv	 ecx
  00c68	89 45 f4	 mov	 DWORD PTR _d0$[ebp], eax

; 1385 : 				if(d0 > 192 || d0 == 0){

  00c6b	81 7d f4 c0 00
	00 00		 cmp	 DWORD PTR _d0$[ebp], 192 ; 000000c0H
  00c72	7f 06		 jg	 SHORT $LN132@music_read
  00c74	83 7d f4 00	 cmp	 DWORD PTR _d0$[ebp], 0
  00c78	75 14		 jne	 SHORT $LN131@music_read
$LN132@music_read:

; 1386 : 					err_flg=M_LCOMMAND_ERR;

  00c7a	c7 85 2c fe ff
	ff 03 00 00 00	 mov	 DWORD PTR _err_flg$[ebp], 3

; 1387 : 					goto music_read_999;

  00c84	e9 8a 14 00 00	 jmp	 $LN133@music_read
  00c89	e9 b1 14 00 00	 jmp	 $music_read_999$312
$LN131@music_read:

; 1388 : 				}
; 1389 : 				step_def[ ch ] = d0;

  00c8e	8b 45 d0	 mov	 eax, DWORD PTR _ch$[ebp]
  00c91	8b 4d f4	 mov	 ecx, DWORD PTR _d0$[ebp]
  00c94	89 0c 85 00 00
	00 00		 mov	 DWORD PTR ?step_def@@3PAHA[eax*4], ecx

; 1390 : 				goto music_read_100;

  00c9b	e9 f4 f9 ff ff	 jmp	 $music_read_100$313
$LN130@music_read:

; 1391 : 			}
; 1392 : 			if( d0 != '*' ){		//En??

  00ca0	83 7d f4 2a	 cmp	 DWORD PTR _d0$[ebp], 42	; 0000002aH
  00ca4	74 14		 je	 SHORT $LN134@music_read

; 1393 : 				err_flg=M_LCOMMAND_ERR;

  00ca6	c7 85 2c fe ff
	ff 03 00 00 00	 mov	 DWORD PTR _err_flg$[ebp], 3

; 1394 : 				goto music_read_999;

  00cb0	e9 60 14 00 00	 jmp	 $LN135@music_read
  00cb5	e9 85 14 00 00	 jmp	 $music_read_999$312
$LN134@music_read:

; 1395 : 			}
; 1396 : 			d0 = f_get( fp );		//???k?

  00cba	8b 85 4c f3 ff
	ff		 mov	 eax, DWORD PTR _fp$[ebp]
  00cc0	50		 push	 eax
  00cc1	e8 00 00 00 00	 call	 ?f_get@@YAHPAU_iobuf@@@Z ; f_get
  00cc6	83 c4 04	 add	 esp, 4
  00cc9	89 45 f4	 mov	 DWORD PTR _d0$[ebp], eax

; 1397 : 			if( d0 >= '0' && d0<= '9' ){		//???

  00ccc	83 7d f4 30	 cmp	 DWORD PTR _d0$[ebp], 48	; 00000030H
  00cd0	7c 41		 jl	 SHORT $LN136@music_read
  00cd2	83 7d f4 39	 cmp	 DWORD PTR _d0$[ebp], 57	; 00000039H
  00cd6	7f 3b		 jg	 SHORT $LN136@music_read

; 1398 : 				fseek(fp,-1,SEEK_CUR);		//??????

  00cd8	8b f4		 mov	 esi, esp
  00cda	6a 01		 push	 1
  00cdc	6a ff		 push	 -1
  00cde	8b 85 4c f3 ff
	ff		 mov	 eax, DWORD PTR _fp$[ebp]
  00ce4	50		 push	 eax
  00ce5	ff 15 00 00 00
	00		 call	 DWORD PTR __imp__fseek
  00ceb	83 c4 0c	 add	 esp, 12			; 0000000cH
  00cee	3b f4		 cmp	 esi, esp
  00cf0	e8 00 00 00 00	 call	 __RTC_CheckEsp

; 1399 : 				step_def[ ch ] = get_num( fp );

  00cf5	8b 85 4c f3 ff
	ff		 mov	 eax, DWORD PTR _fp$[ebp]
  00cfb	50		 push	 eax
  00cfc	e8 00 00 00 00	 call	 ?get_num@@YAHPAU_iobuf@@@Z ; get_num
  00d01	83 c4 04	 add	 esp, 4
  00d04	8b 4d d0	 mov	 ecx, DWORD PTR _ch$[ebp]
  00d07	89 04 8d 00 00
	00 00		 mov	 DWORD PTR ?step_def@@3PAHA[ecx*4], eax

; 1400 : 				goto music_read_100;

  00d0e	e9 81 f9 ff ff	 jmp	 $music_read_100$313
$LN136@music_read:

; 1401 : 			}
; 1402 : 			err_flg=M_LCOMMAND_ERR;

  00d13	c7 85 2c fe ff
	ff 03 00 00 00	 mov	 DWORD PTR _err_flg$[ebp], 3

; 1403 : 			goto music_read_999;

  00d1d	e9 f5 13 00 00	 jmp	 $LN137@music_read
  00d22	e9 18 14 00 00	 jmp	 $music_read_999$312
$LN138@music_read:

; 1404 : 		case 'r':		//??
; 1405 : 			step[ch][ch_p[ch]++]=MUSIC_R;

  00d27	8b 45 d0	 mov	 eax, DWORD PTR _ch$[ebp]
  00d2a	c1 e0 10	 shl	 eax, 16			; 00000010H
  00d2d	8b 4d d0	 mov	 ecx, DWORD PTR _ch$[ebp]
  00d30	8b 94 8d 48 ff
	ff ff		 mov	 edx, DWORD PTR _ch_p$[ebp+ecx*4]
  00d37	c7 84 90 00 00
	00 00 fe ff ff
	ff		 mov	 DWORD PTR ?step@@3PAY0EAAA@HA[eax+edx*4], -2 ; fffffffeH
  00d42	8b 45 d0	 mov	 eax, DWORD PTR _ch$[ebp]
  00d45	8b 8c 85 48 ff
	ff ff		 mov	 ecx, DWORD PTR _ch_p$[ebp+eax*4]
  00d4c	83 c1 01	 add	 ecx, 1
  00d4f	8b 55 d0	 mov	 edx, DWORD PTR _ch$[ebp]
  00d52	89 8c 95 48 ff
	ff ff		 mov	 DWORD PTR _ch_p$[ebp+edx*4], ecx

; 1406 : 			d0 = get_step( fp, ch );		//?????????

  00d59	8b 45 d0	 mov	 eax, DWORD PTR _ch$[ebp]
  00d5c	50		 push	 eax
  00d5d	8b 8d 4c f3 ff
	ff		 mov	 ecx, DWORD PTR _fp$[ebp]
  00d63	51		 push	 ecx
  00d64	e8 00 00 00 00	 call	 ?get_step@@YAHPAU_iobuf@@H@Z ; get_step
  00d69	83 c4 08	 add	 esp, 8
  00d6c	89 45 f4	 mov	 DWORD PTR _d0$[ebp], eax

; 1407 : 			if(d0 == -1){		//????

  00d6f	83 7d f4 ff	 cmp	 DWORD PTR _d0$[ebp], -1
  00d73	75 14		 jne	 SHORT $LN139@music_read

; 1408 : 				err_flg=M_STEP_ERR;		//??????

  00d75	c7 85 2c fe ff
	ff 01 00 00 00	 mov	 DWORD PTR _err_flg$[ebp], 1

; 1409 : 				goto music_read_999;

  00d7f	e9 95 13 00 00	 jmp	 $LN140@music_read
  00d84	e9 b6 13 00 00	 jmp	 $music_read_999$312
$LN139@music_read:

; 1410 : 			}
; 1411 : 			step[ch][ch_p[ch]++] = d0;		//??????????

  00d89	8b 45 d0	 mov	 eax, DWORD PTR _ch$[ebp]
  00d8c	c1 e0 10	 shl	 eax, 16			; 00000010H
  00d8f	8b 4d d0	 mov	 ecx, DWORD PTR _ch$[ebp]
  00d92	8b 94 8d 48 ff
	ff ff		 mov	 edx, DWORD PTR _ch_p$[ebp+ecx*4]
  00d99	8b 4d f4	 mov	 ecx, DWORD PTR _d0$[ebp]
  00d9c	89 8c 90 00 00
	00 00		 mov	 DWORD PTR ?step@@3PAY0EAAA@HA[eax+edx*4], ecx
  00da3	8b 55 d0	 mov	 edx, DWORD PTR _ch$[ebp]
  00da6	8b 84 95 48 ff
	ff ff		 mov	 eax, DWORD PTR _ch_p$[ebp+edx*4]
  00dad	83 c0 01	 add	 eax, 1
  00db0	8b 4d d0	 mov	 ecx, DWORD PTR _ch$[ebp]
  00db3	89 84 8d 48 ff
	ff ff		 mov	 DWORD PTR _ch_p$[ebp+ecx*4], eax

; 1412 : 			d1 = f_get( fp );		//????

  00dba	8b 85 4c f3 ff
	ff		 mov	 eax, DWORD PTR _fp$[ebp]
  00dc0	50		 push	 eax
  00dc1	e8 00 00 00 00	 call	 ?f_get@@YAHPAU_iobuf@@@Z ; f_get
  00dc6	83 c4 04	 add	 esp, 4
  00dc9	89 45 e8	 mov	 DWORD PTR _d1$[ebp], eax

; 1413 : 			if(d1 == '&'){

  00dcc	83 7d e8 26	 cmp	 DWORD PTR _d1$[ebp], 38	; 00000026H
  00dd0	75 34		 jne	 SHORT $LN141@music_read

; 1414 : 				step[ch][ch_p[ch]++] = -1;	//?????????

  00dd2	8b 45 d0	 mov	 eax, DWORD PTR _ch$[ebp]
  00dd5	c1 e0 10	 shl	 eax, 16			; 00000010H
  00dd8	8b 4d d0	 mov	 ecx, DWORD PTR _ch$[ebp]
  00ddb	8b 94 8d 48 ff
	ff ff		 mov	 edx, DWORD PTR _ch_p$[ebp+ecx*4]
  00de2	c7 84 90 00 00
	00 00 ff ff ff
	ff		 mov	 DWORD PTR ?step@@3PAY0EAAA@HA[eax+edx*4], -1
  00ded	8b 45 d0	 mov	 eax, DWORD PTR _ch$[ebp]
  00df0	8b 8c 85 48 ff
	ff ff		 mov	 ecx, DWORD PTR _ch_p$[ebp+eax*4]
  00df7	83 c1 01	 add	 ecx, 1
  00dfa	8b 55 d0	 mov	 edx, DWORD PTR _ch$[ebp]
  00dfd	89 8c 95 48 ff
	ff ff		 mov	 DWORD PTR _ch_p$[ebp+edx*4], ecx

; 1415 : 			} else {

  00e04	eb 64		 jmp	 SHORT $LN142@music_read
$LN141@music_read:

; 1416 : 				fseek(fp,-1,SEEK_CUR);		//??????

  00e06	8b f4		 mov	 esi, esp
  00e08	6a 01		 push	 1
  00e0a	6a ff		 push	 -1
  00e0c	8b 85 4c f3 ff
	ff		 mov	 eax, DWORD PTR _fp$[ebp]
  00e12	50		 push	 eax
  00e13	ff 15 00 00 00
	00		 call	 DWORD PTR __imp__fseek
  00e19	83 c4 0c	 add	 esp, 12			; 0000000cH
  00e1c	3b f4		 cmp	 esi, esp
  00e1e	e8 00 00 00 00	 call	 __RTC_CheckEsp

; 1417 : 				step[ch][ch_p[ch]++] = d0 * q_com[ch] / 8;	//?????????

  00e23	8b 45 d0	 mov	 eax, DWORD PTR _ch$[ebp]
  00e26	8b 4d f4	 mov	 ecx, DWORD PTR _d0$[ebp]
  00e29	0f af 8c 85 6c
	f4 ff ff	 imul	 ecx, DWORD PTR _q_com$[ebp+eax*4]
  00e31	8b c1		 mov	 eax, ecx
  00e33	99		 cdq
  00e34	83 e2 07	 and	 edx, 7
  00e37	03 c2		 add	 eax, edx
  00e39	c1 f8 03	 sar	 eax, 3
  00e3c	8b 55 d0	 mov	 edx, DWORD PTR _ch$[ebp]
  00e3f	c1 e2 10	 shl	 edx, 16			; 00000010H
  00e42	8b 4d d0	 mov	 ecx, DWORD PTR _ch$[ebp]
  00e45	8b 8c 8d 48 ff
	ff ff		 mov	 ecx, DWORD PTR _ch_p$[ebp+ecx*4]
  00e4c	89 84 8a 00 00
	00 00		 mov	 DWORD PTR ?step@@3PAY0EAAA@HA[edx+ecx*4], eax
  00e53	8b 55 d0	 mov	 edx, DWORD PTR _ch$[ebp]
  00e56	8b 84 95 48 ff
	ff ff		 mov	 eax, DWORD PTR _ch_p$[ebp+edx*4]
  00e5d	83 c0 01	 add	 eax, 1
  00e60	8b 4d d0	 mov	 ecx, DWORD PTR _ch$[ebp]
  00e63	89 84 8d 48 ff
	ff ff		 mov	 DWORD PTR _ch_p$[ebp+ecx*4], eax
$LN142@music_read:

; 1418 : 			}
; 1419 : 			goto music_read_100;

  00e6a	e9 25 f8 ff ff	 jmp	 $music_read_100$313
$LN143@music_read:

; 1420 : 		case 'o':		//?????e?
; 1421 : 			if(!num_check( fp )){		//???????

  00e6f	8b 85 4c f3 ff
	ff		 mov	 eax, DWORD PTR _fp$[ebp]
  00e75	50		 push	 eax
  00e76	e8 00 00 00 00	 call	 ?num_check@@YAHPAU_iobuf@@@Z ; num_check
  00e7b	83 c4 04	 add	 esp, 4
  00e7e	85 c0		 test	 eax, eax
  00e80	75 14		 jne	 SHORT $LN144@music_read

; 1422 : 				err_flg=M_OCOMMAND_ERR;		//???

  00e82	c7 85 2c fe ff
	ff 17 00 00 00	 mov	 DWORD PTR _err_flg$[ebp], 23 ; 00000017H

; 1423 : 				goto music_read_999;

  00e8c	e9 8a 12 00 00	 jmp	 $LN145@music_read
  00e91	e9 a9 12 00 00	 jmp	 $music_read_999$312
$LN144@music_read:

; 1424 : 			}
; 1425 : 			ch_oct[ch] = get_num( fp );

  00e96	8b 85 4c f3 ff
	ff		 mov	 eax, DWORD PTR _fp$[ebp]
  00e9c	50		 push	 eax
  00e9d	e8 00 00 00 00	 call	 ?get_num@@YAHPAU_iobuf@@@Z ; get_num
  00ea2	83 c4 04	 add	 esp, 4
  00ea5	8b 4d d0	 mov	 ecx, DWORD PTR _ch$[ebp]
  00ea8	89 84 8d 38 fe
	ff ff		 mov	 DWORD PTR _ch_oct$[ebp+ecx*4], eax

; 1426 : 			if(ch_oct[ch]<0 || ch_oct[ch]>5){		//d????

  00eaf	8b 45 d0	 mov	 eax, DWORD PTR _ch$[ebp]
  00eb2	83 bc 85 38 fe
	ff ff 00	 cmp	 DWORD PTR _ch_oct$[ebp+eax*4], 0
  00eba	7c 0d		 jl	 SHORT $LN147@music_read
  00ebc	8b 45 d0	 mov	 eax, DWORD PTR _ch$[ebp]
  00ebf	83 bc 85 38 fe
	ff ff 05	 cmp	 DWORD PTR _ch_oct$[ebp+eax*4], 5
  00ec7	7e 14		 jle	 SHORT $LN146@music_read
$LN147@music_read:

; 1427 : 				err_flg=M_OCOMMAND_ERR;		//???

  00ec9	c7 85 2c fe ff
	ff 17 00 00 00	 mov	 DWORD PTR _err_flg$[ebp], 23 ; 00000017H

; 1428 : 				goto music_read_999;

  00ed3	e9 45 12 00 00	 jmp	 $LN148@music_read
  00ed8	e9 62 12 00 00	 jmp	 $music_read_999$312
$LN146@music_read:

; 1429 : 			}
; 1430 : 			goto music_read_100;

  00edd	e9 b2 f7 ff ff	 jmp	 $music_read_100$313
$LN149@music_read:

; 1431 : 		case '<':		//??????
; 1432 : 			ch_oct[ch]++;

  00ee2	8b 45 d0	 mov	 eax, DWORD PTR _ch$[ebp]
  00ee5	8b 8c 85 38 fe
	ff ff		 mov	 ecx, DWORD PTR _ch_oct$[ebp+eax*4]
  00eec	83 c1 01	 add	 ecx, 1
  00eef	8b 55 d0	 mov	 edx, DWORD PTR _ch$[ebp]
  00ef2	89 8c 95 38 fe
	ff ff		 mov	 DWORD PTR _ch_oct$[ebp+edx*4], ecx

; 1433 : 			goto music_read_100;

  00ef9	e9 96 f7 ff ff	 jmp	 $music_read_100$313
$LN150@music_read:

; 1434 : 		case '>':		//???????
; 1435 : 			ch_oct[ch]--;

  00efe	8b 45 d0	 mov	 eax, DWORD PTR _ch$[ebp]
  00f01	8b 8c 85 38 fe
	ff ff		 mov	 ecx, DWORD PTR _ch_oct$[ebp+eax*4]
  00f08	83 e9 01	 sub	 ecx, 1
  00f0b	8b 55 d0	 mov	 edx, DWORD PTR _ch$[ebp]
  00f0e	89 8c 95 38 fe
	ff ff		 mov	 DWORD PTR _ch_oct$[ebp+edx*4], ecx

; 1436 : 			if(ch_oct[ch] < 0){		//????????

  00f15	8b 45 d0	 mov	 eax, DWORD PTR _ch$[ebp]
  00f18	83 bc 85 38 fe
	ff ff 00	 cmp	 DWORD PTR _ch_oct$[ebp+eax*4], 0
  00f20	7d 14		 jge	 SHORT $LN151@music_read

; 1437 : 				err_flg=M_NOTE_ERR;		//???

  00f22	c7 85 2c fe ff
	ff 0d 00 00 00	 mov	 DWORD PTR _err_flg$[ebp], 13 ; 0000000dH

; 1438 : 				goto music_read_999;	//

  00f2c	e9 ee 11 00 00	 jmp	 $LN152@music_read
  00f31	e9 09 12 00 00	 jmp	 $music_read_999$312
$LN151@music_read:

; 1439 : 			}
; 1440 : 			goto music_read_100;

  00f36	e9 59 f7 ff ff	 jmp	 $music_read_100$313
$LN153@music_read:

; 1441 : 		case 'q':		//???????
; 1442 : 				if(!num_check( fp )){		//???????

  00f3b	8b 85 4c f3 ff
	ff		 mov	 eax, DWORD PTR _fp$[ebp]
  00f41	50		 push	 eax
  00f42	e8 00 00 00 00	 call	 ?num_check@@YAHPAU_iobuf@@@Z ; num_check
  00f47	83 c4 04	 add	 esp, 4
  00f4a	85 c0		 test	 eax, eax
  00f4c	75 14		 jne	 SHORT $LN154@music_read

; 1443 : 						err_flg=M_QCOMMAND_ERR;

  00f4e	c7 85 2c fe ff
	ff 14 00 00 00	 mov	 DWORD PTR _err_flg$[ebp], 20 ; 00000014H

; 1444 : 						goto music_read_999;

  00f58	e9 c4 11 00 00	 jmp	 $LN155@music_read
  00f5d	e9 dd 11 00 00	 jmp	 $music_read_999$312
$LN154@music_read:

; 1445 : 				}
; 1446 : 				q_com[ch] = get_num( fp );		//?????????

  00f62	8b 85 4c f3 ff
	ff		 mov	 eax, DWORD PTR _fp$[ebp]
  00f68	50		 push	 eax
  00f69	e8 00 00 00 00	 call	 ?get_num@@YAHPAU_iobuf@@@Z ; get_num
  00f6e	83 c4 04	 add	 esp, 4
  00f71	8b 4d d0	 mov	 ecx, DWORD PTR _ch$[ebp]
  00f74	89 84 8d 6c f4
	ff ff		 mov	 DWORD PTR _q_com$[ebp+ecx*4], eax

; 1447 : 				if(q_com[ch] > 8 || q_com[ch] == 0){		//d????

  00f7b	8b 45 d0	 mov	 eax, DWORD PTR _ch$[ebp]
  00f7e	83 bc 85 6c f4
	ff ff 08	 cmp	 DWORD PTR _q_com$[ebp+eax*4], 8
  00f86	7f 0d		 jg	 SHORT $LN157@music_read
  00f88	8b 45 d0	 mov	 eax, DWORD PTR _ch$[ebp]
  00f8b	83 bc 85 6c f4
	ff ff 00	 cmp	 DWORD PTR _q_com$[ebp+eax*4], 0
  00f93	75 14		 jne	 SHORT $LN156@music_read
$LN157@music_read:

; 1448 : 					err_flg=M_QCOMMAND_ERR;

  00f95	c7 85 2c fe ff
	ff 14 00 00 00	 mov	 DWORD PTR _err_flg$[ebp], 20 ; 00000014H

; 1449 : 					goto music_read_999;

  00f9f	e9 7f 11 00 00	 jmp	 $LN158@music_read
  00fa4	e9 96 11 00 00	 jmp	 $music_read_999$312
$LN156@music_read:

; 1450 : 				}
; 1451 : 			goto music_read_100;

  00fa9	e9 e6 f6 ff ff	 jmp	 $music_read_100$313
$LN159@music_read:

; 1452 : 		case 'c':		//??
; 1453 : 		case 'd':		//??
; 1454 : 		case 'e':		//??
; 1455 : 		case 'f':		//??
; 1456 : 		case 'g':		//??
; 1457 : 		case 'a':		//??
; 1458 : 		case 'b':		//??
; 1459 : //			if(ch >= 6){
; 1460 : 				d0-='a';

  00fae	8b 45 f4	 mov	 eax, DWORD PTR _d0$[ebp]
  00fb1	83 e8 61	 sub	 eax, 97			; 00000061H
  00fb4	89 45 f4	 mov	 DWORD PTR _d0$[ebp], eax

; 1461 : 				d1 = note_change_tbl[d0];

  00fb7	8b 45 f4	 mov	 eax, DWORD PTR _d0$[ebp]
  00fba	8b 0c 85 00 00
	00 00		 mov	 ecx, DWORD PTR ?note_change_tbl@@3PAHA[eax*4]
  00fc1	89 4d e8	 mov	 DWORD PTR _d1$[ebp], ecx

; 1462 : 				d0 = f_get( fp );		//?????

  00fc4	8b 85 4c f3 ff
	ff		 mov	 eax, DWORD PTR _fp$[ebp]
  00fca	50		 push	 eax
  00fcb	e8 00 00 00 00	 call	 ?f_get@@YAHPAU_iobuf@@@Z ; f_get
  00fd0	83 c4 04	 add	 esp, 4
  00fd3	89 45 f4	 mov	 DWORD PTR _d0$[ebp], eax

; 1463 : 				if(d0 == '+')

  00fd6	83 7d f4 2b	 cmp	 DWORD PTR _d0$[ebp], 43	; 0000002bH
  00fda	75 0b		 jne	 SHORT $LN160@music_read

; 1464 : 					d1++;

  00fdc	8b 45 e8	 mov	 eax, DWORD PTR _d1$[ebp]
  00fdf	83 c0 01	 add	 eax, 1
  00fe2	89 45 e8	 mov	 DWORD PTR _d1$[ebp], eax
  00fe5	eb 2e		 jmp	 SHORT $LN163@music_read
$LN160@music_read:

; 1465 : 				else if(d0 == '-')

  00fe7	83 7d f4 2d	 cmp	 DWORD PTR _d0$[ebp], 45	; 0000002dH
  00feb	75 0b		 jne	 SHORT $LN162@music_read

; 1466 : 					d1--;

  00fed	8b 45 e8	 mov	 eax, DWORD PTR _d1$[ebp]
  00ff0	83 e8 01	 sub	 eax, 1
  00ff3	89 45 e8	 mov	 DWORD PTR _d1$[ebp], eax
  00ff6	eb 1d		 jmp	 SHORT $LN163@music_read
$LN162@music_read:

; 1467 : 				else fseek(fp,-1,SEEK_CUR);		//??????

  00ff8	8b f4		 mov	 esi, esp
  00ffa	6a 01		 push	 1
  00ffc	6a ff		 push	 -1
  00ffe	8b 85 4c f3 ff
	ff		 mov	 eax, DWORD PTR _fp$[ebp]
  01004	50		 push	 eax
  01005	ff 15 00 00 00
	00		 call	 DWORD PTR __imp__fseek
  0100b	83 c4 0c	 add	 esp, 12			; 0000000cH
  0100e	3b f4		 cmp	 esi, esp
  01010	e8 00 00 00 00	 call	 __RTC_CheckEsp
$LN163@music_read:

; 1468 : 
; 1469 : 				if(ch_oct[ch] >= 5){			//???k??????

  01015	8b 45 d0	 mov	 eax, DWORD PTR _ch$[ebp]
  01018	83 bc 85 38 fe
	ff ff 05	 cmp	 DWORD PTR _ch_oct$[ebp+eax*4], 5
  01020	7c 1a		 jl	 SHORT $LN165@music_read

; 1470 : 					if(d1 >= 2){			//

  01022	83 7d e8 02	 cmp	 DWORD PTR _d1$[ebp], 2
  01026	7c 14		 jl	 SHORT $LN165@music_read

; 1471 : 						err_flg=M_NOTE_ERR;	//??

  01028	c7 85 2c fe ff
	ff 0d 00 00 00	 mov	 DWORD PTR _err_flg$[ebp], 13 ; 0000000dH

; 1472 : 						goto music_read_999;	//

  01032	e9 ee 10 00 00	 jmp	 $LN166@music_read
  01037	e9 03 11 00 00	 jmp	 $music_read_999$312
$LN165@music_read:

; 1473 : 					}
; 1474 : 				}
; 1475 : #if 0
; 1476 : 				step[ch][ch_p[ch]++] = MUSIC_FREQ;
; 1477 : 				d1 = freq_tbl[d1+1];
; 1478 : 				if(ch_oct[ch] > 0){
; 1479 : 					d0 = ch_oct[ch];
; 1480 : 					d0 = 1 << d0;
; 1481 : 					d1 *= d0;
; 1482 : 				} else if(ch_oct[ch] < 0){
; 1483 : 					d0 = -ch_oct[ch];
; 1484 : 					d0 = 1 << d0;
; 1485 : 					d1 /= d0;
; 1486 : 				}
; 1487 : #endif
; 1488 : 				d0 = ch_oct[ch] * 12 + d1 + 1;	//???k???????

  0103c	8b 45 d0	 mov	 eax, DWORD PTR _ch$[ebp]
  0103f	6b 8c 85 38 fe
	ff ff 0c	 imul	 ecx, DWORD PTR _ch_oct$[ebp+eax*4], 12
  01047	8b 55 e8	 mov	 edx, DWORD PTR _d1$[ebp]
  0104a	8d 44 11 01	 lea	 eax, DWORD PTR [ecx+edx+1]
  0104e	89 45 f4	 mov	 DWORD PTR _d0$[ebp], eax

; 1489 : 				if(d0 < 1 || d0 > 62){			//

  01051	83 7d f4 01	 cmp	 DWORD PTR _d0$[ebp], 1
  01055	7c 06		 jl	 SHORT $LN168@music_read
  01057	83 7d f4 3e	 cmp	 DWORD PTR _d0$[ebp], 62	; 0000003eH
  0105b	7e 14		 jle	 SHORT $LN167@music_read
$LN168@music_read:

; 1490 : 					err_flg=M_NOTE_ERR;			//???

  0105d	c7 85 2c fe ff
	ff 0d 00 00 00	 mov	 DWORD PTR _err_flg$[ebp], 13 ; 0000000dH

; 1491 : 					goto music_read_999;		//

  01067	e9 bb 10 00 00	 jmp	 $LN169@music_read
  0106c	e9 ce 10 00 00	 jmp	 $music_read_999$312
$LN167@music_read:

; 1492 : 				}
; 1493 : 				step[ch][ch_p[ch]++] = d0;	//???k????

  01071	8b 45 d0	 mov	 eax, DWORD PTR _ch$[ebp]
  01074	c1 e0 10	 shl	 eax, 16			; 00000010H
  01077	8b 4d d0	 mov	 ecx, DWORD PTR _ch$[ebp]
  0107a	8b 94 8d 48 ff
	ff ff		 mov	 edx, DWORD PTR _ch_p$[ebp+ecx*4]
  01081	8b 4d f4	 mov	 ecx, DWORD PTR _d0$[ebp]
  01084	89 8c 90 00 00
	00 00		 mov	 DWORD PTR ?step@@3PAY0EAAA@HA[eax+edx*4], ecx
  0108b	8b 55 d0	 mov	 edx, DWORD PTR _ch$[ebp]
  0108e	8b 84 95 48 ff
	ff ff		 mov	 eax, DWORD PTR _ch_p$[ebp+edx*4]
  01095	83 c0 01	 add	 eax, 1
  01098	8b 4d d0	 mov	 ecx, DWORD PTR _ch$[ebp]
  0109b	89 84 8d 48 ff
	ff ff		 mov	 DWORD PTR _ch_p$[ebp+ecx*4], eax

; 1494 : //			}
; 1495 : 			d0 = get_step( fp, ch );		//?????????

  010a2	8b 45 d0	 mov	 eax, DWORD PTR _ch$[ebp]
  010a5	50		 push	 eax
  010a6	8b 8d 4c f3 ff
	ff		 mov	 ecx, DWORD PTR _fp$[ebp]
  010ac	51		 push	 ecx
  010ad	e8 00 00 00 00	 call	 ?get_step@@YAHPAU_iobuf@@H@Z ; get_step
  010b2	83 c4 08	 add	 esp, 8
  010b5	89 45 f4	 mov	 DWORD PTR _d0$[ebp], eax

; 1496 : 			if(d0 == -1){		//????

  010b8	83 7d f4 ff	 cmp	 DWORD PTR _d0$[ebp], -1
  010bc	75 14		 jne	 SHORT $LN170@music_read

; 1497 : 				err_flg=M_STEP_ERR;		//??????

  010be	c7 85 2c fe ff
	ff 01 00 00 00	 mov	 DWORD PTR _err_flg$[ebp], 1

; 1498 : 				goto music_read_999;

  010c8	e9 5c 10 00 00	 jmp	 $LN171@music_read
  010cd	e9 6d 10 00 00	 jmp	 $music_read_999$312
$LN170@music_read:

; 1499 : 			}
; 1500 : 			step[ch][ch_p[ch]++] = d0;		//??????????

  010d2	8b 45 d0	 mov	 eax, DWORD PTR _ch$[ebp]
  010d5	c1 e0 10	 shl	 eax, 16			; 00000010H
  010d8	8b 4d d0	 mov	 ecx, DWORD PTR _ch$[ebp]
  010db	8b 94 8d 48 ff
	ff ff		 mov	 edx, DWORD PTR _ch_p$[ebp+ecx*4]
  010e2	8b 4d f4	 mov	 ecx, DWORD PTR _d0$[ebp]
  010e5	89 8c 90 00 00
	00 00		 mov	 DWORD PTR ?step@@3PAY0EAAA@HA[eax+edx*4], ecx
  010ec	8b 55 d0	 mov	 edx, DWORD PTR _ch$[ebp]
  010ef	8b 84 95 48 ff
	ff ff		 mov	 eax, DWORD PTR _ch_p$[ebp+edx*4]
  010f6	83 c0 01	 add	 eax, 1
  010f9	8b 4d d0	 mov	 ecx, DWORD PTR _ch$[ebp]
  010fc	89 84 8d 48 ff
	ff ff		 mov	 DWORD PTR _ch_p$[ebp+ecx*4], eax

; 1501 : 			d1 = f_get( fp );		//????

  01103	8b 85 4c f3 ff
	ff		 mov	 eax, DWORD PTR _fp$[ebp]
  01109	50		 push	 eax
  0110a	e8 00 00 00 00	 call	 ?f_get@@YAHPAU_iobuf@@@Z ; f_get
  0110f	83 c4 04	 add	 esp, 4
  01112	89 45 e8	 mov	 DWORD PTR _d1$[ebp], eax

; 1502 : 			if(d1 == '&'){

  01115	83 7d e8 26	 cmp	 DWORD PTR _d1$[ebp], 38	; 00000026H
  01119	75 34		 jne	 SHORT $LN172@music_read

; 1503 : 				step[ch][ch_p[ch]++] = -1;	//?????????

  0111b	8b 45 d0	 mov	 eax, DWORD PTR _ch$[ebp]
  0111e	c1 e0 10	 shl	 eax, 16			; 00000010H
  01121	8b 4d d0	 mov	 ecx, DWORD PTR _ch$[ebp]
  01124	8b 94 8d 48 ff
	ff ff		 mov	 edx, DWORD PTR _ch_p$[ebp+ecx*4]
  0112b	c7 84 90 00 00
	00 00 ff ff ff
	ff		 mov	 DWORD PTR ?step@@3PAY0EAAA@HA[eax+edx*4], -1
  01136	8b 45 d0	 mov	 eax, DWORD PTR _ch$[ebp]
  01139	8b 8c 85 48 ff
	ff ff		 mov	 ecx, DWORD PTR _ch_p$[ebp+eax*4]
  01140	83 c1 01	 add	 ecx, 1
  01143	8b 55 d0	 mov	 edx, DWORD PTR _ch$[ebp]
  01146	89 8c 95 48 ff
	ff ff		 mov	 DWORD PTR _ch_p$[ebp+edx*4], ecx

; 1504 : 			} else {

  0114d	eb 64		 jmp	 SHORT $LN173@music_read
$LN172@music_read:

; 1505 : 				fseek(fp,-1,SEEK_CUR);		//??????

  0114f	8b f4		 mov	 esi, esp
  01151	6a 01		 push	 1
  01153	6a ff		 push	 -1
  01155	8b 85 4c f3 ff
	ff		 mov	 eax, DWORD PTR _fp$[ebp]
  0115b	50		 push	 eax
  0115c	ff 15 00 00 00
	00		 call	 DWORD PTR __imp__fseek
  01162	83 c4 0c	 add	 esp, 12			; 0000000cH
  01165	3b f4		 cmp	 esi, esp
  01167	e8 00 00 00 00	 call	 __RTC_CheckEsp

; 1506 : 				step[ch][ch_p[ch]++] = d0 * q_com[ch] / 8;	//?????????

  0116c	8b 45 d0	 mov	 eax, DWORD PTR _ch$[ebp]
  0116f	8b 4d f4	 mov	 ecx, DWORD PTR _d0$[ebp]
  01172	0f af 8c 85 6c
	f4 ff ff	 imul	 ecx, DWORD PTR _q_com$[ebp+eax*4]
  0117a	8b c1		 mov	 eax, ecx
  0117c	99		 cdq
  0117d	83 e2 07	 and	 edx, 7
  01180	03 c2		 add	 eax, edx
  01182	c1 f8 03	 sar	 eax, 3
  01185	8b 55 d0	 mov	 edx, DWORD PTR _ch$[ebp]
  01188	c1 e2 10	 shl	 edx, 16			; 00000010H
  0118b	8b 4d d0	 mov	 ecx, DWORD PTR _ch$[ebp]
  0118e	8b 8c 8d 48 ff
	ff ff		 mov	 ecx, DWORD PTR _ch_p$[ebp+ecx*4]
  01195	89 84 8a 00 00
	00 00		 mov	 DWORD PTR ?step@@3PAY0EAAA@HA[edx+ecx*4], eax
  0119c	8b 55 d0	 mov	 edx, DWORD PTR _ch$[ebp]
  0119f	8b 84 95 48 ff
	ff ff		 mov	 eax, DWORD PTR _ch_p$[ebp+edx*4]
  011a6	83 c0 01	 add	 eax, 1
  011a9	8b 4d d0	 mov	 ecx, DWORD PTR _ch$[ebp]
  011ac	89 84 8d 48 ff
	ff ff		 mov	 DWORD PTR _ch_p$[ebp+ecx*4], eax
$LN173@music_read:

; 1507 : 			}
; 1508 : 			goto music_read_100;

  011b3	e9 dc f4 ff ff	 jmp	 $music_read_100$313
$LN174@music_read:

; 1509 : 		case 't':		//???
; 1510 : 			d0 = f_get( fp );		//?????

  011b8	8b 85 4c f3 ff
	ff		 mov	 eax, DWORD PTR _fp$[ebp]
  011be	50		 push	 eax
  011bf	e8 00 00 00 00	 call	 ?f_get@@YAHPAU_iobuf@@@Z ; f_get
  011c4	83 c4 04	 add	 esp, 4
  011c7	89 45 f4	 mov	 DWORD PTR _d0$[ebp], eax

; 1511 : 			if( d0 < '0' || d0> '9' ){		//???

  011ca	83 7d f4 30	 cmp	 DWORD PTR _d0$[ebp], 48	; 00000030H
  011ce	7c 06		 jl	 SHORT $LN176@music_read
  011d0	83 7d f4 39	 cmp	 DWORD PTR _d0$[ebp], 57	; 00000039H
  011d4	7e 14		 jle	 SHORT $LN175@music_read
$LN176@music_read:

; 1512 : 				err_flg=M_TCOMMAND_ERR;

  011d6	c7 85 2c fe ff
	ff 04 00 00 00	 mov	 DWORD PTR _err_flg$[ebp], 4

; 1513 : 				goto music_read_999;

  011e0	e9 46 0f 00 00	 jmp	 $LN177@music_read
  011e5	e9 55 0f 00 00	 jmp	 $music_read_999$312
$LN175@music_read:

; 1514 : 			}
; 1515 : 			fseek(fp,-1,SEEK_CUR);		//??????

  011ea	8b f4		 mov	 esi, esp
  011ec	6a 01		 push	 1
  011ee	6a ff		 push	 -1
  011f0	8b 85 4c f3 ff
	ff		 mov	 eax, DWORD PTR _fp$[ebp]
  011f6	50		 push	 eax
  011f7	ff 15 00 00 00
	00		 call	 DWORD PTR __imp__fseek
  011fd	83 c4 0c	 add	 esp, 12			; 0000000cH
  01200	3b f4		 cmp	 esi, esp
  01202	e8 00 00 00 00	 call	 __RTC_CheckEsp

; 1516 : 			d0 = get_num( fp );

  01207	8b 85 4c f3 ff
	ff		 mov	 eax, DWORD PTR _fp$[ebp]
  0120d	50		 push	 eax
  0120e	e8 00 00 00 00	 call	 ?get_num@@YAHPAU_iobuf@@@Z ; get_num
  01213	83 c4 04	 add	 esp, 4
  01216	89 45 f4	 mov	 DWORD PTR _d0$[ebp], eax

; 1517 : 			step[ch][ch_p[ch]++] = MUSIC_TEMPO;

  01219	8b 45 d0	 mov	 eax, DWORD PTR _ch$[ebp]
  0121c	c1 e0 10	 shl	 eax, 16			; 00000010H
  0121f	8b 4d d0	 mov	 ecx, DWORD PTR _ch$[ebp]
  01222	8b 94 8d 48 ff
	ff ff		 mov	 edx, DWORD PTR _ch_p$[ebp+ecx*4]
  01229	c7 84 90 00 00
	00 00 f9 ff ff
	ff		 mov	 DWORD PTR ?step@@3PAY0EAAA@HA[eax+edx*4], -7 ; fffffff9H
  01234	8b 45 d0	 mov	 eax, DWORD PTR _ch$[ebp]
  01237	8b 8c 85 48 ff
	ff ff		 mov	 ecx, DWORD PTR _ch_p$[ebp+eax*4]
  0123e	83 c1 01	 add	 ecx, 1
  01241	8b 55 d0	 mov	 edx, DWORD PTR _ch$[ebp]
  01244	89 8c 95 48 ff
	ff ff		 mov	 DWORD PTR _ch_p$[ebp+edx*4], ecx

; 1518 : #if MODE98
; 1519 : 			step[ch][ch_p[ch]++] = (int)((float)120 / (float)d0 * (float)12600)*2;
; 1520 : #else
; 1521 : 			step[ch][ch_p[ch]++] = (int)((float)120 / (float)d0 * (float)12600);

  0124b	f3 0f 2a 45 f4	 cvtsi2ss xmm0, DWORD PTR _d0$[ebp]
  01250	f3 0f 10 0d 00
	00 00 00	 movss	 xmm1, DWORD PTR __real@42f00000
  01258	f3 0f 5e c8	 divss	 xmm1, xmm0
  0125c	f3 0f 59 0d 00
	00 00 00	 mulss	 xmm1, DWORD PTR __real@4644e000
  01264	f3 0f 2c c1	 cvttss2si eax, xmm1
  01268	8b 4d d0	 mov	 ecx, DWORD PTR _ch$[ebp]
  0126b	c1 e1 10	 shl	 ecx, 16			; 00000010H
  0126e	8b 55 d0	 mov	 edx, DWORD PTR _ch$[ebp]
  01271	8b 94 95 48 ff
	ff ff		 mov	 edx, DWORD PTR _ch_p$[ebp+edx*4]
  01278	89 84 91 00 00
	00 00		 mov	 DWORD PTR ?step@@3PAY0EAAA@HA[ecx+edx*4], eax
  0127f	8b 45 d0	 mov	 eax, DWORD PTR _ch$[ebp]
  01282	8b 8c 85 48 ff
	ff ff		 mov	 ecx, DWORD PTR _ch_p$[ebp+eax*4]
  01289	83 c1 01	 add	 ecx, 1
  0128c	8b 55 d0	 mov	 edx, DWORD PTR _ch$[ebp]
  0128f	89 8c 95 48 ff
	ff ff		 mov	 DWORD PTR _ch_p$[ebp+edx*4], ecx

; 1522 : #endif
; 1523 : 			goto music_read_100;

  01296	e9 f9 f3 ff ff	 jmp	 $music_read_100$313
$LN178@music_read:

; 1524 : 		case 'v':		//?????
; 1525 : 			d0 = f_get( fp );		//????

  0129b	8b 85 4c f3 ff
	ff		 mov	 eax, DWORD PTR _fp$[ebp]
  012a1	50		 push	 eax
  012a2	e8 00 00 00 00	 call	 ?f_get@@YAHPAU_iobuf@@@Z ; f_get
  012a7	83 c4 04	 add	 esp, 4
  012aa	89 45 f4	 mov	 DWORD PTR _d0$[ebp], eax

; 1526 : 			if( d0 < '0' || d0> '9' ){		//???

  012ad	83 7d f4 30	 cmp	 DWORD PTR _d0$[ebp], 48	; 00000030H
  012b1	7c 06		 jl	 SHORT $LN180@music_read
  012b3	83 7d f4 39	 cmp	 DWORD PTR _d0$[ebp], 57	; 00000039H
  012b7	7e 14		 jle	 SHORT $LN179@music_read
$LN180@music_read:

; 1527 : 				err_flg=M_VCOMMAND_ERR;

  012b9	c7 85 2c fe ff
	ff 05 00 00 00	 mov	 DWORD PTR _err_flg$[ebp], 5

; 1528 : 				goto music_read_999;

  012c3	e9 65 0e 00 00	 jmp	 $LN181@music_read
  012c8	e9 72 0e 00 00	 jmp	 $music_read_999$312
$LN179@music_read:

; 1529 : 			}
; 1530 : 			fseek(fp,-1,SEEK_CUR);		//??????

  012cd	8b f4		 mov	 esi, esp
  012cf	6a 01		 push	 1
  012d1	6a ff		 push	 -1
  012d3	8b 85 4c f3 ff
	ff		 mov	 eax, DWORD PTR _fp$[ebp]
  012d9	50		 push	 eax
  012da	ff 15 00 00 00
	00		 call	 DWORD PTR __imp__fseek
  012e0	83 c4 0c	 add	 esp, 12			; 0000000cH
  012e3	3b f4		 cmp	 esi, esp
  012e5	e8 00 00 00 00	 call	 __RTC_CheckEsp

; 1531 : 			d0 = get_num( fp );

  012ea	8b 85 4c f3 ff
	ff		 mov	 eax, DWORD PTR _fp$[ebp]
  012f0	50		 push	 eax
  012f1	e8 00 00 00 00	 call	 ?get_num@@YAHPAU_iobuf@@@Z ; get_num
  012f6	83 c4 04	 add	 esp, 4
  012f9	89 45 f4	 mov	 DWORD PTR _d0$[ebp], eax

; 1532 : 			if(d0>15){		//???????

  012fc	83 7d f4 0f	 cmp	 DWORD PTR _d0$[ebp], 15	; 0000000fH
  01300	7e 14		 jle	 SHORT $LN182@music_read

; 1533 : 				err_flg=M_VCOMMAND_ERR;

  01302	c7 85 2c fe ff
	ff 05 00 00 00	 mov	 DWORD PTR _err_flg$[ebp], 5

; 1534 : 				goto music_read_999;

  0130c	e9 1e 0e 00 00	 jmp	 $LN183@music_read
  01311	e9 29 0e 00 00	 jmp	 $music_read_999$312
$LN182@music_read:

; 1535 : 			}
; 1536 : 			step[ch][ch_p[ch]++]=MUSIC_VOL;

  01316	8b 45 d0	 mov	 eax, DWORD PTR _ch$[ebp]
  01319	c1 e0 10	 shl	 eax, 16			; 00000010H
  0131c	8b 4d d0	 mov	 ecx, DWORD PTR _ch$[ebp]
  0131f	8b 94 8d 48 ff
	ff ff		 mov	 edx, DWORD PTR _ch_p$[ebp+ecx*4]
  01326	c7 84 90 00 00
	00 00 fb ff ff
	ff		 mov	 DWORD PTR ?step@@3PAY0EAAA@HA[eax+edx*4], -5 ; fffffffbH
  01331	8b 45 d0	 mov	 eax, DWORD PTR _ch$[ebp]
  01334	8b 8c 85 48 ff
	ff ff		 mov	 ecx, DWORD PTR _ch_p$[ebp+eax*4]
  0133b	83 c1 01	 add	 ecx, 1
  0133e	8b 55 d0	 mov	 edx, DWORD PTR _ch$[ebp]
  01341	89 8c 95 48 ff
	ff ff		 mov	 DWORD PTR _ch_p$[ebp+edx*4], ecx

; 1537 : 			if( d0 ){

  01348	83 7d f4 00	 cmp	 DWORD PTR _d0$[ebp], 0
  0134c	0f 84 80 00 00
	00		 je	 $LN184@music_read

; 1538 : 					d0 = 15 - d0;

  01352	b8 0f 00 00 00	 mov	 eax, 15			; 0000000fH
  01357	2b 45 f4	 sub	 eax, DWORD PTR _d0$[ebp]
  0135a	89 45 f4	 mov	 DWORD PTR _d0$[ebp], eax

; 1539 : //					d0 *= d0;
; 1540 : //					d0 = (int)((float)d0 * 39.0625);
; 1541 : //					step[ch][ch_p[ch]++] = -d0;
; 1542 : 					d6 = d0;

  0135d	8b 45 f4	 mov	 eax, DWORD PTR _d0$[ebp]
  01360	89 85 60 f4 ff
	ff		 mov	 DWORD PTR _d6$[ebp], eax

; 1543 : 					d6 = d6*d6*d6;

  01366	8b 85 60 f4 ff
	ff		 mov	 eax, DWORD PTR _d6$[ebp]
  0136c	0f af 85 60 f4
	ff ff		 imul	 eax, DWORD PTR _d6$[ebp]
  01373	0f af 85 60 f4
	ff ff		 imul	 eax, DWORD PTR _d6$[ebp]
  0137a	89 85 60 f4 ff
	ff		 mov	 DWORD PTR _d6$[ebp], eax

; 1544 : 					d6 = (long)(10000.0 / ( 16.0 * 16.0 * 16.0 ) * d6 );

  01380	f2 0f 2a 85 60
	f4 ff ff	 cvtsi2sd xmm0, DWORD PTR _d6$[ebp]
  01388	f2 0f 59 05 00
	00 00 00	 mulsd	 xmm0, QWORD PTR __real@4003880000000000
  01390	f2 0f 2c c0	 cvttsd2si eax, xmm0
  01394	89 85 60 f4 ff
	ff		 mov	 DWORD PTR _d6$[ebp], eax

; 1545 : 					step[ch][ch_p[ch]++] = -d6;

  0139a	8b 85 60 f4 ff
	ff		 mov	 eax, DWORD PTR _d6$[ebp]
  013a0	f7 d8		 neg	 eax
  013a2	8b 4d d0	 mov	 ecx, DWORD PTR _ch$[ebp]
  013a5	c1 e1 10	 shl	 ecx, 16			; 00000010H
  013a8	8b 55 d0	 mov	 edx, DWORD PTR _ch$[ebp]
  013ab	8b 94 95 48 ff
	ff ff		 mov	 edx, DWORD PTR _ch_p$[ebp+edx*4]
  013b2	89 84 91 00 00
	00 00		 mov	 DWORD PTR ?step@@3PAY0EAAA@HA[ecx+edx*4], eax
  013b9	8b 45 d0	 mov	 eax, DWORD PTR _ch$[ebp]
  013bc	8b 8c 85 48 ff
	ff ff		 mov	 ecx, DWORD PTR _ch_p$[ebp+eax*4]
  013c3	83 c1 01	 add	 ecx, 1
  013c6	8b 55 d0	 mov	 edx, DWORD PTR _ch$[ebp]
  013c9	89 8c 95 48 ff
	ff ff		 mov	 DWORD PTR _ch_p$[ebp+edx*4], ecx

; 1546 : 			} else {

  013d0	eb 32		 jmp	 SHORT $LN185@music_read
$LN184@music_read:

; 1547 : 				step[ch][ch_p[ch]++] = -10000;

  013d2	8b 45 d0	 mov	 eax, DWORD PTR _ch$[ebp]
  013d5	c1 e0 10	 shl	 eax, 16			; 00000010H
  013d8	8b 4d d0	 mov	 ecx, DWORD PTR _ch$[ebp]
  013db	8b 94 8d 48 ff
	ff ff		 mov	 edx, DWORD PTR _ch_p$[ebp+ecx*4]
  013e2	c7 84 90 00 00
	00 00 f0 d8 ff
	ff		 mov	 DWORD PTR ?step@@3PAY0EAAA@HA[eax+edx*4], -10000 ; ffffd8f0H
  013ed	8b 45 d0	 mov	 eax, DWORD PTR _ch$[ebp]
  013f0	8b 8c 85 48 ff
	ff ff		 mov	 ecx, DWORD PTR _ch_p$[ebp+eax*4]
  013f7	83 c1 01	 add	 ecx, 1
  013fa	8b 55 d0	 mov	 edx, DWORD PTR _ch$[ebp]
  013fd	89 8c 95 48 ff
	ff ff		 mov	 DWORD PTR _ch_p$[ebp+edx*4], ecx
$LN185@music_read:

; 1548 : 			}
; 1549 : 			goto music_read_100;

  01404	e9 8b f2 ff ff	 jmp	 $music_read_100$313
$LN186@music_read:

; 1550 : 		case '@':		//?????
; 1551 : 			d0 = f_get( fp );		//??????

  01409	8b 85 4c f3 ff
	ff		 mov	 eax, DWORD PTR _fp$[ebp]
  0140f	50		 push	 eax
  01410	e8 00 00 00 00	 call	 ?f_get@@YAHPAU_iobuf@@@Z ; f_get
  01415	83 c4 04	 add	 esp, 4
  01418	89 45 f4	 mov	 DWORD PTR _d0$[ebp], eax

; 1552 : 
; 1553 : 			if( d0 >= '0' && d0<= '9' ){		//???

  0141b	83 7d f4 30	 cmp	 DWORD PTR _d0$[ebp], 48	; 00000030H
  0141f	0f 8c 9e 00 00
	00		 jl	 $LN187@music_read
  01425	83 7d f4 39	 cmp	 DWORD PTR _d0$[ebp], 57	; 00000039H
  01429	0f 8f 94 00 00
	00		 jg	 $LN187@music_read

; 1554 : 				fseek(fp,-1,SEEK_CUR);		//??????

  0142f	8b f4		 mov	 esi, esp
  01431	6a 01		 push	 1
  01433	6a ff		 push	 -1
  01435	8b 85 4c f3 ff
	ff		 mov	 eax, DWORD PTR _fp$[ebp]
  0143b	50		 push	 eax
  0143c	ff 15 00 00 00
	00		 call	 DWORD PTR __imp__fseek
  01442	83 c4 0c	 add	 esp, 12			; 0000000cH
  01445	3b f4		 cmp	 esi, esp
  01447	e8 00 00 00 00	 call	 __RTC_CheckEsp

; 1555 : 				step[ch][ch_p[ch]++] = MUSIC_NEIRO_NO;		//?瑙k????

  0144c	8b 45 d0	 mov	 eax, DWORD PTR _ch$[ebp]
  0144f	c1 e0 10	 shl	 eax, 16			; 00000010H
  01452	8b 4d d0	 mov	 ecx, DWORD PTR _ch$[ebp]
  01455	8b 94 8d 48 ff
	ff ff		 mov	 edx, DWORD PTR _ch_p$[ebp+ecx*4]
  0145c	c7 84 90 00 00
	00 00 f7 ff ff
	ff		 mov	 DWORD PTR ?step@@3PAY0EAAA@HA[eax+edx*4], -9 ; fffffff7H
  01467	8b 45 d0	 mov	 eax, DWORD PTR _ch$[ebp]
  0146a	8b 8c 85 48 ff
	ff ff		 mov	 ecx, DWORD PTR _ch_p$[ebp+eax*4]
  01471	83 c1 01	 add	 ecx, 1
  01474	8b 55 d0	 mov	 edx, DWORD PTR _ch$[ebp]
  01477	89 8c 95 48 ff
	ff ff		 mov	 DWORD PTR _ch_p$[ebp+edx*4], ecx

; 1556 : 				step[ch][ch_p[ch]++] = get_num( fp ) - 1;

  0147e	8b 85 4c f3 ff
	ff		 mov	 eax, DWORD PTR _fp$[ebp]
  01484	50		 push	 eax
  01485	e8 00 00 00 00	 call	 ?get_num@@YAHPAU_iobuf@@@Z ; get_num
  0148a	83 c4 04	 add	 esp, 4
  0148d	83 e8 01	 sub	 eax, 1
  01490	8b 4d d0	 mov	 ecx, DWORD PTR _ch$[ebp]
  01493	c1 e1 10	 shl	 ecx, 16			; 00000010H
  01496	8b 55 d0	 mov	 edx, DWORD PTR _ch$[ebp]
  01499	8b 94 95 48 ff
	ff ff		 mov	 edx, DWORD PTR _ch_p$[ebp+edx*4]
  014a0	89 84 91 00 00
	00 00		 mov	 DWORD PTR ?step@@3PAY0EAAA@HA[ecx+edx*4], eax
  014a7	8b 45 d0	 mov	 eax, DWORD PTR _ch$[ebp]
  014aa	8b 8c 85 48 ff
	ff ff		 mov	 ecx, DWORD PTR _ch_p$[ebp+eax*4]
  014b1	83 c1 01	 add	 ecx, 1
  014b4	8b 55 d0	 mov	 edx, DWORD PTR _ch$[ebp]
  014b7	89 8c 95 48 ff
	ff ff		 mov	 DWORD PTR _ch_p$[ebp+edx*4], ecx

; 1557 : 				goto music_read_100;

  014be	e9 d1 f1 ff ff	 jmp	 $music_read_100$313
$LN187@music_read:

; 1558 : 			}
; 1559 : 
; 1560 : 			switch(d0){

  014c3	8b 45 f4	 mov	 eax, DWORD PTR _d0$[ebp]
  014c6	89 85 a8 ed ff
	ff		 mov	 DWORD PTR tv760[ebp], eax
  014cc	8b 8d a8 ed ff
	ff		 mov	 ecx, DWORD PTR tv760[ebp]
  014d2	83 e9 64	 sub	 ecx, 100		; 00000064H
  014d5	89 8d a8 ed ff
	ff		 mov	 DWORD PTR tv760[ebp], ecx
  014db	83 bd a8 ed ff
	ff 13		 cmp	 DWORD PTR tv760[ebp], 19 ; 00000013H
  014e2	0f 87 cb 06 00
	00		 ja	 $LN228@music_read
  014e8	8b 95 a8 ed ff
	ff		 mov	 edx, DWORD PTR tv760[ebp]
  014ee	0f b6 82 00 00
	00 00		 movzx	 eax, BYTE PTR $LN297@music_read[edx]
  014f5	ff 24 85 00 00
	00 00		 jmp	 DWORD PTR $LN311@music_read[eax*4]
$LN188@music_read:

; 1561 : 			case 'v':		//?????
; 1562 : 				d0 = f_get( fp );		//????

  014fc	8b 85 4c f3 ff
	ff		 mov	 eax, DWORD PTR _fp$[ebp]
  01502	50		 push	 eax
  01503	e8 00 00 00 00	 call	 ?f_get@@YAHPAU_iobuf@@@Z ; f_get
  01508	83 c4 04	 add	 esp, 4
  0150b	89 45 f4	 mov	 DWORD PTR _d0$[ebp], eax

; 1563 : 				if( d0 < '0' || d0> '9' ){		//???

  0150e	83 7d f4 30	 cmp	 DWORD PTR _d0$[ebp], 48	; 00000030H
  01512	7c 06		 jl	 SHORT $LN190@music_read
  01514	83 7d f4 39	 cmp	 DWORD PTR _d0$[ebp], 57	; 00000039H
  01518	7e 14		 jle	 SHORT $LN189@music_read
$LN190@music_read:

; 1564 : 					err_flg=M_V2COMMAND_ERR;

  0151a	c7 85 2c fe ff
	ff 06 00 00 00	 mov	 DWORD PTR _err_flg$[ebp], 6

; 1565 : 					goto music_read_999;

  01524	e9 08 0c 00 00	 jmp	 $LN191@music_read
  01529	e9 11 0c 00 00	 jmp	 $music_read_999$312
$LN189@music_read:

; 1566 : 				}
; 1567 : 				fseek(fp,-1,SEEK_CUR);		//??????

  0152e	8b f4		 mov	 esi, esp
  01530	6a 01		 push	 1
  01532	6a ff		 push	 -1
  01534	8b 85 4c f3 ff
	ff		 mov	 eax, DWORD PTR _fp$[ebp]
  0153a	50		 push	 eax
  0153b	ff 15 00 00 00
	00		 call	 DWORD PTR __imp__fseek
  01541	83 c4 0c	 add	 esp, 12			; 0000000cH
  01544	3b f4		 cmp	 esi, esp
  01546	e8 00 00 00 00	 call	 __RTC_CheckEsp

; 1568 : 				d0 = get_num( fp );

  0154b	8b 85 4c f3 ff
	ff		 mov	 eax, DWORD PTR _fp$[ebp]
  01551	50		 push	 eax
  01552	e8 00 00 00 00	 call	 ?get_num@@YAHPAU_iobuf@@@Z ; get_num
  01557	83 c4 04	 add	 esp, 4
  0155a	89 45 f4	 mov	 DWORD PTR _d0$[ebp], eax

; 1569 : 				if(d0>127){		//???????

  0155d	83 7d f4 7f	 cmp	 DWORD PTR _d0$[ebp], 127 ; 0000007fH
  01561	7e 14		 jle	 SHORT $LN192@music_read

; 1570 : 					err_flg=M_V2COMMAND_ERR;

  01563	c7 85 2c fe ff
	ff 06 00 00 00	 mov	 DWORD PTR _err_flg$[ebp], 6

; 1571 : 					goto music_read_999;

  0156d	e9 c1 0b 00 00	 jmp	 $LN193@music_read
  01572	e9 c8 0b 00 00	 jmp	 $music_read_999$312
$LN192@music_read:

; 1572 : 				}
; 1573 : 				step[ch][ch_p[ch]++]=MUSIC_VOL;

  01577	8b 45 d0	 mov	 eax, DWORD PTR _ch$[ebp]
  0157a	c1 e0 10	 shl	 eax, 16			; 00000010H
  0157d	8b 4d d0	 mov	 ecx, DWORD PTR _ch$[ebp]
  01580	8b 94 8d 48 ff
	ff ff		 mov	 edx, DWORD PTR _ch_p$[ebp+ecx*4]
  01587	c7 84 90 00 00
	00 00 fb ff ff
	ff		 mov	 DWORD PTR ?step@@3PAY0EAAA@HA[eax+edx*4], -5 ; fffffffbH
  01592	8b 45 d0	 mov	 eax, DWORD PTR _ch$[ebp]
  01595	8b 8c 85 48 ff
	ff ff		 mov	 ecx, DWORD PTR _ch_p$[ebp+eax*4]
  0159c	83 c1 01	 add	 ecx, 1
  0159f	8b 55 d0	 mov	 edx, DWORD PTR _ch$[ebp]
  015a2	89 8c 95 48 ff
	ff ff		 mov	 DWORD PTR _ch_p$[ebp+edx*4], ecx

; 1574 : #if 0
; 1575 : 				if( d0 ){
; 1576 : 					d0 = 127 - d0;
; 1577 : //					d0 *= d0;
; 1578 : //					d0 = (int)((float)d0 * 0.61);
; 1579 : //					step[ch][ch_p[ch]++] = -d0;
; 1580 : 					d6 = d0;
; 1581 : 					d6 = d6*d6*d6;
; 1582 : 					d6 = (long)(10000.0 / ( 128.0 * 128.0 * 128.0 ) * d6 );
; 1583 : 					step[ch][ch_p[ch]++] = -d6;
; 1584 : 				} else {
; 1585 : 					step[ch][ch_p[ch]++] = -10000;
; 1586 : 				}
; 1587 : #else
; 1588 : //				d6=(long)(LOG(100,127)*10000) - (long)(LOG(100,(double)(d0))*10000);
; 1589 : //				step[ch][ch_p[ch]++] = -d6;
; 1590 : 
; 1591 : 				step[ch][ch_p[ch]++] = d0;

  015a9	8b 45 d0	 mov	 eax, DWORD PTR _ch$[ebp]
  015ac	c1 e0 10	 shl	 eax, 16			; 00000010H
  015af	8b 4d d0	 mov	 ecx, DWORD PTR _ch$[ebp]
  015b2	8b 94 8d 48 ff
	ff ff		 mov	 edx, DWORD PTR _ch_p$[ebp+ecx*4]
  015b9	8b 4d f4	 mov	 ecx, DWORD PTR _d0$[ebp]
  015bc	89 8c 90 00 00
	00 00		 mov	 DWORD PTR ?step@@3PAY0EAAA@HA[eax+edx*4], ecx
  015c3	8b 55 d0	 mov	 edx, DWORD PTR _ch$[ebp]
  015c6	8b 84 95 48 ff
	ff ff		 mov	 eax, DWORD PTR _ch_p$[ebp+edx*4]
  015cd	83 c0 01	 add	 eax, 1
  015d0	8b 4d d0	 mov	 ecx, DWORD PTR _ch$[ebp]
  015d3	89 84 8d 48 ff
	ff ff		 mov	 DWORD PTR _ch_p$[ebp+ecx*4], eax

; 1592 : 
; 1593 : #endif
; 1594 : 				goto music_read_100;

  015da	e9 b5 f0 ff ff	 jmp	 $music_read_100$313
$LN194@music_read:

; 1595 : 			case 'h':		//??
; 1596 : 				if(!num_check( fp )){		//???????

  015df	8b 85 4c f3 ff
	ff		 mov	 eax, DWORD PTR _fp$[ebp]
  015e5	50		 push	 eax
  015e6	e8 00 00 00 00	 call	 ?num_check@@YAHPAU_iobuf@@@Z ; num_check
  015eb	83 c4 04	 add	 esp, 4
  015ee	85 c0		 test	 eax, eax
  015f0	75 14		 jne	 SHORT $LN195@music_read

; 1597 : 					err_flg=M_H2COMMAND_ERR;

  015f2	c7 85 2c fe ff
	ff 18 00 00 00	 mov	 DWORD PTR _err_flg$[ebp], 24 ; 00000018H

; 1598 : 					goto music_read_999;

  015fc	e9 34 0b 00 00	 jmp	 $LN196@music_read
  01601	e9 39 0b 00 00	 jmp	 $music_read_999$312
$LN195@music_read:

; 1599 : 				}
; 1600 : 				d0 = get_num( fp );

  01606	8b 85 4c f3 ff
	ff		 mov	 eax, DWORD PTR _fp$[ebp]
  0160c	50		 push	 eax
  0160d	e8 00 00 00 00	 call	 ?get_num@@YAHPAU_iobuf@@@Z ; get_num
  01612	83 c4 04	 add	 esp, 4
  01615	89 45 f4	 mov	 DWORD PTR _d0$[ebp], eax

; 1601 : 				step[ch][ch_p[ch]++] = MUSIC_LFO_H;

  01618	8b 45 d0	 mov	 eax, DWORD PTR _ch$[ebp]
  0161b	c1 e0 10	 shl	 eax, 16			; 00000010H
  0161e	8b 4d d0	 mov	 ecx, DWORD PTR _ch$[ebp]
  01621	8b 94 8d 48 ff
	ff ff		 mov	 edx, DWORD PTR _ch_p$[ebp+ecx*4]
  01628	c7 84 90 00 00
	00 00 f0 ff ff
	ff		 mov	 DWORD PTR ?step@@3PAY0EAAA@HA[eax+edx*4], -16 ; fffffff0H
  01633	8b 45 d0	 mov	 eax, DWORD PTR _ch$[ebp]
  01636	8b 8c 85 48 ff
	ff ff		 mov	 ecx, DWORD PTR _ch_p$[ebp+eax*4]
  0163d	83 c1 01	 add	 ecx, 1
  01640	8b 55 d0	 mov	 edx, DWORD PTR _ch$[ebp]
  01643	89 8c 95 48 ff
	ff ff		 mov	 DWORD PTR _ch_p$[ebp+edx*4], ecx

; 1602 : 				step[ch][ch_p[ch]++] = d0;

  0164a	8b 45 d0	 mov	 eax, DWORD PTR _ch$[ebp]
  0164d	c1 e0 10	 shl	 eax, 16			; 00000010H
  01650	8b 4d d0	 mov	 ecx, DWORD PTR _ch$[ebp]
  01653	8b 94 8d 48 ff
	ff ff		 mov	 edx, DWORD PTR _ch_p$[ebp+ecx*4]
  0165a	8b 4d f4	 mov	 ecx, DWORD PTR _d0$[ebp]
  0165d	89 8c 90 00 00
	00 00		 mov	 DWORD PTR ?step@@3PAY0EAAA@HA[eax+edx*4], ecx
  01664	8b 55 d0	 mov	 edx, DWORD PTR _ch$[ebp]
  01667	8b 84 95 48 ff
	ff ff		 mov	 eax, DWORD PTR _ch_p$[ebp+edx*4]
  0166e	83 c0 01	 add	 eax, 1
  01671	8b 4d d0	 mov	 ecx, DWORD PTR _ch$[ebp]
  01674	89 84 8d 48 ff
	ff ff		 mov	 DWORD PTR _ch_p$[ebp+ecx*4], eax

; 1603 : 				goto music_read_100;

  0167b	e9 14 f0 ff ff	 jmp	 $music_read_100$313
$LN197@music_read:

; 1604 : 			case 'm':		//??
; 1605 : 				if(!num_check( fp )){		//???????

  01680	8b 85 4c f3 ff
	ff		 mov	 eax, DWORD PTR _fp$[ebp]
  01686	50		 push	 eax
  01687	e8 00 00 00 00	 call	 ?num_check@@YAHPAU_iobuf@@@Z ; num_check
  0168c	83 c4 04	 add	 esp, 4
  0168f	85 c0		 test	 eax, eax
  01691	75 14		 jne	 SHORT $LN198@music_read

; 1606 : 					err_flg=M_M2COMMAND_ERR;

  01693	c7 85 2c fe ff
	ff 19 00 00 00	 mov	 DWORD PTR _err_flg$[ebp], 25 ; 00000019H

; 1607 : 					goto music_read_999;

  0169d	e9 95 0a 00 00	 jmp	 $LN199@music_read
  016a2	e9 98 0a 00 00	 jmp	 $music_read_999$312
$LN198@music_read:

; 1608 : 				}
; 1609 : 				d0 = get_num( fp );

  016a7	8b 85 4c f3 ff
	ff		 mov	 eax, DWORD PTR _fp$[ebp]
  016ad	50		 push	 eax
  016ae	e8 00 00 00 00	 call	 ?get_num@@YAHPAU_iobuf@@@Z ; get_num
  016b3	83 c4 04	 add	 esp, 4
  016b6	89 45 f4	 mov	 DWORD PTR _d0$[ebp], eax

; 1610 : 				if(d0 > 127){		//d????

  016b9	83 7d f4 7f	 cmp	 DWORD PTR _d0$[ebp], 127 ; 0000007fH
  016bd	7e 14		 jle	 SHORT $LN200@music_read

; 1611 : 					err_flg=M_M2COMMAND_ERR;

  016bf	c7 85 2c fe ff
	ff 19 00 00 00	 mov	 DWORD PTR _err_flg$[ebp], 25 ; 00000019H

; 1612 : 					goto music_read_999;

  016c9	e9 6b 0a 00 00	 jmp	 $LN201@music_read
  016ce	e9 6c 0a 00 00	 jmp	 $music_read_999$312
$LN200@music_read:

; 1613 : 				}
; 1614 : 				step[ch][ch_p[ch]++] = MUSIC_LFO_M;

  016d3	8b 45 d0	 mov	 eax, DWORD PTR _ch$[ebp]
  016d6	c1 e0 10	 shl	 eax, 16			; 00000010H
  016d9	8b 4d d0	 mov	 ecx, DWORD PTR _ch$[ebp]
  016dc	8b 94 8d 48 ff
	ff ff		 mov	 edx, DWORD PTR _ch_p$[ebp+ecx*4]
  016e3	c7 84 90 00 00
	00 00 ef ff ff
	ff		 mov	 DWORD PTR ?step@@3PAY0EAAA@HA[eax+edx*4], -17 ; ffffffefH
  016ee	8b 45 d0	 mov	 eax, DWORD PTR _ch$[ebp]
  016f1	8b 8c 85 48 ff
	ff ff		 mov	 ecx, DWORD PTR _ch_p$[ebp+eax*4]
  016f8	83 c1 01	 add	 ecx, 1
  016fb	8b 55 d0	 mov	 edx, DWORD PTR _ch$[ebp]
  016fe	89 8c 95 48 ff
	ff ff		 mov	 DWORD PTR _ch_p$[ebp+edx*4], ecx

; 1615 : 				step[ch][ch_p[ch]++] = d0;

  01705	8b 45 d0	 mov	 eax, DWORD PTR _ch$[ebp]
  01708	c1 e0 10	 shl	 eax, 16			; 00000010H
  0170b	8b 4d d0	 mov	 ecx, DWORD PTR _ch$[ebp]
  0170e	8b 94 8d 48 ff
	ff ff		 mov	 edx, DWORD PTR _ch_p$[ebp+ecx*4]
  01715	8b 4d f4	 mov	 ecx, DWORD PTR _d0$[ebp]
  01718	89 8c 90 00 00
	00 00		 mov	 DWORD PTR ?step@@3PAY0EAAA@HA[eax+edx*4], ecx
  0171f	8b 55 d0	 mov	 edx, DWORD PTR _ch$[ebp]
  01722	8b 84 95 48 ff
	ff ff		 mov	 eax, DWORD PTR _ch_p$[ebp+edx*4]
  01729	83 c0 01	 add	 eax, 1
  0172c	8b 4d d0	 mov	 ecx, DWORD PTR _ch$[ebp]
  0172f	89 84 8d 48 ff
	ff ff		 mov	 DWORD PTR _ch_p$[ebp+ecx*4], eax

; 1616 : 				goto music_read_100;

  01736	e9 59 ef ff ff	 jmp	 $music_read_100$313
$LN202@music_read:

; 1617 : 			case 's':		//??
; 1618 : 				if(!num_check2( fp )){		//???????

  0173b	8b 85 4c f3 ff
	ff		 mov	 eax, DWORD PTR _fp$[ebp]
  01741	50		 push	 eax
  01742	e8 00 00 00 00	 call	 ?num_check2@@YAHPAU_iobuf@@@Z ; num_check2
  01747	83 c4 04	 add	 esp, 4
  0174a	85 c0		 test	 eax, eax
  0174c	75 14		 jne	 SHORT $LN203@music_read

; 1619 : 					err_flg=M_S2COMMAND_ERR;

  0174e	c7 85 2c fe ff
	ff 1a 00 00 00	 mov	 DWORD PTR _err_flg$[ebp], 26 ; 0000001aH

; 1620 : 					goto music_read_999;

  01758	e9 de 09 00 00	 jmp	 $LN204@music_read
  0175d	e9 dd 09 00 00	 jmp	 $music_read_999$312
$LN203@music_read:

; 1621 : 				}
; 1622 : 				d0 = get_num2( fp );

  01762	8b 85 4c f3 ff
	ff		 mov	 eax, DWORD PTR _fp$[ebp]
  01768	50		 push	 eax
  01769	e8 00 00 00 00	 call	 ?get_num2@@YAHPAU_iobuf@@@Z ; get_num2
  0176e	83 c4 04	 add	 esp, 4
  01771	89 45 f4	 mov	 DWORD PTR _d0$[ebp], eax

; 1623 : 				step[ch][ch_p[ch]++] = MUSIC_LFO_S;

  01774	8b 45 d0	 mov	 eax, DWORD PTR _ch$[ebp]
  01777	c1 e0 10	 shl	 eax, 16			; 00000010H
  0177a	8b 4d d0	 mov	 ecx, DWORD PTR _ch$[ebp]
  0177d	8b 94 8d 48 ff
	ff ff		 mov	 edx, DWORD PTR _ch_p$[ebp+ecx*4]
  01784	c7 84 90 00 00
	00 00 ee ff ff
	ff		 mov	 DWORD PTR ?step@@3PAY0EAAA@HA[eax+edx*4], -18 ; ffffffeeH
  0178f	8b 45 d0	 mov	 eax, DWORD PTR _ch$[ebp]
  01792	8b 8c 85 48 ff
	ff ff		 mov	 ecx, DWORD PTR _ch_p$[ebp+eax*4]
  01799	83 c1 01	 add	 ecx, 1
  0179c	8b 55 d0	 mov	 edx, DWORD PTR _ch$[ebp]
  0179f	89 8c 95 48 ff
	ff ff		 mov	 DWORD PTR _ch_p$[ebp+edx*4], ecx

; 1624 : 				step[ch][ch_p[ch]++] = d0;

  017a6	8b 45 d0	 mov	 eax, DWORD PTR _ch$[ebp]
  017a9	c1 e0 10	 shl	 eax, 16			; 00000010H
  017ac	8b 4d d0	 mov	 ecx, DWORD PTR _ch$[ebp]
  017af	8b 94 8d 48 ff
	ff ff		 mov	 edx, DWORD PTR _ch_p$[ebp+ecx*4]
  017b6	8b 4d f4	 mov	 ecx, DWORD PTR _d0$[ebp]
  017b9	89 8c 90 00 00
	00 00		 mov	 DWORD PTR ?step@@3PAY0EAAA@HA[eax+edx*4], ecx
  017c0	8b 55 d0	 mov	 edx, DWORD PTR _ch$[ebp]
  017c3	8b 84 95 48 ff
	ff ff		 mov	 eax, DWORD PTR _ch_p$[ebp+edx*4]
  017ca	83 c0 01	 add	 eax, 1
  017cd	8b 4d d0	 mov	 ecx, DWORD PTR _ch$[ebp]
  017d0	89 84 8d 48 ff
	ff ff		 mov	 DWORD PTR _ch_p$[ebp+ecx*4], eax

; 1625 : 				goto music_read_100;

  017d7	e9 b8 ee ff ff	 jmp	 $music_read_100$313
$LN205@music_read:

; 1626 : 			case 'p':		//?????
; 1627 : 				d0 = f_get( fp );		//?h???

  017dc	8b 85 4c f3 ff
	ff		 mov	 eax, DWORD PTR _fp$[ebp]
  017e2	50		 push	 eax
  017e3	e8 00 00 00 00	 call	 ?f_get@@YAHPAU_iobuf@@@Z ; f_get
  017e8	83 c4 04	 add	 esp, 4
  017eb	89 45 f4	 mov	 DWORD PTR _d0$[ebp], eax

; 1628 : 				if( d0 < '0' || d0 > '9' ){		//???

  017ee	83 7d f4 30	 cmp	 DWORD PTR _d0$[ebp], 48	; 00000030H
  017f2	7c 06		 jl	 SHORT $LN207@music_read
  017f4	83 7d f4 39	 cmp	 DWORD PTR _d0$[ebp], 57	; 00000039H
  017f8	7e 14		 jle	 SHORT $LN206@music_read
$LN207@music_read:

; 1629 : 					err_flg=M_P2COMMAND_ERR;

  017fa	c7 85 2c fe ff
	ff 07 00 00 00	 mov	 DWORD PTR _err_flg$[ebp], 7

; 1630 : 					goto music_read_999;

  01804	e9 34 09 00 00	 jmp	 $LN208@music_read
  01809	e9 31 09 00 00	 jmp	 $music_read_999$312
$LN206@music_read:

; 1631 : 				}
; 1632 : 				fseek(fp,-1,SEEK_CUR);		//??????

  0180e	8b f4		 mov	 esi, esp
  01810	6a 01		 push	 1
  01812	6a ff		 push	 -1
  01814	8b 85 4c f3 ff
	ff		 mov	 eax, DWORD PTR _fp$[ebp]
  0181a	50		 push	 eax
  0181b	ff 15 00 00 00
	00		 call	 DWORD PTR __imp__fseek
  01821	83 c4 0c	 add	 esp, 12			; 0000000cH
  01824	3b f4		 cmp	 esi, esp
  01826	e8 00 00 00 00	 call	 __RTC_CheckEsp

; 1633 : 				d0 = get_num( fp );

  0182b	8b 85 4c f3 ff
	ff		 mov	 eax, DWORD PTR _fp$[ebp]
  01831	50		 push	 eax
  01832	e8 00 00 00 00	 call	 ?get_num@@YAHPAU_iobuf@@@Z ; get_num
  01837	83 c4 04	 add	 esp, 4
  0183a	89 45 f4	 mov	 DWORD PTR _d0$[ebp], eax

; 1634 : 				if( d0 > 127 ){		//d??????

  0183d	83 7d f4 7f	 cmp	 DWORD PTR _d0$[ebp], 127 ; 0000007fH
  01841	7e 14		 jle	 SHORT $LN209@music_read

; 1635 : 					err_flg=M_P2COMMAND_ERR;

  01843	c7 85 2c fe ff
	ff 07 00 00 00	 mov	 DWORD PTR _err_flg$[ebp], 7

; 1636 : 					goto music_read_999;

  0184d	e9 ed 08 00 00	 jmp	 $LN210@music_read
  01852	e9 e8 08 00 00	 jmp	 $music_read_999$312
$LN209@music_read:

; 1637 : 				}
; 1638 : 				step[ch][ch_p[ch]++]=MUSIC_PAN;

  01857	8b 45 d0	 mov	 eax, DWORD PTR _ch$[ebp]
  0185a	c1 e0 10	 shl	 eax, 16			; 00000010H
  0185d	8b 4d d0	 mov	 ecx, DWORD PTR _ch$[ebp]
  01860	8b 94 8d 48 ff
	ff ff		 mov	 edx, DWORD PTR _ch_p$[ebp+ecx*4]
  01867	c7 84 90 00 00
	00 00 fa ff ff
	ff		 mov	 DWORD PTR ?step@@3PAY0EAAA@HA[eax+edx*4], -6 ; fffffffaH
  01872	8b 45 d0	 mov	 eax, DWORD PTR _ch$[ebp]
  01875	8b 8c 85 48 ff
	ff ff		 mov	 ecx, DWORD PTR _ch_p$[ebp+eax*4]
  0187c	83 c1 01	 add	 ecx, 1
  0187f	8b 55 d0	 mov	 edx, DWORD PTR _ch$[ebp]
  01882	89 8c 95 48 ff
	ff ff		 mov	 DWORD PTR _ch_p$[ebp+edx*4], ecx

; 1639 : 				step[ch][ch_p[ch]++] = d0;

  01889	8b 45 d0	 mov	 eax, DWORD PTR _ch$[ebp]
  0188c	c1 e0 10	 shl	 eax, 16			; 00000010H
  0188f	8b 4d d0	 mov	 ecx, DWORD PTR _ch$[ebp]
  01892	8b 94 8d 48 ff
	ff ff		 mov	 edx, DWORD PTR _ch_p$[ebp+ecx*4]
  01899	8b 4d f4	 mov	 ecx, DWORD PTR _d0$[ebp]
  0189c	89 8c 90 00 00
	00 00		 mov	 DWORD PTR ?step@@3PAY0EAAA@HA[eax+edx*4], ecx
  018a3	8b 55 d0	 mov	 edx, DWORD PTR _ch$[ebp]
  018a6	8b 84 95 48 ff
	ff ff		 mov	 eax, DWORD PTR _ch_p$[ebp+edx*4]
  018ad	83 c0 01	 add	 eax, 1
  018b0	8b 4d d0	 mov	 ecx, DWORD PTR _ch$[ebp]
  018b3	89 84 8d 48 ff
	ff ff		 mov	 DWORD PTR _ch_p$[ebp+ecx*4], eax

; 1640 : 				goto music_read_100;

  018ba	e9 d5 ed ff ff	 jmp	 $music_read_100$313
$LN211@music_read:

; 1641 : 			case 'f':		//?
; 1642 : 				if(!num_check2( fp )){		//???????

  018bf	8b 85 4c f3 ff
	ff		 mov	 eax, DWORD PTR _fp$[ebp]
  018c5	50		 push	 eax
  018c6	e8 00 00 00 00	 call	 ?num_check2@@YAHPAU_iobuf@@@Z ; num_check2
  018cb	83 c4 04	 add	 esp, 4
  018ce	85 c0		 test	 eax, eax
  018d0	75 14		 jne	 SHORT $LN212@music_read

; 1643 : 					err_flg=M_F2COMMAND_ERR;

  018d2	c7 85 2c fe ff
	ff 08 00 00 00	 mov	 DWORD PTR _err_flg$[ebp], 8

; 1644 : 					goto music_read_999;

  018dc	e9 5e 08 00 00	 jmp	 $LN213@music_read
  018e1	e9 59 08 00 00	 jmp	 $music_read_999$312
$LN212@music_read:

; 1645 : 				}
; 1646 : 				d0 = get_num2( fp );

  018e6	8b 85 4c f3 ff
	ff		 mov	 eax, DWORD PTR _fp$[ebp]
  018ec	50		 push	 eax
  018ed	e8 00 00 00 00	 call	 ?get_num2@@YAHPAU_iobuf@@@Z ; get_num2
  018f2	83 c4 04	 add	 esp, 4
  018f5	89 45 f4	 mov	 DWORD PTR _d0$[ebp], eax

; 1647 : 				step[ch][ch_p[ch]++] = MUSIC_FREQ;

  018f8	8b 45 d0	 mov	 eax, DWORD PTR _ch$[ebp]
  018fb	c1 e0 10	 shl	 eax, 16			; 00000010H
  018fe	8b 4d d0	 mov	 ecx, DWORD PTR _ch$[ebp]
  01901	8b 94 8d 48 ff
	ff ff		 mov	 edx, DWORD PTR _ch_p$[ebp+ecx*4]
  01908	c7 84 90 00 00
	00 00 fc ff ff
	ff		 mov	 DWORD PTR ?step@@3PAY0EAAA@HA[eax+edx*4], -4 ; fffffffcH
  01913	8b 45 d0	 mov	 eax, DWORD PTR _ch$[ebp]
  01916	8b 8c 85 48 ff
	ff ff		 mov	 ecx, DWORD PTR _ch_p$[ebp+eax*4]
  0191d	83 c1 01	 add	 ecx, 1
  01920	8b 55 d0	 mov	 edx, DWORD PTR _ch$[ebp]
  01923	89 8c 95 48 ff
	ff ff		 mov	 DWORD PTR _ch_p$[ebp+edx*4], ecx

; 1648 : 				step[ch][ch_p[ch]++] = d0;

  0192a	8b 45 d0	 mov	 eax, DWORD PTR _ch$[ebp]
  0192d	c1 e0 10	 shl	 eax, 16			; 00000010H
  01930	8b 4d d0	 mov	 ecx, DWORD PTR _ch$[ebp]
  01933	8b 94 8d 48 ff
	ff ff		 mov	 edx, DWORD PTR _ch_p$[ebp+ecx*4]
  0193a	8b 4d f4	 mov	 ecx, DWORD PTR _d0$[ebp]
  0193d	89 8c 90 00 00
	00 00		 mov	 DWORD PTR ?step@@3PAY0EAAA@HA[eax+edx*4], ecx
  01944	8b 55 d0	 mov	 edx, DWORD PTR _ch$[ebp]
  01947	8b 84 95 48 ff
	ff ff		 mov	 eax, DWORD PTR _ch_p$[ebp+edx*4]
  0194e	83 c0 01	 add	 eax, 1
  01951	8b 4d d0	 mov	 ecx, DWORD PTR _ch$[ebp]
  01954	89 84 8d 48 ff
	ff ff		 mov	 DWORD PTR _ch_p$[ebp+ecx*4], eax

; 1649 : 				goto music_read_100;

  0195b	e9 34 ed ff ff	 jmp	 $music_read_100$313
$LN214@music_read:

; 1650 : 			case 'k':		//????
; 1651 : 				if(!num_check2( fp )){		//???????

  01960	8b 85 4c f3 ff
	ff		 mov	 eax, DWORD PTR _fp$[ebp]
  01966	50		 push	 eax
  01967	e8 00 00 00 00	 call	 ?num_check2@@YAHPAU_iobuf@@@Z ; num_check2
  0196c	83 c4 04	 add	 esp, 4
  0196f	85 c0		 test	 eax, eax
  01971	75 14		 jne	 SHORT $LN215@music_read

; 1652 : 					err_flg=M_K2COMMAND_ERR;

  01973	c7 85 2c fe ff
	ff 15 00 00 00	 mov	 DWORD PTR _err_flg$[ebp], 21 ; 00000015H

; 1653 : 					goto music_read_999;

  0197d	e9 bd 07 00 00	 jmp	 $LN216@music_read
  01982	e9 b8 07 00 00	 jmp	 $music_read_999$312
$LN215@music_read:

; 1654 : 				}
; 1655 : 				d0 = get_num2( fp );

  01987	8b 85 4c f3 ff
	ff		 mov	 eax, DWORD PTR _fp$[ebp]
  0198d	50		 push	 eax
  0198e	e8 00 00 00 00	 call	 ?get_num2@@YAHPAU_iobuf@@@Z ; get_num2
  01993	83 c4 04	 add	 esp, 4
  01996	89 45 f4	 mov	 DWORD PTR _d0$[ebp], eax

; 1656 : 				if(d0 > 64 || d0 < -64){		//d????

  01999	83 7d f4 40	 cmp	 DWORD PTR _d0$[ebp], 64	; 00000040H
  0199d	7f 06		 jg	 SHORT $LN218@music_read
  0199f	83 7d f4 c0	 cmp	 DWORD PTR _d0$[ebp], -64 ; ffffffc0H
  019a3	7d 14		 jge	 SHORT $LN217@music_read
$LN218@music_read:

; 1657 : 					err_flg=M_K2COMMAND_ERR;

  019a5	c7 85 2c fe ff
	ff 15 00 00 00	 mov	 DWORD PTR _err_flg$[ebp], 21 ; 00000015H

; 1658 : 					goto music_read_999;

  019af	e9 8b 07 00 00	 jmp	 $LN219@music_read
  019b4	e9 86 07 00 00	 jmp	 $music_read_999$312
$LN217@music_read:

; 1659 : 				}
; 1660 : 				step[ch][ch_p[ch]++] = MUSIC_DETUNE;

  019b9	8b 45 d0	 mov	 eax, DWORD PTR _ch$[ebp]
  019bc	c1 e0 10	 shl	 eax, 16			; 00000010H
  019bf	8b 4d d0	 mov	 ecx, DWORD PTR _ch$[ebp]
  019c2	8b 94 8d 48 ff
	ff ff		 mov	 edx, DWORD PTR _ch_p$[ebp+ecx*4]
  019c9	c7 84 90 00 00
	00 00 f1 ff ff
	ff		 mov	 DWORD PTR ?step@@3PAY0EAAA@HA[eax+edx*4], -15 ; fffffff1H
  019d4	8b 45 d0	 mov	 eax, DWORD PTR _ch$[ebp]
  019d7	8b 8c 85 48 ff
	ff ff		 mov	 ecx, DWORD PTR _ch_p$[ebp+eax*4]
  019de	83 c1 01	 add	 ecx, 1
  019e1	8b 55 d0	 mov	 edx, DWORD PTR _ch$[ebp]
  019e4	89 8c 95 48 ff
	ff ff		 mov	 DWORD PTR _ch_p$[ebp+edx*4], ecx

; 1661 : 				step[ch][ch_p[ch]++] = d0;

  019eb	8b 45 d0	 mov	 eax, DWORD PTR _ch$[ebp]
  019ee	c1 e0 10	 shl	 eax, 16			; 00000010H
  019f1	8b 4d d0	 mov	 ecx, DWORD PTR _ch$[ebp]
  019f4	8b 94 8d 48 ff
	ff ff		 mov	 edx, DWORD PTR _ch_p$[ebp+ecx*4]
  019fb	8b 4d f4	 mov	 ecx, DWORD PTR _d0$[ebp]
  019fe	89 8c 90 00 00
	00 00		 mov	 DWORD PTR ?step@@3PAY0EAAA@HA[eax+edx*4], ecx
  01a05	8b 55 d0	 mov	 edx, DWORD PTR _ch$[ebp]
  01a08	8b 84 95 48 ff
	ff ff		 mov	 eax, DWORD PTR _ch_p$[ebp+edx*4]
  01a0f	83 c0 01	 add	 eax, 1
  01a12	8b 4d d0	 mov	 ecx, DWORD PTR _ch$[ebp]
  01a15	89 84 8d 48 ff
	ff ff		 mov	 DWORD PTR _ch_p$[ebp+ecx*4], eax

; 1662 : 				goto music_read_100;

  01a1c	e9 73 ec ff ff	 jmp	 $music_read_100$313
$LN220@music_read:

; 1663 : 			case 'd':		//???????
; 1664 : 				d0 = f_get( fp );		//???????

  01a21	8b 85 4c f3 ff
	ff		 mov	 eax, DWORD PTR _fp$[ebp]
  01a27	50		 push	 eax
  01a28	e8 00 00 00 00	 call	 ?f_get@@YAHPAU_iobuf@@@Z ; f_get
  01a2d	83 c4 04	 add	 esp, 4
  01a30	89 45 f4	 mov	 DWORD PTR _d0$[ebp], eax

; 1665 : 				if( d0 < '0' || d0> '9' ){		//???

  01a33	83 7d f4 30	 cmp	 DWORD PTR _d0$[ebp], 48	; 00000030H
  01a37	7c 06		 jl	 SHORT $LN222@music_read
  01a39	83 7d f4 39	 cmp	 DWORD PTR _d0$[ebp], 57	; 00000039H
  01a3d	7e 14		 jle	 SHORT $LN221@music_read
$LN222@music_read:

; 1666 : 					err_flg=M_D2COMMAND_ERR;

  01a3f	c7 85 2c fe ff
	ff 0c 00 00 00	 mov	 DWORD PTR _err_flg$[ebp], 12 ; 0000000cH

; 1667 : 					goto music_read_999;

  01a49	e9 f1 06 00 00	 jmp	 $LN223@music_read
  01a4e	e9 ec 06 00 00	 jmp	 $music_read_999$312
$LN221@music_read:

; 1668 : 				}
; 1669 : 				fseek(fp,-1,SEEK_CUR);		//??????

  01a53	8b f4		 mov	 esi, esp
  01a55	6a 01		 push	 1
  01a57	6a ff		 push	 -1
  01a59	8b 85 4c f3 ff
	ff		 mov	 eax, DWORD PTR _fp$[ebp]
  01a5f	50		 push	 eax
  01a60	ff 15 00 00 00
	00		 call	 DWORD PTR __imp__fseek
  01a66	83 c4 0c	 add	 esp, 12			; 0000000cH
  01a69	3b f4		 cmp	 esi, esp
  01a6b	e8 00 00 00 00	 call	 __RTC_CheckEsp

; 1670 : 				d0 = get_num( fp );

  01a70	8b 85 4c f3 ff
	ff		 mov	 eax, DWORD PTR _fp$[ebp]
  01a76	50		 push	 eax
  01a77	e8 00 00 00 00	 call	 ?get_num@@YAHPAU_iobuf@@@Z ; get_num
  01a7c	83 c4 04	 add	 esp, 4
  01a7f	89 45 f4	 mov	 DWORD PTR _d0$[ebp], eax

; 1671 : 				step[ch][ch_p[ch]++] = MUSIC_PEDAL;

  01a82	8b 45 d0	 mov	 eax, DWORD PTR _ch$[ebp]
  01a85	c1 e0 10	 shl	 eax, 16			; 00000010H
  01a88	8b 4d d0	 mov	 ecx, DWORD PTR _ch$[ebp]
  01a8b	8b 94 8d 48 ff
	ff ff		 mov	 edx, DWORD PTR _ch_p$[ebp+ecx*4]
  01a92	c7 84 90 00 00
	00 00 f8 ff ff
	ff		 mov	 DWORD PTR ?step@@3PAY0EAAA@HA[eax+edx*4], -8 ; fffffff8H
  01a9d	8b 45 d0	 mov	 eax, DWORD PTR _ch$[ebp]
  01aa0	8b 8c 85 48 ff
	ff ff		 mov	 ecx, DWORD PTR _ch_p$[ebp+eax*4]
  01aa7	83 c1 01	 add	 ecx, 1
  01aaa	8b 55 d0	 mov	 edx, DWORD PTR _ch$[ebp]
  01aad	89 8c 95 48 ff
	ff ff		 mov	 DWORD PTR _ch_p$[ebp+edx*4], ecx

; 1672 : 				step[ch][ch_p[ch]++] = d0;

  01ab4	8b 45 d0	 mov	 eax, DWORD PTR _ch$[ebp]
  01ab7	c1 e0 10	 shl	 eax, 16			; 00000010H
  01aba	8b 4d d0	 mov	 ecx, DWORD PTR _ch$[ebp]
  01abd	8b 94 8d 48 ff
	ff ff		 mov	 edx, DWORD PTR _ch_p$[ebp+ecx*4]
  01ac4	8b 4d f4	 mov	 ecx, DWORD PTR _d0$[ebp]
  01ac7	89 8c 90 00 00
	00 00		 mov	 DWORD PTR ?step@@3PAY0EAAA@HA[eax+edx*4], ecx
  01ace	8b 55 d0	 mov	 edx, DWORD PTR _ch$[ebp]
  01ad1	8b 84 95 48 ff
	ff ff		 mov	 eax, DWORD PTR _ch_p$[ebp+edx*4]
  01ad8	83 c0 01	 add	 eax, 1
  01adb	8b 4d d0	 mov	 ecx, DWORD PTR _ch$[ebp]
  01ade	89 84 8d 48 ff
	ff ff		 mov	 DWORD PTR _ch_p$[ebp+ecx*4], eax

; 1673 : 				goto music_read_100;

  01ae5	e9 aa eb ff ff	 jmp	 $music_read_100$313
$LN224@music_read:

; 1674 : 			case 'w':		//???????
; 1675 : 				d0 = f_get( fp );		//???????

  01aea	8b 85 4c f3 ff
	ff		 mov	 eax, DWORD PTR _fp$[ebp]
  01af0	50		 push	 eax
  01af1	e8 00 00 00 00	 call	 ?f_get@@YAHPAU_iobuf@@@Z ; f_get
  01af6	83 c4 04	 add	 esp, 4
  01af9	89 45 f4	 mov	 DWORD PTR _d0$[ebp], eax

; 1676 : 				if( d0 < '0' || d0> '9' ){		//???

  01afc	83 7d f4 30	 cmp	 DWORD PTR _d0$[ebp], 48	; 00000030H
  01b00	7c 06		 jl	 SHORT $LN226@music_read
  01b02	83 7d f4 39	 cmp	 DWORD PTR _d0$[ebp], 57	; 00000039H
  01b06	7e 14		 jle	 SHORT $LN225@music_read
$LN226@music_read:

; 1677 : 					err_flg=M_W2COMMAND_ERR;

  01b08	c7 85 2c fe ff
	ff 12 00 00 00	 mov	 DWORD PTR _err_flg$[ebp], 18 ; 00000012H

; 1678 : 					goto music_read_999;

  01b12	e9 28 06 00 00	 jmp	 $LN227@music_read
  01b17	e9 23 06 00 00	 jmp	 $music_read_999$312
$LN225@music_read:

; 1679 : 				}
; 1680 : 				fseek(fp,-1,SEEK_CUR);		//??????

  01b1c	8b f4		 mov	 esi, esp
  01b1e	6a 01		 push	 1
  01b20	6a ff		 push	 -1
  01b22	8b 85 4c f3 ff
	ff		 mov	 eax, DWORD PTR _fp$[ebp]
  01b28	50		 push	 eax
  01b29	ff 15 00 00 00
	00		 call	 DWORD PTR __imp__fseek
  01b2f	83 c4 0c	 add	 esp, 12			; 0000000cH
  01b32	3b f4		 cmp	 esi, esp
  01b34	e8 00 00 00 00	 call	 __RTC_CheckEsp

; 1681 : 				d0 = get_num( fp );

  01b39	8b 85 4c f3 ff
	ff		 mov	 eax, DWORD PTR _fp$[ebp]
  01b3f	50		 push	 eax
  01b40	e8 00 00 00 00	 call	 ?get_num@@YAHPAU_iobuf@@@Z ; get_num
  01b45	83 c4 04	 add	 esp, 4
  01b48	89 45 f4	 mov	 DWORD PTR _d0$[ebp], eax

; 1682 : 				step[ch][ch_p[ch]++] = MUSIC_WAVE;

  01b4b	8b 45 d0	 mov	 eax, DWORD PTR _ch$[ebp]
  01b4e	c1 e0 10	 shl	 eax, 16			; 00000010H
  01b51	8b 4d d0	 mov	 ecx, DWORD PTR _ch$[ebp]
  01b54	8b 94 8d 48 ff
	ff ff		 mov	 edx, DWORD PTR _ch_p$[ebp+ecx*4]
  01b5b	c7 84 90 00 00
	00 00 f3 ff ff
	ff		 mov	 DWORD PTR ?step@@3PAY0EAAA@HA[eax+edx*4], -13 ; fffffff3H
  01b66	8b 45 d0	 mov	 eax, DWORD PTR _ch$[ebp]
  01b69	8b 8c 85 48 ff
	ff ff		 mov	 ecx, DWORD PTR _ch_p$[ebp+eax*4]
  01b70	83 c1 01	 add	 ecx, 1
  01b73	8b 55 d0	 mov	 edx, DWORD PTR _ch$[ebp]
  01b76	89 8c 95 48 ff
	ff ff		 mov	 DWORD PTR _ch_p$[ebp+edx*4], ecx

; 1683 : 				step[ch][ch_p[ch]++] = d0;

  01b7d	8b 45 d0	 mov	 eax, DWORD PTR _ch$[ebp]
  01b80	c1 e0 10	 shl	 eax, 16			; 00000010H
  01b83	8b 4d d0	 mov	 ecx, DWORD PTR _ch$[ebp]
  01b86	8b 94 8d 48 ff
	ff ff		 mov	 edx, DWORD PTR _ch_p$[ebp+ecx*4]
  01b8d	8b 4d f4	 mov	 ecx, DWORD PTR _d0$[ebp]
  01b90	89 8c 90 00 00
	00 00		 mov	 DWORD PTR ?step@@3PAY0EAAA@HA[eax+edx*4], ecx
  01b97	8b 55 d0	 mov	 edx, DWORD PTR _ch$[ebp]
  01b9a	8b 84 95 48 ff
	ff ff		 mov	 eax, DWORD PTR _ch_p$[ebp+edx*4]
  01ba1	83 c0 01	 add	 eax, 1
  01ba4	8b 4d d0	 mov	 ecx, DWORD PTR _ch$[ebp]
  01ba7	89 84 8d 48 ff
	ff ff		 mov	 DWORD PTR _ch_p$[ebp+ecx*4], eax

; 1684 : 				goto music_read_100;

  01bae	e9 e1 ea ff ff	 jmp	 $music_read_100$313
$LN228@music_read:

; 1685 : 			default:
; 1686 : 				err_flg=M_2COMMAND_ERR;

  01bb3	c7 85 2c fe ff
	ff 09 00 00 00	 mov	 DWORD PTR _err_flg$[ebp], 9

; 1687 : 				goto music_read_999;

  01bbd	e9 7d 05 00 00	 jmp	 $LN229@music_read
  01bc2	e9 78 05 00 00	 jmp	 $music_read_999$312
$LN30@music_read:

; 1688 : 			}
; 1689 : 		case '[':		//???????
; 1690 : 			d0 = f_get( fp );		//??????

  01bc7	8b 85 4c f3 ff
	ff		 mov	 eax, DWORD PTR _fp$[ebp]
  01bcd	50		 push	 eax
  01bce	e8 00 00 00 00	 call	 ?f_get@@YAHPAU_iobuf@@@Z ; f_get
  01bd3	83 c4 04	 add	 esp, 4
  01bd6	89 45 f4	 mov	 DWORD PTR _d0$[ebp], eax

; 1691 : 			switch(d0){

  01bd9	8b 45 f4	 mov	 eax, DWORD PTR _d0$[ebp]
  01bdc	89 85 a8 ed ff
	ff		 mov	 DWORD PTR tv1029[ebp], eax
  01be2	83 bd a8 ed ff
	ff 64		 cmp	 DWORD PTR tv1029[ebp], 100 ; 00000064H
  01be9	0f 84 2d 01 00
	00		 je	 $LN240@music_read
  01bef	83 bd a8 ed ff
	ff 6c		 cmp	 DWORD PTR tv1029[ebp], 108 ; 0000006cH
  01bf6	74 05		 je	 SHORT $LN231@music_read
  01bf8	e9 90 01 00 00	 jmp	 $LN245@music_read
$LN231@music_read:

; 1692 : 			case 'l':
; 1693 : 				d0 = f_get( fp );		//??????

  01bfd	8b 85 4c f3 ff
	ff		 mov	 eax, DWORD PTR _fp$[ebp]
  01c03	50		 push	 eax
  01c04	e8 00 00 00 00	 call	 ?f_get@@YAHPAU_iobuf@@@Z ; f_get
  01c09	83 c4 04	 add	 esp, 4
  01c0c	89 45 f4	 mov	 DWORD PTR _d0$[ebp], eax

; 1694 : 				if(d0 != 'o'){

  01c0f	83 7d f4 6f	 cmp	 DWORD PTR _d0$[ebp], 111 ; 0000006fH
  01c13	74 14		 je	 SHORT $LN232@music_read

; 1695 : 					err_flg=M_KAKKO_ERR;

  01c15	c7 85 2c fe ff
	ff 0a 00 00 00	 mov	 DWORD PTR _err_flg$[ebp], 10 ; 0000000aH

; 1696 : 					goto music_read_999;

  01c1f	e9 1b 05 00 00	 jmp	 $LN233@music_read
  01c24	e9 16 05 00 00	 jmp	 $music_read_999$312
$LN232@music_read:

; 1697 : 				}
; 1698 : 				d0 = f_get( fp );		//??????

  01c29	8b 85 4c f3 ff
	ff		 mov	 eax, DWORD PTR _fp$[ebp]
  01c2f	50		 push	 eax
  01c30	e8 00 00 00 00	 call	 ?f_get@@YAHPAU_iobuf@@@Z ; f_get
  01c35	83 c4 04	 add	 esp, 4
  01c38	89 45 f4	 mov	 DWORD PTR _d0$[ebp], eax

; 1699 : 				if(d0 != 'o'){

  01c3b	83 7d f4 6f	 cmp	 DWORD PTR _d0$[ebp], 111 ; 0000006fH
  01c3f	74 14		 je	 SHORT $LN234@music_read

; 1700 : 					err_flg=M_KAKKO_ERR;

  01c41	c7 85 2c fe ff
	ff 0a 00 00 00	 mov	 DWORD PTR _err_flg$[ebp], 10 ; 0000000aH

; 1701 : 					goto music_read_999;

  01c4b	e9 ef 04 00 00	 jmp	 $LN235@music_read
  01c50	e9 ea 04 00 00	 jmp	 $music_read_999$312
$LN234@music_read:

; 1702 : 				}
; 1703 : 				d0 = f_get( fp );		//??????

  01c55	8b 85 4c f3 ff
	ff		 mov	 eax, DWORD PTR _fp$[ebp]
  01c5b	50		 push	 eax
  01c5c	e8 00 00 00 00	 call	 ?f_get@@YAHPAU_iobuf@@@Z ; f_get
  01c61	83 c4 04	 add	 esp, 4
  01c64	89 45 f4	 mov	 DWORD PTR _d0$[ebp], eax

; 1704 : 				if(d0 != 'p'){

  01c67	83 7d f4 70	 cmp	 DWORD PTR _d0$[ebp], 112 ; 00000070H
  01c6b	74 14		 je	 SHORT $LN236@music_read

; 1705 : 					err_flg=M_KAKKO_ERR;

  01c6d	c7 85 2c fe ff
	ff 0a 00 00 00	 mov	 DWORD PTR _err_flg$[ebp], 10 ; 0000000aH

; 1706 : 					goto music_read_999;

  01c77	e9 c3 04 00 00	 jmp	 $LN237@music_read
  01c7c	e9 be 04 00 00	 jmp	 $music_read_999$312
$LN236@music_read:

; 1707 : 				}
; 1708 : 				d0 = f_get( fp );		//??????

  01c81	8b 85 4c f3 ff
	ff		 mov	 eax, DWORD PTR _fp$[ebp]
  01c87	50		 push	 eax
  01c88	e8 00 00 00 00	 call	 ?f_get@@YAHPAU_iobuf@@@Z ; f_get
  01c8d	83 c4 04	 add	 esp, 4
  01c90	89 45 f4	 mov	 DWORD PTR _d0$[ebp], eax

; 1709 : 				if(d0 != ']'){

  01c93	83 7d f4 5d	 cmp	 DWORD PTR _d0$[ebp], 93	; 0000005dH
  01c97	74 14		 je	 SHORT $LN238@music_read

; 1710 : 					err_flg=M_KAKKO_ERR;

  01c99	c7 85 2c fe ff
	ff 0a 00 00 00	 mov	 DWORD PTR _err_flg$[ebp], 10 ; 0000000aH

; 1711 : 					goto music_read_999;

  01ca3	e9 97 04 00 00	 jmp	 $LN239@music_read
  01ca8	e9 92 04 00 00	 jmp	 $music_read_999$312
$LN238@music_read:

; 1712 : 				}
; 1713 : 				step[ch][ch_p[ch]++]=MUSIC_LOOP;

  01cad	8b 45 d0	 mov	 eax, DWORD PTR _ch$[ebp]
  01cb0	c1 e0 10	 shl	 eax, 16			; 00000010H
  01cb3	8b 4d d0	 mov	 ecx, DWORD PTR _ch$[ebp]
  01cb6	8b 94 8d 48 ff
	ff ff		 mov	 edx, DWORD PTR _ch_p$[ebp+ecx*4]
  01cbd	c7 84 90 00 00
	00 00 fd ff ff
	ff		 mov	 DWORD PTR ?step@@3PAY0EAAA@HA[eax+edx*4], -3 ; fffffffdH
  01cc8	8b 45 d0	 mov	 eax, DWORD PTR _ch$[ebp]
  01ccb	8b 8c 85 48 ff
	ff ff		 mov	 ecx, DWORD PTR _ch_p$[ebp+eax*4]
  01cd2	83 c1 01	 add	 ecx, 1
  01cd5	8b 55 d0	 mov	 edx, DWORD PTR _ch$[ebp]
  01cd8	89 8c 95 48 ff
	ff ff		 mov	 DWORD PTR _ch_p$[ebp+edx*4], ecx

; 1714 : 				step[ch][ch_p[ch]++]=do_p[ch];

  01cdf	8b 45 d0	 mov	 eax, DWORD PTR _ch$[ebp]
  01ce2	c1 e0 10	 shl	 eax, 16			; 00000010H
  01ce5	8b 4d d0	 mov	 ecx, DWORD PTR _ch$[ebp]
  01ce8	8b 94 8d 48 ff
	ff ff		 mov	 edx, DWORD PTR _ch_p$[ebp+ecx*4]
  01cef	8b 4d d0	 mov	 ecx, DWORD PTR _ch$[ebp]
  01cf2	8b 8c 8d c0 fe
	ff ff		 mov	 ecx, DWORD PTR _do_p$[ebp+ecx*4]
  01cf9	89 8c 90 00 00
	00 00		 mov	 DWORD PTR ?step@@3PAY0EAAA@HA[eax+edx*4], ecx
  01d00	8b 55 d0	 mov	 edx, DWORD PTR _ch$[ebp]
  01d03	8b 84 95 48 ff
	ff ff		 mov	 eax, DWORD PTR _ch_p$[ebp+edx*4]
  01d0a	83 c0 01	 add	 eax, 1
  01d0d	8b 4d d0	 mov	 ecx, DWORD PTR _ch$[ebp]
  01d10	89 84 8d 48 ff
	ff ff		 mov	 DWORD PTR _ch_p$[ebp+ecx*4], eax

; 1715 : 				goto music_read_100;

  01d17	e9 78 e9 ff ff	 jmp	 $music_read_100$313
$LN240@music_read:

; 1716 : 			case 'd':		//????t
; 1717 : 				d0 = f_get( fp );		//??????

  01d1c	8b 85 4c f3 ff
	ff		 mov	 eax, DWORD PTR _fp$[ebp]
  01d22	50		 push	 eax
  01d23	e8 00 00 00 00	 call	 ?f_get@@YAHPAU_iobuf@@@Z ; f_get
  01d28	83 c4 04	 add	 esp, 4
  01d2b	89 45 f4	 mov	 DWORD PTR _d0$[ebp], eax

; 1718 : 				if(d0 != 'o'){

  01d2e	83 7d f4 6f	 cmp	 DWORD PTR _d0$[ebp], 111 ; 0000006fH
  01d32	74 14		 je	 SHORT $LN241@music_read

; 1719 : 					err_flg=M_KAKKO_ERR;

  01d34	c7 85 2c fe ff
	ff 0a 00 00 00	 mov	 DWORD PTR _err_flg$[ebp], 10 ; 0000000aH

; 1720 : 					goto music_read_999;

  01d3e	e9 fc 03 00 00	 jmp	 $LN242@music_read
  01d43	e9 f7 03 00 00	 jmp	 $music_read_999$312
$LN241@music_read:

; 1721 : 				}
; 1722 : 				d0 = f_get( fp );		//??????

  01d48	8b 85 4c f3 ff
	ff		 mov	 eax, DWORD PTR _fp$[ebp]
  01d4e	50		 push	 eax
  01d4f	e8 00 00 00 00	 call	 ?f_get@@YAHPAU_iobuf@@@Z ; f_get
  01d54	83 c4 04	 add	 esp, 4
  01d57	89 45 f4	 mov	 DWORD PTR _d0$[ebp], eax

; 1723 : 				if(d0 != ']'){

  01d5a	83 7d f4 5d	 cmp	 DWORD PTR _d0$[ebp], 93	; 0000005dH
  01d5e	74 14		 je	 SHORT $LN243@music_read

; 1724 : 					err_flg=M_KAKKO_ERR;

  01d60	c7 85 2c fe ff
	ff 0a 00 00 00	 mov	 DWORD PTR _err_flg$[ebp], 10 ; 0000000aH

; 1725 : 					goto music_read_999;

  01d6a	e9 d0 03 00 00	 jmp	 $LN244@music_read
  01d6f	e9 cb 03 00 00	 jmp	 $music_read_999$312
$LN243@music_read:

; 1726 : 				}
; 1727 : 				do_p[ch]=ch_p[ch];		//??I???

  01d74	8b 45 d0	 mov	 eax, DWORD PTR _ch$[ebp]
  01d77	8b 4d d0	 mov	 ecx, DWORD PTR _ch$[ebp]
  01d7a	8b 94 8d 48 ff
	ff ff		 mov	 edx, DWORD PTR _ch_p$[ebp+ecx*4]
  01d81	89 94 85 c0 fe
	ff ff		 mov	 DWORD PTR _do_p$[ebp+eax*4], edx

; 1728 : 				goto music_read_100;

  01d88	e9 07 e9 ff ff	 jmp	 $music_read_100$313
$LN245@music_read:

; 1729 : 			default:
; 1730 : 					err_flg=M_KAKKO_ERR;

  01d8d	c7 85 2c fe ff
	ff 0a 00 00 00	 mov	 DWORD PTR _err_flg$[ebp], 10 ; 0000000aH

; 1731 : 				goto music_read_999;

  01d97	e9 a3 03 00 00	 jmp	 $LN246@music_read
  01d9c	e9 9e 03 00 00	 jmp	 $music_read_999$312
$LN32@music_read:

; 1732 : 			}
; 1733 : 		case '|':		//???????
; 1734 : 			d0 = f_get( fp );		//??????

  01da1	8b 85 4c f3 ff
	ff		 mov	 eax, DWORD PTR _fp$[ebp]
  01da7	50		 push	 eax
  01da8	e8 00 00 00 00	 call	 ?f_get@@YAHPAU_iobuf@@@Z ; f_get
  01dad	83 c4 04	 add	 esp, 4
  01db0	89 45 f4	 mov	 DWORD PTR _d0$[ebp], eax

; 1735 : 			if(d0 == ':'){		//?????

  01db3	83 7d f4 3a	 cmp	 DWORD PTR _d0$[ebp], 58	; 0000003aH
  01db7	0f 85 17 01 00
	00		 jne	 $LN248@music_read

; 1736 : 				ch_kuri_lv[ch]++;		//???????

  01dbd	8b 45 d0	 mov	 eax, DWORD PTR _ch$[ebp]
  01dc0	8b 8c 85 88 f5
	ff ff		 mov	 ecx, DWORD PTR _ch_kuri_lv$[ebp+eax*4]
  01dc7	83 c1 01	 add	 ecx, 1
  01dca	8b 55 d0	 mov	 edx, DWORD PTR _ch$[ebp]
  01dcd	89 8c 95 88 f5
	ff ff		 mov	 DWORD PTR _ch_kuri_lv$[ebp+edx*4], ecx

; 1737 : 				if(ch_kuri_lv[ch] == 8){		//???????

  01dd4	8b 45 d0	 mov	 eax, DWORD PTR _ch$[ebp]
  01dd7	83 bc 85 88 f5
	ff ff 08	 cmp	 DWORD PTR _ch_kuri_lv$[ebp+eax*4], 8
  01ddf	75 14		 jne	 SHORT $LN250@music_read

; 1738 : 					err_flg=M_KURI_ERR;

  01de1	c7 85 2c fe ff
	ff 0f 00 00 00	 mov	 DWORD PTR _err_flg$[ebp], 15 ; 0000000fH

; 1739 : 					goto music_read_999;

  01deb	e9 4f 03 00 00	 jmp	 $LN251@music_read
  01df0	e9 4a 03 00 00	 jmp	 $music_read_999$312
$LN250@music_read:

; 1740 : 				}
; 1741 : 				step[ch][ch_p[ch]++] = MUSIC_KURI_START;

  01df5	8b 45 d0	 mov	 eax, DWORD PTR _ch$[ebp]
  01df8	c1 e0 10	 shl	 eax, 16			; 00000010H
  01dfb	8b 4d d0	 mov	 ecx, DWORD PTR _ch$[ebp]
  01dfe	8b 94 8d 48 ff
	ff ff		 mov	 edx, DWORD PTR _ch_p$[ebp+ecx*4]
  01e05	c7 84 90 00 00
	00 00 f4 ff ff
	ff		 mov	 DWORD PTR ?step@@3PAY0EAAA@HA[eax+edx*4], -12 ; fffffff4H
  01e10	8b 45 d0	 mov	 eax, DWORD PTR _ch$[ebp]
  01e13	8b 8c 85 48 ff
	ff ff		 mov	 ecx, DWORD PTR _ch_p$[ebp+eax*4]
  01e1a	83 c1 01	 add	 ecx, 1
  01e1d	8b 55 d0	 mov	 edx, DWORD PTR _ch$[ebp]
  01e20	89 8c 95 48 ff
	ff ff		 mov	 DWORD PTR _ch_p$[ebp+edx*4], ecx

; 1742 : 				if(num_check( fp )){		//???

  01e27	8b 85 4c f3 ff
	ff		 mov	 eax, DWORD PTR _fp$[ebp]
  01e2d	50		 push	 eax
  01e2e	e8 00 00 00 00	 call	 ?num_check@@YAHPAU_iobuf@@@Z ; num_check
  01e33	83 c4 04	 add	 esp, 4
  01e36	85 c0		 test	 eax, eax
  01e38	74 3f		 je	 SHORT $LN252@music_read

; 1743 : 					step[ch][ch_p[ch]++] = get_num( fp );

  01e3a	8b 85 4c f3 ff
	ff		 mov	 eax, DWORD PTR _fp$[ebp]
  01e40	50		 push	 eax
  01e41	e8 00 00 00 00	 call	 ?get_num@@YAHPAU_iobuf@@@Z ; get_num
  01e46	83 c4 04	 add	 esp, 4
  01e49	8b 4d d0	 mov	 ecx, DWORD PTR _ch$[ebp]
  01e4c	c1 e1 10	 shl	 ecx, 16			; 00000010H
  01e4f	8b 55 d0	 mov	 edx, DWORD PTR _ch$[ebp]
  01e52	8b 94 95 48 ff
	ff ff		 mov	 edx, DWORD PTR _ch_p$[ebp+edx*4]
  01e59	89 84 91 00 00
	00 00		 mov	 DWORD PTR ?step@@3PAY0EAAA@HA[ecx+edx*4], eax
  01e60	8b 45 d0	 mov	 eax, DWORD PTR _ch$[ebp]
  01e63	8b 8c 85 48 ff
	ff ff		 mov	 ecx, DWORD PTR _ch_p$[ebp+eax*4]
  01e6a	83 c1 01	 add	 ecx, 1
  01e6d	8b 55 d0	 mov	 edx, DWORD PTR _ch$[ebp]
  01e70	89 8c 95 48 ff
	ff ff		 mov	 DWORD PTR _ch_p$[ebp+edx*4], ecx

; 1744 : 				} else {

  01e77	eb 32		 jmp	 SHORT $LN253@music_read
$LN252@music_read:

; 1745 : 					step[ch][ch_p[ch]++] = 2;

  01e79	8b 45 d0	 mov	 eax, DWORD PTR _ch$[ebp]
  01e7c	c1 e0 10	 shl	 eax, 16			; 00000010H
  01e7f	8b 4d d0	 mov	 ecx, DWORD PTR _ch$[ebp]
  01e82	8b 94 8d 48 ff
	ff ff		 mov	 edx, DWORD PTR _ch_p$[ebp+ecx*4]
  01e89	c7 84 90 00 00
	00 00 02 00 00
	00		 mov	 DWORD PTR ?step@@3PAY0EAAA@HA[eax+edx*4], 2
  01e94	8b 45 d0	 mov	 eax, DWORD PTR _ch$[ebp]
  01e97	8b 8c 85 48 ff
	ff ff		 mov	 ecx, DWORD PTR _ch_p$[ebp+eax*4]
  01e9e	83 c1 01	 add	 ecx, 1
  01ea1	8b 55 d0	 mov	 edx, DWORD PTR _ch$[ebp]
  01ea4	89 8c 95 48 ff
	ff ff		 mov	 DWORD PTR _ch_p$[ebp+edx*4], ecx
$LN253@music_read:

; 1746 : 				}
; 1747 : 				ch_ret[ch_kuri_lv[ch]][ ch ] = ch_p[ch];

  01eab	8b 45 d0	 mov	 eax, DWORD PTR _ch$[ebp]
  01eae	8b 8c 85 88 f5
	ff ff		 mov	 ecx, DWORD PTR _ch_kuri_lv$[ebp+eax*4]
  01eb5	c1 e1 07	 shl	 ecx, 7
  01eb8	8d 94 0d 18 fa
	ff ff		 lea	 edx, DWORD PTR _ch_ret$[ebp+ecx]
  01ebf	8b 45 d0	 mov	 eax, DWORD PTR _ch$[ebp]
  01ec2	8b 4d d0	 mov	 ecx, DWORD PTR _ch$[ebp]
  01ec5	8b 8c 8d 48 ff
	ff ff		 mov	 ecx, DWORD PTR _ch_p$[ebp+ecx*4]
  01ecc	89 0c 82	 mov	 DWORD PTR [edx+eax*4], ecx

; 1748 : 			} else {

  01ecf	e9 8a 00 00 00	 jmp	 $LN249@music_read
$LN248@music_read:

; 1749 : 				fseek(fp,-1,SEEK_CUR);		//??????

  01ed4	8b f4		 mov	 esi, esp
  01ed6	6a 01		 push	 1
  01ed8	6a ff		 push	 -1
  01eda	8b 85 4c f3 ff
	ff		 mov	 eax, DWORD PTR _fp$[ebp]
  01ee0	50		 push	 eax
  01ee1	ff 15 00 00 00
	00		 call	 DWORD PTR __imp__fseek
  01ee7	83 c4 0c	 add	 esp, 12			; 0000000cH
  01eea	3b f4		 cmp	 esi, esp
  01eec	e8 00 00 00 00	 call	 __RTC_CheckEsp

; 1750 : 				step[ch][ch_p[ch]++]=MUSIC_KURI_SKIP;

  01ef1	8b 45 d0	 mov	 eax, DWORD PTR _ch$[ebp]
  01ef4	c1 e0 10	 shl	 eax, 16			; 00000010H
  01ef7	8b 4d d0	 mov	 ecx, DWORD PTR _ch$[ebp]
  01efa	8b 94 8d 48 ff
	ff ff		 mov	 edx, DWORD PTR _ch_p$[ebp+ecx*4]
  01f01	c7 84 90 00 00
	00 00 f5 ff ff
	ff		 mov	 DWORD PTR ?step@@3PAY0EAAA@HA[eax+edx*4], -11 ; fffffff5H
  01f0c	8b 45 d0	 mov	 eax, DWORD PTR _ch$[ebp]
  01f0f	8b 8c 85 48 ff
	ff ff		 mov	 ecx, DWORD PTR _ch_p$[ebp+eax*4]
  01f16	83 c1 01	 add	 ecx, 1
  01f19	8b 55 d0	 mov	 edx, DWORD PTR _ch$[ebp]
  01f1c	89 8c 95 48 ff
	ff ff		 mov	 DWORD PTR _ch_p$[ebp+edx*4], ecx

; 1751 : 				ch_skip[ch_kuri_lv[ch]][ ch ] = ch_p[ch];

  01f23	8b 45 d0	 mov	 eax, DWORD PTR _ch$[ebp]
  01f26	8b 8c 85 88 f5
	ff ff		 mov	 ecx, DWORD PTR _ch_kuri_lv$[ebp+eax*4]
  01f2d	c1 e1 07	 shl	 ecx, 7
  01f30	8d 94 0d 10 f6
	ff ff		 lea	 edx, DWORD PTR _ch_skip$[ebp+ecx]
  01f37	8b 45 d0	 mov	 eax, DWORD PTR _ch$[ebp]
  01f3a	8b 4d d0	 mov	 ecx, DWORD PTR _ch$[ebp]
  01f3d	8b 8c 8d 48 ff
	ff ff		 mov	 ecx, DWORD PTR _ch_p$[ebp+ecx*4]
  01f44	89 0c 82	 mov	 DWORD PTR [edx+eax*4], ecx

; 1752 : 				ch_p[ch]++;

  01f47	8b 45 d0	 mov	 eax, DWORD PTR _ch$[ebp]
  01f4a	8b 8c 85 48 ff
	ff ff		 mov	 ecx, DWORD PTR _ch_p$[ebp+eax*4]
  01f51	83 c1 01	 add	 ecx, 1
  01f54	8b 55 d0	 mov	 edx, DWORD PTR _ch$[ebp]
  01f57	89 8c 95 48 ff
	ff ff		 mov	 DWORD PTR _ch_p$[ebp+edx*4], ecx
$LN249@music_read:

; 1753 : 			}
; 1754 : 			goto music_read_100;

  01f5e	e9 31 e7 ff ff	 jmp	 $music_read_100$313
$LN254@music_read:

; 1755 : 
; 1756 : 		case ':':		//????????
; 1757 : 			d0 = f_get( fp );		//??????

  01f63	8b 85 4c f3 ff
	ff		 mov	 eax, DWORD PTR _fp$[ebp]
  01f69	50		 push	 eax
  01f6a	e8 00 00 00 00	 call	 ?f_get@@YAHPAU_iobuf@@@Z ; f_get
  01f6f	83 c4 04	 add	 esp, 4
  01f72	89 45 f4	 mov	 DWORD PTR _d0$[ebp], eax

; 1758 : 			if(d0 != '|'){		//?????

  01f75	83 7d f4 7c	 cmp	 DWORD PTR _d0$[ebp], 124 ; 0000007cH
  01f79	74 14		 je	 SHORT $LN255@music_read

; 1759 : 				err_flg=M_KURI_ERR;

  01f7b	c7 85 2c fe ff
	ff 0f 00 00 00	 mov	 DWORD PTR _err_flg$[ebp], 15 ; 0000000fH

; 1760 : 				goto music_read_999;

  01f85	e9 b5 01 00 00	 jmp	 $LN256@music_read
  01f8a	e9 b0 01 00 00	 jmp	 $music_read_999$312
$LN255@music_read:

; 1761 : 			}
; 1762 : 			step[ch][ch_p[ch]++] = MUSIC_KURI_RET;

  01f8f	8b 45 d0	 mov	 eax, DWORD PTR _ch$[ebp]
  01f92	c1 e0 10	 shl	 eax, 16			; 00000010H
  01f95	8b 4d d0	 mov	 ecx, DWORD PTR _ch$[ebp]
  01f98	8b 94 8d 48 ff
	ff ff		 mov	 edx, DWORD PTR _ch_p$[ebp+ecx*4]
  01f9f	c7 84 90 00 00
	00 00 f6 ff ff
	ff		 mov	 DWORD PTR ?step@@3PAY0EAAA@HA[eax+edx*4], -10 ; fffffff6H
  01faa	8b 45 d0	 mov	 eax, DWORD PTR _ch$[ebp]
  01fad	8b 8c 85 48 ff
	ff ff		 mov	 ecx, DWORD PTR _ch_p$[ebp+eax*4]
  01fb4	83 c1 01	 add	 ecx, 1
  01fb7	8b 55 d0	 mov	 edx, DWORD PTR _ch$[ebp]
  01fba	89 8c 95 48 ff
	ff ff		 mov	 DWORD PTR _ch_p$[ebp+edx*4], ecx

; 1763 : 			step[ch][ch_p[ch]++] = ch_ret[ch_kuri_lv[ch]][ ch ];		//?瘕?

  01fc1	8b 45 d0	 mov	 eax, DWORD PTR _ch$[ebp]
  01fc4	8b 8c 85 88 f5
	ff ff		 mov	 ecx, DWORD PTR _ch_kuri_lv$[ebp+eax*4]
  01fcb	c1 e1 07	 shl	 ecx, 7
  01fce	8d 94 0d 18 fa
	ff ff		 lea	 edx, DWORD PTR _ch_ret$[ebp+ecx]
  01fd5	8b 45 d0	 mov	 eax, DWORD PTR _ch$[ebp]
  01fd8	c1 e0 10	 shl	 eax, 16			; 00000010H
  01fdb	8b 4d d0	 mov	 ecx, DWORD PTR _ch$[ebp]
  01fde	8b 8c 8d 48 ff
	ff ff		 mov	 ecx, DWORD PTR _ch_p$[ebp+ecx*4]
  01fe5	8b 75 d0	 mov	 esi, DWORD PTR _ch$[ebp]
  01fe8	8b 14 b2	 mov	 edx, DWORD PTR [edx+esi*4]
  01feb	89 94 88 00 00
	00 00		 mov	 DWORD PTR ?step@@3PAY0EAAA@HA[eax+ecx*4], edx
  01ff2	8b 45 d0	 mov	 eax, DWORD PTR _ch$[ebp]
  01ff5	8b 8c 85 48 ff
	ff ff		 mov	 ecx, DWORD PTR _ch_p$[ebp+eax*4]
  01ffc	83 c1 01	 add	 ecx, 1
  01fff	8b 55 d0	 mov	 edx, DWORD PTR _ch$[ebp]
  02002	89 8c 95 48 ff
	ff ff		 mov	 DWORD PTR _ch_p$[ebp+edx*4], ecx

; 1764 : 			if(ch_skip[ch_kuri_lv[ch]][ ch ] >= 0){

  02009	8b 45 d0	 mov	 eax, DWORD PTR _ch$[ebp]
  0200c	8b 8c 85 88 f5
	ff ff		 mov	 ecx, DWORD PTR _ch_kuri_lv$[ebp+eax*4]
  02013	c1 e1 07	 shl	 ecx, 7
  02016	8d 94 0d 10 f6
	ff ff		 lea	 edx, DWORD PTR _ch_skip$[ebp+ecx]
  0201d	8b 45 d0	 mov	 eax, DWORD PTR _ch$[ebp]
  02020	83 3c 82 00	 cmp	 DWORD PTR [edx+eax*4], 0
  02024	7c 4f		 jl	 SHORT $LN257@music_read

; 1765 : 				step[ch][ch_skip[ch_kuri_lv[ch]][ ch ]] = ch_p[ch];	//D引?

  02026	8b 45 d0	 mov	 eax, DWORD PTR _ch$[ebp]
  02029	c1 e0 10	 shl	 eax, 16			; 00000010H
  0202c	8b 4d d0	 mov	 ecx, DWORD PTR _ch$[ebp]
  0202f	8b 94 8d 88 f5
	ff ff		 mov	 edx, DWORD PTR _ch_kuri_lv$[ebp+ecx*4]
  02036	c1 e2 07	 shl	 edx, 7
  02039	8d 8c 15 10 f6
	ff ff		 lea	 ecx, DWORD PTR _ch_skip$[ebp+edx]
  02040	8b 55 d0	 mov	 edx, DWORD PTR _ch$[ebp]
  02043	8b 0c 91	 mov	 ecx, DWORD PTR [ecx+edx*4]
  02046	8b 55 d0	 mov	 edx, DWORD PTR _ch$[ebp]
  02049	8b 94 95 48 ff
	ff ff		 mov	 edx, DWORD PTR _ch_p$[ebp+edx*4]
  02050	89 94 88 00 00
	00 00		 mov	 DWORD PTR ?step@@3PAY0EAAA@HA[eax+ecx*4], edx

; 1766 : 				ch_skip[ch_kuri_lv[ch]][ ch ] = -1;

  02057	8b 45 d0	 mov	 eax, DWORD PTR _ch$[ebp]
  0205a	8b 8c 85 88 f5
	ff ff		 mov	 ecx, DWORD PTR _ch_kuri_lv$[ebp+eax*4]
  02061	c1 e1 07	 shl	 ecx, 7
  02064	8d 94 0d 10 f6
	ff ff		 lea	 edx, DWORD PTR _ch_skip$[ebp+ecx]
  0206b	8b 45 d0	 mov	 eax, DWORD PTR _ch$[ebp]
  0206e	c7 04 82 ff ff
	ff ff		 mov	 DWORD PTR [edx+eax*4], -1
$LN257@music_read:

; 1767 : 			}
; 1768 : 			ch_kuri_lv[ch]--;		//???????

  02075	8b 45 d0	 mov	 eax, DWORD PTR _ch$[ebp]
  02078	8b 8c 85 88 f5
	ff ff		 mov	 ecx, DWORD PTR _ch_kuri_lv$[ebp+eax*4]
  0207f	83 e9 01	 sub	 ecx, 1
  02082	8b 55 d0	 mov	 edx, DWORD PTR _ch$[ebp]
  02085	89 8c 95 88 f5
	ff ff		 mov	 DWORD PTR _ch_kuri_lv$[ebp+edx*4], ecx

; 1769 : 			goto music_read_100;

  0208c	e9 03 e6 ff ff	 jmp	 $music_read_100$313
$LN258@music_read:

; 1770 : 
; 1771 : 		default:		//??????
; 1772 : 			err_flg=M_MML_ERR;

  02091	c7 85 2c fe ff
	ff 0b 00 00 00	 mov	 DWORD PTR _err_flg$[ebp], 11 ; 0000000bH

; 1773 : 			goto music_read_999;

  0209b	e9 9f 00 00 00	 jmp	 $LN259@music_read
  020a0	e9 9a 00 00 00	 jmp	 $music_read_999$312
$LN19@music_read:

; 1774 : 		}
; 1775 : 	}

  020a5	e9 ca e0 ff ff	 jmp	 $LN269@music_read
$LN9@music_read:

; 1776 : 	for(d7=0;d7<TRACK_MAX;d7++){

  020aa	c7 45 dc 00 00
	00 00		 mov	 DWORD PTR _d7$[ebp], 0
  020b1	eb 09		 jmp	 SHORT $LN36@music_read
$LN34@music_read:
  020b3	8b 45 dc	 mov	 eax, DWORD PTR _d7$[ebp]
  020b6	83 c0 01	 add	 eax, 1
  020b9	89 45 dc	 mov	 DWORD PTR _d7$[ebp], eax
$LN36@music_read:
  020bc	83 7d dc 20	 cmp	 DWORD PTR _d7$[ebp], 32	; 00000020H
  020c0	7d 1d		 jge	 SHORT $LN35@music_read

; 1777 : 		step[d7][ch_p[d7]]=MUSIC_END;

  020c2	8b 45 dc	 mov	 eax, DWORD PTR _d7$[ebp]
  020c5	c1 e0 10	 shl	 eax, 16			; 00000010H
  020c8	8b 4d dc	 mov	 ecx, DWORD PTR _d7$[ebp]
  020cb	8b 94 8d 48 ff
	ff ff		 mov	 edx, DWORD PTR _ch_p$[ebp+ecx*4]
  020d2	c7 84 90 00 00
	00 00 ff ff ff
	ff		 mov	 DWORD PTR ?step@@3PAY0EAAA@HA[eax+edx*4], -1

; 1778 : 	}

  020dd	eb d4		 jmp	 SHORT $LN34@music_read
$LN35@music_read:

; 1779 : 	err_flg=0;

  020df	c7 85 2c fe ff
	ff 00 00 00 00	 mov	 DWORD PTR _err_flg$[ebp], 0

; 1780 : 
; 1781 : music_read_999:

  020e9	eb 54		 jmp	 SHORT $music_read_999$312
$LN47@music_read:
  020eb	eb 52		 jmp	 SHORT $music_read_999$312
$LN51@music_read:
  020ed	eb 50		 jmp	 SHORT $music_read_999$312
$LN54@music_read:
  020ef	eb 4e		 jmp	 SHORT $music_read_999$312
$LN59@music_read:
  020f1	eb 4c		 jmp	 SHORT $music_read_999$312
$LN62@music_read:
  020f3	eb 4a		 jmp	 SHORT $music_read_999$312
$LN67@music_read:
  020f5	eb 48		 jmp	 SHORT $music_read_999$312
$LN70@music_read:
  020f7	eb 46		 jmp	 SHORT $music_read_999$312
$LN72@music_read:
  020f9	eb 44		 jmp	 SHORT $music_read_999$312
$LN74@music_read:
  020fb	eb 42		 jmp	 SHORT $music_read_999$312
$LN76@music_read:
  020fd	eb 40		 jmp	 SHORT $music_read_999$312
$LN80@music_read:
  020ff	eb 3e		 jmp	 SHORT $music_read_999$312
$LN83@music_read:
  02101	eb 3c		 jmp	 SHORT $music_read_999$312
$LN86@music_read:
  02103	eb 3a		 jmp	 SHORT $music_read_999$312
$LN95@music_read:
  02105	eb 38		 jmp	 SHORT $music_read_999$312
$LN99@music_read:
  02107	eb 36		 jmp	 SHORT $music_read_999$312
$LN108@music_read:
  02109	eb 34		 jmp	 SHORT $music_read_999$312
$LN113@music_read:
  0210b	eb 32		 jmp	 SHORT $music_read_999$312
$LN115@music_read:
  0210d	eb 30		 jmp	 SHORT $music_read_999$312
$LN118@music_read:
  0210f	eb 2e		 jmp	 SHORT $music_read_999$312
$LN128@music_read:
  02111	eb 2c		 jmp	 SHORT $music_read_999$312
$LN133@music_read:
  02113	eb 2a		 jmp	 SHORT $music_read_999$312
$LN135@music_read:
  02115	eb 28		 jmp	 SHORT $music_read_999$312
$LN137@music_read:
  02117	eb 26		 jmp	 SHORT $music_read_999$312
$LN140@music_read:
  02119	eb 24		 jmp	 SHORT $music_read_999$312
$LN145@music_read:
  0211b	eb 22		 jmp	 SHORT $music_read_999$312
$LN148@music_read:
  0211d	eb 20		 jmp	 SHORT $music_read_999$312
$LN152@music_read:
  0211f	eb 1e		 jmp	 SHORT $music_read_999$312
$LN155@music_read:
  02121	eb 1c		 jmp	 SHORT $music_read_999$312
$LN158@music_read:
  02123	eb 1a		 jmp	 SHORT $music_read_999$312
$LN166@music_read:
  02125	eb 18		 jmp	 SHORT $music_read_999$312
$LN169@music_read:
  02127	eb 16		 jmp	 SHORT $music_read_999$312
$LN171@music_read:
  02129	eb 14		 jmp	 SHORT $music_read_999$312
$LN177@music_read:
  0212b	eb 12		 jmp	 SHORT $music_read_999$312
$LN181@music_read:
  0212d	eb 10		 jmp	 SHORT $music_read_999$312
$LN183@music_read:
  0212f	eb 0e		 jmp	 SHORT $music_read_999$312
$LN191@music_read:
  02131	eb 0c		 jmp	 SHORT $music_read_999$312
$LN193@music_read:
  02133	eb 0a		 jmp	 SHORT $music_read_999$312
$LN196@music_read:
  02135	eb 08		 jmp	 SHORT $music_read_999$312
$LN199@music_read:
  02137	eb 06		 jmp	 SHORT $music_read_999$312
$LN201@music_read:
  02139	eb 04		 jmp	 SHORT $music_read_999$312
$LN204@music_read:
  0213b	eb 02		 jmp	 SHORT $music_read_999$312
$LN208@music_read:
  0213d	eb 00		 jmp	 SHORT $music_read_999$312
$LN210@music_read:
$LN213@music_read:
$LN216@music_read:
$LN219@music_read:
$LN223@music_read:
$LN227@music_read:
$LN229@music_read:
$LN233@music_read:
$LN235@music_read:
$LN237@music_read:
$LN239@music_read:
$LN242@music_read:
$LN244@music_read:
$LN246@music_read:
$LN251@music_read:
$LN256@music_read:
$LN259@music_read:
$music_read_999$312:

; 1782 : 	fclose( fp );

  0213f	8b f4		 mov	 esi, esp
  02141	8b 85 4c f3 ff
	ff		 mov	 eax, DWORD PTR _fp$[ebp]
  02147	50		 push	 eax
  02148	ff 15 00 00 00
	00		 call	 DWORD PTR __imp__fclose
  0214e	83 c4 04	 add	 esp, 4
  02151	3b f4		 cmp	 esi, esp
  02153	e8 00 00 00 00	 call	 __RTC_CheckEsp

; 1783 : 	if(err_flg){

  02158	83 bd 2c fe ff
	ff 00		 cmp	 DWORD PTR _err_flg$[ebp], 0
  0215f	74 2b		 je	 SHORT $LN260@music_read

; 1784 : 		sprintf( moji ,"第 %d 行 %s" ,err_line ,err_msg[err_flg] );

  02161	8b 85 2c fe ff
	ff		 mov	 eax, DWORD PTR _err_flg$[ebp]
  02167	8b 0c 85 00 00
	00 00		 mov	 ecx, DWORD PTR ?err_msg@@3PAPADA[eax*4]
  0216e	51		 push	 ecx
  0216f	8b 95 20 fe ff
	ff		 mov	 edx, DWORD PTR _err_line$[ebp]
  02175	52		 push	 edx
  02176	68 00 00 00 00	 push	 OFFSET ??_C@_0M@EFJNBEIB@?p?$KP?5?$CFd?5?z?$LM?5?$CFs?$AA@
  0217b	8d 85 58 f3 ff
	ff		 lea	 eax, DWORD PTR _moji$[ebp]
  02181	50		 push	 eax
  02182	e8 00 00 00 00	 call	 _sprintf
  02187	83 c4 10	 add	 esp, 16			; 00000010H

; 1785 : #ifdef  _STONDEBUG_
; 1786 : 		MessageBox(hWnd, moji, "Error", MB_OK);
; 1787 : #endif
; 1788 : 	} else {

  0218a	eb 5c		 jmp	 SHORT $LN38@music_read
$LN260@music_read:

; 1789 : 		for(d7=0;d7<TRACK_MAX;d7++){

  0218c	c7 45 dc 00 00
	00 00		 mov	 DWORD PTR _d7$[ebp], 0
  02193	eb 09		 jmp	 SHORT $LN39@music_read
$LN37@music_read:
  02195	8b 45 dc	 mov	 eax, DWORD PTR _d7$[ebp]
  02198	83 c0 01	 add	 eax, 1
  0219b	89 45 dc	 mov	 DWORD PTR _d7$[ebp], eax
$LN39@music_read:
  0219e	83 7d dc 20	 cmp	 DWORD PTR _d7$[ebp], 32	; 00000020H
  021a2	7d 44		 jge	 SHORT $LN38@music_read

; 1790 : 			if(ch_kuri_lv[d7]!=-1){

  021a4	8b 45 dc	 mov	 eax, DWORD PTR _d7$[ebp]
  021a7	83 bc 85 88 f5
	ff ff ff	 cmp	 DWORD PTR _ch_kuri_lv$[ebp+eax*4], -1
  021af	74 35		 je	 SHORT $LN262@music_read

; 1791 : 				err_flg=M_KURISU_ERR;

  021b1	c7 85 2c fe ff
	ff 10 00 00 00	 mov	 DWORD PTR _err_flg$[ebp], 16 ; 00000010H

; 1792 : 				sprintf( moji ,"第 %d 音轨 %s" ,d7+1 ,err_msg[err_flg] );

  021bb	8b 85 2c fe ff
	ff		 mov	 eax, DWORD PTR _err_flg$[ebp]
  021c1	8b 0c 85 00 00
	00 00		 mov	 ecx, DWORD PTR ?err_msg@@3PAPADA[eax*4]
  021c8	51		 push	 ecx
  021c9	8b 55 dc	 mov	 edx, DWORD PTR _d7$[ebp]
  021cc	83 c2 01	 add	 edx, 1
  021cf	52		 push	 edx
  021d0	68 00 00 00 00	 push	 OFFSET ??_C@_0N@MJJPGILB@?p?$KP?5?$CFd?5?k?e?$DP?5?$CFs?$AA@
  021d5	8d 85 58 f3 ff
	ff		 lea	 eax, DWORD PTR _moji$[ebp]
  021db	50		 push	 eax
  021dc	e8 00 00 00 00	 call	 _sprintf
  021e1	83 c4 10	 add	 esp, 16			; 00000010H

; 1793 : #ifdef  _STONDEBUG_
; 1794 : 				MessageBox(hWnd, moji, "Error", MB_OK);
; 1795 : #endif
; 1796 : 				break;

  021e4	eb 02		 jmp	 SHORT $LN38@music_read
$LN262@music_read:

; 1797 : 			}
; 1798 : 		}

  021e6	eb ad		 jmp	 SHORT $LN37@music_read
$LN38@music_read:

; 1799 : 	}
; 1800 : 	return err_flg;

  021e8	8b 85 2c fe ff
	ff		 mov	 eax, DWORD PTR _err_flg$[ebp]
$LN1@music_read:

; 1801 : }

  021ee	52		 push	 edx
  021ef	8b cd		 mov	 ecx, ebp
  021f1	50		 push	 eax
  021f2	8d 15 00 00 00
	00		 lea	 edx, DWORD PTR $LN309@music_read
  021f8	e8 00 00 00 00	 call	 @_RTC_CheckStackVars@8
  021fd	58		 pop	 eax
  021fe	5a		 pop	 edx
  021ff	5f		 pop	 edi
  02200	5e		 pop	 esi
  02201	5b		 pop	 ebx
  02202	8b 4d fc	 mov	 ecx, DWORD PTR __$ArrayPad$[ebp]
  02205	33 cd		 xor	 ecx, ebp
  02207	e8 00 00 00 00	 call	 @__security_check_cookie@4
  0220c	81 c4 58 12 00
	00		 add	 esp, 4696		; 00001258H
  02212	3b ec		 cmp	 ebp, esp
  02214	e8 00 00 00 00	 call	 __RTC_CheckEsp
  02219	8b e5		 mov	 esp, ebp
  0221b	5d		 pop	 ebp
  0221c	c3		 ret	 0
  0221d	0f 1f 00	 npad	 3
$LN309@music_read:
  02220	0a 00 00 00	 DD	 10			; 0000000aH
  02224	00 00 00 00	 DD	 $LN308@music_read
$LN308@music_read:
  02228	48 ff ff ff	 DD	 -184			; ffffff48H
  0222c	80 00 00 00	 DD	 128			; 00000080H
  02230	00 00 00 00	 DD	 $LN298@music_read
  02234	c0 fe ff ff	 DD	 -320			; fffffec0H
  02238	80 00 00 00	 DD	 128			; 00000080H
  0223c	00 00 00 00	 DD	 $LN299@music_read
  02240	38 fe ff ff	 DD	 -456			; fffffe38H
  02244	80 00 00 00	 DD	 128			; 00000080H
  02248	00 00 00 00	 DD	 $LN300@music_read
  0224c	18 fa ff ff	 DD	 -1512			; fffffa18H
  02250	00 04 00 00	 DD	 1024			; 00000400H
  02254	00 00 00 00	 DD	 $LN301@music_read
  02258	10 f6 ff ff	 DD	 -2544			; fffff610H
  0225c	00 04 00 00	 DD	 1024			; 00000400H
  02260	00 00 00 00	 DD	 $LN302@music_read
  02264	88 f5 ff ff	 DD	 -2680			; fffff588H
  02268	80 00 00 00	 DD	 128			; 00000080H
  0226c	00 00 00 00	 DD	 $LN303@music_read
  02270	00 f5 ff ff	 DD	 -2816			; fffff500H
  02274	80 00 00 00	 DD	 128			; 00000080H
  02278	00 00 00 00	 DD	 $LN304@music_read
  0227c	6c f4 ff ff	 DD	 -2964			; fffff46cH
  02280	80 00 00 00	 DD	 128			; 00000080H
  02284	00 00 00 00	 DD	 $LN305@music_read
  02288	58 f3 ff ff	 DD	 -3240			; fffff358H
  0228c	00 01 00 00	 DD	 256			; 00000100H
  02290	00 00 00 00	 DD	 $LN306@music_read
  02294	14 f3 ff ff	 DD	 -3308			; fffff314H
  02298	24 00 00 00	 DD	 36			; 00000024H
  0229c	00 00 00 00	 DD	 $LN307@music_read
$LN307@music_read:
  022a0	77		 DB	 119			; 00000077H
  022a1	61		 DB	 97			; 00000061H
  022a2	6f		 DB	 111			; 0000006fH
  022a3	6e		 DB	 110			; 0000006eH
  022a4	5f		 DB	 95			; 0000005fH
  022a5	6e		 DB	 110			; 0000006eH
  022a6	6f		 DB	 111			; 0000006fH
  022a7	74		 DB	 116			; 00000074H
  022a8	65		 DB	 101			; 00000065H
  022a9	00		 DB	 0
$LN306@music_read:
  022aa	6d		 DB	 109			; 0000006dH
  022ab	6f		 DB	 111			; 0000006fH
  022ac	6a		 DB	 106			; 0000006aH
  022ad	69		 DB	 105			; 00000069H
  022ae	00		 DB	 0
$LN305@music_read:
  022af	71		 DB	 113			; 00000071H
  022b0	5f		 DB	 95			; 0000005fH
  022b1	63		 DB	 99			; 00000063H
  022b2	6f		 DB	 111			; 0000006fH
  022b3	6d		 DB	 109			; 0000006dH
  022b4	00		 DB	 0
$LN304@music_read:
  022b5	77		 DB	 119			; 00000077H
  022b6	61		 DB	 97			; 00000061H
  022b7	6f		 DB	 111			; 0000006fH
  022b8	6e		 DB	 110			; 0000006eH
  022b9	5f		 DB	 95			; 0000005fH
  022ba	64		 DB	 100			; 00000064H
  022bb	65		 DB	 101			; 00000065H
  022bc	6c		 DB	 108			; 0000006cH
  022bd	61		 DB	 97			; 00000061H
  022be	79		 DB	 121			; 00000079H
  022bf	00		 DB	 0
$LN303@music_read:
  022c0	63		 DB	 99			; 00000063H
  022c1	68		 DB	 104			; 00000068H
  022c2	5f		 DB	 95			; 0000005fH
  022c3	6b		 DB	 107			; 0000006bH
  022c4	75		 DB	 117			; 00000075H
  022c5	72		 DB	 114			; 00000072H
  022c6	69		 DB	 105			; 00000069H
  022c7	5f		 DB	 95			; 0000005fH
  022c8	6c		 DB	 108			; 0000006cH
  022c9	76		 DB	 118			; 00000076H
  022ca	00		 DB	 0
$LN302@music_read:
  022cb	63		 DB	 99			; 00000063H
  022cc	68		 DB	 104			; 00000068H
  022cd	5f		 DB	 95			; 0000005fH
  022ce	73		 DB	 115			; 00000073H
  022cf	6b		 DB	 107			; 0000006bH
  022d0	69		 DB	 105			; 00000069H
  022d1	70		 DB	 112			; 00000070H
  022d2	00		 DB	 0
$LN301@music_read:
  022d3	63		 DB	 99			; 00000063H
  022d4	68		 DB	 104			; 00000068H
  022d5	5f		 DB	 95			; 0000005fH
  022d6	72		 DB	 114			; 00000072H
  022d7	65		 DB	 101			; 00000065H
  022d8	74		 DB	 116			; 00000074H
  022d9	00		 DB	 0
$LN300@music_read:
  022da	63		 DB	 99			; 00000063H
  022db	68		 DB	 104			; 00000068H
  022dc	5f		 DB	 95			; 0000005fH
  022dd	6f		 DB	 111			; 0000006fH
  022de	63		 DB	 99			; 00000063H
  022df	74		 DB	 116			; 00000074H
  022e0	00		 DB	 0
$LN299@music_read:
  022e1	64		 DB	 100			; 00000064H
  022e2	6f		 DB	 111			; 0000006fH
  022e3	5f		 DB	 95			; 0000005fH
  022e4	70		 DB	 112			; 00000070H
  022e5	00		 DB	 0
$LN298@music_read:
  022e6	63		 DB	 99			; 00000063H
  022e7	68		 DB	 104			; 00000068H
  022e8	5f		 DB	 95			; 0000005fH
  022e9	70		 DB	 112			; 00000070H
  022ea	00		 DB	 0
  022eb	90		 npad	 1
$LN310@music_read:
  022ec	00 00 00 00	 DD	 $LN89@music_read
  022f0	00 00 00 00	 DD	 $LN93@music_read
  022f4	00 00 00 00	 DD	 $LN90@music_read
  022f8	00 00 00 00	 DD	 $LN254@music_read
  022fc	00 00 00 00	 DD	 $LN149@music_read
  02300	00 00 00 00	 DD	 $LN150@music_read
  02304	00 00 00 00	 DD	 $LN186@music_read
  02308	00 00 00 00	 DD	 $LN30@music_read
  0230c	00 00 00 00	 DD	 $LN159@music_read
  02310	00 00 00 00	 DD	 $LN129@music_read
  02314	00 00 00 00	 DD	 $LN143@music_read
  02318	00 00 00 00	 DD	 $LN153@music_read
  0231c	00 00 00 00	 DD	 $LN138@music_read
  02320	00 00 00 00	 DD	 $LN174@music_read
  02324	00 00 00 00	 DD	 $LN178@music_read
  02328	00 00 00 00	 DD	 $LN32@music_read
  0232c	00 00 00 00	 DD	 $LN258@music_read
$LN296@music_read:
  02330	00		 DB	 0
  02331	10		 DB	 16			; 00000010H
  02332	10		 DB	 16			; 00000010H
  02333	10		 DB	 16			; 00000010H
  02334	10		 DB	 16			; 00000010H
  02335	10		 DB	 16			; 00000010H
  02336	10		 DB	 16			; 00000010H
  02337	10		 DB	 16			; 00000010H
  02338	10		 DB	 16			; 00000010H
  02339	10		 DB	 16			; 00000010H
  0233a	10		 DB	 16			; 00000010H
  0233b	10		 DB	 16			; 00000010H
  0233c	10		 DB	 16			; 00000010H
  0233d	10		 DB	 16			; 00000010H
  0233e	10		 DB	 16			; 00000010H
  0233f	10		 DB	 16			; 00000010H
  02340	10		 DB	 16			; 00000010H
  02341	10		 DB	 16			; 00000010H
  02342	10		 DB	 16			; 00000010H
  02343	10		 DB	 16			; 00000010H
  02344	10		 DB	 16			; 00000010H
  02345	10		 DB	 16			; 00000010H
  02346	10		 DB	 16			; 00000010H
  02347	10		 DB	 16			; 00000010H
  02348	10		 DB	 16			; 00000010H
  02349	10		 DB	 16			; 00000010H
  0234a	10		 DB	 16			; 00000010H
  0234b	10		 DB	 16			; 00000010H
  0234c	10		 DB	 16			; 00000010H
  0234d	01		 DB	 1
  0234e	10		 DB	 16			; 00000010H
  0234f	10		 DB	 16			; 00000010H
  02350	10		 DB	 16			; 00000010H
  02351	10		 DB	 16			; 00000010H
  02352	10		 DB	 16			; 00000010H
  02353	10		 DB	 16			; 00000010H
  02354	10		 DB	 16			; 00000010H
  02355	02		 DB	 2
  02356	10		 DB	 16			; 00000010H
  02357	10		 DB	 16			; 00000010H
  02358	10		 DB	 16			; 00000010H
  02359	10		 DB	 16			; 00000010H
  0235a	10		 DB	 16			; 00000010H
  0235b	10		 DB	 16			; 00000010H
  0235c	10		 DB	 16			; 00000010H
  0235d	10		 DB	 16			; 00000010H
  0235e	10		 DB	 16			; 00000010H
  0235f	10		 DB	 16			; 00000010H
  02360	03		 DB	 3
  02361	10		 DB	 16			; 00000010H
  02362	04		 DB	 4
  02363	10		 DB	 16			; 00000010H
  02364	05		 DB	 5
  02365	10		 DB	 16			; 00000010H
  02366	06		 DB	 6
  02367	10		 DB	 16			; 00000010H
  02368	10		 DB	 16			; 00000010H
  02369	10		 DB	 16			; 00000010H
  0236a	10		 DB	 16			; 00000010H
  0236b	10		 DB	 16			; 00000010H
  0236c	10		 DB	 16			; 00000010H
  0236d	10		 DB	 16			; 00000010H
  0236e	10		 DB	 16			; 00000010H
  0236f	10		 DB	 16			; 00000010H
  02370	10		 DB	 16			; 00000010H
  02371	10		 DB	 16			; 00000010H
  02372	10		 DB	 16			; 00000010H
  02373	10		 DB	 16			; 00000010H
  02374	10		 DB	 16			; 00000010H
  02375	10		 DB	 16			; 00000010H
  02376	10		 DB	 16			; 00000010H
  02377	10		 DB	 16			; 00000010H
  02378	10		 DB	 16			; 00000010H
  02379	10		 DB	 16			; 00000010H
  0237a	10		 DB	 16			; 00000010H
  0237b	10		 DB	 16			; 00000010H
  0237c	10		 DB	 16			; 00000010H
  0237d	10		 DB	 16			; 00000010H
  0237e	10		 DB	 16			; 00000010H
  0237f	10		 DB	 16			; 00000010H
  02380	10		 DB	 16			; 00000010H
  02381	07		 DB	 7
  02382	10		 DB	 16			; 00000010H
  02383	10		 DB	 16			; 00000010H
  02384	10		 DB	 16			; 00000010H
  02385	10		 DB	 16			; 00000010H
  02386	10		 DB	 16			; 00000010H
  02387	08		 DB	 8
  02388	08		 DB	 8
  02389	08		 DB	 8
  0238a	08		 DB	 8
  0238b	08		 DB	 8
  0238c	08		 DB	 8
  0238d	08		 DB	 8
  0238e	10		 DB	 16			; 00000010H
  0238f	10		 DB	 16			; 00000010H
  02390	10		 DB	 16			; 00000010H
  02391	10		 DB	 16			; 00000010H
  02392	09		 DB	 9
  02393	10		 DB	 16			; 00000010H
  02394	10		 DB	 16			; 00000010H
  02395	0a		 DB	 10			; 0000000aH
  02396	10		 DB	 16			; 00000010H
  02397	0b		 DB	 11			; 0000000bH
  02398	0c		 DB	 12			; 0000000cH
  02399	10		 DB	 16			; 00000010H
  0239a	0d		 DB	 13			; 0000000dH
  0239b	10		 DB	 16			; 00000010H
  0239c	0e		 DB	 14			; 0000000eH
  0239d	10		 DB	 16			; 00000010H
  0239e	10		 DB	 16			; 00000010H
  0239f	10		 DB	 16			; 00000010H
  023a0	10		 DB	 16			; 00000010H
  023a1	10		 DB	 16			; 00000010H
  023a2	0f		 DB	 15			; 0000000fH
  023a3	90		 npad	 1
$LN311@music_read:
  023a4	00 00 00 00	 DD	 $LN220@music_read
  023a8	00 00 00 00	 DD	 $LN211@music_read
  023ac	00 00 00 00	 DD	 $LN194@music_read
  023b0	00 00 00 00	 DD	 $LN214@music_read
  023b4	00 00 00 00	 DD	 $LN197@music_read
  023b8	00 00 00 00	 DD	 $LN205@music_read
  023bc	00 00 00 00	 DD	 $LN202@music_read
  023c0	00 00 00 00	 DD	 $LN188@music_read
  023c4	00 00 00 00	 DD	 $LN224@music_read
  023c8	00 00 00 00	 DD	 $LN228@music_read
$LN297@music_read:
  023cc	00		 DB	 0
  023cd	09		 DB	 9
  023ce	01		 DB	 1
  023cf	09		 DB	 9
  023d0	02		 DB	 2
  023d1	09		 DB	 9
  023d2	09		 DB	 9
  023d3	03		 DB	 3
  023d4	09		 DB	 9
  023d5	04		 DB	 4
  023d6	09		 DB	 9
  023d7	09		 DB	 9
  023d8	05		 DB	 5
  023d9	09		 DB	 9
  023da	09		 DB	 9
  023db	06		 DB	 6
  023dc	09		 DB	 9
  023dd	09		 DB	 9
  023de	07		 DB	 7
  023df	08		 DB	 8
?music_read@@YAHXZ ENDP					; music_read
_TEXT	ENDS
; Function compile flags: /Odtp /RTCsu /ZI
; File c:\users\administrator\desktop\????? ??\????? ??\client source code\system\t_music.cpp
;	COMDAT ?get_step@@YAHPAU_iobuf@@H@Z
_TEXT	SEGMENT
_total$ = -32						; size = 4
_futen$ = -20						; size = 4
_d0$ = -8						; size = 4
_fp$ = 8						; size = 4
_ch$ = 12						; size = 4
?get_step@@YAHPAU_iobuf@@H@Z PROC			; get_step, COMDAT

; 1027 : {

  00000	55		 push	 ebp
  00001	8b ec		 mov	 ebp, esp
  00003	81 ec e4 00 00
	00		 sub	 esp, 228		; 000000e4H
  00009	53		 push	 ebx
  0000a	56		 push	 esi
  0000b	57		 push	 edi
  0000c	8d bd 1c ff ff
	ff		 lea	 edi, DWORD PTR [ebp-228]
  00012	b9 39 00 00 00	 mov	 ecx, 57			; 00000039H
  00017	b8 cc cc cc cc	 mov	 eax, -858993460		; ccccccccH
  0001c	f3 ab		 rep stosd

; 1028 : 	int d0,futen,total;
; 1029 : 	total = 0;

  0001e	c7 45 e0 00 00
	00 00		 mov	 DWORD PTR _total$[ebp], 0

; 1030 : 	futen = 0;

  00025	c7 45 ec 00 00
	00 00		 mov	 DWORD PTR _futen$[ebp], 0
$LN2@get_step:

; 1031 : 	while(1){

  0002c	b8 01 00 00 00	 mov	 eax, 1
  00031	85 c0		 test	 eax, eax
  00033	0f 84 bd 01 00
	00		 je	 $LN3@get_step

; 1032 : 		d0 = f_get( fp );		//?????

  00039	8b 45 08	 mov	 eax, DWORD PTR _fp$[ebp]
  0003c	50		 push	 eax
  0003d	e8 00 00 00 00	 call	 ?f_get@@YAHPAU_iobuf@@@Z ; f_get
  00042	83 c4 04	 add	 esp, 4
  00045	89 45 f8	 mov	 DWORD PTR _d0$[ebp], eax

; 1033 : 		if( d0 >= '0' && d0<= '9' ){		//????

  00048	83 7d f8 30	 cmp	 DWORD PTR _d0$[ebp], 48	; 00000030H
  0004c	7c 5a		 jl	 SHORT $LN4@get_step
  0004e	83 7d f8 39	 cmp	 DWORD PTR _d0$[ebp], 57	; 00000039H
  00052	7f 54		 jg	 SHORT $LN4@get_step

; 1034 : 			fseek(fp,-1,SEEK_CUR);		//??????

  00054	8b f4		 mov	 esi, esp
  00056	6a 01		 push	 1
  00058	6a ff		 push	 -1
  0005a	8b 45 08	 mov	 eax, DWORD PTR _fp$[ebp]
  0005d	50		 push	 eax
  0005e	ff 15 00 00 00
	00		 call	 DWORD PTR __imp__fseek
  00064	83 c4 0c	 add	 esp, 12			; 0000000cH
  00067	3b f4		 cmp	 esi, esp
  00069	e8 00 00 00 00	 call	 __RTC_CheckEsp

; 1035 : 			d0 = get_num( fp );

  0006e	8b 45 08	 mov	 eax, DWORD PTR _fp$[ebp]
  00071	50		 push	 eax
  00072	e8 00 00 00 00	 call	 ?get_num@@YAHPAU_iobuf@@@Z ; get_num
  00077	83 c4 04	 add	 esp, 4
  0007a	89 45 f8	 mov	 DWORD PTR _d0$[ebp], eax

; 1036 : 			if(d0 > 192)

  0007d	81 7d f8 c0 00
	00 00		 cmp	 DWORD PTR _d0$[ebp], 192 ; 000000c0H
  00084	7e 08		 jle	 SHORT $LN6@get_step

; 1037 : 				return -1;

  00086	83 c8 ff	 or	 eax, -1
  00089	e9 6b 01 00 00	 jmp	 $LN1@get_step
$LN6@get_step:

; 1038 : 			futen = 192 / d0;

  0008e	b8 c0 00 00 00	 mov	 eax, 192		; 000000c0H
  00093	99		 cdq
  00094	f7 7d f8	 idiv	 DWORD PTR _d0$[ebp]
  00097	89 45 ec	 mov	 DWORD PTR _futen$[ebp], eax

; 1039 : 			total += futen;

  0009a	8b 45 e0	 mov	 eax, DWORD PTR _total$[ebp]
  0009d	03 45 ec	 add	 eax, DWORD PTR _futen$[ebp]
  000a0	89 45 e0	 mov	 DWORD PTR _total$[ebp], eax
  000a3	e9 49 01 00 00	 jmp	 $LN5@get_step
$LN4@get_step:

; 1040 : 		} else if(d0 == '.'){		//埭??

  000a8	83 7d f8 2e	 cmp	 DWORD PTR _d0$[ebp], 46	; 0000002eH
  000ac	75 39		 jne	 SHORT $LN7@get_step

; 1041 : 			if(!total){		//????@e????

  000ae	83 7d e0 00	 cmp	 DWORD PTR _total$[ebp], 0
  000b2	75 1a		 jne	 SHORT $LN9@get_step

; 1042 : 				total = step_def[ch];		//埭?????

  000b4	8b 45 0c	 mov	 eax, DWORD PTR _ch$[ebp]
  000b7	8b 0c 85 00 00
	00 00		 mov	 ecx, DWORD PTR ?step_def@@3PAHA[eax*4]
  000be	89 4d e0	 mov	 DWORD PTR _total$[ebp], ecx

; 1043 : 				futen = step_def[ch];		//

  000c1	8b 45 0c	 mov	 eax, DWORD PTR _ch$[ebp]
  000c4	8b 0c 85 00 00
	00 00		 mov	 ecx, DWORD PTR ?step_def@@3PAHA[eax*4]
  000cb	89 4d ec	 mov	 DWORD PTR _futen$[ebp], ecx
$LN9@get_step:

; 1044 : 			}
; 1045 : 			futen /= 2;

  000ce	8b 45 ec	 mov	 eax, DWORD PTR _futen$[ebp]
  000d1	99		 cdq
  000d2	2b c2		 sub	 eax, edx
  000d4	d1 f8		 sar	 eax, 1
  000d6	89 45 ec	 mov	 DWORD PTR _futen$[ebp], eax

; 1046 : 			total += futen;

  000d9	8b 45 e0	 mov	 eax, DWORD PTR _total$[ebp]
  000dc	03 45 ec	 add	 eax, DWORD PTR _futen$[ebp]
  000df	89 45 e0	 mov	 DWORD PTR _total$[ebp], eax
  000e2	e9 0a 01 00 00	 jmp	 $LN5@get_step
$LN7@get_step:

; 1047 : 		} else if(d0 == '^'){		//??????

  000e7	83 7d f8 5e	 cmp	 DWORD PTR _d0$[ebp], 94	; 0000005eH
  000eb	0f 85 96 00 00
	00		 jne	 $LN10@get_step

; 1048 : 			d0 = f_get( fp );		//?????

  000f1	8b 45 08	 mov	 eax, DWORD PTR _fp$[ebp]
  000f4	50		 push	 eax
  000f5	e8 00 00 00 00	 call	 ?f_get@@YAHPAU_iobuf@@@Z ; f_get
  000fa	83 c4 04	 add	 esp, 4
  000fd	89 45 f8	 mov	 DWORD PTR _d0$[ebp], eax

; 1049 : 			fseek(fp,-1,SEEK_CUR);		//??????

  00100	8b f4		 mov	 esi, esp
  00102	6a 01		 push	 1
  00104	6a ff		 push	 -1
  00106	8b 45 08	 mov	 eax, DWORD PTR _fp$[ebp]
  00109	50		 push	 eax
  0010a	ff 15 00 00 00
	00		 call	 DWORD PTR __imp__fseek
  00110	83 c4 0c	 add	 esp, 12			; 0000000cH
  00113	3b f4		 cmp	 esi, esp
  00115	e8 00 00 00 00	 call	 __RTC_CheckEsp

; 1050 : 			if(d0 == '*'){		//En???

  0011a	83 7d f8 2a	 cmp	 DWORD PTR _d0$[ebp], 42	; 0000002aH
  0011e	75 05		 jne	 SHORT $LN12@get_step

; 1051 : 				continue;

  00120	e9 07 ff ff ff	 jmp	 $LN2@get_step
$LN12@get_step:

; 1052 : 			}
; 1053 : 			if(!num_check( fp )){		//???????

  00125	8b 45 08	 mov	 eax, DWORD PTR _fp$[ebp]
  00128	50		 push	 eax
  00129	e8 00 00 00 00	 call	 ?num_check@@YAHPAU_iobuf@@@Z ; num_check
  0012e	83 c4 04	 add	 esp, 4
  00131	85 c0		 test	 eax, eax
  00133	75 08		 jne	 SHORT $LN13@get_step

; 1054 : 				return -1;		//???

  00135	83 c8 ff	 or	 eax, -1
  00138	e9 bc 00 00 00	 jmp	 $LN1@get_step
$LN13@get_step:

; 1055 : 			}
; 1056 : 			d0 = get_num( fp );

  0013d	8b 45 08	 mov	 eax, DWORD PTR _fp$[ebp]
  00140	50		 push	 eax
  00141	e8 00 00 00 00	 call	 ?get_num@@YAHPAU_iobuf@@@Z ; get_num
  00146	83 c4 04	 add	 esp, 4
  00149	89 45 f8	 mov	 DWORD PTR _d0$[ebp], eax

; 1057 : 			if(d0 > 192)

  0014c	81 7d f8 c0 00
	00 00		 cmp	 DWORD PTR _d0$[ebp], 192 ; 000000c0H
  00153	7e 08		 jle	 SHORT $LN14@get_step

; 1058 : 				return -1;

  00155	83 c8 ff	 or	 eax, -1
  00158	e9 9c 00 00 00	 jmp	 $LN1@get_step
$LN14@get_step:

; 1059 : 			if(!total){		//????@e????

  0015d	83 7d e0 00	 cmp	 DWORD PTR _total$[ebp], 0
  00161	75 0d		 jne	 SHORT $LN15@get_step

; 1060 : 				total = step_def[ch];		//埭?????

  00163	8b 45 0c	 mov	 eax, DWORD PTR _ch$[ebp]
  00166	8b 0c 85 00 00
	00 00		 mov	 ecx, DWORD PTR ?step_def@@3PAHA[eax*4]
  0016d	89 4d e0	 mov	 DWORD PTR _total$[ebp], ecx
$LN15@get_step:

; 1061 : 			}
; 1062 : 			futen = 192 / d0;

  00170	b8 c0 00 00 00	 mov	 eax, 192		; 000000c0H
  00175	99		 cdq
  00176	f7 7d f8	 idiv	 DWORD PTR _d0$[ebp]
  00179	89 45 ec	 mov	 DWORD PTR _futen$[ebp], eax

; 1063 : 			total += futen;

  0017c	8b 45 e0	 mov	 eax, DWORD PTR _total$[ebp]
  0017f	03 45 ec	 add	 eax, DWORD PTR _futen$[ebp]
  00182	89 45 e0	 mov	 DWORD PTR _total$[ebp], eax
  00185	eb 6a		 jmp	 SHORT $LN5@get_step
$LN10@get_step:

; 1064 : 		} else if(d0 == '*'){		//En???

  00187	83 7d f8 2a	 cmp	 DWORD PTR _d0$[ebp], 42	; 0000002aH
  0018b	75 2f		 jne	 SHORT $LN16@get_step

; 1065 : 			if(!num_check( fp )){		//???????

  0018d	8b 45 08	 mov	 eax, DWORD PTR _fp$[ebp]
  00190	50		 push	 eax
  00191	e8 00 00 00 00	 call	 ?num_check@@YAHPAU_iobuf@@@Z ; num_check
  00196	83 c4 04	 add	 esp, 4
  00199	85 c0		 test	 eax, eax
  0019b	75 05		 jne	 SHORT $LN18@get_step

; 1066 : 				return -1;		//???

  0019d	83 c8 ff	 or	 eax, -1
  001a0	eb 57		 jmp	 SHORT $LN1@get_step
$LN18@get_step:

; 1067 : 			}
; 1068 : 			futen = get_num( fp );

  001a2	8b 45 08	 mov	 eax, DWORD PTR _fp$[ebp]
  001a5	50		 push	 eax
  001a6	e8 00 00 00 00	 call	 ?get_num@@YAHPAU_iobuf@@@Z ; get_num
  001ab	83 c4 04	 add	 esp, 4
  001ae	89 45 ec	 mov	 DWORD PTR _futen$[ebp], eax

; 1069 : 			total += futen;

  001b1	8b 45 e0	 mov	 eax, DWORD PTR _total$[ebp]
  001b4	03 45 ec	 add	 eax, DWORD PTR _futen$[ebp]
  001b7	89 45 e0	 mov	 DWORD PTR _total$[ebp], eax

; 1070 : 		} else {

  001ba	eb 35		 jmp	 SHORT $LN5@get_step
$LN16@get_step:

; 1071 : 			fseek(fp,-1,SEEK_CUR);		//??????

  001bc	8b f4		 mov	 esi, esp
  001be	6a 01		 push	 1
  001c0	6a ff		 push	 -1
  001c2	8b 45 08	 mov	 eax, DWORD PTR _fp$[ebp]
  001c5	50		 push	 eax
  001c6	ff 15 00 00 00
	00		 call	 DWORD PTR __imp__fseek
  001cc	83 c4 0c	 add	 esp, 12			; 0000000cH
  001cf	3b f4		 cmp	 esi, esp
  001d1	e8 00 00 00 00	 call	 __RTC_CheckEsp

; 1072 : 			if(total)		//????@e????

  001d6	83 7d e0 00	 cmp	 DWORD PTR _total$[ebp], 0
  001da	74 02		 je	 SHORT $LN19@get_step

; 1073 : 				break;

  001dc	eb 18		 jmp	 SHORT $LN3@get_step
$LN19@get_step:

; 1074 : 			futen = step_def[ch];

  001de	8b 45 0c	 mov	 eax, DWORD PTR _ch$[ebp]
  001e1	8b 0c 85 00 00
	00 00		 mov	 ecx, DWORD PTR ?step_def@@3PAHA[eax*4]
  001e8	89 4d ec	 mov	 DWORD PTR _futen$[ebp], ecx

; 1075 : 			total = futen;

  001eb	8b 45 ec	 mov	 eax, DWORD PTR _futen$[ebp]
  001ee	89 45 e0	 mov	 DWORD PTR _total$[ebp], eax
$LN5@get_step:

; 1076 : 		}
; 1077 : 	}

  001f1	e9 36 fe ff ff	 jmp	 $LN2@get_step
$LN3@get_step:

; 1078 : 	return total;

  001f6	8b 45 e0	 mov	 eax, DWORD PTR _total$[ebp]
$LN1@get_step:

; 1079 : }

  001f9	5f		 pop	 edi
  001fa	5e		 pop	 esi
  001fb	5b		 pop	 ebx
  001fc	81 c4 e4 00 00
	00		 add	 esp, 228		; 000000e4H
  00202	3b ec		 cmp	 ebp, esp
  00204	e8 00 00 00 00	 call	 __RTC_CheckEsp
  00209	8b e5		 mov	 esp, ebp
  0020b	5d		 pop	 ebp
  0020c	c3		 ret	 0
?get_step@@YAHPAU_iobuf@@H@Z ENDP			; get_step
_TEXT	ENDS
; Function compile flags: /Odtp /RTCsu /ZI
; File c:\users\administrator\desktop\????? ??\????? ??\client source code\system\t_music.cpp
;	COMDAT ?num_check2@@YAHPAU_iobuf@@@Z
_TEXT	SEGMENT
_d0$ = -8						; size = 4
_fp$ = 8						; size = 4
?num_check2@@YAHPAU_iobuf@@@Z PROC			; num_check2, COMDAT

; 991  : {

  00000	55		 push	 ebp
  00001	8b ec		 mov	 ebp, esp
  00003	81 ec cc 00 00
	00		 sub	 esp, 204		; 000000ccH
  00009	53		 push	 ebx
  0000a	56		 push	 esi
  0000b	57		 push	 edi
  0000c	8d bd 34 ff ff
	ff		 lea	 edi, DWORD PTR [ebp-204]
  00012	b9 33 00 00 00	 mov	 ecx, 51			; 00000033H
  00017	b8 cc cc cc cc	 mov	 eax, -858993460		; ccccccccH
  0001c	f3 ab		 rep stosd

; 992  : 	int d0;
; 993  : 	d0 = f_get( fp );		//??????

  0001e	8b 45 08	 mov	 eax, DWORD PTR _fp$[ebp]
  00021	50		 push	 eax
  00022	e8 00 00 00 00	 call	 ?f_get@@YAHPAU_iobuf@@@Z ; f_get
  00027	83 c4 04	 add	 esp, 4
  0002a	89 45 f8	 mov	 DWORD PTR _d0$[ebp], eax

; 994  : 	if(d0=='-'){			//??????

  0002d	83 7d f8 2d	 cmp	 DWORD PTR _d0$[ebp], 45	; 0000002dH
  00031	75 4e		 jne	 SHORT $LN2@num_check2

; 995  : 		d0 = fgetc( fp );		//?????????

  00033	8b f4		 mov	 esi, esp
  00035	8b 45 08	 mov	 eax, DWORD PTR _fp$[ebp]
  00038	50		 push	 eax
  00039	ff 15 00 00 00
	00		 call	 DWORD PTR __imp__fgetc
  0003f	83 c4 04	 add	 esp, 4
  00042	3b f4		 cmp	 esi, esp
  00044	e8 00 00 00 00	 call	 __RTC_CheckEsp
  00049	89 45 f8	 mov	 DWORD PTR _d0$[ebp], eax

; 996  : 		fseek(fp,-2,SEEK_CUR);		//??????

  0004c	8b f4		 mov	 esi, esp
  0004e	6a 01		 push	 1
  00050	6a fe		 push	 -2			; fffffffeH
  00052	8b 45 08	 mov	 eax, DWORD PTR _fp$[ebp]
  00055	50		 push	 eax
  00056	ff 15 00 00 00
	00		 call	 DWORD PTR __imp__fseek
  0005c	83 c4 0c	 add	 esp, 12			; 0000000cH
  0005f	3b f4		 cmp	 esi, esp
  00061	e8 00 00 00 00	 call	 __RTC_CheckEsp

; 997  : 		if( d0 >= '0' && d0<= '9' )		//???

  00066	83 7d f8 30	 cmp	 DWORD PTR _d0$[ebp], 48	; 00000030H
  0006a	7c 0f		 jl	 SHORT $LN4@num_check2
  0006c	83 7d f8 39	 cmp	 DWORD PTR _d0$[ebp], 57	; 00000039H
  00070	7f 09		 jg	 SHORT $LN4@num_check2

; 998  : 			return 1;		//??

  00072	b8 01 00 00 00	 mov	 eax, 1
  00077	eb 39		 jmp	 SHORT $LN1@num_check2

; 999  : 		else

  00079	eb 04		 jmp	 SHORT $LN5@num_check2
$LN4@num_check2:

; 1000 : 			return 0;		//???

  0007b	33 c0		 xor	 eax, eax
  0007d	eb 33		 jmp	 SHORT $LN1@num_check2
$LN5@num_check2:

; 1001 : 	} else {

  0007f	eb 31		 jmp	 SHORT $LN1@num_check2
$LN2@num_check2:

; 1002 : 		fseek(fp,-1,SEEK_CUR);		//??????

  00081	8b f4		 mov	 esi, esp
  00083	6a 01		 push	 1
  00085	6a ff		 push	 -1
  00087	8b 45 08	 mov	 eax, DWORD PTR _fp$[ebp]
  0008a	50		 push	 eax
  0008b	ff 15 00 00 00
	00		 call	 DWORD PTR __imp__fseek
  00091	83 c4 0c	 add	 esp, 12			; 0000000cH
  00094	3b f4		 cmp	 esi, esp
  00096	e8 00 00 00 00	 call	 __RTC_CheckEsp

; 1003 : 		if( d0 >= '0' && d0<= '9' )		//???

  0009b	83 7d f8 30	 cmp	 DWORD PTR _d0$[ebp], 48	; 00000030H
  0009f	7c 0f		 jl	 SHORT $LN6@num_check2
  000a1	83 7d f8 39	 cmp	 DWORD PTR _d0$[ebp], 57	; 00000039H
  000a5	7f 09		 jg	 SHORT $LN6@num_check2

; 1004 : 			return 1;		//??

  000a7	b8 01 00 00 00	 mov	 eax, 1
  000ac	eb 04		 jmp	 SHORT $LN1@num_check2

; 1005 : 		else

  000ae	eb 02		 jmp	 SHORT $LN1@num_check2
$LN6@num_check2:

; 1006 : 			return 0;		//???

  000b0	33 c0		 xor	 eax, eax
$LN1@num_check2:

; 1007 : 	}
; 1008 : }

  000b2	5f		 pop	 edi
  000b3	5e		 pop	 esi
  000b4	5b		 pop	 ebx
  000b5	81 c4 cc 00 00
	00		 add	 esp, 204		; 000000ccH
  000bb	3b ec		 cmp	 ebp, esp
  000bd	e8 00 00 00 00	 call	 __RTC_CheckEsp
  000c2	8b e5		 mov	 esp, ebp
  000c4	5d		 pop	 ebp
  000c5	c3		 ret	 0
?num_check2@@YAHPAU_iobuf@@@Z ENDP			; num_check2
_TEXT	ENDS
; Function compile flags: /Odtp /RTCsu /ZI
; File c:\users\administrator\desktop\????? ??\????? ??\client source code\system\t_music.cpp
;	COMDAT ?get_num2@@YAHPAU_iobuf@@@Z
_TEXT	SEGMENT
_d2$ = -32						; size = 4
_d1$ = -20						; size = 4
_d0$ = -8						; size = 4
_fp$ = 8						; size = 4
?get_num2@@YAHPAU_iobuf@@@Z PROC			; get_num2, COMDAT

; 958  : {

  00000	55		 push	 ebp
  00001	8b ec		 mov	 ebp, esp
  00003	81 ec e4 00 00
	00		 sub	 esp, 228		; 000000e4H
  00009	53		 push	 ebx
  0000a	56		 push	 esi
  0000b	57		 push	 edi
  0000c	8d bd 1c ff ff
	ff		 lea	 edi, DWORD PTR [ebp-228]
  00012	b9 39 00 00 00	 mov	 ecx, 57			; 00000039H
  00017	b8 cc cc cc cc	 mov	 eax, -858993460		; ccccccccH
  0001c	f3 ab		 rep stosd

; 959  : 	int d0,d1,d2=1;

  0001e	c7 45 e0 01 00
	00 00		 mov	 DWORD PTR _d2$[ebp], 1

; 960  : 	d0 = f_get( fp );		//??????

  00025	8b 45 08	 mov	 eax, DWORD PTR _fp$[ebp]
  00028	50		 push	 eax
  00029	e8 00 00 00 00	 call	 ?f_get@@YAHPAU_iobuf@@@Z ; f_get
  0002e	83 c4 04	 add	 esp, 4
  00031	89 45 f8	 mov	 DWORD PTR _d0$[ebp], eax

; 961  : 	if(d0=='-')		//??????

  00034	83 7d f8 2d	 cmp	 DWORD PTR _d0$[ebp], 45	; 0000002dH
  00038	75 09		 jne	 SHORT $LN6@get_num2

; 962  : 		d2=-1;

  0003a	c7 45 e0 ff ff
	ff ff		 mov	 DWORD PTR _d2$[ebp], -1

; 963  : 	else

  00041	eb 1a		 jmp	 SHORT $LN2@get_num2
$LN6@get_num2:

; 964  : 		fseek(fp,-1,SEEK_CUR);		//??????

  00043	8b f4		 mov	 esi, esp
  00045	6a 01		 push	 1
  00047	6a ff		 push	 -1
  00049	8b 45 08	 mov	 eax, DWORD PTR _fp$[ebp]
  0004c	50		 push	 eax
  0004d	ff 15 00 00 00
	00		 call	 DWORD PTR __imp__fseek
  00053	83 c4 0c	 add	 esp, 12			; 0000000cH
  00056	3b f4		 cmp	 esi, esp
  00058	e8 00 00 00 00	 call	 __RTC_CheckEsp
$LN2@get_num2:

; 965  : 
; 966  : 	while(1){

  0005d	b8 01 00 00 00	 mov	 eax, 1
  00062	85 c0		 test	 eax, eax
  00064	74 37		 je	 SHORT $LN3@get_num2

; 967  : 		d0 = fgetc( fp );		//????k???

  00066	8b f4		 mov	 esi, esp
  00068	8b 45 08	 mov	 eax, DWORD PTR _fp$[ebp]
  0006b	50		 push	 eax
  0006c	ff 15 00 00 00
	00		 call	 DWORD PTR __imp__fgetc
  00072	83 c4 04	 add	 esp, 4
  00075	3b f4		 cmp	 esi, esp
  00077	e8 00 00 00 00	 call	 __RTC_CheckEsp
  0007c	89 45 f8	 mov	 DWORD PTR _d0$[ebp], eax

; 968  : 		if( d0 == EOF )

  0007f	83 7d f8 ff	 cmp	 DWORD PTR _d0$[ebp], -1
  00083	75 08		 jne	 SHORT $LN8@get_num2

; 969  : 			return d0;

  00085	8b 45 f8	 mov	 eax, DWORD PTR _d0$[ebp]
  00088	e9 88 00 00 00	 jmp	 $LN1@get_num2
$LN8@get_num2:

; 970  : 		if( d0 >= '0' && d0<= '9' )		//???

  0008d	83 7d f8 30	 cmp	 DWORD PTR _d0$[ebp], 48	; 00000030H
  00091	7c 08		 jl	 SHORT $LN9@get_num2
  00093	83 7d f8 39	 cmp	 DWORD PTR _d0$[ebp], 57	; 00000039H
  00097	7f 02		 jg	 SHORT $LN9@get_num2

; 971  : 			break;						//??????

  00099	eb 02		 jmp	 SHORT $LN3@get_num2
$LN9@get_num2:

; 972  : 	}

  0009b	eb c0		 jmp	 SHORT $LN2@get_num2
$LN3@get_num2:

; 973  : 	d1=d0-'0';		//?????

  0009d	8b 45 f8	 mov	 eax, DWORD PTR _d0$[ebp]
  000a0	83 e8 30	 sub	 eax, 48			; 00000030H
  000a3	89 45 ec	 mov	 DWORD PTR _d1$[ebp], eax
$LN4@get_num2:

; 974  : 
; 975  : 	while(1){

  000a6	b8 01 00 00 00	 mov	 eax, 1
  000ab	85 c0		 test	 eax, eax
  000ad	74 45		 je	 SHORT $LN5@get_num2

; 976  : 		d0 = fgetc( fp );		//????k???

  000af	8b f4		 mov	 esi, esp
  000b1	8b 45 08	 mov	 eax, DWORD PTR _fp$[ebp]
  000b4	50		 push	 eax
  000b5	ff 15 00 00 00
	00		 call	 DWORD PTR __imp__fgetc
  000bb	83 c4 04	 add	 esp, 4
  000be	3b f4		 cmp	 esi, esp
  000c0	e8 00 00 00 00	 call	 __RTC_CheckEsp
  000c5	89 45 f8	 mov	 DWORD PTR _d0$[ebp], eax

; 977  : 		if( d0 == EOF )

  000c8	83 7d f8 ff	 cmp	 DWORD PTR _d0$[ebp], -1
  000cc	75 02		 jne	 SHORT $LN10@get_num2

; 978  : 			break;

  000ce	eb 24		 jmp	 SHORT $LN5@get_num2
$LN10@get_num2:

; 979  : 		if( d0 < '0' || d0> '9' )		//???

  000d0	83 7d f8 30	 cmp	 DWORD PTR _d0$[ebp], 48	; 00000030H
  000d4	7c 06		 jl	 SHORT $LN12@get_num2
  000d6	83 7d f8 39	 cmp	 DWORD PTR _d0$[ebp], 57	; 00000039H
  000da	7e 02		 jle	 SHORT $LN11@get_num2
$LN12@get_num2:

; 980  : 			break;						//?????????

  000dc	eb 16		 jmp	 SHORT $LN5@get_num2
$LN11@get_num2:

; 981  : 		d1*=10;		//???????

  000de	6b 45 ec 0a	 imul	 eax, DWORD PTR _d1$[ebp], 10
  000e2	89 45 ec	 mov	 DWORD PTR _d1$[ebp], eax

; 982  : 		d1+=d0-'0';	//

  000e5	8b 45 f8	 mov	 eax, DWORD PTR _d0$[ebp]
  000e8	8b 4d ec	 mov	 ecx, DWORD PTR _d1$[ebp]
  000eb	8d 54 01 d0	 lea	 edx, DWORD PTR [ecx+eax-48]
  000ef	89 55 ec	 mov	 DWORD PTR _d1$[ebp], edx

; 983  : 	}

  000f2	eb b2		 jmp	 SHORT $LN4@get_num2
$LN5@get_num2:

; 984  : 	fseek(fp,-1,SEEK_CUR);		//??????

  000f4	8b f4		 mov	 esi, esp
  000f6	6a 01		 push	 1
  000f8	6a ff		 push	 -1
  000fa	8b 45 08	 mov	 eax, DWORD PTR _fp$[ebp]
  000fd	50		 push	 eax
  000fe	ff 15 00 00 00
	00		 call	 DWORD PTR __imp__fseek
  00104	83 c4 0c	 add	 esp, 12			; 0000000cH
  00107	3b f4		 cmp	 esi, esp
  00109	e8 00 00 00 00	 call	 __RTC_CheckEsp

; 985  : 	return d1*d2;

  0010e	8b 45 ec	 mov	 eax, DWORD PTR _d1$[ebp]
  00111	0f af 45 e0	 imul	 eax, DWORD PTR _d2$[ebp]
$LN1@get_num2:

; 986  : }

  00115	5f		 pop	 edi
  00116	5e		 pop	 esi
  00117	5b		 pop	 ebx
  00118	81 c4 e4 00 00
	00		 add	 esp, 228		; 000000e4H
  0011e	3b ec		 cmp	 ebp, esp
  00120	e8 00 00 00 00	 call	 __RTC_CheckEsp
  00125	8b e5		 mov	 esp, ebp
  00127	5d		 pop	 ebp
  00128	c3		 ret	 0
?get_num2@@YAHPAU_iobuf@@@Z ENDP			; get_num2
_TEXT	ENDS
; Function compile flags: /Odtp /RTCsu /ZI
; File c:\users\administrator\desktop\????? ??\????? ??\client source code\system\t_music.cpp
;	COMDAT ?EndApp@@YAHXZ
_TEXT	SEGMENT
_d7$ = -8						; size = 4
?EndApp@@YAHXZ PROC					; EndApp, COMDAT

; 692  : {

  00000	55		 push	 ebp
  00001	8b ec		 mov	 ebp, esp
  00003	81 ec cc 00 00
	00		 sub	 esp, 204		; 000000ccH
  00009	53		 push	 ebx
  0000a	56		 push	 esi
  0000b	57		 push	 edi
  0000c	8d bd 34 ff ff
	ff		 lea	 edi, DWORD PTR [ebp-204]
  00012	b9 33 00 00 00	 mov	 ecx, 51			; 00000033H
  00017	b8 cc cc cc cc	 mov	 eax, -858993460		; ccccccccH
  0001c	f3 ab		 rep stosd

; 693  : 	int d7;
; 694  : 
; 695  : 	//JL 2017/9/6 add 因为游戏启动的时候已经初始了,其余函数可能在播放声音,直接屏蔽声音调用EndApp的话,函数将相关指针release了,就会指针错误
; 696  : 	//其余相关函数有对dsound_flg的判断, 因此将dsound_flg置为-1,避免其指针错误
; 697  : 	dsound_flg = -1;

  0001e	c7 05 00 00 00
	00 ff ff ff ff	 mov	 DWORD PTR ?dsound_flg@@3HA, -1 ; dsound_flg

; 698  : 	if (pDSound == NULL) return true;

  00028	83 3d 00 00 00
	00 00		 cmp	 DWORD PTR ?pDSound@@3PAUIDirectSound@@A, 0 ; pDSound
  0002f	75 0a		 jne	 SHORT $LN8@EndApp
  00031	b8 01 00 00 00	 mov	 eax, 1
  00036	e9 02 02 00 00	 jmp	 $LN1@EndApp
$LN8@EndApp:

; 699  : 
; 700  : 
; 701  : 	//????_?
; 702  : 	stop_thread();

  0003b	e8 00 00 00 00	 call	 ?stop_thread@@YAXXZ	; stop_thread

; 703  : 	RELEASE(pDSData_tone[TONE_MAX]);

  00040	b8 04 00 00 00	 mov	 eax, 4
  00045	69 c8 f4 01 00
	00		 imul	 ecx, eax, 500
  0004b	83 b9 00 00 00
	00 00		 cmp	 DWORD PTR ?pDSData_tone@@3PAPAUIDirectSoundBuffer@@A[ecx], 0
  00052	74 48		 je	 SHORT $LN9@EndApp
  00054	b8 04 00 00 00	 mov	 eax, 4
  00059	69 c8 f4 01 00
	00		 imul	 ecx, eax, 500
  0005f	8b 91 00 00 00
	00		 mov	 edx, DWORD PTR ?pDSData_tone@@3PAPAUIDirectSoundBuffer@@A[ecx]
  00065	b8 04 00 00 00	 mov	 eax, 4
  0006a	69 c8 f4 01 00
	00		 imul	 ecx, eax, 500
  00070	8b 81 00 00 00
	00		 mov	 eax, DWORD PTR ?pDSData_tone@@3PAPAUIDirectSoundBuffer@@A[ecx]
  00076	8b 0a		 mov	 ecx, DWORD PTR [edx]
  00078	8b f4		 mov	 esi, esp
  0007a	50		 push	 eax
  0007b	8b 51 08	 mov	 edx, DWORD PTR [ecx+8]
  0007e	ff d2		 call	 edx
  00080	3b f4		 cmp	 esi, esp
  00082	e8 00 00 00 00	 call	 __RTC_CheckEsp
  00087	b8 04 00 00 00	 mov	 eax, 4
  0008c	69 c8 f4 01 00
	00		 imul	 ecx, eax, 500
  00092	c7 81 00 00 00
	00 00 00 00 00	 mov	 DWORD PTR ?pDSData_tone@@3PAPAUIDirectSoundBuffer@@A[ecx], 0
$LN9@EndApp:

; 704  : 	//?????
; 705  : 	if(stream_flg == 1){

  0009c	0f be 05 00 00
	00 00		 movsx	 eax, BYTE PTR ?stream_flg@@3DA
  000a3	83 f8 01	 cmp	 eax, 1
  000a6	75 2f		 jne	 SHORT $LN10@EndApp

; 706  : 		RELEASE(pDSNotify);

  000a8	83 3d 00 00 00
	00 00		 cmp	 DWORD PTR ?pDSNotify@@3PAUIDirectSoundNotify@@A, 0
  000af	74 26		 je	 SHORT $LN10@EndApp
  000b1	a1 00 00 00 00	 mov	 eax, DWORD PTR ?pDSNotify@@3PAUIDirectSoundNotify@@A
  000b6	8b 08		 mov	 ecx, DWORD PTR [eax]
  000b8	8b f4		 mov	 esi, esp
  000ba	8b 15 00 00 00
	00		 mov	 edx, DWORD PTR ?pDSNotify@@3PAUIDirectSoundNotify@@A
  000c0	52		 push	 edx
  000c1	8b 41 08	 mov	 eax, DWORD PTR [ecx+8]
  000c4	ff d0		 call	 eax
  000c6	3b f4		 cmp	 esi, esp
  000c8	e8 00 00 00 00	 call	 __RTC_CheckEsp
  000cd	c7 05 00 00 00
	00 00 00 00 00	 mov	 DWORD PTR ?pDSNotify@@3PAUIDirectSoundNotify@@A, 0
$LN10@EndApp:

; 707  : 	}
; 708  : 	for(d7=0;d7<VOICE_MAX;d7++){

  000d7	c7 45 f8 00 00
	00 00		 mov	 DWORD PTR _d7$[ebp], 0
  000de	eb 09		 jmp	 SHORT $LN4@EndApp
$LN2@EndApp:
  000e0	8b 45 f8	 mov	 eax, DWORD PTR _d7$[ebp]
  000e3	83 c0 01	 add	 eax, 1
  000e6	89 45 f8	 mov	 DWORD PTR _d7$[ebp], eax
$LN4@EndApp:
  000e9	83 7d f8 40	 cmp	 DWORD PTR _d7$[ebp], 64	; 00000040H
  000ed	7d 67		 jge	 SHORT $LN3@EndApp

; 709  : 		pDSData[d7]->Stop();

  000ef	8b 45 f8	 mov	 eax, DWORD PTR _d7$[ebp]
  000f2	8b 0c 85 00 00
	00 00		 mov	 ecx, DWORD PTR ?pDSData@@3PAPAUIDirectSoundBuffer@@A[eax*4]
  000f9	8b 55 f8	 mov	 edx, DWORD PTR _d7$[ebp]
  000fc	8b 04 95 00 00
	00 00		 mov	 eax, DWORD PTR ?pDSData@@3PAPAUIDirectSoundBuffer@@A[edx*4]
  00103	8b 09		 mov	 ecx, DWORD PTR [ecx]
  00105	8b f4		 mov	 esi, esp
  00107	50		 push	 eax
  00108	8b 51 48	 mov	 edx, DWORD PTR [ecx+72]
  0010b	ff d2		 call	 edx
  0010d	3b f4		 cmp	 esi, esp
  0010f	e8 00 00 00 00	 call	 __RTC_CheckEsp

; 710  : 		RELEASE( pDSData[d7] );

  00114	8b 45 f8	 mov	 eax, DWORD PTR _d7$[ebp]
  00117	83 3c 85 00 00
	00 00 00	 cmp	 DWORD PTR ?pDSData@@3PAPAUIDirectSoundBuffer@@A[eax*4], 0
  0011f	74 33		 je	 SHORT $LN12@EndApp
  00121	8b 45 f8	 mov	 eax, DWORD PTR _d7$[ebp]
  00124	8b 0c 85 00 00
	00 00		 mov	 ecx, DWORD PTR ?pDSData@@3PAPAUIDirectSoundBuffer@@A[eax*4]
  0012b	8b 55 f8	 mov	 edx, DWORD PTR _d7$[ebp]
  0012e	8b 04 95 00 00
	00 00		 mov	 eax, DWORD PTR ?pDSData@@3PAPAUIDirectSoundBuffer@@A[edx*4]
  00135	8b 09		 mov	 ecx, DWORD PTR [ecx]
  00137	8b f4		 mov	 esi, esp
  00139	50		 push	 eax
  0013a	8b 51 08	 mov	 edx, DWORD PTR [ecx+8]
  0013d	ff d2		 call	 edx
  0013f	3b f4		 cmp	 esi, esp
  00141	e8 00 00 00 00	 call	 __RTC_CheckEsp
  00146	8b 45 f8	 mov	 eax, DWORD PTR _d7$[ebp]
  00149	c7 04 85 00 00
	00 00 00 00 00
	00		 mov	 DWORD PTR ?pDSData@@3PAPAUIDirectSoundBuffer@@A[eax*4], 0
$LN12@EndApp:

; 711  : 	}

  00154	eb 8a		 jmp	 SHORT $LN2@EndApp
$LN3@EndApp:

; 712  : 	for(d7=0;d7<tone_max_buf;d7++){

  00156	c7 45 f8 00 00
	00 00		 mov	 DWORD PTR _d7$[ebp], 0
  0015d	eb 09		 jmp	 SHORT $LN7@EndApp
$LN5@EndApp:
  0015f	8b 45 f8	 mov	 eax, DWORD PTR _d7$[ebp]
  00162	83 c0 01	 add	 eax, 1
  00165	89 45 f8	 mov	 DWORD PTR _d7$[ebp], eax
$LN7@EndApp:
  00168	8b 45 f8	 mov	 eax, DWORD PTR _d7$[ebp]
  0016b	3b 05 00 00 00
	00		 cmp	 eax, DWORD PTR ?tone_max_buf@@3HA ; tone_max_buf
  00171	7d 67		 jge	 SHORT $LN6@EndApp

; 713  : 		pDSData_tone[d7]->Stop();

  00173	8b 45 f8	 mov	 eax, DWORD PTR _d7$[ebp]
  00176	8b 0c 85 00 00
	00 00		 mov	 ecx, DWORD PTR ?pDSData_tone@@3PAPAUIDirectSoundBuffer@@A[eax*4]
  0017d	8b 55 f8	 mov	 edx, DWORD PTR _d7$[ebp]
  00180	8b 04 95 00 00
	00 00		 mov	 eax, DWORD PTR ?pDSData_tone@@3PAPAUIDirectSoundBuffer@@A[edx*4]
  00187	8b 09		 mov	 ecx, DWORD PTR [ecx]
  00189	8b f4		 mov	 esi, esp
  0018b	50		 push	 eax
  0018c	8b 51 48	 mov	 edx, DWORD PTR [ecx+72]
  0018f	ff d2		 call	 edx
  00191	3b f4		 cmp	 esi, esp
  00193	e8 00 00 00 00	 call	 __RTC_CheckEsp

; 714  : 		RELEASE( pDSData_tone[d7] );

  00198	8b 45 f8	 mov	 eax, DWORD PTR _d7$[ebp]
  0019b	83 3c 85 00 00
	00 00 00	 cmp	 DWORD PTR ?pDSData_tone@@3PAPAUIDirectSoundBuffer@@A[eax*4], 0
  001a3	74 33		 je	 SHORT $LN13@EndApp
  001a5	8b 45 f8	 mov	 eax, DWORD PTR _d7$[ebp]
  001a8	8b 0c 85 00 00
	00 00		 mov	 ecx, DWORD PTR ?pDSData_tone@@3PAPAUIDirectSoundBuffer@@A[eax*4]
  001af	8b 55 f8	 mov	 edx, DWORD PTR _d7$[ebp]
  001b2	8b 04 95 00 00
	00 00		 mov	 eax, DWORD PTR ?pDSData_tone@@3PAPAUIDirectSoundBuffer@@A[edx*4]
  001b9	8b 09		 mov	 ecx, DWORD PTR [ecx]
  001bb	8b f4		 mov	 esi, esp
  001bd	50		 push	 eax
  001be	8b 51 08	 mov	 edx, DWORD PTR [ecx+8]
  001c1	ff d2		 call	 edx
  001c3	3b f4		 cmp	 esi, esp
  001c5	e8 00 00 00 00	 call	 __RTC_CheckEsp
  001ca	8b 45 f8	 mov	 eax, DWORD PTR _d7$[ebp]
  001cd	c7 04 85 00 00
	00 00 00 00 00
	00		 mov	 DWORD PTR ?pDSData_tone@@3PAPAUIDirectSoundBuffer@@A[eax*4], 0
$LN13@EndApp:

; 715  : 	}

  001d8	eb 85		 jmp	 SHORT $LN5@EndApp
$LN6@EndApp:

; 716  : 	RELEASE(pDSPrimary);

  001da	83 3d 00 00 00
	00 00		 cmp	 DWORD PTR ?pDSPrimary@@3PAUIDirectSoundBuffer@@A, 0 ; pDSPrimary
  001e1	74 26		 je	 SHORT $LN14@EndApp
  001e3	a1 00 00 00 00	 mov	 eax, DWORD PTR ?pDSPrimary@@3PAUIDirectSoundBuffer@@A ; pDSPrimary
  001e8	8b 08		 mov	 ecx, DWORD PTR [eax]
  001ea	8b f4		 mov	 esi, esp
  001ec	8b 15 00 00 00
	00		 mov	 edx, DWORD PTR ?pDSPrimary@@3PAUIDirectSoundBuffer@@A ; pDSPrimary
  001f2	52		 push	 edx
  001f3	8b 41 08	 mov	 eax, DWORD PTR [ecx+8]
  001f6	ff d0		 call	 eax
  001f8	3b f4		 cmp	 esi, esp
  001fa	e8 00 00 00 00	 call	 __RTC_CheckEsp
  001ff	c7 05 00 00 00
	00 00 00 00 00	 mov	 DWORD PTR ?pDSPrimary@@3PAUIDirectSoundBuffer@@A, 0 ; pDSPrimary
$LN14@EndApp:

; 717  : 	RELEASE(pDSound);

  00209	83 3d 00 00 00
	00 00		 cmp	 DWORD PTR ?pDSound@@3PAUIDirectSound@@A, 0 ; pDSound
  00210	74 26		 je	 SHORT $LN15@EndApp
  00212	a1 00 00 00 00	 mov	 eax, DWORD PTR ?pDSound@@3PAUIDirectSound@@A ; pDSound
  00217	8b 08		 mov	 ecx, DWORD PTR [eax]
  00219	8b f4		 mov	 esi, esp
  0021b	8b 15 00 00 00
	00		 mov	 edx, DWORD PTR ?pDSound@@3PAUIDirectSound@@A ; pDSound
  00221	52		 push	 edx
  00222	8b 41 08	 mov	 eax, DWORD PTR [ecx+8]
  00225	ff d0		 call	 eax
  00227	3b f4		 cmp	 esi, esp
  00229	e8 00 00 00 00	 call	 __RTC_CheckEsp
  0022e	c7 05 00 00 00
	00 00 00 00 00	 mov	 DWORD PTR ?pDSound@@3PAUIDirectSound@@A, 0 ; pDSound
$LN15@EndApp:

; 718  : 
; 719  : 	return TRUE;

  00238	b8 01 00 00 00	 mov	 eax, 1
$LN1@EndApp:

; 720  : }

  0023d	5f		 pop	 edi
  0023e	5e		 pop	 esi
  0023f	5b		 pop	 ebx
  00240	81 c4 cc 00 00
	00		 add	 esp, 204		; 000000ccH
  00246	3b ec		 cmp	 ebp, esp
  00248	e8 00 00 00 00	 call	 __RTC_CheckEsp
  0024d	8b e5		 mov	 esp, ebp
  0024f	5d		 pop	 ebp
  00250	c3		 ret	 0
?EndApp@@YAHXZ ENDP					; EndApp
_TEXT	ENDS
; Function compile flags: /Odtp /RTCsu /ZI
; File c:\users\administrator\desktop\????? ??\????? ??\client source code\system\t_music.cpp
;	COMDAT ?stop_thread@@YAXXZ
_TEXT	SEGMENT
?stop_thread@@YAXXZ PROC				; stop_thread, COMDAT

; 642  : {

  00000	55		 push	 ebp
  00001	8b ec		 mov	 ebp, esp
  00003	81 ec c0 00 00
	00		 sub	 esp, 192		; 000000c0H
  00009	53		 push	 ebx
  0000a	56		 push	 esi
  0000b	57		 push	 edi
  0000c	8d bd 40 ff ff
	ff		 lea	 edi, DWORD PTR [ebp-192]
  00012	b9 30 00 00 00	 mov	 ecx, 48			; 00000030H
  00017	b8 cc cc cc cc	 mov	 eax, -858993460		; ccccccccH
  0001c	f3 ab		 rep stosd

; 643  : 	//????_??
; 644  : 	if(thread_stop_flg){

  0001e	83 3d 00 00 00
	00 00		 cmp	 DWORD PTR ?thread_stop_flg@@3HA, 0
  00025	0f 84 8c 00 00
	00		 je	 $LN4@stop_threa

; 645  : 		//???_
; 646  : 		pDSData_tone[ TONE_MAX ]->Stop();

  0002b	b8 04 00 00 00	 mov	 eax, 4
  00030	69 c8 f4 01 00
	00		 imul	 ecx, eax, 500
  00036	8b 91 00 00 00
	00		 mov	 edx, DWORD PTR ?pDSData_tone@@3PAPAUIDirectSoundBuffer@@A[ecx]
  0003c	b8 04 00 00 00	 mov	 eax, 4
  00041	69 c8 f4 01 00
	00		 imul	 ecx, eax, 500
  00047	8b 81 00 00 00
	00		 mov	 eax, DWORD PTR ?pDSData_tone@@3PAPAUIDirectSoundBuffer@@A[ecx]
  0004d	8b 0a		 mov	 ecx, DWORD PTR [edx]
  0004f	8b f4		 mov	 esi, esp
  00051	50		 push	 eax
  00052	8b 51 48	 mov	 edx, DWORD PTR [ecx+72]
  00055	ff d2		 call	 edx
  00057	3b f4		 cmp	 esi, esp
  00059	e8 00 00 00 00	 call	 __RTC_CheckEsp
$LN2@stop_threa:

; 647  : //		pDSData_stream->Stop();
; 648  : 		while(1){

  0005e	b8 01 00 00 00	 mov	 eax, 1
  00063	85 c0		 test	 eax, eax
  00065	74 10		 je	 SHORT $LN3@stop_threa

; 649  : 			if(exit_thread_flg == 1)

  00067	0f be 05 00 00
	00 00		 movsx	 eax, BYTE PTR ?exit_thread_flg@@3DC
  0006e	83 f8 01	 cmp	 eax, 1
  00071	75 02		 jne	 SHORT $LN5@stop_threa

; 650  : 				break;

  00073	eb 02		 jmp	 SHORT $LN3@stop_threa
$LN5@stop_threa:

; 651  : 		}

  00075	eb e7		 jmp	 SHORT $LN2@stop_threa
$LN3@stop_threa:

; 652  : 		thread_stop_flg = 0;

  00077	c7 05 00 00 00
	00 00 00 00 00	 mov	 DWORD PTR ?thread_stop_flg@@3HA, 0

; 653  : 		exit_thread_flg = 0;

  00081	c6 05 00 00 00
	00 00		 mov	 BYTE PTR ?exit_thread_flg@@3DC, 0

; 654  : 		RELEASE(pDSData_stream);

  00088	83 3d 00 00 00
	00 00		 cmp	 DWORD PTR ?pDSData_stream@@3PAUIDirectSoundBuffer@@A, 0 ; pDSData_stream
  0008f	74 26		 je	 SHORT $LN4@stop_threa
  00091	a1 00 00 00 00	 mov	 eax, DWORD PTR ?pDSData_stream@@3PAUIDirectSoundBuffer@@A ; pDSData_stream
  00096	8b 08		 mov	 ecx, DWORD PTR [eax]
  00098	8b f4		 mov	 esi, esp
  0009a	8b 15 00 00 00
	00		 mov	 edx, DWORD PTR ?pDSData_stream@@3PAUIDirectSoundBuffer@@A ; pDSData_stream
  000a0	52		 push	 edx
  000a1	8b 41 08	 mov	 eax, DWORD PTR [ecx+8]
  000a4	ff d0		 call	 eax
  000a6	3b f4		 cmp	 esi, esp
  000a8	e8 00 00 00 00	 call	 __RTC_CheckEsp
  000ad	c7 05 00 00 00
	00 00 00 00 00	 mov	 DWORD PTR ?pDSData_stream@@3PAUIDirectSoundBuffer@@A, 0 ; pDSData_stream
$LN4@stop_threa:

; 655  : 	}
; 656  : 	//??????????
; 657  : 	RELEASE(pDSData_tone[TONE_MAX]);

  000b7	b8 04 00 00 00	 mov	 eax, 4
  000bc	69 c8 f4 01 00
	00		 imul	 ecx, eax, 500
  000c2	83 b9 00 00 00
	00 00		 cmp	 DWORD PTR ?pDSData_tone@@3PAPAUIDirectSoundBuffer@@A[ecx], 0
  000c9	74 48		 je	 SHORT $LN1@stop_threa
  000cb	b8 04 00 00 00	 mov	 eax, 4
  000d0	69 c8 f4 01 00
	00		 imul	 ecx, eax, 500
  000d6	8b 91 00 00 00
	00		 mov	 edx, DWORD PTR ?pDSData_tone@@3PAPAUIDirectSoundBuffer@@A[ecx]
  000dc	b8 04 00 00 00	 mov	 eax, 4
  000e1	69 c8 f4 01 00
	00		 imul	 ecx, eax, 500
  000e7	8b 81 00 00 00
	00		 mov	 eax, DWORD PTR ?pDSData_tone@@3PAPAUIDirectSoundBuffer@@A[ecx]
  000ed	8b 0a		 mov	 ecx, DWORD PTR [edx]
  000ef	8b f4		 mov	 esi, esp
  000f1	50		 push	 eax
  000f2	8b 51 08	 mov	 edx, DWORD PTR [ecx+8]
  000f5	ff d2		 call	 edx
  000f7	3b f4		 cmp	 esi, esp
  000f9	e8 00 00 00 00	 call	 __RTC_CheckEsp
  000fe	b8 04 00 00 00	 mov	 eax, 4
  00103	69 c8 f4 01 00
	00		 imul	 ecx, eax, 500
  00109	c7 81 00 00 00
	00 00 00 00 00	 mov	 DWORD PTR ?pDSData_tone@@3PAPAUIDirectSoundBuffer@@A[ecx], 0
$LN1@stop_threa:

; 658  : }

  00113	5f		 pop	 edi
  00114	5e		 pop	 esi
  00115	5b		 pop	 ebx
  00116	81 c4 c0 00 00
	00		 add	 esp, 192		; 000000c0H
  0011c	3b ec		 cmp	 ebp, esp
  0011e	e8 00 00 00 00	 call	 __RTC_CheckEsp
  00123	8b e5		 mov	 esp, ebp
  00125	5d		 pop	 ebp
  00126	c3		 ret	 0
?stop_thread@@YAXXZ ENDP				; stop_thread
_TEXT	ENDS
; Function compile flags: /Odtp /RTCsu /ZI
; File c:\users\administrator\desktop\????? ??\????? ??\client source code\system\t_music.cpp
; File c:\users\administrator\desktop\????? ??\????? ??\client source code\systeminc\sndcnf.h
; File c:\users\administrator\desktop\????? ??\????? ??\client source code\system\t_music.cpp
;	COMDAT ?InitDSound@@YAHXZ
_TEXT	SEGMENT
tv4073 = -41520						; size = 4
_fp$1 = -39976						; size = 4
_d2$2 = -39964						; size = 4
_d1$ = -39952						; size = 4
_sndconfig$ = -39940					; size = 39552
_fname$ = -380						; size = 200
_program_no$ = -172					; size = 4
_WaveSize$ = -160					; size = 4
_DataSize$ = -148					; size = 4
_Wfmtx$ = -136						; size = 18
_hmmio$ = -108						; size = 4
_pcmwf$ = -96						; size = 18
_dsbdesc$ = -68						; size = 36
_d7$ = -24						; size = 4
_ret$ = -12						; size = 4
__$ArrayPad$ = -4					; size = 4
?InitDSound@@YAHXZ PROC					; InitDSound, COMDAT

; 388  : {

  00000	55		 push	 ebp
  00001	8b ec		 mov	 ebp, esp
  00003	b8 30 a2 00 00	 mov	 eax, 41520		; 0000a230H
  00008	e8 00 00 00 00	 call	 __chkstk
  0000d	53		 push	 ebx
  0000e	56		 push	 esi
  0000f	57		 push	 edi
  00010	8d bd d0 5d ff
	ff		 lea	 edi, DWORD PTR [ebp-41520]
  00016	b9 8c 28 00 00	 mov	 ecx, 10380		; 0000288cH
  0001b	b8 cc cc cc cc	 mov	 eax, -858993460		; ccccccccH
  00020	f3 ab		 rep stosd
  00022	a1 00 00 00 00	 mov	 eax, DWORD PTR ___security_cookie
  00027	33 c5		 xor	 eax, ebp
  00029	89 45 fc	 mov	 DWORD PTR __$ArrayPad$[ebp], eax

; 389  : 	HRESULT ret;
; 390  : 	int d7;
; 391  : 
; 392  : 	pDSound = NULL;

  0002c	c7 05 00 00 00
	00 00 00 00 00	 mov	 DWORD PTR ?pDSound@@3PAUIDirectSound@@A, 0 ; pDSound

; 393  : 	pDSPrimary = NULL;

  00036	c7 05 00 00 00
	00 00 00 00 00	 mov	 DWORD PTR ?pDSPrimary@@3PAUIDirectSoundBuffer@@A, 0 ; pDSPrimary

; 394  : 	for(d7=0;d7<VOICE_MAX;d7++)

  00040	c7 45 e8 00 00
	00 00		 mov	 DWORD PTR _d7$[ebp], 0
  00047	eb 09		 jmp	 SHORT $LN4@InitDSound
$LN2@InitDSound:
  00049	8b 45 e8	 mov	 eax, DWORD PTR _d7$[ebp]
  0004c	83 c0 01	 add	 eax, 1
  0004f	89 45 e8	 mov	 DWORD PTR _d7$[ebp], eax
$LN4@InitDSound:
  00052	83 7d e8 40	 cmp	 DWORD PTR _d7$[ebp], 64	; 00000040H
  00056	7d 10		 jge	 SHORT $LN3@InitDSound

; 395  : 		pDSData[d7]=NULL;

  00058	8b 45 e8	 mov	 eax, DWORD PTR _d7$[ebp]
  0005b	c7 04 85 00 00
	00 00 00 00 00
	00		 mov	 DWORD PTR ?pDSData@@3PAPAUIDirectSoundBuffer@@A[eax*4], 0
  00066	eb e1		 jmp	 SHORT $LN2@InitDSound
$LN3@InitDSound:

; 396  : 	for(d7=0;d7<VOICE_MAX;d7++)

  00068	c7 45 e8 00 00
	00 00		 mov	 DWORD PTR _d7$[ebp], 0
  0006f	eb 09		 jmp	 SHORT $LN7@InitDSound
$LN5@InitDSound:
  00071	8b 45 e8	 mov	 eax, DWORD PTR _d7$[ebp]
  00074	83 c0 01	 add	 eax, 1
  00077	89 45 e8	 mov	 DWORD PTR _d7$[ebp], eax
$LN7@InitDSound:
  0007a	83 7d e8 40	 cmp	 DWORD PTR _d7$[ebp], 64	; 00000040H
  0007e	7d 10		 jge	 SHORT $LN6@InitDSound

; 397  : 		dataPlay[d7]=FALSE;

  00080	8b 45 e8	 mov	 eax, DWORD PTR _d7$[ebp]
  00083	c7 04 85 00 00
	00 00 00 00 00
	00		 mov	 DWORD PTR ?dataPlay@@3PAHA[eax*4], 0
  0008e	eb e1		 jmp	 SHORT $LN5@InitDSound
$LN6@InitDSound:

; 398  : 
; 399  : 	ret = DirectSoundCreate(NULL, &pDSound, NULL);

  00090	6a 00		 push	 0
  00092	68 00 00 00 00	 push	 OFFSET ?pDSound@@3PAUIDirectSound@@A ; pDSound
  00097	6a 00		 push	 0
  00099	e8 00 00 00 00	 call	 _DirectSoundCreate@12
  0009e	89 45 f4	 mov	 DWORD PTR _ret$[ebp], eax

; 400  : 	if(ret != DS_OK){

  000a1	83 7d f4 00	 cmp	 DWORD PTR _ret$[ebp], 0
  000a5	74 07		 je	 SHORT $LN30@InitDSound

; 401  : #ifdef  _STONDEBUG_
; 402  : 	//    MessageBox(hWnd, "建立DirectSound介面失败！", "Error", MB_OK);
; 403  : #endif
; 404  : 		return FALSE;

  000a7	33 c0		 xor	 eax, eax
  000a9	e9 a3 66 00 00	 jmp	 $LN1@InitDSound
$LN30@InitDSound:

; 405  : 	}
; 406  : 	//????????@e
; 407  : 	ret = pDSound->SetCooperativeLevel(hWnd, DSSCL_PRIORITY);

  000ae	8b f4		 mov	 esi, esp
  000b0	6a 02		 push	 2
  000b2	a1 00 00 00 00	 mov	 eax, DWORD PTR ?hWnd@@3PAUHWND__@@A ; hWnd
  000b7	50		 push	 eax
  000b8	8b 0d 00 00 00
	00		 mov	 ecx, DWORD PTR ?pDSound@@3PAUIDirectSound@@A ; pDSound
  000be	8b 11		 mov	 edx, DWORD PTR [ecx]
  000c0	a1 00 00 00 00	 mov	 eax, DWORD PTR ?pDSound@@3PAUIDirectSound@@A ; pDSound
  000c5	50		 push	 eax
  000c6	8b 4a 18	 mov	 ecx, DWORD PTR [edx+24]
  000c9	ff d1		 call	 ecx
  000cb	3b f4		 cmp	 esi, esp
  000cd	e8 00 00 00 00	 call	 __RTC_CheckEsp
  000d2	89 45 f4	 mov	 DWORD PTR _ret$[ebp], eax

; 408  : 	if(ret != DS_OK){

  000d5	83 7d f4 00	 cmp	 DWORD PTR _ret$[ebp], 0
  000d9	74 36		 je	 SHORT $LN31@InitDSound

; 409  : 	    // ?????@e?害
; 410  : 		RELEASE(pDSound);

  000db	83 3d 00 00 00
	00 00		 cmp	 DWORD PTR ?pDSound@@3PAUIDirectSound@@A, 0 ; pDSound
  000e2	74 26		 je	 SHORT $LN32@InitDSound
  000e4	a1 00 00 00 00	 mov	 eax, DWORD PTR ?pDSound@@3PAUIDirectSound@@A ; pDSound
  000e9	8b 08		 mov	 ecx, DWORD PTR [eax]
  000eb	8b f4		 mov	 esi, esp
  000ed	8b 15 00 00 00
	00		 mov	 edx, DWORD PTR ?pDSound@@3PAUIDirectSound@@A ; pDSound
  000f3	52		 push	 edx
  000f4	8b 41 08	 mov	 eax, DWORD PTR [ecx+8]
  000f7	ff d0		 call	 eax
  000f9	3b f4		 cmp	 esi, esp
  000fb	e8 00 00 00 00	 call	 __RTC_CheckEsp
  00100	c7 05 00 00 00
	00 00 00 00 00	 mov	 DWORD PTR ?pDSound@@3PAUIDirectSound@@A, 0 ; pDSound
$LN32@InitDSound:

; 411  : #ifdef  _STONDEBUG_
; 412  : 	    MessageBox(hWnd, "设定协调等级失败！", "Error", MB_OK);
; 413  : #endif
; 414  : 		return FALSE;

  0010a	33 c0		 xor	 eax, eax
  0010c	e9 40 66 00 00	 jmp	 $LN1@InitDSound
$LN31@InitDSound:

; 415  : 	}
; 416  : 	// ?????@e
; 417  : 	pDSound ->SetSpeakerConfig(DSSPEAKER_COMBINED(DSSPEAKER_STEREO, DSSPEAKER_GEOMETRY_WIDE));

  00111	8b f4		 mov	 esi, esp
  00113	68 04 00 14 00	 push	 1310724			; 00140004H
  00118	a1 00 00 00 00	 mov	 eax, DWORD PTR ?pDSound@@3PAUIDirectSound@@A ; pDSound
  0011d	8b 08		 mov	 ecx, DWORD PTR [eax]
  0011f	8b 15 00 00 00
	00		 mov	 edx, DWORD PTR ?pDSound@@3PAUIDirectSound@@A ; pDSound
  00125	52		 push	 edx
  00126	8b 41 24	 mov	 eax, DWORD PTR [ecx+36]
  00129	ff d0		 call	 eax
  0012b	3b f4		 cmp	 esi, esp
  0012d	e8 00 00 00 00	 call	 __RTC_CheckEsp

; 418  : 	// ????????????
; 419  : 	// DSBUFFERDESC?Bl?@e
; 420  : 	DSBUFFERDESC dsbdesc; 
; 421  : 	ZeroMemory(&dsbdesc, sizeof(DSBUFFERDESC));

  00132	6a 24		 push	 36			; 00000024H
  00134	6a 00		 push	 0
  00136	8d 45 bc	 lea	 eax, DWORD PTR _dsbdesc$[ebp]
  00139	50		 push	 eax
  0013a	e8 00 00 00 00	 call	 _memset
  0013f	83 c4 0c	 add	 esp, 12			; 0000000cH

; 422  : 	dsbdesc.dwSize = sizeof(DSBUFFERDESC); 

  00142	c7 45 bc 24 00
	00 00		 mov	 DWORD PTR _dsbdesc$[ebp], 36 ; 00000024H

; 423  : 	// ???????????e
; 424  : 	dsbdesc.dwFlags = DSBCAPS_PRIMARYBUFFER; 

  00149	c7 45 c0 01 00
	00 00		 mov	 DWORD PTR _dsbdesc$[ebp+4], 1

; 425  : 	dsbdesc.dwBufferBytes = 0;

  00150	c7 45 c4 00 00
	00 00		 mov	 DWORD PTR _dsbdesc$[ebp+8], 0

; 426  : 	dsbdesc.lpwfxFormat = NULL;

  00157	c7 45 cc 00 00
	00 00		 mov	 DWORD PTR _dsbdesc$[ebp+16], 0

; 427  : 	// ???????
; 428  : 	ret = pDSound->CreateSoundBuffer(&dsbdesc, &pDSPrimary, NULL); 

  0015e	8b f4		 mov	 esi, esp
  00160	6a 00		 push	 0
  00162	68 00 00 00 00	 push	 OFFSET ?pDSPrimary@@3PAUIDirectSoundBuffer@@A ; pDSPrimary
  00167	8d 45 bc	 lea	 eax, DWORD PTR _dsbdesc$[ebp]
  0016a	50		 push	 eax
  0016b	8b 0d 00 00 00
	00		 mov	 ecx, DWORD PTR ?pDSound@@3PAUIDirectSound@@A ; pDSound
  00171	8b 11		 mov	 edx, DWORD PTR [ecx]
  00173	a1 00 00 00 00	 mov	 eax, DWORD PTR ?pDSound@@3PAUIDirectSound@@A ; pDSound
  00178	50		 push	 eax
  00179	8b 4a 0c	 mov	 ecx, DWORD PTR [edx+12]
  0017c	ff d1		 call	 ecx
  0017e	3b f4		 cmp	 esi, esp
  00180	e8 00 00 00 00	 call	 __RTC_CheckEsp
  00185	89 45 f4	 mov	 DWORD PTR _ret$[ebp], eax

; 429  : 	if(ret != DS_OK) { 

  00188	83 7d f4 00	 cmp	 DWORD PTR _ret$[ebp], 0
  0018c	74 07		 je	 SHORT $LN33@InitDSound

; 430  : #ifdef  _STONDEBUG_
; 431  : 	    MessageBox(hWnd, "建立主要buffer失败！", "Error", MB_OK);
; 432  : #endif
; 433  : 		return FALSE;

  0018e	33 c0		 xor	 eax, eax
  00190	e9 bc 65 00 00	 jmp	 $LN1@InitDSound
$LN33@InitDSound:

; 434  : 	}
; 435  : 	// ???????????Wave???????@e
; 436  : 	//       ?I???????????@e????????????
; 437  : 	WAVEFORMATEX pcmwf; 
; 438  : 	ZeroMemory(&pcmwf, sizeof(WAVEFORMATEX)); 

  00195	6a 12		 push	 18			; 00000012H
  00197	6a 00		 push	 0
  00199	8d 45 a0	 lea	 eax, DWORD PTR _pcmwf$[ebp]
  0019c	50		 push	 eax
  0019d	e8 00 00 00 00	 call	 _memset
  001a2	83 c4 0c	 add	 esp, 12			; 0000000cH

; 439  : 	pcmwf.wFormatTag = WAVE_FORMAT_PCM; 

  001a5	b8 01 00 00 00	 mov	 eax, 1
  001aa	66 89 45 a0	 mov	 WORD PTR _pcmwf$[ebp], ax

; 440  : 	pcmwf.nChannels = 2;		// ????????????

  001ae	b8 02 00 00 00	 mov	 eax, 2
  001b3	66 89 45 a2	 mov	 WORD PTR _pcmwf$[ebp+2], ax

; 441  : 	pcmwf.nSamplesPerSec = 22050;	// ??????????  22.05kHz

  001b7	c7 45 a4 22 56
	00 00		 mov	 DWORD PTR _pcmwf$[ebp+4], 22050 ; 00005622H

; 442  : 	pcmwf.nBlockAlign = 4;

  001be	b8 04 00 00 00	 mov	 eax, 4
  001c3	66 89 45 ac	 mov	 WORD PTR _pcmwf$[ebp+12], ax

; 443  : 	pcmwf.nAvgBytesPerSec = pcmwf.nSamplesPerSec * pcmwf.nBlockAlign; 

  001c7	0f b7 45 ac	 movzx	 eax, WORD PTR _pcmwf$[ebp+12]
  001cb	0f af 45 a4	 imul	 eax, DWORD PTR _pcmwf$[ebp+4]
  001cf	89 45 a8	 mov	 DWORD PTR _pcmwf$[ebp+8], eax

; 444  : 	pcmwf.wBitsPerSample = 16;		// 16???

  001d2	b8 10 00 00 00	 mov	 eax, 16			; 00000010H
  001d7	66 89 45 ae	 mov	 WORD PTR _pcmwf$[ebp+14], ax

; 445  : 	ret = pDSPrimary->SetFormat(&pcmwf);

  001db	8b f4		 mov	 esi, esp
  001dd	8d 45 a0	 lea	 eax, DWORD PTR _pcmwf$[ebp]
  001e0	50		 push	 eax
  001e1	8b 0d 00 00 00
	00		 mov	 ecx, DWORD PTR ?pDSPrimary@@3PAUIDirectSoundBuffer@@A ; pDSPrimary
  001e7	8b 11		 mov	 edx, DWORD PTR [ecx]
  001e9	a1 00 00 00 00	 mov	 eax, DWORD PTR ?pDSPrimary@@3PAUIDirectSoundBuffer@@A ; pDSPrimary
  001ee	50		 push	 eax
  001ef	8b 4a 38	 mov	 ecx, DWORD PTR [edx+56]
  001f2	ff d1		 call	 ecx
  001f4	3b f4		 cmp	 esi, esp
  001f6	e8 00 00 00 00	 call	 __RTC_CheckEsp
  001fb	89 45 f4	 mov	 DWORD PTR _ret$[ebp], eax

; 446  : 	if(ret != DS_OK){

  001fe	83 7d f4 00	 cmp	 DWORD PTR _ret$[ebp], 0
  00202	74 07		 je	 SHORT $LN34@InitDSound

; 447  : #ifdef  _STONDEBUG_
; 448  : 	    MessageBox(hWnd, "主要buffer的格式化失败！", "Error", MB_OK);
; 449  : #endif
; 450  : 		return FALSE;

  00204	33 c0		 xor	 eax, eax
  00206	e9 46 65 00 00	 jmp	 $LN1@InitDSound
$LN34@InitDSound:

; 451  : 	}
; 452  : /*
; 453  : //cary	使用resource建立sound data
; 454  : 	// ?????????????????????
; 455  : 	for(d7=0;d7<TONE_MAX;d7++){
; 456  : 		BOOL f;
; 457  : 		f = CreateSoundData(MAKEINTRESOURCE(101+d7), pDSData_tone[d7]);
; 458  : 		if(!f){
; 459  : 			for(d7=0;d7<TONE_MAX;d7++)
; 460  : 				RELEASE(pDSData_tone[d7]);
; 461  : 			RELEASE(pDSPrimary);
; 462  : 			RELEASE(pDSound);
; 463  : #ifdef  _STONDEBUG_
; 464  : 			MessageBox(hWnd, "建立声音资料失败！", "Error", MB_OK);
; 465  : #endif
; 466  : 			return FALSE;
; 467  : 		}
; 468  : 	}
; 469  : */
; 470  : 	HMMIO hmmio;			//????????
; 471  :     WAVEFORMATEX	Wfmtx;			//WAVE??????????????
; 472  : 	DWORD			DataSize;		//?????????
; 473  : 	DWORD			WaveSize;		//Wave????????
; 474  : 	int program_no = 0;

  0020b	c7 85 54 ff ff
	ff 00 00 00 00	 mov	 DWORD PTR _program_no$[ebp], 0

; 475  : 	char fname[mxSTR];
; 476  : 
; 477  : 	hmmio = (HMMIO)-1;		//?????????

  00215	c7 45 94 ff ff
	ff ff		 mov	 DWORD PTR _hmmio$[ebp], -1

; 478  : 	tone_max_buf = 0;

  0021c	c7 05 00 00 00
	00 00 00 00 00	 mov	 DWORD PTR ?tone_max_buf@@3HA, 0 ; tone_max_buf
; File c:\users\administrator\desktop\????? ??\????? ??\client source code\systeminc\sndcnf.h

; 6    : 	{    1, "data\\se\\sap_01.wav", 85, 0, 0 /*, "a?????"*/ },

  00226	b8 01 00 00 00	 mov	 eax, 1
  0022b	66 89 85 fc 63
	ff ff		 mov	 WORD PTR _sndconfig$[ebp], ax
  00232	a1 00 00 00 00	 mov	 eax, DWORD PTR ??_C@_0BD@KCLMPBKD@data?2se?2sap_01?4wav?$AA@
  00237	89 85 fe 63 ff
	ff		 mov	 DWORD PTR _sndconfig$[ebp+2], eax
  0023d	8b 0d 04 00 00
	00		 mov	 ecx, DWORD PTR ??_C@_0BD@KCLMPBKD@data?2se?2sap_01?4wav?$AA@+4
  00243	89 8d 02 64 ff
	ff		 mov	 DWORD PTR _sndconfig$[ebp+6], ecx
  00249	8b 15 08 00 00
	00		 mov	 edx, DWORD PTR ??_C@_0BD@KCLMPBKD@data?2se?2sap_01?4wav?$AA@+8
  0024f	89 95 06 64 ff
	ff		 mov	 DWORD PTR _sndconfig$[ebp+10], edx
  00255	a1 0c 00 00 00	 mov	 eax, DWORD PTR ??_C@_0BD@KCLMPBKD@data?2se?2sap_01?4wav?$AA@+12
  0025a	89 85 0a 64 ff
	ff		 mov	 DWORD PTR _sndconfig$[ebp+14], eax
  00260	66 8b 0d 10 00
	00 00		 mov	 cx, WORD PTR ??_C@_0BD@KCLMPBKD@data?2se?2sap_01?4wav?$AA@+16
  00267	66 89 8d 0e 64
	ff ff		 mov	 WORD PTR _sndconfig$[ebp+18], cx
  0026e	8a 15 12 00 00
	00		 mov	 dl, BYTE PTR ??_C@_0BD@KCLMPBKD@data?2se?2sap_01?4wav?$AA@+18
  00274	88 95 10 64 ff
	ff		 mov	 BYTE PTR _sndconfig$[ebp+20], dl
  0027a	68 b5 00 00 00	 push	 181			; 000000b5H
  0027f	6a 00		 push	 0
  00281	8d 85 11 64 ff
	ff		 lea	 eax, DWORD PTR _sndconfig$[ebp+21]
  00287	50		 push	 eax
  00288	e8 00 00 00 00	 call	 _memset
  0028d	83 c4 0c	 add	 esp, 12			; 0000000cH
  00290	c6 85 c6 64 ff
	ff 55		 mov	 BYTE PTR _sndconfig$[ebp+202], 85 ; 00000055H
  00297	c6 85 c7 64 ff
	ff 00		 mov	 BYTE PTR _sndconfig$[ebp+203], 0
  0029e	c6 85 c8 64 ff
	ff 00		 mov	 BYTE PTR _sndconfig$[ebp+204], 0

; 7    : 	{    2, "data\\se\\sap_02.wav", 85, 0, 0 /*, "a?????S?"*/ },

  002a5	b8 02 00 00 00	 mov	 eax, 2
  002aa	66 89 85 ca 64
	ff ff		 mov	 WORD PTR _sndconfig$[ebp+206], ax
  002b1	a1 00 00 00 00	 mov	 eax, DWORD PTR ??_C@_0BD@CECIIDAN@data?2se?2sap_02?4wav?$AA@
  002b6	89 85 cc 64 ff
	ff		 mov	 DWORD PTR _sndconfig$[ebp+208], eax
  002bc	8b 0d 04 00 00
	00		 mov	 ecx, DWORD PTR ??_C@_0BD@CECIIDAN@data?2se?2sap_02?4wav?$AA@+4
  002c2	89 8d d0 64 ff
	ff		 mov	 DWORD PTR _sndconfig$[ebp+212], ecx
  002c8	8b 15 08 00 00
	00		 mov	 edx, DWORD PTR ??_C@_0BD@CECIIDAN@data?2se?2sap_02?4wav?$AA@+8
  002ce	89 95 d4 64 ff
	ff		 mov	 DWORD PTR _sndconfig$[ebp+216], edx
  002d4	a1 0c 00 00 00	 mov	 eax, DWORD PTR ??_C@_0BD@CECIIDAN@data?2se?2sap_02?4wav?$AA@+12
  002d9	89 85 d8 64 ff
	ff		 mov	 DWORD PTR _sndconfig$[ebp+220], eax
  002df	66 8b 0d 10 00
	00 00		 mov	 cx, WORD PTR ??_C@_0BD@CECIIDAN@data?2se?2sap_02?4wav?$AA@+16
  002e6	66 89 8d dc 64
	ff ff		 mov	 WORD PTR _sndconfig$[ebp+224], cx
  002ed	8a 15 12 00 00
	00		 mov	 dl, BYTE PTR ??_C@_0BD@CECIIDAN@data?2se?2sap_02?4wav?$AA@+18
  002f3	88 95 de 64 ff
	ff		 mov	 BYTE PTR _sndconfig$[ebp+226], dl
  002f9	68 b5 00 00 00	 push	 181			; 000000b5H
  002fe	6a 00		 push	 0
  00300	8d 85 df 64 ff
	ff		 lea	 eax, DWORD PTR _sndconfig$[ebp+227]
  00306	50		 push	 eax
  00307	e8 00 00 00 00	 call	 _memset
  0030c	83 c4 0c	 add	 esp, 12			; 0000000cH
  0030f	c6 85 94 65 ff
	ff 55		 mov	 BYTE PTR _sndconfig$[ebp+408], 85 ; 00000055H
  00316	c6 85 95 65 ff
	ff 00		 mov	 BYTE PTR _sndconfig$[ebp+409], 0
  0031d	c6 85 96 65 ff
	ff 00		 mov	 BYTE PTR _sndconfig$[ebp+410], 0

; 8    : 	{    3, "data\\se\\sap_03.wav", 85, 0, 0 /*, "a??????"*/ },

  00324	b8 03 00 00 00	 mov	 eax, 3
  00329	66 89 85 98 65
	ff ff		 mov	 WORD PTR _sndconfig$[ebp+412], ax
  00330	a1 00 00 00 00	 mov	 eax, DWORD PTR ??_C@_0BD@OPHEFAKI@data?2se?2sap_03?4wav?$AA@
  00335	89 85 9a 65 ff
	ff		 mov	 DWORD PTR _sndconfig$[ebp+414], eax
  0033b	8b 0d 04 00 00
	00		 mov	 ecx, DWORD PTR ??_C@_0BD@OPHEFAKI@data?2se?2sap_03?4wav?$AA@+4
  00341	89 8d 9e 65 ff
	ff		 mov	 DWORD PTR _sndconfig$[ebp+418], ecx
  00347	8b 15 08 00 00
	00		 mov	 edx, DWORD PTR ??_C@_0BD@OPHEFAKI@data?2se?2sap_03?4wav?$AA@+8
  0034d	89 95 a2 65 ff
	ff		 mov	 DWORD PTR _sndconfig$[ebp+422], edx
  00353	a1 0c 00 00 00	 mov	 eax, DWORD PTR ??_C@_0BD@OPHEFAKI@data?2se?2sap_03?4wav?$AA@+12
  00358	89 85 a6 65 ff
	ff		 mov	 DWORD PTR _sndconfig$[ebp+426], eax
  0035e	66 8b 0d 10 00
	00 00		 mov	 cx, WORD PTR ??_C@_0BD@OPHEFAKI@data?2se?2sap_03?4wav?$AA@+16
  00365	66 89 8d aa 65
	ff ff		 mov	 WORD PTR _sndconfig$[ebp+430], cx
  0036c	8a 15 12 00 00
	00		 mov	 dl, BYTE PTR ??_C@_0BD@OPHEFAKI@data?2se?2sap_03?4wav?$AA@+18
  00372	88 95 ac 65 ff
	ff		 mov	 BYTE PTR _sndconfig$[ebp+432], dl
  00378	68 b5 00 00 00	 push	 181			; 000000b5H
  0037d	6a 00		 push	 0
  0037f	8d 85 ad 65 ff
	ff		 lea	 eax, DWORD PTR _sndconfig$[ebp+433]
  00385	50		 push	 eax
  00386	e8 00 00 00 00	 call	 _memset
  0038b	83 c4 0c	 add	 esp, 12			; 0000000cH
  0038e	c6 85 62 66 ff
	ff 55		 mov	 BYTE PTR _sndconfig$[ebp+614], 85 ; 00000055H
  00395	c6 85 63 66 ff
	ff 00		 mov	 BYTE PTR _sndconfig$[ebp+615], 0
  0039c	c6 85 64 66 ff
	ff 00		 mov	 BYTE PTR _sndconfig$[ebp+616], 0

; 9    : 	{    4, "data\\se\\sap_04.wav", 100, 0, 0 /*, "a????"*/ },

  003a3	b8 04 00 00 00	 mov	 eax, 4
  003a8	66 89 85 66 66
	ff ff		 mov	 WORD PTR _sndconfig$[ebp+618], ax
  003af	a1 00 00 00 00	 mov	 eax, DWORD PTR ??_C@_0BD@PCHBGABA@data?2se?2sap_04?4wav?$AA@
  003b4	89 85 68 66 ff
	ff		 mov	 DWORD PTR _sndconfig$[ebp+620], eax
  003ba	8b 0d 04 00 00
	00		 mov	 ecx, DWORD PTR ??_C@_0BD@PCHBGABA@data?2se?2sap_04?4wav?$AA@+4
  003c0	89 8d 6c 66 ff
	ff		 mov	 DWORD PTR _sndconfig$[ebp+624], ecx
  003c6	8b 15 08 00 00
	00		 mov	 edx, DWORD PTR ??_C@_0BD@PCHBGABA@data?2se?2sap_04?4wav?$AA@+8
  003cc	89 95 70 66 ff
	ff		 mov	 DWORD PTR _sndconfig$[ebp+628], edx
  003d2	a1 0c 00 00 00	 mov	 eax, DWORD PTR ??_C@_0BD@PCHBGABA@data?2se?2sap_04?4wav?$AA@+12
  003d7	89 85 74 66 ff
	ff		 mov	 DWORD PTR _sndconfig$[ebp+632], eax
  003dd	66 8b 0d 10 00
	00 00		 mov	 cx, WORD PTR ??_C@_0BD@PCHBGABA@data?2se?2sap_04?4wav?$AA@+16
  003e4	66 89 8d 78 66
	ff ff		 mov	 WORD PTR _sndconfig$[ebp+636], cx
  003eb	8a 15 12 00 00
	00		 mov	 dl, BYTE PTR ??_C@_0BD@PCHBGABA@data?2se?2sap_04?4wav?$AA@+18
  003f1	88 95 7a 66 ff
	ff		 mov	 BYTE PTR _sndconfig$[ebp+638], dl
  003f7	68 b5 00 00 00	 push	 181			; 000000b5H
  003fc	6a 00		 push	 0
  003fe	8d 85 7b 66 ff
	ff		 lea	 eax, DWORD PTR _sndconfig$[ebp+639]
  00404	50		 push	 eax
  00405	e8 00 00 00 00	 call	 _memset
  0040a	83 c4 0c	 add	 esp, 12			; 0000000cH
  0040d	c6 85 30 67 ff
	ff 64		 mov	 BYTE PTR _sndconfig$[ebp+820], 100 ; 00000064H
  00414	c6 85 31 67 ff
	ff 00		 mov	 BYTE PTR _sndconfig$[ebp+821], 0
  0041b	c6 85 32 67 ff
	ff 00		 mov	 BYTE PTR _sndconfig$[ebp+822], 0

; 10   : 	{    5, "data\\se\\sap_05.wav", 85, 0, 0 /*, "a????"*/ },

  00422	b8 05 00 00 00	 mov	 eax, 5
  00427	66 89 85 34 67
	ff ff		 mov	 WORD PTR _sndconfig$[ebp+824], ax
  0042e	a1 00 00 00 00	 mov	 eax, DWORD PTR ??_C@_0BD@DJCNLDLF@data?2se?2sap_05?4wav?$AA@
  00433	89 85 36 67 ff
	ff		 mov	 DWORD PTR _sndconfig$[ebp+826], eax
  00439	8b 0d 04 00 00
	00		 mov	 ecx, DWORD PTR ??_C@_0BD@DJCNLDLF@data?2se?2sap_05?4wav?$AA@+4
  0043f	89 8d 3a 67 ff
	ff		 mov	 DWORD PTR _sndconfig$[ebp+830], ecx
  00445	8b 15 08 00 00
	00		 mov	 edx, DWORD PTR ??_C@_0BD@DJCNLDLF@data?2se?2sap_05?4wav?$AA@+8
  0044b	89 95 3e 67 ff
	ff		 mov	 DWORD PTR _sndconfig$[ebp+834], edx
  00451	a1 0c 00 00 00	 mov	 eax, DWORD PTR ??_C@_0BD@DJCNLDLF@data?2se?2sap_05?4wav?$AA@+12
  00456	89 85 42 67 ff
	ff		 mov	 DWORD PTR _sndconfig$[ebp+838], eax
  0045c	66 8b 0d 10 00
	00 00		 mov	 cx, WORD PTR ??_C@_0BD@DJCNLDLF@data?2se?2sap_05?4wav?$AA@+16
  00463	66 89 8d 46 67
	ff ff		 mov	 WORD PTR _sndconfig$[ebp+842], cx
  0046a	8a 15 12 00 00
	00		 mov	 dl, BYTE PTR ??_C@_0BD@DJCNLDLF@data?2se?2sap_05?4wav?$AA@+18
  00470	88 95 48 67 ff
	ff		 mov	 BYTE PTR _sndconfig$[ebp+844], dl
  00476	68 b5 00 00 00	 push	 181			; 000000b5H
  0047b	6a 00		 push	 0
  0047d	8d 85 49 67 ff
	ff		 lea	 eax, DWORD PTR _sndconfig$[ebp+845]
  00483	50		 push	 eax
  00484	e8 00 00 00 00	 call	 _memset
  00489	83 c4 0c	 add	 esp, 12			; 0000000cH
  0048c	c6 85 fe 67 ff
	ff 55		 mov	 BYTE PTR _sndconfig$[ebp+1026], 85 ; 00000055H
  00493	c6 85 ff 67 ff
	ff 00		 mov	 BYTE PTR _sndconfig$[ebp+1027], 0
  0049a	c6 85 00 68 ff
	ff 00		 mov	 BYTE PTR _sndconfig$[ebp+1028], 0

; 11   : 	{    6, "data\\se\\sap_06.wav", 60, 0, 0 /*, "a?"*/ },

  004a1	b8 06 00 00 00	 mov	 eax, 6
  004a6	66 89 85 02 68
	ff ff		 mov	 WORD PTR _sndconfig$[ebp+1030], ax
  004ad	a1 00 00 00 00	 mov	 eax, DWORD PTR ??_C@_0BD@LPLJMBBL@data?2se?2sap_06?4wav?$AA@
  004b2	89 85 04 68 ff
	ff		 mov	 DWORD PTR _sndconfig$[ebp+1032], eax
  004b8	8b 0d 04 00 00
	00		 mov	 ecx, DWORD PTR ??_C@_0BD@LPLJMBBL@data?2se?2sap_06?4wav?$AA@+4
  004be	89 8d 08 68 ff
	ff		 mov	 DWORD PTR _sndconfig$[ebp+1036], ecx
  004c4	8b 15 08 00 00
	00		 mov	 edx, DWORD PTR ??_C@_0BD@LPLJMBBL@data?2se?2sap_06?4wav?$AA@+8
  004ca	89 95 0c 68 ff
	ff		 mov	 DWORD PTR _sndconfig$[ebp+1040], edx
  004d0	a1 0c 00 00 00	 mov	 eax, DWORD PTR ??_C@_0BD@LPLJMBBL@data?2se?2sap_06?4wav?$AA@+12
  004d5	89 85 10 68 ff
	ff		 mov	 DWORD PTR _sndconfig$[ebp+1044], eax
  004db	66 8b 0d 10 00
	00 00		 mov	 cx, WORD PTR ??_C@_0BD@LPLJMBBL@data?2se?2sap_06?4wav?$AA@+16
  004e2	66 89 8d 14 68
	ff ff		 mov	 WORD PTR _sndconfig$[ebp+1048], cx
  004e9	8a 15 12 00 00
	00		 mov	 dl, BYTE PTR ??_C@_0BD@LPLJMBBL@data?2se?2sap_06?4wav?$AA@+18
  004ef	88 95 16 68 ff
	ff		 mov	 BYTE PTR _sndconfig$[ebp+1050], dl
  004f5	68 b5 00 00 00	 push	 181			; 000000b5H
  004fa	6a 00		 push	 0
  004fc	8d 85 17 68 ff
	ff		 lea	 eax, DWORD PTR _sndconfig$[ebp+1051]
  00502	50		 push	 eax
  00503	e8 00 00 00 00	 call	 _memset
  00508	83 c4 0c	 add	 esp, 12			; 0000000cH
  0050b	c6 85 cc 68 ff
	ff 3c		 mov	 BYTE PTR _sndconfig$[ebp+1232], 60 ; 0000003cH
  00512	c6 85 cd 68 ff
	ff 00		 mov	 BYTE PTR _sndconfig$[ebp+1233], 0
  00519	c6 85 ce 68 ff
	ff 00		 mov	 BYTE PTR _sndconfig$[ebp+1234], 0

; 12   : 	{    7, "data\\se\\sap_07.wav", 123, 0, 0 /*, "a??????"*/ },

  00520	b8 07 00 00 00	 mov	 eax, 7
  00525	66 89 85 d0 68
	ff ff		 mov	 WORD PTR _sndconfig$[ebp+1236], ax
  0052c	a1 00 00 00 00	 mov	 eax, DWORD PTR ??_C@_0BD@HEOFBCLO@data?2se?2sap_07?4wav?$AA@
  00531	89 85 d2 68 ff
	ff		 mov	 DWORD PTR _sndconfig$[ebp+1238], eax
  00537	8b 0d 04 00 00
	00		 mov	 ecx, DWORD PTR ??_C@_0BD@HEOFBCLO@data?2se?2sap_07?4wav?$AA@+4
  0053d	89 8d d6 68 ff
	ff		 mov	 DWORD PTR _sndconfig$[ebp+1242], ecx
  00543	8b 15 08 00 00
	00		 mov	 edx, DWORD PTR ??_C@_0BD@HEOFBCLO@data?2se?2sap_07?4wav?$AA@+8
  00549	89 95 da 68 ff
	ff		 mov	 DWORD PTR _sndconfig$[ebp+1246], edx
  0054f	a1 0c 00 00 00	 mov	 eax, DWORD PTR ??_C@_0BD@HEOFBCLO@data?2se?2sap_07?4wav?$AA@+12
  00554	89 85 de 68 ff
	ff		 mov	 DWORD PTR _sndconfig$[ebp+1250], eax
  0055a	66 8b 0d 10 00
	00 00		 mov	 cx, WORD PTR ??_C@_0BD@HEOFBCLO@data?2se?2sap_07?4wav?$AA@+16
  00561	66 89 8d e2 68
	ff ff		 mov	 WORD PTR _sndconfig$[ebp+1254], cx
  00568	8a 15 12 00 00
	00		 mov	 dl, BYTE PTR ??_C@_0BD@HEOFBCLO@data?2se?2sap_07?4wav?$AA@+18
  0056e	88 95 e4 68 ff
	ff		 mov	 BYTE PTR _sndconfig$[ebp+1256], dl
  00574	68 b5 00 00 00	 push	 181			; 000000b5H
  00579	6a 00		 push	 0
  0057b	8d 85 e5 68 ff
	ff		 lea	 eax, DWORD PTR _sndconfig$[ebp+1257]
  00581	50		 push	 eax
  00582	e8 00 00 00 00	 call	 _memset
  00587	83 c4 0c	 add	 esp, 12			; 0000000cH
  0058a	c6 85 9a 69 ff
	ff 7b		 mov	 BYTE PTR _sndconfig$[ebp+1438], 123 ; 0000007bH
  00591	c6 85 9b 69 ff
	ff 00		 mov	 BYTE PTR _sndconfig$[ebp+1439], 0
  00598	c6 85 9c 69 ff
	ff 00		 mov	 BYTE PTR _sndconfig$[ebp+1440], 0

; 13   : 	{    8, "data\\se\\sap_08.wav", 80, 0, 0 /*, "?????"*/ },

  0059f	b8 08 00 00 00	 mov	 eax, 8
  005a4	66 89 85 9e 69
	ff ff		 mov	 WORD PTR _sndconfig$[ebp+1442], ax
  005ab	a1 00 00 00 00	 mov	 eax, DWORD PTR ??_C@_0BD@IFLDKAGL@data?2se?2sap_08?4wav?$AA@
  005b0	89 85 a0 69 ff
	ff		 mov	 DWORD PTR _sndconfig$[ebp+1444], eax
  005b6	8b 0d 04 00 00
	00		 mov	 ecx, DWORD PTR ??_C@_0BD@IFLDKAGL@data?2se?2sap_08?4wav?$AA@+4
  005bc	89 8d a4 69 ff
	ff		 mov	 DWORD PTR _sndconfig$[ebp+1448], ecx
  005c2	8b 15 08 00 00
	00		 mov	 edx, DWORD PTR ??_C@_0BD@IFLDKAGL@data?2se?2sap_08?4wav?$AA@+8
  005c8	89 95 a8 69 ff
	ff		 mov	 DWORD PTR _sndconfig$[ebp+1452], edx
  005ce	a1 0c 00 00 00	 mov	 eax, DWORD PTR ??_C@_0BD@IFLDKAGL@data?2se?2sap_08?4wav?$AA@+12
  005d3	89 85 ac 69 ff
	ff		 mov	 DWORD PTR _sndconfig$[ebp+1456], eax
  005d9	66 8b 0d 10 00
	00 00		 mov	 cx, WORD PTR ??_C@_0BD@IFLDKAGL@data?2se?2sap_08?4wav?$AA@+16
  005e0	66 89 8d b0 69
	ff ff		 mov	 WORD PTR _sndconfig$[ebp+1460], cx
  005e7	8a 15 12 00 00
	00		 mov	 dl, BYTE PTR ??_C@_0BD@IFLDKAGL@data?2se?2sap_08?4wav?$AA@+18
  005ed	88 95 b2 69 ff
	ff		 mov	 BYTE PTR _sndconfig$[ebp+1462], dl
  005f3	68 b5 00 00 00	 push	 181			; 000000b5H
  005f8	6a 00		 push	 0
  005fa	8d 85 b3 69 ff
	ff		 lea	 eax, DWORD PTR _sndconfig$[ebp+1463]
  00600	50		 push	 eax
  00601	e8 00 00 00 00	 call	 _memset
  00606	83 c4 0c	 add	 esp, 12			; 0000000cH
  00609	c6 85 68 6a ff
	ff 50		 mov	 BYTE PTR _sndconfig$[ebp+1644], 80 ; 00000050H
  00610	c6 85 69 6a ff
	ff 00		 mov	 BYTE PTR _sndconfig$[ebp+1645], 0
  00617	c6 85 6a 6a ff
	ff 00		 mov	 BYTE PTR _sndconfig$[ebp+1646], 0

; 14   : 	{    9, "data\\se\\sap_09.wav", 80, 0, 0 /*, "a??????"*/ },

  0061e	b8 09 00 00 00	 mov	 eax, 9
  00623	66 89 85 6c 6a
	ff ff		 mov	 WORD PTR _sndconfig$[ebp+1648], ax
  0062a	a1 00 00 00 00	 mov	 eax, DWORD PTR ??_C@_0BD@EOOPHDMO@data?2se?2sap_09?4wav?$AA@
  0062f	89 85 6e 6a ff
	ff		 mov	 DWORD PTR _sndconfig$[ebp+1650], eax
  00635	8b 0d 04 00 00
	00		 mov	 ecx, DWORD PTR ??_C@_0BD@EOOPHDMO@data?2se?2sap_09?4wav?$AA@+4
  0063b	89 8d 72 6a ff
	ff		 mov	 DWORD PTR _sndconfig$[ebp+1654], ecx
  00641	8b 15 08 00 00
	00		 mov	 edx, DWORD PTR ??_C@_0BD@EOOPHDMO@data?2se?2sap_09?4wav?$AA@+8
  00647	89 95 76 6a ff
	ff		 mov	 DWORD PTR _sndconfig$[ebp+1658], edx
  0064d	a1 0c 00 00 00	 mov	 eax, DWORD PTR ??_C@_0BD@EOOPHDMO@data?2se?2sap_09?4wav?$AA@+12
  00652	89 85 7a 6a ff
	ff		 mov	 DWORD PTR _sndconfig$[ebp+1662], eax
  00658	66 8b 0d 10 00
	00 00		 mov	 cx, WORD PTR ??_C@_0BD@EOOPHDMO@data?2se?2sap_09?4wav?$AA@+16
  0065f	66 89 8d 7e 6a
	ff ff		 mov	 WORD PTR _sndconfig$[ebp+1666], cx
  00666	8a 15 12 00 00
	00		 mov	 dl, BYTE PTR ??_C@_0BD@EOOPHDMO@data?2se?2sap_09?4wav?$AA@+18
  0066c	88 95 80 6a ff
	ff		 mov	 BYTE PTR _sndconfig$[ebp+1668], dl
  00672	68 b5 00 00 00	 push	 181			; 000000b5H
  00677	6a 00		 push	 0
  00679	8d 85 81 6a ff
	ff		 lea	 eax, DWORD PTR _sndconfig$[ebp+1669]
  0067f	50		 push	 eax
  00680	e8 00 00 00 00	 call	 _memset
  00685	83 c4 0c	 add	 esp, 12			; 0000000cH
  00688	c6 85 36 6b ff
	ff 50		 mov	 BYTE PTR _sndconfig$[ebp+1850], 80 ; 00000050H
  0068f	c6 85 37 6b ff
	ff 00		 mov	 BYTE PTR _sndconfig$[ebp+1851], 0
  00696	c6 85 38 6b ff
	ff 00		 mov	 BYTE PTR _sndconfig$[ebp+1852], 0

; 15   : 	{   10, "data\\se\\sap_10.wav", 80, 0, 0 /*, "a???????"*/ },

  0069d	b8 0a 00 00 00	 mov	 eax, 10			; 0000000aH
  006a2	66 89 85 3a 6b
	ff ff		 mov	 WORD PTR _sndconfig$[ebp+1854], ax
  006a9	a1 00 00 00 00	 mov	 eax, DWORD PTR ??_C@_0BD@MPJHCJLC@data?2se?2sap_10?4wav?$AA@
  006ae	89 85 3c 6b ff
	ff		 mov	 DWORD PTR _sndconfig$[ebp+1856], eax
  006b4	8b 0d 04 00 00
	00		 mov	 ecx, DWORD PTR ??_C@_0BD@MPJHCJLC@data?2se?2sap_10?4wav?$AA@+4
  006ba	89 8d 40 6b ff
	ff		 mov	 DWORD PTR _sndconfig$[ebp+1860], ecx
  006c0	8b 15 08 00 00
	00		 mov	 edx, DWORD PTR ??_C@_0BD@MPJHCJLC@data?2se?2sap_10?4wav?$AA@+8
  006c6	89 95 44 6b ff
	ff		 mov	 DWORD PTR _sndconfig$[ebp+1864], edx
  006cc	a1 0c 00 00 00	 mov	 eax, DWORD PTR ??_C@_0BD@MPJHCJLC@data?2se?2sap_10?4wav?$AA@+12
  006d1	89 85 48 6b ff
	ff		 mov	 DWORD PTR _sndconfig$[ebp+1868], eax
  006d7	66 8b 0d 10 00
	00 00		 mov	 cx, WORD PTR ??_C@_0BD@MPJHCJLC@data?2se?2sap_10?4wav?$AA@+16
  006de	66 89 8d 4c 6b
	ff ff		 mov	 WORD PTR _sndconfig$[ebp+1872], cx
  006e5	8a 15 12 00 00
	00		 mov	 dl, BYTE PTR ??_C@_0BD@MPJHCJLC@data?2se?2sap_10?4wav?$AA@+18
  006eb	88 95 4e 6b ff
	ff		 mov	 BYTE PTR _sndconfig$[ebp+1874], dl
  006f1	68 b5 00 00 00	 push	 181			; 000000b5H
  006f6	6a 00		 push	 0
  006f8	8d 85 4f 6b ff
	ff		 lea	 eax, DWORD PTR _sndconfig$[ebp+1875]
  006fe	50		 push	 eax
  006ff	e8 00 00 00 00	 call	 _memset
  00704	83 c4 0c	 add	 esp, 12			; 0000000cH
  00707	c6 85 04 6c ff
	ff 50		 mov	 BYTE PTR _sndconfig$[ebp+2056], 80 ; 00000050H
  0070e	c6 85 05 6c ff
	ff 00		 mov	 BYTE PTR _sndconfig$[ebp+2057], 0
  00715	c6 85 06 6c ff
	ff 00		 mov	 BYTE PTR _sndconfig$[ebp+2058], 0

; 16   : //x	{   11, "data\\se\\sap_11.wav", 105, 7, 0 /*, "??"*/ },
; 17   : 	{   11, "data\\se\\sap_11.wav", 105, 0, 0 /*, "??"*/ },		   

  0071c	b8 0b 00 00 00	 mov	 eax, 11			; 0000000bH
  00721	66 89 85 08 6c
	ff ff		 mov	 WORD PTR _sndconfig$[ebp+2060], ax
  00728	a1 00 00 00 00	 mov	 eax, DWORD PTR ??_C@_0BD@EMLPKBH@data?2se?2sap_11?4wav?$AA@
  0072d	89 85 0a 6c ff
	ff		 mov	 DWORD PTR _sndconfig$[ebp+2062], eax
  00733	8b 0d 04 00 00
	00		 mov	 ecx, DWORD PTR ??_C@_0BD@EMLPKBH@data?2se?2sap_11?4wav?$AA@+4
  00739	89 8d 0e 6c ff
	ff		 mov	 DWORD PTR _sndconfig$[ebp+2066], ecx
  0073f	8b 15 08 00 00
	00		 mov	 edx, DWORD PTR ??_C@_0BD@EMLPKBH@data?2se?2sap_11?4wav?$AA@+8
  00745	89 95 12 6c ff
	ff		 mov	 DWORD PTR _sndconfig$[ebp+2070], edx
  0074b	a1 0c 00 00 00	 mov	 eax, DWORD PTR ??_C@_0BD@EMLPKBH@data?2se?2sap_11?4wav?$AA@+12
  00750	89 85 16 6c ff
	ff		 mov	 DWORD PTR _sndconfig$[ebp+2074], eax
  00756	66 8b 0d 10 00
	00 00		 mov	 cx, WORD PTR ??_C@_0BD@EMLPKBH@data?2se?2sap_11?4wav?$AA@+16
  0075d	66 89 8d 1a 6c
	ff ff		 mov	 WORD PTR _sndconfig$[ebp+2078], cx
  00764	8a 15 12 00 00
	00		 mov	 dl, BYTE PTR ??_C@_0BD@EMLPKBH@data?2se?2sap_11?4wav?$AA@+18
  0076a	88 95 1c 6c ff
	ff		 mov	 BYTE PTR _sndconfig$[ebp+2080], dl
  00770	68 b5 00 00 00	 push	 181			; 000000b5H
  00775	6a 00		 push	 0
  00777	8d 85 1d 6c ff
	ff		 lea	 eax, DWORD PTR _sndconfig$[ebp+2081]
  0077d	50		 push	 eax
  0077e	e8 00 00 00 00	 call	 _memset
  00783	83 c4 0c	 add	 esp, 12			; 0000000cH
  00786	c6 85 d2 6c ff
	ff 69		 mov	 BYTE PTR _sndconfig$[ebp+2262], 105 ; 00000069H
  0078d	c6 85 d3 6c ff
	ff 00		 mov	 BYTE PTR _sndconfig$[ebp+2263], 0
  00794	c6 85 d4 6c ff
	ff 00		 mov	 BYTE PTR _sndconfig$[ebp+2264], 0

; 18   : 	{   12, "data\\se\\sap_14.wav", 100, 0, 0 /*, "??"*/ },			 

  0079b	b8 0c 00 00 00	 mov	 eax, 12			; 0000000cH
  007a0	66 89 85 d6 6c
	ff ff		 mov	 WORD PTR _sndconfig$[ebp+2266], ax
  007a7	a1 00 00 00 00	 mov	 eax, DWORD PTR ??_C@_0BD@FEAGGLKE@data?2se?2sap_14?4wav?$AA@
  007ac	89 85 d8 6c ff
	ff		 mov	 DWORD PTR _sndconfig$[ebp+2268], eax
  007b2	8b 0d 04 00 00
	00		 mov	 ecx, DWORD PTR ??_C@_0BD@FEAGGLKE@data?2se?2sap_14?4wav?$AA@+4
  007b8	89 8d dc 6c ff
	ff		 mov	 DWORD PTR _sndconfig$[ebp+2272], ecx
  007be	8b 15 08 00 00
	00		 mov	 edx, DWORD PTR ??_C@_0BD@FEAGGLKE@data?2se?2sap_14?4wav?$AA@+8
  007c4	89 95 e0 6c ff
	ff		 mov	 DWORD PTR _sndconfig$[ebp+2276], edx
  007ca	a1 0c 00 00 00	 mov	 eax, DWORD PTR ??_C@_0BD@FEAGGLKE@data?2se?2sap_14?4wav?$AA@+12
  007cf	89 85 e4 6c ff
	ff		 mov	 DWORD PTR _sndconfig$[ebp+2280], eax
  007d5	66 8b 0d 10 00
	00 00		 mov	 cx, WORD PTR ??_C@_0BD@FEAGGLKE@data?2se?2sap_14?4wav?$AA@+16
  007dc	66 89 8d e8 6c
	ff ff		 mov	 WORD PTR _sndconfig$[ebp+2284], cx
  007e3	8a 15 12 00 00
	00		 mov	 dl, BYTE PTR ??_C@_0BD@FEAGGLKE@data?2se?2sap_14?4wav?$AA@+18
  007e9	88 95 ea 6c ff
	ff		 mov	 BYTE PTR _sndconfig$[ebp+2286], dl
  007ef	68 b5 00 00 00	 push	 181			; 000000b5H
  007f4	6a 00		 push	 0
  007f6	8d 85 eb 6c ff
	ff		 lea	 eax, DWORD PTR _sndconfig$[ebp+2287]
  007fc	50		 push	 eax
  007fd	e8 00 00 00 00	 call	 _memset
  00802	83 c4 0c	 add	 esp, 12			; 0000000cH
  00805	c6 85 a0 6d ff
	ff 64		 mov	 BYTE PTR _sndconfig$[ebp+2468], 100 ; 00000064H
  0080c	c6 85 a1 6d ff
	ff 00		 mov	 BYTE PTR _sndconfig$[ebp+2469], 0
  00813	c6 85 a2 6d ff
	ff 00		 mov	 BYTE PTR _sndconfig$[ebp+2470], 0

; 19   : 	{   13, "data\\se\\sap_12.wav", 90, 0, 0 /*, "?????"*/ },	 	  

  0081a	b8 0d 00 00 00	 mov	 eax, 13			; 0000000dH
  0081f	66 89 85 a4 6d
	ff ff		 mov	 WORD PTR _sndconfig$[ebp+2472], ax
  00826	a1 00 00 00 00	 mov	 eax, DWORD PTR ??_C@_0BD@ICFPIILJ@data?2se?2sap_12?4wav?$AA@
  0082b	89 85 a6 6d ff
	ff		 mov	 DWORD PTR _sndconfig$[ebp+2474], eax
  00831	8b 0d 04 00 00
	00		 mov	 ecx, DWORD PTR ??_C@_0BD@ICFPIILJ@data?2se?2sap_12?4wav?$AA@+4
  00837	89 8d aa 6d ff
	ff		 mov	 DWORD PTR _sndconfig$[ebp+2478], ecx
  0083d	8b 15 08 00 00
	00		 mov	 edx, DWORD PTR ??_C@_0BD@ICFPIILJ@data?2se?2sap_12?4wav?$AA@+8
  00843	89 95 ae 6d ff
	ff		 mov	 DWORD PTR _sndconfig$[ebp+2482], edx
  00849	a1 0c 00 00 00	 mov	 eax, DWORD PTR ??_C@_0BD@ICFPIILJ@data?2se?2sap_12?4wav?$AA@+12
  0084e	89 85 b2 6d ff
	ff		 mov	 DWORD PTR _sndconfig$[ebp+2486], eax
  00854	66 8b 0d 10 00
	00 00		 mov	 cx, WORD PTR ??_C@_0BD@ICFPIILJ@data?2se?2sap_12?4wav?$AA@+16
  0085b	66 89 8d b6 6d
	ff ff		 mov	 WORD PTR _sndconfig$[ebp+2490], cx
  00862	8a 15 12 00 00
	00		 mov	 dl, BYTE PTR ??_C@_0BD@ICFPIILJ@data?2se?2sap_12?4wav?$AA@+18
  00868	88 95 b8 6d ff
	ff		 mov	 BYTE PTR _sndconfig$[ebp+2492], dl
  0086e	68 b5 00 00 00	 push	 181			; 000000b5H
  00873	6a 00		 push	 0
  00875	8d 85 b9 6d ff
	ff		 lea	 eax, DWORD PTR _sndconfig$[ebp+2493]
  0087b	50		 push	 eax
  0087c	e8 00 00 00 00	 call	 _memset
  00881	83 c4 0c	 add	 esp, 12			; 0000000cH
  00884	c6 85 6e 6e ff
	ff 5a		 mov	 BYTE PTR _sndconfig$[ebp+2674], 90 ; 0000005aH
  0088b	c6 85 6f 6e ff
	ff 00		 mov	 BYTE PTR _sndconfig$[ebp+2675], 0
  00892	c6 85 70 6e ff
	ff 00		 mov	 BYTE PTR _sndconfig$[ebp+2676], 0

; 20   : 	{   14, "data\\se\\sap_13.wav", 105, 0, 0 /*, "??????"*/ },

  00899	b8 0e 00 00 00	 mov	 eax, 14			; 0000000eH
  0089e	66 89 85 72 6e
	ff ff		 mov	 WORD PTR _sndconfig$[ebp+2678], ax
  008a5	a1 00 00 00 00	 mov	 eax, DWORD PTR ??_C@_0BD@EJADFLBM@data?2se?2sap_13?4wav?$AA@
  008aa	89 85 74 6e ff
	ff		 mov	 DWORD PTR _sndconfig$[ebp+2680], eax
  008b0	8b 0d 04 00 00
	00		 mov	 ecx, DWORD PTR ??_C@_0BD@EJADFLBM@data?2se?2sap_13?4wav?$AA@+4
  008b6	89 8d 78 6e ff
	ff		 mov	 DWORD PTR _sndconfig$[ebp+2684], ecx
  008bc	8b 15 08 00 00
	00		 mov	 edx, DWORD PTR ??_C@_0BD@EJADFLBM@data?2se?2sap_13?4wav?$AA@+8
  008c2	89 95 7c 6e ff
	ff		 mov	 DWORD PTR _sndconfig$[ebp+2688], edx
  008c8	a1 0c 00 00 00	 mov	 eax, DWORD PTR ??_C@_0BD@EJADFLBM@data?2se?2sap_13?4wav?$AA@+12
  008cd	89 85 80 6e ff
	ff		 mov	 DWORD PTR _sndconfig$[ebp+2692], eax
  008d3	66 8b 0d 10 00
	00 00		 mov	 cx, WORD PTR ??_C@_0BD@EJADFLBM@data?2se?2sap_13?4wav?$AA@+16
  008da	66 89 8d 84 6e
	ff ff		 mov	 WORD PTR _sndconfig$[ebp+2696], cx
  008e1	8a 15 12 00 00
	00		 mov	 dl, BYTE PTR ??_C@_0BD@EJADFLBM@data?2se?2sap_13?4wav?$AA@+18
  008e7	88 95 86 6e ff
	ff		 mov	 BYTE PTR _sndconfig$[ebp+2698], dl
  008ed	68 b5 00 00 00	 push	 181			; 000000b5H
  008f2	6a 00		 push	 0
  008f4	8d 85 87 6e ff
	ff		 lea	 eax, DWORD PTR _sndconfig$[ebp+2699]
  008fa	50		 push	 eax
  008fb	e8 00 00 00 00	 call	 _memset
  00900	83 c4 0c	 add	 esp, 12			; 0000000cH
  00903	c6 85 3c 6f ff
	ff 69		 mov	 BYTE PTR _sndconfig$[ebp+2880], 105 ; 00000069H
  0090a	c6 85 3d 6f ff
	ff 00		 mov	 BYTE PTR _sndconfig$[ebp+2881], 0
  00911	c6 85 3e 6f ff
	ff 00		 mov	 BYTE PTR _sndconfig$[ebp+2882], 0

; 21   : 
; 22   : 	// ?????
; 23   : 	{   51, "data\\se\\sae_01.wav", 123, 0, 0 /*, ""*/ },

  00918	b8 33 00 00 00	 mov	 eax, 51			; 00000033H
  0091d	66 89 85 40 6f
	ff ff		 mov	 WORD PTR _sndconfig$[ebp+2884], ax
  00924	a1 00 00 00 00	 mov	 eax, DWORD PTR ??_C@_0BD@EEOLPGJN@data?2se?2sae_01?4wav?$AA@
  00929	89 85 42 6f ff
	ff		 mov	 DWORD PTR _sndconfig$[ebp+2886], eax
  0092f	8b 0d 04 00 00
	00		 mov	 ecx, DWORD PTR ??_C@_0BD@EEOLPGJN@data?2se?2sae_01?4wav?$AA@+4
  00935	89 8d 46 6f ff
	ff		 mov	 DWORD PTR _sndconfig$[ebp+2890], ecx
  0093b	8b 15 08 00 00
	00		 mov	 edx, DWORD PTR ??_C@_0BD@EEOLPGJN@data?2se?2sae_01?4wav?$AA@+8
  00941	89 95 4a 6f ff
	ff		 mov	 DWORD PTR _sndconfig$[ebp+2894], edx
  00947	a1 0c 00 00 00	 mov	 eax, DWORD PTR ??_C@_0BD@EEOLPGJN@data?2se?2sae_01?4wav?$AA@+12
  0094c	89 85 4e 6f ff
	ff		 mov	 DWORD PTR _sndconfig$[ebp+2898], eax
  00952	66 8b 0d 10 00
	00 00		 mov	 cx, WORD PTR ??_C@_0BD@EEOLPGJN@data?2se?2sae_01?4wav?$AA@+16
  00959	66 89 8d 52 6f
	ff ff		 mov	 WORD PTR _sndconfig$[ebp+2902], cx
  00960	8a 15 12 00 00
	00		 mov	 dl, BYTE PTR ??_C@_0BD@EEOLPGJN@data?2se?2sae_01?4wav?$AA@+18
  00966	88 95 54 6f ff
	ff		 mov	 BYTE PTR _sndconfig$[ebp+2904], dl
  0096c	68 b5 00 00 00	 push	 181			; 000000b5H
  00971	6a 00		 push	 0
  00973	8d 85 55 6f ff
	ff		 lea	 eax, DWORD PTR _sndconfig$[ebp+2905]
  00979	50		 push	 eax
  0097a	e8 00 00 00 00	 call	 _memset
  0097f	83 c4 0c	 add	 esp, 12			; 0000000cH
  00982	c6 85 0a 70 ff
	ff 7b		 mov	 BYTE PTR _sndconfig$[ebp+3086], 123 ; 0000007bH
  00989	c6 85 0b 70 ff
	ff 00		 mov	 BYTE PTR _sndconfig$[ebp+3087], 0
  00990	c6 85 0c 70 ff
	ff 00		 mov	 BYTE PTR _sndconfig$[ebp+3088], 0

; 24   : 	{   52, "data\\se\\sae_02.wav", 123, 0, 0 /*, ""*/ },

  00997	b8 34 00 00 00	 mov	 eax, 52			; 00000034H
  0099c	66 89 85 0e 70
	ff ff		 mov	 WORD PTR _sndconfig$[ebp+3090], ax
  009a3	a1 00 00 00 00	 mov	 eax, DWORD PTR ??_C@_0BD@MCHPIEDD@data?2se?2sae_02?4wav?$AA@
  009a8	89 85 10 70 ff
	ff		 mov	 DWORD PTR _sndconfig$[ebp+3092], eax
  009ae	8b 0d 04 00 00
	00		 mov	 ecx, DWORD PTR ??_C@_0BD@MCHPIEDD@data?2se?2sae_02?4wav?$AA@+4
  009b4	89 8d 14 70 ff
	ff		 mov	 DWORD PTR _sndconfig$[ebp+3096], ecx
  009ba	8b 15 08 00 00
	00		 mov	 edx, DWORD PTR ??_C@_0BD@MCHPIEDD@data?2se?2sae_02?4wav?$AA@+8
  009c0	89 95 18 70 ff
	ff		 mov	 DWORD PTR _sndconfig$[ebp+3100], edx
  009c6	a1 0c 00 00 00	 mov	 eax, DWORD PTR ??_C@_0BD@MCHPIEDD@data?2se?2sae_02?4wav?$AA@+12
  009cb	89 85 1c 70 ff
	ff		 mov	 DWORD PTR _sndconfig$[ebp+3104], eax
  009d1	66 8b 0d 10 00
	00 00		 mov	 cx, WORD PTR ??_C@_0BD@MCHPIEDD@data?2se?2sae_02?4wav?$AA@+16
  009d8	66 89 8d 20 70
	ff ff		 mov	 WORD PTR _sndconfig$[ebp+3108], cx
  009df	8a 15 12 00 00
	00		 mov	 dl, BYTE PTR ??_C@_0BD@MCHPIEDD@data?2se?2sae_02?4wav?$AA@+18
  009e5	88 95 22 70 ff
	ff		 mov	 BYTE PTR _sndconfig$[ebp+3110], dl
  009eb	68 b5 00 00 00	 push	 181			; 000000b5H
  009f0	6a 00		 push	 0
  009f2	8d 85 23 70 ff
	ff		 lea	 eax, DWORD PTR _sndconfig$[ebp+3111]
  009f8	50		 push	 eax
  009f9	e8 00 00 00 00	 call	 _memset
  009fe	83 c4 0c	 add	 esp, 12			; 0000000cH
  00a01	c6 85 d8 70 ff
	ff 7b		 mov	 BYTE PTR _sndconfig$[ebp+3292], 123 ; 0000007bH
  00a08	c6 85 d9 70 ff
	ff 00		 mov	 BYTE PTR _sndconfig$[ebp+3293], 0
  00a0f	c6 85 da 70 ff
	ff 00		 mov	 BYTE PTR _sndconfig$[ebp+3294], 0

; 25   : 	{   53, "data\\se\\sae_03.wav", 123, 0, 0 /*, ""*/ },

  00a16	b8 35 00 00 00	 mov	 eax, 53			; 00000035H
  00a1b	66 89 85 dc 70
	ff ff		 mov	 WORD PTR _sndconfig$[ebp+3296], ax
  00a22	a1 00 00 00 00	 mov	 eax, DWORD PTR ??_C@_0BD@JCDFHJG@data?2se?2sae_03?4wav?$AA@
  00a27	89 85 de 70 ff
	ff		 mov	 DWORD PTR _sndconfig$[ebp+3298], eax
  00a2d	8b 0d 04 00 00
	00		 mov	 ecx, DWORD PTR ??_C@_0BD@JCDFHJG@data?2se?2sae_03?4wav?$AA@+4
  00a33	89 8d e2 70 ff
	ff		 mov	 DWORD PTR _sndconfig$[ebp+3302], ecx
  00a39	8b 15 08 00 00
	00		 mov	 edx, DWORD PTR ??_C@_0BD@JCDFHJG@data?2se?2sae_03?4wav?$AA@+8
  00a3f	89 95 e6 70 ff
	ff		 mov	 DWORD PTR _sndconfig$[ebp+3306], edx
  00a45	a1 0c 00 00 00	 mov	 eax, DWORD PTR ??_C@_0BD@JCDFHJG@data?2se?2sae_03?4wav?$AA@+12
  00a4a	89 85 ea 70 ff
	ff		 mov	 DWORD PTR _sndconfig$[ebp+3310], eax
  00a50	66 8b 0d 10 00
	00 00		 mov	 cx, WORD PTR ??_C@_0BD@JCDFHJG@data?2se?2sae_03?4wav?$AA@+16
  00a57	66 89 8d ee 70
	ff ff		 mov	 WORD PTR _sndconfig$[ebp+3314], cx
  00a5e	8a 15 12 00 00
	00		 mov	 dl, BYTE PTR ??_C@_0BD@JCDFHJG@data?2se?2sae_03?4wav?$AA@+18
  00a64	88 95 f0 70 ff
	ff		 mov	 BYTE PTR _sndconfig$[ebp+3316], dl
  00a6a	68 b5 00 00 00	 push	 181			; 000000b5H
  00a6f	6a 00		 push	 0
  00a71	8d 85 f1 70 ff
	ff		 lea	 eax, DWORD PTR _sndconfig$[ebp+3317]
  00a77	50		 push	 eax
  00a78	e8 00 00 00 00	 call	 _memset
  00a7d	83 c4 0c	 add	 esp, 12			; 0000000cH
  00a80	c6 85 a6 71 ff
	ff 7b		 mov	 BYTE PTR _sndconfig$[ebp+3498], 123 ; 0000007bH
  00a87	c6 85 a7 71 ff
	ff 00		 mov	 BYTE PTR _sndconfig$[ebp+3499], 0
  00a8e	c6 85 a8 71 ff
	ff 00		 mov	 BYTE PTR _sndconfig$[ebp+3500], 0

; 26   : 	{   54, "data\\se\\sae_04.wav", 123, 0, 0 /*, ""*/ },

  00a95	b8 36 00 00 00	 mov	 eax, 54			; 00000036H
  00a9a	66 89 85 aa 71
	ff ff		 mov	 WORD PTR _sndconfig$[ebp+3502], ax
  00aa1	a1 00 00 00 00	 mov	 eax, DWORD PTR ??_C@_0BD@BECGGHCO@data?2se?2sae_04?4wav?$AA@
  00aa6	89 85 ac 71 ff
	ff		 mov	 DWORD PTR _sndconfig$[ebp+3504], eax
  00aac	8b 0d 04 00 00
	00		 mov	 ecx, DWORD PTR ??_C@_0BD@BECGGHCO@data?2se?2sae_04?4wav?$AA@+4
  00ab2	89 8d b0 71 ff
	ff		 mov	 DWORD PTR _sndconfig$[ebp+3508], ecx
  00ab8	8b 15 08 00 00
	00		 mov	 edx, DWORD PTR ??_C@_0BD@BECGGHCO@data?2se?2sae_04?4wav?$AA@+8
  00abe	89 95 b4 71 ff
	ff		 mov	 DWORD PTR _sndconfig$[ebp+3512], edx
  00ac4	a1 0c 00 00 00	 mov	 eax, DWORD PTR ??_C@_0BD@BECGGHCO@data?2se?2sae_04?4wav?$AA@+12
  00ac9	89 85 b8 71 ff
	ff		 mov	 DWORD PTR _sndconfig$[ebp+3516], eax
  00acf	66 8b 0d 10 00
	00 00		 mov	 cx, WORD PTR ??_C@_0BD@BECGGHCO@data?2se?2sae_04?4wav?$AA@+16
  00ad6	66 89 8d bc 71
	ff ff		 mov	 WORD PTR _sndconfig$[ebp+3520], cx
  00add	8a 15 12 00 00
	00		 mov	 dl, BYTE PTR ??_C@_0BD@BECGGHCO@data?2se?2sae_04?4wav?$AA@+18
  00ae3	88 95 be 71 ff
	ff		 mov	 BYTE PTR _sndconfig$[ebp+3522], dl
  00ae9	68 b5 00 00 00	 push	 181			; 000000b5H
  00aee	6a 00		 push	 0
  00af0	8d 85 bf 71 ff
	ff		 lea	 eax, DWORD PTR _sndconfig$[ebp+3523]
  00af6	50		 push	 eax
  00af7	e8 00 00 00 00	 call	 _memset
  00afc	83 c4 0c	 add	 esp, 12			; 0000000cH
  00aff	c6 85 74 72 ff
	ff 7b		 mov	 BYTE PTR _sndconfig$[ebp+3704], 123 ; 0000007bH
  00b06	c6 85 75 72 ff
	ff 00		 mov	 BYTE PTR _sndconfig$[ebp+3705], 0
  00b0d	c6 85 76 72 ff
	ff 00		 mov	 BYTE PTR _sndconfig$[ebp+3706], 0

; 27   : 	{   55, "data\\se\\sae_05.wav", 123, 0, 0 /*, ""*/ },

  00b14	b8 37 00 00 00	 mov	 eax, 55			; 00000037H
  00b19	66 89 85 78 72
	ff ff		 mov	 WORD PTR _sndconfig$[ebp+3708], ax
  00b20	a1 00 00 00 00	 mov	 eax, DWORD PTR ??_C@_0BD@NPHKLEIL@data?2se?2sae_05?4wav?$AA@
  00b25	89 85 7a 72 ff
	ff		 mov	 DWORD PTR _sndconfig$[ebp+3710], eax
  00b2b	8b 0d 04 00 00
	00		 mov	 ecx, DWORD PTR ??_C@_0BD@NPHKLEIL@data?2se?2sae_05?4wav?$AA@+4
  00b31	89 8d 7e 72 ff
	ff		 mov	 DWORD PTR _sndconfig$[ebp+3714], ecx
  00b37	8b 15 08 00 00
	00		 mov	 edx, DWORD PTR ??_C@_0BD@NPHKLEIL@data?2se?2sae_05?4wav?$AA@+8
  00b3d	89 95 82 72 ff
	ff		 mov	 DWORD PTR _sndconfig$[ebp+3718], edx
  00b43	a1 0c 00 00 00	 mov	 eax, DWORD PTR ??_C@_0BD@NPHKLEIL@data?2se?2sae_05?4wav?$AA@+12
  00b48	89 85 86 72 ff
	ff		 mov	 DWORD PTR _sndconfig$[ebp+3722], eax
  00b4e	66 8b 0d 10 00
	00 00		 mov	 cx, WORD PTR ??_C@_0BD@NPHKLEIL@data?2se?2sae_05?4wav?$AA@+16
  00b55	66 89 8d 8a 72
	ff ff		 mov	 WORD PTR _sndconfig$[ebp+3726], cx
  00b5c	8a 15 12 00 00
	00		 mov	 dl, BYTE PTR ??_C@_0BD@NPHKLEIL@data?2se?2sae_05?4wav?$AA@+18
  00b62	88 95 8c 72 ff
	ff		 mov	 BYTE PTR _sndconfig$[ebp+3728], dl
  00b68	68 b5 00 00 00	 push	 181			; 000000b5H
  00b6d	6a 00		 push	 0
  00b6f	8d 85 8d 72 ff
	ff		 lea	 eax, DWORD PTR _sndconfig$[ebp+3729]
  00b75	50		 push	 eax
  00b76	e8 00 00 00 00	 call	 _memset
  00b7b	83 c4 0c	 add	 esp, 12			; 0000000cH
  00b7e	c6 85 42 73 ff
	ff 7b		 mov	 BYTE PTR _sndconfig$[ebp+3910], 123 ; 0000007bH
  00b85	c6 85 43 73 ff
	ff 00		 mov	 BYTE PTR _sndconfig$[ebp+3911], 0
  00b8c	c6 85 44 73 ff
	ff 00		 mov	 BYTE PTR _sndconfig$[ebp+3912], 0

; 28   : 	{   56, "data\\se\\sae_06.wav", 105, 0, 0 /*, "?????"*/ },

  00b93	b8 38 00 00 00	 mov	 eax, 56			; 00000038H
  00b98	66 89 85 46 73
	ff ff		 mov	 WORD PTR _sndconfig$[ebp+3914], ax
  00b9f	a1 00 00 00 00	 mov	 eax, DWORD PTR ??_C@_0BD@FJOOMGCF@data?2se?2sae_06?4wav?$AA@
  00ba4	89 85 48 73 ff
	ff		 mov	 DWORD PTR _sndconfig$[ebp+3916], eax
  00baa	8b 0d 04 00 00
	00		 mov	 ecx, DWORD PTR ??_C@_0BD@FJOOMGCF@data?2se?2sae_06?4wav?$AA@+4
  00bb0	89 8d 4c 73 ff
	ff		 mov	 DWORD PTR _sndconfig$[ebp+3920], ecx
  00bb6	8b 15 08 00 00
	00		 mov	 edx, DWORD PTR ??_C@_0BD@FJOOMGCF@data?2se?2sae_06?4wav?$AA@+8
  00bbc	89 95 50 73 ff
	ff		 mov	 DWORD PTR _sndconfig$[ebp+3924], edx
  00bc2	a1 0c 00 00 00	 mov	 eax, DWORD PTR ??_C@_0BD@FJOOMGCF@data?2se?2sae_06?4wav?$AA@+12
  00bc7	89 85 54 73 ff
	ff		 mov	 DWORD PTR _sndconfig$[ebp+3928], eax
  00bcd	66 8b 0d 10 00
	00 00		 mov	 cx, WORD PTR ??_C@_0BD@FJOOMGCF@data?2se?2sae_06?4wav?$AA@+16
  00bd4	66 89 8d 58 73
	ff ff		 mov	 WORD PTR _sndconfig$[ebp+3932], cx
  00bdb	8a 15 12 00 00
	00		 mov	 dl, BYTE PTR ??_C@_0BD@FJOOMGCF@data?2se?2sae_06?4wav?$AA@+18
  00be1	88 95 5a 73 ff
	ff		 mov	 BYTE PTR _sndconfig$[ebp+3934], dl
  00be7	68 b5 00 00 00	 push	 181			; 000000b5H
  00bec	6a 00		 push	 0
  00bee	8d 85 5b 73 ff
	ff		 lea	 eax, DWORD PTR _sndconfig$[ebp+3935]
  00bf4	50		 push	 eax
  00bf5	e8 00 00 00 00	 call	 _memset
  00bfa	83 c4 0c	 add	 esp, 12			; 0000000cH
  00bfd	c6 85 10 74 ff
	ff 69		 mov	 BYTE PTR _sndconfig$[ebp+4116], 105 ; 00000069H
  00c04	c6 85 11 74 ff
	ff 00		 mov	 BYTE PTR _sndconfig$[ebp+4117], 0
  00c0b	c6 85 12 74 ff
	ff 00		 mov	 BYTE PTR _sndconfig$[ebp+4118], 0

; 29   : 	{   57, "data\\se\\sae_07.wav", 80, 0, 0 /*, "???????"*/ },

  00c12	b8 39 00 00 00	 mov	 eax, 57			; 00000039H
  00c17	66 89 85 14 74
	ff ff		 mov	 WORD PTR _sndconfig$[ebp+4120], ax
  00c1e	a1 00 00 00 00	 mov	 eax, DWORD PTR ??_C@_0BD@JCLCBFIA@data?2se?2sae_07?4wav?$AA@
  00c23	89 85 16 74 ff
	ff		 mov	 DWORD PTR _sndconfig$[ebp+4122], eax
  00c29	8b 0d 04 00 00
	00		 mov	 ecx, DWORD PTR ??_C@_0BD@JCLCBFIA@data?2se?2sae_07?4wav?$AA@+4
  00c2f	89 8d 1a 74 ff
	ff		 mov	 DWORD PTR _sndconfig$[ebp+4126], ecx
  00c35	8b 15 08 00 00
	00		 mov	 edx, DWORD PTR ??_C@_0BD@JCLCBFIA@data?2se?2sae_07?4wav?$AA@+8
  00c3b	89 95 1e 74 ff
	ff		 mov	 DWORD PTR _sndconfig$[ebp+4130], edx
  00c41	a1 0c 00 00 00	 mov	 eax, DWORD PTR ??_C@_0BD@JCLCBFIA@data?2se?2sae_07?4wav?$AA@+12
  00c46	89 85 22 74 ff
	ff		 mov	 DWORD PTR _sndconfig$[ebp+4134], eax
  00c4c	66 8b 0d 10 00
	00 00		 mov	 cx, WORD PTR ??_C@_0BD@JCLCBFIA@data?2se?2sae_07?4wav?$AA@+16
  00c53	66 89 8d 26 74
	ff ff		 mov	 WORD PTR _sndconfig$[ebp+4138], cx
  00c5a	8a 15 12 00 00
	00		 mov	 dl, BYTE PTR ??_C@_0BD@JCLCBFIA@data?2se?2sae_07?4wav?$AA@+18
  00c60	88 95 28 74 ff
	ff		 mov	 BYTE PTR _sndconfig$[ebp+4140], dl
  00c66	68 b5 00 00 00	 push	 181			; 000000b5H
  00c6b	6a 00		 push	 0
  00c6d	8d 85 29 74 ff
	ff		 lea	 eax, DWORD PTR _sndconfig$[ebp+4141]
  00c73	50		 push	 eax
  00c74	e8 00 00 00 00	 call	 _memset
  00c79	83 c4 0c	 add	 esp, 12			; 0000000cH
  00c7c	c6 85 de 74 ff
	ff 50		 mov	 BYTE PTR _sndconfig$[ebp+4322], 80 ; 00000050H
  00c83	c6 85 df 74 ff
	ff 00		 mov	 BYTE PTR _sndconfig$[ebp+4323], 0
  00c8a	c6 85 e0 74 ff
	ff 00		 mov	 BYTE PTR _sndconfig$[ebp+4324], 0

; 30   : 	{   58, "data\\se\\sae_08.wav", 123, 0, 0 /*, ""*/ },

  00c91	b8 3a 00 00 00	 mov	 eax, 58			; 0000003aH
  00c96	66 89 85 e2 74
	ff ff		 mov	 WORD PTR _sndconfig$[ebp+4326], ax
  00c9d	a1 00 00 00 00	 mov	 eax, DWORD PTR ??_C@_0BD@GDOEKHFF@data?2se?2sae_08?4wav?$AA@
  00ca2	89 85 e4 74 ff
	ff		 mov	 DWORD PTR _sndconfig$[ebp+4328], eax
  00ca8	8b 0d 04 00 00
	00		 mov	 ecx, DWORD PTR ??_C@_0BD@GDOEKHFF@data?2se?2sae_08?4wav?$AA@+4
  00cae	89 8d e8 74 ff
	ff		 mov	 DWORD PTR _sndconfig$[ebp+4332], ecx
  00cb4	8b 15 08 00 00
	00		 mov	 edx, DWORD PTR ??_C@_0BD@GDOEKHFF@data?2se?2sae_08?4wav?$AA@+8
  00cba	89 95 ec 74 ff
	ff		 mov	 DWORD PTR _sndconfig$[ebp+4336], edx
  00cc0	a1 0c 00 00 00	 mov	 eax, DWORD PTR ??_C@_0BD@GDOEKHFF@data?2se?2sae_08?4wav?$AA@+12
  00cc5	89 85 f0 74 ff
	ff		 mov	 DWORD PTR _sndconfig$[ebp+4340], eax
  00ccb	66 8b 0d 10 00
	00 00		 mov	 cx, WORD PTR ??_C@_0BD@GDOEKHFF@data?2se?2sae_08?4wav?$AA@+16
  00cd2	66 89 8d f4 74
	ff ff		 mov	 WORD PTR _sndconfig$[ebp+4344], cx
  00cd9	8a 15 12 00 00
	00		 mov	 dl, BYTE PTR ??_C@_0BD@GDOEKHFF@data?2se?2sae_08?4wav?$AA@+18
  00cdf	88 95 f6 74 ff
	ff		 mov	 BYTE PTR _sndconfig$[ebp+4346], dl
  00ce5	68 b5 00 00 00	 push	 181			; 000000b5H
  00cea	6a 00		 push	 0
  00cec	8d 85 f7 74 ff
	ff		 lea	 eax, DWORD PTR _sndconfig$[ebp+4347]
  00cf2	50		 push	 eax
  00cf3	e8 00 00 00 00	 call	 _memset
  00cf8	83 c4 0c	 add	 esp, 12			; 0000000cH
  00cfb	c6 85 ac 75 ff
	ff 7b		 mov	 BYTE PTR _sndconfig$[ebp+4528], 123 ; 0000007bH
  00d02	c6 85 ad 75 ff
	ff 00		 mov	 BYTE PTR _sndconfig$[ebp+4529], 0
  00d09	c6 85 ae 75 ff
	ff 00		 mov	 BYTE PTR _sndconfig$[ebp+4530], 0

; 31   : 	{   59, "data\\se\\sae_09.wav", 123, 0, 0 /*, ""*/ },

  00d10	b8 3b 00 00 00	 mov	 eax, 59			; 0000003bH
  00d15	66 89 85 b0 75
	ff ff		 mov	 WORD PTR _sndconfig$[ebp+4532], ax
  00d1c	a1 00 00 00 00	 mov	 eax, DWORD PTR ??_C@_0BD@KILIHEPA@data?2se?2sae_09?4wav?$AA@
  00d21	89 85 b2 75 ff
	ff		 mov	 DWORD PTR _sndconfig$[ebp+4534], eax
  00d27	8b 0d 04 00 00
	00		 mov	 ecx, DWORD PTR ??_C@_0BD@KILIHEPA@data?2se?2sae_09?4wav?$AA@+4
  00d2d	89 8d b6 75 ff
	ff		 mov	 DWORD PTR _sndconfig$[ebp+4538], ecx
  00d33	8b 15 08 00 00
	00		 mov	 edx, DWORD PTR ??_C@_0BD@KILIHEPA@data?2se?2sae_09?4wav?$AA@+8
  00d39	89 95 ba 75 ff
	ff		 mov	 DWORD PTR _sndconfig$[ebp+4542], edx
  00d3f	a1 0c 00 00 00	 mov	 eax, DWORD PTR ??_C@_0BD@KILIHEPA@data?2se?2sae_09?4wav?$AA@+12
  00d44	89 85 be 75 ff
	ff		 mov	 DWORD PTR _sndconfig$[ebp+4546], eax
  00d4a	66 8b 0d 10 00
	00 00		 mov	 cx, WORD PTR ??_C@_0BD@KILIHEPA@data?2se?2sae_09?4wav?$AA@+16
  00d51	66 89 8d c2 75
	ff ff		 mov	 WORD PTR _sndconfig$[ebp+4550], cx
  00d58	8a 15 12 00 00
	00		 mov	 dl, BYTE PTR ??_C@_0BD@KILIHEPA@data?2se?2sae_09?4wav?$AA@+18
  00d5e	88 95 c4 75 ff
	ff		 mov	 BYTE PTR _sndconfig$[ebp+4552], dl
  00d64	68 b5 00 00 00	 push	 181			; 000000b5H
  00d69	6a 00		 push	 0
  00d6b	8d 85 c5 75 ff
	ff		 lea	 eax, DWORD PTR _sndconfig$[ebp+4553]
  00d71	50		 push	 eax
  00d72	e8 00 00 00 00	 call	 _memset
  00d77	83 c4 0c	 add	 esp, 12			; 0000000cH
  00d7a	c6 85 7a 76 ff
	ff 7b		 mov	 BYTE PTR _sndconfig$[ebp+4734], 123 ; 0000007bH
  00d81	c6 85 7b 76 ff
	ff 00		 mov	 BYTE PTR _sndconfig$[ebp+4735], 0
  00d88	c6 85 7c 76 ff
	ff 00		 mov	 BYTE PTR _sndconfig$[ebp+4736], 0

; 32   : 	{   60, "data\\se\\sae_10.wav", 80, 0, 0 /*, "????"*/ },

  00d8f	b8 3c 00 00 00	 mov	 eax, 60			; 0000003cH
  00d94	66 89 85 7e 76
	ff ff		 mov	 WORD PTR _sndconfig$[ebp+4738], ax
  00d9b	a1 00 00 00 00	 mov	 eax, DWORD PTR ??_C@_0BD@CJMACOIM@data?2se?2sae_10?4wav?$AA@
  00da0	89 85 80 76 ff
	ff		 mov	 DWORD PTR _sndconfig$[ebp+4740], eax
  00da6	8b 0d 04 00 00
	00		 mov	 ecx, DWORD PTR ??_C@_0BD@CJMACOIM@data?2se?2sae_10?4wav?$AA@+4
  00dac	89 8d 84 76 ff
	ff		 mov	 DWORD PTR _sndconfig$[ebp+4744], ecx
  00db2	8b 15 08 00 00
	00		 mov	 edx, DWORD PTR ??_C@_0BD@CJMACOIM@data?2se?2sae_10?4wav?$AA@+8
  00db8	89 95 88 76 ff
	ff		 mov	 DWORD PTR _sndconfig$[ebp+4748], edx
  00dbe	a1 0c 00 00 00	 mov	 eax, DWORD PTR ??_C@_0BD@CJMACOIM@data?2se?2sae_10?4wav?$AA@+12
  00dc3	89 85 8c 76 ff
	ff		 mov	 DWORD PTR _sndconfig$[ebp+4752], eax
  00dc9	66 8b 0d 10 00
	00 00		 mov	 cx, WORD PTR ??_C@_0BD@CJMACOIM@data?2se?2sae_10?4wav?$AA@+16
  00dd0	66 89 8d 90 76
	ff ff		 mov	 WORD PTR _sndconfig$[ebp+4756], cx
  00dd7	8a 15 12 00 00
	00		 mov	 dl, BYTE PTR ??_C@_0BD@CJMACOIM@data?2se?2sae_10?4wav?$AA@+18
  00ddd	88 95 92 76 ff
	ff		 mov	 BYTE PTR _sndconfig$[ebp+4758], dl
  00de3	68 b5 00 00 00	 push	 181			; 000000b5H
  00de8	6a 00		 push	 0
  00dea	8d 85 93 76 ff
	ff		 lea	 eax, DWORD PTR _sndconfig$[ebp+4759]
  00df0	50		 push	 eax
  00df1	e8 00 00 00 00	 call	 _memset
  00df6	83 c4 0c	 add	 esp, 12			; 0000000cH
  00df9	c6 85 48 77 ff
	ff 50		 mov	 BYTE PTR _sndconfig$[ebp+4940], 80 ; 00000050H
  00e00	c6 85 49 77 ff
	ff 00		 mov	 BYTE PTR _sndconfig$[ebp+4941], 0
  00e07	c6 85 4a 77 ff
	ff 00		 mov	 BYTE PTR _sndconfig$[ebp+4942], 0

; 33   : 	{   61, "data\\se\\sae_11.wav", 123, 0, 0 /*, ""*/ },

  00e0e	b8 3d 00 00 00	 mov	 eax, 61			; 0000003dH
  00e13	66 89 85 4c 77
	ff ff		 mov	 WORD PTR _sndconfig$[ebp+4944], ax
  00e1a	a1 00 00 00 00	 mov	 eax, DWORD PTR ??_C@_0BD@OCJMPNCJ@data?2se?2sae_11?4wav?$AA@
  00e1f	89 85 4e 77 ff
	ff		 mov	 DWORD PTR _sndconfig$[ebp+4946], eax
  00e25	8b 0d 04 00 00
	00		 mov	 ecx, DWORD PTR ??_C@_0BD@OCJMPNCJ@data?2se?2sae_11?4wav?$AA@+4
  00e2b	89 8d 52 77 ff
	ff		 mov	 DWORD PTR _sndconfig$[ebp+4950], ecx
  00e31	8b 15 08 00 00
	00		 mov	 edx, DWORD PTR ??_C@_0BD@OCJMPNCJ@data?2se?2sae_11?4wav?$AA@+8
  00e37	89 95 56 77 ff
	ff		 mov	 DWORD PTR _sndconfig$[ebp+4954], edx
  00e3d	a1 0c 00 00 00	 mov	 eax, DWORD PTR ??_C@_0BD@OCJMPNCJ@data?2se?2sae_11?4wav?$AA@+12
  00e42	89 85 5a 77 ff
	ff		 mov	 DWORD PTR _sndconfig$[ebp+4958], eax
  00e48	66 8b 0d 10 00
	00 00		 mov	 cx, WORD PTR ??_C@_0BD@OCJMPNCJ@data?2se?2sae_11?4wav?$AA@+16
  00e4f	66 89 8d 5e 77
	ff ff		 mov	 WORD PTR _sndconfig$[ebp+4962], cx
  00e56	8a 15 12 00 00
	00		 mov	 dl, BYTE PTR ??_C@_0BD@OCJMPNCJ@data?2se?2sae_11?4wav?$AA@+18
  00e5c	88 95 60 77 ff
	ff		 mov	 BYTE PTR _sndconfig$[ebp+4964], dl
  00e62	68 b5 00 00 00	 push	 181			; 000000b5H
  00e67	6a 00		 push	 0
  00e69	8d 85 61 77 ff
	ff		 lea	 eax, DWORD PTR _sndconfig$[ebp+4965]
  00e6f	50		 push	 eax
  00e70	e8 00 00 00 00	 call	 _memset
  00e75	83 c4 0c	 add	 esp, 12			; 0000000cH
  00e78	c6 85 16 78 ff
	ff 7b		 mov	 BYTE PTR _sndconfig$[ebp+5146], 123 ; 0000007bH
  00e7f	c6 85 17 78 ff
	ff 00		 mov	 BYTE PTR _sndconfig$[ebp+5147], 0
  00e86	c6 85 18 78 ff
	ff 00		 mov	 BYTE PTR _sndconfig$[ebp+5148], 0

; 34   : 	{   62, "data\\se\\sae_12.wav", 95, 0, 0 /*, "????"*/ },

  00e8d	b8 3e 00 00 00	 mov	 eax, 62			; 0000003eH
  00e92	66 89 85 1a 78
	ff ff		 mov	 WORD PTR _sndconfig$[ebp+5150], ax
  00e99	a1 00 00 00 00	 mov	 eax, DWORD PTR ??_C@_0BD@GEAIIPIH@data?2se?2sae_12?4wav?$AA@
  00e9e	89 85 1c 78 ff
	ff		 mov	 DWORD PTR _sndconfig$[ebp+5152], eax
  00ea4	8b 0d 04 00 00
	00		 mov	 ecx, DWORD PTR ??_C@_0BD@GEAIIPIH@data?2se?2sae_12?4wav?$AA@+4
  00eaa	89 8d 20 78 ff
	ff		 mov	 DWORD PTR _sndconfig$[ebp+5156], ecx
  00eb0	8b 15 08 00 00
	00		 mov	 edx, DWORD PTR ??_C@_0BD@GEAIIPIH@data?2se?2sae_12?4wav?$AA@+8
  00eb6	89 95 24 78 ff
	ff		 mov	 DWORD PTR _sndconfig$[ebp+5160], edx
  00ebc	a1 0c 00 00 00	 mov	 eax, DWORD PTR ??_C@_0BD@GEAIIPIH@data?2se?2sae_12?4wav?$AA@+12
  00ec1	89 85 28 78 ff
	ff		 mov	 DWORD PTR _sndconfig$[ebp+5164], eax
  00ec7	66 8b 0d 10 00
	00 00		 mov	 cx, WORD PTR ??_C@_0BD@GEAIIPIH@data?2se?2sae_12?4wav?$AA@+16
  00ece	66 89 8d 2c 78
	ff ff		 mov	 WORD PTR _sndconfig$[ebp+5168], cx
  00ed5	8a 15 12 00 00
	00		 mov	 dl, BYTE PTR ??_C@_0BD@GEAIIPIH@data?2se?2sae_12?4wav?$AA@+18
  00edb	88 95 2e 78 ff
	ff		 mov	 BYTE PTR _sndconfig$[ebp+5170], dl
  00ee1	68 b5 00 00 00	 push	 181			; 000000b5H
  00ee6	6a 00		 push	 0
  00ee8	8d 85 2f 78 ff
	ff		 lea	 eax, DWORD PTR _sndconfig$[ebp+5171]
  00eee	50		 push	 eax
  00eef	e8 00 00 00 00	 call	 _memset
  00ef4	83 c4 0c	 add	 esp, 12			; 0000000cH
  00ef7	c6 85 e4 78 ff
	ff 5f		 mov	 BYTE PTR _sndconfig$[ebp+5352], 95 ; 0000005fH
  00efe	c6 85 e5 78 ff
	ff 00		 mov	 BYTE PTR _sndconfig$[ebp+5353], 0
  00f05	c6 85 e6 78 ff
	ff 00		 mov	 BYTE PTR _sndconfig$[ebp+5354], 0

; 35   : 	{   63, "data\\se\\sae_13.wav", 80, 0, 0 /*, "?????"*/ },

  00f0c	b8 3f 00 00 00	 mov	 eax, 63			; 0000003fH
  00f11	66 89 85 e8 78
	ff ff		 mov	 WORD PTR _sndconfig$[ebp+5356], ax
  00f18	a1 00 00 00 00	 mov	 eax, DWORD PTR ??_C@_0BD@KPFEFMCC@data?2se?2sae_13?4wav?$AA@
  00f1d	89 85 ea 78 ff
	ff		 mov	 DWORD PTR _sndconfig$[ebp+5358], eax
  00f23	8b 0d 04 00 00
	00		 mov	 ecx, DWORD PTR ??_C@_0BD@KPFEFMCC@data?2se?2sae_13?4wav?$AA@+4
  00f29	89 8d ee 78 ff
	ff		 mov	 DWORD PTR _sndconfig$[ebp+5362], ecx
  00f2f	8b 15 08 00 00
	00		 mov	 edx, DWORD PTR ??_C@_0BD@KPFEFMCC@data?2se?2sae_13?4wav?$AA@+8
  00f35	89 95 f2 78 ff
	ff		 mov	 DWORD PTR _sndconfig$[ebp+5366], edx
  00f3b	a1 0c 00 00 00	 mov	 eax, DWORD PTR ??_C@_0BD@KPFEFMCC@data?2se?2sae_13?4wav?$AA@+12
  00f40	89 85 f6 78 ff
	ff		 mov	 DWORD PTR _sndconfig$[ebp+5370], eax
  00f46	66 8b 0d 10 00
	00 00		 mov	 cx, WORD PTR ??_C@_0BD@KPFEFMCC@data?2se?2sae_13?4wav?$AA@+16
  00f4d	66 89 8d fa 78
	ff ff		 mov	 WORD PTR _sndconfig$[ebp+5374], cx
  00f54	8a 15 12 00 00
	00		 mov	 dl, BYTE PTR ??_C@_0BD@KPFEFMCC@data?2se?2sae_13?4wav?$AA@+18
  00f5a	88 95 fc 78 ff
	ff		 mov	 BYTE PTR _sndconfig$[ebp+5376], dl
  00f60	68 b5 00 00 00	 push	 181			; 000000b5H
  00f65	6a 00		 push	 0
  00f67	8d 85 fd 78 ff
	ff		 lea	 eax, DWORD PTR _sndconfig$[ebp+5377]
  00f6d	50		 push	 eax
  00f6e	e8 00 00 00 00	 call	 _memset
  00f73	83 c4 0c	 add	 esp, 12			; 0000000cH
  00f76	c6 85 b2 79 ff
	ff 50		 mov	 BYTE PTR _sndconfig$[ebp+5558], 80 ; 00000050H
  00f7d	c6 85 b3 79 ff
	ff 00		 mov	 BYTE PTR _sndconfig$[ebp+5559], 0
  00f84	c6 85 b4 79 ff
	ff 00		 mov	 BYTE PTR _sndconfig$[ebp+5560], 0

; 36   : 	{   64, "data\\se\\sae_14.wav", 90, 0, 0 /*, "???"*/ },

  00f8b	b8 40 00 00 00	 mov	 eax, 64			; 00000040H
  00f90	66 89 85 b6 79
	ff ff		 mov	 WORD PTR _sndconfig$[ebp+5562], ax
  00f97	a1 00 00 00 00	 mov	 eax, DWORD PTR ??_C@_0BD@LCFBGMJK@data?2se?2sae_14?4wav?$AA@
  00f9c	89 85 b8 79 ff
	ff		 mov	 DWORD PTR _sndconfig$[ebp+5564], eax
  00fa2	8b 0d 04 00 00
	00		 mov	 ecx, DWORD PTR ??_C@_0BD@LCFBGMJK@data?2se?2sae_14?4wav?$AA@+4
  00fa8	89 8d bc 79 ff
	ff		 mov	 DWORD PTR _sndconfig$[ebp+5568], ecx
  00fae	8b 15 08 00 00
	00		 mov	 edx, DWORD PTR ??_C@_0BD@LCFBGMJK@data?2se?2sae_14?4wav?$AA@+8
  00fb4	89 95 c0 79 ff
	ff		 mov	 DWORD PTR _sndconfig$[ebp+5572], edx
  00fba	a1 0c 00 00 00	 mov	 eax, DWORD PTR ??_C@_0BD@LCFBGMJK@data?2se?2sae_14?4wav?$AA@+12
  00fbf	89 85 c4 79 ff
	ff		 mov	 DWORD PTR _sndconfig$[ebp+5576], eax
  00fc5	66 8b 0d 10 00
	00 00		 mov	 cx, WORD PTR ??_C@_0BD@LCFBGMJK@data?2se?2sae_14?4wav?$AA@+16
  00fcc	66 89 8d c8 79
	ff ff		 mov	 WORD PTR _sndconfig$[ebp+5580], cx
  00fd3	8a 15 12 00 00
	00		 mov	 dl, BYTE PTR ??_C@_0BD@LCFBGMJK@data?2se?2sae_14?4wav?$AA@+18
  00fd9	88 95 ca 79 ff
	ff		 mov	 BYTE PTR _sndconfig$[ebp+5582], dl
  00fdf	68 b5 00 00 00	 push	 181			; 000000b5H
  00fe4	6a 00		 push	 0
  00fe6	8d 85 cb 79 ff
	ff		 lea	 eax, DWORD PTR _sndconfig$[ebp+5583]
  00fec	50		 push	 eax
  00fed	e8 00 00 00 00	 call	 _memset
  00ff2	83 c4 0c	 add	 esp, 12			; 0000000cH
  00ff5	c6 85 80 7a ff
	ff 5a		 mov	 BYTE PTR _sndconfig$[ebp+5764], 90 ; 0000005aH
  00ffc	c6 85 81 7a ff
	ff 00		 mov	 BYTE PTR _sndconfig$[ebp+5765], 0
  01003	c6 85 82 7a ff
	ff 00		 mov	 BYTE PTR _sndconfig$[ebp+5766], 0

; 37   : 	{   65, "data\\se\\sae_15.wav", 95, 0, 0 /*, "?????"*/ },

  0100a	b8 41 00 00 00	 mov	 eax, 65			; 00000041H
  0100f	66 89 85 84 7a
	ff ff		 mov	 WORD PTR _sndconfig$[ebp+5768], ax
  01016	a1 00 00 00 00	 mov	 eax, DWORD PTR ??_C@_0BD@HJANLPDP@data?2se?2sae_15?4wav?$AA@
  0101b	89 85 86 7a ff
	ff		 mov	 DWORD PTR _sndconfig$[ebp+5770], eax
  01021	8b 0d 04 00 00
	00		 mov	 ecx, DWORD PTR ??_C@_0BD@HJANLPDP@data?2se?2sae_15?4wav?$AA@+4
  01027	89 8d 8a 7a ff
	ff		 mov	 DWORD PTR _sndconfig$[ebp+5774], ecx
  0102d	8b 15 08 00 00
	00		 mov	 edx, DWORD PTR ??_C@_0BD@HJANLPDP@data?2se?2sae_15?4wav?$AA@+8
  01033	89 95 8e 7a ff
	ff		 mov	 DWORD PTR _sndconfig$[ebp+5778], edx
  01039	a1 0c 00 00 00	 mov	 eax, DWORD PTR ??_C@_0BD@HJANLPDP@data?2se?2sae_15?4wav?$AA@+12
  0103e	89 85 92 7a ff
	ff		 mov	 DWORD PTR _sndconfig$[ebp+5782], eax
  01044	66 8b 0d 10 00
	00 00		 mov	 cx, WORD PTR ??_C@_0BD@HJANLPDP@data?2se?2sae_15?4wav?$AA@+16
  0104b	66 89 8d 96 7a
	ff ff		 mov	 WORD PTR _sndconfig$[ebp+5786], cx
  01052	8a 15 12 00 00
	00		 mov	 dl, BYTE PTR ??_C@_0BD@HJANLPDP@data?2se?2sae_15?4wav?$AA@+18
  01058	88 95 98 7a ff
	ff		 mov	 BYTE PTR _sndconfig$[ebp+5788], dl
  0105e	68 b5 00 00 00	 push	 181			; 000000b5H
  01063	6a 00		 push	 0
  01065	8d 85 99 7a ff
	ff		 lea	 eax, DWORD PTR _sndconfig$[ebp+5789]
  0106b	50		 push	 eax
  0106c	e8 00 00 00 00	 call	 _memset
  01071	83 c4 0c	 add	 esp, 12			; 0000000cH
  01074	c6 85 4e 7b ff
	ff 5f		 mov	 BYTE PTR _sndconfig$[ebp+5970], 95 ; 0000005fH
  0107b	c6 85 4f 7b ff
	ff 00		 mov	 BYTE PTR _sndconfig$[ebp+5971], 0
  01082	c6 85 50 7b ff
	ff 00		 mov	 BYTE PTR _sndconfig$[ebp+5972], 0

; 38   : 	{   66, "data\\se\\sae_16.wav", 95, 0, 0 /*, "???"*/ },

  01089	b8 42 00 00 00	 mov	 eax, 66			; 00000042H
  0108e	66 89 85 52 7b
	ff ff		 mov	 WORD PTR _sndconfig$[ebp+5974], ax
  01095	a1 00 00 00 00	 mov	 eax, DWORD PTR ??_C@_0BD@PPJJMNJB@data?2se?2sae_16?4wav?$AA@
  0109a	89 85 54 7b ff
	ff		 mov	 DWORD PTR _sndconfig$[ebp+5976], eax
  010a0	8b 0d 04 00 00
	00		 mov	 ecx, DWORD PTR ??_C@_0BD@PPJJMNJB@data?2se?2sae_16?4wav?$AA@+4
  010a6	89 8d 58 7b ff
	ff		 mov	 DWORD PTR _sndconfig$[ebp+5980], ecx
  010ac	8b 15 08 00 00
	00		 mov	 edx, DWORD PTR ??_C@_0BD@PPJJMNJB@data?2se?2sae_16?4wav?$AA@+8
  010b2	89 95 5c 7b ff
	ff		 mov	 DWORD PTR _sndconfig$[ebp+5984], edx
  010b8	a1 0c 00 00 00	 mov	 eax, DWORD PTR ??_C@_0BD@PPJJMNJB@data?2se?2sae_16?4wav?$AA@+12
  010bd	89 85 60 7b ff
	ff		 mov	 DWORD PTR _sndconfig$[ebp+5988], eax
  010c3	66 8b 0d 10 00
	00 00		 mov	 cx, WORD PTR ??_C@_0BD@PPJJMNJB@data?2se?2sae_16?4wav?$AA@+16
  010ca	66 89 8d 64 7b
	ff ff		 mov	 WORD PTR _sndconfig$[ebp+5992], cx
  010d1	8a 15 12 00 00
	00		 mov	 dl, BYTE PTR ??_C@_0BD@PPJJMNJB@data?2se?2sae_16?4wav?$AA@+18
  010d7	88 95 66 7b ff
	ff		 mov	 BYTE PTR _sndconfig$[ebp+5994], dl
  010dd	68 b5 00 00 00	 push	 181			; 000000b5H
  010e2	6a 00		 push	 0
  010e4	8d 85 67 7b ff
	ff		 lea	 eax, DWORD PTR _sndconfig$[ebp+5995]
  010ea	50		 push	 eax
  010eb	e8 00 00 00 00	 call	 _memset
  010f0	83 c4 0c	 add	 esp, 12			; 0000000cH
  010f3	c6 85 1c 7c ff
	ff 5f		 mov	 BYTE PTR _sndconfig$[ebp+6176], 95 ; 0000005fH
  010fa	c6 85 1d 7c ff
	ff 00		 mov	 BYTE PTR _sndconfig$[ebp+6177], 0
  01101	c6 85 1e 7c ff
	ff 00		 mov	 BYTE PTR _sndconfig$[ebp+6178], 0

; 39   : 	{   67, "data\\se\\sae_17.wav", 123, 0, 0 /*, ""*/ },

  01108	b8 43 00 00 00	 mov	 eax, 67			; 00000043H
  0110d	66 89 85 20 7c
	ff ff		 mov	 WORD PTR _sndconfig$[ebp+6180], ax
  01114	a1 00 00 00 00	 mov	 eax, DWORD PTR ??_C@_0BD@DEMFBODE@data?2se?2sae_17?4wav?$AA@
  01119	89 85 22 7c ff
	ff		 mov	 DWORD PTR _sndconfig$[ebp+6182], eax
  0111f	8b 0d 04 00 00
	00		 mov	 ecx, DWORD PTR ??_C@_0BD@DEMFBODE@data?2se?2sae_17?4wav?$AA@+4
  01125	89 8d 26 7c ff
	ff		 mov	 DWORD PTR _sndconfig$[ebp+6186], ecx
  0112b	8b 15 08 00 00
	00		 mov	 edx, DWORD PTR ??_C@_0BD@DEMFBODE@data?2se?2sae_17?4wav?$AA@+8
  01131	89 95 2a 7c ff
	ff		 mov	 DWORD PTR _sndconfig$[ebp+6190], edx
  01137	a1 0c 00 00 00	 mov	 eax, DWORD PTR ??_C@_0BD@DEMFBODE@data?2se?2sae_17?4wav?$AA@+12
  0113c	89 85 2e 7c ff
	ff		 mov	 DWORD PTR _sndconfig$[ebp+6194], eax
  01142	66 8b 0d 10 00
	00 00		 mov	 cx, WORD PTR ??_C@_0BD@DEMFBODE@data?2se?2sae_17?4wav?$AA@+16
  01149	66 89 8d 32 7c
	ff ff		 mov	 WORD PTR _sndconfig$[ebp+6198], cx
  01150	8a 15 12 00 00
	00		 mov	 dl, BYTE PTR ??_C@_0BD@DEMFBODE@data?2se?2sae_17?4wav?$AA@+18
  01156	88 95 34 7c ff
	ff		 mov	 BYTE PTR _sndconfig$[ebp+6200], dl
  0115c	68 b5 00 00 00	 push	 181			; 000000b5H
  01161	6a 00		 push	 0
  01163	8d 85 35 7c ff
	ff		 lea	 eax, DWORD PTR _sndconfig$[ebp+6201]
  01169	50		 push	 eax
  0116a	e8 00 00 00 00	 call	 _memset
  0116f	83 c4 0c	 add	 esp, 12			; 0000000cH
  01172	c6 85 ea 7c ff
	ff 7b		 mov	 BYTE PTR _sndconfig$[ebp+6382], 123 ; 0000007bH
  01179	c6 85 eb 7c ff
	ff 00		 mov	 BYTE PTR _sndconfig$[ebp+6383], 0
  01180	c6 85 ec 7c ff
	ff 00		 mov	 BYTE PTR _sndconfig$[ebp+6384], 0

; 40   : 	{   68, "data\\se\\sae_18.wav", 123, 0, 0 /*, ""*/ },

  01187	b8 44 00 00 00	 mov	 eax, 68			; 00000044H
  0118c	66 89 85 ee 7c
	ff ff		 mov	 WORD PTR _sndconfig$[ebp+6386], ax
  01193	a1 00 00 00 00	 mov	 eax, DWORD PTR ??_C@_0BD@MFJDKMOB@data?2se?2sae_18?4wav?$AA@
  01198	89 85 f0 7c ff
	ff		 mov	 DWORD PTR _sndconfig$[ebp+6388], eax
  0119e	8b 0d 04 00 00
	00		 mov	 ecx, DWORD PTR ??_C@_0BD@MFJDKMOB@data?2se?2sae_18?4wav?$AA@+4
  011a4	89 8d f4 7c ff
	ff		 mov	 DWORD PTR _sndconfig$[ebp+6392], ecx
  011aa	8b 15 08 00 00
	00		 mov	 edx, DWORD PTR ??_C@_0BD@MFJDKMOB@data?2se?2sae_18?4wav?$AA@+8
  011b0	89 95 f8 7c ff
	ff		 mov	 DWORD PTR _sndconfig$[ebp+6396], edx
  011b6	a1 0c 00 00 00	 mov	 eax, DWORD PTR ??_C@_0BD@MFJDKMOB@data?2se?2sae_18?4wav?$AA@+12
  011bb	89 85 fc 7c ff
	ff		 mov	 DWORD PTR _sndconfig$[ebp+6400], eax
  011c1	66 8b 0d 10 00
	00 00		 mov	 cx, WORD PTR ??_C@_0BD@MFJDKMOB@data?2se?2sae_18?4wav?$AA@+16
  011c8	66 89 8d 00 7d
	ff ff		 mov	 WORD PTR _sndconfig$[ebp+6404], cx
  011cf	8a 15 12 00 00
	00		 mov	 dl, BYTE PTR ??_C@_0BD@MFJDKMOB@data?2se?2sae_18?4wav?$AA@+18
  011d5	88 95 02 7d ff
	ff		 mov	 BYTE PTR _sndconfig$[ebp+6406], dl
  011db	68 b5 00 00 00	 push	 181			; 000000b5H
  011e0	6a 00		 push	 0
  011e2	8d 85 03 7d ff
	ff		 lea	 eax, DWORD PTR _sndconfig$[ebp+6407]
  011e8	50		 push	 eax
  011e9	e8 00 00 00 00	 call	 _memset
  011ee	83 c4 0c	 add	 esp, 12			; 0000000cH
  011f1	c6 85 b8 7d ff
	ff 7b		 mov	 BYTE PTR _sndconfig$[ebp+6588], 123 ; 0000007bH
  011f8	c6 85 b9 7d ff
	ff 00		 mov	 BYTE PTR _sndconfig$[ebp+6589], 0
  011ff	c6 85 ba 7d ff
	ff 00		 mov	 BYTE PTR _sndconfig$[ebp+6590], 0

; 41   : 	{   69, "data\\se\\sae_19.wav", 123, 0, 0 /*, ""*/ },

  01206	b8 45 00 00 00	 mov	 eax, 69			; 00000045H
  0120b	66 89 85 bc 7d
	ff ff		 mov	 WORD PTR _sndconfig$[ebp+6592], ax
  01212	a1 00 00 00 00	 mov	 eax, DWORD PTR ??_C@_0BD@OMPHPEE@data?2se?2sae_19?4wav?$AA@
  01217	89 85 be 7d ff
	ff		 mov	 DWORD PTR _sndconfig$[ebp+6594], eax
  0121d	8b 0d 04 00 00
	00		 mov	 ecx, DWORD PTR ??_C@_0BD@OMPHPEE@data?2se?2sae_19?4wav?$AA@+4
  01223	89 8d c2 7d ff
	ff		 mov	 DWORD PTR _sndconfig$[ebp+6598], ecx
  01229	8b 15 08 00 00
	00		 mov	 edx, DWORD PTR ??_C@_0BD@OMPHPEE@data?2se?2sae_19?4wav?$AA@+8
  0122f	89 95 c6 7d ff
	ff		 mov	 DWORD PTR _sndconfig$[ebp+6602], edx
  01235	a1 0c 00 00 00	 mov	 eax, DWORD PTR ??_C@_0BD@OMPHPEE@data?2se?2sae_19?4wav?$AA@+12
  0123a	89 85 ca 7d ff
	ff		 mov	 DWORD PTR _sndconfig$[ebp+6606], eax
  01240	66 8b 0d 10 00
	00 00		 mov	 cx, WORD PTR ??_C@_0BD@OMPHPEE@data?2se?2sae_19?4wav?$AA@+16
  01247	66 89 8d ce 7d
	ff ff		 mov	 WORD PTR _sndconfig$[ebp+6610], cx
  0124e	8a 15 12 00 00
	00		 mov	 dl, BYTE PTR ??_C@_0BD@OMPHPEE@data?2se?2sae_19?4wav?$AA@+18
  01254	88 95 d0 7d ff
	ff		 mov	 BYTE PTR _sndconfig$[ebp+6612], dl
  0125a	68 b5 00 00 00	 push	 181			; 000000b5H
  0125f	6a 00		 push	 0
  01261	8d 85 d1 7d ff
	ff		 lea	 eax, DWORD PTR _sndconfig$[ebp+6613]
  01267	50		 push	 eax
  01268	e8 00 00 00 00	 call	 _memset
  0126d	83 c4 0c	 add	 esp, 12			; 0000000cH
  01270	c6 85 86 7e ff
	ff 7b		 mov	 BYTE PTR _sndconfig$[ebp+6794], 123 ; 0000007bH
  01277	c6 85 87 7e ff
	ff 00		 mov	 BYTE PTR _sndconfig$[ebp+6795], 0
  0127e	c6 85 88 7e ff
	ff 00		 mov	 BYTE PTR _sndconfig$[ebp+6796], 0

; 42   : 	{   70, "data\\se\\sae_20.wav", 123, 0, 0 /*, ""*/ },

  01285	b8 46 00 00 00	 mov	 eax, 70			; 00000046H
  0128a	66 89 85 8a 7e
	ff ff		 mov	 WORD PTR _sndconfig$[ebp+6798], ax
  01291	a1 00 00 00 00	 mov	 eax, DWORD PTR ??_C@_0BD@BICIDEBB@data?2se?2sae_20?4wav?$AA@
  01296	89 85 8c 7e ff
	ff		 mov	 DWORD PTR _sndconfig$[ebp+6800], eax
  0129c	8b 0d 04 00 00
	00		 mov	 ecx, DWORD PTR ??_C@_0BD@BICIDEBB@data?2se?2sae_20?4wav?$AA@+4
  012a2	89 8d 90 7e ff
	ff		 mov	 DWORD PTR _sndconfig$[ebp+6804], ecx
  012a8	8b 15 08 00 00
	00		 mov	 edx, DWORD PTR ??_C@_0BD@BICIDEBB@data?2se?2sae_20?4wav?$AA@+8
  012ae	89 95 94 7e ff
	ff		 mov	 DWORD PTR _sndconfig$[ebp+6808], edx
  012b4	a1 0c 00 00 00	 mov	 eax, DWORD PTR ??_C@_0BD@BICIDEBB@data?2se?2sae_20?4wav?$AA@+12
  012b9	89 85 98 7e ff
	ff		 mov	 DWORD PTR _sndconfig$[ebp+6812], eax
  012bf	66 8b 0d 10 00
	00 00		 mov	 cx, WORD PTR ??_C@_0BD@BICIDEBB@data?2se?2sae_20?4wav?$AA@+16
  012c6	66 89 8d 9c 7e
	ff ff		 mov	 WORD PTR _sndconfig$[ebp+6816], cx
  012cd	8a 15 12 00 00
	00		 mov	 dl, BYTE PTR ??_C@_0BD@BICIDEBB@data?2se?2sae_20?4wav?$AA@+18
  012d3	88 95 9e 7e ff
	ff		 mov	 BYTE PTR _sndconfig$[ebp+6818], dl
  012d9	68 b5 00 00 00	 push	 181			; 000000b5H
  012de	6a 00		 push	 0
  012e0	8d 85 9f 7e ff
	ff		 lea	 eax, DWORD PTR _sndconfig$[ebp+6819]
  012e6	50		 push	 eax
  012e7	e8 00 00 00 00	 call	 _memset
  012ec	83 c4 0c	 add	 esp, 12			; 0000000cH
  012ef	c6 85 54 7f ff
	ff 7b		 mov	 BYTE PTR _sndconfig$[ebp+7000], 123 ; 0000007bH
  012f6	c6 85 55 7f ff
	ff 00		 mov	 BYTE PTR _sndconfig$[ebp+7001], 0
  012fd	c6 85 56 7f ff
	ff 00		 mov	 BYTE PTR _sndconfig$[ebp+7002], 0

; 43   : 	{   71, "data\\se\\sae_21.wav", 123, 0, 0 /*, ""*/ },

  01304	b8 47 00 00 00	 mov	 eax, 71			; 00000047H
  01309	66 89 85 58 7f
	ff ff		 mov	 WORD PTR _sndconfig$[ebp+7004], ax
  01310	a1 00 00 00 00	 mov	 eax, DWORD PTR ??_C@_0BD@NDHEOHLE@data?2se?2sae_21?4wav?$AA@
  01315	89 85 5a 7f ff
	ff		 mov	 DWORD PTR _sndconfig$[ebp+7006], eax
  0131b	8b 0d 04 00 00
	00		 mov	 ecx, DWORD PTR ??_C@_0BD@NDHEOHLE@data?2se?2sae_21?4wav?$AA@+4
  01321	89 8d 5e 7f ff
	ff		 mov	 DWORD PTR _sndconfig$[ebp+7010], ecx
  01327	8b 15 08 00 00
	00		 mov	 edx, DWORD PTR ??_C@_0BD@NDHEOHLE@data?2se?2sae_21?4wav?$AA@+8
  0132d	89 95 62 7f ff
	ff		 mov	 DWORD PTR _sndconfig$[ebp+7014], edx
  01333	a1 0c 00 00 00	 mov	 eax, DWORD PTR ??_C@_0BD@NDHEOHLE@data?2se?2sae_21?4wav?$AA@+12
  01338	89 85 66 7f ff
	ff		 mov	 DWORD PTR _sndconfig$[ebp+7018], eax
  0133e	66 8b 0d 10 00
	00 00		 mov	 cx, WORD PTR ??_C@_0BD@NDHEOHLE@data?2se?2sae_21?4wav?$AA@+16
  01345	66 89 8d 6a 7f
	ff ff		 mov	 WORD PTR _sndconfig$[ebp+7022], cx
  0134c	8a 15 12 00 00
	00		 mov	 dl, BYTE PTR ??_C@_0BD@NDHEOHLE@data?2se?2sae_21?4wav?$AA@+18
  01352	88 95 6c 7f ff
	ff		 mov	 BYTE PTR _sndconfig$[ebp+7024], dl
  01358	68 b5 00 00 00	 push	 181			; 000000b5H
  0135d	6a 00		 push	 0
  0135f	8d 85 6d 7f ff
	ff		 lea	 eax, DWORD PTR _sndconfig$[ebp+7025]
  01365	50		 push	 eax
  01366	e8 00 00 00 00	 call	 _memset
  0136b	83 c4 0c	 add	 esp, 12			; 0000000cH
  0136e	c6 85 22 80 ff
	ff 7b		 mov	 BYTE PTR _sndconfig$[ebp+7206], 123 ; 0000007bH
  01375	c6 85 23 80 ff
	ff 00		 mov	 BYTE PTR _sndconfig$[ebp+7207], 0
  0137c	c6 85 24 80 ff
	ff 00		 mov	 BYTE PTR _sndconfig$[ebp+7208], 0

; 44   : 	{   72, "data\\se\\sae_22.wav", 123, 0, 0 /*, ""*/ },

  01383	b8 48 00 00 00	 mov	 eax, 72			; 00000048H
  01388	66 89 85 26 80
	ff ff		 mov	 WORD PTR _sndconfig$[ebp+7210], ax
  0138f	a1 00 00 00 00	 mov	 eax, DWORD PTR ??_C@_0BD@FFOAJFBK@data?2se?2sae_22?4wav?$AA@
  01394	89 85 28 80 ff
	ff		 mov	 DWORD PTR _sndconfig$[ebp+7212], eax
  0139a	8b 0d 04 00 00
	00		 mov	 ecx, DWORD PTR ??_C@_0BD@FFOAJFBK@data?2se?2sae_22?4wav?$AA@+4
  013a0	89 8d 2c 80 ff
	ff		 mov	 DWORD PTR _sndconfig$[ebp+7216], ecx
  013a6	8b 15 08 00 00
	00		 mov	 edx, DWORD PTR ??_C@_0BD@FFOAJFBK@data?2se?2sae_22?4wav?$AA@+8
  013ac	89 95 30 80 ff
	ff		 mov	 DWORD PTR _sndconfig$[ebp+7220], edx
  013b2	a1 0c 00 00 00	 mov	 eax, DWORD PTR ??_C@_0BD@FFOAJFBK@data?2se?2sae_22?4wav?$AA@+12
  013b7	89 85 34 80 ff
	ff		 mov	 DWORD PTR _sndconfig$[ebp+7224], eax
  013bd	66 8b 0d 10 00
	00 00		 mov	 cx, WORD PTR ??_C@_0BD@FFOAJFBK@data?2se?2sae_22?4wav?$AA@+16
  013c4	66 89 8d 38 80
	ff ff		 mov	 WORD PTR _sndconfig$[ebp+7228], cx
  013cb	8a 15 12 00 00
	00		 mov	 dl, BYTE PTR ??_C@_0BD@FFOAJFBK@data?2se?2sae_22?4wav?$AA@+18
  013d1	88 95 3a 80 ff
	ff		 mov	 BYTE PTR _sndconfig$[ebp+7230], dl
  013d7	68 b5 00 00 00	 push	 181			; 000000b5H
  013dc	6a 00		 push	 0
  013de	8d 85 3b 80 ff
	ff		 lea	 eax, DWORD PTR _sndconfig$[ebp+7231]
  013e4	50		 push	 eax
  013e5	e8 00 00 00 00	 call	 _memset
  013ea	83 c4 0c	 add	 esp, 12			; 0000000cH
  013ed	c6 85 f0 80 ff
	ff 7b		 mov	 BYTE PTR _sndconfig$[ebp+7412], 123 ; 0000007bH
  013f4	c6 85 f1 80 ff
	ff 00		 mov	 BYTE PTR _sndconfig$[ebp+7413], 0
  013fb	c6 85 f2 80 ff
	ff 00		 mov	 BYTE PTR _sndconfig$[ebp+7414], 0

; 45   : 	{   73, "data\\se\\sae_23.wav", 90, 0, 0 /*, "????"*/ },

  01402	b8 49 00 00 00	 mov	 eax, 73			; 00000049H
  01407	66 89 85 f4 80
	ff ff		 mov	 WORD PTR _sndconfig$[ebp+7416], ax
  0140e	a1 00 00 00 00	 mov	 eax, DWORD PTR ??_C@_0BD@JOLMEGLP@data?2se?2sae_23?4wav?$AA@
  01413	89 85 f6 80 ff
	ff		 mov	 DWORD PTR _sndconfig$[ebp+7418], eax
  01419	8b 0d 04 00 00
	00		 mov	 ecx, DWORD PTR ??_C@_0BD@JOLMEGLP@data?2se?2sae_23?4wav?$AA@+4
  0141f	89 8d fa 80 ff
	ff		 mov	 DWORD PTR _sndconfig$[ebp+7422], ecx
  01425	8b 15 08 00 00
	00		 mov	 edx, DWORD PTR ??_C@_0BD@JOLMEGLP@data?2se?2sae_23?4wav?$AA@+8
  0142b	89 95 fe 80 ff
	ff		 mov	 DWORD PTR _sndconfig$[ebp+7426], edx
  01431	a1 0c 00 00 00	 mov	 eax, DWORD PTR ??_C@_0BD@JOLMEGLP@data?2se?2sae_23?4wav?$AA@+12
  01436	89 85 02 81 ff
	ff		 mov	 DWORD PTR _sndconfig$[ebp+7430], eax
  0143c	66 8b 0d 10 00
	00 00		 mov	 cx, WORD PTR ??_C@_0BD@JOLMEGLP@data?2se?2sae_23?4wav?$AA@+16
  01443	66 89 8d 06 81
	ff ff		 mov	 WORD PTR _sndconfig$[ebp+7434], cx
  0144a	8a 15 12 00 00
	00		 mov	 dl, BYTE PTR ??_C@_0BD@JOLMEGLP@data?2se?2sae_23?4wav?$AA@+18
  01450	88 95 08 81 ff
	ff		 mov	 BYTE PTR _sndconfig$[ebp+7436], dl
  01456	68 b5 00 00 00	 push	 181			; 000000b5H
  0145b	6a 00		 push	 0
  0145d	8d 85 09 81 ff
	ff		 lea	 eax, DWORD PTR _sndconfig$[ebp+7437]
  01463	50		 push	 eax
  01464	e8 00 00 00 00	 call	 _memset
  01469	83 c4 0c	 add	 esp, 12			; 0000000cH
  0146c	c6 85 be 81 ff
	ff 5a		 mov	 BYTE PTR _sndconfig$[ebp+7618], 90 ; 0000005aH
  01473	c6 85 bf 81 ff
	ff 00		 mov	 BYTE PTR _sndconfig$[ebp+7619], 0
  0147a	c6 85 c0 81 ff
	ff 00		 mov	 BYTE PTR _sndconfig$[ebp+7620], 0

; 46   : 	{   74, "data\\se\\sae_24.wav", 90, 0, 0 /*, "????"*/ },

  01481	b8 4a 00 00 00	 mov	 eax, 74			; 0000004aH
  01486	66 89 85 c2 81
	ff ff		 mov	 WORD PTR _sndconfig$[ebp+7622], ax
  0148d	a1 00 00 00 00	 mov	 eax, DWORD PTR ??_C@_0BD@IDLJHGAH@data?2se?2sae_24?4wav?$AA@
  01492	89 85 c4 81 ff
	ff		 mov	 DWORD PTR _sndconfig$[ebp+7624], eax
  01498	8b 0d 04 00 00
	00		 mov	 ecx, DWORD PTR ??_C@_0BD@IDLJHGAH@data?2se?2sae_24?4wav?$AA@+4
  0149e	89 8d c8 81 ff
	ff		 mov	 DWORD PTR _sndconfig$[ebp+7628], ecx
  014a4	8b 15 08 00 00
	00		 mov	 edx, DWORD PTR ??_C@_0BD@IDLJHGAH@data?2se?2sae_24?4wav?$AA@+8
  014aa	89 95 cc 81 ff
	ff		 mov	 DWORD PTR _sndconfig$[ebp+7632], edx
  014b0	a1 0c 00 00 00	 mov	 eax, DWORD PTR ??_C@_0BD@IDLJHGAH@data?2se?2sae_24?4wav?$AA@+12
  014b5	89 85 d0 81 ff
	ff		 mov	 DWORD PTR _sndconfig$[ebp+7636], eax
  014bb	66 8b 0d 10 00
	00 00		 mov	 cx, WORD PTR ??_C@_0BD@IDLJHGAH@data?2se?2sae_24?4wav?$AA@+16
  014c2	66 89 8d d4 81
	ff ff		 mov	 WORD PTR _sndconfig$[ebp+7640], cx
  014c9	8a 15 12 00 00
	00		 mov	 dl, BYTE PTR ??_C@_0BD@IDLJHGAH@data?2se?2sae_24?4wav?$AA@+18
  014cf	88 95 d6 81 ff
	ff		 mov	 BYTE PTR _sndconfig$[ebp+7642], dl
  014d5	68 b5 00 00 00	 push	 181			; 000000b5H
  014da	6a 00		 push	 0
  014dc	8d 85 d7 81 ff
	ff		 lea	 eax, DWORD PTR _sndconfig$[ebp+7643]
  014e2	50		 push	 eax
  014e3	e8 00 00 00 00	 call	 _memset
  014e8	83 c4 0c	 add	 esp, 12			; 0000000cH
  014eb	c6 85 8c 82 ff
	ff 5a		 mov	 BYTE PTR _sndconfig$[ebp+7824], 90 ; 0000005aH
  014f2	c6 85 8d 82 ff
	ff 00		 mov	 BYTE PTR _sndconfig$[ebp+7825], 0
  014f9	c6 85 8e 82 ff
	ff 00		 mov	 BYTE PTR _sndconfig$[ebp+7826], 0

; 47   : 	{   75, "data\\se\\sae_25.wav", 100, 0, 0 /*, "???"*/ },

  01500	b8 4b 00 00 00	 mov	 eax, 75			; 0000004bH
  01505	66 89 85 90 82
	ff ff		 mov	 WORD PTR _sndconfig$[ebp+7828], ax
  0150c	a1 00 00 00 00	 mov	 eax, DWORD PTR ??_C@_0BD@EIOFKFKC@data?2se?2sae_25?4wav?$AA@
  01511	89 85 92 82 ff
	ff		 mov	 DWORD PTR _sndconfig$[ebp+7830], eax
  01517	8b 0d 04 00 00
	00		 mov	 ecx, DWORD PTR ??_C@_0BD@EIOFKFKC@data?2se?2sae_25?4wav?$AA@+4
  0151d	89 8d 96 82 ff
	ff		 mov	 DWORD PTR _sndconfig$[ebp+7834], ecx
  01523	8b 15 08 00 00
	00		 mov	 edx, DWORD PTR ??_C@_0BD@EIOFKFKC@data?2se?2sae_25?4wav?$AA@+8
  01529	89 95 9a 82 ff
	ff		 mov	 DWORD PTR _sndconfig$[ebp+7838], edx
  0152f	a1 0c 00 00 00	 mov	 eax, DWORD PTR ??_C@_0BD@EIOFKFKC@data?2se?2sae_25?4wav?$AA@+12
  01534	89 85 9e 82 ff
	ff		 mov	 DWORD PTR _sndconfig$[ebp+7842], eax
  0153a	66 8b 0d 10 00
	00 00		 mov	 cx, WORD PTR ??_C@_0BD@EIOFKFKC@data?2se?2sae_25?4wav?$AA@+16
  01541	66 89 8d a2 82
	ff ff		 mov	 WORD PTR _sndconfig$[ebp+7846], cx
  01548	8a 15 12 00 00
	00		 mov	 dl, BYTE PTR ??_C@_0BD@EIOFKFKC@data?2se?2sae_25?4wav?$AA@+18
  0154e	88 95 a4 82 ff
	ff		 mov	 BYTE PTR _sndconfig$[ebp+7848], dl
  01554	68 b5 00 00 00	 push	 181			; 000000b5H
  01559	6a 00		 push	 0
  0155b	8d 85 a5 82 ff
	ff		 lea	 eax, DWORD PTR _sndconfig$[ebp+7849]
  01561	50		 push	 eax
  01562	e8 00 00 00 00	 call	 _memset
  01567	83 c4 0c	 add	 esp, 12			; 0000000cH
  0156a	c6 85 5a 83 ff
	ff 64		 mov	 BYTE PTR _sndconfig$[ebp+8030], 100 ; 00000064H
  01571	c6 85 5b 83 ff
	ff 00		 mov	 BYTE PTR _sndconfig$[ebp+8031], 0
  01578	c6 85 5c 83 ff
	ff 00		 mov	 BYTE PTR _sndconfig$[ebp+8032], 0

; 48   : 	{   76, "data\\se\\sae_26.wav", 75, 0, 0 /*, "???"*/ },

  0157f	b8 4c 00 00 00	 mov	 eax, 76			; 0000004cH
  01584	66 89 85 5e 83
	ff ff		 mov	 WORD PTR _sndconfig$[ebp+8034], ax
  0158b	a1 00 00 00 00	 mov	 eax, DWORD PTR ??_C@_0BD@MOHBNHAM@data?2se?2sae_26?4wav?$AA@
  01590	89 85 60 83 ff
	ff		 mov	 DWORD PTR _sndconfig$[ebp+8036], eax
  01596	8b 0d 04 00 00
	00		 mov	 ecx, DWORD PTR ??_C@_0BD@MOHBNHAM@data?2se?2sae_26?4wav?$AA@+4
  0159c	89 8d 64 83 ff
	ff		 mov	 DWORD PTR _sndconfig$[ebp+8040], ecx
  015a2	8b 15 08 00 00
	00		 mov	 edx, DWORD PTR ??_C@_0BD@MOHBNHAM@data?2se?2sae_26?4wav?$AA@+8
  015a8	89 95 68 83 ff
	ff		 mov	 DWORD PTR _sndconfig$[ebp+8044], edx
  015ae	a1 0c 00 00 00	 mov	 eax, DWORD PTR ??_C@_0BD@MOHBNHAM@data?2se?2sae_26?4wav?$AA@+12
  015b3	89 85 6c 83 ff
	ff		 mov	 DWORD PTR _sndconfig$[ebp+8048], eax
  015b9	66 8b 0d 10 00
	00 00		 mov	 cx, WORD PTR ??_C@_0BD@MOHBNHAM@data?2se?2sae_26?4wav?$AA@+16
  015c0	66 89 8d 70 83
	ff ff		 mov	 WORD PTR _sndconfig$[ebp+8052], cx
  015c7	8a 15 12 00 00
	00		 mov	 dl, BYTE PTR ??_C@_0BD@MOHBNHAM@data?2se?2sae_26?4wav?$AA@+18
  015cd	88 95 72 83 ff
	ff		 mov	 BYTE PTR _sndconfig$[ebp+8054], dl
  015d3	68 b5 00 00 00	 push	 181			; 000000b5H
  015d8	6a 00		 push	 0
  015da	8d 85 73 83 ff
	ff		 lea	 eax, DWORD PTR _sndconfig$[ebp+8055]
  015e0	50		 push	 eax
  015e1	e8 00 00 00 00	 call	 _memset
  015e6	83 c4 0c	 add	 esp, 12			; 0000000cH
  015e9	c6 85 28 84 ff
	ff 4b		 mov	 BYTE PTR _sndconfig$[ebp+8236], 75 ; 0000004bH
  015f0	c6 85 29 84 ff
	ff 00		 mov	 BYTE PTR _sndconfig$[ebp+8237], 0
  015f7	c6 85 2a 84 ff
	ff 00		 mov	 BYTE PTR _sndconfig$[ebp+8238], 0

; 49   : 	{   77, "data\\se\\sae_27.wav", 123, 0, 0 /*, ""*/ },

  015fe	b8 4d 00 00 00	 mov	 eax, 77			; 0000004dH
  01603	66 89 85 2c 84
	ff ff		 mov	 WORD PTR _sndconfig$[ebp+8240], ax
  0160a	a1 00 00 00 00	 mov	 eax, DWORD PTR ??_C@_0BD@FCNAEKJ@data?2se?2sae_27?4wav?$AA@
  0160f	89 85 2e 84 ff
	ff		 mov	 DWORD PTR _sndconfig$[ebp+8242], eax
  01615	8b 0d 04 00 00
	00		 mov	 ecx, DWORD PTR ??_C@_0BD@FCNAEKJ@data?2se?2sae_27?4wav?$AA@+4
  0161b	89 8d 32 84 ff
	ff		 mov	 DWORD PTR _sndconfig$[ebp+8246], ecx
  01621	8b 15 08 00 00
	00		 mov	 edx, DWORD PTR ??_C@_0BD@FCNAEKJ@data?2se?2sae_27?4wav?$AA@+8
  01627	89 95 36 84 ff
	ff		 mov	 DWORD PTR _sndconfig$[ebp+8250], edx
  0162d	a1 0c 00 00 00	 mov	 eax, DWORD PTR ??_C@_0BD@FCNAEKJ@data?2se?2sae_27?4wav?$AA@+12
  01632	89 85 3a 84 ff
	ff		 mov	 DWORD PTR _sndconfig$[ebp+8254], eax
  01638	66 8b 0d 10 00
	00 00		 mov	 cx, WORD PTR ??_C@_0BD@FCNAEKJ@data?2se?2sae_27?4wav?$AA@+16
  0163f	66 89 8d 3e 84
	ff ff		 mov	 WORD PTR _sndconfig$[ebp+8258], cx
  01646	8a 15 12 00 00
	00		 mov	 dl, BYTE PTR ??_C@_0BD@FCNAEKJ@data?2se?2sae_27?4wav?$AA@+18
  0164c	88 95 40 84 ff
	ff		 mov	 BYTE PTR _sndconfig$[ebp+8260], dl
  01652	68 b5 00 00 00	 push	 181			; 000000b5H
  01657	6a 00		 push	 0
  01659	8d 85 41 84 ff
	ff		 lea	 eax, DWORD PTR _sndconfig$[ebp+8261]
  0165f	50		 push	 eax
  01660	e8 00 00 00 00	 call	 _memset
  01665	83 c4 0c	 add	 esp, 12			; 0000000cH
  01668	c6 85 f6 84 ff
	ff 7b		 mov	 BYTE PTR _sndconfig$[ebp+8442], 123 ; 0000007bH
  0166f	c6 85 f7 84 ff
	ff 00		 mov	 BYTE PTR _sndconfig$[ebp+8443], 0
  01676	c6 85 f8 84 ff
	ff 00		 mov	 BYTE PTR _sndconfig$[ebp+8444], 0

; 50   : 	{   78, "data\\se\\sae_28.wav", 90, 0, 0 /*, "????"*/ },

  0167d	b8 4e 00 00 00	 mov	 eax, 78			; 0000004eH
  01682	66 89 85 fa 84
	ff ff		 mov	 WORD PTR _sndconfig$[ebp+8446], ax
  01689	a1 00 00 00 00	 mov	 eax, DWORD PTR ??_C@_0BD@PEHLLGHM@data?2se?2sae_28?4wav?$AA@
  0168e	89 85 fc 84 ff
	ff		 mov	 DWORD PTR _sndconfig$[ebp+8448], eax
  01694	8b 0d 04 00 00
	00		 mov	 ecx, DWORD PTR ??_C@_0BD@PEHLLGHM@data?2se?2sae_28?4wav?$AA@+4
  0169a	89 8d 00 85 ff
	ff		 mov	 DWORD PTR _sndconfig$[ebp+8452], ecx
  016a0	8b 15 08 00 00
	00		 mov	 edx, DWORD PTR ??_C@_0BD@PEHLLGHM@data?2se?2sae_28?4wav?$AA@+8
  016a6	89 95 04 85 ff
	ff		 mov	 DWORD PTR _sndconfig$[ebp+8456], edx
  016ac	a1 0c 00 00 00	 mov	 eax, DWORD PTR ??_C@_0BD@PEHLLGHM@data?2se?2sae_28?4wav?$AA@+12
  016b1	89 85 08 85 ff
	ff		 mov	 DWORD PTR _sndconfig$[ebp+8460], eax
  016b7	66 8b 0d 10 00
	00 00		 mov	 cx, WORD PTR ??_C@_0BD@PEHLLGHM@data?2se?2sae_28?4wav?$AA@+16
  016be	66 89 8d 0c 85
	ff ff		 mov	 WORD PTR _sndconfig$[ebp+8464], cx
  016c5	8a 15 12 00 00
	00		 mov	 dl, BYTE PTR ??_C@_0BD@PEHLLGHM@data?2se?2sae_28?4wav?$AA@+18
  016cb	88 95 0e 85 ff
	ff		 mov	 BYTE PTR _sndconfig$[ebp+8466], dl
  016d1	68 b5 00 00 00	 push	 181			; 000000b5H
  016d6	6a 00		 push	 0
  016d8	8d 85 0f 85 ff
	ff		 lea	 eax, DWORD PTR _sndconfig$[ebp+8467]
  016de	50		 push	 eax
  016df	e8 00 00 00 00	 call	 _memset
  016e4	83 c4 0c	 add	 esp, 12			; 0000000cH
  016e7	c6 85 c4 85 ff
	ff 5a		 mov	 BYTE PTR _sndconfig$[ebp+8648], 90 ; 0000005aH
  016ee	c6 85 c5 85 ff
	ff 00		 mov	 BYTE PTR _sndconfig$[ebp+8649], 0
  016f5	c6 85 c6 85 ff
	ff 00		 mov	 BYTE PTR _sndconfig$[ebp+8650], 0

; 51   : 	{   79, "data\\se\\sae_29.wav", 123, 0, 0 /*, ""*/ },

  016fc	b8 4f 00 00 00	 mov	 eax, 79			; 0000004fH
  01701	66 89 85 c8 85
	ff ff		 mov	 WORD PTR _sndconfig$[ebp+8652], ax
  01708	a1 00 00 00 00	 mov	 eax, DWORD PTR ??_C@_0BD@DPCHGFNJ@data?2se?2sae_29?4wav?$AA@
  0170d	89 85 ca 85 ff
	ff		 mov	 DWORD PTR _sndconfig$[ebp+8654], eax
  01713	8b 0d 04 00 00
	00		 mov	 ecx, DWORD PTR ??_C@_0BD@DPCHGFNJ@data?2se?2sae_29?4wav?$AA@+4
  01719	89 8d ce 85 ff
	ff		 mov	 DWORD PTR _sndconfig$[ebp+8658], ecx
  0171f	8b 15 08 00 00
	00		 mov	 edx, DWORD PTR ??_C@_0BD@DPCHGFNJ@data?2se?2sae_29?4wav?$AA@+8
  01725	89 95 d2 85 ff
	ff		 mov	 DWORD PTR _sndconfig$[ebp+8662], edx
  0172b	a1 0c 00 00 00	 mov	 eax, DWORD PTR ??_C@_0BD@DPCHGFNJ@data?2se?2sae_29?4wav?$AA@+12
  01730	89 85 d6 85 ff
	ff		 mov	 DWORD PTR _sndconfig$[ebp+8666], eax
  01736	66 8b 0d 10 00
	00 00		 mov	 cx, WORD PTR ??_C@_0BD@DPCHGFNJ@data?2se?2sae_29?4wav?$AA@+16
  0173d	66 89 8d da 85
	ff ff		 mov	 WORD PTR _sndconfig$[ebp+8670], cx
  01744	8a 15 12 00 00
	00		 mov	 dl, BYTE PTR ??_C@_0BD@DPCHGFNJ@data?2se?2sae_29?4wav?$AA@+18
  0174a	88 95 dc 85 ff
	ff		 mov	 BYTE PTR _sndconfig$[ebp+8672], dl
  01750	68 b5 00 00 00	 push	 181			; 000000b5H
  01755	6a 00		 push	 0
  01757	8d 85 dd 85 ff
	ff		 lea	 eax, DWORD PTR _sndconfig$[ebp+8673]
  0175d	50		 push	 eax
  0175e	e8 00 00 00 00	 call	 _memset
  01763	83 c4 0c	 add	 esp, 12			; 0000000cH
  01766	c6 85 92 86 ff
	ff 7b		 mov	 BYTE PTR _sndconfig$[ebp+8854], 123 ; 0000007bH
  0176d	c6 85 93 86 ff
	ff 00		 mov	 BYTE PTR _sndconfig$[ebp+8855], 0
  01774	c6 85 94 86 ff
	ff 00		 mov	 BYTE PTR _sndconfig$[ebp+8856], 0

; 52   : 	{   80, "data\\se\\sae_30.wav", 100, 0, 0 /*, "?????"*/ },

  0177b	b8 50 00 00 00	 mov	 eax, 80			; 00000050H
  01780	66 89 85 96 86
	ff ff		 mov	 WORD PTR _sndconfig$[ebp+8858], ax
  01787	a1 00 00 00 00	 mov	 eax, DWORD PTR ??_C@_0BD@LOFPDPKF@data?2se?2sae_30?4wav?$AA@
  0178c	89 85 98 86 ff
	ff		 mov	 DWORD PTR _sndconfig$[ebp+8860], eax
  01792	8b 0d 04 00 00
	00		 mov	 ecx, DWORD PTR ??_C@_0BD@LOFPDPKF@data?2se?2sae_30?4wav?$AA@+4
  01798	89 8d 9c 86 ff
	ff		 mov	 DWORD PTR _sndconfig$[ebp+8864], ecx
  0179e	8b 15 08 00 00
	00		 mov	 edx, DWORD PTR ??_C@_0BD@LOFPDPKF@data?2se?2sae_30?4wav?$AA@+8
  017a4	89 95 a0 86 ff
	ff		 mov	 DWORD PTR _sndconfig$[ebp+8868], edx
  017aa	a1 0c 00 00 00	 mov	 eax, DWORD PTR ??_C@_0BD@LOFPDPKF@data?2se?2sae_30?4wav?$AA@+12
  017af	89 85 a4 86 ff
	ff		 mov	 DWORD PTR _sndconfig$[ebp+8872], eax
  017b5	66 8b 0d 10 00
	00 00		 mov	 cx, WORD PTR ??_C@_0BD@LOFPDPKF@data?2se?2sae_30?4wav?$AA@+16
  017bc	66 89 8d a8 86
	ff ff		 mov	 WORD PTR _sndconfig$[ebp+8876], cx
  017c3	8a 15 12 00 00
	00		 mov	 dl, BYTE PTR ??_C@_0BD@LOFPDPKF@data?2se?2sae_30?4wav?$AA@+18
  017c9	88 95 aa 86 ff
	ff		 mov	 BYTE PTR _sndconfig$[ebp+8878], dl
  017cf	68 b5 00 00 00	 push	 181			; 000000b5H
  017d4	6a 00		 push	 0
  017d6	8d 85 ab 86 ff
	ff		 lea	 eax, DWORD PTR _sndconfig$[ebp+8879]
  017dc	50		 push	 eax
  017dd	e8 00 00 00 00	 call	 _memset
  017e2	83 c4 0c	 add	 esp, 12			; 0000000cH
  017e5	c6 85 60 87 ff
	ff 64		 mov	 BYTE PTR _sndconfig$[ebp+9060], 100 ; 00000064H
  017ec	c6 85 61 87 ff
	ff 00		 mov	 BYTE PTR _sndconfig$[ebp+9061], 0
  017f3	c6 85 62 87 ff
	ff 00		 mov	 BYTE PTR _sndconfig$[ebp+9062], 0

; 53   : 	{   81, "data\\se\\sae_31.wav", 123, 0, 0 /*, ""*/ },

  017fa	b8 51 00 00 00	 mov	 eax, 81			; 00000051H
  017ff	66 89 85 64 87
	ff ff		 mov	 WORD PTR _sndconfig$[ebp+9064], ax
  01806	a1 00 00 00 00	 mov	 eax, DWORD PTR ??_C@_0BD@HFADOMAA@data?2se?2sae_31?4wav?$AA@
  0180b	89 85 66 87 ff
	ff		 mov	 DWORD PTR _sndconfig$[ebp+9066], eax
  01811	8b 0d 04 00 00
	00		 mov	 ecx, DWORD PTR ??_C@_0BD@HFADOMAA@data?2se?2sae_31?4wav?$AA@+4
  01817	89 8d 6a 87 ff
	ff		 mov	 DWORD PTR _sndconfig$[ebp+9070], ecx
  0181d	8b 15 08 00 00
	00		 mov	 edx, DWORD PTR ??_C@_0BD@HFADOMAA@data?2se?2sae_31?4wav?$AA@+8
  01823	89 95 6e 87 ff
	ff		 mov	 DWORD PTR _sndconfig$[ebp+9074], edx
  01829	a1 0c 00 00 00	 mov	 eax, DWORD PTR ??_C@_0BD@HFADOMAA@data?2se?2sae_31?4wav?$AA@+12
  0182e	89 85 72 87 ff
	ff		 mov	 DWORD PTR _sndconfig$[ebp+9078], eax
  01834	66 8b 0d 10 00
	00 00		 mov	 cx, WORD PTR ??_C@_0BD@HFADOMAA@data?2se?2sae_31?4wav?$AA@+16
  0183b	66 89 8d 76 87
	ff ff		 mov	 WORD PTR _sndconfig$[ebp+9082], cx
  01842	8a 15 12 00 00
	00		 mov	 dl, BYTE PTR ??_C@_0BD@HFADOMAA@data?2se?2sae_31?4wav?$AA@+18
  01848	88 95 78 87 ff
	ff		 mov	 BYTE PTR _sndconfig$[ebp+9084], dl
  0184e	68 b5 00 00 00	 push	 181			; 000000b5H
  01853	6a 00		 push	 0
  01855	8d 85 79 87 ff
	ff		 lea	 eax, DWORD PTR _sndconfig$[ebp+9085]
  0185b	50		 push	 eax
  0185c	e8 00 00 00 00	 call	 _memset
  01861	83 c4 0c	 add	 esp, 12			; 0000000cH
  01864	c6 85 2e 88 ff
	ff 7b		 mov	 BYTE PTR _sndconfig$[ebp+9266], 123 ; 0000007bH
  0186b	c6 85 2f 88 ff
	ff 00		 mov	 BYTE PTR _sndconfig$[ebp+9267], 0
  01872	c6 85 30 88 ff
	ff 00		 mov	 BYTE PTR _sndconfig$[ebp+9268], 0

; 54   : 	{   82, "data\\se\\sae_32.wav", 123, 0, 0 /*, ""*/ },

  01879	b8 52 00 00 00	 mov	 eax, 82			; 00000052H
  0187e	66 89 85 32 88
	ff ff		 mov	 WORD PTR _sndconfig$[ebp+9270], ax
  01885	a1 00 00 00 00	 mov	 eax, DWORD PTR ??_C@_0BD@PDJHJOKO@data?2se?2sae_32?4wav?$AA@
  0188a	89 85 34 88 ff
	ff		 mov	 DWORD PTR _sndconfig$[ebp+9272], eax
  01890	8b 0d 04 00 00
	00		 mov	 ecx, DWORD PTR ??_C@_0BD@PDJHJOKO@data?2se?2sae_32?4wav?$AA@+4
  01896	89 8d 38 88 ff
	ff		 mov	 DWORD PTR _sndconfig$[ebp+9276], ecx
  0189c	8b 15 08 00 00
	00		 mov	 edx, DWORD PTR ??_C@_0BD@PDJHJOKO@data?2se?2sae_32?4wav?$AA@+8
  018a2	89 95 3c 88 ff
	ff		 mov	 DWORD PTR _sndconfig$[ebp+9280], edx
  018a8	a1 0c 00 00 00	 mov	 eax, DWORD PTR ??_C@_0BD@PDJHJOKO@data?2se?2sae_32?4wav?$AA@+12
  018ad	89 85 40 88 ff
	ff		 mov	 DWORD PTR _sndconfig$[ebp+9284], eax
  018b3	66 8b 0d 10 00
	00 00		 mov	 cx, WORD PTR ??_C@_0BD@PDJHJOKO@data?2se?2sae_32?4wav?$AA@+16
  018ba	66 89 8d 44 88
	ff ff		 mov	 WORD PTR _sndconfig$[ebp+9288], cx
  018c1	8a 15 12 00 00
	00		 mov	 dl, BYTE PTR ??_C@_0BD@PDJHJOKO@data?2se?2sae_32?4wav?$AA@+18
  018c7	88 95 46 88 ff
	ff		 mov	 BYTE PTR _sndconfig$[ebp+9290], dl
  018cd	68 b5 00 00 00	 push	 181			; 000000b5H
  018d2	6a 00		 push	 0
  018d4	8d 85 47 88 ff
	ff		 lea	 eax, DWORD PTR _sndconfig$[ebp+9291]
  018da	50		 push	 eax
  018db	e8 00 00 00 00	 call	 _memset
  018e0	83 c4 0c	 add	 esp, 12			; 0000000cH
  018e3	c6 85 fc 88 ff
	ff 7b		 mov	 BYTE PTR _sndconfig$[ebp+9472], 123 ; 0000007bH
  018ea	c6 85 fd 88 ff
	ff 00		 mov	 BYTE PTR _sndconfig$[ebp+9473], 0
  018f1	c6 85 fe 88 ff
	ff 00		 mov	 BYTE PTR _sndconfig$[ebp+9474], 0

; 55   : 
; 56   : 	// ?
; 57   : 	{  100, "data\\se\\sam_01.wav", 75, 0, 0 /*, "?????汽鳇愈?"*/ },

  018f8	b8 64 00 00 00	 mov	 eax, 100		; 00000064H
  018fd	66 89 85 00 89
	ff ff		 mov	 WORD PTR _sndconfig$[ebp+9476], ax
  01904	a1 00 00 00 00	 mov	 eax, DWORD PTR ??_C@_0BD@PPDDFEIF@data?2se?2sam_01?4wav?$AA@
  01909	89 85 02 89 ff
	ff		 mov	 DWORD PTR _sndconfig$[ebp+9478], eax
  0190f	8b 0d 04 00 00
	00		 mov	 ecx, DWORD PTR ??_C@_0BD@PPDDFEIF@data?2se?2sam_01?4wav?$AA@+4
  01915	89 8d 06 89 ff
	ff		 mov	 DWORD PTR _sndconfig$[ebp+9482], ecx
  0191b	8b 15 08 00 00
	00		 mov	 edx, DWORD PTR ??_C@_0BD@PPDDFEIF@data?2se?2sam_01?4wav?$AA@+8
  01921	89 95 0a 89 ff
	ff		 mov	 DWORD PTR _sndconfig$[ebp+9486], edx
  01927	a1 0c 00 00 00	 mov	 eax, DWORD PTR ??_C@_0BD@PPDDFEIF@data?2se?2sam_01?4wav?$AA@+12
  0192c	89 85 0e 89 ff
	ff		 mov	 DWORD PTR _sndconfig$[ebp+9490], eax
  01932	66 8b 0d 10 00
	00 00		 mov	 cx, WORD PTR ??_C@_0BD@PPDDFEIF@data?2se?2sam_01?4wav?$AA@+16
  01939	66 89 8d 12 89
	ff ff		 mov	 WORD PTR _sndconfig$[ebp+9494], cx
  01940	8a 15 12 00 00
	00		 mov	 dl, BYTE PTR ??_C@_0BD@PPDDFEIF@data?2se?2sam_01?4wav?$AA@+18
  01946	88 95 14 89 ff
	ff		 mov	 BYTE PTR _sndconfig$[ebp+9496], dl
  0194c	68 b5 00 00 00	 push	 181			; 000000b5H
  01951	6a 00		 push	 0
  01953	8d 85 15 89 ff
	ff		 lea	 eax, DWORD PTR _sndconfig$[ebp+9497]
  01959	50		 push	 eax
  0195a	e8 00 00 00 00	 call	 _memset
  0195f	83 c4 0c	 add	 esp, 12			; 0000000cH
  01962	c6 85 ca 89 ff
	ff 4b		 mov	 BYTE PTR _sndconfig$[ebp+9678], 75 ; 0000004bH
  01969	c6 85 cb 89 ff
	ff 00		 mov	 BYTE PTR _sndconfig$[ebp+9679], 0
  01970	c6 85 cc 89 ff
	ff 00		 mov	 BYTE PTR _sndconfig$[ebp+9680], 0

; 58   : 	{  101,	"data\\se\\sam_02.wav", 75, 0, 0 /*, "????"*/ },

  01977	b8 65 00 00 00	 mov	 eax, 101		; 00000065H
  0197c	66 89 85 ce 89
	ff ff		 mov	 WORD PTR _sndconfig$[ebp+9682], ax
  01983	a1 00 00 00 00	 mov	 eax, DWORD PTR ??_C@_0BD@HJKHCGCL@data?2se?2sam_02?4wav?$AA@
  01988	89 85 d0 89 ff
	ff		 mov	 DWORD PTR _sndconfig$[ebp+9684], eax
  0198e	8b 0d 04 00 00
	00		 mov	 ecx, DWORD PTR ??_C@_0BD@HJKHCGCL@data?2se?2sam_02?4wav?$AA@+4
  01994	89 8d d4 89 ff
	ff		 mov	 DWORD PTR _sndconfig$[ebp+9688], ecx
  0199a	8b 15 08 00 00
	00		 mov	 edx, DWORD PTR ??_C@_0BD@HJKHCGCL@data?2se?2sam_02?4wav?$AA@+8
  019a0	89 95 d8 89 ff
	ff		 mov	 DWORD PTR _sndconfig$[ebp+9692], edx
  019a6	a1 0c 00 00 00	 mov	 eax, DWORD PTR ??_C@_0BD@HJKHCGCL@data?2se?2sam_02?4wav?$AA@+12
  019ab	89 85 dc 89 ff
	ff		 mov	 DWORD PTR _sndconfig$[ebp+9696], eax
  019b1	66 8b 0d 10 00
	00 00		 mov	 cx, WORD PTR ??_C@_0BD@HJKHCGCL@data?2se?2sam_02?4wav?$AA@+16
  019b8	66 89 8d e0 89
	ff ff		 mov	 WORD PTR _sndconfig$[ebp+9700], cx
  019bf	8a 15 12 00 00
	00		 mov	 dl, BYTE PTR ??_C@_0BD@HJKHCGCL@data?2se?2sam_02?4wav?$AA@+18
  019c5	88 95 e2 89 ff
	ff		 mov	 BYTE PTR _sndconfig$[ebp+9702], dl
  019cb	68 b5 00 00 00	 push	 181			; 000000b5H
  019d0	6a 00		 push	 0
  019d2	8d 85 e3 89 ff
	ff		 lea	 eax, DWORD PTR _sndconfig$[ebp+9703]
  019d8	50		 push	 eax
  019d9	e8 00 00 00 00	 call	 _memset
  019de	83 c4 0c	 add	 esp, 12			; 0000000cH
  019e1	c6 85 98 8a ff
	ff 4b		 mov	 BYTE PTR _sndconfig$[ebp+9884], 75 ; 0000004bH
  019e8	c6 85 99 8a ff
	ff 00		 mov	 BYTE PTR _sndconfig$[ebp+9885], 0
  019ef	c6 85 9a 8a ff
	ff 00		 mov	 BYTE PTR _sndconfig$[ebp+9886], 0

; 59   : 	{  102,	"data\\se\\sam_03.wav", 75, 0, 0 /*, "??"*/ },

  019f6	b8 66 00 00 00	 mov	 eax, 102		; 00000066H
  019fb	66 89 85 9c 8a
	ff ff		 mov	 WORD PTR _sndconfig$[ebp+9888], ax
  01a02	a1 00 00 00 00	 mov	 eax, DWORD PTR ??_C@_0BD@LCPLPFIO@data?2se?2sam_03?4wav?$AA@
  01a07	89 85 9e 8a ff
	ff		 mov	 DWORD PTR _sndconfig$[ebp+9890], eax
  01a0d	8b 0d 04 00 00
	00		 mov	 ecx, DWORD PTR ??_C@_0BD@LCPLPFIO@data?2se?2sam_03?4wav?$AA@+4
  01a13	89 8d a2 8a ff
	ff		 mov	 DWORD PTR _sndconfig$[ebp+9894], ecx
  01a19	8b 15 08 00 00
	00		 mov	 edx, DWORD PTR ??_C@_0BD@LCPLPFIO@data?2se?2sam_03?4wav?$AA@+8
  01a1f	89 95 a6 8a ff
	ff		 mov	 DWORD PTR _sndconfig$[ebp+9898], edx
  01a25	a1 0c 00 00 00	 mov	 eax, DWORD PTR ??_C@_0BD@LCPLPFIO@data?2se?2sam_03?4wav?$AA@+12
  01a2a	89 85 aa 8a ff
	ff		 mov	 DWORD PTR _sndconfig$[ebp+9902], eax
  01a30	66 8b 0d 10 00
	00 00		 mov	 cx, WORD PTR ??_C@_0BD@LCPLPFIO@data?2se?2sam_03?4wav?$AA@+16
  01a37	66 89 8d ae 8a
	ff ff		 mov	 WORD PTR _sndconfig$[ebp+9906], cx
  01a3e	8a 15 12 00 00
	00		 mov	 dl, BYTE PTR ??_C@_0BD@LCPLPFIO@data?2se?2sam_03?4wav?$AA@+18
  01a44	88 95 b0 8a ff
	ff		 mov	 BYTE PTR _sndconfig$[ebp+9908], dl
  01a4a	68 b5 00 00 00	 push	 181			; 000000b5H
  01a4f	6a 00		 push	 0
  01a51	8d 85 b1 8a ff
	ff		 lea	 eax, DWORD PTR _sndconfig$[ebp+9909]
  01a57	50		 push	 eax
  01a58	e8 00 00 00 00	 call	 _memset
  01a5d	83 c4 0c	 add	 esp, 12			; 0000000cH
  01a60	c6 85 66 8b ff
	ff 4b		 mov	 BYTE PTR _sndconfig$[ebp+10090], 75 ; 0000004bH
  01a67	c6 85 67 8b ff
	ff 00		 mov	 BYTE PTR _sndconfig$[ebp+10091], 0
  01a6e	c6 85 68 8b ff
	ff 00		 mov	 BYTE PTR _sndconfig$[ebp+10092], 0

; 60   : 	{  103,	"data\\se\\sam_04.wav", 123, 0, 0 /*, "????"*/ },

  01a75	b8 67 00 00 00	 mov	 eax, 103		; 00000067H
  01a7a	66 89 85 6a 8b
	ff ff		 mov	 WORD PTR _sndconfig$[ebp+10094], ax
  01a81	a1 00 00 00 00	 mov	 eax, DWORD PTR ??_C@_0BD@KPPOMFDG@data?2se?2sam_04?4wav?$AA@
  01a86	89 85 6c 8b ff
	ff		 mov	 DWORD PTR _sndconfig$[ebp+10096], eax
  01a8c	8b 0d 04 00 00
	00		 mov	 ecx, DWORD PTR ??_C@_0BD@KPPOMFDG@data?2se?2sam_04?4wav?$AA@+4
  01a92	89 8d 70 8b ff
	ff		 mov	 DWORD PTR _sndconfig$[ebp+10100], ecx
  01a98	8b 15 08 00 00
	00		 mov	 edx, DWORD PTR ??_C@_0BD@KPPOMFDG@data?2se?2sam_04?4wav?$AA@+8
  01a9e	89 95 74 8b ff
	ff		 mov	 DWORD PTR _sndconfig$[ebp+10104], edx
  01aa4	a1 0c 00 00 00	 mov	 eax, DWORD PTR ??_C@_0BD@KPPOMFDG@data?2se?2sam_04?4wav?$AA@+12
  01aa9	89 85 78 8b ff
	ff		 mov	 DWORD PTR _sndconfig$[ebp+10108], eax
  01aaf	66 8b 0d 10 00
	00 00		 mov	 cx, WORD PTR ??_C@_0BD@KPPOMFDG@data?2se?2sam_04?4wav?$AA@+16
  01ab6	66 89 8d 7c 8b
	ff ff		 mov	 WORD PTR _sndconfig$[ebp+10112], cx
  01abd	8a 15 12 00 00
	00		 mov	 dl, BYTE PTR ??_C@_0BD@KPPOMFDG@data?2se?2sam_04?4wav?$AA@+18
  01ac3	88 95 7e 8b ff
	ff		 mov	 BYTE PTR _sndconfig$[ebp+10114], dl
  01ac9	68 b5 00 00 00	 push	 181			; 000000b5H
  01ace	6a 00		 push	 0
  01ad0	8d 85 7f 8b ff
	ff		 lea	 eax, DWORD PTR _sndconfig$[ebp+10115]
  01ad6	50		 push	 eax
  01ad7	e8 00 00 00 00	 call	 _memset
  01adc	83 c4 0c	 add	 esp, 12			; 0000000cH
  01adf	c6 85 34 8c ff
	ff 7b		 mov	 BYTE PTR _sndconfig$[ebp+10296], 123 ; 0000007bH
  01ae6	c6 85 35 8c ff
	ff 00		 mov	 BYTE PTR _sndconfig$[ebp+10297], 0
  01aed	c6 85 36 8c ff
	ff 00		 mov	 BYTE PTR _sndconfig$[ebp+10298], 0

; 61   : 	{  104,	"data\\se\\sam_05.wav", 123, 0, 0 /*, "?????"*/ },

  01af4	b8 68 00 00 00	 mov	 eax, 104		; 00000068H
  01af9	66 89 85 38 8c
	ff ff		 mov	 WORD PTR _sndconfig$[ebp+10300], ax
  01b00	a1 00 00 00 00	 mov	 eax, DWORD PTR ??_C@_0BD@GEKCBGJD@data?2se?2sam_05?4wav?$AA@
  01b05	89 85 3a 8c ff
	ff		 mov	 DWORD PTR _sndconfig$[ebp+10302], eax
  01b0b	8b 0d 04 00 00
	00		 mov	 ecx, DWORD PTR ??_C@_0BD@GEKCBGJD@data?2se?2sam_05?4wav?$AA@+4
  01b11	89 8d 3e 8c ff
	ff		 mov	 DWORD PTR _sndconfig$[ebp+10306], ecx
  01b17	8b 15 08 00 00
	00		 mov	 edx, DWORD PTR ??_C@_0BD@GEKCBGJD@data?2se?2sam_05?4wav?$AA@+8
  01b1d	89 95 42 8c ff
	ff		 mov	 DWORD PTR _sndconfig$[ebp+10310], edx
  01b23	a1 0c 00 00 00	 mov	 eax, DWORD PTR ??_C@_0BD@GEKCBGJD@data?2se?2sam_05?4wav?$AA@+12
  01b28	89 85 46 8c ff
	ff		 mov	 DWORD PTR _sndconfig$[ebp+10314], eax
  01b2e	66 8b 0d 10 00
	00 00		 mov	 cx, WORD PTR ??_C@_0BD@GEKCBGJD@data?2se?2sam_05?4wav?$AA@+16
  01b35	66 89 8d 4a 8c
	ff ff		 mov	 WORD PTR _sndconfig$[ebp+10318], cx
  01b3c	8a 15 12 00 00
	00		 mov	 dl, BYTE PTR ??_C@_0BD@GEKCBGJD@data?2se?2sam_05?4wav?$AA@+18
  01b42	88 95 4c 8c ff
	ff		 mov	 BYTE PTR _sndconfig$[ebp+10320], dl
  01b48	68 b5 00 00 00	 push	 181			; 000000b5H
  01b4d	6a 00		 push	 0
  01b4f	8d 85 4d 8c ff
	ff		 lea	 eax, DWORD PTR _sndconfig$[ebp+10321]
  01b55	50		 push	 eax
  01b56	e8 00 00 00 00	 call	 _memset
  01b5b	83 c4 0c	 add	 esp, 12			; 0000000cH
  01b5e	c6 85 02 8d ff
	ff 7b		 mov	 BYTE PTR _sndconfig$[ebp+10502], 123 ; 0000007bH
  01b65	c6 85 03 8d ff
	ff 00		 mov	 BYTE PTR _sndconfig$[ebp+10503], 0
  01b6c	c6 85 04 8d ff
	ff 00		 mov	 BYTE PTR _sndconfig$[ebp+10504], 0

; 62   : 	{  105,	"data\\se\\sam_06.wav", 123, 0, 0 /*, "????"*/ },

  01b73	b8 69 00 00 00	 mov	 eax, 105		; 00000069H
  01b78	66 89 85 06 8d
	ff ff		 mov	 WORD PTR _sndconfig$[ebp+10506], ax
  01b7f	a1 00 00 00 00	 mov	 eax, DWORD PTR ??_C@_0BD@OCDGGEDN@data?2se?2sam_06?4wav?$AA@
  01b84	89 85 08 8d ff
	ff		 mov	 DWORD PTR _sndconfig$[ebp+10508], eax
  01b8a	8b 0d 04 00 00
	00		 mov	 ecx, DWORD PTR ??_C@_0BD@OCDGGEDN@data?2se?2sam_06?4wav?$AA@+4
  01b90	89 8d 0c 8d ff
	ff		 mov	 DWORD PTR _sndconfig$[ebp+10512], ecx
  01b96	8b 15 08 00 00
	00		 mov	 edx, DWORD PTR ??_C@_0BD@OCDGGEDN@data?2se?2sam_06?4wav?$AA@+8
  01b9c	89 95 10 8d ff
	ff		 mov	 DWORD PTR _sndconfig$[ebp+10516], edx
  01ba2	a1 0c 00 00 00	 mov	 eax, DWORD PTR ??_C@_0BD@OCDGGEDN@data?2se?2sam_06?4wav?$AA@+12
  01ba7	89 85 14 8d ff
	ff		 mov	 DWORD PTR _sndconfig$[ebp+10520], eax
  01bad	66 8b 0d 10 00
	00 00		 mov	 cx, WORD PTR ??_C@_0BD@OCDGGEDN@data?2se?2sam_06?4wav?$AA@+16
  01bb4	66 89 8d 18 8d
	ff ff		 mov	 WORD PTR _sndconfig$[ebp+10524], cx
  01bbb	8a 15 12 00 00
	00		 mov	 dl, BYTE PTR ??_C@_0BD@OCDGGEDN@data?2se?2sam_06?4wav?$AA@+18
  01bc1	88 95 1a 8d ff
	ff		 mov	 BYTE PTR _sndconfig$[ebp+10526], dl
  01bc7	68 b5 00 00 00	 push	 181			; 000000b5H
  01bcc	6a 00		 push	 0
  01bce	8d 85 1b 8d ff
	ff		 lea	 eax, DWORD PTR _sndconfig$[ebp+10527]
  01bd4	50		 push	 eax
  01bd5	e8 00 00 00 00	 call	 _memset
  01bda	83 c4 0c	 add	 esp, 12			; 0000000cH
  01bdd	c6 85 d0 8d ff
	ff 7b		 mov	 BYTE PTR _sndconfig$[ebp+10708], 123 ; 0000007bH
  01be4	c6 85 d1 8d ff
	ff 00		 mov	 BYTE PTR _sndconfig$[ebp+10709], 0
  01beb	c6 85 d2 8d ff
	ff 00		 mov	 BYTE PTR _sndconfig$[ebp+10710], 0

; 63   : 	{  106,	"data\\se\\sam_07.wav", 123, 0, 0 /*, "????"*/ },

  01bf2	b8 6a 00 00 00	 mov	 eax, 106		; 0000006aH
  01bf7	66 89 85 d4 8d
	ff ff		 mov	 WORD PTR _sndconfig$[ebp+10712], ax
  01bfe	a1 00 00 00 00	 mov	 eax, DWORD PTR ??_C@_0BD@CJGKLHJI@data?2se?2sam_07?4wav?$AA@
  01c03	89 85 d6 8d ff
	ff		 mov	 DWORD PTR _sndconfig$[ebp+10714], eax
  01c09	8b 0d 04 00 00
	00		 mov	 ecx, DWORD PTR ??_C@_0BD@CJGKLHJI@data?2se?2sam_07?4wav?$AA@+4
  01c0f	89 8d da 8d ff
	ff		 mov	 DWORD PTR _sndconfig$[ebp+10718], ecx
  01c15	8b 15 08 00 00
	00		 mov	 edx, DWORD PTR ??_C@_0BD@CJGKLHJI@data?2se?2sam_07?4wav?$AA@+8
  01c1b	89 95 de 8d ff
	ff		 mov	 DWORD PTR _sndconfig$[ebp+10722], edx
  01c21	a1 0c 00 00 00	 mov	 eax, DWORD PTR ??_C@_0BD@CJGKLHJI@data?2se?2sam_07?4wav?$AA@+12
  01c26	89 85 e2 8d ff
	ff		 mov	 DWORD PTR _sndconfig$[ebp+10726], eax
  01c2c	66 8b 0d 10 00
	00 00		 mov	 cx, WORD PTR ??_C@_0BD@CJGKLHJI@data?2se?2sam_07?4wav?$AA@+16
  01c33	66 89 8d e6 8d
	ff ff		 mov	 WORD PTR _sndconfig$[ebp+10730], cx
  01c3a	8a 15 12 00 00
	00		 mov	 dl, BYTE PTR ??_C@_0BD@CJGKLHJI@data?2se?2sam_07?4wav?$AA@+18
  01c40	88 95 e8 8d ff
	ff		 mov	 BYTE PTR _sndconfig$[ebp+10732], dl
  01c46	68 b5 00 00 00	 push	 181			; 000000b5H
  01c4b	6a 00		 push	 0
  01c4d	8d 85 e9 8d ff
	ff		 lea	 eax, DWORD PTR _sndconfig$[ebp+10733]
  01c53	50		 push	 eax
  01c54	e8 00 00 00 00	 call	 _memset
  01c59	83 c4 0c	 add	 esp, 12			; 0000000cH
  01c5c	c6 85 9e 8e ff
	ff 7b		 mov	 BYTE PTR _sndconfig$[ebp+10914], 123 ; 0000007bH
  01c63	c6 85 9f 8e ff
	ff 00		 mov	 BYTE PTR _sndconfig$[ebp+10915], 0
  01c6a	c6 85 a0 8e ff
	ff 00		 mov	 BYTE PTR _sndconfig$[ebp+10916], 0

; 64   : 	{  107,	"data\\se\\sam_08.wav", 123, 0, 0 /*, "?????"*/ },

  01c71	b8 6b 00 00 00	 mov	 eax, 107		; 0000006bH
  01c76	66 89 85 a2 8e
	ff ff		 mov	 WORD PTR _sndconfig$[ebp+10918], ax
  01c7d	a1 00 00 00 00	 mov	 eax, DWORD PTR ??_C@_0BD@NIDMAFEN@data?2se?2sam_08?4wav?$AA@
  01c82	89 85 a4 8e ff
	ff		 mov	 DWORD PTR _sndconfig$[ebp+10920], eax
  01c88	8b 0d 04 00 00
	00		 mov	 ecx, DWORD PTR ??_C@_0BD@NIDMAFEN@data?2se?2sam_08?4wav?$AA@+4
  01c8e	89 8d a8 8e ff
	ff		 mov	 DWORD PTR _sndconfig$[ebp+10924], ecx
  01c94	8b 15 08 00 00
	00		 mov	 edx, DWORD PTR ??_C@_0BD@NIDMAFEN@data?2se?2sam_08?4wav?$AA@+8
  01c9a	89 95 ac 8e ff
	ff		 mov	 DWORD PTR _sndconfig$[ebp+10928], edx
  01ca0	a1 0c 00 00 00	 mov	 eax, DWORD PTR ??_C@_0BD@NIDMAFEN@data?2se?2sam_08?4wav?$AA@+12
  01ca5	89 85 b0 8e ff
	ff		 mov	 DWORD PTR _sndconfig$[ebp+10932], eax
  01cab	66 8b 0d 10 00
	00 00		 mov	 cx, WORD PTR ??_C@_0BD@NIDMAFEN@data?2se?2sam_08?4wav?$AA@+16
  01cb2	66 89 8d b4 8e
	ff ff		 mov	 WORD PTR _sndconfig$[ebp+10936], cx
  01cb9	8a 15 12 00 00
	00		 mov	 dl, BYTE PTR ??_C@_0BD@NIDMAFEN@data?2se?2sam_08?4wav?$AA@+18
  01cbf	88 95 b6 8e ff
	ff		 mov	 BYTE PTR _sndconfig$[ebp+10938], dl
  01cc5	68 b5 00 00 00	 push	 181			; 000000b5H
  01cca	6a 00		 push	 0
  01ccc	8d 85 b7 8e ff
	ff		 lea	 eax, DWORD PTR _sndconfig$[ebp+10939]
  01cd2	50		 push	 eax
  01cd3	e8 00 00 00 00	 call	 _memset
  01cd8	83 c4 0c	 add	 esp, 12			; 0000000cH
  01cdb	c6 85 6c 8f ff
	ff 7b		 mov	 BYTE PTR _sndconfig$[ebp+11120], 123 ; 0000007bH
  01ce2	c6 85 6d 8f ff
	ff 00		 mov	 BYTE PTR _sndconfig$[ebp+11121], 0
  01ce9	c6 85 6e 8f ff
	ff 00		 mov	 BYTE PTR _sndconfig$[ebp+11122], 0

; 65   : 	{  108,	"data\\se\\sam_09.wav", 123, 0, 0 /*, "????"*/ },

  01cf0	b8 6c 00 00 00	 mov	 eax, 108		; 0000006cH
  01cf5	66 89 85 70 8f
	ff ff		 mov	 WORD PTR _sndconfig$[ebp+11124], ax
  01cfc	a1 00 00 00 00	 mov	 eax, DWORD PTR ??_C@_0BD@BDGANGOI@data?2se?2sam_09?4wav?$AA@
  01d01	89 85 72 8f ff
	ff		 mov	 DWORD PTR _sndconfig$[ebp+11126], eax
  01d07	8b 0d 04 00 00
	00		 mov	 ecx, DWORD PTR ??_C@_0BD@BDGANGOI@data?2se?2sam_09?4wav?$AA@+4
  01d0d	89 8d 76 8f ff
	ff		 mov	 DWORD PTR _sndconfig$[ebp+11130], ecx
  01d13	8b 15 08 00 00
	00		 mov	 edx, DWORD PTR ??_C@_0BD@BDGANGOI@data?2se?2sam_09?4wav?$AA@+8
  01d19	89 95 7a 8f ff
	ff		 mov	 DWORD PTR _sndconfig$[ebp+11134], edx
  01d1f	a1 0c 00 00 00	 mov	 eax, DWORD PTR ??_C@_0BD@BDGANGOI@data?2se?2sam_09?4wav?$AA@+12
  01d24	89 85 7e 8f ff
	ff		 mov	 DWORD PTR _sndconfig$[ebp+11138], eax
  01d2a	66 8b 0d 10 00
	00 00		 mov	 cx, WORD PTR ??_C@_0BD@BDGANGOI@data?2se?2sam_09?4wav?$AA@+16
  01d31	66 89 8d 82 8f
	ff ff		 mov	 WORD PTR _sndconfig$[ebp+11142], cx
  01d38	8a 15 12 00 00
	00		 mov	 dl, BYTE PTR ??_C@_0BD@BDGANGOI@data?2se?2sam_09?4wav?$AA@+18
  01d3e	88 95 84 8f ff
	ff		 mov	 BYTE PTR _sndconfig$[ebp+11144], dl
  01d44	68 b5 00 00 00	 push	 181			; 000000b5H
  01d49	6a 00		 push	 0
  01d4b	8d 85 85 8f ff
	ff		 lea	 eax, DWORD PTR _sndconfig$[ebp+11145]
  01d51	50		 push	 eax
  01d52	e8 00 00 00 00	 call	 _memset
  01d57	83 c4 0c	 add	 esp, 12			; 0000000cH
  01d5a	c6 85 3a 90 ff
	ff 7b		 mov	 BYTE PTR _sndconfig$[ebp+11326], 123 ; 0000007bH
  01d61	c6 85 3b 90 ff
	ff 00		 mov	 BYTE PTR _sndconfig$[ebp+11327], 0
  01d68	c6 85 3c 90 ff
	ff 00		 mov	 BYTE PTR _sndconfig$[ebp+11328], 0

; 66   : 	{  109,	"data\\se\\sam_10.wav", 123, 0, 0 /*, "????"*/ },

  01d6f	b8 6d 00 00 00	 mov	 eax, 109		; 0000006dH
  01d74	66 89 85 3e 90
	ff ff		 mov	 WORD PTR _sndconfig$[ebp+11330], ax
  01d7b	a1 00 00 00 00	 mov	 eax, DWORD PTR ??_C@_0BD@JCBIIMJE@data?2se?2sam_10?4wav?$AA@
  01d80	89 85 40 90 ff
	ff		 mov	 DWORD PTR _sndconfig$[ebp+11332], eax
  01d86	8b 0d 04 00 00
	00		 mov	 ecx, DWORD PTR ??_C@_0BD@JCBIIMJE@data?2se?2sam_10?4wav?$AA@+4
  01d8c	89 8d 44 90 ff
	ff		 mov	 DWORD PTR _sndconfig$[ebp+11336], ecx
  01d92	8b 15 08 00 00
	00		 mov	 edx, DWORD PTR ??_C@_0BD@JCBIIMJE@data?2se?2sam_10?4wav?$AA@+8
  01d98	89 95 48 90 ff
	ff		 mov	 DWORD PTR _sndconfig$[ebp+11340], edx
  01d9e	a1 0c 00 00 00	 mov	 eax, DWORD PTR ??_C@_0BD@JCBIIMJE@data?2se?2sam_10?4wav?$AA@+12
  01da3	89 85 4c 90 ff
	ff		 mov	 DWORD PTR _sndconfig$[ebp+11344], eax
  01da9	66 8b 0d 10 00
	00 00		 mov	 cx, WORD PTR ??_C@_0BD@JCBIIMJE@data?2se?2sam_10?4wav?$AA@+16
  01db0	66 89 8d 50 90
	ff ff		 mov	 WORD PTR _sndconfig$[ebp+11348], cx
  01db7	8a 15 12 00 00
	00		 mov	 dl, BYTE PTR ??_C@_0BD@JCBIIMJE@data?2se?2sam_10?4wav?$AA@+18
  01dbd	88 95 52 90 ff
	ff		 mov	 BYTE PTR _sndconfig$[ebp+11350], dl
  01dc3	68 b5 00 00 00	 push	 181			; 000000b5H
  01dc8	6a 00		 push	 0
  01dca	8d 85 53 90 ff
	ff		 lea	 eax, DWORD PTR _sndconfig$[ebp+11351]
  01dd0	50		 push	 eax
  01dd1	e8 00 00 00 00	 call	 _memset
  01dd6	83 c4 0c	 add	 esp, 12			; 0000000cH
  01dd9	c6 85 08 91 ff
	ff 7b		 mov	 BYTE PTR _sndconfig$[ebp+11532], 123 ; 0000007bH
  01de0	c6 85 09 91 ff
	ff 00		 mov	 BYTE PTR _sndconfig$[ebp+11533], 0
  01de7	c6 85 0a 91 ff
	ff 00		 mov	 BYTE PTR _sndconfig$[ebp+11534], 0

; 67   : 	{  110,	"data\\se\\sam_11.wav", 123, 0, 0 /*, "?????"*/ },

  01dee	b8 6e 00 00 00	 mov	 eax, 110		; 0000006eH
  01df3	66 89 85 0c 91
	ff ff		 mov	 WORD PTR _sndconfig$[ebp+11536], ax
  01dfa	a1 00 00 00 00	 mov	 eax, DWORD PTR ??_C@_0BD@FJEEFPDB@data?2se?2sam_11?4wav?$AA@
  01dff	89 85 0e 91 ff
	ff		 mov	 DWORD PTR _sndconfig$[ebp+11538], eax
  01e05	8b 0d 04 00 00
	00		 mov	 ecx, DWORD PTR ??_C@_0BD@FJEEFPDB@data?2se?2sam_11?4wav?$AA@+4
  01e0b	89 8d 12 91 ff
	ff		 mov	 DWORD PTR _sndconfig$[ebp+11542], ecx
  01e11	8b 15 08 00 00
	00		 mov	 edx, DWORD PTR ??_C@_0BD@FJEEFPDB@data?2se?2sam_11?4wav?$AA@+8
  01e17	89 95 16 91 ff
	ff		 mov	 DWORD PTR _sndconfig$[ebp+11546], edx
  01e1d	a1 0c 00 00 00	 mov	 eax, DWORD PTR ??_C@_0BD@FJEEFPDB@data?2se?2sam_11?4wav?$AA@+12
  01e22	89 85 1a 91 ff
	ff		 mov	 DWORD PTR _sndconfig$[ebp+11550], eax
  01e28	66 8b 0d 10 00
	00 00		 mov	 cx, WORD PTR ??_C@_0BD@FJEEFPDB@data?2se?2sam_11?4wav?$AA@+16
  01e2f	66 89 8d 1e 91
	ff ff		 mov	 WORD PTR _sndconfig$[ebp+11554], cx
  01e36	8a 15 12 00 00
	00		 mov	 dl, BYTE PTR ??_C@_0BD@FJEEFPDB@data?2se?2sam_11?4wav?$AA@+18
  01e3c	88 95 20 91 ff
	ff		 mov	 BYTE PTR _sndconfig$[ebp+11556], dl
  01e42	68 b5 00 00 00	 push	 181			; 000000b5H
  01e47	6a 00		 push	 0
  01e49	8d 85 21 91 ff
	ff		 lea	 eax, DWORD PTR _sndconfig$[ebp+11557]
  01e4f	50		 push	 eax
  01e50	e8 00 00 00 00	 call	 _memset
  01e55	83 c4 0c	 add	 esp, 12			; 0000000cH
  01e58	c6 85 d6 91 ff
	ff 7b		 mov	 BYTE PTR _sndconfig$[ebp+11738], 123 ; 0000007bH
  01e5f	c6 85 d7 91 ff
	ff 00		 mov	 BYTE PTR _sndconfig$[ebp+11739], 0
  01e66	c6 85 d8 91 ff
	ff 00		 mov	 BYTE PTR _sndconfig$[ebp+11740], 0

; 68   : 	{  111,	"data\\se\\sam_12.wav", 123, 0, 0 /*, "????"*/ },

  01e6d	b8 6f 00 00 00	 mov	 eax, 111		; 0000006fH
  01e72	66 89 85 da 91
	ff ff		 mov	 WORD PTR _sndconfig$[ebp+11742], ax
  01e79	a1 00 00 00 00	 mov	 eax, DWORD PTR ??_C@_0BD@NPNACNJP@data?2se?2sam_12?4wav?$AA@
  01e7e	89 85 dc 91 ff
	ff		 mov	 DWORD PTR _sndconfig$[ebp+11744], eax
  01e84	8b 0d 04 00 00
	00		 mov	 ecx, DWORD PTR ??_C@_0BD@NPNACNJP@data?2se?2sam_12?4wav?$AA@+4
  01e8a	89 8d e0 91 ff
	ff		 mov	 DWORD PTR _sndconfig$[ebp+11748], ecx
  01e90	8b 15 08 00 00
	00		 mov	 edx, DWORD PTR ??_C@_0BD@NPNACNJP@data?2se?2sam_12?4wav?$AA@+8
  01e96	89 95 e4 91 ff
	ff		 mov	 DWORD PTR _sndconfig$[ebp+11752], edx
  01e9c	a1 0c 00 00 00	 mov	 eax, DWORD PTR ??_C@_0BD@NPNACNJP@data?2se?2sam_12?4wav?$AA@+12
  01ea1	89 85 e8 91 ff
	ff		 mov	 DWORD PTR _sndconfig$[ebp+11756], eax
  01ea7	66 8b 0d 10 00
	00 00		 mov	 cx, WORD PTR ??_C@_0BD@NPNACNJP@data?2se?2sam_12?4wav?$AA@+16
  01eae	66 89 8d ec 91
	ff ff		 mov	 WORD PTR _sndconfig$[ebp+11760], cx
  01eb5	8a 15 12 00 00
	00		 mov	 dl, BYTE PTR ??_C@_0BD@NPNACNJP@data?2se?2sam_12?4wav?$AA@+18
  01ebb	88 95 ee 91 ff
	ff		 mov	 BYTE PTR _sndconfig$[ebp+11762], dl
  01ec1	68 b5 00 00 00	 push	 181			; 000000b5H
  01ec6	6a 00		 push	 0
  01ec8	8d 85 ef 91 ff
	ff		 lea	 eax, DWORD PTR _sndconfig$[ebp+11763]
  01ece	50		 push	 eax
  01ecf	e8 00 00 00 00	 call	 _memset
  01ed4	83 c4 0c	 add	 esp, 12			; 0000000cH
  01ed7	c6 85 a4 92 ff
	ff 7b		 mov	 BYTE PTR _sndconfig$[ebp+11944], 123 ; 0000007bH
  01ede	c6 85 a5 92 ff
	ff 00		 mov	 BYTE PTR _sndconfig$[ebp+11945], 0
  01ee5	c6 85 a6 92 ff
	ff 00		 mov	 BYTE PTR _sndconfig$[ebp+11946], 0

; 69   : 	{  112,	"data\\se\\sam_13.wav", 123, 0, 0 /*, "????"*/ },

  01eec	b8 70 00 00 00	 mov	 eax, 112		; 00000070H
  01ef1	66 89 85 a8 92
	ff ff		 mov	 WORD PTR _sndconfig$[ebp+11948], ax
  01ef8	a1 00 00 00 00	 mov	 eax, DWORD PTR ??_C@_0BD@BEIMPODK@data?2se?2sam_13?4wav?$AA@
  01efd	89 85 aa 92 ff
	ff		 mov	 DWORD PTR _sndconfig$[ebp+11950], eax
  01f03	8b 0d 04 00 00
	00		 mov	 ecx, DWORD PTR ??_C@_0BD@BEIMPODK@data?2se?2sam_13?4wav?$AA@+4
  01f09	89 8d ae 92 ff
	ff		 mov	 DWORD PTR _sndconfig$[ebp+11954], ecx
  01f0f	8b 15 08 00 00
	00		 mov	 edx, DWORD PTR ??_C@_0BD@BEIMPODK@data?2se?2sam_13?4wav?$AA@+8
  01f15	89 95 b2 92 ff
	ff		 mov	 DWORD PTR _sndconfig$[ebp+11958], edx
  01f1b	a1 0c 00 00 00	 mov	 eax, DWORD PTR ??_C@_0BD@BEIMPODK@data?2se?2sam_13?4wav?$AA@+12
  01f20	89 85 b6 92 ff
	ff		 mov	 DWORD PTR _sndconfig$[ebp+11962], eax
  01f26	66 8b 0d 10 00
	00 00		 mov	 cx, WORD PTR ??_C@_0BD@BEIMPODK@data?2se?2sam_13?4wav?$AA@+16
  01f2d	66 89 8d ba 92
	ff ff		 mov	 WORD PTR _sndconfig$[ebp+11966], cx
  01f34	8a 15 12 00 00
	00		 mov	 dl, BYTE PTR ??_C@_0BD@BEIMPODK@data?2se?2sam_13?4wav?$AA@+18
  01f3a	88 95 bc 92 ff
	ff		 mov	 BYTE PTR _sndconfig$[ebp+11968], dl
  01f40	68 b5 00 00 00	 push	 181			; 000000b5H
  01f45	6a 00		 push	 0
  01f47	8d 85 bd 92 ff
	ff		 lea	 eax, DWORD PTR _sndconfig$[ebp+11969]
  01f4d	50		 push	 eax
  01f4e	e8 00 00 00 00	 call	 _memset
  01f53	83 c4 0c	 add	 esp, 12			; 0000000cH
  01f56	c6 85 72 93 ff
	ff 7b		 mov	 BYTE PTR _sndconfig$[ebp+12150], 123 ; 0000007bH
  01f5d	c6 85 73 93 ff
	ff 00		 mov	 BYTE PTR _sndconfig$[ebp+12151], 0
  01f64	c6 85 74 93 ff
	ff 00		 mov	 BYTE PTR _sndconfig$[ebp+12152], 0

; 70   : 	{  113,	"data\\se\\sam_14.wav", 123, 0, 0 /*, "?????"*/ },

  01f6b	b8 71 00 00 00	 mov	 eax, 113		; 00000071H
  01f70	66 89 85 76 93
	ff ff		 mov	 WORD PTR _sndconfig$[ebp+12154], ax
  01f77	a1 00 00 00 00	 mov	 eax, DWORD PTR ??_C@_0BD@JIJMOIC@data?2se?2sam_14?4wav?$AA@
  01f7c	89 85 78 93 ff
	ff		 mov	 DWORD PTR _sndconfig$[ebp+12156], eax
  01f82	8b 0d 04 00 00
	00		 mov	 ecx, DWORD PTR ??_C@_0BD@JIJMOIC@data?2se?2sam_14?4wav?$AA@+4
  01f88	89 8d 7c 93 ff
	ff		 mov	 DWORD PTR _sndconfig$[ebp+12160], ecx
  01f8e	8b 15 08 00 00
	00		 mov	 edx, DWORD PTR ??_C@_0BD@JIJMOIC@data?2se?2sam_14?4wav?$AA@+8
  01f94	89 95 80 93 ff
	ff		 mov	 DWORD PTR _sndconfig$[ebp+12164], edx
  01f9a	a1 0c 00 00 00	 mov	 eax, DWORD PTR ??_C@_0BD@JIJMOIC@data?2se?2sam_14?4wav?$AA@+12
  01f9f	89 85 84 93 ff
	ff		 mov	 DWORD PTR _sndconfig$[ebp+12168], eax
  01fa5	66 8b 0d 10 00
	00 00		 mov	 cx, WORD PTR ??_C@_0BD@JIJMOIC@data?2se?2sam_14?4wav?$AA@+16
  01fac	66 89 8d 88 93
	ff ff		 mov	 WORD PTR _sndconfig$[ebp+12172], cx
  01fb3	8a 15 12 00 00
	00		 mov	 dl, BYTE PTR ??_C@_0BD@JIJMOIC@data?2se?2sam_14?4wav?$AA@+18
  01fb9	88 95 8a 93 ff
	ff		 mov	 BYTE PTR _sndconfig$[ebp+12174], dl
  01fbf	68 b5 00 00 00	 push	 181			; 000000b5H
  01fc4	6a 00		 push	 0
  01fc6	8d 85 8b 93 ff
	ff		 lea	 eax, DWORD PTR _sndconfig$[ebp+12175]
  01fcc	50		 push	 eax
  01fcd	e8 00 00 00 00	 call	 _memset
  01fd2	83 c4 0c	 add	 esp, 12			; 0000000cH
  01fd5	c6 85 40 94 ff
	ff 7b		 mov	 BYTE PTR _sndconfig$[ebp+12356], 123 ; 0000007bH
  01fdc	c6 85 41 94 ff
	ff 00		 mov	 BYTE PTR _sndconfig$[ebp+12357], 0
  01fe3	c6 85 42 94 ff
	ff 00		 mov	 BYTE PTR _sndconfig$[ebp+12358], 0

; 71   : 	{  114,	"data\\se\\sam_15.wav", 85, 0, 0 /*, "?????????"*/ },

  01fea	b8 72 00 00 00	 mov	 eax, 114		; 00000072H
  01fef	66 89 85 44 94
	ff ff		 mov	 WORD PTR _sndconfig$[ebp+12360], ax
  01ff6	a1 00 00 00 00	 mov	 eax, DWORD PTR ??_C@_0BD@MCNFBNCH@data?2se?2sam_15?4wav?$AA@
  01ffb	89 85 46 94 ff
	ff		 mov	 DWORD PTR _sndconfig$[ebp+12362], eax
  02001	8b 0d 04 00 00
	00		 mov	 ecx, DWORD PTR ??_C@_0BD@MCNFBNCH@data?2se?2sam_15?4wav?$AA@+4
  02007	89 8d 4a 94 ff
	ff		 mov	 DWORD PTR _sndconfig$[ebp+12366], ecx
  0200d	8b 15 08 00 00
	00		 mov	 edx, DWORD PTR ??_C@_0BD@MCNFBNCH@data?2se?2sam_15?4wav?$AA@+8
  02013	89 95 4e 94 ff
	ff		 mov	 DWORD PTR _sndconfig$[ebp+12370], edx
  02019	a1 0c 00 00 00	 mov	 eax, DWORD PTR ??_C@_0BD@MCNFBNCH@data?2se?2sam_15?4wav?$AA@+12
  0201e	89 85 52 94 ff
	ff		 mov	 DWORD PTR _sndconfig$[ebp+12374], eax
  02024	66 8b 0d 10 00
	00 00		 mov	 cx, WORD PTR ??_C@_0BD@MCNFBNCH@data?2se?2sam_15?4wav?$AA@+16
  0202b	66 89 8d 56 94
	ff ff		 mov	 WORD PTR _sndconfig$[ebp+12378], cx
  02032	8a 15 12 00 00
	00		 mov	 dl, BYTE PTR ??_C@_0BD@MCNFBNCH@data?2se?2sam_15?4wav?$AA@+18
  02038	88 95 58 94 ff
	ff		 mov	 BYTE PTR _sndconfig$[ebp+12380], dl
  0203e	68 b5 00 00 00	 push	 181			; 000000b5H
  02043	6a 00		 push	 0
  02045	8d 85 59 94 ff
	ff		 lea	 eax, DWORD PTR _sndconfig$[ebp+12381]
  0204b	50		 push	 eax
  0204c	e8 00 00 00 00	 call	 _memset
  02051	83 c4 0c	 add	 esp, 12			; 0000000cH
  02054	c6 85 0e 95 ff
	ff 55		 mov	 BYTE PTR _sndconfig$[ebp+12562], 85 ; 00000055H
  0205b	c6 85 0f 95 ff
	ff 00		 mov	 BYTE PTR _sndconfig$[ebp+12563], 0
  02062	c6 85 10 95 ff
	ff 00		 mov	 BYTE PTR _sndconfig$[ebp+12564], 0

; 72   : 	{  115,	"data\\se\\sam_16.wav", 123, 0, 0 /*, "???"*/ },

  02069	b8 73 00 00 00	 mov	 eax, 115		; 00000073H
  0206e	66 89 85 12 95
	ff ff		 mov	 WORD PTR _sndconfig$[ebp+12566], ax
  02075	a1 00 00 00 00	 mov	 eax, DWORD PTR ??_C@_0BD@EEEBGPIJ@data?2se?2sam_16?4wav?$AA@
  0207a	89 85 14 95 ff
	ff		 mov	 DWORD PTR _sndconfig$[ebp+12568], eax
  02080	8b 0d 04 00 00
	00		 mov	 ecx, DWORD PTR ??_C@_0BD@EEEBGPIJ@data?2se?2sam_16?4wav?$AA@+4
  02086	89 8d 18 95 ff
	ff		 mov	 DWORD PTR _sndconfig$[ebp+12572], ecx
  0208c	8b 15 08 00 00
	00		 mov	 edx, DWORD PTR ??_C@_0BD@EEEBGPIJ@data?2se?2sam_16?4wav?$AA@+8
  02092	89 95 1c 95 ff
	ff		 mov	 DWORD PTR _sndconfig$[ebp+12576], edx
  02098	a1 0c 00 00 00	 mov	 eax, DWORD PTR ??_C@_0BD@EEEBGPIJ@data?2se?2sam_16?4wav?$AA@+12
  0209d	89 85 20 95 ff
	ff		 mov	 DWORD PTR _sndconfig$[ebp+12580], eax
  020a3	66 8b 0d 10 00
	00 00		 mov	 cx, WORD PTR ??_C@_0BD@EEEBGPIJ@data?2se?2sam_16?4wav?$AA@+16
  020aa	66 89 8d 24 95
	ff ff		 mov	 WORD PTR _sndconfig$[ebp+12584], cx
  020b1	8a 15 12 00 00
	00		 mov	 dl, BYTE PTR ??_C@_0BD@EEEBGPIJ@data?2se?2sam_16?4wav?$AA@+18
  020b7	88 95 26 95 ff
	ff		 mov	 BYTE PTR _sndconfig$[ebp+12586], dl
  020bd	68 b5 00 00 00	 push	 181			; 000000b5H
  020c2	6a 00		 push	 0
  020c4	8d 85 27 95 ff
	ff		 lea	 eax, DWORD PTR _sndconfig$[ebp+12587]
  020ca	50		 push	 eax
  020cb	e8 00 00 00 00	 call	 _memset
  020d0	83 c4 0c	 add	 esp, 12			; 0000000cH
  020d3	c6 85 dc 95 ff
	ff 7b		 mov	 BYTE PTR _sndconfig$[ebp+12768], 123 ; 0000007bH
  020da	c6 85 dd 95 ff
	ff 00		 mov	 BYTE PTR _sndconfig$[ebp+12769], 0
  020e1	c6 85 de 95 ff
	ff 00		 mov	 BYTE PTR _sndconfig$[ebp+12770], 0

; 73   : 	{  116,	"data\\se\\sam_17.wav", 123, 0, 0 /*, "?_"*/ },

  020e8	b8 74 00 00 00	 mov	 eax, 116		; 00000074H
  020ed	66 89 85 e0 95
	ff ff		 mov	 WORD PTR _sndconfig$[ebp+12772], ax
  020f4	a1 00 00 00 00	 mov	 eax, DWORD PTR ??_C@_0BD@IPBNLMCM@data?2se?2sam_17?4wav?$AA@
  020f9	89 85 e2 95 ff
	ff		 mov	 DWORD PTR _sndconfig$[ebp+12774], eax
  020ff	8b 0d 04 00 00
	00		 mov	 ecx, DWORD PTR ??_C@_0BD@IPBNLMCM@data?2se?2sam_17?4wav?$AA@+4
  02105	89 8d e6 95 ff
	ff		 mov	 DWORD PTR _sndconfig$[ebp+12778], ecx
  0210b	8b 15 08 00 00
	00		 mov	 edx, DWORD PTR ??_C@_0BD@IPBNLMCM@data?2se?2sam_17?4wav?$AA@+8
  02111	89 95 ea 95 ff
	ff		 mov	 DWORD PTR _sndconfig$[ebp+12782], edx
  02117	a1 0c 00 00 00	 mov	 eax, DWORD PTR ??_C@_0BD@IPBNLMCM@data?2se?2sam_17?4wav?$AA@+12
  0211c	89 85 ee 95 ff
	ff		 mov	 DWORD PTR _sndconfig$[ebp+12786], eax
  02122	66 8b 0d 10 00
	00 00		 mov	 cx, WORD PTR ??_C@_0BD@IPBNLMCM@data?2se?2sam_17?4wav?$AA@+16
  02129	66 89 8d f2 95
	ff ff		 mov	 WORD PTR _sndconfig$[ebp+12790], cx
  02130	8a 15 12 00 00
	00		 mov	 dl, BYTE PTR ??_C@_0BD@IPBNLMCM@data?2se?2sam_17?4wav?$AA@+18
  02136	88 95 f4 95 ff
	ff		 mov	 BYTE PTR _sndconfig$[ebp+12792], dl
  0213c	68 b5 00 00 00	 push	 181			; 000000b5H
  02141	6a 00		 push	 0
  02143	8d 85 f5 95 ff
	ff		 lea	 eax, DWORD PTR _sndconfig$[ebp+12793]
  02149	50		 push	 eax
  0214a	e8 00 00 00 00	 call	 _memset
  0214f	83 c4 0c	 add	 esp, 12			; 0000000cH
  02152	c6 85 aa 96 ff
	ff 7b		 mov	 BYTE PTR _sndconfig$[ebp+12974], 123 ; 0000007bH
  02159	c6 85 ab 96 ff
	ff 00		 mov	 BYTE PTR _sndconfig$[ebp+12975], 0
  02160	c6 85 ac 96 ff
	ff 00		 mov	 BYTE PTR _sndconfig$[ebp+12976], 0

; 74   : 	{  117,	"data\\se\\sam_18.wav", 123, 0, 0 /*, "????"*/ },

  02167	b8 75 00 00 00	 mov	 eax, 117		; 00000075H
  0216c	66 89 85 ae 96
	ff ff		 mov	 WORD PTR _sndconfig$[ebp+12978], ax
  02173	a1 00 00 00 00	 mov	 eax, DWORD PTR ??_C@_0BD@HOELAOPJ@data?2se?2sam_18?4wav?$AA@
  02178	89 85 b0 96 ff
	ff		 mov	 DWORD PTR _sndconfig$[ebp+12980], eax
  0217e	8b 0d 04 00 00
	00		 mov	 ecx, DWORD PTR ??_C@_0BD@HOELAOPJ@data?2se?2sam_18?4wav?$AA@+4
  02184	89 8d b4 96 ff
	ff		 mov	 DWORD PTR _sndconfig$[ebp+12984], ecx
  0218a	8b 15 08 00 00
	00		 mov	 edx, DWORD PTR ??_C@_0BD@HOELAOPJ@data?2se?2sam_18?4wav?$AA@+8
  02190	89 95 b8 96 ff
	ff		 mov	 DWORD PTR _sndconfig$[ebp+12988], edx
  02196	a1 0c 00 00 00	 mov	 eax, DWORD PTR ??_C@_0BD@HOELAOPJ@data?2se?2sam_18?4wav?$AA@+12
  0219b	89 85 bc 96 ff
	ff		 mov	 DWORD PTR _sndconfig$[ebp+12992], eax
  021a1	66 8b 0d 10 00
	00 00		 mov	 cx, WORD PTR ??_C@_0BD@HOELAOPJ@data?2se?2sam_18?4wav?$AA@+16
  021a8	66 89 8d c0 96
	ff ff		 mov	 WORD PTR _sndconfig$[ebp+12996], cx
  021af	8a 15 12 00 00
	00		 mov	 dl, BYTE PTR ??_C@_0BD@HOELAOPJ@data?2se?2sam_18?4wav?$AA@+18
  021b5	88 95 c2 96 ff
	ff		 mov	 BYTE PTR _sndconfig$[ebp+12998], dl
  021bb	68 b5 00 00 00	 push	 181			; 000000b5H
  021c0	6a 00		 push	 0
  021c2	8d 85 c3 96 ff
	ff		 lea	 eax, DWORD PTR _sndconfig$[ebp+12999]
  021c8	50		 push	 eax
  021c9	e8 00 00 00 00	 call	 _memset
  021ce	83 c4 0c	 add	 esp, 12			; 0000000cH
  021d1	c6 85 78 97 ff
	ff 7b		 mov	 BYTE PTR _sndconfig$[ebp+13180], 123 ; 0000007bH
  021d8	c6 85 79 97 ff
	ff 00		 mov	 BYTE PTR _sndconfig$[ebp+13181], 0
  021df	c6 85 7a 97 ff
	ff 00		 mov	 BYTE PTR _sndconfig$[ebp+13182], 0

; 75   : 	{  118,	"data\\se\\sam_19.wav", 123, 0, 0 /*, "??"*/ },

  021e6	b8 76 00 00 00	 mov	 eax, 118		; 00000076H
  021eb	66 89 85 7c 97
	ff ff		 mov	 WORD PTR _sndconfig$[ebp+13184], ax
  021f2	a1 00 00 00 00	 mov	 eax, DWORD PTR ??_C@_0BD@LFBHNNFM@data?2se?2sam_19?4wav?$AA@
  021f7	89 85 7e 97 ff
	ff		 mov	 DWORD PTR _sndconfig$[ebp+13186], eax
  021fd	8b 0d 04 00 00
	00		 mov	 ecx, DWORD PTR ??_C@_0BD@LFBHNNFM@data?2se?2sam_19?4wav?$AA@+4
  02203	89 8d 82 97 ff
	ff		 mov	 DWORD PTR _sndconfig$[ebp+13190], ecx
  02209	8b 15 08 00 00
	00		 mov	 edx, DWORD PTR ??_C@_0BD@LFBHNNFM@data?2se?2sam_19?4wav?$AA@+8
  0220f	89 95 86 97 ff
	ff		 mov	 DWORD PTR _sndconfig$[ebp+13194], edx
  02215	a1 0c 00 00 00	 mov	 eax, DWORD PTR ??_C@_0BD@LFBHNNFM@data?2se?2sam_19?4wav?$AA@+12
  0221a	89 85 8a 97 ff
	ff		 mov	 DWORD PTR _sndconfig$[ebp+13198], eax
  02220	66 8b 0d 10 00
	00 00		 mov	 cx, WORD PTR ??_C@_0BD@LFBHNNFM@data?2se?2sam_19?4wav?$AA@+16
  02227	66 89 8d 8e 97
	ff ff		 mov	 WORD PTR _sndconfig$[ebp+13202], cx
  0222e	8a 15 12 00 00
	00		 mov	 dl, BYTE PTR ??_C@_0BD@LFBHNNFM@data?2se?2sam_19?4wav?$AA@+18
  02234	88 95 90 97 ff
	ff		 mov	 BYTE PTR _sndconfig$[ebp+13204], dl
  0223a	68 b5 00 00 00	 push	 181			; 000000b5H
  0223f	6a 00		 push	 0
  02241	8d 85 91 97 ff
	ff		 lea	 eax, DWORD PTR _sndconfig$[ebp+13205]
  02247	50		 push	 eax
  02248	e8 00 00 00 00	 call	 _memset
  0224d	83 c4 0c	 add	 esp, 12			; 0000000cH
  02250	c6 85 46 98 ff
	ff 7b		 mov	 BYTE PTR _sndconfig$[ebp+13386], 123 ; 0000007bH
  02257	c6 85 47 98 ff
	ff 00		 mov	 BYTE PTR _sndconfig$[ebp+13387], 0
  0225e	c6 85 48 98 ff
	ff 00		 mov	 BYTE PTR _sndconfig$[ebp+13388], 0

; 76   : 	{  119,	"data\\se\\sam_20.wav", 123, 0, 0 /*, "?"*/ },

  02265	b8 77 00 00 00	 mov	 eax, 119		; 00000077H
  0226a	66 89 85 4a 98
	ff ff		 mov	 WORD PTR _sndconfig$[ebp+13390], ax
  02271	a1 00 00 00 00	 mov	 eax, DWORD PTR ??_C@_0BD@KDPAJGAJ@data?2se?2sam_20?4wav?$AA@
  02276	89 85 4c 98 ff
	ff		 mov	 DWORD PTR _sndconfig$[ebp+13392], eax
  0227c	8b 0d 04 00 00
	00		 mov	 ecx, DWORD PTR ??_C@_0BD@KDPAJGAJ@data?2se?2sam_20?4wav?$AA@+4
  02282	89 8d 50 98 ff
	ff		 mov	 DWORD PTR _sndconfig$[ebp+13396], ecx
  02288	8b 15 08 00 00
	00		 mov	 edx, DWORD PTR ??_C@_0BD@KDPAJGAJ@data?2se?2sam_20?4wav?$AA@+8
  0228e	89 95 54 98 ff
	ff		 mov	 DWORD PTR _sndconfig$[ebp+13400], edx
  02294	a1 0c 00 00 00	 mov	 eax, DWORD PTR ??_C@_0BD@KDPAJGAJ@data?2se?2sam_20?4wav?$AA@+12
  02299	89 85 58 98 ff
	ff		 mov	 DWORD PTR _sndconfig$[ebp+13404], eax
  0229f	66 8b 0d 10 00
	00 00		 mov	 cx, WORD PTR ??_C@_0BD@KDPAJGAJ@data?2se?2sam_20?4wav?$AA@+16
  022a6	66 89 8d 5c 98
	ff ff		 mov	 WORD PTR _sndconfig$[ebp+13408], cx
  022ad	8a 15 12 00 00
	00		 mov	 dl, BYTE PTR ??_C@_0BD@KDPAJGAJ@data?2se?2sam_20?4wav?$AA@+18
  022b3	88 95 5e 98 ff
	ff		 mov	 BYTE PTR _sndconfig$[ebp+13410], dl
  022b9	68 b5 00 00 00	 push	 181			; 000000b5H
  022be	6a 00		 push	 0
  022c0	8d 85 5f 98 ff
	ff		 lea	 eax, DWORD PTR _sndconfig$[ebp+13411]
  022c6	50		 push	 eax
  022c7	e8 00 00 00 00	 call	 _memset
  022cc	83 c4 0c	 add	 esp, 12			; 0000000cH
  022cf	c6 85 14 99 ff
	ff 7b		 mov	 BYTE PTR _sndconfig$[ebp+13592], 123 ; 0000007bH
  022d6	c6 85 15 99 ff
	ff 00		 mov	 BYTE PTR _sndconfig$[ebp+13593], 0
  022dd	c6 85 16 99 ff
	ff 00		 mov	 BYTE PTR _sndconfig$[ebp+13594], 0

; 77   : 	{  120,	"data\\se\\sam_21.wav", 123, 0, 0 /*, "?"*/ },

  022e4	b8 78 00 00 00	 mov	 eax, 120		; 00000078H
  022e9	66 89 85 18 99
	ff ff		 mov	 WORD PTR _sndconfig$[ebp+13596], ax
  022f0	a1 00 00 00 00	 mov	 eax, DWORD PTR ??_C@_0BD@GIKMEFKM@data?2se?2sam_21?4wav?$AA@
  022f5	89 85 1a 99 ff
	ff		 mov	 DWORD PTR _sndconfig$[ebp+13598], eax
  022fb	8b 0d 04 00 00
	00		 mov	 ecx, DWORD PTR ??_C@_0BD@GIKMEFKM@data?2se?2sam_21?4wav?$AA@+4
  02301	89 8d 1e 99 ff
	ff		 mov	 DWORD PTR _sndconfig$[ebp+13602], ecx
  02307	8b 15 08 00 00
	00		 mov	 edx, DWORD PTR ??_C@_0BD@GIKMEFKM@data?2se?2sam_21?4wav?$AA@+8
  0230d	89 95 22 99 ff
	ff		 mov	 DWORD PTR _sndconfig$[ebp+13606], edx
  02313	a1 0c 00 00 00	 mov	 eax, DWORD PTR ??_C@_0BD@GIKMEFKM@data?2se?2sam_21?4wav?$AA@+12
  02318	89 85 26 99 ff
	ff		 mov	 DWORD PTR _sndconfig$[ebp+13610], eax
  0231e	66 8b 0d 10 00
	00 00		 mov	 cx, WORD PTR ??_C@_0BD@GIKMEFKM@data?2se?2sam_21?4wav?$AA@+16
  02325	66 89 8d 2a 99
	ff ff		 mov	 WORD PTR _sndconfig$[ebp+13614], cx
  0232c	8a 15 12 00 00
	00		 mov	 dl, BYTE PTR ??_C@_0BD@GIKMEFKM@data?2se?2sam_21?4wav?$AA@+18
  02332	88 95 2c 99 ff
	ff		 mov	 BYTE PTR _sndconfig$[ebp+13616], dl
  02338	68 b5 00 00 00	 push	 181			; 000000b5H
  0233d	6a 00		 push	 0
  0233f	8d 85 2d 99 ff
	ff		 lea	 eax, DWORD PTR _sndconfig$[ebp+13617]
  02345	50		 push	 eax
  02346	e8 00 00 00 00	 call	 _memset
  0234b	83 c4 0c	 add	 esp, 12			; 0000000cH
  0234e	c6 85 e2 99 ff
	ff 7b		 mov	 BYTE PTR _sndconfig$[ebp+13798], 123 ; 0000007bH
  02355	c6 85 e3 99 ff
	ff 00		 mov	 BYTE PTR _sndconfig$[ebp+13799], 0
  0235c	c6 85 e4 99 ff
	ff 00		 mov	 BYTE PTR _sndconfig$[ebp+13800], 0

; 78   : 	{  121,	"data\\se\\sam_22.wav", 123, 0, 0 /*, ""*/ },

  02363	b8 79 00 00 00	 mov	 eax, 121		; 00000079H
  02368	66 89 85 e6 99
	ff ff		 mov	 WORD PTR _sndconfig$[ebp+13802], ax
  0236f	a1 00 00 00 00	 mov	 eax, DWORD PTR ??_C@_0BD@OODIDHAC@data?2se?2sam_22?4wav?$AA@
  02374	89 85 e8 99 ff
	ff		 mov	 DWORD PTR _sndconfig$[ebp+13804], eax
  0237a	8b 0d 04 00 00
	00		 mov	 ecx, DWORD PTR ??_C@_0BD@OODIDHAC@data?2se?2sam_22?4wav?$AA@+4
  02380	89 8d ec 99 ff
	ff		 mov	 DWORD PTR _sndconfig$[ebp+13808], ecx
  02386	8b 15 08 00 00
	00		 mov	 edx, DWORD PTR ??_C@_0BD@OODIDHAC@data?2se?2sam_22?4wav?$AA@+8
  0238c	89 95 f0 99 ff
	ff		 mov	 DWORD PTR _sndconfig$[ebp+13812], edx
  02392	a1 0c 00 00 00	 mov	 eax, DWORD PTR ??_C@_0BD@OODIDHAC@data?2se?2sam_22?4wav?$AA@+12
  02397	89 85 f4 99 ff
	ff		 mov	 DWORD PTR _sndconfig$[ebp+13816], eax
  0239d	66 8b 0d 10 00
	00 00		 mov	 cx, WORD PTR ??_C@_0BD@OODIDHAC@data?2se?2sam_22?4wav?$AA@+16
  023a4	66 89 8d f8 99
	ff ff		 mov	 WORD PTR _sndconfig$[ebp+13820], cx
  023ab	8a 15 12 00 00
	00		 mov	 dl, BYTE PTR ??_C@_0BD@OODIDHAC@data?2se?2sam_22?4wav?$AA@+18
  023b1	88 95 fa 99 ff
	ff		 mov	 BYTE PTR _sndconfig$[ebp+13822], dl
  023b7	68 b5 00 00 00	 push	 181			; 000000b5H
  023bc	6a 00		 push	 0
  023be	8d 85 fb 99 ff
	ff		 lea	 eax, DWORD PTR _sndconfig$[ebp+13823]
  023c4	50		 push	 eax
  023c5	e8 00 00 00 00	 call	 _memset
  023ca	83 c4 0c	 add	 esp, 12			; 0000000cH
  023cd	c6 85 b0 9a ff
	ff 7b		 mov	 BYTE PTR _sndconfig$[ebp+14004], 123 ; 0000007bH
  023d4	c6 85 b1 9a ff
	ff 00		 mov	 BYTE PTR _sndconfig$[ebp+14005], 0
  023db	c6 85 b2 9a ff
	ff 00		 mov	 BYTE PTR _sndconfig$[ebp+14006], 0

; 79   : 	{  122,	"data\\se\\sam_23.wav", 123, 0, 0 /*, "?d"*/ },

  023e2	b8 7a 00 00 00	 mov	 eax, 122		; 0000007aH
  023e7	66 89 85 b4 9a
	ff ff		 mov	 WORD PTR _sndconfig$[ebp+14008], ax
  023ee	a1 00 00 00 00	 mov	 eax, DWORD PTR ??_C@_0BD@CFGEOEKH@data?2se?2sam_23?4wav?$AA@
  023f3	89 85 b6 9a ff
	ff		 mov	 DWORD PTR _sndconfig$[ebp+14010], eax
  023f9	8b 0d 04 00 00
	00		 mov	 ecx, DWORD PTR ??_C@_0BD@CFGEOEKH@data?2se?2sam_23?4wav?$AA@+4
  023ff	89 8d ba 9a ff
	ff		 mov	 DWORD PTR _sndconfig$[ebp+14014], ecx
  02405	8b 15 08 00 00
	00		 mov	 edx, DWORD PTR ??_C@_0BD@CFGEOEKH@data?2se?2sam_23?4wav?$AA@+8
  0240b	89 95 be 9a ff
	ff		 mov	 DWORD PTR _sndconfig$[ebp+14018], edx
  02411	a1 0c 00 00 00	 mov	 eax, DWORD PTR ??_C@_0BD@CFGEOEKH@data?2se?2sam_23?4wav?$AA@+12
  02416	89 85 c2 9a ff
	ff		 mov	 DWORD PTR _sndconfig$[ebp+14022], eax
  0241c	66 8b 0d 10 00
	00 00		 mov	 cx, WORD PTR ??_C@_0BD@CFGEOEKH@data?2se?2sam_23?4wav?$AA@+16
  02423	66 89 8d c6 9a
	ff ff		 mov	 WORD PTR _sndconfig$[ebp+14026], cx
  0242a	8a 15 12 00 00
	00		 mov	 dl, BYTE PTR ??_C@_0BD@CFGEOEKH@data?2se?2sam_23?4wav?$AA@+18
  02430	88 95 c8 9a ff
	ff		 mov	 BYTE PTR _sndconfig$[ebp+14028], dl
  02436	68 b5 00 00 00	 push	 181			; 000000b5H
  0243b	6a 00		 push	 0
  0243d	8d 85 c9 9a ff
	ff		 lea	 eax, DWORD PTR _sndconfig$[ebp+14029]
  02443	50		 push	 eax
  02444	e8 00 00 00 00	 call	 _memset
  02449	83 c4 0c	 add	 esp, 12			; 0000000cH
  0244c	c6 85 7e 9b ff
	ff 7b		 mov	 BYTE PTR _sndconfig$[ebp+14210], 123 ; 0000007bH
  02453	c6 85 7f 9b ff
	ff 00		 mov	 BYTE PTR _sndconfig$[ebp+14211], 0
  0245a	c6 85 80 9b ff
	ff 00		 mov	 BYTE PTR _sndconfig$[ebp+14212], 0

; 80   : 	{  123,	"data\\se\\sam_24.wav", 123, 0, 0 /*, "?"*/ },

  02461	b8 7b 00 00 00	 mov	 eax, 123		; 0000007bH
  02466	66 89 85 82 9b
	ff ff		 mov	 WORD PTR _sndconfig$[ebp+14214], ax
  0246d	a1 00 00 00 00	 mov	 eax, DWORD PTR ??_C@_0BD@DIGBNEBP@data?2se?2sam_24?4wav?$AA@
  02472	89 85 84 9b ff
	ff		 mov	 DWORD PTR _sndconfig$[ebp+14216], eax
  02478	8b 0d 04 00 00
	00		 mov	 ecx, DWORD PTR ??_C@_0BD@DIGBNEBP@data?2se?2sam_24?4wav?$AA@+4
  0247e	89 8d 88 9b ff
	ff		 mov	 DWORD PTR _sndconfig$[ebp+14220], ecx
  02484	8b 15 08 00 00
	00		 mov	 edx, DWORD PTR ??_C@_0BD@DIGBNEBP@data?2se?2sam_24?4wav?$AA@+8
  0248a	89 95 8c 9b ff
	ff		 mov	 DWORD PTR _sndconfig$[ebp+14224], edx
  02490	a1 0c 00 00 00	 mov	 eax, DWORD PTR ??_C@_0BD@DIGBNEBP@data?2se?2sam_24?4wav?$AA@+12
  02495	89 85 90 9b ff
	ff		 mov	 DWORD PTR _sndconfig$[ebp+14228], eax
  0249b	66 8b 0d 10 00
	00 00		 mov	 cx, WORD PTR ??_C@_0BD@DIGBNEBP@data?2se?2sam_24?4wav?$AA@+16
  024a2	66 89 8d 94 9b
	ff ff		 mov	 WORD PTR _sndconfig$[ebp+14232], cx
  024a9	8a 15 12 00 00
	00		 mov	 dl, BYTE PTR ??_C@_0BD@DIGBNEBP@data?2se?2sam_24?4wav?$AA@+18
  024af	88 95 96 9b ff
	ff		 mov	 BYTE PTR _sndconfig$[ebp+14234], dl
  024b5	68 b5 00 00 00	 push	 181			; 000000b5H
  024ba	6a 00		 push	 0
  024bc	8d 85 97 9b ff
	ff		 lea	 eax, DWORD PTR _sndconfig$[ebp+14235]
  024c2	50		 push	 eax
  024c3	e8 00 00 00 00	 call	 _memset
  024c8	83 c4 0c	 add	 esp, 12			; 0000000cH
  024cb	c6 85 4c 9c ff
	ff 7b		 mov	 BYTE PTR _sndconfig$[ebp+14416], 123 ; 0000007bH
  024d2	c6 85 4d 9c ff
	ff 00		 mov	 BYTE PTR _sndconfig$[ebp+14417], 0
  024d9	c6 85 4e 9c ff
	ff 00		 mov	 BYTE PTR _sndconfig$[ebp+14418], 0

; 81   : 
; 82   : 	// ??
; 83   : //	{  151,	"data\\se\\sak_01.wav", 121, 0, 1 /*, "????"*/ },
; 84   : //	{  152,	"data\\se\\sak_02.wav", 121, 0, 1 /*, "???]?"*/ },
; 85   : 	{  151,	"data\\se\\sak_01.wav", 127, 0, 1 /*, "?????"*/ },

  024e0	b8 97 00 00 00	 mov	 eax, 151		; 00000097H
  024e5	66 89 85 50 9c
	ff ff		 mov	 WORD PTR _sndconfig$[ebp+14420], ax
  024ec	a1 00 00 00 00	 mov	 eax, DWORD PTR ??_C@_0BD@IMCJCNAP@data?2se?2sak_01?4wav?$AA@
  024f1	89 85 52 9c ff
	ff		 mov	 DWORD PTR _sndconfig$[ebp+14422], eax
  024f7	8b 0d 04 00 00
	00		 mov	 ecx, DWORD PTR ??_C@_0BD@IMCJCNAP@data?2se?2sak_01?4wav?$AA@+4
  024fd	89 8d 56 9c ff
	ff		 mov	 DWORD PTR _sndconfig$[ebp+14426], ecx
  02503	8b 15 08 00 00
	00		 mov	 edx, DWORD PTR ??_C@_0BD@IMCJCNAP@data?2se?2sak_01?4wav?$AA@+8
  02509	89 95 5a 9c ff
	ff		 mov	 DWORD PTR _sndconfig$[ebp+14430], edx
  0250f	a1 0c 00 00 00	 mov	 eax, DWORD PTR ??_C@_0BD@IMCJCNAP@data?2se?2sak_01?4wav?$AA@+12
  02514	89 85 5e 9c ff
	ff		 mov	 DWORD PTR _sndconfig$[ebp+14434], eax
  0251a	66 8b 0d 10 00
	00 00		 mov	 cx, WORD PTR ??_C@_0BD@IMCJCNAP@data?2se?2sak_01?4wav?$AA@+16
  02521	66 89 8d 62 9c
	ff ff		 mov	 WORD PTR _sndconfig$[ebp+14438], cx
  02528	8a 15 12 00 00
	00		 mov	 dl, BYTE PTR ??_C@_0BD@IMCJCNAP@data?2se?2sak_01?4wav?$AA@+18
  0252e	88 95 64 9c ff
	ff		 mov	 BYTE PTR _sndconfig$[ebp+14440], dl
  02534	68 b5 00 00 00	 push	 181			; 000000b5H
  02539	6a 00		 push	 0
  0253b	8d 85 65 9c ff
	ff		 lea	 eax, DWORD PTR _sndconfig$[ebp+14441]
  02541	50		 push	 eax
  02542	e8 00 00 00 00	 call	 _memset
  02547	83 c4 0c	 add	 esp, 12			; 0000000cH
  0254a	c6 85 1a 9d ff
	ff 7f		 mov	 BYTE PTR _sndconfig$[ebp+14622], 127 ; 0000007fH
  02551	c6 85 1b 9d ff
	ff 00		 mov	 BYTE PTR _sndconfig$[ebp+14623], 0
  02558	c6 85 1c 9d ff
	ff 01		 mov	 BYTE PTR _sndconfig$[ebp+14624], 1

; 86   : //x	{  152,	"data\\se\\sak_02.wav", 127, 4, 1 /*, "?????"*/ },
; 87   : 	{  152,	"data\\se\\sak_02.wav", 127, 0, 1 /*, "?????"*/ },

  0255f	b8 98 00 00 00	 mov	 eax, 152		; 00000098H
  02564	66 89 85 1e 9d
	ff ff		 mov	 WORD PTR _sndconfig$[ebp+14626], ax
  0256b	a1 00 00 00 00	 mov	 eax, DWORD PTR ??_C@_0BD@KLNFPKB@data?2se?2sak_02?4wav?$AA@
  02570	89 85 20 9d ff
	ff		 mov	 DWORD PTR _sndconfig$[ebp+14628], eax
  02576	8b 0d 04 00 00
	00		 mov	 ecx, DWORD PTR ??_C@_0BD@KLNFPKB@data?2se?2sak_02?4wav?$AA@+4
  0257c	89 8d 24 9d ff
	ff		 mov	 DWORD PTR _sndconfig$[ebp+14632], ecx
  02582	8b 15 08 00 00
	00		 mov	 edx, DWORD PTR ??_C@_0BD@KLNFPKB@data?2se?2sak_02?4wav?$AA@+8
  02588	89 95 28 9d ff
	ff		 mov	 DWORD PTR _sndconfig$[ebp+14636], edx
  0258e	a1 0c 00 00 00	 mov	 eax, DWORD PTR ??_C@_0BD@KLNFPKB@data?2se?2sak_02?4wav?$AA@+12
  02593	89 85 2c 9d ff
	ff		 mov	 DWORD PTR _sndconfig$[ebp+14640], eax
  02599	66 8b 0d 10 00
	00 00		 mov	 cx, WORD PTR ??_C@_0BD@KLNFPKB@data?2se?2sak_02?4wav?$AA@+16
  025a0	66 89 8d 30 9d
	ff ff		 mov	 WORD PTR _sndconfig$[ebp+14644], cx
  025a7	8a 15 12 00 00
	00		 mov	 dl, BYTE PTR ??_C@_0BD@KLNFPKB@data?2se?2sak_02?4wav?$AA@+18
  025ad	88 95 32 9d ff
	ff		 mov	 BYTE PTR _sndconfig$[ebp+14646], dl
  025b3	68 b5 00 00 00	 push	 181			; 000000b5H
  025b8	6a 00		 push	 0
  025ba	8d 85 33 9d ff
	ff		 lea	 eax, DWORD PTR _sndconfig$[ebp+14647]
  025c0	50		 push	 eax
  025c1	e8 00 00 00 00	 call	 _memset
  025c6	83 c4 0c	 add	 esp, 12			; 0000000cH
  025c9	c6 85 e8 9d ff
	ff 7f		 mov	 BYTE PTR _sndconfig$[ebp+14828], 127 ; 0000007fH
  025d0	c6 85 e9 9d ff
	ff 00		 mov	 BYTE PTR _sndconfig$[ebp+14829], 0
  025d7	c6 85 ea 9d ff
	ff 01		 mov	 BYTE PTR _sndconfig$[ebp+14830], 1

; 88   : 	{  153,	"data\\se\\sak_03.wav", 121, 0, 1 /*, "?"*/ },

  025de	b8 99 00 00 00	 mov	 eax, 153		; 00000099H
  025e3	66 89 85 ec 9d
	ff ff		 mov	 WORD PTR _sndconfig$[ebp+14832], ax
  025ea	a1 00 00 00 00	 mov	 eax, DWORD PTR ??_C@_0BD@MBOBIMAE@data?2se?2sak_03?4wav?$AA@
  025ef	89 85 ee 9d ff
	ff		 mov	 DWORD PTR _sndconfig$[ebp+14834], eax
  025f5	8b 0d 04 00 00
	00		 mov	 ecx, DWORD PTR ??_C@_0BD@MBOBIMAE@data?2se?2sak_03?4wav?$AA@+4
  025fb	89 8d f2 9d ff
	ff		 mov	 DWORD PTR _sndconfig$[ebp+14838], ecx
  02601	8b 15 08 00 00
	00		 mov	 edx, DWORD PTR ??_C@_0BD@MBOBIMAE@data?2se?2sak_03?4wav?$AA@+8
  02607	89 95 f6 9d ff
	ff		 mov	 DWORD PTR _sndconfig$[ebp+14842], edx
  0260d	a1 0c 00 00 00	 mov	 eax, DWORD PTR ??_C@_0BD@MBOBIMAE@data?2se?2sak_03?4wav?$AA@+12
  02612	89 85 fa 9d ff
	ff		 mov	 DWORD PTR _sndconfig$[ebp+14846], eax
  02618	66 8b 0d 10 00
	00 00		 mov	 cx, WORD PTR ??_C@_0BD@MBOBIMAE@data?2se?2sak_03?4wav?$AA@+16
  0261f	66 89 8d fe 9d
	ff ff		 mov	 WORD PTR _sndconfig$[ebp+14850], cx
  02626	8a 15 12 00 00
	00		 mov	 dl, BYTE PTR ??_C@_0BD@MBOBIMAE@data?2se?2sak_03?4wav?$AA@+18
  0262c	88 95 00 9e ff
	ff		 mov	 BYTE PTR _sndconfig$[ebp+14852], dl
  02632	68 b5 00 00 00	 push	 181			; 000000b5H
  02637	6a 00		 push	 0
  02639	8d 85 01 9e ff
	ff		 lea	 eax, DWORD PTR _sndconfig$[ebp+14853]
  0263f	50		 push	 eax
  02640	e8 00 00 00 00	 call	 _memset
  02645	83 c4 0c	 add	 esp, 12			; 0000000cH
  02648	c6 85 b6 9e ff
	ff 79		 mov	 BYTE PTR _sndconfig$[ebp+15034], 121 ; 00000079H
  0264f	c6 85 b7 9e ff
	ff 00		 mov	 BYTE PTR _sndconfig$[ebp+15035], 0
  02656	c6 85 b8 9e ff
	ff 01		 mov	 BYTE PTR _sndconfig$[ebp+15036], 1

; 89   : 	{  154,	"data\\se\\sak_04.wav", 90, 0, 1 /*, "?"*/ },

  0265d	b8 9a 00 00 00	 mov	 eax, 154		; 0000009aH
  02662	66 89 85 ba 9e
	ff ff		 mov	 WORD PTR _sndconfig$[ebp+15038], ax
  02669	a1 00 00 00 00	 mov	 eax, DWORD PTR ??_C@_0BD@NMOELMLM@data?2se?2sak_04?4wav?$AA@
  0266e	89 85 bc 9e ff
	ff		 mov	 DWORD PTR _sndconfig$[ebp+15040], eax
  02674	8b 0d 04 00 00
	00		 mov	 ecx, DWORD PTR ??_C@_0BD@NMOELMLM@data?2se?2sak_04?4wav?$AA@+4
  0267a	89 8d c0 9e ff
	ff		 mov	 DWORD PTR _sndconfig$[ebp+15044], ecx
  02680	8b 15 08 00 00
	00		 mov	 edx, DWORD PTR ??_C@_0BD@NMOELMLM@data?2se?2sak_04?4wav?$AA@+8
  02686	89 95 c4 9e ff
	ff		 mov	 DWORD PTR _sndconfig$[ebp+15048], edx
  0268c	a1 0c 00 00 00	 mov	 eax, DWORD PTR ??_C@_0BD@NMOELMLM@data?2se?2sak_04?4wav?$AA@+12
  02691	89 85 c8 9e ff
	ff		 mov	 DWORD PTR _sndconfig$[ebp+15052], eax
  02697	66 8b 0d 10 00
	00 00		 mov	 cx, WORD PTR ??_C@_0BD@NMOELMLM@data?2se?2sak_04?4wav?$AA@+16
  0269e	66 89 8d cc 9e
	ff ff		 mov	 WORD PTR _sndconfig$[ebp+15056], cx
  026a5	8a 15 12 00 00
	00		 mov	 dl, BYTE PTR ??_C@_0BD@NMOELMLM@data?2se?2sak_04?4wav?$AA@+18
  026ab	88 95 ce 9e ff
	ff		 mov	 BYTE PTR _sndconfig$[ebp+15058], dl
  026b1	68 b5 00 00 00	 push	 181			; 000000b5H
  026b6	6a 00		 push	 0
  026b8	8d 85 cf 9e ff
	ff		 lea	 eax, DWORD PTR _sndconfig$[ebp+15059]
  026be	50		 push	 eax
  026bf	e8 00 00 00 00	 call	 _memset
  026c4	83 c4 0c	 add	 esp, 12			; 0000000cH
  026c7	c6 85 84 9f ff
	ff 5a		 mov	 BYTE PTR _sndconfig$[ebp+15240], 90 ; 0000005aH
  026ce	c6 85 85 9f ff
	ff 00		 mov	 BYTE PTR _sndconfig$[ebp+15241], 0
  026d5	c6 85 86 9f ff
	ff 01		 mov	 BYTE PTR _sndconfig$[ebp+15242], 1

; 90   : 	{  155,	"data\\se\\sak_05.wav", 95, 0, 1 /*, "?D"*/ },

  026dc	b8 9b 00 00 00	 mov	 eax, 155		; 0000009bH
  026e1	66 89 85 88 9f
	ff ff		 mov	 WORD PTR _sndconfig$[ebp+15244], ax
  026e8	a1 00 00 00 00	 mov	 eax, DWORD PTR ??_C@_0BD@BHLIGPBJ@data?2se?2sak_05?4wav?$AA@
  026ed	89 85 8a 9f ff
	ff		 mov	 DWORD PTR _sndconfig$[ebp+15246], eax
  026f3	8b 0d 04 00 00
	00		 mov	 ecx, DWORD PTR ??_C@_0BD@BHLIGPBJ@data?2se?2sak_05?4wav?$AA@+4
  026f9	89 8d 8e 9f ff
	ff		 mov	 DWORD PTR _sndconfig$[ebp+15250], ecx
  026ff	8b 15 08 00 00
	00		 mov	 edx, DWORD PTR ??_C@_0BD@BHLIGPBJ@data?2se?2sak_05?4wav?$AA@+8
  02705	89 95 92 9f ff
	ff		 mov	 DWORD PTR _sndconfig$[ebp+15254], edx
  0270b	a1 0c 00 00 00	 mov	 eax, DWORD PTR ??_C@_0BD@BHLIGPBJ@data?2se?2sak_05?4wav?$AA@+12
  02710	89 85 96 9f ff
	ff		 mov	 DWORD PTR _sndconfig$[ebp+15258], eax
  02716	66 8b 0d 10 00
	00 00		 mov	 cx, WORD PTR ??_C@_0BD@BHLIGPBJ@data?2se?2sak_05?4wav?$AA@+16
  0271d	66 89 8d 9a 9f
	ff ff		 mov	 WORD PTR _sndconfig$[ebp+15262], cx
  02724	8a 15 12 00 00
	00		 mov	 dl, BYTE PTR ??_C@_0BD@BHLIGPBJ@data?2se?2sak_05?4wav?$AA@+18
  0272a	88 95 9c 9f ff
	ff		 mov	 BYTE PTR _sndconfig$[ebp+15264], dl
  02730	68 b5 00 00 00	 push	 181			; 000000b5H
  02735	6a 00		 push	 0
  02737	8d 85 9d 9f ff
	ff		 lea	 eax, DWORD PTR _sndconfig$[ebp+15265]
  0273d	50		 push	 eax
  0273e	e8 00 00 00 00	 call	 _memset
  02743	83 c4 0c	 add	 esp, 12			; 0000000cH
  02746	c6 85 52 a0 ff
	ff 5f		 mov	 BYTE PTR _sndconfig$[ebp+15446], 95 ; 0000005fH
  0274d	c6 85 53 a0 ff
	ff 00		 mov	 BYTE PTR _sndconfig$[ebp+15447], 0
  02754	c6 85 54 a0 ff
	ff 01		 mov	 BYTE PTR _sndconfig$[ebp+15448], 1

; 91   : 	{  156,	"data\\se\\sak_06.wav", 127, 0, 1 /*, "?"*/ },

  0275b	b8 9c 00 00 00	 mov	 eax, 156		; 0000009cH
  02760	66 89 85 56 a0
	ff ff		 mov	 WORD PTR _sndconfig$[ebp+15450], ax
  02767	a1 00 00 00 00	 mov	 eax, DWORD PTR ??_C@_0BD@JBCMBNLH@data?2se?2sak_06?4wav?$AA@
  0276c	89 85 58 a0 ff
	ff		 mov	 DWORD PTR _sndconfig$[ebp+15452], eax
  02772	8b 0d 04 00 00
	00		 mov	 ecx, DWORD PTR ??_C@_0BD@JBCMBNLH@data?2se?2sak_06?4wav?$AA@+4
  02778	89 8d 5c a0 ff
	ff		 mov	 DWORD PTR _sndconfig$[ebp+15456], ecx
  0277e	8b 15 08 00 00
	00		 mov	 edx, DWORD PTR ??_C@_0BD@JBCMBNLH@data?2se?2sak_06?4wav?$AA@+8
  02784	89 95 60 a0 ff
	ff		 mov	 DWORD PTR _sndconfig$[ebp+15460], edx
  0278a	a1 0c 00 00 00	 mov	 eax, DWORD PTR ??_C@_0BD@JBCMBNLH@data?2se?2sak_06?4wav?$AA@+12
  0278f	89 85 64 a0 ff
	ff		 mov	 DWORD PTR _sndconfig$[ebp+15464], eax
  02795	66 8b 0d 10 00
	00 00		 mov	 cx, WORD PTR ??_C@_0BD@JBCMBNLH@data?2se?2sak_06?4wav?$AA@+16
  0279c	66 89 8d 68 a0
	ff ff		 mov	 WORD PTR _sndconfig$[ebp+15468], cx
  027a3	8a 15 12 00 00
	00		 mov	 dl, BYTE PTR ??_C@_0BD@JBCMBNLH@data?2se?2sak_06?4wav?$AA@+18
  027a9	88 95 6a a0 ff
	ff		 mov	 BYTE PTR _sndconfig$[ebp+15470], dl
  027af	68 b5 00 00 00	 push	 181			; 000000b5H
  027b4	6a 00		 push	 0
  027b6	8d 85 6b a0 ff
	ff		 lea	 eax, DWORD PTR _sndconfig$[ebp+15471]
  027bc	50		 push	 eax
  027bd	e8 00 00 00 00	 call	 _memset
  027c2	83 c4 0c	 add	 esp, 12			; 0000000cH
  027c5	c6 85 20 a1 ff
	ff 7f		 mov	 BYTE PTR _sndconfig$[ebp+15652], 127 ; 0000007fH
  027cc	c6 85 21 a1 ff
	ff 00		 mov	 BYTE PTR _sndconfig$[ebp+15653], 0
  027d3	c6 85 22 a1 ff
	ff 01		 mov	 BYTE PTR _sndconfig$[ebp+15654], 1

; 92   : 	{  157,	"data\\se\\sak_07.wav", 125, 0, 1 /*, "O?????"*/ },

  027da	b8 9d 00 00 00	 mov	 eax, 157		; 0000009dH
  027df	66 89 85 24 a1
	ff ff		 mov	 WORD PTR _sndconfig$[ebp+15656], ax
  027e6	a1 00 00 00 00	 mov	 eax, DWORD PTR ??_C@_0BD@FKHAMOBC@data?2se?2sak_07?4wav?$AA@
  027eb	89 85 26 a1 ff
	ff		 mov	 DWORD PTR _sndconfig$[ebp+15658], eax
  027f1	8b 0d 04 00 00
	00		 mov	 ecx, DWORD PTR ??_C@_0BD@FKHAMOBC@data?2se?2sak_07?4wav?$AA@+4
  027f7	89 8d 2a a1 ff
	ff		 mov	 DWORD PTR _sndconfig$[ebp+15662], ecx
  027fd	8b 15 08 00 00
	00		 mov	 edx, DWORD PTR ??_C@_0BD@FKHAMOBC@data?2se?2sak_07?4wav?$AA@+8
  02803	89 95 2e a1 ff
	ff		 mov	 DWORD PTR _sndconfig$[ebp+15666], edx
  02809	a1 0c 00 00 00	 mov	 eax, DWORD PTR ??_C@_0BD@FKHAMOBC@data?2se?2sak_07?4wav?$AA@+12
  0280e	89 85 32 a1 ff
	ff		 mov	 DWORD PTR _sndconfig$[ebp+15670], eax
  02814	66 8b 0d 10 00
	00 00		 mov	 cx, WORD PTR ??_C@_0BD@FKHAMOBC@data?2se?2sak_07?4wav?$AA@+16
  0281b	66 89 8d 36 a1
	ff ff		 mov	 WORD PTR _sndconfig$[ebp+15674], cx
  02822	8a 15 12 00 00
	00		 mov	 dl, BYTE PTR ??_C@_0BD@FKHAMOBC@data?2se?2sak_07?4wav?$AA@+18
  02828	88 95 38 a1 ff
	ff		 mov	 BYTE PTR _sndconfig$[ebp+15676], dl
  0282e	68 b5 00 00 00	 push	 181			; 000000b5H
  02833	6a 00		 push	 0
  02835	8d 85 39 a1 ff
	ff		 lea	 eax, DWORD PTR _sndconfig$[ebp+15677]
  0283b	50		 push	 eax
  0283c	e8 00 00 00 00	 call	 _memset
  02841	83 c4 0c	 add	 esp, 12			; 0000000cH
  02844	c6 85 ee a1 ff
	ff 7d		 mov	 BYTE PTR _sndconfig$[ebp+15858], 125 ; 0000007dH
  0284b	c6 85 ef a1 ff
	ff 00		 mov	 BYTE PTR _sndconfig$[ebp+15859], 0
  02852	c6 85 f0 a1 ff
	ff 01		 mov	 BYTE PTR _sndconfig$[ebp+15860], 1

; 93   : 	{  158,	"data\\se\\sak_08.wav", 125, 0, 1 /*, "??????"*/ },

  02859	b8 9e 00 00 00	 mov	 eax, 158		; 0000009eH
  0285e	66 89 85 f2 a1
	ff ff		 mov	 WORD PTR _sndconfig$[ebp+15862], ax
  02865	a1 00 00 00 00	 mov	 eax, DWORD PTR ??_C@_0BD@KLCGHMMH@data?2se?2sak_08?4wav?$AA@
  0286a	89 85 f4 a1 ff
	ff		 mov	 DWORD PTR _sndconfig$[ebp+15864], eax
  02870	8b 0d 04 00 00
	00		 mov	 ecx, DWORD PTR ??_C@_0BD@KLCGHMMH@data?2se?2sak_08?4wav?$AA@+4
  02876	89 8d f8 a1 ff
	ff		 mov	 DWORD PTR _sndconfig$[ebp+15868], ecx
  0287c	8b 15 08 00 00
	00		 mov	 edx, DWORD PTR ??_C@_0BD@KLCGHMMH@data?2se?2sak_08?4wav?$AA@+8
  02882	89 95 fc a1 ff
	ff		 mov	 DWORD PTR _sndconfig$[ebp+15872], edx
  02888	a1 0c 00 00 00	 mov	 eax, DWORD PTR ??_C@_0BD@KLCGHMMH@data?2se?2sak_08?4wav?$AA@+12
  0288d	89 85 00 a2 ff
	ff		 mov	 DWORD PTR _sndconfig$[ebp+15876], eax
  02893	66 8b 0d 10 00
	00 00		 mov	 cx, WORD PTR ??_C@_0BD@KLCGHMMH@data?2se?2sak_08?4wav?$AA@+16
  0289a	66 89 8d 04 a2
	ff ff		 mov	 WORD PTR _sndconfig$[ebp+15880], cx
  028a1	8a 15 12 00 00
	00		 mov	 dl, BYTE PTR ??_C@_0BD@KLCGHMMH@data?2se?2sak_08?4wav?$AA@+18
  028a7	88 95 06 a2 ff
	ff		 mov	 BYTE PTR _sndconfig$[ebp+15882], dl
  028ad	68 b5 00 00 00	 push	 181			; 000000b5H
  028b2	6a 00		 push	 0
  028b4	8d 85 07 a2 ff
	ff		 lea	 eax, DWORD PTR _sndconfig$[ebp+15883]
  028ba	50		 push	 eax
  028bb	e8 00 00 00 00	 call	 _memset
  028c0	83 c4 0c	 add	 esp, 12			; 0000000cH
  028c3	c6 85 bc a2 ff
	ff 7d		 mov	 BYTE PTR _sndconfig$[ebp+16064], 125 ; 0000007dH
  028ca	c6 85 bd a2 ff
	ff 00		 mov	 BYTE PTR _sndconfig$[ebp+16065], 0
  028d1	c6 85 be a2 ff
	ff 01		 mov	 BYTE PTR _sndconfig$[ebp+16066], 1

; 94   : 	{  159,	"data\\se\\sak_09a.wav", 120, 0, 1 /*, "??"*/ },

  028d8	b8 9f 00 00 00	 mov	 eax, 159		; 0000009fH
  028dd	66 89 85 c0 a2
	ff ff		 mov	 WORD PTR _sndconfig$[ebp+16068], ax
  028e4	a1 00 00 00 00	 mov	 eax, DWORD PTR ??_C@_0BE@HNKPAMBO@data?2se?2sak_09a?4wav?$AA@
  028e9	89 85 c2 a2 ff
	ff		 mov	 DWORD PTR _sndconfig$[ebp+16070], eax
  028ef	8b 0d 04 00 00
	00		 mov	 ecx, DWORD PTR ??_C@_0BE@HNKPAMBO@data?2se?2sak_09a?4wav?$AA@+4
  028f5	89 8d c6 a2 ff
	ff		 mov	 DWORD PTR _sndconfig$[ebp+16074], ecx
  028fb	8b 15 08 00 00
	00		 mov	 edx, DWORD PTR ??_C@_0BE@HNKPAMBO@data?2se?2sak_09a?4wav?$AA@+8
  02901	89 95 ca a2 ff
	ff		 mov	 DWORD PTR _sndconfig$[ebp+16078], edx
  02907	a1 0c 00 00 00	 mov	 eax, DWORD PTR ??_C@_0BE@HNKPAMBO@data?2se?2sak_09a?4wav?$AA@+12
  0290c	89 85 ce a2 ff
	ff		 mov	 DWORD PTR _sndconfig$[ebp+16082], eax
  02912	8b 0d 10 00 00
	00		 mov	 ecx, DWORD PTR ??_C@_0BE@HNKPAMBO@data?2se?2sak_09a?4wav?$AA@+16
  02918	89 8d d2 a2 ff
	ff		 mov	 DWORD PTR _sndconfig$[ebp+16086], ecx
  0291e	68 b4 00 00 00	 push	 180			; 000000b4H
  02923	6a 00		 push	 0
  02925	8d 85 d6 a2 ff
	ff		 lea	 eax, DWORD PTR _sndconfig$[ebp+16090]
  0292b	50		 push	 eax
  0292c	e8 00 00 00 00	 call	 _memset
  02931	83 c4 0c	 add	 esp, 12			; 0000000cH
  02934	c6 85 8a a3 ff
	ff 78		 mov	 BYTE PTR _sndconfig$[ebp+16270], 120 ; 00000078H
  0293b	c6 85 8b a3 ff
	ff 00		 mov	 BYTE PTR _sndconfig$[ebp+16271], 0
  02942	c6 85 8c a3 ff
	ff 01		 mov	 BYTE PTR _sndconfig$[ebp+16272], 1

; 95   : 	{  160,	"data\\se\\sak_10.wav", 115, 0, 1 /*, "??????"*/ },

  02949	b8 a0 00 00 00	 mov	 eax, 160		; 000000a0H
  0294e	66 89 85 8e a3
	ff ff		 mov	 WORD PTR _sndconfig$[ebp+16274], ax
  02955	a1 00 00 00 00	 mov	 eax, DWORD PTR ??_C@_0BD@OBACPFBO@data?2se?2sak_10?4wav?$AA@
  0295a	89 85 90 a3 ff
	ff		 mov	 DWORD PTR _sndconfig$[ebp+16276], eax
  02960	8b 0d 04 00 00
	00		 mov	 ecx, DWORD PTR ??_C@_0BD@OBACPFBO@data?2se?2sak_10?4wav?$AA@+4
  02966	89 8d 94 a3 ff
	ff		 mov	 DWORD PTR _sndconfig$[ebp+16280], ecx
  0296c	8b 15 08 00 00
	00		 mov	 edx, DWORD PTR ??_C@_0BD@OBACPFBO@data?2se?2sak_10?4wav?$AA@+8
  02972	89 95 98 a3 ff
	ff		 mov	 DWORD PTR _sndconfig$[ebp+16284], edx
  02978	a1 0c 00 00 00	 mov	 eax, DWORD PTR ??_C@_0BD@OBACPFBO@data?2se?2sak_10?4wav?$AA@+12
  0297d	89 85 9c a3 ff
	ff		 mov	 DWORD PTR _sndconfig$[ebp+16288], eax
  02983	66 8b 0d 10 00
	00 00		 mov	 cx, WORD PTR ??_C@_0BD@OBACPFBO@data?2se?2sak_10?4wav?$AA@+16
  0298a	66 89 8d a0 a3
	ff ff		 mov	 WORD PTR _sndconfig$[ebp+16292], cx
  02991	8a 15 12 00 00
	00		 mov	 dl, BYTE PTR ??_C@_0BD@OBACPFBO@data?2se?2sak_10?4wav?$AA@+18
  02997	88 95 a2 a3 ff
	ff		 mov	 BYTE PTR _sndconfig$[ebp+16294], dl
  0299d	68 b5 00 00 00	 push	 181			; 000000b5H
  029a2	6a 00		 push	 0
  029a4	8d 85 a3 a3 ff
	ff		 lea	 eax, DWORD PTR _sndconfig$[ebp+16295]
  029aa	50		 push	 eax
  029ab	e8 00 00 00 00	 call	 _memset
  029b0	83 c4 0c	 add	 esp, 12			; 0000000cH
  029b3	c6 85 58 a4 ff
	ff 73		 mov	 BYTE PTR _sndconfig$[ebp+16476], 115 ; 00000073H
  029ba	c6 85 59 a4 ff
	ff 00		 mov	 BYTE PTR _sndconfig$[ebp+16477], 0
  029c1	c6 85 5a a4 ff
	ff 01		 mov	 BYTE PTR _sndconfig$[ebp+16478], 1

; 96   : 	{  161,	"data\\se\\sak_11.wav",  85, 0, 1 /*, "?"*/ },

  029c8	b8 a1 00 00 00	 mov	 eax, 161		; 000000a1H
  029cd	66 89 85 5c a4
	ff ff		 mov	 WORD PTR _sndconfig$[ebp+16480], ax
  029d4	a1 00 00 00 00	 mov	 eax, DWORD PTR ??_C@_0BD@CKFOCGLL@data?2se?2sak_11?4wav?$AA@
  029d9	89 85 5e a4 ff
	ff		 mov	 DWORD PTR _sndconfig$[ebp+16482], eax
  029df	8b 0d 04 00 00
	00		 mov	 ecx, DWORD PTR ??_C@_0BD@CKFOCGLL@data?2se?2sak_11?4wav?$AA@+4
  029e5	89 8d 62 a4 ff
	ff		 mov	 DWORD PTR _sndconfig$[ebp+16486], ecx
  029eb	8b 15 08 00 00
	00		 mov	 edx, DWORD PTR ??_C@_0BD@CKFOCGLL@data?2se?2sak_11?4wav?$AA@+8
  029f1	89 95 66 a4 ff
	ff		 mov	 DWORD PTR _sndconfig$[ebp+16490], edx
  029f7	a1 0c 00 00 00	 mov	 eax, DWORD PTR ??_C@_0BD@CKFOCGLL@data?2se?2sak_11?4wav?$AA@+12
  029fc	89 85 6a a4 ff
	ff		 mov	 DWORD PTR _sndconfig$[ebp+16494], eax
  02a02	66 8b 0d 10 00
	00 00		 mov	 cx, WORD PTR ??_C@_0BD@CKFOCGLL@data?2se?2sak_11?4wav?$AA@+16
  02a09	66 89 8d 6e a4
	ff ff		 mov	 WORD PTR _sndconfig$[ebp+16498], cx
  02a10	8a 15 12 00 00
	00		 mov	 dl, BYTE PTR ??_C@_0BD@CKFOCGLL@data?2se?2sak_11?4wav?$AA@+18
  02a16	88 95 70 a4 ff
	ff		 mov	 BYTE PTR _sndconfig$[ebp+16500], dl
  02a1c	68 b5 00 00 00	 push	 181			; 000000b5H
  02a21	6a 00		 push	 0
  02a23	8d 85 71 a4 ff
	ff		 lea	 eax, DWORD PTR _sndconfig$[ebp+16501]
  02a29	50		 push	 eax
  02a2a	e8 00 00 00 00	 call	 _memset
  02a2f	83 c4 0c	 add	 esp, 12			; 0000000cH
  02a32	c6 85 26 a5 ff
	ff 55		 mov	 BYTE PTR _sndconfig$[ebp+16682], 85 ; 00000055H
  02a39	c6 85 27 a5 ff
	ff 00		 mov	 BYTE PTR _sndconfig$[ebp+16683], 0
  02a40	c6 85 28 a5 ff
	ff 01		 mov	 BYTE PTR _sndconfig$[ebp+16684], 1

; 97   : 	{  162,	"data\\se\\sak_12.wav", 120, 0, 1 /*, "?"*/ },

  02a47	b8 a2 00 00 00	 mov	 eax, 162		; 000000a2H
  02a4c	66 89 85 2a a5
	ff ff		 mov	 WORD PTR _sndconfig$[ebp+16686], ax
  02a53	a1 00 00 00 00	 mov	 eax, DWORD PTR ??_C@_0BD@KMMKFEBF@data?2se?2sak_12?4wav?$AA@
  02a58	89 85 2c a5 ff
	ff		 mov	 DWORD PTR _sndconfig$[ebp+16688], eax
  02a5e	8b 0d 04 00 00
	00		 mov	 ecx, DWORD PTR ??_C@_0BD@KMMKFEBF@data?2se?2sak_12?4wav?$AA@+4
  02a64	89 8d 30 a5 ff
	ff		 mov	 DWORD PTR _sndconfig$[ebp+16692], ecx
  02a6a	8b 15 08 00 00
	00		 mov	 edx, DWORD PTR ??_C@_0BD@KMMKFEBF@data?2se?2sak_12?4wav?$AA@+8
  02a70	89 95 34 a5 ff
	ff		 mov	 DWORD PTR _sndconfig$[ebp+16696], edx
  02a76	a1 0c 00 00 00	 mov	 eax, DWORD PTR ??_C@_0BD@KMMKFEBF@data?2se?2sak_12?4wav?$AA@+12
  02a7b	89 85 38 a5 ff
	ff		 mov	 DWORD PTR _sndconfig$[ebp+16700], eax
  02a81	66 8b 0d 10 00
	00 00		 mov	 cx, WORD PTR ??_C@_0BD@KMMKFEBF@data?2se?2sak_12?4wav?$AA@+16
  02a88	66 89 8d 3c a5
	ff ff		 mov	 WORD PTR _sndconfig$[ebp+16704], cx
  02a8f	8a 15 12 00 00
	00		 mov	 dl, BYTE PTR ??_C@_0BD@KMMKFEBF@data?2se?2sak_12?4wav?$AA@+18
  02a95	88 95 3e a5 ff
	ff		 mov	 BYTE PTR _sndconfig$[ebp+16706], dl
  02a9b	68 b5 00 00 00	 push	 181			; 000000b5H
  02aa0	6a 00		 push	 0
  02aa2	8d 85 3f a5 ff
	ff		 lea	 eax, DWORD PTR _sndconfig$[ebp+16707]
  02aa8	50		 push	 eax
  02aa9	e8 00 00 00 00	 call	 _memset
  02aae	83 c4 0c	 add	 esp, 12			; 0000000cH
  02ab1	c6 85 f4 a5 ff
	ff 78		 mov	 BYTE PTR _sndconfig$[ebp+16888], 120 ; 00000078H
  02ab8	c6 85 f5 a5 ff
	ff 00		 mov	 BYTE PTR _sndconfig$[ebp+16889], 0
  02abf	c6 85 f6 a5 ff
	ff 01		 mov	 BYTE PTR _sndconfig$[ebp+16890], 1

; 98   : 	{  163,	"data\\se\\sak_13.wav", 100, 0, 1 /*, "???????"*/ },

  02ac6	b8 a3 00 00 00	 mov	 eax, 163		; 000000a3H
  02acb	66 89 85 f8 a5
	ff ff		 mov	 WORD PTR _sndconfig$[ebp+16892], ax
  02ad2	a1 00 00 00 00	 mov	 eax, DWORD PTR ??_C@_0BD@GHJGIHLA@data?2se?2sak_13?4wav?$AA@
  02ad7	89 85 fa a5 ff
	ff		 mov	 DWORD PTR _sndconfig$[ebp+16894], eax
  02add	8b 0d 04 00 00
	00		 mov	 ecx, DWORD PTR ??_C@_0BD@GHJGIHLA@data?2se?2sak_13?4wav?$AA@+4
  02ae3	89 8d fe a5 ff
	ff		 mov	 DWORD PTR _sndconfig$[ebp+16898], ecx
  02ae9	8b 15 08 00 00
	00		 mov	 edx, DWORD PTR ??_C@_0BD@GHJGIHLA@data?2se?2sak_13?4wav?$AA@+8
  02aef	89 95 02 a6 ff
	ff		 mov	 DWORD PTR _sndconfig$[ebp+16902], edx
  02af5	a1 0c 00 00 00	 mov	 eax, DWORD PTR ??_C@_0BD@GHJGIHLA@data?2se?2sak_13?4wav?$AA@+12
  02afa	89 85 06 a6 ff
	ff		 mov	 DWORD PTR _sndconfig$[ebp+16906], eax
  02b00	66 8b 0d 10 00
	00 00		 mov	 cx, WORD PTR ??_C@_0BD@GHJGIHLA@data?2se?2sak_13?4wav?$AA@+16
  02b07	66 89 8d 0a a6
	ff ff		 mov	 WORD PTR _sndconfig$[ebp+16910], cx
  02b0e	8a 15 12 00 00
	00		 mov	 dl, BYTE PTR ??_C@_0BD@GHJGIHLA@data?2se?2sak_13?4wav?$AA@+18
  02b14	88 95 0c a6 ff
	ff		 mov	 BYTE PTR _sndconfig$[ebp+16912], dl
  02b1a	68 b5 00 00 00	 push	 181			; 000000b5H
  02b1f	6a 00		 push	 0
  02b21	8d 85 0d a6 ff
	ff		 lea	 eax, DWORD PTR _sndconfig$[ebp+16913]
  02b27	50		 push	 eax
  02b28	e8 00 00 00 00	 call	 _memset
  02b2d	83 c4 0c	 add	 esp, 12			; 0000000cH
  02b30	c6 85 c2 a6 ff
	ff 64		 mov	 BYTE PTR _sndconfig$[ebp+17094], 100 ; 00000064H
  02b37	c6 85 c3 a6 ff
	ff 00		 mov	 BYTE PTR _sndconfig$[ebp+17095], 0
  02b3e	c6 85 c4 a6 ff
	ff 01		 mov	 BYTE PTR _sndconfig$[ebp+17096], 1

; 99   : 	{  164,	"data\\se\\sak_14.wav", 127, 0, 1 /*, "??"*/ },

  02b45	b8 a4 00 00 00	 mov	 eax, 164		; 000000a4H
  02b4a	66 89 85 c6 a6
	ff ff		 mov	 WORD PTR _sndconfig$[ebp+17098], ax
  02b51	a1 00 00 00 00	 mov	 eax, DWORD PTR ??_C@_0BD@HKJDLHAI@data?2se?2sak_14?4wav?$AA@
  02b56	89 85 c8 a6 ff
	ff		 mov	 DWORD PTR _sndconfig$[ebp+17100], eax
  02b5c	8b 0d 04 00 00
	00		 mov	 ecx, DWORD PTR ??_C@_0BD@HKJDLHAI@data?2se?2sak_14?4wav?$AA@+4
  02b62	89 8d cc a6 ff
	ff		 mov	 DWORD PTR _sndconfig$[ebp+17104], ecx
  02b68	8b 15 08 00 00
	00		 mov	 edx, DWORD PTR ??_C@_0BD@HKJDLHAI@data?2se?2sak_14?4wav?$AA@+8
  02b6e	89 95 d0 a6 ff
	ff		 mov	 DWORD PTR _sndconfig$[ebp+17108], edx
  02b74	a1 0c 00 00 00	 mov	 eax, DWORD PTR ??_C@_0BD@HKJDLHAI@data?2se?2sak_14?4wav?$AA@+12
  02b79	89 85 d4 a6 ff
	ff		 mov	 DWORD PTR _sndconfig$[ebp+17112], eax
  02b7f	66 8b 0d 10 00
	00 00		 mov	 cx, WORD PTR ??_C@_0BD@HKJDLHAI@data?2se?2sak_14?4wav?$AA@+16
  02b86	66 89 8d d8 a6
	ff ff		 mov	 WORD PTR _sndconfig$[ebp+17116], cx
  02b8d	8a 15 12 00 00
	00		 mov	 dl, BYTE PTR ??_C@_0BD@HKJDLHAI@data?2se?2sak_14?4wav?$AA@+18
  02b93	88 95 da a6 ff
	ff		 mov	 BYTE PTR _sndconfig$[ebp+17118], dl
  02b99	68 b5 00 00 00	 push	 181			; 000000b5H
  02b9e	6a 00		 push	 0
  02ba0	8d 85 db a6 ff
	ff		 lea	 eax, DWORD PTR _sndconfig$[ebp+17119]
  02ba6	50		 push	 eax
  02ba7	e8 00 00 00 00	 call	 _memset
  02bac	83 c4 0c	 add	 esp, 12			; 0000000cH
  02baf	c6 85 90 a7 ff
	ff 7f		 mov	 BYTE PTR _sndconfig$[ebp+17300], 127 ; 0000007fH
  02bb6	c6 85 91 a7 ff
	ff 00		 mov	 BYTE PTR _sndconfig$[ebp+17301], 0
  02bbd	c6 85 92 a7 ff
	ff 01		 mov	 BYTE PTR _sndconfig$[ebp+17302], 1

; 100  : 	{  165,	"data\\se\\sak_15.wav", 120, 0, 1 /*, "??"*/ },

  02bc4	b8 a5 00 00 00	 mov	 eax, 165		; 000000a5H
  02bc9	66 89 85 94 a7
	ff ff		 mov	 WORD PTR _sndconfig$[ebp+17304], ax
  02bd0	a1 00 00 00 00	 mov	 eax, DWORD PTR ??_C@_0BD@LBMPGEKN@data?2se?2sak_15?4wav?$AA@
  02bd5	89 85 96 a7 ff
	ff		 mov	 DWORD PTR _sndconfig$[ebp+17306], eax
  02bdb	8b 0d 04 00 00
	00		 mov	 ecx, DWORD PTR ??_C@_0BD@LBMPGEKN@data?2se?2sak_15?4wav?$AA@+4
  02be1	89 8d 9a a7 ff
	ff		 mov	 DWORD PTR _sndconfig$[ebp+17310], ecx
  02be7	8b 15 08 00 00
	00		 mov	 edx, DWORD PTR ??_C@_0BD@LBMPGEKN@data?2se?2sak_15?4wav?$AA@+8
  02bed	89 95 9e a7 ff
	ff		 mov	 DWORD PTR _sndconfig$[ebp+17314], edx
  02bf3	a1 0c 00 00 00	 mov	 eax, DWORD PTR ??_C@_0BD@LBMPGEKN@data?2se?2sak_15?4wav?$AA@+12
  02bf8	89 85 a2 a7 ff
	ff		 mov	 DWORD PTR _sndconfig$[ebp+17318], eax
  02bfe	66 8b 0d 10 00
	00 00		 mov	 cx, WORD PTR ??_C@_0BD@LBMPGEKN@data?2se?2sak_15?4wav?$AA@+16
  02c05	66 89 8d a6 a7
	ff ff		 mov	 WORD PTR _sndconfig$[ebp+17322], cx
  02c0c	8a 15 12 00 00
	00		 mov	 dl, BYTE PTR ??_C@_0BD@LBMPGEKN@data?2se?2sak_15?4wav?$AA@+18
  02c12	88 95 a8 a7 ff
	ff		 mov	 BYTE PTR _sndconfig$[ebp+17324], dl
  02c18	68 b5 00 00 00	 push	 181			; 000000b5H
  02c1d	6a 00		 push	 0
  02c1f	8d 85 a9 a7 ff
	ff		 lea	 eax, DWORD PTR _sndconfig$[ebp+17325]
  02c25	50		 push	 eax
  02c26	e8 00 00 00 00	 call	 _memset
  02c2b	83 c4 0c	 add	 esp, 12			; 0000000cH
  02c2e	c6 85 5e a8 ff
	ff 78		 mov	 BYTE PTR _sndconfig$[ebp+17506], 120 ; 00000078H
  02c35	c6 85 5f a8 ff
	ff 00		 mov	 BYTE PTR _sndconfig$[ebp+17507], 0
  02c3c	c6 85 60 a8 ff
	ff 01		 mov	 BYTE PTR _sndconfig$[ebp+17508], 1

; 101  : 	{  166,	"data\\se\\sak_16.wav", 120, 0, 1 /*, "????????"*/ },

  02c43	b8 a6 00 00 00	 mov	 eax, 166		; 000000a6H
  02c48	66 89 85 62 a8
	ff ff		 mov	 WORD PTR _sndconfig$[ebp+17510], ax
  02c4f	a1 00 00 00 00	 mov	 eax, DWORD PTR ??_C@_0BD@DHFLBGAD@data?2se?2sak_16?4wav?$AA@
  02c54	89 85 64 a8 ff
	ff		 mov	 DWORD PTR _sndconfig$[ebp+17512], eax
  02c5a	8b 0d 04 00 00
	00		 mov	 ecx, DWORD PTR ??_C@_0BD@DHFLBGAD@data?2se?2sak_16?4wav?$AA@+4
  02c60	89 8d 68 a8 ff
	ff		 mov	 DWORD PTR _sndconfig$[ebp+17516], ecx
  02c66	8b 15 08 00 00
	00		 mov	 edx, DWORD PTR ??_C@_0BD@DHFLBGAD@data?2se?2sak_16?4wav?$AA@+8
  02c6c	89 95 6c a8 ff
	ff		 mov	 DWORD PTR _sndconfig$[ebp+17520], edx
  02c72	a1 0c 00 00 00	 mov	 eax, DWORD PTR ??_C@_0BD@DHFLBGAD@data?2se?2sak_16?4wav?$AA@+12
  02c77	89 85 70 a8 ff
	ff		 mov	 DWORD PTR _sndconfig$[ebp+17524], eax
  02c7d	66 8b 0d 10 00
	00 00		 mov	 cx, WORD PTR ??_C@_0BD@DHFLBGAD@data?2se?2sak_16?4wav?$AA@+16
  02c84	66 89 8d 74 a8
	ff ff		 mov	 WORD PTR _sndconfig$[ebp+17528], cx
  02c8b	8a 15 12 00 00
	00		 mov	 dl, BYTE PTR ??_C@_0BD@DHFLBGAD@data?2se?2sak_16?4wav?$AA@+18
  02c91	88 95 76 a8 ff
	ff		 mov	 BYTE PTR _sndconfig$[ebp+17530], dl
  02c97	68 b5 00 00 00	 push	 181			; 000000b5H
  02c9c	6a 00		 push	 0
  02c9e	8d 85 77 a8 ff
	ff		 lea	 eax, DWORD PTR _sndconfig$[ebp+17531]
  02ca4	50		 push	 eax
  02ca5	e8 00 00 00 00	 call	 _memset
  02caa	83 c4 0c	 add	 esp, 12			; 0000000cH
  02cad	c6 85 2c a9 ff
	ff 78		 mov	 BYTE PTR _sndconfig$[ebp+17712], 120 ; 00000078H
  02cb4	c6 85 2d a9 ff
	ff 00		 mov	 BYTE PTR _sndconfig$[ebp+17713], 0
  02cbb	c6 85 2e a9 ff
	ff 01		 mov	 BYTE PTR _sndconfig$[ebp+17714], 1

; 102  : 	{  167,	"data\\se\\sak_17.wav", 110, 0, 1 /*, "??"*/ },

  02cc2	b8 a7 00 00 00	 mov	 eax, 167		; 000000a7H
  02cc7	66 89 85 30 a9
	ff ff		 mov	 WORD PTR _sndconfig$[ebp+17716], ax
  02cce	a1 00 00 00 00	 mov	 eax, DWORD PTR ??_C@_0BD@PMAHMFKG@data?2se?2sak_17?4wav?$AA@
  02cd3	89 85 32 a9 ff
	ff		 mov	 DWORD PTR _sndconfig$[ebp+17718], eax
  02cd9	8b 0d 04 00 00
	00		 mov	 ecx, DWORD PTR ??_C@_0BD@PMAHMFKG@data?2se?2sak_17?4wav?$AA@+4
  02cdf	89 8d 36 a9 ff
	ff		 mov	 DWORD PTR _sndconfig$[ebp+17722], ecx
  02ce5	8b 15 08 00 00
	00		 mov	 edx, DWORD PTR ??_C@_0BD@PMAHMFKG@data?2se?2sak_17?4wav?$AA@+8
  02ceb	89 95 3a a9 ff
	ff		 mov	 DWORD PTR _sndconfig$[ebp+17726], edx
  02cf1	a1 0c 00 00 00	 mov	 eax, DWORD PTR ??_C@_0BD@PMAHMFKG@data?2se?2sak_17?4wav?$AA@+12
  02cf6	89 85 3e a9 ff
	ff		 mov	 DWORD PTR _sndconfig$[ebp+17730], eax
  02cfc	66 8b 0d 10 00
	00 00		 mov	 cx, WORD PTR ??_C@_0BD@PMAHMFKG@data?2se?2sak_17?4wav?$AA@+16
  02d03	66 89 8d 42 a9
	ff ff		 mov	 WORD PTR _sndconfig$[ebp+17734], cx
  02d0a	8a 15 12 00 00
	00		 mov	 dl, BYTE PTR ??_C@_0BD@PMAHMFKG@data?2se?2sak_17?4wav?$AA@+18
  02d10	88 95 44 a9 ff
	ff		 mov	 BYTE PTR _sndconfig$[ebp+17736], dl
  02d16	68 b5 00 00 00	 push	 181			; 000000b5H
  02d1b	6a 00		 push	 0
  02d1d	8d 85 45 a9 ff
	ff		 lea	 eax, DWORD PTR _sndconfig$[ebp+17737]
  02d23	50		 push	 eax
  02d24	e8 00 00 00 00	 call	 _memset
  02d29	83 c4 0c	 add	 esp, 12			; 0000000cH
  02d2c	c6 85 fa a9 ff
	ff 6e		 mov	 BYTE PTR _sndconfig$[ebp+17918], 110 ; 0000006eH
  02d33	c6 85 fb a9 ff
	ff 00		 mov	 BYTE PTR _sndconfig$[ebp+17919], 0
  02d3a	c6 85 fc a9 ff
	ff 01		 mov	 BYTE PTR _sndconfig$[ebp+17920], 1

; 103  : 	{  168,	"data\\se\\sak_09b.wav", 120, 0, 1 /*, "????"*/ },

  02d41	b8 a8 00 00 00	 mov	 eax, 168		; 000000a8H
  02d46	66 89 85 fe a9
	ff ff		 mov	 WORD PTR _sndconfig$[ebp+17922], ax
  02d4d	a1 00 00 00 00	 mov	 eax, DWORD PTR ??_C@_0BE@PLDLHOLA@data?2se?2sak_09b?4wav?$AA@
  02d52	89 85 00 aa ff
	ff		 mov	 DWORD PTR _sndconfig$[ebp+17924], eax
  02d58	8b 0d 04 00 00
	00		 mov	 ecx, DWORD PTR ??_C@_0BE@PLDLHOLA@data?2se?2sak_09b?4wav?$AA@+4
  02d5e	89 8d 04 aa ff
	ff		 mov	 DWORD PTR _sndconfig$[ebp+17928], ecx
  02d64	8b 15 08 00 00
	00		 mov	 edx, DWORD PTR ??_C@_0BE@PLDLHOLA@data?2se?2sak_09b?4wav?$AA@+8
  02d6a	89 95 08 aa ff
	ff		 mov	 DWORD PTR _sndconfig$[ebp+17932], edx
  02d70	a1 0c 00 00 00	 mov	 eax, DWORD PTR ??_C@_0BE@PLDLHOLA@data?2se?2sak_09b?4wav?$AA@+12
  02d75	89 85 0c aa ff
	ff		 mov	 DWORD PTR _sndconfig$[ebp+17936], eax
  02d7b	8b 0d 10 00 00
	00		 mov	 ecx, DWORD PTR ??_C@_0BE@PLDLHOLA@data?2se?2sak_09b?4wav?$AA@+16
  02d81	89 8d 10 aa ff
	ff		 mov	 DWORD PTR _sndconfig$[ebp+17940], ecx
  02d87	68 b4 00 00 00	 push	 180			; 000000b4H
  02d8c	6a 00		 push	 0
  02d8e	8d 85 14 aa ff
	ff		 lea	 eax, DWORD PTR _sndconfig$[ebp+17944]
  02d94	50		 push	 eax
  02d95	e8 00 00 00 00	 call	 _memset
  02d9a	83 c4 0c	 add	 esp, 12			; 0000000cH
  02d9d	c6 85 c8 aa ff
	ff 78		 mov	 BYTE PTR _sndconfig$[ebp+18124], 120 ; 00000078H
  02da4	c6 85 c9 aa ff
	ff 00		 mov	 BYTE PTR _sndconfig$[ebp+18125], 0
  02dab	c6 85 ca aa ff
	ff 01		 mov	 BYTE PTR _sndconfig$[ebp+18126], 1

; 104  : 
; 105  : 	// ????
; 106  : 	{  201,	"data\\se\\sas_01.wav", 90, 0, 0 /*, "烃???"*/ },

  02db2	b8 c9 00 00 00	 mov	 eax, 201		; 000000c9H
  02db7	66 89 85 cc aa
	ff ff		 mov	 WORD PTR _sndconfig$[ebp+18128], ax
  02dbe	a1 00 00 00 00	 mov	 eax, DWORD PTR ??_C@_0BD@JLDBMNGG@data?2se?2sas_01?4wav?$AA@
  02dc3	89 85 ce aa ff
	ff		 mov	 DWORD PTR _sndconfig$[ebp+18130], eax
  02dc9	8b 0d 04 00 00
	00		 mov	 ecx, DWORD PTR ??_C@_0BD@JLDBMNGG@data?2se?2sas_01?4wav?$AA@+4
  02dcf	89 8d d2 aa ff
	ff		 mov	 DWORD PTR _sndconfig$[ebp+18134], ecx
  02dd5	8b 15 08 00 00
	00		 mov	 edx, DWORD PTR ??_C@_0BD@JLDBMNGG@data?2se?2sas_01?4wav?$AA@+8
  02ddb	89 95 d6 aa ff
	ff		 mov	 DWORD PTR _sndconfig$[ebp+18138], edx
  02de1	a1 0c 00 00 00	 mov	 eax, DWORD PTR ??_C@_0BD@JLDBMNGG@data?2se?2sas_01?4wav?$AA@+12
  02de6	89 85 da aa ff
	ff		 mov	 DWORD PTR _sndconfig$[ebp+18142], eax
  02dec	66 8b 0d 10 00
	00 00		 mov	 cx, WORD PTR ??_C@_0BD@JLDBMNGG@data?2se?2sas_01?4wav?$AA@+16
  02df3	66 89 8d de aa
	ff ff		 mov	 WORD PTR _sndconfig$[ebp+18146], cx
  02dfa	8a 15 12 00 00
	00		 mov	 dl, BYTE PTR ??_C@_0BD@JLDBMNGG@data?2se?2sas_01?4wav?$AA@+18
  02e00	88 95 e0 aa ff
	ff		 mov	 BYTE PTR _sndconfig$[ebp+18148], dl
  02e06	68 b5 00 00 00	 push	 181			; 000000b5H
  02e0b	6a 00		 push	 0
  02e0d	8d 85 e1 aa ff
	ff		 lea	 eax, DWORD PTR _sndconfig$[ebp+18149]
  02e13	50		 push	 eax
  02e14	e8 00 00 00 00	 call	 _memset
  02e19	83 c4 0c	 add	 esp, 12			; 0000000cH
  02e1c	c6 85 96 ab ff
	ff 5a		 mov	 BYTE PTR _sndconfig$[ebp+18330], 90 ; 0000005aH
  02e23	c6 85 97 ab ff
	ff 00		 mov	 BYTE PTR _sndconfig$[ebp+18331], 0
  02e2a	c6 85 98 ab ff
	ff 00		 mov	 BYTE PTR _sndconfig$[ebp+18332], 0

; 107  : 	{  202,	"data\\se\\sas_02.wav", 80, 0, 0 /*, "????????"*/ },

  02e31	b8 ca 00 00 00	 mov	 eax, 202		; 000000caH
  02e36	66 89 85 9a ab
	ff ff		 mov	 WORD PTR _sndconfig$[ebp+18334], ax
  02e3d	a1 00 00 00 00	 mov	 eax, DWORD PTR ??_C@_0BD@BNKFLPMI@data?2se?2sas_02?4wav?$AA@
  02e42	89 85 9c ab ff
	ff		 mov	 DWORD PTR _sndconfig$[ebp+18336], eax
  02e48	8b 0d 04 00 00
	00		 mov	 ecx, DWORD PTR ??_C@_0BD@BNKFLPMI@data?2se?2sas_02?4wav?$AA@+4
  02e4e	89 8d a0 ab ff
	ff		 mov	 DWORD PTR _sndconfig$[ebp+18340], ecx
  02e54	8b 15 08 00 00
	00		 mov	 edx, DWORD PTR ??_C@_0BD@BNKFLPMI@data?2se?2sas_02?4wav?$AA@+8
  02e5a	89 95 a4 ab ff
	ff		 mov	 DWORD PTR _sndconfig$[ebp+18344], edx
  02e60	a1 0c 00 00 00	 mov	 eax, DWORD PTR ??_C@_0BD@BNKFLPMI@data?2se?2sas_02?4wav?$AA@+12
  02e65	89 85 a8 ab ff
	ff		 mov	 DWORD PTR _sndconfig$[ebp+18348], eax
  02e6b	66 8b 0d 10 00
	00 00		 mov	 cx, WORD PTR ??_C@_0BD@BNKFLPMI@data?2se?2sas_02?4wav?$AA@+16
  02e72	66 89 8d ac ab
	ff ff		 mov	 WORD PTR _sndconfig$[ebp+18352], cx
  02e79	8a 15 12 00 00
	00		 mov	 dl, BYTE PTR ??_C@_0BD@BNKFLPMI@data?2se?2sas_02?4wav?$AA@+18
  02e7f	88 95 ae ab ff
	ff		 mov	 BYTE PTR _sndconfig$[ebp+18354], dl
  02e85	68 b5 00 00 00	 push	 181			; 000000b5H
  02e8a	6a 00		 push	 0
  02e8c	8d 85 af ab ff
	ff		 lea	 eax, DWORD PTR _sndconfig$[ebp+18355]
  02e92	50		 push	 eax
  02e93	e8 00 00 00 00	 call	 _memset
  02e98	83 c4 0c	 add	 esp, 12			; 0000000cH
  02e9b	c6 85 64 ac ff
	ff 50		 mov	 BYTE PTR _sndconfig$[ebp+18536], 80 ; 00000050H
  02ea2	c6 85 65 ac ff
	ff 00		 mov	 BYTE PTR _sndconfig$[ebp+18537], 0
  02ea9	c6 85 66 ac ff
	ff 00		 mov	 BYTE PTR _sndconfig$[ebp+18538], 0

; 108  : 	{  203,	"data\\se\\sas_03.wav", 75, 0, 0 /*, "????????"*/ },

  02eb0	b8 cb 00 00 00	 mov	 eax, 203		; 000000cbH
  02eb5	66 89 85 68 ac
	ff ff		 mov	 WORD PTR _sndconfig$[ebp+18540], ax
  02ebc	a1 00 00 00 00	 mov	 eax, DWORD PTR ??_C@_0BD@NGPJGMGN@data?2se?2sas_03?4wav?$AA@
  02ec1	89 85 6a ac ff
	ff		 mov	 DWORD PTR _sndconfig$[ebp+18542], eax
  02ec7	8b 0d 04 00 00
	00		 mov	 ecx, DWORD PTR ??_C@_0BD@NGPJGMGN@data?2se?2sas_03?4wav?$AA@+4
  02ecd	89 8d 6e ac ff
	ff		 mov	 DWORD PTR _sndconfig$[ebp+18546], ecx
  02ed3	8b 15 08 00 00
	00		 mov	 edx, DWORD PTR ??_C@_0BD@NGPJGMGN@data?2se?2sas_03?4wav?$AA@+8
  02ed9	89 95 72 ac ff
	ff		 mov	 DWORD PTR _sndconfig$[ebp+18550], edx
  02edf	a1 0c 00 00 00	 mov	 eax, DWORD PTR ??_C@_0BD@NGPJGMGN@data?2se?2sas_03?4wav?$AA@+12
  02ee4	89 85 76 ac ff
	ff		 mov	 DWORD PTR _sndconfig$[ebp+18554], eax
  02eea	66 8b 0d 10 00
	00 00		 mov	 cx, WORD PTR ??_C@_0BD@NGPJGMGN@data?2se?2sas_03?4wav?$AA@+16
  02ef1	66 89 8d 7a ac
	ff ff		 mov	 WORD PTR _sndconfig$[ebp+18558], cx
  02ef8	8a 15 12 00 00
	00		 mov	 dl, BYTE PTR ??_C@_0BD@NGPJGMGN@data?2se?2sas_03?4wav?$AA@+18
  02efe	88 95 7c ac ff
	ff		 mov	 BYTE PTR _sndconfig$[ebp+18560], dl
  02f04	68 b5 00 00 00	 push	 181			; 000000b5H
  02f09	6a 00		 push	 0
  02f0b	8d 85 7d ac ff
	ff		 lea	 eax, DWORD PTR _sndconfig$[ebp+18561]
  02f11	50		 push	 eax
  02f12	e8 00 00 00 00	 call	 _memset
  02f17	83 c4 0c	 add	 esp, 12			; 0000000cH
  02f1a	c6 85 32 ad ff
	ff 4b		 mov	 BYTE PTR _sndconfig$[ebp+18742], 75 ; 0000004bH
  02f21	c6 85 33 ad ff
	ff 00		 mov	 BYTE PTR _sndconfig$[ebp+18743], 0
  02f28	c6 85 34 ad ff
	ff 00		 mov	 BYTE PTR _sndconfig$[ebp+18744], 0

; 109  : 	{  204,	"data\\se\\sas_04.wav", 80, 0, 0 /*, "?????????"*/ },

  02f2f	b8 cc 00 00 00	 mov	 eax, 204		; 000000ccH
  02f34	66 89 85 36 ad
	ff ff		 mov	 WORD PTR _sndconfig$[ebp+18746], ax
  02f3b	a1 00 00 00 00	 mov	 eax, DWORD PTR ??_C@_0BD@MLPMFMNF@data?2se?2sas_04?4wav?$AA@
  02f40	89 85 38 ad ff
	ff		 mov	 DWORD PTR _sndconfig$[ebp+18748], eax
  02f46	8b 0d 04 00 00
	00		 mov	 ecx, DWORD PTR ??_C@_0BD@MLPMFMNF@data?2se?2sas_04?4wav?$AA@+4
  02f4c	89 8d 3c ad ff
	ff		 mov	 DWORD PTR _sndconfig$[ebp+18752], ecx
  02f52	8b 15 08 00 00
	00		 mov	 edx, DWORD PTR ??_C@_0BD@MLPMFMNF@data?2se?2sas_04?4wav?$AA@+8
  02f58	89 95 40 ad ff
	ff		 mov	 DWORD PTR _sndconfig$[ebp+18756], edx
  02f5e	a1 0c 00 00 00	 mov	 eax, DWORD PTR ??_C@_0BD@MLPMFMNF@data?2se?2sas_04?4wav?$AA@+12
  02f63	89 85 44 ad ff
	ff		 mov	 DWORD PTR _sndconfig$[ebp+18760], eax
  02f69	66 8b 0d 10 00
	00 00		 mov	 cx, WORD PTR ??_C@_0BD@MLPMFMNF@data?2se?2sas_04?4wav?$AA@+16
  02f70	66 89 8d 48 ad
	ff ff		 mov	 WORD PTR _sndconfig$[ebp+18764], cx
  02f77	8a 15 12 00 00
	00		 mov	 dl, BYTE PTR ??_C@_0BD@MLPMFMNF@data?2se?2sas_04?4wav?$AA@+18
  02f7d	88 95 4a ad ff
	ff		 mov	 BYTE PTR _sndconfig$[ebp+18766], dl
  02f83	68 b5 00 00 00	 push	 181			; 000000b5H
  02f88	6a 00		 push	 0
  02f8a	8d 85 4b ad ff
	ff		 lea	 eax, DWORD PTR _sndconfig$[ebp+18767]
  02f90	50		 push	 eax
  02f91	e8 00 00 00 00	 call	 _memset
  02f96	83 c4 0c	 add	 esp, 12			; 0000000cH
  02f99	c6 85 00 ae ff
	ff 50		 mov	 BYTE PTR _sndconfig$[ebp+18948], 80 ; 00000050H
  02fa0	c6 85 01 ae ff
	ff 00		 mov	 BYTE PTR _sndconfig$[ebp+18949], 0
  02fa7	c6 85 02 ae ff
	ff 00		 mov	 BYTE PTR _sndconfig$[ebp+18950], 0

; 110  : 	{  205,	"data\\se\\sas_05.wav", 80, 0, 0 /*, "?????????"*/ },

  02fae	b8 cd 00 00 00	 mov	 eax, 205		; 000000cdH
  02fb3	66 89 85 04 ae
	ff ff		 mov	 WORD PTR _sndconfig$[ebp+18952], ax
  02fba	a1 00 00 00 00	 mov	 eax, DWORD PTR ??_C@_0BD@KAIPHA@data?2se?2sas_05?4wav?$AA@
  02fbf	89 85 06 ae ff
	ff		 mov	 DWORD PTR _sndconfig$[ebp+18954], eax
  02fc5	8b 0d 04 00 00
	00		 mov	 ecx, DWORD PTR ??_C@_0BD@KAIPHA@data?2se?2sas_05?4wav?$AA@+4
  02fcb	89 8d 0a ae ff
	ff		 mov	 DWORD PTR _sndconfig$[ebp+18958], ecx
  02fd1	8b 15 08 00 00
	00		 mov	 edx, DWORD PTR ??_C@_0BD@KAIPHA@data?2se?2sas_05?4wav?$AA@+8
  02fd7	89 95 0e ae ff
	ff		 mov	 DWORD PTR _sndconfig$[ebp+18962], edx
  02fdd	a1 0c 00 00 00	 mov	 eax, DWORD PTR ??_C@_0BD@KAIPHA@data?2se?2sas_05?4wav?$AA@+12
  02fe2	89 85 12 ae ff
	ff		 mov	 DWORD PTR _sndconfig$[ebp+18966], eax
  02fe8	66 8b 0d 10 00
	00 00		 mov	 cx, WORD PTR ??_C@_0BD@KAIPHA@data?2se?2sas_05?4wav?$AA@+16
  02fef	66 89 8d 16 ae
	ff ff		 mov	 WORD PTR _sndconfig$[ebp+18970], cx
  02ff6	8a 15 12 00 00
	00		 mov	 dl, BYTE PTR ??_C@_0BD@KAIPHA@data?2se?2sas_05?4wav?$AA@+18
  02ffc	88 95 18 ae ff
	ff		 mov	 BYTE PTR _sndconfig$[ebp+18972], dl
  03002	68 b5 00 00 00	 push	 181			; 000000b5H
  03007	6a 00		 push	 0
  03009	8d 85 19 ae ff
	ff		 lea	 eax, DWORD PTR _sndconfig$[ebp+18973]
  0300f	50		 push	 eax
  03010	e8 00 00 00 00	 call	 _memset
  03015	83 c4 0c	 add	 esp, 12			; 0000000cH
  03018	c6 85 ce ae ff
	ff 50		 mov	 BYTE PTR _sndconfig$[ebp+19154], 80 ; 00000050H
  0301f	c6 85 cf ae ff
	ff 00		 mov	 BYTE PTR _sndconfig$[ebp+19155], 0
  03026	c6 85 d0 ae ff
	ff 00		 mov	 BYTE PTR _sndconfig$[ebp+19156], 0

; 111  : 	{  206,	"data\\se\\sas_06.wav", 80, 0, 0 /*, "???????"*/ },

  0302d	b8 ce 00 00 00	 mov	 eax, 206		; 000000ceH
  03032	66 89 85 d2 ae
	ff ff		 mov	 WORD PTR _sndconfig$[ebp+19158], ax
  03039	a1 00 00 00 00	 mov	 eax, DWORD PTR ??_C@_0BD@IGDEPNNO@data?2se?2sas_06?4wav?$AA@
  0303e	89 85 d4 ae ff
	ff		 mov	 DWORD PTR _sndconfig$[ebp+19160], eax
  03044	8b 0d 04 00 00
	00		 mov	 ecx, DWORD PTR ??_C@_0BD@IGDEPNNO@data?2se?2sas_06?4wav?$AA@+4
  0304a	89 8d d8 ae ff
	ff		 mov	 DWORD PTR _sndconfig$[ebp+19164], ecx
  03050	8b 15 08 00 00
	00		 mov	 edx, DWORD PTR ??_C@_0BD@IGDEPNNO@data?2se?2sas_06?4wav?$AA@+8
  03056	89 95 dc ae ff
	ff		 mov	 DWORD PTR _sndconfig$[ebp+19168], edx
  0305c	a1 0c 00 00 00	 mov	 eax, DWORD PTR ??_C@_0BD@IGDEPNNO@data?2se?2sas_06?4wav?$AA@+12
  03061	89 85 e0 ae ff
	ff		 mov	 DWORD PTR _sndconfig$[ebp+19172], eax
  03067	66 8b 0d 10 00
	00 00		 mov	 cx, WORD PTR ??_C@_0BD@IGDEPNNO@data?2se?2sas_06?4wav?$AA@+16
  0306e	66 89 8d e4 ae
	ff ff		 mov	 WORD PTR _sndconfig$[ebp+19176], cx
  03075	8a 15 12 00 00
	00		 mov	 dl, BYTE PTR ??_C@_0BD@IGDEPNNO@data?2se?2sas_06?4wav?$AA@+18
  0307b	88 95 e6 ae ff
	ff		 mov	 BYTE PTR _sndconfig$[ebp+19178], dl
  03081	68 b5 00 00 00	 push	 181			; 000000b5H
  03086	6a 00		 push	 0
  03088	8d 85 e7 ae ff
	ff		 lea	 eax, DWORD PTR _sndconfig$[ebp+19179]
  0308e	50		 push	 eax
  0308f	e8 00 00 00 00	 call	 _memset
  03094	83 c4 0c	 add	 esp, 12			; 0000000cH
  03097	c6 85 9c af ff
	ff 50		 mov	 BYTE PTR _sndconfig$[ebp+19360], 80 ; 00000050H
  0309e	c6 85 9d af ff
	ff 00		 mov	 BYTE PTR _sndconfig$[ebp+19361], 0
  030a5	c6 85 9e af ff
	ff 00		 mov	 BYTE PTR _sndconfig$[ebp+19362], 0

; 112  : 	{  207,	"data\\se\\sas_07.wav", 123, 0, 0 /*, ""*/ },

  030ac	b8 cf 00 00 00	 mov	 eax, 207		; 000000cfH
  030b1	66 89 85 a0 af
	ff ff		 mov	 WORD PTR _sndconfig$[ebp+19364], ax
  030b8	a1 00 00 00 00	 mov	 eax, DWORD PTR ??_C@_0BD@ENGICOHL@data?2se?2sas_07?4wav?$AA@
  030bd	89 85 a2 af ff
	ff		 mov	 DWORD PTR _sndconfig$[ebp+19366], eax
  030c3	8b 0d 04 00 00
	00		 mov	 ecx, DWORD PTR ??_C@_0BD@ENGICOHL@data?2se?2sas_07?4wav?$AA@+4
  030c9	89 8d a6 af ff
	ff		 mov	 DWORD PTR _sndconfig$[ebp+19370], ecx
  030cf	8b 15 08 00 00
	00		 mov	 edx, DWORD PTR ??_C@_0BD@ENGICOHL@data?2se?2sas_07?4wav?$AA@+8
  030d5	89 95 aa af ff
	ff		 mov	 DWORD PTR _sndconfig$[ebp+19374], edx
  030db	a1 0c 00 00 00	 mov	 eax, DWORD PTR ??_C@_0BD@ENGICOHL@data?2se?2sas_07?4wav?$AA@+12
  030e0	89 85 ae af ff
	ff		 mov	 DWORD PTR _sndconfig$[ebp+19378], eax
  030e6	66 8b 0d 10 00
	00 00		 mov	 cx, WORD PTR ??_C@_0BD@ENGICOHL@data?2se?2sas_07?4wav?$AA@+16
  030ed	66 89 8d b2 af
	ff ff		 mov	 WORD PTR _sndconfig$[ebp+19382], cx
  030f4	8a 15 12 00 00
	00		 mov	 dl, BYTE PTR ??_C@_0BD@ENGICOHL@data?2se?2sas_07?4wav?$AA@+18
  030fa	88 95 b4 af ff
	ff		 mov	 BYTE PTR _sndconfig$[ebp+19384], dl
  03100	68 b5 00 00 00	 push	 181			; 000000b5H
  03105	6a 00		 push	 0
  03107	8d 85 b5 af ff
	ff		 lea	 eax, DWORD PTR _sndconfig$[ebp+19385]
  0310d	50		 push	 eax
  0310e	e8 00 00 00 00	 call	 _memset
  03113	83 c4 0c	 add	 esp, 12			; 0000000cH
  03116	c6 85 6a b0 ff
	ff 7b		 mov	 BYTE PTR _sndconfig$[ebp+19566], 123 ; 0000007bH
  0311d	c6 85 6b b0 ff
	ff 00		 mov	 BYTE PTR _sndconfig$[ebp+19567], 0
  03124	c6 85 6c b0 ff
	ff 00		 mov	 BYTE PTR _sndconfig$[ebp+19568], 0

; 113  : 	{  208,	"data\\se\\sas_08.wav", 123, 0, 0 /*, ""*/ },

  0312b	b8 d0 00 00 00	 mov	 eax, 208		; 000000d0H
  03130	66 89 85 6e b0
	ff ff		 mov	 WORD PTR _sndconfig$[ebp+19570], ax
  03137	a1 00 00 00 00	 mov	 eax, DWORD PTR ??_C@_0BD@LMDOJMKO@data?2se?2sas_08?4wav?$AA@
  0313c	89 85 70 b0 ff
	ff		 mov	 DWORD PTR _sndconfig$[ebp+19572], eax
  03142	8b 0d 04 00 00
	00		 mov	 ecx, DWORD PTR ??_C@_0BD@LMDOJMKO@data?2se?2sas_08?4wav?$AA@+4
  03148	89 8d 74 b0 ff
	ff		 mov	 DWORD PTR _sndconfig$[ebp+19576], ecx
  0314e	8b 15 08 00 00
	00		 mov	 edx, DWORD PTR ??_C@_0BD@LMDOJMKO@data?2se?2sas_08?4wav?$AA@+8
  03154	89 95 78 b0 ff
	ff		 mov	 DWORD PTR _sndconfig$[ebp+19580], edx
  0315a	a1 0c 00 00 00	 mov	 eax, DWORD PTR ??_C@_0BD@LMDOJMKO@data?2se?2sas_08?4wav?$AA@+12
  0315f	89 85 7c b0 ff
	ff		 mov	 DWORD PTR _sndconfig$[ebp+19584], eax
  03165	66 8b 0d 10 00
	00 00		 mov	 cx, WORD PTR ??_C@_0BD@LMDOJMKO@data?2se?2sas_08?4wav?$AA@+16
  0316c	66 89 8d 80 b0
	ff ff		 mov	 WORD PTR _sndconfig$[ebp+19588], cx
  03173	8a 15 12 00 00
	00		 mov	 dl, BYTE PTR ??_C@_0BD@LMDOJMKO@data?2se?2sas_08?4wav?$AA@+18
  03179	88 95 82 b0 ff
	ff		 mov	 BYTE PTR _sndconfig$[ebp+19590], dl
  0317f	68 b5 00 00 00	 push	 181			; 000000b5H
  03184	6a 00		 push	 0
  03186	8d 85 83 b0 ff
	ff		 lea	 eax, DWORD PTR _sndconfig$[ebp+19591]
  0318c	50		 push	 eax
  0318d	e8 00 00 00 00	 call	 _memset
  03192	83 c4 0c	 add	 esp, 12			; 0000000cH
  03195	c6 85 38 b1 ff
	ff 7b		 mov	 BYTE PTR _sndconfig$[ebp+19772], 123 ; 0000007bH
  0319c	c6 85 39 b1 ff
	ff 00		 mov	 BYTE PTR _sndconfig$[ebp+19773], 0
  031a3	c6 85 3a b1 ff
	ff 00		 mov	 BYTE PTR _sndconfig$[ebp+19774], 0

; 114  : 	{  209,	"data\\se\\sas_09.wav", 123, 0, 0 /*, ""*/ },

  031aa	b8 d1 00 00 00	 mov	 eax, 209		; 000000d1H
  031af	66 89 85 3c b1
	ff ff		 mov	 WORD PTR _sndconfig$[ebp+19776], ax
  031b6	a1 00 00 00 00	 mov	 eax, DWORD PTR ??_C@_0BD@HHGCEPAL@data?2se?2sas_09?4wav?$AA@
  031bb	89 85 3e b1 ff
	ff		 mov	 DWORD PTR _sndconfig$[ebp+19778], eax
  031c1	8b 0d 04 00 00
	00		 mov	 ecx, DWORD PTR ??_C@_0BD@HHGCEPAL@data?2se?2sas_09?4wav?$AA@+4
  031c7	89 8d 42 b1 ff
	ff		 mov	 DWORD PTR _sndconfig$[ebp+19782], ecx
  031cd	8b 15 08 00 00
	00		 mov	 edx, DWORD PTR ??_C@_0BD@HHGCEPAL@data?2se?2sas_09?4wav?$AA@+8
  031d3	89 95 46 b1 ff
	ff		 mov	 DWORD PTR _sndconfig$[ebp+19786], edx
  031d9	a1 0c 00 00 00	 mov	 eax, DWORD PTR ??_C@_0BD@HHGCEPAL@data?2se?2sas_09?4wav?$AA@+12
  031de	89 85 4a b1 ff
	ff		 mov	 DWORD PTR _sndconfig$[ebp+19790], eax
  031e4	66 8b 0d 10 00
	00 00		 mov	 cx, WORD PTR ??_C@_0BD@HHGCEPAL@data?2se?2sas_09?4wav?$AA@+16
  031eb	66 89 8d 4e b1
	ff ff		 mov	 WORD PTR _sndconfig$[ebp+19794], cx
  031f2	8a 15 12 00 00
	00		 mov	 dl, BYTE PTR ??_C@_0BD@HHGCEPAL@data?2se?2sas_09?4wav?$AA@+18
  031f8	88 95 50 b1 ff
	ff		 mov	 BYTE PTR _sndconfig$[ebp+19796], dl
  031fe	68 b5 00 00 00	 push	 181			; 000000b5H
  03203	6a 00		 push	 0
  03205	8d 85 51 b1 ff
	ff		 lea	 eax, DWORD PTR _sndconfig$[ebp+19797]
  0320b	50		 push	 eax
  0320c	e8 00 00 00 00	 call	 _memset
  03211	83 c4 0c	 add	 esp, 12			; 0000000cH
  03214	c6 85 06 b2 ff
	ff 7b		 mov	 BYTE PTR _sndconfig$[ebp+19978], 123 ; 0000007bH
  0321b	c6 85 07 b2 ff
	ff 00		 mov	 BYTE PTR _sndconfig$[ebp+19979], 0
  03222	c6 85 08 b2 ff
	ff 00		 mov	 BYTE PTR _sndconfig$[ebp+19980], 0

; 115  : 	{  210,	"data\\se\\sas_10.wav", 123, 0, 0 /*, ""*/ },

  03229	b8 d2 00 00 00	 mov	 eax, 210		; 000000d2H
  0322e	66 89 85 0a b2
	ff ff		 mov	 WORD PTR _sndconfig$[ebp+19982], ax
  03235	a1 00 00 00 00	 mov	 eax, DWORD PTR ??_C@_0BD@PGBKBFHH@data?2se?2sas_10?4wav?$AA@
  0323a	89 85 0c b2 ff
	ff		 mov	 DWORD PTR _sndconfig$[ebp+19984], eax
  03240	8b 0d 04 00 00
	00		 mov	 ecx, DWORD PTR ??_C@_0BD@PGBKBFHH@data?2se?2sas_10?4wav?$AA@+4
  03246	89 8d 10 b2 ff
	ff		 mov	 DWORD PTR _sndconfig$[ebp+19988], ecx
  0324c	8b 15 08 00 00
	00		 mov	 edx, DWORD PTR ??_C@_0BD@PGBKBFHH@data?2se?2sas_10?4wav?$AA@+8
  03252	89 95 14 b2 ff
	ff		 mov	 DWORD PTR _sndconfig$[ebp+19992], edx
  03258	a1 0c 00 00 00	 mov	 eax, DWORD PTR ??_C@_0BD@PGBKBFHH@data?2se?2sas_10?4wav?$AA@+12
  0325d	89 85 18 b2 ff
	ff		 mov	 DWORD PTR _sndconfig$[ebp+19996], eax
  03263	66 8b 0d 10 00
	00 00		 mov	 cx, WORD PTR ??_C@_0BD@PGBKBFHH@data?2se?2sas_10?4wav?$AA@+16
  0326a	66 89 8d 1c b2
	ff ff		 mov	 WORD PTR _sndconfig$[ebp+20000], cx
  03271	8a 15 12 00 00
	00		 mov	 dl, BYTE PTR ??_C@_0BD@PGBKBFHH@data?2se?2sas_10?4wav?$AA@+18
  03277	88 95 1e b2 ff
	ff		 mov	 BYTE PTR _sndconfig$[ebp+20002], dl
  0327d	68 b5 00 00 00	 push	 181			; 000000b5H
  03282	6a 00		 push	 0
  03284	8d 85 1f b2 ff
	ff		 lea	 eax, DWORD PTR _sndconfig$[ebp+20003]
  0328a	50		 push	 eax
  0328b	e8 00 00 00 00	 call	 _memset
  03290	83 c4 0c	 add	 esp, 12			; 0000000cH
  03293	c6 85 d4 b2 ff
	ff 7b		 mov	 BYTE PTR _sndconfig$[ebp+20184], 123 ; 0000007bH
  0329a	c6 85 d5 b2 ff
	ff 00		 mov	 BYTE PTR _sndconfig$[ebp+20185], 0
  032a1	c6 85 d6 b2 ff
	ff 00		 mov	 BYTE PTR _sndconfig$[ebp+20186], 0

; 116  : 	{  211,	"data\\se\\sas_11.wav", 65, 0, 0 /*, ??????""*/ },

  032a8	b8 d3 00 00 00	 mov	 eax, 211		; 000000d3H
  032ad	66 89 85 d8 b2
	ff ff		 mov	 WORD PTR _sndconfig$[ebp+20188], ax
  032b4	a1 00 00 00 00	 mov	 eax, DWORD PTR ??_C@_0BD@DNEGMGNC@data?2se?2sas_11?4wav?$AA@
  032b9	89 85 da b2 ff
	ff		 mov	 DWORD PTR _sndconfig$[ebp+20190], eax
  032bf	8b 0d 04 00 00
	00		 mov	 ecx, DWORD PTR ??_C@_0BD@DNEGMGNC@data?2se?2sas_11?4wav?$AA@+4
  032c5	89 8d de b2 ff
	ff		 mov	 DWORD PTR _sndconfig$[ebp+20194], ecx
  032cb	8b 15 08 00 00
	00		 mov	 edx, DWORD PTR ??_C@_0BD@DNEGMGNC@data?2se?2sas_11?4wav?$AA@+8
  032d1	89 95 e2 b2 ff
	ff		 mov	 DWORD PTR _sndconfig$[ebp+20198], edx
  032d7	a1 0c 00 00 00	 mov	 eax, DWORD PTR ??_C@_0BD@DNEGMGNC@data?2se?2sas_11?4wav?$AA@+12
  032dc	89 85 e6 b2 ff
	ff		 mov	 DWORD PTR _sndconfig$[ebp+20202], eax
  032e2	66 8b 0d 10 00
	00 00		 mov	 cx, WORD PTR ??_C@_0BD@DNEGMGNC@data?2se?2sas_11?4wav?$AA@+16
  032e9	66 89 8d ea b2
	ff ff		 mov	 WORD PTR _sndconfig$[ebp+20206], cx
  032f0	8a 15 12 00 00
	00		 mov	 dl, BYTE PTR ??_C@_0BD@DNEGMGNC@data?2se?2sas_11?4wav?$AA@+18
  032f6	88 95 ec b2 ff
	ff		 mov	 BYTE PTR _sndconfig$[ebp+20208], dl
  032fc	68 b5 00 00 00	 push	 181			; 000000b5H
  03301	6a 00		 push	 0
  03303	8d 85 ed b2 ff
	ff		 lea	 eax, DWORD PTR _sndconfig$[ebp+20209]
  03309	50		 push	 eax
  0330a	e8 00 00 00 00	 call	 _memset
  0330f	83 c4 0c	 add	 esp, 12			; 0000000cH
  03312	c6 85 a2 b3 ff
	ff 41		 mov	 BYTE PTR _sndconfig$[ebp+20390], 65 ; 00000041H
  03319	c6 85 a3 b3 ff
	ff 00		 mov	 BYTE PTR _sndconfig$[ebp+20391], 0
  03320	c6 85 a4 b3 ff
	ff 00		 mov	 BYTE PTR _sndconfig$[ebp+20392], 0

; 117  : 	{  212,	"data\\se\\sas_12.wav", 80, 0, 0 /*, "?????"*/ },

  03327	b8 d4 00 00 00	 mov	 eax, 212		; 000000d4H
  0332c	66 89 85 a6 b3
	ff ff		 mov	 WORD PTR _sndconfig$[ebp+20394], ax
  03333	a1 00 00 00 00	 mov	 eax, DWORD PTR ??_C@_0BD@LLNCLEHM@data?2se?2sas_12?4wav?$AA@
  03338	89 85 a8 b3 ff
	ff		 mov	 DWORD PTR _sndconfig$[ebp+20396], eax
  0333e	8b 0d 04 00 00
	00		 mov	 ecx, DWORD PTR ??_C@_0BD@LLNCLEHM@data?2se?2sas_12?4wav?$AA@+4
  03344	89 8d ac b3 ff
	ff		 mov	 DWORD PTR _sndconfig$[ebp+20400], ecx
  0334a	8b 15 08 00 00
	00		 mov	 edx, DWORD PTR ??_C@_0BD@LLNCLEHM@data?2se?2sas_12?4wav?$AA@+8
  03350	89 95 b0 b3 ff
	ff		 mov	 DWORD PTR _sndconfig$[ebp+20404], edx
  03356	a1 0c 00 00 00	 mov	 eax, DWORD PTR ??_C@_0BD@LLNCLEHM@data?2se?2sas_12?4wav?$AA@+12
  0335b	89 85 b4 b3 ff
	ff		 mov	 DWORD PTR _sndconfig$[ebp+20408], eax
  03361	66 8b 0d 10 00
	00 00		 mov	 cx, WORD PTR ??_C@_0BD@LLNCLEHM@data?2se?2sas_12?4wav?$AA@+16
  03368	66 89 8d b8 b3
	ff ff		 mov	 WORD PTR _sndconfig$[ebp+20412], cx
  0336f	8a 15 12 00 00
	00		 mov	 dl, BYTE PTR ??_C@_0BD@LLNCLEHM@data?2se?2sas_12?4wav?$AA@+18
  03375	88 95 ba b3 ff
	ff		 mov	 BYTE PTR _sndconfig$[ebp+20414], dl
  0337b	68 b5 00 00 00	 push	 181			; 000000b5H
  03380	6a 00		 push	 0
  03382	8d 85 bb b3 ff
	ff		 lea	 eax, DWORD PTR _sndconfig$[ebp+20415]
  03388	50		 push	 eax
  03389	e8 00 00 00 00	 call	 _memset
  0338e	83 c4 0c	 add	 esp, 12			; 0000000cH
  03391	c6 85 70 b4 ff
	ff 50		 mov	 BYTE PTR _sndconfig$[ebp+20596], 80 ; 00000050H
  03398	c6 85 71 b4 ff
	ff 00		 mov	 BYTE PTR _sndconfig$[ebp+20597], 0
  0339f	c6 85 72 b4 ff
	ff 00		 mov	 BYTE PTR _sndconfig$[ebp+20598], 0

; 118  : 	{  213,	"data\\se\\sas_13.wav", 123, 0, 0 /*, "????"*/ },

  033a6	b8 d5 00 00 00	 mov	 eax, 213		; 000000d5H
  033ab	66 89 85 74 b4
	ff ff		 mov	 WORD PTR _sndconfig$[ebp+20600], ax
  033b2	a1 00 00 00 00	 mov	 eax, DWORD PTR ??_C@_0BD@HAIOGHNJ@data?2se?2sas_13?4wav?$AA@
  033b7	89 85 76 b4 ff
	ff		 mov	 DWORD PTR _sndconfig$[ebp+20602], eax
  033bd	8b 0d 04 00 00
	00		 mov	 ecx, DWORD PTR ??_C@_0BD@HAIOGHNJ@data?2se?2sas_13?4wav?$AA@+4
  033c3	89 8d 7a b4 ff
	ff		 mov	 DWORD PTR _sndconfig$[ebp+20606], ecx
  033c9	8b 15 08 00 00
	00		 mov	 edx, DWORD PTR ??_C@_0BD@HAIOGHNJ@data?2se?2sas_13?4wav?$AA@+8
  033cf	89 95 7e b4 ff
	ff		 mov	 DWORD PTR _sndconfig$[ebp+20610], edx
  033d5	a1 0c 00 00 00	 mov	 eax, DWORD PTR ??_C@_0BD@HAIOGHNJ@data?2se?2sas_13?4wav?$AA@+12
  033da	89 85 82 b4 ff
	ff		 mov	 DWORD PTR _sndconfig$[ebp+20614], eax
  033e0	66 8b 0d 10 00
	00 00		 mov	 cx, WORD PTR ??_C@_0BD@HAIOGHNJ@data?2se?2sas_13?4wav?$AA@+16
  033e7	66 89 8d 86 b4
	ff ff		 mov	 WORD PTR _sndconfig$[ebp+20618], cx
  033ee	8a 15 12 00 00
	00		 mov	 dl, BYTE PTR ??_C@_0BD@HAIOGHNJ@data?2se?2sas_13?4wav?$AA@+18
  033f4	88 95 88 b4 ff
	ff		 mov	 BYTE PTR _sndconfig$[ebp+20620], dl
  033fa	68 b5 00 00 00	 push	 181			; 000000b5H
  033ff	6a 00		 push	 0
  03401	8d 85 89 b4 ff
	ff		 lea	 eax, DWORD PTR _sndconfig$[ebp+20621]
  03407	50		 push	 eax
  03408	e8 00 00 00 00	 call	 _memset
  0340d	83 c4 0c	 add	 esp, 12			; 0000000cH
  03410	c6 85 3e b5 ff
	ff 7b		 mov	 BYTE PTR _sndconfig$[ebp+20802], 123 ; 0000007bH
  03417	c6 85 3f b5 ff
	ff 00		 mov	 BYTE PTR _sndconfig$[ebp+20803], 0
  0341e	c6 85 40 b5 ff
	ff 00		 mov	 BYTE PTR _sndconfig$[ebp+20804], 0

; 119  : //	{  214,	"data\\se\\sas_14.wav", 127, 0, 0 /*, "??"*/ },
; 120  : 	{  215,	"data\\se\\sas_15.wav", 82, 0, 0 /*, "??????"*/ },

  03425	b8 d7 00 00 00	 mov	 eax, 215		; 000000d7H
  0342a	66 89 85 42 b5
	ff ff		 mov	 WORD PTR _sndconfig$[ebp+20806], ax
  03431	a1 00 00 00 00	 mov	 eax, DWORD PTR ??_C@_0BD@KGNHIEME@data?2se?2sas_15?4wav?$AA@
  03436	89 85 44 b5 ff
	ff		 mov	 DWORD PTR _sndconfig$[ebp+20808], eax
  0343c	8b 0d 04 00 00
	00		 mov	 ecx, DWORD PTR ??_C@_0BD@KGNHIEME@data?2se?2sas_15?4wav?$AA@+4
  03442	89 8d 48 b5 ff
	ff		 mov	 DWORD PTR _sndconfig$[ebp+20812], ecx
  03448	8b 15 08 00 00
	00		 mov	 edx, DWORD PTR ??_C@_0BD@KGNHIEME@data?2se?2sas_15?4wav?$AA@+8
  0344e	89 95 4c b5 ff
	ff		 mov	 DWORD PTR _sndconfig$[ebp+20816], edx
  03454	a1 0c 00 00 00	 mov	 eax, DWORD PTR ??_C@_0BD@KGNHIEME@data?2se?2sas_15?4wav?$AA@+12
  03459	89 85 50 b5 ff
	ff		 mov	 DWORD PTR _sndconfig$[ebp+20820], eax
  0345f	66 8b 0d 10 00
	00 00		 mov	 cx, WORD PTR ??_C@_0BD@KGNHIEME@data?2se?2sas_15?4wav?$AA@+16
  03466	66 89 8d 54 b5
	ff ff		 mov	 WORD PTR _sndconfig$[ebp+20824], cx
  0346d	8a 15 12 00 00
	00		 mov	 dl, BYTE PTR ??_C@_0BD@KGNHIEME@data?2se?2sas_15?4wav?$AA@+18
  03473	88 95 56 b5 ff
	ff		 mov	 BYTE PTR _sndconfig$[ebp+20826], dl
  03479	68 b5 00 00 00	 push	 181			; 000000b5H
  0347e	6a 00		 push	 0
  03480	8d 85 57 b5 ff
	ff		 lea	 eax, DWORD PTR _sndconfig$[ebp+20827]
  03486	50		 push	 eax
  03487	e8 00 00 00 00	 call	 _memset
  0348c	83 c4 0c	 add	 esp, 12			; 0000000cH
  0348f	c6 85 0c b6 ff
	ff 52		 mov	 BYTE PTR _sndconfig$[ebp+21008], 82 ; 00000052H
  03496	c6 85 0d b6 ff
	ff 00		 mov	 BYTE PTR _sndconfig$[ebp+21009], 0
  0349d	c6 85 0e b6 ff
	ff 00		 mov	 BYTE PTR _sndconfig$[ebp+21010], 0

; 121  : 	{  216,	"data\\se\\sas_16.wav", 110, 0, 0 /*, "?????"*/ },

  034a4	b8 d8 00 00 00	 mov	 eax, 216		; 000000d8H
  034a9	66 89 85 10 b6
	ff ff		 mov	 WORD PTR _sndconfig$[ebp+21012], ax
  034b0	a1 00 00 00 00	 mov	 eax, DWORD PTR ??_C@_0BD@CAEDPGGK@data?2se?2sas_16?4wav?$AA@
  034b5	89 85 12 b6 ff
	ff		 mov	 DWORD PTR _sndconfig$[ebp+21014], eax
  034bb	8b 0d 04 00 00
	00		 mov	 ecx, DWORD PTR ??_C@_0BD@CAEDPGGK@data?2se?2sas_16?4wav?$AA@+4
  034c1	89 8d 16 b6 ff
	ff		 mov	 DWORD PTR _sndconfig$[ebp+21018], ecx
  034c7	8b 15 08 00 00
	00		 mov	 edx, DWORD PTR ??_C@_0BD@CAEDPGGK@data?2se?2sas_16?4wav?$AA@+8
  034cd	89 95 1a b6 ff
	ff		 mov	 DWORD PTR _sndconfig$[ebp+21022], edx
  034d3	a1 0c 00 00 00	 mov	 eax, DWORD PTR ??_C@_0BD@CAEDPGGK@data?2se?2sas_16?4wav?$AA@+12
  034d8	89 85 1e b6 ff
	ff		 mov	 DWORD PTR _sndconfig$[ebp+21026], eax
  034de	66 8b 0d 10 00
	00 00		 mov	 cx, WORD PTR ??_C@_0BD@CAEDPGGK@data?2se?2sas_16?4wav?$AA@+16
  034e5	66 89 8d 22 b6
	ff ff		 mov	 WORD PTR _sndconfig$[ebp+21030], cx
  034ec	8a 15 12 00 00
	00		 mov	 dl, BYTE PTR ??_C@_0BD@CAEDPGGK@data?2se?2sas_16?4wav?$AA@+18
  034f2	88 95 24 b6 ff
	ff		 mov	 BYTE PTR _sndconfig$[ebp+21032], dl
  034f8	68 b5 00 00 00	 push	 181			; 000000b5H
  034fd	6a 00		 push	 0
  034ff	8d 85 25 b6 ff
	ff		 lea	 eax, DWORD PTR _sndconfig$[ebp+21033]
  03505	50		 push	 eax
  03506	e8 00 00 00 00	 call	 _memset
  0350b	83 c4 0c	 add	 esp, 12			; 0000000cH
  0350e	c6 85 da b6 ff
	ff 6e		 mov	 BYTE PTR _sndconfig$[ebp+21214], 110 ; 0000006eH
  03515	c6 85 db b6 ff
	ff 00		 mov	 BYTE PTR _sndconfig$[ebp+21215], 0
  0351c	c6 85 dc b6 ff
	ff 00		 mov	 BYTE PTR _sndconfig$[ebp+21216], 0

; 122  : 	{  217,	"data\\se\\sas_17.wav", 85, 0, 0 /*, "????????"*/ },

  03523	b8 d9 00 00 00	 mov	 eax, 217		; 000000d9H
  03528	66 89 85 de b6
	ff ff		 mov	 WORD PTR _sndconfig$[ebp+21218], ax
  0352f	a1 00 00 00 00	 mov	 eax, DWORD PTR ??_C@_0BD@OLBPCFMP@data?2se?2sas_17?4wav?$AA@
  03534	89 85 e0 b6 ff
	ff		 mov	 DWORD PTR _sndconfig$[ebp+21220], eax
  0353a	8b 0d 04 00 00
	00		 mov	 ecx, DWORD PTR ??_C@_0BD@OLBPCFMP@data?2se?2sas_17?4wav?$AA@+4
  03540	89 8d e4 b6 ff
	ff		 mov	 DWORD PTR _sndconfig$[ebp+21224], ecx
  03546	8b 15 08 00 00
	00		 mov	 edx, DWORD PTR ??_C@_0BD@OLBPCFMP@data?2se?2sas_17?4wav?$AA@+8
  0354c	89 95 e8 b6 ff
	ff		 mov	 DWORD PTR _sndconfig$[ebp+21228], edx
  03552	a1 0c 00 00 00	 mov	 eax, DWORD PTR ??_C@_0BD@OLBPCFMP@data?2se?2sas_17?4wav?$AA@+12
  03557	89 85 ec b6 ff
	ff		 mov	 DWORD PTR _sndconfig$[ebp+21232], eax
  0355d	66 8b 0d 10 00
	00 00		 mov	 cx, WORD PTR ??_C@_0BD@OLBPCFMP@data?2se?2sas_17?4wav?$AA@+16
  03564	66 89 8d f0 b6
	ff ff		 mov	 WORD PTR _sndconfig$[ebp+21236], cx
  0356b	8a 15 12 00 00
	00		 mov	 dl, BYTE PTR ??_C@_0BD@OLBPCFMP@data?2se?2sas_17?4wav?$AA@+18
  03571	88 95 f2 b6 ff
	ff		 mov	 BYTE PTR _sndconfig$[ebp+21238], dl
  03577	68 b5 00 00 00	 push	 181			; 000000b5H
  0357c	6a 00		 push	 0
  0357e	8d 85 f3 b6 ff
	ff		 lea	 eax, DWORD PTR _sndconfig$[ebp+21239]
  03584	50		 push	 eax
  03585	e8 00 00 00 00	 call	 _memset
  0358a	83 c4 0c	 add	 esp, 12			; 0000000cH
  0358d	c6 85 a8 b7 ff
	ff 55		 mov	 BYTE PTR _sndconfig$[ebp+21420], 85 ; 00000055H
  03594	c6 85 a9 b7 ff
	ff 00		 mov	 BYTE PTR _sndconfig$[ebp+21421], 0
  0359b	c6 85 aa b7 ff
	ff 00		 mov	 BYTE PTR _sndconfig$[ebp+21422], 0

; 123  : 	{  218,	"data\\se\\sas_18.wav", 123, 0, 0 /*, ""*/ },

  035a2	b8 da 00 00 00	 mov	 eax, 218		; 000000daH
  035a7	66 89 85 ac b7
	ff ff		 mov	 WORD PTR _sndconfig$[ebp+21424], ax
  035ae	a1 00 00 00 00	 mov	 eax, DWORD PTR ??_C@_0BD@BKEJJHBK@data?2se?2sas_18?4wav?$AA@
  035b3	89 85 ae b7 ff
	ff		 mov	 DWORD PTR _sndconfig$[ebp+21426], eax
  035b9	8b 0d 04 00 00
	00		 mov	 ecx, DWORD PTR ??_C@_0BD@BKEJJHBK@data?2se?2sas_18?4wav?$AA@+4
  035bf	89 8d b2 b7 ff
	ff		 mov	 DWORD PTR _sndconfig$[ebp+21430], ecx
  035c5	8b 15 08 00 00
	00		 mov	 edx, DWORD PTR ??_C@_0BD@BKEJJHBK@data?2se?2sas_18?4wav?$AA@+8
  035cb	89 95 b6 b7 ff
	ff		 mov	 DWORD PTR _sndconfig$[ebp+21434], edx
  035d1	a1 0c 00 00 00	 mov	 eax, DWORD PTR ??_C@_0BD@BKEJJHBK@data?2se?2sas_18?4wav?$AA@+12
  035d6	89 85 ba b7 ff
	ff		 mov	 DWORD PTR _sndconfig$[ebp+21438], eax
  035dc	66 8b 0d 10 00
	00 00		 mov	 cx, WORD PTR ??_C@_0BD@BKEJJHBK@data?2se?2sas_18?4wav?$AA@+16
  035e3	66 89 8d be b7
	ff ff		 mov	 WORD PTR _sndconfig$[ebp+21442], cx
  035ea	8a 15 12 00 00
	00		 mov	 dl, BYTE PTR ??_C@_0BD@BKEJJHBK@data?2se?2sas_18?4wav?$AA@+18
  035f0	88 95 c0 b7 ff
	ff		 mov	 BYTE PTR _sndconfig$[ebp+21444], dl
  035f6	68 b5 00 00 00	 push	 181			; 000000b5H
  035fb	6a 00		 push	 0
  035fd	8d 85 c1 b7 ff
	ff		 lea	 eax, DWORD PTR _sndconfig$[ebp+21445]
  03603	50		 push	 eax
  03604	e8 00 00 00 00	 call	 _memset
  03609	83 c4 0c	 add	 esp, 12			; 0000000cH
  0360c	c6 85 76 b8 ff
	ff 7b		 mov	 BYTE PTR _sndconfig$[ebp+21626], 123 ; 0000007bH
  03613	c6 85 77 b8 ff
	ff 00		 mov	 BYTE PTR _sndconfig$[ebp+21627], 0
  0361a	c6 85 78 b8 ff
	ff 00		 mov	 BYTE PTR _sndconfig$[ebp+21628], 0

; 124  : 	{  219,	"data\\se\\sas_19.wav", 82, 0, 0 /*, "烃Ⅹ?"*/ },

  03621	b8 db 00 00 00	 mov	 eax, 219		; 000000dbH
  03626	66 89 85 7a b8
	ff ff		 mov	 WORD PTR _sndconfig$[ebp+21630], ax
  0362d	a1 00 00 00 00	 mov	 eax, DWORD PTR ??_C@_0BD@NBBFEELP@data?2se?2sas_19?4wav?$AA@
  03632	89 85 7c b8 ff
	ff		 mov	 DWORD PTR _sndconfig$[ebp+21632], eax
  03638	8b 0d 04 00 00
	00		 mov	 ecx, DWORD PTR ??_C@_0BD@NBBFEELP@data?2se?2sas_19?4wav?$AA@+4
  0363e	89 8d 80 b8 ff
	ff		 mov	 DWORD PTR _sndconfig$[ebp+21636], ecx
  03644	8b 15 08 00 00
	00		 mov	 edx, DWORD PTR ??_C@_0BD@NBBFEELP@data?2se?2sas_19?4wav?$AA@+8
  0364a	89 95 84 b8 ff
	ff		 mov	 DWORD PTR _sndconfig$[ebp+21640], edx
  03650	a1 0c 00 00 00	 mov	 eax, DWORD PTR ??_C@_0BD@NBBFEELP@data?2se?2sas_19?4wav?$AA@+12
  03655	89 85 88 b8 ff
	ff		 mov	 DWORD PTR _sndconfig$[ebp+21644], eax
  0365b	66 8b 0d 10 00
	00 00		 mov	 cx, WORD PTR ??_C@_0BD@NBBFEELP@data?2se?2sas_19?4wav?$AA@+16
  03662	66 89 8d 8c b8
	ff ff		 mov	 WORD PTR _sndconfig$[ebp+21648], cx
  03669	8a 15 12 00 00
	00		 mov	 dl, BYTE PTR ??_C@_0BD@NBBFEELP@data?2se?2sas_19?4wav?$AA@+18
  0366f	88 95 8e b8 ff
	ff		 mov	 BYTE PTR _sndconfig$[ebp+21650], dl
  03675	68 b5 00 00 00	 push	 181			; 000000b5H
  0367a	6a 00		 push	 0
  0367c	8d 85 8f b8 ff
	ff		 lea	 eax, DWORD PTR _sndconfig$[ebp+21651]
  03682	50		 push	 eax
  03683	e8 00 00 00 00	 call	 _memset
  03688	83 c4 0c	 add	 esp, 12			; 0000000cH
  0368b	c6 85 44 b9 ff
	ff 52		 mov	 BYTE PTR _sndconfig$[ebp+21832], 82 ; 00000052H
  03692	c6 85 45 b9 ff
	ff 00		 mov	 BYTE PTR _sndconfig$[ebp+21833], 0
  03699	c6 85 46 b9 ff
	ff 00		 mov	 BYTE PTR _sndconfig$[ebp+21834], 0

; 125  : 	{  220,	"data\\se\\sas_20.wav", 60, 0, 0 /*, "???Y?"*/ },

  036a0	b8 dc 00 00 00	 mov	 eax, 220		; 000000dcH
  036a5	66 89 85 48 b9
	ff ff		 mov	 WORD PTR _sndconfig$[ebp+21836], ax
  036ac	a1 00 00 00 00	 mov	 eax, DWORD PTR ??_C@_0BD@MHPCAPOK@data?2se?2sas_20?4wav?$AA@
  036b1	89 85 4a b9 ff
	ff		 mov	 DWORD PTR _sndconfig$[ebp+21838], eax
  036b7	8b 0d 04 00 00
	00		 mov	 ecx, DWORD PTR ??_C@_0BD@MHPCAPOK@data?2se?2sas_20?4wav?$AA@+4
  036bd	89 8d 4e b9 ff
	ff		 mov	 DWORD PTR _sndconfig$[ebp+21842], ecx
  036c3	8b 15 08 00 00
	00		 mov	 edx, DWORD PTR ??_C@_0BD@MHPCAPOK@data?2se?2sas_20?4wav?$AA@+8
  036c9	89 95 52 b9 ff
	ff		 mov	 DWORD PTR _sndconfig$[ebp+21846], edx
  036cf	a1 0c 00 00 00	 mov	 eax, DWORD PTR ??_C@_0BD@MHPCAPOK@data?2se?2sas_20?4wav?$AA@+12
  036d4	89 85 56 b9 ff
	ff		 mov	 DWORD PTR _sndconfig$[ebp+21850], eax
  036da	66 8b 0d 10 00
	00 00		 mov	 cx, WORD PTR ??_C@_0BD@MHPCAPOK@data?2se?2sas_20?4wav?$AA@+16
  036e1	66 89 8d 5a b9
	ff ff		 mov	 WORD PTR _sndconfig$[ebp+21854], cx
  036e8	8a 15 12 00 00
	00		 mov	 dl, BYTE PTR ??_C@_0BD@MHPCAPOK@data?2se?2sas_20?4wav?$AA@+18
  036ee	88 95 5c b9 ff
	ff		 mov	 BYTE PTR _sndconfig$[ebp+21856], dl
  036f4	68 b5 00 00 00	 push	 181			; 000000b5H
  036f9	6a 00		 push	 0
  036fb	8d 85 5d b9 ff
	ff		 lea	 eax, DWORD PTR _sndconfig$[ebp+21857]
  03701	50		 push	 eax
  03702	e8 00 00 00 00	 call	 _memset
  03707	83 c4 0c	 add	 esp, 12			; 0000000cH
  0370a	c6 85 12 ba ff
	ff 3c		 mov	 BYTE PTR _sndconfig$[ebp+22038], 60 ; 0000003cH
  03711	c6 85 13 ba ff
	ff 00		 mov	 BYTE PTR _sndconfig$[ebp+22039], 0
  03718	c6 85 14 ba ff
	ff 00		 mov	 BYTE PTR _sndconfig$[ebp+22040], 0

; 126  : 	{  221,	"data\\se\\sas_21.wav", 123, 0, 0 /*, ""*/ },

  0371f	b8 dd 00 00 00	 mov	 eax, 221		; 000000ddH
  03724	66 89 85 16 ba
	ff ff		 mov	 WORD PTR _sndconfig$[ebp+22042], ax
  0372b	a1 00 00 00 00	 mov	 eax, DWORD PTR ??_C@_0BD@MKONMEP@data?2se?2sas_21?4wav?$AA@
  03730	89 85 18 ba ff
	ff		 mov	 DWORD PTR _sndconfig$[ebp+22044], eax
  03736	8b 0d 04 00 00
	00		 mov	 ecx, DWORD PTR ??_C@_0BD@MKONMEP@data?2se?2sas_21?4wav?$AA@+4
  0373c	89 8d 1c ba ff
	ff		 mov	 DWORD PTR _sndconfig$[ebp+22048], ecx
  03742	8b 15 08 00 00
	00		 mov	 edx, DWORD PTR ??_C@_0BD@MKONMEP@data?2se?2sas_21?4wav?$AA@+8
  03748	89 95 20 ba ff
	ff		 mov	 DWORD PTR _sndconfig$[ebp+22052], edx
  0374e	a1 0c 00 00 00	 mov	 eax, DWORD PTR ??_C@_0BD@MKONMEP@data?2se?2sas_21?4wav?$AA@+12
  03753	89 85 24 ba ff
	ff		 mov	 DWORD PTR _sndconfig$[ebp+22056], eax
  03759	66 8b 0d 10 00
	00 00		 mov	 cx, WORD PTR ??_C@_0BD@MKONMEP@data?2se?2sas_21?4wav?$AA@+16
  03760	66 89 8d 28 ba
	ff ff		 mov	 WORD PTR _sndconfig$[ebp+22060], cx
  03767	8a 15 12 00 00
	00		 mov	 dl, BYTE PTR ??_C@_0BD@MKONMEP@data?2se?2sas_21?4wav?$AA@+18
  0376d	88 95 2a ba ff
	ff		 mov	 BYTE PTR _sndconfig$[ebp+22062], dl
  03773	68 b5 00 00 00	 push	 181			; 000000b5H
  03778	6a 00		 push	 0
  0377a	8d 85 2b ba ff
	ff		 lea	 eax, DWORD PTR _sndconfig$[ebp+22063]
  03780	50		 push	 eax
  03781	e8 00 00 00 00	 call	 _memset
  03786	83 c4 0c	 add	 esp, 12			; 0000000cH
  03789	c6 85 e0 ba ff
	ff 7b		 mov	 BYTE PTR _sndconfig$[ebp+22244], 123 ; 0000007bH
  03790	c6 85 e1 ba ff
	ff 00		 mov	 BYTE PTR _sndconfig$[ebp+22245], 0
  03797	c6 85 e2 ba ff
	ff 00		 mov	 BYTE PTR _sndconfig$[ebp+22246], 0

; 127  : 
; 128  : 	// ????
; 129  : 	{  250,	"data\\se\\sad_01.wav", 85, 0, 0 /*, "???????"*/ },

  0379e	b8 fa 00 00 00	 mov	 eax, 250		; 000000faH
  037a3	66 89 85 e4 ba
	ff ff		 mov	 WORD PTR _sndconfig$[ebp+22248], ax
  037aa	a1 00 00 00 00	 mov	 eax, DWORD PTR ??_C@_0BD@FDJAOCNO@data?2se?2sad_01?4wav?$AA@
  037af	89 85 e6 ba ff
	ff		 mov	 DWORD PTR _sndconfig$[ebp+22250], eax
  037b5	8b 0d 04 00 00
	00		 mov	 ecx, DWORD PTR ??_C@_0BD@FDJAOCNO@data?2se?2sad_01?4wav?$AA@+4
  037bb	89 8d ea ba ff
	ff		 mov	 DWORD PTR _sndconfig$[ebp+22254], ecx
  037c1	8b 15 08 00 00
	00		 mov	 edx, DWORD PTR ??_C@_0BD@FDJAOCNO@data?2se?2sad_01?4wav?$AA@+8
  037c7	89 95 ee ba ff
	ff		 mov	 DWORD PTR _sndconfig$[ebp+22258], edx
  037cd	a1 0c 00 00 00	 mov	 eax, DWORD PTR ??_C@_0BD@FDJAOCNO@data?2se?2sad_01?4wav?$AA@+12
  037d2	89 85 f2 ba ff
	ff		 mov	 DWORD PTR _sndconfig$[ebp+22262], eax
  037d8	66 8b 0d 10 00
	00 00		 mov	 cx, WORD PTR ??_C@_0BD@FDJAOCNO@data?2se?2sad_01?4wav?$AA@+16
  037df	66 89 8d f6 ba
	ff ff		 mov	 WORD PTR _sndconfig$[ebp+22266], cx
  037e6	8a 15 12 00 00
	00		 mov	 dl, BYTE PTR ??_C@_0BD@FDJAOCNO@data?2se?2sad_01?4wav?$AA@+18
  037ec	88 95 f8 ba ff
	ff		 mov	 BYTE PTR _sndconfig$[ebp+22268], dl
  037f2	68 b5 00 00 00	 push	 181			; 000000b5H
  037f7	6a 00		 push	 0
  037f9	8d 85 f9 ba ff
	ff		 lea	 eax, DWORD PTR _sndconfig$[ebp+22269]
  037ff	50		 push	 eax
  03800	e8 00 00 00 00	 call	 _memset
  03805	83 c4 0c	 add	 esp, 12			; 0000000cH
  03808	c6 85 ae bb ff
	ff 55		 mov	 BYTE PTR _sndconfig$[ebp+22450], 85 ; 00000055H
  0380f	c6 85 af bb ff
	ff 00		 mov	 BYTE PTR _sndconfig$[ebp+22451], 0
  03816	c6 85 b0 bb ff
	ff 00		 mov	 BYTE PTR _sndconfig$[ebp+22452], 0

; 130  : 	{  251,	"data\\se\\sad_02.wav", 80, 0, 0 /*, "?????????S?"*/ },

  0381d	b8 fb 00 00 00	 mov	 eax, 251		; 000000fbH
  03822	66 89 85 b2 bb
	ff ff		 mov	 WORD PTR _sndconfig$[ebp+22454], ax
  03829	a1 00 00 00 00	 mov	 eax, DWORD PTR ??_C@_0BD@NFAEJAHA@data?2se?2sad_02?4wav?$AA@
  0382e	89 85 b4 bb ff
	ff		 mov	 DWORD PTR _sndconfig$[ebp+22456], eax
  03834	8b 0d 04 00 00
	00		 mov	 ecx, DWORD PTR ??_C@_0BD@NFAEJAHA@data?2se?2sad_02?4wav?$AA@+4
  0383a	89 8d b8 bb ff
	ff		 mov	 DWORD PTR _sndconfig$[ebp+22460], ecx
  03840	8b 15 08 00 00
	00		 mov	 edx, DWORD PTR ??_C@_0BD@NFAEJAHA@data?2se?2sad_02?4wav?$AA@+8
  03846	89 95 bc bb ff
	ff		 mov	 DWORD PTR _sndconfig$[ebp+22464], edx
  0384c	a1 0c 00 00 00	 mov	 eax, DWORD PTR ??_C@_0BD@NFAEJAHA@data?2se?2sad_02?4wav?$AA@+12
  03851	89 85 c0 bb ff
	ff		 mov	 DWORD PTR _sndconfig$[ebp+22468], eax
  03857	66 8b 0d 10 00
	00 00		 mov	 cx, WORD PTR ??_C@_0BD@NFAEJAHA@data?2se?2sad_02?4wav?$AA@+16
  0385e	66 89 8d c4 bb
	ff ff		 mov	 WORD PTR _sndconfig$[ebp+22472], cx
  03865	8a 15 12 00 00
	00		 mov	 dl, BYTE PTR ??_C@_0BD@NFAEJAHA@data?2se?2sad_02?4wav?$AA@+18
  0386b	88 95 c6 bb ff
	ff		 mov	 BYTE PTR _sndconfig$[ebp+22474], dl
  03871	68 b5 00 00 00	 push	 181			; 000000b5H
  03876	6a 00		 push	 0
  03878	8d 85 c7 bb ff
	ff		 lea	 eax, DWORD PTR _sndconfig$[ebp+22475]
  0387e	50		 push	 eax
  0387f	e8 00 00 00 00	 call	 _memset
  03884	83 c4 0c	 add	 esp, 12			; 0000000cH
  03887	c6 85 7c bc ff
	ff 50		 mov	 BYTE PTR _sndconfig$[ebp+22656], 80 ; 00000050H
  0388e	c6 85 7d bc ff
	ff 00		 mov	 BYTE PTR _sndconfig$[ebp+22657], 0
  03895	c6 85 7e bc ff
	ff 00		 mov	 BYTE PTR _sndconfig$[ebp+22658], 0

; 131  : //x	{  252,	"data\\se\\sad_03.wav", 95, -3, 0 /*, "????????"*/ },
; 132  : 	{  252,	"data\\se\\sad_03.wav", 95, 0, 0 /*, "????????"*/ },

  0389c	b8 fc 00 00 00	 mov	 eax, 252		; 000000fcH
  038a1	66 89 85 80 bc
	ff ff		 mov	 WORD PTR _sndconfig$[ebp+22660], ax
  038a8	a1 00 00 00 00	 mov	 eax, DWORD PTR ??_C@_0BD@BOFIEDNF@data?2se?2sad_03?4wav?$AA@
  038ad	89 85 82 bc ff
	ff		 mov	 DWORD PTR _sndconfig$[ebp+22662], eax
  038b3	8b 0d 04 00 00
	00		 mov	 ecx, DWORD PTR ??_C@_0BD@BOFIEDNF@data?2se?2sad_03?4wav?$AA@+4
  038b9	89 8d 86 bc ff
	ff		 mov	 DWORD PTR _sndconfig$[ebp+22666], ecx
  038bf	8b 15 08 00 00
	00		 mov	 edx, DWORD PTR ??_C@_0BD@BOFIEDNF@data?2se?2sad_03?4wav?$AA@+8
  038c5	89 95 8a bc ff
	ff		 mov	 DWORD PTR _sndconfig$[ebp+22670], edx
  038cb	a1 0c 00 00 00	 mov	 eax, DWORD PTR ??_C@_0BD@BOFIEDNF@data?2se?2sad_03?4wav?$AA@+12
  038d0	89 85 8e bc ff
	ff		 mov	 DWORD PTR _sndconfig$[ebp+22674], eax
  038d6	66 8b 0d 10 00
	00 00		 mov	 cx, WORD PTR ??_C@_0BD@BOFIEDNF@data?2se?2sad_03?4wav?$AA@+16
  038dd	66 89 8d 92 bc
	ff ff		 mov	 WORD PTR _sndconfig$[ebp+22678], cx
  038e4	8a 15 12 00 00
	00		 mov	 dl, BYTE PTR ??_C@_0BD@BOFIEDNF@data?2se?2sad_03?4wav?$AA@+18
  038ea	88 95 94 bc ff
	ff		 mov	 BYTE PTR _sndconfig$[ebp+22680], dl
  038f0	68 b5 00 00 00	 push	 181			; 000000b5H
  038f5	6a 00		 push	 0
  038f7	8d 85 95 bc ff
	ff		 lea	 eax, DWORD PTR _sndconfig$[ebp+22681]
  038fd	50		 push	 eax
  038fe	e8 00 00 00 00	 call	 _memset
  03903	83 c4 0c	 add	 esp, 12			; 0000000cH
  03906	c6 85 4a bd ff
	ff 5f		 mov	 BYTE PTR _sndconfig$[ebp+22862], 95 ; 0000005fH
  0390d	c6 85 4b bd ff
	ff 00		 mov	 BYTE PTR _sndconfig$[ebp+22863], 0
  03914	c6 85 4c bd ff
	ff 00		 mov	 BYTE PTR _sndconfig$[ebp+22864], 0

; 133  : 	{  253,	"data\\se\\sad_04.wav", 85, 0, 0 /*, "????????"*/ },

  0391b	b8 fd 00 00 00	 mov	 eax, 253		; 000000fdH
  03920	66 89 85 4e bd
	ff ff		 mov	 WORD PTR _sndconfig$[ebp+22866], ax
  03927	a1 00 00 00 00	 mov	 eax, DWORD PTR ??_C@_0BD@DFNHDGN@data?2se?2sad_04?4wav?$AA@
  0392c	89 85 50 bd ff
	ff		 mov	 DWORD PTR _sndconfig$[ebp+22868], eax
  03932	8b 0d 04 00 00
	00		 mov	 ecx, DWORD PTR ??_C@_0BD@DFNHDGN@data?2se?2sad_04?4wav?$AA@+4
  03938	89 8d 54 bd ff
	ff		 mov	 DWORD PTR _sndconfig$[ebp+22872], ecx
  0393e	8b 15 08 00 00
	00		 mov	 edx, DWORD PTR ??_C@_0BD@DFNHDGN@data?2se?2sad_04?4wav?$AA@+8
  03944	89 95 58 bd ff
	ff		 mov	 DWORD PTR _sndconfig$[ebp+22876], edx
  0394a	a1 0c 00 00 00	 mov	 eax, DWORD PTR ??_C@_0BD@DFNHDGN@data?2se?2sad_04?4wav?$AA@+12
  0394f	89 85 5c bd ff
	ff		 mov	 DWORD PTR _sndconfig$[ebp+22880], eax
  03955	66 8b 0d 10 00
	00 00		 mov	 cx, WORD PTR ??_C@_0BD@DFNHDGN@data?2se?2sad_04?4wav?$AA@+16
  0395c	66 89 8d 60 bd
	ff ff		 mov	 WORD PTR _sndconfig$[ebp+22884], cx
  03963	8a 15 12 00 00
	00		 mov	 dl, BYTE PTR ??_C@_0BD@DFNHDGN@data?2se?2sad_04?4wav?$AA@+18
  03969	88 95 62 bd ff
	ff		 mov	 BYTE PTR _sndconfig$[ebp+22886], dl
  0396f	68 b5 00 00 00	 push	 181			; 000000b5H
  03974	6a 00		 push	 0
  03976	8d 85 63 bd ff
	ff		 lea	 eax, DWORD PTR _sndconfig$[ebp+22887]
  0397c	50		 push	 eax
  0397d	e8 00 00 00 00	 call	 _memset
  03982	83 c4 0c	 add	 esp, 12			; 0000000cH
  03985	c6 85 18 be ff
	ff 55		 mov	 BYTE PTR _sndconfig$[ebp+23068], 85 ; 00000055H
  0398c	c6 85 19 be ff
	ff 00		 mov	 BYTE PTR _sndconfig$[ebp+23069], 0
  03993	c6 85 1a be ff
	ff 00		 mov	 BYTE PTR _sndconfig$[ebp+23070], 0

; 134  : 	{  254,	"data\\se\\sad_05.wav", 90, 0, 0 /*, "??????Y?"*/ },

  0399a	b8 fe 00 00 00	 mov	 eax, 254		; 000000feH
  0399f	66 89 85 1c be
	ff ff		 mov	 WORD PTR _sndconfig$[ebp+23072], ax
  039a6	a1 00 00 00 00	 mov	 eax, DWORD PTR ??_C@_0BD@MIABKAMI@data?2se?2sad_05?4wav?$AA@
  039ab	89 85 1e be ff
	ff		 mov	 DWORD PTR _sndconfig$[ebp+23074], eax
  039b1	8b 0d 04 00 00
	00		 mov	 ecx, DWORD PTR ??_C@_0BD@MIABKAMI@data?2se?2sad_05?4wav?$AA@+4
  039b7	89 8d 22 be ff
	ff		 mov	 DWORD PTR _sndconfig$[ebp+23078], ecx
  039bd	8b 15 08 00 00
	00		 mov	 edx, DWORD PTR ??_C@_0BD@MIABKAMI@data?2se?2sad_05?4wav?$AA@+8
  039c3	89 95 26 be ff
	ff		 mov	 DWORD PTR _sndconfig$[ebp+23082], edx
  039c9	a1 0c 00 00 00	 mov	 eax, DWORD PTR ??_C@_0BD@MIABKAMI@data?2se?2sad_05?4wav?$AA@+12
  039ce	89 85 2a be ff
	ff		 mov	 DWORD PTR _sndconfig$[ebp+23086], eax
  039d4	66 8b 0d 10 00
	00 00		 mov	 cx, WORD PTR ??_C@_0BD@MIABKAMI@data?2se?2sad_05?4wav?$AA@+16
  039db	66 89 8d 2e be
	ff ff		 mov	 WORD PTR _sndconfig$[ebp+23090], cx
  039e2	8a 15 12 00 00
	00		 mov	 dl, BYTE PTR ??_C@_0BD@MIABKAMI@data?2se?2sad_05?4wav?$AA@+18
  039e8	88 95 30 be ff
	ff		 mov	 BYTE PTR _sndconfig$[ebp+23092], dl
  039ee	68 b5 00 00 00	 push	 181			; 000000b5H
  039f3	6a 00		 push	 0
  039f5	8d 85 31 be ff
	ff		 lea	 eax, DWORD PTR _sndconfig$[ebp+23093]
  039fb	50		 push	 eax
  039fc	e8 00 00 00 00	 call	 _memset
  03a01	83 c4 0c	 add	 esp, 12			; 0000000cH
  03a04	c6 85 e6 be ff
	ff 5a		 mov	 BYTE PTR _sndconfig$[ebp+23274], 90 ; 0000005aH
  03a0b	c6 85 e7 be ff
	ff 00		 mov	 BYTE PTR _sndconfig$[ebp+23275], 0
  03a12	c6 85 e8 be ff
	ff 00		 mov	 BYTE PTR _sndconfig$[ebp+23276], 0

; 135  : 
; 136  : #ifdef __ATTACK_MAGIC
; 137  : 	{  300,"data\\se\\saam_01.wav",120, 0, 0 /*, "前置魔法  魔法阵"*/ },

  03a19	b8 2c 01 00 00	 mov	 eax, 300		; 0000012cH
  03a1e	66 89 85 ea be
	ff ff		 mov	 WORD PTR _sndconfig$[ebp+23278], ax
  03a25	a1 00 00 00 00	 mov	 eax, DWORD PTR ??_C@_0BE@PKJHILLA@data?2se?2saam_01?4wav?$AA@
  03a2a	89 85 ec be ff
	ff		 mov	 DWORD PTR _sndconfig$[ebp+23280], eax
  03a30	8b 0d 04 00 00
	00		 mov	 ecx, DWORD PTR ??_C@_0BE@PKJHILLA@data?2se?2saam_01?4wav?$AA@+4
  03a36	89 8d f0 be ff
	ff		 mov	 DWORD PTR _sndconfig$[ebp+23284], ecx
  03a3c	8b 15 08 00 00
	00		 mov	 edx, DWORD PTR ??_C@_0BE@PKJHILLA@data?2se?2saam_01?4wav?$AA@+8
  03a42	89 95 f4 be ff
	ff		 mov	 DWORD PTR _sndconfig$[ebp+23288], edx
  03a48	a1 0c 00 00 00	 mov	 eax, DWORD PTR ??_C@_0BE@PKJHILLA@data?2se?2saam_01?4wav?$AA@+12
  03a4d	89 85 f8 be ff
	ff		 mov	 DWORD PTR _sndconfig$[ebp+23292], eax
  03a53	8b 0d 10 00 00
	00		 mov	 ecx, DWORD PTR ??_C@_0BE@PKJHILLA@data?2se?2saam_01?4wav?$AA@+16
  03a59	89 8d fc be ff
	ff		 mov	 DWORD PTR _sndconfig$[ebp+23296], ecx
  03a5f	68 b4 00 00 00	 push	 180			; 000000b4H
  03a64	6a 00		 push	 0
  03a66	8d 85 00 bf ff
	ff		 lea	 eax, DWORD PTR _sndconfig$[ebp+23300]
  03a6c	50		 push	 eax
  03a6d	e8 00 00 00 00	 call	 _memset
  03a72	83 c4 0c	 add	 esp, 12			; 0000000cH
  03a75	c6 85 b4 bf ff
	ff 78		 mov	 BYTE PTR _sndconfig$[ebp+23480], 120 ; 00000078H
  03a7c	c6 85 b5 bf ff
	ff 00		 mov	 BYTE PTR _sndconfig$[ebp+23481], 0
  03a83	c6 85 b6 bf ff
	ff 00		 mov	 BYTE PTR _sndconfig$[ebp+23482], 0

; 138  : 	{  301,"data\\se\\saam_02.wav",120, 0, 0 /*, "后置魔法  受伤图"*/ },

  03a8a	b8 2d 01 00 00	 mov	 eax, 301		; 0000012dH
  03a8f	66 89 85 b8 bf
	ff ff		 mov	 WORD PTR _sndconfig$[ebp+23484], ax
  03a96	a1 00 00 00 00	 mov	 eax, DWORD PTR ??_C@_0BE@HMADPJBO@data?2se?2saam_02?4wav?$AA@
  03a9b	89 85 ba bf ff
	ff		 mov	 DWORD PTR _sndconfig$[ebp+23486], eax
  03aa1	8b 0d 04 00 00
	00		 mov	 ecx, DWORD PTR ??_C@_0BE@HMADPJBO@data?2se?2saam_02?4wav?$AA@+4
  03aa7	89 8d be bf ff
	ff		 mov	 DWORD PTR _sndconfig$[ebp+23490], ecx
  03aad	8b 15 08 00 00
	00		 mov	 edx, DWORD PTR ??_C@_0BE@HMADPJBO@data?2se?2saam_02?4wav?$AA@+8
  03ab3	89 95 c2 bf ff
	ff		 mov	 DWORD PTR _sndconfig$[ebp+23494], edx
  03ab9	a1 0c 00 00 00	 mov	 eax, DWORD PTR ??_C@_0BE@HMADPJBO@data?2se?2saam_02?4wav?$AA@+12
  03abe	89 85 c6 bf ff
	ff		 mov	 DWORD PTR _sndconfig$[ebp+23498], eax
  03ac4	8b 0d 10 00 00
	00		 mov	 ecx, DWORD PTR ??_C@_0BE@HMADPJBO@data?2se?2saam_02?4wav?$AA@+16
  03aca	89 8d ca bf ff
	ff		 mov	 DWORD PTR _sndconfig$[ebp+23502], ecx
  03ad0	68 b4 00 00 00	 push	 180			; 000000b4H
  03ad5	6a 00		 push	 0
  03ad7	8d 85 ce bf ff
	ff		 lea	 eax, DWORD PTR _sndconfig$[ebp+23506]
  03add	50		 push	 eax
  03ade	e8 00 00 00 00	 call	 _memset
  03ae3	83 c4 0c	 add	 esp, 12			; 0000000cH
  03ae6	c6 85 82 c0 ff
	ff 78		 mov	 BYTE PTR _sndconfig$[ebp+23686], 120 ; 00000078H
  03aed	c6 85 83 c0 ff
	ff 00		 mov	 BYTE PTR _sndconfig$[ebp+23687], 0
  03af4	c6 85 84 c0 ff
	ff 00		 mov	 BYTE PTR _sndconfig$[ebp+23688], 0

; 139  : 	{  302,"data\\se\\saam_03.wav",120, 0, 0 /*, "地魔法  魔法Lv1"*/ },

  03afb	b8 2e 01 00 00	 mov	 eax, 302		; 0000012eH
  03b00	66 89 85 86 c0
	ff ff		 mov	 WORD PTR _sndconfig$[ebp+23690], ax
  03b07	a1 00 00 00 00	 mov	 eax, DWORD PTR ??_C@_0BE@LHFPCKLL@data?2se?2saam_03?4wav?$AA@
  03b0c	89 85 88 c0 ff
	ff		 mov	 DWORD PTR _sndconfig$[ebp+23692], eax
  03b12	8b 0d 04 00 00
	00		 mov	 ecx, DWORD PTR ??_C@_0BE@LHFPCKLL@data?2se?2saam_03?4wav?$AA@+4
  03b18	89 8d 8c c0 ff
	ff		 mov	 DWORD PTR _sndconfig$[ebp+23696], ecx
  03b1e	8b 15 08 00 00
	00		 mov	 edx, DWORD PTR ??_C@_0BE@LHFPCKLL@data?2se?2saam_03?4wav?$AA@+8
  03b24	89 95 90 c0 ff
	ff		 mov	 DWORD PTR _sndconfig$[ebp+23700], edx
  03b2a	a1 0c 00 00 00	 mov	 eax, DWORD PTR ??_C@_0BE@LHFPCKLL@data?2se?2saam_03?4wav?$AA@+12
  03b2f	89 85 94 c0 ff
	ff		 mov	 DWORD PTR _sndconfig$[ebp+23704], eax
  03b35	8b 0d 10 00 00
	00		 mov	 ecx, DWORD PTR ??_C@_0BE@LHFPCKLL@data?2se?2saam_03?4wav?$AA@+16
  03b3b	89 8d 98 c0 ff
	ff		 mov	 DWORD PTR _sndconfig$[ebp+23708], ecx
  03b41	68 b4 00 00 00	 push	 180			; 000000b4H
  03b46	6a 00		 push	 0
  03b48	8d 85 9c c0 ff
	ff		 lea	 eax, DWORD PTR _sndconfig$[ebp+23712]
  03b4e	50		 push	 eax
  03b4f	e8 00 00 00 00	 call	 _memset
  03b54	83 c4 0c	 add	 esp, 12			; 0000000cH
  03b57	c6 85 50 c1 ff
	ff 78		 mov	 BYTE PTR _sndconfig$[ebp+23892], 120 ; 00000078H
  03b5e	c6 85 51 c1 ff
	ff 00		 mov	 BYTE PTR _sndconfig$[ebp+23893], 0
  03b65	c6 85 52 c1 ff
	ff 00		 mov	 BYTE PTR _sndconfig$[ebp+23894], 0

; 140  : 	{  303,"data\\se\\saam_04.wav",120, 0, 0 /*, "地魔法  魔法Lv2"*/ },

  03b6c	b8 2f 01 00 00	 mov	 eax, 303		; 0000012fH
  03b71	66 89 85 54 c1
	ff ff		 mov	 WORD PTR _sndconfig$[ebp+23896], ax
  03b78	a1 00 00 00 00	 mov	 eax, DWORD PTR ??_C@_0BE@KKFKBKAD@data?2se?2saam_04?4wav?$AA@
  03b7d	89 85 56 c1 ff
	ff		 mov	 DWORD PTR _sndconfig$[ebp+23898], eax
  03b83	8b 0d 04 00 00
	00		 mov	 ecx, DWORD PTR ??_C@_0BE@KKFKBKAD@data?2se?2saam_04?4wav?$AA@+4
  03b89	89 8d 5a c1 ff
	ff		 mov	 DWORD PTR _sndconfig$[ebp+23902], ecx
  03b8f	8b 15 08 00 00
	00		 mov	 edx, DWORD PTR ??_C@_0BE@KKFKBKAD@data?2se?2saam_04?4wav?$AA@+8
  03b95	89 95 5e c1 ff
	ff		 mov	 DWORD PTR _sndconfig$[ebp+23906], edx
  03b9b	a1 0c 00 00 00	 mov	 eax, DWORD PTR ??_C@_0BE@KKFKBKAD@data?2se?2saam_04?4wav?$AA@+12
  03ba0	89 85 62 c1 ff
	ff		 mov	 DWORD PTR _sndconfig$[ebp+23910], eax
  03ba6	8b 0d 10 00 00
	00		 mov	 ecx, DWORD PTR ??_C@_0BE@KKFKBKAD@data?2se?2saam_04?4wav?$AA@+16
  03bac	89 8d 66 c1 ff
	ff		 mov	 DWORD PTR _sndconfig$[ebp+23914], ecx
  03bb2	68 b4 00 00 00	 push	 180			; 000000b4H
  03bb7	6a 00		 push	 0
  03bb9	8d 85 6a c1 ff
	ff		 lea	 eax, DWORD PTR _sndconfig$[ebp+23918]
  03bbf	50		 push	 eax
  03bc0	e8 00 00 00 00	 call	 _memset
  03bc5	83 c4 0c	 add	 esp, 12			; 0000000cH
  03bc8	c6 85 1e c2 ff
	ff 78		 mov	 BYTE PTR _sndconfig$[ebp+24098], 120 ; 00000078H
  03bcf	c6 85 1f c2 ff
	ff 00		 mov	 BYTE PTR _sndconfig$[ebp+24099], 0
  03bd6	c6 85 20 c2 ff
	ff 00		 mov	 BYTE PTR _sndconfig$[ebp+24100], 0

; 141  : 	{  304,"data\\se\\saam_05.wav",120, 0, 0 /*, "地魔法  魔法Lv3-1"*/ },

  03bdd	b8 30 01 00 00	 mov	 eax, 304		; 00000130H
  03be2	66 89 85 22 c2
	ff ff		 mov	 WORD PTR _sndconfig$[ebp+24102], ax
  03be9	a1 00 00 00 00	 mov	 eax, DWORD PTR ??_C@_0BE@GBAGMJKG@data?2se?2saam_05?4wav?$AA@
  03bee	89 85 24 c2 ff
	ff		 mov	 DWORD PTR _sndconfig$[ebp+24104], eax
  03bf4	8b 0d 04 00 00
	00		 mov	 ecx, DWORD PTR ??_C@_0BE@GBAGMJKG@data?2se?2saam_05?4wav?$AA@+4
  03bfa	89 8d 28 c2 ff
	ff		 mov	 DWORD PTR _sndconfig$[ebp+24108], ecx
  03c00	8b 15 08 00 00
	00		 mov	 edx, DWORD PTR ??_C@_0BE@GBAGMJKG@data?2se?2saam_05?4wav?$AA@+8
  03c06	89 95 2c c2 ff
	ff		 mov	 DWORD PTR _sndconfig$[ebp+24112], edx
  03c0c	a1 0c 00 00 00	 mov	 eax, DWORD PTR ??_C@_0BE@GBAGMJKG@data?2se?2saam_05?4wav?$AA@+12
  03c11	89 85 30 c2 ff
	ff		 mov	 DWORD PTR _sndconfig$[ebp+24116], eax
  03c17	8b 0d 10 00 00
	00		 mov	 ecx, DWORD PTR ??_C@_0BE@GBAGMJKG@data?2se?2saam_05?4wav?$AA@+16
  03c1d	89 8d 34 c2 ff
	ff		 mov	 DWORD PTR _sndconfig$[ebp+24120], ecx
  03c23	68 b4 00 00 00	 push	 180			; 000000b4H
  03c28	6a 00		 push	 0
  03c2a	8d 85 38 c2 ff
	ff		 lea	 eax, DWORD PTR _sndconfig$[ebp+24124]
  03c30	50		 push	 eax
  03c31	e8 00 00 00 00	 call	 _memset
  03c36	83 c4 0c	 add	 esp, 12			; 0000000cH
  03c39	c6 85 ec c2 ff
	ff 78		 mov	 BYTE PTR _sndconfig$[ebp+24304], 120 ; 00000078H
  03c40	c6 85 ed c2 ff
	ff 00		 mov	 BYTE PTR _sndconfig$[ebp+24305], 0
  03c47	c6 85 ee c2 ff
	ff 00		 mov	 BYTE PTR _sndconfig$[ebp+24306], 0

; 142  : 	{  305,"data\\se\\saam_06.wav",120, 0, 0 /*, "地魔法  魔法Lv3-2*/ },

  03c4e	b8 31 01 00 00	 mov	 eax, 305		; 00000131H
  03c53	66 89 85 f0 c2
	ff ff		 mov	 WORD PTR _sndconfig$[ebp+24308], ax
  03c5a	a1 00 00 00 00	 mov	 eax, DWORD PTR ??_C@_0BE@OHJCLLAI@data?2se?2saam_06?4wav?$AA@
  03c5f	89 85 f2 c2 ff
	ff		 mov	 DWORD PTR _sndconfig$[ebp+24310], eax
  03c65	8b 0d 04 00 00
	00		 mov	 ecx, DWORD PTR ??_C@_0BE@OHJCLLAI@data?2se?2saam_06?4wav?$AA@+4
  03c6b	89 8d f6 c2 ff
	ff		 mov	 DWORD PTR _sndconfig$[ebp+24314], ecx
  03c71	8b 15 08 00 00
	00		 mov	 edx, DWORD PTR ??_C@_0BE@OHJCLLAI@data?2se?2saam_06?4wav?$AA@+8
  03c77	89 95 fa c2 ff
	ff		 mov	 DWORD PTR _sndconfig$[ebp+24318], edx
  03c7d	a1 0c 00 00 00	 mov	 eax, DWORD PTR ??_C@_0BE@OHJCLLAI@data?2se?2saam_06?4wav?$AA@+12
  03c82	89 85 fe c2 ff
	ff		 mov	 DWORD PTR _sndconfig$[ebp+24322], eax
  03c88	8b 0d 10 00 00
	00		 mov	 ecx, DWORD PTR ??_C@_0BE@OHJCLLAI@data?2se?2saam_06?4wav?$AA@+16
  03c8e	89 8d 02 c3 ff
	ff		 mov	 DWORD PTR _sndconfig$[ebp+24326], ecx
  03c94	68 b4 00 00 00	 push	 180			; 000000b4H
  03c99	6a 00		 push	 0
  03c9b	8d 85 06 c3 ff
	ff		 lea	 eax, DWORD PTR _sndconfig$[ebp+24330]
  03ca1	50		 push	 eax
  03ca2	e8 00 00 00 00	 call	 _memset
  03ca7	83 c4 0c	 add	 esp, 12			; 0000000cH
  03caa	c6 85 ba c3 ff
	ff 78		 mov	 BYTE PTR _sndconfig$[ebp+24510], 120 ; 00000078H
  03cb1	c6 85 bb c3 ff
	ff 00		 mov	 BYTE PTR _sndconfig$[ebp+24511], 0
  03cb8	c6 85 bc c3 ff
	ff 00		 mov	 BYTE PTR _sndconfig$[ebp+24512], 0

; 143  : 	{  306,"data\\se\\saam_07.wav",120, 0, 0 /*, "地魔法  魔法Lv3-3*/ },

  03cbf	b8 32 01 00 00	 mov	 eax, 306		; 00000132H
  03cc4	66 89 85 be c3
	ff ff		 mov	 WORD PTR _sndconfig$[ebp+24514], ax
  03ccb	a1 00 00 00 00	 mov	 eax, DWORD PTR ??_C@_0BE@CMMOGIKN@data?2se?2saam_07?4wav?$AA@
  03cd0	89 85 c0 c3 ff
	ff		 mov	 DWORD PTR _sndconfig$[ebp+24516], eax
  03cd6	8b 0d 04 00 00
	00		 mov	 ecx, DWORD PTR ??_C@_0BE@CMMOGIKN@data?2se?2saam_07?4wav?$AA@+4
  03cdc	89 8d c4 c3 ff
	ff		 mov	 DWORD PTR _sndconfig$[ebp+24520], ecx
  03ce2	8b 15 08 00 00
	00		 mov	 edx, DWORD PTR ??_C@_0BE@CMMOGIKN@data?2se?2saam_07?4wav?$AA@+8
  03ce8	89 95 c8 c3 ff
	ff		 mov	 DWORD PTR _sndconfig$[ebp+24524], edx
  03cee	a1 0c 00 00 00	 mov	 eax, DWORD PTR ??_C@_0BE@CMMOGIKN@data?2se?2saam_07?4wav?$AA@+12
  03cf3	89 85 cc c3 ff
	ff		 mov	 DWORD PTR _sndconfig$[ebp+24528], eax
  03cf9	8b 0d 10 00 00
	00		 mov	 ecx, DWORD PTR ??_C@_0BE@CMMOGIKN@data?2se?2saam_07?4wav?$AA@+16
  03cff	89 8d d0 c3 ff
	ff		 mov	 DWORD PTR _sndconfig$[ebp+24532], ecx
  03d05	68 b4 00 00 00	 push	 180			; 000000b4H
  03d0a	6a 00		 push	 0
  03d0c	8d 85 d4 c3 ff
	ff		 lea	 eax, DWORD PTR _sndconfig$[ebp+24536]
  03d12	50		 push	 eax
  03d13	e8 00 00 00 00	 call	 _memset
  03d18	83 c4 0c	 add	 esp, 12			; 0000000cH
  03d1b	c6 85 88 c4 ff
	ff 78		 mov	 BYTE PTR _sndconfig$[ebp+24716], 120 ; 00000078H
  03d22	c6 85 89 c4 ff
	ff 00		 mov	 BYTE PTR _sndconfig$[ebp+24717], 0
  03d29	c6 85 8a c4 ff
	ff 00		 mov	 BYTE PTR _sndconfig$[ebp+24718], 0

; 144  : 	{  307,"data\\se\\saam_08.wav",120, 0, 0 /*, "地魔法  魔法Lv4*/ },

  03d30	b8 33 01 00 00	 mov	 eax, 307		; 00000133H
  03d35	66 89 85 8c c4
	ff ff		 mov	 WORD PTR _sndconfig$[ebp+24720], ax
  03d3c	a1 00 00 00 00	 mov	 eax, DWORD PTR ??_C@_0BE@NNJINKHI@data?2se?2saam_08?4wav?$AA@
  03d41	89 85 8e c4 ff
	ff		 mov	 DWORD PTR _sndconfig$[ebp+24722], eax
  03d47	8b 0d 04 00 00
	00		 mov	 ecx, DWORD PTR ??_C@_0BE@NNJINKHI@data?2se?2saam_08?4wav?$AA@+4
  03d4d	89 8d 92 c4 ff
	ff		 mov	 DWORD PTR _sndconfig$[ebp+24726], ecx
  03d53	8b 15 08 00 00
	00		 mov	 edx, DWORD PTR ??_C@_0BE@NNJINKHI@data?2se?2saam_08?4wav?$AA@+8
  03d59	89 95 96 c4 ff
	ff		 mov	 DWORD PTR _sndconfig$[ebp+24730], edx
  03d5f	a1 0c 00 00 00	 mov	 eax, DWORD PTR ??_C@_0BE@NNJINKHI@data?2se?2saam_08?4wav?$AA@+12
  03d64	89 85 9a c4 ff
	ff		 mov	 DWORD PTR _sndconfig$[ebp+24734], eax
  03d6a	8b 0d 10 00 00
	00		 mov	 ecx, DWORD PTR ??_C@_0BE@NNJINKHI@data?2se?2saam_08?4wav?$AA@+16
  03d70	89 8d 9e c4 ff
	ff		 mov	 DWORD PTR _sndconfig$[ebp+24738], ecx
  03d76	68 b4 00 00 00	 push	 180			; 000000b4H
  03d7b	6a 00		 push	 0
  03d7d	8d 85 a2 c4 ff
	ff		 lea	 eax, DWORD PTR _sndconfig$[ebp+24742]
  03d83	50		 push	 eax
  03d84	e8 00 00 00 00	 call	 _memset
  03d89	83 c4 0c	 add	 esp, 12			; 0000000cH
  03d8c	c6 85 56 c5 ff
	ff 78		 mov	 BYTE PTR _sndconfig$[ebp+24922], 120 ; 00000078H
  03d93	c6 85 57 c5 ff
	ff 00		 mov	 BYTE PTR _sndconfig$[ebp+24923], 0
  03d9a	c6 85 58 c5 ff
	ff 00		 mov	 BYTE PTR _sndconfig$[ebp+24924], 0

; 145  : 	{  308,"data\\se\\saam_09.wav",120, 0, 0 /*, "水魔法  魔法Lv1"*/ },

  03da1	b8 34 01 00 00	 mov	 eax, 308		; 00000134H
  03da6	66 89 85 5a c5
	ff ff		 mov	 WORD PTR _sndconfig$[ebp+24926], ax
  03dad	a1 00 00 00 00	 mov	 eax, DWORD PTR ??_C@_0BE@BGMEAJNN@data?2se?2saam_09?4wav?$AA@
  03db2	89 85 5c c5 ff
	ff		 mov	 DWORD PTR _sndconfig$[ebp+24928], eax
  03db8	8b 0d 04 00 00
	00		 mov	 ecx, DWORD PTR ??_C@_0BE@BGMEAJNN@data?2se?2saam_09?4wav?$AA@+4
  03dbe	89 8d 60 c5 ff
	ff		 mov	 DWORD PTR _sndconfig$[ebp+24932], ecx
  03dc4	8b 15 08 00 00
	00		 mov	 edx, DWORD PTR ??_C@_0BE@BGMEAJNN@data?2se?2saam_09?4wav?$AA@+8
  03dca	89 95 64 c5 ff
	ff		 mov	 DWORD PTR _sndconfig$[ebp+24936], edx
  03dd0	a1 0c 00 00 00	 mov	 eax, DWORD PTR ??_C@_0BE@BGMEAJNN@data?2se?2saam_09?4wav?$AA@+12
  03dd5	89 85 68 c5 ff
	ff		 mov	 DWORD PTR _sndconfig$[ebp+24940], eax
  03ddb	8b 0d 10 00 00
	00		 mov	 ecx, DWORD PTR ??_C@_0BE@BGMEAJNN@data?2se?2saam_09?4wav?$AA@+16
  03de1	89 8d 6c c5 ff
	ff		 mov	 DWORD PTR _sndconfig$[ebp+24944], ecx
  03de7	68 b4 00 00 00	 push	 180			; 000000b4H
  03dec	6a 00		 push	 0
  03dee	8d 85 70 c5 ff
	ff		 lea	 eax, DWORD PTR _sndconfig$[ebp+24948]
  03df4	50		 push	 eax
  03df5	e8 00 00 00 00	 call	 _memset
  03dfa	83 c4 0c	 add	 esp, 12			; 0000000cH
  03dfd	c6 85 24 c6 ff
	ff 78		 mov	 BYTE PTR _sndconfig$[ebp+25128], 120 ; 00000078H
  03e04	c6 85 25 c6 ff
	ff 00		 mov	 BYTE PTR _sndconfig$[ebp+25129], 0
  03e0b	c6 85 26 c6 ff
	ff 00		 mov	 BYTE PTR _sndconfig$[ebp+25130], 0

; 146  : 	{  309,"data\\se\\saam_10.wav",120, 0, 0 /*, "水魔法  魔法Lv2"*/ },

  03e12	b8 35 01 00 00	 mov	 eax, 309		; 00000135H
  03e17	66 89 85 28 c6
	ff ff		 mov	 WORD PTR _sndconfig$[ebp+25132], ax
  03e1e	a1 00 00 00 00	 mov	 eax, DWORD PTR ??_C@_0BE@JHLMFDKB@data?2se?2saam_10?4wav?$AA@
  03e23	89 85 2a c6 ff
	ff		 mov	 DWORD PTR _sndconfig$[ebp+25134], eax
  03e29	8b 0d 04 00 00
	00		 mov	 ecx, DWORD PTR ??_C@_0BE@JHLMFDKB@data?2se?2saam_10?4wav?$AA@+4
  03e2f	89 8d 2e c6 ff
	ff		 mov	 DWORD PTR _sndconfig$[ebp+25138], ecx
  03e35	8b 15 08 00 00
	00		 mov	 edx, DWORD PTR ??_C@_0BE@JHLMFDKB@data?2se?2saam_10?4wav?$AA@+8
  03e3b	89 95 32 c6 ff
	ff		 mov	 DWORD PTR _sndconfig$[ebp+25142], edx
  03e41	a1 0c 00 00 00	 mov	 eax, DWORD PTR ??_C@_0BE@JHLMFDKB@data?2se?2saam_10?4wav?$AA@+12
  03e46	89 85 36 c6 ff
	ff		 mov	 DWORD PTR _sndconfig$[ebp+25146], eax
  03e4c	8b 0d 10 00 00
	00		 mov	 ecx, DWORD PTR ??_C@_0BE@JHLMFDKB@data?2se?2saam_10?4wav?$AA@+16
  03e52	89 8d 3a c6 ff
	ff		 mov	 DWORD PTR _sndconfig$[ebp+25150], ecx
  03e58	68 b4 00 00 00	 push	 180			; 000000b4H
  03e5d	6a 00		 push	 0
  03e5f	8d 85 3e c6 ff
	ff		 lea	 eax, DWORD PTR _sndconfig$[ebp+25154]
  03e65	50		 push	 eax
  03e66	e8 00 00 00 00	 call	 _memset
  03e6b	83 c4 0c	 add	 esp, 12			; 0000000cH
  03e6e	c6 85 f2 c6 ff
	ff 78		 mov	 BYTE PTR _sndconfig$[ebp+25334], 120 ; 00000078H
  03e75	c6 85 f3 c6 ff
	ff 00		 mov	 BYTE PTR _sndconfig$[ebp+25335], 0
  03e7c	c6 85 f4 c6 ff
	ff 00		 mov	 BYTE PTR _sndconfig$[ebp+25336], 0

; 147  : 	{  310,"data\\se\\saam_11.wav",120, 0, 0 /*, "水魔法  魔法Lv3-1"*/ },

  03e83	b8 36 01 00 00	 mov	 eax, 310		; 00000136H
  03e88	66 89 85 f6 c6
	ff ff		 mov	 WORD PTR _sndconfig$[ebp+25338], ax
  03e8f	a1 00 00 00 00	 mov	 eax, DWORD PTR ??_C@_0BE@FMOAIAAE@data?2se?2saam_11?4wav?$AA@
  03e94	89 85 f8 c6 ff
	ff		 mov	 DWORD PTR _sndconfig$[ebp+25340], eax
  03e9a	8b 0d 04 00 00
	00		 mov	 ecx, DWORD PTR ??_C@_0BE@FMOAIAAE@data?2se?2saam_11?4wav?$AA@+4
  03ea0	89 8d fc c6 ff
	ff		 mov	 DWORD PTR _sndconfig$[ebp+25344], ecx
  03ea6	8b 15 08 00 00
	00		 mov	 edx, DWORD PTR ??_C@_0BE@FMOAIAAE@data?2se?2saam_11?4wav?$AA@+8
  03eac	89 95 00 c7 ff
	ff		 mov	 DWORD PTR _sndconfig$[ebp+25348], edx
  03eb2	a1 0c 00 00 00	 mov	 eax, DWORD PTR ??_C@_0BE@FMOAIAAE@data?2se?2saam_11?4wav?$AA@+12
  03eb7	89 85 04 c7 ff
	ff		 mov	 DWORD PTR _sndconfig$[ebp+25352], eax
  03ebd	8b 0d 10 00 00
	00		 mov	 ecx, DWORD PTR ??_C@_0BE@FMOAIAAE@data?2se?2saam_11?4wav?$AA@+16
  03ec3	89 8d 08 c7 ff
	ff		 mov	 DWORD PTR _sndconfig$[ebp+25356], ecx
  03ec9	68 b4 00 00 00	 push	 180			; 000000b4H
  03ece	6a 00		 push	 0
  03ed0	8d 85 0c c7 ff
	ff		 lea	 eax, DWORD PTR _sndconfig$[ebp+25360]
  03ed6	50		 push	 eax
  03ed7	e8 00 00 00 00	 call	 _memset
  03edc	83 c4 0c	 add	 esp, 12			; 0000000cH
  03edf	c6 85 c0 c7 ff
	ff 78		 mov	 BYTE PTR _sndconfig$[ebp+25540], 120 ; 00000078H
  03ee6	c6 85 c1 c7 ff
	ff 00		 mov	 BYTE PTR _sndconfig$[ebp+25541], 0
  03eed	c6 85 c2 c7 ff
	ff 00		 mov	 BYTE PTR _sndconfig$[ebp+25542], 0

; 148  : 	{  311,"data\\se\\saam_12.wav",120, 0, 0 /*, "水魔法  魔法Lv3-2"*/ },

  03ef4	b8 37 01 00 00	 mov	 eax, 311		; 00000137H
  03ef9	66 89 85 c4 c7
	ff ff		 mov	 WORD PTR _sndconfig$[ebp+25544], ax
  03f00	a1 00 00 00 00	 mov	 eax, DWORD PTR ??_C@_0BE@NKHEPCKK@data?2se?2saam_12?4wav?$AA@
  03f05	89 85 c6 c7 ff
	ff		 mov	 DWORD PTR _sndconfig$[ebp+25546], eax
  03f0b	8b 0d 04 00 00
	00		 mov	 ecx, DWORD PTR ??_C@_0BE@NKHEPCKK@data?2se?2saam_12?4wav?$AA@+4
  03f11	89 8d ca c7 ff
	ff		 mov	 DWORD PTR _sndconfig$[ebp+25550], ecx
  03f17	8b 15 08 00 00
	00		 mov	 edx, DWORD PTR ??_C@_0BE@NKHEPCKK@data?2se?2saam_12?4wav?$AA@+8
  03f1d	89 95 ce c7 ff
	ff		 mov	 DWORD PTR _sndconfig$[ebp+25554], edx
  03f23	a1 0c 00 00 00	 mov	 eax, DWORD PTR ??_C@_0BE@NKHEPCKK@data?2se?2saam_12?4wav?$AA@+12
  03f28	89 85 d2 c7 ff
	ff		 mov	 DWORD PTR _sndconfig$[ebp+25558], eax
  03f2e	8b 0d 10 00 00
	00		 mov	 ecx, DWORD PTR ??_C@_0BE@NKHEPCKK@data?2se?2saam_12?4wav?$AA@+16
  03f34	89 8d d6 c7 ff
	ff		 mov	 DWORD PTR _sndconfig$[ebp+25562], ecx
  03f3a	68 b4 00 00 00	 push	 180			; 000000b4H
  03f3f	6a 00		 push	 0
  03f41	8d 85 da c7 ff
	ff		 lea	 eax, DWORD PTR _sndconfig$[ebp+25566]
  03f47	50		 push	 eax
  03f48	e8 00 00 00 00	 call	 _memset
  03f4d	83 c4 0c	 add	 esp, 12			; 0000000cH
  03f50	c6 85 8e c8 ff
	ff 78		 mov	 BYTE PTR _sndconfig$[ebp+25746], 120 ; 00000078H
  03f57	c6 85 8f c8 ff
	ff 00		 mov	 BYTE PTR _sndconfig$[ebp+25747], 0
  03f5e	c6 85 90 c8 ff
	ff 00		 mov	 BYTE PTR _sndconfig$[ebp+25748], 0

; 149  : 	{  312,"data\\se\\saam_13.wav",120, 0, 0 /*, "水魔法  魔法Lv3-3"*/ },

  03f65	b8 38 01 00 00	 mov	 eax, 312		; 00000138H
  03f6a	66 89 85 92 c8
	ff ff		 mov	 WORD PTR _sndconfig$[ebp+25750], ax
  03f71	a1 00 00 00 00	 mov	 eax, DWORD PTR ??_C@_0BE@BBCICBAP@data?2se?2saam_13?4wav?$AA@
  03f76	89 85 94 c8 ff
	ff		 mov	 DWORD PTR _sndconfig$[ebp+25752], eax
  03f7c	8b 0d 04 00 00
	00		 mov	 ecx, DWORD PTR ??_C@_0BE@BBCICBAP@data?2se?2saam_13?4wav?$AA@+4
  03f82	89 8d 98 c8 ff
	ff		 mov	 DWORD PTR _sndconfig$[ebp+25756], ecx
  03f88	8b 15 08 00 00
	00		 mov	 edx, DWORD PTR ??_C@_0BE@BBCICBAP@data?2se?2saam_13?4wav?$AA@+8
  03f8e	89 95 9c c8 ff
	ff		 mov	 DWORD PTR _sndconfig$[ebp+25760], edx
  03f94	a1 0c 00 00 00	 mov	 eax, DWORD PTR ??_C@_0BE@BBCICBAP@data?2se?2saam_13?4wav?$AA@+12
  03f99	89 85 a0 c8 ff
	ff		 mov	 DWORD PTR _sndconfig$[ebp+25764], eax
  03f9f	8b 0d 10 00 00
	00		 mov	 ecx, DWORD PTR ??_C@_0BE@BBCICBAP@data?2se?2saam_13?4wav?$AA@+16
  03fa5	89 8d a4 c8 ff
	ff		 mov	 DWORD PTR _sndconfig$[ebp+25768], ecx
  03fab	68 b4 00 00 00	 push	 180			; 000000b4H
  03fb0	6a 00		 push	 0
  03fb2	8d 85 a8 c8 ff
	ff		 lea	 eax, DWORD PTR _sndconfig$[ebp+25772]
  03fb8	50		 push	 eax
  03fb9	e8 00 00 00 00	 call	 _memset
  03fbe	83 c4 0c	 add	 esp, 12			; 0000000cH
  03fc1	c6 85 5c c9 ff
	ff 78		 mov	 BYTE PTR _sndconfig$[ebp+25952], 120 ; 00000078H
  03fc8	c6 85 5d c9 ff
	ff 00		 mov	 BYTE PTR _sndconfig$[ebp+25953], 0
  03fcf	c6 85 5e c9 ff
	ff 00		 mov	 BYTE PTR _sndconfig$[ebp+25954], 0

; 150  : 	{  313,"data\\se\\saam_14.wav",120, 0, 0 /*, "水魔法  魔法Lv4"*/ },

  03fd6	b8 39 01 00 00	 mov	 eax, 313		; 00000139H
  03fdb	66 89 85 60 c9
	ff ff		 mov	 WORD PTR _sndconfig$[ebp+25956], ax
  03fe2	a1 00 00 00 00	 mov	 eax, DWORD PTR ??_C@_0BE@MCNBBLH@data?2se?2saam_14?4wav?$AA@
  03fe7	89 85 62 c9 ff
	ff		 mov	 DWORD PTR _sndconfig$[ebp+25958], eax
  03fed	8b 0d 04 00 00
	00		 mov	 ecx, DWORD PTR ??_C@_0BE@MCNBBLH@data?2se?2saam_14?4wav?$AA@+4
  03ff3	89 8d 66 c9 ff
	ff		 mov	 DWORD PTR _sndconfig$[ebp+25962], ecx
  03ff9	8b 15 08 00 00
	00		 mov	 edx, DWORD PTR ??_C@_0BE@MCNBBLH@data?2se?2saam_14?4wav?$AA@+8
  03fff	89 95 6a c9 ff
	ff		 mov	 DWORD PTR _sndconfig$[ebp+25966], edx
  04005	a1 0c 00 00 00	 mov	 eax, DWORD PTR ??_C@_0BE@MCNBBLH@data?2se?2saam_14?4wav?$AA@+12
  0400a	89 85 6e c9 ff
	ff		 mov	 DWORD PTR _sndconfig$[ebp+25970], eax
  04010	8b 0d 10 00 00
	00		 mov	 ecx, DWORD PTR ??_C@_0BE@MCNBBLH@data?2se?2saam_14?4wav?$AA@+16
  04016	89 8d 72 c9 ff
	ff		 mov	 DWORD PTR _sndconfig$[ebp+25974], ecx
  0401c	68 b4 00 00 00	 push	 180			; 000000b4H
  04021	6a 00		 push	 0
  04023	8d 85 76 c9 ff
	ff		 lea	 eax, DWORD PTR _sndconfig$[ebp+25978]
  04029	50		 push	 eax
  0402a	e8 00 00 00 00	 call	 _memset
  0402f	83 c4 0c	 add	 esp, 12			; 0000000cH
  04032	c6 85 2a ca ff
	ff 78		 mov	 BYTE PTR _sndconfig$[ebp+26158], 120 ; 00000078H
  04039	c6 85 2b ca ff
	ff 00		 mov	 BYTE PTR _sndconfig$[ebp+26159], 0
  04040	c6 85 2c ca ff
	ff 00		 mov	 BYTE PTR _sndconfig$[ebp+26160], 0

; 151  : 	{  314,"data\\se\\saam_15.wav",120, 0, 0 /*, "火魔法  魔法Lv1"*/ },

  04047	b8 3a 01 00 00	 mov	 eax, 314		; 0000013aH
  0404c	66 89 85 2e ca
	ff ff		 mov	 WORD PTR _sndconfig$[ebp+26162], ax
  04053	a1 00 00 00 00	 mov	 eax, DWORD PTR ??_C@_0BE@MHHBMCBC@data?2se?2saam_15?4wav?$AA@
  04058	89 85 30 ca ff
	ff		 mov	 DWORD PTR _sndconfig$[ebp+26164], eax
  0405e	8b 0d 04 00 00
	00		 mov	 ecx, DWORD PTR ??_C@_0BE@MHHBMCBC@data?2se?2saam_15?4wav?$AA@+4
  04064	89 8d 34 ca ff
	ff		 mov	 DWORD PTR _sndconfig$[ebp+26168], ecx
  0406a	8b 15 08 00 00
	00		 mov	 edx, DWORD PTR ??_C@_0BE@MHHBMCBC@data?2se?2saam_15?4wav?$AA@+8
  04070	89 95 38 ca ff
	ff		 mov	 DWORD PTR _sndconfig$[ebp+26172], edx
  04076	a1 0c 00 00 00	 mov	 eax, DWORD PTR ??_C@_0BE@MHHBMCBC@data?2se?2saam_15?4wav?$AA@+12
  0407b	89 85 3c ca ff
	ff		 mov	 DWORD PTR _sndconfig$[ebp+26176], eax
  04081	8b 0d 10 00 00
	00		 mov	 ecx, DWORD PTR ??_C@_0BE@MHHBMCBC@data?2se?2saam_15?4wav?$AA@+16
  04087	89 8d 40 ca ff
	ff		 mov	 DWORD PTR _sndconfig$[ebp+26180], ecx
  0408d	68 b4 00 00 00	 push	 180			; 000000b4H
  04092	6a 00		 push	 0
  04094	8d 85 44 ca ff
	ff		 lea	 eax, DWORD PTR _sndconfig$[ebp+26184]
  0409a	50		 push	 eax
  0409b	e8 00 00 00 00	 call	 _memset
  040a0	83 c4 0c	 add	 esp, 12			; 0000000cH
  040a3	c6 85 f8 ca ff
	ff 78		 mov	 BYTE PTR _sndconfig$[ebp+26364], 120 ; 00000078H
  040aa	c6 85 f9 ca ff
	ff 00		 mov	 BYTE PTR _sndconfig$[ebp+26365], 0
  040b1	c6 85 fa ca ff
	ff 00		 mov	 BYTE PTR _sndconfig$[ebp+26366], 0

; 152  : 	{  315,"data\\se\\saam_16.wav",120, 0, 0 /*, "火魔法  魔法Lv2"*/ },

  040b8	b8 3b 01 00 00	 mov	 eax, 315		; 0000013bH
  040bd	66 89 85 fc ca
	ff ff		 mov	 WORD PTR _sndconfig$[ebp+26368], ax
  040c4	a1 00 00 00 00	 mov	 eax, DWORD PTR ??_C@_0BE@EBOFLALM@data?2se?2saam_16?4wav?$AA@
  040c9	89 85 fe ca ff
	ff		 mov	 DWORD PTR _sndconfig$[ebp+26370], eax
  040cf	8b 0d 04 00 00
	00		 mov	 ecx, DWORD PTR ??_C@_0BE@EBOFLALM@data?2se?2saam_16?4wav?$AA@+4
  040d5	89 8d 02 cb ff
	ff		 mov	 DWORD PTR _sndconfig$[ebp+26374], ecx
  040db	8b 15 08 00 00
	00		 mov	 edx, DWORD PTR ??_C@_0BE@EBOFLALM@data?2se?2saam_16?4wav?$AA@+8
  040e1	89 95 06 cb ff
	ff		 mov	 DWORD PTR _sndconfig$[ebp+26378], edx
  040e7	a1 0c 00 00 00	 mov	 eax, DWORD PTR ??_C@_0BE@EBOFLALM@data?2se?2saam_16?4wav?$AA@+12
  040ec	89 85 0a cb ff
	ff		 mov	 DWORD PTR _sndconfig$[ebp+26382], eax
  040f2	8b 0d 10 00 00
	00		 mov	 ecx, DWORD PTR ??_C@_0BE@EBOFLALM@data?2se?2saam_16?4wav?$AA@+16
  040f8	89 8d 0e cb ff
	ff		 mov	 DWORD PTR _sndconfig$[ebp+26386], ecx
  040fe	68 b4 00 00 00	 push	 180			; 000000b4H
  04103	6a 00		 push	 0
  04105	8d 85 12 cb ff
	ff		 lea	 eax, DWORD PTR _sndconfig$[ebp+26390]
  0410b	50		 push	 eax
  0410c	e8 00 00 00 00	 call	 _memset
  04111	83 c4 0c	 add	 esp, 12			; 0000000cH
  04114	c6 85 c6 cb ff
	ff 78		 mov	 BYTE PTR _sndconfig$[ebp+26570], 120 ; 00000078H
  0411b	c6 85 c7 cb ff
	ff 00		 mov	 BYTE PTR _sndconfig$[ebp+26571], 0
  04122	c6 85 c8 cb ff
	ff 00		 mov	 BYTE PTR _sndconfig$[ebp+26572], 0

; 153  : 	{  316,"data\\se\\saam_17.wav",120, 0, 0 /*, "火魔法  魔法Lv3-1"*/ },

  04129	b8 3c 01 00 00	 mov	 eax, 316		; 0000013cH
  0412e	66 89 85 ca cb
	ff ff		 mov	 WORD PTR _sndconfig$[ebp+26574], ax
  04135	a1 00 00 00 00	 mov	 eax, DWORD PTR ??_C@_0BE@IKLJGDBJ@data?2se?2saam_17?4wav?$AA@
  0413a	89 85 cc cb ff
	ff		 mov	 DWORD PTR _sndconfig$[ebp+26576], eax
  04140	8b 0d 04 00 00
	00		 mov	 ecx, DWORD PTR ??_C@_0BE@IKLJGDBJ@data?2se?2saam_17?4wav?$AA@+4
  04146	89 8d d0 cb ff
	ff		 mov	 DWORD PTR _sndconfig$[ebp+26580], ecx
  0414c	8b 15 08 00 00
	00		 mov	 edx, DWORD PTR ??_C@_0BE@IKLJGDBJ@data?2se?2saam_17?4wav?$AA@+8
  04152	89 95 d4 cb ff
	ff		 mov	 DWORD PTR _sndconfig$[ebp+26584], edx
  04158	a1 0c 00 00 00	 mov	 eax, DWORD PTR ??_C@_0BE@IKLJGDBJ@data?2se?2saam_17?4wav?$AA@+12
  0415d	89 85 d8 cb ff
	ff		 mov	 DWORD PTR _sndconfig$[ebp+26588], eax
  04163	8b 0d 10 00 00
	00		 mov	 ecx, DWORD PTR ??_C@_0BE@IKLJGDBJ@data?2se?2saam_17?4wav?$AA@+16
  04169	89 8d dc cb ff
	ff		 mov	 DWORD PTR _sndconfig$[ebp+26592], ecx
  0416f	68 b4 00 00 00	 push	 180			; 000000b4H
  04174	6a 00		 push	 0
  04176	8d 85 e0 cb ff
	ff		 lea	 eax, DWORD PTR _sndconfig$[ebp+26596]
  0417c	50		 push	 eax
  0417d	e8 00 00 00 00	 call	 _memset
  04182	83 c4 0c	 add	 esp, 12			; 0000000cH
  04185	c6 85 94 cc ff
	ff 78		 mov	 BYTE PTR _sndconfig$[ebp+26776], 120 ; 00000078H
  0418c	c6 85 95 cc ff
	ff 00		 mov	 BYTE PTR _sndconfig$[ebp+26777], 0
  04193	c6 85 96 cc ff
	ff 00		 mov	 BYTE PTR _sndconfig$[ebp+26778], 0

; 154  : 	{  317,"data\\se\\saam_18.wav",120, 0, 0 /*, "火魔法  魔法Lv3-2"*/ },

  0419a	b8 3d 01 00 00	 mov	 eax, 317		; 0000013dH
  0419f	66 89 85 98 cc
	ff ff		 mov	 WORD PTR _sndconfig$[ebp+26780], ax
  041a6	a1 00 00 00 00	 mov	 eax, DWORD PTR ??_C@_0BE@HLOPNBMM@data?2se?2saam_18?4wav?$AA@
  041ab	89 85 9a cc ff
	ff		 mov	 DWORD PTR _sndconfig$[ebp+26782], eax
  041b1	8b 0d 04 00 00
	00		 mov	 ecx, DWORD PTR ??_C@_0BE@HLOPNBMM@data?2se?2saam_18?4wav?$AA@+4
  041b7	89 8d 9e cc ff
	ff		 mov	 DWORD PTR _sndconfig$[ebp+26786], ecx
  041bd	8b 15 08 00 00
	00		 mov	 edx, DWORD PTR ??_C@_0BE@HLOPNBMM@data?2se?2saam_18?4wav?$AA@+8
  041c3	89 95 a2 cc ff
	ff		 mov	 DWORD PTR _sndconfig$[ebp+26790], edx
  041c9	a1 0c 00 00 00	 mov	 eax, DWORD PTR ??_C@_0BE@HLOPNBMM@data?2se?2saam_18?4wav?$AA@+12
  041ce	89 85 a6 cc ff
	ff		 mov	 DWORD PTR _sndconfig$[ebp+26794], eax
  041d4	8b 0d 10 00 00
	00		 mov	 ecx, DWORD PTR ??_C@_0BE@HLOPNBMM@data?2se?2saam_18?4wav?$AA@+16
  041da	89 8d aa cc ff
	ff		 mov	 DWORD PTR _sndconfig$[ebp+26798], ecx
  041e0	68 b4 00 00 00	 push	 180			; 000000b4H
  041e5	6a 00		 push	 0
  041e7	8d 85 ae cc ff
	ff		 lea	 eax, DWORD PTR _sndconfig$[ebp+26802]
  041ed	50		 push	 eax
  041ee	e8 00 00 00 00	 call	 _memset
  041f3	83 c4 0c	 add	 esp, 12			; 0000000cH
  041f6	c6 85 62 cd ff
	ff 78		 mov	 BYTE PTR _sndconfig$[ebp+26982], 120 ; 00000078H
  041fd	c6 85 63 cd ff
	ff 00		 mov	 BYTE PTR _sndconfig$[ebp+26983], 0
  04204	c6 85 64 cd ff
	ff 00		 mov	 BYTE PTR _sndconfig$[ebp+26984], 0

; 155  : 	{  318,"data\\se\\saam_19.wav",120, 0, 0 /*, "火魔法  魔法Lv3-3"*/ },

  0420b	b8 3e 01 00 00	 mov	 eax, 318		; 0000013eH
  04210	66 89 85 66 cd
	ff ff		 mov	 WORD PTR _sndconfig$[ebp+26986], ax
  04217	a1 00 00 00 00	 mov	 eax, DWORD PTR ??_C@_0BE@LALDACGJ@data?2se?2saam_19?4wav?$AA@
  0421c	89 85 68 cd ff
	ff		 mov	 DWORD PTR _sndconfig$[ebp+26988], eax
  04222	8b 0d 04 00 00
	00		 mov	 ecx, DWORD PTR ??_C@_0BE@LALDACGJ@data?2se?2saam_19?4wav?$AA@+4
  04228	89 8d 6c cd ff
	ff		 mov	 DWORD PTR _sndconfig$[ebp+26992], ecx
  0422e	8b 15 08 00 00
	00		 mov	 edx, DWORD PTR ??_C@_0BE@LALDACGJ@data?2se?2saam_19?4wav?$AA@+8
  04234	89 95 70 cd ff
	ff		 mov	 DWORD PTR _sndconfig$[ebp+26996], edx
  0423a	a1 0c 00 00 00	 mov	 eax, DWORD PTR ??_C@_0BE@LALDACGJ@data?2se?2saam_19?4wav?$AA@+12
  0423f	89 85 74 cd ff
	ff		 mov	 DWORD PTR _sndconfig$[ebp+27000], eax
  04245	8b 0d 10 00 00
	00		 mov	 ecx, DWORD PTR ??_C@_0BE@LALDACGJ@data?2se?2saam_19?4wav?$AA@+16
  0424b	89 8d 78 cd ff
	ff		 mov	 DWORD PTR _sndconfig$[ebp+27004], ecx
  04251	68 b4 00 00 00	 push	 180			; 000000b4H
  04256	6a 00		 push	 0
  04258	8d 85 7c cd ff
	ff		 lea	 eax, DWORD PTR _sndconfig$[ebp+27008]
  0425e	50		 push	 eax
  0425f	e8 00 00 00 00	 call	 _memset
  04264	83 c4 0c	 add	 esp, 12			; 0000000cH
  04267	c6 85 30 ce ff
	ff 78		 mov	 BYTE PTR _sndconfig$[ebp+27188], 120 ; 00000078H
  0426e	c6 85 31 ce ff
	ff 00		 mov	 BYTE PTR _sndconfig$[ebp+27189], 0
  04275	c6 85 32 ce ff
	ff 00		 mov	 BYTE PTR _sndconfig$[ebp+27190], 0

; 156  : 	{  319,"data\\se\\saam_20.wav",120, 0, 0 /*, "火魔法  魔法Lv4"*/ },

  0427c	b8 3f 01 00 00	 mov	 eax, 319		; 0000013fH
  04281	66 89 85 34 ce
	ff ff		 mov	 WORD PTR _sndconfig$[ebp+27192], ax
  04288	a1 00 00 00 00	 mov	 eax, DWORD PTR ??_C@_0BE@KGFEEJDM@data?2se?2saam_20?4wav?$AA@
  0428d	89 85 36 ce ff
	ff		 mov	 DWORD PTR _sndconfig$[ebp+27194], eax
  04293	8b 0d 04 00 00
	00		 mov	 ecx, DWORD PTR ??_C@_0BE@KGFEEJDM@data?2se?2saam_20?4wav?$AA@+4
  04299	89 8d 3a ce ff
	ff		 mov	 DWORD PTR _sndconfig$[ebp+27198], ecx
  0429f	8b 15 08 00 00
	00		 mov	 edx, DWORD PTR ??_C@_0BE@KGFEEJDM@data?2se?2saam_20?4wav?$AA@+8
  042a5	89 95 3e ce ff
	ff		 mov	 DWORD PTR _sndconfig$[ebp+27202], edx
  042ab	a1 0c 00 00 00	 mov	 eax, DWORD PTR ??_C@_0BE@KGFEEJDM@data?2se?2saam_20?4wav?$AA@+12
  042b0	89 85 42 ce ff
	ff		 mov	 DWORD PTR _sndconfig$[ebp+27206], eax
  042b6	8b 0d 10 00 00
	00		 mov	 ecx, DWORD PTR ??_C@_0BE@KGFEEJDM@data?2se?2saam_20?4wav?$AA@+16
  042bc	89 8d 46 ce ff
	ff		 mov	 DWORD PTR _sndconfig$[ebp+27210], ecx
  042c2	68 b4 00 00 00	 push	 180			; 000000b4H
  042c7	6a 00		 push	 0
  042c9	8d 85 4a ce ff
	ff		 lea	 eax, DWORD PTR _sndconfig$[ebp+27214]
  042cf	50		 push	 eax
  042d0	e8 00 00 00 00	 call	 _memset
  042d5	83 c4 0c	 add	 esp, 12			; 0000000cH
  042d8	c6 85 fe ce ff
	ff 78		 mov	 BYTE PTR _sndconfig$[ebp+27394], 120 ; 00000078H
  042df	c6 85 ff ce ff
	ff 00		 mov	 BYTE PTR _sndconfig$[ebp+27395], 0
  042e6	c6 85 00 cf ff
	ff 00		 mov	 BYTE PTR _sndconfig$[ebp+27396], 0

; 157  : 	{  320,"data\\se\\saam_21.wav",120, 0, 0 /*, "风魔法  魔法Lv1"*/ },

  042ed	b8 40 01 00 00	 mov	 eax, 320		; 00000140H
  042f2	66 89 85 02 cf
	ff ff		 mov	 WORD PTR _sndconfig$[ebp+27398], ax
  042f9	a1 00 00 00 00	 mov	 eax, DWORD PTR ??_C@_0BE@GNAIJKJJ@data?2se?2saam_21?4wav?$AA@
  042fe	89 85 04 cf ff
	ff		 mov	 DWORD PTR _sndconfig$[ebp+27400], eax
  04304	8b 0d 04 00 00
	00		 mov	 ecx, DWORD PTR ??_C@_0BE@GNAIJKJJ@data?2se?2saam_21?4wav?$AA@+4
  0430a	89 8d 08 cf ff
	ff		 mov	 DWORD PTR _sndconfig$[ebp+27404], ecx
  04310	8b 15 08 00 00
	00		 mov	 edx, DWORD PTR ??_C@_0BE@GNAIJKJJ@data?2se?2saam_21?4wav?$AA@+8
  04316	89 95 0c cf ff
	ff		 mov	 DWORD PTR _sndconfig$[ebp+27408], edx
  0431c	a1 0c 00 00 00	 mov	 eax, DWORD PTR ??_C@_0BE@GNAIJKJJ@data?2se?2saam_21?4wav?$AA@+12
  04321	89 85 10 cf ff
	ff		 mov	 DWORD PTR _sndconfig$[ebp+27412], eax
  04327	8b 0d 10 00 00
	00		 mov	 ecx, DWORD PTR ??_C@_0BE@GNAIJKJJ@data?2se?2saam_21?4wav?$AA@+16
  0432d	89 8d 14 cf ff
	ff		 mov	 DWORD PTR _sndconfig$[ebp+27416], ecx
  04333	68 b4 00 00 00	 push	 180			; 000000b4H
  04338	6a 00		 push	 0
  0433a	8d 85 18 cf ff
	ff		 lea	 eax, DWORD PTR _sndconfig$[ebp+27420]
  04340	50		 push	 eax
  04341	e8 00 00 00 00	 call	 _memset
  04346	83 c4 0c	 add	 esp, 12			; 0000000cH
  04349	c6 85 cc cf ff
	ff 78		 mov	 BYTE PTR _sndconfig$[ebp+27600], 120 ; 00000078H
  04350	c6 85 cd cf ff
	ff 00		 mov	 BYTE PTR _sndconfig$[ebp+27601], 0
  04357	c6 85 ce cf ff
	ff 00		 mov	 BYTE PTR _sndconfig$[ebp+27602], 0

; 158  : 	{  321,"data\\se\\saam_22.wav",120, 0, 0 /*, "风魔法  魔法Lv2"*/ },

  0435e	b8 41 01 00 00	 mov	 eax, 321		; 00000141H
  04363	66 89 85 d0 cf
	ff ff		 mov	 WORD PTR _sndconfig$[ebp+27604], ax
  0436a	a1 00 00 00 00	 mov	 eax, DWORD PTR ??_C@_0BE@OLJMOIDH@data?2se?2saam_22?4wav?$AA@
  0436f	89 85 d2 cf ff
	ff		 mov	 DWORD PTR _sndconfig$[ebp+27606], eax
  04375	8b 0d 04 00 00
	00		 mov	 ecx, DWORD PTR ??_C@_0BE@OLJMOIDH@data?2se?2saam_22?4wav?$AA@+4
  0437b	89 8d d6 cf ff
	ff		 mov	 DWORD PTR _sndconfig$[ebp+27610], ecx
  04381	8b 15 08 00 00
	00		 mov	 edx, DWORD PTR ??_C@_0BE@OLJMOIDH@data?2se?2saam_22?4wav?$AA@+8
  04387	89 95 da cf ff
	ff		 mov	 DWORD PTR _sndconfig$[ebp+27614], edx
  0438d	a1 0c 00 00 00	 mov	 eax, DWORD PTR ??_C@_0BE@OLJMOIDH@data?2se?2saam_22?4wav?$AA@+12
  04392	89 85 de cf ff
	ff		 mov	 DWORD PTR _sndconfig$[ebp+27618], eax
  04398	8b 0d 10 00 00
	00		 mov	 ecx, DWORD PTR ??_C@_0BE@OLJMOIDH@data?2se?2saam_22?4wav?$AA@+16
  0439e	89 8d e2 cf ff
	ff		 mov	 DWORD PTR _sndconfig$[ebp+27622], ecx
  043a4	68 b4 00 00 00	 push	 180			; 000000b4H
  043a9	6a 00		 push	 0
  043ab	8d 85 e6 cf ff
	ff		 lea	 eax, DWORD PTR _sndconfig$[ebp+27626]
  043b1	50		 push	 eax
  043b2	e8 00 00 00 00	 call	 _memset
  043b7	83 c4 0c	 add	 esp, 12			; 0000000cH
  043ba	c6 85 9a d0 ff
	ff 78		 mov	 BYTE PTR _sndconfig$[ebp+27806], 120 ; 00000078H
  043c1	c6 85 9b d0 ff
	ff 00		 mov	 BYTE PTR _sndconfig$[ebp+27807], 0
  043c8	c6 85 9c d0 ff
	ff 00		 mov	 BYTE PTR _sndconfig$[ebp+27808], 0

; 159  : 	{  322,"data\\se\\saam_23.wav",120, 0, 0 /*, "风魔法  魔法Lv3-1"*/ },

  043cf	b8 42 01 00 00	 mov	 eax, 322		; 00000142H
  043d4	66 89 85 9e d0
	ff ff		 mov	 WORD PTR _sndconfig$[ebp+27810], ax
  043db	a1 00 00 00 00	 mov	 eax, DWORD PTR ??_C@_0BE@CAMADLJC@data?2se?2saam_23?4wav?$AA@
  043e0	89 85 a0 d0 ff
	ff		 mov	 DWORD PTR _sndconfig$[ebp+27812], eax
  043e6	8b 0d 04 00 00
	00		 mov	 ecx, DWORD PTR ??_C@_0BE@CAMADLJC@data?2se?2saam_23?4wav?$AA@+4
  043ec	89 8d a4 d0 ff
	ff		 mov	 DWORD PTR _sndconfig$[ebp+27816], ecx
  043f2	8b 15 08 00 00
	00		 mov	 edx, DWORD PTR ??_C@_0BE@CAMADLJC@data?2se?2saam_23?4wav?$AA@+8
  043f8	89 95 a8 d0 ff
	ff		 mov	 DWORD PTR _sndconfig$[ebp+27820], edx
  043fe	a1 0c 00 00 00	 mov	 eax, DWORD PTR ??_C@_0BE@CAMADLJC@data?2se?2saam_23?4wav?$AA@+12
  04403	89 85 ac d0 ff
	ff		 mov	 DWORD PTR _sndconfig$[ebp+27824], eax
  04409	8b 0d 10 00 00
	00		 mov	 ecx, DWORD PTR ??_C@_0BE@CAMADLJC@data?2se?2saam_23?4wav?$AA@+16
  0440f	89 8d b0 d0 ff
	ff		 mov	 DWORD PTR _sndconfig$[ebp+27828], ecx
  04415	68 b4 00 00 00	 push	 180			; 000000b4H
  0441a	6a 00		 push	 0
  0441c	8d 85 b4 d0 ff
	ff		 lea	 eax, DWORD PTR _sndconfig$[ebp+27832]
  04422	50		 push	 eax
  04423	e8 00 00 00 00	 call	 _memset
  04428	83 c4 0c	 add	 esp, 12			; 0000000cH
  0442b	c6 85 68 d1 ff
	ff 78		 mov	 BYTE PTR _sndconfig$[ebp+28012], 120 ; 00000078H
  04432	c6 85 69 d1 ff
	ff 00		 mov	 BYTE PTR _sndconfig$[ebp+28013], 0
  04439	c6 85 6a d1 ff
	ff 00		 mov	 BYTE PTR _sndconfig$[ebp+28014], 0

; 160  : 	{  323,"data\\se\\saam_24.wav",120, 0, 0 /*, "风魔法  魔法Lv3-2"*/ },

  04440	b8 43 01 00 00	 mov	 eax, 323		; 00000143H
  04445	66 89 85 6c d1
	ff ff		 mov	 WORD PTR _sndconfig$[ebp+28016], ax
  0444c	a1 00 00 00 00	 mov	 eax, DWORD PTR ??_C@_0BE@DNMFALCK@data?2se?2saam_24?4wav?$AA@
  04451	89 85 6e d1 ff
	ff		 mov	 DWORD PTR _sndconfig$[ebp+28018], eax
  04457	8b 0d 04 00 00
	00		 mov	 ecx, DWORD PTR ??_C@_0BE@DNMFALCK@data?2se?2saam_24?4wav?$AA@+4
  0445d	89 8d 72 d1 ff
	ff		 mov	 DWORD PTR _sndconfig$[ebp+28022], ecx
  04463	8b 15 08 00 00
	00		 mov	 edx, DWORD PTR ??_C@_0BE@DNMFALCK@data?2se?2saam_24?4wav?$AA@+8
  04469	89 95 76 d1 ff
	ff		 mov	 DWORD PTR _sndconfig$[ebp+28026], edx
  0446f	a1 0c 00 00 00	 mov	 eax, DWORD PTR ??_C@_0BE@DNMFALCK@data?2se?2saam_24?4wav?$AA@+12
  04474	89 85 7a d1 ff
	ff		 mov	 DWORD PTR _sndconfig$[ebp+28030], eax
  0447a	8b 0d 10 00 00
	00		 mov	 ecx, DWORD PTR ??_C@_0BE@DNMFALCK@data?2se?2saam_24?4wav?$AA@+16
  04480	89 8d 7e d1 ff
	ff		 mov	 DWORD PTR _sndconfig$[ebp+28034], ecx
  04486	68 b4 00 00 00	 push	 180			; 000000b4H
  0448b	6a 00		 push	 0
  0448d	8d 85 82 d1 ff
	ff		 lea	 eax, DWORD PTR _sndconfig$[ebp+28038]
  04493	50		 push	 eax
  04494	e8 00 00 00 00	 call	 _memset
  04499	83 c4 0c	 add	 esp, 12			; 0000000cH
  0449c	c6 85 36 d2 ff
	ff 78		 mov	 BYTE PTR _sndconfig$[ebp+28218], 120 ; 00000078H
  044a3	c6 85 37 d2 ff
	ff 00		 mov	 BYTE PTR _sndconfig$[ebp+28219], 0
  044aa	c6 85 38 d2 ff
	ff 00		 mov	 BYTE PTR _sndconfig$[ebp+28220], 0

; 161  : 	{  324,"data\\se\\saam_25.wav",120, 0, 0 /*, "风魔法  魔法Lv3-3"*/ },

  044b1	b8 44 01 00 00	 mov	 eax, 324		; 00000144H
  044b6	66 89 85 3a d2
	ff ff		 mov	 WORD PTR _sndconfig$[ebp+28222], ax
  044bd	a1 00 00 00 00	 mov	 eax, DWORD PTR ??_C@_0BE@PGJJNIIP@data?2se?2saam_25?4wav?$AA@
  044c2	89 85 3c d2 ff
	ff		 mov	 DWORD PTR _sndconfig$[ebp+28224], eax
  044c8	8b 0d 04 00 00
	00		 mov	 ecx, DWORD PTR ??_C@_0BE@PGJJNIIP@data?2se?2saam_25?4wav?$AA@+4
  044ce	89 8d 40 d2 ff
	ff		 mov	 DWORD PTR _sndconfig$[ebp+28228], ecx
  044d4	8b 15 08 00 00
	00		 mov	 edx, DWORD PTR ??_C@_0BE@PGJJNIIP@data?2se?2saam_25?4wav?$AA@+8
  044da	89 95 44 d2 ff
	ff		 mov	 DWORD PTR _sndconfig$[ebp+28232], edx
  044e0	a1 0c 00 00 00	 mov	 eax, DWORD PTR ??_C@_0BE@PGJJNIIP@data?2se?2saam_25?4wav?$AA@+12
  044e5	89 85 48 d2 ff
	ff		 mov	 DWORD PTR _sndconfig$[ebp+28236], eax
  044eb	8b 0d 10 00 00
	00		 mov	 ecx, DWORD PTR ??_C@_0BE@PGJJNIIP@data?2se?2saam_25?4wav?$AA@+16
  044f1	89 8d 4c d2 ff
	ff		 mov	 DWORD PTR _sndconfig$[ebp+28240], ecx
  044f7	68 b4 00 00 00	 push	 180			; 000000b4H
  044fc	6a 00		 push	 0
  044fe	8d 85 50 d2 ff
	ff		 lea	 eax, DWORD PTR _sndconfig$[ebp+28244]
  04504	50		 push	 eax
  04505	e8 00 00 00 00	 call	 _memset
  0450a	83 c4 0c	 add	 esp, 12			; 0000000cH
  0450d	c6 85 04 d3 ff
	ff 78		 mov	 BYTE PTR _sndconfig$[ebp+28424], 120 ; 00000078H
  04514	c6 85 05 d3 ff
	ff 00		 mov	 BYTE PTR _sndconfig$[ebp+28425], 0
  0451b	c6 85 06 d3 ff
	ff 00		 mov	 BYTE PTR _sndconfig$[ebp+28426], 0

; 162  : 	{  325,"data\\se\\saam_26.wav",120, 0, 0 /*, "风魔法  魔法Lv4"*/ },

  04522	b8 45 01 00 00	 mov	 eax, 325		; 00000145H
  04527	66 89 85 08 d3
	ff ff		 mov	 WORD PTR _sndconfig$[ebp+28428], ax
  0452e	a1 00 00 00 00	 mov	 eax, DWORD PTR ??_C@_0BE@HAANKKCB@data?2se?2saam_26?4wav?$AA@
  04533	89 85 0a d3 ff
	ff		 mov	 DWORD PTR _sndconfig$[ebp+28430], eax
  04539	8b 0d 04 00 00
	00		 mov	 ecx, DWORD PTR ??_C@_0BE@HAANKKCB@data?2se?2saam_26?4wav?$AA@+4
  0453f	89 8d 0e d3 ff
	ff		 mov	 DWORD PTR _sndconfig$[ebp+28434], ecx
  04545	8b 15 08 00 00
	00		 mov	 edx, DWORD PTR ??_C@_0BE@HAANKKCB@data?2se?2saam_26?4wav?$AA@+8
  0454b	89 95 12 d3 ff
	ff		 mov	 DWORD PTR _sndconfig$[ebp+28438], edx
  04551	a1 0c 00 00 00	 mov	 eax, DWORD PTR ??_C@_0BE@HAANKKCB@data?2se?2saam_26?4wav?$AA@+12
  04556	89 85 16 d3 ff
	ff		 mov	 DWORD PTR _sndconfig$[ebp+28442], eax
  0455c	8b 0d 10 00 00
	00		 mov	 ecx, DWORD PTR ??_C@_0BE@HAANKKCB@data?2se?2saam_26?4wav?$AA@+16
  04562	89 8d 1a d3 ff
	ff		 mov	 DWORD PTR _sndconfig$[ebp+28446], ecx
  04568	68 b4 00 00 00	 push	 180			; 000000b4H
  0456d	6a 00		 push	 0
  0456f	8d 85 1e d3 ff
	ff		 lea	 eax, DWORD PTR _sndconfig$[ebp+28450]
  04575	50		 push	 eax
  04576	e8 00 00 00 00	 call	 _memset
  0457b	83 c4 0c	 add	 esp, 12			; 0000000cH
  0457e	c6 85 d2 d3 ff
	ff 78		 mov	 BYTE PTR _sndconfig$[ebp+28630], 120 ; 00000078H
  04585	c6 85 d3 d3 ff
	ff 00		 mov	 BYTE PTR _sndconfig$[ebp+28631], 0
  0458c	c6 85 d4 d3 ff
	ff 00		 mov	 BYTE PTR _sndconfig$[ebp+28632], 0

; 163  : 	{  326,"data\\se\\saam_27.wav",120, 0, 0 /*, "魔王魔法  魔法Lv5"*/ },

  04593	b8 46 01 00 00	 mov	 eax, 326		; 00000146H
  04598	66 89 85 d6 d3
	ff ff		 mov	 WORD PTR _sndconfig$[ebp+28634], ax
  0459f	a1 00 00 00 00	 mov	 eax, DWORD PTR ??_C@_0BE@LLFBHJIE@data?2se?2saam_27?4wav?$AA@
  045a4	89 85 d8 d3 ff
	ff		 mov	 DWORD PTR _sndconfig$[ebp+28636], eax
  045aa	8b 0d 04 00 00
	00		 mov	 ecx, DWORD PTR ??_C@_0BE@LLFBHJIE@data?2se?2saam_27?4wav?$AA@+4
  045b0	89 8d dc d3 ff
	ff		 mov	 DWORD PTR _sndconfig$[ebp+28640], ecx
  045b6	8b 15 08 00 00
	00		 mov	 edx, DWORD PTR ??_C@_0BE@LLFBHJIE@data?2se?2saam_27?4wav?$AA@+8
  045bc	89 95 e0 d3 ff
	ff		 mov	 DWORD PTR _sndconfig$[ebp+28644], edx
  045c2	a1 0c 00 00 00	 mov	 eax, DWORD PTR ??_C@_0BE@LLFBHJIE@data?2se?2saam_27?4wav?$AA@+12
  045c7	89 85 e4 d3 ff
	ff		 mov	 DWORD PTR _sndconfig$[ebp+28648], eax
  045cd	8b 0d 10 00 00
	00		 mov	 ecx, DWORD PTR ??_C@_0BE@LLFBHJIE@data?2se?2saam_27?4wav?$AA@+16
  045d3	89 8d e8 d3 ff
	ff		 mov	 DWORD PTR _sndconfig$[ebp+28652], ecx
  045d9	68 b4 00 00 00	 push	 180			; 000000b4H
  045de	6a 00		 push	 0
  045e0	8d 85 ec d3 ff
	ff		 lea	 eax, DWORD PTR _sndconfig$[ebp+28656]
  045e6	50		 push	 eax
  045e7	e8 00 00 00 00	 call	 _memset
  045ec	83 c4 0c	 add	 esp, 12			; 0000000cH
  045ef	c6 85 a0 d4 ff
	ff 78		 mov	 BYTE PTR _sndconfig$[ebp+28836], 120 ; 00000078H
  045f6	c6 85 a1 d4 ff
	ff 00		 mov	 BYTE PTR _sndconfig$[ebp+28837], 0
  045fd	c6 85 a2 d4 ff
	ff 00		 mov	 BYTE PTR _sndconfig$[ebp+28838], 0

; 164  : #endif
; 165  : #ifdef _NEWSOUNDEFFECT
; 166  : 	{  327,"data\\se\\sa1_01.wav",120, 0 ,0 } , //世界末日

  04604	b8 47 01 00 00	 mov	 eax, 327		; 00000147H
  04609	66 89 85 a4 d4
	ff ff		 mov	 WORD PTR _sndconfig$[ebp+28840], ax
  04610	a1 00 00 00 00	 mov	 eax, DWORD PTR ??_C@_0BD@GLFFOGOH@data?2se?2sa1_01?4wav?$AA@
  04615	89 85 a6 d4 ff
	ff		 mov	 DWORD PTR _sndconfig$[ebp+28842], eax
  0461b	8b 0d 04 00 00
	00		 mov	 ecx, DWORD PTR ??_C@_0BD@GLFFOGOH@data?2se?2sa1_01?4wav?$AA@+4
  04621	89 8d aa d4 ff
	ff		 mov	 DWORD PTR _sndconfig$[ebp+28846], ecx
  04627	8b 15 08 00 00
	00		 mov	 edx, DWORD PTR ??_C@_0BD@GLFFOGOH@data?2se?2sa1_01?4wav?$AA@+8
  0462d	89 95 ae d4 ff
	ff		 mov	 DWORD PTR _sndconfig$[ebp+28850], edx
  04633	a1 0c 00 00 00	 mov	 eax, DWORD PTR ??_C@_0BD@GLFFOGOH@data?2se?2sa1_01?4wav?$AA@+12
  04638	89 85 b2 d4 ff
	ff		 mov	 DWORD PTR _sndconfig$[ebp+28854], eax
  0463e	66 8b 0d 10 00
	00 00		 mov	 cx, WORD PTR ??_C@_0BD@GLFFOGOH@data?2se?2sa1_01?4wav?$AA@+16
  04645	66 89 8d b6 d4
	ff ff		 mov	 WORD PTR _sndconfig$[ebp+28858], cx
  0464c	8a 15 12 00 00
	00		 mov	 dl, BYTE PTR ??_C@_0BD@GLFFOGOH@data?2se?2sa1_01?4wav?$AA@+18
  04652	88 95 b8 d4 ff
	ff		 mov	 BYTE PTR _sndconfig$[ebp+28860], dl
  04658	68 b5 00 00 00	 push	 181			; 000000b5H
  0465d	6a 00		 push	 0
  0465f	8d 85 b9 d4 ff
	ff		 lea	 eax, DWORD PTR _sndconfig$[ebp+28861]
  04665	50		 push	 eax
  04666	e8 00 00 00 00	 call	 _memset
  0466b	83 c4 0c	 add	 esp, 12			; 0000000cH
  0466e	c6 85 6e d5 ff
	ff 78		 mov	 BYTE PTR _sndconfig$[ebp+29042], 120 ; 00000078H
  04675	c6 85 6f d5 ff
	ff 00		 mov	 BYTE PTR _sndconfig$[ebp+29043], 0
  0467c	c6 85 70 d5 ff
	ff 00		 mov	 BYTE PTR _sndconfig$[ebp+29044], 0

; 167  : 	{  328,"data\\se\\sa1_02.wav",120, 0 ,0 } , //火龙枪

  04683	b8 48 01 00 00	 mov	 eax, 328		; 00000148H
  04688	66 89 85 72 d5
	ff ff		 mov	 WORD PTR _sndconfig$[ebp+29046], ax
  0468f	a1 00 00 00 00	 mov	 eax, DWORD PTR ??_C@_0BD@ONMBJEEJ@data?2se?2sa1_02?4wav?$AA@
  04694	89 85 74 d5 ff
	ff		 mov	 DWORD PTR _sndconfig$[ebp+29048], eax
  0469a	8b 0d 04 00 00
	00		 mov	 ecx, DWORD PTR ??_C@_0BD@ONMBJEEJ@data?2se?2sa1_02?4wav?$AA@+4
  046a0	89 8d 78 d5 ff
	ff		 mov	 DWORD PTR _sndconfig$[ebp+29052], ecx
  046a6	8b 15 08 00 00
	00		 mov	 edx, DWORD PTR ??_C@_0BD@ONMBJEEJ@data?2se?2sa1_02?4wav?$AA@+8
  046ac	89 95 7c d5 ff
	ff		 mov	 DWORD PTR _sndconfig$[ebp+29056], edx
  046b2	a1 0c 00 00 00	 mov	 eax, DWORD PTR ??_C@_0BD@ONMBJEEJ@data?2se?2sa1_02?4wav?$AA@+12
  046b7	89 85 80 d5 ff
	ff		 mov	 DWORD PTR _sndconfig$[ebp+29060], eax
  046bd	66 8b 0d 10 00
	00 00		 mov	 cx, WORD PTR ??_C@_0BD@ONMBJEEJ@data?2se?2sa1_02?4wav?$AA@+16
  046c4	66 89 8d 84 d5
	ff ff		 mov	 WORD PTR _sndconfig$[ebp+29064], cx
  046cb	8a 15 12 00 00
	00		 mov	 dl, BYTE PTR ??_C@_0BD@ONMBJEEJ@data?2se?2sa1_02?4wav?$AA@+18
  046d1	88 95 86 d5 ff
	ff		 mov	 BYTE PTR _sndconfig$[ebp+29066], dl
  046d7	68 b5 00 00 00	 push	 181			; 000000b5H
  046dc	6a 00		 push	 0
  046de	8d 85 87 d5 ff
	ff		 lea	 eax, DWORD PTR _sndconfig$[ebp+29067]
  046e4	50		 push	 eax
  046e5	e8 00 00 00 00	 call	 _memset
  046ea	83 c4 0c	 add	 esp, 12			; 0000000cH
  046ed	c6 85 3c d6 ff
	ff 78		 mov	 BYTE PTR _sndconfig$[ebp+29248], 120 ; 00000078H
  046f4	c6 85 3d d6 ff
	ff 00		 mov	 BYTE PTR _sndconfig$[ebp+29249], 0
  046fb	c6 85 3e d6 ff
	ff 00		 mov	 BYTE PTR _sndconfig$[ebp+29250], 0

; 168  : 	{  371,"data\\se\\sa2_01.wav",120, 0 ,0 } , //回避

  04702	b8 73 01 00 00	 mov	 eax, 371		; 00000173H
  04707	66 89 85 40 d6
	ff ff		 mov	 WORD PTR _sndconfig$[ebp+29252], ax
  0470e	a1 00 00 00 00	 mov	 eax, DWORD PTR ??_C@_0BD@FCNINKCC@data?2se?2sa2_01?4wav?$AA@
  04713	89 85 42 d6 ff
	ff		 mov	 DWORD PTR _sndconfig$[ebp+29254], eax
  04719	8b 0d 04 00 00
	00		 mov	 ecx, DWORD PTR ??_C@_0BD@FCNINKCC@data?2se?2sa2_01?4wav?$AA@+4
  0471f	89 8d 46 d6 ff
	ff		 mov	 DWORD PTR _sndconfig$[ebp+29258], ecx
  04725	8b 15 08 00 00
	00		 mov	 edx, DWORD PTR ??_C@_0BD@FCNINKCC@data?2se?2sa2_01?4wav?$AA@+8
  0472b	89 95 4a d6 ff
	ff		 mov	 DWORD PTR _sndconfig$[ebp+29262], edx
  04731	a1 0c 00 00 00	 mov	 eax, DWORD PTR ??_C@_0BD@FCNINKCC@data?2se?2sa2_01?4wav?$AA@+12
  04736	89 85 4e d6 ff
	ff		 mov	 DWORD PTR _sndconfig$[ebp+29266], eax
  0473c	66 8b 0d 10 00
	00 00		 mov	 cx, WORD PTR ??_C@_0BD@FCNINKCC@data?2se?2sa2_01?4wav?$AA@+16
  04743	66 89 8d 52 d6
	ff ff		 mov	 WORD PTR _sndconfig$[ebp+29270], cx
  0474a	8a 15 12 00 00
	00		 mov	 dl, BYTE PTR ??_C@_0BD@FCNINKCC@data?2se?2sa2_01?4wav?$AA@+18
  04750	88 95 54 d6 ff
	ff		 mov	 BYTE PTR _sndconfig$[ebp+29272], dl
  04756	68 b5 00 00 00	 push	 181			; 000000b5H
  0475b	6a 00		 push	 0
  0475d	8d 85 55 d6 ff
	ff		 lea	 eax, DWORD PTR _sndconfig$[ebp+29273]
  04763	50		 push	 eax
  04764	e8 00 00 00 00	 call	 _memset
  04769	83 c4 0c	 add	 esp, 12			; 0000000cH
  0476c	c6 85 0a d7 ff
	ff 78		 mov	 BYTE PTR _sndconfig$[ebp+29454], 120 ; 00000078H
  04773	c6 85 0b d7 ff
	ff 00		 mov	 BYTE PTR _sndconfig$[ebp+29455], 0
  0477a	c6 85 0c d7 ff
	ff 00		 mov	 BYTE PTR _sndconfig$[ebp+29456], 0

; 169  : 	{  372,"data\\se\\sa2_02.wav",120, 0 ,0 } , //激化攻击

  04781	b8 74 01 00 00	 mov	 eax, 372		; 00000174H
  04786	66 89 85 0e d7
	ff ff		 mov	 WORD PTR _sndconfig$[ebp+29458], ax
  0478d	a1 00 00 00 00	 mov	 eax, DWORD PTR ??_C@_0BD@NEEMKIIM@data?2se?2sa2_02?4wav?$AA@
  04792	89 85 10 d7 ff
	ff		 mov	 DWORD PTR _sndconfig$[ebp+29460], eax
  04798	8b 0d 04 00 00
	00		 mov	 ecx, DWORD PTR ??_C@_0BD@NEEMKIIM@data?2se?2sa2_02?4wav?$AA@+4
  0479e	89 8d 14 d7 ff
	ff		 mov	 DWORD PTR _sndconfig$[ebp+29464], ecx
  047a4	8b 15 08 00 00
	00		 mov	 edx, DWORD PTR ??_C@_0BD@NEEMKIIM@data?2se?2sa2_02?4wav?$AA@+8
  047aa	89 95 18 d7 ff
	ff		 mov	 DWORD PTR _sndconfig$[ebp+29468], edx
  047b0	a1 0c 00 00 00	 mov	 eax, DWORD PTR ??_C@_0BD@NEEMKIIM@data?2se?2sa2_02?4wav?$AA@+12
  047b5	89 85 1c d7 ff
	ff		 mov	 DWORD PTR _sndconfig$[ebp+29472], eax
  047bb	66 8b 0d 10 00
	00 00		 mov	 cx, WORD PTR ??_C@_0BD@NEEMKIIM@data?2se?2sa2_02?4wav?$AA@+16
  047c2	66 89 8d 20 d7
	ff ff		 mov	 WORD PTR _sndconfig$[ebp+29476], cx
  047c9	8a 15 12 00 00
	00		 mov	 dl, BYTE PTR ??_C@_0BD@NEEMKIIM@data?2se?2sa2_02?4wav?$AA@+18
  047cf	88 95 22 d7 ff
	ff		 mov	 BYTE PTR _sndconfig$[ebp+29478], dl
  047d5	68 b5 00 00 00	 push	 181			; 000000b5H
  047da	6a 00		 push	 0
  047dc	8d 85 23 d7 ff
	ff		 lea	 eax, DWORD PTR _sndconfig$[ebp+29479]
  047e2	50		 push	 eax
  047e3	e8 00 00 00 00	 call	 _memset
  047e8	83 c4 0c	 add	 esp, 12			; 0000000cH
  047eb	c6 85 d8 d7 ff
	ff 78		 mov	 BYTE PTR _sndconfig$[ebp+29660], 120 ; 00000078H
  047f2	c6 85 d9 d7 ff
	ff 00		 mov	 BYTE PTR _sndconfig$[ebp+29661], 0
  047f9	c6 85 da d7 ff
	ff 00		 mov	 BYTE PTR _sndconfig$[ebp+29662], 0

; 170  : 	{  373,"data\\se\\sa2_03.wav",120, 0 ,0 } , //能量聚集

  04800	b8 75 01 00 00	 mov	 eax, 373		; 00000175H
  04805	66 89 85 dc d7
	ff ff		 mov	 WORD PTR _sndconfig$[ebp+29664], ax
  0480c	a1 00 00 00 00	 mov	 eax, DWORD PTR ??_C@_0BD@BPBAHLCJ@data?2se?2sa2_03?4wav?$AA@
  04811	89 85 de d7 ff
	ff		 mov	 DWORD PTR _sndconfig$[ebp+29666], eax
  04817	8b 0d 04 00 00
	00		 mov	 ecx, DWORD PTR ??_C@_0BD@BPBAHLCJ@data?2se?2sa2_03?4wav?$AA@+4
  0481d	89 8d e2 d7 ff
	ff		 mov	 DWORD PTR _sndconfig$[ebp+29670], ecx
  04823	8b 15 08 00 00
	00		 mov	 edx, DWORD PTR ??_C@_0BD@BPBAHLCJ@data?2se?2sa2_03?4wav?$AA@+8
  04829	89 95 e6 d7 ff
	ff		 mov	 DWORD PTR _sndconfig$[ebp+29674], edx
  0482f	a1 0c 00 00 00	 mov	 eax, DWORD PTR ??_C@_0BD@BPBAHLCJ@data?2se?2sa2_03?4wav?$AA@+12
  04834	89 85 ea d7 ff
	ff		 mov	 DWORD PTR _sndconfig$[ebp+29678], eax
  0483a	66 8b 0d 10 00
	00 00		 mov	 cx, WORD PTR ??_C@_0BD@BPBAHLCJ@data?2se?2sa2_03?4wav?$AA@+16
  04841	66 89 8d ee d7
	ff ff		 mov	 WORD PTR _sndconfig$[ebp+29682], cx
  04848	8a 15 12 00 00
	00		 mov	 dl, BYTE PTR ??_C@_0BD@BPBAHLCJ@data?2se?2sa2_03?4wav?$AA@+18
  0484e	88 95 f0 d7 ff
	ff		 mov	 BYTE PTR _sndconfig$[ebp+29684], dl
  04854	68 b5 00 00 00	 push	 181			; 000000b5H
  04859	6a 00		 push	 0
  0485b	8d 85 f1 d7 ff
	ff		 lea	 eax, DWORD PTR _sndconfig$[ebp+29685]
  04861	50		 push	 eax
  04862	e8 00 00 00 00	 call	 _memset
  04867	83 c4 0c	 add	 esp, 12			; 0000000cH
  0486a	c6 85 a6 d8 ff
	ff 78		 mov	 BYTE PTR _sndconfig$[ebp+29866], 120 ; 00000078H
  04871	c6 85 a7 d8 ff
	ff 00		 mov	 BYTE PTR _sndconfig$[ebp+29867], 0
  04878	c6 85 a8 d8 ff
	ff 00		 mov	 BYTE PTR _sndconfig$[ebp+29868], 0

; 171  : 	{  374,"data\\se\\sa2_04.wav",120, 0 ,0 } , //专注战斗

  0487f	b8 76 01 00 00	 mov	 eax, 374		; 00000176H
  04884	66 89 85 aa d8
	ff ff		 mov	 WORD PTR _sndconfig$[ebp+29870], ax
  0488b	a1 00 00 00 00	 mov	 eax, DWORD PTR ??_C@_0BD@CBFELJB@data?2se?2sa2_04?4wav?$AA@
  04890	89 85 ac d8 ff
	ff		 mov	 DWORD PTR _sndconfig$[ebp+29872], eax
  04896	8b 0d 04 00 00
	00		 mov	 ecx, DWORD PTR ??_C@_0BD@CBFELJB@data?2se?2sa2_04?4wav?$AA@+4
  0489c	89 8d b0 d8 ff
	ff		 mov	 DWORD PTR _sndconfig$[ebp+29876], ecx
  048a2	8b 15 08 00 00
	00		 mov	 edx, DWORD PTR ??_C@_0BD@CBFELJB@data?2se?2sa2_04?4wav?$AA@+8
  048a8	89 95 b4 d8 ff
	ff		 mov	 DWORD PTR _sndconfig$[ebp+29880], edx
  048ae	a1 0c 00 00 00	 mov	 eax, DWORD PTR ??_C@_0BD@CBFELJB@data?2se?2sa2_04?4wav?$AA@+12
  048b3	89 85 b8 d8 ff
	ff		 mov	 DWORD PTR _sndconfig$[ebp+29884], eax
  048b9	66 8b 0d 10 00
	00 00		 mov	 cx, WORD PTR ??_C@_0BD@CBFELJB@data?2se?2sa2_04?4wav?$AA@+16
  048c0	66 89 8d bc d8
	ff ff		 mov	 WORD PTR _sndconfig$[ebp+29888], cx
  048c7	8a 15 12 00 00
	00		 mov	 dl, BYTE PTR ??_C@_0BD@CBFELJB@data?2se?2sa2_04?4wav?$AA@+18
  048cd	88 95 be d8 ff
	ff		 mov	 BYTE PTR _sndconfig$[ebp+29890], dl
  048d3	68 b5 00 00 00	 push	 181			; 000000b5H
  048d8	6a 00		 push	 0
  048da	8d 85 bf d8 ff
	ff		 lea	 eax, DWORD PTR _sndconfig$[ebp+29891]
  048e0	50		 push	 eax
  048e1	e8 00 00 00 00	 call	 _memset
  048e6	83 c4 0c	 add	 esp, 12			; 0000000cH
  048e9	c6 85 74 d9 ff
	ff 78		 mov	 BYTE PTR _sndconfig$[ebp+30072], 120 ; 00000078H
  048f0	c6 85 75 d9 ff
	ff 00		 mov	 BYTE PTR _sndconfig$[ebp+30073], 0
  048f7	c6 85 76 d9 ff
	ff 00		 mov	 BYTE PTR _sndconfig$[ebp+30074], 0

; 172  : 	{  375,"data\\se\\sa2_05.wav",120, 0 ,0 } , //濒死攻击

  048fe	b8 77 01 00 00	 mov	 eax, 375		; 00000177H
  04903	66 89 85 78 d9
	ff ff		 mov	 WORD PTR _sndconfig$[ebp+30076], ax
  0490a	a1 00 00 00 00	 mov	 eax, DWORD PTR ??_C@_0BD@MJEJJIDE@data?2se?2sa2_05?4wav?$AA@
  0490f	89 85 7a d9 ff
	ff		 mov	 DWORD PTR _sndconfig$[ebp+30078], eax
  04915	8b 0d 04 00 00
	00		 mov	 ecx, DWORD PTR ??_C@_0BD@MJEJJIDE@data?2se?2sa2_05?4wav?$AA@+4
  0491b	89 8d 7e d9 ff
	ff		 mov	 DWORD PTR _sndconfig$[ebp+30082], ecx
  04921	8b 15 08 00 00
	00		 mov	 edx, DWORD PTR ??_C@_0BD@MJEJJIDE@data?2se?2sa2_05?4wav?$AA@+8
  04927	89 95 82 d9 ff
	ff		 mov	 DWORD PTR _sndconfig$[ebp+30086], edx
  0492d	a1 0c 00 00 00	 mov	 eax, DWORD PTR ??_C@_0BD@MJEJJIDE@data?2se?2sa2_05?4wav?$AA@+12
  04932	89 85 86 d9 ff
	ff		 mov	 DWORD PTR _sndconfig$[ebp+30090], eax
  04938	66 8b 0d 10 00
	00 00		 mov	 cx, WORD PTR ??_C@_0BD@MJEJJIDE@data?2se?2sa2_05?4wav?$AA@+16
  0493f	66 89 8d 8a d9
	ff ff		 mov	 WORD PTR _sndconfig$[ebp+30094], cx
  04946	8a 15 12 00 00
	00		 mov	 dl, BYTE PTR ??_C@_0BD@MJEJJIDE@data?2se?2sa2_05?4wav?$AA@+18
  0494c	88 95 8c d9 ff
	ff		 mov	 BYTE PTR _sndconfig$[ebp+30096], dl
  04952	68 b5 00 00 00	 push	 181			; 000000b5H
  04957	6a 00		 push	 0
  04959	8d 85 8d d9 ff
	ff		 lea	 eax, DWORD PTR _sndconfig$[ebp+30097]
  0495f	50		 push	 eax
  04960	e8 00 00 00 00	 call	 _memset
  04965	83 c4 0c	 add	 esp, 12			; 0000000cH
  04968	c6 85 42 da ff
	ff 78		 mov	 BYTE PTR _sndconfig$[ebp+30278], 120 ; 00000078H
  0496f	c6 85 43 da ff
	ff 00		 mov	 BYTE PTR _sndconfig$[ebp+30279], 0
  04976	c6 85 44 da ff
	ff 00		 mov	 BYTE PTR _sndconfig$[ebp+30280], 0

; 173  : 	{  376,"data\\se\\sa2_06.wav",120, 0, 0 } , //勇士技能攻击命中十字光

  0497d	b8 78 01 00 00	 mov	 eax, 376		; 00000178H
  04982	66 89 85 46 da
	ff ff		 mov	 WORD PTR _sndconfig$[ebp+30282], ax
  04989	a1 00 00 00 00	 mov	 eax, DWORD PTR ??_C@_0BD@EPNNOKJK@data?2se?2sa2_06?4wav?$AA@
  0498e	89 85 48 da ff
	ff		 mov	 DWORD PTR _sndconfig$[ebp+30284], eax
  04994	8b 0d 04 00 00
	00		 mov	 ecx, DWORD PTR ??_C@_0BD@EPNNOKJK@data?2se?2sa2_06?4wav?$AA@+4
  0499a	89 8d 4c da ff
	ff		 mov	 DWORD PTR _sndconfig$[ebp+30288], ecx
  049a0	8b 15 08 00 00
	00		 mov	 edx, DWORD PTR ??_C@_0BD@EPNNOKJK@data?2se?2sa2_06?4wav?$AA@+8
  049a6	89 95 50 da ff
	ff		 mov	 DWORD PTR _sndconfig$[ebp+30292], edx
  049ac	a1 0c 00 00 00	 mov	 eax, DWORD PTR ??_C@_0BD@EPNNOKJK@data?2se?2sa2_06?4wav?$AA@+12
  049b1	89 85 54 da ff
	ff		 mov	 DWORD PTR _sndconfig$[ebp+30296], eax
  049b7	66 8b 0d 10 00
	00 00		 mov	 cx, WORD PTR ??_C@_0BD@EPNNOKJK@data?2se?2sa2_06?4wav?$AA@+16
  049be	66 89 8d 58 da
	ff ff		 mov	 WORD PTR _sndconfig$[ebp+30300], cx
  049c5	8a 15 12 00 00
	00		 mov	 dl, BYTE PTR ??_C@_0BD@EPNNOKJK@data?2se?2sa2_06?4wav?$AA@+18
  049cb	88 95 5a da ff
	ff		 mov	 BYTE PTR _sndconfig$[ebp+30302], dl
  049d1	68 b5 00 00 00	 push	 181			; 000000b5H
  049d6	6a 00		 push	 0
  049d8	8d 85 5b da ff
	ff		 lea	 eax, DWORD PTR _sndconfig$[ebp+30303]
  049de	50		 push	 eax
  049df	e8 00 00 00 00	 call	 _memset
  049e4	83 c4 0c	 add	 esp, 12			; 0000000cH
  049e7	c6 85 10 db ff
	ff 78		 mov	 BYTE PTR _sndconfig$[ebp+30484], 120 ; 00000078H
  049ee	c6 85 11 db ff
	ff 00		 mov	 BYTE PTR _sndconfig$[ebp+30485], 0
  049f5	c6 85 12 db ff
	ff 00		 mov	 BYTE PTR _sndconfig$[ebp+30486], 0

; 174  : 	{  377,"data\\se\\sa2_07.wav",120, 0, 0 } , //贯穿攻击1

  049fc	b8 79 01 00 00	 mov	 eax, 377		; 00000179H
  04a01	66 89 85 14 db
	ff ff		 mov	 WORD PTR _sndconfig$[ebp+30488], ax
  04a08	a1 00 00 00 00	 mov	 eax, DWORD PTR ??_C@_0BD@IEIBDJDP@data?2se?2sa2_07?4wav?$AA@
  04a0d	89 85 16 db ff
	ff		 mov	 DWORD PTR _sndconfig$[ebp+30490], eax
  04a13	8b 0d 04 00 00
	00		 mov	 ecx, DWORD PTR ??_C@_0BD@IEIBDJDP@data?2se?2sa2_07?4wav?$AA@+4
  04a19	89 8d 1a db ff
	ff		 mov	 DWORD PTR _sndconfig$[ebp+30494], ecx
  04a1f	8b 15 08 00 00
	00		 mov	 edx, DWORD PTR ??_C@_0BD@IEIBDJDP@data?2se?2sa2_07?4wav?$AA@+8
  04a25	89 95 1e db ff
	ff		 mov	 DWORD PTR _sndconfig$[ebp+30498], edx
  04a2b	a1 0c 00 00 00	 mov	 eax, DWORD PTR ??_C@_0BD@IEIBDJDP@data?2se?2sa2_07?4wav?$AA@+12
  04a30	89 85 22 db ff
	ff		 mov	 DWORD PTR _sndconfig$[ebp+30502], eax
  04a36	66 8b 0d 10 00
	00 00		 mov	 cx, WORD PTR ??_C@_0BD@IEIBDJDP@data?2se?2sa2_07?4wav?$AA@+16
  04a3d	66 89 8d 26 db
	ff ff		 mov	 WORD PTR _sndconfig$[ebp+30506], cx
  04a44	8a 15 12 00 00
	00		 mov	 dl, BYTE PTR ??_C@_0BD@IEIBDJDP@data?2se?2sa2_07?4wav?$AA@+18
  04a4a	88 95 28 db ff
	ff		 mov	 BYTE PTR _sndconfig$[ebp+30508], dl
  04a50	68 b5 00 00 00	 push	 181			; 000000b5H
  04a55	6a 00		 push	 0
  04a57	8d 85 29 db ff
	ff		 lea	 eax, DWORD PTR _sndconfig$[ebp+30509]
  04a5d	50		 push	 eax
  04a5e	e8 00 00 00 00	 call	 _memset
  04a63	83 c4 0c	 add	 esp, 12			; 0000000cH
  04a66	c6 85 de db ff
	ff 78		 mov	 BYTE PTR _sndconfig$[ebp+30690], 120 ; 00000078H
  04a6d	c6 85 df db ff
	ff 00		 mov	 BYTE PTR _sndconfig$[ebp+30691], 0
  04a74	c6 85 e0 db ff
	ff 00		 mov	 BYTE PTR _sndconfig$[ebp+30692], 0

; 175  : 	{  378,"data\\se\\sa2_08.wav",120, 0, 0 } , //贯穿攻击2

  04a7b	b8 7a 01 00 00	 mov	 eax, 378		; 0000017aH
  04a80	66 89 85 e2 db
	ff ff		 mov	 WORD PTR _sndconfig$[ebp+30694], ax
  04a87	a1 00 00 00 00	 mov	 eax, DWORD PTR ??_C@_0BD@HFNHILOK@data?2se?2sa2_08?4wav?$AA@
  04a8c	89 85 e4 db ff
	ff		 mov	 DWORD PTR _sndconfig$[ebp+30696], eax
  04a92	8b 0d 04 00 00
	00		 mov	 ecx, DWORD PTR ??_C@_0BD@HFNHILOK@data?2se?2sa2_08?4wav?$AA@+4
  04a98	89 8d e8 db ff
	ff		 mov	 DWORD PTR _sndconfig$[ebp+30700], ecx
  04a9e	8b 15 08 00 00
	00		 mov	 edx, DWORD PTR ??_C@_0BD@HFNHILOK@data?2se?2sa2_08?4wav?$AA@+8
  04aa4	89 95 ec db ff
	ff		 mov	 DWORD PTR _sndconfig$[ebp+30704], edx
  04aaa	a1 0c 00 00 00	 mov	 eax, DWORD PTR ??_C@_0BD@HFNHILOK@data?2se?2sa2_08?4wav?$AA@+12
  04aaf	89 85 f0 db ff
	ff		 mov	 DWORD PTR _sndconfig$[ebp+30708], eax
  04ab5	66 8b 0d 10 00
	00 00		 mov	 cx, WORD PTR ??_C@_0BD@HFNHILOK@data?2se?2sa2_08?4wav?$AA@+16
  04abc	66 89 8d f4 db
	ff ff		 mov	 WORD PTR _sndconfig$[ebp+30712], cx
  04ac3	8a 15 12 00 00
	00		 mov	 dl, BYTE PTR ??_C@_0BD@HFNHILOK@data?2se?2sa2_08?4wav?$AA@+18
  04ac9	88 95 f6 db ff
	ff		 mov	 BYTE PTR _sndconfig$[ebp+30714], dl
  04acf	68 b5 00 00 00	 push	 181			; 000000b5H
  04ad4	6a 00		 push	 0
  04ad6	8d 85 f7 db ff
	ff		 lea	 eax, DWORD PTR _sndconfig$[ebp+30715]
  04adc	50		 push	 eax
  04add	e8 00 00 00 00	 call	 _memset
  04ae2	83 c4 0c	 add	 esp, 12			; 0000000cH
  04ae5	c6 85 ac dc ff
	ff 78		 mov	 BYTE PTR _sndconfig$[ebp+30896], 120 ; 00000078H
  04aec	c6 85 ad dc ff
	ff 00		 mov	 BYTE PTR _sndconfig$[ebp+30897], 0
  04af3	c6 85 ae dc ff
	ff 00		 mov	 BYTE PTR _sndconfig$[ebp+30898], 0

; 176  : 	{  379,"data\\se\\sa2_09.wav",120, 0, 0 } , //回旋攻击1

  04afa	b8 7b 01 00 00	 mov	 eax, 379		; 0000017bH
  04aff	66 89 85 b0 dc
	ff ff		 mov	 WORD PTR _sndconfig$[ebp+30900], ax
  04b06	a1 00 00 00 00	 mov	 eax, DWORD PTR ??_C@_0BD@LOILFIEP@data?2se?2sa2_09?4wav?$AA@
  04b0b	89 85 b2 dc ff
	ff		 mov	 DWORD PTR _sndconfig$[ebp+30902], eax
  04b11	8b 0d 04 00 00
	00		 mov	 ecx, DWORD PTR ??_C@_0BD@LOILFIEP@data?2se?2sa2_09?4wav?$AA@+4
  04b17	89 8d b6 dc ff
	ff		 mov	 DWORD PTR _sndconfig$[ebp+30906], ecx
  04b1d	8b 15 08 00 00
	00		 mov	 edx, DWORD PTR ??_C@_0BD@LOILFIEP@data?2se?2sa2_09?4wav?$AA@+8
  04b23	89 95 ba dc ff
	ff		 mov	 DWORD PTR _sndconfig$[ebp+30910], edx
  04b29	a1 0c 00 00 00	 mov	 eax, DWORD PTR ??_C@_0BD@LOILFIEP@data?2se?2sa2_09?4wav?$AA@+12
  04b2e	89 85 be dc ff
	ff		 mov	 DWORD PTR _sndconfig$[ebp+30914], eax
  04b34	66 8b 0d 10 00
	00 00		 mov	 cx, WORD PTR ??_C@_0BD@LOILFIEP@data?2se?2sa2_09?4wav?$AA@+16
  04b3b	66 89 8d c2 dc
	ff ff		 mov	 WORD PTR _sndconfig$[ebp+30918], cx
  04b42	8a 15 12 00 00
	00		 mov	 dl, BYTE PTR ??_C@_0BD@LOILFIEP@data?2se?2sa2_09?4wav?$AA@+18
  04b48	88 95 c4 dc ff
	ff		 mov	 BYTE PTR _sndconfig$[ebp+30920], dl
  04b4e	68 b5 00 00 00	 push	 181			; 000000b5H
  04b53	6a 00		 push	 0
  04b55	8d 85 c5 dc ff
	ff		 lea	 eax, DWORD PTR _sndconfig$[ebp+30921]
  04b5b	50		 push	 eax
  04b5c	e8 00 00 00 00	 call	 _memset
  04b61	83 c4 0c	 add	 esp, 12			; 0000000cH
  04b64	c6 85 7a dd ff
	ff 78		 mov	 BYTE PTR _sndconfig$[ebp+31102], 120 ; 00000078H
  04b6b	c6 85 7b dd ff
	ff 00		 mov	 BYTE PTR _sndconfig$[ebp+31103], 0
  04b72	c6 85 7c dd ff
	ff 00		 mov	 BYTE PTR _sndconfig$[ebp+31104], 0

; 177  : 	{  380,"data\\se\\sa2_10.wav",120, 0, 0 } , //回旋攻击2

  04b79	b8 7c 01 00 00	 mov	 eax, 380		; 0000017cH
  04b7e	66 89 85 7e dd
	ff ff		 mov	 WORD PTR _sndconfig$[ebp+31106], ax
  04b85	a1 00 00 00 00	 mov	 eax, DWORD PTR ??_C@_0BD@DPPDACDD@data?2se?2sa2_10?4wav?$AA@
  04b8a	89 85 80 dd ff
	ff		 mov	 DWORD PTR _sndconfig$[ebp+31108], eax
  04b90	8b 0d 04 00 00
	00		 mov	 ecx, DWORD PTR ??_C@_0BD@DPPDACDD@data?2se?2sa2_10?4wav?$AA@+4
  04b96	89 8d 84 dd ff
	ff		 mov	 DWORD PTR _sndconfig$[ebp+31112], ecx
  04b9c	8b 15 08 00 00
	00		 mov	 edx, DWORD PTR ??_C@_0BD@DPPDACDD@data?2se?2sa2_10?4wav?$AA@+8
  04ba2	89 95 88 dd ff
	ff		 mov	 DWORD PTR _sndconfig$[ebp+31116], edx
  04ba8	a1 0c 00 00 00	 mov	 eax, DWORD PTR ??_C@_0BD@DPPDACDD@data?2se?2sa2_10?4wav?$AA@+12
  04bad	89 85 8c dd ff
	ff		 mov	 DWORD PTR _sndconfig$[ebp+31120], eax
  04bb3	66 8b 0d 10 00
	00 00		 mov	 cx, WORD PTR ??_C@_0BD@DPPDACDD@data?2se?2sa2_10?4wav?$AA@+16
  04bba	66 89 8d 90 dd
	ff ff		 mov	 WORD PTR _sndconfig$[ebp+31124], cx
  04bc1	8a 15 12 00 00
	00		 mov	 dl, BYTE PTR ??_C@_0BD@DPPDACDD@data?2se?2sa2_10?4wav?$AA@+18
  04bc7	88 95 92 dd ff
	ff		 mov	 BYTE PTR _sndconfig$[ebp+31126], dl
  04bcd	68 b5 00 00 00	 push	 181			; 000000b5H
  04bd2	6a 00		 push	 0
  04bd4	8d 85 93 dd ff
	ff		 lea	 eax, DWORD PTR _sndconfig$[ebp+31127]
  04bda	50		 push	 eax
  04bdb	e8 00 00 00 00	 call	 _memset
  04be0	83 c4 0c	 add	 esp, 12			; 0000000cH
  04be3	c6 85 48 de ff
	ff 78		 mov	 BYTE PTR _sndconfig$[ebp+31308], 120 ; 00000078H
  04bea	c6 85 49 de ff
	ff 00		 mov	 BYTE PTR _sndconfig$[ebp+31309], 0
  04bf1	c6 85 4a de ff
	ff 00		 mov	 BYTE PTR _sndconfig$[ebp+31310], 0

; 178  : 	{  381,"data\\se\\sa3_01.wav",120, 0, 0 } , //追寻敌踪

  04bf8	b8 7d 01 00 00	 mov	 eax, 381		; 0000017dH
  04bfd	66 89 85 4c de
	ff ff		 mov	 WORD PTR _sndconfig$[ebp+31312], ax
  04c04	a1 00 00 00 00	 mov	 eax, DWORD PTR ??_C@_0BD@EFKDMOGB@data?2se?2sa3_01?4wav?$AA@
  04c09	89 85 4e de ff
	ff		 mov	 DWORD PTR _sndconfig$[ebp+31314], eax
  04c0f	8b 0d 04 00 00
	00		 mov	 ecx, DWORD PTR ??_C@_0BD@EFKDMOGB@data?2se?2sa3_01?4wav?$AA@+4
  04c15	89 8d 52 de ff
	ff		 mov	 DWORD PTR _sndconfig$[ebp+31318], ecx
  04c1b	8b 15 08 00 00
	00		 mov	 edx, DWORD PTR ??_C@_0BD@EFKDMOGB@data?2se?2sa3_01?4wav?$AA@+8
  04c21	89 95 56 de ff
	ff		 mov	 DWORD PTR _sndconfig$[ebp+31322], edx
  04c27	a1 0c 00 00 00	 mov	 eax, DWORD PTR ??_C@_0BD@EFKDMOGB@data?2se?2sa3_01?4wav?$AA@+12
  04c2c	89 85 5a de ff
	ff		 mov	 DWORD PTR _sndconfig$[ebp+31326], eax
  04c32	66 8b 0d 10 00
	00 00		 mov	 cx, WORD PTR ??_C@_0BD@EFKDMOGB@data?2se?2sa3_01?4wav?$AA@+16
  04c39	66 89 8d 5e de
	ff ff		 mov	 WORD PTR _sndconfig$[ebp+31330], cx
  04c40	8a 15 12 00 00
	00		 mov	 dl, BYTE PTR ??_C@_0BD@EFKDMOGB@data?2se?2sa3_01?4wav?$AA@+18
  04c46	88 95 60 de ff
	ff		 mov	 BYTE PTR _sndconfig$[ebp+31332], dl
  04c4c	68 b5 00 00 00	 push	 181			; 000000b5H
  04c51	6a 00		 push	 0
  04c53	8d 85 61 de ff
	ff		 lea	 eax, DWORD PTR _sndconfig$[ebp+31333]
  04c59	50		 push	 eax
  04c5a	e8 00 00 00 00	 call	 _memset
  04c5f	83 c4 0c	 add	 esp, 12			; 0000000cH
  04c62	c6 85 16 df ff
	ff 78		 mov	 BYTE PTR _sndconfig$[ebp+31514], 120 ; 00000078H
  04c69	c6 85 17 df ff
	ff 00		 mov	 BYTE PTR _sndconfig$[ebp+31515], 0
  04c70	c6 85 18 df ff
	ff 00		 mov	 BYTE PTR _sndconfig$[ebp+31516], 0

; 179  : 	{  382,"data\\se\\sa3_02.wav",120, 0, 0 } , //树根缠绕

  04c77	b8 7e 01 00 00	 mov	 eax, 382		; 0000017eH
  04c7c	66 89 85 1a df
	ff ff		 mov	 WORD PTR _sndconfig$[ebp+31518], ax
  04c83	a1 00 00 00 00	 mov	 eax, DWORD PTR ??_C@_0BD@MDDHLMMP@data?2se?2sa3_02?4wav?$AA@
  04c88	89 85 1c df ff
	ff		 mov	 DWORD PTR _sndconfig$[ebp+31520], eax
  04c8e	8b 0d 04 00 00
	00		 mov	 ecx, DWORD PTR ??_C@_0BD@MDDHLMMP@data?2se?2sa3_02?4wav?$AA@+4
  04c94	89 8d 20 df ff
	ff		 mov	 DWORD PTR _sndconfig$[ebp+31524], ecx
  04c9a	8b 15 08 00 00
	00		 mov	 edx, DWORD PTR ??_C@_0BD@MDDHLMMP@data?2se?2sa3_02?4wav?$AA@+8
  04ca0	89 95 24 df ff
	ff		 mov	 DWORD PTR _sndconfig$[ebp+31528], edx
  04ca6	a1 0c 00 00 00	 mov	 eax, DWORD PTR ??_C@_0BD@MDDHLMMP@data?2se?2sa3_02?4wav?$AA@+12
  04cab	89 85 28 df ff
	ff		 mov	 DWORD PTR _sndconfig$[ebp+31532], eax
  04cb1	66 8b 0d 10 00
	00 00		 mov	 cx, WORD PTR ??_C@_0BD@MDDHLMMP@data?2se?2sa3_02?4wav?$AA@+16
  04cb8	66 89 8d 2c df
	ff ff		 mov	 WORD PTR _sndconfig$[ebp+31536], cx
  04cbf	8a 15 12 00 00
	00		 mov	 dl, BYTE PTR ??_C@_0BD@MDDHLMMP@data?2se?2sa3_02?4wav?$AA@+18
  04cc5	88 95 2e df ff
	ff		 mov	 BYTE PTR _sndconfig$[ebp+31538], dl
  04ccb	68 b5 00 00 00	 push	 181			; 000000b5H
  04cd0	6a 00		 push	 0
  04cd2	8d 85 2f df ff
	ff		 lea	 eax, DWORD PTR _sndconfig$[ebp+31539]
  04cd8	50		 push	 eax
  04cd9	e8 00 00 00 00	 call	 _memset
  04cde	83 c4 0c	 add	 esp, 12			; 0000000cH
  04ce1	c6 85 e4 df ff
	ff 78		 mov	 BYTE PTR _sndconfig$[ebp+31720], 120 ; 00000078H
  04ce8	c6 85 e5 df ff
	ff 00		 mov	 BYTE PTR _sndconfig$[ebp+31721], 0
  04cef	c6 85 e6 df ff
	ff 00		 mov	 BYTE PTR _sndconfig$[ebp+31722], 0

; 180  : 	{  383,"data\\se\\sa3_03.wav",120, 0, 0 } , //毒素武器

  04cf6	b8 7f 01 00 00	 mov	 eax, 383		; 0000017fH
  04cfb	66 89 85 e8 df
	ff ff		 mov	 WORD PTR _sndconfig$[ebp+31724], ax
  04d02	a1 00 00 00 00	 mov	 eax, DWORD PTR ??_C@_0BD@IGLGPGK@data?2se?2sa3_03?4wav?$AA@
  04d07	89 85 ea df ff
	ff		 mov	 DWORD PTR _sndconfig$[ebp+31726], eax
  04d0d	8b 0d 04 00 00
	00		 mov	 ecx, DWORD PTR ??_C@_0BD@IGLGPGK@data?2se?2sa3_03?4wav?$AA@+4
  04d13	89 8d ee df ff
	ff		 mov	 DWORD PTR _sndconfig$[ebp+31730], ecx
  04d19	8b 15 08 00 00
	00		 mov	 edx, DWORD PTR ??_C@_0BD@IGLGPGK@data?2se?2sa3_03?4wav?$AA@+8
  04d1f	89 95 f2 df ff
	ff		 mov	 DWORD PTR _sndconfig$[ebp+31734], edx
  04d25	a1 0c 00 00 00	 mov	 eax, DWORD PTR ??_C@_0BD@IGLGPGK@data?2se?2sa3_03?4wav?$AA@+12
  04d2a	89 85 f6 df ff
	ff		 mov	 DWORD PTR _sndconfig$[ebp+31738], eax
  04d30	66 8b 0d 10 00
	00 00		 mov	 cx, WORD PTR ??_C@_0BD@IGLGPGK@data?2se?2sa3_03?4wav?$AA@+16
  04d37	66 89 8d fa df
	ff ff		 mov	 WORD PTR _sndconfig$[ebp+31742], cx
  04d3e	8a 15 12 00 00
	00		 mov	 dl, BYTE PTR ??_C@_0BD@IGLGPGK@data?2se?2sa3_03?4wav?$AA@+18
  04d44	88 95 fc df ff
	ff		 mov	 BYTE PTR _sndconfig$[ebp+31744], dl
  04d4a	68 b5 00 00 00	 push	 181			; 000000b5H
  04d4f	6a 00		 push	 0
  04d51	8d 85 fd df ff
	ff		 lea	 eax, DWORD PTR _sndconfig$[ebp+31745]
  04d57	50		 push	 eax
  04d58	e8 00 00 00 00	 call	 _memset
  04d5d	83 c4 0c	 add	 esp, 12			; 0000000cH
  04d60	c6 85 b2 e0 ff
	ff 78		 mov	 BYTE PTR _sndconfig$[ebp+31926], 120 ; 00000078H
  04d67	c6 85 b3 e0 ff
	ff 00		 mov	 BYTE PTR _sndconfig$[ebp+31927], 0
  04d6e	c6 85 b4 e0 ff
	ff 00		 mov	 BYTE PTR _sndconfig$[ebp+31928], 0

; 181  : 	{  384,"data\\se\\sa3_04.wav",120, 0, 0 } , //冰冻抗性

  04d75	b8 80 01 00 00	 mov	 eax, 384		; 00000180H
  04d7a	66 89 85 b6 e0
	ff ff		 mov	 WORD PTR _sndconfig$[ebp+31930], ax
  04d81	a1 00 00 00 00	 mov	 eax, DWORD PTR ??_C@_0BD@BFGOFPNC@data?2se?2sa3_04?4wav?$AA@
  04d86	89 85 b8 e0 ff
	ff		 mov	 DWORD PTR _sndconfig$[ebp+31932], eax
  04d8c	8b 0d 04 00 00
	00		 mov	 ecx, DWORD PTR ??_C@_0BD@BFGOFPNC@data?2se?2sa3_04?4wav?$AA@+4
  04d92	89 8d bc e0 ff
	ff		 mov	 DWORD PTR _sndconfig$[ebp+31936], ecx
  04d98	8b 15 08 00 00
	00		 mov	 edx, DWORD PTR ??_C@_0BD@BFGOFPNC@data?2se?2sa3_04?4wav?$AA@+8
  04d9e	89 95 c0 e0 ff
	ff		 mov	 DWORD PTR _sndconfig$[ebp+31940], edx
  04da4	a1 0c 00 00 00	 mov	 eax, DWORD PTR ??_C@_0BD@BFGOFPNC@data?2se?2sa3_04?4wav?$AA@+12
  04da9	89 85 c4 e0 ff
	ff		 mov	 DWORD PTR _sndconfig$[ebp+31944], eax
  04daf	66 8b 0d 10 00
	00 00		 mov	 cx, WORD PTR ??_C@_0BD@BFGOFPNC@data?2se?2sa3_04?4wav?$AA@+16
  04db6	66 89 8d c8 e0
	ff ff		 mov	 WORD PTR _sndconfig$[ebp+31948], cx
  04dbd	8a 15 12 00 00
	00		 mov	 dl, BYTE PTR ??_C@_0BD@BFGOFPNC@data?2se?2sa3_04?4wav?$AA@+18
  04dc3	88 95 ca e0 ff
	ff		 mov	 BYTE PTR _sndconfig$[ebp+31950], dl
  04dc9	68 b5 00 00 00	 push	 181			; 000000b5H
  04dce	6a 00		 push	 0
  04dd0	8d 85 cb e0 ff
	ff		 lea	 eax, DWORD PTR _sndconfig$[ebp+31951]
  04dd6	50		 push	 eax
  04dd7	e8 00 00 00 00	 call	 _memset
  04ddc	83 c4 0c	 add	 esp, 12			; 0000000cH
  04ddf	c6 85 80 e1 ff
	ff 78		 mov	 BYTE PTR _sndconfig$[ebp+32132], 120 ; 00000078H
  04de6	c6 85 81 e1 ff
	ff 00		 mov	 BYTE PTR _sndconfig$[ebp+32133], 0
  04ded	c6 85 82 e1 ff
	ff 00		 mov	 BYTE PTR _sndconfig$[ebp+32134], 0

; 182  : 	{  385,"data\\se\\sa3_05.wav",120, 0, 0 } , //雷电抗性

  04df4	b8 81 01 00 00	 mov	 eax, 385		; 00000181H
  04df9	66 89 85 84 e1
	ff ff		 mov	 WORD PTR _sndconfig$[ebp+32136], ax
  04e00	a1 00 00 00 00	 mov	 eax, DWORD PTR ??_C@_0BD@NODCIMHH@data?2se?2sa3_05?4wav?$AA@
  04e05	89 85 86 e1 ff
	ff		 mov	 DWORD PTR _sndconfig$[ebp+32138], eax
  04e0b	8b 0d 04 00 00
	00		 mov	 ecx, DWORD PTR ??_C@_0BD@NODCIMHH@data?2se?2sa3_05?4wav?$AA@+4
  04e11	89 8d 8a e1 ff
	ff		 mov	 DWORD PTR _sndconfig$[ebp+32142], ecx
  04e17	8b 15 08 00 00
	00		 mov	 edx, DWORD PTR ??_C@_0BD@NODCIMHH@data?2se?2sa3_05?4wav?$AA@+8
  04e1d	89 95 8e e1 ff
	ff		 mov	 DWORD PTR _sndconfig$[ebp+32146], edx
  04e23	a1 0c 00 00 00	 mov	 eax, DWORD PTR ??_C@_0BD@NODCIMHH@data?2se?2sa3_05?4wav?$AA@+12
  04e28	89 85 92 e1 ff
	ff		 mov	 DWORD PTR _sndconfig$[ebp+32150], eax
  04e2e	66 8b 0d 10 00
	00 00		 mov	 cx, WORD PTR ??_C@_0BD@NODCIMHH@data?2se?2sa3_05?4wav?$AA@+16
  04e35	66 89 8d 96 e1
	ff ff		 mov	 WORD PTR _sndconfig$[ebp+32154], cx
  04e3c	8a 15 12 00 00
	00		 mov	 dl, BYTE PTR ??_C@_0BD@NODCIMHH@data?2se?2sa3_05?4wav?$AA@+18
  04e42	88 95 98 e1 ff
	ff		 mov	 BYTE PTR _sndconfig$[ebp+32156], dl
  04e48	68 b5 00 00 00	 push	 181			; 000000b5H
  04e4d	6a 00		 push	 0
  04e4f	8d 85 99 e1 ff
	ff		 lea	 eax, DWORD PTR _sndconfig$[ebp+32157]
  04e55	50		 push	 eax
  04e56	e8 00 00 00 00	 call	 _memset
  04e5b	83 c4 0c	 add	 esp, 12			; 0000000cH
  04e5e	c6 85 4e e2 ff
	ff 78		 mov	 BYTE PTR _sndconfig$[ebp+32338], 120 ; 00000078H
  04e65	c6 85 4f e2 ff
	ff 00		 mov	 BYTE PTR _sndconfig$[ebp+32339], 0
  04e6c	c6 85 50 e2 ff
	ff 00		 mov	 BYTE PTR _sndconfig$[ebp+32340], 0

; 183  : 	{  386,"data\\se\\sa3_06.wav",120, 0, 0 } , //火焰抗性放

  04e73	b8 82 01 00 00	 mov	 eax, 386		; 00000182H
  04e78	66 89 85 52 e2
	ff ff		 mov	 WORD PTR _sndconfig$[ebp+32342], ax
  04e7f	a1 00 00 00 00	 mov	 eax, DWORD PTR ??_C@_0BD@FIKGPONJ@data?2se?2sa3_06?4wav?$AA@
  04e84	89 85 54 e2 ff
	ff		 mov	 DWORD PTR _sndconfig$[ebp+32344], eax
  04e8a	8b 0d 04 00 00
	00		 mov	 ecx, DWORD PTR ??_C@_0BD@FIKGPONJ@data?2se?2sa3_06?4wav?$AA@+4
  04e90	89 8d 58 e2 ff
	ff		 mov	 DWORD PTR _sndconfig$[ebp+32348], ecx
  04e96	8b 15 08 00 00
	00		 mov	 edx, DWORD PTR ??_C@_0BD@FIKGPONJ@data?2se?2sa3_06?4wav?$AA@+8
  04e9c	89 95 5c e2 ff
	ff		 mov	 DWORD PTR _sndconfig$[ebp+32352], edx
  04ea2	a1 0c 00 00 00	 mov	 eax, DWORD PTR ??_C@_0BD@FIKGPONJ@data?2se?2sa3_06?4wav?$AA@+12
  04ea7	89 85 60 e2 ff
	ff		 mov	 DWORD PTR _sndconfig$[ebp+32356], eax
  04ead	66 8b 0d 10 00
	00 00		 mov	 cx, WORD PTR ??_C@_0BD@FIKGPONJ@data?2se?2sa3_06?4wav?$AA@+16
  04eb4	66 89 8d 64 e2
	ff ff		 mov	 WORD PTR _sndconfig$[ebp+32360], cx
  04ebb	8a 15 12 00 00
	00		 mov	 dl, BYTE PTR ??_C@_0BD@FIKGPONJ@data?2se?2sa3_06?4wav?$AA@+18
  04ec1	88 95 66 e2 ff
	ff		 mov	 BYTE PTR _sndconfig$[ebp+32362], dl
  04ec7	68 b5 00 00 00	 push	 181			; 000000b5H
  04ecc	6a 00		 push	 0
  04ece	8d 85 67 e2 ff
	ff		 lea	 eax, DWORD PTR _sndconfig$[ebp+32363]
  04ed4	50		 push	 eax
  04ed5	e8 00 00 00 00	 call	 _memset
  04eda	83 c4 0c	 add	 esp, 12			; 0000000cH
  04edd	c6 85 1c e3 ff
	ff 78		 mov	 BYTE PTR _sndconfig$[ebp+32544], 120 ; 00000078H
  04ee4	c6 85 1d e3 ff
	ff 00		 mov	 BYTE PTR _sndconfig$[ebp+32545], 0
  04eeb	c6 85 1e e3 ff
	ff 00		 mov	 BYTE PTR _sndconfig$[ebp+32546], 0

; 184  : 	{  387,"data\\se\\sa3_07.wav",120, 0, 0 } , //火焰抗性中

  04ef2	b8 83 01 00 00	 mov	 eax, 387		; 00000183H
  04ef7	66 89 85 20 e3
	ff ff		 mov	 WORD PTR _sndconfig$[ebp+32548], ax
  04efe	a1 00 00 00 00	 mov	 eax, DWORD PTR ??_C@_0BD@JDPKCNHM@data?2se?2sa3_07?4wav?$AA@
  04f03	89 85 22 e3 ff
	ff		 mov	 DWORD PTR _sndconfig$[ebp+32550], eax
  04f09	8b 0d 04 00 00
	00		 mov	 ecx, DWORD PTR ??_C@_0BD@JDPKCNHM@data?2se?2sa3_07?4wav?$AA@+4
  04f0f	89 8d 26 e3 ff
	ff		 mov	 DWORD PTR _sndconfig$[ebp+32554], ecx
  04f15	8b 15 08 00 00
	00		 mov	 edx, DWORD PTR ??_C@_0BD@JDPKCNHM@data?2se?2sa3_07?4wav?$AA@+8
  04f1b	89 95 2a e3 ff
	ff		 mov	 DWORD PTR _sndconfig$[ebp+32558], edx
  04f21	a1 0c 00 00 00	 mov	 eax, DWORD PTR ??_C@_0BD@JDPKCNHM@data?2se?2sa3_07?4wav?$AA@+12
  04f26	89 85 2e e3 ff
	ff		 mov	 DWORD PTR _sndconfig$[ebp+32562], eax
  04f2c	66 8b 0d 10 00
	00 00		 mov	 cx, WORD PTR ??_C@_0BD@JDPKCNHM@data?2se?2sa3_07?4wav?$AA@+16
  04f33	66 89 8d 32 e3
	ff ff		 mov	 WORD PTR _sndconfig$[ebp+32566], cx
  04f3a	8a 15 12 00 00
	00		 mov	 dl, BYTE PTR ??_C@_0BD@JDPKCNHM@data?2se?2sa3_07?4wav?$AA@+18
  04f40	88 95 34 e3 ff
	ff		 mov	 BYTE PTR _sndconfig$[ebp+32568], dl
  04f46	68 b5 00 00 00	 push	 181			; 000000b5H
  04f4b	6a 00		 push	 0
  04f4d	8d 85 35 e3 ff
	ff		 lea	 eax, DWORD PTR _sndconfig$[ebp+32569]
  04f53	50		 push	 eax
  04f54	e8 00 00 00 00	 call	 _memset
  04f59	83 c4 0c	 add	 esp, 12			; 0000000cH
  04f5c	c6 85 ea e3 ff
	ff 78		 mov	 BYTE PTR _sndconfig$[ebp+32750], 120 ; 00000078H
  04f63	c6 85 eb e3 ff
	ff 00		 mov	 BYTE PTR _sndconfig$[ebp+32751], 0
  04f6a	c6 85 ec e3 ff
	ff 00		 mov	 BYTE PTR _sndconfig$[ebp+32752], 0

; 185  : 	{  388,"data\\se\\sa1_03.wav",120, 0, 0 } , //电流术

  04f71	b8 84 01 00 00	 mov	 eax, 388		; 00000184H
  04f76	66 89 85 ee e3
	ff ff		 mov	 WORD PTR _sndconfig$[ebp+32754], ax
  04f7d	a1 00 00 00 00	 mov	 eax, DWORD PTR ??_C@_0BD@CGJNEHOM@data?2se?2sa1_03?4wav?$AA@
  04f82	89 85 f0 e3 ff
	ff		 mov	 DWORD PTR _sndconfig$[ebp+32756], eax
  04f88	8b 0d 04 00 00
	00		 mov	 ecx, DWORD PTR ??_C@_0BD@CGJNEHOM@data?2se?2sa1_03?4wav?$AA@+4
  04f8e	89 8d f4 e3 ff
	ff		 mov	 DWORD PTR _sndconfig$[ebp+32760], ecx
  04f94	8b 15 08 00 00
	00		 mov	 edx, DWORD PTR ??_C@_0BD@CGJNEHOM@data?2se?2sa1_03?4wav?$AA@+8
  04f9a	89 95 f8 e3 ff
	ff		 mov	 DWORD PTR _sndconfig$[ebp+32764], edx
  04fa0	a1 0c 00 00 00	 mov	 eax, DWORD PTR ??_C@_0BD@CGJNEHOM@data?2se?2sa1_03?4wav?$AA@+12
  04fa5	89 85 fc e3 ff
	ff		 mov	 DWORD PTR _sndconfig$[ebp+32768], eax
  04fab	66 8b 0d 10 00
	00 00		 mov	 cx, WORD PTR ??_C@_0BD@CGJNEHOM@data?2se?2sa1_03?4wav?$AA@+16
  04fb2	66 89 8d 00 e4
	ff ff		 mov	 WORD PTR _sndconfig$[ebp+32772], cx
  04fb9	8a 15 12 00 00
	00		 mov	 dl, BYTE PTR ??_C@_0BD@CGJNEHOM@data?2se?2sa1_03?4wav?$AA@+18
  04fbf	88 95 02 e4 ff
	ff		 mov	 BYTE PTR _sndconfig$[ebp+32774], dl
  04fc5	68 b5 00 00 00	 push	 181			; 000000b5H
  04fca	6a 00		 push	 0
  04fcc	8d 85 03 e4 ff
	ff		 lea	 eax, DWORD PTR _sndconfig$[ebp+32775]
  04fd2	50		 push	 eax
  04fd3	e8 00 00 00 00	 call	 _memset
  04fd8	83 c4 0c	 add	 esp, 12			; 0000000cH
  04fdb	c6 85 b8 e4 ff
	ff 78		 mov	 BYTE PTR _sndconfig$[ebp+32956], 120 ; 00000078H
  04fe2	c6 85 b9 e4 ff
	ff 00		 mov	 BYTE PTR _sndconfig$[ebp+32957], 0
  04fe9	c6 85 ba e4 ff
	ff 00		 mov	 BYTE PTR _sndconfig$[ebp+32958], 0

; 186  : 	{  389,"data\\se\\sa1_04.wav",120, 0, 0 } , //召雷术

  04ff0	b8 85 01 00 00	 mov	 eax, 389		; 00000185H
  04ff5	66 89 85 bc e4
	ff ff		 mov	 WORD PTR _sndconfig$[ebp+32960], ax
  04ffc	a1 00 00 00 00	 mov	 eax, DWORD PTR ??_C@_0BD@DLJIHHFE@data?2se?2sa1_04?4wav?$AA@
  05001	89 85 be e4 ff
	ff		 mov	 DWORD PTR _sndconfig$[ebp+32962], eax
  05007	8b 0d 04 00 00
	00		 mov	 ecx, DWORD PTR ??_C@_0BD@DLJIHHFE@data?2se?2sa1_04?4wav?$AA@+4
  0500d	89 8d c2 e4 ff
	ff		 mov	 DWORD PTR _sndconfig$[ebp+32966], ecx
  05013	8b 15 08 00 00
	00		 mov	 edx, DWORD PTR ??_C@_0BD@DLJIHHFE@data?2se?2sa1_04?4wav?$AA@+8
  05019	89 95 c6 e4 ff
	ff		 mov	 DWORD PTR _sndconfig$[ebp+32970], edx
  0501f	a1 0c 00 00 00	 mov	 eax, DWORD PTR ??_C@_0BD@DLJIHHFE@data?2se?2sa1_04?4wav?$AA@+12
  05024	89 85 ca e4 ff
	ff		 mov	 DWORD PTR _sndconfig$[ebp+32974], eax
  0502a	66 8b 0d 10 00
	00 00		 mov	 cx, WORD PTR ??_C@_0BD@DLJIHHFE@data?2se?2sa1_04?4wav?$AA@+16
  05031	66 89 8d ce e4
	ff ff		 mov	 WORD PTR _sndconfig$[ebp+32978], cx
  05038	8a 15 12 00 00
	00		 mov	 dl, BYTE PTR ??_C@_0BD@DLJIHHFE@data?2se?2sa1_04?4wav?$AA@+18
  0503e	88 95 d0 e4 ff
	ff		 mov	 BYTE PTR _sndconfig$[ebp+32980], dl
  05044	68 b5 00 00 00	 push	 181			; 000000b5H
  05049	6a 00		 push	 0
  0504b	8d 85 d1 e4 ff
	ff		 lea	 eax, DWORD PTR _sndconfig$[ebp+32981]
  05051	50		 push	 eax
  05052	e8 00 00 00 00	 call	 _memset
  05057	83 c4 0c	 add	 esp, 12			; 0000000cH
  0505a	c6 85 86 e5 ff
	ff 78		 mov	 BYTE PTR _sndconfig$[ebp+33162], 120 ; 00000078H
  05061	c6 85 87 e5 ff
	ff 00		 mov	 BYTE PTR _sndconfig$[ebp+33163], 0
  05068	c6 85 88 e5 ff
	ff 00		 mov	 BYTE PTR _sndconfig$[ebp+33164], 0

; 187  : 	{  390,"data\\se\\sa1_05.wav",120, 0, 0 } , //暴风雨大

  0506f	b8 86 01 00 00	 mov	 eax, 390		; 00000186H
  05074	66 89 85 8a e5
	ff ff		 mov	 WORD PTR _sndconfig$[ebp+33166], ax
  0507b	a1 00 00 00 00	 mov	 eax, DWORD PTR ??_C@_0BD@PAMEKEPB@data?2se?2sa1_05?4wav?$AA@
  05080	89 85 8c e5 ff
	ff		 mov	 DWORD PTR _sndconfig$[ebp+33168], eax
  05086	8b 0d 04 00 00
	00		 mov	 ecx, DWORD PTR ??_C@_0BD@PAMEKEPB@data?2se?2sa1_05?4wav?$AA@+4
  0508c	89 8d 90 e5 ff
	ff		 mov	 DWORD PTR _sndconfig$[ebp+33172], ecx
  05092	8b 15 08 00 00
	00		 mov	 edx, DWORD PTR ??_C@_0BD@PAMEKEPB@data?2se?2sa1_05?4wav?$AA@+8
  05098	89 95 94 e5 ff
	ff		 mov	 DWORD PTR _sndconfig$[ebp+33176], edx
  0509e	a1 0c 00 00 00	 mov	 eax, DWORD PTR ??_C@_0BD@PAMEKEPB@data?2se?2sa1_05?4wav?$AA@+12
  050a3	89 85 98 e5 ff
	ff		 mov	 DWORD PTR _sndconfig$[ebp+33180], eax
  050a9	66 8b 0d 10 00
	00 00		 mov	 cx, WORD PTR ??_C@_0BD@PAMEKEPB@data?2se?2sa1_05?4wav?$AA@+16
  050b0	66 89 8d 9c e5
	ff ff		 mov	 WORD PTR _sndconfig$[ebp+33184], cx
  050b7	8a 15 12 00 00
	00		 mov	 dl, BYTE PTR ??_C@_0BD@PAMEKEPB@data?2se?2sa1_05?4wav?$AA@+18
  050bd	88 95 9e e5 ff
	ff		 mov	 BYTE PTR _sndconfig$[ebp+33186], dl
  050c3	68 b5 00 00 00	 push	 181			; 000000b5H
  050c8	6a 00		 push	 0
  050ca	8d 85 9f e5 ff
	ff		 lea	 eax, DWORD PTR _sndconfig$[ebp+33187]
  050d0	50		 push	 eax
  050d1	e8 00 00 00 00	 call	 _memset
  050d6	83 c4 0c	 add	 esp, 12			; 0000000cH
  050d9	c6 85 54 e6 ff
	ff 78		 mov	 BYTE PTR _sndconfig$[ebp+33368], 120 ; 00000078H
  050e0	c6 85 55 e6 ff
	ff 00		 mov	 BYTE PTR _sndconfig$[ebp+33369], 0
  050e7	c6 85 56 e6 ff
	ff 00		 mov	 BYTE PTR _sndconfig$[ebp+33370], 0

; 188  : 	{  391,"data\\se\\sa1_06.wav",120, 0, 0 } , //冰箭术

  050ee	b8 87 01 00 00	 mov	 eax, 391		; 00000187H
  050f3	66 89 85 58 e6
	ff ff		 mov	 WORD PTR _sndconfig$[ebp+33372], ax
  050fa	a1 00 00 00 00	 mov	 eax, DWORD PTR ??_C@_0BD@HGFANGFP@data?2se?2sa1_06?4wav?$AA@
  050ff	89 85 5a e6 ff
	ff		 mov	 DWORD PTR _sndconfig$[ebp+33374], eax
  05105	8b 0d 04 00 00
	00		 mov	 ecx, DWORD PTR ??_C@_0BD@HGFANGFP@data?2se?2sa1_06?4wav?$AA@+4
  0510b	89 8d 5e e6 ff
	ff		 mov	 DWORD PTR _sndconfig$[ebp+33378], ecx
  05111	8b 15 08 00 00
	00		 mov	 edx, DWORD PTR ??_C@_0BD@HGFANGFP@data?2se?2sa1_06?4wav?$AA@+8
  05117	89 95 62 e6 ff
	ff		 mov	 DWORD PTR _sndconfig$[ebp+33382], edx
  0511d	a1 0c 00 00 00	 mov	 eax, DWORD PTR ??_C@_0BD@HGFANGFP@data?2se?2sa1_06?4wav?$AA@+12
  05122	89 85 66 e6 ff
	ff		 mov	 DWORD PTR _sndconfig$[ebp+33386], eax
  05128	66 8b 0d 10 00
	00 00		 mov	 cx, WORD PTR ??_C@_0BD@HGFANGFP@data?2se?2sa1_06?4wav?$AA@+16
  0512f	66 89 8d 6a e6
	ff ff		 mov	 WORD PTR _sndconfig$[ebp+33390], cx
  05136	8a 15 12 00 00
	00		 mov	 dl, BYTE PTR ??_C@_0BD@HGFANGFP@data?2se?2sa1_06?4wav?$AA@+18
  0513c	88 95 6c e6 ff
	ff		 mov	 BYTE PTR _sndconfig$[ebp+33392], dl
  05142	68 b5 00 00 00	 push	 181			; 000000b5H
  05147	6a 00		 push	 0
  05149	8d 85 6d e6 ff
	ff		 lea	 eax, DWORD PTR _sndconfig$[ebp+33393]
  0514f	50		 push	 eax
  05150	e8 00 00 00 00	 call	 _memset
  05155	83 c4 0c	 add	 esp, 12			; 0000000cH
  05158	c6 85 22 e7 ff
	ff 78		 mov	 BYTE PTR _sndconfig$[ebp+33574], 120 ; 00000078H
  0515f	c6 85 23 e7 ff
	ff 00		 mov	 BYTE PTR _sndconfig$[ebp+33575], 0
  05166	c6 85 24 e7 ff
	ff 00		 mov	 BYTE PTR _sndconfig$[ebp+33576], 0

; 189  : 	{  392,"data\\se\\sa1_07.wav",120, 0, 0 } , //冰爆术

  0516d	b8 88 01 00 00	 mov	 eax, 392		; 00000188H
  05172	66 89 85 26 e7
	ff ff		 mov	 WORD PTR _sndconfig$[ebp+33578], ax
  05179	a1 00 00 00 00	 mov	 eax, DWORD PTR ??_C@_0BD@LNAMAFPK@data?2se?2sa1_07?4wav?$AA@
  0517e	89 85 28 e7 ff
	ff		 mov	 DWORD PTR _sndconfig$[ebp+33580], eax
  05184	8b 0d 04 00 00
	00		 mov	 ecx, DWORD PTR ??_C@_0BD@LNAMAFPK@data?2se?2sa1_07?4wav?$AA@+4
  0518a	89 8d 2c e7 ff
	ff		 mov	 DWORD PTR _sndconfig$[ebp+33584], ecx
  05190	8b 15 08 00 00
	00		 mov	 edx, DWORD PTR ??_C@_0BD@LNAMAFPK@data?2se?2sa1_07?4wav?$AA@+8
  05196	89 95 30 e7 ff
	ff		 mov	 DWORD PTR _sndconfig$[ebp+33588], edx
  0519c	a1 0c 00 00 00	 mov	 eax, DWORD PTR ??_C@_0BD@LNAMAFPK@data?2se?2sa1_07?4wav?$AA@+12
  051a1	89 85 34 e7 ff
	ff		 mov	 DWORD PTR _sndconfig$[ebp+33592], eax
  051a7	66 8b 0d 10 00
	00 00		 mov	 cx, WORD PTR ??_C@_0BD@LNAMAFPK@data?2se?2sa1_07?4wav?$AA@+16
  051ae	66 89 8d 38 e7
	ff ff		 mov	 WORD PTR _sndconfig$[ebp+33596], cx
  051b5	8a 15 12 00 00
	00		 mov	 dl, BYTE PTR ??_C@_0BD@LNAMAFPK@data?2se?2sa1_07?4wav?$AA@+18
  051bb	88 95 3a e7 ff
	ff		 mov	 BYTE PTR _sndconfig$[ebp+33598], dl
  051c1	68 b5 00 00 00	 push	 181			; 000000b5H
  051c6	6a 00		 push	 0
  051c8	8d 85 3b e7 ff
	ff		 lea	 eax, DWORD PTR _sndconfig$[ebp+33599]
  051ce	50		 push	 eax
  051cf	e8 00 00 00 00	 call	 _memset
  051d4	83 c4 0c	 add	 esp, 12			; 0000000cH
  051d7	c6 85 f0 e7 ff
	ff 78		 mov	 BYTE PTR _sndconfig$[ebp+33780], 120 ; 00000078H
  051de	c6 85 f1 e7 ff
	ff 00		 mov	 BYTE PTR _sndconfig$[ebp+33781], 0
  051e5	c6 85 f2 e7 ff
	ff 00		 mov	 BYTE PTR _sndconfig$[ebp+33782], 0

; 190  : 	{  393,"data\\se\\sa1_08.wav",120, 0, 0 } , //冰镜术

  051ec	b8 89 01 00 00	 mov	 eax, 393		; 00000189H
  051f1	66 89 85 f4 e7
	ff ff		 mov	 WORD PTR _sndconfig$[ebp+33784], ax
  051f8	a1 00 00 00 00	 mov	 eax, DWORD PTR ??_C@_0BD@EMFKLHCP@data?2se?2sa1_08?4wav?$AA@
  051fd	89 85 f6 e7 ff
	ff		 mov	 DWORD PTR _sndconfig$[ebp+33786], eax
  05203	8b 0d 04 00 00
	00		 mov	 ecx, DWORD PTR ??_C@_0BD@EMFKLHCP@data?2se?2sa1_08?4wav?$AA@+4
  05209	89 8d fa e7 ff
	ff		 mov	 DWORD PTR _sndconfig$[ebp+33790], ecx
  0520f	8b 15 08 00 00
	00		 mov	 edx, DWORD PTR ??_C@_0BD@EMFKLHCP@data?2se?2sa1_08?4wav?$AA@+8
  05215	89 95 fe e7 ff
	ff		 mov	 DWORD PTR _sndconfig$[ebp+33794], edx
  0521b	a1 0c 00 00 00	 mov	 eax, DWORD PTR ??_C@_0BD@EMFKLHCP@data?2se?2sa1_08?4wav?$AA@+12
  05220	89 85 02 e8 ff
	ff		 mov	 DWORD PTR _sndconfig$[ebp+33798], eax
  05226	66 8b 0d 10 00
	00 00		 mov	 cx, WORD PTR ??_C@_0BD@EMFKLHCP@data?2se?2sa1_08?4wav?$AA@+16
  0522d	66 89 8d 06 e8
	ff ff		 mov	 WORD PTR _sndconfig$[ebp+33802], cx
  05234	8a 15 12 00 00
	00		 mov	 dl, BYTE PTR ??_C@_0BD@EMFKLHCP@data?2se?2sa1_08?4wav?$AA@+18
  0523a	88 95 08 e8 ff
	ff		 mov	 BYTE PTR _sndconfig$[ebp+33804], dl
  05240	68 b5 00 00 00	 push	 181			; 000000b5H
  05245	6a 00		 push	 0
  05247	8d 85 09 e8 ff
	ff		 lea	 eax, DWORD PTR _sndconfig$[ebp+33805]
  0524d	50		 push	 eax
  0524e	e8 00 00 00 00	 call	 _memset
  05253	83 c4 0c	 add	 esp, 12			; 0000000cH
  05256	c6 85 be e8 ff
	ff 78		 mov	 BYTE PTR _sndconfig$[ebp+33986], 120 ; 00000078H
  0525d	c6 85 bf e8 ff
	ff 00		 mov	 BYTE PTR _sndconfig$[ebp+33987], 0
  05264	c6 85 c0 e8 ff
	ff 00		 mov	 BYTE PTR _sndconfig$[ebp+33988], 0

; 191  : 	{  394,"data\\se\\sa1_09.wav",120, 0, 0 } , //暴风雨小

  0526b	b8 8a 01 00 00	 mov	 eax, 394		; 0000018aH
  05270	66 89 85 c2 e8
	ff ff		 mov	 WORD PTR _sndconfig$[ebp+33990], ax
  05277	a1 00 00 00 00	 mov	 eax, DWORD PTR ??_C@_0BD@IHAGGEIK@data?2se?2sa1_09?4wav?$AA@
  0527c	89 85 c4 e8 ff
	ff		 mov	 DWORD PTR _sndconfig$[ebp+33992], eax
  05282	8b 0d 04 00 00
	00		 mov	 ecx, DWORD PTR ??_C@_0BD@IHAGGEIK@data?2se?2sa1_09?4wav?$AA@+4
  05288	89 8d c8 e8 ff
	ff		 mov	 DWORD PTR _sndconfig$[ebp+33996], ecx
  0528e	8b 15 08 00 00
	00		 mov	 edx, DWORD PTR ??_C@_0BD@IHAGGEIK@data?2se?2sa1_09?4wav?$AA@+8
  05294	89 95 cc e8 ff
	ff		 mov	 DWORD PTR _sndconfig$[ebp+34000], edx
  0529a	a1 0c 00 00 00	 mov	 eax, DWORD PTR ??_C@_0BD@IHAGGEIK@data?2se?2sa1_09?4wav?$AA@+12
  0529f	89 85 d0 e8 ff
	ff		 mov	 DWORD PTR _sndconfig$[ebp+34004], eax
  052a5	66 8b 0d 10 00
	00 00		 mov	 cx, WORD PTR ??_C@_0BD@IHAGGEIK@data?2se?2sa1_09?4wav?$AA@+16
  052ac	66 89 8d d4 e8
	ff ff		 mov	 WORD PTR _sndconfig$[ebp+34008], cx
  052b3	8a 15 12 00 00
	00		 mov	 dl, BYTE PTR ??_C@_0BD@IHAGGEIK@data?2se?2sa1_09?4wav?$AA@+18
  052b9	88 95 d6 e8 ff
	ff		 mov	 BYTE PTR _sndconfig$[ebp+34010], dl
  052bf	68 b5 00 00 00	 push	 181			; 000000b5H
  052c4	6a 00		 push	 0
  052c6	8d 85 d7 e8 ff
	ff		 lea	 eax, DWORD PTR _sndconfig$[ebp+34011]
  052cc	50		 push	 eax
  052cd	e8 00 00 00 00	 call	 _memset
  052d2	83 c4 0c	 add	 esp, 12			; 0000000cH
  052d5	c6 85 8c e9 ff
	ff 78		 mov	 BYTE PTR _sndconfig$[ebp+34192], 120 ; 00000078H
  052dc	c6 85 8d e9 ff
	ff 00		 mov	 BYTE PTR _sndconfig$[ebp+34193], 0
  052e3	c6 85 8e e9 ff
	ff 00		 mov	 BYTE PTR _sndconfig$[ebp+34194], 0

; 192  : 	{  395,"data\\se\\sa1_10.wav",120, 0, 0 } , //火山泉大

  052ea	b8 8b 01 00 00	 mov	 eax, 395		; 0000018bH
  052ef	66 89 85 90 e9
	ff ff		 mov	 WORD PTR _sndconfig$[ebp+34196], ax
  052f6	a1 00 00 00 00	 mov	 eax, DWORD PTR ??_C@_0BD@GHODOPG@data?2se?2sa1_10?4wav?$AA@
  052fb	89 85 92 e9 ff
	ff		 mov	 DWORD PTR _sndconfig$[ebp+34198], eax
  05301	8b 0d 04 00 00
	00		 mov	 ecx, DWORD PTR ??_C@_0BD@GHODOPG@data?2se?2sa1_10?4wav?$AA@+4
  05307	89 8d 96 e9 ff
	ff		 mov	 DWORD PTR _sndconfig$[ebp+34202], ecx
  0530d	8b 15 08 00 00
	00		 mov	 edx, DWORD PTR ??_C@_0BD@GHODOPG@data?2se?2sa1_10?4wav?$AA@+8
  05313	89 95 9a e9 ff
	ff		 mov	 DWORD PTR _sndconfig$[ebp+34206], edx
  05319	a1 0c 00 00 00	 mov	 eax, DWORD PTR ??_C@_0BD@GHODOPG@data?2se?2sa1_10?4wav?$AA@+12
  0531e	89 85 9e e9 ff
	ff		 mov	 DWORD PTR _sndconfig$[ebp+34210], eax
  05324	66 8b 0d 10 00
	00 00		 mov	 cx, WORD PTR ??_C@_0BD@GHODOPG@data?2se?2sa1_10?4wav?$AA@+16
  0532b	66 89 8d a2 e9
	ff ff		 mov	 WORD PTR _sndconfig$[ebp+34214], cx
  05332	8a 15 12 00 00
	00		 mov	 dl, BYTE PTR ??_C@_0BD@GHODOPG@data?2se?2sa1_10?4wav?$AA@+18
  05338	88 95 a4 e9 ff
	ff		 mov	 BYTE PTR _sndconfig$[ebp+34216], dl
  0533e	68 b5 00 00 00	 push	 181			; 000000b5H
  05343	6a 00		 push	 0
  05345	8d 85 a5 e9 ff
	ff		 lea	 eax, DWORD PTR _sndconfig$[ebp+34217]
  0534b	50		 push	 eax
  0534c	e8 00 00 00 00	 call	 _memset
  05351	83 c4 0c	 add	 esp, 12			; 0000000cH
  05354	c6 85 5a ea ff
	ff 78		 mov	 BYTE PTR _sndconfig$[ebp+34398], 120 ; 00000078H
  0535b	c6 85 5b ea ff
	ff 00		 mov	 BYTE PTR _sndconfig$[ebp+34399], 0
  05362	c6 85 5c ea ff
	ff 00		 mov	 BYTE PTR _sndconfig$[ebp+34400], 0

; 193  : 	{  396,"data\\se\\sa1_11.wav",120, 0, 0 } , //火山泉中

  05369	b8 8c 01 00 00	 mov	 eax, 396		; 0000018cH
  0536e	66 89 85 5e ea
	ff ff		 mov	 WORD PTR _sndconfig$[ebp+34402], ax
  05375	a1 00 00 00 00	 mov	 eax, DWORD PTR ??_C@_0BD@MNCCONFD@data?2se?2sa1_11?4wav?$AA@
  0537a	89 85 60 ea ff
	ff		 mov	 DWORD PTR _sndconfig$[ebp+34404], eax
  05380	8b 0d 04 00 00
	00		 mov	 ecx, DWORD PTR ??_C@_0BD@MNCCONFD@data?2se?2sa1_11?4wav?$AA@+4
  05386	89 8d 64 ea ff
	ff		 mov	 DWORD PTR _sndconfig$[ebp+34408], ecx
  0538c	8b 15 08 00 00
	00		 mov	 edx, DWORD PTR ??_C@_0BD@MNCCONFD@data?2se?2sa1_11?4wav?$AA@+8
  05392	89 95 68 ea ff
	ff		 mov	 DWORD PTR _sndconfig$[ebp+34412], edx
  05398	a1 0c 00 00 00	 mov	 eax, DWORD PTR ??_C@_0BD@MNCCONFD@data?2se?2sa1_11?4wav?$AA@+12
  0539d	89 85 6c ea ff
	ff		 mov	 DWORD PTR _sndconfig$[ebp+34416], eax
  053a3	66 8b 0d 10 00
	00 00		 mov	 cx, WORD PTR ??_C@_0BD@MNCCONFD@data?2se?2sa1_11?4wav?$AA@+16
  053aa	66 89 8d 70 ea
	ff ff		 mov	 WORD PTR _sndconfig$[ebp+34420], cx
  053b1	8a 15 12 00 00
	00		 mov	 dl, BYTE PTR ??_C@_0BD@MNCCONFD@data?2se?2sa1_11?4wav?$AA@+18
  053b7	88 95 72 ea ff
	ff		 mov	 BYTE PTR _sndconfig$[ebp+34422], dl
  053bd	68 b5 00 00 00	 push	 181			; 000000b5H
  053c2	6a 00		 push	 0
  053c4	8d 85 73 ea ff
	ff		 lea	 eax, DWORD PTR _sndconfig$[ebp+34423]
  053ca	50		 push	 eax
  053cb	e8 00 00 00 00	 call	 _memset
  053d0	83 c4 0c	 add	 esp, 12			; 0000000cH
  053d3	c6 85 28 eb ff
	ff 78		 mov	 BYTE PTR _sndconfig$[ebp+34604], 120 ; 00000078H
  053da	c6 85 29 eb ff
	ff 00		 mov	 BYTE PTR _sndconfig$[ebp+34605], 0
  053e1	c6 85 2a eb ff
	ff 00		 mov	 BYTE PTR _sndconfig$[ebp+34606], 0

; 194  : 	{  397,"data\\se\\sa1_12.wav",120, 0, 0 } , //火山泉小

  053e8	b8 8d 01 00 00	 mov	 eax, 397		; 0000018dH
  053ed	66 89 85 2c eb
	ff ff		 mov	 WORD PTR _sndconfig$[ebp+34608], ax
  053f4	a1 00 00 00 00	 mov	 eax, DWORD PTR ??_C@_0BD@ELLGJPPN@data?2se?2sa1_12?4wav?$AA@
  053f9	89 85 2e eb ff
	ff		 mov	 DWORD PTR _sndconfig$[ebp+34610], eax
  053ff	8b 0d 04 00 00
	00		 mov	 ecx, DWORD PTR ??_C@_0BD@ELLGJPPN@data?2se?2sa1_12?4wav?$AA@+4
  05405	89 8d 32 eb ff
	ff		 mov	 DWORD PTR _sndconfig$[ebp+34614], ecx
  0540b	8b 15 08 00 00
	00		 mov	 edx, DWORD PTR ??_C@_0BD@ELLGJPPN@data?2se?2sa1_12?4wav?$AA@+8
  05411	89 95 36 eb ff
	ff		 mov	 DWORD PTR _sndconfig$[ebp+34618], edx
  05417	a1 0c 00 00 00	 mov	 eax, DWORD PTR ??_C@_0BD@ELLGJPPN@data?2se?2sa1_12?4wav?$AA@+12
  0541c	89 85 3a eb ff
	ff		 mov	 DWORD PTR _sndconfig$[ebp+34622], eax
  05422	66 8b 0d 10 00
	00 00		 mov	 cx, WORD PTR ??_C@_0BD@ELLGJPPN@data?2se?2sa1_12?4wav?$AA@+16
  05429	66 89 8d 3e eb
	ff ff		 mov	 WORD PTR _sndconfig$[ebp+34626], cx
  05430	8a 15 12 00 00
	00		 mov	 dl, BYTE PTR ??_C@_0BD@ELLGJPPN@data?2se?2sa1_12?4wav?$AA@+18
  05436	88 95 40 eb ff
	ff		 mov	 BYTE PTR _sndconfig$[ebp+34628], dl
  0543c	68 b5 00 00 00	 push	 181			; 000000b5H
  05441	6a 00		 push	 0
  05443	8d 85 41 eb ff
	ff		 lea	 eax, DWORD PTR _sndconfig$[ebp+34629]
  05449	50		 push	 eax
  0544a	e8 00 00 00 00	 call	 _memset
  0544f	83 c4 0c	 add	 esp, 12			; 0000000cH
  05452	c6 85 f6 eb ff
	ff 78		 mov	 BYTE PTR _sndconfig$[ebp+34810], 120 ; 00000078H
  05459	c6 85 f7 eb ff
	ff 00		 mov	 BYTE PTR _sndconfig$[ebp+34811], 0
  05460	c6 85 f8 eb ff
	ff 00		 mov	 BYTE PTR _sndconfig$[ebp+34812], 0

; 195  : 	{  398,"data\\se\\sa3_08.wav",120, 0, 0 } , //猎人使用

  05467	b8 8e 01 00 00	 mov	 eax, 398		; 0000018eH
  0546c	66 89 85 fa eb
	ff ff		 mov	 WORD PTR _sndconfig$[ebp+34814], ax
  05473	a1 00 00 00 00	 mov	 eax, DWORD PTR ??_C@_0BD@GCKMJPKJ@data?2se?2sa3_08?4wav?$AA@
  05478	89 85 fc eb ff
	ff		 mov	 DWORD PTR _sndconfig$[ebp+34816], eax
  0547e	8b 0d 04 00 00
	00		 mov	 ecx, DWORD PTR ??_C@_0BD@GCKMJPKJ@data?2se?2sa3_08?4wav?$AA@+4
  05484	89 8d 00 ec ff
	ff		 mov	 DWORD PTR _sndconfig$[ebp+34820], ecx
  0548a	8b 15 08 00 00
	00		 mov	 edx, DWORD PTR ??_C@_0BD@GCKMJPKJ@data?2se?2sa3_08?4wav?$AA@+8
  05490	89 95 04 ec ff
	ff		 mov	 DWORD PTR _sndconfig$[ebp+34824], edx
  05496	a1 0c 00 00 00	 mov	 eax, DWORD PTR ??_C@_0BD@GCKMJPKJ@data?2se?2sa3_08?4wav?$AA@+12
  0549b	89 85 08 ec ff
	ff		 mov	 DWORD PTR _sndconfig$[ebp+34828], eax
  054a1	66 8b 0d 10 00
	00 00		 mov	 cx, WORD PTR ??_C@_0BD@GCKMJPKJ@data?2se?2sa3_08?4wav?$AA@+16
  054a8	66 89 8d 0c ec
	ff ff		 mov	 WORD PTR _sndconfig$[ebp+34832], cx
  054af	8a 15 12 00 00
	00		 mov	 dl, BYTE PTR ??_C@_0BD@GCKMJPKJ@data?2se?2sa3_08?4wav?$AA@+18
  054b5	88 95 0e ec ff
	ff		 mov	 BYTE PTR _sndconfig$[ebp+34834], dl
  054bb	68 b5 00 00 00	 push	 181			; 000000b5H
  054c0	6a 00		 push	 0
  054c2	8d 85 0f ec ff
	ff		 lea	 eax, DWORD PTR _sndconfig$[ebp+34835]
  054c8	50		 push	 eax
  054c9	e8 00 00 00 00	 call	 _memset
  054ce	83 c4 0c	 add	 esp, 12			; 0000000cH
  054d1	c6 85 c4 ec ff
	ff 78		 mov	 BYTE PTR _sndconfig$[ebp+35016], 120 ; 00000078H
  054d8	c6 85 c5 ec ff
	ff 00		 mov	 BYTE PTR _sndconfig$[ebp+35017], 0
  054df	c6 85 c6 ec ff
	ff 00		 mov	 BYTE PTR _sndconfig$[ebp+35018], 0

; 196  : 	{  399,"data\\se\\sa3_09.wav",120, 0, 0 } , //弱点攻击

  054e6	b8 8f 01 00 00	 mov	 eax, 399		; 0000018fH
  054eb	66 89 85 c8 ec
	ff ff		 mov	 WORD PTR _sndconfig$[ebp+35020], ax
  054f2	a1 00 00 00 00	 mov	 eax, DWORD PTR ??_C@_0BD@KJPAEMAM@data?2se?2sa3_09?4wav?$AA@
  054f7	89 85 ca ec ff
	ff		 mov	 DWORD PTR _sndconfig$[ebp+35022], eax
  054fd	8b 0d 04 00 00
	00		 mov	 ecx, DWORD PTR ??_C@_0BD@KJPAEMAM@data?2se?2sa3_09?4wav?$AA@+4
  05503	89 8d ce ec ff
	ff		 mov	 DWORD PTR _sndconfig$[ebp+35026], ecx
  05509	8b 15 08 00 00
	00		 mov	 edx, DWORD PTR ??_C@_0BD@KJPAEMAM@data?2se?2sa3_09?4wav?$AA@+8
  0550f	89 95 d2 ec ff
	ff		 mov	 DWORD PTR _sndconfig$[ebp+35030], edx
  05515	a1 0c 00 00 00	 mov	 eax, DWORD PTR ??_C@_0BD@KJPAEMAM@data?2se?2sa3_09?4wav?$AA@+12
  0551a	89 85 d6 ec ff
	ff		 mov	 DWORD PTR _sndconfig$[ebp+35034], eax
  05520	66 8b 0d 10 00
	00 00		 mov	 cx, WORD PTR ??_C@_0BD@KJPAEMAM@data?2se?2sa3_09?4wav?$AA@+16
  05527	66 89 8d da ec
	ff ff		 mov	 WORD PTR _sndconfig$[ebp+35038], cx
  0552e	8a 15 12 00 00
	00		 mov	 dl, BYTE PTR ??_C@_0BD@KJPAEMAM@data?2se?2sa3_09?4wav?$AA@+18
  05534	88 95 dc ec ff
	ff		 mov	 BYTE PTR _sndconfig$[ebp+35040], dl
  0553a	68 b5 00 00 00	 push	 181			; 000000b5H
  0553f	6a 00		 push	 0
  05541	8d 85 dd ec ff
	ff		 lea	 eax, DWORD PTR _sndconfig$[ebp+35041]
  05547	50		 push	 eax
  05548	e8 00 00 00 00	 call	 _memset
  0554d	83 c4 0c	 add	 esp, 12			; 0000000cH
  05550	c6 85 92 ed ff
	ff 78		 mov	 BYTE PTR _sndconfig$[ebp+35222], 120 ; 00000078H
  05557	c6 85 93 ed ff
	ff 00		 mov	 BYTE PTR _sndconfig$[ebp+35223], 0
  0555e	c6 85 94 ed ff
	ff 00		 mov	 BYTE PTR _sndconfig$[ebp+35224], 0

; 197  : 	{  271,"data\\se\\sa1_13.wav",120, 0, 0 } , //一针见血

  05565	b8 0f 01 00 00	 mov	 eax, 271		; 0000010fH
  0556a	66 89 85 96 ed
	ff ff		 mov	 WORD PTR _sndconfig$[ebp+35226], ax
  05571	a1 00 00 00 00	 mov	 eax, DWORD PTR ??_C@_0BD@IAOKEMFI@data?2se?2sa1_13?4wav?$AA@
  05576	89 85 98 ed ff
	ff		 mov	 DWORD PTR _sndconfig$[ebp+35228], eax
  0557c	8b 0d 04 00 00
	00		 mov	 ecx, DWORD PTR ??_C@_0BD@IAOKEMFI@data?2se?2sa1_13?4wav?$AA@+4
  05582	89 8d 9c ed ff
	ff		 mov	 DWORD PTR _sndconfig$[ebp+35232], ecx
  05588	8b 15 08 00 00
	00		 mov	 edx, DWORD PTR ??_C@_0BD@IAOKEMFI@data?2se?2sa1_13?4wav?$AA@+8
  0558e	89 95 a0 ed ff
	ff		 mov	 DWORD PTR _sndconfig$[ebp+35236], edx
  05594	a1 0c 00 00 00	 mov	 eax, DWORD PTR ??_C@_0BD@IAOKEMFI@data?2se?2sa1_13?4wav?$AA@+12
  05599	89 85 a4 ed ff
	ff		 mov	 DWORD PTR _sndconfig$[ebp+35240], eax
  0559f	66 8b 0d 10 00
	00 00		 mov	 cx, WORD PTR ??_C@_0BD@IAOKEMFI@data?2se?2sa1_13?4wav?$AA@+16
  055a6	66 89 8d a8 ed
	ff ff		 mov	 WORD PTR _sndconfig$[ebp+35244], cx
  055ad	8a 15 12 00 00
	00		 mov	 dl, BYTE PTR ??_C@_0BD@IAOKEMFI@data?2se?2sa1_13?4wav?$AA@+18
  055b3	88 95 aa ed ff
	ff		 mov	 BYTE PTR _sndconfig$[ebp+35246], dl
  055b9	68 b5 00 00 00	 push	 181			; 000000b5H
  055be	6a 00		 push	 0
  055c0	8d 85 ab ed ff
	ff		 lea	 eax, DWORD PTR _sndconfig$[ebp+35247]
  055c6	50		 push	 eax
  055c7	e8 00 00 00 00	 call	 _memset
  055cc	83 c4 0c	 add	 esp, 12			; 0000000cH
  055cf	c6 85 60 ee ff
	ff 78		 mov	 BYTE PTR _sndconfig$[ebp+35428], 120 ; 00000078H
  055d6	c6 85 61 ee ff
	ff 00		 mov	 BYTE PTR _sndconfig$[ebp+35429], 0
  055dd	c6 85 62 ee ff
	ff 00		 mov	 BYTE PTR _sndconfig$[ebp+35430], 0

; 198  : 
; 199  : 	{  261,"data\\se\\sa1_14.wav",120, 0, 0 } , //雷附体

  055e4	b8 05 01 00 00	 mov	 eax, 261		; 00000105H
  055e9	66 89 85 64 ee
	ff ff		 mov	 WORD PTR _sndconfig$[ebp+35432], ax
  055f0	a1 00 00 00 00	 mov	 eax, DWORD PTR ??_C@_0BD@JNOPHMOA@data?2se?2sa1_14?4wav?$AA@
  055f5	89 85 66 ee ff
	ff		 mov	 DWORD PTR _sndconfig$[ebp+35434], eax
  055fb	8b 0d 04 00 00
	00		 mov	 ecx, DWORD PTR ??_C@_0BD@JNOPHMOA@data?2se?2sa1_14?4wav?$AA@+4
  05601	89 8d 6a ee ff
	ff		 mov	 DWORD PTR _sndconfig$[ebp+35438], ecx
  05607	8b 15 08 00 00
	00		 mov	 edx, DWORD PTR ??_C@_0BD@JNOPHMOA@data?2se?2sa1_14?4wav?$AA@+8
  0560d	89 95 6e ee ff
	ff		 mov	 DWORD PTR _sndconfig$[ebp+35442], edx
  05613	a1 0c 00 00 00	 mov	 eax, DWORD PTR ??_C@_0BD@JNOPHMOA@data?2se?2sa1_14?4wav?$AA@+12
  05618	89 85 72 ee ff
	ff		 mov	 DWORD PTR _sndconfig$[ebp+35446], eax
  0561e	66 8b 0d 10 00
	00 00		 mov	 cx, WORD PTR ??_C@_0BD@JNOPHMOA@data?2se?2sa1_14?4wav?$AA@+16
  05625	66 89 8d 76 ee
	ff ff		 mov	 WORD PTR _sndconfig$[ebp+35450], cx
  0562c	8a 15 12 00 00
	00		 mov	 dl, BYTE PTR ??_C@_0BD@JNOPHMOA@data?2se?2sa1_14?4wav?$AA@+18
  05632	88 95 78 ee ff
	ff		 mov	 BYTE PTR _sndconfig$[ebp+35452], dl
  05638	68 b5 00 00 00	 push	 181			; 000000b5H
  0563d	6a 00		 push	 0
  0563f	8d 85 79 ee ff
	ff		 lea	 eax, DWORD PTR _sndconfig$[ebp+35453]
  05645	50		 push	 eax
  05646	e8 00 00 00 00	 call	 _memset
  0564b	83 c4 0c	 add	 esp, 12			; 0000000cH
  0564e	c6 85 2e ef ff
	ff 78		 mov	 BYTE PTR _sndconfig$[ebp+35634], 120 ; 00000078H
  05655	c6 85 2f ef ff
	ff 00		 mov	 BYTE PTR _sndconfig$[ebp+35635], 0
  0565c	c6 85 30 ef ff
	ff 00		 mov	 BYTE PTR _sndconfig$[ebp+35636], 0

; 200  : 	{  262,"data\\se\\sa1_15.wav",120, 0, 0 } , //冰火附体

  05663	b8 06 01 00 00	 mov	 eax, 262		; 00000106H
  05668	66 89 85 32 ef
	ff ff		 mov	 WORD PTR _sndconfig$[ebp+35638], ax
  0566f	a1 00 00 00 00	 mov	 eax, DWORD PTR ??_C@_0BD@FGLDKPEF@data?2se?2sa1_15?4wav?$AA@
  05674	89 85 34 ef ff
	ff		 mov	 DWORD PTR _sndconfig$[ebp+35640], eax
  0567a	8b 0d 04 00 00
	00		 mov	 ecx, DWORD PTR ??_C@_0BD@FGLDKPEF@data?2se?2sa1_15?4wav?$AA@+4
  05680	89 8d 38 ef ff
	ff		 mov	 DWORD PTR _sndconfig$[ebp+35644], ecx
  05686	8b 15 08 00 00
	00		 mov	 edx, DWORD PTR ??_C@_0BD@FGLDKPEF@data?2se?2sa1_15?4wav?$AA@+8
  0568c	89 95 3c ef ff
	ff		 mov	 DWORD PTR _sndconfig$[ebp+35648], edx
  05692	a1 0c 00 00 00	 mov	 eax, DWORD PTR ??_C@_0BD@FGLDKPEF@data?2se?2sa1_15?4wav?$AA@+12
  05697	89 85 40 ef ff
	ff		 mov	 DWORD PTR _sndconfig$[ebp+35652], eax
  0569d	66 8b 0d 10 00
	00 00		 mov	 cx, WORD PTR ??_C@_0BD@FGLDKPEF@data?2se?2sa1_15?4wav?$AA@+16
  056a4	66 89 8d 44 ef
	ff ff		 mov	 WORD PTR _sndconfig$[ebp+35656], cx
  056ab	8a 15 12 00 00
	00		 mov	 dl, BYTE PTR ??_C@_0BD@FGLDKPEF@data?2se?2sa1_15?4wav?$AA@+18
  056b1	88 95 46 ef ff
	ff		 mov	 BYTE PTR _sndconfig$[ebp+35658], dl
  056b7	68 b5 00 00 00	 push	 181			; 000000b5H
  056bc	6a 00		 push	 0
  056be	8d 85 47 ef ff
	ff		 lea	 eax, DWORD PTR _sndconfig$[ebp+35659]
  056c4	50		 push	 eax
  056c5	e8 00 00 00 00	 call	 _memset
  056ca	83 c4 0c	 add	 esp, 12			; 0000000cH
  056cd	c6 85 fc ef ff
	ff 78		 mov	 BYTE PTR _sndconfig$[ebp+35840], 120 ; 00000078H
  056d4	c6 85 fd ef ff
	ff 00		 mov	 BYTE PTR _sndconfig$[ebp+35841], 0
  056db	c6 85 fe ef ff
	ff 00		 mov	 BYTE PTR _sndconfig$[ebp+35842], 0

; 201  : 	{  263,"data\\se\\sa1_16.wav",120, 0, 0 } , //嗜血蛊

  056e2	b8 07 01 00 00	 mov	 eax, 263		; 00000107H
  056e7	66 89 85 00 f0
	ff ff		 mov	 WORD PTR _sndconfig$[ebp+35844], ax
  056ee	a1 00 00 00 00	 mov	 eax, DWORD PTR ??_C@_0BD@NACHNNOL@data?2se?2sa1_16?4wav?$AA@
  056f3	89 85 02 f0 ff
	ff		 mov	 DWORD PTR _sndconfig$[ebp+35846], eax
  056f9	8b 0d 04 00 00
	00		 mov	 ecx, DWORD PTR ??_C@_0BD@NACHNNOL@data?2se?2sa1_16?4wav?$AA@+4
  056ff	89 8d 06 f0 ff
	ff		 mov	 DWORD PTR _sndconfig$[ebp+35850], ecx
  05705	8b 15 08 00 00
	00		 mov	 edx, DWORD PTR ??_C@_0BD@NACHNNOL@data?2se?2sa1_16?4wav?$AA@+8
  0570b	89 95 0a f0 ff
	ff		 mov	 DWORD PTR _sndconfig$[ebp+35854], edx
  05711	a1 0c 00 00 00	 mov	 eax, DWORD PTR ??_C@_0BD@NACHNNOL@data?2se?2sa1_16?4wav?$AA@+12
  05716	89 85 0e f0 ff
	ff		 mov	 DWORD PTR _sndconfig$[ebp+35858], eax
  0571c	66 8b 0d 10 00
	00 00		 mov	 cx, WORD PTR ??_C@_0BD@NACHNNOL@data?2se?2sa1_16?4wav?$AA@+16
  05723	66 89 8d 12 f0
	ff ff		 mov	 WORD PTR _sndconfig$[ebp+35862], cx
  0572a	8a 15 12 00 00
	00		 mov	 dl, BYTE PTR ??_C@_0BD@NACHNNOL@data?2se?2sa1_16?4wav?$AA@+18
  05730	88 95 14 f0 ff
	ff		 mov	 BYTE PTR _sndconfig$[ebp+35864], dl
  05736	68 b5 00 00 00	 push	 181			; 000000b5H
  0573b	6a 00		 push	 0
  0573d	8d 85 15 f0 ff
	ff		 lea	 eax, DWORD PTR _sndconfig$[ebp+35865]
  05743	50		 push	 eax
  05744	e8 00 00 00 00	 call	 _memset
  05749	83 c4 0c	 add	 esp, 12			; 0000000cH
  0574c	c6 85 ca f0 ff
	ff 78		 mov	 BYTE PTR _sndconfig$[ebp+36046], 120 ; 00000078H
  05753	c6 85 cb f0 ff
	ff 00		 mov	 BYTE PTR _sndconfig$[ebp+36047], 0
  0575a	c6 85 cc f0 ff
	ff 00		 mov	 BYTE PTR _sndconfig$[ebp+36048], 0

; 202  : 	{  264,"data\\se\\sa1_17.wav",120, 0, 0 } , //附身术

  05761	b8 08 01 00 00	 mov	 eax, 264		; 00000108H
  05766	66 89 85 ce f0
	ff ff		 mov	 WORD PTR _sndconfig$[ebp+36050], ax
  0576d	a1 00 00 00 00	 mov	 eax, DWORD PTR ??_C@_0BD@BLHLAOEO@data?2se?2sa1_17?4wav?$AA@
  05772	89 85 d0 f0 ff
	ff		 mov	 DWORD PTR _sndconfig$[ebp+36052], eax
  05778	8b 0d 04 00 00
	00		 mov	 ecx, DWORD PTR ??_C@_0BD@BLHLAOEO@data?2se?2sa1_17?4wav?$AA@+4
  0577e	89 8d d4 f0 ff
	ff		 mov	 DWORD PTR _sndconfig$[ebp+36056], ecx
  05784	8b 15 08 00 00
	00		 mov	 edx, DWORD PTR ??_C@_0BD@BLHLAOEO@data?2se?2sa1_17?4wav?$AA@+8
  0578a	89 95 d8 f0 ff
	ff		 mov	 DWORD PTR _sndconfig$[ebp+36060], edx
  05790	a1 0c 00 00 00	 mov	 eax, DWORD PTR ??_C@_0BD@BLHLAOEO@data?2se?2sa1_17?4wav?$AA@+12
  05795	89 85 dc f0 ff
	ff		 mov	 DWORD PTR _sndconfig$[ebp+36064], eax
  0579b	66 8b 0d 10 00
	00 00		 mov	 cx, WORD PTR ??_C@_0BD@BLHLAOEO@data?2se?2sa1_17?4wav?$AA@+16
  057a2	66 89 8d e0 f0
	ff ff		 mov	 WORD PTR _sndconfig$[ebp+36068], cx
  057a9	8a 15 12 00 00
	00		 mov	 dl, BYTE PTR ??_C@_0BD@BLHLAOEO@data?2se?2sa1_17?4wav?$AA@+18
  057af	88 95 e2 f0 ff
	ff		 mov	 BYTE PTR _sndconfig$[ebp+36070], dl
  057b5	68 b5 00 00 00	 push	 181			; 000000b5H
  057ba	6a 00		 push	 0
  057bc	8d 85 e3 f0 ff
	ff		 lea	 eax, DWORD PTR _sndconfig$[ebp+36071]
  057c2	50		 push	 eax
  057c3	e8 00 00 00 00	 call	 _memset
  057c8	83 c4 0c	 add	 esp, 12			; 0000000cH
  057cb	c6 85 98 f1 ff
	ff 78		 mov	 BYTE PTR _sndconfig$[ebp+36252], 120 ; 00000078H
  057d2	c6 85 99 f1 ff
	ff 00		 mov	 BYTE PTR _sndconfig$[ebp+36253], 0
  057d9	c6 85 9a f1 ff
	ff 00		 mov	 BYTE PTR _sndconfig$[ebp+36254], 0

; 203  : 	{  265,"data\\se\\sa1_18.wav",120, 0, 0 } , //嗜血成性10

  057e0	b8 09 01 00 00	 mov	 eax, 265		; 00000109H
  057e5	66 89 85 9c f1
	ff ff		 mov	 WORD PTR _sndconfig$[ebp+36256], ax
  057ec	a1 00 00 00 00	 mov	 eax, DWORD PTR ??_C@_0BD@OKCNLMJL@data?2se?2sa1_18?4wav?$AA@
  057f1	89 85 9e f1 ff
	ff		 mov	 DWORD PTR _sndconfig$[ebp+36258], eax
  057f7	8b 0d 04 00 00
	00		 mov	 ecx, DWORD PTR ??_C@_0BD@OKCNLMJL@data?2se?2sa1_18?4wav?$AA@+4
  057fd	89 8d a2 f1 ff
	ff		 mov	 DWORD PTR _sndconfig$[ebp+36262], ecx
  05803	8b 15 08 00 00
	00		 mov	 edx, DWORD PTR ??_C@_0BD@OKCNLMJL@data?2se?2sa1_18?4wav?$AA@+8
  05809	89 95 a6 f1 ff
	ff		 mov	 DWORD PTR _sndconfig$[ebp+36266], edx
  0580f	a1 0c 00 00 00	 mov	 eax, DWORD PTR ??_C@_0BD@OKCNLMJL@data?2se?2sa1_18?4wav?$AA@+12
  05814	89 85 aa f1 ff
	ff		 mov	 DWORD PTR _sndconfig$[ebp+36270], eax
  0581a	66 8b 0d 10 00
	00 00		 mov	 cx, WORD PTR ??_C@_0BD@OKCNLMJL@data?2se?2sa1_18?4wav?$AA@+16
  05821	66 89 8d ae f1
	ff ff		 mov	 WORD PTR _sndconfig$[ebp+36274], cx
  05828	8a 15 12 00 00
	00		 mov	 dl, BYTE PTR ??_C@_0BD@OKCNLMJL@data?2se?2sa1_18?4wav?$AA@+18
  0582e	88 95 b0 f1 ff
	ff		 mov	 BYTE PTR _sndconfig$[ebp+36276], dl
  05834	68 b5 00 00 00	 push	 181			; 000000b5H
  05839	6a 00		 push	 0
  0583b	8d 85 b1 f1 ff
	ff		 lea	 eax, DWORD PTR _sndconfig$[ebp+36277]
  05841	50		 push	 eax
  05842	e8 00 00 00 00	 call	 _memset
  05847	83 c4 0c	 add	 esp, 12			; 0000000cH
  0584a	c6 85 66 f2 ff
	ff 78		 mov	 BYTE PTR _sndconfig$[ebp+36458], 120 ; 00000078H
  05851	c6 85 67 f2 ff
	ff 00		 mov	 BYTE PTR _sndconfig$[ebp+36459], 0
  05858	c6 85 68 f2 ff
	ff 00		 mov	 BYTE PTR _sndconfig$[ebp+36460], 0

; 204  : 	{  266,"data\\se\\sa1_19.wav",120, 0, 0 } , //嗜血成性7

  0585f	b8 0a 01 00 00	 mov	 eax, 266		; 0000010aH
  05864	66 89 85 6a f2
	ff ff		 mov	 WORD PTR _sndconfig$[ebp+36462], ax
  0586b	a1 00 00 00 00	 mov	 eax, DWORD PTR ??_C@_0BD@CBHBGPDO@data?2se?2sa1_19?4wav?$AA@
  05870	89 85 6c f2 ff
	ff		 mov	 DWORD PTR _sndconfig$[ebp+36464], eax
  05876	8b 0d 04 00 00
	00		 mov	 ecx, DWORD PTR ??_C@_0BD@CBHBGPDO@data?2se?2sa1_19?4wav?$AA@+4
  0587c	89 8d 70 f2 ff
	ff		 mov	 DWORD PTR _sndconfig$[ebp+36468], ecx
  05882	8b 15 08 00 00
	00		 mov	 edx, DWORD PTR ??_C@_0BD@CBHBGPDO@data?2se?2sa1_19?4wav?$AA@+8
  05888	89 95 74 f2 ff
	ff		 mov	 DWORD PTR _sndconfig$[ebp+36472], edx
  0588e	a1 0c 00 00 00	 mov	 eax, DWORD PTR ??_C@_0BD@CBHBGPDO@data?2se?2sa1_19?4wav?$AA@+12
  05893	89 85 78 f2 ff
	ff		 mov	 DWORD PTR _sndconfig$[ebp+36476], eax
  05899	66 8b 0d 10 00
	00 00		 mov	 cx, WORD PTR ??_C@_0BD@CBHBGPDO@data?2se?2sa1_19?4wav?$AA@+16
  058a0	66 89 8d 7c f2
	ff ff		 mov	 WORD PTR _sndconfig$[ebp+36480], cx
  058a7	8a 15 12 00 00
	00		 mov	 dl, BYTE PTR ??_C@_0BD@CBHBGPDO@data?2se?2sa1_19?4wav?$AA@+18
  058ad	88 95 7e f2 ff
	ff		 mov	 BYTE PTR _sndconfig$[ebp+36482], dl
  058b3	68 b5 00 00 00	 push	 181			; 000000b5H
  058b8	6a 00		 push	 0
  058ba	8d 85 7f f2 ff
	ff		 lea	 eax, DWORD PTR _sndconfig$[ebp+36483]
  058c0	50		 push	 eax
  058c1	e8 00 00 00 00	 call	 _memset
  058c6	83 c4 0c	 add	 esp, 12			; 0000000cH
  058c9	c6 85 34 f3 ff
	ff 78		 mov	 BYTE PTR _sndconfig$[ebp+36664], 120 ; 00000078H
  058d0	c6 85 35 f3 ff
	ff 00		 mov	 BYTE PTR _sndconfig$[ebp+36665], 0
  058d7	c6 85 36 f3 ff
	ff 00		 mov	 BYTE PTR _sndconfig$[ebp+36666], 0

; 205  : 	{  267,"data\\se\\sa1_20.wav",120, 0, 0 } , //嗜血成性4

  058de	b8 0b 01 00 00	 mov	 eax, 267		; 0000010bH
  058e3	66 89 85 38 f3
	ff ff		 mov	 WORD PTR _sndconfig$[ebp+36668], ax
  058ea	a1 00 00 00 00	 mov	 eax, DWORD PTR ??_C@_0BD@DHJGCEGL@data?2se?2sa1_20?4wav?$AA@
  058ef	89 85 3a f3 ff
	ff		 mov	 DWORD PTR _sndconfig$[ebp+36670], eax
  058f5	8b 0d 04 00 00
	00		 mov	 ecx, DWORD PTR ??_C@_0BD@DHJGCEGL@data?2se?2sa1_20?4wav?$AA@+4
  058fb	89 8d 3e f3 ff
	ff		 mov	 DWORD PTR _sndconfig$[ebp+36674], ecx
  05901	8b 15 08 00 00
	00		 mov	 edx, DWORD PTR ??_C@_0BD@DHJGCEGL@data?2se?2sa1_20?4wav?$AA@+8
  05907	89 95 42 f3 ff
	ff		 mov	 DWORD PTR _sndconfig$[ebp+36678], edx
  0590d	a1 0c 00 00 00	 mov	 eax, DWORD PTR ??_C@_0BD@DHJGCEGL@data?2se?2sa1_20?4wav?$AA@+12
  05912	89 85 46 f3 ff
	ff		 mov	 DWORD PTR _sndconfig$[ebp+36682], eax
  05918	66 8b 0d 10 00
	00 00		 mov	 cx, WORD PTR ??_C@_0BD@DHJGCEGL@data?2se?2sa1_20?4wav?$AA@+16
  0591f	66 89 8d 4a f3
	ff ff		 mov	 WORD PTR _sndconfig$[ebp+36686], cx
  05926	8a 15 12 00 00
	00		 mov	 dl, BYTE PTR ??_C@_0BD@DHJGCEGL@data?2se?2sa1_20?4wav?$AA@+18
  0592c	88 95 4c f3 ff
	ff		 mov	 BYTE PTR _sndconfig$[ebp+36688], dl
  05932	68 b5 00 00 00	 push	 181			; 000000b5H
  05937	6a 00		 push	 0
  05939	8d 85 4d f3 ff
	ff		 lea	 eax, DWORD PTR _sndconfig$[ebp+36689]
  0593f	50		 push	 eax
  05940	e8 00 00 00 00	 call	 _memset
  05945	83 c4 0c	 add	 esp, 12			; 0000000cH
  05948	c6 85 02 f4 ff
	ff 78		 mov	 BYTE PTR _sndconfig$[ebp+36870], 120 ; 00000078H
  0594f	c6 85 03 f4 ff
	ff 00		 mov	 BYTE PTR _sndconfig$[ebp+36871], 0
  05956	c6 85 04 f4 ff
	ff 00		 mov	 BYTE PTR _sndconfig$[ebp+36872], 0

; 206  : 	{  268,"data\\se\\sa1_21.wav",120, 0, 0 } , //嗜血成性1

  0595d	b8 0c 01 00 00	 mov	 eax, 268		; 0000010cH
  05962	66 89 85 06 f4
	ff ff		 mov	 WORD PTR _sndconfig$[ebp+36874], ax
  05969	a1 00 00 00 00	 mov	 eax, DWORD PTR ??_C@_0BD@PMMKPHMO@data?2se?2sa1_21?4wav?$AA@
  0596e	89 85 08 f4 ff
	ff		 mov	 DWORD PTR _sndconfig$[ebp+36876], eax
  05974	8b 0d 04 00 00
	00		 mov	 ecx, DWORD PTR ??_C@_0BD@PMMKPHMO@data?2se?2sa1_21?4wav?$AA@+4
  0597a	89 8d 0c f4 ff
	ff		 mov	 DWORD PTR _sndconfig$[ebp+36880], ecx
  05980	8b 15 08 00 00
	00		 mov	 edx, DWORD PTR ??_C@_0BD@PMMKPHMO@data?2se?2sa1_21?4wav?$AA@+8
  05986	89 95 10 f4 ff
	ff		 mov	 DWORD PTR _sndconfig$[ebp+36884], edx
  0598c	a1 0c 00 00 00	 mov	 eax, DWORD PTR ??_C@_0BD@PMMKPHMO@data?2se?2sa1_21?4wav?$AA@+12
  05991	89 85 14 f4 ff
	ff		 mov	 DWORD PTR _sndconfig$[ebp+36888], eax
  05997	66 8b 0d 10 00
	00 00		 mov	 cx, WORD PTR ??_C@_0BD@PMMKPHMO@data?2se?2sa1_21?4wav?$AA@+16
  0599e	66 89 8d 18 f4
	ff ff		 mov	 WORD PTR _sndconfig$[ebp+36892], cx
  059a5	8a 15 12 00 00
	00		 mov	 dl, BYTE PTR ??_C@_0BD@PMMKPHMO@data?2se?2sa1_21?4wav?$AA@+18
  059ab	88 95 1a f4 ff
	ff		 mov	 BYTE PTR _sndconfig$[ebp+36894], dl
  059b1	68 b5 00 00 00	 push	 181			; 000000b5H
  059b6	6a 00		 push	 0
  059b8	8d 85 1b f4 ff
	ff		 lea	 eax, DWORD PTR _sndconfig$[ebp+36895]
  059be	50		 push	 eax
  059bf	e8 00 00 00 00	 call	 _memset
  059c4	83 c4 0c	 add	 esp, 12			; 0000000cH
  059c7	c6 85 d0 f4 ff
	ff 78		 mov	 BYTE PTR _sndconfig$[ebp+37076], 120 ; 00000078H
  059ce	c6 85 d1 f4 ff
	ff 00		 mov	 BYTE PTR _sndconfig$[ebp+37077], 0
  059d5	c6 85 d2 f4 ff
	ff 00		 mov	 BYTE PTR _sndconfig$[ebp+37078], 0

; 207  : 	{  269,"data\\se\\sa1_22.wav",120, 0, 0 } , //火星球

  059dc	b8 0d 01 00 00	 mov	 eax, 269		; 0000010dH
  059e1	66 89 85 d4 f4
	ff ff		 mov	 WORD PTR _sndconfig$[ebp+37080], ax
  059e8	a1 00 00 00 00	 mov	 eax, DWORD PTR ??_C@_0BD@HKFOIFGA@data?2se?2sa1_22?4wav?$AA@
  059ed	89 85 d6 f4 ff
	ff		 mov	 DWORD PTR _sndconfig$[ebp+37082], eax
  059f3	8b 0d 04 00 00
	00		 mov	 ecx, DWORD PTR ??_C@_0BD@HKFOIFGA@data?2se?2sa1_22?4wav?$AA@+4
  059f9	89 8d da f4 ff
	ff		 mov	 DWORD PTR _sndconfig$[ebp+37086], ecx
  059ff	8b 15 08 00 00
	00		 mov	 edx, DWORD PTR ??_C@_0BD@HKFOIFGA@data?2se?2sa1_22?4wav?$AA@+8
  05a05	89 95 de f4 ff
	ff		 mov	 DWORD PTR _sndconfig$[ebp+37090], edx
  05a0b	a1 0c 00 00 00	 mov	 eax, DWORD PTR ??_C@_0BD@HKFOIFGA@data?2se?2sa1_22?4wav?$AA@+12
  05a10	89 85 e2 f4 ff
	ff		 mov	 DWORD PTR _sndconfig$[ebp+37094], eax
  05a16	66 8b 0d 10 00
	00 00		 mov	 cx, WORD PTR ??_C@_0BD@HKFOIFGA@data?2se?2sa1_22?4wav?$AA@+16
  05a1d	66 89 8d e6 f4
	ff ff		 mov	 WORD PTR _sndconfig$[ebp+37098], cx
  05a24	8a 15 12 00 00
	00		 mov	 dl, BYTE PTR ??_C@_0BD@HKFOIFGA@data?2se?2sa1_22?4wav?$AA@+18
  05a2a	88 95 e8 f4 ff
	ff		 mov	 BYTE PTR _sndconfig$[ebp+37100], dl
  05a30	68 b5 00 00 00	 push	 181			; 000000b5H
  05a35	6a 00		 push	 0
  05a37	8d 85 e9 f4 ff
	ff		 lea	 eax, DWORD PTR _sndconfig$[ebp+37101]
  05a3d	50		 push	 eax
  05a3e	e8 00 00 00 00	 call	 _memset
  05a43	83 c4 0c	 add	 esp, 12			; 0000000cH
  05a46	c6 85 9e f5 ff
	ff 78		 mov	 BYTE PTR _sndconfig$[ebp+37282], 120 ; 00000078H
  05a4d	c6 85 9f f5 ff
	ff 00		 mov	 BYTE PTR _sndconfig$[ebp+37283], 0
  05a54	c6 85 a0 f5 ff
	ff 00		 mov	 BYTE PTR _sndconfig$[ebp+37284], 0

; 208  : 	{  270,"data\\se\\sa1_23.wav",120, 0, 0 } , //移形换位

  05a5b	b8 0e 01 00 00	 mov	 eax, 270		; 0000010eH
  05a60	66 89 85 a2 f5
	ff ff		 mov	 WORD PTR _sndconfig$[ebp+37286], ax
  05a67	a1 00 00 00 00	 mov	 eax, DWORD PTR ??_C@_0BD@LBACFGMF@data?2se?2sa1_23?4wav?$AA@
  05a6c	89 85 a4 f5 ff
	ff		 mov	 DWORD PTR _sndconfig$[ebp+37288], eax
  05a72	8b 0d 04 00 00
	00		 mov	 ecx, DWORD PTR ??_C@_0BD@LBACFGMF@data?2se?2sa1_23?4wav?$AA@+4
  05a78	89 8d a8 f5 ff
	ff		 mov	 DWORD PTR _sndconfig$[ebp+37292], ecx
  05a7e	8b 15 08 00 00
	00		 mov	 edx, DWORD PTR ??_C@_0BD@LBACFGMF@data?2se?2sa1_23?4wav?$AA@+8
  05a84	89 95 ac f5 ff
	ff		 mov	 DWORD PTR _sndconfig$[ebp+37296], edx
  05a8a	a1 0c 00 00 00	 mov	 eax, DWORD PTR ??_C@_0BD@LBACFGMF@data?2se?2sa1_23?4wav?$AA@+12
  05a8f	89 85 b0 f5 ff
	ff		 mov	 DWORD PTR _sndconfig$[ebp+37300], eax
  05a95	66 8b 0d 10 00
	00 00		 mov	 cx, WORD PTR ??_C@_0BD@LBACFGMF@data?2se?2sa1_23?4wav?$AA@+16
  05a9c	66 89 8d b4 f5
	ff ff		 mov	 WORD PTR _sndconfig$[ebp+37304], cx
  05aa3	8a 15 12 00 00
	00		 mov	 dl, BYTE PTR ??_C@_0BD@LBACFGMF@data?2se?2sa1_23?4wav?$AA@+18
  05aa9	88 95 b6 f5 ff
	ff		 mov	 BYTE PTR _sndconfig$[ebp+37306], dl
  05aaf	68 b5 00 00 00	 push	 181			; 000000b5H
  05ab4	6a 00		 push	 0
  05ab6	8d 85 b7 f5 ff
	ff		 lea	 eax, DWORD PTR _sndconfig$[ebp+37307]
  05abc	50		 push	 eax
  05abd	e8 00 00 00 00	 call	 _memset
  05ac2	83 c4 0c	 add	 esp, 12			; 0000000cH
  05ac5	c6 85 6c f6 ff
	ff 78		 mov	 BYTE PTR _sndconfig$[ebp+37488], 120 ; 00000078H
  05acc	c6 85 6d f6 ff
	ff 00		 mov	 BYTE PTR _sndconfig$[ebp+37489], 0
  05ad3	c6 85 6e f6 ff
	ff 00		 mov	 BYTE PTR _sndconfig$[ebp+37490], 0

; 209  : 	{  272,"data\\se\\sa2_12.wav",120, 0, 0 } , //暴击气流

  05ada	b8 10 01 00 00	 mov	 eax, 272		; 00000110H
  05adf	66 89 85 70 f6
	ff ff		 mov	 WORD PTR _sndconfig$[ebp+37492], ax
  05ae6	a1 00 00 00 00	 mov	 eax, DWORD PTR ??_C@_0BD@HCDLKDDI@data?2se?2sa2_12?4wav?$AA@
  05aeb	89 85 72 f6 ff
	ff		 mov	 DWORD PTR _sndconfig$[ebp+37494], eax
  05af1	8b 0d 04 00 00
	00		 mov	 ecx, DWORD PTR ??_C@_0BD@HCDLKDDI@data?2se?2sa2_12?4wav?$AA@+4
  05af7	89 8d 76 f6 ff
	ff		 mov	 DWORD PTR _sndconfig$[ebp+37498], ecx
  05afd	8b 15 08 00 00
	00		 mov	 edx, DWORD PTR ??_C@_0BD@HCDLKDDI@data?2se?2sa2_12?4wav?$AA@+8
  05b03	89 95 7a f6 ff
	ff		 mov	 DWORD PTR _sndconfig$[ebp+37502], edx
  05b09	a1 0c 00 00 00	 mov	 eax, DWORD PTR ??_C@_0BD@HCDLKDDI@data?2se?2sa2_12?4wav?$AA@+12
  05b0e	89 85 7e f6 ff
	ff		 mov	 DWORD PTR _sndconfig$[ebp+37506], eax
  05b14	66 8b 0d 10 00
	00 00		 mov	 cx, WORD PTR ??_C@_0BD@HCDLKDDI@data?2se?2sa2_12?4wav?$AA@+16
  05b1b	66 89 8d 82 f6
	ff ff		 mov	 WORD PTR _sndconfig$[ebp+37510], cx
  05b22	8a 15 12 00 00
	00		 mov	 dl, BYTE PTR ??_C@_0BD@HCDLKDDI@data?2se?2sa2_12?4wav?$AA@+18
  05b28	88 95 84 f6 ff
	ff		 mov	 BYTE PTR _sndconfig$[ebp+37512], dl
  05b2e	68 b5 00 00 00	 push	 181			; 000000b5H
  05b33	6a 00		 push	 0
  05b35	8d 85 85 f6 ff
	ff		 lea	 eax, DWORD PTR _sndconfig$[ebp+37513]
  05b3b	50		 push	 eax
  05b3c	e8 00 00 00 00	 call	 _memset
  05b41	83 c4 0c	 add	 esp, 12			; 0000000cH
  05b44	c6 85 3a f7 ff
	ff 78		 mov	 BYTE PTR _sndconfig$[ebp+37694], 120 ; 00000078H
  05b4b	c6 85 3b f7 ff
	ff 00		 mov	 BYTE PTR _sndconfig$[ebp+37695], 0
  05b52	c6 85 3c f7 ff
	ff 00		 mov	 BYTE PTR _sndconfig$[ebp+37696], 0

; 210  : 
; 211  : 
; 212  : 
; 213  : #endif
; 214  : #ifdef _PROFESSION_ADDSKILL
; 215  : 	{  400,"data\\se\\sae_10.wav",120, 0, 0 } , //号召自然sak_92.wav

  05b59	b8 90 01 00 00	 mov	 eax, 400		; 00000190H
  05b5e	66 89 85 3e f7
	ff ff		 mov	 WORD PTR _sndconfig$[ebp+37698], ax
  05b65	a1 00 00 00 00	 mov	 eax, DWORD PTR ??_C@_0BD@CJMACOIM@data?2se?2sae_10?4wav?$AA@
  05b6a	89 85 40 f7 ff
	ff		 mov	 DWORD PTR _sndconfig$[ebp+37700], eax
  05b70	8b 0d 04 00 00
	00		 mov	 ecx, DWORD PTR ??_C@_0BD@CJMACOIM@data?2se?2sae_10?4wav?$AA@+4
  05b76	89 8d 44 f7 ff
	ff		 mov	 DWORD PTR _sndconfig$[ebp+37704], ecx
  05b7c	8b 15 08 00 00
	00		 mov	 edx, DWORD PTR ??_C@_0BD@CJMACOIM@data?2se?2sae_10?4wav?$AA@+8
  05b82	89 95 48 f7 ff
	ff		 mov	 DWORD PTR _sndconfig$[ebp+37708], edx
  05b88	a1 0c 00 00 00	 mov	 eax, DWORD PTR ??_C@_0BD@CJMACOIM@data?2se?2sae_10?4wav?$AA@+12
  05b8d	89 85 4c f7 ff
	ff		 mov	 DWORD PTR _sndconfig$[ebp+37712], eax
  05b93	66 8b 0d 10 00
	00 00		 mov	 cx, WORD PTR ??_C@_0BD@CJMACOIM@data?2se?2sae_10?4wav?$AA@+16
  05b9a	66 89 8d 50 f7
	ff ff		 mov	 WORD PTR _sndconfig$[ebp+37716], cx
  05ba1	8a 15 12 00 00
	00		 mov	 dl, BYTE PTR ??_C@_0BD@CJMACOIM@data?2se?2sae_10?4wav?$AA@+18
  05ba7	88 95 52 f7 ff
	ff		 mov	 BYTE PTR _sndconfig$[ebp+37718], dl
  05bad	68 b5 00 00 00	 push	 181			; 000000b5H
  05bb2	6a 00		 push	 0
  05bb4	8d 85 53 f7 ff
	ff		 lea	 eax, DWORD PTR _sndconfig$[ebp+37719]
  05bba	50		 push	 eax
  05bbb	e8 00 00 00 00	 call	 _memset
  05bc0	83 c4 0c	 add	 esp, 12			; 0000000cH
  05bc3	c6 85 08 f8 ff
	ff 78		 mov	 BYTE PTR _sndconfig$[ebp+37900], 120 ; 00000078H
  05bca	c6 85 09 f8 ff
	ff 00		 mov	 BYTE PTR _sndconfig$[ebp+37901], 0
  05bd1	c6 85 0a f8 ff
	ff 00		 mov	 BYTE PTR _sndconfig$[ebp+37902], 0

; 216  : #endif
; 217  : // BGM
; 218  : //	{  401,	"data\\bgm\\ls2b_01.wav", 5 /*, "????????"*/ },
; 219  : //	{  402,	"data\\bgm\\ls2b_02.wav", 5 /*, "??????"*/ },
; 220  : //	{  403,	"data\\bgm\\ls2b_03.wav", 5 /*, "???"*/ },
; 221  : //	{  404,	"data\\bgm\\ls2b_04.wav", 5 /*, "????"*/ },
; 222  : 
; 223  : #ifdef _FIREWORK_SOUND
; 224  : 	{  405,"data\\se\\sax_01.wav",120, 0, 0 } , //人型烟火音效

  05bd8	b8 95 01 00 00	 mov	 eax, 405		; 00000195H
  05bdd	66 89 85 0c f8
	ff ff		 mov	 WORD PTR _sndconfig$[ebp+37904], ax
  05be4	a1 00 00 00 00	 mov	 eax, DWORD PTR ??_C@_0BD@BJGEFDLL@data?2se?2sax_01?4wav?$AA@
  05be9	89 85 0e f8 ff
	ff		 mov	 DWORD PTR _sndconfig$[ebp+37906], eax
  05bef	8b 0d 04 00 00
	00		 mov	 ecx, DWORD PTR ??_C@_0BD@BJGEFDLL@data?2se?2sax_01?4wav?$AA@+4
  05bf5	89 8d 12 f8 ff
	ff		 mov	 DWORD PTR _sndconfig$[ebp+37910], ecx
  05bfb	8b 15 08 00 00
	00		 mov	 edx, DWORD PTR ??_C@_0BD@BJGEFDLL@data?2se?2sax_01?4wav?$AA@+8
  05c01	89 95 16 f8 ff
	ff		 mov	 DWORD PTR _sndconfig$[ebp+37914], edx
  05c07	a1 0c 00 00 00	 mov	 eax, DWORD PTR ??_C@_0BD@BJGEFDLL@data?2se?2sax_01?4wav?$AA@+12
  05c0c	89 85 1a f8 ff
	ff		 mov	 DWORD PTR _sndconfig$[ebp+37918], eax
  05c12	66 8b 0d 10 00
	00 00		 mov	 cx, WORD PTR ??_C@_0BD@BJGEFDLL@data?2se?2sax_01?4wav?$AA@+16
  05c19	66 89 8d 1e f8
	ff ff		 mov	 WORD PTR _sndconfig$[ebp+37922], cx
  05c20	8a 15 12 00 00
	00		 mov	 dl, BYTE PTR ??_C@_0BD@BJGEFDLL@data?2se?2sax_01?4wav?$AA@+18
  05c26	88 95 20 f8 ff
	ff		 mov	 BYTE PTR _sndconfig$[ebp+37924], dl
  05c2c	68 b5 00 00 00	 push	 181			; 000000b5H
  05c31	6a 00		 push	 0
  05c33	8d 85 21 f8 ff
	ff		 lea	 eax, DWORD PTR _sndconfig$[ebp+37925]
  05c39	50		 push	 eax
  05c3a	e8 00 00 00 00	 call	 _memset
  05c3f	83 c4 0c	 add	 esp, 12			; 0000000cH
  05c42	c6 85 d6 f8 ff
	ff 78		 mov	 BYTE PTR _sndconfig$[ebp+38106], 120 ; 00000078H
  05c49	c6 85 d7 f8 ff
	ff 00		 mov	 BYTE PTR _sndconfig$[ebp+38107], 0
  05c50	c6 85 d8 f8 ff
	ff 00		 mov	 BYTE PTR _sndconfig$[ebp+38108], 0

; 225  : 	{  406,"data\\se\\sax_02.wav",120, 0, 0 } , //宠型烟火音效

  05c57	b8 96 01 00 00	 mov	 eax, 406		; 00000196H
  05c5c	66 89 85 da f8
	ff ff		 mov	 WORD PTR _sndconfig$[ebp+38110], ax
  05c63	a1 00 00 00 00	 mov	 eax, DWORD PTR ??_C@_0BD@JPPACBBF@data?2se?2sax_02?4wav?$AA@
  05c68	89 85 dc f8 ff
	ff		 mov	 DWORD PTR _sndconfig$[ebp+38112], eax
  05c6e	8b 0d 04 00 00
	00		 mov	 ecx, DWORD PTR ??_C@_0BD@JPPACBBF@data?2se?2sax_02?4wav?$AA@+4
  05c74	89 8d e0 f8 ff
	ff		 mov	 DWORD PTR _sndconfig$[ebp+38116], ecx
  05c7a	8b 15 08 00 00
	00		 mov	 edx, DWORD PTR ??_C@_0BD@JPPACBBF@data?2se?2sax_02?4wav?$AA@+8
  05c80	89 95 e4 f8 ff
	ff		 mov	 DWORD PTR _sndconfig$[ebp+38120], edx
  05c86	a1 0c 00 00 00	 mov	 eax, DWORD PTR ??_C@_0BD@JPPACBBF@data?2se?2sax_02?4wav?$AA@+12
  05c8b	89 85 e8 f8 ff
	ff		 mov	 DWORD PTR _sndconfig$[ebp+38124], eax
  05c91	66 8b 0d 10 00
	00 00		 mov	 cx, WORD PTR ??_C@_0BD@JPPACBBF@data?2se?2sax_02?4wav?$AA@+16
  05c98	66 89 8d ec f8
	ff ff		 mov	 WORD PTR _sndconfig$[ebp+38128], cx
  05c9f	8a 15 12 00 00
	00		 mov	 dl, BYTE PTR ??_C@_0BD@JPPACBBF@data?2se?2sax_02?4wav?$AA@+18
  05ca5	88 95 ee f8 ff
	ff		 mov	 BYTE PTR _sndconfig$[ebp+38130], dl
  05cab	68 b5 00 00 00	 push	 181			; 000000b5H
  05cb0	6a 00		 push	 0
  05cb2	8d 85 ef f8 ff
	ff		 lea	 eax, DWORD PTR _sndconfig$[ebp+38131]
  05cb8	50		 push	 eax
  05cb9	e8 00 00 00 00	 call	 _memset
  05cbe	83 c4 0c	 add	 esp, 12			; 0000000cH
  05cc1	c6 85 a4 f9 ff
	ff 78		 mov	 BYTE PTR _sndconfig$[ebp+38312], 120 ; 00000078H
  05cc8	c6 85 a5 f9 ff
	ff 00		 mov	 BYTE PTR _sndconfig$[ebp+38313], 0
  05ccf	c6 85 a6 f9 ff
	ff 00		 mov	 BYTE PTR _sndconfig$[ebp+38314], 0

; 226  : 	{  407,"data\\se\\sax_03.wav",120, 0, 0 } , //愿藏烟火音效

  05cd6	b8 97 01 00 00	 mov	 eax, 407		; 00000197H
  05cdb	66 89 85 a8 f9
	ff ff		 mov	 WORD PTR _sndconfig$[ebp+38316], ax
  05ce2	a1 00 00 00 00	 mov	 eax, DWORD PTR ??_C@_0BD@FEKMPCLA@data?2se?2sax_03?4wav?$AA@
  05ce7	89 85 aa f9 ff
	ff		 mov	 DWORD PTR _sndconfig$[ebp+38318], eax
  05ced	8b 0d 04 00 00
	00		 mov	 ecx, DWORD PTR ??_C@_0BD@FEKMPCLA@data?2se?2sax_03?4wav?$AA@+4
  05cf3	89 8d ae f9 ff
	ff		 mov	 DWORD PTR _sndconfig$[ebp+38322], ecx
  05cf9	8b 15 08 00 00
	00		 mov	 edx, DWORD PTR ??_C@_0BD@FEKMPCLA@data?2se?2sax_03?4wav?$AA@+8
  05cff	89 95 b2 f9 ff
	ff		 mov	 DWORD PTR _sndconfig$[ebp+38326], edx
  05d05	a1 0c 00 00 00	 mov	 eax, DWORD PTR ??_C@_0BD@FEKMPCLA@data?2se?2sax_03?4wav?$AA@+12
  05d0a	89 85 b6 f9 ff
	ff		 mov	 DWORD PTR _sndconfig$[ebp+38330], eax
  05d10	66 8b 0d 10 00
	00 00		 mov	 cx, WORD PTR ??_C@_0BD@FEKMPCLA@data?2se?2sax_03?4wav?$AA@+16
  05d17	66 89 8d ba f9
	ff ff		 mov	 WORD PTR _sndconfig$[ebp+38334], cx
  05d1e	8a 15 12 00 00
	00		 mov	 dl, BYTE PTR ??_C@_0BD@FEKMPCLA@data?2se?2sax_03?4wav?$AA@+18
  05d24	88 95 bc f9 ff
	ff		 mov	 BYTE PTR _sndconfig$[ebp+38336], dl
  05d2a	68 b5 00 00 00	 push	 181			; 000000b5H
  05d2f	6a 00		 push	 0
  05d31	8d 85 bd f9 ff
	ff		 lea	 eax, DWORD PTR _sndconfig$[ebp+38337]
  05d37	50		 push	 eax
  05d38	e8 00 00 00 00	 call	 _memset
  05d3d	83 c4 0c	 add	 esp, 12			; 0000000cH
  05d40	c6 85 72 fa ff
	ff 78		 mov	 BYTE PTR _sndconfig$[ebp+38518], 120 ; 00000078H
  05d47	c6 85 73 fa ff
	ff 00		 mov	 BYTE PTR _sndconfig$[ebp+38519], 0
  05d4e	c6 85 74 fa ff
	ff 00		 mov	 BYTE PTR _sndconfig$[ebp+38520], 0

; 227  : #endif
; 228  : 	{  408,"data\\se\\sak_91.wav",120, 0, 0 } , //鸡年兽特效收录

  05d55	b8 98 01 00 00	 mov	 eax, 408		; 00000198H
  05d5a	66 89 85 76 fa
	ff ff		 mov	 WORD PTR _sndconfig$[ebp+38522], ax
  05d61	a1 00 00 00 00	 mov	 eax, DWORD PTR ??_C@_0BD@BJLBGINM@data?2se?2sak_91?4wav?$AA@
  05d66	89 85 78 fa ff
	ff		 mov	 DWORD PTR _sndconfig$[ebp+38524], eax
  05d6c	8b 0d 04 00 00
	00		 mov	 ecx, DWORD PTR ??_C@_0BD@BJLBGINM@data?2se?2sak_91?4wav?$AA@+4
  05d72	89 8d 7c fa ff
	ff		 mov	 DWORD PTR _sndconfig$[ebp+38528], ecx
  05d78	8b 15 08 00 00
	00		 mov	 edx, DWORD PTR ??_C@_0BD@BJLBGINM@data?2se?2sak_91?4wav?$AA@+8
  05d7e	89 95 80 fa ff
	ff		 mov	 DWORD PTR _sndconfig$[ebp+38532], edx
  05d84	a1 0c 00 00 00	 mov	 eax, DWORD PTR ??_C@_0BD@BJLBGINM@data?2se?2sak_91?4wav?$AA@+12
  05d89	89 85 84 fa ff
	ff		 mov	 DWORD PTR _sndconfig$[ebp+38536], eax
  05d8f	66 8b 0d 10 00
	00 00		 mov	 cx, WORD PTR ??_C@_0BD@BJLBGINM@data?2se?2sak_91?4wav?$AA@+16
  05d96	66 89 8d 88 fa
	ff ff		 mov	 WORD PTR _sndconfig$[ebp+38540], cx
  05d9d	8a 15 12 00 00
	00		 mov	 dl, BYTE PTR ??_C@_0BD@BJLBGINM@data?2se?2sak_91?4wav?$AA@+18
  05da3	88 95 8a fa ff
	ff		 mov	 BYTE PTR _sndconfig$[ebp+38542], dl
  05da9	68 b5 00 00 00	 push	 181			; 000000b5H
  05dae	6a 00		 push	 0
  05db0	8d 85 8b fa ff
	ff		 lea	 eax, DWORD PTR _sndconfig$[ebp+38543]
  05db6	50		 push	 eax
  05db7	e8 00 00 00 00	 call	 _memset
  05dbc	83 c4 0c	 add	 esp, 12			; 0000000cH
  05dbf	c6 85 40 fb ff
	ff 78		 mov	 BYTE PTR _sndconfig$[ebp+38724], 120 ; 00000078H
  05dc6	c6 85 41 fb ff
	ff 00		 mov	 BYTE PTR _sndconfig$[ebp+38725], 0
  05dcd	c6 85 42 fb ff
	ff 00		 mov	 BYTE PTR _sndconfig$[ebp+38726], 0

; 229  : 	{  409,"data\\se\\sak_93.wav",120, 0, 0 } , //一角鲸特效收录	

  05dd4	b8 99 01 00 00	 mov	 eax, 409		; 00000199H
  05dd9	66 89 85 44 fb
	ff ff		 mov	 WORD PTR _sndconfig$[ebp+38728], ax
  05de0	a1 00 00 00 00	 mov	 eax, DWORD PTR ??_C@_0BD@FEHJMJNH@data?2se?2sak_93?4wav?$AA@
  05de5	89 85 46 fb ff
	ff		 mov	 DWORD PTR _sndconfig$[ebp+38730], eax
  05deb	8b 0d 04 00 00
	00		 mov	 ecx, DWORD PTR ??_C@_0BD@FEHJMJNH@data?2se?2sak_93?4wav?$AA@+4
  05df1	89 8d 4a fb ff
	ff		 mov	 DWORD PTR _sndconfig$[ebp+38734], ecx
  05df7	8b 15 08 00 00
	00		 mov	 edx, DWORD PTR ??_C@_0BD@FEHJMJNH@data?2se?2sak_93?4wav?$AA@+8
  05dfd	89 95 4e fb ff
	ff		 mov	 DWORD PTR _sndconfig$[ebp+38738], edx
  05e03	a1 0c 00 00 00	 mov	 eax, DWORD PTR ??_C@_0BD@FEHJMJNH@data?2se?2sak_93?4wav?$AA@+12
  05e08	89 85 52 fb ff
	ff		 mov	 DWORD PTR _sndconfig$[ebp+38742], eax
  05e0e	66 8b 0d 10 00
	00 00		 mov	 cx, WORD PTR ??_C@_0BD@FEHJMJNH@data?2se?2sak_93?4wav?$AA@+16
  05e15	66 89 8d 56 fb
	ff ff		 mov	 WORD PTR _sndconfig$[ebp+38746], cx
  05e1c	8a 15 12 00 00
	00		 mov	 dl, BYTE PTR ??_C@_0BD@FEHJMJNH@data?2se?2sak_93?4wav?$AA@+18
  05e22	88 95 58 fb ff
	ff		 mov	 BYTE PTR _sndconfig$[ebp+38748], dl
  05e28	68 b5 00 00 00	 push	 181			; 000000b5H
  05e2d	6a 00		 push	 0
  05e2f	8d 85 59 fb ff
	ff		 lea	 eax, DWORD PTR _sndconfig$[ebp+38749]
  05e35	50		 push	 eax
  05e36	e8 00 00 00 00	 call	 _memset
  05e3b	83 c4 0c	 add	 esp, 12			; 0000000cH
  05e3e	c6 85 0e fc ff
	ff 78		 mov	 BYTE PTR _sndconfig$[ebp+38930], 120 ; 00000078H
  05e45	c6 85 0f fc ff
	ff 00		 mov	 BYTE PTR _sndconfig$[ebp+38931], 0
  05e4c	c6 85 10 fc ff
	ff 00		 mov	 BYTE PTR _sndconfig$[ebp+38932], 0

; 230  : 	{  130,"data\\se\\sap_14.wav",100, 0, 0	} , //沧龙专用音效档	

  05e53	b8 82 00 00 00	 mov	 eax, 130		; 00000082H
  05e58	66 89 85 12 fc
	ff ff		 mov	 WORD PTR _sndconfig$[ebp+38934], ax
  05e5f	a1 00 00 00 00	 mov	 eax, DWORD PTR ??_C@_0BD@FEAGGLKE@data?2se?2sap_14?4wav?$AA@
  05e64	89 85 14 fc ff
	ff		 mov	 DWORD PTR _sndconfig$[ebp+38936], eax
  05e6a	8b 0d 04 00 00
	00		 mov	 ecx, DWORD PTR ??_C@_0BD@FEAGGLKE@data?2se?2sap_14?4wav?$AA@+4
  05e70	89 8d 18 fc ff
	ff		 mov	 DWORD PTR _sndconfig$[ebp+38940], ecx
  05e76	8b 15 08 00 00
	00		 mov	 edx, DWORD PTR ??_C@_0BD@FEAGGLKE@data?2se?2sap_14?4wav?$AA@+8
  05e7c	89 95 1c fc ff
	ff		 mov	 DWORD PTR _sndconfig$[ebp+38944], edx
  05e82	a1 0c 00 00 00	 mov	 eax, DWORD PTR ??_C@_0BD@FEAGGLKE@data?2se?2sap_14?4wav?$AA@+12
  05e87	89 85 20 fc ff
	ff		 mov	 DWORD PTR _sndconfig$[ebp+38948], eax
  05e8d	66 8b 0d 10 00
	00 00		 mov	 cx, WORD PTR ??_C@_0BD@FEAGGLKE@data?2se?2sap_14?4wav?$AA@+16
  05e94	66 89 8d 24 fc
	ff ff		 mov	 WORD PTR _sndconfig$[ebp+38952], cx
  05e9b	8a 15 12 00 00
	00		 mov	 dl, BYTE PTR ??_C@_0BD@FEAGGLKE@data?2se?2sap_14?4wav?$AA@+18
  05ea1	88 95 26 fc ff
	ff		 mov	 BYTE PTR _sndconfig$[ebp+38954], dl
  05ea7	68 b5 00 00 00	 push	 181			; 000000b5H
  05eac	6a 00		 push	 0
  05eae	8d 85 27 fc ff
	ff		 lea	 eax, DWORD PTR _sndconfig$[ebp+38955]
  05eb4	50		 push	 eax
  05eb5	e8 00 00 00 00	 call	 _memset
  05eba	83 c4 0c	 add	 esp, 12			; 0000000cH
  05ebd	c6 85 dc fc ff
	ff 64		 mov	 BYTE PTR _sndconfig$[ebp+39136], 100 ; 00000064H
  05ec4	c6 85 dd fc ff
	ff 00		 mov	 BYTE PTR _sndconfig$[ebp+39137], 0
  05ecb	c6 85 de fc ff
	ff 00		 mov	 BYTE PTR _sndconfig$[ebp+39138], 0

; 231  : 	{  410,"data\\se\\sak_94.wav",120, 0, 0 } , //老鹰音效档

  05ed2	b8 9a 01 00 00	 mov	 eax, 410		; 0000019aH
  05ed7	66 89 85 e0 fc
	ff ff		 mov	 WORD PTR _sndconfig$[ebp+39140], ax
  05ede	a1 00 00 00 00	 mov	 eax, DWORD PTR ??_C@_0BD@EJHMPJGP@data?2se?2sak_94?4wav?$AA@
  05ee3	89 85 e2 fc ff
	ff		 mov	 DWORD PTR _sndconfig$[ebp+39142], eax
  05ee9	8b 0d 04 00 00
	00		 mov	 ecx, DWORD PTR ??_C@_0BD@EJHMPJGP@data?2se?2sak_94?4wav?$AA@+4
  05eef	89 8d e6 fc ff
	ff		 mov	 DWORD PTR _sndconfig$[ebp+39146], ecx
  05ef5	8b 15 08 00 00
	00		 mov	 edx, DWORD PTR ??_C@_0BD@EJHMPJGP@data?2se?2sak_94?4wav?$AA@+8
  05efb	89 95 ea fc ff
	ff		 mov	 DWORD PTR _sndconfig$[ebp+39150], edx
  05f01	a1 0c 00 00 00	 mov	 eax, DWORD PTR ??_C@_0BD@EJHMPJGP@data?2se?2sak_94?4wav?$AA@+12
  05f06	89 85 ee fc ff
	ff		 mov	 DWORD PTR _sndconfig$[ebp+39154], eax
  05f0c	66 8b 0d 10 00
	00 00		 mov	 cx, WORD PTR ??_C@_0BD@EJHMPJGP@data?2se?2sak_94?4wav?$AA@+16
  05f13	66 89 8d f2 fc
	ff ff		 mov	 WORD PTR _sndconfig$[ebp+39158], cx
  05f1a	8a 15 12 00 00
	00		 mov	 dl, BYTE PTR ??_C@_0BD@EJHMPJGP@data?2se?2sak_94?4wav?$AA@+18
  05f20	88 95 f4 fc ff
	ff		 mov	 BYTE PTR _sndconfig$[ebp+39160], dl
  05f26	68 b5 00 00 00	 push	 181			; 000000b5H
  05f2b	6a 00		 push	 0
  05f2d	8d 85 f5 fc ff
	ff		 lea	 eax, DWORD PTR _sndconfig$[ebp+39161]
  05f33	50		 push	 eax
  05f34	e8 00 00 00 00	 call	 _memset
  05f39	83 c4 0c	 add	 esp, 12			; 0000000cH
  05f3c	c6 85 aa fd ff
	ff 78		 mov	 BYTE PTR _sndconfig$[ebp+39342], 120 ; 00000078H
  05f43	c6 85 ab fd ff
	ff 00		 mov	 BYTE PTR _sndconfig$[ebp+39343], 0
  05f4a	c6 85 ac fd ff
	ff 00		 mov	 BYTE PTR _sndconfig$[ebp+39344], 0

; 232  : 	{ -1 }	// Z??????????

  05f51	83 c8 ff	 or	 eax, -1
  05f54	66 89 85 ae fd
	ff ff		 mov	 WORD PTR _sndconfig$[ebp+39346], ax
  05f5b	68 cc 00 00 00	 push	 204			; 000000ccH
  05f60	6a 00		 push	 0
  05f62	8d 85 b0 fd ff
	ff		 lea	 eax, DWORD PTR _sndconfig$[ebp+39348]
  05f68	50		 push	 eax
  05f69	e8 00 00 00 00	 call	 _memset
  05f6e	83 c4 0c	 add	 esp, 12			; 0000000cH
; File c:\users\administrator\desktop\????? ??\????? ??\client source code\system\t_music.cpp

; 488  : 	for(d7=0;d7<TONE_MAX;d7++){		//????????

  05f71	c7 45 e8 00 00
	00 00		 mov	 DWORD PTR _d7$[ebp], 0
  05f78	eb 09		 jmp	 SHORT $LN10@InitDSound
$LN8@InitDSound:
  05f7a	8b 45 e8	 mov	 eax, DWORD PTR _d7$[ebp]
  05f7d	83 c0 01	 add	 eax, 1
  05f80	89 45 e8	 mov	 DWORD PTR _d7$[ebp], eax
$LN10@InitDSound:
  05f83	81 7d e8 f4 01
	00 00		 cmp	 DWORD PTR _d7$[ebp], 500 ; 000001f4H
  05f8a	7d 12		 jge	 SHORT $LN9@InitDSound

; 489  : 		tone_tbl[d7].voice_place = -1;

  05f8c	8b 45 e8	 mov	 eax, DWORD PTR _d7$[ebp]
  05f8f	c1 e0 05	 shl	 eax, 5
  05f92	c7 80 00 00 00
	00 ff ff ff ff	 mov	 DWORD PTR ?tone_tbl@@3PAUTONE_EQU@@A[eax], -1

; 490  : 	}

  05f9c	eb dc		 jmp	 SHORT $LN8@InitDSound
$LN9@InitDSound:

; 491  : 	//??????????  ?瑜e??????  ??????????
; 492  : 	int d1 = 0;		//SNDCONFIG????????

  05f9e	c7 85 f0 63 ff
	ff 00 00 00 00	 mov	 DWORD PTR _d1$[ebp], 0
$LN11@InitDSound:

; 493  : 	while(1){

  05fa8	b8 01 00 00 00	 mov	 eax, 1
  05fad	85 c0		 test	 eax, eax
  05faf	0f 84 01 04 00
	00		 je	 $InitDSound_err$80

; 494  : 		if(sndconfig[ d1 ].no == -1){		//???

  05fb5	69 85 f0 63 ff
	ff ce 00 00 00	 imul	 eax, DWORD PTR _d1$[ebp], 206
  05fbf	0f bf 8c 05 fc
	63 ff ff	 movsx	 ecx, WORD PTR _sndconfig$[ebp+eax]
  05fc7	83 f9 ff	 cmp	 ecx, -1
  05fca	75 0a		 jne	 SHORT $LN35@InitDSound

; 495  : 			goto InitDSound_ok;

  05fcc	e9 9d 05 00 00	 jmp	 $InitDSound_ok$81
  05fd1	e9 98 05 00 00	 jmp	 $InitDSound_ok$81
$LN35@InitDSound:

; 496  : 		}
; 497  : 		program_no = sndconfig[ d1 ].no;		//?瑙k????

  05fd6	69 85 f0 63 ff
	ff ce 00 00 00	 imul	 eax, DWORD PTR _d1$[ebp], 206
  05fe0	0f bf 8c 05 fc
	63 ff ff	 movsx	 ecx, WORD PTR _sndconfig$[ebp+eax]
  05fe8	89 8d 54 ff ff
	ff		 mov	 DWORD PTR _program_no$[ebp], ecx

; 498  : 		if(program_no > TONE_MAX){		//???????

  05fee	81 bd 54 ff ff
	ff f4 01 00 00	 cmp	 DWORD PTR _program_no$[ebp], 500 ; 000001f4H
  05ff8	7e 0a		 jle	 SHORT $LN37@InitDSound

; 499  : 			goto InitDSound_err2;	//???

  05ffa	e9 90 04 00 00	 jmp	 $InitDSound_err2$82
  05fff	e9 8b 04 00 00	 jmp	 $InitDSound_err2$82
$LN37@InitDSound:

; 500  : 		}
; 501  : 		tone_tbl[ program_no ].voice_place = tone_max_buf;		//????I颌V

  06004	8b 85 54 ff ff
	ff		 mov	 eax, DWORD PTR _program_no$[ebp]
  0600a	c1 e0 05	 shl	 eax, 5
  0600d	8b 0d 00 00 00
	00		 mov	 ecx, DWORD PTR ?tone_max_buf@@3HA ; tone_max_buf
  06013	89 88 00 00 00
	00		 mov	 DWORD PTR ?tone_tbl@@3PAUTONE_EQU@@A[eax], ecx

; 502  : 		//q?瑗x
; 503  : 		strcpy( fname, sndconfig[ d1 ].name );

  06019	69 85 f0 63 ff
	ff ce 00 00 00	 imul	 eax, DWORD PTR _d1$[ebp], 206
  06023	8d 8c 05 fe 63
	ff ff		 lea	 ecx, DWORD PTR _sndconfig$[ebp+eax+2]
  0602a	51		 push	 ecx
  0602b	8d 95 84 fe ff
	ff		 lea	 edx, DWORD PTR _fname$[ebp]
  06031	52		 push	 edx
  06032	e8 00 00 00 00	 call	 _strcpy
  06037	83 c4 08	 add	 esp, 8

; 504  : 
; 505  : 		if(sndconfig[ d1 ].vol < 0){		//????????????

  0603a	69 85 f0 63 ff
	ff ce 00 00 00	 imul	 eax, DWORD PTR _d1$[ebp], 206
  06044	0f be 8c 05 c6
	64 ff ff	 movsx	 ecx, BYTE PTR _sndconfig$[ebp+eax+202]
  0604c	85 c9		 test	 ecx, ecx
  0604e	7d 0a		 jge	 SHORT $LN39@InitDSound

; 506  : 			goto InitDSound_err2;

  06050	e9 3a 04 00 00	 jmp	 $InitDSound_err2$82
  06055	e9 35 04 00 00	 jmp	 $InitDSound_err2$82
$LN39@InitDSound:

; 507  : 		}
; 508  : 		tone_tbl[ program_no ].voice_volume = sndconfig[ d1 ].vol;		//??????颌V

  0605a	69 85 f0 63 ff
	ff ce 00 00 00	 imul	 eax, DWORD PTR _d1$[ebp], 206
  06064	0f be 8c 05 c6
	64 ff ff	 movsx	 ecx, BYTE PTR _sndconfig$[ebp+eax+202]
  0606c	8b 95 54 ff ff
	ff		 mov	 edx, DWORD PTR _program_no$[ebp]
  06072	c1 e2 05	 shl	 edx, 5
  06075	89 8a 0c 00 00
	00		 mov	 DWORD PTR ?tone_tbl@@3PAUTONE_EQU@@A[edx+12], ecx

; 509  : 
; 510  : 		if(sndconfig[ d1 ].note > 60){		//???k??????

  0607b	69 85 f0 63 ff
	ff ce 00 00 00	 imul	 eax, DWORD PTR _d1$[ebp], 206
  06085	0f be 8c 05 c7
	64 ff ff	 movsx	 ecx, BYTE PTR _sndconfig$[ebp+eax+203]
  0608d	83 f9 3c	 cmp	 ecx, 60			; 0000003cH
  06090	7e 0a		 jle	 SHORT $LN41@InitDSound

; 511  : 			goto InitDSound_err2;

  06092	e9 f8 03 00 00	 jmp	 $InitDSound_err2$82
  06097	e9 f3 03 00 00	 jmp	 $InitDSound_err2$82
$LN41@InitDSound:

; 512  : 		}
; 513  : 		if(sndconfig[ d1 ].note){		//???k?颌V

  0609c	69 85 f0 63 ff
	ff ce 00 00 00	 imul	 eax, DWORD PTR _d1$[ebp], 206
  060a6	0f be 8c 05 c7
	64 ff ff	 movsx	 ecx, BYTE PTR _sndconfig$[ebp+eax+203]
  060ae	85 c9		 test	 ecx, ecx
  060b0	74 23		 je	 SHORT $LN43@InitDSound

; 514  : 			tone_tbl[ program_no ].voice_note = sndconfig[ d1 ].note;

  060b2	69 85 f0 63 ff
	ff ce 00 00 00	 imul	 eax, DWORD PTR _d1$[ebp], 206
  060bc	0f be 8c 05 c7
	64 ff ff	 movsx	 ecx, BYTE PTR _sndconfig$[ebp+eax+203]
  060c4	8b 95 54 ff ff
	ff		 mov	 edx, DWORD PTR _program_no$[ebp]
  060ca	c1 e2 05	 shl	 edx, 5
  060cd	89 8a 10 00 00
	00		 mov	 DWORD PTR ?tone_tbl@@3PAUTONE_EQU@@A[edx+16], ecx

; 515  : 		} else {

  060d3	eb 13		 jmp	 SHORT $LN44@InitDSound
$LN43@InitDSound:

; 516  : 			tone_tbl[ program_no ].voice_note = 0;

  060d5	8b 85 54 ff ff
	ff		 mov	 eax, DWORD PTR _program_no$[ebp]
  060db	c1 e0 05	 shl	 eax, 5
  060de	c7 80 10 00 00
	00 00 00 00 00	 mov	 DWORD PTR ?tone_tbl@@3PAUTONE_EQU@@A[eax+16], 0
$LN44@InitDSound:

; 517  : 		}
; 518  : 		//?????????
; 519  : 		tone_tbl[ program_no ].voice_loop = sndconfig[ d1 ].loop_flg;

  060e8	69 85 f0 63 ff
	ff ce 00 00 00	 imul	 eax, DWORD PTR _d1$[ebp], 206
  060f2	0f be 8c 05 c8
	64 ff ff	 movsx	 ecx, BYTE PTR _sndconfig$[ebp+eax+204]
  060fa	8b 95 54 ff ff
	ff		 mov	 edx, DWORD PTR _program_no$[ebp]
  06100	c1 e2 05	 shl	 edx, 5
  06103	89 8a 08 00 00
	00		 mov	 DWORD PTR ?tone_tbl@@3PAUTONE_EQU@@A[edx+8], ecx

; 520  : 
; 521  : 		//???????????
; 522  : 		int d2;
; 523  : 		FILE *fp;
; 524  : 		fp = fopen( fname, "rb" );

  06109	8b f4		 mov	 esi, esp
  0610b	68 00 00 00 00	 push	 OFFSET ??_C@_02JDPG@rb?$AA@
  06110	8d 85 84 fe ff
	ff		 lea	 eax, DWORD PTR _fname$[ebp]
  06116	50		 push	 eax
  06117	ff 15 00 00 00
	00		 call	 DWORD PTR __imp__fopen
  0611d	83 c4 08	 add	 esp, 8
  06120	3b f4		 cmp	 esi, esp
  06122	e8 00 00 00 00	 call	 __RTC_CheckEsp
  06127	89 85 d8 63 ff
	ff		 mov	 DWORD PTR _fp$1[ebp], eax

; 525  : 		if( fp == NULL ){

  0612d	83 bd d8 63 ff
	ff 00		 cmp	 DWORD PTR _fp$1[ebp], 0
  06134	75 14		 jne	 SHORT $LN45@InitDSound

; 526  : 			d1++;		//SNDCONFIG??????

  06136	8b 85 f0 63 ff
	ff		 mov	 eax, DWORD PTR _d1$[ebp]
  0613c	83 c0 01	 add	 eax, 1
  0613f	89 85 f0 63 ff
	ff		 mov	 DWORD PTR _d1$[ebp], eax

; 527  : 			continue;

  06145	e9 5e fe ff ff	 jmp	 $LN11@InitDSound
$LN45@InitDSound:

; 528  : 		}
; 529  : 		d2 = 8;						//??????????????

  0614a	c7 85 e4 63 ff
	ff 08 00 00 00	 mov	 DWORD PTR _d2$2[ebp], 8

; 530  : 		d2 += 4;					//??????????????

  06154	8b 85 e4 63 ff
	ff		 mov	 eax, DWORD PTR _d2$2[ebp]
  0615a	83 c0 04	 add	 eax, 4
  0615d	89 85 e4 63 ff
	ff		 mov	 DWORD PTR _d2$2[ebp], eax

; 531  : 		d2 += 4;					//????  ?????????

  06163	8b 85 e4 63 ff
	ff		 mov	 eax, DWORD PTR _d2$2[ebp]
  06169	83 c0 04	 add	 eax, 4
  0616c	89 85 e4 63 ff
	ff		 mov	 DWORD PTR _d2$2[ebp], eax

; 532  : 		d2 += 8;					//????????

  06172	8b 85 e4 63 ff
	ff		 mov	 eax, DWORD PTR _d2$2[ebp]
  06178	83 c0 08	 add	 eax, 8
  0617b	89 85 e4 63 ff
	ff		 mov	 DWORD PTR _d2$2[ebp], eax

; 533  : 		fseek(fp,d2,SEEK_CUR);		//??????????h

  06181	8b f4		 mov	 esi, esp
  06183	6a 01		 push	 1
  06185	8b 85 e4 63 ff
	ff		 mov	 eax, DWORD PTR _d2$2[ebp]
  0618b	50		 push	 eax
  0618c	8b 8d d8 63 ff
	ff		 mov	 ecx, DWORD PTR _fp$1[ebp]
  06192	51		 push	 ecx
  06193	ff 15 00 00 00
	00		 call	 DWORD PTR __imp__fseek
  06199	83 c4 0c	 add	 esp, 12			; 0000000cH
  0619c	3b f4		 cmp	 esi, esp
  0619e	e8 00 00 00 00	 call	 __RTC_CheckEsp

; 534  : 		d2 = fgetc(fp);				//???????????

  061a3	8b f4		 mov	 esi, esp
  061a5	8b 85 d8 63 ff
	ff		 mov	 eax, DWORD PTR _fp$1[ebp]
  061ab	50		 push	 eax
  061ac	ff 15 00 00 00
	00		 call	 DWORD PTR __imp__fgetc
  061b2	83 c4 04	 add	 esp, 4
  061b5	3b f4		 cmp	 esi, esp
  061b7	e8 00 00 00 00	 call	 __RTC_CheckEsp
  061bc	89 85 e4 63 ff
	ff		 mov	 DWORD PTR _d2$2[ebp], eax

; 535  : 		d2 |= fgetc(fp) << 8;		//???????????

  061c2	8b f4		 mov	 esi, esp
  061c4	8b 85 d8 63 ff
	ff		 mov	 eax, DWORD PTR _fp$1[ebp]
  061ca	50		 push	 eax
  061cb	ff 15 00 00 00
	00		 call	 DWORD PTR __imp__fgetc
  061d1	83 c4 04	 add	 esp, 4
  061d4	3b f4		 cmp	 esi, esp
  061d6	e8 00 00 00 00	 call	 __RTC_CheckEsp
  061db	c1 e0 08	 shl	 eax, 8
  061de	0b 85 e4 63 ff
	ff		 or	 eax, DWORD PTR _d2$2[ebp]
  061e4	89 85 e4 63 ff
	ff		 mov	 DWORD PTR _d2$2[ebp], eax

; 536  : 		d2 |= fgetc(fp) << 16;		//???????????

  061ea	8b f4		 mov	 esi, esp
  061ec	8b 85 d8 63 ff
	ff		 mov	 eax, DWORD PTR _fp$1[ebp]
  061f2	50		 push	 eax
  061f3	ff 15 00 00 00
	00		 call	 DWORD PTR __imp__fgetc
  061f9	83 c4 04	 add	 esp, 4
  061fc	3b f4		 cmp	 esi, esp
  061fe	e8 00 00 00 00	 call	 __RTC_CheckEsp
  06203	c1 e0 10	 shl	 eax, 16			; 00000010H
  06206	0b 85 e4 63 ff
	ff		 or	 eax, DWORD PTR _d2$2[ebp]
  0620c	89 85 e4 63 ff
	ff		 mov	 DWORD PTR _d2$2[ebp], eax

; 537  : 		d2 |= fgetc(fp) << 24;		//???????????

  06212	8b f4		 mov	 esi, esp
  06214	8b 85 d8 63 ff
	ff		 mov	 eax, DWORD PTR _fp$1[ebp]
  0621a	50		 push	 eax
  0621b	ff 15 00 00 00
	00		 call	 DWORD PTR __imp__fgetc
  06221	83 c4 04	 add	 esp, 4
  06224	3b f4		 cmp	 esi, esp
  06226	e8 00 00 00 00	 call	 __RTC_CheckEsp
  0622b	c1 e0 18	 shl	 eax, 24			; 00000018H
  0622e	0b 85 e4 63 ff
	ff		 or	 eax, DWORD PTR _d2$2[ebp]
  06234	89 85 e4 63 ff
	ff		 mov	 DWORD PTR _d2$2[ebp], eax

; 538  : 		switch(d2){

  0623a	8b 85 e4 63 ff
	ff		 mov	 eax, DWORD PTR _d2$2[ebp]
  06240	89 85 d0 5d ff
	ff		 mov	 DWORD PTR tv4073[ebp], eax
  06246	81 bd d0 5d ff
	ff 11 2b 00 00	 cmp	 DWORD PTR tv4073[ebp], 11025 ; 00002b11H
  06250	74 1a		 je	 SHORT $LN46@InitDSound
  06252	81 bd d0 5d ff
	ff 22 56 00 00	 cmp	 DWORD PTR tv4073[ebp], 22050 ; 00005622H
  0625c	74 23		 je	 SHORT $LN47@InitDSound
  0625e	81 bd d0 5d ff
	ff 44 ac 00 00	 cmp	 DWORD PTR tv4073[ebp], 44100 ; 0000ac44H
  06268	74 2c		 je	 SHORT $LN48@InitDSound
  0626a	eb 3d		 jmp	 SHORT $LN13@InitDSound
$LN46@InitDSound:

; 539  : 			case 11025:
; 540  : 				tone_tbl[ program_no ].voice_rate = 25;

  0626c	8b 85 54 ff ff
	ff		 mov	 eax, DWORD PTR _program_no$[ebp]
  06272	c1 e0 05	 shl	 eax, 5
  06275	c7 80 18 00 00
	00 19 00 00 00	 mov	 DWORD PTR ?tone_tbl@@3PAUTONE_EQU@@A[eax+24], 25 ; 00000019H

; 541  : 				break;

  0627f	eb 28		 jmp	 SHORT $LN13@InitDSound
$LN47@InitDSound:

; 542  : 			case 22050:
; 543  : 				tone_tbl[ program_no ].voice_rate = 37;

  06281	8b 85 54 ff ff
	ff		 mov	 eax, DWORD PTR _program_no$[ebp]
  06287	c1 e0 05	 shl	 eax, 5
  0628a	c7 80 18 00 00
	00 25 00 00 00	 mov	 DWORD PTR ?tone_tbl@@3PAUTONE_EQU@@A[eax+24], 37 ; 00000025H

; 544  : 				break;

  06294	eb 13		 jmp	 SHORT $LN13@InitDSound
$LN48@InitDSound:

; 545  : 			case 44100:
; 546  : 				tone_tbl[ program_no ].voice_rate = 49;

  06296	8b 85 54 ff ff
	ff		 mov	 eax, DWORD PTR _program_no$[ebp]
  0629c	c1 e0 05	 shl	 eax, 5
  0629f	c7 80 18 00 00
	00 31 00 00 00	 mov	 DWORD PTR ?tone_tbl@@3PAUTONE_EQU@@A[eax+24], 49 ; 00000031H
$LN13@InitDSound:

; 547  : 				break;
; 548  : 		}
; 549  : 		fclose(fp);

  062a9	8b f4		 mov	 esi, esp
  062ab	8b 85 d8 63 ff
	ff		 mov	 eax, DWORD PTR _fp$1[ebp]
  062b1	50		 push	 eax
  062b2	ff 15 00 00 00
	00		 call	 DWORD PTR __imp__fclose
  062b8	83 c4 04	 add	 esp, 4
  062bb	3b f4		 cmp	 esi, esp
  062bd	e8 00 00 00 00	 call	 __RTC_CheckEsp

; 550  : 
; 551  : 		//????????????
; 552  : 		if( (hmmio = mmioOpen(fname, NULL, MMIO_READ | MMIO_ALLOCBUF )) == NULL){

  062c2	8b f4		 mov	 esi, esp
  062c4	68 00 00 01 00	 push	 65536			; 00010000H
  062c9	6a 00		 push	 0
  062cb	8d 85 84 fe ff
	ff		 lea	 eax, DWORD PTR _fname$[ebp]
  062d1	50		 push	 eax
  062d2	ff 15 00 00 00
	00		 call	 DWORD PTR __imp__mmioOpenA@12
  062d8	3b f4		 cmp	 esi, esp
  062da	e8 00 00 00 00	 call	 __RTC_CheckEsp
  062df	89 45 94	 mov	 DWORD PTR _hmmio$[ebp], eax
  062e2	83 7d 94 00	 cmp	 DWORD PTR _hmmio$[ebp], 0
  062e6	75 0a		 jne	 SHORT $LN49@InitDSound

; 553  : #ifdef  _STONDEBUG_
; 554  : 			MessageBox(hWnd, "打开WAV档失败！", "Error", MB_OK);
; 555  : #endif
; 556  : 			goto InitDSound_err;

  062e8	e9 c9 00 00 00	 jmp	 $InitDSound_err$80
  062ed	e9 c4 00 00 00	 jmp	 $InitDSound_err$80
$LN49@InitDSound:

; 557  : 		}
; 558  : 		//???????????
; 559  : 		if( WaveFormatRead( hmmio , &Wfmtx , &WaveSize ) == FALSE ){

  062f2	8d 85 60 ff ff
	ff		 lea	 eax, DWORD PTR _WaveSize$[ebp]
  062f8	50		 push	 eax
  062f9	8d 8d 78 ff ff
	ff		 lea	 ecx, DWORD PTR _Wfmtx$[ebp]
  062ff	51		 push	 ecx
  06300	8b 55 94	 mov	 edx, DWORD PTR _hmmio$[ebp]
  06303	52		 push	 edx
  06304	e8 00 00 00 00	 call	 ?WaveFormatRead@@YAHPAUHMMIO__@@PAUtWAVEFORMATEX@@PAK@Z ; WaveFormatRead
  06309	83 c4 0c	 add	 esp, 12			; 0000000cH
  0630c	85 c0		 test	 eax, eax
  0630e	75 0a		 jne	 SHORT $LN51@InitDSound

; 560  : #ifdef  _STONDEBUG_
; 561  : 			MessageBox(hWnd, "读取WAV格式失败！", "Error", MB_OK);
; 562  : #endif
; 563  : 			goto InitDSound_err;

  06310	e9 a1 00 00 00	 jmp	 $InitDSound_err$80
  06315	e9 9c 00 00 00	 jmp	 $InitDSound_err$80
$LN51@InitDSound:

; 564  : 		}
; 565  : 		DataSize = WaveSize;

  0631a	8b 85 60 ff ff
	ff		 mov	 eax, DWORD PTR _WaveSize$[ebp]
  06320	89 85 6c ff ff
	ff		 mov	 DWORD PTR _DataSize$[ebp], eax

; 566  : 		//??????????????
; 567  : 		if( dwSoundInit( &Wfmtx, DataSize, &pDSData_tone[tone_max_buf] ) == FALSE ){

  06326	a1 00 00 00 00	 mov	 eax, DWORD PTR ?tone_max_buf@@3HA ; tone_max_buf
  0632b	8d 0c 85 00 00
	00 00		 lea	 ecx, DWORD PTR ?pDSData_tone@@3PAPAUIDirectSoundBuffer@@A[eax*4]
  06332	51		 push	 ecx
  06333	8b 95 6c ff ff
	ff		 mov	 edx, DWORD PTR _DataSize$[ebp]
  06339	52		 push	 edx
  0633a	8d 85 78 ff ff
	ff		 lea	 eax, DWORD PTR _Wfmtx$[ebp]
  06340	50		 push	 eax
  06341	e8 00 00 00 00	 call	 ?dwSoundInit@@YAHPAUtWAVEFORMATEX@@KPAPAUIDirectSoundBuffer@@@Z ; dwSoundInit
  06346	83 c4 0c	 add	 esp, 12			; 0000000cH
  06349	85 c0		 test	 eax, eax
  0634b	75 04		 jne	 SHORT $LN53@InitDSound

; 568  : #ifdef  _STONDEBUG_
; 569  : 			MessageBox(hWnd, "初始化声音buffer失败！", "Error", MB_OK);
; 570  : #endif
; 571  : 			goto InitDSound_err;

  0634d	eb 67		 jmp	 SHORT $InitDSound_err$80
  0634f	eb 65		 jmp	 SHORT $InitDSound_err$80
$LN53@InitDSound:

; 572  : 		}
; 573  : 		//???????
; 574  : 		if( WaveDataRead( hmmio, &DataSize, pDSData_tone[tone_max_buf] ) == FALSE  ){

  06351	a1 00 00 00 00	 mov	 eax, DWORD PTR ?tone_max_buf@@3HA ; tone_max_buf
  06356	8b 0c 85 00 00
	00 00		 mov	 ecx, DWORD PTR ?pDSData_tone@@3PAPAUIDirectSoundBuffer@@A[eax*4]
  0635d	51		 push	 ecx
  0635e	8d 95 6c ff ff
	ff		 lea	 edx, DWORD PTR _DataSize$[ebp]
  06364	52		 push	 edx
  06365	8b 45 94	 mov	 eax, DWORD PTR _hmmio$[ebp]
  06368	50		 push	 eax
  06369	e8 00 00 00 00	 call	 ?WaveDataRead@@YAHPAUHMMIO__@@PAKPAUIDirectSoundBuffer@@@Z ; WaveDataRead
  0636e	83 c4 0c	 add	 esp, 12			; 0000000cH
  06371	85 c0		 test	 eax, eax
  06373	75 04		 jne	 SHORT $LN55@InitDSound

; 575  : #ifdef  _STONDEBUG_
; 576  : 			MessageBox(hWnd, "读取WAV档的资料失败！", "Error", MB_OK);
; 577  : #endif
; 578  : 			goto InitDSound_err;

  06375	eb 3f		 jmp	 SHORT $InitDSound_err$80
  06377	eb 3d		 jmp	 SHORT $InitDSound_err$80
$LN55@InitDSound:

; 579  : 		}
; 580  : 		mmioClose( hmmio , 0 );

  06379	8b f4		 mov	 esi, esp
  0637b	6a 00		 push	 0
  0637d	8b 45 94	 mov	 eax, DWORD PTR _hmmio$[ebp]
  06380	50		 push	 eax
  06381	ff 15 00 00 00
	00		 call	 DWORD PTR __imp__mmioClose@8
  06387	3b f4		 cmp	 esi, esp
  06389	e8 00 00 00 00	 call	 __RTC_CheckEsp

; 581  : 		hmmio = (HMMIO)-1;		//?????????

  0638e	c7 45 94 ff ff
	ff ff		 mov	 DWORD PTR _hmmio$[ebp], -1

; 582  : 		d1++;		//SNDCONFIG??????

  06395	8b 85 f0 63 ff
	ff		 mov	 eax, DWORD PTR _d1$[ebp]
  0639b	83 c0 01	 add	 eax, 1
  0639e	89 85 f0 63 ff
	ff		 mov	 DWORD PTR _d1$[ebp], eax

; 583  : 		tone_max_buf++;		//????I?

  063a4	a1 00 00 00 00	 mov	 eax, DWORD PTR ?tone_max_buf@@3HA ; tone_max_buf
  063a9	83 c0 01	 add	 eax, 1
  063ac	a3 00 00 00 00	 mov	 DWORD PTR ?tone_max_buf@@3HA, eax ; tone_max_buf

; 584  : 	}

  063b1	e9 f2 fb ff ff	 jmp	 $LN11@InitDSound
$InitDSound_err$80:

; 585  : 
; 586  : InitDSound_err:		//?????????????
; 587  : 	mmioClose( hmmio , 0 );

  063b6	8b f4		 mov	 esi, esp
  063b8	6a 00		 push	 0
  063ba	8b 45 94	 mov	 eax, DWORD PTR _hmmio$[ebp]
  063bd	50		 push	 eax
  063be	ff 15 00 00 00
	00		 call	 DWORD PTR __imp__mmioClose@8
  063c4	3b f4		 cmp	 esi, esp
  063c6	e8 00 00 00 00	 call	 __RTC_CheckEsp

; 588  : 	for(d7=0;d7<tone_max_buf;d7++)

  063cb	c7 45 e8 00 00
	00 00		 mov	 DWORD PTR _d7$[ebp], 0
  063d2	eb 09		 jmp	 SHORT $LN17@InitDSound
$LN15@InitDSound:
  063d4	8b 45 e8	 mov	 eax, DWORD PTR _d7$[ebp]
  063d7	83 c0 01	 add	 eax, 1
  063da	89 45 e8	 mov	 DWORD PTR _d7$[ebp], eax
$LN17@InitDSound:
  063dd	8b 45 e8	 mov	 eax, DWORD PTR _d7$[ebp]
  063e0	3b 05 00 00 00
	00		 cmp	 eax, DWORD PTR ?tone_max_buf@@3HA ; tone_max_buf
  063e6	7d 42		 jge	 SHORT $LN16@InitDSound

; 589  : 		RELEASE(pDSData_tone[d7]);

  063e8	8b 45 e8	 mov	 eax, DWORD PTR _d7$[ebp]
  063eb	83 3c 85 00 00
	00 00 00	 cmp	 DWORD PTR ?pDSData_tone@@3PAPAUIDirectSoundBuffer@@A[eax*4], 0
  063f3	74 33		 je	 SHORT $LN57@InitDSound
  063f5	8b 45 e8	 mov	 eax, DWORD PTR _d7$[ebp]
  063f8	8b 0c 85 00 00
	00 00		 mov	 ecx, DWORD PTR ?pDSData_tone@@3PAPAUIDirectSoundBuffer@@A[eax*4]
  063ff	8b 55 e8	 mov	 edx, DWORD PTR _d7$[ebp]
  06402	8b 04 95 00 00
	00 00		 mov	 eax, DWORD PTR ?pDSData_tone@@3PAPAUIDirectSoundBuffer@@A[edx*4]
  06409	8b 09		 mov	 ecx, DWORD PTR [ecx]
  0640b	8b f4		 mov	 esi, esp
  0640d	50		 push	 eax
  0640e	8b 51 08	 mov	 edx, DWORD PTR [ecx+8]
  06411	ff d2		 call	 edx
  06413	3b f4		 cmp	 esi, esp
  06415	e8 00 00 00 00	 call	 __RTC_CheckEsp
  0641a	8b 45 e8	 mov	 eax, DWORD PTR _d7$[ebp]
  0641d	c7 04 85 00 00
	00 00 00 00 00
	00		 mov	 DWORD PTR ?pDSData_tone@@3PAPAUIDirectSoundBuffer@@A[eax*4], 0
$LN57@InitDSound:
  06428	eb aa		 jmp	 SHORT $LN15@InitDSound
$LN16@InitDSound:

; 590  : 	RELEASE(pDSPrimary);

  0642a	83 3d 00 00 00
	00 00		 cmp	 DWORD PTR ?pDSPrimary@@3PAUIDirectSoundBuffer@@A, 0 ; pDSPrimary
  06431	74 26		 je	 SHORT $LN58@InitDSound
  06433	a1 00 00 00 00	 mov	 eax, DWORD PTR ?pDSPrimary@@3PAUIDirectSoundBuffer@@A ; pDSPrimary
  06438	8b 08		 mov	 ecx, DWORD PTR [eax]
  0643a	8b f4		 mov	 esi, esp
  0643c	8b 15 00 00 00
	00		 mov	 edx, DWORD PTR ?pDSPrimary@@3PAUIDirectSoundBuffer@@A ; pDSPrimary
  06442	52		 push	 edx
  06443	8b 41 08	 mov	 eax, DWORD PTR [ecx+8]
  06446	ff d0		 call	 eax
  06448	3b f4		 cmp	 esi, esp
  0644a	e8 00 00 00 00	 call	 __RTC_CheckEsp
  0644f	c7 05 00 00 00
	00 00 00 00 00	 mov	 DWORD PTR ?pDSPrimary@@3PAUIDirectSoundBuffer@@A, 0 ; pDSPrimary
$LN58@InitDSound:

; 591  : 	RELEASE(pDSound);

  06459	83 3d 00 00 00
	00 00		 cmp	 DWORD PTR ?pDSound@@3PAUIDirectSound@@A, 0 ; pDSound
  06460	74 26		 je	 SHORT $LN59@InitDSound
  06462	a1 00 00 00 00	 mov	 eax, DWORD PTR ?pDSound@@3PAUIDirectSound@@A ; pDSound
  06467	8b 08		 mov	 ecx, DWORD PTR [eax]
  06469	8b f4		 mov	 esi, esp
  0646b	8b 15 00 00 00
	00		 mov	 edx, DWORD PTR ?pDSound@@3PAUIDirectSound@@A ; pDSound
  06471	52		 push	 edx
  06472	8b 41 08	 mov	 eax, DWORD PTR [ecx+8]
  06475	ff d0		 call	 eax
  06477	3b f4		 cmp	 esi, esp
  06479	e8 00 00 00 00	 call	 __RTC_CheckEsp
  0647e	c7 05 00 00 00
	00 00 00 00 00	 mov	 DWORD PTR ?pDSound@@3PAUIDirectSound@@A, 0 ; pDSound
$LN59@InitDSound:

; 592  : 	return FALSE;

  06488	33 c0		 xor	 eax, eax
  0648a	e9 c2 02 00 00	 jmp	 $LN1@InitDSound
$InitDSound_err2$82:

; 593  : 
; 594  : InitDSound_err2:	//e????????
; 595  : 	if(hmmio != (HMMIO)-1){		//????????????

  0648f	83 7d 94 ff	 cmp	 DWORD PTR _hmmio$[ebp], -1
  06493	74 15		 je	 SHORT $LN60@InitDSound

; 596  : 		mmioClose( hmmio , 0 );

  06495	8b f4		 mov	 esi, esp
  06497	6a 00		 push	 0
  06499	8b 45 94	 mov	 eax, DWORD PTR _hmmio$[ebp]
  0649c	50		 push	 eax
  0649d	ff 15 00 00 00
	00		 call	 DWORD PTR __imp__mmioClose@8
  064a3	3b f4		 cmp	 esi, esp
  064a5	e8 00 00 00 00	 call	 __RTC_CheckEsp
$LN60@InitDSound:

; 597  : 	}
; 598  : #ifdef  _STONDEBUG_
; 599  : 	MessageBox(hWnd, "?琛@e???????", "Error", MB_OK);
; 600  : #endif
; 601  : 	for(d7=0;d7<tone_max_buf;d7++)

  064aa	c7 45 e8 00 00
	00 00		 mov	 DWORD PTR _d7$[ebp], 0
  064b1	eb 09		 jmp	 SHORT $LN20@InitDSound
$LN18@InitDSound:
  064b3	8b 45 e8	 mov	 eax, DWORD PTR _d7$[ebp]
  064b6	83 c0 01	 add	 eax, 1
  064b9	89 45 e8	 mov	 DWORD PTR _d7$[ebp], eax
$LN20@InitDSound:
  064bc	8b 45 e8	 mov	 eax, DWORD PTR _d7$[ebp]
  064bf	3b 05 00 00 00
	00		 cmp	 eax, DWORD PTR ?tone_max_buf@@3HA ; tone_max_buf
  064c5	7d 42		 jge	 SHORT $LN19@InitDSound

; 602  : 		RELEASE(pDSData_tone[d7]);

  064c7	8b 45 e8	 mov	 eax, DWORD PTR _d7$[ebp]
  064ca	83 3c 85 00 00
	00 00 00	 cmp	 DWORD PTR ?pDSData_tone@@3PAPAUIDirectSoundBuffer@@A[eax*4], 0
  064d2	74 33		 je	 SHORT $LN61@InitDSound
  064d4	8b 45 e8	 mov	 eax, DWORD PTR _d7$[ebp]
  064d7	8b 0c 85 00 00
	00 00		 mov	 ecx, DWORD PTR ?pDSData_tone@@3PAPAUIDirectSoundBuffer@@A[eax*4]
  064de	8b 55 e8	 mov	 edx, DWORD PTR _d7$[ebp]
  064e1	8b 04 95 00 00
	00 00		 mov	 eax, DWORD PTR ?pDSData_tone@@3PAPAUIDirectSoundBuffer@@A[edx*4]
  064e8	8b 09		 mov	 ecx, DWORD PTR [ecx]
  064ea	8b f4		 mov	 esi, esp
  064ec	50		 push	 eax
  064ed	8b 51 08	 mov	 edx, DWORD PTR [ecx+8]
  064f0	ff d2		 call	 edx
  064f2	3b f4		 cmp	 esi, esp
  064f4	e8 00 00 00 00	 call	 __RTC_CheckEsp
  064f9	8b 45 e8	 mov	 eax, DWORD PTR _d7$[ebp]
  064fc	c7 04 85 00 00
	00 00 00 00 00
	00		 mov	 DWORD PTR ?pDSData_tone@@3PAPAUIDirectSoundBuffer@@A[eax*4], 0
$LN61@InitDSound:
  06507	eb aa		 jmp	 SHORT $LN18@InitDSound
$LN19@InitDSound:

; 603  : 	RELEASE(pDSPrimary);

  06509	83 3d 00 00 00
	00 00		 cmp	 DWORD PTR ?pDSPrimary@@3PAUIDirectSoundBuffer@@A, 0 ; pDSPrimary
  06510	74 26		 je	 SHORT $LN62@InitDSound
  06512	a1 00 00 00 00	 mov	 eax, DWORD PTR ?pDSPrimary@@3PAUIDirectSoundBuffer@@A ; pDSPrimary
  06517	8b 08		 mov	 ecx, DWORD PTR [eax]
  06519	8b f4		 mov	 esi, esp
  0651b	8b 15 00 00 00
	00		 mov	 edx, DWORD PTR ?pDSPrimary@@3PAUIDirectSoundBuffer@@A ; pDSPrimary
  06521	52		 push	 edx
  06522	8b 41 08	 mov	 eax, DWORD PTR [ecx+8]
  06525	ff d0		 call	 eax
  06527	3b f4		 cmp	 esi, esp
  06529	e8 00 00 00 00	 call	 __RTC_CheckEsp
  0652e	c7 05 00 00 00
	00 00 00 00 00	 mov	 DWORD PTR ?pDSPrimary@@3PAUIDirectSoundBuffer@@A, 0 ; pDSPrimary
$LN62@InitDSound:

; 604  : 	RELEASE(pDSound);

  06538	83 3d 00 00 00
	00 00		 cmp	 DWORD PTR ?pDSound@@3PAUIDirectSound@@A, 0 ; pDSound
  0653f	74 26		 je	 SHORT $LN63@InitDSound
  06541	a1 00 00 00 00	 mov	 eax, DWORD PTR ?pDSound@@3PAUIDirectSound@@A ; pDSound
  06546	8b 08		 mov	 ecx, DWORD PTR [eax]
  06548	8b f4		 mov	 esi, esp
  0654a	8b 15 00 00 00
	00		 mov	 edx, DWORD PTR ?pDSound@@3PAUIDirectSound@@A ; pDSound
  06550	52		 push	 edx
  06551	8b 41 08	 mov	 eax, DWORD PTR [ecx+8]
  06554	ff d0		 call	 eax
  06556	3b f4		 cmp	 esi, esp
  06558	e8 00 00 00 00	 call	 __RTC_CheckEsp
  0655d	c7 05 00 00 00
	00 00 00 00 00	 mov	 DWORD PTR ?pDSound@@3PAUIDirectSound@@A, 0 ; pDSound
$LN63@InitDSound:

; 605  : 	return FALSE;

  06567	33 c0		 xor	 eax, eax
  06569	e9 e3 01 00 00	 jmp	 $LN1@InitDSound
$InitDSound_ok$81:

; 606  : 
; 607  : InitDSound_ok:		//正悬?
; 608  : 	// ?????瑙k?????
; 609  : 	for(d7=0;d7<VOICE_MAX;d7++){

  0656e	c7 45 e8 00 00
	00 00		 mov	 DWORD PTR _d7$[ebp], 0
  06575	eb 09		 jmp	 SHORT $LN23@InitDSound
$LN21@InitDSound:
  06577	8b 45 e8	 mov	 eax, DWORD PTR _d7$[ebp]
  0657a	83 c0 01	 add	 eax, 1
  0657d	89 45 e8	 mov	 DWORD PTR _d7$[ebp], eax
$LN23@InitDSound:
  06580	83 7d e8 40	 cmp	 DWORD PTR _d7$[ebp], 64	; 00000040H
  06584	0f 8d 5f 01 00
	00		 jge	 $LN22@InitDSound

; 610  : 		if( pDSound->DuplicateSoundBuffer(pDSData_tone[0],&pDSData[d7]) != DS_OK ){

  0658a	8b 45 e8	 mov	 eax, DWORD PTR _d7$[ebp]
  0658d	8d 0c 85 00 00
	00 00		 lea	 ecx, DWORD PTR ?pDSData@@3PAPAUIDirectSoundBuffer@@A[eax*4]
  06594	8b f4		 mov	 esi, esp
  06596	51		 push	 ecx
  06597	ba 04 00 00 00	 mov	 edx, 4
  0659c	6b c2 00	 imul	 eax, edx, 0
  0659f	8b 88 00 00 00
	00		 mov	 ecx, DWORD PTR ?pDSData_tone@@3PAPAUIDirectSoundBuffer@@A[eax]
  065a5	51		 push	 ecx
  065a6	8b 15 00 00 00
	00		 mov	 edx, DWORD PTR ?pDSound@@3PAUIDirectSound@@A ; pDSound
  065ac	8b 02		 mov	 eax, DWORD PTR [edx]
  065ae	8b 0d 00 00 00
	00		 mov	 ecx, DWORD PTR ?pDSound@@3PAUIDirectSound@@A ; pDSound
  065b4	51		 push	 ecx
  065b5	8b 50 14	 mov	 edx, DWORD PTR [eax+20]
  065b8	ff d2		 call	 edx
  065ba	3b f4		 cmp	 esi, esp
  065bc	e8 00 00 00 00	 call	 __RTC_CheckEsp
  065c1	85 c0		 test	 eax, eax
  065c3	0f 84 1b 01 00
	00		 je	 $LN64@InitDSound

; 611  : 			for(d7=0;d7<tone_max_buf;d7++)

  065c9	c7 45 e8 00 00
	00 00		 mov	 DWORD PTR _d7$[ebp], 0
  065d0	eb 09		 jmp	 SHORT $LN26@InitDSound
$LN24@InitDSound:
  065d2	8b 45 e8	 mov	 eax, DWORD PTR _d7$[ebp]
  065d5	83 c0 01	 add	 eax, 1
  065d8	89 45 e8	 mov	 DWORD PTR _d7$[ebp], eax
$LN26@InitDSound:
  065db	8b 45 e8	 mov	 eax, DWORD PTR _d7$[ebp]
  065de	3b 05 00 00 00
	00		 cmp	 eax, DWORD PTR ?tone_max_buf@@3HA ; tone_max_buf
  065e4	7d 42		 jge	 SHORT $LN25@InitDSound

; 612  : 				RELEASE(pDSData_tone[d7]);

  065e6	8b 45 e8	 mov	 eax, DWORD PTR _d7$[ebp]
  065e9	83 3c 85 00 00
	00 00 00	 cmp	 DWORD PTR ?pDSData_tone@@3PAPAUIDirectSoundBuffer@@A[eax*4], 0
  065f1	74 33		 je	 SHORT $LN65@InitDSound
  065f3	8b 45 e8	 mov	 eax, DWORD PTR _d7$[ebp]
  065f6	8b 0c 85 00 00
	00 00		 mov	 ecx, DWORD PTR ?pDSData_tone@@3PAPAUIDirectSoundBuffer@@A[eax*4]
  065fd	8b 55 e8	 mov	 edx, DWORD PTR _d7$[ebp]
  06600	8b 04 95 00 00
	00 00		 mov	 eax, DWORD PTR ?pDSData_tone@@3PAPAUIDirectSoundBuffer@@A[edx*4]
  06607	8b 09		 mov	 ecx, DWORD PTR [ecx]
  06609	8b f4		 mov	 esi, esp
  0660b	50		 push	 eax
  0660c	8b 51 08	 mov	 edx, DWORD PTR [ecx+8]
  0660f	ff d2		 call	 edx
  06611	3b f4		 cmp	 esi, esp
  06613	e8 00 00 00 00	 call	 __RTC_CheckEsp
  06618	8b 45 e8	 mov	 eax, DWORD PTR _d7$[ebp]
  0661b	c7 04 85 00 00
	00 00 00 00 00
	00		 mov	 DWORD PTR ?pDSData_tone@@3PAPAUIDirectSoundBuffer@@A[eax*4], 0
$LN65@InitDSound:
  06626	eb aa		 jmp	 SHORT $LN24@InitDSound
$LN25@InitDSound:

; 613  : 			for(d7=0;d7<VOICE_MAX;d7++)

  06628	c7 45 e8 00 00
	00 00		 mov	 DWORD PTR _d7$[ebp], 0
  0662f	eb 09		 jmp	 SHORT $LN29@InitDSound
$LN27@InitDSound:
  06631	8b 45 e8	 mov	 eax, DWORD PTR _d7$[ebp]
  06634	83 c0 01	 add	 eax, 1
  06637	89 45 e8	 mov	 DWORD PTR _d7$[ebp], eax
$LN29@InitDSound:
  0663a	83 7d e8 40	 cmp	 DWORD PTR _d7$[ebp], 64	; 00000040H
  0663e	7d 42		 jge	 SHORT $LN28@InitDSound

; 614  : 				RELEASE(pDSData[d7]);

  06640	8b 45 e8	 mov	 eax, DWORD PTR _d7$[ebp]
  06643	83 3c 85 00 00
	00 00 00	 cmp	 DWORD PTR ?pDSData@@3PAPAUIDirectSoundBuffer@@A[eax*4], 0
  0664b	74 33		 je	 SHORT $LN66@InitDSound
  0664d	8b 45 e8	 mov	 eax, DWORD PTR _d7$[ebp]
  06650	8b 0c 85 00 00
	00 00		 mov	 ecx, DWORD PTR ?pDSData@@3PAPAUIDirectSoundBuffer@@A[eax*4]
  06657	8b 55 e8	 mov	 edx, DWORD PTR _d7$[ebp]
  0665a	8b 04 95 00 00
	00 00		 mov	 eax, DWORD PTR ?pDSData@@3PAPAUIDirectSoundBuffer@@A[edx*4]
  06661	8b 09		 mov	 ecx, DWORD PTR [ecx]
  06663	8b f4		 mov	 esi, esp
  06665	50		 push	 eax
  06666	8b 51 08	 mov	 edx, DWORD PTR [ecx+8]
  06669	ff d2		 call	 edx
  0666b	3b f4		 cmp	 esi, esp
  0666d	e8 00 00 00 00	 call	 __RTC_CheckEsp
  06672	8b 45 e8	 mov	 eax, DWORD PTR _d7$[ebp]
  06675	c7 04 85 00 00
	00 00 00 00 00
	00		 mov	 DWORD PTR ?pDSData@@3PAPAUIDirectSoundBuffer@@A[eax*4], 0
$LN66@InitDSound:
  06680	eb af		 jmp	 SHORT $LN27@InitDSound
$LN28@InitDSound:

; 615  : 			RELEASE(pDSPrimary);

  06682	83 3d 00 00 00
	00 00		 cmp	 DWORD PTR ?pDSPrimary@@3PAUIDirectSoundBuffer@@A, 0 ; pDSPrimary
  06689	74 26		 je	 SHORT $LN67@InitDSound
  0668b	a1 00 00 00 00	 mov	 eax, DWORD PTR ?pDSPrimary@@3PAUIDirectSoundBuffer@@A ; pDSPrimary
  06690	8b 08		 mov	 ecx, DWORD PTR [eax]
  06692	8b f4		 mov	 esi, esp
  06694	8b 15 00 00 00
	00		 mov	 edx, DWORD PTR ?pDSPrimary@@3PAUIDirectSoundBuffer@@A ; pDSPrimary
  0669a	52		 push	 edx
  0669b	8b 41 08	 mov	 eax, DWORD PTR [ecx+8]
  0669e	ff d0		 call	 eax
  066a0	3b f4		 cmp	 esi, esp
  066a2	e8 00 00 00 00	 call	 __RTC_CheckEsp
  066a7	c7 05 00 00 00
	00 00 00 00 00	 mov	 DWORD PTR ?pDSPrimary@@3PAUIDirectSoundBuffer@@A, 0 ; pDSPrimary
$LN67@InitDSound:

; 616  : 			RELEASE(pDSound);

  066b1	83 3d 00 00 00
	00 00		 cmp	 DWORD PTR ?pDSound@@3PAUIDirectSound@@A, 0 ; pDSound
  066b8	74 26		 je	 SHORT $LN68@InitDSound
  066ba	a1 00 00 00 00	 mov	 eax, DWORD PTR ?pDSound@@3PAUIDirectSound@@A ; pDSound
  066bf	8b 08		 mov	 ecx, DWORD PTR [eax]
  066c1	8b f4		 mov	 esi, esp
  066c3	8b 15 00 00 00
	00		 mov	 edx, DWORD PTR ?pDSound@@3PAUIDirectSound@@A ; pDSound
  066c9	52		 push	 edx
  066ca	8b 41 08	 mov	 eax, DWORD PTR [ecx+8]
  066cd	ff d0		 call	 eax
  066cf	3b f4		 cmp	 esi, esp
  066d1	e8 00 00 00 00	 call	 __RTC_CheckEsp
  066d6	c7 05 00 00 00
	00 00 00 00 00	 mov	 DWORD PTR ?pDSound@@3PAUIDirectSound@@A, 0 ; pDSound
$LN68@InitDSound:

; 617  : #ifdef  _STONDEBUG_
; 618  : 			MessageBox(hWnd, "复制声音buffer失败！", "Error", MB_OK);
; 619  : #endif
; 620  : 		return FALSE;

  066e0	33 c0		 xor	 eax, eax
  066e2	eb 6d		 jmp	 SHORT $LN1@InitDSound
$LN64@InitDSound:

; 621  : 		}
; 622  : 	}

  066e4	e9 8e fe ff ff	 jmp	 $LN21@InitDSound
$LN22@InitDSound:

; 623  : 	// ????????k?瑗x??
; 624  : 	pDSPrimary->GetVolume(&primaryVolume);

  066e9	8b f4		 mov	 esi, esp
  066eb	68 00 00 00 00	 push	 OFFSET ?primaryVolume@@3JA ; primaryVolume
  066f0	a1 00 00 00 00	 mov	 eax, DWORD PTR ?pDSPrimary@@3PAUIDirectSoundBuffer@@A ; pDSPrimary
  066f5	8b 08		 mov	 ecx, DWORD PTR [eax]
  066f7	8b 15 00 00 00
	00		 mov	 edx, DWORD PTR ?pDSPrimary@@3PAUIDirectSoundBuffer@@A ; pDSPrimary
  066fd	52		 push	 edx
  066fe	8b 41 18	 mov	 eax, DWORD PTR [ecx+24]
  06701	ff d0		 call	 eax
  06703	3b f4		 cmp	 esi, esp
  06705	e8 00 00 00 00	 call	 __RTC_CheckEsp

; 625  : 	// ?????
; 626  : 	pDSPrimary->GetPan(&primaryPan);

  0670a	8b f4		 mov	 esi, esp
  0670c	68 00 00 00 00	 push	 OFFSET ?primaryPan@@3JA	; primaryPan
  06711	a1 00 00 00 00	 mov	 eax, DWORD PTR ?pDSPrimary@@3PAUIDirectSoundBuffer@@A ; pDSPrimary
  06716	8b 08		 mov	 ecx, DWORD PTR [eax]
  06718	8b 15 00 00 00
	00		 mov	 edx, DWORD PTR ?pDSPrimary@@3PAUIDirectSoundBuffer@@A ; pDSPrimary
  0671e	52		 push	 edx
  0671f	8b 41 1c	 mov	 eax, DWORD PTR [ecx+28]
  06722	ff d0		 call	 eax
  06724	3b f4		 cmp	 esi, esp
  06726	e8 00 00 00 00	 call	 __RTC_CheckEsp

; 627  : 	// ?
; 628  : 	pDSPrimary->GetFrequency((DWORD*)&primaryFrequency);

  0672b	8b f4		 mov	 esi, esp
  0672d	68 00 00 00 00	 push	 OFFSET ?primaryFrequency@@3JA ; primaryFrequency
  06732	a1 00 00 00 00	 mov	 eax, DWORD PTR ?pDSPrimary@@3PAUIDirectSoundBuffer@@A ; pDSPrimary
  06737	8b 08		 mov	 ecx, DWORD PTR [eax]
  06739	8b 15 00 00 00
	00		 mov	 edx, DWORD PTR ?pDSPrimary@@3PAUIDirectSoundBuffer@@A ; pDSPrimary
  0673f	52		 push	 edx
  06740	8b 41 20	 mov	 eax, DWORD PTR [ecx+32]
  06743	ff d0		 call	 eax
  06745	3b f4		 cmp	 esi, esp
  06747	e8 00 00 00 00	 call	 __RTC_CheckEsp

; 629  : 	return TRUE;

  0674c	b8 01 00 00 00	 mov	 eax, 1
$LN1@InitDSound:

; 630  : }

  06751	52		 push	 edx
  06752	8b cd		 mov	 ecx, ebp
  06754	50		 push	 eax
  06755	8d 15 00 00 00
	00		 lea	 edx, DWORD PTR $LN79@InitDSound
  0675b	e8 00 00 00 00	 call	 @_RTC_CheckStackVars@8
  06760	58		 pop	 eax
  06761	5a		 pop	 edx
  06762	5f		 pop	 edi
  06763	5e		 pop	 esi
  06764	5b		 pop	 ebx
  06765	8b 4d fc	 mov	 ecx, DWORD PTR __$ArrayPad$[ebp]
  06768	33 cd		 xor	 ecx, ebp
  0676a	e8 00 00 00 00	 call	 @__security_check_cookie@4
  0676f	81 c4 30 a2 00
	00		 add	 esp, 41520		; 0000a230H
  06775	3b ec		 cmp	 ebp, esp
  06777	e8 00 00 00 00	 call	 __RTC_CheckEsp
  0677c	8b e5		 mov	 esp, ebp
  0677e	5d		 pop	 ebp
  0677f	c3		 ret	 0
$LN79@InitDSound:
  06780	07 00 00 00	 DD	 7
  06784	00 00 00 00	 DD	 $LN78@InitDSound
$LN78@InitDSound:
  06788	bc ff ff ff	 DD	 -68			; ffffffbcH
  0678c	24 00 00 00	 DD	 36			; 00000024H
  06790	00 00 00 00	 DD	 $LN71@InitDSound
  06794	a0 ff ff ff	 DD	 -96			; ffffffa0H
  06798	12 00 00 00	 DD	 18			; 00000012H
  0679c	00 00 00 00	 DD	 $LN72@InitDSound
  067a0	78 ff ff ff	 DD	 -136			; ffffff78H
  067a4	12 00 00 00	 DD	 18			; 00000012H
  067a8	00 00 00 00	 DD	 $LN73@InitDSound
  067ac	6c ff ff ff	 DD	 -148			; ffffff6cH
  067b0	04 00 00 00	 DD	 4
  067b4	00 00 00 00	 DD	 $LN74@InitDSound
  067b8	60 ff ff ff	 DD	 -160			; ffffff60H
  067bc	04 00 00 00	 DD	 4
  067c0	00 00 00 00	 DD	 $LN75@InitDSound
  067c4	84 fe ff ff	 DD	 -380			; fffffe84H
  067c8	c8 00 00 00	 DD	 200			; 000000c8H
  067cc	00 00 00 00	 DD	 $LN76@InitDSound
  067d0	fc 63 ff ff	 DD	 -39940			; ffff63fcH
  067d4	80 9a 00 00	 DD	 39552			; 00009a80H
  067d8	00 00 00 00	 DD	 $LN77@InitDSound
$LN77@InitDSound:
  067dc	73		 DB	 115			; 00000073H
  067dd	6e		 DB	 110			; 0000006eH
  067de	64		 DB	 100			; 00000064H
  067df	63		 DB	 99			; 00000063H
  067e0	6f		 DB	 111			; 0000006fH
  067e1	6e		 DB	 110			; 0000006eH
  067e2	66		 DB	 102			; 00000066H
  067e3	69		 DB	 105			; 00000069H
  067e4	67		 DB	 103			; 00000067H
  067e5	00		 DB	 0
$LN76@InitDSound:
  067e6	66		 DB	 102			; 00000066H
  067e7	6e		 DB	 110			; 0000006eH
  067e8	61		 DB	 97			; 00000061H
  067e9	6d		 DB	 109			; 0000006dH
  067ea	65		 DB	 101			; 00000065H
  067eb	00		 DB	 0
$LN75@InitDSound:
  067ec	57		 DB	 87			; 00000057H
  067ed	61		 DB	 97			; 00000061H
  067ee	76		 DB	 118			; 00000076H
  067ef	65		 DB	 101			; 00000065H
  067f0	53		 DB	 83			; 00000053H
  067f1	69		 DB	 105			; 00000069H
  067f2	7a		 DB	 122			; 0000007aH
  067f3	65		 DB	 101			; 00000065H
  067f4	00		 DB	 0
$LN74@InitDSound:
  067f5	44		 DB	 68			; 00000044H
  067f6	61		 DB	 97			; 00000061H
  067f7	74		 DB	 116			; 00000074H
  067f8	61		 DB	 97			; 00000061H
  067f9	53		 DB	 83			; 00000053H
  067fa	69		 DB	 105			; 00000069H
  067fb	7a		 DB	 122			; 0000007aH
  067fc	65		 DB	 101			; 00000065H
  067fd	00		 DB	 0
$LN73@InitDSound:
  067fe	57		 DB	 87			; 00000057H
  067ff	66		 DB	 102			; 00000066H
  06800	6d		 DB	 109			; 0000006dH
  06801	74		 DB	 116			; 00000074H
  06802	78		 DB	 120			; 00000078H
  06803	00		 DB	 0
$LN72@InitDSound:
  06804	70		 DB	 112			; 00000070H
  06805	63		 DB	 99			; 00000063H
  06806	6d		 DB	 109			; 0000006dH
  06807	77		 DB	 119			; 00000077H
  06808	66		 DB	 102			; 00000066H
  06809	00		 DB	 0
$LN71@InitDSound:
  0680a	64		 DB	 100			; 00000064H
  0680b	73		 DB	 115			; 00000073H
  0680c	62		 DB	 98			; 00000062H
  0680d	64		 DB	 100			; 00000064H
  0680e	65		 DB	 101			; 00000065H
  0680f	73		 DB	 115			; 00000073H
  06810	63		 DB	 99			; 00000063H
  06811	00		 DB	 0
?InitDSound@@YAHXZ ENDP					; InitDSound
_TEXT	ENDS
; Function compile flags: /Odtp /RTCsu /ZI
; File c:\users\administrator\desktop\????? ??\????? ??\client source code\system\t_music.cpp
;	COMDAT ?num_check@@YAHPAU_iobuf@@@Z
_TEXT	SEGMENT
_d0$ = -8						; size = 4
_fp$ = 8						; size = 4
?num_check@@YAHPAU_iobuf@@@Z PROC			; num_check, COMDAT

; 1014 : {

  00000	55		 push	 ebp
  00001	8b ec		 mov	 ebp, esp
  00003	81 ec cc 00 00
	00		 sub	 esp, 204		; 000000ccH
  00009	53		 push	 ebx
  0000a	56		 push	 esi
  0000b	57		 push	 edi
  0000c	8d bd 34 ff ff
	ff		 lea	 edi, DWORD PTR [ebp-204]
  00012	b9 33 00 00 00	 mov	 ecx, 51			; 00000033H
  00017	b8 cc cc cc cc	 mov	 eax, -858993460		; ccccccccH
  0001c	f3 ab		 rep stosd

; 1015 : 	int d0;
; 1016 : 	d0 = f_get( fp );		//??????

  0001e	8b 45 08	 mov	 eax, DWORD PTR _fp$[ebp]
  00021	50		 push	 eax
  00022	e8 00 00 00 00	 call	 ?f_get@@YAHPAU_iobuf@@@Z ; f_get
  00027	83 c4 04	 add	 esp, 4
  0002a	89 45 f8	 mov	 DWORD PTR _d0$[ebp], eax

; 1017 : 	fseek(fp,-1,SEEK_CUR);		//??????

  0002d	8b f4		 mov	 esi, esp
  0002f	6a 01		 push	 1
  00031	6a ff		 push	 -1
  00033	8b 45 08	 mov	 eax, DWORD PTR _fp$[ebp]
  00036	50		 push	 eax
  00037	ff 15 00 00 00
	00		 call	 DWORD PTR __imp__fseek
  0003d	83 c4 0c	 add	 esp, 12			; 0000000cH
  00040	3b f4		 cmp	 esi, esp
  00042	e8 00 00 00 00	 call	 __RTC_CheckEsp

; 1018 : 	if( d0 >= '0' && d0<= '9' )		//???

  00047	83 7d f8 30	 cmp	 DWORD PTR _d0$[ebp], 48	; 00000030H
  0004b	7c 0f		 jl	 SHORT $LN2@num_check
  0004d	83 7d f8 39	 cmp	 DWORD PTR _d0$[ebp], 57	; 00000039H
  00051	7f 09		 jg	 SHORT $LN2@num_check

; 1019 : 		return 1;		//??

  00053	b8 01 00 00 00	 mov	 eax, 1
  00058	eb 04		 jmp	 SHORT $LN1@num_check

; 1020 : 	else

  0005a	eb 02		 jmp	 SHORT $LN1@num_check
$LN2@num_check:

; 1021 : 		return 0;		//???

  0005c	33 c0		 xor	 eax, eax
$LN1@num_check:

; 1022 : }

  0005e	5f		 pop	 edi
  0005f	5e		 pop	 esi
  00060	5b		 pop	 ebx
  00061	81 c4 cc 00 00
	00		 add	 esp, 204		; 000000ccH
  00067	3b ec		 cmp	 ebp, esp
  00069	e8 00 00 00 00	 call	 __RTC_CheckEsp
  0006e	8b e5		 mov	 esp, ebp
  00070	5d		 pop	 ebp
  00071	c3		 ret	 0
?num_check@@YAHPAU_iobuf@@@Z ENDP			; num_check
_TEXT	ENDS
; Function compile flags: /Odtp /RTCsu /ZI
; File c:\users\administrator\desktop\????? ??\????? ??\client source code\system\t_music.cpp
;	COMDAT ?get_num@@YAHPAU_iobuf@@@Z
_TEXT	SEGMENT
_d1$ = -20						; size = 4
_d0$ = -8						; size = 4
_fp$ = 8						; size = 4
?get_num@@YAHPAU_iobuf@@@Z PROC				; get_num, COMDAT

; 931  : {

  00000	55		 push	 ebp
  00001	8b ec		 mov	 ebp, esp
  00003	81 ec d8 00 00
	00		 sub	 esp, 216		; 000000d8H
  00009	53		 push	 ebx
  0000a	56		 push	 esi
  0000b	57		 push	 edi
  0000c	8d bd 28 ff ff
	ff		 lea	 edi, DWORD PTR [ebp-216]
  00012	b9 36 00 00 00	 mov	 ecx, 54			; 00000036H
  00017	b8 cc cc cc cc	 mov	 eax, -858993460		; ccccccccH
  0001c	f3 ab		 rep stosd
$LN2@get_num:

; 932  : 	int d0,d1;
; 933  : 	while(1){

  0001e	b8 01 00 00 00	 mov	 eax, 1
  00023	85 c0		 test	 eax, eax
  00025	74 2d		 je	 SHORT $LN3@get_num

; 934  : 		d0 = f_get( fp );		//????k???

  00027	8b 45 08	 mov	 eax, DWORD PTR _fp$[ebp]
  0002a	50		 push	 eax
  0002b	e8 00 00 00 00	 call	 ?f_get@@YAHPAU_iobuf@@@Z ; f_get
  00030	83 c4 04	 add	 esp, 4
  00033	89 45 f8	 mov	 DWORD PTR _d0$[ebp], eax

; 935  : 		if( d0 == EOF )

  00036	83 7d f8 ff	 cmp	 DWORD PTR _d0$[ebp], -1
  0003a	75 08		 jne	 SHORT $LN6@get_num

; 936  : 			return d0;

  0003c	8b 45 f8	 mov	 eax, DWORD PTR _d0$[ebp]
  0003f	e9 84 00 00 00	 jmp	 $LN1@get_num
$LN6@get_num:

; 937  : 		if( d0 >= '0' && d0<= '9' )		//???

  00044	83 7d f8 30	 cmp	 DWORD PTR _d0$[ebp], 48	; 00000030H
  00048	7c 08		 jl	 SHORT $LN7@get_num
  0004a	83 7d f8 39	 cmp	 DWORD PTR _d0$[ebp], 57	; 00000039H
  0004e	7f 02		 jg	 SHORT $LN7@get_num

; 938  : 			break;						//??????

  00050	eb 02		 jmp	 SHORT $LN3@get_num
$LN7@get_num:

; 939  : 	}

  00052	eb ca		 jmp	 SHORT $LN2@get_num
$LN3@get_num:

; 940  : 	d1=d0-'0';		//?????

  00054	8b 45 f8	 mov	 eax, DWORD PTR _d0$[ebp]
  00057	83 e8 30	 sub	 eax, 48			; 00000030H
  0005a	89 45 ec	 mov	 DWORD PTR _d1$[ebp], eax
$LN4@get_num:

; 941  : 
; 942  : 	while(1){

  0005d	b8 01 00 00 00	 mov	 eax, 1
  00062	85 c0		 test	 eax, eax
  00064	74 45		 je	 SHORT $LN5@get_num

; 943  : 		d0 = fgetc( fp );		//????k???

  00066	8b f4		 mov	 esi, esp
  00068	8b 45 08	 mov	 eax, DWORD PTR _fp$[ebp]
  0006b	50		 push	 eax
  0006c	ff 15 00 00 00
	00		 call	 DWORD PTR __imp__fgetc
  00072	83 c4 04	 add	 esp, 4
  00075	3b f4		 cmp	 esi, esp
  00077	e8 00 00 00 00	 call	 __RTC_CheckEsp
  0007c	89 45 f8	 mov	 DWORD PTR _d0$[ebp], eax

; 944  : 		if( d0 == EOF )

  0007f	83 7d f8 ff	 cmp	 DWORD PTR _d0$[ebp], -1
  00083	75 02		 jne	 SHORT $LN8@get_num

; 945  : 			break;

  00085	eb 24		 jmp	 SHORT $LN5@get_num
$LN8@get_num:

; 946  : 		if( d0 < '0' || d0> '9' )		//???

  00087	83 7d f8 30	 cmp	 DWORD PTR _d0$[ebp], 48	; 00000030H
  0008b	7c 06		 jl	 SHORT $LN10@get_num
  0008d	83 7d f8 39	 cmp	 DWORD PTR _d0$[ebp], 57	; 00000039H
  00091	7e 02		 jle	 SHORT $LN9@get_num
$LN10@get_num:

; 947  : 			break;						//?????????

  00093	eb 16		 jmp	 SHORT $LN5@get_num
$LN9@get_num:

; 948  : 		d1*=10;		//???????

  00095	6b 45 ec 0a	 imul	 eax, DWORD PTR _d1$[ebp], 10
  00099	89 45 ec	 mov	 DWORD PTR _d1$[ebp], eax

; 949  : 		d1+=d0-'0';	//

  0009c	8b 45 f8	 mov	 eax, DWORD PTR _d0$[ebp]
  0009f	8b 4d ec	 mov	 ecx, DWORD PTR _d1$[ebp]
  000a2	8d 54 01 d0	 lea	 edx, DWORD PTR [ecx+eax-48]
  000a6	89 55 ec	 mov	 DWORD PTR _d1$[ebp], edx

; 950  : 	}

  000a9	eb b2		 jmp	 SHORT $LN4@get_num
$LN5@get_num:

; 951  : 	fseek(fp,-1,SEEK_CUR);		//??????

  000ab	8b f4		 mov	 esi, esp
  000ad	6a 01		 push	 1
  000af	6a ff		 push	 -1
  000b1	8b 45 08	 mov	 eax, DWORD PTR _fp$[ebp]
  000b4	50		 push	 eax
  000b5	ff 15 00 00 00
	00		 call	 DWORD PTR __imp__fseek
  000bb	83 c4 0c	 add	 esp, 12			; 0000000cH
  000be	3b f4		 cmp	 esi, esp
  000c0	e8 00 00 00 00	 call	 __RTC_CheckEsp

; 952  : 	return d1;

  000c5	8b 45 ec	 mov	 eax, DWORD PTR _d1$[ebp]
$LN1@get_num:

; 953  : }

  000c8	5f		 pop	 edi
  000c9	5e		 pop	 esi
  000ca	5b		 pop	 ebx
  000cb	81 c4 d8 00 00
	00		 add	 esp, 216		; 000000d8H
  000d1	3b ec		 cmp	 ebp, esp
  000d3	e8 00 00 00 00	 call	 __RTC_CheckEsp
  000d8	8b e5		 mov	 esp, ebp
  000da	5d		 pop	 ebp
  000db	c3		 ret	 0
?get_num@@YAHPAU_iobuf@@@Z ENDP				; get_num
_TEXT	ENDS
; Function compile flags: /Odtp /RTCsu /ZI
; File c:\users\administrator\desktop\????? ??\????? ??\client source code\system\t_music.cpp
;	COMDAT ?f_get@@YAHPAU_iobuf@@@Z
_TEXT	SEGMENT
_d0$ = -8						; size = 4
_fp$ = 8						; size = 4
?f_get@@YAHPAU_iobuf@@@Z PROC				; f_get, COMDAT

; 911  : {

  00000	55		 push	 ebp
  00001	8b ec		 mov	 ebp, esp
  00003	81 ec cc 00 00
	00		 sub	 esp, 204		; 000000ccH
  00009	53		 push	 ebx
  0000a	56		 push	 esi
  0000b	57		 push	 edi
  0000c	8d bd 34 ff ff
	ff		 lea	 edi, DWORD PTR [ebp-204]
  00012	b9 33 00 00 00	 mov	 ecx, 51			; 00000033H
  00017	b8 cc cc cc cc	 mov	 eax, -858993460		; ccccccccH
  0001c	f3 ab		 rep stosd
$LN2@f_get:

; 912  : 	int d0;
; 913  : 	while(1){

  0001e	b8 01 00 00 00	 mov	 eax, 1
  00023	85 c0		 test	 eax, eax
  00025	74 36		 je	 SHORT $LN3@f_get

; 914  : 		d0 = fgetc( fp );		//????k???

  00027	8b f4		 mov	 esi, esp
  00029	8b 45 08	 mov	 eax, DWORD PTR _fp$[ebp]
  0002c	50		 push	 eax
  0002d	ff 15 00 00 00
	00		 call	 DWORD PTR __imp__fgetc
  00033	83 c4 04	 add	 esp, 4
  00036	3b f4		 cmp	 esi, esp
  00038	e8 00 00 00 00	 call	 __RTC_CheckEsp
  0003d	89 45 f8	 mov	 DWORD PTR _d0$[ebp], eax

; 915  : 		if( d0 == EOF )

  00040	83 7d f8 ff	 cmp	 DWORD PTR _d0$[ebp], -1
  00044	75 05		 jne	 SHORT $LN4@f_get

; 916  : 			return d0;

  00046	8b 45 f8	 mov	 eax, DWORD PTR _d0$[ebp]
  00049	eb 2a		 jmp	 SHORT $LN1@f_get
$LN4@f_get:

; 917  : 		if( d0 == '\t' )		//???

  0004b	83 7d f8 09	 cmp	 DWORD PTR _d0$[ebp], 9
  0004f	75 02		 jne	 SHORT $LN5@f_get

; 918  : 			continue;

  00051	eb cb		 jmp	 SHORT $LN2@f_get
$LN5@f_get:

; 919  : 		if( d0 != 0x20 )		//?????

  00053	83 7d f8 20	 cmp	 DWORD PTR _d0$[ebp], 32	; 00000020H
  00057	74 02		 je	 SHORT $LN6@f_get

; 920  : 			break;

  00059	eb 02		 jmp	 SHORT $LN3@f_get
$LN6@f_get:

; 921  : 	}

  0005b	eb c1		 jmp	 SHORT $LN2@f_get
$LN3@f_get:

; 922  : 	if(d0 >= 'A' && d0 <= 'Z')		//??恣??

  0005d	83 7d f8 41	 cmp	 DWORD PTR _d0$[ebp], 65	; 00000041H
  00061	7c 0f		 jl	 SHORT $LN7@f_get
  00063	83 7d f8 5a	 cmp	 DWORD PTR _d0$[ebp], 90	; 0000005aH
  00067	7f 09		 jg	 SHORT $LN7@f_get

; 923  : 		d0+=0x20;					//

  00069	8b 45 f8	 mov	 eax, DWORD PTR _d0$[ebp]
  0006c	83 c0 20	 add	 eax, 32			; 00000020H
  0006f	89 45 f8	 mov	 DWORD PTR _d0$[ebp], eax
$LN7@f_get:

; 924  : 	return d0;

  00072	8b 45 f8	 mov	 eax, DWORD PTR _d0$[ebp]
$LN1@f_get:

; 925  : }

  00075	5f		 pop	 edi
  00076	5e		 pop	 esi
  00077	5b		 pop	 ebx
  00078	81 c4 cc 00 00
	00		 add	 esp, 204		; 000000ccH
  0007e	3b ec		 cmp	 ebp, esp
  00080	e8 00 00 00 00	 call	 __RTC_CheckEsp
  00085	8b e5		 mov	 esp, ebp
  00087	5d		 pop	 ebp
  00088	c3		 ret	 0
?f_get@@YAHPAU_iobuf@@@Z ENDP				; f_get
_TEXT	ENDS
; Function compile flags: /Odtp /RTCsu /ZI
; File c:\users\administrator\desktop\????? ??\????? ??\client source code\system\t_music.cpp
;	COMDAT ?dwSoundInit@@YAHPAUtWAVEFORMATEX@@KPAPAUIDirectSoundBuffer@@@Z
_TEXT	SEGMENT
_dsbufferdesc$ = -44					; size = 36
__$ArrayPad$ = -4					; size = 4
_pWfmtx$ = 8						; size = 4
_DataSize$ = 12						; size = 4
_ppData$ = 16						; size = 4
?dwSoundInit@@YAHPAUtWAVEFORMATEX@@KPAPAUIDirectSoundBuffer@@@Z PROC ; dwSoundInit, COMDAT

; 358  : {

  00000	55		 push	 ebp
  00001	8b ec		 mov	 ebp, esp
  00003	81 ec f0 00 00
	00		 sub	 esp, 240		; 000000f0H
  00009	53		 push	 ebx
  0000a	56		 push	 esi
  0000b	57		 push	 edi
  0000c	8d bd 10 ff ff
	ff		 lea	 edi, DWORD PTR [ebp-240]
  00012	b9 3c 00 00 00	 mov	 ecx, 60			; 0000003cH
  00017	b8 cc cc cc cc	 mov	 eax, -858993460		; ccccccccH
  0001c	f3 ab		 rep stosd
  0001e	a1 00 00 00 00	 mov	 eax, DWORD PTR ___security_cookie
  00023	33 c5		 xor	 eax, ebp
  00025	89 45 fc	 mov	 DWORD PTR __$ArrayPad$[ebp], eax

; 359  : 	DSBUFFERDESC  dsbufferdesc;
; 360  : 
; 361  : 	//??????????????
; 362  : 	memset( &dsbufferdesc , 0  , sizeof( DSBUFFERDESC ) );

  00028	6a 24		 push	 36			; 00000024H
  0002a	6a 00		 push	 0
  0002c	8d 45 d4	 lea	 eax, DWORD PTR _dsbufferdesc$[ebp]
  0002f	50		 push	 eax
  00030	e8 00 00 00 00	 call	 _memset
  00035	83 c4 0c	 add	 esp, 12			; 0000000cH

; 363  : 	dsbufferdesc.dwSize = sizeof( DSBUFFERDESC );

  00038	c7 45 d4 24 00
	00 00		 mov	 DWORD PTR _dsbufferdesc$[ebp], 36 ; 00000024H

; 364  : //	dsbufferdesc.dwFlags = DSBCAPS_CTRLPOSITIONNOTIFY | DSBCAPS_CTRLDEFAULT | DSBCAPS_GETCURRENTPOSITION2; 
; 365  : #if ACTIVE
; 366  : 	dsbufferdesc.dwFlags = DSBCAPS_STATIC | /*DSBCAPS_CTRLDEFAULT*/DSBCAPS_CTRLPAN | DSBCAPS_CTRLVOLUME | DSBCAPS_CTRLFREQUENCY | DSBCAPS_GETCURRENTPOSITION2 | DSBCAPS_GLOBALFOCUS; 

  0003f	c7 45 d8 e2 80
	01 00		 mov	 DWORD PTR _dsbufferdesc$[ebp+4], 98530 ; 000180e2H

; 367  : #else
; 368  : 	dsbufferdesc.dwFlags = DSBCAPS_STATIC | /*DSBCAPS_CTRLDEFAULT*/DSBCAPS_CTRLPAN | DSBCAPS_CTRLVOLUME | DSBCAPS_CTRLFREQUENCY | DSBCAPS_GETCURRENTPOSITION2; 
; 369  : #endif
; 370  :     dsbufferdesc.dwBufferBytes = DataSize;

  00046	8b 45 0c	 mov	 eax, DWORD PTR _DataSize$[ebp]
  00049	89 45 dc	 mov	 DWORD PTR _dsbufferdesc$[ebp+8], eax

; 371  :     dsbufferdesc.lpwfxFormat   = pWfmtx;

  0004c	8b 45 08	 mov	 eax, DWORD PTR _pWfmtx$[ebp]
  0004f	89 45 e4	 mov	 DWORD PTR _dsbufferdesc$[ebp+16], eax

; 372  :     if ( pDSound->CreateSoundBuffer( &dsbufferdesc , ppData , NULL ) != DS_OK )

  00052	8b f4		 mov	 esi, esp
  00054	6a 00		 push	 0
  00056	8b 45 10	 mov	 eax, DWORD PTR _ppData$[ebp]
  00059	50		 push	 eax
  0005a	8d 4d d4	 lea	 ecx, DWORD PTR _dsbufferdesc$[ebp]
  0005d	51		 push	 ecx
  0005e	8b 15 00 00 00
	00		 mov	 edx, DWORD PTR ?pDSound@@3PAUIDirectSound@@A ; pDSound
  00064	8b 02		 mov	 eax, DWORD PTR [edx]
  00066	8b 0d 00 00 00
	00		 mov	 ecx, DWORD PTR ?pDSound@@3PAUIDirectSound@@A ; pDSound
  0006c	51		 push	 ecx
  0006d	8b 50 0c	 mov	 edx, DWORD PTR [eax+12]
  00070	ff d2		 call	 edx
  00072	3b f4		 cmp	 esi, esp
  00074	e8 00 00 00 00	 call	 __RTC_CheckEsp
  00079	85 c0		 test	 eax, eax
  0007b	74 04		 je	 SHORT $LN2@dwSoundIni

; 373  : 		return FALSE;

  0007d	33 c0		 xor	 eax, eax
  0007f	eb 05		 jmp	 SHORT $LN1@dwSoundIni
$LN2@dwSoundIni:

; 374  : 
; 375  : 	return TRUE;

  00081	b8 01 00 00 00	 mov	 eax, 1
$LN1@dwSoundIni:

; 376  : }

  00086	52		 push	 edx
  00087	8b cd		 mov	 ecx, ebp
  00089	50		 push	 eax
  0008a	8d 15 00 00 00
	00		 lea	 edx, DWORD PTR $LN6@dwSoundIni
  00090	e8 00 00 00 00	 call	 @_RTC_CheckStackVars@8
  00095	58		 pop	 eax
  00096	5a		 pop	 edx
  00097	5f		 pop	 edi
  00098	5e		 pop	 esi
  00099	5b		 pop	 ebx
  0009a	8b 4d fc	 mov	 ecx, DWORD PTR __$ArrayPad$[ebp]
  0009d	33 cd		 xor	 ecx, ebp
  0009f	e8 00 00 00 00	 call	 @__security_check_cookie@4
  000a4	81 c4 f0 00 00
	00		 add	 esp, 240		; 000000f0H
  000aa	3b ec		 cmp	 ebp, esp
  000ac	e8 00 00 00 00	 call	 __RTC_CheckEsp
  000b1	8b e5		 mov	 esp, ebp
  000b3	5d		 pop	 ebp
  000b4	c3		 ret	 0
  000b5	0f 1f 00	 npad	 3
$LN6@dwSoundIni:
  000b8	01 00 00 00	 DD	 1
  000bc	00 00 00 00	 DD	 $LN5@dwSoundIni
$LN5@dwSoundIni:
  000c0	d4 ff ff ff	 DD	 -44			; ffffffd4H
  000c4	24 00 00 00	 DD	 36			; 00000024H
  000c8	00 00 00 00	 DD	 $LN4@dwSoundIni
$LN4@dwSoundIni:
  000cc	64		 DB	 100			; 00000064H
  000cd	73		 DB	 115			; 00000073H
  000ce	62		 DB	 98			; 00000062H
  000cf	75		 DB	 117			; 00000075H
  000d0	66		 DB	 102			; 00000066H
  000d1	66		 DB	 102			; 00000066H
  000d2	65		 DB	 101			; 00000065H
  000d3	72		 DB	 114			; 00000072H
  000d4	64		 DB	 100			; 00000064H
  000d5	65		 DB	 101			; 00000065H
  000d6	73		 DB	 115			; 00000073H
  000d7	63		 DB	 99			; 00000063H
  000d8	00		 DB	 0
?dwSoundInit@@YAHPAUtWAVEFORMATEX@@KPAPAUIDirectSoundBuffer@@@Z ENDP ; dwSoundInit
_TEXT	ENDS
; Function compile flags: /Odtp /RTCsu /ZI
; File c:\users\administrator\desktop\????? ??\????? ??\client source code\system\t_music.cpp
;	COMDAT ?WaveDataRead@@YAHPAUHMMIO__@@PAKPAUIDirectSoundBuffer@@@Z
_TEXT	SEGMENT
_hmmio$ = 8						; size = 4
_pDataSize$ = 12					; size = 4
_pData$ = 16						; size = 4
?WaveDataRead@@YAHPAUHMMIO__@@PAKPAUIDirectSoundBuffer@@@Z PROC ; WaveDataRead, COMDAT

; 331  : {

  00000	55		 push	 ebp
  00001	8b ec		 mov	 ebp, esp
  00003	81 ec c0 00 00
	00		 sub	 esp, 192		; 000000c0H
  00009	53		 push	 ebx
  0000a	56		 push	 esi
  0000b	57		 push	 edi
  0000c	8d bd 40 ff ff
	ff		 lea	 edi, DWORD PTR [ebp-192]
  00012	b9 30 00 00 00	 mov	 ecx, 48			; 00000030H
  00017	b8 cc cc cc cc	 mov	 eax, -858993460		; ccccccccH
  0001c	f3 ab		 rep stosd

; 332  : //	BYTE	*pDSbuffData;
; 333  : 
; 334  : 	//??????????
; 335  : 	if( pData->Lock(0 , *pDataSize , (LPVOID*)&pDSbuffData , pDataSize , NULL , 0, 0 ) != DS_OK )

  0001e	8b f4		 mov	 esi, esp
  00020	6a 00		 push	 0
  00022	6a 00		 push	 0
  00024	6a 00		 push	 0
  00026	8b 45 0c	 mov	 eax, DWORD PTR _pDataSize$[ebp]
  00029	50		 push	 eax
  0002a	68 00 00 00 00	 push	 OFFSET ?pDSbuffData@@3PAEA
  0002f	8b 4d 0c	 mov	 ecx, DWORD PTR _pDataSize$[ebp]
  00032	8b 11		 mov	 edx, DWORD PTR [ecx]
  00034	52		 push	 edx
  00035	6a 00		 push	 0
  00037	8b 45 10	 mov	 eax, DWORD PTR _pData$[ebp]
  0003a	8b 08		 mov	 ecx, DWORD PTR [eax]
  0003c	8b 55 10	 mov	 edx, DWORD PTR _pData$[ebp]
  0003f	52		 push	 edx
  00040	8b 41 2c	 mov	 eax, DWORD PTR [ecx+44]
  00043	ff d0		 call	 eax
  00045	3b f4		 cmp	 esi, esp
  00047	e8 00 00 00 00	 call	 __RTC_CheckEsp
  0004c	85 c0		 test	 eax, eax
  0004e	74 04		 je	 SHORT $LN2@WaveDataRe

; 336  : 		return FALSE;

  00050	33 c0		 xor	 eax, eax
  00052	eb 5a		 jmp	 SHORT $LN1@WaveDataRe
$LN2@WaveDataRe:

; 337  : 
; 338  : 	//???????????
; 339  : 	*pDataSize = (DWORD)mmioRead(hmmio , (char*)pDSbuffData , *pDataSize);

  00054	8b f4		 mov	 esi, esp
  00056	8b 45 0c	 mov	 eax, DWORD PTR _pDataSize$[ebp]
  00059	8b 08		 mov	 ecx, DWORD PTR [eax]
  0005b	51		 push	 ecx
  0005c	8b 15 00 00 00
	00		 mov	 edx, DWORD PTR ?pDSbuffData@@3PAEA
  00062	52		 push	 edx
  00063	8b 45 08	 mov	 eax, DWORD PTR _hmmio$[ebp]
  00066	50		 push	 eax
  00067	ff 15 00 00 00
	00		 call	 DWORD PTR __imp__mmioRead@12
  0006d	3b f4		 cmp	 esi, esp
  0006f	e8 00 00 00 00	 call	 __RTC_CheckEsp
  00074	8b 4d 0c	 mov	 ecx, DWORD PTR _pDataSize$[ebp]
  00077	89 01		 mov	 DWORD PTR [ecx], eax

; 340  : 
; 341  : 	//?????
; 342  :     if( pData->Unlock( pDSbuffData , *pDataSize , NULL , 0 ) != DS_OK )

  00079	8b f4		 mov	 esi, esp
  0007b	6a 00		 push	 0
  0007d	6a 00		 push	 0
  0007f	8b 45 0c	 mov	 eax, DWORD PTR _pDataSize$[ebp]
  00082	8b 08		 mov	 ecx, DWORD PTR [eax]
  00084	51		 push	 ecx
  00085	8b 15 00 00 00
	00		 mov	 edx, DWORD PTR ?pDSbuffData@@3PAEA
  0008b	52		 push	 edx
  0008c	8b 45 10	 mov	 eax, DWORD PTR _pData$[ebp]
  0008f	8b 08		 mov	 ecx, DWORD PTR [eax]
  00091	8b 55 10	 mov	 edx, DWORD PTR _pData$[ebp]
  00094	52		 push	 edx
  00095	8b 41 4c	 mov	 eax, DWORD PTR [ecx+76]
  00098	ff d0		 call	 eax
  0009a	3b f4		 cmp	 esi, esp
  0009c	e8 00 00 00 00	 call	 __RTC_CheckEsp
  000a1	85 c0		 test	 eax, eax
  000a3	74 04		 je	 SHORT $LN3@WaveDataRe

; 343  : 		return FALSE;

  000a5	33 c0		 xor	 eax, eax
  000a7	eb 05		 jmp	 SHORT $LN1@WaveDataRe
$LN3@WaveDataRe:

; 344  : 
; 345  : 	return TRUE;

  000a9	b8 01 00 00 00	 mov	 eax, 1
$LN1@WaveDataRe:

; 346  : }

  000ae	5f		 pop	 edi
  000af	5e		 pop	 esi
  000b0	5b		 pop	 ebx
  000b1	81 c4 c0 00 00
	00		 add	 esp, 192		; 000000c0H
  000b7	3b ec		 cmp	 ebp, esp
  000b9	e8 00 00 00 00	 call	 __RTC_CheckEsp
  000be	8b e5		 mov	 esp, ebp
  000c0	5d		 pop	 ebp
  000c1	c3		 ret	 0
?WaveDataRead@@YAHPAUHMMIO__@@PAKPAUIDirectSoundBuffer@@@Z ENDP ; WaveDataRead
_TEXT	ENDS
; Function compile flags: /Odtp /RTCsu /ZI
; File c:\users\administrator\desktop\????? ??\????? ??\client source code\system\t_music.cpp
;	COMDAT ?WaveFormatRead@@YAHPAUHMMIO__@@PAUtWAVEFORMATEX@@PAK@Z
_TEXT	SEGMENT
_child$ = -56						; size = 20
_parent$ = -28						; size = 20
__$ArrayPad$ = -4					; size = 4
_hmmio$ = 8						; size = 4
_pWfmtx$ = 12						; size = 4
_pDataSize$ = 16					; size = 4
?WaveFormatRead@@YAHPAUHMMIO__@@PAUtWAVEFORMATEX@@PAK@Z PROC ; WaveFormatRead, COMDAT

; 267  : {

  00000	55		 push	 ebp
  00001	8b ec		 mov	 ebp, esp
  00003	81 ec fc 00 00
	00		 sub	 esp, 252		; 000000fcH
  00009	53		 push	 ebx
  0000a	56		 push	 esi
  0000b	57		 push	 edi
  0000c	8d bd 04 ff ff
	ff		 lea	 edi, DWORD PTR [ebp-252]
  00012	b9 3f 00 00 00	 mov	 ecx, 63			; 0000003fH
  00017	b8 cc cc cc cc	 mov	 eax, -858993460		; ccccccccH
  0001c	f3 ab		 rep stosd
  0001e	a1 00 00 00 00	 mov	 eax, DWORD PTR ___security_cookie
  00023	33 c5		 xor	 eax, ebp
  00025	89 45 fc	 mov	 DWORD PTR __$ArrayPad$[ebp], eax

; 268  : 	MMCKINFO parent, child;
; 269  : 
; 270  : 	parent.ckid = (FOURCC)0;

  00028	c7 45 e4 00 00
	00 00		 mov	 DWORD PTR _parent$[ebp], 0

; 271  : 	parent.cksize = 0;

  0002f	c7 45 e8 00 00
	00 00		 mov	 DWORD PTR _parent$[ebp+4], 0

; 272  : 	parent.fccType = (FOURCC)0;

  00036	c7 45 ec 00 00
	00 00		 mov	 DWORD PTR _parent$[ebp+8], 0

; 273  : 	parent.dwDataOffset = 0;

  0003d	c7 45 f0 00 00
	00 00		 mov	 DWORD PTR _parent$[ebp+12], 0

; 274  : 	parent.dwFlags = 0;

  00044	c7 45 f4 00 00
	00 00		 mov	 DWORD PTR _parent$[ebp+16], 0

; 275  : 	child = parent;

  0004b	8b 45 e4	 mov	 eax, DWORD PTR _parent$[ebp]
  0004e	89 45 c8	 mov	 DWORD PTR _child$[ebp], eax
  00051	8b 4d e8	 mov	 ecx, DWORD PTR _parent$[ebp+4]
  00054	89 4d cc	 mov	 DWORD PTR _child$[ebp+4], ecx
  00057	8b 55 ec	 mov	 edx, DWORD PTR _parent$[ebp+8]
  0005a	89 55 d0	 mov	 DWORD PTR _child$[ebp+8], edx
  0005d	8b 45 f0	 mov	 eax, DWORD PTR _parent$[ebp+12]
  00060	89 45 d4	 mov	 DWORD PTR _child$[ebp+12], eax
  00063	8b 4d f4	 mov	 ecx, DWORD PTR _parent$[ebp+16]
  00066	89 4d d8	 mov	 DWORD PTR _child$[ebp+16], ecx

; 276  : 
; 277  : 	//WAVE?????S?
; 278  : 	parent.fccType = mmioFOURCC('W','A','V','E');

  00069	c7 45 ec 57 41
	56 45		 mov	 DWORD PTR _parent$[ebp+8], 1163280727 ; 45564157H

; 279  : 	if ( (int)mmioDescend(hmmio,&parent,NULL,MMIO_FINDRIFF) ){

  00070	8b f4		 mov	 esi, esp
  00072	6a 20		 push	 32			; 00000020H
  00074	6a 00		 push	 0
  00076	8d 45 e4	 lea	 eax, DWORD PTR _parent$[ebp]
  00079	50		 push	 eax
  0007a	8b 4d 08	 mov	 ecx, DWORD PTR _hmmio$[ebp]
  0007d	51		 push	 ecx
  0007e	ff 15 00 00 00
	00		 call	 DWORD PTR __imp__mmioDescend@16
  00084	3b f4		 cmp	 esi, esp
  00086	e8 00 00 00 00	 call	 __RTC_CheckEsp
  0008b	85 c0		 test	 eax, eax
  0008d	74 07		 je	 SHORT $LN2@WaveFormat

; 280  : //		ERRPRINT("WAVE?????S?");
; 281  : 		return FALSE;

  0008f	33 c0		 xor	 eax, eax
  00091	e9 ba 00 00 00	 jmp	 $LN1@WaveFormat
$LN2@WaveFormat:

; 282  : 	}
; 283  : 
; 284  : 	//fmt?????V?
; 285  : 	child.ckid = mmioFOURCC('f', 'm', 't', ' ');

  00096	c7 45 c8 66 6d
	74 20		 mov	 DWORD PTR _child$[ebp], 544501094 ; 20746d66H

; 286  : 	if ( mmioDescend( hmmio , &child , &parent , MMIO_FINDCHUNK ) ){

  0009d	8b f4		 mov	 esi, esp
  0009f	6a 10		 push	 16			; 00000010H
  000a1	8d 45 e4	 lea	 eax, DWORD PTR _parent$[ebp]
  000a4	50		 push	 eax
  000a5	8d 4d c8	 lea	 ecx, DWORD PTR _child$[ebp]
  000a8	51		 push	 ecx
  000a9	8b 55 08	 mov	 edx, DWORD PTR _hmmio$[ebp]
  000ac	52		 push	 edx
  000ad	ff 15 00 00 00
	00		 call	 DWORD PTR __imp__mmioDescend@16
  000b3	3b f4		 cmp	 esi, esp
  000b5	e8 00 00 00 00	 call	 __RTC_CheckEsp
  000ba	85 c0		 test	 eax, eax
  000bc	74 07		 je	 SHORT $LN3@WaveFormat

; 287  : //		ERRPRINT("fmt?????V?");
; 288  : 		return FALSE;

  000be	33 c0		 xor	 eax, eax
  000c0	e9 8b 00 00 00	 jmp	 $LN1@WaveFormat
$LN3@WaveFormat:

; 289  : 	}
; 290  : 
; 291  : 	//??????????瑗x
; 292  : 	if (mmioRead( hmmio , (char *)pWfmtx , sizeof(WAVEFORMATEX) ) != sizeof(WAVEFORMATEX) ){

  000c5	8b f4		 mov	 esi, esp
  000c7	6a 12		 push	 18			; 00000012H
  000c9	8b 45 0c	 mov	 eax, DWORD PTR _pWfmtx$[ebp]
  000cc	50		 push	 eax
  000cd	8b 4d 08	 mov	 ecx, DWORD PTR _hmmio$[ebp]
  000d0	51		 push	 ecx
  000d1	ff 15 00 00 00
	00		 call	 DWORD PTR __imp__mmioRead@12
  000d7	3b f4		 cmp	 esi, esp
  000d9	e8 00 00 00 00	 call	 __RTC_CheckEsp
  000de	83 f8 12	 cmp	 eax, 18			; 00000012H
  000e1	74 04		 je	 SHORT $LN4@WaveFormat

; 293  : //		ERRPRINT("??????????瑗x");
; 294  : 		return FALSE;

  000e3	33 c0		 xor	 eax, eax
  000e5	eb 69		 jmp	 SHORT $LN1@WaveFormat
$LN4@WaveFormat:

; 295  : 	}
; 296  : 
; 297  : 	//??????????????????
; 298  : 	if (pWfmtx->wFormatTag != WAVE_FORMAT_PCM ){

  000e7	8b 45 0c	 mov	 eax, DWORD PTR _pWfmtx$[ebp]
  000ea	0f b7 08	 movzx	 ecx, WORD PTR [eax]
  000ed	83 f9 01	 cmp	 ecx, 1
  000f0	74 04		 je	 SHORT $LN5@WaveFormat

; 299  : //		ERRPRINT("????????????????");
; 300  : 		return FALSE;

  000f2	33 c0		 xor	 eax, eax
  000f4	eb 5a		 jmp	 SHORT $LN1@WaveFormat
$LN5@WaveFormat:

; 301  : 	}
; 302  : 	//?????????I??
; 303  : 	if (mmioAscend( hmmio , &child , 0 )){

  000f6	8b f4		 mov	 esi, esp
  000f8	6a 00		 push	 0
  000fa	8d 45 c8	 lea	 eax, DWORD PTR _child$[ebp]
  000fd	50		 push	 eax
  000fe	8b 4d 08	 mov	 ecx, DWORD PTR _hmmio$[ebp]
  00101	51		 push	 ecx
  00102	ff 15 00 00 00
	00		 call	 DWORD PTR __imp__mmioAscend@12
  00108	3b f4		 cmp	 esi, esp
  0010a	e8 00 00 00 00	 call	 __RTC_CheckEsp
  0010f	85 c0		 test	 eax, eax
  00111	74 04		 je	 SHORT $LN6@WaveFormat

; 304  : //		ERRPRINT("?????????I??");
; 305  : 		return FALSE;

  00113	33 c0		 xor	 eax, eax
  00115	eb 39		 jmp	 SHORT $LN1@WaveFormat
$LN6@WaveFormat:

; 306  : 	}
; 307  : 	
; 308  : 	//data?????V?
; 309  : 	child.ckid = mmioFOURCC( 'd' , 'a' , 't' , 'a' );

  00117	c7 45 c8 64 61
	74 61		 mov	 DWORD PTR _child$[ebp], 1635017060 ; 61746164H

; 310  : 	if ( mmioDescend( hmmio , &child , &parent , MMIO_FINDCHUNK ) ){

  0011e	8b f4		 mov	 esi, esp
  00120	6a 10		 push	 16			; 00000010H
  00122	8d 45 e4	 lea	 eax, DWORD PTR _parent$[ebp]
  00125	50		 push	 eax
  00126	8d 4d c8	 lea	 ecx, DWORD PTR _child$[ebp]
  00129	51		 push	 ecx
  0012a	8b 55 08	 mov	 edx, DWORD PTR _hmmio$[ebp]
  0012d	52		 push	 edx
  0012e	ff 15 00 00 00
	00		 call	 DWORD PTR __imp__mmioDescend@16
  00134	3b f4		 cmp	 esi, esp
  00136	e8 00 00 00 00	 call	 __RTC_CheckEsp
  0013b	85 c0		 test	 eax, eax
  0013d	74 04		 je	 SHORT $LN7@WaveFormat

; 311  : //		ERRPRINT("data?????V?");
; 312  : 		return FALSE;

  0013f	33 c0		 xor	 eax, eax
  00141	eb 0d		 jmp	 SHORT $LN1@WaveFormat
$LN7@WaveFormat:

; 313  : 	}
; 314  : 
; 315  : 	*pDataSize = child.cksize;

  00143	8b 45 10	 mov	 eax, DWORD PTR _pDataSize$[ebp]
  00146	8b 4d cc	 mov	 ecx, DWORD PTR _child$[ebp+4]
  00149	89 08		 mov	 DWORD PTR [eax], ecx

; 316  : 
; 317  : 	return TRUE;

  0014b	b8 01 00 00 00	 mov	 eax, 1
$LN1@WaveFormat:

; 318  : }

  00150	52		 push	 edx
  00151	8b cd		 mov	 ecx, ebp
  00153	50		 push	 eax
  00154	8d 15 00 00 00
	00		 lea	 edx, DWORD PTR $LN12@WaveFormat
  0015a	e8 00 00 00 00	 call	 @_RTC_CheckStackVars@8
  0015f	58		 pop	 eax
  00160	5a		 pop	 edx
  00161	5f		 pop	 edi
  00162	5e		 pop	 esi
  00163	5b		 pop	 ebx
  00164	8b 4d fc	 mov	 ecx, DWORD PTR __$ArrayPad$[ebp]
  00167	33 cd		 xor	 ecx, ebp
  00169	e8 00 00 00 00	 call	 @__security_check_cookie@4
  0016e	81 c4 fc 00 00
	00		 add	 esp, 252		; 000000fcH
  00174	3b ec		 cmp	 ebp, esp
  00176	e8 00 00 00 00	 call	 __RTC_CheckEsp
  0017b	8b e5		 mov	 esp, ebp
  0017d	5d		 pop	 ebp
  0017e	c3		 ret	 0
  0017f	90		 npad	 1
$LN12@WaveFormat:
  00180	02 00 00 00	 DD	 2
  00184	00 00 00 00	 DD	 $LN11@WaveFormat
$LN11@WaveFormat:
  00188	e4 ff ff ff	 DD	 -28			; ffffffe4H
  0018c	14 00 00 00	 DD	 20			; 00000014H
  00190	00 00 00 00	 DD	 $LN9@WaveFormat
  00194	c8 ff ff ff	 DD	 -56			; ffffffc8H
  00198	14 00 00 00	 DD	 20			; 00000014H
  0019c	00 00 00 00	 DD	 $LN10@WaveFormat
$LN10@WaveFormat:
  001a0	63		 DB	 99			; 00000063H
  001a1	68		 DB	 104			; 00000068H
  001a2	69		 DB	 105			; 00000069H
  001a3	6c		 DB	 108			; 0000006cH
  001a4	64		 DB	 100			; 00000064H
  001a5	00		 DB	 0
$LN9@WaveFormat:
  001a6	70		 DB	 112			; 00000070H
  001a7	61		 DB	 97			; 00000061H
  001a8	72		 DB	 114			; 00000072H
  001a9	65		 DB	 101			; 00000065H
  001aa	6e		 DB	 110			; 0000006eH
  001ab	74		 DB	 116			; 00000074H
  001ac	00		 DB	 0
?WaveFormatRead@@YAHPAUHMMIO__@@PAUtWAVEFORMATEX@@PAK@Z ENDP ; WaveFormatRead
_TEXT	ENDS
; Function compile flags: /Odtp /RTCsu /ZI
; File c:\users\administrator\desktop\????? ??\????? ??\client source code\system\t_music.cpp
;	COMDAT ?CreateSoundData@@YAHPBDAAPAUIDirectSoundBuffer@@@Z
_TEXT	SEGMENT
_dwBytes2$ = -140					; size = 4
_lpvPtr2$ = -128					; size = 4
_dwBytes1$ = -116					; size = 4
_lpvPtr1$ = -104					; size = 4
_hr$ = -92						; size = 4
_dsbdesc$ = -80						; size = 36
_cbWaveSize$ = -36					; size = 4
_pbWaveData$ = -24					; size = 4
_pWaveHeader$ = -12					; size = 4
__$ArrayPad$ = -4					; size = 4
_pName$ = 8						; size = 4
_pDSData$ = 12						; size = 4
?CreateSoundData@@YAHPBDAAPAUIDirectSoundBuffer@@@Z PROC ; CreateSoundData, COMDAT

; 196  : {

  00000	55		 push	 ebp
  00001	8b ec		 mov	 ebp, esp
  00003	81 ec 50 01 00
	00		 sub	 esp, 336		; 00000150H
  00009	53		 push	 ebx
  0000a	56		 push	 esi
  0000b	57		 push	 edi
  0000c	8d bd b0 fe ff
	ff		 lea	 edi, DWORD PTR [ebp-336]
  00012	b9 54 00 00 00	 mov	 ecx, 84			; 00000054H
  00017	b8 cc cc cc cc	 mov	 eax, -858993460		; ccccccccH
  0001c	f3 ab		 rep stosd
  0001e	a1 00 00 00 00	 mov	 eax, DWORD PTR ___security_cookie
  00023	33 c5		 xor	 eax, ebp
  00025	89 45 fc	 mov	 DWORD PTR __$ArrayPad$[ebp], eax

; 197  : 	// ??????Wave???????
; 198  : 	WAVEFORMATEX *pWaveHeader = NULL;	// WAVEFORMATEX?Bl??????

  00028	c7 45 f4 00 00
	00 00		 mov	 DWORD PTR _pWaveHeader$[ebp], 0

; 199  : 	BYTE *pbWaveData = NULL;	// ??????????????

  0002f	c7 45 e8 00 00
	00 00		 mov	 DWORD PTR _pbWaveData$[ebp], 0

; 200  : 	DWORD cbWaveSize = 0;	// ????????????

  00036	c7 45 dc 00 00
	00 00		 mov	 DWORD PTR _cbWaveSize$[ebp], 0

; 201  : 	if(!LoadWave(pName, pWaveHeader, pbWaveData, cbWaveSize))

  0003d	8d 45 dc	 lea	 eax, DWORD PTR _cbWaveSize$[ebp]
  00040	50		 push	 eax
  00041	8d 4d e8	 lea	 ecx, DWORD PTR _pbWaveData$[ebp]
  00044	51		 push	 ecx
  00045	8d 55 f4	 lea	 edx, DWORD PTR _pWaveHeader$[ebp]
  00048	52		 push	 edx
  00049	8b 45 08	 mov	 eax, DWORD PTR _pName$[ebp]
  0004c	50		 push	 eax
  0004d	e8 00 00 00 00	 call	 ?LoadWave@@YAHPBDAAPAUtWAVEFORMATEX@@AAPAEAAK@Z ; LoadWave
  00052	83 c4 10	 add	 esp, 16			; 00000010H
  00055	85 c0		 test	 eax, eax
  00057	75 07		 jne	 SHORT $LN2@CreateSoun

; 202  : 	{
; 203  : #ifdef  _STONDEBUG_
; 204  : 	    MessageBox(hWnd, "读取Wave的资料失败！", "Error", MB_OK);
; 205  : #endif
; 206  : 		return FALSE;

  00059	33 c0		 xor	 eax, eax
  0005b	e9 6a 01 00 00	 jmp	 $LN1@CreateSoun
$LN2@CreateSoun:

; 207  : 	}
; 208  : 
; 209  : 	// ??????????????
; 210  : 	DSBUFFERDESC dsbdesc; 
; 211  : 	HRESULT hr; 
; 212  : 	// DSBUFFERDESC?Bl?@e
; 213  : 	ZeroMemory(&dsbdesc, sizeof(DSBUFFERDESC));

  00060	6a 24		 push	 36			; 00000024H
  00062	6a 00		 push	 0
  00064	8d 45 b0	 lea	 eax, DWORD PTR _dsbdesc$[ebp]
  00067	50		 push	 eax
  00068	e8 00 00 00 00	 call	 _memset
  0006d	83 c4 0c	 add	 esp, 12			; 0000000cH

; 214  : 	dsbdesc.dwSize = sizeof(DSBUFFERDESC); 

  00070	c7 45 b0 24 00
	00 00		 mov	 DWORD PTR _dsbdesc$[ebp], 36 ; 00000024H

; 215  : 	// ??????????????
; 216  : #if ACTIVE
; 217  : 	dsbdesc.dwFlags = DSBCAPS_STATIC | /*DSBCAPS_CTRLDEFAULT*/DSBCAPS_CTRLPAN | DSBCAPS_CTRLVOLUME | DSBCAPS_CTRLFREQUENCY | DSBCAPS_GETCURRENTPOSITION2 | DSBCAPS_GLOBALFOCUS; 

  00077	c7 45 b4 e2 80
	01 00		 mov	 DWORD PTR _dsbdesc$[ebp+4], 98530 ; 000180e2H

; 218  : #else
; 219  : 	dsbdesc.dwFlags = DSBCAPS_STATIC | /*DSBCAPS_CTRLDEFAULT*/DSBCAPS_CTRLPAN | DSBCAPS_CTRLVOLUME | DSBCAPS_CTRLFREQUENCY | DSBCAPS_GETCURRENTPOSITION2; 
; 220  : #endif
; 221  : 	dsbdesc.dwBufferBytes = cbWaveSize;

  0007e	8b 45 dc	 mov	 eax, DWORD PTR _cbWaveSize$[ebp]
  00081	89 45 b8	 mov	 DWORD PTR _dsbdesc$[ebp+8], eax

; 222  : 	dsbdesc.lpwfxFormat = pWaveHeader;

  00084	8b 45 f4	 mov	 eax, DWORD PTR _pWaveHeader$[ebp]
  00087	89 45 c0	 mov	 DWORD PTR _dsbdesc$[ebp+16], eax

; 223  : 	// ???????
; 224  : 	hr = pDSound->CreateSoundBuffer(&dsbdesc, &pDSData, NULL); 

  0008a	8b f4		 mov	 esi, esp
  0008c	6a 00		 push	 0
  0008e	8b 45 0c	 mov	 eax, DWORD PTR _pDSData$[ebp]
  00091	50		 push	 eax
  00092	8d 4d b0	 lea	 ecx, DWORD PTR _dsbdesc$[ebp]
  00095	51		 push	 ecx
  00096	8b 15 00 00 00
	00		 mov	 edx, DWORD PTR ?pDSound@@3PAUIDirectSound@@A ; pDSound
  0009c	8b 02		 mov	 eax, DWORD PTR [edx]
  0009e	8b 0d 00 00 00
	00		 mov	 ecx, DWORD PTR ?pDSound@@3PAUIDirectSound@@A ; pDSound
  000a4	51		 push	 ecx
  000a5	8b 50 0c	 mov	 edx, DWORD PTR [eax+12]
  000a8	ff d2		 call	 edx
  000aa	3b f4		 cmp	 esi, esp
  000ac	e8 00 00 00 00	 call	 __RTC_CheckEsp
  000b1	89 45 a4	 mov	 DWORD PTR _hr$[ebp], eax

; 225  : 	if(DS_OK != hr) { 

  000b4	83 7d a4 00	 cmp	 DWORD PTR _hr$[ebp], 0
  000b8	74 07		 je	 SHORT $LN3@CreateSoun

; 226  : 	    // ???????害
; 227  : 		return FALSE;

  000ba	33 c0		 xor	 eax, eax
  000bc	e9 09 01 00 00	 jmp	 $LN1@CreateSoun
$LN3@CreateSoun:

; 228  : 	} 
; 229  : 
; 230  : 	// ???????????Wave????????
; 231  : 	LPVOID lpvPtr1; 	// ????????????
; 232  : 	DWORD dwBytes1; 	// ???????????
; 233  : 	LPVOID lpvPtr2; 	// ?k???????????
; 234  : 	DWORD dwBytes2; 	// ?k??????????
; 235  : 
; 236  : 	hr = pDSData->Lock(0, cbWaveSize, &lpvPtr1, &dwBytes1, &lpvPtr2, &dwBytes2, 0); 

  000c1	8b f4		 mov	 esi, esp
  000c3	6a 00		 push	 0
  000c5	8d 85 74 ff ff
	ff		 lea	 eax, DWORD PTR _dwBytes2$[ebp]
  000cb	50		 push	 eax
  000cc	8d 4d 80	 lea	 ecx, DWORD PTR _lpvPtr2$[ebp]
  000cf	51		 push	 ecx
  000d0	8d 55 8c	 lea	 edx, DWORD PTR _dwBytes1$[ebp]
  000d3	52		 push	 edx
  000d4	8d 45 98	 lea	 eax, DWORD PTR _lpvPtr1$[ebp]
  000d7	50		 push	 eax
  000d8	8b 4d dc	 mov	 ecx, DWORD PTR _cbWaveSize$[ebp]
  000db	51		 push	 ecx
  000dc	6a 00		 push	 0
  000de	8b 55 0c	 mov	 edx, DWORD PTR _pDSData$[ebp]
  000e1	8b 02		 mov	 eax, DWORD PTR [edx]
  000e3	8b 4d 0c	 mov	 ecx, DWORD PTR _pDSData$[ebp]
  000e6	8b 11		 mov	 edx, DWORD PTR [ecx]
  000e8	8b 00		 mov	 eax, DWORD PTR [eax]
  000ea	52		 push	 edx
  000eb	8b 48 2c	 mov	 ecx, DWORD PTR [eax+44]
  000ee	ff d1		 call	 ecx
  000f0	3b f4		 cmp	 esi, esp
  000f2	e8 00 00 00 00	 call	 __RTC_CheckEsp
  000f7	89 45 a4	 mov	 DWORD PTR _hr$[ebp], eax

; 237  : 
; 238  : 	// DSERR_BUFFERLOST??????Restore????????????????
; 239  : 	if(DSERR_BUFFERLOST == hr) { 

  000fa	81 7d a4 96 00
	78 88		 cmp	 DWORD PTR _hr$[ebp], -2005401450 ; 88780096H
  00101	75 54		 jne	 SHORT $LN4@CreateSoun

; 240  : 	    pDSData->Restore(); 

  00103	8b 45 0c	 mov	 eax, DWORD PTR _pDSData$[ebp]
  00106	8b 08		 mov	 ecx, DWORD PTR [eax]
  00108	8b 55 0c	 mov	 edx, DWORD PTR _pDSData$[ebp]
  0010b	8b 02		 mov	 eax, DWORD PTR [edx]
  0010d	8b 09		 mov	 ecx, DWORD PTR [ecx]
  0010f	8b f4		 mov	 esi, esp
  00111	50		 push	 eax
  00112	8b 51 50	 mov	 edx, DWORD PTR [ecx+80]
  00115	ff d2		 call	 edx
  00117	3b f4		 cmp	 esi, esp
  00119	e8 00 00 00 00	 call	 __RTC_CheckEsp

; 241  : 	    hr = pDSData->Lock(0, cbWaveSize, &lpvPtr1, &dwBytes1, &lpvPtr2, &dwBytes2, 0); 

  0011e	8b f4		 mov	 esi, esp
  00120	6a 00		 push	 0
  00122	8d 85 74 ff ff
	ff		 lea	 eax, DWORD PTR _dwBytes2$[ebp]
  00128	50		 push	 eax
  00129	8d 4d 80	 lea	 ecx, DWORD PTR _lpvPtr2$[ebp]
  0012c	51		 push	 ecx
  0012d	8d 55 8c	 lea	 edx, DWORD PTR _dwBytes1$[ebp]
  00130	52		 push	 edx
  00131	8d 45 98	 lea	 eax, DWORD PTR _lpvPtr1$[ebp]
  00134	50		 push	 eax
  00135	8b 4d dc	 mov	 ecx, DWORD PTR _cbWaveSize$[ebp]
  00138	51		 push	 ecx
  00139	6a 00		 push	 0
  0013b	8b 55 0c	 mov	 edx, DWORD PTR _pDSData$[ebp]
  0013e	8b 02		 mov	 eax, DWORD PTR [edx]
  00140	8b 4d 0c	 mov	 ecx, DWORD PTR _pDSData$[ebp]
  00143	8b 11		 mov	 edx, DWORD PTR [ecx]
  00145	8b 00		 mov	 eax, DWORD PTR [eax]
  00147	52		 push	 edx
  00148	8b 48 2c	 mov	 ecx, DWORD PTR [eax+44]
  0014b	ff d1		 call	 ecx
  0014d	3b f4		 cmp	 esi, esp
  0014f	e8 00 00 00 00	 call	 __RTC_CheckEsp
  00154	89 45 a4	 mov	 DWORD PTR _hr$[ebp], eax
$LN4@CreateSoun:

; 242  : 	} 
; 243  : 	if(DS_OK == hr) { 

  00157	83 7d a4 00	 cmp	 DWORD PTR _hr$[ebp], 0
  0015b	75 68		 jne	 SHORT $LN5@CreateSoun

; 244  : 	    // ????
; 245  : 
; 246  : 	    // ?????????????
; 247  : 		// ??????????????
; 248  : 		CopyMemory(lpvPtr1, pbWaveData, dwBytes1);

  0015d	8b 45 8c	 mov	 eax, DWORD PTR _dwBytes1$[ebp]
  00160	50		 push	 eax
  00161	8b 4d e8	 mov	 ecx, DWORD PTR _pbWaveData$[ebp]
  00164	51		 push	 ecx
  00165	8b 55 98	 mov	 edx, DWORD PTR _lpvPtr1$[ebp]
  00168	52		 push	 edx
  00169	e8 00 00 00 00	 call	 _memcpy
  0016e	83 c4 0c	 add	 esp, 12			; 0000000cH

; 249  : 		if ( 0 != dwBytes2 )

  00171	83 bd 74 ff ff
	ff 00		 cmp	 DWORD PTR _dwBytes2$[ebp], 0
  00178	74 1a		 je	 SHORT $LN6@CreateSoun

; 250  : 		    CopyMemory(lpvPtr2, pbWaveData + dwBytes1, dwBytes2);

  0017a	8b 85 74 ff ff
	ff		 mov	 eax, DWORD PTR _dwBytes2$[ebp]
  00180	50		 push	 eax
  00181	8b 4d e8	 mov	 ecx, DWORD PTR _pbWaveData$[ebp]
  00184	03 4d 8c	 add	 ecx, DWORD PTR _dwBytes1$[ebp]
  00187	51		 push	 ecx
  00188	8b 55 80	 mov	 edx, DWORD PTR _lpvPtr2$[ebp]
  0018b	52		 push	 edx
  0018c	e8 00 00 00 00	 call	 _memcpy
  00191	83 c4 0c	 add	 esp, 12			; 0000000cH
$LN6@CreateSoun:

; 251  : 
; 252  : 	   // ????????????Unlock???
; 253  : 	    hr = pDSData->Unlock(lpvPtr1, dwBytes1, lpvPtr2, dwBytes2); 

  00194	8b f4		 mov	 esi, esp
  00196	8b 85 74 ff ff
	ff		 mov	 eax, DWORD PTR _dwBytes2$[ebp]
  0019c	50		 push	 eax
  0019d	8b 4d 80	 mov	 ecx, DWORD PTR _lpvPtr2$[ebp]
  001a0	51		 push	 ecx
  001a1	8b 55 8c	 mov	 edx, DWORD PTR _dwBytes1$[ebp]
  001a4	52		 push	 edx
  001a5	8b 45 98	 mov	 eax, DWORD PTR _lpvPtr1$[ebp]
  001a8	50		 push	 eax
  001a9	8b 4d 0c	 mov	 ecx, DWORD PTR _pDSData$[ebp]
  001ac	8b 11		 mov	 edx, DWORD PTR [ecx]
  001ae	8b 45 0c	 mov	 eax, DWORD PTR _pDSData$[ebp]
  001b1	8b 08		 mov	 ecx, DWORD PTR [eax]
  001b3	8b 12		 mov	 edx, DWORD PTR [edx]
  001b5	51		 push	 ecx
  001b6	8b 42 4c	 mov	 eax, DWORD PTR [edx+76]
  001b9	ff d0		 call	 eax
  001bb	3b f4		 cmp	 esi, esp
  001bd	e8 00 00 00 00	 call	 __RTC_CheckEsp
  001c2	89 45 a4	 mov	 DWORD PTR _hr$[ebp], eax
$LN5@CreateSoun:

; 254  : 	}
; 255  : 
; 256  : 	return TRUE;

  001c5	b8 01 00 00 00	 mov	 eax, 1
$LN1@CreateSoun:

; 257  : }

  001ca	52		 push	 edx
  001cb	8b cd		 mov	 ecx, ebp
  001cd	50		 push	 eax
  001ce	8d 15 00 00 00
	00		 lea	 edx, DWORD PTR $LN17@CreateSoun
  001d4	e8 00 00 00 00	 call	 @_RTC_CheckStackVars@8
  001d9	58		 pop	 eax
  001da	5a		 pop	 edx
  001db	5f		 pop	 edi
  001dc	5e		 pop	 esi
  001dd	5b		 pop	 ebx
  001de	8b 4d fc	 mov	 ecx, DWORD PTR __$ArrayPad$[ebp]
  001e1	33 cd		 xor	 ecx, ebp
  001e3	e8 00 00 00 00	 call	 @__security_check_cookie@4
  001e8	81 c4 50 01 00
	00		 add	 esp, 336		; 00000150H
  001ee	3b ec		 cmp	 ebp, esp
  001f0	e8 00 00 00 00	 call	 __RTC_CheckEsp
  001f5	8b e5		 mov	 esp, ebp
  001f7	5d		 pop	 ebp
  001f8	c3		 ret	 0
  001f9	0f 1f 00	 npad	 3
$LN17@CreateSoun:
  001fc	08 00 00 00	 DD	 8
  00200	00 00 00 00	 DD	 $LN16@CreateSoun
$LN16@CreateSoun:
  00204	f4 ff ff ff	 DD	 -12			; fffffff4H
  00208	04 00 00 00	 DD	 4
  0020c	00 00 00 00	 DD	 $LN8@CreateSoun
  00210	e8 ff ff ff	 DD	 -24			; ffffffe8H
  00214	04 00 00 00	 DD	 4
  00218	00 00 00 00	 DD	 $LN9@CreateSoun
  0021c	dc ff ff ff	 DD	 -36			; ffffffdcH
  00220	04 00 00 00	 DD	 4
  00224	00 00 00 00	 DD	 $LN10@CreateSoun
  00228	b0 ff ff ff	 DD	 -80			; ffffffb0H
  0022c	24 00 00 00	 DD	 36			; 00000024H
  00230	00 00 00 00	 DD	 $LN11@CreateSoun
  00234	98 ff ff ff	 DD	 -104			; ffffff98H
  00238	04 00 00 00	 DD	 4
  0023c	00 00 00 00	 DD	 $LN12@CreateSoun
  00240	8c ff ff ff	 DD	 -116			; ffffff8cH
  00244	04 00 00 00	 DD	 4
  00248	00 00 00 00	 DD	 $LN13@CreateSoun
  0024c	80 ff ff ff	 DD	 -128			; ffffff80H
  00250	04 00 00 00	 DD	 4
  00254	00 00 00 00	 DD	 $LN14@CreateSoun
  00258	74 ff ff ff	 DD	 -140			; ffffff74H
  0025c	04 00 00 00	 DD	 4
  00260	00 00 00 00	 DD	 $LN15@CreateSoun
$LN15@CreateSoun:
  00264	64		 DB	 100			; 00000064H
  00265	77		 DB	 119			; 00000077H
  00266	42		 DB	 66			; 00000042H
  00267	79		 DB	 121			; 00000079H
  00268	74		 DB	 116			; 00000074H
  00269	65		 DB	 101			; 00000065H
  0026a	73		 DB	 115			; 00000073H
  0026b	32		 DB	 50			; 00000032H
  0026c	00		 DB	 0
$LN14@CreateSoun:
  0026d	6c		 DB	 108			; 0000006cH
  0026e	70		 DB	 112			; 00000070H
  0026f	76		 DB	 118			; 00000076H
  00270	50		 DB	 80			; 00000050H
  00271	74		 DB	 116			; 00000074H
  00272	72		 DB	 114			; 00000072H
  00273	32		 DB	 50			; 00000032H
  00274	00		 DB	 0
$LN13@CreateSoun:
  00275	64		 DB	 100			; 00000064H
  00276	77		 DB	 119			; 00000077H
  00277	42		 DB	 66			; 00000042H
  00278	79		 DB	 121			; 00000079H
  00279	74		 DB	 116			; 00000074H
  0027a	65		 DB	 101			; 00000065H
  0027b	73		 DB	 115			; 00000073H
  0027c	31		 DB	 49			; 00000031H
  0027d	00		 DB	 0
$LN12@CreateSoun:
  0027e	6c		 DB	 108			; 0000006cH
  0027f	70		 DB	 112			; 00000070H
  00280	76		 DB	 118			; 00000076H
  00281	50		 DB	 80			; 00000050H
  00282	74		 DB	 116			; 00000074H
  00283	72		 DB	 114			; 00000072H
  00284	31		 DB	 49			; 00000031H
  00285	00		 DB	 0
$LN11@CreateSoun:
  00286	64		 DB	 100			; 00000064H
  00287	73		 DB	 115			; 00000073H
  00288	62		 DB	 98			; 00000062H
  00289	64		 DB	 100			; 00000064H
  0028a	65		 DB	 101			; 00000065H
  0028b	73		 DB	 115			; 00000073H
  0028c	63		 DB	 99			; 00000063H
  0028d	00		 DB	 0
$LN10@CreateSoun:
  0028e	63		 DB	 99			; 00000063H
  0028f	62		 DB	 98			; 00000062H
  00290	57		 DB	 87			; 00000057H
  00291	61		 DB	 97			; 00000061H
  00292	76		 DB	 118			; 00000076H
  00293	65		 DB	 101			; 00000065H
  00294	53		 DB	 83			; 00000053H
  00295	69		 DB	 105			; 00000069H
  00296	7a		 DB	 122			; 0000007aH
  00297	65		 DB	 101			; 00000065H
  00298	00		 DB	 0
$LN9@CreateSoun:
  00299	70		 DB	 112			; 00000070H
  0029a	62		 DB	 98			; 00000062H
  0029b	57		 DB	 87			; 00000057H
  0029c	61		 DB	 97			; 00000061H
  0029d	76		 DB	 118			; 00000076H
  0029e	65		 DB	 101			; 00000065H
  0029f	44		 DB	 68			; 00000044H
  002a0	61		 DB	 97			; 00000061H
  002a1	74		 DB	 116			; 00000074H
  002a2	61		 DB	 97			; 00000061H
  002a3	00		 DB	 0
$LN8@CreateSoun:
  002a4	70		 DB	 112			; 00000070H
  002a5	57		 DB	 87			; 00000057H
  002a6	61		 DB	 97			; 00000061H
  002a7	76		 DB	 118			; 00000076H
  002a8	65		 DB	 101			; 00000065H
  002a9	48		 DB	 72			; 00000048H
  002aa	65		 DB	 101			; 00000065H
  002ab	61		 DB	 97			; 00000061H
  002ac	64		 DB	 100			; 00000064H
  002ad	65		 DB	 101			; 00000065H
  002ae	72		 DB	 114			; 00000072H
  002af	00		 DB	 0
?CreateSoundData@@YAHPBDAAPAUIDirectSoundBuffer@@@Z ENDP ; CreateSoundData
_TEXT	ENDS
; Function compile flags: /Odtp /RTCsu /ZI
; File c:\users\administrator\desktop\????? ??\????? ??\client source code\system\t_music.cpp
;	COMDAT ?LoadWave@@YAHPBDAAPAUtWAVEFORMATEX@@AAPAEAAK@Z
_TEXT	SEGMENT
tv91 = -312						; size = 4
_dwType$ = -112						; size = 4
_dwLength$ = -100					; size = 4
_dwRiff$ = -88						; size = 4
_pdwEnd$ = -76						; size = 4
_pdw$ = -64						; size = 4
_pvRes$ = -52						; size = 4
_hResData$ = -40					; size = 4
_hResInfo$ = -28					; size = 4
_c_szWAV$ = -16						; size = 5
__$ArrayPad$ = -4					; size = 4
_lpName$ = 8						; size = 4
_pWaveHeader$ = 12					; size = 4
_pbWaveData$ = 16					; size = 4
_cbWaveSize$ = 20					; size = 4
?LoadWave@@YAHPBDAAPAUtWAVEFORMATEX@@AAPAEAAK@Z PROC	; LoadWave, COMDAT

; 127  : {

  00000	55		 push	 ebp
  00001	8b ec		 mov	 ebp, esp
  00003	81 ec 38 01 00
	00		 sub	 esp, 312		; 00000138H
  00009	53		 push	 ebx
  0000a	56		 push	 esi
  0000b	57		 push	 edi
  0000c	8d bd c8 fe ff
	ff		 lea	 edi, DWORD PTR [ebp-312]
  00012	b9 4e 00 00 00	 mov	 ecx, 78			; 0000004eH
  00017	b8 cc cc cc cc	 mov	 eax, -858993460		; ccccccccH
  0001c	f3 ab		 rep stosd
  0001e	a1 00 00 00 00	 mov	 eax, DWORD PTR ___security_cookie
  00023	33 c5		 xor	 eax, ebp
  00025	89 45 fc	 mov	 DWORD PTR __$ArrayPad$[ebp], eax

; 128  : 	pWaveHeader = NULL;	// WAVEFORMATEX?Bl??????

  00028	8b 45 0c	 mov	 eax, DWORD PTR _pWaveHeader$[ebp]
  0002b	c7 00 00 00 00
	00		 mov	 DWORD PTR [eax], 0

; 129  : 	pbWaveData = NULL;	// ??????????????

  00031	8b 45 10	 mov	 eax, DWORD PTR _pbWaveData$[ebp]
  00034	c7 00 00 00 00
	00		 mov	 DWORD PTR [eax], 0

; 130  : 	cbWaveSize = 0;	// ????????????

  0003a	8b 45 14	 mov	 eax, DWORD PTR _cbWaveSize$[ebp]
  0003d	c7 00 00 00 00
	00		 mov	 DWORD PTR [eax], 0

; 131  : 	const char c_szWAV[] = "WAVE";	// ??????Wave????????"WAVE"???

  00043	a1 00 00 00 00	 mov	 eax, DWORD PTR ??_C@_04HFHJMNCD@WAVE?$AA@
  00048	89 45 f0	 mov	 DWORD PTR _c_szWAV$[ebp], eax
  0004b	8a 0d 04 00 00
	00		 mov	 cl, BYTE PTR ??_C@_04HFHJMNCD@WAVE?$AA@+4
  00051	88 4d f4	 mov	 BYTE PTR _c_szWAV$[ebp+4], cl

; 132  : 
; 133  : 	// ??????????????????
; 134  : 	HRSRC hResInfo = FindResource(NULL, lpName, c_szWAV);

  00054	8b f4		 mov	 esi, esp
  00056	8d 45 f0	 lea	 eax, DWORD PTR _c_szWAV$[ebp]
  00059	50		 push	 eax
  0005a	8b 4d 08	 mov	 ecx, DWORD PTR _lpName$[ebp]
  0005d	51		 push	 ecx
  0005e	6a 00		 push	 0
  00060	ff 15 00 00 00
	00		 call	 DWORD PTR __imp__FindResourceA@12
  00066	3b f4		 cmp	 esi, esp
  00068	e8 00 00 00 00	 call	 __RTC_CheckEsp
  0006d	89 45 e4	 mov	 DWORD PTR _hResInfo$[ebp], eax

; 135  : 	if(hResInfo == NULL)

  00070	83 7d e4 00	 cmp	 DWORD PTR _hResInfo$[ebp], 0
  00074	75 07		 jne	 SHORT $LN6@LoadWave

; 136  : 	    return FALSE;

  00076	33 c0		 xor	 eax, eax
  00078	e9 7a 01 00 00	 jmp	 $LN1@LoadWave
$LN6@LoadWave:

; 137  : 	HGLOBAL hResData = LoadResource(NULL, hResInfo);

  0007d	8b f4		 mov	 esi, esp
  0007f	8b 45 e4	 mov	 eax, DWORD PTR _hResInfo$[ebp]
  00082	50		 push	 eax
  00083	6a 00		 push	 0
  00085	ff 15 00 00 00
	00		 call	 DWORD PTR __imp__LoadResource@8
  0008b	3b f4		 cmp	 esi, esp
  0008d	e8 00 00 00 00	 call	 __RTC_CheckEsp
  00092	89 45 d8	 mov	 DWORD PTR _hResData$[ebp], eax

; 138  : 	if(hResData == NULL)

  00095	83 7d d8 00	 cmp	 DWORD PTR _hResData$[ebp], 0
  00099	75 07		 jne	 SHORT $LN7@LoadWave

; 139  : 	    return FALSE;

  0009b	33 c0		 xor	 eax, eax
  0009d	e9 55 01 00 00	 jmp	 $LN1@LoadWave
$LN7@LoadWave:

; 140  : 	void *pvRes = LockResource(hResData);

  000a2	8b f4		 mov	 esi, esp
  000a4	8b 45 d8	 mov	 eax, DWORD PTR _hResData$[ebp]
  000a7	50		 push	 eax
  000a8	ff 15 00 00 00
	00		 call	 DWORD PTR __imp__LockResource@4
  000ae	3b f4		 cmp	 esi, esp
  000b0	e8 00 00 00 00	 call	 __RTC_CheckEsp
  000b5	89 45 cc	 mov	 DWORD PTR _pvRes$[ebp], eax

; 141  : 	if(pvRes == NULL)

  000b8	83 7d cc 00	 cmp	 DWORD PTR _pvRes$[ebp], 0
  000bc	75 07		 jne	 SHORT $LN8@LoadWave

; 142  : 	    return FALSE;

  000be	33 c0		 xor	 eax, eax
  000c0	e9 32 01 00 00	 jmp	 $LN1@LoadWave
$LN8@LoadWave:

; 143  : 
; 144  : 	// ??????????????????????????????????瑗x??
; 145  : 	DWORD *pdw = (DWORD *)pvRes;

  000c5	8b 45 cc	 mov	 eax, DWORD PTR _pvRes$[ebp]
  000c8	89 45 c0	 mov	 DWORD PTR _pdw$[ebp], eax

; 146  : 	DWORD *pdwEnd;
; 147  : 	DWORD dwRiff = *pdw++;

  000cb	8b 45 c0	 mov	 eax, DWORD PTR _pdw$[ebp]
  000ce	8b 08		 mov	 ecx, DWORD PTR [eax]
  000d0	89 4d a8	 mov	 DWORD PTR _dwRiff$[ebp], ecx
  000d3	8b 55 c0	 mov	 edx, DWORD PTR _pdw$[ebp]
  000d6	83 c2 04	 add	 edx, 4
  000d9	89 55 c0	 mov	 DWORD PTR _pdw$[ebp], edx

; 148  : 	DWORD dwLength = *pdw++;

  000dc	8b 45 c0	 mov	 eax, DWORD PTR _pdw$[ebp]
  000df	8b 08		 mov	 ecx, DWORD PTR [eax]
  000e1	89 4d 9c	 mov	 DWORD PTR _dwLength$[ebp], ecx
  000e4	8b 55 c0	 mov	 edx, DWORD PTR _pdw$[ebp]
  000e7	83 c2 04	 add	 edx, 4
  000ea	89 55 c0	 mov	 DWORD PTR _pdw$[ebp], edx

; 149  : 	DWORD dwType = *pdw++;

  000ed	8b 45 c0	 mov	 eax, DWORD PTR _pdw$[ebp]
  000f0	8b 08		 mov	 ecx, DWORD PTR [eax]
  000f2	89 4d 90	 mov	 DWORD PTR _dwType$[ebp], ecx
  000f5	8b 55 c0	 mov	 edx, DWORD PTR _pdw$[ebp]
  000f8	83 c2 04	 add	 edx, 4
  000fb	89 55 c0	 mov	 DWORD PTR _pdw$[ebp], edx

; 150  : 
; 151  : 	if (dwRiff != mmioFOURCC('R', 'I', 'F', 'F'))

  000fe	81 7d a8 52 49
	46 46		 cmp	 DWORD PTR _dwRiff$[ebp], 1179011410 ; 46464952H
  00105	74 07		 je	 SHORT $LN9@LoadWave

; 152  : 	    return FALSE;      // ???????RIFF?????????

  00107	33 c0		 xor	 eax, eax
  00109	e9 e9 00 00 00	 jmp	 $LN1@LoadWave
$LN9@LoadWave:

; 153  : 	if (dwType != mmioFOURCC('W', 'A', 'V', 'E'))

  0010e	81 7d 90 57 41
	56 45		 cmp	 DWORD PTR _dwType$[ebp], 1163280727 ; 45564157H
  00115	74 07		 je	 SHORT $LN10@LoadWave

; 154  : 	    return FALSE;      // ???????Wave?????????

  00117	33 c0		 xor	 eax, eax
  00119	e9 d9 00 00 00	 jmp	 $LN1@LoadWave
$LN10@LoadWave:

; 155  : 	pdwEnd = (DWORD *)((BYTE *)pdw + dwLength-4);

  0011e	8b 45 9c	 mov	 eax, DWORD PTR _dwLength$[ebp]
  00121	8b 4d c0	 mov	 ecx, DWORD PTR _pdw$[ebp]
  00124	8d 54 01 fc	 lea	 edx, DWORD PTR [ecx+eax-4]
  00128	89 55 b4	 mov	 DWORD PTR _pdwEnd$[ebp], edx
$LN2@LoadWave:

; 156  : 
; 157  : 	while (pdw < pdwEnd)

  0012b	8b 45 c0	 mov	 eax, DWORD PTR _pdw$[ebp]
  0012e	3b 45 b4	 cmp	 eax, DWORD PTR _pdwEnd$[ebp]
  00131	0f 83 af 00 00
	00		 jae	 $LN3@LoadWave

; 158  : 	{
; 159  : 	    dwType = *pdw++;

  00137	8b 45 c0	 mov	 eax, DWORD PTR _pdw$[ebp]
  0013a	8b 08		 mov	 ecx, DWORD PTR [eax]
  0013c	89 4d 90	 mov	 DWORD PTR _dwType$[ebp], ecx
  0013f	8b 55 c0	 mov	 edx, DWORD PTR _pdw$[ebp]
  00142	83 c2 04	 add	 edx, 4
  00145	89 55 c0	 mov	 DWORD PTR _pdw$[ebp], edx

; 160  : 	    dwLength = *pdw++;

  00148	8b 45 c0	 mov	 eax, DWORD PTR _pdw$[ebp]
  0014b	8b 08		 mov	 ecx, DWORD PTR [eax]
  0014d	89 4d 9c	 mov	 DWORD PTR _dwLength$[ebp], ecx
  00150	8b 55 c0	 mov	 edx, DWORD PTR _pdw$[ebp]
  00153	83 c2 04	 add	 edx, 4
  00156	89 55 c0	 mov	 DWORD PTR _pdw$[ebp], edx

; 161  : 
; 162  : 	    switch (dwType)

  00159	8b 45 90	 mov	 eax, DWORD PTR _dwType$[ebp]
  0015c	89 85 c8 fe ff
	ff		 mov	 DWORD PTR tv91[ebp], eax
  00162	81 bd c8 fe ff
	ff 66 6d 74 20	 cmp	 DWORD PTR tv91[ebp], 544501094 ; 20746d66H
  0016c	74 0e		 je	 SHORT $LN11@LoadWave
  0016e	81 bd c8 fe ff
	ff 64 61 74 61	 cmp	 DWORD PTR tv91[ebp], 1635017060 ; 61746164H
  00178	74 1e		 je	 SHORT $LN14@LoadWave
  0017a	eb 3c		 jmp	 SHORT $LN4@LoadWave
$LN11@LoadWave:

; 163  : 	    {
; 164  : 	    case mmioFOURCC('f', 'm', 't', ' '):
; 165  : 	        if (pWaveHeader == NULL)

  0017c	8b 45 0c	 mov	 eax, DWORD PTR _pWaveHeader$[ebp]
  0017f	83 38 00	 cmp	 DWORD PTR [eax], 0
  00182	75 12		 jne	 SHORT $LN12@LoadWave

; 166  : 	        {
; 167  : 	            if (dwLength < sizeof(WAVEFORMAT))

  00184	83 7d 9c 0e	 cmp	 DWORD PTR _dwLength$[ebp], 14 ; 0000000eH
  00188	73 04		 jae	 SHORT $LN13@LoadWave

; 168  : 	                return FALSE;      // ?????????Wave?????????

  0018a	33 c0		 xor	 eax, eax
  0018c	eb 69		 jmp	 SHORT $LN1@LoadWave
$LN13@LoadWave:

; 169  : 	            pWaveHeader = (WAVEFORMATEX *)pdw;

  0018e	8b 45 0c	 mov	 eax, DWORD PTR _pWaveHeader$[ebp]
  00191	8b 4d c0	 mov	 ecx, DWORD PTR _pdw$[ebp]
  00194	89 08		 mov	 DWORD PTR [eax], ecx
$LN12@LoadWave:

; 170  : 	        }
; 171  : 	        break;

  00196	eb 20		 jmp	 SHORT $LN4@LoadWave
$LN14@LoadWave:

; 172  : 	    case mmioFOURCC('d', 'a', 't', 'a'):
; 173  : 	        if ((pbWaveData == NULL) || (!cbWaveSize))

  00198	8b 45 10	 mov	 eax, DWORD PTR _pbWaveData$[ebp]
  0019b	83 38 00	 cmp	 DWORD PTR [eax], 0
  0019e	74 08		 je	 SHORT $LN16@LoadWave
  001a0	8b 45 14	 mov	 eax, DWORD PTR _cbWaveSize$[ebp]
  001a3	83 38 00	 cmp	 DWORD PTR [eax], 0
  001a6	75 10		 jne	 SHORT $LN4@LoadWave
$LN16@LoadWave:

; 174  : 	        {
; 175  : 	            pbWaveData = (LPBYTE)pdw;

  001a8	8b 45 10	 mov	 eax, DWORD PTR _pbWaveData$[ebp]
  001ab	8b 4d c0	 mov	 ecx, DWORD PTR _pdw$[ebp]
  001ae	89 08		 mov	 DWORD PTR [eax], ecx

; 176  : 	            cbWaveSize = dwLength;

  001b0	8b 45 14	 mov	 eax, DWORD PTR _cbWaveSize$[ebp]
  001b3	8b 4d 9c	 mov	 ecx, DWORD PTR _dwLength$[ebp]
  001b6	89 08		 mov	 DWORD PTR [eax], ecx
$LN4@LoadWave:

; 177  : 	        }
; 178  : 	        break;
; 179  : 	    }
; 180  : 	    if(pWaveHeader && (pbWaveData != NULL) && cbWaveSize)

  001b8	8b 45 0c	 mov	 eax, DWORD PTR _pWaveHeader$[ebp]
  001bb	83 38 00	 cmp	 DWORD PTR [eax], 0
  001be	74 12		 je	 SHORT $LN17@LoadWave
  001c0	8b 45 10	 mov	 eax, DWORD PTR _pbWaveData$[ebp]
  001c3	83 38 00	 cmp	 DWORD PTR [eax], 0
  001c6	74 0a		 je	 SHORT $LN17@LoadWave
  001c8	8b 45 14	 mov	 eax, DWORD PTR _cbWaveSize$[ebp]
  001cb	83 38 00	 cmp	 DWORD PTR [eax], 0
  001ce	74 02		 je	 SHORT $LN17@LoadWave

; 181  : 	        break;

  001d0	eb 14		 jmp	 SHORT $LN3@LoadWave
$LN17@LoadWave:

; 182  : 	    pdw = (DWORD *)((BYTE *)pdw + ((dwLength+1)&~1));

  001d2	8b 45 9c	 mov	 eax, DWORD PTR _dwLength$[ebp]
  001d5	83 c0 01	 add	 eax, 1
  001d8	83 e0 fe	 and	 eax, -2			; fffffffeH
  001db	03 45 c0	 add	 eax, DWORD PTR _pdw$[ebp]
  001de	89 45 c0	 mov	 DWORD PTR _pdw$[ebp], eax

; 183  : 	}

  001e1	e9 45 ff ff ff	 jmp	 $LN2@LoadWave
$LN3@LoadWave:

; 184  : 	if(pdwEnd <= pdw)

  001e6	8b 45 b4	 mov	 eax, DWORD PTR _pdwEnd$[ebp]
  001e9	3b 45 c0	 cmp	 eax, DWORD PTR _pdw$[ebp]
  001ec	77 04		 ja	 SHORT $LN18@LoadWave

; 185  : 	    return FALSE;	// ?????????Wave?????????

  001ee	33 c0		 xor	 eax, eax
  001f0	eb 05		 jmp	 SHORT $LN1@LoadWave
$LN18@LoadWave:

; 186  : 
; 187  : 	// Wave???瑗x?
; 188  : 
; 189  : 	return TRUE;

  001f2	b8 01 00 00 00	 mov	 eax, 1
$LN1@LoadWave:

; 190  : }

  001f7	52		 push	 edx
  001f8	8b cd		 mov	 ecx, ebp
  001fa	50		 push	 eax
  001fb	8d 15 00 00 00
	00		 lea	 edx, DWORD PTR $LN22@LoadWave
  00201	e8 00 00 00 00	 call	 @_RTC_CheckStackVars@8
  00206	58		 pop	 eax
  00207	5a		 pop	 edx
  00208	5f		 pop	 edi
  00209	5e		 pop	 esi
  0020a	5b		 pop	 ebx
  0020b	8b 4d fc	 mov	 ecx, DWORD PTR __$ArrayPad$[ebp]
  0020e	33 cd		 xor	 ecx, ebp
  00210	e8 00 00 00 00	 call	 @__security_check_cookie@4
  00215	81 c4 38 01 00
	00		 add	 esp, 312		; 00000138H
  0021b	3b ec		 cmp	 ebp, esp
  0021d	e8 00 00 00 00	 call	 __RTC_CheckEsp
  00222	8b e5		 mov	 esp, ebp
  00224	5d		 pop	 ebp
  00225	c3		 ret	 0
  00226	66 90		 npad	 2
$LN22@LoadWave:
  00228	01 00 00 00	 DD	 1
  0022c	00 00 00 00	 DD	 $LN21@LoadWave
$LN21@LoadWave:
  00230	f0 ff ff ff	 DD	 -16			; fffffff0H
  00234	05 00 00 00	 DD	 5
  00238	00 00 00 00	 DD	 $LN20@LoadWave
$LN20@LoadWave:
  0023c	63		 DB	 99			; 00000063H
  0023d	5f		 DB	 95			; 0000005fH
  0023e	73		 DB	 115			; 00000073H
  0023f	7a		 DB	 122			; 0000007aH
  00240	57		 DB	 87			; 00000057H
  00241	41		 DB	 65			; 00000041H
  00242	56		 DB	 86			; 00000056H
  00243	00		 DB	 0
?LoadWave@@YAHPBDAAPAUtWAVEFORMATEX@@AAPAEAAK@Z ENDP	; LoadWave
_TEXT	ENDS
; Function compile flags: /Odtp /RTCsu /ZI
; File c:\program files (x86)\windows kits\10\include\10.0.10240.0\ucrt\stdio.h
;	COMDAT _sprintf
_TEXT	SEGMENT
__ArgList$ = -20					; size = 4
__Result$ = -8						; size = 4
__Buffer$ = 8						; size = 4
__Format$ = 12						; size = 4
_sprintf PROC						; COMDAT

; 1776 : {

  00000	55		 push	 ebp
  00001	8b ec		 mov	 ebp, esp
  00003	81 ec d8 00 00
	00		 sub	 esp, 216		; 000000d8H
  00009	53		 push	 ebx
  0000a	56		 push	 esi
  0000b	57		 push	 edi
  0000c	8d bd 28 ff ff
	ff		 lea	 edi, DWORD PTR [ebp-216]
  00012	b9 36 00 00 00	 mov	 ecx, 54			; 00000036H
  00017	b8 cc cc cc cc	 mov	 eax, -858993460		; ccccccccH
  0001c	f3 ab		 rep stosd

; 1777 :     int _Result;
; 1778 :     va_list _ArgList;
; 1779 :     __crt_va_start(_ArgList, _Format);

  0001e	e8 00 00 00 00	 call	 ??$__vcrt_va_start_verify_argument_type@QBD@@YAXXZ ; __vcrt_va_start_verify_argument_type<char const * const>
  00023	8d 45 10	 lea	 eax, DWORD PTR __Format$[ebp+4]
  00026	89 45 ec	 mov	 DWORD PTR __ArgList$[ebp], eax

; 1780 : 
; 1781 :     #pragma warning(push)
; 1782 :     #pragma warning(disable: 4996) // Deprecation
; 1783 :     _Result = _vsprintf_l(_Buffer, _Format, NULL, _ArgList);

  00029	8b 45 ec	 mov	 eax, DWORD PTR __ArgList$[ebp]
  0002c	50		 push	 eax
  0002d	6a 00		 push	 0
  0002f	8b 4d 0c	 mov	 ecx, DWORD PTR __Format$[ebp]
  00032	51		 push	 ecx
  00033	8b 55 08	 mov	 edx, DWORD PTR __Buffer$[ebp]
  00036	52		 push	 edx
  00037	e8 00 00 00 00	 call	 __vsprintf_l
  0003c	83 c4 10	 add	 esp, 16			; 00000010H
  0003f	89 45 f8	 mov	 DWORD PTR __Result$[ebp], eax

; 1784 :     #pragma warning(pop)
; 1785 : 
; 1786 :     __crt_va_end(_ArgList);

  00042	c7 45 ec 00 00
	00 00		 mov	 DWORD PTR __ArgList$[ebp], 0

; 1787 :     return _Result;

  00049	8b 45 f8	 mov	 eax, DWORD PTR __Result$[ebp]

; 1788 : }

  0004c	5f		 pop	 edi
  0004d	5e		 pop	 esi
  0004e	5b		 pop	 ebx
  0004f	81 c4 d8 00 00
	00		 add	 esp, 216		; 000000d8H
  00055	3b ec		 cmp	 ebp, esp
  00057	e8 00 00 00 00	 call	 __RTC_CheckEsp
  0005c	8b e5		 mov	 esp, ebp
  0005e	5d		 pop	 ebp
  0005f	c3		 ret	 0
_sprintf ENDP
_TEXT	ENDS
; Function compile flags: /Odtp /RTCsu /ZI
; File c:\program files (x86)\windows kits\10\include\10.0.10240.0\ucrt\stdio.h
;	COMDAT __vsprintf_l
_TEXT	SEGMENT
__Buffer$ = 8						; size = 4
__Format$ = 12						; size = 4
__Locale$ = 16						; size = 4
__ArgList$ = 20						; size = 4
__vsprintf_l PROC					; COMDAT

; 1455 : {

  00000	55		 push	 ebp
  00001	8b ec		 mov	 ebp, esp
  00003	81 ec c0 00 00
	00		 sub	 esp, 192		; 000000c0H
  00009	53		 push	 ebx
  0000a	56		 push	 esi
  0000b	57		 push	 edi
  0000c	8d bd 40 ff ff
	ff		 lea	 edi, DWORD PTR [ebp-192]
  00012	b9 30 00 00 00	 mov	 ecx, 48			; 00000030H
  00017	b8 cc cc cc cc	 mov	 eax, -858993460		; ccccccccH
  0001c	f3 ab		 rep stosd

; 1456 :     #pragma warning(push)
; 1457 :     #pragma warning(disable: 4996) // Deprecation
; 1458 :     return _vsnprintf_l(_Buffer, (size_t)-1, _Format, _Locale, _ArgList);

  0001e	8b 45 14	 mov	 eax, DWORD PTR __ArgList$[ebp]
  00021	50		 push	 eax
  00022	8b 4d 10	 mov	 ecx, DWORD PTR __Locale$[ebp]
  00025	51		 push	 ecx
  00026	8b 55 0c	 mov	 edx, DWORD PTR __Format$[ebp]
  00029	52		 push	 edx
  0002a	6a ff		 push	 -1
  0002c	8b 45 08	 mov	 eax, DWORD PTR __Buffer$[ebp]
  0002f	50		 push	 eax
  00030	e8 00 00 00 00	 call	 __vsnprintf_l
  00035	83 c4 14	 add	 esp, 20			; 00000014H

; 1459 :     #pragma warning(pop)
; 1460 : }

  00038	5f		 pop	 edi
  00039	5e		 pop	 esi
  0003a	5b		 pop	 ebx
  0003b	81 c4 c0 00 00
	00		 add	 esp, 192		; 000000c0H
  00041	3b ec		 cmp	 ebp, esp
  00043	e8 00 00 00 00	 call	 __RTC_CheckEsp
  00048	8b e5		 mov	 esp, ebp
  0004a	5d		 pop	 ebp
  0004b	c3		 ret	 0
__vsprintf_l ENDP
_TEXT	ENDS
; Function compile flags: /Odtp /RTCsu /ZI
; File c:\program files (x86)\windows kits\10\include\10.0.10240.0\ucrt\stdio.h
;	COMDAT __vsnprintf_l
_TEXT	SEGMENT
tv74 = -208						; size = 4
__Result$ = -8						; size = 4
__Buffer$ = 8						; size = 4
__BufferCount$ = 12					; size = 4
__Format$ = 16						; size = 4
__Locale$ = 20						; size = 4
__ArgList$ = 24						; size = 4
__vsnprintf_l PROC					; COMDAT

; 1385 : {

  00000	55		 push	 ebp
  00001	8b ec		 mov	 ebp, esp
  00003	81 ec d0 00 00
	00		 sub	 esp, 208		; 000000d0H
  00009	53		 push	 ebx
  0000a	56		 push	 esi
  0000b	57		 push	 edi
  0000c	8d bd 30 ff ff
	ff		 lea	 edi, DWORD PTR [ebp-208]
  00012	b9 34 00 00 00	 mov	 ecx, 52			; 00000034H
  00017	b8 cc cc cc cc	 mov	 eax, -858993460		; ccccccccH
  0001c	f3 ab		 rep stosd

; 1386 :     int const _Result = __stdio_common_vsprintf(

  0001e	8b f4		 mov	 esi, esp
  00020	8b 45 18	 mov	 eax, DWORD PTR __ArgList$[ebp]
  00023	50		 push	 eax
  00024	8b 4d 14	 mov	 ecx, DWORD PTR __Locale$[ebp]
  00027	51		 push	 ecx
  00028	8b 55 10	 mov	 edx, DWORD PTR __Format$[ebp]
  0002b	52		 push	 edx
  0002c	8b 45 0c	 mov	 eax, DWORD PTR __BufferCount$[ebp]
  0002f	50		 push	 eax
  00030	8b 4d 08	 mov	 ecx, DWORD PTR __Buffer$[ebp]
  00033	51		 push	 ecx
  00034	e8 00 00 00 00	 call	 ___local_stdio_printf_options
  00039	8b 10		 mov	 edx, DWORD PTR [eax]
  0003b	83 ca 01	 or	 edx, 1
  0003e	8b 40 04	 mov	 eax, DWORD PTR [eax+4]
  00041	50		 push	 eax
  00042	52		 push	 edx
  00043	ff 15 00 00 00
	00		 call	 DWORD PTR __imp____stdio_common_vsprintf
  00049	83 c4 1c	 add	 esp, 28			; 0000001cH
  0004c	3b f4		 cmp	 esi, esp
  0004e	e8 00 00 00 00	 call	 __RTC_CheckEsp
  00053	89 45 f8	 mov	 DWORD PTR __Result$[ebp], eax

; 1387 :         _CRT_INTERNAL_LOCAL_PRINTF_OPTIONS | _CRT_INTERNAL_PRINTF_LEGACY_VSPRINTF_NULL_TERMINATION,
; 1388 :         _Buffer, _BufferCount, _Format, _Locale, _ArgList);
; 1389 : 
; 1390 :     return _Result < 0 ? -1 : _Result;

  00056	83 7d f8 00	 cmp	 DWORD PTR __Result$[ebp], 0
  0005a	7d 0c		 jge	 SHORT $LN3@vsnprintf_
  0005c	c7 85 30 ff ff
	ff ff ff ff ff	 mov	 DWORD PTR tv74[ebp], -1
  00066	eb 09		 jmp	 SHORT $LN4@vsnprintf_
$LN3@vsnprintf_:
  00068	8b 45 f8	 mov	 eax, DWORD PTR __Result$[ebp]
  0006b	89 85 30 ff ff
	ff		 mov	 DWORD PTR tv74[ebp], eax
$LN4@vsnprintf_:
  00071	8b 85 30 ff ff
	ff		 mov	 eax, DWORD PTR tv74[ebp]

; 1391 : }

  00077	5f		 pop	 edi
  00078	5e		 pop	 esi
  00079	5b		 pop	 ebx
  0007a	81 c4 d0 00 00
	00		 add	 esp, 208		; 000000d0H
  00080	3b ec		 cmp	 ebp, esp
  00082	e8 00 00 00 00	 call	 __RTC_CheckEsp
  00087	8b e5		 mov	 esp, ebp
  00089	5d		 pop	 ebp
  0008a	c3		 ret	 0
__vsnprintf_l ENDP
_TEXT	ENDS
; Function compile flags: /Odtp /RTCsu /ZI
; File c:\program files (x86)\microsoft visual studio 14.0\vc\include\vadefs.h
;	COMDAT ??$__vcrt_va_start_verify_argument_type@QBD@@YAXXZ
_TEXT	SEGMENT
??$__vcrt_va_start_verify_argument_type@QBD@@YAXXZ PROC	; __vcrt_va_start_verify_argument_type<char const * const>, COMDAT

; 144  :         {

  00000	55		 push	 ebp
  00001	8b ec		 mov	 ebp, esp
  00003	81 ec c0 00 00
	00		 sub	 esp, 192		; 000000c0H
  00009	53		 push	 ebx
  0000a	56		 push	 esi
  0000b	57		 push	 edi
  0000c	8d bd 40 ff ff
	ff		 lea	 edi, DWORD PTR [ebp-192]
  00012	b9 30 00 00 00	 mov	 ecx, 48			; 00000030H
  00017	b8 cc cc cc cc	 mov	 eax, -858993460		; ccccccccH
  0001c	f3 ab		 rep stosd

; 145  :             static_assert(!__vcrt_va_list_is_reference<_Ty>::__the_value, "va_start argument must not have reference type and must not be parenthesized");
; 146  :         }

  0001e	5f		 pop	 edi
  0001f	5e		 pop	 esi
  00020	5b		 pop	 ebx
  00021	8b e5		 mov	 esp, ebp
  00023	5d		 pop	 ebp
  00024	c3		 ret	 0
??$__vcrt_va_start_verify_argument_type@QBD@@YAXXZ ENDP	; __vcrt_va_start_verify_argument_type<char const * const>
_TEXT	ENDS
; Function compile flags: /Odtp /RTCsu /ZI
; File c:\program files (x86)\windows kits\10\include\10.0.10240.0\ucrt\corecrt_stdio_config.h
;	COMDAT ___local_stdio_printf_options
_TEXT	SEGMENT
___local_stdio_printf_options PROC			; COMDAT

; 73   : {

  00000	55		 push	 ebp
  00001	8b ec		 mov	 ebp, esp
  00003	81 ec c0 00 00
	00		 sub	 esp, 192		; 000000c0H
  00009	53		 push	 ebx
  0000a	56		 push	 esi
  0000b	57		 push	 edi
  0000c	8d bd 40 ff ff
	ff		 lea	 edi, DWORD PTR [ebp-192]
  00012	b9 30 00 00 00	 mov	 ecx, 48			; 00000030H
  00017	b8 cc cc cc cc	 mov	 eax, -858993460		; ccccccccH
  0001c	f3 ab		 rep stosd

; 74   :     static unsigned __int64 _OptionsStorage;
; 75   :     return &_OptionsStorage;

  0001e	b8 00 00 00 00	 mov	 eax, OFFSET ?_OptionsStorage@?1??__local_stdio_printf_options@@9@4_KA ; `__local_stdio_printf_options'::`2'::_OptionsStorage

; 76   : }

  00023	5f		 pop	 edi
  00024	5e		 pop	 esi
  00025	5b		 pop	 ebx
  00026	8b e5		 mov	 esp, ebp
  00028	5d		 pop	 ebp
  00029	c3		 ret	 0
___local_stdio_printf_options ENDP
_TEXT	ENDS
; Function compile flags: /Odtp /RTCsu /ZI
; File c:\users\administrator\desktop\????? ??\????? ??\client source code\system\t_music.cpp
;	COMDAT ?play_map_bgm@@YAHH@Z
_TEXT	SEGMENT
tv86 = -516						; size = 4
_vTemp$1 = -316						; size = 32
_filename$2 = -276					; size = 255
_fp$3 = -12						; size = 4
__$ArrayPad$ = -4					; size = 4
_tone$ = 8						; size = 4
?play_map_bgm@@YAHH@Z PROC				; play_map_bgm, COMDAT

; 3262 : {

  00000	55		 push	 ebp
  00001	8b ec		 mov	 ebp, esp
  00003	81 ec 04 02 00
	00		 sub	 esp, 516		; 00000204H
  00009	53		 push	 ebx
  0000a	56		 push	 esi
  0000b	57		 push	 edi
  0000c	8d bd fc fd ff
	ff		 lea	 edi, DWORD PTR [ebp-516]
  00012	b9 81 00 00 00	 mov	 ecx, 129		; 00000081H
  00017	b8 cc cc cc cc	 mov	 eax, -858993460		; ccccccccH
  0001c	f3 ab		 rep stosd
  0001e	a1 00 00 00 00	 mov	 eax, DWORD PTR ___security_cookie
  00023	33 c5		 xor	 eax, ebp
  00025	89 45 fc	 mov	 DWORD PTR __$ArrayPad$[ebp], eax

; 3263 : 	
; 3264 : 	// shan 2002/01/18
; 3265 : #ifdef _NEWMUSICFILE6_0		   // Syu ADD 6.0 新地图音乐
; 3266 : 	if( BakBgm != tone && tone >= 40 && tone <= 55 )

  00028	a1 00 00 00 00	 mov	 eax, DWORD PTR ?BakBgm@@3HA ; BakBgm
  0002d	3b 45 08	 cmp	 eax, DWORD PTR _tone$[ebp]
  00030	0f 84 28 01 00
	00		 je	 $LN4@play_map_b
  00036	83 7d 08 28	 cmp	 DWORD PTR _tone$[ebp], 40 ; 00000028H
  0003a	0f 8c 1e 01 00
	00		 jl	 $LN4@play_map_b
  00040	83 7d 08 37	 cmp	 DWORD PTR _tone$[ebp], 55 ; 00000037H
  00044	0f 8f 14 01 00
	00		 jg	 $LN4@play_map_b

; 3267 : #else
; 3268 : 	if( BakBgm != tone && tone >= 40 && tone <= 53 )
; 3269 : #endif
; 3270 : 	{
; 3271 : 		FILE *fp;
; 3272 : 		char filename[255];
; 3273 : 		char vTemp[32];
; 3274 : 		BakBgm = tone;

  0004a	8b 45 08	 mov	 eax, DWORD PTR _tone$[ebp]
  0004d	a3 00 00 00 00	 mov	 DWORD PTR ?BakBgm@@3HA, eax ; BakBgm

; 3275 : 
; 3276 : 		sprintf( filename, "map\\bgm%d.dat", sCharSide);

  00052	a1 00 00 00 00	 mov	 eax, DWORD PTR ?sCharSide@@3HA ; sCharSide
  00057	50		 push	 eax
  00058	68 00 00 00 00	 push	 OFFSET ??_C@_0O@PAAFIOGP@map?2bgm?$CFd?4dat?$AA@
  0005d	8d 8d ec fe ff
	ff		 lea	 ecx, DWORD PTR _filename$2[ebp]
  00063	51		 push	 ecx
  00064	e8 00 00 00 00	 call	 _sprintf
  00069	83 c4 0c	 add	 esp, 12			; 0000000cH

; 3277 : 		sprintf( vTemp, "%d", tone);

  0006c	8b 45 08	 mov	 eax, DWORD PTR _tone$[ebp]
  0006f	50		 push	 eax
  00070	68 00 00 00 00	 push	 OFFSET ??_C@_02DPKJAMEF@?$CFd?$AA@
  00075	8d 8d c4 fe ff
	ff		 lea	 ecx, DWORD PTR _vTemp$1[ebp]
  0007b	51		 push	 ecx
  0007c	e8 00 00 00 00	 call	 _sprintf
  00081	83 c4 0c	 add	 esp, 12			; 0000000cH

; 3278 : 		
; 3279 : 		if( (fp = fopen( filename, "rb+" ))==NULL )

  00084	8b f4		 mov	 esi, esp
  00086	68 00 00 00 00	 push	 OFFSET ??_C@_03CCKOKKND@rb?$CL?$AA@
  0008b	8d 85 ec fe ff
	ff		 lea	 eax, DWORD PTR _filename$2[ebp]
  00091	50		 push	 eax
  00092	ff 15 00 00 00
	00		 call	 DWORD PTR __imp__fopen
  00098	83 c4 08	 add	 esp, 8
  0009b	3b f4		 cmp	 esi, esp
  0009d	e8 00 00 00 00	 call	 __RTC_CheckEsp
  000a2	89 45 f4	 mov	 DWORD PTR _fp$3[ebp], eax
  000a5	83 7d f4 00	 cmp	 DWORD PTR _fp$3[ebp], 0
  000a9	75 7c		 jne	 SHORT $LN5@play_map_b

; 3280 : 		{
; 3281 : 			_mkdir( "map" );

  000ab	8b f4		 mov	 esi, esp
  000ad	68 00 00 00 00	 push	 OFFSET ??_C@_03HBNNNHNM@map?$AA@
  000b2	ff 15 00 00 00
	00		 call	 DWORD PTR __imp___mkdir
  000b8	83 c4 04	 add	 esp, 4
  000bb	3b f4		 cmp	 esi, esp
  000bd	e8 00 00 00 00	 call	 __RTC_CheckEsp

; 3282 : 			fp = fopen( filename, "wb" );

  000c2	8b f4		 mov	 esi, esp
  000c4	68 00 00 00 00	 push	 OFFSET ??_C@_02GMLFBBN@wb?$AA@
  000c9	8d 85 ec fe ff
	ff		 lea	 eax, DWORD PTR _filename$2[ebp]
  000cf	50		 push	 eax
  000d0	ff 15 00 00 00
	00		 call	 DWORD PTR __imp__fopen
  000d6	83 c4 08	 add	 esp, 8
  000d9	3b f4		 cmp	 esi, esp
  000db	e8 00 00 00 00	 call	 __RTC_CheckEsp
  000e0	89 45 f4	 mov	 DWORD PTR _fp$3[ebp], eax

; 3283 : 			fclose( fp );

  000e3	8b f4		 mov	 esi, esp
  000e5	8b 45 f4	 mov	 eax, DWORD PTR _fp$3[ebp]
  000e8	50		 push	 eax
  000e9	ff 15 00 00 00
	00		 call	 DWORD PTR __imp__fclose
  000ef	83 c4 04	 add	 esp, 4
  000f2	3b f4		 cmp	 esi, esp
  000f4	e8 00 00 00 00	 call	 __RTC_CheckEsp

; 3284 : 			if( (fp = fopen( filename, "rb+" ))==NULL )

  000f9	8b f4		 mov	 esi, esp
  000fb	68 00 00 00 00	 push	 OFFSET ??_C@_03CCKOKKND@rb?$CL?$AA@
  00100	8d 85 ec fe ff
	ff		 lea	 eax, DWORD PTR _filename$2[ebp]
  00106	50		 push	 eax
  00107	ff 15 00 00 00
	00		 call	 DWORD PTR __imp__fopen
  0010d	83 c4 08	 add	 esp, 8
  00110	3b f4		 cmp	 esi, esp
  00112	e8 00 00 00 00	 call	 __RTC_CheckEsp
  00117	89 45 f4	 mov	 DWORD PTR _fp$3[ebp], eax
  0011a	83 7d f4 00	 cmp	 DWORD PTR _fp$3[ebp], 0
  0011e	75 07		 jne	 SHORT $LN5@play_map_b

; 3285 : 				return FALSE;

  00120	33 c0		 xor	 eax, eax
  00122	e9 38 01 00 00	 jmp	 $LN1@play_map_b
$LN5@play_map_b:

; 3286 : 		}
; 3287 : 		fwrite( vTemp, sizeof(char), 2, fp );

  00127	8b f4		 mov	 esi, esp
  00129	8b 45 f4	 mov	 eax, DWORD PTR _fp$3[ebp]
  0012c	50		 push	 eax
  0012d	6a 02		 push	 2
  0012f	6a 01		 push	 1
  00131	8d 8d c4 fe ff
	ff		 lea	 ecx, DWORD PTR _vTemp$1[ebp]
  00137	51		 push	 ecx
  00138	ff 15 00 00 00
	00		 call	 DWORD PTR __imp__fwrite
  0013e	83 c4 10	 add	 esp, 16			; 00000010H
  00141	3b f4		 cmp	 esi, esp
  00143	e8 00 00 00 00	 call	 __RTC_CheckEsp

; 3288 : 		fclose (fp);

  00148	8b f4		 mov	 esi, esp
  0014a	8b 45 f4	 mov	 eax, DWORD PTR _fp$3[ebp]
  0014d	50		 push	 eax
  0014e	ff 15 00 00 00
	00		 call	 DWORD PTR __imp__fclose
  00154	83 c4 04	 add	 esp, 4
  00157	3b f4		 cmp	 esi, esp
  00159	e8 00 00 00 00	 call	 __RTC_CheckEsp
$LN4@play_map_b:

; 3289 : 	}
; 3290 : 	switch(tone){

  0015e	8b 45 08	 mov	 eax, DWORD PTR _tone$[ebp]
  00161	89 85 fc fd ff
	ff		 mov	 DWORD PTR tv86[ebp], eax
  00167	8b 8d fc fd ff
	ff		 mov	 ecx, DWORD PTR tv86[ebp]
  0016d	83 e9 28	 sub	 ecx, 40			; 00000028H
  00170	89 8d fc fd ff
	ff		 mov	 DWORD PTR tv86[ebp], ecx
  00176	83 bd fc fd ff
	ff 0f		 cmp	 DWORD PTR tv86[ebp], 15	; 0000000fH
  0017d	0f 87 da 00 00
	00		 ja	 $LN2@play_map_b
  00183	8b 95 fc fd ff
	ff		 mov	 edx, DWORD PTR tv86[ebp]
  00189	ff 24 95 00 00
	00 00		 jmp	 DWORD PTR $LN28@play_map_b[edx*4]
$LN7@play_map_b:

; 3291 : 	//?????
; 3292 : 	case 40:	//??
; 3293 : 		map_bgm_no = 4;

  00190	c7 05 00 00 00
	00 04 00 00 00	 mov	 DWORD PTR ?map_bgm_no@@3HA, 4 ; map_bgm_no

; 3294 : 		break;

  0019a	e9 be 00 00 00	 jmp	 $LN2@play_map_b
$LN8@play_map_b:

; 3295 : 	case 41:	//??
; 3296 : 		map_bgm_no = 3;

  0019f	c7 05 00 00 00
	00 03 00 00 00	 mov	 DWORD PTR ?map_bgm_no@@3HA, 3 ; map_bgm_no

; 3297 : 		break;

  001a9	e9 af 00 00 00	 jmp	 $LN2@play_map_b
$LN9@play_map_b:

; 3298 : 	case 42:	//n??
; 3299 : 		map_bgm_no = 7;

  001ae	c7 05 00 00 00
	00 07 00 00 00	 mov	 DWORD PTR ?map_bgm_no@@3HA, 7 ; map_bgm_no

; 3300 : 		break;

  001b8	e9 a0 00 00 00	 jmp	 $LN2@play_map_b
$LN10@play_map_b:

; 3301 : 	case 43:	//n??
; 3302 : 		map_bgm_no = 8;

  001bd	c7 05 00 00 00
	00 08 00 00 00	 mov	 DWORD PTR ?map_bgm_no@@3HA, 8 ; map_bgm_no

; 3303 : 		break;

  001c7	e9 91 00 00 00	 jmp	 $LN2@play_map_b
$LN11@play_map_b:

; 3304 : 	case 44:	//n??
; 3305 : 		map_bgm_no = 9;

  001cc	c7 05 00 00 00
	00 09 00 00 00	 mov	 DWORD PTR ?map_bgm_no@@3HA, 9 ; map_bgm_no

; 3306 : 		break;

  001d6	e9 82 00 00 00	 jmp	 $LN2@play_map_b
$LN12@play_map_b:

; 3307 : 	case 45:	//?????
; 3308 : 		map_bgm_no = 10;

  001db	c7 05 00 00 00
	00 0a 00 00 00	 mov	 DWORD PTR ?map_bgm_no@@3HA, 10 ; map_bgm_no, 0000000aH

; 3309 : 		break;

  001e5	eb 76		 jmp	 SHORT $LN2@play_map_b
$LN13@play_map_b:

; 3310 : 	case 46:	//????????????
; 3311 : 		map_bgm_no = 11;

  001e7	c7 05 00 00 00
	00 0b 00 00 00	 mov	 DWORD PTR ?map_bgm_no@@3HA, 11 ; map_bgm_no, 0000000bH

; 3312 : 		break;

  001f1	eb 6a		 jmp	 SHORT $LN2@play_map_b
$LN14@play_map_b:

; 3313 : 	case 47:	//伊甸大陆
; 3314 : 		map_bgm_no = 15;

  001f3	c7 05 00 00 00
	00 0f 00 00 00	 mov	 DWORD PTR ?map_bgm_no@@3HA, 15 ; map_bgm_no, 0000000fH

; 3315 : 		break;

  001fd	eb 5e		 jmp	 SHORT $LN2@play_map_b
$LN15@play_map_b:

; 3316 : 	case 48:	//伊甸园
; 3317 : 		map_bgm_no = 16;

  001ff	c7 05 00 00 00
	00 10 00 00 00	 mov	 DWORD PTR ?map_bgm_no@@3HA, 16 ; map_bgm_no, 00000010H

; 3318 : 		break;

  00209	eb 52		 jmp	 SHORT $LN2@play_map_b
$LN16@play_map_b:

; 3319 : 	case 49:	//赌场
; 3320 : 		map_bgm_no = 21;

  0020b	c7 05 00 00 00
	00 15 00 00 00	 mov	 DWORD PTR ?map_bgm_no@@3HA, 21 ; map_bgm_no, 00000015H

; 3321 : 		break;

  00215	eb 46		 jmp	 SHORT $LN2@play_map_b
$LN17@play_map_b:

; 3322 : 	case 50:	//地城
; 3323 : 		map_bgm_no = 17;

  00217	c7 05 00 00 00
	00 11 00 00 00	 mov	 DWORD PTR ?map_bgm_no@@3HA, 17 ; map_bgm_no, 00000011H

; 3324 : 		break;

  00221	eb 3a		 jmp	 SHORT $LN2@play_map_b
$LN18@play_map_b:

; 3325 : 	case 51:	//水城
; 3326 : 		map_bgm_no = 18;

  00223	c7 05 00 00 00
	00 12 00 00 00	 mov	 DWORD PTR ?map_bgm_no@@3HA, 18 ; map_bgm_no, 00000012H

; 3327 : 		break;

  0022d	eb 2e		 jmp	 SHORT $LN2@play_map_b
$LN19@play_map_b:

; 3328 : 	case 52:	//火城
; 3329 : 		map_bgm_no = 19;

  0022f	c7 05 00 00 00
	00 13 00 00 00	 mov	 DWORD PTR ?map_bgm_no@@3HA, 19 ; map_bgm_no, 00000013H

; 3330 : 		break;

  00239	eb 22		 jmp	 SHORT $LN2@play_map_b
$LN20@play_map_b:

; 3331 : 	case 53:	//风城
; 3332 : 		map_bgm_no = 20;

  0023b	c7 05 00 00 00
	00 14 00 00 00	 mov	 DWORD PTR ?map_bgm_no@@3HA, 20 ; map_bgm_no, 00000014H

; 3333 : 		break;

  00245	eb 16		 jmp	 SHORT $LN2@play_map_b
$LN21@play_map_b:

; 3334 : 
; 3335 : #ifdef _NEWMUSICFILE6_0		   // Syu ADD 6.0 新地图音乐
; 3336 : 	case 54:
; 3337 : 		map_bgm_no = 22;	   // 海底洞窟

  00247	c7 05 00 00 00
	00 16 00 00 00	 mov	 DWORD PTR ?map_bgm_no@@3HA, 22 ; map_bgm_no, 00000016H

; 3338 : 		break;

  00251	eb 0a		 jmp	 SHORT $LN2@play_map_b
$LN22@play_map_b:

; 3339 : 	case 55:
; 3340 : 		map_bgm_no = 23;	   // 海底平原

  00253	c7 05 00 00 00
	00 17 00 00 00	 mov	 DWORD PTR ?map_bgm_no@@3HA, 23 ; map_bgm_no, 00000017H
$LN2@play_map_b:

; 3341 : 		break;
; 3342 : #endif
; 3343 : 	}
; 3344 : 	return 0;

  0025d	33 c0		 xor	 eax, eax
$LN1@play_map_b:

; 3345 : }

  0025f	52		 push	 edx
  00260	8b cd		 mov	 ecx, ebp
  00262	50		 push	 eax
  00263	8d 15 00 00 00
	00		 lea	 edx, DWORD PTR $LN27@play_map_b
  00269	e8 00 00 00 00	 call	 @_RTC_CheckStackVars@8
  0026e	58		 pop	 eax
  0026f	5a		 pop	 edx
  00270	5f		 pop	 edi
  00271	5e		 pop	 esi
  00272	5b		 pop	 ebx
  00273	8b 4d fc	 mov	 ecx, DWORD PTR __$ArrayPad$[ebp]
  00276	33 cd		 xor	 ecx, ebp
  00278	e8 00 00 00 00	 call	 @__security_check_cookie@4
  0027d	81 c4 04 02 00
	00		 add	 esp, 516		; 00000204H
  00283	3b ec		 cmp	 ebp, esp
  00285	e8 00 00 00 00	 call	 __RTC_CheckEsp
  0028a	8b e5		 mov	 esp, ebp
  0028c	5d		 pop	 ebp
  0028d	c3		 ret	 0
  0028e	66 90		 npad	 2
$LN27@play_map_b:
  00290	02 00 00 00	 DD	 2
  00294	00 00 00 00	 DD	 $LN26@play_map_b
$LN26@play_map_b:
  00298	ec fe ff ff	 DD	 -276			; fffffeecH
  0029c	ff 00 00 00	 DD	 255			; 000000ffH
  002a0	00 00 00 00	 DD	 $LN24@play_map_b
  002a4	c4 fe ff ff	 DD	 -316			; fffffec4H
  002a8	20 00 00 00	 DD	 32			; 00000020H
  002ac	00 00 00 00	 DD	 $LN25@play_map_b
$LN25@play_map_b:
  002b0	76		 DB	 118			; 00000076H
  002b1	54		 DB	 84			; 00000054H
  002b2	65		 DB	 101			; 00000065H
  002b3	6d		 DB	 109			; 0000006dH
  002b4	70		 DB	 112			; 00000070H
  002b5	00		 DB	 0
$LN24@play_map_b:
  002b6	66		 DB	 102			; 00000066H
  002b7	69		 DB	 105			; 00000069H
  002b8	6c		 DB	 108			; 0000006cH
  002b9	65		 DB	 101			; 00000065H
  002ba	6e		 DB	 110			; 0000006eH
  002bb	61		 DB	 97			; 00000061H
  002bc	6d		 DB	 109			; 0000006dH
  002bd	65		 DB	 101			; 00000065H
  002be	00		 DB	 0
  002bf	90		 npad	 1
$LN28@play_map_b:
  002c0	00 00 00 00	 DD	 $LN7@play_map_b
  002c4	00 00 00 00	 DD	 $LN8@play_map_b
  002c8	00 00 00 00	 DD	 $LN9@play_map_b
  002cc	00 00 00 00	 DD	 $LN10@play_map_b
  002d0	00 00 00 00	 DD	 $LN11@play_map_b
  002d4	00 00 00 00	 DD	 $LN12@play_map_b
  002d8	00 00 00 00	 DD	 $LN13@play_map_b
  002dc	00 00 00 00	 DD	 $LN14@play_map_b
  002e0	00 00 00 00	 DD	 $LN15@play_map_b
  002e4	00 00 00 00	 DD	 $LN16@play_map_b
  002e8	00 00 00 00	 DD	 $LN17@play_map_b
  002ec	00 00 00 00	 DD	 $LN18@play_map_b
  002f0	00 00 00 00	 DD	 $LN19@play_map_b
  002f4	00 00 00 00	 DD	 $LN20@play_map_b
  002f8	00 00 00 00	 DD	 $LN21@play_map_b
  002fc	00 00 00 00	 DD	 $LN22@play_map_b
?play_map_bgm@@YAHH@Z ENDP				; play_map_bgm
_TEXT	ENDS
; Function compile flags: /Odtp /RTCsu /ZI
; File c:\users\administrator\desktop\????? ??\????? ??\client source code\system\t_music.cpp
;	COMDAT ?play_environment@@YAHHHH@Z
_TEXT	SEGMENT
tv67 = -268						; size = 4
_dy$ = -68						; size = 4
_dx$ = -56						; size = 4
_volume$ = -44						; size = 4
_distance$ = -32					; size = 4
_d1$ = -20						; size = 4
_d0$ = -8						; size = 4
_tone$ = 8						; size = 4
_x$ = 12						; size = 4
_y$ = 16						; size = 4
?play_environment@@YAHHHH@Z PROC			; play_environment, COMDAT

; 3349 : {

  00000	55		 push	 ebp
  00001	8b ec		 mov	 ebp, esp
  00003	81 ec 0c 01 00
	00		 sub	 esp, 268		; 0000010cH
  00009	53		 push	 ebx
  0000a	56		 push	 esi
  0000b	57		 push	 edi
  0000c	8d bd f4 fe ff
	ff		 lea	 edi, DWORD PTR [ebp-268]
  00012	b9 43 00 00 00	 mov	 ecx, 67			; 00000043H
  00017	b8 cc cc cc cc	 mov	 eax, -858993460		; ccccccccH
  0001c	f3 ab		 rep stosd

; 3350 : 	int d0,d1,distance,volume;
; 3351 : 	d0 = d1 = 0;

  0001e	c7 45 ec 00 00
	00 00		 mov	 DWORD PTR _d1$[ebp], 0
  00025	8b 45 ec	 mov	 eax, DWORD PTR _d1$[ebp]
  00028	89 45 f8	 mov	 DWORD PTR _d0$[ebp], eax

; 3352 : 	float dx, dy;
; 3353 : #ifdef _NB_CANCEL_BGM
; 3354 : 	if (声音开关) return 0;

  0002b	83 3d 00 00 00
	00 00		 cmp	 DWORD PTR ?声音开关@@3HA, 0 ; 声音开关
  00032	74 07		 je	 SHORT $LN4@play_envir
  00034	33 c0		 xor	 eax, eax
  00036	e9 0f 02 00 00	 jmp	 $LN1@play_envir
$LN4@play_envir:

; 3355 : #endif
; 3356 : //	tone = 157;
; 3357 : 
; 3358 : 	if(tone < 20 || tone > 37){		//??k??

  0003b	83 7d 08 14	 cmp	 DWORD PTR _tone$[ebp], 20 ; 00000014H
  0003f	7c 06		 jl	 SHORT $LN6@play_envir
  00041	83 7d 08 25	 cmp	 DWORD PTR _tone$[ebp], 37 ; 00000025H
  00045	7e 07		 jle	 SHORT $LN5@play_envir
$LN6@play_envir:

; 3359 : 		return 0;					//????

  00047	33 c0		 xor	 eax, eax
  00049	e9 fc 01 00 00	 jmp	 $LN1@play_envir
$LN5@play_envir:

; 3360 : 	}
; 3361 : 
; 3362 : 	switch(tone){

  0004e	8b 45 08	 mov	 eax, DWORD PTR _tone$[ebp]
  00051	89 85 f4 fe ff
	ff		 mov	 DWORD PTR tv67[ebp], eax
  00057	83 bd f4 fe ff
	ff 1c		 cmp	 DWORD PTR tv67[ebp], 28	; 0000001cH
  0005e	74 14		 je	 SHORT $LN7@play_envir
  00060	83 bd f4 fe ff
	ff 1d		 cmp	 DWORD PTR tv67[ebp], 29	; 0000001dH
  00067	74 1d		 je	 SHORT $LN9@play_envir
  00069	83 bd f4 fe ff
	ff 25		 cmp	 DWORD PTR tv67[ebp], 37	; 00000025H
  00070	74 26		 je	 SHORT $LN11@play_envir
  00072	eb 44		 jmp	 SHORT $LN2@play_envir
$LN7@play_envir:

; 3363 : 	case 28:		//???
; 3364 : 		if(SaTimeZoneNo != LS_MORNING){		//?????

  00074	83 3d 00 00 00
	00 03		 cmp	 DWORD PTR ?SaTimeZoneNo@@3HA, 3 ; SaTimeZoneNo
  0007b	74 07		 je	 SHORT $LN8@play_envir

; 3365 : 			return 0;						//????

  0007d	33 c0		 xor	 eax, eax
  0007f	e9 c6 01 00 00	 jmp	 $LN1@play_envir
$LN8@play_envir:

; 3366 : 		}
; 3367 : 		break;

  00084	eb 32		 jmp	 SHORT $LN2@play_envir
$LN9@play_envir:

; 3368 : 	case 29:		//?
; 3369 : 		if(SaTimeZoneNo != LS_NIGHT){		//??????

  00086	83 3d 00 00 00
	00 02		 cmp	 DWORD PTR ?SaTimeZoneNo@@3HA, 2 ; SaTimeZoneNo
  0008d	74 07		 je	 SHORT $LN10@play_envir

; 3370 : 			return 0;					//????

  0008f	33 c0		 xor	 eax, eax
  00091	e9 b4 01 00 00	 jmp	 $LN1@play_envir
$LN10@play_envir:

; 3371 : 		}
; 3372 : 		break;

  00096	eb 20		 jmp	 SHORT $LN2@play_envir
$LN11@play_envir:

; 3373 : 	case 37:		//?
; 3374 : 		if(SaTimeZoneNo == LS_MORNING){		//??

  00098	83 3d 00 00 00
	00 03		 cmp	 DWORD PTR ?SaTimeZoneNo@@3HA, 3 ; SaTimeZoneNo
  0009f	75 07		 jne	 SHORT $LN12@play_envir

; 3375 : 			return 0;						//????

  000a1	33 c0		 xor	 eax, eax
  000a3	e9 a2 01 00 00	 jmp	 $LN1@play_envir
$LN12@play_envir:

; 3376 : 		}
; 3377 : 		if(SaTimeZoneNo == LS_NIGHT){		//???

  000a8	83 3d 00 00 00
	00 02		 cmp	 DWORD PTR ?SaTimeZoneNo@@3HA, 2 ; SaTimeZoneNo
  000af	75 07		 jne	 SHORT $LN13@play_envir

; 3378 : 			tone = 29;					//???

  000b1	c7 45 08 1d 00
	00 00		 mov	 DWORD PTR _tone$[ebp], 29 ; 0000001dH
$LN13@play_envir:
$LN2@play_envir:

; 3379 : 			break;
; 3380 : 		}
; 3381 : 		break;
; 3382 : 	}
; 3383 : 
; 3384 : 
; 3385 : 
; 3386 : 
; 3387 : 
; 3388 : 
; 3389 : 	dx = (float)(x - 320);

  000b8	8b 45 0c	 mov	 eax, DWORD PTR _x$[ebp]
  000bb	2d 40 01 00 00	 sub	 eax, 320		; 00000140H
  000c0	f3 0f 2a c0	 cvtsi2ss xmm0, eax
  000c4	f3 0f 11 45 c8	 movss	 DWORD PTR _dx$[ebp], xmm0

; 3390 : 	dy = (float)(y - 240);

  000c9	8b 45 10	 mov	 eax, DWORD PTR _y$[ebp]
  000cc	2d f0 00 00 00	 sub	 eax, 240		; 000000f0H
  000d1	f3 0f 2a c0	 cvtsi2ss xmm0, eax
  000d5	f3 0f 11 45 bc	 movss	 DWORD PTR _dy$[ebp], xmm0

; 3391 : 
; 3392 : 	distance = (int)sqrt( (double)(dx*dx+dy*dy) );

  000da	f3 0f 10 45 c8	 movss	 xmm0, DWORD PTR _dx$[ebp]
  000df	f3 0f 59 45 c8	 mulss	 xmm0, DWORD PTR _dx$[ebp]
  000e4	f3 0f 10 4d bc	 movss	 xmm1, DWORD PTR _dy$[ebp]
  000e9	f3 0f 59 4d bc	 mulss	 xmm1, DWORD PTR _dy$[ebp]
  000ee	f3 0f 58 c1	 addss	 xmm0, xmm1
  000f2	f3 0f 5a c0	 cvtss2sd xmm0, xmm0
  000f6	83 ec 08	 sub	 esp, 8
  000f9	f2 0f 11 04 24	 movsd	 QWORD PTR [esp], xmm0
  000fe	e8 00 00 00 00	 call	 _sqrt
  00103	83 c4 08	 add	 esp, 8
  00106	e8 00 00 00 00	 call	 __ftol2_sse
  0010b	89 45 e0	 mov	 DWORD PTR _distance$[ebp], eax

; 3393 : 
; 3394 : 	volume = distance << 4;		//?????k??

  0010e	8b 45 e0	 mov	 eax, DWORD PTR _distance$[ebp]
  00111	c1 e0 04	 shl	 eax, 4
  00114	89 45 d4	 mov	 DWORD PTR _volume$[ebp], eax

; 3395 : 	volume /= 0x6a;				//

  00117	8b 45 d4	 mov	 eax, DWORD PTR _volume$[ebp]
  0011a	99		 cdq
  0011b	b9 6a 00 00 00	 mov	 ecx, 106		; 0000006aH
  00120	f7 f9		 idiv	 ecx
  00122	89 45 d4	 mov	 DWORD PTR _volume$[ebp], eax

; 3396 : 
; 3397 : 	if(volume >= 127)				//d????

  00125	83 7d d4 7f	 cmp	 DWORD PTR _volume$[ebp], 127 ; 0000007fH
  00129	7c 07		 jl	 SHORT $LN14@play_envir

; 3398 : 		return 0;					//????

  0012b	33 c0		 xor	 eax, eax
  0012d	e9 18 01 00 00	 jmp	 $LN1@play_envir
$LN14@play_envir:

; 3399 : 
; 3400 : 	d0 = tone - 20;

  00132	8b 45 08	 mov	 eax, DWORD PTR _tone$[ebp]
  00135	83 e8 14	 sub	 eax, 20			; 00000014H
  00138	89 45 f8	 mov	 DWORD PTR _d0$[ebp], eax

; 3401 : 	tone = 151 + d0;

  0013b	8b 45 f8	 mov	 eax, DWORD PTR _d0$[ebp]
  0013e	05 97 00 00 00	 add	 eax, 151		; 00000097H
  00143	89 45 08	 mov	 DWORD PTR _tone$[ebp], eax

; 3402 : 	if(env_tbl[d0].count == 0){		//???

  00146	6b 45 f8 24	 imul	 eax, DWORD PTR _d0$[ebp], 36
  0014a	83 b8 08 00 00
	00 00		 cmp	 DWORD PTR ?env_tbl@@3PAUENVIRONMENT_EQU@@A[eax+8], 0
  00151	75 6c		 jne	 SHORT $LN15@play_envir

; 3403 : 		//??V
; 3404 : 		env_tbl[d0].distance = distance;

  00153	6b 45 f8 24	 imul	 eax, DWORD PTR _d0$[ebp], 36
  00157	8b 4d e0	 mov	 ecx, DWORD PTR _distance$[ebp]
  0015a	89 88 0c 00 00
	00		 mov	 DWORD PTR ?env_tbl@@3PAUENVIRONMENT_EQU@@A[eax+12], ecx

; 3405 : 		volume = (127 - volume) * tone_tbl[ tone ].voice_volume / 127;

  00160	b8 7f 00 00 00	 mov	 eax, 127		; 0000007fH
  00165	2b 45 d4	 sub	 eax, DWORD PTR _volume$[ebp]
  00168	8b 4d 08	 mov	 ecx, DWORD PTR _tone$[ebp]
  0016b	c1 e1 05	 shl	 ecx, 5
  0016e	0f af 81 0c 00
	00 00		 imul	 eax, DWORD PTR ?tone_tbl@@3PAUTONE_EQU@@A[ecx+12]
  00175	99		 cdq
  00176	b9 7f 00 00 00	 mov	 ecx, 127		; 0000007fH
  0017b	f7 f9		 idiv	 ecx
  0017d	89 45 d4	 mov	 DWORD PTR _volume$[ebp], eax

; 3406 : 		env_tbl[d0].volume = volume * t_music_se_volume / 15;

  00180	8b 45 d4	 mov	 eax, DWORD PTR _volume$[ebp]
  00183	0f af 05 00 00
	00 00		 imul	 eax, DWORD PTR ?t_music_se_volume@@3HA ; t_music_se_volume
  0018a	99		 cdq
  0018b	b9 0f 00 00 00	 mov	 ecx, 15			; 0000000fH
  00190	f7 f9		 idiv	 ecx
  00192	6b 55 f8 24	 imul	 edx, DWORD PTR _d0$[ebp], 36
  00196	89 82 10 00 00
	00		 mov	 DWORD PTR ?env_tbl@@3PAUENVIRONMENT_EQU@@A[edx+16], eax

; 3407 : 		d1 = 1;		//????????

  0019c	c7 45 ec 01 00
	00 00		 mov	 DWORD PTR _d1$[ebp], 1

; 3408 : 		if(env_tbl[d0].voice_address == -1){		//???

  001a3	6b 45 f8 24	 imul	 eax, DWORD PTR _d0$[ebp], 36
  001a7	83 b8 00 00 00
	00 ff		 cmp	 DWORD PTR ?env_tbl@@3PAUENVIRONMENT_EQU@@A[eax], -1
  001ae	75 0d		 jne	 SHORT $LN17@play_envir

; 3409 : 			env_tbl[d0].tone = tone;

  001b0	6b 45 f8 24	 imul	 eax, DWORD PTR _d0$[ebp], 36
  001b4	8b 4d 08	 mov	 ecx, DWORD PTR _tone$[ebp]
  001b7	89 88 04 00 00
	00		 mov	 DWORD PTR ?env_tbl@@3PAUENVIRONMENT_EQU@@A[eax+4], ecx
$LN17@play_envir:

; 3410 : 		}
; 3411 : 	} else {

  001bd	eb 5f		 jmp	 SHORT $LN18@play_envir
$LN15@play_envir:

; 3412 : 		//?????V
; 3413 : 		if(env_tbl[d0].distance > distance){

  001bf	6b 45 f8 24	 imul	 eax, DWORD PTR _d0$[ebp], 36
  001c3	8b 88 0c 00 00
	00		 mov	 ecx, DWORD PTR ?env_tbl@@3PAUENVIRONMENT_EQU@@A[eax+12]
  001c9	3b 4d e0	 cmp	 ecx, DWORD PTR _distance$[ebp]
  001cc	7e 50		 jle	 SHORT $LN18@play_envir

; 3414 : 			env_tbl[d0].distance = distance;

  001ce	6b 45 f8 24	 imul	 eax, DWORD PTR _d0$[ebp], 36
  001d2	8b 4d e0	 mov	 ecx, DWORD PTR _distance$[ebp]
  001d5	89 88 0c 00 00
	00		 mov	 DWORD PTR ?env_tbl@@3PAUENVIRONMENT_EQU@@A[eax+12], ecx

; 3415 : 			volume = (127 - volume) * tone_tbl[ tone ].voice_volume / 127;

  001db	b8 7f 00 00 00	 mov	 eax, 127		; 0000007fH
  001e0	2b 45 d4	 sub	 eax, DWORD PTR _volume$[ebp]
  001e3	8b 4d 08	 mov	 ecx, DWORD PTR _tone$[ebp]
  001e6	c1 e1 05	 shl	 ecx, 5
  001e9	0f af 81 0c 00
	00 00		 imul	 eax, DWORD PTR ?tone_tbl@@3PAUTONE_EQU@@A[ecx+12]
  001f0	99		 cdq
  001f1	b9 7f 00 00 00	 mov	 ecx, 127		; 0000007fH
  001f6	f7 f9		 idiv	 ecx
  001f8	89 45 d4	 mov	 DWORD PTR _volume$[ebp], eax

; 3416 : 			env_tbl[d0].volume = volume * t_music_se_volume / 15;

  001fb	8b 45 d4	 mov	 eax, DWORD PTR _volume$[ebp]
  001fe	0f af 05 00 00
	00 00		 imul	 eax, DWORD PTR ?t_music_se_volume@@3HA ; t_music_se_volume
  00205	99		 cdq
  00206	b9 0f 00 00 00	 mov	 ecx, 15			; 0000000fH
  0020b	f7 f9		 idiv	 ecx
  0020d	6b 55 f8 24	 imul	 edx, DWORD PTR _d0$[ebp], 36
  00211	89 82 10 00 00
	00		 mov	 DWORD PTR ?env_tbl@@3PAUENVIRONMENT_EQU@@A[edx+16], eax

; 3417 : 			d1 = 1;		//????????

  00217	c7 45 ec 01 00
	00 00		 mov	 DWORD PTR _d1$[ebp], 1
$LN18@play_envir:

; 3418 : 		}
; 3419 : 	}
; 3420 : 	//????
; 3421 : 	if(d1){

  0021e	83 7d ec 00	 cmp	 DWORD PTR _d1$[ebp], 0
  00222	74 0d		 je	 SHORT $LN19@play_envir

; 3422 : 		env_tbl[d0].side = x;

  00224	6b 45 f8 24	 imul	 eax, DWORD PTR _d0$[ebp], 36
  00228	8b 4d 0c	 mov	 ecx, DWORD PTR _x$[ebp]
  0022b	89 88 18 00 00
	00		 mov	 DWORD PTR ?env_tbl@@3PAUENVIRONMENT_EQU@@A[eax+24], ecx
$LN19@play_envir:

; 3423 : 	}
; 3424 : 	env_tbl[d0].count++;

  00231	6b 45 f8 24	 imul	 eax, DWORD PTR _d0$[ebp], 36
  00235	8b 88 08 00 00
	00		 mov	 ecx, DWORD PTR ?env_tbl@@3PAUENVIRONMENT_EQU@@A[eax+8]
  0023b	83 c1 01	 add	 ecx, 1
  0023e	6b 55 f8 24	 imul	 edx, DWORD PTR _d0$[ebp], 36
  00242	89 8a 08 00 00
	00		 mov	 DWORD PTR ?env_tbl@@3PAUENVIRONMENT_EQU@@A[edx+8], ecx

; 3425 : 	return 0;

  00248	33 c0		 xor	 eax, eax
$LN1@play_envir:

; 3426 : }

  0024a	5f		 pop	 edi
  0024b	5e		 pop	 esi
  0024c	5b		 pop	 ebx
  0024d	81 c4 0c 01 00
	00		 add	 esp, 268		; 0000010cH
  00253	3b ec		 cmp	 ebp, esp
  00255	e8 00 00 00 00	 call	 __RTC_CheckEsp
  0025a	8b e5		 mov	 esp, ebp
  0025c	5d		 pop	 ebp
  0025d	c3		 ret	 0
?play_environment@@YAHHHH@Z ENDP			; play_environment
_TEXT	ENDS
; Function compile flags: /Odtp /RTCsu /ZI
; File c:\users\administrator\desktop\????? ??\????? ??\client source code\system\t_music.cpp
;	COMDAT ?fade_out_bgm@@YAXXZ
_TEXT	SEGMENT
?fade_out_bgm@@YAXXZ PROC				; fade_out_bgm, COMDAT

; 681  : {

  00000	55		 push	 ebp
  00001	8b ec		 mov	 ebp, esp
  00003	81 ec c0 00 00
	00		 sub	 esp, 192		; 000000c0H
  00009	53		 push	 ebx
  0000a	56		 push	 esi
  0000b	57		 push	 edi
  0000c	8d bd 40 ff ff
	ff		 lea	 edi, DWORD PTR [ebp-192]
  00012	b9 30 00 00 00	 mov	 ecx, 48			; 00000030H
  00017	b8 cc cc cc cc	 mov	 eax, -858993460		; ccccccccH
  0001c	f3 ab		 rep stosd

; 682  : 	//????????
; 683  : 	t_music_fade_flg = 1;

  0001e	c7 05 00 00 00
	00 01 00 00 00	 mov	 DWORD PTR ?t_music_fade_flg@@3HA, 1 ; t_music_fade_flg

; 684  : 	//?????颌V
; 685  : 	t_music_fade_vol = bgm_tbl[t_music_bgm_no].volume * t_music_bgm_volume / 15;

  00028	a1 00 00 00 00	 mov	 eax, DWORD PTR ?t_music_bgm_no@@3HA ; t_music_bgm_no
  0002d	c1 e0 04	 shl	 eax, 4
  00030	8b 80 04 00 00
	00		 mov	 eax, DWORD PTR ?bgm_tbl@@3PAUT_MUSIC_BGM@@A[eax+4]
  00036	0f af 05 00 00
	00 00		 imul	 eax, DWORD PTR ?t_music_bgm_volume@@3HA ; t_music_bgm_volume
  0003d	99		 cdq
  0003e	b9 0f 00 00 00	 mov	 ecx, 15			; 0000000fH
  00043	f7 f9		 idiv	 ecx
  00045	a3 00 00 00 00	 mov	 DWORD PTR ?t_music_fade_vol@@3HA, eax ; t_music_fade_vol

; 686  : }

  0004a	5f		 pop	 edi
  0004b	5e		 pop	 esi
  0004c	5b		 pop	 ebx
  0004d	8b e5		 mov	 esp, ebp
  0004f	5d		 pop	 ebp
  00050	c3		 ret	 0
?fade_out_bgm@@YAXXZ ENDP				; fade_out_bgm
_TEXT	ENDS
; Function compile flags: /Odtp /RTCsu /ZI
; File c:\users\administrator\desktop\????? ??\????? ??\client source code\system\t_music.cpp
;	COMDAT ?stop_bgm@@YAXXZ
_TEXT	SEGMENT
?stop_bgm@@YAXXZ PROC					; stop_bgm, COMDAT

; 663  : {

  00000	55		 push	 ebp
  00001	8b ec		 mov	 ebp, esp
  00003	81 ec c0 00 00
	00		 sub	 esp, 192		; 000000c0H
  00009	53		 push	 ebx
  0000a	56		 push	 esi
  0000b	57		 push	 edi
  0000c	8d bd 40 ff ff
	ff		 lea	 edi, DWORD PTR [ebp-192]
  00012	b9 30 00 00 00	 mov	 ecx, 48			; 00000030H
  00017	b8 cc cc cc cc	 mov	 eax, -858993460		; ccccccccH
  0001c	f3 ab		 rep stosd

; 664  : #ifdef _NB_CANCEL_BGM
; 665  : 	if (声音开关) return;

  0001e	83 3d 00 00 00
	00 00		 cmp	 DWORD PTR ?声音开关@@3HA, 0 ; 声音开关
  00025	74 05		 je	 SHORT $LN2@stop_bgm
  00027	e9 94 00 00 00	 jmp	 $LN1@stop_bgm
$LN2@stop_bgm:

; 666  : #endif
; 667  : 	if(thread_stop_flg){

  0002c	83 3d 00 00 00
	00 00		 cmp	 DWORD PTR ?thread_stop_flg@@3HA, 0
  00033	74 07		 je	 SHORT $LN3@stop_bgm

; 668  : 		stop_thread();

  00035	e8 00 00 00 00	 call	 ?stop_thread@@YAXXZ	; stop_thread

; 669  : 	} else {

  0003a	eb 5c		 jmp	 SHORT $LN4@stop_bgm
$LN3@stop_bgm:

; 670  : 		RELEASE(pDSData_tone[TONE_MAX]);

  0003c	b8 04 00 00 00	 mov	 eax, 4
  00041	69 c8 f4 01 00
	00		 imul	 ecx, eax, 500
  00047	83 b9 00 00 00
	00 00		 cmp	 DWORD PTR ?pDSData_tone@@3PAPAUIDirectSoundBuffer@@A[ecx], 0
  0004e	74 48		 je	 SHORT $LN4@stop_bgm
  00050	b8 04 00 00 00	 mov	 eax, 4
  00055	69 c8 f4 01 00
	00		 imul	 ecx, eax, 500
  0005b	8b 91 00 00 00
	00		 mov	 edx, DWORD PTR ?pDSData_tone@@3PAPAUIDirectSoundBuffer@@A[ecx]
  00061	b8 04 00 00 00	 mov	 eax, 4
  00066	69 c8 f4 01 00
	00		 imul	 ecx, eax, 500
  0006c	8b 81 00 00 00
	00		 mov	 eax, DWORD PTR ?pDSData_tone@@3PAPAUIDirectSoundBuffer@@A[ecx]
  00072	8b 0a		 mov	 ecx, DWORD PTR [edx]
  00074	8b f4		 mov	 esi, esp
  00076	50		 push	 eax
  00077	8b 51 08	 mov	 edx, DWORD PTR [ecx+8]
  0007a	ff d2		 call	 edx
  0007c	3b f4		 cmp	 esi, esp
  0007e	e8 00 00 00 00	 call	 __RTC_CheckEsp
  00083	b8 04 00 00 00	 mov	 eax, 4
  00088	69 c8 f4 01 00
	00		 imul	 ecx, eax, 500
  0008e	c7 81 00 00 00
	00 00 00 00 00	 mov	 DWORD PTR ?pDSData_tone@@3PAPAUIDirectSoundBuffer@@A[ecx], 0
$LN4@stop_bgm:

; 671  : 	}
; 672  : 	t_music_fade_flg = 0;

  00098	c7 05 00 00 00
	00 00 00 00 00	 mov	 DWORD PTR ?t_music_fade_flg@@3HA, 0 ; t_music_fade_flg

; 673  : 	t_music_playing_flg = 0;

  000a2	c7 05 00 00 00
	00 00 00 00 00	 mov	 DWORD PTR ?t_music_playing_flg@@3HA, 0 ; t_music_playing_flg

; 674  : 	map_bgm_vct_no = 0;

  000ac	c7 05 00 00 00
	00 00 00 00 00	 mov	 DWORD PTR ?map_bgm_vct_no@@3HA, 0

; 675  : 	 map_bgm_no = t_music_bgm_no;

  000b6	a1 00 00 00 00	 mov	 eax, DWORD PTR ?t_music_bgm_no@@3HA ; t_music_bgm_no
  000bb	a3 00 00 00 00	 mov	 DWORD PTR ?map_bgm_no@@3HA, eax ; map_bgm_no
$LN1@stop_bgm:

; 676  : }

  000c0	5f		 pop	 edi
  000c1	5e		 pop	 esi
  000c2	5b		 pop	 ebx
  000c3	81 c4 c0 00 00
	00		 add	 esp, 192		; 000000c0H
  000c9	3b ec		 cmp	 ebp, esp
  000cb	e8 00 00 00 00	 call	 __RTC_CheckEsp
  000d0	8b e5		 mov	 esp, ebp
  000d2	5d		 pop	 ebp
  000d3	c3		 ret	 0
?stop_bgm@@YAXXZ ENDP					; stop_bgm
_TEXT	ENDS
; Function compile flags: /Odtp /RTCsu /ZI
; File c:\users\administrator\desktop\????? ??\????? ??\client source code\system\t_music.cpp
;	COMDAT ?set_gbm_pitch@@YAXXZ
_TEXT	SEGMENT
?set_gbm_pitch@@YAXXZ PROC				; set_gbm_pitch, COMDAT

; 3001 : {

  00000	55		 push	 ebp
  00001	8b ec		 mov	 ebp, esp
  00003	81 ec c0 00 00
	00		 sub	 esp, 192		; 000000c0H
  00009	53		 push	 ebx
  0000a	56		 push	 esi
  0000b	57		 push	 edi
  0000c	8d bd 40 ff ff
	ff		 lea	 edi, DWORD PTR [ebp-192]
  00012	b9 30 00 00 00	 mov	 ecx, 48			; 00000030H
  00017	b8 cc cc cc cc	 mov	 eax, -858993460		; ccccccccH
  0001c	f3 ab		 rep stosd

; 3002 : 	if(dsound_flg == -1)

  0001e	83 3d 00 00 00
	00 ff		 cmp	 DWORD PTR ?dsound_flg@@3HA, -1 ; dsound_flg
  00025	75 02		 jne	 SHORT $LN2@set_gbm_pi

; 3003 : 		return;

  00027	eb 47		 jmp	 SHORT $LN1@set_gbm_pi
$LN2@set_gbm_pi:

; 3004 : 
; 3005 : 	//??????
; 3006 : 	pDSData_tone[ TONE_MAX ]->SetFrequency((DWORD)freq_tbl[36+1+t_music_bgm_pitch[t_music_bgm_no]]);

  00029	a1 00 00 00 00	 mov	 eax, DWORD PTR ?t_music_bgm_no@@3HA ; t_music_bgm_no
  0002e	0f be 88 00 00
	00 00		 movsx	 ecx, BYTE PTR ?t_music_bgm_pitch@@3PADA[eax]
  00035	8b f4		 mov	 esi, esp
  00037	8b 14 8d 94 00
	00 00		 mov	 edx, DWORD PTR ?freq_tbl@@3PAHA[ecx*4+148]
  0003e	52		 push	 edx
  0003f	b8 04 00 00 00	 mov	 eax, 4
  00044	69 c8 f4 01 00
	00		 imul	 ecx, eax, 500
  0004a	8b 91 00 00 00
	00		 mov	 edx, DWORD PTR ?pDSData_tone@@3PAPAUIDirectSoundBuffer@@A[ecx]
  00050	b8 04 00 00 00	 mov	 eax, 4
  00055	69 c8 f4 01 00
	00		 imul	 ecx, eax, 500
  0005b	8b 81 00 00 00
	00		 mov	 eax, DWORD PTR ?pDSData_tone@@3PAPAUIDirectSoundBuffer@@A[ecx]
  00061	8b 0a		 mov	 ecx, DWORD PTR [edx]
  00063	50		 push	 eax
  00064	8b 51 44	 mov	 edx, DWORD PTR [ecx+68]
  00067	ff d2		 call	 edx
  00069	3b f4		 cmp	 esi, esp
  0006b	e8 00 00 00 00	 call	 __RTC_CheckEsp
$LN1@set_gbm_pi:

; 3007 : }

  00070	5f		 pop	 edi
  00071	5e		 pop	 esi
  00072	5b		 pop	 ebx
  00073	81 c4 c0 00 00
	00		 add	 esp, 192		; 000000c0H
  00079	3b ec		 cmp	 ebp, esp
  0007b	e8 00 00 00 00	 call	 __RTC_CheckEsp
  00080	8b e5		 mov	 esp, ebp
  00082	5d		 pop	 ebp
  00083	c3		 ret	 0
?set_gbm_pitch@@YAXXZ ENDP				; set_gbm_pitch
_TEXT	ENDS
; Function compile flags: /Odtp /RTCsu /ZI
; File c:\users\administrator\desktop\????? ??\????? ??\client source code\system\t_music.cpp
;	COMDAT ?bgm_volume_change@@YAXXZ
_TEXT	SEGMENT
?bgm_volume_change@@YAXXZ PROC				; bgm_volume_change, COMDAT

; 2982 : {

  00000	55		 push	 ebp
  00001	8b ec		 mov	 ebp, esp
  00003	81 ec c0 00 00
	00		 sub	 esp, 192		; 000000c0H
  00009	53		 push	 ebx
  0000a	56		 push	 esi
  0000b	57		 push	 edi
  0000c	8d bd 40 ff ff
	ff		 lea	 edi, DWORD PTR [ebp-192]
  00012	b9 30 00 00 00	 mov	 ecx, 48			; 00000030H
  00017	b8 cc cc cc cc	 mov	 eax, -858993460		; ccccccccH
  0001c	f3 ab		 rep stosd

; 2983 : #ifdef _NB_CANCEL_BGM
; 2984 : 	if (声音开关) return;

  0001e	83 3d 00 00 00
	00 00		 cmp	 DWORD PTR ?声音开关@@3HA, 0 ; 声音开关
  00025	74 05		 je	 SHORT $LN2@bgm_volume
  00027	e9 89 00 00 00	 jmp	 $LN1@bgm_volume
$LN2@bgm_volume:

; 2985 : #endif
; 2986 : 	if(dsound_flg == -1)

  0002c	83 3d 00 00 00
	00 ff		 cmp	 DWORD PTR ?dsound_flg@@3HA, -1 ; dsound_flg
  00033	75 02		 jne	 SHORT $LN3@bgm_volume

; 2987 : 		return;

  00035	eb 7e		 jmp	 SHORT $LN1@bgm_volume
$LN3@bgm_volume:

; 2988 : 
; 2989 : 	if(t_music_bgm_volume > 15){		//d????

  00037	83 3d 00 00 00
	00 0f		 cmp	 DWORD PTR ?t_music_bgm_volume@@3HA, 15 ; t_music_bgm_volume, 0000000fH
  0003e	7e 0a		 jle	 SHORT $LN4@bgm_volume

; 2990 : 		t_music_bgm_volume = 15;

  00040	c7 05 00 00 00
	00 0f 00 00 00	 mov	 DWORD PTR ?t_music_bgm_volume@@3HA, 15 ; t_music_bgm_volume, 0000000fH
$LN4@bgm_volume:

; 2991 : 	}
; 2992 : 	if(t_music_bgm_volume < 0){		//d????

  0004a	83 3d 00 00 00
	00 00		 cmp	 DWORD PTR ?t_music_bgm_volume@@3HA, 0 ; t_music_bgm_volume
  00051	7d 0a		 jge	 SHORT $LN5@bgm_volume

; 2993 : 		t_music_bgm_volume = 0;

  00053	c7 05 00 00 00
	00 00 00 00 00	 mov	 DWORD PTR ?t_music_bgm_volume@@3HA, 0 ; t_music_bgm_volume
$LN5@bgm_volume:

; 2994 : 	}
; 2995 : 	//?????
; 2996 : 	pDSData_tone[ TONE_MAX ]->SetVolume(volume_tbl[ bgm_tbl[t_music_bgm_no].volume * t_music_bgm_volume / 15 ]);		// ????????

  0005d	a1 00 00 00 00	 mov	 eax, DWORD PTR ?t_music_bgm_no@@3HA ; t_music_bgm_no
  00062	c1 e0 04	 shl	 eax, 4
  00065	8b 80 04 00 00
	00		 mov	 eax, DWORD PTR ?bgm_tbl@@3PAUT_MUSIC_BGM@@A[eax+4]
  0006b	0f af 05 00 00
	00 00		 imul	 eax, DWORD PTR ?t_music_bgm_volume@@3HA ; t_music_bgm_volume
  00072	99		 cdq
  00073	b9 0f 00 00 00	 mov	 ecx, 15			; 0000000fH
  00078	f7 f9		 idiv	 ecx
  0007a	8b f4		 mov	 esi, esp
  0007c	8b 14 85 00 00
	00 00		 mov	 edx, DWORD PTR ?volume_tbl@@3PAJA[eax*4]
  00083	52		 push	 edx
  00084	b8 04 00 00 00	 mov	 eax, 4
  00089	69 c8 f4 01 00
	00		 imul	 ecx, eax, 500
  0008f	8b 91 00 00 00
	00		 mov	 edx, DWORD PTR ?pDSData_tone@@3PAPAUIDirectSoundBuffer@@A[ecx]
  00095	b8 04 00 00 00	 mov	 eax, 4
  0009a	69 c8 f4 01 00
	00		 imul	 ecx, eax, 500
  000a0	8b 81 00 00 00
	00		 mov	 eax, DWORD PTR ?pDSData_tone@@3PAPAUIDirectSoundBuffer@@A[ecx]
  000a6	8b 0a		 mov	 ecx, DWORD PTR [edx]
  000a8	50		 push	 eax
  000a9	8b 51 3c	 mov	 edx, DWORD PTR [ecx+60]
  000ac	ff d2		 call	 edx
  000ae	3b f4		 cmp	 esi, esp
  000b0	e8 00 00 00 00	 call	 __RTC_CheckEsp
$LN1@bgm_volume:

; 2997 : }

  000b5	5f		 pop	 edi
  000b6	5e		 pop	 esi
  000b7	5b		 pop	 ebx
  000b8	81 c4 c0 00 00
	00		 add	 esp, 192		; 000000c0H
  000be	3b ec		 cmp	 ebp, esp
  000c0	e8 00 00 00 00	 call	 __RTC_CheckEsp
  000c5	8b e5		 mov	 esp, ebp
  000c7	5d		 pop	 ebp
  000c8	c3		 ret	 0
?bgm_volume_change@@YAXXZ ENDP				; bgm_volume_change
_TEXT	ENDS
; Function compile flags: /Odtp /RTCsu /ZI
; File c:\users\administrator\desktop\????? ??\????? ??\client source code\system\t_music.cpp
;	COMDAT ?play_bgm@@YAHH@Z
_TEXT	SEGMENT
_d2$1 = -112						; size = 4
_d1$2 = -100						; size = 4
_d0$3 = -88						; size = 4
_fp$4 = -76						; size = 4
_WaveSize$ = -64					; size = 4
_DataSize$ = -52					; size = 4
_Wfmtx$ = -40						; size = 18
_hmmio$ = -12						; size = 4
__$ArrayPad$ = -4					; size = 4
_bgm_no$ = 8						; size = 4
?play_bgm@@YAHH@Z PROC					; play_bgm, COMDAT

; 2831 : {

  00000	55		 push	 ebp
  00001	8b ec		 mov	 ebp, esp
  00003	81 ec 34 01 00
	00		 sub	 esp, 308		; 00000134H
  00009	53		 push	 ebx
  0000a	56		 push	 esi
  0000b	57		 push	 edi
  0000c	8d bd cc fe ff
	ff		 lea	 edi, DWORD PTR [ebp-308]
  00012	b9 4d 00 00 00	 mov	 ecx, 77			; 0000004dH
  00017	b8 cc cc cc cc	 mov	 eax, -858993460		; ccccccccH
  0001c	f3 ab		 rep stosd
  0001e	a1 00 00 00 00	 mov	 eax, DWORD PTR ___security_cookie
  00023	33 c5		 xor	 eax, ebp
  00025	89 45 fc	 mov	 DWORD PTR __$ArrayPad$[ebp], eax

; 2832 : #ifdef _NB_CANCEL_BGM
; 2833 : 	if (声音开关) return -1;

  00028	83 3d 00 00 00
	00 00		 cmp	 DWORD PTR ?声音开关@@3HA, 0 ; 声音开关
  0002f	74 08		 je	 SHORT $LN2@play_bgm
  00031	83 c8 ff	 or	 eax, -1
  00034	e9 b0 04 00 00	 jmp	 $LN1@play_bgm
$LN2@play_bgm:

; 2834 : #endif
; 2835 : 	HMMIO hmmio;			//????????
; 2836 :     WAVEFORMATEX	Wfmtx;			//WAVE??????????????
; 2837 : 	DWORD			DataSize;		//?????????
; 2838 : 	DWORD			WaveSize;		//Wave????????
; 2839 : 
; 2840 : //	bgm_no = 0;
; 2841 : 	//cary 2001 7 17
; 2842 : 	if( bgm_no < 0)

  00039	83 7d 08 00	 cmp	 DWORD PTR _bgm_no$[ebp], 0
  0003d	7d 07		 jge	 SHORT $LN3@play_bgm

; 2843 : 		bgm_no = 0;

  0003f	c7 45 08 00 00
	00 00		 mov	 DWORD PTR _bgm_no$[ebp], 0
$LN3@play_bgm:

; 2844 : 
; 2845 : 	//??????????
; 2846 : 	t_music_fade_flg = 0;

  00046	c7 05 00 00 00
	00 00 00 00 00	 mov	 DWORD PTR ?t_music_fade_flg@@3HA, 0 ; t_music_fade_flg

; 2847 : 
; 2848 : 	if(dsound_flg == -1)

  00050	83 3d 00 00 00
	00 ff		 cmp	 DWORD PTR ?dsound_flg@@3HA, -1 ; dsound_flg
  00057	75 08		 jne	 SHORT $LN4@play_bgm

; 2849 : 		return -1;

  00059	83 c8 ff	 or	 eax, -1
  0005c	e9 88 04 00 00	 jmp	 $LN1@play_bgm
$LN4@play_bgm:

; 2850 : 
; 2851 : 	//???????????
; 2852 : 	if(t_music_bgm_no != -1){

  00061	83 3d 00 00 00
	00 ff		 cmp	 DWORD PTR ?t_music_bgm_no@@3HA, -1 ; t_music_bgm_no
  00068	74 05		 je	 SHORT $LN5@play_bgm

; 2853 : 		//????_?
; 2854 : 		stop_thread();

  0006a	e8 00 00 00 00	 call	 ?stop_thread@@YAXXZ	; stop_thread
$LN5@play_bgm:

; 2855 : 	}
; 2856 : 
; 2857 : 	//????????????
; 2858 : //	if( (hmmio = mmioOpen(fname[bgm_no], NULL, MMIO_READ | MMIO_ALLOCBUF )) == NULL){
; 2859 : 	if( (hmmio = mmioOpen(bgm_tbl[bgm_no].fname, NULL, MMIO_READ | MMIO_ALLOCBUF )) == NULL){

  0006f	8b f4		 mov	 esi, esp
  00071	68 00 00 01 00	 push	 65536			; 00010000H
  00076	6a 00		 push	 0
  00078	8b 45 08	 mov	 eax, DWORD PTR _bgm_no$[ebp]
  0007b	c1 e0 04	 shl	 eax, 4
  0007e	8b 88 00 00 00
	00		 mov	 ecx, DWORD PTR ?bgm_tbl@@3PAUT_MUSIC_BGM@@A[eax]
  00084	51		 push	 ecx
  00085	ff 15 00 00 00
	00		 call	 DWORD PTR __imp__mmioOpenA@12
  0008b	3b f4		 cmp	 esi, esp
  0008d	e8 00 00 00 00	 call	 __RTC_CheckEsp
  00092	89 45 f4	 mov	 DWORD PTR _hmmio$[ebp], eax
  00095	83 7d f4 00	 cmp	 DWORD PTR _hmmio$[ebp], 0
  00099	75 07		 jne	 SHORT $LN6@play_bgm

; 2860 : #ifdef  _STONDEBUG_
; 2861 : 		MessageBox(hWnd, "打开WAV档失败！", "Error", MB_OK);
; 2862 : #endif
; 2863 : 		return FALSE;

  0009b	33 c0		 xor	 eax, eax
  0009d	e9 47 04 00 00	 jmp	 $LN1@play_bgm
$LN6@play_bgm:

; 2864 : 	}
; 2865 : 	//???????????
; 2866 : 	if( WaveFormatRead( hmmio , &Wfmtx , &WaveSize ) == FALSE ){

  000a2	8d 45 c0	 lea	 eax, DWORD PTR _WaveSize$[ebp]
  000a5	50		 push	 eax
  000a6	8d 4d d8	 lea	 ecx, DWORD PTR _Wfmtx$[ebp]
  000a9	51		 push	 ecx
  000aa	8b 55 f4	 mov	 edx, DWORD PTR _hmmio$[ebp]
  000ad	52		 push	 edx
  000ae	e8 00 00 00 00	 call	 ?WaveFormatRead@@YAHPAUHMMIO__@@PAUtWAVEFORMATEX@@PAK@Z ; WaveFormatRead
  000b3	83 c4 0c	 add	 esp, 12			; 0000000cH
  000b6	85 c0		 test	 eax, eax
  000b8	75 07		 jne	 SHORT $LN7@play_bgm

; 2867 : #ifdef  _STONDEBUG_
; 2868 : 		MessageBox(hWnd, "读取声音格式失败！", "Error", MB_OK);
; 2869 : #endif
; 2870 : 		return FALSE;

  000ba	33 c0		 xor	 eax, eax
  000bc	e9 28 04 00 00	 jmp	 $LN1@play_bgm
$LN7@play_bgm:

; 2871 : 	}
; 2872 : 	DataSize = WaveSize;

  000c1	8b 45 c0	 mov	 eax, DWORD PTR _WaveSize$[ebp]
  000c4	89 45 cc	 mov	 DWORD PTR _DataSize$[ebp], eax

; 2873 : 	//??????????????
; 2874 : 	if(bgm_tbl[bgm_no].loop_flg == 2){		//N??????

  000c7	8b 45 08	 mov	 eax, DWORD PTR _bgm_no$[ebp]
  000ca	c1 e0 04	 shl	 eax, 4
  000cd	0f be 88 08 00
	00 00		 movsx	 ecx, BYTE PTR ?bgm_tbl@@3PAUT_MUSIC_BGM@@A[eax+8]
  000d4	83 f9 02	 cmp	 ecx, 2
  000d7	0f 85 52 02 00
	00		 jne	 $LN8@play_bgm

; 2875 : 		thread_stop_flg = 1;		//?????

  000dd	c7 05 00 00 00
	00 01 00 00 00	 mov	 DWORD PTR ?thread_stop_flg@@3HA, 1

; 2876 : 		//???雪???
; 2877 : #if BGM_AUTO_LOOP
; 2878 : 		FILE *fp;
; 2879 : 		int d0,d1,d2;
; 2880 : 		fp = fopen( bgm_tbl[bgm_no].fname, "rb" );

  000e7	8b f4		 mov	 esi, esp
  000e9	68 00 00 00 00	 push	 OFFSET ??_C@_02JDPG@rb?$AA@
  000ee	8b 45 08	 mov	 eax, DWORD PTR _bgm_no$[ebp]
  000f1	c1 e0 04	 shl	 eax, 4
  000f4	8b 88 00 00 00
	00		 mov	 ecx, DWORD PTR ?bgm_tbl@@3PAUT_MUSIC_BGM@@A[eax]
  000fa	51		 push	 ecx
  000fb	ff 15 00 00 00
	00		 call	 DWORD PTR __imp__fopen
  00101	83 c4 08	 add	 esp, 8
  00104	3b f4		 cmp	 esi, esp
  00106	e8 00 00 00 00	 call	 __RTC_CheckEsp
  0010b	89 45 b4	 mov	 DWORD PTR _fp$4[ebp], eax

; 2881 : 		if( fp == NULL ){

  0010e	83 7d b4 00	 cmp	 DWORD PTR _fp$4[ebp], 0
  00112	75 07		 jne	 SHORT $LN10@play_bgm

; 2882 : #ifdef  _STONDEBUG_
; 2883 : 			MessageBox(hWnd, "打开声音档失败！", "Error", MB_OK);
; 2884 : #endif
; 2885 : 			return FALSE;

  00114	33 c0		 xor	 eax, eax
  00116	e9 ce 03 00 00	 jmp	 $LN1@play_bgm
$LN10@play_bgm:

; 2886 : 		}
; 2887 : 		d2 = 8;							//??????????????

  0011b	c7 45 90 08 00
	00 00		 mov	 DWORD PTR _d2$1[ebp], 8

; 2888 : 		d2 += 4;						//??????????????

  00122	8b 45 90	 mov	 eax, DWORD PTR _d2$1[ebp]
  00125	83 c0 04	 add	 eax, 4
  00128	89 45 90	 mov	 DWORD PTR _d2$1[ebp], eax

; 2889 : 		d2 += 4;						//????  ?????????

  0012b	8b 45 90	 mov	 eax, DWORD PTR _d2$1[ebp]
  0012e	83 c0 04	 add	 eax, 4
  00131	89 45 90	 mov	 DWORD PTR _d2$1[ebp], eax

; 2890 : 		d2 += 16;						//?????????

  00134	8b 45 90	 mov	 eax, DWORD PTR _d2$1[ebp]
  00137	83 c0 10	 add	 eax, 16			; 00000010H
  0013a	89 45 90	 mov	 DWORD PTR _d2$1[ebp], eax

; 2891 : 		fseek(fp,d2,SEEK_CUR);			//??????????h

  0013d	8b f4		 mov	 esi, esp
  0013f	6a 01		 push	 1
  00141	8b 45 90	 mov	 eax, DWORD PTR _d2$1[ebp]
  00144	50		 push	 eax
  00145	8b 4d b4	 mov	 ecx, DWORD PTR _fp$4[ebp]
  00148	51		 push	 ecx
  00149	ff 15 00 00 00
	00		 call	 DWORD PTR __imp__fseek
  0014f	83 c4 0c	 add	 esp, 12			; 0000000cH
  00152	3b f4		 cmp	 esi, esp
  00154	e8 00 00 00 00	 call	 __RTC_CheckEsp

; 2892 : 		d0 = fgetc(fp);					//????????????

  00159	8b f4		 mov	 esi, esp
  0015b	8b 45 b4	 mov	 eax, DWORD PTR _fp$4[ebp]
  0015e	50		 push	 eax
  0015f	ff 15 00 00 00
	00		 call	 DWORD PTR __imp__fgetc
  00165	83 c4 04	 add	 esp, 4
  00168	3b f4		 cmp	 esi, esp
  0016a	e8 00 00 00 00	 call	 __RTC_CheckEsp
  0016f	89 45 a8	 mov	 DWORD PTR _d0$3[ebp], eax

; 2893 : 		d0 |= fgetc(fp) << 8;			//

  00172	8b f4		 mov	 esi, esp
  00174	8b 45 b4	 mov	 eax, DWORD PTR _fp$4[ebp]
  00177	50		 push	 eax
  00178	ff 15 00 00 00
	00		 call	 DWORD PTR __imp__fgetc
  0017e	83 c4 04	 add	 esp, 4
  00181	3b f4		 cmp	 esi, esp
  00183	e8 00 00 00 00	 call	 __RTC_CheckEsp
  00188	c1 e0 08	 shl	 eax, 8
  0018b	0b 45 a8	 or	 eax, DWORD PTR _d0$3[ebp]
  0018e	89 45 a8	 mov	 DWORD PTR _d0$3[ebp], eax

; 2894 : 		d2 = 2;							//????????

  00191	c7 45 90 02 00
	00 00		 mov	 DWORD PTR _d2$1[ebp], 2

; 2895 : 		d2 += 12+DataSize;				//??????????  ?  ??????????

  00198	8b 45 cc	 mov	 eax, DWORD PTR _DataSize$[ebp]
  0019b	8b 4d 90	 mov	 ecx, DWORD PTR _d2$1[ebp]
  0019e	8d 54 01 0c	 lea	 edx, DWORD PTR [ecx+eax+12]
  001a2	89 55 90	 mov	 DWORD PTR _d2$1[ebp], edx

; 2896 : 		if(DataSize&1){					//????????

  001a5	8b 45 cc	 mov	 eax, DWORD PTR _DataSize$[ebp]
  001a8	83 e0 01	 and	 eax, 1
  001ab	74 09		 je	 SHORT $LN11@play_bgm

; 2897 : 			d2++;						//?????

  001ad	8b 45 90	 mov	 eax, DWORD PTR _d2$1[ebp]
  001b0	83 c0 01	 add	 eax, 1
  001b3	89 45 90	 mov	 DWORD PTR _d2$1[ebp], eax
$LN11@play_bgm:

; 2898 : 		}
; 2899 : 		d2 += 12*4;						//??????????

  001b6	8b 45 90	 mov	 eax, DWORD PTR _d2$1[ebp]
  001b9	83 c0 30	 add	 eax, 48			; 00000030H
  001bc	89 45 90	 mov	 DWORD PTR _d2$1[ebp], eax

; 2900 : 		fseek(fp,d2,SEEK_CUR);			//??????????h

  001bf	8b f4		 mov	 esi, esp
  001c1	6a 01		 push	 1
  001c3	8b 45 90	 mov	 eax, DWORD PTR _d2$1[ebp]
  001c6	50		 push	 eax
  001c7	8b 4d b4	 mov	 ecx, DWORD PTR _fp$4[ebp]
  001ca	51		 push	 ecx
  001cb	ff 15 00 00 00
	00		 call	 DWORD PTR __imp__fseek
  001d1	83 c4 0c	 add	 esp, 12			; 0000000cH
  001d4	3b f4		 cmp	 esi, esp
  001d6	e8 00 00 00 00	 call	 __RTC_CheckEsp

; 2901 : 
; 2902 : 		//?????t
; 2903 : 		d1 = fgetc(fp);					//??????????

  001db	8b f4		 mov	 esi, esp
  001dd	8b 45 b4	 mov	 eax, DWORD PTR _fp$4[ebp]
  001e0	50		 push	 eax
  001e1	ff 15 00 00 00
	00		 call	 DWORD PTR __imp__fgetc
  001e7	83 c4 04	 add	 esp, 4
  001ea	3b f4		 cmp	 esi, esp
  001ec	e8 00 00 00 00	 call	 __RTC_CheckEsp
  001f1	89 45 9c	 mov	 DWORD PTR _d1$2[ebp], eax

; 2904 : 		d1 |= fgetc(fp) << 8;			//

  001f4	8b f4		 mov	 esi, esp
  001f6	8b 45 b4	 mov	 eax, DWORD PTR _fp$4[ebp]
  001f9	50		 push	 eax
  001fa	ff 15 00 00 00
	00		 call	 DWORD PTR __imp__fgetc
  00200	83 c4 04	 add	 esp, 4
  00203	3b f4		 cmp	 esi, esp
  00205	e8 00 00 00 00	 call	 __RTC_CheckEsp
  0020a	c1 e0 08	 shl	 eax, 8
  0020d	0b 45 9c	 or	 eax, DWORD PTR _d1$2[ebp]
  00210	89 45 9c	 mov	 DWORD PTR _d1$2[ebp], eax

; 2905 : 		d1 |= fgetc(fp) << 16;			//

  00213	8b f4		 mov	 esi, esp
  00215	8b 45 b4	 mov	 eax, DWORD PTR _fp$4[ebp]
  00218	50		 push	 eax
  00219	ff 15 00 00 00
	00		 call	 DWORD PTR __imp__fgetc
  0021f	83 c4 04	 add	 esp, 4
  00222	3b f4		 cmp	 esi, esp
  00224	e8 00 00 00 00	 call	 __RTC_CheckEsp
  00229	c1 e0 10	 shl	 eax, 16			; 00000010H
  0022c	0b 45 9c	 or	 eax, DWORD PTR _d1$2[ebp]
  0022f	89 45 9c	 mov	 DWORD PTR _d1$2[ebp], eax

; 2906 : 		d1 |= fgetc(fp) << 24;			//

  00232	8b f4		 mov	 esi, esp
  00234	8b 45 b4	 mov	 eax, DWORD PTR _fp$4[ebp]
  00237	50		 push	 eax
  00238	ff 15 00 00 00
	00		 call	 DWORD PTR __imp__fgetc
  0023e	83 c4 04	 add	 esp, 4
  00241	3b f4		 cmp	 esi, esp
  00243	e8 00 00 00 00	 call	 __RTC_CheckEsp
  00248	c1 e0 18	 shl	 eax, 24			; 00000018H
  0024b	0b 45 9c	 or	 eax, DWORD PTR _d1$2[ebp]
  0024e	89 45 9c	 mov	 DWORD PTR _d1$2[ebp], eax

; 2907 : 		if( d1 < 0)

  00251	7d 0c		 jge	 SHORT $LN12@play_bgm

; 2908 : 			thread_loop_start = 0;

  00253	c7 05 00 00 00
	00 00 00 00 00	 mov	 DWORD PTR ?thread_loop_start@@3HA, 0

; 2909 : 		else

  0025d	eb 0c		 jmp	 SHORT $LN13@play_bgm
$LN12@play_bgm:

; 2910 : 			thread_loop_start = d1 * d0;	//????t???

  0025f	8b 45 9c	 mov	 eax, DWORD PTR _d1$2[ebp]
  00262	0f af 45 a8	 imul	 eax, DWORD PTR _d0$3[ebp]
  00266	a3 00 00 00 00	 mov	 DWORD PTR ?thread_loop_start@@3HA, eax
$LN13@play_bgm:

; 2911 : 		//?????t
; 2912 : 		d1 = fgetc(fp);

  0026b	8b f4		 mov	 esi, esp
  0026d	8b 45 b4	 mov	 eax, DWORD PTR _fp$4[ebp]
  00270	50		 push	 eax
  00271	ff 15 00 00 00
	00		 call	 DWORD PTR __imp__fgetc
  00277	83 c4 04	 add	 esp, 4
  0027a	3b f4		 cmp	 esi, esp
  0027c	e8 00 00 00 00	 call	 __RTC_CheckEsp
  00281	89 45 9c	 mov	 DWORD PTR _d1$2[ebp], eax

; 2913 : 		d1 |= fgetc(fp) << 8;

  00284	8b f4		 mov	 esi, esp
  00286	8b 45 b4	 mov	 eax, DWORD PTR _fp$4[ebp]
  00289	50		 push	 eax
  0028a	ff 15 00 00 00
	00		 call	 DWORD PTR __imp__fgetc
  00290	83 c4 04	 add	 esp, 4
  00293	3b f4		 cmp	 esi, esp
  00295	e8 00 00 00 00	 call	 __RTC_CheckEsp
  0029a	c1 e0 08	 shl	 eax, 8
  0029d	0b 45 9c	 or	 eax, DWORD PTR _d1$2[ebp]
  002a0	89 45 9c	 mov	 DWORD PTR _d1$2[ebp], eax

; 2914 : 		d1 |= fgetc(fp) << 16;

  002a3	8b f4		 mov	 esi, esp
  002a5	8b 45 b4	 mov	 eax, DWORD PTR _fp$4[ebp]
  002a8	50		 push	 eax
  002a9	ff 15 00 00 00
	00		 call	 DWORD PTR __imp__fgetc
  002af	83 c4 04	 add	 esp, 4
  002b2	3b f4		 cmp	 esi, esp
  002b4	e8 00 00 00 00	 call	 __RTC_CheckEsp
  002b9	c1 e0 10	 shl	 eax, 16			; 00000010H
  002bc	0b 45 9c	 or	 eax, DWORD PTR _d1$2[ebp]
  002bf	89 45 9c	 mov	 DWORD PTR _d1$2[ebp], eax

; 2915 : 		d1 |= fgetc(fp) << 24;

  002c2	8b f4		 mov	 esi, esp
  002c4	8b 45 b4	 mov	 eax, DWORD PTR _fp$4[ebp]
  002c7	50		 push	 eax
  002c8	ff 15 00 00 00
	00		 call	 DWORD PTR __imp__fgetc
  002ce	83 c4 04	 add	 esp, 4
  002d1	3b f4		 cmp	 esi, esp
  002d3	e8 00 00 00 00	 call	 __RTC_CheckEsp
  002d8	c1 e0 18	 shl	 eax, 24			; 00000018H
  002db	0b 45 9c	 or	 eax, DWORD PTR _d1$2[ebp]
  002de	89 45 9c	 mov	 DWORD PTR _d1$2[ebp], eax

; 2916 : //		thread_loop_end = d1 * d0;
; 2917 : 
; 2918 : 		fclose(fp);

  002e1	8b f4		 mov	 esi, esp
  002e3	8b 45 b4	 mov	 eax, DWORD PTR _fp$4[ebp]
  002e6	50		 push	 eax
  002e7	ff 15 00 00 00
	00		 call	 DWORD PTR __imp__fclose
  002ed	83 c4 04	 add	 esp, 4
  002f0	3b f4		 cmp	 esi, esp
  002f2	e8 00 00 00 00	 call	 __RTC_CheckEsp

; 2919 : #else
; 2920 : 		thread_loop_start = bgm_tbl[bgm_no].loop_point << 1;
; 2921 : #endif
; 2922 : //		thread_loop_start = bgm_tbl[bgm_no].loop_start;
; 2923 : //		thread_loop_end = bgm_tbl[bgm_no].loop_end;
; 2924 : //		if( dwSoundInit2( &Wfmtx, DataSize, &pDSData_tone[TONE_MAX], hmmio ) == FALSE ){
; 2925 : 		if( dwSoundInit2( &Wfmtx, DataSize, &pDSData_stream, hmmio ) == FALSE ){

  002f7	8b 45 f4	 mov	 eax, DWORD PTR _hmmio$[ebp]
  002fa	50		 push	 eax
  002fb	68 00 00 00 00	 push	 OFFSET ?pDSData_stream@@3PAUIDirectSoundBuffer@@A ; pDSData_stream
  00300	8b 4d cc	 mov	 ecx, DWORD PTR _DataSize$[ebp]
  00303	51		 push	 ecx
  00304	8d 55 d8	 lea	 edx, DWORD PTR _Wfmtx$[ebp]
  00307	52		 push	 edx
  00308	e8 00 00 00 00	 call	 ?dwSoundInit2@@YAHPAUtWAVEFORMATEX@@KPAPAUIDirectSoundBuffer@@PAUHMMIO__@@@Z ; dwSoundInit2
  0030d	83 c4 10	 add	 esp, 16			; 00000010H
  00310	85 c0		 test	 eax, eax
  00312	75 07		 jne	 SHORT $LN14@play_bgm

; 2926 : #ifdef  _STONDEBUG_
; 2927 : 			MessageBox(hWnd, "建立声音的buffer失败！", "Error", MB_OK);
; 2928 : #endif
; 2929 : 			return FALSE;

  00314	33 c0		 xor	 eax, eax
  00316	e9 ce 01 00 00	 jmp	 $LN1@play_bgm
$LN14@play_bgm:

; 2930 : 		}
; 2931 : #if BGM_AUTO_LOOP
; 2932 : 		if( d1 > 0)

  0031b	83 7d 9c 00	 cmp	 DWORD PTR _d1$2[ebp], 0
  0031f	7e 0c		 jle	 SHORT $LN15@play_bgm

; 2933 : 			sd.dwWaveSize = d1 * d0;		//?????t????????????????

  00321	8b 45 9c	 mov	 eax, DWORD PTR _d1$2[ebp]
  00324	0f af 45 a8	 imul	 eax, DWORD PTR _d0$3[ebp]
  00328	a3 14 00 00 00	 mov	 DWORD PTR ?sd@@3USoundData@@A+20, eax
$LN15@play_bgm:

; 2934 : #endif
; 2935 : 	} else {

  0032d	eb 64		 jmp	 SHORT $LN9@play_bgm
$LN8@play_bgm:

; 2936 : 		thread_stop_flg = 0;		//?????

  0032f	c7 05 00 00 00
	00 00 00 00 00	 mov	 DWORD PTR ?thread_stop_flg@@3HA, 0

; 2937 : 		if( dwSoundInit( &Wfmtx, DataSize, &pDSData_tone[TONE_MAX] ) == FALSE ){

  00339	b8 04 00 00 00	 mov	 eax, 4
  0033e	69 c8 f4 01 00
	00		 imul	 ecx, eax, 500
  00344	81 c1 00 00 00
	00		 add	 ecx, OFFSET ?pDSData_tone@@3PAPAUIDirectSoundBuffer@@A ; pDSData_tone
  0034a	51		 push	 ecx
  0034b	8b 55 cc	 mov	 edx, DWORD PTR _DataSize$[ebp]
  0034e	52		 push	 edx
  0034f	8d 45 d8	 lea	 eax, DWORD PTR _Wfmtx$[ebp]
  00352	50		 push	 eax
  00353	e8 00 00 00 00	 call	 ?dwSoundInit@@YAHPAUtWAVEFORMATEX@@KPAPAUIDirectSoundBuffer@@@Z ; dwSoundInit
  00358	83 c4 0c	 add	 esp, 12			; 0000000cH
  0035b	85 c0		 test	 eax, eax
  0035d	75 07		 jne	 SHORT $LN16@play_bgm

; 2938 : #ifdef  _STONDEBUG_
; 2939 : 			MessageBox(hWnd, "建立声音的buffer失败！", "Error", MB_OK);
; 2940 : #endif
; 2941 : 			return FALSE;

  0035f	33 c0		 xor	 eax, eax
  00361	e9 83 01 00 00	 jmp	 $LN1@play_bgm
$LN16@play_bgm:

; 2942 : 		}
; 2943 : 		//???????
; 2944 : 		if( WaveDataRead( hmmio, &DataSize, pDSData_tone[TONE_MAX] ) == FALSE  ){

  00366	b8 04 00 00 00	 mov	 eax, 4
  0036b	69 c8 f4 01 00
	00		 imul	 ecx, eax, 500
  00371	8b 91 00 00 00
	00		 mov	 edx, DWORD PTR ?pDSData_tone@@3PAPAUIDirectSoundBuffer@@A[ecx]
  00377	52		 push	 edx
  00378	8d 45 cc	 lea	 eax, DWORD PTR _DataSize$[ebp]
  0037b	50		 push	 eax
  0037c	8b 4d f4	 mov	 ecx, DWORD PTR _hmmio$[ebp]
  0037f	51		 push	 ecx
  00380	e8 00 00 00 00	 call	 ?WaveDataRead@@YAHPAUHMMIO__@@PAKPAUIDirectSoundBuffer@@@Z ; WaveDataRead
  00385	83 c4 0c	 add	 esp, 12			; 0000000cH
  00388	85 c0		 test	 eax, eax
  0038a	75 07		 jne	 SHORT $LN9@play_bgm

; 2945 : #ifdef  _STONDEBUG_
; 2946 : 			MessageBox(hWnd, "读取WAV档的资料失败！", "Error", MB_OK);
; 2947 : #endif
; 2948 : 			return FALSE;

  0038c	33 c0		 xor	 eax, eax
  0038e	e9 56 01 00 00	 jmp	 $LN1@play_bgm
$LN9@play_bgm:

; 2949 : 		}
; 2950 : 	}
; 2951 : 	mmioClose( hmmio , 0 );

  00393	8b f4		 mov	 esi, esp
  00395	6a 00		 push	 0
  00397	8b 45 f4	 mov	 eax, DWORD PTR _hmmio$[ebp]
  0039a	50		 push	 eax
  0039b	ff 15 00 00 00
	00		 call	 DWORD PTR __imp__mmioClose@8
  003a1	3b f4		 cmp	 esi, esp
  003a3	e8 00 00 00 00	 call	 __RTC_CheckEsp

; 2952 : 
; 2953 : 	//??????
; 2954 : 	pDSData_tone[ TONE_MAX ]->SetFrequency((DWORD)freq_tbl[36+1+t_music_bgm_pitch[bgm_no]]);

  003a8	8b 45 08	 mov	 eax, DWORD PTR _bgm_no$[ebp]
  003ab	0f be 88 00 00
	00 00		 movsx	 ecx, BYTE PTR ?t_music_bgm_pitch@@3PADA[eax]
  003b2	8b f4		 mov	 esi, esp
  003b4	8b 14 8d 94 00
	00 00		 mov	 edx, DWORD PTR ?freq_tbl@@3PAHA[ecx*4+148]
  003bb	52		 push	 edx
  003bc	b8 04 00 00 00	 mov	 eax, 4
  003c1	69 c8 f4 01 00
	00		 imul	 ecx, eax, 500
  003c7	8b 91 00 00 00
	00		 mov	 edx, DWORD PTR ?pDSData_tone@@3PAPAUIDirectSoundBuffer@@A[ecx]
  003cd	b8 04 00 00 00	 mov	 eax, 4
  003d2	69 c8 f4 01 00
	00		 imul	 ecx, eax, 500
  003d8	8b 81 00 00 00
	00		 mov	 eax, DWORD PTR ?pDSData_tone@@3PAPAUIDirectSoundBuffer@@A[ecx]
  003de	8b 0a		 mov	 ecx, DWORD PTR [edx]
  003e0	50		 push	 eax
  003e1	8b 51 44	 mov	 edx, DWORD PTR [ecx+68]
  003e4	ff d2		 call	 edx
  003e6	3b f4		 cmp	 esi, esp
  003e8	e8 00 00 00 00	 call	 __RTC_CheckEsp

; 2955 : 	//?????
; 2956 : 	pDSData_tone[ TONE_MAX ]->SetVolume(volume_tbl[ bgm_tbl[bgm_no].volume * t_music_bgm_volume / 15 ]);		// ????????

  003ed	8b 45 08	 mov	 eax, DWORD PTR _bgm_no$[ebp]
  003f0	c1 e0 04	 shl	 eax, 4
  003f3	8b 80 04 00 00
	00		 mov	 eax, DWORD PTR ?bgm_tbl@@3PAUT_MUSIC_BGM@@A[eax+4]
  003f9	0f af 05 00 00
	00 00		 imul	 eax, DWORD PTR ?t_music_bgm_volume@@3HA ; t_music_bgm_volume
  00400	99		 cdq
  00401	b9 0f 00 00 00	 mov	 ecx, 15			; 0000000fH
  00406	f7 f9		 idiv	 ecx
  00408	8b f4		 mov	 esi, esp
  0040a	8b 14 85 00 00
	00 00		 mov	 edx, DWORD PTR ?volume_tbl@@3PAJA[eax*4]
  00411	52		 push	 edx
  00412	b8 04 00 00 00	 mov	 eax, 4
  00417	69 c8 f4 01 00
	00		 imul	 ecx, eax, 500
  0041d	8b 91 00 00 00
	00		 mov	 edx, DWORD PTR ?pDSData_tone@@3PAPAUIDirectSoundBuffer@@A[ecx]
  00423	b8 04 00 00 00	 mov	 eax, 4
  00428	69 c8 f4 01 00
	00		 imul	 ecx, eax, 500
  0042e	8b 81 00 00 00
	00		 mov	 eax, DWORD PTR ?pDSData_tone@@3PAPAUIDirectSoundBuffer@@A[ecx]
  00434	8b 0a		 mov	 ecx, DWORD PTR [edx]
  00436	50		 push	 eax
  00437	8b 51 3c	 mov	 edx, DWORD PTR [ecx+60]
  0043a	ff d2		 call	 edx
  0043c	3b f4		 cmp	 esi, esp
  0043e	e8 00 00 00 00	 call	 __RTC_CheckEsp

; 2957 : 
; 2958 : 	//?????
; 2959 : 	if(bgm_tbl[bgm_no].loop_flg){		//?????

  00443	8b 45 08	 mov	 eax, DWORD PTR _bgm_no$[ebp]
  00446	c1 e0 04	 shl	 eax, 4
  00449	0f be 88 08 00
	00 00		 movsx	 ecx, BYTE PTR ?bgm_tbl@@3PAUT_MUSIC_BGM@@A[eax+8]
  00450	85 c9		 test	 ecx, ecx
  00452	74 3b		 je	 SHORT $LN18@play_bgm

; 2960 : 		pDSData_tone[ TONE_MAX ]->Play(0, 0, DSBPLAY_LOOPING);

  00454	8b f4		 mov	 esi, esp
  00456	6a 01		 push	 1
  00458	6a 00		 push	 0
  0045a	6a 00		 push	 0
  0045c	b8 04 00 00 00	 mov	 eax, 4
  00461	69 c8 f4 01 00
	00		 imul	 ecx, eax, 500
  00467	8b 91 00 00 00
	00		 mov	 edx, DWORD PTR ?pDSData_tone@@3PAPAUIDirectSoundBuffer@@A[ecx]
  0046d	b8 04 00 00 00	 mov	 eax, 4
  00472	69 c8 f4 01 00
	00		 imul	 ecx, eax, 500
  00478	8b 81 00 00 00
	00		 mov	 eax, DWORD PTR ?pDSData_tone@@3PAPAUIDirectSoundBuffer@@A[ecx]
  0047e	8b 0a		 mov	 ecx, DWORD PTR [edx]
  00480	50		 push	 eax
  00481	8b 51 30	 mov	 edx, DWORD PTR [ecx+48]
  00484	ff d2		 call	 edx
  00486	3b f4		 cmp	 esi, esp
  00488	e8 00 00 00 00	 call	 __RTC_CheckEsp

; 2961 : 	} else {

  0048d	eb 39		 jmp	 SHORT $LN19@play_bgm
$LN18@play_bgm:

; 2962 : 		pDSData_tone[ TONE_MAX ]->Play(0, 0, 0);

  0048f	8b f4		 mov	 esi, esp
  00491	6a 00		 push	 0
  00493	6a 00		 push	 0
  00495	6a 00		 push	 0
  00497	b8 04 00 00 00	 mov	 eax, 4
  0049c	69 c8 f4 01 00
	00		 imul	 ecx, eax, 500
  004a2	8b 91 00 00 00
	00		 mov	 edx, DWORD PTR ?pDSData_tone@@3PAPAUIDirectSoundBuffer@@A[ecx]
  004a8	b8 04 00 00 00	 mov	 eax, 4
  004ad	69 c8 f4 01 00
	00		 imul	 ecx, eax, 500
  004b3	8b 81 00 00 00
	00		 mov	 eax, DWORD PTR ?pDSData_tone@@3PAPAUIDirectSoundBuffer@@A[ecx]
  004b9	8b 0a		 mov	 ecx, DWORD PTR [edx]
  004bb	50		 push	 eax
  004bc	8b 51 30	 mov	 edx, DWORD PTR [ecx+48]
  004bf	ff d2		 call	 edx
  004c1	3b f4		 cmp	 esi, esp
  004c3	e8 00 00 00 00	 call	 __RTC_CheckEsp
$LN19@play_bgm:

; 2963 : 	}
; 2964 : 
; 2965 : 	//?????k?颌V
; 2966 : 	t_music_bgm_no = bgm_no;

  004c8	8b 45 08	 mov	 eax, DWORD PTR _bgm_no$[ebp]
  004cb	a3 00 00 00 00	 mov	 DWORD PTR ?t_music_bgm_no@@3HA, eax ; t_music_bgm_no

; 2967 : 
; 2968 : 	// ????????
; 2969 : 	NowTime = TimeGetTime();

  004d0	e8 00 00 00 00	 call	 ?TimeGetTime@@YAIXZ	; TimeGetTime
  004d5	a3 00 00 00 00	 mov	 DWORD PTR ?NowTime@@3KA, eax ; NowTime

; 2970 : 
; 2971 : 	//????????
; 2972 : 	t_music_playing_flg = 1;

  004da	c7 05 00 00 00
	00 01 00 00 00	 mov	 DWORD PTR ?t_music_playing_flg@@3HA, 1 ; t_music_playing_flg

; 2973 : 
; 2974 : 	//?????k?颌V
; 2975 : 	//map_bgm_no = t_music_bgm_no;
; 2976 : 
; 2977 : 	return TRUE;

  004e4	b8 01 00 00 00	 mov	 eax, 1
$LN1@play_bgm:

; 2978 : }

  004e9	52		 push	 edx
  004ea	8b cd		 mov	 ecx, ebp
  004ec	50		 push	 eax
  004ed	8d 15 00 00 00
	00		 lea	 edx, DWORD PTR $LN25@play_bgm
  004f3	e8 00 00 00 00	 call	 @_RTC_CheckStackVars@8
  004f8	58		 pop	 eax
  004f9	5a		 pop	 edx
  004fa	5f		 pop	 edi
  004fb	5e		 pop	 esi
  004fc	5b		 pop	 ebx
  004fd	8b 4d fc	 mov	 ecx, DWORD PTR __$ArrayPad$[ebp]
  00500	33 cd		 xor	 ecx, ebp
  00502	e8 00 00 00 00	 call	 @__security_check_cookie@4
  00507	81 c4 34 01 00
	00		 add	 esp, 308		; 00000134H
  0050d	3b ec		 cmp	 ebp, esp
  0050f	e8 00 00 00 00	 call	 __RTC_CheckEsp
  00514	8b e5		 mov	 esp, ebp
  00516	5d		 pop	 ebp
  00517	c3		 ret	 0
$LN25@play_bgm:
  00518	03 00 00 00	 DD	 3
  0051c	00 00 00 00	 DD	 $LN24@play_bgm
$LN24@play_bgm:
  00520	d8 ff ff ff	 DD	 -40			; ffffffd8H
  00524	12 00 00 00	 DD	 18			; 00000012H
  00528	00 00 00 00	 DD	 $LN21@play_bgm
  0052c	cc ff ff ff	 DD	 -52			; ffffffccH
  00530	04 00 00 00	 DD	 4
  00534	00 00 00 00	 DD	 $LN22@play_bgm
  00538	c0 ff ff ff	 DD	 -64			; ffffffc0H
  0053c	04 00 00 00	 DD	 4
  00540	00 00 00 00	 DD	 $LN23@play_bgm
$LN23@play_bgm:
  00544	57		 DB	 87			; 00000057H
  00545	61		 DB	 97			; 00000061H
  00546	76		 DB	 118			; 00000076H
  00547	65		 DB	 101			; 00000065H
  00548	53		 DB	 83			; 00000053H
  00549	69		 DB	 105			; 00000069H
  0054a	7a		 DB	 122			; 0000007aH
  0054b	65		 DB	 101			; 00000065H
  0054c	00		 DB	 0
$LN22@play_bgm:
  0054d	44		 DB	 68			; 00000044H
  0054e	61		 DB	 97			; 00000061H
  0054f	74		 DB	 116			; 00000074H
  00550	61		 DB	 97			; 00000061H
  00551	53		 DB	 83			; 00000053H
  00552	69		 DB	 105			; 00000069H
  00553	7a		 DB	 122			; 0000007aH
  00554	65		 DB	 101			; 00000065H
  00555	00		 DB	 0
$LN21@play_bgm:
  00556	57		 DB	 87			; 00000057H
  00557	66		 DB	 102			; 00000066H
  00558	6d		 DB	 109			; 0000006dH
  00559	74		 DB	 116			; 00000074H
  0055a	78		 DB	 120			; 00000078H
  0055b	00		 DB	 0
?play_bgm@@YAHH@Z ENDP					; play_bgm
_TEXT	ENDS
; Function compile flags: /Odtp /RTCsu /ZI
; File c:\users\administrator\desktop\????? ??\????? ??\client source code\system\t_music.cpp
;	COMDAT ?play_se@@YAHHHH@Z
_TEXT	SEGMENT
_total_level$ = -20					; size = 4
_d0$ = -8						; size = 4
_tone$ = 8						; size = 4
_x$ = 12						; size = 4
_y$ = 16						; size = 4
?play_se@@YAHHHH@Z PROC					; play_se, COMDAT

; 3013 : {

  00000	55		 push	 ebp
  00001	8b ec		 mov	 ebp, esp
  00003	81 ec d8 00 00
	00		 sub	 esp, 216		; 000000d8H
  00009	53		 push	 ebx
  0000a	56		 push	 esi
  0000b	57		 push	 edi
  0000c	8d bd 28 ff ff
	ff		 lea	 edi, DWORD PTR [ebp-216]
  00012	b9 36 00 00 00	 mov	 ecx, 54			; 00000036H
  00017	b8 cc cc cc cc	 mov	 eax, -858993460		; ccccccccH
  0001c	f3 ab		 rep stosd

; 3014 : #ifdef _NB_CANCEL_BGM
; 3015 : 	if (声音开关) return -1;

  0001e	83 3d 00 00 00
	00 00		 cmp	 DWORD PTR ?声音开关@@3HA, 0 ; 声音开关
  00025	74 08		 je	 SHORT $LN4@play_se
  00027	83 c8 ff	 or	 eax, -1
  0002a	e9 fb 02 00 00	 jmp	 $LN1@play_se
$LN4@play_se:

; 3016 : #endif
; 3017 : 	int d0;
; 3018 : 	int total_level = 127;

  0002f	c7 45 ec 7f 00
	00 00		 mov	 DWORD PTR _total_level$[ebp], 127 ; 0000007fH

; 3019 : 	t_music_se_no = tone;

  00036	8b 45 08	 mov	 eax, DWORD PTR _tone$[ebp]
  00039	a3 00 00 00 00	 mov	 DWORD PTR ?t_music_se_no@@3HA, eax ; t_music_se_no

; 3020 : 
; 3021 : 	if(dsound_flg == -1)

  0003e	83 3d 00 00 00
	00 ff		 cmp	 DWORD PTR ?dsound_flg@@3HA, -1 ; dsound_flg
  00045	75 08		 jne	 SHORT $LN5@play_se

; 3022 : 		return -1;

  00047	83 c8 ff	 or	 eax, -1
  0004a	e9 db 02 00 00	 jmp	 $LN1@play_se
$LN5@play_se:

; 3023 : 
; 3024 : 	if(tone > TONE_MAX){		//???????

  0004f	81 7d 08 f4 01
	00 00		 cmp	 DWORD PTR _tone$[ebp], 500 ; 000001f4H
  00056	7e 08		 jle	 SHORT $LN6@play_se

; 3025 : 		return -1;

  00058	83 c8 ff	 or	 eax, -1
  0005b	e9 ca 02 00 00	 jmp	 $LN1@play_se
$LN6@play_se:

; 3026 : 	}
; 3027 : 
; 3028 : 	if(tone_tbl[ tone ].voice_place == -1){		//te????

  00060	8b 45 08	 mov	 eax, DWORD PTR _tone$[ebp]
  00063	c1 e0 05	 shl	 eax, 5
  00066	83 b8 00 00 00
	00 ff		 cmp	 DWORD PTR ?tone_tbl@@3PAUTONE_EQU@@A[eax], -1
  0006d	75 08		 jne	 SHORT $LN7@play_se

; 3029 : 		return -1;

  0006f	83 c8 ff	 or	 eax, -1
  00072	e9 b3 02 00 00	 jmp	 $LN1@play_se
$LN7@play_se:

; 3030 : 	}
; 3031 : 
; 3032 : 
; 3033 : 	//CCIS_WXscript 20160825
; 3034 : 	//不知道这里为啥要play_time
; 3035 : 	//去掉以后音效好像正常工作
; 3036 : 	//if(tone_tbl[ tone ].play_time){		//??????
; 3037 : 	//	return 0;
; 3038 : 	//}
; 3039 : 
; 3040 : 	//q???瑙k????
; 3041 : 	d0 = voice[ voice_seek_point ].tone_no;

  00077	6b 05 00 00 00
	00 3c		 imul	 eax, DWORD PTR ?voice_seek_point@@3HA, 60
  0007e	8b 88 04 00 00
	00		 mov	 ecx, DWORD PTR ?voice@@3PAUVOICE_EQU@@A[eax+4]
  00084	89 4d f8	 mov	 DWORD PTR _d0$[ebp], ecx

; 3042 : 	if(voice[ voice_seek_point ].tone_no != tone){		//i??瑙k??????

  00087	6b 05 00 00 00
	00 3c		 imul	 eax, DWORD PTR ?voice_seek_point@@3HA, 60
  0008e	8b 88 04 00 00
	00		 mov	 ecx, DWORD PTR ?voice@@3PAUVOICE_EQU@@A[eax+4]
  00094	3b 4d 08	 cmp	 ecx, DWORD PTR _tone$[ebp]
  00097	0f 84 bc 00 00
	00		 je	 $LN8@play_se

; 3043 : 		voice[ voice_seek_point ].tone_no = tone;		//?瑙k?颌V

  0009d	6b 05 00 00 00
	00 3c		 imul	 eax, DWORD PTR ?voice_seek_point@@3HA, 60
  000a4	8b 4d 08	 mov	 ecx, DWORD PTR _tone$[ebp]
  000a7	89 88 04 00 00
	00		 mov	 DWORD PTR ?voice@@3PAUVOICE_EQU@@A[eax+4], ecx

; 3044 : 		//???????????蓰害?????
; 3045 : 		if(d0 != -2){

  000ad	83 7d f8 fe	 cmp	 DWORD PTR _d0$[ebp], -2	; fffffffeH
  000b1	74 49		 je	 SHORT $LN10@play_se

; 3046 : 			RELEASE(pDSData[voice_seek_point]);		//?

  000b3	a1 00 00 00 00	 mov	 eax, DWORD PTR ?voice_seek_point@@3HA
  000b8	83 3c 85 00 00
	00 00 00	 cmp	 DWORD PTR ?pDSData@@3PAPAUIDirectSoundBuffer@@A[eax*4], 0
  000c0	74 3a		 je	 SHORT $LN10@play_se
  000c2	a1 00 00 00 00	 mov	 eax, DWORD PTR ?voice_seek_point@@3HA
  000c7	8b 0c 85 00 00
	00 00		 mov	 ecx, DWORD PTR ?pDSData@@3PAPAUIDirectSoundBuffer@@A[eax*4]
  000ce	8b 15 00 00 00
	00		 mov	 edx, DWORD PTR ?voice_seek_point@@3HA
  000d4	8b 04 95 00 00
	00 00		 mov	 eax, DWORD PTR ?pDSData@@3PAPAUIDirectSoundBuffer@@A[edx*4]
  000db	8b 09		 mov	 ecx, DWORD PTR [ecx]
  000dd	8b f4		 mov	 esi, esp
  000df	50		 push	 eax
  000e0	8b 51 08	 mov	 edx, DWORD PTR [ecx+8]
  000e3	ff d2		 call	 edx
  000e5	3b f4		 cmp	 esi, esp
  000e7	e8 00 00 00 00	 call	 __RTC_CheckEsp
  000ec	a1 00 00 00 00	 mov	 eax, DWORD PTR ?voice_seek_point@@3HA
  000f1	c7 04 85 00 00
	00 00 00 00 00
	00		 mov	 DWORD PTR ?pDSData@@3PAPAUIDirectSoundBuffer@@A[eax*4], 0
$LN10@play_se:

; 3047 : 		}
; 3048 : 		//????
; 3049 : 		if( pDSound->DuplicateSoundBuffer(pDSData_tone[tone_tbl[ tone ].voice_place],&pDSData[voice_seek_point]) != DS_OK ){

  000fc	a1 00 00 00 00	 mov	 eax, DWORD PTR ?voice_seek_point@@3HA
  00101	8d 0c 85 00 00
	00 00		 lea	 ecx, DWORD PTR ?pDSData@@3PAPAUIDirectSoundBuffer@@A[eax*4]
  00108	8b f4		 mov	 esi, esp
  0010a	51		 push	 ecx
  0010b	8b 55 08	 mov	 edx, DWORD PTR _tone$[ebp]
  0010e	c1 e2 05	 shl	 edx, 5
  00111	8b 82 00 00 00
	00		 mov	 eax, DWORD PTR ?tone_tbl@@3PAUTONE_EQU@@A[edx]
  00117	8b 0c 85 00 00
	00 00		 mov	 ecx, DWORD PTR ?pDSData_tone@@3PAPAUIDirectSoundBuffer@@A[eax*4]
  0011e	51		 push	 ecx
  0011f	8b 15 00 00 00
	00		 mov	 edx, DWORD PTR ?pDSound@@3PAUIDirectSound@@A ; pDSound
  00125	8b 02		 mov	 eax, DWORD PTR [edx]
  00127	8b 0d 00 00 00
	00		 mov	 ecx, DWORD PTR ?pDSound@@3PAUIDirectSound@@A ; pDSound
  0012d	51		 push	 ecx
  0012e	8b 50 14	 mov	 edx, DWORD PTR [eax+20]
  00131	ff d2		 call	 edx
  00133	3b f4		 cmp	 esi, esp
  00135	e8 00 00 00 00	 call	 __RTC_CheckEsp
  0013a	85 c0		 test	 eax, eax
  0013c	74 19		 je	 SHORT $LN12@play_se

; 3050 : #ifdef  _STONDEBUG_
; 3051 : 			MessageBox(hWnd, "复制声音buffer失败！", "Error", MB_OK);
; 3052 : #endif
; 3053 : 			//???????????蓰害??????
; 3054 : 			voice[ voice_seek_point ].tone_no = -2;

  0013e	6b 05 00 00 00
	00 3c		 imul	 eax, DWORD PTR ?voice_seek_point@@3HA, 60
  00145	c7 80 04 00 00
	00 fe ff ff ff	 mov	 DWORD PTR ?voice@@3PAUVOICE_EQU@@A[eax+4], -2 ; fffffffeH

; 3055 : 			return -1;

  0014f	83 c8 ff	 or	 eax, -1
  00152	e9 d3 01 00 00	 jmp	 $LN1@play_se
$LN12@play_se:

; 3056 : 		}
; 3057 : 	} else {

  00157	eb 2c		 jmp	 SHORT $LN9@play_se
$LN8@play_se:

; 3058 : 		pDSData[voice_seek_point]->SetCurrentPosition(0);	//?????????

  00159	8b f4		 mov	 esi, esp
  0015b	6a 00		 push	 0
  0015d	a1 00 00 00 00	 mov	 eax, DWORD PTR ?voice_seek_point@@3HA
  00162	8b 0c 85 00 00
	00 00		 mov	 ecx, DWORD PTR ?pDSData@@3PAPAUIDirectSoundBuffer@@A[eax*4]
  00169	8b 15 00 00 00
	00		 mov	 edx, DWORD PTR ?voice_seek_point@@3HA
  0016f	8b 04 95 00 00
	00 00		 mov	 eax, DWORD PTR ?pDSData@@3PAPAUIDirectSoundBuffer@@A[edx*4]
  00176	8b 09		 mov	 ecx, DWORD PTR [ecx]
  00178	50		 push	 eax
  00179	8b 51 34	 mov	 edx, DWORD PTR [ecx+52]
  0017c	ff d2		 call	 edx
  0017e	3b f4		 cmp	 esi, esp
  00180	e8 00 00 00 00	 call	 __RTC_CheckEsp
$LN9@play_se:

; 3059 : 	}
; 3060 : #if 0
; 3061 : 	total_level = abs(y - 240);		//?????????
; 3062 : 	y = abs(x - 320) >> 1;		//?????????
; 3063 : 	if(total_level < y)		//????
; 3064 : 		total_level = y;		//
; 3065 : 
; 3066 : 	total_level = total_level << 4;		//?????k??
; 3067 : 	total_level /= 0x5a;				//
; 3068 : 
; 3069 : 	if(total_level >= 127)		//d????
; 3070 : 		return 0;			//????
; 3071 : 
; 3072 : 	total_level = 127 - total_level;				//
; 3073 : 
; 3074 : #endif
; 3075 : 
; 3076 : 	if(stereo_flg == T_MUSIC_MONO){		//??????

  00185	83 3d 00 00 00
	00 00		 cmp	 DWORD PTR ?stereo_flg@@3HA, 0 ; stereo_flg
  0018c	75 09		 jne	 SHORT $LN13@play_se

; 3077 : 		x = 64;

  0018e	c7 45 0c 40 00
	00 00		 mov	 DWORD PTR _x$[ebp], 64	; 00000040H

; 3078 : 	} else {

  00195	eb 28		 jmp	 SHORT $LN14@play_se
$LN13@play_se:

; 3079 : 		x /= 5;			//?????k??

  00197	8b 45 0c	 mov	 eax, DWORD PTR _x$[ebp]
  0019a	99		 cdq
  0019b	b9 05 00 00 00	 mov	 ecx, 5
  001a0	f7 f9		 idiv	 ecx
  001a2	89 45 0c	 mov	 DWORD PTR _x$[ebp], eax

; 3080 : 		if(x < 0)		//

  001a5	83 7d 0c 00	 cmp	 DWORD PTR _x$[ebp], 0
  001a9	7d 07		 jge	 SHORT $LN15@play_se

; 3081 : 			x = 0;		//

  001ab	c7 45 0c 00 00
	00 00		 mov	 DWORD PTR _x$[ebp], 0
$LN15@play_se:

; 3082 : 		if(x > 127)		//

  001b2	83 7d 0c 7f	 cmp	 DWORD PTR _x$[ebp], 127	; 0000007fH
  001b6	7e 07		 jle	 SHORT $LN14@play_se

; 3083 : 			x = 127;	//

  001b8	c7 45 0c 7f 00
	00 00		 mov	 DWORD PTR _x$[ebp], 127	; 0000007fH
$LN14@play_se:

; 3084 : 	}
; 3085 : 
; 3086 : 	//??????
; 3087 : 	total_level = 127 * tone_tbl[ tone ].voice_volume / 127;

  001bf	8b 45 08	 mov	 eax, DWORD PTR _tone$[ebp]
  001c2	c1 e0 05	 shl	 eax, 5
  001c5	6b 80 0c 00 00
	00 7f		 imul	 eax, DWORD PTR ?tone_tbl@@3PAUTONE_EQU@@A[eax+12], 127
  001cc	99		 cdq
  001cd	b9 7f 00 00 00	 mov	 ecx, 127		; 0000007fH
  001d2	f7 f9		 idiv	 ecx
  001d4	89 45 ec	 mov	 DWORD PTR _total_level$[ebp], eax

; 3088 : //	total_level = total_level * tone_tbl[ tone ].voice_volume / 127;
; 3089 : 
; 3090 : 	//?????????
; 3091 : 	total_level = total_level * t_music_se_volume / 15;

  001d7	8b 45 ec	 mov	 eax, DWORD PTR _total_level$[ebp]
  001da	0f af 05 00 00
	00 00		 imul	 eax, DWORD PTR ?t_music_se_volume@@3HA ; t_music_se_volume
  001e1	99		 cdq
  001e2	b9 0f 00 00 00	 mov	 ecx, 15			; 0000000fH
  001e7	f7 f9		 idiv	 ecx
  001e9	89 45 ec	 mov	 DWORD PTR _total_level$[ebp], eax

; 3092 : 
; 3093 : 	pDSData[ voice_seek_point ]->SetVolume(volume_tbl[ total_level ]);		// ????????

  001ec	8b f4		 mov	 esi, esp
  001ee	8b 45 ec	 mov	 eax, DWORD PTR _total_level$[ebp]
  001f1	8b 0c 85 00 00
	00 00		 mov	 ecx, DWORD PTR ?volume_tbl@@3PAJA[eax*4]
  001f8	51		 push	 ecx
  001f9	8b 15 00 00 00
	00		 mov	 edx, DWORD PTR ?voice_seek_point@@3HA
  001ff	8b 04 95 00 00
	00 00		 mov	 eax, DWORD PTR ?pDSData@@3PAPAUIDirectSoundBuffer@@A[edx*4]
  00206	8b 0d 00 00 00
	00		 mov	 ecx, DWORD PTR ?voice_seek_point@@3HA
  0020c	8b 14 8d 00 00
	00 00		 mov	 edx, DWORD PTR ?pDSData@@3PAPAUIDirectSoundBuffer@@A[ecx*4]
  00213	8b 00		 mov	 eax, DWORD PTR [eax]
  00215	52		 push	 edx
  00216	8b 48 3c	 mov	 ecx, DWORD PTR [eax+60]
  00219	ff d1		 call	 ecx
  0021b	3b f4		 cmp	 esi, esp
  0021d	e8 00 00 00 00	 call	 __RTC_CheckEsp

; 3094 : 	pDSData[ voice_seek_point ]->SetPan(panpot_tbl[ x ]);			// ????????

  00222	8b f4		 mov	 esi, esp
  00224	8b 45 0c	 mov	 eax, DWORD PTR _x$[ebp]
  00227	8b 0c 85 00 00
	00 00		 mov	 ecx, DWORD PTR ?panpot_tbl@@3PAJA[eax*4]
  0022e	51		 push	 ecx
  0022f	8b 15 00 00 00
	00		 mov	 edx, DWORD PTR ?voice_seek_point@@3HA
  00235	8b 04 95 00 00
	00 00		 mov	 eax, DWORD PTR ?pDSData@@3PAPAUIDirectSoundBuffer@@A[edx*4]
  0023c	8b 0d 00 00 00
	00		 mov	 ecx, DWORD PTR ?voice_seek_point@@3HA
  00242	8b 14 8d 00 00
	00 00		 mov	 edx, DWORD PTR ?pDSData@@3PAPAUIDirectSoundBuffer@@A[ecx*4]
  00249	8b 00		 mov	 eax, DWORD PTR [eax]
  0024b	52		 push	 edx
  0024c	8b 48 40	 mov	 ecx, DWORD PTR [eax+64]
  0024f	ff d1		 call	 ecx
  00251	3b f4		 cmp	 esi, esp
  00253	e8 00 00 00 00	 call	 __RTC_CheckEsp

; 3095 : 	if(tone_tbl[ tone ].voice_note){		//???k?e??

  00258	8b 45 08	 mov	 eax, DWORD PTR _tone$[ebp]
  0025b	c1 e0 05	 shl	 eax, 5
  0025e	83 b8 10 00 00
	00 00		 cmp	 DWORD PTR ?tone_tbl@@3PAUTONE_EQU@@A[eax+16], 0
  00265	74 4a		 je	 SHORT $LN17@play_se

; 3096 : 		pDSData[ voice_seek_point ]->SetFrequency(

  00267	8b 45 08	 mov	 eax, DWORD PTR _tone$[ebp]
  0026a	c1 e0 05	 shl	 eax, 5
  0026d	8b 4d 08	 mov	 ecx, DWORD PTR _tone$[ebp]
  00270	c1 e1 05	 shl	 ecx, 5
  00273	8b 90 10 00 00
	00		 mov	 edx, DWORD PTR ?tone_tbl@@3PAUTONE_EQU@@A[eax+16]
  00279	03 91 18 00 00
	00		 add	 edx, DWORD PTR ?tone_tbl@@3PAUTONE_EQU@@A[ecx+24]
  0027f	8b f4		 mov	 esi, esp
  00281	8b 04 95 00 00
	00 00		 mov	 eax, DWORD PTR ?freq_tbl@@3PAHA[edx*4]
  00288	50		 push	 eax
  00289	8b 0d 00 00 00
	00		 mov	 ecx, DWORD PTR ?voice_seek_point@@3HA
  0028f	8b 14 8d 00 00
	00 00		 mov	 edx, DWORD PTR ?pDSData@@3PAPAUIDirectSoundBuffer@@A[ecx*4]
  00296	a1 00 00 00 00	 mov	 eax, DWORD PTR ?voice_seek_point@@3HA
  0029b	8b 0c 85 00 00
	00 00		 mov	 ecx, DWORD PTR ?pDSData@@3PAPAUIDirectSoundBuffer@@A[eax*4]
  002a2	8b 12		 mov	 edx, DWORD PTR [edx]
  002a4	51		 push	 ecx
  002a5	8b 42 44	 mov	 eax, DWORD PTR [edx+68]
  002a8	ff d0		 call	 eax
  002aa	3b f4		 cmp	 esi, esp
  002ac	e8 00 00 00 00	 call	 __RTC_CheckEsp
$LN17@play_se:

; 3097 : 			(DWORD)freq_tbl[tone_tbl[ tone ].voice_note + tone_tbl[ tone ].voice_rate]);
; 3098 : 	}
; 3099 : 
; 3100 : #if 0
; 3101 : 	if(tone_tbl[ tone ].voice_loop == 0 ){		//??????
; 3102 : 		pDSData[ voice_seek_point ]->Play(0, 0, 0);			//????
; 3103 : 	} else {
; 3104 : 		voice[ voice_seek_point ].loop_flg = 1;		//????
; 3105 : 		pDSData[ voice_seek_point ]->Play(0, 0, DSBPLAY_LOOPING);		//????
; 3106 : 	}
; 3107 : #else
; 3108 : 	pDSData[ voice_seek_point ]->Play(0, 0, 0);			//????

  002b1	8b f4		 mov	 esi, esp
  002b3	6a 00		 push	 0
  002b5	6a 00		 push	 0
  002b7	6a 00		 push	 0
  002b9	a1 00 00 00 00	 mov	 eax, DWORD PTR ?voice_seek_point@@3HA
  002be	8b 0c 85 00 00
	00 00		 mov	 ecx, DWORD PTR ?pDSData@@3PAPAUIDirectSoundBuffer@@A[eax*4]
  002c5	8b 15 00 00 00
	00		 mov	 edx, DWORD PTR ?voice_seek_point@@3HA
  002cb	8b 04 95 00 00
	00 00		 mov	 eax, DWORD PTR ?pDSData@@3PAPAUIDirectSoundBuffer@@A[edx*4]
  002d2	8b 09		 mov	 ecx, DWORD PTR [ecx]
  002d4	50		 push	 eax
  002d5	8b 51 30	 mov	 edx, DWORD PTR [ecx+48]
  002d8	ff d2		 call	 edx
  002da	3b f4		 cmp	 esi, esp
  002dc	e8 00 00 00 00	 call	 __RTC_CheckEsp
$LN2@play_se:

; 3109 : #endif
; 3110 : 	while(1){

  002e1	b8 01 00 00 00	 mov	 eax, 1
  002e6	85 c0		 test	 eax, eax
  002e8	74 2e		 je	 SHORT $LN3@play_se

; 3111 : 		voice_seek_point++;		//??????

  002ea	a1 00 00 00 00	 mov	 eax, DWORD PTR ?voice_seek_point@@3HA
  002ef	83 c0 01	 add	 eax, 1
  002f2	a3 00 00 00 00	 mov	 DWORD PTR ?voice_seek_point@@3HA, eax

; 3112 : 		voice_seek_point&=VOICE_MAX-1;				//

  002f7	a1 00 00 00 00	 mov	 eax, DWORD PTR ?voice_seek_point@@3HA
  002fc	83 e0 3f	 and	 eax, 63			; 0000003fH
  002ff	a3 00 00 00 00	 mov	 DWORD PTR ?voice_seek_point@@3HA, eax

; 3113 : 		if(voice[ voice_seek_point ].loop_flg == 0){		//??????????

  00304	6b 05 00 00 00
	00 3c		 imul	 eax, DWORD PTR ?voice_seek_point@@3HA, 60
  0030b	83 b8 30 00 00
	00 00		 cmp	 DWORD PTR ?voice@@3PAUVOICE_EQU@@A[eax+48], 0
  00312	75 02		 jne	 SHORT $LN18@play_se

; 3114 : 			break;

  00314	eb 02		 jmp	 SHORT $LN3@play_se
$LN18@play_se:

; 3115 : 		}
; 3116 : 	}

  00316	eb c9		 jmp	 SHORT $LN2@play_se
$LN3@play_se:

; 3117 : 	tone_tbl[ tone ].play_time = 5;		//???????

  00318	8b 45 08	 mov	 eax, DWORD PTR _tone$[ebp]
  0031b	c1 e0 05	 shl	 eax, 5
  0031e	c7 80 14 00 00
	00 05 00 00 00	 mov	 DWORD PTR ?tone_tbl@@3PAUTONE_EQU@@A[eax+20], 5

; 3118 : 
; 3119 : 	return 0;

  00328	33 c0		 xor	 eax, eax
$LN1@play_se:

; 3120 : }

  0032a	5f		 pop	 edi
  0032b	5e		 pop	 esi
  0032c	5b		 pop	 ebx
  0032d	81 c4 d8 00 00
	00		 add	 esp, 216		; 000000d8H
  00333	3b ec		 cmp	 ebp, esp
  00335	e8 00 00 00 00	 call	 __RTC_CheckEsp
  0033a	8b e5		 mov	 esp, ebp
  0033c	5d		 pop	 ebp
  0033d	c3		 ret	 0
?play_se@@YAHHHH@Z ENDP					; play_se
_TEXT	ENDS
; Function compile flags: /Odtp /RTCsu /ZI
; File c:\users\administrator\desktop\????? ??\????? ??\client source code\system\t_music.cpp
;	COMDAT ?cdda_stop@@YA_NXZ
_TEXT	SEGMENT
?cdda_stop@@YA_NXZ PROC					; cdda_stop, COMDAT

; 3610 : {

  00000	55		 push	 ebp
  00001	8b ec		 mov	 ebp, esp
  00003	81 ec c0 00 00
	00		 sub	 esp, 192		; 000000c0H
  00009	53		 push	 ebx
  0000a	56		 push	 esi
  0000b	57		 push	 edi
  0000c	8d bd 40 ff ff
	ff		 lea	 edi, DWORD PTR [ebp-192]
  00012	b9 30 00 00 00	 mov	 ecx, 48			; 00000030H
  00017	b8 cc cc cc cc	 mov	 eax, -858993460		; ccccccccH
  0001c	f3 ab		 rep stosd

; 3611 : 	if(cdda_flg == 1)		//??????????

  0001e	83 3d 00 00 00
	00 01		 cmp	 DWORD PTR ?cdda_flg@@3HA, 1
  00025	75 04		 jne	 SHORT $LN2@cdda_stop

; 3612 : 		return TRUE;

  00027	b0 01		 mov	 al, 1
  00029	eb 50		 jmp	 SHORT $LN1@cdda_stop
$LN2@cdda_stop:

; 3613 : 
; 3614 : 	mciSendCommand(open.wDeviceID, MCI_STOP, 0, NULL);

  0002b	8b f4		 mov	 esi, esp
  0002d	6a 00		 push	 0
  0002f	6a 00		 push	 0
  00031	68 08 08 00 00	 push	 2056			; 00000808H
  00036	a1 04 00 00 00	 mov	 eax, DWORD PTR ?open@@3UtagMCI_OPEN_PARMSA@@A+4
  0003b	50		 push	 eax
  0003c	ff 15 00 00 00
	00		 call	 DWORD PTR __imp__mciSendCommandA@16
  00042	3b f4		 cmp	 esi, esp
  00044	e8 00 00 00 00	 call	 __RTC_CheckEsp

; 3615 : 
; 3616 : // ???????
; 3617 :     dwRes = mciSendCommand( open.wDeviceID, MCI_CLOSE, 0, (DWORD)NULL);

  00049	8b f4		 mov	 esi, esp
  0004b	6a 00		 push	 0
  0004d	6a 00		 push	 0
  0004f	68 04 08 00 00	 push	 2052			; 00000804H
  00054	a1 04 00 00 00	 mov	 eax, DWORD PTR ?open@@3UtagMCI_OPEN_PARMSA@@A+4
  00059	50		 push	 eax
  0005a	ff 15 00 00 00
	00		 call	 DWORD PTR __imp__mciSendCommandA@16
  00060	3b f4		 cmp	 esi, esp
  00062	e8 00 00 00 00	 call	 __RTC_CheckEsp
  00067	a3 00 00 00 00	 mov	 DWORD PTR ?dwRes@@3KA, eax

; 3618 :     if ( dwRes)

  0006c	83 3d 00 00 00
	00 00		 cmp	 DWORD PTR ?dwRes@@3KA, 0
  00073	74 04		 je	 SHORT $LN3@cdda_stop

; 3619 :     {
; 3620 : #ifdef  _STONDEBUG_
; 3621 : //	    MessageBox(hWnd, "??????????????", "??", MB_OK);
; 3622 : #endif
; 3623 :         return FALSE;

  00075	32 c0		 xor	 al, al
  00077	eb 02		 jmp	 SHORT $LN1@cdda_stop
$LN3@cdda_stop:

; 3624 :     }
; 3625 : 	return TRUE;

  00079	b0 01		 mov	 al, 1
$LN1@cdda_stop:

; 3626 : }

  0007b	5f		 pop	 edi
  0007c	5e		 pop	 esi
  0007d	5b		 pop	 ebx
  0007e	81 c4 c0 00 00
	00		 add	 esp, 192		; 000000c0H
  00084	3b ec		 cmp	 ebp, esp
  00086	e8 00 00 00 00	 call	 __RTC_CheckEsp
  0008b	8b e5		 mov	 esp, ebp
  0008d	5d		 pop	 ebp
  0008e	c3		 ret	 0
?cdda_stop@@YA_NXZ ENDP					; cdda_stop
_TEXT	ENDS
; Function compile flags: /Odtp /RTCsu /ZI
; File c:\users\administrator\desktop\????? ??\????? ??\client source code\system\t_music.cpp
;	COMDAT ?cdda_play@@YA_NH@Z
_TEXT	SEGMENT
_mcisp$1 = -24						; size = 16
__$ArrayPad$ = -4					; size = 4
_n$ = 8							; size = 4
?cdda_play@@YA_NH@Z PROC				; cdda_play, COMDAT

; 3634 : {

  00000	55		 push	 ebp
  00001	8b ec		 mov	 ebp, esp
  00003	81 ec dc 00 00
	00		 sub	 esp, 220		; 000000dcH
  00009	53		 push	 ebx
  0000a	56		 push	 esi
  0000b	57		 push	 edi
  0000c	8d bd 24 ff ff
	ff		 lea	 edi, DWORD PTR [ebp-220]
  00012	b9 37 00 00 00	 mov	 ecx, 55			; 00000037H
  00017	b8 cc cc cc cc	 mov	 eax, -858993460		; ccccccccH
  0001c	f3 ab		 rep stosd
  0001e	a1 00 00 00 00	 mov	 eax, DWORD PTR ___security_cookie
  00023	33 c5		 xor	 eax, ebp
  00025	89 45 fc	 mov	 DWORD PTR __$ArrayPad$[ebp], eax

; 3635 : 	check_se_loop();		//????????

  00028	e8 00 00 00 00	 call	 ?check_se_loop@@YAXXZ	; check_se_loop

; 3636 : 
; 3637 : 	cdda_flg = 1;		//??????????

  0002d	c7 05 00 00 00
	00 01 00 00 00	 mov	 DWORD PTR ?cdda_flg@@3HA, 1

; 3638 : 	return TRUE;

  00037	b0 01		 mov	 al, 1
  00039	e9 17 01 00 00	 jmp	 $LN1@cdda_play

; 3639 : 
; 3640 : 	if(cdda_flg == 1)		//??????????

  0003e	83 3d 00 00 00
	00 01		 cmp	 DWORD PTR ?cdda_flg@@3HA, 1
  00045	75 07		 jne	 SHORT $LN2@cdda_play

; 3641 : 		return TRUE;

  00047	b0 01		 mov	 al, 1
  00049	e9 07 01 00 00	 jmp	 $LN1@cdda_play
$LN2@cdda_play:

; 3642 : 
; 3643 : 	if(cdda_no != n ){		//??????

  0004e	a1 00 00 00 00	 mov	 eax, DWORD PTR ?cdda_no@@3HA ; cdda_no
  00053	3b 45 08	 cmp	 eax, DWORD PTR _n$[ebp]
  00056	74 14		 je	 SHORT $LN3@cdda_play

; 3644 : 		cdda_flg = 0;		//??????

  00058	c7 05 00 00 00
	00 00 00 00 00	 mov	 DWORD PTR ?cdda_flg@@3HA, 0

; 3645 : 		cdda_check_cnt = -1;

  00062	c7 05 00 00 00
	00 ff ff ff ff	 mov	 DWORD PTR ?cdda_check_cnt@@3HA, -1
$LN3@cdda_play:

; 3646 : 	}
; 3647 : 
; 3648 : 	if(cdda_flg)		//??????

  0006c	83 3d 00 00 00
	00 00		 cmp	 DWORD PTR ?cdda_flg@@3HA, 0
  00073	74 07		 je	 SHORT $LN4@cdda_play

; 3649 : 		return TRUE;

  00075	b0 01		 mov	 al, 1
  00077	e9 d9 00 00 00	 jmp	 $LN1@cdda_play
$LN4@cdda_play:

; 3650 : 
; 3651 : 	cdda_check_cnt++;

  0007c	a1 00 00 00 00	 mov	 eax, DWORD PTR ?cdda_check_cnt@@3HA
  00081	83 c0 01	 add	 eax, 1
  00084	a3 00 00 00 00	 mov	 DWORD PTR ?cdda_check_cnt@@3HA, eax

; 3652 : 	cdda_check_cnt&=63;

  00089	a1 00 00 00 00	 mov	 eax, DWORD PTR ?cdda_check_cnt@@3HA
  0008e	83 e0 3f	 and	 eax, 63			; 0000003fH
  00091	a3 00 00 00 00	 mov	 DWORD PTR ?cdda_check_cnt@@3HA, eax

; 3653 : 	if(cdda_check_cnt)

  00096	74 07		 je	 SHORT $LN5@cdda_play

; 3654 : 		return TRUE;

  00098	b0 01		 mov	 al, 1
  0009a	e9 b6 00 00 00	 jmp	 $LN1@cdda_play
$LN5@cdda_play:

; 3655 : 
; 3656 : 	if(cdda_no == n ){		//????

  0009f	a1 00 00 00 00	 mov	 eax, DWORD PTR ?cdda_no@@3HA ; cdda_no
  000a4	3b 45 08	 cmp	 eax, DWORD PTR _n$[ebp]
  000a7	75 7b		 jne	 SHORT $LN6@cdda_play

; 3657 : 		MCI_STATUS_PARMS mcisp;	mcisp.dwItem = MCI_STATUS_MODE;

  000a9	c7 45 f0 04 00
	00 00		 mov	 DWORD PTR _mcisp$1[ebp+8], 4

; 3658 : 		if(mciSendCommand(open.wDeviceID, MCI_STATUS, MCI_STATUS_ITEM, (DWORD)&mcisp)){		//???

  000b0	8b f4		 mov	 esi, esp
  000b2	8d 45 e8	 lea	 eax, DWORD PTR _mcisp$1[ebp]
  000b5	50		 push	 eax
  000b6	68 00 01 00 00	 push	 256			; 00000100H
  000bb	68 14 08 00 00	 push	 2068			; 00000814H
  000c0	8b 0d 04 00 00
	00		 mov	 ecx, DWORD PTR ?open@@3UtagMCI_OPEN_PARMSA@@A+4
  000c6	51		 push	 ecx
  000c7	ff 15 00 00 00
	00		 call	 DWORD PTR __imp__mciSendCommandA@16
  000cd	3b f4		 cmp	 esi, esp
  000cf	e8 00 00 00 00	 call	 __RTC_CheckEsp
  000d4	85 c0		 test	 eax, eax
  000d6	74 0e		 je	 SHORT $LN8@cdda_play

; 3659 : 			cdda_flg = 3;		//??????????

  000d8	c7 05 00 00 00
	00 03 00 00 00	 mov	 DWORD PTR ?cdda_flg@@3HA, 3

; 3660 : 			return FALSE;

  000e2	32 c0		 xor	 al, al
  000e4	eb 6f		 jmp	 SHORT $LN1@cdda_play
$LN8@cdda_play:

; 3661 : 		}
; 3662 : 		if(mcisp.dwReturn == MCI_MODE_PLAY){		//????

  000e6	81 7d ec 0e 02
	00 00		 cmp	 DWORD PTR _mcisp$1[ebp+4], 526 ; 0000020eH
  000ed	75 06		 jne	 SHORT $LN9@cdda_play

; 3663 : 			return TRUE;

  000ef	b0 01		 mov	 al, 1
  000f1	eb 62		 jmp	 SHORT $LN1@cdda_play

; 3664 : 		} else {		//?????

  000f3	eb 2d		 jmp	 SHORT $LN10@cdda_play
$LN9@cdda_play:

; 3665 : 			cdda_no = Rnd( 11, 34 );

  000f5	6a 22		 push	 34			; 00000022H
  000f7	6a 0b		 push	 11			; 0000000bH
  000f9	e8 00 00 00 00	 call	 ?Rnd@@YAHHH@Z		; Rnd
  000fe	83 c4 08	 add	 esp, 8
  00101	a3 00 00 00 00	 mov	 DWORD PTR ?cdda_no@@3HA, eax ; cdda_no

; 3666 : 			cdda_start( cdda_no );

  00106	a1 00 00 00 00	 mov	 eax, DWORD PTR ?cdda_no@@3HA ; cdda_no
  0010b	50		 push	 eax
  0010c	e8 00 00 00 00	 call	 ?cdda_start@@YA_NH@Z	; cdda_start
  00111	83 c4 04	 add	 esp, 4

; 3667 : 			// ???w?????
; 3668 : 			NowTime = TimeGetTime();

  00114	e8 00 00 00 00	 call	 ?TimeGetTime@@YAIXZ	; TimeGetTime
  00119	a3 00 00 00 00	 mov	 DWORD PTR ?NowTime@@3KA, eax ; NowTime

; 3669 : 			return TRUE;

  0011e	b0 01		 mov	 al, 1
  00120	eb 33		 jmp	 SHORT $LN1@cdda_play
$LN10@cdda_play:

; 3670 : 		}
; 3671 : 	} else {

  00122	eb 2f		 jmp	 SHORT $LN7@cdda_play
$LN6@cdda_play:

; 3672 : 		cdda_no = n;		//???

  00124	8b 45 08	 mov	 eax, DWORD PTR _n$[ebp]
  00127	a3 00 00 00 00	 mov	 DWORD PTR ?cdda_no@@3HA, eax ; cdda_no

; 3673 : 		cdda_stop();

  0012c	e8 00 00 00 00	 call	 ?cdda_stop@@YA_NXZ	; cdda_stop

; 3674 : 		cdda_open( n );

  00131	8b 45 08	 mov	 eax, DWORD PTR _n$[ebp]
  00134	50		 push	 eax
  00135	e8 00 00 00 00	 call	 ?cdda_open@@YA_NH@Z	; cdda_open
  0013a	83 c4 04	 add	 esp, 4

; 3675 : 		cdda_start( n );

  0013d	8b 45 08	 mov	 eax, DWORD PTR _n$[ebp]
  00140	50		 push	 eax
  00141	e8 00 00 00 00	 call	 ?cdda_start@@YA_NH@Z	; cdda_start
  00146	83 c4 04	 add	 esp, 4

; 3676 : 		// ???w?????
; 3677 : 		NowTime = TimeGetTime();

  00149	e8 00 00 00 00	 call	 ?TimeGetTime@@YAIXZ	; TimeGetTime
  0014e	a3 00 00 00 00	 mov	 DWORD PTR ?NowTime@@3KA, eax ; NowTime
$LN7@cdda_play:

; 3678 : 	}
; 3679 : 	return TRUE;

  00153	b0 01		 mov	 al, 1
$LN1@cdda_play:

; 3680 : }

  00155	52		 push	 edx
  00156	8b cd		 mov	 ecx, ebp
  00158	50		 push	 eax
  00159	8d 15 00 00 00
	00		 lea	 edx, DWORD PTR $LN14@cdda_play
  0015f	e8 00 00 00 00	 call	 @_RTC_CheckStackVars@8
  00164	58		 pop	 eax
  00165	5a		 pop	 edx
  00166	5f		 pop	 edi
  00167	5e		 pop	 esi
  00168	5b		 pop	 ebx
  00169	8b 4d fc	 mov	 ecx, DWORD PTR __$ArrayPad$[ebp]
  0016c	33 cd		 xor	 ecx, ebp
  0016e	e8 00 00 00 00	 call	 @__security_check_cookie@4
  00173	81 c4 dc 00 00
	00		 add	 esp, 220		; 000000dcH
  00179	3b ec		 cmp	 ebp, esp
  0017b	e8 00 00 00 00	 call	 __RTC_CheckEsp
  00180	8b e5		 mov	 esp, ebp
  00182	5d		 pop	 ebp
  00183	c3		 ret	 0
$LN14@cdda_play:
  00184	01 00 00 00	 DD	 1
  00188	00 00 00 00	 DD	 $LN13@cdda_play
$LN13@cdda_play:
  0018c	e8 ff ff ff	 DD	 -24			; ffffffe8H
  00190	10 00 00 00	 DD	 16			; 00000010H
  00194	00 00 00 00	 DD	 $LN12@cdda_play
$LN12@cdda_play:
  00198	6d		 DB	 109			; 0000006dH
  00199	63		 DB	 99			; 00000063H
  0019a	69		 DB	 105			; 00000069H
  0019b	73		 DB	 115			; 00000073H
  0019c	70		 DB	 112			; 00000070H
  0019d	00		 DB	 0
?cdda_play@@YA_NH@Z ENDP				; cdda_play
_TEXT	ENDS
; Function compile flags: /Odtp /RTCsu /ZI
; File c:\users\administrator\desktop\????? ??\????? ??\client source code\system\t_music.cpp
;	COMDAT ?check_se_loop@@YAXXZ
_TEXT	SEGMENT
_d7$ = -8						; size = 4
?check_se_loop@@YAXXZ PROC				; check_se_loop, COMDAT

; 3501 : void check_se_loop(void){

  00000	55		 push	 ebp
  00001	8b ec		 mov	 ebp, esp
  00003	81 ec cc 00 00
	00		 sub	 esp, 204		; 000000ccH
  00009	53		 push	 ebx
  0000a	56		 push	 esi
  0000b	57		 push	 edi
  0000c	8d bd 34 ff ff
	ff		 lea	 edi, DWORD PTR [ebp-204]
  00012	b9 33 00 00 00	 mov	 ecx, 51			; 00000033H
  00017	b8 cc cc cc cc	 mov	 eax, -858993460		; ccccccccH
  0001c	f3 ab		 rep stosd

; 3502 : 	int d7;
; 3503 : 
; 3504 : 	if(dsound_flg == -1)

  0001e	83 3d 00 00 00
	00 ff		 cmp	 DWORD PTR ?dsound_flg@@3HA, -1 ; dsound_flg
  00025	75 02		 jne	 SHORT $LN5@check_se_l

; 3505 : 		return;

  00027	eb 56		 jmp	 SHORT $LN1@check_se_l
$LN5@check_se_l:

; 3506 : 	for(d7=0; d7<TONE_MAX ;d7++){

  00029	c7 45 f8 00 00
	00 00		 mov	 DWORD PTR _d7$[ebp], 0
  00030	eb 09		 jmp	 SHORT $LN4@check_se_l
$LN2@check_se_l:
  00032	8b 45 f8	 mov	 eax, DWORD PTR _d7$[ebp]
  00035	83 c0 01	 add	 eax, 1
  00038	89 45 f8	 mov	 DWORD PTR _d7$[ebp], eax
$LN4@check_se_l:
  0003b	81 7d f8 f4 01
	00 00		 cmp	 DWORD PTR _d7$[ebp], 500 ; 000001f4H
  00042	7d 2c		 jge	 SHORT $LN3@check_se_l

; 3507 : 		if(tone_tbl[ d7 ].play_time){		//????

  00044	8b 45 f8	 mov	 eax, DWORD PTR _d7$[ebp]
  00047	c1 e0 05	 shl	 eax, 5
  0004a	83 b8 14 00 00
	00 00		 cmp	 DWORD PTR ?tone_tbl@@3PAUTONE_EQU@@A[eax+20], 0
  00051	74 1b		 je	 SHORT $LN6@check_se_l

; 3508 : 			tone_tbl[ d7 ].play_time--;

  00053	8b 45 f8	 mov	 eax, DWORD PTR _d7$[ebp]
  00056	c1 e0 05	 shl	 eax, 5
  00059	8b 88 14 00 00
	00		 mov	 ecx, DWORD PTR ?tone_tbl@@3PAUTONE_EQU@@A[eax+20]
  0005f	83 e9 01	 sub	 ecx, 1
  00062	8b 55 f8	 mov	 edx, DWORD PTR _d7$[ebp]
  00065	c1 e2 05	 shl	 edx, 5
  00068	89 8a 14 00 00
	00		 mov	 DWORD PTR ?tone_tbl@@3PAUTONE_EQU@@A[edx+20], ecx
$LN6@check_se_l:

; 3509 : 		}
; 3510 : 	}

  0006e	eb c2		 jmp	 SHORT $LN2@check_se_l
$LN3@check_se_l:

; 3511 : 	//???????
; 3512 : 	play_environment_check();

  00070	e8 00 00 00 00	 call	 ?play_environment_check@@YAXXZ ; play_environment_check

; 3513 : 	//??????????
; 3514 : 	play_map_bgm_check();

  00075	e8 00 00 00 00	 call	 ?play_map_bgm_check@@YAXXZ ; play_map_bgm_check

; 3515 : 	//???????????????
; 3516 : 	bgm_fade_check();

  0007a	e8 00 00 00 00	 call	 ?bgm_fade_check@@YAXXZ	; bgm_fade_check
$LN1@check_se_l:

; 3517 : }

  0007f	5f		 pop	 edi
  00080	5e		 pop	 esi
  00081	5b		 pop	 ebx
  00082	81 c4 cc 00 00
	00		 add	 esp, 204		; 000000ccH
  00088	3b ec		 cmp	 ebp, esp
  0008a	e8 00 00 00 00	 call	 __RTC_CheckEsp
  0008f	8b e5		 mov	 esp, ebp
  00091	5d		 pop	 ebp
  00092	c3		 ret	 0
?check_se_loop@@YAXXZ ENDP				; check_se_loop
_TEXT	ENDS
; Function compile flags: /Odtp /RTCsu /ZI
; File c:\users\administrator\desktop\????? ??\????? ??\client source code\system\t_music.cpp
;	COMDAT ?t_music_end@@YAXXZ
_TEXT	SEGMENT
?t_music_end@@YAXXZ PROC				; t_music_end, COMDAT

; 2438 : {

  00000	55		 push	 ebp
  00001	8b ec		 mov	 ebp, esp
  00003	81 ec c0 00 00
	00		 sub	 esp, 192		; 000000c0H
  00009	53		 push	 ebx
  0000a	56		 push	 esi
  0000b	57		 push	 edi
  0000c	8d bd 40 ff ff
	ff		 lea	 edi, DWORD PTR [ebp-192]
  00012	b9 30 00 00 00	 mov	 ecx, 48			; 00000030H
  00017	b8 cc cc cc cc	 mov	 eax, -858993460		; ccccccccH
  0001c	f3 ab		 rep stosd

; 2439 : 	//?????????
; 2440 : 	if(dsound_flg == -1)

  0001e	83 3d 00 00 00
	00 ff		 cmp	 DWORD PTR ?dsound_flg@@3HA, -1 ; dsound_flg
  00025	75 02		 jne	 SHORT $LN2@t_music_en

; 2441 : 		return;

  00027	eb 05		 jmp	 SHORT $LN1@t_music_en
$LN2@t_music_en:

; 2442 : #if THREAD_ON
; 2443 : //	thread_flg=1;
; 2444 : //	while(thread_flg!=2);
; 2445 : #endif
; 2446 : 	EndApp();

  00029	e8 00 00 00 00	 call	 ?EndApp@@YAHXZ		; EndApp
$LN1@t_music_en:

; 2447 : }

  0002e	5f		 pop	 edi
  0002f	5e		 pop	 esi
  00030	5b		 pop	 ebx
  00031	81 c4 c0 00 00
	00		 add	 esp, 192		; 000000c0H
  00037	3b ec		 cmp	 ebp, esp
  00039	e8 00 00 00 00	 call	 __RTC_CheckEsp
  0003e	8b e5		 mov	 esp, ebp
  00040	5d		 pop	 ebp
  00041	c3		 ret	 0
?t_music_end@@YAXXZ ENDP				; t_music_end
_TEXT	ENDS
; Function compile flags: /Odtp /RTCsu /ZI
; File c:\users\administrator\desktop\????? ??\????? ??\client source code\system\t_music.cpp
;	COMDAT ?t_music_init@@YAHXZ
_TEXT	SEGMENT
?t_music_init@@YAHXZ PROC				; t_music_init, COMDAT

; 2396 : {

  00000	55		 push	 ebp
  00001	8b ec		 mov	 ebp, esp
  00003	81 ec c0 00 00
	00		 sub	 esp, 192		; 000000c0H
  00009	53		 push	 ebx
  0000a	56		 push	 esi
  0000b	57		 push	 edi
  0000c	8d bd 40 ff ff
	ff		 lea	 edi, DWORD PTR [ebp-192]
  00012	b9 30 00 00 00	 mov	 ecx, 48			; 00000030H
  00017	b8 cc cc cc cc	 mov	 eax, -858993460		; ccccccccH
  0001c	f3 ab		 rep stosd

; 2397 : 	if( GetAsyncKeyState( VK_SHIFT ) & 0x8000 ){		//?????????????

  0001e	8b f4		 mov	 esi, esp
  00020	6a 10		 push	 16			; 00000010H
  00022	ff 15 00 00 00
	00		 call	 DWORD PTR __imp__GetAsyncKeyState@4
  00028	3b f4		 cmp	 esi, esp
  0002a	e8 00 00 00 00	 call	 __RTC_CheckEsp
  0002f	98		 cwde
  00030	25 00 80 00 00	 and	 eax, 32768		; 00008000H
  00035	74 0e		 je	 SHORT $LN2@t_music_in

; 2398 : 		dsound_flg = -1;

  00037	c7 05 00 00 00
	00 ff ff ff ff	 mov	 DWORD PTR ?dsound_flg@@3HA, -1 ; dsound_flg

; 2399 : 		return FALSE;

  00041	33 c0		 xor	 eax, eax
  00043	eb 21		 jmp	 SHORT $LN1@t_music_in
$LN2@t_music_in:

; 2400 : 	}
; 2401 : 	if(!InitDSound()){

  00045	e8 00 00 00 00	 call	 ?InitDSound@@YAHXZ	; InitDSound
  0004a	85 c0		 test	 eax, eax
  0004c	75 0e		 jne	 SHORT $LN3@t_music_in

; 2402 : 		dsound_flg = -1;

  0004e	c7 05 00 00 00
	00 ff ff ff ff	 mov	 DWORD PTR ?dsound_flg@@3HA, -1 ; dsound_flg

; 2403 : 		return FALSE;

  00058	33 c0		 xor	 eax, eax
  0005a	eb 0a		 jmp	 SHORT $LN1@t_music_in
$LN3@t_music_in:

; 2404 : 	}
; 2405 : 	music_init();		//????????

  0005c	e8 00 00 00 00	 call	 ?music_init@@YAXXZ	; music_init

; 2406 : 
; 2407 : /*
; 2408 : //cary	读取音乐
; 2409 : 	if(!music_read()){
; 2410 : 		play_start();
; 2411 : 	} else {
; 2412 : 		play_stop();
; 2413 : 		dsound_flg = -1;
; 2414 : 		return FALSE;
; 2415 : 	}
; 2416 : 	QueryPerformanceCounter(&d_cnt);
; 2417 : #if THREAD_ON
; 2418 : 	static DWORD dwChildThreadId = 0;
; 2419 : 	HANDLE hChildThred = CreateThread( NULL,
; 2420 : 										16384,
; 2421 : 										(LPTHREAD_START_ROUTINE)music,
; 2422 : //										(LPVOID)hWnd,
; 2423 : 										NULL,
; 2424 : 										NULL,
; 2425 : 										&dwChildThreadId );
; 2426 : #if CLASS_UP
; 2427 : 	SetThreadPriority(hChildThred,THREAD_PRIORITY_HIGHEST);
; 2428 : #endif
; 2429 : #endif
; 2430 : */
; 2431 : 	return TRUE;

  00061	b8 01 00 00 00	 mov	 eax, 1
$LN1@t_music_in:

; 2432 : }

  00066	5f		 pop	 edi
  00067	5e		 pop	 esi
  00068	5b		 pop	 ebx
  00069	81 c4 c0 00 00
	00		 add	 esp, 192		; 000000c0H
  0006f	3b ec		 cmp	 ebp, esp
  00071	e8 00 00 00 00	 call	 __RTC_CheckEsp
  00076	8b e5		 mov	 esp, ebp
  00078	5d		 pop	 ebp
  00079	c3		 ret	 0
?t_music_init@@YAHXZ ENDP				; t_music_init
_TEXT	ENDS
END
