; Listing generated by Microsoft (R) Optimizing Compiler Version 19.00.24215.1 

	TITLE	C:\Users\Administrator\Desktop\????? ??\????? ??\Client Source Code\system\tool.cpp
	.686P
	.XMM
	include listing.inc
	.model	flat

INCLUDELIB MSVCRTD
INCLUDELIB OLDNAMES

_DATA	SEGMENT
?escapeChar@@3PAUtagEscapeChar@@A DB 0aH		; escapeChar
	DB	06eH
	DB	02cH
	DB	063H
	DB	07cH
	DB	07aH
	DB	05cH
	DB	079H
_DATA	ENDS
PUBLIC	?TimeGetTime@@YAIXZ				; TimeGetTime
PUBLIC	?wordchk@@YAHPAPAD@Z				; wordchk
PUBLIC	?strstr2@@YAHPAPADPAD@Z				; strstr2
PUBLIC	?getword@@YAHPAPADPAD@Z				; getword
PUBLIC	?strint2@@YAHPAPAD@Z				; strint2
PUBLIC	?strlong2@@YAJPAPAD@Z				; strlong2
PUBLIC	?getStringToken@@YAHPADDHH0@Z			; getStringToken
PUBLIC	?getIntegerToken@@YAHPADDH@Z			; getIntegerToken
PUBLIC	?getDoubleToken@@YANPADDH@Z			; getDoubleToken
PUBLIC	?chop@@YAXPAD@Z					; chop
PUBLIC	?shiftIntArray@@YAXPAHHH@Z			; shiftIntArray
PUBLIC	?a62toi@@YAHPAD@Z				; a62toi
PUBLIC	?getInteger62Token@@YAHPADDH@Z			; getInteger62Token
PUBLIC	?jEncode@@YAXPADHH0PAHH@Z			; jEncode
PUBLIC	?jDecode@@YAXPADHH0PAH@Z			; jDecode
PUBLIC	?strncmpi@@YAHPAD0H@Z				; strncmpi
PUBLIC	?intToRect@@YA?AUtagRECT@@HHHH@Z		; intToRect
PUBLIC	?insertString@@YAXPAD0H@Z			; insertString
PUBLIC	?insertChar@@YAXPADDH@Z				; insertChar
PUBLIC	?isOnlySpaceChars@@YAHPAD@Z			; isOnlySpaceChars
PUBLIC	?makeCharFromEscaped@@YADD@Z			; makeCharFromEscaped
PUBLIC	?makeStringFromEscaped@@YAPADPAD@Z		; makeStringFromEscaped
PUBLIC	?makeEscapeString@@YAPADPAD0H@Z			; makeEscapeString
PUBLIC	?searchDelimPoint@@YAPAEPAEE@Z			; searchDelimPoint
PUBLIC	??_C@_00CNPNBAHC@?$AA@				; `string'
EXTRN	_abs:PROC
EXTRN	__imp__atoi:PROC
EXTRN	__imp__atol:PROC
EXTRN	__imp__strtod:PROC
EXTRN	_strlen:PROC
EXTRN	__imp__tolower:PROC
EXTRN	__imp__IsDBCSLeadByte@4:PROC
EXTRN	__imp__timeGetTime@0:PROC
EXTRN	@_RTC_CheckStackVars@8:PROC
EXTRN	@__security_check_cookie@4:PROC
EXTRN	__RTC_CheckEsp:PROC
EXTRN	__RTC_InitBase:PROC
EXTRN	__RTC_Shutdown:PROC
EXTRN	_memset:PROC
EXTRN	___security_cookie:DWORD
EXTRN	__fltused:DWORD
;	COMDAT rtc$TMZ
rtc$TMZ	SEGMENT
__RTC_Shutdown.rtc$TMZ DD FLAT:__RTC_Shutdown
rtc$TMZ	ENDS
;	COMDAT rtc$IMZ
rtc$IMZ	SEGMENT
__RTC_InitBase.rtc$IMZ DD FLAT:__RTC_InitBase
rtc$IMZ	ENDS
;	COMDAT ??_C@_00CNPNBAHC@?$AA@
CONST	SEGMENT
??_C@_00CNPNBAHC@?$AA@ DB 00H				; `string'
CONST	ENDS
; Function compile flags: /Odtp /RTCsu /ZI
; File c:\users\administrator\desktop\????? ??\????? ??\client source code\system\tool.cpp
;	COMDAT ?searchDelimPoint@@YAPAEPAEE@Z
_TEXT	SEGMENT
_pt$ = -8						; size = 4
_src$ = 8						; size = 4
_delim$ = 12						; size = 1
?searchDelimPoint@@YAPAEPAEE@Z PROC			; searchDelimPoint, COMDAT

; 173  : {

  00000	55		 push	 ebp
  00001	8b ec		 mov	 ebp, esp
  00003	81 ec cc 00 00
	00		 sub	 esp, 204		; 000000ccH
  00009	53		 push	 ebx
  0000a	56		 push	 esi
  0000b	57		 push	 edi
  0000c	8d bd 34 ff ff
	ff		 lea	 edi, DWORD PTR [ebp-204]
  00012	b9 33 00 00 00	 mov	 ecx, 51			; 00000033H
  00017	b8 cc cc cc cc	 mov	 eax, -858993460		; ccccccccH
  0001c	f3 ab		 rep stosd

; 174  : 	unsigned char *pt = src;

  0001e	8b 45 08	 mov	 eax, DWORD PTR _src$[ebp]
  00021	89 45 f8	 mov	 DWORD PTR _pt$[ebp], eax
$LN2@searchDeli:

; 175  : 
; 176  : 	while( 1 )

  00024	b8 01 00 00 00	 mov	 eax, 1
  00029	85 c0		 test	 eax, eax
  0002b	74 65		 je	 SHORT $LN1@searchDeli

; 177  : 	{
; 178  : 		if( *pt == '\0' )

  0002d	8b 45 f8	 mov	 eax, DWORD PTR _pt$[ebp]
  00030	0f b6 08	 movzx	 ecx, BYTE PTR [eax]
  00033	85 c9		 test	 ecx, ecx
  00035	75 04		 jne	 SHORT $LN4@searchDeli

; 179  : 			return (unsigned char *)0;

  00037	33 c0		 xor	 eax, eax
  00039	eb 57		 jmp	 SHORT $LN1@searchDeli
$LN4@searchDeli:

; 180  : 
; 181  : 		if( *pt < 0x80 )

  0003b	8b 45 f8	 mov	 eax, DWORD PTR _pt$[ebp]
  0003e	0f b6 08	 movzx	 ecx, BYTE PTR [eax]
  00041	81 f9 80 00 00
	00		 cmp	 ecx, 128		; 00000080H
  00047	7d 27		 jge	 SHORT $LN5@searchDeli

; 182  : 		{
; 183  : 			// 1bayte更????
; 184  : 			if( *pt == delim )

  00049	8b 45 f8	 mov	 eax, DWORD PTR _pt$[ebp]
  0004c	0f b6 08	 movzx	 ecx, BYTE PTR [eax]
  0004f	0f b6 55 0c	 movzx	 edx, BYTE PTR _delim$[ebp]
  00053	3b ca		 cmp	 ecx, edx
  00055	75 0e		 jne	 SHORT $LN7@searchDeli

; 185  : 			{
; 186  : 				// ??更???????????????刺?
; 187  : 				pt++;

  00057	8b 45 f8	 mov	 eax, DWORD PTR _pt$[ebp]
  0005a	83 c0 01	 add	 eax, 1
  0005d	89 45 f8	 mov	 DWORD PTR _pt$[ebp], eax

; 188  : 				return pt;

  00060	8b 45 f8	 mov	 eax, DWORD PTR _pt$[ebp]
  00063	eb 2d		 jmp	 SHORT $LN1@searchDeli
$LN7@searchDeli:

; 189  : 			}
; 190  : 			pt++;

  00065	8b 45 f8	 mov	 eax, DWORD PTR _pt$[ebp]
  00068	83 c0 01	 add	 eax, 1
  0006b	89 45 f8	 mov	 DWORD PTR _pt$[ebp], eax

; 191  : 		}
; 192  : 		else

  0006e	eb 20		 jmp	 SHORT $LN6@searchDeli
$LN5@searchDeli:

; 193  : 		{
; 194  : 			// 2byte更????
; 195  : 			pt++;

  00070	8b 45 f8	 mov	 eax, DWORD PTR _pt$[ebp]
  00073	83 c0 01	 add	 eax, 1
  00076	89 45 f8	 mov	 DWORD PTR _pt$[ebp], eax

; 196  : 			if( *pt == '\0' )

  00079	8b 45 f8	 mov	 eax, DWORD PTR _pt$[ebp]
  0007c	0f b6 08	 movzx	 ecx, BYTE PTR [eax]
  0007f	85 c9		 test	 ecx, ecx
  00081	75 04		 jne	 SHORT $LN8@searchDeli

; 197  : 				return (unsigned char *)0;

  00083	33 c0		 xor	 eax, eax
  00085	eb 0b		 jmp	 SHORT $LN1@searchDeli
$LN8@searchDeli:

; 198  : 			pt++;

  00087	8b 45 f8	 mov	 eax, DWORD PTR _pt$[ebp]
  0008a	83 c0 01	 add	 eax, 1
  0008d	89 45 f8	 mov	 DWORD PTR _pt$[ebp], eax
$LN6@searchDeli:

; 199  : 		}
; 200  : 	}

  00090	eb 92		 jmp	 SHORT $LN2@searchDeli
$LN1@searchDeli:

; 201  : }

  00092	5f		 pop	 edi
  00093	5e		 pop	 esi
  00094	5b		 pop	 ebx
  00095	8b e5		 mov	 esp, ebp
  00097	5d		 pop	 ebp
  00098	c3		 ret	 0
?searchDelimPoint@@YAPAEPAEE@Z ENDP			; searchDelimPoint
_TEXT	ENDS
; Function compile flags: /Odtp /RTCsu /ZI
; File c:\users\administrator\desktop\????? ??\????? ??\client source code\system\tool.cpp
;	COMDAT ?copyStringUntilDelim@@YAHPAEDH0@Z
_TEXT	SEGMENT
_i$ = -8						; size = 4
_src$ = 8						; size = 4
_delim$ = 12						; size = 1
_maxlen$ = 16						; size = 4
_out$ = 20						; size = 4
?copyStringUntilDelim@@YAHPAEDH0@Z PROC			; copyStringUntilDelim, COMDAT

; 256  : {

  00000	55		 push	 ebp
  00001	8b ec		 mov	 ebp, esp
  00003	81 ec cc 00 00
	00		 sub	 esp, 204		; 000000ccH
  00009	53		 push	 ebx
  0000a	56		 push	 esi
  0000b	57		 push	 edi
  0000c	8d bd 34 ff ff
	ff		 lea	 edi, DWORD PTR [ebp-204]
  00012	b9 33 00 00 00	 mov	 ecx, 51			; 00000033H
  00017	b8 cc cc cc cc	 mov	 eax, -858993460		; ccccccccH
  0001c	f3 ab		 rep stosd

; 257  : 	int i;
; 258  : 
; 259  : 	for( i = 0; i < maxlen; i++ )

  0001e	c7 45 f8 00 00
	00 00		 mov	 DWORD PTR _i$[ebp], 0
  00025	eb 09		 jmp	 SHORT $LN4@copyString
$LN2@copyString:
  00027	8b 45 f8	 mov	 eax, DWORD PTR _i$[ebp]
  0002a	83 c0 01	 add	 eax, 1
  0002d	89 45 f8	 mov	 DWORD PTR _i$[ebp], eax
$LN4@copyString:
  00030	8b 45 f8	 mov	 eax, DWORD PTR _i$[ebp]
  00033	3b 45 10	 cmp	 eax, DWORD PTR _maxlen$[ebp]
  00036	0f 8d a4 00 00
	00		 jge	 $LN3@copyString

; 260  : 	{
; 261  : 		if( src[i] < 0x80 )

  0003c	8b 45 08	 mov	 eax, DWORD PTR _src$[ebp]
  0003f	03 45 f8	 add	 eax, DWORD PTR _i$[ebp]
  00042	0f b6 08	 movzx	 ecx, BYTE PTR [eax]
  00045	81 f9 80 00 00
	00		 cmp	 ecx, 128		; 00000080H
  0004b	7d 47		 jge	 SHORT $LN5@copyString

; 262  : 		{
; 263  : 			// 1byte更????
; 264  : 
; 265  : 			if( src[i] == delim )

  0004d	8b 45 08	 mov	 eax, DWORD PTR _src$[ebp]
  00050	03 45 f8	 add	 eax, DWORD PTR _i$[ebp]
  00053	0f b6 08	 movzx	 ecx, BYTE PTR [eax]
  00056	0f be 55 0c	 movsx	 edx, BYTE PTR _delim$[ebp]
  0005a	3b ca		 cmp	 ecx, edx
  0005c	75 10		 jne	 SHORT $LN7@copyString

; 266  : 			{
; 267  : 				// ??更??????
; 268  : 				out[i] = '\0';

  0005e	8b 45 14	 mov	 eax, DWORD PTR _out$[ebp]
  00061	03 45 f8	 add	 eax, DWORD PTR _i$[ebp]
  00064	c6 00 00	 mov	 BYTE PTR [eax], 0

; 269  : 				return 0;

  00067	33 c0		 xor	 eax, eax
  00069	e9 80 00 00 00	 jmp	 $LN1@copyString
$LN7@copyString:

; 270  : 			}
; 271  : 
; 272  : 			// ???更?????
; 273  : 			out[i] = src[i];

  0006e	8b 45 14	 mov	 eax, DWORD PTR _out$[ebp]
  00071	03 45 f8	 add	 eax, DWORD PTR _i$[ebp]
  00074	8b 4d 08	 mov	 ecx, DWORD PTR _src$[ebp]
  00077	03 4d f8	 add	 ecx, DWORD PTR _i$[ebp]
  0007a	8a 11		 mov	 dl, BYTE PTR [ecx]
  0007c	88 10		 mov	 BYTE PTR [eax], dl

; 274  : 
; 275  : 			// 派Z更?????
; 276  : 			if( out[i] == '\0' )

  0007e	8b 45 14	 mov	 eax, DWORD PTR _out$[ebp]
  00081	03 45 f8	 add	 eax, DWORD PTR _i$[ebp]
  00084	0f b6 08	 movzx	 ecx, BYTE PTR [eax]
  00087	85 c9		 test	 ecx, ecx
  00089	75 07		 jne	 SHORT $LN8@copyString

; 277  : 				return 1;

  0008b	b8 01 00 00 00	 mov	 eax, 1
  00090	eb 5c		 jmp	 SHORT $LN1@copyString
$LN8@copyString:

; 278  : 		}
; 279  : 		else

  00092	eb 47		 jmp	 SHORT $LN6@copyString
$LN5@copyString:

; 280  : 		{
; 281  : 			// 2byte更????
; 282  : 
; 283  : 			// ???更?????
; 284  : 			out[i] = src[i];

  00094	8b 45 14	 mov	 eax, DWORD PTR _out$[ebp]
  00097	03 45 f8	 add	 eax, DWORD PTR _i$[ebp]
  0009a	8b 4d 08	 mov	 ecx, DWORD PTR _src$[ebp]
  0009d	03 4d f8	 add	 ecx, DWORD PTR _i$[ebp]
  000a0	8a 11		 mov	 dl, BYTE PTR [ecx]
  000a2	88 10		 mov	 BYTE PTR [eax], dl

; 285  : 
; 286  : 			i++;

  000a4	8b 45 f8	 mov	 eax, DWORD PTR _i$[ebp]
  000a7	83 c0 01	 add	 eax, 1
  000aa	89 45 f8	 mov	 DWORD PTR _i$[ebp], eax

; 287  : 			if( i >= maxlen )	// ???????????

  000ad	8b 45 f8	 mov	 eax, DWORD PTR _i$[ebp]
  000b0	3b 45 10	 cmp	 eax, DWORD PTR _maxlen$[ebp]
  000b3	7c 02		 jl	 SHORT $LN9@copyString

; 288  : 				break;

  000b5	eb 29		 jmp	 SHORT $LN3@copyString
$LN9@copyString:

; 289  : 
; 290  : 			// ???更?????
; 291  : 			out[i] = src[i];

  000b7	8b 45 14	 mov	 eax, DWORD PTR _out$[ebp]
  000ba	03 45 f8	 add	 eax, DWORD PTR _i$[ebp]
  000bd	8b 4d 08	 mov	 ecx, DWORD PTR _src$[ebp]
  000c0	03 4d f8	 add	 ecx, DWORD PTR _i$[ebp]
  000c3	8a 11		 mov	 dl, BYTE PTR [ecx]
  000c5	88 10		 mov	 BYTE PTR [eax], dl

; 292  : 
; 293  : 			// 派Z更???????????????????
; 294  : 			if( out[i] == '\0' )

  000c7	8b 45 14	 mov	 eax, DWORD PTR _out$[ebp]
  000ca	03 45 f8	 add	 eax, DWORD PTR _i$[ebp]
  000cd	0f b6 08	 movzx	 ecx, BYTE PTR [eax]
  000d0	85 c9		 test	 ecx, ecx
  000d2	75 07		 jne	 SHORT $LN6@copyString

; 295  : 				return 1;

  000d4	b8 01 00 00 00	 mov	 eax, 1
  000d9	eb 13		 jmp	 SHORT $LN1@copyString
$LN6@copyString:

; 296  : 		}
; 297  : 	}

  000db	e9 47 ff ff ff	 jmp	 $LN2@copyString
$LN3@copyString:

; 298  : 
; 299  : 	out[i] = '\0';

  000e0	8b 45 14	 mov	 eax, DWORD PTR _out$[ebp]
  000e3	03 45 f8	 add	 eax, DWORD PTR _i$[ebp]
  000e6	c6 00 00	 mov	 BYTE PTR [eax], 0

; 300  : 
; 301  : 	return 1;

  000e9	b8 01 00 00 00	 mov	 eax, 1
$LN1@copyString:

; 302  : }

  000ee	5f		 pop	 edi
  000ef	5e		 pop	 esi
  000f0	5b		 pop	 ebx
  000f1	8b e5		 mov	 esp, ebp
  000f3	5d		 pop	 ebp
  000f4	c3		 ret	 0
?copyStringUntilDelim@@YAHPAEDH0@Z ENDP			; copyStringUntilDelim
_TEXT	ENDS
; Function compile flags: /Odtp /RTCsu /ZI
; File c:\users\administrator\desktop\????? ??\????? ??\client source code\system\tool.cpp
;	COMDAT ?makeEscapeString@@YAPADPAD0H@Z
_TEXT	SEGMENT
_j$1 = -68						; size = 4
_escapechar$2 = -53					; size = 1
_dirty$3 = -44						; size = 4
_i$4 = -32						; size = 4
_destindex$ = -20					; size = 4
_srclen$ = -8						; size = 4
_src$ = 8						; size = 4
_dest$ = 12						; size = 4
_sizeofdest$ = 16					; size = 4
?makeEscapeString@@YAPADPAD0H@Z PROC			; makeEscapeString, COMDAT

; 648  : {

  00000	55		 push	 ebp
  00001	8b ec		 mov	 ebp, esp
  00003	81 ec 08 01 00
	00		 sub	 esp, 264		; 00000108H
  00009	53		 push	 ebx
  0000a	56		 push	 esi
  0000b	57		 push	 edi
  0000c	8d bd f8 fe ff
	ff		 lea	 edi, DWORD PTR [ebp-264]
  00012	b9 42 00 00 00	 mov	 ecx, 66			; 00000042H
  00017	b8 cc cc cc cc	 mov	 eax, -858993460		; ccccccccH
  0001c	f3 ab		 rep stosd

; 649  : 	int		srclen=strlen(src);

  0001e	8b 45 08	 mov	 eax, DWORD PTR _src$[ebp]
  00021	50		 push	 eax
  00022	e8 00 00 00 00	 call	 _strlen
  00027	83 c4 04	 add	 esp, 4
  0002a	89 45 f8	 mov	 DWORD PTR _srclen$[ebp], eax

; 650  : 	int		destindex=0;

  0002d	c7 45 ec 00 00
	00 00		 mov	 DWORD PTR _destindex$[ebp], 0

; 651  : 	for(int i=0;i<srclen;i++){

  00034	c7 45 e0 00 00
	00 00		 mov	 DWORD PTR _i$4[ebp], 0
  0003b	eb 09		 jmp	 SHORT $LN4@makeEscape
$LN2@makeEscape:
  0003d	8b 45 e0	 mov	 eax, DWORD PTR _i$4[ebp]
  00040	83 c0 01	 add	 eax, 1
  00043	89 45 e0	 mov	 DWORD PTR _i$4[ebp], eax
$LN4@makeEscape:
  00046	8b 45 e0	 mov	 eax, DWORD PTR _i$4[ebp]
  00049	3b 45 f8	 cmp	 eax, DWORD PTR _srclen$[ebp]
  0004c	0f 8d 2d 01 00
	00		 jge	 $LN3@makeEscape

; 652  : 		if(destindex+1 >= sizeofdest)

  00052	8b 45 ec	 mov	 eax, DWORD PTR _destindex$[ebp]
  00055	83 c0 01	 add	 eax, 1
  00058	3b 45 10	 cmp	 eax, DWORD PTR _sizeofdest$[ebp]
  0005b	7c 05		 jl	 SHORT $LN8@makeEscape

; 653  : 			break;

  0005d	e9 1d 01 00 00	 jmp	 $LN3@makeEscape
$LN8@makeEscape:

; 654  : 		if(IsDBCSLeadByte(src[i])){

  00062	8b 45 08	 mov	 eax, DWORD PTR _src$[ebp]
  00065	03 45 e0	 add	 eax, DWORD PTR _i$4[ebp]
  00068	8b f4		 mov	 esi, esp
  0006a	0f b6 08	 movzx	 ecx, BYTE PTR [eax]
  0006d	51		 push	 ecx
  0006e	ff 15 00 00 00
	00		 call	 DWORD PTR __imp__IsDBCSLeadByte@4
  00074	3b f4		 cmp	 esi, esp
  00076	e8 00 00 00 00	 call	 __RTC_CheckEsp
  0007b	85 c0		 test	 eax, eax
  0007d	74 52		 je	 SHORT $LN9@makeEscape

; 655  : 			if(destindex+2 < sizeofdest){

  0007f	8b 45 ec	 mov	 eax, DWORD PTR _destindex$[ebp]
  00082	83 c0 02	 add	 eax, 2
  00085	3b 45 10	 cmp	 eax, DWORD PTR _sizeofdest$[ebp]
  00088	7d 3d		 jge	 SHORT $LN11@makeEscape

; 656  : 				dest[destindex++]=src[i++];

  0008a	8b 45 0c	 mov	 eax, DWORD PTR _dest$[ebp]
  0008d	03 45 ec	 add	 eax, DWORD PTR _destindex$[ebp]
  00090	8b 4d 08	 mov	 ecx, DWORD PTR _src$[ebp]
  00093	03 4d e0	 add	 ecx, DWORD PTR _i$4[ebp]
  00096	8a 11		 mov	 dl, BYTE PTR [ecx]
  00098	88 10		 mov	 BYTE PTR [eax], dl
  0009a	8b 45 ec	 mov	 eax, DWORD PTR _destindex$[ebp]
  0009d	83 c0 01	 add	 eax, 1
  000a0	89 45 ec	 mov	 DWORD PTR _destindex$[ebp], eax
  000a3	8b 4d e0	 mov	 ecx, DWORD PTR _i$4[ebp]
  000a6	83 c1 01	 add	 ecx, 1
  000a9	89 4d e0	 mov	 DWORD PTR _i$4[ebp], ecx

; 657  : 				dest[destindex++]=src[i];

  000ac	8b 45 0c	 mov	 eax, DWORD PTR _dest$[ebp]
  000af	03 45 ec	 add	 eax, DWORD PTR _destindex$[ebp]
  000b2	8b 4d 08	 mov	 ecx, DWORD PTR _src$[ebp]
  000b5	03 4d e0	 add	 ecx, DWORD PTR _i$4[ebp]
  000b8	8a 11		 mov	 dl, BYTE PTR [ecx]
  000ba	88 10		 mov	 BYTE PTR [eax], dl
  000bc	8b 45 ec	 mov	 eax, DWORD PTR _destindex$[ebp]
  000bf	83 c0 01	 add	 eax, 1
  000c2	89 45 ec	 mov	 DWORD PTR _destindex$[ebp], eax

; 658  : 			}else

  000c5	eb 05		 jmp	 SHORT $LN12@makeEscape
$LN11@makeEscape:

; 659  : 				break;

  000c7	e9 b3 00 00 00	 jmp	 $LN3@makeEscape
$LN12@makeEscape:

; 660  : 		}else{

  000cc	e9 a9 00 00 00	 jmp	 $LN10@makeEscape
$LN9@makeEscape:

; 661  : 			BOOL dirty=FALSE;

  000d1	c7 45 d4 00 00
	00 00		 mov	 DWORD PTR _dirty$3[ebp], 0

; 662  : 			char escapechar='\0';

  000d8	c6 45 cb 00	 mov	 BYTE PTR _escapechar$2[ebp], 0

; 663  : 			for(int j=0;j<sizeof(escapeChar)/sizeof(escapeChar[0]);j++)

  000dc	c7 45 bc 00 00
	00 00		 mov	 DWORD PTR _j$1[ebp], 0
  000e3	eb 09		 jmp	 SHORT $LN7@makeEscape
$LN5@makeEscape:
  000e5	8b 45 bc	 mov	 eax, DWORD PTR _j$1[ebp]
  000e8	83 c0 01	 add	 eax, 1
  000eb	89 45 bc	 mov	 DWORD PTR _j$1[ebp], eax
$LN7@makeEscape:
  000ee	83 7d bc 04	 cmp	 DWORD PTR _j$1[ebp], 4
  000f2	73 30		 jae	 SHORT $LN6@makeEscape

; 664  : 				if(src[i]==escapeChar[j].escapechar){

  000f4	8b 45 08	 mov	 eax, DWORD PTR _src$[ebp]
  000f7	03 45 e0	 add	 eax, DWORD PTR _i$4[ebp]
  000fa	0f be 08	 movsx	 ecx, BYTE PTR [eax]
  000fd	8b 55 bc	 mov	 edx, DWORD PTR _j$1[ebp]
  00100	0f be 04 55 00
	00 00 00	 movsx	 eax, BYTE PTR ?escapeChar@@3PAUtagEscapeChar@@A[edx*2]
  00108	3b c8		 cmp	 ecx, eax
  0010a	75 16		 jne	 SHORT $LN13@makeEscape

; 665  : 					dirty=TRUE;

  0010c	c7 45 d4 01 00
	00 00		 mov	 DWORD PTR _dirty$3[ebp], 1

; 666  : 					escapechar=escapeChar[j].escapedchar;

  00113	8b 45 bc	 mov	 eax, DWORD PTR _j$1[ebp]
  00116	8a 0c 45 01 00
	00 00		 mov	 cl, BYTE PTR ?escapeChar@@3PAUtagEscapeChar@@A[eax*2+1]
  0011d	88 4d cb	 mov	 BYTE PTR _escapechar$2[ebp], cl

; 667  : 					break;

  00120	eb 02		 jmp	 SHORT $LN6@makeEscape
$LN13@makeEscape:

; 668  : 				}

  00122	eb c1		 jmp	 SHORT $LN5@makeEscape
$LN6@makeEscape:

; 669  : 			if(dirty==TRUE){

  00124	83 7d d4 01	 cmp	 DWORD PTR _dirty$3[ebp], 1
  00128	75 37		 jne	 SHORT $LN14@makeEscape

; 670  : 				if( destindex + 2 < sizeofdest ){

  0012a	8b 45 ec	 mov	 eax, DWORD PTR _destindex$[ebp]
  0012d	83 c0 02	 add	 eax, 2
  00130	3b 45 10	 cmp	 eax, DWORD PTR _sizeofdest$[ebp]
  00133	7d 28		 jge	 SHORT $LN16@makeEscape

; 671  : 					dest[destindex++]='\\';

  00135	8b 45 0c	 mov	 eax, DWORD PTR _dest$[ebp]
  00138	03 45 ec	 add	 eax, DWORD PTR _destindex$[ebp]
  0013b	c6 00 5c	 mov	 BYTE PTR [eax], 92	; 0000005cH
  0013e	8b 4d ec	 mov	 ecx, DWORD PTR _destindex$[ebp]
  00141	83 c1 01	 add	 ecx, 1
  00144	89 4d ec	 mov	 DWORD PTR _destindex$[ebp], ecx

; 672  : 					dest[destindex++]=escapechar;

  00147	8b 45 0c	 mov	 eax, DWORD PTR _dest$[ebp]
  0014a	03 45 ec	 add	 eax, DWORD PTR _destindex$[ebp]
  0014d	8a 4d cb	 mov	 cl, BYTE PTR _escapechar$2[ebp]
  00150	88 08		 mov	 BYTE PTR [eax], cl
  00152	8b 55 ec	 mov	 edx, DWORD PTR _destindex$[ebp]
  00155	83 c2 01	 add	 edx, 1
  00158	89 55 ec	 mov	 DWORD PTR _destindex$[ebp], edx

; 673  : 				}else

  0015b	eb 02		 jmp	 SHORT $LN17@makeEscape
$LN16@makeEscape:

; 674  : 					break;

  0015d	eb 20		 jmp	 SHORT $LN3@makeEscape
$LN17@makeEscape:

; 675  : 			}else

  0015f	eb 19		 jmp	 SHORT $LN10@makeEscape
$LN14@makeEscape:

; 676  : 				dest[destindex++]=src[i];

  00161	8b 45 0c	 mov	 eax, DWORD PTR _dest$[ebp]
  00164	03 45 ec	 add	 eax, DWORD PTR _destindex$[ebp]
  00167	8b 4d 08	 mov	 ecx, DWORD PTR _src$[ebp]
  0016a	03 4d e0	 add	 ecx, DWORD PTR _i$4[ebp]
  0016d	8a 11		 mov	 dl, BYTE PTR [ecx]
  0016f	88 10		 mov	 BYTE PTR [eax], dl
  00171	8b 45 ec	 mov	 eax, DWORD PTR _destindex$[ebp]
  00174	83 c0 01	 add	 eax, 1
  00177	89 45 ec	 mov	 DWORD PTR _destindex$[ebp], eax
$LN10@makeEscape:

; 677  : 		}
; 678  :     }

  0017a	e9 be fe ff ff	 jmp	 $LN2@makeEscape
$LN3@makeEscape:

; 679  :     dest[destindex] = '\0';

  0017f	8b 45 0c	 mov	 eax, DWORD PTR _dest$[ebp]
  00182	03 45 ec	 add	 eax, DWORD PTR _destindex$[ebp]
  00185	c6 00 00	 mov	 BYTE PTR [eax], 0

; 680  :     return dest;

  00188	8b 45 0c	 mov	 eax, DWORD PTR _dest$[ebp]

; 681  : }

  0018b	5f		 pop	 edi
  0018c	5e		 pop	 esi
  0018d	5b		 pop	 ebx
  0018e	81 c4 08 01 00
	00		 add	 esp, 264		; 00000108H
  00194	3b ec		 cmp	 ebp, esp
  00196	e8 00 00 00 00	 call	 __RTC_CheckEsp
  0019b	8b e5		 mov	 esp, ebp
  0019d	5d		 pop	 ebp
  0019e	c3		 ret	 0
?makeEscapeString@@YAPADPAD0H@Z ENDP			; makeEscapeString
_TEXT	ENDS
; Function compile flags: /Odtp /RTCsu /ZI
; File c:\users\administrator\desktop\????? ??\????? ??\client source code\system\tool.cpp
;	COMDAT ?makeStringFromEscaped@@YAPADPAD@Z
_TEXT	SEGMENT
_j$1 = -44						; size = 4
_i$2 = -32						; size = 4
_searchindex$ = -20					; size = 4
_srclen$ = -8						; size = 4
_src$ = 8						; size = 4
?makeStringFromEscaped@@YAPADPAD@Z PROC			; makeStringFromEscaped, COMDAT

; 610  : {

  00000	55		 push	 ebp
  00001	8b ec		 mov	 ebp, esp
  00003	81 ec f0 00 00
	00		 sub	 esp, 240		; 000000f0H
  00009	53		 push	 ebx
  0000a	56		 push	 esi
  0000b	57		 push	 edi
  0000c	8d bd 10 ff ff
	ff		 lea	 edi, DWORD PTR [ebp-240]
  00012	b9 3c 00 00 00	 mov	 ecx, 60			; 0000003cH
  00017	b8 cc cc cc cc	 mov	 eax, -858993460		; ccccccccH
  0001c	f3 ab		 rep stosd

; 611  : 	int		srclen=strlen(src);

  0001e	8b 45 08	 mov	 eax, DWORD PTR _src$[ebp]
  00021	50		 push	 eax
  00022	e8 00 00 00 00	 call	 _strlen
  00027	83 c4 04	 add	 esp, 4
  0002a	89 45 f8	 mov	 DWORD PTR _srclen$[ebp], eax

; 612  : 	int		searchindex=0;

  0002d	c7 45 ec 00 00
	00 00		 mov	 DWORD PTR _searchindex$[ebp], 0

; 613  : 	for(int i=0;i<srclen;i++){

  00034	c7 45 e0 00 00
	00 00		 mov	 DWORD PTR _i$2[ebp], 0
  0003b	eb 09		 jmp	 SHORT $LN4@makeString
$LN2@makeString:
  0003d	8b 45 e0	 mov	 eax, DWORD PTR _i$2[ebp]
  00040	83 c0 01	 add	 eax, 1
  00043	89 45 e0	 mov	 DWORD PTR _i$2[ebp], eax
$LN4@makeString:
  00046	8b 45 e0	 mov	 eax, DWORD PTR _i$2[ebp]
  00049	3b 45 f8	 cmp	 eax, DWORD PTR _srclen$[ebp]
  0004c	0f 8d fe 00 00
	00		 jge	 $LN3@makeString

; 614  : 		if(IsDBCSLeadByte(src[i])){

  00052	8b 45 08	 mov	 eax, DWORD PTR _src$[ebp]
  00055	03 45 e0	 add	 eax, DWORD PTR _i$2[ebp]
  00058	8b f4		 mov	 esi, esp
  0005a	0f b6 08	 movzx	 ecx, BYTE PTR [eax]
  0005d	51		 push	 ecx
  0005e	ff 15 00 00 00
	00		 call	 DWORD PTR __imp__IsDBCSLeadByte@4
  00064	3b f4		 cmp	 esi, esp
  00066	e8 00 00 00 00	 call	 __RTC_CheckEsp
  0006b	85 c0		 test	 eax, eax
  0006d	74 40		 je	 SHORT $LN8@makeString

; 615  : 			src[searchindex++]=src[i++];

  0006f	8b 45 08	 mov	 eax, DWORD PTR _src$[ebp]
  00072	03 45 ec	 add	 eax, DWORD PTR _searchindex$[ebp]
  00075	8b 4d 08	 mov	 ecx, DWORD PTR _src$[ebp]
  00078	03 4d e0	 add	 ecx, DWORD PTR _i$2[ebp]
  0007b	8a 11		 mov	 dl, BYTE PTR [ecx]
  0007d	88 10		 mov	 BYTE PTR [eax], dl
  0007f	8b 45 ec	 mov	 eax, DWORD PTR _searchindex$[ebp]
  00082	83 c0 01	 add	 eax, 1
  00085	89 45 ec	 mov	 DWORD PTR _searchindex$[ebp], eax
  00088	8b 4d e0	 mov	 ecx, DWORD PTR _i$2[ebp]
  0008b	83 c1 01	 add	 ecx, 1
  0008e	89 4d e0	 mov	 DWORD PTR _i$2[ebp], ecx

; 616  : 			src[searchindex++]=src[i];

  00091	8b 45 08	 mov	 eax, DWORD PTR _src$[ebp]
  00094	03 45 ec	 add	 eax, DWORD PTR _searchindex$[ebp]
  00097	8b 4d 08	 mov	 ecx, DWORD PTR _src$[ebp]
  0009a	03 4d e0	 add	 ecx, DWORD PTR _i$2[ebp]
  0009d	8a 11		 mov	 dl, BYTE PTR [ecx]
  0009f	88 10		 mov	 BYTE PTR [eax], dl
  000a1	8b 45 ec	 mov	 eax, DWORD PTR _searchindex$[ebp]
  000a4	83 c0 01	 add	 eax, 1
  000a7	89 45 ec	 mov	 DWORD PTR _searchindex$[ebp], eax

; 617  : 		}else{

  000aa	e9 9c 00 00 00	 jmp	 $NEXT$15
$LN8@makeString:

; 618  : 			if(src[i]=='\\'){

  000af	8b 45 08	 mov	 eax, DWORD PTR _src$[ebp]
  000b2	03 45 e0	 add	 eax, DWORD PTR _i$2[ebp]
  000b5	0f be 08	 movsx	 ecx, BYTE PTR [eax]
  000b8	83 f9 5c	 cmp	 ecx, 92			; 0000005cH
  000bb	75 75		 jne	 SHORT $LN10@makeString

; 619  : 				int j;
; 620  : 				i++;

  000bd	8b 45 e0	 mov	 eax, DWORD PTR _i$2[ebp]
  000c0	83 c0 01	 add	 eax, 1
  000c3	89 45 e0	 mov	 DWORD PTR _i$2[ebp], eax

; 621  : 				for(j=0;j<sizeof(escapeChar)/sizeof(escapeChar[0]);j++)

  000c6	c7 45 d4 00 00
	00 00		 mov	 DWORD PTR _j$1[ebp], 0
  000cd	eb 09		 jmp	 SHORT $LN7@makeString
$LN5@makeString:
  000cf	8b 45 d4	 mov	 eax, DWORD PTR _j$1[ebp]
  000d2	83 c0 01	 add	 eax, 1
  000d5	89 45 d4	 mov	 DWORD PTR _j$1[ebp], eax
$LN7@makeString:
  000d8	83 7d d4 04	 cmp	 DWORD PTR _j$1[ebp], 4
  000dc	73 39		 jae	 SHORT $LN6@makeString

; 622  : 					if(escapeChar[j].escapedchar==src[i]){

  000de	8b 45 d4	 mov	 eax, DWORD PTR _j$1[ebp]
  000e1	0f be 0c 45 01
	00 00 00	 movsx	 ecx, BYTE PTR ?escapeChar@@3PAUtagEscapeChar@@A[eax*2+1]
  000e9	8b 55 08	 mov	 edx, DWORD PTR _src$[ebp]
  000ec	03 55 e0	 add	 edx, DWORD PTR _i$2[ebp]
  000ef	0f be 02	 movsx	 eax, BYTE PTR [edx]
  000f2	3b c8		 cmp	 ecx, eax
  000f4	75 1f		 jne	 SHORT $LN12@makeString

; 623  : 						src[searchindex++]=escapeChar[j].escapechar;

  000f6	8b 45 08	 mov	 eax, DWORD PTR _src$[ebp]
  000f9	03 45 ec	 add	 eax, DWORD PTR _searchindex$[ebp]
  000fc	8b 4d d4	 mov	 ecx, DWORD PTR _j$1[ebp]
  000ff	8a 14 4d 00 00
	00 00		 mov	 dl, BYTE PTR ?escapeChar@@3PAUtagEscapeChar@@A[ecx*2]
  00106	88 10		 mov	 BYTE PTR [eax], dl
  00108	8b 45 ec	 mov	 eax, DWORD PTR _searchindex$[ebp]
  0010b	83 c0 01	 add	 eax, 1
  0010e	89 45 ec	 mov	 DWORD PTR _searchindex$[ebp], eax

; 624  : 						goto NEXT;

  00111	eb 38		 jmp	 SHORT $NEXT$15
  00113	eb 36		 jmp	 SHORT $NEXT$15
$LN12@makeString:

; 625  : 					}

  00115	eb b8		 jmp	 SHORT $LN5@makeString
$LN6@makeString:

; 626  : 				src[searchindex++]=src[i];

  00117	8b 45 08	 mov	 eax, DWORD PTR _src$[ebp]
  0011a	03 45 ec	 add	 eax, DWORD PTR _searchindex$[ebp]
  0011d	8b 4d 08	 mov	 ecx, DWORD PTR _src$[ebp]
  00120	03 4d e0	 add	 ecx, DWORD PTR _i$2[ebp]
  00123	8a 11		 mov	 dl, BYTE PTR [ecx]
  00125	88 10		 mov	 BYTE PTR [eax], dl
  00127	8b 45 ec	 mov	 eax, DWORD PTR _searchindex$[ebp]
  0012a	83 c0 01	 add	 eax, 1
  0012d	89 45 ec	 mov	 DWORD PTR _searchindex$[ebp], eax

; 627  : 			}else

  00130	eb 19		 jmp	 SHORT $NEXT$15
$LN10@makeString:

; 628  : 				src[searchindex++]=src[i];

  00132	8b 45 08	 mov	 eax, DWORD PTR _src$[ebp]
  00135	03 45 ec	 add	 eax, DWORD PTR _searchindex$[ebp]
  00138	8b 4d 08	 mov	 ecx, DWORD PTR _src$[ebp]
  0013b	03 4d e0	 add	 ecx, DWORD PTR _i$2[ebp]
  0013e	8a 11		 mov	 dl, BYTE PTR [ecx]
  00140	88 10		 mov	 BYTE PTR [eax], dl
  00142	8b 45 ec	 mov	 eax, DWORD PTR _searchindex$[ebp]
  00145	83 c0 01	 add	 eax, 1
  00148	89 45 ec	 mov	 DWORD PTR _searchindex$[ebp], eax
$NEXT$15:

; 629  : 		}
; 630  : NEXT:
; 631  : 		;
; 632  : 	}

  0014b	e9 ed fe ff ff	 jmp	 $LN2@makeString
$LN3@makeString:

; 633  : 	src[searchindex]='\0';

  00150	8b 45 08	 mov	 eax, DWORD PTR _src$[ebp]
  00153	03 45 ec	 add	 eax, DWORD PTR _searchindex$[ebp]
  00156	c6 00 00	 mov	 BYTE PTR [eax], 0

; 634  : 	return src;

  00159	8b 45 08	 mov	 eax, DWORD PTR _src$[ebp]

; 635  : }

  0015c	5f		 pop	 edi
  0015d	5e		 pop	 esi
  0015e	5b		 pop	 ebx
  0015f	81 c4 f0 00 00
	00		 add	 esp, 240		; 000000f0H
  00165	3b ec		 cmp	 ebp, esp
  00167	e8 00 00 00 00	 call	 __RTC_CheckEsp
  0016c	8b e5		 mov	 esp, ebp
  0016e	5d		 pop	 ebp
  0016f	c3		 ret	 0
?makeStringFromEscaped@@YAPADPAD@Z ENDP			; makeStringFromEscaped
_TEXT	ENDS
; Function compile flags: /Odtp /RTCsu /ZI
; File c:\users\administrator\desktop\????? ??\????? ??\client source code\system\tool.cpp
;	COMDAT ?makeCharFromEscaped@@YADD@Z
_TEXT	SEGMENT
_i$ = -8						; size = 4
_c$ = 8							; size = 1
?makeCharFromEscaped@@YADD@Z PROC			; makeCharFromEscaped, COMDAT

; 585  : {

  00000	55		 push	 ebp
  00001	8b ec		 mov	 ebp, esp
  00003	81 ec cc 00 00
	00		 sub	 esp, 204		; 000000ccH
  00009	53		 push	 ebx
  0000a	56		 push	 esi
  0000b	57		 push	 edi
  0000c	8d bd 34 ff ff
	ff		 lea	 edi, DWORD PTR [ebp-204]
  00012	b9 33 00 00 00	 mov	 ecx, 51			; 00000033H
  00017	b8 cc cc cc cc	 mov	 eax, -858993460		; ccccccccH
  0001c	f3 ab		 rep stosd

; 586  : 	int i;
; 587  : 
; 588  : 	for( i = 0; i < sizeof( escapeChar )/sizeof( escapeChar[0] ); i++ )

  0001e	c7 45 f8 00 00
	00 00		 mov	 DWORD PTR _i$[ebp], 0
  00025	eb 09		 jmp	 SHORT $LN4@makeCharFr
$LN2@makeCharFr:
  00027	8b 45 f8	 mov	 eax, DWORD PTR _i$[ebp]
  0002a	83 c0 01	 add	 eax, 1
  0002d	89 45 f8	 mov	 DWORD PTR _i$[ebp], eax
$LN4@makeCharFr:
  00030	83 7d f8 04	 cmp	 DWORD PTR _i$[ebp], 4
  00034	73 24		 jae	 SHORT $LN3@makeCharFr

; 589  : 	{
; 590  : 		if( escapeChar[i].escapedchar == c )

  00036	8b 45 f8	 mov	 eax, DWORD PTR _i$[ebp]
  00039	0f be 0c 45 01
	00 00 00	 movsx	 ecx, BYTE PTR ?escapeChar@@3PAUtagEscapeChar@@A[eax*2+1]
  00041	0f be 55 08	 movsx	 edx, BYTE PTR _c$[ebp]
  00045	3b ca		 cmp	 ecx, edx
  00047	75 0f		 jne	 SHORT $LN5@makeCharFr

; 591  : 		{
; 592  : 			c = escapeChar[i].escapechar;

  00049	8b 45 f8	 mov	 eax, DWORD PTR _i$[ebp]
  0004c	8a 0c 45 00 00
	00 00		 mov	 cl, BYTE PTR ?escapeChar@@3PAUtagEscapeChar@@A[eax*2]
  00053	88 4d 08	 mov	 BYTE PTR _c$[ebp], cl

; 593  : 			break;

  00056	eb 02		 jmp	 SHORT $LN3@makeCharFr
$LN5@makeCharFr:

; 594  : 		}
; 595  : 	}

  00058	eb cd		 jmp	 SHORT $LN2@makeCharFr
$LN3@makeCharFr:

; 596  : 
; 597  : 	return c;

  0005a	8a 45 08	 mov	 al, BYTE PTR _c$[ebp]

; 598  : }

  0005d	5f		 pop	 edi
  0005e	5e		 pop	 esi
  0005f	5b		 pop	 ebx
  00060	8b e5		 mov	 esp, ebp
  00062	5d		 pop	 ebp
  00063	c3		 ret	 0
?makeCharFromEscaped@@YADD@Z ENDP			; makeCharFromEscaped
_TEXT	ENDS
; Function compile flags: /Odtp /RTCsu /ZI
; File c:\users\administrator\desktop\????? ??\????? ??\client source code\system\tool.cpp
;	COMDAT ?isOnlySpaceChars@@YAHPAD@Z
_TEXT	SEGMENT
_returnflag$ = -20					; size = 4
_i$ = -8						; size = 4
_data$ = 8						; size = 4
?isOnlySpaceChars@@YAHPAD@Z PROC			; isOnlySpaceChars, COMDAT

; 490  : {

  00000	55		 push	 ebp
  00001	8b ec		 mov	 ebp, esp
  00003	81 ec d8 00 00
	00		 sub	 esp, 216		; 000000d8H
  00009	53		 push	 ebx
  0000a	56		 push	 esi
  0000b	57		 push	 edi
  0000c	8d bd 28 ff ff
	ff		 lea	 edi, DWORD PTR [ebp-216]
  00012	b9 36 00 00 00	 mov	 ecx, 54			; 00000036H
  00017	b8 cc cc cc cc	 mov	 eax, -858993460		; ccccccccH
  0001c	f3 ab		 rep stosd

; 491  : 	int i = 0;

  0001e	c7 45 f8 00 00
	00 00		 mov	 DWORD PTR _i$[ebp], 0

; 492  : 	int returnflag = 0;

  00025	c7 45 ec 00 00
	00 00		 mov	 DWORD PTR _returnflag$[ebp], 0
$LN2@isOnlySpac:

; 493  : 
; 494  : 	while( data[i] != '\0' )

  0002c	8b 45 08	 mov	 eax, DWORD PTR _data$[ebp]
  0002f	03 45 f8	 add	 eax, DWORD PTR _i$[ebp]
  00032	0f be 08	 movsx	 ecx, BYTE PTR [eax]
  00035	85 c9		 test	 ecx, ecx
  00037	0f 84 81 00 00
	00		 je	 $LN3@isOnlySpac

; 495  : 	{
; 496  : 		returnflag = 0;

  0003d	c7 45 ec 00 00
	00 00		 mov	 DWORD PTR _returnflag$[ebp], 0

; 497  : 		if( (unsigned char)data[i] == ' ' )

  00044	8b 45 08	 mov	 eax, DWORD PTR _data$[ebp]
  00047	03 45 f8	 add	 eax, DWORD PTR _i$[ebp]
  0004a	0f b6 08	 movzx	 ecx, BYTE PTR [eax]
  0004d	83 f9 20	 cmp	 ecx, 32			; 00000020H
  00050	75 07		 jne	 SHORT $LN4@isOnlySpac

; 498  : 			returnflag = 1;

  00052	c7 45 ec 01 00
	00 00		 mov	 DWORD PTR _returnflag$[ebp], 1
$LN4@isOnlySpac:

; 499  : 		if( IsDBCSLeadByte( data[i] ) )

  00059	8b 45 08	 mov	 eax, DWORD PTR _data$[ebp]
  0005c	03 45 f8	 add	 eax, DWORD PTR _i$[ebp]
  0005f	8b f4		 mov	 esi, esp
  00061	0f b6 08	 movzx	 ecx, BYTE PTR [eax]
  00064	51		 push	 ecx
  00065	ff 15 00 00 00
	00		 call	 DWORD PTR __imp__IsDBCSLeadByte@4
  0006b	3b f4		 cmp	 esi, esp
  0006d	e8 00 00 00 00	 call	 __RTC_CheckEsp
  00072	85 c0		 test	 eax, eax
  00074	74 30		 je	 SHORT $LN5@isOnlySpac

; 500  : 		{
; 501  : 			if( (unsigned char)data[i] == 0x81
; 502  : 			 && (unsigned char)data[i+1] == 0x40 )

  00076	8b 45 08	 mov	 eax, DWORD PTR _data$[ebp]
  00079	03 45 f8	 add	 eax, DWORD PTR _i$[ebp]
  0007c	0f b6 08	 movzx	 ecx, BYTE PTR [eax]
  0007f	81 f9 81 00 00
	00		 cmp	 ecx, 129		; 00000081H
  00085	75 16		 jne	 SHORT $LN6@isOnlySpac
  00087	8b 45 08	 mov	 eax, DWORD PTR _data$[ebp]
  0008a	03 45 f8	 add	 eax, DWORD PTR _i$[ebp]
  0008d	0f b6 48 01	 movzx	 ecx, BYTE PTR [eax+1]
  00091	83 f9 40	 cmp	 ecx, 64			; 00000040H
  00094	75 07		 jne	 SHORT $LN6@isOnlySpac

; 503  : 			{
; 504  : 				returnflag = 1;

  00096	c7 45 ec 01 00
	00 00		 mov	 DWORD PTR _returnflag$[ebp], 1
$LN6@isOnlySpac:

; 505  : 			}
; 506  : 			i++;

  0009d	8b 45 f8	 mov	 eax, DWORD PTR _i$[ebp]
  000a0	83 c0 01	 add	 eax, 1
  000a3	89 45 f8	 mov	 DWORD PTR _i$[ebp], eax
$LN5@isOnlySpac:

; 507  : 		}
; 508  : 		if( returnflag == 0 )

  000a6	83 7d ec 00	 cmp	 DWORD PTR _returnflag$[ebp], 0
  000aa	75 04		 jne	 SHORT $LN7@isOnlySpac

; 509  : 			return 0;

  000ac	33 c0		 xor	 eax, eax
  000ae	eb 1b		 jmp	 SHORT $LN1@isOnlySpac
$LN7@isOnlySpac:

; 510  : 		i++;

  000b0	8b 45 f8	 mov	 eax, DWORD PTR _i$[ebp]
  000b3	83 c0 01	 add	 eax, 1
  000b6	89 45 f8	 mov	 DWORD PTR _i$[ebp], eax

; 511  : 	}

  000b9	e9 6e ff ff ff	 jmp	 $LN2@isOnlySpac
$LN3@isOnlySpac:

; 512  : 
; 513  : 	if( i == 0 )

  000be	83 7d f8 00	 cmp	 DWORD PTR _i$[ebp], 0
  000c2	75 04		 jne	 SHORT $LN8@isOnlySpac

; 514  : 		return 0;

  000c4	33 c0		 xor	 eax, eax
  000c6	eb 03		 jmp	 SHORT $LN1@isOnlySpac
$LN8@isOnlySpac:

; 515  : 
; 516  : 	return returnflag;

  000c8	8b 45 ec	 mov	 eax, DWORD PTR _returnflag$[ebp]
$LN1@isOnlySpac:

; 517  : }

  000cb	5f		 pop	 edi
  000cc	5e		 pop	 esi
  000cd	5b		 pop	 ebx
  000ce	81 c4 d8 00 00
	00		 add	 esp, 216		; 000000d8H
  000d4	3b ec		 cmp	 ebp, esp
  000d6	e8 00 00 00 00	 call	 __RTC_CheckEsp
  000db	8b e5		 mov	 esp, ebp
  000dd	5d		 pop	 ebp
  000de	c3		 ret	 0
?isOnlySpaceChars@@YAHPAD@Z ENDP			; isOnlySpaceChars
_TEXT	ENDS
; Function compile flags: /Odtp /RTCsu /ZI
; File c:\users\administrator\desktop\????? ??\????? ??\client source code\system\tool.cpp
;	COMDAT ?insertChar@@YAXPADDH@Z
_TEXT	SEGMENT
_i$ = -20						; size = 4
_bufferLength$ = -8					; size = 4
_buffer$ = 8						; size = 4
_character$ = 12					; size = 1
_whereToInsert$ = 16					; size = 4
?insertChar@@YAXPADDH@Z PROC				; insertChar, COMDAT

; 551  : {

  00000	55		 push	 ebp
  00001	8b ec		 mov	 ebp, esp
  00003	81 ec d8 00 00
	00		 sub	 esp, 216		; 000000d8H
  00009	53		 push	 ebx
  0000a	56		 push	 esi
  0000b	57		 push	 edi
  0000c	8d bd 28 ff ff
	ff		 lea	 edi, DWORD PTR [ebp-216]
  00012	b9 36 00 00 00	 mov	 ecx, 54			; 00000036H
  00017	b8 cc cc cc cc	 mov	 eax, -858993460		; ccccccccH
  0001c	f3 ab		 rep stosd

; 552  : 	int bufferLength, i;
; 553  : 
; 554  : 	bufferLength = strlen( buffer );

  0001e	8b 45 08	 mov	 eax, DWORD PTR _buffer$[ebp]
  00021	50		 push	 eax
  00022	e8 00 00 00 00	 call	 _strlen
  00027	83 c4 04	 add	 esp, 4
  0002a	89 45 f8	 mov	 DWORD PTR _bufferLength$[ebp], eax

; 555  : 
; 556  : 	for( i = 0; i <= bufferLength - whereToInsert; i++ )

  0002d	c7 45 ec 00 00
	00 00		 mov	 DWORD PTR _i$[ebp], 0
  00034	eb 09		 jmp	 SHORT $LN4@insertChar
$LN2@insertChar:
  00036	8b 45 ec	 mov	 eax, DWORD PTR _i$[ebp]
  00039	83 c0 01	 add	 eax, 1
  0003c	89 45 ec	 mov	 DWORD PTR _i$[ebp], eax
$LN4@insertChar:
  0003f	8b 45 f8	 mov	 eax, DWORD PTR _bufferLength$[ebp]
  00042	2b 45 10	 sub	 eax, DWORD PTR _whereToInsert$[ebp]
  00045	39 45 ec	 cmp	 DWORD PTR _i$[ebp], eax
  00048	7f 1d		 jg	 SHORT $LN3@insertChar

; 557  : 	{
; 558  : 		buffer[bufferLength+1-i] = buffer[bufferLength-i];

  0004a	8b 45 f8	 mov	 eax, DWORD PTR _bufferLength$[ebp]
  0004d	2b 45 ec	 sub	 eax, DWORD PTR _i$[ebp]
  00050	8b 4d f8	 mov	 ecx, DWORD PTR _bufferLength$[ebp]
  00053	83 c1 01	 add	 ecx, 1
  00056	2b 4d ec	 sub	 ecx, DWORD PTR _i$[ebp]
  00059	8b 55 08	 mov	 edx, DWORD PTR _buffer$[ebp]
  0005c	8b 75 08	 mov	 esi, DWORD PTR _buffer$[ebp]
  0005f	8a 04 06	 mov	 al, BYTE PTR [esi+eax]
  00062	88 04 0a	 mov	 BYTE PTR [edx+ecx], al

; 559  : 	}

  00065	eb cf		 jmp	 SHORT $LN2@insertChar
$LN3@insertChar:

; 560  : 	buffer[whereToInsert] = character;

  00067	8b 45 08	 mov	 eax, DWORD PTR _buffer$[ebp]
  0006a	03 45 10	 add	 eax, DWORD PTR _whereToInsert$[ebp]
  0006d	8a 4d 0c	 mov	 cl, BYTE PTR _character$[ebp]
  00070	88 08		 mov	 BYTE PTR [eax], cl

; 561  : }

  00072	5f		 pop	 edi
  00073	5e		 pop	 esi
  00074	5b		 pop	 ebx
  00075	81 c4 d8 00 00
	00		 add	 esp, 216		; 000000d8H
  0007b	3b ec		 cmp	 ebp, esp
  0007d	e8 00 00 00 00	 call	 __RTC_CheckEsp
  00082	8b e5		 mov	 esp, ebp
  00084	5d		 pop	 ebp
  00085	c3		 ret	 0
?insertChar@@YAXPADDH@Z ENDP				; insertChar
_TEXT	ENDS
; Function compile flags: /Odtp /RTCsu /ZI
; File c:\users\administrator\desktop\????? ??\????? ??\client source code\system\tool.cpp
;	COMDAT ?insertString@@YAXPAD0H@Z
_TEXT	SEGMENT
_i$ = -32						; size = 4
_bufferLength$ = -20					; size = 4
_stringLength$ = -8					; size = 4
_buffer$ = 8						; size = 4
_string$ = 12						; size = 4
_whereToInsert$ = 16					; size = 4
?insertString@@YAXPAD0H@Z PROC				; insertString, COMDAT

; 527  : {

  00000	55		 push	 ebp
  00001	8b ec		 mov	 ebp, esp
  00003	81 ec e4 00 00
	00		 sub	 esp, 228		; 000000e4H
  00009	53		 push	 ebx
  0000a	56		 push	 esi
  0000b	57		 push	 edi
  0000c	8d bd 1c ff ff
	ff		 lea	 edi, DWORD PTR [ebp-228]
  00012	b9 39 00 00 00	 mov	 ecx, 57			; 00000039H
  00017	b8 cc cc cc cc	 mov	 eax, -858993460		; ccccccccH
  0001c	f3 ab		 rep stosd

; 528  : 	int stringLength, bufferLength, i;
; 529  : 
; 530  : 	stringLength = strlen( string );

  0001e	8b 45 0c	 mov	 eax, DWORD PTR _string$[ebp]
  00021	50		 push	 eax
  00022	e8 00 00 00 00	 call	 _strlen
  00027	83 c4 04	 add	 esp, 4
  0002a	89 45 f8	 mov	 DWORD PTR _stringLength$[ebp], eax

; 531  : 	bufferLength = strlen( buffer );

  0002d	8b 45 08	 mov	 eax, DWORD PTR _buffer$[ebp]
  00030	50		 push	 eax
  00031	e8 00 00 00 00	 call	 _strlen
  00036	83 c4 04	 add	 esp, 4
  00039	89 45 ec	 mov	 DWORD PTR _bufferLength$[ebp], eax

; 532  : 
; 533  : 	for( i = 0; i <= bufferLength - whereToInsert; i++ )

  0003c	c7 45 e0 00 00
	00 00		 mov	 DWORD PTR _i$[ebp], 0
  00043	eb 09		 jmp	 SHORT $LN4@insertStri
$LN2@insertStri:
  00045	8b 45 e0	 mov	 eax, DWORD PTR _i$[ebp]
  00048	83 c0 01	 add	 eax, 1
  0004b	89 45 e0	 mov	 DWORD PTR _i$[ebp], eax
$LN4@insertStri:
  0004e	8b 45 ec	 mov	 eax, DWORD PTR _bufferLength$[ebp]
  00051	2b 45 10	 sub	 eax, DWORD PTR _whereToInsert$[ebp]
  00054	39 45 e0	 cmp	 DWORD PTR _i$[ebp], eax
  00057	7f 1d		 jg	 SHORT $LN3@insertStri

; 534  : 	{
; 535  : 		buffer[bufferLength+stringLength-i] = buffer[bufferLength-i];

  00059	8b 45 ec	 mov	 eax, DWORD PTR _bufferLength$[ebp]
  0005c	2b 45 e0	 sub	 eax, DWORD PTR _i$[ebp]
  0005f	8b 4d ec	 mov	 ecx, DWORD PTR _bufferLength$[ebp]
  00062	03 4d f8	 add	 ecx, DWORD PTR _stringLength$[ebp]
  00065	2b 4d e0	 sub	 ecx, DWORD PTR _i$[ebp]
  00068	8b 55 08	 mov	 edx, DWORD PTR _buffer$[ebp]
  0006b	8b 75 08	 mov	 esi, DWORD PTR _buffer$[ebp]
  0006e	8a 04 06	 mov	 al, BYTE PTR [esi+eax]
  00071	88 04 0a	 mov	 BYTE PTR [edx+ecx], al

; 536  : 	}

  00074	eb cf		 jmp	 SHORT $LN2@insertStri
$LN3@insertStri:

; 537  : 	for( i = 0; i < stringLength; i++ )

  00076	c7 45 e0 00 00
	00 00		 mov	 DWORD PTR _i$[ebp], 0
  0007d	eb 09		 jmp	 SHORT $LN7@insertStri
$LN5@insertStri:
  0007f	8b 45 e0	 mov	 eax, DWORD PTR _i$[ebp]
  00082	83 c0 01	 add	 eax, 1
  00085	89 45 e0	 mov	 DWORD PTR _i$[ebp], eax
$LN7@insertStri:
  00088	8b 45 e0	 mov	 eax, DWORD PTR _i$[ebp]
  0008b	3b 45 f8	 cmp	 eax, DWORD PTR _stringLength$[ebp]
  0008e	7d 16		 jge	 SHORT $LN1@insertStri

; 538  : 	{
; 539  : 		buffer[whereToInsert+i] = string[i];

  00090	8b 45 10	 mov	 eax, DWORD PTR _whereToInsert$[ebp]
  00093	03 45 e0	 add	 eax, DWORD PTR _i$[ebp]
  00096	8b 4d 0c	 mov	 ecx, DWORD PTR _string$[ebp]
  00099	03 4d e0	 add	 ecx, DWORD PTR _i$[ebp]
  0009c	8b 55 08	 mov	 edx, DWORD PTR _buffer$[ebp]
  0009f	8a 09		 mov	 cl, BYTE PTR [ecx]
  000a1	88 0c 02	 mov	 BYTE PTR [edx+eax], cl

; 540  : 	}

  000a4	eb d9		 jmp	 SHORT $LN5@insertStri
$LN1@insertStri:

; 541  : }

  000a6	5f		 pop	 edi
  000a7	5e		 pop	 esi
  000a8	5b		 pop	 ebx
  000a9	81 c4 e4 00 00
	00		 add	 esp, 228		; 000000e4H
  000af	3b ec		 cmp	 ebp, esp
  000b1	e8 00 00 00 00	 call	 __RTC_CheckEsp
  000b6	8b e5		 mov	 esp, ebp
  000b8	5d		 pop	 ebp
  000b9	c3		 ret	 0
?insertString@@YAXPAD0H@Z ENDP				; insertString
_TEXT	ENDS
; Function compile flags: /Odtp /RTCsu /ZI
; File c:\users\administrator\desktop\????? ??\????? ??\client source code\system\tool.cpp
;	COMDAT ?intToRect@@YA?AUtagRECT@@HHHH@Z
_TEXT	SEGMENT
_rc$ = -24						; size = 16
__$ArrayPad$ = -4					; size = 4
$T1 = 8							; size = 4
_left$ = 12						; size = 4
_top$ = 16						; size = 4
_right$ = 20						; size = 4
_bottom$ = 24						; size = 4
?intToRect@@YA?AUtagRECT@@HHHH@Z PROC			; intToRect, COMDAT

; 476  : {

  00000	55		 push	 ebp
  00001	8b ec		 mov	 ebp, esp
  00003	81 ec dc 00 00
	00		 sub	 esp, 220		; 000000dcH
  00009	53		 push	 ebx
  0000a	56		 push	 esi
  0000b	57		 push	 edi
  0000c	8d bd 24 ff ff
	ff		 lea	 edi, DWORD PTR [ebp-220]
  00012	b9 37 00 00 00	 mov	 ecx, 55			; 00000037H
  00017	b8 cc cc cc cc	 mov	 eax, -858993460		; ccccccccH
  0001c	f3 ab		 rep stosd
  0001e	a1 00 00 00 00	 mov	 eax, DWORD PTR ___security_cookie
  00023	33 c5		 xor	 eax, ebp
  00025	89 45 fc	 mov	 DWORD PTR __$ArrayPad$[ebp], eax

; 477  : 	RECT rc = { left, top, right, bottom };

  00028	8b 45 0c	 mov	 eax, DWORD PTR _left$[ebp]
  0002b	89 45 e8	 mov	 DWORD PTR _rc$[ebp], eax
  0002e	8b 45 10	 mov	 eax, DWORD PTR _top$[ebp]
  00031	89 45 ec	 mov	 DWORD PTR _rc$[ebp+4], eax
  00034	8b 45 14	 mov	 eax, DWORD PTR _right$[ebp]
  00037	89 45 f0	 mov	 DWORD PTR _rc$[ebp+8], eax
  0003a	8b 45 18	 mov	 eax, DWORD PTR _bottom$[ebp]
  0003d	89 45 f4	 mov	 DWORD PTR _rc$[ebp+12], eax

; 478  : 
; 479  : 	return rc;

  00040	8b 45 08	 mov	 eax, DWORD PTR $T1[ebp]
  00043	8b 4d e8	 mov	 ecx, DWORD PTR _rc$[ebp]
  00046	89 08		 mov	 DWORD PTR [eax], ecx
  00048	8b 55 ec	 mov	 edx, DWORD PTR _rc$[ebp+4]
  0004b	89 50 04	 mov	 DWORD PTR [eax+4], edx
  0004e	8b 4d f0	 mov	 ecx, DWORD PTR _rc$[ebp+8]
  00051	89 48 08	 mov	 DWORD PTR [eax+8], ecx
  00054	8b 55 f4	 mov	 edx, DWORD PTR _rc$[ebp+12]
  00057	89 50 0c	 mov	 DWORD PTR [eax+12], edx
  0005a	8b 45 08	 mov	 eax, DWORD PTR $T1[ebp]

; 480  : }

  0005d	52		 push	 edx
  0005e	8b cd		 mov	 ecx, ebp
  00060	50		 push	 eax
  00061	8d 15 00 00 00
	00		 lea	 edx, DWORD PTR $LN5@intToRect
  00067	e8 00 00 00 00	 call	 @_RTC_CheckStackVars@8
  0006c	58		 pop	 eax
  0006d	5a		 pop	 edx
  0006e	5f		 pop	 edi
  0006f	5e		 pop	 esi
  00070	5b		 pop	 ebx
  00071	8b 4d fc	 mov	 ecx, DWORD PTR __$ArrayPad$[ebp]
  00074	33 cd		 xor	 ecx, ebp
  00076	e8 00 00 00 00	 call	 @__security_check_cookie@4
  0007b	8b e5		 mov	 esp, ebp
  0007d	5d		 pop	 ebp
  0007e	c3		 ret	 0
  0007f	90		 npad	 1
$LN5@intToRect:
  00080	01 00 00 00	 DD	 1
  00084	00 00 00 00	 DD	 $LN4@intToRect
$LN4@intToRect:
  00088	e8 ff ff ff	 DD	 -24			; ffffffe8H
  0008c	10 00 00 00	 DD	 16			; 00000010H
  00090	00 00 00 00	 DD	 $LN3@intToRect
$LN3@intToRect:
  00094	72		 DB	 114			; 00000072H
  00095	63		 DB	 99			; 00000063H
  00096	00		 DB	 0
?intToRect@@YA?AUtagRECT@@HHHH@Z ENDP			; intToRect
_TEXT	ENDS
; Function compile flags: /Odtp /RTCsu /ZI
; File c:\users\administrator\desktop\????? ??\????? ??\client source code\system\tool.cpp
;	COMDAT ?strncmpi@@YAHPAD0H@Z
_TEXT	SEGMENT
_c2$ = -32						; size = 4
_c1$ = -20						; size = 4
_i$ = -8						; size = 4
_s1$ = 8						; size = 4
_s2$ = 12						; size = 4
_len$ = 16						; size = 4
?strncmpi@@YAHPAD0H@Z PROC				; strncmpi, COMDAT

; 453  : {

  00000	55		 push	 ebp
  00001	8b ec		 mov	 ebp, esp
  00003	81 ec e4 00 00
	00		 sub	 esp, 228		; 000000e4H
  00009	53		 push	 ebx
  0000a	56		 push	 esi
  0000b	57		 push	 edi
  0000c	8d bd 1c ff ff
	ff		 lea	 edi, DWORD PTR [ebp-228]
  00012	b9 39 00 00 00	 mov	 ecx, 57			; 00000039H
  00017	b8 cc cc cc cc	 mov	 eax, -858993460		; ccccccccH
  0001c	f3 ab		 rep stosd

; 454  : 	int i;
; 455  : 	int c1, c2;
; 456  : 
; 457  : 	for( i = 0; i < len; i++ )

  0001e	c7 45 f8 00 00
	00 00		 mov	 DWORD PTR _i$[ebp], 0
  00025	eb 09		 jmp	 SHORT $LN4@strncmpi
$LN2@strncmpi:
  00027	8b 45 f8	 mov	 eax, DWORD PTR _i$[ebp]
  0002a	83 c0 01	 add	 eax, 1
  0002d	89 45 f8	 mov	 DWORD PTR _i$[ebp], eax
$LN4@strncmpi:
  00030	8b 45 f8	 mov	 eax, DWORD PTR _i$[ebp]
  00033	3b 45 10	 cmp	 eax, DWORD PTR _len$[ebp]
  00036	7d 6d		 jge	 SHORT $LN3@strncmpi

; 458  : 	{
; 459  : 		if( s1[i] == '\0' || s2[i] == '\0' )

  00038	8b 45 08	 mov	 eax, DWORD PTR _s1$[ebp]
  0003b	03 45 f8	 add	 eax, DWORD PTR _i$[ebp]
  0003e	0f be 08	 movsx	 ecx, BYTE PTR [eax]
  00041	85 c9		 test	 ecx, ecx
  00043	74 0d		 je	 SHORT $LN6@strncmpi
  00045	8b 45 0c	 mov	 eax, DWORD PTR _s2$[ebp]
  00048	03 45 f8	 add	 eax, DWORD PTR _i$[ebp]
  0004b	0f be 08	 movsx	 ecx, BYTE PTR [eax]
  0004e	85 c9		 test	 ecx, ecx
  00050	75 04		 jne	 SHORT $LN5@strncmpi
$LN6@strncmpi:

; 460  : 			return 0;

  00052	33 c0		 xor	 eax, eax
  00054	eb 51		 jmp	 SHORT $LN1@strncmpi
$LN5@strncmpi:

; 461  : 
; 462  : 		c1 = tolower( s1[i] );

  00056	8b 45 08	 mov	 eax, DWORD PTR _s1$[ebp]
  00059	03 45 f8	 add	 eax, DWORD PTR _i$[ebp]
  0005c	0f be 08	 movsx	 ecx, BYTE PTR [eax]
  0005f	8b f4		 mov	 esi, esp
  00061	51		 push	 ecx
  00062	ff 15 00 00 00
	00		 call	 DWORD PTR __imp__tolower
  00068	83 c4 04	 add	 esp, 4
  0006b	3b f4		 cmp	 esi, esp
  0006d	e8 00 00 00 00	 call	 __RTC_CheckEsp
  00072	89 45 ec	 mov	 DWORD PTR _c1$[ebp], eax

; 463  : 		c2 = tolower( s2[i] );

  00075	8b 45 0c	 mov	 eax, DWORD PTR _s2$[ebp]
  00078	03 45 f8	 add	 eax, DWORD PTR _i$[ebp]
  0007b	0f be 08	 movsx	 ecx, BYTE PTR [eax]
  0007e	8b f4		 mov	 esi, esp
  00080	51		 push	 ecx
  00081	ff 15 00 00 00
	00		 call	 DWORD PTR __imp__tolower
  00087	83 c4 04	 add	 esp, 4
  0008a	3b f4		 cmp	 esi, esp
  0008c	e8 00 00 00 00	 call	 __RTC_CheckEsp
  00091	89 45 e0	 mov	 DWORD PTR _c2$[ebp], eax

; 464  : 
; 465  : 		if( c1 != c2 )

  00094	8b 45 ec	 mov	 eax, DWORD PTR _c1$[ebp]
  00097	3b 45 e0	 cmp	 eax, DWORD PTR _c2$[ebp]
  0009a	74 07		 je	 SHORT $LN7@strncmpi

; 466  : 			return 1;

  0009c	b8 01 00 00 00	 mov	 eax, 1
  000a1	eb 04		 jmp	 SHORT $LN1@strncmpi
$LN7@strncmpi:

; 467  : 	}

  000a3	eb 82		 jmp	 SHORT $LN2@strncmpi
$LN3@strncmpi:

; 468  : 
; 469  : 	return 0;

  000a5	33 c0		 xor	 eax, eax
$LN1@strncmpi:

; 470  : }

  000a7	5f		 pop	 edi
  000a8	5e		 pop	 esi
  000a9	5b		 pop	 ebx
  000aa	81 c4 e4 00 00
	00		 add	 esp, 228		; 000000e4H
  000b0	3b ec		 cmp	 ebp, esp
  000b2	e8 00 00 00 00	 call	 __RTC_CheckEsp
  000b7	8b e5		 mov	 esp, ebp
  000b9	5d		 pop	 ebp
  000ba	c3		 ret	 0
?strncmpi@@YAHPAD0H@Z ENDP				; strncmpi
_TEXT	ENDS
; Function compile flags: /Odtp /RTCsu /ZI
; File c:\users\administrator\desktop\????? ??\????? ??\client source code\system\tool.cpp
;	COMDAT ?jDecode@@YAXPADHH0PAH@Z
_TEXT	SEGMENT
_i$ = -20						; size = 4
_sum$ = -5						; size = 1
_src$ = 8						; size = 4
_srclen$ = 12						; size = 4
_key$ = 16						; size = 4
_decoded$ = 20						; size = 4
_decodedlen$ = 24					; size = 4
?jDecode@@YAXPADHH0PAH@Z PROC				; jDecode, COMDAT

; 755  : {

  00000	55		 push	 ebp
  00001	8b ec		 mov	 ebp, esp
  00003	81 ec d8 00 00
	00		 sub	 esp, 216		; 000000d8H
  00009	53		 push	 ebx
  0000a	56		 push	 esi
  0000b	57		 push	 edi
  0000c	8d bd 28 ff ff
	ff		 lea	 edi, DWORD PTR [ebp-216]
  00012	b9 36 00 00 00	 mov	 ecx, 54			; 00000036H
  00017	b8 cc cc cc cc	 mov	 eax, -858993460		; ccccccccH
  0001c	f3 ab		 rep stosd

; 756  : 	char sum;
; 757  : 	int i;
; 758  : 
; 759  : 	*decodedlen = srclen - 1;

  0001e	8b 45 0c	 mov	 eax, DWORD PTR _srclen$[ebp]
  00021	83 e8 01	 sub	 eax, 1
  00024	8b 4d 18	 mov	 ecx, DWORD PTR _decodedlen$[ebp]
  00027	89 01		 mov	 DWORD PTR [ecx], eax

; 760  : 	sum = src[abs( key%(*decodedlen) )];

  00029	8b 4d 18	 mov	 ecx, DWORD PTR _decodedlen$[ebp]
  0002c	8b 45 10	 mov	 eax, DWORD PTR _key$[ebp]
  0002f	99		 cdq
  00030	f7 39		 idiv	 DWORD PTR [ecx]
  00032	52		 push	 edx
  00033	e8 00 00 00 00	 call	 _abs
  00038	83 c4 04	 add	 esp, 4
  0003b	8b 55 08	 mov	 edx, DWORD PTR _src$[ebp]
  0003e	8a 04 02	 mov	 al, BYTE PTR [edx+eax]
  00041	88 45 fb	 mov	 BYTE PTR _sum$[ebp], al

; 761  : 
; 762  : 	for( i=0; i < srclen; i++ )

  00044	c7 45 ec 00 00
	00 00		 mov	 DWORD PTR _i$[ebp], 0
  0004b	eb 09		 jmp	 SHORT $LN4@jDecode
$LN2@jDecode:
  0004d	8b 45 ec	 mov	 eax, DWORD PTR _i$[ebp]
  00050	83 c0 01	 add	 eax, 1
  00053	89 45 ec	 mov	 DWORD PTR _i$[ebp], eax
$LN4@jDecode:
  00056	8b 45 ec	 mov	 eax, DWORD PTR _i$[ebp]
  00059	3b 45 0c	 cmp	 eax, DWORD PTR _srclen$[ebp]
  0005c	0f 8d 86 00 00
	00		 jge	 $LN3@jDecode

; 763  : 	{
; 764  : 		if( abs( (key%(*decodedlen)) ) > i )

  00062	8b 4d 18	 mov	 ecx, DWORD PTR _decodedlen$[ebp]
  00065	8b 45 10	 mov	 eax, DWORD PTR _key$[ebp]
  00068	99		 cdq
  00069	f7 39		 idiv	 DWORD PTR [ecx]
  0006b	52		 push	 edx
  0006c	e8 00 00 00 00	 call	 _abs
  00071	83 c4 04	 add	 esp, 4
  00074	3b 45 ec	 cmp	 eax, DWORD PTR _i$[ebp]
  00077	7e 29		 jle	 SHORT $LN8@jDecode

; 765  : 		{
; 766  : 			decoded[i] = src[i] - sum*((i*i)%3);

  00079	8b 45 08	 mov	 eax, DWORD PTR _src$[ebp]
  0007c	03 45 ec	 add	 eax, DWORD PTR _i$[ebp]
  0007f	0f be 08	 movsx	 ecx, BYTE PTR [eax]
  00082	0f be 75 fb	 movsx	 esi, BYTE PTR _sum$[ebp]
  00086	8b 45 ec	 mov	 eax, DWORD PTR _i$[ebp]
  00089	0f af 45 ec	 imul	 eax, DWORD PTR _i$[ebp]
  0008d	99		 cdq
  0008e	bf 03 00 00 00	 mov	 edi, 3
  00093	f7 ff		 idiv	 edi
  00095	0f af f2	 imul	 esi, edx
  00098	2b ce		 sub	 ecx, esi
  0009a	8b 55 14	 mov	 edx, DWORD PTR _decoded$[ebp]
  0009d	03 55 ec	 add	 edx, DWORD PTR _i$[ebp]
  000a0	88 0a		 mov	 BYTE PTR [edx], cl
$LN8@jDecode:

; 767  : 		}
; 768  : 
; 769  : 		if( abs( (key%(*decodedlen)) ) < i )

  000a2	8b 4d 18	 mov	 ecx, DWORD PTR _decodedlen$[ebp]
  000a5	8b 45 10	 mov	 eax, DWORD PTR _key$[ebp]
  000a8	99		 cdq
  000a9	f7 39		 idiv	 DWORD PTR [ecx]
  000ab	52		 push	 edx
  000ac	e8 00 00 00 00	 call	 _abs
  000b1	83 c4 04	 add	 esp, 4
  000b4	3b 45 ec	 cmp	 eax, DWORD PTR _i$[ebp]
  000b7	7d 2a		 jge	 SHORT $LN9@jDecode

; 770  : 		{
; 771  : 			decoded[i-1] = src[i] - sum*((i*i)%7);

  000b9	8b 45 08	 mov	 eax, DWORD PTR _src$[ebp]
  000bc	03 45 ec	 add	 eax, DWORD PTR _i$[ebp]
  000bf	0f be 08	 movsx	 ecx, BYTE PTR [eax]
  000c2	0f be 75 fb	 movsx	 esi, BYTE PTR _sum$[ebp]
  000c6	8b 45 ec	 mov	 eax, DWORD PTR _i$[ebp]
  000c9	0f af 45 ec	 imul	 eax, DWORD PTR _i$[ebp]
  000cd	99		 cdq
  000ce	bf 07 00 00 00	 mov	 edi, 7
  000d3	f7 ff		 idiv	 edi
  000d5	0f af f2	 imul	 esi, edx
  000d8	2b ce		 sub	 ecx, esi
  000da	8b 55 14	 mov	 edx, DWORD PTR _decoded$[ebp]
  000dd	03 55 ec	 add	 edx, DWORD PTR _i$[ebp]
  000e0	88 4a ff	 mov	 BYTE PTR [edx-1], cl
$LN9@jDecode:

; 772  : 		}
; 773  : 	}

  000e3	e9 65 ff ff ff	 jmp	 $LN2@jDecode
$LN3@jDecode:

; 774  : 	for( i = 0; i < (*decodedlen); i++ )

  000e8	c7 45 ec 00 00
	00 00		 mov	 DWORD PTR _i$[ebp], 0
  000ef	eb 09		 jmp	 SHORT $LN7@jDecode
$LN5@jDecode:
  000f1	8b 45 ec	 mov	 eax, DWORD PTR _i$[ebp]
  000f4	83 c0 01	 add	 eax, 1
  000f7	89 45 ec	 mov	 DWORD PTR _i$[ebp], eax
$LN7@jDecode:
  000fa	8b 45 18	 mov	 eax, DWORD PTR _decodedlen$[ebp]
  000fd	8b 4d ec	 mov	 ecx, DWORD PTR _i$[ebp]
  00100	3b 08		 cmp	 ecx, DWORD PTR [eax]
  00102	7d 54		 jge	 SHORT $LN1@jDecode

; 775  : 	{
; 776  : 		if( ((key%7) == (i%5)) || ((key%2) == (i%2)) )

  00104	8b 45 10	 mov	 eax, DWORD PTR _key$[ebp]
  00107	99		 cdq
  00108	b9 07 00 00 00	 mov	 ecx, 7
  0010d	f7 f9		 idiv	 ecx
  0010f	8b ca		 mov	 ecx, edx
  00111	8b 45 ec	 mov	 eax, DWORD PTR _i$[ebp]
  00114	99		 cdq
  00115	be 05 00 00 00	 mov	 esi, 5
  0011a	f7 fe		 idiv	 esi
  0011c	3b ca		 cmp	 ecx, edx
  0011e	74 23		 je	 SHORT $LN11@jDecode
  00120	8b 45 10	 mov	 eax, DWORD PTR _key$[ebp]
  00123	25 01 00 00 80	 and	 eax, -2147483647	; 80000001H
  00128	79 05		 jns	 SHORT $LN13@jDecode
  0012a	48		 dec	 eax
  0012b	83 c8 fe	 or	 eax, -2			; fffffffeH
  0012e	40		 inc	 eax
$LN13@jDecode:
  0012f	8b 4d ec	 mov	 ecx, DWORD PTR _i$[ebp]
  00132	81 e1 01 00 00
	80		 and	 ecx, -2147483647	; 80000001H
  00138	79 05		 jns	 SHORT $LN14@jDecode
  0013a	49		 dec	 ecx
  0013b	83 c9 fe	 or	 ecx, -2			; fffffffeH
  0013e	41		 inc	 ecx
$LN14@jDecode:
  0013f	3b c1		 cmp	 eax, ecx
  00141	75 13		 jne	 SHORT $LN10@jDecode
$LN11@jDecode:

; 777  : 		{
; 778  : 			decoded[i] = ~decoded[i];

  00143	8b 45 14	 mov	 eax, DWORD PTR _decoded$[ebp]
  00146	03 45 ec	 add	 eax, DWORD PTR _i$[ebp]
  00149	0f be 08	 movsx	 ecx, BYTE PTR [eax]
  0014c	f7 d1		 not	 ecx
  0014e	8b 55 14	 mov	 edx, DWORD PTR _decoded$[ebp]
  00151	03 55 ec	 add	 edx, DWORD PTR _i$[ebp]
  00154	88 0a		 mov	 BYTE PTR [edx], cl
$LN10@jDecode:

; 779  : 		}
; 780  : 	}

  00156	eb 99		 jmp	 SHORT $LN5@jDecode
$LN1@jDecode:

; 781  : }

  00158	5f		 pop	 edi
  00159	5e		 pop	 esi
  0015a	5b		 pop	 ebx
  0015b	81 c4 d8 00 00
	00		 add	 esp, 216		; 000000d8H
  00161	3b ec		 cmp	 ebp, esp
  00163	e8 00 00 00 00	 call	 __RTC_CheckEsp
  00168	8b e5		 mov	 esp, ebp
  0016a	5d		 pop	 ebp
  0016b	c3		 ret	 0
?jDecode@@YAXPADHH0PAH@Z ENDP				; jDecode
_TEXT	ENDS
; Function compile flags: /Odtp /RTCsu /ZI
; File c:\users\administrator\desktop\????? ??\????? ??\client source code\system\tool.cpp
;	COMDAT ?jEncode@@YAXPADHH0PAHH@Z
_TEXT	SEGMENT
_i$ = -20						; size = 4
_sum$ = -5						; size = 1
_src$ = 8						; size = 4
_srclen$ = 12						; size = 4
_key$ = 16						; size = 4
_encoded$ = 20						; size = 4
_encodedlen$ = 24					; size = 4
_maxencodedlen$ = 28					; size = 4
?jEncode@@YAXPADHH0PAHH@Z PROC				; jEncode, COMDAT

; 697  : {

  00000	55		 push	 ebp
  00001	8b ec		 mov	 ebp, esp
  00003	81 ec d8 00 00
	00		 sub	 esp, 216		; 000000d8H
  00009	53		 push	 ebx
  0000a	56		 push	 esi
  0000b	57		 push	 edi
  0000c	8d bd 28 ff ff
	ff		 lea	 edi, DWORD PTR [ebp-216]
  00012	b9 36 00 00 00	 mov	 ecx, 54			; 00000036H
  00017	b8 cc cc cc cc	 mov	 eax, -858993460		; ccccccccH
  0001c	f3 ab		 rep stosd

; 698  : 	char sum = 0;

  0001e	c6 45 fb 00	 mov	 BYTE PTR _sum$[ebp], 0

; 699  : 	int i;
; 700  : 
; 701  : 	if( srclen+1 > maxencodedlen )

  00022	8b 45 0c	 mov	 eax, DWORD PTR _srclen$[ebp]
  00025	83 c0 01	 add	 eax, 1
  00028	3b 45 1c	 cmp	 eax, DWORD PTR _maxencodedlen$[ebp]
  0002b	7e 36		 jle	 SHORT $LN11@jEncode

; 702  : 	{
; 703  : 		// ????????? 1 ????
; 704  : 		// ????????????????Μ????????
; 705  : 		*encodedlen = maxencodedlen;

  0002d	8b 45 18	 mov	 eax, DWORD PTR _encodedlen$[ebp]
  00030	8b 4d 1c	 mov	 ecx, DWORD PTR _maxencodedlen$[ebp]
  00033	89 08		 mov	 DWORD PTR [eax], ecx

; 706  : 		for( i = 0; i < (*encodedlen); i++ )

  00035	c7 45 ec 00 00
	00 00		 mov	 DWORD PTR _i$[ebp], 0
  0003c	eb 09		 jmp	 SHORT $LN4@jEncode
$LN2@jEncode:
  0003e	8b 45 ec	 mov	 eax, DWORD PTR _i$[ebp]
  00041	83 c0 01	 add	 eax, 1
  00044	89 45 ec	 mov	 DWORD PTR _i$[ebp], eax
$LN4@jEncode:
  00047	8b 45 18	 mov	 eax, DWORD PTR _encodedlen$[ebp]
  0004a	8b 4d ec	 mov	 ecx, DWORD PTR _i$[ebp]
  0004d	3b 08		 cmp	 ecx, DWORD PTR [eax]
  0004f	7d 12		 jge	 SHORT $LN11@jEncode

; 707  : 		{
; 708  : 			encoded[i] = src[i];

  00051	8b 45 14	 mov	 eax, DWORD PTR _encoded$[ebp]
  00054	03 45 ec	 add	 eax, DWORD PTR _i$[ebp]
  00057	8b 4d 08	 mov	 ecx, DWORD PTR _src$[ebp]
  0005a	03 4d ec	 add	 ecx, DWORD PTR _i$[ebp]
  0005d	8a 11		 mov	 dl, BYTE PTR [ecx]
  0005f	88 10		 mov	 BYTE PTR [eax], dl

; 709  : 		}

  00061	eb db		 jmp	 SHORT $LN2@jEncode
$LN11@jEncode:

; 710  : 	}
; 711  : 
; 712  : 	if( srclen+1 <= maxencodedlen )

  00063	8b 45 0c	 mov	 eax, DWORD PTR _srclen$[ebp]
  00066	83 c0 01	 add	 eax, 1
  00069	3b 45 1c	 cmp	 eax, DWORD PTR _maxencodedlen$[ebp]
  0006c	0f 8f 51 01 00
	00		 jg	 $LN1@jEncode

; 713  : 	{
; 714  : 		// ??????????
; 715  : 		*encodedlen = srclen + 1;

  00072	8b 45 0c	 mov	 eax, DWORD PTR _srclen$[ebp]
  00075	83 c0 01	 add	 eax, 1
  00078	8b 4d 18	 mov	 ecx, DWORD PTR _encodedlen$[ebp]
  0007b	89 01		 mov	 DWORD PTR [ecx], eax

; 716  : 		for( i = 0; i < srclen; i++ )

  0007d	c7 45 ec 00 00
	00 00		 mov	 DWORD PTR _i$[ebp], 0
  00084	eb 09		 jmp	 SHORT $LN7@jEncode
$LN5@jEncode:
  00086	8b 45 ec	 mov	 eax, DWORD PTR _i$[ebp]
  00089	83 c0 01	 add	 eax, 1
  0008c	89 45 ec	 mov	 DWORD PTR _i$[ebp], eax
$LN7@jEncode:
  0008f	8b 45 ec	 mov	 eax, DWORD PTR _i$[ebp]
  00092	3b 45 0c	 cmp	 eax, DWORD PTR _srclen$[ebp]
  00095	7d 66		 jge	 SHORT $LN6@jEncode

; 717  : 		{
; 718  : 			sum = sum + src[i];

  00097	0f be 45 fb	 movsx	 eax, BYTE PTR _sum$[ebp]
  0009b	8b 4d 08	 mov	 ecx, DWORD PTR _src$[ebp]
  0009e	03 4d ec	 add	 ecx, DWORD PTR _i$[ebp]
  000a1	0f be 11	 movsx	 edx, BYTE PTR [ecx]
  000a4	03 c2		 add	 eax, edx
  000a6	88 45 fb	 mov	 BYTE PTR _sum$[ebp], al

; 719  : 			// ！卡??7?????2????????????劫
; 720  : 			if( ((key%7) == (i%5)) || ((key%2) == (i%2)) )

  000a9	8b 45 10	 mov	 eax, DWORD PTR _key$[ebp]
  000ac	99		 cdq
  000ad	b9 07 00 00 00	 mov	 ecx, 7
  000b2	f7 f9		 idiv	 ecx
  000b4	8b ca		 mov	 ecx, edx
  000b6	8b 45 ec	 mov	 eax, DWORD PTR _i$[ebp]
  000b9	99		 cdq
  000ba	be 05 00 00 00	 mov	 esi, 5
  000bf	f7 fe		 idiv	 esi
  000c1	3b ca		 cmp	 ecx, edx
  000c3	74 23		 je	 SHORT $LN14@jEncode
  000c5	8b 45 10	 mov	 eax, DWORD PTR _key$[ebp]
  000c8	25 01 00 00 80	 and	 eax, -2147483647	; 80000001H
  000cd	79 05		 jns	 SHORT $LN21@jEncode
  000cf	48		 dec	 eax
  000d0	83 c8 fe	 or	 eax, -2			; fffffffeH
  000d3	40		 inc	 eax
$LN21@jEncode:
  000d4	8b 4d ec	 mov	 ecx, DWORD PTR _i$[ebp]
  000d7	81 e1 01 00 00
	80		 and	 ecx, -2147483647	; 80000001H
  000dd	79 05		 jns	 SHORT $LN22@jEncode
  000df	49		 dec	 ecx
  000e0	83 c9 fe	 or	 ecx, -2			; fffffffeH
  000e3	41		 inc	 ecx
$LN22@jEncode:
  000e4	3b c1		 cmp	 eax, ecx
  000e6	75 13		 jne	 SHORT $LN13@jEncode
$LN14@jEncode:

; 721  : 			{
; 722  : 				src[i] = ~src[i];

  000e8	8b 45 08	 mov	 eax, DWORD PTR _src$[ebp]
  000eb	03 45 ec	 add	 eax, DWORD PTR _i$[ebp]
  000ee	0f be 08	 movsx	 ecx, BYTE PTR [eax]
  000f1	f7 d1		 not	 ecx
  000f3	8b 55 08	 mov	 edx, DWORD PTR _src$[ebp]
  000f6	03 55 ec	 add	 edx, DWORD PTR _i$[ebp]
  000f9	88 0a		 mov	 BYTE PTR [edx], cl
$LN13@jEncode:

; 723  : 			}
; 724  : 		}

  000fb	eb 89		 jmp	 SHORT $LN5@jEncode
$LN6@jEncode:

; 725  : 		for( i = 0; i < (*encodedlen); i++ )

  000fd	c7 45 ec 00 00
	00 00		 mov	 DWORD PTR _i$[ebp], 0
  00104	eb 09		 jmp	 SHORT $LN10@jEncode
$LN8@jEncode:
  00106	8b 45 ec	 mov	 eax, DWORD PTR _i$[ebp]
  00109	83 c0 01	 add	 eax, 1
  0010c	89 45 ec	 mov	 DWORD PTR _i$[ebp], eax
$LN10@jEncode:
  0010f	8b 45 18	 mov	 eax, DWORD PTR _encodedlen$[ebp]
  00112	8b 4d ec	 mov	 ecx, DWORD PTR _i$[ebp]
  00115	3b 08		 cmp	 ecx, DWORD PTR [eax]
  00117	0f 8d a6 00 00
	00		 jge	 $LN1@jEncode

; 726  : 		{
; 727  : 			if( abs( (key%srclen) ) > i )

  0011d	8b 45 10	 mov	 eax, DWORD PTR _key$[ebp]
  00120	99		 cdq
  00121	f7 7d 0c	 idiv	 DWORD PTR _srclen$[ebp]
  00124	52		 push	 edx
  00125	e8 00 00 00 00	 call	 _abs
  0012a	83 c4 04	 add	 esp, 4
  0012d	3b 45 ec	 cmp	 eax, DWORD PTR _i$[ebp]
  00130	7e 2b		 jle	 SHORT $LN15@jEncode

; 728  : 			{
; 729  : 				encoded[i] = src[i] + sum*((i*i)%3);	// ?????????

  00132	8b 45 08	 mov	 eax, DWORD PTR _src$[ebp]
  00135	03 45 ec	 add	 eax, DWORD PTR _i$[ebp]
  00138	0f be 08	 movsx	 ecx, BYTE PTR [eax]
  0013b	0f be 75 fb	 movsx	 esi, BYTE PTR _sum$[ebp]
  0013f	8b 45 ec	 mov	 eax, DWORD PTR _i$[ebp]
  00142	0f af 45 ec	 imul	 eax, DWORD PTR _i$[ebp]
  00146	99		 cdq
  00147	bf 03 00 00 00	 mov	 edi, 3
  0014c	f7 ff		 idiv	 edi
  0014e	0f af f2	 imul	 esi, edx
  00151	03 ce		 add	 ecx, esi
  00153	8b 55 14	 mov	 edx, DWORD PTR _encoded$[ebp]
  00156	03 55 ec	 add	 edx, DWORD PTR _i$[ebp]
  00159	88 0a		 mov	 BYTE PTR [edx], cl

; 730  : 			}
; 731  : 			else

  0015b	eb 61		 jmp	 SHORT $LN16@jEncode
$LN15@jEncode:

; 732  : 			// key%srclen??ㄅ?「??????????ㄅ?
; 733  : 			if( abs( (key%srclen) ) == i )

  0015d	8b 45 10	 mov	 eax, DWORD PTR _key$[ebp]
  00160	99		 cdq
  00161	f7 7d 0c	 idiv	 DWORD PTR _srclen$[ebp]
  00164	52		 push	 edx
  00165	e8 00 00 00 00	 call	 _abs
  0016a	83 c4 04	 add	 esp, 4
  0016d	3b 45 ec	 cmp	 eax, DWORD PTR _i$[ebp]
  00170	75 0d		 jne	 SHORT $LN17@jEncode

; 734  : 			{
; 735  : 				encoded[i] = sum;

  00172	8b 45 14	 mov	 eax, DWORD PTR _encoded$[ebp]
  00175	03 45 ec	 add	 eax, DWORD PTR _i$[ebp]
  00178	8a 4d fb	 mov	 cl, BYTE PTR _sum$[ebp]
  0017b	88 08		 mov	 BYTE PTR [eax], cl

; 736  : 			}
; 737  : 			else

  0017d	eb 3f		 jmp	 SHORT $LN16@jEncode
$LN17@jEncode:

; 738  : 			if( abs( (key%srclen) ) < i )

  0017f	8b 45 10	 mov	 eax, DWORD PTR _key$[ebp]
  00182	99		 cdq
  00183	f7 7d 0c	 idiv	 DWORD PTR _srclen$[ebp]
  00186	52		 push	 edx
  00187	e8 00 00 00 00	 call	 _abs
  0018c	83 c4 04	 add	 esp, 4
  0018f	3b 45 ec	 cmp	 eax, DWORD PTR _i$[ebp]
  00192	7d 2a		 jge	 SHORT $LN16@jEncode

; 739  : 			{
; 740  : 				encoded[i] = src[i-1] + sum*((i*i)%7);	// ?????????

  00194	8b 45 08	 mov	 eax, DWORD PTR _src$[ebp]
  00197	03 45 ec	 add	 eax, DWORD PTR _i$[ebp]
  0019a	0f be 48 ff	 movsx	 ecx, BYTE PTR [eax-1]
  0019e	0f be 75 fb	 movsx	 esi, BYTE PTR _sum$[ebp]
  001a2	8b 45 ec	 mov	 eax, DWORD PTR _i$[ebp]
  001a5	0f af 45 ec	 imul	 eax, DWORD PTR _i$[ebp]
  001a9	99		 cdq
  001aa	bf 07 00 00 00	 mov	 edi, 7
  001af	f7 ff		 idiv	 edi
  001b1	0f af f2	 imul	 esi, edx
  001b4	03 ce		 add	 ecx, esi
  001b6	8b 55 14	 mov	 edx, DWORD PTR _encoded$[ebp]
  001b9	03 55 ec	 add	 edx, DWORD PTR _i$[ebp]
  001bc	88 0a		 mov	 BYTE PTR [edx], cl
$LN16@jEncode:

; 741  : 			}
; 742  : 		}

  001be	e9 43 ff ff ff	 jmp	 $LN8@jEncode
$LN1@jEncode:

; 743  : 	}
; 744  : }

  001c3	5f		 pop	 edi
  001c4	5e		 pop	 esi
  001c5	5b		 pop	 ebx
  001c6	81 c4 d8 00 00
	00		 add	 esp, 216		; 000000d8H
  001cc	3b ec		 cmp	 ebp, esp
  001ce	e8 00 00 00 00	 call	 __RTC_CheckEsp
  001d3	8b e5		 mov	 esp, ebp
  001d5	5d		 pop	 ebp
  001d6	c3		 ret	 0
?jEncode@@YAXPADHH0PAHH@Z ENDP				; jEncode
_TEXT	ENDS
; Function compile flags: /Odtp /RTCsu /ZI
; File c:\users\administrator\desktop\????? ??\????? ??\client source code\system\tool.cpp
;	COMDAT ?getInteger62Token@@YAHPADDH@Z
_TEXT	SEGMENT
_s$ = -136						; size = 128
__$ArrayPad$ = -4					; size = 4
_src$ = 8						; size = 4
_delim$ = 12						; size = 1
_count$ = 16						; size = 4
?getInteger62Token@@YAHPADDH@Z PROC			; getInteger62Token, COMDAT

; 432  : {

  00000	55		 push	 ebp
  00001	8b ec		 mov	 ebp, esp
  00003	81 ec 4c 01 00
	00		 sub	 esp, 332		; 0000014cH
  00009	53		 push	 ebx
  0000a	56		 push	 esi
  0000b	57		 push	 edi
  0000c	8d bd b4 fe ff
	ff		 lea	 edi, DWORD PTR [ebp-332]
  00012	b9 53 00 00 00	 mov	 ecx, 83			; 00000053H
  00017	b8 cc cc cc cc	 mov	 eax, -858993460		; ccccccccH
  0001c	f3 ab		 rep stosd
  0001e	a1 00 00 00 00	 mov	 eax, DWORD PTR ___security_cookie
  00023	33 c5		 xor	 eax, ebp
  00025	89 45 fc	 mov	 DWORD PTR __$ArrayPad$[ebp], eax

; 433  : 	char  s[128];
; 434  : 
; 435  : 	getStringToken( src, delim, count, sizeof( s )-1, s );

  00028	8d 85 78 ff ff
	ff		 lea	 eax, DWORD PTR _s$[ebp]
  0002e	50		 push	 eax
  0002f	6a 7f		 push	 127			; 0000007fH
  00031	8b 4d 10	 mov	 ecx, DWORD PTR _count$[ebp]
  00034	51		 push	 ecx
  00035	0f b6 55 0c	 movzx	 edx, BYTE PTR _delim$[ebp]
  00039	52		 push	 edx
  0003a	8b 45 08	 mov	 eax, DWORD PTR _src$[ebp]
  0003d	50		 push	 eax
  0003e	e8 00 00 00 00	 call	 ?getStringToken@@YAHPADDHH0@Z ; getStringToken
  00043	83 c4 14	 add	 esp, 20			; 00000014H

; 436  : 	if( s[0] == '\0' )

  00046	b8 01 00 00 00	 mov	 eax, 1
  0004b	6b c8 00	 imul	 ecx, eax, 0
  0004e	0f be 94 0d 78
	ff ff ff	 movsx	 edx, BYTE PTR _s$[ebp+ecx]
  00056	85 d2		 test	 edx, edx
  00058	75 05		 jne	 SHORT $LN2@getInteger

; 437  : 		return -1;

  0005a	83 c8 ff	 or	 eax, -1
  0005d	eb 0f		 jmp	 SHORT $LN1@getInteger
$LN2@getInteger:

; 438  : 
; 439  :     return a62toi( s );

  0005f	8d 85 78 ff ff
	ff		 lea	 eax, DWORD PTR _s$[ebp]
  00065	50		 push	 eax
  00066	e8 00 00 00 00	 call	 ?a62toi@@YAHPAD@Z	; a62toi
  0006b	83 c4 04	 add	 esp, 4
$LN1@getInteger:

; 440  : }

  0006e	52		 push	 edx
  0006f	8b cd		 mov	 ecx, ebp
  00071	50		 push	 eax
  00072	8d 15 00 00 00
	00		 lea	 edx, DWORD PTR $LN6@getInteger
  00078	e8 00 00 00 00	 call	 @_RTC_CheckStackVars@8
  0007d	58		 pop	 eax
  0007e	5a		 pop	 edx
  0007f	5f		 pop	 edi
  00080	5e		 pop	 esi
  00081	5b		 pop	 ebx
  00082	8b 4d fc	 mov	 ecx, DWORD PTR __$ArrayPad$[ebp]
  00085	33 cd		 xor	 ecx, ebp
  00087	e8 00 00 00 00	 call	 @__security_check_cookie@4
  0008c	81 c4 4c 01 00
	00		 add	 esp, 332		; 0000014cH
  00092	3b ec		 cmp	 ebp, esp
  00094	e8 00 00 00 00	 call	 __RTC_CheckEsp
  00099	8b e5		 mov	 esp, ebp
  0009b	5d		 pop	 ebp
  0009c	c3		 ret	 0
  0009d	0f 1f 00	 npad	 3
$LN6@getInteger:
  000a0	01 00 00 00	 DD	 1
  000a4	00 00 00 00	 DD	 $LN5@getInteger
$LN5@getInteger:
  000a8	78 ff ff ff	 DD	 -136			; ffffff78H
  000ac	80 00 00 00	 DD	 128			; 00000080H
  000b0	00 00 00 00	 DD	 $LN4@getInteger
$LN4@getInteger:
  000b4	73		 DB	 115			; 00000073H
  000b5	00		 DB	 0
?getInteger62Token@@YAHPADDH@Z ENDP			; getInteger62Token
_TEXT	ENDS
; Function compile flags: /Odtp /RTCsu /ZI
; File c:\users\administrator\desktop\????? ??\????? ??\client source code\system\tool.cpp
;	COMDAT ?a62toi@@YAHPAD@Z
_TEXT	SEGMENT
_fugo$ = -20						; size = 4
_ret$ = -8						; size = 4
_a$ = 8							; size = 4
?a62toi@@YAHPAD@Z PROC					; a62toi, COMDAT

; 395  : {

  00000	55		 push	 ebp
  00001	8b ec		 mov	 ebp, esp
  00003	81 ec d8 00 00
	00		 sub	 esp, 216		; 000000d8H
  00009	53		 push	 ebx
  0000a	56		 push	 esi
  0000b	57		 push	 edi
  0000c	8d bd 28 ff ff
	ff		 lea	 edi, DWORD PTR [ebp-216]
  00012	b9 36 00 00 00	 mov	 ecx, 54			; 00000036H
  00017	b8 cc cc cc cc	 mov	 eax, -858993460		; ccccccccH
  0001c	f3 ab		 rep stosd

; 396  : 	int ret = 0;

  0001e	c7 45 f8 00 00
	00 00		 mov	 DWORD PTR _ret$[ebp], 0

; 397  : 	int fugo = 1;

  00025	c7 45 ec 01 00
	00 00		 mov	 DWORD PTR _fugo$[ebp], 1
$LN2@a62toi:

; 398  : 
; 399  : 	while( *a != NULL )

  0002c	8b 45 08	 mov	 eax, DWORD PTR _a$[ebp]
  0002f	0f be 08	 movsx	 ecx, BYTE PTR [eax]
  00032	85 c9		 test	 ecx, ecx
  00034	0f 84 a5 00 00
	00		 je	 $LN3@a62toi

; 400  : 	{
; 401  : 		ret *= 62;

  0003a	6b 45 f8 3e	 imul	 eax, DWORD PTR _ret$[ebp], 62
  0003e	89 45 f8	 mov	 DWORD PTR _ret$[ebp], eax

; 402  : 		if( '0' <= (*a) && (*a) <= '9' )

  00041	8b 45 08	 mov	 eax, DWORD PTR _a$[ebp]
  00044	0f be 08	 movsx	 ecx, BYTE PTR [eax]
  00047	83 f9 30	 cmp	 ecx, 48			; 00000030H
  0004a	7c 1d		 jl	 SHORT $LN4@a62toi
  0004c	8b 45 08	 mov	 eax, DWORD PTR _a$[ebp]
  0004f	0f be 08	 movsx	 ecx, BYTE PTR [eax]
  00052	83 f9 39	 cmp	 ecx, 57			; 00000039H
  00055	7f 12		 jg	 SHORT $LN4@a62toi

; 403  : 			ret += (*a)-'0';

  00057	8b 45 08	 mov	 eax, DWORD PTR _a$[ebp]
  0005a	0f be 08	 movsx	 ecx, BYTE PTR [eax]
  0005d	8b 55 f8	 mov	 edx, DWORD PTR _ret$[ebp]
  00060	8d 44 0a d0	 lea	 eax, DWORD PTR [edx+ecx-48]
  00064	89 45 f8	 mov	 DWORD PTR _ret$[ebp], eax

; 404  : 		else

  00067	eb 68		 jmp	 SHORT $LN5@a62toi
$LN4@a62toi:

; 405  : 		if( 'a' <= (*a) && (*a) <= 'z' )

  00069	8b 45 08	 mov	 eax, DWORD PTR _a$[ebp]
  0006c	0f be 08	 movsx	 ecx, BYTE PTR [eax]
  0006f	83 f9 61	 cmp	 ecx, 97			; 00000061H
  00072	7c 1d		 jl	 SHORT $LN6@a62toi
  00074	8b 45 08	 mov	 eax, DWORD PTR _a$[ebp]
  00077	0f be 08	 movsx	 ecx, BYTE PTR [eax]
  0007a	83 f9 7a	 cmp	 ecx, 122		; 0000007aH
  0007d	7f 12		 jg	 SHORT $LN6@a62toi

; 406  : 			ret += (*a)-'a'+10;

  0007f	8b 45 08	 mov	 eax, DWORD PTR _a$[ebp]
  00082	0f be 08	 movsx	 ecx, BYTE PTR [eax]
  00085	8b 55 f8	 mov	 edx, DWORD PTR _ret$[ebp]
  00088	8d 44 0a a9	 lea	 eax, DWORD PTR [edx+ecx-87]
  0008c	89 45 f8	 mov	 DWORD PTR _ret$[ebp], eax

; 407  : 		else

  0008f	eb 40		 jmp	 SHORT $LN5@a62toi
$LN6@a62toi:

; 408  : 		if( 'A' <= (*a) && (*a) <= 'Z' )

  00091	8b 45 08	 mov	 eax, DWORD PTR _a$[ebp]
  00094	0f be 08	 movsx	 ecx, BYTE PTR [eax]
  00097	83 f9 41	 cmp	 ecx, 65			; 00000041H
  0009a	7c 1d		 jl	 SHORT $LN8@a62toi
  0009c	8b 45 08	 mov	 eax, DWORD PTR _a$[ebp]
  0009f	0f be 08	 movsx	 ecx, BYTE PTR [eax]
  000a2	83 f9 5a	 cmp	 ecx, 90			; 0000005aH
  000a5	7f 12		 jg	 SHORT $LN8@a62toi

; 409  : 			ret += (*a)-'A'+36;

  000a7	8b 45 08	 mov	 eax, DWORD PTR _a$[ebp]
  000aa	0f be 08	 movsx	 ecx, BYTE PTR [eax]
  000ad	8b 55 f8	 mov	 edx, DWORD PTR _ret$[ebp]
  000b0	8d 44 0a e3	 lea	 eax, DWORD PTR [edx+ecx-29]
  000b4	89 45 f8	 mov	 DWORD PTR _ret$[ebp], eax

; 410  : 		else

  000b7	eb 18		 jmp	 SHORT $LN5@a62toi
$LN8@a62toi:

; 411  : 		if( *a == '-' )

  000b9	8b 45 08	 mov	 eax, DWORD PTR _a$[ebp]
  000bc	0f be 08	 movsx	 ecx, BYTE PTR [eax]
  000bf	83 f9 2d	 cmp	 ecx, 45			; 0000002dH
  000c2	75 09		 jne	 SHORT $LN10@a62toi

; 412  : 			fugo = -1;

  000c4	c7 45 ec ff ff
	ff ff		 mov	 DWORD PTR _fugo$[ebp], -1

; 413  : 		else

  000cb	eb 04		 jmp	 SHORT $LN5@a62toi
$LN10@a62toi:

; 414  : 			return 0;

  000cd	33 c0		 xor	 eax, eax
  000cf	eb 15		 jmp	 SHORT $LN1@a62toi
$LN5@a62toi:

; 415  : 		a++;

  000d1	8b 45 08	 mov	 eax, DWORD PTR _a$[ebp]
  000d4	83 c0 01	 add	 eax, 1
  000d7	89 45 08	 mov	 DWORD PTR _a$[ebp], eax

; 416  : 	}

  000da	e9 4d ff ff ff	 jmp	 $LN2@a62toi
$LN3@a62toi:

; 417  : 	return ret*fugo;

  000df	8b 45 f8	 mov	 eax, DWORD PTR _ret$[ebp]
  000e2	0f af 45 ec	 imul	 eax, DWORD PTR _fugo$[ebp]
$LN1@a62toi:

; 418  : }

  000e6	5f		 pop	 edi
  000e7	5e		 pop	 esi
  000e8	5b		 pop	 ebx
  000e9	8b e5		 mov	 esp, ebp
  000eb	5d		 pop	 ebp
  000ec	c3		 ret	 0
?a62toi@@YAHPAD@Z ENDP					; a62toi
_TEXT	ENDS
; Function compile flags: /Odtp /RTCsu /ZI
; File c:\users\administrator\desktop\????? ??\????? ??\client source code\system\tool.cpp
;	COMDAT ?shiftIntArray@@YAXPAHHH@Z
_TEXT	SEGMENT
_i$ = -8						; size = 4
_a$ = 8							; size = 4
_siz$ = 12						; size = 4
_count$ = 16						; size = 4
?shiftIntArray@@YAXPAHHH@Z PROC				; shiftIntArray, COMDAT

; 378  : {

  00000	55		 push	 ebp
  00001	8b ec		 mov	 ebp, esp
  00003	81 ec cc 00 00
	00		 sub	 esp, 204		; 000000ccH
  00009	53		 push	 ebx
  0000a	56		 push	 esi
  0000b	57		 push	 edi
  0000c	8d bd 34 ff ff
	ff		 lea	 edi, DWORD PTR [ebp-204]
  00012	b9 33 00 00 00	 mov	 ecx, 51			; 00000033H
  00017	b8 cc cc cc cc	 mov	 eax, -858993460		; ccccccccH
  0001c	f3 ab		 rep stosd

; 379  : 	int i;
; 380  : 
; 381  : 	for( i = 0; i < siz - count; i++ )

  0001e	c7 45 f8 00 00
	00 00		 mov	 DWORD PTR _i$[ebp], 0
  00025	eb 09		 jmp	 SHORT $LN4@shiftIntAr
$LN2@shiftIntAr:
  00027	8b 45 f8	 mov	 eax, DWORD PTR _i$[ebp]
  0002a	83 c0 01	 add	 eax, 1
  0002d	89 45 f8	 mov	 DWORD PTR _i$[ebp], eax
$LN4@shiftIntAr:
  00030	8b 45 0c	 mov	 eax, DWORD PTR _siz$[ebp]
  00033	2b 45 10	 sub	 eax, DWORD PTR _count$[ebp]
  00036	39 45 f8	 cmp	 DWORD PTR _i$[ebp], eax
  00039	7d 17		 jge	 SHORT $LN3@shiftIntAr

; 382  : 	{
; 383  : 		a[i] = a[i+count];

  0003b	8b 45 f8	 mov	 eax, DWORD PTR _i$[ebp]
  0003e	03 45 10	 add	 eax, DWORD PTR _count$[ebp]
  00041	8b 4d f8	 mov	 ecx, DWORD PTR _i$[ebp]
  00044	8b 55 08	 mov	 edx, DWORD PTR _a$[ebp]
  00047	8b 75 08	 mov	 esi, DWORD PTR _a$[ebp]
  0004a	8b 04 86	 mov	 eax, DWORD PTR [esi+eax*4]
  0004d	89 04 8a	 mov	 DWORD PTR [edx+ecx*4], eax

; 384  : 	}

  00050	eb d5		 jmp	 SHORT $LN2@shiftIntAr
$LN3@shiftIntAr:

; 385  : 	for( i = siz - count; i <siz; i++ )

  00052	8b 45 0c	 mov	 eax, DWORD PTR _siz$[ebp]
  00055	2b 45 10	 sub	 eax, DWORD PTR _count$[ebp]
  00058	89 45 f8	 mov	 DWORD PTR _i$[ebp], eax
  0005b	eb 09		 jmp	 SHORT $LN7@shiftIntAr
$LN5@shiftIntAr:
  0005d	8b 45 f8	 mov	 eax, DWORD PTR _i$[ebp]
  00060	83 c0 01	 add	 eax, 1
  00063	89 45 f8	 mov	 DWORD PTR _i$[ebp], eax
$LN7@shiftIntAr:
  00066	8b 45 f8	 mov	 eax, DWORD PTR _i$[ebp]
  00069	3b 45 0c	 cmp	 eax, DWORD PTR _siz$[ebp]
  0006c	7d 0f		 jge	 SHORT $LN1@shiftIntAr

; 386  : 	{
; 387  : 		a[i] = 0;

  0006e	8b 45 f8	 mov	 eax, DWORD PTR _i$[ebp]
  00071	8b 4d 08	 mov	 ecx, DWORD PTR _a$[ebp]
  00074	c7 04 81 00 00
	00 00		 mov	 DWORD PTR [ecx+eax*4], 0

; 388  : 	}

  0007b	eb e0		 jmp	 SHORT $LN5@shiftIntAr
$LN1@shiftIntAr:

; 389  : }

  0007d	5f		 pop	 edi
  0007e	5e		 pop	 esi
  0007f	5b		 pop	 ebx
  00080	8b e5		 mov	 esp, ebp
  00082	5d		 pop	 ebp
  00083	c3		 ret	 0
?shiftIntArray@@YAXPAHHH@Z ENDP				; shiftIntArray
_TEXT	ENDS
; Function compile flags: /Odtp /RTCsu /ZI
; File c:\users\administrator\desktop\????? ??\????? ??\client source code\system\tool.cpp
;	COMDAT ?chop@@YAXPAD@Z
_TEXT	SEGMENT
_i$ = -8						; size = 4
_src$ = 8						; size = 4
?chop@@YAXPAD@Z PROC					; chop, COMDAT

; 353  : {

  00000	55		 push	 ebp
  00001	8b ec		 mov	 ebp, esp
  00003	81 ec cc 00 00
	00		 sub	 esp, 204		; 000000ccH
  00009	53		 push	 ebx
  0000a	56		 push	 esi
  0000b	57		 push	 edi
  0000c	8d bd 34 ff ff
	ff		 lea	 edi, DWORD PTR [ebp-204]
  00012	b9 33 00 00 00	 mov	 ecx, 51			; 00000033H
  00017	b8 cc cc cc cc	 mov	 eax, -858993460		; ccccccccH
  0001c	f3 ab		 rep stosd

; 354  : 	int i;
; 355  : 
; 356  : 	for( i = 0; ; i++ )

  0001e	c7 45 f8 00 00
	00 00		 mov	 DWORD PTR _i$[ebp], 0
  00025	eb 09		 jmp	 SHORT $LN4@chop
$LN2@chop:
  00027	8b 45 f8	 mov	 eax, DWORD PTR _i$[ebp]
  0002a	83 c0 01	 add	 eax, 1
  0002d	89 45 f8	 mov	 DWORD PTR _i$[ebp], eax
$LN4@chop:

; 357  : 	{
; 358  : 		if( src[i] == 0 )

  00030	8b 45 08	 mov	 eax, DWORD PTR _src$[ebp]
  00033	03 45 f8	 add	 eax, DWORD PTR _i$[ebp]
  00036	0f be 08	 movsx	 ecx, BYTE PTR [eax]
  00039	85 c9		 test	 ecx, ecx
  0003b	75 02		 jne	 SHORT $LN5@chop

; 359  : 			break;

  0003d	eb 29		 jmp	 SHORT $LN1@chop
$LN5@chop:

; 360  : 		if( src[i] == '\n' && src[i+1] == '\0' )

  0003f	8b 45 08	 mov	 eax, DWORD PTR _src$[ebp]
  00042	03 45 f8	 add	 eax, DWORD PTR _i$[ebp]
  00045	0f be 08	 movsx	 ecx, BYTE PTR [eax]
  00048	83 f9 0a	 cmp	 ecx, 10			; 0000000aH
  0004b	75 19		 jne	 SHORT $LN6@chop
  0004d	8b 45 08	 mov	 eax, DWORD PTR _src$[ebp]
  00050	03 45 f8	 add	 eax, DWORD PTR _i$[ebp]
  00053	0f be 48 01	 movsx	 ecx, BYTE PTR [eax+1]
  00057	85 c9		 test	 ecx, ecx
  00059	75 0b		 jne	 SHORT $LN6@chop

; 361  : 		{
; 362  : 			src[i] = '\0';

  0005b	8b 45 08	 mov	 eax, DWORD PTR _src$[ebp]
  0005e	03 45 f8	 add	 eax, DWORD PTR _i$[ebp]
  00061	c6 00 00	 mov	 BYTE PTR [eax], 0

; 363  : 			break;

  00064	eb 02		 jmp	 SHORT $LN1@chop
$LN6@chop:

; 364  : 		}
; 365  : 	}

  00066	eb bf		 jmp	 SHORT $LN2@chop
$LN1@chop:

; 366  : }

  00068	5f		 pop	 edi
  00069	5e		 pop	 esi
  0006a	5b		 pop	 ebx
  0006b	8b e5		 mov	 esp, ebp
  0006d	5d		 pop	 ebp
  0006e	c3		 ret	 0
?chop@@YAXPAD@Z ENDP					; chop
_TEXT	ENDS
; Function compile flags: /Odtp /RTCsu /ZI
; File c:\users\administrator\desktop\????? ??\????? ??\client source code\system\tool.cpp
;	COMDAT ?getDoubleToken@@YANPADDH@Z
_TEXT	SEGMENT
_s$ = -136						; size = 128
__$ArrayPad$ = -4					; size = 4
_src$ = 8						; size = 4
_delim$ = 12						; size = 1
_count$ = 16						; size = 4
?getDoubleToken@@YANPADDH@Z PROC			; getDoubleToken, COMDAT

; 337  : {

  00000	55		 push	 ebp
  00001	8b ec		 mov	 ebp, esp
  00003	81 ec 4c 01 00
	00		 sub	 esp, 332		; 0000014cH
  00009	53		 push	 ebx
  0000a	56		 push	 esi
  0000b	57		 push	 edi
  0000c	8d bd b4 fe ff
	ff		 lea	 edi, DWORD PTR [ebp-332]
  00012	b9 53 00 00 00	 mov	 ecx, 83			; 00000053H
  00017	b8 cc cc cc cc	 mov	 eax, -858993460		; ccccccccH
  0001c	f3 ab		 rep stosd
  0001e	a1 00 00 00 00	 mov	 eax, DWORD PTR ___security_cookie
  00023	33 c5		 xor	 eax, ebp
  00025	89 45 fc	 mov	 DWORD PTR __$ArrayPad$[ebp], eax

; 338  : 	char s[128];
; 339  : 
; 340  : 	getStringToken( src, delim, count, sizeof( s )-1, s );

  00028	8d 85 78 ff ff
	ff		 lea	 eax, DWORD PTR _s$[ebp]
  0002e	50		 push	 eax
  0002f	6a 7f		 push	 127			; 0000007fH
  00031	8b 4d 10	 mov	 ecx, DWORD PTR _count$[ebp]
  00034	51		 push	 ecx
  00035	0f b6 55 0c	 movzx	 edx, BYTE PTR _delim$[ebp]
  00039	52		 push	 edx
  0003a	8b 45 08	 mov	 eax, DWORD PTR _src$[ebp]
  0003d	50		 push	 eax
  0003e	e8 00 00 00 00	 call	 ?getStringToken@@YAHPADDHH0@Z ; getStringToken
  00043	83 c4 14	 add	 esp, 20			; 00000014H

; 341  : 
; 342  : 	return strtod( s , NULL );

  00046	8b f4		 mov	 esi, esp
  00048	6a 00		 push	 0
  0004a	8d 85 78 ff ff
	ff		 lea	 eax, DWORD PTR _s$[ebp]
  00050	50		 push	 eax
  00051	ff 15 00 00 00
	00		 call	 DWORD PTR __imp__strtod
  00057	83 c4 08	 add	 esp, 8
  0005a	3b f4		 cmp	 esi, esp
  0005c	e8 00 00 00 00	 call	 __RTC_CheckEsp

; 343  : }

  00061	52		 push	 edx
  00062	8b cd		 mov	 ecx, ebp
  00064	50		 push	 eax
  00065	8d 15 00 00 00
	00		 lea	 edx, DWORD PTR $LN5@getDoubleT
  0006b	e8 00 00 00 00	 call	 @_RTC_CheckStackVars@8
  00070	58		 pop	 eax
  00071	5a		 pop	 edx
  00072	5f		 pop	 edi
  00073	5e		 pop	 esi
  00074	5b		 pop	 ebx
  00075	8b 4d fc	 mov	 ecx, DWORD PTR __$ArrayPad$[ebp]
  00078	33 cd		 xor	 ecx, ebp
  0007a	e8 00 00 00 00	 call	 @__security_check_cookie@4
  0007f	81 c4 4c 01 00
	00		 add	 esp, 332		; 0000014cH
  00085	3b ec		 cmp	 ebp, esp
  00087	e8 00 00 00 00	 call	 __RTC_CheckEsp
  0008c	8b e5		 mov	 esp, ebp
  0008e	5d		 pop	 ebp
  0008f	c3		 ret	 0
$LN5@getDoubleT:
  00090	01 00 00 00	 DD	 1
  00094	00 00 00 00	 DD	 $LN4@getDoubleT
$LN4@getDoubleT:
  00098	78 ff ff ff	 DD	 -136			; ffffff78H
  0009c	80 00 00 00	 DD	 128			; 00000080H
  000a0	00 00 00 00	 DD	 $LN3@getDoubleT
$LN3@getDoubleT:
  000a4	73		 DB	 115			; 00000073H
  000a5	00		 DB	 0
?getDoubleToken@@YANPADDH@Z ENDP			; getDoubleToken
_TEXT	ENDS
; Function compile flags: /Odtp /RTCsu /ZI
; File c:\users\administrator\desktop\????? ??\????? ??\client source code\system\tool.cpp
;	COMDAT ?getIntegerToken@@YAHPADDH@Z
_TEXT	SEGMENT
_s$ = -136						; size = 128
__$ArrayPad$ = -4					; size = 4
_src$ = 8						; size = 4
_delim$ = 12						; size = 1
_count$ = 16						; size = 4
?getIntegerToken@@YAHPADDH@Z PROC			; getIntegerToken, COMDAT

; 316  : {

  00000	55		 push	 ebp
  00001	8b ec		 mov	 ebp, esp
  00003	81 ec 4c 01 00
	00		 sub	 esp, 332		; 0000014cH
  00009	53		 push	 ebx
  0000a	56		 push	 esi
  0000b	57		 push	 edi
  0000c	8d bd b4 fe ff
	ff		 lea	 edi, DWORD PTR [ebp-332]
  00012	b9 53 00 00 00	 mov	 ecx, 83			; 00000053H
  00017	b8 cc cc cc cc	 mov	 eax, -858993460		; ccccccccH
  0001c	f3 ab		 rep stosd
  0001e	a1 00 00 00 00	 mov	 eax, DWORD PTR ___security_cookie
  00023	33 c5		 xor	 eax, ebp
  00025	89 45 fc	 mov	 DWORD PTR __$ArrayPad$[ebp], eax

; 317  : 	char s[128];
; 318  : 
; 319  : 	getStringToken( src, delim, count, sizeof( s )-1, s );

  00028	8d 85 78 ff ff
	ff		 lea	 eax, DWORD PTR _s$[ebp]
  0002e	50		 push	 eax
  0002f	6a 7f		 push	 127			; 0000007fH
  00031	8b 4d 10	 mov	 ecx, DWORD PTR _count$[ebp]
  00034	51		 push	 ecx
  00035	0f b6 55 0c	 movzx	 edx, BYTE PTR _delim$[ebp]
  00039	52		 push	 edx
  0003a	8b 45 08	 mov	 eax, DWORD PTR _src$[ebp]
  0003d	50		 push	 eax
  0003e	e8 00 00 00 00	 call	 ?getStringToken@@YAHPADDHH0@Z ; getStringToken
  00043	83 c4 14	 add	 esp, 20			; 00000014H

; 320  : 
; 321  : 	if( s[0] == '\0' )

  00046	b8 01 00 00 00	 mov	 eax, 1
  0004b	6b c8 00	 imul	 ecx, eax, 0
  0004e	0f be 94 0d 78
	ff ff ff	 movsx	 edx, BYTE PTR _s$[ebp+ecx]
  00056	85 d2		 test	 edx, edx
  00058	75 05		 jne	 SHORT $LN2@getInteger

; 322  : 		return -1;

  0005a	83 c8 ff	 or	 eax, -1
  0005d	eb 19		 jmp	 SHORT $LN1@getInteger
$LN2@getInteger:

; 323  : 
; 324  : 	return atoi( s );

  0005f	8b f4		 mov	 esi, esp
  00061	8d 85 78 ff ff
	ff		 lea	 eax, DWORD PTR _s$[ebp]
  00067	50		 push	 eax
  00068	ff 15 00 00 00
	00		 call	 DWORD PTR __imp__atoi
  0006e	83 c4 04	 add	 esp, 4
  00071	3b f4		 cmp	 esi, esp
  00073	e8 00 00 00 00	 call	 __RTC_CheckEsp
$LN1@getInteger:

; 325  : }

  00078	52		 push	 edx
  00079	8b cd		 mov	 ecx, ebp
  0007b	50		 push	 eax
  0007c	8d 15 00 00 00
	00		 lea	 edx, DWORD PTR $LN6@getInteger
  00082	e8 00 00 00 00	 call	 @_RTC_CheckStackVars@8
  00087	58		 pop	 eax
  00088	5a		 pop	 edx
  00089	5f		 pop	 edi
  0008a	5e		 pop	 esi
  0008b	5b		 pop	 ebx
  0008c	8b 4d fc	 mov	 ecx, DWORD PTR __$ArrayPad$[ebp]
  0008f	33 cd		 xor	 ecx, ebp
  00091	e8 00 00 00 00	 call	 @__security_check_cookie@4
  00096	81 c4 4c 01 00
	00		 add	 esp, 332		; 0000014cH
  0009c	3b ec		 cmp	 ebp, esp
  0009e	e8 00 00 00 00	 call	 __RTC_CheckEsp
  000a3	8b e5		 mov	 esp, ebp
  000a5	5d		 pop	 ebp
  000a6	c3		 ret	 0
  000a7	90		 npad	 1
$LN6@getInteger:
  000a8	01 00 00 00	 DD	 1
  000ac	00 00 00 00	 DD	 $LN5@getInteger
$LN5@getInteger:
  000b0	78 ff ff ff	 DD	 -136			; ffffff78H
  000b4	80 00 00 00	 DD	 128			; 00000080H
  000b8	00 00 00 00	 DD	 $LN4@getInteger
$LN4@getInteger:
  000bc	73		 DB	 115			; 00000073H
  000bd	00		 DB	 0
?getIntegerToken@@YAHPADDH@Z ENDP			; getIntegerToken
_TEXT	ENDS
; Function compile flags: /Odtp /RTCsu /ZI
; File c:\users\administrator\desktop\????? ??\????? ??\client source code\system\tool.cpp
;	COMDAT ?getStringToken@@YAHPADDHH0@Z
_TEXT	SEGMENT
_pt$ = -32						; size = 4
_i$ = -20						; size = 4
_c$ = -8						; size = 4
_src$ = 8						; size = 4
_delim$ = 12						; size = 1
_count$ = 16						; size = 4
_maxlen$ = 20						; size = 4
_out$ = 24						; size = 4
?getStringToken@@YAHPADDHH0@Z PROC			; getStringToken, COMDAT

; 219  : {

  00000	55		 push	 ebp
  00001	8b ec		 mov	 ebp, esp
  00003	81 ec e4 00 00
	00		 sub	 esp, 228		; 000000e4H
  00009	53		 push	 ebx
  0000a	56		 push	 esi
  0000b	57		 push	 edi
  0000c	8d bd 1c ff ff
	ff		 lea	 edi, DWORD PTR [ebp-228]
  00012	b9 39 00 00 00	 mov	 ecx, 57			; 00000039H
  00017	b8 cc cc cc cc	 mov	 eax, -858993460		; ccccccccH
  0001c	f3 ab		 rep stosd

; 220  : 	int c = 1;

  0001e	c7 45 f8 01 00
	00 00		 mov	 DWORD PTR _c$[ebp], 1

; 221  : 	int i;
; 222  : 	unsigned char *pt;
; 223  : 
; 224  : 	pt = (unsigned char *)src;

  00025	8b 45 08	 mov	 eax, DWORD PTR _src$[ebp]
  00028	89 45 e0	 mov	 DWORD PTR _pt$[ebp], eax

; 225  : 	for( i = 0; i < count-1; i++ )

  0002b	c7 45 ec 00 00
	00 00		 mov	 DWORD PTR _i$[ebp], 0
  00032	eb 09		 jmp	 SHORT $LN4@getStringT
$LN2@getStringT:
  00034	8b 45 ec	 mov	 eax, DWORD PTR _i$[ebp]
  00037	83 c0 01	 add	 eax, 1
  0003a	89 45 ec	 mov	 DWORD PTR _i$[ebp], eax
$LN4@getStringT:
  0003d	8b 45 10	 mov	 eax, DWORD PTR _count$[ebp]
  00040	83 e8 01	 sub	 eax, 1
  00043	39 45 ec	 cmp	 DWORD PTR _i$[ebp], eax
  00046	7d 1e		 jge	 SHORT $LN3@getStringT

; 226  : 	{
; 227  : 		if( pt == (unsigned char *)0 )

  00048	83 7d e0 00	 cmp	 DWORD PTR _pt$[ebp], 0
  0004c	75 02		 jne	 SHORT $LN5@getStringT

; 228  : 			break;

  0004e	eb 16		 jmp	 SHORT $LN3@getStringT
$LN5@getStringT:

; 229  : 
; 230  : 		pt = searchDelimPoint( pt, delim );

  00050	0f b6 45 0c	 movzx	 eax, BYTE PTR _delim$[ebp]
  00054	50		 push	 eax
  00055	8b 4d e0	 mov	 ecx, DWORD PTR _pt$[ebp]
  00058	51		 push	 ecx
  00059	e8 00 00 00 00	 call	 ?searchDelimPoint@@YAPAEPAEE@Z ; searchDelimPoint
  0005e	83 c4 08	 add	 esp, 8
  00061	89 45 e0	 mov	 DWORD PTR _pt$[ebp], eax

; 231  : 	}

  00064	eb ce		 jmp	 SHORT $LN2@getStringT
$LN3@getStringT:

; 232  : 
; 233  : 	if( pt == (unsigned char *)0 )

  00066	83 7d e0 00	 cmp	 DWORD PTR _pt$[ebp], 0
  0006a	75 16		 jne	 SHORT $LN6@getStringT

; 234  : 	{
; 235  : 		out[0] = '\0';

  0006c	b8 01 00 00 00	 mov	 eax, 1
  00071	6b c8 00	 imul	 ecx, eax, 0
  00074	8b 55 18	 mov	 edx, DWORD PTR _out$[ebp]
  00077	c6 04 0a 00	 mov	 BYTE PTR [edx+ecx], 0

; 236  : 		return 1;

  0007b	b8 01 00 00 00	 mov	 eax, 1
  00080	eb 19		 jmp	 SHORT $LN1@getStringT
$LN6@getStringT:

; 237  : 	}
; 238  : 
; 239  : 	return copyStringUntilDelim( pt, delim, maxlen, (unsigned char *)out );

  00082	8b 45 18	 mov	 eax, DWORD PTR _out$[ebp]
  00085	50		 push	 eax
  00086	8b 4d 14	 mov	 ecx, DWORD PTR _maxlen$[ebp]
  00089	51		 push	 ecx
  0008a	0f b6 55 0c	 movzx	 edx, BYTE PTR _delim$[ebp]
  0008e	52		 push	 edx
  0008f	8b 45 e0	 mov	 eax, DWORD PTR _pt$[ebp]
  00092	50		 push	 eax
  00093	e8 00 00 00 00	 call	 ?copyStringUntilDelim@@YAHPAEDH0@Z ; copyStringUntilDelim
  00098	83 c4 10	 add	 esp, 16			; 00000010H
$LN1@getStringT:

; 240  : }

  0009b	5f		 pop	 edi
  0009c	5e		 pop	 esi
  0009d	5b		 pop	 ebx
  0009e	81 c4 e4 00 00
	00		 add	 esp, 228		; 000000e4H
  000a4	3b ec		 cmp	 ebp, esp
  000a6	e8 00 00 00 00	 call	 __RTC_CheckEsp
  000ab	8b e5		 mov	 esp, ebp
  000ad	5d		 pop	 ebp
  000ae	c3		 ret	 0
?getStringToken@@YAHPADDHH0@Z ENDP			; getStringToken
_TEXT	ENDS
; Function compile flags: /Odtp /RTCsu /ZI
; File c:\users\administrator\desktop\????? ??\????? ??\client source code\system\tool.cpp
;	COMDAT ?strlong2@@YAJPAPAD@Z
_TEXT	SEGMENT
_p$ = -1044						; size = 4
_moji$ = -1032						; size = 1024
__$ArrayPad$ = -4					; size = 4
_pp$ = 8						; size = 4
?strlong2@@YAJPAPAD@Z PROC				; strlong2, COMDAT

; 159  : {

  00000	55		 push	 ebp
  00001	8b ec		 mov	 ebp, esp
  00003	81 ec 58 06 00
	00		 sub	 esp, 1624		; 00000658H
  00009	53		 push	 ebx
  0000a	56		 push	 esi
  0000b	57		 push	 edi
  0000c	8d bd a8 f9 ff
	ff		 lea	 edi, DWORD PTR [ebp-1624]
  00012	b9 96 01 00 00	 mov	 ecx, 406		; 00000196H
  00017	b8 cc cc cc cc	 mov	 eax, -858993460		; ccccccccH
  0001c	f3 ab		 rep stosd
  0001e	a1 00 00 00 00	 mov	 eax, DWORD PTR ___security_cookie
  00023	33 c5		 xor	 eax, ebp
  00025	89 45 fc	 mov	 DWORD PTR __$ArrayPad$[ebp], eax

; 160  : 	char moji[1024] = "";

  00028	a0 00 00 00 00	 mov	 al, BYTE PTR ??_C@_00CNPNBAHC@?$AA@
  0002d	88 85 f8 fb ff
	ff		 mov	 BYTE PTR _moji$[ebp], al
  00033	68 ff 03 00 00	 push	 1023			; 000003ffH
  00038	6a 00		 push	 0
  0003a	8d 85 f9 fb ff
	ff		 lea	 eax, DWORD PTR _moji$[ebp+1]
  00040	50		 push	 eax
  00041	e8 00 00 00 00	 call	 _memset
  00046	83 c4 0c	 add	 esp, 12			; 0000000cH

; 161  : 	char *p = *pp;

  00049	8b 45 08	 mov	 eax, DWORD PTR _pp$[ebp]
  0004c	8b 08		 mov	 ecx, DWORD PTR [eax]
  0004e	89 8d ec fb ff
	ff		 mov	 DWORD PTR _p$[ebp], ecx

; 162  : 
; 163  : 	getword( &p , moji );

  00054	8d 85 f8 fb ff
	ff		 lea	 eax, DWORD PTR _moji$[ebp]
  0005a	50		 push	 eax
  0005b	8d 8d ec fb ff
	ff		 lea	 ecx, DWORD PTR _p$[ebp]
  00061	51		 push	 ecx
  00062	e8 00 00 00 00	 call	 ?getword@@YAHPAPADPAD@Z	; getword
  00067	83 c4 08	 add	 esp, 8

; 164  : 	*pp = p;

  0006a	8b 45 08	 mov	 eax, DWORD PTR _pp$[ebp]
  0006d	8b 8d ec fb ff
	ff		 mov	 ecx, DWORD PTR _p$[ebp]
  00073	89 08		 mov	 DWORD PTR [eax], ecx

; 165  : 
; 166  : 	return atol(moji);

  00075	8b f4		 mov	 esi, esp
  00077	8d 85 f8 fb ff
	ff		 lea	 eax, DWORD PTR _moji$[ebp]
  0007d	50		 push	 eax
  0007e	ff 15 00 00 00
	00		 call	 DWORD PTR __imp__atol
  00084	83 c4 04	 add	 esp, 4
  00087	3b f4		 cmp	 esi, esp
  00089	e8 00 00 00 00	 call	 __RTC_CheckEsp

; 167  : }

  0008e	52		 push	 edx
  0008f	8b cd		 mov	 ecx, ebp
  00091	50		 push	 eax
  00092	8d 15 00 00 00
	00		 lea	 edx, DWORD PTR $LN6@strlong2
  00098	e8 00 00 00 00	 call	 @_RTC_CheckStackVars@8
  0009d	58		 pop	 eax
  0009e	5a		 pop	 edx
  0009f	5f		 pop	 edi
  000a0	5e		 pop	 esi
  000a1	5b		 pop	 ebx
  000a2	8b 4d fc	 mov	 ecx, DWORD PTR __$ArrayPad$[ebp]
  000a5	33 cd		 xor	 ecx, ebp
  000a7	e8 00 00 00 00	 call	 @__security_check_cookie@4
  000ac	81 c4 58 06 00
	00		 add	 esp, 1624		; 00000658H
  000b2	3b ec		 cmp	 ebp, esp
  000b4	e8 00 00 00 00	 call	 __RTC_CheckEsp
  000b9	8b e5		 mov	 esp, ebp
  000bb	5d		 pop	 ebp
  000bc	c3		 ret	 0
  000bd	0f 1f 00	 npad	 3
$LN6@strlong2:
  000c0	02 00 00 00	 DD	 2
  000c4	00 00 00 00	 DD	 $LN5@strlong2
$LN5@strlong2:
  000c8	f8 fb ff ff	 DD	 -1032			; fffffbf8H
  000cc	00 04 00 00	 DD	 1024			; 00000400H
  000d0	00 00 00 00	 DD	 $LN3@strlong2
  000d4	ec fb ff ff	 DD	 -1044			; fffffbecH
  000d8	04 00 00 00	 DD	 4
  000dc	00 00 00 00	 DD	 $LN4@strlong2
$LN4@strlong2:
  000e0	70		 DB	 112			; 00000070H
  000e1	00		 DB	 0
$LN3@strlong2:
  000e2	6d		 DB	 109			; 0000006dH
  000e3	6f		 DB	 111			; 0000006fH
  000e4	6a		 DB	 106			; 0000006aH
  000e5	69		 DB	 105			; 00000069H
  000e6	00		 DB	 0
?strlong2@@YAJPAPAD@Z ENDP				; strlong2
_TEXT	ENDS
; Function compile flags: /Odtp /RTCsu /ZI
; File c:\users\administrator\desktop\????? ??\????? ??\client source code\system\tool.cpp
;	COMDAT ?strint2@@YAHPAPAD@Z
_TEXT	SEGMENT
_p$ = -1044						; size = 4
_moji$ = -1032						; size = 1024
__$ArrayPad$ = -4					; size = 4
_pp$ = 8						; size = 4
?strint2@@YAHPAPAD@Z PROC				; strint2, COMDAT

; 146  : {

  00000	55		 push	 ebp
  00001	8b ec		 mov	 ebp, esp
  00003	81 ec 58 06 00
	00		 sub	 esp, 1624		; 00000658H
  00009	53		 push	 ebx
  0000a	56		 push	 esi
  0000b	57		 push	 edi
  0000c	8d bd a8 f9 ff
	ff		 lea	 edi, DWORD PTR [ebp-1624]
  00012	b9 96 01 00 00	 mov	 ecx, 406		; 00000196H
  00017	b8 cc cc cc cc	 mov	 eax, -858993460		; ccccccccH
  0001c	f3 ab		 rep stosd
  0001e	a1 00 00 00 00	 mov	 eax, DWORD PTR ___security_cookie
  00023	33 c5		 xor	 eax, ebp
  00025	89 45 fc	 mov	 DWORD PTR __$ArrayPad$[ebp], eax

; 147  : 	char moji[1024] = "";

  00028	a0 00 00 00 00	 mov	 al, BYTE PTR ??_C@_00CNPNBAHC@?$AA@
  0002d	88 85 f8 fb ff
	ff		 mov	 BYTE PTR _moji$[ebp], al
  00033	68 ff 03 00 00	 push	 1023			; 000003ffH
  00038	6a 00		 push	 0
  0003a	8d 85 f9 fb ff
	ff		 lea	 eax, DWORD PTR _moji$[ebp+1]
  00040	50		 push	 eax
  00041	e8 00 00 00 00	 call	 _memset
  00046	83 c4 0c	 add	 esp, 12			; 0000000cH

; 148  : 	char *p = *pp;

  00049	8b 45 08	 mov	 eax, DWORD PTR _pp$[ebp]
  0004c	8b 08		 mov	 ecx, DWORD PTR [eax]
  0004e	89 8d ec fb ff
	ff		 mov	 DWORD PTR _p$[ebp], ecx

; 149  : 
; 150  : 	getword( &p , moji );

  00054	8d 85 f8 fb ff
	ff		 lea	 eax, DWORD PTR _moji$[ebp]
  0005a	50		 push	 eax
  0005b	8d 8d ec fb ff
	ff		 lea	 ecx, DWORD PTR _p$[ebp]
  00061	51		 push	 ecx
  00062	e8 00 00 00 00	 call	 ?getword@@YAHPAPADPAD@Z	; getword
  00067	83 c4 08	 add	 esp, 8

; 151  : 	*pp = p;

  0006a	8b 45 08	 mov	 eax, DWORD PTR _pp$[ebp]
  0006d	8b 8d ec fb ff
	ff		 mov	 ecx, DWORD PTR _p$[ebp]
  00073	89 08		 mov	 DWORD PTR [eax], ecx

; 152  : 
; 153  : 	return atoi(moji);

  00075	8b f4		 mov	 esi, esp
  00077	8d 85 f8 fb ff
	ff		 lea	 eax, DWORD PTR _moji$[ebp]
  0007d	50		 push	 eax
  0007e	ff 15 00 00 00
	00		 call	 DWORD PTR __imp__atoi
  00084	83 c4 04	 add	 esp, 4
  00087	3b f4		 cmp	 esi, esp
  00089	e8 00 00 00 00	 call	 __RTC_CheckEsp

; 154  : }

  0008e	52		 push	 edx
  0008f	8b cd		 mov	 ecx, ebp
  00091	50		 push	 eax
  00092	8d 15 00 00 00
	00		 lea	 edx, DWORD PTR $LN6@strint2
  00098	e8 00 00 00 00	 call	 @_RTC_CheckStackVars@8
  0009d	58		 pop	 eax
  0009e	5a		 pop	 edx
  0009f	5f		 pop	 edi
  000a0	5e		 pop	 esi
  000a1	5b		 pop	 ebx
  000a2	8b 4d fc	 mov	 ecx, DWORD PTR __$ArrayPad$[ebp]
  000a5	33 cd		 xor	 ecx, ebp
  000a7	e8 00 00 00 00	 call	 @__security_check_cookie@4
  000ac	81 c4 58 06 00
	00		 add	 esp, 1624		; 00000658H
  000b2	3b ec		 cmp	 ebp, esp
  000b4	e8 00 00 00 00	 call	 __RTC_CheckEsp
  000b9	8b e5		 mov	 esp, ebp
  000bb	5d		 pop	 ebp
  000bc	c3		 ret	 0
  000bd	0f 1f 00	 npad	 3
$LN6@strint2:
  000c0	02 00 00 00	 DD	 2
  000c4	00 00 00 00	 DD	 $LN5@strint2
$LN5@strint2:
  000c8	f8 fb ff ff	 DD	 -1032			; fffffbf8H
  000cc	00 04 00 00	 DD	 1024			; 00000400H
  000d0	00 00 00 00	 DD	 $LN3@strint2
  000d4	ec fb ff ff	 DD	 -1044			; fffffbecH
  000d8	04 00 00 00	 DD	 4
  000dc	00 00 00 00	 DD	 $LN4@strint2
$LN4@strint2:
  000e0	70		 DB	 112			; 00000070H
  000e1	00		 DB	 0
$LN3@strint2:
  000e2	6d		 DB	 109			; 0000006dH
  000e3	6f		 DB	 111			; 0000006fH
  000e4	6a		 DB	 106			; 0000006aH
  000e5	69		 DB	 105			; 00000069H
  000e6	00		 DB	 0
?strint2@@YAHPAPAD@Z ENDP				; strint2
_TEXT	ENDS
; Function compile flags: /Odtp /RTCsu /ZI
; File c:\users\administrator\desktop\????? ??\????? ??\client source code\system\tool.cpp
;	COMDAT ?getword@@YAHPAPADPAD@Z
_TEXT	SEGMENT
_p$ = -20						; size = 4
_i$ = -8						; size = 4
_pp$ = 8						; size = 4
_q$ = 12						; size = 4
?getword@@YAHPAPADPAD@Z PROC				; getword, COMDAT

; 65   : {

  00000	55		 push	 ebp
  00001	8b ec		 mov	 ebp, esp
  00003	81 ec d8 00 00
	00		 sub	 esp, 216		; 000000d8H
  00009	53		 push	 ebx
  0000a	56		 push	 esi
  0000b	57		 push	 edi
  0000c	8d bd 28 ff ff
	ff		 lea	 edi, DWORD PTR [ebp-216]
  00012	b9 36 00 00 00	 mov	 ecx, 54			; 00000036H
  00017	b8 cc cc cc cc	 mov	 eax, -858993460		; ccccccccH
  0001c	f3 ab		 rep stosd

; 66   : 	int i=0;

  0001e	c7 45 f8 00 00
	00 00		 mov	 DWORD PTR _i$[ebp], 0

; 67   : 	char *p = *pp;

  00025	8b 45 08	 mov	 eax, DWORD PTR _pp$[ebp]
  00028	8b 08		 mov	 ecx, DWORD PTR [eax]
  0002a	89 4d ec	 mov	 DWORD PTR _p$[ebp], ecx

; 68   : 
; 69   : 	wordchk( &p );

  0002d	8d 45 ec	 lea	 eax, DWORD PTR _p$[ebp]
  00030	50		 push	 eax
  00031	e8 00 00 00 00	 call	 ?wordchk@@YAHPAPAD@Z	; wordchk
  00036	83 c4 04	 add	 esp, 4

; 70   : 
; 71   : 	for( i = 0; *p != ' ' && *p != '\t' && *p != '\0'; p++ , q++ , i++ )

  00039	c7 45 f8 00 00
	00 00		 mov	 DWORD PTR _i$[ebp], 0
  00040	eb 1b		 jmp	 SHORT $LN4@getword
$LN2@getword:
  00042	8b 45 ec	 mov	 eax, DWORD PTR _p$[ebp]
  00045	83 c0 01	 add	 eax, 1
  00048	89 45 ec	 mov	 DWORD PTR _p$[ebp], eax
  0004b	8b 4d 0c	 mov	 ecx, DWORD PTR _q$[ebp]
  0004e	83 c1 01	 add	 ecx, 1
  00051	89 4d 0c	 mov	 DWORD PTR _q$[ebp], ecx
  00054	8b 55 f8	 mov	 edx, DWORD PTR _i$[ebp]
  00057	83 c2 01	 add	 edx, 1
  0005a	89 55 f8	 mov	 DWORD PTR _i$[ebp], edx
$LN4@getword:
  0005d	8b 45 ec	 mov	 eax, DWORD PTR _p$[ebp]
  00060	0f be 08	 movsx	 ecx, BYTE PTR [eax]
  00063	83 f9 20	 cmp	 ecx, 32			; 00000020H
  00066	74 21		 je	 SHORT $LN3@getword
  00068	8b 45 ec	 mov	 eax, DWORD PTR _p$[ebp]
  0006b	0f be 08	 movsx	 ecx, BYTE PTR [eax]
  0006e	83 f9 09	 cmp	 ecx, 9
  00071	74 16		 je	 SHORT $LN3@getword
  00073	8b 45 ec	 mov	 eax, DWORD PTR _p$[ebp]
  00076	0f be 08	 movsx	 ecx, BYTE PTR [eax]
  00079	85 c9		 test	 ecx, ecx
  0007b	74 0c		 je	 SHORT $LN3@getword

; 72   : 	{
; 73   : 		*q = *p;

  0007d	8b 45 0c	 mov	 eax, DWORD PTR _q$[ebp]
  00080	8b 4d ec	 mov	 ecx, DWORD PTR _p$[ebp]
  00083	8a 11		 mov	 dl, BYTE PTR [ecx]
  00085	88 10		 mov	 BYTE PTR [eax], dl

; 74   : 	}

  00087	eb b9		 jmp	 SHORT $LN2@getword
$LN3@getword:

; 75   : 
; 76   : 	*q = '\0';

  00089	8b 45 0c	 mov	 eax, DWORD PTR _q$[ebp]
  0008c	c6 00 00	 mov	 BYTE PTR [eax], 0

; 77   : 	*pp = p;

  0008f	8b 45 08	 mov	 eax, DWORD PTR _pp$[ebp]
  00092	8b 4d ec	 mov	 ecx, DWORD PTR _p$[ebp]
  00095	89 08		 mov	 DWORD PTR [eax], ecx

; 78   : 
; 79   : 	return i;

  00097	8b 45 f8	 mov	 eax, DWORD PTR _i$[ebp]

; 80   : }

  0009a	52		 push	 edx
  0009b	8b cd		 mov	 ecx, ebp
  0009d	50		 push	 eax
  0009e	8d 15 00 00 00
	00		 lea	 edx, DWORD PTR $LN8@getword
  000a4	e8 00 00 00 00	 call	 @_RTC_CheckStackVars@8
  000a9	58		 pop	 eax
  000aa	5a		 pop	 edx
  000ab	5f		 pop	 edi
  000ac	5e		 pop	 esi
  000ad	5b		 pop	 ebx
  000ae	81 c4 d8 00 00
	00		 add	 esp, 216		; 000000d8H
  000b4	3b ec		 cmp	 ebp, esp
  000b6	e8 00 00 00 00	 call	 __RTC_CheckEsp
  000bb	8b e5		 mov	 esp, ebp
  000bd	5d		 pop	 ebp
  000be	c3		 ret	 0
  000bf	90		 npad	 1
$LN8@getword:
  000c0	01 00 00 00	 DD	 1
  000c4	00 00 00 00	 DD	 $LN7@getword
$LN7@getword:
  000c8	ec ff ff ff	 DD	 -20			; ffffffecH
  000cc	04 00 00 00	 DD	 4
  000d0	00 00 00 00	 DD	 $LN6@getword
$LN6@getword:
  000d4	70		 DB	 112			; 00000070H
  000d5	00		 DB	 0
?getword@@YAHPAPADPAD@Z ENDP				; getword
_TEXT	ENDS
; Function compile flags: /Odtp /RTCsu /ZI
; File c:\users\administrator\desktop\????? ??\????? ??\client source code\system\tool.cpp
;	COMDAT ?strstr2@@YAHPAPADPAD@Z
_TEXT	SEGMENT
tv73 = -228						; size = 4
tv72 = -224						; size = 4
tv71 = -220						; size = 4
_i$ = -20						; size = 4
_p$ = -8						; size = 4
_pp$ = 8						; size = 4
_q$ = 12						; size = 4
?strstr2@@YAHPAPADPAD@Z PROC				; strstr2, COMDAT

; 125  : {

  00000	55		 push	 ebp
  00001	8b ec		 mov	 ebp, esp
  00003	81 ec e4 00 00
	00		 sub	 esp, 228		; 000000e4H
  00009	53		 push	 ebx
  0000a	56		 push	 esi
  0000b	57		 push	 edi
  0000c	8d bd 1c ff ff
	ff		 lea	 edi, DWORD PTR [ebp-228]
  00012	b9 39 00 00 00	 mov	 ecx, 57			; 00000039H
  00017	b8 cc cc cc cc	 mov	 eax, -858993460		; ccccccccH
  0001c	f3 ab		 rep stosd

; 126  : 	char *p = *pp;

  0001e	8b 45 08	 mov	 eax, DWORD PTR _pp$[ebp]
  00021	8b 08		 mov	 ecx, DWORD PTR [eax]
  00023	89 4d f8	 mov	 DWORD PTR _p$[ebp], ecx

; 127  : 	int i;
; 128  : 
; 129  : 	wordchk( &p );

  00026	8d 45 f8	 lea	 eax, DWORD PTR _p$[ebp]
  00029	50		 push	 eax
  0002a	e8 00 00 00 00	 call	 ?wordchk@@YAHPAPAD@Z	; wordchk
  0002f	83 c4 04	 add	 esp, 4

; 130  : 
; 131  : 	for( i = 1; *p++ == *q++; i++ )

  00032	c7 45 ec 01 00
	00 00		 mov	 DWORD PTR _i$[ebp], 1
  00039	eb 09		 jmp	 SHORT $LN4@strstr2
$LN2@strstr2:
  0003b	8b 45 ec	 mov	 eax, DWORD PTR _i$[ebp]
  0003e	83 c0 01	 add	 eax, 1
  00041	89 45 ec	 mov	 DWORD PTR _i$[ebp], eax
$LN4@strstr2:
  00044	8b 45 f8	 mov	 eax, DWORD PTR _p$[ebp]
  00047	0f be 08	 movsx	 ecx, BYTE PTR [eax]
  0004a	89 8d 24 ff ff
	ff		 mov	 DWORD PTR tv71[ebp], ecx
  00050	8b 55 0c	 mov	 edx, DWORD PTR _q$[ebp]
  00053	0f be 02	 movsx	 eax, BYTE PTR [edx]
  00056	89 85 20 ff ff
	ff		 mov	 DWORD PTR tv72[ebp], eax
  0005c	8b 4d 0c	 mov	 ecx, DWORD PTR _q$[ebp]
  0005f	83 c1 01	 add	 ecx, 1
  00062	89 4d 0c	 mov	 DWORD PTR _q$[ebp], ecx
  00065	8b 55 f8	 mov	 edx, DWORD PTR _p$[ebp]
  00068	83 c2 01	 add	 edx, 1
  0006b	89 55 f8	 mov	 DWORD PTR _p$[ebp], edx
  0006e	8b 85 24 ff ff
	ff		 mov	 eax, DWORD PTR tv71[ebp]
  00074	3b 85 20 ff ff
	ff		 cmp	 eax, DWORD PTR tv72[ebp]
  0007a	75 0c		 jne	 SHORT $LN7@strstr2
  0007c	c7 85 1c ff ff
	ff 01 00 00 00	 mov	 DWORD PTR tv73[ebp], 1
  00086	eb 0a		 jmp	 SHORT $LN8@strstr2
$LN7@strstr2:
  00088	c7 85 1c ff ff
	ff 00 00 00 00	 mov	 DWORD PTR tv73[ebp], 0
$LN8@strstr2:
  00092	83 bd 1c ff ff
	ff 00		 cmp	 DWORD PTR tv73[ebp], 0
  00099	74 19		 je	 SHORT $LN3@strstr2

; 132  : 	{
; 133  : 		if( *q == 0 )

  0009b	8b 45 0c	 mov	 eax, DWORD PTR _q$[ebp]
  0009e	0f be 08	 movsx	 ecx, BYTE PTR [eax]
  000a1	85 c9		 test	 ecx, ecx
  000a3	75 0d		 jne	 SHORT $LN5@strstr2

; 134  : 		{
; 135  : 			*pp = p;

  000a5	8b 45 08	 mov	 eax, DWORD PTR _pp$[ebp]
  000a8	8b 4d f8	 mov	 ecx, DWORD PTR _p$[ebp]
  000ab	89 08		 mov	 DWORD PTR [eax], ecx

; 136  : 			return i;

  000ad	8b 45 ec	 mov	 eax, DWORD PTR _i$[ebp]
  000b0	eb 04		 jmp	 SHORT $LN1@strstr2
$LN5@strstr2:

; 137  : 		}
; 138  : 	}

  000b2	eb 87		 jmp	 SHORT $LN2@strstr2
$LN3@strstr2:

; 139  : 
; 140  : 	return 0;

  000b4	33 c0		 xor	 eax, eax
$LN1@strstr2:

; 141  : }

  000b6	52		 push	 edx
  000b7	8b cd		 mov	 ecx, ebp
  000b9	50		 push	 eax
  000ba	8d 15 00 00 00
	00		 lea	 edx, DWORD PTR $LN11@strstr2
  000c0	e8 00 00 00 00	 call	 @_RTC_CheckStackVars@8
  000c5	58		 pop	 eax
  000c6	5a		 pop	 edx
  000c7	5f		 pop	 edi
  000c8	5e		 pop	 esi
  000c9	5b		 pop	 ebx
  000ca	81 c4 e4 00 00
	00		 add	 esp, 228		; 000000e4H
  000d0	3b ec		 cmp	 ebp, esp
  000d2	e8 00 00 00 00	 call	 __RTC_CheckEsp
  000d7	8b e5		 mov	 esp, ebp
  000d9	5d		 pop	 ebp
  000da	c3		 ret	 0
  000db	90		 npad	 1
$LN11@strstr2:
  000dc	01 00 00 00	 DD	 1
  000e0	00 00 00 00	 DD	 $LN10@strstr2
$LN10@strstr2:
  000e4	f8 ff ff ff	 DD	 -8			; fffffff8H
  000e8	04 00 00 00	 DD	 4
  000ec	00 00 00 00	 DD	 $LN9@strstr2
$LN9@strstr2:
  000f0	70		 DB	 112			; 00000070H
  000f1	00		 DB	 0
?strstr2@@YAHPAPADPAD@Z ENDP				; strstr2
_TEXT	ENDS
; Function compile flags: /Odtp /RTCsu /ZI
; File c:\users\administrator\desktop\????? ??\????? ??\client source code\system\tool.cpp
;	COMDAT ?wordchk@@YAHPAPAD@Z
_TEXT	SEGMENT
tv67 = -208						; size = 4
_p$ = -8						; size = 4
_pp$ = 8						; size = 4
?wordchk@@YAHPAPAD@Z PROC				; wordchk, COMDAT

; 38   : {

  00000	55		 push	 ebp
  00001	8b ec		 mov	 ebp, esp
  00003	81 ec d0 00 00
	00		 sub	 esp, 208		; 000000d0H
  00009	53		 push	 ebx
  0000a	56		 push	 esi
  0000b	57		 push	 edi
  0000c	8d bd 30 ff ff
	ff		 lea	 edi, DWORD PTR [ebp-208]
  00012	b9 34 00 00 00	 mov	 ecx, 52			; 00000034H
  00017	b8 cc cc cc cc	 mov	 eax, -858993460		; ccccccccH
  0001c	f3 ab		 rep stosd

; 39   : 	char *p = *pp;

  0001e	8b 45 08	 mov	 eax, DWORD PTR _pp$[ebp]
  00021	8b 08		 mov	 ecx, DWORD PTR [eax]
  00023	89 4d f8	 mov	 DWORD PTR _p$[ebp], ecx
$LN2@wordchk:

; 40   : 
; 41   : 	while( *p != 0 )

  00026	8b 45 f8	 mov	 eax, DWORD PTR _p$[ebp]
  00029	0f be 08	 movsx	 ecx, BYTE PTR [eax]
  0002c	85 c9		 test	 ecx, ecx
  0002e	74 46		 je	 SHORT $LN3@wordchk

; 42   : 	{
; 43   : 		switch( *p )

  00030	8b 45 f8	 mov	 eax, DWORD PTR _p$[ebp]
  00033	8a 08		 mov	 cl, BYTE PTR [eax]
  00035	88 8d 30 ff ff
	ff		 mov	 BYTE PTR tv67[ebp], cl
  0003b	80 bd 30 ff ff
	ff 09		 cmp	 BYTE PTR tv67[ebp], 9
  00042	74 0b		 je	 SHORT $LN6@wordchk
  00044	80 bd 30 ff ff
	ff 20		 cmp	 BYTE PTR tv67[ebp], 32	; 00000020H
  0004b	74 0d		 je	 SHORT $LN7@wordchk
  0004d	eb 16		 jmp	 SHORT $LN8@wordchk
$LN6@wordchk:

; 44   : 		{
; 45   : 			case '\t':
; 46   : 				p++;

  0004f	8b 45 f8	 mov	 eax, DWORD PTR _p$[ebp]
  00052	83 c0 01	 add	 eax, 1
  00055	89 45 f8	 mov	 DWORD PTR _p$[ebp], eax

; 47   : 				break;

  00058	eb 1a		 jmp	 SHORT $LN4@wordchk
$LN7@wordchk:

; 48   : 
; 49   : 			case ' ':
; 50   : 				p++;

  0005a	8b 45 f8	 mov	 eax, DWORD PTR _p$[ebp]
  0005d	83 c0 01	 add	 eax, 1
  00060	89 45 f8	 mov	 DWORD PTR _p$[ebp], eax

; 51   : 				break;

  00063	eb 0f		 jmp	 SHORT $LN4@wordchk
$LN8@wordchk:

; 52   : 
; 53   : 			default:
; 54   : 				*pp = p;

  00065	8b 45 08	 mov	 eax, DWORD PTR _pp$[ebp]
  00068	8b 4d f8	 mov	 ecx, DWORD PTR _p$[ebp]
  0006b	89 08		 mov	 DWORD PTR [eax], ecx

; 55   : 				return 1;

  0006d	b8 01 00 00 00	 mov	 eax, 1
  00072	eb 04		 jmp	 SHORT $LN1@wordchk
$LN4@wordchk:

; 56   : 		}
; 57   : 	}

  00074	eb b0		 jmp	 SHORT $LN2@wordchk
$LN3@wordchk:

; 58   : 
; 59   : 	return 0;

  00076	33 c0		 xor	 eax, eax
$LN1@wordchk:

; 60   : }

  00078	5f		 pop	 edi
  00079	5e		 pop	 esi
  0007a	5b		 pop	 ebx
  0007b	8b e5		 mov	 esp, ebp
  0007d	5d		 pop	 ebp
  0007e	c3		 ret	 0
?wordchk@@YAHPAPAD@Z ENDP				; wordchk
_TEXT	ENDS
; Function compile flags: /Odtp /RTCsu /ZI
; File c:\users\administrator\desktop\????? ??\????? ??\client source code\system\tool.cpp
;	COMDAT ?TimeGetTime@@YAIXZ
_TEXT	SEGMENT
?TimeGetTime@@YAIXZ PROC				; TimeGetTime, COMDAT

; 22   : {

  00000	55		 push	 ebp
  00001	8b ec		 mov	 ebp, esp
  00003	81 ec c0 00 00
	00		 sub	 esp, 192		; 000000c0H
  00009	53		 push	 ebx
  0000a	56		 push	 esi
  0000b	57		 push	 edi
  0000c	8d bd 40 ff ff
	ff		 lea	 edi, DWORD PTR [ebp-192]
  00012	b9 30 00 00 00	 mov	 ecx, 48			; 00000030H
  00017	b8 cc cc cc cc	 mov	 eax, -858993460		; ccccccccH
  0001c	f3 ab		 rep stosd

; 23   : #ifdef _TIME_GET_TIME
; 24   : 	static __int64 time;
; 25   : 
; 26   : 	QueryPerformanceCounter(&CurrentTick);
; 27   : 	return (unsigned int)(time = CurrentTick.QuadPart/tickCount.QuadPart);
; 28   : #else
; 29   : 	return timeGetTime();

  0001e	8b f4		 mov	 esi, esp
  00020	ff 15 00 00 00
	00		 call	 DWORD PTR __imp__timeGetTime@0
  00026	3b f4		 cmp	 esi, esp
  00028	e8 00 00 00 00	 call	 __RTC_CheckEsp

; 30   : #endif
; 31   : }

  0002d	5f		 pop	 edi
  0002e	5e		 pop	 esi
  0002f	5b		 pop	 ebx
  00030	81 c4 c0 00 00
	00		 add	 esp, 192		; 000000c0H
  00036	3b ec		 cmp	 ebp, esp
  00038	e8 00 00 00 00	 call	 __RTC_CheckEsp
  0003d	8b e5		 mov	 esp, ebp
  0003f	5d		 pop	 ebp
  00040	c3		 ret	 0
?TimeGetTime@@YAIXZ ENDP				; TimeGetTime
_TEXT	ENDS
END
