; Listing generated by Microsoft (R) Optimizing Compiler Version 19.00.24215.1 

	TITLE	C:\Users\Administrator\Desktop\????? ??\????? ??\Client Source Code\mylua\win.cpp
	.686P
	.XMM
	include listing.inc
	.model	flat

INCLUDELIB MSVCRTD
INCLUDELIB OLDNAMES

PUBLIC	?LUA_WINDOW_OPEN@@3_NA				; LUA_WINDOW_OPEN
PUBLIC	??_C@_0L@FGLDLGNA@InitWindow?$AA@		; `string'
PUBLIC	??_C@_0BC@DHJEOION@getMouseLeftCrick?$AA@	; `string'
PUBLIC	??_C@_0L@PBHIBJIH@getIndexWN?$AA@		; `string'
PUBLIC	??_C@_07OPGAKFHD@getIdWN?$AA@			; `string'
PUBLIC	??_C@_0M@JAOKBFKC@CloseWindow?$AA@		; `string'
PUBLIC	??_C@_09GCKOACLD@DelWindow?$AA@			; `string'
PUBLIC	??_C@_08NDJBCPM@CloseFlg?$AA@			; `string'
PUBLIC	??_C@_0BA@MKMIAAOI@getButtonTypeWN?$AA@		; `string'
PUBLIC	??_C@_0N@KMPBGEFK@getHitFontNo?$AA@		; `string'
PUBLIC	??_C@_0N@PKCFFCAK@getHitDispNo?$AA@		; `string'
PUBLIC	??_C@_0O@MPGNGFP@InitStrBuffer?$AA@		; `string'
PUBLIC	??_C@_0BB@DGGHMCDG@InitNewStrBuffer?$AA@	; `string'
PUBLIC	??_C@_0BB@PDIFIMKJ@GetKeyInputFocus?$AA@	; `string'
PUBLIC	??_C@_0P@NDKBLEHK@getMessageData?$AA@		; `string'
PUBLIC	??_C@_0BB@POCDHCJM@StockFontBuffer2?$AA@	; `string'
PUBLIC	??_C@_0M@HAANOHN@GetInputMsg?$AA@		; `string'
PUBLIC	??_C@_0P@HECOHJOG@SetInputMsgNum?$AA@		; `string'
PUBLIC	??_C@_08HOMKCKLH@NewPrint?$AA@			; `string'
PUBLIC	??_C@_0BF@MEGLFBID@ShowBottomLineString?$AA@	; `string'
PUBLIC	??_C@_04IOGGDNCH@atoi?$AA@			; `string'
_BSS	SEGMENT
?LUA_WINDOW_OPEN@@3_NA DB 01H DUP (?)			; LUA_WINDOW_OPEN
_BSS	ENDS
;	COMDAT ??_C@_04IOGGDNCH@atoi?$AA@
CONST	SEGMENT
??_C@_04IOGGDNCH@atoi?$AA@ DB 'atoi', 00H		; `string'
CONST	ENDS
;	COMDAT ??_C@_0BF@MEGLFBID@ShowBottomLineString?$AA@
CONST	SEGMENT
??_C@_0BF@MEGLFBID@ShowBottomLineString?$AA@ DB 'ShowBottomLineString', 00H ; `string'
CONST	ENDS
;	COMDAT ??_C@_08HOMKCKLH@NewPrint?$AA@
CONST	SEGMENT
??_C@_08HOMKCKLH@NewPrint?$AA@ DB 'NewPrint', 00H	; `string'
CONST	ENDS
;	COMDAT ??_C@_0P@HECOHJOG@SetInputMsgNum?$AA@
CONST	SEGMENT
??_C@_0P@HECOHJOG@SetInputMsgNum?$AA@ DB 'SetInputMsgNum', 00H ; `string'
CONST	ENDS
;	COMDAT ??_C@_0M@HAANOHN@GetInputMsg?$AA@
CONST	SEGMENT
??_C@_0M@HAANOHN@GetInputMsg?$AA@ DB 'GetInputMsg', 00H	; `string'
CONST	ENDS
;	COMDAT ??_C@_0BB@POCDHCJM@StockFontBuffer2?$AA@
CONST	SEGMENT
??_C@_0BB@POCDHCJM@StockFontBuffer2?$AA@ DB 'StockFontBuffer2', 00H ; `string'
CONST	ENDS
;	COMDAT ??_C@_0P@NDKBLEHK@getMessageData?$AA@
CONST	SEGMENT
??_C@_0P@NDKBLEHK@getMessageData?$AA@ DB 'getMessageData', 00H ; `string'
CONST	ENDS
;	COMDAT ??_C@_0BB@PDIFIMKJ@GetKeyInputFocus?$AA@
CONST	SEGMENT
??_C@_0BB@PDIFIMKJ@GetKeyInputFocus?$AA@ DB 'GetKeyInputFocus', 00H ; `string'
CONST	ENDS
;	COMDAT ??_C@_0BB@DGGHMCDG@InitNewStrBuffer?$AA@
CONST	SEGMENT
??_C@_0BB@DGGHMCDG@InitNewStrBuffer?$AA@ DB 'InitNewStrBuffer', 00H ; `string'
CONST	ENDS
;	COMDAT ??_C@_0O@MPGNGFP@InitStrBuffer?$AA@
CONST	SEGMENT
??_C@_0O@MPGNGFP@InitStrBuffer?$AA@ DB 'InitStrBuffer', 00H ; `string'
CONST	ENDS
;	COMDAT ??_C@_0N@PKCFFCAK@getHitDispNo?$AA@
CONST	SEGMENT
??_C@_0N@PKCFFCAK@getHitDispNo?$AA@ DB 'getHitDispNo', 00H ; `string'
CONST	ENDS
;	COMDAT ??_C@_0N@KMPBGEFK@getHitFontNo?$AA@
CONST	SEGMENT
??_C@_0N@KMPBGEFK@getHitFontNo?$AA@ DB 'getHitFontNo', 00H ; `string'
CONST	ENDS
;	COMDAT ??_C@_0BA@MKMIAAOI@getButtonTypeWN?$AA@
CONST	SEGMENT
??_C@_0BA@MKMIAAOI@getButtonTypeWN?$AA@ DB 'getButtonTypeWN', 00H ; `string'
CONST	ENDS
;	COMDAT ??_C@_08NDJBCPM@CloseFlg?$AA@
CONST	SEGMENT
??_C@_08NDJBCPM@CloseFlg?$AA@ DB 'CloseFlg', 00H	; `string'
CONST	ENDS
;	COMDAT ??_C@_09GCKOACLD@DelWindow?$AA@
CONST	SEGMENT
??_C@_09GCKOACLD@DelWindow?$AA@ DB 'DelWindow', 00H	; `string'
CONST	ENDS
;	COMDAT ??_C@_0M@JAOKBFKC@CloseWindow?$AA@
CONST	SEGMENT
??_C@_0M@JAOKBFKC@CloseWindow?$AA@ DB 'CloseWindow', 00H ; `string'
CONST	ENDS
;	COMDAT ??_C@_07OPGAKFHD@getIdWN?$AA@
CONST	SEGMENT
??_C@_07OPGAKFHD@getIdWN?$AA@ DB 'getIdWN', 00H		; `string'
CONST	ENDS
;	COMDAT ??_C@_0L@PBHIBJIH@getIndexWN?$AA@
CONST	SEGMENT
??_C@_0L@PBHIBJIH@getIndexWN?$AA@ DB 'getIndexWN', 00H	; `string'
CONST	ENDS
;	COMDAT ??_C@_0BC@DHJEOION@getMouseLeftCrick?$AA@
CONST	SEGMENT
??_C@_0BC@DHJEOION@getMouseLeftCrick?$AA@ DB 'getMouseLeftCrick', 00H ; `string'
CONST	ENDS
;	COMDAT ??_C@_0L@FGLDLGNA@InitWindow?$AA@
CONST	SEGMENT
??_C@_0L@FGLDLGNA@InitWindow?$AA@ DB 'InitWindow', 00H	; `string'
CONST	ENDS
CONST	SEGMENT
?winlib@@3QBUluaL_Reg@@B DD FLAT:??_C@_0L@FGLDLGNA@InitWindow?$AA@ ; winlib
	DD	FLAT:?InitWindow@@YAHPAUlua_State@@@Z
	DD	FLAT:??_C@_0BC@DHJEOION@getMouseLeftCrick?$AA@
	DD	FLAT:?getMouseLeftCrick@@YAHPAUlua_State@@@Z
	DD	FLAT:??_C@_0L@PBHIBJIH@getIndexWN?$AA@
	DD	FLAT:?getIndexWN@@YAHPAUlua_State@@@Z
	DD	FLAT:??_C@_07OPGAKFHD@getIdWN?$AA@
	DD	FLAT:?getIdWN@@YAHPAUlua_State@@@Z
	DD	FLAT:??_C@_0M@JAOKBFKC@CloseWindow?$AA@
	DD	FLAT:?CloseWindow@@YAHPAUlua_State@@@Z
	DD	FLAT:??_C@_09GCKOACLD@DelWindow?$AA@
	DD	FLAT:?DelWindow@@YAHPAUlua_State@@@Z
	DD	FLAT:??_C@_08NDJBCPM@CloseFlg?$AA@
	DD	FLAT:?CloseFlg@@YAHPAUlua_State@@@Z
	DD	FLAT:??_C@_0BA@MKMIAAOI@getButtonTypeWN?$AA@
	DD	FLAT:?getButtonTypeWN@@YAHPAUlua_State@@@Z
	DD	FLAT:??_C@_0N@KMPBGEFK@getHitFontNo?$AA@
	DD	FLAT:?getHitFontNo@@YAHPAUlua_State@@@Z
	DD	FLAT:??_C@_0N@PKCFFCAK@getHitDispNo?$AA@
	DD	FLAT:?getHitDispNo@@YAHPAUlua_State@@@Z
	DD	FLAT:??_C@_0O@MPGNGFP@InitStrBuffer?$AA@
	DD	FLAT:?SaInitStrBuffer@@YAHPAUlua_State@@@Z
	DD	FLAT:??_C@_0BB@DGGHMCDG@InitNewStrBuffer?$AA@
	DD	FLAT:?SaInitNewStrBuffer@@YAHPAUlua_State@@@Z
	DD	FLAT:??_C@_0BB@PDIFIMKJ@GetKeyInputFocus?$AA@
	DD	FLAT:?SaWinGetKeyInputFocus@@YAHPAUlua_State@@@Z
	DD	FLAT:??_C@_0P@NDKBLEHK@getMessageData?$AA@
	DD	FLAT:?getMessageData@@YAHPAUlua_State@@@Z
	DD	FLAT:??_C@_0BB@POCDHCJM@StockFontBuffer2?$AA@
	DD	FLAT:?SaStockFontBuffer2@@YAHPAUlua_State@@@Z
	DD	FLAT:??_C@_0M@HAANOHN@GetInputMsg?$AA@
	DD	FLAT:?SaGetInputMsg@@YAHPAUlua_State@@@Z
	DD	FLAT:??_C@_0P@HECOHJOG@SetInputMsgNum?$AA@
	DD	FLAT:?SaSetInputMsgNum@@YAHPAUlua_State@@@Z
	DD	FLAT:??_C@_08HOMKCKLH@NewPrint?$AA@
	DD	FLAT:?NewPrint@@YAHPAUlua_State@@@Z
	DD	FLAT:??_C@_0BF@MEGLFBID@ShowBottomLineString?$AA@
	DD	FLAT:?SaShowBottomLineString@@YAHPAUlua_State@@@Z
	DD	FLAT:??_C@_04IOGGDNCH@atoi?$AA@
	DD	FLAT:?SaAtoi@@YAHPAUlua_State@@@Z
	DD	00H
	DD	00H
CONST	ENDS
PUBLIC	___local_stdio_printf_options
PUBLIC	__vfprintf_l
PUBLIC	??$__vcrt_va_start_verify_argument_type@QBD@@YAXXZ ; __vcrt_va_start_verify_argument_type<char const * const>
PUBLIC	_printf
PUBLIC	?luaopen_Win@@YAHPAUlua_State@@@Z		; luaopen_Win
PUBLIC	?_OptionsStorage@?1??__local_stdio_printf_options@@9@4_KA ; `__local_stdio_printf_options'::`2'::_OptionsStorage
PUBLIC	??_C@_03JECLAOEA@win?$AA@			; `string'
EXTRN	_strcpy:PROC
EXTRN	_strlen:PROC
EXTRN	__imp__atoi:PROC
EXTRN	__imp____acrt_iob_func:PROC
EXTRN	__imp____stdio_common_vfprintf:PROC
EXTRN	?GetKeyInputFocus@@YAXPAUSTR_BUFFER@@@Z:PROC	; GetKeyInputFocus
EXTRN	?StockFontBuffer2@@YAXPAUSTR_BUFFER@@@Z:PROC	; StockFontBuffer2
EXTRN	_lua_pushinteger:PROC
EXTRN	_lua_pushstring:PROC
EXTRN	_luaL_register:PROC
EXTRN	_luaL_checklstring:PROC
EXTRN	_luaL_checkinteger:PROC
EXTRN	?makeStringFromEscaped@@YAPADPAD@Z:PROC		; makeStringFromEscaped
EXTRN	?CheckMenuFlag@@YAHXZ:PROC			; CheckMenuFlag
EXTRN	?GetImeString@@YAPADXZ:PROC			; GetImeString
EXTRN	?getStrSplit@@YAXPAD0HHH@Z:PROC			; getStrSplit
EXTRN	?initStrBuffer@@YAXPAUSTR_BUFFER@@HHHHH@Z:PROC	; initStrBuffer
EXTRN	?ShowBottomLineString@@YAXHPAD@Z:PROC		; ShowBottomLineString
EXTRN	@_RTC_CheckStackVars@8:PROC
EXTRN	__RTC_CheckEsp:PROC
EXTRN	__RTC_InitBase:PROC
EXTRN	__RTC_Shutdown:PROC
EXTRN	?joy_trg@@3PAKA:QWORD				; joy_trg
EXTRN	?mouse@@3UMOUSE@@A:BYTE				; mouse
EXTRN	?HitFontNo@@3HA:DWORD				; HitFontNo
EXTRN	?HitDispNo@@3HA:DWORD				; HitDispNo
EXTRN	?actBtn@@3FA:WORD				; actBtn
EXTRN	?menuBtn@@3FA:WORD				; menuBtn
EXTRN	?disconnectServerFlag@@3HA:DWORD		; disconnectServerFlag
EXTRN	?cloasewindows@@3HA:DWORD			; cloasewindows
EXTRN	?windows@@3USA_WINDOWS@@A:BYTE			; windows
EXTRN	?windowTypeWN@@3HA:DWORD			; windowTypeWN
EXTRN	?wnCloseFlag@@3FA:WORD				; wnCloseFlag
EXTRN	?indexWN@@3HA:DWORD				; indexWN
EXTRN	?idWN@@3HA:DWORD				; idWN
EXTRN	?buttonTypeWN@@3HA:DWORD			; buttonTypeWN
;	COMDAT ?_OptionsStorage@?1??__local_stdio_printf_options@@9@4_KA
_BSS	SEGMENT
?_OptionsStorage@?1??__local_stdio_printf_options@@9@4_KA DQ 01H DUP (?) ; `__local_stdio_printf_options'::`2'::_OptionsStorage
_BSS	ENDS
;	COMDAT rtc$TMZ
rtc$TMZ	SEGMENT
__RTC_Shutdown.rtc$TMZ DD FLAT:__RTC_Shutdown
rtc$TMZ	ENDS
;	COMDAT rtc$IMZ
rtc$IMZ	SEGMENT
__RTC_InitBase.rtc$IMZ DD FLAT:__RTC_InitBase
rtc$IMZ	ENDS
;	COMDAT ??_C@_03JECLAOEA@win?$AA@
CONST	SEGMENT
??_C@_03JECLAOEA@win?$AA@ DB 'win', 00H			; `string'
CONST	ENDS
; Function compile flags: /Odtp /RTCsu /ZI
; File c:\users\administrator\desktop\????? ??\????? ??\client source code\mylua\win.cpp
;	COMDAT ?SaAtoi@@YAHPAUlua_State@@@Z
_TEXT	SEGMENT
_data$ = -20						; size = 4
_l$ = -8						; size = 4
_L$ = 8							; size = 4
?SaAtoi@@YAHPAUlua_State@@@Z PROC			; SaAtoi, COMDAT

; 221  : {

  00000	55		 push	 ebp
  00001	8b ec		 mov	 ebp, esp
  00003	81 ec d8 00 00
	00		 sub	 esp, 216		; 000000d8H
  00009	53		 push	 ebx
  0000a	56		 push	 esi
  0000b	57		 push	 edi
  0000c	8d bd 28 ff ff
	ff		 lea	 edi, DWORD PTR [ebp-216]
  00012	b9 36 00 00 00	 mov	 ecx, 54			; 00000036H
  00017	b8 cc cc cc cc	 mov	 eax, -858993460		; ccccccccH
  0001c	f3 ab		 rep stosd

; 222  : 	size_t l;
; 223  : 	const char *data = luaL_checklstring(L, 1, &l);

  0001e	8d 45 f8	 lea	 eax, DWORD PTR _l$[ebp]
  00021	50		 push	 eax
  00022	6a 01		 push	 1
  00024	8b 4d 08	 mov	 ecx, DWORD PTR _L$[ebp]
  00027	51		 push	 ecx
  00028	e8 00 00 00 00	 call	 _luaL_checklstring
  0002d	83 c4 0c	 add	 esp, 12			; 0000000cH
  00030	89 45 ec	 mov	 DWORD PTR _data$[ebp], eax

; 224  : 	lua_pushinteger(L,  atoi(data));

  00033	8b f4		 mov	 esi, esp
  00035	8b 45 ec	 mov	 eax, DWORD PTR _data$[ebp]
  00038	50		 push	 eax
  00039	ff 15 00 00 00
	00		 call	 DWORD PTR __imp__atoi
  0003f	83 c4 04	 add	 esp, 4
  00042	3b f4		 cmp	 esi, esp
  00044	e8 00 00 00 00	 call	 __RTC_CheckEsp
  00049	50		 push	 eax
  0004a	8b 4d 08	 mov	 ecx, DWORD PTR _L$[ebp]
  0004d	51		 push	 ecx
  0004e	e8 00 00 00 00	 call	 _lua_pushinteger
  00053	83 c4 08	 add	 esp, 8

; 225  : 	return 1;

  00056	b8 01 00 00 00	 mov	 eax, 1

; 226  : }

  0005b	52		 push	 edx
  0005c	8b cd		 mov	 ecx, ebp
  0005e	50		 push	 eax
  0005f	8d 15 00 00 00
	00		 lea	 edx, DWORD PTR $LN5@SaAtoi
  00065	e8 00 00 00 00	 call	 @_RTC_CheckStackVars@8
  0006a	58		 pop	 eax
  0006b	5a		 pop	 edx
  0006c	5f		 pop	 edi
  0006d	5e		 pop	 esi
  0006e	5b		 pop	 ebx
  0006f	81 c4 d8 00 00
	00		 add	 esp, 216		; 000000d8H
  00075	3b ec		 cmp	 ebp, esp
  00077	e8 00 00 00 00	 call	 __RTC_CheckEsp
  0007c	8b e5		 mov	 esp, ebp
  0007e	5d		 pop	 ebp
  0007f	c3		 ret	 0
$LN5@SaAtoi:
  00080	01 00 00 00	 DD	 1
  00084	00 00 00 00	 DD	 $LN4@SaAtoi
$LN4@SaAtoi:
  00088	f8 ff ff ff	 DD	 -8			; fffffff8H
  0008c	04 00 00 00	 DD	 4
  00090	00 00 00 00	 DD	 $LN3@SaAtoi
$LN3@SaAtoi:
  00094	6c		 DB	 108			; 0000006cH
  00095	00		 DB	 0
?SaAtoi@@YAHPAUlua_State@@@Z ENDP			; SaAtoi
_TEXT	ENDS
; Function compile flags: /Odtp /RTCsu /ZI
; File c:\users\administrator\desktop\????? ??\????? ??\client source code\mylua\win.cpp
;	COMDAT ?SaShowBottomLineString@@YAHPAUlua_State@@@Z
_TEXT	SEGMENT
_data$ = -32						; size = 4
_color$ = -20						; size = 4
_l$ = -8						; size = 4
_L$ = 8							; size = 4
?SaShowBottomLineString@@YAHPAUlua_State@@@Z PROC	; SaShowBottomLineString, COMDAT

; 211  : {

  00000	55		 push	 ebp
  00001	8b ec		 mov	 ebp, esp
  00003	81 ec e4 00 00
	00		 sub	 esp, 228		; 000000e4H
  00009	53		 push	 ebx
  0000a	56		 push	 esi
  0000b	57		 push	 edi
  0000c	8d bd 1c ff ff
	ff		 lea	 edi, DWORD PTR [ebp-228]
  00012	b9 39 00 00 00	 mov	 ecx, 57			; 00000039H
  00017	b8 cc cc cc cc	 mov	 eax, -858993460		; ccccccccH
  0001c	f3 ab		 rep stosd

; 212  : 	size_t l;
; 213  : 	const int color = luaL_checkint(L, 1);

  0001e	6a 01		 push	 1
  00020	8b 45 08	 mov	 eax, DWORD PTR _L$[ebp]
  00023	50		 push	 eax
  00024	e8 00 00 00 00	 call	 _luaL_checkinteger
  00029	83 c4 08	 add	 esp, 8
  0002c	89 45 ec	 mov	 DWORD PTR _color$[ebp], eax

; 214  : 	const char *data = luaL_checklstring(L, 2, &l);

  0002f	8d 45 f8	 lea	 eax, DWORD PTR _l$[ebp]
  00032	50		 push	 eax
  00033	6a 02		 push	 2
  00035	8b 4d 08	 mov	 ecx, DWORD PTR _L$[ebp]
  00038	51		 push	 ecx
  00039	e8 00 00 00 00	 call	 _luaL_checklstring
  0003e	83 c4 0c	 add	 esp, 12			; 0000000cH
  00041	89 45 e0	 mov	 DWORD PTR _data$[ebp], eax

; 215  : 	ShowBottomLineString(color,(char *)data);

  00044	8b 45 e0	 mov	 eax, DWORD PTR _data$[ebp]
  00047	50		 push	 eax
  00048	8b 4d ec	 mov	 ecx, DWORD PTR _color$[ebp]
  0004b	51		 push	 ecx
  0004c	e8 00 00 00 00	 call	 ?ShowBottomLineString@@YAXHPAD@Z ; ShowBottomLineString
  00051	83 c4 08	 add	 esp, 8

; 216  : 	return 1;

  00054	b8 01 00 00 00	 mov	 eax, 1

; 217  : }

  00059	52		 push	 edx
  0005a	8b cd		 mov	 ecx, ebp
  0005c	50		 push	 eax
  0005d	8d 15 00 00 00
	00		 lea	 edx, DWORD PTR $LN5@SaShowBott
  00063	e8 00 00 00 00	 call	 @_RTC_CheckStackVars@8
  00068	58		 pop	 eax
  00069	5a		 pop	 edx
  0006a	5f		 pop	 edi
  0006b	5e		 pop	 esi
  0006c	5b		 pop	 ebx
  0006d	81 c4 e4 00 00
	00		 add	 esp, 228		; 000000e4H
  00073	3b ec		 cmp	 ebp, esp
  00075	e8 00 00 00 00	 call	 __RTC_CheckEsp
  0007a	8b e5		 mov	 esp, ebp
  0007c	5d		 pop	 ebp
  0007d	c3		 ret	 0
  0007e	66 90		 npad	 2
$LN5@SaShowBott:
  00080	01 00 00 00	 DD	 1
  00084	00 00 00 00	 DD	 $LN4@SaShowBott
$LN4@SaShowBott:
  00088	f8 ff ff ff	 DD	 -8			; fffffff8H
  0008c	04 00 00 00	 DD	 4
  00090	00 00 00 00	 DD	 $LN3@SaShowBott
$LN3@SaShowBott:
  00094	6c		 DB	 108			; 0000006cH
  00095	00		 DB	 0
?SaShowBottomLineString@@YAHPAUlua_State@@@Z ENDP	; SaShowBottomLineString
_TEXT	ENDS
; Function compile flags: /Odtp /RTCsu /ZI
; File c:\users\administrator\desktop\????? ??\????? ??\client source code\mylua\win.cpp
;	COMDAT ?SaGetInputMsg@@YAHPAUlua_State@@@Z
_TEXT	SEGMENT
_L$ = 8							; size = 4
?SaGetInputMsg@@YAHPAUlua_State@@@Z PROC		; SaGetInputMsg, COMDAT

; 205  : {

  00000	55		 push	 ebp
  00001	8b ec		 mov	 ebp, esp
  00003	81 ec c0 00 00
	00		 sub	 esp, 192		; 000000c0H
  00009	53		 push	 ebx
  0000a	56		 push	 esi
  0000b	57		 push	 edi
  0000c	8d bd 40 ff ff
	ff		 lea	 edi, DWORD PTR [ebp-192]
  00012	b9 30 00 00 00	 mov	 ecx, 48			; 00000030H
  00017	b8 cc cc cc cc	 mov	 eax, -858993460		; ccccccccH
  0001c	f3 ab		 rep stosd

; 206  : 	lua_pushstring(L,  windows.input.buffer);

  0001e	68 04 00 00 00	 push	 OFFSET ?windows@@3USA_WINDOWS@@A+4
  00023	8b 45 08	 mov	 eax, DWORD PTR _L$[ebp]
  00026	50		 push	 eax
  00027	e8 00 00 00 00	 call	 _lua_pushstring
  0002c	83 c4 08	 add	 esp, 8

; 207  : 	return 1;

  0002f	b8 01 00 00 00	 mov	 eax, 1

; 208  : }

  00034	5f		 pop	 edi
  00035	5e		 pop	 esi
  00036	5b		 pop	 ebx
  00037	81 c4 c0 00 00
	00		 add	 esp, 192		; 000000c0H
  0003d	3b ec		 cmp	 ebp, esp
  0003f	e8 00 00 00 00	 call	 __RTC_CheckEsp
  00044	8b e5		 mov	 esp, ebp
  00046	5d		 pop	 ebp
  00047	c3		 ret	 0
?SaGetInputMsg@@YAHPAUlua_State@@@Z ENDP		; SaGetInputMsg
_TEXT	ENDS
; Function compile flags: /Odtp /RTCsu /ZI
; File c:\users\administrator\desktop\????? ??\????? ??\client source code\mylua\win.cpp
;	COMDAT ?SaSetInputMsgNum@@YAHPAUlua_State@@@Z
_TEXT	SEGMENT
_i$1 = -8						; size = 4
_L$ = 8							; size = 4
?SaSetInputMsgNum@@YAHPAUlua_State@@@Z PROC		; SaSetInputMsgNum, COMDAT

; 188  : {

  00000	55		 push	 ebp
  00001	8b ec		 mov	 ebp, esp
  00003	81 ec cc 00 00
	00		 sub	 esp, 204		; 000000ccH
  00009	53		 push	 ebx
  0000a	56		 push	 esi
  0000b	57		 push	 edi
  0000c	8d bd 34 ff ff
	ff		 lea	 edi, DWORD PTR [ebp-204]
  00012	b9 33 00 00 00	 mov	 ecx, 51			; 00000033H
  00017	b8 cc cc cc cc	 mov	 eax, -858993460		; ccccccccH
  0001c	f3 ab		 rep stosd

; 189  : 	for(int i = 0; i < windows.input.cnt;i++)

  0001e	c7 45 f8 00 00
	00 00		 mov	 DWORD PTR _i$1[ebp], 0
  00025	eb 09		 jmp	 SHORT $LN4@SaSetInput
$LN2@SaSetInput:
  00027	8b 45 f8	 mov	 eax, DWORD PTR _i$1[ebp]
  0002a	83 c0 01	 add	 eax, 1
  0002d	89 45 f8	 mov	 DWORD PTR _i$1[ebp], eax
$LN4@SaSetInput:
  00030	0f b6 05 0b 01
	00 00		 movzx	 eax, BYTE PTR ?windows@@3USA_WINDOWS@@A+267
  00037	39 45 f8	 cmp	 DWORD PTR _i$1[ebp], eax
  0003a	7d 3c		 jge	 SHORT $LN3@SaSetInput

; 190  : 	{
; 191  : 		if (windows.input.buffer[i] < '0' || windows.input.buffer[i] > '9')

  0003c	8b 45 f8	 mov	 eax, DWORD PTR _i$1[ebp]
  0003f	0f be 88 04 00
	00 00		 movsx	 ecx, BYTE PTR ?windows@@3USA_WINDOWS@@A[eax+4]
  00046	83 f9 30	 cmp	 ecx, 48			; 00000030H
  00049	7c 0f		 jl	 SHORT $LN6@SaSetInput
  0004b	8b 45 f8	 mov	 eax, DWORD PTR _i$1[ebp]
  0004e	0f be 88 04 00
	00 00		 movsx	 ecx, BYTE PTR ?windows@@3USA_WINDOWS@@A[eax+4]
  00055	83 f9 39	 cmp	 ecx, 57			; 00000039H
  00058	7e 1c		 jle	 SHORT $LN5@SaSetInput
$LN6@SaSetInput:

; 192  : 		{
; 193  : 			if(i == 0){

  0005a	83 7d f8 00	 cmp	 DWORD PTR _i$1[ebp], 0
  0005e	75 0c		 jne	 SHORT $LN7@SaSetInput

; 194  : 				windows.input.buffer[i] = '1';

  00060	8b 45 f8	 mov	 eax, DWORD PTR _i$1[ebp]
  00063	c6 80 04 00 00
	00 31		 mov	 BYTE PTR ?windows@@3USA_WINDOWS@@A[eax+4], 49 ; 00000031H

; 195  : 			}else{

  0006a	eb 0a		 jmp	 SHORT $LN5@SaSetInput
$LN7@SaSetInput:

; 196  : 				windows.input.buffer[i] = '0';

  0006c	8b 45 f8	 mov	 eax, DWORD PTR _i$1[ebp]
  0006f	c6 80 04 00 00
	00 30		 mov	 BYTE PTR ?windows@@3USA_WINDOWS@@A[eax+4], 48 ; 00000030H
$LN5@SaSetInput:

; 197  : 			}
; 198  : 		}
; 199  : 	}

  00076	eb af		 jmp	 SHORT $LN2@SaSetInput
$LN3@SaSetInput:

; 200  : 	return 1;

  00078	b8 01 00 00 00	 mov	 eax, 1

; 201  : }

  0007d	5f		 pop	 edi
  0007e	5e		 pop	 esi
  0007f	5b		 pop	 ebx
  00080	8b e5		 mov	 esp, ebp
  00082	5d		 pop	 ebp
  00083	c3		 ret	 0
?SaSetInputMsgNum@@YAHPAUlua_State@@@Z ENDP		; SaSetInputMsgNum
_TEXT	ENDS
; Function compile flags: /Odtp /RTCsu /ZI
; File c:\users\administrator\desktop\????? ??\????? ??\client source code\mylua\win.cpp
;	COMDAT ?SaStockFontBuffer2@@YAHPAUlua_State@@@Z
_TEXT	SEGMENT
_L$ = 8							; size = 4
?SaStockFontBuffer2@@YAHPAUlua_State@@@Z PROC		; SaStockFontBuffer2, COMDAT

; 183  : {

  00000	55		 push	 ebp
  00001	8b ec		 mov	 ebp, esp
  00003	81 ec c0 00 00
	00		 sub	 esp, 192		; 000000c0H
  00009	53		 push	 ebx
  0000a	56		 push	 esi
  0000b	57		 push	 edi
  0000c	8d bd 40 ff ff
	ff		 lea	 edi, DWORD PTR [ebp-192]
  00012	b9 30 00 00 00	 mov	 ecx, 48			; 00000030H
  00017	b8 cc cc cc cc	 mov	 eax, -858993460		; ccccccccH
  0001c	f3 ab		 rep stosd

; 184  : 	StockFontBuffer2(&windows.input);

  0001e	68 04 00 00 00	 push	 OFFSET ?windows@@3USA_WINDOWS@@A+4
  00023	e8 00 00 00 00	 call	 ?StockFontBuffer2@@YAXPAUSTR_BUFFER@@@Z ; StockFontBuffer2
  00028	83 c4 04	 add	 esp, 4

; 185  : 	return 1;

  0002b	b8 01 00 00 00	 mov	 eax, 1

; 186  : }

  00030	5f		 pop	 edi
  00031	5e		 pop	 esi
  00032	5b		 pop	 ebx
  00033	81 c4 c0 00 00
	00		 add	 esp, 192		; 000000c0H
  00039	3b ec		 cmp	 ebp, esp
  0003b	e8 00 00 00 00	 call	 __RTC_CheckEsp
  00040	8b e5		 mov	 esp, ebp
  00042	5d		 pop	 ebp
  00043	c3		 ret	 0
?SaStockFontBuffer2@@YAHPAUlua_State@@@Z ENDP		; SaStockFontBuffer2
_TEXT	ENDS
; Function compile flags: /Odtp /RTCsu /ZI
; File c:\users\administrator\desktop\????? ??\????? ??\client source code\mylua\win.cpp
;	COMDAT ?SaWinGetKeyInputFocus@@YAHPAUlua_State@@@Z
_TEXT	SEGMENT
_L$ = 8							; size = 4
?SaWinGetKeyInputFocus@@YAHPAUlua_State@@@Z PROC	; SaWinGetKeyInputFocus, COMDAT

; 177  : {

  00000	55		 push	 ebp
  00001	8b ec		 mov	 ebp, esp
  00003	81 ec c0 00 00
	00		 sub	 esp, 192		; 000000c0H
  00009	53		 push	 ebx
  0000a	56		 push	 esi
  0000b	57		 push	 edi
  0000c	8d bd 40 ff ff
	ff		 lea	 edi, DWORD PTR [ebp-192]
  00012	b9 30 00 00 00	 mov	 ecx, 48			; 00000030H
  00017	b8 cc cc cc cc	 mov	 eax, -858993460		; ccccccccH
  0001c	f3 ab		 rep stosd

; 178  : 	GetKeyInputFocus( &windows.input );

  0001e	68 04 00 00 00	 push	 OFFSET ?windows@@3USA_WINDOWS@@A+4
  00023	e8 00 00 00 00	 call	 ?GetKeyInputFocus@@YAXPAUSTR_BUFFER@@@Z ; GetKeyInputFocus
  00028	83 c4 04	 add	 esp, 4

; 179  : 	return 1;

  0002b	b8 01 00 00 00	 mov	 eax, 1

; 180  : }

  00030	5f		 pop	 edi
  00031	5e		 pop	 esi
  00032	5b		 pop	 ebx
  00033	81 c4 c0 00 00
	00		 add	 esp, 192		; 000000c0H
  00039	3b ec		 cmp	 ebp, esp
  0003b	e8 00 00 00 00	 call	 __RTC_CheckEsp
  00040	8b e5		 mov	 esp, ebp
  00042	5d		 pop	 ebp
  00043	c3		 ret	 0
?SaWinGetKeyInputFocus@@YAHPAUlua_State@@@Z ENDP	; SaWinGetKeyInputFocus
_TEXT	ENDS
; Function compile flags: /Odtp /RTCsu /ZI
; File c:\users\administrator\desktop\????? ??\????? ??\client source code\mylua\win.cpp
;	COMDAT ?SaInitNewStrBuffer@@YAHPAUlua_State@@@Z
_TEXT	SEGMENT
_slen$ = -92						; size = 4
_str$ = -80						; size = 4
_prio$ = -68						; size = 4
_color$ = -56						; size = 4
_len$ = -44						; size = 4
_y$ = -32						; size = 4
_x$ = -20						; size = 4
_l$ = -8						; size = 4
_L$ = 8							; size = 4
?SaInitNewStrBuffer@@YAHPAUlua_State@@@Z PROC		; SaInitNewStrBuffer, COMDAT

; 151  : {

  00000	55		 push	 ebp
  00001	8b ec		 mov	 ebp, esp
  00003	81 ec 20 01 00
	00		 sub	 esp, 288		; 00000120H
  00009	53		 push	 ebx
  0000a	56		 push	 esi
  0000b	57		 push	 edi
  0000c	8d bd e0 fe ff
	ff		 lea	 edi, DWORD PTR [ebp-288]
  00012	b9 48 00 00 00	 mov	 ecx, 72			; 00000048H
  00017	b8 cc cc cc cc	 mov	 eax, -858993460		; ccccccccH
  0001c	f3 ab		 rep stosd

; 152  : 	size_t l;
; 153  : 	const int x = luaL_checkint(L, 1);

  0001e	6a 01		 push	 1
  00020	8b 45 08	 mov	 eax, DWORD PTR _L$[ebp]
  00023	50		 push	 eax
  00024	e8 00 00 00 00	 call	 _luaL_checkinteger
  00029	83 c4 08	 add	 esp, 8
  0002c	89 45 ec	 mov	 DWORD PTR _x$[ebp], eax

; 154  : 	const int y = luaL_checkint(L, 2);

  0002f	6a 02		 push	 2
  00031	8b 45 08	 mov	 eax, DWORD PTR _L$[ebp]
  00034	50		 push	 eax
  00035	e8 00 00 00 00	 call	 _luaL_checkinteger
  0003a	83 c4 08	 add	 esp, 8
  0003d	89 45 e0	 mov	 DWORD PTR _y$[ebp], eax

; 155  : 	const int len = luaL_checkint(L, 3);

  00040	6a 03		 push	 3
  00042	8b 45 08	 mov	 eax, DWORD PTR _L$[ebp]
  00045	50		 push	 eax
  00046	e8 00 00 00 00	 call	 _luaL_checkinteger
  0004b	83 c4 08	 add	 esp, 8
  0004e	89 45 d4	 mov	 DWORD PTR _len$[ebp], eax

; 156  : 	const int color = luaL_checkint(L, 4);

  00051	6a 04		 push	 4
  00053	8b 45 08	 mov	 eax, DWORD PTR _L$[ebp]
  00056	50		 push	 eax
  00057	e8 00 00 00 00	 call	 _luaL_checkinteger
  0005c	83 c4 08	 add	 esp, 8
  0005f	89 45 c8	 mov	 DWORD PTR _color$[ebp], eax

; 157  : 	const int prio = luaL_checkint(L, 5);

  00062	6a 05		 push	 5
  00064	8b 45 08	 mov	 eax, DWORD PTR _L$[ebp]
  00067	50		 push	 eax
  00068	e8 00 00 00 00	 call	 _luaL_checkinteger
  0006d	83 c4 08	 add	 esp, 8
  00070	89 45 bc	 mov	 DWORD PTR _prio$[ebp], eax

; 158  : 	const char *str = luaL_checklstring(L, 6, &l);

  00073	8d 45 f8	 lea	 eax, DWORD PTR _l$[ebp]
  00076	50		 push	 eax
  00077	6a 06		 push	 6
  00079	8b 4d 08	 mov	 ecx, DWORD PTR _L$[ebp]
  0007c	51		 push	 ecx
  0007d	e8 00 00 00 00	 call	 _luaL_checklstring
  00082	83 c4 0c	 add	 esp, 12			; 0000000cH
  00085	89 45 b0	 mov	 DWORD PTR _str$[ebp], eax

; 159  : 	//初始化输入信息
; 160  : 	int slen = strlen((char *)str);

  00088	8b 45 b0	 mov	 eax, DWORD PTR _str$[ebp]
  0008b	50		 push	 eax
  0008c	e8 00 00 00 00	 call	 _strlen
  00091	83 c4 04	 add	 esp, 4
  00094	89 45 a4	 mov	 DWORD PTR _slen$[ebp], eax

; 161  : 	if(slen > 0){

  00097	83 7d a4 00	 cmp	 DWORD PTR _slen$[ebp], 0
  0009b	7e 23		 jle	 SHORT $LN2@SaInitNewS

; 162  : 		strcpy(windows.input.buffer, str);

  0009d	8b 45 b0	 mov	 eax, DWORD PTR _str$[ebp]
  000a0	50		 push	 eax
  000a1	68 04 00 00 00	 push	 OFFSET ?windows@@3USA_WINDOWS@@A+4
  000a6	e8 00 00 00 00	 call	 _strcpy
  000ab	83 c4 08	 add	 esp, 8

; 163  : 		windows.input.cnt = slen;

  000ae	8a 45 a4	 mov	 al, BYTE PTR _slen$[ebp]
  000b1	a2 0b 01 00 00	 mov	 BYTE PTR ?windows@@3USA_WINDOWS@@A+267, al

; 164  : 		windows.input.cursor=slen;

  000b6	8a 45 a4	 mov	 al, BYTE PTR _slen$[ebp]
  000b9	a2 0d 01 00 00	 mov	 BYTE PTR ?windows@@3USA_WINDOWS@@A+269, al

; 165  : 	}else{

  000be	eb 1d		 jmp	 SHORT $LN3@SaInitNewS
$LN2@SaInitNewS:

; 166  : 		windows.input.buffer[0] = '\0';

  000c0	b8 01 00 00 00	 mov	 eax, 1
  000c5	6b c8 00	 imul	 ecx, eax, 0
  000c8	c6 81 04 00 00
	00 00		 mov	 BYTE PTR ?windows@@3USA_WINDOWS@@A[ecx+4], 0

; 167  : 		windows.input.cnt = 0;

  000cf	c6 05 0b 01 00
	00 00		 mov	 BYTE PTR ?windows@@3USA_WINDOWS@@A+267, 0

; 168  : 		windows.input.cursor=0;

  000d6	c6 05 0d 01 00
	00 00		 mov	 BYTE PTR ?windows@@3USA_WINDOWS@@A+269, 0
$LN3@SaInitNewS:

; 169  : 		
; 170  : 	}	
; 171  : 	initStrBuffer( &windows.input, x, y, len, color, prio );

  000dd	8b 45 bc	 mov	 eax, DWORD PTR _prio$[ebp]
  000e0	50		 push	 eax
  000e1	8b 4d c8	 mov	 ecx, DWORD PTR _color$[ebp]
  000e4	51		 push	 ecx
  000e5	8b 55 d4	 mov	 edx, DWORD PTR _len$[ebp]
  000e8	52		 push	 edx
  000e9	8b 45 e0	 mov	 eax, DWORD PTR _y$[ebp]
  000ec	50		 push	 eax
  000ed	8b 4d ec	 mov	 ecx, DWORD PTR _x$[ebp]
  000f0	51		 push	 ecx
  000f1	68 04 00 00 00	 push	 OFFSET ?windows@@3USA_WINDOWS@@A+4
  000f6	e8 00 00 00 00	 call	 ?initStrBuffer@@YAXPAUSTR_BUFFER@@HHHHH@Z ; initStrBuffer
  000fb	83 c4 18	 add	 esp, 24			; 00000018H

; 172  : 	
; 173  : 	return 1;

  000fe	b8 01 00 00 00	 mov	 eax, 1

; 174  : }

  00103	52		 push	 edx
  00104	8b cd		 mov	 ecx, ebp
  00106	50		 push	 eax
  00107	8d 15 00 00 00
	00		 lea	 edx, DWORD PTR $LN7@SaInitNewS
  0010d	e8 00 00 00 00	 call	 @_RTC_CheckStackVars@8
  00112	58		 pop	 eax
  00113	5a		 pop	 edx
  00114	5f		 pop	 edi
  00115	5e		 pop	 esi
  00116	5b		 pop	 ebx
  00117	81 c4 20 01 00
	00		 add	 esp, 288		; 00000120H
  0011d	3b ec		 cmp	 ebp, esp
  0011f	e8 00 00 00 00	 call	 __RTC_CheckEsp
  00124	8b e5		 mov	 esp, ebp
  00126	5d		 pop	 ebp
  00127	c3		 ret	 0
$LN7@SaInitNewS:
  00128	01 00 00 00	 DD	 1
  0012c	00 00 00 00	 DD	 $LN6@SaInitNewS
$LN6@SaInitNewS:
  00130	f8 ff ff ff	 DD	 -8			; fffffff8H
  00134	04 00 00 00	 DD	 4
  00138	00 00 00 00	 DD	 $LN5@SaInitNewS
$LN5@SaInitNewS:
  0013c	6c		 DB	 108			; 0000006cH
  0013d	00		 DB	 0
?SaInitNewStrBuffer@@YAHPAUlua_State@@@Z ENDP		; SaInitNewStrBuffer
_TEXT	ENDS
; Function compile flags: /Odtp /RTCsu /ZI
; File c:\users\administrator\desktop\????? ??\????? ??\client source code\mylua\win.cpp
;	COMDAT ?SaInitStrBuffer@@YAHPAUlua_State@@@Z
_TEXT	SEGMENT
_prio$ = -56						; size = 4
_color$ = -44						; size = 4
_len$ = -32						; size = 4
_y$ = -20						; size = 4
_x$ = -8						; size = 4
_L$ = 8							; size = 4
?SaInitStrBuffer@@YAHPAUlua_State@@@Z PROC		; SaInitStrBuffer, COMDAT

; 136  : {

  00000	55		 push	 ebp
  00001	8b ec		 mov	 ebp, esp
  00003	81 ec fc 00 00
	00		 sub	 esp, 252		; 000000fcH
  00009	53		 push	 ebx
  0000a	56		 push	 esi
  0000b	57		 push	 edi
  0000c	8d bd 04 ff ff
	ff		 lea	 edi, DWORD PTR [ebp-252]
  00012	b9 3f 00 00 00	 mov	 ecx, 63			; 0000003fH
  00017	b8 cc cc cc cc	 mov	 eax, -858993460		; ccccccccH
  0001c	f3 ab		 rep stosd

; 137  : 	const int x = luaL_checkint(L, 1);

  0001e	6a 01		 push	 1
  00020	8b 45 08	 mov	 eax, DWORD PTR _L$[ebp]
  00023	50		 push	 eax
  00024	e8 00 00 00 00	 call	 _luaL_checkinteger
  00029	83 c4 08	 add	 esp, 8
  0002c	89 45 f8	 mov	 DWORD PTR _x$[ebp], eax

; 138  : 	const int y = luaL_checkint(L, 2);

  0002f	6a 02		 push	 2
  00031	8b 45 08	 mov	 eax, DWORD PTR _L$[ebp]
  00034	50		 push	 eax
  00035	e8 00 00 00 00	 call	 _luaL_checkinteger
  0003a	83 c4 08	 add	 esp, 8
  0003d	89 45 ec	 mov	 DWORD PTR _y$[ebp], eax

; 139  : 	const int len = luaL_checkint(L, 3);

  00040	6a 03		 push	 3
  00042	8b 45 08	 mov	 eax, DWORD PTR _L$[ebp]
  00045	50		 push	 eax
  00046	e8 00 00 00 00	 call	 _luaL_checkinteger
  0004b	83 c4 08	 add	 esp, 8
  0004e	89 45 e0	 mov	 DWORD PTR _len$[ebp], eax

; 140  : 	const int color = luaL_checkint(L, 4);

  00051	6a 04		 push	 4
  00053	8b 45 08	 mov	 eax, DWORD PTR _L$[ebp]
  00056	50		 push	 eax
  00057	e8 00 00 00 00	 call	 _luaL_checkinteger
  0005c	83 c4 08	 add	 esp, 8
  0005f	89 45 d4	 mov	 DWORD PTR _color$[ebp], eax

; 141  : 	const int prio = luaL_checkint(L, 5);

  00062	6a 05		 push	 5
  00064	8b 45 08	 mov	 eax, DWORD PTR _L$[ebp]
  00067	50		 push	 eax
  00068	e8 00 00 00 00	 call	 _luaL_checkinteger
  0006d	83 c4 08	 add	 esp, 8
  00070	89 45 c8	 mov	 DWORD PTR _prio$[ebp], eax

; 142  : 	//初始化输入信息
; 143  : 	windows.input.buffer[0] = '\0';

  00073	b8 01 00 00 00	 mov	 eax, 1
  00078	6b c8 00	 imul	 ecx, eax, 0
  0007b	c6 81 04 00 00
	00 00		 mov	 BYTE PTR ?windows@@3USA_WINDOWS@@A[ecx+4], 0

; 144  : 	windows.input.cnt = 0;

  00082	c6 05 0b 01 00
	00 00		 mov	 BYTE PTR ?windows@@3USA_WINDOWS@@A+267, 0

; 145  : 	windows.input.cursor=0;

  00089	c6 05 0d 01 00
	00 00		 mov	 BYTE PTR ?windows@@3USA_WINDOWS@@A+269, 0

; 146  : 	initStrBuffer( &windows.input, x, y, len, color, prio );

  00090	8b 45 c8	 mov	 eax, DWORD PTR _prio$[ebp]
  00093	50		 push	 eax
  00094	8b 4d d4	 mov	 ecx, DWORD PTR _color$[ebp]
  00097	51		 push	 ecx
  00098	8b 55 e0	 mov	 edx, DWORD PTR _len$[ebp]
  0009b	52		 push	 edx
  0009c	8b 45 ec	 mov	 eax, DWORD PTR _y$[ebp]
  0009f	50		 push	 eax
  000a0	8b 4d f8	 mov	 ecx, DWORD PTR _x$[ebp]
  000a3	51		 push	 ecx
  000a4	68 04 00 00 00	 push	 OFFSET ?windows@@3USA_WINDOWS@@A+4
  000a9	e8 00 00 00 00	 call	 ?initStrBuffer@@YAXPAUSTR_BUFFER@@HHHHH@Z ; initStrBuffer
  000ae	83 c4 18	 add	 esp, 24			; 00000018H

; 147  : 	return 1;

  000b1	b8 01 00 00 00	 mov	 eax, 1

; 148  : }

  000b6	5f		 pop	 edi
  000b7	5e		 pop	 esi
  000b8	5b		 pop	 ebx
  000b9	81 c4 fc 00 00
	00		 add	 esp, 252		; 000000fcH
  000bf	3b ec		 cmp	 ebp, esp
  000c1	e8 00 00 00 00	 call	 __RTC_CheckEsp
  000c6	8b e5		 mov	 esp, ebp
  000c8	5d		 pop	 ebp
  000c9	c3		 ret	 0
?SaInitStrBuffer@@YAHPAUlua_State@@@Z ENDP		; SaInitStrBuffer
_TEXT	ENDS
; Function compile flags: /Odtp /RTCsu /ZI
; File c:\users\administrator\desktop\????? ??\????? ??\client source code\mylua\win.cpp
;	COMDAT ?DelWindow@@YAHPAUlua_State@@@Z
_TEXT	SEGMENT
_L$ = 8							; size = 4
?DelWindow@@YAHPAUlua_State@@@Z PROC			; DelWindow, COMDAT

; 114  : {

  00000	55		 push	 ebp
  00001	8b ec		 mov	 ebp, esp
  00003	81 ec c0 00 00
	00		 sub	 esp, 192		; 000000c0H
  00009	53		 push	 ebx
  0000a	56		 push	 esi
  0000b	57		 push	 edi
  0000c	8d bd 40 ff ff
	ff		 lea	 edi, DWORD PTR [ebp-192]
  00012	b9 30 00 00 00	 mov	 ecx, 48			; 00000030H
  00017	b8 cc cc cc cc	 mov	 eax, -858993460		; ccccccccH
  0001c	f3 ab		 rep stosd

; 115  : 	if( CheckMenuFlag()
; 116  : 		|| ((joy_trg[ 0 ] & JOY_ESC) && GetImeString() == NULL)
; 117  : 		|| actBtn == 1
; 118  : 		|| menuBtn == 1
; 119  : 		|| disconnectServerFlag == TRUE
; 120  : 		|| wnCloseFlag == 1 
; 121  : 		|| cloasewindows == 1)

  0001e	e8 00 00 00 00	 call	 ?CheckMenuFlag@@YAHXZ	; CheckMenuFlag
  00023	85 c0		 test	 eax, eax
  00025	75 55		 jne	 SHORT $LN4@DelWindow
  00027	b8 04 00 00 00	 mov	 eax, 4
  0002c	6b c8 00	 imul	 ecx, eax, 0
  0002f	8b 91 00 00 00
	00		 mov	 edx, DWORD PTR ?joy_trg@@3PAKA[ecx]
  00035	81 e2 00 00 00
	80		 and	 edx, -2147483648	; 80000000H
  0003b	74 09		 je	 SHORT $LN5@DelWindow
  0003d	e8 00 00 00 00	 call	 ?GetImeString@@YAPADXZ	; GetImeString
  00042	85 c0		 test	 eax, eax
  00044	74 36		 je	 SHORT $LN4@DelWindow
$LN5@DelWindow:
  00046	0f bf 05 00 00
	00 00		 movsx	 eax, WORD PTR ?actBtn@@3FA ; actBtn
  0004d	83 f8 01	 cmp	 eax, 1
  00050	74 2a		 je	 SHORT $LN4@DelWindow
  00052	0f bf 05 00 00
	00 00		 movsx	 eax, WORD PTR ?menuBtn@@3FA ; menuBtn
  00059	83 f8 01	 cmp	 eax, 1
  0005c	74 1e		 je	 SHORT $LN4@DelWindow
  0005e	83 3d 00 00 00
	00 01		 cmp	 DWORD PTR ?disconnectServerFlag@@3HA, 1 ; disconnectServerFlag
  00065	74 15		 je	 SHORT $LN4@DelWindow
  00067	0f bf 05 00 00
	00 00		 movsx	 eax, WORD PTR ?wnCloseFlag@@3FA ; wnCloseFlag
  0006e	83 f8 01	 cmp	 eax, 1
  00071	74 09		 je	 SHORT $LN4@DelWindow
  00073	83 3d 00 00 00
	00 01		 cmp	 DWORD PTR ?cloasewindows@@3HA, 1 ; cloasewindows
  0007a	75 29		 jne	 SHORT $LN2@DelWindow
$LN4@DelWindow:

; 122  : 	{
; 123  : #ifdef _Jason_修复外挂原登问题
; 124  : 		LUA_WINDOW_OPEN = false;

  0007c	c6 05 00 00 00
	00 00		 mov	 BYTE PTR ?LUA_WINDOW_OPEN@@3_NA, 0 ; LUA_WINDOW_OPEN

; 125  : #endif
; 126  : 		wnCloseFlag = 0;

  00083	33 c0		 xor	 eax, eax
  00085	66 a3 00 00 00
	00		 mov	 WORD PTR ?wnCloseFlag@@3FA, ax ; wnCloseFlag

; 127  : 		cloasewindows = 0;

  0008b	c7 05 00 00 00
	00 00 00 00 00	 mov	 DWORD PTR ?cloasewindows@@3HA, 0 ; cloasewindows

; 128  : 		lua_pushinteger(L,  1);

  00095	6a 01		 push	 1
  00097	8b 45 08	 mov	 eax, DWORD PTR _L$[ebp]
  0009a	50		 push	 eax
  0009b	e8 00 00 00 00	 call	 _lua_pushinteger
  000a0	83 c4 08	 add	 esp, 8

; 129  : 	}else{

  000a3	eb 0e		 jmp	 SHORT $LN3@DelWindow
$LN2@DelWindow:

; 130  : 		lua_pushinteger(L,  0);

  000a5	6a 00		 push	 0
  000a7	8b 45 08	 mov	 eax, DWORD PTR _L$[ebp]
  000aa	50		 push	 eax
  000ab	e8 00 00 00 00	 call	 _lua_pushinteger
  000b0	83 c4 08	 add	 esp, 8
$LN3@DelWindow:

; 131  : 	}
; 132  : 	return 1;

  000b3	b8 01 00 00 00	 mov	 eax, 1

; 133  : }

  000b8	5f		 pop	 edi
  000b9	5e		 pop	 esi
  000ba	5b		 pop	 ebx
  000bb	81 c4 c0 00 00
	00		 add	 esp, 192		; 000000c0H
  000c1	3b ec		 cmp	 ebp, esp
  000c3	e8 00 00 00 00	 call	 __RTC_CheckEsp
  000c8	8b e5		 mov	 esp, ebp
  000ca	5d		 pop	 ebp
  000cb	c3		 ret	 0
?DelWindow@@YAHPAUlua_State@@@Z ENDP			; DelWindow
_TEXT	ENDS
; Function compile flags: /Odtp /RTCsu /ZI
; File c:\users\administrator\desktop\????? ??\????? ??\client source code\mylua\win.cpp
;	COMDAT ?CloseFlg@@YAHPAUlua_State@@@Z
_TEXT	SEGMENT
_L$ = 8							; size = 4
?CloseFlg@@YAHPAUlua_State@@@Z PROC			; CloseFlg, COMDAT

; 108  : {

  00000	55		 push	 ebp
  00001	8b ec		 mov	 ebp, esp
  00003	81 ec c0 00 00
	00		 sub	 esp, 192		; 000000c0H
  00009	53		 push	 ebx
  0000a	56		 push	 esi
  0000b	57		 push	 edi
  0000c	8d bd 40 ff ff
	ff		 lea	 edi, DWORD PTR [ebp-192]
  00012	b9 30 00 00 00	 mov	 ecx, 48			; 00000030H
  00017	b8 cc cc cc cc	 mov	 eax, -858993460		; ccccccccH
  0001c	f3 ab		 rep stosd

; 109  : 	wnCloseFlag = 0;

  0001e	33 c0		 xor	 eax, eax
  00020	66 a3 00 00 00
	00		 mov	 WORD PTR ?wnCloseFlag@@3FA, ax ; wnCloseFlag

; 110  : 	return 1;

  00026	b8 01 00 00 00	 mov	 eax, 1

; 111  : }

  0002b	5f		 pop	 edi
  0002c	5e		 pop	 esi
  0002d	5b		 pop	 ebx
  0002e	8b e5		 mov	 esp, ebp
  00030	5d		 pop	 ebp
  00031	c3		 ret	 0
?CloseFlg@@YAHPAUlua_State@@@Z ENDP			; CloseFlg
_TEXT	ENDS
; Function compile flags: /Odtp /RTCsu /ZI
; File c:\users\administrator\desktop\????? ??\????? ??\client source code\mylua\win.cpp
;	COMDAT ?CloseWindow@@YAHPAUlua_State@@@Z
_TEXT	SEGMENT
_L$ = 8							; size = 4
?CloseWindow@@YAHPAUlua_State@@@Z PROC			; CloseWindow, COMDAT

; 98   : {

  00000	55		 push	 ebp
  00001	8b ec		 mov	 ebp, esp
  00003	81 ec c0 00 00
	00		 sub	 esp, 192		; 000000c0H
  00009	53		 push	 ebx
  0000a	56		 push	 esi
  0000b	57		 push	 edi
  0000c	8d bd 40 ff ff
	ff		 lea	 edi, DWORD PTR [ebp-192]
  00012	b9 30 00 00 00	 mov	 ecx, 48			; 00000030H
  00017	b8 cc cc cc cc	 mov	 eax, -858993460		; ccccccccH
  0001c	f3 ab		 rep stosd

; 99   : #ifdef _Jason_修复外挂原登问题
; 100  : 	LUA_WINDOW_OPEN = false;

  0001e	c6 05 00 00 00
	00 00		 mov	 BYTE PTR ?LUA_WINDOW_OPEN@@3_NA, 0 ; LUA_WINDOW_OPEN

; 101  : #endif
; 102  : 	windowTypeWN = -1;

  00025	c7 05 00 00 00
	00 ff ff ff ff	 mov	 DWORD PTR ?windowTypeWN@@3HA, -1 ; windowTypeWN

; 103  : 	wnCloseFlag = 1;

  0002f	b8 01 00 00 00	 mov	 eax, 1
  00034	66 a3 00 00 00
	00		 mov	 WORD PTR ?wnCloseFlag@@3FA, ax ; wnCloseFlag

; 104  : 	return 1;

  0003a	b8 01 00 00 00	 mov	 eax, 1

; 105  : }

  0003f	5f		 pop	 edi
  00040	5e		 pop	 esi
  00041	5b		 pop	 ebx
  00042	8b e5		 mov	 esp, ebp
  00044	5d		 pop	 ebp
  00045	c3		 ret	 0
?CloseWindow@@YAHPAUlua_State@@@Z ENDP			; CloseWindow
_TEXT	ENDS
; Function compile flags: /Odtp /RTCsu /ZI
; File c:\users\administrator\desktop\????? ??\????? ??\client source code\mylua\win.cpp
;	COMDAT ?getHitDispNo@@YAHPAUlua_State@@@Z
_TEXT	SEGMENT
_L$ = 8							; size = 4
?getHitDispNo@@YAHPAUlua_State@@@Z PROC			; getHitDispNo, COMDAT

; 92   : {

  00000	55		 push	 ebp
  00001	8b ec		 mov	 ebp, esp
  00003	81 ec c0 00 00
	00		 sub	 esp, 192		; 000000c0H
  00009	53		 push	 ebx
  0000a	56		 push	 esi
  0000b	57		 push	 edi
  0000c	8d bd 40 ff ff
	ff		 lea	 edi, DWORD PTR [ebp-192]
  00012	b9 30 00 00 00	 mov	 ecx, 48			; 00000030H
  00017	b8 cc cc cc cc	 mov	 eax, -858993460		; ccccccccH
  0001c	f3 ab		 rep stosd

; 93   : 	lua_pushinteger(L,  HitDispNo);

  0001e	a1 00 00 00 00	 mov	 eax, DWORD PTR ?HitDispNo@@3HA ; HitDispNo
  00023	50		 push	 eax
  00024	8b 4d 08	 mov	 ecx, DWORD PTR _L$[ebp]
  00027	51		 push	 ecx
  00028	e8 00 00 00 00	 call	 _lua_pushinteger
  0002d	83 c4 08	 add	 esp, 8

; 94   : 	return 1;

  00030	b8 01 00 00 00	 mov	 eax, 1

; 95   : }

  00035	5f		 pop	 edi
  00036	5e		 pop	 esi
  00037	5b		 pop	 ebx
  00038	81 c4 c0 00 00
	00		 add	 esp, 192		; 000000c0H
  0003e	3b ec		 cmp	 ebp, esp
  00040	e8 00 00 00 00	 call	 __RTC_CheckEsp
  00045	8b e5		 mov	 esp, ebp
  00047	5d		 pop	 ebp
  00048	c3		 ret	 0
?getHitDispNo@@YAHPAUlua_State@@@Z ENDP			; getHitDispNo
_TEXT	ENDS
; Function compile flags: /Odtp /RTCsu /ZI
; File c:\users\administrator\desktop\????? ??\????? ??\client source code\mylua\win.cpp
;	COMDAT ?getHitFontNo@@YAHPAUlua_State@@@Z
_TEXT	SEGMENT
_L$ = 8							; size = 4
?getHitFontNo@@YAHPAUlua_State@@@Z PROC			; getHitFontNo, COMDAT

; 86   : {

  00000	55		 push	 ebp
  00001	8b ec		 mov	 ebp, esp
  00003	81 ec c0 00 00
	00		 sub	 esp, 192		; 000000c0H
  00009	53		 push	 ebx
  0000a	56		 push	 esi
  0000b	57		 push	 edi
  0000c	8d bd 40 ff ff
	ff		 lea	 edi, DWORD PTR [ebp-192]
  00012	b9 30 00 00 00	 mov	 ecx, 48			; 00000030H
  00017	b8 cc cc cc cc	 mov	 eax, -858993460		; ccccccccH
  0001c	f3 ab		 rep stosd

; 87   : 	lua_pushinteger(L,  HitFontNo);

  0001e	a1 00 00 00 00	 mov	 eax, DWORD PTR ?HitFontNo@@3HA ; HitFontNo
  00023	50		 push	 eax
  00024	8b 4d 08	 mov	 ecx, DWORD PTR _L$[ebp]
  00027	51		 push	 ecx
  00028	e8 00 00 00 00	 call	 _lua_pushinteger
  0002d	83 c4 08	 add	 esp, 8

; 88   : 	return 1;

  00030	b8 01 00 00 00	 mov	 eax, 1

; 89   : }

  00035	5f		 pop	 edi
  00036	5e		 pop	 esi
  00037	5b		 pop	 ebx
  00038	81 c4 c0 00 00
	00		 add	 esp, 192		; 000000c0H
  0003e	3b ec		 cmp	 ebp, esp
  00040	e8 00 00 00 00	 call	 __RTC_CheckEsp
  00045	8b e5		 mov	 esp, ebp
  00047	5d		 pop	 ebp
  00048	c3		 ret	 0
?getHitFontNo@@YAHPAUlua_State@@@Z ENDP			; getHitFontNo
_TEXT	ENDS
; Function compile flags: /Odtp /RTCsu /ZI
; File c:\users\administrator\desktop\????? ??\????? ??\client source code\mylua\win.cpp
;	COMDAT ?getButtonTypeWN@@YAHPAUlua_State@@@Z
_TEXT	SEGMENT
_L$ = 8							; size = 4
?getButtonTypeWN@@YAHPAUlua_State@@@Z PROC		; getButtonTypeWN, COMDAT

; 79   : {

  00000	55		 push	 ebp
  00001	8b ec		 mov	 ebp, esp
  00003	81 ec c0 00 00
	00		 sub	 esp, 192		; 000000c0H
  00009	53		 push	 ebx
  0000a	56		 push	 esi
  0000b	57		 push	 edi
  0000c	8d bd 40 ff ff
	ff		 lea	 edi, DWORD PTR [ebp-192]
  00012	b9 30 00 00 00	 mov	 ecx, 48			; 00000030H
  00017	b8 cc cc cc cc	 mov	 eax, -858993460		; ccccccccH
  0001c	f3 ab		 rep stosd

; 80   : 	lua_pushinteger(L,  buttonTypeWN);

  0001e	a1 00 00 00 00	 mov	 eax, DWORD PTR ?buttonTypeWN@@3HA ; buttonTypeWN
  00023	50		 push	 eax
  00024	8b 4d 08	 mov	 ecx, DWORD PTR _L$[ebp]
  00027	51		 push	 ecx
  00028	e8 00 00 00 00	 call	 _lua_pushinteger
  0002d	83 c4 08	 add	 esp, 8

; 81   : 	return 1;

  00030	b8 01 00 00 00	 mov	 eax, 1

; 82   : }

  00035	5f		 pop	 edi
  00036	5e		 pop	 esi
  00037	5b		 pop	 ebx
  00038	81 c4 c0 00 00
	00		 add	 esp, 192		; 000000c0H
  0003e	3b ec		 cmp	 ebp, esp
  00040	e8 00 00 00 00	 call	 __RTC_CheckEsp
  00045	8b e5		 mov	 esp, ebp
  00047	5d		 pop	 ebp
  00048	c3		 ret	 0
?getButtonTypeWN@@YAHPAUlua_State@@@Z ENDP		; getButtonTypeWN
_TEXT	ENDS
; Function compile flags: /Odtp /RTCsu /ZI
; File c:\users\administrator\desktop\????? ??\????? ??\client source code\mylua\win.cpp
;	COMDAT ?getIdWN@@YAHPAUlua_State@@@Z
_TEXT	SEGMENT
_L$ = 8							; size = 4
?getIdWN@@YAHPAUlua_State@@@Z PROC			; getIdWN, COMDAT

; 72   : {

  00000	55		 push	 ebp
  00001	8b ec		 mov	 ebp, esp
  00003	81 ec c0 00 00
	00		 sub	 esp, 192		; 000000c0H
  00009	53		 push	 ebx
  0000a	56		 push	 esi
  0000b	57		 push	 edi
  0000c	8d bd 40 ff ff
	ff		 lea	 edi, DWORD PTR [ebp-192]
  00012	b9 30 00 00 00	 mov	 ecx, 48			; 00000030H
  00017	b8 cc cc cc cc	 mov	 eax, -858993460		; ccccccccH
  0001c	f3 ab		 rep stosd

; 73   : 	lua_pushinteger(L,  idWN);

  0001e	a1 00 00 00 00	 mov	 eax, DWORD PTR ?idWN@@3HA ; idWN
  00023	50		 push	 eax
  00024	8b 4d 08	 mov	 ecx, DWORD PTR _L$[ebp]
  00027	51		 push	 ecx
  00028	e8 00 00 00 00	 call	 _lua_pushinteger
  0002d	83 c4 08	 add	 esp, 8

; 74   : 	return 1;

  00030	b8 01 00 00 00	 mov	 eax, 1

; 75   : }

  00035	5f		 pop	 edi
  00036	5e		 pop	 esi
  00037	5b		 pop	 ebx
  00038	81 c4 c0 00 00
	00		 add	 esp, 192		; 000000c0H
  0003e	3b ec		 cmp	 ebp, esp
  00040	e8 00 00 00 00	 call	 __RTC_CheckEsp
  00045	8b e5		 mov	 esp, ebp
  00047	5d		 pop	 ebp
  00048	c3		 ret	 0
?getIdWN@@YAHPAUlua_State@@@Z ENDP			; getIdWN
_TEXT	ENDS
; Function compile flags: /Odtp /RTCsu /ZI
; File c:\users\administrator\desktop\????? ??\????? ??\client source code\mylua\win.cpp
;	COMDAT ?getIndexWN@@YAHPAUlua_State@@@Z
_TEXT	SEGMENT
_L$ = 8							; size = 4
?getIndexWN@@YAHPAUlua_State@@@Z PROC			; getIndexWN, COMDAT

; 66   : {

  00000	55		 push	 ebp
  00001	8b ec		 mov	 ebp, esp
  00003	81 ec c0 00 00
	00		 sub	 esp, 192		; 000000c0H
  00009	53		 push	 ebx
  0000a	56		 push	 esi
  0000b	57		 push	 edi
  0000c	8d bd 40 ff ff
	ff		 lea	 edi, DWORD PTR [ebp-192]
  00012	b9 30 00 00 00	 mov	 ecx, 48			; 00000030H
  00017	b8 cc cc cc cc	 mov	 eax, -858993460		; ccccccccH
  0001c	f3 ab		 rep stosd

; 67   : 	lua_pushinteger(L, indexWN);

  0001e	a1 00 00 00 00	 mov	 eax, DWORD PTR ?indexWN@@3HA ; indexWN
  00023	50		 push	 eax
  00024	8b 4d 08	 mov	 ecx, DWORD PTR _L$[ebp]
  00027	51		 push	 ecx
  00028	e8 00 00 00 00	 call	 _lua_pushinteger
  0002d	83 c4 08	 add	 esp, 8

; 68   : 	return 1;

  00030	b8 01 00 00 00	 mov	 eax, 1

; 69   : }

  00035	5f		 pop	 edi
  00036	5e		 pop	 esi
  00037	5b		 pop	 ebx
  00038	81 c4 c0 00 00
	00		 add	 esp, 192		; 000000c0H
  0003e	3b ec		 cmp	 ebp, esp
  00040	e8 00 00 00 00	 call	 __RTC_CheckEsp
  00045	8b e5		 mov	 esp, ebp
  00047	5d		 pop	 ebp
  00048	c3		 ret	 0
?getIndexWN@@YAHPAUlua_State@@@Z ENDP			; getIndexWN
_TEXT	ENDS
; Function compile flags: /Odtp /RTCsu /ZI
; File c:\users\administrator\desktop\????? ??\????? ??\client source code\mylua\win.cpp
;	COMDAT ?getMouseLeftCrick@@YAHPAUlua_State@@@Z
_TEXT	SEGMENT
_L$ = 8							; size = 4
?getMouseLeftCrick@@YAHPAUlua_State@@@Z PROC		; getMouseLeftCrick, COMDAT

; 59   : {

  00000	55		 push	 ebp
  00001	8b ec		 mov	 ebp, esp
  00003	81 ec c0 00 00
	00		 sub	 esp, 192		; 000000c0H
  00009	53		 push	 ebx
  0000a	56		 push	 esi
  0000b	57		 push	 edi
  0000c	8d bd 40 ff ff
	ff		 lea	 edi, DWORD PTR [ebp-192]
  00012	b9 30 00 00 00	 mov	 ecx, 48			; 00000030H
  00017	b8 cc cc cc cc	 mov	 eax, -858993460		; ccccccccH
  0001c	f3 ab		 rep stosd

; 60   : 	lua_pushinteger(L, (mouse.onceState & MOUSE_LEFT_CRICK));

  0001e	a1 2c 00 00 00	 mov	 eax, DWORD PTR ?mouse@@3UMOUSE@@A+44
  00023	83 e0 01	 and	 eax, 1
  00026	50		 push	 eax
  00027	8b 4d 08	 mov	 ecx, DWORD PTR _L$[ebp]
  0002a	51		 push	 ecx
  0002b	e8 00 00 00 00	 call	 _lua_pushinteger
  00030	83 c4 08	 add	 esp, 8

; 61   : 	return 1;

  00033	b8 01 00 00 00	 mov	 eax, 1

; 62   : }

  00038	5f		 pop	 edi
  00039	5e		 pop	 esi
  0003a	5b		 pop	 ebx
  0003b	81 c4 c0 00 00
	00		 add	 esp, 192		; 000000c0H
  00041	3b ec		 cmp	 ebp, esp
  00043	e8 00 00 00 00	 call	 __RTC_CheckEsp
  00048	8b e5		 mov	 esp, ebp
  0004a	5d		 pop	 ebp
  0004b	c3		 ret	 0
?getMouseLeftCrick@@YAHPAUlua_State@@@Z ENDP		; getMouseLeftCrick
_TEXT	ENDS
; Function compile flags: /Odtp /RTCsu /ZI
; File c:\users\administrator\desktop\????? ??\????? ??\client source code\mylua\win.cpp
;	COMDAT ?getMessageData@@YAHPAUlua_State@@@Z
_TEXT	SEGMENT
_id$ = -8						; size = 4
_L$ = 8							; size = 4
?getMessageData@@YAHPAUlua_State@@@Z PROC		; getMessageData, COMDAT

; 53   : {

  00000	55		 push	 ebp
  00001	8b ec		 mov	 ebp, esp
  00003	81 ec cc 00 00
	00		 sub	 esp, 204		; 000000ccH
  00009	53		 push	 ebx
  0000a	56		 push	 esi
  0000b	57		 push	 edi
  0000c	8d bd 34 ff ff
	ff		 lea	 edi, DWORD PTR [ebp-204]
  00012	b9 33 00 00 00	 mov	 ecx, 51			; 00000033H
  00017	b8 cc cc cc cc	 mov	 eax, -858993460		; ccccccccH
  0001c	f3 ab		 rep stosd

; 54   : 	const int id = luaL_checkint(L, 1);

  0001e	6a 01		 push	 1
  00020	8b 45 08	 mov	 eax, DWORD PTR _L$[ebp]
  00023	50		 push	 eax
  00024	e8 00 00 00 00	 call	 _luaL_checkinteger
  00029	83 c4 08	 add	 esp, 8
  0002c	89 45 f8	 mov	 DWORD PTR _id$[ebp], eax

; 55   : 	lua_pushstring(L, windows.message.data[id]);

  0002f	6b 45 f8 64	 imul	 eax, DWORD PTR _id$[ebp], 100
  00033	05 2c 01 00 00	 add	 eax, OFFSET ?windows@@3USA_WINDOWS@@A+300
  00038	50		 push	 eax
  00039	8b 4d 08	 mov	 ecx, DWORD PTR _L$[ebp]
  0003c	51		 push	 ecx
  0003d	e8 00 00 00 00	 call	 _lua_pushstring
  00042	83 c4 08	 add	 esp, 8

; 56   : 	return 1;

  00045	b8 01 00 00 00	 mov	 eax, 1

; 57   : }

  0004a	5f		 pop	 edi
  0004b	5e		 pop	 esi
  0004c	5b		 pop	 ebx
  0004d	81 c4 cc 00 00
	00		 add	 esp, 204		; 000000ccH
  00053	3b ec		 cmp	 ebp, esp
  00055	e8 00 00 00 00	 call	 __RTC_CheckEsp
  0005a	8b e5		 mov	 esp, ebp
  0005c	5d		 pop	 ebp
  0005d	c3		 ret	 0
?getMessageData@@YAHPAUlua_State@@@Z ENDP		; getMessageData
_TEXT	ENDS
; Function compile flags: /Odtp /RTCsu /ZI
; File c:\users\administrator\desktop\????? ??\????? ??\client source code\mylua\win.cpp
;	COMDAT ?NewPrint@@YAHPAUlua_State@@@Z
_TEXT	SEGMENT
_data$ = -20						; size = 4
_l$ = -8						; size = 4
_L$ = 8							; size = 4
?NewPrint@@YAHPAUlua_State@@@Z PROC			; NewPrint, COMDAT

; 43   : {

  00000	55		 push	 ebp
  00001	8b ec		 mov	 ebp, esp
  00003	81 ec d8 00 00
	00		 sub	 esp, 216		; 000000d8H
  00009	53		 push	 ebx
  0000a	56		 push	 esi
  0000b	57		 push	 edi
  0000c	8d bd 28 ff ff
	ff		 lea	 edi, DWORD PTR [ebp-216]
  00012	b9 36 00 00 00	 mov	 ecx, 54			; 00000036H
  00017	b8 cc cc cc cc	 mov	 eax, -858993460		; ccccccccH
  0001c	f3 ab		 rep stosd

; 44   : 	size_t l;
; 45   : 	const char *data = luaL_checklstring(L, 1, &l);

  0001e	8d 45 f8	 lea	 eax, DWORD PTR _l$[ebp]
  00021	50		 push	 eax
  00022	6a 01		 push	 1
  00024	8b 4d 08	 mov	 ecx, DWORD PTR _L$[ebp]
  00027	51		 push	 ecx
  00028	e8 00 00 00 00	 call	 _luaL_checklstring
  0002d	83 c4 0c	 add	 esp, 12			; 0000000cH
  00030	89 45 ec	 mov	 DWORD PTR _data$[ebp], eax

; 46   : 	printf(data);

  00033	8b 45 ec	 mov	 eax, DWORD PTR _data$[ebp]
  00036	50		 push	 eax
  00037	e8 00 00 00 00	 call	 _printf
  0003c	83 c4 04	 add	 esp, 4

; 47   : 	return 1;

  0003f	b8 01 00 00 00	 mov	 eax, 1

; 48   : }

  00044	52		 push	 edx
  00045	8b cd		 mov	 ecx, ebp
  00047	50		 push	 eax
  00048	8d 15 00 00 00
	00		 lea	 edx, DWORD PTR $LN5@NewPrint
  0004e	e8 00 00 00 00	 call	 @_RTC_CheckStackVars@8
  00053	58		 pop	 eax
  00054	5a		 pop	 edx
  00055	5f		 pop	 edi
  00056	5e		 pop	 esi
  00057	5b		 pop	 ebx
  00058	81 c4 d8 00 00
	00		 add	 esp, 216		; 000000d8H
  0005e	3b ec		 cmp	 ebp, esp
  00060	e8 00 00 00 00	 call	 __RTC_CheckEsp
  00065	8b e5		 mov	 esp, ebp
  00067	5d		 pop	 ebp
  00068	c3		 ret	 0
  00069	0f 1f 00	 npad	 3
$LN5@NewPrint:
  0006c	01 00 00 00	 DD	 1
  00070	00 00 00 00	 DD	 $LN4@NewPrint
$LN4@NewPrint:
  00074	f8 ff ff ff	 DD	 -8			; fffffff8H
  00078	04 00 00 00	 DD	 4
  0007c	00 00 00 00	 DD	 $LN3@NewPrint
$LN3@NewPrint:
  00080	6c		 DB	 108			; 0000006cH
  00081	00		 DB	 0
?NewPrint@@YAHPAUlua_State@@@Z ENDP			; NewPrint
_TEXT	ENDS
; Function compile flags: /Odtp /RTCsu /ZI
; File c:\users\administrator\desktop\????? ??\????? ??\client source code\mylua\win.cpp
;	COMDAT ?InitWindow@@YAHPAUlua_State@@@Z
_TEXT	SEGMENT
_data$ = -56						; size = 4
_msgWNLen$ = -44					; size = 4
_winH$ = -32						; size = 4
_winW$ = -20						; size = 4
_l$ = -8						; size = 4
_L$ = 8							; size = 4
?InitWindow@@YAHPAUlua_State@@@Z PROC			; InitWindow, COMDAT

; 29   : {

  00000	55		 push	 ebp
  00001	8b ec		 mov	 ebp, esp
  00003	81 ec fc 00 00
	00		 sub	 esp, 252		; 000000fcH
  00009	53		 push	 ebx
  0000a	56		 push	 esi
  0000b	57		 push	 edi
  0000c	8d bd 04 ff ff
	ff		 lea	 edi, DWORD PTR [ebp-252]
  00012	b9 3f 00 00 00	 mov	 ecx, 63			; 0000003fH
  00017	b8 cc cc cc cc	 mov	 eax, -858993460		; ccccccccH
  0001c	f3 ab		 rep stosd

; 30   : 	LUA_WINDOW_OPEN = true;

  0001e	c6 05 00 00 00
	00 01		 mov	 BYTE PTR ?LUA_WINDOW_OPEN@@3_NA, 1 ; LUA_WINDOW_OPEN

; 31   : 	size_t l;
; 32   : 	const int winW = luaL_checkint(L, 1);

  00025	6a 01		 push	 1
  00027	8b 45 08	 mov	 eax, DWORD PTR _L$[ebp]
  0002a	50		 push	 eax
  0002b	e8 00 00 00 00	 call	 _luaL_checkinteger
  00030	83 c4 08	 add	 esp, 8
  00033	89 45 ec	 mov	 DWORD PTR _winW$[ebp], eax

; 33   : 	const int winH = luaL_checkint(L, 2);

  00036	6a 02		 push	 2
  00038	8b 45 08	 mov	 eax, DWORD PTR _L$[ebp]
  0003b	50		 push	 eax
  0003c	e8 00 00 00 00	 call	 _luaL_checkinteger
  00041	83 c4 08	 add	 esp, 8
  00044	89 45 e0	 mov	 DWORD PTR _winH$[ebp], eax

; 34   : 	const int msgWNLen = luaL_checkint(L, 3);

  00047	6a 03		 push	 3
  00049	8b 45 08	 mov	 eax, DWORD PTR _L$[ebp]
  0004c	50		 push	 eax
  0004d	e8 00 00 00 00	 call	 _luaL_checkinteger
  00052	83 c4 08	 add	 esp, 8
  00055	89 45 d4	 mov	 DWORD PTR _msgWNLen$[ebp], eax

; 35   : 	const char *data = luaL_checklstring(L, 4, &l);

  00058	8d 45 f8	 lea	 eax, DWORD PTR _l$[ebp]
  0005b	50		 push	 eax
  0005c	6a 04		 push	 4
  0005e	8b 4d 08	 mov	 ecx, DWORD PTR _L$[ebp]
  00061	51		 push	 ecx
  00062	e8 00 00 00 00	 call	 _luaL_checklstring
  00067	83 c4 0c	 add	 esp, 12			; 0000000cH
  0006a	89 45 c8	 mov	 DWORD PTR _data$[ebp], eax

; 36   : 	extern void getStrSplit( char *, char *, int, int, int );
; 37   : 	makeStringFromEscaped((char *)data);

  0006d	8b 45 c8	 mov	 eax, DWORD PTR _data$[ebp]
  00070	50		 push	 eax
  00071	e8 00 00 00 00	 call	 ?makeStringFromEscaped@@YAPADPAD@Z ; makeStringFromEscaped
  00076	83 c4 04	 add	 esp, 4

; 38   : 	getStrSplit(windows.message.data[0], (char *)data, 100, 25, msgWNLen);

  00079	8b 45 d4	 mov	 eax, DWORD PTR _msgWNLen$[ebp]
  0007c	50		 push	 eax
  0007d	6a 19		 push	 25			; 00000019H
  0007f	6a 64		 push	 100			; 00000064H
  00081	8b 4d c8	 mov	 ecx, DWORD PTR _data$[ebp]
  00084	51		 push	 ecx
  00085	ba 64 00 00 00	 mov	 edx, 100		; 00000064H
  0008a	6b c2 00	 imul	 eax, edx, 0
  0008d	05 2c 01 00 00	 add	 eax, OFFSET ?windows@@3USA_WINDOWS@@A+300
  00092	50		 push	 eax
  00093	e8 00 00 00 00	 call	 ?getStrSplit@@YAXPAD0HHH@Z ; getStrSplit
  00098	83 c4 14	 add	 esp, 20			; 00000014H

; 39   : 	return 1;

  0009b	b8 01 00 00 00	 mov	 eax, 1

; 40   : }

  000a0	52		 push	 edx
  000a1	8b cd		 mov	 ecx, ebp
  000a3	50		 push	 eax
  000a4	8d 15 00 00 00
	00		 lea	 edx, DWORD PTR $LN5@InitWindow
  000aa	e8 00 00 00 00	 call	 @_RTC_CheckStackVars@8
  000af	58		 pop	 eax
  000b0	5a		 pop	 edx
  000b1	5f		 pop	 edi
  000b2	5e		 pop	 esi
  000b3	5b		 pop	 ebx
  000b4	81 c4 fc 00 00
	00		 add	 esp, 252		; 000000fcH
  000ba	3b ec		 cmp	 ebp, esp
  000bc	e8 00 00 00 00	 call	 __RTC_CheckEsp
  000c1	8b e5		 mov	 esp, ebp
  000c3	5d		 pop	 ebp
  000c4	c3		 ret	 0
  000c5	0f 1f 00	 npad	 3
$LN5@InitWindow:
  000c8	01 00 00 00	 DD	 1
  000cc	00 00 00 00	 DD	 $LN4@InitWindow
$LN4@InitWindow:
  000d0	f8 ff ff ff	 DD	 -8			; fffffff8H
  000d4	04 00 00 00	 DD	 4
  000d8	00 00 00 00	 DD	 $LN3@InitWindow
$LN3@InitWindow:
  000dc	6c		 DB	 108			; 0000006cH
  000dd	00		 DB	 0
?InitWindow@@YAHPAUlua_State@@@Z ENDP			; InitWindow
_TEXT	ENDS
; Function compile flags: /Odtp /RTCsu /ZI
; File c:\users\administrator\desktop\????? ??\????? ??\client source code\mylua\win.cpp
;	COMDAT ?luaopen_Win@@YAHPAUlua_State@@@Z
_TEXT	SEGMENT
_L$ = 8							; size = 4
?luaopen_Win@@YAHPAUlua_State@@@Z PROC			; luaopen_Win, COMDAT

; 252  : LUALIB_API int luaopen_Win (lua_State *L) {

  00000	55		 push	 ebp
  00001	8b ec		 mov	 ebp, esp
  00003	81 ec c0 00 00
	00		 sub	 esp, 192		; 000000c0H
  00009	53		 push	 ebx
  0000a	56		 push	 esi
  0000b	57		 push	 edi
  0000c	8d bd 40 ff ff
	ff		 lea	 edi, DWORD PTR [ebp-192]
  00012	b9 30 00 00 00	 mov	 ecx, 48			; 00000030H
  00017	b8 cc cc cc cc	 mov	 eax, -858993460		; ccccccccH
  0001c	f3 ab		 rep stosd

; 253  : 	luaL_register(L, "win", winlib);

  0001e	68 00 00 00 00	 push	 OFFSET ?winlib@@3QBUluaL_Reg@@B
  00023	68 00 00 00 00	 push	 OFFSET ??_C@_03JECLAOEA@win?$AA@
  00028	8b 45 08	 mov	 eax, DWORD PTR _L$[ebp]
  0002b	50		 push	 eax
  0002c	e8 00 00 00 00	 call	 _luaL_register
  00031	83 c4 0c	 add	 esp, 12			; 0000000cH

; 254  : 	return 1;

  00034	b8 01 00 00 00	 mov	 eax, 1

; 255  : }

  00039	5f		 pop	 edi
  0003a	5e		 pop	 esi
  0003b	5b		 pop	 ebx
  0003c	81 c4 c0 00 00
	00		 add	 esp, 192		; 000000c0H
  00042	3b ec		 cmp	 ebp, esp
  00044	e8 00 00 00 00	 call	 __RTC_CheckEsp
  00049	8b e5		 mov	 esp, ebp
  0004b	5d		 pop	 ebp
  0004c	c3		 ret	 0
?luaopen_Win@@YAHPAUlua_State@@@Z ENDP			; luaopen_Win
_TEXT	ENDS
; Function compile flags: /Odtp /RTCsu /ZI
; File c:\program files (x86)\windows kits\10\include\10.0.10240.0\ucrt\stdio.h
;	COMDAT _printf
_TEXT	SEGMENT
__ArgList$ = -20					; size = 4
__Result$ = -8						; size = 4
__Format$ = 8						; size = 4
_printf	PROC						; COMDAT

; 950  : {

  00000	55		 push	 ebp
  00001	8b ec		 mov	 ebp, esp
  00003	81 ec d8 00 00
	00		 sub	 esp, 216		; 000000d8H
  00009	53		 push	 ebx
  0000a	56		 push	 esi
  0000b	57		 push	 edi
  0000c	8d bd 28 ff ff
	ff		 lea	 edi, DWORD PTR [ebp-216]
  00012	b9 36 00 00 00	 mov	 ecx, 54			; 00000036H
  00017	b8 cc cc cc cc	 mov	 eax, -858993460		; ccccccccH
  0001c	f3 ab		 rep stosd

; 951  :     int _Result;
; 952  :     va_list _ArgList;
; 953  :     __crt_va_start(_ArgList, _Format);

  0001e	e8 00 00 00 00	 call	 ??$__vcrt_va_start_verify_argument_type@QBD@@YAXXZ ; __vcrt_va_start_verify_argument_type<char const * const>
  00023	8d 45 0c	 lea	 eax, DWORD PTR __Format$[ebp+4]
  00026	89 45 ec	 mov	 DWORD PTR __ArgList$[ebp], eax

; 954  :     _Result = _vfprintf_l(stdout, _Format, NULL, _ArgList);

  00029	8b 45 ec	 mov	 eax, DWORD PTR __ArgList$[ebp]
  0002c	50		 push	 eax
  0002d	6a 00		 push	 0
  0002f	8b 4d 08	 mov	 ecx, DWORD PTR __Format$[ebp]
  00032	51		 push	 ecx
  00033	8b f4		 mov	 esi, esp
  00035	6a 01		 push	 1
  00037	ff 15 00 00 00
	00		 call	 DWORD PTR __imp____acrt_iob_func
  0003d	83 c4 04	 add	 esp, 4
  00040	3b f4		 cmp	 esi, esp
  00042	e8 00 00 00 00	 call	 __RTC_CheckEsp
  00047	50		 push	 eax
  00048	e8 00 00 00 00	 call	 __vfprintf_l
  0004d	83 c4 10	 add	 esp, 16			; 00000010H
  00050	89 45 f8	 mov	 DWORD PTR __Result$[ebp], eax

; 955  :     __crt_va_end(_ArgList);

  00053	c7 45 ec 00 00
	00 00		 mov	 DWORD PTR __ArgList$[ebp], 0

; 956  :     return _Result;

  0005a	8b 45 f8	 mov	 eax, DWORD PTR __Result$[ebp]

; 957  : }

  0005d	5f		 pop	 edi
  0005e	5e		 pop	 esi
  0005f	5b		 pop	 ebx
  00060	81 c4 d8 00 00
	00		 add	 esp, 216		; 000000d8H
  00066	3b ec		 cmp	 ebp, esp
  00068	e8 00 00 00 00	 call	 __RTC_CheckEsp
  0006d	8b e5		 mov	 esp, ebp
  0006f	5d		 pop	 ebp
  00070	c3		 ret	 0
_printf	ENDP
_TEXT	ENDS
; Function compile flags: /Odtp /RTCsu /ZI
; File c:\program files (x86)\microsoft visual studio 14.0\vc\include\vadefs.h
;	COMDAT ??$__vcrt_va_start_verify_argument_type@QBD@@YAXXZ
_TEXT	SEGMENT
??$__vcrt_va_start_verify_argument_type@QBD@@YAXXZ PROC	; __vcrt_va_start_verify_argument_type<char const * const>, COMDAT

; 144  :         {

  00000	55		 push	 ebp
  00001	8b ec		 mov	 ebp, esp
  00003	81 ec c0 00 00
	00		 sub	 esp, 192		; 000000c0H
  00009	53		 push	 ebx
  0000a	56		 push	 esi
  0000b	57		 push	 edi
  0000c	8d bd 40 ff ff
	ff		 lea	 edi, DWORD PTR [ebp-192]
  00012	b9 30 00 00 00	 mov	 ecx, 48			; 00000030H
  00017	b8 cc cc cc cc	 mov	 eax, -858993460		; ccccccccH
  0001c	f3 ab		 rep stosd

; 145  :             static_assert(!__vcrt_va_list_is_reference<_Ty>::__the_value, "va_start argument must not have reference type and must not be parenthesized");
; 146  :         }

  0001e	5f		 pop	 edi
  0001f	5e		 pop	 esi
  00020	5b		 pop	 ebx
  00021	8b e5		 mov	 esp, ebp
  00023	5d		 pop	 ebp
  00024	c3		 ret	 0
??$__vcrt_va_start_verify_argument_type@QBD@@YAXXZ ENDP	; __vcrt_va_start_verify_argument_type<char const * const>
_TEXT	ENDS
; Function compile flags: /Odtp /RTCsu /ZI
; File c:\program files (x86)\windows kits\10\include\10.0.10240.0\ucrt\stdio.h
;	COMDAT __vfprintf_l
_TEXT	SEGMENT
__Stream$ = 8						; size = 4
__Format$ = 12						; size = 4
__Locale$ = 16						; size = 4
__ArgList$ = 20						; size = 4
__vfprintf_l PROC					; COMDAT

; 638  : {

  00000	55		 push	 ebp
  00001	8b ec		 mov	 ebp, esp
  00003	81 ec c0 00 00
	00		 sub	 esp, 192		; 000000c0H
  00009	53		 push	 ebx
  0000a	56		 push	 esi
  0000b	57		 push	 edi
  0000c	8d bd 40 ff ff
	ff		 lea	 edi, DWORD PTR [ebp-192]
  00012	b9 30 00 00 00	 mov	 ecx, 48			; 00000030H
  00017	b8 cc cc cc cc	 mov	 eax, -858993460		; ccccccccH
  0001c	f3 ab		 rep stosd

; 639  :     return __stdio_common_vfprintf(_CRT_INTERNAL_LOCAL_PRINTF_OPTIONS, _Stream, _Format, _Locale, _ArgList);

  0001e	8b f4		 mov	 esi, esp
  00020	8b 45 14	 mov	 eax, DWORD PTR __ArgList$[ebp]
  00023	50		 push	 eax
  00024	8b 4d 10	 mov	 ecx, DWORD PTR __Locale$[ebp]
  00027	51		 push	 ecx
  00028	8b 55 0c	 mov	 edx, DWORD PTR __Format$[ebp]
  0002b	52		 push	 edx
  0002c	8b 45 08	 mov	 eax, DWORD PTR __Stream$[ebp]
  0002f	50		 push	 eax
  00030	e8 00 00 00 00	 call	 ___local_stdio_printf_options
  00035	8b 48 04	 mov	 ecx, DWORD PTR [eax+4]
  00038	51		 push	 ecx
  00039	8b 10		 mov	 edx, DWORD PTR [eax]
  0003b	52		 push	 edx
  0003c	ff 15 00 00 00
	00		 call	 DWORD PTR __imp____stdio_common_vfprintf
  00042	83 c4 18	 add	 esp, 24			; 00000018H
  00045	3b f4		 cmp	 esi, esp
  00047	e8 00 00 00 00	 call	 __RTC_CheckEsp

; 640  : }

  0004c	5f		 pop	 edi
  0004d	5e		 pop	 esi
  0004e	5b		 pop	 ebx
  0004f	81 c4 c0 00 00
	00		 add	 esp, 192		; 000000c0H
  00055	3b ec		 cmp	 ebp, esp
  00057	e8 00 00 00 00	 call	 __RTC_CheckEsp
  0005c	8b e5		 mov	 esp, ebp
  0005e	5d		 pop	 ebp
  0005f	c3		 ret	 0
__vfprintf_l ENDP
_TEXT	ENDS
; Function compile flags: /Odtp /RTCsu /ZI
; File c:\program files (x86)\windows kits\10\include\10.0.10240.0\ucrt\corecrt_stdio_config.h
;	COMDAT ___local_stdio_printf_options
_TEXT	SEGMENT
___local_stdio_printf_options PROC			; COMDAT

; 73   : {

  00000	55		 push	 ebp
  00001	8b ec		 mov	 ebp, esp
  00003	81 ec c0 00 00
	00		 sub	 esp, 192		; 000000c0H
  00009	53		 push	 ebx
  0000a	56		 push	 esi
  0000b	57		 push	 edi
  0000c	8d bd 40 ff ff
	ff		 lea	 edi, DWORD PTR [ebp-192]
  00012	b9 30 00 00 00	 mov	 ecx, 48			; 00000030H
  00017	b8 cc cc cc cc	 mov	 eax, -858993460		; ccccccccH
  0001c	f3 ab		 rep stosd

; 74   :     static unsigned __int64 _OptionsStorage;
; 75   :     return &_OptionsStorage;

  0001e	b8 00 00 00 00	 mov	 eax, OFFSET ?_OptionsStorage@?1??__local_stdio_printf_options@@9@4_KA ; `__local_stdio_printf_options'::`2'::_OptionsStorage

; 76   : }

  00023	5f		 pop	 edi
  00024	5e		 pop	 esi
  00025	5b		 pop	 ebx
  00026	8b e5		 mov	 esp, ebp
  00028	5d		 pop	 ebp
  00029	c3		 ret	 0
___local_stdio_printf_options ENDP
_TEXT	ENDS
END
