; Listing generated by Microsoft (R) Optimizing Compiler Version 19.00.24215.1 

	TITLE	C:\Users\Administrator\Desktop\????? ??\????? ??\Client Source Code\system\光环.cpp
	.686P
	.XMM
	include listing.inc
	.model	flat

INCLUDELIB MSVCRTD
INCLUDELIB OLDNAMES

PUBLIC	?count_光环@@3HA				; count_光环
PUBLIC	?data光环@@3PAU光环STRUCT@@A			; data光环
PUBLIC	?pAct光环@@3PAUaction@@A			; pAct光环
PUBLIC	?pAct光环人物@@3PAUaction@@A			; pAct光环人物
_BSS	SEGMENT
?nPage@@3HA DD	01H DUP (?)				; nPage
?nPageTotal@@3HA DD 01H DUP (?)				; nPageTotal
?pAct光环@@3PAUaction@@A DD 01H DUP (?)			; pAct光环
?pAct光环人物@@3PAUaction@@A DD 01H DUP (?)		; pAct光环人物
?width@?1??Init光环窗口@@YAXXZ@4FA DW 01H DUP (?)	; `Init光环窗口'::`2'::width
	ALIGN	4

?height@?1??Init光环窗口@@YAXXZ@4FA DW 01H DUP (?)	; `Init光环窗口'::`2'::height
_BSS	ENDS
_DATA	SEGMENT
?count_光环@@3HA DD 01H					; count_光环
?curSel@@3HA DD	0ffffffffH				; curSel
?data光环@@3PAU光环STRUCT@@A DD 0193acH			; data光环
	DB	'103340', 00H
	ORG $+13
	DD	01H
	ORG $+5572
?FontPal@@3PAKA DD 0ffffffH				; FontPal
	DD	0ffff00H
	DD	0ff00ffH
	DD	0ff0000H
	DD	0ffffH
	DD	0ff00H
	DD	0ffH
	DD	0a4a0a0H
	DD	0f0caa6H
	DD	0c0dcc0H
	DD	08cffH
	DD	0247fffH
_DATA	ENDS
PUBLIC	___local_stdio_printf_options
PUBLIC	??$__vcrt_va_start_verify_argument_type@QBD@@YAXXZ ; __vcrt_va_start_verify_argument_type<char const * const>
PUBLIC	__vsnprintf_l
PUBLIC	__vsprintf_l
PUBLIC	_sprintf
PUBLIC	?lssproto_查询光环_recv@@YAXPAD@Z		; lssproto_查询光环_recv
PUBLIC	?delAct光环@@YAXXZ				; delAct光环
PUBLIC	?Init光环窗口@@YAXXZ				; Init光环窗口
PUBLIC	?_OptionsStorage@?1??__local_stdio_printf_options@@9@4_KA ; `__local_stdio_printf_options'::`2'::_OptionsStorage
PUBLIC	??_C@_0N@GBMJNGDM@CHENHAORIGHT?$AA@		; `string'
PUBLIC	??_C@_0P@GKNHDFHB@GUANGHUANRIGHT?$AA@		; `string'
PUBLIC	??_C@_09PLHHBOIP@PIFURIGHT?$AA@			; `string'
PUBLIC	??_C@_06PJODKAOF@?$DP?v?G?N?C?$DP?$AA@		; `string'
PUBLIC	??_C@_0BD@EDKMFMLH@?$DP?$DP?j?s?$DP?y?Z?$NO?E?i?D?$DP?$DP?N?C?$DP?$KD?$KB?$AA@ ; `string'
PUBLIC	??_C@_0BI@CICPADPB@SETCURRENTGUANGHUAN?8?$CFd?8?$AA@ ; `string'
PUBLIC	??_C@_05MFMFFPGD@?$DP?$DP?N?C?$DP?$AA@		; `string'
PUBLIC	??_C@_0BI@PPCAMBKD@CANCELCURRENTGUANGHUAN?8?$AA@ ; `string'
PUBLIC	??_C@_06IMHCLJMJ@?5?5?$DP?$DP?5?5?$AA@		; `string'
PUBLIC	??_C@_05LCKIIOJE@?$CFd?1?$CFd?$AA@		; `string'
EXTRN	__imp__lstrcmpiA@8:PROC
EXTRN	__imp__atoi:PROC
EXTRN	__imp____stdio_common_vsprintf:PROC
EXTRN	?split_damage@@YAHPADDPAHI@Z:PROC		; split_damage
EXTRN	?DeathAction@@YAXPAUaction@@@Z:PROC		; DeathAction
EXTRN	?StockDispBuffer@@YAHHHEHH@Z:PROC		; StockDispBuffer
EXTRN	?StockDispBuffer绝对位置@@YAHHHEHH@Z:PROC	; StockDispBuffer绝对位置
EXTRN	?获取动画尺寸@@YAHPAUaction@@PAF1@Z:PROC	; 获取动画尺寸
EXTRN	?StockChatBufferLineExt@@YAXPADEHH@Z:PROC	; StockChatBufferLineExt
EXTRN	?StockFontBuffer@@YAHHHDHPADH@Z:PROC		; StockFontBuffer
EXTRN	?MakeHitBox@@YAHHHHHH@Z:PROC			; MakeHitBox
EXTRN	?CenteringStr@@YAXPAD0H@Z:PROC			; CenteringStr
EXTRN	?MakeAnimDisp@@YAPAUaction@@HHHH@Z:PROC		; MakeAnimDisp
EXTRN	?realGetWH@@YAHKPAF0@Z:PROC			; realGetWH
EXTRN	?realGetNo@@YAHKPAK@Z:PROC			; realGetNo
EXTRN	?LSSPROTO_203_SEND@@YAXHPAD@Z:PROC		; LSSPROTO_203_SEND
EXTRN	?LSSPROTO_203_SEND@@YAXHPAD@Z:PROC		; LSSPROTO_203_SEND
EXTRN	@_RTC_CheckStackVars@8:PROC
EXTRN	@__security_check_cookie@4:PROC
EXTRN	__RTC_CheckEsp:PROC
EXTRN	__RTC_InitBase:PROC
EXTRN	__RTC_Shutdown:PROC
EXTRN	__chkstk:PROC
EXTRN	?DEF_APPSIZEX@@3HA:DWORD			; DEF_APPSIZEX
EXTRN	?DEF_APPSIZEY@@3HA:DWORD			; DEF_APPSIZEY
EXTRN	?mouse@@3UMOUSE@@A:BYTE				; mouse
EXTRN	?HitDispNo@@3HA:DWORD				; HitDispNo
EXTRN	?pc@@3UPC@@A:BYTE				; pc
EXTRN	?MenuToggleFlag@@3IA:DWORD			; MenuToggleFlag
EXTRN	?data称号@@3PAU光环STRUCT@@A:BYTE		; data称号
EXTRN	?data皮肤@@3PAU光环STRUCT@@A:BYTE		; data皮肤
EXTRN	?sockfd@@3IA:DWORD				; sockfd
EXTRN	?sockfd@@3IA:DWORD				; sockfd
EXTRN	___security_cookie:DWORD
;	COMDAT ?_OptionsStorage@?1??__local_stdio_printf_options@@9@4_KA
_BSS	SEGMENT
?_OptionsStorage@?1??__local_stdio_printf_options@@9@4_KA DQ 01H DUP (?) ; `__local_stdio_printf_options'::`2'::_OptionsStorage
_BSS	ENDS
_BSS	SEGMENT
	ALIGN	4

?button@@3PAHA DD 05H DUP (?)				; button
_BSS	ENDS
;	COMDAT rtc$TMZ
rtc$TMZ	SEGMENT
__RTC_Shutdown.rtc$TMZ DD FLAT:__RTC_Shutdown
rtc$TMZ	ENDS
;	COMDAT rtc$IMZ
rtc$IMZ	SEGMENT
__RTC_InitBase.rtc$IMZ DD FLAT:__RTC_InitBase
rtc$IMZ	ENDS
;	COMDAT ??_C@_05LCKIIOJE@?$CFd?1?$CFd?$AA@
CONST	SEGMENT
??_C@_05LCKIIOJE@?$CFd?1?$CFd?$AA@ DB '%d/%d', 00H	; `string'
CONST	ENDS
;	COMDAT ??_C@_06IMHCLJMJ@?5?5?$DP?$DP?5?5?$AA@
CONST	SEGMENT
??_C@_06IMHCLJMJ@?5?5?$DP?$DP?5?5?$AA@ DB '  ??  ', 00H	; `string'
CONST	ENDS
;	COMDAT ??_C@_0BI@PPCAMBKD@CANCELCURRENTGUANGHUAN?8?$AA@
CONST	SEGMENT
??_C@_0BI@PPCAMBKD@CANCELCURRENTGUANGHUAN?8?$AA@ DB 'CANCELCURRENTGUANGHU'
	DB	'AN''', 00H					; `string'
CONST	ENDS
;	COMDAT ??_C@_05MFMFFPGD@?$DP?$DP?N?C?$DP?$AA@
CONST	SEGMENT
??_C@_05MFMFFPGD@?$DP?$DP?N?C?$DP?$AA@ DB '??', 0ceH, 0c3H, '?', 00H ; `string'
CONST	ENDS
;	COMDAT ??_C@_0BI@CICPADPB@SETCURRENTGUANGHUAN?8?$CFd?8?$AA@
CONST	SEGMENT
??_C@_0BI@CICPADPB@SETCURRENTGUANGHUAN?8?$CFd?8?$AA@ DB 'SETCURRENTGUANGH'
	DB	'UAN''%d''', 00H				; `string'
CONST	ENDS
;	COMDAT ??_C@_0BD@EDKMFMLH@?$DP?$DP?j?s?$DP?y?Z?$NO?E?i?D?$DP?$DP?N?C?$DP?$KD?$KB?$AA@
CONST	SEGMENT
??_C@_0BD@EDKMFMLH@?$DP?$DP?j?s?$DP?y?Z?$NO?E?i?D?$DP?$DP?N?C?$DP?$KD?$KB?$AA@ DB '?'
	DB	'?', 0eaH, 0f3H, '?', 0f9H, 0daH, 0deH, 0c5H, 0e9H, 0c4H, '??', 0ceH
	DB	0c3H, '?', 0a3H, 0a1H, 00H			; `string'
CONST	ENDS
;	COMDAT ??_C@_06PJODKAOF@?$DP?v?G?N?C?$DP?$AA@
CONST	SEGMENT
??_C@_06PJODKAOF@?$DP?v?G?N?C?$DP?$AA@ DB '?', 0f6H, 0c7H, 0ceH, 0c3H, '?'
	DB	00H						; `string'
CONST	ENDS
;	COMDAT ??_C@_09PLHHBOIP@PIFURIGHT?$AA@
CONST	SEGMENT
??_C@_09PLHHBOIP@PIFURIGHT?$AA@ DB 'PIFURIGHT', 00H	; `string'
CONST	ENDS
;	COMDAT ??_C@_0P@GKNHDFHB@GUANGHUANRIGHT?$AA@
CONST	SEGMENT
??_C@_0P@GKNHDFHB@GUANGHUANRIGHT?$AA@ DB 'GUANGHUANRIGHT', 00H ; `string'
CONST	ENDS
;	COMDAT ??_C@_0N@GBMJNGDM@CHENHAORIGHT?$AA@
CONST	SEGMENT
??_C@_0N@GBMJNGDM@CHENHAORIGHT?$AA@ DB 'CHENHAORIGHT', 00H ; `string'
CONST	ENDS
; Function compile flags: /Odtp /RTCsu /ZI
; File c:\users\administrator\desktop\????? ??\????? ??\client source code\system\光环.cpp
;	COMDAT ?Init光环窗口@@YAXXZ
_TEXT	SEGMENT
tv248 = -460						; size = 4
_y2$1 = -260						; size = 2
_x2$2 = -248						; size = 2
_y1$3 = -236						; size = 4
_x1$4 = -224						; size = 4
_buf$5 = -212						; size = 30
_j$6 = -172						; size = 4
_i$7 = -160						; size = 4
_count_this_page$ = -148				; size = 4
_buf$ = -136						; size = 20
_count$ = -108						; size = 4
_buf$8 = -96						; size = 50
_y$ = -36						; size = 4
_x$ = -24						; size = 4
_BmpNo$ = -12						; size = 4
__$ArrayPad$ = -4					; size = 4
?Init光环窗口@@YAXXZ PROC				; Init光环窗口, COMDAT

; 91   : void Init光环窗口(){

  00000	55		 push	 ebp
  00001	8b ec		 mov	 ebp, esp
  00003	81 ec cc 01 00
	00		 sub	 esp, 460		; 000001ccH
  00009	53		 push	 ebx
  0000a	56		 push	 esi
  0000b	57		 push	 edi
  0000c	8d bd 34 fe ff
	ff		 lea	 edi, DWORD PTR [ebp-460]
  00012	b9 73 00 00 00	 mov	 ecx, 115		; 00000073H
  00017	b8 cc cc cc cc	 mov	 eax, -858993460		; ccccccccH
  0001c	f3 ab		 rep stosd
  0001e	a1 00 00 00 00	 mov	 eax, DWORD PTR ___security_cookie
  00023	33 c5		 xor	 eax, ebp
  00025	89 45 fc	 mov	 DWORD PTR __$ArrayPad$[ebp], eax

; 92   : 	int BmpNo;
; 93   : 	static short width = 0, height = 0;
; 94   : 	if (width == 0){

  00028	0f bf 05 00 00
	00 00		 movsx	 eax, WORD PTR ?width@?1??Init光环窗口@@YAXXZ@4FA
  0002f	85 c0		 test	 eax, eax
  00031	75 27		 jne	 SHORT $LN5@Init

; 95   : 		realGetNo(IMAGE_光环图档, (U4 *)&BmpNo);

  00033	8d 45 f4	 lea	 eax, DWORD PTR _BmpNo$[ebp]
  00036	50		 push	 eax
  00037	68 d6 c3 00 00	 push	 50134			; 0000c3d6H
  0003c	e8 00 00 00 00	 call	 ?realGetNo@@YAHKPAK@Z	; realGetNo
  00041	83 c4 08	 add	 esp, 8

; 96   : 		realGetWH(BmpNo, &width, &height);			//获取图档尺寸

  00044	68 00 00 00 00	 push	 OFFSET ?height@?1??Init光环窗口@@YAXXZ@4FA
  00049	68 00 00 00 00	 push	 OFFSET ?width@?1??Init光环窗口@@YAXXZ@4FA
  0004e	8b 45 f4	 mov	 eax, DWORD PTR _BmpNo$[ebp]
  00051	50		 push	 eax
  00052	e8 00 00 00 00	 call	 ?realGetWH@@YAHKPAF0@Z	; realGetWH
  00057	83 c4 0c	 add	 esp, 12			; 0000000cH
$LN5@Init:

; 97   : 	}
; 98   : 
; 99   : 	//根据分辨率自适应左上角x,y
; 100  : 	extern int DEF_APPSIZEX, DEF_APPSIZEY;
; 101  : 	int x = (DEF_APPSIZEX - width) / 2;

  0005a	0f bf 05 00 00
	00 00		 movsx	 eax, WORD PTR ?width@?1??Init光环窗口@@YAXXZ@4FA
  00061	8b 0d 00 00 00
	00		 mov	 ecx, DWORD PTR ?DEF_APPSIZEX@@3HA ; DEF_APPSIZEX
  00067	2b c8		 sub	 ecx, eax
  00069	8b c1		 mov	 eax, ecx
  0006b	99		 cdq
  0006c	2b c2		 sub	 eax, edx
  0006e	d1 f8		 sar	 eax, 1
  00070	89 45 e8	 mov	 DWORD PTR _x$[ebp], eax

; 102  : 	int y = (DEF_APPSIZEY - height) / 2;

  00073	0f bf 05 00 00
	00 00		 movsx	 eax, WORD PTR ?height@?1??Init光环窗口@@YAXXZ@4FA
  0007a	8b 0d 00 00 00
	00		 mov	 ecx, DWORD PTR ?DEF_APPSIZEY@@3HA ; DEF_APPSIZEY
  00080	2b c8		 sub	 ecx, eax
  00082	8b c1		 mov	 eax, ecx
  00084	99		 cdq
  00085	2b c2		 sub	 eax, edx
  00087	d1 f8		 sar	 eax, 1
  00089	89 45 dc	 mov	 DWORD PTR _y$[ebp], eax

; 103  : 
; 104  : 	//画图
; 105  : 	StockDispBuffer绝对位置(x, y, DISP_PRIO_MENU, IMAGE_光环图档, 1);

  0008c	6a 01		 push	 1
  0008e	68 d6 c3 00 00	 push	 50134			; 0000c3d6H
  00093	6a 68		 push	 104			; 00000068H
  00095	8b 45 dc	 mov	 eax, DWORD PTR _y$[ebp]
  00098	50		 push	 eax
  00099	8b 4d e8	 mov	 ecx, DWORD PTR _x$[ebp]
  0009c	51		 push	 ecx
  0009d	e8 00 00 00 00	 call	 ?StockDispBuffer绝对位置@@YAHHHEHH@Z ; StockDispBuffer绝对位置
  000a2	83 c4 14	 add	 esp, 20			; 00000014H

; 106  : 
; 107  : 	//左右箭头
; 108  : 	button[0] = StockDispBuffer(x + 50, y + 310, DISP_PRIO_IME4, 55104, 2);

  000a5	6a 02		 push	 2
  000a7	68 40 d7 00 00	 push	 55104			; 0000d740H
  000ac	6a 6a		 push	 106			; 0000006aH
  000ae	8b 45 dc	 mov	 eax, DWORD PTR _y$[ebp]
  000b1	05 36 01 00 00	 add	 eax, 310		; 00000136H
  000b6	50		 push	 eax
  000b7	8b 4d e8	 mov	 ecx, DWORD PTR _x$[ebp]
  000ba	83 c1 32	 add	 ecx, 50			; 00000032H
  000bd	51		 push	 ecx
  000be	e8 00 00 00 00	 call	 ?StockDispBuffer@@YAHHHEHH@Z ; StockDispBuffer
  000c3	83 c4 14	 add	 esp, 20			; 00000014H
  000c6	ba 04 00 00 00	 mov	 edx, 4
  000cb	6b ca 00	 imul	 ecx, edx, 0
  000ce	89 81 00 00 00
	00		 mov	 DWORD PTR ?button@@3PAHA[ecx], eax

; 109  : 	button[1] = StockDispBuffer(x + 110, y + 310, DISP_PRIO_IME4, 55105, 2);

  000d4	6a 02		 push	 2
  000d6	68 41 d7 00 00	 push	 55105			; 0000d741H
  000db	6a 6a		 push	 106			; 0000006aH
  000dd	8b 45 dc	 mov	 eax, DWORD PTR _y$[ebp]
  000e0	05 36 01 00 00	 add	 eax, 310		; 00000136H
  000e5	50		 push	 eax
  000e6	8b 4d e8	 mov	 ecx, DWORD PTR _x$[ebp]
  000e9	83 c1 6e	 add	 ecx, 110		; 0000006eH
  000ec	51		 push	 ecx
  000ed	e8 00 00 00 00	 call	 ?StockDispBuffer@@YAHHHEHH@Z ; StockDispBuffer
  000f2	83 c4 14	 add	 esp, 20			; 00000014H
  000f5	ba 04 00 00 00	 mov	 edx, 4
  000fa	c1 e2 00	 shl	 edx, 0
  000fd	89 82 00 00 00
	00		 mov	 DWORD PTR ?button@@3PAHA[edx], eax

; 110  : 
; 111  : 	//显示光环
; 112  : 	StockFontBuffer(x + 50, y + 340, FONT_PRIO_FRONT, FONT_PAL_AQUA, "设置光环", 0);

  00103	6a 00		 push	 0
  00105	68 00 00 00 00	 push	 OFFSET ??_C@_06PJODKAOF@?$DP?v?G?N?C?$DP?$AA@
  0010a	6a 01		 push	 1
  0010c	6a 01		 push	 1
  0010e	8b 45 dc	 mov	 eax, DWORD PTR _y$[ebp]
  00111	05 54 01 00 00	 add	 eax, 340		; 00000154H
  00116	50		 push	 eax
  00117	8b 4d e8	 mov	 ecx, DWORD PTR _x$[ebp]
  0011a	83 c1 32	 add	 ecx, 50			; 00000032H
  0011d	51		 push	 ecx
  0011e	e8 00 00 00 00	 call	 ?StockFontBuffer@@YAHHHDHPADH@Z ; StockFontBuffer
  00123	83 c4 18	 add	 esp, 24			; 00000018H

; 113  : 	if (MakeHitBox(x + 50 - 5, y + 340 - 5, x + 50 + 60, y + 340 + 20, DISP_PRIO_IME4) == TRUE){

  00126	6a 6a		 push	 106			; 0000006aH
  00128	8b 45 dc	 mov	 eax, DWORD PTR _y$[ebp]
  0012b	05 68 01 00 00	 add	 eax, 360		; 00000168H
  00130	50		 push	 eax
  00131	8b 4d e8	 mov	 ecx, DWORD PTR _x$[ebp]
  00134	83 c1 6e	 add	 ecx, 110		; 0000006eH
  00137	51		 push	 ecx
  00138	8b 55 dc	 mov	 edx, DWORD PTR _y$[ebp]
  0013b	81 c2 4f 01 00
	00		 add	 edx, 335		; 0000014fH
  00141	52		 push	 edx
  00142	8b 45 e8	 mov	 eax, DWORD PTR _x$[ebp]
  00145	83 c0 2d	 add	 eax, 45			; 0000002dH
  00148	50		 push	 eax
  00149	e8 00 00 00 00	 call	 ?MakeHitBox@@YAHHHHHH@Z	; MakeHitBox
  0014e	83 c4 14	 add	 esp, 20			; 00000014H
  00151	83 f8 01	 cmp	 eax, 1
  00154	75 69		 jne	 SHORT $LN6@Init

; 114  : 		if (mouse.onceState & MOUSE_LEFT_CRICK){

  00156	a1 2c 00 00 00	 mov	 eax, DWORD PTR ?mouse@@3UMOUSE@@A+44
  0015b	83 e0 01	 and	 eax, 1
  0015e	74 5f		 je	 SHORT $LN6@Init

; 115  : 			if (data光环[curSel].time == 0){

  00160	6b 05 00 00 00
	00 1c		 imul	 eax, DWORD PTR ?curSel@@3HA, 28
  00167	83 b8 18 00 00
	00 00		 cmp	 DWORD PTR ?data光环@@3PAU光环STRUCT@@A[eax+24], 0
  0016e	75 18		 jne	 SHORT $LN8@Init

; 116  : 				StockChatBufferLineExt("你没有权限使用这个光环！", FONT_PAL_RED, 0);

  00170	6a 00		 push	 0
  00172	6a 00		 push	 0
  00174	6a 06		 push	 6
  00176	68 00 00 00 00	 push	 OFFSET ??_C@_0BD@EDKMFMLH@?$DP?$DP?j?s?$DP?y?Z?$NO?E?i?D?$DP?$DP?N?C?$DP?$KD?$KB?$AA@
  0017b	e8 00 00 00 00	 call	 ?StockChatBufferLineExt@@YAXPADEHH@Z ; StockChatBufferLineExt
  00180	83 c4 10	 add	 esp, 16			; 00000010H

; 117  : 				return;

  00183	e9 4c 04 00 00	 jmp	 $LN1@Init
$LN8@Init:

; 118  : 			}
; 119  : 
; 120  : 			void LSSPROTO_203_SEND(int fd, char* data);
; 121  : 			extern unsigned int sockfd;
; 122  : 			char buf[50];
; 123  : 			sprintf(buf, "SETCURRENTGUANGHUAN'%d'", data光环[curSel].bmpNO);

  00188	6b 05 00 00 00
	00 1c		 imul	 eax, DWORD PTR ?curSel@@3HA, 28
  0018f	8b 88 00 00 00
	00		 mov	 ecx, DWORD PTR ?data光环@@3PAU光环STRUCT@@A[eax]
  00195	51		 push	 ecx
  00196	68 00 00 00 00	 push	 OFFSET ??_C@_0BI@CICPADPB@SETCURRENTGUANGHUAN?8?$CFd?8?$AA@
  0019b	8d 55 a0	 lea	 edx, DWORD PTR _buf$8[ebp]
  0019e	52		 push	 edx
  0019f	e8 00 00 00 00	 call	 _sprintf
  001a4	83 c4 0c	 add	 esp, 12			; 0000000cH

; 124  : 			LSSPROTO_203_SEND(sockfd, buf);

  001a7	8d 45 a0	 lea	 eax, DWORD PTR _buf$8[ebp]
  001aa	50		 push	 eax
  001ab	8b 0d 00 00 00
	00		 mov	 ecx, DWORD PTR ?sockfd@@3IA ; sockfd
  001b1	51		 push	 ecx
  001b2	e8 00 00 00 00	 call	 ?LSSPROTO_203_SEND@@YAXHPAD@Z ; LSSPROTO_203_SEND
  001b7	83 c4 08	 add	 esp, 8

; 125  : 			return;

  001ba	e9 15 04 00 00	 jmp	 $LN1@Init
$LN6@Init:

; 126  : 		}
; 127  : 	}
; 128  : 
; 129  : 	//??光环
; 130  : 	StockFontBuffer(x + 200, y + 340, FONT_PRIO_FRONT, FONT_PAL_AQUA, "??光环", 0);

  001bf	6a 00		 push	 0
  001c1	68 00 00 00 00	 push	 OFFSET ??_C@_05MFMFFPGD@?$DP?$DP?N?C?$DP?$AA@
  001c6	6a 01		 push	 1
  001c8	6a 01		 push	 1
  001ca	8b 45 dc	 mov	 eax, DWORD PTR _y$[ebp]
  001cd	05 54 01 00 00	 add	 eax, 340		; 00000154H
  001d2	50		 push	 eax
  001d3	8b 4d e8	 mov	 ecx, DWORD PTR _x$[ebp]
  001d6	81 c1 c8 00 00
	00		 add	 ecx, 200		; 000000c8H
  001dc	51		 push	 ecx
  001dd	e8 00 00 00 00	 call	 ?StockFontBuffer@@YAHHHDHPADH@Z ; StockFontBuffer
  001e2	83 c4 18	 add	 esp, 24			; 00000018H

; 131  : 	if (MakeHitBox(x + 200 - 5, y + 340 - 5, x + 200 + 60, y + 340 + 20, DISP_PRIO_IME4) == TRUE){

  001e5	6a 6a		 push	 106			; 0000006aH
  001e7	8b 45 dc	 mov	 eax, DWORD PTR _y$[ebp]
  001ea	05 68 01 00 00	 add	 eax, 360		; 00000168H
  001ef	50		 push	 eax
  001f0	8b 4d e8	 mov	 ecx, DWORD PTR _x$[ebp]
  001f3	81 c1 04 01 00
	00		 add	 ecx, 260		; 00000104H
  001f9	51		 push	 ecx
  001fa	8b 55 dc	 mov	 edx, DWORD PTR _y$[ebp]
  001fd	81 c2 4f 01 00
	00		 add	 edx, 335		; 0000014fH
  00203	52		 push	 edx
  00204	8b 45 e8	 mov	 eax, DWORD PTR _x$[ebp]
  00207	05 c3 00 00 00	 add	 eax, 195		; 000000c3H
  0020c	50		 push	 eax
  0020d	e8 00 00 00 00	 call	 ?MakeHitBox@@YAHHHHHH@Z	; MakeHitBox
  00212	83 c4 14	 add	 esp, 20			; 00000014H
  00215	83 f8 01	 cmp	 eax, 1
  00218	75 22		 jne	 SHORT $LN9@Init

; 132  : 		if (mouse.onceState & MOUSE_LEFT_CRICK){

  0021a	a1 2c 00 00 00	 mov	 eax, DWORD PTR ?mouse@@3UMOUSE@@A+44
  0021f	83 e0 01	 and	 eax, 1
  00222	74 18		 je	 SHORT $LN9@Init

; 133  : 			void LSSPROTO_203_SEND(int fd, char* data);
; 134  : 			extern unsigned int sockfd;
; 135  : 			LSSPROTO_203_SEND(sockfd, "CANCELCURRENTGUANGHUAN'");

  00224	68 00 00 00 00	 push	 OFFSET ??_C@_0BI@PPCAMBKD@CANCELCURRENTGUANGHUAN?8?$AA@
  00229	a1 00 00 00 00	 mov	 eax, DWORD PTR ?sockfd@@3IA ; sockfd
  0022e	50		 push	 eax
  0022f	e8 00 00 00 00	 call	 ?LSSPROTO_203_SEND@@YAXHPAD@Z ; LSSPROTO_203_SEND
  00234	83 c4 08	 add	 esp, 8

; 136  : 			return;

  00237	e9 98 03 00 00	 jmp	 $LN1@Init
$LN9@Init:

; 137  : 		}
; 138  : 	}
; 139  : 
; 140  : 	//关闭
; 141  : 	StockFontBuffer(x + 330, y + 340, FONT_PRIO_FRONT, FONT_PAL_AQUA, "  关闭  ", 0);

  0023c	6a 00		 push	 0
  0023e	68 00 00 00 00	 push	 OFFSET ??_C@_06IMHCLJMJ@?5?5?$DP?$DP?5?5?$AA@
  00243	6a 01		 push	 1
  00245	6a 01		 push	 1
  00247	8b 45 dc	 mov	 eax, DWORD PTR _y$[ebp]
  0024a	05 54 01 00 00	 add	 eax, 340		; 00000154H
  0024f	50		 push	 eax
  00250	8b 4d e8	 mov	 ecx, DWORD PTR _x$[ebp]
  00253	81 c1 4a 01 00
	00		 add	 ecx, 330		; 0000014aH
  00259	51		 push	 ecx
  0025a	e8 00 00 00 00	 call	 ?StockFontBuffer@@YAHHHDHPADH@Z ; StockFontBuffer
  0025f	83 c4 18	 add	 esp, 24			; 00000018H

; 142  : 	if (MakeHitBox(x + 330 - 5, y + 340 - 5, x + 330 + 60, y + 340 + 20, DISP_PRIO_IME4) == TRUE){

  00262	6a 6a		 push	 106			; 0000006aH
  00264	8b 45 dc	 mov	 eax, DWORD PTR _y$[ebp]
  00267	05 68 01 00 00	 add	 eax, 360		; 00000168H
  0026c	50		 push	 eax
  0026d	8b 4d e8	 mov	 ecx, DWORD PTR _x$[ebp]
  00270	81 c1 86 01 00
	00		 add	 ecx, 390		; 00000186H
  00276	51		 push	 ecx
  00277	8b 55 dc	 mov	 edx, DWORD PTR _y$[ebp]
  0027a	81 c2 4f 01 00
	00		 add	 edx, 335		; 0000014fH
  00280	52		 push	 edx
  00281	8b 45 e8	 mov	 eax, DWORD PTR _x$[ebp]
  00284	05 45 01 00 00	 add	 eax, 325		; 00000145H
  00289	50		 push	 eax
  0028a	e8 00 00 00 00	 call	 ?MakeHitBox@@YAHHHHHH@Z	; MakeHitBox
  0028f	83 c4 14	 add	 esp, 20			; 00000014H
  00292	83 f8 01	 cmp	 eax, 1
  00295	75 1e		 jne	 SHORT $LN11@Init

; 143  : 		if (mouse.onceState & MOUSE_LEFT_CRICK){

  00297	a1 2c 00 00 00	 mov	 eax, DWORD PTR ?mouse@@3UMOUSE@@A+44
  0029c	83 e0 01	 and	 eax, 1
  0029f	74 14		 je	 SHORT $LN11@Init

; 144  : 			MenuToggleFlag &= ~JOY_CTRL_S;

  002a1	a1 00 00 00 00	 mov	 eax, DWORD PTR ?MenuToggleFlag@@3IA ; MenuToggleFlag
  002a6	25 ff ff ff df	 and	 eax, -536870913		; dfffffffH
  002ab	a3 00 00 00 00	 mov	 DWORD PTR ?MenuToggleFlag@@3IA, eax ; MenuToggleFlag

; 145  : 			return;

  002b0	e9 1f 03 00 00	 jmp	 $LN1@Init
$LN11@Init:

; 146  : 		}
; 147  : 	}
; 148  : 
; 149  : 	//取称号个数
; 150  : 	int count = count_光环;

  002b5	a1 00 00 00 00	 mov	 eax, DWORD PTR ?count_光环@@3HA ; count_光环
  002ba	89 45 94	 mov	 DWORD PTR _count$[ebp], eax

; 151  : 
; 152  : 	//总页面数
; 153  : 	nPageTotal = (count + 13 - 1) / 13;

  002bd	8b 45 94	 mov	 eax, DWORD PTR _count$[ebp]
  002c0	83 c0 0c	 add	 eax, 12			; 0000000cH
  002c3	99		 cdq
  002c4	b9 0d 00 00 00	 mov	 ecx, 13			; 0000000dH
  002c9	f7 f9		 idiv	 ecx
  002cb	a3 00 00 00 00	 mov	 DWORD PTR ?nPageTotal@@3HA, eax

; 154  : 
; 155  : 	//显示 页面/总页面
; 156  : 	char buf[20];
; 157  : 	sprintf(buf, "%d/%d", nPage + 1, nPageTotal);

  002d0	a1 00 00 00 00	 mov	 eax, DWORD PTR ?nPageTotal@@3HA
  002d5	50		 push	 eax
  002d6	8b 0d 00 00 00
	00		 mov	 ecx, DWORD PTR ?nPage@@3HA
  002dc	83 c1 01	 add	 ecx, 1
  002df	51		 push	 ecx
  002e0	68 00 00 00 00	 push	 OFFSET ??_C@_05LCKIIOJE@?$CFd?1?$CFd?$AA@
  002e5	8d 95 78 ff ff
	ff		 lea	 edx, DWORD PTR _buf$[ebp]
  002eb	52		 push	 edx
  002ec	e8 00 00 00 00	 call	 _sprintf
  002f1	83 c4 10	 add	 esp, 16			; 00000010H

; 158  : 	StockFontBuffer(x + 65, y + 295, FONT_PRIO_FRONT, FONT_PAL_AQUA, buf, 0);

  002f4	6a 00		 push	 0
  002f6	8d 85 78 ff ff
	ff		 lea	 eax, DWORD PTR _buf$[ebp]
  002fc	50		 push	 eax
  002fd	6a 01		 push	 1
  002ff	6a 01		 push	 1
  00301	8b 4d dc	 mov	 ecx, DWORD PTR _y$[ebp]
  00304	81 c1 27 01 00
	00		 add	 ecx, 295		; 00000127H
  0030a	51		 push	 ecx
  0030b	8b 55 e8	 mov	 edx, DWORD PTR _x$[ebp]
  0030e	83 c2 41	 add	 edx, 65			; 00000041H
  00311	52		 push	 edx
  00312	e8 00 00 00 00	 call	 ?StockFontBuffer@@YAHHHDHPADH@Z ; StockFontBuffer
  00317	83 c4 18	 add	 esp, 24			; 00000018H

; 159  : 
; 160  : 	//取当前页显示的数量
; 161  : 	int count_this_page = count - nPage * 13;

  0031a	6b 05 00 00 00
	00 0d		 imul	 eax, DWORD PTR ?nPage@@3HA, 13
  00321	8b 4d 94	 mov	 ecx, DWORD PTR _count$[ebp]
  00324	2b c8		 sub	 ecx, eax
  00326	89 8d 6c ff ff
	ff		 mov	 DWORD PTR _count_this_page$[ebp], ecx

; 162  : 	count_this_page = (count_this_page >= 13) ? 13 : count_this_page % 13;

  0032c	83 bd 6c ff ff
	ff 0d		 cmp	 DWORD PTR _count_this_page$[ebp], 13 ; 0000000dH
  00333	7c 0c		 jl	 SHORT $LN27@Init
  00335	c7 85 34 fe ff
	ff 0d 00 00 00	 mov	 DWORD PTR tv248[ebp], 13 ; 0000000dH
  0033f	eb 14		 jmp	 SHORT $LN28@Init
$LN27@Init:
  00341	8b 85 6c ff ff
	ff		 mov	 eax, DWORD PTR _count_this_page$[ebp]
  00347	99		 cdq
  00348	b9 0d 00 00 00	 mov	 ecx, 13			; 0000000dH
  0034d	f7 f9		 idiv	 ecx
  0034f	89 95 34 fe ff
	ff		 mov	 DWORD PTR tv248[ebp], edx
$LN28@Init:
  00355	8b 95 34 fe ff
	ff		 mov	 edx, DWORD PTR tv248[ebp]
  0035b	89 95 6c ff ff
	ff		 mov	 DWORD PTR _count_this_page$[ebp], edx

; 163  : 
; 164  : 	for (int i = nPage * 13, j = 0; i < nPage * 13 + count_this_page; i++, j++){

  00361	6b 05 00 00 00
	00 0d		 imul	 eax, DWORD PTR ?nPage@@3HA, 13
  00368	89 85 60 ff ff
	ff		 mov	 DWORD PTR _i$7[ebp], eax
  0036e	c7 85 54 ff ff
	ff 00 00 00 00	 mov	 DWORD PTR _j$6[ebp], 0
  00378	eb 1e		 jmp	 SHORT $LN4@Init
$LN2@Init:
  0037a	8b 85 60 ff ff
	ff		 mov	 eax, DWORD PTR _i$7[ebp]
  00380	83 c0 01	 add	 eax, 1
  00383	89 85 60 ff ff
	ff		 mov	 DWORD PTR _i$7[ebp], eax
  00389	8b 8d 54 ff ff
	ff		 mov	 ecx, DWORD PTR _j$6[ebp]
  0038f	83 c1 01	 add	 ecx, 1
  00392	89 8d 54 ff ff
	ff		 mov	 DWORD PTR _j$6[ebp], ecx
$LN4@Init:
  00398	6b 05 00 00 00
	00 0d		 imul	 eax, DWORD PTR ?nPage@@3HA, 13
  0039f	03 85 6c ff ff
	ff		 add	 eax, DWORD PTR _count_this_page$[ebp]
  003a5	39 85 60 ff ff
	ff		 cmp	 DWORD PTR _i$7[ebp], eax
  003ab	0f 8d a7 01 00
	00		 jge	 $LN3@Init

; 165  : 		char buf[30];
; 166  : 		//文字居中
; 167  : 		CenteringStr(data光环[i].name, buf, 19);

  003b1	6a 13		 push	 19			; 00000013H
  003b3	8d 85 2c ff ff
	ff		 lea	 eax, DWORD PTR _buf$5[ebp]
  003b9	50		 push	 eax
  003ba	6b 8d 60 ff ff
	ff 1c		 imul	 ecx, DWORD PTR _i$7[ebp], 28
  003c1	81 c1 04 00 00
	00		 add	 ecx, OFFSET ?data光环@@3PAU光环STRUCT@@A+4
  003c7	51		 push	 ecx
  003c8	e8 00 00 00 00	 call	 ?CenteringStr@@YAXPAD0H@Z ; CenteringStr
  003cd	83 c4 0c	 add	 esp, 12			; 0000000cH

; 168  : 		//设定文字左上角位置
; 169  : 		int x1 = x + 13;

  003d0	8b 45 e8	 mov	 eax, DWORD PTR _x$[ebp]
  003d3	83 c0 0d	 add	 eax, 13			; 0000000dH
  003d6	89 85 20 ff ff
	ff		 mov	 DWORD PTR _x1$4[ebp], eax

; 170  : 		int y1 = y + 30 + j * 20;

  003dc	6b 85 54 ff ff
	ff 14		 imul	 eax, DWORD PTR _j$6[ebp], 20
  003e3	8b 4d dc	 mov	 ecx, DWORD PTR _y$[ebp]
  003e6	8d 54 01 1e	 lea	 edx, DWORD PTR [ecx+eax+30]
  003ea	89 95 14 ff ff
	ff		 mov	 DWORD PTR _y1$3[ebp], edx

; 171  : 
; 172  : 		//输出文字
; 173  : 		if (data光环[i].time != 0)

  003f0	6b 85 60 ff ff
	ff 1c		 imul	 eax, DWORD PTR _i$7[ebp], 28
  003f7	83 b8 18 00 00
	00 00		 cmp	 DWORD PTR ?data光环@@3PAU光环STRUCT@@A[eax+24], 0
  003fe	74 58		 je	 SHORT $LN13@Init

; 174  : 			if (i == curSel){

  00400	8b 85 60 ff ff
	ff		 mov	 eax, DWORD PTR _i$7[ebp]
  00406	3b 05 00 00 00
	00		 cmp	 eax, DWORD PTR ?curSel@@3HA
  0040c	75 25		 jne	 SHORT $LN15@Init

; 175  : 				StockFontBuffer(x1, y1, FONT_PRIO_FRONT, FONT_PAL_RED, buf, 0);	//红色

  0040e	6a 00		 push	 0
  00410	8d 85 2c ff ff
	ff		 lea	 eax, DWORD PTR _buf$5[ebp]
  00416	50		 push	 eax
  00417	6a 06		 push	 6
  00419	6a 01		 push	 1
  0041b	8b 8d 14 ff ff
	ff		 mov	 ecx, DWORD PTR _y1$3[ebp]
  00421	51		 push	 ecx
  00422	8b 95 20 ff ff
	ff		 mov	 edx, DWORD PTR _x1$4[ebp]
  00428	52		 push	 edx
  00429	e8 00 00 00 00	 call	 ?StockFontBuffer@@YAHHHDHPADH@Z ; StockFontBuffer
  0042e	83 c4 18	 add	 esp, 24			; 00000018H

; 176  : 			}else{

  00431	eb 23		 jmp	 SHORT $LN16@Init
$LN15@Init:

; 177  : 				StockFontBuffer(x1, y1, FONT_PRIO_FRONT, FONT_PAL_GREEN, buf, 0);	//绿色

  00433	6a 00		 push	 0
  00435	8d 85 2c ff ff
	ff		 lea	 eax, DWORD PTR _buf$5[ebp]
  0043b	50		 push	 eax
  0043c	6a 05		 push	 5
  0043e	6a 01		 push	 1
  00440	8b 8d 14 ff ff
	ff		 mov	 ecx, DWORD PTR _y1$3[ebp]
  00446	51		 push	 ecx
  00447	8b 95 20 ff ff
	ff		 mov	 edx, DWORD PTR _x1$4[ebp]
  0044d	52		 push	 edx
  0044e	e8 00 00 00 00	 call	 ?StockFontBuffer@@YAHHHDHPADH@Z ; StockFontBuffer
  00453	83 c4 18	 add	 esp, 24			; 00000018H
$LN16@Init:

; 178  : 			}
; 179  : 		else

  00456	eb 23		 jmp	 SHORT $LN14@Init
$LN13@Init:

; 180  : 			StockFontBuffer(x1, y1, FONT_PRIO_FRONT, FONT_PAL_GRAY, buf, 0);	//灰色

  00458	6a 00		 push	 0
  0045a	8d 85 2c ff ff
	ff		 lea	 eax, DWORD PTR _buf$5[ebp]
  00460	50		 push	 eax
  00461	6a 07		 push	 7
  00463	6a 01		 push	 1
  00465	8b 8d 14 ff ff
	ff		 mov	 ecx, DWORD PTR _y1$3[ebp]
  0046b	51		 push	 ecx
  0046c	8b 95 20 ff ff
	ff		 mov	 edx, DWORD PTR _x1$4[ebp]
  00472	52		 push	 edx
  00473	e8 00 00 00 00	 call	 ?StockFontBuffer@@YAHHHDHPADH@Z ; StockFontBuffer
  00478	83 c4 18	 add	 esp, 24			; 00000018H
$LN14@Init:

; 181  : 
; 182  : 																				//画绿框框并判断点击
; 183  : 		if (MakeHitBox(x1, y1 - 2, x1 + 130, y1 + 17, DISP_PRIO_IME4) == TRUE){

  0047b	6a 6a		 push	 106			; 0000006aH
  0047d	8b 85 14 ff ff
	ff		 mov	 eax, DWORD PTR _y1$3[ebp]
  00483	83 c0 11	 add	 eax, 17			; 00000011H
  00486	50		 push	 eax
  00487	8b 8d 20 ff ff
	ff		 mov	 ecx, DWORD PTR _x1$4[ebp]
  0048d	81 c1 82 00 00
	00		 add	 ecx, 130		; 00000082H
  00493	51		 push	 ecx
  00494	8b 95 14 ff ff
	ff		 mov	 edx, DWORD PTR _y1$3[ebp]
  0049a	83 ea 02	 sub	 edx, 2
  0049d	52		 push	 edx
  0049e	8b 85 20 ff ff
	ff		 mov	 eax, DWORD PTR _x1$4[ebp]
  004a4	50		 push	 eax
  004a5	e8 00 00 00 00	 call	 ?MakeHitBox@@YAHHHHHH@Z	; MakeHitBox
  004aa	83 c4 14	 add	 esp, 20			; 00000014H
  004ad	83 f8 01	 cmp	 eax, 1
  004b0	0f 85 9d 00 00
	00		 jne	 $LN17@Init

; 184  : 			if (mouse.onceState & MOUSE_LEFT_CRICK){

  004b6	a1 2c 00 00 00	 mov	 eax, DWORD PTR ?mouse@@3UMOUSE@@A+44
  004bb	83 e0 01	 and	 eax, 1
  004be	0f 84 8f 00 00
	00		 je	 $LN17@Init

; 185  : 				//保存点击的编号
; 186  : 				curSel = i;

  004c4	8b 85 60 ff ff
	ff		 mov	 eax, DWORD PTR _i$7[ebp]
  004ca	a3 00 00 00 00	 mov	 DWORD PTR ?curSel@@3HA, eax

; 187  : 				//删除原有动画
; 188  : 				delAct光环();

  004cf	e8 00 00 00 00	 call	 ?delAct光环@@YAXXZ	; delAct光环

; 189  : 
; 190  : 				pAct光环人物 = MakeAnimDisp(x + 280, y + 184, pc.graNo, 0);

  004d4	6a 00		 push	 0
  004d6	a1 00 00 00 00	 mov	 eax, DWORD PTR ?pc@@3UPC@@A
  004db	50		 push	 eax
  004dc	8b 4d dc	 mov	 ecx, DWORD PTR _y$[ebp]
  004df	81 c1 b8 00 00
	00		 add	 ecx, 184		; 000000b8H
  004e5	51		 push	 ecx
  004e6	8b 55 e8	 mov	 edx, DWORD PTR _x$[ebp]
  004e9	81 c2 18 01 00
	00		 add	 edx, 280		; 00000118H
  004ef	52		 push	 edx
  004f0	e8 00 00 00 00	 call	 ?MakeAnimDisp@@YAPAUaction@@HHHH@Z ; MakeAnimDisp
  004f5	83 c4 10	 add	 esp, 16			; 00000010H
  004f8	a3 00 00 00 00	 mov	 DWORD PTR ?pAct光环人物@@3PAUaction@@A, eax ; pAct光环人物

; 191  : 
; 192  : 				short x2, y2;
; 193  : 				if (获取动画尺寸(pAct光环人物, &x2, &y2)){

  004fd	8d 85 fc fe ff
	ff		 lea	 eax, DWORD PTR _y2$1[ebp]
  00503	50		 push	 eax
  00504	8d 8d 08 ff ff
	ff		 lea	 ecx, DWORD PTR _x2$2[ebp]
  0050a	51		 push	 ecx
  0050b	8b 15 00 00 00
	00		 mov	 edx, DWORD PTR ?pAct光环人物@@3PAUaction@@A ; pAct光环人物
  00511	52		 push	 edx
  00512	e8 00 00 00 00	 call	 ?获取动画尺寸@@YAHPAUaction@@PAF1@Z ; 获取动画尺寸
  00517	83 c4 0c	 add	 esp, 12			; 0000000cH
  0051a	85 c0		 test	 eax, eax
  0051c	74 30		 je	 SHORT $LN19@Init

; 194  : 					pAct光环 = MakeAnimDisp(x + 280, y + 184, data光环[i].bmpNO, 0);

  0051e	6a 00		 push	 0
  00520	6b 85 60 ff ff
	ff 1c		 imul	 eax, DWORD PTR _i$7[ebp], 28
  00527	8b 88 00 00 00
	00		 mov	 ecx, DWORD PTR ?data光环@@3PAU光环STRUCT@@A[eax]
  0052d	51		 push	 ecx
  0052e	8b 55 dc	 mov	 edx, DWORD PTR _y$[ebp]
  00531	81 c2 b8 00 00
	00		 add	 edx, 184		; 000000b8H
  00537	52		 push	 edx
  00538	8b 45 e8	 mov	 eax, DWORD PTR _x$[ebp]
  0053b	05 18 01 00 00	 add	 eax, 280		; 00000118H
  00540	50		 push	 eax
  00541	e8 00 00 00 00	 call	 ?MakeAnimDisp@@YAPAUaction@@HHHH@Z ; MakeAnimDisp
  00546	83 c4 10	 add	 esp, 16			; 00000010H
  00549	a3 00 00 00 00	 mov	 DWORD PTR ?pAct光环@@3PAUaction@@A, eax ; pAct光环
$LN19@Init:

; 195  : 				}
; 196  : 				return;

  0054e	e9 81 00 00 00	 jmp	 $LN1@Init
$LN17@Init:

; 197  : 			}
; 198  : 		}
; 199  : 	}

  00553	e9 22 fe ff ff	 jmp	 $LN2@Init
$LN3@Init:

; 200  : 
; 201  : 	if (mouse.onceState & MOUSE_LEFT_CRICK){

  00558	a1 2c 00 00 00	 mov	 eax, DWORD PTR ?mouse@@3UMOUSE@@A+44
  0055d	83 e0 01	 and	 eax, 1
  00560	74 72		 je	 SHORT $LN1@Init

; 202  : 		if (HitDispNo == button[0]){ //左箭头

  00562	b8 04 00 00 00	 mov	 eax, 4
  00567	6b c8 00	 imul	 ecx, eax, 0
  0056a	8b 15 00 00 00
	00		 mov	 edx, DWORD PTR ?HitDispNo@@3HA ; HitDispNo
  00570	3b 91 00 00 00
	00		 cmp	 edx, DWORD PTR ?button@@3PAHA[ecx]
  00576	75 1b		 jne	 SHORT $LN21@Init

; 203  : 			nPage--;

  00578	a1 00 00 00 00	 mov	 eax, DWORD PTR ?nPage@@3HA
  0057d	83 e8 01	 sub	 eax, 1
  00580	a3 00 00 00 00	 mov	 DWORD PTR ?nPage@@3HA, eax

; 204  : 			if (nPage < 0)nPage = 0;

  00585	79 0a		 jns	 SHORT $LN23@Init
  00587	c7 05 00 00 00
	00 00 00 00 00	 mov	 DWORD PTR ?nPage@@3HA, 0
$LN23@Init:

; 205  : 		}else if (HitDispNo == button[1]){ //右箭头

  00591	eb 40		 jmp	 SHORT $LN22@Init
$LN21@Init:
  00593	b8 04 00 00 00	 mov	 eax, 4
  00598	c1 e0 00	 shl	 eax, 0
  0059b	8b 0d 00 00 00
	00		 mov	 ecx, DWORD PTR ?HitDispNo@@3HA ; HitDispNo
  005a1	3b 88 00 00 00
	00		 cmp	 ecx, DWORD PTR ?button@@3PAHA[eax]
  005a7	75 2a		 jne	 SHORT $LN22@Init

; 206  : 			nPage++;

  005a9	a1 00 00 00 00	 mov	 eax, DWORD PTR ?nPage@@3HA
  005ae	83 c0 01	 add	 eax, 1
  005b1	a3 00 00 00 00	 mov	 DWORD PTR ?nPage@@3HA, eax

; 207  : 			if (nPage >= nPageTotal- 1) nPage = nPageTotal -1 ;

  005b6	a1 00 00 00 00	 mov	 eax, DWORD PTR ?nPageTotal@@3HA
  005bb	83 e8 01	 sub	 eax, 1
  005be	39 05 00 00 00
	00		 cmp	 DWORD PTR ?nPage@@3HA, eax
  005c4	7c 0d		 jl	 SHORT $LN22@Init
  005c6	a1 00 00 00 00	 mov	 eax, DWORD PTR ?nPageTotal@@3HA
  005cb	83 e8 01	 sub	 eax, 1
  005ce	a3 00 00 00 00	 mov	 DWORD PTR ?nPage@@3HA, eax
$LN22@Init:

; 208  : 		}
; 209  : 		__asm nop;

  005d3	90		 npad	 1
$LN1@Init:

; 210  : 	}
; 211  : 
; 212  : }

  005d4	52		 push	 edx
  005d5	8b cd		 mov	 ecx, ebp
  005d7	50		 push	 eax
  005d8	8d 15 00 00 00
	00		 lea	 edx, DWORD PTR $LN36@Init
  005de	e8 00 00 00 00	 call	 @_RTC_CheckStackVars@8
  005e3	58		 pop	 eax
  005e4	5a		 pop	 edx
  005e5	5f		 pop	 edi
  005e6	5e		 pop	 esi
  005e7	5b		 pop	 ebx
  005e8	8b 4d fc	 mov	 ecx, DWORD PTR __$ArrayPad$[ebp]
  005eb	33 cd		 xor	 ecx, ebp
  005ed	e8 00 00 00 00	 call	 @__security_check_cookie@4
  005f2	81 c4 cc 01 00
	00		 add	 esp, 460		; 000001ccH
  005f8	3b ec		 cmp	 ebp, esp
  005fa	e8 00 00 00 00	 call	 __RTC_CheckEsp
  005ff	8b e5		 mov	 esp, ebp
  00601	5d		 pop	 ebp
  00602	c3		 ret	 0
  00603	90		 npad	 1
$LN36@Init:
  00604	06 00 00 00	 DD	 6
  00608	00 00 00 00	 DD	 $LN35@Init
$LN35@Init:
  0060c	f4 ff ff ff	 DD	 -12			; fffffff4H
  00610	04 00 00 00	 DD	 4
  00614	00 00 00 00	 DD	 $LN29@Init
  00618	a0 ff ff ff	 DD	 -96			; ffffffa0H
  0061c	32 00 00 00	 DD	 50			; 00000032H
  00620	00 00 00 00	 DD	 $LN30@Init
  00624	78 ff ff ff	 DD	 -136			; ffffff78H
  00628	14 00 00 00	 DD	 20			; 00000014H
  0062c	00 00 00 00	 DD	 $LN31@Init
  00630	2c ff ff ff	 DD	 -212			; ffffff2cH
  00634	1e 00 00 00	 DD	 30			; 0000001eH
  00638	00 00 00 00	 DD	 $LN32@Init
  0063c	08 ff ff ff	 DD	 -248			; ffffff08H
  00640	02 00 00 00	 DD	 2
  00644	00 00 00 00	 DD	 $LN33@Init
  00648	fc fe ff ff	 DD	 -260			; fffffefcH
  0064c	02 00 00 00	 DD	 2
  00650	00 00 00 00	 DD	 $LN34@Init
$LN34@Init:
  00654	79		 DB	 121			; 00000079H
  00655	32		 DB	 50			; 00000032H
  00656	00		 DB	 0
$LN33@Init:
  00657	78		 DB	 120			; 00000078H
  00658	32		 DB	 50			; 00000032H
  00659	00		 DB	 0
$LN32@Init:
  0065a	62		 DB	 98			; 00000062H
  0065b	75		 DB	 117			; 00000075H
  0065c	66		 DB	 102			; 00000066H
  0065d	00		 DB	 0
$LN31@Init:
  0065e	62		 DB	 98			; 00000062H
  0065f	75		 DB	 117			; 00000075H
  00660	66		 DB	 102			; 00000066H
  00661	00		 DB	 0
$LN30@Init:
  00662	62		 DB	 98			; 00000062H
  00663	75		 DB	 117			; 00000075H
  00664	66		 DB	 102			; 00000066H
  00665	00		 DB	 0
$LN29@Init:
  00666	42		 DB	 66			; 00000042H
  00667	6d		 DB	 109			; 0000006dH
  00668	70		 DB	 112			; 00000070H
  00669	4e		 DB	 78			; 0000004eH
  0066a	6f		 DB	 111			; 0000006fH
  0066b	00		 DB	 0
?Init光环窗口@@YAXXZ ENDP				; Init光环窗口
_TEXT	ENDS
; Function compile flags: /Odtp /RTCsu /ZI
; File c:\users\administrator\desktop\????? ??\????? ??\client source code\system\光环.cpp
;	COMDAT ?delAct光环@@YAXXZ
_TEXT	SEGMENT
?delAct光环@@YAXXZ PROC					; delAct光环, COMDAT

; 80   : void delAct光环(){

  00000	55		 push	 ebp
  00001	8b ec		 mov	 ebp, esp
  00003	81 ec c0 00 00
	00		 sub	 esp, 192		; 000000c0H
  00009	53		 push	 ebx
  0000a	56		 push	 esi
  0000b	57		 push	 edi
  0000c	8d bd 40 ff ff
	ff		 lea	 edi, DWORD PTR [ebp-192]
  00012	b9 30 00 00 00	 mov	 ecx, 48			; 00000030H
  00017	b8 cc cc cc cc	 mov	 eax, -858993460		; ccccccccH
  0001c	f3 ab		 rep stosd

; 81   : 	if (pAct光环人物){

  0001e	83 3d 00 00 00
	00 00		 cmp	 DWORD PTR ?pAct光环人物@@3PAUaction@@A, 0 ; pAct光环人物
  00025	74 18		 je	 SHORT $LN2@delAct

; 82   : 		DeathAction(pAct光环人物);

  00027	a1 00 00 00 00	 mov	 eax, DWORD PTR ?pAct光环人物@@3PAUaction@@A ; pAct光环人物
  0002c	50		 push	 eax
  0002d	e8 00 00 00 00	 call	 ?DeathAction@@YAXPAUaction@@@Z ; DeathAction
  00032	83 c4 04	 add	 esp, 4

; 83   : 		pAct光环人物 = NULL;

  00035	c7 05 00 00 00
	00 00 00 00 00	 mov	 DWORD PTR ?pAct光环人物@@3PAUaction@@A, 0 ; pAct光环人物
$LN2@delAct:

; 84   : 	}
; 85   : 	if (pAct光环){

  0003f	83 3d 00 00 00
	00 00		 cmp	 DWORD PTR ?pAct光环@@3PAUaction@@A, 0 ; pAct光环
  00046	74 18		 je	 SHORT $LN1@delAct

; 86   : 		DeathAction(pAct光环);

  00048	a1 00 00 00 00	 mov	 eax, DWORD PTR ?pAct光环@@3PAUaction@@A ; pAct光环
  0004d	50		 push	 eax
  0004e	e8 00 00 00 00	 call	 ?DeathAction@@YAXPAUaction@@@Z ; DeathAction
  00053	83 c4 04	 add	 esp, 4

; 87   : 		pAct光环 = NULL;

  00056	c7 05 00 00 00
	00 00 00 00 00	 mov	 DWORD PTR ?pAct光环@@3PAUaction@@A, 0 ; pAct光环
$LN1@delAct:

; 88   : 	}
; 89   : }

  00060	5f		 pop	 edi
  00061	5e		 pop	 esi
  00062	5b		 pop	 ebx
  00063	81 c4 c0 00 00
	00		 add	 esp, 192		; 000000c0H
  00069	3b ec		 cmp	 ebp, esp
  0006b	e8 00 00 00 00	 call	 __RTC_CheckEsp
  00070	8b e5		 mov	 esp, ebp
  00072	5d		 pop	 ebp
  00073	c3		 ret	 0
?delAct光环@@YAXXZ ENDP					; delAct光环
_TEXT	ENDS
; Function compile flags: /Odtp /RTCsu /ZI
; File c:\users\administrator\desktop\????? ??\????? ??\client source code\system\光环.cpp
;	COMDAT ?lssproto_查询光环_recv@@YAXPAD@Z
_TEXT	SEGMENT
_j$1 = -8136						; size = 4
_time$2 = -8124						; size = 4
_image$3 = -8112					; size = 4
_i$4 = -8100						; size = 4
_i$5 = -8088						; size = 4
_max$ = -8076						; size = 4
_pData$ = -8064						; size = 4
_array2$ = -8052					; size = 8004
_count$ = -40						; size = 4
_array$ = -28						; size = 20
__$ArrayPad$ = -4					; size = 4
_data$ = 8						; size = 4
?lssproto_查询光环_recv@@YAXPAD@Z PROC			; lssproto_查询光环_recv, COMDAT

; 39   : void lssproto_查询光环_recv(char* data){

  00000	55		 push	 ebp
  00001	8b ec		 mov	 ebp, esp
  00003	b8 cc 25 00 00	 mov	 eax, 9676		; 000025ccH
  00008	e8 00 00 00 00	 call	 __chkstk
  0000d	53		 push	 ebx
  0000e	56		 push	 esi
  0000f	57		 push	 edi
  00010	8d bd 34 da ff
	ff		 lea	 edi, DWORD PTR [ebp-9676]
  00016	b9 73 09 00 00	 mov	 ecx, 2419		; 00000973H
  0001b	b8 cc cc cc cc	 mov	 eax, -858993460		; ccccccccH
  00020	f3 ab		 rep stosd
  00022	a1 00 00 00 00	 mov	 eax, DWORD PTR ___security_cookie
  00027	33 c5		 xor	 eax, ebp
  00029	89 45 fc	 mov	 DWORD PTR __$ArrayPad$[ebp], eax

; 40   : 	char* array[5];
; 41   : 	int count = split_damage(data, '\'', (int*)array, 4);

  0002c	6a 04		 push	 4
  0002e	8d 45 e4	 lea	 eax, DWORD PTR _array$[ebp]
  00031	50		 push	 eax
  00032	6a 27		 push	 39			; 00000027H
  00034	8b 4d 08	 mov	 ecx, DWORD PTR _data$[ebp]
  00037	51		 push	 ecx
  00038	e8 00 00 00 00	 call	 ?split_damage@@YAHPADDPAHI@Z ; split_damage
  0003d	83 c4 10	 add	 esp, 16			; 00000010H
  00040	89 45 d8	 mov	 DWORD PTR _count$[ebp], eax

; 42   : 	if (count != 3)return;

  00043	83 7d d8 03	 cmp	 DWORD PTR _count$[ebp], 3
  00047	74 05		 je	 SHORT $LN11@lssproto_
  00049	e9 28 02 00 00	 jmp	 $LN1@lssproto_
$LN11@lssproto_:

; 43   : 
; 44   : 	char* array2[2001];
; 45   : 	count = split_damage(array[1], '|', (int*)array2, 2000);

  0004e	68 d0 07 00 00	 push	 2000			; 000007d0H
  00053	8d 85 8c e0 ff
	ff		 lea	 eax, DWORD PTR _array2$[ebp]
  00059	50		 push	 eax
  0005a	6a 7c		 push	 124			; 0000007cH
  0005c	b9 04 00 00 00	 mov	 ecx, 4
  00061	c1 e1 00	 shl	 ecx, 0
  00064	8b 54 0d e4	 mov	 edx, DWORD PTR _array$[ebp+ecx]
  00068	52		 push	 edx
  00069	e8 00 00 00 00	 call	 ?split_damage@@YAHPADDPAHI@Z ; split_damage
  0006e	83 c4 10	 add	 esp, 16			; 00000010H
  00071	89 45 d8	 mov	 DWORD PTR _count$[ebp], eax

; 46   : 
; 47   : 	光环STRUCT* pData = NULL;

  00074	c7 85 80 e0 ff
	ff 00 00 00 00	 mov	 DWORD PTR _pData$[ebp], 0

; 48   : 	int max = 0;

  0007e	c7 85 74 e0 ff
	ff 00 00 00 00	 mov	 DWORD PTR _max$[ebp], 0

; 49   : 
; 50   : 	if (lstrcmpiA(array[0], "CHENHAORIGHT") == 0){	//称号

  00088	8b f4		 mov	 esi, esp
  0008a	68 00 00 00 00	 push	 OFFSET ??_C@_0N@GBMJNGDM@CHENHAORIGHT?$AA@
  0008f	b8 04 00 00 00	 mov	 eax, 4
  00094	6b c8 00	 imul	 ecx, eax, 0
  00097	8b 54 0d e4	 mov	 edx, DWORD PTR _array$[ebp+ecx]
  0009b	52		 push	 edx
  0009c	ff 15 00 00 00
	00		 call	 DWORD PTR __imp__lstrcmpiA@8
  000a2	3b f4		 cmp	 esi, esp
  000a4	e8 00 00 00 00	 call	 __RTC_CheckEsp
  000a9	85 c0		 test	 eax, eax
  000ab	75 23		 jne	 SHORT $LN12@lssproto_

; 51   : 		extern 光环STRUCT data称号[];
; 52   : 		pData = &data称号[0];

  000ad	b8 1c 00 00 00	 mov	 eax, 28			; 0000001cH
  000b2	6b c8 00	 imul	 ecx, eax, 0
  000b5	81 c1 00 00 00
	00		 add	 ecx, OFFSET ?data称号@@3PAU光环STRUCT@@A ; data称号
  000bb	89 8d 80 e0 ff
	ff		 mov	 DWORD PTR _pData$[ebp], ecx

; 53   : 		max = MAX_COUNT_称号;

  000c1	c7 85 74 e0 ff
	ff c8 00 00 00	 mov	 DWORD PTR _max$[ebp], 200 ; 000000c8H
  000cb	e9 88 00 00 00	 jmp	 $LN13@lssproto_
$LN12@lssproto_:

; 54   : 	}else if (lstrcmpiA(array[0], "GUANGHUANRIGHT") == 0){//光环

  000d0	8b f4		 mov	 esi, esp
  000d2	68 00 00 00 00	 push	 OFFSET ??_C@_0P@GKNHDFHB@GUANGHUANRIGHT?$AA@
  000d7	b8 04 00 00 00	 mov	 eax, 4
  000dc	6b c8 00	 imul	 ecx, eax, 0
  000df	8b 54 0d e4	 mov	 edx, DWORD PTR _array$[ebp+ecx]
  000e3	52		 push	 edx
  000e4	ff 15 00 00 00
	00		 call	 DWORD PTR __imp__lstrcmpiA@8
  000ea	3b f4		 cmp	 esi, esp
  000ec	e8 00 00 00 00	 call	 __RTC_CheckEsp
  000f1	85 c0		 test	 eax, eax
  000f3	75 20		 jne	 SHORT $LN14@lssproto_

; 55   : 		extern 光环STRUCT data光环[];
; 56   : 		pData = &data光环[0];

  000f5	b8 1c 00 00 00	 mov	 eax, 28			; 0000001cH
  000fa	6b c8 00	 imul	 ecx, eax, 0
  000fd	81 c1 00 00 00
	00		 add	 ecx, OFFSET ?data光环@@3PAU光环STRUCT@@A ; data光环
  00103	89 8d 80 e0 ff
	ff		 mov	 DWORD PTR _pData$[ebp], ecx

; 57   : 		max = MAX_COUNT_光环;

  00109	c7 85 74 e0 ff
	ff c8 00 00 00	 mov	 DWORD PTR _max$[ebp], 200 ; 000000c8H
  00113	eb 43		 jmp	 SHORT $LN13@lssproto_
$LN14@lssproto_:

; 58   : 	}else if (lstrcmpiA(array[0], "PIFURIGHT") == 0){//皮肤

  00115	8b f4		 mov	 esi, esp
  00117	68 00 00 00 00	 push	 OFFSET ??_C@_09PLHHBOIP@PIFURIGHT?$AA@
  0011c	b8 04 00 00 00	 mov	 eax, 4
  00121	6b c8 00	 imul	 ecx, eax, 0
  00124	8b 54 0d e4	 mov	 edx, DWORD PTR _array$[ebp+ecx]
  00128	52		 push	 edx
  00129	ff 15 00 00 00
	00		 call	 DWORD PTR __imp__lstrcmpiA@8
  0012f	3b f4		 cmp	 esi, esp
  00131	e8 00 00 00 00	 call	 __RTC_CheckEsp
  00136	85 c0		 test	 eax, eax
  00138	75 1e		 jne	 SHORT $LN13@lssproto_

; 59   : 		extern 光环STRUCT data皮肤[];
; 60   : 		pData = &data皮肤[0];

  0013a	b8 1c 00 00 00	 mov	 eax, 28			; 0000001cH
  0013f	6b c8 00	 imul	 ecx, eax, 0
  00142	81 c1 00 00 00
	00		 add	 ecx, OFFSET ?data皮肤@@3PAU光环STRUCT@@A ; data皮肤
  00148	89 8d 80 e0 ff
	ff		 mov	 DWORD PTR _pData$[ebp], ecx

; 61   : 		max = MAX_COUNT_皮肤;

  0014e	c7 85 74 e0 ff
	ff 58 02 00 00	 mov	 DWORD PTR _max$[ebp], 600 ; 00000258H
$LN13@lssproto_:

; 62   : 	}
; 63   : 	//先将所有数据的时间清0
; 64   : 	for (int i = 0; i < max; i++){

  00158	c7 85 68 e0 ff
	ff 00 00 00 00	 mov	 DWORD PTR _i$5[ebp], 0
  00162	eb 0f		 jmp	 SHORT $LN4@lssproto_
$LN2@lssproto_:
  00164	8b 85 68 e0 ff
	ff		 mov	 eax, DWORD PTR _i$5[ebp]
  0016a	83 c0 01	 add	 eax, 1
  0016d	89 85 68 e0 ff
	ff		 mov	 DWORD PTR _i$5[ebp], eax
$LN4@lssproto_:
  00173	8b 85 68 e0 ff
	ff		 mov	 eax, DWORD PTR _i$5[ebp]
  00179	3b 85 74 e0 ff
	ff		 cmp	 eax, DWORD PTR _max$[ebp]
  0017f	7d 17		 jge	 SHORT $LN3@lssproto_

; 65   : 		pData[i].time = 0;

  00181	6b 85 68 e0 ff
	ff 1c		 imul	 eax, DWORD PTR _i$5[ebp], 28
  00188	8b 8d 80 e0 ff
	ff		 mov	 ecx, DWORD PTR _pData$[ebp]
  0018e	c7 44 01 18 00
	00 00 00	 mov	 DWORD PTR [ecx+eax+24], 0

; 66   : 	}

  00196	eb cc		 jmp	 SHORT $LN2@lssproto_
$LN3@lssproto_:

; 67   : 
; 68   : 	for (int i = 0; i < count/2; i++){

  00198	c7 85 5c e0 ff
	ff 00 00 00 00	 mov	 DWORD PTR _i$4[ebp], 0
  001a2	eb 0f		 jmp	 SHORT $LN7@lssproto_
$LN5@lssproto_:
  001a4	8b 85 5c e0 ff
	ff		 mov	 eax, DWORD PTR _i$4[ebp]
  001aa	83 c0 01	 add	 eax, 1
  001ad	89 85 5c e0 ff
	ff		 mov	 DWORD PTR _i$4[ebp], eax
$LN7@lssproto_:
  001b3	8b 45 d8	 mov	 eax, DWORD PTR _count$[ebp]
  001b6	99		 cdq
  001b7	2b c2		 sub	 eax, edx
  001b9	d1 f8		 sar	 eax, 1
  001bb	39 85 5c e0 ff
	ff		 cmp	 DWORD PTR _i$4[ebp], eax
  001c1	0f 8d af 00 00
	00		 jge	 $LN1@lssproto_

; 69   : 		int image = atoi(array2[2 * i]);

  001c7	8b 85 5c e0 ff
	ff		 mov	 eax, DWORD PTR _i$4[ebp]
  001cd	d1 e0		 shl	 eax, 1
  001cf	8b f4		 mov	 esi, esp
  001d1	8b 8c 85 8c e0
	ff ff		 mov	 ecx, DWORD PTR _array2$[ebp+eax*4]
  001d8	51		 push	 ecx
  001d9	ff 15 00 00 00
	00		 call	 DWORD PTR __imp__atoi
  001df	83 c4 04	 add	 esp, 4
  001e2	3b f4		 cmp	 esi, esp
  001e4	e8 00 00 00 00	 call	 __RTC_CheckEsp
  001e9	89 85 50 e0 ff
	ff		 mov	 DWORD PTR _image$3[ebp], eax

; 70   : 		int time = atoi(array2[2 * i + 1]);

  001ef	8b 85 5c e0 ff
	ff		 mov	 eax, DWORD PTR _i$4[ebp]
  001f5	d1 e0		 shl	 eax, 1
  001f7	8b f4		 mov	 esi, esp
  001f9	8b 8c 85 90 e0
	ff ff		 mov	 ecx, DWORD PTR _array2$[ebp+eax*4+4]
  00200	51		 push	 ecx
  00201	ff 15 00 00 00
	00		 call	 DWORD PTR __imp__atoi
  00207	83 c4 04	 add	 esp, 4
  0020a	3b f4		 cmp	 esi, esp
  0020c	e8 00 00 00 00	 call	 __RTC_CheckEsp
  00211	89 85 44 e0 ff
	ff		 mov	 DWORD PTR _time$2[ebp], eax

; 71   : 		for (int j = 0; j < max; j++){

  00217	c7 85 38 e0 ff
	ff 00 00 00 00	 mov	 DWORD PTR _j$1[ebp], 0
  00221	eb 0f		 jmp	 SHORT $LN10@lssproto_
$LN8@lssproto_:
  00223	8b 85 38 e0 ff
	ff		 mov	 eax, DWORD PTR _j$1[ebp]
  00229	83 c0 01	 add	 eax, 1
  0022c	89 85 38 e0 ff
	ff		 mov	 DWORD PTR _j$1[ebp], eax
$LN10@lssproto_:
  00232	8b 85 38 e0 ff
	ff		 mov	 eax, DWORD PTR _j$1[ebp]
  00238	3b 85 74 e0 ff
	ff		 cmp	 eax, DWORD PTR _max$[ebp]
  0023e	7d 31		 jge	 SHORT $LN9@lssproto_

; 72   : 			if (pData[j].bmpNO == image){

  00240	6b 85 38 e0 ff
	ff 1c		 imul	 eax, DWORD PTR _j$1[ebp], 28
  00247	8b 8d 80 e0 ff
	ff		 mov	 ecx, DWORD PTR _pData$[ebp]
  0024d	8b 14 01	 mov	 edx, DWORD PTR [ecx+eax]
  00250	3b 95 50 e0 ff
	ff		 cmp	 edx, DWORD PTR _image$3[ebp]
  00256	75 17		 jne	 SHORT $LN17@lssproto_

; 73   : 				pData[j].time = time;

  00258	6b 85 38 e0 ff
	ff 1c		 imul	 eax, DWORD PTR _j$1[ebp], 28
  0025f	8b 8d 80 e0 ff
	ff		 mov	 ecx, DWORD PTR _pData$[ebp]
  00265	8b 95 44 e0 ff
	ff		 mov	 edx, DWORD PTR _time$2[ebp]
  0026b	89 54 01 18	 mov	 DWORD PTR [ecx+eax+24], edx
$LN17@lssproto_:

; 74   : 			}
; 75   : 		}

  0026f	eb b2		 jmp	 SHORT $LN8@lssproto_
$LN9@lssproto_:

; 76   : 	}

  00271	e9 2e ff ff ff	 jmp	 $LN5@lssproto_
$LN1@lssproto_:

; 77   : 
; 78   : }

  00276	52		 push	 edx
  00277	8b cd		 mov	 ecx, ebp
  00279	50		 push	 eax
  0027a	8d 15 00 00 00
	00		 lea	 edx, DWORD PTR $LN22@lssproto_
  00280	e8 00 00 00 00	 call	 @_RTC_CheckStackVars@8
  00285	58		 pop	 eax
  00286	5a		 pop	 edx
  00287	5f		 pop	 edi
  00288	5e		 pop	 esi
  00289	5b		 pop	 ebx
  0028a	8b 4d fc	 mov	 ecx, DWORD PTR __$ArrayPad$[ebp]
  0028d	33 cd		 xor	 ecx, ebp
  0028f	e8 00 00 00 00	 call	 @__security_check_cookie@4
  00294	81 c4 cc 25 00
	00		 add	 esp, 9676		; 000025ccH
  0029a	3b ec		 cmp	 ebp, esp
  0029c	e8 00 00 00 00	 call	 __RTC_CheckEsp
  002a1	8b e5		 mov	 esp, ebp
  002a3	5d		 pop	 ebp
  002a4	c3		 ret	 0
  002a5	0f 1f 00	 npad	 3
$LN22@lssproto_:
  002a8	02 00 00 00	 DD	 2
  002ac	00 00 00 00	 DD	 $LN21@lssproto_
$LN21@lssproto_:
  002b0	e4 ff ff ff	 DD	 -28			; ffffffe4H
  002b4	14 00 00 00	 DD	 20			; 00000014H
  002b8	00 00 00 00	 DD	 $LN19@lssproto_
  002bc	8c e0 ff ff	 DD	 -8052			; ffffe08cH
  002c0	44 1f 00 00	 DD	 8004			; 00001f44H
  002c4	00 00 00 00	 DD	 $LN20@lssproto_
$LN20@lssproto_:
  002c8	61		 DB	 97			; 00000061H
  002c9	72		 DB	 114			; 00000072H
  002ca	72		 DB	 114			; 00000072H
  002cb	61		 DB	 97			; 00000061H
  002cc	79		 DB	 121			; 00000079H
  002cd	32		 DB	 50			; 00000032H
  002ce	00		 DB	 0
$LN19@lssproto_:
  002cf	61		 DB	 97			; 00000061H
  002d0	72		 DB	 114			; 00000072H
  002d1	72		 DB	 114			; 00000072H
  002d2	61		 DB	 97			; 00000061H
  002d3	79		 DB	 121			; 00000079H
  002d4	00		 DB	 0
?lssproto_查询光环_recv@@YAXPAD@Z ENDP			; lssproto_查询光环_recv
_TEXT	ENDS
; Function compile flags: /Odtp /RTCsu /ZI
; File c:\program files (x86)\windows kits\10\include\10.0.10240.0\ucrt\stdio.h
;	COMDAT _sprintf
_TEXT	SEGMENT
__ArgList$ = -20					; size = 4
__Result$ = -8						; size = 4
__Buffer$ = 8						; size = 4
__Format$ = 12						; size = 4
_sprintf PROC						; COMDAT

; 1776 : {

  00000	55		 push	 ebp
  00001	8b ec		 mov	 ebp, esp
  00003	81 ec d8 00 00
	00		 sub	 esp, 216		; 000000d8H
  00009	53		 push	 ebx
  0000a	56		 push	 esi
  0000b	57		 push	 edi
  0000c	8d bd 28 ff ff
	ff		 lea	 edi, DWORD PTR [ebp-216]
  00012	b9 36 00 00 00	 mov	 ecx, 54			; 00000036H
  00017	b8 cc cc cc cc	 mov	 eax, -858993460		; ccccccccH
  0001c	f3 ab		 rep stosd

; 1777 :     int _Result;
; 1778 :     va_list _ArgList;
; 1779 :     __crt_va_start(_ArgList, _Format);

  0001e	e8 00 00 00 00	 call	 ??$__vcrt_va_start_verify_argument_type@QBD@@YAXXZ ; __vcrt_va_start_verify_argument_type<char const * const>
  00023	8d 45 10	 lea	 eax, DWORD PTR __Format$[ebp+4]
  00026	89 45 ec	 mov	 DWORD PTR __ArgList$[ebp], eax

; 1780 : 
; 1781 :     #pragma warning(push)
; 1782 :     #pragma warning(disable: 4996) // Deprecation
; 1783 :     _Result = _vsprintf_l(_Buffer, _Format, NULL, _ArgList);

  00029	8b 45 ec	 mov	 eax, DWORD PTR __ArgList$[ebp]
  0002c	50		 push	 eax
  0002d	6a 00		 push	 0
  0002f	8b 4d 0c	 mov	 ecx, DWORD PTR __Format$[ebp]
  00032	51		 push	 ecx
  00033	8b 55 08	 mov	 edx, DWORD PTR __Buffer$[ebp]
  00036	52		 push	 edx
  00037	e8 00 00 00 00	 call	 __vsprintf_l
  0003c	83 c4 10	 add	 esp, 16			; 00000010H
  0003f	89 45 f8	 mov	 DWORD PTR __Result$[ebp], eax

; 1784 :     #pragma warning(pop)
; 1785 : 
; 1786 :     __crt_va_end(_ArgList);

  00042	c7 45 ec 00 00
	00 00		 mov	 DWORD PTR __ArgList$[ebp], 0

; 1787 :     return _Result;

  00049	8b 45 f8	 mov	 eax, DWORD PTR __Result$[ebp]

; 1788 : }

  0004c	5f		 pop	 edi
  0004d	5e		 pop	 esi
  0004e	5b		 pop	 ebx
  0004f	81 c4 d8 00 00
	00		 add	 esp, 216		; 000000d8H
  00055	3b ec		 cmp	 ebp, esp
  00057	e8 00 00 00 00	 call	 __RTC_CheckEsp
  0005c	8b e5		 mov	 esp, ebp
  0005e	5d		 pop	 ebp
  0005f	c3		 ret	 0
_sprintf ENDP
_TEXT	ENDS
; Function compile flags: /Odtp /RTCsu /ZI
; File c:\program files (x86)\windows kits\10\include\10.0.10240.0\ucrt\stdio.h
;	COMDAT __vsprintf_l
_TEXT	SEGMENT
__Buffer$ = 8						; size = 4
__Format$ = 12						; size = 4
__Locale$ = 16						; size = 4
__ArgList$ = 20						; size = 4
__vsprintf_l PROC					; COMDAT

; 1455 : {

  00000	55		 push	 ebp
  00001	8b ec		 mov	 ebp, esp
  00003	81 ec c0 00 00
	00		 sub	 esp, 192		; 000000c0H
  00009	53		 push	 ebx
  0000a	56		 push	 esi
  0000b	57		 push	 edi
  0000c	8d bd 40 ff ff
	ff		 lea	 edi, DWORD PTR [ebp-192]
  00012	b9 30 00 00 00	 mov	 ecx, 48			; 00000030H
  00017	b8 cc cc cc cc	 mov	 eax, -858993460		; ccccccccH
  0001c	f3 ab		 rep stosd

; 1456 :     #pragma warning(push)
; 1457 :     #pragma warning(disable: 4996) // Deprecation
; 1458 :     return _vsnprintf_l(_Buffer, (size_t)-1, _Format, _Locale, _ArgList);

  0001e	8b 45 14	 mov	 eax, DWORD PTR __ArgList$[ebp]
  00021	50		 push	 eax
  00022	8b 4d 10	 mov	 ecx, DWORD PTR __Locale$[ebp]
  00025	51		 push	 ecx
  00026	8b 55 0c	 mov	 edx, DWORD PTR __Format$[ebp]
  00029	52		 push	 edx
  0002a	6a ff		 push	 -1
  0002c	8b 45 08	 mov	 eax, DWORD PTR __Buffer$[ebp]
  0002f	50		 push	 eax
  00030	e8 00 00 00 00	 call	 __vsnprintf_l
  00035	83 c4 14	 add	 esp, 20			; 00000014H

; 1459 :     #pragma warning(pop)
; 1460 : }

  00038	5f		 pop	 edi
  00039	5e		 pop	 esi
  0003a	5b		 pop	 ebx
  0003b	81 c4 c0 00 00
	00		 add	 esp, 192		; 000000c0H
  00041	3b ec		 cmp	 ebp, esp
  00043	e8 00 00 00 00	 call	 __RTC_CheckEsp
  00048	8b e5		 mov	 esp, ebp
  0004a	5d		 pop	 ebp
  0004b	c3		 ret	 0
__vsprintf_l ENDP
_TEXT	ENDS
; Function compile flags: /Odtp /RTCsu /ZI
; File c:\program files (x86)\windows kits\10\include\10.0.10240.0\ucrt\stdio.h
;	COMDAT __vsnprintf_l
_TEXT	SEGMENT
tv74 = -208						; size = 4
__Result$ = -8						; size = 4
__Buffer$ = 8						; size = 4
__BufferCount$ = 12					; size = 4
__Format$ = 16						; size = 4
__Locale$ = 20						; size = 4
__ArgList$ = 24						; size = 4
__vsnprintf_l PROC					; COMDAT

; 1385 : {

  00000	55		 push	 ebp
  00001	8b ec		 mov	 ebp, esp
  00003	81 ec d0 00 00
	00		 sub	 esp, 208		; 000000d0H
  00009	53		 push	 ebx
  0000a	56		 push	 esi
  0000b	57		 push	 edi
  0000c	8d bd 30 ff ff
	ff		 lea	 edi, DWORD PTR [ebp-208]
  00012	b9 34 00 00 00	 mov	 ecx, 52			; 00000034H
  00017	b8 cc cc cc cc	 mov	 eax, -858993460		; ccccccccH
  0001c	f3 ab		 rep stosd

; 1386 :     int const _Result = __stdio_common_vsprintf(

  0001e	8b f4		 mov	 esi, esp
  00020	8b 45 18	 mov	 eax, DWORD PTR __ArgList$[ebp]
  00023	50		 push	 eax
  00024	8b 4d 14	 mov	 ecx, DWORD PTR __Locale$[ebp]
  00027	51		 push	 ecx
  00028	8b 55 10	 mov	 edx, DWORD PTR __Format$[ebp]
  0002b	52		 push	 edx
  0002c	8b 45 0c	 mov	 eax, DWORD PTR __BufferCount$[ebp]
  0002f	50		 push	 eax
  00030	8b 4d 08	 mov	 ecx, DWORD PTR __Buffer$[ebp]
  00033	51		 push	 ecx
  00034	e8 00 00 00 00	 call	 ___local_stdio_printf_options
  00039	8b 10		 mov	 edx, DWORD PTR [eax]
  0003b	83 ca 01	 or	 edx, 1
  0003e	8b 40 04	 mov	 eax, DWORD PTR [eax+4]
  00041	50		 push	 eax
  00042	52		 push	 edx
  00043	ff 15 00 00 00
	00		 call	 DWORD PTR __imp____stdio_common_vsprintf
  00049	83 c4 1c	 add	 esp, 28			; 0000001cH
  0004c	3b f4		 cmp	 esi, esp
  0004e	e8 00 00 00 00	 call	 __RTC_CheckEsp
  00053	89 45 f8	 mov	 DWORD PTR __Result$[ebp], eax

; 1387 :         _CRT_INTERNAL_LOCAL_PRINTF_OPTIONS | _CRT_INTERNAL_PRINTF_LEGACY_VSPRINTF_NULL_TERMINATION,
; 1388 :         _Buffer, _BufferCount, _Format, _Locale, _ArgList);
; 1389 : 
; 1390 :     return _Result < 0 ? -1 : _Result;

  00056	83 7d f8 00	 cmp	 DWORD PTR __Result$[ebp], 0
  0005a	7d 0c		 jge	 SHORT $LN3@vsnprintf_
  0005c	c7 85 30 ff ff
	ff ff ff ff ff	 mov	 DWORD PTR tv74[ebp], -1
  00066	eb 09		 jmp	 SHORT $LN4@vsnprintf_
$LN3@vsnprintf_:
  00068	8b 45 f8	 mov	 eax, DWORD PTR __Result$[ebp]
  0006b	89 85 30 ff ff
	ff		 mov	 DWORD PTR tv74[ebp], eax
$LN4@vsnprintf_:
  00071	8b 85 30 ff ff
	ff		 mov	 eax, DWORD PTR tv74[ebp]

; 1391 : }

  00077	5f		 pop	 edi
  00078	5e		 pop	 esi
  00079	5b		 pop	 ebx
  0007a	81 c4 d0 00 00
	00		 add	 esp, 208		; 000000d0H
  00080	3b ec		 cmp	 ebp, esp
  00082	e8 00 00 00 00	 call	 __RTC_CheckEsp
  00087	8b e5		 mov	 esp, ebp
  00089	5d		 pop	 ebp
  0008a	c3		 ret	 0
__vsnprintf_l ENDP
_TEXT	ENDS
; Function compile flags: /Odtp /RTCsu /ZI
; File c:\program files (x86)\microsoft visual studio 14.0\vc\include\vadefs.h
;	COMDAT ??$__vcrt_va_start_verify_argument_type@QBD@@YAXXZ
_TEXT	SEGMENT
??$__vcrt_va_start_verify_argument_type@QBD@@YAXXZ PROC	; __vcrt_va_start_verify_argument_type<char const * const>, COMDAT

; 144  :         {

  00000	55		 push	 ebp
  00001	8b ec		 mov	 ebp, esp
  00003	81 ec c0 00 00
	00		 sub	 esp, 192		; 000000c0H
  00009	53		 push	 ebx
  0000a	56		 push	 esi
  0000b	57		 push	 edi
  0000c	8d bd 40 ff ff
	ff		 lea	 edi, DWORD PTR [ebp-192]
  00012	b9 30 00 00 00	 mov	 ecx, 48			; 00000030H
  00017	b8 cc cc cc cc	 mov	 eax, -858993460		; ccccccccH
  0001c	f3 ab		 rep stosd

; 145  :             static_assert(!__vcrt_va_list_is_reference<_Ty>::__the_value, "va_start argument must not have reference type and must not be parenthesized");
; 146  :         }

  0001e	5f		 pop	 edi
  0001f	5e		 pop	 esi
  00020	5b		 pop	 ebx
  00021	8b e5		 mov	 esp, ebp
  00023	5d		 pop	 ebp
  00024	c3		 ret	 0
??$__vcrt_va_start_verify_argument_type@QBD@@YAXXZ ENDP	; __vcrt_va_start_verify_argument_type<char const * const>
_TEXT	ENDS
; Function compile flags: /Odtp /RTCsu /ZI
; File c:\program files (x86)\windows kits\10\include\10.0.10240.0\ucrt\corecrt_stdio_config.h
;	COMDAT ___local_stdio_printf_options
_TEXT	SEGMENT
___local_stdio_printf_options PROC			; COMDAT

; 73   : {

  00000	55		 push	 ebp
  00001	8b ec		 mov	 ebp, esp
  00003	81 ec c0 00 00
	00		 sub	 esp, 192		; 000000c0H
  00009	53		 push	 ebx
  0000a	56		 push	 esi
  0000b	57		 push	 edi
  0000c	8d bd 40 ff ff
	ff		 lea	 edi, DWORD PTR [ebp-192]
  00012	b9 30 00 00 00	 mov	 ecx, 48			; 00000030H
  00017	b8 cc cc cc cc	 mov	 eax, -858993460		; ccccccccH
  0001c	f3 ab		 rep stosd

; 74   :     static unsigned __int64 _OptionsStorage;
; 75   :     return &_OptionsStorage;

  0001e	b8 00 00 00 00	 mov	 eax, OFFSET ?_OptionsStorage@?1??__local_stdio_printf_options@@9@4_KA ; `__local_stdio_printf_options'::`2'::_OptionsStorage

; 76   : }

  00023	5f		 pop	 edi
  00024	5e		 pop	 esi
  00025	5b		 pop	 ebx
  00026	8b e5		 mov	 esp, ebp
  00028	5d		 pop	 ebp
  00029	c3		 ret	 0
___local_stdio_printf_options ENDP
_TEXT	ENDS
END
