; Listing generated by Microsoft (R) Optimizing Compiler Version 19.00.24215.1 

	TITLE	C:\Users\Administrator\Desktop\????? ??\????? ??\Client Source Code\mylua\≥∆∫≈lua.cpp
	.686P
	.XMM
	include listing.inc
	.model	flat

INCLUDELIB MSVCRTD
INCLUDELIB OLDNAMES

PUBLIC	??_C@_08BFFAFOCN@SetCount?$AA@			; `string'
PUBLIC	??_C@_07MOIAJPBM@SetList?$AA@			; `string'
;	COMDAT ??_C@_07MOIAJPBM@SetList?$AA@
CONST	SEGMENT
??_C@_07MOIAJPBM@SetList?$AA@ DB 'SetList', 00H		; `string'
CONST	ENDS
;	COMDAT ??_C@_08BFFAFOCN@SetCount?$AA@
CONST	SEGMENT
??_C@_08BFFAFOCN@SetCount?$AA@ DB 'SetCount', 00H	; `string'
CONST	ENDS
CONST	SEGMENT
?PiFuFunc@@3QBUluaL_Reg@@B DD FLAT:??_C@_08BFFAFOCN@SetCount?$AA@ ; PiFuFunc
	DD	FLAT:?SetCount@@YAHPAUlua_State@@@Z
	DD	FLAT:??_C@_07MOIAJPBM@SetList?$AA@
	DD	FLAT:?SetList@@YAHPAUlua_State@@@Z
	DD	00H
	DD	00H
CONST	ENDS
PUBLIC	?luaopen_PiFuList@@YAHPAUlua_State@@@Z		; luaopen_PiFuList
PUBLIC	??_C@_04GBLPADGB@PiFu?$AA@			; `string'
EXTRN	_strcpy:PROC
EXTRN	_luaL_register:PROC
EXTRN	_luaL_checklstring:PROC
EXTRN	_luaL_checkinteger:PROC
EXTRN	@_RTC_CheckStackVars@8:PROC
EXTRN	__RTC_CheckEsp:PROC
EXTRN	__RTC_InitBase:PROC
EXTRN	__RTC_Shutdown:PROC
EXTRN	?data∆§∑Ù@@3PAUπ‚ª∑STRUCT@@A:BYTE		; data∆§∑Ù
EXTRN	?count_∆§∑Ù@@3HA:DWORD				; count_∆§∑Ù
;	COMDAT rtc$TMZ
rtc$TMZ	SEGMENT
__RTC_Shutdown.rtc$TMZ DD FLAT:__RTC_Shutdown
rtc$TMZ	ENDS
;	COMDAT rtc$IMZ
rtc$IMZ	SEGMENT
__RTC_InitBase.rtc$IMZ DD FLAT:__RTC_InitBase
rtc$IMZ	ENDS
;	COMDAT ??_C@_04GBLPADGB@PiFu?$AA@
CONST	SEGMENT
??_C@_04GBLPADGB@PiFu?$AA@ DB 'PiFu', 00H		; `string'
CONST	ENDS
; Function compile flags: /Odtp /RTCsu /ZI
; File c:\users\administrator\desktop\????? ??\????? ??\client source code\mylua\≥∆∫≈lua.cpp
;	COMDAT ?SetList@@YAHPAUlua_State@@@Z
_TEXT	SEGMENT
_time$ = -56						; size = 4
_name$ = -44						; size = 4
_bmp$ = -32						; size = 4
_id$ = -20						; size = 4
_l$ = -8						; size = 4
_L$ = 8							; size = 4
?SetList@@YAHPAUlua_State@@@Z PROC			; SetList, COMDAT

; 23   : {

  00000	55		 push	 ebp
  00001	8b ec		 mov	 ebp, esp
  00003	81 ec fc 00 00
	00		 sub	 esp, 252		; 000000fcH
  00009	53		 push	 ebx
  0000a	56		 push	 esi
  0000b	57		 push	 edi
  0000c	8d bd 04 ff ff
	ff		 lea	 edi, DWORD PTR [ebp-252]
  00012	b9 3f 00 00 00	 mov	 ecx, 63			; 0000003fH
  00017	b8 cc cc cc cc	 mov	 eax, -858993460		; ccccccccH
  0001c	f3 ab		 rep stosd

; 24   : 	size_t l;
; 25   : 	const int id = luaL_checkint(L, 1);

  0001e	6a 01		 push	 1
  00020	8b 45 08	 mov	 eax, DWORD PTR _L$[ebp]
  00023	50		 push	 eax
  00024	e8 00 00 00 00	 call	 _luaL_checkinteger
  00029	83 c4 08	 add	 esp, 8
  0002c	89 45 ec	 mov	 DWORD PTR _id$[ebp], eax

; 26   : 	const int bmp = luaL_checkint(L, 2);

  0002f	6a 02		 push	 2
  00031	8b 45 08	 mov	 eax, DWORD PTR _L$[ebp]
  00034	50		 push	 eax
  00035	e8 00 00 00 00	 call	 _luaL_checkinteger
  0003a	83 c4 08	 add	 esp, 8
  0003d	89 45 e0	 mov	 DWORD PTR _bmp$[ebp], eax

; 27   : 	const char * name = luaL_checklstring(L, 3, &l);

  00040	8d 45 f8	 lea	 eax, DWORD PTR _l$[ebp]
  00043	50		 push	 eax
  00044	6a 03		 push	 3
  00046	8b 4d 08	 mov	 ecx, DWORD PTR _L$[ebp]
  00049	51		 push	 ecx
  0004a	e8 00 00 00 00	 call	 _luaL_checklstring
  0004f	83 c4 0c	 add	 esp, 12			; 0000000cH
  00052	89 45 d4	 mov	 DWORD PTR _name$[ebp], eax

; 28   : 	const int time = luaL_checkint(L, 4);

  00055	6a 04		 push	 4
  00057	8b 45 08	 mov	 eax, DWORD PTR _L$[ebp]
  0005a	50		 push	 eax
  0005b	e8 00 00 00 00	 call	 _luaL_checkinteger
  00060	83 c4 08	 add	 esp, 8
  00063	89 45 c8	 mov	 DWORD PTR _time$[ebp], eax

; 29   : 
; 30   : 
; 31   : 	data∆§∑Ù[id].bmpNO = bmp;

  00066	6b 45 ec 1c	 imul	 eax, DWORD PTR _id$[ebp], 28
  0006a	8b 4d e0	 mov	 ecx, DWORD PTR _bmp$[ebp]
  0006d	89 88 00 00 00
	00		 mov	 DWORD PTR ?data∆§∑Ù@@3PAUπ‚ª∑STRUCT@@A[eax], ecx

; 32   : 	strcpy(data∆§∑Ù[id].name, name);

  00073	8b 45 d4	 mov	 eax, DWORD PTR _name$[ebp]
  00076	50		 push	 eax
  00077	6b 4d ec 1c	 imul	 ecx, DWORD PTR _id$[ebp], 28
  0007b	81 c1 04 00 00
	00		 add	 ecx, OFFSET ?data∆§∑Ù@@3PAUπ‚ª∑STRUCT@@A+4
  00081	51		 push	 ecx
  00082	e8 00 00 00 00	 call	 _strcpy
  00087	83 c4 08	 add	 esp, 8

; 33   : 	data∆§∑Ù[id].time = time;

  0008a	6b 45 ec 1c	 imul	 eax, DWORD PTR _id$[ebp], 28
  0008e	8b 4d c8	 mov	 ecx, DWORD PTR _time$[ebp]
  00091	89 88 18 00 00
	00		 mov	 DWORD PTR ?data∆§∑Ù@@3PAUπ‚ª∑STRUCT@@A[eax+24], ecx

; 34   : 	return 1;

  00097	b8 01 00 00 00	 mov	 eax, 1

; 35   : }

  0009c	52		 push	 edx
  0009d	8b cd		 mov	 ecx, ebp
  0009f	50		 push	 eax
  000a0	8d 15 00 00 00
	00		 lea	 edx, DWORD PTR $LN5@SetList
  000a6	e8 00 00 00 00	 call	 @_RTC_CheckStackVars@8
  000ab	58		 pop	 eax
  000ac	5a		 pop	 edx
  000ad	5f		 pop	 edi
  000ae	5e		 pop	 esi
  000af	5b		 pop	 ebx
  000b0	81 c4 fc 00 00
	00		 add	 esp, 252		; 000000fcH
  000b6	3b ec		 cmp	 ebp, esp
  000b8	e8 00 00 00 00	 call	 __RTC_CheckEsp
  000bd	8b e5		 mov	 esp, ebp
  000bf	5d		 pop	 ebp
  000c0	c3		 ret	 0
  000c1	0f 1f 00	 npad	 3
$LN5@SetList:
  000c4	01 00 00 00	 DD	 1
  000c8	00 00 00 00	 DD	 $LN4@SetList
$LN4@SetList:
  000cc	f8 ff ff ff	 DD	 -8			; fffffff8H
  000d0	04 00 00 00	 DD	 4
  000d4	00 00 00 00	 DD	 $LN3@SetList
$LN3@SetList:
  000d8	6c		 DB	 108			; 0000006cH
  000d9	00		 DB	 0
?SetList@@YAHPAUlua_State@@@Z ENDP			; SetList
_TEXT	ENDS
; Function compile flags: /Odtp /RTCsu /ZI
; File c:\users\administrator\desktop\????? ??\????? ??\client source code\mylua\≥∆∫≈lua.cpp
;	COMDAT ?SetCount@@YAHPAUlua_State@@@Z
_TEXT	SEGMENT
_num$ = -8						; size = 4
_L$ = 8							; size = 4
?SetCount@@YAHPAUlua_State@@@Z PROC			; SetCount, COMDAT

; 16   : {

  00000	55		 push	 ebp
  00001	8b ec		 mov	 ebp, esp
  00003	81 ec cc 00 00
	00		 sub	 esp, 204		; 000000ccH
  00009	53		 push	 ebx
  0000a	56		 push	 esi
  0000b	57		 push	 edi
  0000c	8d bd 34 ff ff
	ff		 lea	 edi, DWORD PTR [ebp-204]
  00012	b9 33 00 00 00	 mov	 ecx, 51			; 00000033H
  00017	b8 cc cc cc cc	 mov	 eax, -858993460		; ccccccccH
  0001c	f3 ab		 rep stosd

; 17   : 	const int num = luaL_checkint(L, 1);

  0001e	6a 01		 push	 1
  00020	8b 45 08	 mov	 eax, DWORD PTR _L$[ebp]
  00023	50		 push	 eax
  00024	e8 00 00 00 00	 call	 _luaL_checkinteger
  00029	83 c4 08	 add	 esp, 8
  0002c	89 45 f8	 mov	 DWORD PTR _num$[ebp], eax

; 18   : 	count_∆§∑Ù = num;

  0002f	8b 45 f8	 mov	 eax, DWORD PTR _num$[ebp]
  00032	a3 00 00 00 00	 mov	 DWORD PTR ?count_∆§∑Ù@@3HA, eax ; count_∆§∑Ù

; 19   : 	return 1;

  00037	b8 01 00 00 00	 mov	 eax, 1

; 20   : }

  0003c	5f		 pop	 edi
  0003d	5e		 pop	 esi
  0003e	5b		 pop	 ebx
  0003f	81 c4 cc 00 00
	00		 add	 esp, 204		; 000000ccH
  00045	3b ec		 cmp	 ebp, esp
  00047	e8 00 00 00 00	 call	 __RTC_CheckEsp
  0004c	8b e5		 mov	 esp, ebp
  0004e	5d		 pop	 ebp
  0004f	c3		 ret	 0
?SetCount@@YAHPAUlua_State@@@Z ENDP			; SetCount
_TEXT	ENDS
; Function compile flags: /Odtp /RTCsu /ZI
; File c:\users\administrator\desktop\????? ??\????? ??\client source code\mylua\≥∆∫≈lua.cpp
;	COMDAT ?luaopen_PiFuList@@YAHPAUlua_State@@@Z
_TEXT	SEGMENT
_L$ = 8							; size = 4
?luaopen_PiFuList@@YAHPAUlua_State@@@Z PROC		; luaopen_PiFuList, COMDAT

; 44   : LUALIB_API int luaopen_PiFuList(lua_State *L) {

  00000	55		 push	 ebp
  00001	8b ec		 mov	 ebp, esp
  00003	81 ec c0 00 00
	00		 sub	 esp, 192		; 000000c0H
  00009	53		 push	 ebx
  0000a	56		 push	 esi
  0000b	57		 push	 edi
  0000c	8d bd 40 ff ff
	ff		 lea	 edi, DWORD PTR [ebp-192]
  00012	b9 30 00 00 00	 mov	 ecx, 48			; 00000030H
  00017	b8 cc cc cc cc	 mov	 eax, -858993460		; ccccccccH
  0001c	f3 ab		 rep stosd

; 45   : 	luaL_register(L, "PiFu", PiFuFunc);

  0001e	68 00 00 00 00	 push	 OFFSET ?PiFuFunc@@3QBUluaL_Reg@@B
  00023	68 00 00 00 00	 push	 OFFSET ??_C@_04GBLPADGB@PiFu?$AA@
  00028	8b 45 08	 mov	 eax, DWORD PTR _L$[ebp]
  0002b	50		 push	 eax
  0002c	e8 00 00 00 00	 call	 _luaL_register
  00031	83 c4 0c	 add	 esp, 12			; 0000000cH

; 46   : 	return 1;

  00034	b8 01 00 00 00	 mov	 eax, 1

; 47   : }

  00039	5f		 pop	 edi
  0003a	5e		 pop	 esi
  0003b	5b		 pop	 ebx
  0003c	81 c4 c0 00 00
	00		 add	 esp, 192		; 000000c0H
  00042	3b ec		 cmp	 ebp, esp
  00044	e8 00 00 00 00	 call	 __RTC_CheckEsp
  00049	8b e5		 mov	 esp, ebp
  0004b	5d		 pop	 ebp
  0004c	c3		 ret	 0
?luaopen_PiFuList@@YAHPAUlua_State@@@Z ENDP		; luaopen_PiFuList
_TEXT	ENDS
END
