; Listing generated by Microsoft (R) Optimizing Compiler Version 19.29.30133.0 

	TITLE	\\VBOXSVR\_stoneage\repos\ssm-sacli\Release\action.obj
	.686P
	.XMM
	include listing.inc
	.model	flat

INCLUDELIB LIBCMT
INCLUDELIB OLDNAMES

PUBLIC	?pActTop@@3PAUaction@@A				; pActTop
PUBLIC	?pActBtm@@3PAUaction@@A				; pActBtm
_BSS	SEGMENT
?pActTop@@3PAUaction@@A DD 01H DUP (?)			; pActTop
?pActBtm@@3PAUaction@@A DD 01H DUP (?)			; pActBtm
_BSS	ENDS
PUBLIC	?GetAction@@YAPAUaction@@EI@Z			; GetAction
PUBLIC	?InitAction@@YAXXZ				; InitAction
PUBLIC	?RunAction@@YAXXZ				; RunAction
PUBLIC	?DeathAction@@YAXPAUaction@@@Z			; DeathAction
PUBLIC	?DeathAllAction@@YAXXZ				; DeathAllAction
PUBLIC	?ClearAction@@YAXPAUaction@@@Z			; ClearAction
PUBLIC	?EndAction@@YAXXZ				; EndAction
PUBLIC	?GetPettblNo@@YAHH@Z				; GetPettblNo
PUBLIC	?RemoveAction@@YAXPAUaction@@@Z			; RemoveAction
PUBLIC	??_C@_0BA@GCNPCIAB@GetAction?5Erorr@		; `string'
PUBLIC	??_C@_0BE@KKCKGHPF@?Y?R?j?s?p?k?$DP?n?$NM?L?c?Z?o?M?v?J?$OA?$KD?$KB@ ; `string'
PUBLIC	??_C@_0O@JKINPHNC@GetYobi?5Erorr@		; `string'
EXTRN	__imp__Sleep@4:PROC
EXTRN	__imp__MessageBoxA@16:PROC
EXTRN	_calloc:PROC
EXTRN	_free:PROC
EXTRN	@__security_check_cookie@4:PROC
EXTRN	___CxxFrameHandler3:PROC
EXTRN	?hWnd@@3PAUHWND__@@A:DWORD			; hWnd
EXTRN	?g_CPU?ûù@@3HA:DWORD				; g_CPU?ûù
EXTRN	?ptActMenuWin@@3PAUaction@@A:DWORD		; ptActMenuWin
EXTRN	?helpBtn@@3FA:WORD				; helpBtn
EXTRN	?actBtn@@3FA:WORD				; actBtn
EXTRN	___security_cookie:DWORD
;	COMDAT ?a@?1??RunAction@@YAXXZ@4HA
_BSS	SEGMENT
?a@?1??RunAction@@YAXXZ@4HA DD 01H DUP (?)		; `RunAction'::`2'::a
_BSS	ENDS
;	COMDAT ??_C@_0O@JKINPHNC@GetYobi?5Erorr@
CONST	SEGMENT
??_C@_0O@JKINPHNC@GetYobi?5Erorr@ DB 'GetYobi Erorr', 00H ; `string'
CONST	ENDS
;	COMDAT ??_C@_0BE@KKCKGHPF@?Y?R?j?s?p?k?$DP?n?$NM?L?c?Z?o?M?v?J?$OA?$KD?$KB@
CONST	SEGMENT
??_C@_0BE@KKCKGHPF@?Y?R?j?s?p?k?$DP?n?$NM?L?c?Z?o?M?v?J?$OA?$KD?$KB@ DB 0d9H
	DB	0d2H, 0eaH, 0f3H, 0f0H, 0ebH, '?', 0eeH, 0dcH, 0ccH, 0e3H, 0daH
	DB	0efH, 0cdH, 0f6H, 0caH, 0e0H, 0a3H, 0a1H, 00H ; `string'
CONST	ENDS
;	COMDAT ??_C@_0BA@GCNPCIAB@GetAction?5Erorr@
CONST	SEGMENT
??_C@_0BA@GCNPCIAB@GetAction?5Erorr@ DB 'GetAction Erorr', 00H ; `string'
CONST	ENDS
;	COMDAT xdata$x
xdata$x	SEGMENT
__catchsym$?DeathAction@@YAXPAUaction@@@Z$2 DD 00H
	DD	00H
	DD	00H
	DD	FLAT:__catch$?DeathAction@@YAXPAUaction@@@Z$0
__unwindtable$?DeathAction@@YAXPAUaction@@@Z DD 0ffffffffH
	DD	00H
	DD	0ffffffffH
	DD	00H
__tryblocktable$?DeathAction@@YAXPAUaction@@@Z DD 00H
	DD	00H
	DD	01H
	DD	01H
	DD	FLAT:__catchsym$?DeathAction@@YAXPAUaction@@@Z$2
__ehfuncinfo$?DeathAction@@YAXPAUaction@@@Z DD 019930522H
	DD	02H
	DD	FLAT:__unwindtable$?DeathAction@@YAXPAUaction@@@Z
	DD	01H
	DD	FLAT:__tryblocktable$?DeathAction@@YAXPAUaction@@@Z
	DD	2 DUP(00H)
	DD	00H
	DD	00H
xdata$x	ENDS
; Function compile flags: /Ogtp
; File \\VBOXSVR\_stoneage\repos\ssm-sacli\system\action.cpp
;	COMDAT ?RemoveAction@@YAXPAUaction@@@Z
_TEXT	SEGMENT
_pAct$ = 8						; size = 4
?RemoveAction@@YAXPAUaction@@@Z PROC			; RemoveAction, COMDAT

; 181  : {

  00000	55		 push	 ebp
  00001	8b ec		 mov	 ebp, esp

; 182  : 	ACTION* pre = pAct->pPrev;

  00003	8b 4d 08	 mov	 ecx, DWORD PTR _pAct$[ebp]
  00006	8b 01		 mov	 eax, DWORD PTR [ecx]

; 183  : 	ACTION* next= pAct->pNext;

  00008	8b 51 04	 mov	 edx, DWORD PTR [ecx+4]

; 184  : 
; 185  : 	if (pre)

  0000b	85 c0		 test	 eax, eax
  0000d	74 03		 je	 SHORT $LN2@RemoveActi

; 186  : 	{
; 187  : 		pre->pNext = next;

  0000f	89 50 04	 mov	 DWORD PTR [eax+4], edx
$LN2@RemoveActi:

; 188  : 	}
; 189  : 	next->pPrev = pre;

  00012	89 02		 mov	 DWORD PTR [edx], eax

; 190  : 
; 191  : 	ClearAction(pAct);

  00014	89 4d 08	 mov	 DWORD PTR _pAct$[ebp], ecx

; 192  : 
; 193  : }

  00017	5d		 pop	 ebp

; 190  : 
; 191  : 	ClearAction(pAct);

  00018	e9 00 00 00 00	 jmp	 ?ClearAction@@YAXPAUaction@@@Z ; ClearAction
?RemoveAction@@YAXPAUaction@@@Z ENDP			; RemoveAction
_TEXT	ENDS
; Function compile flags: /Ogtp
; File \\VBOXSVR\_stoneage\repos\ssm-sacli\system\action.cpp
;	COMDAT ?GetPettblNo@@YAHH@Z
_TEXT	SEGMENT
_graNo$ = 8						; size = 4
?GetPettblNo@@YAHH@Z PROC				; GetPettblNo, COMDAT

; 258  : int GetPettblNo(int graNo){

  00000	55		 push	 ebp
  00001	8b ec		 mov	 ebp, esp

; 259  : 	int tblNo = graNo - 100250;

  00003	8b 45 08	 mov	 eax, DWORD PTR _graNo$[ebp]
  00006	05 66 78 fe ff	 add	 eax, -100250		; fffe7866H

; 260  : #if defined(__ALBUM_47)
; 261  : 	if( tblNo > 1800 ){					//å°æ¶é­”

  0000b	3d 08 07 00 00	 cmp	 eax, 1800		; 00000708H
  00010	7e 07		 jle	 SHORT $LN2@GetPettblN

; 262  : 		tblNo -= 1208;

  00012	2d b8 04 00 00	 sub	 eax, 1208		; 000004b8H

; 331  : 	}
; 332  : #elif defined(__ALBUM_46)
; 333  : 	if( tblNo > 1800 ){					//å°æ¶é­”
; 334  : 		tblNo -= 1208;
; 335  : 	}else if( tblNo > 1755 ){					//é—´éš”å—ç“œé­”çŽ‹åŽçš„ ç‹çŒ´
; 336  : 		tblNo -= 1201 ;
; 337  : 	}else if (tblNo > 1739 ){			//é£žè›‡
; 338  : 		tblNo -= 1200;
; 339  : 	}else if (tblNo > 1686 ){			//8.0å® ç‰©
; 340  : 		tblNo -= 1175;
; 341  : 	}else if (tblNo > 1641 ){			//é¸¡å¹´å…½4 ç”²è™«2	8.0ç¬¬ä¸€æ¬¡æ•´åˆæµ‹è¯•
; 342  : 		tblNo -= 1167;
; 343  : 	}else if (tblNo > 1635 ){   //éº’éºŸ
; 344  : 		tblNo -= 1148;
; 345  : 	}else if ( tblNo > 1634 ){	//çŒ«å¥³1 çŒ«å¥³2
; 346  : 		tblNo -= 1149;
; 347  : 	}else if ( tblNo > 1628 ){	//ç«èš1 ç«èš2 ç‰›äºº1 ç‰›äºº2
; 348  : 		tblNo -= 1147;
; 349  : 	}else if( tblNo > 1615 ){//å¸ƒé‡Œè¨å°” èœœèœ‚1 èœœèœ‚2 è´è¶1 è´è¶2 æš—é»‘ä¹ŒåŠ›çŽ‹ ç‹®äºº1 ç‹®äºº2 ç°äººç†” ç™½ç‹¼ å¸ƒä¼Šé…·
; 350  : 		tblNo -= 1145;
; 351  : 	}else if( tblNo > 1568 ){//æœºäººé¾™
; 352  : 		tblNo -= 1103;
; 353  : 	}else if( tblNo > 1564 ){//é»„è‰²é£žé¾™
; 354  : 		tblNo -= 1101;
; 355  : 	}else if( tblNo > 1516 ){
; 356  : 		tblNo -= 1055;
; 357  : 	}else if ( tblNo == 1516 ){//ä¿®æ­£ä¹ŒåŠ›çŽ‹
; 358  : 		tblNo = 455 ;
; 359  : 	}else if ( tblNo > 1509 ){
; 360  : 		tblNo -= 1054;
; 361  : 	}else if ( tblNo == 1497 ){
; 362  : 		tblNo = 395;
; 363  : 	}else if ( tblNo > 1495 ){
; 364  : 		tblNo -= 1044 ;
; 365  : 	}else if ( tblNo > 1490 ){
; 366  : 		tblNo -= 1043 ;
; 367  : 	}else if ( tblNo > 1485 ){
; 368  : 		tblNo -= 1040 ; 
; 369  : 	}else if ( tblNo > 1454 ) {
; 370  : 		tblNo -= 1034 ; 
; 371  : 	}else if ( tblNo == 1214 ) {
; 372  : 		tblNo = 331 ;
; 373  : 	}else if ( tblNo == 1217 ) {
; 374  : 		tblNo = 328 ; 
; 375  : 	}else if ( tblNo > 1361){
; 376  : 		tblNo -= 952;
; 377  : 	}else if( tblNo > 1356){
; 378  : 		tblNo -= 999;
; 379  : 	}else if( tblNo > 1281){
; 380  : 		tblNo -= 919;
; 381  : 	}else if( tblNo > 1239){
; 382  : 		tblNo -= 889;
; 383  : 	}else if( tblNo > 1186 ){
; 384  : 		tblNo -= 886;
; 385  : 	}else if( tblNo > 1173 ){
; 386  : 		tblNo -= 877;
; 387  : 	}else if( tblNo > 1172){
; 388  : 		tblNo -= 877;
; 389  : 	}else if( tblNo > 1161){
; 390  : 		tblNo -= 868;
; 391  : 	}else if( tblNo > 930){
; 392  : 		tblNo -= 745;
; 393  : 	}else if( tblNo == 927){
; 394  : 		tblNo -= 634;
; 395  : 	}else if( tblNo > 929){
; 396  : 		tblNo -= 644;
; 397  : 	}else if( tblNo > 927){
; 398  : 		tblNo -= 643;
; 399  : 	}else if( tblNo > 900){
; 400  : 		tblNo -= 621;
; 401  : 	}else if( tblNo > 180){
; 402  : 		tblNo -= (333+56);
; 403  : 	}
; 404  : #elif defined(__ALBUM_45)
; 405  : 	if( tblNo > 1800 ){					//å°æ¶é­”
; 406  : 		tblNo -= 1208;
; 407  : 	}else if( tblNo > 1755 ){					//é—´éš”å—ç“œé­”çŽ‹åŽçš„ ç‹çŒ´
; 408  : 		tblNo -= 1201 ;
; 409  : 	}else if (tblNo > 1739 ){			//é£žè›‡
; 410  : 		tblNo -= 1200;
; 411  : 	}else if (tblNo > 1686 ){			//8.0å® ç‰©
; 412  : 		tblNo -= 1175;
; 413  : 	}else if (tblNo > 1641 ){			//é¸¡å¹´å…½4 ç”²è™«2	8.0ç¬¬ä¸€æ¬¡æ•´åˆæµ‹è¯•
; 414  : 		tblNo -= 1167;
; 415  : 	}else if (tblNo > 1635 ){   //éº’éºŸ
; 416  : 		tblNo -= 1148;
; 417  : 	}else if ( tblNo > 1634 ){	//çŒ«å¥³1 çŒ«å¥³2
; 418  : 		tblNo -= 1149;
; 419  : 	}else if ( tblNo > 1628 ){	//ç«èš1 ç«èš2 ç‰›äºº1 ç‰›äºº2
; 420  : 		tblNo -= 1147;
; 421  : 	}else if( tblNo > 1615 ){//å¸ƒé‡Œè¨å°” èœœèœ‚1 èœœèœ‚2 è´è¶1 è´è¶2 æš—é»‘ä¹ŒåŠ›çŽ‹ ç‹®äºº1 ç‹®äºº2 ç°äººç†” ç™½ç‹¼ å¸ƒä¼Šé…·
; 422  : 		tblNo -= 1145;
; 423  : 	}else if( tblNo > 1568 ){//æœºäººé¾™
; 424  : 		tblNo -= 1103;
; 425  : 	}else if( tblNo > 1564 ){//é»„è‰²é£žé¾™
; 426  : 		tblNo -= 1101;
; 427  : 	}else if( tblNo > 1516 ){
; 428  : 		tblNo -= 1055;
; 429  : 	}else if ( tblNo == 1516 ){//ä¿®æ­£ä¹ŒåŠ›çŽ‹
; 430  : 		tblNo = 455 ;
; 431  : 	}else if ( tblNo > 1509 ){
; 432  : 		tblNo -= 1054;
; 433  : 	}else if ( tblNo == 1497 ){
; 434  : 		tblNo = 395;
; 435  : 	}else if ( tblNo > 1495 ){
; 436  : 		tblNo -= 1044 ;
; 437  : 	}else if ( tblNo > 1490 ){
; 438  : 		tblNo -= 1043 ;
; 439  : 	}else if ( tblNo > 1485 ){
; 440  : 		tblNo -= 1040 ; 
; 441  : 	}else if ( tblNo > 1454 ) {
; 442  : 		tblNo -= 1034 ; 
; 443  : 	}else if ( tblNo == 1214 ) {
; 444  : 		tblNo = 331 ;
; 445  : 	}else if ( tblNo == 1217 ) {
; 446  : 		tblNo = 328 ; 
; 447  : 	}else if ( tblNo > 1361){
; 448  : 		tblNo -= 952;
; 449  : 	}else if( tblNo > 1356){
; 450  : 		tblNo -= 999;
; 451  : 	}else if( tblNo > 1281){
; 452  : 		tblNo -= 919;
; 453  : 	}else if( tblNo > 1239){
; 454  : 		tblNo -= 889;
; 455  : 	}else if( tblNo > 1186 ){
; 456  : 		tblNo -= 886;
; 457  : 	}else if( tblNo > 1173 ){
; 458  : 		tblNo -= 877;
; 459  : 	}else if( tblNo > 1172){
; 460  : 		tblNo -= 877;
; 461  : 	}else if( tblNo > 1161){
; 462  : 		tblNo -= 868;
; 463  : 	}else if( tblNo > 930){
; 464  : 		tblNo -= 745;
; 465  : 	}else if( tblNo == 927){
; 466  : 		tblNo -= 634;
; 467  : 	}else if( tblNo > 929){
; 468  : 		tblNo -= 644;
; 469  : 	}else if( tblNo > 927){
; 470  : 		tblNo -= 643;
; 471  : 	}else if( tblNo > 900){
; 472  : 		tblNo -= 621;
; 473  : 	}else if( tblNo > 180){
; 474  : 		tblNo -= (333+56);
; 475  : 	}
; 476  : #elif defined(__ALBUM_44)
; 477  : 	if( tblNo > 1800 ){					//å°æ¶é­”
; 478  : 		tblNo -= 1208;
; 479  : 	}else if( tblNo > 1755 ){					//é—´éš”å—ç“œé­”çŽ‹åŽçš„ ç‹çŒ´
; 480  : 		tblNo -= 1201 ;
; 481  : 	}else if (tblNo > 1739 ){			//é£žè›‡
; 482  : 		tblNo -= 1200;
; 483  : 	}else if (tblNo > 1686 ){			//8.0å® ç‰©
; 484  : 		tblNo -= 1175;
; 485  : 	}else if (tblNo > 1641 ){			//é¸¡å¹´å…½4 ç”²è™«2	8.0ç¬¬ä¸€æ¬¡æ•´åˆæµ‹è¯•
; 486  : 		tblNo -= 1167;
; 487  : 	}else if (tblNo > 1635 ){   //éº’éºŸ
; 488  : 		tblNo -= 1148;
; 489  : 	}else if ( tblNo > 1634 ){	//çŒ«å¥³1 çŒ«å¥³2
; 490  : 		tblNo -= 1149;
; 491  : 	}else if ( tblNo > 1628 ){	//ç«èš1 ç«èš2 ç‰›äºº1 ç‰›äºº2
; 492  : 		tblNo -= 1147;
; 493  : 	}else if( tblNo > 1615 ){//å¸ƒé‡Œè¨å°” èœœèœ‚1 èœœèœ‚2 è´è¶1 è´è¶2 æš—é»‘ä¹ŒåŠ›çŽ‹ ç‹®äºº1 ç‹®äºº2 ç°äººç†” ç™½ç‹¼ å¸ƒä¼Šé…·
; 494  : 		tblNo -= 1145;
; 495  : 	}else if( tblNo > 1568 ){//æœºäººé¾™
; 496  : 		tblNo -= 1103;
; 497  : 	}else if( tblNo > 1564 ){//é»„è‰²é£žé¾™
; 498  : 		tblNo -= 1101;
; 499  : 	}else if( tblNo > 1516 ){
; 500  : 		tblNo -= 1055;
; 501  : 	}else if ( tblNo == 1516 ){//ä¿®æ­£ä¹ŒåŠ›çŽ‹
; 502  : 		tblNo = 455 ;
; 503  : 	}else if ( tblNo > 1509 ){
; 504  : 		tblNo -= 1054;
; 505  : 	}else if ( tblNo == 1497 ){
; 506  : 		tblNo = 395;
; 507  : 	}else if ( tblNo > 1495 ){
; 508  : 		tblNo -= 1044 ;
; 509  : 	}else if ( tblNo > 1490 ){
; 510  : 		tblNo -= 1043 ;
; 511  : 	}else if ( tblNo > 1485 ){
; 512  : 		tblNo -= 1040 ; 
; 513  : 	}else if ( tblNo > 1454 ) {
; 514  : 		tblNo -= 1034 ; 
; 515  : 	}else if ( tblNo == 1214 ) {
; 516  : 		tblNo = 331 ;
; 517  : 	}else if ( tblNo == 1217 ) {
; 518  : 		tblNo = 328 ; 
; 519  : 	}else if ( tblNo > 1361){
; 520  : 		tblNo -= 952;
; 521  : 	}else if( tblNo > 1356){
; 522  : 		tblNo -= 999;
; 523  : 	}else if( tblNo > 1281){
; 524  : 		tblNo -= 919;
; 525  : 	}else if( tblNo > 1239){
; 526  : 		tblNo -= 889;
; 527  : 	}else if( tblNo > 1186 ){
; 528  : 		tblNo -= 886;
; 529  : 	}else if( tblNo > 1173 ){
; 530  : 		tblNo -= 877;
; 531  : 	}else if( tblNo > 1172){
; 532  : 		tblNo -= 877;
; 533  : 	}else if( tblNo > 1161){
; 534  : 		tblNo -= 868;
; 535  : 	}else if( tblNo > 930){
; 536  : 		tblNo -= 745;
; 537  : 	}else if( tblNo == 927){
; 538  : 		tblNo -= 634;
; 539  : 	}else if( tblNo > 929){
; 540  : 		tblNo -= 644;
; 541  : 	}else if( tblNo > 927){
; 542  : 		tblNo -= 643;
; 543  : 	}else if( tblNo > 900){
; 544  : 		tblNo -= 621;
; 545  : 	}else if( tblNo > 180){
; 546  : 		tblNo -= (333+56);
; 547  : 	}
; 548  : #elif defined(__ALBUM_43)
; 549  : 	if( tblNo > 1800 ){					//å°æ¶é­”
; 550  : 		tblNo -= 1208;
; 551  : 	}else if( tblNo > 1755 ){					//é—´éš”å—ç“œé­”çŽ‹åŽçš„ ç‹çŒ´
; 552  : 		tblNo -= 1201 ;
; 553  : 	}else if (tblNo > 1739 ){			//é£žè›‡
; 554  : 		tblNo -= 1200;
; 555  : 	}else if (tblNo > 1686 ){			//8.0å® ç‰©
; 556  : 		tblNo -= 1175;
; 557  : 	}else if (tblNo > 1641 ){			//é¸¡å¹´å…½4 ç”²è™«2	8.0ç¬¬ä¸€æ¬¡æ•´åˆæµ‹è¯•
; 558  : 		tblNo -= 1167;
; 559  : 	}else if (tblNo > 1635 ){   //éº’éºŸ
; 560  : 		tblNo -= 1148;
; 561  : 	}else if ( tblNo > 1634 ){	//çŒ«å¥³1 çŒ«å¥³2
; 562  : 		tblNo -= 1149;
; 563  : 	}else if ( tblNo > 1628 ){	//ç«èš1 ç«èš2 ç‰›äºº1 ç‰›äºº2
; 564  : 		tblNo -= 1147;
; 565  : 	}else if( tblNo > 1615 ){//å¸ƒé‡Œè¨å°” èœœèœ‚1 èœœèœ‚2 è´è¶1 è´è¶2 æš—é»‘ä¹ŒåŠ›çŽ‹ ç‹®äºº1 ç‹®äºº2 ç°äººç†” ç™½ç‹¼ å¸ƒä¼Šé…·
; 566  : 		tblNo -= 1145;
; 567  : 	}else if( tblNo > 1568 ){//æœºäººé¾™
; 568  : 		tblNo -= 1103;
; 569  : 	}else if( tblNo > 1564 ){//é»„è‰²é£žé¾™
; 570  : 		tblNo -= 1101;
; 571  : 	}else if( tblNo > 1516 ){
; 572  : 		tblNo -= 1055;
; 573  : 	}else if ( tblNo == 1516 ){//ä¿®æ­£ä¹ŒåŠ›çŽ‹
; 574  : 		tblNo = 455 ;
; 575  : 	}else if ( tblNo > 1509 ){
; 576  : 		tblNo -= 1054;
; 577  : 	}else if ( tblNo == 1497 ){
; 578  : 		tblNo = 395;
; 579  : 	}else if ( tblNo > 1495 ){
; 580  : 		tblNo -= 1044 ;
; 581  : 	}else if ( tblNo > 1490 ){
; 582  : 		tblNo -= 1043 ;
; 583  : 	}else if ( tblNo > 1485 ){
; 584  : 		tblNo -= 1040 ; 
; 585  : 	}else if ( tblNo > 1454 ) {
; 586  : 		tblNo -= 1034 ; 
; 587  : 	}else if ( tblNo == 1214 ) {
; 588  : 		tblNo = 331 ;
; 589  : 	}else if ( tblNo == 1217 ) {
; 590  : 		tblNo = 328 ; 
; 591  : 	}else if ( tblNo > 1361){
; 592  : 		tblNo -= 952;
; 593  : 	}else if( tblNo > 1356){
; 594  : 		tblNo -= 999;
; 595  : 	}else if( tblNo > 1281){
; 596  : 		tblNo -= 919;
; 597  : 	}else if( tblNo > 1239){
; 598  : 		tblNo -= 889;
; 599  : 	}else if( tblNo > 1186 ){
; 600  : 		tblNo -= 886;
; 601  : 	}else if( tblNo > 1173 ){
; 602  : 		tblNo -= 877;
; 603  : 	}else if( tblNo > 1172){
; 604  : 		tblNo -= 877;
; 605  : 	}else if( tblNo > 1161){
; 606  : 		tblNo -= 868;
; 607  : 	}else if( tblNo > 930){
; 608  : 		tblNo -= 745;
; 609  : 	}else if( tblNo == 927){
; 610  : 		tblNo -= 634;
; 611  : 	}else if( tblNo > 929){
; 612  : 		tblNo -= 644;
; 613  : 	}else if( tblNo > 927){
; 614  : 		tblNo -= 643;
; 615  : 	}else if( tblNo > 900){
; 616  : 		tblNo -= 621;
; 617  : 	}else if( tblNo > 180){
; 618  : 		tblNo -= (333+56);
; 619  : 	}
; 620  : #elif defined(__ALBUM_42)
; 621  : 	if( tblNo > 1800 ){					//å°æ¶é­”
; 622  : 		tblNo -= 1208;
; 623  : 	}else if( tblNo > 1755 ){					//é—´éš”å—ç“œé­”çŽ‹åŽçš„ ç‹çŒ´
; 624  : 		tblNo -= 1201 ;
; 625  : 	}else if (tblNo > 1739 ){			//é£žè›‡
; 626  : 		tblNo -= 1200;
; 627  : 	}else if (tblNo > 1686 ){			//8.0å® ç‰©
; 628  : 		tblNo -= 1175;
; 629  : 	}else if (tblNo > 1641 ){			//é¸¡å¹´å…½4 ç”²è™«2	8.0ç¬¬ä¸€æ¬¡æ•´åˆæµ‹è¯•
; 630  : 		tblNo -= 1167;
; 631  : 	}else if (tblNo > 1635 ){   //éº’éºŸ
; 632  : 		tblNo -= 1148;
; 633  : 	}else if ( tblNo > 1634 ){	//çŒ«å¥³1 çŒ«å¥³2
; 634  : 		tblNo -= 1149;
; 635  : 	}else if ( tblNo > 1628 ){	//ç«èš1 ç«èš2 ç‰›äºº1 ç‰›äºº2
; 636  : 		tblNo -= 1147;
; 637  : 	}else if( tblNo > 1615 ){//å¸ƒé‡Œè¨å°” èœœèœ‚1 èœœèœ‚2 è´è¶1 è´è¶2 æš—é»‘ä¹ŒåŠ›çŽ‹ ç‹®äºº1 ç‹®äºº2 ç°äººç†” ç™½ç‹¼ å¸ƒä¼Šé…·
; 638  : 		tblNo -= 1145;
; 639  : 	}else if( tblNo > 1568 ){//æœºäººé¾™
; 640  : 		tblNo -= 1103;
; 641  : 	}else if( tblNo > 1564 ){//é»„è‰²é£žé¾™
; 642  : 		tblNo -= 1101;
; 643  : 	}else if( tblNo > 1516 ){
; 644  : 		tblNo -= 1055;
; 645  : 	}else if ( tblNo == 1516 ){//ä¿®æ­£ä¹ŒåŠ›çŽ‹
; 646  : 		tblNo = 455 ;
; 647  : 	}else if ( tblNo > 1509 ){
; 648  : 		tblNo -= 1054;
; 649  : 	}else if ( tblNo == 1497 ){
; 650  : 		tblNo = 395;
; 651  : 	}else if ( tblNo > 1495 ){
; 652  : 		tblNo -= 1044 ;
; 653  : 	}else if ( tblNo > 1490 ){
; 654  : 		tblNo -= 1043 ;
; 655  : 	}else if ( tblNo > 1485 ){
; 656  : 		tblNo -= 1040 ; 
; 657  : 	}else if ( tblNo > 1454 ) {
; 658  : 		tblNo -= 1034 ; 
; 659  : 	}else if ( tblNo == 1214 ) {
; 660  : 		tblNo = 331 ;
; 661  : 	}else if ( tblNo == 1217 ) {
; 662  : 		tblNo = 328 ; 
; 663  : 	}else if ( tblNo > 1361){
; 664  : 		tblNo -= 952;
; 665  : 	}else if( tblNo > 1356){
; 666  : 		tblNo -= 999;
; 667  : 	}else if( tblNo > 1281){
; 668  : 		tblNo -= 919;
; 669  : 	}else if( tblNo > 1239){
; 670  : 		tblNo -= 889;
; 671  : 	}else if( tblNo > 1186 ){
; 672  : 		tblNo -= 886;
; 673  : 	}else if( tblNo > 1173 ){
; 674  : 		tblNo -= 877;
; 675  : 	}else if( tblNo > 1172){
; 676  : 		tblNo -= 877;
; 677  : 	}else if( tblNo > 1161){
; 678  : 		tblNo -= 868;
; 679  : 	}else if( tblNo > 930){
; 680  : 		tblNo -= 745;
; 681  : 	}else if( tblNo == 927){
; 682  : 		tblNo -= 634;
; 683  : 	}else if( tblNo > 929){
; 684  : 		tblNo -= 644;
; 685  : 	}else if( tblNo > 927){
; 686  : 		tblNo -= 643;
; 687  : 	}else if( tblNo > 900){
; 688  : 		tblNo -= 621;
; 689  : 	}else if( tblNo > 180){
; 690  : 		tblNo -= (333+56);
; 691  : 	}
; 692  : #elif defined(__ALBUM_41)
; 693  : 	if( tblNo > 1800 ){					//å°æ¶é­”
; 694  : 		tblNo -= 1208;
; 695  : 	}else if( tblNo > 1755 ){					//é—´éš”å—ç“œé­”çŽ‹åŽçš„ ç‹çŒ´
; 696  : 		tblNo -= 1201 ;
; 697  : 	}else if (tblNo > 1739 ){			//é£žè›‡
; 698  : 		tblNo -= 1200;
; 699  : 	}else if (tblNo > 1686 ){			//8.0å® ç‰©
; 700  : 		tblNo -= 1175;
; 701  : 	}else if (tblNo > 1641 ){			//é¸¡å¹´å…½4 ç”²è™«2	8.0ç¬¬ä¸€æ¬¡æ•´åˆæµ‹è¯•
; 702  : 		tblNo -= 1167;
; 703  : 	}else if (tblNo > 1635 ){   //éº’éºŸ
; 704  : 		tblNo -= 1148;
; 705  : 	}else if ( tblNo > 1634 ){	//çŒ«å¥³1 çŒ«å¥³2
; 706  : 		tblNo -= 1149;
; 707  : 	}else if ( tblNo > 1628 ){	//ç«èš1 ç«èš2 ç‰›äºº1 ç‰›äºº2
; 708  : 		tblNo -= 1147;
; 709  : 	}else if( tblNo > 1615 ){//å¸ƒé‡Œè¨å°” èœœèœ‚1 èœœèœ‚2 è´è¶1 è´è¶2 æš—é»‘ä¹ŒåŠ›çŽ‹ ç‹®äºº1 ç‹®äºº2 ç°äººç†” ç™½ç‹¼ å¸ƒä¼Šé…·
; 710  : 		tblNo -= 1145;
; 711  : 	}else if( tblNo > 1568 ){//æœºäººé¾™
; 712  : 		tblNo -= 1103;
; 713  : 	}else if( tblNo > 1564 ){//é»„è‰²é£žé¾™
; 714  : 		tblNo -= 1101;
; 715  : 	}else if( tblNo > 1516 ){
; 716  : 		tblNo -= 1055;
; 717  : 	}else if ( tblNo == 1516 ){//ä¿®æ­£ä¹ŒåŠ›çŽ‹
; 718  : 		tblNo = 455 ;
; 719  : 	}else if ( tblNo > 1509 ){
; 720  : 		tblNo -= 1054;
; 721  : 	}else if ( tblNo == 1497 ){
; 722  : 		tblNo = 395;
; 723  : 	}else if ( tblNo > 1495 ){
; 724  : 		tblNo -= 1044 ;
; 725  : 	}else if ( tblNo > 1490 ){
; 726  : 		tblNo -= 1043 ;
; 727  : 	}else if ( tblNo > 1485 ){
; 728  : 		tblNo -= 1040 ; 
; 729  : 	}else if ( tblNo > 1454 ) {
; 730  : 		tblNo -= 1034 ; 
; 731  : 	}else if ( tblNo == 1214 ) {
; 732  : 		tblNo = 331 ;
; 733  : 	}else if ( tblNo == 1217 ) {
; 734  : 		tblNo = 328 ; 
; 735  : 	}else if ( tblNo > 1361){
; 736  : 		tblNo -= 952;
; 737  : 	}else if( tblNo > 1356){
; 738  : 		tblNo -= 999;
; 739  : 	}else if( tblNo > 1281){
; 740  : 		tblNo -= 919;
; 741  : 	}else if( tblNo > 1239){
; 742  : 		tblNo -= 889;
; 743  : 	}else if( tblNo > 1186 ){
; 744  : 		tblNo -= 886;
; 745  : 	}else if( tblNo > 1173 ){
; 746  : 		tblNo -= 877;
; 747  : 	}else if( tblNo > 1172){
; 748  : 		tblNo -= 877;
; 749  : 	}else if( tblNo > 1161){
; 750  : 		tblNo -= 868;
; 751  : 	}else if( tblNo > 930){
; 752  : 		tblNo -= 745;
; 753  : 	}else if( tblNo == 927){
; 754  : 		tblNo -= 634;
; 755  : 	}else if( tblNo > 929){
; 756  : 		tblNo -= 644;
; 757  : 	}else if( tblNo > 927){
; 758  : 		tblNo -= 643;
; 759  : 	}else if( tblNo > 900){
; 760  : 		tblNo -= 621;
; 761  : 	}else if( tblNo > 180){
; 762  : 		tblNo -= (333+56);
; 763  : 	}
; 764  : #elif defined(__ALBUM_40)
; 765  : 	if( tblNo > 1800 ){					//å°æ¶é­”
; 766  : 		tblNo -= 1208;
; 767  : 	}else if( tblNo > 1755 ){					//é—´éš”å—ç“œé­”çŽ‹åŽçš„ ç‹çŒ´
; 768  : 		tblNo -= 1201 ;
; 769  : 	}else if (tblNo > 1739 ){			//é£žè›‡
; 770  : 		tblNo -= 1200;
; 771  : 	}else if (tblNo > 1686 ){			//8.0å® ç‰©
; 772  : 		tblNo -= 1175;
; 773  : 	}else if (tblNo > 1641 ){			//é¸¡å¹´å…½4 ç”²è™«2	8.0ç¬¬ä¸€æ¬¡æ•´åˆæµ‹è¯•
; 774  : 		tblNo -= 1167;
; 775  : 	}else if (tblNo > 1635 ){   //éº’éºŸ
; 776  : 		tblNo -= 1148;
; 777  : 	}else if ( tblNo > 1634 ){	//çŒ«å¥³1 çŒ«å¥³2
; 778  : 		tblNo -= 1149;
; 779  : 	}else if ( tblNo > 1628 ){	//ç«èš1 ç«èš2 ç‰›äºº1 ç‰›äºº2
; 780  : 		tblNo -= 1147;
; 781  : 	}else if( tblNo > 1615 ){//å¸ƒé‡Œè¨å°” èœœèœ‚1 èœœèœ‚2 è´è¶1 è´è¶2 æš—é»‘ä¹ŒåŠ›çŽ‹ ç‹®äºº1 ç‹®äºº2 ç°äººç†” ç™½ç‹¼ å¸ƒä¼Šé…·
; 782  : 		tblNo -= 1145;
; 783  : 	}else if( tblNo > 1568 ){//æœºäººé¾™
; 784  : 		tblNo -= 1103;
; 785  : 	}else if( tblNo > 1564 ){//é»„è‰²é£žé¾™
; 786  : 		tblNo -= 1101;
; 787  : 	}else if( tblNo > 1516 ){
; 788  : 		tblNo -= 1055;
; 789  : 	}else if ( tblNo == 1516 ){//ä¿®æ­£ä¹ŒåŠ›çŽ‹
; 790  : 		tblNo = 455 ;
; 791  : 	}else if ( tblNo > 1509 ){
; 792  : 		tblNo -= 1054;
; 793  : 	}else if ( tblNo == 1497 ){
; 794  : 		tblNo = 395;
; 795  : 	}else if ( tblNo > 1495 ){
; 796  : 		tblNo -= 1044 ;
; 797  : 	}else if ( tblNo > 1490 ){
; 798  : 		tblNo -= 1043 ;
; 799  : 	}else if ( tblNo > 1485 ){
; 800  : 		tblNo -= 1040 ; 
; 801  : 	}else if ( tblNo > 1454 ) {
; 802  : 		tblNo -= 1034 ; 
; 803  : 	}else if ( tblNo == 1214 ) {
; 804  : 		tblNo = 331 ;
; 805  : 	}else if ( tblNo == 1217 ) {
; 806  : 		tblNo = 328 ; 
; 807  : 	}else if ( tblNo > 1361){
; 808  : 		tblNo -= 952;
; 809  : 	}else if( tblNo > 1356){
; 810  : 		tblNo -= 999;
; 811  : 	}else if( tblNo > 1281){
; 812  : 		tblNo -= 919;
; 813  : 	}else if( tblNo > 1239){
; 814  : 		tblNo -= 889;
; 815  : 	}else if( tblNo > 1186 ){
; 816  : 		tblNo -= 886;
; 817  : 	}else if( tblNo > 1173 ){
; 818  : 		tblNo -= 877;
; 819  : 	}else if( tblNo > 1172){
; 820  : 		tblNo -= 877;
; 821  : 	}else if( tblNo > 1161){
; 822  : 		tblNo -= 868;
; 823  : 	}else if( tblNo > 930){
; 824  : 		tblNo -= 745;
; 825  : 	}else if( tblNo == 927){
; 826  : 		tblNo -= 634;
; 827  : 	}else if( tblNo > 929){
; 828  : 		tblNo -= 644;
; 829  : 	}else if( tblNo > 927){
; 830  : 		tblNo -= 643;
; 831  : 	}else if( tblNo > 900){
; 832  : 		tblNo -= 621;
; 833  : 	}else if( tblNo > 180){
; 834  : 		tblNo -= (333+56);
; 835  : 	}
; 836  : #elif defined(__ALBUM_39)
; 837  : 	if( tblNo > 1800 ){					//å°æ¶é­”
; 838  : 		tblNo -= 1208;
; 839  : 	}else if( tblNo > 1755 ){					//é—´éš”å—ç“œé­”çŽ‹åŽçš„ ç‹çŒ´
; 840  : 		tblNo -= 1201 ;
; 841  : 	}else if (tblNo > 1739 ){			//é£žè›‡
; 842  : 		tblNo -= 1200;
; 843  : 	}else if (tblNo > 1686 ){			//8.0å® ç‰©
; 844  : 		tblNo -= 1175;
; 845  : 	}else if (tblNo > 1641 ){			//é¸¡å¹´å…½4 ç”²è™«2	8.0ç¬¬ä¸€æ¬¡æ•´åˆæµ‹è¯•
; 846  : 		tblNo -= 1167;
; 847  : 	}else if (tblNo > 1635 ){   //éº’éºŸ
; 848  : 		tblNo -= 1148;
; 849  : 	}else if ( tblNo > 1634 ){	//çŒ«å¥³1 çŒ«å¥³2
; 850  : 		tblNo -= 1149;
; 851  : 	}else if ( tblNo > 1628 ){	//ç«èš1 ç«èš2 ç‰›äºº1 ç‰›äºº2
; 852  : 		tblNo -= 1147;
; 853  : 	}else if( tblNo > 1615 ){//å¸ƒé‡Œè¨å°” èœœèœ‚1 èœœèœ‚2 è´è¶1 è´è¶2 æš—é»‘ä¹ŒåŠ›çŽ‹ ç‹®äºº1 ç‹®äºº2 ç°äººç†” ç™½ç‹¼ å¸ƒä¼Šé…·
; 854  : 		tblNo -= 1145;
; 855  : 	}else if( tblNo > 1568 ){//æœºäººé¾™
; 856  : 		tblNo -= 1103;
; 857  : 	}else if( tblNo > 1564 ){//é»„è‰²é£žé¾™
; 858  : 		tblNo -= 1101;
; 859  : 	}else if( tblNo > 1516 ){
; 860  : 		tblNo -= 1055;
; 861  : 	}else if ( tblNo == 1516 ){//ä¿®æ­£ä¹ŒåŠ›çŽ‹
; 862  : 		tblNo = 455 ;
; 863  : 	}else if ( tblNo > 1509 ){
; 864  : 		tblNo -= 1054;
; 865  : 	}else if ( tblNo == 1497 ){
; 866  : 		tblNo = 395;
; 867  : 	}else if ( tblNo > 1495 ){
; 868  : 		tblNo -= 1044 ;
; 869  : 	}else if ( tblNo > 1490 ){
; 870  : 		tblNo -= 1043 ;
; 871  : 	}else if ( tblNo > 1485 ){
; 872  : 		tblNo -= 1040 ; 
; 873  : 	}else if ( tblNo > 1454 ) {
; 874  : 		tblNo -= 1034 ; 
; 875  : 	}else if ( tblNo == 1214 ) {
; 876  : 		tblNo = 331 ;
; 877  : 	}else if ( tblNo == 1217 ) {
; 878  : 		tblNo = 328 ; 
; 879  : 	}else if ( tblNo > 1361){
; 880  : 		tblNo -= 952;
; 881  : 	}else if( tblNo > 1356){
; 882  : 		tblNo -= 999;
; 883  : 	}else if( tblNo > 1281){
; 884  : 		tblNo -= 919;
; 885  : 	}else if( tblNo > 1239){
; 886  : 		tblNo -= 889;
; 887  : 	}else if( tblNo > 1186 ){
; 888  : 		tblNo -= 886;
; 889  : 	}else if( tblNo > 1173 ){
; 890  : 		tblNo -= 877;
; 891  : 	}else if( tblNo > 1172){
; 892  : 		tblNo -= 877;
; 893  : 	}else if( tblNo > 1161){
; 894  : 		tblNo -= 868;
; 895  : 	}else if( tblNo > 930){
; 896  : 		tblNo -= 745;
; 897  : 	}else if( tblNo == 927){
; 898  : 		tblNo -= 634;
; 899  : 	}else if( tblNo > 929){
; 900  : 		tblNo -= 644;
; 901  : 	}else if( tblNo > 927){
; 902  : 		tblNo -= 643;
; 903  : 	}else if( tblNo > 900){
; 904  : 		tblNo -= 621;
; 905  : 	}else if( tblNo > 180){
; 906  : 		tblNo -= (333+56);
; 907  : 	}
; 908  : #elif defined(__ALBUM_38)
; 909  : 	if( tblNo > 1755 ){					//é—´éš”å—ç“œé­”çŽ‹åŽçš„ ç‹çŒ´
; 910  : 		tblNo -= 1201 ;
; 911  : 	}else if (tblNo > 1739 ){			//é£žè›‡
; 912  : 		tblNo -= 1200;
; 913  : 	}else if (tblNo > 1686 ){			//8.0å® ç‰©
; 914  : 		tblNo -= 1175;
; 915  : 	}else if (tblNo > 1641 ){			//é¸¡å¹´å…½4 ç”²è™«2	8.0ç¬¬ä¸€æ¬¡æ•´åˆæµ‹è¯•
; 916  : 		tblNo -= 1167;
; 917  : 	}else if (tblNo > 1635 ){   //éº’éºŸ
; 918  : 		tblNo -= 1148;
; 919  : 	}else if ( tblNo > 1634 ){	//çŒ«å¥³1 çŒ«å¥³2
; 920  : 		tblNo -= 1149;
; 921  : 	}else if ( tblNo > 1628 ){	//ç«èš1 ç«èš2 ç‰›äºº1 ç‰›äºº2
; 922  : 		tblNo -= 1147;
; 923  : 	}else if( tblNo > 1615 ){//å¸ƒé‡Œè¨å°” èœœèœ‚1 èœœèœ‚2 è´è¶1 è´è¶2 æš—é»‘ä¹ŒåŠ›çŽ‹ ç‹®äºº1 ç‹®äºº2 ç°äººç†” ç™½ç‹¼ å¸ƒä¼Šé…·
; 924  : 		tblNo -= 1145;
; 925  : 	}else if( tblNo > 1568 ){//æœºäººé¾™
; 926  : 		tblNo -= 1103;
; 927  : 	}else if( tblNo > 1564 ){//é»„è‰²é£žé¾™
; 928  : 		tblNo -= 1101;
; 929  : 	}else if( tblNo > 1516 ){
; 930  : 		tblNo -= 1055;
; 931  : 	}else if ( tblNo == 1516 ){//ä¿®æ­£ä¹ŒåŠ›çŽ‹
; 932  : 		tblNo = 455 ;
; 933  : 	}else if ( tblNo > 1509 ){
; 934  : 		tblNo -= 1054;
; 935  : 	}else if ( tblNo == 1497 ){
; 936  : 		tblNo = 395;
; 937  : 	}else if ( tblNo > 1495 ){
; 938  : 		tblNo -= 1044 ;
; 939  : 	}else if ( tblNo > 1490 ){
; 940  : 		tblNo -= 1043 ;
; 941  : 	}else if ( tblNo > 1485 ){
; 942  : 		tblNo -= 1040 ; 
; 943  : 	}else if ( tblNo > 1454 ) {
; 944  : 		tblNo -= 1034 ; 
; 945  : 	}else if ( tblNo == 1214 ) {
; 946  : 		tblNo = 331 ;
; 947  : 	}else if ( tblNo == 1217 ) {
; 948  : 		tblNo = 328 ; 
; 949  : 	}else if ( tblNo > 1361){
; 950  : 		tblNo -= 952;
; 951  : 	}else if( tblNo > 1356){
; 952  : 		tblNo -= 999;
; 953  : 	}else if( tblNo > 1281){
; 954  : 		tblNo -= 919;
; 955  : 	}else if( tblNo > 1239){
; 956  : 		tblNo -= 889;
; 957  : 	}else if( tblNo > 1186 ){
; 958  : 		tblNo -= 886;
; 959  : 	}else if( tblNo > 1173 ){
; 960  : 		tblNo -= 877;
; 961  : 	}else if( tblNo > 1172){
; 962  : 		tblNo -= 877;
; 963  : 	}else if( tblNo > 1161){
; 964  : 		tblNo -= 868;
; 965  : 	}else if( tblNo > 930){
; 966  : 		tblNo -= 745;
; 967  : 	}else if( tblNo == 927){
; 968  : 		tblNo -= 634;
; 969  : 	}else if( tblNo > 929){
; 970  : 		tblNo -= 644;
; 971  : 	}else if( tblNo > 927){
; 972  : 		tblNo -= 643;
; 973  : 	}else if( tblNo > 900){
; 974  : 		tblNo -= 621;
; 975  : 	}else if( tblNo > 180){
; 976  : 		tblNo -= (333+56);
; 977  : 	}
; 978  : #elif defined(__ALBUM_37)
; 979  : 	if (tblNo > 1739 ){			//é£žè›‡
; 980  : 		tblNo -= 1200;
; 981  : 	}else if (tblNo > 1686 ){			//8.0å® ç‰©
; 982  : 		tblNo -= 1175;
; 983  : 	}else if (tblNo > 1641 ){			//é¸¡å¹´å…½4 ç”²è™«2	8.0ç¬¬ä¸€æ¬¡æ•´åˆæµ‹è¯•
; 984  : 		tblNo -= 1167;
; 985  : 	}else if (tblNo > 1635 ){   //éº’éºŸ
; 986  : 		tblNo -= 1148;
; 987  : 	}else if ( tblNo > 1634 ){	//çŒ«å¥³1 çŒ«å¥³2
; 988  : 		tblNo -= 1149;
; 989  : 	}else if ( tblNo > 1628 ){	//ç«èš1 ç«èš2 ç‰›äºº1 ç‰›äºº2
; 990  : 		tblNo -= 1147;
; 991  : 	}else if( tblNo > 1615 ){//å¸ƒé‡Œè¨å°” èœœèœ‚1 èœœèœ‚2 è´è¶1 è´è¶2 æš—é»‘ä¹ŒåŠ›çŽ‹ ç‹®äºº1 ç‹®äºº2 ç°äººç†” ç™½ç‹¼ å¸ƒä¼Šé…·
; 992  : 		tblNo -= 1145;
; 993  : 	}else if( tblNo > 1568 ){//æœºäººé¾™
; 994  : 		tblNo -= 1103;
; 995  : 	}else if( tblNo > 1564 ){//é»„è‰²é£žé¾™
; 996  : 		tblNo -= 1101;
; 997  : 	}else if( tblNo > 1516 ){
; 998  : 		tblNo -= 1055;
; 999  : 	}else if ( tblNo == 1516 ){//ä¿®æ­£ä¹ŒåŠ›çŽ‹
; 1000 : 		tblNo = 455 ;
; 1001 : 	}else if ( tblNo > 1509 ){
; 1002 : 		tblNo -= 1054;
; 1003 : 	}else if ( tblNo == 1497 ){
; 1004 : 		tblNo = 395;
; 1005 : 	}else if ( tblNo > 1495 ){
; 1006 : 		tblNo -= 1044 ;
; 1007 : 	}else if ( tblNo > 1490 ){
; 1008 : 		tblNo -= 1043 ;
; 1009 : 	}else if ( tblNo > 1485 ){
; 1010 : 		tblNo -= 1040 ; 
; 1011 : 	}else if ( tblNo > 1454 ) {
; 1012 : 		tblNo -= 1034 ; 
; 1013 : 	}else if ( tblNo == 1214 ) {
; 1014 : 		tblNo = 331 ;
; 1015 : 	}else if ( tblNo == 1217 ) {
; 1016 : 		tblNo = 328 ; 
; 1017 : 	}else if ( tblNo > 1361){
; 1018 : 		tblNo -= 952;
; 1019 : 	}else if( tblNo > 1356){
; 1020 : 		tblNo -= 999;
; 1021 : 	}else if( tblNo > 1281){
; 1022 : 		tblNo -= 919;
; 1023 : 	}else if( tblNo > 1239){
; 1024 : 		tblNo -= 889;
; 1025 : 	}else if( tblNo > 1186 ){
; 1026 : 		tblNo -= 886;
; 1027 : 	}else if( tblNo > 1173 ){
; 1028 : 		tblNo -= 877;
; 1029 : 	}else if( tblNo > 1172){
; 1030 : 		tblNo -= 877;
; 1031 : 	}else if( tblNo > 1161){
; 1032 : 		tblNo -= 868;
; 1033 : 	}else if( tblNo > 930){
; 1034 : 		tblNo -= 745;
; 1035 : 	}else if( tblNo == 927){
; 1036 : 		tblNo -= 634;
; 1037 : 	}else if( tblNo > 929){
; 1038 : 		tblNo -= 644;
; 1039 : 	}else if( tblNo > 927){
; 1040 : 		tblNo -= 643;
; 1041 : 	}else if( tblNo > 900){
; 1042 : 		tblNo -= 621;
; 1043 : 	}else if( tblNo > 180){
; 1044 : 		tblNo -= (333+56);
; 1045 : 	}
; 1046 : #elif defined(__ALBUM_36)
; 1047 : 	if (tblNo > 1686 ){			//é¸¡å¹´å…½4 ç”²è™«2	8.0ç¬¬ä¸€æ¬¡æ•´åˆæµ‹è¯•
; 1048 : 		tblNo -= 1175;
; 1049 : 	}else if (tblNo > 1641 ){			//é¸¡å¹´å…½4 ç”²è™«2	8.0ç¬¬ä¸€æ¬¡æ•´åˆæµ‹è¯•
; 1050 : 		tblNo -= 1167;
; 1051 : 	}else if (tblNo > 1635 ){   //éº’éºŸ
; 1052 : 		tblNo -= 1148;
; 1053 : 	}else if ( tblNo > 1634 ){	//çŒ«å¥³1 çŒ«å¥³2
; 1054 : 		tblNo -= 1149;
; 1055 : 	}else if ( tblNo > 1628 ){	//ç«èš1 ç«èš2 ç‰›äºº1 ç‰›äºº2
; 1056 : 		tblNo -= 1147;
; 1057 : 	}else if( tblNo > 1615 ){//å¸ƒé‡Œè¨å°” èœœèœ‚1 èœœèœ‚2 è´è¶1 è´è¶2 æš—é»‘ä¹ŒåŠ›çŽ‹ ç‹®äºº1 ç‹®äºº2 ç°äººç†” ç™½ç‹¼ å¸ƒä¼Šé…·
; 1058 : 		tblNo -= 1145;
; 1059 : 	}else if( tblNo > 1568 ){//æœºäººé¾™
; 1060 : 		tblNo -= 1103;
; 1061 : 	}else if( tblNo > 1564 ){//é»„è‰²é£žé¾™
; 1062 : 		tblNo -= 1101;
; 1063 : 	}else if( tblNo > 1516 ){
; 1064 : 		tblNo -= 1055;
; 1065 : 	}else if ( tblNo == 1516 ){//ä¿®æ­£ä¹ŒåŠ›çŽ‹
; 1066 : 		tblNo = 455 ;
; 1067 : 	}else if ( tblNo > 1509 ){
; 1068 : 		tblNo -= 1054;
; 1069 : 	}else if ( tblNo == 1497 ){
; 1070 : 		tblNo = 395;
; 1071 : 	}else if ( tblNo > 1495 ){
; 1072 : 		tblNo -= 1044 ;
; 1073 : 	}else if ( tblNo > 1490 ){
; 1074 : 		tblNo -= 1043 ;
; 1075 : 	}else if ( tblNo > 1485 ){
; 1076 : 		tblNo -= 1040 ; 
; 1077 : 	}else if ( tblNo > 1454 ) {
; 1078 : 		tblNo -= 1034 ; 
; 1079 : 	}else if ( tblNo == 1214 ) {
; 1080 : 		tblNo = 331 ;
; 1081 : 	}else if ( tblNo == 1217 ) {
; 1082 : 		tblNo = 328 ; 
; 1083 : 	}else if ( tblNo > 1361){
; 1084 : 		tblNo -= 952;
; 1085 : 	}else if( tblNo > 1356){
; 1086 : 		tblNo -= 999;
; 1087 : 	}else if( tblNo > 1281){
; 1088 : 		tblNo -= 919;
; 1089 : 	}else if( tblNo > 1239){
; 1090 : 		tblNo -= 889;
; 1091 : 	}else if( tblNo > 1186 ){
; 1092 : 		tblNo -= 886;
; 1093 : 	}else if( tblNo > 1173 ){
; 1094 : 		tblNo -= 877;
; 1095 : 	}else if( tblNo > 1172){
; 1096 : 		tblNo -= 877;
; 1097 : 	}else if( tblNo > 1161){
; 1098 : 		tblNo -= 868;
; 1099 : 	}else if( tblNo > 930){
; 1100 : 		tblNo -= 745;
; 1101 : 	}else if( tblNo == 927){
; 1102 : 		tblNo -= 634;
; 1103 : 	}else if( tblNo > 929){
; 1104 : 		tblNo -= 644;
; 1105 : 	}else if( tblNo > 927){
; 1106 : 		tblNo -= 643;
; 1107 : 	}else if( tblNo > 900){
; 1108 : 		tblNo -= 621;
; 1109 : 	}else if( tblNo > 180){
; 1110 : 		tblNo -= (333+56);
; 1111 : 	}
; 1112 : #elif defined(__ALBUM_35)
; 1113 : 	if (tblNo > 1641 ){			//é¸¡å¹´å…½4 ç”²è™«2	8.0ç¬¬ä¸€æ¬¡æ•´åˆæµ‹è¯•
; 1114 : 		tblNo -= 1167;
; 1115 : 	}else if (tblNo > 1635 ){   //éº’éºŸ
; 1116 : 		tblNo -= 1148;
; 1117 : 	}else if ( tblNo > 1634 ){	//çŒ«å¥³1 çŒ«å¥³2
; 1118 : 		tblNo -= 1149;
; 1119 : 	}else if ( tblNo > 1628 ){	//ç«èš1 ç«èš2 ç‰›äºº1 ç‰›äºº2
; 1120 : 		tblNo -= 1147;
; 1121 : 	}else if( tblNo > 1615 ){//å¸ƒé‡Œè¨å°” èœœèœ‚1 èœœèœ‚2 è´è¶1 è´è¶2 æš—é»‘ä¹ŒåŠ›çŽ‹ ç‹®äºº1 ç‹®äºº2 ç°äººç†” ç™½ç‹¼ å¸ƒä¼Šé…·
; 1122 : 		tblNo -= 1145;
; 1123 : 	}else if( tblNo > 1568 ){//æœºäººé¾™
; 1124 : 		tblNo -= 1103;
; 1125 : 	}else if( tblNo > 1564 ){//é»„è‰²é£žé¾™
; 1126 : 		tblNo -= 1101;
; 1127 : 	}else if( tblNo > 1516 ){
; 1128 : 		tblNo -= 1055;
; 1129 : 	}else if ( tblNo == 1516 ){//ä¿®æ­£ä¹ŒåŠ›çŽ‹
; 1130 : 		tblNo = 455 ;
; 1131 : 	}else if ( tblNo > 1509 ){
; 1132 : 		tblNo -= 1054;
; 1133 : 	}else if ( tblNo == 1497 ){
; 1134 : 		tblNo = 395;
; 1135 : 	}else if ( tblNo > 1495 ){
; 1136 : 		tblNo -= 1044 ;
; 1137 : 	}else if ( tblNo > 1490 ){
; 1138 : 		tblNo -= 1043 ;
; 1139 : 	}else if ( tblNo > 1485 ){
; 1140 : 		tblNo -= 1040 ; 
; 1141 : 	}else if ( tblNo > 1454 ) {
; 1142 : 		tblNo -= 1034 ; 
; 1143 : 	}else if ( tblNo == 1214 ) {
; 1144 : 		tblNo = 331 ;
; 1145 : 	}else if ( tblNo == 1217 ) {
; 1146 : 		tblNo = 328 ; 
; 1147 : 	}else if ( tblNo > 1361){
; 1148 : 		tblNo -= 952;
; 1149 : 	}else if( tblNo > 1356){
; 1150 : 		tblNo -= 999;
; 1151 : 	}else if( tblNo > 1281){
; 1152 : 		tblNo -= 919;
; 1153 : 	}else if( tblNo > 1239){
; 1154 : 		tblNo -= 889;
; 1155 : 	}else if( tblNo > 1186 ){
; 1156 : 		tblNo -= 886;
; 1157 : 	}else if( tblNo > 1173 ){
; 1158 : 		tblNo -= 877;
; 1159 : 	}else if( tblNo > 1172){
; 1160 : 		tblNo -= 877;
; 1161 : 	}else if( tblNo > 1161){
; 1162 : 		tblNo -= 868;
; 1163 : 	}else if( tblNo > 930){
; 1164 : 		tblNo -= 745;
; 1165 : 	}else if( tblNo == 927){
; 1166 : 		tblNo -= 634;
; 1167 : 	}else if( tblNo > 929){
; 1168 : 		tblNo -= 644;
; 1169 : 	}else if( tblNo > 927){
; 1170 : 		tblNo -= 643;
; 1171 : 	}else if( tblNo > 900){
; 1172 : 		tblNo -= 621;
; 1173 : 	}else if( tblNo > 180){
; 1174 : 		tblNo -= (333+56);
; 1175 : 	}
; 1176 : 
; 1177 : #elif defined(__ALBUM_34)
; 1178 : 	if (tblNo > 1639 ){			//é¸¡å¹´å…½4
; 1179 : 		tblNo -= 1167;
; 1180 : 	}else if (tblNo > 1635 ){   //éº’éºŸ
; 1181 : 		tblNo -= 1148;
; 1182 : 	}else if ( tblNo > 1634 ){	//çŒ«å¥³1 çŒ«å¥³2
; 1183 : 		tblNo -= 1149;
; 1184 : 	}else if ( tblNo > 1628 ){	//ç«èš1 ç«èš2 ç‰›äºº1 ç‰›äºº2
; 1185 : 		tblNo -= 1147;
; 1186 : 	}else if( tblNo > 1615 ){//å¸ƒé‡Œè¨å°” èœœèœ‚1 èœœèœ‚2 è´è¶1 è´è¶2 æš—é»‘ä¹ŒåŠ›çŽ‹ ç‹®äºº1 ç‹®äºº2 ç°äººç†” ç™½ç‹¼ å¸ƒä¼Šé…·
; 1187 : 		tblNo -= 1145;
; 1188 : 	}else if( tblNo > 1568 ){//æœºäººé¾™
; 1189 : 		tblNo -= 1103;
; 1190 : 	}else if( tblNo > 1564 ){//é»„è‰²é£žé¾™
; 1191 : 		tblNo -= 1101;
; 1192 : 	}else if( tblNo > 1516 ){
; 1193 : 		tblNo -= 1055;
; 1194 : 	}else if ( tblNo == 1516 ){//ä¿®æ­£ä¹ŒåŠ›çŽ‹
; 1195 : 		tblNo = 455 ;
; 1196 : 	}else if ( tblNo > 1509 ){
; 1197 : 		tblNo -= 1054;
; 1198 : 	}else if ( tblNo == 1497 ){
; 1199 : 		tblNo = 395;
; 1200 : 	}else if ( tblNo > 1495 ){
; 1201 : 		tblNo -= 1044 ;
; 1202 : 	}else if ( tblNo > 1490 ){
; 1203 : 		tblNo -= 1043 ;
; 1204 : 	}else if ( tblNo > 1485 ){
; 1205 : 		tblNo -= 1040 ; 
; 1206 : 	}else if ( tblNo > 1454 ) {
; 1207 : 		tblNo -= 1034 ; 
; 1208 : 	}else if ( tblNo == 1214 ) {
; 1209 : 		tblNo = 331 ;
; 1210 : 	}else if ( tblNo == 1217 ) {
; 1211 : 		tblNo = 328 ; 
; 1212 : 	}else if ( tblNo > 1361){
; 1213 : 		tblNo -= 952;
; 1214 : 	}else if( tblNo > 1356){
; 1215 : 		tblNo -= 999;
; 1216 : 	}else if( tblNo > 1281){
; 1217 : 		tblNo -= 919;
; 1218 : 	}else if( tblNo > 1239){
; 1219 : 		tblNo -= 889;
; 1220 : 	}else if( tblNo > 1186 ){
; 1221 : 		tblNo -= 886;
; 1222 : 	}else if( tblNo > 1173 ){
; 1223 : 		tblNo -= 877;
; 1224 : 	}else if( tblNo > 1172){
; 1225 : 		tblNo -= 877;
; 1226 : 	}else if( tblNo > 1161){
; 1227 : 		tblNo -= 868;
; 1228 : 	}else if( tblNo > 930){
; 1229 : 		tblNo -= 745;
; 1230 : 	}else if( tblNo == 927){
; 1231 : 		tblNo -= 634;
; 1232 : 	}else if( tblNo > 929){
; 1233 : 		tblNo -= 644;
; 1234 : 	}else if( tblNo > 927){
; 1235 : 		tblNo -= 643;
; 1236 : 	}else if( tblNo > 900){
; 1237 : 		tblNo -= 621;
; 1238 : 	}else if( tblNo > 180){
; 1239 : 		tblNo -= (333+56);
; 1240 : 	}
; 1241 : #elif defined(__ALBUM_33)
; 1242 : 	if (tblNo > 1635 ){
; 1243 : 		tblNo -= 1148;
; 1244 : 	}else if ( tblNo > 1634 ){	//çŒ«å¥³1 çŒ«å¥³2 éº’éºŸ
; 1245 : 		tblNo -= 1149;
; 1246 : 	}else if ( tblNo > 1628 ){	//ç«èš1 ç«èš2 ç‰›äºº1 ç‰›äºº2
; 1247 : 		tblNo -= 1147;
; 1248 : 	}else if( tblNo > 1615 ){//å¸ƒé‡Œè¨å°” èœœèœ‚1 èœœèœ‚2 è´è¶1 è´è¶2 æš—é»‘ä¹ŒåŠ›çŽ‹ ç‹®äºº1 ç‹®äºº2 ç°äººç†” ç™½ç‹¼ å¸ƒä¼Šé…·
; 1249 : 		tblNo -= 1145;
; 1250 : 	}else if( tblNo > 1568 ){//æœºäººé¾™
; 1251 : 		tblNo -= 1103;
; 1252 : 	}else if( tblNo > 1564 ){//é»„è‰²é£žé¾™
; 1253 : 		tblNo -= 1101;
; 1254 : 	}else if( tblNo > 1516 ){
; 1255 : 		tblNo -= 1055;
; 1256 : 	}else if ( tblNo == 1516 ){//ä¿®æ­£ä¹ŒåŠ›çŽ‹
; 1257 : 		tblNo = 455 ;
; 1258 : 	}else if ( tblNo > 1509 ){
; 1259 : 		tblNo -= 1054;
; 1260 : 	}else if ( tblNo == 1497 ){
; 1261 : 		tblNo = 395;
; 1262 : 	}else if ( tblNo > 1495 ){
; 1263 : 		tblNo -= 1044 ;
; 1264 : 	}else if ( tblNo > 1490 ){
; 1265 : 		tblNo -= 1043 ;
; 1266 : 	}else if ( tblNo > 1485 ){
; 1267 : 		tblNo -= 1040 ; 
; 1268 : 	}else if ( tblNo > 1454 ) {
; 1269 : 		tblNo -= 1034 ; 
; 1270 : 	}else if ( tblNo == 1214 ) {
; 1271 : 		tblNo = 331 ;
; 1272 : 	}else if ( tblNo == 1217 ) {
; 1273 : 		tblNo = 328 ; 
; 1274 : 	}else if ( tblNo > 1361){
; 1275 : 		tblNo -= 952;
; 1276 : 	}else if( tblNo > 1356){
; 1277 : 		tblNo -= 999;
; 1278 : 	}else if( tblNo > 1281){
; 1279 : 		tblNo -= 919;
; 1280 : 	}else if( tblNo > 1239){
; 1281 : 		tblNo -= 889;
; 1282 : 	}else if( tblNo > 1186 ){
; 1283 : 		tblNo -= 886;
; 1284 : 	}else if( tblNo > 1173 ){
; 1285 : 		tblNo -= 877;
; 1286 : 	}else if( tblNo > 1172){
; 1287 : 		tblNo -= 877;
; 1288 : 	}else if( tblNo > 1161){
; 1289 : 		tblNo -= 868;
; 1290 : 	}else if( tblNo > 930){
; 1291 : 		tblNo -= 745;
; 1292 : 	}else if( tblNo == 927){
; 1293 : 		tblNo -= 634;
; 1294 : 	}else if( tblNo > 929){
; 1295 : 		tblNo -= 644;
; 1296 : 	}else if( tblNo > 927){
; 1297 : 		tblNo -= 643;
; 1298 : 	}else if( tblNo > 900){
; 1299 : 		tblNo -= 621;
; 1300 : 	}else if( tblNo > 180){
; 1301 : 		tblNo -= (333+56);
; 1302 : 	}
; 1303 : #elif defined(__ALBUM_32)
; 1304 : 	if ( tblNo > 1634 ){	//çŒ«å¥³1 çŒ«å¥³2
; 1305 : 		tblNo -= 1149;
; 1306 : 	}else if ( tblNo > 1628 ){	//ç«èš1 ç«èš2 ç‰›äºº1 ç‰›äºº2
; 1307 : 		tblNo -= 1147;
; 1308 : 	}else if( tblNo > 1615 ){//å¸ƒé‡Œè¨å°” èœœèœ‚1 èœœèœ‚2 è´è¶1 è´è¶2 æš—é»‘ä¹ŒåŠ›çŽ‹ ç‹®äºº1 ç‹®äºº2 ç°äººç†” ç™½ç‹¼ å¸ƒä¼Šé…·
; 1309 : 		tblNo -= 1145;
; 1310 : 	}else if( tblNo > 1568 ){//æœºäººé¾™
; 1311 : 		tblNo -= 1103;
; 1312 : 	}else if( tblNo > 1564 ){//é»„è‰²é£žé¾™
; 1313 : 		tblNo -= 1101;
; 1314 : 	}else if( tblNo > 1516 ){
; 1315 : 		tblNo -= 1055;
; 1316 : 	}else if ( tblNo == 1516 ){//ä¿®æ­£ä¹ŒåŠ›çŽ‹
; 1317 : 		tblNo = 455 ;
; 1318 : 	}else if ( tblNo > 1509 ){
; 1319 : 		tblNo -= 1054;
; 1320 : 	}else if ( tblNo == 1497 ){
; 1321 : 		tblNo = 395;
; 1322 : 	}else if ( tblNo > 1495 ){
; 1323 : 		tblNo -= 1044 ;
; 1324 : 	}else if ( tblNo > 1490 ){
; 1325 : 		tblNo -= 1043 ;
; 1326 : 	}else if ( tblNo > 1485 ){
; 1327 : 		tblNo -= 1040 ; 
; 1328 : 	}else if ( tblNo > 1454 ) {
; 1329 : 		tblNo -= 1034 ; 
; 1330 : 	}else if ( tblNo == 1214 ) {
; 1331 : 		tblNo = 331 ;
; 1332 : 	}else if ( tblNo == 1217 ) {
; 1333 : 		tblNo = 328 ; 
; 1334 : 	}else if ( tblNo > 1361){
; 1335 : 		tblNo -= 952;
; 1336 : 	}else if( tblNo > 1356){
; 1337 : 		tblNo -= 999;
; 1338 : 	}else if( tblNo > 1281){
; 1339 : 		tblNo -= 919;
; 1340 : 	}else if( tblNo > 1239){
; 1341 : 		tblNo -= 889;
; 1342 : 	}else if( tblNo > 1186 ){
; 1343 : 		tblNo -= 886;
; 1344 : 	}else if( tblNo > 1173 ){
; 1345 : 		tblNo -= 877;
; 1346 : 	}else if( tblNo > 1172){
; 1347 : 		tblNo -= 877;
; 1348 : 	}else if( tblNo > 1161){
; 1349 : 		tblNo -= 868;
; 1350 : 	}else if( tblNo > 930){
; 1351 : 		tblNo -= 745;
; 1352 : 	}else if( tblNo == 927){
; 1353 : 		tblNo -= 634;
; 1354 : 	}else if( tblNo > 929){
; 1355 : 		tblNo -= 644;
; 1356 : 	}else if( tblNo > 927){
; 1357 : 		tblNo -= 643;
; 1358 : 	}else if( tblNo > 900){
; 1359 : 		tblNo -= 621;
; 1360 : 	}else if( tblNo > 180){
; 1361 : 		tblNo -= (333+56);
; 1362 : 	}
; 1363 : #elif defined(__ALBUM_31)
; 1364 : 	if ( tblNo > 1628 ){	//ç«èš1 ç«èš2 ç‰›äºº1 ç‰›äºº2
; 1365 : 		tblNo -= 1147;
; 1366 : 	}else if( tblNo > 1615 ){//å¸ƒé‡Œè¨å°” èœœèœ‚1 èœœèœ‚2 è´è¶1 è´è¶2 æš—é»‘ä¹ŒåŠ›çŽ‹ ç‹®äºº1 ç‹®äºº2 ç°äººç†” ç™½ç‹¼ å¸ƒä¼Šé…·
; 1367 : 		tblNo -= 1145;
; 1368 : 	}else if( tblNo > 1568 ){//æœºäººé¾™
; 1369 : 		tblNo -= 1103;
; 1370 : 	}else if( tblNo > 1564 ){//é»„è‰²é£žé¾™
; 1371 : 		tblNo -= 1101;
; 1372 : 	}else if( tblNo > 1516 ){
; 1373 : 		tblNo -= 1055;
; 1374 : 	}else if ( tblNo == 1516 ){//ä¿®æ­£ä¹ŒåŠ›çŽ‹
; 1375 : 		tblNo = 455 ;
; 1376 : 	}else if ( tblNo > 1509 ){
; 1377 : 		tblNo -= 1054;
; 1378 : 	}else if ( tblNo == 1497 ){
; 1379 : 		tblNo = 395;
; 1380 : 	}else if ( tblNo > 1495 ){
; 1381 : 		tblNo -= 1044 ;
; 1382 : 	}else if ( tblNo > 1490 ){
; 1383 : 		tblNo -= 1043 ;
; 1384 : 	}else if ( tblNo > 1485 ){
; 1385 : 		tblNo -= 1040 ; 
; 1386 : 	}else if ( tblNo > 1454 ) {
; 1387 : 		tblNo -= 1034 ; 
; 1388 : 	}else if ( tblNo == 1214 ) {
; 1389 : 		tblNo = 331 ;
; 1390 : 	}else if ( tblNo == 1217 ) {
; 1391 : 		tblNo = 328 ; 
; 1392 : 	}else if ( tblNo > 1361){
; 1393 : 		tblNo -= 952;
; 1394 : 	}else if( tblNo > 1356){
; 1395 : 		tblNo -= 999;
; 1396 : 	}else if( tblNo > 1281){
; 1397 : 		tblNo -= 919;
; 1398 : 	}else if( tblNo > 1239){
; 1399 : 		tblNo -= 889;
; 1400 : 	}else if( tblNo > 1186 ){
; 1401 : 		tblNo -= 886;
; 1402 : 	}else if( tblNo > 1173 ){
; 1403 : 		tblNo -= 877;
; 1404 : 	}else if( tblNo > 1172){
; 1405 : 		tblNo -= 877;
; 1406 : 	}else if( tblNo > 1161){
; 1407 : 		tblNo -= 868;
; 1408 : 	}else if( tblNo > 930){
; 1409 : 		tblNo -= 745;
; 1410 : 	}else if( tblNo == 927){
; 1411 : 		tblNo -= 634;
; 1412 : 	}else if( tblNo > 929){
; 1413 : 		tblNo -= 644;
; 1414 : 	}else if( tblNo > 927){
; 1415 : 		tblNo -= 643;
; 1416 : 	}else if( tblNo > 900){
; 1417 : 		tblNo -= 621;
; 1418 : 	}else if( tblNo > 180){
; 1419 : 		tblNo -= (333+56);
; 1420 : 	}
; 1421 : #elif defined(__ALBUM_30)
; 1422 : 	if( tblNo > 1615 ){//å¸ƒé‡Œè¨å°” èœœèœ‚1 èœœèœ‚2 è´è¶1 è´è¶2 æš—é»‘ä¹ŒåŠ›çŽ‹ ç‹®äºº1 ç‹®äºº2 ç°äººç†” ç™½ç‹¼ å¸ƒä¼Šé…·
; 1423 : 		tblNo -= 1145;
; 1424 : 	}else if( tblNo > 1568 ){//æœºäººé¾™
; 1425 : 		tblNo -= 1103;
; 1426 : 	}else if( tblNo > 1564 ){//é»„è‰²é£žé¾™
; 1427 : 		tblNo -= 1101;
; 1428 : 	}else if( tblNo > 1516 ){
; 1429 : 		tblNo -= 1055;
; 1430 : 	}else if ( tblNo == 1516 ){//ä¿®æ­£ä¹ŒåŠ›çŽ‹
; 1431 : 		tblNo = 455 ;
; 1432 : 	}else if ( tblNo > 1509 ){
; 1433 : 		tblNo -= 1054;
; 1434 : 	}else if ( tblNo == 1497 ){
; 1435 : 		tblNo = 395;
; 1436 : 	}else if ( tblNo > 1495 ){
; 1437 : 		tblNo -= 1044 ;
; 1438 : 	}else if ( tblNo > 1490 ){
; 1439 : 		tblNo -= 1043 ;
; 1440 : 	}else if ( tblNo > 1485 ){
; 1441 : 		tblNo -= 1040 ; 
; 1442 : 	}else if ( tblNo > 1454 ) {
; 1443 : 		tblNo -= 1034 ; 
; 1444 : 	}else if ( tblNo == 1214 ) {
; 1445 : 		tblNo = 331 ;
; 1446 : 	}else if ( tblNo == 1217 ) {
; 1447 : 		tblNo = 328 ; 
; 1448 : 	}else if ( tblNo > 1361){
; 1449 : 		tblNo -= 952;
; 1450 : 	}else if( tblNo > 1356){
; 1451 : 		tblNo -= 999;
; 1452 : 	}else if( tblNo > 1281){
; 1453 : 		tblNo -= 919;
; 1454 : 	}else if( tblNo > 1239){
; 1455 : 		tblNo -= 889;
; 1456 : 	}else if( tblNo > 1186 ){
; 1457 : 		tblNo -= 886;
; 1458 : 	}else if( tblNo > 1173 ){
; 1459 : 		tblNo -= 877;
; 1460 : 	}else if( tblNo > 1172){
; 1461 : 		tblNo -= 877;
; 1462 : 	}else if( tblNo > 1161){
; 1463 : 		tblNo -= 868;
; 1464 : 	}else if( tblNo > 930){
; 1465 : 		tblNo -= 745;
; 1466 : 	}else if( tblNo == 927){
; 1467 : 		tblNo -= 634;
; 1468 : 	}else if( tblNo > 929){
; 1469 : 		tblNo -= 644;
; 1470 : 	}else if( tblNo > 927){
; 1471 : 		tblNo -= 643;
; 1472 : 	}else if( tblNo > 900){
; 1473 : 		tblNo -= 621;
; 1474 : 	}else if( tblNo > 180){
; 1475 : 		tblNo -= (333+56);
; 1476 : 	}
; 1477 : #elif defined(__ALBUM_29)
; 1478 : 	if( tblNo > 1615 ){//å¸ƒé‡Œè¨å°” èœœèœ‚1 èœœèœ‚2 è´è¶1 è´è¶2 æš—é»‘ä¹ŒåŠ›çŽ‹ ç‹®äºº1 ç‹®äºº2 ç°äººç†” ç™½ç‹¼
; 1479 : 		tblNo -= 1145;
; 1480 : 	}else if( tblNo > 1568 ){//æœºäººé¾™
; 1481 : 		tblNo -= 1103;
; 1482 : 	}else if( tblNo > 1564 ){//é»„è‰²é£žé¾™
; 1483 : 		tblNo -= 1101;
; 1484 : 	}else if( tblNo > 1516 ){
; 1485 : 		tblNo -= 1055;
; 1486 : 	}else if ( tblNo == 1516 ){//ä¿®æ­£ä¹ŒåŠ›çŽ‹
; 1487 : 		tblNo = 455 ;
; 1488 : 	}else if ( tblNo > 1509 ){
; 1489 : 		tblNo -= 1054;
; 1490 : 	}else if ( tblNo == 1497 ){
; 1491 : 		tblNo = 395;
; 1492 : 	}else if ( tblNo > 1495 ){
; 1493 : 		tblNo -= 1044 ;
; 1494 : 	}else if ( tblNo > 1490 ){
; 1495 : 		tblNo -= 1043 ;
; 1496 : 	}else if ( tblNo > 1485 ){
; 1497 : 		tblNo -= 1040 ; 
; 1498 : 	}else if ( tblNo > 1454 ) {
; 1499 : 		tblNo -= 1034 ; 
; 1500 : 	}else if ( tblNo == 1214 ) {
; 1501 : 		tblNo = 331 ;
; 1502 : 	}else if ( tblNo == 1217 ) {
; 1503 : 		tblNo = 328 ; 
; 1504 : 	}else if ( tblNo > 1361){
; 1505 : 		tblNo -= 952;
; 1506 : 	}else if( tblNo > 1356){
; 1507 : 		tblNo -= 999;
; 1508 : 	}else if( tblNo > 1281){
; 1509 : 		tblNo -= 919;
; 1510 : 	}else if( tblNo > 1239){
; 1511 : 		tblNo -= 889;
; 1512 : 	}else if( tblNo > 1186 ){
; 1513 : 		tblNo -= 886;
; 1514 : 	}else if( tblNo > 1173 ){
; 1515 : 		tblNo -= 877;
; 1516 : 	}else if( tblNo > 1172){
; 1517 : 		tblNo -= 877;
; 1518 : 	}else if( tblNo > 1161){
; 1519 : 		tblNo -= 868;
; 1520 : 	}else if( tblNo > 930){
; 1521 : 		tblNo -= 745;
; 1522 : 	}else if( tblNo == 927){
; 1523 : 		tblNo -= 634;
; 1524 : 	}else if( tblNo > 929){
; 1525 : 		tblNo -= 644;
; 1526 : 	}else if( tblNo > 927){
; 1527 : 		tblNo -= 643;
; 1528 : 	}else if( tblNo > 900){
; 1529 : 		tblNo -= 621;
; 1530 : 	}else if( tblNo > 180){
; 1531 : 		tblNo -= (333+56);
; 1532 : 	}
; 1533 : #elif defined(__ALBUM_28)
; 1534 : 	if( tblNo > 1615 ){//å¸ƒé‡Œè¨å°” èœœèœ‚1 èœœèœ‚2 è´è¶1 è´è¶2 æš—é»‘ä¹ŒåŠ›çŽ‹ ç‹®äºº1 ç‹®äºº2 ç°äººç†”
; 1535 : 		tblNo -= 1145;
; 1536 : 	}else if( tblNo > 1568 ){//æœºäººé¾™
; 1537 : 		tblNo -= 1103;
; 1538 : 	}else if( tblNo > 1564 ){//é»„è‰²é£žé¾™
; 1539 : 		tblNo -= 1101;
; 1540 : 	}else if( tblNo > 1516 ){
; 1541 : 		tblNo -= 1055;
; 1542 : 	}else if ( tblNo == 1516 ){//ä¿®æ­£ä¹ŒåŠ›çŽ‹
; 1543 : 		tblNo = 455 ;
; 1544 : 	}else if ( tblNo > 1509 ){
; 1545 : 		tblNo -= 1054;
; 1546 : 	}else if ( tblNo == 1497 ){
; 1547 : 		tblNo = 395;
; 1548 : 	}else if ( tblNo > 1495 ){
; 1549 : 		tblNo -= 1044 ;
; 1550 : 	}else if ( tblNo > 1490 ){
; 1551 : 		tblNo -= 1043 ;
; 1552 : 	}else if ( tblNo > 1485 ){
; 1553 : 		tblNo -= 1040 ; 
; 1554 : 	}else if ( tblNo > 1454 ) {
; 1555 : 		tblNo -= 1034 ; 
; 1556 : 	}else if ( tblNo == 1214 ) {
; 1557 : 		tblNo = 331 ;
; 1558 : 	}else if ( tblNo == 1217 ) {
; 1559 : 		tblNo = 328 ; 
; 1560 : 	}else if ( tblNo > 1361){
; 1561 : 		tblNo -= 952;
; 1562 : 	}else if( tblNo > 1356){
; 1563 : 		tblNo -= 999;
; 1564 : 	}else if( tblNo > 1281){
; 1565 : 		tblNo -= 919;
; 1566 : 	}else if( tblNo > 1239){
; 1567 : 		tblNo -= 889;
; 1568 : 	}else if( tblNo > 1186 ){
; 1569 : 		tblNo -= 886;
; 1570 : 	}else if( tblNo > 1173 ){
; 1571 : 		tblNo -= 877;
; 1572 : 	}else if( tblNo > 1172){
; 1573 : 		tblNo -= 877;
; 1574 : 	}else if( tblNo > 1161){
; 1575 : 		tblNo -= 868;
; 1576 : 	}else if( tblNo > 930){
; 1577 : 		tblNo -= 745;
; 1578 : 	}else if( tblNo == 927){
; 1579 : 		tblNo -= 634;
; 1580 : 	}else if( tblNo > 929){
; 1581 : 		tblNo -= 644;
; 1582 : 	}else if( tblNo > 927){
; 1583 : 		tblNo -= 643;
; 1584 : 	}else if( tblNo > 900){
; 1585 : 		tblNo -= 621;
; 1586 : 	}else if( tblNo > 180){
; 1587 : 		tblNo -= (333+56);
; 1588 : 	}
; 1589 : #elif defined(__ALBUM_27)
; 1590 : 	if( tblNo > 1615 ){//å¸ƒé‡Œè¨å°” èœœèœ‚1 èœœèœ‚2 è´è¶1 è´è¶2 æš—é»‘ä¹ŒåŠ›çŽ‹ ç‹®äºº1 ç‹®äºº2
; 1591 : 		tblNo -= 1145;
; 1592 : 	}else if( tblNo > 1568 ){//æœºäººé¾™
; 1593 : 		tblNo -= 1103;
; 1594 : 	}else if( tblNo > 1564 ){//é»„è‰²é£žé¾™
; 1595 : 		tblNo -= 1101;
; 1596 : 	}else if( tblNo > 1516 ){
; 1597 : 		tblNo -= 1055;
; 1598 : 	}else if ( tblNo == 1516 ){//ä¿®æ­£ä¹ŒåŠ›çŽ‹
; 1599 : 		tblNo = 455 ;
; 1600 : 	}else if ( tblNo > 1509 ){
; 1601 : 		tblNo -= 1054;
; 1602 : 	}else if ( tblNo == 1497 ){
; 1603 : 		tblNo = 395;
; 1604 : 	}else if ( tblNo > 1495 ){
; 1605 : 		tblNo -= 1044 ;
; 1606 : 	}else if ( tblNo > 1490 ){
; 1607 : 		tblNo -= 1043 ;
; 1608 : 	}else if ( tblNo > 1485 ){
; 1609 : 		tblNo -= 1040 ; 
; 1610 : 	}else if ( tblNo > 1454 ) {
; 1611 : 		tblNo -= 1034 ; 
; 1612 : 	}else if ( tblNo == 1214 ) {
; 1613 : 		tblNo = 331 ;
; 1614 : 	}else if ( tblNo == 1217 ) {
; 1615 : 		tblNo = 328 ; 
; 1616 : 	}else if ( tblNo > 1361){
; 1617 : 		tblNo -= 952;
; 1618 : 	}else if( tblNo > 1356){
; 1619 : 		tblNo -= 999;
; 1620 : 	}else if( tblNo > 1281){
; 1621 : 		tblNo -= 919;
; 1622 : 	}else if( tblNo > 1239){
; 1623 : 		tblNo -= 889;
; 1624 : 	}else if( tblNo > 1186 ){
; 1625 : 		tblNo -= 886;
; 1626 : 	}else if( tblNo > 1173 ){
; 1627 : 		tblNo -= 877;
; 1628 : 	}else if( tblNo > 1172){
; 1629 : 		tblNo -= 877;
; 1630 : 	}else if( tblNo > 1161){
; 1631 : 		tblNo -= 868;
; 1632 : 	}else if( tblNo > 930){
; 1633 : 		tblNo -= 745;
; 1634 : 	}else if( tblNo == 927){
; 1635 : 		tblNo -= 634;
; 1636 : 	}else if( tblNo > 929){
; 1637 : 		tblNo -= 644;
; 1638 : 	}else if( tblNo > 927){
; 1639 : 		tblNo -= 643;
; 1640 : 	}else if( tblNo > 900){
; 1641 : 		tblNo -= 621;
; 1642 : 	}else if( tblNo > 180){
; 1643 : 		tblNo -= (333+56);
; 1644 : 	}
; 1645 : 
; 1646 : #elif defined(__ALBUM_26)
; 1647 : 	if( tblNo > 1615 ){//å¸ƒé‡Œè¨å°” èœœèœ‚1 èœœèœ‚2 è´è¶1 è´è¶2 æš—é»‘ä¹ŒåŠ›çŽ‹
; 1648 : 		tblNo -= 1145;
; 1649 : 	}else if( tblNo > 1568 ){//æœºäººé¾™
; 1650 : 		tblNo -= 1103;
; 1651 : 	}else if( tblNo > 1564 ){//é»„è‰²é£žé¾™
; 1652 : 		tblNo -= 1101;
; 1653 : 	}else if( tblNo > 1516 ){
; 1654 : 		tblNo -= 1055;
; 1655 : 	}else if ( tblNo == 1516 ){//ä¿®æ­£ä¹ŒåŠ›çŽ‹
; 1656 : 		tblNo = 455 ;
; 1657 : 	}else if ( tblNo > 1509 ){
; 1658 : 		tblNo -= 1054;
; 1659 : 	}else if ( tblNo == 1497 ){
; 1660 : 		tblNo = 395;
; 1661 : 	}else if ( tblNo > 1495 ){
; 1662 : 		tblNo -= 1044 ;
; 1663 : 	}else if ( tblNo > 1490 ){
; 1664 : 		tblNo -= 1043 ;
; 1665 : 	}else if ( tblNo > 1485 ){
; 1666 : 		tblNo -= 1040 ; 
; 1667 : 	}else if ( tblNo > 1454 ) {
; 1668 : 		tblNo -= 1034 ; 
; 1669 : 	}else if ( tblNo == 1214 ) {
; 1670 : 		tblNo = 331 ;
; 1671 : 	}else if ( tblNo == 1217 ) {
; 1672 : 		tblNo = 328 ; 
; 1673 : 	}else if ( tblNo > 1361){
; 1674 : 		tblNo -= 952;
; 1675 : 	}else if( tblNo > 1356){
; 1676 : 		tblNo -= 999;
; 1677 : 	}else if( tblNo > 1281){
; 1678 : 		tblNo -= 919;
; 1679 : 	}else if( tblNo > 1239){
; 1680 : 		tblNo -= 889;
; 1681 : 	}else if( tblNo > 1186 ){
; 1682 : 		tblNo -= 886;
; 1683 : 	}else if( tblNo > 1173 ){
; 1684 : 		tblNo -= 877;
; 1685 : 	}else if( tblNo > 1172){
; 1686 : 		tblNo -= 877;
; 1687 : 	}else if( tblNo > 1161){
; 1688 : 		tblNo -= 868;
; 1689 : 	}else if( tblNo > 930){
; 1690 : 		tblNo -= 745;
; 1691 : 	}else if( tblNo == 927){
; 1692 : 		tblNo -= 634;
; 1693 : 	}else if( tblNo > 929){
; 1694 : 		tblNo -= 644;
; 1695 : 	}else if( tblNo > 927){
; 1696 : 		tblNo -= 643;
; 1697 : 	}else if( tblNo > 900){
; 1698 : 		tblNo -= 621;
; 1699 : 	}else if( tblNo > 180){
; 1700 : 		tblNo -= (333+56);
; 1701 : 	}
; 1702 : #elif defined(__ALBUM_25)
; 1703 : 	if( tblNo > 1615 ){//å¸ƒé‡Œè¨å°”
; 1704 : 		tblNo -= 1145;
; 1705 : 	}else if( tblNo > 1568 ){//æœºäººé¾™
; 1706 : 		tblNo -= 1103;
; 1707 : 	}else if( tblNo > 1564 ){//é»„è‰²é£žé¾™
; 1708 : 		tblNo -= 1101;
; 1709 : 	}else if( tblNo > 1516 ){
; 1710 : 		tblNo -= 1055;
; 1711 : 	}else if ( tblNo == 1516 ){//ä¿®æ­£ä¹ŒåŠ›çŽ‹
; 1712 : 		tblNo = 455 ;
; 1713 : 	}else if ( tblNo > 1509 ){
; 1714 : 		tblNo -= 1054;
; 1715 : 	}else if ( tblNo == 1497 ){
; 1716 : 		tblNo = 395;
; 1717 : 	}else if ( tblNo > 1495 ){
; 1718 : 		tblNo -= 1044 ;
; 1719 : 	}else if ( tblNo > 1490 ){
; 1720 : 		tblNo -= 1043 ;
; 1721 : 	}else if ( tblNo > 1485 ){
; 1722 : 		tblNo -= 1040 ; 
; 1723 : 	}else if ( tblNo > 1454 ) {
; 1724 : 		tblNo -= 1034 ; 
; 1725 : 	}else if ( tblNo == 1214 ) {
; 1726 : 		tblNo = 331 ;
; 1727 : 	}else if ( tblNo == 1217 ) {
; 1728 : 		tblNo = 328 ; 
; 1729 : 	}else if ( tblNo > 1361){
; 1730 : 		tblNo -= 952;
; 1731 : 	}else if( tblNo > 1356){
; 1732 : 		tblNo -= 999;
; 1733 : 	}else if( tblNo > 1281){
; 1734 : 		tblNo -= 919;
; 1735 : 	}else if( tblNo > 1239){
; 1736 : 		tblNo -= 889;
; 1737 : 	}else if( tblNo > 1186 ){
; 1738 : 		tblNo -= 886;
; 1739 : 	}else if( tblNo > 1173 ){
; 1740 : 		tblNo -= 877;
; 1741 : 	}else if( tblNo > 1172){
; 1742 : 		tblNo -= 877;
; 1743 : 	}else if( tblNo > 1161){
; 1744 : 		tblNo -= 868;
; 1745 : 	}else if( tblNo > 930){
; 1746 : 		tblNo -= 745;
; 1747 : 	}else if( tblNo == 927){
; 1748 : 		tblNo -= 634;
; 1749 : 	}else if( tblNo > 929){
; 1750 : 		tblNo -= 644;
; 1751 : 	}else if( tblNo > 927){
; 1752 : 		tblNo -= 643;
; 1753 : 	}else if( tblNo > 900){
; 1754 : 		tblNo -= 621;
; 1755 : 	}else if( tblNo > 180){
; 1756 : 		tblNo -= (333+56);
; 1757 : 	}
; 1758 : #elif defined(__ALBUM_24)
; 1759 : 	if( tblNo > 1568 ){//æœºäººé¾™
; 1760 : 		tblNo -= 1103;
; 1761 : 	}else if( tblNo > 1564 ){//é»„è‰²é£žé¾™
; 1762 : 		tblNo -= 1101;
; 1763 : 	}else if( tblNo > 1516 ){
; 1764 : 		tblNo -= 1055;
; 1765 : 	}else if ( tblNo == 1516 ){//ä¿®æ­£ä¹ŒåŠ›çŽ‹
; 1766 : 		tblNo = 455 ;
; 1767 : 	}else if ( tblNo > 1509 ){
; 1768 : 		tblNo -= 1054;
; 1769 : 	}else if ( tblNo == 1497 ){
; 1770 : 		tblNo = 395;
; 1771 : 	}else if ( tblNo > 1495 ){
; 1772 : 		tblNo -= 1044 ;
; 1773 : 	}else if ( tblNo > 1490 ){
; 1774 : 		tblNo -= 1043 ;
; 1775 : 	}else if ( tblNo > 1485 ){
; 1776 : 		tblNo -= 1040 ; 
; 1777 : 	}else if ( tblNo > 1454 ) {
; 1778 : 		tblNo -= 1034 ; 
; 1779 : 	}else if ( tblNo == 1214 ) {
; 1780 : 		tblNo = 331 ;
; 1781 : 	}else if ( tblNo == 1217 ) {
; 1782 : 		tblNo = 328 ; 
; 1783 : 	}else if ( tblNo > 1361){
; 1784 : 		tblNo -= 952;
; 1785 : 	}else if( tblNo > 1356){
; 1786 : 		tblNo -= 999;
; 1787 : 	}else if( tblNo > 1281){
; 1788 : 		tblNo -= 919;
; 1789 : 	}else if( tblNo > 1239){
; 1790 : 		tblNo -= 889;
; 1791 : 	}else if( tblNo > 1186 ){
; 1792 : 		tblNo -= 886;
; 1793 : 	}else if( tblNo > 1173 ){
; 1794 : 		tblNo -= 877;
; 1795 : 	}else if( tblNo > 1172){
; 1796 : 		tblNo -= 877;
; 1797 : 	}else if( tblNo > 1161){
; 1798 : 		tblNo -= 868;
; 1799 : 	}else if( tblNo > 930){
; 1800 : 		tblNo -= 745;
; 1801 : 	}else if( tblNo == 927){
; 1802 : 		tblNo -= 634;
; 1803 : 	}else if( tblNo > 929){
; 1804 : 		tblNo -= 644;
; 1805 : 	}else if( tblNo > 927){
; 1806 : 		tblNo -= 643;
; 1807 : 	}else if( tblNo > 900){
; 1808 : 		tblNo -= 621;
; 1809 : 	}else if( tblNo > 180){
; 1810 : 		tblNo -= (333+56);
; 1811 : 	}
; 1812 : #elif defined(__ALBUM_23)
; 1813 : 	if( tblNo > 1518 ){
; 1814 : 		tblNo -= 1057;
; 1815 : 	}else if( tblNo > 1516 ){
; 1816 : 		tblNo -= 1055;
; 1817 : 	}else if ( tblNo == 1516 ){//ä¿®æ­£ä¹ŒåŠ›çŽ‹
; 1818 : 		tblNo = 455 ;
; 1819 : 	}else if ( tblNo > 1509 ){
; 1820 : 		tblNo -= 1054;
; 1821 : 	}else if ( tblNo == 1497 ){
; 1822 : 		tblNo = 395;
; 1823 : 	}else if ( tblNo > 1495 ){
; 1824 : 		tblNo -= 1044 ;
; 1825 : 	}else if ( tblNo > 1490 ){
; 1826 : 		tblNo -= 1043 ;
; 1827 : 	}else if ( tblNo > 1485 ){
; 1828 : 		tblNo -= 1040 ; 
; 1829 : 	}else if ( tblNo > 1454 ) {
; 1830 : 		tblNo -= 1034 ; 
; 1831 : 	}else if ( tblNo == 1214 ) {
; 1832 : 		tblNo = 331 ;
; 1833 : 	}else if ( tblNo == 1217 ) {
; 1834 : 		tblNo = 328 ; 
; 1835 : 	}else if ( tblNo > 1361){
; 1836 : 		tblNo -= 952;
; 1837 : 	}else if( tblNo > 1356){
; 1838 : 		tblNo -= 999;
; 1839 : 	}else if( tblNo > 1281){
; 1840 : 		tblNo -= 919;
; 1841 : 	}else if( tblNo > 1239){
; 1842 : 		tblNo -= 889;
; 1843 : 	}else if( tblNo > 1186 ){
; 1844 : 		tblNo -= 886;
; 1845 : 	}else if( tblNo > 1173 ){
; 1846 : 		tblNo -= 877;
; 1847 : 	}else if( tblNo > 1172){
; 1848 : 		tblNo -= 877;
; 1849 : 	}else if( tblNo > 1161){
; 1850 : 		tblNo -= 868;
; 1851 : 	}else if( tblNo > 930){
; 1852 : 		tblNo -= 745;
; 1853 : 	}else if( tblNo == 927){
; 1854 : 		tblNo -= 634;
; 1855 : 	}else if( tblNo > 929){
; 1856 : 		tblNo -= 644;
; 1857 : 	}else if( tblNo > 927){
; 1858 : 		tblNo -= 643;
; 1859 : 	}else if( tblNo > 900){
; 1860 : 		tblNo -= 621;
; 1861 : 	}else if( tblNo > 180){
; 1862 : 		tblNo -= (333+56);
; 1863 : 	}
; 1864 : #elif defined(__ALBUM_22)
; 1865 : 	if ( tblNo == 1516 ){//ä¿®æ­£ä¹ŒåŠ›çŽ‹
; 1866 : 		tblNo = 455 ;
; 1867 : 	}else if ( tblNo > 1509 ){
; 1868 : 		tblNo -= 1054;
; 1869 : 	}else if ( tblNo == 1497 ){
; 1870 : 		tblNo = 395;
; 1871 : 	}else if ( tblNo > 1495 ){
; 1872 : 		tblNo -= 1044 ;
; 1873 : 	}else if ( tblNo > 1490 ){
; 1874 : 		tblNo -= 1043 ;
; 1875 : 	}else if ( tblNo > 1485 ){
; 1876 : 		tblNo -= 1040 ; 
; 1877 : 	}else if ( tblNo > 1454 ) {
; 1878 : 		tblNo -= 1034 ; 
; 1879 : 	}else if ( tblNo == 1214 ) {
; 1880 : 		tblNo = 331 ;
; 1881 : 	}else if ( tblNo == 1217 ) {
; 1882 : 		tblNo = 328 ; 
; 1883 : 	}else if ( tblNo > 1361){
; 1884 : 		tblNo -= 952;
; 1885 : 	}else if( tblNo > 1356){
; 1886 : 		tblNo -= 999;
; 1887 : 	}else if( tblNo > 1281){
; 1888 : 		tblNo -= 919;
; 1889 : 	}else if( tblNo > 1239){
; 1890 : 		tblNo -= 889;
; 1891 : 	}else if( tblNo > 1186 ){
; 1892 : 		tblNo -= 886;
; 1893 : 	}else if( tblNo > 1173 ){
; 1894 : 		tblNo -= 877;
; 1895 : 	}else if( tblNo > 1172){
; 1896 : 		tblNo -= 877;
; 1897 : 	}else if( tblNo > 1161){
; 1898 : 		tblNo -= 868;
; 1899 : 	}else if( tblNo > 930){
; 1900 : 		tblNo -= 745;
; 1901 : 	}else if( tblNo == 927){
; 1902 : 		tblNo -= 634;
; 1903 : 	}else if( tblNo > 929){
; 1904 : 		tblNo -= 644;
; 1905 : 	}else if( tblNo > 927){
; 1906 : 		tblNo -= 643;
; 1907 : 	}else if( tblNo > 900){
; 1908 : 		tblNo -= 621;
; 1909 : 	}else if( tblNo > 180){
; 1910 : 		tblNo -= (333+56);
; 1911 : 	}				
; 1912 : #elif defined(__ALBUM_21)
; 1913 : 	if ( tblNo > 1509 ){
; 1914 : 		tblNo -= 1054;
; 1915 : 	}else if ( tblNo == 1497 ){
; 1916 : 		tblNo = 395;
; 1917 : 	}else if ( tblNo > 1495 ){
; 1918 : 		tblNo -= 1044 ;
; 1919 : 	}else if ( tblNo > 1490 ){
; 1920 : 		tblNo -= 1043 ;
; 1921 : 	}else if ( tblNo > 1485 ){
; 1922 : 		tblNo -= 1040 ; 
; 1923 : 	}else if ( tblNo > 1454 ) {
; 1924 : 		tblNo -= 1034 ; 
; 1925 : 	}else if ( tblNo == 1214 ) {
; 1926 : 		tblNo = 331 ;
; 1927 : 	}else if ( tblNo == 1217 ) {
; 1928 : 		tblNo = 328 ; 
; 1929 : 	}else if ( tblNo > 1361){
; 1930 : 		tblNo -= 952;
; 1931 : 	}else if( tblNo > 1356){
; 1932 : 		tblNo -= 999;
; 1933 : 	}else if( tblNo > 1281){
; 1934 : 		tblNo -= 919;
; 1935 : 	}else if( tblNo > 1239){
; 1936 : 		tblNo -= 889;
; 1937 : 	}else if( tblNo > 1186 ){
; 1938 : 		tblNo -= 886;
; 1939 : 	}else if( tblNo > 1173 ){
; 1940 : 		tblNo -= 877;
; 1941 : 	}else if( tblNo > 1172){
; 1942 : 		tblNo -= 877;
; 1943 : 	}else if( tblNo > 1161){
; 1944 : 		tblNo -= 868;
; 1945 : 	}else if( tblNo > 930){
; 1946 : 		tblNo -= 745;
; 1947 : 	}else if( tblNo == 927){
; 1948 : 		tblNo -= 634;
; 1949 : 	}else if( tblNo > 929){
; 1950 : 		tblNo -= 644;
; 1951 : 	}else if( tblNo > 927){
; 1952 : 		tblNo -= 643;
; 1953 : 	}else if( tblNo > 900){
; 1954 : 		tblNo -= 621;
; 1955 : 	}else if( tblNo > 180){
; 1956 : 		tblNo -= (333+56);
; 1957 : 	}						
; 1958 : #elif defined(__ALBUM_20)
; 1959 : 	if ( tblNo == 1497 ){
; 1960 : 		tblNo = 395;
; 1961 : 	}else if ( tblNo > 1495 ){
; 1962 : 		tblNo -= 1044 ;
; 1963 : 	}else if ( tblNo > 1490 ){
; 1964 : 		tblNo -= 1043 ;
; 1965 : 	}else if ( tblNo > 1485 ){
; 1966 : 		tblNo -= 1040 ; 
; 1967 : 	}else if ( tblNo > 1454 ) {
; 1968 : 		tblNo -= 1034 ; 
; 1969 : 	}else if ( tblNo == 1214 ) {
; 1970 : 		tblNo = 331 ;
; 1971 : 	}else if ( tblNo == 1217 ) {
; 1972 : 		tblNo = 328 ; 
; 1973 : 	}else if ( tblNo > 1361){
; 1974 : 		tblNo -= 952;
; 1975 : 	}else if( tblNo > 1356){
; 1976 : 		tblNo -= 999;
; 1977 : 	}else if( tblNo > 1281){
; 1978 : 		tblNo -= 919;
; 1979 : 	}else if( tblNo > 1239){
; 1980 : 		tblNo -= 889;
; 1981 : 	}else if( tblNo > 1186 ){
; 1982 : 		tblNo -= 886;
; 1983 : 	}else if( tblNo > 1173 ){
; 1984 : 		tblNo -= 877;
; 1985 : 	}else if( tblNo > 1172){
; 1986 : 		tblNo -= 877;
; 1987 : 	}else if( tblNo > 1161){
; 1988 : 		tblNo -= 868;
; 1989 : 	}else if( tblNo > 930){
; 1990 : 		tblNo -= 745;
; 1991 : 	}else if( tblNo == 927){
; 1992 : 		tblNo -= 634;
; 1993 : 	}else if( tblNo > 929){
; 1994 : 		tblNo -= 644;
; 1995 : 	}else if( tblNo > 927){
; 1996 : 		tblNo -= 643;
; 1997 : 	}else if( tblNo > 900){
; 1998 : 		tblNo -= 621;
; 1999 : 	}else if( tblNo > 180){
; 2000 : 		tblNo -= (333+56);
; 2001 : 	}						
; 2002 : #elif defined(__ALBUM_19)
; 2003 : 	if ( tblNo > 1485 ) {
; 2004 : 		tblNo -= 1040 ; 
; 2005 : 	}else if ( tblNo > 1454 ) {
; 2006 : 		tblNo -= 1034 ; 
; 2007 : 	}else if ( tblNo == 1214 ) {
; 2008 : 		tblNo = 331 ;
; 2009 : 	}else if ( tblNo == 1217 ) {
; 2010 : 		tblNo = 328 ; 
; 2011 : 	}else if ( tblNo > 1361){
; 2012 : 		tblNo -= 952;
; 2013 : 	}else if( tblNo > 1356){
; 2014 : 		tblNo -= 999;
; 2015 : 	}else if( tblNo > 1281){
; 2016 : 		tblNo -= 919;
; 2017 : 	}else if( tblNo > 1239){
; 2018 : 		tblNo -= 889;
; 2019 : 	}else if( tblNo > 1186 ){
; 2020 : 		tblNo -= 886;
; 2021 : 	}else if( tblNo > 1173 ){
; 2022 : 		tblNo -= 877;
; 2023 : 	}else if( tblNo > 1172){
; 2024 : 		tblNo -= 877;
; 2025 : 	}else if( tblNo > 1161){
; 2026 : 		tblNo -= 868;
; 2027 : 	}else if( tblNo > 930){
; 2028 : 		tblNo -= 745;
; 2029 : 	}else if( tblNo == 927){
; 2030 : 		tblNo -= 634;
; 2031 : 	}else if( tblNo > 929){
; 2032 : 		tblNo -= 644;
; 2033 : 	}else if( tblNo > 927){
; 2034 : 		tblNo -= 643;
; 2035 : 	}else if( tblNo > 900){
; 2036 : 		tblNo -= 621;
; 2037 : 	}else if( tblNo > 180){
; 2038 : 		tblNo -= (333+56);
; 2039 : 	}
; 2040 : #elif defined(__ALBUM_18)
; 2041 : 	if ( tblNo > 1490 ){
; 2042 : 		tblNo -= 1044;
; 2043 : 	}else if ( tblNo > 1485 ) {
; 2044 : 		tblNo -= 1040 ; 
; 2045 : 	}else if ( tblNo > 1454 ) {
; 2046 : 		tblNo -= 1034 ; 
; 2047 : 	}else if ( tblNo == 1214 ) {
; 2048 : 		tblNo = 331 ;
; 2049 : 	}else if ( tblNo == 1217 ) {
; 2050 : 		tblNo = 328 ; 
; 2051 : 	}else if ( tblNo > 1361){
; 2052 : 		tblNo -= 952;
; 2053 : 	}else if( tblNo > 1356){
; 2054 : 		tblNo -= 999;
; 2055 : 	}else if( tblNo > 1281){
; 2056 : 		tblNo -= 919;
; 2057 : 	}else if( tblNo > 1239){
; 2058 : 		tblNo -= 889;
; 2059 : 	}else if( tblNo > 1186 ){
; 2060 : 		tblNo -= 886;
; 2061 : 	}else if( tblNo > 1173 ){
; 2062 : 		tblNo -= 877;
; 2063 : 	}else if( tblNo > 1172){
; 2064 : 		tblNo -= 877;
; 2065 : 	}else if( tblNo > 1161){
; 2066 : 		tblNo -= 868;
; 2067 : 	}else if( tblNo > 930){
; 2068 : 		tblNo -= 745;
; 2069 : 	}else if( tblNo == 927){
; 2070 : 		tblNo -= 634;
; 2071 : 	}else if( tblNo > 929){
; 2072 : 		tblNo -= 644;
; 2073 : 	}else if( tblNo > 927){
; 2074 : 		tblNo -= 643;
; 2075 : 	}else if( tblNo > 900){
; 2076 : 		tblNo -= 621;
; 2077 : 	}else if( tblNo > 180){
; 2078 : 		tblNo -= (333+56);
; 2079 : 	}
; 2080 : #elif defined(__ALBUM_17)
; 2081 : 	if ( tblNo > 1454 ) {
; 2082 : 		tblNo -= 1034 ; 
; 2083 : 	}else if ( tblNo == 1214 ) {
; 2084 : 		tblNo = 331 ;
; 2085 : 	}else if ( tblNo == 1217 ) {
; 2086 : 		tblNo = 328 ; 
; 2087 : 	}else if ( tblNo > 1361){
; 2088 : 		tblNo -= 952;
; 2089 : 	}else if( tblNo > 1356){
; 2090 : 		tblNo -= 999;
; 2091 : 	}else if( tblNo > 1281){
; 2092 : 		tblNo -= 919;
; 2093 : 	}else if( tblNo > 1239){
; 2094 : 		tblNo -= 889;
; 2095 : 	}else if( tblNo > 1186 ){
; 2096 : 		tblNo -= 886;
; 2097 : 	}else if( tblNo > 1173 ){
; 2098 : 		tblNo -= 877;
; 2099 : 	}else if( tblNo > 1172){
; 2100 : 		tblNo -= 877;
; 2101 : 	}else if( tblNo > 1161){
; 2102 : 		tblNo -= 868;
; 2103 : 	}else if( tblNo > 930){
; 2104 : 		tblNo -= 745;
; 2105 : 	}else if( tblNo == 927){
; 2106 : 		tblNo -= 634;
; 2107 : 	}else if( tblNo > 929){
; 2108 : 		tblNo -= 644;
; 2109 : 	}else if( tblNo > 927){
; 2110 : 		tblNo -= 643;
; 2111 : 	}else if( tblNo > 900){
; 2112 : 		tblNo -= 621;
; 2113 : 	}else if( tblNo > 180){
; 2114 : 		tblNo -= (333+56);
; 2115 : 	}
; 2116 : #elif defined(__ALBUM_16)
; 2117 : 	if ( tblNo == 1214 ) {
; 2118 : 		tblNo = 331 ;
; 2119 : 	}else if ( tblNo == 1217 ) {
; 2120 : 		tblNo = 328 ; 
; 2121 : 	}else if ( tblNo > 1361){
; 2122 : 		tblNo -= 952;
; 2123 : 	}else if( tblNo > 1356){
; 2124 : 		tblNo -= 999;
; 2125 : 	}else if( tblNo > 1281){
; 2126 : 		tblNo -= 919;
; 2127 : 	}else if( tblNo > 1239){
; 2128 : 		tblNo -= 889;
; 2129 : 	}else if( tblNo > 1186 ){
; 2130 : 		tblNo -= 886;
; 2131 : 	}else if( tblNo > 1173 ){
; 2132 : 		tblNo -= 877;
; 2133 : 	}else if( tblNo > 1172){
; 2134 : 		tblNo -= 877;
; 2135 : 	}else if( tblNo > 1161){
; 2136 : 		tblNo -= 868;
; 2137 : 	}else if( tblNo > 930){
; 2138 : 		tblNo -= 745;
; 2139 : 	}else if( tblNo == 927){
; 2140 : 		tblNo -= 634;
; 2141 : 	}else if( tblNo > 929){
; 2142 : 		tblNo -= 644;
; 2143 : 	}else if( tblNo > 927){
; 2144 : 		tblNo -= 643;
; 2145 : 	}else if( tblNo > 900){
; 2146 : 		tblNo -= 621;
; 2147 : 	}else if( tblNo > 180){
; 2148 : 		tblNo -= (333+56);
; 2149 : 	}
; 2150 : #elif defined(__ALBUM_15)
; 2151 : 	if ( tblNo == 1214 ) {
; 2152 : 		tblNo = 331 ;
; 2153 : 	}else if ( tblNo == 1217 ) {
; 2154 : 		tblNo = 328 ; 
; 2155 : 	}else if ( tblNo > 1361){
; 2156 : 		tblNo -= 952;
; 2157 : 	}else if( tblNo > 1356){
; 2158 : 		tblNo -= 999;
; 2159 : 	}else if( tblNo > 1281){
; 2160 : 		tblNo -= 919;
; 2161 : 	}else if( tblNo > 1239){
; 2162 : 		tblNo -= 889;
; 2163 : 	}else if( tblNo > 1186 ){
; 2164 : 		tblNo -= 886;
; 2165 : 	}else if( tblNo > 1173 ){
; 2166 : 		tblNo -= 877;
; 2167 : 	}else if( tblNo > 1172){
; 2168 : 		tblNo -= 877;
; 2169 : 	}else if( tblNo > 1161){
; 2170 : 		tblNo -= 868;
; 2171 : 	}else if( tblNo > 930){
; 2172 : 		tblNo -= 745;
; 2173 : 	}else if( tblNo == 927){
; 2174 : 		tblNo -= 634;
; 2175 : 	}else if( tblNo > 929){
; 2176 : 		tblNo -= 644;
; 2177 : 	}else if( tblNo > 927){
; 2178 : 		tblNo -= 643;
; 2179 : 	}else if( tblNo > 900){
; 2180 : 		tblNo -= 621;
; 2181 : 	}else if( tblNo > 180){
; 2182 : 		tblNo -= (333+56);
; 2183 : 	}
; 2184 : #endif
; 2185 : 	return tblNo;
; 2186 : }

  00017	5d		 pop	 ebp
  00018	c3		 ret	 0
$LN2@GetPettblN:

; 263  : 	}else if( tblNo > 1755 ){					//é—´éš”å—ç“œé­”çŽ‹åŽçš„ ç‹çŒ´

  00019	3d db 06 00 00	 cmp	 eax, 1755		; 000006dbH
  0001e	7e 07		 jle	 SHORT $LN4@GetPettblN

; 264  : 		tblNo -= 1201 ;

  00020	2d b1 04 00 00	 sub	 eax, 1201		; 000004b1H

; 331  : 	}
; 332  : #elif defined(__ALBUM_46)
; 333  : 	if( tblNo > 1800 ){					//å°æ¶é­”
; 334  : 		tblNo -= 1208;
; 335  : 	}else if( tblNo > 1755 ){					//é—´éš”å—ç“œé­”çŽ‹åŽçš„ ç‹çŒ´
; 336  : 		tblNo -= 1201 ;
; 337  : 	}else if (tblNo > 1739 ){			//é£žè›‡
; 338  : 		tblNo -= 1200;
; 339  : 	}else if (tblNo > 1686 ){			//8.0å® ç‰©
; 340  : 		tblNo -= 1175;
; 341  : 	}else if (tblNo > 1641 ){			//é¸¡å¹´å…½4 ç”²è™«2	8.0ç¬¬ä¸€æ¬¡æ•´åˆæµ‹è¯•
; 342  : 		tblNo -= 1167;
; 343  : 	}else if (tblNo > 1635 ){   //éº’éºŸ
; 344  : 		tblNo -= 1148;
; 345  : 	}else if ( tblNo > 1634 ){	//çŒ«å¥³1 çŒ«å¥³2
; 346  : 		tblNo -= 1149;
; 347  : 	}else if ( tblNo > 1628 ){	//ç«èš1 ç«èš2 ç‰›äºº1 ç‰›äºº2
; 348  : 		tblNo -= 1147;
; 349  : 	}else if( tblNo > 1615 ){//å¸ƒé‡Œè¨å°” èœœèœ‚1 èœœèœ‚2 è´è¶1 è´è¶2 æš—é»‘ä¹ŒåŠ›çŽ‹ ç‹®äºº1 ç‹®äºº2 ç°äººç†” ç™½ç‹¼ å¸ƒä¼Šé…·
; 350  : 		tblNo -= 1145;
; 351  : 	}else if( tblNo > 1568 ){//æœºäººé¾™
; 352  : 		tblNo -= 1103;
; 353  : 	}else if( tblNo > 1564 ){//é»„è‰²é£žé¾™
; 354  : 		tblNo -= 1101;
; 355  : 	}else if( tblNo > 1516 ){
; 356  : 		tblNo -= 1055;
; 357  : 	}else if ( tblNo == 1516 ){//ä¿®æ­£ä¹ŒåŠ›çŽ‹
; 358  : 		tblNo = 455 ;
; 359  : 	}else if ( tblNo > 1509 ){
; 360  : 		tblNo -= 1054;
; 361  : 	}else if ( tblNo == 1497 ){
; 362  : 		tblNo = 395;
; 363  : 	}else if ( tblNo > 1495 ){
; 364  : 		tblNo -= 1044 ;
; 365  : 	}else if ( tblNo > 1490 ){
; 366  : 		tblNo -= 1043 ;
; 367  : 	}else if ( tblNo > 1485 ){
; 368  : 		tblNo -= 1040 ; 
; 369  : 	}else if ( tblNo > 1454 ) {
; 370  : 		tblNo -= 1034 ; 
; 371  : 	}else if ( tblNo == 1214 ) {
; 372  : 		tblNo = 331 ;
; 373  : 	}else if ( tblNo == 1217 ) {
; 374  : 		tblNo = 328 ; 
; 375  : 	}else if ( tblNo > 1361){
; 376  : 		tblNo -= 952;
; 377  : 	}else if( tblNo > 1356){
; 378  : 		tblNo -= 999;
; 379  : 	}else if( tblNo > 1281){
; 380  : 		tblNo -= 919;
; 381  : 	}else if( tblNo > 1239){
; 382  : 		tblNo -= 889;
; 383  : 	}else if( tblNo > 1186 ){
; 384  : 		tblNo -= 886;
; 385  : 	}else if( tblNo > 1173 ){
; 386  : 		tblNo -= 877;
; 387  : 	}else if( tblNo > 1172){
; 388  : 		tblNo -= 877;
; 389  : 	}else if( tblNo > 1161){
; 390  : 		tblNo -= 868;
; 391  : 	}else if( tblNo > 930){
; 392  : 		tblNo -= 745;
; 393  : 	}else if( tblNo == 927){
; 394  : 		tblNo -= 634;
; 395  : 	}else if( tblNo > 929){
; 396  : 		tblNo -= 644;
; 397  : 	}else if( tblNo > 927){
; 398  : 		tblNo -= 643;
; 399  : 	}else if( tblNo > 900){
; 400  : 		tblNo -= 621;
; 401  : 	}else if( tblNo > 180){
; 402  : 		tblNo -= (333+56);
; 403  : 	}
; 404  : #elif defined(__ALBUM_45)
; 405  : 	if( tblNo > 1800 ){					//å°æ¶é­”
; 406  : 		tblNo -= 1208;
; 407  : 	}else if( tblNo > 1755 ){					//é—´éš”å—ç“œé­”çŽ‹åŽçš„ ç‹çŒ´
; 408  : 		tblNo -= 1201 ;
; 409  : 	}else if (tblNo > 1739 ){			//é£žè›‡
; 410  : 		tblNo -= 1200;
; 411  : 	}else if (tblNo > 1686 ){			//8.0å® ç‰©
; 412  : 		tblNo -= 1175;
; 413  : 	}else if (tblNo > 1641 ){			//é¸¡å¹´å…½4 ç”²è™«2	8.0ç¬¬ä¸€æ¬¡æ•´åˆæµ‹è¯•
; 414  : 		tblNo -= 1167;
; 415  : 	}else if (tblNo > 1635 ){   //éº’éºŸ
; 416  : 		tblNo -= 1148;
; 417  : 	}else if ( tblNo > 1634 ){	//çŒ«å¥³1 çŒ«å¥³2
; 418  : 		tblNo -= 1149;
; 419  : 	}else if ( tblNo > 1628 ){	//ç«èš1 ç«èš2 ç‰›äºº1 ç‰›äºº2
; 420  : 		tblNo -= 1147;
; 421  : 	}else if( tblNo > 1615 ){//å¸ƒé‡Œè¨å°” èœœèœ‚1 èœœèœ‚2 è´è¶1 è´è¶2 æš—é»‘ä¹ŒåŠ›çŽ‹ ç‹®äºº1 ç‹®äºº2 ç°äººç†” ç™½ç‹¼ å¸ƒä¼Šé…·
; 422  : 		tblNo -= 1145;
; 423  : 	}else if( tblNo > 1568 ){//æœºäººé¾™
; 424  : 		tblNo -= 1103;
; 425  : 	}else if( tblNo > 1564 ){//é»„è‰²é£žé¾™
; 426  : 		tblNo -= 1101;
; 427  : 	}else if( tblNo > 1516 ){
; 428  : 		tblNo -= 1055;
; 429  : 	}else if ( tblNo == 1516 ){//ä¿®æ­£ä¹ŒåŠ›çŽ‹
; 430  : 		tblNo = 455 ;
; 431  : 	}else if ( tblNo > 1509 ){
; 432  : 		tblNo -= 1054;
; 433  : 	}else if ( tblNo == 1497 ){
; 434  : 		tblNo = 395;
; 435  : 	}else if ( tblNo > 1495 ){
; 436  : 		tblNo -= 1044 ;
; 437  : 	}else if ( tblNo > 1490 ){
; 438  : 		tblNo -= 1043 ;
; 439  : 	}else if ( tblNo > 1485 ){
; 440  : 		tblNo -= 1040 ; 
; 441  : 	}else if ( tblNo > 1454 ) {
; 442  : 		tblNo -= 1034 ; 
; 443  : 	}else if ( tblNo == 1214 ) {
; 444  : 		tblNo = 331 ;
; 445  : 	}else if ( tblNo == 1217 ) {
; 446  : 		tblNo = 328 ; 
; 447  : 	}else if ( tblNo > 1361){
; 448  : 		tblNo -= 952;
; 449  : 	}else if( tblNo > 1356){
; 450  : 		tblNo -= 999;
; 451  : 	}else if( tblNo > 1281){
; 452  : 		tblNo -= 919;
; 453  : 	}else if( tblNo > 1239){
; 454  : 		tblNo -= 889;
; 455  : 	}else if( tblNo > 1186 ){
; 456  : 		tblNo -= 886;
; 457  : 	}else if( tblNo > 1173 ){
; 458  : 		tblNo -= 877;
; 459  : 	}else if( tblNo > 1172){
; 460  : 		tblNo -= 877;
; 461  : 	}else if( tblNo > 1161){
; 462  : 		tblNo -= 868;
; 463  : 	}else if( tblNo > 930){
; 464  : 		tblNo -= 745;
; 465  : 	}else if( tblNo == 927){
; 466  : 		tblNo -= 634;
; 467  : 	}else if( tblNo > 929){
; 468  : 		tblNo -= 644;
; 469  : 	}else if( tblNo > 927){
; 470  : 		tblNo -= 643;
; 471  : 	}else if( tblNo > 900){
; 472  : 		tblNo -= 621;
; 473  : 	}else if( tblNo > 180){
; 474  : 		tblNo -= (333+56);
; 475  : 	}
; 476  : #elif defined(__ALBUM_44)
; 477  : 	if( tblNo > 1800 ){					//å°æ¶é­”
; 478  : 		tblNo -= 1208;
; 479  : 	}else if( tblNo > 1755 ){					//é—´éš”å—ç“œé­”çŽ‹åŽçš„ ç‹çŒ´
; 480  : 		tblNo -= 1201 ;
; 481  : 	}else if (tblNo > 1739 ){			//é£žè›‡
; 482  : 		tblNo -= 1200;
; 483  : 	}else if (tblNo > 1686 ){			//8.0å® ç‰©
; 484  : 		tblNo -= 1175;
; 485  : 	}else if (tblNo > 1641 ){			//é¸¡å¹´å…½4 ç”²è™«2	8.0ç¬¬ä¸€æ¬¡æ•´åˆæµ‹è¯•
; 486  : 		tblNo -= 1167;
; 487  : 	}else if (tblNo > 1635 ){   //éº’éºŸ
; 488  : 		tblNo -= 1148;
; 489  : 	}else if ( tblNo > 1634 ){	//çŒ«å¥³1 çŒ«å¥³2
; 490  : 		tblNo -= 1149;
; 491  : 	}else if ( tblNo > 1628 ){	//ç«èš1 ç«èš2 ç‰›äºº1 ç‰›äºº2
; 492  : 		tblNo -= 1147;
; 493  : 	}else if( tblNo > 1615 ){//å¸ƒé‡Œè¨å°” èœœèœ‚1 èœœèœ‚2 è´è¶1 è´è¶2 æš—é»‘ä¹ŒåŠ›çŽ‹ ç‹®äºº1 ç‹®äºº2 ç°äººç†” ç™½ç‹¼ å¸ƒä¼Šé…·
; 494  : 		tblNo -= 1145;
; 495  : 	}else if( tblNo > 1568 ){//æœºäººé¾™
; 496  : 		tblNo -= 1103;
; 497  : 	}else if( tblNo > 1564 ){//é»„è‰²é£žé¾™
; 498  : 		tblNo -= 1101;
; 499  : 	}else if( tblNo > 1516 ){
; 500  : 		tblNo -= 1055;
; 501  : 	}else if ( tblNo == 1516 ){//ä¿®æ­£ä¹ŒåŠ›çŽ‹
; 502  : 		tblNo = 455 ;
; 503  : 	}else if ( tblNo > 1509 ){
; 504  : 		tblNo -= 1054;
; 505  : 	}else if ( tblNo == 1497 ){
; 506  : 		tblNo = 395;
; 507  : 	}else if ( tblNo > 1495 ){
; 508  : 		tblNo -= 1044 ;
; 509  : 	}else if ( tblNo > 1490 ){
; 510  : 		tblNo -= 1043 ;
; 511  : 	}else if ( tblNo > 1485 ){
; 512  : 		tblNo -= 1040 ; 
; 513  : 	}else if ( tblNo > 1454 ) {
; 514  : 		tblNo -= 1034 ; 
; 515  : 	}else if ( tblNo == 1214 ) {
; 516  : 		tblNo = 331 ;
; 517  : 	}else if ( tblNo == 1217 ) {
; 518  : 		tblNo = 328 ; 
; 519  : 	}else if ( tblNo > 1361){
; 520  : 		tblNo -= 952;
; 521  : 	}else if( tblNo > 1356){
; 522  : 		tblNo -= 999;
; 523  : 	}else if( tblNo > 1281){
; 524  : 		tblNo -= 919;
; 525  : 	}else if( tblNo > 1239){
; 526  : 		tblNo -= 889;
; 527  : 	}else if( tblNo > 1186 ){
; 528  : 		tblNo -= 886;
; 529  : 	}else if( tblNo > 1173 ){
; 530  : 		tblNo -= 877;
; 531  : 	}else if( tblNo > 1172){
; 532  : 		tblNo -= 877;
; 533  : 	}else if( tblNo > 1161){
; 534  : 		tblNo -= 868;
; 535  : 	}else if( tblNo > 930){
; 536  : 		tblNo -= 745;
; 537  : 	}else if( tblNo == 927){
; 538  : 		tblNo -= 634;
; 539  : 	}else if( tblNo > 929){
; 540  : 		tblNo -= 644;
; 541  : 	}else if( tblNo > 927){
; 542  : 		tblNo -= 643;
; 543  : 	}else if( tblNo > 900){
; 544  : 		tblNo -= 621;
; 545  : 	}else if( tblNo > 180){
; 546  : 		tblNo -= (333+56);
; 547  : 	}
; 548  : #elif defined(__ALBUM_43)
; 549  : 	if( tblNo > 1800 ){					//å°æ¶é­”
; 550  : 		tblNo -= 1208;
; 551  : 	}else if( tblNo > 1755 ){					//é—´éš”å—ç“œé­”çŽ‹åŽçš„ ç‹çŒ´
; 552  : 		tblNo -= 1201 ;
; 553  : 	}else if (tblNo > 1739 ){			//é£žè›‡
; 554  : 		tblNo -= 1200;
; 555  : 	}else if (tblNo > 1686 ){			//8.0å® ç‰©
; 556  : 		tblNo -= 1175;
; 557  : 	}else if (tblNo > 1641 ){			//é¸¡å¹´å…½4 ç”²è™«2	8.0ç¬¬ä¸€æ¬¡æ•´åˆæµ‹è¯•
; 558  : 		tblNo -= 1167;
; 559  : 	}else if (tblNo > 1635 ){   //éº’éºŸ
; 560  : 		tblNo -= 1148;
; 561  : 	}else if ( tblNo > 1634 ){	//çŒ«å¥³1 çŒ«å¥³2
; 562  : 		tblNo -= 1149;
; 563  : 	}else if ( tblNo > 1628 ){	//ç«èš1 ç«èš2 ç‰›äºº1 ç‰›äºº2
; 564  : 		tblNo -= 1147;
; 565  : 	}else if( tblNo > 1615 ){//å¸ƒé‡Œè¨å°” èœœèœ‚1 èœœèœ‚2 è´è¶1 è´è¶2 æš—é»‘ä¹ŒåŠ›çŽ‹ ç‹®äºº1 ç‹®äºº2 ç°äººç†” ç™½ç‹¼ å¸ƒä¼Šé…·
; 566  : 		tblNo -= 1145;
; 567  : 	}else if( tblNo > 1568 ){//æœºäººé¾™
; 568  : 		tblNo -= 1103;
; 569  : 	}else if( tblNo > 1564 ){//é»„è‰²é£žé¾™
; 570  : 		tblNo -= 1101;
; 571  : 	}else if( tblNo > 1516 ){
; 572  : 		tblNo -= 1055;
; 573  : 	}else if ( tblNo == 1516 ){//ä¿®æ­£ä¹ŒåŠ›çŽ‹
; 574  : 		tblNo = 455 ;
; 575  : 	}else if ( tblNo > 1509 ){
; 576  : 		tblNo -= 1054;
; 577  : 	}else if ( tblNo == 1497 ){
; 578  : 		tblNo = 395;
; 579  : 	}else if ( tblNo > 1495 ){
; 580  : 		tblNo -= 1044 ;
; 581  : 	}else if ( tblNo > 1490 ){
; 582  : 		tblNo -= 1043 ;
; 583  : 	}else if ( tblNo > 1485 ){
; 584  : 		tblNo -= 1040 ; 
; 585  : 	}else if ( tblNo > 1454 ) {
; 586  : 		tblNo -= 1034 ; 
; 587  : 	}else if ( tblNo == 1214 ) {
; 588  : 		tblNo = 331 ;
; 589  : 	}else if ( tblNo == 1217 ) {
; 590  : 		tblNo = 328 ; 
; 591  : 	}else if ( tblNo > 1361){
; 592  : 		tblNo -= 952;
; 593  : 	}else if( tblNo > 1356){
; 594  : 		tblNo -= 999;
; 595  : 	}else if( tblNo > 1281){
; 596  : 		tblNo -= 919;
; 597  : 	}else if( tblNo > 1239){
; 598  : 		tblNo -= 889;
; 599  : 	}else if( tblNo > 1186 ){
; 600  : 		tblNo -= 886;
; 601  : 	}else if( tblNo > 1173 ){
; 602  : 		tblNo -= 877;
; 603  : 	}else if( tblNo > 1172){
; 604  : 		tblNo -= 877;
; 605  : 	}else if( tblNo > 1161){
; 606  : 		tblNo -= 868;
; 607  : 	}else if( tblNo > 930){
; 608  : 		tblNo -= 745;
; 609  : 	}else if( tblNo == 927){
; 610  : 		tblNo -= 634;
; 611  : 	}else if( tblNo > 929){
; 612  : 		tblNo -= 644;
; 613  : 	}else if( tblNo > 927){
; 614  : 		tblNo -= 643;
; 615  : 	}else if( tblNo > 900){
; 616  : 		tblNo -= 621;
; 617  : 	}else if( tblNo > 180){
; 618  : 		tblNo -= (333+56);
; 619  : 	}
; 620  : #elif defined(__ALBUM_42)
; 621  : 	if( tblNo > 1800 ){					//å°æ¶é­”
; 622  : 		tblNo -= 1208;
; 623  : 	}else if( tblNo > 1755 ){					//é—´éš”å—ç“œé­”çŽ‹åŽçš„ ç‹çŒ´
; 624  : 		tblNo -= 1201 ;
; 625  : 	}else if (tblNo > 1739 ){			//é£žè›‡
; 626  : 		tblNo -= 1200;
; 627  : 	}else if (tblNo > 1686 ){			//8.0å® ç‰©
; 628  : 		tblNo -= 1175;
; 629  : 	}else if (tblNo > 1641 ){			//é¸¡å¹´å…½4 ç”²è™«2	8.0ç¬¬ä¸€æ¬¡æ•´åˆæµ‹è¯•
; 630  : 		tblNo -= 1167;
; 631  : 	}else if (tblNo > 1635 ){   //éº’éºŸ
; 632  : 		tblNo -= 1148;
; 633  : 	}else if ( tblNo > 1634 ){	//çŒ«å¥³1 çŒ«å¥³2
; 634  : 		tblNo -= 1149;
; 635  : 	}else if ( tblNo > 1628 ){	//ç«èš1 ç«èš2 ç‰›äºº1 ç‰›äºº2
; 636  : 		tblNo -= 1147;
; 637  : 	}else if( tblNo > 1615 ){//å¸ƒé‡Œè¨å°” èœœèœ‚1 èœœèœ‚2 è´è¶1 è´è¶2 æš—é»‘ä¹ŒåŠ›çŽ‹ ç‹®äºº1 ç‹®äºº2 ç°äººç†” ç™½ç‹¼ å¸ƒä¼Šé…·
; 638  : 		tblNo -= 1145;
; 639  : 	}else if( tblNo > 1568 ){//æœºäººé¾™
; 640  : 		tblNo -= 1103;
; 641  : 	}else if( tblNo > 1564 ){//é»„è‰²é£žé¾™
; 642  : 		tblNo -= 1101;
; 643  : 	}else if( tblNo > 1516 ){
; 644  : 		tblNo -= 1055;
; 645  : 	}else if ( tblNo == 1516 ){//ä¿®æ­£ä¹ŒåŠ›çŽ‹
; 646  : 		tblNo = 455 ;
; 647  : 	}else if ( tblNo > 1509 ){
; 648  : 		tblNo -= 1054;
; 649  : 	}else if ( tblNo == 1497 ){
; 650  : 		tblNo = 395;
; 651  : 	}else if ( tblNo > 1495 ){
; 652  : 		tblNo -= 1044 ;
; 653  : 	}else if ( tblNo > 1490 ){
; 654  : 		tblNo -= 1043 ;
; 655  : 	}else if ( tblNo > 1485 ){
; 656  : 		tblNo -= 1040 ; 
; 657  : 	}else if ( tblNo > 1454 ) {
; 658  : 		tblNo -= 1034 ; 
; 659  : 	}else if ( tblNo == 1214 ) {
; 660  : 		tblNo = 331 ;
; 661  : 	}else if ( tblNo == 1217 ) {
; 662  : 		tblNo = 328 ; 
; 663  : 	}else if ( tblNo > 1361){
; 664  : 		tblNo -= 952;
; 665  : 	}else if( tblNo > 1356){
; 666  : 		tblNo -= 999;
; 667  : 	}else if( tblNo > 1281){
; 668  : 		tblNo -= 919;
; 669  : 	}else if( tblNo > 1239){
; 670  : 		tblNo -= 889;
; 671  : 	}else if( tblNo > 1186 ){
; 672  : 		tblNo -= 886;
; 673  : 	}else if( tblNo > 1173 ){
; 674  : 		tblNo -= 877;
; 675  : 	}else if( tblNo > 1172){
; 676  : 		tblNo -= 877;
; 677  : 	}else if( tblNo > 1161){
; 678  : 		tblNo -= 868;
; 679  : 	}else if( tblNo > 930){
; 680  : 		tblNo -= 745;
; 681  : 	}else if( tblNo == 927){
; 682  : 		tblNo -= 634;
; 683  : 	}else if( tblNo > 929){
; 684  : 		tblNo -= 644;
; 685  : 	}else if( tblNo > 927){
; 686  : 		tblNo -= 643;
; 687  : 	}else if( tblNo > 900){
; 688  : 		tblNo -= 621;
; 689  : 	}else if( tblNo > 180){
; 690  : 		tblNo -= (333+56);
; 691  : 	}
; 692  : #elif defined(__ALBUM_41)
; 693  : 	if( tblNo > 1800 ){					//å°æ¶é­”
; 694  : 		tblNo -= 1208;
; 695  : 	}else if( tblNo > 1755 ){					//é—´éš”å—ç“œé­”çŽ‹åŽçš„ ç‹çŒ´
; 696  : 		tblNo -= 1201 ;
; 697  : 	}else if (tblNo > 1739 ){			//é£žè›‡
; 698  : 		tblNo -= 1200;
; 699  : 	}else if (tblNo > 1686 ){			//8.0å® ç‰©
; 700  : 		tblNo -= 1175;
; 701  : 	}else if (tblNo > 1641 ){			//é¸¡å¹´å…½4 ç”²è™«2	8.0ç¬¬ä¸€æ¬¡æ•´åˆæµ‹è¯•
; 702  : 		tblNo -= 1167;
; 703  : 	}else if (tblNo > 1635 ){   //éº’éºŸ
; 704  : 		tblNo -= 1148;
; 705  : 	}else if ( tblNo > 1634 ){	//çŒ«å¥³1 çŒ«å¥³2
; 706  : 		tblNo -= 1149;
; 707  : 	}else if ( tblNo > 1628 ){	//ç«èš1 ç«èš2 ç‰›äºº1 ç‰›äºº2
; 708  : 		tblNo -= 1147;
; 709  : 	}else if( tblNo > 1615 ){//å¸ƒé‡Œè¨å°” èœœèœ‚1 èœœèœ‚2 è´è¶1 è´è¶2 æš—é»‘ä¹ŒåŠ›çŽ‹ ç‹®äºº1 ç‹®äºº2 ç°äººç†” ç™½ç‹¼ å¸ƒä¼Šé…·
; 710  : 		tblNo -= 1145;
; 711  : 	}else if( tblNo > 1568 ){//æœºäººé¾™
; 712  : 		tblNo -= 1103;
; 713  : 	}else if( tblNo > 1564 ){//é»„è‰²é£žé¾™
; 714  : 		tblNo -= 1101;
; 715  : 	}else if( tblNo > 1516 ){
; 716  : 		tblNo -= 1055;
; 717  : 	}else if ( tblNo == 1516 ){//ä¿®æ­£ä¹ŒåŠ›çŽ‹
; 718  : 		tblNo = 455 ;
; 719  : 	}else if ( tblNo > 1509 ){
; 720  : 		tblNo -= 1054;
; 721  : 	}else if ( tblNo == 1497 ){
; 722  : 		tblNo = 395;
; 723  : 	}else if ( tblNo > 1495 ){
; 724  : 		tblNo -= 1044 ;
; 725  : 	}else if ( tblNo > 1490 ){
; 726  : 		tblNo -= 1043 ;
; 727  : 	}else if ( tblNo > 1485 ){
; 728  : 		tblNo -= 1040 ; 
; 729  : 	}else if ( tblNo > 1454 ) {
; 730  : 		tblNo -= 1034 ; 
; 731  : 	}else if ( tblNo == 1214 ) {
; 732  : 		tblNo = 331 ;
; 733  : 	}else if ( tblNo == 1217 ) {
; 734  : 		tblNo = 328 ; 
; 735  : 	}else if ( tblNo > 1361){
; 736  : 		tblNo -= 952;
; 737  : 	}else if( tblNo > 1356){
; 738  : 		tblNo -= 999;
; 739  : 	}else if( tblNo > 1281){
; 740  : 		tblNo -= 919;
; 741  : 	}else if( tblNo > 1239){
; 742  : 		tblNo -= 889;
; 743  : 	}else if( tblNo > 1186 ){
; 744  : 		tblNo -= 886;
; 745  : 	}else if( tblNo > 1173 ){
; 746  : 		tblNo -= 877;
; 747  : 	}else if( tblNo > 1172){
; 748  : 		tblNo -= 877;
; 749  : 	}else if( tblNo > 1161){
; 750  : 		tblNo -= 868;
; 751  : 	}else if( tblNo > 930){
; 752  : 		tblNo -= 745;
; 753  : 	}else if( tblNo == 927){
; 754  : 		tblNo -= 634;
; 755  : 	}else if( tblNo > 929){
; 756  : 		tblNo -= 644;
; 757  : 	}else if( tblNo > 927){
; 758  : 		tblNo -= 643;
; 759  : 	}else if( tblNo > 900){
; 760  : 		tblNo -= 621;
; 761  : 	}else if( tblNo > 180){
; 762  : 		tblNo -= (333+56);
; 763  : 	}
; 764  : #elif defined(__ALBUM_40)
; 765  : 	if( tblNo > 1800 ){					//å°æ¶é­”
; 766  : 		tblNo -= 1208;
; 767  : 	}else if( tblNo > 1755 ){					//é—´éš”å—ç“œé­”çŽ‹åŽçš„ ç‹çŒ´
; 768  : 		tblNo -= 1201 ;
; 769  : 	}else if (tblNo > 1739 ){			//é£žè›‡
; 770  : 		tblNo -= 1200;
; 771  : 	}else if (tblNo > 1686 ){			//8.0å® ç‰©
; 772  : 		tblNo -= 1175;
; 773  : 	}else if (tblNo > 1641 ){			//é¸¡å¹´å…½4 ç”²è™«2	8.0ç¬¬ä¸€æ¬¡æ•´åˆæµ‹è¯•
; 774  : 		tblNo -= 1167;
; 775  : 	}else if (tblNo > 1635 ){   //éº’éºŸ
; 776  : 		tblNo -= 1148;
; 777  : 	}else if ( tblNo > 1634 ){	//çŒ«å¥³1 çŒ«å¥³2
; 778  : 		tblNo -= 1149;
; 779  : 	}else if ( tblNo > 1628 ){	//ç«èš1 ç«èš2 ç‰›äºº1 ç‰›äºº2
; 780  : 		tblNo -= 1147;
; 781  : 	}else if( tblNo > 1615 ){//å¸ƒé‡Œè¨å°” èœœèœ‚1 èœœèœ‚2 è´è¶1 è´è¶2 æš—é»‘ä¹ŒåŠ›çŽ‹ ç‹®äºº1 ç‹®äºº2 ç°äººç†” ç™½ç‹¼ å¸ƒä¼Šé…·
; 782  : 		tblNo -= 1145;
; 783  : 	}else if( tblNo > 1568 ){//æœºäººé¾™
; 784  : 		tblNo -= 1103;
; 785  : 	}else if( tblNo > 1564 ){//é»„è‰²é£žé¾™
; 786  : 		tblNo -= 1101;
; 787  : 	}else if( tblNo > 1516 ){
; 788  : 		tblNo -= 1055;
; 789  : 	}else if ( tblNo == 1516 ){//ä¿®æ­£ä¹ŒåŠ›çŽ‹
; 790  : 		tblNo = 455 ;
; 791  : 	}else if ( tblNo > 1509 ){
; 792  : 		tblNo -= 1054;
; 793  : 	}else if ( tblNo == 1497 ){
; 794  : 		tblNo = 395;
; 795  : 	}else if ( tblNo > 1495 ){
; 796  : 		tblNo -= 1044 ;
; 797  : 	}else if ( tblNo > 1490 ){
; 798  : 		tblNo -= 1043 ;
; 799  : 	}else if ( tblNo > 1485 ){
; 800  : 		tblNo -= 1040 ; 
; 801  : 	}else if ( tblNo > 1454 ) {
; 802  : 		tblNo -= 1034 ; 
; 803  : 	}else if ( tblNo == 1214 ) {
; 804  : 		tblNo = 331 ;
; 805  : 	}else if ( tblNo == 1217 ) {
; 806  : 		tblNo = 328 ; 
; 807  : 	}else if ( tblNo > 1361){
; 808  : 		tblNo -= 952;
; 809  : 	}else if( tblNo > 1356){
; 810  : 		tblNo -= 999;
; 811  : 	}else if( tblNo > 1281){
; 812  : 		tblNo -= 919;
; 813  : 	}else if( tblNo > 1239){
; 814  : 		tblNo -= 889;
; 815  : 	}else if( tblNo > 1186 ){
; 816  : 		tblNo -= 886;
; 817  : 	}else if( tblNo > 1173 ){
; 818  : 		tblNo -= 877;
; 819  : 	}else if( tblNo > 1172){
; 820  : 		tblNo -= 877;
; 821  : 	}else if( tblNo > 1161){
; 822  : 		tblNo -= 868;
; 823  : 	}else if( tblNo > 930){
; 824  : 		tblNo -= 745;
; 825  : 	}else if( tblNo == 927){
; 826  : 		tblNo -= 634;
; 827  : 	}else if( tblNo > 929){
; 828  : 		tblNo -= 644;
; 829  : 	}else if( tblNo > 927){
; 830  : 		tblNo -= 643;
; 831  : 	}else if( tblNo > 900){
; 832  : 		tblNo -= 621;
; 833  : 	}else if( tblNo > 180){
; 834  : 		tblNo -= (333+56);
; 835  : 	}
; 836  : #elif defined(__ALBUM_39)
; 837  : 	if( tblNo > 1800 ){					//å°æ¶é­”
; 838  : 		tblNo -= 1208;
; 839  : 	}else if( tblNo > 1755 ){					//é—´éš”å—ç“œé­”çŽ‹åŽçš„ ç‹çŒ´
; 840  : 		tblNo -= 1201 ;
; 841  : 	}else if (tblNo > 1739 ){			//é£žè›‡
; 842  : 		tblNo -= 1200;
; 843  : 	}else if (tblNo > 1686 ){			//8.0å® ç‰©
; 844  : 		tblNo -= 1175;
; 845  : 	}else if (tblNo > 1641 ){			//é¸¡å¹´å…½4 ç”²è™«2	8.0ç¬¬ä¸€æ¬¡æ•´åˆæµ‹è¯•
; 846  : 		tblNo -= 1167;
; 847  : 	}else if (tblNo > 1635 ){   //éº’éºŸ
; 848  : 		tblNo -= 1148;
; 849  : 	}else if ( tblNo > 1634 ){	//çŒ«å¥³1 çŒ«å¥³2
; 850  : 		tblNo -= 1149;
; 851  : 	}else if ( tblNo > 1628 ){	//ç«èš1 ç«èš2 ç‰›äºº1 ç‰›äºº2
; 852  : 		tblNo -= 1147;
; 853  : 	}else if( tblNo > 1615 ){//å¸ƒé‡Œè¨å°” èœœèœ‚1 èœœèœ‚2 è´è¶1 è´è¶2 æš—é»‘ä¹ŒåŠ›çŽ‹ ç‹®äºº1 ç‹®äºº2 ç°äººç†” ç™½ç‹¼ å¸ƒä¼Šé…·
; 854  : 		tblNo -= 1145;
; 855  : 	}else if( tblNo > 1568 ){//æœºäººé¾™
; 856  : 		tblNo -= 1103;
; 857  : 	}else if( tblNo > 1564 ){//é»„è‰²é£žé¾™
; 858  : 		tblNo -= 1101;
; 859  : 	}else if( tblNo > 1516 ){
; 860  : 		tblNo -= 1055;
; 861  : 	}else if ( tblNo == 1516 ){//ä¿®æ­£ä¹ŒåŠ›çŽ‹
; 862  : 		tblNo = 455 ;
; 863  : 	}else if ( tblNo > 1509 ){
; 864  : 		tblNo -= 1054;
; 865  : 	}else if ( tblNo == 1497 ){
; 866  : 		tblNo = 395;
; 867  : 	}else if ( tblNo > 1495 ){
; 868  : 		tblNo -= 1044 ;
; 869  : 	}else if ( tblNo > 1490 ){
; 870  : 		tblNo -= 1043 ;
; 871  : 	}else if ( tblNo > 1485 ){
; 872  : 		tblNo -= 1040 ; 
; 873  : 	}else if ( tblNo > 1454 ) {
; 874  : 		tblNo -= 1034 ; 
; 875  : 	}else if ( tblNo == 1214 ) {
; 876  : 		tblNo = 331 ;
; 877  : 	}else if ( tblNo == 1217 ) {
; 878  : 		tblNo = 328 ; 
; 879  : 	}else if ( tblNo > 1361){
; 880  : 		tblNo -= 952;
; 881  : 	}else if( tblNo > 1356){
; 882  : 		tblNo -= 999;
; 883  : 	}else if( tblNo > 1281){
; 884  : 		tblNo -= 919;
; 885  : 	}else if( tblNo > 1239){
; 886  : 		tblNo -= 889;
; 887  : 	}else if( tblNo > 1186 ){
; 888  : 		tblNo -= 886;
; 889  : 	}else if( tblNo > 1173 ){
; 890  : 		tblNo -= 877;
; 891  : 	}else if( tblNo > 1172){
; 892  : 		tblNo -= 877;
; 893  : 	}else if( tblNo > 1161){
; 894  : 		tblNo -= 868;
; 895  : 	}else if( tblNo > 930){
; 896  : 		tblNo -= 745;
; 897  : 	}else if( tblNo == 927){
; 898  : 		tblNo -= 634;
; 899  : 	}else if( tblNo > 929){
; 900  : 		tblNo -= 644;
; 901  : 	}else if( tblNo > 927){
; 902  : 		tblNo -= 643;
; 903  : 	}else if( tblNo > 900){
; 904  : 		tblNo -= 621;
; 905  : 	}else if( tblNo > 180){
; 906  : 		tblNo -= (333+56);
; 907  : 	}
; 908  : #elif defined(__ALBUM_38)
; 909  : 	if( tblNo > 1755 ){					//é—´éš”å—ç“œé­”çŽ‹åŽçš„ ç‹çŒ´
; 910  : 		tblNo -= 1201 ;
; 911  : 	}else if (tblNo > 1739 ){			//é£žè›‡
; 912  : 		tblNo -= 1200;
; 913  : 	}else if (tblNo > 1686 ){			//8.0å® ç‰©
; 914  : 		tblNo -= 1175;
; 915  : 	}else if (tblNo > 1641 ){			//é¸¡å¹´å…½4 ç”²è™«2	8.0ç¬¬ä¸€æ¬¡æ•´åˆæµ‹è¯•
; 916  : 		tblNo -= 1167;
; 917  : 	}else if (tblNo > 1635 ){   //éº’éºŸ
; 918  : 		tblNo -= 1148;
; 919  : 	}else if ( tblNo > 1634 ){	//çŒ«å¥³1 çŒ«å¥³2
; 920  : 		tblNo -= 1149;
; 921  : 	}else if ( tblNo > 1628 ){	//ç«èš1 ç«èš2 ç‰›äºº1 ç‰›äºº2
; 922  : 		tblNo -= 1147;
; 923  : 	}else if( tblNo > 1615 ){//å¸ƒé‡Œè¨å°” èœœèœ‚1 èœœèœ‚2 è´è¶1 è´è¶2 æš—é»‘ä¹ŒåŠ›çŽ‹ ç‹®äºº1 ç‹®äºº2 ç°äººç†” ç™½ç‹¼ å¸ƒä¼Šé…·
; 924  : 		tblNo -= 1145;
; 925  : 	}else if( tblNo > 1568 ){//æœºäººé¾™
; 926  : 		tblNo -= 1103;
; 927  : 	}else if( tblNo > 1564 ){//é»„è‰²é£žé¾™
; 928  : 		tblNo -= 1101;
; 929  : 	}else if( tblNo > 1516 ){
; 930  : 		tblNo -= 1055;
; 931  : 	}else if ( tblNo == 1516 ){//ä¿®æ­£ä¹ŒåŠ›çŽ‹
; 932  : 		tblNo = 455 ;
; 933  : 	}else if ( tblNo > 1509 ){
; 934  : 		tblNo -= 1054;
; 935  : 	}else if ( tblNo == 1497 ){
; 936  : 		tblNo = 395;
; 937  : 	}else if ( tblNo > 1495 ){
; 938  : 		tblNo -= 1044 ;
; 939  : 	}else if ( tblNo > 1490 ){
; 940  : 		tblNo -= 1043 ;
; 941  : 	}else if ( tblNo > 1485 ){
; 942  : 		tblNo -= 1040 ; 
; 943  : 	}else if ( tblNo > 1454 ) {
; 944  : 		tblNo -= 1034 ; 
; 945  : 	}else if ( tblNo == 1214 ) {
; 946  : 		tblNo = 331 ;
; 947  : 	}else if ( tblNo == 1217 ) {
; 948  : 		tblNo = 328 ; 
; 949  : 	}else if ( tblNo > 1361){
; 950  : 		tblNo -= 952;
; 951  : 	}else if( tblNo > 1356){
; 952  : 		tblNo -= 999;
; 953  : 	}else if( tblNo > 1281){
; 954  : 		tblNo -= 919;
; 955  : 	}else if( tblNo > 1239){
; 956  : 		tblNo -= 889;
; 957  : 	}else if( tblNo > 1186 ){
; 958  : 		tblNo -= 886;
; 959  : 	}else if( tblNo > 1173 ){
; 960  : 		tblNo -= 877;
; 961  : 	}else if( tblNo > 1172){
; 962  : 		tblNo -= 877;
; 963  : 	}else if( tblNo > 1161){
; 964  : 		tblNo -= 868;
; 965  : 	}else if( tblNo > 930){
; 966  : 		tblNo -= 745;
; 967  : 	}else if( tblNo == 927){
; 968  : 		tblNo -= 634;
; 969  : 	}else if( tblNo > 929){
; 970  : 		tblNo -= 644;
; 971  : 	}else if( tblNo > 927){
; 972  : 		tblNo -= 643;
; 973  : 	}else if( tblNo > 900){
; 974  : 		tblNo -= 621;
; 975  : 	}else if( tblNo > 180){
; 976  : 		tblNo -= (333+56);
; 977  : 	}
; 978  : #elif defined(__ALBUM_37)
; 979  : 	if (tblNo > 1739 ){			//é£žè›‡
; 980  : 		tblNo -= 1200;
; 981  : 	}else if (tblNo > 1686 ){			//8.0å® ç‰©
; 982  : 		tblNo -= 1175;
; 983  : 	}else if (tblNo > 1641 ){			//é¸¡å¹´å…½4 ç”²è™«2	8.0ç¬¬ä¸€æ¬¡æ•´åˆæµ‹è¯•
; 984  : 		tblNo -= 1167;
; 985  : 	}else if (tblNo > 1635 ){   //éº’éºŸ
; 986  : 		tblNo -= 1148;
; 987  : 	}else if ( tblNo > 1634 ){	//çŒ«å¥³1 çŒ«å¥³2
; 988  : 		tblNo -= 1149;
; 989  : 	}else if ( tblNo > 1628 ){	//ç«èš1 ç«èš2 ç‰›äºº1 ç‰›äºº2
; 990  : 		tblNo -= 1147;
; 991  : 	}else if( tblNo > 1615 ){//å¸ƒé‡Œè¨å°” èœœèœ‚1 èœœèœ‚2 è´è¶1 è´è¶2 æš—é»‘ä¹ŒåŠ›çŽ‹ ç‹®äºº1 ç‹®äºº2 ç°äººç†” ç™½ç‹¼ å¸ƒä¼Šé…·
; 992  : 		tblNo -= 1145;
; 993  : 	}else if( tblNo > 1568 ){//æœºäººé¾™
; 994  : 		tblNo -= 1103;
; 995  : 	}else if( tblNo > 1564 ){//é»„è‰²é£žé¾™
; 996  : 		tblNo -= 1101;
; 997  : 	}else if( tblNo > 1516 ){
; 998  : 		tblNo -= 1055;
; 999  : 	}else if ( tblNo == 1516 ){//ä¿®æ­£ä¹ŒåŠ›çŽ‹
; 1000 : 		tblNo = 455 ;
; 1001 : 	}else if ( tblNo > 1509 ){
; 1002 : 		tblNo -= 1054;
; 1003 : 	}else if ( tblNo == 1497 ){
; 1004 : 		tblNo = 395;
; 1005 : 	}else if ( tblNo > 1495 ){
; 1006 : 		tblNo -= 1044 ;
; 1007 : 	}else if ( tblNo > 1490 ){
; 1008 : 		tblNo -= 1043 ;
; 1009 : 	}else if ( tblNo > 1485 ){
; 1010 : 		tblNo -= 1040 ; 
; 1011 : 	}else if ( tblNo > 1454 ) {
; 1012 : 		tblNo -= 1034 ; 
; 1013 : 	}else if ( tblNo == 1214 ) {
; 1014 : 		tblNo = 331 ;
; 1015 : 	}else if ( tblNo == 1217 ) {
; 1016 : 		tblNo = 328 ; 
; 1017 : 	}else if ( tblNo > 1361){
; 1018 : 		tblNo -= 952;
; 1019 : 	}else if( tblNo > 1356){
; 1020 : 		tblNo -= 999;
; 1021 : 	}else if( tblNo > 1281){
; 1022 : 		tblNo -= 919;
; 1023 : 	}else if( tblNo > 1239){
; 1024 : 		tblNo -= 889;
; 1025 : 	}else if( tblNo > 1186 ){
; 1026 : 		tblNo -= 886;
; 1027 : 	}else if( tblNo > 1173 ){
; 1028 : 		tblNo -= 877;
; 1029 : 	}else if( tblNo > 1172){
; 1030 : 		tblNo -= 877;
; 1031 : 	}else if( tblNo > 1161){
; 1032 : 		tblNo -= 868;
; 1033 : 	}else if( tblNo > 930){
; 1034 : 		tblNo -= 745;
; 1035 : 	}else if( tblNo == 927){
; 1036 : 		tblNo -= 634;
; 1037 : 	}else if( tblNo > 929){
; 1038 : 		tblNo -= 644;
; 1039 : 	}else if( tblNo > 927){
; 1040 : 		tblNo -= 643;
; 1041 : 	}else if( tblNo > 900){
; 1042 : 		tblNo -= 621;
; 1043 : 	}else if( tblNo > 180){
; 1044 : 		tblNo -= (333+56);
; 1045 : 	}
; 1046 : #elif defined(__ALBUM_36)
; 1047 : 	if (tblNo > 1686 ){			//é¸¡å¹´å…½4 ç”²è™«2	8.0ç¬¬ä¸€æ¬¡æ•´åˆæµ‹è¯•
; 1048 : 		tblNo -= 1175;
; 1049 : 	}else if (tblNo > 1641 ){			//é¸¡å¹´å…½4 ç”²è™«2	8.0ç¬¬ä¸€æ¬¡æ•´åˆæµ‹è¯•
; 1050 : 		tblNo -= 1167;
; 1051 : 	}else if (tblNo > 1635 ){   //éº’éºŸ
; 1052 : 		tblNo -= 1148;
; 1053 : 	}else if ( tblNo > 1634 ){	//çŒ«å¥³1 çŒ«å¥³2
; 1054 : 		tblNo -= 1149;
; 1055 : 	}else if ( tblNo > 1628 ){	//ç«èš1 ç«èš2 ç‰›äºº1 ç‰›äºº2
; 1056 : 		tblNo -= 1147;
; 1057 : 	}else if( tblNo > 1615 ){//å¸ƒé‡Œè¨å°” èœœèœ‚1 èœœèœ‚2 è´è¶1 è´è¶2 æš—é»‘ä¹ŒåŠ›çŽ‹ ç‹®äºº1 ç‹®äºº2 ç°äººç†” ç™½ç‹¼ å¸ƒä¼Šé…·
; 1058 : 		tblNo -= 1145;
; 1059 : 	}else if( tblNo > 1568 ){//æœºäººé¾™
; 1060 : 		tblNo -= 1103;
; 1061 : 	}else if( tblNo > 1564 ){//é»„è‰²é£žé¾™
; 1062 : 		tblNo -= 1101;
; 1063 : 	}else if( tblNo > 1516 ){
; 1064 : 		tblNo -= 1055;
; 1065 : 	}else if ( tblNo == 1516 ){//ä¿®æ­£ä¹ŒåŠ›çŽ‹
; 1066 : 		tblNo = 455 ;
; 1067 : 	}else if ( tblNo > 1509 ){
; 1068 : 		tblNo -= 1054;
; 1069 : 	}else if ( tblNo == 1497 ){
; 1070 : 		tblNo = 395;
; 1071 : 	}else if ( tblNo > 1495 ){
; 1072 : 		tblNo -= 1044 ;
; 1073 : 	}else if ( tblNo > 1490 ){
; 1074 : 		tblNo -= 1043 ;
; 1075 : 	}else if ( tblNo > 1485 ){
; 1076 : 		tblNo -= 1040 ; 
; 1077 : 	}else if ( tblNo > 1454 ) {
; 1078 : 		tblNo -= 1034 ; 
; 1079 : 	}else if ( tblNo == 1214 ) {
; 1080 : 		tblNo = 331 ;
; 1081 : 	}else if ( tblNo == 1217 ) {
; 1082 : 		tblNo = 328 ; 
; 1083 : 	}else if ( tblNo > 1361){
; 1084 : 		tblNo -= 952;
; 1085 : 	}else if( tblNo > 1356){
; 1086 : 		tblNo -= 999;
; 1087 : 	}else if( tblNo > 1281){
; 1088 : 		tblNo -= 919;
; 1089 : 	}else if( tblNo > 1239){
; 1090 : 		tblNo -= 889;
; 1091 : 	}else if( tblNo > 1186 ){
; 1092 : 		tblNo -= 886;
; 1093 : 	}else if( tblNo > 1173 ){
; 1094 : 		tblNo -= 877;
; 1095 : 	}else if( tblNo > 1172){
; 1096 : 		tblNo -= 877;
; 1097 : 	}else if( tblNo > 1161){
; 1098 : 		tblNo -= 868;
; 1099 : 	}else if( tblNo > 930){
; 1100 : 		tblNo -= 745;
; 1101 : 	}else if( tblNo == 927){
; 1102 : 		tblNo -= 634;
; 1103 : 	}else if( tblNo > 929){
; 1104 : 		tblNo -= 644;
; 1105 : 	}else if( tblNo > 927){
; 1106 : 		tblNo -= 643;
; 1107 : 	}else if( tblNo > 900){
; 1108 : 		tblNo -= 621;
; 1109 : 	}else if( tblNo > 180){
; 1110 : 		tblNo -= (333+56);
; 1111 : 	}
; 1112 : #elif defined(__ALBUM_35)
; 1113 : 	if (tblNo > 1641 ){			//é¸¡å¹´å…½4 ç”²è™«2	8.0ç¬¬ä¸€æ¬¡æ•´åˆæµ‹è¯•
; 1114 : 		tblNo -= 1167;
; 1115 : 	}else if (tblNo > 1635 ){   //éº’éºŸ
; 1116 : 		tblNo -= 1148;
; 1117 : 	}else if ( tblNo > 1634 ){	//çŒ«å¥³1 çŒ«å¥³2
; 1118 : 		tblNo -= 1149;
; 1119 : 	}else if ( tblNo > 1628 ){	//ç«èš1 ç«èš2 ç‰›äºº1 ç‰›äºº2
; 1120 : 		tblNo -= 1147;
; 1121 : 	}else if( tblNo > 1615 ){//å¸ƒé‡Œè¨å°” èœœèœ‚1 èœœèœ‚2 è´è¶1 è´è¶2 æš—é»‘ä¹ŒåŠ›çŽ‹ ç‹®äºº1 ç‹®äºº2 ç°äººç†” ç™½ç‹¼ å¸ƒä¼Šé…·
; 1122 : 		tblNo -= 1145;
; 1123 : 	}else if( tblNo > 1568 ){//æœºäººé¾™
; 1124 : 		tblNo -= 1103;
; 1125 : 	}else if( tblNo > 1564 ){//é»„è‰²é£žé¾™
; 1126 : 		tblNo -= 1101;
; 1127 : 	}else if( tblNo > 1516 ){
; 1128 : 		tblNo -= 1055;
; 1129 : 	}else if ( tblNo == 1516 ){//ä¿®æ­£ä¹ŒåŠ›çŽ‹
; 1130 : 		tblNo = 455 ;
; 1131 : 	}else if ( tblNo > 1509 ){
; 1132 : 		tblNo -= 1054;
; 1133 : 	}else if ( tblNo == 1497 ){
; 1134 : 		tblNo = 395;
; 1135 : 	}else if ( tblNo > 1495 ){
; 1136 : 		tblNo -= 1044 ;
; 1137 : 	}else if ( tblNo > 1490 ){
; 1138 : 		tblNo -= 1043 ;
; 1139 : 	}else if ( tblNo > 1485 ){
; 1140 : 		tblNo -= 1040 ; 
; 1141 : 	}else if ( tblNo > 1454 ) {
; 1142 : 		tblNo -= 1034 ; 
; 1143 : 	}else if ( tblNo == 1214 ) {
; 1144 : 		tblNo = 331 ;
; 1145 : 	}else if ( tblNo == 1217 ) {
; 1146 : 		tblNo = 328 ; 
; 1147 : 	}else if ( tblNo > 1361){
; 1148 : 		tblNo -= 952;
; 1149 : 	}else if( tblNo > 1356){
; 1150 : 		tblNo -= 999;
; 1151 : 	}else if( tblNo > 1281){
; 1152 : 		tblNo -= 919;
; 1153 : 	}else if( tblNo > 1239){
; 1154 : 		tblNo -= 889;
; 1155 : 	}else if( tblNo > 1186 ){
; 1156 : 		tblNo -= 886;
; 1157 : 	}else if( tblNo > 1173 ){
; 1158 : 		tblNo -= 877;
; 1159 : 	}else if( tblNo > 1172){
; 1160 : 		tblNo -= 877;
; 1161 : 	}else if( tblNo > 1161){
; 1162 : 		tblNo -= 868;
; 1163 : 	}else if( tblNo > 930){
; 1164 : 		tblNo -= 745;
; 1165 : 	}else if( tblNo == 927){
; 1166 : 		tblNo -= 634;
; 1167 : 	}else if( tblNo > 929){
; 1168 : 		tblNo -= 644;
; 1169 : 	}else if( tblNo > 927){
; 1170 : 		tblNo -= 643;
; 1171 : 	}else if( tblNo > 900){
; 1172 : 		tblNo -= 621;
; 1173 : 	}else if( tblNo > 180){
; 1174 : 		tblNo -= (333+56);
; 1175 : 	}
; 1176 : 
; 1177 : #elif defined(__ALBUM_34)
; 1178 : 	if (tblNo > 1639 ){			//é¸¡å¹´å…½4
; 1179 : 		tblNo -= 1167;
; 1180 : 	}else if (tblNo > 1635 ){   //éº’éºŸ
; 1181 : 		tblNo -= 1148;
; 1182 : 	}else if ( tblNo > 1634 ){	//çŒ«å¥³1 çŒ«å¥³2
; 1183 : 		tblNo -= 1149;
; 1184 : 	}else if ( tblNo > 1628 ){	//ç«èš1 ç«èš2 ç‰›äºº1 ç‰›äºº2
; 1185 : 		tblNo -= 1147;
; 1186 : 	}else if( tblNo > 1615 ){//å¸ƒé‡Œè¨å°” èœœèœ‚1 èœœèœ‚2 è´è¶1 è´è¶2 æš—é»‘ä¹ŒåŠ›çŽ‹ ç‹®äºº1 ç‹®äºº2 ç°äººç†” ç™½ç‹¼ å¸ƒä¼Šé…·
; 1187 : 		tblNo -= 1145;
; 1188 : 	}else if( tblNo > 1568 ){//æœºäººé¾™
; 1189 : 		tblNo -= 1103;
; 1190 : 	}else if( tblNo > 1564 ){//é»„è‰²é£žé¾™
; 1191 : 		tblNo -= 1101;
; 1192 : 	}else if( tblNo > 1516 ){
; 1193 : 		tblNo -= 1055;
; 1194 : 	}else if ( tblNo == 1516 ){//ä¿®æ­£ä¹ŒåŠ›çŽ‹
; 1195 : 		tblNo = 455 ;
; 1196 : 	}else if ( tblNo > 1509 ){
; 1197 : 		tblNo -= 1054;
; 1198 : 	}else if ( tblNo == 1497 ){
; 1199 : 		tblNo = 395;
; 1200 : 	}else if ( tblNo > 1495 ){
; 1201 : 		tblNo -= 1044 ;
; 1202 : 	}else if ( tblNo > 1490 ){
; 1203 : 		tblNo -= 1043 ;
; 1204 : 	}else if ( tblNo > 1485 ){
; 1205 : 		tblNo -= 1040 ; 
; 1206 : 	}else if ( tblNo > 1454 ) {
; 1207 : 		tblNo -= 1034 ; 
; 1208 : 	}else if ( tblNo == 1214 ) {
; 1209 : 		tblNo = 331 ;
; 1210 : 	}else if ( tblNo == 1217 ) {
; 1211 : 		tblNo = 328 ; 
; 1212 : 	}else if ( tblNo > 1361){
; 1213 : 		tblNo -= 952;
; 1214 : 	}else if( tblNo > 1356){
; 1215 : 		tblNo -= 999;
; 1216 : 	}else if( tblNo > 1281){
; 1217 : 		tblNo -= 919;
; 1218 : 	}else if( tblNo > 1239){
; 1219 : 		tblNo -= 889;
; 1220 : 	}else if( tblNo > 1186 ){
; 1221 : 		tblNo -= 886;
; 1222 : 	}else if( tblNo > 1173 ){
; 1223 : 		tblNo -= 877;
; 1224 : 	}else if( tblNo > 1172){
; 1225 : 		tblNo -= 877;
; 1226 : 	}else if( tblNo > 1161){
; 1227 : 		tblNo -= 868;
; 1228 : 	}else if( tblNo > 930){
; 1229 : 		tblNo -= 745;
; 1230 : 	}else if( tblNo == 927){
; 1231 : 		tblNo -= 634;
; 1232 : 	}else if( tblNo > 929){
; 1233 : 		tblNo -= 644;
; 1234 : 	}else if( tblNo > 927){
; 1235 : 		tblNo -= 643;
; 1236 : 	}else if( tblNo > 900){
; 1237 : 		tblNo -= 621;
; 1238 : 	}else if( tblNo > 180){
; 1239 : 		tblNo -= (333+56);
; 1240 : 	}
; 1241 : #elif defined(__ALBUM_33)
; 1242 : 	if (tblNo > 1635 ){
; 1243 : 		tblNo -= 1148;
; 1244 : 	}else if ( tblNo > 1634 ){	//çŒ«å¥³1 çŒ«å¥³2 éº’éºŸ
; 1245 : 		tblNo -= 1149;
; 1246 : 	}else if ( tblNo > 1628 ){	//ç«èš1 ç«èš2 ç‰›äºº1 ç‰›äºº2
; 1247 : 		tblNo -= 1147;
; 1248 : 	}else if( tblNo > 1615 ){//å¸ƒé‡Œè¨å°” èœœèœ‚1 èœœèœ‚2 è´è¶1 è´è¶2 æš—é»‘ä¹ŒåŠ›çŽ‹ ç‹®äºº1 ç‹®äºº2 ç°äººç†” ç™½ç‹¼ å¸ƒä¼Šé…·
; 1249 : 		tblNo -= 1145;
; 1250 : 	}else if( tblNo > 1568 ){//æœºäººé¾™
; 1251 : 		tblNo -= 1103;
; 1252 : 	}else if( tblNo > 1564 ){//é»„è‰²é£žé¾™
; 1253 : 		tblNo -= 1101;
; 1254 : 	}else if( tblNo > 1516 ){
; 1255 : 		tblNo -= 1055;
; 1256 : 	}else if ( tblNo == 1516 ){//ä¿®æ­£ä¹ŒåŠ›çŽ‹
; 1257 : 		tblNo = 455 ;
; 1258 : 	}else if ( tblNo > 1509 ){
; 1259 : 		tblNo -= 1054;
; 1260 : 	}else if ( tblNo == 1497 ){
; 1261 : 		tblNo = 395;
; 1262 : 	}else if ( tblNo > 1495 ){
; 1263 : 		tblNo -= 1044 ;
; 1264 : 	}else if ( tblNo > 1490 ){
; 1265 : 		tblNo -= 1043 ;
; 1266 : 	}else if ( tblNo > 1485 ){
; 1267 : 		tblNo -= 1040 ; 
; 1268 : 	}else if ( tblNo > 1454 ) {
; 1269 : 		tblNo -= 1034 ; 
; 1270 : 	}else if ( tblNo == 1214 ) {
; 1271 : 		tblNo = 331 ;
; 1272 : 	}else if ( tblNo == 1217 ) {
; 1273 : 		tblNo = 328 ; 
; 1274 : 	}else if ( tblNo > 1361){
; 1275 : 		tblNo -= 952;
; 1276 : 	}else if( tblNo > 1356){
; 1277 : 		tblNo -= 999;
; 1278 : 	}else if( tblNo > 1281){
; 1279 : 		tblNo -= 919;
; 1280 : 	}else if( tblNo > 1239){
; 1281 : 		tblNo -= 889;
; 1282 : 	}else if( tblNo > 1186 ){
; 1283 : 		tblNo -= 886;
; 1284 : 	}else if( tblNo > 1173 ){
; 1285 : 		tblNo -= 877;
; 1286 : 	}else if( tblNo > 1172){
; 1287 : 		tblNo -= 877;
; 1288 : 	}else if( tblNo > 1161){
; 1289 : 		tblNo -= 868;
; 1290 : 	}else if( tblNo > 930){
; 1291 : 		tblNo -= 745;
; 1292 : 	}else if( tblNo == 927){
; 1293 : 		tblNo -= 634;
; 1294 : 	}else if( tblNo > 929){
; 1295 : 		tblNo -= 644;
; 1296 : 	}else if( tblNo > 927){
; 1297 : 		tblNo -= 643;
; 1298 : 	}else if( tblNo > 900){
; 1299 : 		tblNo -= 621;
; 1300 : 	}else if( tblNo > 180){
; 1301 : 		tblNo -= (333+56);
; 1302 : 	}
; 1303 : #elif defined(__ALBUM_32)
; 1304 : 	if ( tblNo > 1634 ){	//çŒ«å¥³1 çŒ«å¥³2
; 1305 : 		tblNo -= 1149;
; 1306 : 	}else if ( tblNo > 1628 ){	//ç«èš1 ç«èš2 ç‰›äºº1 ç‰›äºº2
; 1307 : 		tblNo -= 1147;
; 1308 : 	}else if( tblNo > 1615 ){//å¸ƒé‡Œè¨å°” èœœèœ‚1 èœœèœ‚2 è´è¶1 è´è¶2 æš—é»‘ä¹ŒåŠ›çŽ‹ ç‹®äºº1 ç‹®äºº2 ç°äººç†” ç™½ç‹¼ å¸ƒä¼Šé…·
; 1309 : 		tblNo -= 1145;
; 1310 : 	}else if( tblNo > 1568 ){//æœºäººé¾™
; 1311 : 		tblNo -= 1103;
; 1312 : 	}else if( tblNo > 1564 ){//é»„è‰²é£žé¾™
; 1313 : 		tblNo -= 1101;
; 1314 : 	}else if( tblNo > 1516 ){
; 1315 : 		tblNo -= 1055;
; 1316 : 	}else if ( tblNo == 1516 ){//ä¿®æ­£ä¹ŒåŠ›çŽ‹
; 1317 : 		tblNo = 455 ;
; 1318 : 	}else if ( tblNo > 1509 ){
; 1319 : 		tblNo -= 1054;
; 1320 : 	}else if ( tblNo == 1497 ){
; 1321 : 		tblNo = 395;
; 1322 : 	}else if ( tblNo > 1495 ){
; 1323 : 		tblNo -= 1044 ;
; 1324 : 	}else if ( tblNo > 1490 ){
; 1325 : 		tblNo -= 1043 ;
; 1326 : 	}else if ( tblNo > 1485 ){
; 1327 : 		tblNo -= 1040 ; 
; 1328 : 	}else if ( tblNo > 1454 ) {
; 1329 : 		tblNo -= 1034 ; 
; 1330 : 	}else if ( tblNo == 1214 ) {
; 1331 : 		tblNo = 331 ;
; 1332 : 	}else if ( tblNo == 1217 ) {
; 1333 : 		tblNo = 328 ; 
; 1334 : 	}else if ( tblNo > 1361){
; 1335 : 		tblNo -= 952;
; 1336 : 	}else if( tblNo > 1356){
; 1337 : 		tblNo -= 999;
; 1338 : 	}else if( tblNo > 1281){
; 1339 : 		tblNo -= 919;
; 1340 : 	}else if( tblNo > 1239){
; 1341 : 		tblNo -= 889;
; 1342 : 	}else if( tblNo > 1186 ){
; 1343 : 		tblNo -= 886;
; 1344 : 	}else if( tblNo > 1173 ){
; 1345 : 		tblNo -= 877;
; 1346 : 	}else if( tblNo > 1172){
; 1347 : 		tblNo -= 877;
; 1348 : 	}else if( tblNo > 1161){
; 1349 : 		tblNo -= 868;
; 1350 : 	}else if( tblNo > 930){
; 1351 : 		tblNo -= 745;
; 1352 : 	}else if( tblNo == 927){
; 1353 : 		tblNo -= 634;
; 1354 : 	}else if( tblNo > 929){
; 1355 : 		tblNo -= 644;
; 1356 : 	}else if( tblNo > 927){
; 1357 : 		tblNo -= 643;
; 1358 : 	}else if( tblNo > 900){
; 1359 : 		tblNo -= 621;
; 1360 : 	}else if( tblNo > 180){
; 1361 : 		tblNo -= (333+56);
; 1362 : 	}
; 1363 : #elif defined(__ALBUM_31)
; 1364 : 	if ( tblNo > 1628 ){	//ç«èš1 ç«èš2 ç‰›äºº1 ç‰›äºº2
; 1365 : 		tblNo -= 1147;
; 1366 : 	}else if( tblNo > 1615 ){//å¸ƒé‡Œè¨å°” èœœèœ‚1 èœœèœ‚2 è´è¶1 è´è¶2 æš—é»‘ä¹ŒåŠ›çŽ‹ ç‹®äºº1 ç‹®äºº2 ç°äººç†” ç™½ç‹¼ å¸ƒä¼Šé…·
; 1367 : 		tblNo -= 1145;
; 1368 : 	}else if( tblNo > 1568 ){//æœºäººé¾™
; 1369 : 		tblNo -= 1103;
; 1370 : 	}else if( tblNo > 1564 ){//é»„è‰²é£žé¾™
; 1371 : 		tblNo -= 1101;
; 1372 : 	}else if( tblNo > 1516 ){
; 1373 : 		tblNo -= 1055;
; 1374 : 	}else if ( tblNo == 1516 ){//ä¿®æ­£ä¹ŒåŠ›çŽ‹
; 1375 : 		tblNo = 455 ;
; 1376 : 	}else if ( tblNo > 1509 ){
; 1377 : 		tblNo -= 1054;
; 1378 : 	}else if ( tblNo == 1497 ){
; 1379 : 		tblNo = 395;
; 1380 : 	}else if ( tblNo > 1495 ){
; 1381 : 		tblNo -= 1044 ;
; 1382 : 	}else if ( tblNo > 1490 ){
; 1383 : 		tblNo -= 1043 ;
; 1384 : 	}else if ( tblNo > 1485 ){
; 1385 : 		tblNo -= 1040 ; 
; 1386 : 	}else if ( tblNo > 1454 ) {
; 1387 : 		tblNo -= 1034 ; 
; 1388 : 	}else if ( tblNo == 1214 ) {
; 1389 : 		tblNo = 331 ;
; 1390 : 	}else if ( tblNo == 1217 ) {
; 1391 : 		tblNo = 328 ; 
; 1392 : 	}else if ( tblNo > 1361){
; 1393 : 		tblNo -= 952;
; 1394 : 	}else if( tblNo > 1356){
; 1395 : 		tblNo -= 999;
; 1396 : 	}else if( tblNo > 1281){
; 1397 : 		tblNo -= 919;
; 1398 : 	}else if( tblNo > 1239){
; 1399 : 		tblNo -= 889;
; 1400 : 	}else if( tblNo > 1186 ){
; 1401 : 		tblNo -= 886;
; 1402 : 	}else if( tblNo > 1173 ){
; 1403 : 		tblNo -= 877;
; 1404 : 	}else if( tblNo > 1172){
; 1405 : 		tblNo -= 877;
; 1406 : 	}else if( tblNo > 1161){
; 1407 : 		tblNo -= 868;
; 1408 : 	}else if( tblNo > 930){
; 1409 : 		tblNo -= 745;
; 1410 : 	}else if( tblNo == 927){
; 1411 : 		tblNo -= 634;
; 1412 : 	}else if( tblNo > 929){
; 1413 : 		tblNo -= 644;
; 1414 : 	}else if( tblNo > 927){
; 1415 : 		tblNo -= 643;
; 1416 : 	}else if( tblNo > 900){
; 1417 : 		tblNo -= 621;
; 1418 : 	}else if( tblNo > 180){
; 1419 : 		tblNo -= (333+56);
; 1420 : 	}
; 1421 : #elif defined(__ALBUM_30)
; 1422 : 	if( tblNo > 1615 ){//å¸ƒé‡Œè¨å°” èœœèœ‚1 èœœèœ‚2 è´è¶1 è´è¶2 æš—é»‘ä¹ŒåŠ›çŽ‹ ç‹®äºº1 ç‹®äºº2 ç°äººç†” ç™½ç‹¼ å¸ƒä¼Šé…·
; 1423 : 		tblNo -= 1145;
; 1424 : 	}else if( tblNo > 1568 ){//æœºäººé¾™
; 1425 : 		tblNo -= 1103;
; 1426 : 	}else if( tblNo > 1564 ){//é»„è‰²é£žé¾™
; 1427 : 		tblNo -= 1101;
; 1428 : 	}else if( tblNo > 1516 ){
; 1429 : 		tblNo -= 1055;
; 1430 : 	}else if ( tblNo == 1516 ){//ä¿®æ­£ä¹ŒåŠ›çŽ‹
; 1431 : 		tblNo = 455 ;
; 1432 : 	}else if ( tblNo > 1509 ){
; 1433 : 		tblNo -= 1054;
; 1434 : 	}else if ( tblNo == 1497 ){
; 1435 : 		tblNo = 395;
; 1436 : 	}else if ( tblNo > 1495 ){
; 1437 : 		tblNo -= 1044 ;
; 1438 : 	}else if ( tblNo > 1490 ){
; 1439 : 		tblNo -= 1043 ;
; 1440 : 	}else if ( tblNo > 1485 ){
; 1441 : 		tblNo -= 1040 ; 
; 1442 : 	}else if ( tblNo > 1454 ) {
; 1443 : 		tblNo -= 1034 ; 
; 1444 : 	}else if ( tblNo == 1214 ) {
; 1445 : 		tblNo = 331 ;
; 1446 : 	}else if ( tblNo == 1217 ) {
; 1447 : 		tblNo = 328 ; 
; 1448 : 	}else if ( tblNo > 1361){
; 1449 : 		tblNo -= 952;
; 1450 : 	}else if( tblNo > 1356){
; 1451 : 		tblNo -= 999;
; 1452 : 	}else if( tblNo > 1281){
; 1453 : 		tblNo -= 919;
; 1454 : 	}else if( tblNo > 1239){
; 1455 : 		tblNo -= 889;
; 1456 : 	}else if( tblNo > 1186 ){
; 1457 : 		tblNo -= 886;
; 1458 : 	}else if( tblNo > 1173 ){
; 1459 : 		tblNo -= 877;
; 1460 : 	}else if( tblNo > 1172){
; 1461 : 		tblNo -= 877;
; 1462 : 	}else if( tblNo > 1161){
; 1463 : 		tblNo -= 868;
; 1464 : 	}else if( tblNo > 930){
; 1465 : 		tblNo -= 745;
; 1466 : 	}else if( tblNo == 927){
; 1467 : 		tblNo -= 634;
; 1468 : 	}else if( tblNo > 929){
; 1469 : 		tblNo -= 644;
; 1470 : 	}else if( tblNo > 927){
; 1471 : 		tblNo -= 643;
; 1472 : 	}else if( tblNo > 900){
; 1473 : 		tblNo -= 621;
; 1474 : 	}else if( tblNo > 180){
; 1475 : 		tblNo -= (333+56);
; 1476 : 	}
; 1477 : #elif defined(__ALBUM_29)
; 1478 : 	if( tblNo > 1615 ){//å¸ƒé‡Œè¨å°” èœœèœ‚1 èœœèœ‚2 è´è¶1 è´è¶2 æš—é»‘ä¹ŒåŠ›çŽ‹ ç‹®äºº1 ç‹®äºº2 ç°äººç†” ç™½ç‹¼
; 1479 : 		tblNo -= 1145;
; 1480 : 	}else if( tblNo > 1568 ){//æœºäººé¾™
; 1481 : 		tblNo -= 1103;
; 1482 : 	}else if( tblNo > 1564 ){//é»„è‰²é£žé¾™
; 1483 : 		tblNo -= 1101;
; 1484 : 	}else if( tblNo > 1516 ){
; 1485 : 		tblNo -= 1055;
; 1486 : 	}else if ( tblNo == 1516 ){//ä¿®æ­£ä¹ŒåŠ›çŽ‹
; 1487 : 		tblNo = 455 ;
; 1488 : 	}else if ( tblNo > 1509 ){
; 1489 : 		tblNo -= 1054;
; 1490 : 	}else if ( tblNo == 1497 ){
; 1491 : 		tblNo = 395;
; 1492 : 	}else if ( tblNo > 1495 ){
; 1493 : 		tblNo -= 1044 ;
; 1494 : 	}else if ( tblNo > 1490 ){
; 1495 : 		tblNo -= 1043 ;
; 1496 : 	}else if ( tblNo > 1485 ){
; 1497 : 		tblNo -= 1040 ; 
; 1498 : 	}else if ( tblNo > 1454 ) {
; 1499 : 		tblNo -= 1034 ; 
; 1500 : 	}else if ( tblNo == 1214 ) {
; 1501 : 		tblNo = 331 ;
; 1502 : 	}else if ( tblNo == 1217 ) {
; 1503 : 		tblNo = 328 ; 
; 1504 : 	}else if ( tblNo > 1361){
; 1505 : 		tblNo -= 952;
; 1506 : 	}else if( tblNo > 1356){
; 1507 : 		tblNo -= 999;
; 1508 : 	}else if( tblNo > 1281){
; 1509 : 		tblNo -= 919;
; 1510 : 	}else if( tblNo > 1239){
; 1511 : 		tblNo -= 889;
; 1512 : 	}else if( tblNo > 1186 ){
; 1513 : 		tblNo -= 886;
; 1514 : 	}else if( tblNo > 1173 ){
; 1515 : 		tblNo -= 877;
; 1516 : 	}else if( tblNo > 1172){
; 1517 : 		tblNo -= 877;
; 1518 : 	}else if( tblNo > 1161){
; 1519 : 		tblNo -= 868;
; 1520 : 	}else if( tblNo > 930){
; 1521 : 		tblNo -= 745;
; 1522 : 	}else if( tblNo == 927){
; 1523 : 		tblNo -= 634;
; 1524 : 	}else if( tblNo > 929){
; 1525 : 		tblNo -= 644;
; 1526 : 	}else if( tblNo > 927){
; 1527 : 		tblNo -= 643;
; 1528 : 	}else if( tblNo > 900){
; 1529 : 		tblNo -= 621;
; 1530 : 	}else if( tblNo > 180){
; 1531 : 		tblNo -= (333+56);
; 1532 : 	}
; 1533 : #elif defined(__ALBUM_28)
; 1534 : 	if( tblNo > 1615 ){//å¸ƒé‡Œè¨å°” èœœèœ‚1 èœœèœ‚2 è´è¶1 è´è¶2 æš—é»‘ä¹ŒåŠ›çŽ‹ ç‹®äºº1 ç‹®äºº2 ç°äººç†”
; 1535 : 		tblNo -= 1145;
; 1536 : 	}else if( tblNo > 1568 ){//æœºäººé¾™
; 1537 : 		tblNo -= 1103;
; 1538 : 	}else if( tblNo > 1564 ){//é»„è‰²é£žé¾™
; 1539 : 		tblNo -= 1101;
; 1540 : 	}else if( tblNo > 1516 ){
; 1541 : 		tblNo -= 1055;
; 1542 : 	}else if ( tblNo == 1516 ){//ä¿®æ­£ä¹ŒåŠ›çŽ‹
; 1543 : 		tblNo = 455 ;
; 1544 : 	}else if ( tblNo > 1509 ){
; 1545 : 		tblNo -= 1054;
; 1546 : 	}else if ( tblNo == 1497 ){
; 1547 : 		tblNo = 395;
; 1548 : 	}else if ( tblNo > 1495 ){
; 1549 : 		tblNo -= 1044 ;
; 1550 : 	}else if ( tblNo > 1490 ){
; 1551 : 		tblNo -= 1043 ;
; 1552 : 	}else if ( tblNo > 1485 ){
; 1553 : 		tblNo -= 1040 ; 
; 1554 : 	}else if ( tblNo > 1454 ) {
; 1555 : 		tblNo -= 1034 ; 
; 1556 : 	}else if ( tblNo == 1214 ) {
; 1557 : 		tblNo = 331 ;
; 1558 : 	}else if ( tblNo == 1217 ) {
; 1559 : 		tblNo = 328 ; 
; 1560 : 	}else if ( tblNo > 1361){
; 1561 : 		tblNo -= 952;
; 1562 : 	}else if( tblNo > 1356){
; 1563 : 		tblNo -= 999;
; 1564 : 	}else if( tblNo > 1281){
; 1565 : 		tblNo -= 919;
; 1566 : 	}else if( tblNo > 1239){
; 1567 : 		tblNo -= 889;
; 1568 : 	}else if( tblNo > 1186 ){
; 1569 : 		tblNo -= 886;
; 1570 : 	}else if( tblNo > 1173 ){
; 1571 : 		tblNo -= 877;
; 1572 : 	}else if( tblNo > 1172){
; 1573 : 		tblNo -= 877;
; 1574 : 	}else if( tblNo > 1161){
; 1575 : 		tblNo -= 868;
; 1576 : 	}else if( tblNo > 930){
; 1577 : 		tblNo -= 745;
; 1578 : 	}else if( tblNo == 927){
; 1579 : 		tblNo -= 634;
; 1580 : 	}else if( tblNo > 929){
; 1581 : 		tblNo -= 644;
; 1582 : 	}else if( tblNo > 927){
; 1583 : 		tblNo -= 643;
; 1584 : 	}else if( tblNo > 900){
; 1585 : 		tblNo -= 621;
; 1586 : 	}else if( tblNo > 180){
; 1587 : 		tblNo -= (333+56);
; 1588 : 	}
; 1589 : #elif defined(__ALBUM_27)
; 1590 : 	if( tblNo > 1615 ){//å¸ƒé‡Œè¨å°” èœœèœ‚1 èœœèœ‚2 è´è¶1 è´è¶2 æš—é»‘ä¹ŒåŠ›çŽ‹ ç‹®äºº1 ç‹®äºº2
; 1591 : 		tblNo -= 1145;
; 1592 : 	}else if( tblNo > 1568 ){//æœºäººé¾™
; 1593 : 		tblNo -= 1103;
; 1594 : 	}else if( tblNo > 1564 ){//é»„è‰²é£žé¾™
; 1595 : 		tblNo -= 1101;
; 1596 : 	}else if( tblNo > 1516 ){
; 1597 : 		tblNo -= 1055;
; 1598 : 	}else if ( tblNo == 1516 ){//ä¿®æ­£ä¹ŒåŠ›çŽ‹
; 1599 : 		tblNo = 455 ;
; 1600 : 	}else if ( tblNo > 1509 ){
; 1601 : 		tblNo -= 1054;
; 1602 : 	}else if ( tblNo == 1497 ){
; 1603 : 		tblNo = 395;
; 1604 : 	}else if ( tblNo > 1495 ){
; 1605 : 		tblNo -= 1044 ;
; 1606 : 	}else if ( tblNo > 1490 ){
; 1607 : 		tblNo -= 1043 ;
; 1608 : 	}else if ( tblNo > 1485 ){
; 1609 : 		tblNo -= 1040 ; 
; 1610 : 	}else if ( tblNo > 1454 ) {
; 1611 : 		tblNo -= 1034 ; 
; 1612 : 	}else if ( tblNo == 1214 ) {
; 1613 : 		tblNo = 331 ;
; 1614 : 	}else if ( tblNo == 1217 ) {
; 1615 : 		tblNo = 328 ; 
; 1616 : 	}else if ( tblNo > 1361){
; 1617 : 		tblNo -= 952;
; 1618 : 	}else if( tblNo > 1356){
; 1619 : 		tblNo -= 999;
; 1620 : 	}else if( tblNo > 1281){
; 1621 : 		tblNo -= 919;
; 1622 : 	}else if( tblNo > 1239){
; 1623 : 		tblNo -= 889;
; 1624 : 	}else if( tblNo > 1186 ){
; 1625 : 		tblNo -= 886;
; 1626 : 	}else if( tblNo > 1173 ){
; 1627 : 		tblNo -= 877;
; 1628 : 	}else if( tblNo > 1172){
; 1629 : 		tblNo -= 877;
; 1630 : 	}else if( tblNo > 1161){
; 1631 : 		tblNo -= 868;
; 1632 : 	}else if( tblNo > 930){
; 1633 : 		tblNo -= 745;
; 1634 : 	}else if( tblNo == 927){
; 1635 : 		tblNo -= 634;
; 1636 : 	}else if( tblNo > 929){
; 1637 : 		tblNo -= 644;
; 1638 : 	}else if( tblNo > 927){
; 1639 : 		tblNo -= 643;
; 1640 : 	}else if( tblNo > 900){
; 1641 : 		tblNo -= 621;
; 1642 : 	}else if( tblNo > 180){
; 1643 : 		tblNo -= (333+56);
; 1644 : 	}
; 1645 : 
; 1646 : #elif defined(__ALBUM_26)
; 1647 : 	if( tblNo > 1615 ){//å¸ƒé‡Œè¨å°” èœœèœ‚1 èœœèœ‚2 è´è¶1 è´è¶2 æš—é»‘ä¹ŒåŠ›çŽ‹
; 1648 : 		tblNo -= 1145;
; 1649 : 	}else if( tblNo > 1568 ){//æœºäººé¾™
; 1650 : 		tblNo -= 1103;
; 1651 : 	}else if( tblNo > 1564 ){//é»„è‰²é£žé¾™
; 1652 : 		tblNo -= 1101;
; 1653 : 	}else if( tblNo > 1516 ){
; 1654 : 		tblNo -= 1055;
; 1655 : 	}else if ( tblNo == 1516 ){//ä¿®æ­£ä¹ŒåŠ›çŽ‹
; 1656 : 		tblNo = 455 ;
; 1657 : 	}else if ( tblNo > 1509 ){
; 1658 : 		tblNo -= 1054;
; 1659 : 	}else if ( tblNo == 1497 ){
; 1660 : 		tblNo = 395;
; 1661 : 	}else if ( tblNo > 1495 ){
; 1662 : 		tblNo -= 1044 ;
; 1663 : 	}else if ( tblNo > 1490 ){
; 1664 : 		tblNo -= 1043 ;
; 1665 : 	}else if ( tblNo > 1485 ){
; 1666 : 		tblNo -= 1040 ; 
; 1667 : 	}else if ( tblNo > 1454 ) {
; 1668 : 		tblNo -= 1034 ; 
; 1669 : 	}else if ( tblNo == 1214 ) {
; 1670 : 		tblNo = 331 ;
; 1671 : 	}else if ( tblNo == 1217 ) {
; 1672 : 		tblNo = 328 ; 
; 1673 : 	}else if ( tblNo > 1361){
; 1674 : 		tblNo -= 952;
; 1675 : 	}else if( tblNo > 1356){
; 1676 : 		tblNo -= 999;
; 1677 : 	}else if( tblNo > 1281){
; 1678 : 		tblNo -= 919;
; 1679 : 	}else if( tblNo > 1239){
; 1680 : 		tblNo -= 889;
; 1681 : 	}else if( tblNo > 1186 ){
; 1682 : 		tblNo -= 886;
; 1683 : 	}else if( tblNo > 1173 ){
; 1684 : 		tblNo -= 877;
; 1685 : 	}else if( tblNo > 1172){
; 1686 : 		tblNo -= 877;
; 1687 : 	}else if( tblNo > 1161){
; 1688 : 		tblNo -= 868;
; 1689 : 	}else if( tblNo > 930){
; 1690 : 		tblNo -= 745;
; 1691 : 	}else if( tblNo == 927){
; 1692 : 		tblNo -= 634;
; 1693 : 	}else if( tblNo > 929){
; 1694 : 		tblNo -= 644;
; 1695 : 	}else if( tblNo > 927){
; 1696 : 		tblNo -= 643;
; 1697 : 	}else if( tblNo > 900){
; 1698 : 		tblNo -= 621;
; 1699 : 	}else if( tblNo > 180){
; 1700 : 		tblNo -= (333+56);
; 1701 : 	}
; 1702 : #elif defined(__ALBUM_25)
; 1703 : 	if( tblNo > 1615 ){//å¸ƒé‡Œè¨å°”
; 1704 : 		tblNo -= 1145;
; 1705 : 	}else if( tblNo > 1568 ){//æœºäººé¾™
; 1706 : 		tblNo -= 1103;
; 1707 : 	}else if( tblNo > 1564 ){//é»„è‰²é£žé¾™
; 1708 : 		tblNo -= 1101;
; 1709 : 	}else if( tblNo > 1516 ){
; 1710 : 		tblNo -= 1055;
; 1711 : 	}else if ( tblNo == 1516 ){//ä¿®æ­£ä¹ŒåŠ›çŽ‹
; 1712 : 		tblNo = 455 ;
; 1713 : 	}else if ( tblNo > 1509 ){
; 1714 : 		tblNo -= 1054;
; 1715 : 	}else if ( tblNo == 1497 ){
; 1716 : 		tblNo = 395;
; 1717 : 	}else if ( tblNo > 1495 ){
; 1718 : 		tblNo -= 1044 ;
; 1719 : 	}else if ( tblNo > 1490 ){
; 1720 : 		tblNo -= 1043 ;
; 1721 : 	}else if ( tblNo > 1485 ){
; 1722 : 		tblNo -= 1040 ; 
; 1723 : 	}else if ( tblNo > 1454 ) {
; 1724 : 		tblNo -= 1034 ; 
; 1725 : 	}else if ( tblNo == 1214 ) {
; 1726 : 		tblNo = 331 ;
; 1727 : 	}else if ( tblNo == 1217 ) {
; 1728 : 		tblNo = 328 ; 
; 1729 : 	}else if ( tblNo > 1361){
; 1730 : 		tblNo -= 952;
; 1731 : 	}else if( tblNo > 1356){
; 1732 : 		tblNo -= 999;
; 1733 : 	}else if( tblNo > 1281){
; 1734 : 		tblNo -= 919;
; 1735 : 	}else if( tblNo > 1239){
; 1736 : 		tblNo -= 889;
; 1737 : 	}else if( tblNo > 1186 ){
; 1738 : 		tblNo -= 886;
; 1739 : 	}else if( tblNo > 1173 ){
; 1740 : 		tblNo -= 877;
; 1741 : 	}else if( tblNo > 1172){
; 1742 : 		tblNo -= 877;
; 1743 : 	}else if( tblNo > 1161){
; 1744 : 		tblNo -= 868;
; 1745 : 	}else if( tblNo > 930){
; 1746 : 		tblNo -= 745;
; 1747 : 	}else if( tblNo == 927){
; 1748 : 		tblNo -= 634;
; 1749 : 	}else if( tblNo > 929){
; 1750 : 		tblNo -= 644;
; 1751 : 	}else if( tblNo > 927){
; 1752 : 		tblNo -= 643;
; 1753 : 	}else if( tblNo > 900){
; 1754 : 		tblNo -= 621;
; 1755 : 	}else if( tblNo > 180){
; 1756 : 		tblNo -= (333+56);
; 1757 : 	}
; 1758 : #elif defined(__ALBUM_24)
; 1759 : 	if( tblNo > 1568 ){//æœºäººé¾™
; 1760 : 		tblNo -= 1103;
; 1761 : 	}else if( tblNo > 1564 ){//é»„è‰²é£žé¾™
; 1762 : 		tblNo -= 1101;
; 1763 : 	}else if( tblNo > 1516 ){
; 1764 : 		tblNo -= 1055;
; 1765 : 	}else if ( tblNo == 1516 ){//ä¿®æ­£ä¹ŒåŠ›çŽ‹
; 1766 : 		tblNo = 455 ;
; 1767 : 	}else if ( tblNo > 1509 ){
; 1768 : 		tblNo -= 1054;
; 1769 : 	}else if ( tblNo == 1497 ){
; 1770 : 		tblNo = 395;
; 1771 : 	}else if ( tblNo > 1495 ){
; 1772 : 		tblNo -= 1044 ;
; 1773 : 	}else if ( tblNo > 1490 ){
; 1774 : 		tblNo -= 1043 ;
; 1775 : 	}else if ( tblNo > 1485 ){
; 1776 : 		tblNo -= 1040 ; 
; 1777 : 	}else if ( tblNo > 1454 ) {
; 1778 : 		tblNo -= 1034 ; 
; 1779 : 	}else if ( tblNo == 1214 ) {
; 1780 : 		tblNo = 331 ;
; 1781 : 	}else if ( tblNo == 1217 ) {
; 1782 : 		tblNo = 328 ; 
; 1783 : 	}else if ( tblNo > 1361){
; 1784 : 		tblNo -= 952;
; 1785 : 	}else if( tblNo > 1356){
; 1786 : 		tblNo -= 999;
; 1787 : 	}else if( tblNo > 1281){
; 1788 : 		tblNo -= 919;
; 1789 : 	}else if( tblNo > 1239){
; 1790 : 		tblNo -= 889;
; 1791 : 	}else if( tblNo > 1186 ){
; 1792 : 		tblNo -= 886;
; 1793 : 	}else if( tblNo > 1173 ){
; 1794 : 		tblNo -= 877;
; 1795 : 	}else if( tblNo > 1172){
; 1796 : 		tblNo -= 877;
; 1797 : 	}else if( tblNo > 1161){
; 1798 : 		tblNo -= 868;
; 1799 : 	}else if( tblNo > 930){
; 1800 : 		tblNo -= 745;
; 1801 : 	}else if( tblNo == 927){
; 1802 : 		tblNo -= 634;
; 1803 : 	}else if( tblNo > 929){
; 1804 : 		tblNo -= 644;
; 1805 : 	}else if( tblNo > 927){
; 1806 : 		tblNo -= 643;
; 1807 : 	}else if( tblNo > 900){
; 1808 : 		tblNo -= 621;
; 1809 : 	}else if( tblNo > 180){
; 1810 : 		tblNo -= (333+56);
; 1811 : 	}
; 1812 : #elif defined(__ALBUM_23)
; 1813 : 	if( tblNo > 1518 ){
; 1814 : 		tblNo -= 1057;
; 1815 : 	}else if( tblNo > 1516 ){
; 1816 : 		tblNo -= 1055;
; 1817 : 	}else if ( tblNo == 1516 ){//ä¿®æ­£ä¹ŒåŠ›çŽ‹
; 1818 : 		tblNo = 455 ;
; 1819 : 	}else if ( tblNo > 1509 ){
; 1820 : 		tblNo -= 1054;
; 1821 : 	}else if ( tblNo == 1497 ){
; 1822 : 		tblNo = 395;
; 1823 : 	}else if ( tblNo > 1495 ){
; 1824 : 		tblNo -= 1044 ;
; 1825 : 	}else if ( tblNo > 1490 ){
; 1826 : 		tblNo -= 1043 ;
; 1827 : 	}else if ( tblNo > 1485 ){
; 1828 : 		tblNo -= 1040 ; 
; 1829 : 	}else if ( tblNo > 1454 ) {
; 1830 : 		tblNo -= 1034 ; 
; 1831 : 	}else if ( tblNo == 1214 ) {
; 1832 : 		tblNo = 331 ;
; 1833 : 	}else if ( tblNo == 1217 ) {
; 1834 : 		tblNo = 328 ; 
; 1835 : 	}else if ( tblNo > 1361){
; 1836 : 		tblNo -= 952;
; 1837 : 	}else if( tblNo > 1356){
; 1838 : 		tblNo -= 999;
; 1839 : 	}else if( tblNo > 1281){
; 1840 : 		tblNo -= 919;
; 1841 : 	}else if( tblNo > 1239){
; 1842 : 		tblNo -= 889;
; 1843 : 	}else if( tblNo > 1186 ){
; 1844 : 		tblNo -= 886;
; 1845 : 	}else if( tblNo > 1173 ){
; 1846 : 		tblNo -= 877;
; 1847 : 	}else if( tblNo > 1172){
; 1848 : 		tblNo -= 877;
; 1849 : 	}else if( tblNo > 1161){
; 1850 : 		tblNo -= 868;
; 1851 : 	}else if( tblNo > 930){
; 1852 : 		tblNo -= 745;
; 1853 : 	}else if( tblNo == 927){
; 1854 : 		tblNo -= 634;
; 1855 : 	}else if( tblNo > 929){
; 1856 : 		tblNo -= 644;
; 1857 : 	}else if( tblNo > 927){
; 1858 : 		tblNo -= 643;
; 1859 : 	}else if( tblNo > 900){
; 1860 : 		tblNo -= 621;
; 1861 : 	}else if( tblNo > 180){
; 1862 : 		tblNo -= (333+56);
; 1863 : 	}
; 1864 : #elif defined(__ALBUM_22)
; 1865 : 	if ( tblNo == 1516 ){//ä¿®æ­£ä¹ŒåŠ›çŽ‹
; 1866 : 		tblNo = 455 ;
; 1867 : 	}else if ( tblNo > 1509 ){
; 1868 : 		tblNo -= 1054;
; 1869 : 	}else if ( tblNo == 1497 ){
; 1870 : 		tblNo = 395;
; 1871 : 	}else if ( tblNo > 1495 ){
; 1872 : 		tblNo -= 1044 ;
; 1873 : 	}else if ( tblNo > 1490 ){
; 1874 : 		tblNo -= 1043 ;
; 1875 : 	}else if ( tblNo > 1485 ){
; 1876 : 		tblNo -= 1040 ; 
; 1877 : 	}else if ( tblNo > 1454 ) {
; 1878 : 		tblNo -= 1034 ; 
; 1879 : 	}else if ( tblNo == 1214 ) {
; 1880 : 		tblNo = 331 ;
; 1881 : 	}else if ( tblNo == 1217 ) {
; 1882 : 		tblNo = 328 ; 
; 1883 : 	}else if ( tblNo > 1361){
; 1884 : 		tblNo -= 952;
; 1885 : 	}else if( tblNo > 1356){
; 1886 : 		tblNo -= 999;
; 1887 : 	}else if( tblNo > 1281){
; 1888 : 		tblNo -= 919;
; 1889 : 	}else if( tblNo > 1239){
; 1890 : 		tblNo -= 889;
; 1891 : 	}else if( tblNo > 1186 ){
; 1892 : 		tblNo -= 886;
; 1893 : 	}else if( tblNo > 1173 ){
; 1894 : 		tblNo -= 877;
; 1895 : 	}else if( tblNo > 1172){
; 1896 : 		tblNo -= 877;
; 1897 : 	}else if( tblNo > 1161){
; 1898 : 		tblNo -= 868;
; 1899 : 	}else if( tblNo > 930){
; 1900 : 		tblNo -= 745;
; 1901 : 	}else if( tblNo == 927){
; 1902 : 		tblNo -= 634;
; 1903 : 	}else if( tblNo > 929){
; 1904 : 		tblNo -= 644;
; 1905 : 	}else if( tblNo > 927){
; 1906 : 		tblNo -= 643;
; 1907 : 	}else if( tblNo > 900){
; 1908 : 		tblNo -= 621;
; 1909 : 	}else if( tblNo > 180){
; 1910 : 		tblNo -= (333+56);
; 1911 : 	}				
; 1912 : #elif defined(__ALBUM_21)
; 1913 : 	if ( tblNo > 1509 ){
; 1914 : 		tblNo -= 1054;
; 1915 : 	}else if ( tblNo == 1497 ){
; 1916 : 		tblNo = 395;
; 1917 : 	}else if ( tblNo > 1495 ){
; 1918 : 		tblNo -= 1044 ;
; 1919 : 	}else if ( tblNo > 1490 ){
; 1920 : 		tblNo -= 1043 ;
; 1921 : 	}else if ( tblNo > 1485 ){
; 1922 : 		tblNo -= 1040 ; 
; 1923 : 	}else if ( tblNo > 1454 ) {
; 1924 : 		tblNo -= 1034 ; 
; 1925 : 	}else if ( tblNo == 1214 ) {
; 1926 : 		tblNo = 331 ;
; 1927 : 	}else if ( tblNo == 1217 ) {
; 1928 : 		tblNo = 328 ; 
; 1929 : 	}else if ( tblNo > 1361){
; 1930 : 		tblNo -= 952;
; 1931 : 	}else if( tblNo > 1356){
; 1932 : 		tblNo -= 999;
; 1933 : 	}else if( tblNo > 1281){
; 1934 : 		tblNo -= 919;
; 1935 : 	}else if( tblNo > 1239){
; 1936 : 		tblNo -= 889;
; 1937 : 	}else if( tblNo > 1186 ){
; 1938 : 		tblNo -= 886;
; 1939 : 	}else if( tblNo > 1173 ){
; 1940 : 		tblNo -= 877;
; 1941 : 	}else if( tblNo > 1172){
; 1942 : 		tblNo -= 877;
; 1943 : 	}else if( tblNo > 1161){
; 1944 : 		tblNo -= 868;
; 1945 : 	}else if( tblNo > 930){
; 1946 : 		tblNo -= 745;
; 1947 : 	}else if( tblNo == 927){
; 1948 : 		tblNo -= 634;
; 1949 : 	}else if( tblNo > 929){
; 1950 : 		tblNo -= 644;
; 1951 : 	}else if( tblNo > 927){
; 1952 : 		tblNo -= 643;
; 1953 : 	}else if( tblNo > 900){
; 1954 : 		tblNo -= 621;
; 1955 : 	}else if( tblNo > 180){
; 1956 : 		tblNo -= (333+56);
; 1957 : 	}						
; 1958 : #elif defined(__ALBUM_20)
; 1959 : 	if ( tblNo == 1497 ){
; 1960 : 		tblNo = 395;
; 1961 : 	}else if ( tblNo > 1495 ){
; 1962 : 		tblNo -= 1044 ;
; 1963 : 	}else if ( tblNo > 1490 ){
; 1964 : 		tblNo -= 1043 ;
; 1965 : 	}else if ( tblNo > 1485 ){
; 1966 : 		tblNo -= 1040 ; 
; 1967 : 	}else if ( tblNo > 1454 ) {
; 1968 : 		tblNo -= 1034 ; 
; 1969 : 	}else if ( tblNo == 1214 ) {
; 1970 : 		tblNo = 331 ;
; 1971 : 	}else if ( tblNo == 1217 ) {
; 1972 : 		tblNo = 328 ; 
; 1973 : 	}else if ( tblNo > 1361){
; 1974 : 		tblNo -= 952;
; 1975 : 	}else if( tblNo > 1356){
; 1976 : 		tblNo -= 999;
; 1977 : 	}else if( tblNo > 1281){
; 1978 : 		tblNo -= 919;
; 1979 : 	}else if( tblNo > 1239){
; 1980 : 		tblNo -= 889;
; 1981 : 	}else if( tblNo > 1186 ){
; 1982 : 		tblNo -= 886;
; 1983 : 	}else if( tblNo > 1173 ){
; 1984 : 		tblNo -= 877;
; 1985 : 	}else if( tblNo > 1172){
; 1986 : 		tblNo -= 877;
; 1987 : 	}else if( tblNo > 1161){
; 1988 : 		tblNo -= 868;
; 1989 : 	}else if( tblNo > 930){
; 1990 : 		tblNo -= 745;
; 1991 : 	}else if( tblNo == 927){
; 1992 : 		tblNo -= 634;
; 1993 : 	}else if( tblNo > 929){
; 1994 : 		tblNo -= 644;
; 1995 : 	}else if( tblNo > 927){
; 1996 : 		tblNo -= 643;
; 1997 : 	}else if( tblNo > 900){
; 1998 : 		tblNo -= 621;
; 1999 : 	}else if( tblNo > 180){
; 2000 : 		tblNo -= (333+56);
; 2001 : 	}						
; 2002 : #elif defined(__ALBUM_19)
; 2003 : 	if ( tblNo > 1485 ) {
; 2004 : 		tblNo -= 1040 ; 
; 2005 : 	}else if ( tblNo > 1454 ) {
; 2006 : 		tblNo -= 1034 ; 
; 2007 : 	}else if ( tblNo == 1214 ) {
; 2008 : 		tblNo = 331 ;
; 2009 : 	}else if ( tblNo == 1217 ) {
; 2010 : 		tblNo = 328 ; 
; 2011 : 	}else if ( tblNo > 1361){
; 2012 : 		tblNo -= 952;
; 2013 : 	}else if( tblNo > 1356){
; 2014 : 		tblNo -= 999;
; 2015 : 	}else if( tblNo > 1281){
; 2016 : 		tblNo -= 919;
; 2017 : 	}else if( tblNo > 1239){
; 2018 : 		tblNo -= 889;
; 2019 : 	}else if( tblNo > 1186 ){
; 2020 : 		tblNo -= 886;
; 2021 : 	}else if( tblNo > 1173 ){
; 2022 : 		tblNo -= 877;
; 2023 : 	}else if( tblNo > 1172){
; 2024 : 		tblNo -= 877;
; 2025 : 	}else if( tblNo > 1161){
; 2026 : 		tblNo -= 868;
; 2027 : 	}else if( tblNo > 930){
; 2028 : 		tblNo -= 745;
; 2029 : 	}else if( tblNo == 927){
; 2030 : 		tblNo -= 634;
; 2031 : 	}else if( tblNo > 929){
; 2032 : 		tblNo -= 644;
; 2033 : 	}else if( tblNo > 927){
; 2034 : 		tblNo -= 643;
; 2035 : 	}else if( tblNo > 900){
; 2036 : 		tblNo -= 621;
; 2037 : 	}else if( tblNo > 180){
; 2038 : 		tblNo -= (333+56);
; 2039 : 	}
; 2040 : #elif defined(__ALBUM_18)
; 2041 : 	if ( tblNo > 1490 ){
; 2042 : 		tblNo -= 1044;
; 2043 : 	}else if ( tblNo > 1485 ) {
; 2044 : 		tblNo -= 1040 ; 
; 2045 : 	}else if ( tblNo > 1454 ) {
; 2046 : 		tblNo -= 1034 ; 
; 2047 : 	}else if ( tblNo == 1214 ) {
; 2048 : 		tblNo = 331 ;
; 2049 : 	}else if ( tblNo == 1217 ) {
; 2050 : 		tblNo = 328 ; 
; 2051 : 	}else if ( tblNo > 1361){
; 2052 : 		tblNo -= 952;
; 2053 : 	}else if( tblNo > 1356){
; 2054 : 		tblNo -= 999;
; 2055 : 	}else if( tblNo > 1281){
; 2056 : 		tblNo -= 919;
; 2057 : 	}else if( tblNo > 1239){
; 2058 : 		tblNo -= 889;
; 2059 : 	}else if( tblNo > 1186 ){
; 2060 : 		tblNo -= 886;
; 2061 : 	}else if( tblNo > 1173 ){
; 2062 : 		tblNo -= 877;
; 2063 : 	}else if( tblNo > 1172){
; 2064 : 		tblNo -= 877;
; 2065 : 	}else if( tblNo > 1161){
; 2066 : 		tblNo -= 868;
; 2067 : 	}else if( tblNo > 930){
; 2068 : 		tblNo -= 745;
; 2069 : 	}else if( tblNo == 927){
; 2070 : 		tblNo -= 634;
; 2071 : 	}else if( tblNo > 929){
; 2072 : 		tblNo -= 644;
; 2073 : 	}else if( tblNo > 927){
; 2074 : 		tblNo -= 643;
; 2075 : 	}else if( tblNo > 900){
; 2076 : 		tblNo -= 621;
; 2077 : 	}else if( tblNo > 180){
; 2078 : 		tblNo -= (333+56);
; 2079 : 	}
; 2080 : #elif defined(__ALBUM_17)
; 2081 : 	if ( tblNo > 1454 ) {
; 2082 : 		tblNo -= 1034 ; 
; 2083 : 	}else if ( tblNo == 1214 ) {
; 2084 : 		tblNo = 331 ;
; 2085 : 	}else if ( tblNo == 1217 ) {
; 2086 : 		tblNo = 328 ; 
; 2087 : 	}else if ( tblNo > 1361){
; 2088 : 		tblNo -= 952;
; 2089 : 	}else if( tblNo > 1356){
; 2090 : 		tblNo -= 999;
; 2091 : 	}else if( tblNo > 1281){
; 2092 : 		tblNo -= 919;
; 2093 : 	}else if( tblNo > 1239){
; 2094 : 		tblNo -= 889;
; 2095 : 	}else if( tblNo > 1186 ){
; 2096 : 		tblNo -= 886;
; 2097 : 	}else if( tblNo > 1173 ){
; 2098 : 		tblNo -= 877;
; 2099 : 	}else if( tblNo > 1172){
; 2100 : 		tblNo -= 877;
; 2101 : 	}else if( tblNo > 1161){
; 2102 : 		tblNo -= 868;
; 2103 : 	}else if( tblNo > 930){
; 2104 : 		tblNo -= 745;
; 2105 : 	}else if( tblNo == 927){
; 2106 : 		tblNo -= 634;
; 2107 : 	}else if( tblNo > 929){
; 2108 : 		tblNo -= 644;
; 2109 : 	}else if( tblNo > 927){
; 2110 : 		tblNo -= 643;
; 2111 : 	}else if( tblNo > 900){
; 2112 : 		tblNo -= 621;
; 2113 : 	}else if( tblNo > 180){
; 2114 : 		tblNo -= (333+56);
; 2115 : 	}
; 2116 : #elif defined(__ALBUM_16)
; 2117 : 	if ( tblNo == 1214 ) {
; 2118 : 		tblNo = 331 ;
; 2119 : 	}else if ( tblNo == 1217 ) {
; 2120 : 		tblNo = 328 ; 
; 2121 : 	}else if ( tblNo > 1361){
; 2122 : 		tblNo -= 952;
; 2123 : 	}else if( tblNo > 1356){
; 2124 : 		tblNo -= 999;
; 2125 : 	}else if( tblNo > 1281){
; 2126 : 		tblNo -= 919;
; 2127 : 	}else if( tblNo > 1239){
; 2128 : 		tblNo -= 889;
; 2129 : 	}else if( tblNo > 1186 ){
; 2130 : 		tblNo -= 886;
; 2131 : 	}else if( tblNo > 1173 ){
; 2132 : 		tblNo -= 877;
; 2133 : 	}else if( tblNo > 1172){
; 2134 : 		tblNo -= 877;
; 2135 : 	}else if( tblNo > 1161){
; 2136 : 		tblNo -= 868;
; 2137 : 	}else if( tblNo > 930){
; 2138 : 		tblNo -= 745;
; 2139 : 	}else if( tblNo == 927){
; 2140 : 		tblNo -= 634;
; 2141 : 	}else if( tblNo > 929){
; 2142 : 		tblNo -= 644;
; 2143 : 	}else if( tblNo > 927){
; 2144 : 		tblNo -= 643;
; 2145 : 	}else if( tblNo > 900){
; 2146 : 		tblNo -= 621;
; 2147 : 	}else if( tblNo > 180){
; 2148 : 		tblNo -= (333+56);
; 2149 : 	}
; 2150 : #elif defined(__ALBUM_15)
; 2151 : 	if ( tblNo == 1214 ) {
; 2152 : 		tblNo = 331 ;
; 2153 : 	}else if ( tblNo == 1217 ) {
; 2154 : 		tblNo = 328 ; 
; 2155 : 	}else if ( tblNo > 1361){
; 2156 : 		tblNo -= 952;
; 2157 : 	}else if( tblNo > 1356){
; 2158 : 		tblNo -= 999;
; 2159 : 	}else if( tblNo > 1281){
; 2160 : 		tblNo -= 919;
; 2161 : 	}else if( tblNo > 1239){
; 2162 : 		tblNo -= 889;
; 2163 : 	}else if( tblNo > 1186 ){
; 2164 : 		tblNo -= 886;
; 2165 : 	}else if( tblNo > 1173 ){
; 2166 : 		tblNo -= 877;
; 2167 : 	}else if( tblNo > 1172){
; 2168 : 		tblNo -= 877;
; 2169 : 	}else if( tblNo > 1161){
; 2170 : 		tblNo -= 868;
; 2171 : 	}else if( tblNo > 930){
; 2172 : 		tblNo -= 745;
; 2173 : 	}else if( tblNo == 927){
; 2174 : 		tblNo -= 634;
; 2175 : 	}else if( tblNo > 929){
; 2176 : 		tblNo -= 644;
; 2177 : 	}else if( tblNo > 927){
; 2178 : 		tblNo -= 643;
; 2179 : 	}else if( tblNo > 900){
; 2180 : 		tblNo -= 621;
; 2181 : 	}else if( tblNo > 180){
; 2182 : 		tblNo -= (333+56);
; 2183 : 	}
; 2184 : #endif
; 2185 : 	return tblNo;
; 2186 : }

  00025	5d		 pop	 ebp
  00026	c3		 ret	 0
$LN4@GetPettblN:

; 265  : 	}else if (tblNo > 1739 ){			//é£žè›‡

  00027	3d cb 06 00 00	 cmp	 eax, 1739		; 000006cbH
  0002c	7e 07		 jle	 SHORT $LN6@GetPettblN

; 266  : 		tblNo -= 1200;

  0002e	2d b0 04 00 00	 sub	 eax, 1200		; 000004b0H

; 331  : 	}
; 332  : #elif defined(__ALBUM_46)
; 333  : 	if( tblNo > 1800 ){					//å°æ¶é­”
; 334  : 		tblNo -= 1208;
; 335  : 	}else if( tblNo > 1755 ){					//é—´éš”å—ç“œé­”çŽ‹åŽçš„ ç‹çŒ´
; 336  : 		tblNo -= 1201 ;
; 337  : 	}else if (tblNo > 1739 ){			//é£žè›‡
; 338  : 		tblNo -= 1200;
; 339  : 	}else if (tblNo > 1686 ){			//8.0å® ç‰©
; 340  : 		tblNo -= 1175;
; 341  : 	}else if (tblNo > 1641 ){			//é¸¡å¹´å…½4 ç”²è™«2	8.0ç¬¬ä¸€æ¬¡æ•´åˆæµ‹è¯•
; 342  : 		tblNo -= 1167;
; 343  : 	}else if (tblNo > 1635 ){   //éº’éºŸ
; 344  : 		tblNo -= 1148;
; 345  : 	}else if ( tblNo > 1634 ){	//çŒ«å¥³1 çŒ«å¥³2
; 346  : 		tblNo -= 1149;
; 347  : 	}else if ( tblNo > 1628 ){	//ç«èš1 ç«èš2 ç‰›äºº1 ç‰›äºº2
; 348  : 		tblNo -= 1147;
; 349  : 	}else if( tblNo > 1615 ){//å¸ƒé‡Œè¨å°” èœœèœ‚1 èœœèœ‚2 è´è¶1 è´è¶2 æš—é»‘ä¹ŒåŠ›çŽ‹ ç‹®äºº1 ç‹®äºº2 ç°äººç†” ç™½ç‹¼ å¸ƒä¼Šé…·
; 350  : 		tblNo -= 1145;
; 351  : 	}else if( tblNo > 1568 ){//æœºäººé¾™
; 352  : 		tblNo -= 1103;
; 353  : 	}else if( tblNo > 1564 ){//é»„è‰²é£žé¾™
; 354  : 		tblNo -= 1101;
; 355  : 	}else if( tblNo > 1516 ){
; 356  : 		tblNo -= 1055;
; 357  : 	}else if ( tblNo == 1516 ){//ä¿®æ­£ä¹ŒåŠ›çŽ‹
; 358  : 		tblNo = 455 ;
; 359  : 	}else if ( tblNo > 1509 ){
; 360  : 		tblNo -= 1054;
; 361  : 	}else if ( tblNo == 1497 ){
; 362  : 		tblNo = 395;
; 363  : 	}else if ( tblNo > 1495 ){
; 364  : 		tblNo -= 1044 ;
; 365  : 	}else if ( tblNo > 1490 ){
; 366  : 		tblNo -= 1043 ;
; 367  : 	}else if ( tblNo > 1485 ){
; 368  : 		tblNo -= 1040 ; 
; 369  : 	}else if ( tblNo > 1454 ) {
; 370  : 		tblNo -= 1034 ; 
; 371  : 	}else if ( tblNo == 1214 ) {
; 372  : 		tblNo = 331 ;
; 373  : 	}else if ( tblNo == 1217 ) {
; 374  : 		tblNo = 328 ; 
; 375  : 	}else if ( tblNo > 1361){
; 376  : 		tblNo -= 952;
; 377  : 	}else if( tblNo > 1356){
; 378  : 		tblNo -= 999;
; 379  : 	}else if( tblNo > 1281){
; 380  : 		tblNo -= 919;
; 381  : 	}else if( tblNo > 1239){
; 382  : 		tblNo -= 889;
; 383  : 	}else if( tblNo > 1186 ){
; 384  : 		tblNo -= 886;
; 385  : 	}else if( tblNo > 1173 ){
; 386  : 		tblNo -= 877;
; 387  : 	}else if( tblNo > 1172){
; 388  : 		tblNo -= 877;
; 389  : 	}else if( tblNo > 1161){
; 390  : 		tblNo -= 868;
; 391  : 	}else if( tblNo > 930){
; 392  : 		tblNo -= 745;
; 393  : 	}else if( tblNo == 927){
; 394  : 		tblNo -= 634;
; 395  : 	}else if( tblNo > 929){
; 396  : 		tblNo -= 644;
; 397  : 	}else if( tblNo > 927){
; 398  : 		tblNo -= 643;
; 399  : 	}else if( tblNo > 900){
; 400  : 		tblNo -= 621;
; 401  : 	}else if( tblNo > 180){
; 402  : 		tblNo -= (333+56);
; 403  : 	}
; 404  : #elif defined(__ALBUM_45)
; 405  : 	if( tblNo > 1800 ){					//å°æ¶é­”
; 406  : 		tblNo -= 1208;
; 407  : 	}else if( tblNo > 1755 ){					//é—´éš”å—ç“œé­”çŽ‹åŽçš„ ç‹çŒ´
; 408  : 		tblNo -= 1201 ;
; 409  : 	}else if (tblNo > 1739 ){			//é£žè›‡
; 410  : 		tblNo -= 1200;
; 411  : 	}else if (tblNo > 1686 ){			//8.0å® ç‰©
; 412  : 		tblNo -= 1175;
; 413  : 	}else if (tblNo > 1641 ){			//é¸¡å¹´å…½4 ç”²è™«2	8.0ç¬¬ä¸€æ¬¡æ•´åˆæµ‹è¯•
; 414  : 		tblNo -= 1167;
; 415  : 	}else if (tblNo > 1635 ){   //éº’éºŸ
; 416  : 		tblNo -= 1148;
; 417  : 	}else if ( tblNo > 1634 ){	//çŒ«å¥³1 çŒ«å¥³2
; 418  : 		tblNo -= 1149;
; 419  : 	}else if ( tblNo > 1628 ){	//ç«èš1 ç«èš2 ç‰›äºº1 ç‰›äºº2
; 420  : 		tblNo -= 1147;
; 421  : 	}else if( tblNo > 1615 ){//å¸ƒé‡Œè¨å°” èœœèœ‚1 èœœèœ‚2 è´è¶1 è´è¶2 æš—é»‘ä¹ŒåŠ›çŽ‹ ç‹®äºº1 ç‹®äºº2 ç°äººç†” ç™½ç‹¼ å¸ƒä¼Šé…·
; 422  : 		tblNo -= 1145;
; 423  : 	}else if( tblNo > 1568 ){//æœºäººé¾™
; 424  : 		tblNo -= 1103;
; 425  : 	}else if( tblNo > 1564 ){//é»„è‰²é£žé¾™
; 426  : 		tblNo -= 1101;
; 427  : 	}else if( tblNo > 1516 ){
; 428  : 		tblNo -= 1055;
; 429  : 	}else if ( tblNo == 1516 ){//ä¿®æ­£ä¹ŒåŠ›çŽ‹
; 430  : 		tblNo = 455 ;
; 431  : 	}else if ( tblNo > 1509 ){
; 432  : 		tblNo -= 1054;
; 433  : 	}else if ( tblNo == 1497 ){
; 434  : 		tblNo = 395;
; 435  : 	}else if ( tblNo > 1495 ){
; 436  : 		tblNo -= 1044 ;
; 437  : 	}else if ( tblNo > 1490 ){
; 438  : 		tblNo -= 1043 ;
; 439  : 	}else if ( tblNo > 1485 ){
; 440  : 		tblNo -= 1040 ; 
; 441  : 	}else if ( tblNo > 1454 ) {
; 442  : 		tblNo -= 1034 ; 
; 443  : 	}else if ( tblNo == 1214 ) {
; 444  : 		tblNo = 331 ;
; 445  : 	}else if ( tblNo == 1217 ) {
; 446  : 		tblNo = 328 ; 
; 447  : 	}else if ( tblNo > 1361){
; 448  : 		tblNo -= 952;
; 449  : 	}else if( tblNo > 1356){
; 450  : 		tblNo -= 999;
; 451  : 	}else if( tblNo > 1281){
; 452  : 		tblNo -= 919;
; 453  : 	}else if( tblNo > 1239){
; 454  : 		tblNo -= 889;
; 455  : 	}else if( tblNo > 1186 ){
; 456  : 		tblNo -= 886;
; 457  : 	}else if( tblNo > 1173 ){
; 458  : 		tblNo -= 877;
; 459  : 	}else if( tblNo > 1172){
; 460  : 		tblNo -= 877;
; 461  : 	}else if( tblNo > 1161){
; 462  : 		tblNo -= 868;
; 463  : 	}else if( tblNo > 930){
; 464  : 		tblNo -= 745;
; 465  : 	}else if( tblNo == 927){
; 466  : 		tblNo -= 634;
; 467  : 	}else if( tblNo > 929){
; 468  : 		tblNo -= 644;
; 469  : 	}else if( tblNo > 927){
; 470  : 		tblNo -= 643;
; 471  : 	}else if( tblNo > 900){
; 472  : 		tblNo -= 621;
; 473  : 	}else if( tblNo > 180){
; 474  : 		tblNo -= (333+56);
; 475  : 	}
; 476  : #elif defined(__ALBUM_44)
; 477  : 	if( tblNo > 1800 ){					//å°æ¶é­”
; 478  : 		tblNo -= 1208;
; 479  : 	}else if( tblNo > 1755 ){					//é—´éš”å—ç“œé­”çŽ‹åŽçš„ ç‹çŒ´
; 480  : 		tblNo -= 1201 ;
; 481  : 	}else if (tblNo > 1739 ){			//é£žè›‡
; 482  : 		tblNo -= 1200;
; 483  : 	}else if (tblNo > 1686 ){			//8.0å® ç‰©
; 484  : 		tblNo -= 1175;
; 485  : 	}else if (tblNo > 1641 ){			//é¸¡å¹´å…½4 ç”²è™«2	8.0ç¬¬ä¸€æ¬¡æ•´åˆæµ‹è¯•
; 486  : 		tblNo -= 1167;
; 487  : 	}else if (tblNo > 1635 ){   //éº’éºŸ
; 488  : 		tblNo -= 1148;
; 489  : 	}else if ( tblNo > 1634 ){	//çŒ«å¥³1 çŒ«å¥³2
; 490  : 		tblNo -= 1149;
; 491  : 	}else if ( tblNo > 1628 ){	//ç«èš1 ç«èš2 ç‰›äºº1 ç‰›äºº2
; 492  : 		tblNo -= 1147;
; 493  : 	}else if( tblNo > 1615 ){//å¸ƒé‡Œè¨å°” èœœèœ‚1 èœœèœ‚2 è´è¶1 è´è¶2 æš—é»‘ä¹ŒåŠ›çŽ‹ ç‹®äºº1 ç‹®äºº2 ç°äººç†” ç™½ç‹¼ å¸ƒä¼Šé…·
; 494  : 		tblNo -= 1145;
; 495  : 	}else if( tblNo > 1568 ){//æœºäººé¾™
; 496  : 		tblNo -= 1103;
; 497  : 	}else if( tblNo > 1564 ){//é»„è‰²é£žé¾™
; 498  : 		tblNo -= 1101;
; 499  : 	}else if( tblNo > 1516 ){
; 500  : 		tblNo -= 1055;
; 501  : 	}else if ( tblNo == 1516 ){//ä¿®æ­£ä¹ŒåŠ›çŽ‹
; 502  : 		tblNo = 455 ;
; 503  : 	}else if ( tblNo > 1509 ){
; 504  : 		tblNo -= 1054;
; 505  : 	}else if ( tblNo == 1497 ){
; 506  : 		tblNo = 395;
; 507  : 	}else if ( tblNo > 1495 ){
; 508  : 		tblNo -= 1044 ;
; 509  : 	}else if ( tblNo > 1490 ){
; 510  : 		tblNo -= 1043 ;
; 511  : 	}else if ( tblNo > 1485 ){
; 512  : 		tblNo -= 1040 ; 
; 513  : 	}else if ( tblNo > 1454 ) {
; 514  : 		tblNo -= 1034 ; 
; 515  : 	}else if ( tblNo == 1214 ) {
; 516  : 		tblNo = 331 ;
; 517  : 	}else if ( tblNo == 1217 ) {
; 518  : 		tblNo = 328 ; 
; 519  : 	}else if ( tblNo > 1361){
; 520  : 		tblNo -= 952;
; 521  : 	}else if( tblNo > 1356){
; 522  : 		tblNo -= 999;
; 523  : 	}else if( tblNo > 1281){
; 524  : 		tblNo -= 919;
; 525  : 	}else if( tblNo > 1239){
; 526  : 		tblNo -= 889;
; 527  : 	}else if( tblNo > 1186 ){
; 528  : 		tblNo -= 886;
; 529  : 	}else if( tblNo > 1173 ){
; 530  : 		tblNo -= 877;
; 531  : 	}else if( tblNo > 1172){
; 532  : 		tblNo -= 877;
; 533  : 	}else if( tblNo > 1161){
; 534  : 		tblNo -= 868;
; 535  : 	}else if( tblNo > 930){
; 536  : 		tblNo -= 745;
; 537  : 	}else if( tblNo == 927){
; 538  : 		tblNo -= 634;
; 539  : 	}else if( tblNo > 929){
; 540  : 		tblNo -= 644;
; 541  : 	}else if( tblNo > 927){
; 542  : 		tblNo -= 643;
; 543  : 	}else if( tblNo > 900){
; 544  : 		tblNo -= 621;
; 545  : 	}else if( tblNo > 180){
; 546  : 		tblNo -= (333+56);
; 547  : 	}
; 548  : #elif defined(__ALBUM_43)
; 549  : 	if( tblNo > 1800 ){					//å°æ¶é­”
; 550  : 		tblNo -= 1208;
; 551  : 	}else if( tblNo > 1755 ){					//é—´éš”å—ç“œé­”çŽ‹åŽçš„ ç‹çŒ´
; 552  : 		tblNo -= 1201 ;
; 553  : 	}else if (tblNo > 1739 ){			//é£žè›‡
; 554  : 		tblNo -= 1200;
; 555  : 	}else if (tblNo > 1686 ){			//8.0å® ç‰©
; 556  : 		tblNo -= 1175;
; 557  : 	}else if (tblNo > 1641 ){			//é¸¡å¹´å…½4 ç”²è™«2	8.0ç¬¬ä¸€æ¬¡æ•´åˆæµ‹è¯•
; 558  : 		tblNo -= 1167;
; 559  : 	}else if (tblNo > 1635 ){   //éº’éºŸ
; 560  : 		tblNo -= 1148;
; 561  : 	}else if ( tblNo > 1634 ){	//çŒ«å¥³1 çŒ«å¥³2
; 562  : 		tblNo -= 1149;
; 563  : 	}else if ( tblNo > 1628 ){	//ç«èš1 ç«èš2 ç‰›äºº1 ç‰›äºº2
; 564  : 		tblNo -= 1147;
; 565  : 	}else if( tblNo > 1615 ){//å¸ƒé‡Œè¨å°” èœœèœ‚1 èœœèœ‚2 è´è¶1 è´è¶2 æš—é»‘ä¹ŒåŠ›çŽ‹ ç‹®äºº1 ç‹®äºº2 ç°äººç†” ç™½ç‹¼ å¸ƒä¼Šé…·
; 566  : 		tblNo -= 1145;
; 567  : 	}else if( tblNo > 1568 ){//æœºäººé¾™
; 568  : 		tblNo -= 1103;
; 569  : 	}else if( tblNo > 1564 ){//é»„è‰²é£žé¾™
; 570  : 		tblNo -= 1101;
; 571  : 	}else if( tblNo > 1516 ){
; 572  : 		tblNo -= 1055;
; 573  : 	}else if ( tblNo == 1516 ){//ä¿®æ­£ä¹ŒåŠ›çŽ‹
; 574  : 		tblNo = 455 ;
; 575  : 	}else if ( tblNo > 1509 ){
; 576  : 		tblNo -= 1054;
; 577  : 	}else if ( tblNo == 1497 ){
; 578  : 		tblNo = 395;
; 579  : 	}else if ( tblNo > 1495 ){
; 580  : 		tblNo -= 1044 ;
; 581  : 	}else if ( tblNo > 1490 ){
; 582  : 		tblNo -= 1043 ;
; 583  : 	}else if ( tblNo > 1485 ){
; 584  : 		tblNo -= 1040 ; 
; 585  : 	}else if ( tblNo > 1454 ) {
; 586  : 		tblNo -= 1034 ; 
; 587  : 	}else if ( tblNo == 1214 ) {
; 588  : 		tblNo = 331 ;
; 589  : 	}else if ( tblNo == 1217 ) {
; 590  : 		tblNo = 328 ; 
; 591  : 	}else if ( tblNo > 1361){
; 592  : 		tblNo -= 952;
; 593  : 	}else if( tblNo > 1356){
; 594  : 		tblNo -= 999;
; 595  : 	}else if( tblNo > 1281){
; 596  : 		tblNo -= 919;
; 597  : 	}else if( tblNo > 1239){
; 598  : 		tblNo -= 889;
; 599  : 	}else if( tblNo > 1186 ){
; 600  : 		tblNo -= 886;
; 601  : 	}else if( tblNo > 1173 ){
; 602  : 		tblNo -= 877;
; 603  : 	}else if( tblNo > 1172){
; 604  : 		tblNo -= 877;
; 605  : 	}else if( tblNo > 1161){
; 606  : 		tblNo -= 868;
; 607  : 	}else if( tblNo > 930){
; 608  : 		tblNo -= 745;
; 609  : 	}else if( tblNo == 927){
; 610  : 		tblNo -= 634;
; 611  : 	}else if( tblNo > 929){
; 612  : 		tblNo -= 644;
; 613  : 	}else if( tblNo > 927){
; 614  : 		tblNo -= 643;
; 615  : 	}else if( tblNo > 900){
; 616  : 		tblNo -= 621;
; 617  : 	}else if( tblNo > 180){
; 618  : 		tblNo -= (333+56);
; 619  : 	}
; 620  : #elif defined(__ALBUM_42)
; 621  : 	if( tblNo > 1800 ){					//å°æ¶é­”
; 622  : 		tblNo -= 1208;
; 623  : 	}else if( tblNo > 1755 ){					//é—´éš”å—ç“œé­”çŽ‹åŽçš„ ç‹çŒ´
; 624  : 		tblNo -= 1201 ;
; 625  : 	}else if (tblNo > 1739 ){			//é£žè›‡
; 626  : 		tblNo -= 1200;
; 627  : 	}else if (tblNo > 1686 ){			//8.0å® ç‰©
; 628  : 		tblNo -= 1175;
; 629  : 	}else if (tblNo > 1641 ){			//é¸¡å¹´å…½4 ç”²è™«2	8.0ç¬¬ä¸€æ¬¡æ•´åˆæµ‹è¯•
; 630  : 		tblNo -= 1167;
; 631  : 	}else if (tblNo > 1635 ){   //éº’éºŸ
; 632  : 		tblNo -= 1148;
; 633  : 	}else if ( tblNo > 1634 ){	//çŒ«å¥³1 çŒ«å¥³2
; 634  : 		tblNo -= 1149;
; 635  : 	}else if ( tblNo > 1628 ){	//ç«èš1 ç«èš2 ç‰›äºº1 ç‰›äºº2
; 636  : 		tblNo -= 1147;
; 637  : 	}else if( tblNo > 1615 ){//å¸ƒé‡Œè¨å°” èœœèœ‚1 èœœèœ‚2 è´è¶1 è´è¶2 æš—é»‘ä¹ŒåŠ›çŽ‹ ç‹®äºº1 ç‹®äºº2 ç°äººç†” ç™½ç‹¼ å¸ƒä¼Šé…·
; 638  : 		tblNo -= 1145;
; 639  : 	}else if( tblNo > 1568 ){//æœºäººé¾™
; 640  : 		tblNo -= 1103;
; 641  : 	}else if( tblNo > 1564 ){//é»„è‰²é£žé¾™
; 642  : 		tblNo -= 1101;
; 643  : 	}else if( tblNo > 1516 ){
; 644  : 		tblNo -= 1055;
; 645  : 	}else if ( tblNo == 1516 ){//ä¿®æ­£ä¹ŒåŠ›çŽ‹
; 646  : 		tblNo = 455 ;
; 647  : 	}else if ( tblNo > 1509 ){
; 648  : 		tblNo -= 1054;
; 649  : 	}else if ( tblNo == 1497 ){
; 650  : 		tblNo = 395;
; 651  : 	}else if ( tblNo > 1495 ){
; 652  : 		tblNo -= 1044 ;
; 653  : 	}else if ( tblNo > 1490 ){
; 654  : 		tblNo -= 1043 ;
; 655  : 	}else if ( tblNo > 1485 ){
; 656  : 		tblNo -= 1040 ; 
; 657  : 	}else if ( tblNo > 1454 ) {
; 658  : 		tblNo -= 1034 ; 
; 659  : 	}else if ( tblNo == 1214 ) {
; 660  : 		tblNo = 331 ;
; 661  : 	}else if ( tblNo == 1217 ) {
; 662  : 		tblNo = 328 ; 
; 663  : 	}else if ( tblNo > 1361){
; 664  : 		tblNo -= 952;
; 665  : 	}else if( tblNo > 1356){
; 666  : 		tblNo -= 999;
; 667  : 	}else if( tblNo > 1281){
; 668  : 		tblNo -= 919;
; 669  : 	}else if( tblNo > 1239){
; 670  : 		tblNo -= 889;
; 671  : 	}else if( tblNo > 1186 ){
; 672  : 		tblNo -= 886;
; 673  : 	}else if( tblNo > 1173 ){
; 674  : 		tblNo -= 877;
; 675  : 	}else if( tblNo > 1172){
; 676  : 		tblNo -= 877;
; 677  : 	}else if( tblNo > 1161){
; 678  : 		tblNo -= 868;
; 679  : 	}else if( tblNo > 930){
; 680  : 		tblNo -= 745;
; 681  : 	}else if( tblNo == 927){
; 682  : 		tblNo -= 634;
; 683  : 	}else if( tblNo > 929){
; 684  : 		tblNo -= 644;
; 685  : 	}else if( tblNo > 927){
; 686  : 		tblNo -= 643;
; 687  : 	}else if( tblNo > 900){
; 688  : 		tblNo -= 621;
; 689  : 	}else if( tblNo > 180){
; 690  : 		tblNo -= (333+56);
; 691  : 	}
; 692  : #elif defined(__ALBUM_41)
; 693  : 	if( tblNo > 1800 ){					//å°æ¶é­”
; 694  : 		tblNo -= 1208;
; 695  : 	}else if( tblNo > 1755 ){					//é—´éš”å—ç“œé­”çŽ‹åŽçš„ ç‹çŒ´
; 696  : 		tblNo -= 1201 ;
; 697  : 	}else if (tblNo > 1739 ){			//é£žè›‡
; 698  : 		tblNo -= 1200;
; 699  : 	}else if (tblNo > 1686 ){			//8.0å® ç‰©
; 700  : 		tblNo -= 1175;
; 701  : 	}else if (tblNo > 1641 ){			//é¸¡å¹´å…½4 ç”²è™«2	8.0ç¬¬ä¸€æ¬¡æ•´åˆæµ‹è¯•
; 702  : 		tblNo -= 1167;
; 703  : 	}else if (tblNo > 1635 ){   //éº’éºŸ
; 704  : 		tblNo -= 1148;
; 705  : 	}else if ( tblNo > 1634 ){	//çŒ«å¥³1 çŒ«å¥³2
; 706  : 		tblNo -= 1149;
; 707  : 	}else if ( tblNo > 1628 ){	//ç«èš1 ç«èš2 ç‰›äºº1 ç‰›äºº2
; 708  : 		tblNo -= 1147;
; 709  : 	}else if( tblNo > 1615 ){//å¸ƒé‡Œè¨å°” èœœèœ‚1 èœœèœ‚2 è´è¶1 è´è¶2 æš—é»‘ä¹ŒåŠ›çŽ‹ ç‹®äºº1 ç‹®äºº2 ç°äººç†” ç™½ç‹¼ å¸ƒä¼Šé…·
; 710  : 		tblNo -= 1145;
; 711  : 	}else if( tblNo > 1568 ){//æœºäººé¾™
; 712  : 		tblNo -= 1103;
; 713  : 	}else if( tblNo > 1564 ){//é»„è‰²é£žé¾™
; 714  : 		tblNo -= 1101;
; 715  : 	}else if( tblNo > 1516 ){
; 716  : 		tblNo -= 1055;
; 717  : 	}else if ( tblNo == 1516 ){//ä¿®æ­£ä¹ŒåŠ›çŽ‹
; 718  : 		tblNo = 455 ;
; 719  : 	}else if ( tblNo > 1509 ){
; 720  : 		tblNo -= 1054;
; 721  : 	}else if ( tblNo == 1497 ){
; 722  : 		tblNo = 395;
; 723  : 	}else if ( tblNo > 1495 ){
; 724  : 		tblNo -= 1044 ;
; 725  : 	}else if ( tblNo > 1490 ){
; 726  : 		tblNo -= 1043 ;
; 727  : 	}else if ( tblNo > 1485 ){
; 728  : 		tblNo -= 1040 ; 
; 729  : 	}else if ( tblNo > 1454 ) {
; 730  : 		tblNo -= 1034 ; 
; 731  : 	}else if ( tblNo == 1214 ) {
; 732  : 		tblNo = 331 ;
; 733  : 	}else if ( tblNo == 1217 ) {
; 734  : 		tblNo = 328 ; 
; 735  : 	}else if ( tblNo > 1361){
; 736  : 		tblNo -= 952;
; 737  : 	}else if( tblNo > 1356){
; 738  : 		tblNo -= 999;
; 739  : 	}else if( tblNo > 1281){
; 740  : 		tblNo -= 919;
; 741  : 	}else if( tblNo > 1239){
; 742  : 		tblNo -= 889;
; 743  : 	}else if( tblNo > 1186 ){
; 744  : 		tblNo -= 886;
; 745  : 	}else if( tblNo > 1173 ){
; 746  : 		tblNo -= 877;
; 747  : 	}else if( tblNo > 1172){
; 748  : 		tblNo -= 877;
; 749  : 	}else if( tblNo > 1161){
; 750  : 		tblNo -= 868;
; 751  : 	}else if( tblNo > 930){
; 752  : 		tblNo -= 745;
; 753  : 	}else if( tblNo == 927){
; 754  : 		tblNo -= 634;
; 755  : 	}else if( tblNo > 929){
; 756  : 		tblNo -= 644;
; 757  : 	}else if( tblNo > 927){
; 758  : 		tblNo -= 643;
; 759  : 	}else if( tblNo > 900){
; 760  : 		tblNo -= 621;
; 761  : 	}else if( tblNo > 180){
; 762  : 		tblNo -= (333+56);
; 763  : 	}
; 764  : #elif defined(__ALBUM_40)
; 765  : 	if( tblNo > 1800 ){					//å°æ¶é­”
; 766  : 		tblNo -= 1208;
; 767  : 	}else if( tblNo > 1755 ){					//é—´éš”å—ç“œé­”çŽ‹åŽçš„ ç‹çŒ´
; 768  : 		tblNo -= 1201 ;
; 769  : 	}else if (tblNo > 1739 ){			//é£žè›‡
; 770  : 		tblNo -= 1200;
; 771  : 	}else if (tblNo > 1686 ){			//8.0å® ç‰©
; 772  : 		tblNo -= 1175;
; 773  : 	}else if (tblNo > 1641 ){			//é¸¡å¹´å…½4 ç”²è™«2	8.0ç¬¬ä¸€æ¬¡æ•´åˆæµ‹è¯•
; 774  : 		tblNo -= 1167;
; 775  : 	}else if (tblNo > 1635 ){   //éº’éºŸ
; 776  : 		tblNo -= 1148;
; 777  : 	}else if ( tblNo > 1634 ){	//çŒ«å¥³1 çŒ«å¥³2
; 778  : 		tblNo -= 1149;
; 779  : 	}else if ( tblNo > 1628 ){	//ç«èš1 ç«èš2 ç‰›äºº1 ç‰›äºº2
; 780  : 		tblNo -= 1147;
; 781  : 	}else if( tblNo > 1615 ){//å¸ƒé‡Œè¨å°” èœœèœ‚1 èœœèœ‚2 è´è¶1 è´è¶2 æš—é»‘ä¹ŒåŠ›çŽ‹ ç‹®äºº1 ç‹®äºº2 ç°äººç†” ç™½ç‹¼ å¸ƒä¼Šé…·
; 782  : 		tblNo -= 1145;
; 783  : 	}else if( tblNo > 1568 ){//æœºäººé¾™
; 784  : 		tblNo -= 1103;
; 785  : 	}else if( tblNo > 1564 ){//é»„è‰²é£žé¾™
; 786  : 		tblNo -= 1101;
; 787  : 	}else if( tblNo > 1516 ){
; 788  : 		tblNo -= 1055;
; 789  : 	}else if ( tblNo == 1516 ){//ä¿®æ­£ä¹ŒåŠ›çŽ‹
; 790  : 		tblNo = 455 ;
; 791  : 	}else if ( tblNo > 1509 ){
; 792  : 		tblNo -= 1054;
; 793  : 	}else if ( tblNo == 1497 ){
; 794  : 		tblNo = 395;
; 795  : 	}else if ( tblNo > 1495 ){
; 796  : 		tblNo -= 1044 ;
; 797  : 	}else if ( tblNo > 1490 ){
; 798  : 		tblNo -= 1043 ;
; 799  : 	}else if ( tblNo > 1485 ){
; 800  : 		tblNo -= 1040 ; 
; 801  : 	}else if ( tblNo > 1454 ) {
; 802  : 		tblNo -= 1034 ; 
; 803  : 	}else if ( tblNo == 1214 ) {
; 804  : 		tblNo = 331 ;
; 805  : 	}else if ( tblNo == 1217 ) {
; 806  : 		tblNo = 328 ; 
; 807  : 	}else if ( tblNo > 1361){
; 808  : 		tblNo -= 952;
; 809  : 	}else if( tblNo > 1356){
; 810  : 		tblNo -= 999;
; 811  : 	}else if( tblNo > 1281){
; 812  : 		tblNo -= 919;
; 813  : 	}else if( tblNo > 1239){
; 814  : 		tblNo -= 889;
; 815  : 	}else if( tblNo > 1186 ){
; 816  : 		tblNo -= 886;
; 817  : 	}else if( tblNo > 1173 ){
; 818  : 		tblNo -= 877;
; 819  : 	}else if( tblNo > 1172){
; 820  : 		tblNo -= 877;
; 821  : 	}else if( tblNo > 1161){
; 822  : 		tblNo -= 868;
; 823  : 	}else if( tblNo > 930){
; 824  : 		tblNo -= 745;
; 825  : 	}else if( tblNo == 927){
; 826  : 		tblNo -= 634;
; 827  : 	}else if( tblNo > 929){
; 828  : 		tblNo -= 644;
; 829  : 	}else if( tblNo > 927){
; 830  : 		tblNo -= 643;
; 831  : 	}else if( tblNo > 900){
; 832  : 		tblNo -= 621;
; 833  : 	}else if( tblNo > 180){
; 834  : 		tblNo -= (333+56);
; 835  : 	}
; 836  : #elif defined(__ALBUM_39)
; 837  : 	if( tblNo > 1800 ){					//å°æ¶é­”
; 838  : 		tblNo -= 1208;
; 839  : 	}else if( tblNo > 1755 ){					//é—´éš”å—ç“œé­”çŽ‹åŽçš„ ç‹çŒ´
; 840  : 		tblNo -= 1201 ;
; 841  : 	}else if (tblNo > 1739 ){			//é£žè›‡
; 842  : 		tblNo -= 1200;
; 843  : 	}else if (tblNo > 1686 ){			//8.0å® ç‰©
; 844  : 		tblNo -= 1175;
; 845  : 	}else if (tblNo > 1641 ){			//é¸¡å¹´å…½4 ç”²è™«2	8.0ç¬¬ä¸€æ¬¡æ•´åˆæµ‹è¯•
; 846  : 		tblNo -= 1167;
; 847  : 	}else if (tblNo > 1635 ){   //éº’éºŸ
; 848  : 		tblNo -= 1148;
; 849  : 	}else if ( tblNo > 1634 ){	//çŒ«å¥³1 çŒ«å¥³2
; 850  : 		tblNo -= 1149;
; 851  : 	}else if ( tblNo > 1628 ){	//ç«èš1 ç«èš2 ç‰›äºº1 ç‰›äºº2
; 852  : 		tblNo -= 1147;
; 853  : 	}else if( tblNo > 1615 ){//å¸ƒé‡Œè¨å°” èœœèœ‚1 èœœèœ‚2 è´è¶1 è´è¶2 æš—é»‘ä¹ŒåŠ›çŽ‹ ç‹®äºº1 ç‹®äºº2 ç°äººç†” ç™½ç‹¼ å¸ƒä¼Šé…·
; 854  : 		tblNo -= 1145;
; 855  : 	}else if( tblNo > 1568 ){//æœºäººé¾™
; 856  : 		tblNo -= 1103;
; 857  : 	}else if( tblNo > 1564 ){//é»„è‰²é£žé¾™
; 858  : 		tblNo -= 1101;
; 859  : 	}else if( tblNo > 1516 ){
; 860  : 		tblNo -= 1055;
; 861  : 	}else if ( tblNo == 1516 ){//ä¿®æ­£ä¹ŒåŠ›çŽ‹
; 862  : 		tblNo = 455 ;
; 863  : 	}else if ( tblNo > 1509 ){
; 864  : 		tblNo -= 1054;
; 865  : 	}else if ( tblNo == 1497 ){
; 866  : 		tblNo = 395;
; 867  : 	}else if ( tblNo > 1495 ){
; 868  : 		tblNo -= 1044 ;
; 869  : 	}else if ( tblNo > 1490 ){
; 870  : 		tblNo -= 1043 ;
; 871  : 	}else if ( tblNo > 1485 ){
; 872  : 		tblNo -= 1040 ; 
; 873  : 	}else if ( tblNo > 1454 ) {
; 874  : 		tblNo -= 1034 ; 
; 875  : 	}else if ( tblNo == 1214 ) {
; 876  : 		tblNo = 331 ;
; 877  : 	}else if ( tblNo == 1217 ) {
; 878  : 		tblNo = 328 ; 
; 879  : 	}else if ( tblNo > 1361){
; 880  : 		tblNo -= 952;
; 881  : 	}else if( tblNo > 1356){
; 882  : 		tblNo -= 999;
; 883  : 	}else if( tblNo > 1281){
; 884  : 		tblNo -= 919;
; 885  : 	}else if( tblNo > 1239){
; 886  : 		tblNo -= 889;
; 887  : 	}else if( tblNo > 1186 ){
; 888  : 		tblNo -= 886;
; 889  : 	}else if( tblNo > 1173 ){
; 890  : 		tblNo -= 877;
; 891  : 	}else if( tblNo > 1172){
; 892  : 		tblNo -= 877;
; 893  : 	}else if( tblNo > 1161){
; 894  : 		tblNo -= 868;
; 895  : 	}else if( tblNo > 930){
; 896  : 		tblNo -= 745;
; 897  : 	}else if( tblNo == 927){
; 898  : 		tblNo -= 634;
; 899  : 	}else if( tblNo > 929){
; 900  : 		tblNo -= 644;
; 901  : 	}else if( tblNo > 927){
; 902  : 		tblNo -= 643;
; 903  : 	}else if( tblNo > 900){
; 904  : 		tblNo -= 621;
; 905  : 	}else if( tblNo > 180){
; 906  : 		tblNo -= (333+56);
; 907  : 	}
; 908  : #elif defined(__ALBUM_38)
; 909  : 	if( tblNo > 1755 ){					//é—´éš”å—ç“œé­”çŽ‹åŽçš„ ç‹çŒ´
; 910  : 		tblNo -= 1201 ;
; 911  : 	}else if (tblNo > 1739 ){			//é£žè›‡
; 912  : 		tblNo -= 1200;
; 913  : 	}else if (tblNo > 1686 ){			//8.0å® ç‰©
; 914  : 		tblNo -= 1175;
; 915  : 	}else if (tblNo > 1641 ){			//é¸¡å¹´å…½4 ç”²è™«2	8.0ç¬¬ä¸€æ¬¡æ•´åˆæµ‹è¯•
; 916  : 		tblNo -= 1167;
; 917  : 	}else if (tblNo > 1635 ){   //éº’éºŸ
; 918  : 		tblNo -= 1148;
; 919  : 	}else if ( tblNo > 1634 ){	//çŒ«å¥³1 çŒ«å¥³2
; 920  : 		tblNo -= 1149;
; 921  : 	}else if ( tblNo > 1628 ){	//ç«èš1 ç«èš2 ç‰›äºº1 ç‰›äºº2
; 922  : 		tblNo -= 1147;
; 923  : 	}else if( tblNo > 1615 ){//å¸ƒé‡Œè¨å°” èœœèœ‚1 èœœèœ‚2 è´è¶1 è´è¶2 æš—é»‘ä¹ŒåŠ›çŽ‹ ç‹®äºº1 ç‹®äºº2 ç°äººç†” ç™½ç‹¼ å¸ƒä¼Šé…·
; 924  : 		tblNo -= 1145;
; 925  : 	}else if( tblNo > 1568 ){//æœºäººé¾™
; 926  : 		tblNo -= 1103;
; 927  : 	}else if( tblNo > 1564 ){//é»„è‰²é£žé¾™
; 928  : 		tblNo -= 1101;
; 929  : 	}else if( tblNo > 1516 ){
; 930  : 		tblNo -= 1055;
; 931  : 	}else if ( tblNo == 1516 ){//ä¿®æ­£ä¹ŒåŠ›çŽ‹
; 932  : 		tblNo = 455 ;
; 933  : 	}else if ( tblNo > 1509 ){
; 934  : 		tblNo -= 1054;
; 935  : 	}else if ( tblNo == 1497 ){
; 936  : 		tblNo = 395;
; 937  : 	}else if ( tblNo > 1495 ){
; 938  : 		tblNo -= 1044 ;
; 939  : 	}else if ( tblNo > 1490 ){
; 940  : 		tblNo -= 1043 ;
; 941  : 	}else if ( tblNo > 1485 ){
; 942  : 		tblNo -= 1040 ; 
; 943  : 	}else if ( tblNo > 1454 ) {
; 944  : 		tblNo -= 1034 ; 
; 945  : 	}else if ( tblNo == 1214 ) {
; 946  : 		tblNo = 331 ;
; 947  : 	}else if ( tblNo == 1217 ) {
; 948  : 		tblNo = 328 ; 
; 949  : 	}else if ( tblNo > 1361){
; 950  : 		tblNo -= 952;
; 951  : 	}else if( tblNo > 1356){
; 952  : 		tblNo -= 999;
; 953  : 	}else if( tblNo > 1281){
; 954  : 		tblNo -= 919;
; 955  : 	}else if( tblNo > 1239){
; 956  : 		tblNo -= 889;
; 957  : 	}else if( tblNo > 1186 ){
; 958  : 		tblNo -= 886;
; 959  : 	}else if( tblNo > 1173 ){
; 960  : 		tblNo -= 877;
; 961  : 	}else if( tblNo > 1172){
; 962  : 		tblNo -= 877;
; 963  : 	}else if( tblNo > 1161){
; 964  : 		tblNo -= 868;
; 965  : 	}else if( tblNo > 930){
; 966  : 		tblNo -= 745;
; 967  : 	}else if( tblNo == 927){
; 968  : 		tblNo -= 634;
; 969  : 	}else if( tblNo > 929){
; 970  : 		tblNo -= 644;
; 971  : 	}else if( tblNo > 927){
; 972  : 		tblNo -= 643;
; 973  : 	}else if( tblNo > 900){
; 974  : 		tblNo -= 621;
; 975  : 	}else if( tblNo > 180){
; 976  : 		tblNo -= (333+56);
; 977  : 	}
; 978  : #elif defined(__ALBUM_37)
; 979  : 	if (tblNo > 1739 ){			//é£žè›‡
; 980  : 		tblNo -= 1200;
; 981  : 	}else if (tblNo > 1686 ){			//8.0å® ç‰©
; 982  : 		tblNo -= 1175;
; 983  : 	}else if (tblNo > 1641 ){			//é¸¡å¹´å…½4 ç”²è™«2	8.0ç¬¬ä¸€æ¬¡æ•´åˆæµ‹è¯•
; 984  : 		tblNo -= 1167;
; 985  : 	}else if (tblNo > 1635 ){   //éº’éºŸ
; 986  : 		tblNo -= 1148;
; 987  : 	}else if ( tblNo > 1634 ){	//çŒ«å¥³1 çŒ«å¥³2
; 988  : 		tblNo -= 1149;
; 989  : 	}else if ( tblNo > 1628 ){	//ç«èš1 ç«èš2 ç‰›äºº1 ç‰›äºº2
; 990  : 		tblNo -= 1147;
; 991  : 	}else if( tblNo > 1615 ){//å¸ƒé‡Œè¨å°” èœœèœ‚1 èœœèœ‚2 è´è¶1 è´è¶2 æš—é»‘ä¹ŒåŠ›çŽ‹ ç‹®äºº1 ç‹®äºº2 ç°äººç†” ç™½ç‹¼ å¸ƒä¼Šé…·
; 992  : 		tblNo -= 1145;
; 993  : 	}else if( tblNo > 1568 ){//æœºäººé¾™
; 994  : 		tblNo -= 1103;
; 995  : 	}else if( tblNo > 1564 ){//é»„è‰²é£žé¾™
; 996  : 		tblNo -= 1101;
; 997  : 	}else if( tblNo > 1516 ){
; 998  : 		tblNo -= 1055;
; 999  : 	}else if ( tblNo == 1516 ){//ä¿®æ­£ä¹ŒåŠ›çŽ‹
; 1000 : 		tblNo = 455 ;
; 1001 : 	}else if ( tblNo > 1509 ){
; 1002 : 		tblNo -= 1054;
; 1003 : 	}else if ( tblNo == 1497 ){
; 1004 : 		tblNo = 395;
; 1005 : 	}else if ( tblNo > 1495 ){
; 1006 : 		tblNo -= 1044 ;
; 1007 : 	}else if ( tblNo > 1490 ){
; 1008 : 		tblNo -= 1043 ;
; 1009 : 	}else if ( tblNo > 1485 ){
; 1010 : 		tblNo -= 1040 ; 
; 1011 : 	}else if ( tblNo > 1454 ) {
; 1012 : 		tblNo -= 1034 ; 
; 1013 : 	}else if ( tblNo == 1214 ) {
; 1014 : 		tblNo = 331 ;
; 1015 : 	}else if ( tblNo == 1217 ) {
; 1016 : 		tblNo = 328 ; 
; 1017 : 	}else if ( tblNo > 1361){
; 1018 : 		tblNo -= 952;
; 1019 : 	}else if( tblNo > 1356){
; 1020 : 		tblNo -= 999;
; 1021 : 	}else if( tblNo > 1281){
; 1022 : 		tblNo -= 919;
; 1023 : 	}else if( tblNo > 1239){
; 1024 : 		tblNo -= 889;
; 1025 : 	}else if( tblNo > 1186 ){
; 1026 : 		tblNo -= 886;
; 1027 : 	}else if( tblNo > 1173 ){
; 1028 : 		tblNo -= 877;
; 1029 : 	}else if( tblNo > 1172){
; 1030 : 		tblNo -= 877;
; 1031 : 	}else if( tblNo > 1161){
; 1032 : 		tblNo -= 868;
; 1033 : 	}else if( tblNo > 930){
; 1034 : 		tblNo -= 745;
; 1035 : 	}else if( tblNo == 927){
; 1036 : 		tblNo -= 634;
; 1037 : 	}else if( tblNo > 929){
; 1038 : 		tblNo -= 644;
; 1039 : 	}else if( tblNo > 927){
; 1040 : 		tblNo -= 643;
; 1041 : 	}else if( tblNo > 900){
; 1042 : 		tblNo -= 621;
; 1043 : 	}else if( tblNo > 180){
; 1044 : 		tblNo -= (333+56);
; 1045 : 	}
; 1046 : #elif defined(__ALBUM_36)
; 1047 : 	if (tblNo > 1686 ){			//é¸¡å¹´å…½4 ç”²è™«2	8.0ç¬¬ä¸€æ¬¡æ•´åˆæµ‹è¯•
; 1048 : 		tblNo -= 1175;
; 1049 : 	}else if (tblNo > 1641 ){			//é¸¡å¹´å…½4 ç”²è™«2	8.0ç¬¬ä¸€æ¬¡æ•´åˆæµ‹è¯•
; 1050 : 		tblNo -= 1167;
; 1051 : 	}else if (tblNo > 1635 ){   //éº’éºŸ
; 1052 : 		tblNo -= 1148;
; 1053 : 	}else if ( tblNo > 1634 ){	//çŒ«å¥³1 çŒ«å¥³2
; 1054 : 		tblNo -= 1149;
; 1055 : 	}else if ( tblNo > 1628 ){	//ç«èš1 ç«èš2 ç‰›äºº1 ç‰›äºº2
; 1056 : 		tblNo -= 1147;
; 1057 : 	}else if( tblNo > 1615 ){//å¸ƒé‡Œè¨å°” èœœèœ‚1 èœœèœ‚2 è´è¶1 è´è¶2 æš—é»‘ä¹ŒåŠ›çŽ‹ ç‹®äºº1 ç‹®äºº2 ç°äººç†” ç™½ç‹¼ å¸ƒä¼Šé…·
; 1058 : 		tblNo -= 1145;
; 1059 : 	}else if( tblNo > 1568 ){//æœºäººé¾™
; 1060 : 		tblNo -= 1103;
; 1061 : 	}else if( tblNo > 1564 ){//é»„è‰²é£žé¾™
; 1062 : 		tblNo -= 1101;
; 1063 : 	}else if( tblNo > 1516 ){
; 1064 : 		tblNo -= 1055;
; 1065 : 	}else if ( tblNo == 1516 ){//ä¿®æ­£ä¹ŒåŠ›çŽ‹
; 1066 : 		tblNo = 455 ;
; 1067 : 	}else if ( tblNo > 1509 ){
; 1068 : 		tblNo -= 1054;
; 1069 : 	}else if ( tblNo == 1497 ){
; 1070 : 		tblNo = 395;
; 1071 : 	}else if ( tblNo > 1495 ){
; 1072 : 		tblNo -= 1044 ;
; 1073 : 	}else if ( tblNo > 1490 ){
; 1074 : 		tblNo -= 1043 ;
; 1075 : 	}else if ( tblNo > 1485 ){
; 1076 : 		tblNo -= 1040 ; 
; 1077 : 	}else if ( tblNo > 1454 ) {
; 1078 : 		tblNo -= 1034 ; 
; 1079 : 	}else if ( tblNo == 1214 ) {
; 1080 : 		tblNo = 331 ;
; 1081 : 	}else if ( tblNo == 1217 ) {
; 1082 : 		tblNo = 328 ; 
; 1083 : 	}else if ( tblNo > 1361){
; 1084 : 		tblNo -= 952;
; 1085 : 	}else if( tblNo > 1356){
; 1086 : 		tblNo -= 999;
; 1087 : 	}else if( tblNo > 1281){
; 1088 : 		tblNo -= 919;
; 1089 : 	}else if( tblNo > 1239){
; 1090 : 		tblNo -= 889;
; 1091 : 	}else if( tblNo > 1186 ){
; 1092 : 		tblNo -= 886;
; 1093 : 	}else if( tblNo > 1173 ){
; 1094 : 		tblNo -= 877;
; 1095 : 	}else if( tblNo > 1172){
; 1096 : 		tblNo -= 877;
; 1097 : 	}else if( tblNo > 1161){
; 1098 : 		tblNo -= 868;
; 1099 : 	}else if( tblNo > 930){
; 1100 : 		tblNo -= 745;
; 1101 : 	}else if( tblNo == 927){
; 1102 : 		tblNo -= 634;
; 1103 : 	}else if( tblNo > 929){
; 1104 : 		tblNo -= 644;
; 1105 : 	}else if( tblNo > 927){
; 1106 : 		tblNo -= 643;
; 1107 : 	}else if( tblNo > 900){
; 1108 : 		tblNo -= 621;
; 1109 : 	}else if( tblNo > 180){
; 1110 : 		tblNo -= (333+56);
; 1111 : 	}
; 1112 : #elif defined(__ALBUM_35)
; 1113 : 	if (tblNo > 1641 ){			//é¸¡å¹´å…½4 ç”²è™«2	8.0ç¬¬ä¸€æ¬¡æ•´åˆæµ‹è¯•
; 1114 : 		tblNo -= 1167;
; 1115 : 	}else if (tblNo > 1635 ){   //éº’éºŸ
; 1116 : 		tblNo -= 1148;
; 1117 : 	}else if ( tblNo > 1634 ){	//çŒ«å¥³1 çŒ«å¥³2
; 1118 : 		tblNo -= 1149;
; 1119 : 	}else if ( tblNo > 1628 ){	//ç«èš1 ç«èš2 ç‰›äºº1 ç‰›äºº2
; 1120 : 		tblNo -= 1147;
; 1121 : 	}else if( tblNo > 1615 ){//å¸ƒé‡Œè¨å°” èœœèœ‚1 èœœèœ‚2 è´è¶1 è´è¶2 æš—é»‘ä¹ŒåŠ›çŽ‹ ç‹®äºº1 ç‹®äºº2 ç°äººç†” ç™½ç‹¼ å¸ƒä¼Šé…·
; 1122 : 		tblNo -= 1145;
; 1123 : 	}else if( tblNo > 1568 ){//æœºäººé¾™
; 1124 : 		tblNo -= 1103;
; 1125 : 	}else if( tblNo > 1564 ){//é»„è‰²é£žé¾™
; 1126 : 		tblNo -= 1101;
; 1127 : 	}else if( tblNo > 1516 ){
; 1128 : 		tblNo -= 1055;
; 1129 : 	}else if ( tblNo == 1516 ){//ä¿®æ­£ä¹ŒåŠ›çŽ‹
; 1130 : 		tblNo = 455 ;
; 1131 : 	}else if ( tblNo > 1509 ){
; 1132 : 		tblNo -= 1054;
; 1133 : 	}else if ( tblNo == 1497 ){
; 1134 : 		tblNo = 395;
; 1135 : 	}else if ( tblNo > 1495 ){
; 1136 : 		tblNo -= 1044 ;
; 1137 : 	}else if ( tblNo > 1490 ){
; 1138 : 		tblNo -= 1043 ;
; 1139 : 	}else if ( tblNo > 1485 ){
; 1140 : 		tblNo -= 1040 ; 
; 1141 : 	}else if ( tblNo > 1454 ) {
; 1142 : 		tblNo -= 1034 ; 
; 1143 : 	}else if ( tblNo == 1214 ) {
; 1144 : 		tblNo = 331 ;
; 1145 : 	}else if ( tblNo == 1217 ) {
; 1146 : 		tblNo = 328 ; 
; 1147 : 	}else if ( tblNo > 1361){
; 1148 : 		tblNo -= 952;
; 1149 : 	}else if( tblNo > 1356){
; 1150 : 		tblNo -= 999;
; 1151 : 	}else if( tblNo > 1281){
; 1152 : 		tblNo -= 919;
; 1153 : 	}else if( tblNo > 1239){
; 1154 : 		tblNo -= 889;
; 1155 : 	}else if( tblNo > 1186 ){
; 1156 : 		tblNo -= 886;
; 1157 : 	}else if( tblNo > 1173 ){
; 1158 : 		tblNo -= 877;
; 1159 : 	}else if( tblNo > 1172){
; 1160 : 		tblNo -= 877;
; 1161 : 	}else if( tblNo > 1161){
; 1162 : 		tblNo -= 868;
; 1163 : 	}else if( tblNo > 930){
; 1164 : 		tblNo -= 745;
; 1165 : 	}else if( tblNo == 927){
; 1166 : 		tblNo -= 634;
; 1167 : 	}else if( tblNo > 929){
; 1168 : 		tblNo -= 644;
; 1169 : 	}else if( tblNo > 927){
; 1170 : 		tblNo -= 643;
; 1171 : 	}else if( tblNo > 900){
; 1172 : 		tblNo -= 621;
; 1173 : 	}else if( tblNo > 180){
; 1174 : 		tblNo -= (333+56);
; 1175 : 	}
; 1176 : 
; 1177 : #elif defined(__ALBUM_34)
; 1178 : 	if (tblNo > 1639 ){			//é¸¡å¹´å…½4
; 1179 : 		tblNo -= 1167;
; 1180 : 	}else if (tblNo > 1635 ){   //éº’éºŸ
; 1181 : 		tblNo -= 1148;
; 1182 : 	}else if ( tblNo > 1634 ){	//çŒ«å¥³1 çŒ«å¥³2
; 1183 : 		tblNo -= 1149;
; 1184 : 	}else if ( tblNo > 1628 ){	//ç«èš1 ç«èš2 ç‰›äºº1 ç‰›äºº2
; 1185 : 		tblNo -= 1147;
; 1186 : 	}else if( tblNo > 1615 ){//å¸ƒé‡Œè¨å°” èœœèœ‚1 èœœèœ‚2 è´è¶1 è´è¶2 æš—é»‘ä¹ŒåŠ›çŽ‹ ç‹®äºº1 ç‹®äºº2 ç°äººç†” ç™½ç‹¼ å¸ƒä¼Šé…·
; 1187 : 		tblNo -= 1145;
; 1188 : 	}else if( tblNo > 1568 ){//æœºäººé¾™
; 1189 : 		tblNo -= 1103;
; 1190 : 	}else if( tblNo > 1564 ){//é»„è‰²é£žé¾™
; 1191 : 		tblNo -= 1101;
; 1192 : 	}else if( tblNo > 1516 ){
; 1193 : 		tblNo -= 1055;
; 1194 : 	}else if ( tblNo == 1516 ){//ä¿®æ­£ä¹ŒåŠ›çŽ‹
; 1195 : 		tblNo = 455 ;
; 1196 : 	}else if ( tblNo > 1509 ){
; 1197 : 		tblNo -= 1054;
; 1198 : 	}else if ( tblNo == 1497 ){
; 1199 : 		tblNo = 395;
; 1200 : 	}else if ( tblNo > 1495 ){
; 1201 : 		tblNo -= 1044 ;
; 1202 : 	}else if ( tblNo > 1490 ){
; 1203 : 		tblNo -= 1043 ;
; 1204 : 	}else if ( tblNo > 1485 ){
; 1205 : 		tblNo -= 1040 ; 
; 1206 : 	}else if ( tblNo > 1454 ) {
; 1207 : 		tblNo -= 1034 ; 
; 1208 : 	}else if ( tblNo == 1214 ) {
; 1209 : 		tblNo = 331 ;
; 1210 : 	}else if ( tblNo == 1217 ) {
; 1211 : 		tblNo = 328 ; 
; 1212 : 	}else if ( tblNo > 1361){
; 1213 : 		tblNo -= 952;
; 1214 : 	}else if( tblNo > 1356){
; 1215 : 		tblNo -= 999;
; 1216 : 	}else if( tblNo > 1281){
; 1217 : 		tblNo -= 919;
; 1218 : 	}else if( tblNo > 1239){
; 1219 : 		tblNo -= 889;
; 1220 : 	}else if( tblNo > 1186 ){
; 1221 : 		tblNo -= 886;
; 1222 : 	}else if( tblNo > 1173 ){
; 1223 : 		tblNo -= 877;
; 1224 : 	}else if( tblNo > 1172){
; 1225 : 		tblNo -= 877;
; 1226 : 	}else if( tblNo > 1161){
; 1227 : 		tblNo -= 868;
; 1228 : 	}else if( tblNo > 930){
; 1229 : 		tblNo -= 745;
; 1230 : 	}else if( tblNo == 927){
; 1231 : 		tblNo -= 634;
; 1232 : 	}else if( tblNo > 929){
; 1233 : 		tblNo -= 644;
; 1234 : 	}else if( tblNo > 927){
; 1235 : 		tblNo -= 643;
; 1236 : 	}else if( tblNo > 900){
; 1237 : 		tblNo -= 621;
; 1238 : 	}else if( tblNo > 180){
; 1239 : 		tblNo -= (333+56);
; 1240 : 	}
; 1241 : #elif defined(__ALBUM_33)
; 1242 : 	if (tblNo > 1635 ){
; 1243 : 		tblNo -= 1148;
; 1244 : 	}else if ( tblNo > 1634 ){	//çŒ«å¥³1 çŒ«å¥³2 éº’éºŸ
; 1245 : 		tblNo -= 1149;
; 1246 : 	}else if ( tblNo > 1628 ){	//ç«èš1 ç«èš2 ç‰›äºº1 ç‰›äºº2
; 1247 : 		tblNo -= 1147;
; 1248 : 	}else if( tblNo > 1615 ){//å¸ƒé‡Œè¨å°” èœœèœ‚1 èœœèœ‚2 è´è¶1 è´è¶2 æš—é»‘ä¹ŒåŠ›çŽ‹ ç‹®äºº1 ç‹®äºº2 ç°äººç†” ç™½ç‹¼ å¸ƒä¼Šé…·
; 1249 : 		tblNo -= 1145;
; 1250 : 	}else if( tblNo > 1568 ){//æœºäººé¾™
; 1251 : 		tblNo -= 1103;
; 1252 : 	}else if( tblNo > 1564 ){//é»„è‰²é£žé¾™
; 1253 : 		tblNo -= 1101;
; 1254 : 	}else if( tblNo > 1516 ){
; 1255 : 		tblNo -= 1055;
; 1256 : 	}else if ( tblNo == 1516 ){//ä¿®æ­£ä¹ŒåŠ›çŽ‹
; 1257 : 		tblNo = 455 ;
; 1258 : 	}else if ( tblNo > 1509 ){
; 1259 : 		tblNo -= 1054;
; 1260 : 	}else if ( tblNo == 1497 ){
; 1261 : 		tblNo = 395;
; 1262 : 	}else if ( tblNo > 1495 ){
; 1263 : 		tblNo -= 1044 ;
; 1264 : 	}else if ( tblNo > 1490 ){
; 1265 : 		tblNo -= 1043 ;
; 1266 : 	}else if ( tblNo > 1485 ){
; 1267 : 		tblNo -= 1040 ; 
; 1268 : 	}else if ( tblNo > 1454 ) {
; 1269 : 		tblNo -= 1034 ; 
; 1270 : 	}else if ( tblNo == 1214 ) {
; 1271 : 		tblNo = 331 ;
; 1272 : 	}else if ( tblNo == 1217 ) {
; 1273 : 		tblNo = 328 ; 
; 1274 : 	}else if ( tblNo > 1361){
; 1275 : 		tblNo -= 952;
; 1276 : 	}else if( tblNo > 1356){
; 1277 : 		tblNo -= 999;
; 1278 : 	}else if( tblNo > 1281){
; 1279 : 		tblNo -= 919;
; 1280 : 	}else if( tblNo > 1239){
; 1281 : 		tblNo -= 889;
; 1282 : 	}else if( tblNo > 1186 ){
; 1283 : 		tblNo -= 886;
; 1284 : 	}else if( tblNo > 1173 ){
; 1285 : 		tblNo -= 877;
; 1286 : 	}else if( tblNo > 1172){
; 1287 : 		tblNo -= 877;
; 1288 : 	}else if( tblNo > 1161){
; 1289 : 		tblNo -= 868;
; 1290 : 	}else if( tblNo > 930){
; 1291 : 		tblNo -= 745;
; 1292 : 	}else if( tblNo == 927){
; 1293 : 		tblNo -= 634;
; 1294 : 	}else if( tblNo > 929){
; 1295 : 		tblNo -= 644;
; 1296 : 	}else if( tblNo > 927){
; 1297 : 		tblNo -= 643;
; 1298 : 	}else if( tblNo > 900){
; 1299 : 		tblNo -= 621;
; 1300 : 	}else if( tblNo > 180){
; 1301 : 		tblNo -= (333+56);
; 1302 : 	}
; 1303 : #elif defined(__ALBUM_32)
; 1304 : 	if ( tblNo > 1634 ){	//çŒ«å¥³1 çŒ«å¥³2
; 1305 : 		tblNo -= 1149;
; 1306 : 	}else if ( tblNo > 1628 ){	//ç«èš1 ç«èš2 ç‰›äºº1 ç‰›äºº2
; 1307 : 		tblNo -= 1147;
; 1308 : 	}else if( tblNo > 1615 ){//å¸ƒé‡Œè¨å°” èœœèœ‚1 èœœèœ‚2 è´è¶1 è´è¶2 æš—é»‘ä¹ŒåŠ›çŽ‹ ç‹®äºº1 ç‹®äºº2 ç°äººç†” ç™½ç‹¼ å¸ƒä¼Šé…·
; 1309 : 		tblNo -= 1145;
; 1310 : 	}else if( tblNo > 1568 ){//æœºäººé¾™
; 1311 : 		tblNo -= 1103;
; 1312 : 	}else if( tblNo > 1564 ){//é»„è‰²é£žé¾™
; 1313 : 		tblNo -= 1101;
; 1314 : 	}else if( tblNo > 1516 ){
; 1315 : 		tblNo -= 1055;
; 1316 : 	}else if ( tblNo == 1516 ){//ä¿®æ­£ä¹ŒåŠ›çŽ‹
; 1317 : 		tblNo = 455 ;
; 1318 : 	}else if ( tblNo > 1509 ){
; 1319 : 		tblNo -= 1054;
; 1320 : 	}else if ( tblNo == 1497 ){
; 1321 : 		tblNo = 395;
; 1322 : 	}else if ( tblNo > 1495 ){
; 1323 : 		tblNo -= 1044 ;
; 1324 : 	}else if ( tblNo > 1490 ){
; 1325 : 		tblNo -= 1043 ;
; 1326 : 	}else if ( tblNo > 1485 ){
; 1327 : 		tblNo -= 1040 ; 
; 1328 : 	}else if ( tblNo > 1454 ) {
; 1329 : 		tblNo -= 1034 ; 
; 1330 : 	}else if ( tblNo == 1214 ) {
; 1331 : 		tblNo = 331 ;
; 1332 : 	}else if ( tblNo == 1217 ) {
; 1333 : 		tblNo = 328 ; 
; 1334 : 	}else if ( tblNo > 1361){
; 1335 : 		tblNo -= 952;
; 1336 : 	}else if( tblNo > 1356){
; 1337 : 		tblNo -= 999;
; 1338 : 	}else if( tblNo > 1281){
; 1339 : 		tblNo -= 919;
; 1340 : 	}else if( tblNo > 1239){
; 1341 : 		tblNo -= 889;
; 1342 : 	}else if( tblNo > 1186 ){
; 1343 : 		tblNo -= 886;
; 1344 : 	}else if( tblNo > 1173 ){
; 1345 : 		tblNo -= 877;
; 1346 : 	}else if( tblNo > 1172){
; 1347 : 		tblNo -= 877;
; 1348 : 	}else if( tblNo > 1161){
; 1349 : 		tblNo -= 868;
; 1350 : 	}else if( tblNo > 930){
; 1351 : 		tblNo -= 745;
; 1352 : 	}else if( tblNo == 927){
; 1353 : 		tblNo -= 634;
; 1354 : 	}else if( tblNo > 929){
; 1355 : 		tblNo -= 644;
; 1356 : 	}else if( tblNo > 927){
; 1357 : 		tblNo -= 643;
; 1358 : 	}else if( tblNo > 900){
; 1359 : 		tblNo -= 621;
; 1360 : 	}else if( tblNo > 180){
; 1361 : 		tblNo -= (333+56);
; 1362 : 	}
; 1363 : #elif defined(__ALBUM_31)
; 1364 : 	if ( tblNo > 1628 ){	//ç«èš1 ç«èš2 ç‰›äºº1 ç‰›äºº2
; 1365 : 		tblNo -= 1147;
; 1366 : 	}else if( tblNo > 1615 ){//å¸ƒé‡Œè¨å°” èœœèœ‚1 èœœèœ‚2 è´è¶1 è´è¶2 æš—é»‘ä¹ŒåŠ›çŽ‹ ç‹®äºº1 ç‹®äºº2 ç°äººç†” ç™½ç‹¼ å¸ƒä¼Šé…·
; 1367 : 		tblNo -= 1145;
; 1368 : 	}else if( tblNo > 1568 ){//æœºäººé¾™
; 1369 : 		tblNo -= 1103;
; 1370 : 	}else if( tblNo > 1564 ){//é»„è‰²é£žé¾™
; 1371 : 		tblNo -= 1101;
; 1372 : 	}else if( tblNo > 1516 ){
; 1373 : 		tblNo -= 1055;
; 1374 : 	}else if ( tblNo == 1516 ){//ä¿®æ­£ä¹ŒåŠ›çŽ‹
; 1375 : 		tblNo = 455 ;
; 1376 : 	}else if ( tblNo > 1509 ){
; 1377 : 		tblNo -= 1054;
; 1378 : 	}else if ( tblNo == 1497 ){
; 1379 : 		tblNo = 395;
; 1380 : 	}else if ( tblNo > 1495 ){
; 1381 : 		tblNo -= 1044 ;
; 1382 : 	}else if ( tblNo > 1490 ){
; 1383 : 		tblNo -= 1043 ;
; 1384 : 	}else if ( tblNo > 1485 ){
; 1385 : 		tblNo -= 1040 ; 
; 1386 : 	}else if ( tblNo > 1454 ) {
; 1387 : 		tblNo -= 1034 ; 
; 1388 : 	}else if ( tblNo == 1214 ) {
; 1389 : 		tblNo = 331 ;
; 1390 : 	}else if ( tblNo == 1217 ) {
; 1391 : 		tblNo = 328 ; 
; 1392 : 	}else if ( tblNo > 1361){
; 1393 : 		tblNo -= 952;
; 1394 : 	}else if( tblNo > 1356){
; 1395 : 		tblNo -= 999;
; 1396 : 	}else if( tblNo > 1281){
; 1397 : 		tblNo -= 919;
; 1398 : 	}else if( tblNo > 1239){
; 1399 : 		tblNo -= 889;
; 1400 : 	}else if( tblNo > 1186 ){
; 1401 : 		tblNo -= 886;
; 1402 : 	}else if( tblNo > 1173 ){
; 1403 : 		tblNo -= 877;
; 1404 : 	}else if( tblNo > 1172){
; 1405 : 		tblNo -= 877;
; 1406 : 	}else if( tblNo > 1161){
; 1407 : 		tblNo -= 868;
; 1408 : 	}else if( tblNo > 930){
; 1409 : 		tblNo -= 745;
; 1410 : 	}else if( tblNo == 927){
; 1411 : 		tblNo -= 634;
; 1412 : 	}else if( tblNo > 929){
; 1413 : 		tblNo -= 644;
; 1414 : 	}else if( tblNo > 927){
; 1415 : 		tblNo -= 643;
; 1416 : 	}else if( tblNo > 900){
; 1417 : 		tblNo -= 621;
; 1418 : 	}else if( tblNo > 180){
; 1419 : 		tblNo -= (333+56);
; 1420 : 	}
; 1421 : #elif defined(__ALBUM_30)
; 1422 : 	if( tblNo > 1615 ){//å¸ƒé‡Œè¨å°” èœœèœ‚1 èœœèœ‚2 è´è¶1 è´è¶2 æš—é»‘ä¹ŒåŠ›çŽ‹ ç‹®äºº1 ç‹®äºº2 ç°äººç†” ç™½ç‹¼ å¸ƒä¼Šé…·
; 1423 : 		tblNo -= 1145;
; 1424 : 	}else if( tblNo > 1568 ){//æœºäººé¾™
; 1425 : 		tblNo -= 1103;
; 1426 : 	}else if( tblNo > 1564 ){//é»„è‰²é£žé¾™
; 1427 : 		tblNo -= 1101;
; 1428 : 	}else if( tblNo > 1516 ){
; 1429 : 		tblNo -= 1055;
; 1430 : 	}else if ( tblNo == 1516 ){//ä¿®æ­£ä¹ŒåŠ›çŽ‹
; 1431 : 		tblNo = 455 ;
; 1432 : 	}else if ( tblNo > 1509 ){
; 1433 : 		tblNo -= 1054;
; 1434 : 	}else if ( tblNo == 1497 ){
; 1435 : 		tblNo = 395;
; 1436 : 	}else if ( tblNo > 1495 ){
; 1437 : 		tblNo -= 1044 ;
; 1438 : 	}else if ( tblNo > 1490 ){
; 1439 : 		tblNo -= 1043 ;
; 1440 : 	}else if ( tblNo > 1485 ){
; 1441 : 		tblNo -= 1040 ; 
; 1442 : 	}else if ( tblNo > 1454 ) {
; 1443 : 		tblNo -= 1034 ; 
; 1444 : 	}else if ( tblNo == 1214 ) {
; 1445 : 		tblNo = 331 ;
; 1446 : 	}else if ( tblNo == 1217 ) {
; 1447 : 		tblNo = 328 ; 
; 1448 : 	}else if ( tblNo > 1361){
; 1449 : 		tblNo -= 952;
; 1450 : 	}else if( tblNo > 1356){
; 1451 : 		tblNo -= 999;
; 1452 : 	}else if( tblNo > 1281){
; 1453 : 		tblNo -= 919;
; 1454 : 	}else if( tblNo > 1239){
; 1455 : 		tblNo -= 889;
; 1456 : 	}else if( tblNo > 1186 ){
; 1457 : 		tblNo -= 886;
; 1458 : 	}else if( tblNo > 1173 ){
; 1459 : 		tblNo -= 877;
; 1460 : 	}else if( tblNo > 1172){
; 1461 : 		tblNo -= 877;
; 1462 : 	}else if( tblNo > 1161){
; 1463 : 		tblNo -= 868;
; 1464 : 	}else if( tblNo > 930){
; 1465 : 		tblNo -= 745;
; 1466 : 	}else if( tblNo == 927){
; 1467 : 		tblNo -= 634;
; 1468 : 	}else if( tblNo > 929){
; 1469 : 		tblNo -= 644;
; 1470 : 	}else if( tblNo > 927){
; 1471 : 		tblNo -= 643;
; 1472 : 	}else if( tblNo > 900){
; 1473 : 		tblNo -= 621;
; 1474 : 	}else if( tblNo > 180){
; 1475 : 		tblNo -= (333+56);
; 1476 : 	}
; 1477 : #elif defined(__ALBUM_29)
; 1478 : 	if( tblNo > 1615 ){//å¸ƒé‡Œè¨å°” èœœèœ‚1 èœœèœ‚2 è´è¶1 è´è¶2 æš—é»‘ä¹ŒåŠ›çŽ‹ ç‹®äºº1 ç‹®äºº2 ç°äººç†” ç™½ç‹¼
; 1479 : 		tblNo -= 1145;
; 1480 : 	}else if( tblNo > 1568 ){//æœºäººé¾™
; 1481 : 		tblNo -= 1103;
; 1482 : 	}else if( tblNo > 1564 ){//é»„è‰²é£žé¾™
; 1483 : 		tblNo -= 1101;
; 1484 : 	}else if( tblNo > 1516 ){
; 1485 : 		tblNo -= 1055;
; 1486 : 	}else if ( tblNo == 1516 ){//ä¿®æ­£ä¹ŒåŠ›çŽ‹
; 1487 : 		tblNo = 455 ;
; 1488 : 	}else if ( tblNo > 1509 ){
; 1489 : 		tblNo -= 1054;
; 1490 : 	}else if ( tblNo == 1497 ){
; 1491 : 		tblNo = 395;
; 1492 : 	}else if ( tblNo > 1495 ){
; 1493 : 		tblNo -= 1044 ;
; 1494 : 	}else if ( tblNo > 1490 ){
; 1495 : 		tblNo -= 1043 ;
; 1496 : 	}else if ( tblNo > 1485 ){
; 1497 : 		tblNo -= 1040 ; 
; 1498 : 	}else if ( tblNo > 1454 ) {
; 1499 : 		tblNo -= 1034 ; 
; 1500 : 	}else if ( tblNo == 1214 ) {
; 1501 : 		tblNo = 331 ;
; 1502 : 	}else if ( tblNo == 1217 ) {
; 1503 : 		tblNo = 328 ; 
; 1504 : 	}else if ( tblNo > 1361){
; 1505 : 		tblNo -= 952;
; 1506 : 	}else if( tblNo > 1356){
; 1507 : 		tblNo -= 999;
; 1508 : 	}else if( tblNo > 1281){
; 1509 : 		tblNo -= 919;
; 1510 : 	}else if( tblNo > 1239){
; 1511 : 		tblNo -= 889;
; 1512 : 	}else if( tblNo > 1186 ){
; 1513 : 		tblNo -= 886;
; 1514 : 	}else if( tblNo > 1173 ){
; 1515 : 		tblNo -= 877;
; 1516 : 	}else if( tblNo > 1172){
; 1517 : 		tblNo -= 877;
; 1518 : 	}else if( tblNo > 1161){
; 1519 : 		tblNo -= 868;
; 1520 : 	}else if( tblNo > 930){
; 1521 : 		tblNo -= 745;
; 1522 : 	}else if( tblNo == 927){
; 1523 : 		tblNo -= 634;
; 1524 : 	}else if( tblNo > 929){
; 1525 : 		tblNo -= 644;
; 1526 : 	}else if( tblNo > 927){
; 1527 : 		tblNo -= 643;
; 1528 : 	}else if( tblNo > 900){
; 1529 : 		tblNo -= 621;
; 1530 : 	}else if( tblNo > 180){
; 1531 : 		tblNo -= (333+56);
; 1532 : 	}
; 1533 : #elif defined(__ALBUM_28)
; 1534 : 	if( tblNo > 1615 ){//å¸ƒé‡Œè¨å°” èœœèœ‚1 èœœèœ‚2 è´è¶1 è´è¶2 æš—é»‘ä¹ŒåŠ›çŽ‹ ç‹®äºº1 ç‹®äºº2 ç°äººç†”
; 1535 : 		tblNo -= 1145;
; 1536 : 	}else if( tblNo > 1568 ){//æœºäººé¾™
; 1537 : 		tblNo -= 1103;
; 1538 : 	}else if( tblNo > 1564 ){//é»„è‰²é£žé¾™
; 1539 : 		tblNo -= 1101;
; 1540 : 	}else if( tblNo > 1516 ){
; 1541 : 		tblNo -= 1055;
; 1542 : 	}else if ( tblNo == 1516 ){//ä¿®æ­£ä¹ŒåŠ›çŽ‹
; 1543 : 		tblNo = 455 ;
; 1544 : 	}else if ( tblNo > 1509 ){
; 1545 : 		tblNo -= 1054;
; 1546 : 	}else if ( tblNo == 1497 ){
; 1547 : 		tblNo = 395;
; 1548 : 	}else if ( tblNo > 1495 ){
; 1549 : 		tblNo -= 1044 ;
; 1550 : 	}else if ( tblNo > 1490 ){
; 1551 : 		tblNo -= 1043 ;
; 1552 : 	}else if ( tblNo > 1485 ){
; 1553 : 		tblNo -= 1040 ; 
; 1554 : 	}else if ( tblNo > 1454 ) {
; 1555 : 		tblNo -= 1034 ; 
; 1556 : 	}else if ( tblNo == 1214 ) {
; 1557 : 		tblNo = 331 ;
; 1558 : 	}else if ( tblNo == 1217 ) {
; 1559 : 		tblNo = 328 ; 
; 1560 : 	}else if ( tblNo > 1361){
; 1561 : 		tblNo -= 952;
; 1562 : 	}else if( tblNo > 1356){
; 1563 : 		tblNo -= 999;
; 1564 : 	}else if( tblNo > 1281){
; 1565 : 		tblNo -= 919;
; 1566 : 	}else if( tblNo > 1239){
; 1567 : 		tblNo -= 889;
; 1568 : 	}else if( tblNo > 1186 ){
; 1569 : 		tblNo -= 886;
; 1570 : 	}else if( tblNo > 1173 ){
; 1571 : 		tblNo -= 877;
; 1572 : 	}else if( tblNo > 1172){
; 1573 : 		tblNo -= 877;
; 1574 : 	}else if( tblNo > 1161){
; 1575 : 		tblNo -= 868;
; 1576 : 	}else if( tblNo > 930){
; 1577 : 		tblNo -= 745;
; 1578 : 	}else if( tblNo == 927){
; 1579 : 		tblNo -= 634;
; 1580 : 	}else if( tblNo > 929){
; 1581 : 		tblNo -= 644;
; 1582 : 	}else if( tblNo > 927){
; 1583 : 		tblNo -= 643;
; 1584 : 	}else if( tblNo > 900){
; 1585 : 		tblNo -= 621;
; 1586 : 	}else if( tblNo > 180){
; 1587 : 		tblNo -= (333+56);
; 1588 : 	}
; 1589 : #elif defined(__ALBUM_27)
; 1590 : 	if( tblNo > 1615 ){//å¸ƒé‡Œè¨å°” èœœèœ‚1 èœœèœ‚2 è´è¶1 è´è¶2 æš—é»‘ä¹ŒåŠ›çŽ‹ ç‹®äºº1 ç‹®äºº2
; 1591 : 		tblNo -= 1145;
; 1592 : 	}else if( tblNo > 1568 ){//æœºäººé¾™
; 1593 : 		tblNo -= 1103;
; 1594 : 	}else if( tblNo > 1564 ){//é»„è‰²é£žé¾™
; 1595 : 		tblNo -= 1101;
; 1596 : 	}else if( tblNo > 1516 ){
; 1597 : 		tblNo -= 1055;
; 1598 : 	}else if ( tblNo == 1516 ){//ä¿®æ­£ä¹ŒåŠ›çŽ‹
; 1599 : 		tblNo = 455 ;
; 1600 : 	}else if ( tblNo > 1509 ){
; 1601 : 		tblNo -= 1054;
; 1602 : 	}else if ( tblNo == 1497 ){
; 1603 : 		tblNo = 395;
; 1604 : 	}else if ( tblNo > 1495 ){
; 1605 : 		tblNo -= 1044 ;
; 1606 : 	}else if ( tblNo > 1490 ){
; 1607 : 		tblNo -= 1043 ;
; 1608 : 	}else if ( tblNo > 1485 ){
; 1609 : 		tblNo -= 1040 ; 
; 1610 : 	}else if ( tblNo > 1454 ) {
; 1611 : 		tblNo -= 1034 ; 
; 1612 : 	}else if ( tblNo == 1214 ) {
; 1613 : 		tblNo = 331 ;
; 1614 : 	}else if ( tblNo == 1217 ) {
; 1615 : 		tblNo = 328 ; 
; 1616 : 	}else if ( tblNo > 1361){
; 1617 : 		tblNo -= 952;
; 1618 : 	}else if( tblNo > 1356){
; 1619 : 		tblNo -= 999;
; 1620 : 	}else if( tblNo > 1281){
; 1621 : 		tblNo -= 919;
; 1622 : 	}else if( tblNo > 1239){
; 1623 : 		tblNo -= 889;
; 1624 : 	}else if( tblNo > 1186 ){
; 1625 : 		tblNo -= 886;
; 1626 : 	}else if( tblNo > 1173 ){
; 1627 : 		tblNo -= 877;
; 1628 : 	}else if( tblNo > 1172){
; 1629 : 		tblNo -= 877;
; 1630 : 	}else if( tblNo > 1161){
; 1631 : 		tblNo -= 868;
; 1632 : 	}else if( tblNo > 930){
; 1633 : 		tblNo -= 745;
; 1634 : 	}else if( tblNo == 927){
; 1635 : 		tblNo -= 634;
; 1636 : 	}else if( tblNo > 929){
; 1637 : 		tblNo -= 644;
; 1638 : 	}else if( tblNo > 927){
; 1639 : 		tblNo -= 643;
; 1640 : 	}else if( tblNo > 900){
; 1641 : 		tblNo -= 621;
; 1642 : 	}else if( tblNo > 180){
; 1643 : 		tblNo -= (333+56);
; 1644 : 	}
; 1645 : 
; 1646 : #elif defined(__ALBUM_26)
; 1647 : 	if( tblNo > 1615 ){//å¸ƒé‡Œè¨å°” èœœèœ‚1 èœœèœ‚2 è´è¶1 è´è¶2 æš—é»‘ä¹ŒåŠ›çŽ‹
; 1648 : 		tblNo -= 1145;
; 1649 : 	}else if( tblNo > 1568 ){//æœºäººé¾™
; 1650 : 		tblNo -= 1103;
; 1651 : 	}else if( tblNo > 1564 ){//é»„è‰²é£žé¾™
; 1652 : 		tblNo -= 1101;
; 1653 : 	}else if( tblNo > 1516 ){
; 1654 : 		tblNo -= 1055;
; 1655 : 	}else if ( tblNo == 1516 ){//ä¿®æ­£ä¹ŒåŠ›çŽ‹
; 1656 : 		tblNo = 455 ;
; 1657 : 	}else if ( tblNo > 1509 ){
; 1658 : 		tblNo -= 1054;
; 1659 : 	}else if ( tblNo == 1497 ){
; 1660 : 		tblNo = 395;
; 1661 : 	}else if ( tblNo > 1495 ){
; 1662 : 		tblNo -= 1044 ;
; 1663 : 	}else if ( tblNo > 1490 ){
; 1664 : 		tblNo -= 1043 ;
; 1665 : 	}else if ( tblNo > 1485 ){
; 1666 : 		tblNo -= 1040 ; 
; 1667 : 	}else if ( tblNo > 1454 ) {
; 1668 : 		tblNo -= 1034 ; 
; 1669 : 	}else if ( tblNo == 1214 ) {
; 1670 : 		tblNo = 331 ;
; 1671 : 	}else if ( tblNo == 1217 ) {
; 1672 : 		tblNo = 328 ; 
; 1673 : 	}else if ( tblNo > 1361){
; 1674 : 		tblNo -= 952;
; 1675 : 	}else if( tblNo > 1356){
; 1676 : 		tblNo -= 999;
; 1677 : 	}else if( tblNo > 1281){
; 1678 : 		tblNo -= 919;
; 1679 : 	}else if( tblNo > 1239){
; 1680 : 		tblNo -= 889;
; 1681 : 	}else if( tblNo > 1186 ){
; 1682 : 		tblNo -= 886;
; 1683 : 	}else if( tblNo > 1173 ){
; 1684 : 		tblNo -= 877;
; 1685 : 	}else if( tblNo > 1172){
; 1686 : 		tblNo -= 877;
; 1687 : 	}else if( tblNo > 1161){
; 1688 : 		tblNo -= 868;
; 1689 : 	}else if( tblNo > 930){
; 1690 : 		tblNo -= 745;
; 1691 : 	}else if( tblNo == 927){
; 1692 : 		tblNo -= 634;
; 1693 : 	}else if( tblNo > 929){
; 1694 : 		tblNo -= 644;
; 1695 : 	}else if( tblNo > 927){
; 1696 : 		tblNo -= 643;
; 1697 : 	}else if( tblNo > 900){
; 1698 : 		tblNo -= 621;
; 1699 : 	}else if( tblNo > 180){
; 1700 : 		tblNo -= (333+56);
; 1701 : 	}
; 1702 : #elif defined(__ALBUM_25)
; 1703 : 	if( tblNo > 1615 ){//å¸ƒé‡Œè¨å°”
; 1704 : 		tblNo -= 1145;
; 1705 : 	}else if( tblNo > 1568 ){//æœºäººé¾™
; 1706 : 		tblNo -= 1103;
; 1707 : 	}else if( tblNo > 1564 ){//é»„è‰²é£žé¾™
; 1708 : 		tblNo -= 1101;
; 1709 : 	}else if( tblNo > 1516 ){
; 1710 : 		tblNo -= 1055;
; 1711 : 	}else if ( tblNo == 1516 ){//ä¿®æ­£ä¹ŒåŠ›çŽ‹
; 1712 : 		tblNo = 455 ;
; 1713 : 	}else if ( tblNo > 1509 ){
; 1714 : 		tblNo -= 1054;
; 1715 : 	}else if ( tblNo == 1497 ){
; 1716 : 		tblNo = 395;
; 1717 : 	}else if ( tblNo > 1495 ){
; 1718 : 		tblNo -= 1044 ;
; 1719 : 	}else if ( tblNo > 1490 ){
; 1720 : 		tblNo -= 1043 ;
; 1721 : 	}else if ( tblNo > 1485 ){
; 1722 : 		tblNo -= 1040 ; 
; 1723 : 	}else if ( tblNo > 1454 ) {
; 1724 : 		tblNo -= 1034 ; 
; 1725 : 	}else if ( tblNo == 1214 ) {
; 1726 : 		tblNo = 331 ;
; 1727 : 	}else if ( tblNo == 1217 ) {
; 1728 : 		tblNo = 328 ; 
; 1729 : 	}else if ( tblNo > 1361){
; 1730 : 		tblNo -= 952;
; 1731 : 	}else if( tblNo > 1356){
; 1732 : 		tblNo -= 999;
; 1733 : 	}else if( tblNo > 1281){
; 1734 : 		tblNo -= 919;
; 1735 : 	}else if( tblNo > 1239){
; 1736 : 		tblNo -= 889;
; 1737 : 	}else if( tblNo > 1186 ){
; 1738 : 		tblNo -= 886;
; 1739 : 	}else if( tblNo > 1173 ){
; 1740 : 		tblNo -= 877;
; 1741 : 	}else if( tblNo > 1172){
; 1742 : 		tblNo -= 877;
; 1743 : 	}else if( tblNo > 1161){
; 1744 : 		tblNo -= 868;
; 1745 : 	}else if( tblNo > 930){
; 1746 : 		tblNo -= 745;
; 1747 : 	}else if( tblNo == 927){
; 1748 : 		tblNo -= 634;
; 1749 : 	}else if( tblNo > 929){
; 1750 : 		tblNo -= 644;
; 1751 : 	}else if( tblNo > 927){
; 1752 : 		tblNo -= 643;
; 1753 : 	}else if( tblNo > 900){
; 1754 : 		tblNo -= 621;
; 1755 : 	}else if( tblNo > 180){
; 1756 : 		tblNo -= (333+56);
; 1757 : 	}
; 1758 : #elif defined(__ALBUM_24)
; 1759 : 	if( tblNo > 1568 ){//æœºäººé¾™
; 1760 : 		tblNo -= 1103;
; 1761 : 	}else if( tblNo > 1564 ){//é»„è‰²é£žé¾™
; 1762 : 		tblNo -= 1101;
; 1763 : 	}else if( tblNo > 1516 ){
; 1764 : 		tblNo -= 1055;
; 1765 : 	}else if ( tblNo == 1516 ){//ä¿®æ­£ä¹ŒåŠ›çŽ‹
; 1766 : 		tblNo = 455 ;
; 1767 : 	}else if ( tblNo > 1509 ){
; 1768 : 		tblNo -= 1054;
; 1769 : 	}else if ( tblNo == 1497 ){
; 1770 : 		tblNo = 395;
; 1771 : 	}else if ( tblNo > 1495 ){
; 1772 : 		tblNo -= 1044 ;
; 1773 : 	}else if ( tblNo > 1490 ){
; 1774 : 		tblNo -= 1043 ;
; 1775 : 	}else if ( tblNo > 1485 ){
; 1776 : 		tblNo -= 1040 ; 
; 1777 : 	}else if ( tblNo > 1454 ) {
; 1778 : 		tblNo -= 1034 ; 
; 1779 : 	}else if ( tblNo == 1214 ) {
; 1780 : 		tblNo = 331 ;
; 1781 : 	}else if ( tblNo == 1217 ) {
; 1782 : 		tblNo = 328 ; 
; 1783 : 	}else if ( tblNo > 1361){
; 1784 : 		tblNo -= 952;
; 1785 : 	}else if( tblNo > 1356){
; 1786 : 		tblNo -= 999;
; 1787 : 	}else if( tblNo > 1281){
; 1788 : 		tblNo -= 919;
; 1789 : 	}else if( tblNo > 1239){
; 1790 : 		tblNo -= 889;
; 1791 : 	}else if( tblNo > 1186 ){
; 1792 : 		tblNo -= 886;
; 1793 : 	}else if( tblNo > 1173 ){
; 1794 : 		tblNo -= 877;
; 1795 : 	}else if( tblNo > 1172){
; 1796 : 		tblNo -= 877;
; 1797 : 	}else if( tblNo > 1161){
; 1798 : 		tblNo -= 868;
; 1799 : 	}else if( tblNo > 930){
; 1800 : 		tblNo -= 745;
; 1801 : 	}else if( tblNo == 927){
; 1802 : 		tblNo -= 634;
; 1803 : 	}else if( tblNo > 929){
; 1804 : 		tblNo -= 644;
; 1805 : 	}else if( tblNo > 927){
; 1806 : 		tblNo -= 643;
; 1807 : 	}else if( tblNo > 900){
; 1808 : 		tblNo -= 621;
; 1809 : 	}else if( tblNo > 180){
; 1810 : 		tblNo -= (333+56);
; 1811 : 	}
; 1812 : #elif defined(__ALBUM_23)
; 1813 : 	if( tblNo > 1518 ){
; 1814 : 		tblNo -= 1057;
; 1815 : 	}else if( tblNo > 1516 ){
; 1816 : 		tblNo -= 1055;
; 1817 : 	}else if ( tblNo == 1516 ){//ä¿®æ­£ä¹ŒåŠ›çŽ‹
; 1818 : 		tblNo = 455 ;
; 1819 : 	}else if ( tblNo > 1509 ){
; 1820 : 		tblNo -= 1054;
; 1821 : 	}else if ( tblNo == 1497 ){
; 1822 : 		tblNo = 395;
; 1823 : 	}else if ( tblNo > 1495 ){
; 1824 : 		tblNo -= 1044 ;
; 1825 : 	}else if ( tblNo > 1490 ){
; 1826 : 		tblNo -= 1043 ;
; 1827 : 	}else if ( tblNo > 1485 ){
; 1828 : 		tblNo -= 1040 ; 
; 1829 : 	}else if ( tblNo > 1454 ) {
; 1830 : 		tblNo -= 1034 ; 
; 1831 : 	}else if ( tblNo == 1214 ) {
; 1832 : 		tblNo = 331 ;
; 1833 : 	}else if ( tblNo == 1217 ) {
; 1834 : 		tblNo = 328 ; 
; 1835 : 	}else if ( tblNo > 1361){
; 1836 : 		tblNo -= 952;
; 1837 : 	}else if( tblNo > 1356){
; 1838 : 		tblNo -= 999;
; 1839 : 	}else if( tblNo > 1281){
; 1840 : 		tblNo -= 919;
; 1841 : 	}else if( tblNo > 1239){
; 1842 : 		tblNo -= 889;
; 1843 : 	}else if( tblNo > 1186 ){
; 1844 : 		tblNo -= 886;
; 1845 : 	}else if( tblNo > 1173 ){
; 1846 : 		tblNo -= 877;
; 1847 : 	}else if( tblNo > 1172){
; 1848 : 		tblNo -= 877;
; 1849 : 	}else if( tblNo > 1161){
; 1850 : 		tblNo -= 868;
; 1851 : 	}else if( tblNo > 930){
; 1852 : 		tblNo -= 745;
; 1853 : 	}else if( tblNo == 927){
; 1854 : 		tblNo -= 634;
; 1855 : 	}else if( tblNo > 929){
; 1856 : 		tblNo -= 644;
; 1857 : 	}else if( tblNo > 927){
; 1858 : 		tblNo -= 643;
; 1859 : 	}else if( tblNo > 900){
; 1860 : 		tblNo -= 621;
; 1861 : 	}else if( tblNo > 180){
; 1862 : 		tblNo -= (333+56);
; 1863 : 	}
; 1864 : #elif defined(__ALBUM_22)
; 1865 : 	if ( tblNo == 1516 ){//ä¿®æ­£ä¹ŒåŠ›çŽ‹
; 1866 : 		tblNo = 455 ;
; 1867 : 	}else if ( tblNo > 1509 ){
; 1868 : 		tblNo -= 1054;
; 1869 : 	}else if ( tblNo == 1497 ){
; 1870 : 		tblNo = 395;
; 1871 : 	}else if ( tblNo > 1495 ){
; 1872 : 		tblNo -= 1044 ;
; 1873 : 	}else if ( tblNo > 1490 ){
; 1874 : 		tblNo -= 1043 ;
; 1875 : 	}else if ( tblNo > 1485 ){
; 1876 : 		tblNo -= 1040 ; 
; 1877 : 	}else if ( tblNo > 1454 ) {
; 1878 : 		tblNo -= 1034 ; 
; 1879 : 	}else if ( tblNo == 1214 ) {
; 1880 : 		tblNo = 331 ;
; 1881 : 	}else if ( tblNo == 1217 ) {
; 1882 : 		tblNo = 328 ; 
; 1883 : 	}else if ( tblNo > 1361){
; 1884 : 		tblNo -= 952;
; 1885 : 	}else if( tblNo > 1356){
; 1886 : 		tblNo -= 999;
; 1887 : 	}else if( tblNo > 1281){
; 1888 : 		tblNo -= 919;
; 1889 : 	}else if( tblNo > 1239){
; 1890 : 		tblNo -= 889;
; 1891 : 	}else if( tblNo > 1186 ){
; 1892 : 		tblNo -= 886;
; 1893 : 	}else if( tblNo > 1173 ){
; 1894 : 		tblNo -= 877;
; 1895 : 	}else if( tblNo > 1172){
; 1896 : 		tblNo -= 877;
; 1897 : 	}else if( tblNo > 1161){
; 1898 : 		tblNo -= 868;
; 1899 : 	}else if( tblNo > 930){
; 1900 : 		tblNo -= 745;
; 1901 : 	}else if( tblNo == 927){
; 1902 : 		tblNo -= 634;
; 1903 : 	}else if( tblNo > 929){
; 1904 : 		tblNo -= 644;
; 1905 : 	}else if( tblNo > 927){
; 1906 : 		tblNo -= 643;
; 1907 : 	}else if( tblNo > 900){
; 1908 : 		tblNo -= 621;
; 1909 : 	}else if( tblNo > 180){
; 1910 : 		tblNo -= (333+56);
; 1911 : 	}				
; 1912 : #elif defined(__ALBUM_21)
; 1913 : 	if ( tblNo > 1509 ){
; 1914 : 		tblNo -= 1054;
; 1915 : 	}else if ( tblNo == 1497 ){
; 1916 : 		tblNo = 395;
; 1917 : 	}else if ( tblNo > 1495 ){
; 1918 : 		tblNo -= 1044 ;
; 1919 : 	}else if ( tblNo > 1490 ){
; 1920 : 		tblNo -= 1043 ;
; 1921 : 	}else if ( tblNo > 1485 ){
; 1922 : 		tblNo -= 1040 ; 
; 1923 : 	}else if ( tblNo > 1454 ) {
; 1924 : 		tblNo -= 1034 ; 
; 1925 : 	}else if ( tblNo == 1214 ) {
; 1926 : 		tblNo = 331 ;
; 1927 : 	}else if ( tblNo == 1217 ) {
; 1928 : 		tblNo = 328 ; 
; 1929 : 	}else if ( tblNo > 1361){
; 1930 : 		tblNo -= 952;
; 1931 : 	}else if( tblNo > 1356){
; 1932 : 		tblNo -= 999;
; 1933 : 	}else if( tblNo > 1281){
; 1934 : 		tblNo -= 919;
; 1935 : 	}else if( tblNo > 1239){
; 1936 : 		tblNo -= 889;
; 1937 : 	}else if( tblNo > 1186 ){
; 1938 : 		tblNo -= 886;
; 1939 : 	}else if( tblNo > 1173 ){
; 1940 : 		tblNo -= 877;
; 1941 : 	}else if( tblNo > 1172){
; 1942 : 		tblNo -= 877;
; 1943 : 	}else if( tblNo > 1161){
; 1944 : 		tblNo -= 868;
; 1945 : 	}else if( tblNo > 930){
; 1946 : 		tblNo -= 745;
; 1947 : 	}else if( tblNo == 927){
; 1948 : 		tblNo -= 634;
; 1949 : 	}else if( tblNo > 929){
; 1950 : 		tblNo -= 644;
; 1951 : 	}else if( tblNo > 927){
; 1952 : 		tblNo -= 643;
; 1953 : 	}else if( tblNo > 900){
; 1954 : 		tblNo -= 621;
; 1955 : 	}else if( tblNo > 180){
; 1956 : 		tblNo -= (333+56);
; 1957 : 	}						
; 1958 : #elif defined(__ALBUM_20)
; 1959 : 	if ( tblNo == 1497 ){
; 1960 : 		tblNo = 395;
; 1961 : 	}else if ( tblNo > 1495 ){
; 1962 : 		tblNo -= 1044 ;
; 1963 : 	}else if ( tblNo > 1490 ){
; 1964 : 		tblNo -= 1043 ;
; 1965 : 	}else if ( tblNo > 1485 ){
; 1966 : 		tblNo -= 1040 ; 
; 1967 : 	}else if ( tblNo > 1454 ) {
; 1968 : 		tblNo -= 1034 ; 
; 1969 : 	}else if ( tblNo == 1214 ) {
; 1970 : 		tblNo = 331 ;
; 1971 : 	}else if ( tblNo == 1217 ) {
; 1972 : 		tblNo = 328 ; 
; 1973 : 	}else if ( tblNo > 1361){
; 1974 : 		tblNo -= 952;
; 1975 : 	}else if( tblNo > 1356){
; 1976 : 		tblNo -= 999;
; 1977 : 	}else if( tblNo > 1281){
; 1978 : 		tblNo -= 919;
; 1979 : 	}else if( tblNo > 1239){
; 1980 : 		tblNo -= 889;
; 1981 : 	}else if( tblNo > 1186 ){
; 1982 : 		tblNo -= 886;
; 1983 : 	}else if( tblNo > 1173 ){
; 1984 : 		tblNo -= 877;
; 1985 : 	}else if( tblNo > 1172){
; 1986 : 		tblNo -= 877;
; 1987 : 	}else if( tblNo > 1161){
; 1988 : 		tblNo -= 868;
; 1989 : 	}else if( tblNo > 930){
; 1990 : 		tblNo -= 745;
; 1991 : 	}else if( tblNo == 927){
; 1992 : 		tblNo -= 634;
; 1993 : 	}else if( tblNo > 929){
; 1994 : 		tblNo -= 644;
; 1995 : 	}else if( tblNo > 927){
; 1996 : 		tblNo -= 643;
; 1997 : 	}else if( tblNo > 900){
; 1998 : 		tblNo -= 621;
; 1999 : 	}else if( tblNo > 180){
; 2000 : 		tblNo -= (333+56);
; 2001 : 	}						
; 2002 : #elif defined(__ALBUM_19)
; 2003 : 	if ( tblNo > 1485 ) {
; 2004 : 		tblNo -= 1040 ; 
; 2005 : 	}else if ( tblNo > 1454 ) {
; 2006 : 		tblNo -= 1034 ; 
; 2007 : 	}else if ( tblNo == 1214 ) {
; 2008 : 		tblNo = 331 ;
; 2009 : 	}else if ( tblNo == 1217 ) {
; 2010 : 		tblNo = 328 ; 
; 2011 : 	}else if ( tblNo > 1361){
; 2012 : 		tblNo -= 952;
; 2013 : 	}else if( tblNo > 1356){
; 2014 : 		tblNo -= 999;
; 2015 : 	}else if( tblNo > 1281){
; 2016 : 		tblNo -= 919;
; 2017 : 	}else if( tblNo > 1239){
; 2018 : 		tblNo -= 889;
; 2019 : 	}else if( tblNo > 1186 ){
; 2020 : 		tblNo -= 886;
; 2021 : 	}else if( tblNo > 1173 ){
; 2022 : 		tblNo -= 877;
; 2023 : 	}else if( tblNo > 1172){
; 2024 : 		tblNo -= 877;
; 2025 : 	}else if( tblNo > 1161){
; 2026 : 		tblNo -= 868;
; 2027 : 	}else if( tblNo > 930){
; 2028 : 		tblNo -= 745;
; 2029 : 	}else if( tblNo == 927){
; 2030 : 		tblNo -= 634;
; 2031 : 	}else if( tblNo > 929){
; 2032 : 		tblNo -= 644;
; 2033 : 	}else if( tblNo > 927){
; 2034 : 		tblNo -= 643;
; 2035 : 	}else if( tblNo > 900){
; 2036 : 		tblNo -= 621;
; 2037 : 	}else if( tblNo > 180){
; 2038 : 		tblNo -= (333+56);
; 2039 : 	}
; 2040 : #elif defined(__ALBUM_18)
; 2041 : 	if ( tblNo > 1490 ){
; 2042 : 		tblNo -= 1044;
; 2043 : 	}else if ( tblNo > 1485 ) {
; 2044 : 		tblNo -= 1040 ; 
; 2045 : 	}else if ( tblNo > 1454 ) {
; 2046 : 		tblNo -= 1034 ; 
; 2047 : 	}else if ( tblNo == 1214 ) {
; 2048 : 		tblNo = 331 ;
; 2049 : 	}else if ( tblNo == 1217 ) {
; 2050 : 		tblNo = 328 ; 
; 2051 : 	}else if ( tblNo > 1361){
; 2052 : 		tblNo -= 952;
; 2053 : 	}else if( tblNo > 1356){
; 2054 : 		tblNo -= 999;
; 2055 : 	}else if( tblNo > 1281){
; 2056 : 		tblNo -= 919;
; 2057 : 	}else if( tblNo > 1239){
; 2058 : 		tblNo -= 889;
; 2059 : 	}else if( tblNo > 1186 ){
; 2060 : 		tblNo -= 886;
; 2061 : 	}else if( tblNo > 1173 ){
; 2062 : 		tblNo -= 877;
; 2063 : 	}else if( tblNo > 1172){
; 2064 : 		tblNo -= 877;
; 2065 : 	}else if( tblNo > 1161){
; 2066 : 		tblNo -= 868;
; 2067 : 	}else if( tblNo > 930){
; 2068 : 		tblNo -= 745;
; 2069 : 	}else if( tblNo == 927){
; 2070 : 		tblNo -= 634;
; 2071 : 	}else if( tblNo > 929){
; 2072 : 		tblNo -= 644;
; 2073 : 	}else if( tblNo > 927){
; 2074 : 		tblNo -= 643;
; 2075 : 	}else if( tblNo > 900){
; 2076 : 		tblNo -= 621;
; 2077 : 	}else if( tblNo > 180){
; 2078 : 		tblNo -= (333+56);
; 2079 : 	}
; 2080 : #elif defined(__ALBUM_17)
; 2081 : 	if ( tblNo > 1454 ) {
; 2082 : 		tblNo -= 1034 ; 
; 2083 : 	}else if ( tblNo == 1214 ) {
; 2084 : 		tblNo = 331 ;
; 2085 : 	}else if ( tblNo == 1217 ) {
; 2086 : 		tblNo = 328 ; 
; 2087 : 	}else if ( tblNo > 1361){
; 2088 : 		tblNo -= 952;
; 2089 : 	}else if( tblNo > 1356){
; 2090 : 		tblNo -= 999;
; 2091 : 	}else if( tblNo > 1281){
; 2092 : 		tblNo -= 919;
; 2093 : 	}else if( tblNo > 1239){
; 2094 : 		tblNo -= 889;
; 2095 : 	}else if( tblNo > 1186 ){
; 2096 : 		tblNo -= 886;
; 2097 : 	}else if( tblNo > 1173 ){
; 2098 : 		tblNo -= 877;
; 2099 : 	}else if( tblNo > 1172){
; 2100 : 		tblNo -= 877;
; 2101 : 	}else if( tblNo > 1161){
; 2102 : 		tblNo -= 868;
; 2103 : 	}else if( tblNo > 930){
; 2104 : 		tblNo -= 745;
; 2105 : 	}else if( tblNo == 927){
; 2106 : 		tblNo -= 634;
; 2107 : 	}else if( tblNo > 929){
; 2108 : 		tblNo -= 644;
; 2109 : 	}else if( tblNo > 927){
; 2110 : 		tblNo -= 643;
; 2111 : 	}else if( tblNo > 900){
; 2112 : 		tblNo -= 621;
; 2113 : 	}else if( tblNo > 180){
; 2114 : 		tblNo -= (333+56);
; 2115 : 	}
; 2116 : #elif defined(__ALBUM_16)
; 2117 : 	if ( tblNo == 1214 ) {
; 2118 : 		tblNo = 331 ;
; 2119 : 	}else if ( tblNo == 1217 ) {
; 2120 : 		tblNo = 328 ; 
; 2121 : 	}else if ( tblNo > 1361){
; 2122 : 		tblNo -= 952;
; 2123 : 	}else if( tblNo > 1356){
; 2124 : 		tblNo -= 999;
; 2125 : 	}else if( tblNo > 1281){
; 2126 : 		tblNo -= 919;
; 2127 : 	}else if( tblNo > 1239){
; 2128 : 		tblNo -= 889;
; 2129 : 	}else if( tblNo > 1186 ){
; 2130 : 		tblNo -= 886;
; 2131 : 	}else if( tblNo > 1173 ){
; 2132 : 		tblNo -= 877;
; 2133 : 	}else if( tblNo > 1172){
; 2134 : 		tblNo -= 877;
; 2135 : 	}else if( tblNo > 1161){
; 2136 : 		tblNo -= 868;
; 2137 : 	}else if( tblNo > 930){
; 2138 : 		tblNo -= 745;
; 2139 : 	}else if( tblNo == 927){
; 2140 : 		tblNo -= 634;
; 2141 : 	}else if( tblNo > 929){
; 2142 : 		tblNo -= 644;
; 2143 : 	}else if( tblNo > 927){
; 2144 : 		tblNo -= 643;
; 2145 : 	}else if( tblNo > 900){
; 2146 : 		tblNo -= 621;
; 2147 : 	}else if( tblNo > 180){
; 2148 : 		tblNo -= (333+56);
; 2149 : 	}
; 2150 : #elif defined(__ALBUM_15)
; 2151 : 	if ( tblNo == 1214 ) {
; 2152 : 		tblNo = 331 ;
; 2153 : 	}else if ( tblNo == 1217 ) {
; 2154 : 		tblNo = 328 ; 
; 2155 : 	}else if ( tblNo > 1361){
; 2156 : 		tblNo -= 952;
; 2157 : 	}else if( tblNo > 1356){
; 2158 : 		tblNo -= 999;
; 2159 : 	}else if( tblNo > 1281){
; 2160 : 		tblNo -= 919;
; 2161 : 	}else if( tblNo > 1239){
; 2162 : 		tblNo -= 889;
; 2163 : 	}else if( tblNo > 1186 ){
; 2164 : 		tblNo -= 886;
; 2165 : 	}else if( tblNo > 1173 ){
; 2166 : 		tblNo -= 877;
; 2167 : 	}else if( tblNo > 1172){
; 2168 : 		tblNo -= 877;
; 2169 : 	}else if( tblNo > 1161){
; 2170 : 		tblNo -= 868;
; 2171 : 	}else if( tblNo > 930){
; 2172 : 		tblNo -= 745;
; 2173 : 	}else if( tblNo == 927){
; 2174 : 		tblNo -= 634;
; 2175 : 	}else if( tblNo > 929){
; 2176 : 		tblNo -= 644;
; 2177 : 	}else if( tblNo > 927){
; 2178 : 		tblNo -= 643;
; 2179 : 	}else if( tblNo > 900){
; 2180 : 		tblNo -= 621;
; 2181 : 	}else if( tblNo > 180){
; 2182 : 		tblNo -= (333+56);
; 2183 : 	}
; 2184 : #endif
; 2185 : 	return tblNo;
; 2186 : }

  00033	5d		 pop	 ebp
  00034	c3		 ret	 0
$LN6@GetPettblN:

; 267  : 	}else if (tblNo > 1686 ){			//8.0å® ç‰©

  00035	3d 96 06 00 00	 cmp	 eax, 1686		; 00000696H
  0003a	7e 07		 jle	 SHORT $LN8@GetPettblN

; 268  : 		tblNo -= 1175;

  0003c	2d 97 04 00 00	 sub	 eax, 1175		; 00000497H

; 331  : 	}
; 332  : #elif defined(__ALBUM_46)
; 333  : 	if( tblNo > 1800 ){					//å°æ¶é­”
; 334  : 		tblNo -= 1208;
; 335  : 	}else if( tblNo > 1755 ){					//é—´éš”å—ç“œé­”çŽ‹åŽçš„ ç‹çŒ´
; 336  : 		tblNo -= 1201 ;
; 337  : 	}else if (tblNo > 1739 ){			//é£žè›‡
; 338  : 		tblNo -= 1200;
; 339  : 	}else if (tblNo > 1686 ){			//8.0å® ç‰©
; 340  : 		tblNo -= 1175;
; 341  : 	}else if (tblNo > 1641 ){			//é¸¡å¹´å…½4 ç”²è™«2	8.0ç¬¬ä¸€æ¬¡æ•´åˆæµ‹è¯•
; 342  : 		tblNo -= 1167;
; 343  : 	}else if (tblNo > 1635 ){   //éº’éºŸ
; 344  : 		tblNo -= 1148;
; 345  : 	}else if ( tblNo > 1634 ){	//çŒ«å¥³1 çŒ«å¥³2
; 346  : 		tblNo -= 1149;
; 347  : 	}else if ( tblNo > 1628 ){	//ç«èš1 ç«èš2 ç‰›äºº1 ç‰›äºº2
; 348  : 		tblNo -= 1147;
; 349  : 	}else if( tblNo > 1615 ){//å¸ƒé‡Œè¨å°” èœœèœ‚1 èœœèœ‚2 è´è¶1 è´è¶2 æš—é»‘ä¹ŒåŠ›çŽ‹ ç‹®äºº1 ç‹®äºº2 ç°äººç†” ç™½ç‹¼ å¸ƒä¼Šé…·
; 350  : 		tblNo -= 1145;
; 351  : 	}else if( tblNo > 1568 ){//æœºäººé¾™
; 352  : 		tblNo -= 1103;
; 353  : 	}else if( tblNo > 1564 ){//é»„è‰²é£žé¾™
; 354  : 		tblNo -= 1101;
; 355  : 	}else if( tblNo > 1516 ){
; 356  : 		tblNo -= 1055;
; 357  : 	}else if ( tblNo == 1516 ){//ä¿®æ­£ä¹ŒåŠ›çŽ‹
; 358  : 		tblNo = 455 ;
; 359  : 	}else if ( tblNo > 1509 ){
; 360  : 		tblNo -= 1054;
; 361  : 	}else if ( tblNo == 1497 ){
; 362  : 		tblNo = 395;
; 363  : 	}else if ( tblNo > 1495 ){
; 364  : 		tblNo -= 1044 ;
; 365  : 	}else if ( tblNo > 1490 ){
; 366  : 		tblNo -= 1043 ;
; 367  : 	}else if ( tblNo > 1485 ){
; 368  : 		tblNo -= 1040 ; 
; 369  : 	}else if ( tblNo > 1454 ) {
; 370  : 		tblNo -= 1034 ; 
; 371  : 	}else if ( tblNo == 1214 ) {
; 372  : 		tblNo = 331 ;
; 373  : 	}else if ( tblNo == 1217 ) {
; 374  : 		tblNo = 328 ; 
; 375  : 	}else if ( tblNo > 1361){
; 376  : 		tblNo -= 952;
; 377  : 	}else if( tblNo > 1356){
; 378  : 		tblNo -= 999;
; 379  : 	}else if( tblNo > 1281){
; 380  : 		tblNo -= 919;
; 381  : 	}else if( tblNo > 1239){
; 382  : 		tblNo -= 889;
; 383  : 	}else if( tblNo > 1186 ){
; 384  : 		tblNo -= 886;
; 385  : 	}else if( tblNo > 1173 ){
; 386  : 		tblNo -= 877;
; 387  : 	}else if( tblNo > 1172){
; 388  : 		tblNo -= 877;
; 389  : 	}else if( tblNo > 1161){
; 390  : 		tblNo -= 868;
; 391  : 	}else if( tblNo > 930){
; 392  : 		tblNo -= 745;
; 393  : 	}else if( tblNo == 927){
; 394  : 		tblNo -= 634;
; 395  : 	}else if( tblNo > 929){
; 396  : 		tblNo -= 644;
; 397  : 	}else if( tblNo > 927){
; 398  : 		tblNo -= 643;
; 399  : 	}else if( tblNo > 900){
; 400  : 		tblNo -= 621;
; 401  : 	}else if( tblNo > 180){
; 402  : 		tblNo -= (333+56);
; 403  : 	}
; 404  : #elif defined(__ALBUM_45)
; 405  : 	if( tblNo > 1800 ){					//å°æ¶é­”
; 406  : 		tblNo -= 1208;
; 407  : 	}else if( tblNo > 1755 ){					//é—´éš”å—ç“œé­”çŽ‹åŽçš„ ç‹çŒ´
; 408  : 		tblNo -= 1201 ;
; 409  : 	}else if (tblNo > 1739 ){			//é£žè›‡
; 410  : 		tblNo -= 1200;
; 411  : 	}else if (tblNo > 1686 ){			//8.0å® ç‰©
; 412  : 		tblNo -= 1175;
; 413  : 	}else if (tblNo > 1641 ){			//é¸¡å¹´å…½4 ç”²è™«2	8.0ç¬¬ä¸€æ¬¡æ•´åˆæµ‹è¯•
; 414  : 		tblNo -= 1167;
; 415  : 	}else if (tblNo > 1635 ){   //éº’éºŸ
; 416  : 		tblNo -= 1148;
; 417  : 	}else if ( tblNo > 1634 ){	//çŒ«å¥³1 çŒ«å¥³2
; 418  : 		tblNo -= 1149;
; 419  : 	}else if ( tblNo > 1628 ){	//ç«èš1 ç«èš2 ç‰›äºº1 ç‰›äºº2
; 420  : 		tblNo -= 1147;
; 421  : 	}else if( tblNo > 1615 ){//å¸ƒé‡Œè¨å°” èœœèœ‚1 èœœèœ‚2 è´è¶1 è´è¶2 æš—é»‘ä¹ŒåŠ›çŽ‹ ç‹®äºº1 ç‹®äºº2 ç°äººç†” ç™½ç‹¼ å¸ƒä¼Šé…·
; 422  : 		tblNo -= 1145;
; 423  : 	}else if( tblNo > 1568 ){//æœºäººé¾™
; 424  : 		tblNo -= 1103;
; 425  : 	}else if( tblNo > 1564 ){//é»„è‰²é£žé¾™
; 426  : 		tblNo -= 1101;
; 427  : 	}else if( tblNo > 1516 ){
; 428  : 		tblNo -= 1055;
; 429  : 	}else if ( tblNo == 1516 ){//ä¿®æ­£ä¹ŒåŠ›çŽ‹
; 430  : 		tblNo = 455 ;
; 431  : 	}else if ( tblNo > 1509 ){
; 432  : 		tblNo -= 1054;
; 433  : 	}else if ( tblNo == 1497 ){
; 434  : 		tblNo = 395;
; 435  : 	}else if ( tblNo > 1495 ){
; 436  : 		tblNo -= 1044 ;
; 437  : 	}else if ( tblNo > 1490 ){
; 438  : 		tblNo -= 1043 ;
; 439  : 	}else if ( tblNo > 1485 ){
; 440  : 		tblNo -= 1040 ; 
; 441  : 	}else if ( tblNo > 1454 ) {
; 442  : 		tblNo -= 1034 ; 
; 443  : 	}else if ( tblNo == 1214 ) {
; 444  : 		tblNo = 331 ;
; 445  : 	}else if ( tblNo == 1217 ) {
; 446  : 		tblNo = 328 ; 
; 447  : 	}else if ( tblNo > 1361){
; 448  : 		tblNo -= 952;
; 449  : 	}else if( tblNo > 1356){
; 450  : 		tblNo -= 999;
; 451  : 	}else if( tblNo > 1281){
; 452  : 		tblNo -= 919;
; 453  : 	}else if( tblNo > 1239){
; 454  : 		tblNo -= 889;
; 455  : 	}else if( tblNo > 1186 ){
; 456  : 		tblNo -= 886;
; 457  : 	}else if( tblNo > 1173 ){
; 458  : 		tblNo -= 877;
; 459  : 	}else if( tblNo > 1172){
; 460  : 		tblNo -= 877;
; 461  : 	}else if( tblNo > 1161){
; 462  : 		tblNo -= 868;
; 463  : 	}else if( tblNo > 930){
; 464  : 		tblNo -= 745;
; 465  : 	}else if( tblNo == 927){
; 466  : 		tblNo -= 634;
; 467  : 	}else if( tblNo > 929){
; 468  : 		tblNo -= 644;
; 469  : 	}else if( tblNo > 927){
; 470  : 		tblNo -= 643;
; 471  : 	}else if( tblNo > 900){
; 472  : 		tblNo -= 621;
; 473  : 	}else if( tblNo > 180){
; 474  : 		tblNo -= (333+56);
; 475  : 	}
; 476  : #elif defined(__ALBUM_44)
; 477  : 	if( tblNo > 1800 ){					//å°æ¶é­”
; 478  : 		tblNo -= 1208;
; 479  : 	}else if( tblNo > 1755 ){					//é—´éš”å—ç“œé­”çŽ‹åŽçš„ ç‹çŒ´
; 480  : 		tblNo -= 1201 ;
; 481  : 	}else if (tblNo > 1739 ){			//é£žè›‡
; 482  : 		tblNo -= 1200;
; 483  : 	}else if (tblNo > 1686 ){			//8.0å® ç‰©
; 484  : 		tblNo -= 1175;
; 485  : 	}else if (tblNo > 1641 ){			//é¸¡å¹´å…½4 ç”²è™«2	8.0ç¬¬ä¸€æ¬¡æ•´åˆæµ‹è¯•
; 486  : 		tblNo -= 1167;
; 487  : 	}else if (tblNo > 1635 ){   //éº’éºŸ
; 488  : 		tblNo -= 1148;
; 489  : 	}else if ( tblNo > 1634 ){	//çŒ«å¥³1 çŒ«å¥³2
; 490  : 		tblNo -= 1149;
; 491  : 	}else if ( tblNo > 1628 ){	//ç«èš1 ç«èš2 ç‰›äºº1 ç‰›äºº2
; 492  : 		tblNo -= 1147;
; 493  : 	}else if( tblNo > 1615 ){//å¸ƒé‡Œè¨å°” èœœèœ‚1 èœœèœ‚2 è´è¶1 è´è¶2 æš—é»‘ä¹ŒåŠ›çŽ‹ ç‹®äºº1 ç‹®äºº2 ç°äººç†” ç™½ç‹¼ å¸ƒä¼Šé…·
; 494  : 		tblNo -= 1145;
; 495  : 	}else if( tblNo > 1568 ){//æœºäººé¾™
; 496  : 		tblNo -= 1103;
; 497  : 	}else if( tblNo > 1564 ){//é»„è‰²é£žé¾™
; 498  : 		tblNo -= 1101;
; 499  : 	}else if( tblNo > 1516 ){
; 500  : 		tblNo -= 1055;
; 501  : 	}else if ( tblNo == 1516 ){//ä¿®æ­£ä¹ŒåŠ›çŽ‹
; 502  : 		tblNo = 455 ;
; 503  : 	}else if ( tblNo > 1509 ){
; 504  : 		tblNo -= 1054;
; 505  : 	}else if ( tblNo == 1497 ){
; 506  : 		tblNo = 395;
; 507  : 	}else if ( tblNo > 1495 ){
; 508  : 		tblNo -= 1044 ;
; 509  : 	}else if ( tblNo > 1490 ){
; 510  : 		tblNo -= 1043 ;
; 511  : 	}else if ( tblNo > 1485 ){
; 512  : 		tblNo -= 1040 ; 
; 513  : 	}else if ( tblNo > 1454 ) {
; 514  : 		tblNo -= 1034 ; 
; 515  : 	}else if ( tblNo == 1214 ) {
; 516  : 		tblNo = 331 ;
; 517  : 	}else if ( tblNo == 1217 ) {
; 518  : 		tblNo = 328 ; 
; 519  : 	}else if ( tblNo > 1361){
; 520  : 		tblNo -= 952;
; 521  : 	}else if( tblNo > 1356){
; 522  : 		tblNo -= 999;
; 523  : 	}else if( tblNo > 1281){
; 524  : 		tblNo -= 919;
; 525  : 	}else if( tblNo > 1239){
; 526  : 		tblNo -= 889;
; 527  : 	}else if( tblNo > 1186 ){
; 528  : 		tblNo -= 886;
; 529  : 	}else if( tblNo > 1173 ){
; 530  : 		tblNo -= 877;
; 531  : 	}else if( tblNo > 1172){
; 532  : 		tblNo -= 877;
; 533  : 	}else if( tblNo > 1161){
; 534  : 		tblNo -= 868;
; 535  : 	}else if( tblNo > 930){
; 536  : 		tblNo -= 745;
; 537  : 	}else if( tblNo == 927){
; 538  : 		tblNo -= 634;
; 539  : 	}else if( tblNo > 929){
; 540  : 		tblNo -= 644;
; 541  : 	}else if( tblNo > 927){
; 542  : 		tblNo -= 643;
; 543  : 	}else if( tblNo > 900){
; 544  : 		tblNo -= 621;
; 545  : 	}else if( tblNo > 180){
; 546  : 		tblNo -= (333+56);
; 547  : 	}
; 548  : #elif defined(__ALBUM_43)
; 549  : 	if( tblNo > 1800 ){					//å°æ¶é­”
; 550  : 		tblNo -= 1208;
; 551  : 	}else if( tblNo > 1755 ){					//é—´éš”å—ç“œé­”çŽ‹åŽçš„ ç‹çŒ´
; 552  : 		tblNo -= 1201 ;
; 553  : 	}else if (tblNo > 1739 ){			//é£žè›‡
; 554  : 		tblNo -= 1200;
; 555  : 	}else if (tblNo > 1686 ){			//8.0å® ç‰©
; 556  : 		tblNo -= 1175;
; 557  : 	}else if (tblNo > 1641 ){			//é¸¡å¹´å…½4 ç”²è™«2	8.0ç¬¬ä¸€æ¬¡æ•´åˆæµ‹è¯•
; 558  : 		tblNo -= 1167;
; 559  : 	}else if (tblNo > 1635 ){   //éº’éºŸ
; 560  : 		tblNo -= 1148;
; 561  : 	}else if ( tblNo > 1634 ){	//çŒ«å¥³1 çŒ«å¥³2
; 562  : 		tblNo -= 1149;
; 563  : 	}else if ( tblNo > 1628 ){	//ç«èš1 ç«èš2 ç‰›äºº1 ç‰›äºº2
; 564  : 		tblNo -= 1147;
; 565  : 	}else if( tblNo > 1615 ){//å¸ƒé‡Œè¨å°” èœœèœ‚1 èœœèœ‚2 è´è¶1 è´è¶2 æš—é»‘ä¹ŒåŠ›çŽ‹ ç‹®äºº1 ç‹®äºº2 ç°äººç†” ç™½ç‹¼ å¸ƒä¼Šé…·
; 566  : 		tblNo -= 1145;
; 567  : 	}else if( tblNo > 1568 ){//æœºäººé¾™
; 568  : 		tblNo -= 1103;
; 569  : 	}else if( tblNo > 1564 ){//é»„è‰²é£žé¾™
; 570  : 		tblNo -= 1101;
; 571  : 	}else if( tblNo > 1516 ){
; 572  : 		tblNo -= 1055;
; 573  : 	}else if ( tblNo == 1516 ){//ä¿®æ­£ä¹ŒåŠ›çŽ‹
; 574  : 		tblNo = 455 ;
; 575  : 	}else if ( tblNo > 1509 ){
; 576  : 		tblNo -= 1054;
; 577  : 	}else if ( tblNo == 1497 ){
; 578  : 		tblNo = 395;
; 579  : 	}else if ( tblNo > 1495 ){
; 580  : 		tblNo -= 1044 ;
; 581  : 	}else if ( tblNo > 1490 ){
; 582  : 		tblNo -= 1043 ;
; 583  : 	}else if ( tblNo > 1485 ){
; 584  : 		tblNo -= 1040 ; 
; 585  : 	}else if ( tblNo > 1454 ) {
; 586  : 		tblNo -= 1034 ; 
; 587  : 	}else if ( tblNo == 1214 ) {
; 588  : 		tblNo = 331 ;
; 589  : 	}else if ( tblNo == 1217 ) {
; 590  : 		tblNo = 328 ; 
; 591  : 	}else if ( tblNo > 1361){
; 592  : 		tblNo -= 952;
; 593  : 	}else if( tblNo > 1356){
; 594  : 		tblNo -= 999;
; 595  : 	}else if( tblNo > 1281){
; 596  : 		tblNo -= 919;
; 597  : 	}else if( tblNo > 1239){
; 598  : 		tblNo -= 889;
; 599  : 	}else if( tblNo > 1186 ){
; 600  : 		tblNo -= 886;
; 601  : 	}else if( tblNo > 1173 ){
; 602  : 		tblNo -= 877;
; 603  : 	}else if( tblNo > 1172){
; 604  : 		tblNo -= 877;
; 605  : 	}else if( tblNo > 1161){
; 606  : 		tblNo -= 868;
; 607  : 	}else if( tblNo > 930){
; 608  : 		tblNo -= 745;
; 609  : 	}else if( tblNo == 927){
; 610  : 		tblNo -= 634;
; 611  : 	}else if( tblNo > 929){
; 612  : 		tblNo -= 644;
; 613  : 	}else if( tblNo > 927){
; 614  : 		tblNo -= 643;
; 615  : 	}else if( tblNo > 900){
; 616  : 		tblNo -= 621;
; 617  : 	}else if( tblNo > 180){
; 618  : 		tblNo -= (333+56);
; 619  : 	}
; 620  : #elif defined(__ALBUM_42)
; 621  : 	if( tblNo > 1800 ){					//å°æ¶é­”
; 622  : 		tblNo -= 1208;
; 623  : 	}else if( tblNo > 1755 ){					//é—´éš”å—ç“œé­”çŽ‹åŽçš„ ç‹çŒ´
; 624  : 		tblNo -= 1201 ;
; 625  : 	}else if (tblNo > 1739 ){			//é£žè›‡
; 626  : 		tblNo -= 1200;
; 627  : 	}else if (tblNo > 1686 ){			//8.0å® ç‰©
; 628  : 		tblNo -= 1175;
; 629  : 	}else if (tblNo > 1641 ){			//é¸¡å¹´å…½4 ç”²è™«2	8.0ç¬¬ä¸€æ¬¡æ•´åˆæµ‹è¯•
; 630  : 		tblNo -= 1167;
; 631  : 	}else if (tblNo > 1635 ){   //éº’éºŸ
; 632  : 		tblNo -= 1148;
; 633  : 	}else if ( tblNo > 1634 ){	//çŒ«å¥³1 çŒ«å¥³2
; 634  : 		tblNo -= 1149;
; 635  : 	}else if ( tblNo > 1628 ){	//ç«èš1 ç«èš2 ç‰›äºº1 ç‰›äºº2
; 636  : 		tblNo -= 1147;
; 637  : 	}else if( tblNo > 1615 ){//å¸ƒé‡Œè¨å°” èœœèœ‚1 èœœèœ‚2 è´è¶1 è´è¶2 æš—é»‘ä¹ŒåŠ›çŽ‹ ç‹®äºº1 ç‹®äºº2 ç°äººç†” ç™½ç‹¼ å¸ƒä¼Šé…·
; 638  : 		tblNo -= 1145;
; 639  : 	}else if( tblNo > 1568 ){//æœºäººé¾™
; 640  : 		tblNo -= 1103;
; 641  : 	}else if( tblNo > 1564 ){//é»„è‰²é£žé¾™
; 642  : 		tblNo -= 1101;
; 643  : 	}else if( tblNo > 1516 ){
; 644  : 		tblNo -= 1055;
; 645  : 	}else if ( tblNo == 1516 ){//ä¿®æ­£ä¹ŒåŠ›çŽ‹
; 646  : 		tblNo = 455 ;
; 647  : 	}else if ( tblNo > 1509 ){
; 648  : 		tblNo -= 1054;
; 649  : 	}else if ( tblNo == 1497 ){
; 650  : 		tblNo = 395;
; 651  : 	}else if ( tblNo > 1495 ){
; 652  : 		tblNo -= 1044 ;
; 653  : 	}else if ( tblNo > 1490 ){
; 654  : 		tblNo -= 1043 ;
; 655  : 	}else if ( tblNo > 1485 ){
; 656  : 		tblNo -= 1040 ; 
; 657  : 	}else if ( tblNo > 1454 ) {
; 658  : 		tblNo -= 1034 ; 
; 659  : 	}else if ( tblNo == 1214 ) {
; 660  : 		tblNo = 331 ;
; 661  : 	}else if ( tblNo == 1217 ) {
; 662  : 		tblNo = 328 ; 
; 663  : 	}else if ( tblNo > 1361){
; 664  : 		tblNo -= 952;
; 665  : 	}else if( tblNo > 1356){
; 666  : 		tblNo -= 999;
; 667  : 	}else if( tblNo > 1281){
; 668  : 		tblNo -= 919;
; 669  : 	}else if( tblNo > 1239){
; 670  : 		tblNo -= 889;
; 671  : 	}else if( tblNo > 1186 ){
; 672  : 		tblNo -= 886;
; 673  : 	}else if( tblNo > 1173 ){
; 674  : 		tblNo -= 877;
; 675  : 	}else if( tblNo > 1172){
; 676  : 		tblNo -= 877;
; 677  : 	}else if( tblNo > 1161){
; 678  : 		tblNo -= 868;
; 679  : 	}else if( tblNo > 930){
; 680  : 		tblNo -= 745;
; 681  : 	}else if( tblNo == 927){
; 682  : 		tblNo -= 634;
; 683  : 	}else if( tblNo > 929){
; 684  : 		tblNo -= 644;
; 685  : 	}else if( tblNo > 927){
; 686  : 		tblNo -= 643;
; 687  : 	}else if( tblNo > 900){
; 688  : 		tblNo -= 621;
; 689  : 	}else if( tblNo > 180){
; 690  : 		tblNo -= (333+56);
; 691  : 	}
; 692  : #elif defined(__ALBUM_41)
; 693  : 	if( tblNo > 1800 ){					//å°æ¶é­”
; 694  : 		tblNo -= 1208;
; 695  : 	}else if( tblNo > 1755 ){					//é—´éš”å—ç“œé­”çŽ‹åŽçš„ ç‹çŒ´
; 696  : 		tblNo -= 1201 ;
; 697  : 	}else if (tblNo > 1739 ){			//é£žè›‡
; 698  : 		tblNo -= 1200;
; 699  : 	}else if (tblNo > 1686 ){			//8.0å® ç‰©
; 700  : 		tblNo -= 1175;
; 701  : 	}else if (tblNo > 1641 ){			//é¸¡å¹´å…½4 ç”²è™«2	8.0ç¬¬ä¸€æ¬¡æ•´åˆæµ‹è¯•
; 702  : 		tblNo -= 1167;
; 703  : 	}else if (tblNo > 1635 ){   //éº’éºŸ
; 704  : 		tblNo -= 1148;
; 705  : 	}else if ( tblNo > 1634 ){	//çŒ«å¥³1 çŒ«å¥³2
; 706  : 		tblNo -= 1149;
; 707  : 	}else if ( tblNo > 1628 ){	//ç«èš1 ç«èš2 ç‰›äºº1 ç‰›äºº2
; 708  : 		tblNo -= 1147;
; 709  : 	}else if( tblNo > 1615 ){//å¸ƒé‡Œè¨å°” èœœèœ‚1 èœœèœ‚2 è´è¶1 è´è¶2 æš—é»‘ä¹ŒåŠ›çŽ‹ ç‹®äºº1 ç‹®äºº2 ç°äººç†” ç™½ç‹¼ å¸ƒä¼Šé…·
; 710  : 		tblNo -= 1145;
; 711  : 	}else if( tblNo > 1568 ){//æœºäººé¾™
; 712  : 		tblNo -= 1103;
; 713  : 	}else if( tblNo > 1564 ){//é»„è‰²é£žé¾™
; 714  : 		tblNo -= 1101;
; 715  : 	}else if( tblNo > 1516 ){
; 716  : 		tblNo -= 1055;
; 717  : 	}else if ( tblNo == 1516 ){//ä¿®æ­£ä¹ŒåŠ›çŽ‹
; 718  : 		tblNo = 455 ;
; 719  : 	}else if ( tblNo > 1509 ){
; 720  : 		tblNo -= 1054;
; 721  : 	}else if ( tblNo == 1497 ){
; 722  : 		tblNo = 395;
; 723  : 	}else if ( tblNo > 1495 ){
; 724  : 		tblNo -= 1044 ;
; 725  : 	}else if ( tblNo > 1490 ){
; 726  : 		tblNo -= 1043 ;
; 727  : 	}else if ( tblNo > 1485 ){
; 728  : 		tblNo -= 1040 ; 
; 729  : 	}else if ( tblNo > 1454 ) {
; 730  : 		tblNo -= 1034 ; 
; 731  : 	}else if ( tblNo == 1214 ) {
; 732  : 		tblNo = 331 ;
; 733  : 	}else if ( tblNo == 1217 ) {
; 734  : 		tblNo = 328 ; 
; 735  : 	}else if ( tblNo > 1361){
; 736  : 		tblNo -= 952;
; 737  : 	}else if( tblNo > 1356){
; 738  : 		tblNo -= 999;
; 739  : 	}else if( tblNo > 1281){
; 740  : 		tblNo -= 919;
; 741  : 	}else if( tblNo > 1239){
; 742  : 		tblNo -= 889;
; 743  : 	}else if( tblNo > 1186 ){
; 744  : 		tblNo -= 886;
; 745  : 	}else if( tblNo > 1173 ){
; 746  : 		tblNo -= 877;
; 747  : 	}else if( tblNo > 1172){
; 748  : 		tblNo -= 877;
; 749  : 	}else if( tblNo > 1161){
; 750  : 		tblNo -= 868;
; 751  : 	}else if( tblNo > 930){
; 752  : 		tblNo -= 745;
; 753  : 	}else if( tblNo == 927){
; 754  : 		tblNo -= 634;
; 755  : 	}else if( tblNo > 929){
; 756  : 		tblNo -= 644;
; 757  : 	}else if( tblNo > 927){
; 758  : 		tblNo -= 643;
; 759  : 	}else if( tblNo > 900){
; 760  : 		tblNo -= 621;
; 761  : 	}else if( tblNo > 180){
; 762  : 		tblNo -= (333+56);
; 763  : 	}
; 764  : #elif defined(__ALBUM_40)
; 765  : 	if( tblNo > 1800 ){					//å°æ¶é­”
; 766  : 		tblNo -= 1208;
; 767  : 	}else if( tblNo > 1755 ){					//é—´éš”å—ç“œé­”çŽ‹åŽçš„ ç‹çŒ´
; 768  : 		tblNo -= 1201 ;
; 769  : 	}else if (tblNo > 1739 ){			//é£žè›‡
; 770  : 		tblNo -= 1200;
; 771  : 	}else if (tblNo > 1686 ){			//8.0å® ç‰©
; 772  : 		tblNo -= 1175;
; 773  : 	}else if (tblNo > 1641 ){			//é¸¡å¹´å…½4 ç”²è™«2	8.0ç¬¬ä¸€æ¬¡æ•´åˆæµ‹è¯•
; 774  : 		tblNo -= 1167;
; 775  : 	}else if (tblNo > 1635 ){   //éº’éºŸ
; 776  : 		tblNo -= 1148;
; 777  : 	}else if ( tblNo > 1634 ){	//çŒ«å¥³1 çŒ«å¥³2
; 778  : 		tblNo -= 1149;
; 779  : 	}else if ( tblNo > 1628 ){	//ç«èš1 ç«èš2 ç‰›äºº1 ç‰›äºº2
; 780  : 		tblNo -= 1147;
; 781  : 	}else if( tblNo > 1615 ){//å¸ƒé‡Œè¨å°” èœœèœ‚1 èœœèœ‚2 è´è¶1 è´è¶2 æš—é»‘ä¹ŒåŠ›çŽ‹ ç‹®äºº1 ç‹®äºº2 ç°äººç†” ç™½ç‹¼ å¸ƒä¼Šé…·
; 782  : 		tblNo -= 1145;
; 783  : 	}else if( tblNo > 1568 ){//æœºäººé¾™
; 784  : 		tblNo -= 1103;
; 785  : 	}else if( tblNo > 1564 ){//é»„è‰²é£žé¾™
; 786  : 		tblNo -= 1101;
; 787  : 	}else if( tblNo > 1516 ){
; 788  : 		tblNo -= 1055;
; 789  : 	}else if ( tblNo == 1516 ){//ä¿®æ­£ä¹ŒåŠ›çŽ‹
; 790  : 		tblNo = 455 ;
; 791  : 	}else if ( tblNo > 1509 ){
; 792  : 		tblNo -= 1054;
; 793  : 	}else if ( tblNo == 1497 ){
; 794  : 		tblNo = 395;
; 795  : 	}else if ( tblNo > 1495 ){
; 796  : 		tblNo -= 1044 ;
; 797  : 	}else if ( tblNo > 1490 ){
; 798  : 		tblNo -= 1043 ;
; 799  : 	}else if ( tblNo > 1485 ){
; 800  : 		tblNo -= 1040 ; 
; 801  : 	}else if ( tblNo > 1454 ) {
; 802  : 		tblNo -= 1034 ; 
; 803  : 	}else if ( tblNo == 1214 ) {
; 804  : 		tblNo = 331 ;
; 805  : 	}else if ( tblNo == 1217 ) {
; 806  : 		tblNo = 328 ; 
; 807  : 	}else if ( tblNo > 1361){
; 808  : 		tblNo -= 952;
; 809  : 	}else if( tblNo > 1356){
; 810  : 		tblNo -= 999;
; 811  : 	}else if( tblNo > 1281){
; 812  : 		tblNo -= 919;
; 813  : 	}else if( tblNo > 1239){
; 814  : 		tblNo -= 889;
; 815  : 	}else if( tblNo > 1186 ){
; 816  : 		tblNo -= 886;
; 817  : 	}else if( tblNo > 1173 ){
; 818  : 		tblNo -= 877;
; 819  : 	}else if( tblNo > 1172){
; 820  : 		tblNo -= 877;
; 821  : 	}else if( tblNo > 1161){
; 822  : 		tblNo -= 868;
; 823  : 	}else if( tblNo > 930){
; 824  : 		tblNo -= 745;
; 825  : 	}else if( tblNo == 927){
; 826  : 		tblNo -= 634;
; 827  : 	}else if( tblNo > 929){
; 828  : 		tblNo -= 644;
; 829  : 	}else if( tblNo > 927){
; 830  : 		tblNo -= 643;
; 831  : 	}else if( tblNo > 900){
; 832  : 		tblNo -= 621;
; 833  : 	}else if( tblNo > 180){
; 834  : 		tblNo -= (333+56);
; 835  : 	}
; 836  : #elif defined(__ALBUM_39)
; 837  : 	if( tblNo > 1800 ){					//å°æ¶é­”
; 838  : 		tblNo -= 1208;
; 839  : 	}else if( tblNo > 1755 ){					//é—´éš”å—ç“œé­”çŽ‹åŽçš„ ç‹çŒ´
; 840  : 		tblNo -= 1201 ;
; 841  : 	}else if (tblNo > 1739 ){			//é£žè›‡
; 842  : 		tblNo -= 1200;
; 843  : 	}else if (tblNo > 1686 ){			//8.0å® ç‰©
; 844  : 		tblNo -= 1175;
; 845  : 	}else if (tblNo > 1641 ){			//é¸¡å¹´å…½4 ç”²è™«2	8.0ç¬¬ä¸€æ¬¡æ•´åˆæµ‹è¯•
; 846  : 		tblNo -= 1167;
; 847  : 	}else if (tblNo > 1635 ){   //éº’éºŸ
; 848  : 		tblNo -= 1148;
; 849  : 	}else if ( tblNo > 1634 ){	//çŒ«å¥³1 çŒ«å¥³2
; 850  : 		tblNo -= 1149;
; 851  : 	}else if ( tblNo > 1628 ){	//ç«èš1 ç«èš2 ç‰›äºº1 ç‰›äºº2
; 852  : 		tblNo -= 1147;
; 853  : 	}else if( tblNo > 1615 ){//å¸ƒé‡Œè¨å°” èœœèœ‚1 èœœèœ‚2 è´è¶1 è´è¶2 æš—é»‘ä¹ŒåŠ›çŽ‹ ç‹®äºº1 ç‹®äºº2 ç°äººç†” ç™½ç‹¼ å¸ƒä¼Šé…·
; 854  : 		tblNo -= 1145;
; 855  : 	}else if( tblNo > 1568 ){//æœºäººé¾™
; 856  : 		tblNo -= 1103;
; 857  : 	}else if( tblNo > 1564 ){//é»„è‰²é£žé¾™
; 858  : 		tblNo -= 1101;
; 859  : 	}else if( tblNo > 1516 ){
; 860  : 		tblNo -= 1055;
; 861  : 	}else if ( tblNo == 1516 ){//ä¿®æ­£ä¹ŒåŠ›çŽ‹
; 862  : 		tblNo = 455 ;
; 863  : 	}else if ( tblNo > 1509 ){
; 864  : 		tblNo -= 1054;
; 865  : 	}else if ( tblNo == 1497 ){
; 866  : 		tblNo = 395;
; 867  : 	}else if ( tblNo > 1495 ){
; 868  : 		tblNo -= 1044 ;
; 869  : 	}else if ( tblNo > 1490 ){
; 870  : 		tblNo -= 1043 ;
; 871  : 	}else if ( tblNo > 1485 ){
; 872  : 		tblNo -= 1040 ; 
; 873  : 	}else if ( tblNo > 1454 ) {
; 874  : 		tblNo -= 1034 ; 
; 875  : 	}else if ( tblNo == 1214 ) {
; 876  : 		tblNo = 331 ;
; 877  : 	}else if ( tblNo == 1217 ) {
; 878  : 		tblNo = 328 ; 
; 879  : 	}else if ( tblNo > 1361){
; 880  : 		tblNo -= 952;
; 881  : 	}else if( tblNo > 1356){
; 882  : 		tblNo -= 999;
; 883  : 	}else if( tblNo > 1281){
; 884  : 		tblNo -= 919;
; 885  : 	}else if( tblNo > 1239){
; 886  : 		tblNo -= 889;
; 887  : 	}else if( tblNo > 1186 ){
; 888  : 		tblNo -= 886;
; 889  : 	}else if( tblNo > 1173 ){
; 890  : 		tblNo -= 877;
; 891  : 	}else if( tblNo > 1172){
; 892  : 		tblNo -= 877;
; 893  : 	}else if( tblNo > 1161){
; 894  : 		tblNo -= 868;
; 895  : 	}else if( tblNo > 930){
; 896  : 		tblNo -= 745;
; 897  : 	}else if( tblNo == 927){
; 898  : 		tblNo -= 634;
; 899  : 	}else if( tblNo > 929){
; 900  : 		tblNo -= 644;
; 901  : 	}else if( tblNo > 927){
; 902  : 		tblNo -= 643;
; 903  : 	}else if( tblNo > 900){
; 904  : 		tblNo -= 621;
; 905  : 	}else if( tblNo > 180){
; 906  : 		tblNo -= (333+56);
; 907  : 	}
; 908  : #elif defined(__ALBUM_38)
; 909  : 	if( tblNo > 1755 ){					//é—´éš”å—ç“œé­”çŽ‹åŽçš„ ç‹çŒ´
; 910  : 		tblNo -= 1201 ;
; 911  : 	}else if (tblNo > 1739 ){			//é£žè›‡
; 912  : 		tblNo -= 1200;
; 913  : 	}else if (tblNo > 1686 ){			//8.0å® ç‰©
; 914  : 		tblNo -= 1175;
; 915  : 	}else if (tblNo > 1641 ){			//é¸¡å¹´å…½4 ç”²è™«2	8.0ç¬¬ä¸€æ¬¡æ•´åˆæµ‹è¯•
; 916  : 		tblNo -= 1167;
; 917  : 	}else if (tblNo > 1635 ){   //éº’éºŸ
; 918  : 		tblNo -= 1148;
; 919  : 	}else if ( tblNo > 1634 ){	//çŒ«å¥³1 çŒ«å¥³2
; 920  : 		tblNo -= 1149;
; 921  : 	}else if ( tblNo > 1628 ){	//ç«èš1 ç«èš2 ç‰›äºº1 ç‰›äºº2
; 922  : 		tblNo -= 1147;
; 923  : 	}else if( tblNo > 1615 ){//å¸ƒé‡Œè¨å°” èœœèœ‚1 èœœèœ‚2 è´è¶1 è´è¶2 æš—é»‘ä¹ŒåŠ›çŽ‹ ç‹®äºº1 ç‹®äºº2 ç°äººç†” ç™½ç‹¼ å¸ƒä¼Šé…·
; 924  : 		tblNo -= 1145;
; 925  : 	}else if( tblNo > 1568 ){//æœºäººé¾™
; 926  : 		tblNo -= 1103;
; 927  : 	}else if( tblNo > 1564 ){//é»„è‰²é£žé¾™
; 928  : 		tblNo -= 1101;
; 929  : 	}else if( tblNo > 1516 ){
; 930  : 		tblNo -= 1055;
; 931  : 	}else if ( tblNo == 1516 ){//ä¿®æ­£ä¹ŒåŠ›çŽ‹
; 932  : 		tblNo = 455 ;
; 933  : 	}else if ( tblNo > 1509 ){
; 934  : 		tblNo -= 1054;
; 935  : 	}else if ( tblNo == 1497 ){
; 936  : 		tblNo = 395;
; 937  : 	}else if ( tblNo > 1495 ){
; 938  : 		tblNo -= 1044 ;
; 939  : 	}else if ( tblNo > 1490 ){
; 940  : 		tblNo -= 1043 ;
; 941  : 	}else if ( tblNo > 1485 ){
; 942  : 		tblNo -= 1040 ; 
; 943  : 	}else if ( tblNo > 1454 ) {
; 944  : 		tblNo -= 1034 ; 
; 945  : 	}else if ( tblNo == 1214 ) {
; 946  : 		tblNo = 331 ;
; 947  : 	}else if ( tblNo == 1217 ) {
; 948  : 		tblNo = 328 ; 
; 949  : 	}else if ( tblNo > 1361){
; 950  : 		tblNo -= 952;
; 951  : 	}else if( tblNo > 1356){
; 952  : 		tblNo -= 999;
; 953  : 	}else if( tblNo > 1281){
; 954  : 		tblNo -= 919;
; 955  : 	}else if( tblNo > 1239){
; 956  : 		tblNo -= 889;
; 957  : 	}else if( tblNo > 1186 ){
; 958  : 		tblNo -= 886;
; 959  : 	}else if( tblNo > 1173 ){
; 960  : 		tblNo -= 877;
; 961  : 	}else if( tblNo > 1172){
; 962  : 		tblNo -= 877;
; 963  : 	}else if( tblNo > 1161){
; 964  : 		tblNo -= 868;
; 965  : 	}else if( tblNo > 930){
; 966  : 		tblNo -= 745;
; 967  : 	}else if( tblNo == 927){
; 968  : 		tblNo -= 634;
; 969  : 	}else if( tblNo > 929){
; 970  : 		tblNo -= 644;
; 971  : 	}else if( tblNo > 927){
; 972  : 		tblNo -= 643;
; 973  : 	}else if( tblNo > 900){
; 974  : 		tblNo -= 621;
; 975  : 	}else if( tblNo > 180){
; 976  : 		tblNo -= (333+56);
; 977  : 	}
; 978  : #elif defined(__ALBUM_37)
; 979  : 	if (tblNo > 1739 ){			//é£žè›‡
; 980  : 		tblNo -= 1200;
; 981  : 	}else if (tblNo > 1686 ){			//8.0å® ç‰©
; 982  : 		tblNo -= 1175;
; 983  : 	}else if (tblNo > 1641 ){			//é¸¡å¹´å…½4 ç”²è™«2	8.0ç¬¬ä¸€æ¬¡æ•´åˆæµ‹è¯•
; 984  : 		tblNo -= 1167;
; 985  : 	}else if (tblNo > 1635 ){   //éº’éºŸ
; 986  : 		tblNo -= 1148;
; 987  : 	}else if ( tblNo > 1634 ){	//çŒ«å¥³1 çŒ«å¥³2
; 988  : 		tblNo -= 1149;
; 989  : 	}else if ( tblNo > 1628 ){	//ç«èš1 ç«èš2 ç‰›äºº1 ç‰›äºº2
; 990  : 		tblNo -= 1147;
; 991  : 	}else if( tblNo > 1615 ){//å¸ƒé‡Œè¨å°” èœœèœ‚1 èœœèœ‚2 è´è¶1 è´è¶2 æš—é»‘ä¹ŒåŠ›çŽ‹ ç‹®äºº1 ç‹®äºº2 ç°äººç†” ç™½ç‹¼ å¸ƒä¼Šé…·
; 992  : 		tblNo -= 1145;
; 993  : 	}else if( tblNo > 1568 ){//æœºäººé¾™
; 994  : 		tblNo -= 1103;
; 995  : 	}else if( tblNo > 1564 ){//é»„è‰²é£žé¾™
; 996  : 		tblNo -= 1101;
; 997  : 	}else if( tblNo > 1516 ){
; 998  : 		tblNo -= 1055;
; 999  : 	}else if ( tblNo == 1516 ){//ä¿®æ­£ä¹ŒåŠ›çŽ‹
; 1000 : 		tblNo = 455 ;
; 1001 : 	}else if ( tblNo > 1509 ){
; 1002 : 		tblNo -= 1054;
; 1003 : 	}else if ( tblNo == 1497 ){
; 1004 : 		tblNo = 395;
; 1005 : 	}else if ( tblNo > 1495 ){
; 1006 : 		tblNo -= 1044 ;
; 1007 : 	}else if ( tblNo > 1490 ){
; 1008 : 		tblNo -= 1043 ;
; 1009 : 	}else if ( tblNo > 1485 ){
; 1010 : 		tblNo -= 1040 ; 
; 1011 : 	}else if ( tblNo > 1454 ) {
; 1012 : 		tblNo -= 1034 ; 
; 1013 : 	}else if ( tblNo == 1214 ) {
; 1014 : 		tblNo = 331 ;
; 1015 : 	}else if ( tblNo == 1217 ) {
; 1016 : 		tblNo = 328 ; 
; 1017 : 	}else if ( tblNo > 1361){
; 1018 : 		tblNo -= 952;
; 1019 : 	}else if( tblNo > 1356){
; 1020 : 		tblNo -= 999;
; 1021 : 	}else if( tblNo > 1281){
; 1022 : 		tblNo -= 919;
; 1023 : 	}else if( tblNo > 1239){
; 1024 : 		tblNo -= 889;
; 1025 : 	}else if( tblNo > 1186 ){
; 1026 : 		tblNo -= 886;
; 1027 : 	}else if( tblNo > 1173 ){
; 1028 : 		tblNo -= 877;
; 1029 : 	}else if( tblNo > 1172){
; 1030 : 		tblNo -= 877;
; 1031 : 	}else if( tblNo > 1161){
; 1032 : 		tblNo -= 868;
; 1033 : 	}else if( tblNo > 930){
; 1034 : 		tblNo -= 745;
; 1035 : 	}else if( tblNo == 927){
; 1036 : 		tblNo -= 634;
; 1037 : 	}else if( tblNo > 929){
; 1038 : 		tblNo -= 644;
; 1039 : 	}else if( tblNo > 927){
; 1040 : 		tblNo -= 643;
; 1041 : 	}else if( tblNo > 900){
; 1042 : 		tblNo -= 621;
; 1043 : 	}else if( tblNo > 180){
; 1044 : 		tblNo -= (333+56);
; 1045 : 	}
; 1046 : #elif defined(__ALBUM_36)
; 1047 : 	if (tblNo > 1686 ){			//é¸¡å¹´å…½4 ç”²è™«2	8.0ç¬¬ä¸€æ¬¡æ•´åˆæµ‹è¯•
; 1048 : 		tblNo -= 1175;
; 1049 : 	}else if (tblNo > 1641 ){			//é¸¡å¹´å…½4 ç”²è™«2	8.0ç¬¬ä¸€æ¬¡æ•´åˆæµ‹è¯•
; 1050 : 		tblNo -= 1167;
; 1051 : 	}else if (tblNo > 1635 ){   //éº’éºŸ
; 1052 : 		tblNo -= 1148;
; 1053 : 	}else if ( tblNo > 1634 ){	//çŒ«å¥³1 çŒ«å¥³2
; 1054 : 		tblNo -= 1149;
; 1055 : 	}else if ( tblNo > 1628 ){	//ç«èš1 ç«èš2 ç‰›äºº1 ç‰›äºº2
; 1056 : 		tblNo -= 1147;
; 1057 : 	}else if( tblNo > 1615 ){//å¸ƒé‡Œè¨å°” èœœèœ‚1 èœœèœ‚2 è´è¶1 è´è¶2 æš—é»‘ä¹ŒåŠ›çŽ‹ ç‹®äºº1 ç‹®äºº2 ç°äººç†” ç™½ç‹¼ å¸ƒä¼Šé…·
; 1058 : 		tblNo -= 1145;
; 1059 : 	}else if( tblNo > 1568 ){//æœºäººé¾™
; 1060 : 		tblNo -= 1103;
; 1061 : 	}else if( tblNo > 1564 ){//é»„è‰²é£žé¾™
; 1062 : 		tblNo -= 1101;
; 1063 : 	}else if( tblNo > 1516 ){
; 1064 : 		tblNo -= 1055;
; 1065 : 	}else if ( tblNo == 1516 ){//ä¿®æ­£ä¹ŒåŠ›çŽ‹
; 1066 : 		tblNo = 455 ;
; 1067 : 	}else if ( tblNo > 1509 ){
; 1068 : 		tblNo -= 1054;
; 1069 : 	}else if ( tblNo == 1497 ){
; 1070 : 		tblNo = 395;
; 1071 : 	}else if ( tblNo > 1495 ){
; 1072 : 		tblNo -= 1044 ;
; 1073 : 	}else if ( tblNo > 1490 ){
; 1074 : 		tblNo -= 1043 ;
; 1075 : 	}else if ( tblNo > 1485 ){
; 1076 : 		tblNo -= 1040 ; 
; 1077 : 	}else if ( tblNo > 1454 ) {
; 1078 : 		tblNo -= 1034 ; 
; 1079 : 	}else if ( tblNo == 1214 ) {
; 1080 : 		tblNo = 331 ;
; 1081 : 	}else if ( tblNo == 1217 ) {
; 1082 : 		tblNo = 328 ; 
; 1083 : 	}else if ( tblNo > 1361){
; 1084 : 		tblNo -= 952;
; 1085 : 	}else if( tblNo > 1356){
; 1086 : 		tblNo -= 999;
; 1087 : 	}else if( tblNo > 1281){
; 1088 : 		tblNo -= 919;
; 1089 : 	}else if( tblNo > 1239){
; 1090 : 		tblNo -= 889;
; 1091 : 	}else if( tblNo > 1186 ){
; 1092 : 		tblNo -= 886;
; 1093 : 	}else if( tblNo > 1173 ){
; 1094 : 		tblNo -= 877;
; 1095 : 	}else if( tblNo > 1172){
; 1096 : 		tblNo -= 877;
; 1097 : 	}else if( tblNo > 1161){
; 1098 : 		tblNo -= 868;
; 1099 : 	}else if( tblNo > 930){
; 1100 : 		tblNo -= 745;
; 1101 : 	}else if( tblNo == 927){
; 1102 : 		tblNo -= 634;
; 1103 : 	}else if( tblNo > 929){
; 1104 : 		tblNo -= 644;
; 1105 : 	}else if( tblNo > 927){
; 1106 : 		tblNo -= 643;
; 1107 : 	}else if( tblNo > 900){
; 1108 : 		tblNo -= 621;
; 1109 : 	}else if( tblNo > 180){
; 1110 : 		tblNo -= (333+56);
; 1111 : 	}
; 1112 : #elif defined(__ALBUM_35)
; 1113 : 	if (tblNo > 1641 ){			//é¸¡å¹´å…½4 ç”²è™«2	8.0ç¬¬ä¸€æ¬¡æ•´åˆæµ‹è¯•
; 1114 : 		tblNo -= 1167;
; 1115 : 	}else if (tblNo > 1635 ){   //éº’éºŸ
; 1116 : 		tblNo -= 1148;
; 1117 : 	}else if ( tblNo > 1634 ){	//çŒ«å¥³1 çŒ«å¥³2
; 1118 : 		tblNo -= 1149;
; 1119 : 	}else if ( tblNo > 1628 ){	//ç«èš1 ç«èš2 ç‰›äºº1 ç‰›äºº2
; 1120 : 		tblNo -= 1147;
; 1121 : 	}else if( tblNo > 1615 ){//å¸ƒé‡Œè¨å°” èœœèœ‚1 èœœèœ‚2 è´è¶1 è´è¶2 æš—é»‘ä¹ŒåŠ›çŽ‹ ç‹®äºº1 ç‹®äºº2 ç°äººç†” ç™½ç‹¼ å¸ƒä¼Šé…·
; 1122 : 		tblNo -= 1145;
; 1123 : 	}else if( tblNo > 1568 ){//æœºäººé¾™
; 1124 : 		tblNo -= 1103;
; 1125 : 	}else if( tblNo > 1564 ){//é»„è‰²é£žé¾™
; 1126 : 		tblNo -= 1101;
; 1127 : 	}else if( tblNo > 1516 ){
; 1128 : 		tblNo -= 1055;
; 1129 : 	}else if ( tblNo == 1516 ){//ä¿®æ­£ä¹ŒåŠ›çŽ‹
; 1130 : 		tblNo = 455 ;
; 1131 : 	}else if ( tblNo > 1509 ){
; 1132 : 		tblNo -= 1054;
; 1133 : 	}else if ( tblNo == 1497 ){
; 1134 : 		tblNo = 395;
; 1135 : 	}else if ( tblNo > 1495 ){
; 1136 : 		tblNo -= 1044 ;
; 1137 : 	}else if ( tblNo > 1490 ){
; 1138 : 		tblNo -= 1043 ;
; 1139 : 	}else if ( tblNo > 1485 ){
; 1140 : 		tblNo -= 1040 ; 
; 1141 : 	}else if ( tblNo > 1454 ) {
; 1142 : 		tblNo -= 1034 ; 
; 1143 : 	}else if ( tblNo == 1214 ) {
; 1144 : 		tblNo = 331 ;
; 1145 : 	}else if ( tblNo == 1217 ) {
; 1146 : 		tblNo = 328 ; 
; 1147 : 	}else if ( tblNo > 1361){
; 1148 : 		tblNo -= 952;
; 1149 : 	}else if( tblNo > 1356){
; 1150 : 		tblNo -= 999;
; 1151 : 	}else if( tblNo > 1281){
; 1152 : 		tblNo -= 919;
; 1153 : 	}else if( tblNo > 1239){
; 1154 : 		tblNo -= 889;
; 1155 : 	}else if( tblNo > 1186 ){
; 1156 : 		tblNo -= 886;
; 1157 : 	}else if( tblNo > 1173 ){
; 1158 : 		tblNo -= 877;
; 1159 : 	}else if( tblNo > 1172){
; 1160 : 		tblNo -= 877;
; 1161 : 	}else if( tblNo > 1161){
; 1162 : 		tblNo -= 868;
; 1163 : 	}else if( tblNo > 930){
; 1164 : 		tblNo -= 745;
; 1165 : 	}else if( tblNo == 927){
; 1166 : 		tblNo -= 634;
; 1167 : 	}else if( tblNo > 929){
; 1168 : 		tblNo -= 644;
; 1169 : 	}else if( tblNo > 927){
; 1170 : 		tblNo -= 643;
; 1171 : 	}else if( tblNo > 900){
; 1172 : 		tblNo -= 621;
; 1173 : 	}else if( tblNo > 180){
; 1174 : 		tblNo -= (333+56);
; 1175 : 	}
; 1176 : 
; 1177 : #elif defined(__ALBUM_34)
; 1178 : 	if (tblNo > 1639 ){			//é¸¡å¹´å…½4
; 1179 : 		tblNo -= 1167;
; 1180 : 	}else if (tblNo > 1635 ){   //éº’éºŸ
; 1181 : 		tblNo -= 1148;
; 1182 : 	}else if ( tblNo > 1634 ){	//çŒ«å¥³1 çŒ«å¥³2
; 1183 : 		tblNo -= 1149;
; 1184 : 	}else if ( tblNo > 1628 ){	//ç«èš1 ç«èš2 ç‰›äºº1 ç‰›äºº2
; 1185 : 		tblNo -= 1147;
; 1186 : 	}else if( tblNo > 1615 ){//å¸ƒé‡Œè¨å°” èœœèœ‚1 èœœèœ‚2 è´è¶1 è´è¶2 æš—é»‘ä¹ŒåŠ›çŽ‹ ç‹®äºº1 ç‹®äºº2 ç°äººç†” ç™½ç‹¼ å¸ƒä¼Šé…·
; 1187 : 		tblNo -= 1145;
; 1188 : 	}else if( tblNo > 1568 ){//æœºäººé¾™
; 1189 : 		tblNo -= 1103;
; 1190 : 	}else if( tblNo > 1564 ){//é»„è‰²é£žé¾™
; 1191 : 		tblNo -= 1101;
; 1192 : 	}else if( tblNo > 1516 ){
; 1193 : 		tblNo -= 1055;
; 1194 : 	}else if ( tblNo == 1516 ){//ä¿®æ­£ä¹ŒåŠ›çŽ‹
; 1195 : 		tblNo = 455 ;
; 1196 : 	}else if ( tblNo > 1509 ){
; 1197 : 		tblNo -= 1054;
; 1198 : 	}else if ( tblNo == 1497 ){
; 1199 : 		tblNo = 395;
; 1200 : 	}else if ( tblNo > 1495 ){
; 1201 : 		tblNo -= 1044 ;
; 1202 : 	}else if ( tblNo > 1490 ){
; 1203 : 		tblNo -= 1043 ;
; 1204 : 	}else if ( tblNo > 1485 ){
; 1205 : 		tblNo -= 1040 ; 
; 1206 : 	}else if ( tblNo > 1454 ) {
; 1207 : 		tblNo -= 1034 ; 
; 1208 : 	}else if ( tblNo == 1214 ) {
; 1209 : 		tblNo = 331 ;
; 1210 : 	}else if ( tblNo == 1217 ) {
; 1211 : 		tblNo = 328 ; 
; 1212 : 	}else if ( tblNo > 1361){
; 1213 : 		tblNo -= 952;
; 1214 : 	}else if( tblNo > 1356){
; 1215 : 		tblNo -= 999;
; 1216 : 	}else if( tblNo > 1281){
; 1217 : 		tblNo -= 919;
; 1218 : 	}else if( tblNo > 1239){
; 1219 : 		tblNo -= 889;
; 1220 : 	}else if( tblNo > 1186 ){
; 1221 : 		tblNo -= 886;
; 1222 : 	}else if( tblNo > 1173 ){
; 1223 : 		tblNo -= 877;
; 1224 : 	}else if( tblNo > 1172){
; 1225 : 		tblNo -= 877;
; 1226 : 	}else if( tblNo > 1161){
; 1227 : 		tblNo -= 868;
; 1228 : 	}else if( tblNo > 930){
; 1229 : 		tblNo -= 745;
; 1230 : 	}else if( tblNo == 927){
; 1231 : 		tblNo -= 634;
; 1232 : 	}else if( tblNo > 929){
; 1233 : 		tblNo -= 644;
; 1234 : 	}else if( tblNo > 927){
; 1235 : 		tblNo -= 643;
; 1236 : 	}else if( tblNo > 900){
; 1237 : 		tblNo -= 621;
; 1238 : 	}else if( tblNo > 180){
; 1239 : 		tblNo -= (333+56);
; 1240 : 	}
; 1241 : #elif defined(__ALBUM_33)
; 1242 : 	if (tblNo > 1635 ){
; 1243 : 		tblNo -= 1148;
; 1244 : 	}else if ( tblNo > 1634 ){	//çŒ«å¥³1 çŒ«å¥³2 éº’éºŸ
; 1245 : 		tblNo -= 1149;
; 1246 : 	}else if ( tblNo > 1628 ){	//ç«èš1 ç«èš2 ç‰›äºº1 ç‰›äºº2
; 1247 : 		tblNo -= 1147;
; 1248 : 	}else if( tblNo > 1615 ){//å¸ƒé‡Œè¨å°” èœœèœ‚1 èœœèœ‚2 è´è¶1 è´è¶2 æš—é»‘ä¹ŒåŠ›çŽ‹ ç‹®äºº1 ç‹®äºº2 ç°äººç†” ç™½ç‹¼ å¸ƒä¼Šé…·
; 1249 : 		tblNo -= 1145;
; 1250 : 	}else if( tblNo > 1568 ){//æœºäººé¾™
; 1251 : 		tblNo -= 1103;
; 1252 : 	}else if( tblNo > 1564 ){//é»„è‰²é£žé¾™
; 1253 : 		tblNo -= 1101;
; 1254 : 	}else if( tblNo > 1516 ){
; 1255 : 		tblNo -= 1055;
; 1256 : 	}else if ( tblNo == 1516 ){//ä¿®æ­£ä¹ŒåŠ›çŽ‹
; 1257 : 		tblNo = 455 ;
; 1258 : 	}else if ( tblNo > 1509 ){
; 1259 : 		tblNo -= 1054;
; 1260 : 	}else if ( tblNo == 1497 ){
; 1261 : 		tblNo = 395;
; 1262 : 	}else if ( tblNo > 1495 ){
; 1263 : 		tblNo -= 1044 ;
; 1264 : 	}else if ( tblNo > 1490 ){
; 1265 : 		tblNo -= 1043 ;
; 1266 : 	}else if ( tblNo > 1485 ){
; 1267 : 		tblNo -= 1040 ; 
; 1268 : 	}else if ( tblNo > 1454 ) {
; 1269 : 		tblNo -= 1034 ; 
; 1270 : 	}else if ( tblNo == 1214 ) {
; 1271 : 		tblNo = 331 ;
; 1272 : 	}else if ( tblNo == 1217 ) {
; 1273 : 		tblNo = 328 ; 
; 1274 : 	}else if ( tblNo > 1361){
; 1275 : 		tblNo -= 952;
; 1276 : 	}else if( tblNo > 1356){
; 1277 : 		tblNo -= 999;
; 1278 : 	}else if( tblNo > 1281){
; 1279 : 		tblNo -= 919;
; 1280 : 	}else if( tblNo > 1239){
; 1281 : 		tblNo -= 889;
; 1282 : 	}else if( tblNo > 1186 ){
; 1283 : 		tblNo -= 886;
; 1284 : 	}else if( tblNo > 1173 ){
; 1285 : 		tblNo -= 877;
; 1286 : 	}else if( tblNo > 1172){
; 1287 : 		tblNo -= 877;
; 1288 : 	}else if( tblNo > 1161){
; 1289 : 		tblNo -= 868;
; 1290 : 	}else if( tblNo > 930){
; 1291 : 		tblNo -= 745;
; 1292 : 	}else if( tblNo == 927){
; 1293 : 		tblNo -= 634;
; 1294 : 	}else if( tblNo > 929){
; 1295 : 		tblNo -= 644;
; 1296 : 	}else if( tblNo > 927){
; 1297 : 		tblNo -= 643;
; 1298 : 	}else if( tblNo > 900){
; 1299 : 		tblNo -= 621;
; 1300 : 	}else if( tblNo > 180){
; 1301 : 		tblNo -= (333+56);
; 1302 : 	}
; 1303 : #elif defined(__ALBUM_32)
; 1304 : 	if ( tblNo > 1634 ){	//çŒ«å¥³1 çŒ«å¥³2
; 1305 : 		tblNo -= 1149;
; 1306 : 	}else if ( tblNo > 1628 ){	//ç«èš1 ç«èš2 ç‰›äºº1 ç‰›äºº2
; 1307 : 		tblNo -= 1147;
; 1308 : 	}else if( tblNo > 1615 ){//å¸ƒé‡Œè¨å°” èœœèœ‚1 èœœèœ‚2 è´è¶1 è´è¶2 æš—é»‘ä¹ŒåŠ›çŽ‹ ç‹®äºº1 ç‹®äºº2 ç°äººç†” ç™½ç‹¼ å¸ƒä¼Šé…·
; 1309 : 		tblNo -= 1145;
; 1310 : 	}else if( tblNo > 1568 ){//æœºäººé¾™
; 1311 : 		tblNo -= 1103;
; 1312 : 	}else if( tblNo > 1564 ){//é»„è‰²é£žé¾™
; 1313 : 		tblNo -= 1101;
; 1314 : 	}else if( tblNo > 1516 ){
; 1315 : 		tblNo -= 1055;
; 1316 : 	}else if ( tblNo == 1516 ){//ä¿®æ­£ä¹ŒåŠ›çŽ‹
; 1317 : 		tblNo = 455 ;
; 1318 : 	}else if ( tblNo > 1509 ){
; 1319 : 		tblNo -= 1054;
; 1320 : 	}else if ( tblNo == 1497 ){
; 1321 : 		tblNo = 395;
; 1322 : 	}else if ( tblNo > 1495 ){
; 1323 : 		tblNo -= 1044 ;
; 1324 : 	}else if ( tblNo > 1490 ){
; 1325 : 		tblNo -= 1043 ;
; 1326 : 	}else if ( tblNo > 1485 ){
; 1327 : 		tblNo -= 1040 ; 
; 1328 : 	}else if ( tblNo > 1454 ) {
; 1329 : 		tblNo -= 1034 ; 
; 1330 : 	}else if ( tblNo == 1214 ) {
; 1331 : 		tblNo = 331 ;
; 1332 : 	}else if ( tblNo == 1217 ) {
; 1333 : 		tblNo = 328 ; 
; 1334 : 	}else if ( tblNo > 1361){
; 1335 : 		tblNo -= 952;
; 1336 : 	}else if( tblNo > 1356){
; 1337 : 		tblNo -= 999;
; 1338 : 	}else if( tblNo > 1281){
; 1339 : 		tblNo -= 919;
; 1340 : 	}else if( tblNo > 1239){
; 1341 : 		tblNo -= 889;
; 1342 : 	}else if( tblNo > 1186 ){
; 1343 : 		tblNo -= 886;
; 1344 : 	}else if( tblNo > 1173 ){
; 1345 : 		tblNo -= 877;
; 1346 : 	}else if( tblNo > 1172){
; 1347 : 		tblNo -= 877;
; 1348 : 	}else if( tblNo > 1161){
; 1349 : 		tblNo -= 868;
; 1350 : 	}else if( tblNo > 930){
; 1351 : 		tblNo -= 745;
; 1352 : 	}else if( tblNo == 927){
; 1353 : 		tblNo -= 634;
; 1354 : 	}else if( tblNo > 929){
; 1355 : 		tblNo -= 644;
; 1356 : 	}else if( tblNo > 927){
; 1357 : 		tblNo -= 643;
; 1358 : 	}else if( tblNo > 900){
; 1359 : 		tblNo -= 621;
; 1360 : 	}else if( tblNo > 180){
; 1361 : 		tblNo -= (333+56);
; 1362 : 	}
; 1363 : #elif defined(__ALBUM_31)
; 1364 : 	if ( tblNo > 1628 ){	//ç«èš1 ç«èš2 ç‰›äºº1 ç‰›äºº2
; 1365 : 		tblNo -= 1147;
; 1366 : 	}else if( tblNo > 1615 ){//å¸ƒé‡Œè¨å°” èœœèœ‚1 èœœèœ‚2 è´è¶1 è´è¶2 æš—é»‘ä¹ŒåŠ›çŽ‹ ç‹®äºº1 ç‹®äºº2 ç°äººç†” ç™½ç‹¼ å¸ƒä¼Šé…·
; 1367 : 		tblNo -= 1145;
; 1368 : 	}else if( tblNo > 1568 ){//æœºäººé¾™
; 1369 : 		tblNo -= 1103;
; 1370 : 	}else if( tblNo > 1564 ){//é»„è‰²é£žé¾™
; 1371 : 		tblNo -= 1101;
; 1372 : 	}else if( tblNo > 1516 ){
; 1373 : 		tblNo -= 1055;
; 1374 : 	}else if ( tblNo == 1516 ){//ä¿®æ­£ä¹ŒåŠ›çŽ‹
; 1375 : 		tblNo = 455 ;
; 1376 : 	}else if ( tblNo > 1509 ){
; 1377 : 		tblNo -= 1054;
; 1378 : 	}else if ( tblNo == 1497 ){
; 1379 : 		tblNo = 395;
; 1380 : 	}else if ( tblNo > 1495 ){
; 1381 : 		tblNo -= 1044 ;
; 1382 : 	}else if ( tblNo > 1490 ){
; 1383 : 		tblNo -= 1043 ;
; 1384 : 	}else if ( tblNo > 1485 ){
; 1385 : 		tblNo -= 1040 ; 
; 1386 : 	}else if ( tblNo > 1454 ) {
; 1387 : 		tblNo -= 1034 ; 
; 1388 : 	}else if ( tblNo == 1214 ) {
; 1389 : 		tblNo = 331 ;
; 1390 : 	}else if ( tblNo == 1217 ) {
; 1391 : 		tblNo = 328 ; 
; 1392 : 	}else if ( tblNo > 1361){
; 1393 : 		tblNo -= 952;
; 1394 : 	}else if( tblNo > 1356){
; 1395 : 		tblNo -= 999;
; 1396 : 	}else if( tblNo > 1281){
; 1397 : 		tblNo -= 919;
; 1398 : 	}else if( tblNo > 1239){
; 1399 : 		tblNo -= 889;
; 1400 : 	}else if( tblNo > 1186 ){
; 1401 : 		tblNo -= 886;
; 1402 : 	}else if( tblNo > 1173 ){
; 1403 : 		tblNo -= 877;
; 1404 : 	}else if( tblNo > 1172){
; 1405 : 		tblNo -= 877;
; 1406 : 	}else if( tblNo > 1161){
; 1407 : 		tblNo -= 868;
; 1408 : 	}else if( tblNo > 930){
; 1409 : 		tblNo -= 745;
; 1410 : 	}else if( tblNo == 927){
; 1411 : 		tblNo -= 634;
; 1412 : 	}else if( tblNo > 929){
; 1413 : 		tblNo -= 644;
; 1414 : 	}else if( tblNo > 927){
; 1415 : 		tblNo -= 643;
; 1416 : 	}else if( tblNo > 900){
; 1417 : 		tblNo -= 621;
; 1418 : 	}else if( tblNo > 180){
; 1419 : 		tblNo -= (333+56);
; 1420 : 	}
; 1421 : #elif defined(__ALBUM_30)
; 1422 : 	if( tblNo > 1615 ){//å¸ƒé‡Œè¨å°” èœœèœ‚1 èœœèœ‚2 è´è¶1 è´è¶2 æš—é»‘ä¹ŒåŠ›çŽ‹ ç‹®äºº1 ç‹®äºº2 ç°äººç†” ç™½ç‹¼ å¸ƒä¼Šé…·
; 1423 : 		tblNo -= 1145;
; 1424 : 	}else if( tblNo > 1568 ){//æœºäººé¾™
; 1425 : 		tblNo -= 1103;
; 1426 : 	}else if( tblNo > 1564 ){//é»„è‰²é£žé¾™
; 1427 : 		tblNo -= 1101;
; 1428 : 	}else if( tblNo > 1516 ){
; 1429 : 		tblNo -= 1055;
; 1430 : 	}else if ( tblNo == 1516 ){//ä¿®æ­£ä¹ŒåŠ›çŽ‹
; 1431 : 		tblNo = 455 ;
; 1432 : 	}else if ( tblNo > 1509 ){
; 1433 : 		tblNo -= 1054;
; 1434 : 	}else if ( tblNo == 1497 ){
; 1435 : 		tblNo = 395;
; 1436 : 	}else if ( tblNo > 1495 ){
; 1437 : 		tblNo -= 1044 ;
; 1438 : 	}else if ( tblNo > 1490 ){
; 1439 : 		tblNo -= 1043 ;
; 1440 : 	}else if ( tblNo > 1485 ){
; 1441 : 		tblNo -= 1040 ; 
; 1442 : 	}else if ( tblNo > 1454 ) {
; 1443 : 		tblNo -= 1034 ; 
; 1444 : 	}else if ( tblNo == 1214 ) {
; 1445 : 		tblNo = 331 ;
; 1446 : 	}else if ( tblNo == 1217 ) {
; 1447 : 		tblNo = 328 ; 
; 1448 : 	}else if ( tblNo > 1361){
; 1449 : 		tblNo -= 952;
; 1450 : 	}else if( tblNo > 1356){
; 1451 : 		tblNo -= 999;
; 1452 : 	}else if( tblNo > 1281){
; 1453 : 		tblNo -= 919;
; 1454 : 	}else if( tblNo > 1239){
; 1455 : 		tblNo -= 889;
; 1456 : 	}else if( tblNo > 1186 ){
; 1457 : 		tblNo -= 886;
; 1458 : 	}else if( tblNo > 1173 ){
; 1459 : 		tblNo -= 877;
; 1460 : 	}else if( tblNo > 1172){
; 1461 : 		tblNo -= 877;
; 1462 : 	}else if( tblNo > 1161){
; 1463 : 		tblNo -= 868;
; 1464 : 	}else if( tblNo > 930){
; 1465 : 		tblNo -= 745;
; 1466 : 	}else if( tblNo == 927){
; 1467 : 		tblNo -= 634;
; 1468 : 	}else if( tblNo > 929){
; 1469 : 		tblNo -= 644;
; 1470 : 	}else if( tblNo > 927){
; 1471 : 		tblNo -= 643;
; 1472 : 	}else if( tblNo > 900){
; 1473 : 		tblNo -= 621;
; 1474 : 	}else if( tblNo > 180){
; 1475 : 		tblNo -= (333+56);
; 1476 : 	}
; 1477 : #elif defined(__ALBUM_29)
; 1478 : 	if( tblNo > 1615 ){//å¸ƒé‡Œè¨å°” èœœèœ‚1 èœœèœ‚2 è´è¶1 è´è¶2 æš—é»‘ä¹ŒåŠ›çŽ‹ ç‹®äºº1 ç‹®äºº2 ç°äººç†” ç™½ç‹¼
; 1479 : 		tblNo -= 1145;
; 1480 : 	}else if( tblNo > 1568 ){//æœºäººé¾™
; 1481 : 		tblNo -= 1103;
; 1482 : 	}else if( tblNo > 1564 ){//é»„è‰²é£žé¾™
; 1483 : 		tblNo -= 1101;
; 1484 : 	}else if( tblNo > 1516 ){
; 1485 : 		tblNo -= 1055;
; 1486 : 	}else if ( tblNo == 1516 ){//ä¿®æ­£ä¹ŒåŠ›çŽ‹
; 1487 : 		tblNo = 455 ;
; 1488 : 	}else if ( tblNo > 1509 ){
; 1489 : 		tblNo -= 1054;
; 1490 : 	}else if ( tblNo == 1497 ){
; 1491 : 		tblNo = 395;
; 1492 : 	}else if ( tblNo > 1495 ){
; 1493 : 		tblNo -= 1044 ;
; 1494 : 	}else if ( tblNo > 1490 ){
; 1495 : 		tblNo -= 1043 ;
; 1496 : 	}else if ( tblNo > 1485 ){
; 1497 : 		tblNo -= 1040 ; 
; 1498 : 	}else if ( tblNo > 1454 ) {
; 1499 : 		tblNo -= 1034 ; 
; 1500 : 	}else if ( tblNo == 1214 ) {
; 1501 : 		tblNo = 331 ;
; 1502 : 	}else if ( tblNo == 1217 ) {
; 1503 : 		tblNo = 328 ; 
; 1504 : 	}else if ( tblNo > 1361){
; 1505 : 		tblNo -= 952;
; 1506 : 	}else if( tblNo > 1356){
; 1507 : 		tblNo -= 999;
; 1508 : 	}else if( tblNo > 1281){
; 1509 : 		tblNo -= 919;
; 1510 : 	}else if( tblNo > 1239){
; 1511 : 		tblNo -= 889;
; 1512 : 	}else if( tblNo > 1186 ){
; 1513 : 		tblNo -= 886;
; 1514 : 	}else if( tblNo > 1173 ){
; 1515 : 		tblNo -= 877;
; 1516 : 	}else if( tblNo > 1172){
; 1517 : 		tblNo -= 877;
; 1518 : 	}else if( tblNo > 1161){
; 1519 : 		tblNo -= 868;
; 1520 : 	}else if( tblNo > 930){
; 1521 : 		tblNo -= 745;
; 1522 : 	}else if( tblNo == 927){
; 1523 : 		tblNo -= 634;
; 1524 : 	}else if( tblNo > 929){
; 1525 : 		tblNo -= 644;
; 1526 : 	}else if( tblNo > 927){
; 1527 : 		tblNo -= 643;
; 1528 : 	}else if( tblNo > 900){
; 1529 : 		tblNo -= 621;
; 1530 : 	}else if( tblNo > 180){
; 1531 : 		tblNo -= (333+56);
; 1532 : 	}
; 1533 : #elif defined(__ALBUM_28)
; 1534 : 	if( tblNo > 1615 ){//å¸ƒé‡Œè¨å°” èœœèœ‚1 èœœèœ‚2 è´è¶1 è´è¶2 æš—é»‘ä¹ŒåŠ›çŽ‹ ç‹®äºº1 ç‹®äºº2 ç°äººç†”
; 1535 : 		tblNo -= 1145;
; 1536 : 	}else if( tblNo > 1568 ){//æœºäººé¾™
; 1537 : 		tblNo -= 1103;
; 1538 : 	}else if( tblNo > 1564 ){//é»„è‰²é£žé¾™
; 1539 : 		tblNo -= 1101;
; 1540 : 	}else if( tblNo > 1516 ){
; 1541 : 		tblNo -= 1055;
; 1542 : 	}else if ( tblNo == 1516 ){//ä¿®æ­£ä¹ŒåŠ›çŽ‹
; 1543 : 		tblNo = 455 ;
; 1544 : 	}else if ( tblNo > 1509 ){
; 1545 : 		tblNo -= 1054;
; 1546 : 	}else if ( tblNo == 1497 ){
; 1547 : 		tblNo = 395;
; 1548 : 	}else if ( tblNo > 1495 ){
; 1549 : 		tblNo -= 1044 ;
; 1550 : 	}else if ( tblNo > 1490 ){
; 1551 : 		tblNo -= 1043 ;
; 1552 : 	}else if ( tblNo > 1485 ){
; 1553 : 		tblNo -= 1040 ; 
; 1554 : 	}else if ( tblNo > 1454 ) {
; 1555 : 		tblNo -= 1034 ; 
; 1556 : 	}else if ( tblNo == 1214 ) {
; 1557 : 		tblNo = 331 ;
; 1558 : 	}else if ( tblNo == 1217 ) {
; 1559 : 		tblNo = 328 ; 
; 1560 : 	}else if ( tblNo > 1361){
; 1561 : 		tblNo -= 952;
; 1562 : 	}else if( tblNo > 1356){
; 1563 : 		tblNo -= 999;
; 1564 : 	}else if( tblNo > 1281){
; 1565 : 		tblNo -= 919;
; 1566 : 	}else if( tblNo > 1239){
; 1567 : 		tblNo -= 889;
; 1568 : 	}else if( tblNo > 1186 ){
; 1569 : 		tblNo -= 886;
; 1570 : 	}else if( tblNo > 1173 ){
; 1571 : 		tblNo -= 877;
; 1572 : 	}else if( tblNo > 1172){
; 1573 : 		tblNo -= 877;
; 1574 : 	}else if( tblNo > 1161){
; 1575 : 		tblNo -= 868;
; 1576 : 	}else if( tblNo > 930){
; 1577 : 		tblNo -= 745;
; 1578 : 	}else if( tblNo == 927){
; 1579 : 		tblNo -= 634;
; 1580 : 	}else if( tblNo > 929){
; 1581 : 		tblNo -= 644;
; 1582 : 	}else if( tblNo > 927){
; 1583 : 		tblNo -= 643;
; 1584 : 	}else if( tblNo > 900){
; 1585 : 		tblNo -= 621;
; 1586 : 	}else if( tblNo > 180){
; 1587 : 		tblNo -= (333+56);
; 1588 : 	}
; 1589 : #elif defined(__ALBUM_27)
; 1590 : 	if( tblNo > 1615 ){//å¸ƒé‡Œè¨å°” èœœèœ‚1 èœœèœ‚2 è´è¶1 è´è¶2 æš—é»‘ä¹ŒåŠ›çŽ‹ ç‹®äºº1 ç‹®äºº2
; 1591 : 		tblNo -= 1145;
; 1592 : 	}else if( tblNo > 1568 ){//æœºäººé¾™
; 1593 : 		tblNo -= 1103;
; 1594 : 	}else if( tblNo > 1564 ){//é»„è‰²é£žé¾™
; 1595 : 		tblNo -= 1101;
; 1596 : 	}else if( tblNo > 1516 ){
; 1597 : 		tblNo -= 1055;
; 1598 : 	}else if ( tblNo == 1516 ){//ä¿®æ­£ä¹ŒåŠ›çŽ‹
; 1599 : 		tblNo = 455 ;
; 1600 : 	}else if ( tblNo > 1509 ){
; 1601 : 		tblNo -= 1054;
; 1602 : 	}else if ( tblNo == 1497 ){
; 1603 : 		tblNo = 395;
; 1604 : 	}else if ( tblNo > 1495 ){
; 1605 : 		tblNo -= 1044 ;
; 1606 : 	}else if ( tblNo > 1490 ){
; 1607 : 		tblNo -= 1043 ;
; 1608 : 	}else if ( tblNo > 1485 ){
; 1609 : 		tblNo -= 1040 ; 
; 1610 : 	}else if ( tblNo > 1454 ) {
; 1611 : 		tblNo -= 1034 ; 
; 1612 : 	}else if ( tblNo == 1214 ) {
; 1613 : 		tblNo = 331 ;
; 1614 : 	}else if ( tblNo == 1217 ) {
; 1615 : 		tblNo = 328 ; 
; 1616 : 	}else if ( tblNo > 1361){
; 1617 : 		tblNo -= 952;
; 1618 : 	}else if( tblNo > 1356){
; 1619 : 		tblNo -= 999;
; 1620 : 	}else if( tblNo > 1281){
; 1621 : 		tblNo -= 919;
; 1622 : 	}else if( tblNo > 1239){
; 1623 : 		tblNo -= 889;
; 1624 : 	}else if( tblNo > 1186 ){
; 1625 : 		tblNo -= 886;
; 1626 : 	}else if( tblNo > 1173 ){
; 1627 : 		tblNo -= 877;
; 1628 : 	}else if( tblNo > 1172){
; 1629 : 		tblNo -= 877;
; 1630 : 	}else if( tblNo > 1161){
; 1631 : 		tblNo -= 868;
; 1632 : 	}else if( tblNo > 930){
; 1633 : 		tblNo -= 745;
; 1634 : 	}else if( tblNo == 927){
; 1635 : 		tblNo -= 634;
; 1636 : 	}else if( tblNo > 929){
; 1637 : 		tblNo -= 644;
; 1638 : 	}else if( tblNo > 927){
; 1639 : 		tblNo -= 643;
; 1640 : 	}else if( tblNo > 900){
; 1641 : 		tblNo -= 621;
; 1642 : 	}else if( tblNo > 180){
; 1643 : 		tblNo -= (333+56);
; 1644 : 	}
; 1645 : 
; 1646 : #elif defined(__ALBUM_26)
; 1647 : 	if( tblNo > 1615 ){//å¸ƒé‡Œè¨å°” èœœèœ‚1 èœœèœ‚2 è´è¶1 è´è¶2 æš—é»‘ä¹ŒåŠ›çŽ‹
; 1648 : 		tblNo -= 1145;
; 1649 : 	}else if( tblNo > 1568 ){//æœºäººé¾™
; 1650 : 		tblNo -= 1103;
; 1651 : 	}else if( tblNo > 1564 ){//é»„è‰²é£žé¾™
; 1652 : 		tblNo -= 1101;
; 1653 : 	}else if( tblNo > 1516 ){
; 1654 : 		tblNo -= 1055;
; 1655 : 	}else if ( tblNo == 1516 ){//ä¿®æ­£ä¹ŒåŠ›çŽ‹
; 1656 : 		tblNo = 455 ;
; 1657 : 	}else if ( tblNo > 1509 ){
; 1658 : 		tblNo -= 1054;
; 1659 : 	}else if ( tblNo == 1497 ){
; 1660 : 		tblNo = 395;
; 1661 : 	}else if ( tblNo > 1495 ){
; 1662 : 		tblNo -= 1044 ;
; 1663 : 	}else if ( tblNo > 1490 ){
; 1664 : 		tblNo -= 1043 ;
; 1665 : 	}else if ( tblNo > 1485 ){
; 1666 : 		tblNo -= 1040 ; 
; 1667 : 	}else if ( tblNo > 1454 ) {
; 1668 : 		tblNo -= 1034 ; 
; 1669 : 	}else if ( tblNo == 1214 ) {
; 1670 : 		tblNo = 331 ;
; 1671 : 	}else if ( tblNo == 1217 ) {
; 1672 : 		tblNo = 328 ; 
; 1673 : 	}else if ( tblNo > 1361){
; 1674 : 		tblNo -= 952;
; 1675 : 	}else if( tblNo > 1356){
; 1676 : 		tblNo -= 999;
; 1677 : 	}else if( tblNo > 1281){
; 1678 : 		tblNo -= 919;
; 1679 : 	}else if( tblNo > 1239){
; 1680 : 		tblNo -= 889;
; 1681 : 	}else if( tblNo > 1186 ){
; 1682 : 		tblNo -= 886;
; 1683 : 	}else if( tblNo > 1173 ){
; 1684 : 		tblNo -= 877;
; 1685 : 	}else if( tblNo > 1172){
; 1686 : 		tblNo -= 877;
; 1687 : 	}else if( tblNo > 1161){
; 1688 : 		tblNo -= 868;
; 1689 : 	}else if( tblNo > 930){
; 1690 : 		tblNo -= 745;
; 1691 : 	}else if( tblNo == 927){
; 1692 : 		tblNo -= 634;
; 1693 : 	}else if( tblNo > 929){
; 1694 : 		tblNo -= 644;
; 1695 : 	}else if( tblNo > 927){
; 1696 : 		tblNo -= 643;
; 1697 : 	}else if( tblNo > 900){
; 1698 : 		tblNo -= 621;
; 1699 : 	}else if( tblNo > 180){
; 1700 : 		tblNo -= (333+56);
; 1701 : 	}
; 1702 : #elif defined(__ALBUM_25)
; 1703 : 	if( tblNo > 1615 ){//å¸ƒé‡Œè¨å°”
; 1704 : 		tblNo -= 1145;
; 1705 : 	}else if( tblNo > 1568 ){//æœºäººé¾™
; 1706 : 		tblNo -= 1103;
; 1707 : 	}else if( tblNo > 1564 ){//é»„è‰²é£žé¾™
; 1708 : 		tblNo -= 1101;
; 1709 : 	}else if( tblNo > 1516 ){
; 1710 : 		tblNo -= 1055;
; 1711 : 	}else if ( tblNo == 1516 ){//ä¿®æ­£ä¹ŒåŠ›çŽ‹
; 1712 : 		tblNo = 455 ;
; 1713 : 	}else if ( tblNo > 1509 ){
; 1714 : 		tblNo -= 1054;
; 1715 : 	}else if ( tblNo == 1497 ){
; 1716 : 		tblNo = 395;
; 1717 : 	}else if ( tblNo > 1495 ){
; 1718 : 		tblNo -= 1044 ;
; 1719 : 	}else if ( tblNo > 1490 ){
; 1720 : 		tblNo -= 1043 ;
; 1721 : 	}else if ( tblNo > 1485 ){
; 1722 : 		tblNo -= 1040 ; 
; 1723 : 	}else if ( tblNo > 1454 ) {
; 1724 : 		tblNo -= 1034 ; 
; 1725 : 	}else if ( tblNo == 1214 ) {
; 1726 : 		tblNo = 331 ;
; 1727 : 	}else if ( tblNo == 1217 ) {
; 1728 : 		tblNo = 328 ; 
; 1729 : 	}else if ( tblNo > 1361){
; 1730 : 		tblNo -= 952;
; 1731 : 	}else if( tblNo > 1356){
; 1732 : 		tblNo -= 999;
; 1733 : 	}else if( tblNo > 1281){
; 1734 : 		tblNo -= 919;
; 1735 : 	}else if( tblNo > 1239){
; 1736 : 		tblNo -= 889;
; 1737 : 	}else if( tblNo > 1186 ){
; 1738 : 		tblNo -= 886;
; 1739 : 	}else if( tblNo > 1173 ){
; 1740 : 		tblNo -= 877;
; 1741 : 	}else if( tblNo > 1172){
; 1742 : 		tblNo -= 877;
; 1743 : 	}else if( tblNo > 1161){
; 1744 : 		tblNo -= 868;
; 1745 : 	}else if( tblNo > 930){
; 1746 : 		tblNo -= 745;
; 1747 : 	}else if( tblNo == 927){
; 1748 : 		tblNo -= 634;
; 1749 : 	}else if( tblNo > 929){
; 1750 : 		tblNo -= 644;
; 1751 : 	}else if( tblNo > 927){
; 1752 : 		tblNo -= 643;
; 1753 : 	}else if( tblNo > 900){
; 1754 : 		tblNo -= 621;
; 1755 : 	}else if( tblNo > 180){
; 1756 : 		tblNo -= (333+56);
; 1757 : 	}
; 1758 : #elif defined(__ALBUM_24)
; 1759 : 	if( tblNo > 1568 ){//æœºäººé¾™
; 1760 : 		tblNo -= 1103;
; 1761 : 	}else if( tblNo > 1564 ){//é»„è‰²é£žé¾™
; 1762 : 		tblNo -= 1101;
; 1763 : 	}else if( tblNo > 1516 ){
; 1764 : 		tblNo -= 1055;
; 1765 : 	}else if ( tblNo == 1516 ){//ä¿®æ­£ä¹ŒåŠ›çŽ‹
; 1766 : 		tblNo = 455 ;
; 1767 : 	}else if ( tblNo > 1509 ){
; 1768 : 		tblNo -= 1054;
; 1769 : 	}else if ( tblNo == 1497 ){
; 1770 : 		tblNo = 395;
; 1771 : 	}else if ( tblNo > 1495 ){
; 1772 : 		tblNo -= 1044 ;
; 1773 : 	}else if ( tblNo > 1490 ){
; 1774 : 		tblNo -= 1043 ;
; 1775 : 	}else if ( tblNo > 1485 ){
; 1776 : 		tblNo -= 1040 ; 
; 1777 : 	}else if ( tblNo > 1454 ) {
; 1778 : 		tblNo -= 1034 ; 
; 1779 : 	}else if ( tblNo == 1214 ) {
; 1780 : 		tblNo = 331 ;
; 1781 : 	}else if ( tblNo == 1217 ) {
; 1782 : 		tblNo = 328 ; 
; 1783 : 	}else if ( tblNo > 1361){
; 1784 : 		tblNo -= 952;
; 1785 : 	}else if( tblNo > 1356){
; 1786 : 		tblNo -= 999;
; 1787 : 	}else if( tblNo > 1281){
; 1788 : 		tblNo -= 919;
; 1789 : 	}else if( tblNo > 1239){
; 1790 : 		tblNo -= 889;
; 1791 : 	}else if( tblNo > 1186 ){
; 1792 : 		tblNo -= 886;
; 1793 : 	}else if( tblNo > 1173 ){
; 1794 : 		tblNo -= 877;
; 1795 : 	}else if( tblNo > 1172){
; 1796 : 		tblNo -= 877;
; 1797 : 	}else if( tblNo > 1161){
; 1798 : 		tblNo -= 868;
; 1799 : 	}else if( tblNo > 930){
; 1800 : 		tblNo -= 745;
; 1801 : 	}else if( tblNo == 927){
; 1802 : 		tblNo -= 634;
; 1803 : 	}else if( tblNo > 929){
; 1804 : 		tblNo -= 644;
; 1805 : 	}else if( tblNo > 927){
; 1806 : 		tblNo -= 643;
; 1807 : 	}else if( tblNo > 900){
; 1808 : 		tblNo -= 621;
; 1809 : 	}else if( tblNo > 180){
; 1810 : 		tblNo -= (333+56);
; 1811 : 	}
; 1812 : #elif defined(__ALBUM_23)
; 1813 : 	if( tblNo > 1518 ){
; 1814 : 		tblNo -= 1057;
; 1815 : 	}else if( tblNo > 1516 ){
; 1816 : 		tblNo -= 1055;
; 1817 : 	}else if ( tblNo == 1516 ){//ä¿®æ­£ä¹ŒåŠ›çŽ‹
; 1818 : 		tblNo = 455 ;
; 1819 : 	}else if ( tblNo > 1509 ){
; 1820 : 		tblNo -= 1054;
; 1821 : 	}else if ( tblNo == 1497 ){
; 1822 : 		tblNo = 395;
; 1823 : 	}else if ( tblNo > 1495 ){
; 1824 : 		tblNo -= 1044 ;
; 1825 : 	}else if ( tblNo > 1490 ){
; 1826 : 		tblNo -= 1043 ;
; 1827 : 	}else if ( tblNo > 1485 ){
; 1828 : 		tblNo -= 1040 ; 
; 1829 : 	}else if ( tblNo > 1454 ) {
; 1830 : 		tblNo -= 1034 ; 
; 1831 : 	}else if ( tblNo == 1214 ) {
; 1832 : 		tblNo = 331 ;
; 1833 : 	}else if ( tblNo == 1217 ) {
; 1834 : 		tblNo = 328 ; 
; 1835 : 	}else if ( tblNo > 1361){
; 1836 : 		tblNo -= 952;
; 1837 : 	}else if( tblNo > 1356){
; 1838 : 		tblNo -= 999;
; 1839 : 	}else if( tblNo > 1281){
; 1840 : 		tblNo -= 919;
; 1841 : 	}else if( tblNo > 1239){
; 1842 : 		tblNo -= 889;
; 1843 : 	}else if( tblNo > 1186 ){
; 1844 : 		tblNo -= 886;
; 1845 : 	}else if( tblNo > 1173 ){
; 1846 : 		tblNo -= 877;
; 1847 : 	}else if( tblNo > 1172){
; 1848 : 		tblNo -= 877;
; 1849 : 	}else if( tblNo > 1161){
; 1850 : 		tblNo -= 868;
; 1851 : 	}else if( tblNo > 930){
; 1852 : 		tblNo -= 745;
; 1853 : 	}else if( tblNo == 927){
; 1854 : 		tblNo -= 634;
; 1855 : 	}else if( tblNo > 929){
; 1856 : 		tblNo -= 644;
; 1857 : 	}else if( tblNo > 927){
; 1858 : 		tblNo -= 643;
; 1859 : 	}else if( tblNo > 900){
; 1860 : 		tblNo -= 621;
