; Listing generated by Microsoft (R) Optimizing Compiler Version 19.29.30133.0 

	TITLE	\\VBOXSVR\_stoneage\repos\ssm-sacli\Release\battleMenu.obj
	.686P
	.XMM
	include listing.inc
	.model	flat

INCLUDELIB LIBCMT
INCLUDELIB OLDNAMES

PUBLIC	?AI@@3HA					; AI
PUBLIC	?PauseAI@@3KA					; PauseAI
PUBLIC	?BattleCmd@@3PADA				; BattleCmd
PUBLIC	?BattleCmdBak@@3PAY0BAAA@DA			; BattleCmdBak
PUBLIC	?BattleCmdReadPointer@@3HA			; BattleCmdReadPointer
PUBLIC	?BattleCmdWritePointer@@3HA			; BattleCmdWritePointer
PUBLIC	?BattleStatus@@3PADA				; BattleStatus
PUBLIC	?BattleStatusBak@@3PAY0BAAA@DA			; BattleStatusBak
PUBLIC	?BattleStatusReadPointer@@3HA			; BattleStatusReadPointer
PUBLIC	?BattleStatusWritePointer@@3HA			; BattleStatusWritePointer
PUBLIC	?battleMenuFlag2@@3HA				; battleMenuFlag2
PUBLIC	?BattleMyNo@@3HA				; BattleMyNo
PUBLIC	?BattleMyMp@@3HA				; BattleMyMp
PUBLIC	?BattleEscFlag@@3HA				; BattleEscFlag
PUBLIC	?BattlePetStMenCnt@@3HA				; BattlePetStMenCnt
PUBLIC	?battlePetNoBak@@3HA				; battlePetNoBak
PUBLIC	?battlePetNoBak2@@3HA				; battlePetNoBak2
PUBLIC	?BattleBpFlag@@3HA				; BattleBpFlag
PUBLIC	?BattleAnimFlag@@3HA				; BattleAnimFlag
PUBLIC	?BattleTurnReceiveFlag@@3HA			; BattleTurnReceiveFlag
PUBLIC	?BattleCliTurnNo@@3HA				; BattleCliTurnNo
PUBLIC	?BattleSvTurnNo@@3HA				; BattleSvTurnNo
PUBLIC	?BattleResultWndFlag@@3HA			; BattleResultWndFlag
PUBLIC	?BattleCmdNo@@3HA				; BattleCmdNo
PUBLIC	?BattleJujutuNo@@3HA				; BattleJujutuNo
PUBLIC	?BattleWazaNo@@3HA				; BattleWazaNo
PUBLIC	?BattleItemNo@@3HA				; BattleItemNo
PUBLIC	?battlePlayerEscFlag@@3HA			; battlePlayerEscFlag
PUBLIC	?BattleCntDown@@3KA				; BattleCntDown
PUBLIC	?BattleIntervalCnt@@3KA				; BattleIntervalCnt
PUBLIC	?BattleCntDownFlag@@3HA				; BattleCntDownFlag
PUBLIC	?battleMenuFlag@@3HA				; battleMenuFlag
PUBLIC	?battlePetButtonFlag@@3HA			; battlePetButtonFlag
PUBLIC	?battleButtonBak@@3HA				; battleButtonBak
PUBLIC	?battleWazaTargetBak@@3HA			; battleWazaTargetBak
PUBLIC	?wonflag@@3HA					; wonflag
PUBLIC	?prouseskill@@3HA				; prouseskill
PUBLIC	?SkillWnd2@@3HA					; SkillWnd2
_BSS	SEGMENT
?AI@@3HA DD	01H DUP (?)				; AI
?PauseAI@@3KA DD 01H DUP (?)				; PauseAI
?BattleCmd@@3PADA DB 01000H DUP (?)			; BattleCmd
?BattleCmdBak@@3PAY0BAAA@DA DB 04020H DUP (?)		; BattleCmdBak
?BattleCmdReadPointer@@3HA DD 01H DUP (?)		; BattleCmdReadPointer
?BattleCmdWritePointer@@3HA DD 01H DUP (?)		; BattleCmdWritePointer
?BattleStatus@@3PADA DB 01000H DUP (?)			; BattleStatus
?BattleStatusBak@@3PAY0BAAA@DA DB 04020H DUP (?)	; BattleStatusBak
?BattleStatusReadPointer@@3HA DD 01H DUP (?)		; BattleStatusReadPointer
?BattleStatusWritePointer@@3HA DD 01H DUP (?)		; BattleStatusWritePointer
?battleMenuFlag2@@3HA DD 01H DUP (?)			; battleMenuFlag2
?BattleMyNo@@3HA DD 01H DUP (?)				; BattleMyNo
?BattleMyMp@@3HA DD 01H DUP (?)				; BattleMyMp
?BattleEscFlag@@3HA DD 01H DUP (?)			; BattleEscFlag
?BattlePetStMenCnt@@3HA DD 01H DUP (?)			; BattlePetStMenCnt
?BattleBpFlag@@3HA DD 01H DUP (?)			; BattleBpFlag
?BattleAnimFlag@@3HA DD 01H DUP (?)			; BattleAnimFlag
?BattleTurnReceiveFlag@@3HA DD 01H DUP (?)		; BattleTurnReceiveFlag
?BattleCliTurnNo@@3HA DD 01H DUP (?)			; BattleCliTurnNo
?BattleSvTurnNo@@3HA DD 01H DUP (?)			; BattleSvTurnNo
?BattleResultWndFlag@@3HA DD 01H DUP (?)		; BattleResultWndFlag
?BattleJujutuNo@@3HA DD 01H DUP (?)			; BattleJujutuNo
?BattleWazaNo@@3HA DD 01H DUP (?)			; BattleWazaNo
?BattleItemNo@@3HA DD 01H DUP (?)			; BattleItemNo
?battlePlayerEscFlag@@3HA DD 01H DUP (?)		; battlePlayerEscFlag
?BattleCntDown@@3KA DD 01H DUP (?)			; BattleCntDown
?BattleIntervalCnt@@3KA DD 01H DUP (?)			; BattleIntervalCnt
?BattleCntDownFlag@@3HA DD 01H DUP (?)			; BattleCntDownFlag
?battleMenuFlag@@3HA DD 01H DUP (?)			; battleMenuFlag
?battlePetButtonFlag@@3HA DD 01H DUP (?)		; battlePetButtonFlag
?wonflag@@3HA DD 01H DUP (?)				; wonflag
?SkillWnd2@@3HA DD 01H DUP (?)				; SkillWnd2
_BSS	ENDS
_DATA	SEGMENT
?battlePetNoBak@@3HA DD 0fffffffeH			; battlePetNoBak
?battlePetNoBak2@@3HA DD 0fffffffeH			; battlePetNoBak2
?BattleCmdNo@@3HA DD 0ffffffffH				; BattleCmdNo
?battleButtonBak@@3HA DD 0ffffffffH			; battleButtonBak
?battleWazaTargetBak@@3HA DD 0ffffffffH			; battleWazaTargetBak
?prouseskill@@3HA DD 0ffffffffH				; prouseskill
_DATA	ENDS
PUBLIC	___local_stdio_printf_options
PUBLIC	_sprintf
PUBLIC	?BattleMenuProc@@YAXXZ				; BattleMenuProc
PUBLIC	?ClearBattleButton@@YAXXZ			; ClearBattleButton
PUBLIC	?InitBattleMenu@@YAXXZ				; InitBattleMenu
PUBLIC	?CheckBattleAnimFlag@@YAXXZ			; CheckBattleAnimFlag
PUBLIC	?CheckBattle1P2P@@YAHXZ				; CheckBattle1P2P
PUBLIC	?HpMeterDisp@@YAXH@Z				; HpMeterDisp
PUBLIC	?BattleNameDisp@@YAXXZ				; BattleNameDisp
PUBLIC	?BattleSetWazaHitBox@@YAXHH@Z			; BattleSetWazaHitBox
PUBLIC	?InitBattleAnimFlag@@YAXXZ			; InitBattleAnimFlag
PUBLIC	?CheckPetSuu@@YAHXZ				; CheckPetSuu
PUBLIC	?ClearBoxFlag@@YAXXZ				; ClearBoxFlag
PUBLIC	?CheckBattelTarget@@YAHXZ			; CheckBattelTarget
PUBLIC	?BattleButtonOff@@YAXXZ				; BattleButtonOff
PUBLIC	?InitItem2@@YAXHH@Z				; InitItem2
PUBLIC	??$sprintf_s@$0BAA@@@YAHAAY0BAA@DPBDZZ		; sprintf_s<256>
PUBLIC	?BattleButtonAttack@@YAXXZ			; BattleButtonAttack
PUBLIC	?BattleButtonJujutsu@@YAXXZ			; BattleButtonJujutsu
PUBLIC	?BattleButtonCapture@@YAXXZ			; BattleButtonCapture
PUBLIC	?BattleButtonHelp@@YAXXZ			; BattleButtonHelp
PUBLIC	?BattleButtonGuard@@YAXXZ			; BattleButtonGuard
PUBLIC	?BattleButtonItem@@YAXXZ			; BattleButtonItem
PUBLIC	?BattleButtonPet@@YAXXZ				; BattleButtonPet
PUBLIC	?BattleButtonPPLSKILL@@YAXXZ			; BattleButtonPPLSKILL
PUBLIC	?BattleButtonEscape@@YAXXZ			; BattleButtonEscape
PUBLIC	?BattleButtonWaza@@YAXXZ			; BattleButtonWaza
PUBLIC	?BattleTargetSelect@@YAXXZ			; BattleTargetSelect
PUBLIC	?GetBattelTarget@@YAHXZ				; GetBattelTarget
PUBLIC	?BattleCntDownDisp@@YAXXZ			; BattleCntDownDisp
PUBLIC	?CloseInfoWnd@@YAXXZ				; CloseInfoWnd
PUBLIC	?_OptionsStorage@?1??__local_stdio_printf_options@@9@4_KA ; `__local_stdio_printf_options'::`2'::_OptionsStorage
PUBLIC	??_C@_08JCHLGOEH@?$CFs?5Lv?3?$CFd@		; `string'
PUBLIC	??_C@_08NJBMJDFM@HP?3?$CFd?1?$CFd@		; `string'
PUBLIC	??_C@_0L@BHJLNCHD@?$LA?x?$LA?$NN?G?O?$LE?Y?$KB?$KD@ ; `string'
PUBLIC	??_C@_0BC@GBLBFMBP@?A?V?$LM?z?$MA?$LL?5?$LL?g?$LP?k?G?O?$LE?Y?$KB?$KD@ ; `string'
PUBLIC	??_C@_0CJ@HJBAPDHB@?D?$KH?$LJ?$KM?$LL?s?E?B?$LP?$KB?$LM?$KN?$LE?B?5?A?V?$LM?z?$MA?$LL?5?$LL?g?$LP?k?G?R?$LM?v?$LO@ ; `string'
PUBLIC	??_C@_07HFNBMNBH@?$CF2d?1?$CF2d@		; `string'
PUBLIC	??_C@_0BA@BODGMCMN@?A?V?$LM?z?$MA?L?5?$LO?x?$LN?$MA?$LE?O?$LE?Y@ ; `string'
PUBLIC	??_C@_0CK@LMOADLH@?F?d?F?$KO?C?$KC?$MA?L?5?$LC?K?5?B?w?$LM?$KN?5?$LE?u?$MA?L?$LL?s?5?F?w?H?$LJ?G?R?$LM@ ; `string'
PUBLIC	??_C@_0L@OPNNNOMC@?F?w?H?$LJ?G?O?$LE?Y?$KB?$KD@	; `string'
PUBLIC	??_C@_06EBHMOCNH@HELP?$KB?$KD@			; `string'
PUBLIC	??_C@_01BBODEMC@G@				; `string'
PUBLIC	??_C@_06NDKEIKGO@?$LJ?f?$LO?n?$KB?$KD@		; `string'
PUBLIC	??_C@_08CJOHOOE@?$LO?F?$MA?L?E?$NL?$KB?$KD@	; `string'
PUBLIC	??_C@_0CA@ELBOPCEK@?$MA?$PM?E?u?5?A?$NP?5?$LO?V?$LP?O?$LF?$LP?$LJ?$LA?5?$MA?e?$LK?q?5?$LB?$LD?C?$LM?5?$LK?R?$LA?$KB@ ; `string'
PUBLIC	??_C@_0L@CJKKBEMM@?F?d?F?$KO?$LB?$LD?C?$LM?$KB?$KD@ ; `string'
PUBLIC	??_C@_04FIJAIIHF@S?$HM?$CFd@			; `string'
PUBLIC	??_C@_04JBEPHANM@S?$HM?91@			; `string'
PUBLIC	??_C@_06ELKFHEJ@?C?f?3?$CF3d@			; `string'
PUBLIC	??_C@_0BH@KGEJIJPJ@?$CF?93d?5?5?5?5?5?5?5?5?5?$CF5d?5?5?5?$CF5d@ ; `string'
PUBLIC	??_C@_0BF@FCDGFJJJ@?G?C?$LH?$LJ?$MA?L?$LO?n?$LA?$KB?5?$LO?x?$LE?B?5?F?d?F?$KO@ ; `string'
PUBLIC	??_C@_08LCIHGOIJ@?A?w?$LO?w?$LB?b?$LE?I@	; `string'
PUBLIC	??_C@_03GHDNOBPC@?$CF8s@			; `string'
PUBLIC	??_C@_02DKCKIIND@?$CFs@				; `string'
PUBLIC	??_C@_06BPKJHHJO@?5?5?$CFd?$KD?$KF@		; `string'
PUBLIC	??_C@_0BA@OEIEMLKK@?$CI?$LM?R?$LK?q?G?O?$LE?YMP?3?$CFd?$CJ@ ; `string'
PUBLIC	??_C@_01DDCIFGEA@E@				; `string'
PUBLIC	??_C@_06DOILANO@?E?$LL?C?b?$KB?$KD@		; `string'
PUBLIC	??_C@_07NGDMDFPD@P?$HM?$CFX?$HM?$CFX@		; `string'
PUBLIC	??_C@_07NMPJDMOK@W?$HM?$CFX?$HM?$CFX@		; `string'
PUBLIC	??_C@_0BC@EMOKBAPI@?$LB?b?$LE?I?$MA?$LL?5?$LL?g?$LP?k?G?O?$LE?Y?$KB?$KD@ ; `string'
PUBLIC	??_C@_07BDJJCCFL@W?$HMFF?$HMFF@			; `string'
PUBLIC	??_C@_0N@DBNACIMP@?5?5?5?5?5?5?5?$CF?922s@	; `string'
PUBLIC	??_C@_0BF@NNNOOJBA@?$LI?q?G?$KF?$LI?$KG?5?$LM?$LB?E?C?5?G?X?A?V?$LM?$LM?$LP?d@ ; `string'
PUBLIC	??_C@_04DMFDFHBJ@H?$HM?$CFX@			; `string'
PUBLIC	??_C@_04JJEDCNJK@T?$HM?$CFX@			; `string'
PUBLIC	??_C@_07DLEHBIBA@J?$HM?$CFX?$HM?$CFX@		; `string'
PUBLIC	??_C@_07LFMIBPPD@I?$HM?$CFX?$HM?$CFX@		; `string'
PUBLIC	??_C@_01NANMIPIL@N@				; `string'
PUBLIC	??_C@_03GPCJOALC@?$CF2d@			; `string'
PUBLIC	??_C@_05FNFPHGDP@?$CF?924s@			; `string'
PUBLIC	__real@c044000000000000
PUBLIC	__xmm@fffffffefffffffefffffffefffffffe
EXTRN	?TimeGetTime@@YAIXZ:PROC			; TimeGetTime
EXTRN	_strncpy:PROC
EXTRN	___stdio_common_vsprintf:PROC
EXTRN	___stdio_common_vsprintf_s:PROC
EXTRN	?DeathAction@@YAXPAUaction@@@Z:PROC		; DeathAction
EXTRN	?StockDispBuffer@@YAHHHEHH@Z:PROC		; StockDispBuffer
EXTRN	?StockBoxDispBuffer@@YAXHHHHEHH@Z:PROC		; StockBoxDispBuffer
EXTRN	?StockChatBufferLine@@YAXPADEH@Z:PROC		; StockChatBufferLine
EXTRN	?GetStrLastByte@@YAHPAD@Z:PROC			; GetStrLastByte
EXTRN	?GetStrWidth@@YAHPAD@Z:PROC			; GetStrWidth
EXTRN	?StockFontBuffer@@YAHHHDHPADH@Z:PROC		; StockFontBuffer
EXTRN	?lssproto_B_send@@YAXHPAD@Z:PROC		; lssproto_B_send
EXTRN	?lssproto_ID_send@@YAXHHHHH@Z:PROC		; lssproto_ID_send
EXTRN	?lssproto_HL_send@@YAXHH@Z:PROC			; lssproto_HL_send
EXTRN	?old_lssproto_B_send@@YAXHPAD@Z:PROC		; old_lssproto_B_send
EXTRN	?old_lssproto_ID_send@@YAXHHHHH@Z:PROC		; old_lssproto_ID_send
EXTRN	?old_lssproto_HL_send@@YAXHH@Z:PROC		; old_lssproto_HL_send
EXTRN	?play_se@@YAHHHH@Z:PROC				; play_se
EXTRN	?MakeWindowDisp@@YAPAUaction@@HHHHHH@Z:PROC	; MakeWindowDisp
EXTRN	?MakeHitBox@@YAHHHHHH@Z:PROC			; MakeHitBox
EXTRN	?CenteringStr@@YAXPAD0H@Z:PROC			; CenteringStr
EXTRN	@__security_check_cookie@4:PROC
EXTRN	_memset:PROC
EXTRN	?DISPLACEMENT_X@@3HA:DWORD			; DISPLACEMENT_X
EXTRN	?DISPLACEMENT_Y@@3HA:DWORD			; DISPLACEMENT_Y
EXTRN	?SubProcNo@@3IA:DWORD				; SubProcNo
EXTRN	?p_party@@3PAPAUaction@@A:BYTE			; p_party
EXTRN	?mouse@@3UMOUSE@@A:BYTE				; mouse
EXTRN	?HitFontNo@@3HA:DWORD				; HitFontNo
EXTRN	?HitDispNo@@3HA:DWORD				; HitDispNo
EXTRN	?OneLineInfoStr@@3PADA:BYTE			; OneLineInfoStr
EXTRN	?bNewServer@@3HA:DWORD				; bNewServer
EXTRN	?sockfd@@3IA:DWORD				; sockfd
EXTRN	?pc@@3UPC@@A:BYTE				; pc
EXTRN	?helpFlag@@3FA:WORD				; helpFlag
EXTRN	?magic@@3PAUMAGIC@@A:BYTE			; magic
EXTRN	?pet@@3PAUPET@@A:BYTE				; pet
EXTRN	?petSkill@@3PAY06UPET_SKILL@@A:BYTE		; petSkill
EXTRN	?profession_skill@@3PAUPROFESSION_SKILL@@A:BYTE	; profession_skill
EXTRN	?CG_BATTTLE_SKILLCHOICE@@3HA:DWORD		; CG_BATTTLE_SKILLCHOICE
EXTRN	?CG_BTL_PET_CHANGE_WND@@3HA:DWORD		; CG_BTL_PET_CHANGE_WND
EXTRN	?CG_ITEM_WND_1@@3HA:DWORD			; CG_ITEM_WND_1
EXTRN	?CG_JUJUTU_WND@@3HA:DWORD			; CG_JUJUTU_WND
EXTRN	?CG_PET_WAZA_WND@@3HA:DWORD			; CG_PET_WAZA_WND
EXTRN	?NoHelpFlag@@3HA:DWORD				; NoHelpFlag
EXTRN	?NoEscFlag@@3HA:DWORD				; NoEscFlag
EXTRN	?NoCastFlag@@3HA:DWORD				; NoCastFlag
EXTRN	?MenuToggleFlag@@3IA:DWORD			; MenuToggleFlag
EXTRN	?ItemBuffer@@3PAUITEM_BUFFER@@A:BYTE		; ItemBuffer
EXTRN	?nowFloor@@3HA:DWORD				; nowFloor
EXTRN	?nowGx@@3HA:DWORD				; nowGx
EXTRN	?nowGy@@3HA:DWORD				; nowGy
EXTRN	?menuBtn@@3FA:WORD				; menuBtn
EXTRN	?nameOverTheHeadFlag@@3FA:WORD			; nameOverTheHeadFlag
EXTRN	?AI_First@@3HA:DWORD				; AI_First
EXTRN	?BattleSkill@@3PAHA:BYTE			; BattleSkill
EXTRN	?AssitSkill@@3PAHA:BYTE				; AssitSkill
EXTRN	?AdvanceSkill@@3PAHA:BYTE			; AdvanceSkill
EXTRN	___security_cookie:DWORD
EXTRN	__fltused:DWORD
;	COMDAT ?_OptionsStorage@?1??__local_stdio_printf_options@@9@4_KA
_BSS	SEGMENT
?_OptionsStorage@?1??__local_stdio_printf_options@@9@4_KA DQ 01H DUP (?) ; `__local_stdio_printf_options'::`2'::_OptionsStorage
_BSS	ENDS
_BSS	SEGMENT
?battleButtonFlag@@3PAHA DD 0aH DUP (?)			; battleButtonFlag
?battleButtonDispNo@@3PAHA DD 0aH DUP (?)		; battleButtonDispNo
?battleMenuJujutsuFontNo@@3PAHA DD 06H DUP (?)		; battleMenuJujutsuFontNo
?battleMenuItemFontNo@@3PAHA DD 06H DUP (?)		; battleMenuItemFontNo
?battleMenuPetFontNo@@3PAHA DD 07H DUP (?)		; battleMenuPetFontNo
?battleMenuWazaFontNo@@3PAHA DD 09H DUP (?)		; battleMenuWazaFontNo
?battleMenuReturn@@3HA DD 01H DUP (?)			; battleMenuReturn
?battlePetMenuFlag@@3HA DD 01H DUP (?)			; battlePetMenuFlag
?battleTimeUpFlag@@3HA DD 01H DUP (?)			; battleTimeUpFlag
?battleTargetSelectFlag@@3HA DD 01H DUP (?)		; battleTargetSelectFlag
?pActInfoWnd@@3PAUaction@@A DD 01H DUP (?)		; pActInfoWnd
?pActWnd@@3PAUaction@@A DD 01H DUP (?)			; pActWnd
?buttonX@@3HA DD 01H DUP (?)				; buttonX
?buttonY@@3HA DD 01H DUP (?)				; buttonY
?buttonA@@3HA DD 01H DUP (?)				; buttonA
?AdvanceSkillBtn@@3PAHA DD 01aH DUP (?)			; AdvanceSkillBtn
?AssitSkillBtn@@3PAHA DD 01aH DUP (?)			; AssitSkillBtn
?BattleSkillBtn@@3PAHA DD 01aH DUP (?)			; BattleSkillBtn
_BSS	ENDS
;	COMDAT __xmm@fffffffefffffffefffffffefffffffe
CONST	SEGMENT
__xmm@fffffffefffffffefffffffefffffffe DB 0feH, 0ffH, 0ffH, 0ffH, 0feH, 0ffH
	DB	0ffH, 0ffH, 0feH, 0ffH, 0ffH, 0ffH, 0feH, 0ffH, 0ffH, 0ffH
CONST	ENDS
;	COMDAT __real@c044000000000000
CONST	SEGMENT
__real@c044000000000000 DQ 0c044000000000000r	; -40
CONST	ENDS
;	COMDAT ??_C@_05FNFPHGDP@?$CF?924s@
CONST	SEGMENT
??_C@_05FNFPHGDP@?$CF?924s@ DB '%-24s', 00H		; `string'
CONST	ENDS
;	COMDAT ??_C@_03GPCJOALC@?$CF2d@
CONST	SEGMENT
??_C@_03GPCJOALC@?$CF2d@ DB '%2d', 00H			; `string'
CONST	ENDS
;	COMDAT ??_C@_01NANMIPIL@N@
CONST	SEGMENT
??_C@_01NANMIPIL@N@ DB 'N', 00H				; `string'
CONST	ENDS
;	COMDAT ??_C@_07LFMIBPPD@I?$HM?$CFX?$HM?$CFX@
CONST	SEGMENT
??_C@_07LFMIBPPD@I?$HM?$CFX?$HM?$CFX@ DB 'I|%X|%X', 00H	; `string'
CONST	ENDS
;	COMDAT ??_C@_07DLEHBIBA@J?$HM?$CFX?$HM?$CFX@
CONST	SEGMENT
??_C@_07DLEHBIBA@J?$HM?$CFX?$HM?$CFX@ DB 'J|%X|%X', 00H	; `string'
CONST	ENDS
;	COMDAT ??_C@_04JJEDCNJK@T?$HM?$CFX@
CONST	SEGMENT
??_C@_04JJEDCNJK@T?$HM?$CFX@ DB 'T|%X', 00H		; `string'
CONST	ENDS
;	COMDAT ??_C@_04DMFDFHBJ@H?$HM?$CFX@
CONST	SEGMENT
??_C@_04DMFDFHBJ@H?$HM?$CFX@ DB 'H|%X', 00H		; `string'
CONST	ENDS
;	COMDAT ??_C@_0BF@NNNOOJBA@?$LI?q?G?$KF?$LI?$KG?5?$LM?$LB?E?C?5?G?X?A?V?$LM?$LM?$LP?d@
CONST	SEGMENT
??_C@_0BF@NNNOOJBA@?$LI?q?G?$KF?$LI?$KG?5?$LM?$LB?E?C?5?G?X?A?V?$LM?$LM?$LP?d@ DB 0b8H
	DB	0f1H, 0c7H, 0a5H, 0b8H, 0a6H, ' ', 0bcH, 0b1H, 0c5H, 0c3H, ' ', 0c7H
	DB	0d8H, 0c1H, 0d6H, 0bcH, 0bcH, 0bfH, 0e4H, 00H ; `string'
CONST	ENDS
;	COMDAT ??_C@_0N@DBNACIMP@?5?5?5?5?5?5?5?$CF?922s@
CONST	SEGMENT
??_C@_0N@DBNACIMP@?5?5?5?5?5?5?5?$CF?922s@ DB '       %-22s', 00H ; `string'
CONST	ENDS
;	COMDAT ??_C@_07BDJJCCFL@W?$HMFF?$HMFF@
CONST	SEGMENT
??_C@_07BDJJCCFL@W?$HMFF?$HMFF@ DB 'W|FF|FF', 00H	; `string'
CONST	ENDS
;	COMDAT ??_C@_0BC@EMOKBAPI@?$LB?b?$LE?I?$MA?$LL?5?$LL?g?$LP?k?G?O?$LE?Y?$KB?$KD@
CONST	SEGMENT
??_C@_0BC@EMOKBAPI@?$LB?b?$LE?I?$MA?$LL?5?$LL?g?$LP?k?G?O?$LE?Y?$KB?$KD@ DB 0b1H
	DB	0e2H, 0b4H, 0c9H, 0c0H, 0bbH, ' ', 0bbH, 0e7H, 0bfH, 0ebH, 0c7H
	DB	0cfH, 0b4H, 0d9H, 0a1H, 0a3H, 00H		; `string'
CONST	ENDS
;	COMDAT ??_C@_07NMPJDMOK@W?$HM?$CFX?$HM?$CFX@
CONST	SEGMENT
??_C@_07NMPJDMOK@W?$HM?$CFX?$HM?$CFX@ DB 'W|%X|%X', 00H	; `string'
CONST	ENDS
;	COMDAT ??_C@_07NGDMDFPD@P?$HM?$CFX?$HM?$CFX@
CONST	SEGMENT
??_C@_07NGDMDFPD@P?$HM?$CFX?$HM?$CFX@ DB 'P|%X|%X', 00H	; `string'
CONST	ENDS
;	COMDAT ??_C@_06DOILANO@?E?$LL?C?b?$KB?$KD@
CONST	SEGMENT
??_C@_06DOILANO@?E?$LL?C?b?$KB?$KD@ DB 0c5H, 0bbH, 0c3H, 0e2H, 0a1H, 0a3H
	DB	00H						; `string'
CONST	ENDS
;	COMDAT ??_C@_01DDCIFGEA@E@
CONST	SEGMENT
??_C@_01DDCIFGEA@E@ DB 'E', 00H				; `string'
CONST	ENDS
;	COMDAT ??_C@_0BA@OEIEMLKK@?$CI?$LM?R?$LK?q?G?O?$LE?YMP?3?$CFd?$CJ@
CONST	SEGMENT
??_C@_0BA@OEIEMLKK@?$CI?$LM?R?$LK?q?G?O?$LE?YMP?3?$CFd?$CJ@ DB '(', 0bcH, 0d2H
	DB	0baH, 0f1H, 0c7H, 0cfH, 0b4H, 0d9H, 'MP:%d)', 00H ; `string'
CONST	ENDS
;	COMDAT ??_C@_06BPKJHHJO@?5?5?$CFd?$KD?$KF@
CONST	SEGMENT
??_C@_06BPKJHHJO@?5?5?$CFd?$KD?$KF@ DB '  %d', 0a3H, 0a5H, 00H ; `string'
CONST	ENDS
;	COMDAT ??_C@_02DKCKIIND@?$CFs@
CONST	SEGMENT
??_C@_02DKCKIIND@?$CFs@ DB '%s', 00H			; `string'
CONST	ENDS
;	COMDAT ??_C@_03GHDNOBPC@?$CF8s@
CONST	SEGMENT
??_C@_03GHDNOBPC@?$CF8s@ DB '%8s', 00H			; `string'
CONST	ENDS
;	COMDAT ??_C@_08LCIHGOIJ@?A?w?$LO?w?$LB?b?$LE?I@
CONST	SEGMENT
??_C@_08LCIHGOIJ@?A?w?$LO?w?$LB?b?$LE?I@ DB 0c1H, 0f7H, 0beH, 0f7H, 0b1H, 0e2H
	DB	0b4H, 0c9H, 00H				; `string'
CONST	ENDS
;	COMDAT ??_C@_0BF@FCDGFJJJ@?G?C?$LH?$LJ?$MA?L?$LO?n?$LA?$KB?5?$LO?x?$LE?B?5?F?d?F?$KO@
CONST	SEGMENT
??_C@_0BF@FCDGFJJJ@?G?C?$LH?$LJ?$MA?L?$LO?n?$LA?$KB?5?$LO?x?$LE?B?5?F?d?F?$KO@ DB 0c7H
	DB	0c3H, 0b7H, 0b9H, 0c0H, 0ccH, 0beH, 0eeH, 0b0H, 0a1H, ' ', 0beH
	DB	0f8H, 0b4H, 0c2H, ' ', 0c6H, 0e4H, 0c6H, 0aeH, 00H ; `string'
CONST	ENDS
;	COMDAT ??_C@_0BH@KGEJIJPJ@?$CF?93d?5?5?5?5?5?5?5?5?5?$CF5d?5?5?5?$CF5d@
CONST	SEGMENT
??_C@_0BH@KGEJIJPJ@?$CF?93d?5?5?5?5?5?5?5?5?5?$CF5d?5?5?5?$CF5d@ DB '%-3d'
	DB	'         %5d   %5d', 00H			; `string'
CONST	ENDS
;	COMDAT ??_C@_06ELKFHEJ@?C?f?3?$CF3d@
CONST	SEGMENT
??_C@_06ELKFHEJ@?C?f?3?$CF3d@ DB 0c3H, 0e6H, ':%3d', 00H ; `string'
CONST	ENDS
;	COMDAT ??_C@_04JBEPHANM@S?$HM?91@
CONST	SEGMENT
??_C@_04JBEPHANM@S?$HM?91@ DB 'S|-1', 00H		; `string'
CONST	ENDS
;	COMDAT ??_C@_04FIJAIIHF@S?$HM?$CFd@
CONST	SEGMENT
??_C@_04FIJAIIHF@S?$HM?$CFd@ DB 'S|%d', 00H		; `string'
CONST	ENDS
;	COMDAT ??_C@_0L@CJKKBEMM@?F?d?F?$KO?$LB?$LD?C?$LM?$KB?$KD@
CONST	SEGMENT
??_C@_0L@CJKKBEMM@?F?d?F?$KO?$LB?$LD?C?$LM?$KB?$KD@ DB 0c6H, 0e4H, 0c6H, 0aeH
	DB	0b1H, 0b3H, 0c3H, 0bcH, 0a1H, 0a3H, 00H	; `string'
CONST	ENDS
;	COMDAT ??_C@_0CA@ELBOPCEK@?$MA?$PM?E?u?5?A?$NP?5?$LO?V?$LP?O?$LF?$LP?$LJ?$LA?5?$MA?e?$LK?q?5?$LB?$LD?C?$LM?5?$LK?R?$LA?$KB@
CONST	SEGMENT
??_C@_0CA@ELBOPCEK@?$MA?$PM?E?u?5?A?$NP?5?$LO?V?$LP?O?$LF?$LP?$LJ?$LA?5?$MA?e?$LK?q?5?$LB?$LD?C?$LM?5?$LK?R?$LA?$KB@ DB 0c0H
	DB	0fcH, 0c5H, 0f5H, ' ', 0c1H, 0dfH, ' ', 0beH, 0d6H, 0bfH, 0cfH
	DB	0b5H, 0bfH, 0b9H, 0b0H, ' ', 0c0H, 0e5H, 0baH, 0f1H, ' ', 0b1H
	DB	0b3H, 0c3H, 0bcH, ' ', 0baH, 0d2H, 0b0H, 0a1H, 00H ; `string'
CONST	ENDS
;	COMDAT ??_C@_08CJOHOOE@?$LO?F?$MA?L?E?$NL?$KB?$KD@
CONST	SEGMENT
??_C@_08CJOHOOE@?$LO?F?$MA?L?E?$NL?$KB?$KD@ DB 0beH, 0c6H, 0c0H, 0ccH, 0c5H
	DB	0dbH, 0a1H, 0a3H, 00H			; `string'
CONST	ENDS
;	COMDAT ??_C@_06NDKEIKGO@?$LJ?f?$LO?n?$KB?$KD@
CONST	SEGMENT
??_C@_06NDKEIKGO@?$LJ?f?$LO?n?$KB?$KD@ DB 0b9H, 0e6H, 0beH, 0eeH, 0a1H, 0a3H
	DB	00H						; `string'
CONST	ENDS
;	COMDAT ??_C@_01BBODEMC@G@
CONST	SEGMENT
??_C@_01BBODEMC@G@ DB 'G', 00H				; `string'
CONST	ENDS
;	COMDAT ??_C@_06EBHMOCNH@HELP?$KB?$KD@
CONST	SEGMENT
??_C@_06EBHMOCNH@HELP?$KB?$KD@ DB 'HELP', 0a1H, 0a3H, 00H ; `string'
CONST	ENDS
;	COMDAT ??_C@_0L@OPNNNOMC@?F?w?H?$LJ?G?O?$LE?Y?$KB?$KD@
CONST	SEGMENT
??_C@_0L@OPNNNOMC@?F?w?H?$LJ?G?O?$LE?Y?$KB?$KD@ DB 0c6H, 0f7H, 0c8H, 0b9H
	DB	0c7H, 0cfH, 0b4H, 0d9H, 0a1H, 0a3H, 00H	; `string'
CONST	ENDS
;	COMDAT ??_C@_0CK@LMOADLH@?F?d?F?$KO?C?$KC?$MA?L?5?$LC?K?5?B?w?$LM?$KN?5?$LE?u?$MA?L?$LL?s?5?F?w?H?$LJ?G?R?$LM@
CONST	SEGMENT
??_C@_0CK@LMOADLH@?F?d?F?$KO?C?$KC?$MA?L?5?$LC?K?5?B?w?$LM?$KN?5?$LE?u?$MA?L?$LL?s?5?F?w?H?$LJ?G?R?$LM@ DB 0c6H
	DB	0e4H, 0c6H, 0aeH, 0c3H, 0a2H, 0c0H, 0ccH, ' ', 0b2H, 0cbH, ' ', 0c2H
	DB	0f7H, 0bcH, 0adH, ' ', 0b4H, 0f5H, 0c0H, 0ccH, 0bbH, 0f3H, ' ', 0c6H
	DB	0f7H, 0c8H, 0b9H, 0c7H, 0d2H, 0bcH, 0f6H, ' ', 0beH, 0f8H, 0beH
	DB	0eeH, 0bfH, 0e4H, 0a1H, 0a3H, 00H		; `string'
CONST	ENDS
;	COMDAT ??_C@_0BA@BODGMCMN@?A?V?$LM?z?$MA?L?5?$LO?x?$LN?$MA?$LE?O?$LE?Y@
CONST	SEGMENT
??_C@_0BA@BODGMCMN@?A?V?$LM?z?$MA?L?5?$LO?x?$LN?$MA?$LE?O?$LE?Y@ DB 0c1H, 0d6H
	DB	0bcH, 0faH, 0c0H, 0ccH, ' ', 0beH, 0f8H, 0bdH, 0c0H, 0b4H, 0cfH
	DB	0b4H, 0d9H, 00H				; `string'
CONST	ENDS
;	COMDAT ??_C@_07HFNBMNBH@?$CF2d?1?$CF2d@
CONST	SEGMENT
??_C@_07HFNBMNBH@?$CF2d?1?$CF2d@ DB '%2d/%2d', 00H	; `string'
CONST	ENDS
;	COMDAT ??_C@_0CJ@HJBAPDHB@?D?$KH?$LJ?$KM?$LL?s?E?B?$LP?$KB?$LM?$KN?$LE?B?5?A?V?$LM?z?$MA?$LL?5?$LL?g?$LP?k?G?R?$LM?v?$LO@
CONST	SEGMENT
??_C@_0CJ@HJBAPDHB@?D?$KH?$LJ?$KM?$LL?s?E?B?$LP?$KB?$LM?$KN?$LE?B?5?A?V?$LM?z?$MA?$LL?5?$LL?g?$LP?k?G?R?$LM?v?$LO@ DB 0c4H
	DB	0a7H, 0b9H, 0acH, 0bbH, 0f3H, 0c5H, 0c2H, 0bfH, 0a1H, 0bcH, 0adH
	DB	0b4H, 0c2H, ' ', 0c1H, 0d6H, 0bcH, 0faH, 0c0H, 0bbH, ' ', 0bbH
	DB	0e7H, 0bfH, 0ebH, 0c7H, 0d2H, 0bcH, 0f6H, 0beH, 0f8H, 0bdH, 0c0H
	DB	0b4H, 0cfH, 0b4H, 0d9H, 0a1H, 0a3H, 00H	; `string'
CONST	ENDS
;	COMDAT ??_C@_0BC@GBLBFMBP@?A?V?$LM?z?$MA?$LL?5?$LL?g?$LP?k?G?O?$LE?Y?$KB?$KD@
CONST	SEGMENT
??_C@_0BC@GBLBFMBP@?A?V?$LM?z?$MA?$LL?5?$LL?g?$LP?k?G?O?$LE?Y?$KB?$KD@ DB 0c1H
	DB	0d6H, 0bcH, 0faH, 0c0H, 0bbH, ' ', 0bbH, 0e7H, 0bfH, 0ebH, 0c7H
	DB	0cfH, 0b4H, 0d9H, 0a1H, 0a3H, 00H		; `string'
CONST	ENDS
;	COMDAT ??_C@_0L@BHJLNCHD@?$LA?x?$LA?$NN?G?O?$LE?Y?$KB?$KD@
CONST	SEGMENT
??_C@_0L@BHJLNCHD@?$LA?x?$LA?$NN?G?O?$LE?Y?$KB?$KD@ DB 0b0H, 0f8H, 0b0H, 0ddH
	DB	0c7H, 0cfH, 0b4H, 0d9H, 0a1H, 0a3H, 00H	; `string'
CONST	ENDS
;	COMDAT ??_C@_08NJBMJDFM@HP?3?$CFd?1?$CFd@
CONST	SEGMENT
??_C@_08NJBMJDFM@HP?3?$CFd?1?$CFd@ DB 'HP:%d/%d', 00H	; `string'
CONST	ENDS
;	COMDAT ??_C@_08JCHLGOEH@?$CFs?5Lv?3?$CFd@
CONST	SEGMENT
??_C@_08JCHLGOEH@?$CFs?5Lv?3?$CFd@ DB '%s Lv:%d', 00H	; `string'
CONST	ENDS
_DATA	SEGMENT
?battleButtonBak2@@3HA DD 0ffffffffH			; battleButtonBak2
	ORG $+4
?Ordinal@@3PAHA DD 013H					; Ordinal
	DD	011H
	DD	0fH
	DD	010H
	DD	012H
	DD	0eH
	DD	0cH
	DD	0aH
	DD	0bH
	DD	0dH
	DD	09H
	DD	07H
	DD	05H
	DD	06H
	DD	08H
	DD	04H
	DD	02H
	DD	00H
	DD	01H
	DD	03H
_DATA	ENDS
; Function compile flags: /Ogtp
; File \\VBOXSVR\_stoneage\repos\ssm-sacli\system\battleMenu.cpp
;	COMDAT ?CloseInfoWnd@@YAXXZ
_TEXT	SEGMENT
?CloseInfoWnd@@YAXXZ PROC				; CloseInfoWnd, COMDAT

; 3789 : 	if( pActInfoWnd){

  00000	a1 00 00 00 00	 mov	 eax, DWORD PTR ?pActInfoWnd@@3PAUaction@@A
  00005	85 c0		 test	 eax, eax
  00007	74 13		 je	 SHORT $LN2@CloseInfoW

; 3790 : 		DeathAction( pActInfoWnd);

  00009	50		 push	 eax
  0000a	e8 00 00 00 00	 call	 ?DeathAction@@YAXPAUaction@@@Z ; DeathAction
  0000f	83 c4 04	 add	 esp, 4

; 3791 : 		pActInfoWnd = NULL;

  00012	c7 05 00 00 00
	00 00 00 00 00	 mov	 DWORD PTR ?pActInfoWnd@@3PAUaction@@A, 0
$LN2@CloseInfoW:

; 3792 : 	}
; 3793 : }

  0001c	c3		 ret	 0
?CloseInfoWnd@@YAXXZ ENDP				; CloseInfoWnd
_TEXT	ENDS
; Function compile flags: /Ogtp
; File \\VBOXSVR\_stoneage\repos\ssm-sacli\system\battleMenu.cpp
;	COMDAT ?BattleCntDownDisp@@YAXXZ
_TEXT	SEGMENT
_y$1$ = -24						; size = 4
_moji$ = -20						; size = 16
__$ArrayPad$ = -4					; size = 4
?BattleCntDownDisp@@YAXXZ PROC				; BattleCntDownDisp, COMDAT

; 3248 : {

  00000	55		 push	 ebp
  00001	8b ec		 mov	 ebp, esp
  00003	83 ec 18	 sub	 esp, 24			; 00000018H
  00006	a1 00 00 00 00	 mov	 eax, DWORD PTR ___security_cookie
  0000b	33 c5		 xor	 eax, ebp
  0000d	89 45 fc	 mov	 DWORD PTR __$ArrayPad$[ebp], eax

; 3249 : 	char moji[ 16 ];
; 3250 : 	char *work = moji;
; 3251 : 	int x = 320 - 16 + DISPLACEMENT_X / 2;

  00010	a1 00 00 00 00	 mov	 eax, DWORD PTR ?DISPLACEMENT_X@@3HA ; DISPLACEMENT_X
  00015	99		 cdq
  00016	2b c2		 sub	 eax, edx
  00018	53		 push	 ebx
  00019	56		 push	 esi
  0001a	8b f0		 mov	 esi, eax

; 3252 : 	int y = 240 + DISPLACEMENT_Y / 2;

  0001c	a1 00 00 00 00	 mov	 eax, DWORD PTR ?DISPLACEMENT_Y@@3HA ; DISPLACEMENT_Y
  00021	99		 cdq
  00022	2b c2		 sub	 eax, edx
  00024	d1 fe		 sar	 esi, 1
  00026	d1 f8		 sar	 eax, 1
  00028	81 c6 30 01 00
	00		 add	 esi, 304		; 00000130H
  0002e	05 f0 00 00 00	 add	 eax, 240		; 000000f0H
  00033	57		 push	 edi
  00034	8d 7d ec	 lea	 edi, DWORD PTR _moji$[ebp]
  00037	89 45 e8	 mov	 DWORD PTR _y$1$[ebp], eax

; 3253 : 	int i;
; 3254 : 	// ???
; 3255 : 
; 3256 : 	int BattleCntDownRest = BattleCntDown - TimeGetTime();

  0003a	e8 00 00 00 00	 call	 ?TimeGetTime@@YAIXZ	; TimeGetTime
  0003f	8b 1d 00 00 00
	00		 mov	 ebx, DWORD PTR ?BattleCntDown@@3KA ; BattleCntDown
  00045	2b d8		 sub	 ebx, eax

; 3257 : 	// ???????
; 3258 : 	if( BattleCntDownFlag == FALSE ) return;

  00047	83 3d 00 00 00
	00 00		 cmp	 DWORD PTR ?BattleCntDownFlag@@3HA, 0 ; BattleCntDownFlag
  0004e	0f 84 46 01 00
	00		 je	 $LN3@BattleCntD

; 3259 : 
; 3260 : 	// ?????????
; 3261 : /*//人物ai
; 3262 : #ifndef __AI
; 3263 : 	//cary 自动战斗
; 3264 : 	if( AI!=AI_NONE && !PauseAI){
; 3265 : 		if( battleMenuFlag&BATTLE_MENU && battleTargetSelectFlag){
; 3266 : 			if( (BattleIntervalCnt==0 && BattleCntDownRest<=28000) || (BattleIntervalCnt!=0 && BattleIntervalCnt<TimeGetTime())){
; 3267 : 				BattleIntervalCnt = TimeGetTime()+500;
; 3268 : 				// ??????
; 3269 : 				int targetNo = GetBattelTarget();
; 3270 : 				char moji[256];
; 3271 : 				sprintf( moji, "H|%X", targetNo );
; 3272 : 				// ??
; 3273 : 				if( bNewServer)
; 3274 : 					lssproto_B_send( sockfd, moji );
; 3275 : 				else
; 3276 : 					old_lssproto_B_send( sockfd, moji );
; 3277 : 				battleTargetSelectFlag = FALSE;
; 3278 : 				battleMenuReturn = TRUE;
; 3279 : 				// ????????
; 3280 : 				play_se( 203, 320, 240 );
; 3281 : 				// ????????
; 3282 : 				battleButtonBak = battleButtonBak2;
; 3283 : 				// ???????????????
; 3284 : 				if( pActInfoWnd){
; 3285 : 					DeathAction( pActInfoWnd );
; 3286 : 					pActInfoWnd = NULL;
; 3287 : 				}
; 3288 : 			}
; 3289 : 		}else if( battleMenuFlag&BATTLE_MENU_PET && battleTargetSelectFlag){
; 3290 : 			if( (BattleIntervalCnt==0 && BattleCntDownRest<=28000) || BattleIntervalCnt<TimeGetTime()){
; 3291 : 				int no;
; 3292 : 				int targetNo = GetBattelTarget();
; 3293 : 				char moji[256];
; 3294 : 				switch( petSkill[ battlePetNoBak ][ BattleWazaNo ].target ){
; 3295 : 				case PETSKILL_TARGET_MYSELF:				// ??
; 3296 : 				case PETSKILL_TARGET_OTHER:					// ????)
; 3297 : 				case PETSKILL_TARGET_OTHERWITHOUTMYSELF:	// ??????) 
; 3298 : 				case PETSKILL_TARGET_WITHOUTMYSELFANDPET:	// ??????
; 3299 : 					// ???
; 3300 : 					sprintf( moji,"W|%X|%X", BattleWazaNo, targetNo );
; 3301 : 					// ??
; 3302 : 					if( bNewServer)
; 3303 : 						lssproto_B_send( sockfd, moji );
; 3304 : 					else
; 3305 : 						old_lssproto_B_send( sockfd, moji );
; 3306 : 					// ?????
; 3307 : 					play_se( 217, 320, 240 );
; 3308 : 					break;
; 3309 : 					
; 3310 : 				case PETSKILL_TARGET_ALLMYSIDE:	// 
; 3311 : 					// ????????
; 3312 : 					if( BattleMyNo < 10 ) no = 20;
; 3313 : 					else no = 21;
; 3314 : 					// ???
; 3315 : 					sprintf( moji,"W|%X|%X", BattleWazaNo, no );
; 3316 : 					// ??
; 3317 : 					if( bNewServer)
; 3318 : 						lssproto_B_send( sockfd, moji );
; 3319 : 					else
; 3320 : 						old_lssproto_B_send( sockfd, moji );
; 3321 : 					// ?????
; 3322 : 					play_se( 217, 320, 240 );
; 3323 : 					break;
; 3324 : 					
; 3325 : 				case PETSKILL_TARGET_ALLOTHERSIDE:	// ?
; 3326 : 					// ????????
; 3327 : 					if( BattleMyNo < 10 ) no = 21;
; 3328 : 					else no = 20;
; 3329 : 					// ???
; 3330 : 					sprintf( moji,"W|%X|%X", BattleWazaNo, no );
; 3331 : 					// ??
; 3332 : 					if( bNewServer)
; 3333 : 						lssproto_B_send( sockfd, moji );
; 3334 : 					else
; 3335 : 						old_lssproto_B_send( sockfd, moji );
; 3336 : 					// ?????
; 3337 : 					play_se( 217, 320, 240 );
; 3338 : 					break;
; 3339 : 					
; 3340 : 				case PETSKILL_TARGET_ALL:	// ?
; 3341 : 					// ???
; 3342 : 					sprintf( moji,"W|%X|%X", BattleWazaNo, 22 );
; 3343 : 					// ??
; 3344 : 					if( bNewServer)
; 3345 : 						lssproto_B_send( sockfd, moji );
; 3346 : 					else
; 3347 : 						old_lssproto_B_send( sockfd, moji );
; 3348 : 					// ?????
; 3349 : 					play_se( 217, 320, 240 );
; 3350 : 					break;
; 3351 : 				}
; 3352 : 				// ??????
; 3353 : 				battleTargetSelectFlag = FALSE;
; 3354 : 				battleMenuReturn = TRUE;
; 3355 : 				// ????????
; 3356 : 				play_se( 203, 320, 240 );
; 3357 : 				// ????????
; 3358 : 				battleButtonBak = battleButtonBak2;
; 3359 : 				// ???????????????
; 3360 : 				if( pActInfoWnd){
; 3361 : 					DeathAction( pActInfoWnd );
; 3362 : 					pActInfoWnd = NULL;
; 3363 : 				}
; 3364 : 			}
; 3365 : 		}
; 3366 : 	}
; 3367 : #endif
; 3368 : */
; 3369 : 
; 3370 : 	if( BattleCntDownRest <= 0 ){

  00054	85 db		 test	 ebx, ebx
  00056	0f 8f ee 00 00
	00		 jg	 $LN6@BattleCntD

; 3371 : 		// ??????
; 3372 : 		BattleCntDownFlag = FALSE;

  0005c	c7 05 00 00 00
	00 00 00 00 00	 mov	 DWORD PTR ?BattleCntDownFlag@@3HA, 0 ; BattleCntDownFlag

; 3373 : 		BattleCntDownRest = 0;

  00066	33 db		 xor	 ebx, ebx

; 3374 : 		// ????????
; 3375 : 		ClearBoxFlag();

  00068	e8 00 00 00 00	 call	 ?ClearBoxFlag@@YAXXZ	; ClearBoxFlag

; 3376 : 		// ???????????
; 3377 : 		DeathAction( pActWnd );

  0006d	ff 35 00 00 00
	00		 push	 DWORD PTR ?pActWnd@@3PAUaction@@A
  00073	e8 00 00 00 00	 call	 ?DeathAction@@YAXPAUaction@@@Z ; DeathAction
  00078	83 c4 04	 add	 esp, 4

; 3378 : 		// ????????????
; 3379 : 		pActWnd = NULL;				

  0007b	89 1d 00 00 00
	00		 mov	 DWORD PTR ?pActWnd@@3PAUaction@@A, ebx

; 3380 : 		// ?????????
; 3381 : 		ClearBattleButton();

  00081	e8 00 00 00 00	 call	 ?ClearBattleButton@@YAXXZ ; ClearBattleButton

; 3382 : 		// ?????????????????
; 3383 : 
; 3384 : 		if( battleMenuFlag & BATTLE_MENU && battleMenuReturn == FALSE ){

  00086	8b 0d 00 00 00
	00		 mov	 ecx, DWORD PTR ?battleMenuFlag@@3HA ; battleMenuFlag
  0008c	a1 00 00 00 00	 mov	 eax, DWORD PTR ?battleMenuReturn@@3HA
  00091	f6 c1 01	 test	 cl, 1
  00094	74 5f		 je	 SHORT $LN18@BattleCntD
  00096	85 c0		 test	 eax, eax
  00098	75 56		 jne	 SHORT $LN7@BattleCntD

; 3385 : 			// ???????????
; 3386 : 			if( bNewServer)

  0009a	68 00 00 00 00	 push	 OFFSET ??_C@_01NANMIPIL@N@
  0009f	ff 35 00 00 00
	00		 push	 DWORD PTR ?sockfd@@3IA	; sockfd
  000a5	39 1d 00 00 00
	00		 cmp	 DWORD PTR ?bNewServer@@3HA, ebx ; bNewServer
  000ab	74 07		 je	 SHORT $LN9@BattleCntD

; 3387 : 				lssproto_B_send( sockfd, "N" );

  000ad	e8 00 00 00 00	 call	 ?lssproto_B_send@@YAXHPAD@Z ; lssproto_B_send
  000b2	eb 05		 jmp	 SHORT $LN30@BattleCntD
$LN9@BattleCntD:

; 3388 : 			else
; 3389 : 				old_lssproto_B_send( sockfd, "N" );

  000b4	e8 00 00 00 00	 call	 ?old_lssproto_B_send@@YAXHPAD@Z ; old_lssproto_B_send
$LN30@BattleCntD:

; 3390 : 			// ?????????????????
; 3391 : 			if( battlePetNoBak == -1 || 

  000b9	83 c4 08	 add	 esp, 8
$LN17@BattleCntD:

; 3413 : 					else
; 3414 : 						old_lssproto_B_send( sockfd, "W|FF|FF" );
; 3415 : 				}
; 3416 : 			}
; 3417 : 		}
; 3418 : 		// ??????
; 3419 : 		battleTargetSelectFlag = FALSE;

  000bc	83 3d 00 00 00
	00 ff		 cmp	 DWORD PTR ?battlePetNoBak@@3HA, -1 ; battlePetNoBak
  000c3	74 43		 je	 SHORT $LN21@BattleCntD
  000c5	a1 00 00 00 00	 mov	 eax, DWORD PTR ?BattleMyNo@@3HA ; BattleMyNo
  000ca	8b 04 85 14 00
	00 00		 mov	 eax, DWORD PTR ?p_party@@3PAPAUaction@@A[eax*4+20]
  000d1	39 58 78	 cmp	 DWORD PTR [eax+120], ebx
  000d4	7e 32		 jle	 SHORT $LN21@BattleCntD
  000d6	68 00 00 00 00	 push	 OFFSET ??_C@_07BDJJCCFL@W?$HMFF?$HMFF@
  000db	ff 35 00 00 00
	00		 push	 DWORD PTR ?sockfd@@3IA	; sockfd
  000e1	39 1d 00 00 00
	00		 cmp	 DWORD PTR ?bNewServer@@3HA, ebx ; bNewServer
  000e7	74 17		 je	 SHORT $LN14@BattleCntD
  000e9	e8 00 00 00 00	 call	 ?lssproto_B_send@@YAXHPAD@Z ; lssproto_B_send
  000ee	eb 15		 jmp	 SHORT $LN31@BattleCntD
$LN7@BattleCntD:

; 3392 : 				p_party[ BattleMyNo + 5 ]->hp <= 0 ){
; 3393 : 				// ??????
; 3394 : 			}else{
; 3395 : 				// ??????????
; 3396 : 				if( bNewServer)
; 3397 : 					lssproto_B_send( sockfd, "W|FF|FF" );
; 3398 : 				else
; 3399 : 					old_lssproto_B_send( sockfd, "W|FF|FF" );
; 3400 : 			}
; 3401 : 		}else{
; 3402 : 			// ????????
; 3403 : 			if( ( battleMenuFlag & BATTLE_MENU && battleMenuReturn == TRUE ) ||

  000f0	83 f8 01	 cmp	 eax, 1
  000f3	74 c7		 je	 SHORT $LN17@BattleCntD
$LN18@BattleCntD:
  000f5	f6 c1 02	 test	 cl, 2
  000f8	74 0e		 je	 SHORT $LN21@BattleCntD
  000fa	85 c0		 test	 eax, eax
  000fc	75 0a		 jne	 SHORT $LN21@BattleCntD

; 3404 : 				( battleMenuFlag & BATTLE_MENU_PET && battleMenuReturn == FALSE ) ){ 
; 3405 : 				// ?????????????????
; 3406 : 				if( battlePetNoBak == -1 || 
; 3407 : 					p_party[ BattleMyNo + 5 ]->hp <= 0 ){
; 3408 : 					// ??????
; 3409 : 				}else{
; 3410 : 					// ??????????
; 3411 : 					if( bNewServer)
; 3412 : 						lssproto_B_send( sockfd, "W|FF|FF" );

  000fe	eb bc		 jmp	 SHORT $LN17@BattleCntD
$LN14@BattleCntD:

; 3413 : 					else
; 3414 : 						old_lssproto_B_send( sockfd, "W|FF|FF" );
; 3415 : 				}
; 3416 : 			}
; 3417 : 		}
; 3418 : 		// ??????
; 3419 : 		battleTargetSelectFlag = FALSE;

  00100	e8 00 00 00 00	 call	 ?old_lssproto_B_send@@YAXHPAD@Z ; old_lssproto_B_send
$LN31@BattleCntD:
  00105	83 c4 08	 add	 esp, 8
$LN21@BattleCntD:

; 3420 : 		battleMenuReturn = TRUE;
; 3421 : 		// ????????
; 3422 : 		play_se( 203, 320, 240 );

  00108	68 f0 00 00 00	 push	 240			; 000000f0H
  0010d	68 40 01 00 00	 push	 320			; 00000140H
  00112	68 cb 00 00 00	 push	 203			; 000000cbH
  00117	89 1d 00 00 00
	00		 mov	 DWORD PTR ?battleTargetSelectFlag@@3HA, ebx
  0011d	c7 05 00 00 00
	00 01 00 00 00	 mov	 DWORD PTR ?battleMenuReturn@@3HA, 1
  00127	e8 00 00 00 00	 call	 ?play_se@@YAHHHH@Z	; play_se

; 3423 : 		// ????????
; 3424 : 		battleButtonBak = battleButtonBak2;

  0012c	a1 00 00 00 00	 mov	 eax, DWORD PTR ?battleButtonBak2@@3HA

; 3425 : 		// ???????????????
; 3426 : 		DeathAction( pActInfoWnd );

  00131	ff 35 00 00 00
	00		 push	 DWORD PTR ?pActInfoWnd@@3PAUaction@@A
  00137	a3 00 00 00 00	 mov	 DWORD PTR ?battleButtonBak@@3HA, eax ; battleButtonBak
  0013c	e8 00 00 00 00	 call	 ?DeathAction@@YAXPAUaction@@@Z ; DeathAction
  00141	83 c4 10	 add	 esp, 16			; 00000010H

; 3427 : 		pActInfoWnd = NULL;

  00144	89 1d 00 00 00
	00		 mov	 DWORD PTR ?pActInfoWnd@@3PAUaction@@A, ebx
$LN6@BattleCntD:

; 3428 : 	}
; 3429 : 
; 3430 : 	sprintf( moji, "%2d", BattleCntDownRest / 1000 );

  0014a	b8 d3 4d 62 10	 mov	 eax, 274877907		; 10624dd3H
  0014f	f7 eb		 imul	 ebx
  00151	c1 fa 06	 sar	 edx, 6
  00154	8b c2		 mov	 eax, edx
  00156	c1 e8 1f	 shr	 eax, 31			; 0000001fH
  00159	03 c2		 add	 eax, edx
  0015b	50		 push	 eax
  0015c	8d 45 ec	 lea	 eax, DWORD PTR _moji$[ebp]
  0015f	68 00 00 00 00	 push	 OFFSET ??_C@_03GPCJOALC@?$CF2d@
  00164	50		 push	 eax
  00165	e8 00 00 00 00	 call	 _sprintf
  0016a	83 c4 0c	 add	 esp, 12			; 0000000cH
  0016d	bb 02 00 00 00	 mov	 ebx, 2
$LL4@BattleCntD:

; 3431 : 
; 3432 : 	//JL 2016.9.16 战斗时间3位数显示
; 3433 : //	for (i = 0; i < 3; i++){
; 3434 : 	for( i = 0; i < 2; i++){
; 3435 : 		if( *work != 0x20 ){

  00172	8a 07		 mov	 al, BYTE PTR [edi]
  00174	3c 20		 cmp	 al, 32			; 00000020H
  00176	74 19		 je	 SHORT $LN24@BattleCntD

; 3436 : 			StockDispBuffer( x, y, DISP_PRIO_IME1, *work - '0' + CG_CNT_DOWN_0, 0 );

  00178	6a 00		 push	 0
  0017a	0f be c0	 movsx	 eax, al
  0017d	05 fc 64 00 00	 add	 eax, 25852		; 000064fcH
  00182	50		 push	 eax
  00183	6a 66		 push	 102			; 00000066H
  00185	ff 75 e8	 push	 DWORD PTR _y$1$[ebp]
  00188	56		 push	 esi
  00189	e8 00 00 00 00	 call	 ?StockDispBuffer@@YAHHHEHH@Z ; StockDispBuffer
  0018e	83 c4 14	 add	 esp, 20			; 00000014H
$LN24@BattleCntD:

; 3437 : 		}
; 3438 : 
; 3439 : 		x += 32;

  00191	83 c6 20	 add	 esi, 32			; 00000020H

; 3440 : 		work++;

  00194	47		 inc	 edi
  00195	83 eb 01	 sub	 ebx, 1
  00198	75 d8		 jne	 SHORT $LL4@BattleCntD
$LN3@BattleCntD:

; 3441 : 	}
; 3442 : 
; 3443 : }

  0019a	8b 4d fc	 mov	 ecx, DWORD PTR __$ArrayPad$[ebp]
  0019d	5f		 pop	 edi
  0019e	5e		 pop	 esi
  0019f	33 cd		 xor	 ecx, ebp
  001a1	5b		 pop	 ebx
  001a2	e8 00 00 00 00	 call	 @__security_check_cookie@4
  001a7	8b e5		 mov	 esp, ebp
  001a9	5d		 pop	 ebp
  001aa	c3		 ret	 0
?BattleCntDownDisp@@YAXXZ ENDP				; BattleCntDownDisp
_TEXT	ENDS
; Function compile flags: /Ogtp
; File \\VBOXSVR\_stoneage\repos\ssm-sacli\system\battleMenu.cpp
;	COMDAT ?GetBattelTarget@@YAHXZ
_TEXT	SEGMENT
?GetBattelTarget@@YAHXZ PROC				; GetBattelTarget, COMDAT

; 3182 : 	int i, index, end;
; 3183 : 	i = 10;

  00000	b9 0a 00 00 00	 mov	 ecx, 10			; 0000000aH
  00005	56		 push	 esi

; 3184 : 	end = 20;
; 3185 : 	if( BattleMyNo < 10){

  00006	8b 35 00 00 00
	00		 mov	 esi, DWORD PTR ?BattleMyNo@@3HA ; BattleMyNo
  0000c	57		 push	 edi
  0000d	8d 79 0a	 lea	 edi, DWORD PTR [ecx+10]
  00010	3b f1		 cmp	 esi, ecx
  00012	7d 0c		 jge	 SHORT $LL20@GetBattelT

; 3186 : 		i = 0 ;

  00014	33 c9		 xor	 ecx, ecx

; 3187 : 		end = 10;

  00016	8d 79 0a	 lea	 edi, DWORD PTR [ecx+10]
  00019	0f 1f 80 00 00
	00 00		 npad	 7
$LL20@GetBattelT:

; 3191 : 		index = Ordinal[i];

  00020	8b 14 8d 00 00
	00 00		 mov	 edx, DWORD PTR ?Ordinal@@3PAHA[ecx*4]

; 3192 : 		if( p_party[ index ]->func == NULL ) continue;

  00027	8b 04 95 00 00
	00 00		 mov	 eax, DWORD PTR ?p_party@@3PAPAUaction@@A[edx*4]
  0002e	83 78 08 00	 cmp	 DWORD PTR [eax+8], 0
  00032	74 11		 je	 SHORT $LN2@GetBattelT

; 3193 : 		if( p_party[index]->hp<=0 || index==BattleMyNo || index==5+BattleMyNo)

  00034	83 78 78 00	 cmp	 DWORD PTR [eax+120], 0
  00038	7e 0b		 jle	 SHORT $LN2@GetBattelT
  0003a	3b d6		 cmp	 edx, esi
  0003c	74 07		 je	 SHORT $LN2@GetBattelT
  0003e	8d 46 05	 lea	 eax, DWORD PTR [esi+5]
  00041	3b d0		 cmp	 edx, eax
  00043	75 0b		 jne	 SHORT $LN7@GetBattelT
$LN2@GetBattelT:

; 3188 : 	}
; 3189 : #ifdef __AI
; 3190 : 	for( ; i < end ; i++ ){

  00045	41		 inc	 ecx
  00046	3b cf		 cmp	 ecx, edi
  00048	7c d6		 jl	 SHORT $LL20@GetBattelT

; 3196 : 	}
; 3197 : #else
; 3198 : 	for( ; i < end ; i++ ){
; 3199 : 		index = Ordinal[i];
; 3200 : 		if( p_party[ index ]->func == NULL ) continue;
; 3201 : 		if( index==BattleMyNo || index==5+BattleMyNo)
; 3202 : 			continue;
; 3203 : 
; 3204 : #ifdef __ATTACK_MAGIC
; 3205 : #ifdef _SKILL_ADDBARRIER
; 3206 : 		if( ( p_party[ index ]->atr & ACT_ATR_HIT_BOX ) ||
; 3207 : 			( p_party[ index ]->atr & ACT_ATR_HIT_BOX_COL1 ) ||
; 3208 : 			( p_party[ index ]->atr & ACT_ATR_HIT_BOX_COL2 ) ||
; 3209 : 			( p_party[ index ]->atr & ACT_ATR_HIT_BOX_COL3 ) ||
; 3210 : 			( p_party[ index ]->atr & ACT_ATR_HIT_BOX_COL4 ) ||
; 3211 : 			( p_party[ index ]->atr & ACT_ATR_HIT_BOX_ALL1 ) ||
; 3212 : 			( p_party[ index ]->atr & ACT_ATR_HIT_BOX_ALL2 ) ||
; 3213 : 			( p_party[ index ]->atr & ACT_ATR_HIT_BOX_ALL3 )
; 3214 : 
; 3215 : 
; 3216 : 			 || ( p_party[ index ]->atr & ACT_ATR_HIT_BOX_ALL5 ) ||
; 3217 : 			( p_party[ index ]->atr & ACT_ATR_HIT_BOX_ALL6 ) ||
; 3218 : 			( p_party[ index ]->atr & ACT_ATR_HIT_BOX_ALL7 ) || 
; 3219 : 			( p_party[ index ]->atr & ACT_ATR_HIT_BOX_ALL8 ) 
; 3220 : 			)
; 3221 : 			return index;
; 3222 : #else
; 3223 : 		if( ( p_party[ index ]->atr & ACT_ATR_HIT_BOX ) ||
; 3224 : 			( p_party[ index ]->atr & ACT_ATR_HIT_BOX_COL1 ) ||
; 3225 : 			( p_party[ index ]->atr & ACT_ATR_HIT_BOX_COL2 ) ||
; 3226 : 			( p_party[ index ]->atr & ACT_ATR_HIT_BOX_COL3 ) ||
; 3227 : 			( p_party[ index ]->atr & ACT_ATR_HIT_BOX_COL4 ) ||
; 3228 : 			( p_party[ index ]->atr & ACT_ATR_HIT_BOX_ALL1 ) ||
; 3229 : 			( p_party[ index ]->atr & ACT_ATR_HIT_BOX_ALL2 ) ||
; 3230 : 			( p_party[ index ]->atr & ACT_ATR_HIT_BOX_ALL3 ) )
; 3231 : 			return index;
; 3232 : #endif
; 3233 : #else
; 3234 : 		if( ( p_party[ index ]->atr & ACT_ATR_HIT_BOX ) ||
; 3235 : 			( p_party[ index ]->atr & ACT_ATR_HIT_BOX_ALL1 ) ||
; 3236 : 			( p_party[ index ]->atr & ACT_ATR_HIT_BOX_ALL2 ) ||
; 3237 : 			( p_party[ index ]->atr & ACT_ATR_HIT_BOX_ALL3 ) )
; 3238 : 			return index;
; 3239 : #endif
; 3240 : 
; 3241 : 	}
; 3242 : #endif
; 3243 : 	return -1;

  0004a	5f		 pop	 edi
  0004b	83 c8 ff	 or	 eax, -1

; 3244 : }

  0004e	5e		 pop	 esi
  0004f	c3		 ret	 0
$LN7@GetBattelT:
  00050	5f		 pop	 edi

; 3194 : 			continue;
; 3195 : 		return index;

  00051	8b c2		 mov	 eax, edx

; 3244 : }

  00053	5e		 pop	 esi
  00054	c3		 ret	 0
?GetBattelTarget@@YAHXZ ENDP				; GetBattelTarget
_TEXT	ENDS
; Function compile flags: /Ogtp
; File \\VBOXSVR\_stoneage\repos\ssm-sacli\system\battleMenu.cpp
;	COMDAT ?BattleTargetSelect@@YAXXZ
_TEXT	SEGMENT
_no$ = -264						; size = 4
_moji$ = -260						; size = 256
__$ArrayPad$ = -4					; size = 4
?BattleTargetSelect@@YAXXZ PROC				; BattleTargetSelect, COMDAT

; 2783 : {

  00000	55		 push	 ebp
  00001	8b ec		 mov	 ebp, esp
  00003	81 ec 08 01 00
	00		 sub	 esp, 264		; 00000108H
  00009	a1 00 00 00 00	 mov	 eax, DWORD PTR ___security_cookie
  0000e	33 c5		 xor	 eax, ebp
  00010	89 45 fc	 mov	 DWORD PTR __$ArrayPad$[ebp], eax
  00013	f7 05 00 00 00
	00 00 00 00 86	 test	 DWORD PTR ?MenuToggleFlag@@3IA, -2046820352 ; MenuToggleFlag, 86000000H
  0001d	56		 push	 esi
  0001e	8b b5 f8 fe ff
	ff		 mov	 esi, DWORD PTR _no$[ebp]

; 2784 : 	char moji[ 256 ];
; 2785 : 	int targetNo;
; 2786 : 	int no;
; 2787 : 
; 2788 : 	if( !( MenuToggleFlag & JOY_ESC ) && !( MenuToggleFlag & JOY_CTRL_E ) && !( MenuToggleFlag & JOY_CTRL_A ) && !( menuBtn == 1 ) ){

  00024	0f 85 a1 00 00
	00		 jne	 $LN12@BattleTarg
  0002a	66 83 3d 00 00
	00 00 01	 cmp	 WORD PTR ?menuBtn@@3FA, 1 ; menuBtn
  00032	0f 84 93 00 00
	00		 je	 $LN12@BattleTarg

; 2789 : 
; 2790 : 		if( pActInfoWnd == NULL ){

  00038	8b 0d 00 00 00
	00		 mov	 ecx, DWORD PTR ?pActInfoWnd@@3PAUaction@@A
  0003e	85 c9		 test	 ecx, ecx
  00040	75 34		 jne	 SHORT $LN14@BattleTarg

; 2791 : 
; 2792 : 			if( mouse.nowPoint.y < 228 ){ 

  00042	81 3d 04 00 00
	00 e4 00 00 00	 cmp	 DWORD PTR ?mouse@@3UMOUSE@@A+4, 228 ; 000000e4H
  0004c	b9 90 01 00 00	 mov	 ecx, 400		; 00000190H

; 2793 : 				pActInfoWnd = MakeWindowDisp( 225, 400, 3, 2, 0, 1 );
; 2794 : 			}else{ 
; 2795 : 				pActInfoWnd = MakeWindowDisp( 225, 60, 3, 2, 0, 1 );
; 2796 : 			}
; 2797 : 		}else{	

  00051	6a 01		 push	 1
  00053	6a 00		 push	 0
  00055	6a 02		 push	 2
  00057	b8 3c 00 00 00	 mov	 eax, 60			; 0000003cH
  0005c	0f 4c c1	 cmovl	 eax, ecx
  0005f	6a 03		 push	 3
  00061	50		 push	 eax
  00062	68 e1 00 00 00	 push	 225			; 000000e1H
  00067	e8 00 00 00 00	 call	 ?MakeWindowDisp@@YAPAUaction@@HHHHHH@Z ; MakeWindowDisp
  0006c	83 c4 18	 add	 esp, 24			; 00000018H
  0006f	a3 00 00 00 00	 mov	 DWORD PTR ?pActInfoWnd@@3PAUaction@@A, eax
  00074	eb 6d		 jmp	 SHORT $LN13@BattleTarg
$LN14@BattleTarg:

; 2798 : 
; 2799 : 			if( pActInfoWnd->hp > 0 ){

  00076	83 79 78 00	 cmp	 DWORD PTR [ecx+120], 0
  0007a	7e 27		 jle	 SHORT $LN18@BattleTarg

; 2800 : 				StockFontBuffer( pActInfoWnd->x + 30, pActInfoWnd->y + 40, FONT_PRIO_FRONT, FONT_PAL_YELLOW, 	"목표를 선택 해주세요", 0 );

  0007c	8b 41 1c	 mov	 eax, DWORD PTR [ecx+28]
  0007f	6a 00		 push	 0
  00081	68 00 00 00 00	 push	 OFFSET ??_C@_0BF@NNNOOJBA@?$LI?q?G?$KF?$LI?$KG?5?$LM?$LB?E?C?5?G?X?A?V?$LM?$LM?$LP?d@
  00086	6a 04		 push	 4
  00088	83 c0 28	 add	 eax, 40			; 00000028H
  0008b	6a 01		 push	 1
  0008d	50		 push	 eax
  0008e	8b 41 18	 mov	 eax, DWORD PTR [ecx+24]
  00091	83 c0 1e	 add	 eax, 30			; 0000001eH
  00094	50		 push	 eax
  00095	e8 00 00 00 00	 call	 ?StockFontBuffer@@YAHHHDHPADH@Z ; StockFontBuffer
  0009a	8b 0d 00 00 00
	00		 mov	 ecx, DWORD PTR ?pActInfoWnd@@3PAUaction@@A
  000a0	83 c4 18	 add	 esp, 24			; 00000018H
$LN18@BattleTarg:

; 2801 : 			}
; 2802 : 
; 2803 : 			if( mouse.nowPoint.y > 300 ) pActInfoWnd->y = 60;

  000a3	a1 04 00 00 00	 mov	 eax, DWORD PTR ?mouse@@3UMOUSE@@A+4
  000a8	3d 2c 01 00 00	 cmp	 eax, 300		; 0000012cH
  000ad	7e 0c		 jle	 SHORT $LN19@BattleTarg
  000af	c7 41 1c 3c 00
	00 00		 mov	 DWORD PTR [ecx+28], 60	; 0000003cH
  000b6	a1 04 00 00 00	 mov	 eax, DWORD PTR ?mouse@@3UMOUSE@@A+4
$LN19@BattleTarg:

; 2804 : 			if( mouse.nowPoint.y < 156 ) pActInfoWnd->y = 400;

  000bb	3d 9c 00 00 00	 cmp	 eax, 156		; 0000009cH
  000c0	7d 21		 jge	 SHORT $LN13@BattleTarg
  000c2	c7 41 1c 90 01
	00 00		 mov	 DWORD PTR [ecx+28], 400	; 00000190H

; 2805 : 		}
; 2806 : 	}else{

  000c9	eb 18		 jmp	 SHORT $LN13@BattleTarg
$LN12@BattleTarg:

; 2807 : 		DeathAction( pActInfoWnd );

  000cb	ff 35 00 00 00
	00		 push	 DWORD PTR ?pActInfoWnd@@3PAUaction@@A
  000d1	e8 00 00 00 00	 call	 ?DeathAction@@YAXPAUaction@@@Z ; DeathAction
  000d6	83 c4 04	 add	 esp, 4

; 2808 : 		pActInfoWnd = NULL;

  000d9	c7 05 00 00 00
	00 00 00 00 00	 mov	 DWORD PTR ?pActInfoWnd@@3PAUaction@@A, 0
$LN13@BattleTarg:

; 2809 : 	}
; 2810 : 
; 2811 : 	//cary 自动攻击
; 2812 : 	if( mouse.onceState & MOUSE_LEFT_CRICK ){

  000e3	f6 05 2c 00 00
	00 01		 test	 BYTE PTR ?mouse@@3UMOUSE@@A+44, 1
  000ea	0f 84 d6 03 00
	00		 je	 $LN22@BattleTarg

; 2813 : 
; 2814 : 		if( ( targetNo = CheckBattelTarget() ) != -1 ){

  000f0	e8 00 00 00 00	 call	 ?CheckBattelTarget@@YAHXZ ; CheckBattelTarget
  000f5	8b d0		 mov	 edx, eax
  000f7	83 fa ff	 cmp	 edx, -1
  000fa	0f 84 c6 03 00
	00		 je	 $LN22@BattleTarg

; 2815 : 
; 2816 : 			switch( BattleCmdNo ){

  00100	a1 00 00 00 00	 mov	 eax, DWORD PTR ?BattleCmdNo@@3HA ; BattleCmdNo
  00105	57		 push	 edi
  00106	83 f8 05	 cmp	 eax, 5
  00109	0f 87 76 03 00
	00		 ja	 $LN10@BattleTarg
  0010f	ff 24 85 00 00
	00 00		 jmp	 DWORD PTR $LN152@BattleTarg[eax*4]
$LN23@BattleTarg:

; 2817 : 			case BATTLE_ATTACK:
; 2818 : 				sprintf( moji, "H|%X", targetNo );

  00116	52		 push	 edx
  00117	68 00 00 00 00	 push	 OFFSET ??_C@_04DMFDFHBJ@H?$HM?$CFX@
$LN167@BattleTarg:

; 3155 : 					lssproto_B_send( sockfd, moji );
; 3156 : 					play_se( 217, 320, 240 );
; 3157 : 					break;
; 3158 : 				}
; 3159 : 
; 3160 : #endif
; 3161 : 			}
; 3162 : 
; 3163 : 			play_se( 203, 320, 240 );

  0011c	8d 85 fc fe ff
	ff		 lea	 eax, DWORD PTR _moji$[ebp]
  00122	50		 push	 eax
  00123	e8 00 00 00 00	 call	 _sprintf
  00128	83 c4 0c	 add	 esp, 12			; 0000000cH
  0012b	8d 85 fc fe ff
	ff		 lea	 eax, DWORD PTR _moji$[ebp]
  00131	83 3d 00 00 00
	00 00		 cmp	 DWORD PTR ?bNewServer@@3HA, 0 ; bNewServer
  00138	50		 push	 eax
  00139	ff 35 00 00 00
	00		 push	 DWORD PTR ?sockfd@@3IA	; sockfd
  0013f	74 0d		 je	 SHORT $LN24@BattleTarg
  00141	e8 00 00 00 00	 call	 ?lssproto_B_send@@YAXHPAD@Z ; lssproto_B_send
  00146	83 c4 08	 add	 esp, 8
  00149	e9 37 03 00 00	 jmp	 $LN10@BattleTarg
$LN24@BattleTarg:
  0014e	e8 00 00 00 00	 call	 ?old_lssproto_B_send@@YAXHPAD@Z ; old_lssproto_B_send
  00153	83 c4 08	 add	 esp, 8
  00156	e9 2a 03 00 00	 jmp	 $LN10@BattleTarg
$LN26@BattleTarg:

; 2819 : 				if( bNewServer)
; 2820 : 					lssproto_B_send( sockfd, moji );
; 2821 : 				else
; 2822 : 					old_lssproto_B_send( sockfd, moji );
; 2823 : 				break;
; 2824 : 			
; 2825 : 			case BATTLE_CAPTURE:
; 2826 : 				sprintf( moji, "T|%X", targetNo );

  0015b	52		 push	 edx
  0015c	68 00 00 00 00	 push	 OFFSET ??_C@_04JJEDCNJK@T?$HM?$CFX@

; 2827 : 				if( bNewServer)
; 2828 : 					lssproto_B_send( sockfd, moji );

  00161	eb b9		 jmp	 SHORT $LN167@BattleTarg
$LN29@BattleTarg:

; 2829 : 				else
; 2830 : 					old_lssproto_B_send( sockfd, moji );
; 2831 : 				break;
; 2832 : 				
; 2833 : 			case BATTLE_JUJUTU:
; 2834 : 				//cary*
; 2835 : 				switch( magic[ BattleJujutuNo ].target ){

  00163	8b 0d 00 00 00
	00		 mov	 ecx, DWORD PTR ?BattleJujutuNo@@3HA ; BattleJujutuNo
  00169	6b c1 70	 imul	 eax, ecx, 112
  0016c	0f bf 80 0a 00
	00 00		 movsx	 eax, WORD PTR ?magic@@3PAUMAGIC@@A[eax+10]
  00173	83 f8 0b	 cmp	 eax, 11			; 0000000bH
  00176	0f 87 09 03 00
	00		 ja	 $LN10@BattleTarg
  0017c	ff 24 85 00 00
	00 00		 jmp	 DWORD PTR $LN153@BattleTarg[eax*4]
$LN30@BattleTarg:

; 2946 : 					else
; 2947 : 						old_lssproto_B_send( sockfd, moji );
; 2948 : 
; 2949 : 					play_se( 217, 320, 240 );

  00183	52		 push	 edx
$LN160@BattleTarg:
  00184	51		 push	 ecx
  00185	68 00 00 00 00	 push	 OFFSET ??_C@_07DLEHBIBA@J?$HM?$CFX?$HM?$CFX@
$LN168@BattleTarg:

; 3155 : 					lssproto_B_send( sockfd, moji );
; 3156 : 					play_se( 217, 320, 240 );
; 3157 : 					break;
; 3158 : 				}
; 3159 : 
; 3160 : #endif
; 3161 : 			}
; 3162 : 
; 3163 : 			play_se( 203, 320, 240 );

  0018a	8d 85 fc fe ff
	ff		 lea	 eax, DWORD PTR _moji$[ebp]
  00190	50		 push	 eax
  00191	e8 00 00 00 00	 call	 _sprintf
  00196	83 c4 10	 add	 esp, 16			; 00000010H
  00199	8d 85 fc fe ff
	ff		 lea	 eax, DWORD PTR _moji$[ebp]
  0019f	83 3d 00 00 00
	00 00		 cmp	 DWORD PTR ?bNewServer@@3HA, 0 ; bNewServer
  001a6	50		 push	 eax
  001a7	ff 35 00 00 00
	00		 push	 DWORD PTR ?sockfd@@3IA	; sockfd
  001ad	74 7f		 je	 SHORT $LN31@BattleTarg
  001af	e8 00 00 00 00	 call	 ?lssproto_B_send@@YAXHPAD@Z ; lssproto_B_send
  001b4	eb 7d		 jmp	 SHORT $LN159@BattleTarg
$LN33@BattleTarg:

; 2836 : 
; 2837 : 				#ifdef __ATTACK_MAGIC
; 2838 : 
; 2839 : 				// 敌军某一人
; 2840 : 				case MAGIC_TARGET_SINGLE:
; 2841 : 
; 2842 : 					sprintf( moji , "J|%X|%X" , BattleJujutuNo , targetNo );
; 2843 : 					if( bNewServer)
; 2844 : 						lssproto_B_send( sockfd , moji );
; 2845 : 					else
; 2846 : 						old_lssproto_B_send( sockfd , moji );
; 2847 : 					play_se( 217 , 320 , 240 );
; 2848 : 
; 2849 : 					break;
; 2850 : 
; 2851 : 				// 敌军一整排
; 2852 : 				case MAGIC_TARGET_ONE_ROW:
; 2853 : 
; 2854 : 					// 23: 左上第一列 , 24: 左上第二列 , 25: 右下第一列 , 26: 右下第二列
; 2855 : 					if( targetNo >= 0 && targetNo < 5 )

  001b6	85 d2		 test	 edx, edx
  001b8	78 32		 js	 SHORT $LN40@BattleTarg
  001ba	83 fa 05	 cmp	 edx, 5
  001bd	7d 08		 jge	 SHORT $LN151@BattleTarg

; 2856 : 						no = 26;

  001bf	be 1a 00 00 00	 mov	 esi, 26			; 0000001aH

; 2862 : 						no = 24;
; 2863 : 
; 2864 : 					sprintf( moji , "J|%X|%X" , BattleJujutuNo , no );

  001c4	56		 push	 esi

; 2865 : 					if( bNewServer)
; 2866 : 						lssproto_B_send( sockfd , moji );

  001c5	eb bd		 jmp	 SHORT $LN160@BattleTarg
$LN151@BattleTarg:

; 2857 : 					else if( targetNo >= 5 && targetNo < 10 )

  001c7	83 fa 0a	 cmp	 edx, 10			; 0000000aH
  001ca	7d 08		 jge	 SHORT $LN150@BattleTarg

; 2858 : 						no = 25;

  001cc	be 19 00 00 00	 mov	 esi, 25			; 00000019H

; 2862 : 						no = 24;
; 2863 : 
; 2864 : 					sprintf( moji , "J|%X|%X" , BattleJujutuNo , no );

  001d1	56		 push	 esi

; 2865 : 					if( bNewServer)
; 2866 : 						lssproto_B_send( sockfd , moji );

  001d2	eb b0		 jmp	 SHORT $LN160@BattleTarg
$LN150@BattleTarg:

; 2859 : 					else if( targetNo >= 10 && targetNo < 15 )

  001d4	83 fa 0f	 cmp	 edx, 15			; 0000000fH
  001d7	7d 08		 jge	 SHORT $LN149@BattleTarg

; 2860 : 						no = 23;

  001d9	be 17 00 00 00	 mov	 esi, 23			; 00000017H

; 2862 : 						no = 24;
; 2863 : 
; 2864 : 					sprintf( moji , "J|%X|%X" , BattleJujutuNo , no );

  001de	56		 push	 esi

; 2865 : 					if( bNewServer)
; 2866 : 						lssproto_B_send( sockfd , moji );

  001df	eb a3		 jmp	 SHORT $LN160@BattleTarg
$LN149@BattleTarg:

; 2861 : 					else if( targetNo >= 15 && targetNo < 20 )

  001e1	83 fa 14	 cmp	 edx, 20			; 00000014H
  001e4	b8 18 00 00 00	 mov	 eax, 24			; 00000018H
  001e9	0f 4c f0	 cmovl	 esi, eax
$LN40@BattleTarg:

; 2862 : 						no = 24;
; 2863 : 
; 2864 : 					sprintf( moji , "J|%X|%X" , BattleJujutuNo , no );

  001ec	56		 push	 esi

; 2865 : 					if( bNewServer)
; 2866 : 						lssproto_B_send( sockfd , moji );

  001ed	eb 95		 jmp	 SHORT $LN160@BattleTarg
$LN43@BattleTarg:

; 2946 : 					else
; 2947 : 						old_lssproto_B_send( sockfd, moji );
; 2948 : 
; 2949 : 					play_se( 217, 320, 240 );

  001ef	33 c0		 xor	 eax, eax
  001f1	83 3d 00 00 00
	00 0a		 cmp	 DWORD PTR ?BattleMyNo@@3HA, 10 ; BattleMyNo, 0000000aH
  001f8	0f 9c c0	 setl	 al
  001fb	83 c0 14	 add	 eax, 20			; 00000014H
  001fe	50		 push	 eax
  001ff	eb 83		 jmp	 SHORT $LN160@BattleTarg
$LN50@BattleTarg:

; 2867 : 					else
; 2868 : 						old_lssproto_B_send( sockfd , moji );
; 2869 : 					play_se( 217 , 320 , 240 );
; 2870 : 
; 2871 : 					break;
; 2872 : 
; 2873 : 				// 敌军全体
; 2874 : 				case MAGIC_TARGET_ALL_ROWS:
; 2875 : 
; 2876 : 					( BattleMyNo < 10 )? no = 21 : no = 20;
; 2877 : 					sprintf( moji , "J|%X|%X" , BattleJujutuNo , no );
; 2878 : 					if( bNewServer)
; 2879 : 						lssproto_B_send( sockfd , moji );
; 2880 : 					else
; 2881 : 						old_lssproto_B_send( sockfd , moji );
; 2882 : 					play_se( 217 , 320 , 240 );
; 2883 : 
; 2884 : 					break;
; 2885 : 
; 2886 : 				#endif
; 2887 : 
; 2888 : 				case MAGIC_TARGET_MYSELF:
; 2889 : 				case MAGIC_TARGET_OTHER:
; 2890 : 					sprintf( moji,"J|%X|%X", BattleJujutuNo, targetNo );
; 2891 : 					if( bNewServer)
; 2892 : 						lssproto_B_send( sockfd, moji );
; 2893 : 					else
; 2894 : 						old_lssproto_B_send( sockfd, moji );
; 2895 : 					play_se( 217, 320, 240 );
; 2896 : 					break;
; 2897 : 					
; 2898 : 				case MAGIC_TARGET_ALLMYSIDE:
; 2899 : 					if( BattleMyNo < 10 ) no = 20;

  00201	33 c0		 xor	 eax, eax
  00203	83 3d 00 00 00
	00 0a		 cmp	 DWORD PTR ?BattleMyNo@@3HA, 10 ; BattleMyNo, 0000000aH
  0020a	0f 9d c0	 setge	 al
  0020d	83 c0 14	 add	 eax, 20			; 00000014H

; 2900 : 					else no = 21;
; 2901 : 					sprintf( moji,"J|%X|%X", BattleJujutuNo, no );

  00210	50		 push	 eax

; 2902 : 
; 2903 : 					if( bNewServer)
; 2904 : 						lssproto_B_send( sockfd, moji );

  00211	e9 6e ff ff ff	 jmp	 $LN160@BattleTarg
$LN60@BattleTarg:

; 2905 : 					else
; 2906 : 						old_lssproto_B_send( sockfd, moji );
; 2907 : 
; 2908 : 					play_se( 217, 320, 240 );
; 2909 : 					break;
; 2910 : 					
; 2911 : 				case MAGIC_TARGET_ALLOTHERSIDE:
; 2912 : 					if( BattleMyNo < 10 ) no = 21;
; 2913 : 					else no = 20;
; 2914 : 
; 2915 : 					sprintf( moji,"J|%X|%X", BattleJujutuNo, no );
; 2916 : 
; 2917 : 					if( bNewServer)
; 2918 : 						lssproto_B_send( sockfd, moji );
; 2919 : 					else
; 2920 : 						old_lssproto_B_send( sockfd, moji );
; 2921 : 
; 2922 : 					play_se( 217, 320, 240 );
; 2923 : 					break;
; 2924 : 					
; 2925 : 				case MAGIC_TARGET_ALL:
; 2926 : 
; 2927 : 					sprintf( moji,"J|%X|%X", BattleJujutuNo, 22 );

  00216	6a 16		 push	 22			; 00000016H

; 2928 : 
; 2929 : 					if( bNewServer)
; 2930 : 						lssproto_B_send( sockfd, moji );

  00218	e9 67 ff ff ff	 jmp	 $LN160@BattleTarg
$LN63@BattleTarg:

; 2931 : 					else
; 2932 : 						old_lssproto_B_send( sockfd, moji );
; 2933 : 
; 2934 : 					play_se( 217, 320, 240 );
; 2935 : 					break;
; 2936 : 					
; 2937 : 				case MAGIC_TARGET_WHOLEOTHERSIDE:
; 2938 : 
; 2939 : 					if( targetNo < 10 ) no = 20;
; 2940 : 					else no = 21;
; 2941 : 
; 2942 : 					sprintf( moji,"J|%X|%X", BattleJujutuNo, no );

  0021d	33 c0		 xor	 eax, eax
  0021f	83 fa 0a	 cmp	 edx, 10			; 0000000aH
  00222	0f 9d c0	 setge	 al
  00225	83 c0 14	 add	 eax, 20			; 00000014H
  00228	50		 push	 eax

; 2943 : 
; 2944 : 					if( bNewServer)
; 2945 : 						lssproto_B_send( sockfd, moji );

  00229	e9 56 ff ff ff	 jmp	 $LN160@BattleTarg
$LN31@BattleTarg:

; 3155 : 					lssproto_B_send( sockfd, moji );
; 3156 : 					play_se( 217, 320, 240 );
; 3157 : 					break;
; 3158 : 				}
; 3159 : 
; 3160 : #endif
; 3161 : 			}
; 3162 : 
; 3163 : 			play_se( 203, 320, 240 );

  0022e	e8 00 00 00 00	 call	 ?old_lssproto_B_send@@YAXHPAD@Z ; old_lssproto_B_send
$LN159@BattleTarg:
  00233	83 c4 08	 add	 esp, 8
  00236	68 f0 00 00 00	 push	 240			; 000000f0H
  0023b	68 40 01 00 00	 push	 320			; 00000140H
  00240	68 d9 00 00 00	 push	 217			; 000000d9H
  00245	e8 00 00 00 00	 call	 ?play_se@@YAHHHH@Z	; play_se
  0024a	83 c4 0c	 add	 esp, 12			; 0000000cH
  0024d	e9 33 02 00 00	 jmp	 $LN10@BattleTarg
$LN68@BattleTarg:

; 2950 : 					break;
; 2951 : 				}
; 2952 : 				break;
; 2953 : 				
; 2954 : 				//Change note 道具选择对象后送出封包
; 2955 : 			case BATTLE_ITEM:
; 2956 : 				//cary*
; 2957 : 				switch( pc.item[ BattleItemNo ].target ){

  00252	8b 0d 00 00 00
	00		 mov	 ecx, DWORD PTR ?BattleItemNo@@3HA ; BattleItemNo
  00258	69 c1 7c 01 00
	00		 imul	 eax, ecx, 380
  0025e	0f bf 80 a4 01
	00 00		 movsx	 eax, WORD PTR ?pc@@3UPC@@A[eax+420]
  00265	83 f8 07	 cmp	 eax, 7
  00268	0f 87 17 02 00
	00		 ja	 $LN10@BattleTarg
  0026e	ff 24 85 00 00
	00 00		 jmp	 DWORD PTR $LN154@BattleTarg[eax*4]
$LN69@BattleTarg:

; 2958 : 				case ITEM_TARGET_MYSELF:
; 2959 : 				case ITEM_TARGET_OTHER:
; 2960 : 				case ITEM_TARGET_OTHERWITHOUTMYSELF:
; 2961 : 				case ITEM_TARGET_WITHOUTMYSELFANDPET:
; 2962 : 					sprintf( moji,"I|%X|%X", BattleItemNo, targetNo );

  00275	52		 push	 edx

; 3005 : 
; 3006 : 					if( bNewServer)
; 3007 : 						lssproto_B_send( sockfd, moji );
; 3008 : 					else
; 3009 : 						old_lssproto_B_send( sockfd, moji );
; 3010 : 
; 3011 : 					play_se( 217, 320, 240 );

  00276	51		 push	 ecx
  00277	68 00 00 00 00	 push	 OFFSET ??_C@_07LFMIBPPD@I?$HM?$CFX?$HM?$CFX@
  0027c	e9 09 ff ff ff	 jmp	 $LN168@BattleTarg
$LN75@BattleTarg:

; 2963 : 
; 2964 : 					if( bNewServer)
; 2965 : 						lssproto_B_send( sockfd, moji );
; 2966 : 					else
; 2967 : 						old_lssproto_B_send( sockfd, moji );
; 2968 : 
; 2969 : 					play_se( 217, 320, 240 );
; 2970 : 					break;
; 2971 : 					
; 2972 : 				case ITEM_TARGET_ALLMYSIDE:
; 2973 : 
; 2974 : 					if( BattleMyNo < 10 ) no = 20;

  00281	33 c0		 xor	 eax, eax
  00283	83 3d 00 00 00
	00 0a		 cmp	 DWORD PTR ?BattleMyNo@@3HA, 10 ; BattleMyNo, 0000000aH
  0028a	0f 9d c0	 setge	 al
  0028d	83 c0 14	 add	 eax, 20			; 00000014H

; 2975 : 					else no = 21;
; 2976 : 
; 2977 : 					sprintf( moji,"I|%X|%X", BattleItemNo, no );

  00290	50		 push	 eax

; 3005 : 
; 3006 : 					if( bNewServer)
; 3007 : 						lssproto_B_send( sockfd, moji );
; 3008 : 					else
; 3009 : 						old_lssproto_B_send( sockfd, moji );
; 3010 : 
; 3011 : 					play_se( 217, 320, 240 );

  00291	51		 push	 ecx
  00292	68 00 00 00 00	 push	 OFFSET ??_C@_07LFMIBPPD@I?$HM?$CFX?$HM?$CFX@
  00297	e9 ee fe ff ff	 jmp	 $LN168@BattleTarg
$LN80@BattleTarg:

; 2978 : 
; 2979 : 					if( bNewServer)
; 2980 : 						lssproto_B_send( sockfd, moji );
; 2981 : 					else
; 2982 : 						old_lssproto_B_send( sockfd, moji );
; 2983 : 
; 2984 : 					play_se( 217, 320, 240 );
; 2985 : 					break;
; 2986 : 					
; 2987 : 				case ITEM_TARGET_ALLOTHERSIDE:
; 2988 : 
; 2989 : 					if( BattleMyNo < 10 ) no = 21;

  0029c	33 c0		 xor	 eax, eax
  0029e	83 3d 00 00 00
	00 0a		 cmp	 DWORD PTR ?BattleMyNo@@3HA, 10 ; BattleMyNo, 0000000aH
  002a5	0f 9c c0	 setl	 al
  002a8	83 c0 14	 add	 eax, 20			; 00000014H

; 2990 : 					else no = 20;
; 2991 : 
; 2992 : 					sprintf( moji,"I|%X|%X", BattleItemNo, no );

  002ab	50		 push	 eax

; 3005 : 
; 3006 : 					if( bNewServer)
; 3007 : 						lssproto_B_send( sockfd, moji );
; 3008 : 					else
; 3009 : 						old_lssproto_B_send( sockfd, moji );
; 3010 : 
; 3011 : 					play_se( 217, 320, 240 );

  002ac	51		 push	 ecx
  002ad	68 00 00 00 00	 push	 OFFSET ??_C@_07LFMIBPPD@I?$HM?$CFX?$HM?$CFX@
  002b2	e9 d3 fe ff ff	 jmp	 $LN168@BattleTarg
$LN85@BattleTarg:

; 2993 : 
; 2994 : 					if( bNewServer)
; 2995 : 						lssproto_B_send( sockfd, moji );
; 2996 : 					else
; 2997 : 						old_lssproto_B_send( sockfd, moji );
; 2998 : 
; 2999 : 					play_se( 217, 320, 240 );
; 3000 : 					break;
; 3001 : 					
; 3002 : 				case ITEM_TARGET_ALL:
; 3003 : 
; 3004 : 					sprintf( moji,"I|%X|%X", BattleItemNo, 22 );

  002b7	6a 16		 push	 22			; 00000016H

; 3005 : 
; 3006 : 					if( bNewServer)
; 3007 : 						lssproto_B_send( sockfd, moji );
; 3008 : 					else
; 3009 : 						old_lssproto_B_send( sockfd, moji );
; 3010 : 
; 3011 : 					play_se( 217, 320, 240 );

  002b9	51		 push	 ecx
  002ba	68 00 00 00 00	 push	 OFFSET ??_C@_07LFMIBPPD@I?$HM?$CFX?$HM?$CFX@
  002bf	e9 c6 fe ff ff	 jmp	 $LN168@BattleTarg
$LN88@BattleTarg:

; 3012 : 					break;
; 3013 : 				}
; 3014 : 				break;
; 3015 : 
; 3016 : 				//Change note 宠技选择对象后送出封包
; 3017 : 			case BATTLE_WAZA:
; 3018 : 				switch( petSkill[ battlePetNoBak ][ BattleWazaNo ].target ){

  002c4	a1 00 00 00 00	 mov	 eax, DWORD PTR ?battlePetNoBak@@3HA ; battlePetNoBak
  002c9	8b 3d 00 00 00
	00		 mov	 edi, DWORD PTR ?BattleWazaNo@@3HA ; BattleWazaNo
  002cf	8d 0c c5 00 00
	00 00		 lea	 ecx, DWORD PTR [eax*8]
  002d6	2b c8		 sub	 ecx, eax
  002d8	03 cf		 add	 ecx, edi
  002da	6b c1 6a	 imul	 eax, ecx, 106
  002dd	0f bf 80 06 00
	00 00		 movsx	 eax, WORD PTR ?petSkill@@3PAY06UPET_SKILL@@A[eax+6]
  002e4	83 f8 0c	 cmp	 eax, 12			; 0000000cH
  002e7	0f 87 98 01 00
	00		 ja	 $LN10@BattleTarg
  002ed	0f b6 80 00 00
	00 00		 movzx	 eax, BYTE PTR $LN155@BattleTarg[eax]
  002f4	ff 24 85 00 00
	00 00		 jmp	 DWORD PTR $LN156@BattleTarg[eax*4]
$LN89@BattleTarg:

; 3019 : 				case PETSKILL_TARGET_MYSELF:
; 3020 : 				case PETSKILL_TARGET_OTHER:
; 3021 : 				case PETSKILL_TARGET_OTHERWITHOUTMYSELF:
; 3022 : 				case PETSKILL_TARGET_WITHOUTMYSELFANDPET:
; 3023 : #ifdef _BATTLESKILL
; 3024 : 				case PETSKILL_TARGER_DEATH:
; 3025 : #endif
; 3026 : 					sprintf( moji,"W|%X|%X", BattleWazaNo, targetNo );

  002fb	52		 push	 edx

; 3097 : 
; 3098 : 					if (bNewServer)
; 3099 : 						lssproto_B_send(sockfd, moji);
; 3100 : 					else
; 3101 : 						old_lssproto_B_send(sockfd, moji);
; 3102 : 
; 3103 : 					play_se(217, 320, 240);

  002fc	57		 push	 edi
  002fd	68 00 00 00 00	 push	 OFFSET ??_C@_07NMPJDMOK@W?$HM?$CFX?$HM?$CFX@
  00302	e9 83 fe ff ff	 jmp	 $LN168@BattleTarg
$LN96@BattleTarg:

; 3027 : 
; 3028 : 					if( bNewServer)
; 3029 : 						lssproto_B_send( sockfd, moji );
; 3030 : 					else
; 3031 : 						old_lssproto_B_send( sockfd, moji );
; 3032 : 
; 3033 : 					play_se( 217, 320, 240 );
; 3034 : 					break;
; 3035 : 					
; 3036 : 				case PETSKILL_TARGET_ALLMYSIDE:
; 3037 : 
; 3038 : 					if( BattleMyNo < 10 ) no = 20;

  00307	33 c0		 xor	 eax, eax
  00309	83 3d 00 00 00
	00 0a		 cmp	 DWORD PTR ?BattleMyNo@@3HA, 10 ; BattleMyNo, 0000000aH
  00310	0f 9d c0	 setge	 al
  00313	83 c0 14	 add	 eax, 20			; 00000014H

; 3039 : 					else no = 21;
; 3040 : 
; 3041 : 					sprintf( moji,"W|%X|%X", BattleWazaNo, no );

  00316	50		 push	 eax

; 3097 : 
; 3098 : 					if (bNewServer)
; 3099 : 						lssproto_B_send(sockfd, moji);
; 3100 : 					else
; 3101 : 						old_lssproto_B_send(sockfd, moji);
; 3102 : 
; 3103 : 					play_se(217, 320, 240);

  00317	57		 push	 edi
  00318	68 00 00 00 00	 push	 OFFSET ??_C@_07NMPJDMOK@W?$HM?$CFX?$HM?$CFX@
  0031d	e9 68 fe ff ff	 jmp	 $LN168@BattleTarg
$LN101@BattleTarg:

; 3042 : 
; 3043 : 					if( bNewServer)
; 3044 : 						lssproto_B_send( sockfd, moji );
; 3045 : 					else
; 3046 : 						old_lssproto_B_send( sockfd, moji );
; 3047 : 
; 3048 : 					play_se( 217, 320, 240 );
; 3049 : 					break;
; 3050 : 					
; 3051 : 				case PETSKILL_TARGET_ALLOTHERSIDE:
; 3052 : 				
; 3053 : 					if( BattleMyNo < 10 ) no = 21;

  00322	33 c0		 xor	 eax, eax
  00324	83 3d 00 00 00
	00 0a		 cmp	 DWORD PTR ?BattleMyNo@@3HA, 10 ; BattleMyNo, 0000000aH
  0032b	0f 9c c0	 setl	 al
  0032e	83 c0 14	 add	 eax, 20			; 00000014H

; 3054 : 					else no = 20;
; 3055 : 
; 3056 : 					sprintf( moji,"W|%X|%X", BattleWazaNo, no );

  00331	50		 push	 eax

; 3097 : 
; 3098 : 					if (bNewServer)
; 3099 : 						lssproto_B_send(sockfd, moji);
; 3100 : 					else
; 3101 : 						old_lssproto_B_send(sockfd, moji);
; 3102 : 
; 3103 : 					play_se(217, 320, 240);

  00332	57		 push	 edi
  00333	68 00 00 00 00	 push	 OFFSET ??_C@_07NMPJDMOK@W?$HM?$CFX?$HM?$CFX@
  00338	e9 4d fe ff ff	 jmp	 $LN168@BattleTarg
$LN106@BattleTarg:

; 3057 : 
; 3058 : 					if( bNewServer)
; 3059 : 						lssproto_B_send( sockfd, moji );
; 3060 : 					else
; 3061 : 						old_lssproto_B_send( sockfd, moji );
; 3062 : 
; 3063 : 					play_se( 217, 320, 240 );
; 3064 : 					break;
; 3065 : 					
; 3066 : 				case PETSKILL_TARGET_ALL:
; 3067 : 
; 3068 : 					sprintf( moji,"W|%X|%X", BattleWazaNo, 22 );

  0033d	6a 16		 push	 22			; 00000016H

; 3097 : 
; 3098 : 					if (bNewServer)
; 3099 : 						lssproto_B_send(sockfd, moji);
; 3100 : 					else
; 3101 : 						old_lssproto_B_send(sockfd, moji);
; 3102 : 
; 3103 : 					play_se(217, 320, 240);

  0033f	57		 push	 edi
  00340	68 00 00 00 00	 push	 OFFSET ??_C@_07NMPJDMOK@W?$HM?$CFX?$HM?$CFX@
  00345	e9 40 fe ff ff	 jmp	 $LN168@BattleTarg
$LN109@BattleTarg:

; 3069 : 
; 3070 : 					if( bNewServer)
; 3071 : 						lssproto_B_send( sockfd, moji );
; 3072 : 					else
; 3073 : 						old_lssproto_B_send( sockfd, moji );
; 3074 : 
; 3075 : 					play_se( 217, 320, 240 );
; 3076 : 					break;
; 3077 : #ifdef _BATTLESKILL
; 3078 : 				case PETSKILL_TARGET_ONE_ROW:
; 3079 : #endif
; 3080 : #ifdef _SKILL_ADDBARRIER
; 3081 : 				case PETSKILL_TARGET_ONE_ROW_ALL:
; 3082 : #endif
; 3083 : 					if ( targetNo >= 0 && targetNo < 5 ) no = 26 ; 

  0034a	85 d2		 test	 edx, edx
  0034c	78 4d		 js	 SHORT $LN111@BattleTarg
  0034e	83 fa 05	 cmp	 edx, 5
  00351	7d 11		 jge	 SHORT $LN148@BattleTarg
  00353	be 1a 00 00 00	 mov	 esi, 26			; 0000001aH

; 3087 : 					sprintf( moji,"W|%X|%X", BattleWazaNo, no );

  00358	56		 push	 esi
  00359	57		 push	 edi
  0035a	68 00 00 00 00	 push	 OFFSET ??_C@_07NMPJDMOK@W?$HM?$CFX?$HM?$CFX@

; 3088 : 					lssproto_B_send( sockfd, moji );
; 3089 : 					play_se( 217, 320, 240 );
; 3090 : 					break;

  0035f	e9 ec 00 00 00	 jmp	 $LN164@BattleTarg
$LN148@BattleTarg:

; 3084 : 					if ( targetNo >= 5 && targetNo < 10 ) no = 25 ; 

  00364	83 fa 0a	 cmp	 edx, 10			; 0000000aH
  00367	7d 11		 jge	 SHORT $LN147@BattleTarg
  00369	be 19 00 00 00	 mov	 esi, 25			; 00000019H

; 3087 : 					sprintf( moji,"W|%X|%X", BattleWazaNo, no );

  0036e	56		 push	 esi
  0036f	57		 push	 edi
  00370	68 00 00 00 00	 push	 OFFSET ??_C@_07NMPJDMOK@W?$HM?$CFX?$HM?$CFX@

; 3088 : 					lssproto_B_send( sockfd, moji );
; 3089 : 					play_se( 217, 320, 240 );
; 3090 : 					break;

  00375	e9 d6 00 00 00	 jmp	 $LN164@BattleTarg
$LN147@BattleTarg:

; 3085 : 					if ( targetNo >= 10 && targetNo < 15 ) no = 23 ; 

  0037a	83 fa 0f	 cmp	 edx, 15			; 0000000fH
  0037d	7d 11		 jge	 SHORT $LN146@BattleTarg
  0037f	be 17 00 00 00	 mov	 esi, 23			; 00000017H

; 3087 : 					sprintf( moji,"W|%X|%X", BattleWazaNo, no );

  00384	56		 push	 esi
  00385	57		 push	 edi
  00386	68 00 00 00 00	 push	 OFFSET ??_C@_07NMPJDMOK@W?$HM?$CFX?$HM?$CFX@

; 3088 : 					lssproto_B_send( sockfd, moji );
; 3089 : 					play_se( 217, 320, 240 );
; 3090 : 					break;

  0038b	e9 c0 00 00 00	 jmp	 $LN164@BattleTarg
$LN146@BattleTarg:

; 3086 : 					if ( targetNo >= 15 && targetNo < 20 ) no = 24 ; 

  00390	83 fa 14	 cmp	 edx, 20			; 00000014H
  00393	b8 18 00 00 00	 mov	 eax, 24			; 00000018H
  00398	0f 4c f0	 cmovl	 esi, eax
$LN111@BattleTarg:

; 3087 : 					sprintf( moji,"W|%X|%X", BattleWazaNo, no );

  0039b	56		 push	 esi
  0039c	57		 push	 edi
  0039d	68 00 00 00 00	 push	 OFFSET ??_C@_07NMPJDMOK@W?$HM?$CFX?$HM?$CFX@

; 3088 : 					lssproto_B_send( sockfd, moji );
; 3089 : 					play_se( 217, 320, 240 );
; 3090 : 					break;

  003a2	e9 a9 00 00 00	 jmp	 $LN164@BattleTarg
$LN117@BattleTarg:

; 3091 : 				case PETSKILL_TARGET_WHOLEOTHERSIDE:
; 3092 : 					if (targetNo >= 0 && targetNo < 10)
; 3093 : 						no = 20;
; 3094 : 					else
; 3095 : 						no = 21;
; 3096 : 					sprintf(moji, "W|%X|%X", BattleWazaNo, no);

  003a7	b8 09 00 00 00	 mov	 eax, 9
  003ac	3b c2		 cmp	 eax, edx
  003ae	1b c0		 sbb	 eax, eax
  003b0	f7 d8		 neg	 eax
  003b2	83 c0 14	 add	 eax, 20			; 00000014H
  003b5	50		 push	 eax

; 3097 : 
; 3098 : 					if (bNewServer)
; 3099 : 						lssproto_B_send(sockfd, moji);
; 3100 : 					else
; 3101 : 						old_lssproto_B_send(sockfd, moji);
; 3102 : 
; 3103 : 					play_se(217, 320, 240);

  003b6	57		 push	 edi
  003b7	68 00 00 00 00	 push	 OFFSET ??_C@_07NMPJDMOK@W?$HM?$CFX?$HM?$CFX@
  003bc	e9 c9 fd ff ff	 jmp	 $LN168@BattleTarg
$LN120@BattleTarg:

; 3104 : 					break;
; 3105 : 
; 3106 : 				}			
; 3107 : 
; 3108 : 			
; 3109 : 				break;
; 3110 : 				
; 3111 : #ifdef _BATTLESKILL				// (不可开) Syu ADD 战斗技能介面
; 3112 : 				//Change note 职业技能选择对象后送出封包
; 3113 : 			case BATTLE_PROWAZA:
; 3114 : 				switch( profession_skill[prouseskill].target ){

  003c1	8b 0d 00 00 00
	00		 mov	 ecx, DWORD PTR ?prouseskill@@3HA ; prouseskill
  003c7	8d 04 49	 lea	 eax, DWORD PTR [ecx+ecx*2]
  003ca	c1 e0 06	 shl	 eax, 6
  003cd	0f bf 80 04 00
	00 00		 movsx	 eax, WORD PTR ?profession_skill@@3PAUPROFESSION_SKILL@@A[eax+4]
  003d4	83 f8 0b	 cmp	 eax, 11			; 0000000bH
  003d7	0f 87 a8 00 00
	00		 ja	 $LN10@BattleTarg
  003dd	0f b6 80 00 00
	00 00		 movzx	 eax, BYTE PTR $LN157@BattleTarg[eax]
  003e4	ff 24 85 00 00
	00 00		 jmp	 DWORD PTR $LN158@BattleTarg[eax*4]
$LN121@BattleTarg:

; 3115 : 				case PETSKILL_TARGET_MYSELF:
; 3116 : 				case PETSKILL_TARGET_OTHER:
; 3117 : 				case PETSKILL_TARGET_OTHERWITHOUTMYSELF:
; 3118 : 				case PETSKILL_TARGET_WITHOUTMYSELFANDPET:
; 3119 : 				case PETSKILL_TARGET_ONE_LINE:
; 3120 : #ifdef _BATTLESKILL
; 3121 : 				case PETSKILL_TARGER_DEATH:
; 3122 : #endif
; 3123 : 					sprintf( moji,"P|%X|%X", prouseskill, targetNo );

  003eb	52		 push	 edx

; 3124 : 					lssproto_B_send( sockfd, moji );
; 3125 : 					play_se( 217, 320, 240 );
; 3126 : 					break;

  003ec	eb 5c		 jmp	 SHORT $LN166@BattleTarg
$LN127@BattleTarg:

; 3127 : 				case PETSKILL_TARGET_ALLMYSIDE:
; 3128 : 					if( BattleMyNo < 10 ) no = 20;

  003ee	33 c0		 xor	 eax, eax
  003f0	83 3d 00 00 00
	00 0a		 cmp	 DWORD PTR ?BattleMyNo@@3HA, 10 ; BattleMyNo, 0000000aH
  003f7	0f 9d c0	 setge	 al
  003fa	83 c0 14	 add	 eax, 20			; 00000014H

; 3129 : 					else no = 21;
; 3130 : 					sprintf( moji,"P|%X|%X", prouseskill, no );

  003fd	50		 push	 eax

; 3131 : 					lssproto_B_send( sockfd, moji );
; 3132 : 					play_se( 217, 320, 240 );
; 3133 : 					break;

  003fe	eb 4a		 jmp	 SHORT $LN166@BattleTarg
$LN130@BattleTarg:

; 3134 : 				case PETSKILL_TARGET_ALLOTHERSIDE:
; 3135 : 					if( BattleMyNo < 10 ) no = 21;

  00400	33 c0		 xor	 eax, eax
  00402	83 3d 00 00 00
	00 0a		 cmp	 DWORD PTR ?BattleMyNo@@3HA, 10 ; BattleMyNo, 0000000aH
  00409	0f 9c c0	 setl	 al
  0040c	83 c0 14	 add	 eax, 20			; 00000014H

; 3136 : 					else no = 20;
; 3137 : 					sprintf( moji,"P|%X|%X", prouseskill, no );

  0040f	50		 push	 eax

; 3138 : 					lssproto_B_send( sockfd, moji );
; 3139 : 					play_se( 217, 320, 240 );
; 3140 : 					break;

  00410	eb 38		 jmp	 SHORT $LN166@BattleTarg
$LN133@BattleTarg:

; 3141 : 				case PETSKILL_TARGET_ALL:
; 3142 : 					sprintf( moji,"P|%X|%X", prouseskill, 22 );

  00412	6a 16		 push	 22			; 00000016H

; 3143 : 					lssproto_B_send( sockfd, moji );
; 3144 : 					play_se( 217, 320, 240 );
; 3145 : 					break;

  00414	eb 34		 jmp	 SHORT $LN166@BattleTarg
$LN134@BattleTarg:

; 3146 : 				case PETSKILL_TARGET_ONE_ROW:
; 3147 : #ifdef _SKILL_ADDBARRIER
; 3148 : 				case PETSKILL_TARGET_ONE_ROW_ALL:
; 3149 : #endif
; 3150 : 					if ( targetNo >= 0 && targetNo < 5 ) no = 26 ; 

  00416	85 d2		 test	 edx, edx
  00418	78 2f		 js	 SHORT $LN136@BattleTarg
  0041a	83 fa 05	 cmp	 edx, 5
  0041d	7d 07		 jge	 SHORT $LN145@BattleTarg
  0041f	be 1a 00 00 00	 mov	 esi, 26			; 0000001aH
  00424	eb 23		 jmp	 SHORT $LN136@BattleTarg
$LN145@BattleTarg:

; 3151 : 					if ( targetNo >= 5 && targetNo < 10 ) no = 25 ; 

  00426	83 fa 0a	 cmp	 edx, 10			; 0000000aH
  00429	7d 07		 jge	 SHORT $LN144@BattleTarg
  0042b	be 19 00 00 00	 mov	 esi, 25			; 00000019H
  00430	eb 17		 jmp	 SHORT $LN136@BattleTarg
$LN144@BattleTarg:

; 3152 : 					if ( targetNo >= 10 && targetNo < 15 ) no = 23 ; 

  00432	83 fa 0f	 cmp	 edx, 15			; 0000000fH
  00435	7d 07		 jge	 SHORT $LN143@BattleTarg
  00437	be 17 00 00 00	 mov	 esi, 23			; 00000017H
  0043c	eb 0b		 jmp	 SHORT $LN136@BattleTarg
$LN143@BattleTarg:

; 3153 : 					if ( targetNo >= 15 && targetNo < 20 ) no = 24 ; 

  0043e	83 fa 14	 cmp	 edx, 20			; 00000014H
  00441	b8 18 00 00 00	 mov	 eax, 24			; 00000018H
  00446	0f 4c f0	 cmovl	 esi, eax
$LN136@BattleTarg:

; 3154 : 					sprintf( moji,"P|%X|%X", prouseskill, no );

  00449	56		 push	 esi
$LN166@BattleTarg:

; 3155 : 					lssproto_B_send( sockfd, moji );
; 3156 : 					play_se( 217, 320, 240 );
; 3157 : 					break;
; 3158 : 				}
; 3159 : 
; 3160 : #endif
; 3161 : 			}
; 3162 : 
; 3163 : 			play_se( 203, 320, 240 );

  0044a	51		 push	 ecx
  0044b	68 00 00 00 00	 push	 OFFSET ??_C@_07NGDMDFPD@P?$HM?$CFX?$HM?$CFX@
$LN164@BattleTarg:
  00450	8d 85 fc fe ff
	ff		 lea	 eax, DWORD PTR _moji$[ebp]
  00456	50		 push	 eax
  00457	e8 00 00 00 00	 call	 _sprintf
  0045c	8d 85 fc fe ff
	ff		 lea	 eax, DWORD PTR _moji$[ebp]
  00462	50		 push	 eax
  00463	ff 35 00 00 00
	00		 push	 DWORD PTR ?sockfd@@3IA	; sockfd
  00469	e8 00 00 00 00	 call	 ?lssproto_B_send@@YAXHPAD@Z ; lssproto_B_send
  0046e	68 f0 00 00 00	 push	 240			; 000000f0H
  00473	68 40 01 00 00	 push	 320			; 00000140H
  00478	68 d9 00 00 00	 push	 217			; 000000d9H
  0047d	e8 00 00 00 00	 call	 ?play_se@@YAHHHH@Z	; play_se
  00482	83 c4 24	 add	 esp, 36			; 00000024H
$LN10@BattleTarg:
  00485	68 f0 00 00 00	 push	 240			; 000000f0H
  0048a	68 40 01 00 00	 push	 320			; 00000140H
  0048f	68 cb 00 00 00	 push	 203			; 000000cbH
  00494	e8 00 00 00 00	 call	 ?play_se@@YAHHHH@Z	; play_se

; 3164 : 
; 3165 : 			battleTargetSelectFlag = FALSE;
; 3166 : 
; 3167 : 			battleMenuReturn = TRUE;
; 3168 : 
; 3169 : 			DeathAction( pActInfoWnd );

  00499	ff 35 00 00 00
	00		 push	 DWORD PTR ?pActInfoWnd@@3PAUaction@@A
  0049f	c7 05 00 00 00
	00 00 00 00 00	 mov	 DWORD PTR ?battleTargetSelectFlag@@3HA, 0
  004a9	c7 05 00 00 00
	00 01 00 00 00	 mov	 DWORD PTR ?battleMenuReturn@@3HA, 1
  004b3	e8 00 00 00 00	 call	 ?DeathAction@@YAXPAUaction@@@Z ; DeathAction
  004b8	83 c4 10	 add	 esp, 16			; 00000010H

; 3170 : 			pActInfoWnd = NULL;

  004bb	c7 05 00 00 00
	00 00 00 00 00	 mov	 DWORD PTR ?pActInfoWnd@@3PAUaction@@A, 0
  004c5	5f		 pop	 edi
$LN22@BattleTarg:

; 3171 : 		}
; 3172 : 	}
; 3173 : }

  004c6	8b 4d fc	 mov	 ecx, DWORD PTR __$ArrayPad$[ebp]
  004c9	33 cd		 xor	 ecx, ebp
  004cb	5e		 pop	 esi
  004cc	e8 00 00 00 00	 call	 @__security_check_cookie@4
  004d1	8b e5		 mov	 esp, ebp
  004d3	5d		 pop	 ebp
  004d4	c3		 ret	 0
  004d5	0f 1f 00	 npad	 3
$LN152@BattleTarg:
  004d8	00 00 00 00	 DD	 $LN23@BattleTarg
  004dc	00 00 00 00	 DD	 $LN29@BattleTarg
  004e0	00 00 00 00	 DD	 $LN26@BattleTarg
  004e4	00 00 00 00	 DD	 $LN68@BattleTarg
  004e8	00 00 00 00	 DD	 $LN88@BattleTarg
  004ec	00 00 00 00	 DD	 $LN120@BattleTarg
$LN153@BattleTarg:
  004f0	00 00 00 00	 DD	 $LN30@BattleTarg
  004f4	00 00 00 00	 DD	 $LN30@BattleTarg
  004f8	00 00 00 00	 DD	 $LN50@BattleTarg
  004fc	00 00 00 00	 DD	 $LN43@BattleTarg
  00500	00 00 00 00	 DD	 $LN60@BattleTarg
  00504	00 00 00 00	 DD	 $LN10@BattleTarg
  00508	00 00 00 00	 DD	 $LN10@BattleTarg
  0050c	00 00 00 00	 DD	 $LN10@BattleTarg
  00510	00 00 00 00	 DD	 $LN63@BattleTarg
  00514	00 00 00 00	 DD	 $LN30@BattleTarg
  00518	00 00 00 00	 DD	 $LN33@BattleTarg
  0051c	00 00 00 00	 DD	 $LN43@BattleTarg
$LN154@BattleTarg:
  00520	00 00 00 00	 DD	 $LN69@BattleTarg
  00524	00 00 00 00	 DD	 $LN69@BattleTarg
  00528	00 00 00 00	 DD	 $LN75@BattleTarg
  0052c	00 00 00 00	 DD	 $LN80@BattleTarg
  00530	00 00 00 00	 DD	 $LN85@BattleTarg
  00534	00 00 00 00	 DD	 $LN10@BattleTarg
  00538	00 00 00 00	 DD	 $LN69@BattleTarg
  0053c	00 00 00 00	 DD	 $LN69@BattleTarg
$LN156@BattleTarg:
  00540	00 00 00 00	 DD	 $LN89@BattleTarg
  00544	00 00 00 00	 DD	 $LN96@BattleTarg
  00548	00 00 00 00	 DD	 $LN101@BattleTarg
  0054c	00 00 00 00	 DD	 $LN106@BattleTarg
  00550	00 00 00 00	 DD	 $LN109@BattleTarg
  00554	00 00 00 00	 DD	 $LN117@BattleTarg
  00558	00 00 00 00	 DD	 $LN10@BattleTarg
$LN155@BattleTarg:
  0055c	00		 DB	 0
  0055d	00		 DB	 0
  0055e	01		 DB	 1
  0055f	02		 DB	 2
  00560	03		 DB	 3
  00561	06		 DB	 6
  00562	00		 DB	 0
  00563	00		 DB	 0
  00564	04		 DB	 4
  00565	06		 DB	 6
  00566	00		 DB	 0
  00567	04		 DB	 4
  00568	05		 DB	 5
  00569	0f 1f 00	 npad	 3
$LN158@BattleTarg:
  0056c	00 00 00 00	 DD	 $LN121@BattleTarg
  00570	00 00 00 00	 DD	 $LN127@BattleTarg
  00574	00 00 00 00	 DD	 $LN130@BattleTarg
  00578	00 00 00 00	 DD	 $LN133@BattleTarg
  0057c	00 00 00 00	 DD	 $LN134@BattleTarg
  00580	00 00 00 00	 DD	 $LN10@BattleTarg
$LN157@BattleTarg:
  00584	00		 DB	 0
  00585	00		 DB	 0
  00586	01		 DB	 1
  00587	02		 DB	 2
  00588	03		 DB	 3
  00589	05		 DB	 5
  0058a	00		 DB	 0
  0058b	00		 DB	 0
  0058c	04		 DB	 4
  0058d	00		 DB	 0
  0058e	00		 DB	 0
  0058f	04		 DB	 4
?BattleTargetSelect@@YAXXZ ENDP				; BattleTargetSelect
_TEXT	ENDS
; Function compile flags: /Ogtp
; File \\VBOXSVR\_stoneage\repos\ssm-sacli\system\battleMenu.cpp
;	COMDAT ?BattleButtonWaza@@YAXXZ
_TEXT	SEGMENT
_x$1$ = -268						; size = 4
tv980 = -264						; size = 4
_i$2$ = -264						; size = 4
_moji$ = -260						; size = 256
__$ArrayPad$ = -4					; size = 4
?BattleButtonWaza@@YAXXZ PROC				; BattleButtonWaza, COMDAT

; 2538 : {

  00000	55		 push	 ebp
  00001	8b ec		 mov	 ebp, esp
  00003	81 ec 0c 01 00
	00		 sub	 esp, 268		; 0000010cH
  00009	a1 00 00 00 00	 mov	 eax, DWORD PTR ___security_cookie
  0000e	33 c5		 xor	 eax, ebp
  00010	89 45 fc	 mov	 DWORD PTR __$ArrayPad$[ebp], eax

; 2539 : 	int i, bak;
; 2540 : 	int x, y;
; 2541 : 	char moji[ 256 ];
; 2542 : 	if( HitDispNo == battleButtonDispNo[ 8 ] || battlePetButtonFlag == TRUE ){

  00013	a1 00 00 00 00	 mov	 eax, DWORD PTR ?HitDispNo@@3HA ; HitDispNo
  00018	3b 05 20 00 00
	00		 cmp	 eax, DWORD PTR ?battleButtonDispNo@@3PAHA+32
  0001e	a1 00 00 00 00	 mov	 eax, DWORD PTR ?battlePetButtonFlag@@3HA ; battlePetButtonFlag
  00023	56		 push	 esi
  00024	74 10		 je	 SHORT $LN20@BattleButt
  00026	83 f8 01	 cmp	 eax, 1
  00029	74 0b		 je	 SHORT $LN20@BattleButt
  0002b	8b 0d 00 00 00
	00		 mov	 ecx, DWORD PTR ?pActWnd@@3PAUaction@@A
  00031	e9 a7 00 00 00	 jmp	 $LN19@BattleButt
$LN20@BattleButt:

; 2543 : 		// ?????????
; 2544 : 		if( mouse.onceState & MOUSE_LEFT_CRICK || battlePetButtonFlag == TRUE ){

  00036	f6 05 2c 00 00
	00 01		 test	 BYTE PTR ?mouse@@3UMOUSE@@A+44, 1
  0003d	75 05		 jne	 SHORT $LN22@BattleButt
  0003f	83 f8 01	 cmp	 eax, 1
  00042	75 6f		 jne	 SHORT $LN103@BattleButt
$LN22@BattleButt:

; 2545 : 			bak = battleButtonFlag[ 8 ];	// ??????

  00044	8b 35 20 00 00
	00		 mov	 esi, DWORD PTR ?battleButtonFlag@@3PAHA+32

; 2546 : 			BattleButtonOff();				// ????????????

  0004a	e8 00 00 00 00	 call	 ?BattleButtonOff@@YAXXZ	; BattleButtonOff

; 2547 : 			// ?????????
; 2548 : 			if( bak == FALSE ){

  0004f	85 f6		 test	 esi, esi
  00051	75 60		 jne	 SHORT $LN103@BattleButt

; 2549 : 				// ?????????
; 2550 : 				battleButtonFlag[ 8 ] = TRUE; //打开技能选项盒
; 2551 : 				// ?????????
; 2552 : 				battleWazaTargetBak = -1;
; 2553 : 				// ?????
; 2554 : 				//BattleCmdNo = BATTLE_WAZA;
; 2555 : 				// ????????
; 2556 : 				for( i = 0 ; i < BATTLE_MENU_WAZA_FONTS ; i++ ) battleMenuWazaFontNo[ i ] = -2;

  00053	0f 28 05 00 00
	00 00		 movaps	 xmm0, XMMWORD PTR __xmm@fffffffefffffffefffffffefffffffe

; 2557 : 				// ?????????
; 2558 : 				pActWnd = MakeWindowDisp( 364, 96, 272, 348, 0, -1 );

  0005a	6a ff		 push	 -1
  0005c	56		 push	 esi
  0005d	68 5c 01 00 00	 push	 348			; 0000015cH
  00062	68 10 01 00 00	 push	 272			; 00000110H
  00067	0f 11 05 00 00
	00 00		 movups	 XMMWORD PTR ?battleMenuWazaFontNo@@3PAHA, xmm0
  0006e	6a 60		 push	 96			; 00000060H
  00070	0f 28 05 00 00
	00 00		 movaps	 xmm0, XMMWORD PTR __xmm@fffffffefffffffefffffffefffffffe
  00077	68 6c 01 00 00	 push	 364			; 0000016cH
  0007c	c7 05 20 00 00
	00 01 00 00 00	 mov	 DWORD PTR ?battleButtonFlag@@3PAHA+32, 1
  00086	c7 05 00 00 00
	00 ff ff ff ff	 mov	 DWORD PTR ?battleWazaTargetBak@@3HA, -1 ; battleWazaTargetBak
  00090	0f 11 05 10 00
	00 00		 movups	 XMMWORD PTR ?battleMenuWazaFontNo@@3PAHA+16, xmm0
  00097	c7 05 20 00 00
	00 fe ff ff ff	 mov	 DWORD PTR ?battleMenuWazaFontNo@@3PAHA+32, -2 ; fffffffeH
  000a1	e8 00 00 00 00	 call	 ?MakeWindowDisp@@YAPAUaction@@HHHHHH@Z ; MakeWindowDisp
  000a6	8b c8		 mov	 ecx, eax
  000a8	83 c4 18	 add	 esp, 24			; 00000018H
  000ab	89 0d 00 00 00
	00		 mov	 DWORD PTR ?pActWnd@@3PAUaction@@A, ecx
  000b1	eb 06		 jmp	 SHORT $LN23@BattleButt
$LN103@BattleButt:

; 2547 : 			// ?????????
; 2548 : 			if( bak == FALSE ){

  000b3	8b 0d 00 00 00
	00		 mov	 ecx, DWORD PTR ?pActWnd@@3PAUaction@@A
$LN23@BattleButt:

; 2559 : 			}
; 2560 : 		}
; 2561 : 		// ?????????
; 2562 : 		battlePetButtonFlag = FALSE;
; 2563 : 		// ??????				 
; 2564 : 		strcpy( OneLineInfoStr, "기능을 사용하다。");

  000b9	0f 10 05 00 00
	00 00		 movups	 xmm0, XMMWORD PTR ??_C@_0BC@EMOKBAPI@?$LB?b?$LE?I?$MA?$LL?5?$LL?g?$LP?k?G?O?$LE?Y?$KB?$KD@
  000c0	66 a1 10 00 00
	00		 mov	 ax, WORD PTR ??_C@_0BC@EMOKBAPI@?$LB?b?$LE?I?$MA?$LL?5?$LL?g?$LP?k?G?O?$LE?Y?$KB?$KD@+16
  000c6	c7 05 00 00 00
	00 00 00 00 00	 mov	 DWORD PTR ?battlePetButtonFlag@@3HA, 0 ; battlePetButtonFlag
  000d0	0f 11 05 00 00
	00 00		 movups	 XMMWORD PTR ?OneLineInfoStr@@3PADA, xmm0
  000d7	66 a3 10 00 00
	00		 mov	 WORD PTR ?OneLineInfoStr@@3PADA+16, ax
$LN19@BattleButt:

; 2565 : 	}
; 2566 : 	// ????????
; 2567 : 	if( battleButtonFlag[ 8 ] == TRUE ){

  000dd	83 3d 20 00 00
	00 01		 cmp	 DWORD PTR ?battleButtonFlag@@3PAHA+32, 1
  000e4	0f 85 81 04 00
	00		 jne	 $LN47@BattleButt

; 2568 : 		// ?????????
; 2569 : 		if( pActWnd != NULL ){

  000ea	85 c9		 test	 ecx, ecx
  000ec	0f 84 79 04 00
	00		 je	 $LN47@BattleButt

; 2570 : 			// ??????????????
; 2571 : 			if( pActWnd->hp > 0 ){

  000f2	83 79 78 00	 cmp	 DWORD PTR [ecx+120], 0
  000f6	0f 8e 6f 04 00
	00		 jle	 $LN47@BattleButt

; 2572 : 				// ?????????
; 2573 : 				StockDispBuffer( ( ( WINDOW_DISP *)pActWnd->pYobi )->mx, ( ( WINDOW_DISP *)pActWnd->pYobi )->my, DISP_PRIO_MENU, CG_PET_WAZA_WND, 1 );

  000fc	8b 41 0c	 mov	 eax, DWORD PTR [ecx+12]
  000ff	6a 01		 push	 1
  00101	ff 35 00 00 00
	00		 push	 DWORD PTR ?CG_PET_WAZA_WND@@3HA ; CG_PET_WAZA_WND
  00107	6a 68		 push	 104			; 00000068H
  00109	ff 70 18	 push	 DWORD PTR [eax+24]
  0010c	ff 70 14	 push	 DWORD PTR [eax+20]
  0010f	e8 00 00 00 00	 call	 ?StockDispBuffer@@YAHHHEHH@Z ; StockDispBuffer

; 2574 : 				// ?????????
; 2575 : 				for( i = 0 ; i < pet[ battlePetNoBak ].maxSkill ; i++ ){

  00114	8b 0d 00 00 00
	00		 mov	 ecx, DWORD PTR ?battlePetNoBak@@3HA ; battlePetNoBak
  0011a	33 f6		 xor	 esi, esi
  0011c	69 c1 78 0b 00
	00		 imul	 eax, ecx, 2936
  00122	83 c4 14	 add	 esp, 20			; 00000014H
  00125	39 b0 44 00 00
	00		 cmp	 DWORD PTR ?pet@@3PAUPET@@A[eax+68], esi
  0012b	7e 39		 jle	 SHORT $LN6@BattleButt
  0012d	0f 1f 00	 npad	 3
$LL7@BattleButt:

; 2576 : 					// ?????
; 2577 : 					StockDispBuffer( ( ( WINDOW_DISP *)pActWnd->pYobi )->mx, ( ( WINDOW_DISP *)pActWnd->pYobi )->my, DISP_PRIO_IME3, CG_PET_WAZA_BAR_1 + i, 1 );

  00130	a1 00 00 00 00	 mov	 eax, DWORD PTR ?pActWnd@@3PAUaction@@A
  00135	6a 01		 push	 1
  00137	8b 48 0c	 mov	 ecx, DWORD PTR [eax+12]
  0013a	8d 86 13 66 00
	00		 lea	 eax, DWORD PTR [esi+26131]
  00140	50		 push	 eax
  00141	6a 69		 push	 105			; 00000069H
  00143	ff 71 18	 push	 DWORD PTR [ecx+24]
  00146	ff 71 14	 push	 DWORD PTR [ecx+20]
  00149	e8 00 00 00 00	 call	 ?StockDispBuffer@@YAHHHEHH@Z ; StockDispBuffer
  0014e	8b 0d 00 00 00
	00		 mov	 ecx, DWORD PTR ?battlePetNoBak@@3HA ; battlePetNoBak
  00154	46		 inc	 esi
  00155	69 c1 78 0b 00
	00		 imul	 eax, ecx, 2936
  0015b	83 c4 14	 add	 esp, 20			; 00000014H
  0015e	3b b0 44 00 00
	00		 cmp	 esi, DWORD PTR ?pet@@3PAUPET@@A[eax+68]
  00164	7c ca		 jl	 SHORT $LL7@BattleButt
$LN6@BattleButt:

; 2578 : 				}
; 2579 : 				// ????????
; 2580 : 				if( mouse.onceState & MOUSE_LEFT_CRICK ){

  00166	f6 05 2c 00 00
	00 01		 test	 BYTE PTR ?mouse@@3UMOUSE@@A+44, 1
  0016d	74 18		 je	 SHORT $LN28@BattleButt

; 2581 : 					// ????????
; 2582 : 					if( HitDispNo == battleMenuWazaFontNo[ 7 ] ){

  0016f	a1 00 00 00 00	 mov	 eax, DWORD PTR ?HitDispNo@@3HA ; HitDispNo
  00174	3b 05 1c 00 00
	00		 cmp	 eax, DWORD PTR ?battleMenuWazaFontNo@@3PAHA+28
  0017a	75 0b		 jne	 SHORT $LN28@BattleButt

; 2583 : 						// ????????????
; 2584 : 						BattleButtonOff();				

  0017c	e8 00 00 00 00	 call	 ?BattleButtonOff@@YAXXZ	; BattleButtonOff
  00181	8b 0d 00 00 00
	00		 mov	 ecx, DWORD PTR ?battlePetNoBak@@3HA ; battlePetNoBak
$LN28@BattleButt:

; 2585 : 					}
; 2586 : 				}
; 2587 : 				// ????????
; 2588 : 				if( pActWnd != NULL ){

  00187	8b 15 00 00 00
	00		 mov	 edx, DWORD PTR ?pActWnd@@3PAUaction@@A
  0018d	85 d2		 test	 edx, edx
  0018f	0f 84 d6 03 00
	00		 je	 $LN47@BattleButt

; 2589 : 					// ?
; 2590 : 					x = pActWnd->x + 32;

  00195	8b 42 18	 mov	 eax, DWORD PTR [edx+24]
  00198	83 c0 20	 add	 eax, 32			; 00000020H
  0019b	89 85 f4 fe ff
	ff		 mov	 DWORD PTR _x$1$[ebp], eax

; 2591 : 					y = pActWnd->y + 252;
; 2592 : 					// ?
; 2593 : 					for( i = 0 ; i < pet[ battlePetNoBak ].maxSkill ; i++ ){

  001a1	69 c1 78 0b 00
	00		 imul	 eax, ecx, 2936
  001a7	53		 push	 ebx
  001a8	57		 push	 edi
  001a9	8b 7a 1c	 mov	 edi, DWORD PTR [edx+28]
  001ac	33 db		 xor	 ebx, ebx
  001ae	81 c7 fc 00 00
	00		 add	 edi, 252		; 000000fcH
  001b4	89 9d f8 fe ff
	ff		 mov	 DWORD PTR _i$2$[ebp], ebx
  001ba	39 98 44 00 00
	00		 cmp	 DWORD PTR ?pet@@3PAUPET@@A[eax+68], ebx
  001c0	0f 8e 37 02 00
	00		 jle	 $LN9@BattleButt
  001c6	66 66 0f 1f 84
	00 00 00 00 00	 npad	 10
$LL10@BattleButt:

; 2594 : 						// ????????
; 2595 : 						if( petSkill[ battlePetNoBak ][ i ].useFlag == TRUE ){

  001d0	8d 04 cd 00 00
	00 00		 lea	 eax, DWORD PTR [ecx*8]
  001d7	2b c1		 sub	 eax, ecx
  001d9	03 c3		 add	 eax, ebx
  001db	6b d0 6a	 imul	 edx, eax, 106
  001de	66 83 ba 00 00
	00 00 01	 cmp	 WORD PTR ?petSkill@@3PAY06UPET_SKILL@@A[edx], 1
  001e6	0f 85 f2 01 00
	00		 jne	 $LN8@BattleButt

; 2596 : 							if( HitFontNo == battleMenuWazaFontNo[ i ] ){

  001ec	a1 00 00 00 00	 mov	 eax, DWORD PTR ?HitFontNo@@3HA ; HitFontNo
  001f1	3b 04 9d 00 00
	00 00		 cmp	 eax, DWORD PTR ?battleMenuWazaFontNo@@3PAHA[ebx*4]
  001f8	0f 85 e0 01 00
	00		 jne	 $LN8@BattleButt

; 2597 : 								// ??????
; 2598 : 								char *splitPoint = petSkill[ battlePetNoBak ][ i ].memo;

  001fe	8d b2 21 00 00
	00		 lea	 esi, DWORD PTR ?petSkill@@3PAY06UPET_SKILL@@A[edx+33]

; 2599 : 								// ?????
; 2600 : 								while( 1 ){
; 2601 : 									// ?????????
; 2602 : 									if( strlen( splitPoint ) > 24 ){

  00204	8b ce		 mov	 ecx, esi
  00206	8d 51 01	 lea	 edx, DWORD PTR [ecx+1]
  00209	0f 1f 80 00 00
	00 00		 npad	 7
$LL101@BattleButt:
  00210	8a 01		 mov	 al, BYTE PTR [ecx]
  00212	41		 inc	 ecx
  00213	84 c0		 test	 al, al
  00215	75 f9		 jne	 SHORT $LL101@BattleButt
  00217	2b ca		 sub	 ecx, edx
  00219	83 f9 18	 cmp	 ecx, 24			; 00000018H
  0021c	0f 86 87 00 00
	00		 jbe	 $LN32@BattleButt
  00222	8b 9d f4 fe ff
	ff		 mov	 ebx, DWORD PTR _x$1$[ebp]
  00228	0f 1f 84 00 00
	00 00 00	 npad	 8
$LL11@BattleButt:

; 2603 : 										strncpy( moji, splitPoint, 24 );

  00230	6a 18		 push	 24			; 00000018H
  00232	8d 85 fc fe ff
	ff		 lea	 eax, DWORD PTR _moji$[ebp]
  00238	56		 push	 esi
  00239	50		 push	 eax
  0023a	e8 00 00 00 00	 call	 _strncpy

; 2604 : 										moji[ 24 ] = NULL;	// ??????
; 2605 : 										// ??????
; 2606 : 										if( GetStrLastByte( moji ) == 3 ){

  0023f	8d 85 fc fe ff
	ff		 lea	 eax, DWORD PTR _moji$[ebp]
  00245	c6 85 14 ff ff
	ff 00		 mov	 BYTE PTR _moji$[ebp+24], 0
  0024c	50		 push	 eax
  0024d	e8 00 00 00 00	 call	 ?GetStrLastByte@@YAHPAD@Z ; GetStrLastByte
  00252	83 c4 10	 add	 esp, 16			; 00000010H
  00255	83 f8 03	 cmp	 eax, 3
  00258	75 0e		 jne	 SHORT $LN34@BattleButt

; 2607 : 											moji[ 23 ] = NULL;

  0025a	c6 85 13 ff ff
	ff 00		 mov	 BYTE PTR _moji$[ebp+23], 0

; 2608 : 											splitPoint += 23;

  00261	b8 17 00 00 00	 mov	 eax, 23			; 00000017H

; 2609 : 										}else{

  00266	eb 0c		 jmp	 SHORT $LN35@BattleButt
$LN34@BattleButt:

; 2610 : 											moji[ 24 ] = NULL;

  00268	c6 85 14 ff ff
	ff 00		 mov	 BYTE PTR _moji$[ebp+24], 0

; 2611 : 											splitPoint += 24;

  0026f	b8 18 00 00 00	 mov	 eax, 24			; 00000018H
$LN35@BattleButt:

; 2612 : 										}
; 2613 : 										StockFontBuffer( x, y, FONT_PRIO_FRONT, 0, moji, 0 ); y += 20;

  00274	6a 00		 push	 0
  00276	03 f0		 add	 esi, eax
  00278	8d 85 fc fe ff
	ff		 lea	 eax, DWORD PTR _moji$[ebp]
  0027e	50		 push	 eax
  0027f	6a 00		 push	 0
  00281	6a 01		 push	 1
  00283	57		 push	 edi
  00284	53		 push	 ebx
  00285	e8 00 00 00 00	 call	 ?StockFontBuffer@@YAHHHDHPADH@Z ; StockFontBuffer
  0028a	8b c6		 mov	 eax, esi
  0028c	83 c4 18	 add	 esp, 24			; 00000018H
  0028f	83 c7 14	 add	 edi, 20			; 00000014H
  00292	8d 50 01	 lea	 edx, DWORD PTR [eax+1]
$LL102@BattleButt:

; 2599 : 								// ?????
; 2600 : 								while( 1 ){
; 2601 : 									// ?????????
; 2602 : 									if( strlen( splitPoint ) > 24 ){

  00295	8a 08		 mov	 cl, BYTE PTR [eax]
  00297	40		 inc	 eax
  00298	84 c9		 test	 cl, cl
  0029a	75 f9		 jne	 SHORT $LL102@BattleButt
  0029c	2b c2		 sub	 eax, edx
  0029e	83 f8 18	 cmp	 eax, 24			; 00000018H
  002a1	77 8d		 ja	 SHORT $LL11@BattleButt
  002a3	8b 9d f8 fe ff
	ff		 mov	 ebx, DWORD PTR _i$2$[ebp]
$LN32@BattleButt:

; 2614 : 									}else{
; 2615 : 										strcpy( moji, splitPoint );

  002a9	8d 8d fc fe ff
	ff		 lea	 ecx, DWORD PTR _moji$[ebp]
  002af	2b ce		 sub	 ecx, esi
$LL61@BattleButt:
  002b1	8a 06		 mov	 al, BYTE PTR [esi]
  002b3	8d 76 01	 lea	 esi, DWORD PTR [esi+1]
  002b6	88 44 31 ff	 mov	 BYTE PTR [ecx+esi-1], al
  002ba	84 c0		 test	 al, al
  002bc	75 f3		 jne	 SHORT $LL61@BattleButt

; 2616 : 										StockFontBuffer( x, y, FONT_PRIO_FRONT, 0, moji, 0 );

  002be	6a 00		 push	 0
  002c0	8d 85 fc fe ff
	ff		 lea	 eax, DWORD PTR _moji$[ebp]
  002c6	50		 push	 eax
  002c7	6a 00		 push	 0
  002c9	6a 01		 push	 1
  002cb	57		 push	 edi
  002cc	ff b5 f4 fe ff
	ff		 push	 DWORD PTR _x$1$[ebp]
  002d2	e8 00 00 00 00	 call	 ?StockFontBuffer@@YAHHHDHPADH@Z ; StockFontBuffer

; 2617 : 										break;
; 2618 : 									}
; 2619 : 								}
; 2620 : 								// ????????
; 2621 : 								if( mouse.onceState & MOUSE_LEFT_CRICK ){

  002d7	8b 0d 00 00 00
	00		 mov	 ecx, DWORD PTR ?battlePetNoBak@@3HA ; battlePetNoBak
  002dd	83 c4 18	 add	 esp, 24			; 00000018H
  002e0	f6 05 2c 00 00
	00 01		 test	 BYTE PTR ?mouse@@3UMOUSE@@A+44, 1
  002e7	0f 84 f1 00 00
	00		 je	 $LN8@BattleButt

; 2622 : 									// ????
; 2623 : 									if(	petSkill[ battlePetNoBak ][ i ].field != PETSKILL_FIELD_MAP ){

  002ed	8d 04 cd 00 00
	00 00		 lea	 eax, DWORD PTR [ecx*8]
  002f4	2b c1		 sub	 eax, ecx
  002f6	03 c3		 add	 eax, ebx
  002f8	6b d0 6a	 imul	 edx, eax, 106
  002fb	69 c1 78 0b 00
	00		 imul	 eax, ecx, 2936
  00301	66 83 ba 04 00
	00 00 02	 cmp	 WORD PTR ?petSkill@@3PAY06UPET_SKILL@@A[edx+4], 2
  00309	74 2e		 je	 SHORT $LN37@BattleButt

; 2624 : #ifdef _VARY_WOLF
; 2625 : 										if(!((pet[battlePetNoBak].graNo==101428)&&(petSkill[battlePetNoBak][i].skillId==600))

  0030b	81 b8 04 00 00
	00 34 8c 01 00	 cmp	 DWORD PTR ?pet@@3PAUPET@@A[eax+4], 101428 ; 00018c34H
  00315	75 12		 jne	 SHORT $LN40@BattleButt
  00317	be 58 02 00 00	 mov	 esi, 600		; 00000258H
  0031c	66 39 b2 02 00
	00 00		 cmp	 WORD PTR ?petSkill@@3PAY06UPET_SKILL@@A[edx+2], si
  00323	0f 84 b5 00 00
	00		 je	 $LN8@BattleButt
$LN40@BattleButt:

; 2626 : 											)
; 2627 : #endif
; 2628 : 											// ??????????????
; 2629 : #ifdef _BATTLESKILL				// (不可开) Syu ADD 战斗技能介面
; 2630 : 											BattleSetWazaHitBox( i , 0 ) ; 

  00329	6a 00		 push	 0
  0032b	53		 push	 ebx
  0032c	e8 00 00 00 00	 call	 ?BattleSetWazaHitBox@@YAXHH@Z ; BattleSetWazaHitBox
  00331	83 c4 08	 add	 esp, 8

; 2631 : #else
; 2632 : 										BattleSetWazaHitBox( i );
; 2633 : #endif
; 2634 : 									}else{

  00334	e9 9f 00 00 00	 jmp	 $LN110@BattleButt
$LN37@BattleButt:

; 2636 : 										int j;
; 2637 : 										// ?????????????????
; 2638 : 										for( j = 0 ; j < pet[ battlePetNoBak ].maxSkill ; j++ ){

  00339	8b b0 44 00 00
	00		 mov	 esi, DWORD PTR ?pet@@3PAUPET@@A[eax+68]
  0033f	33 d2		 xor	 edx, edx
  00341	85 f6		 test	 esi, esi
  00343	7e 3b		 jle	 SHORT $LN43@BattleButt

; 2635 : 										int flag = 0;

  00345	69 c1 e6 02 00
	00		 imul	 eax, ecx, 742
  0034b	05 04 00 00 00	 add	 eax, OFFSET ?petSkill@@3PAY06UPET_SKILL@@A+4
$LL74@BattleButt:

; 2639 : 											// ????????
; 2640 : 											if( petSkill[ battlePetNoBak ][ j ].useFlag == TRUE ){

  00350	66 83 78 fc 01	 cmp	 WORD PTR [eax-4], 1
  00355	75 07		 jne	 SHORT $LN75@BattleButt

; 2641 : 												// ????
; 2642 : 												if(	petSkill[ battlePetNoBak ][ j ].field != PETSKILL_FIELD_MAP ) flag++;

  00357	66 83 38 02	 cmp	 WORD PTR [eax], 2
  0035b	74 01		 je	 SHORT $LN75@BattleButt
  0035d	42		 inc	 edx
$LN75@BattleButt:

; 2636 : 										int j;
; 2637 : 										// ?????????????????
; 2638 : 										for( j = 0 ; j < pet[ battlePetNoBak ].maxSkill ; j++ ){

  0035e	83 c0 6a	 add	 eax, 106		; 0000006aH
  00361	83 ee 01	 sub	 esi, 1
  00364	75 ea		 jne	 SHORT $LL74@BattleButt

; 2643 : 											}
; 2644 : 										}
; 2645 : 										// ??????????
; 2646 : 										if( flag > 0 ){

  00366	85 d2		 test	 edx, edx
  00368	7e 16		 jle	 SHORT $LN43@BattleButt

; 2647 : 											// ???
; 2648 : 											play_se( 220, 320, 240 );

  0036a	68 f0 00 00 00	 push	 240			; 000000f0H
  0036f	68 40 01 00 00	 push	 320			; 00000140H
  00374	68 dc 00 00 00	 push	 220			; 000000dcH
  00379	e8 00 00 00 00	 call	 ?play_se@@YAHHHH@Z	; play_se

; 2649 : 										}

  0037e	eb 55		 jmp	 SHORT $LN111@BattleButt
$LN43@BattleButt:

; 2650 : 										// ??????
; 2651 : 										else{
; 2652 : 											BattleButtonOff(); // ????????????

  00380	e8 00 00 00 00	 call	 ?BattleButtonOff@@YAXXZ	; BattleButtonOff

; 2653 : 											//battleMenuReturn = TRUE;
; 2654 : 											ClearBoxFlag();

  00385	e8 00 00 00 00	 call	 ?ClearBoxFlag@@YAXXZ	; ClearBoxFlag

; 2655 : 											// ???????????
; 2656 : 											if( bNewServer)

  0038a	83 3d 00 00 00
	00 00		 cmp	 DWORD PTR ?bNewServer@@3HA, 0 ; bNewServer
  00391	68 00 00 00 00	 push	 OFFSET ??_C@_07BDJJCCFL@W?$HMFF?$HMFF@
  00396	ff 35 00 00 00
	00		 push	 DWORD PTR ?sockfd@@3IA	; sockfd
  0039c	74 07		 je	 SHORT $LN45@BattleButt

; 2657 : 												lssproto_B_send( sockfd, "W|FF|FF" );

  0039e	e8 00 00 00 00	 call	 ?lssproto_B_send@@YAXHPAD@Z ; lssproto_B_send
  003a3	eb 05		 jmp	 SHORT $LN109@BattleButt
$LN45@BattleButt:

; 2658 : 											else
; 2659 : 												old_lssproto_B_send( sockfd, "W|FF|FF" );

  003a5	e8 00 00 00 00	 call	 ?old_lssproto_B_send@@YAXHPAD@Z ; old_lssproto_B_send
$LN109@BattleButt:

; 2660 : 											// ????????
; 2661 : 											play_se( 203, 320, 240 );

  003aa	83 c4 08	 add	 esp, 8
  003ad	68 f0 00 00 00	 push	 240			; 000000f0H
  003b2	68 40 01 00 00	 push	 320			; 00000140H
  003b7	68 cb 00 00 00	 push	 203			; 000000cbH
  003bc	e8 00 00 00 00	 call	 ?play_se@@YAHHHH@Z	; play_se

; 2662 : 											// ????????
; 2663 : 											battleWazaTargetBak = -1;

  003c1	c7 05 00 00 00
	00 ff ff ff ff	 mov	 DWORD PTR ?battleWazaTargetBak@@3HA, -1 ; battleWazaTargetBak

; 2664 : 											// ??????????????
; 2665 : 											battleTargetSelectFlag = FALSE;

  003cb	c7 05 00 00 00
	00 00 00 00 00	 mov	 DWORD PTR ?battleTargetSelectFlag@@3HA, 0
$LN111@BattleButt:

; 2591 : 					y = pActWnd->y + 252;
; 2592 : 					// ?
; 2593 : 					for( i = 0 ; i < pet[ battlePetNoBak ].maxSkill ; i++ ){

  003d5	83 c4 0c	 add	 esp, 12			; 0000000cH
$LN110@BattleButt:
  003d8	8b 0d 00 00 00
	00		 mov	 ecx, DWORD PTR ?battlePetNoBak@@3HA ; battlePetNoBak
$LN8@BattleButt:
  003de	69 c1 78 0b 00
	00		 imul	 eax, ecx, 2936
  003e4	43		 inc	 ebx
  003e5	89 9d f8 fe ff
	ff		 mov	 DWORD PTR _i$2$[ebp], ebx
  003eb	3b 98 44 00 00
	00		 cmp	 ebx, DWORD PTR ?pet@@3PAUPET@@A[eax+68]
  003f1	0f 8c d9 fd ff
	ff		 jl	 $LL10@BattleButt
  003f7	8b 15 00 00 00
	00		 mov	 edx, DWORD PTR ?pActWnd@@3PAUaction@@A
$LN9@BattleButt:

; 2666 : 										}
; 2667 : 									}
; 2668 : 								}
; 2669 : 							}
; 2670 : 						}
; 2671 : 					}
; 2672 : /*
; 2673 : #ifndef __AI
; 2674 : 					//cary 宠物的自动战斗
; 2675 : 					if( !PauseAI && AI!=AI_NONE && FALSE==battleTargetSelectFlag){
; 2676 : 						if( (BattleIntervalCnt==0 && (BattleCntDown-TimeGetTime())<=29000) || BattleIntervalCnt<TimeGetTime()){
; 2677 : 							BattleIntervalCnt = TimeGetTime()+500;
; 2678 : 							int first = -1;
; 2679 : 							int firstattack = -1;
; 2680 : 							DWORD ai = AI;
; 2681 : 							if( ai == AI_SELECT){
; 2682 : 								if( pet[ battlePetNoBak ].maxHp*3/10 > pet[ battlePetNoBak ].hp)
; 2683 : 									ai = AI_GUARD;
; 2684 : 								else
; 2685 : 									ai = AI_ATTACK;
; 2686 : 							}
; 2687 : 							for( i = 0 ; i < pet[ battlePetNoBak ].maxSkill ; i++ ){
; 2688 : 								if( petSkill[ battlePetNoBak ][ i ].useFlag == TRUE && 
; 2689 : 									petSkill[ battlePetNoBak ][ i ].field != PETSKILL_FIELD_MAP ){
; 2690 : 									if( first == -1)
; 2691 : 										first = i;
; 2692 : 									if( ai == AI_ATTACK){
; 2693 : 										if( petSkill[ battlePetNoBak ][ i ].skillId!=2 && firstattack==-1)
; 2694 : 											firstattack = i;
; 2695 : 										if( petSkill[ battlePetNoBak ][ i ].skillId == 1){
; 2696 : #ifdef _BATTLESKILL				// (不可开) Syu ADD 战斗技能介面
; 2697 : 											BattleSetWazaHitBox( i , 0 );
; 2698 : 
; 2699 : #else
; 2700 : 											BattleSetWazaHitBox( i );
; 2701 : #endif
; 2702 : 											break;
; 2703 : 										}
; 2704 : 									}else if( ai == AI_GUARD){
; 2705 : 										if( petSkill[ battlePetNoBak ][ i ].skillId == 2){
; 2706 : #ifdef _BATTLESKILL				// (不可开) Syu ADD 战斗技能介面
; 2707 : 											BattleSetWazaHitBox( i , 0 );
; 2708 : #else
; 2709 : 											BattleSetWazaHitBox( i );
; 2710 : #endif
; 2711 : 											break;
; 2712 : 										}
; 2713 : 									}
; 2714 : 								}
; 2715 : 							}
; 2716 : 							if( i==pet[ battlePetNoBak ].maxSkill){
; 2717 : 								if( ai==AI_ATTACK && firstattack!=-1)
; 2718 : 									first = firstattack;
; 2719 : 								if( first == -1){
; 2720 : 									// ??????????????
; 2721 : 									battleTargetSelectFlag = TRUE;
; 2722 : 									// ???????????
; 2723 : 									DeathAction( pActWnd );
; 2724 : 									pActWnd = NULL;
; 2725 : 									// ?????????
; 2726 : 									ClearBattleButton();
; 2727 : 									// ?????
; 2728 : 									//play_se( 217, 320, 240 );
; 2729 : 								}else
; 2730 : #ifdef _BATTLESKILL				// (不可开) Syu ADD 战斗技能介面
; 2731 : 									BattleSetWazaHitBox( first , 0 );
; 2732 : #else
; 2733 : 									BattleSetWazaHitBox( first );
; 2734 : #endif
; 2735 : 							}
; 2736 : 						}
; 2737 : 					}
; 2738 : #endif
; 2739 : */
; 2740 : 					// ?????????
; 2741 : 					if( pActWnd != NULL ){

  003fd	85 d2		 test	 edx, edx
  003ff	0f 84 64 01 00
	00		 je	 $LN107@BattleButt

; 2742 : 						// ?
; 2743 : 						x = pActWnd->x + 40;
; 2744 : 						y = pActWnd->y + 32;

  00405	8b 7a 1c	 mov	 edi, DWORD PTR [edx+28]

; 2745 : 						// ??????
; 2746 : 						if( pet[ battlePetNoBak ].freeName[ 0 ] != NULL )
; 2747 : 							CenteringStr( pet[ battlePetNoBak ].freeName, moji, PET_NAME_LEN );
; 2748 : 						else
; 2749 : 							CenteringStr( pet[ battlePetNoBak ].name, moji, PET_NAME_LEN );
; 2750 : 							StockFontBuffer( x - 28, y, FONT_PRIO_FRONT, 0, moji, 0 ); y += 26; x += 18;

  00408	8d 85 fc fe ff
	ff		 lea	 eax, DWORD PTR _moji$[ebp]
  0040e	8b 5a 18	 mov	 ebx, DWORD PTR [edx+24]
  00411	83 c7 20	 add	 edi, 32			; 00000020H
  00414	69 c9 78 0b 00
	00		 imul	 ecx, ecx, 2936
  0041a	ba 65 00 00 00	 mov	 edx, OFFSET ?pet@@3PAUPET@@A+101
  0041f	6a 10		 push	 16			; 00000010H
  00421	50		 push	 eax
  00422	b8 54 00 00 00	 mov	 eax, OFFSET ?pet@@3PAUPET@@A+84
  00427	89 9d f8 fe ff
	ff		 mov	 DWORD PTR tv980[ebp], ebx
  0042d	80 b9 65 00 00
	00 00		 cmp	 BYTE PTR ?pet@@3PAUPET@@A[ecx+101], 0
  00434	0f 45 c2	 cmovne	 eax, edx
  00437	03 c1		 add	 eax, ecx
  00439	50		 push	 eax
  0043a	e8 00 00 00 00	 call	 ?CenteringStr@@YAXPAD0H@Z ; CenteringStr
  0043f	6a 00		 push	 0
  00441	8d 85 fc fe ff
	ff		 lea	 eax, DWORD PTR _moji$[ebp]
  00447	50		 push	 eax
  00448	6a 00		 push	 0
  0044a	6a 01		 push	 1
  0044c	8d 43 0c	 lea	 eax, DWORD PTR [ebx+12]
  0044f	57		 push	 edi
  00450	50		 push	 eax
  00451	e8 00 00 00 00	 call	 ?StockFontBuffer@@YAHHHDHPADH@Z ; StockFontBuffer

; 2751 : 						// ?
; 2752 : 						for( i = 0 ; i < pet[ battlePetNoBak ].maxSkill ; i++ ){

  00456	8b 0d 00 00 00
	00		 mov	 ecx, DWORD PTR ?battlePetNoBak@@3HA ; battlePetNoBak
  0045c	33 f6		 xor	 esi, esi
  0045e	69 c1 78 0b 00
	00		 imul	 eax, ecx, 2936
  00464	83 c4 24	 add	 esp, 36			; 00000024H
  00467	83 c7 1a	 add	 edi, 26			; 0000001aH
  0046a	39 b0 44 00 00
	00		 cmp	 DWORD PTR ?pet@@3PAUPET@@A[eax+68], esi
  00470	0f 8e c8 00 00
	00		 jle	 $LN17@BattleButt
  00476	66 66 0f 1f 84
	00 00 00 00 00	 npad	 10
$LL18@BattleButt:

; 2753 : 							// ????????
; 2754 : 							if( petSkill[ battlePetNoBak ][ i ].useFlag == TRUE ){

  00480	8d 04 cd 00 00
	00 00		 lea	 eax, DWORD PTR [ecx*8]
  00487	2b c1		 sub	 eax, ecx
  00489	03 c6		 add	 eax, esi
  0048b	6b c0 6a	 imul	 eax, eax, 106
  0048e	66 83 b8 00 00
	00 00 01	 cmp	 WORD PTR ?petSkill@@3PAY06UPET_SKILL@@A[eax], 1
  00496	0f 85 8c 00 00
	00		 jne	 $LN50@BattleButt

; 2755 : 								int color = FONT_PAL_GRAY;
; 2756 : 								//cary
; 2757 : 								sprintf( moji,"       %-22s",petSkill[ battlePetNoBak ][ i ].name );

  0049c	8d 80 08 00 00
	00		 lea	 eax, DWORD PTR ?petSkill@@3PAY06UPET_SKILL@@A[eax+8]
  004a2	bb 07 00 00 00	 mov	 ebx, 7
  004a7	50		 push	 eax
  004a8	8d 85 fc fe ff
	ff		 lea	 eax, DWORD PTR _moji$[ebp]
  004ae	68 00 00 00 00	 push	 OFFSET ??_C@_0N@DBNACIMP@?5?5?5?5?5?5?5?$CF?922s@
  004b3	50		 push	 eax
  004b4	e8 00 00 00 00	 call	 _sprintf

; 2758 : 								//end
; 2759 : 								// ????
; 2760 : 								if(	petSkill[ battlePetNoBak ][ i ].field != PETSKILL_FIELD_MAP ){

  004b9	8b 0d 00 00 00
	00		 mov	 ecx, DWORD PTR ?battlePetNoBak@@3HA ; battlePetNoBak
  004bf	83 c4 0c	 add	 esp, 12			; 0000000cH
  004c2	8d 04 cd 00 00
	00 00		 lea	 eax, DWORD PTR [ecx*8]
  004c9	2b c1		 sub	 eax, ecx
  004cb	03 c6		 add	 eax, esi
  004cd	6b d0 6a	 imul	 edx, eax, 106
  004d0	66 83 ba 04 00
	00 00 02	 cmp	 WORD PTR ?petSkill@@3PAY06UPET_SKILL@@A[edx+4], 2
  004d8	74 22		 je	 SHORT $LN52@BattleButt

; 2761 : #ifdef _VARY_WOLF
; 2762 : 									if(!((pet[battlePetNoBak].graNo==101428)&&(petSkill[battlePetNoBak][i].skillId==600))

  004da	69 c1 78 0b 00
	00		 imul	 eax, ecx, 2936
  004e0	81 b8 04 00 00
	00 34 8c 01 00	 cmp	 DWORD PTR ?pet@@3PAUPET@@A[eax+4], 101428 ; 00018c34H
  004ea	75 0e		 jne	 SHORT $LN53@BattleButt
  004ec	b8 58 02 00 00	 mov	 eax, 600		; 00000258H
  004f1	66 39 82 02 00
	00 00		 cmp	 WORD PTR ?petSkill@@3PAY06UPET_SKILL@@A[edx+2], ax
  004f8	74 02		 je	 SHORT $LN52@BattleButt
$LN53@BattleButt:

; 2763 : 										)
; 2764 : #endif
; 2765 : 										color = FONT_PAL_WHITE;

  004fa	33 db		 xor	 ebx, ebx
$LN52@BattleButt:

; 2766 : 								}
; 2767 : 								battleMenuWazaFontNo[ i ] = StockFontBuffer( x - 43, y, FONT_PRIO_FRONT, color, moji, 2 );

  004fc	6a 02		 push	 2
  004fe	8d 85 fc fe ff
	ff		 lea	 eax, DWORD PTR _moji$[ebp]
  00504	50		 push	 eax
  00505	8b 85 f8 fe ff
	ff		 mov	 eax, DWORD PTR tv980[ebp]
  0050b	53		 push	 ebx
  0050c	6a 01		 push	 1
  0050e	83 c0 0f	 add	 eax, 15			; 0000000fH
  00511	57		 push	 edi
  00512	50		 push	 eax
  00513	e8 00 00 00 00	 call	 ?StockFontBuffer@@YAHHHDHPADH@Z ; StockFontBuffer
  00518	8b 0d 00 00 00
	00		 mov	 ecx, DWORD PTR ?battlePetNoBak@@3HA ; battlePetNoBak
  0051e	83 c4 18	 add	 esp, 24			; 00000018H
  00521	89 04 b5 00 00
	00 00		 mov	 DWORD PTR ?battleMenuWazaFontNo@@3PAHA[esi*4], eax
$LN50@BattleButt:

; 2751 : 						// ?
; 2752 : 						for( i = 0 ; i < pet[ battlePetNoBak ].maxSkill ; i++ ){

  00528	69 c1 78 0b 00
	00		 imul	 eax, ecx, 2936
  0052e	46		 inc	 esi

; 2768 : 							}
; 2769 : 							y += 25;

  0052f	83 c7 19	 add	 edi, 25			; 00000019H
  00532	3b b0 44 00 00
	00		 cmp	 esi, DWORD PTR ?pet@@3PAUPET@@A[eax+68]
  00538	0f 8c 42 ff ff
	ff		 jl	 $LL18@BattleButt
$LN17@BattleButt:

; 2770 : 						}
; 2771 : 						// ?
; 2772 : 						y = pActWnd->y + 330;

  0053e	8b 0d 00 00 00
	00		 mov	 ecx, DWORD PTR ?pActWnd@@3PAUaction@@A

; 2773 : 						// ?????????
; 2774 : 						battleMenuWazaFontNo[ 7 ] = StockDispBuffer( ( ( WINDOW_DISP *)pActWnd->pYobi )->mx, y, DISP_PRIO_IME3, CG_CLOSE_BTN, 2 );

  00544	6a 02		 push	 2
  00546	68 ba 65 00 00	 push	 26042			; 000065baH
  0054b	6a 69		 push	 105			; 00000069H
  0054d	8b 41 1c	 mov	 eax, DWORD PTR [ecx+28]
  00550	05 4a 01 00 00	 add	 eax, 330		; 0000014aH
  00555	50		 push	 eax
  00556	8b 41 0c	 mov	 eax, DWORD PTR [ecx+12]
  00559	ff 70 14	 push	 DWORD PTR [eax+20]
  0055c	e8 00 00 00 00	 call	 ?StockDispBuffer@@YAHHHEHH@Z ; StockDispBuffer
  00561	83 c4 14	 add	 esp, 20			; 00000014H
  00564	a3 1c 00 00 00	 mov	 DWORD PTR ?battleMenuWazaFontNo@@3PAHA+28, eax
$LN107@BattleButt:
  00569	5f		 pop	 edi
  0056a	5b		 pop	 ebx
$LN47@BattleButt:

; 2775 : 					}
; 2776 : 				}
; 2777 : 			}
; 2778 : 		}
; 2779 : 	}
; 2780 : }

  0056b	8b 4d fc	 mov	 ecx, DWORD PTR __$ArrayPad$[ebp]
  0056e	33 cd		 xor	 ecx, ebp
  00570	5e		 pop	 esi
  00571	e8 00 00 00 00	 call	 @__security_check_cookie@4
  00576	8b e5		 mov	 esp, ebp
  00578	5d		 pop	 ebp
  00579	c3		 ret	 0
?BattleButtonWaza@@YAXXZ ENDP				; BattleButtonWaza
_TEXT	ENDS
; Function compile flags: /Ogtp
; File \\VBOXSVR\_stoneage\repos\ssm-sacli\system\battleMenu.cpp
;	COMDAT ?BattleButtonEscape@@YAXXZ
_TEXT	SEGMENT
?BattleButtonEscape@@YAXXZ PROC				; BattleButtonEscape, COMDAT

; 2012 : 	if( HitDispNo == battleButtonDispNo[ 7 ] && battleButtonFlag[ 7 ] == FALSE ){

  00000	a1 00 00 00 00	 mov	 eax, DWORD PTR ?HitDispNo@@3HA ; HitDispNo
  00005	3b 05 1c 00 00
	00		 cmp	 eax, DWORD PTR ?battleButtonDispNo@@3PAHA+28
  0000b	0f 85 c5 00 00
	00		 jne	 $LN2@BattleButt
  00011	83 3d 1c 00 00
	00 00		 cmp	 DWORD PTR ?battleButtonFlag@@3PAHA+28, 0
  00018	0f 85 b8 00 00
	00		 jne	 $LN2@BattleButt

; 2013 : 
; 2014 : 		if( mouse.onceState & MOUSE_LEFT_CRICK ){

  0001e	f6 05 2c 00 00
	00 01		 test	 BYTE PTR ?mouse@@3UMOUSE@@A+44, 1
  00025	0f 84 8b 00 00
	00		 je	 $LN5@BattleButt

; 2015 : 			if (NoEscFlag == TRUE) {

  0002b	83 3d 00 00 00
	00 01		 cmp	 DWORD PTR ?NoEscFlag@@3HA, 1 ; NoEscFlag
  00032	75 11		 jne	 SHORT $LN4@BattleButt

; 2016 : 
; 2017 : 				play_se(220, 320, 240);

  00034	68 f0 00 00 00	 push	 240			; 000000f0H
  00039	68 40 01 00 00	 push	 320			; 00000140H
  0003e	68 dc 00 00 00	 push	 220			; 000000dcH

; 2018 : 			} 

  00043	eb 69		 jmp	 SHORT $LN9@BattleButt
$LN4@BattleButt:

; 2019 : 			else
; 2020 : 			{
; 2021 : 				BattleButtonOff();

  00045	e8 00 00 00 00	 call	 ?BattleButtonOff@@YAXXZ	; BattleButtonOff

; 2022 : 				battleButtonFlag[7] = TRUE;
; 2023 : 				// ??
; 2024 : 				if (bNewServer)

  0004a	83 3d 00 00 00
	00 00		 cmp	 DWORD PTR ?bNewServer@@3HA, 0 ; bNewServer
  00051	68 00 00 00 00	 push	 OFFSET ??_C@_01DDCIFGEA@E@
  00056	ff 35 00 00 00
	00		 push	 DWORD PTR ?sockfd@@3IA	; sockfd
  0005c	c7 05 1c 00 00
	00 01 00 00 00	 mov	 DWORD PTR ?battleButtonFlag@@3PAHA+28, 1
  00066	74 07		 je	 SHORT $LN6@BattleButt

; 2025 : 					lssproto_B_send(sockfd, "E");

  00068	e8 00 00 00 00	 call	 ?lssproto_B_send@@YAXHPAD@Z ; lssproto_B_send
  0006d	eb 05		 jmp	 SHORT $LN10@BattleButt
$LN6@BattleButt:

; 2026 : 				else
; 2027 : 					old_lssproto_B_send(sockfd, "E");

  0006f	e8 00 00 00 00	 call	 ?old_lssproto_B_send@@YAXHPAD@Z ; old_lssproto_B_send
$LN10@BattleButt:

; 2028 : 				// ??????????
; 2029 : 				battlePlayerEscFlag = TRUE;

  00074	83 c4 08	 add	 esp, 8
  00077	c7 05 00 00 00
	00 01 00 00 00	 mov	 DWORD PTR ?battlePlayerEscFlag@@3HA, 1 ; battlePlayerEscFlag

; 2030 : 				// ??????
; 2031 : 				battleMenuReturn = TRUE;

  00081	c7 05 00 00 00
	00 01 00 00 00	 mov	 DWORD PTR ?battleMenuReturn@@3HA, 1

; 2032 : 				// ????????
; 2033 : 				battleButtonBak = -1;

  0008b	c7 05 00 00 00
	00 ff ff ff ff	 mov	 DWORD PTR ?battleButtonBak@@3HA, -1 ; battleButtonBak

; 2034 : 				// ????????
; 2035 : 				battleButtonBak2 = -1;

  00095	c7 05 00 00 00
	00 ff ff ff ff	 mov	 DWORD PTR ?battleButtonBak2@@3HA, -1

; 2036 : 				// ????????
; 2037 : 				play_se(203, 320, 240);

  0009f	68 f0 00 00 00	 push	 240			; 000000f0H
  000a4	68 40 01 00 00	 push	 320			; 00000140H
  000a9	68 cb 00 00 00	 push	 203			; 000000cbH
$LN9@BattleButt:

; 2038 : 			}
; 2039 : 		}
; 2040 : 		// ??????
; 2041 : 		strcpy( OneLineInfoStr, "탈출。");

  000ae	e8 00 00 00 00	 call	 ?play_se@@YAHHHH@Z	; play_se
  000b3	83 c4 0c	 add	 esp, 12			; 0000000cH
$LN5@BattleButt:
  000b6	a1 00 00 00 00	 mov	 eax, DWORD PTR ??_C@_06DOILANO@?E?$LL?C?b?$KB?$KD@
  000bb	a3 00 00 00 00	 mov	 DWORD PTR ?OneLineInfoStr@@3PADA, eax
  000c0	66 a1 04 00 00
	00		 mov	 ax, WORD PTR ??_C@_06DOILANO@?E?$LL?C?b?$KB?$KD@+4
  000c6	66 a3 04 00 00
	00		 mov	 WORD PTR ?OneLineInfoStr@@3PADA+4, ax
  000cc	a0 06 00 00 00	 mov	 al, BYTE PTR ??_C@_06DOILANO@?E?$LL?C?b?$KB?$KD@+6
  000d1	a2 06 00 00 00	 mov	 BYTE PTR ?OneLineInfoStr@@3PADA+6, al
$LN2@BattleButt:

; 2042 : 	}
; 2043 : }

  000d6	c3		 ret	 0
?BattleButtonEscape@@YAXXZ ENDP				; BattleButtonEscape
_TEXT	ENDS
; Function compile flags: /Ogtp
; File \\VBOXSVR\_stoneage\repos\ssm-sacli\system\battleMenu.cpp
;	COMDAT ?BattleButtonPPLSKILL@@YAXXZ
_TEXT	SEGMENT
tv2585 = -784						; size = 4
tv2553 = -784						; size = 4
_use_color$1$ = -780					; size = 4
tv2598 = -780						; size = 4
tv2614 = -776						; size = 4
tv2597 = -776						; size = 4
tv2551 = -776						; size = 4
_buf$ = -772						; size = 256
_msg$ = -516						; size = 256
_msg2$ = -260						; size = 256
__$ArrayPad$ = -4					; size = 4
?BattleButtonPPLSKILL@@YAXXZ PROC			; BattleButtonPPLSKILL, COMDAT

; 1757 : {

  00000	55		 push	 ebp
  00001	8b ec		 mov	 ebp, esp
  00003	81 ec 10 03 00
	00		 sub	 esp, 784		; 00000310H
  00009	a1 00 00 00 00	 mov	 eax, DWORD PTR ___security_cookie
  0000e	33 c5		 xor	 eax, ebp
  00010	89 45 fc	 mov	 DWORD PTR __$ArrayPad$[ebp], eax
  00013	f7 05 00 00 00
	00 00 00 00 86	 test	 DWORD PTR ?MenuToggleFlag@@3IA, -2046820352 ; MenuToggleFlag, 86000000H

; 1758 : 	if ( MenuToggleFlag & JOY_ESC || MenuToggleFlag & JOY_CTRL_E || MenuToggleFlag & JOY_CTRL_A) {

  0001d	0f 85 7a 0a 00
	00		 jne	 $LN34@BattleButt

; 1759 : 		//play_se( 220, 320, 240 );
; 1760 : 		return; 
; 1761 : 	}
; 1762 : 	char msg[256] = "";

  00023	68 00 01 00 00	 push	 256			; 00000100H
  00028	8d 85 fc fd ff
	ff		 lea	 eax, DWORD PTR _msg$[ebp]
  0002e	6a 00		 push	 0
  00030	50		 push	 eax
  00031	e8 00 00 00 00	 call	 _memset

; 1763 : 	char buf[256];
; 1764 : 	char msg2[256];
; 1765 : 	if( HitDispNo == battleButtonDispNo[ 9 ] ){

  00036	a1 00 00 00 00	 mov	 eax, DWORD PTR ?HitDispNo@@3HA ; HitDispNo
  0003b	83 c4 0c	 add	 esp, 12			; 0000000cH
  0003e	3b 05 24 00 00
	00		 cmp	 eax, DWORD PTR ?battleButtonDispNo@@3PAHA+36
  00044	75 7d		 jne	 SHORT $LN142@BattleButt

; 1766 : 		if( mouse.onceState & MOUSE_LEFT_CRICK ){

  00046	f6 05 2c 00 00
	00 01		 test	 BYTE PTR ?mouse@@3UMOUSE@@A+44, 1
  0004d	74 5a		 je	 SHORT $LN141@BattleButt

; 1767 : 			play_se( 217, 320, 240 );

  0004f	68 f0 00 00 00	 push	 240			; 000000f0H
  00054	68 40 01 00 00	 push	 320			; 00000140H
  00059	68 d9 00 00 00	 push	 217			; 000000d9H
  0005e	e8 00 00 00 00	 call	 ?play_se@@YAHHHH@Z	; play_se

; 1768 : 			DeathAction( pActWnd );

  00063	ff 35 00 00 00
	00		 push	 DWORD PTR ?pActWnd@@3PAUaction@@A
  00069	e8 00 00 00 00	 call	 ?DeathAction@@YAXPAUaction@@@Z ; DeathAction
  0006e	83 c4 10	 add	 esp, 16			; 00000010H

; 1769 : 			pActWnd = NULL;

  00071	c7 05 00 00 00
	00 00 00 00 00	 mov	 DWORD PTR ?pActWnd@@3PAUaction@@A, 0

; 1770 : 			battleTargetSelectFlag = FALSE;

  0007b	c7 05 00 00 00
	00 00 00 00 00	 mov	 DWORD PTR ?battleTargetSelectFlag@@3HA, 0

; 1771 : 			BattleCmdNo = -1;

  00085	c7 05 00 00 00
	00 ff ff ff ff	 mov	 DWORD PTR ?BattleCmdNo@@3HA, -1 ; BattleCmdNo

; 1772 : 			ClearBattleButton();

  0008f	e8 00 00 00 00	 call	 ?ClearBattleButton@@YAXXZ ; ClearBattleButton

; 1773 : 			ClearBoxFlag();

  00094	e8 00 00 00 00	 call	 ?ClearBoxFlag@@YAXXZ	; ClearBoxFlag

; 1774 : 			//MenuToggleFlag &= ~JOY_CTRL_E;
; 1775 : 			//MenuToggleFlag &= ~JOY_CTRL_A;
; 1776 : 			( wonflag == 0 ) ? wonflag = 1 : wonflag = 0  ; 

  00099	33 c0		 xor	 eax, eax
  0009b	39 05 00 00 00
	00		 cmp	 DWORD PTR ?wonflag@@3HA, eax ; wonflag
  000a1	0f 94 c0	 sete	 al
  000a4	a3 00 00 00 00	 mov	 DWORD PTR ?wonflag@@3HA, eax ; wonflag
$LN141@BattleButt:

; 1777 : 		}
; 1778 : 		strcpy( OneLineInfoStr, "직업기능");

  000a9	f3 0f 7e 05 00
	00 00 00	 movq	 xmm0, QWORD PTR ??_C@_08LCIHGOIJ@?A?w?$LO?w?$LB?b?$LE?I@
  000b1	a0 08 00 00 00	 mov	 al, BYTE PTR ??_C@_08LCIHGOIJ@?A?w?$LO?w?$LB?b?$LE?I@+8
  000b6	66 0f d6 05 00
	00 00 00	 movq	 QWORD PTR ?OneLineInfoStr@@3PADA, xmm0
  000be	a2 08 00 00 00	 mov	 BYTE PTR ?OneLineInfoStr@@3PADA+8, al
$LN142@BattleButt:

; 1779 : 	}
; 1780 : 	if ( wonflag == 1 ) {

  000c3	83 3d 00 00 00
	00 01		 cmp	 DWORD PTR ?wonflag@@3HA, 1 ; wonflag
  000ca	0f 85 cd 09 00
	00		 jne	 $LN34@BattleButt

; 1781 : 		for ( int i = 0 ; i < 3 ; i ++ ) {

  000d0	56		 push	 esi
  000d1	57		 push	 edi
  000d2	33 ff		 xor	 edi, edi
  000d4	be 0a 00 00 00	 mov	 esi, 10			; 0000000aH
  000d9	0f 1f 80 00 00
	00 00		 npad	 7
$LL4@BattleButt:

; 1782 : #ifdef _READ16BITBMP
; 1783 : 			if(g_bUseAlpha){
; 1784 : 				if( MakeHitBox(  278 , 11 + i	 * 78, 308  , 89 + i * 78 , DISP_PRIO_IME3 ) == TRUE ) {
; 1785 : 					if( mouse.onceState & MOUSE_LEFT_CRICK ) {
; 1786 : 						SkillWnd2 = i ; 
; 1787 : 						play_se( 217, 320, 240 );
; 1788 : 						break;
; 1789 : 					}
; 1790 : 				}
; 1791 : 			}
; 1792 : 			else
; 1793 : #endif
; 1794 : 			if( MakeHitBox(  276 , 10 + i * 79, 306  , 88 + i * 79 , DISP_PRIO_IME3 ) == TRUE ) {

  000e0	6a 69		 push	 105			; 00000069H
  000e2	8d 46 4e	 lea	 eax, DWORD PTR [esi+78]
  000e5	50		 push	 eax
  000e6	68 32 01 00 00	 push	 306			; 00000132H
  000eb	56		 push	 esi
  000ec	68 14 01 00 00	 push	 276			; 00000114H
  000f1	e8 00 00 00 00	 call	 ?MakeHitBox@@YAHHHHHH@Z	; MakeHitBox
  000f6	83 c4 14	 add	 esp, 20			; 00000014H
  000f9	83 f8 01	 cmp	 eax, 1
  000fc	75 08		 jne	 SHORT $LN2@BattleButt

; 1795 : 				if( mouse.onceState & MOUSE_LEFT_CRICK ) {

  000fe	84 05 2c 00 00
	00		 test	 BYTE PTR ?mouse@@3UMOUSE@@A+44, al
  00104	75 0e		 jne	 SHORT $LN99@BattleButt
$LN2@BattleButt:

; 1781 : 		for ( int i = 0 ; i < 3 ; i ++ ) {

  00106	83 c6 4f	 add	 esi, 79			; 0000004fH
  00109	47		 inc	 edi
  0010a	81 fe f7 00 00
	00		 cmp	 esi, 247		; 000000f7H
  00110	7c ce		 jl	 SHORT $LL4@BattleButt
  00112	eb 1d		 jmp	 SHORT $LN138@BattleButt
$LN99@BattleButt:

; 1796 : 					SkillWnd2 = i ; 
; 1797 : 					play_se( 217, 320, 240 );

  00114	68 f0 00 00 00	 push	 240			; 000000f0H
  00119	68 40 01 00 00	 push	 320			; 00000140H
  0011e	68 d9 00 00 00	 push	 217			; 000000d9H
  00123	89 3d 00 00 00
	00		 mov	 DWORD PTR ?SkillWnd2@@3HA, edi ; SkillWnd2
  00129	e8 00 00 00 00	 call	 ?play_se@@YAHHHH@Z	; play_se
  0012e	83 c4 0c	 add	 esp, 12			; 0000000cH
$LN138@BattleButt:

; 1798 : 					break;
; 1799 : 				}
; 1800 : 			}
; 1801 : 		}
; 1802 : 		StockDispBuffer( 159, 225 , DISP_PRIO_MENU, CG_BATTTLE_SKILLCHOICE, 1 );

  00131	53		 push	 ebx
  00132	6a 01		 push	 1
  00134	ff 35 00 00 00
	00		 push	 DWORD PTR ?CG_BATTTLE_SKILLCHOICE@@3HA ; CG_BATTTLE_SKILLCHOICE
  0013a	6a 68		 push	 104			; 00000068H
  0013c	68 e1 00 00 00	 push	 225			; 000000e1H
  00141	68 9f 00 00 00	 push	 159			; 0000009fH
  00146	e8 00 00 00 00	 call	 ?StockDispBuffer@@YAHHHEHH@Z ; StockDispBuffer

; 1803 : 		extern int BattleSkill[20];
; 1804 : 		extern int AssitSkill[20];
; 1805 : 		extern int AdvanceSkill[20];
; 1806 : 		int x = 26 , y = 5 ; 
; 1807 : 			for ( int i = 0 ; i < 4 ; i ++ ) {
; 1808 : 				for ( int j = 0 ; j < 4 ; j ++ ) {
; 1809 : //					StockDispBuffer( x + 138 + j * 60 , y + 228 + i * 72 , DISP_PRIO_IME3, CG_FIELD_SKILL_TILE , 2 );
; 1810 : 				}
; 1811 : 			}
; 1812 : 
; 1813 : 		switch ( SkillWnd2 ) {

  0014b	a1 00 00 00 00	 mov	 eax, DWORD PTR ?SkillWnd2@@3HA ; SkillWnd2
  00150	83 c4 14	 add	 esp, 20			; 00000014H
  00153	83 e8 00	 sub	 eax, 0
  00156	0f 84 ae 05 00
	00		 je	 $LN40@BattleButt
  0015c	83 e8 01	 sub	 eax, 1
  0015f	0f 84 a3 02 00
	00		 je	 $LN52@BattleButt
  00165	83 e8 01	 sub	 eax, 1
  00168	0f 85 50 08 00
	00		 jne	 $LN14@BattleButt

; 1919 : 		case 2:
; 1920 : #ifdef _READ16BITBMP
; 1921 : 			if(g_bUseAlpha) StockDispBuffer( 168, 223, DISP_PRIO_IME3, CG_FIELD_SKILL_ADVSK , 0 );
; 1922 : 			else
; 1923 : #endif
; 1924 : 			StockDispBuffer( 165, 221, DISP_PRIO_IME3, CG_FIELD_SKILL_ADVSK , 0 );

  0016e	50		 push	 eax
  0016f	68 f3 66 00 00	 push	 26355			; 000066f3H
  00174	6a 69		 push	 105			; 00000069H
  00176	68 dd 00 00 00	 push	 221			; 000000ddH
  0017b	68 a5 00 00 00	 push	 165			; 000000a5H
  00180	e8 00 00 00 00	 call	 ?StockDispBuffer@@YAHHHEHH@Z ; StockDispBuffer
  00185	83 c4 14	 add	 esp, 20			; 00000014H
  00188	bb 67 00 00 00	 mov	 ebx, 103		; 00000067H
  0018d	33 c0		 xor	 eax, eax
  0018f	89 9d f8 fc ff
	ff		 mov	 DWORD PTR tv2597[ebp], ebx
  00195	89 85 f4 fc ff
	ff		 mov	 DWORD PTR tv2598[ebp], eax
  0019b	0f 1f 44 00 00	 npad	 5
$LL27@BattleButt:

; 1926 : 				for ( int j = 0 ; j < 4 ; j ++ ) {

  001a0	bf 32 00 00 00	 mov	 edi, 50			; 00000032H
  001a5	8b f0		 mov	 esi, eax
  001a7	66 0f 1f 84 00
	00 00 00 00	 npad	 9
$LL30@BattleButt:

; 1927 : 					if ( AdvanceSkill [ j + i * 4 ] == -1 ) 

  001b0	8b 8e 00 00 00
	00		 mov	 ecx, DWORD PTR ?AdvanceSkill@@3PAHA[esi]
  001b6	83 f9 ff	 cmp	 ecx, -1
  001b9	0f 84 20 02 00
	00		 je	 $LN25@BattleButt

; 1928 : 						break;
; 1929 : 					if ( profession_skill[ AdvanceSkill [ j + i * 4 ] ].useFlag == 0 )

  001bf	8d 04 49	 lea	 eax, DWORD PTR [ecx+ecx*2]
  001c2	c1 e0 06	 shl	 eax, 6
  001c5	66 83 b8 00 00
	00 00 00	 cmp	 WORD PTR ?profession_skill@@3PAUPROFESSION_SKILL@@A[eax], 0
  001cd	75 19		 jne	 SHORT $LN123@BattleButt

; 1930 : 						StockDispBuffer ( x + 24 + j * 60 , y + 98 + i * 57 , DISP_PRIO_IME3 + 1 , CG_BTL_BUTTON_CROSS , 0 ) ;

  001cf	6a 00		 push	 0
  001d1	68 1d 62 00 00	 push	 25117			; 0000621dH
  001d6	6a 6a		 push	 106			; 0000006aH
  001d8	53		 push	 ebx
  001d9	57		 push	 edi
  001da	e8 00 00 00 00	 call	 ?StockDispBuffer@@YAHHHEHH@Z ; StockDispBuffer
  001df	8b 8e 00 00 00
	00		 mov	 ecx, DWORD PTR ?AdvanceSkill@@3PAHA[esi]
  001e5	83 c4 14	 add	 esp, 20			; 00000014H
$LN123@BattleButt:

; 1931 : 					//StockDispBuffer( x + 138 + j * 48 , y + 228 + i * 52 , DISP_PRIO_IME3, CG_FIELD_SKILL_TILE , 0 );
; 1932 : 					AdvanceSkillBtn [ j + i * 4 ] = StockDispBuffer( x + 24 + j * 60 , y + 98 + i * 57 , DISP_PRIO_IME3 + 1 , profession_skill[ AdvanceSkill [ j + i * 4 ] ].icon  , 2 );

  001e8	8d 04 49	 lea	 eax, DWORD PTR [ecx+ecx*2]
  001eb	c1 e0 06	 shl	 eax, 6
  001ee	6a 02		 push	 2
  001f0	ff b0 b4 00 00
	00		 push	 DWORD PTR ?profession_skill@@3PAUPROFESSION_SKILL@@A[eax+180]
  001f6	6a 6a		 push	 106			; 0000006aH
  001f8	53		 push	 ebx
  001f9	57		 push	 edi
  001fa	e8 00 00 00 00	 call	 ?StockDispBuffer@@YAHHHEHH@Z ; StockDispBuffer
  001ff	89 86 00 00 00
	00		 mov	 DWORD PTR ?AdvanceSkillBtn@@3PAHA[esi], eax

; 1933 : 					sprintf ( msg2 , "%8s" , profession_skill[AdvanceSkill [ j + i * 4 ]].name );

  00205	8b 86 00 00 00
	00		 mov	 eax, DWORD PTR ?AdvanceSkill@@3PAHA[esi]
  0020b	8d 04 40	 lea	 eax, DWORD PTR [eax+eax*2]
  0020e	c1 e0 06	 shl	 eax, 6
  00211	05 08 00 00 00	 add	 eax, OFFSET ?profession_skill@@3PAUPROFESSION_SKILL@@A+8
  00216	50		 push	 eax
  00217	8d 85 fc fe ff
	ff		 lea	 eax, DWORD PTR _msg2$[ebp]
  0021d	68 00 00 00 00	 push	 OFFSET ??_C@_03GHDNOBPC@?$CF8s@
  00222	50		 push	 eax
  00223	e8 00 00 00 00	 call	 _sprintf

; 1934 : 					StockFontBuffer( x + j * 60 , y + 110 + i * 57 , FONT_PRIO_FRONT, FONT_PAL_WHITE, msg2, 0 );

  00228	6a 00		 push	 0
  0022a	8d 85 fc fe ff
	ff		 lea	 eax, DWORD PTR _msg2$[ebp]
  00230	50		 push	 eax
  00231	6a 00		 push	 0
  00233	6a 01		 push	 1
  00235	8d 43 0c	 lea	 eax, DWORD PTR [ebx+12]
  00238	50		 push	 eax
  00239	8d 47 e8	 lea	 eax, DWORD PTR [edi-24]
  0023c	50		 push	 eax
  0023d	e8 00 00 00 00	 call	 ?StockFontBuffer@@YAHHHDHPADH@Z ; StockFontBuffer

; 1935 : 					if ( HitDispNo == AdvanceSkillBtn [ j + i * 4 ] ){ 

  00242	a1 00 00 00 00	 mov	 eax, DWORD PTR ?HitDispNo@@3HA ; HitDispNo
  00247	83 c4 38	 add	 esp, 56			; 00000038H
  0024a	3b 86 00 00 00
	00		 cmp	 eax, DWORD PTR ?AdvanceSkillBtn@@3PAHA[esi]
  00250	0f 85 0a 01 00
	00		 jne	 $LN67@BattleButt

; 1936 : 						
; 1937 : 						int use_color = 0;
; 1938 : 						if( p_party[ BattleMyNo ]->mp >= profession_skill[AdvanceSkill [ j + i * 4 ]].costmp && profession_skill[AdvanceSkill [ j + i * 4 ]].costmp != 0 

  00256	8b 86 00 00 00
	00		 mov	 eax, DWORD PTR ?AdvanceSkill@@3PAHA[esi]
  0025c	8d 0c 40	 lea	 ecx, DWORD PTR [eax+eax*2]
  0025f	a1 00 00 00 00	 mov	 eax, DWORD PTR ?BattleMyNo@@3HA ; BattleMyNo
  00264	c1 e1 06	 shl	 ecx, 6
  00267	8b 04 85 00 00
	00 00		 mov	 eax, DWORD PTR ?p_party@@3PAPAUaction@@A[eax*4]
  0026e	8b 91 b8 00 00
	00		 mov	 edx, DWORD PTR ?profession_skill@@3PAUPROFESSION_SKILL@@A[ecx+184]
  00274	39 90 84 00 00
	00		 cmp	 DWORD PTR [eax+132], edx
  0027a	7c 08		 jl	 SHORT $LN68@BattleButt
  0027c	85 d2		 test	 edx, edx
  0027e	74 04		 je	 SHORT $LN68@BattleButt

; 1939 : 							){
; 1940 : 							use_color = FONT_PAL_WHITE;

  00280	33 db		 xor	 ebx, ebx

; 1941 : 						}else{

  00282	eb 05		 jmp	 SHORT $LN69@BattleButt
$LN68@BattleButt:

; 1942 : 							use_color = FONT_PAL_GRAY;									

  00284	bb 07 00 00 00	 mov	 ebx, 7
$LN69@BattleButt:

; 1943 : 						}
; 1944 : #ifdef _PROFESSION_ADDSKILL
; 1945 : 					//	if ( profession_skill[ AdvanceSkill [ j + i * 4 ] ].skillId == 2 )
; 1946 : 					//		use_color = FONT_PAL_WHITE; //针针相对不做mp限制
; 1947 : #endif			
; 1948 : 						sprintf ( msg2 , "%s" , profession_skill[AdvanceSkill [ j + i * 4 ]].name );

  00289	8d 81 08 00 00
	00		 lea	 eax, DWORD PTR ?profession_skill@@3PAUPROFESSION_SKILL@@A[ecx+8]
  0028f	50		 push	 eax
  00290	8d 85 fc fe ff
	ff		 lea	 eax, DWORD PTR _msg2$[ebp]
  00296	68 00 00 00 00	 push	 OFFSET ??_C@_02DKCKIIND@?$CFs@
  0029b	50		 push	 eax
  0029c	e8 00 00 00 00	 call	 _sprintf

; 1949 : 						StockFontBuffer( 20, 312, FONT_PRIO_FRONT, use_color, msg2, 0 );

  002a1	6a 00		 push	 0
  002a3	8d 85 fc fe ff
	ff		 lea	 eax, DWORD PTR _msg2$[ebp]
  002a9	50		 push	 eax
  002aa	53		 push	 ebx
  002ab	6a 01		 push	 1
  002ad	68 38 01 00 00	 push	 312			; 00000138H
  002b2	6a 14		 push	 20			; 00000014H
  002b4	e8 00 00 00 00	 call	 ?StockFontBuffer@@YAHHHDHPADH@Z ; StockFontBuffer

; 1950 : 
; 1951 : 						sprintf( msg , "  %d％", profession_skill[AdvanceSkill [ j + i * 4 ]].skill_level ) ; 

  002b9	8b 86 00 00 00
	00		 mov	 eax, DWORD PTR ?AdvanceSkill@@3PAHA[esi]
  002bf	8d 04 40	 lea	 eax, DWORD PTR [eax+eax*2]
  002c2	c1 e0 06	 shl	 eax, 6
  002c5	ff b0 bc 00 00
	00		 push	 DWORD PTR ?profession_skill@@3PAUPROFESSION_SKILL@@A[eax+188]
  002cb	8d 85 fc fd ff
	ff		 lea	 eax, DWORD PTR _msg$[ebp]
  002d1	68 00 00 00 00	 push	 OFFSET ??_C@_06BPKJHHJO@?5?5?$CFd?$KD?$KF@
  002d6	50		 push	 eax
  002d7	e8 00 00 00 00	 call	 _sprintf

; 1952 : 						StockFontBuffer( 85, 310, FONT_PRIO_FRONT, use_color, msg, 0 );

  002dc	6a 00		 push	 0
  002de	8d 85 fc fd ff
	ff		 lea	 eax, DWORD PTR _msg$[ebp]
  002e4	50		 push	 eax
  002e5	53		 push	 ebx
  002e6	6a 01		 push	 1
  002e8	68 36 01 00 00	 push	 310			; 00000136H
  002ed	6a 55		 push	 85			; 00000055H
  002ef	e8 00 00 00 00	 call	 ?StockFontBuffer@@YAHHHDHPADH@Z ; StockFontBuffer

; 1953 : 						
; 1954 : 						sprintf ( msg2 , "(소비하다MP:%d)" , profession_skill[AdvanceSkill [ j + i * 4 ]].costmp );

  002f4	8b 86 00 00 00
	00		 mov	 eax, DWORD PTR ?AdvanceSkill@@3PAHA[esi]
  002fa	83 c4 48	 add	 esp, 72			; 00000048H
  002fd	8d 04 40	 lea	 eax, DWORD PTR [eax+eax*2]
  00300	c1 e0 06	 shl	 eax, 6
  00303	ff b0 b8 00 00
	00		 push	 DWORD PTR ?profession_skill@@3PAUPROFESSION_SKILL@@A[eax+184]
  00309	8d 85 fc fe ff
	ff		 lea	 eax, DWORD PTR _msg2$[ebp]
  0030f	68 00 00 00 00	 push	 OFFSET ??_C@_0BA@OEIEMLKK@?$CI?$LM?R?$LK?q?G?O?$LE?YMP?3?$CFd?$CJ@
  00314	50		 push	 eax
  00315	e8 00 00 00 00	 call	 _sprintf

; 1955 : 						StockFontBuffer( 170, 312, FONT_PRIO_FRONT, use_color, msg2, 0 );

  0031a	6a 00		 push	 0
  0031c	8d 85 fc fe ff
	ff		 lea	 eax, DWORD PTR _msg2$[ebp]
  00322	50		 push	 eax
  00323	53		 push	 ebx
  00324	6a 01		 push	 1
  00326	68 38 01 00 00	 push	 312			; 00000138H
  0032b	68 aa 00 00 00	 push	 170			; 000000aaH
  00330	e8 00 00 00 00	 call	 ?StockFontBuffer@@YAHHHDHPADH@Z ; StockFontBuffer

; 1956 : 
; 1957 : 						sprintf( msg , "%s" , profession_skill[AdvanceSkill [ j + i * 4 ]].memo ) ; 

  00335	8b 86 00 00 00
	00		 mov	 eax, DWORD PTR ?AdvanceSkill@@3PAHA[esi]
  0033b	8d 04 40	 lea	 eax, DWORD PTR [eax+eax*2]
  0033e	c1 e0 06	 shl	 eax, 6
  00341	05 5d 00 00 00	 add	 eax, OFFSET ?profession_skill@@3PAUPROFESSION_SKILL@@A+93
  00346	50		 push	 eax
  00347	8d 85 fc fd ff
	ff		 lea	 eax, DWORD PTR _msg$[ebp]
  0034d	68 00 00 00 00	 push	 OFFSET ??_C@_02DKCKIIND@?$CFs@
  00352	50		 push	 eax
  00353	e8 00 00 00 00	 call	 _sprintf
  00358	a1 00 00 00 00	 mov	 eax, DWORD PTR ?HitDispNo@@3HA ; HitDispNo
  0035d	83 c4 30	 add	 esp, 48			; 00000030H
$LN67@BattleButt:

; 1958 : 					}
; 1959 : 					if( mouse.onceState & MOUSE_LEFT_CRICK_UP ) {

  00360	f6 05 2c 00 00
	00 04		 test	 BYTE PTR ?mouse@@3UMOUSE@@A+44, 4
  00367	74 5e		 je	 SHORT $LN28@BattleButt

; 1960 : 						if ( HitDispNo == AdvanceSkillBtn [ j + i * 4 ] && profession_skill[ AdvanceSkill [ j + i * 4 ] ].useFlag != 0 ) {

  00369	3b 86 00 00 00
	00		 cmp	 eax, DWORD PTR ?AdvanceSkillBtn@@3PAHA[esi]
  0036f	75 56		 jne	 SHORT $LN28@BattleButt
  00371	8b 96 00 00 00
	00		 mov	 edx, DWORD PTR ?AdvanceSkill@@3PAHA[esi]
  00377	8d 0c 52	 lea	 ecx, DWORD PTR [edx+edx*2]
  0037a	c1 e1 06	 shl	 ecx, 6
  0037d	66 83 b9 00 00
	00 00 00	 cmp	 WORD PTR ?profession_skill@@3PAUPROFESSION_SKILL@@A[ecx], 0
  00385	74 40		 je	 SHORT $LN28@BattleButt

; 1961 : 							if( p_party[ BattleMyNo ]->mp >= profession_skill[AdvanceSkill [ j + i * 4 ]].costmp && profession_skill[AdvanceSkill [ j + i * 4 ]].costmp != 0 

  00387	a1 00 00 00 00	 mov	 eax, DWORD PTR ?BattleMyNo@@3HA ; BattleMyNo
  0038c	8b 99 b8 00 00
	00		 mov	 ebx, DWORD PTR ?profession_skill@@3PAUPROFESSION_SKILL@@A[ecx+184]
  00392	8b 04 85 00 00
	00 00		 mov	 eax, DWORD PTR ?p_party@@3PAPAUaction@@A[eax*4]
  00399	39 98 84 00 00
	00		 cmp	 DWORD PTR [eax+132], ebx
  0039f	7c 26		 jl	 SHORT $LN28@BattleButt
  003a1	85 db		 test	 ebx, ebx
  003a3	74 22		 je	 SHORT $LN28@BattleButt

; 1962 : 								){																					
; 1963 : 								wonflag = 0 ; 
; 1964 : 								prouseskill = AdvanceSkill [ j + i * 4  ]; 
; 1965 : 								BattleSetWazaHitBox( profession_skill[AdvanceSkill [ j + i * 4 ] ].target , 1) ; 

  003a5	0f bf 81 04 00
	00 00		 movsx	 eax, WORD PTR ?profession_skill@@3PAUPROFESSION_SKILL@@A[ecx+4]
  003ac	6a 01		 push	 1
  003ae	50		 push	 eax
  003af	c7 05 00 00 00
	00 00 00 00 00	 mov	 DWORD PTR ?wonflag@@3HA, 0 ; wonflag
  003b9	89 15 00 00 00
	00		 mov	 DWORD PTR ?prouseskill@@3HA, edx ; prouseskill
  003bf	e8 00 00 00 00	 call	 ?BattleSetWazaHitBox@@YAXHH@Z ; BattleSetWazaHitBox
  003c4	83 c4 08	 add	 esp, 8
$LN28@BattleButt:

; 1926 : 				for ( int j = 0 ; j < 4 ; j ++ ) {

  003c7	8b 9d f8 fc ff
	ff		 mov	 ebx, DWORD PTR tv2597[ebp]
  003cd	83 c7 3c	 add	 edi, 60			; 0000003cH
  003d0	83 c6 04	 add	 esi, 4
  003d3	81 ff 22 01 00
	00		 cmp	 edi, 290		; 00000122H
  003d9	0f 8c d1 fd ff
	ff		 jl	 $LL30@BattleButt
$LN25@BattleButt:

; 1925 : 			for ( int i = 0 ; i < 4 ; i ++ ) {

  003df	8b 85 f4 fc ff
	ff		 mov	 eax, DWORD PTR tv2598[ebp]
  003e5	83 c3 39	 add	 ebx, 57			; 00000039H
  003e8	83 c0 10	 add	 eax, 16			; 00000010H
  003eb	89 9d f8 fc ff
	ff		 mov	 DWORD PTR tv2597[ebp], ebx
  003f1	89 85 f4 fc ff
	ff		 mov	 DWORD PTR tv2598[ebp], eax
  003f7	81 fb 4b 01 00
	00		 cmp	 ebx, 331		; 0000014bH
  003fd	0f 8c 9d fd ff
	ff		 jl	 $LL27@BattleButt

; 1966 : 							}
; 1967 : #ifdef _PROFESSION_ADDSKILL
; 1968 : 					//		else if ( profession_skill[ AdvanceSkill [ j + i * 4 ] ].skillId == 2 && profession_skill[AdvanceSkill [ j + i * 4 ]].costmp == 0 ) { //针针相对不做mp限制
; 1969 : 					//			wonflag = 0 ; 
; 1970 : 					//			BattleSetWazaHitBox( profession_skill[AdvanceSkill [ j + i * 4 ] ].target , 1) ; 
; 1971 : 					//			prouseskill = AdvanceSkill [ j + i * 4  ];  
; 1972 : 					//		}
; 1973 : #endif
; 1974 : 						}
; 1975 : 					}
; 1976 : 				}
; 1977 : 			}
; 1978 : 			break;

  00403	e9 b6 05 00 00	 jmp	 $LN14@BattleButt
$LN52@BattleButt:

; 1858 : 								wonflag = 0 ; 
; 1859 : 								prouseskill = AssitSkill [ j + i * 4 ] ; 
; 1860 : 								BattleSetWazaHitBox( profession_skill[AssitSkill [ j + i * 4 ] ].target , 1) ; 
; 1861 : 							}
; 1862 : 						}
; 1863 : 					}
; 1864 : 				}
; 1865 : 			}
; 1866 : 			break;
; 1867 : 		case 1 :
; 1868 : #ifdef _READ16BITBMP
; 1869 : 			if(g_bUseAlpha) StockDispBuffer( 168, 223, DISP_PRIO_IME3, CG_FIELD_SKILL_BATTLE , 0 );
; 1870 : 			else
; 1871 : #endif
; 1872 : 			StockDispBuffer( 165, 221, DISP_PRIO_IME3, CG_FIELD_SKILL_BATTLE , 0 );

  00408	6a 00		 push	 0
  0040a	68 f5 66 00 00	 push	 26357			; 000066f5H
  0040f	6a 69		 push	 105			; 00000069H
  00411	68 dd 00 00 00	 push	 221			; 000000ddH
  00416	68 a5 00 00 00	 push	 165			; 000000a5H
  0041b	e8 00 00 00 00	 call	 ?StockDispBuffer@@YAHHHEHH@Z ; StockDispBuffer
  00420	83 c4 14	 add	 esp, 20			; 00000014H
  00423	33 c0		 xor	 eax, eax
  00425	89 85 f0 fc ff
	ff		 mov	 DWORD PTR tv2585[ebp], eax
  0042b	8d 58 67	 lea	 ebx, DWORD PTR [eax+103]
  0042e	66 90		 npad	 2
$LL21@BattleButt:

; 1874 : 				for ( int j = 0 ; j < 4 ; j ++ ) {

  00430	bf 32 00 00 00	 mov	 edi, 50			; 00000032H
  00435	8b f0		 mov	 esi, eax
  00437	66 0f 1f 84 00
	00 00 00 00	 npad	 9
$LL24@BattleButt:

; 1875 : 					if ( BattleSkill [ j + i * 4 ] == -1 ) 

  00440	8b 86 00 00 00
	00		 mov	 eax, DWORD PTR ?BattleSkill@@3PAHA[esi]
  00446	83 f8 ff	 cmp	 eax, -1
  00449	0f 84 98 02 00
	00		 je	 $LN19@BattleButt

; 1876 : 						break;
; 1877 : 					if ( profession_skill[ BattleSkill [ j + i * 4 ] ].useFlag == 0 )

  0044f	8d 0c 40	 lea	 ecx, DWORD PTR [eax+eax*2]
  00452	c1 e1 06	 shl	 ecx, 6
  00455	66 83 b9 00 00
	00 00 00	 cmp	 WORD PTR ?profession_skill@@3PAUPROFESSION_SKILL@@A[ecx], 0
  0045d	75 19		 jne	 SHORT $LN124@BattleButt

; 1878 : 						StockDispBuffer ( x + 24 + j * 60 , y + 98 + i * 57 , DISP_PRIO_IME3 + 1 , CG_BTL_BUTTON_CROSS , 0 ) ;

  0045f	6a 00		 push	 0
  00461	68 1d 62 00 00	 push	 25117			; 0000621dH
  00466	6a 6a		 push	 106			; 0000006aH
  00468	53		 push	 ebx
  00469	57		 push	 edi
  0046a	e8 00 00 00 00	 call	 ?StockDispBuffer@@YAHHHEHH@Z ; StockDispBuffer
  0046f	8b 86 00 00 00
	00		 mov	 eax, DWORD PTR ?BattleSkill@@3PAHA[esi]
  00475	83 c4 14	 add	 esp, 20			; 00000014H
$LN124@BattleButt:

; 1879 : 					if ( profession_skill[ BattleSkill [ j + i * 4 ] ].skillId == 40 && p_party[ BattleMyNo ]->hp <= 10 )

  00478	8d 0c 40	 lea	 ecx, DWORD PTR [eax+eax*2]
  0047b	c1 e1 06	 shl	 ecx, 6
  0047e	66 83 b9 02 00
	00 00 28	 cmp	 WORD PTR ?profession_skill@@3PAUPROFESSION_SKILL@@A[ecx+2], 40 ; 00000028H
  00486	75 2c		 jne	 SHORT $LN55@BattleButt
  00488	8b 0d 00 00 00
	00		 mov	 ecx, DWORD PTR ?BattleMyNo@@3HA ; BattleMyNo
  0048e	8b 0c 8d 00 00
	00 00		 mov	 ecx, DWORD PTR ?p_party@@3PAPAUaction@@A[ecx*4]
  00495	83 79 78 0a	 cmp	 DWORD PTR [ecx+120], 10	; 0000000aH
  00499	7f 19		 jg	 SHORT $LN55@BattleButt

; 1880 : 						StockDispBuffer ( x + 24 + j * 60 , y + 98 + i * 57 , DISP_PRIO_IME3 + 1 , CG_BTL_BUTTON_CROSS , 0 ) ;

  0049b	6a 00		 push	 0
  0049d	68 1d 62 00 00	 push	 25117			; 0000621dH
  004a2	6a 6a		 push	 106			; 0000006aH
  004a4	53		 push	 ebx
  004a5	57		 push	 edi
  004a6	e8 00 00 00 00	 call	 ?StockDispBuffer@@YAHHHEHH@Z ; StockDispBuffer
  004ab	8b 86 00 00 00
	00		 mov	 eax, DWORD PTR ?BattleSkill@@3PAHA[esi]
  004b1	83 c4 14	 add	 esp, 20			; 00000014H
$LN55@BattleButt:

; 1881 : 					//StockDispBuffer( x + 138 + j * 48 , y + 228 + i * 52 , DISP_PRIO_IME3, CG_FIELD_SKILL_TILE , 0 );
; 1882 : 					BattleSkillBtn [ j + i * 4 ] = StockDispBuffer( x + 24 + j * 60 , y + 98 + i * 57 , DISP_PRIO_IME3 + 1 , profession_skill[ BattleSkill [ j + i * 4 ] ].icon  , 2 );

  004b4	8d 04 40	 lea	 eax, DWORD PTR [eax+eax*2]
  004b7	c1 e0 06	 shl	 eax, 6
  004ba	6a 02		 push	 2
  004bc	ff b0 b4 00 00
	00		 push	 DWORD PTR ?profession_skill@@3PAUPROFESSION_SKILL@@A[eax+180]
  004c2	6a 6a		 push	 106			; 0000006aH
  004c4	53		 push	 ebx
  004c5	57		 push	 edi
  004c6	e8 00 00 00 00	 call	 ?StockDispBuffer@@YAHHHEHH@Z ; StockDispBuffer
  004cb	89 86 00 00 00
	00		 mov	 DWORD PTR ?BattleSkillBtn@@3PAHA[esi], eax

; 1883 : 					sprintf ( msg2 , "%8s" , profession_skill[BattleSkill [ j + i * 4 ]].name );

  004d1	8b 86 00 00 00
	00		 mov	 eax, DWORD PTR ?BattleSkill@@3PAHA[esi]
  004d7	8d 04 40	 lea	 eax, DWORD PTR [eax+eax*2]
  004da	c1 e0 06	 shl	 eax, 6
  004dd	05 08 00 00 00	 add	 eax, OFFSET ?profession_skill@@3PAUPROFESSION_SKILL@@A+8
  004e2	50		 push	 eax
  004e3	8d 85 fc fe ff
	ff		 lea	 eax, DWORD PTR _msg2$[ebp]
  004e9	68 00 00 00 00	 push	 OFFSET ??_C@_03GHDNOBPC@?$CF8s@
  004ee	50		 push	 eax
  004ef	e8 00 00 00 00	 call	 _sprintf

; 1884 : 					StockFontBuffer( x + j * 60 , y + 110 + i * 57 , FONT_PRIO_FRONT, FONT_PAL_WHITE, msg2, 0 );

  004f4	6a 00		 push	 0
  004f6	8d 85 fc fe ff
	ff		 lea	 eax, DWORD PTR _msg2$[ebp]
  004fc	50		 push	 eax
  004fd	6a 00		 push	 0
  004ff	6a 01		 push	 1
  00501	8d 43 0c	 lea	 eax, DWORD PTR [ebx+12]
  00504	50		 push	 eax
  00505	8d 47 e8	 lea	 eax, DWORD PTR [edi-24]
  00508	50		 push	 eax
  00509	e8 00 00 00 00	 call	 ?StockFontBuffer@@YAHHHDHPADH@Z ; StockFontBuffer

; 1885 : 					if ( HitDispNo == BattleSkillBtn [ j + i * 4 ] ){ 

  0050e	a1 00 00 00 00	 mov	 eax, DWORD PTR ?HitDispNo@@3HA ; HitDispNo
  00513	83 c4 38	 add	 esp, 56			; 00000038H
  00516	3b 86 00 00 00
	00		 cmp	 eax, DWORD PTR ?BattleSkillBtn@@3PAHA[esi]
  0051c	0f 85 24 01 00
	00		 jne	 $LN56@BattleButt

; 1886 : 
; 1887 : 						int use_color=0;
; 1888 : 						if( p_party[ BattleMyNo ]->mp >= profession_skill[BattleSkill [ j + i * 4 ]].costmp && profession_skill[BattleSkill [ j + i * 4 ]].costmp != 0 ) {

  00522	8b 86 00 00 00
	00		 mov	 eax, DWORD PTR ?BattleSkill@@3PAHA[esi]
  00528	8d 0c 40	 lea	 ecx, DWORD PTR [eax+eax*2]
  0052b	a1 00 00 00 00	 mov	 eax, DWORD PTR ?BattleMyNo@@3HA ; BattleMyNo
  00530	c1 e1 06	 shl	 ecx, 6
  00533	8b 04 85 00 00
	00 00		 mov	 eax, DWORD PTR ?p_party@@3PAPAUaction@@A[eax*4]
  0053a	8b 91 b8 00 00
	00		 mov	 edx, DWORD PTR ?profession_skill@@3PAUPROFESSION_SKILL@@A[ecx+184]
  00540	39 90 84 00 00
	00		 cmp	 DWORD PTR [eax+132], edx
  00546	7c 0e		 jl	 SHORT $LN57@BattleButt

; 1889 : 							use_color = FONT_PAL_WHITE;

  00548	c7 85 f4 fc ff
	ff 00 00 00 00	 mov	 DWORD PTR _use_color$1$[ebp], 0
  00552	85 d2		 test	 edx, edx
  00554	75 0a		 jne	 SHORT $LN58@BattleButt
$LN57@BattleButt:

; 1890 : 						}else{
; 1891 : 							use_color = FONT_PAL_GRAY;									

  00556	c7 85 f4 fc ff
	ff 07 00 00 00	 mov	 DWORD PTR _use_color$1$[ebp], 7
$LN58@BattleButt:

; 1892 : 						}
; 1893 : 
; 1894 : 						sprintf ( msg2 , "%s" , profession_skill[BattleSkill [ j + i * 4 ]].name );

  00560	8d 81 08 00 00
	00		 lea	 eax, DWORD PTR ?profession_skill@@3PAUPROFESSION_SKILL@@A[ecx+8]
  00566	50		 push	 eax
  00567	8d 85 fc fe ff
	ff		 lea	 eax, DWORD PTR _msg2$[ebp]
  0056d	68 00 00 00 00	 push	 OFFSET ??_C@_02DKCKIIND@?$CFs@
  00572	50		 push	 eax
  00573	e8 00 00 00 00	 call	 _sprintf

; 1895 : 						StockFontBuffer( 20, 312, FONT_PRIO_FRONT, use_color, msg2, 0 );

  00578	6a 00		 push	 0
  0057a	8d 85 fc fe ff
	ff		 lea	 eax, DWORD PTR _msg2$[ebp]
  00580	50		 push	 eax
  00581	ff b5 f4 fc ff
	ff		 push	 DWORD PTR _use_color$1$[ebp]
  00587	6a 01		 push	 1
  00589	68 38 01 00 00	 push	 312			; 00000138H
  0058e	6a 14		 push	 20			; 00000014H
  00590	e8 00 00 00 00	 call	 ?StockFontBuffer@@YAHHHDHPADH@Z ; StockFontBuffer

; 1896 : 						
; 1897 : 						sprintf( msg , "  %d％", profession_skill[BattleSkill [ j + i * 4 ]].skill_level ) ; 

  00595	8b 86 00 00 00
	00		 mov	 eax, DWORD PTR ?BattleSkill@@3PAHA[esi]
  0059b	8d 04 40	 lea	 eax, DWORD PTR [eax+eax*2]
  0059e	c1 e0 06	 shl	 eax, 6
  005a1	ff b0 bc 00 00
	00		 push	 DWORD PTR ?profession_skill@@3PAUPROFESSION_SKILL@@A[eax+188]
  005a7	8d 85 fc fd ff
	ff		 lea	 eax, DWORD PTR _msg$[ebp]
  005ad	68 00 00 00 00	 push	 OFFSET ??_C@_06BPKJHHJO@?5?5?$CFd?$KD?$KF@
  005b2	50		 push	 eax
  005b3	e8 00 00 00 00	 call	 _sprintf

; 1898 : 						StockFontBuffer( 85, 310, FONT_PRIO_FRONT, use_color, msg, 0 );

  005b8	6a 00		 push	 0
  005ba	8d 85 fc fd ff
	ff		 lea	 eax, DWORD PTR _msg$[ebp]
  005c0	50		 push	 eax
  005c1	ff b5 f4 fc ff
	ff		 push	 DWORD PTR _use_color$1$[ebp]
  005c7	6a 01		 push	 1
  005c9	68 36 01 00 00	 push	 310			; 00000136H
  005ce	6a 55		 push	 85			; 00000055H
  005d0	e8 00 00 00 00	 call	 ?StockFontBuffer@@YAHHHDHPADH@Z ; StockFontBuffer

; 1899 : 
; 1900 : 						sprintf ( msg2 , "(소비하다MP:%d)" , profession_skill[BattleSkill [ j + i * 4 ]].costmp );

  005d5	8b 86 00 00 00
	00		 mov	 eax, DWORD PTR ?BattleSkill@@3PAHA[esi]
  005db	83 c4 48	 add	 esp, 72			; 00000048H
  005de	8d 04 40	 lea	 eax, DWORD PTR [eax+eax*2]
  005e1	c1 e0 06	 shl	 eax, 6
  005e4	ff b0 b8 00 00
	00		 push	 DWORD PTR ?profession_skill@@3PAUPROFESSION_SKILL@@A[eax+184]
  005ea	8d 85 fc fe ff
	ff		 lea	 eax, DWORD PTR _msg2$[ebp]
  005f0	68 00 00 00 00	 push	 OFFSET ??_C@_0BA@OEIEMLKK@?$CI?$LM?R?$LK?q?G?O?$LE?YMP?3?$CFd?$CJ@
  005f5	50		 push	 eax
  005f6	e8 00 00 00 00	 call	 _sprintf

; 1901 : 						StockFontBuffer( 170, 312, FONT_PRIO_FRONT, use_color, msg2, 0 );

  005fb	6a 00		 push	 0
  005fd	8d 85 fc fe ff
	ff		 lea	 eax, DWORD PTR _msg2$[ebp]
  00603	50		 push	 eax
  00604	ff b5 f4 fc ff
	ff		 push	 DWORD PTR _use_color$1$[ebp]
  0060a	6a 01		 push	 1
  0060c	68 38 01 00 00	 push	 312			; 00000138H
  00611	68 aa 00 00 00	 push	 170			; 000000aaH
  00616	e8 00 00 00 00	 call	 ?StockFontBuffer@@YAHHHDHPADH@Z ; StockFontBuffer

; 1902 : 
; 1903 : 						sprintf( msg , "%s" , profession_skill[BattleSkill [ j + i * 4 ]].memo ) ; 

  0061b	8b 86 00 00 00
	00		 mov	 eax, DWORD PTR ?BattleSkill@@3PAHA[esi]
  00621	8d 04 40	 lea	 eax, DWORD PTR [eax+eax*2]
  00624	c1 e0 06	 shl	 eax, 6
  00627	05 5d 00 00 00	 add	 eax, OFFSET ?profession_skill@@3PAUPROFESSION_SKILL@@A+93
  0062c	50		 push	 eax
  0062d	8d 85 fc fd ff
	ff		 lea	 eax, DWORD PTR _msg$[ebp]
  00633	68 00 00 00 00	 push	 OFFSET ??_C@_02DKCKIIND@?$CFs@
  00638	50		 push	 eax
  00639	e8 00 00 00 00	 call	 _sprintf
  0063e	a1 00 00 00 00	 mov	 eax, DWORD PTR ?HitDispNo@@3HA ; HitDispNo
  00643	83 c4 30	 add	 esp, 48			; 00000030H
$LN56@BattleButt:

; 1904 : 					}
; 1905 : 					if( mouse.onceState & MOUSE_LEFT_CRICK_UP ) {

  00646	f6 05 2c 00 00
	00 04		 test	 BYTE PTR ?mouse@@3UMOUSE@@A+44, 4
  0064d	0f 84 82 00 00
	00		 je	 $LN22@BattleButt

; 1906 : 						if ( HitDispNo == BattleSkillBtn [ j + i * 4 ] && profession_skill[ BattleSkill [ j + i * 4 ] ].useFlag != 0) {

  00653	3b 86 00 00 00
	00		 cmp	 eax, DWORD PTR ?BattleSkillBtn@@3PAHA[esi]
  00659	75 7a		 jne	 SHORT $LN22@BattleButt
  0065b	8b 96 00 00 00
	00		 mov	 edx, DWORD PTR ?BattleSkill@@3PAHA[esi]
  00661	8d 0c 52	 lea	 ecx, DWORD PTR [edx+edx*2]
  00664	c1 e1 06	 shl	 ecx, 6
  00667	66 83 b9 00 00
	00 00 00	 cmp	 WORD PTR ?profession_skill@@3PAUPROFESSION_SKILL@@A[ecx], 0
  0066f	74 64		 je	 SHORT $LN22@BattleButt

; 1907 : 							if( p_party[ BattleMyNo ]->mp >= profession_skill[BattleSkill [ j + i * 4 ]].costmp && profession_skill[BattleSkill [ j + i * 4 ]].costmp != 0  ) {

  00671	a1 00 00 00 00	 mov	 eax, DWORD PTR ?BattleMyNo@@3HA ; BattleMyNo
  00676	8b 04 85 00 00
	00 00		 mov	 eax, DWORD PTR ?p_party@@3PAPAUaction@@A[eax*4]
  0067d	89 85 f8 fc ff
	ff		 mov	 DWORD PTR tv2614[ebp], eax
  00683	8b d0		 mov	 edx, eax
  00685	8b 81 b8 00 00
	00		 mov	 eax, DWORD PTR ?profession_skill@@3PAUPROFESSION_SKILL@@A[ecx+184]
  0068b	39 82 84 00 00
	00		 cmp	 DWORD PTR [edx+132], eax
  00691	8b 96 00 00 00
	00		 mov	 edx, DWORD PTR ?BattleSkill@@3PAHA[esi]
  00697	7c 3c		 jl	 SHORT $LN22@BattleButt
  00699	85 c0		 test	 eax, eax
  0069b	74 38		 je	 SHORT $LN22@BattleButt

; 1908 : 								if ( !(profession_skill[ BattleSkill [ j + i * 4 ] ].skillId == 40 && p_party[ BattleMyNo ]->hp <= 10) ) { //濒死攻击限制

  0069d	66 83 b9 02 00
	00 00 28	 cmp	 WORD PTR ?profession_skill@@3PAUPROFESSION_SKILL@@A[ecx+2], 40 ; 00000028H
  006a5	75 0c		 jne	 SHORT $LN63@BattleButt
  006a7	8b 85 f8 fc ff
	ff		 mov	 eax, DWORD PTR tv2614[ebp]
  006ad	83 78 78 0a	 cmp	 DWORD PTR [eax+120], 10	; 0000000aH
  006b1	7e 22		 jle	 SHORT $LN22@BattleButt
$LN63@BattleButt:

; 1909 : 									wonflag = 0 ; 
; 1910 : 									prouseskill = BattleSkill [ j + i * 4 ] ; 
; 1911 : 									BattleSetWazaHitBox( profession_skill[BattleSkill [ j + i * 4 ] ].target , 1) ; 

  006b3	0f bf 81 04 00
	00 00		 movsx	 eax, WORD PTR ?profession_skill@@3PAUPROFESSION_SKILL@@A[ecx+4]
  006ba	6a 01		 push	 1
  006bc	50		 push	 eax
  006bd	c7 05 00 00 00
	00 00 00 00 00	 mov	 DWORD PTR ?wonflag@@3HA, 0 ; wonflag
  006c7	89 15 00 00 00
	00		 mov	 DWORD PTR ?prouseskill@@3HA, edx ; prouseskill
  006cd	e8 00 00 00 00	 call	 ?BattleSetWazaHitBox@@YAXHH@Z ; BattleSetWazaHitBox
  006d2	83 c4 08	 add	 esp, 8
$LN22@BattleButt:

; 1874 : 				for ( int j = 0 ; j < 4 ; j ++ ) {

  006d5	83 c7 3c	 add	 edi, 60			; 0000003cH
  006d8	83 c6 04	 add	 esi, 4
  006db	81 ff 22 01 00
	00		 cmp	 edi, 290		; 00000122H
  006e1	0f 8c 59 fd ff
	ff		 jl	 $LL24@BattleButt
$LN19@BattleButt:

; 1873 : 			for ( int i = 0 ; i < 4 ; i ++ ) {

  006e7	8b 85 f0 fc ff
	ff		 mov	 eax, DWORD PTR tv2585[ebp]
  006ed	83 c3 39	 add	 ebx, 57			; 00000039H
  006f0	83 c0 10	 add	 eax, 16			; 00000010H
  006f3	89 85 f0 fc ff
	ff		 mov	 DWORD PTR tv2585[ebp], eax
  006f9	81 fb 4b 01 00
	00		 cmp	 ebx, 331		; 0000014bH
  006ff	0f 8c 2b fd ff
	ff		 jl	 $LL21@BattleButt

; 1912 : 								}
; 1913 : 							}
; 1914 : 						}
; 1915 : 					}
; 1916 : 				}
; 1917 : 			}
; 1918 : 			break;

  00705	e9 b4 02 00 00	 jmp	 $LN14@BattleButt
$LN40@BattleButt:

; 1814 : 		case 0 :
; 1815 : #ifdef _READ16BITBMP
; 1816 : 			if(g_bUseAlpha) StockDispBuffer( 168, 223, DISP_PRIO_IME3, CG_FIELD_SKILL_ASSIT , 0 );
; 1817 : 			else
; 1818 : #endif
; 1819 : 			StockDispBuffer( 165, 221, DISP_PRIO_IME3, CG_FIELD_SKILL_ASSIT , 0 );

  0070a	6a 00		 push	 0
  0070c	68 f4 66 00 00	 push	 26356			; 000066f4H
  00711	6a 69		 push	 105			; 00000069H
  00713	68 dd 00 00 00	 push	 221			; 000000ddH
  00718	68 a5 00 00 00	 push	 165			; 000000a5H
  0071d	e8 00 00 00 00	 call	 ?StockDispBuffer@@YAHHHEHH@Z ; StockDispBuffer
  00722	83 c4 14	 add	 esp, 20			; 00000014H
  00725	be 67 00 00 00	 mov	 esi, 103		; 00000067H
  0072a	33 c0		 xor	 eax, eax
  0072c	89 b5 f8 fc ff
	ff		 mov	 DWORD PTR tv2551[ebp], esi
  00732	89 85 f0 fc ff
	ff		 mov	 DWORD PTR tv2553[ebp], eax
  00738	0f 1f 84 00 00
	00 00 00	 npad	 8
$LL15@BattleButt:

; 1821 : 				for ( int j = 0 ; j < 4 ; j ++ ) {

  00740	bb 32 00 00 00	 mov	 ebx, 50			; 00000032H
  00745	8b f8		 mov	 edi, eax
  00747	66 0f 1f 84 00
	00 00 00 00	 npad	 9
$LL18@BattleButt:

; 1822 : 					if ( AssitSkill [ j + i * 4 ] == -1 ) 

  00750	8b 8f 00 00 00
	00		 mov	 ecx, DWORD PTR ?AssitSkill@@3PAHA[edi]
  00756	83 f9 ff	 cmp	 ecx, -1
  00759	0f 84 3b 02 00
	00		 je	 $LN13@BattleButt

; 1823 : 						break;
; 1824 : 					if ( profession_skill[ AssitSkill [ j + i * 4 ] ].useFlag == 0 )

  0075f	8d 04 49	 lea	 eax, DWORD PTR [ecx+ecx*2]
  00762	c1 e0 06	 shl	 eax, 6
  00765	66 83 b8 00 00
	00 00 00	 cmp	 WORD PTR ?profession_skill@@3PAUPROFESSION_SKILL@@A[eax], 0
  0076d	75 19		 jne	 SHORT $LN126@BattleButt

; 1825 : 						StockDispBuffer ( x + 24 + j * 60 , y + 98 + i * 57 , DISP_PRIO_IME3 + 1 , CG_BTL_BUTTON_CROSS , 0 ) ;

  0076f	6a 00		 push	 0
  00771	68 1d 62 00 00	 push	 25117			; 0000621dH
  00776	6a 6a		 push	 106			; 0000006aH
  00778	56		 push	 esi
  00779	53		 push	 ebx
  0077a	e8 00 00 00 00	 call	 ?StockDispBuffer@@YAHHHEHH@Z ; StockDispBuffer
  0077f	8b 8f 00 00 00
	00		 mov	 ecx, DWORD PTR ?AssitSkill@@3PAHA[edi]
  00785	83 c4 14	 add	 esp, 20			; 00000014H
$LN126@BattleButt:

; 1826 : 					//StockDispBuffer( x + 138 + j * 48 , y + 228 + i * 52 , DISP_PRIO_IME3, CG_FIELD_SKILL_TILE , 0 );
; 1827 : 					AssitSkillBtn [ j + i * 4 ] = StockDispBuffer( x + 24 + j * 60 , y + 98 + i * 57 , DISP_PRIO_IME3 + 1 , profession_skill[ AssitSkill [ j + i * 4 ] ].icon  , 2 );

  00788	8d 04 49	 lea	 eax, DWORD PTR [ecx+ecx*2]
  0078b	c1 e0 06	 shl	 eax, 6
  0078e	6a 02		 push	 2
  00790	ff b0 b4 00 00
	00		 push	 DWORD PTR ?profession_skill@@3PAUPROFESSION_SKILL@@A[eax+180]
  00796	6a 6a		 push	 106			; 0000006aH
  00798	56		 push	 esi
  00799	53		 push	 ebx
  0079a	e8 00 00 00 00	 call	 ?StockDispBuffer@@YAHHHEHH@Z ; StockDispBuffer
  0079f	89 87 00 00 00
	00		 mov	 DWORD PTR ?AssitSkillBtn@@3PAHA[edi], eax

; 1828 : 					sprintf ( msg2 , "%8s" , profession_skill[AssitSkill [ j + i * 4 ]].name );

  007a5	8b 87 00 00 00
	00		 mov	 eax, DWORD PTR ?AssitSkill@@3PAHA[edi]
  007ab	8d 04 40	 lea	 eax, DWORD PTR [eax+eax*2]
  007ae	c1 e0 06	 shl	 eax, 6
  007b1	05 08 00 00 00	 add	 eax, OFFSET ?profession_skill@@3PAUPROFESSION_SKILL@@A+8
  007b6	50		 push	 eax
  007b7	8d 85 fc fe ff
	ff		 lea	 eax, DWORD PTR _msg2$[ebp]
  007bd	68 00 00 00 00	 push	 OFFSET ??_C@_03GHDNOBPC@?$CF8s@
  007c2	50		 push	 eax
  007c3	e8 00 00 00 00	 call	 _sprintf

; 1829 : 					StockFontBuffer( x + j * 60 , y + 110 + i * 57 , FONT_PRIO_FRONT, FONT_PAL_WHITE, msg2, 0 );

  007c8	6a 00		 push	 0
  007ca	8d 85 fc fe ff
	ff		 lea	 eax, DWORD PTR _msg2$[ebp]
  007d0	50		 push	 eax
  007d1	6a 00		 push	 0
  007d3	6a 01		 push	 1
  007d5	8d 46 0c	 lea	 eax, DWORD PTR [esi+12]
  007d8	50		 push	 eax
  007d9	8d 43 e8	 lea	 eax, DWORD PTR [ebx-24]
  007dc	50		 push	 eax
  007dd	e8 00 00 00 00	 call	 ?StockFontBuffer@@YAHHHDHPADH@Z ; StockFontBuffer

; 1830 : 					if ( HitDispNo == AssitSkillBtn [ j + i * 4 ] ){

  007e2	a1 00 00 00 00	 mov	 eax, DWORD PTR ?HitDispNo@@3HA ; HitDispNo
  007e7	83 c4 38	 add	 esp, 56			; 00000038H
  007ea	3b 87 00 00 00
	00		 cmp	 eax, DWORD PTR ?AssitSkillBtn@@3PAHA[edi]
  007f0	0f 85 17 01 00
	00		 jne	 $LN43@BattleButt

; 1831 : 						int use_color=0;
; 1832 : 						if( p_party[ BattleMyNo ]->mp >= profession_skill[AssitSkill [ j + i * 4 ]].costmp && profession_skill[AssitSkill [ j + i * 4 ]].costmp != 0 ){

  007f6	8b 87 00 00 00
	00		 mov	 eax, DWORD PTR ?AssitSkill@@3PAHA[edi]
  007fc	8d 0c 40	 lea	 ecx, DWORD PTR [eax+eax*2]
  007ff	a1 00 00 00 00	 mov	 eax, DWORD PTR ?BattleMyNo@@3HA ; BattleMyNo
  00804	c1 e1 06	 shl	 ecx, 6
  00807	8b 04 85 00 00
	00 00		 mov	 eax, DWORD PTR ?p_party@@3PAPAUaction@@A[eax*4]
  0080e	8b 91 b8 00 00
	00		 mov	 edx, DWORD PTR ?profession_skill@@3PAUPROFESSION_SKILL@@A[ecx+184]
  00814	39 90 84 00 00
	00		 cmp	 DWORD PTR [eax+132], edx
  0081a	7c 08		 jl	 SHORT $LN44@BattleButt
  0081c	85 d2		 test	 edx, edx
  0081e	74 04		 je	 SHORT $LN44@BattleButt

; 1833 : 							use_color = FONT_PAL_WHITE;

  00820	33 c0		 xor	 eax, eax

; 1834 : 						}else{

  00822	eb 05		 jmp	 SHORT $LN45@BattleButt
$LN44@BattleButt:

; 1835 : 							use_color = FONT_PAL_GRAY;									

  00824	b8 07 00 00 00	 mov	 eax, 7
$LN45@BattleButt:

; 1836 : 						}
; 1837 : 						if ( profession_skill[ AssitSkill [ j + i * 4 ] ].skillId == 11	)
; 1838 : 							use_color = FONT_PAL_WHITE; //嗜血成性不做mp限制
; 1839 : 						sprintf ( msg2 , "%s" , profession_skill[AssitSkill [ j + i * 4 ]].name );

  00829	33 f6		 xor	 esi, esi
  0082b	66 83 b9 02 00
	00 00 0b	 cmp	 WORD PTR ?profession_skill@@3PAUPROFESSION_SKILL@@A[ecx+2], 11 ; 0000000bH
  00833	0f 45 f0	 cmovne	 esi, eax
  00836	8d 81 08 00 00
	00		 lea	 eax, DWORD PTR ?profession_skill@@3PAUPROFESSION_SKILL@@A[ecx+8]
  0083c	50		 push	 eax
  0083d	8d 85 fc fe ff
	ff		 lea	 eax, DWORD PTR _msg2$[ebp]
  00843	68 00 00 00 00	 push	 OFFSET ??_C@_02DKCKIIND@?$CFs@
  00848	50		 push	 eax
  00849	e8 00 00 00 00	 call	 _sprintf

; 1840 : 						StockFontBuffer( 20, 312, FONT_PRIO_FRONT, use_color, msg2, 0 );

  0084e	6a 00		 push	 0
  00850	8d 85 fc fe ff
	ff		 lea	 eax, DWORD PTR _msg2$[ebp]
  00856	50		 push	 eax
  00857	56		 push	 esi
  00858	6a 01		 push	 1
  0085a	68 38 01 00 00	 push	 312			; 00000138H
  0085f	6a 14		 push	 20			; 00000014H
  00861	e8 00 00 00 00	 call	 ?StockFontBuffer@@YAHHHDHPADH@Z ; StockFontBuffer

; 1841 : 
; 1842 : 						sprintf( msg , "  %d％", profession_skill[AssitSkill [ j + i * 4 ]].skill_level ) ; 

  00866	8b 87 00 00 00
	00		 mov	 eax, DWORD PTR ?AssitSkill@@3PAHA[edi]
  0086c	8d 04 40	 lea	 eax, DWORD PTR [eax+eax*2]
  0086f	c1 e0 06	 shl	 eax, 6
  00872	ff b0 bc 00 00
	00		 push	 DWORD PTR ?profession_skill@@3PAUPROFESSION_SKILL@@A[eax+188]
  00878	8d 85 fc fd ff
	ff		 lea	 eax, DWORD PTR _msg$[ebp]
  0087e	68 00 00 00 00	 push	 OFFSET ??_C@_06BPKJHHJO@?5?5?$CFd?$KD?$KF@
  00883	50		 push	 eax
  00884	e8 00 00 00 00	 call	 _sprintf

; 1843 : 						StockFontBuffer( 85, 310, FONT_PRIO_FRONT, use_color, msg, 0 );

  00889	6a 00		 push	 0
  0088b	8d 85 fc fd ff
	ff		 lea	 eax, DWORD PTR _msg$[ebp]
  00891	50		 push	 eax
  00892	56		 push	 esi
  00893	6a 01		 push	 1
  00895	68 36 01 00 00	 push	 310			; 00000136H
  0089a	6a 55		 push	 85			; 00000055H
  0089c	e8 00 00 00 00	 call	 ?StockFontBuffer@@YAHHHDHPADH@Z ; StockFontBuffer

; 1844 : 				
; 1845 : 						sprintf ( msg2 , "(소비하다MP:%d)" , profession_skill[AssitSkill [ j + i * 4 ]].costmp );

  008a1	8b 87 00 00 00
	00		 mov	 eax, DWORD PTR ?AssitSkill@@3PAHA[edi]
  008a7	83 c4 48	 add	 esp, 72			; 00000048H
  008aa	8d 04 40	 lea	 eax, DWORD PTR [eax+eax*2]
  008ad	c1 e0 06	 shl	 eax, 6
  008b0	ff b0 b8 00 00
	00		 push	 DWORD PTR ?profession_skill@@3PAUPROFESSION_SKILL@@A[eax+184]
  008b6	8d 85 fc fe ff
	ff		 lea	 eax, DWORD PTR _msg2$[ebp]
  008bc	68 00 00 00 00	 push	 OFFSET ??_C@_0BA@OEIEMLKK@?$CI?$LM?R?$LK?q?G?O?$LE?YMP?3?$CFd?$CJ@
  008c1	50		 push	 eax
  008c2	e8 00 00 00 00	 call	 _sprintf

; 1846 : 						StockFontBuffer( 170, 312, FONT_PRIO_FRONT, use_color, msg2, 0 );				

  008c7	6a 00		 push	 0
  008c9	8d 85 fc fe ff
	ff		 lea	 eax, DWORD PTR _msg2$[ebp]
  008cf	50		 push	 eax
  008d0	56		 push	 esi
  008d1	6a 01		 push	 1
  008d3	68 38 01 00 00	 push	 312			; 00000138H
  008d8	68 aa 00 00 00	 push	 170			; 000000aaH
  008dd	e8 00 00 00 00	 call	 ?StockFontBuffer@@YAHHHDHPADH@Z ; StockFontBuffer

; 1847 : 
; 1848 : 						sprintf( msg , "%s" ,	 profession_skill[AssitSkill [ j + i * 4 ]].memo ) ; 

  008e2	8b 87 00 00 00
	00		 mov	 eax, DWORD PTR ?AssitSkill@@3PAHA[edi]
  008e8	8d 04 40	 lea	 eax, DWORD PTR [eax+eax*2]
  008eb	c1 e0 06	 shl	 eax, 6
  008ee	05 5d 00 00 00	 add	 eax, OFFSET ?profession_skill@@3PAUPROFESSION_SKILL@@A+93
  008f3	50		 push	 eax
  008f4	8d 85 fc fd ff
	ff		 lea	 eax, DWORD PTR _msg$[ebp]
  008fa	68 00 00 00 00	 push	 OFFSET ??_C@_02DKCKIIND@?$CFs@
  008ff	50		 push	 eax
  00900	e8 00 00 00 00	 call	 _sprintf
  00905	a1 00 00 00 00	 mov	 eax, DWORD PTR ?HitDispNo@@3HA ; HitDispNo
  0090a	83 c4 30	 add	 esp, 48			; 00000030H
$LN43@BattleButt:

; 1849 : 					}
; 1850 : 					if( mouse.onceState & MOUSE_LEFT_CRICK_UP ) {

  0090d	f6 05 2c 00 00
	00 04		 test	 BYTE PTR ?mouse@@3UMOUSE@@A+44, 4
  00914	74 6c		 je	 SHORT $LN16@BattleButt

; 1851 : 						if ( HitDispNo == AssitSkillBtn [ j + i * 4 ]  && profession_skill[ AssitSkill [ j + i * 4 ] ].useFlag != 0) {

  00916	3b 87 00 00 00
	00		 cmp	 eax, DWORD PTR ?AssitSkillBtn@@3PAHA[edi]
  0091c	75 64		 jne	 SHORT $LN16@BattleButt
  0091e	8b 97 00 00 00
	00		 mov	 edx, DWORD PTR ?AssitSkill@@3PAHA[edi]
  00924	8d 0c 52	 lea	 ecx, DWORD PTR [edx+edx*2]
  00927	c1 e1 06	 shl	 ecx, 6
  0092a	66 83 b9 00 00
	00 00 00	 cmp	 WORD PTR ?profession_skill@@3PAUPROFESSION_SKILL@@A[ecx], 0
  00932	74 4e		 je	 SHORT $LN16@BattleButt

; 1852 : 							if( p_party[ BattleMyNo ]->mp >= profession_skill[AssitSkill [ j + i * 4 ]].costmp && profession_skill[AssitSkill [ j + i * 4 ]].costmp != 0 ) {

  00934	a1 00 00 00 00	 mov	 eax, DWORD PTR ?BattleMyNo@@3HA ; BattleMyNo
  00939	8b b1 b8 00 00
	00		 mov	 esi, DWORD PTR ?profession_skill@@3PAUPROFESSION_SKILL@@A[ecx+184]
  0093f	8b 04 85 00 00
	00 00		 mov	 eax, DWORD PTR ?p_party@@3PAPAUaction@@A[eax*4]
  00946	39 b0 84 00 00
	00		 cmp	 DWORD PTR [eax+132], esi
  0094c	7c 04		 jl	 SHORT $LN125@BattleButt
  0094e	85 f6		 test	 esi, esi
  00950	75 0e		 jne	 SHORT $LN144@BattleButt
$LN125@BattleButt:

; 1853 : 								wonflag = 0 ; 
; 1854 : 								prouseskill = AssitSkill [ j + i * 4 ] ; 
; 1855 : 								BattleSetWazaHitBox( profession_skill[AssitSkill [ j + i * 4 ] ].target , 1) ; 
; 1856 : 							}
; 1857 : 							else if ( profession_skill[ AssitSkill [ j + i * 4 ] ].skillId == 11 && profession_skill[AssitSkill [ j + i * 4 ]].costmp == 0 ) { //嗜血成性不做mp限制

  00952	66 83 b9 02 00
	00 00 0b	 cmp	 WORD PTR ?profession_skill@@3PAUPROFESSION_SKILL@@A[ecx+2], 11 ; 0000000bH
  0095a	75 26		 jne	 SHORT $LN16@BattleButt
  0095c	85 f6		 test	 esi, esi
  0095e	75 22		 jne	 SHORT $LN16@BattleButt
$LN144@BattleButt:

; 1821 : 				for ( int j = 0 ; j < 4 ; j ++ ) {

  00960	0f bf 81 04 00
	00 00		 movsx	 eax, WORD PTR ?profession_skill@@3PAUPROFESSION_SKILL@@A[ecx+4]
  00967	6a 01		 push	 1
  00969	50		 push	 eax
  0096a	c7 05 00 00 00
	00 00 00 00 00	 mov	 DWORD PTR ?wonflag@@3HA, 0 ; wonflag
  00974	89 15 00 00 00
	00		 mov	 DWORD PTR ?prouseskill@@3HA, edx ; prouseskill
  0097a	e8 00 00 00 00	 call	 ?BattleSetWazaHitBox@@YAXHH@Z ; BattleSetWazaHitBox
  0097f	83 c4 08	 add	 esp, 8
$LN16@BattleButt:
  00982	8b b5 f8 fc ff
	ff		 mov	 esi, DWORD PTR tv2551[ebp]
  00988	83 c3 3c	 add	 ebx, 60			; 0000003cH
  0098b	83 c7 04	 add	 edi, 4
  0098e	81 fb 22 01 00
	00		 cmp	 ebx, 290		; 00000122H
  00994	0f 8c b6 fd ff
	ff		 jl	 $LL18@BattleButt
$LN13@BattleButt:

; 1820 : 			for ( int i = 0 ; i < 4 ; i ++ ) {

  0099a	8b 85 f0 fc ff
	ff		 mov	 eax, DWORD PTR tv2553[ebp]
  009a0	83 c6 39	 add	 esi, 57			; 00000039H
  009a3	83 c0 10	 add	 eax, 16			; 00000010H
  009a6	89 b5 f8 fc ff
	ff		 mov	 DWORD PTR tv2551[ebp], esi
  009ac	89 85 f0 fc ff
	ff		 mov	 DWORD PTR tv2553[ebp], eax
  009b2	81 fe 4b 01 00
	00		 cmp	 esi, 331		; 0000014bH
  009b8	0f 8c 82 fd ff
	ff		 jl	 $LL15@BattleButt
$LN14@BattleButt:

; 1979 : 		default:
; 1980 : 			break;
; 1981 : 		}
; 1982 : 		char *splitPoint =  msg  ; 

  009be	8d b5 fc fd ff
	ff		 lea	 esi, DWORD PTR _msg$[ebp]

; 1983 : 		sprintf( buf , "%s" , msg ) ; 

  009c4	8b c6		 mov	 eax, esi
  009c6	50		 push	 eax
  009c7	8d 85 fc fc ff
	ff		 lea	 eax, DWORD PTR _buf$[ebp]
  009cd	68 00 00 00 00	 push	 OFFSET ??_C@_02DKCKIIND@?$CFs@
  009d2	50		 push	 eax
  009d3	e8 00 00 00 00	 call	 _sprintf
  009d8	83 c4 0c	 add	 esp, 12			; 0000000cH

; 1984 : 		x = 18 ; 
; 1985 : 		y = 340 ; 
; 1986 : 		while( 1 ){
; 1987 : 			if( strlen( splitPoint ) > 34 ) {

  009db	8b ce		 mov	 ecx, esi
  009dd	bf 54 01 00 00	 mov	 edi, 340		; 00000154H
  009e2	8d 51 01	 lea	 edx, DWORD PTR [ecx+1]
  009e5	5b		 pop	 ebx
$LL139@BattleButt:
  009e6	8a 01		 mov	 al, BYTE PTR [ecx]
  009e8	41		 inc	 ecx
  009e9	84 c0		 test	 al, al
  009eb	75 f9		 jne	 SHORT $LL139@BattleButt
  009ed	2b ca		 sub	 ecx, edx
  009ef	83 f9 22	 cmp	 ecx, 34			; 00000022H
  009f2	76 7a		 jbe	 SHORT $LN74@BattleButt
$LL31@BattleButt:

; 1988 : 				strncpy( msg, splitPoint, 34 );

  009f4	6a 22		 push	 34			; 00000022H
  009f6	8d 85 fc fd ff
	ff		 lea	 eax, DWORD PTR _msg$[ebp]
  009fc	56		 push	 esi
  009fd	50		 push	 eax
  009fe	e8 00 00 00 00	 call	 _strncpy

; 1989 : 				buf[ 34 ] = NULL;
; 1990 : 				if( GetStrLastByte( buf ) == 3 ){

  00a03	8d 85 fc fc ff
	ff		 lea	 eax, DWORD PTR _buf$[ebp]
  00a09	c6 85 1e fd ff
	ff 00		 mov	 BYTE PTR _buf$[ebp+34], 0
  00a10	50		 push	 eax
  00a11	e8 00 00 00 00	 call	 ?GetStrLastByte@@YAHPAD@Z ; GetStrLastByte
  00a16	83 c4 10	 add	 esp, 16			; 00000010H
  00a19	83 f8 03	 cmp	 eax, 3
  00a1c	75 0e		 jne	 SHORT $LN76@BattleButt

; 1991 : 					buf[ 33 ] = NULL;

  00a1e	c6 85 1d fd ff
	ff 00		 mov	 BYTE PTR _buf$[ebp+33], 0

; 1992 : 					splitPoint += 33;

  00a25	b8 21 00 00 00	 mov	 eax, 33			; 00000021H

; 1993 : 				}else{

  00a2a	eb 0c		 jmp	 SHORT $LN77@BattleButt
$LN76@BattleButt:

; 1994 : 					buf[ 34 ] = NULL;

  00a2c	c6 85 1e fd ff
	ff 00		 mov	 BYTE PTR _buf$[ebp+34], 0

; 1995 : 					splitPoint += 34;

  00a33	b8 22 00 00 00	 mov	 eax, 34			; 00000022H
$LN77@BattleButt:

; 1996 : 				}
; 1997 : 				StockFontBuffer( x, y , FONT_PRIO_FRONT, 0, buf, 0 ); y += 24;

  00a38	6a 00		 push	 0
  00a3a	03 f0		 add	 esi, eax
  00a3c	8d 85 fc fc ff
	ff		 lea	 eax, DWORD PTR _buf$[ebp]
  00a42	50		 push	 eax
  00a43	6a 00		 push	 0
  00a45	6a 01		 push	 1
  00a47	57		 push	 edi
  00a48	6a 12		 push	 18			; 00000012H
  00a4a	e8 00 00 00 00	 call	 ?StockFontBuffer@@YAHHHDHPADH@Z ; StockFontBuffer
  00a4f	8b ce		 mov	 ecx, esi
  00a51	83 c4 18	 add	 esp, 24			; 00000018H
  00a54	83 c7 18	 add	 edi, 24			; 00000018H
  00a57	8d 51 01	 lea	 edx, DWORD PTR [ecx+1]
  00a5a	66 0f 1f 44 00
	00		 npad	 6
$LL140@BattleButt:

; 1984 : 		x = 18 ; 
; 1985 : 		y = 340 ; 
; 1986 : 		while( 1 ){
; 1987 : 			if( strlen( splitPoint ) > 34 ) {

  00a60	8a 01		 mov	 al, BYTE PTR [ecx]
  00a62	41		 inc	 ecx
  00a63	84 c0		 test	 al, al
  00a65	75 f9		 jne	 SHORT $LL140@BattleButt
  00a67	2b ca		 sub	 ecx, edx
  00a69	83 f9 22	 cmp	 ecx, 34			; 00000022H
  00a6c	77 86		 ja	 SHORT $LL31@BattleButt
$LN74@BattleButt:

; 1998 : 			}else{
; 1999 : 				strcpy( buf, splitPoint );

  00a6e	8d 8d fc fc ff
	ff		 lea	 ecx, DWORD PTR _buf$[ebp]
  00a74	2b ce		 sub	 ecx, esi
$LL87@BattleButt:
  00a76	8a 06		 mov	 al, BYTE PTR [esi]
  00a78	8d 76 01	 lea	 esi, DWORD PTR [esi+1]
  00a7b	88 44 0e ff	 mov	 BYTE PTR [esi+ecx-1], al
  00a7f	84 c0		 test	 al, al
  00a81	75 f3		 jne	 SHORT $LL87@BattleButt

; 2000 : 				StockFontBuffer( x, y, FONT_PRIO_FRONT, 0, buf, 0 );

  00a83	6a 00		 push	 0
  00a85	8d 85 fc fc ff
	ff		 lea	 eax, DWORD PTR _buf$[ebp]
  00a8b	50		 push	 eax
  00a8c	6a 00		 push	 0
  00a8e	6a 01		 push	 1
  00a90	57		 push	 edi
  00a91	6a 12		 push	 18			; 00000012H
  00a93	e8 00 00 00 00	 call	 ?StockFontBuffer@@YAHHHDHPADH@Z ; StockFontBuffer
  00a98	83 c4 18	 add	 esp, 24			; 00000018H
  00a9b	5f		 pop	 edi
  00a9c	5e		 pop	 esi
$LN34@BattleButt:

; 2001 : 				break;
; 2002 : 			}
; 2003 : 		}
; 2004 : //	StockFontBuffer ( 300 , 400 , FONT_PRIO_FRONT , FONT_PAL_WHITE , msg , 0 ) ; 
; 2005 : 	}
; 2006 : }

  00a9d	8b 4d fc	 mov	 ecx, DWORD PTR __$ArrayPad$[ebp]
  00aa0	33 cd		 xor	 ecx, ebp
  00aa2	e8 00 00 00 00	 call	 @__security_check_cookie@4
  00aa7	8b e5		 mov	 esp, ebp
  00aa9	5d		 pop	 ebp
  00aaa	c3		 ret	 0
?BattleButtonPPLSKILL@@YAXXZ ENDP			; BattleButtonPPLSKILL
_TEXT	ENDS
; Function compile flags: /Ogtp
; File \\VBOXSVR\_stoneage\repos\ssm-sacli\system\battleMenu.cpp
;	COMDAT ?BattleButtonPet@@YAXXZ
_TEXT	SEGMENT
_color$1$ = -292					; size = 4
_i$2$ = -288						; size = 4
_y$1$ = -284						; size = 4
tv1544 = -280						; size = 4
_atrGraNo$ = -276					; size = 16
_moji$ = -260						; size = 256
__$ArrayPad$ = -4					; size = 4
?BattleButtonPet@@YAXXZ PROC				; BattleButtonPet, COMDAT

; 1559 : {

  00000	55		 push	 ebp
  00001	8b ec		 mov	 ebp, esp
  00003	81 ec 24 01 00
	00		 sub	 esp, 292		; 00000124H
  00009	a1 00 00 00 00	 mov	 eax, DWORD PTR ___security_cookie
  0000e	33 c5		 xor	 eax, ebp
  00010	89 45 fc	 mov	 DWORD PTR __$ArrayPad$[ebp], eax

; 1560 : 	int i, bak;
; 1561 : 	char moji[ 256 ];
; 1562 : 	int x, y;
; 1563 : 	int flag = FALSE;
; 1564 : 	int atrFlag = FALSE;
; 1565 : 	int atrGraNo[ 4 ];
; 1566 : 	int color;
; 1567 : 	if( HitDispNo == battleButtonDispNo[ 6 ] || battleButtonBak2 == 6 ){

  00013	a1 00 00 00 00	 mov	 eax, DWORD PTR ?HitDispNo@@3HA ; HitDispNo
  00018	56		 push	 esi
  00019	57		 push	 edi
  0001a	33 ff		 xor	 edi, edi
  0001c	3b 05 18 00 00
	00		 cmp	 eax, DWORD PTR ?battleButtonDispNo@@3PAHA+24
  00022	a1 00 00 00 00	 mov	 eax, DWORD PTR ?battleButtonBak2@@3HA
  00027	74 10		 je	 SHORT $LN12@BattleButt
  00029	83 f8 06	 cmp	 eax, 6
  0002c	74 0b		 je	 SHORT $LN12@BattleButt
  0002e	8b 0d 00 00 00
	00		 mov	 ecx, DWORD PTR ?pActWnd@@3PAUaction@@A
  00034	e9 c0 00 00 00	 jmp	 $LN11@BattleButt
$LN12@BattleButt:

; 1568 : 
; 1569 : 		if( mouse.onceState & MOUSE_LEFT_CRICK || battleButtonBak2 == 6 ){

  00039	f6 05 2c 00 00
	00 01		 test	 BYTE PTR ?mouse@@3UMOUSE@@A+44, 1
  00040	75 09		 jne	 SHORT $LN14@BattleButt
  00042	83 f8 06	 cmp	 eax, 6
  00045	0f 85 82 00 00
	00		 jne	 $LN75@BattleButt
$LN14@BattleButt:

; 1570 : 			bak = battleButtonFlag[ 6 ];

  0004b	8b 35 18 00 00
	00		 mov	 esi, DWORD PTR ?battleButtonFlag@@3PAHA+24

; 1571 : 			BattleButtonOff();

  00051	e8 00 00 00 00	 call	 ?BattleButtonOff@@YAXXZ	; BattleButtonOff

; 1572 : 
; 1573 : 			if( bak == FALSE ){

  00056	85 f6		 test	 esi, esi
  00058	75 73		 jne	 SHORT $LN75@BattleButt

; 1574 : 
; 1575 : 				battleButtonFlag[ 6 ] = TRUE;
; 1576 : 
; 1577 : 				for( i = 0 ; i < BATTLE_MENU_PET_FONTS ; i++ ) battleMenuPetFontNo[ i ] = -2;

  0005a	0f 28 05 00 00
	00 00		 movaps	 xmm0, XMMWORD PTR __xmm@fffffffefffffffefffffffefffffffe

; 1578 : 
; 1579 : 				pActWnd = MakeWindowDisp( 376, 132, 256, 320, 0, -1 );

  00061	6a ff		 push	 -1
  00063	56		 push	 esi
  00064	68 40 01 00 00	 push	 320			; 00000140H
  00069	68 00 01 00 00	 push	 256			; 00000100H
  0006e	68 84 00 00 00	 push	 132			; 00000084H
  00073	68 78 01 00 00	 push	 376			; 00000178H
  00078	c7 05 18 00 00
	00 01 00 00 00	 mov	 DWORD PTR ?battleButtonFlag@@3PAHA+24, 1
  00082	0f 11 05 00 00
	00 00		 movups	 XMMWORD PTR ?battleMenuPetFontNo@@3PAHA, xmm0
  00089	c7 05 10 00 00
	00 fe ff ff ff	 mov	 DWORD PTR ?battleMenuPetFontNo@@3PAHA+16, -2 ; fffffffeH
  00093	c7 05 14 00 00
	00 fe ff ff ff	 mov	 DWORD PTR ?battleMenuPetFontNo@@3PAHA+20, -2 ; fffffffeH
  0009d	c7 05 18 00 00
	00 fe ff ff ff	 mov	 DWORD PTR ?battleMenuPetFontNo@@3PAHA+24, -2 ; fffffffeH
  000a7	e8 00 00 00 00	 call	 ?MakeWindowDisp@@YAPAUaction@@HHHHHH@Z ; MakeWindowDisp
  000ac	8b c8		 mov	 ecx, eax

; 1580 : 
; 1581 : 				battleButtonBak = 6;

  000ae	c7 05 00 00 00
	00 06 00 00 00	 mov	 DWORD PTR ?battleButtonBak@@3HA, 6 ; battleButtonBak
  000b8	83 c4 18	 add	 esp, 24			; 00000018H
  000bb	89 0d 00 00 00
	00		 mov	 DWORD PTR ?pActWnd@@3PAUaction@@A, ecx

; 1582 : 
; 1583 : 				battleButtonBak2 = -1;

  000c1	c7 05 00 00 00
	00 ff ff ff ff	 mov	 DWORD PTR ?battleButtonBak2@@3HA, -1
  000cb	eb 06		 jmp	 SHORT $LN15@BattleButt
$LN75@BattleButt:

; 1572 : 
; 1573 : 			if( bak == FALSE ){

  000cd	8b 0d 00 00 00
	00		 mov	 ecx, DWORD PTR ?pActWnd@@3PAUaction@@A
$LN15@BattleButt:

; 1584 : 			}	
; 1585 : 		}
; 1586 : 
; 1587 : 		strcpy( OneLineInfoStr, "페트교체。");

  000d3	66 a1 08 00 00
	00		 mov	 ax, WORD PTR ??_C@_0L@CJKKBEMM@?F?d?F?$KO?$LB?$LD?C?$LM?$KB?$KD@+8
  000d9	f3 0f 7e 05 00
	00 00 00	 movq	 xmm0, QWORD PTR ??_C@_0L@CJKKBEMM@?F?d?F?$KO?$LB?$LD?C?$LM?$KB?$KD@
  000e1	66 a3 08 00 00
	00		 mov	 WORD PTR ?OneLineInfoStr@@3PADA+8, ax
  000e7	a0 0a 00 00 00	 mov	 al, BYTE PTR ??_C@_0L@CJKKBEMM@?F?d?F?$KO?$LB?$LD?C?$LM?$KB?$KD@+10
  000ec	66 0f d6 05 00
	00 00 00	 movq	 QWORD PTR ?OneLineInfoStr@@3PADA, xmm0
  000f4	a2 0a 00 00 00	 mov	 BYTE PTR ?OneLineInfoStr@@3PADA+10, al
$LN11@BattleButt:

; 1588 : 	}
; 1589 : 
; 1590 : 	if( battleButtonFlag[ 6 ] == TRUE ){

  000f9	83 3d 18 00 00
	00 01		 cmp	 DWORD PTR ?battleButtonFlag@@3PAHA+24, 1
  00100	0f 85 0d 05 00
	00		 jne	 $LN51@BattleButt

; 1591 : 		if( pActWnd != NULL ){

  00106	85 c9		 test	 ecx, ecx
  00108	0f 84 05 05 00
	00		 je	 $LN51@BattleButt

; 1592 : 			if( pActWnd->hp > 0 ){

  0010e	39 79 78	 cmp	 DWORD PTR [ecx+120], edi
  00111	0f 8e fc 04 00
	00		 jle	 $LN51@BattleButt

; 1593 : 				int x = ((WINDOW_DISP*)pActWnd->pYobi)->mx;
; 1594 : 				int y = ((WINDOW_DISP*)pActWnd->pYobi)->my;

  00117	8b 49 0c	 mov	 ecx, DWORD PTR [ecx+12]

; 1595 : 				int offsetX = 0, offsetY = 0;
; 1596 : 				int 召回offsetX = 0, 召回offsetY = 0;
; 1597 : #ifdef 战斗5宠
; 1598 : 				offsetX = 230;
; 1599 : 				offsetY = 80;
; 1600 : 				召回offsetY = offsetY + 35;
; 1601 : #endif // 战斗5宠
; 1602 : 
; 1603 : 				StockDispBuffer(x - offsetX, y - offsetY-36, DISP_PRIO_MENU, CG_BTL_PET_CHANGE_WND, 1);//画背景图

  0011a	6a 01		 push	 1
  0011c	ff 35 00 00 00
	00		 push	 DWORD PTR ?CG_BTL_PET_CHANGE_WND@@3HA ; CG_BTL_PET_CHANGE_WND
  00122	8b 41 18	 mov	 eax, DWORD PTR [ecx+24]
  00125	83 e8 74	 sub	 eax, 116		; 00000074H
  00128	6a 68		 push	 104			; 00000068H
  0012a	50		 push	 eax
  0012b	8b 41 14	 mov	 eax, DWORD PTR [ecx+20]
  0012e	2d e6 00 00 00	 sub	 eax, 230		; 000000e6H
  00133	50		 push	 eax
  00134	e8 00 00 00 00	 call	 ?StockDispBuffer@@YAHHHEHH@Z ; StockDispBuffer

; 1604 : 				if( mouse.onceState & MOUSE_LEFT_CRICK ){

  00139	8b 0d 00 00 00
	00		 mov	 ecx, DWORD PTR ?pActWnd@@3PAUaction@@A
  0013f	83 c4 14	 add	 esp, 20			; 00000014H
  00142	f6 05 2c 00 00
	00 01		 test	 BYTE PTR ?mouse@@3UMOUSE@@A+44, 1
  00149	0f 84 93 01 00
	00		 je	 $LN29@BattleButt

; 1605 : 					for( i = 0 ; i < 5 ; i++ ){

  0014f	33 f6		 xor	 esi, esi
  00151	bf 08 00 00 00	 mov	 edi, OFFSET ?pet@@3PAUPET@@A+8
  00156	66 66 0f 1f 84
	00 00 00 00 00	 npad	 10
$LL7@BattleButt:

; 1606 : 						if( pet[ i ].useFlag == TRUE /*&& pc.selectPetNo[ i ] == TRUE*/ ){

  00160	66 83 7f 6e 01	 cmp	 WORD PTR [edi+110], 1
  00165	0f 85 cb 00 00
	00		 jne	 $LN5@BattleButt

; 1607 : 					//	if (pet[i].useFlag == TRUE && pc.selectPetNo[ i ] == TRUE){
; 1608 : 							if( HitFontNo == battleMenuPetFontNo[ i ] ){

  0016b	a1 00 00 00 00	 mov	 eax, DWORD PTR ?HitFontNo@@3HA ; HitFontNo
  00170	3b 04 b5 00 00
	00 00		 cmp	 eax, DWORD PTR ?battleMenuPetFontNo@@3PAHA[esi*4]
  00177	0f 85 b9 00 00
	00		 jne	 $LN5@BattleButt

; 1609 : 								if( pet[ i ].hp > 0 && i != pc.battlePetNo ){

  0017d	83 3f 00	 cmp	 DWORD PTR [edi], 0
  00180	0f 8e 93 00 00
	00		 jle	 $LN22@BattleButt
  00186	0f bf 05 aa 00
	00 00		 movsx	 eax, WORD PTR ?pc@@3UPC@@A+170
  0018d	3b f0		 cmp	 esi, eax
  0018f	0f 84 84 00 00
	00		 je	 $LN22@BattleButt

; 1610 : 									sprintf( moji, "S|%d", i );

  00195	56		 push	 esi
  00196	8d 85 fc fe ff
	ff		 lea	 eax, DWORD PTR _moji$[ebp]
  0019c	68 00 00 00 00	 push	 OFFSET ??_C@_04FIJAIIHF@S?$HM?$CFd@
  001a1	50		 push	 eax
  001a2	e8 00 00 00 00	 call	 _sprintf
  001a7	83 c4 0c	 add	 esp, 12			; 0000000cH

; 1611 : 									if( bNewServer)

  001aa	8d 85 fc fe ff
	ff		 lea	 eax, DWORD PTR _moji$[ebp]
  001b0	83 3d 00 00 00
	00 00		 cmp	 DWORD PTR ?bNewServer@@3HA, 0 ; bNewServer
  001b7	50		 push	 eax
  001b8	ff 35 00 00 00
	00		 push	 DWORD PTR ?sockfd@@3IA	; sockfd
  001be	74 07		 je	 SHORT $LN24@BattleButt

; 1612 : 										lssproto_B_send( sockfd, moji );

  001c0	e8 00 00 00 00	 call	 ?lssproto_B_send@@YAXHPAD@Z ; lssproto_B_send
  001c5	eb 05		 jmp	 SHORT $LN81@BattleButt
$LN24@BattleButt:

; 1613 : 									else
; 1614 : 										old_lssproto_B_send( sockfd, moji );

  001c7	e8 00 00 00 00	 call	 ?old_lssproto_B_send@@YAXHPAD@Z ; old_lssproto_B_send
$LN81@BattleButt:

; 1615 : 
; 1616 : 									play_se( 203, 320, 240 );

  001cc	83 c4 08	 add	 esp, 8
  001cf	68 f0 00 00 00	 push	 240			; 000000f0H
  001d4	68 40 01 00 00	 push	 320			; 00000140H
  001d9	68 cb 00 00 00	 push	 203			; 000000cbH
  001de	e8 00 00 00 00	 call	 ?play_se@@YAHHHH@Z	; play_se

; 1617 : 
; 1618 : 									DeathAction( pActWnd );

  001e3	ff 35 00 00 00
	00		 push	 DWORD PTR ?pActWnd@@3PAUaction@@A
  001e9	e8 00 00 00 00	 call	 ?DeathAction@@YAXPAUaction@@@Z ; DeathAction
  001ee	83 c4 10	 add	 esp, 16			; 00000010H

; 1619 : 
; 1620 : 									pActWnd = NULL;
; 1621 : 
; 1622 : 									battleMenuReturn = TRUE;

  001f1	c7 05 00 00 00
	00 01 00 00 00	 mov	 DWORD PTR ?battleMenuReturn@@3HA, 1
  001fb	33 c9		 xor	 ecx, ecx

; 1623 : 
; 1624 : 									battleButtonBak = -1;

  001fd	c7 05 00 00 00
	00 ff ff ff ff	 mov	 DWORD PTR ?battleButtonBak@@3HA, -1 ; battleButtonBak
  00207	89 0d 00 00 00
	00		 mov	 DWORD PTR ?pActWnd@@3PAUaction@@A, ecx

; 1625 : 
; 1626 : 									battleButtonBak2 = -1;

  0020d	c7 05 00 00 00
	00 ff ff ff ff	 mov	 DWORD PTR ?battleButtonBak2@@3HA, -1

; 1627 : 								}else{

  00217	eb 1d		 jmp	 SHORT $LN5@BattleButt
$LN22@BattleButt:

; 1628 : 									play_se( 220, 320, 240 );

  00219	68 f0 00 00 00	 push	 240			; 000000f0H
  0021e	68 40 01 00 00	 push	 320			; 00000140H
  00223	68 dc 00 00 00	 push	 220			; 000000dcH
  00228	e8 00 00 00 00	 call	 ?play_se@@YAHHHH@Z	; play_se
  0022d	8b 0d 00 00 00
	00		 mov	 ecx, DWORD PTR ?pActWnd@@3PAUaction@@A
  00233	83 c4 0c	 add	 esp, 12			; 0000000cH
$LN5@BattleButt:

; 1605 : 					for( i = 0 ; i < 5 ; i++ ){

  00236	46		 inc	 esi
  00237	81 c7 78 0b 00
	00		 add	 edi, 2936		; 00000b78H
  0023d	83 fe 05	 cmp	 esi, 5
  00240	0f 8c 1a ff ff
	ff		 jl	 $LL7@BattleButt

; 1629 : 								}
; 1630 : 							}
; 1631 : 						}
; 1632 : 					}
; 1633 : 
; 1634 : 					if( HitDispNo == battleMenuPetFontNo[ 5 ] && pc.battlePetNo != -1 ){

  00246	a1 00 00 00 00	 mov	 eax, DWORD PTR ?HitDispNo@@3HA ; HitDispNo
  0024b	3b 05 14 00 00
	00		 cmp	 eax, DWORD PTR ?battleMenuPetFontNo@@3PAHA+20
  00251	75 7a		 jne	 SHORT $LN77@BattleButt
  00253	66 83 3d aa 00
	00 00 ff	 cmp	 WORD PTR ?pc@@3UPC@@A+170, -1
  0025b	74 70		 je	 SHORT $LN77@BattleButt

; 1635 : 
; 1636 : 						if( bNewServer)

  0025d	83 3d 00 00 00
	00 00		 cmp	 DWORD PTR ?bNewServer@@3HA, 0 ; bNewServer
  00264	68 00 00 00 00	 push	 OFFSET ??_C@_04JBEPHANM@S?$HM?91@
  00269	ff 35 00 00 00
	00		 push	 DWORD PTR ?sockfd@@3IA	; sockfd
  0026f	74 07		 je	 SHORT $LN27@BattleButt

; 1637 : 							lssproto_B_send( sockfd, "S|-1" );

  00271	e8 00 00 00 00	 call	 ?lssproto_B_send@@YAXHPAD@Z ; lssproto_B_send
  00276	eb 05		 jmp	 SHORT $LN82@BattleButt
$LN27@BattleButt:

; 1638 : 						else
; 1639 : 							old_lssproto_B_send( sockfd, "S|-1" );

  00278	e8 00 00 00 00	 call	 ?old_lssproto_B_send@@YAXHPAD@Z ; old_lssproto_B_send
$LN82@BattleButt:

; 1640 : 
; 1641 : 						play_se( 203, 320, 240 );

  0027d	83 c4 08	 add	 esp, 8
  00280	68 f0 00 00 00	 push	 240			; 000000f0H
  00285	68 40 01 00 00	 push	 320			; 00000140H
  0028a	68 cb 00 00 00	 push	 203			; 000000cbH
  0028f	e8 00 00 00 00	 call	 ?play_se@@YAHHHH@Z	; play_se

; 1642 : 
; 1643 : 						DeathAction( pActWnd );

  00294	ff 35 00 00 00
	00		 push	 DWORD PTR ?pActWnd@@3PAUaction@@A
  0029a	e8 00 00 00 00	 call	 ?DeathAction@@YAXPAUaction@@@Z ; DeathAction
  0029f	a1 00 00 00 00	 mov	 eax, DWORD PTR ?HitDispNo@@3HA ; HitDispNo
  002a4	83 c4 10	 add	 esp, 16			; 00000010H

; 1644 : 
; 1645 : 						pActWnd = NULL;

  002a7	33 c9		 xor	 ecx, ecx

; 1646 : 
; 1647 : 						battleMenuReturn = TRUE;

  002a9	c7 05 00 00 00
	00 01 00 00 00	 mov	 DWORD PTR ?battleMenuReturn@@3HA, 1
  002b3	89 0d 00 00 00
	00		 mov	 DWORD PTR ?pActWnd@@3PAUaction@@A, ecx

; 1648 : 
; 1649 : 						battleButtonBak = -1;

  002b9	c7 05 00 00 00
	00 ff ff ff ff	 mov	 DWORD PTR ?battleButtonBak@@3HA, -1 ; battleButtonBak

; 1650 : 
; 1651 : 						battleButtonBak2 = -1;

  002c3	c7 05 00 00 00
	00 ff ff ff ff	 mov	 DWORD PTR ?battleButtonBak2@@3HA, -1
$LN77@BattleButt:

; 1652 : 					}
; 1653 : 
; 1654 : 					if( HitDispNo == battleMenuPetFontNo[ 6 ] ){

  002cd	3b 05 18 00 00
	00		 cmp	 eax, DWORD PTR ?battleMenuPetFontNo@@3PAHA+24
  002d3	75 0b		 jne	 SHORT $LN80@BattleButt

; 1655 : 						BattleButtonOff();				

  002d5	e8 00 00 00 00	 call	 ?BattleButtonOff@@YAXXZ	; BattleButtonOff
  002da	8b 0d 00 00 00
	00		 mov	 ecx, DWORD PTR ?pActWnd@@3PAUaction@@A
$LN80@BattleButt:

; 1656 : 					}
; 1657 : 				}
; 1658 : 
; 1659 : 				if( pActWnd != NULL ){

  002e0	33 ff		 xor	 edi, edi
$LN29@BattleButt:
  002e2	85 c9		 test	 ecx, ecx
  002e4	0f 84 29 03 00
	00		 je	 $LN51@BattleButt

; 1660 : 					x = pActWnd->x + 17, y = pActWnd->y + 33;

  002ea	8b 71 1c	 mov	 esi, DWORD PTR [ecx+28]
  002ed	33 d2		 xor	 edx, edx
  002ef	8b 41 18	 mov	 eax, DWORD PTR [ecx+24]
  002f2	83 c6 21	 add	 esi, 33			; 00000021H
  002f5	53		 push	 ebx
  002f6	89 85 e8 fe ff
	ff		 mov	 DWORD PTR tv1544[ebp], eax
  002fc	33 db		 xor	 ebx, ebx
  002fe	89 b5 e4 fe ff
	ff		 mov	 DWORD PTR _y$1$[ebp], esi
  00304	89 95 e0 fe ff
	ff		 mov	 DWORD PTR _i$2$[ebp], edx
  0030a	66 0f 1f 44 00
	00		 npad	 6
$LL10@BattleButt:

; 1663 : 						//JL 2017.7.12 pc.selectPetNo[ i ] == TRUE 加上后修复休息宠可以唤出的问题
; 1664 : 						if( pet[ i ].useFlag == TRUE && pc.selectPetNo[ i ] == TRUE  && pc.ridePetNo != i  && pc.battlePetNo != i ){

  00310	66 83 bb 76 00
	00 00 01	 cmp	 WORD PTR ?pet@@3PAUPET@@A[ebx+118], 1
  00318	0f 85 0f 02 00
	00		 jne	 $LN8@BattleButt
  0031e	66 83 3c 55 ac
	00 00 00 01	 cmp	 WORD PTR ?pc@@3UPC@@A[edx*2+172], 1
  00327	0f 85 00 02 00
	00		 jne	 $LN8@BattleButt
  0032d	39 15 18 51 00
	00		 cmp	 DWORD PTR ?pc@@3UPC@@A+20760, edx
  00333	0f 84 f4 01 00
	00		 je	 $LN8@BattleButt
  00339	0f bf 05 aa 00
	00 00		 movsx	 eax, WORD PTR ?pc@@3UPC@@A+170
  00340	3b c2		 cmp	 eax, edx
  00342	0f 84 e5 01 00
	00		 je	 $LN8@BattleButt

; 1665 : 							atrFlag = FALSE;

  00348	33 ff		 xor	 edi, edi

; 1666 : 							color = FONT_PAL_AQUA;
; 1667 : 							if( pet[ i ].hp <= 0 ) color = FONT_PAL_RED;
; 1668 : 							if( i == pc.battlePetNo ) color = FONT_PAL_YELLOW;

  0034a	b9 01 00 00 00	 mov	 ecx, 1
  0034f	39 bb 08 00 00
	00		 cmp	 DWORD PTR ?pet@@3PAUPET@@A[ebx+8], edi
  00355	b8 06 00 00 00	 mov	 eax, 6

; 1669 : 
; 1670 : 							if( pet[ i ].freeName[ 0 ] != NULL )
; 1671 : 								CenteringStr( pet[ i ].freeName, moji, PET_NAME_LEN );
; 1672 : 							else
; 1673 : 								CenteringStr( pet[ i ].name, moji, PET_NAME_LEN );
; 1674 : #ifdef 战斗5宠
; 1675 : 							battleMenuPetFontNo[i] = StockFontBuffer(x - offsetX, y - offsetY - 35, FONT_PRIO_FRONT, color, moji, 2);//打印名字

  0035a	6a 10		 push	 16			; 00000010H
  0035c	0f 4f c1	 cmovg	 eax, ecx
  0035f	80 bb 65 00 00
	00 00		 cmp	 BYTE PTR ?pet@@3PAUPET@@A[ebx+101], 0
  00366	89 85 dc fe ff
	ff		 mov	 DWORD PTR _color$1$[ebp], eax
  0036c	b9 54 00 00 00	 mov	 ecx, OFFSET ?pet@@3PAUPET@@A+84
  00371	b8 65 00 00 00	 mov	 eax, OFFSET ?pet@@3PAUPET@@A+101
  00376	0f 44 c1	 cmove	 eax, ecx
  00379	8d 8d fc fe ff
	ff		 lea	 ecx, DWORD PTR _moji$[ebp]
  0037f	51		 push	 ecx
  00380	03 c3		 add	 eax, ebx
  00382	50		 push	 eax
  00383	e8 00 00 00 00	 call	 ?CenteringStr@@YAXPAD0H@Z ; CenteringStr
  00388	8b 85 e8 fe ff
	ff		 mov	 eax, DWORD PTR tv1544[ebp]
  0038e	8d 8d fc fe ff
	ff		 lea	 ecx, DWORD PTR _moji$[ebp]
  00394	6a 02		 push	 2
  00396	51		 push	 ecx
  00397	ff b5 dc fe ff
	ff		 push	 DWORD PTR _color$1$[ebp]
  0039d	83 c6 8d	 add	 esi, -115		; ffffff8dH
  003a0	05 2b ff ff ff	 add	 eax, -213		; ffffff2bH
  003a5	6a 01		 push	 1
  003a7	56		 push	 esi
  003a8	50		 push	 eax
  003a9	e8 00 00 00 00	 call	 ?StockFontBuffer@@YAHHHDHPADH@Z ; StockFontBuffer
  003ae	8b 8d e0 fe ff
	ff		 mov	 ecx, DWORD PTR _i$2$[ebp]

; 1676 : #else
; 1677 : 							battleMenuPetFontNo[i] = StockFontBuffer(x - offsetX, y - offsetY - 35, FONT_PRIO_FRONT, color, moji, 2);
; 1678 : #endif // 战斗5宠
; 1679 : 
; 1680 : 							sprintf(moji,"충:%3d",pet[i].ai);

  003b4	ff b3 30 00 00
	00		 push	 DWORD PTR ?pet@@3PAUPET@@A[ebx+48]
  003ba	68 00 00 00 00	 push	 OFFSET ??_C@_06ELKFHEJ@?C?f?3?$CF3d@
  003bf	89 04 8d 00 00
	00 00		 mov	 DWORD PTR ?battleMenuPetFontNo@@3PAHA[ecx*4], eax
  003c6	8d 85 fc fe ff
	ff		 lea	 eax, DWORD PTR _moji$[ebp]
  003cc	50		 push	 eax
  003cd	e8 00 00 00 00	 call	 _sprintf

; 1681 : 						    StockFontBuffer(x - offsetX+140, y - offsetY - 35, FONT_PRIO_FRONT, 5, moji, 0);

  003d2	57		 push	 edi
  003d3	8d 85 fc fe ff
	ff		 lea	 eax, DWORD PTR _moji$[ebp]
  003d9	50		 push	 eax
  003da	8b 85 e8 fe ff
	ff		 mov	 eax, DWORD PTR tv1544[ebp]
  003e0	6a 05		 push	 5
  003e2	6a 01		 push	 1
  003e4	83 c0 b7	 add	 eax, -73		; ffffffb7H
  003e7	56		 push	 esi
  003e8	50		 push	 eax
  003e9	e8 00 00 00 00	 call	 ?StockFontBuffer@@YAHHHDHPADH@Z ; StockFontBuffer

; 1682 : 
; 1683 : 
; 1684 : 							if( pet[ i ].earth > 0 ){

  003ee	8b 8b 34 00 00
	00		 mov	 ecx, DWORD PTR ?pet@@3PAUPET@@A[ebx+52]
  003f4	83 c4 48	 add	 esp, 72			; 00000048H
  003f7	85 c9		 test	 ecx, ecx
  003f9	7e 1a		 jle	 SHORT $LN36@BattleButt

; 1685 : 								if( pet[ i ].earth > 50 ) atrGraNo[ atrFlag ] = CG_ATR_ICON_EARTH_BIG;

  003fb	33 c0		 xor	 eax, eax

; 1686 : 								else atrGraNo[ atrFlag ] = CG_ATR_ICON_EARTH_SML;
; 1687 : 								atrFlag++; 

  003fd	bf 01 00 00 00	 mov	 edi, 1
  00402	83 f9 32	 cmp	 ecx, 50			; 00000032H
  00405	0f 9e c0	 setle	 al
  00408	8d 04 45 20 62
	00 00		 lea	 eax, DWORD PTR [eax*2+25120]
  0040f	89 85 ec fe ff
	ff		 mov	 DWORD PTR _atrGraNo$[ebp], eax
$LN36@BattleButt:

; 1688 : 							}
; 1689 : 							if( pet[ i ].water > 0 ){

  00415	8b 8b 38 00 00
	00		 mov	 ecx, DWORD PTR ?pet@@3PAUPET@@A[ebx+56]
  0041b	85 c9		 test	 ecx, ecx
  0041d	7e 17		 jle	 SHORT $LN39@BattleButt

; 1690 : 								if( pet[ i ].water > 50 ) atrGraNo[ atrFlag ] = CG_ATR_ICON_WATER_BIG;
; 1691 : 								else atrGraNo[ atrFlag ] = CG_ATR_ICON_WATER_SML;
; 1692 : 								atrFlag++;

  0041f	33 c0		 xor	 eax, eax
  00421	83 f9 32	 cmp	 ecx, 50			; 00000032H
  00424	0f 9e c0	 setle	 al
  00427	8d 04 45 23 62
	00 00		 lea	 eax, DWORD PTR [eax*2+25123]
  0042e	89 84 bd ec fe
	ff ff		 mov	 DWORD PTR _atrGraNo$[ebp+edi*4], eax
  00435	47		 inc	 edi
$LN39@BattleButt:

; 1693 : 							}
; 1694 : 							if( pet[ i ].fire > 0 ){

  00436	8b 8b 3c 00 00
	00		 mov	 ecx, DWORD PTR ?pet@@3PAUPET@@A[ebx+60]
  0043c	85 c9		 test	 ecx, ecx
  0043e	7e 17		 jle	 SHORT $LN42@BattleButt

; 1695 : 								if( pet[ i ].fire > 50 ) atrGraNo[ atrFlag ] = CG_ATR_ICON_FIRE_BIG;
; 1696 : 								else atrGraNo[ atrFlag ] = CG_ATR_ICON_FIRE_SML;
; 1697 : 								atrFlag++;

  00440	33 c0		 xor	 eax, eax
  00442	83 f9 32	 cmp	 ecx, 50			; 00000032H
  00445	0f 9e c0	 setle	 al
  00448	8d 04 45 26 62
	00 00		 lea	 eax, DWORD PTR [eax*2+25126]
  0044f	89 84 bd ec fe
	ff ff		 mov	 DWORD PTR _atrGraNo$[ebp+edi*4], eax
  00456	47		 inc	 edi
$LN42@BattleButt:

; 1698 : 							}
; 1699 : 							if( pet[ i ].wind > 0 ){

  00457	8b 8b 40 00 00
	00		 mov	 ecx, DWORD PTR ?pet@@3PAUPET@@A[ebx+64]
  0045d	85 c9		 test	 ecx, ecx
  0045f	7e 17		 jle	 SHORT $LN45@BattleButt

; 1700 : 								if( pet[ i ].wind > 50 ) atrGraNo[ atrFlag ] = CG_ATR_ICON_WIND_BIG;
; 1701 : 								else atrGraNo[ atrFlag ] = CG_ATR_ICON_WIND_SML;
; 1702 : 								atrFlag++; 

  00461	33 c0		 xor	 eax, eax
  00463	83 f9 32	 cmp	 ecx, 50			; 00000032H
  00466	0f 9e c0	 setle	 al
  00469	8d 04 45 29 62
	00 00		 lea	 eax, DWORD PTR [eax*2+25129]
  00470	89 84 bd ec fe
	ff ff		 mov	 DWORD PTR _atrGraNo$[ebp+edi*4], eax
  00477	47		 inc	 edi
$LN45@BattleButt:

; 1703 : 							}
; 1704 : 
; 1705 : 
; 1706 : #ifdef 战斗5宠
; 1707 : 							if (atrFlag > 0) StockDispBuffer(pActWnd->x + 214 - offsetX, y + 8 - offsetY - 35, DISP_PRIO_IME3, atrGraNo[0], 0);

  00478	8b b5 e4 fe ff
	ff		 mov	 esi, DWORD PTR _y$1$[ebp]
  0047e	85 ff		 test	 edi, edi
  00480	74 22		 je	 SHORT $LN72@BattleButt
  00482	6a 00		 push	 0
  00484	ff b5 ec fe ff
	ff		 push	 DWORD PTR _atrGraNo$[ebp]
  0048a	8d 46 95	 lea	 eax, DWORD PTR [esi-107]
  0048d	6a 69		 push	 105			; 00000069H
  0048f	50		 push	 eax
  00490	a1 00 00 00 00	 mov	 eax, DWORD PTR ?pActWnd@@3PAUaction@@A
  00495	8b 40 18	 mov	 eax, DWORD PTR [eax+24]
  00498	83 e8 10	 sub	 eax, 16			; 00000010H
  0049b	50		 push	 eax
  0049c	e8 00 00 00 00	 call	 ?StockDispBuffer@@YAHHHEHH@Z ; StockDispBuffer
  004a1	83 c4 14	 add	 esp, 20			; 00000014H
$LN72@BattleButt:

; 1708 : 
; 1709 : 							if (atrFlag > 1) StockDispBuffer(pActWnd->x + 214 + 16 - offsetX, y + 8 - offsetY - 35, DISP_PRIO_IME3, atrGraNo[1], 0);

  004a4	83 ff 01	 cmp	 edi, 1
  004a7	76 1e		 jbe	 SHORT $LN49@BattleButt
  004a9	6a 00		 push	 0
  004ab	ff b5 f0 fe ff
	ff		 push	 DWORD PTR _atrGraNo$[ebp+4]
  004b1	8d 46 95	 lea	 eax, DWORD PTR [esi-107]
  004b4	6a 69		 push	 105			; 00000069H
  004b6	50		 push	 eax
  004b7	a1 00 00 00 00	 mov	 eax, DWORD PTR ?pActWnd@@3PAUaction@@A
  004bc	ff 70 18	 push	 DWORD PTR [eax+24]
  004bf	e8 00 00 00 00	 call	 ?StockDispBuffer@@YAHHHEHH@Z ; StockDispBuffer
  004c4	83 c4 14	 add	 esp, 20			; 00000014H
$LN49@BattleButt:

; 1710 : 							y += 25;
; 1711 : 
; 1712 : 							 sprintf(moji, "%-3d         %5d   %5d", pet[i].level, pet[i].hp, pet[i].maxHp);

  004c7	ff b3 0c 00 00
	00		 push	 DWORD PTR ?pet@@3PAUPET@@A[ebx+12]
  004cd	8d 85 fc fe ff
	ff		 lea	 eax, DWORD PTR _moji$[ebp]
  004d3	ff b3 08 00 00
	00		 push	 DWORD PTR ?pet@@3PAUPET@@A[ebx+8]
  004d9	ff b3 20 00 00
	00		 push	 DWORD PTR ?pet@@3PAUPET@@A[ebx+32]
  004df	68 00 00 00 00	 push	 OFFSET ??_C@_0BH@KGEJIJPJ@?$CF?93d?5?5?5?5?5?5?5?5?5?$CF5d?5?5?5?$CF5d@
  004e4	50		 push	 eax
  004e5	e8 00 00 00 00	 call	 _sprintf

; 1713 : 							 StockFontBuffer(x + 27 - offsetX, y - offsetY - 35, FONT_PRIO_FRONT, color, moji, 0); y += 41;

  004ea	6a 00		 push	 0
  004ec	8d 85 fc fe ff
	ff		 lea	 eax, DWORD PTR _moji$[ebp]
  004f2	50		 push	 eax
  004f3	ff b5 dc fe ff
	ff		 push	 DWORD PTR _color$1$[ebp]
  004f9	8d 46 a6	 lea	 eax, DWORD PTR [esi-90]
  004fc	6a 01		 push	 1
  004fe	50		 push	 eax
  004ff	8b 85 e8 fe ff
	ff		 mov	 eax, DWORD PTR tv1544[ebp]
  00505	05 46 ff ff ff	 add	 eax, -186		; ffffff46H
  0050a	50		 push	 eax
  0050b	e8 00 00 00 00	 call	 ?StockFontBuffer@@YAHHHDHPADH@Z ; StockFontBuffer

; 1714 : 
; 1715 : #else
; 1716 : 							if (atrFlag > 0) StockDispBuffer(pActWnd->x + 214, y + 8, DISP_PRIO_IME3, atrGraNo[0], 0);
; 1717 : 
; 1718 : 							if (atrFlag > 1) StockDispBuffer(pActWnd->x + 214 + 16, y + 8, DISP_PRIO_IME3, atrGraNo[1], 0);
; 1719 : 							y += 26;
; 1720 : 
; 1721 : 							 sprintf(moji, "%3d          %4d   %4d", pet[i].level, pet[i].hp, pet[i].maxHp);
; 1722 : 							 StockFontBuffer(x + 27, y, FONT_PRIO_FRONT, color, moji, 0); y += 25;
; 1723 : 
; 1724 : 							 sprintf(moji, "%3d", pet[i].ai);
; 1725 : 							 StockFontBuffer(x + 60, y, FONT_PRIO_FRONT, color, moji, 0); y += 36;
; 1726 : #endif // 战斗5宠
; 1727 : 
; 1728 : 
; 1729 : 							flag = TRUE;

  00510	8b 0d 00 00 00
	00		 mov	 ecx, DWORD PTR ?pActWnd@@3PAUaction@@A
  00516	83 c4 2c	 add	 esp, 44			; 0000002cH
  00519	8b 95 e0 fe ff
	ff		 mov	 edx, DWORD PTR _i$2$[ebp]
  0051f	83 c6 42	 add	 esi, 66			; 00000042H
  00522	bf 01 00 00 00	 mov	 edi, 1
  00527	89 b5 e4 fe ff
	ff		 mov	 DWORD PTR _y$1$[ebp], esi
$LN8@BattleButt:

; 1661 : 
; 1662 : 					for( i = 0 ; i < 5 ; i++ ){

  0052d	42		 inc	 edx
  0052e	81 c3 78 0b 00
	00		 add	 ebx, 2936		; 00000b78H
  00534	89 95 e0 fe ff
	ff		 mov	 DWORD PTR _i$2$[ebp], edx
  0053a	83 fa 05	 cmp	 edx, 5
  0053d	0f 8c cd fd ff
	ff		 jl	 $LL10@BattleButt

; 1730 : 						}
; 1731 : 					}
; 1732 : 
; 1733 : 					if( flag == TRUE ){ 

  00543	5b		 pop	 ebx
  00544	83 ff 01	 cmp	 edi, 1
  00547	75 76		 jne	 SHORT $LN50@BattleButt

; 1734 : 
; 1735 : 						if( pc.battlePetNo != -1 ){ 

  00549	8b 41 1c	 mov	 eax, DWORD PTR [ecx+28]
  0054c	05 b8 00 00 00	 add	 eax, 184		; 000000b8H
  00551	66 83 3d aa 00
	00 00 ff	 cmp	 WORD PTR ?pc@@3UPC@@A+170, -1
  00559	6a 02		 push	 2
  0055b	74 44		 je	 SHORT $LN52@BattleButt

; 1736 : 							battleMenuPetFontNo[ 5 ] = StockDispBuffer( pActWnd->x + 70 - offsetX, pActWnd->y + 299 - 召回offsetY, DISP_PRIO_IME3, CG_BTL_PET_RETURN_BTN, 2 );

  0055d	68 b9 65 00 00	 push	 26041			; 000065b9H
  00562	6a 69		 push	 105			; 00000069H
  00564	50		 push	 eax
  00565	8b 41 18	 mov	 eax, DWORD PTR [ecx+24]
  00568	2d a0 00 00 00	 sub	 eax, 160		; 000000a0H
  0056d	50		 push	 eax
  0056e	e8 00 00 00 00	 call	 ?StockDispBuffer@@YAHHHEHH@Z ; StockDispBuffer

; 1737 : 							battleMenuPetFontNo[ 6 ] = StockDispBuffer( pActWnd->x + 187- offsetX, pActWnd->y + 299 - 召回offsetY, DISP_PRIO_IME3, CG_CLOSE_BTN, 2 );

  00573	8b 0d 00 00 00
	00		 mov	 ecx, DWORD PTR ?pActWnd@@3PAUaction@@A
  00579	a3 14 00 00 00	 mov	 DWORD PTR ?battleMenuPetFontNo@@3PAHA+20, eax
  0057e	6a 02		 push	 2
  00580	68 ba 65 00 00	 push	 26042			; 000065baH
  00585	8b 41 1c	 mov	 eax, DWORD PTR [ecx+28]
  00588	05 b8 00 00 00	 add	 eax, 184		; 000000b8H
  0058d	6a 69		 push	 105			; 00000069H
  0058f	50		 push	 eax
  00590	8b 41 18	 mov	 eax, DWORD PTR [ecx+24]
  00593	83 e8 2b	 sub	 eax, 43			; 0000002bH
  00596	50		 push	 eax
  00597	e8 00 00 00 00	 call	 ?StockDispBuffer@@YAHHHEHH@Z ; StockDispBuffer
  0059c	83 c4 28	 add	 esp, 40			; 00000028H

; 1738 : 						}else{

  0059f	eb 6d		 jmp	 SHORT $LN83@BattleButt
$LN52@BattleButt:

; 1739 : 							battleMenuPetFontNo[ 6 ] = StockDispBuffer( ( ( WINDOW_DISP *)pActWnd->pYobi )->mx - offsetX, pActWnd->y + 299 - 召回offsetY, DISP_PRIO_IME3, CG_CLOSE_BTN, 2 );

  005a1	68 ba 65 00 00	 push	 26042			; 000065baH
  005a6	6a 69		 push	 105			; 00000069H
  005a8	50		 push	 eax
  005a9	8b 41 0c	 mov	 eax, DWORD PTR [ecx+12]
  005ac	8b 40 14	 mov	 eax, DWORD PTR [eax+20]
  005af	2d e6 00 00 00	 sub	 eax, 230		; 000000e6H
  005b4	50		 push	 eax
  005b5	e8 00 00 00 00	 call	 ?StockDispBuffer@@YAHHHEHH@Z ; StockDispBuffer
  005ba	83 c4 14	 add	 esp, 20			; 00000014H

; 1740 : 						}
; 1741 : 					}else{

  005bd	eb 4f		 jmp	 SHORT $LN83@BattleButt
$LN50@BattleButt:

; 1742 : #ifdef 战斗5宠
; 1743 : 						StockFontBuffer(x + 11 - offsetX, y - 召回offsetY - 70, FONT_PRIO_FRONT, 0, "플레이어가 없는 페트", 0);

  005bf	6a 00		 push	 0
  005c1	68 00 00 00 00	 push	 OFFSET ??_C@_0BF@FCDGFJJJ@?G?C?$LH?$LJ?$MA?L?$LO?n?$LA?$KB?5?$LO?x?$LE?B?5?F?d?F?$KO@
  005c6	6a 00		 push	 0
  005c8	6a 01		 push	 1
  005ca	8d 86 47 ff ff
	ff		 lea	 eax, DWORD PTR [esi-185]
  005d0	50		 push	 eax
  005d1	8b 85 e8 fe ff
	ff		 mov	 eax, DWORD PTR tv1544[ebp]
  005d7	05 36 ff ff ff	 add	 eax, -202		; ffffff36H
  005dc	50		 push	 eax
  005dd	e8 00 00 00 00	 call	 ?StockFontBuffer@@YAHHHDHPADH@Z ; StockFontBuffer

; 1744 : #else
; 1745 : 						StockFontBuffer(x + 11, y , FONT_PRIO_FRONT, 0, "没有参战的宠物", 0);
; 1746 : #endif
; 1747 : 						
; 1748 : 						battleMenuPetFontNo[ 6 ] = StockDispBuffer( ( ( WINDOW_DISP *)pActWnd->pYobi )->mx - offsetX, pActWnd->y + 299 - 召回offsetY, DISP_PRIO_IME3, CG_CLOSE_BTN, 2 );

  005e2	8b 0d 00 00 00
	00		 mov	 ecx, DWORD PTR ?pActWnd@@3PAUaction@@A
  005e8	6a 02		 push	 2
  005ea	68 ba 65 00 00	 push	 26042			; 000065baH
  005ef	6a 69		 push	 105			; 00000069H
  005f1	8b 41 1c	 mov	 eax, DWORD PTR [ecx+28]
  005f4	05 b8 00 00 00	 add	 eax, 184		; 000000b8H
  005f9	50		 push	 eax
  005fa	8b 41 0c	 mov	 eax, DWORD PTR [ecx+12]
  005fd	8b 40 14	 mov	 eax, DWORD PTR [eax+20]
  00600	2d e6 00 00 00	 sub	 eax, 230		; 000000e6H
  00605	50		 push	 eax
  00606	e8 00 00 00 00	 call	 ?StockDispBuffer@@YAHHHEHH@Z ; StockDispBuffer
  0060b	83 c4 2c	 add	 esp, 44			; 0000002cH
$LN83@BattleButt:

; 1749 : 					}
; 1750 : 				}			
; 1751 : 			}
; 1752 : 		}
; 1753 : 	}
; 1754 : }

  0060e	a3 18 00 00 00	 mov	 DWORD PTR ?battleMenuPetFontNo@@3PAHA+24, eax
$LN51@BattleButt:
  00613	8b 4d fc	 mov	 ecx, DWORD PTR __$ArrayPad$[ebp]
  00616	5f		 pop	 edi
  00617	33 cd		 xor	 ecx, ebp
  00619	5e		 pop	 esi
  0061a	e8 00 00 00 00	 call	 @__security_check_cookie@4
  0061f	8b e5		 mov	 esp, ebp
  00621	5d		 pop	 ebp
  00622	c3		 ret	 0
?BattleButtonPet@@YAXXZ ENDP				; BattleButtonPet
_TEXT	ENDS
; Function compile flags: /Ogtp
; File \\VBOXSVR\_stoneage\repos\ssm-sacli\system\battleMenu.cpp
;	COMDAT ?BattleButtonItem@@YAXXZ
_TEXT	SEGMENT
tv4820 = -280						; size = 4
tv4819 = -276						; size = 4
?BattleItemNo@@3HA$1 = -272				; size = 4
_x$1$ = -268						; size = 4
_y$1$ = -264						; size = 4
_moji$ = -260						; size = 256
__$ArrayPad$ = -4					; size = 4
?BattleButtonItem@@YAXXZ PROC				; BattleButtonItem, COMDAT

; 1225 : {

  00000	55		 push	 ebp
  00001	8b ec		 mov	 ebp, esp
  00003	81 ec 18 01 00
	00		 sub	 esp, 280		; 00000118H
  00009	a1 00 00 00 00	 mov	 eax, DWORD PTR ___security_cookie
  0000e	33 c5		 xor	 eax, ebp
  00010	89 45 fc	 mov	 DWORD PTR __$ArrayPad$[ebp], eax

; 1226 : 	int i, bak;
; 1227 : 	char moji[ 256 ];
; 1228 : 	int x, y;
; 1229 : 
; 1230 : 	if( HitDispNo == battleButtonDispNo[ 5 ] || battleButtonBak2 == 5 ){

  00013	a1 00 00 00 00	 mov	 eax, DWORD PTR ?HitDispNo@@3HA ; HitDispNo
  00018	3b 05 14 00 00
	00		 cmp	 eax, DWORD PTR ?battleButtonDispNo@@3PAHA+20
  0001e	a1 00 00 00 00	 mov	 eax, DWORD PTR ?battleButtonBak2@@3HA
  00023	56		 push	 esi
  00024	74 10		 je	 SHORT $LN37@BattleButt
  00026	83 f8 05	 cmp	 eax, 5
  00029	74 0b		 je	 SHORT $LN37@BattleButt
  0002b	8b 35 00 00 00
	00		 mov	 esi, DWORD PTR ?pActWnd@@3PAUaction@@A
  00031	e9 bf 00 00 00	 jmp	 $LN36@BattleButt
$LN37@BattleButt:

; 1231 : 		if( mouse.onceState & MOUSE_LEFT_CRICK || battleButtonBak2 == 5 ){

  00036	f6 05 2c 00 00
	00 01		 test	 BYTE PTR ?mouse@@3UMOUSE@@A+44, 1
  0003d	75 09		 jne	 SHORT $LN39@BattleButt
  0003f	83 f8 05	 cmp	 eax, 5
  00042	0f 85 8d 00 00
	00		 jne	 $LN289@BattleButt
$LN39@BattleButt:

; 1232 : 			bak = battleButtonFlag[ 5 ];

  00048	8b 35 14 00 00
	00		 mov	 esi, DWORD PTR ?battleButtonFlag@@3PAHA+20

; 1233 : 			BattleButtonOff();

  0004e	e8 00 00 00 00	 call	 ?BattleButtonOff@@YAXXZ	; BattleButtonOff

; 1234 : 
; 1235 : 			if( bak == FALSE ){

  00053	85 f6		 test	 esi, esi
  00055	75 7e		 jne	 SHORT $LN289@BattleButt

; 1236 : 
; 1237 : 				battleButtonFlag[ 5 ] = TRUE;
; 1238 : 
; 1239 : 				BattleCmdNo = BATTLE_ITEM;
; 1240 : 
; 1241 : 				for( i = 0 ; i < BATTLE_MENU_ITEM_FONTS ; i++ ) battleMenuItemFontNo[ i ] = -2;

  00057	0f 28 05 00 00
	00 00		 movaps	 xmm0, XMMWORD PTR __xmm@fffffffefffffffefffffffefffffffe

; 1242 : 
; 1243 : 				pActWnd = MakeWindowDisp( 361, 160, 271, 281, 0, -1 );

  0005e	6a ff		 push	 -1
  00060	56		 push	 esi
  00061	68 19 01 00 00	 push	 281			; 00000119H
  00066	68 0f 01 00 00	 push	 271			; 0000010fH
  0006b	68 a0 00 00 00	 push	 160			; 000000a0H
  00070	68 69 01 00 00	 push	 361			; 00000169H
  00075	c7 05 14 00 00
	00 01 00 00 00	 mov	 DWORD PTR ?battleButtonFlag@@3PAHA+20, 1
  0007f	c7 05 00 00 00
	00 03 00 00 00	 mov	 DWORD PTR ?BattleCmdNo@@3HA, 3 ; BattleCmdNo
  00089	0f 11 05 00 00
	00 00		 movups	 XMMWORD PTR ?battleMenuItemFontNo@@3PAHA, xmm0
  00090	c7 05 10 00 00
	00 fe ff ff ff	 mov	 DWORD PTR ?battleMenuItemFontNo@@3PAHA+16, -2 ; fffffffeH
  0009a	c7 05 14 00 00
	00 fe ff ff ff	 mov	 DWORD PTR ?battleMenuItemFontNo@@3PAHA+20, -2 ; fffffffeH
  000a4	e8 00 00 00 00	 call	 ?MakeWindowDisp@@YAPAUaction@@HHHHHH@Z ; MakeWindowDisp
  000a9	8b f0		 mov	 esi, eax
  000ab	89 35 00 00 00
	00		 mov	 DWORD PTR ?pActWnd@@3PAUaction@@A, esi

; 1244 : 
; 1245 : 				InitItem2( pActWnd->x, pActWnd->y );

  000b1	ff 76 1c	 push	 DWORD PTR [esi+28]
  000b4	ff 76 18	 push	 DWORD PTR [esi+24]
  000b7	e8 00 00 00 00	 call	 ?InitItem2@@YAXHH@Z	; InitItem2
  000bc	83 c4 20	 add	 esp, 32			; 00000020H

; 1246 : 
; 1247 : 				battleButtonBak = 5;

  000bf	c7 05 00 00 00
	00 05 00 00 00	 mov	 DWORD PTR ?battleButtonBak@@3HA, 5 ; battleButtonBak

; 1248 : 
; 1249 : 				battleButtonBak2 = -1;

  000c9	c7 05 00 00 00
	00 ff ff ff ff	 mov	 DWORD PTR ?battleButtonBak2@@3HA, -1
  000d3	eb 06		 jmp	 SHORT $LN40@BattleButt
$LN289@BattleButt:

; 1234 : 
; 1235 : 			if( bak == FALSE ){

  000d5	8b 35 00 00 00
	00		 mov	 esi, DWORD PTR ?pActWnd@@3PAUaction@@A
$LN40@BattleButt:

; 1250 : 			}
; 1251 : 		}
; 1252 : 
; 1253 : 		strcpy( OneLineInfoStr, "아이템。");

  000db	f3 0f 7e 05 00
	00 00 00	 movq	 xmm0, QWORD PTR ??_C@_08CJOHOOE@?$LO?F?$MA?L?E?$NL?$KB?$KD@
  000e3	a0 08 00 00 00	 mov	 al, BYTE PTR ??_C@_08CJOHOOE@?$LO?F?$MA?L?E?$NL?$KB?$KD@+8
  000e8	66 0f d6 05 00
	00 00 00	 movq	 QWORD PTR ?OneLineInfoStr@@3PADA, xmm0
  000f0	a2 08 00 00 00	 mov	 BYTE PTR ?OneLineInfoStr@@3PADA+8, al
$LN36@BattleButt:

; 1254 : 	}
; 1255 : 
; 1256 : 	if( battleButtonFlag[ 5 ] == TRUE ){

  000f5	83 3d 14 00 00
	00 01		 cmp	 DWORD PTR ?battleButtonFlag@@3PAHA+20, 1
  000fc	0f 85 bc 08 00
	00		 jne	 $LN103@BattleButt

; 1257 : 
; 1258 : 		if( pActWnd != NULL ){

  00102	85 f6		 test	 esi, esi
  00104	0f 84 b4 08 00
	00		 je	 $LN103@BattleButt

; 1259 : 
; 1260 : 			if( pActWnd->hp > 0 ){

  0010a	83 7e 78 00	 cmp	 DWORD PTR [esi+120], 0
  0010e	0f 8e aa 08 00
	00		 jle	 $LN103@BattleButt

; 1261 : #ifdef _READ16BITBMP
; 1262 : 				if(g_bUseAlpha) StockDispBuffer( ( ( WINDOW_DISP *)pActWnd->pYobi )->mx, ( ( WINDOW_DISP *)pActWnd->pYobi )->my, DISP_PRIO_MENU, CG_ITEM_WND_1, 1 );
; 1263 : 				else
; 1264 : #endif
; 1265 : 				StockDispBuffer( ( ( WINDOW_DISP *)pActWnd->pYobi )->mx, ( ( WINDOW_DISP *)pActWnd->pYobi )->my, DISP_PRIO_MENU, CG_ITEM_WND_1, 1 );

  00114	8b 46 0c	 mov	 eax, DWORD PTR [esi+12]
  00117	6a 01		 push	 1
  00119	ff 35 00 00 00
	00		 push	 DWORD PTR ?CG_ITEM_WND_1@@3HA ; CG_ITEM_WND_1
  0011f	6a 68		 push	 104			; 00000068H
  00121	ff 70 18	 push	 DWORD PTR [eax+24]
  00124	ff 70 14	 push	 DWORD PTR [eax+20]
  00127	e8 00 00 00 00	 call	 ?StockDispBuffer@@YAHHHEHH@Z ; StockDispBuffer

; 1266 : 
; 1267 : 				StockDispBuffer( ( ( WINDOW_DISP *)pActWnd->pYobi )->mx, ( ( WINDOW_DISP *)pActWnd->pYobi )->my - 80, DISP_PRIO_MENU, CG_BTL_ITEM_WND_TITLE, 1 );

  0012c	a1 00 00 00 00	 mov	 eax, DWORD PTR ?pActWnd@@3PAUaction@@A
  00131	6a 01		 push	 1
  00133	68 d8 65 00 00	 push	 26072			; 000065d8H
  00138	6a 68		 push	 104			; 00000068H
  0013a	8b 48 0c	 mov	 ecx, DWORD PTR [eax+12]
  0013d	8b 41 18	 mov	 eax, DWORD PTR [ecx+24]
  00140	83 e8 50	 sub	 eax, 80			; 00000050H
  00143	50		 push	 eax
  00144	ff 71 14	 push	 DWORD PTR [ecx+20]
  00147	e8 00 00 00 00	 call	 ?StockDispBuffer@@YAHHHEHH@Z ; StockDispBuffer
  0014c	83 c4 28	 add	 esp, 40			; 00000028H

; 1268 : 
; 1269 : 				if( mouse.onceState & MOUSE_LEFT_CRICK ){

  0014f	f6 05 2c 00 00
	00 01		 test	 BYTE PTR ?mouse@@3UMOUSE@@A+44, 1
  00156	74 12		 je	 SHORT $LN45@BattleButt

; 1270 : 
; 1271 : 					if( HitDispNo == battleMenuItemFontNo[ 0 ] ){

  00158	a1 00 00 00 00	 mov	 eax, DWORD PTR ?HitDispNo@@3HA ; HitDispNo
  0015d	3b 05 00 00 00
	00		 cmp	 eax, DWORD PTR ?battleMenuItemFontNo@@3PAHA
  00163	75 05		 jne	 SHORT $LN45@BattleButt

; 1272 : 						BattleButtonOff();				

  00165	e8 00 00 00 00	 call	 ?BattleButtonOff@@YAXXZ	; BattleButtonOff
$LN45@BattleButt:

; 1273 : 					}
; 1274 : 				}
; 1275 : 
; 1276 : 				if( pActWnd != NULL ){

  0016a	a1 00 00 00 00	 mov	 eax, DWORD PTR ?pActWnd@@3PAUaction@@A
  0016f	85 c0		 test	 eax, eax
  00171	0f 84 47 08 00
	00		 je	 $LN103@BattleButt

; 1277 : 
; 1278 : 					x = pActWnd->x + 16;

  00177	8b 48 18	 mov	 ecx, DWORD PTR [eax+24]

; 1279 : 					y = pActWnd->y + 191 + 7;
; 1280 : 
; 1281 : 					for(  i = MAX_ITEMSTART + 15 -1 ; i >= MAX_ITEMSTART ; i-- ){

  0017a	be 17 00 00 00	 mov	 esi, 23			; 00000017H
  0017f	8b 40 1c	 mov	 eax, DWORD PTR [eax+28]
  00182	83 c1 10	 add	 ecx, 16			; 00000010H
  00185	53		 push	 ebx
  00186	57		 push	 edi
  00187	05 c6 00 00 00	 add	 eax, 198		; 000000c6H
  0018c	89 8d f4 fe ff
	ff		 mov	 DWORD PTR _x$1$[ebp], ecx
  00192	bf ec 02 00 00	 mov	 edi, OFFSET ?ItemBuffer@@3PAUITEM_BUFFER@@A+748
  00197	89 85 f8 fe ff
	ff		 mov	 DWORD PTR _y$1$[ebp], eax
  0019d	bb fc 23 00 00	 mov	 ebx, OFFSET ?pc@@3UPC@@A+9212
  001a2	89 b5 f0 fe ff
	ff		 mov	 DWORD PTR ?BattleItemNo@@3HA$1[ebp], esi
  001a8	89 bd e8 fe ff
	ff		 mov	 DWORD PTR tv4820[ebp], edi
  001ae	89 9d ec fe ff
	ff		 mov	 DWORD PTR tv4819[ebp], ebx
$LL7@BattleButt:

; 1282 : 
; 1283 : 						if( MakeHitBox( ItemBuffer[ i ].defX - 24, ItemBuffer[ i ].defY - 24, 
; 1284 : 										ItemBuffer[ i ].defX + 25, ItemBuffer[ i ].defY + 23, DISP_PRIO_IME3 ) == TRUE ){

  001b4	8b 0f		 mov	 ecx, DWORD PTR [edi]
  001b6	8b 57 fc	 mov	 edx, DWORD PTR [edi-4]
  001b9	6a 69		 push	 105			; 00000069H
  001bb	8d 41 17	 lea	 eax, DWORD PTR [ecx+23]
  001be	50		 push	 eax
  001bf	8d 42 19	 lea	 eax, DWORD PTR [edx+25]
  001c2	50		 push	 eax
  001c3	8d 41 e8	 lea	 eax, DWORD PTR [ecx-24]
  001c6	50		 push	 eax
  001c7	8d 42 e8	 lea	 eax, DWORD PTR [edx-24]
  001ca	50		 push	 eax
  001cb	e8 00 00 00 00	 call	 ?MakeHitBox@@YAHHHHHH@Z	; MakeHitBox
  001d0	83 c4 14	 add	 esp, 20			; 00000014H
  001d3	83 f8 01	 cmp	 eax, 1
  001d6	0f 85 48 01 00
	00		 jne	 $LN57@BattleButt

; 1285 : 
; 1286 : 							if( pc.item[ i ].useFlag == TRUE ){ 

  001dc	66 39 43 c8	 cmp	 WORD PTR [ebx-56], ax
  001e0	0f 85 2e 01 00
	00		 jne	 $LN9@BattleButt

; 1287 : 								int color = FONT_PAL_WHITE;

  001e6	33 c9		 xor	 ecx, ecx

; 1288 : 
; 1289 : 								char *splitPoint = pc.item[ i ].memo;

  001e8	8b fb		 mov	 edi, ebx

; 1290 : 
; 1291 : 								if( pc.transmigration == 0 && pc.level < pc.item[ i ].level ) color = FONT_PAL_RED;

  001ea	66 39 0d f4 50
	00 00		 cmp	 WORD PTR ?pc@@3UPC@@A+20724, cx
  001f1	75 13		 jne	 SHORT $LN49@BattleButt
  001f3	a1 38 00 00 00	 mov	 eax, DWORD PTR ?pc@@3UPC@@A+56
  001f8	3b 83 f4 fe ff
	ff		 cmp	 eax, DWORD PTR [ebx-268]
  001fe	b8 06 00 00 00	 mov	 eax, 6
  00203	0f 4c c8	 cmovl	 ecx, eax
$LN49@BattleButt:

; 1292 : 
; 1293 : 								StockFontBuffer( pActWnd->x + 16, pActWnd->y + 332 - 160, FONT_PRIO_FRONT, color, pc.item[ i ].name, 0 );	

  00206	6a 00		 push	 0
  00208	8d 43 d2	 lea	 eax, DWORD PTR [ebx-46]
  0020b	50		 push	 eax
  0020c	51		 push	 ecx
  0020d	8b 0d 00 00 00
	00		 mov	 ecx, DWORD PTR ?pActWnd@@3PAUaction@@A
  00213	6a 01		 push	 1
  00215	8b 41 1c	 mov	 eax, DWORD PTR [ecx+28]
  00218	05 ac 00 00 00	 add	 eax, 172		; 000000acH
  0021d	50		 push	 eax
  0021e	8b 41 18	 mov	 eax, DWORD PTR [ecx+24]
  00221	83 c0 10	 add	 eax, 16			; 00000010H
  00224	50		 push	 eax
  00225	e8 00 00 00 00	 call	 ?StockFontBuffer@@YAHHHDHPADH@Z ; StockFontBuffer

; 1294 : 
; 1295 : 								while( 1 ){
; 1296 : 
; 1297 : 									if( strlen( splitPoint ) > 28 ){

  0022a	8b cb		 mov	 ecx, ebx
  0022c	83 c4 18	 add	 esp, 24			; 00000018H
  0022f	8d 51 01	 lea	 edx, DWORD PTR [ecx+1]
$LL286@BattleButt:
  00232	8a 01		 mov	 al, BYTE PTR [ecx]
  00234	41		 inc	 ecx
  00235	84 c0		 test	 al, al
  00237	75 f9		 jne	 SHORT $LL286@BattleButt
  00239	2b ca		 sub	 ecx, edx
  0023b	83 f9 1c	 cmp	 ecx, 28			; 0000001cH
  0023e	0f 86 91 00 00
	00		 jbe	 $LN50@BattleButt
  00244	8b b5 f8 fe ff
	ff		 mov	 esi, DWORD PTR _y$1$[ebp]
  0024a	8b 9d f4 fe ff
	ff		 mov	 ebx, DWORD PTR _x$1$[ebp]
$LL8@BattleButt:

; 1298 : 										strncpy( moji, splitPoint, 28 );

  00250	6a 1c		 push	 28			; 0000001cH
  00252	8d 85 fc fe ff
	ff		 lea	 eax, DWORD PTR _moji$[ebp]
  00258	57		 push	 edi
  00259	50		 push	 eax
  0025a	e8 00 00 00 00	 call	 _strncpy

; 1299 : 										moji[ 28 ] = NULL;
; 1300 : 
; 1301 : 										if( GetStrLastByte( moji ) == 3 ){

  0025f	8d 85 fc fe ff
	ff		 lea	 eax, DWORD PTR _moji$[ebp]
  00265	c6 85 18 ff ff
	ff 00		 mov	 BYTE PTR _moji$[ebp+28], 0
  0026c	50		 push	 eax
  0026d	e8 00 00 00 00	 call	 ?GetStrLastByte@@YAHPAD@Z ; GetStrLastByte
  00272	83 c4 10	 add	 esp, 16			; 00000010H
  00275	83 f8 03	 cmp	 eax, 3
  00278	75 0e		 jne	 SHORT $LN52@BattleButt

; 1302 : 											moji[ 27 ] = NULL;

  0027a	c6 85 17 ff ff
	ff 00		 mov	 BYTE PTR _moji$[ebp+27], 0

; 1303 : 											splitPoint += 27;

  00281	b8 1b 00 00 00	 mov	 eax, 27			; 0000001bH

; 1304 : 										}else{

  00286	eb 0c		 jmp	 SHORT $LN53@BattleButt
$LN52@BattleButt:

; 1305 : 											moji[ 28 ] = NULL;

  00288	c6 85 18 ff ff
	ff 00		 mov	 BYTE PTR _moji$[ebp+28], 0

; 1306 : 											splitPoint += 28;

  0028f	b8 1c 00 00 00	 mov	 eax, 28			; 0000001cH
$LN53@BattleButt:

; 1307 : 										}
; 1308 : 										StockFontBuffer( x, y, FONT_PRIO_FRONT, 0, moji, 0 ); y += 24;

  00294	6a 00		 push	 0
  00296	03 f8		 add	 edi, eax
  00298	8d 85 fc fe ff
	ff		 lea	 eax, DWORD PTR _moji$[ebp]
  0029e	50		 push	 eax
  0029f	6a 00		 push	 0
  002a1	6a 01		 push	 1
  002a3	56		 push	 esi
  002a4	53		 push	 ebx
  002a5	e8 00 00 00 00	 call	 ?StockFontBuffer@@YAHHHDHPADH@Z ; StockFontBuffer
  002aa	8b cf		 mov	 ecx, edi
  002ac	83 c4 18	 add	 esp, 24			; 00000018H
  002af	83 c6 18	 add	 esi, 24			; 00000018H
  002b2	8d 51 01	 lea	 edx, DWORD PTR [ecx+1]
$LL287@BattleButt:

; 1294 : 
; 1295 : 								while( 1 ){
; 1296 : 
; 1297 : 									if( strlen( splitPoint ) > 28 ){

  002b5	8a 01		 mov	 al, BYTE PTR [ecx]
  002b7	41		 inc	 ecx
  002b8	84 c0		 test	 al, al
  002ba	75 f9		 jne	 SHORT $LL287@BattleButt
  002bc	2b ca		 sub	 ecx, edx
  002be	83 f9 1c	 cmp	 ecx, 28			; 0000001cH
  002c1	77 8d		 ja	 SHORT $LL8@BattleButt
  002c3	8b 9d ec fe ff
	ff		 mov	 ebx, DWORD PTR tv4819[ebp]
  002c9	89 b5 f8 fe ff
	ff		 mov	 DWORD PTR _y$1$[ebp], esi
  002cf	8b b5 f0 fe ff
	ff		 mov	 esi, DWORD PTR ?BattleItemNo@@3HA$1[ebp]
$LN50@BattleButt:

; 1309 : 									}else{
; 1310 : 										strcpy( moji, splitPoint );

  002d5	8d 8d fc fe ff
	ff		 lea	 ecx, DWORD PTR _moji$[ebp]
  002db	2b cf		 sub	 ecx, edi
  002dd	0f 1f 00	 npad	 3
$LL111@BattleButt:
  002e0	8a 07		 mov	 al, BYTE PTR [edi]
  002e2	8d 7f 01	 lea	 edi, DWORD PTR [edi+1]
  002e5	88 44 39 ff	 mov	 BYTE PTR [ecx+edi-1], al
  002e9	84 c0		 test	 al, al
  002eb	75 f3		 jne	 SHORT $LL111@BattleButt

; 1311 : 										StockFontBuffer( x, y, FONT_PRIO_FRONT, 0, moji, 0 );

  002ed	6a 00		 push	 0
  002ef	8d 85 fc fe ff
	ff		 lea	 eax, DWORD PTR _moji$[ebp]
  002f5	50		 push	 eax
  002f6	6a 00		 push	 0
  002f8	6a 01		 push	 1
  002fa	ff b5 f8 fe ff
	ff		 push	 DWORD PTR _y$1$[ebp]
  00300	ff b5 f4 fe ff
	ff		 push	 DWORD PTR _x$1$[ebp]
  00306	e8 00 00 00 00	 call	 ?StockFontBuffer@@YAHHHDHPADH@Z ; StockFontBuffer
  0030b	8b bd e8 fe ff
	ff		 mov	 edi, DWORD PTR tv4820[ebp]
  00311	83 c4 18	 add	 esp, 24			; 00000018H
$LN9@BattleButt:

; 1312 : 										break;
; 1313 : 									}
; 1314 : 								}
; 1315 : 							}
; 1316 : 
; 1317 : 							if( mouse.onceState & MOUSE_LEFT_DBL_CRICK ){

  00314	f6 05 2c 00 00
	00 10		 test	 BYTE PTR ?mouse@@3UMOUSE@@A+44, 16 ; 00000010H
  0031b	74 07		 je	 SHORT $LN57@BattleButt

; 1318 : 
; 1319 : 								if( pc.item[ i ].useFlag == TRUE ){

  0031d	66 83 7b c8 01	 cmp	 WORD PTR [ebx-56], 1
  00322	74 4e		 je	 SHORT $_aa$350
$LN57@BattleButt:

; 1535 : 											break;
; 1536 : #endif
; 1537 : 										}
; 1538 : 										break;
; 1539 : 									}
; 1540 : 								}
; 1541 : 							}
; 1542 : 						}
; 1543 : 						if( pc.item[ i ].useFlag == TRUE ){

  00324	66 83 7b c8 01	 cmp	 WORD PTR [ebx-56], 1
  00329	75 1a		 jne	 SHORT $LN5@BattleButt

; 1544 : 							StockDispBuffer( ItemBuffer[ i ].defX, ItemBuffer[ i ].defY, ItemBuffer[ i ].dispPrio, pc.item[ i ].graNo, 0 );

  0032b	0f b6 47 08	 movzx	 eax, BYTE PTR [edi+8]
  0032f	6a 00		 push	 0
  00331	ff b3 f0 fe ff
	ff		 push	 DWORD PTR [ebx-272]
  00337	50		 push	 eax
  00338	ff 37		 push	 DWORD PTR [edi]
  0033a	ff 77 fc	 push	 DWORD PTR [edi-4]
  0033d	e8 00 00 00 00	 call	 ?StockDispBuffer@@YAHHHEHH@Z ; StockDispBuffer
  00342	83 c4 14	 add	 esp, 20			; 00000014H
$LN5@BattleButt:

; 1279 : 					y = pActWnd->y + 191 + 7;
; 1280 : 
; 1281 : 					for(  i = MAX_ITEMSTART + 15 -1 ; i >= MAX_ITEMSTART ; i-- ){

  00345	81 eb 7c 01 00
	00		 sub	 ebx, 380		; 0000017cH
  0034b	4e		 dec	 esi
  0034c	83 ef 20	 sub	 edi, 32			; 00000020H
  0034f	89 b5 f0 fe ff
	ff		 mov	 DWORD PTR ?BattleItemNo@@3HA$1[ebp], esi
  00355	89 9d ec fe ff
	ff		 mov	 DWORD PTR tv4819[ebp], ebx
  0035b	89 bd e8 fe ff
	ff		 mov	 DWORD PTR tv4820[ebp], edi
  00361	81 fb 34 0f 00
	00		 cmp	 ebx, OFFSET ?pc@@3UPC@@A+3892
  00367	0f 8d 47 fe ff
	ff		 jge	 $LL7@BattleButt
  0036d	e9 1b 06 00 00	 jmp	 $LN285@BattleButt
$_aa$350:

; 1320 : 
; 1321 : 									if( pc.item[ i ].useFlag != TRUE || pc.item[ i ].field == ITEM_FIELD_MAP ||  pc.transmigration == 0 && pc.level < pc.item[ i ].level ){
; 1322 : 										//JL fix 战斗换装备  服务端不支持，不修了
; 1323 : 										goto _aa;
; 1324 : 										play_se( 220, 320, 240 );
; 1325 : 									}else{
; 1326 : 										_aa:
; 1327 : 										BattleItemNo = i;
; 1328 : 
; 1329 : 										switch( pc.item[ i ].target ){

  00372	69 c6 7c 01 00
	00		 imul	 eax, esi, 380
  00378	89 35 00 00 00
	00		 mov	 DWORD PTR ?BattleItemNo@@3HA, esi ; BattleItemNo
  0037e	0f bf 88 a4 01
	00 00		 movsx	 ecx, WORD PTR ?pc@@3UPC@@A[eax+420]
  00385	83 f9 08	 cmp	 ecx, 8
  00388	0f 87 ff 05 00
	00		 ja	 $LN285@BattleButt
  0038e	ff 24 8d 00 00
	00 00		 jmp	 DWORD PTR $LN288@BattleButt[ecx*4]
$LN60@BattleButt:

; 1330 : 										case ITEM_TARGET_MYSELF:
; 1331 : 
; 1332 : 											p_party[ BattleMyNo ]->atr |= ACT_ATR_HIT_BOX;

  00395	a1 00 00 00 00	 mov	 eax, DWORD PTR ?BattleMyNo@@3HA ; BattleMyNo
  0039a	8b 04 85 00 00
	00 00		 mov	 eax, DWORD PTR ?p_party@@3PAPAUaction@@A[eax*4]
  003a1	83 88 a4 00 00
	00 08		 or	 DWORD PTR [eax+164], 8
$LN293@BattleButt:

; 1545 : 						}
; 1546 : 					}
; 1547 : 
; 1548 : 					if( pActWnd != NULL ){

  003a8	ff 35 00 00 00
	00		 push	 DWORD PTR ?pActWnd@@3PAUaction@@A
  003ae	c7 05 00 00 00
	00 01 00 00 00	 mov	 DWORD PTR ?battleTargetSelectFlag@@3HA, 1
  003b8	e8 00 00 00 00	 call	 ?DeathAction@@YAXPAUaction@@@Z ; DeathAction
  003bd	c7 05 00 00 00
	00 00 00 00 00	 mov	 DWORD PTR ?pActWnd@@3PAUaction@@A, 0
  003c7	e8 00 00 00 00	 call	 ?ClearBattleButton@@YAXXZ ; ClearBattleButton
  003cc	68 f0 00 00 00	 push	 240			; 000000f0H
  003d1	68 40 01 00 00	 push	 320			; 00000140H
  003d6	68 d9 00 00 00	 push	 217			; 000000d9H
  003db	c7 05 00 00 00
	00 03 00 00 00	 mov	 DWORD PTR ?BattleCmdNo@@3HA, 3 ; BattleCmdNo
  003e5	e8 00 00 00 00	 call	 ?play_se@@YAHHHH@Z	; play_se
  003ea	83 c4 10	 add	 esp, 16			; 00000010H
  003ed	e9 9b 05 00 00	 jmp	 $LN285@BattleButt
$LN61@BattleButt:

; 1333 : 
; 1334 : 											battleTargetSelectFlag = TRUE;
; 1335 : 
; 1336 : 											DeathAction( pActWnd );
; 1337 : 											pActWnd = NULL;
; 1338 : 
; 1339 : 											ClearBattleButton();
; 1340 : 
; 1341 : 											BattleCmdNo = BATTLE_ITEM;
; 1342 : 
; 1343 : 											play_se( 217, 320, 240 );
; 1344 : 											break;
; 1345 : 											
; 1346 : 										case ITEM_TARGET_OTHER:
; 1347 : 
; 1348 : 											for( i = 0 ; i < 20 ; i++ ){

  003f2	ba 00 00 00 00	 mov	 edx, OFFSET ?p_party@@3PAPAUaction@@A
$LL14@BattleButt:

; 1349 : 
; 1350 : 												if( p_party[ i ]->func == NULL ) continue;

  003f7	8b 0a		 mov	 ecx, DWORD PTR [edx]
  003f9	83 79 08 00	 cmp	 DWORD PTR [ecx+8], 0
  003fd	74 23		 je	 SHORT $LN12@BattleButt

; 1351 : 
; 1352 : 												if( pc.item[ BattleItemNo ].deadTargetFlag == FALSE ) if( p_party[ i ]->hp <= 0 ) continue;

  003ff	69 c6 7c 01 00
	00		 imul	 eax, esi, 380
  00405	66 83 b8 a6 01
	00 00 00	 cmp	 WORD PTR ?pc@@3UPC@@A[eax+422], 0
  0040d	75 06		 jne	 SHORT $LN64@BattleButt
  0040f	83 79 78 00	 cmp	 DWORD PTR [ecx+120], 0
  00413	7e 0d		 jle	 SHORT $LN12@BattleButt
$LN64@BattleButt:

; 1353 : 
; 1354 : 												p_party[ i ]->atr |= ACT_ATR_HIT_BOX;

  00415	83 89 a4 00 00
	00 08		 or	 DWORD PTR [ecx+164], 8
  0041c	8b 35 00 00 00
	00		 mov	 esi, DWORD PTR ?BattleItemNo@@3HA ; BattleItemNo
$LN12@BattleButt:

; 1333 : 
; 1334 : 											battleTargetSelectFlag = TRUE;
; 1335 : 
; 1336 : 											DeathAction( pActWnd );
; 1337 : 											pActWnd = NULL;
; 1338 : 
; 1339 : 											ClearBattleButton();
; 1340 : 
; 1341 : 											BattleCmdNo = BATTLE_ITEM;
; 1342 : 
; 1343 : 											play_se( 217, 320, 240 );
; 1344 : 											break;
; 1345 : 											
; 1346 : 										case ITEM_TARGET_OTHER:
; 1347 : 
; 1348 : 											for( i = 0 ; i < 20 ; i++ ){

  00422	83 c2 04	 add	 edx, 4
  00425	81 fa 50 00 00
	00		 cmp	 edx, OFFSET ?p_party@@3PAPAUaction@@A+80
  0042b	7c ca		 jl	 SHORT $LL14@BattleButt

; 1355 : 											}
; 1356 : 
; 1357 : 											battleTargetSelectFlag = TRUE;
; 1358 : 
; 1359 : 											DeathAction( pActWnd );
; 1360 : 											pActWnd = NULL;
; 1361 : 
; 1362 : 											ClearBattleButton();
; 1363 : 
; 1364 : 											BattleCmdNo = BATTLE_ITEM;
; 1365 : 
; 1366 : 											play_se( 217, 320, 240 );
; 1367 : 											break;

  0042d	e9 76 ff ff ff	 jmp	 $LN293@BattleButt
$LN65@BattleButt:

; 1368 : 											
; 1369 : 										case ITEM_TARGET_ALLMYSIDE:
; 1370 : 
; 1371 : 											if( BattleMyNo < 10 ){

  00432	83 3d 00 00 00
	00 0a		 cmp	 DWORD PTR ?BattleMyNo@@3HA, 10 ; BattleMyNo, 0000000aH
  00439	0f 8d f5 01 00
	00		 jge	 $LN66@BattleButt
$LN321@BattleButt:

; 1545 : 						}
; 1546 : 					}
; 1547 : 
; 1548 : 					if( pActWnd != NULL ){

  0043f	8b 0d 00 00 00
	00		 mov	 ecx, DWORD PTR ?p_party@@3PAPAUaction@@A
  00445	83 79 08 00	 cmp	 DWORD PTR [ecx+8], 0
  00449	74 20		 je	 SHORT $LN15@BattleButt
  0044b	66 83 b8 a6 01
	00 00 00	 cmp	 WORD PTR ?pc@@3UPC@@A[eax+422], 0
  00453	75 06		 jne	 SHORT $LN70@BattleButt
  00455	83 79 78 00	 cmp	 DWORD PTR [ecx+120], 0
  00459	7e 10		 jle	 SHORT $LN15@BattleButt
$LN70@BattleButt:
  0045b	81 89 a4 00 00
	00 00 20 00 00	 or	 DWORD PTR [ecx+164], 8192 ; 00002000H
  00465	8b 35 00 00 00
	00		 mov	 esi, DWORD PTR ?BattleItemNo@@3HA ; BattleItemNo
$LN15@BattleButt:
  0046b	8b 0d 04 00 00
	00		 mov	 ecx, DWORD PTR ?p_party@@3PAPAUaction@@A+4
  00471	83 79 08 00	 cmp	 DWORD PTR [ecx+8], 0
  00475	74 26		 je	 SHORT $LN160@BattleButt
  00477	69 c6 7c 01 00
	00		 imul	 eax, esi, 380
  0047d	66 83 b8 a6 01
	00 00 00	 cmp	 WORD PTR ?pc@@3UPC@@A[eax+422], 0
  00485	75 06		 jne	 SHORT $LN159@BattleButt
  00487	83 79 78 00	 cmp	 DWORD PTR [ecx+120], 0
  0048b	7e 10		 jle	 SHORT $LN160@BattleButt
$LN159@BattleButt:
  0048d	81 89 a4 00 00
	00 00 20 00 00	 or	 DWORD PTR [ecx+164], 8192 ; 00002000H
  00497	8b 35 00 00 00
	00		 mov	 esi, DWORD PTR ?BattleItemNo@@3HA ; BattleItemNo
$LN160@BattleButt:
  0049d	8b 0d 08 00 00
	00		 mov	 ecx, DWORD PTR ?p_party@@3PAPAUaction@@A+8
  004a3	83 79 08 00	 cmp	 DWORD PTR [ecx+8], 0
  004a7	74 26		 je	 SHORT $LN163@BattleButt
  004a9	69 c6 7c 01 00
	00		 imul	 eax, esi, 380
  004af	66 83 b8 a6 01
	00 00 00	 cmp	 WORD PTR ?pc@@3UPC@@A[eax+422], 0
  004b7	75 06		 jne	 SHORT $LN162@BattleButt
  004b9	83 79 78 00	 cmp	 DWORD PTR [ecx+120], 0
  004bd	7e 10		 jle	 SHORT $LN163@BattleButt
$LN162@BattleButt:
  004bf	81 89 a4 00 00
	00 00 20 00 00	 or	 DWORD PTR [ecx+164], 8192 ; 00002000H
  004c9	8b 35 00 00 00
	00		 mov	 esi, DWORD PTR ?BattleItemNo@@3HA ; BattleItemNo
$LN163@BattleButt:
  004cf	8b 0d 0c 00 00
	00		 mov	 ecx, DWORD PTR ?p_party@@3PAPAUaction@@A+12
  004d5	83 79 08 00	 cmp	 DWORD PTR [ecx+8], 0
  004d9	74 26		 je	 SHORT $LN166@BattleButt
  004db	69 c6 7c 01 00
	00		 imul	 eax, esi, 380
  004e1	66 83 b8 a6 01
	00 00 00	 cmp	 WORD PTR ?pc@@3UPC@@A[eax+422], 0
  004e9	75 06		 jne	 SHORT $LN165@BattleButt
  004eb	83 79 78 00	 cmp	 DWORD PTR [ecx+120], 0
  004ef	7e 10		 jle	 SHORT $LN166@BattleButt
$LN165@BattleButt:
  004f1	81 89 a4 00 00
	00 00 20 00 00	 or	 DWORD PTR [ecx+164], 8192 ; 00002000H
  004fb	8b 35 00 00 00
	00		 mov	 esi, DWORD PTR ?BattleItemNo@@3HA ; BattleItemNo
$LN166@BattleButt:
  00501	8b 0d 10 00 00
	00		 mov	 ecx, DWORD PTR ?p_party@@3PAPAUaction@@A+16
  00507	83 79 08 00	 cmp	 DWORD PTR [ecx+8], 0
  0050b	74 26		 je	 SHORT $LN169@BattleButt
  0050d	69 c6 7c 01 00
	00		 imul	 eax, esi, 380
  00513	66 83 b8 a6 01
	00 00 00	 cmp	 WORD PTR ?pc@@3UPC@@A[eax+422], 0
  0051b	75 06		 jne	 SHORT $LN168@BattleButt
  0051d	83 79 78 00	 cmp	 DWORD PTR [ecx+120], 0
  00521	7e 10		 jle	 SHORT $LN169@BattleButt
$LN168@BattleButt:
  00523	81 89 a4 00 00
	00 00 20 00 00	 or	 DWORD PTR [ecx+164], 8192 ; 00002000H
  0052d	8b 35 00 00 00
	00		 mov	 esi, DWORD PTR ?BattleItemNo@@3HA ; BattleItemNo
$LN169@BattleButt:
  00533	8b 0d 14 00 00
	00		 mov	 ecx, DWORD PTR ?p_party@@3PAPAUaction@@A+20
  00539	83 79 08 00	 cmp	 DWORD PTR [ecx+8], 0
  0053d	74 26		 je	 SHORT $LN172@BattleButt
  0053f	69 c6 7c 01 00
	00		 imul	 eax, esi, 380
  00545	66 83 b8 a6 01
	00 00 00	 cmp	 WORD PTR ?pc@@3UPC@@A[eax+422], 0
  0054d	75 06		 jne	 SHORT $LN171@BattleButt
  0054f	83 79 78 00	 cmp	 DWORD PTR [ecx+120], 0
  00553	7e 10		 jle	 SHORT $LN172@BattleButt
$LN171@BattleButt:
  00555	81 89 a4 00 00
	00 00 20 00 00	 or	 DWORD PTR [ecx+164], 8192 ; 00002000H
  0055f	8b 35 00 00 00
	00		 mov	 esi, DWORD PTR ?BattleItemNo@@3HA ; BattleItemNo
$LN172@BattleButt:
  00565	8b 0d 18 00 00
	00		 mov	 ecx, DWORD PTR ?p_party@@3PAPAUaction@@A+24
  0056b	83 79 08 00	 cmp	 DWORD PTR [ecx+8], 0
  0056f	74 26		 je	 SHORT $LN175@BattleButt
  00571	69 c6 7c 01 00
	00		 imul	 eax, esi, 380
  00577	66 83 b8 a6 01
	00 00 00	 cmp	 WORD PTR ?pc@@3UPC@@A[eax+422], 0
  0057f	75 06		 jne	 SHORT $LN174@BattleButt
  00581	83 79 78 00	 cmp	 DWORD PTR [ecx+120], 0
  00585	7e 10		 jle	 SHORT $LN175@BattleButt
$LN174@BattleButt:
  00587	81 89 a4 00 00
	00 00 20 00 00	 or	 DWORD PTR [ecx+164], 8192 ; 00002000H
  00591	8b 35 00 00 00
	00		 mov	 esi, DWORD PTR ?BattleItemNo@@3HA ; BattleItemNo
$LN175@BattleButt:
  00597	8b 0d 1c 00 00
	00		 mov	 ecx, DWORD PTR ?p_party@@3PAPAUaction@@A+28
  0059d	83 79 08 00	 cmp	 DWORD PTR [ecx+8], 0
  005a1	74 26		 je	 SHORT $LN178@BattleButt
  005a3	69 c6 7c 01 00
	00		 imul	 eax, esi, 380
  005a9	66 83 b8 a6 01
	00 00 00	 cmp	 WORD PTR ?pc@@3UPC@@A[eax+422], 0
  005b1	75 06		 jne	 SHORT $LN177@BattleButt
  005b3	83 79 78 00	 cmp	 DWORD PTR [ecx+120], 0
  005b7	7e 10		 jle	 SHORT $LN178@BattleButt
$LN177@BattleButt:
  005b9	81 89 a4 00 00
	00 00 20 00 00	 or	 DWORD PTR [ecx+164], 8192 ; 00002000H
  005c3	8b 35 00 00 00
	00		 mov	 esi, DWORD PTR ?BattleItemNo@@3HA ; BattleItemNo
$LN178@BattleButt:
  005c9	8b 0d 20 00 00
	00		 mov	 ecx, DWORD PTR ?p_party@@3PAPAUaction@@A+32
  005cf	83 79 08 00	 cmp	 DWORD PTR [ecx+8], 0
  005d3	74 26		 je	 SHORT $LN181@BattleButt
  005d5	69 c6 7c 01 00
	00		 imul	 eax, esi, 380
  005db	66 83 b8 a6 01
	00 00 00	 cmp	 WORD PTR ?pc@@3UPC@@A[eax+422], 0
  005e3	75 06		 jne	 SHORT $LN180@BattleButt
  005e5	83 79 78 00	 cmp	 DWORD PTR [ecx+120], 0
  005e9	7e 10		 jle	 SHORT $LN181@BattleButt
$LN180@BattleButt:
  005eb	81 89 a4 00 00
	00 00 20 00 00	 or	 DWORD PTR [ecx+164], 8192 ; 00002000H
  005f5	8b 35 00 00 00
	00		 mov	 esi, DWORD PTR ?BattleItemNo@@3HA ; BattleItemNo
$LN181@BattleButt:
  005fb	8b 0d 24 00 00
	00		 mov	 ecx, DWORD PTR ?p_party@@3PAPAUaction@@A+36
  00601	83 79 08 00	 cmp	 DWORD PTR [ecx+8], 0
  00605	0f 84 9d fd ff
	ff		 je	 $LN293@BattleButt
  0060b	69 c6 7c 01 00
	00		 imul	 eax, esi, 380
  00611	66 83 b8 a6 01
	00 00 00	 cmp	 WORD PTR ?pc@@3UPC@@A[eax+422], 0
  00619	75 0a		 jne	 SHORT $LN183@BattleButt
  0061b	83 79 78 00	 cmp	 DWORD PTR [ecx+120], 0
  0061f	0f 8e 83 fd ff
	ff		 jle	 $LN293@BattleButt
$LN183@BattleButt:
  00625	81 89 a4 00 00
	00 00 20 00 00	 or	 DWORD PTR [ecx+164], 8192 ; 00002000H
  0062f	e9 74 fd ff ff	 jmp	 $LN293@BattleButt
$LN66@BattleButt:
  00634	8b 0d 28 00 00
	00		 mov	 ecx, DWORD PTR ?p_party@@3PAPAUaction@@A+40
  0063a	83 79 08 00	 cmp	 DWORD PTR [ecx+8], 0
  0063e	74 20		 je	 SHORT $LN18@BattleButt
  00640	66 83 b8 a6 01
	00 00 00	 cmp	 WORD PTR ?pc@@3UPC@@A[eax+422], 0
  00648	75 06		 jne	 SHORT $LN73@BattleButt
  0064a	83 79 78 00	 cmp	 DWORD PTR [ecx+120], 0
  0064e	7e 10		 jle	 SHORT $LN18@BattleButt
$LN73@BattleButt:
  00650	81 89 a4 00 00
	00 00 40 00 00	 or	 DWORD PTR [ecx+164], 16384 ; 00004000H
  0065a	8b 35 00 00 00
	00		 mov	 esi, DWORD PTR ?BattleItemNo@@3HA ; BattleItemNo
$LN18@BattleButt:
  00660	8b 0d 2c 00 00
	00		 mov	 ecx, DWORD PTR ?p_party@@3PAPAUaction@@A+44
  00666	83 79 08 00	 cmp	 DWORD PTR [ecx+8], 0
  0066a	74 26		 je	 SHORT $LN191@BattleButt
  0066c	69 c6 7c 01 00
	00		 imul	 eax, esi, 380
  00672	66 83 b8 a6 01
	00 00 00	 cmp	 WORD PTR ?pc@@3UPC@@A[eax+422], 0
  0067a	75 06		 jne	 SHORT $LN190@BattleButt
  0067c	83 79 78 00	 cmp	 DWORD PTR [ecx+120], 0
  00680	7e 10		 jle	 SHORT $LN191@BattleButt
$LN190@BattleButt:
  00682	81 89 a4 00 00
	00 00 40 00 00	 or	 DWORD PTR [ecx+164], 16384 ; 00004000H
  0068c	8b 35 00 00 00
	00		 mov	 esi, DWORD PTR ?BattleItemNo@@3HA ; BattleItemNo
$LN191@BattleButt:
  00692	8b 0d 30 00 00
	00		 mov	 ecx, DWORD PTR ?p_party@@3PAPAUaction@@A+48
  00698	83 79 08 00	 cmp	 DWORD PTR [ecx+8], 0
  0069c	74 26		 je	 SHORT $LN194@BattleButt
  0069e	69 c6 7c 01 00
	00		 imul	 eax, esi, 380
  006a4	66 83 b8 a6 01
	00 00 00	 cmp	 WORD PTR ?pc@@3UPC@@A[eax+422], 0
  006ac	75 06		 jne	 SHORT $LN193@BattleButt
  006ae	83 79 78 00	 cmp	 DWORD PTR [ecx+120], 0
  006b2	7e 10		 jle	 SHORT $LN194@BattleButt
$LN193@BattleButt:
  006b4	81 89 a4 00 00
	00 00 40 00 00	 or	 DWORD PTR [ecx+164], 16384 ; 00004000H
  006be	8b 35 00 00 00
	00		 mov	 esi, DWORD PTR ?BattleItemNo@@3HA ; BattleItemNo
$LN194@BattleButt:
  006c4	8b 0d 34 00 00
	00		 mov	 ecx, DWORD PTR ?p_party@@3PAPAUaction@@A+52
  006ca	83 79 08 00	 cmp	 DWORD PTR [ecx+8], 0
  006ce	74 26		 je	 SHORT $LN197@BattleButt
  006d0	69 c6 7c 01 00
	00		 imul	 eax, esi, 380
  006d6	66 83 b8 a6 01
	00 00 00	 cmp	 WORD PTR ?pc@@3UPC@@A[eax+422], 0
  006de	75 06		 jne	 SHORT $LN196@BattleButt
  006e0	83 79 78 00	 cmp	 DWORD PTR [ecx+120], 0
  006e4	7e 10		 jle	 SHORT $LN197@BattleButt
$LN196@BattleButt:
  006e6	81 89 a4 00 00
	00 00 40 00 00	 or	 DWORD PTR [ecx+164], 16384 ; 00004000H
  006f0	8b 35 00 00 00
	00		 mov	 esi, DWORD PTR ?BattleItemNo@@3HA ; BattleItemNo
$LN197@BattleButt:
  006f6	8b 0d 38 00 00
	00		 mov	 ecx, DWORD PTR ?p_party@@3PAPAUaction@@A+56
  006fc	83 79 08 00	 cmp	 DWORD PTR [ecx+8], 0
  00700	74 26		 je	 SHORT $LN200@BattleButt
  00702	69 c6 7c 01 00
	00		 imul	 eax, esi, 380
  00708	66 83 b8 a6 01
	00 00 00	 cmp	 WORD PTR ?pc@@3UPC@@A[eax+422], 0
  00710	75 06		 jne	 SHORT $LN199@BattleButt
  00712	83 79 78 00	 cmp	 DWORD PTR [ecx+120], 0
  00716	7e 10		 jle	 SHORT $LN200@BattleButt
$LN199@BattleButt:
  00718	81 89 a4 00 00
	00 00 40 00 00	 or	 DWORD PTR [ecx+164], 16384 ; 00004000H
  00722	8b 35 00 00 00
	00		 mov	 esi, DWORD PTR ?BattleItemNo@@3HA ; BattleItemNo
$LN200@BattleButt:
  00728	8b 0d 3c 00 00
	00		 mov	 ecx, DWORD PTR ?p_party@@3PAPAUaction@@A+60
  0072e	83 79 08 00	 cmp	 DWORD PTR [ecx+8], 0
  00732	74 26		 je	 SHORT $LN203@BattleButt
  00734	69 c6 7c 01 00
	00		 imul	 eax, esi, 380
  0073a	66 83 b8 a6 01
	00 00 00	 cmp	 WORD PTR ?pc@@3UPC@@A[eax+422], 0
  00742	75 06		 jne	 SHORT $LN202@BattleButt
  00744	83 79 78 00	 cmp	 DWORD PTR [ecx+120], 0
  00748	7e 10		 jle	 SHORT $LN203@BattleButt
$LN202@BattleButt:
  0074a	81 89 a4 00 00
	00 00 40 00 00	 or	 DWORD PTR [ecx+164], 16384 ; 00004000H
  00754	8b 35 00 00 00
	00		 mov	 esi, DWORD PTR ?BattleItemNo@@3HA ; BattleItemNo
$LN203@BattleButt:
  0075a	8b 0d 40 00 00
	00		 mov	 ecx, DWORD PTR ?p_party@@3PAPAUaction@@A+64
  00760	83 79 08 00	 cmp	 DWORD PTR [ecx+8], 0
  00764	74 26		 je	 SHORT $LN206@BattleButt
  00766	69 c6 7c 01 00
	00		 imul	 eax, esi, 380
  0076c	66 83 b8 a6 01
	00 00 00	 cmp	 WORD PTR ?pc@@3UPC@@A[eax+422], 0
  00774	75 06		 jne	 SHORT $LN205@BattleButt
  00776	83 79 78 00	 cmp	 DWORD PTR [ecx+120], 0
  0077a	7e 10		 jle	 SHORT $LN206@BattleButt
$LN205@BattleButt:
  0077c	81 89 a4 00 00
	00 00 40 00 00	 or	 DWORD PTR [ecx+164], 16384 ; 00004000H
  00786	8b 35 00 00 00
	00		 mov	 esi, DWORD PTR ?BattleItemNo@@3HA ; BattleItemNo
$LN206@BattleButt:
  0078c	8b 0d 44 00 00
	00		 mov	 ecx, DWORD PTR ?p_party@@3PAPAUaction@@A+68
  00792	83 79 08 00	 cmp	 DWORD PTR [ecx+8], 0
  00796	74 26		 je	 SHORT $LN209@BattleButt
  00798	69 c6 7c 01 00
	00		 imul	 eax, esi, 380
  0079e	66 83 b8 a6 01
	00 00 00	 cmp	 WORD PTR ?pc@@3UPC@@A[eax+422], 0
  007a6	75 06		 jne	 SHORT $LN208@BattleButt
  007a8	83 79 78 00	 cmp	 DWORD PTR [ecx+120], 0
  007ac	7e 10		 jle	 SHORT $LN209@BattleButt
$LN208@BattleButt:
  007ae	81 89 a4 00 00
	00 00 40 00 00	 or	 DWORD PTR [ecx+164], 16384 ; 00004000H
  007b8	8b 35 00 00 00
	00		 mov	 esi, DWORD PTR ?BattleItemNo@@3HA ; BattleItemNo
$LN209@BattleButt:
  007be	8b 0d 48 00 00
	00		 mov	 ecx, DWORD PTR ?p_party@@3PAPAUaction@@A+72
  007c4	83 79 08 00	 cmp	 DWORD PTR [ecx+8], 0
  007c8	74 26		 je	 SHORT $LN212@BattleButt
  007ca	69 c6 7c 01 00
	00		 imul	 eax, esi, 380
  007d0	66 83 b8 a6 01
	00 00 00	 cmp	 WORD PTR ?pc@@3UPC@@A[eax+422], 0
  007d8	75 06		 jne	 SHORT $LN211@BattleButt
  007da	83 79 78 00	 cmp	 DWORD PTR [ecx+120], 0
  007de	7e 10		 jle	 SHORT $LN212@BattleButt
$LN211@BattleButt:
  007e0	81 89 a4 00 00
	00 00 40 00 00	 or	 DWORD PTR [ecx+164], 16384 ; 00004000H
  007ea	8b 35 00 00 00
	00		 mov	 esi, DWORD PTR ?BattleItemNo@@3HA ; BattleItemNo
$LN212@BattleButt:
  007f0	8b 0d 4c 00 00
	00		 mov	 ecx, DWORD PTR ?p_party@@3PAPAUaction@@A+76
  007f6	83 79 08 00	 cmp	 DWORD PTR [ecx+8], 0
  007fa	0f 84 a8 fb ff
	ff		 je	 $LN293@BattleButt
  00800	69 c6 7c 01 00
	00		 imul	 eax, esi, 380
  00806	66 83 b8 a6 01
	00 00 00	 cmp	 WORD PTR ?pc@@3UPC@@A[eax+422], 0
  0080e	75 0a		 jne	 SHORT $LN214@BattleButt
  00810	83 79 78 00	 cmp	 DWORD PTR [ecx+120], 0
  00814	0f 8e 8e fb ff
	ff		 jle	 $LN293@BattleButt
$LN214@BattleButt:
  0081a	81 89 a4 00 00
	00 00 40 00 00	 or	 DWORD PTR [ecx+164], 16384 ; 00004000H
  00824	e9 7f fb ff ff	 jmp	 $LN293@BattleButt
$LN74@BattleButt:

; 1372 : 
; 1373 : 												for( i = 0 ; i < 10 ; i++ ){
; 1374 : 
; 1375 : 													if( p_party[ i ]->func == NULL ) continue;
; 1376 : 
; 1377 : 													if( pc.item[ BattleItemNo ].deadTargetFlag == FALSE ) if( p_party[ i ]->hp <= 0 ) continue;
; 1378 : 
; 1379 : 													p_party[ i ]->atr |= ACT_ATR_HIT_BOX_ALL1;
; 1380 : 												}
; 1381 : 											}
; 1382 : 
; 1383 : 											else{
; 1384 : 
; 1385 : 												for( i = 10 ; i < 20 ; i++ ){
; 1386 : 
; 1387 : 													if( p_party[ i ]->func == NULL ) continue;
; 1388 : 
; 1389 : 													if( pc.item[ BattleItemNo ].deadTargetFlag == FALSE ) if( p_party[ i ]->hp <= 0 ) continue;
; 1390 : 
; 1391 : 													p_party[ i ]->atr |= ACT_ATR_HIT_BOX_ALL2;
; 1392 : 												}
; 1393 : 											}
; 1394 : 
; 1395 : 											battleTargetSelectFlag = TRUE;
; 1396 : 
; 1397 : 											DeathAction( pActWnd );
; 1398 : 											pActWnd = NULL;
; 1399 : 
; 1400 : 											ClearBattleButton();
; 1401 : 
; 1402 : 											BattleCmdNo = BATTLE_ITEM;
; 1403 : 
; 1404 : 											play_se( 217, 320, 240 );
; 1405 : 											break;
; 1406 : 											
; 1407 : 										case ITEM_TARGET_ALLOTHERSIDE:
; 1408 : 
; 1409 : 											if( BattleMyNo >= 10 ){

  00829	83 3d 00 00 00
	00 0a		 cmp	 DWORD PTR ?BattleMyNo@@3HA, 10 ; BattleMyNo, 0000000aH
  00830	0f 8d 09 fc ff
	ff		 jge	 $LN321@BattleButt

; 1410 : 
; 1411 : 												for( i = 0 ; i < 10 ; i++ ){
; 1412 : 
; 1413 : 													if( p_party[ i ]->func == NULL ) continue;
; 1414 : 
; 1415 : 													if( pc.item[ BattleItemNo ].deadTargetFlag == FALSE ) if( p_party[ i ]->hp <= 0 ) continue;
; 1416 : 
; 1417 : 													p_party[ i ]->atr |= ACT_ATR_HIT_BOX_ALL1;
; 1418 : 												}
; 1419 : 											}else{
; 1420 : 
; 1421 : 												for( i = 10 ; i < 20 ; i++ ){
; 1422 : 
; 1423 : 													if( p_party[ i ]->func == NULL ) continue;
; 1424 : 
; 1425 : 													if( pc.item[ BattleItemNo ].deadTargetFlag == FALSE ) if( p_party[ i ]->hp <= 0 ) continue;
; 1426 : 
; 1427 : 													p_party[ i ]->atr |= ACT_ATR_HIT_BOX_ALL2;
; 1428 : 												}
; 1429 : 											}
; 1430 : 
; 1431 : 											battleTargetSelectFlag = TRUE;
; 1432 : 
; 1433 : 											DeathAction( pActWnd );
; 1434 : 											pActWnd = NULL;
; 1435 : 
; 1436 : 											ClearBattleButton();
; 1437 : 
; 1438 : 											BattleCmdNo = BATTLE_ITEM;
; 1439 : 
; 1440 : 											play_se( 217, 320, 240 );
; 1441 : 											break;

  00836	e9 f9 fd ff ff	 jmp	 $LN66@BattleButt
$LN83@BattleButt:

; 1442 : 										
; 1443 : 										case ITEM_TARGET_ALL:
; 1444 : 
; 1445 : 											for( i = 0 ; i < 20 ; i++ ){

  0083b	ba 00 00 00 00	 mov	 edx, OFFSET ?p_party@@3PAPAUaction@@A
$LL29@BattleButt:

; 1446 : 
; 1447 : 												if( p_party[ i ]->func == NULL ) continue;

  00840	8b 0a		 mov	 ecx, DWORD PTR [edx]
  00842	83 79 08 00	 cmp	 DWORD PTR [ecx+8], 0
  00846	74 26		 je	 SHORT $LN27@BattleButt

; 1448 : 
; 1449 : 												if( pc.item[ BattleItemNo ].deadTargetFlag == FALSE ) if( p_party[ i ]->hp <= 0 ) continue;

  00848	69 c6 7c 01 00
	00		 imul	 eax, esi, 380
  0084e	66 83 b8 a6 01
	00 00 00	 cmp	 WORD PTR ?pc@@3UPC@@A[eax+422], 0
  00856	75 06		 jne	 SHORT $LN86@BattleButt
  00858	83 79 78 00	 cmp	 DWORD PTR [ecx+120], 0
  0085c	7e 10		 jle	 SHORT $LN27@BattleButt
$LN86@BattleButt:

; 1450 : 
; 1451 : 												p_party[ i ]->atr |= ACT_ATR_HIT_BOX_ALL1;

  0085e	81 89 a4 00 00
	00 00 20 00 00	 or	 DWORD PTR [ecx+164], 8192 ; 00002000H
  00868	8b 35 00 00 00
	00		 mov	 esi, DWORD PTR ?BattleItemNo@@3HA ; BattleItemNo
$LN27@BattleButt:

; 1442 : 										
; 1443 : 										case ITEM_TARGET_ALL:
; 1444 : 
; 1445 : 											for( i = 0 ; i < 20 ; i++ ){

  0086e	83 c2 04	 add	 edx, 4
  00871	81 fa 50 00 00
	00		 cmp	 edx, OFFSET ?p_party@@3PAPAUaction@@A+80
  00877	7c c7		 jl	 SHORT $LL29@BattleButt

; 1452 : 											}
; 1453 : 
; 1454 : 											battleTargetSelectFlag = TRUE;
; 1455 : 
; 1456 : 											DeathAction( pActWnd );
; 1457 : 											pActWnd = NULL;
; 1458 : 
; 1459 : 											ClearBattleButton();
; 1460 : 
; 1461 : 											BattleCmdNo = BATTLE_ITEM;
; 1462 : 
; 1463 : 											play_se( 217, 320, 240 );
; 1464 : 											break;

  00879	e9 2a fb ff ff	 jmp	 $LN293@BattleButt
$LN87@BattleButt:

; 1465 : 											
; 1466 : 										case ITEM_TARGET_NONE:
; 1467 : 
; 1468 : 											BattleButtonOff();

  0087e	e8 00 00 00 00	 call	 ?BattleButtonOff@@YAXXZ	; BattleButtonOff

; 1469 : 											battleMenuReturn = TRUE;
; 1470 : 
; 1471 : 											if( bNewServer)

  00883	83 3d 00 00 00
	00 00		 cmp	 DWORD PTR ?bNewServer@@3HA, 0 ; bNewServer
  0088a	6a 00		 push	 0
  0088c	56		 push	 esi
  0088d	ff 35 00 00 00
	00		 push	 DWORD PTR ?nowGy@@3HA	; nowGy
  00893	c7 05 00 00 00
	00 01 00 00 00	 mov	 DWORD PTR ?battleMenuReturn@@3HA, 1
  0089d	ff 35 00 00 00
	00		 push	 DWORD PTR ?nowGx@@3HA	; nowGx
  008a3	ff 35 00 00 00
	00		 push	 DWORD PTR ?sockfd@@3IA	; sockfd
  008a9	74 07		 je	 SHORT $LN88@BattleButt

; 1472 : 												lssproto_ID_send( sockfd, nowGx, nowGy, i, 0 );

  008ab	e8 00 00 00 00	 call	 ?lssproto_ID_send@@YAXHHHHH@Z ; lssproto_ID_send
  008b0	eb 05		 jmp	 SHORT $LN291@BattleButt
$LN88@BattleButt:

; 1473 : 											else
; 1474 : 												old_lssproto_ID_send( sockfd, nowGx, nowGy, i, 0 );

  008b2	e8 00 00 00 00	 call	 ?old_lssproto_ID_send@@YAXHHHHH@Z ; old_lssproto_ID_send
$LN291@BattleButt:

; 1475 : 
; 1476 : 											play_se( 203, 320, 240 );

  008b7	83 c4 14	 add	 esp, 20			; 00000014H
  008ba	68 f0 00 00 00	 push	 240			; 000000f0H
  008bf	68 40 01 00 00	 push	 320			; 00000140H
  008c4	68 cb 00 00 00	 push	 203			; 000000cbH
  008c9	e8 00 00 00 00	 call	 ?play_se@@YAHHHH@Z	; play_se

; 1477 : 
; 1478 : 											battleTargetSelectFlag = FALSE;

  008ce	c7 05 00 00 00
	00 00 00 00 00	 mov	 DWORD PTR ?battleTargetSelectFlag@@3HA, 0

; 1479 : 											break;

  008d8	e9 ad 00 00 00	 jmp	 $LN292@BattleButt
$LN90@BattleButt:

; 1480 : 											
; 1481 : 										case ITEM_TARGET_OTHERWITHOUTMYSELF:
; 1482 : 
; 1483 : 											for( i = 0 ; i < 20 ; i++ ){

  008dd	33 c9		 xor	 ecx, ecx
  008df	90		 npad	 1
$LL32@BattleButt:

; 1484 : 
; 1485 : 												if( p_party[ i ]->func == NULL ) continue;

  008e0	8b 14 8d 00 00
	00 00		 mov	 edx, DWORD PTR ?p_party@@3PAPAUaction@@A[ecx*4]
  008e7	83 7a 08 00	 cmp	 DWORD PTR [edx+8], 0
  008eb	74 2b		 je	 SHORT $LN30@BattleButt

; 1486 : 
; 1487 : 												if( i == BattleMyNo ) continue;

  008ed	3b 0d 00 00 00
	00		 cmp	 ecx, DWORD PTR ?BattleMyNo@@3HA ; BattleMyNo
  008f3	74 23		 je	 SHORT $LN30@BattleButt

; 1488 : 
; 1489 : 												if( pc.item[ BattleItemNo ].deadTargetFlag == FALSE ) if( p_party[ i ]->hp <= 0 ) continue;

  008f5	69 c6 7c 01 00
	00		 imul	 eax, esi, 380
  008fb	66 83 b8 a6 01
	00 00 00	 cmp	 WORD PTR ?pc@@3UPC@@A[eax+422], 0
  00903	75 06		 jne	 SHORT $LN94@BattleButt
  00905	83 7a 78 00	 cmp	 DWORD PTR [edx+120], 0
  00909	7e 0d		 jle	 SHORT $LN30@BattleButt
$LN94@BattleButt:

; 1490 : 
; 1491 : 												p_party[ i ]->atr |= ACT_ATR_HIT_BOX;

  0090b	83 8a a4 00 00
	00 08		 or	 DWORD PTR [edx+164], 8
  00912	8b 35 00 00 00
	00		 mov	 esi, DWORD PTR ?BattleItemNo@@3HA ; BattleItemNo
$LN30@BattleButt:

; 1480 : 											
; 1481 : 										case ITEM_TARGET_OTHERWITHOUTMYSELF:
; 1482 : 
; 1483 : 											for( i = 0 ; i < 20 ; i++ ){

  00918	41		 inc	 ecx
  00919	83 f9 14	 cmp	 ecx, 20			; 00000014H
  0091c	7c c2		 jl	 SHORT $LL32@BattleButt

; 1492 : 											}
; 1493 : 
; 1494 : 											battleTargetSelectFlag = TRUE;
; 1495 : 
; 1496 : 											DeathAction( pActWnd );
; 1497 : 											pActWnd = NULL;
; 1498 : 	
; 1499 : 											ClearBattleButton();
; 1500 : 
; 1501 : 											BattleCmdNo = BATTLE_ITEM;
; 1502 : 
; 1503 : 											play_se( 217, 320, 240 );
; 1504 : 											break;

  0091e	e9 85 fa ff ff	 jmp	 $LN293@BattleButt
$LN95@BattleButt:

; 1505 : 											
; 1506 : 										case ITEM_TARGET_WITHOUTMYSELFANDPET:
; 1507 : 
; 1508 : 											for( i = 0 ; i < 20 ; i++ ){

  00923	8b 3d 00 00 00
	00		 mov	 edi, DWORD PTR ?BattleMyNo@@3HA ; BattleMyNo
  00929	33 c9		 xor	 ecx, ecx
  0092b	0f 1f 44 00 00	 npad	 5
$LL35@BattleButt:

; 1509 : 
; 1510 : 												if( p_party[ i ]->func == NULL ) continue;

  00930	8b 14 8d 00 00
	00 00		 mov	 edx, DWORD PTR ?p_party@@3PAPAUaction@@A[ecx*4]
  00937	83 7a 08 00	 cmp	 DWORD PTR [edx+8], 0
  0093b	74 34		 je	 SHORT $LN33@BattleButt

; 1511 : 
; 1512 : 												if( i == BattleMyNo + 5 ) continue;

  0093d	8d 47 05	 lea	 eax, DWORD PTR [edi+5]
  00940	3b c8		 cmp	 ecx, eax
  00942	74 2d		 je	 SHORT $LN33@BattleButt

; 1513 : 
; 1514 : 												if( i == BattleMyNo ) continue;

  00944	3b cf		 cmp	 ecx, edi
  00946	74 29		 je	 SHORT $LN33@BattleButt

; 1515 : 
; 1516 : 												if( pc.item[ BattleItemNo ].deadTargetFlag == FALSE ) if( p_party[ i ]->hp <= 0 ) continue;

  00948	69 c6 7c 01 00
	00		 imul	 eax, esi, 380
  0094e	66 83 b8 a6 01
	00 00 00	 cmp	 WORD PTR ?pc@@3UPC@@A[eax+422], 0
  00956	75 06		 jne	 SHORT $LN100@BattleButt
  00958	83 7a 78 00	 cmp	 DWORD PTR [edx+120], 0
  0095c	7e 13		 jle	 SHORT $LN33@BattleButt
$LN100@BattleButt:

; 1517 : 
; 1518 : 												p_party[ i ]->atr |= ACT_ATR_HIT_BOX;

  0095e	83 8a a4 00 00
	00 08		 or	 DWORD PTR [edx+164], 8
  00965	8b 35 00 00 00
	00		 mov	 esi, DWORD PTR ?BattleItemNo@@3HA ; BattleItemNo
  0096b	8b 3d 00 00 00
	00		 mov	 edi, DWORD PTR ?BattleMyNo@@3HA ; BattleMyNo
$LN33@BattleButt:

; 1505 : 											
; 1506 : 										case ITEM_TARGET_WITHOUTMYSELFANDPET:
; 1507 : 
; 1508 : 											for( i = 0 ; i < 20 ; i++ ){

  00971	41		 inc	 ecx
  00972	83 f9 14	 cmp	 ecx, 20			; 00000014H
  00975	7c b9		 jl	 SHORT $LL35@BattleButt

; 1519 : 											}
; 1520 : 
; 1521 : 											battleTargetSelectFlag = TRUE;
; 1522 : 
; 1523 : 											DeathAction( pActWnd );
; 1524 : 											pActWnd = NULL;
; 1525 : 
; 1526 : 											ClearBattleButton();
; 1527 : 
; 1528 : 											BattleCmdNo = BATTLE_ITEM;
; 1529 : 
; 1530 : 											play_se( 217, 320, 240 );
; 1531 : 											break;

  00977	e9 2c fa ff ff	 jmp	 $LN293@BattleButt
$LN101@BattleButt:

; 1532 : #ifdef _PET_ITEM
; 1533 : 										case ITEM_TARGET_PET:	// 战斗中不可更换宠物装备
; 1534 : 											StockChatBufferLine("전투 중 애완동물 장비 교체 불가",FONT_PAL_RED);

  0097c	6a 00		 push	 0
  0097e	6a 06		 push	 6
  00980	68 00 00 00 00	 push	 OFFSET ??_C@_0CA@ELBOPCEK@?$MA?$PM?E?u?5?A?$NP?5?$LO?V?$LP?O?$LF?$LP?$LJ?$LA?5?$MA?e?$LK?q?5?$LB?$LD?C?$LM?5?$LK?R?$LA?$KB@
  00985	e8 00 00 00 00	 call	 ?StockChatBufferLine@@YAXPADEH@Z ; StockChatBufferLine
$LN292@BattleButt:

; 1545 : 						}
; 1546 : 					}
; 1547 : 
; 1548 : 					if( pActWnd != NULL ){

  0098a	83 c4 0c	 add	 esp, 12			; 0000000cH
$LN285@BattleButt:
  0098d	8b 0d 00 00 00
	00		 mov	 ecx, DWORD PTR ?pActWnd@@3PAUaction@@A
  00993	5f		 pop	 edi
  00994	5b		 pop	 ebx
  00995	85 c9		 test	 ecx, ecx
  00997	74 25		 je	 SHORT $LN103@BattleButt

; 1549 : 						battleMenuItemFontNo[ 0 ] = StockDispBuffer( ( ( WINDOW_DISP *)pActWnd->pYobi )->mx, pActWnd->y + 262, DISP_PRIO_IME3, CG_CLOSE_BTN, 2 );

  00999	8b 41 1c	 mov	 eax, DWORD PTR [ecx+28]
  0099c	6a 02		 push	 2
  0099e	68 ba 65 00 00	 push	 26042			; 000065baH
  009a3	05 06 01 00 00	 add	 eax, 262		; 00000106H
  009a8	6a 69		 push	 105			; 00000069H
  009aa	50		 push	 eax
  009ab	8b 41 0c	 mov	 eax, DWORD PTR [ecx+12]
  009ae	ff 70 14	 push	 DWORD PTR [eax+20]
  009b1	e8 00 00 00 00	 call	 ?StockDispBuffer@@YAHHHEHH@Z ; StockDispBuffer
  009b6	83 c4 14	 add	 esp, 20			; 00000014H
  009b9	a3 00 00 00 00	 mov	 DWORD PTR ?battleMenuItemFontNo@@3PAHA, eax
$LN103@BattleButt:

; 1550 : 					}
; 1551 : 				}
; 1552 : 			}  
; 1553 : 		} 
; 1554 : 	} 
; 1555 : }

  009be	8b 4d fc	 mov	 ecx, DWORD PTR __$ArrayPad$[ebp]
  009c1	33 cd		 xor	 ecx, ebp
  009c3	5e		 pop	 esi
  009c4	e8 00 00 00 00	 call	 @__security_check_cookie@4
  009c9	8b e5		 mov	 esp, ebp
  009cb	5d		 pop	 ebp
  009cc	c3		 ret	 0
  009cd	0f 1f 00	 npad	 3
$LN288@BattleButt:
  009d0	00 00 00 00	 DD	 $LN60@BattleButt
  009d4	00 00 00 00	 DD	 $LN61@BattleButt
  009d8	00 00 00 00	 DD	 $LN65@BattleButt
  009dc	00 00 00 00	 DD	 $LN74@BattleButt
  009e0	00 00 00 00	 DD	 $LN83@BattleButt
  009e4	00 00 00 00	 DD	 $LN87@BattleButt
  009e8	00 00 00 00	 DD	 $LN90@BattleButt
  009ec	00 00 00 00	 DD	 $LN95@BattleButt
  009f0	00 00 00 00	 DD	 $LN101@BattleButt
?BattleButtonItem@@YAXXZ ENDP				; BattleButtonItem
_TEXT	ENDS
; Function compile flags: /Ogtp
; File \\VBOXSVR\_stoneage\repos\ssm-sacli\system\battleMenu.cpp
;	COMDAT ?BattleButtonGuard@@YAXXZ
_TEXT	SEGMENT
?BattleButtonGuard@@YAXXZ PROC				; BattleButtonGuard, COMDAT

; 1198 : 	if( HitDispNo == battleButtonDispNo[ 4 ] && battleButtonFlag[ 4 ] == FALSE ){

  00000	a1 00 00 00 00	 mov	 eax, DWORD PTR ?HitDispNo@@3HA ; HitDispNo
  00005	3b 05 10 00 00
	00		 cmp	 eax, DWORD PTR ?battleButtonDispNo@@3PAHA+16
  0000b	0f 85 9d 00 00
	00		 jne	 $LN2@BattleButt
  00011	83 3d 10 00 00
	00 00		 cmp	 DWORD PTR ?battleButtonFlag@@3PAHA+16, 0
  00018	0f 85 90 00 00
	00		 jne	 $LN2@BattleButt

; 1199 : 
; 1200 : 		if( mouse.onceState & MOUSE_LEFT_CRICK ){

  0001e	f6 05 2c 00 00
	00 01		 test	 BYTE PTR ?mouse@@3UMOUSE@@A+44, 1
  00025	74 67		 je	 SHORT $LN3@BattleButt

; 1201 : 			BattleButtonOff();

  00027	e8 00 00 00 00	 call	 ?BattleButtonOff@@YAXXZ	; BattleButtonOff

; 1202 : 
; 1203 : 			battleButtonFlag[ 4 ] = TRUE;
; 1204 : 
; 1205 : 			if( bNewServer)

  0002c	83 3d 00 00 00
	00 00		 cmp	 DWORD PTR ?bNewServer@@3HA, 0 ; bNewServer
  00033	68 00 00 00 00	 push	 OFFSET ??_C@_01BBODEMC@G@
  00038	ff 35 00 00 00
	00		 push	 DWORD PTR ?sockfd@@3IA	; sockfd
  0003e	c7 05 10 00 00
	00 01 00 00 00	 mov	 DWORD PTR ?battleButtonFlag@@3PAHA+16, 1
  00048	74 07		 je	 SHORT $LN4@BattleButt

; 1206 : 				lssproto_B_send( sockfd, "G" );

  0004a	e8 00 00 00 00	 call	 ?lssproto_B_send@@YAXHPAD@Z ; lssproto_B_send
  0004f	eb 05		 jmp	 SHORT $LN7@BattleButt
$LN4@BattleButt:

; 1207 : 			else
; 1208 : 				old_lssproto_B_send( sockfd, "G" );

  00051	e8 00 00 00 00	 call	 ?old_lssproto_B_send@@YAXHPAD@Z ; old_lssproto_B_send
$LN7@BattleButt:

; 1209 : 
; 1210 : 			battleMenuReturn = TRUE;

  00056	83 c4 08	 add	 esp, 8
  00059	c7 05 00 00 00
	00 01 00 00 00	 mov	 DWORD PTR ?battleMenuReturn@@3HA, 1

; 1211 : 
; 1212 : 			battleButtonBak = -1;

  00063	c7 05 00 00 00
	00 ff ff ff ff	 mov	 DWORD PTR ?battleButtonBak@@3HA, -1 ; battleButtonBak

; 1213 : 
; 1214 : 			battleButtonBak2 = -1;

  0006d	c7 05 00 00 00
	00 ff ff ff ff	 mov	 DWORD PTR ?battleButtonBak2@@3HA, -1

; 1215 : 
; 1216 : 			play_se( 203, 320, 240 );

  00077	68 f0 00 00 00	 push	 240			; 000000f0H
  0007c	68 40 01 00 00	 push	 320			; 00000140H
  00081	68 cb 00 00 00	 push	 203			; 000000cbH
  00086	e8 00 00 00 00	 call	 ?play_se@@YAHHHH@Z	; play_se
  0008b	83 c4 0c	 add	 esp, 12			; 0000000cH
$LN3@BattleButt:

; 1217 : 		}
; 1218 : 
; 1219 : 		strcpy( OneLineInfoStr, "방어。");

  0008e	a1 00 00 00 00	 mov	 eax, DWORD PTR ??_C@_06NDKEIKGO@?$LJ?f?$LO?n?$KB?$KD@
  00093	a3 00 00 00 00	 mov	 DWORD PTR ?OneLineInfoStr@@3PADA, eax
  00098	66 a1 04 00 00
	00		 mov	 ax, WORD PTR ??_C@_06NDKEIKGO@?$LJ?f?$LO?n?$KB?$KD@+4
  0009e	66 a3 04 00 00
	00		 mov	 WORD PTR ?OneLineInfoStr@@3PADA+4, ax
  000a4	a0 06 00 00 00	 mov	 al, BYTE PTR ??_C@_06NDKEIKGO@?$LJ?f?$LO?n?$KB?$KD@+6
  000a9	a2 06 00 00 00	 mov	 BYTE PTR ?OneLineInfoStr@@3PADA+6, al
$LN2@BattleButt:

; 1220 : 	}
; 1221 : }

  000ae	c3		 ret	 0
?BattleButtonGuard@@YAXXZ ENDP				; BattleButtonGuard
_TEXT	ENDS
; Function compile flags: /Ogtp
; File \\VBOXSVR\_stoneage\repos\ssm-sacli\system\battleMenu.cpp
;	COMDAT ?BattleButtonHelp@@YAXXZ
_TEXT	SEGMENT
?BattleButtonHelp@@YAXXZ PROC				; BattleButtonHelp, COMDAT

; 1168 : 	if( HitDispNo == battleButtonDispNo[ 3 ] && battleButtonFlag[ 3 ] == FALSE ){

  00000	a1 00 00 00 00	 mov	 eax, DWORD PTR ?HitDispNo@@3HA ; HitDispNo
  00005	3b 05 0c 00 00
	00		 cmp	 eax, DWORD PTR ?battleButtonDispNo@@3PAHA+12
  0000b	0f 85 a3 00 00
	00		 jne	 $LN5@BattleButt
  00011	83 3d 0c 00 00
	00 00		 cmp	 DWORD PTR ?battleButtonFlag@@3PAHA+12, 0
  00018	0f 85 96 00 00
	00		 jne	 $LN5@BattleButt

; 1169 : 
; 1170 : 		strcpy( OneLineInfoStr, "HELP。");
; 1171 : 		if( mouse.onceState & MOUSE_LEFT_CRICK ){

  0001e	f6 05 2c 00 00
	00 01		 test	 BYTE PTR ?mouse@@3UMOUSE@@A+44, 1
  00025	a1 00 00 00 00	 mov	 eax, DWORD PTR ??_C@_06EBHMOCNH@HELP?$KB?$KD@
  0002a	a3 00 00 00 00	 mov	 DWORD PTR ?OneLineInfoStr@@3PADA, eax
  0002f	66 a1 04 00 00
	00		 mov	 ax, WORD PTR ??_C@_06EBHMOCNH@HELP?$KB?$KD@+4
  00035	66 a3 04 00 00
	00		 mov	 WORD PTR ?OneLineInfoStr@@3PADA+4, ax
  0003b	a0 06 00 00 00	 mov	 al, BYTE PTR ??_C@_06EBHMOCNH@HELP?$KB?$KD@+6
  00040	a2 06 00 00 00	 mov	 BYTE PTR ?OneLineInfoStr@@3PADA+6, al
  00045	74 6d		 je	 SHORT $LN5@BattleButt

; 1172 : 
; 1173 : 			if( NoHelpFlag == TRUE ){

  00047	83 3d 00 00 00
	00 01		 cmp	 DWORD PTR ?NoHelpFlag@@3HA, 1 ; NoHelpFlag
  0004e	75 18		 jne	 SHORT $LN4@BattleButt

; 1174 : 
; 1175 : 				play_se( 220, 320, 240 );

  00050	68 f0 00 00 00	 push	 240			; 000000f0H
  00055	68 40 01 00 00	 push	 320			; 00000140H
  0005a	68 dc 00 00 00	 push	 220			; 000000dcH

; 1190 : 			}
; 1191 : 		}
; 1192 : 	}
; 1193 : }

  0005f	e8 00 00 00 00	 call	 ?play_se@@YAHHHH@Z	; play_se
  00064	83 c4 0c	 add	 esp, 12			; 0000000cH
  00067	c3		 ret	 0
$LN4@BattleButt:

; 1176 : 			}else{
; 1177 : 
; 1178 : 				if( helpFlag == TRUE ){

  00068	33 c0		 xor	 eax, eax
  0006a	66 83 3d 00 00
	00 00 01	 cmp	 WORD PTR ?helpFlag@@3FA, 1 ; helpFlag
  00072	0f 95 c0	 setne	 al

; 1179 : 					helpFlag = FALSE;
; 1180 : 				}else{
; 1181 : 					helpFlag = TRUE;
; 1182 : 				}
; 1183 : 
; 1184 : 				if( bNewServer)

  00075	83 3d 00 00 00
	00 00		 cmp	 DWORD PTR ?bNewServer@@3HA, 0 ; bNewServer
  0007c	66 a3 00 00 00
	00		 mov	 WORD PTR ?helpFlag@@3FA, ax ; helpFlag
  00082	0f b7 c0	 movzx	 eax, ax
  00085	50		 push	 eax
  00086	ff 35 00 00 00
	00		 push	 DWORD PTR ?sockfd@@3IA	; sockfd
  0008c	74 07		 je	 SHORT $LN8@BattleButt

; 1185 : 					lssproto_HL_send( sockfd, helpFlag );

  0008e	e8 00 00 00 00	 call	 ?lssproto_HL_send@@YAXHH@Z ; lssproto_HL_send
  00093	eb 05		 jmp	 SHORT $LN12@BattleButt
$LN8@BattleButt:

; 1186 : 				else
; 1187 : 					old_lssproto_HL_send( sockfd, helpFlag );

  00095	e8 00 00 00 00	 call	 ?old_lssproto_HL_send@@YAXHH@Z ; old_lssproto_HL_send
$LN12@BattleButt:

; 1188 : 
; 1189 : 				play_se( 217, 320, 240 );

  0009a	83 c4 08	 add	 esp, 8
  0009d	68 f0 00 00 00	 push	 240			; 000000f0H
  000a2	68 40 01 00 00	 push	 320			; 00000140H
  000a7	68 d9 00 00 00	 push	 217			; 000000d9H

; 1190 : 			}
; 1191 : 		}
; 1192 : 	}
; 1193 : }

  000ac	e8 00 00 00 00	 call	 ?play_se@@YAHHHH@Z	; play_se
  000b1	83 c4 0c	 add	 esp, 12			; 0000000cH
$LN5@BattleButt:
  000b4	c3		 ret	 0
?BattleButtonHelp@@YAXXZ ENDP				; BattleButtonHelp
_TEXT	ENDS
; Function compile flags: /Ogtp
; File \\VBOXSVR\_stoneage\repos\ssm-sacli\system\battleMenu.cpp
;	COMDAT ?BattleButtonCapture@@YAXXZ
_TEXT	SEGMENT
?BattleButtonCapture@@YAXXZ PROC			; BattleButtonCapture, COMDAT

; 1114 : 	int i, bak;
; 1115 : 	if( HitDispNo == battleButtonDispNo[ 2 ] || battleButtonBak2 == 2 ){

  00000	a1 00 00 00 00	 mov	 eax, DWORD PTR ?HitDispNo@@3HA ; HitDispNo
  00005	56		 push	 esi
  00006	8b 35 00 00 00
	00		 mov	 esi, DWORD PTR ?battleButtonBak2@@3HA
  0000c	3b 05 08 00 00
	00		 cmp	 eax, DWORD PTR ?battleButtonDispNo@@3PAHA+8
  00012	74 09		 je	 SHORT $LN6@BattleButt
  00014	83 fe 02	 cmp	 esi, 2
  00017	0f 85 34 01 00
	00		 jne	 $LN3@BattleButt
$LN6@BattleButt:

; 1116 : 		// ?????????
; 1117 : 		if( CheckPetSuu() >= 5 ){

  0001d	e8 00 00 00 00	 call	 ?CheckPetSuu@@YAHXZ	; CheckPetSuu
  00022	83 f8 05	 cmp	 eax, 5
  00025	7c 64		 jl	 SHORT $LN7@BattleButt

; 1118 : 			// ??????
; 1119 : 			strcpy( OneLineInfoStr, "페트창이 꽉 차서 더이상 포획할수 없어요。");
; 1120 : 			// ?????????
; 1121 : 			if( mouse.onceState & MOUSE_LEFT_CRICK ){

  00027	f6 05 2c 00 00
	00 01		 test	 BYTE PTR ?mouse@@3UMOUSE@@A+44, 1
  0002e	0f 10 05 00 00
	00 00		 movups	 xmm0, XMMWORD PTR ??_C@_0CK@LMOADLH@?F?d?F?$KO?C?$KC?$MA?L?5?$LC?K?5?B?w?$LM?$KN?5?$LE?u?$MA?L?$LL?s?5?F?w?H?$LJ?G?R?$LM@
  00035	66 a1 28 00 00
	00		 mov	 ax, WORD PTR ??_C@_0CK@LMOADLH@?F?d?F?$KO?C?$KC?$MA?L?5?$LC?K?5?B?w?$LM?$KN?5?$LE?u?$MA?L?$LL?s?5?F?w?H?$LJ?G?R?$LM@+40
  0003b	66 a3 28 00 00
	00		 mov	 WORD PTR ?OneLineInfoStr@@3PADA+40, ax
  00041	0f 11 05 00 00
	00 00		 movups	 XMMWORD PTR ?OneLineInfoStr@@3PADA, xmm0
  00048	0f 10 05 10 00
	00 00		 movups	 xmm0, XMMWORD PTR ??_C@_0CK@LMOADLH@?F?d?F?$KO?C?$KC?$MA?L?5?$LC?K?5?B?w?$LM?$KN?5?$LE?u?$MA?L?$LL?s?5?F?w?H?$LJ?G?R?$LM@+16
  0004f	0f 11 05 10 00
	00 00		 movups	 XMMWORD PTR ?OneLineInfoStr@@3PADA+16, xmm0
  00056	f3 0f 7e 05 20
	00 00 00	 movq	 xmm0, QWORD PTR ??_C@_0CK@LMOADLH@?F?d?F?$KO?C?$KC?$MA?L?5?$LC?K?5?B?w?$LM?$KN?5?$LE?u?$MA?L?$LL?s?5?F?w?H?$LJ?G?R?$LM@+32
  0005e	66 0f d6 05 20
	00 00 00	 movq	 QWORD PTR ?OneLineInfoStr@@3PADA+32, xmm0
  00066	74 17		 je	 SHORT $LN9@BattleButt

; 1122 : 				// ???
; 1123 : 				play_se( 220, 320, 240 );

  00068	68 f0 00 00 00	 push	 240			; 000000f0H
  0006d	68 40 01 00 00	 push	 320			; 00000140H
  00072	68 dc 00 00 00	 push	 220			; 000000dcH
  00077	e8 00 00 00 00	 call	 ?play_se@@YAHHHH@Z	; play_se
  0007c	83 c4 0c	 add	 esp, 12			; 0000000cH
$LN9@BattleButt:

; 1124 : 			}
; 1125 : 			// ????????
; 1126 : 			battleButtonBak2 = -1;

  0007f	c7 05 00 00 00
	00 ff ff ff ff	 mov	 DWORD PTR ?battleButtonBak2@@3HA, -1
  00089	5e		 pop	 esi

; 1158 : 					}
; 1159 : 				}
; 1160 : 			}
; 1161 : 		}
; 1162 : 	}
; 1163 : }

  0008a	c3		 ret	 0
$LN7@BattleButt:

; 1127 : 		}else{
; 1128 : 			// ??????
; 1129 : 			strcpy( OneLineInfoStr, "포획하다。");
; 1130 : 			// ?????????
; 1131 : 			if( mouse.onceState & MOUSE_LEFT_CRICK || battleButtonBak2 == 2 ){

  0008b	f6 05 2c 00 00
	00 01		 test	 BYTE PTR ?mouse@@3UMOUSE@@A+44, 1
  00092	66 a1 08 00 00
	00		 mov	 ax, WORD PTR ??_C@_0L@OPNNNOMC@?F?w?H?$LJ?G?O?$LE?Y?$KB?$KD@+8
  00098	f3 0f 7e 05 00
	00 00 00	 movq	 xmm0, QWORD PTR ??_C@_0L@OPNNNOMC@?F?w?H?$LJ?G?O?$LE?Y?$KB?$KD@
  000a0	66 a3 08 00 00
	00		 mov	 WORD PTR ?OneLineInfoStr@@3PADA+8, ax
  000a6	a0 0a 00 00 00	 mov	 al, BYTE PTR ??_C@_0L@OPNNNOMC@?F?w?H?$LJ?G?O?$LE?Y?$KB?$KD@+10
  000ab	66 0f d6 05 00
