; Listing generated by Microsoft (R) Optimizing Compiler Version 19.29.30133.0 

	TITLE	\\VBOXSVR\_stoneage\repos\ssm-sacli\Release\battleMap.obj
	.686P
	.XMM
	include listing.inc
	.model	flat

INCLUDELIB LIBCMT
INCLUDELIB OLDNAMES

PUBLIC	?BattleMapNo@@3HA				; BattleMapNo
PUBLIC	?RandBattleBg@@3HA				; RandBattleBg
PUBLIC	?BattleMapAdvance@@3HA				; BattleMapAdvance
PUBLIC	?BattleMapFile@@3PAPADA				; BattleMapFile
PUBLIC	??_C@_0BO@KHLNAKBP@data?2battleMap?2battle00?4sabex@ ; `string'
PUBLIC	??_C@_0BO@GLBHAKIB@data?2battleMap?2battle01?4sabex@ ; `string'
PUBLIC	??_C@_0BO@OFJIANGC@data?2battleMap?2battle02?4sabex@ ; `string'
PUBLIC	??_C@_0BO@CJDCANPM@data?2battleMap?2battle03?4sabex@ ; `string'
PUBLIC	??_C@_0BO@CDPHAEOF@data?2battleMap?2battle04?4sabex@ ; `string'
PUBLIC	??_C@_0BO@OPFNAEHL@data?2battleMap?2battle05?4sabex@ ; `string'
PUBLIC	??_C@_0BO@GBNCADJI@data?2battleMap?2battle06?4sabex@ ; `string'
PUBLIC	??_C@_0BO@KNHIADAG@data?2battleMap?2battle07?4sabex@ ; `string'
PUBLIC	??_C@_0BO@HEFIBBKK@data?2battleMap?2battle08?4sabex@ ; `string'
PUBLIC	??_C@_0BO@LIPCBBDE@data?2battleMap?2battle09?4sabex@ ; `string'
PUBLIC	??_C@_0BO@LAMGBOFM@data?2battleMap?2battle10?4sabex@ ; `string'
PUBLIC	??_C@_0BO@HMGMBOMC@data?2battleMap?2battle11?4sabex@ ; `string'
PUBLIC	??_C@_0BO@PCODBJCB@data?2battleMap?2battle12?4sabex@ ; `string'
PUBLIC	??_C@_0BO@DOEJBJLP@data?2battleMap?2battle13?4sabex@ ; `string'
PUBLIC	??_C@_0BO@DEIMBAKG@data?2battleMap?2battle14?4sabex@ ; `string'
PUBLIC	??_C@_0BO@PICGBADI@data?2battleMap?2battle15?4sabex@ ; `string'
PUBLIC	??_C@_0BO@HGKJBHNL@data?2battleMap?2battle16?4sabex@ ; `string'
PUBLIC	??_C@_0BO@LKADBHEF@data?2battleMap?2battle17?4sabex@ ; `string'
PUBLIC	??_C@_0BO@GDCDAFOJ@data?2battleMap?2battle18?4sabex@ ; `string'
PUBLIC	??_C@_0BO@KPIJAFHH@data?2battleMap?2battle19?4sabex@ ; `string'
PUBLIC	??_C@_0BO@IJELCCJJ@data?2battleMap?2battle20?4sabex@ ; `string'
PUBLIC	??_C@_0BO@EFOBCCAH@data?2battleMap?2battle21?4sabex@ ; `string'
PUBLIC	??_C@_0BO@MLGOCFOE@data?2battleMap?2battle22?4sabex@ ; `string'
PUBLIC	??_C@_0BO@HMECFHK@data?2battleMap?2battle23?4sabex@ ; `string'
PUBLIC	??_C@_0BO@NABCMGD@data?2battleMap?2battle24?4sabex@ ; `string'
PUBLIC	??_C@_0BO@MBKLCMPN@data?2battleMap?2battle25?4sabex@ ; `string'
PUBLIC	??_C@_0BO@EPCECLBO@data?2battleMap?2battle26?4sabex@ ; `string'
PUBLIC	??_C@_0BO@IDIOCLIA@data?2battleMap?2battle27?4sabex@ ; `string'
PUBLIC	??_C@_0BO@FKKODJCM@data?2battleMap?2battle28?4sabex@ ; `string'
PUBLIC	??_C@_0BO@JGAEDJLC@data?2battleMap?2battle29?4sabex@ ; `string'
PUBLIC	??_C@_0BO@JODADGNK@data?2battleMap?2battle30?4sabex@ ; `string'
PUBLIC	??_C@_0BO@FCJKDGEE@data?2battleMap?2battle31?4sabex@ ; `string'
PUBLIC	??_C@_0BO@NMBFDBKH@data?2battleMap?2battle32?4sabex@ ; `string'
PUBLIC	??_C@_0BO@BALPDBDJ@data?2battleMap?2battle33?4sabex@ ; `string'
PUBLIC	??_C@_0BO@BKHKDICA@data?2battleMap?2battle34?4sabex@ ; `string'
PUBLIC	??_C@_0BO@NGNADILO@data?2battleMap?2battle35?4sabex@ ; `string'
PUBLIC	??_C@_0BO@FIFPDPFN@data?2battleMap?2battle36?4sabex@ ; `string'
PUBLIC	??_C@_0BO@JEPFDPMD@data?2battleMap?2battle37?4sabex@ ; `string'
PUBLIC	??_C@_0BO@ENNFCNGP@data?2battleMap?2battle38?4sabex@ ; `string'
PUBLIC	??_C@_0BO@IBHPCNPB@data?2battleMap?2battle39?4sabex@ ; `string'
PUBLIC	??_C@_0BO@PKFBFLBD@data?2battleMap?2battle40?4sabex@ ; `string'
PUBLIC	??_C@_0BO@DGPLFLIN@data?2battleMap?2battle41?4sabex@ ; `string'
PUBLIC	??_C@_0BO@LIHEFMGO@data?2battleMap?2battle42?4sabex@ ; `string'
PUBLIC	??_C@_0BO@HENOFMPA@data?2battleMap?2battle43?4sabex@ ; `string'
PUBLIC	??_C@_0BO@HOBLFFOJ@data?2battleMap?2battle44?4sabex@ ; `string'
PUBLIC	??_C@_0BO@LCLBFFHH@data?2battleMap?2battle45?4sabex@ ; `string'
PUBLIC	??_C@_0BO@DMDOFCJE@data?2battleMap?2battle46?4sabex@ ; `string'
PUBLIC	??_C@_0BO@PAJEFCAK@data?2battleMap?2battle47?4sabex@ ; `string'
PUBLIC	??_C@_0BO@CJLEEAKG@data?2battleMap?2battle48?4sabex@ ; `string'
PUBLIC	??_C@_0BO@OFBOEADI@data?2battleMap?2battle49?4sabex@ ; `string'
PUBLIC	??_C@_0BO@ONCKEPFA@data?2battleMap?2battle50?4sabex@ ; `string'
PUBLIC	??_C@_0BO@CBIAEPMO@data?2battleMap?2battle51?4sabex@ ; `string'
PUBLIC	??_C@_0BO@KPAPEICN@data?2battleMap?2battle52?4sabex@ ; `string'
PUBLIC	??_C@_0BO@GDKFEILD@data?2battleMap?2battle53?4sabex@ ; `string'
PUBLIC	??_C@_0BO@GJGAEBKK@data?2battleMap?2battle54?4sabex@ ; `string'
PUBLIC	??_C@_0BO@KFMKEBDE@data?2battleMap?2battle55?4sabex@ ; `string'
PUBLIC	??_C@_0BO@CLEFEGNH@data?2battleMap?2battle56?4sabex@ ; `string'
PUBLIC	??_C@_0BO@OHOPEGEJ@data?2battleMap?2battle57?4sabex@ ; `string'
PUBLIC	??_C@_0BO@DOMPFEOF@data?2battleMap?2battle58?4sabex@ ; `string'
PUBLIC	??_C@_0BO@PCGFFEHL@data?2battleMap?2battle59?4sabex@ ; `string'
PUBLIC	??_C@_0BO@NEKHHDJF@data?2battleMap?2battle60?4sabex@ ; `string'
PUBLIC	??_C@_0BO@BIANHDAL@data?2battleMap?2battle61?4sabex@ ; `string'
PUBLIC	??_C@_0BO@JGICHEOI@data?2battleMap?2battle62?4sabex@ ; `string'
PUBLIC	??_C@_0BO@FKCIHEHG@data?2battleMap?2battle63?4sabex@ ; `string'
PUBLIC	??_C@_0BO@FAONHNGP@data?2battleMap?2battle64?4sabex@ ; `string'
PUBLIC	??_C@_0BO@JMEHHNPB@data?2battleMap?2battle65?4sabex@ ; `string'
PUBLIC	??_C@_0BO@BCMIHKBC@data?2battleMap?2battle66?4sabex@ ; `string'
PUBLIC	??_C@_0BO@NOGCHKIM@data?2battleMap?2battle67?4sabex@ ; `string'
PUBLIC	??_C@_0BO@HECGICA@data?2battleMap?2battle68?4sabex@ ; `string'
PUBLIC	??_C@_0BO@MLOIGILO@data?2battleMap?2battle69?4sabex@ ; `string'
PUBLIC	??_C@_0BO@MDNMGHNG@data?2battleMap?2battle70?4sabex@ ; `string'
PUBLIC	??_C@_0BO@PHGGHEI@data?2battleMap?2battle71?4sabex@ ; `string'
PUBLIC	??_C@_0BO@IBPJGAKL@data?2battleMap?2battle72?4sabex@ ; `string'
PUBLIC	??_C@_0BO@ENFDGADF@data?2battleMap?2battle73?4sabex@ ; `string'
PUBLIC	??_C@_0BO@EHJGGJCM@data?2battleMap?2battle74?4sabex@ ; `string'
PUBLIC	??_C@_0BO@ILDMGJLC@data?2battleMap?2battle75?4sabex@ ; `string'
PUBLIC	??_C@_0BO@FLDGOFB@data?2battleMap?2battle76?4sabex@ ; `string'
PUBLIC	??_C@_0BO@MJBJGOMP@data?2battleMap?2battle77?4sabex@ ; `string'
PUBLIC	??_C@_0BO@BADJHMGD@data?2battleMap?2battle78?4sabex@ ; `string'
PUBLIC	??_C@_0BO@NMJDHMPN@data?2battleMap?2battle79?4sabex@ ; `string'
PUBLIC	??_C@_0BO@BMGFKIAH@data?2battleMap?2battle80?4sabex@ ; `string'
PUBLIC	??_C@_0BO@NAMPKIJJ@data?2battleMap?2battle81?4sabex@ ; `string'
PUBLIC	??_C@_0BO@FOEAKPHK@data?2battleMap?2battle82?4sabex@ ; `string'
PUBLIC	??_C@_0BO@JCOKKPOE@data?2battleMap?2battle83?4sabex@ ; `string'
PUBLIC	??_C@_0BO@JICPKGPN@data?2battleMap?2battle84?4sabex@ ; `string'
PUBLIC	??_C@_0BO@FEIFKGGD@data?2battleMap?2battle85?4sabex@ ; `string'
PUBLIC	??_C@_0BO@NKAKKBIA@data?2battleMap?2battle86?4sabex@ ; `string'
PUBLIC	??_C@_0BO@BGKAKBBO@data?2battleMap?2battle87?4sabex@ ; `string'
PUBLIC	??_C@_0BO@MPIALDLC@data?2battleMap?2battle88?4sabex@ ; `string'
PUBLIC	??_C@_0BO@DCKLDCM@data?2battleMap?2battle89?4sabex@ ; `string'
PUBLIC	??_C@_0BO@LBOLMEE@data?2battleMap?2battle90?4sabex@ ; `string'
PUBLIC	??_C@_0BO@MHLELMNK@data?2battleMap?2battle91?4sabex@ ; `string'
PUBLIC	??_C@_0BO@EJDLLLDJ@data?2battleMap?2battle92?4sabex@ ; `string'
PUBLIC	??_C@_0BO@IFJBLLKH@data?2battleMap?2battle93?4sabex@ ; `string'
PUBLIC	??_C@_0BO@IPFELCLO@data?2battleMap?2battle94?4sabex@ ; `string'
PUBLIC	??_C@_0BO@EDPOLCCA@data?2battleMap?2battle95?4sabex@ ; `string'
PUBLIC	??_C@_0BO@MNHBLFMD@data?2battleMap?2battle96?4sabex@ ; `string'
PUBLIC	??_C@_0BO@BNLLFFN@data?2battleMap?2battle97?4sabex@ ; `string'
PUBLIC	??_C@_0BO@NIPLKHPB@data?2battleMap?2battle98?4sabex@ ; `string'
PUBLIC	??_C@_0BO@BEFBKHGP@data?2battleMap?2battle99?4sabex@ ; `string'
PUBLIC	??_C@_0BP@COCPFCIL@data?2battleMap?2battle100?4sabex@ ; `string'
PUBLIC	??_C@_0BP@OCIFFCBF@data?2battleMap?2battle101?4sabex@ ; `string'
PUBLIC	??_C@_0BP@GMAKFFPG@data?2battleMap?2battle102?4sabex@ ; `string'
PUBLIC	??_C@_0BP@KAKAFFGI@data?2battleMap?2battle103?4sabex@ ; `string'
PUBLIC	??_C@_0BP@KKGFFMHB@data?2battleMap?2battle104?4sabex@ ; `string'
PUBLIC	??_C@_0BP@GGMPFMOP@data?2battleMap?2battle105?4sabex@ ; `string'
PUBLIC	??_C@_0BP@OIEAFLAM@data?2battleMap?2battle106?4sabex@ ; `string'
PUBLIC	??_C@_0BP@CEOKFLJC@data?2battleMap?2battle107?4sabex@ ; `string'
PUBLIC	??_C@_0BP@PNMKEJDO@data?2battleMap?2battle108?4sabex@ ; `string'
PUBLIC	??_C@_0BP@DBGAEJKA@data?2battleMap?2battle109?4sabex@ ; `string'
PUBLIC	??_C@_0BP@DJFEEGMI@data?2battleMap?2battle110?4sabex@ ; `string'
PUBLIC	??_C@_0BP@PFPOEGFG@data?2battleMap?2battle111?4sabex@ ; `string'
PUBLIC	??_C@_0BP@HLHBEBLF@data?2battleMap?2battle112?4sabex@ ; `string'
PUBLIC	??_C@_0BP@LHNLEBCL@data?2battleMap?2battle113?4sabex@ ; `string'
PUBLIC	??_C@_0BP@LNBOEIDC@data?2battleMap?2battle114?4sabex@ ; `string'
PUBLIC	??_C@_0BP@HBLEEIKM@data?2battleMap?2battle115?4sabex@ ; `string'
PUBLIC	??_C@_0BP@PPDLEPEP@data?2battleMap?2battle116?4sabex@ ; `string'
PUBLIC	??_C@_0BP@DDJBEPNB@data?2battleMap?2battle117?4sabex@ ; `string'
PUBLIC	??_C@_0BP@OKLBFNHN@data?2battleMap?2battle118?4sabex@ ; `string'
PUBLIC	??_C@_0BP@CGBLFNOD@data?2battleMap?2battle119?4sabex@ ; `string'
PUBLIC	??_C@_0BP@NJHKAN@data?2battleMap?2battle120?4sabex@ ; `string'
PUBLIC	??_C@_0BP@MMHDHKJD@data?2battleMap?2battle121?4sabex@ ; `string'
PUBLIC	??_C@_0BP@ECPMHNHA@data?2battleMap?2battle122?4sabex@ ; `string'
PUBLIC	??_C@_0BP@IOFGHNOO@data?2battleMap?2battle123?4sabex@ ; `string'
PUBLIC	??_C@_0BP@IEJDHEPH@data?2battleMap?2battle124?4sabex@ ; `string'
PUBLIC	??_C@_0BP@EIDJHEGJ@data?2battleMap?2battle125?4sabex@ ; `string'
PUBLIC	??_C@_0BP@MGLGHDIK@data?2battleMap?2battle126?4sabex@ ; `string'
PUBLIC	??_C@_0BP@KBMHDBE@data?2battleMap?2battle127?4sabex@ ; `string'
PUBLIC	??_C@_0BP@NDDMGBLI@data?2battleMap?2battle128?4sabex@ ; `string'
PUBLIC	??_C@_0BP@BPJGGBCG@data?2battleMap?2battle129?4sabex@ ; `string'
PUBLIC	??_C@_0BP@BHKCGOEO@data?2battleMap?2battle130?4sabex@ ; `string'
PUBLIC	??_C@_0BP@NLAIGONA@data?2battleMap?2battle131?4sabex@ ; `string'
PUBLIC	??_C@_0BP@FFIHGJDD@data?2battleMap?2battle132?4sabex@ ; `string'
PUBLIC	??_C@_0BP@JJCNGJKN@data?2battleMap?2battle133?4sabex@ ; `string'
PUBLIC	??_C@_0BP@JDOIGALE@data?2battleMap?2battle134?4sabex@ ; `string'
PUBLIC	??_C@_0BP@FPECGACK@data?2battleMap?2battle135?4sabex@ ; `string'
PUBLIC	??_C@_0BP@NBMNGHMJ@data?2battleMap?2battle136?4sabex@ ; `string'
PUBLIC	??_C@_0BP@BNGHGHFH@data?2battleMap?2battle137?4sabex@ ; `string'
PUBLIC	??_C@_0BP@MEEHHFPL@data?2battleMap?2battle138?4sabex@ ; `string'
PUBLIC	??_C@_0BP@IONHFGF@data?2battleMap?2battle139?4sabex@ ; `string'
PUBLIC	??_C@_0BP@HDMDADIH@data?2battleMap?2battle140?4sabex@ ; `string'
PUBLIC	??_C@_0BP@LPGJADBJ@data?2battleMap?2battle141?4sabex@ ; `string'
PUBLIC	??_C@_0BP@DBOGAEPK@data?2battleMap?2battle142?4sabex@ ; `string'
PUBLIC	??_C@_0BP@PNEMAEGE@data?2battleMap?2battle143?4sabex@ ; `string'
PUBLIC	??_C@_0BP@PHIJANHN@data?2battleMap?2battle144?4sabex@ ; `string'
PUBLIC	??_C@_0BP@DLCDANOD@data?2battleMap?2battle145?4sabex@ ; `string'
PUBLIC	??_C@_0BP@LFKMAKAA@data?2battleMap?2battle146?4sabex@ ; `string'
PUBLIC	??_C@_0BP@HJAGAKJO@data?2battleMap?2battle147?4sabex@ ; `string'
PUBLIC	??_C@_0BP@KACGBIDC@data?2battleMap?2battle148?4sabex@ ; `string'
PUBLIC	??_C@_0BP@GMIMBIKM@data?2battleMap?2battle149?4sabex@ ; `string'
PUBLIC	??_C@_0BP@GELIBHME@data?2battleMap?2battle150?4sabex@ ; `string'
PUBLIC	??_C@_0BP@KIBCBHFK@data?2battleMap?2battle151?4sabex@ ; `string'
PUBLIC	??_C@_0BP@CGJNBALJ@data?2battleMap?2battle152?4sabex@ ; `string'
PUBLIC	??_C@_0BP@OKDHBACH@data?2battleMap?2battle153?4sabex@ ; `string'
PUBLIC	??_C@_0BP@OAPCBJDO@data?2battleMap?2battle154?4sabex@ ; `string'
PUBLIC	??_C@_0BP@CMFIBJKA@data?2battleMap?2battle155?4sabex@ ; `string'
PUBLIC	??_C@_0BP@KCNHBOED@data?2battleMap?2battle156?4sabex@ ; `string'
PUBLIC	??_C@_0BP@GOHNBONN@data?2battleMap?2battle157?4sabex@ ; `string'
PUBLIC	??_C@_0BP@LHFNAMHB@data?2battleMap?2battle158?4sabex@ ; `string'
PUBLIC	??_C@_0BP@HLPHAMOP@data?2battleMap?2battle159?4sabex@ ; `string'
PUBLIC	??_C@_0BP@FNDFCLAB@data?2battleMap?2battle160?4sabex@ ; `string'
PUBLIC	??_C@_0BP@JBJPCLJP@data?2battleMap?2battle161?4sabex@ ; `string'
PUBLIC	??_C@_0BP@BPBACMHM@data?2battleMap?2battle162?4sabex@ ; `string'
PUBLIC	??_C@_0BP@NDLKCMOC@data?2battleMap?2battle163?4sabex@ ; `string'
PUBLIC	??_C@_0BP@NJHPCFPL@data?2battleMap?2battle164?4sabex@ ; `string'
PUBLIC	??_C@_0BP@BFNFCFGF@data?2battleMap?2battle165?4sabex@ ; `string'
PUBLIC	??_C@_0BP@JLFKCCIG@data?2battleMap?2battle166?4sabex@ ; `string'
PUBLIC	??_C@_0BP@FHPACCBI@data?2battleMap?2battle167?4sabex@ ; `string'
PUBLIC	??_C@_0BP@IONADALE@data?2battleMap?2battle168?4sabex@ ; `string'
PUBLIC	??_C@_0BP@ECHKDACK@data?2battleMap?2battle169?4sabex@ ; `string'
PUBLIC	??_C@_0BP@EKEODPEC@data?2battleMap?2battle170?4sabex@ ; `string'
PUBLIC	??_C@_0BP@IGOEDPNM@data?2battleMap?2battle171?4sabex@ ; `string'
PUBLIC	??_C@_0BP@IGLDIDP@data?2battleMap?2battle172?4sabex@ ; `string'
PUBLIC	??_C@_0BP@MEMBDIKB@data?2battleMap?2battle173?4sabex@ ; `string'
PUBLIC	??_C@_0BP@MOAEDBLI@data?2battleMap?2battle174?4sabex@ ; `string'
PUBLIC	??_C@_0BP@CKODBCG@data?2battleMap?2battle175?4sabex@ ; `string'
PUBLIC	??_C@_0BP@IMCBDGMF@data?2battleMap?2battle176?4sabex@ ; `string'
PUBLIC	??_C@_0BP@EAILDGFL@data?2battleMap?2battle177?4sabex@ ; `string'
PUBLIC	??_C@_0BP@JJKLCEPH@data?2battleMap?2battle178?4sabex@ ; `string'
PUBLIC	??_C@_0BP@FFABCEGJ@data?2battleMap?2battle179?4sabex@ ; `string'
PUBLIC	??_C@_0BP@JFPHPAJD@data?2battleMap?2battle180?4sabex@ ; `string'
PUBLIC	??_C@_0BP@FJFNPAAN@data?2battleMap?2battle181?4sabex@ ; `string'
PUBLIC	??_C@_0BP@NHNCPHOO@data?2battleMap?2battle182?4sabex@ ; `string'
PUBLIC	??_C@_0BP@BLHIPHHA@data?2battleMap?2battle183?4sabex@ ; `string'
PUBLIC	??_C@_0BP@BBLNPOGJ@data?2battleMap?2battle184?4sabex@ ; `string'
PUBLIC	??_C@_0BP@NNBHPOPH@data?2battleMap?2battle185?4sabex@ ; `string'
PUBLIC	??_C@_0BP@FDJIPJBE@data?2battleMap?2battle186?4sabex@ ; `string'
PUBLIC	??_C@_0BP@JPDCPJIK@data?2battleMap?2battle187?4sabex@ ; `string'
PUBLIC	??_C@_0BP@EGBCOLCG@data?2battleMap?2battle188?4sabex@ ; `string'
PUBLIC	??_C@_0BP@IKLIOLLI@data?2battleMap?2battle189?4sabex@ ; `string'
PUBLIC	??_C@_0BP@ICIMOENA@data?2battleMap?2battle190?4sabex@ ; `string'
PUBLIC	??_C@_0BP@EOCGOEEO@data?2battleMap?2battle191?4sabex@ ; `string'
PUBLIC	??_C@_0BP@MAKJODKN@data?2battleMap?2battle192?4sabex@ ; `string'
PUBLIC	??_C@_0BP@MADODDD@data?2battleMap?2battle193?4sabex@ ; `string'
PUBLIC	??_C@_0BP@GMGOKCK@data?2battleMap?2battle194?4sabex@ ; `string'
PUBLIC	??_C@_0BP@MKGMOKLE@data?2battleMap?2battle195?4sabex@ ; `string'
PUBLIC	??_C@_0BP@EEODONFH@data?2battleMap?2battle196?4sabex@ ; `string'
PUBLIC	??_C@_0BP@IIEJONMJ@data?2battleMap?2battle197?4sabex@ ; `string'
PUBLIC	??_C@_0BP@FBGJPPGF@data?2battleMap?2battle198?4sabex@ ; `string'
PUBLIC	??_C@_0BP@JNMDPPPL@data?2battleMap?2battle199?4sabex@ ; `string'
PUBLIC	??_C@_0BP@MFBIOJII@data?2battleMap?2battle200?4sabex@ ; `string'
PUBLIC	??_C@_0BP@JLCOJBG@data?2battleMap?2battle201?4sabex@ ; `string'
PUBLIC	??_C@_0BP@IHDNOOPF@data?2battleMap?2battle202?4sabex@ ; `string'
PUBLIC	??_C@_0BP@ELJHOOGL@data?2battleMap?2battle203?4sabex@ ; `string'
PUBLIC	??_C@_0BP@EBFCOHHC@data?2battleMap?2battle204?4sabex@ ; `string'
PUBLIC	??_C@_0BP@INPIOHOM@data?2battleMap?2battle205?4sabex@ ; `string'
PUBLIC	??_C@_0BP@DHHOAAP@data?2battleMap?2battle206?4sabex@ ; `string'
PUBLIC	??_C@_0BP@MPNNOAJB@data?2battleMap?2battle207?4sabex@ ; `string'
PUBLIC	??_C@_0BP@BGPNPCDN@data?2battleMap?2battle208?4sabex@ ; `string'
PUBLIC	??_C@_0BP@NKFHPCKD@data?2battleMap?2battle209?4sabex@ ; `string'
PUBLIC	??_C@_0BP@NCGDPNML@data?2battleMap?2battle210?4sabex@ ; `string'
PUBLIC	??_C@_0BP@BOMJPNFF@data?2battleMap?2battle211?4sabex@ ; `string'
PUBLIC	??_C@_0BP@JAEGPKLG@data?2battleMap?2battle212?4sabex@ ; `string'
PUBLIC	??_C@_0BP@FMOMPKCI@data?2battleMap?2battle213?4sabex@ ; `string'
PUBLIC	??_C@_0BP@FGCJPDDB@data?2battleMap?2battle214?4sabex@ ; `string'
PUBLIC	??_C@_0BP@JKIDPDKP@data?2battleMap?2battle215?4sabex@ ; `string'
PUBLIC	??_C@_0BP@BEAMPEEM@data?2battleMap?2battle216?4sabex@ ; `string'
PUBLIC	??_C@_0BP@NIKGPENC@data?2battleMap?2battle217?4sabex@ ; `string'
PUBLIC	??_C@_0BP@BIGOGHO@data?2battleMap?2battle218?4sabex@ ; `string'
PUBLIC	??_C@_0BP@MNCMOGOA@data?2battleMap?2battle219?4sabex@ ; `string'
PUBLIC	?piyo_tbl@@3PAHA				; piyo_tbl
PUBLIC	?piyo_point@@3HA				; piyo_point
_BSS	SEGMENT
?BattleMapNo@@3HA DD 01H DUP (?)			; BattleMapNo
?RandBattleBg@@3HA DD 01H DUP (?)			; RandBattleBg
?BattleMapAdvance@@3HA DD 01H DUP (?)			; BattleMapAdvance
?piyo_point@@3HA DD 01H DUP (?)				; piyo_point
_BSS	ENDS
;	COMDAT ??_C@_0BP@MNCMOGOA@data?2battleMap?2battle219?4sabex@
CONST	SEGMENT
??_C@_0BP@MNCMOGOA@data?2battleMap?2battle219?4sabex@ DB 'data\battleMap\'
	DB	'battle219.sabex', 00H			; `string'
CONST	ENDS
;	COMDAT ??_C@_0BP@BIGOGHO@data?2battleMap?2battle218?4sabex@
CONST	SEGMENT
??_C@_0BP@BIGOGHO@data?2battleMap?2battle218?4sabex@ DB 'data\battleMap\b'
	DB	'attle218.sabex', 00H			; `string'
CONST	ENDS
;	COMDAT ??_C@_0BP@NIKGPENC@data?2battleMap?2battle217?4sabex@
CONST	SEGMENT
??_C@_0BP@NIKGPENC@data?2battleMap?2battle217?4sabex@ DB 'data\battleMap\'
	DB	'battle217.sabex', 00H			; `string'
CONST	ENDS
;	COMDAT ??_C@_0BP@BEAMPEEM@data?2battleMap?2battle216?4sabex@
CONST	SEGMENT
??_C@_0BP@BEAMPEEM@data?2battleMap?2battle216?4sabex@ DB 'data\battleMap\'
	DB	'battle216.sabex', 00H			; `string'
CONST	ENDS
;	COMDAT ??_C@_0BP@JKIDPDKP@data?2battleMap?2battle215?4sabex@
CONST	SEGMENT
??_C@_0BP@JKIDPDKP@data?2battleMap?2battle215?4sabex@ DB 'data\battleMap\'
	DB	'battle215.sabex', 00H			; `string'
CONST	ENDS
;	COMDAT ??_C@_0BP@FGCJPDDB@data?2battleMap?2battle214?4sabex@
CONST	SEGMENT
??_C@_0BP@FGCJPDDB@data?2battleMap?2battle214?4sabex@ DB 'data\battleMap\'
	DB	'battle214.sabex', 00H			; `string'
CONST	ENDS
;	COMDAT ??_C@_0BP@FMOMPKCI@data?2battleMap?2battle213?4sabex@
CONST	SEGMENT
??_C@_0BP@FMOMPKCI@data?2battleMap?2battle213?4sabex@ DB 'data\battleMap\'
	DB	'battle213.sabex', 00H			; `string'
CONST	ENDS
;	COMDAT ??_C@_0BP@JAEGPKLG@data?2battleMap?2battle212?4sabex@
CONST	SEGMENT
??_C@_0BP@JAEGPKLG@data?2battleMap?2battle212?4sabex@ DB 'data\battleMap\'
	DB	'battle212.sabex', 00H			; `string'
CONST	ENDS
;	COMDAT ??_C@_0BP@BOMJPNFF@data?2battleMap?2battle211?4sabex@
CONST	SEGMENT
??_C@_0BP@BOMJPNFF@data?2battleMap?2battle211?4sabex@ DB 'data\battleMap\'
	DB	'battle211.sabex', 00H			; `string'
CONST	ENDS
;	COMDAT ??_C@_0BP@NCGDPNML@data?2battleMap?2battle210?4sabex@
CONST	SEGMENT
??_C@_0BP@NCGDPNML@data?2battleMap?2battle210?4sabex@ DB 'data\battleMap\'
	DB	'battle210.sabex', 00H			; `string'
CONST	ENDS
;	COMDAT ??_C@_0BP@NKFHPCKD@data?2battleMap?2battle209?4sabex@
CONST	SEGMENT
??_C@_0BP@NKFHPCKD@data?2battleMap?2battle209?4sabex@ DB 'data\battleMap\'
	DB	'battle209.sabex', 00H			; `string'
CONST	ENDS
;	COMDAT ??_C@_0BP@BGPNPCDN@data?2battleMap?2battle208?4sabex@
CONST	SEGMENT
??_C@_0BP@BGPNPCDN@data?2battleMap?2battle208?4sabex@ DB 'data\battleMap\'
	DB	'battle208.sabex', 00H			; `string'
CONST	ENDS
;	COMDAT ??_C@_0BP@MPNNOAJB@data?2battleMap?2battle207?4sabex@
CONST	SEGMENT
??_C@_0BP@MPNNOAJB@data?2battleMap?2battle207?4sabex@ DB 'data\battleMap\'
	DB	'battle207.sabex', 00H			; `string'
CONST	ENDS
;	COMDAT ??_C@_0BP@DHHOAAP@data?2battleMap?2battle206?4sabex@
CONST	SEGMENT
??_C@_0BP@DHHOAAP@data?2battleMap?2battle206?4sabex@ DB 'data\battleMap\b'
	DB	'attle206.sabex', 00H			; `string'
CONST	ENDS
;	COMDAT ??_C@_0BP@INPIOHOM@data?2battleMap?2battle205?4sabex@
CONST	SEGMENT
??_C@_0BP@INPIOHOM@data?2battleMap?2battle205?4sabex@ DB 'data\battleMap\'
	DB	'battle205.sabex', 00H			; `string'
CONST	ENDS
;	COMDAT ??_C@_0BP@EBFCOHHC@data?2battleMap?2battle204?4sabex@
CONST	SEGMENT
??_C@_0BP@EBFCOHHC@data?2battleMap?2battle204?4sabex@ DB 'data\battleMap\'
	DB	'battle204.sabex', 00H			; `string'
CONST	ENDS
;	COMDAT ??_C@_0BP@ELJHOOGL@data?2battleMap?2battle203?4sabex@
CONST	SEGMENT
??_C@_0BP@ELJHOOGL@data?2battleMap?2battle203?4sabex@ DB 'data\battleMap\'
	DB	'battle203.sabex', 00H			; `string'
CONST	ENDS
;	COMDAT ??_C@_0BP@IHDNOOPF@data?2battleMap?2battle202?4sabex@
CONST	SEGMENT
??_C@_0BP@IHDNOOPF@data?2battleMap?2battle202?4sabex@ DB 'data\battleMap\'
	DB	'battle202.sabex', 00H			; `string'
CONST	ENDS
;	COMDAT ??_C@_0BP@JLCOJBG@data?2battleMap?2battle201?4sabex@
CONST	SEGMENT
??_C@_0BP@JLCOJBG@data?2battleMap?2battle201?4sabex@ DB 'data\battleMap\b'
	DB	'attle201.sabex', 00H			; `string'
CONST	ENDS
;	COMDAT ??_C@_0BP@MFBIOJII@data?2battleMap?2battle200?4sabex@
CONST	SEGMENT
??_C@_0BP@MFBIOJII@data?2battleMap?2battle200?4sabex@ DB 'data\battleMap\'
	DB	'battle200.sabex', 00H			; `string'
CONST	ENDS
;	COMDAT ??_C@_0BP@JNMDPPPL@data?2battleMap?2battle199?4sabex@
CONST	SEGMENT
??_C@_0BP@JNMDPPPL@data?2battleMap?2battle199?4sabex@ DB 'data\battleMap\'
	DB	'battle199.sabex', 00H			; `string'
CONST	ENDS
;	COMDAT ??_C@_0BP@FBGJPPGF@data?2battleMap?2battle198?4sabex@
CONST	SEGMENT
??_C@_0BP@FBGJPPGF@data?2battleMap?2battle198?4sabex@ DB 'data\battleMap\'
	DB	'battle198.sabex', 00H			; `string'
CONST	ENDS
;	COMDAT ??_C@_0BP@IIEJONMJ@data?2battleMap?2battle197?4sabex@
CONST	SEGMENT
??_C@_0BP@IIEJONMJ@data?2battleMap?2battle197?4sabex@ DB 'data\battleMap\'
	DB	'battle197.sabex', 00H			; `string'
CONST	ENDS
;	COMDAT ??_C@_0BP@EEODONFH@data?2battleMap?2battle196?4sabex@
CONST	SEGMENT
??_C@_0BP@EEODONFH@data?2battleMap?2battle196?4sabex@ DB 'data\battleMap\'
	DB	'battle196.sabex', 00H			; `string'
CONST	ENDS
;	COMDAT ??_C@_0BP@MKGMOKLE@data?2battleMap?2battle195?4sabex@
CONST	SEGMENT
??_C@_0BP@MKGMOKLE@data?2battleMap?2battle195?4sabex@ DB 'data\battleMap\'
	DB	'battle195.sabex', 00H			; `string'
CONST	ENDS
;	COMDAT ??_C@_0BP@GMGOKCK@data?2battleMap?2battle194?4sabex@
CONST	SEGMENT
??_C@_0BP@GMGOKCK@data?2battleMap?2battle194?4sabex@ DB 'data\battleMap\b'
	DB	'attle194.sabex', 00H			; `string'
CONST	ENDS
;	COMDAT ??_C@_0BP@MADODDD@data?2battleMap?2battle193?4sabex@
CONST	SEGMENT
??_C@_0BP@MADODDD@data?2battleMap?2battle193?4sabex@ DB 'data\battleMap\b'
	DB	'attle193.sabex', 00H			; `string'
CONST	ENDS
;	COMDAT ??_C@_0BP@MAKJODKN@data?2battleMap?2battle192?4sabex@
CONST	SEGMENT
??_C@_0BP@MAKJODKN@data?2battleMap?2battle192?4sabex@ DB 'data\battleMap\'
	DB	'battle192.sabex', 00H			; `string'
CONST	ENDS
;	COMDAT ??_C@_0BP@EOCGOEEO@data?2battleMap?2battle191?4sabex@
CONST	SEGMENT
??_C@_0BP@EOCGOEEO@data?2battleMap?2battle191?4sabex@ DB 'data\battleMap\'
	DB	'battle191.sabex', 00H			; `string'
CONST	ENDS
;	COMDAT ??_C@_0BP@ICIMOENA@data?2battleMap?2battle190?4sabex@
CONST	SEGMENT
??_C@_0BP@ICIMOENA@data?2battleMap?2battle190?4sabex@ DB 'data\battleMap\'
	DB	'battle190.sabex', 00H			; `string'
CONST	ENDS
;	COMDAT ??_C@_0BP@IKLIOLLI@data?2battleMap?2battle189?4sabex@
CONST	SEGMENT
??_C@_0BP@IKLIOLLI@data?2battleMap?2battle189?4sabex@ DB 'data\battleMap\'
	DB	'battle189.sabex', 00H			; `string'
CONST	ENDS
;	COMDAT ??_C@_0BP@EGBCOLCG@data?2battleMap?2battle188?4sabex@
CONST	SEGMENT
??_C@_0BP@EGBCOLCG@data?2battleMap?2battle188?4sabex@ DB 'data\battleMap\'
	DB	'battle188.sabex', 00H			; `string'
CONST	ENDS
;	COMDAT ??_C@_0BP@JPDCPJIK@data?2battleMap?2battle187?4sabex@
CONST	SEGMENT
??_C@_0BP@JPDCPJIK@data?2battleMap?2battle187?4sabex@ DB 'data\battleMap\'
	DB	'battle187.sabex', 00H			; `string'
CONST	ENDS
;	COMDAT ??_C@_0BP@FDJIPJBE@data?2battleMap?2battle186?4sabex@
CONST	SEGMENT
??_C@_0BP@FDJIPJBE@data?2battleMap?2battle186?4sabex@ DB 'data\battleMap\'
	DB	'battle186.sabex', 00H			; `string'
CONST	ENDS
;	COMDAT ??_C@_0BP@NNBHPOPH@data?2battleMap?2battle185?4sabex@
CONST	SEGMENT
??_C@_0BP@NNBHPOPH@data?2battleMap?2battle185?4sabex@ DB 'data\battleMap\'
	DB	'battle185.sabex', 00H			; `string'
CONST	ENDS
;	COMDAT ??_C@_0BP@BBLNPOGJ@data?2battleMap?2battle184?4sabex@
CONST	SEGMENT
??_C@_0BP@BBLNPOGJ@data?2battleMap?2battle184?4sabex@ DB 'data\battleMap\'
	DB	'battle184.sabex', 00H			; `string'
CONST	ENDS
;	COMDAT ??_C@_0BP@BLHIPHHA@data?2battleMap?2battle183?4sabex@
CONST	SEGMENT
??_C@_0BP@BLHIPHHA@data?2battleMap?2battle183?4sabex@ DB 'data\battleMap\'
	DB	'battle183.sabex', 00H			; `string'
CONST	ENDS
;	COMDAT ??_C@_0BP@NHNCPHOO@data?2battleMap?2battle182?4sabex@
CONST	SEGMENT
??_C@_0BP@NHNCPHOO@data?2battleMap?2battle182?4sabex@ DB 'data\battleMap\'
	DB	'battle182.sabex', 00H			; `string'
CONST	ENDS
;	COMDAT ??_C@_0BP@FJFNPAAN@data?2battleMap?2battle181?4sabex@
CONST	SEGMENT
??_C@_0BP@FJFNPAAN@data?2battleMap?2battle181?4sabex@ DB 'data\battleMap\'
	DB	'battle181.sabex', 00H			; `string'
CONST	ENDS
;	COMDAT ??_C@_0BP@JFPHPAJD@data?2battleMap?2battle180?4sabex@
CONST	SEGMENT
??_C@_0BP@JFPHPAJD@data?2battleMap?2battle180?4sabex@ DB 'data\battleMap\'
	DB	'battle180.sabex', 00H			; `string'
CONST	ENDS
;	COMDAT ??_C@_0BP@FFABCEGJ@data?2battleMap?2battle179?4sabex@
CONST	SEGMENT
??_C@_0BP@FFABCEGJ@data?2battleMap?2battle179?4sabex@ DB 'data\battleMap\'
	DB	'battle179.sabex', 00H			; `string'
CONST	ENDS
;	COMDAT ??_C@_0BP@JJKLCEPH@data?2battleMap?2battle178?4sabex@
CONST	SEGMENT
??_C@_0BP@JJKLCEPH@data?2battleMap?2battle178?4sabex@ DB 'data\battleMap\'
	DB	'battle178.sabex', 00H			; `string'
CONST	ENDS
;	COMDAT ??_C@_0BP@EAILDGFL@data?2battleMap?2battle177?4sabex@
CONST	SEGMENT
??_C@_0BP@EAILDGFL@data?2battleMap?2battle177?4sabex@ DB 'data\battleMap\'
	DB	'battle177.sabex', 00H			; `string'
CONST	ENDS
;	COMDAT ??_C@_0BP@IMCBDGMF@data?2battleMap?2battle176?4sabex@
CONST	SEGMENT
??_C@_0BP@IMCBDGMF@data?2battleMap?2battle176?4sabex@ DB 'data\battleMap\'
	DB	'battle176.sabex', 00H			; `string'
CONST	ENDS
;	COMDAT ??_C@_0BP@CKODBCG@data?2battleMap?2battle175?4sabex@
CONST	SEGMENT
??_C@_0BP@CKODBCG@data?2battleMap?2battle175?4sabex@ DB 'data\battleMap\b'
	DB	'attle175.sabex', 00H			; `string'
CONST	ENDS
;	COMDAT ??_C@_0BP@MOAEDBLI@data?2battleMap?2battle174?4sabex@
CONST	SEGMENT
??_C@_0BP@MOAEDBLI@data?2battleMap?2battle174?4sabex@ DB 'data\battleMap\'
	DB	'battle174.sabex', 00H			; `string'
CONST	ENDS
;	COMDAT ??_C@_0BP@MEMBDIKB@data?2battleMap?2battle173?4sabex@
CONST	SEGMENT
??_C@_0BP@MEMBDIKB@data?2battleMap?2battle173?4sabex@ DB 'data\battleMap\'
	DB	'battle173.sabex', 00H			; `string'
CONST	ENDS
;	COMDAT ??_C@_0BP@IGLDIDP@data?2battleMap?2battle172?4sabex@
CONST	SEGMENT
??_C@_0BP@IGLDIDP@data?2battleMap?2battle172?4sabex@ DB 'data\battleMap\b'
	DB	'attle172.sabex', 00H			; `string'
CONST	ENDS
;	COMDAT ??_C@_0BP@IGOEDPNM@data?2battleMap?2battle171?4sabex@
CONST	SEGMENT
??_C@_0BP@IGOEDPNM@data?2battleMap?2battle171?4sabex@ DB 'data\battleMap\'
	DB	'battle171.sabex', 00H			; `string'
CONST	ENDS
;	COMDAT ??_C@_0BP@EKEODPEC@data?2battleMap?2battle170?4sabex@
CONST	SEGMENT
??_C@_0BP@EKEODPEC@data?2battleMap?2battle170?4sabex@ DB 'data\battleMap\'
	DB	'battle170.sabex', 00H			; `string'
CONST	ENDS
;	COMDAT ??_C@_0BP@ECHKDACK@data?2battleMap?2battle169?4sabex@
CONST	SEGMENT
??_C@_0BP@ECHKDACK@data?2battleMap?2battle169?4sabex@ DB 'data\battleMap\'
	DB	'battle169.sabex', 00H			; `string'
CONST	ENDS
;	COMDAT ??_C@_0BP@IONADALE@data?2battleMap?2battle168?4sabex@
CONST	SEGMENT
??_C@_0BP@IONADALE@data?2battleMap?2battle168?4sabex@ DB 'data\battleMap\'
	DB	'battle168.sabex', 00H			; `string'
CONST	ENDS
;	COMDAT ??_C@_0BP@FHPACCBI@data?2battleMap?2battle167?4sabex@
CONST	SEGMENT
??_C@_0BP@FHPACCBI@data?2battleMap?2battle167?4sabex@ DB 'data\battleMap\'
	DB	'battle167.sabex', 00H			; `string'
CONST	ENDS
;	COMDAT ??_C@_0BP@JLFKCCIG@data?2battleMap?2battle166?4sabex@
CONST	SEGMENT
??_C@_0BP@JLFKCCIG@data?2battleMap?2battle166?4sabex@ DB 'data\battleMap\'
	DB	'battle166.sabex', 00H			; `string'
CONST	ENDS
;	COMDAT ??_C@_0BP@BFNFCFGF@data?2battleMap?2battle165?4sabex@
CONST	SEGMENT
??_C@_0BP@BFNFCFGF@data?2battleMap?2battle165?4sabex@ DB 'data\battleMap\'
	DB	'battle165.sabex', 00H			; `string'
CONST	ENDS
;	COMDAT ??_C@_0BP@NJHPCFPL@data?2battleMap?2battle164?4sabex@
CONST	SEGMENT
??_C@_0BP@NJHPCFPL@data?2battleMap?2battle164?4sabex@ DB 'data\battleMap\'
	DB	'battle164.sabex', 00H			; `string'
CONST	ENDS
;	COMDAT ??_C@_0BP@NDLKCMOC@data?2battleMap?2battle163?4sabex@
CONST	SEGMENT
??_C@_0BP@NDLKCMOC@data?2battleMap?2battle163?4sabex@ DB 'data\battleMap\'
	DB	'battle163.sabex', 00H			; `string'
CONST	ENDS
;	COMDAT ??_C@_0BP@BPBACMHM@data?2battleMap?2battle162?4sabex@
CONST	SEGMENT
??_C@_0BP@BPBACMHM@data?2battleMap?2battle162?4sabex@ DB 'data\battleMap\'
	DB	'battle162.sabex', 00H			; `string'
CONST	ENDS
;	COMDAT ??_C@_0BP@JBJPCLJP@data?2battleMap?2battle161?4sabex@
CONST	SEGMENT
??_C@_0BP@JBJPCLJP@data?2battleMap?2battle161?4sabex@ DB 'data\battleMap\'
	DB	'battle161.sabex', 00H			; `string'
CONST	ENDS
;	COMDAT ??_C@_0BP@FNDFCLAB@data?2battleMap?2battle160?4sabex@
CONST	SEGMENT
??_C@_0BP@FNDFCLAB@data?2battleMap?2battle160?4sabex@ DB 'data\battleMap\'
	DB	'battle160.sabex', 00H			; `string'
CONST	ENDS
;	COMDAT ??_C@_0BP@HLPHAMOP@data?2battleMap?2battle159?4sabex@
CONST	SEGMENT
??_C@_0BP@HLPHAMOP@data?2battleMap?2battle159?4sabex@ DB 'data\battleMap\'
	DB	'battle159.sabex', 00H			; `string'
CONST	ENDS
;	COMDAT ??_C@_0BP@LHFNAMHB@data?2battleMap?2battle158?4sabex@
CONST	SEGMENT
??_C@_0BP@LHFNAMHB@data?2battleMap?2battle158?4sabex@ DB 'data\battleMap\'
	DB	'battle158.sabex', 00H			; `string'
CONST	ENDS
;	COMDAT ??_C@_0BP@GOHNBONN@data?2battleMap?2battle157?4sabex@
CONST	SEGMENT
??_C@_0BP@GOHNBONN@data?2battleMap?2battle157?4sabex@ DB 'data\battleMap\'
	DB	'battle157.sabex', 00H			; `string'
CONST	ENDS
;	COMDAT ??_C@_0BP@KCNHBOED@data?2battleMap?2battle156?4sabex@
CONST	SEGMENT
??_C@_0BP@KCNHBOED@data?2battleMap?2battle156?4sabex@ DB 'data\battleMap\'
	DB	'battle156.sabex', 00H			; `string'
CONST	ENDS
;	COMDAT ??_C@_0BP@CMFIBJKA@data?2battleMap?2battle155?4sabex@
CONST	SEGMENT
??_C@_0BP@CMFIBJKA@data?2battleMap?2battle155?4sabex@ DB 'data\battleMap\'
	DB	'battle155.sabex', 00H			; `string'
CONST	ENDS
;	COMDAT ??_C@_0BP@OAPCBJDO@data?2battleMap?2battle154?4sabex@
CONST	SEGMENT
??_C@_0BP@OAPCBJDO@data?2battleMap?2battle154?4sabex@ DB 'data\battleMap\'
	DB	'battle154.sabex', 00H			; `string'
CONST	ENDS
;	COMDAT ??_C@_0BP@OKDHBACH@data?2battleMap?2battle153?4sabex@
CONST	SEGMENT
??_C@_0BP@OKDHBACH@data?2battleMap?2battle153?4sabex@ DB 'data\battleMap\'
	DB	'battle153.sabex', 00H			; `string'
CONST	ENDS
;	COMDAT ??_C@_0BP@CGJNBALJ@data?2battleMap?2battle152?4sabex@
CONST	SEGMENT
??_C@_0BP@CGJNBALJ@data?2battleMap?2battle152?4sabex@ DB 'data\battleMap\'
	DB	'battle152.sabex', 00H			; `string'
CONST	ENDS
;	COMDAT ??_C@_0BP@KIBCBHFK@data?2battleMap?2battle151?4sabex@
CONST	SEGMENT
??_C@_0BP@KIBCBHFK@data?2battleMap?2battle151?4sabex@ DB 'data\battleMap\'
	DB	'battle151.sabex', 00H			; `string'
CONST	ENDS
;	COMDAT ??_C@_0BP@GELIBHME@data?2battleMap?2battle150?4sabex@
CONST	SEGMENT
??_C@_0BP@GELIBHME@data?2battleMap?2battle150?4sabex@ DB 'data\battleMap\'
	DB	'battle150.sabex', 00H			; `string'
CONST	ENDS
;	COMDAT ??_C@_0BP@GMIMBIKM@data?2battleMap?2battle149?4sabex@
CONST	SEGMENT
??_C@_0BP@GMIMBIKM@data?2battleMap?2battle149?4sabex@ DB 'data\battleMap\'
	DB	'battle149.sabex', 00H			; `string'
CONST	ENDS
;	COMDAT ??_C@_0BP@KACGBIDC@data?2battleMap?2battle148?4sabex@
CONST	SEGMENT
??_C@_0BP@KACGBIDC@data?2battleMap?2battle148?4sabex@ DB 'data\battleMap\'
	DB	'battle148.sabex', 00H			; `string'
CONST	ENDS
;	COMDAT ??_C@_0BP@HJAGAKJO@data?2battleMap?2battle147?4sabex@
CONST	SEGMENT
??_C@_0BP@HJAGAKJO@data?2battleMap?2battle147?4sabex@ DB 'data\battleMap\'
	DB	'battle147.sabex', 00H			; `string'
CONST	ENDS
;	COMDAT ??_C@_0BP@LFKMAKAA@data?2battleMap?2battle146?4sabex@
CONST	SEGMENT
??_C@_0BP@LFKMAKAA@data?2battleMap?2battle146?4sabex@ DB 'data\battleMap\'
	DB	'battle146.sabex', 00H			; `string'
CONST	ENDS
;	COMDAT ??_C@_0BP@DLCDANOD@data?2battleMap?2battle145?4sabex@
CONST	SEGMENT
??_C@_0BP@DLCDANOD@data?2battleMap?2battle145?4sabex@ DB 'data\battleMap\'
	DB	'battle145.sabex', 00H			; `string'
CONST	ENDS
;	COMDAT ??_C@_0BP@PHIJANHN@data?2battleMap?2battle144?4sabex@
CONST	SEGMENT
??_C@_0BP@PHIJANHN@data?2battleMap?2battle144?4sabex@ DB 'data\battleMap\'
	DB	'battle144.sabex', 00H			; `string'
CONST	ENDS
;	COMDAT ??_C@_0BP@PNEMAEGE@data?2battleMap?2battle143?4sabex@
CONST	SEGMENT
??_C@_0BP@PNEMAEGE@data?2battleMap?2battle143?4sabex@ DB 'data\battleMap\'
	DB	'battle143.sabex', 00H			; `string'
CONST	ENDS
;	COMDAT ??_C@_0BP@DBOGAEPK@data?2battleMap?2battle142?4sabex@
CONST	SEGMENT
??_C@_0BP@DBOGAEPK@data?2battleMap?2battle142?4sabex@ DB 'data\battleMap\'
	DB	'battle142.sabex', 00H			; `string'
CONST	ENDS
;	COMDAT ??_C@_0BP@LPGJADBJ@data?2battleMap?2battle141?4sabex@
CONST	SEGMENT
??_C@_0BP@LPGJADBJ@data?2battleMap?2battle141?4sabex@ DB 'data\battleMap\'
	DB	'battle141.sabex', 00H			; `string'
CONST	ENDS
;	COMDAT ??_C@_0BP@HDMDADIH@data?2battleMap?2battle140?4sabex@
CONST	SEGMENT
??_C@_0BP@HDMDADIH@data?2battleMap?2battle140?4sabex@ DB 'data\battleMap\'
	DB	'battle140.sabex', 00H			; `string'
CONST	ENDS
;	COMDAT ??_C@_0BP@IONHFGF@data?2battleMap?2battle139?4sabex@
CONST	SEGMENT
??_C@_0BP@IONHFGF@data?2battleMap?2battle139?4sabex@ DB 'data\battleMap\b'
	DB	'attle139.sabex', 00H			; `string'
CONST	ENDS
;	COMDAT ??_C@_0BP@MEEHHFPL@data?2battleMap?2battle138?4sabex@
CONST	SEGMENT
??_C@_0BP@MEEHHFPL@data?2battleMap?2battle138?4sabex@ DB 'data\battleMap\'
	DB	'battle138.sabex', 00H			; `string'
CONST	ENDS
;	COMDAT ??_C@_0BP@BNGHGHFH@data?2battleMap?2battle137?4sabex@
CONST	SEGMENT
??_C@_0BP@BNGHGHFH@data?2battleMap?2battle137?4sabex@ DB 'data\battleMap\'
	DB	'battle137.sabex', 00H			; `string'
CONST	ENDS
;	COMDAT ??_C@_0BP@NBMNGHMJ@data?2battleMap?2battle136?4sabex@
CONST	SEGMENT
??_C@_0BP@NBMNGHMJ@data?2battleMap?2battle136?4sabex@ DB 'data\battleMap\'
	DB	'battle136.sabex', 00H			; `string'
CONST	ENDS
;	COMDAT ??_C@_0BP@FPECGACK@data?2battleMap?2battle135?4sabex@
CONST	SEGMENT
??_C@_0BP@FPECGACK@data?2battleMap?2battle135?4sabex@ DB 'data\battleMap\'
	DB	'battle135.sabex', 00H			; `string'
CONST	ENDS
;	COMDAT ??_C@_0BP@JDOIGALE@data?2battleMap?2battle134?4sabex@
CONST	SEGMENT
??_C@_0BP@JDOIGALE@data?2battleMap?2battle134?4sabex@ DB 'data\battleMap\'
	DB	'battle134.sabex', 00H			; `string'
CONST	ENDS
;	COMDAT ??_C@_0BP@JJCNGJKN@data?2battleMap?2battle133?4sabex@
CONST	SEGMENT
??_C@_0BP@JJCNGJKN@data?2battleMap?2battle133?4sabex@ DB 'data\battleMap\'
	DB	'battle133.sabex', 00H			; `string'
CONST	ENDS
;	COMDAT ??_C@_0BP@FFIHGJDD@data?2battleMap?2battle132?4sabex@
CONST	SEGMENT
??_C@_0BP@FFIHGJDD@data?2battleMap?2battle132?4sabex@ DB 'data\battleMap\'
	DB	'battle132.sabex', 00H			; `string'
CONST	ENDS
;	COMDAT ??_C@_0BP@NLAIGONA@data?2battleMap?2battle131?4sabex@
CONST	SEGMENT
??_C@_0BP@NLAIGONA@data?2battleMap?2battle131?4sabex@ DB 'data\battleMap\'
	DB	'battle131.sabex', 00H			; `string'
CONST	ENDS
;	COMDAT ??_C@_0BP@BHKCGOEO@data?2battleMap?2battle130?4sabex@
CONST	SEGMENT
??_C@_0BP@BHKCGOEO@data?2battleMap?2battle130?4sabex@ DB 'data\battleMap\'
	DB	'battle130.sabex', 00H			; `string'
CONST	ENDS
;	COMDAT ??_C@_0BP@BPJGGBCG@data?2battleMap?2battle129?4sabex@
CONST	SEGMENT
??_C@_0BP@BPJGGBCG@data?2battleMap?2battle129?4sabex@ DB 'data\battleMap\'
	DB	'battle129.sabex', 00H			; `string'
CONST	ENDS
;	COMDAT ??_C@_0BP@NDDMGBLI@data?2battleMap?2battle128?4sabex@
CONST	SEGMENT
??_C@_0BP@NDDMGBLI@data?2battleMap?2battle128?4sabex@ DB 'data\battleMap\'
	DB	'battle128.sabex', 00H			; `string'
CONST	ENDS
;	COMDAT ??_C@_0BP@KBMHDBE@data?2battleMap?2battle127?4sabex@
CONST	SEGMENT
??_C@_0BP@KBMHDBE@data?2battleMap?2battle127?4sabex@ DB 'data\battleMap\b'
	DB	'attle127.sabex', 00H			; `string'
CONST	ENDS
;	COMDAT ??_C@_0BP@MGLGHDIK@data?2battleMap?2battle126?4sabex@
CONST	SEGMENT
??_C@_0BP@MGLGHDIK@data?2battleMap?2battle126?4sabex@ DB 'data\battleMap\'
	DB	'battle126.sabex', 00H			; `string'
CONST	ENDS
;	COMDAT ??_C@_0BP@EIDJHEGJ@data?2battleMap?2battle125?4sabex@
CONST	SEGMENT
??_C@_0BP@EIDJHEGJ@data?2battleMap?2battle125?4sabex@ DB 'data\battleMap\'
	DB	'battle125.sabex', 00H			; `string'
CONST	ENDS
;	COMDAT ??_C@_0BP@IEJDHEPH@data?2battleMap?2battle124?4sabex@
CONST	SEGMENT
??_C@_0BP@IEJDHEPH@data?2battleMap?2battle124?4sabex@ DB 'data\battleMap\'
	DB	'battle124.sabex', 00H			; `string'
CONST	ENDS
;	COMDAT ??_C@_0BP@IOFGHNOO@data?2battleMap?2battle123?4sabex@
CONST	SEGMENT
??_C@_0BP@IOFGHNOO@data?2battleMap?2battle123?4sabex@ DB 'data\battleMap\'
	DB	'battle123.sabex', 00H			; `string'
CONST	ENDS
;	COMDAT ??_C@_0BP@ECPMHNHA@data?2battleMap?2battle122?4sabex@
CONST	SEGMENT
??_C@_0BP@ECPMHNHA@data?2battleMap?2battle122?4sabex@ DB 'data\battleMap\'
	DB	'battle122.sabex', 00H			; `string'
CONST	ENDS
;	COMDAT ??_C@_0BP@MMHDHKJD@data?2battleMap?2battle121?4sabex@
CONST	SEGMENT
??_C@_0BP@MMHDHKJD@data?2battleMap?2battle121?4sabex@ DB 'data\battleMap\'
	DB	'battle121.sabex', 00H			; `string'
CONST	ENDS
;	COMDAT ??_C@_0BP@NJHKAN@data?2battleMap?2battle120?4sabex@
CONST	SEGMENT
??_C@_0BP@NJHKAN@data?2battleMap?2battle120?4sabex@ DB 'data\battleMap\ba'
	DB	'ttle120.sabex', 00H				; `string'
CONST	ENDS
;	COMDAT ??_C@_0BP@CGBLFNOD@data?2battleMap?2battle119?4sabex@
CONST	SEGMENT
??_C@_0BP@CGBLFNOD@data?2battleMap?2battle119?4sabex@ DB 'data\battleMap\'
	DB	'battle119.sabex', 00H			; `string'
CONST	ENDS
;	COMDAT ??_C@_0BP@OKLBFNHN@data?2battleMap?2battle118?4sabex@
CONST	SEGMENT
??_C@_0BP@OKLBFNHN@data?2battleMap?2battle118?4sabex@ DB 'data\battleMap\'
	DB	'battle118.sabex', 00H			; `string'
CONST	ENDS
;	COMDAT ??_C@_0BP@DDJBEPNB@data?2battleMap?2battle117?4sabex@
CONST	SEGMENT
??_C@_0BP@DDJBEPNB@data?2battleMap?2battle117?4sabex@ DB 'data\battleMap\'
	DB	'battle117.sabex', 00H			; `string'
CONST	ENDS
;	COMDAT ??_C@_0BP@PPDLEPEP@data?2battleMap?2battle116?4sabex@
CONST	SEGMENT
??_C@_0BP@PPDLEPEP@data?2battleMap?2battle116?4sabex@ DB 'data\battleMap\'
	DB	'battle116.sabex', 00H			; `string'
CONST	ENDS
;	COMDAT ??_C@_0BP@HBLEEIKM@data?2battleMap?2battle115?4sabex@
CONST	SEGMENT
??_C@_0BP@HBLEEIKM@data?2battleMap?2battle115?4sabex@ DB 'data\battleMap\'
	DB	'battle115.sabex', 00H			; `string'
CONST	ENDS
;	COMDAT ??_C@_0BP@LNBOEIDC@data?2battleMap?2battle114?4sabex@
CONST	SEGMENT
??_C@_0BP@LNBOEIDC@data?2battleMap?2battle114?4sabex@ DB 'data\battleMap\'
	DB	'battle114.sabex', 00H			; `string'
CONST	ENDS
;	COMDAT ??_C@_0BP@LHNLEBCL@data?2battleMap?2battle113?4sabex@
CONST	SEGMENT
??_C@_0BP@LHNLEBCL@data?2battleMap?2battle113?4sabex@ DB 'data\battleMap\'
	DB	'battle113.sabex', 00H			; `string'
CONST	ENDS
;	COMDAT ??_C@_0BP@HLHBEBLF@data?2battleMap?2battle112?4sabex@
CONST	SEGMENT
??_C@_0BP@HLHBEBLF@data?2battleMap?2battle112?4sabex@ DB 'data\battleMap\'
	DB	'battle112.sabex', 00H			; `string'
CONST	ENDS
;	COMDAT ??_C@_0BP@PFPOEGFG@data?2battleMap?2battle111?4sabex@
CONST	SEGMENT
??_C@_0BP@PFPOEGFG@data?2battleMap?2battle111?4sabex@ DB 'data\battleMap\'
	DB	'battle111.sabex', 00H			; `string'
CONST	ENDS
;	COMDAT ??_C@_0BP@DJFEEGMI@data?2battleMap?2battle110?4sabex@
CONST	SEGMENT
??_C@_0BP@DJFEEGMI@data?2battleMap?2battle110?4sabex@ DB 'data\battleMap\'
	DB	'battle110.sabex', 00H			; `string'
CONST	ENDS
;	COMDAT ??_C@_0BP@DBGAEJKA@data?2battleMap?2battle109?4sabex@
CONST	SEGMENT
??_C@_0BP@DBGAEJKA@data?2battleMap?2battle109?4sabex@ DB 'data\battleMap\'
	DB	'battle109.sabex', 00H			; `string'
CONST	ENDS
;	COMDAT ??_C@_0BP@PNMKEJDO@data?2battleMap?2battle108?4sabex@
CONST	SEGMENT
??_C@_0BP@PNMKEJDO@data?2battleMap?2battle108?4sabex@ DB 'data\battleMap\'
	DB	'battle108.sabex', 00H			; `string'
CONST	ENDS
;	COMDAT ??_C@_0BP@CEOKFLJC@data?2battleMap?2battle107?4sabex@
CONST	SEGMENT
??_C@_0BP@CEOKFLJC@data?2battleMap?2battle107?4sabex@ DB 'data\battleMap\'
	DB	'battle107.sabex', 00H			; `string'
CONST	ENDS
;	COMDAT ??_C@_0BP@OIEAFLAM@data?2battleMap?2battle106?4sabex@
CONST	SEGMENT
??_C@_0BP@OIEAFLAM@data?2battleMap?2battle106?4sabex@ DB 'data\battleMap\'
	DB	'battle106.sabex', 00H			; `string'
CONST	ENDS
;	COMDAT ??_C@_0BP@GGMPFMOP@data?2battleMap?2battle105?4sabex@
CONST	SEGMENT
??_C@_0BP@GGMPFMOP@data?2battleMap?2battle105?4sabex@ DB 'data\battleMap\'
	DB	'battle105.sabex', 00H			; `string'
CONST	ENDS
;	COMDAT ??_C@_0BP@KKGFFMHB@data?2battleMap?2battle104?4sabex@
CONST	SEGMENT
??_C@_0BP@KKGFFMHB@data?2battleMap?2battle104?4sabex@ DB 'data\battleMap\'
	DB	'battle104.sabex', 00H			; `string'
CONST	ENDS
;	COMDAT ??_C@_0BP@KAKAFFGI@data?2battleMap?2battle103?4sabex@
CONST	SEGMENT
??_C@_0BP@KAKAFFGI@data?2battleMap?2battle103?4sabex@ DB 'data\battleMap\'
	DB	'battle103.sabex', 00H			; `string'
CONST	ENDS
;	COMDAT ??_C@_0BP@GMAKFFPG@data?2battleMap?2battle102?4sabex@
CONST	SEGMENT
??_C@_0BP@GMAKFFPG@data?2battleMap?2battle102?4sabex@ DB 'data\battleMap\'
	DB	'battle102.sabex', 00H			; `string'
CONST	ENDS
;	COMDAT ??_C@_0BP@OCIFFCBF@data?2battleMap?2battle101?4sabex@
CONST	SEGMENT
??_C@_0BP@OCIFFCBF@data?2battleMap?2battle101?4sabex@ DB 'data\battleMap\'
	DB	'battle101.sabex', 00H			; `string'
CONST	ENDS
;	COMDAT ??_C@_0BP@COCPFCIL@data?2battleMap?2battle100?4sabex@
CONST	SEGMENT
??_C@_0BP@COCPFCIL@data?2battleMap?2battle100?4sabex@ DB 'data\battleMap\'
	DB	'battle100.sabex', 00H			; `string'
CONST	ENDS
;	COMDAT ??_C@_0BO@BEFBKHGP@data?2battleMap?2battle99?4sabex@
CONST	SEGMENT
??_C@_0BO@BEFBKHGP@data?2battleMap?2battle99?4sabex@ DB 'data\battleMap\b'
	DB	'attle99.sabex', 00H				; `string'
CONST	ENDS
;	COMDAT ??_C@_0BO@NIPLKHPB@data?2battleMap?2battle98?4sabex@
CONST	SEGMENT
??_C@_0BO@NIPLKHPB@data?2battleMap?2battle98?4sabex@ DB 'data\battleMap\b'
	DB	'attle98.sabex', 00H				; `string'
CONST	ENDS
;	COMDAT ??_C@_0BO@BNLLFFN@data?2battleMap?2battle97?4sabex@
CONST	SEGMENT
??_C@_0BO@BNLLFFN@data?2battleMap?2battle97?4sabex@ DB 'data\battleMap\ba'
	DB	'ttle97.sabex', 00H				; `string'
CONST	ENDS
;	COMDAT ??_C@_0BO@MNHBLFMD@data?2battleMap?2battle96?4sabex@
CONST	SEGMENT
??_C@_0BO@MNHBLFMD@data?2battleMap?2battle96?4sabex@ DB 'data\battleMap\b'
	DB	'attle96.sabex', 00H				; `string'
CONST	ENDS
;	COMDAT ??_C@_0BO@EDPOLCCA@data?2battleMap?2battle95?4sabex@
CONST	SEGMENT
??_C@_0BO@EDPOLCCA@data?2battleMap?2battle95?4sabex@ DB 'data\battleMap\b'
	DB	'attle95.sabex', 00H				; `string'
CONST	ENDS
;	COMDAT ??_C@_0BO@IPFELCLO@data?2battleMap?2battle94?4sabex@
CONST	SEGMENT
??_C@_0BO@IPFELCLO@data?2battleMap?2battle94?4sabex@ DB 'data\battleMap\b'
	DB	'attle94.sabex', 00H				; `string'
CONST	ENDS
;	COMDAT ??_C@_0BO@IFJBLLKH@data?2battleMap?2battle93?4sabex@
CONST	SEGMENT
??_C@_0BO@IFJBLLKH@data?2battleMap?2battle93?4sabex@ DB 'data\battleMap\b'
	DB	'attle93.sabex', 00H				; `string'
CONST	ENDS
;	COMDAT ??_C@_0BO@EJDLLLDJ@data?2battleMap?2battle92?4sabex@
CONST	SEGMENT
??_C@_0BO@EJDLLLDJ@data?2battleMap?2battle92?4sabex@ DB 'data\battleMap\b'
	DB	'attle92.sabex', 00H				; `string'
CONST	ENDS
;	COMDAT ??_C@_0BO@MHLELMNK@data?2battleMap?2battle91?4sabex@
CONST	SEGMENT
??_C@_0BO@MHLELMNK@data?2battleMap?2battle91?4sabex@ DB 'data\battleMap\b'
	DB	'attle91.sabex', 00H				; `string'
CONST	ENDS
;	COMDAT ??_C@_0BO@LBOLMEE@data?2battleMap?2battle90?4sabex@
CONST	SEGMENT
??_C@_0BO@LBOLMEE@data?2battleMap?2battle90?4sabex@ DB 'data\battleMap\ba'
	DB	'ttle90.sabex', 00H				; `string'
CONST	ENDS
;	COMDAT ??_C@_0BO@DCKLDCM@data?2battleMap?2battle89?4sabex@
CONST	SEGMENT
??_C@_0BO@DCKLDCM@data?2battleMap?2battle89?4sabex@ DB 'data\battleMap\ba'
	DB	'ttle89.sabex', 00H				; `string'
CONST	ENDS
;	COMDAT ??_C@_0BO@MPIALDLC@data?2battleMap?2battle88?4sabex@
CONST	SEGMENT
??_C@_0BO@MPIALDLC@data?2battleMap?2battle88?4sabex@ DB 'data\battleMap\b'
	DB	'attle88.sabex', 00H				; `string'
CONST	ENDS
;	COMDAT ??_C@_0BO@BGKAKBBO@data?2battleMap?2battle87?4sabex@
CONST	SEGMENT
??_C@_0BO@BGKAKBBO@data?2battleMap?2battle87?4sabex@ DB 'data\battleMap\b'
	DB	'attle87.sabex', 00H				; `string'
CONST	ENDS
;	COMDAT ??_C@_0BO@NKAKKBIA@data?2battleMap?2battle86?4sabex@
CONST	SEGMENT
??_C@_0BO@NKAKKBIA@data?2battleMap?2battle86?4sabex@ DB 'data\battleMap\b'
	DB	'attle86.sabex', 00H				; `string'
CONST	ENDS
;	COMDAT ??_C@_0BO@FEIFKGGD@data?2battleMap?2battle85?4sabex@
CONST	SEGMENT
??_C@_0BO@FEIFKGGD@data?2battleMap?2battle85?4sabex@ DB 'data\battleMap\b'
	DB	'attle85.sabex', 00H				; `string'
CONST	ENDS
;	COMDAT ??_C@_0BO@JICPKGPN@data?2battleMap?2battle84?4sabex@
CONST	SEGMENT
??_C@_0BO@JICPKGPN@data?2battleMap?2battle84?4sabex@ DB 'data\battleMap\b'
	DB	'attle84.sabex', 00H				; `string'
CONST	ENDS
;	COMDAT ??_C@_0BO@JCOKKPOE@data?2battleMap?2battle83?4sabex@
CONST	SEGMENT
??_C@_0BO@JCOKKPOE@data?2battleMap?2battle83?4sabex@ DB 'data\battleMap\b'
	DB	'attle83.sabex', 00H				; `string'
CONST	ENDS
;	COMDAT ??_C@_0BO@FOEAKPHK@data?2battleMap?2battle82?4sabex@
CONST	SEGMENT
??_C@_0BO@FOEAKPHK@data?2battleMap?2battle82?4sabex@ DB 'data\battleMap\b'
	DB	'attle82.sabex', 00H				; `string'
CONST	ENDS
;	COMDAT ??_C@_0BO@NAMPKIJJ@data?2battleMap?2battle81?4sabex@
CONST	SEGMENT
??_C@_0BO@NAMPKIJJ@data?2battleMap?2battle81?4sabex@ DB 'data\battleMap\b'
	DB	'attle81.sabex', 00H				; `string'
CONST	ENDS
;	COMDAT ??_C@_0BO@BMGFKIAH@data?2battleMap?2battle80?4sabex@
CONST	SEGMENT
??_C@_0BO@BMGFKIAH@data?2battleMap?2battle80?4sabex@ DB 'data\battleMap\b'
	DB	'attle80.sabex', 00H				; `string'
CONST	ENDS
;	COMDAT ??_C@_0BO@NMJDHMPN@data?2battleMap?2battle79?4sabex@
CONST	SEGMENT
??_C@_0BO@NMJDHMPN@data?2battleMap?2battle79?4sabex@ DB 'data\battleMap\b'
	DB	'attle79.sabex', 00H				; `string'
CONST	ENDS
;	COMDAT ??_C@_0BO@BADJHMGD@data?2battleMap?2battle78?4sabex@
CONST	SEGMENT
??_C@_0BO@BADJHMGD@data?2battleMap?2battle78?4sabex@ DB 'data\battleMap\b'
	DB	'attle78.sabex', 00H				; `string'
CONST	ENDS
;	COMDAT ??_C@_0BO@MJBJGOMP@data?2battleMap?2battle77?4sabex@
CONST	SEGMENT
??_C@_0BO@MJBJGOMP@data?2battleMap?2battle77?4sabex@ DB 'data\battleMap\b'
	DB	'attle77.sabex', 00H				; `string'
CONST	ENDS
;	COMDAT ??_C@_0BO@FLDGOFB@data?2battleMap?2battle76?4sabex@
CONST	SEGMENT
??_C@_0BO@FLDGOFB@data?2battleMap?2battle76?4sabex@ DB 'data\battleMap\ba'
	DB	'ttle76.sabex', 00H				; `string'
CONST	ENDS
;	COMDAT ??_C@_0BO@ILDMGJLC@data?2battleMap?2battle75?4sabex@
CONST	SEGMENT
??_C@_0BO@ILDMGJLC@data?2battleMap?2battle75?4sabex@ DB 'data\battleMap\b'
	DB	'attle75.sabex', 00H				; `string'
CONST	ENDS
;	COMDAT ??_C@_0BO@EHJGGJCM@data?2battleMap?2battle74?4sabex@
CONST	SEGMENT
??_C@_0BO@EHJGGJCM@data?2battleMap?2battle74?4sabex@ DB 'data\battleMap\b'
	DB	'attle74.sabex', 00H				; `string'
CONST	ENDS
;	COMDAT ??_C@_0BO@ENFDGADF@data?2battleMap?2battle73?4sabex@
CONST	SEGMENT
??_C@_0BO@ENFDGADF@data?2battleMap?2battle73?4sabex@ DB 'data\battleMap\b'
	DB	'attle73.sabex', 00H				; `string'
CONST	ENDS
;	COMDAT ??_C@_0BO@IBPJGAKL@data?2battleMap?2battle72?4sabex@
CONST	SEGMENT
??_C@_0BO@IBPJGAKL@data?2battleMap?2battle72?4sabex@ DB 'data\battleMap\b'
	DB	'attle72.sabex', 00H				; `string'
CONST	ENDS
;	COMDAT ??_C@_0BO@PHGGHEI@data?2battleMap?2battle71?4sabex@
CONST	SEGMENT
??_C@_0BO@PHGGHEI@data?2battleMap?2battle71?4sabex@ DB 'data\battleMap\ba'
	DB	'ttle71.sabex', 00H				; `string'
CONST	ENDS
;	COMDAT ??_C@_0BO@MDNMGHNG@data?2battleMap?2battle70?4sabex@
CONST	SEGMENT
??_C@_0BO@MDNMGHNG@data?2battleMap?2battle70?4sabex@ DB 'data\battleMap\b'
	DB	'attle70.sabex', 00H				; `string'
CONST	ENDS
;	COMDAT ??_C@_0BO@MLOIGILO@data?2battleMap?2battle69?4sabex@
CONST	SEGMENT
??_C@_0BO@MLOIGILO@data?2battleMap?2battle69?4sabex@ DB 'data\battleMap\b'
	DB	'attle69.sabex', 00H				; `string'
CONST	ENDS
;	COMDAT ??_C@_0BO@HECGICA@data?2battleMap?2battle68?4sabex@
CONST	SEGMENT
??_C@_0BO@HECGICA@data?2battleMap?2battle68?4sabex@ DB 'data\battleMap\ba'
	DB	'ttle68.sabex', 00H				; `string'
CONST	ENDS
;	COMDAT ??_C@_0BO@NOGCHKIM@data?2battleMap?2battle67?4sabex@
CONST	SEGMENT
??_C@_0BO@NOGCHKIM@data?2battleMap?2battle67?4sabex@ DB 'data\battleMap\b'
	DB	'attle67.sabex', 00H				; `string'
CONST	ENDS
;	COMDAT ??_C@_0BO@BCMIHKBC@data?2battleMap?2battle66?4sabex@
CONST	SEGMENT
??_C@_0BO@BCMIHKBC@data?2battleMap?2battle66?4sabex@ DB 'data\battleMap\b'
	DB	'attle66.sabex', 00H				; `string'
CONST	ENDS
;	COMDAT ??_C@_0BO@JMEHHNPB@data?2battleMap?2battle65?4sabex@
CONST	SEGMENT
??_C@_0BO@JMEHHNPB@data?2battleMap?2battle65?4sabex@ DB 'data\battleMap\b'
	DB	'attle65.sabex', 00H				; `string'
CONST	ENDS
;	COMDAT ??_C@_0BO@FAONHNGP@data?2battleMap?2battle64?4sabex@
CONST	SEGMENT
??_C@_0BO@FAONHNGP@data?2battleMap?2battle64?4sabex@ DB 'data\battleMap\b'
	DB	'attle64.sabex', 00H				; `string'
CONST	ENDS
;	COMDAT ??_C@_0BO@FKCIHEHG@data?2battleMap?2battle63?4sabex@
CONST	SEGMENT
??_C@_0BO@FKCIHEHG@data?2battleMap?2battle63?4sabex@ DB 'data\battleMap\b'
	DB	'attle63.sabex', 00H				; `string'
CONST	ENDS
;	COMDAT ??_C@_0BO@JGICHEOI@data?2battleMap?2battle62?4sabex@
CONST	SEGMENT
??_C@_0BO@JGICHEOI@data?2battleMap?2battle62?4sabex@ DB 'data\battleMap\b'
	DB	'attle62.sabex', 00H				; `string'
CONST	ENDS
;	COMDAT ??_C@_0BO@BIANHDAL@data?2battleMap?2battle61?4sabex@
CONST	SEGMENT
??_C@_0BO@BIANHDAL@data?2battleMap?2battle61?4sabex@ DB 'data\battleMap\b'
	DB	'attle61.sabex', 00H				; `string'
CONST	ENDS
;	COMDAT ??_C@_0BO@NEKHHDJF@data?2battleMap?2battle60?4sabex@
CONST	SEGMENT
??_C@_0BO@NEKHHDJF@data?2battleMap?2battle60?4sabex@ DB 'data\battleMap\b'
	DB	'attle60.sabex', 00H				; `string'
CONST	ENDS
;	COMDAT ??_C@_0BO@PCGFFEHL@data?2battleMap?2battle59?4sabex@
CONST	SEGMENT
??_C@_0BO@PCGFFEHL@data?2battleMap?2battle59?4sabex@ DB 'data\battleMap\b'
	DB	'attle59.sabex', 00H				; `string'
CONST	ENDS
;	COMDAT ??_C@_0BO@DOMPFEOF@data?2battleMap?2battle58?4sabex@
CONST	SEGMENT
??_C@_0BO@DOMPFEOF@data?2battleMap?2battle58?4sabex@ DB 'data\battleMap\b'
	DB	'attle58.sabex', 00H				; `string'
CONST	ENDS
;	COMDAT ??_C@_0BO@OHOPEGEJ@data?2battleMap?2battle57?4sabex@
CONST	SEGMENT
??_C@_0BO@OHOPEGEJ@data?2battleMap?2battle57?4sabex@ DB 'data\battleMap\b'
	DB	'attle57.sabex', 00H				; `string'
CONST	ENDS
;	COMDAT ??_C@_0BO@CLEFEGNH@data?2battleMap?2battle56?4sabex@
CONST	SEGMENT
??_C@_0BO@CLEFEGNH@data?2battleMap?2battle56?4sabex@ DB 'data\battleMap\b'
	DB	'attle56.sabex', 00H				; `string'
CONST	ENDS
;	COMDAT ??_C@_0BO@KFMKEBDE@data?2battleMap?2battle55?4sabex@
CONST	SEGMENT
??_C@_0BO@KFMKEBDE@data?2battleMap?2battle55?4sabex@ DB 'data\battleMap\b'
	DB	'attle55.sabex', 00H				; `string'
CONST	ENDS
;	COMDAT ??_C@_0BO@GJGAEBKK@data?2battleMap?2battle54?4sabex@
CONST	SEGMENT
??_C@_0BO@GJGAEBKK@data?2battleMap?2battle54?4sabex@ DB 'data\battleMap\b'
	DB	'attle54.sabex', 00H				; `string'
CONST	ENDS
;	COMDAT ??_C@_0BO@GDKFEILD@data?2battleMap?2battle53?4sabex@
CONST	SEGMENT
??_C@_0BO@GDKFEILD@data?2battleMap?2battle53?4sabex@ DB 'data\battleMap\b'
	DB	'attle53.sabex', 00H				; `string'
CONST	ENDS
;	COMDAT ??_C@_0BO@KPAPEICN@data?2battleMap?2battle52?4sabex@
CONST	SEGMENT
??_C@_0BO@KPAPEICN@data?2battleMap?2battle52?4sabex@ DB 'data\battleMap\b'
	DB	'attle52.sabex', 00H				; `string'
CONST	ENDS
;	COMDAT ??_C@_0BO@CBIAEPMO@data?2battleMap?2battle51?4sabex@
CONST	SEGMENT
??_C@_0BO@CBIAEPMO@data?2battleMap?2battle51?4sabex@ DB 'data\battleMap\b'
	DB	'attle51.sabex', 00H				; `string'
CONST	ENDS
;	COMDAT ??_C@_0BO@ONCKEPFA@data?2battleMap?2battle50?4sabex@
CONST	SEGMENT
??_C@_0BO@ONCKEPFA@data?2battleMap?2battle50?4sabex@ DB 'data\battleMap\b'
	DB	'attle50.sabex', 00H				; `string'
CONST	ENDS
;	COMDAT ??_C@_0BO@OFBOEADI@data?2battleMap?2battle49?4sabex@
CONST	SEGMENT
??_C@_0BO@OFBOEADI@data?2battleMap?2battle49?4sabex@ DB 'data\battleMap\b'
	DB	'attle49.sabex', 00H				; `string'
CONST	ENDS
;	COMDAT ??_C@_0BO@CJLEEAKG@data?2battleMap?2battle48?4sabex@
CONST	SEGMENT
??_C@_0BO@CJLEEAKG@data?2battleMap?2battle48?4sabex@ DB 'data\battleMap\b'
	DB	'attle48.sabex', 00H				; `string'
CONST	ENDS
;	COMDAT ??_C@_0BO@PAJEFCAK@data?2battleMap?2battle47?4sabex@
CONST	SEGMENT
??_C@_0BO@PAJEFCAK@data?2battleMap?2battle47?4sabex@ DB 'data\battleMap\b'
	DB	'attle47.sabex', 00H				; `string'
CONST	ENDS
;	COMDAT ??_C@_0BO@DMDOFCJE@data?2battleMap?2battle46?4sabex@
CONST	SEGMENT
??_C@_0BO@DMDOFCJE@data?2battleMap?2battle46?4sabex@ DB 'data\battleMap\b'
	DB	'attle46.sabex', 00H				; `string'
CONST	ENDS
;	COMDAT ??_C@_0BO@LCLBFFHH@data?2battleMap?2battle45?4sabex@
CONST	SEGMENT
??_C@_0BO@LCLBFFHH@data?2battleMap?2battle45?4sabex@ DB 'data\battleMap\b'
	DB	'attle45.sabex', 00H				; `string'
CONST	ENDS
;	COMDAT ??_C@_0BO@HOBLFFOJ@data?2battleMap?2battle44?4sabex@
CONST	SEGMENT
??_C@_0BO@HOBLFFOJ@data?2battleMap?2battle44?4sabex@ DB 'data\battleMap\b'
	DB	'attle44.sabex', 00H				; `string'
CONST	ENDS
;	COMDAT ??_C@_0BO@HENOFMPA@data?2battleMap?2battle43?4sabex@
CONST	SEGMENT
??_C@_0BO@HENOFMPA@data?2battleMap?2battle43?4sabex@ DB 'data\battleMap\b'
	DB	'attle43.sabex', 00H				; `string'
CONST	ENDS
;	COMDAT ??_C@_0BO@LIHEFMGO@data?2battleMap?2battle42?4sabex@
CONST	SEGMENT
??_C@_0BO@LIHEFMGO@data?2battleMap?2battle42?4sabex@ DB 'data\battleMap\b'
	DB	'attle42.sabex', 00H				; `string'
CONST	ENDS
;	COMDAT ??_C@_0BO@DGPLFLIN@data?2battleMap?2battle41?4sabex@
CONST	SEGMENT
??_C@_0BO@DGPLFLIN@data?2battleMap?2battle41?4sabex@ DB 'data\battleMap\b'
	DB	'attle41.sabex', 00H				; `string'
CONST	ENDS
;	COMDAT ??_C@_0BO@PKFBFLBD@data?2battleMap?2battle40?4sabex@
CONST	SEGMENT
??_C@_0BO@PKFBFLBD@data?2battleMap?2battle40?4sabex@ DB 'data\battleMap\b'
	DB	'attle40.sabex', 00H				; `string'
CONST	ENDS
;	COMDAT ??_C@_0BO@IBHPCNPB@data?2battleMap?2battle39?4sabex@
CONST	SEGMENT
??_C@_0BO@IBHPCNPB@data?2battleMap?2battle39?4sabex@ DB 'data\battleMap\b'
	DB	'attle39.sabex', 00H				; `string'
CONST	ENDS
;	COMDAT ??_C@_0BO@ENNFCNGP@data?2battleMap?2battle38?4sabex@
CONST	SEGMENT
??_C@_0BO@ENNFCNGP@data?2battleMap?2battle38?4sabex@ DB 'data\battleMap\b'
	DB	'attle38.sabex', 00H				; `string'
CONST	ENDS
;	COMDAT ??_C@_0BO@JEPFDPMD@data?2battleMap?2battle37?4sabex@
CONST	SEGMENT
??_C@_0BO@JEPFDPMD@data?2battleMap?2battle37?4sabex@ DB 'data\battleMap\b'
	DB	'attle37.sabex', 00H				; `string'
CONST	ENDS
;	COMDAT ??_C@_0BO@FIFPDPFN@data?2battleMap?2battle36?4sabex@
CONST	SEGMENT
??_C@_0BO@FIFPDPFN@data?2battleMap?2battle36?4sabex@ DB 'data\battleMap\b'
	DB	'attle36.sabex', 00H				; `string'
CONST	ENDS
;	COMDAT ??_C@_0BO@NGNADILO@data?2battleMap?2battle35?4sabex@
CONST	SEGMENT
??_C@_0BO@NGNADILO@data?2battleMap?2battle35?4sabex@ DB 'data\battleMap\b'
	DB	'attle35.sabex', 00H				; `string'
CONST	ENDS
;	COMDAT ??_C@_0BO@BKHKDICA@data?2battleMap?2battle34?4sabex@
CONST	SEGMENT
??_C@_0BO@BKHKDICA@data?2battleMap?2battle34?4sabex@ DB 'data\battleMap\b'
	DB	'attle34.sabex', 00H				; `string'
CONST	ENDS
;	COMDAT ??_C@_0BO@BALPDBDJ@data?2battleMap?2battle33?4sabex@
CONST	SEGMENT
??_C@_0BO@BALPDBDJ@data?2battleMap?2battle33?4sabex@ DB 'data\battleMap\b'
	DB	'attle33.sabex', 00H				; `string'
CONST	ENDS
;	COMDAT ??_C@_0BO@NMBFDBKH@data?2battleMap?2battle32?4sabex@
CONST	SEGMENT
??_C@_0BO@NMBFDBKH@data?2battleMap?2battle32?4sabex@ DB 'data\battleMap\b'
	DB	'attle32.sabex', 00H				; `string'
CONST	ENDS
;	COMDAT ??_C@_0BO@FCJKDGEE@data?2battleMap?2battle31?4sabex@
CONST	SEGMENT
??_C@_0BO@FCJKDGEE@data?2battleMap?2battle31?4sabex@ DB 'data\battleMap\b'
	DB	'attle31.sabex', 00H				; `string'
CONST	ENDS
;	COMDAT ??_C@_0BO@JODADGNK@data?2battleMap?2battle30?4sabex@
CONST	SEGMENT
??_C@_0BO@JODADGNK@data?2battleMap?2battle30?4sabex@ DB 'data\battleMap\b'
	DB	'attle30.sabex', 00H				; `string'
CONST	ENDS
;	COMDAT ??_C@_0BO@JGAEDJLC@data?2battleMap?2battle29?4sabex@
CONST	SEGMENT
??_C@_0BO@JGAEDJLC@data?2battleMap?2battle29?4sabex@ DB 'data\battleMap\b'
	DB	'attle29.sabex', 00H				; `string'
CONST	ENDS
;	COMDAT ??_C@_0BO@FKKODJCM@data?2battleMap?2battle28?4sabex@
CONST	SEGMENT
??_C@_0BO@FKKODJCM@data?2battleMap?2battle28?4sabex@ DB 'data\battleMap\b'
	DB	'attle28.sabex', 00H				; `string'
CONST	ENDS
;	COMDAT ??_C@_0BO@IDIOCLIA@data?2battleMap?2battle27?4sabex@
CONST	SEGMENT
??_C@_0BO@IDIOCLIA@data?2battleMap?2battle27?4sabex@ DB 'data\battleMap\b'
	DB	'attle27.sabex', 00H				; `string'
CONST	ENDS
;	COMDAT ??_C@_0BO@EPCECLBO@data?2battleMap?2battle26?4sabex@
CONST	SEGMENT
??_C@_0BO@EPCECLBO@data?2battleMap?2battle26?4sabex@ DB 'data\battleMap\b'
	DB	'attle26.sabex', 00H				; `string'
CONST	ENDS
;	COMDAT ??_C@_0BO@MBKLCMPN@data?2battleMap?2battle25?4sabex@
CONST	SEGMENT
??_C@_0BO@MBKLCMPN@data?2battleMap?2battle25?4sabex@ DB 'data\battleMap\b'
	DB	'attle25.sabex', 00H				; `string'
CONST	ENDS
;	COMDAT ??_C@_0BO@NABCMGD@data?2battleMap?2battle24?4sabex@
CONST	SEGMENT
??_C@_0BO@NABCMGD@data?2battleMap?2battle24?4sabex@ DB 'data\battleMap\ba'
	DB	'ttle24.sabex', 00H				; `string'
CONST	ENDS
;	COMDAT ??_C@_0BO@HMECFHK@data?2battleMap?2battle23?4sabex@
CONST	SEGMENT
??_C@_0BO@HMECFHK@data?2battleMap?2battle23?4sabex@ DB 'data\battleMap\ba'
	DB	'ttle23.sabex', 00H				; `string'
CONST	ENDS
;	COMDAT ??_C@_0BO@MLGOCFOE@data?2battleMap?2battle22?4sabex@
CONST	SEGMENT
??_C@_0BO@MLGOCFOE@data?2battleMap?2battle22?4sabex@ DB 'data\battleMap\b'
	DB	'attle22.sabex', 00H				; `string'
CONST	ENDS
;	COMDAT ??_C@_0BO@EFOBCCAH@data?2battleMap?2battle21?4sabex@
CONST	SEGMENT
??_C@_0BO@EFOBCCAH@data?2battleMap?2battle21?4sabex@ DB 'data\battleMap\b'
	DB	'attle21.sabex', 00H				; `string'
CONST	ENDS
;	COMDAT ??_C@_0BO@IJELCCJJ@data?2battleMap?2battle20?4sabex@
CONST	SEGMENT
??_C@_0BO@IJELCCJJ@data?2battleMap?2battle20?4sabex@ DB 'data\battleMap\b'
	DB	'attle20.sabex', 00H				; `string'
CONST	ENDS
;	COMDAT ??_C@_0BO@KPIJAFHH@data?2battleMap?2battle19?4sabex@
CONST	SEGMENT
??_C@_0BO@KPIJAFHH@data?2battleMap?2battle19?4sabex@ DB 'data\battleMap\b'
	DB	'attle19.sabex', 00H				; `string'
CONST	ENDS
;	COMDAT ??_C@_0BO@GDCDAFOJ@data?2battleMap?2battle18?4sabex@
CONST	SEGMENT
??_C@_0BO@GDCDAFOJ@data?2battleMap?2battle18?4sabex@ DB 'data\battleMap\b'
	DB	'attle18.sabex', 00H				; `string'
CONST	ENDS
;	COMDAT ??_C@_0BO@LKADBHEF@data?2battleMap?2battle17?4sabex@
CONST	SEGMENT
??_C@_0BO@LKADBHEF@data?2battleMap?2battle17?4sabex@ DB 'data\battleMap\b'
	DB	'attle17.sabex', 00H				; `string'
CONST	ENDS
;	COMDAT ??_C@_0BO@HGKJBHNL@data?2battleMap?2battle16?4sabex@
CONST	SEGMENT
??_C@_0BO@HGKJBHNL@data?2battleMap?2battle16?4sabex@ DB 'data\battleMap\b'
	DB	'attle16.sabex', 00H				; `string'
CONST	ENDS
;	COMDAT ??_C@_0BO@PICGBADI@data?2battleMap?2battle15?4sabex@
CONST	SEGMENT
??_C@_0BO@PICGBADI@data?2battleMap?2battle15?4sabex@ DB 'data\battleMap\b'
	DB	'attle15.sabex', 00H				; `string'
CONST	ENDS
;	COMDAT ??_C@_0BO@DEIMBAKG@data?2battleMap?2battle14?4sabex@
CONST	SEGMENT
??_C@_0BO@DEIMBAKG@data?2battleMap?2battle14?4sabex@ DB 'data\battleMap\b'
	DB	'attle14.sabex', 00H				; `string'
CONST	ENDS
;	COMDAT ??_C@_0BO@DOEJBJLP@data?2battleMap?2battle13?4sabex@
CONST	SEGMENT
??_C@_0BO@DOEJBJLP@data?2battleMap?2battle13?4sabex@ DB 'data\battleMap\b'
	DB	'attle13.sabex', 00H				; `string'
CONST	ENDS
;	COMDAT ??_C@_0BO@PCODBJCB@data?2battleMap?2battle12?4sabex@
CONST	SEGMENT
??_C@_0BO@PCODBJCB@data?2battleMap?2battle12?4sabex@ DB 'data\battleMap\b'
	DB	'attle12.sabex', 00H				; `string'
CONST	ENDS
;	COMDAT ??_C@_0BO@HMGMBOMC@data?2battleMap?2battle11?4sabex@
CONST	SEGMENT
??_C@_0BO@HMGMBOMC@data?2battleMap?2battle11?4sabex@ DB 'data\battleMap\b'
	DB	'attle11.sabex', 00H				; `string'
CONST	ENDS
;	COMDAT ??_C@_0BO@LAMGBOFM@data?2battleMap?2battle10?4sabex@
CONST	SEGMENT
??_C@_0BO@LAMGBOFM@data?2battleMap?2battle10?4sabex@ DB 'data\battleMap\b'
	DB	'attle10.sabex', 00H				; `string'
CONST	ENDS
;	COMDAT ??_C@_0BO@LIPCBBDE@data?2battleMap?2battle09?4sabex@
CONST	SEGMENT
??_C@_0BO@LIPCBBDE@data?2battleMap?2battle09?4sabex@ DB 'data\battleMap\b'
	DB	'attle09.sabex', 00H				; `string'
CONST	ENDS
;	COMDAT ??_C@_0BO@HEFIBBKK@data?2battleMap?2battle08?4sabex@
CONST	SEGMENT
??_C@_0BO@HEFIBBKK@data?2battleMap?2battle08?4sabex@ DB 'data\battleMap\b'
	DB	'attle08.sabex', 00H				; `string'
CONST	ENDS
;	COMDAT ??_C@_0BO@KNHIADAG@data?2battleMap?2battle07?4sabex@
CONST	SEGMENT
??_C@_0BO@KNHIADAG@data?2battleMap?2battle07?4sabex@ DB 'data\battleMap\b'
	DB	'attle07.sabex', 00H				; `string'
CONST	ENDS
;	COMDAT ??_C@_0BO@GBNCADJI@data?2battleMap?2battle06?4sabex@
CONST	SEGMENT
??_C@_0BO@GBNCADJI@data?2battleMap?2battle06?4sabex@ DB 'data\battleMap\b'
	DB	'attle06.sabex', 00H				; `string'
CONST	ENDS
;	COMDAT ??_C@_0BO@OPFNAEHL@data?2battleMap?2battle05?4sabex@
CONST	SEGMENT
??_C@_0BO@OPFNAEHL@data?2battleMap?2battle05?4sabex@ DB 'data\battleMap\b'
	DB	'attle05.sabex', 00H				; `string'
CONST	ENDS
;	COMDAT ??_C@_0BO@CDPHAEOF@data?2battleMap?2battle04?4sabex@
CONST	SEGMENT
??_C@_0BO@CDPHAEOF@data?2battleMap?2battle04?4sabex@ DB 'data\battleMap\b'
	DB	'attle04.sabex', 00H				; `string'
CONST	ENDS
;	COMDAT ??_C@_0BO@CJDCANPM@data?2battleMap?2battle03?4sabex@
CONST	SEGMENT
??_C@_0BO@CJDCANPM@data?2battleMap?2battle03?4sabex@ DB 'data\battleMap\b'
	DB	'attle03.sabex', 00H				; `string'
CONST	ENDS
;	COMDAT ??_C@_0BO@OFJIANGC@data?2battleMap?2battle02?4sabex@
CONST	SEGMENT
??_C@_0BO@OFJIANGC@data?2battleMap?2battle02?4sabex@ DB 'data\battleMap\b'
	DB	'attle02.sabex', 00H				; `string'
CONST	ENDS
;	COMDAT ??_C@_0BO@GLBHAKIB@data?2battleMap?2battle01?4sabex@
CONST	SEGMENT
??_C@_0BO@GLBHAKIB@data?2battleMap?2battle01?4sabex@ DB 'data\battleMap\b'
	DB	'attle01.sabex', 00H				; `string'
CONST	ENDS
;	COMDAT ??_C@_0BO@KHLNAKBP@data?2battleMap?2battle00?4sabex@
CONST	SEGMENT
??_C@_0BO@KHLNAKBP@data?2battleMap?2battle00?4sabex@ DB 'data\battleMap\b'
	DB	'attle00.sabex', 00H				; `string'
CONST	ENDS
_DATA	SEGMENT
?BattleMapFile@@3PAPADA DD FLAT:??_C@_0BO@KHLNAKBP@data?2battleMap?2battle00?4sabex@ ; BattleMapFile
	DD	FLAT:??_C@_0BO@GLBHAKIB@data?2battleMap?2battle01?4sabex@
	DD	FLAT:??_C@_0BO@OFJIANGC@data?2battleMap?2battle02?4sabex@
	DD	FLAT:??_C@_0BO@CJDCANPM@data?2battleMap?2battle03?4sabex@
	DD	FLAT:??_C@_0BO@CDPHAEOF@data?2battleMap?2battle04?4sabex@
	DD	FLAT:??_C@_0BO@OPFNAEHL@data?2battleMap?2battle05?4sabex@
	DD	FLAT:??_C@_0BO@GBNCADJI@data?2battleMap?2battle06?4sabex@
	DD	FLAT:??_C@_0BO@KNHIADAG@data?2battleMap?2battle07?4sabex@
	DD	FLAT:??_C@_0BO@HEFIBBKK@data?2battleMap?2battle08?4sabex@
	DD	FLAT:??_C@_0BO@LIPCBBDE@data?2battleMap?2battle09?4sabex@
	DD	FLAT:??_C@_0BO@LAMGBOFM@data?2battleMap?2battle10?4sabex@
	DD	FLAT:??_C@_0BO@HMGMBOMC@data?2battleMap?2battle11?4sabex@
	DD	FLAT:??_C@_0BO@PCODBJCB@data?2battleMap?2battle12?4sabex@
	DD	FLAT:??_C@_0BO@DOEJBJLP@data?2battleMap?2battle13?4sabex@
	DD	FLAT:??_C@_0BO@DEIMBAKG@data?2battleMap?2battle14?4sabex@
	DD	FLAT:??_C@_0BO@PICGBADI@data?2battleMap?2battle15?4sabex@
	DD	FLAT:??_C@_0BO@HGKJBHNL@data?2battleMap?2battle16?4sabex@
	DD	FLAT:??_C@_0BO@LKADBHEF@data?2battleMap?2battle17?4sabex@
	DD	FLAT:??_C@_0BO@GDCDAFOJ@data?2battleMap?2battle18?4sabex@
	DD	FLAT:??_C@_0BO@KPIJAFHH@data?2battleMap?2battle19?4sabex@
	DD	FLAT:??_C@_0BO@IJELCCJJ@data?2battleMap?2battle20?4sabex@
	DD	FLAT:??_C@_0BO@EFOBCCAH@data?2battleMap?2battle21?4sabex@
	DD	FLAT:??_C@_0BO@MLGOCFOE@data?2battleMap?2battle22?4sabex@
	DD	FLAT:??_C@_0BO@HMECFHK@data?2battleMap?2battle23?4sabex@
	DD	FLAT:??_C@_0BO@NABCMGD@data?2battleMap?2battle24?4sabex@
	DD	FLAT:??_C@_0BO@MBKLCMPN@data?2battleMap?2battle25?4sabex@
	DD	FLAT:??_C@_0BO@EPCECLBO@data?2battleMap?2battle26?4sabex@
	DD	FLAT:??_C@_0BO@IDIOCLIA@data?2battleMap?2battle27?4sabex@
	DD	FLAT:??_C@_0BO@FKKODJCM@data?2battleMap?2battle28?4sabex@
	DD	FLAT:??_C@_0BO@JGAEDJLC@data?2battleMap?2battle29?4sabex@
	DD	FLAT:??_C@_0BO@JODADGNK@data?2battleMap?2battle30?4sabex@
	DD	FLAT:??_C@_0BO@FCJKDGEE@data?2battleMap?2battle31?4sabex@
	DD	FLAT:??_C@_0BO@NMBFDBKH@data?2battleMap?2battle32?4sabex@
	DD	FLAT:??_C@_0BO@BALPDBDJ@data?2battleMap?2battle33?4sabex@
	DD	FLAT:??_C@_0BO@BKHKDICA@data?2battleMap?2battle34?4sabex@
	DD	FLAT:??_C@_0BO@NGNADILO@data?2battleMap?2battle35?4sabex@
	DD	FLAT:??_C@_0BO@FIFPDPFN@data?2battleMap?2battle36?4sabex@
	DD	FLAT:??_C@_0BO@JEPFDPMD@data?2battleMap?2battle37?4sabex@
	DD	FLAT:??_C@_0BO@ENNFCNGP@data?2battleMap?2battle38?4sabex@
	DD	FLAT:??_C@_0BO@IBHPCNPB@data?2battleMap?2battle39?4sabex@
	DD	FLAT:??_C@_0BO@PKFBFLBD@data?2battleMap?2battle40?4sabex@
	DD	FLAT:??_C@_0BO@DGPLFLIN@data?2battleMap?2battle41?4sabex@
	DD	FLAT:??_C@_0BO@LIHEFMGO@data?2battleMap?2battle42?4sabex@
	DD	FLAT:??_C@_0BO@HENOFMPA@data?2battleMap?2battle43?4sabex@
	DD	FLAT:??_C@_0BO@HOBLFFOJ@data?2battleMap?2battle44?4sabex@
	DD	FLAT:??_C@_0BO@LCLBFFHH@data?2battleMap?2battle45?4sabex@
	DD	FLAT:??_C@_0BO@DMDOFCJE@data?2battleMap?2battle46?4sabex@
	DD	FLAT:??_C@_0BO@PAJEFCAK@data?2battleMap?2battle47?4sabex@
	DD	FLAT:??_C@_0BO@CJLEEAKG@data?2battleMap?2battle48?4sabex@
	DD	FLAT:??_C@_0BO@OFBOEADI@data?2battleMap?2battle49?4sabex@
	DD	FLAT:??_C@_0BO@ONCKEPFA@data?2battleMap?2battle50?4sabex@
	DD	FLAT:??_C@_0BO@CBIAEPMO@data?2battleMap?2battle51?4sabex@
	DD	FLAT:??_C@_0BO@KPAPEICN@data?2battleMap?2battle52?4sabex@
	DD	FLAT:??_C@_0BO@GDKFEILD@data?2battleMap?2battle53?4sabex@
	DD	FLAT:??_C@_0BO@GJGAEBKK@data?2battleMap?2battle54?4sabex@
	DD	FLAT:??_C@_0BO@KFMKEBDE@data?2battleMap?2battle55?4sabex@
	DD	FLAT:??_C@_0BO@CLEFEGNH@data?2battleMap?2battle56?4sabex@
	DD	FLAT:??_C@_0BO@OHOPEGEJ@data?2battleMap?2battle57?4sabex@
	DD	FLAT:??_C@_0BO@DOMPFEOF@data?2battleMap?2battle58?4sabex@
	DD	FLAT:??_C@_0BO@PCGFFEHL@data?2battleMap?2battle59?4sabex@
	DD	FLAT:??_C@_0BO@NEKHHDJF@data?2battleMap?2battle60?4sabex@
	DD	FLAT:??_C@_0BO@BIANHDAL@data?2battleMap?2battle61?4sabex@
	DD	FLAT:??_C@_0BO@JGICHEOI@data?2battleMap?2battle62?4sabex@
	DD	FLAT:??_C@_0BO@FKCIHEHG@data?2battleMap?2battle63?4sabex@
	DD	FLAT:??_C@_0BO@FAONHNGP@data?2battleMap?2battle64?4sabex@
	DD	FLAT:??_C@_0BO@JMEHHNPB@data?2battleMap?2battle65?4sabex@
	DD	FLAT:??_C@_0BO@BCMIHKBC@data?2battleMap?2battle66?4sabex@
	DD	FLAT:??_C@_0BO@NOGCHKIM@data?2battleMap?2battle67?4sabex@
	DD	FLAT:??_C@_0BO@HECGICA@data?2battleMap?2battle68?4sabex@
	DD	FLAT:??_C@_0BO@MLOIGILO@data?2battleMap?2battle69?4sabex@
	DD	FLAT:??_C@_0BO@MDNMGHNG@data?2battleMap?2battle70?4sabex@
	DD	FLAT:??_C@_0BO@PHGGHEI@data?2battleMap?2battle71?4sabex@
	DD	FLAT:??_C@_0BO@IBPJGAKL@data?2battleMap?2battle72?4sabex@
	DD	FLAT:??_C@_0BO@ENFDGADF@data?2battleMap?2battle73?4sabex@
	DD	FLAT:??_C@_0BO@EHJGGJCM@data?2battleMap?2battle74?4sabex@
	DD	FLAT:??_C@_0BO@ILDMGJLC@data?2battleMap?2battle75?4sabex@
	DD	FLAT:??_C@_0BO@FLDGOFB@data?2battleMap?2battle76?4sabex@
	DD	FLAT:??_C@_0BO@MJBJGOMP@data?2battleMap?2battle77?4sabex@
	DD	FLAT:??_C@_0BO@BADJHMGD@data?2battleMap?2battle78?4sabex@
	DD	FLAT:??_C@_0BO@NMJDHMPN@data?2battleMap?2battle79?4sabex@
	DD	FLAT:??_C@_0BO@BMGFKIAH@data?2battleMap?2battle80?4sabex@
	DD	FLAT:??_C@_0BO@NAMPKIJJ@data?2battleMap?2battle81?4sabex@
	DD	FLAT:??_C@_0BO@FOEAKPHK@data?2battleMap?2battle82?4sabex@
	DD	FLAT:??_C@_0BO@JCOKKPOE@data?2battleMap?2battle83?4sabex@
	DD	FLAT:??_C@_0BO@JICPKGPN@data?2battleMap?2battle84?4sabex@
	DD	FLAT:??_C@_0BO@FEIFKGGD@data?2battleMap?2battle85?4sabex@
	DD	FLAT:??_C@_0BO@NKAKKBIA@data?2battleMap?2battle86?4sabex@
	DD	FLAT:??_C@_0BO@BGKAKBBO@data?2battleMap?2battle87?4sabex@
	DD	FLAT:??_C@_0BO@MPIALDLC@data?2battleMap?2battle88?4sabex@
	DD	FLAT:??_C@_0BO@DCKLDCM@data?2battleMap?2battle89?4sabex@
	DD	FLAT:??_C@_0BO@LBOLMEE@data?2battleMap?2battle90?4sabex@
	DD	FLAT:??_C@_0BO@MHLELMNK@data?2battleMap?2battle91?4sabex@
	DD	FLAT:??_C@_0BO@EJDLLLDJ@data?2battleMap?2battle92?4sabex@
	DD	FLAT:??_C@_0BO@IFJBLLKH@data?2battleMap?2battle93?4sabex@
	DD	FLAT:??_C@_0BO@IPFELCLO@data?2battleMap?2battle94?4sabex@
	DD	FLAT:??_C@_0BO@EDPOLCCA@data?2battleMap?2battle95?4sabex@
	DD	FLAT:??_C@_0BO@MNHBLFMD@data?2battleMap?2battle96?4sabex@
	DD	FLAT:??_C@_0BO@BNLLFFN@data?2battleMap?2battle97?4sabex@
	DD	FLAT:??_C@_0BO@NIPLKHPB@data?2battleMap?2battle98?4sabex@
	DD	FLAT:??_C@_0BO@BEFBKHGP@data?2battleMap?2battle99?4sabex@
	DD	FLAT:??_C@_0BP@COCPFCIL@data?2battleMap?2battle100?4sabex@
	DD	FLAT:??_C@_0BP@OCIFFCBF@data?2battleMap?2battle101?4sabex@
	DD	FLAT:??_C@_0BP@GMAKFFPG@data?2battleMap?2battle102?4sabex@
	DD	FLAT:??_C@_0BP@KAKAFFGI@data?2battleMap?2battle103?4sabex@
	DD	FLAT:??_C@_0BP@KKGFFMHB@data?2battleMap?2battle104?4sabex@
	DD	FLAT:??_C@_0BP@GGMPFMOP@data?2battleMap?2battle105?4sabex@
	DD	FLAT:??_C@_0BP@OIEAFLAM@data?2battleMap?2battle106?4sabex@
	DD	FLAT:??_C@_0BP@CEOKFLJC@data?2battleMap?2battle107?4sabex@
	DD	FLAT:??_C@_0BP@PNMKEJDO@data?2battleMap?2battle108?4sabex@
	DD	FLAT:??_C@_0BP@DBGAEJKA@data?2battleMap?2battle109?4sabex@
	DD	FLAT:??_C@_0BP@DJFEEGMI@data?2battleMap?2battle110?4sabex@
	DD	FLAT:??_C@_0BP@PFPOEGFG@data?2battleMap?2battle111?4sabex@
	DD	FLAT:??_C@_0BP@HLHBEBLF@data?2battleMap?2battle112?4sabex@
	DD	FLAT:??_C@_0BP@LHNLEBCL@data?2battleMap?2battle113?4sabex@
	DD	FLAT:??_C@_0BP@LNBOEIDC@data?2battleMap?2battle114?4sabex@
	DD	FLAT:??_C@_0BP@HBLEEIKM@data?2battleMap?2battle115?4sabex@
	DD	FLAT:??_C@_0BP@PPDLEPEP@data?2battleMap?2battle116?4sabex@
	DD	FLAT:??_C@_0BP@DDJBEPNB@data?2battleMap?2battle117?4sabex@
	DD	FLAT:??_C@_0BP@OKLBFNHN@data?2battleMap?2battle118?4sabex@
	DD	FLAT:??_C@_0BP@CGBLFNOD@data?2battleMap?2battle119?4sabex@
	DD	FLAT:??_C@_0BP@NJHKAN@data?2battleMap?2battle120?4sabex@
	DD	FLAT:??_C@_0BP@MMHDHKJD@data?2battleMap?2battle121?4sabex@
	DD	FLAT:??_C@_0BP@ECPMHNHA@data?2battleMap?2battle122?4sabex@
	DD	FLAT:??_C@_0BP@IOFGHNOO@data?2battleMap?2battle123?4sabex@
	DD	FLAT:??_C@_0BP@IEJDHEPH@data?2battleMap?2battle124?4sabex@
	DD	FLAT:??_C@_0BP@EIDJHEGJ@data?2battleMap?2battle125?4sabex@
	DD	FLAT:??_C@_0BP@MGLGHDIK@data?2battleMap?2battle126?4sabex@
	DD	FLAT:??_C@_0BP@KBMHDBE@data?2battleMap?2battle127?4sabex@
	DD	FLAT:??_C@_0BP@NDDMGBLI@data?2battleMap?2battle128?4sabex@
	DD	FLAT:??_C@_0BP@BPJGGBCG@data?2battleMap?2battle129?4sabex@
	DD	FLAT:??_C@_0BP@BHKCGOEO@data?2battleMap?2battle130?4sabex@
	DD	FLAT:??_C@_0BP@NLAIGONA@data?2battleMap?2battle131?4sabex@
	DD	FLAT:??_C@_0BP@FFIHGJDD@data?2battleMap?2battle132?4sabex@
	DD	FLAT:??_C@_0BP@JJCNGJKN@data?2battleMap?2battle133?4sabex@
	DD	FLAT:??_C@_0BP@JDOIGALE@data?2battleMap?2battle134?4sabex@
	DD	FLAT:??_C@_0BP@FPECGACK@data?2battleMap?2battle135?4sabex@
	DD	FLAT:??_C@_0BP@NBMNGHMJ@data?2battleMap?2battle136?4sabex@
	DD	FLAT:??_C@_0BP@BNGHGHFH@data?2battleMap?2battle137?4sabex@
	DD	FLAT:??_C@_0BP@MEEHHFPL@data?2battleMap?2battle138?4sabex@
	DD	FLAT:??_C@_0BP@IONHFGF@data?2battleMap?2battle139?4sabex@
	DD	FLAT:??_C@_0BP@HDMDADIH@data?2battleMap?2battle140?4sabex@
	DD	FLAT:??_C@_0BP@LPGJADBJ@data?2battleMap?2battle141?4sabex@
	DD	FLAT:??_C@_0BP@DBOGAEPK@data?2battleMap?2battle142?4sabex@
	DD	FLAT:??_C@_0BP@PNEMAEGE@data?2battleMap?2battle143?4sabex@
	DD	FLAT:??_C@_0BP@PHIJANHN@data?2battleMap?2battle144?4sabex@
	DD	FLAT:??_C@_0BP@DLCDANOD@data?2battleMap?2battle145?4sabex@
	DD	FLAT:??_C@_0BP@LFKMAKAA@data?2battleMap?2battle146?4sabex@
	DD	FLAT:??_C@_0BP@HJAGAKJO@data?2battleMap?2battle147?4sabex@
	DD	FLAT:??_C@_0BP@KACGBIDC@data?2battleMap?2battle148?4sabex@
	DD	FLAT:??_C@_0BP@GMIMBIKM@data?2battleMap?2battle149?4sabex@
	DD	FLAT:??_C@_0BP@GELIBHME@data?2battleMap?2battle150?4sabex@
	DD	FLAT:??_C@_0BP@KIBCBHFK@data?2battleMap?2battle151?4sabex@
	DD	FLAT:??_C@_0BP@CGJNBALJ@data?2battleMap?2battle152?4sabex@
	DD	FLAT:??_C@_0BP@OKDHBACH@data?2battleMap?2battle153?4sabex@
	DD	FLAT:??_C@_0BP@OAPCBJDO@data?2battleMap?2battle154?4sabex@
	DD	FLAT:??_C@_0BP@CMFIBJKA@data?2battleMap?2battle155?4sabex@
	DD	FLAT:??_C@_0BP@KCNHBOED@data?2battleMap?2battle156?4sabex@
	DD	FLAT:??_C@_0BP@GOHNBONN@data?2battleMap?2battle157?4sabex@
	DD	FLAT:??_C@_0BP@LHFNAMHB@data?2battleMap?2battle158?4sabex@
	DD	FLAT:??_C@_0BP@HLPHAMOP@data?2battleMap?2battle159?4sabex@
	DD	FLAT:??_C@_0BP@FNDFCLAB@data?2battleMap?2battle160?4sabex@
	DD	FLAT:??_C@_0BP@JBJPCLJP@data?2battleMap?2battle161?4sabex@
	DD	FLAT:??_C@_0BP@BPBACMHM@data?2battleMap?2battle162?4sabex@
	DD	FLAT:??_C@_0BP@NDLKCMOC@data?2battleMap?2battle163?4sabex@
	DD	FLAT:??_C@_0BP@NJHPCFPL@data?2battleMap?2battle164?4sabex@
	DD	FLAT:??_C@_0BP@BFNFCFGF@data?2battleMap?2battle165?4sabex@
	DD	FLAT:??_C@_0BP@JLFKCCIG@data?2battleMap?2battle166?4sabex@
	DD	FLAT:??_C@_0BP@FHPACCBI@data?2battleMap?2battle167?4sabex@
	DD	FLAT:??_C@_0BP@IONADALE@data?2battleMap?2battle168?4sabex@
	DD	FLAT:??_C@_0BP@ECHKDACK@data?2battleMap?2battle169?4sabex@
	DD	FLAT:??_C@_0BP@EKEODPEC@data?2battleMap?2battle170?4sabex@
	DD	FLAT:??_C@_0BP@IGOEDPNM@data?2battleMap?2battle171?4sabex@
	DD	FLAT:??_C@_0BP@IGLDIDP@data?2battleMap?2battle172?4sabex@
	DD	FLAT:??_C@_0BP@MEMBDIKB@data?2battleMap?2battle173?4sabex@
	DD	FLAT:??_C@_0BP@MOAEDBLI@data?2battleMap?2battle174?4sabex@
	DD	FLAT:??_C@_0BP@CKODBCG@data?2battleMap?2battle175?4sabex@
	DD	FLAT:??_C@_0BP@IMCBDGMF@data?2battleMap?2battle176?4sabex@
	DD	FLAT:??_C@_0BP@EAILDGFL@data?2battleMap?2battle177?4sabex@
	DD	FLAT:??_C@_0BP@JJKLCEPH@data?2battleMap?2battle178?4sabex@
	DD	FLAT:??_C@_0BP@FFABCEGJ@data?2battleMap?2battle179?4sabex@
	DD	FLAT:??_C@_0BP@JFPHPAJD@data?2battleMap?2battle180?4sabex@
	DD	FLAT:??_C@_0BP@FJFNPAAN@data?2battleMap?2battle181?4sabex@
	DD	FLAT:??_C@_0BP@NHNCPHOO@data?2battleMap?2battle182?4sabex@
	DD	FLAT:??_C@_0BP@BLHIPHHA@data?2battleMap?2battle183?4sabex@
	DD	FLAT:??_C@_0BP@BBLNPOGJ@data?2battleMap?2battle184?4sabex@
	DD	FLAT:??_C@_0BP@NNBHPOPH@data?2battleMap?2battle185?4sabex@
	DD	FLAT:??_C@_0BP@FDJIPJBE@data?2battleMap?2battle186?4sabex@
	DD	FLAT:??_C@_0BP@JPDCPJIK@data?2battleMap?2battle187?4sabex@
	DD	FLAT:??_C@_0BP@EGBCOLCG@data?2battleMap?2battle188?4sabex@
	DD	FLAT:??_C@_0BP@IKLIOLLI@data?2battleMap?2battle189?4sabex@
	DD	FLAT:??_C@_0BP@ICIMOENA@data?2battleMap?2battle190?4sabex@
	DD	FLAT:??_C@_0BP@EOCGOEEO@data?2battleMap?2battle191?4sabex@
	DD	FLAT:??_C@_0BP@MAKJODKN@data?2battleMap?2battle192?4sabex@
	DD	FLAT:??_C@_0BP@MADODDD@data?2battleMap?2battle193?4sabex@
	DD	FLAT:??_C@_0BP@GMGOKCK@data?2battleMap?2battle194?4sabex@
	DD	FLAT:??_C@_0BP@MKGMOKLE@data?2battleMap?2battle195?4sabex@
	DD	FLAT:??_C@_0BP@EEODONFH@data?2battleMap?2battle196?4sabex@
	DD	FLAT:??_C@_0BP@IIEJONMJ@data?2battleMap?2battle197?4sabex@
	DD	FLAT:??_C@_0BP@FBGJPPGF@data?2battleMap?2battle198?4sabex@
	DD	FLAT:??_C@_0BP@JNMDPPPL@data?2battleMap?2battle199?4sabex@
	DD	FLAT:??_C@_0BP@MFBIOJII@data?2battleMap?2battle200?4sabex@
	DD	FLAT:??_C@_0BP@JLCOJBG@data?2battleMap?2battle201?4sabex@
	DD	FLAT:??_C@_0BP@IHDNOOPF@data?2battleMap?2battle202?4sabex@
	DD	FLAT:??_C@_0BP@ELJHOOGL@data?2battleMap?2battle203?4sabex@
	DD	FLAT:??_C@_0BP@EBFCOHHC@data?2battleMap?2battle204?4sabex@
	DD	FLAT:??_C@_0BP@INPIOHOM@data?2battleMap?2battle205?4sabex@
	DD	FLAT:??_C@_0BP@DHHOAAP@data?2battleMap?2battle206?4sabex@
	DD	FLAT:??_C@_0BP@MPNNOAJB@data?2battleMap?2battle207?4sabex@
	DD	FLAT:??_C@_0BP@BGPNPCDN@data?2battleMap?2battle208?4sabex@
	DD	FLAT:??_C@_0BP@NKFHPCKD@data?2battleMap?2battle209?4sabex@
	DD	FLAT:??_C@_0BP@NCGDPNML@data?2battleMap?2battle210?4sabex@
	DD	FLAT:??_C@_0BP@BOMJPNFF@data?2battleMap?2battle211?4sabex@
	DD	FLAT:??_C@_0BP@JAEGPKLG@data?2battleMap?2battle212?4sabex@
	DD	FLAT:??_C@_0BP@FMOMPKCI@data?2battleMap?2battle213?4sabex@
	DD	FLAT:??_C@_0BP@FGCJPDDB@data?2battleMap?2battle214?4sabex@
	DD	FLAT:??_C@_0BP@JKIDPDKP@data?2battleMap?2battle215?4sabex@
	DD	FLAT:??_C@_0BP@BEAMPEEM@data?2battleMap?2battle216?4sabex@
	DD	FLAT:??_C@_0BP@NIKGPENC@data?2battleMap?2battle217?4sabex@
	DD	FLAT:??_C@_0BP@BIGOGHO@data?2battleMap?2battle218?4sabex@
	DD	FLAT:??_C@_0BP@MNCMOGOA@data?2battleMap?2battle219?4sabex@
?piyo_tbl@@3PAHA DD 00H					; piyo_tbl
	DD	01H
	DD	02H
	DD	03H
	DD	04H
	DD	05H
	DD	06H
	DD	07H
	DD	08H
	DD	09H
	DD	0aH
	DD	0aH
	DD	0bH
	DD	0bH
	DD	0bH
	DD	0cH
	DD	0cH
	DD	0cH
	DD	0bH
	DD	0bH
	DD	0bH
	DD	0aH
	DD	09H
	DD	09H
	DD	08H
	DD	07H
	DD	06H
	DD	05H
	DD	04H
	DD	03H
	DD	02H
	DD	01H
	DD	00H
	DD	0ffffffffH
	DD	0fffffffeH
	DD	0fffffffdH
	DD	0fffffffcH
	DD	0fffffffbH
	DD	0fffffffaH
	DD	0fffffff9H
	DD	0fffffff8H
	DD	0fffffff7H
	DD	0fffffff6H
	DD	0fffffff6H
	DD	0fffffff5H
	DD	0fffffff5H
	DD	0fffffff5H
	DD	0fffffff4H
	DD	0fffffff4H
	DD	0fffffff4H
	DD	0fffffff5H
	DD	0fffffff5H
	DD	0fffffff5H
	DD	0fffffff6H
	DD	0fffffff7H
	DD	0fffffff7H
	DD	0fffffff8H
	DD	0fffffff9H
	DD	0fffffffaH
	DD	0fffffffbH
	DD	0fffffffcH
	DD	0fffffffdH
	DD	0fffffffeH
	DD	0ffffffffH
_DATA	ENDS
PUBLIC	___local_stdio_printf_options
PUBLIC	_sprintf
PUBLIC	?ReadBattleMap@@YAHH@Z				; ReadBattleMap
PUBLIC	?DrawBattleMap@@YAXXZ				; DrawBattleMap
PUBLIC	?_OptionsStorage@?1??__local_stdio_printf_options@@9@4_KA ; `__local_stdio_printf_options'::`2'::_OptionsStorage
PUBLIC	??_C@_02JDPG@rb@				; `string'
PUBLIC	??_C@_0L@PJGJFGHP@?$CFs?$DP?v?$KC?c?w?$DP?$KB?$KD@ ; `string'
PUBLIC	??_C@_07BFAHKAHO@?$DP?$DP?r?$KC?$DP?$DP?$DP@	; `string'
PUBLIC	??_C@_03LEBEEKNP@SAB@				; `string'
PUBLIC	??_C@_0O@FAJIIGGH@SAB?5?$DP?d?P?$NM?t?p?m?n?$KE@ ; `string'
PUBLIC	__real@3f00000000000000
PUBLIC	__real@4014000000000000
PUBLIC	__real@c008000000000000
PUBLIC	__real@c010000000000000
EXTRN	_strstr:PROC
EXTRN	__imp__MessageBoxA@16:PROC
EXTRN	_rand:PROC
EXTRN	_fclose:PROC
EXTRN	_fgetc:PROC
EXTRN	_fopen:PROC
EXTRN	_fread:PROC
EXTRN	___stdio_common_vsprintf:PROC
EXTRN	?StockDispBuffer@@YAHHHEHH@Z:PROC		; StockDispBuffer
EXTRN	?FreeGetBattleMap@@YAHH@Z:PROC			; FreeGetBattleMap
EXTRN	@__security_check_cookie@4:PROC
EXTRN	?DISPLACEMENT_X@@3HA:DWORD			; DISPLACEMENT_X
EXTRN	?DISPLACEMENT_Y@@3HA:DWORD			; DISPLACEMENT_Y
EXTRN	?lpBattleSurface@@3PAUIDirectDrawSurface@@A:DWORD ; lpBattleSurface
EXTRN	?lpDraw@@3PAUDIRECT_DRAW@@A:DWORD		; lpDraw
EXTRN	?DEF_APPSIZEX@@3HA:DWORD			; DEF_APPSIZEX
EXTRN	?DEF_APPSIZEY@@3HA:DWORD			; DEF_APPSIZEY
EXTRN	?hWnd@@3PAUHWND__@@A:DWORD			; hWnd
EXTRN	?ResoMode@@3HA:DWORD				; ResoMode
EXTRN	?g_iRunEarthQuake@@3HA:DWORD			; g_iRunEarthQuake
EXTRN	?g_iCurRunEarthQuake@@3HA:DWORD			; g_iCurRunEarthQuake
EXTRN	?nowFloor@@3HA:DWORD				; nowFloor
EXTRN	?nowFloor@@3HA:DWORD				; nowFloor
EXTRN	___security_cookie:DWORD
EXTRN	__fltused:DWORD
;	COMDAT ?_OptionsStorage@?1??__local_stdio_printf_options@@9@4_KA
_BSS	SEGMENT
?_OptionsStorage@?1??__local_stdio_printf_options@@9@4_KA DQ 01H DUP (?) ; `__local_stdio_printf_options'::`2'::_OptionsStorage
_BSS	ENDS
;	COMDAT __real@c010000000000000
CONST	SEGMENT
__real@c010000000000000 DQ 0c010000000000000r	; -4
CONST	ENDS
;	COMDAT __real@c008000000000000
CONST	SEGMENT
__real@c008000000000000 DQ 0c008000000000000r	; -3
CONST	ENDS
;	COMDAT __real@4014000000000000
CONST	SEGMENT
__real@4014000000000000 DQ 04014000000000000r	; 5
CONST	ENDS
;	COMDAT __real@3f00000000000000
CONST	SEGMENT
__real@3f00000000000000 DQ 03f00000000000000r	; 3.05176e-05
CONST	ENDS
;	COMDAT ??_C@_0O@FAJIIGGH@SAB?5?$DP?d?P?$NM?t?p?m?n?$KE@
CONST	SEGMENT
??_C@_0O@FAJIIGGH@SAB?5?$DP?d?P?$NM?t?p?m?n?$KE@ DB 'SAB ?', 0e4H, 0d0H, 0dcH
	DB	0f4H, 0f0H, 0edH, 0eeH, 0a4H, 00H		; `string'
CONST	ENDS
;	COMDAT ??_C@_03LEBEEKNP@SAB@
CONST	SEGMENT
??_C@_03LEBEEKNP@SAB@ DB 'SAB', 00H			; `string'
CONST	ENDS
;	COMDAT ??_C@_07BFAHKAHO@?$DP?$DP?r?$KC?$DP?$DP?$DP@
CONST	SEGMENT
??_C@_07BFAHKAHO@?$DP?$DP?r?$KC?$DP?$DP?$DP@ DB '??', 0f2H, 0a2H, '???', 00H ; `string'
CONST	ENDS
;	COMDAT ??_C@_0L@PJGJFGHP@?$CFs?$DP?v?$KC?c?w?$DP?$KB?$KD@
CONST	SEGMENT
??_C@_0L@PJGJFGHP@?$CFs?$DP?v?$KC?c?w?$DP?$KB?$KD@ DB '%s?', 0f6H, 0a2H, 0e3H
	DB	0f7H, '?', 0a1H, 0a3H, 00H			; `string'
CONST	ENDS
;	COMDAT ??_C@_02JDPG@rb@
CONST	SEGMENT
??_C@_02JDPG@rb@ DB 'rb', 00H				; `string'
CONST	ENDS
_DATA	SEGMENT
?iCrystalBattleMap@@3PAY02HA DD 07184H			; iCrystalBattleMap
	DD	07185H
	DD	07186H
	DD	07182H
	DD	07183H
	DD	0718aH
	DD	07187H
	DD	07188H
	DD	07189H
	DD	07181H
	DD	0718bH
	DD	0718cH
_DATA	ENDS
; Function compile flags: /Ogtp
; File \\VBOXSVR\_stoneage\repos\ssm-sacli\system\battleMap.cpp
;	COMDAT ?DrawBattleMap@@YAXXZ
_TEXT	SEGMENT
_rect$ = -20						; size = 16
__$ArrayPad$ = -4					; size = 4
?DrawBattleMap@@YAXXZ PROC				; DrawBattleMap, COMDAT

; 250  : {

  00000	55		 push	 ebp
  00001	8b ec		 mov	 ebp, esp
  00003	83 ec 14	 sub	 esp, 20			; 00000014H
  00006	a1 00 00 00 00	 mov	 eax, DWORD PTR ___security_cookie
  0000b	33 c5		 xor	 eax, ebp
  0000d	89 45 fc	 mov	 DWORD PTR __$ArrayPad$[ebp], eax

; 251  : 	RECT rect = { 0, 0, DEF_APPSIZEX, DEF_APPSIZEY };
; 252  : 	int d0,d1,d6,d7,value;
; 253  : 	short bx , by;
; 254  : 	
; 255  : #ifdef __ATTACK_MAGIC
; 256  : 	// 
; 257  : #ifdef _NEWDRAWBATTLEMAP		   // Syu ADD BattleMap
; 258  : 	extern int nowFloor;
; 259  : 	if( ( BattleMapNo >= 148 && BattleMapNo <= 150 ) || 2 == g_iRunEarthQuake || 
; 260  : 		nowFloor == 817 || nowFloor == 8007 || nowFloor == 8101 || nowFloor == 8100 || 
; 261  : 		nowFloor == 8027 || nowFloor == 8028 || nowFloor == 8029 || nowFloor == 8015 || nowFloor == 8113 || nowFloor == 8114 ){

  00010	a1 00 00 00 00	 mov	 eax, DWORD PTR ?BattleMapNo@@3HA ; BattleMapNo
  00015	8b 0d 00 00 00
	00		 mov	 ecx, DWORD PTR ?DEF_APPSIZEY@@3HA ; DEF_APPSIZEY
  0001b	c7 45 ec 00 00
	00 00		 mov	 DWORD PTR _rect$[ebp], 0
  00022	c7 45 f0 00 00
	00 00		 mov	 DWORD PTR _rect$[ebp+4], 0
  00029	89 4d f8	 mov	 DWORD PTR _rect$[ebp+12], ecx
  0002c	56		 push	 esi
  0002d	8b 35 00 00 00
	00		 mov	 esi, DWORD PTR ?DEF_APPSIZEX@@3HA ; DEF_APPSIZEX
  00033	89 75 f4	 mov	 DWORD PTR _rect$[ebp+8], esi
  00036	57		 push	 edi
  00037	3d 94 00 00 00	 cmp	 eax, 148		; 00000094H
  0003c	7c 0b		 jl	 SHORT $LN13@DrawBattle
  0003e	3d 96 00 00 00	 cmp	 eax, 150		; 00000096H
  00043	0f 8e e3 00 00
	00		 jle	 $LN21@DrawBattle
$LN13@DrawBattle:
  00049	83 3d 00 00 00
	00 02		 cmp	 DWORD PTR ?g_iRunEarthQuake@@3HA, 2 ; g_iRunEarthQuake
  00050	0f 84 d6 00 00
	00		 je	 $LN21@DrawBattle
  00056	a1 00 00 00 00	 mov	 eax, DWORD PTR ?nowFloor@@3HA ; nowFloor
  0005b	3d 31 03 00 00	 cmp	 eax, 817		; 00000331H
  00060	0f 84 c6 00 00
	00		 je	 $LN21@DrawBattle
  00066	3d 47 1f 00 00	 cmp	 eax, 8007		; 00001f47H
  0006b	0f 84 bb 00 00
	00		 je	 $LN21@DrawBattle
  00071	3d a5 1f 00 00	 cmp	 eax, 8101		; 00001fa5H
  00076	0f 84 b0 00 00
	00		 je	 $LN21@DrawBattle
  0007c	3d a4 1f 00 00	 cmp	 eax, 8100		; 00001fa4H
  00081	0f 84 a5 00 00
	00		 je	 $LN21@DrawBattle
  00087	3d 5b 1f 00 00	 cmp	 eax, 8027		; 00001f5bH
  0008c	0f 84 9a 00 00
	00		 je	 $LN21@DrawBattle
  00092	3d 5c 1f 00 00	 cmp	 eax, 8028		; 00001f5cH
  00097	0f 84 8f 00 00
	00		 je	 $LN21@DrawBattle
  0009d	3d 5d 1f 00 00	 cmp	 eax, 8029		; 00001f5dH
  000a2	0f 84 84 00 00
	00		 je	 $LN21@DrawBattle
  000a8	3d 4f 1f 00 00	 cmp	 eax, 8015		; 00001f4fH
  000ad	74 7d		 je	 SHORT $LN21@DrawBattle
  000af	3d b1 1f 00 00	 cmp	 eax, 8113		; 00001fb1H
  000b4	74 76		 je	 SHORT $LN21@DrawBattle
  000b6	3d b2 1f 00 00	 cmp	 eax, 8114		; 00001fb2H
  000bb	74 6f		 je	 SHORT $LN21@DrawBattle

; 262  : #else
; 263  : 	if( ( BattleMapNo >= 148 && BattleMapNo <= 150 ) || 2 == g_iRunEarthQuake ){
; 264  : #endif
; 265  : #else
; 266  : 	if(BattleMapNo >= 148 && BattleMapNo <= 150){		//???????????
; 267  : #endif
; 268  : 
; 269  : 		d1 = 1;
; 270  : 	} else {
; 271  : 		d1 = 0;
; 272  : 	}
; 273  : 
; 274  : 	switch( d1 ){
; 275  : 	case 0:
; 276  : 		bx = 0;
; 277  : 		by = 0;
; 278  : 		short x0, y0;
; 279  : 		long w, h;
; 280  : 		// ???????
; 281  : 		x0 = bx;
; 282  : 		y0 = by;
; 283  : 		w = rect.right - rect.left;
; 284  : 		h = rect.bottom - rect.top;
; 285  : 		// ????????
; 286  : 		//   ????? RECT ??????????????
; 287  : 
; 288  : 		// ??????????
; 289  : 		if( bx >= lpDraw->xSize || bx + w <= 0 || by >= lpDraw->ySize || by + h <= 0 ){

  000bd	a1 00 00 00 00	 mov	 eax, DWORD PTR ?lpDraw@@3PAUDIRECT_DRAW@@A ; lpDraw
  000c2	8b 90 84 00 00
	00		 mov	 edx, DWORD PTR [eax+132]
  000c8	85 d2		 test	 edx, edx
  000ca	0f 8e db 00 00
	00		 jle	 $LN16@DrawBattle
  000d0	85 f6		 test	 esi, esi
  000d2	0f 8e d3 00 00
	00		 jle	 $LN16@DrawBattle
  000d8	8b b8 88 00 00
	00		 mov	 edi, DWORD PTR [eax+136]
  000de	85 ff		 test	 edi, edi
  000e0	0f 8e c5 00 00
	00		 jle	 $LN16@DrawBattle
  000e6	85 c9		 test	 ecx, ecx
  000e8	0f 8e bd 00 00
	00		 jle	 $LN16@DrawBattle

; 290  : 			return;
; 291  : 		}
; 292  : 		// ??????
; 293  : 		if( bx < 0 ){
; 294  : 			rect.left -= bx;
; 295  : 			x0 = 0;
; 296  : 		}
; 297  : 		// ??????
; 298  : 		if( bx + w > lpDraw->xSize ){

  000ee	3b f2		 cmp	 esi, edx
  000f0	7e 09		 jle	 SHORT $LN18@DrawBattle

; 299  : 			rect.right -= bx + w - lpDraw->xSize;

  000f2	89 55 f4	 mov	 DWORD PTR _rect$[ebp+8], edx
  000f5	8b b8 88 00 00
	00		 mov	 edi, DWORD PTR [eax+136]
$LN18@DrawBattle:

; 300  : 		}
; 301  : 		// ?????
; 302  : 		if( by < 0 ){
; 303  : 			rect.top -= by;
; 304  : 			y0 = 0;
; 305  : 		}
; 306  : 		// ??????
; 307  : 		if( by + h > lpDraw->ySize ){

  000fb	3b cf		 cmp	 ecx, edi

; 308  : 			rect.bottom -= by + h - lpDraw->ySize;
; 309  : 		}
; 310  : 		
; 311  : #ifdef _STONDEBUG_		
; 312  : 		// ?????????????????
; 313  : 		SurfaceDispCnt++;
; 314  : #endif
; 315  : 		// ???????????
; 316  : 		lpDraw->lpBACKBUFFER->BltFast( x0, y0, lpBattleSurface, &rect, DDBLTFAST_WAIT );

  000fd	8d 55 ec	 lea	 edx, DWORD PTR _rect$[ebp]
  00100	6a 10		 push	 16			; 00000010H
  00102	0f 4f cf	 cmovg	 ecx, edi
  00105	52		 push	 edx
  00106	ff 35 00 00 00
	00		 push	 DWORD PTR ?lpBattleSurface@@3PAUIDirectDrawSurface@@A ; lpBattleSurface
  0010c	89 4d f8	 mov	 DWORD PTR _rect$[ebp+12], ecx
  0010f	8b 40 0c	 mov	 eax, DWORD PTR [eax+12]
  00112	6a 00		 push	 0
  00114	6a 00		 push	 0
  00116	50		 push	 eax
  00117	8b 08		 mov	 ecx, DWORD PTR [eax]
  00119	ff 51 1c	 call	 DWORD PTR [ecx+28]
  0011c	5f		 pop	 edi

; 350  : 		}
; 351  : 		break;
; 352  : 	case 2:
; 353  : 		d6 = 0;
; 354  : 		for(d7=0; d7<480 + DISPLACEMENT_Y; d7+=RASTER_CLEARANCE/2){
; 355  : 
; 356  : 			rect.top = d7;		//
; 357  : 			rect.bottom = rect.top + RASTER_CLEARANCE;		//?
; 358  : 
; 359  : 			d0 = piyo_tbl[(d6+piyo_point) & 63] / 2;		//?
; 360  : 			if(d0 < 0){		//??????
; 361  : 				rect.left = 0 - d0;
; 362  : 				rect.right = 640 + DISPLACEMENT_X+ d0;		//?
; 363  : 				d0 = 0;
; 364  : 			} else {
; 365  : 				rect.left = 0;
; 366  : 				rect.right = 640 + DISPLACEMENT_X- d0;		//?
; 367  : 			}
; 368  : 			// ???????????
; 369  : 			lpDraw->lpBACKBUFFER->BltFast( d0, d7, lpBattleSurface, &rect, DDBLTFAST_WAIT );
; 370  : #ifdef _READ16BITBMP
; 371  : 			if(g_bUseAlpha) lpDraw->lpBACKBUFFERSYS->BltFast(d0,d7,lpBattleSurfaceSys,&rect,DDBLTFAST_WAIT);
; 372  : #endif
; 373  : 			d6++;
; 374  : 		}
; 375  : 		break;
; 376  : 	}
; 377  : }

  0011d	5e		 pop	 esi
  0011e	8b 4d fc	 mov	 ecx, DWORD PTR __$ArrayPad$[ebp]
  00121	33 cd		 xor	 ecx, ebp
  00123	e8 00 00 00 00	 call	 @__security_check_cookie@4
  00128	8b e5		 mov	 esp, ebp
  0012a	5d		 pop	 ebp
  0012b	c3		 ret	 0
$LN21@DrawBattle:

; 317  : #ifdef _READ16BITBMP
; 318  : 		if(g_bUseAlpha) lpDraw->lpBACKBUFFERSYS->BltFast(x0,y0,lpBattleSurfaceSys,&rect,DDBLTFAST_WAIT);
; 319  : #endif
; 320  : 		break;
; 321  : 	case 1:
; 322  : 
; 323  : 		value		 = piyo_point;
; 324  : 		d6			 = 0;
; 325  : 
; 326  : #ifdef __ATTACK_MAGIC
; 327  : 
; 328  : 		value		+= g_iCurRunEarthQuake;
; 329  : 
; 330  : #endif
; 331  : 
; 332  : 		rect.left = 0;		//?
; 333  : 		rect.right = 640 + DISPLACEMENT_X;		//?

  0012c	a1 00 00 00 00	 mov	 eax, DWORD PTR ?DISPLACEMENT_X@@3HA ; DISPLACEMENT_X

; 334  : 	/*	if(BattleMapAdvance < 10){
; 335  : 			BattleMapAdvance ++;
; 336  : 			return;
; 337  : 		}
; 338  : 		else
; 339  : 			BattleMapAdvance =0;*/
; 340  : 
; 341  : 		for(d7=0; d7 < 480 + DISPLACEMENT_Y; d7+=RASTER_CLEARANCE){

  00131	33 f6		 xor	 esi, esi
  00133	8b 3d 00 00 00
	00		 mov	 edi, DWORD PTR ?g_iCurRunEarthQuake@@3HA ; g_iCurRunEarthQuake
  00139	05 80 02 00 00	 add	 eax, 640		; 00000280H
  0013e	03 3d 00 00 00
	00		 add	 edi, DWORD PTR ?piyo_point@@3HA ; piyo_point
  00144	89 45 f4	 mov	 DWORD PTR _rect$[ebp+8], eax
  00147	a1 00 00 00 00	 mov	 eax, DWORD PTR ?DISPLACEMENT_Y@@3HA ; DISPLACEMENT_Y
  0014c	05 e0 01 00 00	 add	 eax, 480		; 000001e0H
  00151	c7 45 ec 00 00
	00 00		 mov	 DWORD PTR _rect$[ebp], 0
  00158	85 c0		 test	 eax, eax
  0015a	7e 4f		 jle	 SHORT $LN16@DrawBattle
  0015c	0f 1f 40 00	 npad	 4
$LL6@DrawBattle:

; 342  : 			rect.top = d7 + piyo_tbl[(d6+value) & 63] + 12;		//

  00160	8b c7		 mov	 eax, edi

; 343  : 			rect.bottom = rect.top + RASTER_CLEARANCE;		//?
; 344  : 			// ???????????
; 345  : 			lpDraw->lpBACKBUFFER->BltFast( 0, d7, lpBattleSurface, &rect, DDBLTFAST_WAIT );

  00162	8d 55 ec	 lea	 edx, DWORD PTR _rect$[ebp]
  00165	83 e0 3f	 and	 eax, 63			; 0000003fH
  00168	6a 10		 push	 16			; 00000010H
  0016a	52		 push	 edx
  0016b	ff 35 00 00 00
	00		 push	 DWORD PTR ?lpBattleSurface@@3PAUIDirectDrawSurface@@A ; lpBattleSurface
  00171	8b 0c 85 00 00
	00 00		 mov	 ecx, DWORD PTR ?piyo_tbl@@3PAHA[eax*4]
  00178	8d 46 0c	 lea	 eax, DWORD PTR [esi+12]
  0017b	03 c1		 add	 eax, ecx
  0017d	89 45 f0	 mov	 DWORD PTR _rect$[ebp+4], eax
  00180	56		 push	 esi
  00181	8d 41 14	 lea	 eax, DWORD PTR [ecx+20]
  00184	03 c6		 add	 eax, esi
  00186	89 45 f8	 mov	 DWORD PTR _rect$[ebp+12], eax
  00189	a1 00 00 00 00	 mov	 eax, DWORD PTR ?lpDraw@@3PAUDIRECT_DRAW@@A ; lpDraw
  0018e	6a 00		 push	 0
  00190	8b 40 0c	 mov	 eax, DWORD PTR [eax+12]
  00193	50		 push	 eax
  00194	8b 08		 mov	 ecx, DWORD PTR [eax]
  00196	ff 51 1c	 call	 DWORD PTR [ecx+28]
  00199	a1 00 00 00 00	 mov	 eax, DWORD PTR ?DISPLACEMENT_Y@@3HA ; DISPLACEMENT_Y
  0019e	83 c6 08	 add	 esi, 8
  001a1	05 e0 01 00 00	 add	 eax, 480		; 000001e0H

; 346  : #ifdef _READ16BITBMP
; 347  : 			if(g_bUseAlpha) lpDraw->lpBACKBUFFERSYS->BltFast(0,d7,lpBattleSurfaceSys,&rect,DDBLTFAST_WAIT);
; 348  : #endif
; 349  : 			d6++;

  001a6	47		 inc	 edi
  001a7	3b f0		 cmp	 esi, eax
  001a9	7c b5		 jl	 SHORT $LL6@DrawBattle
$LN16@DrawBattle:

; 350  : 		}
; 351  : 		break;
; 352  : 	case 2:
; 353  : 		d6 = 0;
; 354  : 		for(d7=0; d7<480 + DISPLACEMENT_Y; d7+=RASTER_CLEARANCE/2){
; 355  : 
; 356  : 			rect.top = d7;		//
; 357  : 			rect.bottom = rect.top + RASTER_CLEARANCE;		//?
; 358  : 
; 359  : 			d0 = piyo_tbl[(d6+piyo_point) & 63] / 2;		//?
; 360  : 			if(d0 < 0){		//??????
; 361  : 				rect.left = 0 - d0;
; 362  : 				rect.right = 640 + DISPLACEMENT_X+ d0;		//?
; 363  : 				d0 = 0;
; 364  : 			} else {
; 365  : 				rect.left = 0;
; 366  : 				rect.right = 640 + DISPLACEMENT_X- d0;		//?
; 367  : 			}
; 368  : 			// ???????????
; 369  : 			lpDraw->lpBACKBUFFER->BltFast( d0, d7, lpBattleSurface, &rect, DDBLTFAST_WAIT );
; 370  : #ifdef _READ16BITBMP
; 371  : 			if(g_bUseAlpha) lpDraw->lpBACKBUFFERSYS->BltFast(d0,d7,lpBattleSurfaceSys,&rect,DDBLTFAST_WAIT);
; 372  : #endif
; 373  : 			d6++;
; 374  : 		}
; 375  : 		break;
; 376  : 	}
; 377  : }

  001ab	8b 4d fc	 mov	 ecx, DWORD PTR __$ArrayPad$[ebp]
  001ae	5f		 pop	 edi
  001af	33 cd		 xor	 ecx, ebp
  001b1	5e		 pop	 esi
  001b2	e8 00 00 00 00	 call	 @__security_check_cookie@4
  001b7	8b e5		 mov	 esp, ebp
  001b9	5d		 pop	 ebp
  001ba	c3		 ret	 0
?DrawBattleMap@@YAXXZ ENDP				; DrawBattleMap
_TEXT	ENDS
; Function compile flags: /Ogtp
; File \\VBOXSVR\_stoneage\repos\ssm-sacli\system\battleMap.cpp
; File C:\Program Files (x86)\Windows Kits\10\Include\10.0.19041.0\ucrt\string.h
; File \\VBOXSVR\_stoneage\repos\ssm-sacli\system\battleMap.cpp
; File C:\Program Files (x86)\Windows Kits\10\Include\10.0.19041.0\ucrt\string.h
; File \\VBOXSVR\_stoneage\repos\ssm-sacli\system\battleMap.cpp
;	COMDAT ?ReadBattleMap@@YAHH@Z
_TEXT	SEGMENT
tv986 = -2464						; size = 4
tv985 = -2460						; size = 4
_fp$1$ = -2460						; size = 4
_posY$1$ = -2456					; size = 4
_posX$1$ = -2452					; size = 4
_tile$ = -2448						; size = 2178
_msg$ = -268						; size = 256
_header$ = -12						; size = 5
__$ArrayPad$ = -4					; size = 4
_no$ = 8						; size = 4
?ReadBattleMap@@YAHH@Z PROC				; ReadBattleMap, COMDAT

; 54   : {

  00000	55		 push	 ebp
  00001	8b ec		 mov	 ebp, esp
  00003	81 ec a0 09 00
	00		 sub	 esp, 2464		; 000009a0H
  00009	a1 00 00 00 00	 mov	 eax, DWORD PTR ___security_cookie
  0000e	33 c5		 xor	 eax, ebp
  00010	89 45 fc	 mov	 DWORD PTR __$ArrayPad$[ebp], eax
  00013	8b 45 08	 mov	 eax, DWORD PTR _no$[ebp]
  00016	53		 push	 ebx
  00017	56		 push	 esi

; 55   : 
; 56   : 	//#ifdef _NEWDRAWBATTLEMAP_FIX		   // ()ROG ADD 
; 57   : 	//	ddrawBattleMap();
; 58   : 	//#else
; 59   : #ifndef _NB_
; 60   : 	if (ResoMode){	//JL fix 
; 61   : 		ddrawBattleMap();
; 62   : 	}else{
; 63   : #endif
; 64   : 		char msg[256];
; 65   : 		FILE *fp;
; 66   : 		char header[5];
; 67   : #ifdef _NB_
; 68   : 		unsigned short tile[1089];
; 69   : #else
; 70   : 		unsigned short tile[BATTLE_MAP_SIZE];
; 71   : #endif
; 72   : 		int cnt = 0;
; 73   : 		int i, j, x = 0, y = 0, posX, posY;
; 74   : 		unsigned short c1, c2;
; 75   : 		// ????????
; 76   : 		if (no >= BATTLE_MAP_FILES)
; 77   : 			no = 0;
; 78   : 		// ?????????
; 79   : 		BattleMapNo = no;

  00018	33 f6		 xor	 esi, esi
  0001a	33 db		 xor	 ebx, ebx
  0001c	3d dc 00 00 00	 cmp	 eax, 220		; 000000dcH

; 80   : 		// ??????????????
; 81   : 		if ((fp = fopen(BattleMapFile[no], "rb")) == NULL) {

  00021	68 00 00 00 00	 push	 OFFSET ??_C@_02JDPG@rb@
  00026	0f 4c f0	 cmovl	 esi, eax
  00029	89 35 00 00 00
	00		 mov	 DWORD PTR ?BattleMapNo@@3HA, esi ; BattleMapNo
  0002f	ff 34 b5 00 00
	00 00		 push	 DWORD PTR ?BattleMapFile@@3PAPADA[esi*4]
  00036	e8 00 00 00 00	 call	 _fopen
  0003b	83 c4 08	 add	 esp, 8
  0003e	89 85 64 f6 ff
	ff		 mov	 DWORD PTR _fp$1$[ebp], eax
  00044	85 c0		 test	 eax, eax
  00046	75 47		 jne	 SHORT $LN14@ReadBattle

; 82   : 			sprintf(msg, "%s", BattleMapFile[no]);

  00048	ff 34 b5 00 00
	00 00		 push	 DWORD PTR ?BattleMapFile@@3PAPADA[esi*4]
  0004f	8d 85 f4 fe ff
	ff		 lea	 eax, DWORD PTR _msg$[ebp]
  00055	68 00 00 00 00	 push	 OFFSET ??_C@_0L@PJGJFGHP@?$CFs?$DP?v?$KC?c?w?$DP?$KB?$KD@
  0005a	50		 push	 eax
  0005b	e8 00 00 00 00	 call	 _sprintf
  00060	83 c4 0c	 add	 esp, 12			; 0000000cH

; 83   : 			MessageBox(hWnd, msg, "", MB_OK | MB_ICONSTOP);

  00063	8d 85 f4 fe ff
	ff		 lea	 eax, DWORD PTR _msg$[ebp]
  00069	6a 10		 push	 16			; 00000010H
  0006b	68 00 00 00 00	 push	 OFFSET ??_C@_07BFAHKAHO@?$DP?$DP?r?$KC?$DP?$DP?$DP@
  00070	50		 push	 eax
  00071	ff 35 00 00 00
	00		 push	 DWORD PTR ?hWnd@@3PAUHWND__@@A ; hWnd
  00077	ff 15 00 00 00
	00		 call	 DWORD PTR __imp__MessageBoxA@16
  0007d	5e		 pop	 esi

; 84   : 			return FALSE;

  0007e	33 c0		 xor	 eax, eax

; 232  : 
; 233  : }	

  00080	5b		 pop	 ebx
  00081	8b 4d fc	 mov	 ecx, DWORD PTR __$ArrayPad$[ebp]
  00084	33 cd		 xor	 ecx, ebp
  00086	e8 00 00 00 00	 call	 @__security_check_cookie@4
  0008b	8b e5		 mov	 esp, ebp
  0008d	5d		 pop	 ebp
  0008e	c3		 ret	 0
$LN14@ReadBattle:

; 85   : 		}
; 86   : 		fread(header, sizeof(char), 4, fp);

  0008f	50		 push	 eax
  00090	6a 04		 push	 4
  00092	8d 45 f4	 lea	 eax, DWORD PTR _header$[ebp]
  00095	6a 01		 push	 1
  00097	50		 push	 eax
  00098	e8 00 00 00 00	 call	 _fread
; File C:\Program Files (x86)\Windows Kits\10\Include\10.0.19041.0\ucrt\string.h

; 520  :         return const_cast<char*>(strstr(static_cast<char const*>(_String), _SubString));

  0009d	8d 45 f4	 lea	 eax, DWORD PTR _header$[ebp]
; File \\VBOXSVR\_stoneage\repos\ssm-sacli\system\battleMap.cpp

; 87   : 		header[4] = '\0';

  000a0	88 5d f8	 mov	 BYTE PTR _header$[ebp+4], bl
; File C:\Program Files (x86)\Windows Kits\10\Include\10.0.19041.0\ucrt\string.h

; 520  :         return const_cast<char*>(strstr(static_cast<char const*>(_String), _SubString));

  000a3	68 00 00 00 00	 push	 OFFSET ??_C@_03LEBEEKNP@SAB@
  000a8	50		 push	 eax
  000a9	e8 00 00 00 00	 call	 _strstr
  000ae	83 c4 18	 add	 esp, 24			; 00000018H
; File \\VBOXSVR\_stoneage\repos\ssm-sacli\system\battleMap.cpp

; 88   : 		if (!(strstr(header, "SAB")))

  000b1	85 c0		 test	 eax, eax
  000b3	75 18		 jne	 SHORT $LN15@ReadBattle

; 89   : 			MessageBox(hWnd, "SAB ", "", MB_OK | MB_ICONSTOP);

  000b5	6a 10		 push	 16			; 00000010H
  000b7	68 00 00 00 00	 push	 OFFSET ??_C@_07BFAHKAHO@?$DP?$DP?r?$KC?$DP?$DP?$DP@
  000bc	68 00 00 00 00	 push	 OFFSET ??_C@_0O@FAJIIGGH@SAB?5?$DP?d?P?$NM?t?p?m?n?$KE@
  000c1	ff 35 00 00 00
	00		 push	 DWORD PTR ?hWnd@@3PAUHWND__@@A ; hWnd
  000c7	ff 15 00 00 00
	00		 call	 DWORD PTR __imp__MessageBoxA@16
$LN15@ReadBattle:

; 90   : #ifdef _NB_
; 91   : 		for (i = 0; i < 1089; i++) {

  000cd	8b 9d 64 f6 ff
	ff		 mov	 ebx, DWORD PTR _fp$1$[ebp]
  000d3	57		 push	 edi
  000d4	33 ff		 xor	 edi, edi
$LL4@ReadBattle:

; 92   : #else
; 93   : 		for (i = 0; i < BATTLE_MAP_SIZE; i++) {
; 94   : #endif
; 95   : 			c1 = fgetc(fp);

  000d6	53		 push	 ebx
  000d7	e8 00 00 00 00	 call	 _fgetc

; 96   : 			c2 = fgetc(fp);

  000dc	53		 push	 ebx
  000dd	0f b7 f0	 movzx	 esi, ax
  000e0	e8 00 00 00 00	 call	 _fgetc

; 97   : 			tile[i] = (c1 << 8) | c2;

  000e5	c1 e6 08	 shl	 esi, 8
  000e8	83 c4 08	 add	 esp, 8
  000eb	0b c6		 or	 eax, esi
  000ed	66 89 84 7d 70
	f6 ff ff	 mov	 WORD PTR _tile$[ebp+edi*2], ax
  000f5	47		 inc	 edi
  000f6	81 ff 41 04 00
	00		 cmp	 edi, 1089		; 00000441H
  000fc	7c d8		 jl	 SHORT $LL4@ReadBattle

; 98   : 		}
; 99   : 		fclose(fp);

  000fe	53		 push	 ebx
  000ff	e8 00 00 00 00	 call	 _fclose

; 100  : 		//ROG FIX 
; 101  : 		
; 102  : #ifdef _NB_
; 103  : 		switch (ResoMode)

  00104	a1 00 00 00 00	 mov	 eax, DWORD PTR ?ResoMode@@3HA ; ResoMode
  00109	83 c4 04	 add	 esp, 4
  0010c	83 e8 03	 sub	 eax, 3
  0010f	74 2f		 je	 SHORT $LN17@ReadBattle
  00111	83 e8 01	 sub	 eax, 1
  00114	74 1e		 je	 SHORT $LN16@ReadBattle

; 112  : 			break;
; 113  : 		default:
; 114  : 			posX = 32 * (-9) + (DISPLACEMENT_X >> 1);

  00116	8b 35 00 00 00
	00		 mov	 esi, DWORD PTR ?DISPLACEMENT_X@@3HA ; DISPLACEMENT_X

; 115  : 			posY = 24 * 10 + (DISPLACEMENT_Y >> 1);

  0011c	8b 3d 00 00 00
	00		 mov	 edi, DWORD PTR ?DISPLACEMENT_Y@@3HA ; DISPLACEMENT_Y
  00122	d1 fe		 sar	 esi, 1
  00124	d1 ff		 sar	 edi, 1
  00126	81 ee 20 01 00
	00		 sub	 esi, 288		; 00000120H
  0012c	81 c7 f0 00 00
	00		 add	 edi, 240		; 000000f0H
  00132	eb 16		 jmp	 SHORT $LN82@ReadBattle
$LN16@ReadBattle:

; 104  : 		{
; 105  : 		case ::mode1024:
; 106  : 			posX = -512;

  00134	be 00 fe ff ff	 mov	 esi, -512		; fffffe00H

; 107  : 			posY = 384;

  00139	bf 80 01 00 00	 mov	 edi, 384		; 00000180H

; 108  : 			break;

  0013e	eb 0a		 jmp	 SHORT $LN82@ReadBattle
$LN17@ReadBattle:

; 109  : 		case  ::mode800:
; 110  : 			posX = -416;

  00140	be 60 fe ff ff	 mov	 esi, -416		; fffffe60H

; 111  : 			posY = 272;

  00145	bf 10 01 00 00	 mov	 edi, 272		; 00000110H
$LN82@ReadBattle:

; 116  : 			break;
; 117  : 		}
; 118  : 		
; 119  : #else
; 120  : 		posX = 32 * (-9) + (DISPLACEMENT_X >> 1);
; 121  : 		posY = 24 * 10 + (DISPLACEMENT_Y >> 1);
; 122  : #endif
; 123  : #ifdef _NEWDRAWBATTLEMAP		   // Syu ADD BattleMap
; 124  : 		extern int nowFloor;
; 125  : 
; 126  : 		if (((nowFloor == 817) || (nowFloor == 8007) || (nowFloor == 8101) || (nowFloor == 8100) ||
; 127  : 			(nowFloor == 8027) || (nowFloor == 8028) || (nowFloor == 8029) || (nowFloor == 8015) ||
; 128  : 			(nowFloor == 151) || (nowFloor == 160) || (nowFloor == 161) || (nowFloor >= 30022 && nowFloor <= 30025) || nowFloor == 8113 || nowFloor == 8114
; 129  : #ifdef _8BATTLEMAP
; 130  : 			|| (nowFloor >= 78 && nowFloor <= 99) || nowFloor == 8107 || (nowFloor >= 8108 && nowFloor <= 8112) || (nowFloor >= 8116 && nowFloor <= 8120) || (nowFloor >= 8124 && nowFloor <= 8126) || nowFloor == 7500 || nowFloor == 7530 || nowFloor == 7600
; 131  : #endif
; 132  : 			)
; 133  : 			&& (RandBattleBg == 0))

  0014a	a1 00 00 00 00	 mov	 eax, DWORD PTR ?nowFloor@@3HA ; nowFloor
  0014f	bb 00 00 00 00	 mov	 ebx, 0
  00154	8b 0d 00 00 00
	00		 mov	 ecx, DWORD PTR ?RandBattleBg@@3HA ; RandBattleBg
  0015a	89 b5 6c f6 ff
	ff		 mov	 DWORD PTR _posX$1$[ebp], esi
  00160	89 bd 68 f6 ff
	ff		 mov	 DWORD PTR _posY$1$[ebp], edi
  00166	3d 31 03 00 00	 cmp	 eax, 817		; 00000331H
  0016b	0f 84 d2 00 00
	00		 je	 $LN21@ReadBattle
  00171	3d 47 1f 00 00	 cmp	 eax, 8007		; 00001f47H
  00176	0f 84 c7 00 00
	00		 je	 $LN21@ReadBattle
  0017c	3d a5 1f 00 00	 cmp	 eax, 8101		; 00001fa5H
  00181	0f 84 bc 00 00
	00		 je	 $LN21@ReadBattle
  00187	3d a4 1f 00 00	 cmp	 eax, 8100		; 00001fa4H
  0018c	0f 84 b1 00 00
	00		 je	 $LN21@ReadBattle
  00192	3d 5b 1f 00 00	 cmp	 eax, 8027		; 00001f5bH
  00197	0f 84 a6 00 00
	00		 je	 $LN21@ReadBattle
  0019d	3d 5c 1f 00 00	 cmp	 eax, 8028		; 00001f5cH
  001a2	0f 84 9b 00 00
	00		 je	 $LN21@ReadBattle
  001a8	3d 5d 1f 00 00	 cmp	 eax, 8029		; 00001f5dH
  001ad	0f 84 90 00 00
	00		 je	 $LN21@ReadBattle
  001b3	3d 4f 1f 00 00	 cmp	 eax, 8015		; 00001f4fH
  001b8	0f 84 85 00 00
	00		 je	 $LN21@ReadBattle
  001be	3d 97 00 00 00	 cmp	 eax, 151		; 00000097H
  001c3	74 7e		 je	 SHORT $LN21@ReadBattle
  001c5	3d a0 00 00 00	 cmp	 eax, 160		; 000000a0H
  001ca	74 77		 je	 SHORT $LN21@ReadBattle
  001cc	3d a1 00 00 00	 cmp	 eax, 161		; 000000a1H
  001d1	74 70		 je	 SHORT $LN21@ReadBattle
  001d3	3d 46 75 00 00	 cmp	 eax, 30022		; 00007546H
  001d8	7c 07		 jl	 SHORT $LN22@ReadBattle
  001da	3d 49 75 00 00	 cmp	 eax, 30025		; 00007549H
  001df	7e 62		 jle	 SHORT $LN21@ReadBattle
$LN22@ReadBattle:
  001e1	3d b1 1f 00 00	 cmp	 eax, 8113		; 00001fb1H
  001e6	74 5b		 je	 SHORT $LN21@ReadBattle
  001e8	3d b2 1f 00 00	 cmp	 eax, 8114		; 00001fb2H
  001ed	74 54		 je	 SHORT $LN21@ReadBattle
  001ef	83 f8 4e	 cmp	 eax, 78			; 0000004eH
  001f2	7c 05		 jl	 SHORT $LN23@ReadBattle
  001f4	83 f8 63	 cmp	 eax, 99			; 00000063H
  001f7	7e 4a		 jle	 SHORT $LN21@ReadBattle
$LN23@ReadBattle:
  001f9	3d ab 1f 00 00	 cmp	 eax, 8107		; 00001fabH
  001fe	74 43		 je	 SHORT $LN21@ReadBattle
  00200	3d ac 1f 00 00	 cmp	 eax, 8108		; 00001facH
  00205	7c 07		 jl	 SHORT $LN24@ReadBattle
  00207	3d b0 1f 00 00	 cmp	 eax, 8112		; 00001fb0H
  0020c	7e 35		 jle	 SHORT $LN21@ReadBattle
$LN24@ReadBattle:
  0020e	3d b4 1f 00 00	 cmp	 eax, 8116		; 00001fb4H
  00213	7c 07		 jl	 SHORT $LN25@ReadBattle
  00215	3d b8 1f 00 00	 cmp	 eax, 8120		; 00001fb8H
  0021a	7e 27		 jle	 SHORT $LN21@ReadBattle
$LN25@ReadBattle:
  0021c	3d bc 1f 00 00	 cmp	 eax, 8124		; 00001fbcH
  00221	7c 07		 jl	 SHORT $LN26@ReadBattle
  00223	3d be 1f 00 00	 cmp	 eax, 8126		; 00001fbeH
  00228	7e 19		 jle	 SHORT $LN21@ReadBattle
$LN26@ReadBattle:
  0022a	3d 4c 1d 00 00	 cmp	 eax, 7500		; 00001d4cH
  0022f	74 12		 je	 SHORT $LN21@ReadBattle
  00231	3d 6a 1d 00 00	 cmp	 eax, 7530		; 00001d6aH
  00236	74 0b		 je	 SHORT $LN21@ReadBattle
  00238	3d b0 1d 00 00	 cmp	 eax, 7600		; 00001db0H
  0023d	0f 85 49 02 00
	00		 jne	 $LN19@ReadBattle
$LN21@ReadBattle:
  00243	85 c9		 test	 ecx, ecx
  00245	0f 85 41 02 00
	00		 jne	 $LN19@ReadBattle

; 134  : 		{
; 135  : 			RandBattleBg = RAND(0, 4);

  0024b	e8 00 00 00 00	 call	 _rand
  00250	66 0f 6e c0	 movd	 xmm0, eax
  00254	f3 0f e6 c0	 cvtdq2pd xmm0, xmm0
  00258	f2 0f 59 05 00
	00 00 00	 mulsd	 xmm0, QWORD PTR __real@4014000000000000
  00260	f2 0f 59 05 00
	00 00 00	 mulsd	 xmm0, QWORD PTR __real@3f00000000000000
  00268	f2 0f 2c c0	 cvttsd2si eax, xmm0
  0026c	85 c0		 test	 eax, eax

; 136  : 			if (RandBattleBg == 0) RandBattleBg = 29001;

  0026e	75 0c		 jne	 SHORT $LN27@ReadBattle
  00270	c7 05 00 00 00
	00 49 71 00 00	 mov	 DWORD PTR ?RandBattleBg@@3HA, 29001 ; RandBattleBg, 00007149H
  0027a	eb 43		 jmp	 SHORT $LN35@ReadBattle
$LN27@ReadBattle:

; 137  : 			else if (RandBattleBg == 1) RandBattleBg = 29020;

  0027c	83 f8 01	 cmp	 eax, 1
  0027f	75 0c		 jne	 SHORT $LN29@ReadBattle
  00281	c7 05 00 00 00
	00 5c 71 00 00	 mov	 DWORD PTR ?RandBattleBg@@3HA, 29020 ; RandBattleBg, 0000715cH
  0028b	eb 32		 jmp	 SHORT $LN35@ReadBattle
$LN29@ReadBattle:

; 138  : 			else if (RandBattleBg == 2) RandBattleBg = 29019;

  0028d	83 f8 02	 cmp	 eax, 2
  00290	75 0c		 jne	 SHORT $LN31@ReadBattle
  00292	c7 05 00 00 00
	00 5b 71 00 00	 mov	 DWORD PTR ?RandBattleBg@@3HA, 29019 ; RandBattleBg, 0000715bH
  0029c	eb 21		 jmp	 SHORT $LN35@ReadBattle
$LN31@ReadBattle:

; 139  : 			else if (RandBattleBg == 3) RandBattleBg = 29024;

  0029e	83 f8 03	 cmp	 eax, 3
  002a1	75 0c		 jne	 SHORT $LN33@ReadBattle
  002a3	c7 05 00 00 00
	00 60 71 00 00	 mov	 DWORD PTR ?RandBattleBg@@3HA, 29024 ; RandBattleBg, 00007160H
  002ad	eb 10		 jmp	 SHORT $LN35@ReadBattle
$LN33@ReadBattle:

; 140  : 			else if (RandBattleBg == 4) RandBattleBg = 29025;

  002af	83 f8 04	 cmp	 eax, 4
  002b2	b9 61 71 00 00	 mov	 ecx, 29025		; 00007161H
  002b7	0f 44 c1	 cmove	 eax, ecx
  002ba	a3 00 00 00 00	 mov	 DWORD PTR ?RandBattleBg@@3HA, eax ; RandBattleBg
$LN35@ReadBattle:

; 141  : 
; 142  : 			RandBattleBg = RAND(29047, 29049);

  002bf	e8 00 00 00 00	 call	 _rand
  002c4	b9 77 71 00 00	 mov	 ecx, 29047		; 00007177H
  002c9	66 0f 6e c0	 movd	 xmm0, eax
  002cd	f3 0f e6 c0	 cvtdq2pd xmm0, xmm0
  002d1	f2 0f 59 05 00
	00 00 00	 mulsd	 xmm0, QWORD PTR __real@c008000000000000
  002d9	f2 0f 59 05 00
	00 00 00	 mulsd	 xmm0, QWORD PTR __real@3f00000000000000
  002e1	f2 0f 2c c0	 cvttsd2si eax, xmm0
  002e5	2b c8		 sub	 ecx, eax

; 143  : 			// 
; 144  : 			if (nowFloor == 30022) RandBattleBg = iCrystalBattleMap[0][RAND(0, 2)];

  002e7	a1 00 00 00 00	 mov	 eax, DWORD PTR ?nowFloor@@3HA ; nowFloor
  002ec	89 0d 00 00 00
	00		 mov	 DWORD PTR ?RandBattleBg@@3HA, ecx ; RandBattleBg
  002f2	3d 46 75 00 00	 cmp	 eax, 30022		; 00007546H
  002f7	75 32		 jne	 SHORT $LN36@ReadBattle
  002f9	e8 00 00 00 00	 call	 _rand
  002fe	66 0f 6e c0	 movd	 xmm0, eax
  00302	b8 00 00 00 00	 mov	 eax, OFFSET ?iCrystalBattleMap@@3PAY02HA
  00307	f3 0f e6 c0	 cvtdq2pd xmm0, xmm0
  0030b	f2 0f 59 05 00
	00 00 00	 mulsd	 xmm0, QWORD PTR __real@c008000000000000
  00313	f2 0f 59 05 00
	00 00 00	 mulsd	 xmm0, QWORD PTR __real@3f00000000000000
  0031b	f2 0f 2c c8	 cvttsd2si ecx, xmm0
  0031f	c1 e1 02	 shl	 ecx, 2
  00322	2b c1		 sub	 eax, ecx
  00324	8b 08		 mov	 ecx, DWORD PTR [eax]
  00326	e9 3f 01 00 00	 jmp	 $LN83@ReadBattle
$LN36@ReadBattle:

; 145  : 			else if (nowFloor == 30023) RandBattleBg = iCrystalBattleMap[1][RAND(0, 2)];

  0032b	3d 47 75 00 00	 cmp	 eax, 30023		; 00007547H
  00330	75 32		 jne	 SHORT $LN38@ReadBattle
  00332	e8 00 00 00 00	 call	 _rand
  00337	66 0f 6e c0	 movd	 xmm0, eax
  0033b	b8 0c 00 00 00	 mov	 eax, OFFSET ?iCrystalBattleMap@@3PAY02HA+12
  00340	f3 0f e6 c0	 cvtdq2pd xmm0, xmm0
  00344	f2 0f 59 05 00
	00 00 00	 mulsd	 xmm0, QWORD PTR __real@c008000000000000
  0034c	f2 0f 59 05 00
	00 00 00	 mulsd	 xmm0, QWORD PTR __real@3f00000000000000
  00354	f2 0f 2c c8	 cvttsd2si ecx, xmm0
  00358	c1 e1 02	 shl	 ecx, 2
  0035b	2b c1		 sub	 eax, ecx
  0035d	8b 08		 mov	 ecx, DWORD PTR [eax]
  0035f	e9 06 01 00 00	 jmp	 $LN83@ReadBattle
$LN38@ReadBattle:

; 146  : 			else if (nowFloor == 30024) RandBattleBg = iCrystalBattleMap[2][RAND(0, 2)];

  00364	3d 48 75 00 00	 cmp	 eax, 30024		; 00007548H
  00369	75 32		 jne	 SHORT $LN40@ReadBattle
  0036b	e8 00 00 00 00	 call	 _rand
  00370	66 0f 6e c0	 movd	 xmm0, eax
  00374	b8 18 00 00 00	 mov	 eax, OFFSET ?iCrystalBattleMap@@3PAY02HA+24
  00379	f3 0f e6 c0	 cvtdq2pd xmm0, xmm0
  0037d	f2 0f 59 05 00
	00 00 00	 mulsd	 xmm0, QWORD PTR __real@c008000000000000
  00385	f2 0f 59 05 00
	00 00 00	 mulsd	 xmm0, QWORD PTR __real@3f00000000000000
  0038d	f2 0f 2c c8	 cvttsd2si ecx, xmm0
  00391	c1 e1 02	 shl	 ecx, 2
  00394	2b c1		 sub	 eax, ecx
  00396	8b 08		 mov	 ecx, DWORD PTR [eax]
  00398	e9 cd 00 00 00	 jmp	 $LN83@ReadBattle
$LN40@ReadBattle:

; 147  : 			else if (nowFloor == 30025) RandBattleBg = iCrystalBattleMap[3][RAND(0, 2)];

  0039d	3d 49 75 00 00	 cmp	 eax, 30025		; 00007549H
  003a2	75 32		 jne	 SHORT $LN42@ReadBattle
  003a4	e8 00 00 00 00	 call	 _rand
  003a9	66 0f 6e c0	 movd	 xmm0, eax
  003ad	b8 24 00 00 00	 mov	 eax, OFFSET ?iCrystalBattleMap@@3PAY02HA+36
  003b2	f3 0f e6 c0	 cvtdq2pd xmm0, xmm0
  003b6	f2 0f 59 05 00
	00 00 00	 mulsd	 xmm0, QWORD PTR __real@c008000000000000
  003be	f2 0f 59 05 00
	00 00 00	 mulsd	 xmm0, QWORD PTR __real@3f00000000000000
  003c6	f2 0f 2c c8	 cvttsd2si ecx, xmm0
  003ca	c1 e1 02	 shl	 ecx, 2
  003cd	2b c1		 sub	 eax, ecx
  003cf	8b 08		 mov	 ecx, DWORD PTR [eax]
  003d1	e9 94 00 00 00	 jmp	 $LN83@ReadBattle
$LN42@ReadBattle:

; 148  : #ifdef _8BATTLEMAP
; 149  : 			else if ((nowFloor >= 78 && nowFloor <= 99) || nowFloor == 8107) RandBattleBg = 29074 + RAND(0, 2);

  003d6	83 f8 4e	 cmp	 eax, 78			; 0000004eH
  003d9	7c 05		 jl	 SHORT $LN47@ReadBattle
  003db	83 f8 63	 cmp	 eax, 99			; 00000063H
  003de	7e 07		 jle	 SHORT $LN46@ReadBattle
$LN47@ReadBattle:
  003e0	3d ab 1f 00 00	 cmp	 eax, 8107		; 00001fabH
  003e5	75 1c		 jne	 SHORT $LN44@ReadBattle
$LN46@ReadBattle:
  003e7	e8 00 00 00 00	 call	 _rand
  003ec	b9 92 71 00 00	 mov	 ecx, 29074		; 00007192H
  003f1	66 0f 6e c0	 movd	 xmm0, eax
  003f5	f3 0f e6 c0	 cvtdq2pd xmm0, xmm0
  003f9	f2 0f 59 05 00
	00 00 00	 mulsd	 xmm0, QWORD PTR __real@c008000000000000
  00401	eb 59		 jmp	 SHORT $LN84@ReadBattle
$LN44@ReadBattle:

; 150  : 			else if ((nowFloor >= 8108 && nowFloor <= 8112) || (nowFloor >= 8116 && nowFloor <= 8120) || (nowFloor >= 8124 && nowFloor <= 8126) || nowFloor == 7500 || nowFloor == 7530 || nowFloor == 7600) RandBattleBg = 29070 + RAND(0, 3);

  00403	3d ac 1f 00 00	 cmp	 eax, 8108		; 00001facH
  00408	7c 07		 jl	 SHORT $LN50@ReadBattle
  0040a	3d b0 1f 00 00	 cmp	 eax, 8112		; 00001fb0H
  0040f	7e 31		 jle	 SHORT $LN49@ReadBattle
$LN50@ReadBattle:
  00411	3d b4 1f 00 00	 cmp	 eax, 8116		; 00001fb4H
  00416	7c 07		 jl	 SHORT $LN51@ReadBattle
  00418	3d b8 1f 00 00	 cmp	 eax, 8120		; 00001fb8H
  0041d	7e 23		 jle	 SHORT $LN49@ReadBattle
$LN51@ReadBattle:
  0041f	3d bc 1f 00 00	 cmp	 eax, 8124		; 00001fbcH
  00424	7c 07		 jl	 SHORT $LN52@ReadBattle
  00426	3d be 1f 00 00	 cmp	 eax, 8126		; 00001fbeH
  0042b	7e 15		 jle	 SHORT $LN49@ReadBattle
$LN52@ReadBattle:
  0042d	3d 4c 1d 00 00	 cmp	 eax, 7500		; 00001d4cH
  00432	74 0e		 je	 SHORT $LN49@ReadBattle
  00434	3d 6a 1d 00 00	 cmp	 eax, 7530		; 00001d6aH
  00439	74 07		 je	 SHORT $LN49@ReadBattle
  0043b	3d b0 1d 00 00	 cmp	 eax, 7600		; 00001db0H
  00440	75 2e		 jne	 SHORT $LN48@ReadBattle
$LN49@ReadBattle:
  00442	e8 00 00 00 00	 call	 _rand
  00447	b9 8e 71 00 00	 mov	 ecx, 29070		; 0000718eH
  0044c	66 0f 6e c0	 movd	 xmm0, eax
  00450	f3 0f e6 c0	 cvtdq2pd xmm0, xmm0
  00454	f2 0f 59 05 00
	00 00 00	 mulsd	 xmm0, QWORD PTR __real@c010000000000000
$LN84@ReadBattle:

; 151  : #endif
; 152  : 			StockDispBuffer(320, 240, DISP_PRIO_TILE, RandBattleBg, 0);

  0045c	f2 0f 59 05 00
	00 00 00	 mulsd	 xmm0, QWORD PTR __real@3f00000000000000
  00464	f2 0f 2c c0	 cvttsd2si eax, xmm0
  00468	2b c8		 sub	 ecx, eax
$LN83@ReadBattle:
  0046a	89 0d 00 00 00
	00		 mov	 DWORD PTR ?RandBattleBg@@3HA, ecx ; RandBattleBg
$LN48@ReadBattle:

; 201  : 				}
; 202  : 
; 203  : 			//CC ADD Client Lua Support +1
; 204  : 			}
; 205  : 		}
; 206  : #endif
; 207  : 
; 208  : 		//	extern void ddrawBattleMap();
; 209  : 		//	ddrawBattleMap();
; 210  : 
; 211  : #else
; 212  : 		// ??????
; 213  : 
; 214  : 		for (i = 0; i < 20; i++) {
; 215  : 			x = 0;
; 216  : 			y = 0;
; 217  : 			for (j = 0; j < 20; j++) {
; 218  : 				// ???????????
; 219  : 				StockDispBuffer(posX + x, posY + y, DISP_PRIO_TILE, tile[cnt++], 0);
; 220  : 				x += 32;
; 221  : 				y -= 24;
; 222  : 			}
; 223  : 			posX += 32;
; 224  : 			posY += 24;
; 225  : 		}
; 226  : #endif
; 227  : 		//#endif
; 228  : #ifndef _NB_
; 229  : 	}
; 230  : #endif
; 231  : 	return TRUE;

  00470	6a 00		 push	 0
  00472	51		 push	 ecx
  00473	6a 01		 push	 1
  00475	68 f0 00 00 00	 push	 240			; 000000f0H
  0047a	68 40 01 00 00	 push	 320			; 00000140H
  0047f	e8 00 00 00 00	 call	 ?StockDispBuffer@@YAHHHEHH@Z ; StockDispBuffer
  00484	83 c4 14	 add	 esp, 20			; 00000014H
  00487	e9 a2 01 00 00	 jmp	 $LN8@ReadBattle
$LN19@ReadBattle:

; 153  : 		}
; 154  : 		else if (((nowFloor == 817) || (nowFloor == 8007) || (nowFloor == 8101) || (nowFloor == 8100)
; 155  : 			|| (nowFloor == 8027) || (nowFloor == 8028) || (nowFloor == 8029) || (nowFloor == 8015) || (nowFloor == 151)
; 156  : 			|| (nowFloor == 160) || (nowFloor == 161) || (nowFloor >= 30022 && nowFloor <= 30025) || nowFloor == 8113 || nowFloor == 8114
; 157  : #ifdef _8BATTLEMAP
; 158  : 			|| (nowFloor >= 78 && nowFloor <= 99) || nowFloor == 8107 || (nowFloor >= 8108 && nowFloor <= 8112) || (nowFloor >= 8116 && nowFloor <= 8120) || (nowFloor >= 8124 && nowFloor <= 8126) || nowFloor == 7500 || nowFloor == 7530 || nowFloor == 7600
; 159  : #endif
; 160  : 			)
; 161  : 			&& (RandBattleBg != 0))

  0048c	3d 31 03 00 00	 cmp	 eax, 817		; 00000331H
  00491	0f 84 ce 00 00
	00		 je	 $LN55@ReadBattle
  00497	3d 47 1f 00 00	 cmp	 eax, 8007		; 00001f47H
  0049c	0f 84 c3 00 00
	00		 je	 $LN55@ReadBattle
  004a2	3d a5 1f 00 00	 cmp	 eax, 8101		; 00001fa5H
  004a7	0f 84 b8 00 00
	00		 je	 $LN55@ReadBattle
  004ad	3d a4 1f 00 00	 cmp	 eax, 8100		; 00001fa4H
  004b2	0f 84 ad 00 00
	00		 je	 $LN55@ReadBattle
  004b8	3d 5b 1f 00 00	 cmp	 eax, 8027		; 00001f5bH
  004bd	0f 84 a2 00 00
	00		 je	 $LN55@ReadBattle
  004c3	3d 5c 1f 00 00	 cmp	 eax, 8028		; 00001f5cH
  004c8	0f 84 97 00 00
	00		 je	 $LN55@ReadBattle
  004ce	3d 5d 1f 00 00	 cmp	 eax, 8029		; 00001f5dH
  004d3	0f 84 8c 00 00
	00		 je	 $LN55@ReadBattle
  004d9	3d 4f 1f 00 00	 cmp	 eax, 8015		; 00001f4fH
  004de	0f 84 81 00 00
	00		 je	 $LN55@ReadBattle
  004e4	3d 97 00 00 00	 cmp	 eax, 151		; 00000097H
  004e9	74 7a		 je	 SHORT $LN55@ReadBattle
  004eb	3d a0 00 00 00	 cmp	 eax, 160		; 000000a0H
  004f0	74 73		 je	 SHORT $LN55@ReadBattle
  004f2	3d a1 00 00 00	 cmp	 eax, 161		; 000000a1H
  004f7	74 6c		 je	 SHORT $LN55@ReadBattle
  004f9	3d 46 75 00 00	 cmp	 eax, 30022		; 00007546H
  004fe	7c 07		 jl	 SHORT $LN56@ReadBattle
  00500	3d 49 75 00 00	 cmp	 eax, 30025		; 00007549H
  00505	7e 5e		 jle	 SHORT $LN55@ReadBattle
$LN56@ReadBattle:
  00507	3d b1 1f 00 00	 cmp	 eax, 8113		; 00001fb1H
  0050c	74 57		 je	 SHORT $LN55@ReadBattle
  0050e	3d b2 1f 00 00	 cmp	 eax, 8114		; 00001fb2H
  00513	74 50		 je	 SHORT $LN55@ReadBattle
  00515	83 f8 4e	 cmp	 eax, 78			; 0000004eH
  00518	7c 05		 jl	 SHORT $LN57@ReadBattle
  0051a	83 f8 63	 cmp	 eax, 99			; 00000063H
  0051d	7e 46		 jle	 SHORT $LN55@ReadBattle
$LN57@ReadBattle:
  0051f	3d ab 1f 00 00	 cmp	 eax, 8107		; 00001fabH
  00524	74 3f		 je	 SHORT $LN55@ReadBattle
  00526	3d ac 1f 00 00	 cmp	 eax, 8108		; 00001facH
  0052b	7c 07		 jl	 SHORT $LN58@ReadBattle
  0052d	3d b0 1f 00 00	 cmp	 eax, 8112		; 00001fb0H
  00532	7e 31		 jle	 SHORT $LN55@ReadBattle
$LN58@ReadBattle:
  00534	3d b4 1f 00 00	 cmp	 eax, 8116		; 00001fb4H
  00539	7c 07		 jl	 SHORT $LN59@ReadBattle
  0053b	3d b8 1f 00 00	 cmp	 eax, 8120		; 00001fb8H
  00540	7e 23		 jle	 SHORT $LN55@ReadBattle
$LN59@ReadBattle:
  00542	3d bc 1f 00 00	 cmp	 eax, 8124		; 00001fbcH
  00547	7c 07		 jl	 SHORT $LN60@ReadBattle
  00549	3d be 1f 00 00	 cmp	 eax, 8126		; 00001fbeH
  0054e	7e 15		 jle	 SHORT $LN55@ReadBattle
$LN60@ReadBattle:
  00550	3d 4c 1d 00 00	 cmp	 eax, 7500		; 00001d4cH
  00555	74 0e		 je	 SHORT $LN55@ReadBattle
  00557	3d 6a 1d 00 00	 cmp	 eax, 7530		; 00001d6aH
  0055c	74 07		 je	 SHORT $LN55@ReadBattle
  0055e	3d b0 1d 00 00	 cmp	 eax, 7600		; 00001db0H
  00563	75 08		 jne	 SHORT $LN53@ReadBattle
$LN55@ReadBattle:
  00565	85 c9		 test	 ecx, ecx
  00567	0f 85 03 ff ff
	ff		 jne	 $LN48@ReadBattle
$LN53@ReadBattle:

; 162  : 			StockDispBuffer(320, 240, DISP_PRIO_TILE, RandBattleBg, 0);
; 163  : #ifdef _SYUTEST2
; 164  : 		else {
; 165  : 			RandBattleBg = 29050;
; 166  : 			StockDispBuffer(320, 240, DISP_PRIO_TILE, RandBattleBg, 0);
; 167  : 		}
; 168  : #else
; 169  : 		else if (nowFloor == 8519) {

  0056d	3d 47 21 00 00	 cmp	 eax, 8519		; 00002147H
  00572	75 2a		 jne	 SHORT $LN61@ReadBattle

; 170  : 			RandBattleBg = 29069;
; 171  : 			StockDispBuffer(320, 240, DISP_PRIO_TILE, RandBattleBg, 0);

  00574	6a 00		 push	 0
  00576	68 8d 71 00 00	 push	 29069			; 0000718dH
  0057b	6a 01		 push	 1
  0057d	68 f0 00 00 00	 push	 240			; 000000f0H
  00582	68 40 01 00 00	 push	 320			; 00000140H
  00587	c7 05 00 00 00
	00 8d 71 00 00	 mov	 DWORD PTR ?RandBattleBg@@3HA, 29069 ; RandBattleBg, 0000718dH
  00591	e8 00 00 00 00	 call	 ?StockDispBuffer@@YAHHHEHH@Z ; StockDispBuffer
  00596	83 c4 14	 add	 esp, 20			; 00000014H

; 172  : 		}

  00599	e9 90 00 00 00	 jmp	 $LN8@ReadBattle
$LN61@ReadBattle:

; 173  : 		else
; 174  : 		{
; 175  : 
; 176  : 			//CC ADD Client Lua Support +4
; 177  : 			if ((RandBattleBg = FreeGetBattleMap(nowFloor))) {

  0059e	50		 push	 eax
  0059f	e8 00 00 00 00	 call	 ?FreeGetBattleMap@@YAHH@Z ; FreeGetBattleMap
  005a4	83 c4 04	 add	 esp, 4
  005a7	a3 00 00 00 00	 mov	 DWORD PTR ?RandBattleBg@@3HA, eax ; RandBattleBg
  005ac	85 c0		 test	 eax, eax
  005ae	74 19		 je	 SHORT $LN63@ReadBattle

; 178  : 				StockDispBuffer(400, 300, DISP_PRIO_TILE, RandBattleBg, 0);

  005b0	6a 00		 push	 0
  005b2	50		 push	 eax
  005b3	6a 01		 push	 1
  005b5	68 2c 01 00 00	 push	 300			; 0000012cH
  005ba	68 90 01 00 00	 push	 400			; 00000190H
  005bf	e8 00 00 00 00	 call	 ?StockDispBuffer@@YAHHHEHH@Z ; StockDispBuffer
  005c4	83 c4 14	 add	 esp, 20			; 00000014H

; 179  : 			}

  005c7	eb 65		 jmp	 SHORT $LN8@ReadBattle
$LN63@ReadBattle:

; 180  : 			else {
; 181  : #ifdef _NB_
; 182  : 				for (i = 0; i < 33; i++)

  005c9	c7 85 64 f6 ff
	ff 21 00 00 00	 mov	 DWORD PTR tv985[ebp], 33 ; 00000021H
$LL9@ReadBattle:

; 183  : #else
; 184  : 				for (i = 0; i < 20; i++)
; 185  : #endif
; 186  : 				{
; 187  : 					x = 0;

  005d3	c7 85 60 f6 ff
	ff 21 00 00 00	 mov	 DWORD PTR tv986[ebp], 33 ; 00000021H
  005dd	0f 1f 00	 npad	 3
$LL12@ReadBattle:

; 188  : 					y = 0;
; 189  : #ifdef _NB_
; 190  : 					for (j = 0; j < 33; j++)
; 191  : #else
; 192  : 					for (j = 0; j < 20; j++)
; 193  : #endif
; 194  : 					{
; 195  : 						StockDispBuffer(posX + x, posY + y, DISP_PRIO_TILE, tile[cnt++], 0);

  005e0	0f b7 84 5d 70
	f6 ff ff	 movzx	 eax, WORD PTR _tile$[ebp+ebx*2]
  005e8	6a 00		 push	 0
  005ea	50		 push	 eax
  005eb	6a 01		 push	 1
  005ed	57		 push	 edi
  005ee	56		 push	 esi
  005ef	e8 00 00 00 00	 call	 ?StockDispBuffer@@YAHHHEHH@Z ; StockDispBuffer
  005f4	83 c4 14	 add	 esp, 20			; 00000014H
  005f7	43		 inc	 ebx

; 196  : 						x += 32;

  005f8	83 c6 20	 add	 esi, 32			; 00000020H

; 197  : 						y -= 24;

  005fb	83 ef 18	 sub	 edi, 24			; 00000018H
  005fe	83 ad 60 f6 ff
	ff 01		 sub	 DWORD PTR tv986[ebp], 1
  00605	75 d9		 jne	 SHORT $LL12@ReadBattle

; 198  : 					}
; 199  : 					posX += 32;

  00607	8b b5 6c f6 ff
	ff		 mov	 esi, DWORD PTR _posX$1$[ebp]

; 200  : 					posY += 24;

  0060d	8b bd 68 f6 ff
	ff		 mov	 edi, DWORD PTR _posY$1$[ebp]
  00613	83 c6 20	 add	 esi, 32			; 00000020H
  00616	83 c7 18	 add	 edi, 24			; 00000018H
  00619	89 b5 6c f6 ff
	ff		 mov	 DWORD PTR _posX$1$[ebp], esi
  0061f	83 ad 64 f6 ff
	ff 01		 sub	 DWORD PTR tv985[ebp], 1
  00626	89 bd 68 f6 ff
	ff		 mov	 DWORD PTR _posY$1$[ebp], edi
  0062c	75 a5		 jne	 SHORT $LL9@ReadBattle
$LN8@ReadBattle:

; 232  : 
; 233  : }	

  0062e	8b 4d fc	 mov	 ecx, DWORD PTR __$ArrayPad$[ebp]
  00631	b8 01 00 00 00	 mov	 eax, 1
  00636	5f		 pop	 edi
  00637	5e		 pop	 esi
  00638	33 cd		 xor	 ecx, ebp
  0063a	5b		 pop	 ebx
  0063b	e8 00 00 00 00	 call	 @__security_check_cookie@4
  00640	8b e5		 mov	 esp, ebp
  00642	5d		 pop	 ebp
  00643	c3		 ret	 0
?ReadBattleMap@@YAHH@Z ENDP				; ReadBattleMap
_TEXT	ENDS
; Function compile flags: /Ogtp
; File C:\Program Files (x86)\Windows Kits\10\Include\10.0.19041.0\ucrt\stdio.h
;	COMDAT _sprintf
_TEXT	SEGMENT
__Buffer$ = 8						; size = 4
__Format$ = 12						; size = 4
_sprintf PROC						; COMDAT

; 1771 :     {

  00000	55		 push	 ebp
  00001	8b ec		 mov	 ebp, esp

; 1392 :         int const _Result = __stdio_common_vsprintf(

  00003	8d 45 10	 lea	 eax, DWORD PTR __Format$[ebp+4]
  00006	50		 push	 eax
  00007	6a 00		 push	 0
  00009	ff 75 0c	 push	 DWORD PTR __Format$[ebp]
  0000c	6a ff		 push	 -1
  0000e	ff 75 08	 push	 DWORD PTR __Buffer$[ebp]
  00011	e8 00 00 00 00	 call	 ___local_stdio_printf_options
  00016	8b 08		 mov	 ecx, DWORD PTR [eax]
  00018	ff 70 04	 push	 DWORD PTR [eax+4]
  0001b	83 c9 01	 or	 ecx, 1
  0001e	51		 push	 ecx
  0001f	e8 00 00 00 00	 call	 ___stdio_common_vsprintf

; 1393 :             _CRT_INTERNAL_LOCAL_PRINTF_OPTIONS | _CRT_INTERNAL_PRINTF_LEGACY_VSPRINTF_NULL_TERMINATION,
; 1394 :             _Buffer, _BufferCount, _Format, _Locale, _ArgList);
; 1395 : 
; 1396 :         return _Result < 0 ? -1 : _Result;

  00024	83 c9 ff	 or	 ecx, -1
  00027	83 c4 1c	 add	 esp, 28			; 0000001cH
  0002a	85 c0		 test	 eax, eax
  0002c	0f 48 c1	 cmovs	 eax, ecx

; 1772 :         int _Result;
; 1773 :         va_list _ArgList;
; 1774 :         __crt_va_start(_ArgList, _Format);
; 1775 : 
; 1776 :         _Result = _vsprintf_l(_Buffer, _Format, NULL, _ArgList);
; 1777 : 
; 1778 :         __crt_va_end(_ArgList);
; 1779 :         return _Result;
; 1780 :     }

  0002f	5d		 pop	 ebp
  00030	c3		 ret	 0
_sprintf ENDP
_TEXT	ENDS
; Function compile flags: /Ogtp
; File C:\Program Files (x86)\Windows Kits\10\Include\10.0.19041.0\ucrt\corecrt_stdio_config.h
;	COMDAT ___local_stdio_printf_options
_TEXT	SEGMENT
___local_stdio_printf_options PROC			; COMDAT

; 91   :         static unsigned __int64 _OptionsStorage;
; 92   :         return &_OptionsStorage;

  00000	b8 00 00 00 00	 mov	 eax, OFFSET ?_OptionsStorage@?1??__local_stdio_printf_options@@9@4_KA ; `__local_stdio_printf_options'::`2'::_OptionsStorage

; 93   :     }

  00005	c3		 ret	 0
___local_stdio_printf_options ENDP
_TEXT	ENDS
END
