; Listing generated by Microsoft (R) Optimizing Compiler Version 19.28.29336.0 

	TITLE	C:\Users\gg862\OneDrive\¹ÙÅÁ È­¸é\¸¾Äí¿Ï·á\Client Source Code1.31ÀÏº»\system\character.cpp
	.686P
	.XMM
	include listing.inc
	.model	flat

INCLUDELIB LIBCMT
INCLUDELIB OLDNAMES

PUBLIC	?charObj@@3PAUCHAROBJ@@A			; charObj
PUBLIC	?maxCharObj@@3HA				; maxCharObj
PUBLIC	?tailCharObj@@3HA				; tailCharObj
PUBLIC	?freeCharObj@@3HA				; freeCharObj
PUBLIC	?searchCharObj@@3HA				; searchCharObj
PUBLIC	?popflag@@3_NA					; popflag
PUBLIC	?waittimeflag@@3_NA				; waittimeflag
PUBLIC	?waittime@@3HA					; waittime
PUBLIC	?charIconOffsetY@@3PAHA				; charIconOffsetY
PUBLIC	?battleIconTbl@@3PAY01HA			; battleIconTbl
PUBLIC	?itemOverlapTbl@@3PAUITEM_OVERLAP_CHECK@@A	; itemOverlapTbl
PUBLIC	?itemOverlapCheckCnt@@3HA			; itemOverlapCheckCnt
PUBLIC	?nameOverTheHeadFlag@@3FA			; nameOverTheHeadFlag
_BSS	SEGMENT
?charObj@@3PAUCHAROBJ@@A DB 062250H DUP (?)		; charObj
?maxCharObj@@3HA DD 01H DUP (?)				; maxCharObj
?tailCharObj@@3HA DD 01H DUP (?)			; tailCharObj
?freeCharObj@@3HA DD 01H DUP (?)			; freeCharObj
?searchCharObj@@3HA DD 01H DUP (?)			; searchCharObj
?popflag@@3_NA DB 01H DUP (?)				; popflag
	ALIGN	4

?waittimeflag@@3_NA DB 01H DUP (?)			; waittimeflag
	ALIGN	4

?waittime@@3HA DD 01H DUP (?)				; waittime
?itemOverlapTbl@@3PAUITEM_OVERLAP_CHECK@@A DB 04b0H DUP (?) ; itemOverlapTbl
?itemOverlapCheckCnt@@3HA DD 01H DUP (?)		; itemOverlapCheckCnt
_BSS	ENDS
_DATA	SEGMENT
?charIconOffsetY@@3PAHA DD 0ffffffb9H			; charIconOffsetY
	DD	0ffffffa8H
	DD	0ffffffacH
	DD	0ffffffa8H
	DD	0ffffffa0H
	DD	0ffffff9aH
	DD	0ffffffa8H
	DD	0ffffffa8H
	DD	0ffffffa8H
	DD	0ffffffabH
	DD	0ffffffabH
	DD	0ffffffa8H
?battleIconTbl@@3PAY01HA DD 0640aH			; battleIconTbl
	DD	0640bH
	DD	0640cH
	DD	0640dH
	DD	0640eH
	DD	0640fH
	DD	06410H
	DD	06411H
	DD	06412H
	DD	06413H
	DD	06414H
	DD	06415H
	DD	06416H
	DD	06417H
	DD	06418H
	DD	06419H
	DD	0641aH
	DD	0641bH
	DD	0641cH
	DD	0641dH
?nameOverTheHeadFlag@@3FA DW 01H			; nameOverTheHeadFlag
_DATA	ENDS
PUBLIC	___local_stdio_printf_options
PUBLIC	_sprintf
PUBLIC	?setCharmManor@@YAXPAUaction@@H@Z		; setCharmManor
PUBLIC	?delCharmManor@@YAXPAUaction@@@Z		; delCharmManor
PUBLIC	?setCharmTitle@@YAXPAUaction@@H@Z		; setCharmTitle
PUBLIC	?delCharmTitle@@YAXPAUaction@@@Z		; delCharmTitle
PUBLIC	?setNpcNotice@@YAXPAUaction@@H@Z		; setNpcNotice
PUBLIC	?delNpcNotice@@YAXPAUaction@@@Z			; delNpcNotice
PUBLIC	?charMove@@YAXPAUaction@@@Z			; charMove
PUBLIC	?charMove2@@YAXPAUaction@@@Z			; charMove2
PUBLIC	?_charMove@@YAXPAUaction@@@Z			; _charMove
PUBLIC	?shiftBufCount@@YAXPAUaction@@@Z		; shiftBufCount
PUBLIC	?createCharAction@@YAPAUaction@@HHHH@Z		; createCharAction
PUBLIC	?createWaterAnimation@@YAPAUaction@@HHHH@Z	; createWaterAnimation
PUBLIC	?stockCharMovePoint@@YAXPAUaction@@HH@Z		; stockCharMovePoint
PUBLIC	?correctCharMovePoint@@YAXPAUaction@@HH@Z	; correctCharMovePoint
PUBLIC	?setCharMovePoint@@YAXPAUaction@@HH@Z		; setCharMovePoint
PUBLIC	?_setCharMovePoint@@YAXPAUaction@@HH@Z		; _setCharMovePoint
PUBLIC	?setCharWarpPoint@@YAXPAUaction@@HH@Z		; setCharWarpPoint
PUBLIC	?setCharStatus@@YAXPAGPAD@Z			; setCharStatus
PUBLIC	?createCommmonEffectAction@@YAPAUaction@@HHHHHH@Z ; createCommmonEffectAction
PUBLIC	?createCommmonEffectNoLoop@@YAPAUaction@@HHHHHH@Z ; createCommmonEffectNoLoop
PUBLIC	?drawCharStatus@@YAXPAUaction@@@Z		; drawCharStatus
PUBLIC	?changeCharAct@@YAXPAUaction@@HHHHHHH@Z		; changeCharAct
PUBLIC	?setCharLeader@@YAXPAUaction@@@Z		; setCharLeader
PUBLIC	?delCharLeader@@YAXPAUaction@@@Z		; delCharLeader
PUBLIC	?setCharParty@@YAXPAUaction@@@Z			; setCharParty
PUBLIC	?delCharParty@@YAXPAUaction@@@Z			; delCharParty
PUBLIC	?setCharWatch@@YAXPAUaction@@@Z			; setCharWatch
PUBLIC	?delCharWatch@@YAXPAUaction@@@Z			; delCharWatch
PUBLIC	?setCharBattle@@YAXPAUaction@@HFF@Z		; setCharBattle
PUBLIC	?delCharBattle@@YAXPAUaction@@@Z		; delCharBattle
PUBLIC	?setCharTrade@@YAXPAUaction@@H@Z		; setCharTrade
PUBLIC	?delCharTrade@@YAXPAUaction@@@Z			; delCharTrade
PUBLIC	?setCharUseMagic@@YAXPAUaction@@@Z		; setCharUseMagic
PUBLIC	?delCharUseMagic@@YAXPAUaction@@@Z		; delCharUseMagic
PUBLIC	?setCharAngel@@YAXPAUaction@@@Z			; setCharAngel
PUBLIC	?delCharAngel@@YAXPAUaction@@@Z			; delCharAngel
PUBLIC	?setCharMind@@YAXPAUaction@@H@Z			; setCharMind
PUBLIC	?delCharMind@@YAXPAUaction@@@Z			; delCharMind
PUBLIC	?setCharFukidashi@@YAXPAUaction@@I@Z		; setCharFukidashi
PUBLIC	?setCharNameColor@@YAXPAUaction@@H@Z		; setCharNameColor
PUBLIC	?checkCharObjPoint@@YAHHHF@Z			; checkCharObjPoint
PUBLIC	?checkCharObjPointStatus@@YAHHHFI@Z		; checkCharObjPointStatus
PUBLIC	?checkCharObjPointNotStatus@@YAHHHFI@Z		; checkCharObjPointNotStatus
PUBLIC	?setNpcCharObj@@YAXHHHHHPAD00H0HHHHHHHH@Z	; setNpcCharObj
PUBLIC	?setReturnPetObj@@YAHHHHHHPAD0HHHHH@Z		; setReturnPetObj
PUBLIC	?setItemCharObj@@YAXHHHHHHPAD@Z			; setItemCharObj
PUBLIC	?setMoneyCharObj@@YAXHHHHHHPAD@Z		; setMoneyCharObj
PUBLIC	?getAtrCharType@@YAHH@Z				; getAtrCharType
PUBLIC	?getAtrCharObjType@@YAHH@Z			; getAtrCharObjType
PUBLIC	?delCharObj@@YAXH@Z				; delCharObj
PUBLIC	?initCharObj@@YAXXZ				; initCharObj
PUBLIC	?resetCharObj@@YAXXZ				; resetCharObj
PUBLIC	?clearPtActCharObj@@YAXXZ			; clearPtActCharObj
PUBLIC	?restorePtActCharObjAll@@YAXXZ			; restorePtActCharObjAll
PUBLIC	?restorePtActCharObj@@YAXH@Z			; restorePtActCharObj
PUBLIC	?setMovePointCharObj@@YAXHHH@Z			; setMovePointCharObj
PUBLIC	?getCharObjAct@@YAPAUaction@@H@Z		; getCharObjAct
PUBLIC	?getCharObjBuf@@YAHXZ				; getCharObjBuf
PUBLIC	?initItemOverlapCheck@@YAXXZ			; initItemOverlapCheck
PUBLIC	?itemOverlapCheck@@YAHIHH@Z			; itemOverlapCheck
PUBLIC	?createPetAction@@YAPAUaction@@HHHHHHH@Z	; createPetAction
PUBLIC	?ajustClientDir@@YAXPAF@Z			; ajustClientDir
PUBLIC	?charProc@@YAXPAUaction@@@Z			; charProc
PUBLIC	?waterAniProc@@YAXPAUaction@@@Z			; waterAniProc
PUBLIC	?CharbubbleRelease@@YAXXZ			; CharbubbleRelease
PUBLIC	?commmonEffectNoLoop@@YAXPAUaction@@@Z		; commmonEffectNoLoop
PUBLIC	?searchCharObjId@@YAHH@Z			; searchCharObjId
PUBLIC	?limitCantClientDir@@YAXPAF@Z			; limitCantClientDir
PUBLIC	?getPetRoute@@YAXPAUaction@@@Z			; getPetRoute
PUBLIC	?petMoveProc@@YAHPAUaction@@@Z			; petMoveProc
PUBLIC	?uprisePetProc@@YAHPAUaction@@@Z		; uprisePetProc
PUBLIC	?petCircleOutProc@@YAHPAUaction@@@Z		; petCircleOutProc
PUBLIC	?petCircleInProc@@YAHPAUaction@@@Z		; petCircleInProc
PUBLIC	?petProc@@YAXPAUaction@@@Z			; petProc
PUBLIC	?getCharType@@YAHPAUaction@@@Z			; getCharType
PUBLIC	?_OptionsStorage@?1??__local_stdio_printf_options@@9@4_KA ; `__local_stdio_printf_options'::`2'::_OptionsStorage
PUBLIC	??_C@_01EJNLAFE@P@				; `string'
PUBLIC	??_C@_01NANMIPIL@N@				; `string'
PUBLIC	??_C@_01BNIGIBBF@Q@				; `string'
PUBLIC	??_C@_01CPLAODJH@S@				; `string'
PUBLIC	??_C@_01CKDDGHAB@D@				; `string'
PUBLIC	??_C@_01GFHCPBMG@C@				; `string'
PUBLIC	??_C@_02DKCKIIND@?$CFs@				; `string'
PUBLIC	??_C@_00CNPNBAHC@@				; `string'
PUBLIC	??_C@_08BFELEGJK@?$NL?$NM?U?I?i?$LI?$NO?M@	; `string'
PUBLIC	??_C@_06HDNHFODD@?d?a?$DP?$NL?v?$DP@		; `string'
PUBLIC	??_C@_05NPHPFMDI@?u?Z?$DP?m?$LK@		; `string'
PUBLIC	__real@3c800000
PUBLIC	__real@3f00000000000000
PUBLIC	__real@3f800000
PUBLIC	__real@3f99999a
PUBLIC	__real@3fcccccd
PUBLIC	__real@3fe0000000000000
PUBLIC	__real@40000000
PUBLIC	__real@40800000
PUBLIC	__real@40c00000
PUBLIC	__real@41b40000
PUBLIC	__real@42340000
PUBLIC	__real@42800000
PUBLIC	__real@42f00000
PUBLIC	__real@c000000000000000
PUBLIC	__xmm@0000000200000002fffffffd00000003
PUBLIC	__xmm@000189f600018b3a000189e900018824
PUBLIC	__xmm@00018c3000018d7f0001880100018cc2
PUBLIC	__xmm@fffffffefffffffe00000003fffffffd
EXTRN	___stdio_common_vsprintf:PROC
EXTRN	_rand:PROC
EXTRN	_strstr:PROC
EXTRN	?TimeGetTime@@YAIXZ:PROC			; TimeGetTime
EXTRN	?GetAction@@YAPAUaction@@EI@Z:PROC		; GetAction
EXTRN	?DeathAction@@YAXPAUaction@@@Z:PROC		; DeathAction
EXTRN	?StockDispBuffer@@YAHHHEHH@Z:PROC		; StockDispBuffer
EXTRN	?StockDispBuffer2@@YAHHHEHH@Z:PROC		; StockDispBuffer2
EXTRN	??ö¢??ô©õ»@@YAHPAUaction@@PAF1@Z:PROC		; ?ö¢??ô©õ»
EXTRN	?AdjustDir@@YAXPAM@Z:PROC			; AdjustDir
EXTRN	?SinT@@YAMM@Z:PROC				; SinT
EXTRN	?CosT@@YAMM@Z:PROC				; CosT
EXTRN	?Atan@@YAMMM@Z:PROC				; Atan
EXTRN	?pointLen2@@YAMMMMM@Z:PROC			; pointLen2
EXTRN	?GetStrWidth@@YAHPAD@Z:PROC			; GetStrWidth
EXTRN	?StockFontBuffer@@YAHHHDHPADH@Z:PROC		; StockFontBuffer
EXTRN	?pattern@@YAHPAUaction@@HH@Z:PROC		; pattern
EXTRN	?getRouteData@@YAXHPAH0@Z:PROC			; getRouteData
EXTRN	?setPartsPrio@@YAXHHHHHMMH@Z:PROC		; setPartsPrio
EXTRN	?setCharPrio@@YAXHHHHHMM@Z:PROC			; setCharPrio
EXTRN	?checkHitMap@@YAHHH@Z:PROC			; checkHitMap
EXTRN	?camMapToGamen@@YAXMMPAM0@Z:PROC		; camMapToGamen
EXTRN	?realGetPos@@YAHKPAF0@Z:PROC			; realGetPos
EXTRN	?realGetWH@@YAHKPAF0@Z:PROC			; realGetWH
EXTRN	?realGetNo@@YAHKPAK@Z:PROC			; realGetNo
EXTRN	?resetPc@@YAXXZ:PROC				; resetPc
EXTRN	?setPcWarpPoint@@YAXHH@Z:PROC			; setPcWarpPoint
EXTRN	?delPcUseMagic@@YAXXZ:PROC			; delPcUseMagic
EXTRN	?CheckNewPet@@YAXH@Z:PROC			; CheckNewPet
EXTRN	@__security_check_cookie@4:PROC
EXTRN	__libm_sse2_sqrt_precise:PROC
EXTRN	?SpriteInfo@@3PAUSPRITE_INFO@@A:BYTE		; SpriteInfo
EXTRN	?DEF_APPSIZEX@@3HA:DWORD			; DEF_APPSIZEX
EXTRN	?DEF_APPSIZEY@@3HA:DWORD			; DEF_APPSIZEY
EXTRN	?ProcNo@@3IA:DWORD				; ProcNo
EXTRN	?MyChatBuffer@@3USTR_BUFFER@@A:BYTE		; MyChatBuffer
EXTRN	?nowFloor@@3HA:DWORD				; nowFloor
EXTRN	?nowGx@@3HA:DWORD				; nowGx
EXTRN	?nowGy@@3HA:DWORD				; nowGy
EXTRN	?nowSpdRate@@3MA:DWORD				; nowSpdRate
EXTRN	?oldGx@@3HA:DWORD				; oldGx
EXTRN	?oldGy@@3HA:DWORD				; oldGy
EXTRN	?warpEffectStart@@3HA:DWORD			; warpEffectStart
EXTRN	?SpriteData@@3PAUSPRITEDATA@@A:BYTE		; SpriteData
EXTRN	?pc@@3UPC@@A:BYTE				; pc
EXTRN	?party@@3PAUPARTY@@A:BYTE			; party
EXTRN	?g_bUseAlpha@@3HA:DWORD				; g_bUseAlpha
EXTRN	?ìÑÚª?øÌ??@@3HA:DWORD				; ìÑÚª?øÌ??
EXTRN	___security_cookie:DWORD
EXTRN	__fltused:DWORD
;	COMDAT ?_OptionsStorage@?1??__local_stdio_printf_options@@9@4_KA
_BSS	SEGMENT
?_OptionsStorage@?1??__local_stdio_printf_options@@9@4_KA DQ 01H DUP (?) ; `__local_stdio_printf_options'::`2'::_OptionsStorage
_BSS	ENDS
_BSS	SEGMENT
?popAct@@3PAUaction@@A DD 01H DUP (?)			; popAct
_BSS	ENDS
;	COMDAT __xmm@fffffffefffffffe00000003fffffffd
CONST	SEGMENT
__xmm@fffffffefffffffe00000003fffffffd DB 0fdH, 0ffH, 0ffH, 0ffH, 03H, 00H
	DB	00H, 00H, 0feH, 0ffH, 0ffH, 0ffH, 0feH, 0ffH, 0ffH, 0ffH
CONST	ENDS
;	COMDAT __xmm@00018c3000018d7f0001880100018cc2
CONST	SEGMENT
__xmm@00018c3000018d7f0001880100018cc2 DB 0c2H, 08cH, 01H, 00H, 01H, 088H
	DB	01H, 00H, 07fH, 08dH, 01H, 00H, '0', 08cH, 01H, 00H
CONST	ENDS
;	COMDAT __xmm@000189f600018b3a000189e900018824
CONST	SEGMENT
__xmm@000189f600018b3a000189e900018824 DB '$', 088H, 01H, 00H, 0e9H, 089H
	DB	01H, 00H, ':', 08bH, 01H, 00H, 0f6H, 089H, 01H, 00H
CONST	ENDS
;	COMDAT __xmm@0000000200000002fffffffd00000003
CONST	SEGMENT
__xmm@0000000200000002fffffffd00000003 DB 03H, 00H, 00H, 00H, 0fdH, 0ffH, 0ffH
	DB	0ffH, 02H, 00H, 00H, 00H, 02H, 00H, 00H, 00H
CONST	ENDS
;	COMDAT __real@c000000000000000
CONST	SEGMENT
__real@c000000000000000 DQ 0c000000000000000r	; -2
CONST	ENDS
;	COMDAT __real@42f00000
CONST	SEGMENT
__real@42f00000 DD 042f00000r			; 120
CONST	ENDS
;	COMDAT __real@42800000
CONST	SEGMENT
__real@42800000 DD 042800000r			; 64
CONST	ENDS
;	COMDAT __real@42340000
CONST	SEGMENT
__real@42340000 DD 042340000r			; 45
CONST	ENDS
;	COMDAT __real@41b40000
CONST	SEGMENT
__real@41b40000 DD 041b40000r			; 22.5
CONST	ENDS
;	COMDAT __real@40c00000
CONST	SEGMENT
__real@40c00000 DD 040c00000r			; 6
CONST	ENDS
;	COMDAT __real@40800000
CONST	SEGMENT
__real@40800000 DD 040800000r			; 4
CONST	ENDS
;	COMDAT __real@40000000
CONST	SEGMENT
__real@40000000 DD 040000000r			; 2
CONST	ENDS
;	COMDAT __real@3fe0000000000000
CONST	SEGMENT
__real@3fe0000000000000 DQ 03fe0000000000000r	; 0.5
CONST	ENDS
;	COMDAT __real@3fcccccd
CONST	SEGMENT
__real@3fcccccd DD 03fcccccdr			; 1.6
CONST	ENDS
;	COMDAT __real@3f99999a
CONST	SEGMENT
__real@3f99999a DD 03f99999ar			; 1.2
CONST	ENDS
;	COMDAT __real@3f800000
CONST	SEGMENT
__real@3f800000 DD 03f800000r			; 1
CONST	ENDS
;	COMDAT __real@3f00000000000000
CONST	SEGMENT
__real@3f00000000000000 DQ 03f00000000000000r	; 3.05176e-05
CONST	ENDS
;	COMDAT __real@3c800000
CONST	SEGMENT
__real@3c800000 DD 03c800000r			; 0.015625
CONST	ENDS
;	COMDAT ??_C@_05NPHPFMDI@?u?Z?$DP?m?$LK@
CONST	SEGMENT
??_C@_05NPHPFMDI@?u?Z?$DP?m?$LK@ DB 0f5H, 0daH, '?', 0edH, 0baH, 00H ; `string'
CONST	ENDS
;	COMDAT ??_C@_06HDNHFODD@?d?a?$DP?$NL?v?$DP@
CONST	SEGMENT
??_C@_06HDNHFODD@?d?a?$DP?$NL?v?$DP@ DB 0e4H, 0e1H, '?', 0dbH, 0f6H, '?', 00H ; `string'
CONST	ENDS
;	COMDAT ??_C@_08BFELEGJK@?$NL?$NM?U?I?i?$LI?$NO?M@
CONST	SEGMENT
??_C@_08BFELEGJK@?$NL?$NM?U?I?i?$LI?$NO?M@ DB 0dbH, 0dcH, 0d5H, 0c9H, 0e9H
	DB	0b8H, 0deH, 0cdH, 00H			; `string'
CONST	ENDS
;	COMDAT ??_C@_00CNPNBAHC@@
CONST	SEGMENT
??_C@_00CNPNBAHC@@ DB 00H				; `string'
CONST	ENDS
;	COMDAT ??_C@_02DKCKIIND@?$CFs@
CONST	SEGMENT
??_C@_02DKCKIIND@?$CFs@ DB '%s', 00H			; `string'
CONST	ENDS
;	COMDAT ??_C@_01GFHCPBMG@C@
CONST	SEGMENT
??_C@_01GFHCPBMG@C@ DB 'C', 00H				; `string'
CONST	ENDS
;	COMDAT ??_C@_01CKDDGHAB@D@
CONST	SEGMENT
??_C@_01CKDDGHAB@D@ DB 'D', 00H				; `string'
CONST	ENDS
;	COMDAT ??_C@_01CPLAODJH@S@
CONST	SEGMENT
??_C@_01CPLAODJH@S@ DB 'S', 00H				; `string'
CONST	ENDS
;	COMDAT ??_C@_01BNIGIBBF@Q@
CONST	SEGMENT
??_C@_01BNIGIBBF@Q@ DB 'Q', 00H				; `string'
CONST	ENDS
;	COMDAT ??_C@_01NANMIPIL@N@
CONST	SEGMENT
??_C@_01NANMIPIL@N@ DB 'N', 00H				; `string'
CONST	ENDS
;	COMDAT ??_C@_01EJNLAFE@P@
CONST	SEGMENT
??_C@_01EJNLAFE@P@ DB 'P', 00H				; `string'
CONST	ENDS
; Function compile flags: /Ogtp
; File C:\Users\gg862\OneDrive\¹ÙÅÁ È­¸é\¸¾Äí¿Ï·á\Client Source Code1.31ÀÏº»\system\character.cpp
;	COMDAT ?getCharType@@YAHPAUaction@@@Z
_TEXT	SEGMENT
_ptAct$ = 8						; size = 4
?getCharType@@YAHPAUaction@@@Z PROC			; getCharType, COMDAT

; 3421 : {

  00000	55		 push	 ebp
  00001	8b ec		 mov	 ebp, esp

; 3422 : 	extern int äººç‰©å±è”½å¼€å…³;
; 3423 : 	if (ProcNo != PROC_GAME) return 0;

  00003	83 3d 00 00 00
	00 09		 cmp	 DWORD PTR ?ProcNo@@3IA, 9 ; ProcNo
  0000a	56		 push	 esi
  0000b	75 70		 jne	 SHORT $LN8@getCharTyp

; 3424 : 	if (!äººç‰©å±è”½å¼€å…³) return 0;

  0000d	83 3d 00 00 00
	00 00		 cmp	 DWORD PTR ?ìÑÚª?øÌ??@@3HA, 0 ; ìÑÚª?øÌ??
  00014	74 67		 je	 SHORT $LN8@getCharTyp

; 3425 : 	CHAREXTRA *ext;
; 3426 : 	int no;
; 3427 : 	if (ptAct == NULL)

  00016	8b 4d 08	 mov	 ecx, DWORD PTR _ptAct$[ebp]
  00019	85 c9		 test	 ecx, ecx
  0001b	74 60		 je	 SHORT $LN8@getCharTyp

; 3428 : 		return 0;
; 3429 : 	ext = (CHAREXTRA *)ptAct->pYobi;

  0001d	8b 41 0c	 mov	 eax, DWORD PTR [ecx+12]

; 3430 : 	if (ext) {

  00020	85 c0		 test	 eax, eax
  00022	74 59		 je	 SHORT $LN8@getCharTyp

; 3431 : 		no = ext->charObjTblId;

  00024	8b 00		 mov	 eax, DWORD PTR [eax]

; 3432 : 		if (no >= 1500) return 0;

  00026	3d dc 05 00 00	 cmp	 eax, 1500		; 000005dcH
  0002b	7d 50		 jge	 SHORT $LN8@getCharTyp

; 3433 : 		if (strcmp(ptAct->name, charObj[no].name) == 0)

  0002d	69 f0 0c 01 00
	00		 imul	 esi, eax, 268
  00033	83 c1 38	 add	 ecx, 56			; 00000038H
  00036	8d 86 38 00 00
	00		 lea	 eax, DWORD PTR ?charObj@@3PAUCHAROBJ@@A[esi+56]
  0003c	0f 1f 40 00	 npad	 4
$LL10@getCharTyp:
  00040	8a 11		 mov	 dl, BYTE PTR [ecx]
  00042	3a 10		 cmp	 dl, BYTE PTR [eax]
  00044	75 1a		 jne	 SHORT $LN11@getCharTyp
  00046	84 d2		 test	 dl, dl
  00048	74 12		 je	 SHORT $LN12@getCharTyp
  0004a	8a 51 01	 mov	 dl, BYTE PTR [ecx+1]
  0004d	3a 50 01	 cmp	 dl, BYTE PTR [eax+1]
  00050	75 0e		 jne	 SHORT $LN11@getCharTyp
  00052	83 c1 02	 add	 ecx, 2
  00055	83 c0 02	 add	 eax, 2
  00058	84 d2		 test	 dl, dl
  0005a	75 e4		 jne	 SHORT $LL10@getCharTyp
$LN12@getCharTyp:
  0005c	33 c0		 xor	 eax, eax
  0005e	eb 05		 jmp	 SHORT $LN13@getCharTyp
$LN11@getCharTyp:
  00060	1b c0		 sbb	 eax, eax
  00062	83 c8 01	 or	 eax, 1
$LN13@getCharTyp:
  00065	85 c0		 test	 eax, eax
  00067	75 14		 jne	 SHORT $LN8@getCharTyp

; 3434 : 			if (charObj[no].charType == 256) {

  00069	81 be b4 00 00
	00 00 01 00 00	 cmp	 DWORD PTR ?charObj@@3PAUCHAROBJ@@A[esi+180], 256 ; 00000100H
  00073	75 08		 jne	 SHORT $LN8@getCharTyp

; 3435 : 				return 1;

  00075	b8 01 00 00 00	 mov	 eax, 1
  0007a	5e		 pop	 esi

; 3439 : }

  0007b	5d		 pop	 ebp
  0007c	c3		 ret	 0
$LN8@getCharTyp:

; 3436 : 			}
; 3437 : 	}
; 3438 : 	return 0;

  0007d	33 c0		 xor	 eax, eax
  0007f	5e		 pop	 esi

; 3439 : }

  00080	5d		 pop	 ebp
  00081	c3		 ret	 0
?getCharType@@YAHPAUaction@@@Z ENDP			; getCharType
_TEXT	ENDS
; Function compile flags: /Ogtp
; File C:\Users\gg862\OneDrive\¹ÙÅÁ È­¸é\¸¾Äí¿Ï·á\Client Source Code1.31ÀÏº»\system\character.cpp
;	COMDAT ?petProc@@YAXPAUaction@@@Z
_TEXT	SEGMENT
_my$ = -4						; size = 4
_mx$ = 8						; size = 4
_ptAct$ = 8						; size = 4
?petProc@@YAXPAUaction@@@Z PROC				; petProc, COMDAT

; 3220 : {

  00000	55		 push	 ebp
  00001	8b ec		 mov	 ebp, esp
  00003	51		 push	 ecx
  00004	56		 push	 esi

; 3221 : 	float mx, my;
; 3222 : 	int animLoop;
; 3223 : 	PETEXTRA *pe = (PETEXTRA *)ptAct->pYobi;
; 3224 : 
; 3225 : 	switch( pe->mode )

  00005	8b 75 08	 mov	 esi, DWORD PTR _ptAct$[ebp]
  00008	8b 46 0c	 mov	 eax, DWORD PTR [esi+12]
  0000b	0f bf 00	 movsx	 eax, WORD PTR [eax]
  0000e	83 f8 03	 cmp	 eax, 3
  00011	77 30		 ja	 SHORT $LN11@petProc
  00013	ff 24 85 00 00
	00 00		 jmp	 DWORD PTR $LN16@petProc[eax*4]
$LN4@petProc:

; 3226 : 	{
; 3227 : 		// ????î‘˜?ï¼šîŸš???î??
; 3228 : 		case 0:
; 3229 : 			if( !petMoveProc( ptAct ) )

  0001a	56		 push	 esi
  0001b	e8 00 00 00 00	 call	 ?petMoveProc@@YAHPAUaction@@@Z ; petMoveProc

; 3230 : 			{
; 3231 : 				return;
; 3232 : 			}
; 3233 : 			break;

  00020	eb 16		 jmp	 SHORT $LN18@petProc
$LN6@petProc:

; 3234 : 
; 3235 : 		// ????î‘˜?ï¼š
; 3236 : 		// ???????????ï¼šî?
; 3237 : 		case 1:
; 3238 : 			if( !uprisePetProc( ptAct ) )

  00022	56		 push	 esi
  00023	e8 00 00 00 00	 call	 ?uprisePetProc@@YAHPAUaction@@@Z ; uprisePetProc

; 3239 : 			{
; 3240 : 				return;
; 3241 : 			}
; 3242 : 			break;

  00028	eb 0e		 jmp	 SHORT $LN18@petProc
$LN8@petProc:

; 3243 : 
; 3244 : 		// ????î‘˜?ï¼šîž¤î‘²?î˜¿??î??
; 3245 : 		case 2:
; 3246 : 			if( !petCircleOutProc( ptAct ) )

  0002a	56		 push	 esi
  0002b	e8 00 00 00 00	 call	 ?petCircleOutProc@@YAHPAUaction@@@Z ; petCircleOutProc

; 3247 : 			{
; 3248 : 				return;
; 3249 : 			}
; 3250 : 			break;

  00030	eb 06		 jmp	 SHORT $LN18@petProc
$LN10@petProc:

; 3251 : 
; 3252 : 		// ???îŽ¢î‘˜?ï¼šîž¤î‘²?î˜¿?????
; 3253 : 		case 3:
; 3254 : 			if( !petCircleInProc( ptAct ) )

  00032	56		 push	 esi
  00033	e8 00 00 00 00	 call	 ?petCircleInProc@@YAHPAUaction@@@Z ; petCircleInProc
$LN18@petProc:

; 3255 : 			{
; 3256 : 				return;
; 3257 : 			}
; 3258 : 			break;
; 3259 : 	}
; 3260 : 
; 3261 : 	// ?î¡¡î¸î•?î–º
; 3262 : 	camMapToGamen( ptAct->mx, ptAct->my, &mx, &my );

  00038	83 c4 04	 add	 esp, 4
  0003b	85 c0		 test	 eax, eax
  0003d	0f 84 cd 00 00
	00		 je	 $LN1@petProc
$LN11@petProc:
  00043	f3 0f 10 86 1c
	01 00 00	 movss	 xmm0, DWORD PTR [esi+284]
  0004b	8d 45 fc	 lea	 eax, DWORD PTR _my$[ebp]
  0004e	50		 push	 eax
  0004f	8d 45 08	 lea	 eax, DWORD PTR _mx$[ebp]
  00052	50		 push	 eax
  00053	83 ec 08	 sub	 esp, 8
  00056	f3 0f 11 44 24
	04		 movss	 DWORD PTR [esp+4], xmm0
  0005c	f3 0f 10 86 18
	01 00 00	 movss	 xmm0, DWORD PTR [esi+280]
  00064	f3 0f 11 04 24	 movss	 DWORD PTR [esp], xmm0
  00069	e8 00 00 00 00	 call	 ?camMapToGamen@@YAXMMPAM0@Z ; camMapToGamen
  0006e	f3 0f 10 45 08	 movss	 xmm0, DWORD PTR _mx$[ebp]
  00073	83 c4 10	 add	 esp, 16			; 00000010H

; 3263 : 	ptAct->x = (int)(mx+.5);

  00076	0f 5a c0	 cvtps2pd xmm0, xmm0
  00079	f2 0f 58 05 00
	00 00 00	 addsd	 xmm0, QWORD PTR __real@3fe0000000000000
  00081	f2 0f 2c c0	 cvttsd2si eax, xmm0
  00085	f3 0f 10 45 fc	 movss	 xmm0, DWORD PTR _my$[ebp]

; 3264 : 	ptAct->y = (int)(my+.5);

  0008a	0f 5a c0	 cvtps2pd xmm0, xmm0
  0008d	89 46 18	 mov	 DWORD PTR [esi+24], eax
  00090	f2 0f 58 05 00
	00 00 00	 addsd	 xmm0, QWORD PTR __real@3fe0000000000000
  00098	f2 0f 2c c0	 cvttsd2si eax, xmm0
  0009c	89 46 1c	 mov	 DWORD PTR [esi+28], eax

; 3265 : 
; 3266 : 	// ?????????
; 3267 : 	if( ptAct->anim_no == ANIM_HAND
; 3268 : 	 || ptAct->anim_no == ANIM_HAPPY
; 3269 : 	 || ptAct->anim_no == ANIM_ANGRY
; 3270 : 	 || ptAct->anim_no == ANIM_SAD
; 3271 : 	 || ptAct->anim_no == ANIM_WALK
; 3272 : 	 || ptAct->anim_no == ANIM_STAND
; 3273 : 	 || ptAct->anim_no == ANIM_NOD )

  0009f	8b 86 4c 01 00
	00		 mov	 eax, DWORD PTR [esi+332]
  000a5	83 f8 06	 cmp	 eax, 6
  000a8	74 25		 je	 SHORT $LN14@petProc
  000aa	83 f8 07	 cmp	 eax, 7
  000ad	74 20		 je	 SHORT $LN14@petProc
  000af	83 f8 08	 cmp	 eax, 8
  000b2	74 1b		 je	 SHORT $LN14@petProc
  000b4	83 f8 09	 cmp	 eax, 9
  000b7	74 16		 je	 SHORT $LN14@petProc
  000b9	83 f8 04	 cmp	 eax, 4
  000bc	74 11		 je	 SHORT $LN14@petProc
  000be	83 f8 03	 cmp	 eax, 3
  000c1	74 0c		 je	 SHORT $LN14@petProc
  000c3	83 f8 0b	 cmp	 eax, 11			; 0000000bH
  000c6	74 07		 je	 SHORT $LN14@petProc

; 3276 : 	}
; 3277 : 	else
; 3278 : 	{
; 3279 : 		animLoop = ANM_NO_LOOP;

  000c8	b8 01 00 00 00	 mov	 eax, 1
  000cd	eb 02		 jmp	 SHORT $LN13@petProc
$LN14@petProc:

; 3274 : 	{
; 3275 : 		animLoop = ANM_LOOP;

  000cf	33 c0		 xor	 eax, eax
$LN13@petProc:

; 3280 : 	}
; 3281 : 	pattern( ptAct, ANM_NOMAL_SPD, animLoop );

  000d1	50		 push	 eax
  000d2	6a 00		 push	 0
  000d4	56		 push	 esi
  000d5	e8 00 00 00 00	 call	 ?pattern@@YAHPAUaction@@HH@Z ; pattern

; 3282 : 
; 3283 : 	// ??????????????
; 3284 : 	setCharPrio( ptAct->bmpNo, ptAct->x, ptAct->y, 0, 0, ptAct->mx, ptAct->my );

  000da	f3 0f 10 86 1c
	01 00 00	 movss	 xmm0, DWORD PTR [esi+284]
  000e2	83 c4 04	 add	 esp, 4
  000e5	f3 0f 11 44 24
	04		 movss	 DWORD PTR [esp+4], xmm0
  000eb	f3 0f 10 86 18
	01 00 00	 movss	 xmm0, DWORD PTR [esi+280]
  000f3	f3 0f 11 04 24	 movss	 DWORD PTR [esp], xmm0
  000f8	6a 00		 push	 0
  000fa	6a 00		 push	 0
  000fc	ff 76 1c	 push	 DWORD PTR [esi+28]
  000ff	ff 76 18	 push	 DWORD PTR [esi+24]
  00102	ff b6 9c 00 00
	00		 push	 DWORD PTR [esi+156]
  00108	e8 00 00 00 00	 call	 ?setCharPrio@@YAXHHHHHMM@Z ; setCharPrio
  0010d	83 c4 1c	 add	 esp, 28			; 0000001cH
$LN1@petProc:
  00110	5e		 pop	 esi

; 3285 : }

  00111	8b e5		 mov	 esp, ebp
  00113	5d		 pop	 ebp
  00114	c3		 ret	 0
  00115	0f 1f 00	 npad	 3
$LN16@petProc:
  00118	00 00 00 00	 DD	 $LN4@petProc
  0011c	00 00 00 00	 DD	 $LN6@petProc
  00120	00 00 00 00	 DD	 $LN8@petProc
  00124	00 00 00 00	 DD	 $LN10@petProc
?petProc@@YAXPAUaction@@@Z ENDP				; petProc
_TEXT	ENDS
; Function compile flags: /Ogtp
; File C:\Users\gg862\OneDrive\¹ÙÅÁ È­¸é\¸¾Äí¿Ï·á\Client Source Code1.31ÀÏº»\system\character.cpp
;	COMDAT ?petCircleInProc@@YAHPAUaction@@@Z
_TEXT	SEGMENT
_my$ = -16						; size = 4
_mx$ = -12						; size = 4
tv358 = -8						; size = 4
_dx$ = -8						; size = 4
tv351 = -4						; size = 4
_dy$ = -4						; size = 4
_angle$ = 8						; size = 4
_ptAct$ = 8						; size = 4
?petCircleInProc@@YAHPAUaction@@@Z PROC			; petCircleInProc, COMDAT

; 3157 : {

  00000	55		 push	 ebp
  00001	8b ec		 mov	 ebp, esp
  00003	83 ec 10	 sub	 esp, 16			; 00000010H
  00006	56		 push	 esi
  00007	57		 push	 edi

; 3158 : 	PETEXTRA *pe = (PETEXTRA *)ptAct->pYobi;

  00008	8b 7d 08	 mov	 edi, DWORD PTR _ptAct$[ebp]
  0000b	8b 77 0c	 mov	 esi, DWORD PTR [edi+12]

; 3159 : 	float mx, my;
; 3160 : 	float dx, dy;
; 3161 : 	float angle;
; 3162 : 	int i;
; 3163 : 
; 3164 : 	if( pe->ptAct == NULL )

  0000e	83 7e 18 00	 cmp	 DWORD PTR [esi+24], 0
  00012	0f 85 94 01 00
	00		 jne	 $LN5@petCircleI

; 3165 : 	{
; 3166 : 		pe->ptAct  = (ACTION *)1;

  00018	c7 46 18 01 00
	00 00		 mov	 DWORD PTR [esi+24], 1

; 3167 : 		pe->ptAct2 = (ACTION *)NULL;

  0001f	c7 46 1c 00 00
	00 00		 mov	 DWORD PTR [esi+28], 0

; 3168 : 		pe->angle = 0.0F;

  00026	c7 46 20 00 00
	00 00		 mov	 DWORD PTR [esi+32], 0

; 3169 : 		pe->r = 800;

  0002d	c7 46 24 20 03
	00 00		 mov	 DWORD PTR [esi+36], 800	; 00000320H
$LN17@petCircleI:

; 3179 : 		}
; 3180 : 	}
; 3181 : 
; 3182 : 	if( pe->ptAct != NULL )
; 3183 : 	{
; 3184 : 		if( pe->ptAct2 == NULL && pe->createTime+2300 < TimeGetTime() )

  00034	83 7e 1c 00	 cmp	 DWORD PTR [esi+28], 0
  00038	75 37		 jne	 SHORT $LN9@petCircleI
  0003a	e8 00 00 00 00	 call	 ?TimeGetTime@@YAIXZ	; TimeGetTime
  0003f	8b 4e 14	 mov	 ecx, DWORD PTR [esi+20]
  00042	81 c1 fc 08 00
	00		 add	 ecx, 2300		; 000008fcH
  00048	3b c8		 cmp	 ecx, eax
  0004a	73 25		 jae	 SHORT $LN9@petCircleI

; 3185 : 		{
; 3186 : 			pe->ptAct2 = createCommmonEffectNoLoop( SPR_hoshi, ptAct->gx, ptAct->gy,

  0004c	0f b6 47 15	 movzx	 eax, BYTE PTR [edi+21]
  00050	50		 push	 eax
  00051	6a 00		 push	 0
  00053	6a 00		 push	 0
  00055	ff b7 b8 00 00
	00		 push	 DWORD PTR [edi+184]
  0005b	ff b7 b4 00 00
	00		 push	 DWORD PTR [edi+180]
  00061	68 fd 88 01 00	 push	 100605			; 000188fdH
  00066	e8 00 00 00 00	 call	 ?createCommmonEffectNoLoop@@YAPAUaction@@HHHHHH@Z ; createCommmonEffectNoLoop
  0006b	83 c4 18	 add	 esp, 24			; 00000018H
  0006e	89 46 1c	 mov	 DWORD PTR [esi+28], eax
$LN9@petCircleI:

; 3187 : 				0, 0, ptAct->dispPrio );
; 3188 : 		}
; 3189 : 
; 3190 : 		pe->r -= 4;
; 3191 : 		pe->angle += 6.0F;

  00071	f3 0f 10 46 20	 movss	 xmm0, DWORD PTR [esi+32]
  00076	f3 0f 58 05 00
	00 00 00	 addss	 xmm0, DWORD PTR __real@40c00000
  0007e	83 46 24 fc	 add	 DWORD PTR [esi+36], -4	; fffffffcH
  00082	53		 push	 ebx
  00083	bb 03 00 00 00	 mov	 ebx, 3
  00088	f3 0f 11 46 20	 movss	 DWORD PTR [esi+32], xmm0

; 3192 : 
; 3193 : 		angle = pe->angle;

  0008d	f3 0f 11 45 08	 movss	 DWORD PTR _angle$[ebp], xmm0
$LL4@petCircleI:

; 3195 : 		{
; 3196 : 			dx = (float)pe->r * CosT( angle );

  00092	51		 push	 ecx
  00093	f3 0f 11 04 24	 movss	 DWORD PTR [esp], xmm0
  00098	e8 00 00 00 00	 call	 ?CosT@@YAMM@Z		; CosT
  0009d	66 0f 6e 46 24	 movd	 xmm0, DWORD PTR [esi+36]
  000a2	0f 5b c0	 cvtdq2ps xmm0, xmm0
  000a5	f3 0f 11 45 f8	 movss	 DWORD PTR tv358[ebp], xmm0
  000aa	d8 4d f8	 fmul	 DWORD PTR tv358[ebp]

; 3197 : 			dy = (float)pe->r * SinT( angle );

  000ad	f3 0f 10 45 08	 movss	 xmm0, DWORD PTR _angle$[ebp]
  000b2	f3 0f 11 04 24	 movss	 DWORD PTR [esp], xmm0
  000b7	d9 5d f8	 fstp	 DWORD PTR _dx$[ebp]
  000ba	e8 00 00 00 00	 call	 ?SinT@@YAMM@Z		; SinT
  000bf	66 0f 6e 46 24	 movd	 xmm0, DWORD PTR [esi+36]

; 3198 : 
; 3199 : 			// ?î¡¡î¸î•?î–º
; 3200 : 			camMapToGamen( ptAct->mx+dx, ptAct->my+dy, &mx, &my );

  000c4	8d 45 f0	 lea	 eax, DWORD PTR _my$[ebp]
  000c7	0f 5b c0	 cvtdq2ps xmm0, xmm0
  000ca	83 c4 04	 add	 esp, 4
  000cd	50		 push	 eax
  000ce	f3 0f 11 45 fc	 movss	 DWORD PTR tv351[ebp], xmm0
  000d3	8d 45 f4	 lea	 eax, DWORD PTR _mx$[ebp]
  000d6	d8 4d fc	 fmul	 DWORD PTR tv351[ebp]
  000d9	50		 push	 eax
  000da	83 ec 08	 sub	 esp, 8
  000dd	d9 5d fc	 fstp	 DWORD PTR _dy$[ebp]
  000e0	f3 0f 10 45 fc	 movss	 xmm0, DWORD PTR _dy$[ebp]
  000e5	f3 0f 58 87 1c
	01 00 00	 addss	 xmm0, DWORD PTR [edi+284]
  000ed	f3 0f 11 44 24
	04		 movss	 DWORD PTR [esp+4], xmm0
  000f3	f3 0f 10 45 f8	 movss	 xmm0, DWORD PTR _dx$[ebp]
  000f8	f3 0f 58 87 18
	01 00 00	 addss	 xmm0, DWORD PTR [edi+280]
  00100	f3 0f 11 04 24	 movss	 DWORD PTR [esp], xmm0
  00105	e8 00 00 00 00	 call	 ?camMapToGamen@@YAXMMPAM0@Z ; camMapToGamen
  0010a	f3 0f 10 45 f4	 movss	 xmm0, DWORD PTR _mx$[ebp]

; 3201 : 			ptAct->x = (int)(mx+.5);

  0010f	0f 5a c0	 cvtps2pd xmm0, xmm0

; 3202 : 			ptAct->y = (int)(my+.5);
; 3203 : 
; 3204 : 			// ?????????
; 3205 : 			pattern( ptAct, ANM_NOMAL_SPD, ANM_LOOP );

  00112	6a 00		 push	 0
  00114	6a 00		 push	 0
  00116	57		 push	 edi
  00117	f2 0f 58 05 00
	00 00 00	 addsd	 xmm0, QWORD PTR __real@3fe0000000000000
  0011f	f2 0f 2c c0	 cvttsd2si eax, xmm0
  00123	f3 0f 10 45 f0	 movss	 xmm0, DWORD PTR _my$[ebp]
  00128	0f 5a c0	 cvtps2pd xmm0, xmm0
  0012b	89 47 18	 mov	 DWORD PTR [edi+24], eax
  0012e	f2 0f 58 05 00
	00 00 00	 addsd	 xmm0, QWORD PTR __real@3fe0000000000000
  00136	f2 0f 2c c0	 cvttsd2si eax, xmm0
  0013a	89 47 1c	 mov	 DWORD PTR [edi+28], eax
  0013d	e8 00 00 00 00	 call	 ?pattern@@YAHPAUaction@@HH@Z ; pattern

; 3206 : 
; 3207 : 			// ??????????????
; 3208 : 			setCharPrio( ptAct->bmpNo, ptAct->x, ptAct->y, 0, 0, ptAct->mx+dx, ptAct->my+dy );

  00142	f3 0f 10 45 fc	 movss	 xmm0, DWORD PTR _dy$[ebp]
  00147	83 c4 14	 add	 esp, 20			; 00000014H
  0014a	f3 0f 58 87 1c
	01 00 00	 addss	 xmm0, DWORD PTR [edi+284]
  00152	f3 0f 11 44 24
	04		 movss	 DWORD PTR [esp+4], xmm0
  00158	f3 0f 10 45 f8	 movss	 xmm0, DWORD PTR _dx$[ebp]
  0015d	f3 0f 58 87 18
	01 00 00	 addss	 xmm0, DWORD PTR [edi+280]
  00165	f3 0f 11 04 24	 movss	 DWORD PTR [esp], xmm0
  0016a	6a 00		 push	 0
  0016c	6a 00		 push	 0
  0016e	ff 77 1c	 push	 DWORD PTR [edi+28]
  00171	ff 77 18	 push	 DWORD PTR [edi+24]
  00174	ff b7 9c 00 00
	00		 push	 DWORD PTR [edi+156]
  0017a	e8 00 00 00 00	 call	 ?setCharPrio@@YAXHHHHHMM@Z ; setCharPrio

; 3209 : 			angle += 120;

  0017f	f3 0f 10 45 08	 movss	 xmm0, DWORD PTR _angle$[ebp]

; 3210 : 			AdjustDir( &angle );

  00184	8d 45 08	 lea	 eax, DWORD PTR _angle$[ebp]
  00187	f3 0f 58 05 00
	00 00 00	 addss	 xmm0, DWORD PTR __real@42f00000
  0018f	50		 push	 eax
  00190	f3 0f 11 45 08	 movss	 DWORD PTR _angle$[ebp], xmm0
  00195	e8 00 00 00 00	 call	 ?AdjustDir@@YAXPAM@Z	; AdjustDir
  0019a	83 c4 20	 add	 esp, 32			; 00000020H
  0019d	83 eb 01	 sub	 ebx, 1
  001a0	74 30		 je	 SHORT $LN21@petCircleI

; 3194 : 		for( i = 0; i < 3; i++ )

  001a2	f3 0f 10 45 08	 movss	 xmm0, DWORD PTR _angle$[ebp]
  001a7	e9 e6 fe ff ff	 jmp	 $LL4@petCircleI
$LN5@petCircleI:

; 3170 : 	}
; 3171 : 	else
; 3172 : 	{
; 3173 : 		if( pe->r <= 0 )

  001ac	83 7e 24 00	 cmp	 DWORD PTR [esi+36], 0
  001b0	0f 8f 7e fe ff
	ff		 jg	 $LN17@petCircleI

; 3174 : 		{
; 3175 : 			restorePtActCharObj( pe->id );

  001b6	ff 76 28	 push	 DWORD PTR [esi+40]
  001b9	e8 00 00 00 00	 call	 ?restorePtActCharObj@@YAXH@Z ; restorePtActCharObj

; 3176 : 			DeathAction( ptAct );

  001be	57		 push	 edi
  001bf	e8 00 00 00 00	 call	 ?DeathAction@@YAXPAUaction@@@Z ; DeathAction
  001c4	83 c4 08	 add	 esp, 8

; 3177 : 			ptAct = NULL;
; 3178 : 			return TRUE;

  001c7	b8 01 00 00 00	 mov	 eax, 1
  001cc	5f		 pop	 edi

; 3215 : }

  001cd	5e		 pop	 esi
  001ce	8b e5		 mov	 esp, ebp
  001d0	5d		 pop	 ebp
  001d1	c3		 ret	 0
$LN21@petCircleI:

; 3211 : 		}
; 3212 : 	}
; 3213 : 
; 3214 : 	return FALSE;

  001d2	5b		 pop	 ebx
  001d3	5f		 pop	 edi
  001d4	33 c0		 xor	 eax, eax

; 3215 : }

  001d6	5e		 pop	 esi
  001d7	8b e5		 mov	 esp, ebp
  001d9	5d		 pop	 ebp
  001da	c3		 ret	 0
?petCircleInProc@@YAHPAUaction@@@Z ENDP			; petCircleInProc
_TEXT	ENDS
; Function compile flags: /Ogtp
; File C:\Users\gg862\OneDrive\¹ÙÅÁ È­¸é\¸¾Äí¿Ï·á\Client Source Code1.31ÀÏº»\system\character.cpp
;	COMDAT ?petCircleOutProc@@YAHPAUaction@@@Z
_TEXT	SEGMENT
_my$ = -16						; size = 4
_mx$ = -12						; size = 4
tv319 = -8						; size = 4
_dx$ = -8						; size = 4
tv310 = -4						; size = 4
_dy$ = -4						; size = 4
_angle$ = 8						; size = 4
_ptAct$ = 8						; size = 4
?petCircleOutProc@@YAHPAUaction@@@Z PROC		; petCircleOutProc, COMDAT

; 3101 : {

  00000	55		 push	 ebp
  00001	8b ec		 mov	 ebp, esp
  00003	83 ec 10	 sub	 esp, 16			; 00000010H
  00006	56		 push	 esi
  00007	57		 push	 edi

; 3102 : 	PETEXTRA *pe = (PETEXTRA *)ptAct->pYobi;

  00008	8b 7d 08	 mov	 edi, DWORD PTR _ptAct$[ebp]
  0000b	8b 77 0c	 mov	 esi, DWORD PTR [edi+12]

; 3103 : 	float mx, my;
; 3104 : 	float dx, dy;
; 3105 : 	float angle;
; 3106 : 	int i;
; 3107 : 
; 3108 : 	if( pe->ptAct == NULL )

  0000e	83 7e 18 00	 cmp	 DWORD PTR [esi+24], 0
  00012	75 37		 jne	 SHORT $LN5@petCircleO

; 3109 : 	{
; 3110 : 		pe->ptAct = (ACTION *)1;

  00014	c7 46 18 01 00
	00 00		 mov	 DWORD PTR [esi+24], 1

; 3111 : 		pe->angle = 0.0F;

  0001b	c7 46 20 00 00
	00 00		 mov	 DWORD PTR [esi+32], 0

; 3112 : 		pe->r = 0;

  00022	c7 46 24 00 00
	00 00		 mov	 DWORD PTR [esi+36], 0

; 3113 : 		createCommmonEffectNoLoop( SPR_hoshi, ptAct->gx, ptAct->gy,

  00029	0f b6 47 15	 movzx	 eax, BYTE PTR [edi+21]
  0002d	50		 push	 eax
  0002e	6a 00		 push	 0
  00030	6a 00		 push	 0
  00032	ff b7 b8 00 00
	00		 push	 DWORD PTR [edi+184]
  00038	ff b7 b4 00 00
	00		 push	 DWORD PTR [edi+180]
  0003e	68 fd 88 01 00	 push	 100605			; 000188fdH
  00043	e8 00 00 00 00	 call	 ?createCommmonEffectNoLoop@@YAPAUaction@@HHHHHH@Z ; createCommmonEffectNoLoop
  00048	83 c4 18	 add	 esp, 24			; 00000018H
$LN5@petCircleO:

; 3114 : 			0, 0, ptAct->dispPrio );
; 3115 : 	}
; 3116 : 
; 3117 : 	if( pe->r > 800 )

  0004b	81 7e 24 20 03
	00 00		 cmp	 DWORD PTR [esi+36], 800	; 00000320H
  00052	7e 19		 jle	 SHORT $LN6@petCircleO

; 3118 : 	{
; 3119 : 		restorePtActCharObj( pe->id );

  00054	ff 76 28	 push	 DWORD PTR [esi+40]
  00057	e8 00 00 00 00	 call	 ?restorePtActCharObj@@YAXH@Z ; restorePtActCharObj

; 3120 : 		DeathAction( ptAct );

  0005c	57		 push	 edi
  0005d	e8 00 00 00 00	 call	 ?DeathAction@@YAXPAUaction@@@Z ; DeathAction
  00062	83 c4 08	 add	 esp, 8

; 3152 : }

  00065	33 c0		 xor	 eax, eax
  00067	5f		 pop	 edi
  00068	5e		 pop	 esi
  00069	8b e5		 mov	 esp, ebp
  0006b	5d		 pop	 ebp
  0006c	c3		 ret	 0
$LN6@petCircleO:

; 3121 : 		ptAct = NULL;
; 3122 : 		return FALSE;
; 3123 : 	}
; 3124 : 
; 3125 : 	if( pe->ptAct != NULL && pe->createTime+1000 < TimeGetTime() )

  0006d	83 7e 18 00	 cmp	 DWORD PTR [esi+24], 0
  00071	74 28		 je	 SHORT $LN7@petCircleO
  00073	e8 00 00 00 00	 call	 ?TimeGetTime@@YAIXZ	; TimeGetTime
  00078	8b 4e 14	 mov	 ecx, DWORD PTR [esi+20]
  0007b	81 c1 e8 03 00
	00		 add	 ecx, 1000		; 000003e8H
  00081	3b c8		 cmp	 ecx, eax
  00083	73 16		 jae	 SHORT $LN7@petCircleO

; 3126 : 	{
; 3127 : 		pe->r += 4;
; 3128 : 		pe->angle += 6.0F;

  00085	f3 0f 10 46 20	 movss	 xmm0, DWORD PTR [esi+32]
  0008a	f3 0f 58 05 00
	00 00 00	 addss	 xmm0, DWORD PTR __real@40c00000
  00092	83 46 24 04	 add	 DWORD PTR [esi+36], 4
  00096	f3 0f 11 46 20	 movss	 DWORD PTR [esi+32], xmm0
$LN7@petCircleO:

; 3129 : 	}
; 3130 : 
; 3131 : 	angle = pe->angle;

  0009b	f3 0f 10 46 20	 movss	 xmm0, DWORD PTR [esi+32]
  000a0	53		 push	 ebx
  000a1	f3 0f 11 45 08	 movss	 DWORD PTR _angle$[ebp], xmm0
  000a6	bb 03 00 00 00	 mov	 ebx, 3
  000ab	0f 1f 44 00 00	 npad	 5
$LL4@petCircleO:

; 3133 : 	{
; 3134 : 		dx = (float)pe->r * CosT( angle );

  000b0	51		 push	 ecx
  000b1	f3 0f 11 04 24	 movss	 DWORD PTR [esp], xmm0
  000b6	e8 00 00 00 00	 call	 ?CosT@@YAMM@Z		; CosT
  000bb	66 0f 6e 46 24	 movd	 xmm0, DWORD PTR [esi+36]
  000c0	0f 5b c0	 cvtdq2ps xmm0, xmm0
  000c3	f3 0f 11 45 f8	 movss	 DWORD PTR tv319[ebp], xmm0
  000c8	d8 4d f8	 fmul	 DWORD PTR tv319[ebp]

; 3135 : 		dy = (float)pe->r * SinT( angle );

  000cb	f3 0f 10 45 08	 movss	 xmm0, DWORD PTR _angle$[ebp]
  000d0	f3 0f 11 04 24	 movss	 DWORD PTR [esp], xmm0
  000d5	d9 5d f8	 fstp	 DWORD PTR _dx$[ebp]
  000d8	e8 00 00 00 00	 call	 ?SinT@@YAMM@Z		; SinT
  000dd	66 0f 6e 46 24	 movd	 xmm0, DWORD PTR [esi+36]

; 3136 : 
; 3137 : 		// ?î¡¡î¸î•?î–º
; 3138 : 		camMapToGamen( ptAct->mx+dx, ptAct->my+dy, &mx, &my );

  000e2	8d 45 f0	 lea	 eax, DWORD PTR _my$[ebp]
  000e5	0f 5b c0	 cvtdq2ps xmm0, xmm0
  000e8	83 c4 04	 add	 esp, 4
  000eb	50		 push	 eax
  000ec	f3 0f 11 45 fc	 movss	 DWORD PTR tv310[ebp], xmm0
  000f1	8d 45 f4	 lea	 eax, DWORD PTR _mx$[ebp]
  000f4	d8 4d fc	 fmul	 DWORD PTR tv310[ebp]
  000f7	f3 0f 10 87 1c
	01 00 00	 movss	 xmm0, DWORD PTR [edi+284]
  000ff	50		 push	 eax
  00100	83 ec 08	 sub	 esp, 8
  00103	d9 5d fc	 fstp	 DWORD PTR _dy$[ebp]
  00106	f3 0f 58 45 fc	 addss	 xmm0, DWORD PTR _dy$[ebp]
  0010b	f3 0f 11 44 24
	04		 movss	 DWORD PTR [esp+4], xmm0
  00111	f3 0f 10 87 18
	01 00 00	 movss	 xmm0, DWORD PTR [edi+280]
  00119	f3 0f 58 45 f8	 addss	 xmm0, DWORD PTR _dx$[ebp]
  0011e	f3 0f 11 04 24	 movss	 DWORD PTR [esp], xmm0
  00123	e8 00 00 00 00	 call	 ?camMapToGamen@@YAXMMPAM0@Z ; camMapToGamen
  00128	f3 0f 10 45 f4	 movss	 xmm0, DWORD PTR _mx$[ebp]

; 3139 : 		ptAct->x = (int)(mx+.5);

  0012d	0f 5a c0	 cvtps2pd xmm0, xmm0

; 3140 : 		ptAct->y = (int)(my+.5);
; 3141 : 
; 3142 : 		// ?????????
; 3143 : 		pattern( ptAct, ANM_NOMAL_SPD, ANM_LOOP );

  00130	6a 00		 push	 0
  00132	6a 00		 push	 0
  00134	57		 push	 edi
  00135	f2 0f 58 05 00
	00 00 00	 addsd	 xmm0, QWORD PTR __real@3fe0000000000000
  0013d	f2 0f 2c c0	 cvttsd2si eax, xmm0
  00141	f3 0f 10 45 f0	 movss	 xmm0, DWORD PTR _my$[ebp]
  00146	0f 5a c0	 cvtps2pd xmm0, xmm0
  00149	89 47 18	 mov	 DWORD PTR [edi+24], eax
  0014c	f2 0f 58 05 00
	00 00 00	 addsd	 xmm0, QWORD PTR __real@3fe0000000000000
  00154	f2 0f 2c c0	 cvttsd2si eax, xmm0
  00158	89 47 1c	 mov	 DWORD PTR [edi+28], eax
  0015b	e8 00 00 00 00	 call	 ?pattern@@YAHPAUaction@@HH@Z ; pattern

; 3144 : 
; 3145 : 		// ??????????????
; 3146 : 		setCharPrio( ptAct->bmpNo, ptAct->x, ptAct->y, 0, 0, ptAct->mx+dx, ptAct->my+dy );

  00160	f3 0f 10 87 1c
	01 00 00	 movss	 xmm0, DWORD PTR [edi+284]
  00168	83 c4 14	 add	 esp, 20			; 00000014H
  0016b	f3 0f 58 45 fc	 addss	 xmm0, DWORD PTR _dy$[ebp]
  00170	f3 0f 11 44 24
	04		 movss	 DWORD PTR [esp+4], xmm0
  00176	f3 0f 10 87 18
	01 00 00	 movss	 xmm0, DWORD PTR [edi+280]
  0017e	f3 0f 58 45 f8	 addss	 xmm0, DWORD PTR _dx$[ebp]
  00183	f3 0f 11 04 24	 movss	 DWORD PTR [esp], xmm0
  00188	6a 00		 push	 0
  0018a	6a 00		 push	 0
  0018c	ff 77 1c	 push	 DWORD PTR [edi+28]
  0018f	ff 77 18	 push	 DWORD PTR [edi+24]
  00192	ff b7 9c 00 00
	00		 push	 DWORD PTR [edi+156]
  00198	e8 00 00 00 00	 call	 ?setCharPrio@@YAXHHHHHMM@Z ; setCharPrio

; 3147 : 		angle += 120;

  0019d	f3 0f 10 45 08	 movss	 xmm0, DWORD PTR _angle$[ebp]

; 3148 : 		AdjustDir( &angle );

  001a2	8d 45 08	 lea	 eax, DWORD PTR _angle$[ebp]
  001a5	f3 0f 58 05 00
	00 00 00	 addss	 xmm0, DWORD PTR __real@42f00000
  001ad	50		 push	 eax
  001ae	f3 0f 11 45 08	 movss	 DWORD PTR _angle$[ebp], xmm0
  001b3	e8 00 00 00 00	 call	 ?AdjustDir@@YAXPAM@Z	; AdjustDir
  001b8	83 c4 20	 add	 esp, 32			; 00000020H
  001bb	83 eb 01	 sub	 ebx, 1
  001be	74 0a		 je	 SHORT $LN16@petCircleO

; 3132 : 	for( i = 0; i < 3; i++ )

  001c0	f3 0f 10 45 08	 movss	 xmm0, DWORD PTR _angle$[ebp]
  001c5	e9 e6 fe ff ff	 jmp	 $LL4@petCircleO
$LN16@petCircleO:

; 3149 : 	}
; 3150 : 
; 3151 : 	return FALSE;

  001ca	5b		 pop	 ebx
  001cb	5f		 pop	 edi

; 3152 : }

  001cc	33 c0		 xor	 eax, eax
  001ce	5e		 pop	 esi
  001cf	8b e5		 mov	 esp, ebp
  001d1	5d		 pop	 ebp
  001d2	c3		 ret	 0
?petCircleOutProc@@YAHPAUaction@@@Z ENDP		; petCircleOutProc
_TEXT	ENDS
; Function compile flags: /Ogtp
; File C:\Users\gg862\OneDrive\¹ÙÅÁ È­¸é\¸¾Äí¿Ï·á\Client Source Code1.31ÀÏº»\system\character.cpp
;	COMDAT ?uprisePetProc@@YAHPAUaction@@@Z
_TEXT	SEGMENT
_ptAct$ = 8						; size = 4
?uprisePetProc@@YAHPAUaction@@@Z PROC			; uprisePetProc, COMDAT

; 3073 : {

  00000	55		 push	 ebp
  00001	8b ec		 mov	 ebp, esp
  00003	56		 push	 esi
  00004	57		 push	 edi

; 3074 : 	PETEXTRA *pe = (PETEXTRA *)ptAct->pYobi;

  00005	8b 7d 08	 mov	 edi, DWORD PTR _ptAct$[ebp]
  00008	8b 77 0c	 mov	 esi, DWORD PTR [edi+12]

; 3075 : 
; 3076 : 	if( pe->ptAct == NULL && pe->createTime < TimeGetTime() )

  0000b	83 7e 18 00	 cmp	 DWORD PTR [esi+24], 0
  0000f	75 2f		 jne	 SHORT $LN2@uprisePetP
  00011	e8 00 00 00 00	 call	 ?TimeGetTime@@YAIXZ	; TimeGetTime
  00016	39 46 14	 cmp	 DWORD PTR [esi+20], eax
  00019	73 25		 jae	 SHORT $LN2@uprisePetP

; 3077 : 	{
; 3078 : 		pe->ptAct = createCommmonEffectNoLoop( SPR_difence, ptAct->gx, ptAct->gy,

  0001b	0f b6 47 15	 movzx	 eax, BYTE PTR [edi+21]
  0001f	50		 push	 eax
  00020	6a 00		 push	 0
  00022	6a 00		 push	 0
  00024	ff b7 b8 00 00
	00		 push	 DWORD PTR [edi+184]
  0002a	ff b7 b4 00 00
	00		 push	 DWORD PTR [edi+180]
  00030	68 02 89 01 00	 push	 100610			; 00018902H
  00035	e8 00 00 00 00	 call	 ?createCommmonEffectNoLoop@@YAPAUaction@@HHHHHH@Z ; createCommmonEffectNoLoop
  0003a	83 c4 18	 add	 esp, 24			; 00000018H
  0003d	89 46 18	 mov	 DWORD PTR [esi+24], eax
$LN2@uprisePetP:

; 3079 : 			0, 0, ptAct->dispPrio );
; 3080 : 	}
; 3081 : 	if( pe->ptAct2 == NULL && pe->createTime+500 < TimeGetTime() )

  00040	83 7e 1c 00	 cmp	 DWORD PTR [esi+28], 0
  00044	75 37		 jne	 SHORT $LN3@uprisePetP
  00046	e8 00 00 00 00	 call	 ?TimeGetTime@@YAIXZ	; TimeGetTime
  0004b	8b 4e 14	 mov	 ecx, DWORD PTR [esi+20]
  0004e	81 c1 f4 01 00
	00		 add	 ecx, 500		; 000001f4H
  00054	3b c8		 cmp	 ecx, eax
  00056	73 25		 jae	 SHORT $LN3@uprisePetP

; 3082 : 	{
; 3083 : 		pe->ptAct2 = createCommmonEffectNoLoop( SPR_difence, ptAct->gx, ptAct->gy,

  00058	0f b6 47 15	 movzx	 eax, BYTE PTR [edi+21]
  0005c	50		 push	 eax
  0005d	6a 00		 push	 0
  0005f	6a 00		 push	 0
  00061	ff b7 b8 00 00
	00		 push	 DWORD PTR [edi+184]
  00067	ff b7 b4 00 00
	00		 push	 DWORD PTR [edi+180]
  0006d	68 02 89 01 00	 push	 100610			; 00018902H
  00072	e8 00 00 00 00	 call	 ?createCommmonEffectNoLoop@@YAPAUaction@@HHHHHH@Z ; createCommmonEffectNoLoop
  00077	83 c4 18	 add	 esp, 24			; 00000018H
  0007a	89 46 1c	 mov	 DWORD PTR [esi+28], eax
$LN3@uprisePetP:

; 3084 : 			0, 0, ptAct->dispPrio );
; 3085 : 	}
; 3086 : 
; 3087 : 	// ?î¾??????î????
; 3088 : 	if( pe->createTime+1200 < TimeGetTime() )

  0007d	e8 00 00 00 00	 call	 ?TimeGetTime@@YAIXZ	; TimeGetTime
  00082	8b 4e 14	 mov	 ecx, DWORD PTR [esi+20]
  00085	81 c1 b0 04 00
	00		 add	 ecx, 1200		; 000004b0H
  0008b	3b c8		 cmp	 ecx, eax
  0008d	73 11		 jae	 SHORT $LN6@uprisePetP

; 3089 : 	{
; 3090 : 		restorePtActCharObj( pe->id );

  0008f	ff 76 28	 push	 DWORD PTR [esi+40]
  00092	e8 00 00 00 00	 call	 ?restorePtActCharObj@@YAXH@Z ; restorePtActCharObj

; 3091 : 		DeathAction( ptAct );

  00097	57		 push	 edi
  00098	e8 00 00 00 00	 call	 ?DeathAction@@YAXPAUaction@@@Z ; DeathAction
  0009d	83 c4 08	 add	 esp, 8
$LN6@uprisePetP:

; 3092 : 		ptAct = NULL;
; 3093 : 	}
; 3094 : 
; 3095 : 	return FALSE;
; 3096 : }

  000a0	5f		 pop	 edi
  000a1	33 c0		 xor	 eax, eax
  000a3	5e		 pop	 esi
  000a4	5d		 pop	 ebp
  000a5	c3		 ret	 0
?uprisePetProc@@YAHPAUaction@@@Z ENDP			; uprisePetProc
_TEXT	ENDS
; Function compile flags: /Ogtp
; File C:\Users\gg862\OneDrive\¹ÙÅÁ È­¸é\¸¾Äí¿Ï·á\Client Source Code1.31ÀÏº»\system\character.cpp
;	COMDAT ?petMoveProc@@YAHPAUaction@@@Z
_TEXT	SEGMENT
_ptAct$ = 8						; size = 4
?petMoveProc@@YAHPAUaction@@@Z PROC			; petMoveProc, COMDAT

; 3022 : {

  00000	55		 push	 ebp
  00001	8b ec		 mov	 ebp, esp

; 3023 : 	PETEXTRA *pe = (PETEXTRA *)ptAct->pYobi;
; 3024 : 
; 3025 : 	// îœª???î??????î?
; 3026 : 	// ?î’•??8î¾?î¯????î?
; 3027 : 	if( ABS( ptAct->gx - nowGx ) >= 13
; 3028 : 	 || ABS( ptAct->gy - nowGy ) >= 13
; 3029 : 	 || (pe->createTime+8000 < TimeGetTime() && ptAct->vx == 0 && ptAct->vy == 0) )

  00003	a1 00 00 00 00	 mov	 eax, DWORD PTR ?nowGx@@3HA ; nowGx
  00008	56		 push	 esi
  00009	8b 75 08	 mov	 esi, DWORD PTR _ptAct$[ebp]
  0000c	57		 push	 edi
  0000d	8b 96 b4 00 00
	00		 mov	 edx, DWORD PTR [esi+180]
  00013	8b ca		 mov	 ecx, edx
  00015	2b c8		 sub	 ecx, eax
  00017	8b 7e 0c	 mov	 edi, DWORD PTR [esi+12]
  0001a	79 04		 jns	 SHORT $LN10@petMovePro
  0001c	2b c2		 sub	 eax, edx
  0001e	eb 02		 jmp	 SHORT $LN11@petMovePro
$LN10@petMovePro:
  00020	8b c1		 mov	 eax, ecx
$LN11@petMovePro:
  00022	83 f8 0d	 cmp	 eax, 13			; 0000000dH
  00025	0f 8d 59 01 00
	00		 jge	 $LN3@petMovePro
  0002b	8b 96 b8 00 00
	00		 mov	 edx, DWORD PTR [esi+184]
  00031	8b ca		 mov	 ecx, edx
  00033	a1 00 00 00 00	 mov	 eax, DWORD PTR ?nowGy@@3HA ; nowGy
  00038	2b c8		 sub	 ecx, eax
  0003a	79 04		 jns	 SHORT $LN12@petMovePro
  0003c	2b c2		 sub	 eax, edx
  0003e	eb 02		 jmp	 SHORT $LN13@petMovePro
$LN12@petMovePro:
  00040	8b c1		 mov	 eax, ecx
$LN13@petMovePro:
  00042	83 f8 0d	 cmp	 eax, 13			; 0000000dH
  00045	0f 8d 39 01 00
	00		 jge	 $LN3@petMovePro
  0004b	e8 00 00 00 00	 call	 ?TimeGetTime@@YAIXZ	; TimeGetTime
  00050	8b 4f 14	 mov	 ecx, DWORD PTR [edi+20]
  00053	0f 57 c9	 xorps	 xmm1, xmm1
  00056	81 c1 40 1f 00
	00		 add	 ecx, 8000		; 00001f40H
  0005c	3b c8		 cmp	 ecx, eax
  0005e	73 26		 jae	 SHORT $LN2@petMovePro
  00060	f3 0f 10 86 20
	01 00 00	 movss	 xmm0, DWORD PTR [esi+288]
  00068	0f 2e c1	 ucomiss xmm0, xmm1
  0006b	9f		 lahf
  0006c	f6 c4 44	 test	 ah, 68			; 00000044H
  0006f	7a 15		 jp	 SHORT $LN2@petMovePro
  00071	f3 0f 10 86 24
	01 00 00	 movss	 xmm0, DWORD PTR [esi+292]
  00079	0f 2e c1	 ucomiss xmm0, xmm1
  0007c	9f		 lahf
  0007d	f6 c4 44	 test	 ah, 68			; 00000044H
  00080	0f 8b fe 00 00
	00		 jnp	 $LN3@petMovePro
$LN2@petMovePro:

; 3035 : 	}
; 3036 : 
; 3037 : 	if( pe->ptAct == NULL && pe->createTime+7200 < TimeGetTime() )

  00086	83 7f 18 00	 cmp	 DWORD PTR [edi+24], 0
  0008a	75 37		 jne	 SHORT $LN4@petMovePro
  0008c	e8 00 00 00 00	 call	 ?TimeGetTime@@YAIXZ	; TimeGetTime
  00091	8b 4f 14	 mov	 ecx, DWORD PTR [edi+20]
  00094	81 c1 20 1c 00
	00		 add	 ecx, 7200		; 00001c20H
  0009a	3b c8		 cmp	 ecx, eax
  0009c	73 25		 jae	 SHORT $LN4@petMovePro

; 3038 : 	{
; 3039 : 		pe->ptAct = createCommmonEffectNoLoop( SPR_difence, ptAct->gx, ptAct->gy,

  0009e	0f b6 46 15	 movzx	 eax, BYTE PTR [esi+21]
  000a2	50		 push	 eax
  000a3	6a 00		 push	 0
  000a5	6a 00		 push	 0
  000a7	ff b6 b8 00 00
	00		 push	 DWORD PTR [esi+184]
  000ad	ff b6 b4 00 00
	00		 push	 DWORD PTR [esi+180]
  000b3	68 02 89 01 00	 push	 100610			; 00018902H
  000b8	e8 00 00 00 00	 call	 ?createCommmonEffectNoLoop@@YAPAUaction@@HHHHHH@Z ; createCommmonEffectNoLoop
  000bd	83 c4 18	 add	 esp, 24			; 00000018H
  000c0	89 47 18	 mov	 DWORD PTR [edi+24], eax
$LN4@petMovePro:

; 3040 : 			0, 0, ptAct->dispPrio );
; 3041 : 	}
; 3042 : 	if( pe->ptAct2 == NULL && pe->createTime+7500 < TimeGetTime() )

  000c3	83 7f 1c 00	 cmp	 DWORD PTR [edi+28], 0
  000c7	75 37		 jne	 SHORT $LN5@petMovePro
  000c9	e8 00 00 00 00	 call	 ?TimeGetTime@@YAIXZ	; TimeGetTime
  000ce	8b 4f 14	 mov	 ecx, DWORD PTR [edi+20]
  000d1	81 c1 4c 1d 00
	00		 add	 ecx, 7500		; 00001d4cH
  000d7	3b c8		 cmp	 ecx, eax
  000d9	73 25		 jae	 SHORT $LN5@petMovePro

; 3043 : 	{
; 3044 : 		pe->ptAct2 = createCommmonEffectNoLoop( SPR_difence, ptAct->gx, ptAct->gy,

  000db	0f b6 46 15	 movzx	 eax, BYTE PTR [esi+21]
  000df	50		 push	 eax
  000e0	6a 00		 push	 0
  000e2	6a 00		 push	 0
  000e4	ff b6 b8 00 00
	00		 push	 DWORD PTR [esi+184]
  000ea	ff b6 b4 00 00
	00		 push	 DWORD PTR [esi+180]
  000f0	68 02 89 01 00	 push	 100610			; 00018902H
  000f5	e8 00 00 00 00	 call	 ?createCommmonEffectNoLoop@@YAPAUaction@@HHHHHH@Z ; createCommmonEffectNoLoop
  000fa	83 c4 18	 add	 esp, 24			; 00000018H
  000fd	89 47 1c	 mov	 DWORD PTR [edi+28], eax
$LN5@petMovePro:

; 3045 : 			0, 0, ptAct->dispPrio );
; 3046 : 	}
; 3047 : 
; 3048 : 
; 3049 : 	if( ptAct->vx == 0 && ptAct->vy == 0 )

  00100	f3 0f 10 86 20
	01 00 00	 movss	 xmm0, DWORD PTR [esi+288]
  00108	0f 57 c9	 xorps	 xmm1, xmm1
  0010b	0f 2e c1	 ucomiss xmm0, xmm1
  0010e	9f		 lahf
  0010f	f6 c4 44	 test	 ah, 68			; 00000044H
  00112	7a 1a		 jp	 SHORT $LN6@petMovePro
  00114	f3 0f 10 86 24
	01 00 00	 movss	 xmm0, DWORD PTR [esi+292]
  0011c	0f 2e c1	 ucomiss xmm0, xmm1
  0011f	9f		 lahf
  00120	f6 c4 44	 test	 ah, 68			; 00000044H
  00123	7a 09		 jp	 SHORT $LN6@petMovePro

; 3050 : 	{
; 3051 : 		// ?î™®?îŽ·???????î–º???
; 3052 : 		getPetRoute( ptAct );

  00125	56		 push	 esi
  00126	e8 00 00 00 00	 call	 ?getPetRoute@@YAXPAUaction@@@Z ; getPetRoute
  0012b	83 c4 04	 add	 esp, 4
$LN6@petMovePro:

; 3053 : 	}
; 3054 : 	charMove( ptAct );

  0012e	56		 push	 esi
  0012f	e8 00 00 00 00	 call	 ?charMove@@YAXPAUaction@@@Z ; charMove

; 3055 : 
; 3056 : 	if( pe->ptAct != NULL )

  00134	8b 4f 18	 mov	 ecx, DWORD PTR [edi+24]
  00137	83 c4 04	 add	 esp, 4
  0013a	85 c9		 test	 ecx, ecx
  0013c	74 1b		 je	 SHORT $LN7@petMovePro

; 3057 : 	{
; 3058 : 		pe->ptAct->mx = ptAct->mx;

  0013e	8b 86 18 01 00
	00		 mov	 eax, DWORD PTR [esi+280]
  00144	89 81 18 01 00
	00		 mov	 DWORD PTR [ecx+280], eax

; 3059 : 		pe->ptAct->my = ptAct->my;

  0014a	8b 4f 18	 mov	 ecx, DWORD PTR [edi+24]
  0014d	8b 86 1c 01 00
	00		 mov	 eax, DWORD PTR [esi+284]
  00153	89 81 1c 01 00
	00		 mov	 DWORD PTR [ecx+284], eax
$LN7@petMovePro:

; 3060 : 	}
; 3061 : 	if( pe->ptAct2 != NULL )

  00159	8b 4f 1c	 mov	 ecx, DWORD PTR [edi+28]
  0015c	85 c9		 test	 ecx, ecx
  0015e	74 1b		 je	 SHORT $LN8@petMovePro

; 3062 : 	{
; 3063 : 		pe->ptAct2->mx = ptAct->mx;

  00160	8b 86 18 01 00
	00		 mov	 eax, DWORD PTR [esi+280]
  00166	89 81 18 01 00
	00		 mov	 DWORD PTR [ecx+280], eax

; 3064 : 		pe->ptAct2->my = ptAct->my;

  0016c	8b 4f 1c	 mov	 ecx, DWORD PTR [edi+28]
  0016f	8b 86 1c 01 00
	00		 mov	 eax, DWORD PTR [esi+284]
  00175	89 81 1c 01 00
	00		 mov	 DWORD PTR [ecx+284], eax
$LN8@petMovePro:

; 3065 : 	}
; 3066 : 
; 3067 : 	return TRUE;

  0017b	5f		 pop	 edi
  0017c	b8 01 00 00 00	 mov	 eax, 1

; 3068 : }

  00181	5e		 pop	 esi
  00182	5d		 pop	 ebp
  00183	c3		 ret	 0
$LN3@petMovePro:

; 3030 : 	{
; 3031 : 		restorePtActCharObj( pe->id );

  00184	ff 77 28	 push	 DWORD PTR [edi+40]
  00187	e8 00 00 00 00	 call	 ?restorePtActCharObj@@YAXH@Z ; restorePtActCharObj

; 3032 : 		DeathAction( ptAct );

  0018c	56		 push	 esi
  0018d	e8 00 00 00 00	 call	 ?DeathAction@@YAXPAUaction@@@Z ; DeathAction
  00192	83 c4 08	 add	 esp, 8

; 3033 : 		ptAct = NULL;
; 3034 : 		return FALSE;

  00195	33 c0		 xor	 eax, eax
  00197	5f		 pop	 edi

; 3068 : }

  00198	5e		 pop	 esi
  00199	5d		 pop	 ebp
  0019a	c3		 ret	 0
?petMoveProc@@YAHPAUaction@@@Z ENDP			; petMoveProc
_TEXT	ENDS
; Function compile flags: /Ogtp
; File C:\Users\gg862\OneDrive\¹ÙÅÁ È­¸é\¸¾Äí¿Ï·á\Client Source Code1.31ÀÏº»\system\character.cpp
;	COMDAT ?getPetRoute@@YAXPAUaction@@@Z
_TEXT	SEGMENT
_gx$1$ = -16						; size = 4
_dy$ = -12						; size = 4
_dx$ = -8						; size = 4
_dir$1$ = -4						; size = 4
_dir$ = -4						; size = 2
_ptAct$ = 8						; size = 4
?getPetRoute@@YAXPAUaction@@@Z PROC			; getPetRoute, COMDAT

; 2950 : {

  00000	55		 push	 ebp
  00001	8b ec		 mov	 ebp, esp
  00003	83 ec 10	 sub	 esp, 16			; 00000010H
  00006	53		 push	 ebx

; 2951 : 	short dir;
; 2952 : 	int i;
; 2953 : 	int dx, dy;
; 2954 : 	int gx, gy;
; 2955 : 	PETEXTRA *pe;
; 2956 : 
; 2957 : 	if( ptAct->bufCount > 0 )

  00007	8b 5d 08	 mov	 ebx, DWORD PTR _ptAct$[ebp]
  0000a	66 83 bb 14 01
	00 00 00	 cmp	 WORD PTR [ebx+276], 0
  00012	0f 8f 2f 01 00
	00		 jg	 $LN7@getPetRout

; 2958 : 		return;
; 2959 : 
; 2960 : 	// ???îœ˜î˜‹?????????
; 2961 : 	if( nowGx != oldGx || nowGy != oldGy )

  00018	a1 00 00 00 00	 mov	 eax, DWORD PTR ?nowGx@@3HA ; nowGx
  0001d	3b 05 00 00 00
	00		 cmp	 eax, DWORD PTR ?oldGx@@3HA ; oldGx
  00023	0f 85 1e 01 00
	00		 jne	 $LN7@getPetRout
  00029	a1 00 00 00 00	 mov	 eax, DWORD PTR ?nowGy@@3HA ; nowGy
  0002e	3b 05 00 00 00
	00		 cmp	 eax, DWORD PTR ?oldGy@@3HA ; oldGy
  00034	0f 85 0d 01 00
	00		 jne	 $LN7@getPetRout

; 2962 : 		return;
; 2963 : 
; 2964 : 	pe = (PETEXTRA *)ptAct->pYobi;

  0003a	56		 push	 esi
  0003b	8b 73 0c	 mov	 esi, DWORD PTR [ebx+12]
  0003e	57		 push	 edi

; 2965 : 
; 2966 : 	dir = pe->moveDir;
; 2967 : 
; 2968 : 	for( i = 0; i < 4; i++ )

  0003f	33 ff		 xor	 edi, edi
  00041	0f b7 46 02	 movzx	 eax, WORD PTR [esi+2]
$LN27@getPetRout:

; 2969 : 	{
; 2970 : 		getRouteData( dir, &dx, &dy );

  00045	8d 4d f4	 lea	 ecx, DWORD PTR _dy$[ebp]
  00048	89 45 fc	 mov	 DWORD PTR _dir$1$[ebp], eax
  0004b	51		 push	 ecx
  0004c	8d 4d f8	 lea	 ecx, DWORD PTR _dx$[ebp]
  0004f	98		 cwde
  00050	51		 push	 ecx
  00051	50		 push	 eax
  00052	e8 00 00 00 00	 call	 ?getRouteData@@YAXHPAH0@Z ; getRouteData

; 2971 : 		gx = ptAct->gx+dx;

  00057	8b 83 b4 00 00
	00		 mov	 eax, DWORD PTR [ebx+180]
  0005d	83 c4 0c	 add	 esp, 12			; 0000000cH
  00060	03 45 f8	 add	 eax, DWORD PTR _dx$[ebp]

; 2972 : 		gy = ptAct->gy+dy;

  00063	8b 9b b8 00 00
	00		 mov	 ebx, DWORD PTR [ebx+184]
  00069	03 5d f4	 add	 ebx, DWORD PTR _dy$[ebp]
  0006c	89 45 f0	 mov	 DWORD PTR _gx$1$[ebp], eax

; 2973 : 		if( (gx != pe->preGx || gy != pe->preGy)
; 2974 : 		 && checkHitMap( gx, gy ) == FALSE )

  0006f	3b 46 08	 cmp	 eax, DWORD PTR [esi+8]
  00072	75 05		 jne	 SHORT $LN9@getPetRout
  00074	3b 5e 0c	 cmp	 ebx, DWORD PTR [esi+12]
  00077	74 0e		 je	 SHORT $LN8@getPetRout
$LN9@getPetRout:
  00079	53		 push	 ebx
  0007a	50		 push	 eax
  0007b	e8 00 00 00 00	 call	 ?checkHitMap@@YAHHH@Z	; checkHitMap
  00080	83 c4 08	 add	 esp, 8
  00083	85 c0		 test	 eax, eax
  00085	74 4c		 je	 SHORT $LN10@getPetRout
$LN8@getPetRout:

; 2975 : 		{
; 2976 : 			break;
; 2977 : 		}
; 2978 : 		dir += (2*(i+1));

  00087	8b 45 fc	 mov	 eax, DWORD PTR _dir$1$[ebp]
  0008a	8d 04 78	 lea	 eax, DWORD PTR [eax+edi*2]
  0008d	83 c0 02	 add	 eax, 2
  00090	89 45 fc	 mov	 DWORD PTR _dir$[ebp], eax

; 2979 : 		ajustClientDir( &dir );

  00093	8d 45 fc	 lea	 eax, DWORD PTR _dir$[ebp]
  00096	50		 push	 eax
  00097	e8 00 00 00 00	 call	 ?ajustClientDir@@YAXPAF@Z ; ajustClientDir
  0009c	47		 inc	 edi
  0009d	83 c4 04	 add	 esp, 4
  000a0	83 ff 04	 cmp	 edi, 4
  000a3	7d 08		 jge	 SHORT $LN24@getPetRout

; 2965 : 
; 2966 : 	dir = pe->moveDir;
; 2967 : 
; 2968 : 	for( i = 0; i < 4; i++ )

  000a5	8b 45 fc	 mov	 eax, DWORD PTR _dir$[ebp]
  000a8	8b 5d 08	 mov	 ebx, DWORD PTR _ptAct$[ebp]
  000ab	eb 98		 jmp	 SHORT $LN27@getPetRout
$LN24@getPetRout:

; 2980 : 	}
; 2981 : 
; 2982 : 	if( i >= 4 )
; 2983 : 	{
; 2984 : 		pe->preGx = -1;
; 2985 : 		pe->preGy = -1;
; 2986 : 		pe->moveDir -= 2;

  000ad	66 83 46 02 fe	 add	 WORD PTR [esi+2], -2	; fffffffeH
  000b2	8d 46 02	 lea	 eax, DWORD PTR [esi+2]

; 2987 : 		ajustClientDir( &pe->moveDir );

  000b5	50		 push	 eax
  000b6	c7 46 08 ff ff
	ff ff		 mov	 DWORD PTR [esi+8], -1
  000bd	c7 46 0c ff ff
	ff ff		 mov	 DWORD PTR [esi+12], -1
  000c4	e8 00 00 00 00	 call	 ?ajustClientDir@@YAXPAF@Z ; ajustClientDir
  000c9	83 c4 04	 add	 esp, 4
  000cc	5f		 pop	 edi
  000cd	5e		 pop	 esi
  000ce	5b		 pop	 ebx

; 3015 : 
; 3016 : 	return;
; 3017 : }

  000cf	8b e5		 mov	 esp, ebp
  000d1	5d		 pop	 ebp
  000d2	c3		 ret	 0
$LN10@getPetRout:

; 2988 : 		return;
; 2989 : 	}
; 2990 : 
; 2991 : 	if( pe->dirCnt >= 2 )

  000d3	66 83 7e 06 02	 cmp	 WORD PTR [esi+6], 2
  000d8	7c 17		 jl	 SHORT $LN11@getPetRout

; 2992 : 	{
; 2993 : 		pe->dirCnt = 0;
; 2994 : 		pe->moveDir -= 6;

  000da	66 83 46 02 fa	 add	 WORD PTR [esi+2], -6	; fffffffaH
  000df	33 c0		 xor	 eax, eax
  000e1	66 89 46 06	 mov	 WORD PTR [esi+6], ax
  000e5	8d 46 02	 lea	 eax, DWORD PTR [esi+2]

; 2995 : 		ajustClientDir( &pe->moveDir );

  000e8	50		 push	 eax
  000e9	e8 00 00 00 00	 call	 ?ajustClientDir@@YAXPAF@Z ; ajustClientDir
  000ee	83 c4 04	 add	 esp, 4
$LN11@getPetRout:

; 2996 : 	}
; 2997 : 
; 2998 : 	if( dir != pe->preDir )

  000f1	8b 45 fc	 mov	 eax, DWORD PTR _dir$1$[ebp]
  000f4	66 3b 46 04	 cmp	 ax, WORD PTR [esi+4]
  000f8	74 06		 je	 SHORT $LN12@getPetRout

; 2999 : 	{
; 3000 : 		pe->dirCnt++;

  000fa	66 ff 46 06	 inc	 WORD PTR [esi+6]

; 3001 : 	}

  000fe	eb 06		 jmp	 SHORT $LN13@getPetRout
$LN12@getPetRout:

; 3002 : 	else
; 3003 : 	{
; 3004 : 		pe->dirCnt = 0;

  00100	33 c9		 xor	 ecx, ecx
  00102	66 89 4e 06	 mov	 WORD PTR [esi+6], cx
$LN13@getPetRout:

; 3005 : 	}
; 3006 : 
; 3007 : 	pe->preDir = dir;
; 3008 : 
; 3009 : 	ptAct->bufGx[ptAct->bufCount] = gx;

  00106	8b 4d 08	 mov	 ecx, DWORD PTR _ptAct$[ebp]
  00109	8b 55 f0	 mov	 edx, DWORD PTR _gx$1$[ebp]
  0010c	66 89 46 04	 mov	 WORD PTR [esi+4], ax
  00110	5f		 pop	 edi
  00111	0f bf 81 14 01
	00 00		 movsx	 eax, WORD PTR [ecx+276]
  00118	89 94 81 c4 00
	00 00		 mov	 DWORD PTR [ecx+eax*4+196], edx

; 3010 : 	ptAct->bufGy[ptAct->bufCount] = gy;

  0011f	0f bf 81 14 01
	00 00		 movsx	 eax, WORD PTR [ecx+276]
  00126	89 9c 81 ec 00
	00 00		 mov	 DWORD PTR [ecx+eax*4+236], ebx

; 3011 : 	ptAct->bufCount++;
; 3012 : 
; 3013 : 	pe->preGx = ptAct->gx;

  0012d	8b 81 b4 00 00
	00		 mov	 eax, DWORD PTR [ecx+180]
  00133	66 ff 81 14 01
	00 00		 inc	 WORD PTR [ecx+276]
  0013a	89 46 08	 mov	 DWORD PTR [esi+8], eax

; 3014 : 	pe->preGy = ptAct->gy;

  0013d	8b 81 b8 00 00
	00		 mov	 eax, DWORD PTR [ecx+184]
  00143	89 46 0c	 mov	 DWORD PTR [esi+12], eax
  00146	5e		 pop	 esi
$LN7@getPetRout:
  00147	5b		 pop	 ebx

; 3015 : 
; 3016 : 	return;
; 3017 : }

  00148	8b e5		 mov	 esp, ebp
  0014a	5d		 pop	 ebp
  0014b	c3		 ret	 0
?getPetRoute@@YAXPAUaction@@@Z ENDP			; getPetRoute
_TEXT	ENDS
; Function compile flags: /Ogtp
; File C:\Users\gg862\OneDrive\¹ÙÅÁ È­¸é\¸¾Äí¿Ï·á\Client Source Code1.31ÀÏº»\system\character.cpp
;	COMDAT ?limitCantClientDir@@YAXPAF@Z
_TEXT	SEGMENT
_dir$ = 8						; size = 4
?limitCantClientDir@@YAXPAF@Z PROC			; limitCantClientDir, COMDAT

; 2920 : {

  00000	55		 push	 ebp
  00001	8b ec		 mov	 ebp, esp

; 2921 : 	// dir?????î½?????????
; 2922 : 	if( ((*dir) % 2) == 0 )

  00003	8b 4d 08	 mov	 ecx, DWORD PTR _dir$[ebp]
  00006	0f b7 01	 movzx	 eax, WORD PTR [ecx]
  00009	a8 01		 test	 al, 1
  0000b	75 04		 jne	 SHORT $LN2@limitCantC

; 2923 : 	{
; 2924 : 		(*dir)++;

  0000d	40		 inc	 eax
  0000e	66 89 01	 mov	 WORD PTR [ecx], ax
$LN2@limitCantC:

; 2925 : 	}
; 2926 : }

  00011	5d		 pop	 ebp
  00012	c3		 ret	 0
?limitCantClientDir@@YAXPAF@Z ENDP			; limitCantClientDir
_TEXT	ENDS
; Function compile flags: /Ogtp
; File C:\Users\gg862\OneDrive\¹ÙÅÁ È­¸é\¸¾Äí¿Ï·á\Client Source Code1.31ÀÏº»\system\character.cpp
;	COMDAT ?searchCharObjId@@YAHH@Z
_TEXT	SEGMENT
_id$ = 8						; size = 4
?searchCharObjId@@YAHH@Z PROC				; searchCharObjId, COMDAT

; 2039 : {

  00000	55		 push	 ebp
  00001	8b ec		 mov	 ebp, esp

; 2040 : 	int i;
; 2041 : 	int no = -1;
; 2042 : 	for( i = searchCharObj; i < tailCharObj; i++ ){

  00003	8b 15 00 00 00
	00		 mov	 edx, DWORD PTR ?searchCharObj@@3HA ; searchCharObj
  00009	8b ca		 mov	 ecx, edx
  0000b	53		 push	 ebx
  0000c	8b 1d 00 00 00
	00		 mov	 ebx, DWORD PTR ?tailCharObj@@3HA ; tailCharObj
  00012	56		 push	 esi
  00013	8b 75 08	 mov	 esi, DWORD PTR _id$[ebp]
  00016	57		 push	 edi
  00017	83 cf ff	 or	 edi, -1
  0001a	3b cb		 cmp	 ecx, ebx
  0001c	7d 37		 jge	 SHORT $LN23@searchChar
  0001e	69 c1 0c 01 00
	00		 imul	 eax, ecx, 268
  00024	05 04 00 00 00	 add	 eax, OFFSET ?charObj@@3PAUCHAROBJ@@A+4
  00029	0f 1f 80 00 00
	00 00		 npad	 7
$LL4@searchChar:

; 2043 : 		if( charObj[i].use != CHAROBJ_USE_FREE && charObj[i].id == id ){

  00030	66 83 78 fc 00	 cmp	 WORD PTR [eax-4], 0
  00035	74 04		 je	 SHORT $LN2@searchChar
  00037	39 30		 cmp	 DWORD PTR [eax], esi
  00039	74 0c		 je	 SHORT $LN14@searchChar
$LN2@searchChar:

; 2040 : 	int i;
; 2041 : 	int no = -1;
; 2042 : 	for( i = searchCharObj; i < tailCharObj; i++ ){

  0003b	41		 inc	 ecx
  0003c	05 0c 01 00 00	 add	 eax, 268		; 0000010cH
  00041	3b cb		 cmp	 ecx, ebx
  00043	7c eb		 jl	 SHORT $LL4@searchChar
  00045	eb 0e		 jmp	 SHORT $LN23@searchChar
$LN14@searchChar:

; 2044 : 			no = i;
; 2045 : 			searchCharObj = i;

  00047	8b d1		 mov	 edx, ecx
  00049	8b f9		 mov	 edi, ecx
  0004b	89 15 00 00 00
	00		 mov	 DWORD PTR ?searchCharObj@@3HA, edx ; searchCharObj

; 2046 : 			break;
; 2047 : 		}
; 2048 : 	}
; 2049 : 	if( no < 0 && searchCharObj > 0 ){

  00051	85 c9		 test	 ecx, ecx
  00053	79 24		 jns	 SHORT $LN28@searchChar
$LN23@searchChar:
  00055	85 d2		 test	 edx, edx
  00057	7e 20		 jle	 SHORT $LN28@searchChar

; 2050 : 		for( i = 0; i < searchCharObj; i++ ){

  00059	33 c9		 xor	 ecx, ecx
  0005b	85 d2		 test	 edx, edx
  0005d	7e 1a		 jle	 SHORT $LN28@searchChar
  0005f	b8 04 00 00 00	 mov	 eax, OFFSET ?charObj@@3PAUCHAROBJ@@A+4
$LL7@searchChar:

; 2051 : 			if( charObj[i].use != CHAROBJ_USE_FREE && charObj[i].id == id ){

  00064	66 83 78 fc 00	 cmp	 WORD PTR [eax-4], 0
  00069	74 04		 je	 SHORT $LN5@searchChar
  0006b	39 30		 cmp	 DWORD PTR [eax], esi
  0006d	74 11		 je	 SHORT $LN15@searchChar
$LN5@searchChar:

; 2050 : 		for( i = 0; i < searchCharObj; i++ ){

  0006f	41		 inc	 ecx
  00070	05 0c 01 00 00	 add	 eax, 268		; 0000010cH
  00075	3b ca		 cmp	 ecx, edx
  00077	7c eb		 jl	 SHORT $LL7@searchChar
$LN28@searchChar:

; 2052 : 				no = i;
; 2053 : 				searchCharObj = i;
; 2054 : 				break;
; 2055 : 			}
; 2056 : 		}
; 2057 : 	}
; 2058 : 	return no;
; 2059 : }

  00079	8b c7		 mov	 eax, edi
  0007b	5f		 pop	 edi
  0007c	5e		 pop	 esi
  0007d	5b		 pop	 ebx
  0007e	5d		 pop	 ebp
  0007f	c3		 ret	 0
$LN15@searchChar:
  00080	5f		 pop	 edi
  00081	5e		 pop	 esi
  00082	89 0d 00 00 00
	00		 mov	 DWORD PTR ?searchCharObj@@3HA, ecx ; searchCharObj
  00088	8b c1		 mov	 eax, ecx
  0008a	5b		 pop	 ebx
  0008b	5d		 pop	 ebp
  0008c	c3		 ret	 0
?searchCharObjId@@YAHH@Z ENDP				; searchCharObjId
_TEXT	ENDS
; Function compile flags: /Ogtp
; File C:\Users\gg862\OneDrive\¹ÙÅÁ È­¸é\¸¾Äí¿Ï·á\Client Source Code1.31ÀÏº»\system\character.cpp
;	COMDAT ?commmonEffectNoLoop@@YAXPAUaction@@@Z
_TEXT	SEGMENT
_my$ = -4						; size = 4
_mx$ = 8						; size = 4
_ptAct$ = 8						; size = 4
?commmonEffectNoLoop@@YAXPAUaction@@@Z PROC		; commmonEffectNoLoop, COMDAT

; 1637 : {

  00000	55		 push	 ebp
  00001	8b ec		 mov	 ebp, esp
  00003	51		 push	 ecx
  00004	56		 push	 esi

; 1638 : 	float mx, my;
; 1639 : 	// ?î¡¡î¸î•?î–º
; 1640 : 	camMapToGamen( ptAct->mx, ptAct->my, &mx, &my );

  00005	8b 75 08	 mov	 esi, DWORD PTR _ptAct$[ebp]
  00008	8d 45 fc	 lea	 eax, DWORD PTR _my$[ebp]
  0000b	50		 push	 eax
  0000c	8d 45 08	 lea	 eax, DWORD PTR _mx$[ebp]
  0000f	50		 push	 eax
  00010	f3 0f 10 86 1c
	01 00 00	 movss	 xmm0, DWORD PTR [esi+284]
  00018	83 ec 08	 sub	 esp, 8
  0001b	f3 0f 11 44 24
	04		 movss	 DWORD PTR [esp+4], xmm0
  00021	f3 0f 10 86 18
	01 00 00	 movss	 xmm0, DWORD PTR [esi+280]
  00029	f3 0f 11 04 24	 movss	 DWORD PTR [esp], xmm0
  0002e	e8 00 00 00 00	 call	 ?camMapToGamen@@YAXMMPAM0@Z ; camMapToGamen
  00033	f3 0f 10 45 08	 movss	 xmm0, DWORD PTR _mx$[ebp]

; 1641 : 	ptAct->x = (int)(mx+.5);

  00038	0f 5a c0	 cvtps2pd xmm0, xmm0

; 1642 : 	ptAct->y = (int)(my+.5);
; 1643 : 	// ?????????
; 1644 : 	if( pattern( ptAct, ANM_NOMAL_SPD, ANM_NO_LOOP ) == 0 )

  0003b	6a 01		 push	 1
  0003d	6a 00		 push	 0
  0003f	56		 push	 esi
  00040	f2 0f 58 05 00
	00 00 00	 addsd	 xmm0, QWORD PTR __real@3fe0000000000000
  00048	f2 0f 2c c0	 cvttsd2si eax, xmm0
  0004c	f3 0f 10 45 fc	 movss	 xmm0, DWORD PTR _my$[ebp]
  00051	0f 5a c0	 cvtps2pd xmm0, xmm0
  00054	89 46 18	 mov	 DWORD PTR [esi+24], eax
  00057	f2 0f 58 05 00
	00 00 00	 addsd	 xmm0, QWORD PTR __real@3fe0000000000000
  0005f	f2 0f 2c c0	 cvttsd2si eax, xmm0
  00063	89 46 1c	 mov	 DWORD PTR [esi+28], eax
  00066	e8 00 00 00 00	 call	 ?pattern@@YAHPAUaction@@HH@Z ; pattern
  0006b	83 c4 1c	 add	 esp, 28			; 0000001cH
  0006e	85 c0		 test	 eax, eax
  00070	75 3b		 jne	 SHORT $LN2@commmonEff

; 1645 : 		// ??????????????
; 1646 : 		setCharPrio( ptAct->bmpNo, ptAct->x, ptAct->y+1, 0, 0, ptAct->mx, ptAct->my );

  00072	f3 0f 10 86 1c
	01 00 00	 movss	 xmm0, DWORD PTR [esi+284]
  0007a	83 ec 08	 sub	 esp, 8
  0007d	f3 0f 11 44 24
	04		 movss	 DWORD PTR [esp+4], xmm0
  00083	f3 0f 10 86 18
	01 00 00	 movss	 xmm0, DWORD PTR [esi+280]
  0008b	f3 0f 11 04 24	 movss	 DWORD PTR [esp], xmm0
  00090	50		 push	 eax
  00091	50		 push	 eax
  00092	8b 46 1c	 mov	 eax, DWORD PTR [esi+28]
  00095	40		 inc	 eax
  00096	50		 push	 eax
  00097	ff 76 18	 push	 DWORD PTR [esi+24]
  0009a	ff b6 9c 00 00
	00		 push	 DWORD PTR [esi+156]
  000a0	e8 00 00 00 00	 call	 ?setCharPrio@@YAXHHHHHMM@Z ; setCharPrio
  000a5	83 c4 1c	 add	 esp, 28			; 0000001cH
  000a8	5e		 pop	 esi

; 1650 : 		ptAct = NULL;
; 1651 : 	}
; 1652 : }

  000a9	8b e5		 mov	 esp, ebp
  000ab	5d		 pop	 ebp
  000ac	c3		 ret	 0
$LN2@commmonEff:

; 1647 : 	else{
; 1648 : 		// ???????îŽ·??????????îŽ·??
; 1649 : 		DeathAction( ptAct );

  000ad	56		 push	 esi
  000ae	e8 00 00 00 00	 call	 ?DeathAction@@YAXPAUaction@@@Z ; DeathAction
  000b3	83 c4 04	 add	 esp, 4
  000b6	5e		 pop	 esi

; 1650 : 		ptAct = NULL;
; 1651 : 	}
; 1652 : }

  000b7	8b e5		 mov	 esp, ebp
  000b9	5d		 pop	 ebp
  000ba	c3		 ret	 0
?commmonEffectNoLoop@@YAXPAUaction@@@Z ENDP		; commmonEffectNoLoop
_TEXT	ENDS
; Function compile flags: /Ogtp
; File C:\Users\gg862\OneDrive\¹ÙÅÁ È­¸é\¸¾Äí¿Ï·á\Client Source Code1.31ÀÏº»\system\character.cpp
;	COMDAT ?CharbubbleRelease@@YAXXZ
_TEXT	SEGMENT
?CharbubbleRelease@@YAXXZ PROC				; CharbubbleRelease, COMDAT

; 1577 : 	if ( popAct != NULL )

  00000	a1 00 00 00 00	 mov	 eax, DWORD PTR ?popAct@@3PAUaction@@A
  00005	85 c0		 test	 eax, eax
  00007	74 13		 je	 SHORT $LN4@Charbubble

; 1578 : 	{
; 1579 : 		DeathAction(popAct);

  00009	50		 push	 eax
  0000a	e8 00 00 00 00	 call	 ?DeathAction@@YAXPAUaction@@@Z ; DeathAction
  0000f	83 c4 04	 add	 esp, 4

; 1580 : 		popAct = NULL;

  00012	c7 05 00 00 00
	00 00 00 00 00	 mov	 DWORD PTR ?popAct@@3PAUaction@@A, 0
$LN4@Charbubble:

; 1581 : 	}
; 1582 : 	popflag = false;
; 1583 : 	waittimeflag = false;  
; 1584 : }

  0001c	c6 05 00 00 00
	00 00		 mov	 BYTE PTR ?waittimeflag@@3_NA, 0 ; waittimeflag
  00023	c6 05 00 00 00
	00 00		 mov	 BYTE PTR ?popflag@@3_NA, 0 ; popflag
  0002a	c3		 ret	 0
?CharbubbleRelease@@YAXXZ ENDP				; CharbubbleRelease
_TEXT	ENDS
; Function compile flags: /Ogtp
; File C:\Users\gg862\OneDrive\¹ÙÅÁ È­¸é\¸¾Äí¿Ï·á\Client Source Code1.31ÀÏº»\system\character.cpp
;	COMDAT ?waterAniProc@@YAXPAUaction@@@Z
_TEXT	SEGMENT
_my$ = -20						; size = 4
_mx$ = -16						; size = 4
_yy$1 = -12						; size = 2
_xx$2 = -8						; size = 2
_hh$3 = -4						; size = 2
_no$1$ = 8						; size = 4
_ww$4 = 8						; size = 2
_no$ = 8						; size = 4
_ptAct$ = 8						; size = 4
?waterAniProc@@YAXPAUaction@@@Z PROC			; waterAniProc, COMDAT

; 202  : {

  00000	55		 push	 ebp
  00001	8b ec		 mov	 ebp, esp
  00003	83 ec 14	 sub	 esp, 20			; 00000014H
  00006	53		 push	 ebx
  00007	56		 push	 esi

; 203  : 	float mx, my;
; 204  : 	int animLoop;
; 205  : 	int no;
; 206  : 	CHAREXTRA *ext;
; 207  : 	int pFlag = 0;
; 208  : 	// ?î™®??
; 209  : 	// PC???????î˜î“·??î™®??
; 210  : 	// PC?????î™®????îš¼???????î™®??
; 211  : 	if( pc.ptAct != ptAct ){

  00008	8b 75 08	 mov	 esi, DWORD PTR _ptAct$[ebp]
  0000b	33 db		 xor	 ebx, ebx
  0000d	57		 push	 edi
  0000e	39 35 ec 50 00
	00		 cmp	 DWORD PTR ?pc@@3UPC@@A+20716, esi
  00014	0f 84 9c 00 00
	00		 je	 $LN28@waterAniPr

; 212  : 		ext = (CHAREXTRA *)ptAct->pYobi;
; 213  : 		no = ext->charObjTblId;

  0001a	8b 46 0c	 mov	 eax, DWORD PTR [esi+12]
  0001d	8b 00		 mov	 eax, DWORD PTR [eax]

; 214  : 		// ?????îš¼??????????????
; 215  : 		if( (charObj[no].status & CHR_STATUS_PARTY) == 0 ){

  0001f	69 f8 0c 01 00
	00		 imul	 edi, eax, 268
  00025	89 45 08	 mov	 DWORD PTR _no$1$[ebp], eax
  00028	f7 87 2c 00 00
	00 00 02 00 00	 test	 DWORD PTR ?charObj@@3PAUCHAROBJ@@A[edi+44], 512 ; 00000200H
  00032	75 0b		 jne	 SHORT $LN3@waterAniPr

; 216  : 			charMove( ptAct );

  00034	56		 push	 esi
  00035	e8 00 00 00 00	 call	 ?charMove@@YAXPAUaction@@@Z ; charMove
  0003a	83 c4 04	 add	 esp, 4

; 217  : 			pFlag = 0;
; 218  : 		}else

  0003d	eb 05		 jmp	 SHORT $LN4@waterAniPr
$LN3@waterAniPr:

; 219  : 			pFlag = 1;

  0003f	bb 01 00 00 00	 mov	 ebx, 1
$LN4@waterAniPr:

; 220  : 		if( ptAct->vx == 0 && ptAct->vy == 0 && charObj[no].stockDir != -1
; 221  : 		 && charObj[no].stockDirX == ptAct->gx && charObj[no].stockDirY == ptAct->gy ){

  00044	f3 0f 10 86 20
	01 00 00	 movss	 xmm0, DWORD PTR [esi+288]
  0004c	0f 57 c9	 xorps	 xmm1, xmm1
  0004f	0f 2e c1	 ucomiss xmm0, xmm1
  00052	9f		 lahf
  00053	f6 c4 44	 test	 ah, 68			; 00000044H
  00056	7a 64		 jp	 SHORT $LN5@waterAniPr
  00058	f3 0f 10 86 24
	01 00 00	 movss	 xmm0, DWORD PTR [esi+292]
  00060	0f 2e c1	 ucomiss xmm0, xmm1
  00063	9f		 lahf
  00064	f6 c4 44	 test	 ah, 68			; 00000044H
  00067	7a 53		 jp	 SHORT $LN5@waterAniPr
  00069	8b 8f 1c 00 00
	00		 mov	 ecx, DWORD PTR ?charObj@@3PAUCHAROBJ@@A[edi+28]
  0006f	83 f9 ff	 cmp	 ecx, -1
  00072	74 48		 je	 SHORT $LN5@waterAniPr
  00074	8b 87 20 00 00
	00		 mov	 eax, DWORD PTR ?charObj@@3PAUCHAROBJ@@A[edi+32]
  0007a	3b 86 b4 00 00
	00		 cmp	 eax, DWORD PTR [esi+180]
  00080	75 3a		 jne	 SHORT $LN5@waterAniPr
  00082	8b 87 24 00 00
	00		 mov	 eax, DWORD PTR ?charObj@@3PAUCHAROBJ@@A[edi+36]
  00088	3b 86 b8 00 00
	00		 cmp	 eax, DWORD PTR [esi+184]
  0008e	75 2c		 jne	 SHORT $LN5@waterAniPr

; 222  : 			ptAct->anim_ang = charObj[no].stockDir;

  00090	89 8e 54 01 00
	00		 mov	 DWORD PTR [esi+340], ecx

; 223  : 			charObj[no].stockDir = -1;

  00096	c7 87 1c 00 00
	00 ff ff ff ff	 mov	 DWORD PTR ?charObj@@3PAUCHAROBJ@@A[edi+28], -1

; 224  : 			charObj[no].stockDirX = 0;

  000a0	c7 87 20 00 00
	00 00 00 00 00	 mov	 DWORD PTR ?charObj@@3PAUCHAROBJ@@A[edi+32], 0

; 225  : 			charObj[no].stockDirY = 0;

  000aa	c7 87 24 00 00
	00 00 00 00 00	 mov	 DWORD PTR ?charObj@@3PAUCHAROBJ@@A[edi+36], 0
  000b4	eb 06		 jmp	 SHORT $LN5@waterAniPr
$LN28@waterAniPr:

; 203  : 	float mx, my;
; 204  : 	int animLoop;
; 205  : 	int no;
; 206  : 	CHAREXTRA *ext;
; 207  : 	int pFlag = 0;
; 208  : 	// ?î™®??
; 209  : 	// PC???????î˜î“·??î™®??
; 210  : 	// PC?????î™®????îš¼???????î™®??
; 211  : 	if( pc.ptAct != ptAct ){

  000b6	8b 45 08	 mov	 eax, DWORD PTR _no$[ebp]
  000b9	89 45 08	 mov	 DWORD PTR _no$1$[ebp], eax
$LN5@waterAniPr:

; 226  : 		}
; 227  : 	}
; 228  : 	// ?î¡¡î¸î•?î–º
; 229  : 	camMapToGamen( ptAct->mx, ptAct->my, &mx, &my );

  000bc	f3 0f 10 86 1c
	01 00 00	 movss	 xmm0, DWORD PTR [esi+284]
  000c4	8d 45 ec	 lea	 eax, DWORD PTR _my$[ebp]
  000c7	50		 push	 eax
  000c8	8d 45 f0	 lea	 eax, DWORD PTR _mx$[ebp]
  000cb	50		 push	 eax
  000cc	83 ec 08	 sub	 esp, 8
  000cf	f3 0f 11 44 24
	04		 movss	 DWORD PTR [esp+4], xmm0
  000d5	f3 0f 10 86 18
	01 00 00	 movss	 xmm0, DWORD PTR [esi+280]
  000dd	f3 0f 11 04 24	 movss	 DWORD PTR [esp], xmm0
  000e2	e8 00 00 00 00	 call	 ?camMapToGamen@@YAXMMPAM0@Z ; camMapToGamen
  000e7	f3 0f 10 45 f0	 movss	 xmm0, DWORD PTR _mx$[ebp]
  000ec	83 c4 10	 add	 esp, 16			; 00000010H

; 230  : 	ptAct->x = (int)(mx+.5);

  000ef	0f 5a c0	 cvtps2pd xmm0, xmm0
  000f2	f2 0f 58 05 00
	00 00 00	 addsd	 xmm0, QWORD PTR __real@3fe0000000000000
  000fa	f2 0f 2c c0	 cvttsd2si eax, xmm0
  000fe	f3 0f 10 45 ec	 movss	 xmm0, DWORD PTR _my$[ebp]

; 231  : 	ptAct->y = (int)(my+.5);

  00103	0f 5a c0	 cvtps2pd xmm0, xmm0
  00106	89 46 18	 mov	 DWORD PTR [esi+24], eax
  00109	f2 0f 58 05 00
	00 00 00	 addsd	 xmm0, QWORD PTR __real@3fe0000000000000
  00111	f2 0f 2c c0	 cvttsd2si eax, xmm0
  00115	89 46 1c	 mov	 DWORD PTR [esi+28], eax

; 232  : 	// ??????????î¸î•
; 233  : 	//  ä¸??æŽ‰äººç‰©çŠ¶æ€ä¼šè¢«å¤åˆ¶åˆ°å…¶ä»–ACTION
; 234  : 	//	drawCharStatus( ptAct );
; 235  : 	// ?????????
; 236  : 	if( ptAct->anim_no == ANIM_HAND
; 237  : 	 || ptAct->anim_no == ANIM_HAPPY
; 238  : 	 || ptAct->anim_no == ANIM_ANGRY
; 239  : 	 || ptAct->anim_no == ANIM_SAD
; 240  : 	 || ptAct->anim_no == ANIM_WALK
; 241  : 	 || ptAct->anim_no == ANIM_STAND
; 242  : 	 || ptAct->anim_no == ANIM_NOD )

  00118	8b 86 4c 01 00
	00		 mov	 eax, DWORD PTR [esi+332]
  0011e	83 f8 06	 cmp	 eax, 6
  00121	74 25		 je	 SHORT $LN8@waterAniPr
  00123	83 f8 07	 cmp	 eax, 7
  00126	74 20		 je	 SHORT $LN8@waterAniPr
  00128	83 f8 08	 cmp	 eax, 8
  0012b	74 1b		 je	 SHORT $LN8@waterAniPr
  0012d	83 f8 09	 cmp	 eax, 9
  00130	74 16		 je	 SHORT $LN8@waterAniPr
  00132	83 f8 04	 cmp	 eax, 4
  00135	74 11		 je	 SHORT $LN8@waterAniPr
  00137	83 f8 03	 cmp	 eax, 3
  0013a	74 0c		 je	 SHORT $LN8@waterAniPr
  0013c	83 f8 0b	 cmp	 eax, 11			; 0000000bH
  0013f	74 07		 je	 SHORT $LN8@waterAniPr

; 244  : 	else
; 245  : 		animLoop = ANM_NO_LOOP;

  00141	bf 01 00 00 00	 mov	 edi, 1
  00146	eb 02		 jmp	 SHORT $LN7@waterAniPr
$LN8@waterAniPr:

; 243  : 		animLoop = ANM_LOOP;

  00148	33 ff		 xor	 edi, edi
$LN7@waterAniPr:

; 246  : 	pattern( ptAct, ANM_NOMAL_SPD, animLoop );

  0014a	57		 push	 edi
  0014b	6a 00		 push	 0
  0014d	56		 push	 esi
  0014e	e8 00 00 00 00	 call	 ?pattern@@YAHPAUaction@@HH@Z ; pattern
  00153	83 c4 0c	 add	 esp, 12			; 0000000cH

; 247  : 	if( pFlag ){

  00156	85 db		 test	 ebx, ebx
  00158	74 30		 je	 SHORT $LN9@waterAniPr

; 248  : 		if( nowSpdRate >= 1.2F )

  0015a	f3 0f 10 05 00
	00 00 00	 movss	 xmm0, DWORD PTR ?nowSpdRate@@3MA
  00162	0f 2f 05 00 00
	00 00		 comiss	 xmm0, DWORD PTR __real@3f99999a
  00169	72 14		 jb	 SHORT $LN11@waterAniPr

; 249  : 			pattern( ptAct, ANM_NOMAL_SPD, animLoop );

  0016b	57		 push	 edi
  0016c	6a 00		 push	 0
  0016e	56		 push	 esi
  0016f	e8 00 00 00 00	 call	 ?pattern@@YAHPAUaction@@HH@Z ; pattern
  00174	f3 0f 10 05 00
	00 00 00	 movss	 xmm0, DWORD PTR ?nowSpdRate@@3MA
  0017c	83 c4 0c	 add	 esp, 12			; 0000000cH
$LN11@waterAniPr:

; 250  : 		if( nowSpdRate >= 1.6F )

  0017f	0f 2f 05 00 00
	00 00		 comiss	 xmm0, DWORD PTR __real@3fcccccd
  00186	72 36		 jb	 SHORT $LN14@waterAniPr

; 251  : 			pattern( ptAct, ANM_NOMAL_SPD, animLoop );
; 252  : 	}else{

  00188	eb 28		 jmp	 SHORT $LN31@waterAniPr
$LN9@waterAniPr:

; 253  : 		if( ptAct->bufCount >= 2 )

  0018a	0f b7 86 14 01
	00 00		 movzx	 eax, WORD PTR [esi+276]
  00191	8b c8		 mov	 ecx, eax
  00193	66 83 f8 02	 cmp	 ax, 2
  00197	7c 13		 jl	 SHORT $LN13@waterAniPr

; 254  : 			pattern( ptAct, ANM_NOMAL_SPD, animLoop );

  00199	57		 push	 edi
  0019a	6a 00		 push	 0
  0019c	56		 push	 esi
  0019d	e8 00 00 00 00	 call	 ?pattern@@YAHPAUaction@@HH@Z ; pattern
  001a2	0f b7 8e 14 01
	00 00		 movzx	 ecx, WORD PTR [esi+276]
  001a9	83 c4 0c	 add	 esp, 12			; 0000000cH
$LN13@waterAniPr:

; 255  : 		if( ptAct->bufCount >= 4 )

  001ac	66 83 f9 04	 cmp	 cx, 4
  001b0	7c 0c		 jl	 SHORT $LN14@waterAniPr
$LN31@waterAniPr:

; 256  : 			pattern( ptAct, ANM_NOMAL_SPD, animLoop );
; 257  : 	}
; 258  : 	if( pc.ptAct != ptAct ){

  001b2	57		 push	 edi
  001b3	6a 00		 push	 0
  001b5	56		 push	 esi
  001b6	e8 00 00 00 00	 call	 ?pattern@@YAHPAUaction@@HH@Z ; pattern
  001bb	83 c4 0c	 add	 esp, 12			; 0000000cH
$LN14@waterAniPr:
  001be	8b 7d 08	 mov	 edi, DWORD PTR _no$1$[ebp]
  001c1	39 35 ec 50 00
	00		 cmp	 DWORD PTR ?pc@@3UPC@@A+20716, esi
  001c7	0f 84 a6 00 00
	00		 je	 $LN29@waterAniPr

; 259  : 		if( charObj[no].newFoundFlag ){

  001cd	69 df 0c 01 00
	00		 imul	 ebx, edi, 268
  001d3	66 83 bb b8 00
	00 00 00	 cmp	 WORD PTR ?charObj@@3PAUCHAROBJ@@A[ebx+184], 0
  001db	0f 84 92 00 00
	00		 je	 $LN29@waterAniPr

; 260  : 			S2 xx, yy, ww, hh;
; 261  : 			// ?î¡¡îš ??????
; 262  : 			realGetPos( ptAct->bmpNo, &xx, &yy );

  001e1	8d 45 f4	 lea	 eax, DWORD PTR _yy$1[ebp]
  001e4	50		 push	 eax
  001e5	8d 45 f8	 lea	 eax, DWORD PTR _xx$2[ebp]
  001e8	50		 push	 eax
  001e9	ff b6 9c 00 00
	00		 push	 DWORD PTR [esi+156]
  001ef	e8 00 00 00 00	 call	 ?realGetPos@@YAHKPAF0@Z	; realGetPos

; 263  : 			realGetWH( ptAct->bmpNo, &ww, &hh );

  001f4	8d 45 fc	 lea	 eax, DWORD PTR _hh$3[ebp]
  001f7	50		 push	 eax
  001f8	8d 45 08	 lea	 eax, DWORD PTR _ww$4[ebp]
  001fb	50		 push	 eax
  001fc	ff b6 9c 00 00
	00		 push	 DWORD PTR [esi+156]
  00202	e8 00 00 00 00	 call	 ?realGetWH@@YAHKPAF0@Z	; realGetWH

; 264  : 			xx += ptAct->x;

  00207	66 8b 46 18	 mov	 ax, WORD PTR [esi+24]
  0020b	83 c4 18	 add	 esp, 24			; 00000018H
  0020e	66 03 45 f8	 add	 ax, WORD PTR _xx$2[ebp]
  00212	0f b7 c8	 movzx	 ecx, ax
  00215	0f b7 c0	 movzx	 eax, ax
  00218	89 45 f8	 mov	 DWORD PTR _xx$2[ebp], eax

; 265  : 			yy += ptAct->y;

  0021b	66 8b 46 1c	 mov	 ax, WORD PTR [esi+28]
  0021f	66 03 45 f4	 add	 ax, WORD PTR _yy$1[ebp]
  00223	0f b7 d0	 movzx	 edx, ax
  00226	0f b7 c0	 movzx	 eax, ax
  00229	89 45 f4	 mov	 DWORD PTR _yy$1[ebp], eax
  0022c	33 c0		 xor	 eax, eax
  0022e	66 3b c1	 cmp	 ax, cx

; 266  : 			if( 0 <= xx && xx+ww <= DEF_APPSIZEX
; 267  : 			 && 0 <= yy && yy+hh <= DEF_APPSIZEY ){

  00231	7f 40		 jg	 SHORT $LN29@waterAniPr
  00233	0f bf 45 08	 movsx	 eax, WORD PTR _ww$4[ebp]
  00237	0f bf c9	 movsx	 ecx, cx
  0023a	03 c8		 add	 ecx, eax
  0023c	3b 0d 00 00 00
	00		 cmp	 ecx, DWORD PTR ?DEF_APPSIZEX@@3HA ; DEF_APPSIZEX
  00242	7f 2f		 jg	 SHORT $LN29@waterAniPr
  00244	33 c0		 xor	 eax, eax
  00246	66 3b c2	 cmp	 ax, dx
  00249	7f 28		 jg	 SHORT $LN29@waterAniPr
  0024b	0f bf 45 fc	 movsx	 eax, WORD PTR _hh$3[ebp]
  0024f	0f bf ca	 movsx	 ecx, dx
  00252	03 c8		 add	 ecx, eax
  00254	3b 0d 00 00 00
	00		 cmp	 ecx, DWORD PTR ?DEF_APPSIZEY@@3HA ; DEF_APPSIZEY
  0025a	7f 17		 jg	 SHORT $LN29@waterAniPr

; 268  : 				CheckNewPet( ptAct->anim_chr_no );

  0025c	ff b6 44 01 00
	00		 push	 DWORD PTR [esi+324]
  00262	e8 00 00 00 00	 call	 ?CheckNewPet@@YAXH@Z	; CheckNewPet
  00267	83 c4 04	 add	 esp, 4

; 269  : 				charObj[no].newFoundFlag = 0;

  0026a	33 c0		 xor	 eax, eax
  0026c	66 89 83 b8 00
	00 00		 mov	 WORD PTR ?charObj@@3PAUCHAROBJ@@A[ebx+184], ax
$LN29@waterAniPr:

; 270  : 			}
; 271  : 		}
; 272  : 	}
; 273  : 	if( 20000 <= ptAct->anim_chr_no && ptAct->anim_chr_no <= 24999 ){

  00273	8b 86 44 01 00
	00		 mov	 eax, DWORD PTR [esi+324]
  00279	2d 20 4e 00 00	 sub	 eax, 20000		; 00004e20H
  0027e	3d 87 13 00 00	 cmp	 eax, 4999		; 00001387H
  00283	0f 87 cc 00 00
	00		 ja	 $LN18@waterAniPr

; 274  : 		// ????
; 275  : 		if( pc.ptAct != ptAct ){

  00289	39 35 ec 50 00
	00		 cmp	 DWORD PTR ?pc@@3UPC@@A+20716, esi
  0028f	74 4f		 je	 SHORT $LN27@waterAniPr

; 276  : 			// îœª???î??????î?
; 277  : 			if( ptAct->gx < nowGx-16 || nowGx+16 < ptAct->gx
; 278  : 			 || ptAct->gy < nowGy-16 || nowGy+16 < ptAct->gy ){

  00291	8b 15 00 00 00
	00		 mov	 edx, DWORD PTR ?nowGx@@3HA ; nowGx
  00297	8b 8e b4 00 00
	00		 mov	 ecx, DWORD PTR [esi+180]
  0029d	8d 42 f0	 lea	 eax, DWORD PTR [edx-16]
  002a0	3b c8		 cmp	 ecx, eax
  002a2	7c 21		 jl	 SHORT $LN22@waterAniPr
  002a4	8d 42 10	 lea	 eax, DWORD PTR [edx+16]
  002a7	3b c1		 cmp	 eax, ecx
  002a9	7c 1a		 jl	 SHORT $LN22@waterAniPr
  002ab	8b 15 00 00 00
	00		 mov	 edx, DWORD PTR ?nowGy@@3HA ; nowGy
  002b1	8b 8e b8 00 00
	00		 mov	 ecx, DWORD PTR [esi+184]
  002b7	8d 42 f0	 lea	 eax, DWORD PTR [edx-16]
  002ba	3b c8		 cmp	 ecx, eax
  002bc	7c 07		 jl	 SHORT $LN22@waterAniPr
  002be	8d 42 10	 lea	 eax, DWORD PTR [edx+16]
  002c1	3b c1		 cmp	 eax, ecx
  002c3	7d 1b		 jge	 SHORT $LN27@waterAniPr
$LN22@waterAniPr:

; 279  : 				delCharObj( charObj[no].id );

  002c5	69 c7 0c 01 00
	00		 imul	 eax, edi, 268
  002cb	ff b0 04 00 00
	00		 push	 DWORD PTR ?charObj@@3PAUCHAROBJ@@A[eax+4]
  002d1	e8 00 00 00 00	 call	 ?delCharObj@@YAXH@Z	; delCharObj
  002d6	83 c4 04	 add	 esp, 4
  002d9	5f		 pop	 edi

; 299  : #else
; 300  : 		setCharPrio( ptAct->bmpNo, ptAct->x, ptAct->y, 0, 0, ptAct->mx, ptAct->my );
; 301  : #endif
; 302  : 	}
; 303  : }

  002da	5e		 pop	 esi
  002db	5b		 pop	 ebx
  002dc	8b e5		 mov	 esp, ebp
  002de	5d		 pop	 ebp
  002df	c3		 ret	 0
$LN27@waterAniPr:

; 280  : 				return;
; 281  : 			}
; 282  : 		}
; 283  : 		// î™¯??î–º?????î¸î•???
; 284  : 		if( !itemOverlapCheck( ptAct->bmpNo, ptAct->gx, ptAct->gy ) ){

  002e0	ff b6 b8 00 00
	00		 push	 DWORD PTR [esi+184]
  002e6	ff b6 b4 00 00
	00		 push	 DWORD PTR [esi+180]
  002ec	ff b6 9c 00 00
	00		 push	 DWORD PTR [esi+156]
  002f2	e8 00 00 00 00	 call	 ?itemOverlapCheck@@YAHIHH@Z ; itemOverlapCheck
  002f7	83 c4 0c	 add	 esp, 12			; 0000000cH
  002fa	85 c0		 test	 eax, eax
  002fc	75 49		 jne	 SHORT $LN23@waterAniPr

; 285  : 			// ??????????????
; 286  : #ifdef _SPECIALSPACEANIM_FIX  //ROG ADD ä¿®æ”¹å›¾å±‚
; 287  : 			setPartsPrio( ptAct->bmpNo, ptAct->x, ptAct->y, 0, 0, ptAct->mx, ptAct->my,ptAct->dispPrio);

  002fe	0f b6 46 15	 movzx	 eax, BYTE PTR [esi+21]
  00302	f3 0f 10 86 1c
	01 00 00	 movss	 xmm0, DWORD PTR [esi+284]
  0030a	50		 push	 eax
  0030b	83 ec 08	 sub	 esp, 8
  0030e	f3 0f 11 44 24
	04		 movss	 DWORD PTR [esp+4], xmm0
  00314	f3 0f 10 86 18
	01 00 00	 movss	 xmm0, DWORD PTR [esi+280]
  0031c	f3 0f 11 04 24	 movss	 DWORD PTR [esp], xmm0
  00321	6a 00		 push	 0
  00323	6a 00		 push	 0
  00325	ff 76 1c	 push	 DWORD PTR [esi+28]
  00328	ff 76 18	 push	 DWORD PTR [esi+24]
  0032b	ff b6 9c 00 00
	00		 push	 DWORD PTR [esi+156]
  00331	e8 00 00 00 00	 call	 ?setPartsPrio@@YAXHHHHHMMH@Z ; setPartsPrio
  00336	83 c4 20	 add	 esp, 32			; 00000020H

; 288  : #else
; 289  : 			setCharPrio( ptAct->bmpNo, ptAct->x, ptAct->y, 0, 0, ptAct->mx, ptAct->my );
; 290  : #endif
; 291  : 			ptAct->atr &= (~ACT_ATR_HIDE);

  00339	83 a6 a4 00 00
	00 fd		 and	 DWORD PTR [esi+164], -3	; fffffffdH
  00340	5f		 pop	 edi

; 299  : #else
; 300  : 		setCharPrio( ptAct->bmpNo, ptAct->x, ptAct->y, 0, 0, ptAct->mx, ptAct->my );
; 301  : #endif
; 302  : 	}
; 303  : }

  00341	5e		 pop	 esi
  00342	5b		 pop	 ebx
  00343	8b e5		 mov	 esp, ebp
  00345	5d		 pop	 ebp
  00346	c3		 ret	 0
$LN23@waterAniPr:

; 292  : 		}else
; 293  : 			ptAct->atr |= ACT_ATR_HIDE;

  00347	83 8e a4 00 00
	00 02		 or	 DWORD PTR [esi+164], 2
  0034e	5f		 pop	 edi

; 299  : #else
; 300  : 		setCharPrio( ptAct->bmpNo, ptAct->x, ptAct->y, 0, 0, ptAct->mx, ptAct->my );
; 301  : #endif
; 302  : 	}
; 303  : }

  0034f	5e		 pop	 esi
  00350	5b		 pop	 ebx
  00351	8b e5		 mov	 esp, ebp
  00353	5d		 pop	 ebp
  00354	c3		 ret	 0
$LN18@waterAniPr:

; 294  : 	}else{
; 295  : 		// ????????
; 296  : 		// ??????????????
; 297  : #ifdef _SPECIALSPACEANIM_FIX  //ROG ADD ä¿®æ”¹å›¾å±‚
; 298  : 		setPartsPrio( ptAct->bmpNo, ptAct->x, ptAct->y, 0, 0, ptAct->mx, ptAct->my,ptAct->dispPrio);

  00355	0f b6 46 15	 movzx	 eax, BYTE PTR [esi+21]
  00359	f3 0f 10 86 1c
	01 00 00	 movss	 xmm0, DWORD PTR [esi+284]
  00361	50		 push	 eax
  00362	83 ec 08	 sub	 esp, 8
  00365	f3 0f 11 44 24
	04		 movss	 DWORD PTR [esp+4], xmm0
  0036b	f3 0f 10 86 18
	01 00 00	 movss	 xmm0, DWORD PTR [esi+280]
  00373	f3 0f 11 04 24	 movss	 DWORD PTR [esp], xmm0
  00378	6a 00		 push	 0
  0037a	6a 00		 push	 0
  0037c	ff 76 1c	 push	 DWORD PTR [esi+28]
  0037f	ff 76 18	 push	 DWORD PTR [esi+24]
  00382	ff b6 9c 00 00
	00		 push	 DWORD PTR [esi+156]
  00388	e8 00 00 00 00	 call	 ?setPartsPrio@@YAXHHHHHMMH@Z ; setPartsPrio
  0038d	83 c4 20	 add	 esp, 32			; 00000020H
  00390	5f		 pop	 edi

; 299  : #else
; 300  : 		setCharPrio( ptAct->bmpNo, ptAct->x, ptAct->y, 0, 0, ptAct->mx, ptAct->my );
; 301  : #endif
; 302  : 	}
; 303  : }

  00391	5e		 pop	 esi
  00392	5b		 pop	 ebx
  00393	8b e5		 mov	 esp, ebp
  00395	5d		 pop	 ebp
  00396	c3		 ret	 0
?waterAniProc@@YAXPAUaction@@@Z ENDP			; waterAniProc
_TEXT	ENDS
; Function compile flags: /Ogtp
; File C:\Users\gg862\OneDrive\¹ÙÅÁ È­¸é\¸¾Äí¿Ï·á\Client Source Code1.31ÀÏº»\system\character.cpp
;	COMDAT ?charProc@@YAXPAUaction@@@Z
_TEXT	SEGMENT
_my$ = -20						; size = 4
_mx$ = -16						; size = 4
_yy$1 = -12						; size = 2
_xx$2 = -8						; size = 2
_hh$3 = -4						; size = 2
_no$1$ = 8						; size = 4
_ww$4 = 8						; size = 2
_no$ = 8						; size = 4
_ptAct$ = 8						; size = 4
?charProc@@YAXPAUaction@@@Z PROC			; charProc, COMDAT

; 93   : {

  00000	55		 push	 ebp
  00001	8b ec		 mov	 ebp, esp
  00003	83 ec 14	 sub	 esp, 20			; 00000014H
  00006	53		 push	 ebx
  00007	56		 push	 esi
  00008	8b 75 08	 mov	 esi, DWORD PTR _ptAct$[ebp]

; 94   : #ifdef _SHOW_ALL_ID
; 95   : 	char *lssproto_cnv10to62(int a, char *out, int outlen);
; 96   : 	char c62[20];
; 97   : 	char buf[20];
; 98   : 	lssproto_cnv10to62(ptAct->objIndex, c62, 20);
; 99   : 	wsprintfA(buf, "%s(%d)", c62, ptAct->objIndex);
; 100  : 	StockFontBuffer(ptAct->x-5, ptAct->y+10, 0, 4, buf, 0);
; 101  : #endif // _SHOW_ALL_ID
; 102  : 
; 103  : 
; 104  : 
; 105  : 	float mx, my;
; 106  : 	int animLoop;
; 107  : 	int no;
; 108  : 	CHAREXTRA *ext;
; 109  : 	int pFlag = 0;

  0000b	33 db		 xor	 ebx, ebx
  0000d	57		 push	 edi

; 110  : 	// ?î™®??
; 111  : 	// PC???????î˜î“·??î™®??
; 112  : 	// PC?????î™®????îš¼???????î™®??
; 113  : 	if( pc.ptAct != ptAct ){

  0000e	39 35 ec 50 00
	00		 cmp	 DWORD PTR ?pc@@3UPC@@A+20716, esi
  00014	0f 84 9c 00 00
	00		 je	 $LN28@charProc

; 114  : 		ext = (CHAREXTRA *)ptAct->pYobi;
; 115  : 		no = ext->charObjTblId;

  0001a	8b 46 0c	 mov	 eax, DWORD PTR [esi+12]
  0001d	8b 00		 mov	 eax, DWORD PTR [eax]

; 116  : 		// ?????îš¼??????????????
; 117  : 		if( (charObj[no].status & CHR_STATUS_PARTY) == 0 ){

  0001f	69 f8 0c 01 00
	00		 imul	 edi, eax, 268
  00025	89 45 08	 mov	 DWORD PTR _no$1$[ebp], eax
  00028	f7 87 2c 00 00
	00 00 02 00 00	 test	 DWORD PTR ?charObj@@3PAUCHAROBJ@@A[edi+44], 512 ; 00000200H
  00032	75 0b		 jne	 SHORT $LN3@charProc

; 118  : 			charMove( ptAct );

  00034	56		 push	 esi
  00035	e8 00 00 00 00	 call	 ?charMove@@YAXPAUaction@@@Z ; charMove
  0003a	83 c4 04	 add	 esp, 4

; 119  : 			pFlag = 0;
; 120  : 		}else

  0003d	eb 05		 jmp	 SHORT $LN4@charProc
$LN3@charProc:

; 121  : 			pFlag = 1;

  0003f	bb 01 00 00 00	 mov	 ebx, 1
$LN4@charProc:

; 122  : 		if( ptAct->vx == 0 && ptAct->vy == 0 && charObj[no].stockDir != -1
; 123  : 		 && charObj[no].stockDirX == ptAct->gx && charObj[no].stockDirY == ptAct->gy ){

  00044	f3 0f 10 86 20
	01 00 00	 movss	 xmm0, DWORD PTR [esi+288]
  0004c	0f 57 c9	 xorps	 xmm1, xmm1
  0004f	0f 2e c1	 ucomiss xmm0, xmm1
  00052	9f		 lahf
  00053	f6 c4 44	 test	 ah, 68			; 00000044H
  00056	7a 64		 jp	 SHORT $LN5@charProc
  00058	f3 0f 10 86 24
	01 00 00	 movss	 xmm0, DWORD PTR [esi+292]
  00060	0f 2e c1	 ucomiss xmm0, xmm1
  00063	9f		 lahf
  00064	f6 c4 44	 test	 ah, 68			; 00000044H
  00067	7a 53		 jp	 SHORT $LN5@charProc
  00069	8b 8f 1c 00 00
	00		 mov	 ecx, DWORD PTR ?charObj@@3PAUCHAROBJ@@A[edi+28]
  0006f	83 f9 ff	 cmp	 ecx, -1
  00072	74 48		 je	 SHORT $LN5@charProc
  00074	8b 87 20 00 00
	00		 mov	 eax, DWORD PTR ?charObj@@3PAUCHAROBJ@@A[edi+32]
  0007a	3b 86 b4 00 00
	00		 cmp	 eax, DWORD PTR [esi+180]
  00080	75 3a		 jne	 SHORT $LN5@charProc
  00082	8b 87 24 00 00
	00		 mov	 eax, DWORD PTR ?charObj@@3PAUCHAROBJ@@A[edi+36]
  00088	3b 86 b8 00 00
	00		 cmp	 eax, DWORD PTR [esi+184]
  0008e	75 2c		 jne	 SHORT $LN5@charProc

; 124  : 			ptAct->anim_ang = charObj[no].stockDir;

  00090	89 8e 54 01 00
	00		 mov	 DWORD PTR [esi+340], ecx

; 125  : 			charObj[no].stockDir = -1;

  00096	c7 87 1c 00 00
	00 ff ff ff ff	 mov	 DWORD PTR ?charObj@@3PAUCHAROBJ@@A[edi+28], -1

; 126  : 			charObj[no].stockDirX = 0;

  000a0	c7 87 20 00 00
	00 00 00 00 00	 mov	 DWORD PTR ?charObj@@3PAUCHAROBJ@@A[edi+32], 0

; 127  : 			charObj[no].stockDirY = 0;

  000aa	c7 87 24 00 00
	00 00 00 00 00	 mov	 DWORD PTR ?charObj@@3PAUCHAROBJ@@A[edi+36], 0
  000b4	eb 06		 jmp	 SHORT $LN5@charProc
$LN28@charProc:

; 110  : 	// ?î™®??
; 111  : 	// PC???????î˜î“·??î™®??
; 112  : 	// PC?????î™®????îš¼???????î™®??
; 113  : 	if( pc.ptAct != ptAct ){

  000b6	8b 45 08	 mov	 eax, DWORD PTR _no$[ebp]
  000b9	89 45 08	 mov	 DWORD PTR _no$1$[ebp], eax
$LN5@charProc:

; 128  : 		}
; 129  : 	}
; 130  : 	camMapToGamen( ptAct->mx, ptAct->my, &mx, &my );

  000bc	f3 0f 10 86 1c
	01 00 00	 movss	 xmm0, DWORD PTR [esi+284]
  000c4	8d 45 ec	 lea	 eax, DWORD PTR _my$[ebp]
  000c7	50		 push	 eax
  000c8	8d 45 f0	 lea	 eax, DWORD PTR _mx$[ebp]
  000cb	50		 push	 eax
  000cc	83 ec 08	 sub	 esp, 8
  000cf	f3 0f 11 44 24
	04		 movss	 DWORD PTR [esp+4], xmm0
  000d5	f3 0f 10 86 18
	01 00 00	 movss	 xmm0, DWORD PTR [esi+280]
  000dd	f3 0f 11 04 24	 movss	 DWORD PTR [esp], xmm0
  000e2	e8 00 00 00 00	 call	 ?camMapToGamen@@YAXMMPAM0@Z ; camMapToGamen
  000e7	f3 0f 10 45 f0	 movss	 xmm0, DWORD PTR _mx$[ebp]

; 131  : 	
; 132  : 	ptAct->x = (int)(mx+.5);

  000ec	0f 5a c0	 cvtps2pd xmm0, xmm0

; 133  : 	ptAct->y = (int)(my+.5);
; 134  : 
; 135  : #ifdef _NPC_PICTURE
; 136  : #endif
; 137  : 	drawCharStatus( ptAct );

  000ef	56		 push	 esi
  000f0	f2 0f 58 05 00
	00 00 00	 addsd	 xmm0, QWORD PTR __real@3fe0000000000000
  000f8	f2 0f 2c c0	 cvttsd2si eax, xmm0
  000fc	f3 0f 10 45 ec	 movss	 xmm0, DWORD PTR _my$[ebp]
  00101	0f 5a c0	 cvtps2pd xmm0, xmm0
  00104	89 46 18	 mov	 DWORD PTR [esi+24], eax
  00107	f2 0f 58 05 00
	00 00 00	 addsd	 xmm0, QWORD PTR __real@3fe0000000000000
  0010f	f2 0f 2c c0	 cvttsd2si eax, xmm0
  00113	89 46 1c	 mov	 DWORD PTR [esi+28], eax
  00116	e8 00 00 00 00	 call	 ?drawCharStatus@@YAXPAUaction@@@Z ; drawCharStatus

; 138  : 	// ?????????
; 139  : 	if( ptAct->anim_no == ANIM_HAND
; 140  : 	 || ptAct->anim_no == ANIM_HAPPY
; 141  : 	 || ptAct->anim_no == ANIM_ANGRY
; 142  : 	 || ptAct->anim_no == ANIM_SAD
; 143  : 	 || ptAct->anim_no == ANIM_WALK
; 144  : 	 || ptAct->anim_no == ANIM_STAND
; 145  : 	 || ptAct->anim_no == ANIM_NOD )

  0011b	8b 86 4c 01 00
	00		 mov	 eax, DWORD PTR [esi+332]
  00121	83 c4 14	 add	 esp, 20			; 00000014H
  00124	83 f8 06	 cmp	 eax, 6
  00127	74 25		 je	 SHORT $LN8@charProc
  00129	83 f8 07	 cmp	 eax, 7
  0012c	74 20		 je	 SHORT $LN8@charProc
  0012e	83 f8 08	 cmp	 eax, 8
  00131	74 1b		 je	 SHORT $LN8@charProc
  00133	83 f8 09	 cmp	 eax, 9
  00136	74 16		 je	 SHORT $LN8@charProc
  00138	83 f8 04	 cmp	 eax, 4
  0013b	74 11		 je	 SHORT $LN8@charProc
  0013d	83 f8 03	 cmp	 eax, 3
  00140	74 0c		 je	 SHORT $LN8@charProc
  00142	83 f8 0b	 cmp	 eax, 11			; 0000000bH
  00145	74 07		 je	 SHORT $LN8@charProc

; 147  : 	else
; 148  : 		animLoop = ANM_NO_LOOP;

  00147	bf 01 00 00 00	 mov	 edi, 1
  0014c	eb 02		 jmp	 SHORT $LN7@charProc
$LN8@charProc:

; 146  : 		animLoop = ANM_LOOP;

  0014e	33 ff		 xor	 edi, edi
$LN7@charProc:

; 149  : 	pattern( ptAct, ANM_NOMAL_SPD, animLoop );

  00150	57		 push	 edi
  00151	6a 00		 push	 0
  00153	56		 push	 esi
  00154	e8 00 00 00 00	 call	 ?pattern@@YAHPAUaction@@HH@Z ; pattern
  00159	83 c4 0c	 add	 esp, 12			; 0000000cH

; 150  : 	if( pFlag ){

  0015c	85 db		 test	 ebx, ebx
  0015e	74 30		 je	 SHORT $LN9@charProc

; 151  : 		if( nowSpdRate >= 1.2F )

  00160	f3 0f 10 05 00
	00 00 00	 movss	 xmm0, DWORD PTR ?nowSpdRate@@3MA
  00168	0f 2f 05 00 00
	00 00		 comiss	 xmm0, DWORD PTR __real@3f99999a
  0016f	72 14		 jb	 SHORT $LN11@charProc

; 152  : 			pattern( ptAct, ANM_NOMAL_SPD, animLoop );

  00171	57		 push	 edi
  00172	6a 00		 push	 0
  00174	56		 push	 esi
  00175	e8 00 00 00 00	 call	 ?pattern@@YAHPAUaction@@HH@Z ; pattern
  0017a	f3 0f 10 05 00
	00 00 00	 movss	 xmm0, DWORD PTR ?nowSpdRate@@3MA
  00182	83 c4 0c	 add	 esp, 12			; 0000000cH
$LN11@charProc:

; 153  : 		if( nowSpdRate >= 1.6F )

  00185	0f 2f 05 00 00
	00 00		 comiss	 xmm0, DWORD PTR __real@3fcccccd
  0018c	72 36		 jb	 SHORT $LN14@charProc

; 154  : 			pattern( ptAct, ANM_NOMAL_SPD, animLoop );
; 155  : 	}else{

  0018e	eb 28		 jmp	 SHORT $LN31@charProc
$LN9@charProc:

; 156  : 		if( ptAct->bufCount >= 2 )

  00190	0f b7 86 14 01
	00 00		 movzx	 eax, WORD PTR [esi+276]
  00197	8b c8		 mov	 ecx, eax
  00199	66 83 f8 02	 cmp	 ax, 2
  0019d	7c 13		 jl	 SHORT $LN13@charProc

; 157  : 			pattern( ptAct, ANM_NOMAL_SPD, animLoop );

  0019f	57		 push	 edi
  001a0	6a 00		 push	 0
  001a2	56		 push	 esi
  001a3	e8 00 00 00 00	 call	 ?pattern@@YAHPAUaction@@HH@Z ; pattern
  001a8	0f b7 8e 14 01
	00 00		 movzx	 ecx, WORD PTR [esi+276]
  001af	83 c4 0c	 add	 esp, 12			; 0000000cH
$LN13@charProc:

; 158  : 		if( ptAct->bufCount >= 4 )

  001b2	66 83 f9 04	 cmp	 cx, 4
  001b6	7c 0c		 jl	 SHORT $LN14@charProc
$LN31@charProc:

; 159  : 			pattern( ptAct, ANM_NOMAL_SPD, animLoop );
; 160  : 	}
; 161  : 	if( pc.ptAct != ptAct ){

  001b8	57		 push	 edi
  001b9	6a 00		 push	 0
  001bb	56		 push	 esi
  001bc	e8 00 00 00 00	 call	 ?pattern@@YAHPAUaction@@HH@Z ; pattern
  001c1	83 c4 0c	 add	 esp, 12			; 0000000cH
$LN14@charProc:
  001c4	8b 7d 08	 mov	 edi, DWORD PTR _no$1$[ebp]
  001c7	39 35 ec 50 00
	00		 cmp	 DWORD PTR ?pc@@3UPC@@A+20716, esi
  001cd	0f 84 a6 00 00
	00		 je	 $LN29@charProc

; 162  : 		if( charObj[no].newFoundFlag ){

  001d3	69 df 0c 01 00
	00		 imul	 ebx, edi, 268
  001d9	66 83 bb b8 00
	00 00 00	 cmp	 WORD PTR ?charObj@@3PAUCHAROBJ@@A[ebx+184], 0
  001e1	0f 84 92 00 00
	00		 je	 $LN29@charProc

; 163  : 			S2 xx, yy, ww, hh;
; 164  : 			// ?î¡¡îš ??????
; 165  : 			realGetPos( ptAct->bmpNo, &xx, &yy );

  001e7	8d 45 f4	 lea	 eax, DWORD PTR _yy$1[ebp]
  001ea	50		 push	 eax
  001eb	8d 45 f8	 lea	 eax, DWORD PTR _xx$2[ebp]
  001ee	50		 push	 eax
  001ef	ff b6 9c 00 00
	00		 push	 DWORD PTR [esi+156]
  001f5	e8 00 00 00 00	 call	 ?realGetPos@@YAHKPAF0@Z	; realGetPos

; 166  : 			realGetWH( ptAct->bmpNo, &ww, &hh );

  001fa	8d 45 fc	 lea	 eax, DWORD PTR _hh$3[ebp]
  001fd	50		 push	 eax
  001fe	8d 45 08	 lea	 eax, DWORD PTR _ww$4[ebp]
  00201	50		 push	 eax
  00202	ff b6 9c 00 00
	00		 push	 DWORD PTR [esi+156]
  00208	e8 00 00 00 00	 call	 ?realGetWH@@YAHKPAF0@Z	; realGetWH

; 167  : 			xx += ptAct->x;

  0020d	66 8b 46 18	 mov	 ax, WORD PTR [esi+24]
  00211	83 c4 18	 add	 esp, 24			; 00000018H
  00214	66 03 45 f8	 add	 ax, WORD PTR _xx$2[ebp]
  00218	0f b7 c8	 movzx	 ecx, ax
  0021b	0f b7 c0	 movzx	 eax, ax
  0021e	89 45 f8	 mov	 DWORD PTR _xx$2[ebp], eax

; 168  : 			yy += ptAct->y;

  00221	66 8b 46 1c	 mov	 ax, WORD PTR [esi+28]
  00225	66 03 45 f4	 add	 ax, WORD PTR _yy$1[ebp]
  00229	0f b7 d0	 movzx	 edx, ax
  0022c	0f b7 c0	 movzx	 eax, ax
  0022f	89 45 f4	 mov	 DWORD PTR _yy$1[ebp], eax
  00232	33 c0		 xor	 eax, eax
  00234	66 3b c1	 cmp	 ax, cx

; 169  : 			if( 0 <= xx && xx+ww <= DEF_APPSIZEX
; 170  : 			 && 0 <= yy && yy+hh <= DEF_APPSIZEY ){

  00237	7f 40		 jg	 SHORT $LN29@charProc
  00239	0f bf 45 08	 movsx	 eax, WORD PTR _ww$4[ebp]
  0023d	0f bf c9	 movsx	 ecx, cx
  00240	03 c8		 add	 ecx, eax
  00242	3b 0d 00 00 00
	00		 cmp	 ecx, DWORD PTR ?DEF_APPSIZEX@@3HA ; DEF_APPSIZEX
  00248	7f 2f		 jg	 SHORT $LN29@charProc
  0024a	33 c0		 xor	 eax, eax
  0024c	66 3b c2	 cmp	 ax, dx
  0024f	7f 28		 jg	 SHORT $LN29@charProc
  00251	0f bf 45 fc	 movsx	 eax, WORD PTR _hh$3[ebp]
  00255	0f bf ca	 movsx	 ecx, dx
  00258	03 c8		 add	 ecx, eax
  0025a	3b 0d 00 00 00
	00		 cmp	 ecx, DWORD PTR ?DEF_APPSIZEY@@3HA ; DEF_APPSIZEY
  00260	7f 17		 jg	 SHORT $LN29@charProc

; 171  : 				CheckNewPet( ptAct->anim_chr_no );

  00262	ff b6 44 01 00
	00		 push	 DWORD PTR [esi+324]
  00268	e8 00 00 00 00	 call	 ?CheckNewPet@@YAXH@Z	; CheckNewPet
  0026d	83 c4 04	 add	 esp, 4

; 172  : 				charObj[no].newFoundFlag = 0;

  00270	33 c0		 xor	 eax, eax
  00272	66 89 83 b8 00
	00 00		 mov	 WORD PTR ?charObj@@3PAUCHAROBJ@@A[ebx+184], ax
$LN29@charProc:

; 173  : 			}
; 174  : 		}
; 175  : 	}
; 176  : 	if( 20000 <= ptAct->anim_chr_no && ptAct->anim_chr_no <= 24999 ){

  00279	8b 86 44 01 00
	00		 mov	 eax, DWORD PTR [esi+324]
  0027f	2d 20 4e 00 00	 sub	 eax, 20000		; 00004e20H
  00284	3d 87 13 00 00	 cmp	 eax, 4999		; 00001387H
  00289	0f 87 c5 00 00
	00		 ja	 $LN18@charProc

; 177  : 		// ????
; 178  : 		if( pc.ptAct != ptAct ){

  0028f	39 35 ec 50 00
	00		 cmp	 DWORD PTR ?pc@@3UPC@@A+20716, esi
  00295	74 4f		 je	 SHORT $LN27@charProc

; 179  : 			// îœª???î??????î?
; 180  : 			if( ptAct->gx < nowGx-16 || nowGx+16 < ptAct->gx
; 181  : 			 || ptAct->gy < nowGy-16 || nowGy+16 < ptAct->gy ){

  00297	8b 15 00 00 00
	00		 mov	 edx, DWORD PTR ?nowGx@@3HA ; nowGx
  0029d	8b 8e b4 00 00
	00		 mov	 ecx, DWORD PTR [esi+180]
  002a3	8d 42 f0	 lea	 eax, DWORD PTR [edx-16]
  002a6	3b c8		 cmp	 ecx, eax
  002a8	7c 21		 jl	 SHORT $LN22@charProc
  002aa	8d 42 10	 lea	 eax, DWORD PTR [edx+16]
  002ad	3b c1		 cmp	 eax, ecx
  002af	7c 1a		 jl	 SHORT $LN22@charProc
  002b1	8b 15 00 00 00
	00		 mov	 edx, DWORD PTR ?nowGy@@3HA ; nowGy
  002b7	8b 8e b8 00 00
	00		 mov	 ecx, DWORD PTR [esi+184]
  002bd	8d 42 f0	 lea	 eax, DWORD PTR [edx-16]
  002c0	3b c8		 cmp	 ecx, eax
  002c2	7c 07		 jl	 SHORT $LN22@charProc
  002c4	8d 42 10	 lea	 eax, DWORD PTR [edx+16]
  002c7	3b c1		 cmp	 eax, ecx
  002c9	7d 1b		 jge	 SHORT $LN27@charProc
$LN22@charProc:

; 182  : 				delCharObj( charObj[no].id );

  002cb	69 c7 0c 01 00
	00		 imul	 eax, edi, 268
  002d1	ff b0 04 00 00
	00		 push	 DWORD PTR ?charObj@@3PAUCHAROBJ@@A[eax+4]
  002d7	e8 00 00 00 00	 call	 ?delCharObj@@YAXH@Z	; delCharObj
  002dc	83 c4 04	 add	 esp, 4
  002df	5f		 pop	 edi

; 197  : 	}
; 198  : }

  002e0	5e		 pop	 esi
  002e1	5b		 pop	 ebx
  002e2	8b e5		 mov	 esp, ebp
  002e4	5d		 pop	 ebp
  002e5	c3		 ret	 0
$LN27@charProc:

; 183  : 				return;
; 184  : 			}
; 185  : 		}
; 186  : 		// î™¯??î–º?????î¸î•???
; 187  : 		if( !itemOverlapCheck( ptAct->bmpNo, ptAct->gx, ptAct->gy ) ){

  002e6	ff b6 b8 00 00
	00		 push	 DWORD PTR [esi+184]
  002ec	ff b6 b4 00 00
	00		 push	 DWORD PTR [esi+180]
  002f2	ff b6 9c 00 00
	00		 push	 DWORD PTR [esi+156]
  002f8	e8 00 00 00 00	 call	 ?itemOverlapCheck@@YAHIHH@Z ; itemOverlapCheck
  002fd	83 c4 0c	 add	 esp, 12			; 0000000cH
  00300	85 c0		 test	 eax, eax
  00302	75 42		 jne	 SHORT $LN23@charProc

; 188  : 			// ??????????????
; 189  : 			setCharPrio( ptAct->bmpNo, ptAct->x, ptAct->y, 0, 0, ptAct->mx, ptAct->my );

  00304	f3 0f 10 86 1c
	01 00 00	 movss	 xmm0, DWORD PTR [esi+284]
  0030c	83 ec 08	 sub	 esp, 8
  0030f	f3 0f 11 44 24
	04		 movss	 DWORD PTR [esp+4], xmm0
  00315	f3 0f 10 86 18
	01 00 00	 movss	 xmm0, DWORD PTR [esi+280]
  0031d	f3 0f 11 04 24	 movss	 DWORD PTR [esp], xmm0
  00322	50		 push	 eax
  00323	50		 push	 eax
  00324	ff 76 1c	 push	 DWORD PTR [esi+28]
  00327	ff 76 18	 push	 DWORD PTR [esi+24]
  0032a	ff b6 9c 00 00
	00		 push	 DWORD PTR [esi+156]
  00330	e8 00 00 00 00	 call	 ?setCharPrio@@YAXHHHHHMM@Z ; setCharPrio
  00335	83 c4 1c	 add	 esp, 28			; 0000001cH

; 190  : 			ptAct->atr &= (~ACT_ATR_HIDE);

  00338	83 a6 a4 00 00
	00 fd		 and	 DWORD PTR [esi+164], -3	; fffffffdH
  0033f	5f		 pop	 edi

; 197  : 	}
; 198  : }

  00340	5e		 pop	 esi
  00341	5b		 pop	 ebx
  00342	8b e5		 mov	 esp, ebp
  00344	5d		 pop	 ebp
  00345	c3		 ret	 0
$LN23@charProc:

; 191  : 		}else
; 192  : 			ptAct->atr |= ACT_ATR_HIDE;

  00346	83 8e a4 00 00
	00 02		 or	 DWORD PTR [esi+164], 2
  0034d	5f		 pop	 edi

; 197  : 	}
; 198  : }

  0034e	5e		 pop	 esi
  0034f	5b		 pop	 ebx
  00350	8b e5		 mov	 esp, ebp
  00352	5d		 pop	 ebp
  00353	c3		 ret	 0
$LN18@charProc:

; 193  : 	}else{
; 194  : 		// ????????
; 195  : 		// ??????????????
; 196  : 		setCharPrio( ptAct->bmpNo, ptAct->x, ptAct->y, 0, 0, ptAct->mx, ptAct->my );

  00354	f3 0f 10 86 1c
	01 00 00	 movss	 xmm0, DWORD PTR [esi+284]
  0035c	83 ec 08	 sub	 esp, 8
  0035f	f3 0f 11 44 24
	04		 movss	 DWORD PTR [esp+4], xmm0
  00365	f3 0f 10 86 18
	01 00 00	 movss	 xmm0, DWORD PTR [esi+280]
  0036d	f3 0f 11 04 24	 movss	 DWORD PTR [esp], xmm0
  00372	6a 00		 push	 0
  00374	6a 00		 push	 0
  00376	ff 76 1c	 push	 DWORD PTR [esi+28]
  00379	ff 76 18	 push	 DWORD PTR [esi+24]
  0037c	ff b6 9c 00 00
	00		 push	 DWORD PTR [esi+156]
  00382	e8 00 00 00 00	 call	 ?setCharPrio@@YAXHHHHHMM@Z ; setCharPrio
  00387	83 c4 1c	 add	 esp, 28			; 0000001cH
  0038a	5f		 pop	 edi

; 197  : 	}
; 198  : }

  0038b	5e		 pop	 esi
  0038c	5b		 pop	 ebx
  0038d	8b e5		 mov	 esp, ebp
  0038f	5d		 pop	 ebp
  00390	c3		 ret	 0
?charProc@@YAXPAUaction@@@Z ENDP			; charProc
_TEXT	ENDS
; Function compile flags: /Ogtp
; File C:\Users\gg862\OneDrive\¹ÙÅÁ È­¸é\¸¾Äí¿Ï·á\Client Source Code1.31ÀÏº»\system\character.cpp
;	COMDAT ?ajustClientDir@@YAXPAF@Z
_TEXT	SEGMENT
_dir$ = 8						; size = 4
?ajustClientDir@@YAXPAF@Z PROC				; ajustClientDir, COMDAT

; 2930 : {

  00000	55		 push	 ebp
  00001	8b ec		 mov	 ebp, esp

; 2931 : 	if( *dir < 0 )

  00003	8b 45 08	 mov	 eax, DWORD PTR _dir$[ebp]
  00006	0f b7 08	 movzx	 ecx, WORD PTR [eax]
  00009	66 85 c9	 test	 cx, cx
  0000c	79 0a		 jns	 SHORT $LN8@ajustClien
  0000e	66 90		 npad	 2
$LL4@ajustClien:

; 2932 : 	{
; 2933 : 		do
; 2934 : 		{
; 2935 : 			(*dir) += 8;

  00010	66 83 00 08	 add	 WORD PTR [eax], 8

; 2936 : 		} while( *dir < 0 );

  00014	78 fa		 js	 SHORT $LL4@ajustClien

; 2945 : 	}
; 2946 : }

  00016	5d		 pop	 ebp
  00017	c3		 ret	 0
$LN8@ajustClien:

; 2937 : 	}
; 2938 : 	else
; 2939 : 	if( *dir > 7 )

  00018	66 83 f9 07	 cmp	 cx, 7
  0001c	7e 0c		 jle	 SHORT $LN6@ajustClien
  0001e	66 90		 npad	 2
$LL7@ajustClien:

; 2940 : 	{
; 2941 : 		do
; 2942 : 		{
; 2943 : 			(*dir) -= 8;

  00020	66 83 00 f8	 add	 WORD PTR [eax], -8	; fffffff8H

; 2944 : 		} while( *dir > 7 );

  00024	66 83 38 07	 cmp	 WORD PTR [eax], 7
  00028	7f f6		 jg	 SHORT $LL7@ajustClien
$LN6@ajustClien:

; 2945 : 	}
; 2946 : }

  0002a	5d		 pop	 ebp
  0002b	c3		 ret	 0
?ajustClientDir@@YAXPAF@Z ENDP				; ajustClientDir
_TEXT	ENDS
; Function compile flags: /Ogtp
; File C:\Users\gg862\OneDrive\¹ÙÅÁ È­¸é\¸¾Äí¿Ï·á\Client Source Code1.31ÀÏº»\system\character.cpp
;	COMDAT ?createPetAction@@YAPAUaction@@HHHHHHH@Z
_TEXT	SEGMENT
_ptAct$1$ = -12						; size = 4
_my$ = -8						; size = 4
_mx$ = -4						; size = 4
_graNo$ = 8						; size = 4
_gx$ = 12						; size = 4
_gy$ = 16						; size = 4
_dir$ = 20						; size = 4
_mode$ = 24						; size = 4
_moveDir$ = 28						; size = 4
_id$ = 32						; size = 4
?createPetAction@@YAPAUaction@@HHHHHHH@Z PROC		; createPetAction, COMDAT

; 3291 : {

  00000	55		 push	 ebp
  00001	8b ec		 mov	 ebp, esp
  00003	83 ec 0c	 sub	 esp, 12			; 0000000cH
  00006	56		 push	 esi

; 3292 : 	ACTION *ptAct;
; 3293 : 	float mx, my;
; 3294 : 	PETEXTRA *pe;
; 3295 : 
; 3296 : 	/* ?????????î™‘? */
; 3297 : 	ptAct = GetAction( PRIO_CHR, sizeof( PETEXTRA ) );

  00007	6a 2c		 push	 44			; 0000002cH
  00009	6a 01		 push	 1
  0000b	e8 00 00 00 00	 call	 ?GetAction@@YAPAUaction@@EI@Z ; GetAction
  00010	8b f0		 mov	 esi, eax
  00012	83 c4 08	 add	 esp, 8
  00015	89 75 f4	 mov	 DWORD PTR _ptAct$1$[ebp], esi

; 3298 : 	if( ptAct == NULL )

  00018	85 f6		 test	 esi, esi
  0001a	75 05		 jne	 SHORT $LN2@createPetA
  0001c	5e		 pop	 esi

; 3347 : }

  0001d	8b e5		 mov	 esp, ebp
  0001f	5d		 pop	 ebp
  00020	c3		 ret	 0
$LN2@createPetA:

; 3299 : 		return NULL;
; 3300 : 
; 3301 : 	// î¯???
; 3302 : 	ptAct->func = petProc;
; 3303 : 	// ???????îœ±?
; 3304 : 	ptAct->anim_chr_no = graNo;

  00021	8b 45 08	 mov	 eax, DWORD PTR _graNo$[ebp]

; 3305 : 	// î™®?îœ±?
; 3306 : 	ptAct->anim_no = ANIM_STAND;
; 3307 : 	// ?????????( ??? )( ??????? )
; 3308 : 	ptAct->anim_ang = dir;
; 3309 : 	// î¸î•?î“î™š
; 3310 : 	ptAct->dispPrio = DISP_PRIO_CHAR;
; 3311 : 	// 1?????î¸î•???
; 3312 : 	ptAct->atr = ACT_ATR_INFO |	ACT_ATR_HIT | ACT_ATR_HIDE2;
; 3313 : 	// ???î–º
; 3314 : 	ptAct->nextGx = gx;					// ????????î³??î™®î“?
; 3315 : 	ptAct->nextGy = gy;
; 3316 : 	ptAct->bufCount = 0;

  00024	33 c9		 xor	 ecx, ecx
  00026	89 86 44 01 00
	00		 mov	 DWORD PTR [esi+324], eax
  0002c	8b 45 14	 mov	 eax, DWORD PTR _dir$[ebp]
  0002f	53		 push	 ebx
  00030	8b 5d 10	 mov	 ebx, DWORD PTR _gy$[ebp]
  00033	89 86 54 01 00
	00		 mov	 DWORD PTR [esi+340], eax
  00039	8b 45 0c	 mov	 eax, DWORD PTR _gx$[ebp]
  0003c	89 86 bc 00 00
	00		 mov	 DWORD PTR [esi+188], eax

; 3317 : 	ptAct->gx = gx;						// ????????î³???ä½‹?

  00042	89 86 b4 00 00
	00		 mov	 DWORD PTR [esi+180], eax
  00048	66 0f 6e cb	 movd	 xmm1, ebx
  0004c	66 0f 6e d0	 movd	 xmm2, eax

; 3318 : 	ptAct->gy = gy;
; 3319 : 	ptAct->mx = (float)gx * GRID_SIZE;	// ????î³
; 3320 : 	ptAct->my = (float)gy * GRID_SIZE;
; 3321 : 	ptAct->vx = 0;						// ?î™®?îž¤
; 3322 : 	ptAct->vy = 0;
; 3323 : 
; 3324 : 	// ?î¡¡î¸î•?î–º
; 3325 : 	camMapToGamen( ptAct->mx, ptAct->my, &mx, &my );

  00050	8d 45 f8	 lea	 eax, DWORD PTR _my$[ebp]
  00053	57		 push	 edi
  00054	0f 5b c9	 cvtdq2ps xmm1, xmm1
  00057	50		 push	 eax
  00058	8d 45 fc	 lea	 eax, DWORD PTR _mx$[ebp]
  0005b	c7 46 08 00 00
	00 00		 mov	 DWORD PTR [esi+8], OFFSET ?petProc@@YAXPAUaction@@@Z ; petProc
  00062	50		 push	 eax
  00063	83 ec 08	 sub	 esp, 8
  00066	c7 86 4c 01 00
	00 03 00 00 00	 mov	 DWORD PTR [esi+332], 3
  00070	0f 5b d2	 cvtdq2ps xmm2, xmm2
  00073	c6 46 15 0a	 mov	 BYTE PTR [esi+21], 10	; 0000000aH
  00077	c7 86 a4 00 00
	00 34 00 00 00	 mov	 DWORD PTR [esi+164], 52	; 00000034H
  00081	89 9e c0 00 00
	00		 mov	 DWORD PTR [esi+192], ebx
  00087	66 89 8e 14 01
	00 00		 mov	 WORD PTR [esi+276], cx
  0008e	f3 0f 59 0d 00
	00 00 00	 mulss	 xmm1, DWORD PTR __real@42800000
  00096	89 9e b8 00 00
	00		 mov	 DWORD PTR [esi+184], ebx
  0009c	f3 0f 59 15 00
	00 00 00	 mulss	 xmm2, DWORD PTR __real@42800000
  000a4	89 8e 20 01 00
	00		 mov	 DWORD PTR [esi+288], ecx
  000aa	f3 0f 11 4c 24
	04		 movss	 DWORD PTR [esp+4], xmm1
  000b0	f3 0f 11 8e 1c
	01 00 00	 movss	 DWORD PTR [esi+284], xmm1
  000b8	f3 0f 11 96 18
	01 00 00	 movss	 DWORD PTR [esi+280], xmm2
  000c0	89 8e 24 01 00
	00		 mov	 DWORD PTR [esi+292], ecx
  000c6	f3 0f 11 14 24	 movss	 DWORD PTR [esp], xmm2
  000cb	e8 00 00 00 00	 call	 ?camMapToGamen@@YAXMMPAM0@Z ; camMapToGamen
  000d0	f3 0f 10 45 fc	 movss	 xmm0, DWORD PTR _mx$[ebp]

; 3326 : 	ptAct->x = (int)(mx+.5);

  000d5	0f 5a c0	 cvtps2pd xmm0, xmm0

; 3327 : 	ptAct->y = (int)(my+.5);
; 3328 : 
; 3329 : 	pe = (PETEXTRA *)ptAct->pYobi;

  000d8	8b 7e 0c	 mov	 edi, DWORD PTR [esi+12]
  000db	f2 0f 58 05 00
	00 00 00	 addsd	 xmm0, QWORD PTR __real@3fe0000000000000
  000e3	f2 0f 2c c0	 cvttsd2si eax, xmm0
  000e7	89 46 18	 mov	 DWORD PTR [esi+24], eax
  000ea	f3 0f 10 45 f8	 movss	 xmm0, DWORD PTR _my$[ebp]
  000ef	0f 5a c0	 cvtps2pd xmm0, xmm0
  000f2	f2 0f 58 05 00
	00 00 00	 addsd	 xmm0, QWORD PTR __real@3fe0000000000000
  000fa	f2 0f 2c c0	 cvttsd2si eax, xmm0
  000fe	89 46 1c	 mov	 DWORD PTR [esi+28], eax

; 3330 : 	pe->mode = mode;
; 3331 : 	pe->moveDir = moveDir;

  00101	8d 77 02	 lea	 esi, DWORD PTR [edi+2]
  00104	66 8b 45 18	 mov	 ax, WORD PTR _mode$[ebp]
  00108	66 89 07	 mov	 WORD PTR [edi], ax
  0010b	66 8b 45 1c	 mov	 ax, WORD PTR _moveDir$[ebp]

; 3332 : 	limitCantClientDir( &pe->moveDir );

  0010f	56		 push	 esi
  00110	66 89 06	 mov	 WORD PTR [esi], ax
  00113	e8 00 00 00 00	 call	 ?limitCantClientDir@@YAXPAF@Z ; limitCantClientDir

; 3333 : 	pe->preDir = pe->moveDir;

  00118	0f b7 06	 movzx	 eax, WORD PTR [esi]
  0011b	83 c4 14	 add	 esp, 20			; 00000014H
  0011e	66 89 47 04	 mov	 WORD PTR [edi+4], ax

; 3334 : 	pe->dirCnt = 0;

  00122	33 c0		 xor	 eax, eax
  00124	66 89 47 06	 mov	 WORD PTR [edi+6], ax

; 3335 : 	pe->preGx = gx;

  00128	8b 45 0c	 mov	 eax, DWORD PTR _gx$[ebp]
  0012b	89 47 08	 mov	 DWORD PTR [edi+8], eax

; 3336 : 	pe->preGy = gy;

  0012e	89 5f 0c	 mov	 DWORD PTR [edi+12], ebx

; 3337 : 	pe->walkCnt = 0;

  00131	c7 47 10 00 00
	00 00		 mov	 DWORD PTR [edi+16], 0

; 3338 : 	pe->createTime = TimeGetTime();

  00138	e8 00 00 00 00	 call	 ?TimeGetTime@@YAIXZ	; TimeGetTime
  0013d	89 47 14	 mov	 DWORD PTR [edi+20], eax

; 3339 : 	pe->ptAct  = NULL;
; 3340 : 	pe->ptAct2 = NULL;
; 3341 : 	pe->angle = 0.0F;
; 3342 : 	pe->r = 0;
; 3343 : 
; 3344 : 	pe->id = id;

  00140	8b 45 20	 mov	 eax, DWORD PTR _id$[ebp]
  00143	89 47 28	 mov	 DWORD PTR [edi+40], eax

; 3345 : 
; 3346 : 	return ptAct;

  00146	8b 45 f4	 mov	 eax, DWORD PTR _ptAct$1$[ebp]
  00149	c7 47 18 00 00
	00 00		 mov	 DWORD PTR [edi+24], 0
  00150	c7 47 1c 00 00
	00 00		 mov	 DWORD PTR [edi+28], 0
  00157	c7 47 20 00 00
	00 00		 mov	 DWORD PTR [edi+32], 0
  0015e	c7 47 24 00 00
	00 00		 mov	 DWORD PTR [edi+36], 0
  00165	5f		 pop	 edi
  00166	5b		 pop	 ebx
  00167	5e		 pop	 esi

; 3347 : }

  00168	8b e5		 mov	 esp, ebp
  0016a	5d		 pop	 ebp
  0016b	c3		 ret	 0
?createPetAction@@YAPAUaction@@HHHHHHH@Z ENDP		; createPetAction
_TEXT	ENDS
; Function compile flags: /Ogtp
; File C:\Users\gg862\OneDrive\¹ÙÅÁ È­¸é\¸¾Äí¿Ï·á\Client Source Code1.31ÀÏº»\system\character.cpp
;	COMDAT ?itemOverlapCheck@@YAHIHH@Z
_TEXT	SEGMENT
_bmpNo$ = 8						; size = 4
_gx$ = 12						; size = 4
_gy$ = 16						; size = 4
?itemOverlapCheck@@YAHIHH@Z PROC			; itemOverlapCheck, COMDAT

; 2887 : {

  00000	55		 push	 ebp
  00001	8b ec		 mov	 ebp, esp

; 2888 : 	int i;
; 2889 : 	BOOL flag = FALSE;
; 2890 : 	for( i = 0; i < itemOverlapCheckCnt; i++ ){

  00003	8b 15 00 00 00
	00		 mov	 edx, DWORD PTR ?itemOverlapCheckCnt@@3HA ; itemOverlapCheckCnt
  00009	33 c9		 xor	 ecx, ecx
  0000b	53		 push	 ebx
  0000c	8b 5d 08	 mov	 ebx, DWORD PTR _bmpNo$[ebp]
  0000f	56		 push	 esi
  00010	8b 75 10	 mov	 esi, DWORD PTR _gy$[ebp]
  00013	57		 push	 edi
  00014	8b 7d 0c	 mov	 edi, DWORD PTR _gx$[ebp]
  00017	85 d2		 test	 edx, edx
  00019	7e 1b		 jle	 SHORT $LN15@itemOverla
  0001b	b8 04 00 00 00	 mov	 eax, OFFSET ?itemOverlapTbl@@3PAUITEM_OVERLAP_CHECK@@A+4
$LL4@itemOverla:

; 2891 : 		if( itemOverlapTbl[i].bmpNo == bmpNo
; 2892 : 		 && itemOverlapTbl[i].gx == gx
; 2893 : 		 && itemOverlapTbl[i].gy == gy ){

  00020	39 58 fc	 cmp	 DWORD PTR [eax-4], ebx
  00023	75 09		 jne	 SHORT $LN2@itemOverla
  00025	39 38		 cmp	 DWORD PTR [eax], edi
  00027	75 05		 jne	 SHORT $LN2@itemOverla
  00029	39 70 04	 cmp	 DWORD PTR [eax+4], esi
  0002c	74 33		 je	 SHORT $LN10@itemOverla
$LN2@itemOverla:

; 2888 : 	int i;
; 2889 : 	BOOL flag = FALSE;
; 2890 : 	for( i = 0; i < itemOverlapCheckCnt; i++ ){

  0002e	41		 inc	 ecx
  0002f	83 c0 0c	 add	 eax, 12			; 0000000cH
  00032	3b ca		 cmp	 ecx, edx
  00034	7c ea		 jl	 SHORT $LL4@itemOverla
$LN15@itemOverla:

; 2894 : 			flag = TRUE;
; 2895 : 			break;
; 2896 : 		}
; 2897 : 	}
; 2898 : 	if( !flag ){
; 2899 : 		if( itemOverlapCheckCnt < MAX_ITEM_OVERLAP ){

  00036	83 fa 64	 cmp	 edx, 100		; 00000064H
  00039	7d 1f		 jge	 SHORT $LN16@itemOverla

; 2900 : 			itemOverlapTbl[itemOverlapCheckCnt].bmpNo = bmpNo;

  0003b	8d 0c 52	 lea	 ecx, DWORD PTR [edx+edx*2]

; 2901 : 			itemOverlapTbl[itemOverlapCheckCnt].gx    = gx;
; 2902 : 			itemOverlapTbl[itemOverlapCheckCnt].gy    = gy;
; 2903 : 			itemOverlapCheckCnt++;

  0003e	42		 inc	 edx
  0003f	89 1c 8d 00 00
	00 00		 mov	 DWORD PTR ?itemOverlapTbl@@3PAUITEM_OVERLAP_CHECK@@A[ecx*4], ebx
  00046	89 3c 8d 04 00
	00 00		 mov	 DWORD PTR ?itemOverlapTbl@@3PAUITEM_OVERLAP_CHECK@@A[ecx*4+4], edi
  0004d	89 34 8d 08 00
	00 00		 mov	 DWORD PTR ?itemOverlapTbl@@3PAUITEM_OVERLAP_CHECK@@A[ecx*4+8], esi
  00054	89 15 00 00 00
	00		 mov	 DWORD PTR ?itemOverlapCheckCnt@@3HA, edx ; itemOverlapCheckCnt
$LN16@itemOverla:

; 2904 : 		}
; 2905 : 	}
; 2906 : 	return flag;
; 2907 : }

  0005a	5f		 pop	 edi
  0005b	5e		 pop	 esi
  0005c	33 c0		 xor	 eax, eax
  0005e	5b		 pop	 ebx
  0005f	5d		 pop	 ebp
  00060	c3		 ret	 0
$LN10@itemOverla:
  00061	5f		 pop	 edi
  00062	5e		 pop	 esi
  00063	b8 01 00 00 00	 mov	 eax, 1
  00068	5b		 pop	 ebx
  00069	5d		 pop	 ebp
  0006a	c3		 ret	 0
?itemOverlapCheck@@YAHIHH@Z ENDP			; itemOverlapCheck
_TEXT	ENDS
; Function compile flags: /Ogtp
; File C:\Users\gg862\OneDrive\¹ÙÅÁ È­¸é\¸¾Äí¿Ï·á\Client Source Code1.31ÀÏº»\system\character.cpp
;	COMDAT ?initItemOverlapCheck@@YAXXZ
_TEXT	SEGMENT
?initItemOverlapCheck@@YAXXZ PROC			; initItemOverlapCheck, COMDAT

; 2880 : 	itemOverlapCheckCnt = 0;

  00000	c7 05 00 00 00
	00 00 00 00 00	 mov	 DWORD PTR ?itemOverlapCheckCnt@@3HA, 0 ; itemOverlapCheckCnt

; 2881 : }

  0000a	c3		 ret	 0
?initItemOverlapCheck@@YAXXZ ENDP			; initItemOverlapCheck
_TEXT	ENDS
; Function compile flags: /Ogtp
; File C:\Users\gg862\OneDrive\¹ÙÅÁ È­¸é\¸¾Äí¿Ï·á\Client Source Code1.31ÀÏº»\system\character.cpp
;	COMDAT ?getCharObjBuf@@YAHXZ
_TEXT	SEGMENT
?getCharObjBuf@@YAHXZ PROC				; getCharObjBuf, COMDAT

; 2414 : 	int i;
; 2415 : 	int ret;
; 2416 : 	// ??????????îŽ·??
; 2417 : 	if( maxCharObj >= MAX_CHAROBJ )

  00000	a1 00 00 00 00	 mov	 eax, DWORD PTR ?maxCharObj@@3HA ; maxCharObj
  00005	3d dc 05 00 00	 cmp	 eax, 1500		; 000005dcH
  0000a	7c 04		 jl	 SHORT $LN8@getCharObj

; 2418 : 		return -1;

  0000c	83 c8 ff	 or	 eax, -1

; 2441 : }

  0000f	c3		 ret	 0
$LN8@getCharObj:

; 2419 : 	ret = freeCharObj;
; 2420 : 	// î—ª?????î•«î–±?î‘¡
; 2421 : 	maxCharObj++;
; 2422 : 	// ??î“?î™‘??î–º
; 2423 : 	if( freeCharObj+1 > tailCharObj )

  00010	8b 0d 00 00 00
	00		 mov	 ecx, DWORD PTR ?tailCharObj@@3HA ; tailCharObj
  00016	40		 inc	 eax
  00017	56		 push	 esi
  00018	8b 35 00 00 00
	00		 mov	 esi, DWORD PTR ?freeCharObj@@3HA ; freeCharObj
  0001e	57		 push	 edi
  0001f	8b fe		 mov	 edi, esi
  00021	a3 00 00 00 00	 mov	 DWORD PTR ?maxCharObj@@3HA, eax ; maxCharObj
  00026	8d 47 01	 lea	 eax, DWORD PTR [edi+1]
  00029	3b c1		 cmp	 eax, ecx
  0002b	8d 57 01	 lea	 edx, DWORD PTR [edi+1]
  0002e	0f 4f ca	 cmovg	 ecx, edx
  00031	89 0d 00 00 00
	00		 mov	 DWORD PTR ?tailCharObj@@3HA, ecx ; tailCharObj

; 2424 : 		tailCharObj = freeCharObj+1;
; 2425 : 	// ???????????
; 2426 : 	for( i = freeCharObj+1; i < MAX_CHAROBJ; i++ ){

  00037	81 fa dc 05 00
	00		 cmp	 edx, 1500		; 000005dcH
  0003d	7d 2e		 jge	 SHORT $LN3@getCharObj
  0003f	69 c2 0c 01 00
	00		 imul	 eax, edx, 268
  00045	05 00 00 00 00	 add	 eax, OFFSET ?charObj@@3PAUCHAROBJ@@A ; charObj
  0004a	66 0f 1f 44 00
	00		 npad	 6
$LL4@getCharObj:

; 2427 : 		if( charObj[i].use == CHAROBJ_USE_FREE ){

  00050	66 83 38 00	 cmp	 WORD PTR [eax], 0
  00054	74 0f		 je	 SHORT $LN16@getCharObj

; 2424 : 		tailCharObj = freeCharObj+1;
; 2425 : 	// ???????????
; 2426 : 	for( i = freeCharObj+1; i < MAX_CHAROBJ; i++ ){

  00056	05 0c 01 00 00	 add	 eax, 268		; 0000010cH
  0005b	42		 inc	 edx
  0005c	3d 50 22 06 00	 cmp	 eax, OFFSET ?charObj@@3PAUCHAROBJ@@A+402000
  00061	7c ed		 jl	 SHORT $LL4@getCharObj

; 2434 : 			if( charObj[i].use == CHAROBJ_USE_FREE ){

  00063	eb 08		 jmp	 SHORT $LN3@getCharObj
$LN16@getCharObj:

; 2428 : 			freeCharObj = i;

  00065	8b f2		 mov	 esi, edx
  00067	89 35 00 00 00
	00		 mov	 DWORD PTR ?freeCharObj@@3HA, esi ; freeCharObj
$LN3@getCharObj:

; 2429 : 			break;
; 2430 : 		}
; 2431 : 	}
; 2432 : 	if( freeCharObj > 0 && i >= MAX_CHAROBJ ){

  0006d	85 f6		 test	 esi, esi
  0006f	7e 2e		 jle	 SHORT $LN6@getCharObj
  00071	81 fa dc 05 00
	00		 cmp	 edx, 1500		; 000005dcH
  00077	7c 26		 jl	 SHORT $LN6@getCharObj

; 2433 : 		for( i = 0; i < freeCharObj; i++ ){

  00079	33 c0		 xor	 eax, eax
  0007b	85 f6		 test	 esi, esi
  0007d	7e 20		 jle	 SHORT $LN6@getCharObj
  0007f	b9 00 00 00 00	 mov	 ecx, OFFSET ?charObj@@3PAUCHAROBJ@@A ; charObj
$LL7@getCharObj:

; 2434 : 			if( charObj[i].use == CHAROBJ_USE_FREE ){

  00084	66 83 39 00	 cmp	 WORD PTR [ecx], 0
  00088	74 10		 je	 SHORT $LN17@getCharObj

; 2433 : 		for( i = 0; i < freeCharObj; i++ ){

  0008a	40		 inc	 eax
  0008b	81 c1 0c 01 00
	00		 add	 ecx, 268		; 0000010cH
  00091	3b c6		 cmp	 eax, esi
  00093	7c ef		 jl	 SHORT $LL7@getCharObj

; 2436 : 				break;
; 2437 : 			}
; 2438 : 		}
; 2439 : 	}
; 2440 : 	return ret;

  00095	8b c7		 mov	 eax, edi
  00097	5f		 pop	 edi
  00098	5e		 pop	 esi

; 2441 : }

  00099	c3		 ret	 0
$LN17@getCharObj:

; 2435 : 				freeCharObj = i;

  0009a	a3 00 00 00 00	 mov	 DWORD PTR ?freeCharObj@@3HA, eax ; freeCharObj
$LN6@getCharObj:

; 2436 : 				break;
; 2437 : 			}
; 2438 : 		}
; 2439 : 	}
; 2440 : 	return ret;

  0009f	8b c7		 mov	 eax, edi
  000a1	5f		 pop	 edi
  000a2	5e		 pop	 esi

; 2441 : }

  000a3	c3		 ret	 0
?getCharObjBuf@@YAHXZ ENDP				; getCharObjBuf
_TEXT	ENDS
; Function compile flags: /Ogtp
; File C:\Users\gg862\OneDrive\¹ÙÅÁ È­¸é\¸¾Äí¿Ï·á\Client Source Code1.31ÀÏº»\system\character.cpp
;	COMDAT ?getCharObjAct@@YAPAUaction@@H@Z
_TEXT	SEGMENT
_id$ = 8						; size = 4
?getCharObjAct@@YAPAUaction@@H@Z PROC			; getCharObjAct, COMDAT

; 2491 : {

  00000	55		 push	 ebp
  00001	8b ec		 mov	 ebp, esp

; 2492 : 	int no;
; 2493 : 	if( (no = searchCharObjId( id )) < 0 )

  00003	ff 75 08	 push	 DWORD PTR _id$[ebp]
  00006	e8 00 00 00 00	 call	 ?searchCharObjId@@YAHH@Z ; searchCharObjId
  0000b	83 c4 04	 add	 esp, 4
  0000e	85 c0		 test	 eax, eax
  00010	78 10		 js	 SHORT $LN5@getCharObj

; 2494 : 		return NULL;
; 2495 : 	if( charObj[no].ptAct == NULL )

  00012	69 c0 0c 01 00
	00		 imul	 eax, eax, 268
  00018	8b 80 bc 00 00
	00		 mov	 eax, DWORD PTR ?charObj@@3PAUCHAROBJ@@A[eax+188]
  0001e	85 c0		 test	 eax, eax
  00020	75 02		 jne	 SHORT $LN1@getCharObj
$LN5@getCharObj:

; 2496 : 		return NULL;

  00022	33 c0		 xor	 eax, eax
$LN1@getCharObj:

; 2497 : 	return charObj[no].ptAct;
; 2498 : }

  00024	5d		 pop	 ebp
  00025	c3		 ret	 0
?getCharObjAct@@YAPAUaction@@H@Z ENDP			; getCharObjAct
_TEXT	ENDS
; Function compile flags: /Ogtp
; File C:\Users\gg862\OneDrive\¹ÙÅÁ È­¸é\¸¾Äí¿Ï·á\Client Source Code1.31ÀÏº»\system\character.cpp
;	COMDAT ?setMovePointCharObj@@YAXHHH@Z
_TEXT	SEGMENT
_id$ = 8						; size = 4
_nextGx$ = 12						; size = 4
_nextGy$ = 16						; size = 4
?setMovePointCharObj@@YAXHHH@Z PROC			; setMovePointCharObj, COMDAT

; 2851 : {

  00000	55		 push	 ebp
  00001	8b ec		 mov	 ebp, esp

; 2852 : 	int no;
; 2853 : 
; 2854 : 	no = searchCharObjId( id );

  00003	ff 75 08	 push	 DWORD PTR _id$[ebp]
  00006	e8 00 00 00 00	 call	 ?searchCharObjId@@YAHH@Z ; searchCharObjId
  0000b	83 c4 04	 add	 esp, 4

; 2855 : 	if( no >= 0 )

  0000e	85 c0		 test	 eax, eax
  00010	78 1a		 js	 SHORT $LN2@setMovePoi

; 2856 : 	{
; 2857 : 		stockCharMovePoint( charObj[no].ptAct, nextGx, nextGy );

  00012	ff 75 10	 push	 DWORD PTR _nextGy$[ebp]
  00015	69 c0 0c 01 00
	00		 imul	 eax, eax, 268
  0001b	ff 75 0c	 push	 DWORD PTR _nextGx$[ebp]
  0001e	ff b0 bc 00 00
	00		 push	 DWORD PTR ?charObj@@3PAUCHAROBJ@@A[eax+188]
  00024	e8 00 00 00 00	 call	 ?stockCharMovePoint@@YAXPAUaction@@HH@Z ; stockCharMovePoint
  00029	83 c4 0c	 add	 esp, 12			; 0000000cH
$LN2@setMovePoi:

; 2858 : 	}
; 2859 : }

  0002c	5d		 pop	 ebp
  0002d	c3		 ret	 0
?setMovePointCharObj@@YAXHHH@Z ENDP			; setMovePointCharObj
_TEXT	ENDS
; Function compile flags: /Ogtp
; File C:\Users\gg862\OneDrive\¹ÙÅÁ È­¸é\¸¾Äí¿Ï·á\Client Source Code1.31ÀÏº»\system\character.cpp
;	COMDAT ?restorePtActCharObj@@YAXH@Z
_TEXT	SEGMENT
_id$ = 8						; size = 4
?restorePtActCharObj@@YAXH@Z PROC			; restorePtActCharObj, COMDAT

; 2812 : {

  00000	55		 push	 ebp
  00001	8b ec		 mov	 ebp, esp

; 2813 : 	int no;
; 2814 : 	CHAREXTRA *ext;
; 2815 : 
; 2816 : 	if( id < 0 )

  00003	8b 45 08	 mov	 eax, DWORD PTR _id$[ebp]
  00006	85 c0		 test	 eax, eax
  00008	0f 88 b4 00 00
	00		 js	 $LN4@restorePtA

; 2817 : 		return;
; 2818 : 
; 2819 : 	// î™‘???????????
; 2820 : 	if( (no = searchCharObjId( id )) < 0 )

  0000e	57		 push	 edi
  0000f	50		 push	 eax
  00010	e8 00 00 00 00	 call	 ?searchCharObjId@@YAHH@Z ; searchCharObjId
  00015	8b f8		 mov	 edi, eax
  00017	83 c4 04	 add	 esp, 4
  0001a	85 ff		 test	 edi, edi
  0001c	0f 88 9f 00 00
	00		 js	 $LN11@restorePtA

; 2821 : 	{
; 2822 : 		// î¡Š????îŽ·??
; 2823 : 		return;
; 2824 : 	}
; 2825 : 
; 2826 : 	if( charObj[no].use != CHAROBJ_USE_FREE
; 2827 : 	 && charObj[no].ptAct == NULL )

  00022	56		 push	 esi
  00023	69 f7 0c 01 00
	00		 imul	 esi, edi, 268
  00029	66 83 be 00 00
	00 00 00	 cmp	 WORD PTR ?charObj@@3PAUCHAROBJ@@A[esi], 0
  00031	0f 84 89 00 00
	00		 je	 $LN12@restorePtA
  00037	83 be bc 00 00
	00 00		 cmp	 DWORD PTR ?charObj@@3PAUCHAROBJ@@A[esi+188], 0
  0003e	0f 85 7c 00 00
	00		 jne	 $LN12@restorePtA

; 2828 : 	{
; 2829 : 		charObj[no].ptAct =

  00044	ff b6 18 00 00
	00		 push	 DWORD PTR ?charObj@@3PAUCHAROBJ@@A[esi+24]
  0004a	ff b6 10 00 00
	00		 push	 DWORD PTR ?charObj@@3PAUCHAROBJ@@A[esi+16]
  00050	ff b6 0c 00 00
	00		 push	 DWORD PTR ?charObj@@3PAUCHAROBJ@@A[esi+12]
  00056	ff b6 08 00 00
	00		 push	 DWORD PTR ?charObj@@3PAUCHAROBJ@@A[esi+8]
  0005c	e8 00 00 00 00	 call	 ?createCharAction@@YAPAUaction@@HHHH@Z ; createCharAction
  00061	83 c4 10	 add	 esp, 16			; 00000010H
  00064	89 86 bc 00 00
	00		 mov	 DWORD PTR ?charObj@@3PAUCHAROBJ@@A[esi+188], eax

; 2830 : 			createCharAction( charObj[no].graNo, charObj[no].gx, charObj[no].gy, charObj[no].dir );
; 2831 : 		if( charObj[no].ptAct == NULL )

  0006a	85 c0		 test	 eax, eax
  0006c	74 52		 je	 SHORT $LN12@restorePtA

; 2832 : 		{
; 2833 : 			// ?????????????îŽ·??
; 2834 : 			return;
; 2835 : 		}
; 2836 : 
; 2837 : 		charObj[no].use = CHAROBJ_USE_VIEW;

  0006e	b9 02 00 00 00	 mov	 ecx, 2

; 2838 : 
; 2839 : 		ext = (CHAREXTRA *)charObj[no].ptAct->pYobi;
; 2840 : 		ext->charObjTblId = no;
; 2841 : 
; 2842 : 		charObj[no].ptAct->level = charObj[no].level;
; 2843 : 		strcpy( charObj[no].ptAct->name, charObj[no].name );

  00073	8d 96 38 00 00
	00		 lea	 edx, DWORD PTR ?charObj@@3PAUCHAROBJ@@A[esi+56]
  00079	66 89 8e 00 00
	00 00		 mov	 WORD PTR ?charObj@@3PAUCHAROBJ@@A[esi], cx
  00080	8b 40 0c	 mov	 eax, DWORD PTR [eax+12]
  00083	89 38		 mov	 DWORD PTR [eax], edi
  00085	8b 8e bc 00 00
	00		 mov	 ecx, DWORD PTR ?charObj@@3PAUCHAROBJ@@A[esi+188]
  0008b	8b 86 14 00 00
	00		 mov	 eax, DWORD PTR ?charObj@@3PAUCHAROBJ@@A[esi+20]
  00091	89 81 8c 00 00
	00		 mov	 DWORD PTR [ecx+140], eax
  00097	8b 86 bc 00 00
	00		 mov	 eax, DWORD PTR ?charObj@@3PAUCHAROBJ@@A[esi+188]
  0009d	83 c0 38	 add	 eax, 56			; 00000038H
$LL7@restorePtA:
  000a0	8a 0a		 mov	 cl, BYTE PTR [edx]
  000a2	8d 52 01	 lea	 edx, DWORD PTR [edx+1]
  000a5	88 08		 mov	 BYTE PTR [eax], cl
  000a7	8d 40 01	 lea	 eax, DWORD PTR [eax+1]
  000aa	84 c9		 test	 cl, cl
  000ac	75 f2		 jne	 SHORT $LL7@restorePtA

; 2844 : 		charObj[no].ptAct->atr |= charObj[no].charType;

  000ae	8b 8e bc 00 00
	00		 mov	 ecx, DWORD PTR ?charObj@@3PAUCHAROBJ@@A[esi+188]
  000b4	8b 86 b4 00 00
	00		 mov	 eax, DWORD PTR ?charObj@@3PAUCHAROBJ@@A[esi+180]
  000ba	09 81 a4 00 00
	00		 or	 DWORD PTR [ecx+164], eax
$LN12@restorePtA:
  000c0	5e		 pop	 esi
$LN11@restorePtA:
  000c1	5f		 pop	 edi
$LN4@restorePtA:

; 2845 : 	}
; 2846 : }

  000c2	5d		 pop	 ebp
  000c3	c3		 ret	 0
?restorePtActCharObj@@YAXH@Z ENDP			; restorePtActCharObj
_TEXT	ENDS
; Function compile flags: /Ogtp
; File C:\Users\gg862\OneDrive\¹ÙÅÁ È­¸é\¸¾Äí¿Ï·á\Client Source Code1.31ÀÏº»\system\character.cpp
;	COMDAT ?restorePtActCharObjAll@@YAXXZ
_TEXT	SEGMENT
?restorePtActCharObjAll@@YAXXZ PROC			; restorePtActCharObjAll, COMDAT

; 2744 : {

  00000	53		 push	 ebx

; 2745 : 	int i;
; 2746 : 	CHAREXTRA *ext;
; 2747 : 
; 2748 : 	for( i = 0; i < MAX_CHAROBJ; i++ )

  00001	33 db		 xor	 ebx, ebx
  00003	56		 push	 esi
  00004	57		 push	 edi
  00005	be 10 00 00 00	 mov	 esi, OFFSET ?charObj@@3PAUCHAROBJ@@A+16
  0000a	8d 7b 02	 lea	 edi, DWORD PTR [ebx+2]
  0000d	0f 1f 00	 npad	 3
$LL4@restorePtA:

; 2749 : 	{
; 2750 : 		if( charObj[i].use != CHAROBJ_USE_FREE
; 2751 : 		 && charObj[i].ptAct == NULL )

  00010	66 83 7e f0 00	 cmp	 WORD PTR [esi-16], 0
  00015	0f 84 0d 01 00
	00		 je	 $LN2@restorePtA
  0001b	83 be ac 00 00
	00 00		 cmp	 DWORD PTR [esi+172], 0
  00022	0f 85 00 01 00
	00		 jne	 $LN2@restorePtA

; 2752 : 		{
; 2753 : 			charObj[i].ptAct =

  00028	ff 76 08	 push	 DWORD PTR [esi+8]
  0002b	ff 36		 push	 DWORD PTR [esi]
  0002d	ff 76 fc	 push	 DWORD PTR [esi-4]
  00030	ff 76 f8	 push	 DWORD PTR [esi-8]
  00033	e8 00 00 00 00	 call	 ?createCharAction@@YAPAUaction@@HHHH@Z ; createCharAction
  00038	83 c4 10	 add	 esp, 16			; 00000010H
  0003b	89 86 ac 00 00
	00		 mov	 DWORD PTR [esi+172], eax

; 2754 : 				createCharAction( charObj[i].graNo, charObj[i].gx, charObj[i].gy, charObj[i].dir );
; 2755 : 			if( charObj[i].ptAct == NULL )

  00041	85 c0		 test	 eax, eax
  00043	0f 84 df 00 00
	00		 je	 $LN2@restorePtA

; 2756 : 			{
; 2757 : 				continue;
; 2758 : 			}
; 2759 : 
; 2760 : 			charObj[i].use = CHAROBJ_USE_VIEW;

  00049	66 89 7e f0	 mov	 WORD PTR [esi-16], di

; 2761 : 
; 2762 : 			ext = (CHAREXTRA *)charObj[i].ptAct->pYobi;
; 2763 : 			ext->charObjTblId = i;

  0004d	8b 40 0c	 mov	 eax, DWORD PTR [eax+12]
  00050	89 18		 mov	 DWORD PTR [eax], ebx

; 2764 : 
; 2765 : 			// NPC????????
; 2766 : 			// î•‚?PC????????
; 2767 : 			// î™‚?îœŸ
; 2768 : 			if( charObj[i].type == CHAROBJ_TYPE_NPC
; 2769 : 			 || charObj[i].type == CHAROBJ_TYPE_USER_NPC )

  00052	0f b7 46 f2	 movzx	 eax, WORD PTR [esi-14]
  00056	66 83 f8 01	 cmp	 ax, 1
  0005a	0f 84 8d 00 00
	00		 je	 $LN9@restorePtA
  00060	66 83 f8 08	 cmp	 ax, 8
  00064	0f 84 83 00 00
	00		 je	 $LN9@restorePtA

; 2773 : 				charObj[i].ptAct->atr |= charObj[i].charType;
; 2774 : 			}
; 2775 : 			else
; 2776 : 			// Item????????
; 2777 : 			if( charObj[i].type == CHAROBJ_TYPE_ITEM )

  0006a	66 83 f8 02	 cmp	 ax, 2
  0006e	75 43		 jne	 SHORT $LN10@restorePtA

; 2778 : 			{
; 2779 : 				// 1??????î????name?îš¼??
; 2780 : 				if( strlen( charObj[i].info ) <= ITEM_NAME_LEN )

  00070	8d 56 5a	 lea	 edx, DWORD PTR [esi+90]
  00073	8b ca		 mov	 ecx, edx
  00075	8d 79 01	 lea	 edi, DWORD PTR [ecx+1]
$LL34@restorePtA:
  00078	8a 01		 mov	 al, BYTE PTR [ecx]
  0007a	41		 inc	 ecx
  0007b	84 c0		 test	 al, al
  0007d	75 f9		 jne	 SHORT $LL34@restorePtA
  0007f	8b 86 ac 00 00
	00		 mov	 eax, DWORD PTR [esi+172]
  00085	2b cf		 sub	 ecx, edi
  00087	83 f9 1c	 cmp	 ecx, 28			; 0000001cH
  0008a	77 19		 ja	 SHORT $LN12@restorePtA

; 2781 : 				{
; 2782 : 					strcpy( charObj[i].ptAct->name, charObj[i].info );

  0008c	8d 48 38	 lea	 ecx, DWORD PTR [eax+56]
  0008f	90		 npad	 1
$LL19@restorePtA:
  00090	8a 02		 mov	 al, BYTE PTR [edx]
  00092	8d 52 01	 lea	 edx, DWORD PTR [edx+1]
  00095	88 01		 mov	 BYTE PTR [ecx], al
  00097	8d 49 01	 lea	 ecx, DWORD PTR [ecx+1]
  0009a	84 c0		 test	 al, al
  0009c	75 f2		 jne	 SHORT $LL19@restorePtA

; 2745 : 	int i;
; 2746 : 	CHAREXTRA *ext;
; 2747 : 
; 2748 : 	for( i = 0; i < MAX_CHAROBJ; i++ )

  0009e	bf 02 00 00 00	 mov	 edi, 2
  000a3	eb 71		 jmp	 SHORT $LN36@restorePtA
$LN12@restorePtA:
  000a5	c7 40 38 3f 3f
	3f 00		 mov	 DWORD PTR [eax+56], 4144959 ; 003f3f3fH
  000ac	bf 02 00 00 00	 mov	 edi, 2
  000b1	eb 63		 jmp	 SHORT $LN36@restorePtA
$LN10@restorePtA:

; 2783 : 				}
; 2784 : 				else
; 2785 : 				{
; 2786 : 					strcpy( charObj[i].ptAct->name, "???" );
; 2787 : 				}
; 2788 : 				charObj[i].ptAct->atr |= charObj[i].charType;
; 2789 : 			}
; 2790 : 			else
; 2791 : 			// ??????????
; 2792 : 			if( charObj[i].type == CHAROBJ_TYPE_MONEY )

  000b3	66 83 f8 04	 cmp	 ax, 4
  000b7	75 6f		 jne	 SHORT $LN2@restorePtA

; 2793 : 			{
; 2794 : 				// 1??????î????name?îš¼??
; 2795 : 				if( strlen( charObj[i].info ) <= CHAR_NAME_LEN )

  000b9	8d 56 5a	 lea	 edx, DWORD PTR [esi+90]
  000bc	8b ca		 mov	 ecx, edx
  000be	8d 79 01	 lea	 edi, DWORD PTR [ecx+1]
$LL35@restorePtA:
  000c1	8a 01		 mov	 al, BYTE PTR [ecx]
  000c3	41		 inc	 ecx
  000c4	84 c0		 test	 al, al
  000c6	75 f9		 jne	 SHORT $LL35@restorePtA
  000c8	8b 86 ac 00 00
	00		 mov	 eax, DWORD PTR [esi+172]
  000ce	2b cf		 sub	 ecx, edi
  000d0	83 f9 10	 cmp	 ecx, 16			; 00000010H
  000d3	77 d0		 ja	 SHORT $LN12@restorePtA

; 2796 : 				{
; 2797 : 					strcpy( charObj[i].ptAct->name, charObj[i].info );

  000d5	8d 48 38	 lea	 ecx, DWORD PTR [eax+56]
$LL20@restorePtA:
  000d8	8a 02		 mov	 al, BYTE PTR [edx]
  000da	8d 52 01	 lea	 edx, DWORD PTR [edx+1]
  000dd	88 01		 mov	 BYTE PTR [ecx], al
  000df	8d 49 01	 lea	 ecx, DWORD PTR [ecx+1]
  000e2	84 c0		 test	 al, al
  000e4	75 f2		 jne	 SHORT $LL20@restorePtA

; 2745 : 	int i;
; 2746 : 	CHAREXTRA *ext;
; 2747 : 
; 2748 : 	for( i = 0; i < MAX_CHAROBJ; i++ )

  000e6	bf 02 00 00 00	 mov	 edi, 2
  000eb	eb 29		 jmp	 SHORT $LN36@restorePtA
$LN9@restorePtA:

; 2770 : 			{
; 2771 : 				charObj[i].ptAct->level = charObj[i].level;

  000ed	8b 8e ac 00 00
	00		 mov	 ecx, DWORD PTR [esi+172]

; 2772 : 				strcpy( charObj[i].ptAct->name, charObj[i].name );

  000f3	8d 56 28	 lea	 edx, DWORD PTR [esi+40]
  000f6	8b 46 04	 mov	 eax, DWORD PTR [esi+4]
  000f9	89 81 8c 00 00
	00		 mov	 DWORD PTR [ecx+140], eax
  000ff	8b 8e ac 00 00
	00		 mov	 ecx, DWORD PTR [esi+172]
  00105	83 c1 38	 add	 ecx, 56			; 00000038H
$LL18@restorePtA:
  00108	8a 02		 mov	 al, BYTE PTR [edx]
  0010a	8d 52 01	 lea	 edx, DWORD PTR [edx+1]
  0010d	88 01		 mov	 BYTE PTR [ecx], al
  0010f	8d 49 01	 lea	 ecx, DWORD PTR [ecx+1]
  00112	84 c0		 test	 al, al
  00114	75 f2		 jne	 SHORT $LL18@restorePtA
$LN36@restorePtA:

; 2745 : 	int i;
; 2746 : 	CHAREXTRA *ext;
; 2747 : 
; 2748 : 	for( i = 0; i < MAX_CHAROBJ; i++ )

  00116	8b 8e ac 00 00
	00		 mov	 ecx, DWORD PTR [esi+172]
  0011c	8b 86 a4 00 00
	00		 mov	 eax, DWORD PTR [esi+164]
  00122	09 81 a4 00 00
	00		 or	 DWORD PTR [ecx+164], eax
$LN2@restorePtA:
  00128	81 c6 0c 01 00
	00		 add	 esi, 268		; 0000010cH
  0012e	43		 inc	 ebx
  0012f	81 fe 60 22 06
	00		 cmp	 esi, OFFSET ?charObj@@3PAUCHAROBJ@@A+402016
  00135	0f 8c d5 fe ff
	ff		 jl	 $LL4@restorePtA

; 2798 : 				}
; 2799 : 				else
; 2800 : 				{
; 2801 : 					strcpy( charObj[i].ptAct->name, "???" );
; 2802 : 				}
; 2803 : 				charObj[i].ptAct->atr |= charObj[i].charType;
; 2804 : 			}
; 2805 : 		}
; 2806 : 	}
; 2807 : }

  0013b	5f		 pop	 edi
  0013c	5e		 pop	 esi
  0013d	5b		 pop	 ebx
  0013e	c3		 ret	 0
?restorePtActCharObjAll@@YAXXZ ENDP			; restorePtActCharObjAll
_TEXT	ENDS
; Function compile flags: /Ogtp
; File C:\Users\gg862\OneDrive\¹ÙÅÁ È­¸é\¸¾Äí¿Ï·á\Client Source Code1.31ÀÏº»\system\character.cpp
;	COMDAT ?clearPtActCharObj@@YAXXZ
_TEXT	SEGMENT
?clearPtActCharObj@@YAXXZ PROC				; clearPtActCharObj, COMDAT

; 2729 : 	int i;
; 2730 : 
; 2731 : 	for( i = 0; i < MAX_CHAROBJ; i++ )

  00000	b8 bc 00 00 00	 mov	 eax, OFFSET ?charObj@@3PAUCHAROBJ@@A+188
$LL4@clearPtAct:

; 2732 : 	{
; 2733 : 		if( charObj[i].use != CHAROBJ_USE_FREE )

  00005	66 83 b8 44 ff
	ff ff 00	 cmp	 WORD PTR [eax-188], 0
  0000d	74 10		 je	 SHORT $LN2@clearPtAct

; 2734 : 		{
; 2735 : 			charObj[i].ptAct = NULL;

  0000f	c7 00 00 00 00
	00		 mov	 DWORD PTR [eax], 0

; 2736 : 			charObj[i].stockDir = -1;

  00015	c7 80 60 ff ff
	ff ff ff ff ff	 mov	 DWORD PTR [eax-160], -1
$LN2@clearPtAct:

; 2732 : 	{
; 2733 : 		if( charObj[i].use != CHAROBJ_USE_FREE )

  0001f	66 83 78 50 00	 cmp	 WORD PTR [eax+80], 0
  00024	74 11		 je	 SHORT $LN11@clearPtAct

; 2734 : 		{
; 2735 : 			charObj[i].ptAct = NULL;

  00026	c7 80 0c 01 00
	00 00 00 00 00	 mov	 DWORD PTR [eax+268], 0

; 2736 : 			charObj[i].stockDir = -1;

  00030	c7 40 6c ff ff
	ff ff		 mov	 DWORD PTR [eax+108], -1
$LN11@clearPtAct:

; 2732 : 	{
; 2733 : 		if( charObj[i].use != CHAROBJ_USE_FREE )

  00037	66 83 b8 5c 01
	00 00 00	 cmp	 WORD PTR [eax+348], 0
  0003f	74 14		 je	 SHORT $LN12@clearPtAct

; 2734 : 		{
; 2735 : 			charObj[i].ptAct = NULL;

  00041	c7 80 18 02 00
	00 00 00 00 00	 mov	 DWORD PTR [eax+536], 0

; 2736 : 			charObj[i].stockDir = -1;

  0004b	c7 80 78 01 00
	00 ff ff ff ff	 mov	 DWORD PTR [eax+376], -1
$LN12@clearPtAct:

; 2732 : 	{
; 2733 : 		if( charObj[i].use != CHAROBJ_USE_FREE )

  00055	66 83 b8 68 02
	00 00 00	 cmp	 WORD PTR [eax+616], 0
  0005d	74 14		 je	 SHORT $LN13@clearPtAct

; 2734 : 		{
; 2735 : 			charObj[i].ptAct = NULL;

  0005f	c7 80 24 03 00
	00 00 00 00 00	 mov	 DWORD PTR [eax+804], 0

; 2736 : 			charObj[i].stockDir = -1;

  00069	c7 80 84 02 00
	00 ff ff ff ff	 mov	 DWORD PTR [eax+644], -1
$LN13@clearPtAct:

; 2732 : 	{
; 2733 : 		if( charObj[i].use != CHAROBJ_USE_FREE )

  00073	66 83 b8 74 03
	00 00 00	 cmp	 WORD PTR [eax+884], 0
  0007b	74 14		 je	 SHORT $LN14@clearPtAct

; 2734 : 		{
; 2735 : 			charObj[i].ptAct = NULL;

  0007d	c7 80 30 04 00
	00 00 00 00 00	 mov	 DWORD PTR [eax+1072], 0

; 2736 : 			charObj[i].stockDir = -1;

  00087	c7 80 90 03 00
	00 ff ff ff ff	 mov	 DWORD PTR [eax+912], -1
$LN14@clearPtAct:

; 2732 : 	{
; 2733 : 		if( charObj[i].use != CHAROBJ_USE_FREE )

  00091	66 83 b8 80 04
	00 00 00	 cmp	 WORD PTR [eax+1152], 0
  00099	74 14		 je	 SHORT $LN15@clearPtAct

; 2734 : 		{
; 2735 : 			charObj[i].ptAct = NULL;

  0009b	c7 80 3c 05 00
	00 00 00 00 00	 mov	 DWORD PTR [eax+1340], 0

; 2736 : 			charObj[i].stockDir = -1;

  000a5	c7 80 9c 04 00
	00 ff ff ff ff	 mov	 DWORD PTR [eax+1180], -1
$LN15@clearPtAct:

; 2729 : 	int i;
; 2730 : 
; 2731 : 	for( i = 0; i < MAX_CHAROBJ; i++ )

  000af	05 48 06 00 00	 add	 eax, 1608		; 00000648H
  000b4	3d 0c 23 06 00	 cmp	 eax, OFFSET ?charObj@@3PAUCHAROBJ@@A+402188
  000b9	0f 8c 46 ff ff
	ff		 jl	 $LL4@clearPtAct

; 2737 : 		}
; 2738 : 	}
; 2739 : }

  000bf	c3		 ret	 0
?clearPtActCharObj@@YAXXZ ENDP				; clearPtActCharObj
_TEXT	ENDS
; Function compile flags: /Ogtp
; File C:\Users\gg862\OneDrive\¹ÙÅÁ È­¸é\¸¾Äí¿Ï·á\Client Source Code1.31ÀÏº»\system\character.cpp
;	COMDAT ?resetCharObj@@YAXXZ
_TEXT	SEGMENT
?resetCharObj@@YAXXZ PROC				; resetCharObj, COMDAT

; 2631 : {

  00000	53		 push	 ebx
  00001	56		 push	 esi
  00002	57		 push	 edi

; 2632 : 	int i;
; 2633 : 	CHAREXTRA *ext;
; 2634 : 
; 2635 : 	maxCharObj = 0;

  00003	c7 05 00 00 00
	00 00 00 00 00	 mov	 DWORD PTR ?maxCharObj@@3HA, 0 ; maxCharObj

; 2636 : 	tailCharObj = 0;
; 2637 : 	freeCharObj = 0;
; 2638 : 	for( i = 0; i < MAX_CHAROBJ; i++ )

  0000d	33 db		 xor	 ebx, ebx
  0000f	c7 05 00 00 00
	00 00 00 00 00	 mov	 DWORD PTR ?tailCharObj@@3HA, 0 ; tailCharObj
  00019	bf bc 00 00 00	 mov	 edi, OFFSET ?charObj@@3PAUCHAROBJ@@A+188
  0001e	c7 05 00 00 00
	00 00 00 00 00	 mov	 DWORD PTR ?freeCharObj@@3HA, 0 ; freeCharObj
  00028	0f 1f 84 00 00
	00 00 00	 npad	 8
$LL4@resetCharO:

; 2639 : 	{
; 2640 : 		if( charObj[i].use != CHAROBJ_USE_FREE )

  00030	66 83 bf 44 ff
	ff ff 00	 cmp	 WORD PTR [edi-188], 0
  00038	0f 84 37 01 00
	00		 je	 $LN2@resetCharO

; 2641 : 		{
; 2642 : 			if( charObj[i].ptAct != NULL )

  0003e	8b 07		 mov	 eax, DWORD PTR [edi]
  00040	85 c0		 test	 eax, eax
  00042	0f 84 0e 01 00
	00		 je	 $LN28@resetCharO

; 2643 : 			{
; 2644 : 				ext = (CHAREXTRA *)charObj[i].ptAct->pYobi;

  00048	8b 70 0c	 mov	 esi, DWORD PTR [eax+12]

; 2645 : 				if ((int)ext==0xdddddddd)

  0004b	81 fe dd dd dd
	dd		 cmp	 esi, -572662307		; ddddddddH
  00051	0f 84 3f 01 00
	00		 je	 $LN21@resetCharO

; 2648 : 					return;
; 2649 : 				}
; 2650 : 
; 2651 : 				if( ext != NULL )

  00057	85 f6		 test	 esi, esi
  00059	0f 84 e8 00 00
	00		 je	 $LN8@resetCharO

; 2652 : 				{
; 2653 : 					if( ext->ptActLeaderMark != NULL )

  0005f	8b 46 08	 mov	 eax, DWORD PTR [esi+8]
  00062	85 c0		 test	 eax, eax
  00064	74 10		 je	 SHORT $LN9@resetCharO

; 2654 : 					{
; 2655 : 						DeathAction( ext->ptActLeaderMark );

  00066	50		 push	 eax
  00067	e8 00 00 00 00	 call	 ?DeathAction@@YAXPAUaction@@@Z ; DeathAction
  0006c	83 c4 04	 add	 esp, 4

; 2656 : 						ext->ptActLeaderMark = NULL;

  0006f	c7 46 08 00 00
	00 00		 mov	 DWORD PTR [esi+8], 0
$LN9@resetCharO:

; 2657 : 					}
; 2658 : 					if( ext->ptActMagicEffect != NULL )

  00076	8b 46 0c	 mov	 eax, DWORD PTR [esi+12]
  00079	85 c0		 test	 eax, eax
  0007b	74 10		 je	 SHORT $LN10@resetCharO

; 2659 : 					{
; 2660 : 						DeathAction( ext->ptActMagicEffect );

  0007d	50		 push	 eax
  0007e	e8 00 00 00 00	 call	 ?DeathAction@@YAXPAUaction@@@Z ; DeathAction
  00083	83 c4 04	 add	 esp, 4

; 2661 : 						ext->ptActMagicEffect = NULL;

  00086	c7 46 0c 00 00
	00 00		 mov	 DWORD PTR [esi+12], 0
$LN10@resetCharO:

; 2662 : 					}
; 2663 : #ifdef __EMOTION
; 2664 : 					if( ext->ptActEmotion != NULL ){
; 2665 : 						DeathAction( ext->ptActEmotion );
; 2666 : 						ext->ptActEmotion = NULL;
; 2667 : 					}
; 2668 : #endif
; 2669 : #ifdef _STREET_VENDOR
; 2670 : 					if(ext->ptStreetVendor != NULL){

  0008d	8b 46 20	 mov	 eax, DWORD PTR [esi+32]
  00090	85 c0		 test	 eax, eax
  00092	74 10		 je	 SHORT $LN11@resetCharO

; 2671 : 						DeathAction(ext->ptStreetVendor);

  00094	50		 push	 eax
  00095	e8 00 00 00 00	 call	 ?DeathAction@@YAXPAUaction@@@Z ; DeathAction
  0009a	83 c4 04	 add	 esp, 4

; 2672 : 						ext->ptStreetVendor = NULL;

  0009d	c7 46 20 00 00
	00 00		 mov	 DWORD PTR [esi+32], 0
$LN11@resetCharO:

; 2673 : 					}
; 2674 : #endif
; 2675 : #ifdef _MIND_ICON
; 2676 :     				if( ext->ptMindIcon != NULL ){

  000a4	8b 46 10	 mov	 eax, DWORD PTR [esi+16]
  000a7	85 c0		 test	 eax, eax
  000a9	74 10		 je	 SHORT $LN12@resetCharO

; 2677 : 	    				DeathAction( ext->ptMindIcon );

  000ab	50		 push	 eax
  000ac	e8 00 00 00 00	 call	 ?DeathAction@@YAXPAUaction@@@Z ; DeathAction
  000b1	83 c4 04	 add	 esp, 4

; 2678 : 		   			    ext->ptMindIcon = NULL;

  000b4	c7 46 10 00 00
	00 00		 mov	 DWORD PTR [esi+16], 0
$LN12@resetCharO:

; 2679 : 					}
; 2680 : #endif
; 2681 : #ifdef äººç‰©å…‰çŽ¯
; 2682 : 					if (ext->ptmManorIcon != NULL) {

  000bb	8b 46 18	 mov	 eax, DWORD PTR [esi+24]
  000be	85 c0		 test	 eax, eax
  000c0	74 10		 je	 SHORT $LN13@resetCharO

; 2683 : 						DeathAction(ext->ptmManorIcon);

  000c2	50		 push	 eax
  000c3	e8 00 00 00 00	 call	 ?DeathAction@@YAXPAUaction@@@Z ; DeathAction
  000c8	83 c4 04	 add	 esp, 4

; 2684 : 						ext->ptmManorIcon = NULL;

  000cb	c7 46 18 00 00
	00 00		 mov	 DWORD PTR [esi+24], 0
$LN13@resetCharO:

; 2685 : 					}
; 2686 : #endif
; 2687 : #ifdef äººç‰©ç§°å·
; 2688 : 					if (ext->ptTitleIcon != NULL) {

  000d2	8b 46 1c	 mov	 eax, DWORD PTR [esi+28]
  000d5	85 c0		 test	 eax, eax
  000d7	74 10		 je	 SHORT $LN14@resetCharO

; 2689 : 						DeathAction(ext->ptTitleIcon);

  000d9	50		 push	 eax
  000da	e8 00 00 00 00	 call	 ?DeathAction@@YAXPAUaction@@@Z ; DeathAction
  000df	83 c4 04	 add	 esp, 4

; 2690 : 						ext->ptTitleIcon = NULL;

  000e2	c7 46 1c 00 00
	00 00		 mov	 DWORD PTR [esi+28], 0
$LN14@resetCharO:

; 2691 : 					}
; 2692 : #endif
; 2693 : #ifdef _ITEM_FIREWORK
; 2694 : 					if (ext->pActFirework[0] != NULL)

  000e9	8b 46 28	 mov	 eax, DWORD PTR [esi+40]
  000ec	85 c0		 test	 eax, eax
  000ee	74 09		 je	 SHORT $LN15@resetCharO

; 2695 : 						DeathAction(ext->pActFirework[0]);

  000f0	50		 push	 eax
  000f1	e8 00 00 00 00	 call	 ?DeathAction@@YAXPAUaction@@@Z ; DeathAction
  000f6	83 c4 04	 add	 esp, 4
$LN15@resetCharO:

; 2696 : 					if (ext->pActFirework[1] != NULL)

  000f9	8b 46 2c	 mov	 eax, DWORD PTR [esi+44]
  000fc	85 c0		 test	 eax, eax
  000fe	74 09		 je	 SHORT $LN16@resetCharO

; 2697 : 						DeathAction(ext->pActFirework[1]);

  00100	50		 push	 eax
  00101	e8 00 00 00 00	 call	 ?DeathAction@@YAXPAUaction@@@Z ; DeathAction
  00106	83 c4 04	 add	 esp, 4
$LN16@resetCharO:

; 2698 : 					ext->pActFirework[0] = NULL;

  00109	c7 46 28 00 00
	00 00		 mov	 DWORD PTR [esi+40], 0

; 2699 : 					ext->pActFirework[1] = NULL;

  00110	c7 46 2c 00 00
	00 00		 mov	 DWORD PTR [esi+44], 0

; 2700 : 
; 2701 : #endif
; 2702 : #ifdef ITEM_AURA_
; 2703 : 					if (ext->ptActAura1 != nullptr)

  00117	8b 46 38	 mov	 eax, DWORD PTR [esi+56]
  0011a	85 c0		 test	 eax, eax
  0011c	74 09		 je	 SHORT $LN17@resetCharO

; 2704 : 						DeathAction(ext->ptActAura1);

  0011e	50		 push	 eax
  0011f	e8 00 00 00 00	 call	 ?DeathAction@@YAXPAUaction@@@Z ; DeathAction
  00124	83 c4 04	 add	 esp, 4
$LN17@resetCharO:

; 2705 : 					if (ext->ptActAura2 != nullptr)

  00127	8b 46 3c	 mov	 eax, DWORD PTR [esi+60]
  0012a	85 c0		 test	 eax, eax
  0012c	74 09		 je	 SHORT $LN18@resetCharO

; 2706 : 						DeathAction(ext->ptActAura2);

  0012e	50		 push	 eax
  0012f	e8 00 00 00 00	 call	 ?DeathAction@@YAXPAUaction@@@Z ; DeathAction
  00134	83 c4 04	 add	 esp, 4
$LN18@resetCharO:

; 2707 : 					ext->ptActAura1 = nullptr;

  00137	c7 46 38 00 00
	00 00		 mov	 DWORD PTR [esi+56], 0

; 2708 : 					ext->ptActAura2 = nullptr;

  0013e	c7 46 3c 00 00
	00 00		 mov	 DWORD PTR [esi+60], 0
  00145	8b 07		 mov	 eax, DWORD PTR [edi]
$LN8@resetCharO:

; 2709 : 
; 2710 : #endif
; 2711 : 				}
; 2712 : 				DeathAction( charObj[i].ptAct );

  00147	50		 push	 eax
  00148	e8 00 00 00 00	 call	 ?DeathAction@@YAXPAUaction@@@Z ; DeathAction
  0014d	83 c4 04	 add	 esp, 4

; 2713 : 				charObj[i].ptAct = NULL;

  00150	c7 07 00 00 00
	00		 mov	 DWORD PTR [edi], 0
$LN28@resetCharO:

; 2714 : 			}
; 2715 : 			charObj[i].use = CHAROBJ_USE_FREE;

  00156	33 c0		 xor	 eax, eax

; 2716 : 			charObj[i].status = 0;
; 2717 : 			charObj[i].id = 0;
; 2718 : 			charObj[i].stockDir = -1;

  00158	c7 87 60 ff ff
	ff ff ff ff ff	 mov	 DWORD PTR [edi-160], -1
  00162	66 89 87 44 ff
	ff ff		 mov	 WORD PTR [edi-188], ax
  00169	89 87 70 ff ff
	ff		 mov	 DWORD PTR [edi-144], eax
  0016f	89 87 48 ff ff
	ff		 mov	 DWORD PTR [edi-184], eax
$LN2@resetCharO:

; 2636 : 	tailCharObj = 0;
; 2637 : 	freeCharObj = 0;
; 2638 : 	for( i = 0; i < MAX_CHAROBJ; i++ )

  00175	81 c7 0c 01 00
	00		 add	 edi, 268		; 0000010cH
  0017b	43		 inc	 ebx
  0017c	81 ff 0c 23 06
	00		 cmp	 edi, OFFSET ?charObj@@3PAUCHAROBJ@@A+402188
  00182	0f 8c a8 fe ff
	ff		 jl	 $LL4@resetCharO

; 2719 : 		}
; 2720 : 	}
; 2721 : 
; 2722 : 	searchCharObj = 0;
; 2723 : }

  00188	5f		 pop	 edi
  00189	5e		 pop	 esi
  0018a	c7 05 00 00 00
	00 00 00 00 00	 mov	 DWORD PTR ?searchCharObj@@3HA, 0 ; searchCharObj
  00194	5b		 pop	 ebx
  00195	c3		 ret	 0
$LN21@resetCharO:

; 2646 : 				{
; 2647 : 					charObj[i].ptAct = NULL;

  00196	69 c3 0c 01 00
	00		 imul	 eax, ebx, 268
  0019c	5f		 pop	 edi

; 2719 : 		}
; 2720 : 	}
; 2721 : 
; 2722 : 	searchCharObj = 0;
; 2723 : }

  0019d	5e		 pop	 esi
  0019e	5b		 pop	 ebx
  0019f	c7 80 bc 00 00
	00 00 00 00 00	 mov	 DWORD PTR ?charObj@@3PAUCHAROBJ@@A[eax+188], 0
  001a9	c3		 ret	 0
?resetCharObj@@YAXXZ ENDP				; resetCharObj
_TEXT	ENDS
; Function compile flags: /Ogtp
; File C:\Users\gg862\OneDrive\¹ÙÅÁ È­¸é\¸¾Äí¿Ï·á\Client Source Code1.31ÀÏº»\system\character.cpp
;	COMDAT ?initCharObj@@YAXXZ
_TEXT	SEGMENT
?initCharObj@@YAXXZ PROC				; initCharObj, COMDAT

; 2610 : 	int i;
; 2611 : 
; 2612 : 	maxCharObj = 0;

  00000	c7 05 00 00 00
	00 00 00 00 00	 mov	 DWORD PTR ?maxCharObj@@3HA, 0 ; maxCharObj

; 2613 : 	tailCharObj = 0;

  0000a	b8 bc 00 00 00	 mov	 eax, OFFSET ?charObj@@3PAUCHAROBJ@@A+188
  0000f	c7 05 00 00 00
	00 00 00 00 00	 mov	 DWORD PTR ?tailCharObj@@3HA, 0 ; tailCharObj

; 2614 : 	freeCharObj = 0;

  00019	c7 05 00 00 00
	00 00 00 00 00	 mov	 DWORD PTR ?freeCharObj@@3HA, 0 ; freeCharObj
$LL4@initCharOb:

; 2615 : 	for( i = 0; i < MAX_CHAROBJ; i++ )
; 2616 : 	{
; 2617 : 		charObj[i].use = CHAROBJ_USE_FREE;

  00023	33 c9		 xor	 ecx, ecx

; 2618 : 		charObj[i].ptAct = NULL;
; 2619 : 		charObj[i].status = 0;
; 2620 : 		charObj[i].id = 0;
; 2621 : 		charObj[i].stockDir = -1;

  00025	c7 80 60 ff ff
	ff ff ff ff ff	 mov	 DWORD PTR [eax-160], -1
  0002f	66 89 88 44 ff
	ff ff		 mov	 WORD PTR [eax-188], cx
  00036	89 08		 mov	 DWORD PTR [eax], ecx
  00038	89 88 70 ff ff
	ff		 mov	 DWORD PTR [eax-144], ecx
  0003e	89 88 48 ff ff
	ff		 mov	 DWORD PTR [eax-184], ecx

; 2622 : 		charObj[i].name[0] = '\0';

  00044	88 88 7c ff ff
	ff		 mov	 BYTE PTR [eax-132], cl
  0004a	05 0c 01 00 00	 add	 eax, 268		; 0000010cH
  0004f	3d 0c 23 06 00	 cmp	 eax, OFFSET ?charObj@@3PAUCHAROBJ@@A+402188
  00054	7c cd		 jl	 SHORT $LL4@initCharOb

; 2623 : 	}
; 2624 : 
; 2625 : 	searchCharObj = 0;

  00056	89 0d 00 00 00
	00		 mov	 DWORD PTR ?searchCharObj@@3HA, ecx ; searchCharObj

; 2626 : }

  0005c	c3		 ret	 0
?initCharObj@@YAXXZ ENDP				; initCharObj
_TEXT	ENDS
; Function compile flags: /Ogtp
; File C:\Users\gg862\OneDrive\¹ÙÅÁ È­¸é\¸¾Äí¿Ï·á\Client Source Code1.31ÀÏº»\system\character.cpp
;	COMDAT ?delCharObj@@YAXH@Z
_TEXT	SEGMENT
_id$ = 8						; size = 4
?delCharObj@@YAXH@Z PROC				; delCharObj, COMDAT

; 2503 : {

  00000	55		 push	 ebp
  00001	8b ec		 mov	 ebp, esp

; 2504 : 	int i;
; 2505 : 	int no;
; 2506 : 	CHAREXTRA *ext;
; 2507 : 
; 2508 : 	if( pc.id == id ){

  00003	8b 45 08	 mov	 eax, DWORD PTR _id$[ebp]
  00006	39 05 08 00 00
	00		 cmp	 DWORD PTR ?pc@@3UPC@@A+8, eax
  0000c	75 06		 jne	 SHORT $LN5@delCharObj

; 2600 : 				break;
; 2601 : 			}
; 2602 : 		}
; 2603 : 	}
; 2604 : }

  0000e	5d		 pop	 ebp

; 2509 : 		resetPc();

  0000f	e9 00 00 00 00	 jmp	 ?resetPc@@YAXXZ		; resetPc
$LN5@delCharObj:
  00014	53		 push	 ebx

; 2510 : 		return;
; 2511 : 	}
; 2512 : 	no = searchCharObjId( id );

  00015	50		 push	 eax
  00016	e8 00 00 00 00	 call	 ?searchCharObjId@@YAHH@Z ; searchCharObjId
  0001b	8b d8		 mov	 ebx, eax
  0001d	83 c4 04	 add	 esp, 4

; 2513 : 	// ID???????î
; 2514 : 	if( no >= 0 ){

  00020	85 db		 test	 ebx, ebx
  00022	0f 88 b8 01 00
	00		 js	 $LN30@delCharObj

; 2515 : 		if( charObj[no].ptAct != NULL ){

  00028	56		 push	 esi
  00029	57		 push	 edi
  0002a	69 fb 0c 01 00
	00		 imul	 edi, ebx, 268
  00030	8b 8f bc 00 00
	00		 mov	 ecx, DWORD PTR ?charObj@@3PAUCHAROBJ@@A[edi+188]
  00036	85 c9		 test	 ecx, ecx
  00038	0f 84 38 01 00
	00		 je	 $LN7@delCharObj

; 2516 : 			ext = (CHAREXTRA *)charObj[no].ptAct->pYobi;

  0003e	8b 71 0c	 mov	 esi, DWORD PTR [ecx+12]

; 2517 : 			if ((int)ext == 0xdddddddd)

  00041	81 fe dd dd dd
	dd		 cmp	 esi, -572662307		; ddddddddH
  00047	75 0f		 jne	 SHORT $LN8@delCharObj

; 2518 : 			{
; 2519 : 				charObj[no].ptAct = NULL;

  00049	c7 87 bc 00 00
	00 00 00 00 00	 mov	 DWORD PTR ?charObj@@3PAUCHAROBJ@@A[edi+188], 0
  00053	5f		 pop	 edi
  00054	5e		 pop	 esi
  00055	5b		 pop	 ebx

; 2600 : 				break;
; 2601 : 			}
; 2602 : 		}
; 2603 : 	}
; 2604 : }

  00056	5d		 pop	 ebp
  00057	c3		 ret	 0
$LN8@delCharObj:

; 2520 : 				return;
; 2521 : 			}
; 2522 : 			if( ext != NULL ){

  00058	85 f6		 test	 esi, esi
  0005a	0f 84 03 01 00
	00		 je	 $LN9@delCharObj

; 2523 : 				if( ext->ptActLeaderMark != NULL ){

  00060	8b 46 08	 mov	 eax, DWORD PTR [esi+8]
  00063	85 c0		 test	 eax, eax
  00065	74 10		 je	 SHORT $LN10@delCharObj

; 2524 : 					DeathAction( ext->ptActLeaderMark );

  00067	50		 push	 eax
  00068	e8 00 00 00 00	 call	 ?DeathAction@@YAXPAUaction@@@Z ; DeathAction
  0006d	83 c4 04	 add	 esp, 4

; 2525 : 					ext->ptActLeaderMark = NULL;

  00070	c7 46 08 00 00
	00 00		 mov	 DWORD PTR [esi+8], 0
$LN10@delCharObj:

; 2526 : 				}
; 2527 : 				if( ext->ptActMagicEffect != NULL ){

  00077	8b 46 0c	 mov	 eax, DWORD PTR [esi+12]
  0007a	85 c0		 test	 eax, eax
  0007c	74 10		 je	 SHORT $LN11@delCharObj

; 2528 : 					DeathAction( ext->ptActMagicEffect );

  0007e	50		 push	 eax
  0007f	e8 00 00 00 00	 call	 ?DeathAction@@YAXPAUaction@@@Z ; DeathAction
  00084	83 c4 04	 add	 esp, 4

; 2529 : 					ext->ptActMagicEffect = NULL;

  00087	c7 46 0c 00 00
	00 00		 mov	 DWORD PTR [esi+12], 0
$LN11@delCharObj:

; 2530 : 				}
; 2531 : #ifdef __EMOTION
; 2532 : 				if( ext->ptActEmotion != NULL ){
; 2533 : 					DeathAction( ext->ptActEmotion );
; 2534 : 					ext->ptActEmotion = NULL;
; 2535 : 				}
; 2536 : #endif
; 2537 : #ifdef _STREET_VENDOR
; 2538 : 				if(ext->ptStreetVendor != NULL){

  0008e	8b 46 20	 mov	 eax, DWORD PTR [esi+32]
  00091	85 c0		 test	 eax, eax
  00093	74 10		 je	 SHORT $LN12@delCharObj

; 2539 : 					DeathAction(ext->ptStreetVendor);

  00095	50		 push	 eax
  00096	e8 00 00 00 00	 call	 ?DeathAction@@YAXPAUaction@@@Z ; DeathAction
  0009b	83 c4 04	 add	 esp, 4

; 2540 : 					ext->ptStreetVendor = NULL;

  0009e	c7 46 20 00 00
	00 00		 mov	 DWORD PTR [esi+32], 0
$LN12@delCharObj:

; 2541 : 				}
; 2542 : #endif
; 2543 : #ifdef _MIND_ICON
; 2544 : 				if( ext->ptMindIcon != NULL ){

  000a5	8b 46 10	 mov	 eax, DWORD PTR [esi+16]
  000a8	85 c0		 test	 eax, eax
  000aa	74 10		 je	 SHORT $LN13@delCharObj

; 2545 : 					DeathAction( ext->ptMindIcon );

  000ac	50		 push	 eax
  000ad	e8 00 00 00 00	 call	 ?DeathAction@@YAXPAUaction@@@Z ; DeathAction
  000b2	83 c4 04	 add	 esp, 4

; 2546 : 					ext->ptMindIcon = NULL;

  000b5	c7 46 10 00 00
	00 00		 mov	 DWORD PTR [esi+16], 0
$LN13@delCharObj:

; 2547 : 				}
; 2548 : #endif
; 2549 : #ifdef äººç‰©å…‰çŽ¯
; 2550 : 				if (ext->ptmManorIcon != NULL) {

  000bc	8b 46 18	 mov	 eax, DWORD PTR [esi+24]
  000bf	85 c0		 test	 eax, eax
  000c1	74 10		 je	 SHORT $LN14@delCharObj

; 2551 : 					DeathAction(ext->ptmManorIcon);

  000c3	50		 push	 eax
  000c4	e8 00 00 00 00	 call	 ?DeathAction@@YAXPAUaction@@@Z ; DeathAction
  000c9	83 c4 04	 add	 esp, 4

; 2552 : 					ext->ptmManorIcon = NULL;

  000cc	c7 46 18 00 00
	00 00		 mov	 DWORD PTR [esi+24], 0
$LN14@delCharObj:

; 2553 : 				}
; 2554 : #endif
; 2555 : #ifdef äººç‰©ç§°å·
; 2556 : 				if (ext->ptTitleIcon != NULL) {

  000d3	8b 46 1c	 mov	 eax, DWORD PTR [esi+28]
  000d6	85 c0		 test	 eax, eax
  000d8	74 10		 je	 SHORT $LN15@delCharObj

; 2557 : 					DeathAction(ext->ptTitleIcon);

  000da	50		 push	 eax
  000db	e8 00 00 00 00	 call	 ?DeathAction@@YAXPAUaction@@@Z ; DeathAction
  000e0	83 c4 04	 add	 esp, 4

; 2558 : 					ext->ptTitleIcon = NULL;

  000e3	c7 46 1c 00 00
	00 00		 mov	 DWORD PTR [esi+28], 0
$LN15@delCharObj:

; 2559 : 				}
; 2560 : #endif
; 2561 : #ifdef _NB_ä»»åŠ¡æŒ‡å¼•
; 2562 : 				if( ext->ptNoticeIcon != NULL ){

  000ea	8b 46 34	 mov	 eax, DWORD PTR [esi+52]
  000ed	85 c0		 test	 eax, eax
  000ef	74 10		 je	 SHORT $LN16@delCharObj

; 2563 : 					DeathAction( ext->ptNoticeIcon );

  000f1	50		 push	 eax
  000f2	e8 00 00 00 00	 call	 ?DeathAction@@YAXPAUaction@@@Z ; DeathAction
  000f7	83 c4 04	 add	 esp, 4

; 2564 : 					ext->ptNoticeIcon = NULL;

  000fa	c7 46 34 00 00
	00 00		 mov	 DWORD PTR [esi+52], 0
$LN16@delCharObj:

; 2565 : 				}
; 2566 : #endif
; 2567 : #ifdef _ITEM_FIREWORK
; 2568 : 				if (ext->pActFirework[0] != NULL)

  00101	8b 46 28	 mov	 eax, DWORD PTR [esi+40]
  00104	85 c0		 test	 eax, eax
  00106	74 09		 je	 SHORT $LN17@delCharObj

; 2569 : 					DeathAction(ext->pActFirework[0]);

  00108	50		 push	 eax
  00109	e8 00 00 00 00	 call	 ?DeathAction@@YAXPAUaction@@@Z ; DeathAction
  0010e	83 c4 04	 add	 esp, 4
$LN17@delCharObj:

; 2570 : 				if (ext->pActFirework[1] != NULL)

  00111	8b 46 2c	 mov	 eax, DWORD PTR [esi+44]
  00114	85 c0		 test	 eax, eax
  00116	74 09		 je	 SHORT $LN18@delCharObj

; 2571 : 					DeathAction(ext->pActFirework[1]);

  00118	50		 push	 eax
  00119	e8 00 00 00 00	 call	 ?DeathAction@@YAXPAUaction@@@Z ; DeathAction
  0011e	83 c4 04	 add	 esp, 4
$LN18@delCharObj:

; 2572 : 				ext->pActFirework[0] = NULL;

  00121	c7 46 28 00 00
	00 00		 mov	 DWORD PTR [esi+40], 0

; 2573 : 				ext->pActFirework[1] = NULL;

  00128	c7 46 2c 00 00
	00 00		 mov	 DWORD PTR [esi+44], 0

; 2574 : #endif
; 2575 : #ifdef ITEM_AURA_
; 2576 : 				if (ext->ptActAura1 != nullptr)

  0012f	8b 46 38	 mov	 eax, DWORD PTR [esi+56]
  00132	85 c0		 test	 eax, eax
  00134	74 09		 je	 SHORT $LN19@delCharObj

; 2577 : 					DeathAction(ext->ptActAura1);

  00136	50		 push	 eax
  00137	e8 00 00 00 00	 call	 ?DeathAction@@YAXPAUaction@@@Z ; DeathAction
  0013c	83 c4 04	 add	 esp, 4
$LN19@delCharObj:

; 2578 : 				if (ext->ptActAura2 != nullptr)

  0013f	8b 46 3c	 mov	 eax, DWORD PTR [esi+60]
  00142	85 c0		 test	 eax, eax
  00144	74 09		 je	 SHORT $LN20@delCharObj

; 2579 : 					DeathAction(ext->ptActAura2);

  00146	50		 push	 eax
  00147	e8 00 00 00 00	 call	 ?DeathAction@@YAXPAUaction@@@Z ; DeathAction
  0014c	83 c4 04	 add	 esp, 4
$LN20@delCharObj:

; 2580 : 				ext->ptActAura1 = nullptr;

  0014f	c7 46 38 00 00
	00 00		 mov	 DWORD PTR [esi+56], 0

; 2581 : 				ext->ptActAura2 = nullptr;

  00156	c7 46 3c 00 00
	00 00		 mov	 DWORD PTR [esi+60], 0
  0015d	8b 8f bc 00 00
	00		 mov	 ecx, DWORD PTR ?charObj@@3PAUCHAROBJ@@A[edi+188]
$LN9@delCharObj:

; 2582 : #endif
; 2583 : 			}
; 2584 : 			DeathAction( charObj[no].ptAct );

  00163	51		 push	 ecx
  00164	e8 00 00 00 00	 call	 ?DeathAction@@YAXPAUaction@@@Z ; DeathAction
  00169	83 c4 04	 add	 esp, 4

; 2585 : 			charObj[no].ptAct = NULL;

  0016c	c7 87 bc 00 00
	00 00 00 00 00	 mov	 DWORD PTR ?charObj@@3PAUCHAROBJ@@A[edi+188], 0
$LN7@delCharObj:

; 2586 : 		}
; 2587 : 		charObj[no].use = CHAROBJ_USE_FREE;

  00176	33 c0		 xor	 eax, eax

; 2588 : 		charObj[no].status = 0;
; 2589 : 		charObj[no].stockDir = -1;

  00178	c7 87 1c 00 00
	00 ff ff ff ff	 mov	 DWORD PTR ?charObj@@3PAUCHAROBJ@@A[edi+28], -1
  00182	66 89 87 00 00
	00 00		 mov	 WORD PTR ?charObj@@3PAUCHAROBJ@@A[edi], ax
  00189	89 87 2c 00 00
	00		 mov	 DWORD PTR ?charObj@@3PAUCHAROBJ@@A[edi+44], eax

; 2590 : 		// î™‘???î‘¡
; 2591 : 		if( maxCharObj > 0 )

  0018f	a1 00 00 00 00	 mov	 eax, DWORD PTR ?maxCharObj@@3HA ; maxCharObj
  00194	85 c0		 test	 eax, eax
  00196	7e 06		 jle	 SHORT $LN21@delCharObj

; 2592 : 			maxCharObj--;

  00198	48		 dec	 eax
  00199	a3 00 00 00 00	 mov	 DWORD PTR ?maxCharObj@@3HA, eax ; maxCharObj
$LN21@delCharObj:

; 2593 : 		// ?????î–º??î“·??????????î–º???
; 2594 : 		if( freeCharObj > no )

  0019e	a1 00 00 00 00	 mov	 eax, DWORD PTR ?freeCharObj@@3HA ; freeCharObj
  001a3	3b c3		 cmp	 eax, ebx

; 2595 : 			freeCharObj = no;
; 2596 : 		// î™‘?????????î–™?
; 2597 : 		for( i = tailCharObj; i > 0; i-- ){

  001a5	8b 0d 00 00 00
	00		 mov	 ecx, DWORD PTR ?tailCharObj@@3HA ; tailCharObj
  001ab	0f 4f c3	 cmovg	 eax, ebx
  001ae	a3 00 00 00 00	 mov	 DWORD PTR ?freeCharObj@@3HA, eax ; freeCharObj
  001b3	85 c9		 test	 ecx, ecx
  001b5	7e 27		 jle	 SHORT $LN31@delCharObj
  001b7	69 c1 0c 01 00
	00		 imul	 eax, ecx, 268
  001bd	8d 80 f4 fe ff
	ff		 lea	 eax, DWORD PTR ?charObj@@3PAUCHAROBJ@@A[eax-268]
$LL4@delCharObj:

; 2598 : 			if( charObj[i-1].use != CHAROBJ_USE_FREE ){

  001c3	66 83 38 00	 cmp	 WORD PTR [eax], 0
  001c7	75 0f		 jne	 SHORT $LN26@delCharObj

; 2595 : 			freeCharObj = no;
; 2596 : 		// î™‘?????????î–™?
; 2597 : 		for( i = tailCharObj; i > 0; i-- ){

  001c9	49		 dec	 ecx
  001ca	2d 0c 01 00 00	 sub	 eax, 268		; 0000010cH
  001cf	85 c9		 test	 ecx, ecx
  001d1	7f f0		 jg	 SHORT $LL4@delCharObj
  001d3	5f		 pop	 edi
  001d4	5e		 pop	 esi
  001d5	5b		 pop	 ebx

; 2600 : 				break;
; 2601 : 			}
; 2602 : 		}
; 2603 : 	}
; 2604 : }

  001d6	5d		 pop	 ebp
  001d7	c3		 ret	 0
$LN26@delCharObj:

; 2599 : 				tailCharObj = i;

  001d8	89 0d 00 00 00
	00		 mov	 DWORD PTR ?tailCharObj@@3HA, ecx ; tailCharObj
$LN31@delCharObj:
  001de	5f		 pop	 edi
  001df	5e		 pop	 esi
$LN30@delCharObj:
  001e0	5b		 pop	 ebx

; 2600 : 				break;
; 2601 : 			}
; 2602 : 		}
; 2603 : 	}
; 2604 : }

  001e1	5d		 pop	 ebp
  001e2	c3		 ret	 0
?delCharObj@@YAXH@Z ENDP				; delCharObj
_TEXT	ENDS
; Function compile flags: /Ogtp
; File C:\Users\gg862\OneDrive\¹ÙÅÁ È­¸é\¸¾Äí¿Ï·á\Client Source Code1.31ÀÏº»\system\character.cpp
;	COMDAT ?getAtrCharObjType@@YAHH@Z
_TEXT	SEGMENT
_type$ = 8						; size = 4
?getAtrCharObjType@@YAHH@Z PROC				; getAtrCharObjType, COMDAT

; 2467 : {

  00000	55		 push	 ebp
  00001	8b ec		 mov	 ebp, esp

; 2468 : 	int ret;
; 2469 : 	switch( type ){

  00003	8b 45 08	 mov	 eax, DWORD PTR _type$[ebp]
  00006	48		 dec	 eax
  00007	83 f8 1f	 cmp	 eax, 31			; 0000001fH
  0000a	77 23		 ja	 SHORT $LN7@getAtrChar
  0000c	0f b6 80 00 00
	00 00		 movzx	 eax, BYTE PTR $LN9@getAtrChar[eax]
  00013	ff 24 85 00 00
	00 00		 jmp	 DWORD PTR $LN10@getAtrChar[eax*4]
$LN4@getAtrChar:

; 2470 : 		case CHAR_TYPEPLAYER:
; 2471 : 			ret = CHAROBJ_TYPE_USER_NPC;
; 2472 : 			break;
; 2473 : 		case CHAR_TYPEDENGON:
; 2474 : 		case CHAR_TYPEDUELRANKING:
; 2475 : 		case CHAR_TYPEMSG:
; 2476 : 			ret = CHAROBJ_TYPE_NPC | CHAROBJ_TYPE_LOOKAT;
; 2477 : 			break;
; 2478 : 		case CHAR_TYPEBUS:
; 2479 : 			ret = CHAROBJ_TYPE_NPC | CHAROBJ_TYPE_PARTY_OK;
; 2480 : 			break;
; 2481 : 		default:
; 2482 : 			ret = CHAROBJ_TYPE_NPC;
; 2483 : 			break;
; 2484 : 	}
; 2485 : 	return ret;

  0001a	b8 08 00 00 00	 mov	 eax, 8

; 2486 : }

  0001f	5d		 pop	 ebp
  00020	c3		 ret	 0
$LN5@getAtrChar:

; 2470 : 		case CHAR_TYPEPLAYER:
; 2471 : 			ret = CHAROBJ_TYPE_USER_NPC;
; 2472 : 			break;
; 2473 : 		case CHAR_TYPEDENGON:
; 2474 : 		case CHAR_TYPEDUELRANKING:
; 2475 : 		case CHAR_TYPEMSG:
; 2476 : 			ret = CHAROBJ_TYPE_NPC | CHAROBJ_TYPE_LOOKAT;
; 2477 : 			break;
; 2478 : 		case CHAR_TYPEBUS:
; 2479 : 			ret = CHAROBJ_TYPE_NPC | CHAROBJ_TYPE_PARTY_OK;
; 2480 : 			break;
; 2481 : 		default:
; 2482 : 			ret = CHAROBJ_TYPE_NPC;
; 2483 : 			break;
; 2484 : 	}
; 2485 : 	return ret;

  00021	b8 11 00 00 00	 mov	 eax, 17			; 00000011H

; 2486 : }

  00026	5d		 pop	 ebp
  00027	c3		 ret	 0
$LN6@getAtrChar:

; 2470 : 		case CHAR_TYPEPLAYER:
; 2471 : 			ret = CHAROBJ_TYPE_USER_NPC;
; 2472 : 			break;
; 2473 : 		case CHAR_TYPEDENGON:
; 2474 : 		case CHAR_TYPEDUELRANKING:
; 2475 : 		case CHAR_TYPEMSG:
; 2476 : 			ret = CHAROBJ_TYPE_NPC | CHAROBJ_TYPE_LOOKAT;
; 2477 : 			break;
; 2478 : 		case CHAR_TYPEBUS:
; 2479 : 			ret = CHAROBJ_TYPE_NPC | CHAROBJ_TYPE_PARTY_OK;
; 2480 : 			break;
; 2481 : 		default:
; 2482 : 			ret = CHAROBJ_TYPE_NPC;
; 2483 : 			break;
; 2484 : 	}
; 2485 : 	return ret;

  00028	b8 21 00 00 00	 mov	 eax, 33			; 00000021H

; 2486 : }

  0002d	5d		 pop	 ebp
  0002e	c3		 ret	 0
$LN7@getAtrChar:

; 2470 : 		case CHAR_TYPEPLAYER:
; 2471 : 			ret = CHAROBJ_TYPE_USER_NPC;
; 2472 : 			break;
; 2473 : 		case CHAR_TYPEDENGON:
; 2474 : 		case CHAR_TYPEDUELRANKING:
; 2475 : 		case CHAR_TYPEMSG:
; 2476 : 			ret = CHAROBJ_TYPE_NPC | CHAROBJ_TYPE_LOOKAT;
; 2477 : 			break;
; 2478 : 		case CHAR_TYPEBUS:
; 2479 : 			ret = CHAROBJ_TYPE_NPC | CHAROBJ_TYPE_PARTY_OK;
; 2480 : 			break;
; 2481 : 		default:
; 2482 : 			ret = CHAROBJ_TYPE_NPC;
; 2483 : 			break;
; 2484 : 	}
; 2485 : 	return ret;

  0002f	b8 01 00 00 00	 mov	 eax, 1

; 2486 : }

  00034	5d		 pop	 ebp
  00035	c3		 ret	 0
  00036	66 90		 npad	 2
$LN10@getAtrChar:
  00038	00 00 00 00	 DD	 $LN4@getAtrChar
  0003c	00 00 00 00	 DD	 $LN5@getAtrChar
  00040	00 00 00 00	 DD	 $LN6@getAtrChar
  00044	00 00 00 00	 DD	 $LN7@getAtrChar
$LN9@getAtrChar:
  00048	00		 DB	 0
  00049	03		 DB	 3
  0004a	03		 DB	 3
  0004b	03		 DB	 3
  0004c	03		 DB	 3
  0004d	01		 DB	 1
  0004e	03		 DB	 3
  0004f	03		 DB	 3
  00050	03		 DB	 3
  00051	03		 DB	 3
  00052	03		 DB	 3
  00053	03		 DB	 3
  00054	01		 DB	 1
  00055	03		 DB	 3
  00056	03		 DB	 3
  00057	03		 DB	 3
  00058	03		 DB	 3
  00059	03		 DB	 3
  0005a	03		 DB	 3
  0005b	03		 DB	 3
  0005c	03		 DB	 3
  0005d	03		 DB	 3
  0005e	03		 DB	 3
  0005f	03		 DB	 3
  00060	03		 DB	 3
  00061	03		 DB	 3
  00062	01		 DB	 1
  00063	03		 DB	 3
  00064	03		 DB	 3
  00065	03		 DB	 3
  00066	03		 DB	 3
  00067	02		 DB	 2
?getAtrCharObjType@@YAHH@Z ENDP				; getAtrCharObjType
_TEXT	ENDS
; Function compile flags: /Ogtp
; File C:\Users\gg862\OneDrive\¹ÙÅÁ È­¸é\¸¾Äí¿Ï·á\Client Source Code1.31ÀÏº»\system\character.cpp
;	COMDAT ?getAtrCharType@@YAHH@Z
_TEXT	SEGMENT
_type$ = 8						; size = 4
?getAtrCharType@@YAHH@Z PROC				; getAtrCharType, COMDAT

; 2447 : {

  00000	55		 push	 ebp
  00001	8b ec		 mov	 ebp, esp

; 2448 : 	switch( type ){

  00003	8b 45 08	 mov	 eax, DWORD PTR _type$[ebp]
  00006	83 e8 01	 sub	 eax, 1
  00009	74 18		 je	 SHORT $LN4@getAtrChar
  0000b	83 e8 02	 sub	 eax, 2
  0000e	74 0c		 je	 SHORT $LN5@getAtrChar
  00010	83 e8 1d	 sub	 eax, 29			; 0000001dH
  00013	74 0e		 je	 SHORT $LN4@getAtrChar

; 2456 : 		// ??î•‚
; 2457 : 		default:
; 2458 : 			return ACT_ATR_TYPE_OTHER;

  00015	b8 00 10 00 00	 mov	 eax, 4096		; 00001000H

; 2459 : 	}
; 2460 : 	return 0;
; 2461 : }

  0001a	5d		 pop	 ebp
  0001b	c3		 ret	 0
$LN5@getAtrChar:

; 2453 : 		// ???
; 2454 : 		case CHAR_TYPEPET:
; 2455 : 			return ACT_ATR_TYPE_PET;

  0001c	b8 00 02 00 00	 mov	 eax, 512		; 00000200H

; 2459 : 	}
; 2460 : 	return 0;
; 2461 : }

  00021	5d		 pop	 ebp
  00022	c3		 ret	 0
$LN4@getAtrChar:

; 2449 : 		// ???
; 2450 : 		case CHAR_TYPEPLAYER:
; 2451 : 		case CHAR_TYPEBUS:
; 2452 : 			return ACT_ATR_TYPE_OTHER_PC;

  00023	b8 00 01 00 00	 mov	 eax, 256		; 00000100H

; 2459 : 	}
; 2460 : 	return 0;
; 2461 : }

  00028	5d		 pop	 ebp
  00029	c3		 ret	 0
?getAtrCharType@@YAHH@Z ENDP				; getAtrCharType
_TEXT	ENDS
; Function compile flags: /Ogtp
; File C:\Users\gg862\OneDrive\¹ÙÅÁ È­¸é\¸¾Äí¿Ï·á\Client Source Code1.31ÀÏº»\system\character.cpp
;	COMDAT ?setMoneyCharObj@@YAXHHHHHHPAD@Z
_TEXT	SEGMENT
_id$ = 8						; size = 4
_graNo$ = 12						; size = 4
_gx$ = 16						; size = 4
_gy$ = 20						; size = 4
_dir$ = 24						; size = 4
_money$ = 28						; size = 4
_info$ = 32						; size = 4
?setMoneyCharObj@@YAXHHHHHHPAD@Z PROC			; setMoneyCharObj, COMDAT

; 2365 : {

  00000	55		 push	 ebp
  00001	8b ec		 mov	 ebp, esp
  00003	53		 push	 ebx
  00004	56		 push	 esi
  00005	57		 push	 edi

; 2366 : 	int no;
; 2367 : 	BOOL existFlag = FALSE;
; 2368 : 	CHAREXTRA *ext;
; 2369 : 	// î™‘???????????
; 2370 : 	if( (no = searchCharObjId( id )) >= 0 )

  00006	8b 7d 08	 mov	 edi, DWORD PTR _id$[ebp]
  00009	57		 push	 edi
  0000a	e8 00 00 00 00	 call	 ?searchCharObjId@@YAHH@Z ; searchCharObjId
  0000f	8b 5d 18	 mov	 ebx, DWORD PTR _dir$[ebp]
  00012	8b f0		 mov	 esi, eax
  00014	83 c4 04	 add	 esp, 4
  00017	85 f6		 test	 esi, esi
  00019	79 62		 jns	 SHORT $LN3@setMoneyCh

; 2371 : 		existFlag = TRUE;
; 2372 : 	// ??î™‘?????????î™‘?
; 2373 : 	if( !existFlag ){
; 2374 : 		no = getCharObjBuf();

  0001b	e8 00 00 00 00	 call	 ?getCharObjBuf@@YAHXZ	; getCharObjBuf
  00020	8b f0		 mov	 esi, eax

; 2375 : 		if( no < 0 )

  00022	85 f6		 test	 esi, esi
  00024	0f 88 1d 01 00
	00		 js	 $LN1@setMoneyCh

; 2376 : 			return;	// ??????????îŽ·??
; 2377 : 		charObj[no].ptAct = createCharAction( graNo, gx, gy, dir );

  0002a	53		 push	 ebx
  0002b	ff 75 14	 push	 DWORD PTR _gy$[ebp]
  0002e	ff 75 10	 push	 DWORD PTR _gx$[ebp]
  00031	ff 75 0c	 push	 DWORD PTR _graNo$[ebp]
  00034	e8 00 00 00 00	 call	 ?createCharAction@@YAPAUaction@@HHHH@Z ; createCharAction
  00039	69 ce 0c 01 00
	00		 imul	 ecx, esi, 268
  0003f	83 c4 10	 add	 esp, 16			; 00000010H
  00042	89 81 bc 00 00
	00		 mov	 DWORD PTR ?charObj@@3PAUCHAROBJ@@A[ecx+188], eax

; 2378 : 		if( charObj[no].ptAct == NULL )

  00048	85 c0		 test	 eax, eax
  0004a	0f 84 f7 00 00
	00		 je	 $LN1@setMoneyCh

; 2379 : 			// î™‘???????îŽ·???î ´???????????
; 2380 : 			return;
; 2381 : 		charObj[no].use = CHAROBJ_USE_VIEW;

  00050	ba 02 00 00 00	 mov	 edx, 2
  00055	66 89 91 00 00
	00 00		 mov	 WORD PTR ?charObj@@3PAUCHAROBJ@@A[ecx], dx

; 2382 : 		ext = (CHAREXTRA *)charObj[no].ptAct->pYobi;
; 2383 : 		ext->charObjTblId = no;

  0005c	8b 40 0c	 mov	 eax, DWORD PTR [eax+12]
  0005f	89 30		 mov	 DWORD PTR [eax], esi

; 2384 : 		charObj[no].type      = CHAROBJ_TYPE_MONEY;

  00061	b8 04 00 00 00	 mov	 eax, 4
  00066	66 89 81 02 00
	00 00		 mov	 WORD PTR ?charObj@@3PAUCHAROBJ@@A[ecx+2], ax

; 2385 : 		charObj[no].id        = id;

  0006d	89 b9 04 00 00
	00		 mov	 DWORD PTR ?charObj@@3PAUCHAROBJ@@A[ecx+4], edi

; 2386 : 		charObj[no].stockDir  = -1;

  00073	c7 81 1c 00 00
	00 ff ff ff ff	 mov	 DWORD PTR ?charObj@@3PAUCHAROBJ@@A[ecx+28], -1
$LN3@setMoneyCh:

; 2387 : 	}
; 2388 : 	charObj[no].graNo = graNo;
; 2389 : 	charObj[no].money = money;

  0007d	8b 45 1c	 mov	 eax, DWORD PTR _money$[ebp]

; 2390 : 	charObj[no].gx = gx;
; 2391 : 	charObj[no].gy = gy;
; 2392 : 	charObj[no].dir = dir;
; 2393 : 	if( strlen( info ) <= 60 )

  00080	8b 55 20	 mov	 edx, DWORD PTR _info$[ebp]
  00083	8b ca		 mov	 ecx, edx
  00085	8b 7d 0c	 mov	 edi, DWORD PTR _graNo$[ebp]
  00088	69 f6 0c 01 00
	00		 imul	 esi, esi, 268
  0008e	89 86 34 00 00
	00		 mov	 DWORD PTR ?charObj@@3PAUCHAROBJ@@A[esi+52], eax
  00094	8b 45 10	 mov	 eax, DWORD PTR _gx$[ebp]
  00097	89 86 0c 00 00
	00		 mov	 DWORD PTR ?charObj@@3PAUCHAROBJ@@A[esi+12], eax
  0009d	8b 45 14	 mov	 eax, DWORD PTR _gy$[ebp]
  000a0	89 9e 18 00 00
	00		 mov	 DWORD PTR ?charObj@@3PAUCHAROBJ@@A[esi+24], ebx
  000a6	8d 59 01	 lea	 ebx, DWORD PTR [ecx+1]
  000a9	89 be 08 00 00
	00		 mov	 DWORD PTR ?charObj@@3PAUCHAROBJ@@A[esi+8], edi
  000af	89 86 10 00 00
	00		 mov	 DWORD PTR ?charObj@@3PAUCHAROBJ@@A[esi+16], eax
$LL20@setMoneyCh:
  000b5	8a 01		 mov	 al, BYTE PTR [ecx]
  000b7	41		 inc	 ecx
  000b8	84 c0		 test	 al, al
  000ba	75 f9		 jne	 SHORT $LL20@setMoneyCh
  000bc	2b cb		 sub	 ecx, ebx
  000be	83 f9 3c	 cmp	 ecx, 60			; 0000003cH
  000c1	77 1d		 ja	 SHORT $LN6@setMoneyCh

; 2394 : 		strcpy( charObj[no].info, info );

  000c3	8b c6		 mov	 eax, esi
  000c5	8b ca		 mov	 ecx, edx
  000c7	2b c2		 sub	 eax, edx
  000c9	8d b8 6a 00 00
	00		 lea	 edi, DWORD PTR ?charObj@@3PAUCHAROBJ@@A[eax+106]
  000cf	90		 npad	 1
$LL11@setMoneyCh:
  000d0	8a 01		 mov	 al, BYTE PTR [ecx]
  000d2	8d 49 01	 lea	 ecx, DWORD PTR [ecx+1]
  000d5	88 44 0f ff	 mov	 BYTE PTR [edi+ecx-1], al
  000d9	84 c0		 test	 al, al
  000db	75 f3		 jne	 SHORT $LL11@setMoneyCh
  000dd	8b 7d 0c	 mov	 edi, DWORD PTR _graNo$[ebp]
$LN6@setMoneyCh:

; 2395 : 	charObj[no].charType = ACT_ATR_TYPE_GOLD;
; 2396 : 	charObj[no].newFoundFlag = 0;	// î‘¡îœŠ?????????

  000e0	33 c0		 xor	 eax, eax
  000e2	c7 86 b4 00 00
	00 00 08 00 00	 mov	 DWORD PTR ?charObj@@3PAUCHAROBJ@@A[esi+180], 2048 ; 00000800H
  000ec	66 89 86 b8 00
	00 00		 mov	 WORD PTR ?charObj@@3PAUCHAROBJ@@A[esi+184], ax

; 2397 : 	// ???????????î–±?îš¼??
; 2398 : 	if( charObj[no].ptAct == NULL )

  000f3	8b 86 bc 00 00
	00		 mov	 eax, DWORD PTR ?charObj@@3PAUCHAROBJ@@A[esi+188]
  000f9	85 c0		 test	 eax, eax
  000fb	74 4a		 je	 SHORT $LN1@setMoneyCh

; 2399 : 		return;
; 2400 : 	charObj[no].ptAct->anim_chr_no = graNo;
; 2401 : 	// 1??????î????name?îš¼??
; 2402 : 	if( strlen( info ) <= CHAR_NAME_LEN )

  000fd	8b ca		 mov	 ecx, edx
  000ff	89 b8 44 01 00
	00		 mov	 DWORD PTR [eax+324], edi
  00105	8d 79 01	 lea	 edi, DWORD PTR [ecx+1]
$LL21@setMoneyCh:
  00108	8a 01		 mov	 al, BYTE PTR [ecx]
  0010a	41		 inc	 ecx
  0010b	84 c0		 test	 al, al
  0010d	75 f9		 jne	 SHORT $LL21@setMoneyCh
  0010f	8b 86 bc 00 00
	00		 mov	 eax, DWORD PTR ?charObj@@3PAUCHAROBJ@@A[esi+188]
  00115	2b cf		 sub	 ecx, edi
  00117	83 f9 10	 cmp	 ecx, 16			; 00000010H
  0011a	77 14		 ja	 SHORT $LN8@setMoneyCh

; 2403 : 		strcpy( charObj[no].ptAct->name, info );

  0011c	8d 48 38	 lea	 ecx, DWORD PTR [eax+56]
  0011f	90		 npad	 1
$LL12@setMoneyCh:
  00120	8a 02		 mov	 al, BYTE PTR [edx]
  00122	8d 52 01	 lea	 edx, DWORD PTR [edx+1]
  00125	88 01		 mov	 BYTE PTR [ecx], al
  00127	8d 49 01	 lea	 ecx, DWORD PTR [ecx+1]
  0012a	84 c0		 test	 al, al
  0012c	75 f2		 jne	 SHORT $LL12@setMoneyCh
  0012e	eb 07		 jmp	 SHORT $LN9@setMoneyCh
$LN8@setMoneyCh:

; 2404 : 	else
; 2405 : 		strcpy( charObj[no].ptAct->name, "???" );

  00130	c7 40 38 3f 3f
	3f 00		 mov	 DWORD PTR [eax+56], 4144959 ; 003f3f3fH
$LN9@setMoneyCh:

; 2406 : 	charObj[no].ptAct->atr |= ACT_ATR_TYPE_GOLD;

  00137	8b 86 bc 00 00
	00		 mov	 eax, DWORD PTR ?charObj@@3PAUCHAROBJ@@A[esi+188]
  0013d	81 88 a4 00 00
	00 00 08 00 00	 or	 DWORD PTR [eax+164], 2048 ; 00000800H
$LN1@setMoneyCh:

; 2407 : }

  00147	5f		 pop	 edi
  00148	5e		 pop	 esi
  00149	5b		 pop	 ebx
  0014a	5d		 pop	 ebp
  0014b	c3		 ret	 0
?setMoneyCharObj@@YAXHHHHHHPAD@Z ENDP			; setMoneyCharObj
_TEXT	ENDS
; Function compile flags: /Ogtp
; File C:\Users\gg862\OneDrive\¹ÙÅÁ È­¸é\¸¾Äí¿Ï·á\Client Source Code1.31ÀÏº»\system\character.cpp
;	COMDAT ?setItemCharObj@@YAXHHHHHHPAD@Z
_TEXT	SEGMENT
_id$ = 8						; size = 4
_graNo$ = 12						; size = 4
_gx$ = 16						; size = 4
_gy$ = 20						; size = 4
_dir$ = 24						; size = 4
_classNo$ = 28						; size = 4
_info$ = 32						; size = 4
?setItemCharObj@@YAXHHHHHHPAD@Z PROC			; setItemCharObj, COMDAT

; 2316 : {

  00000	55		 push	 ebp
  00001	8b ec		 mov	 ebp, esp
  00003	53		 push	 ebx
  00004	56		 push	 esi
  00005	57		 push	 edi

; 2317 : 	int no;
; 2318 : 	BOOL existFlag = FALSE;
; 2319 : 	CHAREXTRA *ext;
; 2320 : 	// î™‘???????????
; 2321 : 	if( (no = searchCharObjId( id )) >= 0 )

  00006	8b 7d 08	 mov	 edi, DWORD PTR _id$[ebp]
  00009	57		 push	 edi
  0000a	e8 00 00 00 00	 call	 ?searchCharObjId@@YAHH@Z ; searchCharObjId
  0000f	8b 5d 18	 mov	 ebx, DWORD PTR _dir$[ebp]
  00012	8b f0		 mov	 esi, eax
  00014	83 c4 04	 add	 esp, 4
  00017	85 f6		 test	 esi, esi
  00019	79 5d		 jns	 SHORT $LN3@setItemCha

; 2322 : 		existFlag = TRUE;
; 2323 : 	// ??î™‘?????????î™‘?
; 2324 : 	if( !existFlag ){
; 2325 : 		no = getCharObjBuf();

  0001b	e8 00 00 00 00	 call	 ?getCharObjBuf@@YAHXZ	; getCharObjBuf
  00020	8b f0		 mov	 esi, eax

; 2326 : 		if( no < 0 )

  00022	85 f6		 test	 esi, esi
  00024	0f 88 2c 01 00
	00		 js	 $LN1@setItemCha

; 2327 : 			return;	// ??????????îŽ·??
; 2328 : 		charObj[no].ptAct = createCharAction( graNo, gx, gy, dir );

  0002a	53		 push	 ebx
  0002b	ff 75 14	 push	 DWORD PTR _gy$[ebp]
  0002e	ff 75 10	 push	 DWORD PTR _gx$[ebp]
  00031	ff 75 0c	 push	 DWORD PTR _graNo$[ebp]
  00034	e8 00 00 00 00	 call	 ?createCharAction@@YAPAUaction@@HHHH@Z ; createCharAction
  00039	69 ce 0c 01 00
	00		 imul	 ecx, esi, 268
  0003f	83 c4 10	 add	 esp, 16			; 00000010H
  00042	89 81 bc 00 00
	00		 mov	 DWORD PTR ?charObj@@3PAUCHAROBJ@@A[ecx+188], eax

; 2329 : 		if( charObj[no].ptAct == NULL )

  00048	85 c0		 test	 eax, eax
  0004a	0f 84 06 01 00
	00		 je	 $LN1@setItemCha

; 2330 : 			// î™‘???????îŽ·???î ´???????????
; 2331 : 			return;
; 2332 : 		charObj[no].use = CHAROBJ_USE_VIEW;

  00050	ba 02 00 00 00	 mov	 edx, 2
  00055	66 89 91 00 00
	00 00		 mov	 WORD PTR ?charObj@@3PAUCHAROBJ@@A[ecx], dx

; 2333 : 		ext = (CHAREXTRA *)charObj[no].ptAct->pYobi;
; 2334 : 		ext->charObjTblId = no;

  0005c	8b 40 0c	 mov	 eax, DWORD PTR [eax+12]
  0005f	89 30		 mov	 DWORD PTR [eax], esi

; 2335 : 		charObj[no].type      = CHAROBJ_TYPE_ITEM;

  00061	66 89 91 02 00
	00 00		 mov	 WORD PTR ?charObj@@3PAUCHAROBJ@@A[ecx+2], dx

; 2336 : 		charObj[no].id        = id;

  00068	89 b9 04 00 00
	00		 mov	 DWORD PTR ?charObj@@3PAUCHAROBJ@@A[ecx+4], edi

; 2337 : 		charObj[no].stockDir  = -1;

  0006e	c7 81 1c 00 00
	00 ff ff ff ff	 mov	 DWORD PTR ?charObj@@3PAUCHAROBJ@@A[ecx+28], -1
$LN3@setItemCha:

; 2338 : 	}
; 2339 : 	charObj[no].graNo   = graNo;
; 2340 : 	charObj[no].classNo = classNo;

  00078	8b 45 1c	 mov	 eax, DWORD PTR _classNo$[ebp]

; 2341 : 	charObj[no].gx = gx;
; 2342 : 	charObj[no].gy = gy;
; 2343 : 	charObj[no].dir = dir;
; 2344 : 	if( strlen( info ) <= 60 )

  0007b	8b 55 20	 mov	 edx, DWORD PTR _info$[ebp]
  0007e	8b ca		 mov	 ecx, edx
  00080	8b 7d 0c	 mov	 edi, DWORD PTR _graNo$[ebp]
  00083	69 f6 0c 01 00
	00		 imul	 esi, esi, 268
  00089	89 86 30 00 00
	00		 mov	 DWORD PTR ?charObj@@3PAUCHAROBJ@@A[esi+48], eax
  0008f	8b 45 10	 mov	 eax, DWORD PTR _gx$[ebp]
  00092	89 86 0c 00 00
	00		 mov	 DWORD PTR ?charObj@@3PAUCHAROBJ@@A[esi+12], eax
  00098	8b 45 14	 mov	 eax, DWORD PTR _gy$[ebp]
  0009b	89 9e 18 00 00
	00		 mov	 DWORD PTR ?charObj@@3PAUCHAROBJ@@A[esi+24], ebx
  000a1	8d 59 01	 lea	 ebx, DWORD PTR [ecx+1]
  000a4	89 be 08 00 00
	00		 mov	 DWORD PTR ?charObj@@3PAUCHAROBJ@@A[esi+8], edi
  000aa	89 86 10 00 00
	00		 mov	 DWORD PTR ?charObj@@3PAUCHAROBJ@@A[esi+16], eax
$LL20@setItemCha:
  000b0	8a 01		 mov	 al, BYTE PTR [ecx]
  000b2	41		 inc	 ecx
  000b3	84 c0		 test	 al, al
  000b5	75 f9		 jne	 SHORT $LL20@setItemCha
  000b7	2b cb		 sub	 ecx, ebx
  000b9	83 f9 3c	 cmp	 ecx, 60			; 0000003cH
  000bc	77 22		 ja	 SHORT $LN6@setItemCha

; 2345 : 		strcpy( charObj[no].info, info );

  000be	8b c6		 mov	 eax, esi
  000c0	8b ca		 mov	 ecx, edx
  000c2	2b c2		 sub	 eax, edx
  000c4	8d b8 6a 00 00
	00		 lea	 edi, DWORD PTR ?charObj@@3PAUCHAROBJ@@A[eax+106]
  000ca	66 0f 1f 44 00
	00		 npad	 6
$LL11@setItemCha:
  000d0	8a 01		 mov	 al, BYTE PTR [ecx]
  000d2	8d 49 01	 lea	 ecx, DWORD PTR [ecx+1]
  000d5	88 44 0f ff	 mov	 BYTE PTR [edi+ecx-1], al
  000d9	84 c0		 test	 al, al
  000db	75 f3		 jne	 SHORT $LL11@setItemCha
  000dd	8b 7d 0c	 mov	 edi, DWORD PTR _graNo$[ebp]
$LN6@setItemCha:

; 2346 : 	charObj[no].charType = ACT_ATR_TYPE_ITEM;
; 2347 : 	charObj[no].newFoundFlag = 0;	// î‘¡îœŠ?????????

  000e0	33 c0		 xor	 eax, eax
  000e2	c7 86 b4 00 00
	00 00 04 00 00	 mov	 DWORD PTR ?charObj@@3PAUCHAROBJ@@A[esi+180], 1024 ; 00000400H
  000ec	66 89 86 b8 00
	00 00		 mov	 WORD PTR ?charObj@@3PAUCHAROBJ@@A[esi+184], ax

; 2348 : 	// ???????????î–±?îš¼??
; 2349 : 	if( charObj[no].ptAct == NULL )

  000f3	8b 86 bc 00 00
	00		 mov	 eax, DWORD PTR ?charObj@@3PAUCHAROBJ@@A[esi+188]
  000f9	85 c0		 test	 eax, eax
  000fb	74 59		 je	 SHORT $LN1@setItemCha

; 2350 : 		return;
; 2351 : 	charObj[no].ptAct->anim_chr_no = graNo;
; 2352 : 	// 1??????î????name?îš¼??
; 2353 : 	if( strlen( info ) <= ITEM_NAME_LEN )

  000fd	8b ca		 mov	 ecx, edx
  000ff	89 b8 44 01 00
	00		 mov	 DWORD PTR [eax+324], edi
  00105	8d 79 01	 lea	 edi, DWORD PTR [ecx+1]
$LL21@setItemCha:
  00108	8a 01		 mov	 al, BYTE PTR [ecx]
  0010a	41		 inc	 ecx
  0010b	84 c0		 test	 al, al
  0010d	75 f9		 jne	 SHORT $LL21@setItemCha
  0010f	8b 86 bc 00 00
	00		 mov	 eax, DWORD PTR ?charObj@@3PAUCHAROBJ@@A[esi+188]
  00115	2b cf		 sub	 ecx, edi
  00117	83 f9 1c	 cmp	 ecx, 28			; 0000001cH
  0011a	77 14		 ja	 SHORT $LN8@setItemCha

; 2354 : 		strcpy( charObj[no].ptAct->name, info );

  0011c	8d 48 38	 lea	 ecx, DWORD PTR [eax+56]
  0011f	90		 npad	 1
$LL12@setItemCha:
  00120	8a 02		 mov	 al, BYTE PTR [edx]
  00122	8d 52 01	 lea	 edx, DWORD PTR [edx+1]
  00125	88 01		 mov	 BYTE PTR [ecx], al
  00127	8d 49 01	 lea	 ecx, DWORD PTR [ecx+1]
  0012a	84 c0		 test	 al, al
  0012c	75 f2		 jne	 SHORT $LL12@setItemCha
  0012e	eb 07		 jmp	 SHORT $LN9@setItemCha
$LN8@setItemCha:

; 2355 : 	else
; 2356 : 		strcpy( charObj[no].ptAct->name, "???" );

  00130	c7 40 38 3f 3f
	3f 00		 mov	 DWORD PTR [eax+56], 4144959 ; 003f3f3fH
$LN9@setItemCha:

; 2357 : 	charObj[no].ptAct->atr |= ACT_ATR_TYPE_ITEM;

  00137	8b 86 bc 00 00
	00		 mov	 eax, DWORD PTR ?charObj@@3PAUCHAROBJ@@A[esi+188]

; 2358 : 	charObj[no].ptAct->itemNameColor = classNo;

  0013d	8b 4d 1c	 mov	 ecx, DWORD PTR _classNo$[ebp]
  00140	81 88 a4 00 00
	00 00 04 00 00	 or	 DWORD PTR [eax+164], 1024 ; 00000400H
  0014a	8b 86 bc 00 00
	00		 mov	 eax, DWORD PTR ?charObj@@3PAUCHAROBJ@@A[esi+188]
  00150	89 88 94 00 00
	00		 mov	 DWORD PTR [eax+148], ecx
$LN1@setItemCha:

; 2359 : }

  00156	5f		 pop	 edi
  00157	5e		 pop	 esi
  00158	5b		 pop	 ebx
  00159	5d		 pop	 ebp
  0015a	c3		 ret	 0
?setItemCharObj@@YAXHHHHHHPAD@Z ENDP			; setItemCharObj
_TEXT	ENDS
; Function compile flags: /Ogtp
; File C:\Users\gg862\OneDrive\¹ÙÅÁ È­¸é\¸¾Äí¿Ï·á\Client Source Code1.31ÀÏº»\system\character.cpp
;	COMDAT ?setReturnPetObj@@YAHHHHHHPAD0HHHHH@Z
_TEXT	SEGMENT
_id$ = 8						; size = 4
_graNo$ = 12						; size = 4
_gx$ = 16						; size = 4
_gy$ = 20						; size = 4
_dir$ = 24						; size = 4
_name$ = 28						; size = 4
_freeName$ = 32						; size = 4
_level$ = 36						; size = 4
_nameColor$ = 40					; size = 4
_walk$ = 44						; size = 4
_height$ = 48						; size = 4
_charType$ = 52						; size = 4
?setReturnPetObj@@YAHHHHHHPAD0HHHHH@Z PROC		; setReturnPetObj, COMDAT

; 2280 : {

  00000	55		 push	 ebp
  00001	8b ec		 mov	 ebp, esp
  00003	57		 push	 edi

; 2281 : 	int no;
; 2282 : 	// î™‘???????????
; 2283 : 	if( (no = searchCharObjId( id )) >= 0 )

  00004	8b 7d 08	 mov	 edi, DWORD PTR _id$[ebp]
  00007	57		 push	 edi
  00008	e8 00 00 00 00	 call	 ?searchCharObjId@@YAHH@Z ; searchCharObjId
  0000d	83 c4 04	 add	 esp, 4
  00010	85 c0		 test	 eax, eax
  00012	0f 89 0f 01 00
	00		 jns	 $LN19@setReturnP

; 2284 : 		// ???îŽ·??
; 2285 : 		return FALSE;
; 2286 : 	// ??î™‘?????????î™‘?
; 2287 : 	no = getCharObjBuf();

  00018	e8 00 00 00 00	 call	 ?getCharObjBuf@@YAHXZ	; getCharObjBuf

; 2288 : 	if( no < 0 )

  0001d	85 c0		 test	 eax, eax
  0001f	0f 88 02 01 00
	00		 js	 $LN19@setReturnP

; 2290 : 	charObj[no].ptAct = NULL;

  00025	56		 push	 esi

; 2291 : 	charObj[no].use = CHAROBJ_USE_VIEW;
; 2292 : 	charObj[no].type      = getAtrCharObjType( charType );

  00026	ff 75 34	 push	 DWORD PTR _charType$[ebp]
  00029	69 f0 0c 01 00
	00		 imul	 esi, eax, 268
  0002f	b8 02 00 00 00	 mov	 eax, 2
  00034	c7 86 bc 00 00
	00 00 00 00 00	 mov	 DWORD PTR ?charObj@@3PAUCHAROBJ@@A[esi+188], 0
  0003e	66 89 86 00 00
	00 00		 mov	 WORD PTR ?charObj@@3PAUCHAROBJ@@A[esi], ax
  00045	e8 00 00 00 00	 call	 ?getAtrCharObjType@@YAHH@Z ; getAtrCharObjType
  0004a	66 89 86 02 00
	00 00		 mov	 WORD PTR ?charObj@@3PAUCHAROBJ@@A[esi+2], ax
  00051	83 c4 04	 add	 esp, 4

; 2293 : 	charObj[no].id        = id;
; 2294 : 	charObj[no].graNo     = graNo;
; 2295 : 	charObj[no].nameColor = nameColor;
; 2296 : 	charObj[no].level     = level;
; 2297 : 	charObj[no].gx = gx;
; 2298 : 	charObj[no].gy = gy;
; 2299 : 	charObj[no].dir = dir;
; 2300 : 	if( walk != 0 )

  00054	83 7d 2c 00	 cmp	 DWORD PTR _walk$[ebp], 0
  00058	8b 45 0c	 mov	 eax, DWORD PTR _graNo$[ebp]
  0005b	89 86 08 00 00
	00		 mov	 DWORD PTR ?charObj@@3PAUCHAROBJ@@A[esi+8], eax
  00061	66 8b 45 28	 mov	 ax, WORD PTR _nameColor$[ebp]
  00065	66 89 86 28 00
	00 00		 mov	 WORD PTR ?charObj@@3PAUCHAROBJ@@A[esi+40], ax
  0006c	8b 45 24	 mov	 eax, DWORD PTR _level$[ebp]
  0006f	89 86 14 00 00
	00		 mov	 DWORD PTR ?charObj@@3PAUCHAROBJ@@A[esi+20], eax
  00075	8b 45 10	 mov	 eax, DWORD PTR _gx$[ebp]
  00078	89 86 0c 00 00
	00		 mov	 DWORD PTR ?charObj@@3PAUCHAROBJ@@A[esi+12], eax
  0007e	8b 45 14	 mov	 eax, DWORD PTR _gy$[ebp]
  00081	89 86 10 00 00
	00		 mov	 DWORD PTR ?charObj@@3PAUCHAROBJ@@A[esi+16], eax
  00087	8b 45 18	 mov	 eax, DWORD PTR _dir$[ebp]
  0008a	89 be 04 00 00
	00		 mov	 DWORD PTR ?charObj@@3PAUCHAROBJ@@A[esi+4], edi
  00090	89 86 18 00 00
	00		 mov	 DWORD PTR ?charObj@@3PAUCHAROBJ@@A[esi+24], eax
  00096	74 07		 je	 SHORT $LN18@setReturnP

; 2301 : 		charObj[no].status |= CHR_STATUS_W;

  00098	83 8e 2c 00 00
	00 40		 or	 DWORD PTR ?charObj@@3PAUCHAROBJ@@A[esi+44], 64 ; 00000040H
$LN18@setReturnP:

; 2302 : 	if( height != 0 )

  0009f	83 7d 30 00	 cmp	 DWORD PTR _height$[ebp], 0
  000a3	74 0a		 je	 SHORT $LN5@setReturnP

; 2303 : 		charObj[no].status |= CHR_STATUS_H;

  000a5	81 8e 2c 00 00
	00 80 00 00 00	 or	 DWORD PTR ?charObj@@3PAUCHAROBJ@@A[esi+44], 128 ; 00000080H
$LN5@setReturnP:

; 2304 : 	if( strlen( name ) <= CHAR_NAME_LEN )

  000af	8b 4d 1c	 mov	 ecx, DWORD PTR _name$[ebp]
  000b2	8b d1		 mov	 edx, ecx
  000b4	8d 7a 01	 lea	 edi, DWORD PTR [edx+1]
$LL20@setReturnP:
  000b7	8a 02		 mov	 al, BYTE PTR [edx]
  000b9	42		 inc	 edx
  000ba	84 c0		 test	 al, al
  000bc	75 f9		 jne	 SHORT $LL20@setReturnP
  000be	2b d7		 sub	 edx, edi
  000c0	83 fa 10	 cmp	 edx, 16			; 00000010H
  000c3	77 18		 ja	 SHORT $LN6@setReturnP

; 2305 : 		strcpy( charObj[no].name, name );

  000c5	8b c6		 mov	 eax, esi
  000c7	2b c1		 sub	 eax, ecx
  000c9	8d 90 38 00 00
	00		 lea	 edx, DWORD PTR ?charObj@@3PAUCHAROBJ@@A[eax+56]
  000cf	90		 npad	 1
$LL9@setReturnP:
  000d0	8a 01		 mov	 al, BYTE PTR [ecx]
  000d2	8d 49 01	 lea	 ecx, DWORD PTR [ecx+1]
  000d5	88 44 0a ff	 mov	 BYTE PTR [edx+ecx-1], al
  000d9	84 c0		 test	 al, al
  000db	75 f3		 jne	 SHORT $LL9@setReturnP
$LN6@setReturnP:

; 2306 : 	if( strlen( freeName ) <= PET_FREENAME_LEN )

  000dd	8b 4d 20	 mov	 ecx, DWORD PTR _freeName$[ebp]
  000e0	8b d1		 mov	 edx, ecx
  000e2	8d 7a 01	 lea	 edi, DWORD PTR [edx+1]
$LL21@setReturnP:
  000e5	8a 02		 mov	 al, BYTE PTR [edx]
  000e7	42		 inc	 edx
  000e8	84 c0		 test	 al, al
  000ea	75 f9		 jne	 SHORT $LL21@setReturnP
  000ec	2b d7		 sub	 edx, edi
  000ee	83 fa 20	 cmp	 edx, 32			; 00000020H
  000f1	77 1a		 ja	 SHORT $LN7@setReturnP

; 2307 : 		strcpy( charObj[no].freeName, freeName );

  000f3	8b c6		 mov	 eax, esi
  000f5	2b c1		 sub	 eax, ecx
  000f7	8d 90 49 00 00
	00		 lea	 edx, DWORD PTR ?charObj@@3PAUCHAROBJ@@A[eax+73]
  000fd	0f 1f 00	 npad	 3
$LL10@setReturnP:
  00100	8a 01		 mov	 al, BYTE PTR [ecx]
  00102	8d 49 01	 lea	 ecx, DWORD PTR [ecx+1]
  00105	88 44 0a ff	 mov	 BYTE PTR [edx+ecx-1], al
  00109	84 c0		 test	 al, al
  0010b	75 f3		 jne	 SHORT $LL10@setReturnP
$LN7@setReturnP:

; 2308 : 	charObj[no].charType = getAtrCharType( charType );

  0010d	ff 75 34	 push	 DWORD PTR _charType$[ebp]
  00110	e8 00 00 00 00	 call	 ?getAtrCharType@@YAHH@Z	; getAtrCharType
  00115	83 c4 04	 add	 esp, 4
  00118	89 86 b4 00 00
	00		 mov	 DWORD PTR ?charObj@@3PAUCHAROBJ@@A[esi+180], eax

; 2309 : 	return TRUE;

  0011e	b8 01 00 00 00	 mov	 eax, 1
  00123	5e		 pop	 esi
  00124	5f		 pop	 edi

; 2310 : }

  00125	5d		 pop	 ebp
  00126	c3		 ret	 0
$LN19@setReturnP:

; 2289 : 		return FALSE;	// ??????????îŽ·??

  00127	33 c0		 xor	 eax, eax
  00129	5f		 pop	 edi

; 2310 : }

  0012a	5d		 pop	 ebp
  0012b	c3		 ret	 0
?setReturnPetObj@@YAHHHHHHPAD0HHHHH@Z ENDP		; setReturnPetObj
_TEXT	ENDS
; Function compile flags: /Ogtp
; File C:\Users\gg862\OneDrive\¹ÙÅÁ È­¸é\¸¾Äí¿Ï·á\Client Source Code1.31ÀÏº»\system\character.cpp
;	COMDAT ?setNpcCharObj@@YAXHHHHHPAD00H0HHHHHHHH@Z
_TEXT	SEGMENT
_no$2$ = -16						; size = 4
tv933 = -16						; size = 4
tv930 = -16						; size = 4
_ê«êó??$1$ = -12					; size = 4
_ê«êóÎÃ?$1$ = -8					; size = 4
_angelMode$1$ = -4					; size = 4
_id$ = 8						; size = 4
_graNo$ = 12						; size = 4
_gx$ = 16						; size = 4
_gy$ = 20						; size = 4
_dir$ = 24						; size = 4
_fmname$ = 28						; size = 4
_name$ = 32						; size = 4
_freeName$ = 36						; size = 4
_level$ = 40						; size = 4
_petname$ = 44						; size = 4
_petlevel$ = 48						; size = 4
_nameColor$ = 52					; size = 4
_walk$ = 56						; size = 4
_height$ = 60						; size = 4
_charType$ = 64						; size = 4
_profession_class$ = 68					; size = 4
_picture$ = 72						; size = 4
_noticeNo$ = 76						; size = 4
?setNpcCharObj@@YAXHHHHHPAD00H0HHHHHHHH@Z PROC		; setNpcCharObj, COMDAT

; 2133 : {

  00000	55		 push	 ebp
  00001	8b ec		 mov	 ebp, esp
  00003	83 ec 10	 sub	 esp, 16			; 00000010H
  00006	53		 push	 ebx
  00007	56		 push	 esi
  00008	8b 75 24	 mov	 esi, DWORD PTR _freeName$[ebp]
  0000b	57		 push	 edi

; 2134 : 	int no;
; 2135 : 	BOOL existFlag = FALSE;
; 2136 : 	CHAREXTRA *ext;
; 2137 : #ifdef _ANGEL_SUMMON
; 2138 : 	unsigned angelMode =0;
; 2139 : #endif
; 2140 : 
; 2141 : 	int åŽŸæœ‰å…‰çŽ¯ = 0;
; 2142 : 	int åŽŸæœ‰ç§°å· = 0;
; 2143 : 
; 2144 : 
; 2145 : 	//TODO è¦ä¿®å…‰çŽ¯æ¶ˆå¤±
; 2146 : 	if( (no = searchCharObjId( id )) >= 0 ) {

  0000c	8b 7d 08	 mov	 edi, DWORD PTR _id$[ebp]
  0000f	57		 push	 edi
  00010	c7 45 fc 00 00
	00 00		 mov	 DWORD PTR _angelMode$1$[ebp], 0
  00017	c7 45 f8 00 00
	00 00		 mov	 DWORD PTR _ê«êóÎÃ?$1$[ebp], 0
  0001e	c7 45 f4 00 00
	00 00		 mov	 DWORD PTR _ê«êó??$1$[ebp], 0
  00025	e8 00 00 00 00	 call	 ?searchCharObjId@@YAHH@Z ; searchCharObjId
  0002a	83 c4 04	 add	 esp, 4
  0002d	85 c0		 test	 eax, eax
  0002f	78 3a		 js	 SHORT $__out1$84

; 2147 : #ifdef _ANGEL_SUMMON
; 2148 : 		angelMode = charObj[no].status & CHR_STATUS_ANGEL;

  00031	69 c0 0c 01 00
	00		 imul	 eax, eax, 268
  00037	8b 88 2c 00 00
	00		 mov	 ecx, DWORD PTR ?charObj@@3PAUCHAROBJ@@A[eax+44]

; 2149 : #endif
; 2150 : 
; 2151 : 		////JL fix ä¸åˆ idçš„å†…å­˜
; 2152 : 		//existFlag = true;
; 2153 : 		//goto __out1;
; 2154 : 		if (charObj[no].ptAct != NULL)

  0003d	8b 80 bc 00 00
	00		 mov	 eax, DWORD PTR ?charObj@@3PAUCHAROBJ@@A[eax+188]
  00043	81 e1 00 00 01
	00		 and	 ecx, 65536		; 00010000H
  00049	89 4d fc	 mov	 DWORD PTR _angelMode$1$[ebp], ecx
  0004c	85 c0		 test	 eax, eax
  0004e	74 12		 je	 SHORT $LN3@setNpcChar

; 2155 : 		{
; 2156 : 			åŽŸæœ‰å…‰çŽ¯ = charObj[no].ptAct->å…‰çŽ¯å›¾æ¡£ç¼–å·;

  00050	8b 88 c8 01 00
	00		 mov	 ecx, DWORD PTR [eax+456]

; 2157 : 			åŽŸæœ‰ç§°å· = charObj[no].ptAct->ç§°å·å›¾æ¡£ç¼–å·;

  00056	8b 80 cc 01 00
	00		 mov	 eax, DWORD PTR [eax+460]
  0005c	89 4d f8	 mov	 DWORD PTR _ê«êóÎÃ?$1$[ebp], ecx
  0005f	89 45 f4	 mov	 DWORD PTR _ê«êó??$1$[ebp], eax
$LN3@setNpcChar:

; 2158 : 		}
; 2159 : 
; 2160 : 		delCharObj( id);

  00062	57		 push	 edi
  00063	e8 00 00 00 00	 call	 ?delCharObj@@YAXH@Z	; delCharObj
  00068	83 c4 04	 add	 esp, 4
$__out1$84:

; 2161 : 	}
; 2162 : __out1:;
; 2163 : 
; 2164 : 	if( !existFlag ){
; 2165 : 		no = getCharObjBuf();

  0006b	e8 00 00 00 00	 call	 ?getCharObjBuf@@YAHXZ	; getCharObjBuf
  00070	8b d8		 mov	 ebx, eax
  00072	89 5d f0	 mov	 DWORD PTR _no$2$[ebp], ebx

; 2166 : 		if( no < 0 )

  00075	85 db		 test	 ebx, ebx
  00077	0f 88 7e 03 00
	00		 js	 $LN1@setNpcChar

; 2167 : 			return;
; 2168 : 		charObj[no].ptAct = createCharAction( graNo, gx, gy, dir );

  0007d	ff 75 18	 push	 DWORD PTR _dir$[ebp]
  00080	8b 4d 0c	 mov	 ecx, DWORD PTR _graNo$[ebp]
  00083	ff 75 14	 push	 DWORD PTR _gy$[ebp]
  00086	ff 75 10	 push	 DWORD PTR _gx$[ebp]
  00089	51		 push	 ecx
  0008a	e8 00 00 00 00	 call	 ?createCharAction@@YAPAUaction@@HHHH@Z ; createCharAction
  0008f	69 db 0c 01 00
	00		 imul	 ebx, ebx, 268
  00095	83 c4 10	 add	 esp, 16			; 00000010H
  00098	89 83 bc 00 00
	00		 mov	 DWORD PTR ?charObj@@3PAUCHAROBJ@@A[ebx+188], eax

; 2169 : 		if( charObj[no].ptAct == NULL )

  0009e	85 c0		 test	 eax, eax
  000a0	0f 84 55 03 00
	00		 je	 $LN1@setNpcChar

; 2170 : 			return;
; 2171 : 
; 2172 : 		charObj[no].use = CHAROBJ_USE_VIEW;
; 2173 : 		ext = (CHAREXTRA *)charObj[no].ptAct->pYobi;
; 2174 : 		ext->charObjTblId = no;
; 2175 : 		charObj[no].type      = getAtrCharObjType( charType );

  000a6	ff 75 40	 push	 DWORD PTR _charType$[ebp]
  000a9	b9 02 00 00 00	 mov	 ecx, 2
  000ae	66 89 8b 00 00
	00 00		 mov	 WORD PTR ?charObj@@3PAUCHAROBJ@@A[ebx], cx
  000b5	8b 40 0c	 mov	 eax, DWORD PTR [eax+12]
  000b8	8b 4d f0	 mov	 ecx, DWORD PTR _no$2$[ebp]
  000bb	89 08		 mov	 DWORD PTR [eax], ecx
  000bd	e8 00 00 00 00	 call	 ?getAtrCharObjType@@YAHH@Z ; getAtrCharObjType
  000c2	66 89 83 02 00
	00 00		 mov	 WORD PTR ?charObj@@3PAUCHAROBJ@@A[ebx+2], ax
  000c9	83 c4 04	 add	 esp, 4

; 2176 : 		charObj[no].id        = id;
; 2177 : 		charObj[no].stockDir  = -1;
; 2178 : 	}
; 2179 : 	charObj[no].graNo     = graNo;
; 2180 : 	charObj[no].nameColor = nameColor;
; 2181 : 	charObj[no].level     = level;
; 2182 : 	charObj[no].gx = gx;
; 2183 : 	charObj[no].gy = gy;
; 2184 : 	charObj[no].dir = dir;
; 2185 : 	if( walk != 0 )

  000cc	83 7d 38 00	 cmp	 DWORD PTR _walk$[ebp], 0
  000d0	8b 45 0c	 mov	 eax, DWORD PTR _graNo$[ebp]
  000d3	89 bb 04 00 00
	00		 mov	 DWORD PTR ?charObj@@3PAUCHAROBJ@@A[ebx+4], edi
  000d9	c7 83 1c 00 00
	00 ff ff ff ff	 mov	 DWORD PTR ?charObj@@3PAUCHAROBJ@@A[ebx+28], -1
  000e3	89 83 08 00 00
	00		 mov	 DWORD PTR ?charObj@@3PAUCHAROBJ@@A[ebx+8], eax
  000e9	8b 45 34	 mov	 eax, DWORD PTR _nameColor$[ebp]
  000ec	66 89 83 28 00
	00 00		 mov	 WORD PTR ?charObj@@3PAUCHAROBJ@@A[ebx+40], ax
  000f3	8b 45 28	 mov	 eax, DWORD PTR _level$[ebp]
  000f6	89 83 14 00 00
	00		 mov	 DWORD PTR ?charObj@@3PAUCHAROBJ@@A[ebx+20], eax
  000fc	8b 45 10	 mov	 eax, DWORD PTR _gx$[ebp]
  000ff	89 83 0c 00 00
	00		 mov	 DWORD PTR ?charObj@@3PAUCHAROBJ@@A[ebx+12], eax
  00105	8b 45 14	 mov	 eax, DWORD PTR _gy$[ebp]
  00108	89 83 10 00 00
	00		 mov	 DWORD PTR ?charObj@@3PAUCHAROBJ@@A[ebx+16], eax
  0010e	8b 45 18	 mov	 eax, DWORD PTR _dir$[ebp]
  00111	89 83 18 00 00
	00		 mov	 DWORD PTR ?charObj@@3PAUCHAROBJ@@A[ebx+24], eax
  00117	74 07		 je	 SHORT $LN71@setNpcChar

; 2186 : 		charObj[no].status |= CHR_STATUS_W;

  00119	83 8b 2c 00 00
	00 40		 or	 DWORD PTR ?charObj@@3PAUCHAROBJ@@A[ebx+44], 64 ; 00000040H
$LN71@setNpcChar:

; 2187 : 	if( height != 0 )

  00120	83 7d 3c 00	 cmp	 DWORD PTR _height$[ebp], 0
  00124	74 0a		 je	 SHORT $LN72@setNpcChar

; 2188 : 		charObj[no].status |= CHR_STATUS_H;

  00126	81 8b 2c 00 00
	00 80 00 00 00	 or	 DWORD PTR ?charObj@@3PAUCHAROBJ@@A[ebx+44], 128 ; 00000080H
$LN72@setNpcChar:

; 2189 : 	if( strlen( name ) <= CHAR_NAME_LEN )

  00130	8b 55 20	 mov	 edx, DWORD PTR _name$[ebp]
  00133	8b ca		 mov	 ecx, edx
  00135	8d 79 01	 lea	 edi, DWORD PTR [ecx+1]
$LL74@setNpcChar:
  00138	8a 01		 mov	 al, BYTE PTR [ecx]
  0013a	41		 inc	 ecx
  0013b	84 c0		 test	 al, al
  0013d	75 f9		 jne	 SHORT $LL74@setNpcChar
  0013f	2b cf		 sub	 ecx, edi
  00141	83 f9 10	 cmp	 ecx, 16			; 00000010H
  00144	77 19		 ja	 SHORT $LN9@setNpcChar

; 2190 : 		strcpy( charObj[no].name, name );		

  00146	8b c3		 mov	 eax, ebx
  00148	8b ca		 mov	 ecx, edx
  0014a	2b c2		 sub	 eax, edx
  0014c	8d 90 38 00 00
	00		 lea	 edx, DWORD PTR ?charObj@@3PAUCHAROBJ@@A[eax+56]
$LL29@setNpcChar:
  00152	8a 01		 mov	 al, BYTE PTR [ecx]
  00154	8d 49 01	 lea	 ecx, DWORD PTR [ecx+1]
  00157	88 44 11 ff	 mov	 BYTE PTR [ecx+edx-1], al
  0015b	84 c0		 test	 al, al
  0015d	75 f3		 jne	 SHORT $LL29@setNpcChar
$LN9@setNpcChar:

; 2191 : 	// shan add code
; 2192 :     if( strlen( fmname ) <= CHAR_FMNAME_LEN )

  0015f	8b 55 1c	 mov	 edx, DWORD PTR _fmname$[ebp]
  00162	8b ca		 mov	 ecx, edx
  00164	8d 79 01	 lea	 edi, DWORD PTR [ecx+1]
$LL75@setNpcChar:
  00167	8a 01		 mov	 al, BYTE PTR [ecx]
  00169	41		 inc	 ecx
  0016a	84 c0		 test	 al, al
  0016c	75 f9		 jne	 SHORT $LL75@setNpcChar
  0016e	2b cf		 sub	 ecx, edi
  00170	83 f9 21	 cmp	 ecx, 33			; 00000021H
  00173	77 19		 ja	 SHORT $LN10@setNpcChar

; 2193 : 	    strcpy( charObj[no].fmname, fmname );	

  00175	8b c3		 mov	 eax, ebx
  00177	8b ca		 mov	 ecx, edx
  00179	2b c2		 sub	 eax, edx
  0017b	8d 90 c4 00 00
	00		 lea	 edx, DWORD PTR ?charObj@@3PAUCHAROBJ@@A[eax+196]
$LL30@setNpcChar:
  00181	8a 01		 mov	 al, BYTE PTR [ecx]
  00183	8d 49 01	 lea	 ecx, DWORD PTR [ecx+1]
  00186	88 44 11 ff	 mov	 BYTE PTR [ecx+edx-1], al
  0018a	84 c0		 test	 al, al
  0018c	75 f3		 jne	 SHORT $LL30@setNpcChar
$LN10@setNpcChar:

; 2194 : 	if( charType != CHAR_TYPEPET ){

  0018e	8b ce		 mov	 ecx, esi
  00190	8d 51 01	 lea	 edx, DWORD PTR [ecx+1]
$LL76@setNpcChar:
  00193	8a 01		 mov	 al, BYTE PTR [ecx]
  00195	41		 inc	 ecx
  00196	84 c0		 test	 al, al
  00198	75 f9		 jne	 SHORT $LL76@setNpcChar
  0019a	2b ca		 sub	 ecx, edx

; 2195 : 		if( strlen( freeName ) <= CHAR_FREENAME_LEN )

  0019c	83 f9 20	 cmp	 ecx, 32			; 00000020H
  0019f	77 2e		 ja	 SHORT $LN14@setNpcChar

; 2194 : 	if( charType != CHAR_TYPEPET ){

  001a1	8b c3		 mov	 eax, ebx
  001a3	8b ce		 mov	 ecx, esi
  001a5	2b c6		 sub	 eax, esi
  001a7	83 7d 40 03	 cmp	 DWORD PTR _charType$[ebp], 3
  001ab	8d 90 49 00 00
	00		 lea	 edx, DWORD PTR ?charObj@@3PAUCHAROBJ@@A[eax+73]
  001b1	74 0f		 je	 SHORT $LL32@setNpcChar
$LL31@setNpcChar:

; 2196 : 			strcpy( charObj[no].freeName, freeName );		

  001b3	8a 01		 mov	 al, BYTE PTR [ecx]
  001b5	8d 49 01	 lea	 ecx, DWORD PTR [ecx+1]
  001b8	88 44 11 ff	 mov	 BYTE PTR [ecx+edx-1], al
  001bc	84 c0		 test	 al, al
  001be	75 f3		 jne	 SHORT $LL31@setNpcChar

; 2197 : 	}else{

  001c0	eb 0d		 jmp	 SHORT $LN14@setNpcChar
$LL32@setNpcChar:

; 2198 : 		if( strlen( freeName ) <= PET_FREENAME_LEN )
; 2199 : 			strcpy( charObj[no].freeName, freeName );        		    

  001c2	8a 01		 mov	 al, BYTE PTR [ecx]
  001c4	8d 49 01	 lea	 ecx, DWORD PTR [ecx+1]
  001c7	88 44 11 ff	 mov	 BYTE PTR [ecx+edx-1], al
  001cb	84 c0		 test	 al, al
  001cd	75 f3		 jne	 SHORT $LL32@setNpcChar
$LN14@setNpcChar:

; 2200 : 	}
; 2201 : 	// Robin 0730
; 2202 :     if( strlen( petname ) <= CHAR_FREENAME_LEN )

  001cf	8b 7d 2c	 mov	 edi, DWORD PTR _petname$[ebp]
  001d2	8b cf		 mov	 ecx, edi
  001d4	8d 51 01	 lea	 edx, DWORD PTR [ecx+1]
$LL77@setNpcChar:
  001d7	8a 01		 mov	 al, BYTE PTR [ecx]
  001d9	41		 inc	 ecx
  001da	84 c0		 test	 al, al
  001dc	75 f9		 jne	 SHORT $LL77@setNpcChar
  001de	2b ca		 sub	 ecx, edx
  001e0	83 f9 20	 cmp	 ecx, 32			; 00000020H
  001e3	77 19		 ja	 SHORT $LN15@setNpcChar

; 2203 : 	    strcpy( charObj[no].petName, petname );	

  001e5	8b c3		 mov	 eax, ebx
  001e7	8b cf		 mov	 ecx, edi
  001e9	2b c7		 sub	 eax, edi
  001eb	8d 90 e6 00 00
	00		 lea	 edx, DWORD PTR ?charObj@@3PAUCHAROBJ@@A[eax+230]
$LL33@setNpcChar:
  001f1	8a 01		 mov	 al, BYTE PTR [ecx]
  001f3	8d 49 01	 lea	 ecx, DWORD PTR [ecx+1]
  001f6	88 44 11 ff	 mov	 BYTE PTR [ecx+edx-1], al
  001fa	84 c0		 test	 al, al
  001fc	75 f3		 jne	 SHORT $LL33@setNpcChar
$LN15@setNpcChar:

; 2204 : 	charObj[no].petLevel = petlevel;

  001fe	8b 45 30	 mov	 eax, DWORD PTR _petlevel$[ebp]

; 2205 : 
; 2206 : 	charObj[no].charType = getAtrCharType( charType );

  00201	ff 75 40	 push	 DWORD PTR _charType$[ebp]
  00204	89 83 08 01 00
	00		 mov	 DWORD PTR ?charObj@@3PAUCHAROBJ@@A[ebx+264], eax
  0020a	e8 00 00 00 00	 call	 ?getAtrCharType@@YAHH@Z	; getAtrCharType
  0020f	89 83 b4 00 00
	00		 mov	 DWORD PTR ?charObj@@3PAUCHAROBJ@@A[ebx+180], eax
  00215	83 c4 04	 add	 esp, 4

; 2207 : 	charObj[no].newFoundFlag = 1;

  00218	b8 01 00 00 00	 mov	 eax, 1
  0021d	66 89 83 b8 00
	00 00		 mov	 WORD PTR ?charObj@@3PAUCHAROBJ@@A[ebx+184], ax

; 2208 : 
; 2209 : #ifdef _ANGEL_SUMMON
; 2210 : 	charObj[no].status |= angelMode;

  00224	8b 45 fc	 mov	 eax, DWORD PTR _angelMode$1$[ebp]
  00227	09 83 2c 00 00
	00		 or	 DWORD PTR ?charObj@@3PAUCHAROBJ@@A[ebx+44], eax

; 2211 : #endif
; 2212 : 
; 2213 : 	if( charObj[no].ptAct == NULL )

  0022d	8b 83 bc 00 00
	00		 mov	 eax, DWORD PTR ?charObj@@3PAUCHAROBJ@@A[ebx+188]
  00233	85 c0		 test	 eax, eax
  00235	0f 84 c0 01 00
	00		 je	 $LN1@setNpcChar

; 2214 : 		return;
; 2215 : //#define æˆ˜æ–—å…‰çŽ¯
; 2216 : //#define äººç‰©å…‰çŽ¯   
; 2217 : 	if (åŽŸæœ‰å…‰çŽ¯){

  0023b	8b 4d f8	 mov	 ecx, DWORD PTR _ê«êóÎÃ?$1$[ebp]
  0023e	85 c9		 test	 ecx, ecx
  00240	74 10		 je	 SHORT $LN17@setNpcChar

; 2218 : 		setCharmManor(charObj[no].ptAct, åŽŸæœ‰å…‰çŽ¯);

  00242	51		 push	 ecx
  00243	50		 push	 eax
  00244	e8 00 00 00 00	 call	 ?setCharmManor@@YAXPAUaction@@H@Z ; setCharmManor
  00249	8b 83 bc 00 00
	00		 mov	 eax, DWORD PTR ?charObj@@3PAUCHAROBJ@@A[ebx+188]
  0024f	83 c4 08	 add	 esp, 8
$LN17@setNpcChar:

; 2219 : 	}
; 2220 : 	if (åŽŸæœ‰ç§°å·){

  00252	8b 4d f4	 mov	 ecx, DWORD PTR _ê«êó??$1$[ebp]
  00255	85 c9		 test	 ecx, ecx
  00257	74 10		 je	 SHORT $LN18@setNpcChar

; 2221 : 		setCharmTitle(charObj[no].ptAct, åŽŸæœ‰ç§°å·);

  00259	51		 push	 ecx
  0025a	50		 push	 eax
  0025b	e8 00 00 00 00	 call	 ?setCharmTitle@@YAXPAUaction@@H@Z ; setCharmTitle
  00260	8b 83 bc 00 00
	00		 mov	 eax, DWORD PTR ?charObj@@3PAUCHAROBJ@@A[ebx+188]
  00266	83 c4 08	 add	 esp, 8
$LN18@setNpcChar:

; 2222 : 	}
; 2223 : 
; 2224 : 
; 2225 : 	charObj[no].ptAct->anim_chr_no = graNo;

  00269	8b 4d 0c	 mov	 ecx, DWORD PTR _graNo$[ebp]

; 2226 : 	charObj[no].ptAct->level = level;
; 2227 : 	charObj[no].ptAct->atr |= charObj[no].charType;
; 2228 : 	if( strlen( name ) <= CHAR_NAME_LEN )

  0026c	8b 55 20	 mov	 edx, DWORD PTR _name$[ebp]
  0026f	89 88 44 01 00
	00		 mov	 DWORD PTR [eax+324], ecx
  00275	8b 83 bc 00 00
	00		 mov	 eax, DWORD PTR ?charObj@@3PAUCHAROBJ@@A[ebx+188]
  0027b	8b 4d 28	 mov	 ecx, DWORD PTR _level$[ebp]
  0027e	89 88 8c 00 00
	00		 mov	 DWORD PTR [eax+140], ecx
  00284	8b 8b bc 00 00
	00		 mov	 ecx, DWORD PTR ?charObj@@3PAUCHAROBJ@@A[ebx+188]
  0028a	8b 83 b4 00 00
	00		 mov	 eax, DWORD PTR ?charObj@@3PAUCHAROBJ@@A[ebx+180]
  00290	09 81 a4 00 00
	00		 or	 DWORD PTR [ecx+164], eax
  00296	8b ca		 mov	 ecx, edx
  00298	8d 41 01	 lea	 eax, DWORD PTR [ecx+1]
  0029b	89 45 f0	 mov	 DWORD PTR tv930[ebp], eax
  0029e	66 90		 npad	 2
$LL78@setNpcChar:
  002a0	8a 01		 mov	 al, BYTE PTR [ecx]
  002a2	41		 inc	 ecx
  002a3	84 c0		 test	 al, al
  002a5	75 f9		 jne	 SHORT $LL78@setNpcChar
  002a7	2b 4d f0	 sub	 ecx, DWORD PTR tv930[ebp]
  002aa	83 f9 10	 cmp	 ecx, 16			; 00000010H
  002ad	77 17		 ja	 SHORT $LN19@setNpcChar

; 2229 : 		strcpy( charObj[no].ptAct->name, name );

  002af	8b 8b bc 00 00
	00		 mov	 ecx, DWORD PTR ?charObj@@3PAUCHAROBJ@@A[ebx+188]
  002b5	83 c1 38	 add	 ecx, 56			; 00000038H
$LL34@setNpcChar:
  002b8	8a 02		 mov	 al, BYTE PTR [edx]
  002ba	8d 52 01	 lea	 edx, DWORD PTR [edx+1]
  002bd	88 01		 mov	 BYTE PTR [ecx], al
  002bf	8d 49 01	 lea	 ecx, DWORD PTR [ecx+1]
  002c2	84 c0		 test	 al, al
  002c4	75 f2		 jne	 SHORT $LL34@setNpcChar
$LN19@setNpcChar:

; 2230 : 	// shan add
; 2231 : 	if( charType == CHAR_TYPEPLAYER){

  002c6	83 7d 40 01	 cmp	 DWORD PTR _charType$[ebp], 1
  002ca	75 44		 jne	 SHORT $LN20@setNpcChar

; 2232 : 		if( strlen( fmname ) <= CHAR_FMNAME_LEN )

  002cc	8b 55 1c	 mov	 edx, DWORD PTR _fmname$[ebp]
  002cf	8b ca		 mov	 ecx, edx
  002d1	8d 41 01	 lea	 eax, DWORD PTR [ecx+1]
  002d4	89 45 f0	 mov	 DWORD PTR tv933[ebp], eax
$LL79@setNpcChar:
  002d7	8a 01		 mov	 al, BYTE PTR [ecx]
  002d9	41		 inc	 ecx
  002da	84 c0		 test	 al, al
  002dc	75 f9		 jne	 SHORT $LL79@setNpcChar
  002de	2b 4d f0	 sub	 ecx, DWORD PTR tv933[ebp]
  002e1	83 f9 21	 cmp	 ecx, 33			; 00000021H
  002e4	77 1a		 ja	 SHORT $LN22@setNpcChar

; 2233 : 			strcpy( charObj[no].ptAct->fmname, fmname );

  002e6	8b 8b bc 00 00
	00		 mov	 ecx, DWORD PTR ?charObj@@3PAUCHAROBJ@@A[ebx+188]
  002ec	81 c1 70 01 00
	00		 add	 ecx, 368		; 00000170H
$LL35@setNpcChar:
  002f2	8a 02		 mov	 al, BYTE PTR [edx]
  002f4	8d 52 01	 lea	 edx, DWORD PTR [edx+1]
  002f7	88 01		 mov	 BYTE PTR [ecx], al
  002f9	8d 49 01	 lea	 ecx, DWORD PTR [ecx+1]
  002fc	84 c0		 test	 al, al
  002fe	75 f2		 jne	 SHORT $LL35@setNpcChar
$LN22@setNpcChar:

; 2234 : 	}

  00300	8b ce		 mov	 ecx, esi
  00302	8d 51 01	 lea	 edx, DWORD PTR [ecx+1]
$LL80@setNpcChar:
  00305	8a 01		 mov	 al, BYTE PTR [ecx]
  00307	41		 inc	 ecx
  00308	84 c0		 test	 al, al
  0030a	75 f9		 jne	 SHORT $LL80@setNpcChar
  0030c	2b ca		 sub	 ecx, edx
  0030e	eb 26		 jmp	 SHORT $LN73@setNpcChar
$LN20@setNpcChar:

; 2235 : 	else{
; 2236 : 		strcpy( charObj[no].ptAct->fmname, " " );

  00310	8b 83 bc 00 00
	00		 mov	 eax, DWORD PTR ?charObj@@3PAUCHAROBJ@@A[ebx+188]
  00316	b9 20 00 00 00	 mov	 ecx, 32			; 00000020H
  0031b	66 89 88 70 01
	00 00		 mov	 WORD PTR [eax+368], cx

; 2237 : 	}
; 2238 : 
; 2239 : 	if( charType != CHAR_TYPEPET ){

  00322	8b ce		 mov	 ecx, esi
  00324	8d 51 01	 lea	 edx, DWORD PTR [ecx+1]
$LL81@setNpcChar:
  00327	8a 01		 mov	 al, BYTE PTR [ecx]
  00329	41		 inc	 ecx
  0032a	84 c0		 test	 al, al
  0032c	75 f9		 jne	 SHORT $LL81@setNpcChar
  0032e	2b ca		 sub	 ecx, edx
  00330	83 7d 40 03	 cmp	 DWORD PTR _charType$[ebp], 3
  00334	74 1e		 je	 SHORT $LN23@setNpcChar
$LN73@setNpcChar:

; 2240 : 		if( strlen( freeName ) <= CHAR_FREENAME_LEN )

  00336	83 f9 20	 cmp	 ecx, 32			; 00000020H
  00339	77 35		 ja	 SHORT $LN26@setNpcChar

; 2241 : 			strcpy( charObj[no].ptAct->freeName, freeName );

  0033b	8b 8b bc 00 00
	00		 mov	 ecx, DWORD PTR ?charObj@@3PAUCHAROBJ@@A[ebx+188]
  00341	83 c1 55	 add	 ecx, 85			; 00000055H
$LL36@setNpcChar:
  00344	8a 06		 mov	 al, BYTE PTR [esi]
  00346	8d 76 01	 lea	 esi, DWORD PTR [esi+1]
  00349	88 01		 mov	 BYTE PTR [ecx], al
  0034b	8d 49 01	 lea	 ecx, DWORD PTR [ecx+1]
  0034e	84 c0		 test	 al, al
  00350	75 f2		 jne	 SHORT $LL36@setNpcChar

; 2242 : 	}else{

  00352	eb 1c		 jmp	 SHORT $LN26@setNpcChar
$LN23@setNpcChar:

; 2243 : 		if( strlen( freeName ) <= PET_FREENAME_LEN )

  00354	83 f9 20	 cmp	 ecx, 32			; 00000020H
  00357	77 17		 ja	 SHORT $LN26@setNpcChar

; 2244 : 			strcpy( charObj[no].ptAct->freeName, freeName );

  00359	8b 8b bc 00 00
	00		 mov	 ecx, DWORD PTR ?charObj@@3PAUCHAROBJ@@A[ebx+188]
  0035f	83 c1 55	 add	 ecx, 85			; 00000055H
$LL37@setNpcChar:
  00362	8a 06		 mov	 al, BYTE PTR [esi]
  00364	8d 76 01	 lea	 esi, DWORD PTR [esi+1]
  00367	88 01		 mov	 BYTE PTR [ecx], al
  00369	8d 49 01	 lea	 ecx, DWORD PTR [ecx+1]
  0036c	84 c0		 test	 al, al
  0036e	75 f2		 jne	 SHORT $LL37@setNpcChar
$LN26@setNpcChar:

; 2245 : 	}
; 2246 : 	// Robin 0730
; 2247 : 	if( strlen( petname ) <= CHAR_FREENAME_LEN )

  00370	8b cf		 mov	 ecx, edi
  00372	8d 51 01	 lea	 edx, DWORD PTR [ecx+1]
$LL82@setNpcChar:
  00375	8a 01		 mov	 al, BYTE PTR [ecx]
  00377	41		 inc	 ecx
  00378	84 c0		 test	 al, al
  0037a	75 f9		 jne	 SHORT $LL82@setNpcChar
  0037c	2b ca		 sub	 ecx, edx
  0037e	83 f9 20	 cmp	 ecx, 32			; 00000020H
  00381	77 1b		 ja	 SHORT $LN27@setNpcChar

; 2248 : 		strcpy( charObj[no].ptAct->petName, petname );

  00383	8b 8b bc 00 00
	00		 mov	 ecx, DWORD PTR ?charObj@@3PAUCHAROBJ@@A[ebx+188]
  00389	81 c1 98 01 00
	00		 add	 ecx, 408		; 00000198H
  0038f	90		 npad	 1
$LL38@setNpcChar:
  00390	8a 07		 mov	 al, BYTE PTR [edi]
  00392	8d 7f 01	 lea	 edi, DWORD PTR [edi+1]
  00395	88 01		 mov	 BYTE PTR [ecx], al
  00397	8d 49 01	 lea	 ecx, DWORD PTR [ecx+1]
  0039a	84 c0		 test	 al, al
  0039c	75 f2		 jne	 SHORT $LL38@setNpcChar
$LN27@setNpcChar:

; 2249 : 	charObj[no].ptAct->petLevel = petlevel;

  0039e	8b 83 bc 00 00
	00		 mov	 eax, DWORD PTR ?charObj@@3PAUCHAROBJ@@A[ebx+188]
  003a4	8b 4d 30	 mov	 ecx, DWORD PTR _petlevel$[ebp]
  003a7	89 88 ac 01 00
	00		 mov	 DWORD PTR [eax+428], ecx

; 2250 : 
; 2251 : 	charObj[no].ptAct->itemNameColor = nameColor;

  003ad	8b 83 bc 00 00
	00		 mov	 eax, DWORD PTR ?charObj@@3PAUCHAROBJ@@A[ebx+188]
  003b3	8b 4d 34	 mov	 ecx, DWORD PTR _nameColor$[ebp]
  003b6	89 88 94 00 00
	00		 mov	 DWORD PTR [eax+148], ecx

; 2252 : 
; 2253 : #ifdef _CHAR_PROFESSION			// WON ADD äººç‰©èŒä¸š
; 2254 : 	charObj[no].ptAct->profession_class = profession_class;

  003bc	8b 8b bc 00 00
	00		 mov	 ecx, DWORD PTR ?charObj@@3PAUCHAROBJ@@A[ebx+188]
  003c2	8b 45 44	 mov	 eax, DWORD PTR _profession_class$[ebp]
  003c5	89 81 e0 01 00
	00		 mov	 DWORD PTR [ecx+480], eax

; 2255 : #endif
; 2256 : #ifdef _NPC_PICTURE
; 2257 : 	charObj[no].ptAct->picture = picture;

  003cb	8b 83 bc 00 00
	00		 mov	 eax, DWORD PTR ?charObj@@3PAUCHAROBJ@@A[ebx+188]
  003d1	8b 4d 48	 mov	 ecx, DWORD PTR _picture$[ebp]
  003d4	89 88 28 02 00
	00		 mov	 DWORD PTR [eax+552], ecx

; 2258 : 	charObj[no].ptAct->picturetemp = ((((picture)&0x00ff0000)>>16)&0x000000ff);//(picture&0x0000ffff);

  003da	8b 83 bc 00 00
	00		 mov	 eax, DWORD PTR ?charObj@@3PAUCHAROBJ@@A[ebx+188]
  003e0	c1 f9 10	 sar	 ecx, 16			; 00000010H
  003e3	0f b6 c9	 movzx	 ecx, cl
  003e6	89 88 2c 02 00
	00		 mov	 DWORD PTR [eax+556], ecx

; 2259 : 	//charObj[no].ptAct->anim_no = ((((picture)&0x0000ff00)>>8 )&0x000000ff);
; 2260 : #endif
; 2261 : #ifdef _GM_IDENTIFY		// Rog ADD GMè¯†åˆ«
; 2262 :     if( strlen( gm_name ) <= GM_NAME_LEN )
; 2263 : 	    strcpy( charObj[no].ptAct->gm_name, gm_name );	
; 2264 : #endif
; 2265 : #ifdef _NB_æ–‡å­—ç§°å·
; 2266 : 	if( strlen( newname ) <= CHAR_NAME_LEN )
; 2267 : 	    strcpy( charObj[no].ptAct->nb_name, newname );
; 2268 : 
; 2269 : 	charObj[no].ptAct->nb_namecolor = newnamecolor;
; 2270 : #endif
; 2271 : #ifdef _NB_ä»»åŠ¡æŒ‡å¼•
; 2272 : 	charObj[no].ptAct->noticeNo = noticeNo;

  003ec	8b 8b bc 00 00
	00		 mov	 ecx, DWORD PTR ?charObj@@3PAUCHAROBJ@@A[ebx+188]
  003f2	8b 45 4c	 mov	 eax, DWORD PTR _noticeNo$[ebp]
  003f5	89 81 d0 01 00
	00		 mov	 DWORD PTR [ecx+464], eax
$LN1@setNpcChar:

; 2273 : #endif
; 2274 : }

  003fb	5f		 pop	 edi
  003fc	5e		 pop	 esi
  003fd	5b		 pop	 ebx
  003fe	8b e5		 mov	 esp, ebp
  00400	5d		 pop	 ebp
  00401	c3		 ret	 0
?setNpcCharObj@@YAXHHHHHPAD00H0HHHHHHHH@Z ENDP		; setNpcCharObj
_TEXT	ENDS
; Function compile flags: /Ogtp
; File C:\Users\gg862\OneDrive\¹ÙÅÁ È­¸é\¸¾Äí¿Ï·á\Client Source Code1.31ÀÏº»\system\character.cpp
;	COMDAT ?checkCharObjPointNotStatus@@YAHHHFI@Z
_TEXT	SEGMENT
_gx$ = 8						; size = 4
_gy$ = 12						; size = 4
_type$ = 16						; size = 2
_status$ = 20						; size = 4
?checkCharObjPointNotStatus@@YAHHHFI@Z PROC		; checkCharObjPointNotStatus, COMDAT

; 2106 : {

  00000	55		 push	 ebp
  00001	8b ec		 mov	 ebp, esp
  00003	53		 push	 ebx
  00004	56		 push	 esi

; 2107 : 	int i;
; 2108 : 	int no = -1;
; 2109 : 	for( i = 0; i < tailCharObj; i++ ){

  00005	8b 35 00 00 00
	00		 mov	 esi, DWORD PTR ?tailCharObj@@3HA ; tailCharObj
  0000b	33 d2		 xor	 edx, edx
  0000d	57		 push	 edi
  0000e	85 f6		 test	 esi, esi
  00010	7e 58		 jle	 SHORT $LN14@checkCharO
  00012	66 8b 5d 10	 mov	 bx, WORD PTR _type$[ebp]
  00016	b8 bc 00 00 00	 mov	 eax, OFFSET ?charObj@@3PAUCHAROBJ@@A+188
  0001b	0f 1f 44 00 00	 npad	 5
$LL4@checkCharO:

; 2110 : 		if( charObj[i].use != CHAROBJ_USE_FREE && charObj[i].ptAct != NULL ){

  00020	66 83 b8 44 ff
	ff ff 00	 cmp	 WORD PTR [eax-188], 0
  00028	74 36		 je	 SHORT $LN2@checkCharO
  0002a	8b 08		 mov	 ecx, DWORD PTR [eax]
  0002c	85 c9		 test	 ecx, ecx
  0002e	74 30		 je	 SHORT $LN2@checkCharO

; 2111 : 			if( charObj[i].ptAct->gx == gx && charObj[i].ptAct->gy == gy && (charObj[i].type & type) != 0 ){

  00030	8b 7d 08	 mov	 edi, DWORD PTR _gx$[ebp]
  00033	39 b9 b4 00 00
	00		 cmp	 DWORD PTR [ecx+180], edi
  00039	8b 7d 14	 mov	 edi, DWORD PTR _status$[ebp]
  0003c	75 22		 jne	 SHORT $LN2@checkCharO
  0003e	8b 75 0c	 mov	 esi, DWORD PTR _gy$[ebp]
  00041	39 b1 b8 00 00
	00		 cmp	 DWORD PTR [ecx+184], esi
  00047	8b 35 00 00 00
	00		 mov	 esi, DWORD PTR ?tailCharObj@@3HA ; tailCharObj
  0004d	75 11		 jne	 SHORT $LN2@checkCharO
  0004f	66 85 98 46 ff
	ff ff		 test	 WORD PTR [eax-186], bx
  00056	74 08		 je	 SHORT $LN2@checkCharO

; 2112 : 				if( (charObj[i].status & status ) == 0 )

  00058	85 b8 70 ff ff
	ff		 test	 DWORD PTR [eax-144], edi
  0005e	74 11		 je	 SHORT $LN10@checkCharO
$LN2@checkCharO:

; 2107 : 	int i;
; 2108 : 	int no = -1;
; 2109 : 	for( i = 0; i < tailCharObj; i++ ){

  00060	42		 inc	 edx
  00061	05 0c 01 00 00	 add	 eax, 268		; 0000010cH
  00066	3b d6		 cmp	 edx, esi
  00068	7c b6		 jl	 SHORT $LL4@checkCharO
$LN14@checkCharO:
  0006a	5f		 pop	 edi

; 2113 : 					return 1;
; 2114 : 			}
; 2115 : 		}
; 2116 : 	}
; 2117 : 	return 0;
; 2118 : }

  0006b	5e		 pop	 esi
  0006c	33 c0		 xor	 eax, eax
  0006e	5b		 pop	 ebx
  0006f	5d		 pop	 ebp
  00070	c3		 ret	 0
$LN10@checkCharO:
  00071	5f		 pop	 edi
  00072	5e		 pop	 esi
  00073	b8 01 00 00 00	 mov	 eax, 1
  00078	5b		 pop	 ebx
  00079	5d		 pop	 ebp
  0007a	c3		 ret	 0
?checkCharObjPointNotStatus@@YAHHHFI@Z ENDP		; checkCharObjPointNotStatus
_TEXT	ENDS
; Function compile flags: /Ogtp
; File C:\Users\gg862\OneDrive\¹ÙÅÁ È­¸é\¸¾Äí¿Ï·á\Client Source Code1.31ÀÏº»\system\character.cpp
;	COMDAT ?checkCharObjPointStatus@@YAHHHFI@Z
_TEXT	SEGMENT
_gx$ = 8						; size = 4
_gy$ = 12						; size = 4
_type$ = 16						; size = 2
_status$ = 20						; size = 4
?checkCharObjPointStatus@@YAHHHFI@Z PROC		; checkCharObjPointStatus, COMDAT

; 2084 : {

  00000	55		 push	 ebp
  00001	8b ec		 mov	 ebp, esp
  00003	53		 push	 ebx
  00004	56		 push	 esi

; 2085 : 	int i;
; 2086 : 	int no = -1;
; 2087 : 	for( i = 0; i < tailCharObj; i++ ){

  00005	8b 35 00 00 00
	00		 mov	 esi, DWORD PTR ?tailCharObj@@3HA ; tailCharObj
  0000b	33 d2		 xor	 edx, edx
  0000d	57		 push	 edi
  0000e	85 f6		 test	 esi, esi
  00010	7e 58		 jle	 SHORT $LN14@checkCharO
  00012	66 8b 5d 10	 mov	 bx, WORD PTR _type$[ebp]
  00016	b8 bc 00 00 00	 mov	 eax, OFFSET ?charObj@@3PAUCHAROBJ@@A+188
  0001b	0f 1f 44 00 00	 npad	 5
$LL4@checkCharO:

; 2088 : 		if( charObj[i].use != CHAROBJ_USE_FREE && charObj[i].ptAct != NULL ){

  00020	66 83 b8 44 ff
	ff ff 00	 cmp	 WORD PTR [eax-188], 0
  00028	74 36		 je	 SHORT $LN2@checkCharO
  0002a	8b 08		 mov	 ecx, DWORD PTR [eax]
  0002c	85 c9		 test	 ecx, ecx
  0002e	74 30		 je	 SHORT $LN2@checkCharO

; 2089 : 			if( charObj[i].ptAct->gx == gx && charObj[i].ptAct->gy == gy && (charObj[i].type & type) != 0 ){

  00030	8b 7d 08	 mov	 edi, DWORD PTR _gx$[ebp]
  00033	39 b9 b4 00 00
	00		 cmp	 DWORD PTR [ecx+180], edi
  00039	8b 7d 14	 mov	 edi, DWORD PTR _status$[ebp]
  0003c	75 22		 jne	 SHORT $LN2@checkCharO
  0003e	8b 75 0c	 mov	 esi, DWORD PTR _gy$[ebp]
  00041	39 b1 b8 00 00
	00		 cmp	 DWORD PTR [ecx+184], esi
  00047	8b 35 00 00 00
	00		 mov	 esi, DWORD PTR ?tailCharObj@@3HA ; tailCharObj
  0004d	75 11		 jne	 SHORT $LN2@checkCharO
  0004f	66 85 98 46 ff
	ff ff		 test	 WORD PTR [eax-186], bx
  00056	74 08		 je	 SHORT $LN2@checkCharO

; 2090 : 				if( (charObj[i].status & status ) != 0 )

  00058	85 b8 70 ff ff
	ff		 test	 DWORD PTR [eax-144], edi
  0005e	75 11		 jne	 SHORT $LN10@checkCharO
$LN2@checkCharO:

; 2085 : 	int i;
; 2086 : 	int no = -1;
; 2087 : 	for( i = 0; i < tailCharObj; i++ ){

  00060	42		 inc	 edx
  00061	05 0c 01 00 00	 add	 eax, 268		; 0000010cH
  00066	3b d6		 cmp	 edx, esi
  00068	7c b6		 jl	 SHORT $LL4@checkCharO
$LN14@checkCharO:
  0006a	5f		 pop	 edi

; 2091 : 					return 1;
; 2092 : 			}
; 2093 : 		}
; 2094 : 	}
; 2095 : 	return 0;
; 2096 : }

  0006b	5e		 pop	 esi
  0006c	33 c0		 xor	 eax, eax
  0006e	5b		 pop	 ebx
  0006f	5d		 pop	 ebp
  00070	c3		 ret	 0
$LN10@checkCharO:
  00071	5f		 pop	 edi
  00072	5e		 pop	 esi
  00073	b8 01 00 00 00	 mov	 eax, 1
  00078	5b		 pop	 ebx
  00079	5d		 pop	 ebp
  0007a	c3		 ret	 0
?checkCharObjPointStatus@@YAHHHFI@Z ENDP		; checkCharObjPointStatus
_TEXT	ENDS
; Function compile flags: /Ogtp
; File C:\Users\gg862\OneDrive\¹ÙÅÁ È­¸é\¸¾Äí¿Ï·á\Client Source Code1.31ÀÏº»\system\character.cpp
;	COMDAT ?checkCharObjPoint@@YAHHHF@Z
_TEXT	SEGMENT
_gx$ = 8						; size = 4
_gy$ = 12						; size = 4
_type$ = 16						; size = 2
?checkCharObjPoint@@YAHHHF@Z PROC			; checkCharObjPoint, COMDAT

; 2064 : {

  00000	55		 push	 ebp
  00001	8b ec		 mov	 ebp, esp
  00003	53		 push	 ebx
  00004	56		 push	 esi

; 2065 : 	int i;
; 2066 : 	int no = -1;
; 2067 : 	for( i = 0; i < tailCharObj; i++ ){

  00005	8b 35 00 00 00
	00		 mov	 esi, DWORD PTR ?tailCharObj@@3HA ; tailCharObj
  0000b	33 d2		 xor	 edx, edx
  0000d	57		 push	 edi
  0000e	85 f6		 test	 esi, esi
  00010	7e 4a		 jle	 SHORT $LN13@checkCharO
  00012	66 8b 7d 10	 mov	 di, WORD PTR _type$[ebp]
  00016	b8 bc 00 00 00	 mov	 eax, OFFSET ?charObj@@3PAUCHAROBJ@@A+188
  0001b	8b 5d 0c	 mov	 ebx, DWORD PTR _gy$[ebp]
  0001e	66 90		 npad	 2
$LL4@checkCharO:

; 2068 : 		if( charObj[i].use != CHAROBJ_USE_FREE && charObj[i].ptAct != NULL ){

  00020	66 83 b8 44 ff
	ff ff 00	 cmp	 WORD PTR [eax-188], 0
  00028	74 28		 je	 SHORT $LN2@checkCharO
  0002a	8b 08		 mov	 ecx, DWORD PTR [eax]
  0002c	85 c9		 test	 ecx, ecx
  0002e	74 22		 je	 SHORT $LN2@checkCharO

; 2069 : 			if( charObj[i].ptAct->gx == gx && charObj[i].ptAct->gy == gy && (charObj[i].type & type) != 0 )

  00030	8b 75 08	 mov	 esi, DWORD PTR _gx$[ebp]
  00033	39 b1 b4 00 00
	00		 cmp	 DWORD PTR [ecx+180], esi
  00039	8b 35 00 00 00
	00		 mov	 esi, DWORD PTR ?tailCharObj@@3HA ; tailCharObj
  0003f	75 11		 jne	 SHORT $LN2@checkCharO
  00041	39 99 b8 00 00
	00		 cmp	 DWORD PTR [ecx+184], ebx
  00047	75 09		 jne	 SHORT $LN2@checkCharO
  00049	66 85 b8 46 ff
	ff ff		 test	 WORD PTR [eax-186], di
  00050	75 11		 jne	 SHORT $LN9@checkCharO
$LN2@checkCharO:

; 2065 : 	int i;
; 2066 : 	int no = -1;
; 2067 : 	for( i = 0; i < tailCharObj; i++ ){

  00052	42		 inc	 edx
  00053	05 0c 01 00 00	 add	 eax, 268		; 0000010cH
  00058	3b d6		 cmp	 edx, esi
  0005a	7c c4		 jl	 SHORT $LL4@checkCharO
$LN13@checkCharO:
  0005c	5f		 pop	 edi

; 2070 : 				return TRUE;
; 2071 : 		}
; 2072 : 	}
; 2073 : 	return FALSE;
; 2074 : }

  0005d	5e		 pop	 esi
  0005e	33 c0		 xor	 eax, eax
  00060	5b		 pop	 ebx
  00061	5d		 pop	 ebp
  00062	c3		 ret	 0
$LN9@checkCharO:
  00063	5f		 pop	 edi
  00064	5e		 pop	 esi
  00065	b8 01 00 00 00	 mov	 eax, 1
  0006a	5b		 pop	 ebx
  0006b	5d		 pop	 ebp
  0006c	c3		 ret	 0
?checkCharObjPoint@@YAHHHF@Z ENDP			; checkCharObjPoint
_TEXT	ENDS
; Function compile flags: /Ogtp
; File C:\Users\gg862\OneDrive\¹ÙÅÁ È­¸é\¸¾Äí¿Ï·á\Client Source Code1.31ÀÏº»\system\character.cpp
;	COMDAT ?setCharNameColor@@YAXPAUaction@@H@Z
_TEXT	SEGMENT
_ptAct$ = 8						; size = 4
_color$ = 12						; size = 4
?setCharNameColor@@YAXPAUaction@@H@Z PROC		; setCharNameColor, COMDAT

; 1588 : {

  00000	55		 push	 ebp
  00001	8b ec		 mov	 ebp, esp

; 1589 : 	CHAREXTRA *ext;
; 1590 : 	int no;
; 1591 : 	if( ptAct == NULL )

  00003	8b 55 08	 mov	 edx, DWORD PTR _ptAct$[ebp]
  00006	85 d2		 test	 edx, edx
  00008	74 1a		 je	 SHORT $LN1@setCharNam

; 1592 : 		return;
; 1593 : 	ext = (CHAREXTRA *)ptAct->pYobi;
; 1594 : 	no = ext->charObjTblId;

  0000a	8b 42 0c	 mov	 eax, DWORD PTR [edx+12]

; 1595 : 	ptAct->charNameColor = color;

  0000d	8b 4d 0c	 mov	 ecx, DWORD PTR _color$[ebp]
  00010	8b 00		 mov	 eax, DWORD PTR [eax]

; 1596 : 	charObj[no].charNameColor = color;

  00012	69 c0 0c 01 00
	00		 imul	 eax, eax, 268
  00018	89 8a 98 00 00
	00		 mov	 DWORD PTR [edx+152], ecx
  0001e	89 88 c0 00 00
	00		 mov	 DWORD PTR ?charObj@@3PAUCHAROBJ@@A[eax+192], ecx
$LN1@setCharNam:

; 1597 : }

  00024	5d		 pop	 ebp
  00025	c3		 ret	 0
?setCharNameColor@@YAXPAUaction@@H@Z ENDP		; setCharNameColor
_TEXT	ENDS
; Function compile flags: /Ogtp
; File C:\Users\gg862\OneDrive\¹ÙÅÁ È­¸é\¸¾Äí¿Ï·á\Client Source Code1.31ÀÏº»\system\character.cpp
;	COMDAT ?setCharFukidashi@@YAXPAUaction@@I@Z
_TEXT	SEGMENT
_ptAct$ = 8						; size = 4
_offTime$ = 12						; size = 4
?setCharFukidashi@@YAXPAUaction@@I@Z PROC		; setCharFukidashi, COMDAT

; 912  : {

  00000	55		 push	 ebp
  00001	8b ec		 mov	 ebp, esp

; 913  : 	CHAREXTRA *ext;
; 914  : 	int no;
; 915  : 	if( ptAct == NULL )

  00003	8b 45 08	 mov	 eax, DWORD PTR _ptAct$[ebp]
  00006	85 c0		 test	 eax, eax
  00008	74 28		 je	 SHORT $LN1@setCharFuk

; 916  : 		return;
; 917  : 	ext = (CHAREXTRA *)ptAct->pYobi;

  0000a	56		 push	 esi
  0000b	8b 70 0c	 mov	 esi, DWORD PTR [eax+12]

; 918  : 
; 919  : 	//JL fix å¯èƒ½å‡ºçŽ°0xdddddddd
; 920  : 	if ((int)ext == 0xdddddddd)

  0000e	81 fe dd dd dd
	dd		 cmp	 esi, -572662307		; ddddddddH
  00014	74 1b		 je	 SHORT $LN5@setCharFuk

; 921  : 	{
; 922  : 		return;
; 923  : 	}
; 924  : 
; 925  : 	no = ext->charObjTblId;
; 926  : 	charObj[no].status |= CHR_STATUS_FUKIDASHI;

  00016	69 06 0c 01 00
	00		 imul	 eax, DWORD PTR [esi], 268
  0001c	81 88 2c 00 00
	00 00 20 00 00	 or	 DWORD PTR ?charObj@@3PAUCHAROBJ@@A[eax+44], 8192 ; 00002000H

; 927  : 	ext->drawFukidashiTime = offTime + TimeGetTime();

  00026	e8 00 00 00 00	 call	 ?TimeGetTime@@YAIXZ	; TimeGetTime
  0002b	03 45 0c	 add	 eax, DWORD PTR _offTime$[ebp]
  0002e	89 46 04	 mov	 DWORD PTR [esi+4], eax
$LN5@setCharFuk:
  00031	5e		 pop	 esi
$LN1@setCharFuk:

; 928  : }

  00032	5d		 pop	 ebp
  00033	c3		 ret	 0
?setCharFukidashi@@YAXPAUaction@@I@Z ENDP		; setCharFukidashi
_TEXT	ENDS
; Function compile flags: /Ogtp
; File C:\Users\gg862\OneDrive\¹ÙÅÁ È­¸é\¸¾Äí¿Ï·á\Client Source Code1.31ÀÏº»\system\character.cpp
;	COMDAT ?delCharMind@@YAXPAUaction@@@Z
_TEXT	SEGMENT
_ptAct$ = 8						; size = 4
?delCharMind@@YAXPAUaction@@@Z PROC			; delCharMind, COMDAT

; 798  : 	CHAREXTRA *ext;	
; 799  : 	if( ptAct == NULL )
; 800  : 		return;
; 801  : 	ext = (CHAREXTRA *)ptAct->pYobi;	
; 802  : }

  00000	c2 00 00	 ret	 0
?delCharMind@@YAXPAUaction@@@Z ENDP			; delCharMind
_TEXT	ENDS
; Function compile flags: /Ogtp
; File C:\Users\gg862\OneDrive\¹ÙÅÁ È­¸é\¸¾Äí¿Ï·á\Client Source Code1.31ÀÏº»\system\character.cpp
;	COMDAT ?setCharMind@@YAXPAUaction@@H@Z
_TEXT	SEGMENT
_ptAct$ = 8						; size = 4
_MindNo$ = 12						; size = 4
?setCharMind@@YAXPAUaction@@H@Z PROC			; setCharMind, COMDAT

; 784  : {

  00000	55		 push	 ebp
  00001	8b ec		 mov	 ebp, esp
  00003	56		 push	 esi

; 785  : 	CHAREXTRA *ext;
; 786  : 	if( ptAct == NULL )

  00004	8b 75 08	 mov	 esi, DWORD PTR _ptAct$[ebp]
  00007	85 f6		 test	 esi, esi
  00009	74 45		 je	 SHORT $LN1@setCharMin

; 787  : 		return;
; 788  : 	ext = (CHAREXTRA *)ptAct->pYobi;

  0000b	53		 push	 ebx

; 789  : 	ptAct->sMindIcon = MindNo;

  0000c	8b 5d 0c	 mov	 ebx, DWORD PTR _MindNo$[ebp]
  0000f	57		 push	 edi
  00010	8b 7e 0c	 mov	 edi, DWORD PTR [esi+12]
  00013	89 9e c0 01 00
	00		 mov	 DWORD PTR [esi+448], ebx

; 790  : 	if(ext->ptMindIcon){

  00019	8b 47 10	 mov	 eax, DWORD PTR [edi+16]
  0001c	85 c0		 test	 eax, eax
  0001e	74 10		 je	 SHORT $LN3@setCharMin

; 791  : 		DeathAction( ext->ptMindIcon);

  00020	50		 push	 eax
  00021	e8 00 00 00 00	 call	 ?DeathAction@@YAXPAUaction@@@Z ; DeathAction
  00026	83 c4 04	 add	 esp, 4

; 792  : 		ext->ptMindIcon = NULL;

  00029	c7 47 10 00 00
	00 00		 mov	 DWORD PTR [edi+16], 0
$LN3@setCharMin:

; 793  : 	}
; 794  : 	ext->ptMindIcon = createCommmonEffectAction( MindNo, ptAct->gx, ptAct->gy, 0, 0, DISP_PRIO_CHAR);

  00030	6a 0a		 push	 10			; 0000000aH
  00032	6a 00		 push	 0
  00034	6a 00		 push	 0
  00036	ff b6 b8 00 00
	00		 push	 DWORD PTR [esi+184]
  0003c	ff b6 b4 00 00
	00		 push	 DWORD PTR [esi+180]
  00042	53		 push	 ebx
  00043	e8 00 00 00 00	 call	 ?createCommmonEffectAction@@YAPAUaction@@HHHHHH@Z ; createCommmonEffectAction
  00048	83 c4 18	 add	 esp, 24			; 00000018H
  0004b	89 47 10	 mov	 DWORD PTR [edi+16], eax
  0004e	5f		 pop	 edi
  0004f	5b		 pop	 ebx
$LN1@setCharMin:
  00050	5e		 pop	 esi

; 795  : }

  00051	5d		 pop	 ebp
  00052	c3		 ret	 0
?setCharMind@@YAXPAUaction@@H@Z ENDP			; setCharMind
_TEXT	ENDS
; Function compile flags: /Ogtp
; File C:\Users\gg862\OneDrive\¹ÙÅÁ È­¸é\¸¾Äí¿Ï·á\Client Source Code1.31ÀÏº»\system\character.cpp
;	COMDAT ?delCharAngel@@YAXPAUaction@@@Z
_TEXT	SEGMENT
_ptAct$ = 8						; size = 4
?delCharAngel@@YAXPAUaction@@@Z PROC			; delCharAngel, COMDAT

; 874  : {

  00000	55		 push	 ebp
  00001	8b ec		 mov	 ebp, esp

; 875  : 	CHAREXTRA *ext;
; 876  : 	int no;
; 877  : 	if( ptAct == NULL )

  00003	8b 45 08	 mov	 eax, DWORD PTR _ptAct$[ebp]
  00006	85 c0		 test	 eax, eax
  00008	74 15		 je	 SHORT $LN1@delCharAng

; 878  : 		return;
; 879  : 	ext = (CHAREXTRA *)ptAct->pYobi;
; 880  : 	no = ext->charObjTblId;

  0000a	8b 40 0c	 mov	 eax, DWORD PTR [eax+12]
  0000d	8b 00		 mov	 eax, DWORD PTR [eax]

; 881  : 	charObj[no].status &= ~CHR_STATUS_ANGEL;

  0000f	69 c0 0c 01 00
	00		 imul	 eax, eax, 268
  00015	81 a0 2c 00 00
	00 ff ff fe ff	 and	 DWORD PTR ?charObj@@3PAUCHAROBJ@@A[eax+44], -65537 ; fffeffffH
$LN1@delCharAng:

; 882  : }

  0001f	5d		 pop	 ebp
  00020	c3		 ret	 0
?delCharAngel@@YAXPAUaction@@@Z ENDP			; delCharAngel
_TEXT	ENDS
; Function compile flags: /Ogtp
; File C:\Users\gg862\OneDrive\¹ÙÅÁ È­¸é\¸¾Äí¿Ï·á\Client Source Code1.31ÀÏº»\system\character.cpp
;	COMDAT ?setCharAngel@@YAXPAUaction@@@Z
_TEXT	SEGMENT
_ptAct$ = 8						; size = 4
?setCharAngel@@YAXPAUaction@@@Z PROC			; setCharAngel, COMDAT

; 863  : {

  00000	55		 push	 ebp
  00001	8b ec		 mov	 ebp, esp

; 864  : 	CHAREXTRA *ext;
; 865  : 	int no;
; 866  : 	if( ptAct == NULL )

  00003	8b 45 08	 mov	 eax, DWORD PTR _ptAct$[ebp]
  00006	85 c0		 test	 eax, eax
  00008	74 15		 je	 SHORT $LN1@setCharAng

; 867  : 		return;
; 868  : 	ext = (CHAREXTRA *)ptAct->pYobi;
; 869  : 	no = ext->charObjTblId;

  0000a	8b 40 0c	 mov	 eax, DWORD PTR [eax+12]
  0000d	8b 00		 mov	 eax, DWORD PTR [eax]

; 870  : 	charObj[no].status |= CHR_STATUS_ANGEL;

  0000f	69 c0 0c 01 00
	00		 imul	 eax, eax, 268
  00015	81 88 2c 00 00
	00 00 00 01 00	 or	 DWORD PTR ?charObj@@3PAUCHAROBJ@@A[eax+44], 65536 ; 00010000H
$LN1@setCharAng:

; 871  : }

  0001f	5d		 pop	 ebp
  00020	c3		 ret	 0
?setCharAngel@@YAXPAUaction@@@Z ENDP			; setCharAngel
_TEXT	ENDS
; Function compile flags: /Ogtp
; File C:\Users\gg862\OneDrive\¹ÙÅÁ È­¸é\¸¾Äí¿Ï·á\Client Source Code1.31ÀÏº»\system\character.cpp
;	COMDAT ?delCharUseMagic@@YAXPAUaction@@@Z
_TEXT	SEGMENT
_ptAct$ = 8						; size = 4
?delCharUseMagic@@YAXPAUaction@@@Z PROC			; delCharUseMagic, COMDAT

; 900  : {

  00000	55		 push	 ebp
  00001	8b ec		 mov	 ebp, esp

; 901  : 	CHAREXTRA *ext;
; 902  : 	int no;
; 903  : 	if( ptAct == NULL )

  00003	8b 45 08	 mov	 eax, DWORD PTR _ptAct$[ebp]
  00006	85 c0		 test	 eax, eax
  00008	74 15		 je	 SHORT $LN1@delCharUse

; 904  : 		return;
; 905  : 	ext = (CHAREXTRA *)ptAct->pYobi;
; 906  : 	no = ext->charObjTblId;

  0000a	8b 40 0c	 mov	 eax, DWORD PTR [eax+12]
  0000d	8b 00		 mov	 eax, DWORD PTR [eax]

; 907  : 	charObj[no].status &= (~CHR_STATUS_USE_MAGIC);

  0000f	69 c0 0c 01 00
	00		 imul	 eax, eax, 268
  00015	81 a0 2c 00 00
	00 ff f7 ff ff	 and	 DWORD PTR ?charObj@@3PAUCHAROBJ@@A[eax+44], -2049 ; fffff7ffH
$LN1@delCharUse:

; 908  : }

  0001f	5d		 pop	 ebp
  00020	c3		 ret	 0
?delCharUseMagic@@YAXPAUaction@@@Z ENDP			; delCharUseMagic
_TEXT	ENDS
; Function compile flags: /Ogtp
; File C:\Users\gg862\OneDrive\¹ÙÅÁ È­¸é\¸¾Äí¿Ï·á\Client Source Code1.31ÀÏº»\system\character.cpp
;	COMDAT ?setCharUseMagic@@YAXPAUaction@@@Z
_TEXT	SEGMENT
_ptAct$ = 8						; size = 4
?setCharUseMagic@@YAXPAUaction@@@Z PROC			; setCharUseMagic, COMDAT

; 887  : {

  00000	55		 push	 ebp
  00001	8b ec		 mov	 ebp, esp

; 888  : 	CHAREXTRA *ext;
; 889  : 	int no;
; 890  : 	if( ptAct == NULL )

  00003	8b 45 08	 mov	 eax, DWORD PTR _ptAct$[ebp]
  00006	85 c0		 test	 eax, eax
  00008	74 15		 je	 SHORT $LN1@setCharUse

; 891  : 		return;
; 892  : 	ext = (CHAREXTRA *)ptAct->pYobi;
; 893  : 	no = ext->charObjTblId;

  0000a	8b 40 0c	 mov	 eax, DWORD PTR [eax+12]
  0000d	8b 00		 mov	 eax, DWORD PTR [eax]

; 894  : 	charObj[no].status |= CHR_STATUS_USE_MAGIC;

  0000f	69 c0 0c 01 00
	00		 imul	 eax, eax, 268
  00015	81 88 2c 00 00
	00 00 08 00 00	 or	 DWORD PTR ?charObj@@3PAUCHAROBJ@@A[eax+44], 2048 ; 00000800H
$LN1@setCharUse:

; 895  : }

  0001f	5d		 pop	 ebp
  00020	c3		 ret	 0
?setCharUseMagic@@YAXPAUaction@@@Z ENDP			; setCharUseMagic
_TEXT	ENDS
; Function compile flags: /Ogtp
; File C:\Users\gg862\OneDrive\¹ÙÅÁ È­¸é\¸¾Äí¿Ï·á\Client Source Code1.31ÀÏº»\system\character.cpp
;	COMDAT ?delCharTrade@@YAXPAUaction@@@Z
_TEXT	SEGMENT
_ptAct$ = 8						; size = 4
?delCharTrade@@YAXPAUaction@@@Z PROC			; delCharTrade, COMDAT

; 851  : {

  00000	55		 push	 ebp
  00001	8b ec		 mov	 ebp, esp

; 852  : 	CHAREXTRA *ext;
; 853  : 	int no;
; 854  : 	if( ptAct == NULL )

  00003	8b 45 08	 mov	 eax, DWORD PTR _ptAct$[ebp]
  00006	85 c0		 test	 eax, eax
  00008	74 15		 je	 SHORT $LN1@delCharTra

; 855  : 		return;
; 856  : 	ext = (CHAREXTRA *)ptAct->pYobi;
; 857  : 	no = ext->charObjTblId;

  0000a	8b 40 0c	 mov	 eax, DWORD PTR [eax+12]
  0000d	8b 00		 mov	 eax, DWORD PTR [eax]

; 858  : 	charObj[no].status &= (~CHR_STATUS_TRADE|CHR_STATUS_LEADER);

  0000f	69 c0 0c 01 00
	00		 imul	 eax, eax, 268
  00015	81 a0 2c 00 00
	00 ff 7f ff ff	 and	 DWORD PTR ?charObj@@3PAUCHAROBJ@@A[eax+44], -32769 ; ffff7fffH
$LN1@delCharTra:

; 859  : }

  0001f	5d		 pop	 ebp
  00020	c3		 ret	 0
?delCharTrade@@YAXPAUaction@@@Z ENDP			; delCharTrade
_TEXT	ENDS
; Function compile flags: /Ogtp
; File C:\Users\gg862\OneDrive\¹ÙÅÁ È­¸é\¸¾Äí¿Ï·á\Client Source Code1.31ÀÏº»\system\character.cpp
;	COMDAT ?setCharTrade@@YAXPAUaction@@H@Z
_TEXT	SEGMENT
_ptAct$ = 8						; size = 4
_battleNo$ = 12						; size = 4
?setCharTrade@@YAXPAUaction@@H@Z PROC			; setCharTrade, COMDAT

; 838  : {

  00000	55		 push	 ebp
  00001	8b ec		 mov	 ebp, esp

; 839  : 	CHAREXTRA *ext;
; 840  : 	int no;
; 841  : 	if( ptAct == NULL )

  00003	8b 45 08	 mov	 eax, DWORD PTR _ptAct$[ebp]
  00006	85 c0		 test	 eax, eax
  00008	74 15		 je	 SHORT $LN1@setCharTra

; 842  : 		return;
; 843  : 	ext = (CHAREXTRA *)ptAct->pYobi;
; 844  : 	no = ext->charObjTblId;

  0000a	8b 40 0c	 mov	 eax, DWORD PTR [eax+12]
  0000d	8b 00		 mov	 eax, DWORD PTR [eax]

; 845  : 	charObj[no].status |= CHR_STATUS_TRADE;

  0000f	69 c0 0c 01 00
	00		 imul	 eax, eax, 268
  00015	81 88 2c 00 00
	00 00 80 00 00	 or	 DWORD PTR ?charObj@@3PAUCHAROBJ@@A[eax+44], 32768 ; 00008000H
$LN1@setCharTra:

; 846  : 	//charObj[no].battleNo = battleNo;
; 847  : }

  0001f	5d		 pop	 ebp
  00020	c3		 ret	 0
?setCharTrade@@YAXPAUaction@@H@Z ENDP			; setCharTrade
_TEXT	ENDS
; Function compile flags: /Ogtp
; File C:\Users\gg862\OneDrive\¹ÙÅÁ È­¸é\¸¾Äí¿Ï·á\Client Source Code1.31ÀÏº»\system\character.cpp
;	COMDAT ?delCharBattle@@YAXPAUaction@@@Z
_TEXT	SEGMENT
_ptAct$ = 8						; size = 4
?delCharBattle@@YAXPAUaction@@@Z PROC			; delCharBattle, COMDAT

; 825  : {

  00000	55		 push	 ebp
  00001	8b ec		 mov	 ebp, esp

; 826  : 	CHAREXTRA *ext;
; 827  : 	int no;
; 828  : 	if( ptAct == NULL )

  00003	8b 45 08	 mov	 eax, DWORD PTR _ptAct$[ebp]
  00006	85 c0		 test	 eax, eax
  00008	74 15		 je	 SHORT $LN1@delCharBat

; 829  : 		return;
; 830  : 	ext = (CHAREXTRA *)ptAct->pYobi;
; 831  : 	no = ext->charObjTblId;

  0000a	8b 40 0c	 mov	 eax, DWORD PTR [eax+12]
  0000d	8b 00		 mov	 eax, DWORD PTR [eax]

; 832  : 	charObj[no].status &= (~(CHR_STATUS_BATTLE | CHR_STATUS_HELP));

  0000f	69 c0 0c 01 00
	00		 imul	 eax, eax, 268
  00015	81 a0 2c 00 00
	00 ff eb ff ff	 and	 DWORD PTR ?charObj@@3PAUCHAROBJ@@A[eax+44], -5121 ; ffffebffH
$LN1@delCharBat:

; 833  : }

  0001f	5d		 pop	 ebp
  00020	c3		 ret	 0
?delCharBattle@@YAXPAUaction@@@Z ENDP			; delCharBattle
_TEXT	ENDS
; Function compile flags: /Ogtp
; File C:\Users\gg862\OneDrive\¹ÙÅÁ È­¸é\¸¾Äí¿Ï·á\Client Source Code1.31ÀÏº»\system\character.cpp
;	COMDAT ?setCharBattle@@YAXPAUaction@@HFF@Z
_TEXT	SEGMENT
_ptAct$ = 8						; size = 4
_battleNo$ = 12						; size = 4
_sideNo$ = 16						; size = 2
_helpMode$ = 20						; size = 2
?setCharBattle@@YAXPAUaction@@HFF@Z PROC		; setCharBattle, COMDAT

; 806  : {

  00000	55		 push	 ebp
  00001	8b ec		 mov	 ebp, esp

; 807  : 	CHAREXTRA *ext;
; 808  : 	int no;
; 809  : 	if( ptAct == NULL )

  00003	8b 45 08	 mov	 eax, DWORD PTR _ptAct$[ebp]
  00006	85 c0		 test	 eax, eax
  00008	74 55		 je	 SHORT $LN4@setCharBat

; 810  : 		return;
; 811  : 	ext = (CHAREXTRA *)ptAct->pYobi;
; 812  : 	no = ext->charObjTblId;

  0000a	8b 40 0c	 mov	 eax, DWORD PTR [eax+12]
  0000d	8b 00		 mov	 eax, DWORD PTR [eax]

; 813  : 	charObj[no].status |= CHR_STATUS_BATTLE;

  0000f	69 d0 0c 01 00
	00		 imul	 edx, eax, 268

; 814  : 	charObj[no].battleNo = battleNo;

  00015	8b 45 0c	 mov	 eax, DWORD PTR _battleNo$[ebp]
  00018	8b 8a 2c 00 00
	00		 mov	 ecx, DWORD PTR ?charObj@@3PAUCHAROBJ@@A[edx+44]
  0001e	89 82 ac 00 00
	00		 mov	 DWORD PTR ?charObj@@3PAUCHAROBJ@@A[edx+172], eax
  00024	81 c9 00 04 00
	00		 or	 ecx, 1024		; 00000400H

; 815  : 	charObj[no].sideNo = sideNo;

  0002a	66 8b 45 10	 mov	 ax, WORD PTR _sideNo$[ebp]
  0002e	66 89 82 b0 00
	00 00		 mov	 WORD PTR ?charObj@@3PAUCHAROBJ@@A[edx+176], ax

; 816  : 	charObj[no].helpMode = helpMode;

  00035	66 8b 45 14	 mov	 ax, WORD PTR _helpMode$[ebp]
  00039	66 89 82 b2 00
	00 00		 mov	 WORD PTR ?charObj@@3PAUCHAROBJ@@A[edx+178], ax

; 817  : 	if( helpMode )

  00040	66 85 c0	 test	 ax, ax
  00043	74 0e		 je	 SHORT $LN3@setCharBat

; 818  : 		charObj[no].status |= CHR_STATUS_HELP;

  00045	81 c9 00 10 00
	00		 or	 ecx, 4096		; 00001000H

; 821  : }

  0004b	89 8a 2c 00 00
	00		 mov	 DWORD PTR ?charObj@@3PAUCHAROBJ@@A[edx+44], ecx
  00051	5d		 pop	 ebp
  00052	c3		 ret	 0
$LN3@setCharBat:

; 819  : 	else
; 820  : 		charObj[no].status &= ~CHR_STATUS_HELP;

  00053	81 e1 ff ef ff
	ff		 and	 ecx, -4097		; ffffefffH

; 821  : }

  00059	89 8a 2c 00 00
	00		 mov	 DWORD PTR ?charObj@@3PAUCHAROBJ@@A[edx+44], ecx
$LN4@setCharBat:
  0005f	5d		 pop	 ebp
  00060	c3		 ret	 0
?setCharBattle@@YAXPAUaction@@HFF@Z ENDP		; setCharBattle
_TEXT	ENDS
; Function compile flags: /Ogtp
; File C:\Users\gg862\OneDrive\¹ÙÅÁ È­¸é\¸¾Äí¿Ï·á\Client Source Code1.31ÀÏº»\system\character.cpp
;	COMDAT ?delCharWatch@@YAXPAUaction@@@Z
_TEXT	SEGMENT
_ptAct$ = 8						; size = 4
?delCharWatch@@YAXPAUaction@@@Z PROC			; delCharWatch, COMDAT

; 773  : {

  00000	55		 push	 ebp
  00001	8b ec		 mov	 ebp, esp

; 774  : 	CHAREXTRA *ext;
; 775  : 	int no;
; 776  : 	if( ptAct == NULL )

  00003	8b 45 08	 mov	 eax, DWORD PTR _ptAct$[ebp]
  00006	85 c0		 test	 eax, eax
  00008	74 15		 je	 SHORT $LN1@delCharWat

; 777  : 		return;
; 778  : 	ext = (CHAREXTRA *)ptAct->pYobi;
; 779  : 	no = ext->charObjTblId;

  0000a	8b 40 0c	 mov	 eax, DWORD PTR [eax+12]
  0000d	8b 00		 mov	 eax, DWORD PTR [eax]

; 780  : 	charObj[no].status &= (~CHR_STATUS_WATCH);

  0000f	69 c0 0c 01 00
	00		 imul	 eax, eax, 268
  00015	81 a0 2c 00 00
	00 ff bf ff ff	 and	 DWORD PTR ?charObj@@3PAUCHAROBJ@@A[eax+44], -16385 ; ffffbfffH
$LN1@delCharWat:

; 781  : }

  0001f	5d		 pop	 ebp
  00020	c3		 ret	 0
?delCharWatch@@YAXPAUaction@@@Z ENDP			; delCharWatch
_TEXT	ENDS
; Function compile flags: /Ogtp
; File C:\Users\gg862\OneDrive\¹ÙÅÁ È­¸é\¸¾Äí¿Ï·á\Client Source Code1.31ÀÏº»\system\character.cpp
;	COMDAT ?setCharWatch@@YAXPAUaction@@@Z
_TEXT	SEGMENT
_ptAct$ = 8						; size = 4
?setCharWatch@@YAXPAUaction@@@Z PROC			; setCharWatch, COMDAT

; 761  : {

  00000	55		 push	 ebp
  00001	8b ec		 mov	 ebp, esp

; 762  : 	CHAREXTRA *ext;
; 763  : 	int no;
; 764  : 	if( ptAct == NULL )

  00003	8b 45 08	 mov	 eax, DWORD PTR _ptAct$[ebp]
  00006	85 c0		 test	 eax, eax
  00008	74 15		 je	 SHORT $LN1@setCharWat

; 765  : 		return;
; 766  : 	ext = (CHAREXTRA *)ptAct->pYobi;
; 767  : 	no = ext->charObjTblId;

  0000a	8b 40 0c	 mov	 eax, DWORD PTR [eax+12]
  0000d	8b 00		 mov	 eax, DWORD PTR [eax]

; 768  : 	charObj[no].status |= CHR_STATUS_WATCH;

  0000f	69 c0 0c 01 00
	00		 imul	 eax, eax, 268
  00015	81 88 2c 00 00
	00 00 40 00 00	 or	 DWORD PTR ?charObj@@3PAUCHAROBJ@@A[eax+44], 16384 ; 00004000H
$LN1@setCharWat:

; 769  : }

  0001f	5d		 pop	 ebp
  00020	c3		 ret	 0
?setCharWatch@@YAXPAUaction@@@Z ENDP			; setCharWatch
_TEXT	ENDS
; Function compile flags: /Ogtp
; File C:\Users\gg862\OneDrive\¹ÙÅÁ È­¸é\¸¾Äí¿Ï·á\Client Source Code1.31ÀÏº»\system\character.cpp
;	COMDAT ?delCharParty@@YAXPAUaction@@@Z
_TEXT	SEGMENT
_ptAct$ = 8						; size = 4
?delCharParty@@YAXPAUaction@@@Z PROC			; delCharParty, COMDAT

; 749  : {

  00000	55		 push	 ebp
  00001	8b ec		 mov	 ebp, esp

; 750  : 	CHAREXTRA *ext;
; 751  : 	int no;
; 752  : 	if( ptAct == NULL )

  00003	8b 45 08	 mov	 eax, DWORD PTR _ptAct$[ebp]
  00006	85 c0		 test	 eax, eax
  00008	74 15		 je	 SHORT $LN1@delCharPar

; 753  : 		return;
; 754  : 	ext = (CHAREXTRA *)ptAct->pYobi;
; 755  : 	no = ext->charObjTblId;

  0000a	8b 40 0c	 mov	 eax, DWORD PTR [eax+12]
  0000d	8b 00		 mov	 eax, DWORD PTR [eax]

; 756  : 	charObj[no].status &= (~CHR_STATUS_PARTY);

  0000f	69 c0 0c 01 00
	00		 imul	 eax, eax, 268
  00015	81 a0 2c 00 00
	00 ff fd ff ff	 and	 DWORD PTR ?charObj@@3PAUCHAROBJ@@A[eax+44], -513 ; fffffdffH
$LN1@delCharPar:

; 757  : }

  0001f	5d		 pop	 ebp
  00020	c3		 ret	 0
?delCharParty@@YAXPAUaction@@@Z ENDP			; delCharParty
_TEXT	ENDS
; Function compile flags: /Ogtp
; File C:\Users\gg862\OneDrive\¹ÙÅÁ È­¸é\¸¾Äí¿Ï·á\Client Source Code1.31ÀÏº»\system\character.cpp
;	COMDAT ?setCharParty@@YAXPAUaction@@@Z
_TEXT	SEGMENT
_ptAct$ = 8						; size = 4
?setCharParty@@YAXPAUaction@@@Z PROC			; setCharParty, COMDAT

; 737  : {

  00000	55		 push	 ebp
  00001	8b ec		 mov	 ebp, esp

; 738  : 	CHAREXTRA *ext;
; 739  : 	int no;
; 740  : 	if( ptAct == NULL )

  00003	8b 45 08	 mov	 eax, DWORD PTR _ptAct$[ebp]
  00006	85 c0		 test	 eax, eax
  00008	74 15		 je	 SHORT $LN1@setCharPar

; 741  : 		return;
; 742  : 	ext = (CHAREXTRA *)ptAct->pYobi;
; 743  : 	no = ext->charObjTblId;

  0000a	8b 40 0c	 mov	 eax, DWORD PTR [eax+12]
  0000d	8b 00		 mov	 eax, DWORD PTR [eax]

; 744  : 	charObj[no].status |= CHR_STATUS_PARTY;

  0000f	69 c0 0c 01 00
	00		 imul	 eax, eax, 268
  00015	81 88 2c 00 00
	00 00 02 00 00	 or	 DWORD PTR ?charObj@@3PAUCHAROBJ@@A[eax+44], 512 ; 00000200H
$LN1@setCharPar:

; 745  : }

  0001f	5d		 pop	 ebp
  00020	c3		 ret	 0
?setCharParty@@YAXPAUaction@@@Z ENDP			; setCharParty
_TEXT	ENDS
; Function compile flags: /Ogtp
; File C:\Users\gg862\OneDrive\¹ÙÅÁ È­¸é\¸¾Äí¿Ï·á\Client Source Code1.31ÀÏº»\system\character.cpp
;	COMDAT ?delCharLeader@@YAXPAUaction@@@Z
_TEXT	SEGMENT
_ptAct$ = 8						; size = 4
?delCharLeader@@YAXPAUaction@@@Z PROC			; delCharLeader, COMDAT

; 725  : {

  00000	55		 push	 ebp
  00001	8b ec		 mov	 ebp, esp

; 726  : 	CHAREXTRA *ext;
; 727  : 	int no;
; 728  : 	if( ptAct == NULL )

  00003	8b 45 08	 mov	 eax, DWORD PTR _ptAct$[ebp]
  00006	85 c0		 test	 eax, eax
  00008	74 15		 je	 SHORT $LN1@delCharLea

; 729  : 		return;
; 730  : 	ext = (CHAREXTRA *)ptAct->pYobi;
; 731  : 	no = ext->charObjTblId;

  0000a	8b 40 0c	 mov	 eax, DWORD PTR [eax+12]
  0000d	8b 00		 mov	 eax, DWORD PTR [eax]

; 732  : 	charObj[no].status &= (~CHR_STATUS_LEADER);

  0000f	69 c0 0c 01 00
	00		 imul	 eax, eax, 268
  00015	81 a0 2c 00 00
	00 ff fe ff ff	 and	 DWORD PTR ?charObj@@3PAUCHAROBJ@@A[eax+44], -257 ; fffffeffH
$LN1@delCharLea:

; 733  : }

  0001f	5d		 pop	 ebp
  00020	c3		 ret	 0
?delCharLeader@@YAXPAUaction@@@Z ENDP			; delCharLeader
_TEXT	ENDS
; Function compile flags: /Ogtp
; File C:\Users\gg862\OneDrive\¹ÙÅÁ È­¸é\¸¾Äí¿Ï·á\Client Source Code1.31ÀÏº»\system\character.cpp
;	COMDAT ?setCharLeader@@YAXPAUaction@@@Z
_TEXT	SEGMENT
_ptAct$ = 8						; size = 4
?setCharLeader@@YAXPAUaction@@@Z PROC			; setCharLeader, COMDAT

; 713  : {

  00000	55		 push	 ebp
  00001	8b ec		 mov	 ebp, esp

; 714  : 	CHAREXTRA *ext;
; 715  : 	int no;
; 716  : 	if( ptAct == NULL )

  00003	8b 45 08	 mov	 eax, DWORD PTR _ptAct$[ebp]
  00006	85 c0		 test	 eax, eax
  00008	74 15		 je	 SHORT $LN1@setCharLea

; 717  : 		return;
; 718  : 	ext = (CHAREXTRA *)ptAct->pYobi;
; 719  : 	no = ext->charObjTblId;

  0000a	8b 40 0c	 mov	 eax, DWORD PTR [eax+12]
  0000d	8b 00		 mov	 eax, DWORD PTR [eax]

; 720  : 	charObj[no].status |= CHR_STATUS_LEADER;

  0000f	69 c0 0c 01 00
	00		 imul	 eax, eax, 268
  00015	81 88 2c 00 00
	00 00 01 00 00	 or	 DWORD PTR ?charObj@@3PAUCHAROBJ@@A[eax+44], 256 ; 00000100H
$LN1@setCharLea:

; 721  : }

  0001f	5d		 pop	 ebp
  00020	c3		 ret	 0
?setCharLeader@@YAXPAUaction@@@Z ENDP			; setCharLeader
_TEXT	ENDS
; Function compile flags: /Ogtp
; File C:\Users\gg862\OneDrive\¹ÙÅÁ È­¸é\¸¾Äí¿Ï·á\Client Source Code1.31ÀÏº»\system\character.cpp
;	COMDAT ?changeCharAct@@YAXPAUaction@@HHHHHHH@Z
_TEXT	SEGMENT
tv1404 = -8						; size = 4
tv1383 = -8						; size = 4
_no$1$ = -4						; size = 4
_ptAct$ = 8						; size = 4
_x$ = 12						; size = 4
_y$ = 16						; size = 4
_dir$ = 20						; size = 4
_action$ = 24						; size = 4
_effectno$ = 28						; size = 4
_effectparam1$ = 32					; size = 4
_effectparam2$ = 36					; size = 4
?changeCharAct@@YAXPAUaction@@HHHHHHH@Z PROC		; changeCharAct, COMDAT

; 1692 : {

  00000	55		 push	 ebp
  00001	8b ec		 mov	 ebp, esp
  00003	83 ec 08	 sub	 esp, 8
  00006	56		 push	 esi

; 1693 : 	CHAREXTRA *ext;
; 1694 : 	int no;
; 1695 : 	int i;
; 1696 : 	if( ptAct == NULL )

  00007	8b 75 08	 mov	 esi, DWORD PTR _ptAct$[ebp]
  0000a	85 f6		 test	 esi, esi
  0000c	0f 84 9c 06 00
	00		 je	 $LN91@changeChar

; 1697 : 		return;
; 1698 : 	ext = (CHAREXTRA *)ptAct->pYobi;

  00012	57		 push	 edi
  00013	8b 7e 0c	 mov	 edi, DWORD PTR [esi+12]

; 1699 : 	if ((int)ext == 0xdddddddd)

  00016	81 ff dd dd dd
	dd		 cmp	 edi, -572662307		; ddddddddH
  0001c	0f 84 8b 06 00
	00		 je	 $LN117@changeChar

; 1700 : 	{
; 1701 : 		return;
; 1702 : 	}
; 1703 : 	no = ext->charObjTblId;
; 1704 : 	switch( action ){

  00022	8b 45 18	 mov	 eax, DWORD PTR _action$[ebp]
  00025	8b 0f		 mov	 ecx, DWORD PTR [edi]
  00027	89 4d fc	 mov	 DWORD PTR _no$1$[ebp], ecx
  0002a	83 f8 3d	 cmp	 eax, 61			; 0000003dH
  0002d	0f 87 7a 06 00
	00		 ja	 $LN117@changeChar
  00033	0f b6 80 00 00
	00 00		 movzx	 eax, BYTE PTR $LN113@changeChar[eax]
  0003a	53		 push	 ebx
  0003b	8b 5d 10	 mov	 ebx, DWORD PTR _y$[ebp]
  0003e	ff 24 85 00 00
	00 00		 jmp	 DWORD PTR $LN114@changeChar[eax*4]
$LN9@changeChar:

; 1705 : 		case 0:
; 1706 : 			ptAct->bufCount = 0;

  00045	33 c0		 xor	 eax, eax
  00047	66 89 86 14 01
	00 00		 mov	 WORD PTR [esi+276], ax
$LN50@changeChar:

; 1707 : 			ptAct->anim_no = ANIM_STAND;

  0004e	c7 86 4c 01 00
	00 03 00 00 00	 mov	 DWORD PTR [esi+332], 3
$LN127@changeChar:

; 1708 : 			ptAct->anim_no_bak = -1;
; 1709 : 			ptAct->anim_ang = dir;

  00058	8b 45 14	 mov	 eax, DWORD PTR _dir$[ebp]
  0005b	5b		 pop	 ebx
  0005c	5f		 pop	 edi
  0005d	c7 86 50 01 00
	00 ff ff ff ff	 mov	 DWORD PTR [esi+336], -1
  00067	89 86 54 01 00
	00		 mov	 DWORD PTR [esi+340], eax
  0006d	5e		 pop	 esi

; 2027 : 				}
; 2028 : 			}
; 2029 : 			break;
; 2030 : #endif
; 2031 : 
; 2032 : 
; 2033 : 	}//ITEM_AURA_
; 2034 : }

  0006e	8b e5		 mov	 esp, ebp
  00070	5d		 pop	 ebp
  00071	c3		 ret	 0
$LN10@changeChar:

; 1710 : 			break;
; 1711 : #ifdef _SHOWFAMILYBADGE_
; 1712 : 		case 43:
; 1713 : 			if (effectno > 0) {

  00072	8b 45 1c	 mov	 eax, DWORD PTR _effectno$[ebp]
  00075	85 c0		 test	 eax, eax
  00077	7e 18		 jle	 SHORT $LN14@changeChar
$LN128@changeChar:

; 1714 : 				setCharmTitle(ptAct, effectno);

  00079	50		 push	 eax
  0007a	56		 push	 esi
  0007b	e8 00 00 00 00	 call	 ?setCharmTitle@@YAXPAUaction@@H@Z ; setCharmTitle
  00080	83 c4 08	 add	 esp, 8
  00083	5b		 pop	 ebx
  00084	5f		 pop	 edi
  00085	5e		 pop	 esi

; 2027 : 				}
; 2028 : 			}
; 2029 : 			break;
; 2030 : #endif
; 2031 : 
; 2032 : 
; 2033 : 	}//ITEM_AURA_
; 2034 : }

  00086	8b e5		 mov	 esp, ebp
  00088	5d		 pop	 ebp
  00089	c3		 ret	 0
$LN13@changeChar:

; 1715 : 			}
; 1716 : 			else
; 1717 : 				delCharmTitle(ptAct);
; 1718 : 			break;
; 1719 : #endif
; 1720 : #ifdef FAMILY_MANOR_
; 1721 : 		case 44:
; 1722 : 			if (effectno >= 0) {
; 1723 : 				if (pc.familyName[0])
; 1724 : 					setCharmFamily(ptAct, effectno);
; 1725 : 			}
; 1726 : 			else
; 1727 : 				delCharmFamily(ptAct);
; 1728 : 			break;
; 1729 : #endif
; 1730 : #ifdef äººç‰©ç§°å·
; 1731 : 		case 45:
; 1732 : 			if (effectno >= 0) {

  0008a	8b 45 1c	 mov	 eax, DWORD PTR _effectno$[ebp]
  0008d	85 c0		 test	 eax, eax
  0008f	79 e8		 jns	 SHORT $LN128@changeChar
$LN14@changeChar:

; 1733 : 				setCharmTitle(ptAct, effectno);
; 1734 : 			}
; 1735 : 			else
; 1736 : 				delCharmTitle(ptAct);

  00091	56		 push	 esi
  00092	e8 00 00 00 00	 call	 ?delCharmTitle@@YAXPAUaction@@@Z ; delCharmTitle
  00097	83 c4 04	 add	 esp, 4
  0009a	5b		 pop	 ebx
  0009b	5f		 pop	 edi
  0009c	5e		 pop	 esi

; 2027 : 				}
; 2028 : 			}
; 2029 : 			break;
; 2030 : #endif
; 2031 : 
; 2032 : 
; 2033 : 	}//ITEM_AURA_
; 2034 : }

  0009d	8b e5		 mov	 esp, ebp
  0009f	5d		 pop	 ebp
  000a0	c3		 ret	 0
$LN16@changeChar:

; 1737 : 			break;
; 1738 : #endif
; 1739 : #ifdef äººç‰©å…‰çŽ¯
; 1740 : 		case 46:
; 1741 : 			if (effectno > 0) {

  000a1	8b 45 1c	 mov	 eax, DWORD PTR _effectno$[ebp]
  000a4	85 c0		 test	 eax, eax
  000a6	7e 11		 jle	 SHORT $LN17@changeChar

; 1742 : 				setCharmManor(ptAct, effectno);

  000a8	50		 push	 eax
  000a9	56		 push	 esi
  000aa	e8 00 00 00 00	 call	 ?setCharmManor@@YAXPAUaction@@H@Z ; setCharmManor
  000af	83 c4 08	 add	 esp, 8
  000b2	5b		 pop	 ebx
  000b3	5f		 pop	 edi
  000b4	5e		 pop	 esi

; 2027 : 				}
; 2028 : 			}
; 2029 : 			break;
; 2030 : #endif
; 2031 : 
; 2032 : 
; 2033 : 	}//ITEM_AURA_
; 2034 : }

  000b5	8b e5		 mov	 esp, ebp
  000b7	5d		 pop	 ebp
  000b8	c3		 ret	 0
$LN17@changeChar:

; 1743 : 			}
; 1744 : 			else
; 1745 : 				delCharmManor(ptAct);

  000b9	56		 push	 esi
  000ba	e8 00 00 00 00	 call	 ?delCharmManor@@YAXPAUaction@@@Z ; delCharmManor
  000bf	83 c4 04	 add	 esp, 4
  000c2	5b		 pop	 ebx
  000c3	5f		 pop	 edi
  000c4	5e		 pop	 esi

; 2027 : 				}
; 2028 : 			}
; 2029 : 			break;
; 2030 : #endif
; 2031 : 
; 2032 : 
; 2033 : 	}//ITEM_AURA_
; 2034 : }

  000c5	8b e5		 mov	 esp, ebp
  000c7	5d		 pop	 ebp
  000c8	c3		 ret	 0
$LN19@changeChar:

; 1746 : 			break;
; 1747 : #endif
; 1748 : 
; 1749 : 		case 31:
; 1750 : 			setCharWarpPoint( ptAct, x, y );

  000c9	53		 push	 ebx
  000ca	ff 75 0c	 push	 DWORD PTR _x$[ebp]
  000cd	56		 push	 esi
  000ce	e8 00 00 00 00	 call	 ?setCharWarpPoint@@YAXPAUaction@@HH@Z ; setCharWarpPoint

; 1751 : 			ptAct->bufCount = 0;

  000d3	33 c0		 xor	 eax, eax

; 1752 : 			ptAct->anim_no = ANIM_STAND;

  000d5	c7 86 4c 01 00
	00 03 00 00 00	 mov	 DWORD PTR [esi+332], 3
  000df	66 89 86 14 01
	00 00		 mov	 WORD PTR [esi+276], ax
  000e6	83 c4 0c	 add	 esp, 12			; 0000000cH

; 1753 : 			ptAct->anim_no_bak = -1;
; 1754 : 			ptAct->anim_ang = dir;

  000e9	8b 45 14	 mov	 eax, DWORD PTR _dir$[ebp]
  000ec	89 86 54 01 00
	00		 mov	 DWORD PTR [esi+340], eax

; 1755 : 			charObj[no].stockDir = -1;

  000f2	69 45 fc 0c 01
	00 00		 imul	 eax, DWORD PTR _no$1$[ebp], 268
  000f9	5b		 pop	 ebx
  000fa	c7 86 50 01 00
	00 ff ff ff ff	 mov	 DWORD PTR [esi+336], -1
  00104	5f		 pop	 edi
  00105	5e		 pop	 esi
  00106	c7 80 1c 00 00
	00 ff ff ff ff	 mov	 DWORD PTR ?charObj@@3PAUCHAROBJ@@A[eax+28], -1

; 2027 : 				}
; 2028 : 			}
; 2029 : 			break;
; 2030 : #endif
; 2031 : 
; 2032 : 
; 2033 : 	}//ITEM_AURA_
; 2034 : }

  00110	8b e5		 mov	 esp, ebp
  00112	5d		 pop	 ebp
  00113	c3		 ret	 0
$LN20@changeChar:

; 1756 : 			break;
; 1757 : 		case 30:
; 1758 : 			charObj[no].stockDir = dir;

  00114	8b 45 14	 mov	 eax, DWORD PTR _dir$[ebp]

; 1759 : 			charObj[no].stockDirX = x;

  00117	8b 7d 0c	 mov	 edi, DWORD PTR _x$[ebp]
  0011a	69 c9 0c 01 00
	00		 imul	 ecx, ecx, 268
  00120	89 81 1c 00 00
	00		 mov	 DWORD PTR ?charObj@@3PAUCHAROBJ@@A[ecx+28], eax
  00126	89 b9 20 00 00
	00		 mov	 DWORD PTR ?charObj@@3PAUCHAROBJ@@A[ecx+32], edi

; 1760 : 			charObj[no].stockDirY = y;

  0012c	89 99 24 00 00
	00		 mov	 DWORD PTR ?charObj@@3PAUCHAROBJ@@A[ecx+36], ebx

; 1761 : 			if( (x == ptAct->nextGx && y == ptAct->nextGy) || ABS( ABS( x - ptAct->nextGx ) - ABS( y - ptAct->nextGy ) ) > 1 )

  00132	8b 86 bc 00 00
	00		 mov	 eax, DWORD PTR [esi+188]
  00138	3b f8		 cmp	 edi, eax
  0013a	75 0c		 jne	 SHORT $LN112@changeChar
  0013c	3b 9e c0 00 00
	00		 cmp	 ebx, DWORD PTR [esi+192]
  00142	0f 84 64 05 00
	00		 je	 $LN118@changeChar
$LN112@changeChar:
  00148	8b 96 c0 00 00
	00		 mov	 edx, DWORD PTR [esi+192]
  0014e	8b cf		 mov	 ecx, edi
  00150	2b c8		 sub	 ecx, eax
  00152	8b c3		 mov	 eax, ebx
  00154	2b c2		 sub	 eax, edx
  00156	2b d3		 sub	 edx, ebx
  00158	85 c0		 test	 eax, eax
  0015a	0f 49 d0	 cmovns	 edx, eax
  0015d	8b 86 bc 00 00
	00		 mov	 eax, DWORD PTR [esi+188]
  00163	2b c7		 sub	 eax, edi
  00165	85 c9		 test	 ecx, ecx
  00167	0f 49 c1	 cmovns	 eax, ecx
  0016a	89 45 f8	 mov	 DWORD PTR tv1383[ebp], eax
  0016d	2b c2		 sub	 eax, edx
  0016f	2b 55 f8	 sub	 edx, DWORD PTR tv1383[ebp]
  00172	85 c0		 test	 eax, eax
  00174	0f 49 d0	 cmovns	 edx, eax
  00177	83 fa 01	 cmp	 edx, 1
  0017a	0f 8f 2c 05 00
	00		 jg	 $LN118@changeChar

; 1700 : 	{
; 1701 : 		return;
; 1702 : 	}
; 1703 : 	no = ext->charObjTblId;
; 1704 : 	switch( action ){

  00180	8b 4d fc	 mov	 ecx, DWORD PTR _no$1$[ebp]
$LN21@changeChar:

; 1762 : 				break;
; 1763 : 		case 1:
; 1764 : 			if( (charObj[no].status & CHR_STATUS_PARTY) != 0 && (charObj[no].status & CHR_STATUS_LEADER) != 0 ){

  00183	69 c1 0c 01 00
	00		 imul	 eax, ecx, 268
  00189	53		 push	 ebx
  0018a	57		 push	 edi
  0018b	56		 push	 esi
  0018c	89 45 f8	 mov	 DWORD PTR tv1404[ebp], eax
  0018f	8b 80 2c 00 00
	00		 mov	 eax, DWORD PTR ?charObj@@3PAUCHAROBJ@@A[eax+44]
  00195	25 00 03 00 00	 and	 eax, 768		; 00000300H
  0019a	3d 00 03 00 00	 cmp	 eax, 768		; 00000300H
  0019f	0f 85 b5 00 00
	00		 jne	 $LN25@changeChar

; 1765 : 				if( ptAct->bufCount < sizeof( ptAct->bufGx )/sizeof( int ) )

  001a5	66 83 be 14 01
	00 00 0a	 cmp	 WORD PTR [esi+276], 10	; 0000000aH
  001ad	73 1e		 jae	 SHORT $LN27@changeChar

; 1766 : 					correctCharMovePoint( ptAct, x, y );

  001af	e8 00 00 00 00	 call	 ?correctCharMovePoint@@YAXPAUaction@@HH@Z ; correctCharMovePoint

; 1788 : 			ptAct->anim_no = ANIM_WALK;

  001b4	83 c4 0c	 add	 esp, 12			; 0000000cH
  001b7	c7 86 4c 01 00
	00 04 00 00 00	 mov	 DWORD PTR [esi+332], 4
  001c1	5b		 pop	 ebx
  001c2	5f		 pop	 edi
  001c3	5e		 pop	 esi

; 2027 : 				}
; 2028 : 			}
; 2029 : 			break;
; 2030 : #endif
; 2031 : 
; 2032 : 
; 2033 : 	}//ITEM_AURA_
; 2034 : }

  001c4	8b e5		 mov	 esp, ebp
  001c6	5d		 pop	 ebp
  001c7	c3		 ret	 0
$LN115@changeChar:

; 1700 : 	{
; 1701 : 		return;
; 1702 : 	}
; 1703 : 	no = ext->charObjTblId;
; 1704 : 	switch( action ){

  001c8	8b 7d 0c	 mov	 edi, DWORD PTR _x$[ebp]
  001cb	eb b6		 jmp	 SHORT $LN21@changeChar
$LN27@changeChar:

; 1767 : 				else{
; 1768 : 					stockCharMovePoint( ptAct, x, y );

  001cd	e8 00 00 00 00	 call	 ?stockCharMovePoint@@YAXPAUaction@@HH@Z ; stockCharMovePoint

; 1769 : 					charObj[no].stockDir = -1;

  001d2	8b 45 f8	 mov	 eax, DWORD PTR tv1404[ebp]
  001d5	83 c4 0c	 add	 esp, 12			; 0000000cH
  001d8	8b 75 0c	 mov	 esi, DWORD PTR _x$[ebp]
  001db	bf 5c 00 00 00	 mov	 edi, OFFSET ?party@@3PAUPARTY@@A+92
  001e0	c7 80 1c 00 00
	00 ff ff ff ff	 mov	 DWORD PTR ?charObj@@3PAUCHAROBJ@@A[eax+28], -1
  001ea	66 0f 1f 44 00
	00		 npad	 6
$LL6@changeChar:

; 1771 : 						if( party[i].useFlag != 0 ){

  001f0	66 83 7f d4 00	 cmp	 WORD PTR [edi-44], 0
  001f5	74 44		 je	 SHORT $LN4@changeChar

; 1772 : 							if( party[i].id != pc.id ){

  001f7	8b 47 d8	 mov	 eax, DWORD PTR [edi-40]
  001fa	3b 05 08 00 00
	00		 cmp	 eax, DWORD PTR ?pc@@3UPC@@A+8
  00200	74 1d		 je	 SHORT $LN30@changeChar

; 1773 : 								//JL fix 2018/08/28 ç‚¹pkæ—¶è¿™é‡Œå´©ç«¯,åŠ ä¸ªptActä¸ä¸º0çš„éªŒè¯
; 1774 : 								if (party[i].ptAct){

  00202	8b 07		 mov	 eax, DWORD PTR [edi]
  00204	85 c0		 test	 eax, eax
  00206	74 33		 je	 SHORT $LN4@changeChar

; 1775 : 									party[i].ptAct->bufCount = 0;
; 1776 : 									setCharWarpPoint(party[i].ptAct, x, y);

  00208	53		 push	 ebx
  00209	33 c9		 xor	 ecx, ecx
  0020b	66 89 88 14 01
	00 00		 mov	 WORD PTR [eax+276], cx
  00212	56		 push	 esi
  00213	ff 37		 push	 DWORD PTR [edi]
  00215	e8 00 00 00 00	 call	 ?setCharWarpPoint@@YAXPAUaction@@HH@Z ; setCharWarpPoint
  0021a	83 c4 0c	 add	 esp, 12			; 0000000cH

; 1777 : 								}
; 1778 : 							}else{

  0021d	eb 1c		 jmp	 SHORT $LN4@changeChar
$LN30@changeChar:

; 1779 : 								if( pc.ptAct != NULL )

  0021f	a1 ec 50 00 00	 mov	 eax, DWORD PTR ?pc@@3UPC@@A+20716
  00224	85 c0		 test	 eax, eax
  00226	74 09		 je	 SHORT $LN33@changeChar

; 1780 : 									pc.ptAct->bufCount = 0;

  00228	33 c9		 xor	 ecx, ecx
  0022a	66 89 88 14 01
	00 00		 mov	 WORD PTR [eax+276], cx
$LN33@changeChar:

; 1781 : 								setPcWarpPoint( x, y );

  00231	53		 push	 ebx
  00232	56		 push	 esi
  00233	e8 00 00 00 00	 call	 ?setPcWarpPoint@@YAXHH@Z ; setPcWarpPoint
  00238	83 c4 08	 add	 esp, 8
$LN4@changeChar:

; 1770 : 					for( i = 1; i < MAX_PARTY; i++ ){

  0023b	83 c7 30	 add	 edi, 48			; 00000030H
  0023e	81 ff 1c 01 00
	00		 cmp	 edi, OFFSET ?party@@3PAUPARTY@@A+284
  00244	7c aa		 jl	 SHORT $LL6@changeChar

; 1782 : 							}
; 1783 : 						}
; 1784 : 					}
; 1785 : 				}
; 1786 : 			}else

  00246	8b 75 08	 mov	 esi, DWORD PTR _ptAct$[ebp]
  00249	5b		 pop	 ebx
  0024a	5f		 pop	 edi

; 1788 : 			ptAct->anim_no = ANIM_WALK;

  0024b	c7 86 4c 01 00
	00 04 00 00 00	 mov	 DWORD PTR [esi+332], 4
  00255	5e		 pop	 esi

; 2027 : 				}
; 2028 : 			}
; 2029 : 			break;
; 2030 : #endif
; 2031 : 
; 2032 : 
; 2033 : 	}//ITEM_AURA_
; 2034 : }

  00256	8b e5		 mov	 esp, ebp
  00258	5d		 pop	 ebp
  00259	c3		 ret	 0
$LN25@changeChar:

; 1787 : 				stockCharMovePoint( ptAct, x, y );

  0025a	e8 00 00 00 00	 call	 ?stockCharMovePoint@@YAXPAUaction@@HH@Z ; stockCharMovePoint

; 1788 : 			ptAct->anim_no = ANIM_WALK;

  0025f	83 c4 0c	 add	 esp, 12			; 0000000cH
  00262	c7 86 4c 01 00
	00 04 00 00 00	 mov	 DWORD PTR [esi+332], 4
  0026c	5b		 pop	 ebx
  0026d	5f		 pop	 edi
  0026e	5e		 pop	 esi

; 2027 : 				}
; 2028 : 			}
; 2029 : 			break;
; 2030 : #endif
; 2031 : 
; 2032 : 
; 2033 : 	}//ITEM_AURA_
; 2034 : }

  0026f	8b e5		 mov	 esp, ebp
  00271	5d		 pop	 ebp
  00272	c3		 ret	 0
$LN34@changeChar:

; 1789 : 			break;
; 1790 : 		case 2:
; 1791 : 			ptAct->anim_no = ANIM_ATTACK;

  00273	c7 86 4c 01 00
	00 00 00 00 00	 mov	 DWORD PTR [esi+332], 0

; 1792 : 			ptAct->anim_no_bak = -1;
; 1793 : 			ptAct->anim_ang = dir;
; 1794 : 			break;

  0027d	e9 d6 fd ff ff	 jmp	 $LN127@changeChar
$LN35@changeChar:

; 1795 : 		case 3:
; 1796 : 			ptAct->anim_no = ANIM_THROW;

  00282	c7 86 4c 01 00
	00 0c 00 00 00	 mov	 DWORD PTR [esi+332], 12	; 0000000cH

; 1797 : 			ptAct->anim_no_bak = -1;
; 1798 : 			ptAct->anim_ang = dir;
; 1799 : 			break;

  0028c	e9 c7 fd ff ff	 jmp	 $LN127@changeChar
$LN36@changeChar:

; 1800 : 		case 4:
; 1801 : 			ptAct->anim_no = ANIM_DAMAGE;

  00291	c7 86 4c 01 00
	00 01 00 00 00	 mov	 DWORD PTR [esi+332], 1

; 1802 : 			ptAct->anim_no_bak = -1;
; 1803 : 			ptAct->anim_ang = dir;
; 1804 : 			break;

  0029b	e9 b8 fd ff ff	 jmp	 $LN127@changeChar
$LN41@changeChar:

; 1805 : 		case 5:
; 1806 : 			ptAct->anim_no = ANIM_DEAD;
; 1807 : 			ptAct->anim_no_bak = -1;
; 1808 : 			ptAct->anim_ang = dir;
; 1809 : 			break;
; 1810 : 		case 6:
; 1811 : 			break;
; 1812 : 		case 7:
; 1813 : 			break;
; 1814 : 		case 8:		/* UsedMagic */
; 1815 : 			break;
; 1816 : 		case 10:
; 1817 : 			ptAct->anim_no = ANIM_DEAD;

  002a0	c7 86 4c 01 00
	00 02 00 00 00	 mov	 DWORD PTR [esi+332], 2

; 1818 : 			ptAct->anim_no_bak = -1;
; 1819 : 			ptAct->anim_ang = dir;
; 1820 : 			break;

  002aa	e9 a9 fd ff ff	 jmp	 $LN127@changeChar
$LN42@changeChar:

; 1821 : 		case 11:
; 1822 : 			ptAct->anim_no = ANIM_SIT;

  002af	c7 86 4c 01 00
	00 05 00 00 00	 mov	 DWORD PTR [esi+332], 5

; 1823 : 			ptAct->anim_no_bak = -1;
; 1824 : 			ptAct->anim_ang = dir;
; 1825 : 			break;

  002b9	e9 9a fd ff ff	 jmp	 $LN127@changeChar
$LN43@changeChar:

; 1826 : 		case 12:
; 1827 : 			ptAct->anim_no = ANIM_HAND;

  002be	c7 86 4c 01 00
	00 06 00 00 00	 mov	 DWORD PTR [esi+332], 6

; 1828 : 			ptAct->anim_no_bak = -1;
; 1829 : 			ptAct->anim_ang = dir;
; 1830 : 			break;

  002c8	e9 8b fd ff ff	 jmp	 $LN127@changeChar
$LN44@changeChar:

; 1831 : 		case 13:
; 1832 : 			ptAct->anim_no = ANIM_HAPPY;

  002cd	c7 86 4c 01 00
	00 07 00 00 00	 mov	 DWORD PTR [esi+332], 7

; 1833 : 			ptAct->anim_no_bak = -1;
; 1834 : 			ptAct->anim_ang = dir;
; 1835 : 			break;

  002d7	e9 7c fd ff ff	 jmp	 $LN127@changeChar
$LN45@changeChar:

; 1836 : 		case 14:
; 1837 : 			ptAct->anim_no = ANIM_ANGRY;

  002dc	c7 86 4c 01 00
	00 08 00 00 00	 mov	 DWORD PTR [esi+332], 8

; 1838 : 			ptAct->anim_no_bak = -1;
; 1839 : 			ptAct->anim_ang = dir;
; 1840 : 			break;

  002e6	e9 6d fd ff ff	 jmp	 $LN127@changeChar
$LN46@changeChar:

; 1841 : 		case 15:
; 1842 : 			ptAct->anim_no = ANIM_SAD;

  002eb	c7 86 4c 01 00
	00 09 00 00 00	 mov	 DWORD PTR [esi+332], 9

; 1843 : 			ptAct->anim_no_bak = -1;
; 1844 : 			ptAct->anim_ang = dir;
; 1845 : 			break;

  002f5	e9 5e fd ff ff	 jmp	 $LN127@changeChar
$LN47@changeChar:

; 1846 : 		case 16:
; 1847 : 			ptAct->anim_no = ANIM_GUARD;

  002fa	c7 86 4c 01 00
	00 0a 00 00 00	 mov	 DWORD PTR [esi+332], 10	; 0000000aH

; 1848 : 			ptAct->anim_no_bak = -1;
; 1849 : 			ptAct->anim_ang = dir;
; 1850 : 			break;

  00304	e9 4f fd ff ff	 jmp	 $LN127@changeChar
$LN48@changeChar:

; 1851 : 		case 17:
; 1852 : 			ptAct->anim_no = ANIM_WALK;

  00309	c7 86 4c 01 00
	00 04 00 00 00	 mov	 DWORD PTR [esi+332], 4

; 1853 : 			ptAct->anim_no_bak = -1;
; 1854 : 			ptAct->anim_ang = dir;
; 1855 : 			break;

  00313	e9 40 fd ff ff	 jmp	 $LN127@changeChar
$LN49@changeChar:

; 1856 : 		case 18:
; 1857 : 			ptAct->anim_no = ANIM_NOD;

  00318	c7 86 4c 01 00
	00 0b 00 00 00	 mov	 DWORD PTR [esi+332], 11	; 0000000bH

; 1858 : 			ptAct->anim_no_bak = -1;
; 1859 : 			ptAct->anim_ang = dir;
; 1860 : 			break;

  00322	e9 31 fd ff ff	 jmp	 $LN127@changeChar
$LN51@changeChar:

; 1861 : 		case 19:
; 1862 : 			ptAct->anim_no = ANIM_STAND;
; 1863 : 			ptAct->anim_no_bak = -1;
; 1864 : 			ptAct->anim_ang = dir;
; 1865 : 			break;
; 1866 : 		case 20:
; 1867 : 			if( effectno >= 0 ){

  00327	8b 45 1c	 mov	 eax, DWORD PTR _effectno$[ebp]
  0032a	85 c0		 test	 eax, eax
  0032c	78 26		 js	 SHORT $LN52@changeChar

; 1868 : 				setCharBattle( ptAct, effectno, effectparam1, effectparam2 );

  0032e	ff 75 24	 push	 DWORD PTR _effectparam2$[ebp]
  00331	ff 75 20	 push	 DWORD PTR _effectparam1$[ebp]
  00334	50		 push	 eax
  00335	56		 push	 esi
  00336	e8 00 00 00 00	 call	 ?setCharBattle@@YAXPAUaction@@HFF@Z ; setCharBattle
  0033b	83 c4 10	 add	 esp, 16			; 00000010H

; 1869 : 				ptAct->anim_no = ANIM_STAND;

  0033e	c7 86 4c 01 00
	00 03 00 00 00	 mov	 DWORD PTR [esi+332], 3

; 1870 : 				ptAct->anim_no_bak = -1;

  00348	c7 86 50 01 00
	00 ff ff ff ff	 mov	 DWORD PTR [esi+336], -1

; 1871 : 			}else

  00352	eb 55		 jmp	 SHORT $LN59@changeChar
$LN52@changeChar:

; 1872 : 				delCharBattle( ptAct );

  00354	56		 push	 esi
  00355	e8 00 00 00 00	 call	 ?delCharBattle@@YAXPAUaction@@@Z ; delCharBattle
  0035a	eb 4a		 jmp	 SHORT $LN120@changeChar
$LN54@changeChar:

; 1873 : 			setCharWarpPoint( ptAct, x, y );
; 1874 : 			ptAct->anim_ang = dir;
; 1875 : 			break;
; 1876 : 		case 21:
; 1877 : 			if( effectno == 1 )

  0035c	83 7d 1c 01	 cmp	 DWORD PTR _effectno$[ebp], 1
  00360	56		 push	 esi
  00361	75 18		 jne	 SHORT $LN55@changeChar

; 1878 : 				setCharLeader( ptAct );

  00363	e8 00 00 00 00	 call	 ?setCharLeader@@YAXPAUaction@@@Z ; setCharLeader

; 1916 : 			//setCharWarpPoint( ptAct, x, y );
; 1917 : 			ptAct->anim_ang = dir;

  00368	8b 45 14	 mov	 eax, DWORD PTR _dir$[ebp]
  0036b	83 c4 04	 add	 esp, 4
  0036e	89 86 54 01 00
	00		 mov	 DWORD PTR [esi+340], eax
  00374	5b		 pop	 ebx
  00375	5f		 pop	 edi
  00376	5e		 pop	 esi

; 2027 : 				}
; 2028 : 			}
; 2029 : 			break;
; 2030 : #endif
; 2031 : 
; 2032 : 
; 2033 : 	}//ITEM_AURA_
; 2034 : }

  00377	8b e5		 mov	 esp, ebp
  00379	5d		 pop	 ebp
  0037a	c3		 ret	 0
$LN55@changeChar:

; 1879 : 			else
; 1880 : 				delCharLeader( ptAct );

