; Listing generated by Microsoft (R) Optimizing Compiler Version 19.29.30133.0 

	TITLE	\\VBOXSVR\_stoneage\repos\ssm-sacli\Release\field.obj
	.686P
	.XMM
	include listing.inc
	.model	flat

INCLUDELIB LIBCMT
INCLUDELIB OLDNAMES

PUBLIC	?GMÎ·×â??@@3_NA					; GMÎ·×â??
PUBLIC	???ãáãÓ??@@3HA					; ??ãáãÓ??
PUBLIC	?ÍíÒöÖªøú??@@3HA				; ÍíÒöÖªøú??
PUBLIC	?ñ§óø???@@3HA					; ñ§óø???
PUBLIC	??Ý»ãæäÎ?ßãìÚ@@3PAHA				; ?Ý»ãæäÎ?ßãìÚ
PUBLIC	?drawFieldButtonFlag@@3FA			; drawFieldButtonFlag
PUBLIC	?fieldBtnHitId@@3PAHA				; fieldBtnHitId
PUBLIC	?in817flag@@3_NA				; in817flag
PUBLIC	?BattlingFlag@@3HA				; BattlingFlag
PUBLIC	?jobdaily@@3PAUJOBDAILY@@A			; jobdaily
PUBLIC	?JobdailyGetFlag@@3HA				; JobdailyGetFlag
PUBLIC	?JobdailyGetMax@@3HA				; JobdailyGetMax
PUBLIC	?ani_num@@3HA					; ani_num
PUBLIC	?breadAniFlag@@3HA				; breadAniFlag
PUBLIC	?SPACT@@3PAPAUaction@@A				; SPACT
PUBLIC	?ProduceXY@@3PAY06HA				; ProduceXY
PUBLIC	?delFlag@@3_NA					; delFlag
PUBLIC	?flag22@@3_NA					; flag22
PUBLIC	?Timeflag2@@3_NA				; Timeflag2
PUBLIC	?TimeTick2@@3HA					; TimeTick2
PUBLIC	?TimeTickMax2@@3HA				; TimeTickMax2
PUBLIC	?Timeflag@@3PA_NA				; Timeflag
PUBLIC	?TimeTick@@3PAHA				; TimeTick
PUBLIC	?TimeTickMax@@3PAHA				; TimeTickMax
PUBLIC	?AniFlag@@3_NA					; AniFlag
PUBLIC	?Updownflag@@3_NA				; Updownflag
PUBLIC	?XYposition@@3PAY06HA				; XYposition
PUBLIC	?iOldGX@@3HA					; iOldGX
PUBLIC	?iOldGY@@3HA					; iOldGY
PUBLIC	?pActStreetVendorWnd@@3PAUaction@@A		; pActStreetVendorWnd
PUBLIC	?pActStreetVendorBuyWnd@@3PAUaction@@A		; pActStreetVendorBuyWnd
PUBLIC	?sStreetVendorBtn@@3FA				; sStreetVendorBtn
PUBLIC	?sStreetVendorBuyBtn@@3FA			; sStreetVendorBuyBtn
PUBLIC	?sStreetVendorBtnFocus@@3FA			; sStreetVendorBtnFocus
PUBLIC	?sStreetVendorBtnGraNo@@3PAHA			; sStreetVendorBtnGraNo
PUBLIC	?pShowPet@@3PAUaction@@A			; pShowPet
PUBLIC	?ShowSellItem@@3PAU_Show_Sell_Item@@A		; ShowSellItem
PUBLIC	?str_bufferVendorName@@3USTR_BUFFER@@A		; str_bufferVendorName
PUBLIC	?chatRoomBtn@@3FA				; chatRoomBtn
PUBLIC	?SelRoomBtn@@3FA				; SelRoomBtn
PUBLIC	?angelFlag@@3HA					; angelFlag
PUBLIC	?angelRecvType@@3HA				; angelRecvType
PUBLIC	?angelRecvButton@@3HA				; angelRecvButton
PUBLIC	?angelMsg@@3PADA				; angelMsg
PUBLIC	?drawTimeAnimeFlag@@3FA				; drawTimeAnimeFlag
PUBLIC	?etcSendFlag@@3FA				; etcSendFlag
PUBLIC	?actBtn@@3FA					; actBtn
PUBLIC	?menuBtn@@3FA					; menuBtn
PUBLIC	?mailLamp@@3FA					; mailLamp
PUBLIC	?fieldInfoTime@@3IA				; fieldInfoTime
PUBLIC	?serverAliveTime@@3PAUtm@@A			; serverAliveTime
PUBLIC	?serverAliveLongTime@@3_JA			; serverAliveLongTime
PUBLIC	?ShowVendorItem@@3PAU_Show_Vendor_Item@@A	; ShowVendorItem
PUBLIC	?pChatRoomWnd@@3PAUaction@@A			; pChatRoomWnd
PUBLIC	?chatRoomBtnFocus@@3FA				; chatRoomBtnFocus
PUBLIC	?chatRoomBtnGraNo@@3PAHA			; chatRoomBtnGraNo
PUBLIC	?menuBtnFocus@@3FA				; menuBtnFocus
PUBLIC	?menuBtnGraNo@@3PAHA				; menuBtnGraNo
PUBLIC	?cardBtn@@3FA					; cardBtn
PUBLIC	?cardBtnFocus@@3FA				; cardBtnFocus
PUBLIC	?cardBtnGraNo@@3PAHA				; cardBtnGraNo
PUBLIC	?tradeBtn@@3FA					; tradeBtn
PUBLIC	?tradeBtnFocus@@3FA				; tradeBtnFocus
PUBLIC	?tradeBtnGraNo@@3PAHA				; tradeBtnGraNo
PUBLIC	?angelLampDrawFlag@@3FA				; angelLampDrawFlag
PUBLIC	?angelLampFlashTime@@3IA			; angelLampFlashTime
PUBLIC	?angelBtn@@3FA					; angelBtn
PUBLIC	?angelBtnFocus@@3FA				; angelBtnFocus
PUBLIC	?angelBtnGraNo@@3PAHA				; angelBtnGraNo
PUBLIC	?channelBtn@@3FA				; channelBtn
PUBLIC	?channelBtnFocus@@3FA				; channelBtnFocus
PUBLIC	?channelWNFlag@@3FA				; channelWNFlag
PUBLIC	?channelBtnGraNo@@3PAHA				; channelBtnGraNo
PUBLIC	?partyBtn@@3FA					; partyBtn
PUBLIC	?partyBtnFocus@@3FA				; partyBtnFocus
PUBLIC	?partyBtnEnableFlag@@3FA			; partyBtnEnableFlag
PUBLIC	?partyBtnGraNo@@3PAHA				; partyBtnGraNo
PUBLIC	?mailLampDrawFlag@@3FA				; mailLampDrawFlag
PUBLIC	?helpBtnGraNo@@3PAHA				; helpBtnGraNo
PUBLIC	?helpBtn@@3FA					; helpBtn
PUBLIC	?helpBtnFocus@@3FA				; helpBtnFocus
PUBLIC	?mailLampFlashTime@@3IA				; mailLampFlashTime
PUBLIC	?joinBattleBtn@@3FA				; joinBattleBtn
PUBLIC	?joinBattleBtnFocus@@3FA			; joinBattleBtnFocus
PUBLIC	?joinBattleBtnEnableFlag@@3FA			; joinBattleBtnEnableFlag
PUBLIC	?joinBattleHelpMsgFlag@@3FA			; joinBattleHelpMsgFlag
PUBLIC	?joinBattleBtnGraNo@@3PAHA			; joinBattleBtnGraNo
PUBLIC	?duelBtn@@3FA					; duelBtn
PUBLIC	?duelBtnFocus@@3FA				; duelBtnFocus
PUBLIC	?duelBtnGraNo@@3PAHA				; duelBtnGraNo
PUBLIC	?actBtnForcus@@3FA				; actBtnForcus
PUBLIC	?actBtnUpTime@@3HA				; actBtnUpTime
PUBLIC	?nowActMode@@3HA				; nowActMode
PUBLIC	?actBtnGraNo@@3PAHA				; actBtnGraNo
PUBLIC	?charActionAnimeChangeProcNo@@3FA		; charActionAnimeChangeProcNo
PUBLIC	?charActionAnimeChangeWindowFlag@@3FA		; charActionAnimeChangeWindowFlag
PUBLIC	?etcSwitchProcNo@@3FA				; etcSwitchProcNo
PUBLIC	?etcSwitchChangeFlag@@3FA			; etcSwitchChangeFlag
PUBLIC	?amPmAnimeTime@@3HA				; amPmAnimeTime
PUBLIC	?amPmAnimeX@@3HA				; amPmAnimeX
PUBLIC	?amPmAnimeGraNoIndex0@@3HA			; amPmAnimeGraNoIndex0
PUBLIC	?amPmAnimeGraNoIndex1@@3HA			; amPmAnimeGraNoIndex1
PUBLIC	?amPmAnimeGraNo@@3PAHA				; amPmAnimeGraNo
PUBLIC	?ridelistBtn@@3FA				; ridelistBtn
PUBLIC	?ridelistBtnFocus@@3FA				; ridelistBtnFocus
PUBLIC	?ridelistBtnGraNo@@3PAHA			; ridelistBtnGraNo
PUBLIC	?vipshopBtn@@3FA				; vipshopBtn
PUBLIC	?vipshopBtnFocus@@3FA				; vipshopBtnFocus
PUBLIC	?vipshopBtnGraNo@@3PAHA				; vipshopBtnGraNo
PUBLIC	?sTeacherSystemBtn@@3FA				; sTeacherSystemBtn
PUBLIC	?sTeacherSystemBtnFocus@@3FA			; sTeacherSystemBtnFocus
PUBLIC	?iTeacherSystemBtnGraNo@@3PAHA			; iTeacherSystemBtnGraNo
PUBLIC	?nowFieldMenuOpenFlag@@3FA			; nowFieldMenuOpenFlag
PUBLIC	?fieldBtnPushTime@@3IA				; fieldBtnPushTime
PUBLIC	?onlinegmProcNo@@3FA				; onlinegmProcNo
PUBLIC	?channelName@@3PAY0BE@DA			; channelName
PUBLIC	?pageStr@@3PAY09DA				; pageStr
_BSS	SEGMENT
?GMÎ·×â??@@3_NA DB 01H DUP (?)				; GMÎ·×â??
	ALIGN	4

???ãáãÓ??@@3HA DD 01H DUP (?)				; ??ãáãÓ??
?ÍíÒöÖªøú??@@3HA DD 01H DUP (?)				; ÍíÒöÖªøú??
?ñ§óø???@@3HA DD 01H DUP (?)				; ñ§óø???
??Ý»ãæäÎ?ßãìÚ@@3PAHA DD 0aH DUP (?)			; ?Ý»ãæäÎ?ßãìÚ
?fieldBtnHitId@@3PAHA DD 0fH DUP (?)			; fieldBtnHitId
?in817flag@@3_NA DB 01H DUP (?)				; in817flag
	ALIGN	4

?BattlingFlag@@3HA DD 01H DUP (?)			; BattlingFlag
?jobdaily@@3PAUJOBDAILY@@A DB 0fd20H DUP (?)		; jobdaily
?JobdailyGetFlag@@3HA DD 01H DUP (?)			; JobdailyGetFlag
?JobdailyGetMax@@3HA DD 01H DUP (?)			; JobdailyGetMax
?ani_num@@3HA DD 01H DUP (?)				; ani_num
?breadAniFlag@@3HA DD 01H DUP (?)			; breadAniFlag
?SPACT@@3PAPAUaction@@A DD 0100H DUP (?)		; SPACT
?delFlag@@3_NA DB 01H DUP (?)				; delFlag
	ALIGN	4

?Timeflag2@@3_NA DB 01H DUP (?)				; Timeflag2
	ALIGN	4

?TimeTick2@@3HA DD 01H DUP (?)				; TimeTick2
?TimeTickMax2@@3HA DD 01H DUP (?)			; TimeTickMax2
?Timeflag@@3PA_NA DB 032H DUP (?)			; Timeflag
	ALIGN	4

?TimeTick@@3PAHA DD 032H DUP (?)			; TimeTick
?TimeTickMax@@3PAHA DD 032H DUP (?)			; TimeTickMax
?AniFlag@@3_NA DB 01H DUP (?)				; AniFlag
	ALIGN	4

?Updownflag@@3_NA DB 01H DUP (?)			; Updownflag
	ALIGN	4

?iOldGX@@3HA DD	01H DUP (?)				; iOldGX
?iOldGY@@3HA DD	01H DUP (?)				; iOldGY
?pActStreetVendorWnd@@3PAUaction@@A DD 01H DUP (?)	; pActStreetVendorWnd
?pActStreetVendorBuyWnd@@3PAUaction@@A DD 01H DUP (?)	; pActStreetVendorBuyWnd
?sStreetVendorBtn@@3FA DW 01H DUP (?)			; sStreetVendorBtn
	ALIGN	4

?sStreetVendorBuyBtn@@3FA DW 01H DUP (?)		; sStreetVendorBuyBtn
	ALIGN	4

?sStreetVendorBtnFocus@@3FA DW 01H DUP (?)		; sStreetVendorBtnFocus
	ALIGN	4

?pShowPet@@3PAUaction@@A DD 01H DUP (?)			; pShowPet
?ShowSellItem@@3PAU_Show_Sell_Item@@A DB 05f0H DUP (?)	; ShowSellItem
?str_bufferVendorName@@3USTR_BUFFER@@A DB 0128H DUP (?)	; str_bufferVendorName
?chatRoomBtn@@3FA DW 01H DUP (?)			; chatRoomBtn
	ALIGN	4

?SelRoomBtn@@3FA DW 01H DUP (?)				; SelRoomBtn
	ALIGN	4

?angelFlag@@3HA DD 01H DUP (?)				; angelFlag
?angelRecvType@@3HA DD 01H DUP (?)			; angelRecvType
?angelRecvButton@@3HA DD 01H DUP (?)			; angelRecvButton
?angelMsg@@3PADA DB 02800H DUP (?)			; angelMsg
?drawTimeAnimeFlag@@3FA DW 01H DUP (?)			; drawTimeAnimeFlag
	ALIGN	4

?etcSendFlag@@3FA DW 01H DUP (?)			; etcSendFlag
	ALIGN	4

?actBtn@@3FA DW	01H DUP (?)				; actBtn
	ALIGN	4

?menuBtn@@3FA DW 01H DUP (?)				; menuBtn
	ALIGN	4

?mailLamp@@3FA DW 01H DUP (?)				; mailLamp
	ALIGN	4

?fieldInfoTime@@3IA DD 01H DUP (?)			; fieldInfoTime
?serverAliveTime@@3PAUtm@@A DD 01H DUP (?)		; serverAliveTime
?serverAliveLongTime@@3_JA DQ 01H DUP (?)		; serverAliveLongTime
?ShowVendorItem@@3PAU_Show_Vendor_Item@@A DB 06c20H DUP (?) ; ShowVendorItem
?pChatRoomWnd@@3PAUaction@@A DD 01H DUP (?)		; pChatRoomWnd
?chatRoomBtnFocus@@3FA DW 01H DUP (?)			; chatRoomBtnFocus
	ALIGN	4

?menuBtnFocus@@3FA DW 01H DUP (?)			; menuBtnFocus
	ALIGN	4

?cardBtn@@3FA DW 01H DUP (?)				; cardBtn
	ALIGN	4

?cardBtnFocus@@3FA DW 01H DUP (?)			; cardBtnFocus
	ALIGN	4

?tradeBtn@@3FA DW 01H DUP (?)				; tradeBtn
	ALIGN	4

?tradeBtnFocus@@3FA DW 01H DUP (?)			; tradeBtnFocus
	ALIGN	4

?angelLampDrawFlag@@3FA DW 01H DUP (?)			; angelLampDrawFlag
	ALIGN	4

?angelLampFlashTime@@3IA DD 01H DUP (?)			; angelLampFlashTime
?angelBtn@@3FA DW 01H DUP (?)				; angelBtn
	ALIGN	4

?angelBtnFocus@@3FA DW 01H DUP (?)			; angelBtnFocus
	ALIGN	4

?channelBtn@@3FA DW 01H DUP (?)				; channelBtn
	ALIGN	4

?channelBtnFocus@@3FA DW 01H DUP (?)			; channelBtnFocus
	ALIGN	4

?partyBtn@@3FA DW 01H DUP (?)				; partyBtn
	ALIGN	4

?partyBtnFocus@@3FA DW 01H DUP (?)			; partyBtnFocus
	ALIGN	4

?mailLampDrawFlag@@3FA DW 01H DUP (?)			; mailLampDrawFlag
	ALIGN	4

?helpBtn@@3FA DW 01H DUP (?)				; helpBtn
	ALIGN	4

?helpBtnFocus@@3FA DW 01H DUP (?)			; helpBtnFocus
	ALIGN	4

?mailLampFlashTime@@3IA DD 01H DUP (?)			; mailLampFlashTime
?joinBattleBtn@@3FA DW 01H DUP (?)			; joinBattleBtn
	ALIGN	4

?joinBattleBtnFocus@@3FA DW 01H DUP (?)			; joinBattleBtnFocus
	ALIGN	4

?duelBtn@@3FA DW 01H DUP (?)				; duelBtn
	ALIGN	4

?duelBtnFocus@@3FA DW 01H DUP (?)			; duelBtnFocus
	ALIGN	4

?actBtnForcus@@3FA DW 01H DUP (?)			; actBtnForcus
	ALIGN	4

?actBtnUpTime@@3HA DD 01H DUP (?)			; actBtnUpTime
?nowActMode@@3HA DD 01H DUP (?)				; nowActMode
?charActionAnimeChangeProcNo@@3FA DW 01H DUP (?)	; charActionAnimeChangeProcNo
	ALIGN	4

?charActionAnimeChangeWindowFlag@@3FA DW 01H DUP (?)	; charActionAnimeChangeWindowFlag
	ALIGN	4

?etcSwitchProcNo@@3FA DW 01H DUP (?)			; etcSwitchProcNo
	ALIGN	4

?etcSwitchChangeFlag@@3FA DW 01H DUP (?)		; etcSwitchChangeFlag
	ALIGN	4

?amPmAnimeTime@@3HA DD 01H DUP (?)			; amPmAnimeTime
?amPmAnimeX@@3HA DD 01H DUP (?)				; amPmAnimeX
?amPmAnimeGraNoIndex0@@3HA DD 01H DUP (?)		; amPmAnimeGraNoIndex0
?amPmAnimeGraNoIndex1@@3HA DD 01H DUP (?)		; amPmAnimeGraNoIndex1
?ridelistBtn@@3FA DW 01H DUP (?)			; ridelistBtn
	ALIGN	4

?ridelistBtnFocus@@3FA DW 01H DUP (?)			; ridelistBtnFocus
	ALIGN	4

?vipshopBtn@@3FA DW 01H DUP (?)				; vipshopBtn
	ALIGN	4

?vipshopBtnFocus@@3FA DW 01H DUP (?)			; vipshopBtnFocus
	ALIGN	4

?sTeacherSystemBtn@@3FA DW 01H DUP (?)			; sTeacherSystemBtn
	ALIGN	4

?sTeacherSystemBtnFocus@@3FA DW 01H DUP (?)		; sTeacherSystemBtnFocus
	ALIGN	4

?nowFieldMenuOpenFlag@@3FA DW 01H DUP (?)		; nowFieldMenuOpenFlag
	ALIGN	4

?fieldBtnPushTime@@3IA DD 01H DUP (?)			; fieldBtnPushTime
?onlinegmProcNo@@3FA DW 01H DUP (?)			; onlinegmProcNo
_BSS	ENDS
CONST	SEGMENT
?_Fake_alloc@std@@3U_Fake_allocator@1@B	ORG $+1		; std::_Fake_alloc
CONST	ENDS
_DATA	SEGMENT
?drawFieldButtonFlag@@3FA DW 01H			; drawFieldButtonFlag
?flag22@@3_NA DB 01H					; flag22
	ORG $+5
?ProduceXY@@3PAY06HA DD 0ffffffffH			; ProduceXY
	ORG $+7164
?XYposition@@3PAY06HA DD 0fcH				; XYposition
	DD	0ffH
	DD	018c87H
	DD	00H
	DD	0ffffffffH
	DD	01H
	DD	00H
	DD	0e9H
	DD	010cH
	DD	018c86H
	DD	00H
	DD	0ffffffffH
	DD	01H
	DD	00H
	DD	0e3H
	DD	0101H
	DD	018c8cH
	DD	00H
	DD	0ffffffffH
	DD	01H
	DD	00H
	DD	0d1H
	DD	0feH
	DD	018c87H
	DD	00H
	DD	0ffffffffH
	DD	01H
	DD	00H
	DD	0134H
	DD	085H
	DD	018c87H
	DD	00H
	DD	0ffffffffH
	DD	01H
	DD	00H
	DD	0131H
	DD	065H
	DD	018c8eH
	DD	00H
	DD	0ffffffffH
	DD	01H
	DD	00H
	DD	013cH
	DD	079H
	DD	018c86H
	DD	00H
	DD	0ffffffffH
	DD	01H
	DD	00H
	DD	012fH
	DD	068H
	DD	018c87H
	DD	00H
	DD	0ffffffffH
	DD	01H
	DD	00H
	DD	011fH
	DD	07aH
	DD	018c86H
	DD	00H
	DD	0ffffffffH
	DD	01H
	DD	00H
	DD	0fdH
	DD	035H
	DD	018c86H
	DD	00H
	DD	0ffffffffH
	DD	01H
	DD	00H
	DD	06dH
	DD	062H
	DD	018c8cH
	DD	00H
	DD	0ffffffffH
	DD	01H
	DD	00H
	DD	090H
	DD	059H
	DD	018c87H
	DD	00H
	DD	0ffffffffH
	DD	01H
	DD	00H
	DD	072H
	DD	056H
	DD	018c86H
	DD	00H
	DD	0ffffffffH
	DD	01H
	DD	00H
	DD	065H
	DD	054H
	DD	018c8dH
	DD	00H
	DD	0ffffffffH
	DD	01H
	DD	00H
	DD	05eH
	DD	05dH
	DD	018c86H
	DD	00H
	DD	0ffffffffH
	DD	01H
	DD	00H
	DD	0173H
	DD	06cH
	DD	018c87H
	DD	00H
	DD	0ffffffffH
	DD	01H
	DD	00H
	DD	0b7H
	DD	078H
	DD	018c86H
	DD	00H
	DD	0ffffffffH
	DD	01H
	DD	00H
	DD	0d2H
	DD	0bbH
	DD	018c86H
	DD	00H
	DD	0ffffffffH
	DD	01H
	DD	00H
	DD	017eH
	DD	0bbH
	DD	018c8fH
	DD	00H
	DD	0ffffffffH
	DD	01H
	DD	00H
	DD	0e1H
	DD	0b2H
	DD	018c86H
	DD	00H
	DD	0ffffffffH
	DD	01H
	DD	00H
	DD	0163H
	DD	0ceH
	DD	018c87H
	DD	00H
	DD	0ffffffffH
	DD	01H
	DD	00H
	DD	016cH
	DD	0d9H
	DD	018c8dH
	DD	00H
	DD	0ffffffffH
	DD	01H
	DD	00H
	DD	0efH
	DD	096H
	DD	018c86H
	DD	00H
	DD	0ffffffffH
	DD	01H
	DD	00H
	DD	0157H
	DD	0d9H
	DD	018c87H
	DD	00H
	DD	0ffffffffH
	DD	01H
	DD	00H
	DD	0f5H
	DD	08bH
	DD	018c86H
	DD	00H
	DD	0ffffffffH
	DD	01H
	DD	00H
	DD	014eH
	DD	0f2H
	DD	018c8cH
	DD	00H
	DD	0ffffffffH
	DD	01H
	DD	00H
	DD	0144H
	DD	0daH
	DD	018c8dH
	DD	00H
	DD	0ffffffffH
	DD	01H
	DD	00H
	DD	0104H
	DD	07cH
	DD	018c8eH
	DD	00H
	DD	0ffffffffH
	DD	01H
	DD	00H
	DD	012dH
	DD	0f6H
	DD	018c86H
	DD	00H
	DD	0ffffffffH
	DD	01H
	DD	00H
	DD	0120H
	DD	0109H
	DD	018c86H
	DD	00H
	DD	0ffffffffH
	DD	01H
	DD	00H
	DD	0116H
	DD	010bH
	DD	018c87H
	DD	00H
	DD	0ffffffffH
	DD	01H
	DD	00H
	DD	0e2H
	DD	017H
	DD	018c86H
	DD	00H
	DD	0ffffffffH
	DD	01H
	DD	00H
	DD	0158H
	DD	02bH
	DD	018c87H
	DD	00H
	DD	0ffffffffH
	DD	01H
	DD	00H
	DD	0170H
	DD	06eH
	DD	018c8cH
	DD	00H
	DD	0ffffffffH
	DD	01H
	DD	00H
	DD	0168H
	DD	091H
	DD	018c86H
	DD	00H
	DD	0ffffffffH
	DD	01H
	DD	00H
	DD	015bH
	DD	0e8H
	DD	018c86H
	DD	00H
	DD	0ffffffffH
	DD	01H
	DD	00H
	DD	0147H
	DD	0e6H
	DD	018c8fH
	DD	00H
	DD	0ffffffffH
	DD	01H
	DD	00H
	DD	093H
	DD	017H
	DD	018c8eH
	DD	00H
	DD	0ffffffffH
	DD	01H
	DD	00H
	DD	093H
	DD	02aH
	DD	018c8dH
	DD	00H
	DD	0ffffffffH
	DD	01H
	DD	00H
	DD	0118H
	DD	026H
	DD	018c86H
	DD	00H
	DD	0ffffffffH
	DD	01H
	DD	00H
	DD	09eH
	DD	02cH
	DD	018c86H
	DD	00H
	DD	0ffffffffH
	DD	01H
	DD	00H
	DD	091H
	DD	044H
	DD	018c86H
	DD	00H
	DD	0ffffffffH
	DD	01H
	DD	00H
	DD	0bdH
	DD	042H
	DD	018c86H
	DD	00H
	DD	0ffffffffH
	DD	01H
	DD	00H
	DD	0ccH
	DD	037H
	DD	018c87H
	DD	00H
	DD	0ffffffffH
	DD	01H
	DD	00H
	DD	0c7H
	DD	037H
	DD	018c86H
	DD	00H
	DD	0ffffffffH
	DD	01H
	DD	00H
	DD	0ebH
	DD	034H
	DD	018c87H
	DD	00H
	DD	0ffffffffH
	DD	01H
	DD	00H
	DD	0fdH
	DD	022H
	DD	018c86H
	DD	00H
	DD	0ffffffffH
	DD	01H
	DD	00H
	DD	0120H
	DD	033H
	DD	018c86H
	DD	00H
	DD	0ffffffffH
	DD	01H
	DD	00H
	DD	012aH
	DD	03eH
	DD	018c87H
	DD	00H
	DD	0ffffffffH
	DD	01H
	DD	00H
	DD	012bH
	DD	048H
	DD	018c86H
	DD	00H
	DD	0ffffffffH
	DD	01H
	DD	00H
	DD	0100H
	DD	05eH
	DD	018c87H
	DD	00H
	DD	0ffffffffH
	DD	01H
	DD	00H
	DD	011cH
	DD	06aH
	DD	018c8cH
	DD	00H
	DD	0ffffffffH
	DD	01H
	DD	00H
	DD	0158H
	DD	02aH
	DD	018c8eH
	DD	00H
	DD	0ffffffffH
	DD	01H
	DD	00H
	DD	0149H
	DD	048H
	DD	018c8fH
	DD	00H
	DD	0ffffffffH
	DD	01H
	DD	00H
	DD	015fH
	DD	052H
	DD	018c8cH
	DD	00H
	DD	0ffffffffH
	DD	01H
	DD	00H
	DD	017bH
	DD	052H
	DD	018c8dH
	DD	00H
	DD	0ffffffffH
	DD	01H
	DD	00H
	DD	0a4H
	DD	0108H
	DD	018c8fH
	DD	00H
	DD	0ffffffffH
	DD	01H
	DD	00H
	DD	09bH
	DD	0107H
	DD	018c86H
	DD	00H
	DD	0ffffffffH
	DD	01H
	DD	00H
	DD	07cH
	DD	010bH
	DD	018c87H
	DD	00H
	DD	0ffffffffH
	DD	01H
	DD	00H
	DD	07dH
	DD	010aH
	DD	018c86H
	DD	00H
	DD	0ffffffffH
	DD	01H
	DD	00H
	DD	070H
	DD	0122H
	DD	018c87H
	DD	00H
	DD	0ffffffffH
	DD	01H
	DD	00H
	DD	066H
	DD	011fH
	DD	018c86H
	DD	00H
	DD	0ffffffffH
	DD	01H
	DD	00H
	DD	05fH
	DD	0134H
	DD	018c87H
	DD	00H
	DD	0ffffffffH
	DD	01H
	DD	00H
	DD	041H
	DD	014fH
	DD	018c87H
	DD	00H
	DD	0ffffffffH
	DD	01H
	DD	00H
	DD	032H
	DD	014fH
	DD	018c8cH
	DD	00H
	DD	0ffffffffH
	DD	01H
	DD	00H
	DD	030H
	DD	016eH
	DD	018c86H
	DD	00H
	DD	0ffffffffH
	DD	01H
	DD	00H
	DD	048H
	DD	0162H
	DD	018c8dH
	DD	00H
	DD	0ffffffffH
	DD	01H
	DD	00H
	DD	04fH
	DD	0178H
	DD	018c87H
	DD	00H
	DD	0ffffffffH
	DD	01H
	DD	00H
	DD	070H
	DD	0174H
	DD	018c8eH
	DD	00H
	DD	0ffffffffH
	DD	01H
	DD	00H
	DD	081H
	DD	019bH
	DD	018c86H
	DD	00H
	DD	0ffffffffH
	DD	01H
	DD	00H
	DD	086H
	DD	01a5H
	DD	018c8fH
	DD	00H
	DD	0ffffffffH
	DD	01H
	DD	00H
	DD	0a9H
	DD	01a0H
	DD	018c86H
	DD	00H
	DD	0ffffffffH
	DD	01H
	DD	00H
	DD	0c9H
	DD	01a2H
	DD	018c87H
	DD	00H
	DD	0ffffffffH
	DD	01H
	DD	00H
	DD	0c4H
	DD	0178H
	DD	018c8cH
	DD	00H
	DD	0ffffffffH
	DD	01H
	DD	00H
	DD	0ceH
	DD	016eH
	DD	018c86H
	DD	00H
	DD	0ffffffffH
	DD	01H
	DD	00H
	DD	0caH
	DD	0156H
	DD	018c8dH
	DD	00H
	DD	0ffffffffH
	DD	01H
	DD	00H
	DD	0acH
	DD	014eH
	DD	018c87H
	DD	00H
	DD	0ffffffffH
	DD	01H
	DD	00H
	DD	0c0H
	DD	0143H
	DD	018c86H
	DD	00H
	DD	0ffffffffH
	DD	01H
	DD	00H
	DD	09bH
	DD	0151H
	DD	018c86H
	DD	00H
	DD	0ffffffffH
	DD	01H
	DD	00H
	DD	084H
	DD	02dH
	DD	018c87H
	DD	00H
	DD	0ffffffffH
	DD	01H
	DD	00H
	DD	063H
	DD	01e9H
	DD	018c86H
	DD	00H
	DD	0ffffffffH
	DD	01H
	DD	00H
	DD	063H
	DD	01d2H
	DD	018c87H
	DD	00H
	DD	0ffffffffH
	DD	01H
	DD	00H
	DD	072H
	DD	01b3H
	DD	018c86H
	DD	00H
	DD	0ffffffffH
	DD	01H
	DD	00H
	DD	077H
	DD	01d1H
	DD	018c8cH
	DD	00H
	DD	0ffffffffH
	DD	01H
	DD	00H
	DD	08eH
	DD	01b3H
	DD	018c86H
	DD	00H
	DD	0ffffffffH
	DD	01H
	DD	00H
	DD	0a6H
	DD	01abH
	DD	018c8dH
	DD	00H
	DD	0ffffffffH
	DD	01H
	DD	00H
	DD	09fH
	DD	017fH
	DD	018c8eH
	DD	00H
	DD	0ffffffffH
	DD	01H
	DD	00H
	DD	02fH
	DD	09cH
	DD	018c86H
	DD	00H
	DD	0ffffffffH
	DD	01H
	DD	00H
	DD	02fH
	DD	084H
	DD	018c8fH
	DD	00H
	DD	0ffffffffH
	DD	01H
	DD	00H
	DD	024H
	DD	07bH
	DD	018c86H
	DD	00H
	DD	0ffffffffH
	DD	01H
	DD	00H
	DD	03dH
	DD	0a2H
	DD	018c8dH
	DD	00H
	DD	0ffffffffH
	DD	01H
	DD	00H
	DD	04fH
	DD	091H
	DD	018c86H
	DD	00H
	DD	0ffffffffH
	DD	01H
	DD	00H
	DD	05dH
	DD	09dH
	DD	018c86H
	DD	00H
	DD	0ffffffffH
	DD	01H
	DD	00H
	DD	06bH
	DD	09aH
	DD	018c87H
	DD	00H
	DD	0ffffffffH
	DD	01H
	DD	00H
	DD	076H
	DD	0a5H
	DD	018c86H
	DD	00H
	DD	0ffffffffH
	DD	01H
	DD	00H
	DD	085H
	DD	0a4H
	DD	018c8fH
	DD	00H
	DD	0ffffffffH
	DD	01H
	DD	00H
	DD	08aH
	DD	0b0H
	DD	018c86H
	DD	00H
	DD	0ffffffffH
	DD	01H
	DD	00H
	DD	092H
	DD	0cdH
	DD	018c86H
	DD	00H
	DD	0ffffffffH
	DD	01H
	DD	00H
	DD	0a2H
	DD	0d3H
	DD	018c8cH
	DD	00H
	DD	0ffffffffH
	DD	01H
	DD	00H
	DD	0aaH
	DD	0caH
	DD	018c86H
	DD	00H
	DD	0ffffffffH
	DD	01H
	DD	00H
	DD	082H
	DD	0b5H
	DD	018cdbH
	DD	00H
	DD	0ffffffffH
	DD	02H
	DD	00H
	DD	0113H
	DD	0ffH
	DD	018cddH
	DD	00H
	DD	0ffffffffH
	DD	02H
	DD	00H
	DD	07cH
	DD	0a1H
	DD	018cdbH
	DD	00H
	DD	0ffffffffH
	DD	02H
	DD	00H
	DD	0105H
	DD	0109H
	DD	018cddH
	DD	00H
	DD	0ffffffffH
	DD	02H
	DD	00H
	DD	0f3H
	DD	05aH
	DD	018cdbH
	DD	00H
	DD	0ffffffffH
	DD	02H
	DD	00H
	DD	0e2H
	DD	0faH
	DD	018cddH
	DD	00H
	DD	0ffffffffH
	DD	02H
	DD	00H
	DD	010dH
	DD	049H
	DD	018cdbH
	DD	00H
	DD	0ffffffffH
	DD	02H
	DD	00H
	DD	0d4H
	DD	0f9H
	DD	018cddH
	DD	00H
	DD	0ffffffffH
	DD	02H
	DD	00H
	DD	0124H
	DD	037H
	DD	018cdbH
	DD	00H
	DD	0ffffffffH
	DD	02H
	DD	00H
	DD	0b6H
	DD	0faH
	DD	018cddH
	DD	00H
	DD	0ffffffffH
	DD	02H
	DD	00H
	DD	0133H
	DD	06cH
	DD	018cdbH
	DD	00H
	DD	0ffffffffH
	DD	02H
	DD	00H
	DD	0a9H
	DD	0104H
	DD	018cddH
	DD	00H
	DD	0ffffffffH
	DD	02H
	DD	00H
	DD	0133H
	DD	066H
	DD	018cdbH
	DD	00H
	DD	0ffffffffH
	DD	02H
	DD	00H
	DD	093H
	DD	0106H
	DD	018cddH
	DD	00H
	DD	0ffffffffH
	DD	02H
	DD	00H
	DD	0b7H
	DD	05fH
	DD	018cdbH
	DD	00H
	DD	0ffffffffH
	DD	02H
	DD	00H
	DD	079H
	DD	0119H
	DD	018cddH
	DD	00H
	DD	0ffffffffH
	DD	02H
	DD	00H
	DD	09cH
	DD	038H
	DD	018cdbH
	DD	00H
	DD	0ffffffffH
	DD	02H
	DD	00H
	DD	06dH
	DD	0121H
	DD	018cddH
	DD	00H
	DD	0ffffffffH
	DD	02H
	DD	00H
	DD	089H
	DD	0b7H
	DD	018cdbH
	DD	00H
	DD	0ffffffffH
	DD	02H
	DD	00H
	DD	067H
	DD	0129H
	DD	018cddH
	DD	00H
	DD	0ffffffffH
	DD	02H
	DD	00H
	DD	085H
	DD	0a7H
	DD	018cdbH
	DD	00H
	DD	0ffffffffH
	DD	02H
	DD	00H
	DD	02eH
	DD	0140H
	DD	018cddH
	DD	00H
	DD	0ffffffffH
	DD	02H
	DD	00H
	DD	082H
	DD	0a3H
	DD	018cdbH
	DD	00H
	DD	0ffffffffH
	DD	02H
	DD	00H
	DD	03fH
	DD	0152H
	DD	018cddH
	DD	00H
	DD	0ffffffffH
	DD	02H
	DD	00H
	DD	070H
	DD	0a4H
	DD	018cdbH
	DD	00H
	DD	0ffffffffH
	DD	02H
	DD	00H
	DD	032H
	DD	0168H
	DD	018cddH
	DD	00H
	DD	0ffffffffH
	DD	02H
	DD	00H
	DD	052H
	DD	097H
	DD	018cdbH
	DD	00H
	DD	0ffffffffH
	DD	02H
	DD	00H
	DD	05cH
	DD	016dH
	DD	018cddH
	DD	00H
	DD	0ffffffffH
	DD	02H
	DD	00H
	DD	042H
	DD	09aH
	DD	018cdbH
	DD	00H
	DD	0ffffffffH
	DD	02H
	DD	00H
	DD	07aH
	DD	017cH
	DD	018cddH
	DD	00H
	DD	0ffffffffH
	DD	02H
	DD	00H
	DD	02fH
	DD	084H
	DD	018cdbH
	DD	00H
	DD	0ffffffffH
	DD	02H
	DD	00H
	DD	097H
	DD	0199H
	DD	018cddH
	DD	00H
	DD	0ffffffffH
	DD	02H
	DD	00H
	DD	02bH
	DD	082H
	DD	018cdbH
	DD	00H
	DD	0ffffffffH
	DD	02H
	DD	00H
	DD	0a2H
	DD	01a0H
	DD	018cddH
	DD	00H
	DD	0ffffffffH
	DD	02H
	DD	00H
	DD	034H
	DD	08cH
	DD	018cdbH
	DD	00H
	DD	0ffffffffH
	DD	02H
	DD	00H
	DD	0d1H
	DD	0171H
	DD	018cddH
	DD	00H
	DD	0ffffffffH
	DD	02H
	DD	00H
	DD	04cH
	DD	09bH
	DD	018cdbH
	DD	00H
	DD	0ffffffffH
	DD	02H
	DD	00H
	DD	0c0H
	DD	0152H
	DD	018cddH
	DD	00H
	DD	0ffffffffH
	DD	02H
	DD	00H
	DD	078H
	DD	0a9H
	DD	018cdbH
	DD	00H
	DD	0ffffffffH
	DD	02H
	DD	00H
	DD	0a5H
	DD	013bH
	DD	018cddH
	DD	00H
	DD	0ffffffffH
	DD	02H
	DD	00H
	DD	094H
	DD	0dcH
	DD	018cdbH
	DD	00H
	DD	0ffffffffH
	DD	02H
	DD	00H
	DD	0a6H
	DD	0157H
	DD	018cddH
	DD	00H
	DD	0ffffffffH
	DD	02H
	DD	00H
	DD	0e1H
	DD	0afH
	DD	018cdbH
	DD	00H
	DD	0ffffffffH
	DD	02H
	DD	00H
	DD	0c7H
	DD	0193H
	DD	018cddH
	DD	00H
	DD	0ffffffffH
	DD	02H
	DD	00H
	DD	0f4H
	DD	090H
	DD	018cdbH
	DD	00H
	DD	0ffffffffH
	DD	02H
	DD	00H
	DD	0abH
	DD	0198H
	DD	018cddH
	DD	00H
	DD	0ffffffffH
	DD	02H
	DD	00H
	DD	0e5H
	DD	067H
	DD	018cdbH
	DD	00H
	DD	0ffffffffH
	DD	02H
	DD	00H
	DD	091H
	DD	0196H
	DD	018cddH
	DD	00H
	DD	0ffffffffH
	DD	02H
	DD	00H
	DD	0eeH
	DD	06eH
	DD	018cdbH
	DD	00H
	DD	0ffffffffH
	DD	02H
	DD	00H
	DD	0a4H
	DD	01cdH
	DD	018cddH
	DD	00H
	DD	0ffffffffH
	DD	02H
	DD	00H
	DD	063H
	DD	058H
	DD	018cdbH
	DD	00H
	DD	0ffffffffH
	DD	02H
	DD	00H
	DD	0bcH
	DD	01fcH
	DD	018cddH
	DD	00H
	DD	0ffffffffH
	DD	02H
	DD	00H
	DD	086H
	DD	050H
	DD	018cdbH
	DD	00H
	DD	0ffffffffH
	DD	02H
	DD	00H
	DD	09eH
	DD	01c9H
	DD	018cddH
	DD	00H
	DD	0ffffffffH
	DD	02H
	DD	00H
	DD	0cfH
	DD	02eH
	DD	018cdbH
	DD	00H
	DD	0ffffffffH
	DD	02H
	DD	00H
	DD	094H
	DD	01e7H
	DD	018cddH
	DD	00H
	DD	0ffffffffH
	DD	02H
	DD	00H
	DD	013bH
	DD	02bH
	DD	018cdbH
	DD	00H
	DD	0ffffffffH
	DD	02H
	DD	00H
	DD	067H
	DD	01ccH
	DD	018cddH
	DD	00H
	DD	0ffffffffH
	DD	02H
	DD	00H
	DD	0151H
	DD	024H
	DD	018cdbH
	DD	00H
	DD	0ffffffffH
	DD	02H
	DD	00H
	DD	06fH
	DD	01beH
	DD	018cddH
	DD	00H
	DD	0ffffffffH
	DD	02H
	DD	00H
	DD	0161H
	DD	04bH
	DD	018cdbH
	DD	00H
	DD	0ffffffffH
	DD	02H
	DD	00H
	DD	07eH
	DD	01bbH
	DD	018cddH
	DD	00H
	DD	0ffffffffH
	DD	02H
	DD	00H
	DD	0167H
	DD	05aH
	DD	018cdbH
	DD	00H
	DD	0ffffffffH
	DD	02H
	DD	00H
	DD	084H
	DD	0199H
	DD	018cddH
	DD	00H
	DD	0ffffffffH
	DD	02H
	DD	00H
	DD	0167H
	DD	064H
	DD	018cdbH
	DD	00H
	DD	0ffffffffH
	DD	02H
	DD	00H
	DD	06eH
	DD	017eH
	DD	018cddH
	DD	00H
	DD	0ffffffffH
	DD	02H
	DD	00H
	DD	0163H
	DD	064H
	DD	018cdbH
	DD	00H
	DD	0ffffffffH
	DD	02H
	DD	00H
	DD	017aH
	DD	0baH
	DD	018cddH
	DD	00H
	DD	0ffffffffH
	DD	02H
	DD	00H
	DD	015fH
	DD	098H
	DD	018cdbH
	DD	00H
	DD	0ffffffffH
	DD	02H
	DD	00H
	DD	0172H
	DD	0d1H
	DD	018cddH
	DD	00H
	DD	0ffffffffH
	DD	02H
	DD	00H
	DD	0168H
	DD	09dH
	DD	018cdbH
	DD	00H
	DD	0ffffffffH
	DD	02H
	DD	00H
	DD	015dH
	DD	0e1H
	DD	018cddH
	DD	00H
	DD	0ffffffffH
	DD	02H
	DD	00H
	DD	0172H
	DD	0aaH
	DD	018cdbH
	DD	00H
	DD	0ffffffffH
	DD	02H
	DD	00H
	DD	0155H
	DD	0eaH
	DD	018cddH
	DD	00H
	DD	0ffffffffH
	DD	02H
	DD	00H
	DD	012cH
	DD	0feH
	DD	018cdbH
	DD	00H
	DD	0ffffffffH
	DD	02H
	DD	00H
	DD	0137H
	DD	0efH
	DD	018cddH
	DD	00H
	DD	0ffffffffH
	DD	02H
	DD	00H
	DD	081H
	DD	0b9H
	DD	018cdaH
	DD	00H
	DD	0ffffffffH
	DD	02H
	DD	00H
	DD	016fH
	DD	0ccH
	DD	018cdcH
	DD	00H
	DD	0ffffffffH
	DD	02H
	DD	00H
	DD	085H
	DD	0a0H
	DD	018cdaH
	DD	00H
	DD	0ffffffffH
	DD	02H
	DD	00H
	DD	0154H
	DD	0ddH
	DD	018cdcH
	DD	00H
	DD	0ffffffffH
	DD	02H
	DD	00H
	DD	0f8H
	DD	057H
	DD	018cdaH
	DD	00H
	DD	0ffffffffH
	DD	02H
	DD	00H
	DD	014aH
	DD	0e3H
	DD	018cdcH
	DD	00H
	DD	0ffffffffH
	DD	02H
	DD	00H
	DD	0106H
	DD	024H
	DD	018cdaH
	DD	00H
	DD	0ffffffffH
	DD	02H
	DD	00H
	DD	013cH
	DD	0faH
	DD	018cdcH
	DD	00H
	DD	0ffffffffH
	DD	02H
	DD	00H
	DD	0100H
	DD	053H
	DD	018cdaH
	DD	00H
	DD	0ffffffffH
	DD	02H
	DD	00H
	DD	0123H
	DD	0faH
	DD	018cdcH
	DD	00H
	DD	0ffffffffH
	DD	02H
	DD	00H
	DD	0139H
	DD	073H
	DD	018cdaH
	DD	00H
	DD	0ffffffffH
	DD	02H
	DD	00H
	DD	0114H
	DD	0105H
	DD	018cdcH
	DD	00H
	DD	0ffffffffH
	DD	02H
	DD	00H
	DD	012fH
	DD	06eH
	DD	018cdaH
	DD	00H
	DD	0ffffffffH
	DD	02H
	DD	00H
	DD	0fcH
	DD	0105H
	DD	018cdcH
	DD	00H
	DD	0ffffffffH
	DD	02H
	DD	00H
	DD	0adH
	DD	053H
	DD	018cdaH
	DD	00H
	DD	0ffffffffH
	DD	02H
	DD	00H
	DD	0deH
	DD	0f9H
	DD	018cdcH
	DD	00H
	DD	0ffffffffH
	DD	02H
	DD	00H
	DD	08eH
	DD	057H
	DD	018cdaH
	DD	00H
	DD	0ffffffffH
	DD	02H
	DD	00H
	DD	0d1H
	DD	0f9H
	DD	018cdcH
	DD	00H
	DD	0ffffffffH
	DD	02H
	DD	00H
	DD	0fcH
	DD	07eH
	DD	018cdaH
	DD	00H
	DD	0ffffffffH
	DD	02H
	DD	00H
	DD	0b3H
	DD	0f8H
	DD	018cdcH
	DD	00H
	DD	0ffffffffH
	DD	02H
	DD	00H
	DD	0ddH
	DD	0b3H
	DD	018cdaH
	DD	00H
	DD	0ffffffffH
	DD	02H
	DD	00H
	DD	0a7H
	DD	0100H
	DD	018cdcH
	DD	00H
	DD	0ffffffffH
	DD	02H
	DD	00H
	DD	0c7H
	DD	0b6H
	DD	018cdaH
	DD	00H
	DD	0ffffffffH
	DD	02H
	DD	00H
	DD	08eH
	DD	0105H
	DD	018cdcH
	DD	00H
	DD	0ffffffffH
	DD	02H
	DD	00H
	DD	060H
	DD	095H
	DD	018cdaH
	DD	00H
	DD	0ffffffffH
	DD	02H
	DD	00H
	DD	071H
	DD	0116H
	DD	018cdcH
	DD	00H
	DD	0ffffffffH
	DD	02H
	DD	00H
	DD	055H
	DD	08dH
	DD	018cdaH
	DD	00H
	DD	0ffffffffH
	DD	02H
	DD	00H
	DD	067H
	DD	0120H
	DD	018cdcH
	DD	00H
	DD	0ffffffffH
	DD	02H
	DD	00H
	DD	03dH
	DD	09dH
	DD	018cdaH
	DD	00H
	DD	0ffffffffH
	DD	02H
	DD	00H
	DD	054H
	DD	0133H
	DD	018cdcH
	DD	00H
	DD	0ffffffffH
	DD	02H
	DD	00H
	DD	027H
	DD	087H
	DD	018cdaH
	DD	00H
	DD	0ffffffffH
	DD	02H
	DD	00H
	DD	02eH
	DD	0144H
	DD	018cdcH
	DD	00H
	DD	0ffffffffH
	DD	02H
	DD	00H
	DD	028H
	DD	083H
	DD	018cdaH
	DD	00H
	DD	0ffffffffH
	DD	02H
	DD	00H
	DD	03fH
	DD	0157H
	DD	018cdcH
	DD	00H
	DD	0ffffffffH
	DD	02H
	DD	00H
	DD	037H
	DD	094H
	DD	018cdaH
	DD	00H
	DD	0ffffffffH
	DD	02H
	DD	00H
	DD	035H
	DD	016bH
	DD	018cdcH
	DD	00H
	DD	0ffffffffH
	DD	02H
	DD	00H
	DD	05cH
	DD	093H
	DD	018cdaH
	DD	00H
	DD	0ffffffffH
	DD	02H
	DD	00H
	DD	064H
	DD	0171H
	DD	018cdcH
	DD	00H
	DD	0ffffffffH
	DD	02H
	DD	00H
	DD	081H
	DD	0b0H
	DD	018cdaH
	DD	00H
	DD	0ffffffffH
	DD	02H
	DD	00H
	DD	087H
	DD	0186H
	DD	018cdcH
	DD	00H
	DD	0ffffffffH
	DD	02H
	DD	00H
	DD	097H
	DD	0d0H
	DD	018cdaH
	DD	00H
	DD	0ffffffffH
	DD	02H
	DD	00H
	DD	099H
	DD	0197H
	DD	018cdcH
	DD	00H
	DD	0ffffffffH
	DD	02H
	DD	00H
	DD	0e5H
	DD	0a6H
	DD	018cdaH
	DD	00H
	DD	0ffffffffH
	DD	02H
	DD	00H
	DD	0a9H
	DD	01a3H
	DD	018cdcH
	DD	00H
	DD	0ffffffffH
	DD	02H
	DD	00H
	DD	0feH
	DD	084H
	DD	018cdaH
	DD	00H
	DD	0ffffffffH
	DD	02H
	DD	00H
	DD	0d4H
	DD	0172H
	DD	018cdcH
	DD	00H
	DD	0ffffffffH
	DD	02H
	DD	00H
	DD	0135H
	DD	06dH
	DD	018cdaH
	DD	00H
	DD	0ffffffffH
	DD	02H
	DD	00H
	DD	0c4H
	DD	0152H
	DD	018cdcH
	DD	00H
	DD	0ffffffffH
	DD	02H
	DD	00H
	DD	0ecH
	DD	04cH
	DD	018cdaH
	DD	00H
	DD	0ffffffffH
	DD	02H
	DD	00H
	DD	0a1H
	DD	0141H
	DD	018cdcH
	DD	00H
	DD	0ffffffffH
	DD	02H
	DD	00H
	DD	06fH
	DD	059H
	DD	018cdaH
	DD	00H
	DD	0ffffffffH
	DD	02H
	DD	00H
	DD	0b8H
	DD	014fH
	DD	018cdcH
	DD	00H
	DD	0ffffffffH
	DD	02H
	DD	00H
	DD	089H
	DD	04cH
	DD	018cdaH
	DD	00H
	DD	0ffffffffH
	DD	02H
	DD	00H
	DD	0b6H
	DD	019aH
	DD	018cdcH
	DD	00H
	DD	0ffffffffH
	DD	02H
	DD	00H
	DD	010dH
	DD	039H
	DD	018cdaH
	DD	00H
	DD	0ffffffffH
	DD	02H
	DD	00H
	DD	0b3H
	DD	01a9H
	DD	018cdcH
	DD	00H
	DD	0ffffffffH
	DD	02H
	DD	00H
	DD	0134H
	DD	028H
	DD	018cdaH
	DD	00H
	DD	0ffffffffH
	DD	02H
	DD	00H
	DD	097H
	DD	018fH
	DD	018cdcH
	DD	00H
	DD	0ffffffffH
	DD	02H
	DD	00H
	DD	0159H
	DD	03cH
	DD	018cdaH
	DD	00H
	DD	0ffffffffH
	DD	02H
	DD	00H
	DD	0a7H
	DD	01e7H
	DD	018cdcH
	DD	00H
	DD	0ffffffffH
	DD	02H
	DD	00H
	DD	015aH
	DD	04fH
	DD	018cdaH
	DD	00H
	DD	0ffffffffH
	DD	02H
	DD	00H
	DD	0bbH
	DD	0204H
	DD	018cdcH
	DD	00H
	DD	0ffffffffH
	DD	02H
	DD	00H
	DD	0167H
	DD	062H
	DD	018cdaH
	DD	00H
	DD	0ffffffffH
	DD	02H
	DD	00H
	DD	06aH
	DD	01e8H
	DD	018cdcH
	DD	00H
	DD	0ffffffffH
	DD	02H
	DD	00H
	DD	0175H
	DD	06eH
	DD	018cdaH
	DD	00H
	DD	0ffffffffH
	DD	02H
	DD	00H
	DD	08fH
	DD	01e7H
	DD	018cdcH
	DD	00H
	DD	0ffffffffH
	DD	02H
	DD	00H
	DD	0175H
	DD	06aH
	DD	018cdaH
	DD	00H
	DD	0ffffffffH
	DD	02H
	DD	00H
	DD	06aH
	DD	01c7H
	DD	018cdcH
	DD	00H
	DD	0ffffffffH
	DD	02H
	DD	00H
	DD	0164H
	DD	098H
	DD	018cdaH
	DD	00H
	DD	0ffffffffH
	DD	02H
	DD	00H
	DD	068H
	DD	01caH
	DD	018cdcH
	DD	00H
	DD	0ffffffffH
	DD	02H
	DD	00H
	DD	016dH
	DD	09aH
	DD	018cdaH
	DD	00H
	DD	0ffffffffH
	DD	02H
	DD	00H
	DD	092H
	DD	01acH
	DD	018cdcH
	DD	00H
	DD	0ffffffffH
	DD	02H
	DD	00H
	DD	0168H
	DD	0a9H
	DD	018cdaH
	DD	00H
	DD	0ffffffffH
	DD	02H
	DD	00H
	DD	080H
	DD	0195H
	DD	018cdcH
	DD	00H
	DD	0ffffffffH
	DD	02H
	DD	00H
	DD	0175H
	DD	0baH
	DD	018cdaH
	DD	00H
	DD	0ffffffffH
	DD	02H
	DD	00H
	DD	05cH
	DD	017dH
	DD	018cdcH
	DD	00H
	DD	0ffffffffH
	DD	02H
	DD	00H
	DD	094H
	DD	0c7H
	DD	018cdeH
	DD	00H
	DD	0ffffffffH
	DD	02H
	DD	00H
	DD	0164H
	DD	0daH
	DD	018ce0H
	DD	00H
	DD	0ffffffffH
	DD	02H
	DD	00H
	DD	078H
	DD	09eH
	DD	018cdeH
	DD	00H
	DD	0ffffffffH
	DD	02H
	DD	00H
	DD	0151H
	DD	0deH
	DD	018ce0H
	DD	00H
	DD	0ffffffffH
	DD	02H
	DD	00H
	DD	0ebH
	DD	04eH
	DD	018cdeH
	DD	00H
	DD	0ffffffffH
	DD	02H
	DD	00H
	DD	013fH
	DD	0e9H
	DD	018ce0H
	DD	00H
	DD	0ffffffffH
	DD	02H
	DD	00H
	DD	011eH
	DD	031H
	DD	018cdeH
	DD	00H
	DD	0ffffffffH
	DD	02H
	DD	00H
	DD	0131H
	DD	0f2H
	DD	018ce0H
	DD	00H
	DD	0ffffffffH
	DD	02H
	DD	00H
	DD	0174H
	DD	079H
	DD	018cdeH
	DD	00H
	DD	0ffffffffH
	DD	02H
	DD	00H
	DD	0119H
	DD	0104H
	DD	018ce0H
	DD	00H
	DD	0ffffffffH
	DD	02H
	DD	00H
	DD	015aH
	DD	03eH
	DD	018cdeH
	DD	00H
	DD	0ffffffffH
	DD	02H
	DD	00H
	DD	010fH
	DD	0106H
	DD	018ce0H
	DD	00H
	DD	0ffffffffH
	DD	02H
	DD	00H
	DD	0145H
	DD	050H
	DD	018cdeH
	DD	00H
	DD	0ffffffffH
	DD	02H
	DD	00H
	DD	0f3H
	DD	0f6H
	DD	018ce0H
	DD	00H
	DD	0ffffffffH
	DD	02H
	DD	00H
	DD	09cH
	DD	034H
	DD	018cdeH
	DD	00H
	DD	0ffffffffH
	DD	02H
	DD	00H
	DD	0dfH
	DD	0faH
	DD	018ce0H
	DD	00H
	DD	0ffffffffH
	DD	02H
	DD	00H
	DD	09fH
	DD	04aH
	DD	018cdeH
	DD	00H
	DD	0ffffffffH
	DD	02H
	DD	00H
	DD	0caH
	DD	0f7H
	DD	018ce0H
	DD	00H
	DD	0ffffffffH
	DD	02H
	DD	00H
	DD	0f0H
	DD	099H
	DD	018cdeH
	DD	00H
	DD	0ffffffffH
	DD	02H
	DD	00H
	DD	0afH
	DD	0101H
	DD	018ce0H
	DD	00H
	DD	0ffffffffH
	DD	02H
	DD	00H
	DD	0ccH
	DD	0b0H
	DD	018cdeH
	DD	00H
	DD	0ffffffffH
	DD	02H
	DD	00H
	DD	0a3H
	DD	0100H
	DD	018ce0H
	DD	00H
	DD	0ffffffffH
	DD	02H
	DD	00H
	DD	0bdH
	DD	0bdH
	DD	018cdeH
	DD	00H
	DD	0ffffffffH
	DD	02H
	DD	00H
	DD	087H
	DD	0107H
	DD	018ce0H
	DD	00H
	DD	0ffffffffH
	DD	02H
	DD	00H
	DD	058H
	DD	08eH
	DD	018cdeH
	DD	00H
	DD	0ffffffffH
	DD	02H
	DD	00H
	DD	071H
	DD	0120H
	DD	018ce0H
	DD	00H
	DD	0ffffffffH
	DD	02H
	DD	00H
	DD	04cH
	DD	093H
	DD	018cdeH
	DD	00H
	DD	0ffffffffH
	DD	02H
	DD	00H
	DD	063H
	DD	0123H
	DD	018ce0H
	DD	00H
	DD	0ffffffffH
	DD	02H
	DD	00H
	DD	03aH
	DD	08cH
	DD	018cdeH
	DD	00H
	DD	0ffffffffH
	DD	02H
	DD	00H
	DD	04cH
	DD	013eH
	DD	018ce0H
	DD	00H
	DD	0ffffffffH
	DD	02H
	DD	00H
	DD	027H
	DD	077H
	DD	018cdeH
	DD	00H
	DD	0ffffffffH
	DD	02H
	DD	00H
	DD	045H
	DD	0145H
	DD	018ce0H
	DD	00H
	DD	0ffffffffH
	DD	02H
	DD	00H
	DD	01bH
	DD	07dH
	DD	018cdeH
	DD	00H
	DD	0ffffffffH
	DD	02H
	DD	00H
	DD	04aH
	DD	0162H
	DD	018ce0H
	DD	00H
	DD	0ffffffffH
	DD	02H
	DD	00H
	DD	03cH
	DD	09eH
	DD	018cdeH
	DD	00H
	DD	0ffffffffH
	DD	02H
	DD	00H
	DD	04dH
	DD	0165H
	DD	018ce0H
	DD	00H
	DD	0ffffffffH
	DD	02H
	DD	00H
	DD	064H
	DD	09dH
	DD	018cdeH
	DD	00H
	DD	0ffffffffH
	DD	02H
	DD	00H
	DD	064H
	DD	0177H
	DD	018ce0H
	DD	00H
	DD	0ffffffffH
	DD	02H
	DD	00H
	DD	08dH
	DD	0c0H
	DD	018cdeH
	DD	00H
	DD	0ffffffffH
	DD	02H
	DD	00H
	DD	07eH
	DD	0193H
	DD	018ce0H
	DD	00H
	DD	0ffffffffH
	DD	02H
	DD	00H
	DD	0bdH
	DD	0c4H
	DD	018cdeH
	DD	00H
	DD	0ffffffffH
	DD	02H
	DD	00H
	DD	0a0H
	DD	018fH
	DD	018ce0H
	DD	00H
	DD	0ffffffffH
	DD	02H
	DD	00H
	DD	0f4H
	DD	0a0H
	DD	018cdeH
	DD	00H
	DD	0ffffffffH
	DD	02H
	DD	00H
	DD	0b0H
	DD	01b1H
	DD	018ce0H
	DD	00H
	DD	0ffffffffH
	DD	02H
	DD	00H
	DD	0102H
	DD	074H
	DD	018cdeH
	DD	00H
	DD	0ffffffffH
	DD	02H
	DD	00H
	DD	0cdH
	DD	016cH
	DD	018ce0H
	DD	00H
	DD	0ffffffffH
	DD	02H
	DD	00H
	DD	0131H
	DD	071H
	DD	018cdeH
	DD	00H
	DD	0ffffffffH
	DD	02H
	DD	00H
	DD	0bfH
	DD	014aH
	DD	018ce0H
	DD	00H
	DD	0ffffffffH
	DD	02H
	DD	00H
	DD	0a9H
	DD	067H
	DD	018cdeH
	DD	00H
	DD	0ffffffffH
	DD	02H
	DD	00H
	DD	096H
	DD	0149H
	DD	018ce0H
	DD	00H
	DD	0ffffffffH
	DD	02H
	DD	00H
	DD	083H
	DD	054H
	DD	018cdeH
	DD	00H
	DD	0ffffffffH
	DD	02H
	DD	00H
	DD	0baH
	DD	0158H
	DD	018ce0H
	DD	00H
	DD	0ffffffffH
	DD	02H
	DD	00H
	DD	0c4H
	DD	061H
	DD	018cdeH
	DD	00H
	DD	0ffffffffH
	DD	02H
	DD	00H
	DD	0b7H
	DD	019dH
	DD	018ce0H
	DD	00H
	DD	0ffffffffH
	DD	02H
	DD	00H
	DD	011dH
	DD	031H
	DD	018cdeH
	DD	00H
	DD	0ffffffffH
	DD	02H
	DD	00H
	DD	0afH
	DD	01b2H
	DD	018ce0H
	DD	00H
	DD	0ffffffffH
	DD	02H
	DD	00H
	DD	014aH
	DD	018H
	DD	018cdeH
	DD	00H
	DD	0ffffffffH
	DD	02H
	DD	00H
	DD	0a2H
	DD	01ceH
	DD	018ce0H
	DD	00H
	DD	0ffffffffH
	DD	02H
	DD	00H
	DD	0163H
	DD	046H
	DD	018cdeH
	DD	00H
	DD	0ffffffffH
	DD	02H
	DD	00H
	DD	0a5H
	DD	01f4H
	DD	018ce0H
	DD	00H
	DD	0ffffffffH
	DD	02H
	DD	00H
	DD	0148H
	DD	03cH
	DD	018cdeH
	DD	00H
	DD	0ffffffffH
	DD	02H
	DD	00H
	DD	0b4H
	DD	01feH
	DD	018ce0H
	DD	00H
	DD	0ffffffffH
	DD	02H
	DD	00H
	DD	0170H
	DD	068H
	DD	018cdeH
	DD	00H
	DD	0ffffffffH
	DD	02H
	DD	00H
	DD	089H
	DD	01e9H
	DD	018ce0H
	DD	00H
	DD	0ffffffffH
	DD	02H
	DD	00H
	DD	0173H
	DD	076H
	DD	018cdeH
	DD	00H
	DD	0ffffffffH
	DD	02H
	DD	00H
	DD	082H
	DD	01ebH
	DD	018ce0H
	DD	00H
	DD	0ffffffffH
	DD	02H
	DD	00H
	DD	0167H
	DD	08aH
	DD	018cdeH
	DD	00H
	DD	0ffffffffH
	DD	02H
	DD	00H
	DD	072H
	DD	01bbH
	DD	018ce0H
	DD	00H
	DD	0ffffffffH
	DD	02H
	DD	00H
	DD	0167H
	DD	0aaH
	DD	018cdeH
	DD	00H
	DD	0ffffffffH
	DD	02H
	DD	00H
	DD	063H
	DD	01d6H
	DD	018ce0H
	DD	00H
	DD	0ffffffffH
	DD	02H
	DD	00H
	DD	015dH
	DD	083H
	DD	018cdeH
	DD	00H
	DD	0ffffffffH
	DD	02H
	DD	00H
	DD	084H
	DD	019eH
	DD	018ce0H
	DD	00H
	DD	0ffffffffH
	DD	02H
	DD	00H
	DD	0174H
	DD	0b1H
	DD	018cdeH
	DD	00H
	DD	0ffffffffH
	DD	02H
	DD	00H
	DD	089H
	DD	0188H
	DD	018ce0H
	DD	00H
	DD	0ffffffffH
	DD	02H
	DD	00H
	DD	017dH
	DD	0cbH
	DD	018cdeH
	DD	00H
	DD	0ffffffffH
	DD	02H
	DD	00H
	DD	04fH
	DD	0176H
	DD	018ce0H
	DD	00H
	DD	0ffffffffH
	DD	02H
	DD	00H
	DD	08dH
	DD	0caH
	DD	018cdfH
	DD	00H
	DD	0ffffffffH
	DD	02H
	DD	00H
	DD	0166H
	DD	0d2H
	DD	018ce1H
	DD	00H
	DD	0ffffffffH
	DD	02H
	DD	00H
	DD	07dH
	DD	0a2H
	DD	018cdfH
	DD	00H
	DD	0ffffffffH
	DD	02H
	DD	00H
	DD	0158H
	DD	0e6H
	DD	018ce1H
	DD	00H
	DD	0ffffffffH
	DD	02H
	DD	00H
	DD	0f3H
	DD	05eH
	DD	018cdfH
	DD	00H
	DD	0ffffffffH
	DD	02H
	DD	00H
	DD	0146H
	DD	0e5H
	DD	018ce1H
	DD	00H
	DD	0ffffffffH
	DD	02H
	DD	00H
	DD	011cH
	DD	02eH
	DD	018cdfH
	DD	00H
	DD	0ffffffffH
	DD	02H
	DD	00H
	DD	013eH
	DD	0f8H
	DD	018ce1H
	DD	00H
	DD	0ffffffffH
	DD	02H
	DD	00H
	DD	013dH
	DD	07eH
	DD	018cdfH
	DD	00H
	DD	0ffffffffH
	DD	02H
	DD	00H
	DD	0120H
	DD	0fcH
	DD	018ce1H
	DD	00H
	DD	0ffffffffH
	DD	02H
	DD	00H
	DD	0162H
	DD	04bH
	DD	018cdfH
	DD	00H
	DD	0ffffffffH
	DD	02H
	DD	00H
	DD	0112H
	DD	0ffH
	DD	018ce1H
	DD	00H
	DD	0ffffffffH
	DD	02H
	DD	00H
	DD	013bH
	DD	074H
	DD	018cdfH
	DD	00H
	DD	0ffffffffH
	DD	02H
	DD	00H
	DD	0f3H
	DD	0107H
	DD	018ce1H
	DD	00H
	DD	0ffffffffH
	DD	02H
	DD	00H
	DD	09bH
	DD	049H
	DD	018cdfH
	DD	00H
	DD	0ffffffffH
	DD	02H
	DD	00H
	DD	0e0H
	DD	0fdH
	DD	018ce1H
	DD	00H
	DD	0ffffffffH
	DD	02H
	DD	00H
	DD	0a1H
	DD	04eH
	DD	018cdfH
	DD	00H
	DD	0ffffffffH
	DD	02H
	DD	00H
	DD	0d0H
	DD	0fcH
	DD	018ce1H
	DD	00H
	DD	0ffffffffH
	DD	02H
	DD	00H
	DD	0faH
	DD	08bH
	DD	018cdfH
	DD	00H
	DD	0ffffffffH
	DD	02H
	DD	00H
	DD	0b2H
	DD	0feH
	DD	018ce1H
	DD	00H
	DD	0ffffffffH
	DD	02H
	DD	00H
	DD	0ceH
	DD	0c5H
	DD	018cdfH
	DD	00H
	DD	0ffffffffH
	DD	02H
	DD	00H
	DD	0a0H
	DD	0104H
	DD	018ce1H
	DD	00H
	DD	0ffffffffH
	DD	02H
	DD	00H
	DD	0c3H
	DD	0c0H
	DD	018cdfH
	DD	00H
	DD	0ffffffffH
	DD	02H
	DD	00H
	DD	087H
	DD	0108H
	DD	018ce1H
	DD	00H
	DD	0ffffffffH
	DD	02H
	DD	00H
	DD	05eH
	DD	09bH
	DD	018cdfH
	DD	00H
	DD	0ffffffffH
	DD	02H
	DD	00H
	DD	070H
	DD	0119H
	DD	018ce1H
	DD	00H
	DD	0ffffffffH
	DD	02H
	DD	00H
	DD	04dH
	DD	099H
	DD	018cdfH
	DD	00H
	DD	0ffffffffH
	DD	02H
	DD	00H
	DD	067H
	DD	0128H
	DD	018ce1H
	DD	00H
	DD	0ffffffffH
	DD	02H
	DD	00H
	DD	037H
	DD	092H
	DD	018cdfH
	DD	00H
	DD	0ffffffffH
	DD	02H
	DD	00H
	DD	04fH
	DD	0136H
	DD	018ce1H
	DD	00H
	DD	0ffffffffH
	DD	02H
	DD	00H
	DD	02dH
	DD	07aH
	DD	018cdfH
	DD	00H
	DD	0ffffffffH
	DD	02H
	DD	00H
	DD	042H
	DD	0148H
	DD	018ce1H
	DD	00H
	DD	0ffffffffH
	DD	02H
	DD	00H
	DD	027H
	DD	078H
	DD	018cdfH
	DD	00H
	DD	0ffffffffH
	DD	02H
	DD	00H
	DD	044H
	DD	015fH
	DD	018ce1H
	DD	00H
	DD	0ffffffffH
	DD	02H
	DD	00H
	DD	030H
	DD	09dH
	DD	018cdfH
	DD	00H
	DD	0ffffffffH
	DD	02H
	DD	00H
	DD	04aH
	DD	0161H
	DD	018ce1H
	DD	00H
	DD	0ffffffffH
	DD	02H
	DD	00H
	DD	063H
	DD	097H
	DD	018cdfH
	DD	00H
	DD	0ffffffffH
	DD	02H
	DD	00H
	DD	06bH
	DD	0176H
	DD	018ce1H
	DD	00H
	DD	0ffffffffH
	DD	02H
	DD	00H
	DD	088H
	DD	0b6H
	DD	018cdfH
	DD	00H
	DD	0ffffffffH
	DD	02H
	DD	00H
	DD	08aH
	DD	0189H
	DD	018ce1H
	DD	00H
	DD	0ffffffffH
	DD	02H
	DD	00H
	DD	0adH
	DD	0cbH
	DD	018cdfH
	DD	00H
	DD	0ffffffffH
	DD	02H
	DD	00H
	DD	0a3H
	DD	018fH
	DD	018ce1H
	DD	00H
	DD	0ffffffffH
	DD	02H
	DD	00H
	DD	0dfH
	DD	0a0H
	DD	018cdfH
	DD	00H
	DD	0ffffffffH
	DD	02H
	DD	00H
	DD	0abH
	DD	019bH
	DD	018ce1H
	DD	00H
	DD	0ffffffffH
	DD	02H
	DD	00H
	DD	0feH
	DD	079H
	DD	018cdfH
	DD	00H
	DD	0ffffffffH
	DD	02H
	DD	00H
	DD	0d6H
	DD	017fH
	DD	018ce1H
	DD	00H
	DD	0ffffffffH
	DD	02H
	DD	00H
	DD	013bH
	DD	076H
	DD	018cdfH
	DD	00H
	DD	0ffffffffH
	DD	02H
	DD	00H
	DD	0c0H
	DD	014aH
	DD	018ce1H
	DD	00H
	DD	0ffffffffH
	DD	02H
	DD	00H
	DD	0eaH
	DD	045H
	DD	018cdfH
	DD	00H
	DD	0ffffffffH
	DD	02H
	DD	00H
	DD	09bH
	DD	0142H
	DD	018ce1H
	DD	00H
	DD	0ffffffffH
	DD	02H
	DD	00H
	DD	07bH
	DD	058H
	DD	018cdfH
	DD	00H
	DD	0ffffffffH
	DD	02H
	DD	00H
	DD	0b7H
	DD	0150H
	DD	018ce1H
	DD	00H
	DD	0ffffffffH
	DD	02H
	DD	00H
	DD	0a4H
	DD	050H
	DD	018cdfH
	DD	00H
	DD	0ffffffffH
	DD	02H
	DD	00H
	DD	0b6H
	DD	01a5H
	DD	018ce1H
	DD	00H
	DD	0ffffffffH
	DD	02H
	DD	00H
	DD	011cH
	DD	02dH
	DD	018cdfH
	DD	00H
	DD	0ffffffffH
	DD	02H
	DD	00H
	DD	0afH
	DD	01aeH
	DD	018ce1H
	DD	00H
	DD	0ffffffffH
	DD	02H
	DD	00H
	DD	014dH
	DD	01eH
	DD	018cdfH
	DD	00H
	DD	0ffffffffH
	DD	02H
	DD	00H
	DD	096H
	DD	019fH
	DD	018ce1H
	DD	00H
	DD	0ffffffffH
	DD	02H
	DD	00H
	DD	0160H
	DD	03eH
	DD	018cdfH
	DD	00H
	DD	0ffffffffH
	DD	02H
	DD	00H
	DD	0a9H
	DD	01f2H
	DD	018ce1H
	DD	00H
	DD	0ffffffffH
	DD	02H
	DD	00H
	DD	014fH
	DD	053H
	DD	018cdfH
	DD	00H
	DD	0ffffffffH
	DD	02H
	DD	00H
	DD	0bcH
	DD	0205H
	DD	018ce1H
	DD	00H
	DD	0ffffffffH
	DD	02H
	DD	00H
	DD	016bH
	DD	064H
	DD	018cdfH
	DD	00H
	DD	0ffffffffH
	DD	02H
	DD	00H
	DD	076H
	DD	01ecH
	DD	018ce1H
	DD	00H
	DD	0ffffffffH
	DD	02H
	DD	00H
	DD	0172H
	DD	067H
	DD	018cdfH
	DD	00H
	DD	0ffffffffH
	DD	02H
	DD	00H
	DD	088H
	DD	01eaH
	DD	018ce1H
	DD	00H
	DD	0ffffffffH
	DD	02H
	DD	00H
	DD	0152H
	DD	05bH
	DD	018cdfH
	DD	00H
	DD	0ffffffffH
	DD	02H
	DD	00H
	DD	071H
	DD	01beH
	DD	018ce1H
	DD	00H
	DD	0ffffffffH
	DD	02H
	DD	00H
	DD	0167H
	DD	099H
	DD	018cdfH
	DD	00H
	DD	0ffffffffH
	DD	02H
	DD	00H
	DD	06eH
	DD	01d0H
	DD	018ce1H
	DD	00H
	DD	0ffffffffH
	DD	02H
	DD	00H
	DD	016bH
	DD	0a2H
	DD	018cdfH
	DD	00H
	DD	0ffffffffH
	DD	02H
	DD	00H
	DD	086H
	DD	01a8H
	DD	018ce1H
	DD	00H
	DD	0ffffffffH
	DD	02H
	DD	00H
	DD	0175H
	DD	0abH
	DD	018cdfH
	DD	00H
	DD	0ffffffffH
	DD	02H
	DD	00H
	DD	07fH
	DD	0193H
	DD	018ce1H
	DD	00H
	DD	0ffffffffH
	DD	02H
	DD	00H
	DD	0181H
	DD	0c0H
	DD	018cdfH
	DD	00H
	DD	0ffffffffH
	DD	02H
	DD	00H
	DD	055H
	DD	0179H
	DD	018ce1H
	DD	00H
	DD	0ffffffffH
	DD	02H
	DD	00H
	DD	088H
	DD	0adH
	DD	018ce3H
	DD	00H
	DD	0ffffffffH
	DD	02H
	DD	00H
	DD	015dH
	DD	0d5H
	DD	018ce5H
	DD	00H
	DD	0ffffffffH
	DD	02H
	DD	00H
	DD	076H
	DD	09eH
	DD	018ce3H
	DD	00H
	DD	0ffffffffH
	DD	02H
	DD	00H
	DD	0153H
	DD	0e1H
	DD	018ce5H
	DD	00H
	DD	0ffffffffH
	DD	02H
	DD	00H
	DD	0e3H
	DD	04bH
	DD	018ce3H
	DD	00H
	DD	0ffffffffH
	DD	02H
	DD	00H
	DD	0142H
	DD	0f4H
	DD	018ce5H
	DD	00H
	DD	0ffffffffH
	DD	02H
	DD	00H
	DD	011eH
	DD	039H
	DD	018ce3H
	DD	00H
	DD	0ffffffffH
	DD	02H
	DD	00H
	DD	012bH
	DD	0f7H
	DD	018ce5H
	DD	00H
	DD	0ffffffffH
	DD	02H
	DD	00H
	DD	0161H
	DD	05aH
	DD	018ce3H
	DD	00H
	DD	0ffffffffH
	DD	02H
	DD	00H
	DD	0119H
	DD	0102H
	DD	018ce5H
	DD	00H
	DD	0ffffffffH
	DD	02H
	DD	00H
	DD	0142H
	DD	046H
	DD	018ce3H
	DD	00H
	DD	0ffffffffH
	DD	02H
	DD	00H
	DD	0110H
	DD	0100H
	DD	018ce5H
	DD	00H
	DD	0ffffffffH
	DD	02H
	DD	00H
	DD	0160H
	DD	028H
	DD	018ce3H
	DD	00H
	DD	0ffffffffH
	DD	02H
	DD	00H
	DD	0e6H
	DD	0f9H
	DD	018ce5H
	DD	00H
	DD	0ffffffffH
	DD	02H
	DD	00H
	DD	09bH
	DD	034H
	DD	018ce3H
	DD	00H
	DD	0ffffffffH
	DD	02H
	DD	00H
	DD	0d8H
	DD	0f8H
	DD	018ce5H
	DD	00H
	DD	0ffffffffH
	DD	02H
	DD	00H
	DD	098H
	DD	047H
	DD	018ce3H
	DD	00H
	DD	0ffffffffH
	DD	02H
	DD	00H
	DD	0beH
	DD	0f3H
	DD	018ce5H
	DD	00H
	DD	0ffffffffH
	DD	02H
	DD	00H
	DD	0eaH
	DD	0a8H
	DD	018ce3H
	DD	00H
	DD	0ffffffffH
	DD	02H
	DD	00H
	DD	0acH
	DD	0ffH
	DD	018ce5H
	DD	00H
	DD	0ffffffffH
	DD	02H
	DD	00H
	DD	0c7H
	DD	0beH
	DD	018ce3H
	DD	00H
	DD	0ffffffffH
	DD	02H
	DD	00H
	DD	096H
	DD	0102H
	DD	018ce5H
	DD	00H
	DD	0ffffffffH
	DD	02H
	DD	00H
	DD	0afH
	DD	0cbH
	DD	018ce3H
	DD	00H
	DD	0ffffffffH
	DD	02H
	DD	00H
	DD	075H
	DD	010fH
	DD	018ce5H
	DD	00H
	DD	0ffffffffH
	DD	02H
	DD	00H
	DD	055H
	DD	08dH
	DD	018ce3H
	DD	00H
	DD	0ffffffffH
	DD	02H
	DD	00H
	DD	06dH
	DD	011cH
	DD	018ce5H
	DD	00H
	DD	0ffffffffH
	DD	02H
	DD	00H
	DD	048H
	DD	097H
	DD	018ce3H
	DD	00H
	DD	0ffffffffH
	DD	02H
	DD	00H
	DD	064H
	DD	012dH
	DD	018ce5H
	DD	00H
	DD	0ffffffffH
	DD	02H
	DD	00H
	DD	02cH
	DD	08bH
	DD	018ce3H
	DD	00H
	DD	0ffffffffH
	DD	02H
	DD	00H
	DD	04bH
	DD	013bH
	DD	018ce5H
	DD	00H
	DD	0ffffffffH
	DD	02H
	DD	00H
	DD	02dH
	DD	07aH
	DD	018ce3H
	DD	00H
	DD	0ffffffffH
	DD	02H
	DD	00H
	DD	04aH
	DD	0137H
	DD	018ce5H
	DD	00H
	DD	0ffffffffH
	DD	02H
	DD	00H
	DD	01dH
	DD	074H
	DD	018ce3H
	DD	00H
	DD	0ffffffffH
	DD	02H
	DD	00H
	DD	03dH
	DD	016fH
	DD	018ce5H
	DD	00H
	DD	0ffffffffH
	DD	02H
	DD	00H
	DD	048H
	DD	097H
	DD	018ce3H
	DD	00H
	DD	0ffffffffH
	DD	02H
	DD	00H
	DD	030H
	DD	015aH
	DD	018ce5H
	DD	00H
	DD	0ffffffffH
	DD	02H
	DD	00H
	DD	073H
	DD	09dH
	DD	018ce3H
	DD	00H
	DD	0ffffffffH
	DD	02H
	DD	00H
	DD	06fH
	DD	0178H
	DD	018ce5H
	DD	00H
	DD	0ffffffffH
	DD	02H
	DD	00H
	DD	09aH
	DD	0caH
	DD	018ce3H
	DD	00H
	DD	0ffffffffH
	DD	02H
	DD	00H
	DD	08eH
	DD	018dH
	DD	018ce5H
	DD	00H
	DD	0ffffffffH
	DD	02H
	DD	00H
	DD	0d4H
	DD	0b7H
	DD	018ce3H
	DD	00H
	DD	0ffffffffH
	DD	02H
	DD	00H
	DD	0a2H
	DD	018eH
	DD	018ce5H
	DD	00H
	DD	0ffffffffH
	DD	02H
	DD	00H
	DD	0f4H
	DD	09dH
	DD	018ce3H
	DD	00H
	DD	0ffffffffH
	DD	02H
	DD	00H
	DD	0bcH
	DD	0181H
	DD	018ce5H
	DD	00H
	DD	0ffffffffH
	DD	02H
	DD	00H
	DD	0100H
	DD	069H
	DD	018ce3H
	DD	00H
	DD	0ffffffffH
	DD	02H
	DD	00H
	DD	0c7H
	DD	016bH
	DD	018ce5H
	DD	00H
	DD	0ffffffffH
	DD	02H
	DD	00H
	DD	0119H
	DD	071H
	DD	018ce3H
	DD	00H
	DD	0ffffffffH
	DD	02H
	DD	00H
	DD	0bcH
	DD	0142H
	DD	018ce5H
	DD	00H
	DD	0ffffffffH
	DD	02H
	DD	00H
	DD	09aH
	DD	049H
	DD	018ce3H
	DD	00H
	DD	0ffffffffH
	DD	02H
	DD	00H
	DD	0a1H
	DD	014aH
	DD	018ce5H
	DD	00H
	DD	0ffffffffH
	DD	02H
	DD	00H
	DD	094H
	DD	049H
	DD	018ce3H
	DD	00H
	DD	0ffffffffH
	DD	02H
	DD	00H
	DD	0b9H
	DD	0185H
	DD	018ce5H
	DD	00H
	DD	0ffffffffH
	DD	02H
	DD	00H
	DD	0fcH
	DD	029H
	DD	018ce3H
	DD	00H
	DD	0ffffffffH
	DD	02H
	DD	00H
	DD	0adH
	DD	01aeH
	DD	018ce5H
	DD	00H
	DD	0ffffffffH
	DD	02H
	DD	00H
	DD	0128H
	DD	03bH
	DD	018ce3H
	DD	00H
	DD	0ffffffffH
	DD	02H
	DD	00H
	DD	086H
	DD	01b4H
	DD	018ce5H
	DD	00H
	DD	0ffffffffH
	DD	02H
	DD	00H
	DD	0138H
	DD	043H
	DD	018ce3H
	DD	00H
	DD	0ffffffffH
	DD	02H
	DD	00H
	DD	0bdH
	DD	01d6H
	DD	018ce5H
	DD	00H
	DD	0ffffffffH
	DD	02H
	DD	00H
	DD	0160H
	DD	03eH
	DD	018ce3H
	DD	00H
	DD	0ffffffffH
	DD	02H
	DD	00H
	DD	0b8H
	DD	01faH
	DD	018ce5H
	DD	00H
	DD	0ffffffffH
	DD	02H
	DD	00H
	DD	014dH
	DD	056H
	DD	018ce3H
	DD	00H
	DD	0ffffffffH
	DD	02H
	DD	00H
	DD	0a4H
	DD	01f3H
	DD	018ce5H
	DD	00H
	DD	0ffffffffH
	DD	02H
	DD	00H
	DD	0173H
	DD	071H
	DD	018ce3H
	DD	00H
	DD	0ffffffffH
	DD	02H
	DD	00H
	DD	09cH
	DD	01e6H
	DD	018ce5H
	DD	00H
	DD	0ffffffffH
	DD	02H
	DD	00H
	DD	018dH
	DD	083H
	DD	018ce3H
	DD	00H
	DD	0ffffffffH
	DD	02H
	DD	00H
	DD	06eH
	DD	01ebH
	DD	018ce5H
	DD	00H
	DD	0ffffffffH
	DD	02H
	DD	00H
	DD	0161H
	DD	084H
	DD	018ce3H
	DD	00H
	DD	0ffffffffH
	DD	02H
	DD	00H
	DD	075H
	DD	01b6H
	DD	018ce5H
	DD	00H
	DD	0ffffffffH
	DD	02H
	DD	00H
	DD	016bH
	DD	0a4H
	DD	018ce3H
	DD	00H
	DD	0ffffffffH
	DD	02H
	DD	00H
	DD	063H
	DD	01e0H
	DD	018ce5H
	DD	00H
	DD	0ffffffffH
	DD	02H
	DD	00H
	DD	016dH
	DD	0a5H
	DD	018ce3H
	DD	00H
	DD	0ffffffffH
	DD	02H
	DD	00H
	DD	08eH
	DD	018eH
	DD	018ce5H
	DD	00H
	DD	0ffffffffH
	DD	02H
	DD	00H
	DD	0175H
	DD	0b8H
	DD	018ce3H
	DD	00H
	DD	0ffffffffH
	DD	02H
	DD	00H
	DD	069H
	DD	0181H
	DD	018ce5H
	DD	00H
	DD	0ffffffffH
	DD	02H
	DD	00H
	DD	0174H
	DD	0b9H
	DD	018ce3H
	DD	00H
	DD	0ffffffffH
	DD	02H
	DD	00H
	DD	047H
	DD	0173H
	DD	018ce5H
	DD	00H
	DD	0ffffffffH
	DD	02H
	DD	00H
	DD	09aH
	DD	0c8H
	DD	018ce2H
	DD	00H
	DD	0ffffffffH
	DD	02H
	DD	00H
	DD	015dH
	DD	0d3H
	DD	018ce4H
	DD	00H
	DD	0ffffffffH
	DD	02H
	DD	00H
	DD	077H
	DD	09dH
	DD	018ce2H
	DD	00H
	DD	0ffffffffH
	DD	02H
	DD	00H
	DD	0159H
	DD	0e7H
	DD	018ce4H
	DD	00H
	DD	0ffffffffH
	DD	02H
	DD	00H
	DD	0efH
	DD	052H
	DD	018ce2H
	DD	00H
	DD	0ffffffffH
	DD	02H
	DD	00H
	DD	0146H
	DD	0f3H
	DD	018ce4H
	DD	00H
	DD	0ffffffffH
	DD	02H
	DD	00H
	DD	0122H
	DD	03bH
	DD	018ce2H
	DD	00H
	DD	0ffffffffH
	DD	02H
	DD	00H
	DD	0138H
	DD	0f8H
	DD	018ce4H
	DD	00H
	DD	0ffffffffH
	DD	02H
	DD	00H
	DD	0166H
	DD	063H
	DD	018ce2H
	DD	00H
	DD	0ffffffffH
	DD	02H
	DD	00H
	DD	0119H
	DD	0fdH
	DD	018ce4H
	DD	00H
	DD	0ffffffffH
	DD	02H
	DD	00H
	DD	0148H
	DD	045H
	DD	018ce2H
	DD	00H
	DD	0ffffffffH
	DD	02H
	DD	00H
	DD	0109H
	DD	0101H
	DD	018ce4H
	DD	00H
	DD	0ffffffffH
	DD	02H
	DD	00H
	DD	0102H
	DD	025H
	DD	018ce2H
	DD	00H
	DD	0ffffffffH
	DD	02H
	DD	00H
	DD	0ebH
	DD	0f7H
	DD	018ce4H
	DD	00H
	DD	0ffffffffH
	DD	02H
	DD	00H
	DD	099H
	DD	033H
	DD	018ce2H
	DD	00H
	DD	0ffffffffH
	DD	02H
	DD	00H
	DD	0dbH
	DD	0f8H
	DD	018ce4H
	DD	00H
	DD	0ffffffffH
	DD	02H
	DD	00H
	DD	099H
	DD	048H
	DD	018ce2H
	DD	00H
	DD	0ffffffffH
	DD	02H
	DD	00H
	DD	0c5H
	DD	0f4H
	DD	018ce4H
	DD	00H
	DD	0ffffffffH
	DD	02H
	DD	00H
	DD	084H
	DD	0bbH
	DD	018ce2H
	DD	00H
	DD	0ffffffffH
	DD	02H
	DD	00H
	DD	0aeH
	DD	0fcH
	DD	018ce4H
	DD	00H
	DD	0ffffffffH
	DD	02H
	DD	00H
	DD	083H
	DD	0b3H
	DD	018ce2H
	DD	00H
	DD	0ffffffffH
	DD	02H
	DD	00H
	DD	0a1H
	DD	0101H
	DD	018ce4H
	DD	00H
	DD	0ffffffffH
	DD	02H
	DD	00H
	DD	078H
	DD	0a9H
	DD	018ce2H
	DD	00H
	DD	0ffffffffH
	DD	02H
	DD	00H
	DD	083H
	DD	010fH
	DD	018ce4H
	DD	00H
	DD	0ffffffffH
	DD	02H
	DD	00H
	DD	065H
	DD	097H
	DD	018ce2H
	DD	00H
	DD	0ffffffffH
	DD	02H
	DD	00H
	DD	06cH
	DD	011dH
	DD	018ce4H
	DD	00H
	DD	0ffffffffH
	DD	02H
	DD	00H
	DD	047H
	DD	09eH
	DD	018ce2H
	DD	00H
	DD	0ffffffffH
	DD	02H
	DD	00H
	DD	061H
	DD	0126H
	DD	018ce4H
	DD	00H
	DD	0ffffffffH
	DD	02H
	DD	00H
	DD	03aH
	DD	08bH
	DD	018ce2H
	DD	00H
	DD	0ffffffffH
	DD	02H
	DD	00H
	DD	04bH
	DD	0137H
	DD	018ce4H
	DD	00H
	DD	0ffffffffH
	DD	02H
	DD	00H
	DD	01dH
	DD	080H
	DD	018ce2H
	DD	00H
	DD	0ffffffffH
	DD	02H
	DD	00H
	DD	047H
	DD	0137H
	DD	018ce4H
	DD	00H
	DD	0ffffffffH
	DD	02H
	DD	00H
	DD	014H
	DD	077H
	DD	018ce2H
	DD	00H
	DD	0ffffffffH
	DD	02H
	DD	00H
	DD	04dH
	DD	0164H
	DD	018ce4H
	DD	00H
	DD	0ffffffffH
	DD	02H
	DD	00H
	DD	043H
	DD	09cH
	DD	018ce2H
	DD	00H
	DD	0ffffffffH
	DD	02H
	DD	00H
	DD	02fH
	DD	015dH
	DD	018ce4H
	DD	00H
	DD	0ffffffffH
	DD	02H
	DD	00H
	DD	06cH
	DD	09dH
	DD	018ce2H
	DD	00H
	DD	0ffffffffH
	DD	02H
	DD	00H
	DD	057H
	DD	0174H
	DD	018ce4H
	DD	00H
	DD	0ffffffffH
	DD	02H
	DD	00H
	DD	095H
	DD	0c8H
	DD	018ce2H
	DD	00H
	DD	0ffffffffH
	DD	02H
	DD	00H
	DD	080H
	DD	0196H
	DD	018ce4H
	DD	00H
	DD	0ffffffffH
	DD	02H
	DD	00H
	DD	0bbH
	DD	0beH
	DD	018ce2H
	DD	00H
	DD	0ffffffffH
	DD	02H
	DD	00H
	DD	08dH
	DD	018cH
	DD	018ce4H
	DD	00H
	DD	0ffffffffH
	DD	02H
	DD	00H
	DD	0eeH
	DD	09dH
	DD	018ce2H
	DD	00H
	DD	0ffffffffH
	DD	02H
	DD	00H
	DD	0b0H
	DD	01b2H
	DD	018ce4H
	DD	00H
	DD	0ffffffffH
	DD	02H
	DD	00H
	DD	010eH
	DD	078H
	DD	018ce2H
	DD	00H
	DD	0ffffffffH
	DD	02H
	DD	00H
	DD	0c8H
	DD	0166H
	DD	018ce4H
	DD	00H
	DD	0ffffffffH
	DD	02H
	DD	00H
	DD	010fH
	DD	078H
	DD	018ce2H
	DD	00H
	DD	0ffffffffH
	DD	02H
	DD	00H
	DD	0bbH
	DD	0146H
	DD	018ce4H
	DD	00H
	DD	0ffffffffH
	DD	02H
	DD	00H
	DD	09bH
	DD	039H
	DD	018ce2H
	DD	00H
	DD	0ffffffffH
	DD	02H
	DD	00H
	DD	097H
	DD	014eH
	DD	018ce4H
	DD	00H
	DD	0ffffffffH
	DD	02H
	DD	00H
	DD	08cH
	DD	058H
	DD	018ce2H
	DD	00H
	DD	0ffffffffH
	DD	02H
	DD	00H
	DD	0b6H
	DD	0194H
	DD	018ce4H
	DD	00H
	DD	0ffffffffH
	DD	02H
	DD	00H
	DD	0f0H
	DD	046H
	DD	018ce2H
	DD	00H
	DD	0ffffffffH
	DD	02H
	DD	00H
	DD	0a5H
	DD	01a3H
	DD	018ce4H
	DD	00H
	DD	0ffffffffH
	DD	02H
	DD	00H
	DD	011fH
	DD	033H
	DD	018ce2H
	DD	00H
	DD	0ffffffffH
	DD	02H
	DD	00H
	DD	086H
	DD	01b6H
	DD	018ce4H
	DD	00H
	DD	0ffffffffH
	DD	02H
	DD	00H
	DD	012eH
	DD	039H
	DD	018ce2H
	DD	00H
	DD	0ffffffffH
	DD	02H
	DD	00H
	DD	0b6H
	DD	01d7H
	DD	018ce4H
	DD	00H
	DD	0ffffffffH
	DD	02H
	DD	00H
	DD	0163H
	DD	040H
	DD	018ce2H
	DD	00H
	DD	0ffffffffH
	DD	02H
	DD	00H
	DD	0aeH
	DD	01f7H
	DD	018ce4H
	DD	00H
	DD	0ffffffffH
	DD	02H
	DD	00H
	DD	0156H
	DD	05dH
	DD	018ce2H
	DD	00H
	DD	0ffffffffH
	DD	02H
	DD	00H
	DD	0baH
	DD	01f9H
	DD	018ce4H
	DD	00H
	DD	0ffffffffH
	DD	02H
	DD	00H
	DD	0171H
	DD	06bH
	DD	018ce2H
	DD	00H
	DD	0ffffffffH
	DD	02H
	DD	00H
	DD	094H
	DD	01e7H
	DD	018ce4H
	DD	00H
	DD	0ffffffffH
	DD	02H
	DD	00H
	DD	0174H
	DD	07bH
	DD	018ce2H
	DD	00H
	DD	0ffffffffH
	DD	02H
	DD	00H
	DD	078H
	DD	01ebH
	DD	018ce4H
	DD	00H
	DD	0ffffffffH
	DD	02H
	DD	00H
	DD	0163H
	DD	08aH
	DD	018ce2H
	DD	00H
	DD	0ffffffffH
	DD	02H
	DD	00H
	DD	075H
	DD	01b6H
	DD	018ce4H
	DD	00H
	DD	0ffffffffH
	DD	02H
	DD	00H
	DD	016eH
	DD	0a1H
	DD	018ce2H
	DD	00H
	DD	0ffffffffH
	DD	02H
	DD	00H
	DD	062H
	DD	01dbH
	DD	018ce4H
	DD	00H
	DD	0ffffffffH
	DD	02H
	DD	00H
	DD	016bH
	DD	0a3H
	DD	018ce2H
	DD	00H
	DD	0ffffffffH
	DD	02H
	DD	00H
	DD	084H
	DD	019bH
	DD	018ce4H
	DD	00H
	DD	0ffffffffH
	DD	02H
	DD	00H
	DD	0171H
	DD	0b5H
	DD	018ce2H
	DD	00H
	DD	0ffffffffH
	DD	02H
	DD	00H
	DD	06eH
	DD	0187H
	DD	018ce4H
	DD	00H
	DD	0ffffffffH
	DD	02H
	DD	00H
	DD	0176H
	DD	0bdH
	DD	018ce2H
	DD	00H
	DD	0ffffffffH
	DD	02H
	DD	00H
	DD	051H
	DD	0175H
	DD	018ce4H
	DD	00H
	DD	0ffffffffH
	DD	02H
	DD	00H
	ORG $+112
?sStreetVendorBtnGraNo@@3PAHA DD 0d73dH			; sStreetVendorBtnGraNo
	DD	0d73cH
?chatRoomBtnGraNo@@3PAHA DD 06756H			; chatRoomBtnGraNo
	DD	06755H
?menuBtnGraNo@@3PAHA DD 065f5H				; menuBtnGraNo
	DD	065f6H
?cardBtnGraNo@@3PAHA DD 065f7H				; cardBtnGraNo
	DD	065f8H
?tradeBtnGraNo@@3PAHA DD 0667aH				; tradeBtnGraNo
	DD	0667bH
?angelBtnGraNo@@3PAHA DD 089c9H				; angelBtnGraNo
	DD	089c8H
?channelWNFlag@@3FA DW 01H				; channelWNFlag
	ORG $+2
?channelBtnGraNo@@3PAHA DD 0667dH			; channelBtnGraNo
	DD	0667eH
?partyBtnEnableFlag@@3FA DW 01H				; partyBtnEnableFlag
	ORG $+2
?partyBtnGraNo@@3PAHA DD 065f9H				; partyBtnGraNo
	DD	065faH
?helpBtnGraNo@@3PAHA DD 0d7c6H				; helpBtnGraNo
	DD	0d7c5H
?joinBattleBtnEnableFlag@@3FA DW 01H			; joinBattleBtnEnableFlag
	ORG $+2
?joinBattleHelpMsgFlag@@3FA DW 01H			; joinBattleHelpMsgFlag
	ORG $+2
?joinBattleBtnGraNo@@3PAHA DD 065ffH			; joinBattleBtnGraNo
	DD	06600H
?duelBtnGraNo@@3PAHA DD 06601H				; duelBtnGraNo
	DD	06602H
?actBtnGraNo@@3PAHA DD 06603H				; actBtnGraNo
	DD	06604H
?amPmAnimeGraNo@@3PAHA DD 06606H			; amPmAnimeGraNo
	DD	06607H
	DD	06608H
	DD	06605H
?ridelistBtnGraNo@@3PAHA DD 0d7c8H			; ridelistBtnGraNo
	DD	0d7c9H
?vipshopBtnGraNo@@3PAHA DD 0d73dH			; vipshopBtnGraNo
	DD	0d73cH
?iTeacherSystemBtnGraNo@@3PAHA DD 06f8bH		; iTeacherSystemBtnGraNo
	DD	06f8aH
?channelName@@3PAY0BE@DA DB ' ', 0baH, 0ceH, 0c1H, 0b7H, 0c7H, 0c1H, 0b7H
	DB	0ceH, 0c7H, 0caH, ' ', 00H			; channelName
	ORG $+7
	DB	' ', 0c1H, 0b7H, 0c0H, 0e5H, 0b1H, 0e2H, 0b4H, 0c9H, ' ', 00H
	ORG $+9
	DB	0baH, 0ceH, 0c1H, 0b7H, 0b0H, 0d4H, 0bdH, 0c3H, 0c6H, 0c7H
	DB	00H
	ORG $+9
	DB	' ', 0c3H, 0a4H, ' ', 0b3H, 0ceH, ' ', 0c1H, 0beH, ' ', 0b7H
	DB	0e1H, ' ', 00H
	ORG $+6
	DB	00H
	ORG $+19
?pageStr@@3PAY09DA DB 0c0H, 0ccH, 0c0H, 0fcH, 00H	; pageStr
	ORG $+5
	DB	0b4H, 0d9H, 0c0H, 0bdH, 00H
	ORG $+5
_DATA	ENDS
PUBLIC	___local_stdio_printf_options
PUBLIC	_sprintf
PUBLIC	__snprintf
PUBLIC	?initFieldProc@@YAXXZ				; initFieldProc
PUBLIC	?resetFieldProc@@YAXXZ				; resetFieldProc
PUBLIC	?fieldProc@@YAXXZ				; fieldProc
PUBLIC	?fieldProc2@@YAXXZ				; fieldProc2
PUBLIC	?drawField@@YAXXZ				; drawField
PUBLIC	?checkFieldMenuFlag@@YAHXZ			; checkFieldMenuFlag
PUBLIC	?closeCharActionAnimeChange@@YAXXZ		; closeCharActionAnimeChange
PUBLIC	?closeEtcSwitch@@YAXXZ				; closeEtcSwitch
PUBLIC	?closeJoinChannelWN@@YAXXZ			; closeJoinChannelWN
PUBLIC	?disconnectServer@@YAHXZ			; disconnectServer
PUBLIC	?drawFieldInfoWin@@YAXXZ			; drawFieldInfoWin
PUBLIC	?actionShortCutKeyProc@@YAXXZ			; actionShortCutKeyProc
PUBLIC	?SpecAnim@@YAXH@Z				; SpecAnim
PUBLIC	?ReleaseSpecAnim@@YAXXZ				; ReleaseSpecAnim
PUBLIC	?TeacherSystemWndfunc@@YAXHPAD@Z		; TeacherSystemWndfunc
PUBLIC	?SellPriceWndfunc@@YAHXZ			; SellPriceWndfunc
PUBLIC	?GetEmptyShowSellItem@@YAPAU_Show_Sell_Item@@PAU1@@Z ; GetEmptyShowSellItem
PUBLIC	?StreetVendorWndfunc@@YAX_NPAD@Z		; StreetVendorWndfunc
PUBLIC	?StreetVendorBuyWndfunc@@YAXPAD@Z		; StreetVendorBuyWndfunc
PUBLIC	?initCharActionAnimeChange@@YAXXZ		; initCharActionAnimeChange
PUBLIC	?charActionAnimeChange@@YAHXZ			; charActionAnimeChange
PUBLIC	?initEtcSwitch@@YAXXZ				; initEtcSwitch
PUBLIC	?etcSwitch@@YAHXZ				; etcSwitch
PUBLIC	?initJoinChannelWN@@YAXXZ			; initJoinChannelWN
PUBLIC	?joinChannelWN@@YAXXZ				; joinChannelWN
PUBLIC	?initJoinChannel2WN@@YAXPAD@Z			; initJoinChannel2WN
PUBLIC	?closeJoinChannel2WN@@YAXXZ			; closeJoinChannel2WN
PUBLIC	?joinChannel2WN@@YAXXZ				; joinChannel2WN
PUBLIC	?leaderFuncWN@@YAXXZ				; leaderFuncWN
PUBLIC	?crossAniRelease@@YAXXZ				; crossAniRelease
PUBLIC	?ImmobileAniRelease@@YAXXZ			; ImmobileAniRelease
PUBLIC	?AniRandomRelease@@YAXXZ			; AniRandomRelease
PUBLIC	?ReadAniFile@@YAHH@Z				; ReadAniFile
PUBLIC	?_OptionsStorage@?1??__local_stdio_printf_options@@9@4_KA ; `__local_stdio_printf_options'::`2'::_OptionsStorage
PUBLIC	??_C@_02DKCKIIND@?$CFs@				; `string'
PUBLIC	??_C@_01MMEEDKFM@X@				; `string'
PUBLIC	??_C@_0O@MNFNNHCK@?$CF?920sx?$CF3d?$CF13s@	; `string'
PUBLIC	??_C@_0O@MINOFDLM@?$CF?920sx?$CF3d?$CF13d@	; `string'
PUBLIC	??_C@_03CAPDGGPL@?$DP?K?$MA@			; `string'
PUBLIC	??_C@_0O@OKDFECEM@?$CF?917s?$CF?912s?$CF8s@	; `string'
PUBLIC	??_C@_0O@OPLGMGNK@?$CF?917s?$CF?912s?$CF8d@	; `string'
PUBLIC	??_C@_00CNPNBAHC@@				; `string'
PUBLIC	??_C@_09CGALFHNJ@?$CFd?$HM?$CFd?$HM?$CFd?$HM@	; `string'
PUBLIC	??_C@_0P@DJCPLGCF@?$LO?n?$LM?$KN?$LP?$MA?$LN?J?$LN?C?$LP?$MA?$CB?$CB@ ; `string'
PUBLIC	??_C@_09KAHBFCEF@S?$HM?$CFd?$HM?$CFs?$CFs@	; `string'
PUBLIC	??_C@_06EFALBHEL@R?$HMP?$HM?91@			; `string'
PUBLIC	??_C@_02PFGFFPDM@E?$HM@				; `string'
PUBLIC	??_C@_04MPOIGBFL@SELL@				; `string'
PUBLIC	??_C@_03IFADCKOJ@?$CFd?$HM@			; `string'
PUBLIC	??_C@_07PKADKLEL@B?$HM?$CFd?$HM?$CFs@		; `string'
PUBLIC	??_C@_02PJDALANN@N?$HM@				; `string'
PUBLIC	??_C@_09HBDNCLCF@?G?y?$LL?s?5?$LA?$KB?$LA?$NN@	; `string'
PUBLIC	??_C@_0L@LDFFIDCJ@?$LD?$LL?$LB?$LI?$LH?B?$CI?$CFs?$CJ@ ; `string'
PUBLIC	??_C@_07HLBLNMPK@?$CFd?5?H?$LI?$MA?$PM@		; `string'
PUBLIC	??_C@_06EGBMLAEA@Lv?$KD?$LK?$CFd@		; `string'
PUBLIC	??_C@_06HJFMPHBK@?$LD?$LL?$KD?$LK?$CFd@		; `string'
PUBLIC	??_C@_06MBHIJFEF@?$LA?x?$KD?$LK?$CFd@		; `string'
PUBLIC	??_C@_06GNDMLDHN@?$LJ?f?$KD?$LK?$CFd@		; `string'
PUBLIC	??_C@_06GNIPPDB@?$LM?x?$KD?$LK?$CFd@		; `string'
PUBLIC	??_C@_06LBGNCPKK@?A?v?$KD?$LK?$CFd@		; `string'
PUBLIC	??_C@_06DMNCJOEB@?$LM?v?$KD?$LK?$CFd@		; `string'
PUBLIC	??_C@_06ECLMJCEN@?H?$KN?$KD?$LK?$CFd@		; `string'
PUBLIC	??_C@_06INCIIBEP@?G?$LD?$KD?$LK?$CFd@		; `string'
PUBLIC	??_C@_06CFCEDMBI@?C?f?$KD?$LK?$CFd@		; `string'
PUBLIC	??_C@_0M@LGAMIGJ@?$LB?b?$LM?z?5?$CFd?$KD?$LK?$CFs@ ; `string'
PUBLIC	??_C@_0BA@KFKPCCNN@?$LN?$LK?E?f?$MA?L?5?$LK?N?A?$LH?G?X?$KD?$KB@ ; `string'
PUBLIC	??_C@_0BM@PJIKDD@?$LJ?Y?$LF?p?5?$LO?F?$MA?L?E?$NL?5?$LM?$LN?$LM?G?$MA?L?5?$LK?N?A?$LH?G?X?$KD?$KB@ ; `string'
PUBLIC	??_C@_0CH@BCAEDIAE@?G?y?A?$KE?5?$LA?$KB?$LA?$NN?5?$LJ?$LA?G?$LA?$MA?$LK?5?$MA?O?$MA?O?$MA?L?5?$LA?m?$LI?$KG?5?$LM?v@ ; `string'
PUBLIC	??_C@_05LNGOBBOC@D?$HM?$CFd?$HM@		; `string'
PUBLIC	??_C@_02DPKJAMEF@?$CFd@				; `string'
PUBLIC	??_C@_02PIPCNKOK@O?$HM@				; `string'
PUBLIC	??_C@_02PACKEJLJ@B?$HM@				; `string'
PUBLIC	??_C@_03DDDPELM@D?$HMD@				; `string'
PUBLIC	??_C@_0CB@GPKKMDCO@?$LD?k?A?$KB?$LL?s?$LP?$KB?$LM?$KN?5?$LB?$LD?H?$KP?$MA?$LL?5?G?X?$LM?$KN?$LE?B?5?$LO?H?5?$LF?H?$LE@ ; `string'
PUBLIC	??_C@_02OPIIDOKH@P?$HM@				; `string'
PUBLIC	??_C@_0DA@KIPDLLGN@P?$HM?$LK?N?A?$LH?$LP?$KB?5?$LA?$KB?$MA?T?$LF?G?A?v?5?$LO?J?$LO?F?5?A?$KE?$LK?$LI?$LI?$KG?5?H@ ; `string'
PUBLIC	??_C@_03OAFDEMMP@S?$HMP@			; `string'
PUBLIC	??_C@_0CD@HJEPKLDC@?$MA?L?$LA?w?$LP?$KB?$LM?$KN?5?F?D?F?$LM?$LI?$KG?5?$LB?$LI?$LM?$LK?G?R?5?$LM?v?5?$LO?x?$LN?$MA?$LE@ ; `string'
PUBLIC	??_C@_0BD@KALKBBEH@?$LI?$NO?$LE?$LK?$LI?$KG?5?$LM?$LD?A?$KE?G?U?$LE?O?$LE?Y?4@ ; `string'
PUBLIC	??_C@_0BM@BDLIIEIH@?$LL?s?$LE?k?$LJ?f?$LA?z?5?$LI?m?G?T?$MA?$LL?5?$LB?$LD?H?$KP?G?U?$LE?O?$LE?Y?4@ ; `string'
PUBLIC	??_C@_0BJ@CHLJOFEL@?F?D?F?$LM?$LP?$KB?5?B?$PM?$LP?$KJ?G?R?5?$LM?v?5?$LO?x?$LO?n?$LP?d?4@ ; `string'
PUBLIC	??_C@_0BM@JPNLKOND@?$LL?s?$LE?k?$LJ?f?$MA?G?5?F?D?F?$LM?$LP?$KB?5?B?$PM?$LP?$KJ?G?U?$LE?O?$LE?Y?4@ ; `string'
PUBLIC	??_C@_0BO@NDPFBKJO@?$LL?s?$LE?k?$LJ?f?$LP?$KB?$LA?T?5?$LB?$LD?H?$KP?$MA?$LL?5?$LN?E?C?$LL?G?U?$LE?O?$LE?Y?4@ ; `string'
PUBLIC	??_C@_0CO@MJKCDDG@?F?m?$LI?$KO?G?O?$LA?T?5?$MA?$KH?D?$KB?$LI?$KG?5?$MA?L?$LF?$LP?G?R?$LM?v?$MA?V?$LE?B?5?$LP?v@ ; `string'
PUBLIC	??_C@_0BJ@EEGCGAJN@CHAOS?5?$LM?$KN?$LJ?v?5VIP?$LL?s?A?$KB?$MA?T?$LE?O?$LE?Y@ ; `string'
PUBLIC	??_C@_0BO@GJIBCGFI@?$LL?s?$LE?k?$LJ?f?$LP?$KB?$LA?T?5?$LE?k?$MA?$PM?$MA?$LL?5?$LN?E?C?$LL?G?U?$LE?O?$LE?Y?4@ ; `string'
PUBLIC	??_C@_0BD@KFAJKCNC@?$MA?$PM?E?u?$LP?$KB?5?B?$PM?$LP?$KJ?G?U?$LE?O?$LE?Y?4@ ; `string'
PUBLIC	??_C@_0BJ@NBCGMCO@?$MA?$PM?E?u?$LP?$KB?5?B?$PM?$LP?$KJ?G?R?5?$LM?v?5?$LO?x?$LO?n?$LP?d?4@ ; `string'
PUBLIC	??_C@_0BD@KMDDMCEP@?$MA?$PM?E?u?$LI?$KG?5?$LA?$PM?$MA?$PM?G?U?$LE?O?$LE?Y?4@ ; `string'
PUBLIC	??_C@_0BK@EJDCDLOD@?D?y?$LN?$LK?F?$KO?5?A?$KE?$LK?$LI?$LI?$KG?5?H?$KO?$MA?N?G?U?$LE?O?$LE?Y?4@ ; `string'
PUBLIC	??_C@_0BP@JAGIJNBP@?D?$LD?$LI?$KP?E?M?5?$LO?W?$LM?G?5?A?$KE?$LK?$LI?$LI?$KG?5?H?$KO?$MA?N?G?U?$LE?O?$LE?Y?4@ ; `string'
PUBLIC	??_C@_0CB@NCIEAEIK@?D?$LD?$LI?$KP?E?M?$MA?G?5?E?$LO?$LN?B?5?F?d?F?$KO?$LI?$KG?5?H?$KO?$MA?N?G?U?$LE?O?$LE?Y@ ; `string'
PUBLIC	??_C@_0CD@LEKAGBMD@?G?X?$LE?g?A?v?$LP?$KK?$LP?$KB?5?$MA?V?$LE?B?5?F?D?F?$LM?$LI?$KG?5?$LA?K?$LL?v?G?U?$LE?O@ ; `string'
PUBLIC	??_C@_0L@LEPHHCI@?5?$LO?I?$KB?$KB?$KB?$KB?$LE?Y?5@ ; `string'
PUBLIC	??_C@_0L@LOMDAPBP@?5?$MA?O?$LO?n?$LD?$KK?$LE?Y?5@ ; `string'
PUBLIC	??_C@_0L@FNPFLOKG@?5?$LM?U?H?g?$LF?i?$LE?Y?5@	; `string'
PUBLIC	??_C@_0L@CPNFDNI@?5?$LA?H?$KB?$KB?$KB?$KB?$LE?Y?5@ ; `string'
PUBLIC	??_C@_0L@LFKBOHAB@?5?$MA?N?$LL?g?G?O?$LE?Y?5@	; `string'
PUBLIC	??_C@_0L@BBJFHFFA@?5?$LO?$LC?$LH?$KP?A?v?$LE?Y?5@ ; `string'
PUBLIC	??_C@_0L@HMKFIAIO@?5?$LB?b?$LL?$LF?G?O?$LE?Y?5@	; `string'
PUBLIC	??_C@_0L@EPLKDNIL@?5?$LA?x?$LA?$NN?G?O?$LE?Y?5@	; `string'
PUBLIC	??_C@_0L@DDIKGKGC@?5?H?$KN?$LI?$KG?$LD?$LL?$LE?Y?5@ ; `string'
PUBLIC	??_C@_0L@FLKMCCFP@?5?$LJ?f?$LO?n?G?O?$LE?Y?5@	; `string'
PUBLIC	??_C@_0L@CHKOFNFO@?5?$LN?$LN?F?$NL?G?O?$LE?Y?5@	; `string'
PUBLIC	??_C@_0L@NJDBIKEM@?$LF?$KF?$KB?$KB?$LJ?L?$KB?$KB?A?v@ ; `string'
PUBLIC	??_C@_0L@GOBFHACF@?$LE?x?$KB?$KB?A?v?$KB?$KB?$LE?Y@ ; `string'
PUBLIC	??_C@_0CI@DLPPPDPB@?A?$KG?$MA?Z?$LI?$KO?$LP?$KB?5?$LO?I?$LE?B?5?$LO?W?$LM?G?$MA?$LL?5?C?k?G?U?$LE?O?$LE?Y?4?5@ ; `string'
PUBLIC	??_C@_0CD@HLCPDIKM@?$MA?O?$LO?n?$LM?$KN?$LE?B?5?$LO?W?$LM?G?$MA?$LL?5?C?k?G?U?$LE?O?$LE?Y?4?5?$CICtrl@ ; `string'
PUBLIC	??_C@_0CG@EHJAFDMH@?$LM?U?$MA?$LL?5?H?g?$LF?e?$LE?B?5?$LO?W?$LM?G?$MA?$LL?5?C?k?G?U?$LE?O?$LE?Y?4?5?$CIC@ ; `string'
PUBLIC	??_C@_0BP@OCLIPLAL@?$LA?H?$LE?B?5?$LO?W?$LM?G?$MA?$LL?5?C?k?G?U?$LE?O?$LE?Y?4?5?$CICtrl?$CL8?$CJ@ ; `string'
PUBLIC	??_C@_0CD@KEHHLNJC@?$MA?N?$LL?g?G?O?$LE?B?5?$LO?W?$LM?G?$MA?$LL?5?C?k?G?U?$LE?O?$LE?Y?4?5?$CICtrl@ ; `string'
PUBLIC	??_C@_0CD@JMKADJMO@?$LO?$LC?$LH?$KP?A?v?$LE?B?5?$LO?W?$LM?G?$MA?$LL?5?C?k?G?U?$LE?O?$LE?Y?4?5?$CICtrl@ ; `string'
PUBLIC	??_C@_0CD@CMMPEHFI@?$LB?b?$LL?$LF?G?O?$LE?B?5?$LO?W?$LM?G?$MA?$LL?5?C?k?G?U?$LE?O?$LE?Y?4?5?$CICtrl@ ; `string'
PUBLIC	??_C@_0CD@OMLIKOJM@?$LA?x?$LA?$NN?G?O?$LE?B?5?$LO?W?$LM?G?$MA?$LL?5?C?k?G?U?$LE?O?$LE?Y?4?5?$CICtrl@ ; `string'
PUBLIC	??_C@_0CE@OIDAHAAG@?H?$KN?$LI?$KG?5?$LD?$LL?$LE?B?5?$LO?W?$LM?G?$MA?$LL?5?C?k?G?U?$LE?O?$LE?Y?4?5?$CICtr@ ; `string'
PUBLIC	??_C@_0CD@MIHLAAOD@?$LJ?f?$LO?n?G?O?$LE?B?5?$LO?W?$LM?G?$MA?$LL?5?C?k?G?U?$LE?O?$LE?Y?4?5?$CICtrl@ ; `string'
PUBLIC	??_C@_0CD@NKKFDBOL@?$LN?$LN?F?$NL?G?O?$LE?B?5?$LO?W?$LM?G?$MA?$LL?5?C?k?G?U?$LE?O?$LE?Y?4?5?$CICtrl@ ; `string'
PUBLIC	??_C@_0CG@FILFJCML@?E?$LI?$LA?$NN?$MA?$LL?5?$MA?T?$LE?B?5?$LO?W?$LM?G?$MA?$LL?5?C?k?G?U?$LE?O?$LE?Y?4?5?$CIC@ ; `string'
PUBLIC	??_C@_0CB@DPEEFHJC@?$LE?x?A?v?$LE?B?5?$LO?W?$LM?G?$MA?$LL?5?C?k?G?U?$LE?O?$LE?Y?4?5?$CICtrl?$CL?2@ ; `string'
PUBLIC	??_C@_0L@NHKEOPKL@?$MA?$NL?$LO?w?C?$KC?$LE?$NN?$LB?b@ ; `string'
PUBLIC	??_C@_0L@OLEDJDPG@?F?D?5?5?5?5?F?$LM?$KD?$LK@	; `string'
PUBLIC	??_C@_0L@MAOAOHML@?$LF?$OA?5?5?5?5?$LO?s?$KD?$LK@ ; `string'
PUBLIC	??_C@_0L@POPIGLPO@?$LI?m?G?T?$LB?$LD?H?$KP?$KD?$LK@ ; `string'
PUBLIC	??_C@_0BF@IDENONED@?C?$KE?5?5?5?5?$LD?N?5?5?5?5?$LJ?v?5?5?5?5?F?$LA@ ; `string'
PUBLIC	??_C@_0L@HENHCGEF@?$LA?E?5?5?5?5?$LH?$KB?$KD?$LK@ ; `string'
PUBLIC	??_C@_07MIKFFMHF@?5?$KD?N?5?5?$KD?O@		; `string'
PUBLIC	??_C@_07CHOGEIED@?5?$KD?Y?$KD?E?$KD?S@		; `string'
PUBLIC	??_C@_0BJ@NPLNHFNN@?$LE?Y?$LI?$KF?$LL?g?$LG?w?F?$MA?G?U?$LH?y?$LP?$KJ?$LK?N?$LM?$LD?A?$KE?$KB?$KD@ ; `string'
PUBLIC	??_C@_0BJ@EJIPNKEA@?$LE?Y?$LI?$KF?$LL?g?$LG?w?$LF?$LF?$MA?$PM?$LJ?$NO?$MA?$LL?A?v?$LM?$LD?A?$KE?$KB?$KD@ ; `string'
PUBLIC	??_C@_0BH@GAKCDBLG@?$LI?m?G?T?$LB?$LD?H?$KP?G?c?$LP?k?$LP?$KJ?$LK?N?$LM?$LD?A?$KE?$KB?$KD@ ; `string'
PUBLIC	??_C@_0BF@NLHMJPHG@?$LA?$KC?C?$KE?$LD?N?$LM?$LD?A?$KE?$LG?G?$LE?B?G?X?A?$KG?$KB?$KD@ ; `string'
PUBLIC	??_C@_0BD@DBDDAFOG@?$LA?E?$LH?$KB?$LM?v?$LG?t?$LP?$KJ?$LK?N?$LM?$LD?A?$KE?$KB?$KD@ ; `string'
PUBLIC	??_C@_0BL@JJOLNGNO@?$LA?T?$MA?S?$MA?N?E?M?F?d?$MA?L?$LN?$LK?G?X?$LL?s?$LF?$LF?$LM?$LD?A?$KE?$KB?$KD@ ; `string'
PUBLIC	??_C@_06FNJBCBKN@?$LB?S?$LM?S?$LI?$LL@		; `string'
PUBLIC	??_C@_06IAKMCPJ@?$LA?$KB?A?$LH?$LI?$LL@		; `string'
PUBLIC	??_C@_08LIEPCPDK@?$LA?f?$LI?E?C?$KE?$LD?N@	; `string'
PUBLIC	??_C@_08DKNMBPNK@?$LE?k?H?$KN?$MA?z?$MA?e@	; `string'
PUBLIC	??_C@_0BJ@BCJNPCLP@?$LA?$KB?A?$LH?$LP?$KB?$LA?$KB?$MA?T?G?O?A?v?$LO?J?$LO?R?$LN?$MA?$LE?O?$LE?Y@ ; `string'
PUBLIC	??_C@_0BD@JIKBMICG@?$LA?m?$LP?k?$LF?G?A?v?$LO?J?$LO?R?$LN?$MA?$LE?O?$LE?Y@ ; `string'
PUBLIC	??_C@_02CHHAKFFB@w?$CL@				; `string'
PUBLIC	??_C@_0BB@BLGDDDEM@data?2channel?4dat@		; `string'
PUBLIC	??_C@_0BJ@DLFHHIDJ@?C?$KE?$LD?N?5?$LM?$LD?A?$KE?5?F?D?$MA?O?5?$MA?P?$LB?b?5?$LN?G?F?P@ ; `string'
PUBLIC	??_C@_0BI@JGAFKJCL@?$LI?$NO?$LE?$LK?5?$LM?$LD?A?$KE?C?$KC?$MA?$LL?5?$LE?$NN?$LN?$MA?$LE?O?$LE?Y?4@ ; `string'
PUBLIC	??_C@_0CF@MCKEAICK@?$LD?k?A?$KB?$LP?$KB?$LM?$KN?$LA?E?$LH?$KB?$LP?$KN?$LM?v?$LO?x?$MA?$LN?$KB?$KC?F?D?F?$LM?$LJ?W?$MA?$PM?E@ ; `string'
PUBLIC	??_C@_0N@NBGJJJHP@?$LI?$NO?$LE?$LK?C?$KC?$LE?$NN?$LB?b?$KB?$KD@ ; `string'
PUBLIC	??_C@_0L@OCGDIFAB@?5640?5x?5480@		; `string'
PUBLIC	??_C@_0L@FCDLGIBD@?5320?5x?5280@		; `string'
PUBLIC	??_C@_0L@FFMHNIN@?5800?5x?5600@			; `string'
PUBLIC	??_C@_0L@KHKHJBNB@1024?5x?5768@			; `string'
PUBLIC	??_C@_04HDOCAJNK@?$CFs?$CFs@			; `string'
PUBLIC	??_C@_0CA@MLBEKKLD@?$LM?$KN?$LJ?v?$LP?M?$MA?G?5?$LP?$KM?$LA?a?$MA?L?5?A?$LO?$LH?a?$LF?G?$LO?z?$LN?$MA?$LE?O?$LE?Y?4@ ; `string'
PUBLIC	??_C@_0BD@KHIHNLHO@?$LF?$LJ?$LO?F?$LA?$KB?$LN?C?$LA?Z?$LN?$MA?$LE?O?$LB?n?$KD?$LP@ ; `string'
PUBLIC	??_C@_04IJNKKJEO@?H?$KO?$MA?N@			; `string'
PUBLIC	??_C@_04PNGENDLA@S?$HMD2@			; `string'
PUBLIC	??_C@_01CKDDGHAB@D@				; `string'
PUBLIC	??_C@_06KOPCAPBC@C?$HMJ?$HM?91@			; `string'
PUBLIC	??_C@_06JEJPCC@S?$HMSELF@			; `string'
PUBLIC	??_C@_01CLKCMJKC@?5@				; `string'
PUBLIC	??_C@_0BD@CBGDDGMA@?$LA?$KB?A?$LH?$LM?$LM?$LK?N?A?$KE?$LK?$LI?$LK?$LI?$LB?b?$KB?$KD@ ; `string'
PUBLIC	??_C@_0BF@MBHIEFGB@?C?$OA?$LK?$LJ?$LL?g?$MA?G?F?$KP?$LK?$LA?G?Q?$LB?b?$LE?I?$KB?$KD@ ; `string'
PUBLIC	??_C@_0BF@EKJBMCBD@?$LK?N?A?$LH?$LA?T?$LN?C?F?G?$LB?b?$LE?I?$LL?g?$LP?k?$KB?$KD@ ; `string'
PUBLIC	??_C@_0BD@BKOBNADD@?A?$LH?$MA?e?$LJ?f?$LM?$NL?$LB?b?$LE?I?$LC?t?$LB?b?$KB?$KD@ ; `string'
PUBLIC	??_C@_0BJ@MOILBLMI@?C?$KE?F?C?C?$KE?$LD?N?$LI?$NO?$LE?$LK?$LP?$KB?$LM?$KN?$LD?$KK?$LA?$KB?$LB?b?$KB?$KD@ ; `string'
PUBLIC	??_C@_0P@CBBBPELI@?$MA?L?C?$KE?$LD?N?$LP?$KB?$LA?$KB?$MA?T?$KB?$KD@ ; `string'
PUBLIC	??_C@_0L@EIKLEHBI@?$MA?L?C?$KC?$LE?$NN?$LB?b?$KB?$KD@ ; `string'
PUBLIC	??_C@_06GHCNPHLL@C?$HMJ?$HM?$CFd@		; `string'
PUBLIC	??_C@_08JGHLAOEI@?5?B?$PM?5?5?$LA?$KB?5@	; `string'
PUBLIC	??_C@_08CMINFIIP@?5?E?$LL?5?5?E?p?5@		; `string'
PUBLIC	??_C@_0BA@FLCLDJN@?$FL?5?C?$KE?5?$LD?N?5?H?$LI?5?$LP?x?5?$FN@ ; `string'
PUBLIC	??_C@_0BI@COJOKGGA@?G?v?$MA?g?5?$CFd?5?$MA?L?$LK?N?A?$LH?$MA?G?5?$LA?$KB?A?$LH?$KB?$KD@ ; `string'
PUBLIC	??_C@_0BJ@BJPJPJLI@?$MA?V?$LE?Y?5?$CFd?5?$MA?L?C?$KE?$LD?N?$MA?G?$LL?g?$LG?w?$LF?i?$KB?$KD@ ; `string'
PUBLIC	??_C@_05PAKAMAIL@C?$HMJ?$HM5@			; `string'
PUBLIC	??_C@_05CPEMAIOC@L?$HMF?$HM1@			; `string'
PUBLIC	??_C@_05EAPBOIIG@L?$HML?$HM1@			; `string'
PUBLIC	??_C@_05GLNMLLEF@L?$HML?$HM2@			; `string'
PUBLIC	??_C@_0L@CJCIOOAN@L?$HMCHANGE?$HML@		; `string'
PUBLIC	??_C@_0N@NIGFCJOO@?5?5?A?$LH?$MA?e?$LJ?f?$LM?$NL?5?5@ ; `string'
PUBLIC	??_C@_0P@OGFFOIDE@?$LK?N?A?$LH?$LB?$LI?$LM?$LK?$LP?x?$LA?$PM?$LI?$KO@ ; `string'
PUBLIC	??_C@_0L@DOBBGKCH@?5?$LK?N?A?$LH?C?J?$LE?k?5@	; `string'
PUBLIC	??_C@_0L@MJPGOABE@?5?$LP?$KM?$LB?$LI?$LF?$LP?$MA?G?5@ ; `string'
PUBLIC	??_C@_0BB@BPLOID@?5?5?A?$LH?$MA?e?$LB?G?G?Q?$LK?N?$LP?$KJ?5?5@ ; `string'
PUBLIC	??_C@_0CD@LJIHMIMO@?A?$LH?$MA?e?$MA?$LK?5?$LK?N?A?$LH?$LP?x?$MA?$PM?C?$LM?$LP?$KB?$LA?T?5?$LA?x?A?v?G?U?$LE?O?$LE@ ; `string'
PUBLIC	??_C@_0BB@MGNAPNJL@?$LK?N?A?$LH?$LB?$LI?$LM?$LK?$LP?x?$LI?q?$LH?O?$KB?$KD@ ; `string'
PUBLIC	??_C@_0BF@CGFLPMMC@?$LK?N?A?$LH?$LJ?f?$LJ?$KO?C?J?C?$LL?$MA?e?$MA?$NL?$LM?$LK?$KB?$KD@ ; `string'
PUBLIC	??_C@_0BL@EJEFDMMK@?E?$LO?$LN?B?$LJ?h?$LP?l?$LB?b?$MA?$KH?G?Q?$LF?$LP?$MA?G?$LM?$KN?$MA?$NL?$LM?$LK?$KB?$KD@ ; `string'
PUBLIC	??_C@_0L@MGMKLDIO@map?2?$CFd?4ani@		; `string'
PUBLIC	??_C@_0BK@GGAGFANJ@?$LE?g?$LN?E?$MA?$LK?$LN?D?$LK?$LA?G?R?$LM?v?$MA?V?$LN?$MA?$LE?O?$LB?n?5?$CFs@ ; `string'
PUBLIC	??_C@_0BD@KCELJCBE@?$LI?$OA?E?d?$LA?$KB?$LF?G?$LO?n?$LK?$LI?$LM?$LM?$LP?d?$KD?$LP@ ; `string'
PUBLIC	??_C@_06BLFCGNEJ@?H?$KO?5?5?$MA?N@		; `string'
PUBLIC	??_C@_06PNFMGOAF@?C?k?5?5?$LM?R@		; `string'
PUBLIC	??_C@_04PNIAPCPG@O?$HM?$CFd@			; `string'
PUBLIC	??_C@_0BJ@HGNGOOJL@?$LI?$OA?E?d?$LH?N?5?$LE?$KJ?$LB?$LM?5?$LM?$LB?E?C?G?U?$LE?O?$LB?n?$KD?$LP@ ; `string'
PUBLIC	??_C@_08OHAGCECG@?$LI?$OA?E?d?$LL?s?E?B@	; `string'
PUBLIC	??_C@_0N@FGGIBINO@?$LI?$OA?E?d?$MA?L?$LI?$KH?$KD?$LK?$CFs@ ; `string'
PUBLIC	??_C@_06OLECLEEB@?$LL?s?E?B?$KD?$LK@		; `string'
PUBLIC	??_C@_06KCABBADG@Online@			; `string'
PUBLIC	??_C@_07BMIEDOEC@Offline@			; `string'
PUBLIC	??_C@_06KFNAOAIJ@?$MA?$LK?G?O?$KD?$LK@		; `string'
PUBLIC	??_C@_04ELDJJCAA@?$LO?F?$LE?O@			; `string'
PUBLIC	??_C@_06MOLOGMLJ@?A?$LO?5?5?$LH?a@		; `string'
PUBLIC	??_C@_0M@KOAEBMHD@?$LI?$OA?E?d?$MA?G?5?$LN?G?$LA?$NN@ ; `string'
PUBLIC	??_C@_0CF@CIJBHHMG@?$LI?$OA?E?d?$LI?$KG?C?k?$LM?R?G?O?$LI?i?$LI?E?$LH?B?$LA?$KB?D?$KB?$LA?$KB?$LA?$KI?$LM?R?G?U?$LE@ ; `string'
PUBLIC	??_C@_0BJ@NKJNALFN@?$LI?$OA?E?d?$LI?$KG?C?k?$LM?R?G?O?$LN?C?$LA?Z?$LN?$MA?$LE?O?$LB?n?$KD?$LP@ ; `string'
PUBLIC	??_C@_02PBOICDIO@C?$HM@				; `string'
PUBLIC	__real@3f000000
PUBLIC	__real@3f00000000000000
PUBLIC	__real@3fe0000000000000
PUBLIC	__real@4008000000000000
PUBLIC	__real@4010000000000000
PUBLIC	__real@4014000000000000
PUBLIC	__real@401c000000000000
PUBLIC	__real@4082780000000000
PUBLIC	__real@42800000
PUBLIC	__real@c000000000000000
PUBLIC	__real@c010000000000000
PUBLIC	__real@c018000000000000
PUBLIC	__real@c020000000000000
PUBLIC	__real@c028000000000000
PUBLIC	__real@c03f000000000000
PUBLIC	__real@c072d00000000000
PUBLIC	__real@c077d00000000000
PUBLIC	__real@c082780000000000
PUBLIC	__real@c08f480000000000
PUBLIC	__xmm@0000000000000007000000020000000b
PUBLIC	__xmm@00000000000000100000000400000001
PUBLIC	__xmm@00000001000000090000000a00000008
PUBLIC	__xmm@00000004000000060000000300000005
PUBLIC	__xmm@00000200000001000000008000000040
PUBLIC	__xmm@fffffffefffffffefffffffefffffffe
PUBLIC	__xmm@ffffffffffffffffffffffffffffffff
EXTRN	___report_rangecheckfailure:PROC
EXTRN	_fclose:PROC
EXTRN	_fopen:PROC
EXTRN	_fwrite:PROC
EXTRN	___stdio_common_vsprintf:PROC
EXTRN	_rand:PROC
EXTRN	_atoi:PROC
EXTRN	_itoa:PROC
EXTRN	_strncpy:PROC
EXTRN	?TimeGetTime@@YAIXZ:PROC			; TimeGetTime
EXTRN	__imp__CreateFileA@28:PROC
EXTRN	__imp__ReadFile@20:PROC
EXTRN	__imp__CloseHandle@4:PROC
EXTRN	__imp__SendMessageA@16:PROC
EXTRN	?GetAction@@YAPAUaction@@EI@Z:PROC		; GetAction
EXTRN	?DeathAction@@YAXPAUaction@@@Z:PROC		; DeathAction
EXTRN	?StockDispBuffer@@YAHHHEHH@Z:PROC		; StockDispBuffer
EXTRN	?StockBoxDispBuffer@@YAXHHHHEHH@Z:PROC		; StockBoxDispBuffer
EXTRN	?rand2@@YAHXZ:PROC				; rand2
EXTRN	?StockChatBufferLine@@YAXPADEH@Z:PROC		; StockChatBufferLine
EXTRN	?GetStrLastByte@@YAHPAD@Z:PROC			; GetStrLastByte
EXTRN	?GetKeyInputFocus@@YAXPAUSTR_BUFFER@@@Z:PROC	; GetKeyInputFocus
EXTRN	?StockFontBuffer@@YAHHHDHPADH@Z:PROC		; StockFontBuffer
EXTRN	?StockFontBuffer2@@YAXPAUSTR_BUFFER@@@Z:PROC	; StockFontBuffer2
EXTRN	?openServerWindow@@YAXHHHHPAD@Z:PROC		; openServerWindow
EXTRN	?selGraId@@YAHPAHH@Z:PROC			; selGraId
EXTRN	?pushGraId@@YAHPAHH@Z:PROC			; pushGraId
EXTRN	?selFontId@@YAHPAHH@Z:PROC			; selFontId
EXTRN	?focusGraId@@YAHPAHH@Z:PROC			; focusGraId
EXTRN	?focusFontId@@YAHPAHH@Z:PROC			; focusFontId
EXTRN	?setPcAction@@YAXH@Z:PROC			; setPcAction
EXTRN	?InitItem@@YAXHHH@Z:PROC			; InitItem
EXTRN	?InitMenu2@@YAXXZ:PROC				; InitMenu2
EXTRN	?CheckMenuFlag@@YAHXZ:PROC			; CheckMenuFlag
EXTRN	?MakeWindowDisp@@YAPAUaction@@HHHHHH@Z:PROC	; MakeWindowDisp
EXTRN	?MakeHitBox@@YAHHHHHH@Z:PROC			; MakeHitBox
EXTRN	?MakeAnimDisp@@YAPAUaction@@HHHH@Z:PROC		; MakeAnimDisp
EXTRN	?SelectChatRoom@@YAXXZ:PROC			; SelectChatRoom
EXTRN	?ChatRoomWnd@@YAXXZ:PROC			; ChatRoomWnd
EXTRN	?getRouteData@@YAXHPAH0@Z:PROC			; getRouteData
EXTRN	?camMapToGamen@@YAXMMPAM0@Z:PROC		; camMapToGamen
EXTRN	?lssproto_SaMenu_send@@YAXHHHH@Z:PROC		; lssproto_SaMenu_send
EXTRN	?lssproto_Partyauto_send@@YAXH@Z:PROC		; lssproto_Partyauto_send
EXTRN	?lssproto_DU_send@@YAXHHH@Z:PROC		; lssproto_DU_send
EXTRN	?lssproto_JB_send@@YAXHHH@Z:PROC		; lssproto_JB_send
EXTRN	?lssproto_LB_send@@YAXHHH@Z:PROC		; lssproto_LB_send
EXTRN	?lssproto_AAB_send@@YAXHHH@Z:PROC		; lssproto_AAB_send
EXTRN	?lssproto_TK_recv@@YAXHHPADH@Z:PROC		; lssproto_TK_recv
EXTRN	?lssproto_FS_send@@YAXHH@Z:PROC			; lssproto_FS_send
EXTRN	?lssproto_PR_send@@YAXHHHH@Z:PROC		; lssproto_PR_send
EXTRN	?lssproto_AC_send@@YAXHHHH@Z:PROC		; lssproto_AC_send
EXTRN	?lssproto_TD_send@@YAXHPAD@Z:PROC		; lssproto_TD_send
EXTRN	?lssproto_FM_send@@YAXHPAD@Z:PROC		; lssproto_FM_send
EXTRN	?lssproto_PETST_send@@YAXHHH@Z:PROC		; lssproto_PETST_send
EXTRN	?lssproto_CHATROOM_send@@YAXHPAD@Z:PROC		; lssproto_CHATROOM_send
EXTRN	?lssproto_STREET_VENDOR_send@@YAXHPAD@Z:PROC	; lssproto_STREET_VENDOR_send
EXTRN	?lssproto_TEACHER_SYSTEM_send@@YAXHPAD@Z:PROC	; lssproto_TEACHER_SYSTEM_send
EXTRN	?old_lssproto_DU_send@@YAXHHH@Z:PROC		; old_lssproto_DU_send
EXTRN	?old_lssproto_JB_send@@YAXHHH@Z:PROC		; old_lssproto_JB_send
EXTRN	?old_lssproto_AAB_send@@YAXHHH@Z:PROC		; old_lssproto_AAB_send
EXTRN	?old_lssproto_FS_send@@YAXHH@Z:PROC		; old_lssproto_FS_send
EXTRN	?old_lssproto_PR_send@@YAXHHHH@Z:PROC		; old_lssproto_PR_send
EXTRN	?old_lssproto_AC_send@@YAXHHHH@Z:PROC		; old_lssproto_AC_send
EXTRN	?old_lssproto_TD_send@@YAXHPAD@Z:PROC		; old_lssproto_TD_send
EXTRN	?old_lssproto_FM_send@@YAXHPAD@Z:PROC		; old_lssproto_FM_send
EXTRN	?createWaterAnimation@@YAPAUaction@@HHHH@Z:PROC	; createWaterAnimation
EXTRN	?checkCharObjPoint@@YAHHHF@Z:PROC		; checkCharObjPoint
EXTRN	?checkCharObjPointStatus@@YAHHHFI@Z:PROC	; checkCharObjPointStatus
EXTRN	?checkCharObjPointNotStatus@@YAHHHFI@Z:PROC	; checkCharObjPointNotStatus
EXTRN	?GetImeString@@YAPADXZ:PROC			; GetImeString
EXTRN	?ShowBottomLineString@@YAXHPAD@Z:PROC		; ShowBottomLineString
EXTRN	?play_se@@YAHHHH@Z:PROC				; play_se
EXTRN	?getStringToken@@YAHPADDHH0@Z:PROC		; getStringToken
EXTRN	?makeStringFromEscaped@@YAPADPAD@Z:PROC		; makeStringFromEscaped
EXTRN	?CheckNumber@@YAXPADH@Z:PROC			; CheckNumber
EXTRN	?CheckSpace@@YAXPAD@Z:PROC			; CheckSpace
EXTRN	?HelpProc@@YAHXZ:PROC				; HelpProc
EXTRN	?SaveChatData@@YAXPADD_N@Z:PROC			; SaveChatData
EXTRN	?JL_RESOMODE@@YAXH@Z:PROC			; JL_RESOMODE
EXTRN	?SetResoMode@@YAXH@Z:PROC			; SetResoMode
EXTRN	?ChangeWindowMode@@YAXXZ:PROC			; ChangeWindowMode
EXTRN	?RecoverDirectDraw@@YAXXZ:PROC			; RecoverDirectDraw
EXTRN	?waterAniProc@@YAXPAUaction@@@Z:PROC		; waterAniProc
EXTRN	@__security_check_cookie@4:PROC
EXTRN	_memset:PROC
EXTRN	?DISPLACEMENT_X@@3HA:DWORD			; DISPLACEMENT_X
EXTRN	?DEF_APPSIZEX@@3HA:DWORD			; DEF_APPSIZEX
EXTRN	?hWnd@@3PAUHWND__@@A:DWORD			; hWnd
EXTRN	?ResoMode@@3HA:DWORD				; ResoMode
EXTRN	?gmsv@@3PAUgameserver@@A:BYTE			; gmsv
EXTRN	?ProcNo@@3IA:DWORD				; ProcNo
EXTRN	?joy_trg@@3PAKA:QWORD				; joy_trg
EXTRN	?MyChatBuffer@@3USTR_BUFFER@@A:BYTE		; MyChatBuffer
EXTRN	?mouse@@3UMOUSE@@A:BYTE				; mouse
EXTRN	?HitFontNo@@3HA:DWORD				; HitFontNo
EXTRN	?HitDispNo@@3HA:DWORD				; HitDispNo
EXTRN	?CG_FIELD_SV_SELL_PANEL@@3HA:DWORD		; CG_FIELD_SV_SELL_PANEL
EXTRN	?CG_FIELD_SV_SELL_PRICE_PANEL@@3HA:DWORD	; CG_FIELD_SV_SELL_PRICE_PANEL
EXTRN	?windowTypeWN@@3HA:DWORD			; windowTypeWN
EXTRN	?pc@@3UPC@@A:BYTE				; pc
EXTRN	?prSendMode@@3FA:WORD				; prSendMode
EXTRN	?prSendFlag@@3FA:WORD				; prSendFlag
EXTRN	?jbSendFlag@@3FA:WORD				; jbSendFlag
EXTRN	?duelSendFlag@@3FA:WORD				; duelSendFlag
EXTRN	?tradeFlag@@3FA:WORD				; tradeFlag
EXTRN	?pet@@3PAUPET@@A:BYTE				; pet
EXTRN	?partyModeFlag@@3FA:WORD			; partyModeFlag
EXTRN	?MenuToggleFlag@@3IA:DWORD			; MenuToggleFlag
EXTRN	?ItemBuffer@@3PAUITEM_BUFFER@@A:BYTE		; ItemBuffer
EXTRN	?MapWmdFlagBak@@3HA:DWORD			; MapWmdFlagBak
EXTRN	?TalkMode@@3HA:DWORD				; TalkMode
EXTRN	?pChtChanlWnd@@3PAUaction@@A:DWORD		; pChtChanlWnd
EXTRN	?pSelChanlWnd@@3PAUaction@@A:DWORD		; pSelChanlWnd
EXTRN	?nowFloorName@@3PADA:BYTE			; nowFloorName
EXTRN	?nowFloor@@3HA:DWORD				; nowFloor
EXTRN	?nowGx@@3HA:DWORD				; nowGx
EXTRN	?nowGy@@3HA:DWORD				; nowGy
EXTRN	?nowVx@@3MA:DWORD				; nowVx
EXTRN	?nowVy@@3MA:DWORD				; nowVy
EXTRN	?moveRouteCnt@@3FA:WORD				; moveRouteCnt
EXTRN	?sendEnFlag@@3FA:WORD				; sendEnFlag
EXTRN	?eventWarpSendFlag@@3FA:WORD			; eventWarpSendFlag
EXTRN	?eventEnemySendFlag@@3FA:WORD			; eventEnemySendFlag
EXTRN	?bNewServer@@3HA:DWORD				; bNewServer
EXTRN	?sockfd@@3IA:DWORD				; sockfd
EXTRN	?disconnectServerFlag@@3HA:DWORD		; disconnectServerFlag
EXTRN	?SaTime@@3UtagLSTIME@@A:BYTE			; SaTime
EXTRN	?SaTimeZoneNo@@3HA:DWORD			; SaTimeZoneNo
EXTRN	?nPetItemEquipBmpNumber@@3PAY01HA:BYTE		; nPetItemEquipBmpNumber
EXTRN	?HelpProcNo@@3FA:WORD				; HelpProcNo
EXTRN	?jumpHelpPage@@3FA:WORD				; jumpHelpPage
EXTRN	?jumpHelpSeg@@3FA:WORD				; jumpHelpSeg
EXTRN	?í»?Ôô?ãÀÜú??@@3HA:DWORD			; í»?Ôô?ãÀÜú??
EXTRN	___security_cookie:DWORD
EXTRN	__fltused:DWORD
;	COMDAT ?_OptionsStorage@?1??__local_stdio_printf_options@@9@4_KA
_BSS	SEGMENT
?_OptionsStorage@?1??__local_stdio_printf_options@@9@4_KA DQ 01H DUP (?) ; `__local_stdio_printf_options'::`2'::_OptionsStorage
_BSS	ENDS
_BSS	SEGMENT
	ALIGN	4

?WaterAct2@@3PAUaction@@A DD 01H DUP (?)		; WaterAct2
?WaterAct@@3PAPAUaction@@A DD 032H DUP (?)		; WaterAct
?WaterAct3@@3PAPAUaction@@A DD 01eH DUP (?)		; WaterAct3
?pActSellPriceWnd@@3PAUaction@@A DD 01H DUP (?)		; pActSellPriceWnd
_BSS	ENDS
;	COMDAT ?str_bufferMoney@?1??SellPriceWndfunc@@YAHXZ@4USTR_BUFFER@@A
_BSS	SEGMENT
?str_bufferMoney@?1??SellPriceWndfunc@@YAHXZ@4USTR_BUFFER@@A DB 0128H DUP (?) ; `SellPriceWndfunc'::`2'::str_bufferMoney
_BSS	ENDS
;	COMDAT ?iBtn@?1??StreetVendorWndfunc@@YAX_NPAD@Z@4PAHA
_BSS	SEGMENT
?iBtn@?1??StreetVendorWndfunc@@YAX_NPAD@Z@4PAHA DD 07H DUP (?) ; `StreetVendorWndfunc'::`2'::iBtn
_BSS	ENDS
;	COMDAT ?iSellItemBtn@?1??StreetVendorWndfunc@@YAX_NPAD@Z@4PAHA
_BSS	SEGMENT
?iSellItemBtn@?1??StreetVendorWndfunc@@YAX_NPAD@Z@4PAHA DD 014H DUP (?) ; `StreetVendorWndfunc'::`2'::iSellItemBtn
_BSS	ENDS
;	COMDAT ?iItemOnSell@?1??StreetVendorWndfunc@@YAX_NPAD@Z@4PAHA
_BSS	SEGMENT
?iItemOnSell@?1??StreetVendorWndfunc@@YAX_NPAD@Z@4PAHA DD 0fH DUP (?) ; `StreetVendorWndfunc'::`2'::iItemOnSell
_BSS	ENDS
;	COMDAT ?iShowPet@?1??StreetVendorWndfunc@@YAX_NPAD@Z@4HA
_BSS	SEGMENT
?iShowPet@?1??StreetVendorWndfunc@@YAX_NPAD@Z@4HA DD 01H DUP (?) ; `StreetVendorWndfunc'::`2'::iShowPet
_BSS	ENDS
;	COMDAT ?iPetOnSell@?1??StreetVendorWndfunc@@YAX_NPAD@Z@4PAHA
_BSS	SEGMENT
?iPetOnSell@?1??StreetVendorWndfunc@@YAX_NPAD@Z@4PAHA DD 05H DUP (?) ; `StreetVendorWndfunc'::`2'::iPetOnSell
_BSS	ENDS
;	COMDAT ?iGetSellPrice@?1??StreetVendorWndfunc@@YAX_NPAD@Z@4HA
_BSS	SEGMENT
?iGetSellPrice@?1??StreetVendorWndfunc@@YAX_NPAD@Z@4HA DD 01H DUP (?) ; `StreetVendorWndfunc'::`2'::iGetSellPrice
_BSS	ENDS
;	COMDAT ?iListStart@?1??StreetVendorWndfunc@@YAX_NPAD@Z@4HA
_BSS	SEGMENT
?iListStart@?1??StreetVendorWndfunc@@YAX_NPAD@Z@4HA DD 01H DUP (?) ; `StreetVendorWndfunc'::`2'::iListStart
_BSS	ENDS
;	COMDAT ?pItem@?1??StreetVendorWndfunc@@YAX_NPAD@Z@4PAUITEM@@A
_BSS	SEGMENT
?pItem@?1??StreetVendorWndfunc@@YAX_NPAD@Z@4PAUITEM@@A DD 01H DUP (?) ; `StreetVendorWndfunc'::`2'::pItem
_BSS	ENDS
;	COMDAT ?bRunSellPrice@?1??StreetVendorWndfunc@@YAX_NPAD@Z@4_NA
_BSS	SEGMENT
?bRunSellPrice@?1??StreetVendorWndfunc@@YAX_NPAD@Z@4_NA DB 01H DUP (?) ; `StreetVendorWndfunc'::`2'::bRunSellPrice
_BSS	ENDS
;	COMDAT ?pShowSellItem@?1??StreetVendorWndfunc@@YAX_NPAD@Z@4PAU_Show_Sell_Item@@A
_BSS	SEGMENT
?pShowSellItem@?1??StreetVendorWndfunc@@YAX_NPAD@Z@4PAU_Show_Sell_Item@@A DD 01H DUP (?) ; `StreetVendorWndfunc'::`2'::pShowSellItem
_BSS	ENDS
;	COMDAT ?iBtn@?1??StreetVendorBuyWndfunc@@YAXPAD@Z@4PAHA
_BSS	SEGMENT
?iBtn@?1??StreetVendorBuyWndfunc@@YAXPAD@Z@4PAHA DD 05H DUP (?) ; `StreetVendorBuyWndfunc'::`2'::iBtn
_BSS	ENDS
;	COMDAT ?iBuyItemBtn@?1??StreetVendorBuyWndfunc@@YAXPAD@Z@4PAHA
_BSS	SEGMENT
?iBuyItemBtn@?1??StreetVendorBuyWndfunc@@YAXPAD@Z@4PAHA DD 014H DUP (?) ; `StreetVendorBuyWndfunc'::`2'::iBuyItemBtn
_BSS	ENDS
;	COMDAT ?iListStart@?1??StreetVendorBuyWndfunc@@YAXPAD@Z@4HA
_BSS	SEGMENT
?iListStart@?1??StreetVendorBuyWndfunc@@YAXPAD@Z@4HA DD 01H DUP (?) ; `StreetVendorBuyWndfunc'::`2'::iListStart
_BSS	ENDS
;	COMDAT ?iTotalBuy@?1??StreetVendorBuyWndfunc@@YAXPAD@Z@4PAHA
_BSS	SEGMENT
?iTotalBuy@?1??StreetVendorBuyWndfunc@@YAXPAD@Z@4PAHA DD 02H DUP (?) ; `StreetVendorBuyWndfunc'::`2'::iTotalBuy
_BSS	ENDS
;	COMDAT ?iEmptyNum@?1??StreetVendorBuyWndfunc@@YAXPAD@Z@4PAHA
_BSS	SEGMENT
?iEmptyNum@?1??StreetVendorBuyWndfunc@@YAXPAD@Z@4PAHA DD 02H DUP (?) ; `StreetVendorBuyWndfunc'::`2'::iEmptyNum
_BSS	ENDS
;	COMDAT ?iCurrentShow@?1??StreetVendorBuyWndfunc@@YAXPAD@Z@4HA
_BSS	SEGMENT
?iCurrentShow@?1??StreetVendorBuyWndfunc@@YAXPAD@Z@4HA DD 01H DUP (?) ; `StreetVendorBuyWndfunc'::`2'::iCurrentShow
_BSS	ENDS
;	COMDAT ?iTotalBuyMoney@?1??StreetVendorBuyWndfunc@@YAXPAD@Z@4HA
_BSS	SEGMENT
?iTotalBuyMoney@?1??StreetVendorBuyWndfunc@@YAXPAD@Z@4HA DD 01H DUP (?) ; `StreetVendorBuyWndfunc'::`2'::iTotalBuyMoney
_BSS	ENDS
;	COMDAT ?bViewPetItem@?1??StreetVendorBuyWndfunc@@YAXPAD@Z@4HA
_BSS	SEGMENT
?bViewPetItem@?1??StreetVendorBuyWndfunc@@YAXPAD@Z@4HA DD 01H DUP (?) ; `StreetVendorBuyWndfunc'::`2'::bViewPetItem
_BSS	ENDS
_BSS	SEGMENT
?joinChannel2Proc@@3FA DW 01H DUP (?)			; joinChannel2Proc
_BSS	ENDS
;	COMDAT ?ptActMenuWin@?1??charActionAnimeChange@@YAHXZ@4PAUaction@@A
_BSS	SEGMENT
?ptActMenuWin@?1??charActionAnimeChange@@YAHXZ@4PAUaction@@A DD 01H DUP (?) ; `charActionAnimeChange'::`2'::ptActMenuWin
_BSS	ENDS
;	COMDAT ?x@?1??charActionAnimeChange@@YAHXZ@4HA
_BSS	SEGMENT
?x@?1??charActionAnimeChange@@YAHXZ@4HA DD 01H DUP (?)	; `charActionAnimeChange'::`2'::x
_BSS	ENDS
;	COMDAT ?y@?1??charActionAnimeChange@@YAHXZ@4HA
_BSS	SEGMENT
?y@?1??charActionAnimeChange@@YAHXZ@4HA DD 01H DUP (?)	; `charActionAnimeChange'::`2'::y
_BSS	ENDS
;	COMDAT ?w@?1??charActionAnimeChange@@YAHXZ@4HA
_BSS	SEGMENT
?w@?1??charActionAnimeChange@@YAHXZ@4HA DD 01H DUP (?)	; `charActionAnimeChange'::`2'::w
_BSS	ENDS
;	COMDAT ?h@?1??charActionAnimeChange@@YAHXZ@4HA
_BSS	SEGMENT
?h@?1??charActionAnimeChange@@YAHXZ@4HA DD 01H DUP (?)	; `charActionAnimeChange'::`2'::h
_BSS	ENDS
;	COMDAT ?btnId@?1??charActionAnimeChange@@YAHXZ@4PAHA
_BSS	SEGMENT
?btnId@?1??charActionAnimeChange@@YAHXZ@4PAHA DD 0dH DUP (?) ; `charActionAnimeChange'::`2'::btnId
_BSS	ENDS
;	COMDAT ?ptActMenuWin@?1??etcSwitch@@YAHXZ@4PAUaction@@A
_BSS	SEGMENT
?ptActMenuWin@?1??etcSwitch@@YAHXZ@4PAUaction@@A DD 01H DUP (?) ; `etcSwitch'::`2'::ptActMenuWin
_BSS	ENDS
;	COMDAT ?pActChannelWin@?1??etcSwitch@@YAHXZ@4PAUaction@@A
_BSS	SEGMENT
?pActChannelWin@?1??etcSwitch@@YAHXZ@4PAUaction@@A DD 01H DUP (?) ; `etcSwitch'::`2'::pActChannelWin
_BSS	ENDS
;	COMDAT ?iChannelbtnId@?1??etcSwitch@@YAHXZ@4PAHA
_BSS	SEGMENT
?iChannelbtnId@?1??etcSwitch@@YAHXZ@4PAHA DD 04H DUP (?) ; `etcSwitch'::`2'::iChannelbtnId
_BSS	ENDS
;	COMDAT ?x@?1??etcSwitch@@YAHXZ@4HA
_BSS	SEGMENT
?x@?1??etcSwitch@@YAHXZ@4HA DD 01H DUP (?)		; `etcSwitch'::`2'::x
_BSS	ENDS
;	COMDAT ?y@?1??etcSwitch@@YAHXZ@4HA
_BSS	SEGMENT
?y@?1??etcSwitch@@YAHXZ@4HA DD 01H DUP (?)		; `etcSwitch'::`2'::y
_BSS	ENDS
;	COMDAT ?w@?1??etcSwitch@@YAHXZ@4HA
_BSS	SEGMENT
?w@?1??etcSwitch@@YAHXZ@4HA DD 01H DUP (?)		; `etcSwitch'::`2'::w
_BSS	ENDS
;	COMDAT ?h@?1??etcSwitch@@YAHXZ@4HA
_BSS	SEGMENT
?h@?1??etcSwitch@@YAHXZ@4HA DD 01H DUP (?)		; `etcSwitch'::`2'::h
_BSS	ENDS
;	COMDAT ?btnId@?1??etcSwitch@@YAHXZ@4PAHA
_BSS	SEGMENT
?btnId@?1??etcSwitch@@YAHXZ@4PAHA DD 05H DUP (?)	; `etcSwitch'::`2'::btnId
_BSS	ENDS
;	COMDAT ?ptActMenuWin@?1??disconnectServer@@YAHXZ@4PAUaction@@A
_BSS	SEGMENT
?ptActMenuWin@?1??disconnectServer@@YAHXZ@4PAUaction@@A DD 01H DUP (?) ; `disconnectServer'::`2'::ptActMenuWin
_BSS	ENDS
;	COMDAT ?x@?1??disconnectServer@@YAHXZ@4HA
_BSS	SEGMENT
?x@?1??disconnectServer@@YAHXZ@4HA DD 01H DUP (?)	; `disconnectServer'::`2'::x
_BSS	ENDS
;	COMDAT ?y@?1??disconnectServer@@YAHXZ@4HA
_BSS	SEGMENT
?y@?1??disconnectServer@@YAHXZ@4HA DD 01H DUP (?)	; `disconnectServer'::`2'::y
_BSS	ENDS
;	COMDAT ?w@?1??disconnectServer@@YAHXZ@4HA
_BSS	SEGMENT
?w@?1??disconnectServer@@YAHXZ@4HA DD 01H DUP (?)	; `disconnectServer'::`2'::w
_BSS	ENDS
;	COMDAT ?h@?1??disconnectServer@@YAHXZ@4HA
_BSS	SEGMENT
?h@?1??disconnectServer@@YAHXZ@4HA DD 01H DUP (?)	; `disconnectServer'::`2'::h
_BSS	ENDS
;	COMDAT ?btnId@?1??disconnectServer@@YAHXZ@4PAHA
_BSS	SEGMENT
?btnId@?1??disconnectServer@@YAHXZ@4PAHA DD 01H DUP (?)	; `disconnectServer'::`2'::btnId
_BSS	ENDS
;	COMDAT ?ptActMenuWin@?1??drawFieldInfoWin@@YAXXZ@4PAUaction@@A
_BSS	SEGMENT
?ptActMenuWin@?1??drawFieldInfoWin@@YAXXZ@4PAUaction@@A DD 01H DUP (?) ; `drawFieldInfoWin'::`2'::ptActMenuWin
_BSS	ENDS
;	COMDAT ?x@?1??drawFieldInfoWin@@YAXXZ@4HA
_BSS	SEGMENT
?x@?1??drawFieldInfoWin@@YAXXZ@4HA DD 01H DUP (?)	; `drawFieldInfoWin'::`2'::x
_BSS	ENDS
;	COMDAT ?y@?1??drawFieldInfoWin@@YAXXZ@4HA
_BSS	SEGMENT
?y@?1??drawFieldInfoWin@@YAXXZ@4HA DD 01H DUP (?)	; `drawFieldInfoWin'::`2'::y
_BSS	ENDS
;	COMDAT ?w@?1??drawFieldInfoWin@@YAXXZ@4HA
_BSS	SEGMENT
?w@?1??drawFieldInfoWin@@YAXXZ@4HA DD 01H DUP (?)	; `drawFieldInfoWin'::`2'::w
_BSS	ENDS
;	COMDAT ?h@?1??drawFieldInfoWin@@YAXXZ@4HA
_BSS	SEGMENT
?h@?1??drawFieldInfoWin@@YAXXZ@4HA DD 01H DUP (?)	; `drawFieldInfoWin'::`2'::h
_BSS	ENDS
_BSS	SEGMENT
	ALIGN	4

?ptActChannelWin@@3PAUaction@@A DD 01H DUP (?)		; ptActChannelWin
?ptActChannel2Win@@3PAUaction@@A DD 01H DUP (?)		; ptActChannel2Win
?ptActLeaderFuncWin@@3PAUaction@@A DD 01H DUP (?)	; ptActLeaderFuncWin
_BSS	ENDS
;	COMDAT ?btnId@?1??joinChannelWN@@YAXXZ@4PAHA
_BSS	SEGMENT
?btnId@?1??joinChannelWN@@YAXXZ@4PAHA DD 05H DUP (?)	; `joinChannelWN'::`2'::btnId
_BSS	ENDS
;	COMDAT ?graId@?1??joinChannelWN@@YAXXZ@4PAHA
_BSS	SEGMENT
?graId@?1??joinChannelWN@@YAXXZ@4PAHA DD 01H DUP (?)	; `joinChannelWN'::`2'::graId
_BSS	ENDS
_BSS	SEGMENT
?channelData@@3UTchannelData@@A DB 096cH DUP (?)	; channelData
?pageNum@@3HA DD 01H DUP (?)				; pageNum
_BSS	ENDS
;	COMDAT ?fontBtnId@?1??joinChannel2WN@@YAXXZ@4PAHA
_BSS	SEGMENT
?fontBtnId@?1??joinChannel2WN@@YAXXZ@4PAHA DD 04H DUP (?) ; `joinChannel2WN'::`2'::fontBtnId
_BSS	ENDS
;	COMDAT ?btnId@?1??leaderFuncWN@@YAXXZ@4PAHA
_BSS	SEGMENT
?btnId@?1??leaderFuncWN@@YAXXZ@4PAHA DD 09H DUP (?)	; `leaderFuncWN'::`2'::btnId
_BSS	ENDS
;	COMDAT ?graId@?1??leaderFuncWN@@YAXXZ@4PAHA
_BSS	SEGMENT
?graId@?1??leaderFuncWN@@YAXXZ@4PAHA DD 01H DUP (?)	; `leaderFuncWN'::`2'::graId
_BSS	ENDS
;	COMDAT ?winX@?1??TeacherSystemWndfunc@@YAXHPAD@Z@4HA
_BSS	SEGMENT
?winX@?1??TeacherSystemWndfunc@@YAXHPAD@Z@4HA DD 01H DUP (?) ; `TeacherSystemWndfunc'::`2'::winX
_BSS	ENDS
;	COMDAT ?winY@?1??TeacherSystemWndfunc@@YAXHPAD@Z@4HA
_BSS	SEGMENT
?winY@?1??TeacherSystemWndfunc@@YAXHPAD@Z@4HA DD 01H DUP (?) ; `TeacherSystemWndfunc'::`2'::winY
_BSS	ENDS
;	COMDAT ?winW@?1??TeacherSystemWndfunc@@YAXHPAD@Z@4HA
_BSS	SEGMENT
?winW@?1??TeacherSystemWndfunc@@YAXHPAD@Z@4HA DD 01H DUP (?) ; `TeacherSystemWndfunc'::`2'::winW
_BSS	ENDS
;	COMDAT ?winH@?1??TeacherSystemWndfunc@@YAXHPAD@Z@4HA
_BSS	SEGMENT
?winH@?1??TeacherSystemWndfunc@@YAXHPAD@Z@4HA DD 01H DUP (?) ; `TeacherSystemWndfunc'::`2'::winH
_BSS	ENDS
;	COMDAT ?iOnline@?1??TeacherSystemWndfunc@@YAXHPAD@Z@4HA
_BSS	SEGMENT
?iOnline@?1??TeacherSystemWndfunc@@YAXHPAD@Z@4HA DD 01H DUP (?) ; `TeacherSystemWndfunc'::`2'::iOnline
_BSS	ENDS
;	COMDAT ?iGetNum@?1??TeacherSystemWndfunc@@YAXHPAD@Z@4HA
_BSS	SEGMENT
?iGetNum@?1??TeacherSystemWndfunc@@YAXHPAD@Z@4HA DD 01H DUP (?) ; `TeacherSystemWndfunc'::`2'::iGetNum
_BSS	ENDS
;	COMDAT ?iFontId@?1??TeacherSystemWndfunc@@YAXHPAD@Z@4PAHA
_BSS	SEGMENT
?iFontId@?1??TeacherSystemWndfunc@@YAXHPAD@Z@4PAHA DD 07H DUP (?) ; `TeacherSystemWndfunc'::`2'::iFontId
_BSS	ENDS
;	COMDAT ?iIndex@?1??TeacherSystemWndfunc@@YAXHPAD@Z@4PAHA
_BSS	SEGMENT
?iIndex@?1??TeacherSystemWndfunc@@YAXHPAD@Z@4PAHA DD 05H DUP (?) ; `TeacherSystemWndfunc'::`2'::iIndex
_BSS	ENDS
;	COMDAT ?pActTeacherSystemWnd@?1??TeacherSystemWndfunc@@YAXHPAD@Z@4PAUaction@@A
_BSS	SEGMENT
?pActTeacherSystemWnd@?1??TeacherSystemWndfunc@@YAXHPAD@Z@4PAUaction@@A DD 01H DUP (?) ; `TeacherSystemWndfunc'::`2'::pActTeacherSystemWnd
_BSS	ENDS
;	COMDAT ?szBuf@?1??TeacherSystemWndfunc@@YAXHPAD@Z@4PAY0CA@DA
_BSS	SEGMENT
?szBuf@?1??TeacherSystemWndfunc@@YAXHPAD@Z@4PAY0CA@DA DB 0c0H DUP (?) ; `TeacherSystemWndfunc'::`2'::szBuf
_BSS	ENDS
;	COMDAT ?bOpen@?1??TeacherSystemWndfunc@@YAXHPAD@Z@4HA
_BSS	SEGMENT
?bOpen@?1??TeacherSystemWndfunc@@YAXHPAD@Z@4HA DD 01H DUP (?) ; `TeacherSystemWndfunc'::`2'::bOpen
_BSS	ENDS
;	COMDAT __xmm@ffffffffffffffffffffffffffffffff
CONST	SEGMENT
__xmm@ffffffffffffffffffffffffffffffff DB 0ffH, 0ffH, 0ffH, 0ffH, 0ffH, 0ffH
	DB	0ffH, 0ffH, 0ffH, 0ffH, 0ffH, 0ffH, 0ffH, 0ffH, 0ffH, 0ffH
CONST	ENDS
;	COMDAT __xmm@fffffffefffffffefffffffefffffffe
CONST	SEGMENT
__xmm@fffffffefffffffefffffffefffffffe DB 0feH, 0ffH, 0ffH, 0ffH, 0feH, 0ffH
	DB	0ffH, 0ffH, 0feH, 0ffH, 0ffH, 0ffH, 0feH, 0ffH, 0ffH, 0ffH
CONST	ENDS
;	COMDAT __xmm@00000200000001000000008000000040
CONST	SEGMENT
__xmm@00000200000001000000008000000040 DB '@', 00H, 00H, 00H, 080H, 00H, 00H
	DB	00H, 00H, 01H, 00H, 00H, 00H, 02H, 00H, 00H
CONST	ENDS
;	COMDAT __xmm@00000004000000060000000300000005
CONST	SEGMENT
__xmm@00000004000000060000000300000005 DB 05H, 00H, 00H, 00H, 03H, 00H, 00H
	DB	00H, 06H, 00H, 00H, 00H, 04H, 00H, 00H, 00H
CONST	ENDS
;	COMDAT __xmm@00000001000000090000000a00000008
CONST	SEGMENT
__xmm@00000001000000090000000a00000008 DB 08H, 00H, 00H, 00H, 0aH, 00H, 00H
	DB	00H, 09H, 00H, 00H, 00H, 01H, 00H, 00H, 00H
CONST	ENDS
;	COMDAT __xmm@00000000000000100000000400000001
CONST	SEGMENT
__xmm@00000000000000100000000400000001 DB 01H, 00H, 00H, 00H, 04H, 00H, 00H
	DB	00H, 010H, 00H, 00H, 00H, 00H, 00H, 00H, 00H
CONST	ENDS
;	COMDAT __xmm@0000000000000007000000020000000b
CONST	SEGMENT
__xmm@0000000000000007000000020000000b DB 0bH, 00H, 00H, 00H, 02H, 00H, 00H
	DB	00H, 07H, 00H, 00H, 00H, 00H, 00H, 00H, 00H
CONST	ENDS
;	COMDAT __real@c08f480000000000
CONST	SEGMENT
__real@c08f480000000000 DQ 0c08f480000000000r	; -1001
CONST	ENDS
;	COMDAT __real@c082780000000000
CONST	SEGMENT
__real@c082780000000000 DQ 0c082780000000000r	; -591
CONST	ENDS
;	COMDAT __real@c077d00000000000
CONST	SEGMENT
__real@c077d00000000000 DQ 0c077d00000000000r	; -381
CONST	ENDS
;	COMDAT __real@c072d00000000000
CONST	SEGMENT
__real@c072d00000000000 DQ 0c072d00000000000r	; -301
CONST	ENDS
;	COMDAT __real@c03f000000000000
CONST	SEGMENT
__real@c03f000000000000 DQ 0c03f000000000000r	; -31
CONST	ENDS
;	COMDAT __real@c028000000000000
CONST	SEGMENT
__real@c028000000000000 DQ 0c028000000000000r	; -12
CONST	ENDS
;	COMDAT __real@c020000000000000
CONST	SEGMENT
__real@c020000000000000 DQ 0c020000000000000r	; -8
CONST	ENDS
;	COMDAT __real@c018000000000000
CONST	SEGMENT
__real@c018000000000000 DQ 0c018000000000000r	; -6
CONST	ENDS
;	COMDAT __real@c010000000000000
CONST	SEGMENT
__real@c010000000000000 DQ 0c010000000000000r	; -4
CONST	ENDS
;	COMDAT __real@c000000000000000
CONST	SEGMENT
__real@c000000000000000 DQ 0c000000000000000r	; -2
CONST	ENDS
;	COMDAT __real@42800000
CONST	SEGMENT
__real@42800000 DD 042800000r			; 64
CONST	ENDS
;	COMDAT __real@4082780000000000
CONST	SEGMENT
__real@4082780000000000 DQ 04082780000000000r	; 591
CONST	ENDS
;	COMDAT __real@401c000000000000
CONST	SEGMENT
__real@401c000000000000 DQ 0401c000000000000r	; 7
CONST	ENDS
;	COMDAT __real@4014000000000000
CONST	SEGMENT
__real@4014000000000000 DQ 04014000000000000r	; 5
CONST	ENDS
;	COMDAT __real@4010000000000000
CONST	SEGMENT
__real@4010000000000000 DQ 04010000000000000r	; 4
CONST	ENDS
;	COMDAT __real@4008000000000000
CONST	SEGMENT
__real@4008000000000000 DQ 04008000000000000r	; 3
CONST	ENDS
;	COMDAT __real@3fe0000000000000
CONST	SEGMENT
__real@3fe0000000000000 DQ 03fe0000000000000r	; 0.5
CONST	ENDS
;	COMDAT __real@3f00000000000000
CONST	SEGMENT
__real@3f00000000000000 DQ 03f00000000000000r	; 3.05176e-05
CONST	ENDS
;	COMDAT __real@3f000000
CONST	SEGMENT
__real@3f000000 DD 03f000000r			; 0.5
CONST	ENDS
;	COMDAT ??_C@_02PBOICDIO@C?$HM@
CONST	SEGMENT
??_C@_02PBOICDIO@C?$HM@ DB 'C|', 00H			; `string'
CONST	ENDS
;	COMDAT ??_C@_0BJ@NKJNALFN@?$LI?$OA?E?d?$LI?$KG?C?k?$LM?R?G?O?$LN?C?$LA?Z?$LN?$MA?$LE?O?$LB?n?$KD?$LP@
CONST	SEGMENT
??_C@_0BJ@NKJNALFN@?$LI?$OA?E?d?$LI?$KG?C?k?$LM?R?G?O?$LN?C?$LA?Z?$LN?$MA?$LE?O?$LB?n?$KD?$LP@ DB 0b8H
	DB	0e0H, 0c5H, 0e4H, 0b8H, 0a6H, 0c3H, 0ebH, 0bcH, 0d2H, 0c7H, 0cfH
	DB	0bdH, 0c3H, 0b0H, 0daH, 0bdH, 0c0H, 0b4H, 0cfH, 0b1H, 0eeH, 0a3H
	DB	0bfH, 00H					; `string'
CONST	ENDS
;	COMDAT ??_C@_0CF@CIJBHHMG@?$LI?$OA?E?d?$LI?$KG?C?k?$LM?R?G?O?$LI?i?$LI?E?$LH?B?$LA?$KB?D?$KB?$LA?$KB?$LA?$KI?$LM?R?G?U?$LE@
CONST	SEGMENT
??_C@_0CF@CIJBHHMG@?$LI?$OA?E?d?$LI?$KG?C?k?$LM?R?G?O?$LI?i?$LI?E?$LH?B?$LA?$KB?D?$KB?$LA?$KB?$LA?$KI?$LM?R?G?U?$LE@ DB 0b8H
	DB	0e0H, 0c5H, 0e4H, 0b8H, 0a6H, 0c3H, 0ebH, 0bcH, 0d2H, 0c7H, 0cfH
	DB	0b8H, 0e9H, 0b8H, 0c5H, 0b7H, 0c2H, 0b0H, 0a1H, 0c4H, 0a1H, 0b0H
	DB	0a1H, 0b0H, 0a8H, 0bcH, 0d2H, 0c7H, 0d5H, 0b4H, 0cfH, 0b4H, 0d9H
	DB	0a3H, 0acH, 00H				; `string'
CONST	ENDS
;	COMDAT ??_C@_0M@KOAEBMHD@?$LI?$OA?E?d?$MA?G?5?$LN?G?$LA?$NN@
CONST	SEGMENT
??_C@_0M@KOAEBMHD@?$LI?$OA?E?d?$MA?G?5?$LN?G?$LA?$NN@ DB 0b8H, 0e0H, 0c5H
	DB	0e4H, 0c0H, 0c7H, ' ', 0bdH, 0c7H, 0b0H, 0ddH, 00H ; `string'
CONST	ENDS
;	COMDAT ??_C@_06MOLOGMLJ@?A?$LO?5?5?$LH?a@
CONST	SEGMENT
??_C@_06MOLOGMLJ@?A?$LO?5?5?$LH?a@ DB 0c1H, 0beH, '  ', 0b7H, 0e1H, 00H ; `string'
CONST	ENDS
;	COMDAT ??_C@_04ELDJJCAA@?$LO?F?$LE?O@
CONST	SEGMENT
??_C@_04ELDJJCAA@?$LO?F?$LE?O@ DB 0beH, 0c6H, 0b4H, 0cfH, 00H ; `string'
CONST	ENDS
;	COMDAT ??_C@_06KFNAOAIJ@?$MA?$LK?G?O?$KD?$LK@
CONST	SEGMENT
??_C@_06KFNAOAIJ@?$MA?$LK?G?O?$KD?$LK@ DB 0c0H, 0baH, 0c7H, 0cfH, 0a3H, 0baH
	DB	00H						; `string'
CONST	ENDS
;	COMDAT ??_C@_07BMIEDOEC@Offline@
CONST	SEGMENT
??_C@_07BMIEDOEC@Offline@ DB 'Offline', 00H		; `string'
CONST	ENDS
;	COMDAT ??_C@_06KCABBADG@Online@
CONST	SEGMENT
??_C@_06KCABBADG@Online@ DB 'Online', 00H		; `string'
CONST	ENDS
;	COMDAT ??_C@_06OLECLEEB@?$LL?s?E?B?$KD?$LK@
CONST	SEGMENT
??_C@_06OLECLEEB@?$LL?s?E?B?$KD?$LK@ DB 0bbH, 0f3H, 0c5H, 0c2H, 0a3H, 0baH
	DB	00H						; `string'
CONST	ENDS
;	COMDAT ??_C@_0N@FGGIBINO@?$LI?$OA?E?d?$MA?L?$LI?$KH?$KD?$LK?$CFs@
CONST	SEGMENT
??_C@_0N@FGGIBINO@?$LI?$OA?E?d?$MA?L?$LI?$KH?$KD?$LK?$CFs@ DB 0b8H, 0e0H, 0c5H
	DB	0e4H, 0c0H, 0ccH, 0b8H, 0a7H, 0a3H, 0baH, '%s', 00H ; `string'
CONST	ENDS
;	COMDAT ??_C@_08OHAGCECG@?$LI?$OA?E?d?$LL?s?E?B@
CONST	SEGMENT
??_C@_08OHAGCECG@?$LI?$OA?E?d?$LL?s?E?B@ DB 0b8H, 0e0H, 0c5H, 0e4H, 0bbH, 0f3H
	DB	0c5H, 0c2H, 00H				; `string'
CONST	ENDS
;	COMDAT ??_C@_0BJ@HGNGOOJL@?$LI?$OA?E?d?$LH?N?5?$LE?$KJ?$LB?$LM?5?$LM?$LB?E?C?G?U?$LE?O?$LB?n?$KD?$LP@
CONST	SEGMENT
??_C@_0BJ@HGNGOOJL@?$LI?$OA?E?d?$LH?N?5?$LE?$KJ?$LB?$LM?5?$LM?$LB?E?C?G?U?$LE?O?$LB?n?$KD?$LP@ DB 0b8H
	DB	0e0H, 0c5H, 0e4H, 0b7H, 0ceH, ' ', 0b4H, 0a9H, 0b1H, 0bcH, ' ', 0bcH
	DB	0b1H, 0c5H, 0c3H, 0c7H, 0d5H, 0b4H, 0cfH, 0b1H, 0eeH, 0a3H, 0bfH
	DB	00H						; `string'
CONST	ENDS
;	COMDAT ??_C@_04PNIAPCPG@O?$HM?$CFd@
CONST	SEGMENT
??_C@_04PNIAPCPG@O?$HM?$CFd@ DB 'O|%d', 00H		; `string'
CONST	ENDS
;	COMDAT ??_C@_06PNFMGOAF@?C?k?5?5?$LM?R@
CONST	SEGMENT
??_C@_06PNFMGOAF@?C?k?5?5?$LM?R@ DB 0c3H, 0ebH, '  ', 0bcH, 0d2H, 00H ; `string'
CONST	ENDS
;	COMDAT ??_C@_06BLFCGNEJ@?H?$KO?5?5?$MA?N@
CONST	SEGMENT
??_C@_06BLFCGNEJ@?H?$KO?5?5?$MA?N@ DB 0c8H, 0aeH, '  ', 0c0H, 0ceH, 00H ; `string'
CONST	ENDS
;	COMDAT ??_C@_0BD@KCELJCBE@?$LI?$OA?E?d?$LA?$KB?$LF?G?$LO?n?$LK?$LI?$LM?$LM?$LP?d?$KD?$LP@
CONST	SEGMENT
??_C@_0BD@KCELJCBE@?$LI?$OA?E?d?$LA?$KB?$LF?G?$LO?n?$LK?$LI?$LM?$LM?$LP?d?$KD?$LP@ DB 0b8H
	DB	0e0H, 0c5H, 0e4H, 0b0H, 0a1H, 0b5H, 0c7H, 0beH, 0eeH, 0baH, 0b8H
	DB	0bcH, 0bcH, 0bfH, 0e4H, 0a3H, 0bfH, 00H	; `string'
CONST	ENDS
;	COMDAT ??_C@_0BK@GGAGFANJ@?$LE?g?$LN?E?$MA?$LK?$LN?D?$LK?$LA?G?R?$LM?v?$MA?V?$LN?$MA?$LE?O?$LB?n?5?$CFs@
CONST	SEGMENT
??_C@_0BK@GGAGFANJ@?$LE?g?$LN?E?$MA?$LK?$LN?D?$LK?$LA?G?R?$LM?v?$MA?V?$LN?$MA?$LE?O?$LB?n?5?$CFs@ DB 0b4H
	DB	0e7H, 0bdH, 0c5H, 0c0H, 0baH, 0bdH, 0c4H, 0baH, 0b0H, 0c7H, 0d2H
	DB	0bcH, 0f6H, 0c0H, 0d6H, 0bdH, 0c0H, 0b4H, 0cfH, 0b1H, 0eeH, ' '
	DB	'%s', 00H					; `string'
CONST	ENDS
;	COMDAT ??_C@_0L@MGMKLDIO@map?2?$CFd?4ani@
CONST	SEGMENT
??_C@_0L@MGMKLDIO@map?2?$CFd?4ani@ DB 'map\%d.ani', 00H	; `string'
CONST	ENDS
;	COMDAT ??_C@_0BL@EJEFDMMK@?E?$LO?$LN?B?$LJ?h?$LP?l?$LB?b?$MA?$KH?G?Q?$LF?$LP?$MA?G?$LM?$KN?$MA?$NL?$LM?$LK?$KB?$KD@
CONST	SEGMENT
??_C@_0BL@EJEFDMMK@?E?$LO?$LN?B?$LJ?h?$LP?l?$LB?b?$MA?$KH?G?Q?$LF?$LP?$MA?G?$LM?$KN?$MA?$NL?$LM?$LK?$KB?$KD@ DB 0c5H
	DB	0beH, 0bdH, 0c2H, 0b9H, 0e8H, 0bfH, 0ecH, 0b1H, 0e2H, 0c0H, 0a7H
	DB	0c7H, 0d1H, 0b5H, 0bfH, 0c0H, 0c7H, 0bcH, 0adH, 0c0H, 0dbH, 0bcH
	DB	0baH, 0a1H, 0a3H, 00H			; `string'
CONST	ENDS
;	COMDAT ??_C@_0BF@CGFLPMMC@?$LK?N?A?$LH?$LJ?f?$LJ?$KO?C?J?C?$LL?$MA?e?$MA?$NL?$LM?$LK?$KB?$KD@
CONST	SEGMENT
??_C@_0BF@CGFLPMMC@?$LK?N?A?$LH?$LJ?f?$LJ?$KO?C?J?C?$LL?$MA?e?$MA?$NL?$LM?$LK?$KB?$KD@ DB 0baH
	DB	0ceH, 0c1H, 0b7H, 0b9H, 0e6H, 0b9H, 0aeH, 0c3H, 0caH, 0c3H, 0bbH
	DB	0c0H, 0e5H, 0c0H, 0dbH, 0bcH, 0baH, 0a1H, 0a3H, 00H ; `string'
CONST	ENDS
;	COMDAT ??_C@_0BB@MGNAPNJL@?$LK?N?A?$LH?$LB?$LI?$LM?$LK?$LP?x?$LI?q?$LH?O?$KB?$KD@
CONST	SEGMENT
??_C@_0BB@MGNAPNJL@?$LK?N?A?$LH?$LB?$LI?$LM?$LK?$LP?x?$LI?q?$LH?O?$KB?$KD@ DB 0baH
	DB	0ceH, 0c1H, 0b7H, 0b1H, 0b8H, 0bcH, 0baH, 0bfH, 0f8H, 0b8H, 0f1H
	DB	0b7H, 0cfH, 0a1H, 0a3H, 00H			; `string'
CONST	ENDS
;	COMDAT ??_C@_0CD@LJIHMIMO@?A?$LH?$MA?e?$MA?$LK?5?$LK?N?A?$LH?$LP?x?$MA?$PM?C?$LM?$LP?$KB?$LA?T?5?$LA?x?A?v?G?U?$LE?O?$LE@
CONST	SEGMENT
??_C@_0CD@LJIHMIMO@?A?$LH?$MA?e?$MA?$LK?5?$LK?N?A?$LH?$LP?x?$MA?$PM?C?$LM?$LP?$KB?$LA?T?5?$LA?x?A?v?G?U?$LE?O?$LE@ DB 0c1H
	DB	0b7H, 0c0H, 0e5H, 0c0H, 0baH, ' ', 0baH, 0ceH, 0c1H, 0b7H, 0bfH
	DB	0f8H, 0c0H, 0fcH, 0c3H, 0bcH, 0bfH, 0a1H, 0b0H, 0d4H, ' ', 0b0H
	DB	0f8H, 0c1H, 0f6H, 0c7H, 0d5H, 0b4H, 0cfH, 0b4H, 0d9H, 0a1H, 0a3H
	DB	00H						; `string'
CONST	ENDS
;	COMDAT ??_C@_0BB@BPLOID@?5?5?A?$LH?$MA?e?$LB?G?G?Q?$LK?N?$LP?$KJ?5?5@
CONST	SEGMENT
??_C@_0BB@BPLOID@?5?5?A?$LH?$MA?e?$LB?G?G?Q?$LK?N?$LP?$KJ?5?5@ DB '  ', 0c1H
	DB	0b7H, 0c0H, 0e5H, 0b1H, 0c7H, 0c7H, 0d1H, 0baH, 0ceH, 0bfH, 0a9H
	DB	'  ', 00H					; `string'
CONST	ENDS
;	COMDAT ??_C@_0L@MJPGOABE@?5?$LP?$KM?$LB?$LI?$LF?$LP?$MA?G?5@
CONST	SEGMENT
??_C@_0L@MJPGOABE@?5?$LP?$KM?$LB?$LI?$LF?$LP?$MA?G?5@ DB ' ', 0bfH, 0acH, 0b1H
	DB	0b8H, 0b5H, 0bfH, 0c0H, 0c7H, ' ', 00H	; `string'
CONST	ENDS
;	COMDAT ??_C@_0L@DOBBGKCH@?5?$LK?N?A?$LH?C?J?$LE?k?5@
CONST	SEGMENT
??_C@_0L@DOBBGKCH@?5?$LK?N?A?$LH?C?J?$LE?k?5@ DB ' ', 0baH, 0ceH, 0c1H, 0b7H
	DB	0c3H, 0caH, 0b4H, 0ebH, ' ', 00H		; `string'
CONST	ENDS
;	COMDAT ??_C@_0P@OGFFOIDE@?$LK?N?A?$LH?$LB?$LI?$LM?$LK?$LP?x?$LA?$PM?$LI?$KO@
CONST	SEGMENT
??_C@_0P@OGFFOIDE@?$LK?N?A?$LH?$LB?$LI?$LM?$LK?$LP?x?$LA?$PM?$LI?$KO@ DB 0baH
	DB	0ceH, 0c1H, 0b7H, 0b1H, 0b8H, 0bcH, 0baH, 0bfH, 0f8H, 0b0H, 0fcH
	DB	0b8H, 0aeH, 00H				; `string'
CONST	ENDS
;	COMDAT ??_C@_0N@NIGFCJOO@?5?5?A?$LH?$MA?e?$LJ?f?$LM?$NL?5?5@
CONST	SEGMENT
??_C@_0N@NIGFCJOO@?5?5?A?$LH?$MA?e?$LJ?f?$LM?$NL?5?5@ DB '  ', 0c1H, 0b7H
	DB	0c0H, 0e5H, 0b9H, 0e6H, 0bcH, 0dbH, '  ', 00H ; `string'
CONST	ENDS
;	COMDAT ??_C@_0L@CJCIOOAN@L?$HMCHANGE?$HML@
CONST	SEGMENT
??_C@_0L@CJCIOOAN@L?$HMCHANGE?$HML@ DB 'L|CHANGE|L', 00H ; `string'
CONST	ENDS
;	COMDAT ??_C@_05GLNMLLEF@L?$HML?$HM2@
CONST	SEGMENT
??_C@_05GLNMLLEF@L?$HML?$HM2@ DB 'L|L|2', 00H		; `string'
CONST	ENDS
;	COMDAT ??_C@_05EAPBOIIG@L?$HML?$HM1@
CONST	SEGMENT
??_C@_05EAPBOIIG@L?$HML?$HM1@ DB 'L|L|1', 00H		; `string'
CONST	ENDS
;	COMDAT ??_C@_05CPEMAIOC@L?$HMF?$HM1@
CONST	SEGMENT
??_C@_05CPEMAIOC@L?$HMF?$HM1@ DB 'L|F|1', 00H		; `string'
CONST	ENDS
;	COMDAT ??_C@_05PAKAMAIL@C?$HMJ?$HM5@
CONST	SEGMENT
??_C@_05PAKAMAIL@C?$HMJ?$HM5@ DB 'C|J|5', 00H		; `string'
CONST	ENDS
;	COMDAT ??_C@_0BJ@BJPJPJLI@?$MA?V?$LE?Y?5?$CFd?5?$MA?L?C?$KE?$LD?N?$MA?G?$LL?g?$LG?w?$LF?i?$KB?$KD@
CONST	SEGMENT
??_C@_0BJ@BJPJPJLI@?$MA?V?$LE?Y?5?$CFd?5?$MA?L?C?$KE?$LD?N?$MA?G?$LL?g?$LG?w?$LF?i?$KB?$KD@ DB 0c0H
	DB	0d6H, 0b4H, 0d9H, ' %d ', 0c0H, 0ccH, 0c3H, 0a4H, 0b3H, 0ceH, 0c0H
	DB	0c7H, 0bbH, 0e7H, 0b6H, 0f7H, 0b5H, 0e9H, 0a1H, 0a3H, 00H ; `string'
CONST	ENDS
;	COMDAT ??_C@_0BI@COJOKGGA@?G?v?$MA?g?5?$CFd?5?$MA?L?$LK?N?A?$LH?$MA?G?5?$LA?$KB?A?$LH?$KB?$KD@
CONST	SEGMENT
??_C@_0BI@COJOKGGA@?G?v?$MA?g?5?$CFd?5?$MA?L?$LK?N?A?$LH?$MA?G?5?$LA?$KB?A?$LH?$KB?$KD@ DB 0c7H
	DB	0f6H, 0c0H, 0e7H, ' %d ', 0c0H, 0ccH, 0baH, 0ceH, 0c1H, 0b7H, 0c0H
	DB	0c7H, ' ', 0b0H, 0a1H, 0c1H, 0b7H, 0a1H, 0a3H, 00H ; `string'
CONST	ENDS
;	COMDAT ??_C@_0BA@FLCLDJN@?$FL?5?C?$KE?5?$LD?N?5?H?$LI?5?$LP?x?5?$FN@
CONST	SEGMENT
??_C@_0BA@FLCLDJN@?$FL?5?C?$KE?5?$LD?N?5?H?$LI?5?$LP?x?5?$FN@ DB '[ ', 0c3H
	DB	0a4H, ' ', 0b3H, 0ceH, ' ', 0c8H, 0b8H, ' ', 0bfH, 0f8H, ' ]', 00H ; `string'
CONST	ENDS
;	COMDAT ??_C@_08CMINFIIP@?5?E?$LL?5?5?E?p?5@
CONST	SEGMENT
??_C@_08CMINFIIP@?5?E?$LL?5?5?E?p?5@ DB ' ', 0c5H, 0bbH, '  ', 0c5H, 0f0H
	DB	' ', 00H					; `string'
CONST	ENDS
;	COMDAT ??_C@_08JGHLAOEI@?5?B?$PM?5?5?$LA?$KB?5@
CONST	SEGMENT
??_C@_08JGHLAOEI@?5?B?$PM?5?5?$LA?$KB?5@ DB ' ', 0c2H, 0fcH, '  ', 0b0H, 0a1H
	DB	' ', 00H					; `string'
CONST	ENDS
;	COMDAT ??_C@_06GHCNPHLL@C?$HMJ?$HM?$CFd@
CONST	SEGMENT
??_C@_06GHCNPHLL@C?$HMJ?$HM?$CFd@ DB 'C|J|%d', 00H	; `string'
CONST	ENDS
;	COMDAT ??_C@_0L@EIKLEHBI@?$MA?L?C?$KC?$LE?$NN?$LB?b?$KB?$KD@
CONST	SEGMENT
??_C@_0L@EIKLEHBI@?$MA?L?C?$KC?$LE?$NN?$LB?b?$KB?$KD@ DB 0c0H, 0ccH, 0c3H
	DB	0a2H, 0b4H, 0ddH, 0b1H, 0e2H, 0a1H, 0a3H, 00H ; `string'
CONST	ENDS
;	COMDAT ??_C@_0P@CBBBPELI@?$MA?L?C?$KE?$LD?N?$LP?$KB?$LA?$KB?$MA?T?$KB?$KD@
CONST	SEGMENT
??_C@_0P@CBBBPELI@?$MA?L?C?$KE?$LD?N?$LP?$KB?$LA?$KB?$MA?T?$KB?$KD@ DB 0c0H
	DB	0ccH, 0c3H, 0a4H, 0b3H, 0ceH, 0bfH, 0a1H, 0b0H, 0a1H, 0c0H, 0d4H
	DB	0a1H, 0a3H, 00H				; `string'
CONST	ENDS
;	COMDAT ??_C@_0BJ@MOILBLMI@?C?$KE?F?C?C?$KE?$LD?N?$LI?$NO?$LE?$LK?$LP?$KB?$LM?$KN?$LD?$KK?$LA?$KB?$LB?b?$KB?$KD@
CONST	SEGMENT
??_C@_0BJ@MOILBLMI@?C?$KE?F?C?C?$KE?$LD?N?$LI?$NO?$LE?$LK?$LP?$KB?$LM?$KN?$LD?$KK?$LA?$KB?$LB?b?$KB?$KD@ DB 0c3H
	DB	0a4H, 0c6H, 0c3H, 0c3H, 0a4H, 0b3H, 0ceH, 0b8H, 0deH, 0b4H, 0baH
	DB	0bfH, 0a1H, 0bcH, 0adH, 0b3H, 0aaH, 0b0H, 0a1H, 0b1H, 0e2H, 0a1H
	DB	0a3H, 00H					; `string'
CONST	ENDS
;	COMDAT ??_C@_0BD@BKOBNADD@?A?$LH?$MA?e?$LJ?f?$LM?$NL?$LB?b?$LE?I?$LC?t?$LB?b?$KB?$KD@
CONST	SEGMENT
??_C@_0BD@BKOBNADD@?A?$LH?$MA?e?$LJ?f?$LM?$NL?$LB?b?$LE?I?$LC?t?$LB?b?$KB?$KD@ DB 0c1H
	DB	0b7H, 0c0H, 0e5H, 0b9H, 0e6H, 0bcH, 0dbH, 0b1H, 0e2H, 0b4H, 0c9H
	DB	0b2H, 0f4H, 0b1H, 0e2H, 0a1H, 0a3H, 00H	; `string'
CONST	ENDS
;	COMDAT ??_C@_0BF@EKJBMCBD@?$LK?N?A?$LH?$LA?T?$LN?C?F?G?$LB?b?$LE?I?$LL?g?$LP?k?$KB?$KD@
CONST	SEGMENT
??_C@_0BF@EKJBMCBD@?$LK?N?A?$LH?$LA?T?$LN?C?F?G?$LB?b?$LE?I?$LL?g?$LP?k?$KB?$KD@ DB 0baH
	DB	0ceH, 0c1H, 0b7H, 0b0H, 0d4H, 0bdH, 0c3H, 0c6H, 0c7H, 0b1H, 0e2H
	DB	0b4H, 0c9H, 0bbH, 0e7H, 0bfH, 0ebH, 0a1H, 0a3H, 00H ; `string'
CONST	ENDS
;	COMDAT ??_C@_0BF@MBHIEFGB@?C?$OA?$LK?$LJ?$LL?g?$MA?G?F?$KP?$LK?$LA?G?Q?$LB?b?$LE?I?$KB?$KD@
CONST	SEGMENT
??_C@_0BF@MBHIEFGB@?C?$OA?$LK?$LJ?$LL?g?$MA?G?F?$KP?$LK?$LA?G?Q?$LB?b?$LE?I?$KB?$KD@ DB 0c3H
	DB	0e0H, 0baH, 0b9H, 0bbH, 0e7H, 0c0H, 0c7H, 0c6H, 0afH, 0baH, 0b0H
	DB	0c7H, 0d1H, 0b1H, 0e2H, 0b4H, 0c9H, 0a1H, 0a3H, 00H ; `string'
CONST	ENDS
;	COMDAT ??_C@_0BD@CBGDDGMA@?$LA?$KB?A?$LH?$LM?$LM?$LK?N?A?$KE?$LK?$LI?$LK?$LI?$LB?b?$KB?$KD@
CONST	SEGMENT
??_C@_0BD@CBGDDGMA@?$LA?$KB?A?$LH?$LM?$LM?$LK?N?A?$KE?$LK?$LI?$LK?$LI?$LB?b?$KB?$KD@ DB 0b0H
	DB	0a1H, 0c1H, 0b7H, 0bcH, 0bcH, 0baH, 0ceH, 0c1H, 0a4H, 0baH, 0b8H
	DB	0baH, 0b8H, 0b1H, 0e2H, 0a1H, 0a3H, 00H	; `string'
CONST	ENDS
;	COMDAT ??_C@_01CLKCMJKC@?5@
CONST	SEGMENT
??_C@_01CLKCMJKC@?5@ DB ' ', 00H			; `string'
CONST	ENDS
;	COMDAT ??_C@_06JEJPCC@S?$HMSELF@
CONST	SEGMENT
??_C@_06JEJPCC@S?$HMSELF@ DB 'S|SELF', 00H		; `string'
CONST	ENDS
;	COMDAT ??_C@_06KOPCAPBC@C?$HMJ?$HM?91@
CONST	SEGMENT
??_C@_06KOPCAPBC@C?$HMJ?$HM?91@ DB 'C|J|-1', 00H	; `string'
CONST	ENDS
;	COMDAT ??_C@_01CKDDGHAB@D@
CONST	SEGMENT
??_C@_01CKDDGHAB@D@ DB 'D', 00H				; `string'
CONST	ENDS
;	COMDAT ??_C@_04PNGENDLA@S?$HMD2@
CONST	SEGMENT
??_C@_04PNGENDLA@S?$HMD2@ DB 'S|D2', 00H		; `string'
CONST	ENDS
;	COMDAT ??_C@_04IJNKKJEO@?H?$KO?$MA?N@
CONST	SEGMENT
??_C@_04IJNKKJEO@?H?$KO?$MA?N@ DB 0c8H, 0aeH, 0c0H, 0ceH, 00H ; `string'
CONST	ENDS
;	COMDAT ??_C@_0BD@KHIHNLHO@?$LF?$LJ?$LO?F?$LA?$KB?$LN?C?$LA?Z?$LN?$MA?$LE?O?$LB?n?$KD?$LP@
CONST	SEGMENT
??_C@_0BD@KHIHNLHO@?$LF?$LJ?$LO?F?$LA?$KB?$LN?C?$LA?Z?$LN?$MA?$LE?O?$LB?n?$KD?$LP@ DB 0b5H
	DB	0b9H, 0beH, 0c6H, 0b0H, 0a1H, 0bdH, 0c3H, 0b0H, 0daH, 0bdH, 0c0H
	DB	0b4H, 0cfH, 0b1H, 0eeH, 0a3H, 0bfH, 00H	; `string'
CONST	ENDS
;	COMDAT ??_C@_0CA@MLBEKKLD@?$LM?$KN?$LJ?v?$LP?M?$MA?G?5?$LP?$KM?$LA?a?$MA?L?5?A?$LO?$LH?a?$LF?G?$LO?z?$LN?$MA?$LE?O?$LE?Y?4@
CONST	SEGMENT
??_C@_0CA@MLBEKKLD@?$LM?$KN?$LJ?v?$LP?M?$MA?G?5?$LP?$KM?$LA?a?$MA?L?5?A?$LO?$LH?a?$LF?G?$LO?z?$LN?$MA?$LE?O?$LE?Y?4@ DB 0bcH
	DB	0adH, 0b9H, 0f6H, 0bfH, 0cdH, 0c0H, 0c7H, ' ', 0bfH, 0acH, 0b0H
	DB	0e1H, 0c0H, 0ccH, ' ', 0c1H, 0beH, 0b7H, 0e1H, 0b5H, 0c7H, 0beH
	DB	0faH, 0bdH, 0c0H, 0b4H, 0cfH, 0b4H, 0d9H, '.', 00H ; `string'
CONST	ENDS
;	COMDAT ??_C@_04HDOCAJNK@?$CFs?$CFs@
CONST	SEGMENT
??_C@_04HDOCAJNK@?$CFs?$CFs@ DB '%s%s', 00H		; `string'
CONST	ENDS
;	COMDAT ??_C@_0L@KHKHJBNB@1024?5x?5768@
CONST	SEGMENT
??_C@_0L@KHKHJBNB@1024?5x?5768@ DB '1024 x 768', 00H	; `string'
CONST	ENDS
;	COMDAT ??_C@_0L@FFMHNIN@?5800?5x?5600@
CONST	SEGMENT
??_C@_0L@FFMHNIN@?5800?5x?5600@ DB ' 800 x 600', 00H	; `string'
CONST	ENDS
;	COMDAT ??_C@_0L@FCDLGIBD@?5320?5x?5280@
CONST	SEGMENT
??_C@_0L@FCDLGIBD@?5320?5x?5280@ DB ' 320 x 280', 00H	; `string'
CONST	ENDS
;	COMDAT ??_C@_0L@OCGDIFAB@?5640?5x?5480@
CONST	SEGMENT
??_C@_0L@OCGDIFAB@?5640?5x?5480@ DB ' 640 x 480', 00H	; `string'
CONST	ENDS
;	COMDAT ??_C@_0N@NBGJJJHP@?$LI?$NO?$LE?$LK?C?$KC?$LE?$NN?$LB?b?$KB?$KD@
CONST	SEGMENT
??_C@_0N@NBGJJJHP@?$LI?$NO?$LE?$LK?C?$KC?$LE?$NN?$LB?b?$KB?$KD@ DB 0b8H, 0deH
	DB	0b4H, 0baH, 0c3H, 0a2H, 0b4H, 0ddH, 0b1H, 0e2H, 0a1H, 0a3H, 00H ; `string'
CONST	ENDS
;	COMDAT ??_C@_0CF@MCKEAICK@?$LD?k?A?$KB?$LP?$KB?$LM?$KN?$LA?E?$LH?$KB?$LP?$KN?$LM?v?$LO?x?$MA?$LN?$KB?$KC?F?D?F?$LM?$LJ?W?$MA?$PM?E@
CONST	SEGMENT
??_C@_0CF@MCKEAICK@?$LD?k?A?$KB?$LP?$KB?$LM?$KN?$LA?E?$LH?$KB?$LP?$KN?$LM?v?$LO?x?$MA?$LN?$KB?$KC?F?D?F?$LM?$LJ?W?$MA?$PM?E@ DB 0b3H
	DB	0ebH, 0c1H, 0a1H, 0bfH, 0a1H, 0bcH, 0adH, 0b0H, 0c5H, 0b7H, 0a1H
	DB	0bfH, 0adH, 0bcH, 0f6H, 0beH, 0f8H, 0c0H, 0bdH, 0a1H, 0a2H, 0c6H
	DB	0c4H, 0c6H, 0bcH, 0b9H, 0d7H, 0c0H, 0fcH, 0c5H, 0f5H, 0b1H, 0e2H
	DB	0b4H, 0c9H, 00H				; `string'
CONST	ENDS
;	COMDAT ??_C@_0BI@JGAFKJCL@?$LI?$NO?$LE?$LK?5?$LM?$LD?A?$KE?C?$KC?$MA?$LL?5?$LE?$NN?$LN?$MA?$LE?O?$LE?Y?4@
CONST	SEGMENT
??_C@_0BI@JGAFKJCL@?$LI?$NO?$LE?$LK?5?$LM?$LD?A?$KE?C?$KC?$MA?$LL?5?$LE?$NN?$LN?$MA?$LE?O?$LE?Y?4@ DB 0b8H
	DB	0deH, 0b4H, 0baH, ' ', 0bcH, 0b3H, 0c1H, 0a4H, 0c3H, 0a2H, 0c0H
	DB	0bbH, ' ', 0b4H, 0ddH, 0bdH, 0c0H, 0b4H, 0cfH, 0b4H, 0d9H, '.', 00H ; `string'
CONST	ENDS
;	COMDAT ??_C@_0BJ@DLFHHIDJ@?C?$KE?$LD?N?5?$LM?$LD?A?$KE?5?F?D?$MA?O?5?$MA?P?$LB?b?5?$LN?G?F?P@
CONST	SEGMENT
??_C@_0BJ@DLFHHIDJ@?C?$KE?$LD?N?5?$LM?$LD?A?$KE?5?F?D?$MA?O?5?$MA?P?$LB?b?5?$LN?G?F?P@ DB 0c3H
	DB	0a4H, 0b3H, 0ceH, ' ', 0bcH, 0b3H, 0c1H, 0a4H, ' ', 0c6H, 0c4H
	DB	0c0H, 0cfH, ' ', 0c0H, 0d0H, 0b1H, 0e2H, ' ', 0bdH, 0c7H, 0c6H
	DB	0d0H, 00H					; `string'
CONST	ENDS
;	COMDAT ??_C@_0BB@BLGDDDEM@data?2channel?4dat@
CONST	SEGMENT
??_C@_0BB@BLGDDDEM@data?2channel?4dat@ DB 'data\channel.dat', 00H ; `string'
CONST	ENDS
;	COMDAT ??_C@_02CHHAKFFB@w?$CL@
CONST	SEGMENT
??_C@_02CHHAKFFB@w?$CL@ DB 'w+', 00H			; `string'
CONST	ENDS
;	COMDAT ??_C@_0BD@JIKBMICG@?$LA?m?$LP?k?$LF?G?A?v?$LO?J?$LO?R?$LN?$MA?$LE?O?$LE?Y@
CONST	SEGMENT
??_C@_0BD@JIKBMICG@?$LA?m?$LP?k?$LF?G?A?v?$LO?J?$LO?R?$LN?$MA?$LE?O?$LE?Y@ DB 0b0H
	DB	0edH, 0bfH, 0ebH, 0b5H, 0c7H, 0c1H, 0f6H, 0beH, 0caH, 0beH, 0d2H
	DB	0bdH, 0c0H, 0b4H, 0cfH, 0b4H, 0d9H, 00H	; `string'
CONST	ENDS
;	COMDAT ??_C@_0BJ@BCJNPCLP@?$LA?$KB?A?$LH?$LP?$KB?$LA?$KB?$MA?T?G?O?A?v?$LO?J?$LO?R?$LN?$MA?$LE?O?$LE?Y@
CONST	SEGMENT
??_C@_0BJ@BCJNPCLP@?$LA?$KB?A?$LH?$LP?$KB?$LA?$KB?$MA?T?G?O?A?v?$LO?J?$LO?R?$LN?$MA?$LE?O?$LE?Y@ DB 0b0H
	DB	0a1H, 0c1H, 0b7H, 0bfH, 0a1H, 0b0H, 0a1H, 0c0H, 0d4H, 0c7H, 0cfH
	DB	0c1H, 0f6H, 0beH, 0caH, 0beH, 0d2H, 0bdH, 0c0H, 0b4H, 0cfH, 0b4H
	DB	0d9H, 00H					; `string'
CONST	ENDS
;	COMDAT ??_C@_08DKNMBPNK@?$LE?k?H?$KN?$MA?z?$MA?e@
CONST	SEGMENT
??_C@_08DKNMBPNK@?$LE?k?H?$KN?$MA?z?$MA?e@ DB 0b4H, 0ebH, 0c8H, 0adH, 0c0H
	DB	0faH, 0c0H, 0e5H, 00H			; `string'
CONST	ENDS
;	COMDAT ??_C@_08LIEPCPDK@?$LA?f?$LI?E?C?$KE?$LD?N@
CONST	SEGMENT
??_C@_08LIEPCPDK@?$LA?f?$LI?E?C?$KE?$LD?N@ DB 0b0H, 0e6H, 0b8H, 0c5H, 0c3H
	DB	0a4H, 0b3H, 0ceH, 00H			; `string'
CONST	ENDS
;	COMDAT ??_C@_06IAKMCPJ@?$LA?$KB?A?$LH?$LI?$LL@
CONST	SEGMENT
??_C@_06IAKMCPJ@?$LA?$KB?A?$LH?$LI?$LL@ DB 0b0H, 0a1H, 0c1H, 0b7H, 0b8H, 0bbH
	DB	00H						; `string'
CONST	ENDS
;	COMDAT ??_C@_06FNJBCBKN@?$LB?S?$LM?S?$LI?$LL@
CONST	SEGMENT
??_C@_06FNJBCBKN@?$LB?S?$LM?S?$LI?$LL@ DB 0b1H, 0d3H, 0bcH, 0d3H, 0b8H, 0bbH
	DB	00H						; `string'
CONST	ENDS
;	COMDAT ??_C@_0BL@JJOLNGNO@?$LA?T?$MA?S?$MA?N?E?M?F?d?$MA?L?$LN?$LK?G?X?$LL?s?$LF?$LF?$LM?$LD?A?$KE?$KB?$KD@
CONST	SEGMENT
??_C@_0BL@JJOLNGNO@?$LA?T?$MA?S?$MA?N?E?M?F?d?$MA?L?$LN?$LK?G?X?$LL?s?$LF?$LF?$LM?$LD?A?$KE?$KB?$KD@ DB 0b0H
	DB	0d4H, 0c0H, 0d3H, 0c0H, 0ceH, 0c5H, 0cdH, 0c6H, 0e4H, 0c0H, 0ccH
	DB	0bdH, 0baH, 0c7H, 0d8H, 0bbH, 0f3H, 0b5H, 0b5H, 0bcH, 0b3H, 0c1H
	DB	0a4H, 0a1H, 0a3H, 00H			; `string'
CONST	ENDS
;	COMDAT ??_C@_0BD@DBDDAFOG@?$LA?E?$LH?$KB?$LM?v?$LG?t?$LP?$KJ?$LK?N?$LM?$LD?A?$KE?$KB?$KD@
CONST	SEGMENT
??_C@_0BD@DBDDAFOG@?$LA?E?$LH?$KB?$LM?v?$LG?t?$LP?$KJ?$LK?N?$LM?$LD?A?$KE?$KB?$KD@ DB 0b0H
	DB	0c5H, 0b7H, 0a1H, 0bcH, 0f6H, 0b6H, 0f4H, 0bfH, 0a9H, 0baH, 0ceH
	DB	0bcH, 0b3H, 0c1H, 0a4H, 0a1H, 0a3H, 00H	; `string'
CONST	ENDS
;	COMDAT ??_C@_0BF@NLHMJPHG@?$LA?$KC?C?$KE?$LD?N?$LM?$LD?A?$KE?$LG?G?$LE?B?G?X?A?$KG?$KB?$KD@
CONST	SEGMENT
??_C@_0BF@NLHMJPHG@?$LA?$KC?C?$KE?$LD?N?$LM?$LD?A?$KE?$LG?G?$LE?B?G?X?A?$KG?$KB?$KD@ DB 0b0H
	DB	0a2H, 0c3H, 0a4H, 0b3H, 0ceH, 0bcH, 0b3H, 0c1H, 0a4H, 0b6H, 0c7H
	DB	0b4H, 0c2H, 0c7H, 0d8H, 0c1H, 0a6H, 0a1H, 0a3H, 00H ; `string'
CONST	ENDS
;	COMDAT ??_C@_0BH@GAKCDBLG@?$LI?m?G?T?$LB?$LD?H?$KP?G?c?$LP?k?$LP?$KJ?$LK?N?$LM?$LD?A?$KE?$KB?$KD@
CONST	SEGMENT
??_C@_0BH@GAKCDBLG@?$LI?m?G?T?$LB?$LD?H?$KP?G?c?$LP?k?$LP?$KJ?$LK?N?$LM?$LD?A?$KE?$KB?$KD@ DB 0b8H
	DB	0edH, 0c7H, 0d4H, 0b1H, 0b3H, 0c8H, 0afH, 0c7H, 0e3H, 0bfH, 0ebH
	DB	0bfH, 0a9H, 0baH, 0ceH, 0bcH, 0b3H, 0c1H, 0a4H, 0a1H, 0a3H, 00H ; `string'
CONST	ENDS
;	COMDAT ??_C@_0BJ@EJIPNKEA@?$LE?Y?$LI?$KF?$LL?g?$LG?w?$LF?$LF?$MA?$PM?$LJ?$NO?$MA?$LL?A?v?$LM?$LD?A?$KE?$KB?$KD@
CONST	SEGMENT
??_C@_0BJ@EJIPNKEA@?$LE?Y?$LI?$KF?$LL?g?$LG?w?$LF?$LF?$MA?$PM?$LJ?$NO?$MA?$LL?A?v?$LM?$LD?A?$KE?$KB?$KD@ DB 0b4H
	DB	0d9H, 0b8H, 0a5H, 0bbH, 0e7H, 0b6H, 0f7H, 0b5H, 0b5H, 0c0H, 0fcH
	DB	0b9H, 0deH, 0c0H, 0bbH, 0c1H, 0f6H, 0bcH, 0b3H, 0c1H, 0a4H, 0a1H
	DB	0a3H, 00H					; `string'
CONST	ENDS
;	COMDAT ??_C@_0BJ@NPLNHFNN@?$LE?Y?$LI?$KF?$LL?g?$LG?w?F?$MA?G?U?$LH?y?$LP?$KJ?$LK?N?$LM?$LD?A?$KE?$KB?$KD@
CONST	SEGMENT
??_C@_0BJ@NPLNHFNN@?$LE?Y?$LI?$KF?$LL?g?$LG?w?F?$MA?G?U?$LH?y?$LP?$KJ?$LK?N?$LM?$LD?A?$KE?$KB?$KD@ DB 0b4H
	DB	0d9H, 0b8H, 0a5H, 0bbH, 0e7H, 0b6H, 0f7H, 0c6H, 0c0H, 0c7H, 0d5H
	DB	0b7H, 0f9H, 0bfH, 0a9H, 0baH, 0ceH, 0bcH, 0b3H, 0c1H, 0a4H, 0a1H
	DB	0a3H, 00H					; `string'
CONST	ENDS
;	COMDAT ??_C@_07CHOGEIED@?5?$KD?Y?$KD?E?$KD?S@
CONST	SEGMENT
??_C@_07CHOGEIED@?5?$KD?Y?$KD?E?$KD?S@ DB ' ', 0a3H, 0d9H, 0a3H, 0c5H, 0a3H
	DB	0d3H, 00H					; `string'
CONST	ENDS
;	COMDAT ??_C@_07MIKFFMHF@?5?$KD?N?5?5?$KD?O@
CONST	SEGMENT
??_C@_07MIKFFMHF@?5?$KD?N?5?5?$KD?O@ DB ' ', 0a3H, 0ceH, '  ', 0a3H, 0cfH
	DB	00H						; `string'
CONST	ENDS
;	COMDAT ??_C@_0L@HENHCGEF@?$LA?E?5?5?5?5?$LH?$KB?$KD?$LK@
CONST	SEGMENT
??_C@_0L@HENHCGEF@?$LA?E?5?5?5?5?$LH?$KB?$KD?$LK@ DB 0b0H, 0c5H, '    ', 0b7H
	DB	0a1H, 0a3H, 0baH, 00H			; `string'
CONST	ENDS
;	COMDAT ??_C@_0BF@IDENONED@?C?$KE?5?5?5?5?$LD?N?5?5?5?5?$LJ?v?5?5?5?5?F?$LA@
CONST	SEGMENT
??_C@_0BF@IDENONED@?C?$KE?5?5?5?5?$LD?N?5?5?5?5?$LJ?v?5?5?5?5?F?$LA@ DB 0c3H
	DB	0a4H, '    ', 0b3H, 0ceH, '    ', 0b9H, 0f6H, '    ', 0c6H, 0b0H
	DB	00H						; `string'
CONST	ENDS
;	COMDAT ??_C@_0L@POPIGLPO@?$LI?m?G?T?$LB?$LD?H?$KP?$KD?$LK@
CONST	SEGMENT
??_C@_0L@POPIGLPO@?$LI?m?G?T?$LB?$LD?H?$KP?$KD?$LK@ DB 0b8H, 0edH, 0c7H, 0d4H
	DB	0b1H, 0b3H, 0c8H, 0afH, 0a3H, 0baH, 00H	; `string'
CONST	ENDS
;	COMDAT ??_C@_0L@MAOAOHML@?$LF?$OA?5?5?5?5?$LO?s?$KD?$LK@
CONST	SEGMENT
??_C@_0L@MAOAOHML@?$LF?$OA?5?5?5?5?$LO?s?$KD?$LK@ DB 0b5H, 0e0H, '    ', 0beH
	DB	0f3H, 0a3H, 0baH, 00H			; `string'
CONST	ENDS
;	COMDAT ??_C@_0L@OLEDJDPG@?F?D?5?5?5?5?F?$LM?$KD?$LK@
CONST	SEGMENT
??_C@_0L@OLEDJDPG@?F?D?5?5?5?5?F?$LM?$KD?$LK@ DB 0c6H, 0c4H, '    ', 0c6H
	DB	0bcH, 0a3H, 0baH, 00H			; `string'
CONST	ENDS
;	COMDAT ??_C@_0L@NHKEOPKL@?$MA?$NL?$LO?w?C?$KC?$LE?$NN?$LB?b@
CONST	SEGMENT
??_C@_0L@NHKEOPKL@?$MA?$NL?$LO?w?C?$KC?$LE?$NN?$LB?b@ DB 0c0H, 0dbH, 0beH
	DB	0f7H, 0c3H, 0a2H, 0b4H, 0ddH, 0b1H, 0e2H, 00H ; `string'
CONST	ENDS
;	COMDAT ??_C@_0CB@DPEEFHJC@?$LE?x?A?v?$LE?B?5?$LO?W?$LM?G?$MA?$LL?5?C?k?G?U?$LE?O?$LE?Y?4?5?$CICtrl?$CL?2@
CONST	SEGMENT
??_C@_0CB@DPEEFHJC@?$LE?x?A?v?$LE?B?5?$LO?W?$LM?G?$MA?$LL?5?C?k?G?U?$LE?O?$LE?Y?4?5?$CICtrl?$CL?2@ DB 0b4H
	DB	0f8H, 0c1H, 0f6H, 0b4H, 0c2H, ' ', 0beH, 0d7H, 0bcH, 0c7H, 0c0H
	DB	0bbH, ' ', 0c3H, 0ebH, 0c7H, 0d5H, 0b4H, 0cfH, 0b4H, 0d9H, '. '
	DB	'(Ctrl+\)', 00H				; `string'
CONST	ENDS
;	COMDAT ??_C@_0CG@FILFJCML@?E?$LI?$LA?$NN?$MA?$LL?5?$MA?T?$LE?B?5?$LO?W?$LM?G?$MA?$LL?5?C?k?G?U?$LE?O?$LE?Y?4?5?$CIC@
CONST	SEGMENT
??_C@_0CG@FILFJCML@?E?$LI?$LA?$NN?$MA?$LL?5?$MA?T?$LE?B?5?$LO?W?$LM?G?$MA?$LL?5?C?k?G?U?$LE?O?$LE?Y?4?5?$CIC@ DB 0c5H
	DB	0b8H, 0b0H, 0ddH, 0c0H, 0bbH, ' ', 0c0H, 0d4H, 0b4H, 0c2H, ' ', 0beH
	DB	0d7H, 0bcH, 0c7H, 0c0H, 0bbH, ' ', 0c3H, 0ebH, 0c7H, 0d5H, 0b4H
	DB	0cfH, 0b4H, 0d9H, '. (Ctrl+=)', 00H		; `string'
CONST	ENDS
;	COMDAT ??_C@_0CD@NKKFDBOL@?$LN?$LN?F?$NL?G?O?$LE?B?5?$LO?W?$LM?G?$MA?$LL?5?C?k?G?U?$LE?O?$LE?Y?4?5?$CICtrl@
CONST	SEGMENT
??_C@_0CD@NKKFDBOL@?$LN?$LN?F?$NL?G?O?$LE?B?5?$LO?W?$LM?G?$MA?$LL?5?C?k?G?U?$LE?O?$LE?Y?4?5?$CICtrl@ DB 0bdH
	DB	0bdH, 0c6H, 0dbH, 0c7H, 0cfH, 0b4H, 0c2H, ' ', 0beH, 0d7H, 0bcH
	DB	0c7H, 0c0H, 0bbH, ' ', 0c3H, 0ebH, 0c7H, 0d5H, 0b4H, 0cfH, 0b4H
	DB	0d9H, '. (Ctrl+6)', 00H			; `string'
CONST	ENDS
;	COMDAT ??_C@_0CD@MIHLAAOD@?$LJ?f?$LO?n?G?O?$LE?B?5?$LO?W?$LM?G?$MA?$LL?5?C?k?G?U?$LE?O?$LE?Y?4?5?$CICtrl@
CONST	SEGMENT
??_C@_0CD@MIHLAAOD@?$LJ?f?$LO?n?G?O?$LE?B?5?$LO?W?$LM?G?$MA?$LL?5?C?k?G?U?$LE?O?$LE?Y?4?5?$CICtrl@ DB 0b9H
	DB	0e6H, 0beH, 0eeH, 0c7H, 0cfH, 0b4H, 0c2H, ' ', 0beH, 0d7H, 0bcH
	DB	0c7H, 0c0H, 0bbH, ' ', 0c3H, 0ebH, 0c7H, 0d5H, 0b4H, 0cfH, 0b4H
	DB	0d9H, '. (Ctrl+-)', 00H			; `string'
CONST	ENDS
;	COMDAT ??_C@_0CE@OIDAHAAG@?H?$KN?$LI?$KG?5?$LD?$LL?$LE?B?5?$LO?W?$LM?G?$MA?$LL?5?C?k?G?U?$LE?O?$LE?Y?4?5?$CICtr@
CONST	SEGMENT
??_C@_0CE@OIDAHAAG@?H?$KN?$LI?$KG?5?$LD?$LL?$LE?B?5?$LO?W?$LM?G?$MA?$LL?5?C?k?G?U?$LE?O?$LE?Y?4?5?$CICtr@ DB 0c8H
	DB	0adH, 0b8H, 0a6H, ' ', 0b3H, 0bbH, 0b4H, 0c2H, ' ', 0beH, 0d7H
	DB	0bcH, 0c7H, 0c0H, 0bbH, ' ', 0c3H, 0ebH, 0c7H, 0d5H, 0b4H, 0cfH
	DB	0b4H, 0d9H, '. (Ctrl+5)', 00H		; `string'
CONST	ENDS
;	COMDAT ??_C@_0CD@OMLIKOJM@?$LA?x?$LA?$NN?G?O?$LE?B?5?$LO?W?$LM?G?$MA?$LL?5?C?k?G?U?$LE?O?$LE?Y?4?5?$CICtrl@
CONST	SEGMENT
??_C@_0CD@OMLIKOJM@?$LA?x?$LA?$NN?G?O?$LE?B?5?$LO?W?$LM?G?$MA?$LL?5?C?k?G?U?$LE?O?$LE?Y?4?5?$CICtrl@ DB 0b0H
	DB	0f8H, 0b0H, 0ddH, 0c7H, 0cfH, 0b4H, 0c2H, ' ', 0beH, 0d7H, 0bcH
	DB	0c7H, 0c0H, 0bbH, ' ', 0c3H, 0ebH, 0c7H, 0d5H, 0b4H, 0cfH, 0b4H
	DB	0d9H, '. (Ctrl+0)', 00H			; `string'
CONST	ENDS
;	COMDAT ??_C@_0CD@CMMPEHFI@?$LB?b?$LL?$LF?G?O?$LE?B?5?$LO?W?$LM?G?$MA?$LL?5?C?k?G?U?$LE?O?$LE?Y?4?5?$CICtrl@
CONST	SEGMENT
??_C@_0CD@CMMPEHFI@?$LB?b?$LL?$LF?G?O?$LE?B?5?$LO?W?$LM?G?$MA?$LL?5?C?k?G?U?$LE?O?$LE?Y?4?5?$CICtrl@ DB 0b1H
	DB	0e2H, 0bbH, 0b5H, 0c7H, 0cfH, 0b4H, 0c2H, ' ', 0beH, 0d7H, 0bcH
	DB	0c7H, 0c0H, 0bbH, ' ', 0c3H, 0ebH, 0c7H, 0d5H, 0b4H, 0cfH, 0b4H
	DB	0d9H, '. (Ctrl+4)', 00H			; `string'
CONST	ENDS
;	COMDAT ??_C@_0CD@JMKADJMO@?$LO?$LC?$LH?$KP?A?v?$LE?B?5?$LO?W?$LM?G?$MA?$LL?5?C?k?G?U?$LE?O?$LE?Y?4?5?$CICtrl@
CONST	SEGMENT
??_C@_0CD@JMKADJMO@?$LO?$LC?$LH?$KP?A?v?$LE?B?5?$LO?W?$LM?G?$MA?$LL?5?C?k?G?U?$LE?O?$LE?Y?4?5?$CICtrl@ DB 0beH
	DB	0b2H, 0b7H, 0afH, 0c1H, 0f6H, 0b4H, 0c2H, ' ', 0beH, 0d7H, 0bcH
	DB	0c7H, 0c0H, 0bbH, ' ', 0c3H, 0ebH, 0c7H, 0d5H, 0b4H, 0cfH, 0b4H
	DB	0d9H, '. (Ctrl+9)', 00H			; `string'
CONST	ENDS
;	COMDAT ??_C@_0CD@KEHHLNJC@?$MA?N?$LL?g?G?O?$LE?B?5?$LO?W?$LM?G?$MA?$LL?5?C?k?G?U?$LE?O?$LE?Y?4?5?$CICtrl@
CONST	SEGMENT
??_C@_0CD@KEHHLNJC@?$MA?N?$LL?g?G?O?$LE?B?5?$LO?W?$LM?G?$MA?$LL?5?C?k?G?U?$LE?O?$LE?Y?4?5?$CICtrl@ DB 0c0H
	DB	0ceH, 0bbH, 0e7H, 0c7H, 0cfH, 0b4H, 0c2H, ' ', 0beH, 0d7H, 0bcH
	DB	0c7H, 0c0H, 0bbH, ' ', 0c3H, 0ebH, 0c7H, 0d5H, 0b4H, 0cfH, 0b4H
	DB	0d9H, '. (Ctrl+3)', 00H			; `string'
CONST	ENDS
;	COMDAT ??_C@_0BP@OCLIPLAL@?$LA?H?$LE?B?5?$LO?W?$LM?G?$MA?$LL?5?C?k?G?U?$LE?O?$LE?Y?4?5?$CICtrl?$CL8?$CJ@
CONST	SEGMENT
??_C@_0BP@OCLIPLAL@?$LA?H?$LE?B?5?$LO?W?$LM?G?$MA?$LL?5?C?k?G?U?$LE?O?$LE?Y?4?5?$CICtrl?$CL8?$CJ@ DB 0b0H
	DB	0c8H, 0b4H, 0c2H, ' ', 0beH, 0d7H, 0bcH, 0c7H, 0c0H, 0bbH, ' ', 0c3H
	DB	0ebH, 0c7H, 0d5H, 0b4H, 0cfH, 0b4H, 0d9H, '. (Ctrl+8)', 00H ; `string'
CONST	ENDS
;	COMDAT ??_C@_0CG@EHJAFDMH@?$LM?U?$MA?$LL?5?H?g?$LF?e?$LE?B?5?$LO?W?$LM?G?$MA?$LL?5?C?k?G?U?$LE?O?$LE?Y?4?5?$CIC@
CONST	SEGMENT
??_C@_0CG@EHJAFDMH@?$LM?U?$MA?$LL?5?H?g?$LF?e?$LE?B?5?$LO?W?$LM?G?$MA?$LL?5?C?k?G?U?$LE?O?$LE?Y?4?5?$CIC@ DB 0bcH
	DB	0d5H, 0c0H, 0bbH, ' ', 0c8H, 0e7H, 0b5H, 0e5H, 0b4H, 0c2H, ' ', 0beH
	DB	0d7H, 0bcH, 0c7H, 0c0H, 0bbH, ' ', 0c3H, 0ebH, 0c7H, 0d5H, 0b4H
	DB	0cfH, 0b4H, 0d9H, '. (Ctrl+2)', 00H		; `string'
CONST	ENDS
;	COMDAT ??_C@_0CD@HLCPDIKM@?$MA?O?$LO?n?$LM?$KN?$LE?B?5?$LO?W?$LM?G?$MA?$LL?5?C?k?G?U?$LE?O?$LE?Y?4?5?$CICtrl@
CONST	SEGMENT
??_C@_0CD@HLCPDIKM@?$MA?O?$LO?n?$LM?$KN?$LE?B?5?$LO?W?$LM?G?$MA?$LL?5?C?k?G?U?$LE?O?$LE?Y?4?5?$CICtrl@ DB 0c0H
	DB	0cfH, 0beH, 0eeH, 0bcH, 0adH, 0b4H, 0c2H, ' ', 0beH, 0d7H, 0bcH
	DB	0c7H, 0c0H, 0bbH, ' ', 0c3H, 0ebH, 0c7H, 0d5H, 0b4H, 0cfH, 0b4H
	DB	0d9H, '. (Ctrl+7)', 00H			; `string'
CONST	ENDS
;	COMDAT ??_C@_0CI@DLPPPDPB@?A?$KG?$MA?Z?$LI?$KO?$LP?$KB?5?$LO?I?$LE?B?5?$LO?W?$LM?G?$MA?$LL?5?C?k?G?U?$LE?O?$LE?Y?4?5@
CONST	SEGMENT
??_C@_0CI@DLPPPDPB@?A?$KG?$MA?Z?$LI?$KO?$LP?$KB?5?$LO?I?$LE?B?5?$LO?W?$LM?G?$MA?$LL?5?C?k?G?U?$LE?O?$LE?Y?4?5@ DB 0c1H
	DB	0a6H, 0c0H, 0daH, 0b8H, 0aeH, 0bfH, 0a1H, ' ', 0beH, 0c9H, 0b4H
	DB	0c2H, ' ', 0beH, 0d7H, 0bcH, 0c7H, 0c0H, 0bbH, ' ', 0c3H, 0ebH
	DB	0c7H, 0d5H, 0b4H, 0cfH, 0b4H, 0d9H, '. (Ctrl+1)', 00H ; `string'
CONST	ENDS
;	COMDAT ??_C@_0L@GOBFHACF@?$LE?x?$KB?$KB?A?v?$KB?$KB?$LE?Y@
CONST	SEGMENT
??_C@_0L@GOBFHACF@?$LE?x?$KB?$KB?A?v?$KB?$KB?$LE?Y@ DB 0b4H, 0f8H, 0a1H, 0a1H
	DB	0c1H, 0f6H, 0a1H, 0a1H, 0b4H, 0d9H, 00H	; `string'
CONST	ENDS
;	COMDAT ??_C@_0L@NJDBIKEM@?$LF?$KF?$KB?$KB?$LJ?L?$KB?$KB?A?v@
CONST	SEGMENT
??_C@_0L@NJDBIKEM@?$LF?$KF?$KB?$KB?$LJ?L?$KB?$KB?A?v@ DB 0b5H, 0a5H, 0a1H
	DB	0a1H, 0b9H, 0ccH, 0a1H, 0a1H, 0c1H, 0f6H, 00H ; `string'
CONST	ENDS
;	COMDAT ??_C@_0L@CHKOFNFO@?5?$LN?$LN?F?$NL?G?O?$LE?Y?5@
CONST	SEGMENT
??_C@_0L@CHKOFNFO@?5?$LN?$LN?F?$NL?G?O?$LE?Y?5@ DB ' ', 0bdH, 0bdH, 0c6H, 0dbH
	DB	0c7H, 0cfH, 0b4H, 0d9H, ' ', 00H		; `string'
CONST	ENDS
;	COMDAT ??_C@_0L@FLKMCCFP@?5?$LJ?f?$LO?n?G?O?$LE?Y?5@
CONST	SEGMENT
??_C@_0L@FLKMCCFP@?5?$LJ?f?$LO?n?G?O?$LE?Y?5@ DB ' ', 0b9H, 0e6H, 0beH, 0eeH
	DB	0c7H, 0cfH, 0b4H, 0d9H, ' ', 00H		; `string'
CONST	ENDS
;	COMDAT ??_C@_0L@DDIKGKGC@?5?H?$KN?$LI?$KG?$LD?$LL?$LE?Y?5@
CONST	SEGMENT
??_C@_0L@DDIKGKGC@?5?H?$KN?$LI?$KG?$LD?$LL?$LE?Y?5@ DB ' ', 0c8H, 0adH, 0b8H
	DB	0a6H, 0b3H, 0bbH, 0b4H, 0d9H, ' ', 00H	; `string'
CONST	ENDS
;	COMDAT ??_C@_0L@EPLKDNIL@?5?$LA?x?$LA?$NN?G?O?$LE?Y?5@
CONST	SEGMENT
??_C@_0L@EPLKDNIL@?5?$LA?x?$LA?$NN?G?O?$LE?Y?5@ DB ' ', 0b0H, 0f8H, 0b0H, 0ddH
	DB	0c7H, 0cfH, 0b4H, 0d9H, ' ', 00H		; `string'
CONST	ENDS
;	COMDAT ??_C@_0L@HMKFIAIO@?5?$LB?b?$LL?$LF?G?O?$LE?Y?5@
CONST	SEGMENT
??_C@_0L@HMKFIAIO@?5?$LB?b?$LL?$LF?G?O?$LE?Y?5@ DB ' ', 0b1H, 0e2H, 0bbH, 0b5H
	DB	0c7H, 0cfH, 0b4H, 0d9H, ' ', 00H		; `string'
CONST	ENDS
;	COMDAT ??_C@_0L@BBJFHFFA@?5?$LO?$LC?$LH?$KP?A?v?$LE?Y?5@
CONST	SEGMENT
??_C@_0L@BBJFHFFA@?5?$LO?$LC?$LH?$KP?A?v?$LE?Y?5@ DB ' ', 0beH, 0b2H, 0b7H
	DB	0afH, 0c1H, 0f6H, 0b4H, 0d9H, ' ', 00H	; `string'
CONST	ENDS
;	COMDAT ??_C@_0L@LFKBOHAB@?5?$MA?N?$LL?g?G?O?$LE?Y?5@
CONST	SEGMENT
??_C@_0L@LFKBOHAB@?5?$MA?N?$LL?g?G?O?$LE?Y?5@ DB ' ', 0c0H, 0ceH, 0bbH, 0e7H
	DB	0c7H, 0cfH, 0b4H, 0d9H, ' ', 00H		; `string'
CONST	ENDS
;	COMDAT ??_C@_0L@CPNFDNI@?5?$LA?H?$KB?$KB?$KB?$KB?$LE?Y?5@
CONST	SEGMENT
??_C@_0L@CPNFDNI@?5?$LA?H?$KB?$KB?$KB?$KB?$LE?Y?5@ DB ' ', 0b0H, 0c8H, 0a1H
	DB	0a1H, 0a1H, 0a1H, 0b4H, 0d9H, ' ', 00H	; `string'
CONST	ENDS
;	COMDAT ??_C@_0L@FNPFLOKG@?5?$LM?U?H?g?$LF?i?$LE?Y?5@
CONST	SEGMENT
??_C@_0L@FNPFLOKG@?5?$LM?U?H?g?$LF?i?$LE?Y?5@ DB ' ', 0bcH, 0d5H, 0c8H, 0e7H
	DB	0b5H, 0e9H, 0b4H, 0d9H, ' ', 00H		; `string'
CONST	ENDS
;	COMDAT ??_C@_0L@LOMDAPBP@?5?$MA?O?$LO?n?$LD?$KK?$LE?Y?5@
CONST	SEGMENT
??_C@_0L@LOMDAPBP@?5?$MA?O?$LO?n?$LD?$KK?$LE?Y?5@ DB ' ', 0c0H, 0cfH, 0beH
	DB	0eeH, 0b3H, 0aaH, 0b4H, 0d9H, ' ', 00H	; `string'
CONST	ENDS
;	COMDAT ??_C@_0L@LEPHHCI@?5?$LO?I?$KB?$KB?$KB?$KB?$LE?Y?5@
CONST	SEGMENT
??_C@_0L@LEPHHCI@?5?$LO?I?$KB?$KB?$KB?$KB?$LE?Y?5@ DB ' ', 0beH, 0c9H, 0a1H
	DB	0a1H, 0a1H, 0a1H, 0b4H, 0d9H, ' ', 00H	; `string'
CONST	ENDS
;	COMDAT ??_C@_0CD@LEKAGBMD@?G?X?$LE?g?A?v?$LP?$KK?$LP?$KB?5?$MA?V?$LE?B?5?F?D?F?$LM?$LI?$KG?5?$LA?K?$LL?v?G?U?$LE?O@
CONST	SEGMENT
??_C@_0CD@LEKAGBMD@?G?X?$LE?g?A?v?$LP?$KK?$LP?$KB?5?$MA?V?$LE?B?5?F?D?F?$LM?$LI?$KG?5?$LA?K?$LL?v?G?U?$LE?O@ DB 0c7H
	DB	0d8H, 0b4H, 0e7H, 0c1H, 0f6H, 0bfH, 0aaH, 0bfH, 0a1H, ' ', 0c0H
	DB	0d6H, 0b4H, 0c2H, ' ', 0c6H, 0c4H, 0c6H, 0bcH, 0b8H, 0a6H, ' ', 0b0H
	DB	0cbH, 0bbH, 0f6H, 0c7H, 0d5H, 0b4H, 0cfH, 0b4H, 0d9H, '.', 00H ; `string'
CONST	ENDS
;	COMDAT ??_C@_0CB@NCIEAEIK@?D?$LD?$LI?$KP?E?M?$MA?G?5?E?$LO?$LN?B?5?F?d?F?$KO?$LI?$KG?5?H?$KO?$MA?N?G?U?$LE?O?$LE?Y@
CONST	SEGMENT
??_C@_0CB@NCIEAEIK@?D?$LD?$LI?$KP?E?M?$MA?G?5?E?$LO?$LN?B?5?F?d?F?$KO?$LI?$KG?5?H?$KO?$MA?N?G?U?$LE?O?$LE?Y@ DB 0c4H
	DB	0b3H, 0b8H, 0afH, 0c5H, 0cdH, 0c0H, 0c7H, ' ', 0c5H, 0beH, 0bdH
	DB	0c2H, ' ', 0c6H, 0e4H, 0c6H, 0aeH, 0b8H, 0a6H, ' ', 0c8H, 0aeH
	DB	0c0H, 0ceH, 0c7H, 0d5H, 0b4H, 0cfH, 0b4H, 0d9H, '.', 00H ; `string'
CONST	ENDS
;	COMDAT ??_C@_0BP@JAGIJNBP@?D?$LD?$LI?$KP?E?M?5?$LO?W?$LM?G?5?A?$KE?$LK?$LI?$LI?$KG?5?H?$KO?$MA?N?G?U?$LE?O?$LE?Y?4@
CONST	SEGMENT
??_C@_0BP@JAGIJNBP@?D?$LD?$LI?$KP?E?M?5?$LO?W?$LM?G?5?A?$KE?$LK?$LI?$LI?$KG?5?H?$KO?$MA?N?G?U?$LE?O?$LE?Y?4@ DB 0c4H
	DB	0b3H, 0b8H, 0afH, 0c5H, 0cdH, ' ', 0beH, 0d7H, 0bcH, 0c7H, ' ', 0c1H
	DB	0a4H, 0baH, 0b8H, 0b8H, 0a6H, ' ', 0c8H, 0aeH, 0c0H, 0ceH, 0c7H
	DB	0d5H, 0b4H, 0cfH, 0b4H, 0d9H, '.', 00H	; `string'
CONST	ENDS
;	COMDAT ??_C@_0BK@EJDCDLOD@?D?y?$LN?$LK?F?$KO?5?A?$KE?$LK?$LI?$LI?$KG?5?H?$KO?$MA?N?G?U?$LE?O?$LE?Y?4@
CONST	SEGMENT
??_C@_0BK@EJDCDLOD@?D?y?$LN?$LK?F?$KO?5?A?$KE?$LK?$LI?$LI?$KG?5?H?$KO?$MA?N?G?U?$LE?O?$LE?Y?4@ DB 0c4H
	DB	0f9H, 0bdH, 0baH, 0c6H, 0aeH, ' ', 0c1H, 0a4H, 0baH, 0b8H, 0b8H
	DB	0a6H, ' ', 0c8H, 0aeH, 0c0H, 0ceH, 0c7H, 0d5H, 0b4H, 0cfH, 0b4H
	DB	0d9H, '.', 00H				; `string'
CONST	ENDS
;	COMDAT ??_C@_0BD@KMDDMCEP@?$MA?$PM?E?u?$LI?$KG?5?$LA?$PM?$MA?$PM?G?U?$LE?O?$LE?Y?4@
CONST	SEGMENT
??_C@_0BD@KMDDMCEP@?$MA?$PM?E?u?$LI?$KG?5?$LA?$PM?$MA?$PM?G?U?$LE?O?$LE?Y?4@ DB 0c0H
	DB	0fcH, 0c5H, 0f5H, 0b8H, 0a6H, ' ', 0b0H, 0fcH, 0c0H, 0fcH, 0c7H
	DB	0d5H, 0b4H, 0cfH, 0b4H, 0d9H, '.', 00H	; `string'
CONST	ENDS
;	COMDAT ??_C@_0BJ@NBCGMCO@?$MA?$PM?E?u?$LP?$KB?5?B?$PM?$LP?$KJ?G?R?5?$LM?v?5?$LO?x?$LO?n?$LP?d?4@
CONST	SEGMENT
??_C@_0BJ@NBCGMCO@?$MA?$PM?E?u?$LP?$KB?5?B?$PM?$LP?$KJ?G?R?5?$LM?v?5?$LO?x?$LO?n?$LP?d?4@ DB 0c0H
	DB	0fcH, 0c5H, 0f5H, 0bfH, 0a1H, ' ', 0c2H, 0fcH, 0bfH, 0a9H, 0c7H
	DB	0d2H, ' ', 0bcH, 0f6H, ' ', 0beH, 0f8H, 0beH, 0eeH, 0bfH, 0e4H
	DB	'.', 00H					; `string'
CONST	ENDS
;	COMDAT ??_C@_0BD@KFAJKCNC@?$MA?$PM?E?u?$LP?$KB?5?B?$PM?$LP?$KJ?G?U?$LE?O?$LE?Y?4@
CONST	SEGMENT
??_C@_0BD@KFAJKCNC@?$MA?$PM?E?u?$LP?$KB?5?B?$PM?$LP?$KJ?G?U?$LE?O?$LE?Y?4@ DB 0c0H
	DB	0fcH, 0c5H, 0f5H, 0bfH, 0a1H, ' ', 0c2H, 0fcH, 0bfH, 0a9H, 0c7H
	DB	0d5H, 0b4H, 0cfH, 0b4H, 0d9H, '.', 00H	; `string'
CONST	ENDS
;	COMDAT ??_C@_0BO@GJIBCGFI@?$LL?s?$LE?k?$LJ?f?$LP?$KB?$LA?T?5?$LE?k?$MA?$PM?$MA?$LL?5?$LN?E?C?$LL?G?U?$LE?O?$LE?Y?4@
CONST	SEGMENT
??_C@_0BO@GJIBCGFI@?$LL?s?$LE?k?$LJ?f?$LP?$KB?$LA?T?5?$LE?k?$MA?$PM?$MA?$LL?5?$LN?E?C?$LL?G?U?$LE?O?$LE?Y?4@ DB 0bbH
	DB	0f3H, 0b4H, 0ebH, 0b9H, 0e6H, 0bfH, 0a1H, 0b0H, 0d4H, ' ', 0b4H
	DB	0ebH, 0c0H, 0fcH, 0c0H, 0bbH, ' ', 0bdH, 0c5H, 0c3H, 0bbH, 0c7H
	DB	0d5H, 0b4H, 0cfH, 0b4H, 0d9H, '.', 00H	; `string'
CONST	ENDS
;	COMDAT ??_C@_0BJ@EEGCGAJN@CHAOS?5?$LM?$KN?$LJ?v?5VIP?$LL?s?A?$KB?$MA?T?$LE?O?$LE?Y@
CONST	SEGMENT
??_C@_0BJ@EEGCGAJN@CHAOS?5?$LM?$KN?$LJ?v?5VIP?$LL?s?A?$KB?$MA?T?$LE?O?$LE?Y@ DB 'C'
	DB	'HAOS ', 0bcH, 0adH, 0b9H, 0f6H, ' VIP', 0bbH, 0f3H, 0c1H, 0a1H
	DB	0c0H, 0d4H, 0b4H, 0cfH, 0b4H, 0d9H, 00H	; `string'
CONST	ENDS
;	COMDAT ??_C@_0CO@MJKCDDG@?F?m?$LI?$KO?G?O?$LA?T?5?$MA?$KH?D?$KB?$LI?$KG?5?$MA?L?$LF?$LP?G?R?$LM?v?$MA?V?$LE?B?5?$LP?v@
CONST	SEGMENT
??_C@_0CO@MJKCDDG@?F?m?$LI?$KO?G?O?$LA?T?5?$MA?$KH?D?$KB?$LI?$KG?5?$MA?L?$LF?$LP?G?R?$LM?v?$MA?V?$LE?B?5?$LP?v@ DB 0c6H
	DB	0edH, 0b8H, 0aeH, 0c7H, 0cfH, 0b0H, 0d4H, ' ', 0c0H, 0a7H, 0c4H
	DB	0a1H, 0b8H, 0a6H, ' ', 0c0H, 0ccH, 0b5H, 0bfH, 0c7H, 0d2H, 0bcH
	DB	0f6H, 0c0H, 0d6H, 0b4H, 0c2H, ' ', 0bfH, 0f6H, 0c7H, 0c1H, 0b5H
	DB	0b5H, 0bfH, 0ecH, 0b9H, 0ccH, 0c0H, 0d4H, 0b4H, 0cfH, 0b4H, 0d9H
	DB	00H						; `string'
CONST	ENDS
;	COMDAT ??_C@_0BO@NDPFBKJO@?$LL?s?$LE?k?$LJ?f?$LP?$KB?$LA?T?5?$LB?$LD?H?$KP?$MA?$LL?5?$LN?E?C?$LL?G?U?$LE?O?$LE?Y?4@
CONST	SEGMENT
??_C@_0BO@NDPFBKJO@?$LL?s?$LE?k?$LJ?f?$LP?$KB?$LA?T?5?$LB?$LD?H?$KP?$MA?$LL?5?$LN?E?C?$LL?G?U?$LE?O?$LE?Y?4@ DB 0bbH
	DB	0f3H, 0b4H, 0ebH, 0b9H, 0e6H, 0bfH, 0a1H, 0b0H, 0d4H, ' ', 0b1H
	DB	0b3H, 0c8H, 0afH, 0c0H, 0bbH, ' ', 0bdH, 0c5H, 0c3H, 0bbH, 0c7H
	DB	0d5H, 0b4H, 0cfH, 0b4H, 0d9H, '.', 00H	; `string'
CONST	ENDS
;	COMDAT ??_C@_0BM@JPNLKOND@?$LL?s?$LE?k?$LJ?f?$MA?G?5?F?D?F?$LM?$LP?$KB?5?B?$PM?$LP?$KJ?G?U?$LE?O?$LE?Y?4@
CONST	SEGMENT
??_C@_0BM@JPNLKOND@?$LL?s?$LE?k?$LJ?f?$MA?G?5?F?D?F?$LM?$LP?$KB?5?B?$PM?$LP?$KJ?G?U?$LE?O?$LE?Y?4@ DB 0bbH
	DB	0f3H, 0b4H, 0ebH, 0b9H, 0e6H, 0c0H, 0c7H, ' ', 0c6H, 0c4H, 0c6H
	DB	0bcH, 0bfH, 0a1H, ' ', 0c2H, 0fcH, 0bfH, 0a9H, 0c7H, 0d5H, 0b4H
	DB	0cfH, 0b4H, 0d9H, '.', 00H			; `string'
CONST	ENDS
;	COMDAT ??_C@_0BJ@CHLJOFEL@?F?D?F?$LM?$LP?$KB?5?B?$PM?$LP?$KJ?G?R?5?$LM?v?5?$LO?x?$LO?n?$LP?d?4@
CONST	SEGMENT
??_C@_0BJ@CHLJOFEL@?F?D?F?$LM?$LP?$KB?5?B?$PM?$LP?$KJ?G?R?5?$LM?v?5?$LO?x?$LO?n?$LP?d?4@ DB 0c6H
	DB	0c4H, 0c6H, 0bcH, 0bfH, 0a1H, ' ', 0c2H, 0fcH, 0bfH, 0a9H, 0c7H
	DB	0d2H, ' ', 0bcH, 0f6H, ' ', 0beH, 0f8H, 0beH, 0eeH, 0bfH, 0e4H
	DB	'.', 00H					; `string'
CONST	ENDS
;	COMDAT ??_C@_0BM@BDLIIEIH@?$LL?s?$LE?k?$LJ?f?$LA?z?5?$LI?m?G?T?$MA?$LL?5?$LB?$LD?H?$KP?G?U?$LE?O?$LE?Y?4@
CONST	SEGMENT
??_C@_0BM@BDLIIEIH@?$LL?s?$LE?k?$LJ?f?$LA?z?5?$LI?m?G?T?$MA?$LL?5?$LB?$LD?H?$KP?G?U?$LE?O?$LE?Y?4@ DB 0bbH
	DB	0f3H, 0b4H, 0ebH, 0b9H, 0e6H, 0b0H, 0faH, ' ', 0b8H, 0edH, 0c7H
	DB	0d4H, 0c0H, 0bbH, ' ', 0b1H, 0b3H, 0c8H, 0afH, 0c7H, 0d5H, 0b4H
	DB	0cfH, 0b4H, 0d9H, '.', 00H			; `string'
CONST	ENDS
;	COMDAT ??_C@_0BD@KALKBBEH@?$LI?$NO?$LE?$LK?$LI?$KG?5?$LM?$LD?A?$KE?G?U?$LE?O?$LE?Y?4@
CONST	SEGMENT
??_C@_0BD@KALKBBEH@?$LI?$NO?$LE?$LK?$LI?$KG?5?$LM?$LD?A?$KE?G?U?$LE?O?$LE?Y?4@ DB 0b8H
	DB	0deH, 0b4H, 0baH, 0b8H, 0a6H, ' ', 0bcH, 0b3H, 0c1H, 0a4H, 0c7H
	DB	0d5H, 0b4H, 0cfH, 0b4H, 0d9H, '.', 00H	; `string'
CONST	ENDS
;	COMDAT ??_C@_0CD@HJEPKLDC@?$MA?L?$LA?w?$LP?$KB?$LM?$KN?5?F?D?F?$LM?$LI?$KG?5?$LB?$LI?$LM?$LK?G?R?5?$LM?v?5?$LO?x?$LN?$MA?$LE@
CONST	SEGMENT
??_C@_0CD@HJEPKLDC@?$MA?L?$LA?w?$LP?$KB?$LM?$KN?5?F?D?F?$LM?$LI?$KG?5?$LB?$LI?$LM?$LK?G?R?5?$LM?v?5?$LO?x?$LN?$MA?$LE@ DB 0c0H
	DB	0ccH, 0b0H, 0f7H, 0bfH, 0a1H, 0bcH, 0adH, ' ', 0c6H, 0c4H, 0c6H
	DB	0bcH, 0b8H, 0a6H, ' ', 0b1H, 0b8H, 0bcH, 0baH, 0c7H, 0d2H, ' ', 0bcH
	DB	0f6H, ' ', 0beH, 0f8H, 0bdH, 0c0H, 0b4H, 0cfH, 0b4H, 0d9H, 00H ; `string'
CONST	ENDS
;	COMDAT ??_C@_03OAFDEMMP@S?$HMP@
CONST	SEGMENT
??_C@_03OAFDEMMP@S?$HMP@ DB 'S|P', 00H			; `string'
CONST	ENDS
;	COMDAT ??_C@_0DA@KIPDLLGN@P?$HM?$LK?N?A?$LH?$LP?$KB?5?$LA?$KB?$MA?T?$LF?G?A?v?5?$LO?J?$LO?F?5?A?$KE?$LK?$LI?$LI?$KG?5?H@
CONST	SEGMENT
??_C@_0DA@KIPDLLGN@P?$HM?$LK?N?A?$LH?$LP?$KB?5?$LA?$KB?$MA?T?$LF?G?A?v?5?$LO?J?$LO?F?5?A?$KE?$LK?$LI?$LI?$KG?5?H@ DB 'P'
	DB	'|', 0baH, 0ceH, 0c1H, 0b7H, 0bfH, 0a1H, ' ', 0b0H, 0a1H, 0c0H
	DB	0d4H, 0b5H, 0c7H, 0c1H, 0f6H, ' ', 0beH, 0caH, 0beH, 0c6H, ' ', 0c1H
	DB	0a4H, 0baH, 0b8H, 0b8H, 0a6H, ' ', 0c8H, 0aeH, 0c0H, 0ceH, 0c7H
	DB	0d2H, ' ', 0bcH, 0f6H, ' ', 0beH, 0f8H, 0beH, 0eeH, 0bfH, 0e4H
	DB	'.', 00H					; `string'
CONST	ENDS
;	COMDAT ??_C@_02OPIIDOKH@P?$HM@
CONST	SEGMENT
??_C@_02OPIIDOKH@P?$HM@ DB 'P|', 00H			; `string'
CONST	ENDS
;	COMDAT ??_C@_0CB@GPKKMDCO@?$LD?k?A?$KB?$LL?s?$LP?$KB?$LM?$KN?5?$LB?$LD?H?$KP?$MA?$LL?5?G?X?$LM?$KN?$LE?B?5?$LO?H?5?$LF?H?$LE@
CONST	SEGMENT
??_C@_0CB@GPKKMDCO@?$LD?k?A?$KB?$LL?s?$LP?$KB?$LM?$KN?5?$LB?$LD?H?$KP?$MA?$LL?5?G?X?$LM?$KN?$LE?B?5?$LO?H?5?$LF?H?$LE@ DB 0b3H
	DB	0ebH, 0c1H, 0a1H, 0bbH, 0f3H, 0bfH, 0a1H, 0bcH, 0adH, ' ', 0b1H
	DB	0b3H, 0c8H, 0afH, 0c0H, 0bbH, ' ', 0c7H, 0d8H, 0bcH, 0adH, 0b4H
	DB	0c2H, ' ', 0beH, 0c8H, ' ', 0b5H, 0c8H, 0b4H, 0d9H, 00H ; `string'
CONST	ENDS
;	COMDAT ??_C@_03DDDPELM@D?$HMD@
CONST	SEGMENT
??_C@_03DDDPELM@D?$HMD@ DB 'D|D', 00H			; `string'
CONST	ENDS
;	COMDAT ??_C@_02PACKEJLJ@B?$HM@
CONST	SEGMENT
??_C@_02PACKEJLJ@B?$HM@ DB 'B|', 00H			; `string'
CONST	ENDS
;	COMDAT ??_C@_02PIPCNKOK@O?$HM@
CONST	SEGMENT
??_C@_02PIPCNKOK@O?$HM@ DB 'O|', 00H			; `string'
CONST	ENDS
;	COMDAT ??_C@_02DPKJAMEF@?$CFd@
CONST	SEGMENT
??_C@_02DPKJAMEF@?$CFd@ DB '%d', 00H			; `string'
CONST	ENDS
;	COMDAT ??_C@_05LNGOBBOC@D?$HM?$CFd?$HM@
CONST	SEGMENT
??_C@_05LNGOBBOC@D?$HM?$CFd?$HM@ DB 'D|%d|', 00H	; `string'
CONST	ENDS
;	COMDAT ??_C@_0CH@BCAEDIAE@?G?y?A?$KE?5?$LA?$KB?$LA?$NN?5?$LJ?$LA?G?$LA?$MA?$LK?5?$MA?O?$MA?O?$MA?L?5?$LA?m?$LI?$KG?5?$LM?v@
CONST	SEGMENT
??_C@_0CH@BCAEDIAE@?G?y?A?$KE?5?$LA?$KB?$LA?$NN?5?$LJ?$LA?G?$LA?$MA?$LK?5?$MA?O?$MA?O?$MA?L?5?$LA?m?$LI?$KG?5?$LM?v@ DB 0c7H
	DB	0f9H, 0c1H, 0a4H, ' ', 0b0H, 0a1H, 0b0H, 0ddH, ' ', 0b9H, 0b0H
	DB	0c7H, 0b0H, 0c0H, 0baH, ' ', 0c0H, 0cfH, 0c0H, 0cfH, 0c0H, 0ccH
	DB	' ', 0b0H, 0edH, 0b8H, 0a6H, ' ', 0bcH, 0f6H, ' ', 0beH, 0f8H, 0b4H
	DB	0d9H, 0a3H, 0a1H, 00H			; `string'
CONST	ENDS
;	COMDAT ??_C@_0BM@PJIKDD@?$LJ?Y?$LF?p?5?$LO?F?$MA?L?E?$NL?5?$LM?$LN?$LM?G?$MA?L?5?$LK?N?A?$LH?G?X?$KD?$KB@
CONST	SEGMENT
??_C@_0BM@PJIKDD@?$LJ?Y?$LF?p?5?$LO?F?$MA?L?E?$NL?5?$LM?$LN?$LM?G?$MA?L?5?$LK?N?A?$LH?G?X?$KD?$KB@ DB 0b9H
	DB	0d9H, 0b5H, 0f0H, ' ', 0beH, 0c6H, 0c0H, 0ccH, 0c5H, 0dbH, ' ', 0bcH
	DB	0bdH, 0bcH, 0c7H, 0c0H, 0ccH, ' ', 0baH, 0ceH, 0c1H, 0b7H, 0c7H
	DB	0d8H, 0a3H, 0a1H, 00H			; `string'
CONST	ENDS
;	COMDAT ??_C@_0BA@KFKPCCNN@?$LN?$LK?E?f?$MA?L?5?$LK?N?A?$LH?G?X?$KD?$KB@
CONST	SEGMENT
??_C@_0BA@KFKPCCNN@?$LN?$LK?E?f?$MA?L?5?$LK?N?A?$LH?G?X?$KD?$KB@ DB 0bdH, 0baH
	DB	0c5H, 0e6H, 0c0H, 0ccH, ' ', 0baH, 0ceH, 0c1H, 0b7H, 0c7H, 0d8H
	DB	0a3H, 0a1H, 00H				; `string'
CONST	ENDS
;	COMDAT ??_C@_0M@LGAMIGJ@?$LB?b?$LM?z?5?$CFd?$KD?$LK?$CFs@
CONST	SEGMENT
??_C@_0M@LGAMIGJ@?$LB?b?$LM?z?5?$CFd?$KD?$LK?$CFs@ DB 0b1H, 0e2H, 0bcH, 0faH
	DB	' %d', 0a3H, 0baH, '%s', 00H			; `string'
CONST	ENDS
;	COMDAT ??_C@_06CFCEDMBI@?C?f?$KD?$LK?$CFd@
CONST	SEGMENT
??_C@_06CFCEDMBI@?C?f?$KD?$LK?$CFd@ DB 0c3H, 0e6H, 0a3H, 0baH, '%d', 00H ; `string'
CONST	ENDS
;	COMDAT ??_C@_06INCIIBEP@?G?$LD?$KD?$LK?$CFd@
CONST	SEGMENT
??_C@_06INCIIBEP@?G?$LD?$KD?$LK?$CFd@ DB 0c7H, 0b3H, 0a3H, 0baH, '%d', 00H ; `string'
CONST	ENDS
;	COMDAT ??_C@_06ECLMJCEN@?H?$KN?$KD?$LK?$CFd@
CONST	SEGMENT
??_C@_06ECLMJCEN@?H?$KN?$KD?$LK?$CFd@ DB 0c8H, 0adH, 0a3H, 0baH, '%d', 00H ; `string'
CONST	ENDS
;	COMDAT ??_C@_06DMNCJOEB@?$LM?v?$KD?$LK?$CFd@
CONST	SEGMENT
??_C@_06DMNCJOEB@?$LM?v?$KD?$LK?$CFd@ DB 0bcH, 0f6H, 0a3H, 0baH, '%d', 00H ; `string'
CONST	ENDS
;	COMDAT ??_C@_06LBGNCPKK@?A?v?$KD?$LK?$CFd@
CONST	SEGMENT
??_C@_06LBGNCPKK@?A?v?$KD?$LK?$CFd@ DB 0c1H, 0f6H, 0a3H, 0baH, '%d', 00H ; `string'
CONST	ENDS
;	COMDAT ??_C@_06GNIPPDB@?$LM?x?$KD?$LK?$CFd@
CONST	SEGMENT
??_C@_06GNIPPDB@?$LM?x?$KD?$LK?$CFd@ DB 0bcH, 0f8H, 0a3H, 0baH, '%d', 00H ; `string'
CONST	ENDS
;	COMDAT ??_C@_06GNDMLDHN@?$LJ?f?$KD?$LK?$CFd@
CONST	SEGMENT
??_C@_06GNDMLDHN@?$LJ?f?$KD?$LK?$CFd@ DB 0b9H, 0e6H, 0a3H, 0baH, '%d', 00H ; `string'
CONST	ENDS
;	COMDAT ??_C@_06MBHIJFEF@?$LA?x?$KD?$LK?$CFd@
CONST	SEGMENT
??_C@_06MBHIJFEF@?$LA?x?$KD?$LK?$CFd@ DB 0b0H, 0f8H, 0a3H, 0baH, '%d', 00H ; `string'
CONST	ENDS
;	COMDAT ??_C@_06HJFMPHBK@?$LD?$LL?$KD?$LK?$CFd@
CONST	SEGMENT
??_C@_06HJFMPHBK@?$LD?$LL?$KD?$LK?$CFd@ DB 0b3H, 0bbH, 0a3H, 0baH, '%d', 00H ; `string'
CONST	ENDS
;	COMDAT ??_C@_06EGBMLAEA@Lv?$KD?$LK?$CFd@
CONST	SEGMENT
??_C@_06EGBMLAEA@Lv?$KD?$LK?$CFd@ DB 'Lv', 0a3H, 0baH, '%d', 00H ; `string'
CONST	ENDS
;	COMDAT ??_C@_07HLBLNMPK@?$CFd?5?H?$LI?$MA?$PM@
CONST	SEGMENT
??_C@_07HLBLNMPK@?$CFd?5?H?$LI?$MA?$PM@ DB '%d ', 0c8H, 0b8H, 0c0H, 0fcH, 00H ; `string'
CONST	ENDS
;	COMDAT ??_C@_0L@LDFFIDCJ@?$LD?$LL?$LB?$LI?$LH?B?$CI?$CFs?$CJ@
CONST	SEGMENT
??_C@_0L@LDFFIDCJ@?$LD?$LL?$LB?$LI?$LH?B?$CI?$CFs?$CJ@ DB 0b3H, 0bbH, 0b1H
	DB	0b8H, 0b7H, 0c2H, '(%s)', 00H		; `string'
CONST	ENDS
;	COMDAT ??_C@_09HBDNCLCF@?G?y?$LL?s?5?$LA?$KB?$LA?$NN@
CONST	SEGMENT
??_C@_09HBDNCLCF@?G?y?$LL?s?5?$LA?$KB?$LA?$NN@ DB 0c7H, 0f9H, 0bbH, 0f3H, ' '
	DB	0b0H, 0a1H, 0b0H, 0ddH, 00H			; `string'
CONST	ENDS
;	COMDAT ??_C@_02PJDALANN@N?$HM@
CONST	SEGMENT
??_C@_02PJDALANN@N?$HM@ DB 'N|', 00H			; `string'
CONST	ENDS
;	COMDAT ??_C@_07PKADKLEL@B?$HM?$CFd?$HM?$CFs@
CONST	SEGMENT
??_C@_07PKADKLEL@B?$HM?$CFd?$HM?$CFs@ DB 'B|%d|%s', 00H	; `string'
CONST	ENDS
;	COMDAT ??_C@_03IFADCKOJ@?$CFd?$HM@
CONST	SEGMENT
??_C@_03IFADCKOJ@?$CFd?$HM@ DB '%d|', 00H		; `string'
CONST	ENDS
;	COMDAT ?iMakePetAni@?1??StreetVendorBuyWndfunc@@YAXPAD@Z@4HA
_DATA	SEGMENT
?iMakePetAni@?1??StreetVendorBuyWndfunc@@YAXPAD@Z@4HA DD 0ffffffffH ; `StreetVendorBuyWndfunc'::`2'::iMakePetAni
_DATA	ENDS
;	COMDAT ??_C@_04MPOIGBFL@SELL@
CONST	SEGMENT
??_C@_04MPOIGBFL@SELL@ DB 'SELL', 00H			; `string'
CONST	ENDS
;	COMDAT ??_C@_02PFGFFPDM@E?$HM@
CONST	SEGMENT
??_C@_02PFGFFPDM@E?$HM@ DB 'E|', 00H			; `string'
CONST	ENDS
;	COMDAT ??_C@_06EFALBHEL@R?$HMP?$HM?91@
CONST	SEGMENT
??_C@_06EFALBHEL@R?$HMP?$HM?91@ DB 'R|P|-1', 00H	; `string'
CONST	ENDS
;	COMDAT ??_C@_09KAHBFCEF@S?$HM?$CFd?$HM?$CFs?$CFs@
CONST	SEGMENT
??_C@_09KAHBFCEF@S?$HM?$CFd?$HM?$CFs?$CFs@ DB 'S|%d|%s%s', 00H ; `string'
CONST	ENDS
;	COMDAT ??_C@_0P@DJCPLGCF@?$LO?n?$LM?$KN?$LP?$MA?$LN?J?$LN?C?$LP?$MA?$CB?$CB@
CONST	SEGMENT
??_C@_0P@DJCPLGCF@?$LO?n?$LM?$KN?$LP?$MA?$LN?J?$LN?C?$LP?$MA?$CB?$CB@ DB 0beH
	DB	0eeH, 0bcH, 0adH, 0bfH, 0c0H, 0bdH, 0caH, 0bdH, 0c3H, 0bfH, 0c0H
	DB	'!!', 00H					; `string'
CONST	ENDS
;	COMDAT ??_C@_09CGALFHNJ@?$CFd?$HM?$CFd?$HM?$CFd?$HM@
CONST	SEGMENT
??_C@_09CGALFHNJ@?$CFd?$HM?$CFd?$HM?$CFd?$HM@ DB '%d|%d|%d|', 00H ; `string'
CONST	ENDS
;	COMDAT ??_C@_00CNPNBAHC@@
CONST	SEGMENT
??_C@_00CNPNBAHC@@ DB 00H				; `string'
CONST	ENDS
;	COMDAT ??_C@_0O@OPLGMGNK@?$CF?917s?$CF?912s?$CF8d@
CONST	SEGMENT
??_C@_0O@OPLGMGNK@?$CF?917s?$CF?912s?$CF8d@ DB '%-17s%-12s%8d', 00H ; `string'
CONST	ENDS
;	COMDAT ??_C@_0O@OKDFECEM@?$CF?917s?$CF?912s?$CF8s@
CONST	SEGMENT
??_C@_0O@OKDFECEM@?$CF?917s?$CF?912s?$CF8s@ DB '%-17s%-12s%8s', 00H ; `string'
CONST	ENDS
;	COMDAT ??_C@_03CAPDGGPL@?$DP?K?$MA@
CONST	SEGMENT
??_C@_03CAPDGGPL@?$DP?K?$MA@ DB '?', 0cbH, 0c0H, 00H	; `string'
CONST	ENDS
;	COMDAT ??_C@_0O@MINOFDLM@?$CF?920sx?$CF3d?$CF13d@
CONST	SEGMENT
??_C@_0O@MINOFDLM@?$CF?920sx?$CF3d?$CF13d@ DB '%-20sx%3d%13d', 00H ; `string'
CONST	ENDS
;	COMDAT ??_C@_0O@MNFNNHCK@?$CF?920sx?$CF3d?$CF13s@
CONST	SEGMENT
??_C@_0O@MNFNNHCK@?$CF?920sx?$CF3d?$CF13s@ DB '%-20sx%3d%13s', 00H ; `string'
CONST	ENDS
;	COMDAT ??_C@_01MMEEDKFM@X@
CONST	SEGMENT
??_C@_01MMEEDKFM@X@ DB 'X', 00H				; `string'
CONST	ENDS
;	COMDAT ??_C@_02DKCKIIND@?$CFs@
CONST	SEGMENT
??_C@_02DKCKIIND@?$CFs@ DB '%s', 00H			; `string'
CONST	ENDS
;	COMDAT ?bChangePet@?1??StreetVendorWndfunc@@YAX_NPAD@Z@4_NA
_DATA	SEGMENT
?bChangePet@?1??StreetVendorWndfunc@@YAX_NPAD@Z@4_NA DB 01H ; `StreetVendorWndfunc'::`2'::bChangePet
_DATA	ENDS
; Function compile flags: /Ogtp
; File \\VBOXSVR\_stoneage\repos\ssm-sacli\system\field.cpp
;	COMDAT ?ReadAniFile@@YAHH@Z
_TEXT	SEGMENT
_readbyte$ = -40					; size = 4
_fileName$ = -36					; size = 32
__$ArrayPad$ = -4					; size = 4
_floor$ = 8						; size = 4
?ReadAniFile@@YAHH@Z PROC				; ReadAniFile, COMDAT

; 5462 : {

  00000	55		 push	 ebp
  00001	8b ec		 mov	 ebp, esp
  00003	83 ec 28	 sub	 esp, 40			; 00000028H
  00006	a1 00 00 00 00	 mov	 eax, DWORD PTR ___security_cookie
  0000b	33 c5		 xor	 eax, ebp
  0000d	89 45 fc	 mov	 DWORD PTR __$ArrayPad$[ebp], eax
  00010	53		 push	 ebx
  00011	57		 push	 edi

; 5463 : 	HANDLE hFile;
; 5464 : 	DWORD readbyte;
; 5465 : 	char fileName[32];
; 5466 : 	ani_num = 0;
; 5467 : 	int col = 0, row = 0;
; 5468 : 	breadAniFlag = TRUE;  //è¯»åæ¡£æ¡ææ 
; 5469 : 	sprintf(fileName, "map\\%d.ani", floor);

  00012	ff 75 08	 push	 DWORD PTR _floor$[ebp]
  00015	8d 45 dc	 lea	 eax, DWORD PTR _fileName$[ebp]
  00018	c7 05 00 00 00
	00 00 00 00 00	 mov	 DWORD PTR ?ani_num@@3HA, 0 ; ani_num
  00022	68 00 00 00 00	 push	 OFFSET ??_C@_0L@MGMKLDIO@map?2?$CFd?4ani@
  00027	50		 push	 eax
  00028	33 ff		 xor	 edi, edi
  0002a	c7 05 00 00 00
	00 01 00 00 00	 mov	 DWORD PTR ?breadAniFlag@@3HA, 1 ; breadAniFlag
  00034	e8 00 00 00 00	 call	 _sprintf
  00039	83 c4 0c	 add	 esp, 12			; 0000000cH
  0003c	b8 18 00 00 00	 mov	 eax, OFFSET ?ProduceXY@@3PAY06HA+24
  00041	0f 1f 40 00 66
	66 66 0f 1f 84
	00 00 00 00 00	 npad	 15
$LL4@ReadAniFil:

; 5470 : 	for (int i = 0; i < MAX_ANIM; i++)
; 5471 : 	{
; 5472 : 		ProduceXY[i][5] = -2;

  00050	c7 40 fc fe ff
	ff ff		 mov	 DWORD PTR [eax-4], -2	; fffffffeH

; 5473 : 		ProduceXY[i][6] = -1;

  00057	c7 00 ff ff ff
	ff		 mov	 DWORD PTR [eax], -1
  0005d	83 c0 1c	 add	 eax, 28			; 0000001cH
  00060	3d 18 1c 00 00	 cmp	 eax, OFFSET ?ProduceXY@@3PAY06HA+7192
  00065	7c e9		 jl	 SHORT $LL4@ReadAniFil

; 5474 : 	}
; 5475 : 	if ((hFile = CreateFile(fileName, GENERIC_READ, FILE_SHARE_READ, NULL, OPEN_EXISTING, NULL, NULL)) == INVALID_HANDLE_VALUE)

  00067	6a 00		 push	 0
  00069	6a 00		 push	 0
  0006b	6a 03		 push	 3
  0006d	6a 00		 push	 0
  0006f	6a 01		 push	 1
  00071	68 00 00 00 80	 push	 -2147483648		; 80000000H
  00076	8d 45 dc	 lea	 eax, DWORD PTR _fileName$[ebp]
  00079	50		 push	 eax
  0007a	ff 15 00 00 00
	00		 call	 DWORD PTR __imp__CreateFileA@28
  00080	8b d8		 mov	 ebx, eax
  00082	83 fb ff	 cmp	 ebx, -1
  00085	75 12		 jne	 SHORT $LN10@ReadAniFil

; 5476 : 		return -1;

  00087	5f		 pop	 edi
  00088	0b c0		 or	 eax, eax

; 5485 : 
; 5486 : 	return 1;
; 5487 : }

  0008a	5b		 pop	 ebx
  0008b	8b 4d fc	 mov	 ecx, DWORD PTR __$ArrayPad$[ebp]
  0008e	33 cd		 xor	 ecx, ebp
  00090	e8 00 00 00 00	 call	 @__security_check_cookie@4
  00095	8b e5		 mov	 esp, ebp
  00097	5d		 pop	 ebp
  00098	c3		 ret	 0
$LN10@ReadAniFil:

; 5477 : 
; 5478 : 	while (ReadFile(hFile, &ProduceXY[row], sizeof(int) * 5, &readbyte, NULL) && readbyte)

  00099	6a 00		 push	 0
  0009b	8d 45 d8	 lea	 eax, DWORD PTR _readbyte$[ebp]
  0009e	50		 push	 eax
  0009f	6a 14		 push	 20			; 00000014H
  000a1	68 00 00 00 00	 push	 OFFSET ?ProduceXY@@3PAY06HA
  000a6	53		 push	 ebx
  000a7	ff 15 00 00 00
	00		 call	 DWORD PTR __imp__ReadFile@20
  000ad	85 c0		 test	 eax, eax
  000af	74 2c		 je	 SHORT $LN17@ReadAniFil
  000b1	56		 push	 esi
  000b2	be 00 00 00 00	 mov	 esi, OFFSET ?ProduceXY@@3PAY06HA
$LL5@ReadAniFil:
  000b7	83 7d d8 00	 cmp	 DWORD PTR _readbyte$[ebp], 0
  000bb	74 1f		 je	 SHORT $LN18@ReadAniFil
  000bd	6a 00		 push	 0
  000bf	8d 45 d8	 lea	 eax, DWORD PTR _readbyte$[ebp]

; 5479 : 	{
; 5480 : 		ProduceXY[row][5] = 0;

  000c2	c7 46 14 00 00
	00 00		 mov	 DWORD PTR [esi+20], 0
  000c9	50		 push	 eax
  000ca	6a 14		 push	 20			; 00000014H

; 5481 : 		row++;

  000cc	83 c6 1c	 add	 esi, 28			; 0000001cH
  000cf	47		 inc	 edi
  000d0	56		 push	 esi
  000d1	53		 push	 ebx
  000d2	ff 15 00 00 00
	00		 call	 DWORD PTR __imp__ReadFile@20
  000d8	85 c0		 test	 eax, eax
  000da	75 db		 jne	 SHORT $LL5@ReadAniFil
$LN18@ReadAniFil:
  000dc	5e		 pop	 esi
$LN17@ReadAniFil:

; 5482 : 	}
; 5483 : 	ani_num = row; //è¯¥å°å¾æ»å¨ç»æ°
; 5484 : 	CloseHandle(hFile);

  000dd	53		 push	 ebx
  000de	89 3d 00 00 00
	00		 mov	 DWORD PTR ?ani_num@@3HA, edi ; ani_num
  000e4	ff 15 00 00 00
	00		 call	 DWORD PTR __imp__CloseHandle@4

; 5485 : 
; 5486 : 	return 1;
; 5487 : }

  000ea	8b 4d fc	 mov	 ecx, DWORD PTR __$ArrayPad$[ebp]
  000ed	b8 01 00 00 00	 mov	 eax, 1
  000f2	5f		 pop	 edi
  000f3	33 cd		 xor	 ecx, ebp
  000f5	5b		 pop	 ebx
  000f6	e8 00 00 00 00	 call	 @__security_check_cookie@4
  000fb	8b e5		 mov	 esp, ebp
  000fd	5d		 pop	 ebp
  000fe	c3		 ret	 0
?ReadAniFile@@YAHH@Z ENDP				; ReadAniFile
_TEXT	ENDS
; Function compile flags: /Ogtp
; File \\VBOXSVR\_stoneage\repos\ssm-sacli\system\field.cpp
;	COMDAT ?AniRandomRelease@@YAXXZ
_TEXT	SEGMENT
?AniRandomRelease@@YAXXZ PROC				; AniRandomRelease, COMDAT

; 3063 : {

  00000	56		 push	 esi

; 3064 : 	for (int i = 0; i < 50; i++)

  00001	be 00 00 00 00	 mov	 esi, OFFSET ?WaterAct@@3PAPAUaction@@A
$LL4@AniRandomR:

; 3065 : 	{
; 3066 : 		if (WaterAct[i] != NULL)

  00006	8b 06		 mov	 eax, DWORD PTR [esi]
  00008	85 c0		 test	 eax, eax
  0000a	74 0f		 je	 SHORT $LN2@AniRandomR

; 3067 : 		{
; 3068 : 			DeathAction(WaterAct[i]);

  0000c	50		 push	 eax
  0000d	e8 00 00 00 00	 call	 ?DeathAction@@YAXPAUaction@@@Z ; DeathAction
  00012	83 c4 04	 add	 esp, 4

; 3069 : 			WaterAct[i] = NULL;

  00015	c7 06 00 00 00
	00		 mov	 DWORD PTR [esi], 0
$LN2@AniRandomR:

; 3064 : 	for (int i = 0; i < 50; i++)

  0001b	83 c6 04	 add	 esi, 4
  0001e	81 fe c8 00 00
	00		 cmp	 esi, OFFSET ?WaterAct@@3PAPAUaction@@A+200
  00024	7c e0		 jl	 SHORT $LL4@AniRandomR

; 3070 : 		}
; 3071 : 	}
; 3072 : }

  00026	5e		 pop	 esi
  00027	c3		 ret	 0
?AniRandomRelease@@YAXXZ ENDP				; AniRandomRelease
_TEXT	ENDS
; Function compile flags: /Ogtp
; File \\VBOXSVR\_stoneage\repos\ssm-sacli\system\field.cpp
;	COMDAT ?ImmobileAniRelease@@YAXXZ
_TEXT	SEGMENT
?ImmobileAniRelease@@YAXXZ PROC				; ImmobileAniRelease, COMDAT

; 3041 : {

  00000	56		 push	 esi

; 3042 : 	Updownflag = false;

  00001	c6 05 00 00 00
	00 00		 mov	 BYTE PTR ?Updownflag@@3_NA, 0 ; Updownflag
  00008	be 10 00 00 00	 mov	 esi, OFFSET ?XYposition@@3PAY06HA+16
  0000d	0f 1f 00	 npad	 3
$LL4@ImmobileAn:

; 3044 : 	{
; 3045 : 		if (XYposition[i][3] == 1)

  00010	83 7e fc 01	 cmp	 DWORD PTR [esi-4], 1
  00014	75 37		 jne	 SHORT $LN2@ImmobileAn

; 3046 : 		{
; 3047 : 			if (WaterAct3[XYposition[i][4]] != NULL)

  00016	8b 06		 mov	 eax, DWORD PTR [esi]
  00018	8b 04 85 00 00
	00 00		 mov	 eax, DWORD PTR ?WaterAct3@@3PAPAUaction@@A[eax*4]
  0001f	85 c0		 test	 eax, eax
  00021	74 2a		 je	 SHORT $LN2@ImmobileAn

; 3048 : 			{
; 3049 : 				DeathAction(WaterAct3[XYposition[i][4]]);

  00023	50		 push	 eax
  00024	e8 00 00 00 00	 call	 ?DeathAction@@YAXPAUaction@@@Z ; DeathAction

; 3050 : 				WaterAct3[XYposition[i][4]] = NULL;

  00029	8b 06		 mov	 eax, DWORD PTR [esi]
  0002b	83 c4 04	 add	 esp, 4

; 3051 : 				XYposition[i][3] = 0;

  0002e	c7 46 fc 00 00
	00 00		 mov	 DWORD PTR [esi-4], 0

; 3052 : 				XYposition[i][4] = -1;

  00035	c7 06 ff ff ff
	ff		 mov	 DWORD PTR [esi], -1

; 3053 : 				//				XYposition[i][5] = 1  ; //æ°å¢ä¸æ¼æµ®çææ 2ï¼æä¸å
; 3054 : 				XYposition[i][6] = 0;

  0003b	c7 46 08 00 00
	00 00		 mov	 DWORD PTR [esi+8], 0
  00042	c7 04 85 00 00
	00 00 00 00 00
	00		 mov	 DWORD PTR ?WaterAct3@@3PAPAUaction@@A[eax*4], 0
$LN2@ImmobileAn:

; 3043 : 	for (int i = 0; i < 560; i++)

  0004d	83 c6 1c	 add	 esi, 28			; 0000001cH
  00050	81 fe 50 3d 00
	00		 cmp	 esi, OFFSET ?XYposition@@3PAY06HA+15696
  00056	7c b8		 jl	 SHORT $LL4@ImmobileAn

; 3055 : 			}
; 3056 : 		}
; 3057 : 	}
; 3058 : }

  00058	5e		 pop	 esi
  00059	c3		 ret	 0
?ImmobileAniRelease@@YAXXZ ENDP				; ImmobileAniRelease
_TEXT	ENDS
; Function compile flags: /Ogtp
; File \\VBOXSVR\_stoneage\repos\ssm-sacli\system\field.cpp
;	COMDAT ?crossAniRelease@@YAXXZ
_TEXT	SEGMENT
?crossAniRelease@@YAXXZ PROC				; crossAniRelease, COMDAT

; 3031 : 	if (WaterAct2 != NULL) {

  00000	a1 00 00 00 00	 mov	 eax, DWORD PTR ?WaterAct2@@3PAUaction@@A
  00005	85 c0		 test	 eax, eax
  00007	74 1a		 je	 SHORT $LN2@crossAniRe

; 3032 : 		DeathAction(WaterAct2);

  00009	50		 push	 eax
  0000a	e8 00 00 00 00	 call	 ?DeathAction@@YAXPAUaction@@@Z ; DeathAction
  0000f	83 c4 04	 add	 esp, 4

; 3033 : 		WaterAct2 = NULL;

  00012	c7 05 00 00 00
	00 00 00 00 00	 mov	 DWORD PTR ?WaterAct2@@3PAUaction@@A, 0

; 3034 : 		Timeflag2 = false;

  0001c	c6 05 00 00 00
	00 00		 mov	 BYTE PTR ?Timeflag2@@3_NA, 0 ; Timeflag2
$LN2@crossAniRe:

; 3035 : 	}
; 3036 : }

  00023	c3		 ret	 0
?crossAniRelease@@YAXXZ ENDP				; crossAniRelease
_TEXT	ENDS
; Function compile flags: /Ogtp
; File \\VBOXSVR\_stoneage\repos\ssm-sacli\system\field.cpp
;	COMDAT ?leaderFuncWN@@YAXXZ
_TEXT	SEGMENT
_buf$ = -1028						; size = 1024
__$ArrayPad$ = -4					; size = 4
?leaderFuncWN@@YAXXZ PROC				; leaderFuncWN, COMDAT

; 5285 : {

  00000	55		 push	 ebp
  00001	8b ec		 mov	 ebp, esp
  00003	81 ec 04 04 00
	00		 sub	 esp, 1028		; 00000404H
  00009	a1 00 00 00 00	 mov	 eax, DWORD PTR ___security_cookie
  0000e	33 c5		 xor	 eax, ebp
  00010	89 45 fc	 mov	 DWORD PTR __$ArrayPad$[ebp], eax

; 5286 : 	//static ACTION *ptActMenuWin = NULL;
; 5287 : 	int x, y, w, h;
; 5288 : 	static int btnId[9];
; 5289 : 	static int graId[1];
; 5290 : 	char buf[1024];
; 5291 : 	int selId;
; 5292 : 	int selgraId;
; 5293 : 
; 5294 : 	x = 160;
; 5295 : 	y = 30;
; 5296 : 	w = 2;
; 5297 : 	h = 7;
; 5298 : 
; 5299 : 	if (ptActLeaderFuncWin == NULL)

  00013	a1 00 00 00 00	 mov	 eax, DWORD PTR ?ptActLeaderFuncWin@@3PAUaction@@A
  00018	85 c0		 test	 eax, eax
  0001a	75 29		 jne	 SHORT $LN2@leaderFunc

; 5300 : 	{
; 5301 : 		ptActLeaderFuncWin = MakeWindowDisp(x, y, w, h, NULL, 1);

  0001c	6a 01		 push	 1
  0001e	50		 push	 eax
  0001f	6a 07		 push	 7
  00021	6a 02		 push	 2
  00023	6a 1e		 push	 30			; 0000001eH
  00025	68 a0 00 00 00	 push	 160			; 000000a0H
  0002a	e8 00 00 00 00	 call	 ?MakeWindowDisp@@YAPAUaction@@HHHHHH@Z ; MakeWindowDisp
  0002f	83 c4 18	 add	 esp, 24			; 00000018H
  00032	a3 00 00 00 00	 mov	 DWORD PTR ?ptActLeaderFuncWin@@3PAUaction@@A, eax

; 5452 : #ifdef	_ADD_FAMILY_TAX		// WON ADD å¢å åºå­ç¨æ¶
; 5453 : 		else if (selId == 6)
; 5454 : 			ShowBottomLineString(FONT_PAL_WHITE, "ë¶ëì°í­ëª©ìëíì¸ê¸ì¡°ì ã");
; 5455 : #endif
; 5456 : 	}
; 5457 : 
; 5458 : }

  00037	8b 4d fc	 mov	 ecx, DWORD PTR __$ArrayPad$[ebp]
  0003a	33 cd		 xor	 ecx, ebp
  0003c	e8 00 00 00 00	 call	 @__security_check_cookie@4
  00041	8b e5		 mov	 esp, ebp
  00043	5d		 pop	 ebp
  00044	c3		 ret	 0
$LN2@leaderFunc:

; 5302 : #ifdef _NEW_RESOMODE  //800 600æ¨¡å¼
; 5303 : 		x = ptActLeaderFuncWin->x;
; 5304 : 		y = ptActLeaderFuncWin->y;
; 5305 : #endif
; 5306 : 	}
; 5307 : 	else if (ptActLeaderFuncWin->hp >= 1)

  00045	83 78 78 01	 cmp	 DWORD PTR [eax+120], 1
  00049	0f 8c ad 02 00
	00		 jl	 $LN37@leaderFunc

; 5308 : 	{
; 5309 : 		// ESC???????î·?
; 5310 : 		if (((joy_trg[0] & JOY_ESC) && GetImeString() == NULL))

  0004f	f7 05 00 00 00
	00 00 00 00 80	 test	 DWORD PTR ?joy_trg@@3PAKA, -2147483648 ; 80000000H
  00059	74 25		 je	 SHORT $LN5@leaderFunc
  0005b	e8 00 00 00 00	 call	 ?GetImeString@@YAPADXZ	; GetImeString
  00060	85 c0		 test	 eax, eax
  00062	75 1c		 jne	 SHORT $LN5@leaderFunc

; 5311 : 		{
; 5312 : 			closeJoinChannelWN();

  00064	e8 00 00 00 00	 call	 ?closeJoinChannelWN@@YAXXZ ; closeJoinChannelWN

; 5313 : 			play_se(203, 320, 240);	// ?????î¼???

  00069	68 f0 00 00 00	 push	 240			; 000000f0H
  0006e	68 40 01 00 00	 push	 320			; 00000140H
  00073	68 cb 00 00 00	 push	 203			; 000000cbH
  00078	e8 00 00 00 00	 call	 ?play_se@@YAHHHH@Z	; play_se
  0007d	83 c4 0c	 add	 esp, 12			; 0000000cH
$LN5@leaderFunc:

; 5314 : 		}
; 5315 : 		if (CheckMenuFlag())

  00080	e8 00 00 00 00	 call	 ?CheckMenuFlag@@YAHXZ	; CheckMenuFlag
  00085	85 c0		 test	 eax, eax
  00087	74 05		 je	 SHORT $LN6@leaderFunc

; 5316 : 			closeJoinChannelWN();

  00089	e8 00 00 00 00	 call	 ?closeJoinChannelWN@@YAXXZ ; closeJoinChannelWN
$LN6@leaderFunc:
  0008e	56		 push	 esi

; 5317 : 
; 5318 : 		selId = focusFontId(btnId, sizeof(btnId) / sizeof(int));

  0008f	6a 09		 push	 9
  00091	68 00 00 00 00	 push	 OFFSET ?btnId@?1??leaderFuncWN@@YAXXZ@4PAHA
  00096	e8 00 00 00 00	 call	 ?focusFontId@@YAHPAHH@Z	; focusFontId

; 5319 : 		selgraId = focusGraId(graId, sizeof(graId) / sizeof(int));

  0009b	6a 01		 push	 1
  0009d	68 00 00 00 00	 push	 OFFSET ?graId@?1??leaderFuncWN@@YAXXZ@4PAHA
  000a2	8b f0		 mov	 esi, eax
  000a4	e8 00 00 00 00	 call	 ?focusGraId@@YAHPAHH@Z	; focusGraId
  000a9	83 c4 10	 add	 esp, 16			; 00000010H

; 5320 : 
; 5321 : 		if (mouse.onceState & MOUSE_LEFT_CRICK)

  000ac	f6 05 2c 00 00
	00 01		 test	 BYTE PTR ?mouse@@3UMOUSE@@A+44, 1
  000b3	0f 84 a6 00 00
	00		 je	 $LN21@leaderFunc

; 5322 : 		{
; 5323 : 			if (selId == 1)

  000b9	83 fe 01	 cmp	 esi, 1
  000bc	75 3e		 jne	 SHORT $LN8@leaderFunc

; 5324 : 			{
; 5325 : #ifdef _FMVER21
; 5326 : 				if (pc.familyleader != FMMEMBER_LEADER)

  000be	83 3d 08 51 00
	00 03		 cmp	 DWORD PTR ?pc@@3UPC@@A+20744, 3
  000c5	0f 85 30 02 00
	00		 jne	 $LN41@leaderFunc

; 5327 : #else
; 5328 : 				if (pc.familyleader != 1)
; 5329 : #endif
; 5330 : 					return;
; 5331 : 				sprintf(buf, "C|J|5");

  000cb	68 00 00 00 00	 push	 OFFSET ??_C@_05PAKAMAIL@C?$HMJ?$HM5@
$LN43@leaderFunc:

; 5380 : 				else
; 5381 : 					old_lssproto_FM_send(sockfd, buf);
; 5382 : 				closeJoinChannelWN();

  000d0	8d 85 fc fb ff
	ff		 lea	 eax, DWORD PTR _buf$[ebp]
  000d6	50		 push	 eax
  000d7	e8 00 00 00 00	 call	 _sprintf
  000dc	83 c4 08	 add	 esp, 8
  000df	8d 85 fc fb ff
	ff		 lea	 eax, DWORD PTR _buf$[ebp]
  000e5	83 3d 00 00 00
	00 00		 cmp	 DWORD PTR ?bNewServer@@3HA, 0 ; bNewServer
  000ec	50		 push	 eax
  000ed	ff 35 00 00 00
	00		 push	 DWORD PTR ?sockfd@@3IA	; sockfd
  000f3	74 37		 je	 SHORT $LN10@leaderFunc
  000f5	e8 00 00 00 00	 call	 ?lssproto_FM_send@@YAXHPAD@Z ; lssproto_FM_send
  000fa	eb 35		 jmp	 SHORT $LN42@leaderFunc
$LN8@leaderFunc:

; 5332 : 				if (bNewServer)
; 5333 : 					lssproto_FM_send(sockfd, buf);
; 5334 : 				else
; 5335 : 					old_lssproto_FM_send(sockfd, buf);
; 5336 : 				closeJoinChannelWN();
; 5337 : 				play_se(203, 320, 240);	// ?????î¼???
; 5338 : 				return;
; 5339 : 			}
; 5340 : 			if (selId == 2)

  000fc	83 fe 02	 cmp	 esi, 2
  000ff	75 07		 jne	 SHORT $LN12@leaderFunc

; 5341 : 			{
; 5342 : 				sprintf(buf, "L|F|1");

  00101	68 00 00 00 00	 push	 OFFSET ??_C@_05CPEMAIOC@L?$HMF?$HM1@

; 5343 : 				if (bNewServer)
; 5344 : 					lssproto_FM_send(sockfd, buf);

  00106	eb c8		 jmp	 SHORT $LN43@leaderFunc
$LN12@leaderFunc:

; 5345 : 				else
; 5346 : 					old_lssproto_FM_send(sockfd, buf);
; 5347 : 				closeJoinChannelWN();
; 5348 : 				play_se(203, 320, 240);	// ?????î¼???
; 5349 : 				return;
; 5350 : 			}
; 5351 : 
; 5352 : 			if (selId == 3)

  00108	83 fe 03	 cmp	 esi, 3
  0010b	75 07		 jne	 SHORT $LN15@leaderFunc

; 5353 : 			{
; 5354 : 				sprintf(buf, "L|L|1");

  0010d	68 00 00 00 00	 push	 OFFSET ??_C@_05EAPBOIIG@L?$HML?$HM1@

; 5355 : 				if (bNewServer)
; 5356 : 					lssproto_FM_send(sockfd, buf);

  00112	eb bc		 jmp	 SHORT $LN43@leaderFunc
$LN15@leaderFunc:

; 5357 : 				else
; 5358 : 					old_lssproto_FM_send(sockfd, buf);
; 5359 : 				closeJoinChannelWN();
; 5360 : 				play_se(203, 320, 240);	// ?????î¼???
; 5361 : 				return;
; 5362 : 			}
; 5363 : 			if (selId == 4)

  00114	83 fe 04	 cmp	 esi, 4
  00117	75 07		 jne	 SHORT $LN18@leaderFunc

; 5364 : 			{
; 5365 : 				sprintf(buf, "L|L|2");

  00119	68 00 00 00 00	 push	 OFFSET ??_C@_05GLNMLLEF@L?$HML?$HM2@

; 5366 : 				if (bNewServer)
; 5367 : 					lssproto_FM_send(sockfd, buf);

  0011e	eb b0		 jmp	 SHORT $LN43@leaderFunc
$LN18@leaderFunc:

; 5368 : 				else
; 5369 : 					old_lssproto_FM_send(sockfd, buf);
; 5370 : 				closeJoinChannelWN();
; 5371 : 				play_se(203, 320, 240);	// ?????î¼???
; 5372 : 				return;
; 5373 : 			}
; 5374 : 
; 5375 : 			if (selId == 5)

  00120	83 fe 05	 cmp	 esi, 5
  00123	75 3a		 jne	 SHORT $LN21@leaderFunc

; 5376 : 			{
; 5377 : 				sprintf(buf, "L|CHANGE|L");

  00125	68 00 00 00 00	 push	 OFFSET ??_C@_0L@CJCIOOAN@L?$HMCHANGE?$HML@

; 5378 : 				if (bNewServer)
; 5379 : 					lssproto_FM_send(sockfd, buf);

  0012a	eb a4		 jmp	 SHORT $LN43@leaderFunc
$LN10@leaderFunc:

; 5380 : 				else
; 5381 : 					old_lssproto_FM_send(sockfd, buf);
; 5382 : 				closeJoinChannelWN();

  0012c	e8 00 00 00 00	 call	 ?old_lssproto_FM_send@@YAXHPAD@Z ; old_lssproto_FM_send
$LN42@leaderFunc:
  00131	83 c4 08	 add	 esp, 8
  00134	e8 00 00 00 00	 call	 ?closeJoinChannelWN@@YAXXZ ; closeJoinChannelWN

; 5383 : 				play_se(203, 320, 240);	// ?????î¼???

  00139	68 f0 00 00 00	 push	 240			; 000000f0H
  0013e	68 40 01 00 00	 push	 320			; 00000140H
  00143	68 cb 00 00 00	 push	 203			; 000000cbH
  00148	e8 00 00 00 00	 call	 ?play_se@@YAHHHH@Z	; play_se
  0014d	83 c4 0c	 add	 esp, 12			; 0000000cH
  00150	5e		 pop	 esi

; 5452 : #ifdef	_ADD_FAMILY_TAX		// WON ADD å¢å åºå­ç¨æ¶
; 5453 : 		else if (selId == 6)
; 5454 : 			ShowBottomLineString(FONT_PAL_WHITE, "ë¶ëì°í­ëª©ìëíì¸ê¸ì¡°ì ã");
; 5455 : #endif
; 5456 : 	}
; 5457 : 
; 5458 : }

  00151	8b 4d fc	 mov	 ecx, DWORD PTR __$ArrayPad$[ebp]
  00154	33 cd		 xor	 ecx, ebp
  00156	e8 00 00 00 00	 call	 @__security_check_cookie@4
  0015b	8b e5		 mov	 esp, ebp
  0015d	5d		 pop	 ebp
  0015e	c3		 ret	 0
$LN21@leaderFunc:

; 5384 : 				return;
; 5385 : 			}
; 5386 : #ifdef	_ADD_FAMILY_TAX		// WON ADD å¢å åºå­ç¨æ¶
; 5387 : 			if (selId == 6)
; 5388 : 			{
; 5389 : 				sprintf(buf, "L|FMTAX|W");
; 5390 : 				if (bNewServer)
; 5391 : 					lssproto_FM_send(sockfd, buf);
; 5392 : 				else
; 5393 : 					old_lssproto_FM_send(sockfd, buf);
; 5394 : 				closeJoinChannelWN();
; 5395 : 				play_se(203, 320, 240);	// ?????î¼???
; 5396 : 				return;
; 5397 : 			}
; 5398 : #endif
; 5399 : 		}
; 5400 : 		int ä¸´æ¶è¡¥X = 0;
; 5401 : 		if (ResoMode == åè¾¨ç::mode800) {

  0015f	a1 00 00 00 00	 mov	 eax, DWORD PTR ?ResoMode@@3HA ; ResoMode
  00164	57		 push	 edi
  00165	33 ff		 xor	 edi, edi
  00167	83 f8 03	 cmp	 eax, 3
  0016a	75 05		 jne	 SHORT $LN24@leaderFunc

; 5402 : 			ä¸´æ¶è¡¥X = 80;

  0016c	8d 78 4d	 lea	 edi, DWORD PTR [eax+77]

; 5403 : 		}

  0016f	eb 0b		 jmp	 SHORT $LN26@leaderFunc
$LN24@leaderFunc:

; 5404 : 		else if (ResoMode == åè¾¨ç::mode1024) {

  00171	83 f8 04	 cmp	 eax, 4
  00174	b9 be 00 00 00	 mov	 ecx, 190		; 000000beH
  00179	0f 44 f9	 cmove	 edi, ecx
$LN26@leaderFunc:

; 5405 : 			ä¸´æ¶è¡¥X = 190;
; 5406 : 		}
; 5407 : #ifdef _FMVER21
; 5408 : 		if (pc.familyleader == FMMEMBER_LEADER)

  0017c	a1 08 51 00 00	 mov	 eax, DWORD PTR ?pc@@3UPC@@A+20744
  00181	81 c7 b6 00 00
	00		 add	 edi, 182		; 000000b6H
  00187	83 f8 03	 cmp	 eax, 3
  0018a	0f 85 9f 00 00
	00		 jne	 $LN39@leaderFunc

; 5409 : #else
; 5410 : 		if (pc.familyleader == 1)
; 5411 : #endif
; 5412 : 		{
; 5413 : 			if (pc.channel == 5)

  00190	83 3d 0c 51 00
	00 05		 cmp	 DWORD PTR ?pc@@3UPC@@A+20748, 5
  00197	6a 02		 push	 2
  00199	68 00 00 00 00	 push	 OFFSET ??_C@_0N@NIGFCJOO@?5?5?A?$LH?$MA?e?$LJ?f?$LM?$NL?5?5@
  0019e	75 04		 jne	 SHORT $LN28@leaderFunc

; 5414 : 				btnId[1] = StockFontBuffer(x + ä¸´æ¶è¡¥X + 22, y + 65 + 36 * 0, FONT_PRIO_FRONT, FONT_PAL_YELLOW, "  ì¡±ì¥ë°©ì¡  ", 2);

  001a0	6a 04		 push	 4
  001a2	eb 02		 jmp	 SHORT $LN44@leaderFunc
$LN28@leaderFunc:

; 5415 : 			else
; 5416 : 				btnId[1] = StockFontBuffer(x + ä¸´æ¶è¡¥X + 22, y + 65 + 36 * 0, FONT_PRIO_FRONT, FONT_PAL_WHITE, "  ì¡±ì¥ë°©ì¡  ", 2);

  001a4	6a 00		 push	 0
$LN44@leaderFunc:

; 5417 : 
; 5418 : 			btnId[2] = StockFontBuffer(x + ä¸´æ¶è¡¥X + 22, y + 65 + 36 * 1, FONT_PRIO_FRONT, FONT_PAL_WHITE, "ë¶ì¡±êµ¬ì±ìê´ë¦¬", 2);

  001a6	6a 01		 push	 1
  001a8	6a 5f		 push	 95			; 0000005fH
  001aa	57		 push	 edi
  001ab	e8 00 00 00 00	 call	 ?StockFontBuffer@@YAHHHDHPADH@Z ; StockFontBuffer
  001b0	83 c4 18	 add	 esp, 24			; 00000018H
  001b3	a3 04 00 00 00	 mov	 DWORD PTR ?btnId@?1??leaderFuncWN@@YAXXZ@4PAHA+4, eax
  001b8	6a 02		 push	 2
  001ba	68 00 00 00 00	 push	 OFFSET ??_C@_0P@OGFFOIDE@?$LK?N?A?$LH?$LB?$LI?$LM?$LK?$LP?x?$LA?$PM?$LI?$KO@
  001bf	6a 00		 push	 0
  001c1	6a 01		 push	 1
  001c3	68 83 00 00 00	 push	 131			; 00000083H
  001c8	57		 push	 edi
  001c9	e8 00 00 00 00	 call	 ?StockFontBuffer@@YAHHHDHPADH@Z ; StockFontBuffer

; 5419 : 
; 5420 : 			btnId[3] = StockFontBuffer(x + ä¸´æ¶è¡¥X + 22, y + 65 + 36 * 2, FONT_PRIO_FRONT, FONT_PAL_WHITE, " ë¶ì¡±ì´ë ", 2);

  001ce	6a 02		 push	 2
  001d0	68 00 00 00 00	 push	 OFFSET ??_C@_0L@DOBBGKCH@?5?$LK?N?A?$LH?C?J?$LE?k?5@
  001d5	6a 00		 push	 0
  001d7	6a 01		 push	 1
  001d9	68 a7 00 00 00	 push	 167			; 000000a7H
  001de	57		 push	 edi
  001df	a3 08 00 00 00	 mov	 DWORD PTR ?btnId@?1??leaderFuncWN@@YAXXZ@4PAHA+8, eax
  001e4	e8 00 00 00 00	 call	 ?StockFontBuffer@@YAHHHDHPADH@Z ; StockFontBuffer

; 5421 : 			btnId[4] = StockFontBuffer(x + ä¸´æ¶è¡¥X + 22, y + 65 + 36 * 3, FONT_PRIO_FRONT, FONT_PAL_WHITE, " ì°êµ¬ëì ", 2);

  001e9	6a 02		 push	 2
  001eb	68 00 00 00 00	 push	 OFFSET ??_C@_0L@MJPGOABE@?5?$LP?$KM?$LB?$LI?$LF?$LP?$MA?G?5@
  001f0	6a 00		 push	 0
  001f2	6a 01		 push	 1
  001f4	68 cb 00 00 00	 push	 203			; 000000cbH
  001f9	57		 push	 edi
  001fa	a3 0c 00 00 00	 mov	 DWORD PTR ?btnId@?1??leaderFuncWN@@YAXXZ@4PAHA+12, eax
  001ff	e8 00 00 00 00	 call	 ?StockFontBuffer@@YAHHHDHPADH@Z ; StockFontBuffer
  00204	83 c4 48	 add	 esp, 72			; 00000048H
  00207	a3 10 00 00 00	 mov	 DWORD PTR ?btnId@?1??leaderFuncWN@@YAXXZ@4PAHA+16, eax

; 5422 : 			btnId[5] = StockFontBuffer(x + ä¸´æ¶è¡¥X + 22, y + 65 + 36 * 4, FONT_PRIO_FRONT, FONT_PAL_WHITE, "  ì¡±ì¥ê¶íë¶ì¬  ", 2);

  0020c	6a 02		 push	 2
  0020e	68 00 00 00 00	 push	 OFFSET ??_C@_0BB@BPLOID@?5?5?A?$LH?$MA?e?$LB?G?G?Q?$LK?N?$LP?$KJ?5?5@
  00213	6a 00		 push	 0
  00215	6a 01		 push	 1
  00217	68 ef 00 00 00	 push	 239			; 000000efH
  0021c	57		 push	 edi
  0021d	e8 00 00 00 00	 call	 ?StockFontBuffer@@YAHHHDHPADH@Z ; StockFontBuffer
  00222	a3 14 00 00 00	 mov	 DWORD PTR ?btnId@?1??leaderFuncWN@@YAXXZ@4PAHA+20, eax
  00227	83 c4 18	 add	 esp, 24			; 00000018H
  0022a	a1 08 51 00 00	 mov	 eax, DWORD PTR ?pc@@3UPC@@A+20744
$LN39@leaderFunc:

; 5423 : #ifdef	_ADD_FAMILY_TAX		// WON ADD å¢å åºå­ç¨æ¶
; 5424 : 			btnId[6] = StockFontBuffer(x + ä¸´æ¶è¡¥X + 22, y + 65 + 36 * 5, FONT_PRIO_FRONT, FONT_PAL_WHITE, "ì ì°ì¸ì¨ì¡°ì ", 2);
; 5425 : #endif
; 5426 : 		}
; 5427 : 		// shan begin
; 5428 : #ifdef _FMVER21
; 5429 : 		if (pc.familyleader == FMMEMBER_ELDER)

  0022f	83 f8 04	 cmp	 eax, 4
  00232	0f 85 8a 00 00
	00		 jne	 $LN30@leaderFunc

; 5430 : 		{
; 5431 : 			btnId[1] = StockFontBuffer(x + ä¸´æ¶è¡¥X + 22, y + 65 + 36 * 0, FONT_PRIO_FRONT, FONT_PAL_GRAY, "  ì¡±ì¥ë°©ì¡  ", 0);

  00238	6a 00		 push	 0
  0023a	68 00 00 00 00	 push	 OFFSET ??_C@_0N@NIGFCJOO@?5?5?A?$LH?$MA?e?$LJ?f?$LM?$NL?5?5@
  0023f	6a 07		 push	 7
  00241	6a 01		 push	 1
  00243	6a 5f		 push	 95			; 0000005fH
  00245	57		 push	 edi
  00246	e8 00 00 00 00	 call	 ?StockFontBuffer@@YAHHHDHPADH@Z ; StockFontBuffer

; 5432 : 			btnId[2] = StockFontBuffer(x + ä¸´æ¶è¡¥X + 22, y + 65 + 36 * 1, FONT_PRIO_FRONT, FONT_PAL_WHITE, "ë¶ì¡±êµ¬ì±ìê´ë¦¬", 2);

  0024b	6a 02		 push	 2
  0024d	68 00 00 00 00	 push	 OFFSET ??_C@_0P@OGFFOIDE@?$LK?N?A?$LH?$LB?$LI?$LM?$LK?$LP?x?$LA?$PM?$LI?$KO@
  00252	6a 00		 push	 0
  00254	6a 01		 push	 1
  00256	68 83 00 00 00	 push	 131			; 00000083H
  0025b	57		 push	 edi
  0025c	a3 04 00 00 00	 mov	 DWORD PTR ?btnId@?1??leaderFuncWN@@YAXXZ@4PAHA+4, eax
  00261	e8 00 00 00 00	 call	 ?StockFontBuffer@@YAHHHDHPADH@Z ; StockFontBuffer

; 5433 : 
; 5434 : 			btnId[3] = StockFontBuffer(x + ä¸´æ¶è¡¥X + 22, y + 65 + 36 * 2, FONT_PRIO_FRONT, FONT_PAL_WHITE, " ë¶ì¡±ì´ë ", 2);

  00266	6a 02		 push	 2
  00268	68 00 00 00 00	 push	 OFFSET ??_C@_0L@DOBBGKCH@?5?$LK?N?A?$LH?C?J?$LE?k?5@
  0026d	6a 00		 push	 0
  0026f	6a 01		 push	 1
  00271	68 a7 00 00 00	 push	 167			; 000000a7H
  00276	57		 push	 edi
  00277	a3 08 00 00 00	 mov	 DWORD PTR ?btnId@?1??leaderFuncWN@@YAXXZ@4PAHA+8, eax
  0027c	e8 00 00 00 00	 call	 ?StockFontBuffer@@YAHHHDHPADH@Z ; StockFontBuffer
  00281	83 c4 48	 add	 esp, 72			; 00000048H
  00284	a3 0c 00 00 00	 mov	 DWORD PTR ?btnId@?1??leaderFuncWN@@YAXXZ@4PAHA+12, eax

; 5435 : 			btnId[4] = StockFontBuffer(x + ä¸´æ¶è¡¥X + 22, y + 65 + 36 * 3, FONT_PRIO_FRONT, FONT_PAL_WHITE, " ì°êµ¬ëì ", 2);

  00289	6a 02		 push	 2
  0028b	68 00 00 00 00	 push	 OFFSET ??_C@_0L@MJPGOABE@?5?$LP?$KM?$LB?$LI?$LF?$LP?$MA?G?5@
  00290	6a 00		 push	 0
  00292	6a 01		 push	 1
  00294	68 cb 00 00 00	 push	 203			; 000000cbH
  00299	57		 push	 edi
  0029a	e8 00 00 00 00	 call	 ?StockFontBuffer@@YAHHHDHPADH@Z ; StockFontBuffer

; 5436 : 			btnId[5] = StockFontBuffer(x + ä¸´æ¶è¡¥X + 22, y + 65 + 36 * 4, FONT_PRIO_FRONT, FONT_PAL_GRAY, "  ì¡±ì¥ê¶íë¶ì¬  ", 0);

  0029f	6a 00		 push	 0
  002a1	68 00 00 00 00	 push	 OFFSET ??_C@_0BB@BPLOID@?5?5?A?$LH?$MA?e?$LB?G?G?Q?$LK?N?$LP?$KJ?5?5@
  002a6	6a 07		 push	 7
  002a8	6a 01		 push	 1
  002aa	68 ef 00 00 00	 push	 239			; 000000efH
  002af	57		 push	 edi
  002b0	a3 10 00 00 00	 mov	 DWORD PTR ?btnId@?1??leaderFuncWN@@YAXXZ@4PAHA+16, eax
  002b5	e8 00 00 00 00	 call	 ?StockFontBuffer@@YAHHHDHPADH@Z ; StockFontBuffer
  002ba	83 c4 30	 add	 esp, 48			; 00000030H
  002bd	a3 14 00 00 00	 mov	 DWORD PTR ?btnId@?1??leaderFuncWN@@YAXXZ@4PAHA+20, eax
$LN30@leaderFunc:

; 5437 : 
; 5438 : #ifdef	_ADD_FAMILY_TAX		// WON ADD å¢å åºå­ç¨æ¶
; 5439 : 			btnId[6] = StockFontBuffer(x + ä¸´æ¶è¡¥X + 22, y + 65 + 36 * 5, FONT_PRIO_FRONT, FONT_PAL_GRAY, "  ì ì°ì¸ì¨ì¡°ì   ", 0);
; 5440 : #endif
; 5441 : 		}
; 5442 : #endif
; 5443 : 		// shan end
; 5444 : 		if (selId == 1)

  002c2	5f		 pop	 edi
  002c3	83 fe 01	 cmp	 esi, 1
  002c6	75 07		 jne	 SHORT $LN31@leaderFunc

; 5445 : 			ShowBottomLineString(FONT_PAL_WHITE, "ì¡±ì¥ì ë¶ì¡±ìì ì²´ìê² ê³µì§í©ëë¤ã");

  002c8	68 00 00 00 00	 push	 OFFSET ??_C@_0CD@LJIHMIMO@?A?$LH?$MA?e?$MA?$LK?5?$LK?N?A?$LH?$LP?x?$MA?$PM?C?$LM?$LP?$KB?$LA?T?5?$LA?x?A?v?G?U?$LE?O?$LE@
  002cd	eb 22		 jmp	 SHORT $LN45@leaderFunc
$LN31@leaderFunc:

; 5446 : 		else if (selId == 2)

  002cf	83 fe 02	 cmp	 esi, 2
  002d2	75 07		 jne	 SHORT $LN33@leaderFunc

; 5447 : 			ShowBottomLineString(FONT_PAL_WHITE, "ë¶ì¡±êµ¬ì±ìëª©ë¡ã");

  002d4	68 00 00 00 00	 push	 OFFSET ??_C@_0BB@MGNAPNJL@?$LK?N?A?$LH?$LB?$LI?$LM?$LK?$LP?x?$LI?q?$LH?O?$KB?$KD@
  002d9	eb 16		 jmp	 SHORT $LN45@leaderFunc
$LN33@leaderFunc:

; 5448 : 		else if (selId == 3)

  002db	83 fe 03	 cmp	 esi, 3
  002de	75 07		 jne	 SHORT $LN35@leaderFunc

; 5449 : 			ShowBottomLineString(FONT_PAL_WHITE, "ë¶ì¡±ë°©ë¬¸ì´ì²­ì¥ìì±ã");

  002e0	68 00 00 00 00	 push	 OFFSET ??_C@_0BF@CGFLPMMC@?$LK?N?A?$LH?$LJ?f?$LJ?$KO?C?J?C?$LL?$MA?e?$MA?$NL?$LM?$LK?$KB?$KD@
  002e5	eb 0a		 jmp	 SHORT $LN45@leaderFunc
$LN35@leaderFunc:

; 5450 : 		else if (selId == 4)

  002e7	83 fe 04	 cmp	 esi, 4
  002ea	75 0f		 jne	 SHORT $LN41@leaderFunc

; 5451 : 			ShowBottomLineString(FONT_PAL_WHITE, "íì¹ë°°ì°ê¸°ìíëìììì±ã");

  002ec	68 00 00 00 00	 push	 OFFSET ??_C@_0BL@EJEFDMMK@?E?$LO?$LN?B?$LJ?h?$LP?l?$LB?b?$MA?$KH?G?Q?$LF?$LP?$MA?G?$LM?$KN?$MA?$NL?$LM?$LK?$KB?$KD@
$LN45@leaderFunc:
  002f1	6a 00		 push	 0
  002f3	e8 00 00 00 00	 call	 ?ShowBottomLineString@@YAXHPAD@Z ; ShowBottomLineString
  002f8	83 c4 08	 add	 esp, 8
$LN41@leaderFunc:
  002fb	5e		 pop	 esi
$LN37@leaderFunc:

; 5452 : #ifdef	_ADD_FAMILY_TAX		// WON ADD å¢å åºå­ç¨æ¶
; 5453 : 		else if (selId == 6)
; 5454 : 			ShowBottomLineString(FONT_PAL_WHITE, "ë¶ëì°í­ëª©ìëíì¸ê¸ì¡°ì ã");
; 5455 : #endif
; 5456 : 	}
; 5457 : 
; 5458 : }

  002fc	8b 4d fc	 mov	 ecx, DWORD PTR __$ArrayPad$[ebp]
  002ff	33 cd		 xor	 ecx, ebp
  00301	e8 00 00 00 00	 call	 @__security_check_cookie@4
  00306	8b e5		 mov	 esp, ebp
  00308	5d		 pop	 ebp
  00309	c3		 ret	 0
?leaderFuncWN@@YAXXZ ENDP				; leaderFuncWN
_TEXT	ENDS
; Function compile flags: /Ogtp
; File \\VBOXSVR\_stoneage\repos\ssm-sacli\system\field.cpp
;	COMDAT ?joinChannel2WN@@YAXXZ
_TEXT	SEGMENT
_buf$ = -1028						; size = 1024
__$ArrayPad$ = -4					; size = 4
?joinChannel2WN@@YAXXZ PROC				; joinChannel2WN, COMDAT

; 5144 : {

  00000	55		 push	 ebp
  00001	8b ec		 mov	 ebp, esp
  00003	81 ec 04 04 00
	00		 sub	 esp, 1028		; 00000404H
  00009	a1 00 00 00 00	 mov	 eax, DWORD PTR ___security_cookie
  0000e	33 c5		 xor	 eax, ebp
  00010	89 45 fc	 mov	 DWORD PTR __$ArrayPad$[ebp], eax

; 5145 : 	//static ACTION *ptActMenuWin = NULL;
; 5146 : 	int x, y, w, h, i;
; 5147 : 	static int fontBtnId[4];
; 5148 : 	char buf[1024];
; 5149 : 	int selId;
; 5150 : 
; 5151 : 	x = 160;
; 5152 : 	y = 30;
; 5153 : 	w = 7;
; 5154 : 	h = 8;
; 5155 : 
; 5156 : 	if (ptActChannel2Win == NULL)

  00013	a1 00 00 00 00	 mov	 eax, DWORD PTR ?ptActChannel2Win@@3PAUaction@@A
  00018	85 c0		 test	 eax, eax
  0001a	75 3f		 jne	 SHORT $LN11@joinChanne

; 5157 : 	{
; 5158 : 		DeathAction(ptActLeaderFuncWin);

  0001c	ff 35 00 00 00
	00		 push	 DWORD PTR ?ptActLeaderFuncWin@@3PAUaction@@A
  00022	e8 00 00 00 00	 call	 ?DeathAction@@YAXPAUaction@@@Z ; DeathAction

; 5159 : 		ptActLeaderFuncWin = NULL;
; 5160 : 		ptActChannel2Win = MakeWindowDisp(x, y, w, h, NULL, 1);

  00027	6a 01		 push	 1
  00029	6a 00		 push	 0
  0002b	6a 08		 push	 8
  0002d	6a 07		 push	 7
  0002f	6a 1e		 push	 30			; 0000001eH
  00031	68 a0 00 00 00	 push	 160			; 000000a0H
  00036	c7 05 00 00 00
	00 00 00 00 00	 mov	 DWORD PTR ?ptActLeaderFuncWin@@3PAUaction@@A, 0
  00040	e8 00 00 00 00	 call	 ?MakeWindowDisp@@YAPAUaction@@HHHHHH@Z ; MakeWindowDisp
  00045	83 c4 1c	 add	 esp, 28			; 0000001cH
  00048	a3 00 00 00 00	 mov	 DWORD PTR ?ptActChannel2Win@@3PAUaction@@A, eax

; 5278 : 			}
; 5279 : 		}
; 5280 : 	}
; 5281 : }

  0004d	8b 4d fc	 mov	 ecx, DWORD PTR __$ArrayPad$[ebp]
  00050	33 cd		 xor	 ecx, ebp
  00052	e8 00 00 00 00	 call	 @__security_check_cookie@4
  00057	8b e5		 mov	 esp, ebp
  00059	5d		 pop	 ebp
  0005a	c3		 ret	 0
$LN11@joinChanne:

; 5161 : #ifdef _NEW_RESOMODE  //800 600æ¨¡å¼
; 5162 : 		x = ptActChannel2Win->x;
; 5163 : 		y = ptActChannel2Win->y;
; 5164 : #endif
; 5165 : 	}
; 5166 : 	else if (ptActChannel2Win->hp >= 1)

  0005b	83 78 78 01	 cmp	 DWORD PTR [eax+120], 1
  0005f	0f 8c 03 04 00
	00		 jl	 $LN9@joinChanne

; 5167 : 	{
; 5168 : 		selId = focusFontId(fontBtnId, sizeof(fontBtnId) / sizeof(int));

  00065	56		 push	 esi
  00066	6a 04		 push	 4
  00068	68 00 00 00 00	 push	 OFFSET ?fontBtnId@?1??joinChannel2WN@@YAXXZ@4PAHA
  0006d	e8 00 00 00 00	 call	 ?focusFontId@@YAHPAHH@Z	; focusFontId
  00072	8b f0		 mov	 esi, eax
  00074	83 c4 08	 add	 esp, 8

; 5169 : 
; 5170 : 		switch (selId)

  00077	8b ce		 mov	 ecx, esi
  00079	83 e9 00	 sub	 ecx, 0
  0007c	74 0c		 je	 SHORT $LN14@joinChanne
  0007e	83 e9 01	 sub	 ecx, 1
  00081	75 16		 jne	 SHORT $LN2@joinChanne

; 5174 : 			break;
; 5175 : 		case 1:
; 5176 : 			ShowBottomLineString(FONT_PAL_WHITE, "ì´ì°½ë«ê¸°ã");

  00083	68 00 00 00 00	 push	 OFFSET ??_C@_0L@EIKLEHBI@?$MA?L?C?$KC?$LE?$NN?$LB?b?$KB?$KD@
  00088	eb 05		 jmp	 SHORT $LN63@joinChanne
$LN14@joinChanne:

; 5171 : 		{
; 5172 : 		case 0:
; 5173 : 			ShowBottomLineString(FONT_PAL_WHITE, "ì´ì±ëìê°ìã");

  0008a	68 00 00 00 00	 push	 OFFSET ??_C@_0P@CBBBPELI@?$MA?L?C?$KE?$LD?N?$LP?$KB?$LA?$KB?$MA?T?$KB?$KD@
$LN63@joinChanne:

; 5177 : 			break;
; 5178 : 		}
; 5179 : 
; 5180 : 		if (mouse.onceState & MOUSE_LEFT_CRICK)

  0008f	6a 00		 push	 0
  00091	e8 00 00 00 00	 call	 ?ShowBottomLineString@@YAXHPAD@Z ; ShowBottomLineString
  00096	83 c4 08	 add	 esp, 8
$LN2@joinChanne:
  00099	f6 05 2c 00 00
	00 01		 test	 BYTE PTR ?mouse@@3UMOUSE@@A+44, 1
  000a0	0f 84 f0 00 00
	00		 je	 $LN27@joinChanne

; 5181 : 		{
; 5182 : 			switch (selId)

  000a6	83 fe 03	 cmp	 esi, 3
  000a9	0f 87 e7 00 00
	00		 ja	 $LN27@joinChanne
  000af	ff 24 b5 00 00
	00 00		 jmp	 DWORD PTR $LN60@joinChanne[esi*4]
$LN17@joinChanne:

; 5183 : 			{
; 5184 : 			case 0:
; 5185 : 				sprintf(buf, "C|J|%d", channelData.index);

  000b6	ff 35 00 00 00
	00		 push	 DWORD PTR ?channelData@@3UTchannelData@@A
  000bc	8d 85 fc fb ff
	ff		 lea	 eax, DWORD PTR _buf$[ebp]
  000c2	68 00 00 00 00	 push	 OFFSET ??_C@_06GHCNPHLL@C?$HMJ?$HM?$CFd@
  000c7	50		 push	 eax
  000c8	e8 00 00 00 00	 call	 _sprintf
  000cd	83 c4 0c	 add	 esp, 12			; 0000000cH

; 5186 : 				if (bNewServer)

  000d0	8d 85 fc fb ff
	ff		 lea	 eax, DWORD PTR _buf$[ebp]
  000d6	83 3d 00 00 00
	00 00		 cmp	 DWORD PTR ?bNewServer@@3HA, 0 ; bNewServer
  000dd	50		 push	 eax
  000de	ff 35 00 00 00
	00		 push	 DWORD PTR ?sockfd@@3IA	; sockfd
  000e4	74 07		 je	 SHORT $LN18@joinChanne

; 5187 : 					lssproto_FM_send(sockfd, buf);

  000e6	e8 00 00 00 00	 call	 ?lssproto_FM_send@@YAXHPAD@Z ; lssproto_FM_send
  000eb	eb 05		 jmp	 SHORT $LN64@joinChanne
$LN18@joinChanne:

; 5188 : 				else
; 5189 : 					old_lssproto_FM_send(sockfd, buf);

  000ed	e8 00 00 00 00	 call	 ?old_lssproto_FM_send@@YAXHPAD@Z ; old_lssproto_FM_send
$LN64@joinChanne:

; 5190 : 				closeJoinChannelWN();

  000f2	83 c4 08	 add	 esp, 8
  000f5	e8 00 00 00 00	 call	 ?closeJoinChannelWN@@YAXXZ ; closeJoinChannelWN

; 5191 : 				play_se(203, 320, 240);	// ?????î¼???

  000fa	68 f0 00 00 00	 push	 240			; 000000f0H
  000ff	68 40 01 00 00	 push	 320			; 00000140H
  00104	68 cb 00 00 00	 push	 203			; 000000cbH
  00109	e8 00 00 00 00	 call	 ?play_se@@YAHHHH@Z	; play_se
  0010e	83 c4 0c	 add	 esp, 12			; 0000000cH

; 5192 : 				break;

  00111	e9 80 00 00 00	 jmp	 $LN27@joinChanne
$LN20@joinChanne:

; 5193 : 			case 1:
; 5194 : 				if (pc.channel == channelData.index)

  00116	a1 0c 51 00 00	 mov	 eax, DWORD PTR ?pc@@3UPC@@A+20748
  0011b	3b 05 00 00 00
	00		 cmp	 eax, DWORD PTR ?channelData@@3UTchannelData@@A
  00121	75 39		 jne	 SHORT $LN23@joinChanne

; 5195 : 				{
; 5196 : 					sprintf(buf, "C|J|-1");

  00123	8d 85 fc fb ff
	ff		 lea	 eax, DWORD PTR _buf$[ebp]
  00129	68 00 00 00 00	 push	 OFFSET ??_C@_06KOPCAPBC@C?$HMJ?$HM?91@
  0012e	50		 push	 eax
  0012f	e8 00 00 00 00	 call	 _sprintf
  00134	83 c4 08	 add	 esp, 8

; 5197 : 					if (bNewServer)

  00137	8d 85 fc fb ff
	ff		 lea	 eax, DWORD PTR _buf$[ebp]
  0013d	83 3d 00 00 00
	00 00		 cmp	 DWORD PTR ?bNewServer@@3HA, 0 ; bNewServer
  00144	50		 push	 eax
  00145	ff 35 00 00 00
	00		 push	 DWORD PTR ?sockfd@@3IA	; sockfd
  0014b	74 07		 je	 SHORT $LN22@joinChanne

; 5198 : 						lssproto_FM_send(sockfd, buf);

  0014d	e8 00 00 00 00	 call	 ?lssproto_FM_send@@YAXHPAD@Z ; lssproto_FM_send
  00152	eb 05		 jmp	 SHORT $LN65@joinChanne
$LN22@joinChanne:

; 5199 : 					else
; 5200 : 						old_lssproto_FM_send(sockfd, buf);

  00154	e8 00 00 00 00	 call	 ?old_lssproto_FM_send@@YAXHPAD@Z ; old_lssproto_FM_send
$LN65@joinChanne:

; 5201 : 				}
; 5202 : 				closeJoinChannel2WN();

  00159	83 c4 08	 add	 esp, 8
$LN23@joinChanne:
  0015c	e8 00 00 00 00	 call	 ?closeJoinChannel2WN@@YAXXZ ; closeJoinChannel2WN

; 5203 : 				play_se(203, 320, 240);	// ?????î¼???

  00161	68 f0 00 00 00	 push	 240			; 000000f0H
  00166	68 40 01 00 00	 push	 320			; 00000140H
  0016b	68 cb 00 00 00	 push	 203			; 000000cbH
  00170	e8 00 00 00 00	 call	 ?play_se@@YAHHHH@Z	; play_se
  00175	83 c4 0c	 add	 esp, 12			; 0000000cH

; 5204 : 				break;

  00178	eb 1c		 jmp	 SHORT $LN27@joinChanne
$LN24@joinChanne:

; 5205 : 			case 2:
; 5206 : 				if (pageNum > 0)

  0017a	a1 00 00 00 00	 mov	 eax, DWORD PTR ?pageNum@@3HA
  0017f	85 c0		 test	 eax, eax
  00181	7e 13		 jle	 SHORT $LN27@joinChanne

; 5207 : 					pageNum--;

  00183	48		 dec	 eax

; 5208 : 				break;

  00184	eb 0b		 jmp	 SHORT $LN66@joinChanne
$LN26@joinChanne:

; 5209 : 			case 3:
; 5210 : 				if (pageNum < 2)

  00186	a1 00 00 00 00	 mov	 eax, DWORD PTR ?pageNum@@3HA
  0018b	83 f8 02	 cmp	 eax, 2
  0018e	7d 06		 jge	 SHORT $LN27@joinChanne

; 5211 : 					pageNum++;

  00190	40		 inc	 eax
$LN66@joinChanne:

; 5212 : 				break;
; 5213 : 			}
; 5214 : 		}
; 5215 : 
; 5216 : 		fontBtnId[0] = StockFontBuffer(x + 240, y + 340, FONT_PRIO_FRONT, FONT_PAL_YELLOW, " ì°¸  ê° ", 2);

  00191	a3 00 00 00 00	 mov	 DWORD PTR ?pageNum@@3HA, eax
$LN27@joinChanne:
  00196	6a 02		 push	 2
  00198	68 00 00 00 00	 push	 OFFSET ??_C@_08JGHLAOEI@?5?B?$PM?5?5?$LA?$KB?5@
  0019d	6a 04		 push	 4
  0019f	6a 01		 push	 1
  001a1	68 72 01 00 00	 push	 370			; 00000172H
  001a6	68 90 01 00 00	 push	 400			; 00000190H
  001ab	e8 00 00 00 00	 call	 ?StockFontBuffer@@YAHHHDHPADH@Z ; StockFontBuffer

; 5217 : 		fontBtnId[1] = StockFontBuffer(x + 340, y + 340, FONT_PRIO_FRONT, FONT_PAL_YELLOW, " í  í´ ", 2);

  001b0	6a 02		 push	 2
  001b2	68 00 00 00 00	 push	 OFFSET ??_C@_08CMINFIIP@?5?E?$LL?5?5?E?p?5@
  001b7	6a 04		 push	 4
  001b9	6a 01		 push	 1
  001bb	68 72 01 00 00	 push	 370			; 00000172H
  001c0	68 f4 01 00 00	 push	 500			; 000001f4H
  001c5	a3 00 00 00 00	 mov	 DWORD PTR ?fontBtnId@?1??joinChannel2WN@@YAXXZ@4PAHA, eax
  001ca	e8 00 00 00 00	 call	 ?StockFontBuffer@@YAHHHDHPADH@Z ; StockFontBuffer
  001cf	a3 04 00 00 00	 mov	 DWORD PTR ?fontBtnId@?1??joinChannel2WN@@YAXXZ@4PAHA+4, eax
  001d4	83 c4 30	 add	 esp, 48			; 00000030H

; 5218 : 
; 5219 : 		switch (pageNum)

  001d7	a1 00 00 00 00	 mov	 eax, DWORD PTR ?pageNum@@3HA
  001dc	83 e8 00	 sub	 eax, 0
  001df	74 58		 je	 SHORT $LN28@joinChanne
  001e1	83 e8 01	 sub	 eax, 1
  001e4	74 26		 je	 SHORT $LN30@joinChanne
  001e6	83 e8 01	 sub	 eax, 1
  001e9	75 79		 jne	 SHORT $LN29@joinChanne
$LN31@joinChanne:

; 5230 : 		case 2:
; 5231 : 			fontBtnId[2] = StockFontBuffer(x + 50, y + 340, FONT_PRIO_FRONT, FONT_PAL_YELLOW, pageStr[0], 2);
; 5232 : 			break;
; 5233 : 		}
; 5234 : 		StockFontBuffer(x + 25, y + 25, FONT_PRIO_FRONT, FONT_PAL_WHITE, channelName[channelData.index], 0);

  001eb	6a 02		 push	 2
  001ed	68 00 00 00 00	 push	 OFFSET ?pageStr@@3PAY09DA ; pageStr
  001f2	6a 04		 push	 4
  001f4	6a 01		 push	 1
  001f6	68 72 01 00 00	 push	 370			; 00000172H
  001fb	68 d2 00 00 00	 push	 210			; 000000d2H
  00200	e8 00 00 00 00	 call	 ?StockFontBuffer@@YAHHHDHPADH@Z ; StockFontBuffer
  00205	a3 08 00 00 00	 mov	 DWORD PTR ?fontBtnId@?1??joinChannel2WN@@YAXXZ@4PAHA+8, eax
  0020a	eb 55		 jmp	 SHORT $LN67@joinChanne
$LN30@joinChanne:

; 5224 : 			break;
; 5225 : 		case 1:
; 5226 : 			if (channelData.num > 60)

  0020c	83 3d 04 00 00
	00 3c		 cmp	 DWORD PTR ?channelData@@3UTchannelData@@A+4, 60 ; 0000003cH
  00213	7e d6		 jle	 SHORT $LN31@joinChanne

; 5227 : 				fontBtnId[3] = StockFontBuffer(x + 120, y + 340, FONT_PRIO_FRONT, FONT_PAL_YELLOW, pageStr[1], 2);

  00215	6a 02		 push	 2
  00217	68 0a 00 00 00	 push	 OFFSET ?pageStr@@3PAY09DA+10
  0021c	6a 04		 push	 4
  0021e	6a 01		 push	 1
  00220	68 72 01 00 00	 push	 370			; 00000172H
  00225	68 18 01 00 00	 push	 280			; 00000118H
  0022a	e8 00 00 00 00	 call	 ?StockFontBuffer@@YAHHHDHPADH@Z ; StockFontBuffer
  0022f	83 c4 18	 add	 esp, 24			; 00000018H
  00232	a3 0c 00 00 00	 mov	 DWORD PTR ?fontBtnId@?1??joinChannel2WN@@YAXXZ@4PAHA+12, eax

; 5228 : 			fontBtnId[2] = StockFontBuffer(x + 50, y + 340, FONT_PRIO_FRONT, FONT_PAL_YELLOW, pageStr[0], 2);
; 5229 : 			break;

  00237	eb b2		 jmp	 SHORT $LN31@joinChanne
$LN28@joinChanne:

; 5220 : 		{
; 5221 : 		case 0:
; 5222 : 			if (channelData.num > 30)

  00239	83 3d 04 00 00
	00 1e		 cmp	 DWORD PTR ?channelData@@3UTchannelData@@A+4, 30 ; 0000001eH
  00240	7e 22		 jle	 SHORT $LN29@joinChanne

; 5223 : 				fontBtnId[3] = StockFontBuffer(x + 120, y + 340, FONT_PRIO_FRONT, FONT_PAL_YELLOW, pageStr[1], 2);

  00242	6a 02		 push	 2
  00244	68 0a 00 00 00	 push	 OFFSET ?pageStr@@3PAY09DA+10
  00249	6a 04		 push	 4
  0024b	6a 01		 push	 1
  0024d	68 72 01 00 00	 push	 370			; 00000172H
  00252	68 18 01 00 00	 push	 280			; 00000118H
  00257	e8 00 00 00 00	 call	 ?StockFontBuffer@@YAHHHDHPADH@Z ; StockFontBuffer
  0025c	a3 0c 00 00 00	 mov	 DWORD PTR ?fontBtnId@?1??joinChannel2WN@@YAXXZ@4PAHA+12, eax
$LN67@joinChanne:

; 5230 : 		case 2:
; 5231 : 			fontBtnId[2] = StockFontBuffer(x + 50, y + 340, FONT_PRIO_FRONT, FONT_PAL_YELLOW, pageStr[0], 2);
; 5232 : 			break;
; 5233 : 		}
; 5234 : 		StockFontBuffer(x + 25, y + 25, FONT_PRIO_FRONT, FONT_PAL_WHITE, channelName[channelData.index], 0);

  00261	83 c4 18	 add	 esp, 24			; 00000018H
$LN29@joinChanne:
  00264	a1 00 00 00 00	 mov	 eax, DWORD PTR ?channelData@@3UTchannelData@@A
  00269	6a 00		 push	 0
  0026b	8d 04 80	 lea	 eax, DWORD PTR [eax+eax*4]
  0026e	8d 04 85 00 00
	00 00		 lea	 eax, DWORD PTR ?channelName@@3PAY0BE@DA[eax*4]
  00275	50		 push	 eax
  00276	6a 00		 push	 0
  00278	6a 01		 push	 1
  0027a	6a 37		 push	 55			; 00000037H
  0027c	68 b9 00 00 00	 push	 185			; 000000b9H
  00281	e8 00 00 00 00	 call	 ?StockFontBuffer@@YAHHHDHPADH@Z ; StockFontBuffer

; 5235 : 
; 5236 : 		StockFontBuffer(x + 25, y + 50, FONT_PRIO_FRONT, FONT_PAL_WHITE, "[ ì± ë í ì ]", 0);

  00286	6a 00		 push	 0
  00288	68 00 00 00 00	 push	 OFFSET ??_C@_0BA@FLCLDJN@?$FL?5?C?$KE?5?$LD?N?5?H?$LI?5?$LP?x?5?$FN@
  0028d	6a 00		 push	 0
  0028f	6a 01		 push	 1
  00291	6a 50		 push	 80			; 00000050H
  00293	68 b9 00 00 00	 push	 185			; 000000b9H
  00298	e8 00 00 00 00	 call	 ?StockFontBuffer@@YAHHHDHPADH@Z ; StockFontBuffer

; 5237 : 
; 5238 : 		sprintf(buf, "íì¬ %d ì´ë¶ì¡±ì ê°ì¡±ã", channelData.num);

  0029d	ff 35 04 00 00
	00		 push	 DWORD PTR ?channelData@@3UTchannelData@@A+4
  002a3	8d 85 fc fb ff
	ff		 lea	 eax, DWORD PTR _buf$[ebp]
  002a9	68 00 00 00 00	 push	 OFFSET ??_C@_0BI@COJOKGGA@?G?v?$MA?g?5?$CFd?5?$MA?L?$LK?N?A?$LH?$MA?G?5?$LA?$KB?A?$LH?$KB?$KD@
  002ae	50		 push	 eax
  002af	e8 00 00 00 00	 call	 _sprintf

; 5239 : 		StockFontBuffer(x + 200, y + 25, FONT_PRIO_FRONT, FONT_PAL_WHITE, buf, 0);

  002b4	6a 00		 push	 0
  002b6	8d 85 fc fb ff
	ff		 lea	 eax, DWORD PTR _buf$[ebp]
  002bc	50		 push	 eax
  002bd	6a 00		 push	 0
  002bf	6a 01		 push	 1
  002c1	6a 37		 push	 55			; 00000037H
  002c3	68 68 01 00 00	 push	 360			; 00000168H
  002c8	e8 00 00 00 00	 call	 ?StockFontBuffer@@YAHHHDHPADH@Z ; StockFontBuffer
  002cd	83 c4 54	 add	 esp, 84			; 00000054H

; 5240 : 		sprintf(buf, "ìë¤ %d ì´ì±ëìì¬ëë¤ã", channelData.joinNum);

  002d0	8d 85 fc fb ff
	ff		 lea	 eax, DWORD PTR _buf$[ebp]
  002d6	ff 35 98 01 00
	00		 push	 DWORD PTR ?channelData@@3UTchannelData@@A+408
  002dc	68 00 00 00 00	 push	 OFFSET ??_C@_0BJ@BJPJPJLI@?$MA?V?$LE?Y?5?$CFd?5?$MA?L?C?$KE?$LD?N?$MA?G?$LL?g?$LG?w?$LF?i?$KB?$KD@
  002e1	50		 push	 eax
  002e2	e8 00 00 00 00	 call	 _sprintf

; 5241 : 		StockFontBuffer(x + 280, y + 50, FONT_PRIO_FRONT, FONT_PAL_WHITE, buf, 0);

  002e7	6a 00		 push	 0
  002e9	8d 85 fc fb ff
	ff		 lea	 eax, DWORD PTR _buf$[ebp]
  002ef	50		 push	 eax
  002f0	6a 00		 push	 0
  002f2	6a 01		 push	 1
  002f4	6a 50		 push	 80			; 00000050H
  002f6	68 b8 01 00 00	 push	 440			; 000001b8H
  002fb	e8 00 00 00 00	 call	 ?StockFontBuffer@@YAHHHDHPADH@Z ; StockFontBuffer

; 5242 : 
; 5243 : 		for (i = 0; i < channelData.num; i++)

  00300	33 f6		 xor	 esi, esi
  00302	83 c4 24	 add	 esp, 36			; 00000024H
  00305	39 35 04 00 00
	00		 cmp	 DWORD PTR ?channelData@@3UTchannelData@@A+4, esi
  0030b	0f 8e 56 01 00
	00		 jle	 $LN61@joinChanne

; 5230 : 		case 2:
; 5231 : 			fontBtnId[2] = StockFontBuffer(x + 50, y + 340, FONT_PRIO_FRONT, FONT_PAL_YELLOW, pageStr[0], 2);
; 5232 : 			break;
; 5233 : 		}
; 5234 : 		StockFontBuffer(x + 25, y + 25, FONT_PRIO_FRONT, FONT_PAL_WHITE, channelName[channelData.index], 0);

  00311	53		 push	 ebx
  00312	57		 push	 edi
  00313	bb 9c 01 00 00	 mov	 ebx, OFFSET ?channelData@@3UTchannelData@@A+412
  00318	bf 74 ff ff ff	 mov	 edi, -140		; ffffff74H
  0031d	0f 1f 00	 npad	 3
$LL10@joinChanne:

; 5244 : 		{
; 5245 : 			int color;
; 5246 : 
; 5247 : 			if (channelData.join[i] == 1)
; 5248 : 				color = FONT_PAL_WHITE;
; 5249 : 			else
; 5250 : 				color = FONT_PAL_GRAY;
; 5251 : 
; 5252 : 			if (pageNum == 0 && i < 30)

  00320	8b 0c b5 08 00
	00 00		 mov	 ecx, DWORD PTR ?channelData@@3UTchannelData@@A[esi*4+8]
  00327	49		 dec	 ecx
  00328	f7 d9		 neg	 ecx
  0032a	1b c9		 sbb	 ecx, ecx
  0032c	83 e1 07	 and	 ecx, 7
  0032f	83 3d 00 00 00
	00 00		 cmp	 DWORD PTR ?pageNum@@3HA, 0
  00336	75 57		 jne	 SHORT $LN35@joinChanne
  00338	83 fe 1e	 cmp	 esi, 30			; 0000001eH
  0033b	0f 8d 11 01 00
	00		 jge	 $LN8@joinChanne

; 5253 : 			{
; 5254 : 				if (i < 10)

  00341	83 fe 0a	 cmp	 esi, 10			; 0000000aH
  00344	7d 18		 jge	 SHORT $LN37@joinChanne

; 5257 : 					StockFontBuffer(x + 25 + 140, y + 80 + (i - 10) * 25, FONT_PRIO_FRONT, color, channelData.name[i], 0);
; 5258 : 				else if (i < 30)
; 5259 : 					StockFontBuffer(x + 25 + 280, y + 80 + (i - 20) * 25, FONT_PRIO_FRONT, color, channelData.name[i], 0);
; 5260 : 			}

  00346	6a 00		 push	 0
  00348	53		 push	 ebx
  00349	51		 push	 ecx
  0034a	6a 01		 push	 1
  0034c	8d 97 fa 00 00
	00		 lea	 edx, DWORD PTR [edi+250]
  00352	b8 b9 00 00 00	 mov	 eax, 185		; 000000b9H
  00357	52		 push	 edx
  00358	50		 push	 eax
  00359	e9 ec 00 00 00	 jmp	 $LN68@joinChanne
$LN37@joinChanne:

; 5255 : 					StockFontBuffer(x + 25, y + 80 + i * 25, FONT_PRIO_FRONT, color, channelData.name[i], 0);
; 5256 : 				else if (i < 20)

  0035e	83 fe 14	 cmp	 esi, 20			; 00000014H
  00361	7d 14		 jge	 SHORT $LN39@joinChanne

; 5257 : 					StockFontBuffer(x + 25 + 140, y + 80 + (i - 10) * 25, FONT_PRIO_FRONT, color, channelData.name[i], 0);
; 5258 : 				else if (i < 30)
; 5259 : 					StockFontBuffer(x + 25 + 280, y + 80 + (i - 20) * 25, FONT_PRIO_FRONT, color, channelData.name[i], 0);
; 5260 : 			}

  00363	6a 00		 push	 0
  00365	53		 push	 ebx
  00366	51		 push	 ecx
  00367	6a 01		 push	 1
  00369	8b d7		 mov	 edx, edi
  0036b	b8 45 01 00 00	 mov	 eax, 325		; 00000145H
  00370	52		 push	 edx
  00371	50		 push	 eax
  00372	e9 d3 00 00 00	 jmp	 $LN68@joinChanne
$LN39@joinChanne:
  00377	6a 00		 push	 0
  00379	53		 push	 ebx
  0037a	51		 push	 ecx
  0037b	6a 01		 push	 1
  0037d	8d 97 06 ff ff
	ff		 lea	 edx, DWORD PTR [edi-250]
  00383	b8 d1 01 00 00	 mov	 eax, 465		; 000001d1H
  00388	52		 push	 edx
  00389	50		 push	 eax
  0038a	e9 bb 00 00 00	 jmp	 $LN68@joinChanne
$LN35@joinChanne:

; 5261 : 			else if (pageNum == 1 && i >= 30 && i < 60)

  0038f	83 3d 00 00 00
	00 01		 cmp	 DWORD PTR ?pageNum@@3HA, 1
  00396	75 5b		 jne	 SHORT $LN42@joinChanne
  00398	8d 46 e2	 lea	 eax, DWORD PTR [esi-30]
  0039b	83 f8 1d	 cmp	 eax, 29			; 0000001dH
  0039e	0f 87 ae 00 00
	00		 ja	 $LN8@joinChanne

; 5262 : 			{
; 5263 : 				if (i < 40)

  003a4	83 fe 28	 cmp	 esi, 40			; 00000028H
  003a7	7d 19		 jge	 SHORT $LN44@joinChanne

; 5266 : 					StockFontBuffer(x + 25 + 140, y + 80 + (i - 40) * 25, FONT_PRIO_FRONT, color, channelData.name[i], 0);
; 5267 : 				else if (i < 60)
; 5268 : 					StockFontBuffer(x + 25 + 280, y + 80 + (i - 50) * 25, FONT_PRIO_FRONT, color, channelData.name[i], 0);
; 5269 : 			}

  003a9	6a 00		 push	 0
  003ab	53		 push	 ebx
  003ac	51		 push	 ecx
  003ad	b8 0c fe ff ff	 mov	 eax, -500		; fffffe0cH
  003b2	ba b9 00 00 00	 mov	 edx, 185		; 000000b9H
  003b7	6a 01		 push	 1
  003b9	03 c7		 add	 eax, edi
  003bb	50		 push	 eax
  003bc	52		 push	 edx
  003bd	e9 88 00 00 00	 jmp	 $LN68@joinChanne
$LN44@joinChanne:

; 5264 : 					StockFontBuffer(x + 25, y + 80 + (i - 30) * 25, FONT_PRIO_FRONT, color, channelData.name[i], 0);
; 5265 : 				else if (i < 50)

  003c2	83 fe 32	 cmp	 esi, 50			; 00000032H
  003c5	7d 16		 jge	 SHORT $LN46@joinChanne

; 5266 : 					StockFontBuffer(x + 25 + 140, y + 80 + (i - 40) * 25, FONT_PRIO_FRONT, color, channelData.name[i], 0);
; 5267 : 				else if (i < 60)
; 5268 : 					StockFontBuffer(x + 25 + 280, y + 80 + (i - 50) * 25, FONT_PRIO_FRONT, color, channelData.name[i], 0);
; 5269 : 			}

  003c7	6a 00		 push	 0
  003c9	53		 push	 ebx
  003ca	51		 push	 ecx
  003cb	b8 12 fd ff ff	 mov	 eax, -750		; fffffd12H
  003d0	ba 45 01 00 00	 mov	 edx, 325		; 00000145H
  003d5	6a 01		 push	 1
  003d7	03 c7		 add	 eax, edi
  003d9	50		 push	 eax
  003da	52		 push	 edx
  003db	eb 6d		 jmp	 SHORT $LN68@joinChanne
$LN46@joinChanne:
  003dd	6a 00		 push	 0
  003df	53		 push	 ebx
  003e0	51		 push	 ecx
  003e1	b8 18 fc ff ff	 mov	 eax, -1000		; fffffc18H
  003e6	ba d1 01 00 00	 mov	 edx, 465		; 000001d1H
  003eb	6a 01		 push	 1
  003ed	03 c7		 add	 eax, edi
  003ef	50		 push	 eax
  003f0	52		 push	 edx
  003f1	eb 57		 jmp	 SHORT $LN68@joinChanne
$LN42@joinChanne:

; 5270 : 			else if (pageNum == 2 && i >= 60)

  003f3	83 3d 00 00 00
	00 02		 cmp	 DWORD PTR ?pageNum@@3HA, 2
  003fa	75 56		 jne	 SHORT $LN8@joinChanne
  003fc	83 fe 3c	 cmp	 esi, 60			; 0000003cH
  003ff	7c 51		 jl	 SHORT $LN8@joinChanne

; 5271 : 			{
; 5272 : 				if (i < 70)

  00401	83 fe 46	 cmp	 esi, 70			; 00000046H
  00404	7d 14		 jge	 SHORT $LN50@joinChanne

; 5273 : 					StockFontBuffer(x + 25, y + 80 + (i - 60) * 25, FONT_PRIO_FRONT, color, channelData.name[i], 0);

  00406	6a 00		 push	 0
  00408	53		 push	 ebx
  00409	51		 push	 ecx
  0040a	6a 01		 push	 1
  0040c	8d 87 1e fb ff
	ff		 lea	 eax, DWORD PTR [edi-1250]
  00412	50		 push	 eax
  00413	68 b9 00 00 00	 push	 185			; 000000b9H
  00418	eb 30		 jmp	 SHORT $LN68@joinChanne
$LN50@joinChanne:

; 5274 : 				else if (i < 80)

  0041a	83 fe 50	 cmp	 esi, 80			; 00000050H
  0041d	7d 14		 jge	 SHORT $LN52@joinChanne

; 5275 : 					StockFontBuffer(x + 25 + 140, y + 80 + (i - 70) * 25, FONT_PRIO_FRONT, color, channelData.name[i], 0);

  0041f	6a 00		 push	 0
  00421	53		 push	 ebx
  00422	51		 push	 ecx
  00423	6a 01		 push	 1
  00425	8d 87 24 fa ff
	ff		 lea	 eax, DWORD PTR [edi-1500]
  0042b	50		 push	 eax
  0042c	68 45 01 00 00	 push	 325			; 00000145H
  00431	eb 17		 jmp	 SHORT $LN68@joinChanne
$LN52@joinChanne:

; 5276 : 				else if (i < 90)

  00433	83 fe 5a	 cmp	 esi, 90			; 0000005aH
  00436	7d 1a		 jge	 SHORT $LN8@joinChanne

; 5277 : 					StockFontBuffer(x + 25 + 280, y + 80 + (i - 80) * 25, FONT_PRIO_FRONT, color, channelData.name[i], 0);

  00438	6a 00		 push	 0
  0043a	53		 push	 ebx
  0043b	51		 push	 ecx
  0043c	6a 01		 push	 1
  0043e	8d 87 2a f9 ff
	ff		 lea	 eax, DWORD PTR [edi-1750]
  00444	50		 push	 eax
  00445	68 d1 01 00 00	 push	 465			; 000001d1H
$LN68@joinChanne:

; 5242 : 
; 5243 : 		for (i = 0; i < channelData.num; i++)

  0044a	e8 00 00 00 00	 call	 ?StockFontBuffer@@YAHHHDHPADH@Z ; StockFontBuffer
  0044f	83 c4 18	 add	 esp, 24			; 00000018H
$LN8@joinChanne:
  00452	46		 inc	 esi
  00453	83 c3 14	 add	 ebx, 20			; 00000014H
  00456	83 c7 19	 add	 edi, 25			; 00000019H
  00459	3b 35 04 00 00
	00		 cmp	 esi, DWORD PTR ?channelData@@3UTchannelData@@A+4
  0045f	0f 8c bb fe ff
	ff		 jl	 $LL10@joinChanne
  00465	5f		 pop	 edi
  00466	5b		 pop	 ebx
$LN61@joinChanne:
  00467	5e		 pop	 esi
$LN9@joinChanne:

; 5278 : 			}
; 5279 : 		}
; 5280 : 	}
; 5281 : }

  00468	8b 4d fc	 mov	 ecx, DWORD PTR __$ArrayPad$[ebp]
  0046b	33 cd		 xor	 ecx, ebp
  0046d	e8 00 00 00 00	 call	 @__security_check_cookie@4
  00472	8b e5		 mov	 esp, ebp
  00474	5d		 pop	 ebp
  00475	c3		 ret	 0
  00476	66 90		 npad	 2
$LN60@joinChanne:
  00478	00 00 00 00	 DD	 $LN17@joinChanne
  0047c	00 00 00 00	 DD	 $LN20@joinChanne
  00480	00 00 00 00	 DD	 $LN24@joinChanne
  00484	00 00 00 00	 DD	 $LN26@joinChanne
?joinChannel2WN@@YAXXZ ENDP				; joinChannel2WN
_TEXT	ENDS
; Function compile flags: /Ogtp
; File \\VBOXSVR\_stoneage\repos\ssm-sacli\system\field.cpp
;	COMDAT ?closeJoinChannel2WN@@YAXXZ
_TEXT	SEGMENT
?closeJoinChannel2WN@@YAXXZ PROC			; closeJoinChannel2WN, COMDAT

; 5138 : 	joinChannel2Proc = 0;
; 5139 : 	DeathAction(ptActChannel2Win);

  00000	ff 35 00 00 00
	00		 push	 DWORD PTR ?ptActChannel2Win@@3PAUaction@@A
  00006	33 c0		 xor	 eax, eax
  00008	66 a3 00 00 00
	00		 mov	 WORD PTR ?joinChannel2Proc@@3FA, ax
  0000e	e8 00 00 00 00	 call	 ?DeathAction@@YAXPAUaction@@@Z ; DeathAction
  00013	83 c4 04	 add	 esp, 4

; 5140 : 	ptActChannel2Win = NULL;

  00016	c7 05 00 00 00
	00 00 00 00 00	 mov	 DWORD PTR ?ptActChannel2Win@@3PAUaction@@A, 0

; 5141 : }

  00020	c3		 ret	 0
?closeJoinChannel2WN@@YAXXZ ENDP			; closeJoinChannel2WN
_TEXT	ENDS
; Function compile flags: /Ogtp
; File \\VBOXSVR\_stoneage\repos\ssm-sacli\system\field.cpp
;	COMDAT ?initJoinChannel2WN@@YAXPAD@Z
_TEXT	SEGMENT
_data$GSCopy$1$ = -264					; size = 4
_buf$ = -260						; size = 256
__$ArrayPad$ = -4					; size = 4
_data$ = 8						; size = 4
?initJoinChannel2WN@@YAXPAD@Z PROC			; initJoinChannel2WN, COMDAT

; 5107 : {

  00000	55		 push	 ebp
  00001	8b ec		 mov	 ebp, esp
  00003	81 ec 08 01 00
	00		 sub	 esp, 264		; 00000108H
  00009	a1 00 00 00 00	 mov	 eax, DWORD PTR ___security_cookie
  0000e	33 c5		 xor	 eax, ebp
  00010	89 45 fc	 mov	 DWORD PTR __$ArrayPad$[ebp], eax
  00013	53		 push	 ebx
  00014	8b 5d 08	 mov	 ebx, DWORD PTR _data$[ebp]

; 5108 : 	int i;
; 5109 : 	char buf[256];
; 5110 : 
; 5111 : 	channelData.joinNum = 0;
; 5112 : 	getStringToken(data, '|', 3, sizeof(buf) - 1, buf);

  00017	8d 85 fc fe ff
	ff		 lea	 eax, DWORD PTR _buf$[ebp]
  0001d	50		 push	 eax
  0001e	68 ff 00 00 00	 push	 255			; 000000ffH
  00023	6a 03		 push	 3
  00025	6a 7c		 push	 124			; 0000007cH
  00027	53		 push	 ebx
  00028	89 9d f8 fe ff
	ff		 mov	 DWORD PTR _data$GSCopy$1$[ebp], ebx
  0002e	c7 05 98 01 00
	00 00 00 00 00	 mov	 DWORD PTR ?channelData@@3UTchannelData@@A+408, 0
  00038	e8 00 00 00 00	 call	 ?getStringToken@@YAHPADDHH0@Z ; getStringToken

; 5113 : 	channelData.index = atoi(buf);

  0003d	8d 85 fc fe ff
	ff		 lea	 eax, DWORD PTR _buf$[ebp]
  00043	50		 push	 eax
  00044	e8 00 00 00 00	 call	 _atoi
  00049	a3 00 00 00 00	 mov	 DWORD PTR ?channelData@@3UTchannelData@@A, eax

; 5114 : 	getStringToken(data, '|', 4, sizeof(buf) - 1, buf);

  0004e	8d 85 fc fe ff
	ff		 lea	 eax, DWORD PTR _buf$[ebp]
  00054	50		 push	 eax
  00055	68 ff 00 00 00	 push	 255			; 000000ffH
  0005a	6a 04		 push	 4
  0005c	6a 7c		 push	 124			; 0000007cH
  0005e	53		 push	 ebx
  0005f	e8 00 00 00 00	 call	 ?getStringToken@@YAHPADDHH0@Z ; getStringToken

; 5115 : 	channelData.num = atoi(buf);

  00064	8d 85 fc fe ff
	ff		 lea	 eax, DWORD PTR _buf$[ebp]
  0006a	50		 push	 eax
  0006b	e8 00 00 00 00	 call	 _atoi
  00070	83 c4 30	 add	 esp, 48			; 00000030H
  00073	a3 04 00 00 00	 mov	 DWORD PTR ?channelData@@3UTchannelData@@A+4, eax

; 5116 : 
; 5117 : 	if (channelData.num > 0)

  00078	85 c0		 test	 eax, eax
  0007a	0f 8e b2 00 00
	00		 jle	 $LN16@initJoinCh

; 5118 : 	{
; 5119 : 		for (i = 0; i < channelData.num && i < FAMILY_MAXMEMBER; i++)

  00080	56		 push	 esi
  00081	57		 push	 edi
  00082	33 ff		 xor	 edi, edi
  00084	8d 85 fc fe ff
	ff		 lea	 eax, DWORD PTR _buf$[ebp]
  0008a	be 9c 01 00 00	 mov	 esi, OFFSET ?channelData@@3UTchannelData@@A+412
  0008f	2b f0		 sub	 esi, eax
  00091	8d 5f 06	 lea	 ebx, DWORD PTR [edi+6]
$LL4@initJoinCh:
  00094	83 ff 64	 cmp	 edi, 100		; 00000064H
  00097	0f 8d 93 00 00
	00		 jge	 $LN17@initJoinCh

; 5120 : 		{
; 5121 : 			getStringToken(data, '|', 4 + (i * 2) + 1, sizeof(buf) - 1, buf);

  0009d	8d 85 fc fe ff
	ff		 lea	 eax, DWORD PTR _buf$[ebp]
  000a3	50		 push	 eax
  000a4	68 ff 00 00 00	 push	 255			; 000000ffH
  000a9	8d 43 ff	 lea	 eax, DWORD PTR [ebx-1]
  000ac	50		 push	 eax
  000ad	6a 7c		 push	 124			; 0000007cH
  000af	ff b5 f8 fe ff
	ff		 push	 DWORD PTR _data$GSCopy$1$[ebp]
  000b5	e8 00 00 00 00	 call	 ?getStringToken@@YAHPADDHH0@Z ; getStringToken

; 5122 : 			channelData.join[i] = atoi(buf);

  000ba	8d 85 fc fe ff
	ff		 lea	 eax, DWORD PTR _buf$[ebp]
  000c0	50		 push	 eax
  000c1	e8 00 00 00 00	 call	 _atoi
  000c6	83 c4 18	 add	 esp, 24			; 00000018H
  000c9	89 04 bd 08 00
	00 00		 mov	 DWORD PTR ?channelData@@3UTchannelData@@A[edi*4+8], eax

; 5123 : 			if (channelData.join[i] == 1)

  000d0	83 f8 01	 cmp	 eax, 1
  000d3	75 06		 jne	 SHORT $LN6@initJoinCh

; 5124 : 				channelData.joinNum++;

  000d5	ff 05 98 01 00
	00		 inc	 DWORD PTR ?channelData@@3UTchannelData@@A+408
$LN6@initJoinCh:

; 5125 : 			getStringToken(data, '|', 4 + (i * 2) + 2, sizeof(buf) - 1, buf);

  000db	8d 85 fc fe ff
	ff		 lea	 eax, DWORD PTR _buf$[ebp]
  000e1	50		 push	 eax
  000e2	68 ff 00 00 00	 push	 255			; 000000ffH
  000e7	53		 push	 ebx
  000e8	6a 7c		 push	 124			; 0000007cH
  000ea	ff b5 f8 fe ff
	ff		 push	 DWORD PTR _data$GSCopy$1$[ebp]
  000f0	e8 00 00 00 00	 call	 ?getStringToken@@YAHPADDHH0@Z ; getStringToken

; 5126 : 			makeStringFromEscaped(buf);

  000f5	8d 85 fc fe ff
	ff		 lea	 eax, DWORD PTR _buf$[ebp]
  000fb	50		 push	 eax
  000fc	e8 00 00 00 00	 call	 ?makeStringFromEscaped@@YAPADPAD@Z ; makeStringFromEscaped
  00101	83 c4 18	 add	 esp, 24			; 00000018H

; 5127 : 			strcpy(channelData.name[i], buf);

  00104	8d 85 fc fe ff
	ff		 lea	 eax, DWORD PTR _buf$[ebp]
  0010a	66 0f 1f 44 00
	00		 npad	 6
$LL8@initJoinCh:
  00110	8a 08		 mov	 cl, BYTE PTR [eax]
  00112	8d 40 01	 lea	 eax, DWORD PTR [eax+1]
  00115	88 4c 06 ff	 mov	 BYTE PTR [esi+eax-1], cl
  00119	84 c9		 test	 cl, cl
  0011b	75 f3		 jne	 SHORT $LL8@initJoinCh

; 5118 : 	{
; 5119 : 		for (i = 0; i < channelData.num && i < FAMILY_MAXMEMBER; i++)

  0011d	47		 inc	 edi
  0011e	83 c3 02	 add	 ebx, 2
  00121	83 c6 14	 add	 esi, 20			; 00000014H
  00124	3b 3d 04 00 00
	00		 cmp	 edi, DWORD PTR ?channelData@@3UTchannelData@@A+4
  0012a	0f 8c 64 ff ff
	ff		 jl	 $LL4@initJoinCh
$LN17@initJoinCh:
  00130	5f		 pop	 edi
  00131	5e		 pop	 esi
$LN16@initJoinCh:

; 5128 : 		}
; 5129 : 	}
; 5130 : 	pageNum = 0;
; 5131 : 	play_se(202, 320, 240);	// ????????

  00132	68 f0 00 00 00	 push	 240			; 000000f0H
  00137	68 40 01 00 00	 push	 320			; 00000140H
  0013c	68 ca 00 00 00	 push	 202			; 000000caH
  00141	c7 05 00 00 00
	00 00 00 00 00	 mov	 DWORD PTR ?pageNum@@3HA, 0
  0014b	e8 00 00 00 00	 call	 ?play_se@@YAHHHH@Z	; play_se

; 5132 : 	joinChannel2Proc = 1000;
; 5133 : 
; 5134 : }

  00150	8b 4d fc	 mov	 ecx, DWORD PTR __$ArrayPad$[ebp]
  00153	83 c4 0c	 add	 esp, 12			; 0000000cH
  00156	b8 e8 03 00 00	 mov	 eax, 1000		; 000003e8H
  0015b	33 cd		 xor	 ecx, ebp
  0015d	66 a3 00 00 00
	00		 mov	 WORD PTR ?joinChannel2Proc@@3FA, ax
  00163	5b		 pop	 ebx
  00164	e8 00 00 00 00	 call	 @__security_check_cookie@4
  00169	8b e5		 mov	 esp, ebp
  0016b	5d		 pop	 ebp
  0016c	c3		 ret	 0
?initJoinChannel2WN@@YAXPAD@Z ENDP			; initJoinChannel2WN
_TEXT	ENDS
; Function compile flags: /Ogtp
; File \\VBOXSVR\_stoneage\repos\ssm-sacli\system\field.cpp
;	COMDAT ?joinChannelWN@@YAXXZ
_TEXT	SEGMENT
_selgraId$1$ = -1096					; size = 4
_buf$ = -1092						; size = 1024
_buf2$ = -68						; size = 64
__$ArrayPad$ = -4					; size = 4
?joinChannelWN@@YAXXZ PROC				; joinChannelWN, COMDAT

; 4849 : {

  00000	55		 push	 ebp
  00001	8b ec		 mov	 ebp, esp
  00003	81 ec 48 04 00
	00		 sub	 esp, 1096		; 00000448H
  00009	a1 00 00 00 00	 mov	 eax, DWORD PTR ___security_cookie
  0000e	33 c5		 xor	 eax, ebp
  00010	89 45 fc	 mov	 DWORD PTR __$ArrayPad$[ebp], eax

; 4850 : 	//static ACTION *ptActMenuWin = NULL;
; 4851 : 	int x, y, w, h, i;
; 4852 : #ifndef _FM_MODIFY
; 4853 : 	static int btnId[9];
; 4854 : #else
; 4855 : 	static int btnId[5];
; 4856 : #endif
; 4857 : 	static int graId[1];
; 4858 : 	char buf[1024], buf2[64];
; 4859 : 	int selId = 0;
; 4860 : 	int selgraId;
; 4861 : 
; 4862 : 	x = 20;
; 4863 : 	y = 30;
; 4864 : 	w = 2;
; 4865 : #ifndef _FM_MODIFY
; 4866 : 	h = 8;
; 4867 : #else
; 4868 : 	h = 5;
; 4869 : #endif
; 4870 : 
; 4871 : 
; 4872 : 	if (ptActChannelWin == NULL)

  00013	a1 00 00 00 00	 mov	 eax, DWORD PTR ?ptActChannelWin@@3PAUaction@@A
  00018	85 c0		 test	 eax, eax
  0001a	75 3e		 jne	 SHORT $LN12@joinChanne

; 4873 : 	{
; 4874 : 		ptActChannelWin = MakeWindowDisp(x, y, w, h, NULL, 1);

  0001c	6a 01		 push	 1
  0001e	50		 push	 eax
  0001f	6a 05		 push	 5
  00021	6a 02		 push	 2
  00023	6a 1e		 push	 30			; 0000001eH
  00025	6a 14		 push	 20			; 00000014H
  00027	e8 00 00 00 00	 call	 ?MakeWindowDisp@@YAPAUaction@@HHHHHH@Z ; MakeWindowDisp

; 4875 : #ifdef _NEW_RESOMODE  //800 600æ¨¡å¼
; 4876 : 		x = ptActChannelWin->x;
; 4877 : 		y = ptActChannelWin->y;
; 4878 : #endif
; 4879 : 		for (i = 0; i < sizeof(btnId) / sizeof(int); i++)
; 4880 : 			btnId[i] = -2;

  0002c	0f 28 05 00 00
	00 00		 movaps	 xmm0, XMMWORD PTR __xmm@fffffffefffffffefffffffefffffffe
  00033	83 c4 18	 add	 esp, 24			; 00000018H
  00036	a3 00 00 00 00	 mov	 DWORD PTR ?ptActChannelWin@@3PAUaction@@A, eax
  0003b	0f 11 05 00 00
	00 00		 movups	 XMMWORD PTR ?btnId@?1??joinChannelWN@@YAXXZ@4PAHA, xmm0
  00042	c7 05 10 00 00
	00 fe ff ff ff	 mov	 DWORD PTR ?btnId@?1??joinChannelWN@@YAXXZ@4PAHA+16, -2 ; fffffffeH

; 5086 : 		}
; 5087 : 	}
; 5088 : }

  0004c	8b 4d fc	 mov	 ecx, DWORD PTR __$ArrayPad$[ebp]
  0004f	33 cd		 xor	 ecx, ebp
  00051	e8 00 00 00 00	 call	 @__security_check_cookie@4
  00056	8b e5		 mov	 esp, ebp
  00058	5d		 pop	 ebp
  00059	c3		 ret	 0
$LN12@joinChanne:

; 4881 : 	}
; 4882 : 	else
; 4883 : 	{
; 4884 : 		if (ptActChannelWin->hp >= 1)

  0005a	83 78 78 01	 cmp	 DWORD PTR [eax+120], 1
  0005e	0f 8c 91 03 00
	00		 jl	 $LN39@joinChanne

; 4885 : 		{
; 4886 : 			// ESC???????î·?
; 4887 : 			if (((joy_trg[0] & JOY_ESC) && GetImeString() == NULL))

  00064	f7 05 00 00 00
	00 00 00 00 80	 test	 DWORD PTR ?joy_trg@@3PAKA, -2147483648 ; 80000000H
  0006e	74 25		 je	 SHORT $LN15@joinChanne
  00070	e8 00 00 00 00	 call	 ?GetImeString@@YAPADXZ	; GetImeString
  00075	85 c0		 test	 eax, eax
  00077	75 1c		 jne	 SHORT $LN15@joinChanne

; 4888 : 			{
; 4889 : 				closeJoinChannelWN();

  00079	e8 00 00 00 00	 call	 ?closeJoinChannelWN@@YAXXZ ; closeJoinChannelWN

; 4890 : 				play_se(203, 320, 240);	// ?????î¼???

  0007e	68 f0 00 00 00	 push	 240			; 000000f0H
  00083	68 40 01 00 00	 push	 320			; 00000140H
  00088	68 cb 00 00 00	 push	 203			; 000000cbH
  0008d	e8 00 00 00 00	 call	 ?play_se@@YAHHHH@Z	; play_se
  00092	83 c4 0c	 add	 esp, 12			; 0000000cH
$LN15@joinChanne:

; 4891 : 			}
; 4892 : 			if (CheckMenuFlag())

  00095	e8 00 00 00 00	 call	 ?CheckMenuFlag@@YAHXZ	; CheckMenuFlag
  0009a	85 c0		 test	 eax, eax
  0009c	74 05		 je	 SHORT $LN16@joinChanne

; 4893 : 				closeJoinChannelWN();

  0009e	e8 00 00 00 00	 call	 ?closeJoinChannelWN@@YAXXZ ; closeJoinChannelWN
$LN16@joinChanne:
  000a3	53		 push	 ebx

; 4894 : 
; 4895 : 			selId = focusFontId(btnId, sizeof(btnId) / sizeof(int));

  000a4	6a 05		 push	 5
  000a6	68 00 00 00 00	 push	 OFFSET ?btnId@?1??joinChannelWN@@YAXXZ@4PAHA
  000ab	e8 00 00 00 00	 call	 ?focusFontId@@YAHPAHH@Z	; focusFontId

; 4896 : 			selgraId = focusGraId(graId, sizeof(graId) / sizeof(int));

  000b0	6a 01		 push	 1
  000b2	68 00 00 00 00	 push	 OFFSET ?graId@?1??joinChannelWN@@YAXXZ@4PAHA
  000b7	8b d8		 mov	 ebx, eax
  000b9	e8 00 00 00 00	 call	 ?focusGraId@@YAHPAHH@Z	; focusGraId
  000be	83 c4 10	 add	 esp, 16			; 00000010H
  000c1	89 85 b8 fb ff
	ff		 mov	 DWORD PTR _selgraId$1$[ebp], eax

; 4897 : 
; 4898 : 			if (mouse.onceState & MOUSE_LEFT_CRICK)

  000c7	f6 05 2c 00 00
	00 01		 test	 BYTE PTR ?mouse@@3UMOUSE@@A+44, 1
  000ce	0f 84 60 01 00
	00		 je	 $LN25@joinChanne

; 4899 : 			{
; 4900 : 				if (selgraId == 0)

  000d4	85 c0		 test	 eax, eax
  000d6	75 2b		 jne	 SHORT $LN18@joinChanne

; 4901 : 				{
; 4902 : 					closeJoinChannelWN();

  000d8	e8 00 00 00 00	 call	 ?closeJoinChannelWN@@YAXXZ ; closeJoinChannelWN

; 4903 : 					play_se(203, 320, 240);

  000dd	68 f0 00 00 00	 push	 240			; 000000f0H
  000e2	68 40 01 00 00	 push	 320			; 00000140H
  000e7	68 cb 00 00 00	 push	 203			; 000000cbH
  000ec	e8 00 00 00 00	 call	 ?play_se@@YAHHHH@Z	; play_se
  000f1	83 c4 0c	 add	 esp, 12			; 0000000cH
  000f4	5b		 pop	 ebx

; 5086 : 		}
; 5087 : 	}
; 5088 : }

  000f5	8b 4d fc	 mov	 ecx, DWORD PTR __$ArrayPad$[ebp]
  000f8	33 cd		 xor	 ecx, ebp
  000fa	e8 00 00 00 00	 call	 @__security_check_cookie@4
  000ff	8b e5		 mov	 esp, ebp
  00101	5d		 pop	 ebp
  00102	c3		 ret	 0
$LN18@joinChanne:

; 4904 : 					return;
; 4905 : 				}
; 4906 : #ifndef _FM_MODIFY
; 4907 : 				switch (selId)
; 4908 : 				{
; 4909 : 				case 0:
; 4910 : 					sprintf(buf, "S|D2", selId);
; 4911 : 					break;
; 4912 : 				case 1:
; 4913 : 				case 2:
; 4914 : 				case 3:
; 4915 : 					sprintf(buf, "C|L|%d", selId);
; 4916 : 					break;
; 4917 : 				case 5:
; 4918 : #ifdef _FMVER21
; 4919 : 					if (pc.familyleader != FMMEMBER_LEADER)
; 4920 : 						return;
; 4921 : #else
; 4922 : 					if (pc.familyleader != 1)
; 4923 : 						return;
; 4924 : #endif
; 4925 : 					sprintf(buf, "C|J|5");
; 4926 : 					closeJoinChannelWN();
; 4927 : 					play_se(203, 320, 240);
; 4928 : 					break;
; 4929 : 				case 6:
; 4930 : 					sprintf(buf, "C|J|-1");
; 4931 : 					closeJoinChannelWN();
; 4932 : 					play_se(203, 320, 240);
; 4933 : 					break;
; 4934 : 				case 7:
; 4935 : 					DeathAction(ptActChannel2Win);
; 4936 : 					ptActChannel2Win = NULL;
; 4937 : 					joinChannel2Proc = 2000;
; 4938 : 					play_se(203, 320, 240);
; 4939 : 					return;
; 4940 : 				case 8:
; 4941 : 					sprintf(buf, "S|SELF");
; 4942 : 					closeJoinChannelWN();
; 4943 : 					play_se(203, 320, 240);
; 4944 : 					break;
; 4945 : 				}
; 4946 : #else
; 4947 : 				switch (selId)

  00103	83 fb 03	 cmp	 ebx, 3
  00106	0f 87 df 00 00
	00		 ja	 $LN5@joinChanne
  0010c	ff 24 9d 00 00
	00 00		 jmp	 DWORD PTR $LN55@joinChanne[ebx*4]
$LN19@joinChanne:

; 4948 : 				{
; 4949 : 				case 0:
; 4950 : 					sprintf(buf, "S|D2", selId);

  00113	6a 00		 push	 0
  00115	8d 85 bc fb ff
	ff		 lea	 eax, DWORD PTR _buf$[ebp]
  0011b	68 00 00 00 00	 push	 OFFSET ??_C@_04PNGENDLA@S?$HMD2@
  00120	50		 push	 eax
  00121	e8 00 00 00 00	 call	 _sprintf
  00126	83 c4 0c	 add	 esp, 12			; 0000000cH

; 4951 : 					break;

  00129	e9 c2 00 00 00	 jmp	 $LN54@joinChanne
$LN20@joinChanne:

; 4952 : 				case 1:
; 4953 : 					DeathAction(ptActChannel2Win);

  0012e	ff 35 00 00 00
	00		 push	 DWORD PTR ?ptActChannel2Win@@3PAUaction@@A
  00134	e8 00 00 00 00	 call	 ?DeathAction@@YAXPAUaction@@@Z ; DeathAction

; 4954 : 					ptActChannel2Win = NULL;
; 4955 : 					joinChannel2Proc = 2000;
; 4956 : 					play_se(203, 320, 240);

  00139	68 f0 00 00 00	 push	 240			; 000000f0H
  0013e	b8 d0 07 00 00	 mov	 eax, 2000		; 000007d0H
  00143	c7 05 00 00 00
	00 00 00 00 00	 mov	 DWORD PTR ?ptActChannel2Win@@3PAUaction@@A, 0
  0014d	68 40 01 00 00	 push	 320			; 00000140H
  00152	68 cb 00 00 00	 push	 203			; 000000cbH
  00157	66 a3 00 00 00
	00		 mov	 WORD PTR ?joinChannel2Proc@@3FA, ax
  0015d	e8 00 00 00 00	 call	 ?play_se@@YAHHHH@Z	; play_se
  00162	83 c4 10	 add	 esp, 16			; 00000010H
  00165	5b		 pop	 ebx

; 5086 : 		}
; 5087 : 	}
; 5088 : }

  00166	8b 4d fc	 mov	 ecx, DWORD PTR __$ArrayPad$[ebp]
  00169	33 cd		 xor	 ecx, ebp
  0016b	e8 00 00 00 00	 call	 @__security_check_cookie@4
  00170	8b e5		 mov	 esp, ebp
  00172	5d		 pop	 ebp
  00173	c3		 ret	 0
$LN21@joinChanne:

; 4957 : 					return;
; 4958 : 				case 2:
; 4959 : 					sprintf(buf, "D");

  00174	68 00 00 00 00	 push	 OFFSET ??_C@_01CKDDGHAB@D@
$LN63@joinChanne:

; 4976 : 				{
; 4977 : 					if (bNewServer)

  00179	8d 85 bc fb ff
	ff		 lea	 eax, DWORD PTR _buf$[ebp]
  0017f	50		 push	 eax
  00180	e8 00 00 00 00	 call	 _sprintf
  00185	e8 00 00 00 00	 call	 ?closeJoinChannelWN@@YAXXZ ; closeJoinChannelWN
  0018a	68 f0 00 00 00	 push	 240			; 000000f0H
  0018f	68 40 01 00 00	 push	 320			; 00000140H
  00194	68 cb 00 00 00	 push	 203			; 000000cbH
  00199	e8 00 00 00 00	 call	 ?play_se@@YAHHHH@Z	; play_se
  0019e	83 c4 14	 add	 esp, 20			; 00000014H
  001a1	eb 4d		 jmp	 SHORT $LN54@joinChanne
$LN22@joinChanne:

; 4960 : 					closeJoinChannelWN();
; 4961 : 					play_se(203, 320, 240);
; 4962 : 					break;
; 4963 : 				case 3:
; 4964 : 					sprintf(buf, "C|J|-1");

  001a3	8d 85 bc fb ff
	ff		 lea	 eax, DWORD PTR _buf$[ebp]
  001a9	68 00 00 00 00	 push	 OFFSET ??_C@_06KOPCAPBC@C?$HMJ?$HM?91@
  001ae	50		 push	 eax
  001af	e8 00 00 00 00	 call	 _sprintf
  001b4	83 c4 08	 add	 esp, 8

; 4965 : 					if (bNewServer)

  001b7	8d 85 bc fb ff
	ff		 lea	 eax, DWORD PTR _buf$[ebp]
  001bd	83 3d 00 00 00
	00 00		 cmp	 DWORD PTR ?bNewServer@@3HA, 0 ; bNewServer
  001c4	50		 push	 eax
  001c5	ff 35 00 00 00
	00		 push	 DWORD PTR ?sockfd@@3IA	; sockfd
  001cb	74 0f		 je	 SHORT $LN23@joinChanne

; 4966 : 						lssproto_FM_send(sockfd, buf);

  001cd	e8 00 00 00 00	 call	 ?lssproto_FM_send@@YAXHPAD@Z ; lssproto_FM_send

; 4969 : 					sprintf(buf, "S|SELF");

  001d2	83 c4 08	 add	 esp, 8
  001d5	68 00 00 00 00	 push	 OFFSET ??_C@_06JEJPCC@S?$HMSELF@

; 4970 : 					closeJoinChannelWN();
; 4971 : 					play_se(203, 320, 240);
; 4972 : 					break;
; 4973 : 				}
; 4974 : #endif
; 4975 : 				if (selId != -1)

  001da	eb 9d		 jmp	 SHORT $LN63@joinChanne
$LN23@joinChanne:

; 4967 : 					else
; 4968 : 						old_lssproto_FM_send(sockfd, buf);

  001dc	e8 00 00 00 00	 call	 ?old_lssproto_FM_send@@YAXHPAD@Z ; old_lssproto_FM_send

; 4969 : 					sprintf(buf, "S|SELF");

  001e1	83 c4 08	 add	 esp, 8
  001e4	68 00 00 00 00	 push	 OFFSET ??_C@_06JEJPCC@S?$HMSELF@

; 4970 : 					closeJoinChannelWN();
; 4971 : 					play_se(203, 320, 240);
; 4972 : 					break;
; 4973 : 				}
; 4974 : #endif
; 4975 : 				if (selId != -1)

  001e9	eb 8e		 jmp	 SHORT $LN63@joinChanne
$LN5@joinChanne:
  001eb	83 fb ff	 cmp	 ebx, -1
  001ee	74 44		 je	 SHORT $LN25@joinChanne
$LN54@joinChanne:

; 4976 : 				{
; 4977 : 					if (bNewServer)

  001f0	83 3d 00 00 00
	00 00		 cmp	 DWORD PTR ?bNewServer@@3HA, 0 ; bNewServer
  001f7	8d 85 bc fb ff
	ff		 lea	 eax, DWORD PTR _buf$[ebp]
  001fd	50		 push	 eax
  001fe	ff 35 00 00 00
	00		 push	 DWORD PTR ?sockfd@@3IA	; sockfd
  00204	74 17		 je	 SHORT $LN26@joinChanne

; 4978 : 						lssproto_FM_send(sockfd, buf);

  00206	e8 00 00 00 00	 call	 ?lssproto_FM_send@@YAXHPAD@Z ; lssproto_FM_send
  0020b	83 c4 08	 add	 esp, 8
  0020e	5b		 pop	 ebx

; 5086 : 		}
; 5087 : 	}
; 5088 : }

  0020f	8b 4d fc	 mov	 ecx, DWORD PTR __$ArrayPad$[ebp]
  00212	33 cd		 xor	 ecx, ebp
  00214	e8 00 00 00 00	 call	 @__security_check_cookie@4
  00219	8b e5		 mov	 esp, ebp
  0021b	5d		 pop	 ebp
  0021c	c3		 ret	 0
$LN26@joinChanne:

; 4979 : 					else
; 4980 : 						old_lssproto_FM_send(sockfd, buf);

  0021d	e8 00 00 00 00	 call	 ?old_lssproto_FM_send@@YAXHPAD@Z ; old_lssproto_FM_send
  00222	83 c4 08	 add	 esp, 8
  00225	5b		 pop	 ebx

; 5086 : 		}
; 5087 : 	}
; 5088 : }

  00226	8b 4d fc	 mov	 ecx, DWORD PTR __$ArrayPad$[ebp]
  00229	33 cd		 xor	 ecx, ebp
  0022b	e8 00 00 00 00	 call	 @__security_check_cookie@4
  00230	8b e5		 mov	 esp, ebp
  00232	5d		 pop	 ebp
  00233	c3		 ret	 0
$LN25@joinChanne:

; 4986 : 			for (i = 0; i < (int)(16 - strlen(pc.familyName)) / 2; i++)

  00234	b9 f6 50 00 00	 mov	 ecx, OFFSET ?pc@@3UPC@@A+20726
  00239	c6 45 bc 00	 mov	 BYTE PTR _buf2$[ebp], 0
  0023d	8d 51 01	 lea	 edx, DWORD PTR [ecx+1]
$LL56@joinChanne:
  00240	8a 01		 mov	 al, BYTE PTR [ecx]
  00242	41		 inc	 ecx
  00243	84 c0		 test	 al, al
  00245	75 f9		 jne	 SHORT $LL56@joinChanne
  00247	2b ca		 sub	 ecx, edx
  00249	b8 10 00 00 00	 mov	 eax, 16			; 00000010H
  0024e	2b c1		 sub	 eax, ecx
  00250	99		 cdq
  00251	2b c2		 sub	 eax, edx
  00253	8b d0		 mov	 edx, eax
  00255	d1 fa		 sar	 edx, 1
  00257	56		 push	 esi
  00258	57		 push	 edi
  00259	85 d2		 test	 edx, edx
  0025b	7e 1d		 jle	 SHORT $LN8@joinChanne

; 4981 : 					return;
; 4982 : 				}
; 4983 : 			}
; 4984 : 
; 4985 : 			strcpy(buf2, "");

  0025d	66 8b 0d 00 00
	00 00		 mov	 cx, WORD PTR ??_C@_01CLKCMJKC@?5@
$LL9@joinChanne:

; 4987 : 				strcat(buf2, " ");

  00264	8d 7d bc	 lea	 edi, DWORD PTR _buf2$[ebp]
  00267	4f		 dec	 edi
$LL57@joinChanne:
  00268	8a 47 01	 mov	 al, BYTE PTR [edi+1]
  0026b	8d 7f 01	 lea	 edi, DWORD PTR [edi+1]
  0026e	84 c0		 test	 al, al
  00270	75 f6		 jne	 SHORT $LL57@joinChanne
  00272	66 89 0f	 mov	 WORD PTR [edi], cx
  00275	83 ea 01	 sub	 edx, 1
  00278	75 ea		 jne	 SHORT $LL9@joinChanne
$LN8@joinChanne:

; 4988 : 			strcat(buf2, pc.familyName);

  0027a	ba f6 50 00 00	 mov	 edx, OFFSET ?pc@@3UPC@@A+20726
  0027f	8b f2		 mov	 esi, edx
$LL58@joinChanne:
  00281	8a 02		 mov	 al, BYTE PTR [edx]
  00283	42		 inc	 edx
  00284	84 c0		 test	 al, al
  00286	75 f9		 jne	 SHORT $LL58@joinChanne
  00288	8d 7d bc	 lea	 edi, DWORD PTR _buf2$[ebp]
  0028b	2b d6		 sub	 edx, esi
  0028d	4f		 dec	 edi
  0028e	66 90		 npad	 2
$LL59@joinChanne:
  00290	8a 47 01	 mov	 al, BYTE PTR [edi+1]
  00293	47		 inc	 edi
  00294	84 c0		 test	 al, al
  00296	75 f8		 jne	 SHORT $LL59@joinChanne
  00298	8b ca		 mov	 ecx, edx

; 4989 : 
; 4990 : #ifndef _FM_MODIFY
; 4991 : 			btnId[8] = StockFontBuffer(x + 7, y + 30, FONT_PRIO_FRONT, FONT_PAL_GREEN, buf2, 0);
; 4992 : #else
; 4993 : 			btnId[4] = StockFontBuffer(x + 7, y + 30, FONT_PRIO_FRONT, FONT_PAL_GREEN, buf2, 0);

  0029a	8d 45 bc	 lea	 eax, DWORD PTR _buf2$[ebp]
  0029d	c1 e9 02	 shr	 ecx, 2
  002a0	f3 a5		 rep movsd
  002a2	6a 00		 push	 0
  002a4	50		 push	 eax
  002a5	6a 05		 push	 5
  002a7	8b ca		 mov	 ecx, edx
  002a9	6a 01		 push	 1
  002ab	83 e1 03	 and	 ecx, 3
  002ae	6a 3c		 push	 60			; 0000003cH
  002b0	f3 a4		 rep movsb
  002b2	6a 1b		 push	 27			; 0000001bH
  002b4	e8 00 00 00 00	 call	 ?StockFontBuffer@@YAHHHDHPADH@Z ; StockFontBuffer

; 4994 : 			btnId[2] = StockFontBuffer(x + 25, y + 65 + 36 * 2, FONT_PRIO_FRONT, FONT_PAL_WHITE, channelName[2], 2);

  002b9	6a 02		 push	 2
  002bb	68 28 00 00 00	 push	 OFFSET ?channelName@@3PAY0BE@DA+40
  002c0	6a 00		 push	 0
  002c2	6a 01		 push	 1
  002c4	68 a7 00 00 00	 push	 167			; 000000a7H
  002c9	6a 2d		 push	 45			; 0000002dH
  002cb	a3 10 00 00 00	 mov	 DWORD PTR ?btnId@?1??joinChannelWN@@YAXXZ@4PAHA+16, eax
  002d0	e8 00 00 00 00	 call	 ?StockFontBuffer@@YAHHHDHPADH@Z ; StockFontBuffer

; 4995 : #endif
; 4996 : 			btnId[0] = StockFontBuffer(x + 25, y + 65, FONT_PRIO_FRONT, FONT_PAL_WHITE, channelName[0], 2);

  002d5	6a 02		 push	 2
  002d7	68 00 00 00 00	 push	 OFFSET ?channelName@@3PAY0BE@DA ; channelName
  002dc	6a 00		 push	 0
  002de	6a 01		 push	 1
  002e0	6a 5f		 push	 95			; 0000005fH
  002e2	6a 2d		 push	 45			; 0000002dH
  002e4	a3 08 00 00 00	 mov	 DWORD PTR ?btnId@?1??joinChannelWN@@YAXXZ@4PAHA+8, eax
  002e9	e8 00 00 00 00	 call	 ?StockFontBuffer@@YAHHHDHPADH@Z ; StockFontBuffer
  002ee	83 c4 48	 add	 esp, 72			; 00000048H
  002f1	a3 00 00 00 00	 mov	 DWORD PTR ?btnId@?1??joinChannelWN@@YAXXZ@4PAHA, eax

; 4997 : 
; 4998 : #ifndef _FM_MODIFY
; 4999 : 			for (i = 1; i < 4; i++)
; 5000 : 			{
; 5001 : 				if (pc.channel == i)
; 5002 : 					btnId[i] = StockFontBuffer(x + 25, y + 65 + 36 * i, FONT_PRIO_FRONT, FONT_PAL_YELLOW, channelName[i], 2);
; 5003 : 				else
; 5004 : 					btnId[i] = StockFontBuffer(x + 25, y + 65 + 36 * i, FONT_PRIO_FRONT, FONT_PAL_WHITE, channelName[i], 2);
; 5005 : 			}
; 5006 : 			btnId[6] = StockFontBuffer(x + 25, y + 65 + 36 * 4, FONT_PRIO_FRONT, FONT_PAL_WHITE, channelName[6], 2);
; 5007 : #endif
; 5008 : #ifdef _FMVER21
; 5009 : 			// shan add		
; 5010 : 			if (pc.familyleader == FMMEMBER_LEADER || pc.familyleader == FMMEMBER_ELDER)

  002f6	a1 08 51 00 00	 mov	 eax, DWORD PTR ?pc@@3UPC@@A+20744
  002fb	5f		 pop	 edi
  002fc	5e		 pop	 esi
  002fd	83 f8 03	 cmp	 eax, 3
  00300	74 27		 je	 SHORT $LN30@joinChanne
  00302	83 f8 04	 cmp	 eax, 4
  00305	74 22		 je	 SHORT $LN30@joinChanne

; 5023 : 			}
; 5024 : 			else
; 5025 : 			{
; 5026 : 				btnId[1] = StockFontBuffer(x + 25, y + 65 + 36, FONT_PRIO_FRONT, FONT_PAL_GRAY, channelName[1], 0);

  00307	6a 00		 push	 0
  00309	68 14 00 00 00	 push	 OFFSET ?channelName@@3PAY0BE@DA+20
  0030e	6a 07		 push	 7
  00310	6a 01		 push	 1
  00312	68 83 00 00 00	 push	 131			; 00000083H
  00317	6a 2d		 push	 45			; 0000002dH
  00319	e8 00 00 00 00	 call	 ?StockFontBuffer@@YAHHHDHPADH@Z ; StockFontBuffer

; 5027 : 				btnId[3] = StockFontBuffer(x + 25, y + 65 + 36 * 3, FONT_PRIO_FRONT, FONT_PAL_GRAY, channelName[3], 0);

  0031e	6a 00		 push	 0
  00320	68 3c 00 00 00	 push	 OFFSET ?channelName@@3PAY0BE@DA+60
  00325	6a 07		 push	 7
  00327	eb 20		 jmp	 SHORT $LN64@joinChanne
$LN30@joinChanne:

; 5011 : #else
; 5012 : 			if (pc.familyleader == 1)
; 5013 : #endif
; 5014 : #ifndef _FM_MODIFY
; 5015 : 				btnId[7] = StockFontBuffer(x + 25, y + 65 + 36 * 5, FONT_PRIO_FRONT, FONT_PAL_WHITE, channelName[7], 2);
; 5016 : 			else
; 5017 : 				btnId[7] = StockFontBuffer(x + 25, y + 65 + 36 * 5, FONT_PRIO_FRONT, FONT_PAL_GRAY, channelName[7], 0);
; 5018 : 			graId[0] = StockDispBuffer(x + 65, y + 13 + 320, DISP_PRIO_IME3, CG_CLOSE_BTN, 2);
; 5019 : #else
; 5020 : 			{
; 5021 : 				btnId[1] = StockFontBuffer(x + 25, y + 65 + 36, FONT_PRIO_FRONT, FONT_PAL_WHITE, channelName[1], 2);

  00329	6a 02		 push	 2
  0032b	68 14 00 00 00	 push	 OFFSET ?channelName@@3PAY0BE@DA+20
  00330	6a 00		 push	 0
  00332	6a 01		 push	 1
  00334	68 83 00 00 00	 push	 131			; 00000083H
  00339	6a 2d		 push	 45			; 0000002dH
  0033b	e8 00 00 00 00	 call	 ?StockFontBuffer@@YAHHHDHPADH@Z ; StockFontBuffer

; 5022 : 				btnId[3] = StockFontBuffer(x + 25, y + 65 + 36 * 3, FONT_PRIO_FRONT, FONT_PAL_WHITE, channelName[3], 2);

  00340	6a 02		 push	 2
  00342	68 3c 00 00 00	 push	 OFFSET ?channelName@@3PAY0BE@DA+60
  00347	6a 00		 push	 0
$LN64@joinChanne:

; 5028 : 			}
; 5029 : 			graId[0] = StockDispBuffer(x + 65, y + 13 + 200, DISP_PRIO_IME3, CG_CLOSE_BTN, 2);

  00349	6a 01		 push	 1
  0034b	68 cb 00 00 00	 push	 203			; 000000cbH
  00350	6a 2d		 push	 45			; 0000002dH
  00352	a3 04 00 00 00	 mov	 DWORD PTR ?btnId@?1??joinChannelWN@@YAXXZ@4PAHA+4, eax
  00357	e8 00 00 00 00	 call	 ?StockFontBuffer@@YAHHHDHPADH@Z ; StockFontBuffer
  0035c	83 c4 30	 add	 esp, 48			; 00000030H
  0035f	a3 0c 00 00 00	 mov	 DWORD PTR ?btnId@?1??joinChannelWN@@YAXXZ@4PAHA+12, eax
  00364	6a 02		 push	 2
  00366	68 ba 65 00 00	 push	 26042			; 000065baH
  0036b	6a 69		 push	 105			; 00000069H
  0036d	68 f3 00 00 00	 push	 243			; 000000f3H
  00372	6a 55		 push	 85			; 00000055H
  00374	e8 00 00 00 00	 call	 ?StockDispBuffer@@YAHHHEHH@Z ; StockDispBuffer
  00379	83 c4 14	 add	 esp, 20			; 00000014H
  0037c	a3 00 00 00 00	 mov	 DWORD PTR ?graId@?1??joinChannelWN@@YAXXZ@4PAHA, eax

; 5030 : #endif
; 5031 : 
; 5032 : #ifndef _FM_MODIFY
; 5033 : 			switch (selId)
; 5034 : 			{
; 5035 : 			case 0:
; 5036 : 				ShowBottomLineString(FONT_PAL_WHITE, "ë¶ì¡±ì¸ë¶ì ë³´ë³´ê¸°ã");
; 5037 : 				break;
; 5038 : 			case 1:
; 5039 : 			case 2:
; 5040 : 			case 3:
; 5041 : 				if (pc.channel == selId)
; 5042 : 					sprintf(buf, "íì¬ì±ëìììµëë¤ã");
; 5043 : 				else
; 5044 : 					sprintf(buf, "íì¬ì±í ì±ëë³´ê¸°ã");
; 5045 : 				ShowBottomLineString(FONT_PAL_WHITE, buf);
; 5046 : 				break;
; 5047 : 			case 5:
; 5048 : 				ShowBottomLineString(FONT_PAL_WHITE, "ë¶ì¡±ì¥ì´ ë¶ì¡±ì ì ì²´ìê² ë°©ì¡ã");
; 5049 : 				break;
; 5050 : 			case 6:
; 5051 : 				ShowBottomLineString(FONT_PAL_WHITE, "íì¬ì±ëì¢ë£ã");
; 5052 : 				break;
; 5053 : 			case 7:
; 5054 : 				ShowBottomLineString(FONT_PAL_WHITE, "ì¶ë³µì¬ìí¹ë³ê¸°ë¥ã");
; 5055 : 				break;
; 5056 : 			default:
; 5057 : 				if (selgraId == 0)
; 5058 : 					ShowBottomLineString(FONT_PAL_WHITE, "ì±íì±ëë©ë´ììëê°ê¸°ã");
; 5059 : 				break;
; 5060 : 			}
; 5061 : #else
; 5062 : 			switch (selId)

  00381	83 fb 03	 cmp	 ebx, 3
  00384	77 23		 ja	 SHORT $LN35@joinChanne
  00386	ff 24 9d 00 00
	00 00		 jmp	 DWORD PTR $LN60@joinChanne[ebx*4]
$LN31@joinChanne:

; 5063 : 			{
; 5064 : 			case 0:
; 5065 : 				ShowBottomLineString(FONT_PAL_WHITE, "ê°ì¡±ì¸ë¶ì ë³´ë³´ê¸°ã");

  0038d	68 00 00 00 00	 push	 OFFSET ??_C@_0BD@CBGDDGMA@?$LA?$KB?A?$LH?$LM?$LM?$LK?N?A?$KE?$LK?$LI?$LK?$LI?$LB?b?$KB?$KD@

; 5066 : 				break;

  00392	eb 23		 jmp	 SHORT $LN65@joinChanne
$LN32@joinChanne:

; 5067 : 			case 1:
; 5068 : 				ShowBottomLineString(FONT_PAL_WHITE, "ì¶ë³µì¬ìí¹ë³íê¸°ë¥ã");

  00394	68 00 00 00 00	 push	 OFFSET ??_C@_0BF@MBHIEFGB@?C?$OA?$LK?$LJ?$LL?g?$MA?G?F?$KP?$LK?$LA?G?Q?$LB?b?$LE?I?$KB?$KD@

; 5069 : 				break;

  00399	eb 1c		 jmp	 SHORT $LN65@joinChanne
$LN33@joinChanne:

; 5070 : 			case 2:
; 5071 : 				ShowBottomLineString(FONT_PAL_WHITE, "ë¶ì¡±ê²ìíê¸°ë¥ì¬ì©ã");

  0039b	68 00 00 00 00	 push	 OFFSET ??_C@_0BF@EKJBMCBD@?$LK?N?A?$LH?$LA?T?$LN?C?F?G?$LB?b?$LE?I?$LL?g?$LP?k?$KB?$KD@

; 5072 : 				break;

  003a0	eb 15		 jmp	 SHORT $LN65@joinChanne
$LN34@joinChanne:

; 5073 : 			case 3:
; 5074 : 				ShowBottomLineString(FONT_PAL_WHITE, "ì¡±ì¥ë°©ì¡ê¸°ë¥ëê¸°ã");

  003a2	68 00 00 00 00	 push	 OFFSET ??_C@_0BD@BKOBNADD@?A?$LH?$MA?e?$LJ?f?$LM?$NL?$LB?b?$LE?I?$LC?t?$LB?b?$KB?$KD@

; 5075 : 				break;

  003a7	eb 0e		 jmp	 SHORT $LN65@joinChanne
$LN35@joinChanne:

; 5076 : 			default:
; 5077 : 				if (selgraId == 0)

  003a9	83 bd b8 fb ff
	ff 00		 cmp	 DWORD PTR _selgraId$1$[ebp], 0
  003b0	75 0f		 jne	 SHORT $LN36@joinChanne

; 5078 : 					ShowBottomLineString(FONT_PAL_WHITE, "ì±íì±ëë©ë´ììëê°ê¸°ã");

  003b2	68 00 00 00 00	 push	 OFFSET ??_C@_0BJ@MOILBLMI@?C?$KE?F?C?C?$KE?$LD?N?$LI?$NO?$LE?$LK?$LP?$KB?$LM?$KN?$LD?$KK?$LA?$KB?$LB?b?$KB?$KD@
$LN65@joinChanne:

; 5079 : 				break;
; 5080 : 			}
; 5081 : #endif
; 5082 : 			if (joinChannel2Proc == 1000)

  003b7	6a 00		 push	 0
  003b9	e8 00 00 00 00	 call	 ?ShowBottomLineString@@YAXHPAD@Z ; ShowBottomLineString
  003be	83 c4 08	 add	 esp, 8
$LN36@joinChanne:
  003c1	66 a1 00 00 00
	00		 mov	 ax, WORD PTR ?joinChannel2Proc@@3FA
  003c7	b9 e8 03 00 00	 mov	 ecx, 1000		; 000003e8H
  003cc	66 3b c1	 cmp	 ax, cx
  003cf	75 14		 jne	 SHORT $LN37@joinChanne

; 5083 : 				joinChannel2WN();

  003d1	e8 00 00 00 00	 call	 ?joinChannel2WN@@YAXXZ	; joinChannel2WN
  003d6	5b		 pop	 ebx

; 5086 : 		}
; 5087 : 	}
; 5088 : }

  003d7	8b 4d fc	 mov	 ecx, DWORD PTR __$ArrayPad$[ebp]
  003da	33 cd		 xor	 ecx, ebp
  003dc	e8 00 00 00 00	 call	 @__security_check_cookie@4
  003e1	8b e5		 mov	 esp, ebp
  003e3	5d		 pop	 ebp
  003e4	c3		 ret	 0
$LN37@joinChanne:

; 5084 : 			else if (joinChannel2Proc == 2000)

  003e5	b9 d0 07 00 00	 mov	 ecx, 2000		; 000007d0H
  003ea	66 3b c1	 cmp	 ax, cx
  003ed	75 05		 jne	 SHORT $LN61@joinChanne

; 5085 : 				leaderFuncWN();

  003ef	e8 00 00 00 00	 call	 ?leaderFuncWN@@YAXXZ	; leaderFuncWN
$LN61@joinChanne:
  003f4	5b		 pop	 ebx
$LN39@joinChanne:

; 5086 : 		}
; 5087 : 	}
; 5088 : }

  003f5	8b 4d fc	 mov	 ecx, DWORD PTR __$ArrayPad$[ebp]
  003f8	33 cd		 xor	 ecx, ebp
  003fa	e8 00 00 00 00	 call	 @__security_check_cookie@4
  003ff	8b e5		 mov	 esp, ebp
  00401	5d		 pop	 ebp
  00402	c3		 ret	 0
  00403	90		 npad	 1
$LN55@joinChanne:
  00404	00 00 00 00	 DD	 $LN19@joinChanne
  00408	00 00 00 00	 DD	 $LN20@joinChanne
  0040c	00 00 00 00	 DD	 $LN21@joinChanne
  00410	00 00 00 00	 DD	 $LN22@joinChanne
$LN60@joinChanne:
  00414	00 00 00 00	 DD	 $LN31@joinChanne
  00418	00 00 00 00	 DD	 $LN32@joinChanne
  0041c	00 00 00 00	 DD	 $LN33@joinChanne
  00420	00 00 00 00	 DD	 $LN34@joinChanne
?joinChannelWN@@YAXXZ ENDP				; joinChannelWN
_TEXT	ENDS
; Function compile flags: /Ogtp
; File \\VBOXSVR\_stoneage\repos\ssm-sacli\system\field.cpp
;	COMDAT ?initJoinChannelWN@@YAXXZ
_TEXT	SEGMENT
?initJoinChannelWN@@YAXXZ PROC				; initJoinChannelWN, COMDAT

; 4815 : 	channelWNFlag = 1;

  00000	b8 01 00 00 00	 mov	 eax, 1
  00005	66 a3 00 00 00
	00		 mov	 WORD PTR ?channelWNFlag@@3FA, ax ; channelWNFlag

; 4816 : 	//joinChannelProc = 1000;
; 4817 : }

  0000b	c3		 ret	 0
?initJoinChannelWN@@YAXXZ ENDP				; initJoinChannelWN
_TEXT	ENDS
; Function compile flags: /Ogtp
; File \\VBOXSVR\_stoneage\repos\ssm-sacli\system\field.cpp
;	COMDAT ?etcSwitch@@YAHXZ
_TEXT	SEGMENT
_msg2$ = -184						; size = 8
tv1257 = -176						; size = 4
tv1241 = -172						; size = 4
_buf$1 = -172						; size = 3
_mask$ = -168						; size = 20
_msg4$ = -148						; size = 24
_msg$ = -124						; size = 20
_pszChannel$ = -104					; size = 16
_ResoModeMsg$2 = -88					; size = 20
_iChannelSwitch$ = -84					; size = 16
_buf$3 = -68						; size = 64
__$ArrayPad$ = -4					; size = 4
?etcSwitch@@YAHXZ PROC					; etcSwitch, COMDAT

; 4197 : int etcSwitch(void) {

  00000	55		 push	 ebp
  00001	8b ec		 mov	 ebp, esp
  00003	81 ec b8 00 00
	00		 sub	 esp, 184		; 000000b8H
  00009	a1 00 00 00 00	 mov	 eax, DWORD PTR ___security_cookie
  0000e	33 c5		 xor	 eax, ebp
  00010	89 45 fc	 mov	 DWORD PTR __$ArrayPad$[ebp], eax

; 4198 : 	static ACTION* ptActMenuWin = NULL;
; 4199 : #ifdef _CHANNEL_MODIFY
; 4200 : 	static ACTION* pActChannelWin = NULL;
; 4201 : 	static int iChannelbtnId[4];
; 4202 : 	FILE* pf = NULL;
; 4203 : #endif
; 4204 : 	static int x, y, w, h;
; 4205 : #ifdef _AUCPROTOCOL				// (ä¸å¯å¼) Syu ADD æåé¢éå¼å³Protocol
; 4206 : 	static int btnId[6];
; 4207 : #else
; 4208 : 	static int btnId[5];
; 4209 : #endif
; 4210 : 	int id = 0;
; 4211 : 	int focusId = 0;
; 4212 : 	char* msg[] =
; 4213 : 	{
; 4214 : 		"í    í°ï¼",
; 4215 : 		"ë    ì¼ï¼",
; 4216 : 		"ëªí¨êµíï¼",
; 4217 : #ifndef _CHANNEL_MODIFY
; 4218 : 		"ì±ííê¸°ï¼",
; 4219 : #else
; 4220 : 		"ì±    ë    ë²    í¼",
; 4221 : #endif
; 4222 : 		"ê±°    ëï¼",
; 4223 : #ifdef _AUCPROTOCOL				// (ä¸å¯å¼) Syu ADD æåé¢éå¼å³Protocol
; 4224 : 		"ê²½ããë§¤ï¼",
; 4225 : #endif
; 4226 : #ifdef _NB_SetResoMode
; 4227 : 		//"í´ ì ëï¼",//5
; 4228 : #endif
; 4229 : 	};
; 4230 : 
; 4231 : 	char* msg2[] =
; 4232 : 	{
; 4233 : 		" ï¼®  ï¼¯",
; 4234 : 		" ï¼¹ï¼¥ï¼³",
; 4235 : 		//" Other"
; 4236 : 	};
; 4237 : #ifndef _CHANNEL_MODIFY
; 4238 : 	char* msg3[] =
; 4239 : 	{
; 4240 : 		" ì ì§ì",
; 4241 : 		" 5  í"
; 4242 : 	};
; 4243 : #endif
; 4244 : 	char* msg4[] =
; 4245 : 	{
; 4246 : 		"ë¤ë¥¸ì¬ëíí©ë¥ì¬ë¶ì¤ì ã",
; 4247 : 		"ë¤ë¥¸ì¬ëëì ë°ìì§ì¤ì ã",
; 4248 : 		"ëªí¨êµííì©ì¬ë¶ì¤ì ã",
; 4249 : #ifndef _CHANNEL_MODIFY
; 4250 : 		"ì±íë´ì©ìë¤ìììëë²ìì¤ì ã",
; 4251 : #else
; 4252 : 		"ê°ì±ëì¤ì ëëí´ì ã",
; 4253 : #endif
; 4254 : 		"ê±°ëìë½ì¬ë¶ì¤ì ã"
; 4255 : #ifdef _AUCPROTOCOL				// (ä¸å¯å¼) Syu ADD æåé¢éå¼å³Protocol
; 4256 : 		,
; 4257 : 		"ê²½ë§¤ì±ëë©ìì§ìì ì¬ë¶ã"
; 4258 : #endif
; 4259 : #ifdef _NB_SetResoMode
; 4260 : 		,"ê²ìì¸í°íì´ì¤í´ìëì¤ì ã"//5
; 4261 : #endif
; 4262 : 
; 4263 : 	};
; 4264 : 
; 4265 : 	int mask[] =
; 4266 : 	{
; 4267 : 		PC_ETCFLAG_PARTY,

  00013	0f 28 05 00 00
	00 00		 movaps	 xmm0, XMMWORD PTR __xmm@00000000000000100000000400000001

; 4268 : 		PC_ETCFLAG_DUEL,
; 4269 : 		PC_ETCFLAG_MAIL,
; 4270 : #ifndef _CHANNEL_MODIFY
; 4271 : 		PC_ETCFLAG_CHAT_MODE,
; 4272 : #else
; 4273 : 		0,
; 4274 : #endif
; 4275 : 		PC_ETCFLAG_TRADE
; 4276 : #ifdef _AUCPROTOCOL				// (ä¸å¯å¼) Syu ADD æåé¢éå¼å³Protocol
; 4277 : 		,PC_ETCFLAG_AUC
; 4278 : #endif
; 4279 : 
; 4280 : 	};
; 4281 : #ifdef _CHANNEL_MODIFY
; 4282 : 	char* pszChannel[] = {
; 4283 : 		"ê·ìë§",
; 4284 : 		"ê°ì¡±ë§",
; 4285 : 		"ê²½ë§¤ì±ë",
; 4286 : 		"ëíì ì¥"
; 4287 : 	};
; 4288 : 	int iChannelSwitch[] = {
; 4289 : 		PC_ETCFLAG_CHAT_TELL,
; 4290 : 		PC_ETCFLAG_CHAT_FM,
; 4291 : 		PC_ETCFLAG_CHAT_OCC,
; 4292 : 		PC_ETCFLAG_CHAT_SAVE
; 4293 : 	};
; 4294 : #endif
; 4295 : 
; 4296 : 	/*#ifdef _JOBDAILY
; 4297 : 		char *msg5[] = {
; 4298 : 			"ì¢  ë£",
; 4299 : 			"ì´ì íì´ì§",
; 4300 : 			"ë¤ìíì´ì§"
; 4301 : 		};
; 4302 : 	#endif*/
; 4303 : 
; 4304 : 	int i;
; 4305 : 	int x1, y1, x2, y2;
; 4306 : 
; 4307 : 	if (etcSwitchProcNo == 0)

  0001a	66 8b 0d 00 00
	00 00		 mov	 cx, WORD PTR ?etcSwitchProcNo@@3FA ; etcSwitchProcNo
  00021	c7 45 84 00 00
	00 00		 mov	 DWORD PTR _msg$[ebp], OFFSET ??_C@_0L@OLEDJDPG@?F?D?5?5?5?5?F?$LM?$KD?$LK@
  00028	c7 45 88 00 00
	00 00		 mov	 DWORD PTR _msg$[ebp+4], OFFSET ??_C@_0L@MAOAOHML@?$LF?$OA?5?5?5?5?$LO?s?$KD?$LK@
  0002f	c7 45 8c 00 00
	00 00		 mov	 DWORD PTR _msg$[ebp+8], OFFSET ??_C@_0L@POPIGLPO@?$LI?m?G?T?$LB?$LD?H?$KP?$KD?$LK@
  00036	c7 45 90 00 00
	00 00		 mov	 DWORD PTR _msg$[ebp+12], OFFSET ??_C@_0BF@IDENONED@?C?$KE?5?5?5?5?$LD?N?5?5?5?5?$LJ?v?5?5?5?5?F?$LA@
  0003d	c7 45 94 00 00
	00 00		 mov	 DWORD PTR _msg$[ebp+16], OFFSET ??_C@_0L@HENHCGEF@?$LA?E?5?5?5?5?$LH?$KB?$KD?$LK@
  00044	c7 85 48 ff ff
	ff 00 00 00 00	 mov	 DWORD PTR _msg2$[ebp], OFFSET ??_C@_07MIKFFMHF@?5?$KD?N?5?5?$KD?O@
  0004e	c7 85 4c ff ff
	ff 00 00 00 00	 mov	 DWORD PTR _msg2$[ebp+4], OFFSET ??_C@_07CHOGEIED@?5?$KD?Y?$KD?E?$KD?S@
  00058	c7 85 6c ff ff
	ff 00 00 00 00	 mov	 DWORD PTR _msg4$[ebp], OFFSET ??_C@_0BJ@NPLNHFNN@?$LE?Y?$LI?$KF?$LL?g?$LG?w?F?$MA?G?U?$LH?y?$LP?$KJ?$LK?N?$LM?$LD?A?$KE?$KB?$KD@
  00062	c7 85 70 ff ff
	ff 00 00 00 00	 mov	 DWORD PTR _msg4$[ebp+4], OFFSET ??_C@_0BJ@EJIPNKEA@?$LE?Y?$LI?$KF?$LL?g?$LG?w?$LF?$LF?$MA?$PM?$LJ?$NO?$MA?$LL?A?v?$LM?$LD?A?$KE?$KB?$KD@
  0006c	c7 85 74 ff ff
	ff 00 00 00 00	 mov	 DWORD PTR _msg4$[ebp+8], OFFSET ??_C@_0BH@GAKCDBLG@?$LI?m?G?T?$LB?$LD?H?$KP?G?c?$LP?k?$LP?$KJ?$LK?N?$LM?$LD?A?$KE?$KB?$KD@
  00076	c7 85 78 ff ff
	ff 00 00 00 00	 mov	 DWORD PTR _msg4$[ebp+12], OFFSET ??_C@_0BF@NLHMJPHG@?$LA?$KC?C?$KE?$LD?N?$LM?$LD?A?$KE?$LG?G?$LE?B?G?X?A?$KG?$KB?$KD@
  00080	c7 85 7c ff ff
	ff 00 00 00 00	 mov	 DWORD PTR _msg4$[ebp+16], OFFSET ??_C@_0BD@DBDDAFOG@?$LA?E?$LH?$KB?$LM?v?$LG?t?$LP?$KJ?$LK?N?$LM?$LD?A?$KE?$KB?$KD@
  0008a	c7 45 80 00 00
	00 00		 mov	 DWORD PTR _msg4$[ebp+20], OFFSET ??_C@_0BL@JJOLNGNO@?$LA?T?$MA?S?$MA?N?E?M?F?d?$MA?L?$LN?$LK?G?X?$LL?s?$LF?$LF?$LM?$LD?A?$KE?$KB?$KD@
  00091	c7 85 68 ff ff
	ff 20 00 00 00	 mov	 DWORD PTR _mask$[ebp+16], 32 ; 00000020H
  0009b	c7 45 98 00 00
	00 00		 mov	 DWORD PTR _pszChannel$[ebp], OFFSET ??_C@_06FNJBCBKN@?$LB?S?$LM?S?$LI?$LL@
  000a2	c7 45 9c 00 00
	00 00		 mov	 DWORD PTR _pszChannel$[ebp+4], OFFSET ??_C@_06IAKMCPJ@?$LA?$KB?A?$LH?$LI?$LL@
  000a9	c7 45 a0 00 00
	00 00		 mov	 DWORD PTR _pszChannel$[ebp+8], OFFSET ??_C@_08LIEPCPDK@?$LA?f?$LI?E?C?$KE?$LD?N@
  000b0	c7 45 a4 00 00
	00 00		 mov	 DWORD PTR _pszChannel$[ebp+12], OFFSET ??_C@_08DKNMBPNK@?$LE?k?H?$KN?$MA?z?$MA?e@
  000b7	0f 11 85 58 ff
	ff ff		 movups	 XMMWORD PTR _mask$[ebp], xmm0
  000be	0f 28 05 00 00
	00 00		 movaps	 xmm0, XMMWORD PTR __xmm@00000200000001000000008000000040
  000c5	0f 11 45 ac	 movups	 XMMWORD PTR _iChannelSwitch$[ebp], xmm0
  000c9	66 85 c9	 test	 cx, cx
  000cc	75 7d		 jne	 SHORT $LN124@etcSwitch

; 4308 : 	{
; 4309 : 		for (i = 0; i < sizeof(btnId) / sizeof(int); i++)
; 4310 : 			btnId[i] = -2;

  000ce	0f 28 05 00 00
	00 00		 movaps	 xmm0, XMMWORD PTR __xmm@fffffffefffffffefffffffefffffffe

; 4311 : 
; 4312 : 		// ??????î
; 4313 : 		w = 3;
; 4314 : 		h = 5;
; 4315 : 		x = 5;
; 4316 : 		//x = 440;
; 4317 : 		//y = 72;
; 4318 : 		y = 5;
; 4319 : 		ptActMenuWin = MakeWindowDisp(x, y, w, h, NULL, 1); //ptActMenuWin = MakeWindowDisp(x, y, w, h+1, NULL, 1);

  000d5	6a 01		 push	 1
  000d7	6a 00		 push	 0
  000d9	6a 05		 push	 5
  000db	6a 03		 push	 3
  000dd	6a 05		 push	 5
  000df	6a 05		 push	 5
  000e1	0f 11 05 00 00
	00 00		 movups	 XMMWORD PTR ?btnId@?1??etcSwitch@@YAHXZ@4PAHA, xmm0
  000e8	c7 05 10 00 00
	00 fe ff ff ff	 mov	 DWORD PTR ?btnId@?1??etcSwitch@@YAHXZ@4PAHA+16, -2 ; fffffffeH
  000f2	c7 05 00 00 00
	00 03 00 00 00	 mov	 DWORD PTR ?w@?1??etcSwitch@@YAHXZ@4HA, 3
  000fc	c7 05 00 00 00
	00 05 00 00 00	 mov	 DWORD PTR ?h@?1??etcSwitch@@YAHXZ@4HA, 5
  00106	c7 05 00 00 00
	00 05 00 00 00	 mov	 DWORD PTR ?x@?1??etcSwitch@@YAHXZ@4HA, 5
  00110	c7 05 00 00 00
	00 05 00 00 00	 mov	 DWORD PTR ?y@?1??etcSwitch@@YAHXZ@4HA, 5
  0011a	e8 00 00 00 00	 call	 ?MakeWindowDisp@@YAPAUaction@@HHHHHH@Z ; MakeWindowDisp
  0011f	83 c4 18	 add	 esp, 24			; 00000018H
  00122	a3 00 00 00 00	 mov	 DWORD PTR ?ptActMenuWin@?1??etcSwitch@@YAHXZ@4PAUaction@@A, eax

; 4320 : #ifdef _NEW_RESOMODE  //800 600æ¨¡å¼
; 4321 : 		x = ptActMenuWin->x;

  00127	8b 48 18	 mov	 ecx, DWORD PTR [eax+24]
  0012a	89 0d 00 00 00
	00		 mov	 DWORD PTR ?x@?1??etcSwitch@@YAHXZ@4HA, ecx

; 4322 : 		y = ptActMenuWin->y;

  00130	8b 48 1c	 mov	 ecx, DWORD PTR [eax+28]
  00133	89 0d 00 00 00
	00		 mov	 DWORD PTR ?y@?1??etcSwitch@@YAHXZ@4HA, ecx

; 4323 : #endif
; 4324 : 		etcSwitchProcNo++;

  00139	66 8b 0d 00 00
	00 00		 mov	 cx, WORD PTR ?etcSwitchProcNo@@3FA ; etcSwitchProcNo
  00140	66 41		 inc	 cx
  00142	66 89 0d 00 00
	00 00		 mov	 WORD PTR ?etcSwitchProcNo@@3FA, cx ; etcSwitchProcNo
  00149	eb 05		 jmp	 SHORT $LN19@etcSwitch
$LN124@etcSwitch:

; 4268 : 		PC_ETCFLAG_DUEL,
; 4269 : 		PC_ETCFLAG_MAIL,
; 4270 : #ifndef _CHANNEL_MODIFY
; 4271 : 		PC_ETCFLAG_CHAT_MODE,
; 4272 : #else
; 4273 : 		0,
; 4274 : #endif
; 4275 : 		PC_ETCFLAG_TRADE
; 4276 : #ifdef _AUCPROTOCOL				// (ä¸å¯å¼) Syu ADD æåé¢éå¼å³Protocol
; 4277 : 		,PC_ETCFLAG_AUC
; 4278 : #endif
; 4279 : 
; 4280 : 	};
; 4281 : #ifdef _CHANNEL_MODIFY
; 4282 : 	char* pszChannel[] = {
; 4283 : 		"ê·ìë§",
; 4284 : 		"ê°ì¡±ë§",
; 4285 : 		"ê²½ë§¤ì±ë",
; 4286 : 		"ëíì ì¥"
; 4287 : 	};
; 4288 : 	int iChannelSwitch[] = {
; 4289 : 		PC_ETCFLAG_CHAT_TELL,
; 4290 : 		PC_ETCFLAG_CHAT_FM,
; 4291 : 		PC_ETCFLAG_CHAT_OCC,
; 4292 : 		PC_ETCFLAG_CHAT_SAVE
; 4293 : 	};
; 4294 : #endif
; 4295 : 
; 4296 : 	/*#ifdef _JOBDAILY
; 4297 : 		char *msg5[] = {
; 4298 : 			"ì¢  ë£",
; 4299 : 			"ì´ì íì´ì§",
; 4300 : 			"ë¤ìíì´ì§"
; 4301 : 		};
; 4302 : 	#endif*/
; 4303 : 
; 4304 : 	int i;
; 4305 : 	int x1, y1, x2, y2;
; 4306 : 
; 4307 : 	if (etcSwitchProcNo == 0)

  0014b	a1 00 00 00 00	 mov	 eax, DWORD PTR ?ptActMenuWin@?1??etcSwitch@@YAHXZ@4PAUaction@@A
$LN19@etcSwitch:

; 4325 : 	}
; 4326 : #ifdef _CHANNEL_MODIFY
; 4327 : 	// [ì±ë ìëì° ì¤ìì¹]
; 4328 : 	if (etcSwitchProcNo == 100)

  00150	66 83 f9 64	 cmp	 cx, 100			; 00000064H
  00154	75 52		 jne	 SHORT $LN125@etcSwitch

; 4329 : 	{
; 4330 : 		w = 3;
; 4331 : 		h = 4;
; 4332 : 		x = 16;
; 4333 : 		y = 16;
; 4334 : 		pActChannelWin = MakeWindowDisp(x, y, w, h, NULL, 1);

  00156	6a 01		 push	 1
  00158	6a 00		 push	 0
  0015a	6a 04		 push	 4
  0015c	6a 03		 push	 3
  0015e	6a 10		 push	 16			; 00000010H
  00160	6a 10		 push	 16			; 00000010H
  00162	c7 05 00 00 00
	00 03 00 00 00	 mov	 DWORD PTR ?w@?1??etcSwitch@@YAHXZ@4HA, 3
  0016c	c7 05 00 00 00
	00 04 00 00 00	 mov	 DWORD PTR ?h@?1??etcSwitch@@YAHXZ@4HA, 4
  00176	c7 05 00 00 00
	00 10 00 00 00	 mov	 DWORD PTR ?x@?1??etcSwitch@@YAHXZ@4HA, 16 ; 00000010H
  00180	c7 05 00 00 00
	00 10 00 00 00	 mov	 DWORD PTR ?y@?1??etcSwitch@@YAHXZ@4HA, 16 ; 00000010H
  0018a	e8 00 00 00 00	 call	 ?MakeWindowDisp@@YAPAUaction@@HHHHHH@Z ; MakeWindowDisp
  0018f	8b c8		 mov	 ecx, eax
  00191	83 c4 18	 add	 esp, 24			; 00000018H

; 4335 : 		etcSwitchProcNo++;

  00194	66 ff 05 00 00
	00 00		 inc	 WORD PTR ?etcSwitchProcNo@@3FA ; etcSwitchProcNo
  0019b	a1 00 00 00 00	 mov	 eax, DWORD PTR ?ptActMenuWin@?1??etcSwitch@@YAHXZ@4PAUaction@@A
  001a0	89 0d 00 00 00
	00		 mov	 DWORD PTR ?pActChannelWin@?1??etcSwitch@@YAHXZ@4PAUaction@@A, ecx
  001a6	eb 06		 jmp	 SHORT $LN20@etcSwitch
$LN125@etcSwitch:

; 4325 : 	}
; 4326 : #ifdef _CHANNEL_MODIFY
; 4327 : 	// [ì±ë ìëì° ì¤ìì¹]
; 4328 : 	if (etcSwitchProcNo == 100)

  001a8	8b 0d 00 00 00
	00		 mov	 ecx, DWORD PTR ?pActChannelWin@?1??etcSwitch@@YAHXZ@4PAUaction@@A
$LN20@etcSwitch:
  001ae	53		 push	 ebx
  001af	56		 push	 esi
  001b0	57		 push	 edi

; 4336 : 	}
; 4337 : 
; 4338 : 	if (pActChannelWin != NULL)

  001b1	85 c9		 test	 ecx, ecx
  001b3	0f 84 1b 03 00
	00		 je	 $LN11@etcSwitch

; 4339 : 	{
; 4340 : 		id = -1;
; 4341 : 		focusId = -1;
; 4342 : 		if (pActChannelWin->hp >= 1)

  001b9	83 79 78 01	 cmp	 DWORD PTR [ecx+120], 1
  001bd	0f 8c 11 03 00
	00		 jl	 $LN11@etcSwitch

; 4343 : 		{
; 4344 : 			id = selGraId(iChannelbtnId, sizeof(iChannelbtnId) / sizeof(int));

  001c3	6a 04		 push	 4
  001c5	68 00 00 00 00	 push	 OFFSET ?iChannelbtnId@?1??etcSwitch@@YAHXZ@4PAHA
  001ca	e8 00 00 00 00	 call	 ?selGraId@@YAHPAHH@Z	; selGraId

; 4345 : 			focusId = focusGraId(iChannelbtnId, sizeof(iChannelbtnId) / sizeof(int));

  001cf	6a 04		 push	 4
  001d1	68 00 00 00 00	 push	 OFFSET ?iChannelbtnId@?1??etcSwitch@@YAHXZ@4PAHA
  001d6	8b f8		 mov	 edi, eax
  001d8	e8 00 00 00 00	 call	 ?focusGraId@@YAHPAHH@Z	; focusGraId
  001dd	83 c4 10	 add	 esp, 16			; 00000010H
  001e0	8b d8		 mov	 ebx, eax
  001e2	33 f6		 xor	 esi, esi
$LL7@etcSwitch:

; 4347 : 			{
; 4348 : 				x1 = x + 18;

  001e4	8b 15 00 00 00
	00		 mov	 edx, DWORD PTR ?x@?1??etcSwitch@@YAHXZ@4HA

; 4349 : 				y1 = y + i * 30 + 23;

  001ea	8b ce		 mov	 ecx, esi
  001ec	c1 e1 04	 shl	 ecx, 4
  001ef	83 c2 12	 add	 edx, 18			; 00000012H
  001f2	2b ce		 sub	 ecx, esi

; 4350 : 				x2 = x1 + 157;
; 4351 : 				y2 = y1 + 22;
; 4352 : 				if (MakeHitBox(x1, y1, x2, y2, DISP_PRIO_BOX2))

  001f4	6a 6b		 push	 107			; 0000006bH
  001f6	8d 0c 4d 17 00
	00 00		 lea	 ecx, DWORD PTR [ecx*2+23]
  001fd	03 0d 00 00 00
	00		 add	 ecx, DWORD PTR ?y@?1??etcSwitch@@YAHXZ@4HA
  00203	8d 41 16	 lea	 eax, DWORD PTR [ecx+22]
  00206	50		 push	 eax
  00207	8d 82 9d 00 00
	00		 lea	 eax, DWORD PTR [edx+157]
  0020d	50		 push	 eax
  0020e	51		 push	 ecx
  0020f	52		 push	 edx
  00210	e8 00 00 00 00	 call	 ?MakeHitBox@@YAHHHHHH@Z	; MakeHitBox
  00215	83 c4 14	 add	 esp, 20			; 00000014H
  00218	85 c0		 test	 eax, eax
  0021a	74 11		 je	 SHORT $LN5@etcSwitch

; 4353 : 				{
; 4354 : 					if (mouse.onceState & MOUSE_LEFT_CRICK)

  0021c	f6 05 2c 00 00
	00 01		 test	 BYTE PTR ?mouse@@3UMOUSE@@A+44, 1

; 4355 : 						id = i + 1;
; 4356 : 					focusId = i + 1;

  00223	8d 5e 01	 lea	 ebx, DWORD PTR [esi+1]
  00226	8b c3		 mov	 eax, ebx
  00228	0f 44 c7	 cmove	 eax, edi
  0022b	8b f8		 mov	 edi, eax
$LN5@etcSwitch:

; 4346 : 			for (i = 0; i < sizeof(pszChannel) / sizeof(char*); i++)

  0022d	46		 inc	 esi
  0022e	83 fe 04	 cmp	 esi, 4
  00231	72 b1		 jb	 SHORT $LL7@etcSwitch

; 4357 : 				}
; 4358 : 			}
; 4359 : 
; 4360 : 			if (CheckMenuFlag())

  00233	e8 00 00 00 00	 call	 ?CheckMenuFlag@@YAHXZ	; CheckMenuFlag
  00238	85 c0		 test	 eax, eax
  0023a	75 3e		 jne	 SHORT $LN118@etcSwitch

; 4361 : 				id = 100;
; 4362 : 			else if (((joy_trg[0] & JOY_ESC) && GetImeString() == NULL))

  0023c	f7 05 00 00 00
	00 00 00 00 80	 test	 DWORD PTR ?joy_trg@@3PAKA, -2147483648 ; 80000000H
  00246	74 09		 je	 SHORT $LN27@etcSwitch
  00248	e8 00 00 00 00	 call	 ?GetImeString@@YAPADXZ	; GetImeString
  0024d	85 c0		 test	 eax, eax
  0024f	74 12		 je	 SHORT $LN123@etcSwitch
$LN27@etcSwitch:

; 4363 : 			{
; 4364 : 				id = 100;
; 4365 : 				play_se(203, 320, 240);
; 4366 : 			}
; 4367 : 			else if (etcSwitchProcNo == 1000)

  00251	b8 e8 03 00 00	 mov	 eax, 1000		; 000003e8H
  00256	66 39 05 00 00
	00 00		 cmp	 WORD PTR ?etcSwitchProcNo@@3FA, ax ; etcSwitchProcNo
  0025d	74 1b		 je	 SHORT $LN118@etcSwitch

; 4368 : 				id = 100;
; 4369 : 
; 4370 : 			if (id == 0)

  0025f	85 ff		 test	 edi, edi
  00261	75 6c		 jne	 SHORT $LN30@etcSwitch
$LN123@etcSwitch:

; 4371 : 				play_se(203, 320, 240);

  00263	68 f0 00 00 00	 push	 240			; 000000f0H
  00268	68 40 01 00 00	 push	 320			; 00000140H
  0026d	68 cb 00 00 00	 push	 203			; 000000cbH
  00272	e8 00 00 00 00	 call	 ?play_se@@YAHHHH@Z	; play_se
  00277	83 c4 0c	 add	 esp, 12			; 0000000cH
$LN118@etcSwitch:

; 4423 : 				DeathAction(pActChannelWin);

  0027a	ff 35 00 00 00
	00		 push	 DWORD PTR ?pActChannelWin@?1??etcSwitch@@YAHXZ@4PAUaction@@A
  00280	e8 00 00 00 00	 call	 ?DeathAction@@YAXPAUaction@@@Z ; DeathAction

; 4424 : 				pActChannelWin = NULL;
; 4425 : 				if ((pf = fopen("data\\channel.dat", "w+")) == NULL)

  00285	68 00 00 00 00	 push	 OFFSET ??_C@_02CHHAKFFB@w?$CL@
  0028a	68 00 00 00 00	 push	 OFFSET ??_C@_0BB@BLGDDDEM@data?2channel?4dat@
  0028f	c7 05 00 00 00
	00 00 00 00 00	 mov	 DWORD PTR ?pActChannelWin@?1??etcSwitch@@YAHXZ@4PAUaction@@A, 0
  00299	e8 00 00 00 00	 call	 _fopen
  0029e	8b f0		 mov	 esi, eax
  002a0	83 c4 0c	 add	 esp, 12			; 0000000cH
  002a3	85 f6		 test	 esi, esi
  002a5	0f 85 2d 03 00
	00		 jne	 $LN47@etcSwitch

; 4426 : 					StockChatBufferLine("ì±ë ì¤ì  íì¼ ì½ê¸° ì¤í¨", FONT_PAL_RED);

  002ab	50		 push	 eax
  002ac	6a 06		 push	 6
  002ae	68 00 00 00 00	 push	 OFFSET ??_C@_0BJ@DLFHHIDJ@?C?$KE?$LD?N?5?$LM?$LD?A?$KE?5?F?D?$MA?O?5?$MA?P?$LB?b?5?$LN?G?F?P@
  002b3	e8 00 00 00 00	 call	 ?StockChatBufferLine@@YAXPADEH@Z ; StockChatBufferLine
  002b8	83 c4 0c	 add	 esp, 12			; 0000000cH

; 4435 : 				}
; 4436 : 				return 1;

  002bb	8d 46 01	 lea	 eax, DWORD PTR [esi+1]
  002be	5f		 pop	 edi

; 4591 : 			}
; 4592 : 		}
; 4593 : 	}
; 4594 : 
; 4595 : 	return 0;
; 4596 : }

  002bf	5e		 pop	 esi
  002c0	5b		 pop	 ebx
  002c1	8b 4d fc	 mov	 ecx, DWORD PTR __$ArrayPad$[ebp]
  002c4	33 cd		 xor	 ecx, ebp
  002c6	e8 00 00 00 00	 call	 @__security_check_cookie@4
  002cb	8b e5		 mov	 esp, ebp
  002cd	5d		 pop	 ebp
  002ce	c3		 ret	 0
$LN30@etcSwitch:

; 4372 : 			else if (1 <= id && id <= sizeof(msg) / sizeof(char*))

  002cf	83 ff 01	 cmp	 edi, 1
  002d2	0f 8c 44 01 00
	00		 jl	 $LN32@etcSwitch
  002d8	83 ff 05	 cmp	 edi, 5
  002db	77 9d		 ja	 SHORT $LN118@etcSwitch

; 4373 : 			{
; 4374 : 				id--;
; 4375 : 				if (pc.etcFlag & iChannelSwitch[id])

  002dd	8b 74 bd a8	 mov	 esi, DWORD PTR _iChannelSwitch$[ebp+edi*4-4]
  002e1	4f		 dec	 edi
  002e2	66 8b 0d a8 00
	00 00		 mov	 cx, WORD PTR ?pc@@3UPC@@A+168
  002e9	0f b7 c6	 movzx	 eax, si
  002ec	89 85 54 ff ff
	ff		 mov	 DWORD PTR tv1241[ebp], eax
  002f2	f7 d0		 not	 eax
  002f4	0f b7 d0	 movzx	 edx, ax
  002f7	0f b7 c1	 movzx	 eax, cx
  002fa	89 b5 50 ff ff
	ff		 mov	 DWORD PTR tv1257[ebp], esi
  00300	85 c6		 test	 eax, esi
  00302	74 0f		 je	 SHORT $LN33@etcSwitch

; 4376 : 				{
; 4377 : 					pc.etcFlag &= ~iChannelSwitch[id];

  00304	66 23 ca	 and	 cx, dx

; 4378 : 					TalkMode = 0;

  00307	c7 05 00 00 00
	00 00 00 00 00	 mov	 DWORD PTR ?TalkMode@@3HA, 0 ; TalkMode

; 4379 : 				}

  00311	eb 07		 jmp	 SHORT $LN126@etcSwitch
$LN33@etcSwitch:

; 4380 : 				else
; 4381 : 					pc.etcFlag |= iChannelSwitch[id];

  00313	66 0b 8d 54 ff
	ff ff		 or	 cx, WORD PTR tv1241[ebp]
$LN126@etcSwitch:

; 4382 : 				switch (id)

  0031a	66 89 0d a8 00
	00 00		 mov	 WORD PTR ?pc@@3UPC@@A+168, cx
  00321	0f b7 c1	 movzx	 eax, cx
  00324	8b ca		 mov	 ecx, edx
  00326	0f b7 f1	 movzx	 esi, cx
  00329	83 ef 01	 sub	 edi, 1
  0032c	74 37		 je	 SHORT $LN35@etcSwitch
  0032e	83 ef 01	 sub	 edi, 1
  00331	74 1e		 je	 SHORT $LN37@etcSwitch
  00333	83 ef 01	 sub	 edi, 1
  00336	75 4e		 jne	 SHORT $LN36@etcSwitch

; 4400 : 				case 3:
; 4401 : 					if (!(pc.etcFlag & iChannelSwitch[id]))

  00338	0f b7 c0	 movzx	 eax, ax
  0033b	85 85 50 ff ff
	ff		 test	 eax, DWORD PTR tv1257[ebp]
  00341	75 43		 jne	 SHORT $LN36@etcSwitch

; 4402 : 						SaveChatData(NULL, 0, true);

  00343	6a 01		 push	 1
  00345	57		 push	 edi
  00346	57		 push	 edi
  00347	e8 00 00 00 00	 call	 ?SaveChatData@@YAXPADD_N@Z ; SaveChatData
  0034c	83 c4 0c	 add	 esp, 12			; 0000000cH
  0034f	eb 35		 jmp	 SHORT $LN36@etcSwitch
$LN37@etcSwitch:

; 4388 : 						pc.etcFlag &= ~iChannelSwitch[id];
; 4389 : 					}
; 4390 : 					break;
; 4391 : 					//2.5çå»é¤èä¸ç¸å³åè½
; 4392 : 
; 4393 : 				case 2:
; 4394 : 					if (pc.profession_class == 0)

  00351	83 3d 84 a1 00
	00 00		 cmp	 DWORD PTR ?pc@@3UPC@@A+41348, 0
  00358	75 2c		 jne	 SHORT $LN36@etcSwitch

; 4395 : 					{
; 4396 : 						StockChatBufferLine("ê³ ì©ëì§ìììµëë¤", FONT_PAL_RED);

  0035a	6a 00		 push	 0
  0035c	6a 06		 push	 6
  0035e	68 00 00 00 00	 push	 OFFSET ??_C@_0BD@JIKBMICG@?$LA?m?$LP?k?$LF?G?A?v?$LO?J?$LO?R?$LN?$MA?$LE?O?$LE?Y@

; 4397 : 						pc.etcFlag &= ~iChannelSwitch[id];
; 4398 : 					}
; 4399 : 					break;

  00363	eb 12		 jmp	 SHORT $LN127@etcSwitch
$LN35@etcSwitch:

; 4383 : 				{
; 4384 : 				case 1:
; 4385 : 					if (pc.familyleader <= 0)

  00365	83 3d 08 51 00
	00 00		 cmp	 DWORD PTR ?pc@@3UPC@@A+20744, 0
  0036c	7f 18		 jg	 SHORT $LN36@etcSwitch

; 4386 : 					{
; 4387 : 						StockChatBufferLine("ê°ì¡±ìê°ìíì§ìììµëë¤", FONT_PAL_RED);

  0036e	6a 00		 push	 0
  00370	6a 06		 push	 6
  00372	68 00 00 00 00	 push	 OFFSET ??_C@_0BJ@BCJNPCLP@?$LA?$KB?A?$LH?$LP?$KB?$LA?$KB?$MA?T?G?O?A?v?$LO?J?$LO?R?$LN?$MA?$LE?O?$LE?Y@
$LN127@etcSwitch:

; 4403 : 					break;
; 4404 : 				}
; 4405 : 				if (eventWarpSendFlag == 0 && eventEnemySendFlag == 0 && sendEnFlag == 0)

  00377	e8 00 00 00 00	 call	 ?StockChatBufferLine@@YAXPADEH@Z ; StockChatBufferLine
  0037c	83 c4 0c	 add	 esp, 12			; 0000000cH
  0037f	66 21 35 a8 00
	00 00		 and	 WORD PTR ?pc@@3UPC@@A+168, si
$LN36@etcSwitch:
  00386	66 83 3d 00 00
	00 00 00	 cmp	 WORD PTR ?eventWarpSendFlag@@3FA, 0 ; eventWarpSendFlag
  0038e	75 73		 jne	 SHORT $LN43@etcSwitch
  00390	66 83 3d 00 00
	00 00 00	 cmp	 WORD PTR ?eventEnemySendFlag@@3FA, 0 ; eventEnemySendFlag
  00398	75 69		 jne	 SHORT $LN43@etcSwitch
  0039a	66 83 3d 00 00
	00 00 00	 cmp	 WORD PTR ?sendEnFlag@@3FA, 0 ; sendEnFlag
  003a2	75 5f		 jne	 SHORT $LN43@etcSwitch

; 4406 : 				{
; 4407 : 					if (fieldBtnPushTime + FIELD_BTN_PUSH_WAIT < TimeGetTime())

  003a4	e8 00 00 00 00	 call	 ?TimeGetTime@@YAIXZ	; TimeGetTime
  003a9	8b 0d 00 00 00
	00		 mov	 ecx, DWORD PTR ?fieldBtnPushTime@@3IA ; fieldBtnPushTime
  003af	81 c1 f4 01 00
	00		 add	 ecx, 500		; 000001f4H
  003b5	3b c8		 cmp	 ecx, eax
  003b7	73 3f		 jae	 SHORT $LN42@etcSwitch

; 4408 : 					{
; 4409 : 						if (bNewServer)

  003b9	83 3d 00 00 00
	00 00		 cmp	 DWORD PTR ?bNewServer@@3HA, 0 ; bNewServer
  003c0	0f b7 05 a8 00
	00 00		 movzx	 eax, WORD PTR ?pc@@3UPC@@A+168
  003c7	50		 push	 eax
  003c8	ff 35 00 00 00
	00		 push	 DWORD PTR ?sockfd@@3IA	; sockfd
  003ce	74 14		 je	 SHORT $LN44@etcSwitch

; 4410 : 							lssproto_FS_send(sockfd, pc.etcFlag);

  003d0	e8 00 00 00 00	 call	 ?lssproto_FS_send@@YAXHH@Z ; lssproto_FS_send

; 4413 : 
; 4414 : 						fieldBtnPushTime = TimeGetTime();

  003d5	83 c4 08	 add	 esp, 8
  003d8	e8 00 00 00 00	 call	 ?TimeGetTime@@YAIXZ	; TimeGetTime
  003dd	a3 00 00 00 00	 mov	 DWORD PTR ?fieldBtnPushTime@@3IA, eax ; fieldBtnPushTime

; 4415 : 					}

  003e2	eb 1f		 jmp	 SHORT $LN43@etcSwitch
$LN44@etcSwitch:

; 4411 : 						else
; 4412 : 							old_lssproto_FS_send(sockfd, pc.etcFlag);

  003e4	e8 00 00 00 00	 call	 ?old_lssproto_FS_send@@YAXHH@Z ; old_lssproto_FS_send

; 4413 : 
; 4414 : 						fieldBtnPushTime = TimeGetTime();

  003e9	83 c4 08	 add	 esp, 8
  003ec	e8 00 00 00 00	 call	 ?TimeGetTime@@YAIXZ	; TimeGetTime
  003f1	a3 00 00 00 00	 mov	 DWORD PTR ?fieldBtnPushTime@@3IA, eax ; fieldBtnPushTime

; 4415 : 					}

  003f6	eb 0b		 jmp	 SHORT $LN43@etcSwitch
