; Listing generated by Microsoft (R) Optimizing Compiler Version 19.28.29336.0 

	TITLE	C:\Users\gg862\OneDrive\¹ÙÅÁ È­¸é\¸¾Äí¿Ï·á\Client Source Code1.31ÀÏº»\system\Help.cpp
	.686P
	.XMM
	include listing.inc
	.model	flat

INCLUDELIB LIBCMT
INCLUDELIB OLDNAMES

PUBLIC	?help_bmp@@3PAUHELPBMP@@A			; help_bmp
PUBLIC	?help_desc_1@@3PAUDESC@@A			; help_desc_1
PUBLIC	?help_desc_2@@3PAUDESC@@A			; help_desc_2
PUBLIC	?help_desc_3@@3PAUDESC@@A			; help_desc_3
PUBLIC	?help_desc_4@@3PAUDESC@@A			; help_desc_4
PUBLIC	?help_desc_5@@3PAUDESC@@A			; help_desc_5
PUBLIC	?help_desc_6@@3PAUDESC@@A			; help_desc_6
PUBLIC	?help_desc_7@@3PAUDESC@@A			; help_desc_7
PUBLIC	?help_desc_8@@3PAUDESC@@A			; help_desc_8
PUBLIC	?help_desc_9@@3PAUDESC@@A			; help_desc_9
PUBLIC	?help_desc_10@@3PAUDESC@@A			; help_desc_10
PUBLIC	?help_desc_11@@3PAUDESC@@A			; help_desc_11
PUBLIC	?help_desc_12@@3PAUDESC@@A			; help_desc_12
PUBLIC	?help_desc_13@@3PAUDESC@@A			; help_desc_13
PUBLIC	?help_desc_14@@3PAUDESC@@A			; help_desc_14
PUBLIC	?help_desc_15@@3PAUDESC@@A			; help_desc_15
PUBLIC	?help_desc_16@@3PAUDESC@@A			; help_desc_16
PUBLIC	?help_desc_17@@3PAUDESC@@A			; help_desc_17
PUBLIC	?help_desc_18@@3PAUDESC@@A			; help_desc_18
PUBLIC	?help_desc_19@@3PAUDESC@@A			; help_desc_19
PUBLIC	?help_desc_20@@3PAUDESC@@A			; help_desc_20
PUBLIC	?help_desc_21@@3PAUDESC@@A			; help_desc_21
PUBLIC	?help_desc_22@@3PAUDESC@@A			; help_desc_22
PUBLIC	?help_desc_23@@3PAUDESC@@A			; help_desc_23
PUBLIC	?help_desc_24@@3PAUDESC@@A			; help_desc_24
PUBLIC	?help_desc_25@@3PAUDESC@@A			; help_desc_25
PUBLIC	?help_desc_26@@3PAUDESC@@A			; help_desc_26
PUBLIC	?help_desc_27@@3PAUDESC@@A			; help_desc_27
PUBLIC	?help_desc_28@@3PAUDESC@@A			; help_desc_28
PUBLIC	?help_desc_29@@3PAUDESC@@A			; help_desc_29
PUBLIC	?help_desc_30@@3PAUDESC@@A			; help_desc_30
PUBLIC	?help_desc_31@@3PAUDESC@@A			; help_desc_31
PUBLIC	?help_desc_32@@3PAUDESC@@A			; help_desc_32
PUBLIC	?help_index@@3PAPAUDESC@@A			; help_index
PUBLIC	?help_page@@3PAUPAGE@@A				; help_page
PUBLIC	?help_seg@@3PAUSEG@@A				; help_seg
PUBLIC	?HelpProcNo@@3FA				; HelpProcNo
PUBLIC	?HelpMsg@@3PAY0CA@DA				; HelpMsg
PUBLIC	?jumpHelpPage@@3FA				; jumpHelpPage
PUBLIC	?jumpHelpSeg@@3FA				; jumpHelpSeg
_BSS	SEGMENT
?HelpProcNo@@3FA DW 01H DUP (?)				; HelpProcNo
	ALIGN	4

?jumpHelpPage@@3FA DW 01H DUP (?)			; jumpHelpPage
	ALIGN	4

?jumpHelpSeg@@3FA DW 01H DUP (?)			; jumpHelpSeg
_BSS	ENDS
_DATA	SEGMENT
?help_bmp@@3PAUHELPBMP@@A DW 00H			; help_bmp
	DW	00H
	DW	00H
	DW	00H
	DW	0aH
	DW	05H
	DW	06693H
	DW	00H
	DW	02cH
	DW	010H
	DW	065f5H
	DW	00H
	DW	0ffecH
	DW	010H
	DW	065f9H
	DW	00H
	DW	012H
	DW	010H
	DW	06601H
	DW	00H
	DW	0cH
	DW	010H
	DW	065f7H
	DW	00H
	DW	0aH
	DW	06H
	DW	0667aH
	DW	00H
	DW	0fff1H
	DW	0fff7H
	DW	06603H
	DW	00H
	DW	0fff7H
	DW	010H
	DW	0667dH
	DW	00H
	DW	04cH
	DW	020H
	DW	0620cH
	DW	00H
	DW	04cH
	DW	0ffecH
	DW	06214H
	DW	00H
	DW	018H
	DW	020H
	DW	0620eH
	DW	00H
	DW	018H
	DW	0ffecH
	DW	06216H
	DW	00H
	DW	0ffe4H
	DW	020H
	DW	06210H
	DW	00H
	DW	07fH
	DW	0aH
	DW	0621dH
	DW	00H
	DW	0ffe4H
	DW	0ffecH
	DW	06218H
	DW	00H
	DW	0ffb0H
	DW	020H
	DW	06212H
	DW	00H
	DW	0ffb0H
	DW	0ffecH
	DW	0621aH
	DW	00H
	DW	0ccH
	DW	014H
	DW	065ffH
	DW	00H
	DW	019H
	DW	0aH
	DW	0740eH
	DW	00H
	DW	010eH
	DW	032H
	DW	03841H
	DW	00H
	DW	028H
	DW	03cH
	DW	03843H
	DW	00H
	DW	064H
	DW	032H
	DW	03844H
	DW	00H
	DW	0140H
	DW	019H
	DW	03845H
	DW	00H
	DW	03cH
	DW	014H
	DW	05dd1H
	DW	00H
	DW	0c8H
	DW	0ff9cH
	DW	05df2H
	DW	00H
	DW	0f0H
	DW	0fefcH
	DW	06469H
	DW	00H
	DW	05aH
	DW	0ff29H
	DW	0678aH
	DW	00H
?help_desc_1@@3PAUDESC@@A DW 014H			; help_desc_1
	DB	00H
	DB	00H
	DB	00H
	DB	00H
	ORG $+59
	ORG $+1
	DW	015H
	DB	00H
	DB	00H
	DB	00H
	DB	00H
	ORG $+59
	ORG $+1
	DW	016H
	DB	00H
	DB	00H
	DB	00H
	DB	00H
	ORG $+59
	ORG $+1
	DW	017H
	DB	00H
	DB	00H
	DB	00H
	DB	00H
	ORG $+59
	ORG $+1
	DW	018H
	DB	00H
	DB	00H
	DB	00H
	DB	00H
	ORG $+59
	ORG $+1
	DW	00H
	DB	00H
	DB	00H
	DB	00H
	DB	00H
	ORG $+59
	ORG $+1
	DW	01H
	DB	00H
	DB	00H
	DB	00H
	DB	0c4H, 0f9H, 0bdH, 0baH, 0c6H, 0aeH, ' ', 0c1H, 0f8H, 0c7H
	DB	0e0H, ' ', 0bfH, 0a9H, 0baH, 0ceH, 0b8H, 0a6H, ' ', 0c8H, 0aeH
	DB	0c0H, 0ceH, ' ', 0c7H, 0cfH, 0bdH, 0c3H, 0b0H, 0daH, 0bdH, 0c0H
	DB	0b4H, 0cfH, 0b1H, 0eeH, 0a3H, 0bfH, 00H
	ORG $+21
	ORG $+1
	DW	00H
	DB	04H
	DB	01H
	DB	01fH
	DB	0c4H, 0f9H, 0bdH, 0baH, 0c6H, 0aeH, ' ', 0b8H, 0f1H, 0b7H
	DB	0cfH, ' (', 0a3H, 0c3H, 0a3H, 0ccH, 0a3H, 0c9H, 0a3H, 0c3H, 0a3H
	DB	0cbH, 0a3H, 0a1H, ')', 00H
	ORG $+33
	ORG $+1
	DW	019H
	DB	00H
	DB	00H
	DB	00H
	DB	00H
	ORG $+59
	ORG $+1
	DW	01aH
	DB	00H
	DB	00H
	DB	00H
	DB	0c4H, 0f9H, 0bdH, 0baH, 0c6H, 0aeH, ' ', 0c1H, 0a4H, 0baH
	DB	0b8H, 0b4H, 0c2H, ' ', 0c8H, 0a8H, 0c6H, 0e4H, 0c0H, 0ccH, 0c1H
	DB	0f6H, 0b8H, 0a6H, ' ', 0c2H, 0fcH, 0b0H, 0edH, ' ', 0c7H, 0d8H
	DB	0c1H, 0d6H, 0bdH, 0c3H, 0b1H, 0e2H, ' ', 0b9H, 0d9H, 0b6H, 0f8H
	DB	0b4H, 0cfH, 0b4H, 0d9H, '.', 00H
	ORG $+11
	ORG $+1
	DW	01bH
	DB	00H
	DB	00H
	DB	00H
	DB	0c8H, 0a8H, 0c6H, 0e4H, 0c0H, 0ccH, 0c1H, 0f6H, ' ', 0c1H
	DB	0d6H, 0bcH, 0d2H, 0a3H, 0baH, ' ', 0b0H, 0b3H, 0bcH, 0b3H, 0c1H
	DB	0dfH, 00H
	ORG $+37
	ORG $+1
	ORG $+2
?help_desc_2@@3PAUDESC@@A DW 00H			; help_desc_2
	DB	00H
	DB	00H
	DB	00H
	DB	'?', 0e3H, 0e6H, 0e2H, 0a2H, 0e8H, 0ccH, 0caH, 0abH, '?', 0e8H
	DB	0c7H, 0ecH, 0d1H, 0daH, 0aaH, 0f1H, 0fdH, 0fdH, 0a8H, 0a3H, 0acH
	DB	0e2H, 0cdH, 0f1H, 0bcH, 0ebH, 0f2H, 0f9H, 0bbH, 0d6H, 0aaH, 0deH
	DB	0c0H, '?', 0ecH, 0a4H, 0dbH, 0b0H, 0f8H, 0b5H, '?', 0cdH, 0edH
	DB	0a3H, 0baH, 00H
	ORG $+13
	ORG $+1
	DW	00H
	DB	00H
	DB	00H
	DB	00H
	DB	'  1.?', 0d4H, 0f5H, '?', 0eeH, 0b8H, '?', 0a3H, 0acH, '?'
	DB	'?', 0d5H, 0e1H, 0eeH, 0a4H, 0f5H, 0bdH, 0edH, 0e4H, 0ddH, 0beH
	DB	0d0H, 0ceH, 0fcH, 0c0H, '?', 0a3H, 0acH, 0ecH, 0a4H, 0dbH, 0c1H
	DB	0ceH, 0d6H, 0daH, 0aaH, 0d4H, 0f5H, '?', 00H
	ORG $+16
	ORG $+1
	DW	00H
	DB	00H
	DB	00H
	DB	00H
	DB	'    ?', 0cdH, 0d4H, 0a3H, 0acH, 0f8H, 0b6H, '?', 0f2H, 0a2H
	DB	'?', 0a3H, 0acH, '??', 0daH, 0e1H, 0d4H, 0d2H, 0faH, 0bcH, 0a1H
	DB	0a3H, 00H
	ORG $+32
	ORG $+1
	DW	00H
	DB	00H
	DB	00H
	DB	00H
	DB	'  2.', 0e5H, 0b4H, '?', 0d4H, 0e0H, 0fdH, 0a8H, '??', 0d2H
	DB	0b1H, 0ceH, 0f9H, 0d5H, 0f4H, 0dcH, 0f4H, 0f0H, 0ebH, 0a3H, 0acH
	DB	0caH, 0a6H, 0ecH, 0a4H, 0fcH, 0deH, 0f5H, 0bdH, 0edH, 0e4H, 0f1H
	DB	0e9H, 0eeH, 0dcH, '?', 0eaH, 0c2H, '?', 0f0H, 0ebH, 00H
	ORG $+14
	ORG $+1
	DW	00H
	DB	00H
	DB	00H
	DB	00H
	DB	'    ', 0a3H, 0acH, 0eeH, 0a4H, 0d4H, 0f5H, '?10', 0ecH, 0a4H
	DB	'?', 0a3H, 0acH, 0e8H, 0ccH, 0caH, 0abH, 0caH, 0a6H, 0d8H, 0f3H
	DB	'??', 0f0H, 0ebH, 0d2H, 0b1H, 0ceH, 0f9H, 0d5H, 0f4H, 0d0H, 0e0H
	DB	'?', 0d5H, 0f4H, 0a3H, 0acH, 0ecH, 0bbH, 00H
	ORG $+14
	ORG $+1
	DW	00H
	DB	00H
	DB	00H
	DB	00H
	DB	'    ?', 0daH, 0aaH, 0eeH, 0a4H, '?', 0eaH, 0c2H, 0f1H, 0e9H
	DB	'?', 0d2H, 0b1H, 0ceH, 0f9H, 0d5H, 0f4H, 0dcH, 0f4H, 0f9H, 0daH
	DB	0d4H, 0f5H, '?', 0d0H, 0b3H, '?', 0d8H, 0f3H, '?', 0a1H, 0a3H, 00H
	ORG $+23
	ORG $+1
	DW	00H
	DB	00H
	DB	00H
	DB	00H
	DB	'  3.?', 0d4H, 0e0H, '?', 0e1H, 0d6H, 0fdH, 0a8H, 0caH, 0a6H
	DB	0ecH, 0a4H, '?', 0cfH, 0f5H, 0d4H, 0f0H, 0d3H, 0f0H, 0ceH, 0d6H
	DB	0daH, 0aaH, 0eeH, 0dcH, 0ebH, 0bfH, 0a3H, 0acH, '?', 0deH, 0c1H
	DB	0ebH, 0bfH, 0caH, 0a6H, 0ecH, 0a4H, 0e9H, 0c4H, '?', 00H
	ORG $+14
	ORG $+1
	DW	00H
	DB	00H
	DB	00H
	DB	00H
	DB	'    ?', 0d2H, 0b1H, 0ceH, 0f9H, 0d5H, 0f4H, 0a3H, 0acH, 0fbH
	DB	0e4H, 0edH, 0baH, 0caH, 0a6H, 0ecH, 0a4H, '?', 0fcH, 0deH, 0f5H
	DB	0bdH, 0d3H, 0f0H, 0ebH, 0bfH, 0efH, 0c1H, '?', 0f5H, 0f3H, 0a3H
	DB	0acH, 0ecH, 0a4H, '?', 0f6H, 0a2H, 0e0H, 0b4H, '?', 00H
	ORG $+14
	ORG $+1
	DW	00H
	DB	00H
	DB	00H
	DB	00H
	DB	'    ', 0a1H, 0a3H, 00H
	ORG $+53
	ORG $+1
	DW	00H
	DB	00H
	DB	00H
	DB	00H
	DB	'  4.', 0e5H, 0b4H, 0e8H, 0ccH, 0caH, 0abH, '?', 0d4H, 0e0H
	DB	0e8H, 0c7H, 0f1H, 0fdH, 0fdH, 0a8H, 0dfH, 0ccH, 0e9H, 0a9H, 0fcH
	DB	0deH, 0f5H, 0bdH, 0ecH, 0bbH, 0dcH, 0f4H, 0f2H, 0b1H, 0d4H, 0b3H
	DB	0d6H, 0d8H, 0a3H, 0acH, 0f1H, 0feH, 0e9H, 0a9H, 0d4H, 0f4H, 0f5H
	DB	0f3H, 0f6H, 0a6H, 00H
	ORG $+10
	ORG $+1
	DW	00H
	DB	00H
	DB	00H
	DB	00H
	DB	'    ??', 0dfH, 0beH, 0fcH, 0deH, 0d3H, 0f0H, 0f5H, 0f3H, 0dfH
	DB	0e6H, 0f2H, 0a2H, 0eeH, 0dcH, 0f5H, 0bdH, '?', 0caH, 0abH, 0a1H
	DB	0a3H, 00H
	ORG $+32
	ORG $+1
	DW	00H
	DB	00H
	DB	00H
	DB	00H
	DB	'  5.?', 0e8H, 0ccH, 0caH, 0abH, 0e3H, 0aeH, '?', 0fdH, 0a8H
	DB	0a3H, 0acH, '??', 0eaH, 0f3H, ' 3', 0efH, 0c3H, 0eeH, 0dcH, 0efH
	DB	0c3H, '?', 0caH, 0a6H, 0ecH, 0a4H, 0edH, 0bbH, 0ebH, 0a6H, 0ddH
	DB	0c2H, 0dbH, 0d5H, 0caH, 0a5H, 0eeH, 0a4H, 00H
	ORG $+14
	ORG $+1
	DW	00H
	DB	00H
	DB	00H
	DB	00H
	DB	'    ?', 0d5H, 0f4H, 0a1H, 0a2H, 0e8H, 0d3H, 0d5H, 0f4H, 0a1H
	DB	0a2H, 0d2H, 0b1H, 0d5H, 0f4H, 0d0H, 0e0H, 0e1H, 0dcH, 0d3H, 0f8H
	DB	0a3H, 0acH, ' 1', 0efH, 0c3H, '?', 0d5H, 0f4H, 0d3H, 0dbH, 0f8H
	DB	0faH, ' 4', 0efH, 0c3H, 0eeH, 0dcH, 0d2H, 0b1H, 0ceH, 0f9H, 00H
	ORG $+11
	ORG $+1
	DW	00H
	DB	00H
	DB	00H
	DB	00H
	DB	'    ', 0d5H, 0f4H, 0a3H, 0acH, ' 1', 0efH, 0c3H, 0e8H, 0d3H
	DB	0d5H, 0f4H, 0d3H, 0dbH, 0f8H, 0faH, ' 1', 0efH, 0c3H, 0cdH, 0f4H
	DB	'?', 0d5H, 0f4H, 0a3H, 0acH, ' 1', 0efH, 0c3H, 0d2H, 0b1H, 0d5H
	DB	0f4H, 0d3H, 0dbH, 0f8H, 0faH, ' 1', 0efH, 0c3H, 0dbH, 0c1H, 00H
	ORG $+10
	ORG $+1
	DW	00H
	DB	00H
	DB	00H
	DB	00H
	DB	'    ', 0e5H, 0d9H, 0d5H, 0f4H, 0a3H, 0acH, ' 1', 0efH, 0c3H
	DB	0e1H, 0dcH, 0d3H, 0f8H, 0d3H, 0dbH, 0f8H, 0faH, ' 1', 0efH, 0c3H
	DB	0daH, 0c2H, 0f4H, 0dfH, 0d5H, 0f4H, 0a1H, 0a3H, 00H
	ORG $+25
	ORG $+1
	DW	00H
	DB	00H
	DB	00H
	DB	00H
	DB	'  6.?', 0e2H, 0cdH, 0e9H, 0a9H, 0deH, 0c5H, 0e9H, 0c4H, 0ebH
	DB	0bfH, '??', 0d2H, 0b1H, 0ceH, 0f9H, 0d5H, 0f4H, '?', 0a3H, 0acH
	DB	'?', 0f6H, 0e8H, '?', 0daH, 0aaH, 0f9H, 0a1H, '?', 0a3H, 0acH, 0eeH
	DB	0a4H, 0ebH, 0bfH, 0dfH, 0beH, 00H
	ORG $+16
	ORG $+1
	DW	00H
	DB	00H
	DB	00H
	DB	00H
	DB	'    ?', 0e4H, 0ceH, 0fcH, 0c1H, 0e0H, 0a9H, 0f1H, 0a7H, '?'
	DB	' 2', 0f9H, 0bbH, 0a3H, 0acH, 0eeH, 0a4H, 0efH, 0c3H, '?', 0e2H
	DB	0cdH, 0e9H, 0a9H, '?', 0d2H, 0b1H, 0ceH, 0f9H, 0d5H, 0f4H, 0eeH
	DB	0dcH, '?', 0dfH, 0daH, '?', 0caH, 0a6H, 00H
	ORG $+15
	ORG $+1
	DW	00H
	DB	00H
	DB	00H
	DB	00H
	DB	'    ', 0a1H, 0a3H, 00H
	ORG $+53
	ORG $+1
	ORG $+4
?help_desc_3@@3PAUDESC@@A DW 01H			; help_desc_3
	DB	00H
	DB	00H
	DB	09H
	DB	'1.?', 0e9H, 0cdH, 0eaH, 0fdH, '?', 0d0H, 0f1H, 0dcH, 0e2H
	DB	0f0H, 0c3H, 0edH, 0c2H, 00H
	ORG $+43
	ORG $+1
	DW	01H
	DB	00H
	DB	00H
	DB	0aH
	DB	'2.?', 0e9H, 0cdH, 0cdH, 0edH, 0d2H, 0f6H, '??', 00H
	ORG $+48
	ORG $+1
	DW	01H
	DB	00H
	DB	00H
	DB	0bH
	DB	'3.?', 0e9H, 0cdH, 0eaH, 0fdH, '??', 0efH, 0d2H, '(MENU)', 00H
	ORG $+42
	ORG $+1
	ORG $+2
?help_desc_4@@3PAUDESC@@A DW 00H			; help_desc_4
	DB	04H
	DB	00H
	DB	00H
	DB	'1.?NPC', 0ceH, 0dfH, '?', 00H
	ORG $+50
	ORG $+1
	DW	00H
	DB	00H
	DB	00H
	DB	00H
	DB	'  ', 0fbH, 0faH, 0f5H, 0bdH, 0ecH, 0d1H, 0d0H, 0e0H, 0efH
	DB	0c1H, '?', 0d4H, 0f5H, ' NPC???', 0a3H, 0acH, '?', 0f3H, 0d7H, 0eeH
	DB	0a4H, 0f5H, 0bdH, 0ecH, 0d1H, 0d0H, 0e0H, 0efH, 0c1H, '?', 0d4H
	DB	0f5H, ' NPC', 00H
	ORG $+15
	ORG $+1
	DW	00H
	DB	00H
	DB	00H
	DB	00H
	DB	'  ', 0eeH, 0f1H, 0dbH, 0b0H, '?', 0d8H, 0fcH, '?', 0f6H, 0e2H
	DB	'??', 0ecH, 0fdH, 0ecH, 0f2H, 0ebH, 0f2H, 0ecH, 0e9H, 0edH, 0aeH
	DB	0eeH, 0a2H, 0e4H, 0ceH, 0f9H, 0bbH, ' ENTER?', 0a3H, 0acH, '?', 0caH
	DB	0a6H, '?', 00H
	ORG $+16
	ORG $+1
	DW	00H
	DB	00H
	DB	00H
	DB	00H
	DB	'  ', 0f5H, 0bdH, 0ecH, 0d1H, 0d0H, 0e0H, 0efH, 0c1H, '?', 0d4H
	DB	0f5H, ' NPC??', 0a1H, 0a3H, ' (', 0e5H, 0b4H, 0d9H, 0e9H, 0dbH
	DB	0f6H, 0ceH, 0dfH, '??', 0a3H, 0acH, '??', 0d6H, 0fdH, 0f4H, 0b8H
	DB	'?', 00H
	ORG $+17
	ORG $+1
	DW	00H
	DB	00H
	DB	00H
	DB	00H
	DB	'  ', 0efH, 0d2H, 0d7H, 0ecH, 0eeH, 0dcH, 0ebH, 0e5H, 0d5H
	DB	0e1H, '?', 0efH, 0d2H, '?', 0efH, 0daH, '? 5 )', 00H
	ORG $+36
	ORG $+1
	DW	00H
	DB	04H
	DB	00H
	DB	00H
	DB	'2.', 0ecH, 0e9H, 0daH, 0f5H, '??', 00H
	ORG $+51
	ORG $+1
	DW	00H
	DB	00H
	DB	00H
	DB	00H
	DB	'  ', 0e9H, 0c4H, '???', 0ecH, 0fdH, 0e9H, 0a9H, '??', 0eeH
	DB	0dcH, 0d9H, 0feH, 0edH, 0aeH, 0a3H, 0acH, '?', 0e4H, 0ceH, 0f9H
	DB	0bbH, ' ENTER?', 0a3H, 0acH, '?', 0caH, 0a6H, '?', 0ddH, 0beH, 00H
	ORG $+18
	ORG $+1
	DW	00H
	DB	00H
	DB	00H
	DB	00H
	DB	'  ', 0d0H, 0ceH, 0eeH, 0dcH, 0e8H, 0ccH, 0caH, 0abH, 0fbH
	DB	0e4H, '???', 0eeH, 0dcH, 0e8H, 0ccH, 0caH, 0abH, '??', 0a1H, 0a3H
	DB	' (', 0e5H, 0b4H, 0d9H, 0e9H, 0dbH, 0f6H, 0ceH, 0dfH, '???', 0d6H
	DB	0fdH, 0f4H, 0b8H, 00H
	ORG $+17
	ORG $+1
	DW	00H
	DB	00H
	DB	00H
	DB	00H
	DB	'  ?', 0efH, 0d2H, 0d7H, 0ecH, 0eeH, 0dcH, 0ebH, 0e5H, 0d5H
	DB	0e1H, '?', 0efH, 0d2H, '?', 0efH, 0daH, '? 5 )', 00H
	ORG $+35
	ORG $+1
	DW	00H
	DB	04H
	DB	00H
	DB	00H
	DB	'3.', 0d9H, 0a3H, 0f8H, 0b8H, 00H
	ORG $+53
	ORG $+1
	DW	00H
	DB	00H
	DB	00H
	DB	00H
	DB	'  ', 0e4H, 0ceH, 0f9H, 0bbH, '?', 0cbH, 0ecH, 0a3H, 0acH
	DB	'??', 0eeH, 0a4H, 0d9H, 0a3H, 0f8H, 0b8H, '?', 0f1H, 0e9H, 0edH
	DB	0bbH, 0d0H, 0f9H, 0e9H, 0a9H, 0ceH, 0dfH, '?', 0eeH, 0dcH, 0e8H
	DB	0ccH, 0caH, 0abH, 0a3H, 0acH, 0eeH, 0a2H, 0e4H, 0ceH, 0f9H, 0bbH
	DB	00H
	ORG $+14
	ORG $+1
	DW	00H
	DB	00H
	DB	00H
	DB	00H
	DB	'  mail', 0a3H, 0acH, 0e9H, 0c4H, '???', 0ecH, 0fdH, 0e9H
	DB	0a9H, '??', 0eeH, 0dcH, 0d9H, 0feH, 0edH, 0aeH, 0fdH, 0a8H, 0a3H
	DB	0acH, 0e4H, 0ceH, 0f9H, 0bbH, '?', 0e1H, 0eaH, '?', 0caH, 0a6H
	DB	'?', 0edH, 0bbH, 00H
	ORG $+17
	ORG $+1
	DW	00H
	DB	00H
	DB	00H
	DB	00H
	DB	'  ', 0d0H, 0f9H, '??', 0eeH, 0dcH, 0e8H, 0ccH, 0caH, 0abH
	DB	0ceH, 0dfH, '?', 0a1H, 0a3H, ' (', 0f9H, 0b1H, '?', 0e9H, 0a9H
	DB	'?', 0e8H, 0ccH, 0caH, 0abH, 0ceH, 0dfH, '?', 0d9H, 0a3H, 0f8H
	DB	0b8H, 0fdH, 0a8H, 0eeH, 0a6H, 0caH, 0a6H, 0deH, 0c5H, 00H
	ORG $+15
	ORG $+1
	DW	00H
	DB	00H
	DB	00H
	DB	00H
	DB	'  ', 0e9H, 0c4H, ' )', 00H
	ORG $+53
	ORG $+1
	DW	00H
	DB	04H
	DB	00H
	DB	00H
	DB	'4.', 0caH, 0abH, 0f0H, 0e9H, '??', 00H
	ORG $+51
	ORG $+1
	DW	08H
	DB	00H
	DB	01H
	DB	00H
	DB	'  ', 0e4H, 0ceH, 0f9H, 0bbH, 0caH, 0abH, 0f0H, 0e9H, 0d6H
	DB	0fdH, 0f4H, 0b8H, 0fdH, 0a8H, 0a3H, 0acH, '??', 0edH, 0bbH, 0d0H
	DB	0f9H, 0dfH, 0ccH, 0e9H, 0a9H, 0eeH, 0dcH, '?', 0d4H, 0b3H, 0a3H
	DB	0acH, 0e4H, 0ceH, 0f9H, 0bbH, 0caH, 0a5H, 00H
	ORG $+18
	ORG $+1
	DW	00H
	DB	00H
	DB	00H
	DB	00H
	DB	'  ', 0ecH, 0fdH, 0fdH, 0a8H, 0a3H, 0acH, 0e9H, 0c4H, '??'
	DB	'?', 0ecH, 0fdH, 0e9H, 0a9H, '??', 0eeH, 0dcH, 0d9H, 0feH, 0edH
	DB	0aeH, 0a3H, 0acH, '?', 0e4H, 0ceH, 0f9H, 0bbH, ' ENTER?', 0a3H
	DB	0acH, '?', 00H
	ORG $+17
	ORG $+1
	DW	00H
	DB	00H
	DB	00H
	DB	00H
	DB	'  ', 0caH, 0a6H, '???', 0d4H, 0b3H, 0eeH, 0dcH, 0e1H, 0b6H
	DB	0eaH, 0f3H, 0ecH, 0d1H, 0ceH, 0dfH, '?', 0a3H, 0acH, 0fbH, 0e4H
	DB	0e3H, 0c0H, 0f2H, 0c1H, 0efH, 0c8H, 0deH, 0c5H, 0e9H, 0c4H, '?'
	DB	'?Ctrl + C', 00H
	ORG $+15
	ORG $+1
	DW	00H
	DB	00H
	DB	00H
	DB	00H
	DB	'  ?', 0caH, 0a6H, 0caH, 0a5H, 0ecH, 0fdH, 0caH, 0abH, 0f0H
	DB	0e9H, 0eeH, 0efH, '?', 0a3H, 0acH, 0e8H, 0ccH, 0caH, 0abH, 0dfH
	DB	0ccH, 0fcH, 0deH, 0d3H, 0f0H, 0ecH, 0e9H, 0daH, 0f5H, '???', 0d4H
	DB	0b3H, 0f1H, 0feH, 0e2H, 0cdH, 0eeH, 0a2H, '?', 00H
	ORG $+15
	ORG $+1
	DW	00H
	DB	00H
	DB	00H
	DB	00H
	DB	'  ??', 0eaH, 0c8H, 0dfH, 0beH, 0caH, 0a5H, 0dfH, 0beH, 0d9H
	DB	0b3H, '? (:)?', 0caH, 0a6H, 0fcH, 0deH, 0dcH, 0ddH, 0ecH, 0e9H
	DB	0daH, 0f5H, 0efH, 0e1H, 0dfH, 0c8H, '???', 0d4H, 0b3H, 0a3H, 0acH
	DB	0caH, 0abH, 00H
	ORG $+16
	ORG $+1
	DW	00H
	DB	00H
	DB	00H
	DB	00H
	DB	'  ', 0f0H, 0e9H, '?', 0d4H, 0b3H, 0f9H, 0b1H, '?', 0eeH, 0a4H
	DB	0d4H, 0d2H, 0ecH, 0e9H, 0e0H, 0f8H, 0cfH, 0b9H, 0eeH, 0a6H, 0d2H
	DB	0f6H, 0deH, 0c5H, 0e9H, 0c4H, 0a1H, 0a3H, 0a3H, 0a8H, 0daH, 0b1H
	DB	0caH, 0a5H, 0ecH, 0fdH, 0caH, 0abH, 0f0H, 0e9H, 0d9H, 0e9H, 0dbH
	DB	0f6H, 0deH, 0c5H, 00H
	ORG $+11
	ORG $+1
	DW	00H
	DB	00H
	DB	00H
	DB	00H
	DB	'  ', 0e9H, 0c4H, 0f3H, 0aeH, 0cdH, 0edH, 0d2H, 0f6H, 0a3H
	DB	0a9H, 00H
	ORG $+47
	ORG $+1
	DW	00H
	DB	04H
	DB	00H
	DB	00H
	DB	'5.', 0f1H, 0ecH, '??', 0e5H, 0ebH, 00H
	ORG $+51
	ORG $+1
	DW	00H
	DB	00H
	DB	00H
	DB	00H
	DB	'  ', 0eaH, 0fdH, '?', 0f1H, 0e9H, 0caH, 0a6H, 0e4H, 0ceH
	DB	0dbH, 0b0H, 0faH, 0beH, '?', 0a1H, 0e8H, 0a1H, 0e9H, '??', 0f1H
	DB	0fdH, 0eeH, 0f1H, 0f1H, 0f4H, '???', 0eeH, 0dcH, '?', 0a3H, 0acH
	DB	0f5H, 0ccH, 0cdH, 0d4H, 0caH, 0a6H, 00H
	ORG $+17
	ORG $+1
	DW	00H
	DB	00H
	DB	00H
	DB	00H
	DB	'  ??', 0f5H, 0ccH, 0d0H, 0ceH, 0e1H, 0b6H, '??', 0eeH, 0dcH
	DB	'60', 0cfH, 0a3H, '?', 0a1H, 0a3H, 0e5H, 0fdH, 0dfH, 0ccH, 0f1H
	DB	0ecH, '?', 0f1H, 0fdH, 0eeH, 0f1H, 0e1H, 0b6H, '??', 0eeH, 0dcH
	DB	'?', 0a3H, 0acH, 00H
	ORG $+18
	ORG $+1
	DW	00H
	DB	00H
	DB	00H
	DB	00H
	DB	'  ', 0caH, 0a6H, 0deH, 0c5H, 0e9H, 0c4H, 0f3H, 0aeH, 0cdH
	DB	0edH, 0d2H, 0f6H, 0a1H, 0a3H, 00H
	ORG $+43
	ORG $+1
	ORG $+4
?help_desc_5@@3PAUDESC@@A DW 01H			; help_desc_5
	DB	00H
	DB	00H
	DB	0cH
	DB	'1.', 0daH, 0aaH, 0f9H, 0a1H, 00H
	ORG $+53
	ORG $+1
	DW	01H
	DB	00H
	DB	00H
	DB	0dH
	DB	'2.?', 0daH, 0aaH, 00H
	ORG $+54
	ORG $+1
	ORG $+4
?help_desc_6@@3PAUDESC@@A DW 01H			; help_desc_6
	DB	00H
	DB	00H
	DB	017H
	DB	'1.', 0ecH, 0e9H, 0daH, 0f5H, '?', 0d4H, 0e0H, 00H
	ORG $+50
	ORG $+1
	DW	01H
	DB	00H
	DB	00H
	DB	018H
	DB	'2.', 0ecH, 0e9H, 0daH, 0f5H, 'PK', 00H
	ORG $+51
	ORG $+1
	DW	01H
	DB	00H
	DB	00H
	DB	019H
	DB	'3.', 0caH, 0abH, 0f0H, 0e9H, 'PK', 00H
	ORG $+51
	ORG $+1
	DW	01H
	DB	00H
	DB	00H
	DB	01aH
	DB	'4.', 0edH, 0e4H, '????', 00H
	ORG $+51
	ORG $+1
	DW	01H
	DB	00H
	DB	00H
	DB	01bH
	DB	'5.?', 0e9H, 0cdH, 0edH, 0bbH, '??', 0d4H, 0e0H, '?', 0efH
	DB	0d2H, 00H
	ORG $+45
	ORG $+1
	ORG $+6
?help_desc_7@@3PAUDESC@@A DW 01H			; help_desc_7
	DB	00H
	DB	00H
	DB	012H
	DB	'1.', 0e0H, 0f7H, 0d8H, 0a1H, '?', 0faH, 0b0H, 0dfH, 0a4H
	DB	00H
	ORG $+48
	ORG $+1
	DW	01H
	DB	00H
	DB	00H
	DB	013H
	DB	'2.', 0caH, 0a5H, 0ecH, 0fdH, 0d0H, 0e0H, 0f7H, 0dcH, 0f5H
	DB	0f3H, 0caH, 0abH, 0f0H, 0e9H, 00H
	ORG $+43
	ORG $+1
	DW	01H
	DB	00H
	DB	00H
	DB	014H
	DB	'3.', 0caH, 0abH, 0f0H, 0e9H, 0d7H, 0baH, 0e5H, 0ebH, 0f7H
	DB	0faH, 00H
	ORG $+47
	ORG $+1
	DW	01H
	DB	00H
	DB	00H
	DB	015H
	DB	'4.', 0f0H, 0e9H, '?', 0cdH, 0edH, 0d2H, 0f6H, 00H
	ORG $+50
	ORG $+1
	DW	01H
	DB	00H
	DB	00H
	DB	016H
	DB	'5.', 0edH, 0e4H, '?', 0f7H, 0e5H, 0e2H, 0a8H, 0cdH, 0edH
	DB	0d2H, 0f6H, 00H
	ORG $+46
	ORG $+1
	ORG $+6
?help_desc_8@@3PAUDESC@@A DW 01H			; help_desc_8
	DB	00H
	DB	00H
	DB	0eH
	DB	'1.', 0ceH, 0c3H, 0d9H, 0a5H, 0efH, 0f1H, '?', 00H
	ORG $+50
	ORG $+1
	DW	01H
	DB	00H
	DB	00H
	DB	0fH
	DB	'2.', 0fdH, 0d9H, 0e4H, 0deH, 0efH, 0f1H, '?', 00H
	ORG $+50
	ORG $+1
	DW	01H
	DB	00H
	DB	00H
	DB	010H
	DB	'3.?', 0e0H, 0f5H, 0efH, 0f1H, '?', 00H
	ORG $+51
	ORG $+1
	DW	01H
	DB	00H
	DB	00H
	DB	011H
	DB	'4.', 0f7H, 0e5H, 0e2H, 0a8H, 0efH, 0f1H, '?', 00H
	ORG $+50
	ORG $+1
	DW	01H
	DB	00H
	DB	00H
	DB	01cH
	DB	'5.', 0d8H, 0aaH, 0dbH, 0f6H, 0efH, 0f1H, '?', 00H
	ORG $+50
	ORG $+1
	ORG $+6
?help_desc_9@@3PAUDESC@@A DW 01H			; help_desc_9
	DB	00H
	DB	00H
	DB	01dH
	DB	0e3H, 0e6H, 0f1H, 0f2H, 0a1H, 0a1H, 0a1H, 0b2H, 0efH, 0f1H
	DB	'?', 0eeH, 0dcH, 0e1H, 0afH, '?', 0a1H, 0b3H, 00H
	ORG $+41
	ORG $+1
	DW	00H
	DB	00H
	DB	00H
	DB	00H
	DB	00H
	ORG $+59
	ORG $+1
	DW	00H
	DB	04H
	DB	00H
	DB	00H
	DB	'1.?', 0e9H, 0cdH, 0d6H, 0f9H, 0d7H, 0e2H, 00H
	ORG $+50
	ORG $+1
	DW	00H
	DB	00H
	DB	00H
	DB	00H
	DB	'      ', 0d6H, 0f9H, 0d7H, 0e2H, 0e3H, 0c0H, 0ebH, 0a6H, '?'
	DB	0daH, 0aaH, '?', 0e8H, 0c7H, 0e0H, 0f7H, 0eeH, 0dcH, 0a3H, 0acH
	DB	0e2H, 0cfH, 0e0H, 0bbH, 0f9H, 0b1H, '?', 0e0H, 0bbH, 0d3H, 0f0H
	DB	0deH, 0ccH, 0d3H, 0deH, 0f5H, 0f3H, 0dfH, 0e6H, 0f2H, 0a2H, 00H
	ORG $+12
	ORG $+1
	DW	00H
	DB	00H
	DB	00H
	DB	00H
	DB	'  ', 0eeH, 0dcH, 0f5H, 0bdH, 0edH, 0adH, 0d7H, 0ecH, 0eeH
	DB	0dcH, '?', 0daH, 0aaH, 0efH, 0c1H, '??', 0daH, 0aaH, '??', 0d6H
	DB	0f9H, 0d7H, 0e2H, 0d0H, 0fcH, 0d2H, 0f6H, 0a3H, 0acH, 0eeH, 0a2H
	DB	0d3H, 0f0H, '??', 0d1H, 0d6H, '?', 00H
	ORG $+17
	ORG $+1
	DW	00H
	DB	00H
	DB	00H
	DB	00H
	DB	'  ', 0d0H, 0e0H, 0caH, 0a5H, 0caH, 0a5H, 0f5H, 0bdH, 0eeH
	DB	0dcH, '24', 0e1H, 0b3H, '?', 0f8H, 0b5H, 0d7H, 0d7H, 0dfH, 0c2H
	DB	0efH, 0c1H, '??', 0d6H, 0f9H, 0d7H, 0e2H, 0e1H, 0b6H, 0e2H, 0cdH
	DB	0eeH, 0dcH, 0e3H, 0ddH, 0eeH, 0a7H, 0a1H, 0a3H, 00H
	ORG $+16
	ORG $+1
	DW	00H
	DB	00H
	DB	00H
	DB	00H
	DB	'      ', 0d6H, 0f9H, 0d7H, 0e2H, 0eeH, 0dcH, 0dbH, 0b0H, 0dbH
	DB	0f6H, 0e3H, 0c0H, 0f2H, 0c1H, 0efH, 0c8H, 0eeH, 0a4H, 0d4H, 0b3H
	DB	0ceH, 0fdH, '?', 0eeH, 0dcH, 0e3H, 0ddH, 0eeH, 0a7H, 0dfH, 0beH
	DB	0e4H, 0ceH, 0fcH, 0c1H, 0e0H, 0a9H, 0e9H, 0d3H, '?', 0a3H, 0acH
	DB	00H
	ORG $+11
	ORG $+1
	DW	00H
	DB	00H
	DB	00H
	DB	00H
	DB	'  ', 0f2H, 0b8H, 0e1H, 0b4H, 0e2H, 0cdH, '???', 0ecH, 0a4H
	DB	0dfH, 0beH, 0e3H, 0ddH, 0eeH, 0a7H, 0eeH, 0a6H, 0d2H, 0f6H, 0d6H
	DB	0f9H, 0d7H, 0e2H, 0a3H, 0acH, '?', 0fbH, 0bfH, 0e3H, 0ddH, 0eeH
	DB	0a7H, 0fdH, 0a8H, '?', 0daH, 0aaH, '??', 00H
	ORG $+16
	ORG $+1
	DW	00H
	DB	00H
	DB	00H
	DB	00H
	DB	'  ', 0edH, 0bbH, '???', 0a3H, 0acH, '???', 0d6H, 0f9H, 0d7H
	DB	0e2H, 0eeH, 0dcH, '?', 0daH, 0aaH, 0eeH, 0a4H, '?', 0daH, 0aaH
	DB	0d9H, 0a3H, '?', 0dfH, 0beH, 0e4H, 0ceH, 0ecH, 0e9H, 0f9H, 0bbH
	DB	0a3H, 0acH, 0eeH, 0a2H, 00H
	ORG $+18
	ORG $+1
	DW	00H
	DB	00H
	DB	00H
	DB	00H
	DB	'  ', 0e4H, 0ceH, 0f9H, 0bbH, '?', 0daH, 0aaH, 0d0H, 0fcH
	DB	0d2H, 0f6H, 0fdH, 0a8H, '?', 0f5H, 0f3H, '??', 0daH, 0aaH, 0d0H
	DB	0fcH, 0d2H, 0f6H, 0ecH, 0e9H, '?', 0f8H, 0faH, 0a3H, 0acH, '??'
	DB	0d6H, 0f9H, 0d7H, 0e2H, 0d0H, 0fcH, 0d2H, 0f6H, 00H
	ORG $+16
	ORG $+1
	DW	00H
	DB	00H
	DB	00H
	DB	00H
	DB	'  ', 0e4H, 0ceH, 0f9H, 0bbH, 0cbH, 0dbH, 0a3H, 0acH, 0f1H
	DB	0fdH, 0fdH, 0a8H, '?', 0daH, 0aaH, 0f6H, 0a6H, '?', 0f5H, 0f3H
	DB	'?', 0daH, 0e6H, '?', 0e3H, 0ddH, 0eeH, 0a7H, '?', 0faH, 0bcH, 0d6H
	DB	0f9H, 0d7H, 0e2H, 0a1H, 0a3H, 00H
	ORG $+20
	ORG $+1
	DW	00H
	DB	04H
	DB	00H
	DB	00H
	DB	'2.?', 0e9H, 0cdH, 0f9H, 0eaH, 0e0H, 0f7H, 00H
	ORG $+50
	ORG $+1
	DW	00H
	DB	00H
	DB	00H
	DB	00H
	DB	'      ', 0f9H, 0eaH, 0e0H, 0f7H, 0e3H, 0c0H, 0ebH, 0a6H, '?'
	DB	0daH, 0aaH, '?', 0e8H, 0c7H, 0e0H, 0f7H, 0eeH, 0dcH, 0a3H, 0acH
	DB	0e2H, 0cfH, 0e0H, 0bbH, 0f9H, 0b1H, '?', 0e0H, 0bbH, 0d3H, 0f0H
	DB	0deH, 0ccH, 0d3H, 0deH, 0f5H, 0f3H, 0dfH, 0e6H, 0f2H, 0a2H, 00H
	ORG $+12
	ORG $+1
	DW	00H
	DB	00H
	DB	00H
	DB	00H
	DB	'  ', 0eeH, 0dcH, 0f5H, 0bdH, 0edH, 0adH, 0d7H, 0ecH, 0eeH
	DB	0dcH, '?', 0daH, 0aaH, 0efH, 0c1H, '??', 0daH, 0aaH, '??', 0caH
	DB	0a5H, 0cdH, 0efH, 0d0H, 0fcH, 0d2H, 0f6H, 0a3H, 0acH, 0eeH, 0a2H
	DB	0d3H, 0f0H, '?', 0d9H, 0b5H, 0d1H, 0ceH, '?', 00H
	ORG $+16
	ORG $+1
	DW	00H
	DB	00H
	DB	00H
	DB	00H
	DB	'  ', 0fbH, 0e4H, '???', 0d1H, 0e1H, 0f5H, 0bdH, '??', 0caH
	DB	0a5H, 0cdH, 0efH, 0e1H, 0b6H, 0e2H, 0cdH, 0eeH, 0dcH, 0e1H, 0c8H
	DB	0eeH, 0a7H, 0a1H, 0a3H, 00H
	ORG $+30
	ORG $+1
	DW	00H
	DB	00H
	DB	00H
	DB	00H
	DB	'      ', 0caH, 0a5H, 0cdH, 0efH, 0ddH, 0c2H, 0e0H, 0f7H, 0dfH
	DB	0b2H, '??', 0a3H, 0acH, 0ecH, 0e9H, '?', 0e3H, 0c0H, 0d4H, 0d2H
	DB	'?', 0e3H, 0c0H, 0e1H, 0c8H, 0eeH, 0a7H, 0a3H, 0acH, 0ecH, 0e9H
	DB	'?', 0e3H, 0c0H, 0d4H, 0d2H, '?', 00H
	ORG $+15
	ORG $+1
	DW	00H
	DB	00H
	DB	00H
	DB	00H
	DB	'  ', 0e3H, 0c0H, 0d4H, 0b3H, 0ceH, 0fdH, 0a3H, 0acH, '?', 0ecH
	DB	0e9H, '?', 0e3H, 0c0H, 0e1H, 0c8H, 0eeH, 0a7H, 0fbH, 0faH, 0d4H
	DB	0b3H, 0ceH, 0fdH, 0eeH, 0dcH, 0caH, 0a5H, 0cdH, 0efH, 0a1H, 0a3H
	DB	0f9H, 0eaH, 0e0H, 0f7H, 0eeH, 0dcH, 0dbH, 0b0H, 0dbH, 0f6H, 0d4H
	DB	0d2H, 0d6H, 0f9H, 00H
	ORG $+11
	ORG $+1
	DW	00H
	DB	00H
	DB	00H
	DB	00H
	DB	'  ', 0d7H, 0e2H, 0eeH, 0dcH, 0dbH, 0b0H, 0dbH, 0f6H, 0a1H
	DB	0a3H, 00H
	ORG $+47
	ORG $+1
	DW	00H
	DB	04H
	DB	00H
	DB	00H
	DB	'3.?', 0e9H, 0cdH, '?', 0ecH, 0fdH, 0dbH, 0f6H, 00H
	ORG $+49
	ORG $+1
	DW	00H
	DB	00H
	DB	00H
	DB	00H
	DB	'  ', 0ecH, 0e9H, '?', 0ecH, 0fdH, 0eaH, 0fdH, '?', 0f4H, 0f8H
	DB	0e3H, 0b7H, 0eeH, 0dcH, '?', 0ecH, 0fdH, 0dbH, 0f6H, 0e3H, 0c0H
	DB	0e7H, 0c8H, '?', 0a3H, 0acH, 0e5H, 0a5H, 0f6H, 0a6H, 0e3H, 0c0H
	DB	0d2H, 0f6H, '?', 0ecH, 0fdH, 0e7H, 0c8H, 0d9H, 0feH, 0fbH, 0faH
	DB	00H
	ORG $+14
	ORG $+1
	DW	00H
	DB	00H
	DB	00H
	DB	00H
	DB	'  ?', 0edH, 0aeH, 0a1H, 0a3H, 0e5H, 0fdH, 0cdH, 0fdH, 0dfH
	DB	0ccH, 0d0H, 0a3H, 0f5H, 0f3H, '?', 0ecH, 0fdH, 0dbH, 0f6H, '?', 0ecH
	DB	0fdH, 0d9H, 0feH, 0edH, 0aeH, 0eeH, 0dcH, '?', 0a3H, 0acH, 0f1H
	DB	0feH, 0e9H, 0a9H, 0e4H, 0ceH, 0f9H, 0bbH, 0f8H, 0c1H, 0dfH, 0c8H
	DB	00H
	ORG $+13
	ORG $+1
	DW	00H
	DB	00H
	DB	00H
	DB	00H
	DB	'  ', 0efH, 0b7H, '??', 0ecH, 0fdH, 0dbH, 0f6H, 0eeH, 0dcH
	DB	'??', 0f6H, 0a6H, 0d2H, 0f6H, 0d0H, 0a3H, 0f5H, 0f3H, '?', 0ecH
	DB	0fdH, 0dbH, 0f6H, 0a3H, 0acH, '?', 0ecH, 0fdH, 0e8H, 0c7H, 0d9H
	DB	0feH, 0edH, 0aeH, 0fdH, 0a8H, 0e4H, 0ceH, 0f9H, 0bbH, 00H
	ORG $+15
	ORG $+1
	DW	00H
	DB	00H
	DB	00H
	DB	00H
	DB	'  enter ', 0f6H, 0a6H, '???', 0e1H, 0b6H, '?', 0ecH, 0fdH
	DB	0eeH, 0dcH, 0d9H, 0feH, 0edH, 0aeH, '?', 0e1H, 0eaH, '?', 0d0H
	DB	0ecH, 0f6H, 0e2H, 0e8H, 0ccH, 0caH, 0abH, '?', 0d3H, 0f0H, 0a1H
	DB	0a3H, 0e9H, 0a9H, 00H
	ORG $+16
	ORG $+1
	DW	00H
	DB	00H
	DB	00H
	DB	00H
	DB	'  ', 0f7H, 0e5H, '?', 0f1H, 0bcH, 0ebH, 0f2H, 0eeH, 0dcH
	DB	0e3H, 0c0H, 0e5H, 0b4H, '?', 0ecH, 0fdH, 0eeH, 0dcH, 0e3H, 0c0H
	DB	0ecH, 0edH, 0d9H, 0feH, 0fbH, 0e4H, '?', 0d9H, 0feH, 0d4H, 0f5H
	DB	0deH, 0aaH, 0f1H, 0e9H, 0d9H, 0feH, 0eeH, 0dcH, 0d9H, 0feH, 0edH
	DB	0aeH, 0d3H, 0f0H, 00H
	ORG $+12
	ORG $+1
	DW	00H
	DB	00H
	DB	00H
	DB	00H
	DB	'  ', 0eaH, 0fdH, '?', 0f1H, 0e9H, 0a3H, 0acH, 0e5H, 0fdH
	DB	0cdH, 0fdH, '?', 0dbH, 0b0H, 0e8H, 0ccH, 0caH, 0abH, 0eeH, 0dcH
	DB	'??', 0d9H, 0e9H, 0ecH, 0edH, 0d9H, 0feH, 0fbH, 0e4H, '?', 0d9H
	DB	0feH, 0d4H, 0f5H, 0deH, 0aaH, 0f1H, 0e9H, 0d9H, 0feH, 0eeH, 0dcH
	DB	00H
	ORG $+14
	ORG $+1
	DW	00H
	DB	00H
	DB	00H
	DB	00H
	DB	'  ', 0edH, 0aeH, 0faH, 0feH, '?', 0a3H, 0acH, '??', 0caH
	DB	0d7H, 0d3H, 0f0H, 0cdH, 0f6H, 0dbH, 0dcH, 0eeH, 0dcH, 0d9H, 0feH
	DB	0edH, 0aeH, 0a1H, 0a3H, 00H
	ORG $+32
	ORG $+1
	DW	00H
	DB	04H
	DB	00H
	DB	00H
	DB	'4.?', 0e9H, 0cdH, '??', 00H
	ORG $+52
	ORG $+1
	DW	07H
	DB	00H
	DB	01H
	DB	00H
	DB	'    ', 0ecH, 0d1H, 0daH, 0aaH, '?', 0edH, 0c2H, 00H
	ORG $+48
	ORG $+1
	DW	00H
	DB	00H
	DB	00H
	DB	00H
	DB	'    Ctrl + 1 ', 0f1H, 0a6H, 0f9H, 0bbH, 00H
	ORG $+42
	ORG $+1
	DW	00H
	DB	00H
	DB	00H
	DB	00H
	DB	'    Ctrl + 2 ?', 0e2H, 0a2H, 00H
	ORG $+43
	ORG $+1
	DW	00H
	DB	00H
	DB	00H
	DB	00H
	DB	'    Ctrl + 3 ', 0efH, 0c3H, '?', 00H
	ORG $+43
	ORG $+1
	DW	00H
	DB	00H
	DB	00H
	DB	00H
	DB	'    Ctrl + 4 ', 0cdH, 0d4H, '?', 00H
	ORG $+43
	ORG $+1
	DW	00H
	DB	00H
	DB	00H
	DB	00H
	DB	'    Ctrl + 5 ', 0dfH, 0e6H, '?', 00H
	ORG $+43
	ORG $+1
	DW	00H
	DB	00H
	DB	00H
	DB	00H
	DB	'    Ctrl + 6 ', 0ddH, 0e8H, '?', 00H
	ORG $+43
	ORG $+1
	DW	00H
	DB	00H
	DB	00H
	DB	00H
	DB	'    Ctrl + 7 ', 0f3H, 0d7H, 0d8H, 0a1H, 00H
	ORG $+42
	ORG $+1
	DW	00H
	DB	00H
	DB	00H
	DB	00H
	DB	'    Ctrl + 8 ', 0f1H, 0cbH, '?', 00H
	ORG $+43
	ORG $+1
	DW	00H
	DB	00H
	DB	00H
	DB	00H
	DB	'    Ctrl + 9 ', 0fbH, 0e7H, 0d3H, 0eeH, 00H
	ORG $+42
	ORG $+1
	DW	00H
	DB	00H
	DB	00H
	DB	00H
	DB	'    Ctrl + 0 ', 0cdH, 0f4H, '?', 00H
	ORG $+43
	ORG $+1
	DW	00H
	DB	00H
	DB	00H
	DB	00H
	DB	'    Ctrl + - ', 0dbH, 0c1H, 0e5H, 0d9H, 00H
	ORG $+42
	ORG $+1
	DW	00H
	DB	00H
	DB	00H
	DB	00H
	DB	'    Ctrl + = ', 0e1H, 0f4H, '?', 00H
	ORG $+43
	ORG $+1
	DW	00H
	DB	04H
	DB	00H
	DB	00H
	DB	'5.', 0efH, 0b7H, '???', 0d9H, 0bcH, 0e3H, 0d2H, 00H
	ORG $+48
	ORG $+1
	DW	00H
	DB	00H
	DB	00H
	DB	00H
	DB	'  ?? ALT + ENTER', 0a1H, 0a3H, 0e5H, 0fdH, 0cdH, 0fdH, 0dfH
	DB	0ccH, 0efH, 0b7H, '?', 0d3H, 0f0H, '??', 0d9H, 0bcH, 0e3H, 0d2H
	DB	'?', 0a3H, 0acH, 0e2H, 0cdH, 0e0H, 0bbH, '?', 00H
	ORG $+16
	ORG $+1
	DW	00H
	DB	00H
	DB	00H
	DB	00H
	DB	'  ??', 0dfH, 0e4H, 0f3H, 0f4H, '?', 0e0H, 0f7H, ' 256', 0dfH
	DB	0e4H, 0a1H, 0a3H, 00H
	ORG $+40
	ORG $+1
	DW	00H
	DB	04H
	DB	00H
	DB	00H
	DB	'6.?', 0e9H, 0cdH, '??', 0f9H, 0a1H, '?', 00H
	ORG $+49
	ORG $+1
	DW	00H
	DB	00H
	DB	00H
	DB	00H
	DB	'  ', 0eaH, 0fdH, '??', 0d8H, 0fcH, 0e9H, 0d3H, 0f9H, 0bbH
	DB	0caH, 0c7H, 0eeH, 0dcH, 0a3H, 0aaH, '?', 0fdH, 0a8H, 0d8H, 0fcH
	DB	0eeH, 0dcH, '?', 0edH, 0aeH, 0e3H, 0c0H, 0d3H, 0dbH, 0f8H, 0faH
	DB	'??', 0eeH, 0dcH, 0f9H, 0a1H, '?', 0a3H, 0acH, 00H
	ORG $+16
	ORG $+1
	DW	00H
	DB	00H
	DB	00H
	DB	00H
	DB	'  ?', 0edH, 0aeH, 0eaH, 0c6H, 0d3H, 0deH, 0d3H, 0dbH, 0f8H
	DB	0faH, '??', 0f9H, 0a1H, '?', 0eaH, 0c6H, 0f3H, 0acH, 0a1H, 0a3H
	DB	00H
	ORG $+35
	ORG $+1
	ORG $+4
?help_desc_10@@3PAUDESC@@A DW 00H			; help_desc_10
	DB	04H
	DB	00H
	DB	00H
	DB	'1.', 0ecH, 0d1H, 0daH, 0aaH, 0ecH, 0b9H, '?', 00H
	ORG $+50
	ORG $+1
	DW	00H
	DB	00H
	DB	00H
	DB	00H
	DB	'  ', 0e4H, 0ceH, 0fcH, 0c1H, 0e0H, 0a9H, 0f1H, 0a7H, '?', 0caH
	DB	0a6H, 0ecH, 0a4H, 0ecH, 0b9H, '?', 0d3H, 0f0H, 0e1H, 0b6H, 0efH
	DB	0c3H, '?', 0eeH, 0dcH, 0f2H, 0a2H, 0dbH, 0b0H, 0a1H, 0a3H, 00H
	ORG $+26
	ORG $+1
	DW	00H
	DB	00H
	DB	00H
	DB	00H
	DB	'  ', 0f2H, 0a5H, '?', 0e4H, 0ceH, 0f1H, 0acH, 0f1H, 0a7H
	DB	'?', 0eeH, 0dcH, '?', 0a3H, 0acH, 0ecH, 0d1H, 0daH, 0aaH, '?', 0e8H
	DB	0d9H, 0e1H, 0b6H, 0f2H, 0a6H, 0eeH, 0dcH, 0dbH, 0b0H, 0faH, 0beH
	DB	0f2H, 0a5H, '?', 0eeH, 0dcH, 0ecH, 0b9H, '?', 0a1H, 0a3H, 00H
	ORG $+15
	ORG $+1
	DW	00H
	DB	04H
	DB	00H
	DB	00H
	DB	'2.', 0ecH, 0d1H, 0daH, 0aaH, '?', 0faH, 0beH, 00H
	ORG $+50
	ORG $+1
	DW	00H
	DB	00H
	DB	00H
	DB	00H
	DB	'  ', 0fcH, 0c1H, 0e0H, 0a9H, 0e9H, 0d3H, '?', 0caH, 0a6H
	DB	0ecH, 0a4H, '??', 0ecH, 0d1H, 0daH, 0aaH, 0eeH, 0dcH, 0dbH, 0b0H
	DB	0faH, 0beH, 0a1H, 0a3H, 00H
	ORG $+32
	ORG $+1
	DW	00H
	DB	04H
	DB	00H
	DB	00H
	DB	'3.', 0e3H, 0a6H, '?', 0d4H, 0b3H, 0ceH, 0fdH, 00H
	ORG $+50
	ORG $+1
	DW	00H
	DB	00H
	DB	00H
	DB	00H
	DB	'  ', 0d3H, 0fcH, 0d5H, 0aaH, 0eeH, 0dcH, '?', 0d9H, 0cdH
	DB	0dbH, 0b1H, '?', 0a3H, 0acH, 0e4H, 0ceH, 0fcH, 0c1H, 0e0H, 0a9H
	DB	0e9H, 0d3H, '?', 0a1H, 0a3H, 00H
	ORG $+32
	ORG $+1
	ORG $+2
?help_desc_11@@3PAUDESC@@A DW 00H			; help_desc_11
	DB	00H
	DB	00H
	DB	00H
	DB	'?', 0eaH, 0fdH, '?', 0ecH, 0b9H, 0f2H, 0b8H, 0eaH, 0fdH, '?'
	DB	'??', 0f5H, 0ccH, 0eeH, 0bcH, 0f9H, 0bbH, 0f6H, 0a6H, '?', 0f5H
	DB	0f3H, '?', 0f9H, 0bbH, 0d6H, 0aaH, 0eeH, 0dcH, '7???', 00H
	ORG $+24
	ORG $+1
	DW	00H
	DB	00H
	DB	00H
	DB	00H
	DB	'  ', 0f2H, 0a2H, '?', 0a3H, 0baH, '??', 0e9H, 0d3H, 0dfH
	DB	0beH, 0caH, 0c7H, 0eeH, 0dcH, 0e1H, 0b3H, 0f2H, 0a2H, '?', 0a1H
	DB	0a3H, 00H
	ORG $+35
	ORG $+1
	DW	00H
	DB	00H
	DB	00H
	DB	00H
	DB	'        ?? Ctrl + M', 00H
	ORG $+40
	ORG $+1
	DW	00H
	DB	00H
	DB	00H
	DB	00H
	DB	'  ??', 0a3H, 0baH, '??', 0ecH, 0d1H, 0daH, 0aaH, '??', 0a1H
	DB	0a3H, 00H
	ORG $+43
	ORG $+1
	DW	00H
	DB	00H
	DB	00H
	DB	00H
	DB	'        ?? Ctrl + S', 00H
	ORG $+40
	ORG $+1
	DW	00H
	DB	00H
	DB	00H
	DB	00H
	DB	'  ?', 0daH, 0aaH, 0a3H, 0baH, '???', 0daH, 0aaH, '?', 0a3H
	DB	0acH, '?', 0caH, 0d7H, '?', 0daH, 0aaH, 0eeH, 0dcH, '??', 0a1H
	DB	0a3H, 00H
	ORG $+32
	ORG $+1
	DW	00H
	DB	00H
	DB	00H
	DB	00H
	DB	'        ?? Ctrl + P', 00H
	ORG $+40
	ORG $+1
	DW	00H
	DB	00H
	DB	00H
	DB	00H
	DB	'  ', 0d4H, 0b3H, 0ceH, 0fdH, 0a3H, 0baH, '??', 0ecH, 0d1H
	DB	0daH, 0aaH, 0eeH, 0dcH, 0d4H, 0b3H, 0ceH, 0fdH, '?', 0ecH, 0a4H
	DB	0d0H, 0e0H, 0ecH, 0d1H, 0daH, 0aaH, 0eeH, 0dcH, '???', 0a1H, 0a3H
	DB	00H
	ORG $+23
	ORG $+1
	DW	00H
	DB	00H
	DB	00H
	DB	00H
	DB	'        ?? Ctrl + I', 00H
	ORG $+40
	ORG $+1
	DW	00H
	DB	00H
	DB	00H
	DB	00H
	DB	'  ?', 0cbH, 0ecH, 0a3H, 0baH, '??', 0ecH, 0d1H, 0daH, 0aaH
	DB	0eeH, 0dcH, 0d9H, 0a3H, 0f8H, 0b8H, '?', 0a1H, 0a3H, 00H
	ORG $+37
	ORG $+1
	DW	00H
	DB	00H
	DB	00H
	DB	00H
	DB	'        ?? Ctrl + E', 00H
	ORG $+40
	ORG $+1
	DW	00H
	DB	00H
	DB	00H
	DB	00H
	DB	'  ', 0dfH, 0d3H, 0ddH, 0adH, 0a3H, 0baH, '???', 0daH, 0aaH
	DB	0dfH, 0d3H, 0ddH, 0adH, 0a1H, 0a3H, 00H
	ORG $+40
	ORG $+1
	DW	00H
	DB	00H
	DB	00H
	DB	00H
	DB	'        ?? Ctrl + A', 00H
	ORG $+40
	ORG $+1
	DW	00H
	DB	00H
	DB	00H
	DB	00H
	DB	'  ', 0cdH, 0a7H, '?', 0a3H, 0baH, '??', 0cdH, 0a7H, '???'
	DB	0a1H, 0a3H, 00H
	ORG $+43
	ORG $+1
	DW	00H
	DB	00H
	DB	00H
	DB	00H
	DB	'        ', 0d4H, 0f4H, 0f5H, 0f3H, 0a3H, 0baH, 0d4H, 0f4H
	DB	0f5H, 0f3H, 0eaH, 0fdH, '?', 0a1H, 0a3H, 00H
	ORG $+36
	ORG $+1
	DW	00H
	DB	00H
	DB	00H
	DB	00H
	DB	'        ', 0eaH, 0abH, 0f2H, 0a2H, 0d4H, 0f4H, 0f5H, 0f3H
	DB	0a3H, 0baH, 0d4H, 0f4H, 0f5H, 0f3H, 0fdH, 0a8H, 0eeH, 0a2H, '?'
	DB	0ecH, 0fdH, 0eaH, 0fdH, '??', 0fcH, 0deH, 0d3H, 0f0H, 0dfH, 0beH
	DB	0f3H, 0adH, 0d4H, 0f4H, 0f5H, 0f3H, 0eeH, 0dcH, 00H
	ORG $+12
	ORG $+1
	DW	00H
	DB	00H
	DB	00H
	DB	00H
	DB	'        ', 0f2H, 0a2H, 0efH, 0c3H, 0a1H, 0a3H, 00H
	ORG $+45
	ORG $+1
	DW	00H
	DB	00H
	DB	00H
	DB	00H
	DB	'        ', 0d6H, 0fdH, 0f4H, 0b8H, '?', 0efH, 0d2H, 0a3H
	DB	0baH, '?', 0e3H, 0c6H, '?', 0d8H, 0fcH, 0dfH, 0beH, 0caH, 0a6H
	DB	'?', 0e3H, 0c6H, 0eeH, 0dcH, 0f5H, 0ccH, 0d3H, 0deH, '??', 0faH
	DB	0bcH, '?', 0a1H, 0a2H, 00H
	ORG $+16
	ORG $+1
	DW	00H
	DB	00H
	DB	00H
	DB	00H
	DB	'                  ', 0cbH, 0c7H, '???', 0eeH, 0dcH, '?', 0dfH
	DB	0e4H, 0a1H, 0a2H, '??', 0eeH, 0dcH, 0dbH, 0f5H, '?', 0ecH, 0a4H
	DB	0d0H, 0e0H, 0caH, 0a6H, 00H
	ORG $+16
	ORG $+1
	DW	00H
	DB	00H
	DB	00H
	DB	00H
	DB	'                  ??', 0dfH, 0c8H, 0e9H, 0c4H, 0eeH, 0dcH
	DB	0d9H, 0feH, 0edH, 0aeH, 0a3H, 0a8H, 'F1~F8', 0a3H, 0a9H, 0a1H, 0a3H
	DB	00H
	ORG $+18
	ORG $+1
	DW	00H
	DB	00H
	DB	00H
	DB	00H
	DB	'        ', 0dbH, 0ceH, 0ccH, 0d8H, 0ebH, 0e5H, '??', 0efH
	DB	0d2H, 0a3H, 0baH, 0caH, 0a6H, 0cbH, 0c7H, '?', 0ebH, 0e5H, '?', 0ebH
	DB	0e5H, 0d5H, 0e1H, 0eeH, 0dcH, 0d3H, 0deH, 0e1H, 0b3H, 0fbH, 0faH
	DB	'?', 0f1H, 0b4H, 0eeH, 0dcH, 00H
	ORG $+14
	ORG $+1
	DW	00H
	DB	00H
	DB	00H
	DB	00H
	DB	'                      ', 0f6H, 0e1H, 0d8H, 0b7H, 0a1H, 0a3H
	DB	00H
	ORG $+31
	ORG $+1
	DW	00H
	DB	00H
	DB	00H
	DB	00H
	DB	'        ', 0ebH, 0e5H, 0fcH, 0f9H, '?', 0efH, 0d2H, 0a3H
	DB	0baH, 0caH, 0a6H, 0cbH, 0c7H, '?', 0ebH, 0e5H, 0fcH, 0f9H, 0ebH
	DB	0e5H, 0d5H, 0e1H, 0eeH, 0dcH, 0d3H, 0deH, 0e1H, 0b3H, 0fbH, 0faH
	DB	0d8H, 0a1H, '??', 0a1H, 0a2H, '?', 00H
	ORG $+14
	ORG $+1
	DW	00H
	DB	00H
	DB	00H
	DB	00H
	DB	'                  ?', 0d4H, 0b3H, 0a1H, 0a3H, 00H
	ORG $+36
	ORG $+1
	DW	00H
	DB	00H
	DB	00H
	DB	00H
	DB	'        ', 0fcH, 0c1H, 0e0H, 0a9H, '?', 0efH, 0d2H, 0a3H
	DB	0baH, '?', 0efH, 0d2H, 0eaH, 0fdH, '??', 0ecH, 0e9H, 0daH, 0f5H
	DB	0fbH, 0e4H, 0f8H, 0c1H, 0fcH, 0c1H, 0a1H, 0a3H, 00H
	ORG $+23
	ORG $+1
	DW	01H
	DB	00H
	DB	02H
	DB	01bH
	DB	0edH, 0bbH, '??', 0d4H, 0e0H, '?', 0efH, 0d2H, 00H
	ORG $+50
	ORG $+1
	ORG $+4
?help_desc_12@@3PAUDESC@@A DW 03H			; help_desc_12
	DB	04H
	DB	00H
	DB	00H
	DB	'1.??', 00H
	ORG $+55
	ORG $+1
	DW	00H
	DB	00H
	DB	00H
	DB	00H
	DB	'      ', 0d8H, 0fcH, '?', 0dfH, 0ccH, 0e9H, 0a9H, 0caH, 0a5H
	DB	0ecH, 0fdH, 0eeH, 0dcH, 0ecH, 0d1H, 0e4H, 0ceH, 0f9H, 0bbH, 0a1H
	DB	0b4H, 0caH, 0a5H, 0ecH, 0fdH, '?', 0e7H, 0eaH, 0a1H, 0b5H, 0eeH
	DB	0dcH, 0e4H, 0ceH, '?', 0f6H, 0a6H, '?', 0caH, 0a5H, 00H
	ORG $+13
	ORG $+1
	DW	00H
	DB	00H
	DB	00H
	DB	00H
	DB	'  ', 0ecH, 0fdH, '?', 0d9H, 0a3H, 0e8H, 0ccH, 0caH, 0abH
	DB	0eeH, 0dcH, '?', 0e7H, 0eaH, 0a1H, 0a3H, 0caH, 0a5H, 0ecH, 0fdH
	DB	'?', 0e7H, 0eaH, 0ecH, 0a4H, 0fdH, 0a8H, 0a3H, 0acH, 0ecH, 0b9H
	DB	'?', 0f6H, 0a6H, 0ebH, 0a6H, '????', 00H
	ORG $+17
	ORG $+1
	DW	00H
	DB	00H
	DB	00H
	DB	00H
	DB	'  ', 0efH, 0d2H, 0a3H, 0acH, '??', 0f6H, 0a6H, 0e3H, 0c0H
	DB	0eeH, 0a4H, '?', 0dfH, 0beH, 0eaH, 0f3H, ' L??', 0eeH, 0dcH, 0ecH
	DB	0d1H, '?', 0a3H, 0a1H, 00H
	ORG $+29
	ORG $+1
	DW	00H
	DB	00H
	DB	00H
	DB	00H
	DB	'      ', 0dfH, 0ccH, '???', 0e7H, 0eaH, 0eeH, 0dcH, '?', 0fdH
	DB	0a6H, 0a3H, 0acH, 0f1H, 0feH, 0e9H, 0a9H, 0eeH, 0a2H, 0e4H, 0ceH
	DB	0ecH, 0e9H, 0f3H, 0adH, 0a1H, 0b4H, 0caH, 0a5H, 0ecH, 0fdH, '?'
	DB	0e7H, 0eaH, 0a1H, 0b5H, 0eeH, 0dcH, 00H
	ORG $+14
	ORG $+1
	DW	00H
	DB	00H
	DB	00H
	DB	00H
	DB	'  ', 0e4H, 0ceH, '?', 0f6H, 0a6H, 0faH, 0bcH, 0d6H, 0f5H
	DB	0a1H, 0a3H, 0eeH, 0a4H, '?', 0d4H, 0e0H, 0f1H, 0e9H, 0d4H, 0b1H
	DB	'?', 0eeH, 0dcH, '???????', 0e7H, 0eaH, 0a3H, 0acH, 0ecH, 0bbH
	DB	0e5H, 0fdH, 00H
	ORG $+19
	ORG $+1
	DW	00H
	DB	00H
	DB	00H
	DB	00H
	DB	'  ', 0cdH, 0fdH, '??', 0d4H, 0b1H, 0f1H, 0cbH, 0eeH, 0dcH
	DB	'?', 0a3H, 0acH, 0d1H, 0e1H, '?', 0e7H, 0eaH, 0f6H, 0a6H, '?', 0edH
	DB	0bbH, '?', 0faH, 0b0H, 0dfH, 0a4H, 0d6H, 0f5H, 0a1H, 0a3H, 00H
	ORG $+25
	ORG $+1
	DW	00H
	DB	00H
	DB	00H
	DB	00H
	DB	'      ', 0e5H, 0fdH, 0cdH, 0fdH, 0e8H, 0ccH, 0caH, 0abH, 0dfH
	DB	0ccH, '???', 0eeH, 0dcH, '?', 0a3H, 0acH, 0f1H, 0feH, 0e9H, 0a9H
	DB	'????', 0e0H, 0f7H, ' YES', 0f6H, 0a6H, 0caH, 0a6H, 00H
	ORG $+17
	ORG $+1
	DW	00H
	DB	00H
	DB	00H
	DB	00H
	DB	'  ', 0ecH, 0a4H, '?', 0d0H, 0ecH, 0f6H, 0e2H, 0eeH, 0dcH
	DB	0e8H, 0ccH, 0caH, 0abH, 0caH, 0a5H, 0ecH, 0fdH, '?', 0eeH, 0dcH
	DB	'?', 0e7H, 0eaH, 0d6H, 0f5H, 0a1H, 0a3H, 00H
	ORG $+30
	ORG $+1
	DW	04H
	DB	04H
	DB	00H
	DB	00H
	DB	'2.?', 0d4H, 0e0H, 00H
	ORG $+54
	ORG $+1
	DW	00H
	DB	00H
	DB	00H
	DB	00H
	DB	'      ?', 0e8H, 0ccH, 0caH, 0abH, 0dfH, 0ccH, 0fbH, 0faH
	DB	0d0H, 0ecH, 0f6H, 0e2H, 0eeH, 0dcH, 0e8H, 0ccH, 0caH, 0abH, 'P'
	DB	'K?', 0a3H, 0acH, 0f1H, 0feH, 0e9H, 0a9H, '??', 0d4H, 0e0H, '?'
	DB	0e0H, 0f7H, ' YES', 00H
	ORG $+14
	ORG $+1
	DW	00H
	DB	00H
	DB	00H
	DB	00H
	DB	'  ', 0e6H, 0d4H, 0fdH, 0a8H, 0d8H, 0fcH, '?', 0d8H, 0fcH
	DB	0a3H, 0acH, 0d0H, 0ecH, 0f1H, 0e9H, 0ecH, 0e9H, 0dbH, 0b0H, 0e4H
	DB	0ceH, 0f9H, 0bbH, 0eaH, 0fdH, '??', 0d8H, 0fcH, 0e9H, 0d3H, 0dfH
	DB	0beH, 0caH, 0c7H, 0eeH, 0dcH, 0a1H, 0b4H, '?', 0d0H, 0ecH, 0f6H
	DB	0e2H, 00H
	ORG $+13
	ORG $+1
	DW	00H
	DB	00H
	DB	00H
	DB	00H
	DB	'  ', 0e8H, 0ccH, 0caH, 0abH, '?', 0d4H, 0e0H, 0a1H, 0b5H
	DB	0eeH, 0dcH, 0e4H, 0ceH, '?', 0f6H, 0a6H, '??', 0ecH, 0fdH, '?', 0d4H
	DB	0e0H, '?', 0d8H, 0fcH, 0d6H, 0f5H, 0a1H, 0a3H, 00H
	ORG $+27
	ORG $+1
	DW	00H
	DB	00H
	DB	00H
	DB	00H
	DB	'      ?', 0e8H, 0e2H, 0a3H, 0acH, '???', 0e7H, 0eaH, 0e5H
	DB	0a5H, 0d2H, 0f6H, 0fbH, 0bbH, 0dfH, 0d3H, 'PK', 0a3H, 0acH, 0f1H
	DB	0feH, 0e9H, 0a9H, '?', 0dbH, 0b0H, '????', 0d4H, 0e0H, 00H
	ORG $+18
	ORG $+1
	DW	00H
	DB	00H
	DB	00H
	DB	00H
	DB	'  ?', 0e0H, 0f7H, ' YES', 0a3H, 0acH, 0e6H, 0d4H, 0fdH, 0a8H
	DB	'?', 0dbH, 0b0H, '??', 0d8H, 0fcH, '?', 0d8H, 0fcH, 0d0H, 0ecH
	DB	0f1H, 0e9H, 0ecH, 0e9H, 0dbH, 0b0H, 0e4H, 0ceH, 0f9H, 0bbH, 0a1H
	DB	0b4H, '?', 0d0H, 0ecH, 0f6H, 0e2H, 00H
	ORG $+15
	ORG $+1
	DW	00H
	DB	00H
	DB	00H
	DB	00H
	DB	'  ', 0e8H, 0ccH, 0caH, 0abH, '?', 0d4H, 0e0H, 0a1H, 0b5H
	DB	0eeH, 0dcH, 0e4H, 0ceH, '?', 0f6H, 0a6H, '??', 0ecH, 0fdH, '?', 0d4H
	DB	0e0H, '?', 0d8H, 0fcH, 0d6H, 0f5H, 0a1H, 0a3H, 'PK?', 0e1H, 0d6H
	DB	0fdH, 0a8H, '?', 0d4H, 0e0H, 00H
	ORG $+17
	ORG $+1
	DW	00H
	DB	00H
	DB	00H
	DB	00H
	DB	'  ??', 0edH, 0bbH, '???NO', 0a1H, 0a3H, 00H
	ORG $+46
	ORG $+1
	DW	05H
	DB	04H
	DB	00H
	DB	00H
	DB	'3.', 0ceH, 0dfH, '?', 0d9H, 0a3H, 0f8H, 0b8H, 00H
	ORG $+50
	ORG $+1
	DW	00H
	DB	00H
	DB	00H
	DB	00H
	DB	'  ?', 0e8H, 0ccH, 0caH, 0abH, '?', 0dfH, 0ccH, 0e9H, 0a9H
	DB	0fbH, 0bbH, 0dfH, 0d3H, 0ceH, 0dfH, '?', 0d9H, 0a3H, 0f8H, 0b8H
	DB	'?', 0a3H, 0acH, 0f1H, 0feH, 0e9H, 0a9H, 0e0H, 0bbH, '?', 0ceH
	DB	0dfH, '?', 0d9H, 0a3H, 0f8H, 0b8H, '?', 0e0H, 0f7H, 00H
	ORG $+16
	ORG $+1
	DW	00H
	DB	00H
	DB	00H
	DB	00H
	DB	'   YES', 0a3H, 0acH, 0e6H, 0d4H, 0fdH, 0a8H, 0d8H, 0fcH, '?'
	DB	0d8H, 0fcH, 0d0H, 0ecH, 0f1H, 0e9H, 0ecH, 0e9H, 0dbH, 0b0H, 0e4H
	DB	0ceH, 0f9H, 0bbH, 0eaH, 0fdH, '??', 0d8H, 0fcH, 0f1H, 0a7H, 0dfH
	DB	0beH, 0caH, 0c7H, 0eeH, 0dcH, 0a1H, 0b4H, 0ceH, 0dfH, 00H
	ORG $+12
	ORG $+1
	DW	00H
	DB	00H
	DB	00H
	DB	00H
	DB	'  ?', 0d9H, 0a3H, 0f8H, 0b8H, 0a1H, 0b5H, 0f6H, 0a6H, 0caH
	DB	0a6H, 0ecH, 0a4H, 0d6H, 0f5H, 0a3H, 0acH, 0f3H, 0aeH, '?', 0d9H
	DB	0a3H, 0f8H, 0b8H, '??', 0d2H, 0fdH, 0ecH, 0e9H, '??', 0dbH, 0b0H
	DB	0e8H, 0ccH, 0caH, 0abH, 0eeH, 0dcH, 0d9H, 0a3H, 00H
	ORG $+15
	ORG $+1
	DW	00H
	DB	00H
	DB	00H
	DB	00H
	DB	'  ', 0f8H, 0b8H, 0a1H, 0a3H, 00H
	ORG $+53
	ORG $+1
	DW	00H
	DB	04H
	DB	00H
	DB	00H
	DB	'4.', 0d6H, 0fdH, 0f4H, 0b8H, 00H
	ORG $+53
	ORG $+1
	DW	00H
	DB	00H
	DB	00H
	DB	00H
	DB	'  ', 0d6H, 0fdH, 0f4H, 0b8H, 0caH, 0a6H, 0ecH, 0a4H, '??'
	DB	0eeH, 0efH, '?', 0fbH, 0faH, '?', 0e7H, 0eaH, 0a1H, 0a3H, 0eeH
	DB	0efH, '?', 0e3H, 0c0H, 0f2H, 0a6H, '?', 0eeH, 0a4H, '????', 0d8H
	DB	0fcH, 0dfH, 0beH, 00H
	ORG $+19
	ORG $+1
	DW	00H
	DB	00H
	DB	00H
	DB	00H
	DB	'  ', 0eeH, 0dcH, 0e8H, 0ccH, 0caH, 0abH, 0d4H, 0b4H, 0caH
	DB	0a6H, 0ecH, 0a4H, '?', 0d3H, 0f0H, '??', 0eeH, 0dcH, '?', 0a3H
	DB	0acH, 0f8H, 0d0H, 0ceH, 0c0H, '? NPC', 0ceH, 0dfH, '?', 0a1H, 0a3H
	DB	'?', 0e7H, 0eaH, 0e3H, 0c0H, 00H
	ORG $+16
	ORG $+1
	DW	00H
	DB	00H
	DB	00H
	DB	00H
	DB	'  ', 0f2H, 0a6H, '???', 0f1H, 0feH, 0eaH, 0f3H, '??', 0ecH
	DB	0e9H, 0d1H, 0c3H, '??', 0eeH, 0dcH, 0e8H, 0ccH, 0caH, 0abH, 0eeH
	DB	0a6H, 0d2H, 0f6H, '?', 0d3H, 0f0H, '?', 0e1H, 0b6H, '?', 0eeH, 0dcH
	DB	'?', 00H
	ORG $+20
	ORG $+1
	DW	06H
	DB	04H
	DB	00H
	DB	00H
	DB	'5.', 0ceH, 0dfH, 0e6H, 0b6H, 00H
	ORG $+53
	ORG $+1
	DW	00H
	DB	00H
	DB	00H
	DB	00H
	DB	'  ?', 0e8H, 0ccH, 0caH, 0abH, 0dfH, 0ccH, '?', 0d0H, 0ecH
	DB	0f6H, 0e2H, 0eeH, 0dcH, 0e8H, 0ccH, 0caH, 0abH, '?', 0faH, 0bcH
	DB	0ceH, 0dfH, 0e6H, 0b6H, '?', 0a3H, 0acH, 0e2H, 0cdH, 0e9H, 0a9H
	DB	0e0H, 0bbH, '?', 0ceH, 0dfH, 0e6H, 0b6H, '?', 0e0H, 0f7H, 00H
	ORG $+15
	ORG $+1
	DW	00H
	DB	00H
	DB	00H
	DB	00H
	DB	'   YES', 0a3H, 0acH, 0e6H, 0d4H, 0fdH, 0a8H, 0d8H, 0fcH, '?'
	DB	0d8H, 0fcH, 0d0H, 0ecH, 0f1H, 0e9H, 0ecH, 0e9H, 0dbH, 0b0H, 0e4H
	DB	0ceH, 0f9H, 0bbH, 0eaH, 0fdH, '??', 0d8H, 0fcH, 0f1H, 0a7H, 0dfH
	DB	0beH, 0caH, 0c7H, 0eeH, 0dcH, 0a1H, 0b4H, 0ceH, 0dfH, 00H
	ORG $+12
	ORG $+1
	DW	00H
	DB	00H
	DB	00H
	DB	00H
	DB	'  ', 0e6H, 0b6H, 0a1H, 0b5H, 0e4H, 0ceH, '?', 0a3H, 0acH
	DB	0f1H, 0fdH, 0fdH, 0a8H, 0eeH, 0a2H, 0dbH, 0afH, 0dfH, 0beH, '?'
	DB	0e1H, 0b6H, 0e9H, 0a9H, 0ceH, 0dfH, 0e6H, 0b6H, 0eeH, 0dcH, 0daH
	DB	0aaH, 0f9H, 0a1H, 0a3H, 0a8H, '?', 0fbH, 0e4H, '?', 0daH, 0aaH
	DB	0fbH, 0e4H, 00H
	ORG $+13
	ORG $+1
	DW	00H
	DB	00H
	DB	00H
	DB	00H
	DB	'  ', 0d4H, 0b3H, 0ceH, 0fdH, 0a3H, 0a9H, 0a3H, 0acH, 0dbH
	DB	0afH, 0fbH, 0bfH, 0ceH, 0dfH, 0e6H, 0b6H, 0daH, 0aaH, 0f9H, 0a1H
	DB	0ecH, 0a4H, 0fdH, 0a8H, 0f1H, 0feH, 0e9H, 0a9H, 0d0H, 0ecH, 0f1H
	DB	0e9H, 0ecH, 0e9H, 0dbH, 0b0H, 0e4H, 0ceH, 0f9H, 0bbH, 'OK?', 0ceH
	DB	0dfH, 0e6H, 0b6H, 00H
	ORG $+10
	ORG $+1
	DW	00H
	DB	00H
	DB	00H
	DB	00H
	DB	'  ', 0f6H, 0a6H, '??', 0efH, 0d2H, 0a3H, 0acH, 0f3H, 0aeH
	DB	'?', 0f6H, 0a6H, 0d9H, 0e9H, 0dbH, 0f6H, 0eeH, 0a2H, 0ccH, 0daH
	DB	'?', 0ceH, 0dfH, 0e6H, 0b6H, 0eeH, 0dcH, 0daH, 0aaH, 0f9H, 0a1H
	DB	0d6H, 0f5H, 0a3H, 0acH, 0f1H, 0feH, 0e9H, 0a9H, '?', 0ecH, 0e9H
	DB	00H
	ORG $+14
	ORG $+1
	DW	00H
	DB	00H
	DB	00H
	DB	00H
	DB	'  ', 0dbH, 0b0H, '??', 0d9H, 0e9H, '?', 0eeH, 0a2H, 0e4H
	DB	0ceH, 0f9H, 0bbH, 'OK?', 0ceH, 0dfH, 0e6H, 0b6H, 0f6H, 0a6H, '?'
	DB	0e8H, 0c7H, 0e0H, 0f7H, 0d6H, 0f5H, 0a1H, 0a3H, 00H
	ORG $+26
	ORG $+1
	DW	00H
	DB	00H
	DB	00H
	DB	00H
	DB	'  ', 0f1H, 0bcH, 0ebH, 0f2H, 0a3H, 0baH, 0ecH, 0e9H, 0f3H
	DB	0adH, 0ceH, 0dfH, 0e6H, 0b6H, 0eeH, 0dcH, 0daH, 0aaH, 0f9H, 0a1H
	DB	0ecH, 0a4H, ' 2??', 0dfH, 0beH, 0f9H, 0daH, 0a3H, 0acH, '?', 0daH
	DB	0aaH, 0ecH, 0e9H, 0f3H, 0adH, 0ecH, 0a4H, ' 1', 0f1H, 0feH, 00H
	ORG $+12
	ORG $+1
	DW	00H
	DB	00H
	DB	00H
	DB	00H
	DB	'        ?', 0dfH, 0beH, 0f9H, 0daH, 0a3H, 0acH, 0e5H, 0b4H
	DB	0eaH, 0f3H, 0ccH, 0daH, 0d2H, 0fdH, 0eeH, 0dcH, 0daH, 0aaH, 0f9H
	DB	0a1H, 0dfH, 0ccH, 0ceH, 0dfH, 0e6H, 0b6H, 0a3H, 0acH, '?', 0f1H
	DB	0ecH, 0dcH, 0ddH, 0ceH, 0dfH, 0e6H, 0b6H, 0a1H, 0a3H, 00H
	ORG $+11
	ORG $+1
	ORG $+2
?help_desc_13@@3PAUDESC@@A DW 00H			; help_desc_13
	DB	04H
	DB	00H
	DB	00H
	DB	'1.', 0d9H, 0ebH, 0d0H, 0efH, 00H
	ORG $+53
	ORG $+1
	DW	00H
	DB	00H
	DB	00H
	DB	00H
	DB	'  ??', 0cdH, 0f4H, '?(?', 0faH, 0aaH, 0d5H, 0f4H, 0d3H, 0deH
	DB	0a1H, 0a2H, 0caH, 0a6H, 0daH, 0e3H, '?)??', 0a3H, 0baH, '?', 0a1H
	DB	0a2H, 0ddH, 0a8H, 0a1H, 0a2H, 0cdH, 0e2H, 0dcH, 0eaH, 0a1H, 0a2H
	DB	0f0H, 0d0H, 00H
	ORG $+17
	ORG $+1
	DW	00H
	DB	00H
	DB	00H
	DB	00H
	DB	'  ??', 0cdH, 0f4H, '?(?', 0faH, 0aaH, 0d5H, 0f4H, 0d3H, 0deH
	DB	0a1H, 0a2H, 0dcH, 0f4H, 0caH, 0a6H, 0daH, 0e3H, '?)??', 0a3H, 0baH
	DB	0e0H, 0b4H, '?', 00H
	ORG $+27
	ORG $+1
	DW	00H
	DB	00H
	DB	00H
	DB	00H
	DB	'  ??', 0cdH, 0f4H, '?(?', 0faH, 0aaH, 0d5H, 0f4H, 0e1H, 0b3H
	DB	0a1H, 0a2H, 0dcH, 0f4H, 0caH, 0a6H, 0daH, 0e3H, '?)??', 0a3H, 0baH
	DB	0cfH, 0e1H, 0a1H, 0a2H, 0fcH, 0deH, 0d5H, 0f4H, '?', 00H
	ORG $+21
	ORG $+1
	DW	00H
	DB	00H
	DB	00H
	DB	00H
	DB	'  ( ', 0cbH, 0cbH, 0ddH, 0c2H, 0eaH, 0f3H, 0efH, 0f1H, '?'
	DB	'?', 0d9H, 0e9H, 0efH, 0f1H, '? 2', 0d3H, 0deH, '?', 0a1H, 0a2H
	DB	0caH, 0c0H, 0f5H, 0bdH, 0e1H, 0b6H, '??', 0eeH, 0dcH, 0daH, 0aaH
	DB	0f9H, 0a1H, 0dcH, 0f4H, '?', 00H
	ORG $+16
	ORG $+1
	DW	00H
	DB	00H
	DB	00H
	DB	00H
	DB	'  ', 0dfH, 0d3H, 0d4H, 0d2H, ' )', 00H
	ORG $+51
	ORG $+1
	DW	00H
	DB	04H
	DB	00H
	DB	00H
	DB	'2.', 0dbH, 0c1H, 0ceH, 0fdH, 00H
	ORG $+53
	ORG $+1
	DW	00H
	DB	00H
	DB	00H
	DB	00H
	DB	'  ?', 0ddH, 0bbH, ': ', 0d4H, 0dfH, 0fbH, 0e4H, 0d9H, 0b6H
	DB	0edH, 0adH, 00H
	ORG $+44
	ORG $+1
	DW	00H
	DB	00H
	DB	00H
	DB	00H
	DB	'  ?', 0ddH, 0bbH, ': ?', 0e3H, 0f3H, 0ddH, 0acH, 0fbH, 0e4H
	DB	0e2H, 0cfH, '?', 00H
	ORG $+42
	ORG $+1
	DW	00H
	DB	00H
	DB	00H
	DB	00H
	DB	'  ', 0e2H, 0a2H, 0ddH, 0bbH, ': ', 0ccH, 0fcH, 0f2H, 0a6H
	DB	0fbH, 0e4H, 0e2H, 0a2H, '?', 00H
	ORG $+42
	ORG $+1
	DW	00H
	DB	00H
	DB	00H
	DB	00H
	DB	'  ', 0e3H, 0f3H, '?: ?', 0fbH, 0e4H, 0dcH, 0d7H, 00H
	ORG $+47
	ORG $+1
	DW	00H
	DB	00H
	DB	00H
	DB	00H
	DB	'  ( ', 0cbH, 0cbH, 0ddH, 0c2H, 0eaH, 0f3H, 0efH, 0f1H, '?'
	DB	'?', 0d9H, 0e9H, 0efH, 0f1H, '? 2', 0d3H, 0deH, '?', 0a1H, 0a2H
	DB	0caH, 0c0H, 0f5H, 0bdH, 0e1H, 0b6H, '??', 0eeH, 0dcH, 0daH, 0aaH
	DB	0f9H, 0a1H, 0dcH, 0f4H, '?', 00H
	ORG $+16
	ORG $+1
	DW	00H
	DB	00H
	DB	00H
	DB	00H
	DB	'  ', 0dfH, 0d3H, 0d4H, 0d2H, ' )', 00H
	ORG $+51
	ORG $+1
	DW	00H
	DB	04H
	DB	00H
	DB	00H
	DB	'3.', 0d4H, 0b3H, 0ceH, 0fdH, 00H
	ORG $+53
	ORG $+1
	DW	00H
	DB	00H
	DB	00H
	DB	00H
	DB	'      ', 0eeH, 0a4H, 0daH, 0aaH, 0f9H, 0a1H, '??', 0eeH, 0dcH
	DB	0cbH, 0cbH, 0caH, 0a6H, '?', 0d4H, 0b3H, 0ceH, 0fdH, 0a3H, 0acH
	DB	0daH, 0aaH, 0f9H, 0a1H, '?', 0eaH, 0c8H, 0ecH, 0e9H, 0cdH, 0ecH
	DB	'15', 0ccH, 0abH, 0a3H, 0acH, 0e5H, 0b4H, 00H
	ORG $+13
	ORG $+1
	DW	00H
	DB	00H
	DB	00H
	DB	00H
	DB	'  ', 0e8H, 0ccH, 0caH, 0abH, '?', 0d4H, 0f0H, 0dcH, 0f4H
	DB	'?', 0e9H, 0c4H, 0fbH, 0e4H, 0eaH, 0f3H, 0f1H, 0ecH, 0e9H, 0a9H
	DB	0daH, 0aaH, 0f9H, 0a1H, '?', 0d6H, 0e7H, '??', 0a3H, 0acH, 0caH
	DB	0a6H, '?', 0edH, 0bbH, 0d0H, 0f9H, '??', 00H
	ORG $+17
	ORG $+1
	DW	00H
	DB	00H
	DB	00H
	DB	00H
	DB	'  ', 0e9H, 0c4H, 0dcH, 0f4H, 0d3H, 0f0H, 0fbH, 0e4H, 0f1H
	DB	0ecH, 0e9H, 0a9H, 0eeH, 0dcH, 0daH, 0aaH, 0f9H, 0a1H, 0d4H, 0b3H
	DB	0ceH, 0fdH, 0f0H, 0edH, 0dbH, 0afH, 0eeH, 0a4H, 0deH, 0ccH, 0d3H
	DB	0deH, 0f5H, 0bdH, ' ( 4?', 0f5H, 0f3H, 0dfH, 0e6H, 0f2H, 0a2H, ')'
	DB	' ', 00H
	ORG $+10
	ORG $+1
	DW	00H
	DB	00H
	DB	00H
	DB	00H
	DB	'  ?', 0eeH, 0dcH, '24', 0dfH, 0c2H, 0efH, 0c1H, '? (', 0caH
	DB	0a6H, 0f0H, 0edH, 0dbH, 0afH, ' 6? )', 0a3H, 0acH, 0e5H, 0a5H, 0caH
	DB	0a6H, 0f2H, 0b8H, 0caH, 0c0H, 0f5H, 0bdH, 0eeH, 0dcH, 0d4H, 0b3H
	DB	0ceH, 0fdH, 0efH, 0c1H, 0a1H, 0a2H, 00H
	ORG $+12
	ORG $+1
	DW	00H
	DB	00H
	DB	00H
	DB	00H
	DB	'  ?', 0eaH, 0c2H, 0a1H, 0a2H, 0e1H, 0c8H, 0eeH, 0a7H, 0efH
	DB	0c1H, '??', 0edH, 0bbH, 0d0H, 0f9H, 0e1H, 0b6H, 0e2H, 0cdH, 0e9H
	DB	0a9H, 0eeH, 0dcH, 0daH, 0aaH, 0f9H, 0a1H, 0a1H, 0a3H, 0e5H, 0fdH
	DB	': ', 0fcH, 0deH, '??', 0a1H, 0a2H, '?', 00H
	ORG $+15
	ORG $+1
	DW	00H
	DB	00H
	DB	00H
	DB	00H
	DB	'  ', 0d5H, 0f4H, 0fcH, 0deH, '??', 0a1H, 0a2H, '?', 0fcH
	DB	0c0H, '?', 0a1H, 0a2H, 0e9H, 0e2H, 0d9H, 0beH, 0a1H, 0a2H, 0efH
	DB	0f1H, '?', 0f5H, 0aeH, 0a1H, 0a6H, 0a1H, 0a6H, 0a1H, 0a6H, 0d4H
	DB	0f5H, 0d4H, 0f5H, 0a1H, 0a3H, '?', 0e8H, 0e2H, 0a3H, 0acH, 00H
	ORG $+15
	ORG $+1
	DW	00H
	DB	00H
	DB	00H
	DB	00H
	DB	'  ', 0f5H, 0bdH, '?', 0eeH, 0dcH, ' NPC', 0f1H, 0e9H, 0e5H
	DB	0a5H, 0eaH, 0f3H, '??', 0daH, 0aaH, 0f9H, 0a1H, 0eeH, 0dcH, 0a3H
	DB	0acH, 0e5H, 0fdH, ' :', 0f7H, 0e5H, '?', 0f9H, 0a1H, '???', 0a1H
	DB	0a3H, 00H
	ORG $+18
	ORG $+1
	DW	00H
	DB	00H
	DB	00H
	DB	00H
	DB	'      ', 0e5H, 0a5H, 0caH, 0a6H, '??', 0daH, 0aaH, '?', 0efH
	DB	0d2H, 0e0H, 0f7H, '?', 0cbH, 0ecH, 0a3H, 0acH, '??', 0edH, 0bbH
	DB	0d0H, 0f9H, 0d9H, 0a3H, 0f8H, 0b8H, 0f1H, 0e9H, 0e1H, 0b6H, 0e9H
	DB	0a9H, 0d0H, 0f6H, 0e3H, 0e1H, 00H
	ORG $+15
	ORG $+1
	DW	00H
	DB	00H
	DB	00H
	DB	00H
	DB	'  ', 0eeH, 0dcH, 0e8H, 0ccH, 0caH, 0abH, 0a3H, 0acH, 0eeH
	DB	0a2H, '???', 0daH, 0aaH, '?', 0cbH, 0ecH, 0a3H, 0acH, 0eeH, 0a2H
	DB	0e4H, 0ceH, 0f9H, 0bbH, 0d4H, 0b3H, 0ceH, 0fdH, '?', 0f7H, 0eaH
	DB	0edH, 0bbH, 0d0H, 0f9H, 0dfH, 0ccH, 0d0H, 0f6H, 0eeH, 0dcH, 00H
	ORG $+14
	ORG $+1
	DW	00H
	DB	00H
	DB	00H
	DB	00H
	DB	'  ', 0daH, 0aaH, 0f9H, 0a1H, 0efH, 0c3H, 0fcH, 0c1H, 0e0H
	DB	0a9H, 0f1H, 0a7H, '? 2', 0f9H, 0bbH, 0a1H, 0a2H, 0ecH, 0a4H, 0dbH
	DB	0afH, 0dfH, 0beH, 0daH, 0aaH, 0f9H, 0a1H, 0a3H, 0acH, 0e6H, 0d4H
	DB	0fdH, 0a8H, 0eeH, 0a2H, '?', 0ecH, 0fdH, 0ecH, 0f2H, 0ebH, 0f2H
	DB	0ecH, 0e9H, 00H
	ORG $+11
	ORG $+1
	DW	00H
	DB	00H
	DB	00H
	DB	00H
	DB	'  ', 0edH, 0aeH, 0fdH, 0a8H, 0e4H, 0ceH, 0f9H, 0bbH, '?', 0e1H
	DB	0eaH, 0a3H, 0acH, '?', 0caH, 0a6H, 0f7H, 0eaH, 0daH, 0aaH, 0f9H
	DB	0a1H, 0d0H, 0f6H, '?', 0edH, 0bbH, 0d0H, 0f9H, 0e1H, 0b6H, '??'
	DB	0d9H, 0a3H, 0f8H, 0b8H, 0f1H, 0e9H, 0eeH, 0dcH, 0e8H, 0ccH, 00H
	ORG $+14
	ORG $+1
	DW	00H
	DB	00H
	DB	00H
	DB	00H
	DB	'  ', 0caH, 0abH, 0a3H, 0acH, 0d3H, 0a3H, 0eaH, 0f3H, ' 2'
	DB	'?', 0e0H, 0bbH, '??', 0cbH, 0ecH, '?', 0dbH, 0b0H, 0eeH, 0a6H
	DB	0d2H, 0f6H, 0e2H, 0a5H, 0d3H, 0f0H, 0edH, 0bbH, 0d0H, 0f9H, 0e1H
	DB	0b6H, 0d0H, 0f6H, 0daH, 0aaH, 0f9H, 0a1H, 0a3H, 0acH, '1.', 00H
	ORG $+13
	ORG $+1
	DW	00H
	DB	00H
	DB	00H
	DB	00H
	DB	'  ', 0f9H, 0b1H, '?', 0eeH, 0a4H, 0d4H, 0d2H, 0e0H, 0f8H
	DB	0cfH, 0b9H, '2.', 0d4H, 0b3H, 0ceH, 0fdH, '?', 0f9H, 0b1H, '?', 0e9H
	DB	0a9H, 0eaH, 0f3H, 0cdH, 0f6H, 0eaH, 0c8H, 0a1H, 0a3H, 0f3H, 0aeH
	DB	0e8H, 0e2H, 0a3H, 0acH, 0eaH, 0f3H, 0deH, 0c1H, 0daH, 0aaH, 0f9H
	DB	0a1H, 00H
	ORG $+12
	ORG $+1
	DW	00H
	DB	00H
	DB	00H
	DB	00H
	DB	'  ', 0e3H, 0c0H, 0dcH, 0f4H, 0d2H, 0f6H, 0d0H, 0f6H, 0dbH
	DB	0afH, '??', 0d0H, 0f6H, 0eeH, 0dcH, 0a1H, 0a3H, 00H
	ORG $+39
	ORG $+1
?help_desc_14@@3PAUDESC@@A DW 00H			; help_desc_14
	DB	00H
	DB	00H
	DB	00H
	DB	'?', 0daH, 0aaH, 0f0H, 0b6H, 0d6H, 0f5H, 0edH, 0bbH, 0faH
	DB	0bcH, 0eeH, 0a4H, '?', 0d4H, 0e0H, 0f1H, 0e9H, 0f8H, 0daH, '?', 0e8H
	DB	0e2H, 0a3H, 0acH, 0e5H, 0a5H, 0caH, 0a6H, 0eeH, 0a4H, '?', 0faH
	DB	0bcH, 0ecH, 0f2H, '?', 0faH, 0b0H, 0daH, 0bbH, 0f1H, 0e9H, '?', 00H
	ORG $+15
	ORG $+1
	DW	00H
	DB	00H
	DB	00H
	DB	00H
	DB	0d4H, 0f0H, 0a3H, 0acH, 0ccH, 0daH, 0caH, 0a6H, 0e9H, 0cdH
	DB	0caH, 0c0H, 0f5H, 0bdH, 0edH, 0e4H, 0f1H, 0e9H, 0eeH, 0dcH, '?'
	DB	0daH, 0aaH, 0efH, 0c1H, 0a3H, 0acH, '?', 0edH, 0bbH, 0d0H, 0f9H
	DB	0eeH, 0dcH, '?', 0faH, 0beH, '?', 0ebH, 0c0H, '???', 00H
	ORG $+16
	ORG $+1
	DW	00H
	DB	00H
	DB	00H
	DB	00H
	DB	0d0H, 0fcH, 0d2H, 0f6H, 0a3H, 0acH, 0caH, 0c0H, 0f5H, 0bdH
	DB	0eeH, 0dcH, '?', 0daH, 0aaH, 0d0H, 0fcH, 0d2H, 0f6H, 0e5H, 0a5H
	DB	0dcH, 0f4H, '?', 0dfH, 0d3H, 0d4H, 0d2H, 0a3H, 0acH, 0f3H, 0aeH
	DB	0e8H, 0e2H, 0a3H, 0acH, 0ccH, 0daH, 0caH, 0a6H, '?', 0edH, 0bbH
	DB	0d0H, 0f9H, '?', 00H
	ORG $+13
	ORG $+1
	DW	00H
	DB	00H
	DB	00H
	DB	00H
	DB	'?', 0e9H, 0c4H, 0dcH, 0f4H, 0d3H, 0f0H, 0fbH, 0e4H, 0f1H
	DB	0ecH, 0e9H, 0a9H, 0a1H, 0a2H, 0fdH, 0ecH, '?', 0eeH, 0dcH, '?', 0daH
	DB	0aaH, 0f0H, 0edH, 0dbH, 0afH, 0eeH, 0a4H, 0deH, 0ccH, 0d3H, 0deH
	DB	0f5H, 0bdH, ' ( 4?', 0f5H, 0f3H, 0dfH, 0e6H, 0f2H, 0a2H, 00H
	ORG $+13
	ORG $+1
	DW	00H
	DB	00H
	DB	00H
	DB	00H
	DB	' )?', 0eeH, 0dcH, '?', 0daH, 0aaH, 0efH, 0c1H, 0f1H, 0e9H
	DB	0a3H, 0acH, 0e3H, 0e6H, 0ecH, 0d1H, 0daH, 0aaH, 0d8H, 0dfH, '?'
	DB	0ecH, 0d1H, 0caH, 0a6H, 0f0H, 0edH, 0dbH, 0afH, ' 5', 0f1H, 0feH
	DB	0a3H, 0acH, '?', 0dfH, 0e6H, 0fdH, 0a8H, 0f5H, 0ccH, 0d2H, 0fdH
	DB	00H
	ORG $+13
	ORG $+1
	DW	00H
	DB	00H
	DB	00H
	DB	00H
	DB	0caH, 0a6H, 0f0H, 0edH, 0dbH, 0afH, '10', 0f1H, 0feH, '?', 0daH
	DB	0aaH, 0a3H, 0acH, 0e5H, 0a5H, 0f6H, 0a6H, 0e3H, 0c0H, 0ecH, 0e9H
	DB	'?', 0ecH, 0d1H, 0daH, 0aaH, 0f5H, 0ccH, 0d2H, 0fdH, '?', 0eaH
	DB	0f3H, '15', 0f1H, 0feH, '?', 0daH, 0aaH, 0a1H, 0a3H, 00H
	ORG $+15
	ORG $+1
	ORG $+4
?help_desc_15@@3PAUDESC@@A DW 00H			; help_desc_15
	DB	00H
	DB	00H
	DB	00H
	DB	0a3H, 0aaH, '??', 0a3H, 0a8H, 0e8H, 0ccH, 0caH, 0abH, 0dcH
	DB	0e2H, 0e3H, 0f3H, 0a3H, 0a9H, 0a1H, 0a2H, 0ecH, 0e9H, '?', 0a3H
	DB	0a8H, 0e8H, 0ccH, 0caH, 0abH, 0fbH, 0e4H, '?', 0daH, 0aaH, 0a3H
	DB	0a9H, 0a1H, 0a2H, 0eeH, 0efH, '?', 0a3H, 0a8H, 0d4H, 0d2H, 0ecH
	DB	0e9H, 00H
	ORG $+14
	ORG $+1
	DW	00H
	DB	00H
	DB	00H
	DB	00H
	DB	'??', 0f1H, 0e9H, 0eeH, 0efH, 0ddH, 0bbH, 0ecH, 0d1H, 0daH
	DB	0aaH, 0d0H, 0e0H, '?', 0daH, 0aaH, 0a3H, 0a9H, 00H
	ORG $+40
	ORG $+1
	DW	00H
	DB	04H
	DB	00H
	DB	00H
	DB	'  ', 0ceH, 0c3H, 0d9H, 0a5H, 0efH, 0f1H, '?', 0a3H, 0adH
	DB	00H
	ORG $+48
	ORG $+1
	DW	00H
	DB	00H
	DB	00H
	DB	00H
	DB	'    ', 0fcH, 0deH, '?', 0efH, 0f1H, '?', 0a3H, 0baH, 0fcH
	DB	0e1H, '?', 0d2H, 0b1H, 0ceH, 0f9H, 0d5H, 0f4H, 0eeH, 0dcH, 0efH
	DB	0f1H, '?', 00H
	ORG $+33
	ORG $+1
	DW	00H
	DB	00H
	DB	00H
	DB	00H
	DB	'      ', 0f9H, 0ebH, '?', 0a3H, 0adH, 0f6H, 0bdH, 0eaH, 0efH
	DB	0eeH, 0dcH, 0efH, 0f1H, '?', 0a3H, 0adH, 0fcH, 0e1H, '???', 0d2H
	DB	0b1H, 0ceH, 0f9H, 0d5H, 0f4H, 0eeH, 0dcH, 0efH, 0f1H, '?', 0a1H
	DB	0a3H, 00H
	ORG $+19
	ORG $+1
	DW	00H
	DB	00H
	DB	00H
	DB	00H
	DB	'      ', 0ddH, 0b3H, 0d6H, 0f4H, 0e4H, 0baH, 0a3H, 0adH, 0edH
	DB	0b2H, '?', 0eeH, 0dcH, 0efH, 0f1H, '?', 0a3H, 0adH, 0fcH, 0e1H
	DB	'?', 0ecH, 0e9H, '?', 0d2H, 0b1H, 0ceH, 0f9H, 0d5H, 0f4H, 0eeH
	DB	0dcH, 0efH, 0f1H, '?', 0a1H, 0a3H, 00H
	ORG $+16
	ORG $+1
	DW	00H
	DB	00H
	DB	00H
	DB	00H
	DB	'      ', 0f0H, 0abH, '?', 0a3H, 0adH, 0ebH, 0daH, 0fbH, 0b3H
	DB	0eeH, 0dcH, 0efH, 0f1H, '?', 0a3H, 0adH, 0fcH, 0e1H, '?', 0eeH
	DB	0efH, '?', 0d2H, 0b1H, 0ceH, 0f9H, 0d5H, 0f4H, 0eeH, 0dcH, 0efH
	DB	0f1H, '?', 0a1H, 0a3H, 00H
	ORG $+18
	ORG $+1
	DW	00H
	DB	00H
	DB	00H
	DB	00H
	DB	'    ?', 0fbH, 0f9H, 0efH, 0f1H, '?', 0a3H, 0baH, 0fcH, 0e1H
	DB	'??', 0dfH, 0c8H, '??', 0eeH, 0dcH, 0efH, 0f1H, '?', 00H
	ORG $+34
	ORG $+1
	DW	00H
	DB	00H
	DB	00H
	DB	00H
	DB	'      ', 0e0H, 0a4H, '?', 0deH, 0a3H, 0e4H, 0baH, 0a3H, 0adH
	DB	0cdH, 0d4H, 0d4H, 0f5H, '?', 0fbH, 0f9H, 0efH, 0f1H, '?', 0a3H
	DB	0adH, 0eeH, 0efH, 0ddH, 0bbH, '???', 0dfH, 0c8H, 0fcH, 0e1H, '?'
	DB	0a1H, 0a3H, 00H
	ORG $+18
	ORG $+1
	DW	00H
	DB	00H
	DB	00H
	DB	00H
	DB	'      ', 0daH, 0b8H, '?', 0deH, 0a3H, 0a3H, 0adH, '?', 0fbH
	DB	0f9H, 0efH, 0f1H, '?', 0a3H, 0a8H, 0d4H, 0b8H, 0a3H, 0a9H, 0a3H
	DB	0adH, 0f1H, 0e9H, 0d4H, 0b8H, '??', 0fcH, 0e1H, '?', 0a1H, 0a3H
	DB	00H
	ORG $+21
	ORG $+1
	DW	00H
	DB	00H
	DB	00H
	DB	00H
	DB	'      ??', 0deH, 0a3H, 0a3H, 0adH, '?', 0fbH, 0f9H, 0efH
	DB	0f1H, '?', 0a3H, 0a8H, 0e0H, 0b4H, 0fbH, 0f9H, 0a3H, 0a9H, 0a3H
	DB	0adH, 0e0H, 0b4H, 0fbH, 0f9H, '??', 0fcH, 0e1H, '?', 0a1H, 0a3H
	DB	00H
	ORG $+20
	ORG $+1
	DW	00H
	DB	00H
	DB	00H
	DB	00H
	DB	'      ', 0e1H, 0b6H, '?', 0deH, 0a3H, 0a3H, 0adH, '?', 0fbH
	DB	0f9H, 0efH, 0f1H, '?', 0a3H, 0a8H, 0fbH, 0e8H, '?', 0a3H, 0a9H
	DB	0a3H, 0adH, 0fbH, 0e8H, '???', 0fcH, 0e1H, '?', 0a1H, 0a3H, 00H
	ORG $+21
	ORG $+1
	DW	00H
	DB	00H
	DB	00H
	DB	00H
	DB	'      ', 0e4H, 0c6H, '?', 0deH, 0a3H, 0a3H, 0adH, '?', 0fbH
	DB	0f9H, 0efH, 0f1H, '?', 0a3H, 0a8H, 0f1H, 0d0H, 0f6H, 0adH, 0a3H
	DB	0a9H, 0a3H, 0adH, 0f1H, 0d0H, 0f6H, 0adH, '??', 0fcH, 0e1H, '?'
	DB	0a1H, 0a3H, 00H
	ORG $+19
	ORG $+1
	DW	00H
	DB	00H
	DB	00H
	DB	00H
	DB	'      ', 0daH, 0b7H, '?', 0deH, 0a3H, 0a3H, 0adH, '?', 0fbH
	DB	0f9H, 0efH, 0f1H, '?', 0a3H, 0a8H, 0fbH, 0e7H, 0e2H, 0b2H, 0a3H
	DB	0a9H, 0a3H, 0adH, 0fbH, 0e7H, 0e2H, 0b2H, '??', 0fcH, 0e1H, '?'
	DB	0a1H, 0a3H, 00H
	ORG $+19
	ORG $+1
	ORG $+4
?help_desc_16@@3PAUDESC@@A DW 00H			; help_desc_16
	DB	00H
	DB	00H
	DB	00H
	DB	0a3H, 0aaH, '??', 0a3H, 0a8H, 0e8H, 0ccH, 0caH, 0abH, 0dcH
	DB	0e2H, 0e3H, 0f3H, 0a3H, 0a9H, 0a1H, 0a2H, 0ecH, 0e9H, '?', 0a3H
	DB	0a8H, 0e8H, 0ccH, 0caH, 0abH, 0fbH, 0e4H, '?', 0daH, 0aaH, 0a3H
	DB	0a9H, 0a1H, 0a2H, 0eeH, 0efH, '?', 0a3H, 0a8H, 0d4H, 0d2H, 0ecH
	DB	0e9H, 00H
	ORG $+14
	ORG $+1
	DW	00H
	DB	00H
	DB	00H
	DB	00H
	DB	'??', 0f1H, 0e9H, 0eeH, 0efH, 0ddH, 0bbH, 0ecH, 0d1H, 0daH
	DB	0aaH, 0d0H, 0e0H, '?', 0daH, 0aaH, 0a3H, 0a9H, 00H
	ORG $+40
	ORG $+1
	DW	00H
	DB	04H
	DB	00H
	DB	00H
	DB	'  ', 0fdH, 0d9H, 0e4H, 0deH, 0efH, 0f1H, '?', 0a3H, 0adH
	DB	0deH, 0c5H, 0ecH, 0d1H, 0daH, 0aaH, 0f9H, 0e8H, 0ecH, 0fdH, '?'
	DB	0dfH, 0c8H, '??', 0eeH, 0dcH, 0efH, 0f1H, '?', 00H
	ORG $+28
	ORG $+1
	DW	00H
	DB	00H
	DB	00H
	DB	00H
	DB	'    ', 0ecH, 0e9H, '??', 0dfH, 0c8H, '??', 0a3H, 0baH, 00H
	ORG $+45
	ORG $+1
	DW	00H
	DB	00H
	DB	00H
	DB	00H
	DB	'      ??', 0daH, 0b8H, 0deH, 0d9H, 0a3H, 0adH, 0d8H, 0edH
	DB	0d4H, 0b8H, 0eeH, 0dcH, 0efH, 0f1H, '?', 0a3H, 0adH, 0deH, 0c5H
	DB	0e8H, 0ccH, 0caH, 0abH, 0f9H, 0e8H, 0ecH, 0fdH, 0f1H, 0e9H, 0d4H
	DB	0b8H, '??', 0a3H, 0acH, 0e8H, 0ccH, 00H
	ORG $+14
	ORG $+1
	DW	00H
	DB	00H
	DB	00H
	DB	00H
	DB	'                ', 0caH, 0abH, 0d8H, 0dfH, 0ecH, 0e9H, 0fcH
	DB	0deH, 0f9H, 0eaH, '?1/10', 0f1H, 0a7H, 0e9H, 0d3H, 0d2H, 0b1H, 0ceH
	DB	0f9H, 0d5H, 0f4H, 0a1H, 0a3H, 00H
	ORG $+16
	ORG $+1
	DW	00H
	DB	00H
	DB	00H
	DB	00H
	DB	'      ', 0eaH, 0ceH, 0d1H, 0d1H, 0d2H, 0f9H, '?', 0a3H, 0adH
	DB	0ccH, 0e3H, 0fbH, 0f9H, 0eeH, 0dcH, 0efH, 0f1H, '?', 0a3H, 0adH
	DB	0deH, 0c5H, 0e8H, 0ccH, 0caH, 0abH, 0f9H, 0e8H, 0ecH, 0fdH, 0e0H
	DB	0b4H, 0fbH, 0f9H, '??', 0a3H, 0acH, 0e8H, 0ccH, 00H
	ORG $+13
	ORG $+1
	DW	00H
	DB	00H
	DB	00H
	DB	00H
	DB	'                ', 0caH, 0abH, 0eeH, 0dcH, 0dbH, 0c1H, 0e5H
	DB	0d9H, 0d5H, 0f4H, '?', 0f0H, 0abH, 0cdH, 0d4H, 0f3H, 0a6H, 0d9H
	DB	0e9H, 0dbH, 0f6H, 0f1H, 0aeH, 0ecH, 0f2H, 0f9H, 0bcH, '?', 0edH
	DB	0c2H, 0a1H, 0a3H, 00H
	ORG $+11
	ORG $+1
	DW	00H
	DB	00H
	DB	00H
	DB	00H
	DB	'      ', 0eeH, 0e8H, 0e1H, 0b6H, 0deH, 0d9H, 0a3H, 0adH, 0fbH
	DB	0e8H, '?', 0eeH, 0dcH, 0efH, 0f1H, '?', 0a3H, 0adH, 0deH, 0c5H
	DB	0e8H, 0ccH, 0caH, 0abH, 0f9H, 0e8H, 0ecH, 0fdH, 0fbH, 0e8H, '?'
	DB	'??', 0a3H, 0acH, 0e8H, 0ccH, 0caH, 0abH, 00H
	ORG $+14
	ORG $+1
	DW	00H
	DB	00H
	DB	00H
	DB	00H
	DB	'              ', 0eeH, 0dcH, 0faH, 0bcH, '??', 0d9H, 0e9H
	DB	0dbH, 0f6H, 0f0H, 0ceH, '?', 0efH, 0d2H, 0eeH, 0dcH, '?', 0faH
	DB	0bcH, 0a3H, 0a8H, 0d6H, 0c7H, 0e5H, 0fdH, '???', 00H
	ORG $+16
	ORG $+1
	DW	00H
	DB	00H
	DB	00H
	DB	00H
	DB	'              ', 0e9H, 0d2H, 0a3H, 0a9H, 0a1H, 0a3H, 00H
	ORG $+39
	ORG $+1
	DW	00H
	DB	00H
	DB	00H
	DB	00H
	DB	'      ?', 0ecH, 0a5H, '?', 0a3H, 0adH, 0f1H, 0d0H, 0eeH, 0dcH
	DB	0efH, 0f1H, '?', 0a3H, 0adH, 0deH, 0c5H, 0e8H, 0ccH, 0caH, 0abH
	DB	0f9H, 0e8H, 0ecH, 0fdH, 0f1H, 0d0H, 0f6H, 0adH, '??', 0a3H, 0acH
	DB	0e8H, 0ccH, 0caH, 0abH, 0eeH, 0dcH, 00H
	ORG $+14
	ORG $+1
	DW	00H
	DB	00H
	DB	00H
	DB	00H
	DB	'              ', 0d9H, 0a4H, 0f1H, 0e9H, 0e1H, 0e3H, '?', 0f9H
	DB	0bbH, 0cbH, 0bdH, 0a1H, 0a3H, 00H
	ORG $+32
	ORG $+1
	DW	00H
	DB	00H
	DB	00H
	DB	00H
	DB	'      ', 0f7H, 0e5H, 0d5H, 0aaH, 0e0H, 0a4H, 0a3H, 0adH, 0e2H
	DB	0b2H, 0d8H, 0f9H, 0eeH, 0dcH, 0efH, 0f1H, '?', 0a3H, 0adH, 0deH
	DB	0c5H, 0e8H, 0ccH, 0caH, 0abH, 0f9H, 0e8H, 0ecH, 0fdH, 0e2H, 0b2H
	DB	0d8H, 0f9H, '??', 0a3H, 0acH, 0e8H, 0ccH, 0caH, 0abH, 00H
	ORG $+12
	ORG $+1
	DW	00H
	DB	00H
	DB	00H
	DB	00H
	DB	'              ?', 0d9H, 0e9H, 0dbH, 0f6H, 0f1H, 0aeH, 0ecH
	DB	0f2H, 0f9H, 0bcH, '?', 0edH, 0c2H, 0a1H, 0a3H, 00H
	ORG $+29
	ORG $+1
	DW	00H
	DB	00H
	DB	00H
	DB	00H
	DB	'    ', 0eeH, 0efH, '??', 0dfH, 0c8H, '??', 0a3H, 0baH, '?'
	DB	0d2H, 0f6H, 0deH, 0c5H, 0eeH, 0efH, '?', 0f1H, 0e9H, 0ecH, 0e9H
	DB	0ddH, 0bbH, 0ddH, 0c2H, 0eeH, 0dcH, 0ecH, 0d1H, 0daH, 0aaH, 0f9H
	DB	0e8H, 0ecH, 0fdH, '?', 0dfH, 0c8H, 00H
	ORG $+16
	ORG $+1
	DW	00H
	DB	00H
	DB	00H
	DB	00H
	DB	'                  ??', 0a1H, 0a3H, 00H
	ORG $+37
	ORG $+1
	DW	00H
	DB	00H
	DB	00H
	DB	00H
	DB	'      ?', 0d5H, 0a6H, '?', 0a3H, 0adH, 0d4H, 0b8H, '?', 0eeH
	DB	0dcH, 0efH, 0f1H, '?', 0a3H, 0adH, 0deH, 0c5H, 0e8H, 0ccH, 0caH
	DB	0abH, 0f9H, 0e8H, 0ecH, 0fdH, 0f1H, 0e9H, 0d4H, 0b8H, '??', 0a1H
	DB	0a3H, 00H
	ORG $+19
	ORG $+1
	DW	00H
	DB	00H
	DB	00H
	DB	00H
	DB	'      ', 0eaH, 0ceH, 0d1H, 0d1H, 0d1H, 0d6H, 0deH, 0d9H, 0a3H
	DB	0adH, 0e0H, 0b4H, 0fbH, 0f9H, 0eeH, 0dcH, 0efH, 0f1H, '?', 0a3H
	DB	0adH, 0deH, 0c5H, 0e8H, 0ccH, 0caH, 0abH, 0f9H, 0e8H, 0ecH, 0fdH
	DB	0e0H, 0b4H, 0fbH, 0f9H, '??', 0a1H, 0a3H, 00H
	ORG $+14
	ORG $+1
	DW	00H
	DB	00H
	DB	00H
	DB	00H
	DB	'      ?', 0e1H, 0b6H, 0d1H, 0d1H, 0a3H, 0adH, 0fbH, 0e8H
	DB	0daH, 0bbH, 0eeH, 0dcH, 0efH, 0f1H, '?', 0a3H, 0adH, 0deH, 0c5H
	DB	0e8H, 0ccH, 0caH, 0abH, 0f9H, 0e8H, 0ecH, 0fdH, 0fbH, 0e8H, '?'
	DB	'??', 0a1H, 0a3H, 00H
	ORG $+18
	ORG $+1
	DW	00H
	DB	00H
	DB	00H
	DB	00H
	DB	'      ?', 0ecH, 0a5H, '?', 0a3H, 0adH, 0d9H, 0aeH, 0efH, 0f8H
	DB	0eeH, 0dcH, 0efH, 0f1H, '?', 0a3H, 0adH, 0deH, 0c5H, 0e8H, 0ccH
	DB	0caH, 0abH, 0f9H, 0e8H, 0ecH, 0fdH, 0f1H, 0d0H, 0f6H, 0adH, '?'
	DB	'?', 0a1H, 0a3H, 00H
	ORG $+18
	ORG $+1
	DW	00H
	DB	00H
	DB	00H
	DB	00H
	DB	'      ', 0f7H, 0e5H, 0d5H, 0a6H, 0d1H, 0d1H, 0a3H, 0adH, 0fbH
	DB	0e7H, 0e2H, 0b2H, 0eeH, 0dcH, 0efH, 0f1H, '?', 0a3H, 0adH, 0deH
	DB	0c5H, 0e8H, 0ccH, 0caH, 0abH, 0f9H, 0e8H, 0ecH, 0fdH, 0e2H, 0b2H
	DB	0d8H, 0f9H, '??', 0a1H, 0a3H, 00H
	ORG $+16
	ORG $+1
	ORG $+4
?help_desc_17@@3PAUDESC@@A DW 00H			; help_desc_17
	DB	00H
	DB	00H
	DB	00H
	DB	0a3H, 0aaH, '??', 0a3H, 0a8H, 0e8H, 0ccH, 0caH, 0abH, 0dcH
	DB	0e2H, 0e3H, 0f3H, 0a3H, 0a9H, 0a1H, 0a2H, 0ecH, 0e9H, '?', 0a3H
	DB	0a8H, 0e8H, 0ccH, 0caH, 0abH, 0fbH, 0e4H, '?', 0daH, 0aaH, 0a3H
	DB	0a9H, 0a1H, 0a2H, 0eeH, 0efH, '?', 0a3H, 0a8H, 0d4H, 0d2H, 0ecH
	DB	0e9H, 00H
	ORG $+14
	ORG $+1
	DW	00H
	DB	00H
	DB	00H
	DB	00H
	DB	'??', 0f1H, 0e9H, 0eeH, 0efH, 0ddH, 0bbH, 0ecH, 0d1H, 0daH
	DB	0aaH, 0d0H, 0e0H, '?', 0daH, 0aaH, 0a3H, 0a9H, 00H
	ORG $+40
	ORG $+1
	DW	00H
	DB	04H
	DB	00H
	DB	00H
	DB	'  ?', 0e0H, 0f5H, 0efH, 0f1H, '?', 0a3H, 0adH, 0deH, 0c5H
	DB	0d9H, 0bbH, 0ecH, 0e9H, 0dbH, 0b0H, 0eeH, 0dcH, '?', 0e0H, 0f5H
	DB	'?', 0dfH, 0e6H, '?', 0fbH, 0f9H, 00H
	ORG $+30
	ORG $+1
	DW	00H
	DB	00H
	DB	00H
	DB	00H
	DB	'    ', 0e4H, 0b9H, '?', 0a3H, 0baH, 0d3H, 0deH, 0f2H, 0a2H
	DB	0eeH, 0dcH, 0efH, 0f1H, '?', 0a3H, 0adH, 0deH, 0c5H, 0e8H, 0ccH
	DB	0caH, 0abH, 0f2H, 0a2H, '?', 0e0H, 0f5H, 0caH, 0a5H, 0cbH, 0adH
	DB	0a1H, 0a3H, 00H
	ORG $+22
	ORG $+1
	DW	00H
	DB	00H
	DB	00H
	DB	00H
	DB	'    ', 0e4H, 0b9H, 0cdH, 0e0H, 0d2H, 0f9H, 0deH, 0d9H, 0a3H
	DB	0baH, 0e2H, 0a9H, 0eeH, 0dcH, 0efH, 0f1H, '?', 0a3H, 0adH, 0deH
	DB	0c5H, 0e8H, 0ccH, 0caH, 0abH, 0e2H, 0a9H, '?', 0e0H, 0f5H, 0caH
	DB	0a5H, 0cbH, 0adH, 0a1H, 0a3H, 00H
	ORG $+19
	ORG $+1
	DW	00H
	DB	00H
	DB	00H
	DB	00H
	DB	'    ', 0ddH, 0b3H, 0d6H, 0f4H, 0daH, 0b8H, 0e4H, 0baH, 0a3H
	DB	0baH, 0fbH, 0fdH, 0e6H, 0faH, 0eeH, 0dcH, 0efH, 0f1H, '?', 0a3H
	DB	0adH, 0deH, 0c5H, 0e8H, 0ccH, 0caH, 0abH, 0fbH, 0fdH, '?', 0e0H
	DB	0f5H, 0caH, 0a5H, 0cbH, 0adH, 0a1H, 0a3H, 00H
	ORG $+17
	ORG $+1
	DW	00H
	DB	00H
	DB	00H
	DB	00H
	DB	'    ???', 0a3H, 0baH, 0f2H, 0f0H, '?', 0eeH, 0dcH, 0efH, 0f1H
	DB	'?', 0a3H, 0adH, 0deH, 0c5H, 0e8H, 0ccH, 0caH, 0abH, '??', 0e0H
	DB	0f5H, 0caH, 0a5H, 0cbH, 0adH, 0a1H, 0a3H, 00H
	ORG $+24
	ORG $+1
	DW	00H
	DB	00H
	DB	00H
	DB	00H
	DB	'    ', 0f9H, 0ebH, 0d8H, 0deH, 0d5H, 0c3H, 0deH, 0d9H, 0a3H
	DB	0baH, '?', 0fbH, 0faH, 0eeH, 0dcH, 0efH, 0f1H, '?', 0a3H, 0adH
	DB	0deH, 0c5H, 0e8H, 0ccH, 0caH, 0abH, 0fcH, 0e1H, '?', 0e0H, 0f7H
	DB	0d9H, 0e9H, '?', 0e0H, 0f5H, 0a1H, 0a3H, 00H
	ORG $+17
	ORG $+1
	DW	00H
	DB	00H
	DB	00H
	DB	00H
	DB	'    ', 0e4H, 0b9H, '?', 0f4H, 0deH, 0d5H, 0c3H, 0a3H, 0baH
	DB	0f3H, 0f4H, 0fbH, 0f6H, 0eeH, 0dcH, 0efH, 0f1H, '?', 0a3H, 0adH
	DB	0deH, 0c5H, 0e8H, 0ccH, 0caH, 0abH, 0ecH, 0e9H, '??', 0e0H, 0f5H
	DB	0daH, 0e3H, '?', 0a1H, 0a3H, 00H
	ORG $+18
	ORG $+1
	DW	00H
	DB	00H
	DB	00H
	DB	00H
	DB	'    ?', 0d6H, 0f4H, 0a3H, 0baH, '??', 0d5H, 0c3H, 0eeH, 0dcH
	DB	0efH, 0f1H, '?', 0a3H, 0a8H, '?', 0ceH, 0c3H, 0eeH, 0dcH, 0efH
	DB	0f1H, '?', 0a3H, 0a9H, 0a3H, 0adH, 0deH, 0c5H, 0e8H, 0ccH, 0caH
	DB	0abH, 0eeH, 0efH, '??', 00H
	ORG $+17
	ORG $+1
	DW	00H
	DB	00H
	DB	00H
	DB	00H
	DB	'          ', 0e0H, 0f5H, 0daH, 0e3H, '?', 0a1H, 0a3H, 00H
	ORG $+42
	ORG $+1
	ORG $+2
?help_desc_18@@3PAUDESC@@A DW 00H			; help_desc_18
	DB	00H
	DB	00H
	DB	00H
	DB	0a3H, 0aaH, '??', 0a3H, 0a8H, 0e8H, 0ccH, 0caH, 0abH, 0dcH
	DB	0e2H, 0e3H, 0f3H, 0a3H, 0a9H, 0a1H, 0a2H, 0ecH, 0e9H, '?', 0a3H
	DB	0a8H, 0e8H, 0ccH, 0caH, 0abH, 0fbH, 0e4H, '?', 0daH, 0aaH, 0a3H
	DB	0a9H, 0a1H, 0a2H, 0eeH, 0efH, '?', 0a3H, 0a8H, 0d4H, 0d2H, 0ecH
	DB	0e9H, 00H
	ORG $+14
	ORG $+1
	DW	00H
	DB	00H
	DB	00H
	DB	00H
	DB	'??', 0f1H, 0e9H, 0eeH, 0efH, 0ddH, 0bbH, 0ecH, 0d1H, 0daH
	DB	0aaH, 0d0H, 0e0H, '?', 0daH, 0aaH, 0a3H, 0a9H, 00H
	ORG $+40
	ORG $+1
	DW	00H
	DB	04H
	DB	00H
	DB	00H
	DB	'  ', 0f7H, 0e5H, 0e2H, 0a8H, 0efH, 0f1H, '?', 0a3H, 0adH
	DB	0d0H, 0b3H, '???', 0efH, 0f1H, '?', 00H
	ORG $+40
	ORG $+1
	DW	00H
	DB	00H
	DB	00H
	DB	00H
	DB	'    ', 0e4H, 0b9H, 0e0H, 0a4H, 0daH, 0b8H, 0d5H, 0c3H, 0a3H
	DB	0baH, 0ceH, 0c3H, 0eeH, 0dcH, 0efH, 0f1H, '?', 0a3H, 0adH, 0cdH
	DB	0f4H, '?', 0fdH, 0e5H, 0e2H, 0a5H, 0ecH, 0e9H, 0f3H, 0adH, 0a3H
	DB	0acH, '??', 0dbH, 0b0H, 0eeH, 0dcH, 0cdH, 0f4H, '?', 00H
	ORG $+14
	ORG $+1
	DW	00H
	DB	00H
	DB	00H
	DB	00H
	DB	'              ??', 0edH, 0bbH, 0d0H, 0f9H, 0eeH, 0dcH, 0d2H
	DB	0b1H, 0ceH, 0f9H, 0d5H, 0f4H, 0a1H, 0a3H, 00H
	ORG $+29
	ORG $+1
	DW	00H
	DB	00H
	DB	00H
	DB	00H
	DB	'    ', 0daH, 0b8H, '?', 0d2H, 0f9H, '?', 0a3H, 0baH, '?', 0eeH
	DB	0dcH, 0efH, 0f1H, '?', 0a3H, 0adH, 0cdH, 0f4H, '?', 0daH, 0e3H
	DB	0deH, 0d2H, 0ecH, 0e9H, 0f3H, 0adH, 0a3H, 0acH, '??', 0dbH, 0b0H
	DB	0eeH, 0dcH, 0cdH, 0f4H, '?', 00H
	ORG $+17
	ORG $+1
	DW	00H
	DB	00H
	DB	00H
	DB	00H
	DB	'              ', 0daH, 0e3H, '??', 0cdH, 0f4H, '??', 0dbH
	DB	0b0H, 0a1H, 0a3H, 00H
	ORG $+33
	ORG $+1
	DW	00H
	DB	00H
	DB	00H
	DB	00H
	DB	'    ', 0ceH, 0a1H, 0e4H, 0baH, 0d5H, 0c3H, 0a3H, 0baH, '?'
	DB	0fcH, 0c0H, 0efH, 0f1H, '?', 0a3H, 0adH, '????', 0fcH, 0e1H, '?'
	DB	0a3H, 0acH, '?', 0deH, 0ddH, 0d8H, 0ccH, 0eeH, 0dcH, 0e8H, 0ccH
	DB	0caH, 0abH, '?', 00H
	ORG $+18
	ORG $+1
	DW	00H
	DB	00H
	DB	00H
	DB	00H
	DB	'            ', 0fcH, 0c0H, '??', 0f5H, 0f6H, 0d0H, 0ecH, 0d2H
	DB	0b1H, 0ceH, 0f9H, 0d5H, 0f4H, 0a1H, 0a3H, 00H
	ORG $+31
	ORG $+1
	DW	00H
	DB	00H
	DB	00H
	DB	00H
	DB	'    ', 0eaH, 0ceH, '?', 0a3H, 0baH, 0e1H, 0faH, '?', 0efH
	DB	0f1H, '?', 0a3H, 0adH, 0cdH, 0f4H, '?', 0d9H, 0e9H, 0fcH, 0f9H
	DB	'?', 0f3H, 0adH, 0a3H, 0acH, '??', 0dbH, 0b0H, 0eeH, 0dcH, 0cdH
	DB	0f4H, '???', 00H
	ORG $+19
	ORG $+1
	DW	00H
	DB	00H
	DB	00H
	DB	00H
	DB	'          ', 0d9H, 0e9H, 0fcH, 0f9H, 0a1H, 0a3H, 00H
	ORG $+43
	ORG $+1
	DW	00H
	DB	00H
	DB	00H
	DB	00H
	DB	'    ?', 0fcH, 0c0H, 0e1H, 0faH, '?', 0efH, 0f1H, '?', 0a3H
	DB	0baH, '????', 0fcH, 0e1H, '?+', 0cdH, 0f4H, '?', 0d9H, 0e9H, 0fcH
	DB	0f9H, '?', 0f3H, 0adH, 0a1H, 0a3H, 00H
	ORG $+24
	ORG $+1
	DW	00H
	DB	00H
	DB	00H
	DB	00H
	DB	'    ?', 0fcH, 0c0H, 0ceH, 0c3H, 0efH, 0f1H, '?', 0a3H, 0baH
	DB	'????', 0fcH, 0e1H, '?+', 0cdH, 0f4H, '?', 0fdH, 0e5H, 0e2H, 0a5H
	DB	0ecH, 0e9H, 0f3H, 0adH, 0a1H, 0a3H, 00H
	ORG $+24
	ORG $+1
	ORG $+6
?help_desc_19@@3PAUDESC@@A DW 00H			; help_desc_19
	DB	04H
	DB	00H
	DB	00H
	DB	'1.', 0e0H, 0f7H, 0d8H, 0a1H, 00H
	ORG $+53
	ORG $+1
	DW	00H
	DB	00H
	DB	00H
	DB	00H
	DB	'  ', 0e8H, 0ccH, 0caH, 0abH, 0e2H, 0cdH, 0d4H, 0f5H, '?', 0f2H
	DB	0b8H, 0e1H, 0b4H, '30?', 0f3H, 0a6H, 0ecH, 0abH, 0faH, 0b0H, 0e0H
	DB	0f7H, 0ecH, 0d1H, '?', 0a3H, 0acH, 0ecH, 0bbH, 0e3H, 0f3H, 0dfH
	DB	0beH, 0eaH, 0f3H, 0ecH, 0e9H, 0d8H, 0b2H, 0eaH, 0aaH, 0edH, 0baH
	DB	00H
	ORG $+12
	ORG $+1
	DW	00H
	DB	00H
	DB	00H
	DB	00H
	DB	'  ', 0a3H, 0acH, '?', 0caH, 0a6H, 0faH, 0beH, 0caH, 0abH
	DB	0f0H, 0e9H, 0ceH, 0b7H, 0d7H, 0e2H, '?', 0a3H, 0a8H, 0eaH, 0c8H
	DB	0e9H, 0cdH, 0caH, 0c0H, 0f5H, 0bdH, 0f5H, 0bdH, '?', 0caH, 0abH
	DB	0a3H, 0a9H, 0e3H, 0e9H, '?', 0e0H, 0f7H, 0d8H, 0a1H, 0caH, 0abH
	DB	0f0H, 0e9H, 00H
	ORG $+13
	ORG $+1
	DW	00H
	DB	00H
	DB	00H
	DB	00H
	DB	'  ', 0a1H, 0a3H, 0e3H, 0e9H, '?', 0e0H, 0f7H, 0d8H, 0a1H
	DB	'?', 0e2H, 0cdH, 0e9H, 0a9H, '??', 0caH, 0abH, 0f0H, 0e9H, 0d9H
	DB	0a3H, '?', 0a3H, 0a8H, 0dcH, 0f4H, 0caH, 0a6H, '?', 0d0H, 0ecH
	DB	0f6H, 0e2H, 0caH, 0abH, 0f0H, 0e9H, 0f1H, 0ecH, '?', 00H
	ORG $+16
	ORG $+1
	DW	00H
	DB	00H
	DB	00H
	DB	00H
	DB	'  ', 0a3H, 0a9H, 0a1H, 0a2H, 0caH, 0abH, 0f0H, 0e9H, 0f1H
	DB	0abH, 0f2H, 0a9H, 0a1H, 0a2H, 0caH, 0abH, 0f0H, 0e9H, 0e1H, 0faH
	DB	'??', 0a3H, 0a8H, 0caH, 0a6H, '??', 0e3H, 0f3H, 0dfH, 0beH, 0eeH
	DB	0dcH, 0d0H, 0ecH, 0f1H, 0e9H, 0ecH, 0e9H, 0f1H, 0feH, '?', 00H
	ORG $+14
	ORG $+1
	DW	00H
	DB	00H
	DB	00H
	DB	00H
	DB	'  ', 0daH, 0aaH, '?', 0e1H, 0faH, '??', 0a3H, 0acH, 0f1H
	DB	0abH, 0e9H, 0a9H, '?', 0f9H, 0eaH, 0e0H, 0f7H, 0d0H, 0e0H, 0d6H
	DB	0f9H, 0d7H, 0e2H, 0edH, 0c2H, 0e9H, 0c4H, 0a3H, 0a9H, 0d0H, 0e0H
	DB	0caH, 0abH, 0f0H, 0e9H, 0efH, 0f1H, '?', 0a3H, 0a8H, 0ceH, 0c3H
	DB	00H
	ORG $+14
	ORG $+1
	DW	00H
	DB	00H
	DB	00H
	DB	00H
	DB	'  ', 0d9H, 0a5H, 0d0H, 0e0H, 0fdH, 0d9H, 0e4H, 0deH, '??'
	DB	0efH, 0f1H, '?', 0a3H, 0a9H, 0a3H, 0acH, 0f3H, 0a6H, '?', 0f6H
	DB	0d2H, 0f4H, 0b8H, '?', 0caH, 0abH, 0f0H, 0e9H, 0ecH, 0d1H, '?', 0eeH
	DB	0a4H, '10', 0ecH, 0d1H, 0ecH, 0a4H, 0dfH, 0beH, 00H
	ORG $+15
	ORG $+1
	DW	00H
	DB	00H
	DB	00H
	DB	00H
	DB	'  ', 0a3H, 0acH, 0caH, 0abH, 0f0H, 0e9H, 0dbH, 0b0H, 0caH
	DB	0a6H, 0efH, 0e1H, 0e3H, 0d2H, 0e0H, 0f7H, 0d8H, 0a1H, 0a3H, 0acH
	DB	0ecH, 0bbH, 0caH, 0abH, 0f0H, 0e9H, 0ecH, 0d1H, '?', 0dfH, 0beH
	DB	0f9H, 0daH, '?100', 0ecH, 0d1H, 0a1H, 0a3H, 00H
	ORG $+16
	ORG $+1
	DW	00H
	DB	04H
	DB	00H
	DB	00H
	DB	'2.', 0faH, 0b0H, 0dfH, 0a4H, 00H
	ORG $+53
	ORG $+1
	DW	00H
	DB	00H
	DB	00H
	DB	00H
	DB	'  ', 0f0H, 0e9H, '?', 0e5H, 0b4H, 0e9H, 0b0H, 0faH, 0b0H
	DB	0dfH, 0a4H, 0caH, 0abH, 0f0H, 0e9H, 0a3H, 0acH, 0caH, 0a6H, 0faH
	DB	0beH, 0caH, 0abH, 0f0H, 0e9H, 0ceH, 0b7H, 0d7H, 0e2H, 0edH, 0baH
	DB	0e3H, 0e9H, '?', 0faH, 0b0H, 0dfH, 0a4H, '?', 0caH, 0a6H, 0a1H
	DB	0a3H, 0caH, 0abH, 00H
	ORG $+12
	ORG $+1
	DW	00H
	DB	00H
	DB	00H
	DB	00H
	DB	'  ', 0f0H, 0e9H, 0faH, 0b0H, 0dfH, 0a4H, 0a3H, 0acH, 0caH
	DB	0abH, 0f0H, 0e9H, 0f0H, 0edH, 0ceH, 0b3H, 0e5H, 0a5H, '?', 0ecH
	DB	0e9H, '??', 0f0H, 0b6H, '!', 00H
	ORG $+31
	ORG $+1
	ORG $+2
?help_desc_20@@3PAUDESC@@A DW 00H			; help_desc_20
	DB	04H
	DB	00H
	DB	00H
	DB	'1.', 0caH, 0a5H, 0ecH, 0fdH, 00H
	ORG $+53
	ORG $+1
	DW	00H
	DB	00H
	DB	00H
	DB	00H
	DB	'  ', 0e8H, 0ccH, 0caH, 0abH, 0e9H, 0b0H, 0caH, 0a5H, 0ecH
	DB	0fdH, 0caH, 0abH, 0f0H, 0e9H, '?', 0faH, 0beH, 0caH, 0abH, 0f0H
	DB	0e9H, 0ceH, 0b7H, 0d7H, 0e2H, '?', 0a3H, 0a8H, 0eaH, 0c8H, 0e9H
	DB	0cdH, 0caH, 0c0H, 0f5H, 0bdH, 0f5H, 0bdH, '?', 0caH, 0abH, 0a3H
	DB	0a9H, 0e3H, 0e9H, 00H
	ORG $+12
	ORG $+1
	DW	00H
	DB	00H
	DB	00H
	DB	00H
	DB	'  ?', 0a3H, 0acH, 0e3H, 0e9H, '???', 0f5H, 0f3H, '?', 0e1H
	DB	0b6H, 0eaH, 0f3H, 0caH, 0abH, 0f0H, 0e9H, 0d6H, 0aaH, 0f8H, 0faH
	DB	0ecH, 0a4H, 0cdH, 0eaH, '??', 0a3H, 0acH, 0e5H, 0b4H, 0d6H, 0aaH
	DB	0f8H, 0faH, 0dfH, 0beH, 0caH, 0abH, 00H
	ORG $+16
	ORG $+1
	DW	00H
	DB	00H
	DB	00H
	DB	00H
	DB	'  ', 0f0H, 0e9H, 0d9H, 0a3H, '???', 0dfH, 0e4H, 0d3H, 0dbH
	DB	0f8H, 0faH, 0f3H, 0aeH, 0caH, 0abH, 0f0H, 0e9H, 0efH, 0ceH, 0f2H
	DB	0adH, 0f4H, 0fdH, 0e2H, 0a5H, 0f0H, 0e9H, '?', 0a3H, 0acH, 0dbH
	DB	0dcH, 0dfH, 0e4H, '?', 0dcH, 0faH, 0a3H, 0acH, 0efH, 0c3H, 00H
	ORG $+14
	ORG $+1
	DW	00H
	DB	00H
	DB	00H
	DB	00H
	DB	'  ?', 0caH, 0abH, 0f0H, 0e9H, 0d9H, 0a3H, '?', 0f1H, 0fdH
	DB	0fdH, 0a8H, 0e4H, 0ceH, 0f9H, 0bbH, '???', 0caH, 0a6H, 0a3H, 0acH
	DB	0d3H, 0a3H, '?', 0deH, 0aaH, 0d3H, 0dbH, 0f8H, 0faH, 0efH, 0e1H
	DB	0e3H, 0d2H, 0caH, 0a5H, 0ecH, 0fdH, 0f3H, 0aeH, 00H
	ORG $+15
	ORG $+1
	DW	00H
	DB	00H
	DB	00H
	DB	00H
	DB	'  ', 0caH, 0abH, 0f0H, 0e9H, 0a3H, 0acH, 0e2H, 0cdH, '?', 0ebH
	DB	0a6H, 0f3H, 0aeH, 0caH, 0abH, 0f0H, 0e9H, 0f0H, 0e9H, '??', 0faH
	DB	0b7H, 0f7H, 0d7H, '?', 0fdH, 0a8H, 0eeH, 0a6H, 0d3H, 0dbH, 0f8H
	DB	0faH, 0efH, 0e1H, 0e3H, 0d2H, 0caH, 0a5H, 0ecH, 0fdH, 0a1H, 0a3H
	DB	00H
	ORG $+13
	ORG $+1
	DW	00H
	DB	04H
	DB	00H
	DB	00H
	DB	'2.', 0f7H, 0dcH, 0f5H, 0f3H, 00H
	ORG $+53
	ORG $+1
	DW	00H
	DB	00H
	DB	00H
	DB	00H
	DB	'  ', 0e8H, 0ccH, 0caH, 0abH, 0e5H, 0b4H, 0e9H, 0b0H, 0f7H
	DB	0dcH, 0f5H, 0f3H, 0caH, 0abH, 0f0H, 0e9H, 0a3H, 0acH, 0faH, 0beH
	DB	0caH, 0abH, 0f0H, 0e9H, 0ceH, 0b7H, 0d7H, 0e2H, '?', 0e3H, 0e9H
	DB	'?', 0f7H, 0dcH, 0f5H, 0f3H, '?', 0caH, 0a6H, 0a1H, 0a3H, 00H
	ORG $+16
	ORG $+1
?help_desc_21@@3PAUDESC@@A DW 00H			; help_desc_21
	DB	04H
	DB	00H
	DB	00H
	DB	'1.', 0caH, 0abH, 0f0H, 0e9H, 0e0H, 0f7H, '?', 0d6H, 0aaH
	DB	0f8H, 0faH, 00H
	ORG $+46
	ORG $+1
	DW	00H
	DB	00H
	DB	00H
	DB	00H
	DB	'  ', 0caH, 0a6H, '?', 0caH, 0d7H, 0edH, 0bbH, 0d0H, 0f9H
	DB	0caH, 0abH, 0f0H, 0e9H, 0e0H, 0f7H, '?', 0eeH, 0dcH, '?', 0d6H
	DB	0f9H, 0a3H, 0a8H, 0f8H, 0d0H, 0f9H, 0dfH, 0e0H, 0f7H, '?', 0dfH
	DB	0beH, '???', 0a1H, 0a2H, 0e0H, 0f3H, 0d9H, 0a3H, 00H
	ORG $+16
	ORG $+1
	DW	00H
	DB	00H
	DB	00H
	DB	00H
	DB	'  ', 0a1H, 0a2H, 0d4H, 0f5H, '?', 0a1H, 0a2H, '?', 0ecH, 0d1H
	DB	'?', 0d8H, 0d0H, 0a3H, 0a9H, 0a1H, 0a3H, 00H
	ORG $+40
	ORG $+1
	DW	00H
	DB	04H
	DB	00H
	DB	00H
	DB	'2.', 0caH, 0abH, 0f0H, 0e9H, 0d7H, 0baH, 0e5H, 0ebH, 00H
	ORG $+49
	ORG $+1
	DW	00H
	DB	00H
	DB	00H
	DB	00H
	DB	'  ?', 0eaH, 0f3H, 0d4H, 0d2H, 0ecH, 0e9H, 0caH, 0abH, 0f0H
	DB	0e9H, 0f1H, 0fdH, '?', 0eeH, 0dcH, 0e0H, 0f7H, '?', 0caH, 0a6H
	DB	0ecH, 0a4H, 0d7H, 0baH, 0e5H, 0ebH, 0a1H, 0a3H, 00H
	ORG $+28
	ORG $+1
	DW	00H
	DB	04H
	DB	00H
	DB	00H
	DB	'3.', 0caH, 0abH, 0f0H, 0e9H, 0f1H, 0fdH, '?', 0d7H, 0baH
	DB	0e5H, 0ebH, 0f7H, 0faH, 00H
	ORG $+44
	ORG $+1
	DW	00H
	DB	00H
	DB	00H
	DB	00H
	DB	'  ?', 0eaH, 0f3H, 0f0H, 0e9H, '?', 0caH, 0a6H, 0ecH, 0a4H
	DB	0d7H, 0baH, 0e5H, 0ebH, 0a1H, 0a3H, 00H
	ORG $+41
	ORG $+1
	DW	00H
	DB	04H
	DB	00H
	DB	00H
	DB	'4.', 0e3H, 0e9H, '?', 0caH, 0abH, 0f0H, 0e9H, 0cbH, 0dfH
	DB	0efH, 0c3H, 00H
	ORG $+46
	ORG $+1
	DW	00H
	DB	00H
	DB	00H
	DB	00H
	DB	'  ?', 0caH, 0abH, 0f0H, 0e9H, 0eeH, 0dcH, '?', 0d8H, 0d0H
	DB	0d3H, 0f0H, '?1000', 0f3H, 0a6H, 0ecH, 0d1H, '?', 0eeH, 0a4H, '3'
	DB	'0', 0ecH, 0d1H, 0ecH, 0a4H, 0dfH, 0beH, 0a3H, 0acH, 0e5H, 0b4H
	DB	0d6H, 0aaH, 0f8H, 0faH, 0dfH, 0beH, 0f8H, 0faH, 00H
	ORG $+13
	ORG $+1
	DW	00H
	DB	00H
	DB	00H
	DB	00H
	DB	'  ', 0e3H, 0c6H, 0edH, 0e4H, '??', 0daH, 0b1H, 0f9H, 0acH
	DB	0e3H, 0e9H, '?', 0a3H, 0acH, '?', 0f0H, 0e9H, '?', 0eaH, 0f3H, '?'
	DB	0d7H, 0d7H, 0eeH, 0a4H, 0f3H, 0aeH, 0e3H, 0e9H, '?', 0a1H, 0a3H
	DB	00H
	ORG $+24
	ORG $+1
	DW	00H
	DB	04H
	DB	00H
	DB	00H
	DB	'5.', 0caH, 0abH, 0f0H, 0e9H, 0f1H, 0fdH, '?', 0cbH, 0adH
	DB	0edH, 0baH, 0f8H, 0faH, 00H
	ORG $+44
	ORG $+1
	DW	00H
	DB	00H
	DB	00H
	DB	00H
	DB	'  ', 0caH, 0a6H, '?', 0caH, 0d7H, 0caH, 0c0H, '?', 0caH, 0abH
	DB	0f0H, 0e9H, '?', 0d8H, 0d0H, 0d6H, 0aaH, 0f8H, 0faH, 0a3H, 0acH
	DB	'?', 0ebH, 0a6H, 0f0H, 0e9H, '?', 0eeH, 0dcH, 0d9H, 0b3H, '?', 0a1H
	DB	0a2H, '?', 0ebH, 0c0H, 0a1H, 0a2H, 0f9H, 0eaH, 00H
	ORG $+16
	ORG $+1
	DW	00H
	DB	00H
	DB	00H
	DB	00H
	DB	'  ', 0e0H, 0f7H, 0a1H, 0a2H, 0d6H, 0f9H, 0d7H, 0e2H, 0ecH
	DB	0a4H, 0d0H, 0e0H, 0caH, 0abH, 0f0H, 0e9H, 0f1H, 0fdH, '?', 0eeH
	DB	0dcH, '?', 0d4H, 0e0H, 0caH, 0a6H, 0ecH, 0a4H, 0f1H, 0f2H, 0caH
	DB	0a5H, 0caH, 0abH, 0f0H, 0e9H, '?', 0d8H, 0d0H, 0a1H, 0a3H, 00H
	ORG $+16
	ORG $+1
	ORG $+6
?help_desc_22@@3PAUDESC@@A DW 00H			; help_desc_22
	DB	04H
	DB	00H
	DB	00H
	DB	'1.', 0f0H, 0e9H, '??', 0f7H, 0ebH, 00H
	ORG $+51
	ORG $+1
	DW	00H
	DB	00H
	DB	00H
	DB	00H
	DB	'  ', 0caH, 0a6H, '?', 0f7H, 0ebH, '?', 0caH, 0abH, 0f0H, 0e9H
	DB	'?', 0e1H, 0b6H, 0eaH, 0f3H, 0e0H, 0f7H, '??', 0a1H, 0a3H, 00H
	ORG $+36
	ORG $+1
	DW	00H
	DB	04H
	DB	00H
	DB	00H
	DB	'2.', 0caH, 0abH, 0f0H, 0e9H, 0e0H, 0f7H, '?', 0ceH, 0b7H
	DB	0d7H, 0e2H, 00H
	ORG $+46
	ORG $+1
	DW	00H
	DB	00H
	DB	00H
	DB	00H
	DB	'  ', 0caH, 0a6H, '?', 0caH, 0d7H, 0e1H, 0b6H, 0eaH, 0f3H
	DB	0f0H, 0e9H, '???', 0a1H, 0a2H, '??', 0e3H, 0c0H, 0dcH, 0faH, '?'
	DB	'?', 0f4H, 0fdH, 0d9H, 0b4H, 0caH, 0abH, 0f0H, 0e9H, 0e0H, 0f7H
	DB	'?', 0a3H, 0acH, '?', 00H
	ORG $+19
	ORG $+1
	DW	00H
	DB	00H
	DB	00H
	DB	00H
	DB	'  ', 0caH, 0a6H, '??', 0f0H, 0e9H, '??', 0ecH, 0f2H, 0eeH
	DB	0dcH, '?', 0eaH, 0c8H, 0a1H, 0a3H, 00H
	ORG $+40
	ORG $+1
	DW	00H
	DB	00H
	DB	00H
	DB	00H
	DB	'  ', 0ecH, 0e9H, '?', 0caH, 0abH, 0f0H, 0e9H, 0caH, 0a6H
	DB	'??', 0e7H, 0e9H, 0eaH, 0c8H, 0e0H, 0f7H, '?', 0f1H, 0aeH, '?', 0caH
	DB	0abH, 0f0H, 0e9H, '?', 0d6H, 0d5H, 0a3H, 0acH, 0ecH, 0bbH, '?', 0d6H
	DB	0d5H, 0f0H, 0b6H, 0d6H, 0f5H, 0d9H, 0e9H, 00H
	ORG $+16
	ORG $+1
	DW	00H
	DB	00H
	DB	00H
	DB	00H
	DB	'  ', 0dbH, 0f6H, '?', 0eaH, 0c8H, 0a1H, 0a2H, 0faH, 0b0H
	DB	0dfH, 0a4H, 0caH, 0abH, 0f0H, 0e9H, 0d0H, 0e0H, '?', 0f5H, 0f3H
	DB	0d0H, 0ecH, '??', 0d6H, 0d5H, 0f1H, 0fdH, 0e8H, 0e2H, 0a3H, 0acH
	DB	0d0H, 0ecH, '?', 0eeH, 0dcH, 0f0H, 0e9H, '?', 0cdH, 0edH, 00H
	ORG $+15
	ORG $+1
	DW	00H
	DB	00H
	DB	00H
	DB	00H
	DB	'  ', 0d2H, 0f6H, '?', 0d6H, 0d5H, 0d4H, 0b4H, 0caH, 0a6H
	DB	0ecH, 0a4H, 0deH, 0c5H, 0e9H, 0c4H, 0a3H, 0acH, 0ecH, 0a4H, '?'
	DB	'?', 0f0H, 0e9H, '?', 0eeH, 0dcH, '??', 0a1H, 0a3H, 00H
	ORG $+27
	ORG $+1
	DW	00H
	DB	04H
	DB	00H
	DB	00H
	DB	'3.', 0f0H, 0e9H, '??', 0eaH, 0c8H, 00H
	ORG $+51
	ORG $+1
	DW	00H
	DB	00H
	DB	00H
	DB	00H
	DB	'  ', 0f0H, 0e9H, '?', 0caH, 0a6H, '??', 0ecH, 0e9H, 0f0H
	DB	0e9H, '?', 0a3H, 0a8H, 0f3H, 0aeH, 0ecH, 0e9H, 0f0H, 0e9H, '?', 0e2H
	DB	0cdH, 0eeH, 0a4H, 0d4H, 0d2H, 0ecH, 0e9H, 0e0H, 0f8H, 0cfH, 0b9H
	DB	0dfH, 0beH, 0a3H, 0acH, '?', 0f3H, 0a6H, 0e3H, 0c0H, 00H
	ORG $+15
	ORG $+1
	DW	00H
	DB	00H
	DB	00H
	DB	00H
	DB	'  online??', 0a3H, 0acH, 0f3H, 0a6H, 0ddH, 0acH, 0f9H, 0eaH
	DB	0f0H, 0e9H, '??', 0ccH, 0abH, 0a3H, 0a9H, 0a3H, 0acH, 0f6H, 0a6H
	DB	0caH, 0a6H, '?', 0f0H, 0e9H, '?', 0eeH, 0dcH, 0eaH, 0c8H, 0f6H
	DB	0c7H, '?', 00H
	ORG $+16
	ORG $+1
	DW	00H
	DB	00H
	DB	00H
	DB	00H
	DB	'  ?', 0f6H, 0e2H, 0a1H, 0a3H, 00H
	ORG $+52
	ORG $+1
?help_desc_23@@3PAUDESC@@A DW 00H			; help_desc_23
	DB	04H
	DB	00H
	DB	00H
	DB	'1.', 0caH, 0abH, 0f0H, 0e9H, '?', 0faH, 0bcH, 00H
	ORG $+50
	ORG $+1
	DW	00H
	DB	00H
	DB	00H
	DB	00H
	DB	'  ', 0eaH, 0c8H, 0e9H, 0cdH, 0edH, 0e4H, '?', 0f1H, 0e9H
	DB	0eeH, 0dcH, 0f0H, 0e9H, '?', 0caH, 0abH, 0a3H, 0acH, 0f0H, 0e9H
	DB	'?', 0caH, 0a6H, 0ecH, 0a4H, '?', 0f0H, 0edH, 0e0H, 0b4H, '?', 0e9H
	DB	0cdH, '?', 0ecH, 0d1H, 0fbH, 0e4H, 0caH, 0abH, 0f0H, 0e9H, 00H
	ORG $+15
	ORG $+1
	DW	00H
	DB	00H
	DB	00H
	DB	00H
	DB	'  ??', 0a3H, 0acH, '?', 0ecH, 0d1H, '??', 0eeH, 0dcH, 0f0H
	DB	0edH, 0ceH, 0b3H, 0dfH, 0beH, 0f9H, 0daH, '?', 0ecH, 0e9H, 0f4H
	DB	0b6H, 0d8H, 0b2H, 0e0H, 0b4H, '?', 0a3H, 0acH, 0ecH, 0bbH, 0caH
	DB	0abH, 0f0H, 0e9H, 0cdH, 0ecH, 0d4H, 0d2H, 00H
	ORG $+16
	ORG $+1
	DW	00H
	DB	00H
	DB	00H
	DB	00H
	DB	'  ??', 0eeH, 0dcH, 0f0H, 0edH, 0ceH, 0b3H, 0dfH, 0beH, 0f9H
	DB	0daH, '?', 0ecH, 0e9H, '?', 0e0H, 0b4H, '?', 0a3H, 0acH, 0ecH, 0bbH
	DB	0f1H, 0feH, 0eaH, 0f3H, 0f0H, 0e9H, '?', 0d0H, 0e0H, '?', 0d6H
	DB	0d5H, '?', 0eeH, 0a6H, 0caH, 0a6H, 00H
	ORG $+17
	ORG $+1
	DW	00H
	DB	00H
	DB	00H
	DB	00H
	DB	'  ?', 0caH, 0abH, 0f0H, 0e9H, 0cdH, 0ecH, 0d4H, 0d2H, '?'
	DB	'?', 0f1H, 0e9H, 0f0H, 0abH, 0f6H, 0a2H, 0e0H, 0b4H, '?', 0a1H
	DB	0a3H, 00H
	ORG $+35
	ORG $+1
	DW	00H
	DB	04H
	DB	00H
	DB	00H
	DB	'2.', 0caH, 0abH, 0f0H, 0e9H, '?', 0deH, 0cdH, 00H
	ORG $+50
	ORG $+1
	DW	00H
	DB	00H
	DB	00H
	DB	00H
	DB	'  ', 0eaH, 0c8H, 0e9H, 0cdH, 0edH, 0e4H, '?', 0f1H, 0e9H
	DB	0f0H, 0e9H, '?', 0caH, 0abH, 0a3H, 0acH, 0f0H, 0e9H, '??', 0d0H
	DB	0ecH, '?', 0daH, 0aaH, 0caH, 0a6H, 0d8H, 0f3H, '??', 0f0H, 0ebH
	DB	0d2H, 0b1H, 0ceH, 0f9H, 0d5H, 0f4H, 0d0H, 0e0H, 00H
	ORG $+16
	ORG $+1
	DW	00H
	DB	00H
	DB	00H
	DB	00H
	DB	'  ?', 0d5H, 0f4H, 0a1H, 0a3H, 00H
	ORG $+52
	ORG $+1
	DW	00H
	DB	04H
	DB	00H
	DB	00H
	DB	'3.?', 0e3H, 0abH, '???', 00H
	ORG $+51
	ORG $+1
	DW	00H
	DB	00H
	DB	00H
	DB	00H
	DB	'  ', 0eaH, 0c8H, 0e9H, 0cdH, 0edH, 0e4H, '?', 0f1H, 0e9H
	DB	0a3H, 0acH, 0caH, 0a6H, '???????', 0a3H, 0acH, '?', 0cdH, 0ecH
	DB	0eaH, 0f3H, 0deH, 0ccH, '??', 0efH, 0efH, 0ebH, 0a6H, 0f4H, 0f8H
	DB	00H
	ORG $+20
	ORG $+1
	DW	00H
	DB	00H
	DB	00H
	DB	00H
	DB	'  ?', 0daH, 0ecH, 0d3H, 0f0H, 0f7H, 0e5H, '?', 0daH, 0ecH
	DB	0a1H, 0a3H, 00H
	ORG $+45
	ORG $+1
	DW	00H
	DB	04H
	DB	00H
	DB	00H
	DB	'4.', 0caH, 0abH, 0f0H, 0e9H, 0e9H, 0adH, '?', 0f9H, 0deH
	DB	00H
	ORG $+48
	ORG $+1
	DW	00H
	DB	00H
	DB	00H
	DB	00H
	DB	'  ?', 0eaH, 0f3H, 0f0H, 0e9H, '?', 0eeH, 0a6H, 0caH, 0a6H
	DB	0f0H, 0a4H, 0edH, 0c2H, 0caH, 0abH, 0f0H, 0e9H, 0e9H, 0adH, '?'
	DB	0f9H, 0deH, 0a3H, 0acH, 0eaH, 0f3H, 0f3H, 0aeH, 0ecH, 0e9H, 0e9H
	DB	0adH, '?', 0f9H, 0deH, '?', 0caH, 0a6H, '?', 0ecH, 0fdH, 00H
	ORG $+15
	ORG $+1
	DW	00H
	DB	00H
	DB	00H
	DB	00H
	DB	'  ', 0f3H, 0aeH, 0ecH, 0e9H, 0edH, 0e4H, '??', 0f0H, 0e9H
	DB	'?', 0eeH, 0dcH, 0caH, 0abH, 0a3H, 0a8H, 0f9H, 0daH, '?', 0d0H
	DB	0f6H, 0a3H, 0a9H, 0a1H, 0a3H, 00H
	ORG $+31
	ORG $+1
	ORG $+4
?help_desc_24@@3PAUDESC@@A DW 00H			; help_desc_24
	DB	00H
	DB	00H
	DB	00H
	DB	'    ', 0e8H, 0ccH, 0caH, 0abH, 0eeH, 0a4H, 0e0H, 0b4H, 0d0H
	DB	0efH, '?', 0d3H, 0deH, 0eeH, 0dcH, 0eaH, 0abH, 0e5H, 0afH, 0dfH
	DB	0beH, '?', 0ecH, 0a4H, '?', 0cfH, 0f5H, 0e9H, 0e7H, '?', 0eeH, 0dcH
	DB	0dbH, 0b0H, 0e3H, 0d2H, 0f5H, 0f3H, '??', 00H
	ORG $+15
	ORG $+1
	DW	00H
	DB	00H
	DB	00H
	DB	00H
	DB	0d4H, 0e0H, 0a3H, 0acH, '?', 0d4H, 0e0H, '?', 0e3H, 0c0H, 0f3H
	DB	0faH, 0fcH, 0deH, 0f9H, 0eaH, 0f0H, 0a4H, 0a3H, 0acH, 0d8H, 0dfH
	DB	0fcH, 0deH, 0f9H, 0eaH, 0e8H, 0ccH, 0caH, 0abH, '?', 0eaH, 0f3H
	DB	0a3H, 0b3H, 0a3H, 0b0H, 0f5H, 0a9H, 0eeH, 0dcH, '??', 0f1H, 0aeH
	DB	00H
	ORG $+14
	ORG $+1
	DW	00H
	DB	00H
	DB	00H
	DB	00H
	DB	'??', 0a3H, 0acH, 0ecH, 0bbH, '?', 0d8H, 0fcH, 0e9H, 0d3H
	DB	0dfH, 0beH, 0dbH, 0b0H, '?', 0f5H, 0f3H, '??', 0d4H, 0e0H, 0f2H
	DB	0a6H, 0d6H, 0b5H, 0d6H, 0aaH, 0f8H, 0faH, 0a3H, 0baH, 00H
	ORG $+27
	ORG $+1
	DW	09H
	DB	04H
	DB	01H
	DB	00H
	DB	0cdH, 0f4H, '?', 00H
	ORG $+56
	ORG $+1
	DW	00H
	DB	00H
	DB	01H
	DB	00H
	DB	'      ', 0e4H, 0ceH, 0f9H, 0bbH, 0cdH, 0f4H, '?', 0fdH, 0a8H
	DB	0efH, 0c3H, '??', 0d8H, 0fcH, 0eeH, 0dcH, '?', 0ecH, 0d1H, '?', 0faH
	DB	0bcH, 0cdH, 0f4H, '?', 0a1H, 0a3H, 00H
	ORG $+25
	ORG $+1
	DW	0aH
	DB	04H
	DB	01H
	DB	00H
	DB	0dbH, 0c1H, 0e5H, 0d9H, 00H
	ORG $+55
	ORG $+1
	DW	00H
	DB	00H
	DB	01H
	DB	00H
	DB	'      ', 0ecH, 0d1H, 0daH, 0aaH, '?', 0eeH, 0a4H, 0f3H, 0aeH
	DB	0fcH, 0deH, 0f9H, 0eaH, '?', 0d4H, 0e0H, 0f1H, 0e9H, '?', 0faH
	DB	0bcH, 0dbH, 0c1H, 0e5H, 0d9H, 0a1H, 0a3H, 00H
	ORG $+26
	ORG $+1
	DW	0bH
	DB	04H
	DB	01H
	DB	00H
	DB	0deH, 0c5H, 0e9H, 0c4H, 0efH, 0f1H, '?', 00H
	ORG $+52
	ORG $+1
	DW	00H
	DB	00H
	DB	01H
	DB	00H
	DB	'      ', 0eeH, 0a4H, '?', 0d4H, 0e0H, 0f1H, 0e9H, 0e4H, 0ceH
	DB	0f3H, 0aeH, 0cdH, 0edH, 0d2H, 0f6H, '?', 0a3H, 0acH, '?', 0ebH
	DB	0eeH, 0f0H, 0ceH, 0e3H, 0f3H, 0dfH, 0beH, '??', 0d4H, 0b3H, 0ceH
	DB	0fdH, 0e1H, 0b6H, 0ddH, 0beH, 00H
	ORG $+16
	ORG $+1
	DW	00H
	DB	00H
	DB	01H
	DB	00H
	DB	'      ', 0eaH, 0f3H, 0eeH, 0dcH, 0efH, 0f1H, '?', 0d6H, 0aaH
	DB	0f8H, 0faH, 0a3H, 0acH, 0e8H, 0ccH, 0caH, 0abH, 0caH, 0a6H, '?'
	DB	'?', 0f8H, 0faH, 0dfH, 0beH, 0eeH, 0dcH, 0efH, 0f1H, '??', 0edH
	DB	0bbH, 0d0H, 0f9H, 0fbH, 0e4H, 00H
	ORG $+16
	ORG $+1
	DW	00H
	DB	00H
	DB	01H
	DB	00H
	DB	'      ?', 0dbH, 0b0H, 0e3H, 0bfH, 0dbH, 0afH, 0a1H, 0a3H
	DB	00H
	ORG $+44
	ORG $+1
	DW	0cH
	DB	04H
	DB	01H
	DB	00H
	DB	0deH, 0c5H, 0e9H, 0c4H, 0d4H, 0b3H, 0ceH, 0fdH, '?', 0eeH
	DB	0dcH, 0daH, 0aaH, 0f9H, 0a1H, 00H
	ORG $+44
	ORG $+1
	DW	00H
	DB	00H
	DB	01H
	DB	00H
	DB	'      ?', 0d4H, 0e0H, 0f1H, 0e9H, 0caH, 0a6H, 0f6H, 0e8H
	DB	'?', 0d4H, 0b3H, 0ceH, 0fdH, '?', 0deH, 0c5H, 0e9H, 0c4H, 0ebH
	DB	0bfH, '?', 0fbH, 0e4H, 0e3H, 0c0H, '???', 0faH, 0ecH, '??', 00H
	ORG $+20
	ORG $+1
	DW	00H
	DB	00H
	DB	01H
	DB	00H
	DB	'      ', 0d5H, 0f4H, 0a3H, 0acH, 0fbH, 0e4H, 0e3H, 0c0H, 0ccH
	DB	0daH, '?', 0d9H, 0cdH, 0eeH, 0f1H, 0e1H, 0b6H, 0deH, 0c5H, 0e9H
	DB	0c4H, 0eeH, 0dcH, 0d9H, 0ebH, 0d0H, 0efH, 0a3H, 0a8H, 0dcH, 0f4H
	DB	0f8H, 0d0H, 0ceH, 0c0H, '??', 0d0H, 0e0H, 00H
	ORG $+14
	ORG $+1
	DW	00H
	DB	00H
	DB	01H
	DB	00H
	DB	'      ', 0e2H, 0cfH, '?', 0a3H, 0a9H, 0a1H, 0a3H, 00H
	ORG $+46
	ORG $+1
	DW	0dH
	DB	04H
	DB	01H
	DB	00H
	DB	0f8H, 0daH, 0f3H, 0b5H, '?', 0daH, 0aaH, 00H
	ORG $+52
	ORG $+1
	DW	00H
	DB	00H
	DB	01H
	DB	00H
	DB	'      ', 0e4H, 0ceH, 0f9H, 0bbH, 0f8H, 0daH, 0f3H, 0b5H, 0fdH
	DB	0a8H, 0efH, 0c3H, '??', 0d8H, 0fcH, 0eeH, 0dcH, '?', 0ecH, 0d1H
	DB	0caH, 0a5H, 0ecH, 0a4H, 0f8H, 0daH, 0f3H, 0b5H, 0a3H, 0acH, '?'
	DB	0ecH, 0d1H, 0daH, 0aaH, 0e3H, 0f3H, 00H
	ORG $+15
	ORG $+1
	DW	00H
	DB	00H
	DB	01H
	DB	00H
	DB	'      ', 0dfH, 0beH, 0ecH, 0abH, 0eaH, 0f3H, 0e7H, 0e9H, 0f1H
	DB	0feH, '?', 0daH, 0aaH, 0eeH, 0dcH, '?', 0fdH, 0a6H, 0a3H, 0acH
	DB	'??', 0e4H, 0ceH, '?', 0eeH, 0a2H, '?', 0d4H, 0e0H, 0f1H, 0e9H
	DB	'??', 00H
	ORG $+19
	ORG $+1
	DW	0eH
	DB	00H
	DB	01H
	DB	00H
	DB	'  ', 0f5H, 0f3H, '?', 0ecH, 0e9H, '?        ', 0a3H, 0acH
	DB	0d3H, 0dbH, 0f8H, 0faH, 0d9H, 0e9H, 0dbH, 0f6H, 0eeH, 0a2H, 0f8H
	DB	0daH, 0f3H, 0b5H, '?', 0daH, 0aaH, 0d6H, 0f5H, 0a1H, 0a3H, 00H
	ORG $+20
	ORG $+1
	DW	0fH
	DB	04H
	DB	01H
	DB	00H
	DB	'?', 0fcH, 0deH, '?', 0daH, 0aaH, 0d0H, 0e0H, 0ccH, 0daH, '?'
	DB	'?', 0daH, 0aaH, 00H
	ORG $+45
	ORG $+1
	DW	00H
	DB	00H
	DB	01H
	DB	00H
	DB	'      ?', 0d4H, 0e0H, 0f1H, 0e9H, 0caH, 0a6H, 0ccH, 0daH
	DB	'?', 0eeH, 0dcH, '?', 0daH, 0aaH, '??', 0daH, 0aaH, '?', 0eaH, 0c8H
	DB	0eeH, 0dcH, 0f2H, 0a2H, 0dbH, 0b0H, 0deH, 0c5H, 0e9H, 0c4H, 0d4H
	DB	0f5H, 0d3H, 0e2H, 00H
	ORG $+17
	ORG $+1
	DW	00H
	DB	00H
	DB	01H
	DB	00H
	DB	'      ', 0eeH, 0dcH, '?', 0daH, 0aaH, 0eeH, 0a6H, 0caH, 0a6H
	DB	0ecH, 0a4H, 0eeH, 0a2H, '?', 0d4H, 0e0H, 0f1H, 0e9H, '?', 0ccH
	DB	0daH, '?', 0a1H, 0a3H, 00H
	ORG $+29
	ORG $+1
	DW	010H
	DB	04H
	DB	01H
	DB	00H
	DB	'?', 0cfH, 0b4H, '?', 0f0H, 0beH, '?', 0d4H, 0e0H, 00H
	ORG $+50
	ORG $+1
	DW	00H
	DB	00H
	DB	01H
	DB	00H
	DB	'      ', 0eeH, 0a2H, '?', 0d4H, 0e0H, 0f1H, 0e9H, 0e5H, 0fdH
	DB	0cdH, 0fdH, 0dfH, 0ccH, '?', 0d0H, 0ecH, 0f6H, 0e2H, 0ecH, 0d1H
	DB	'?', 0f0H, 0beH, '?', 0d4H, 0e0H, 0a3H, 0acH, 0caH, 0a6H, 0efH
	DB	0c3H, '???', 00H
	ORG $+18
	ORG $+1
	DW	00H
	DB	00H
	DB	01H
	DB	00H
	DB	'      ', 0e4H, 0ceH, '?', 0a3H, 0acH, '??', 0dfH, 0ccH, 0caH
	DB	0a5H, 0ecH, 0fdH, 0d0H, 0ecH, '?', 0e8H, 0ccH, 0caH, 0abH, 0eeH
	DB	0dcH, '?', 0d4H, 0e0H, 0f1H, 0e9H, '?', 0a3H, 0a8H, '?', 0caH, 0d7H
	DB	0d3H, 0f0H, 00H
	ORG $+18
	ORG $+1
	DW	00H
	DB	00H
	DB	01H
	DB	00H
	DB	'      ', 0eaH, 0f3H, 0d0H, 0ecH, 0f6H, 0e2H, 0e8H, 0ccH, 0caH
	DB	0abH, '?', 0dfH, 0beH, 0eaH, 0f3H, 'help', 0eeH, 0dcH, '?', 0fdH
	DB	0a6H, 0a3H, 0a9H, 0a3H, 0acH, 0caH, 0a6H, 0e4H, 0ceH, 0f9H, 0bbH
	DB	'?', 0d8H, 0fcH, 0f1H, 0e9H, 00H
	ORG $+14
	ORG $+1
	DW	012H
	DB	00H
	DB	01H
	DB	00H
	DB	'  ', 0e9H, 0d3H, 0dfH, 0beH, 0dbH, 0b0H, 0caH, 0a5H, 0ecH
	DB	0fdH, '?', 0d4H, 0e0H, '      ', 0eeH, 0dcH, 0e4H, 0ceH, '??', 0caH
	DB	0a6H, '?', 0ecH, 0fdH, 0d0H, 0ecH, 0f6H, 0e2H, 0e8H, 0ccH, 0caH
	DB	0abH, 00H
	ORG $+19
	ORG $+1
	DW	00H
	DB	00H
	DB	01H
	DB	00H
	DB	'      ', 0eeH, 0dcH, '?', 0d4H, 0e0H, 0f1H, 0e9H, 0a1H, 0a3H
	DB	00H
	ORG $+44
	ORG $+1
	DW	011H
	DB	04H
	DB	01H
	DB	00H
	DB	0d4H, 0b1H, '?', 00H
	ORG $+56
	ORG $+1
	DW	00H
	DB	00H
	DB	01H
	DB	00H
	DB	'      ?', 0ecH, 0fdH, '?', 0d4H, 0e0H, '?', 0d8H, 0fcH, 0fdH
	DB	0a8H, 0e5H, 0fdH, 0cdH, 0fdH, 0e8H, 0ccH, 0caH, 0abH, 0dcH, 0f4H
	DB	0dfH, 0ccH, '???', 0d4H, 0e0H, 0eeH, 0dcH, '?', 0caH, 0a6H, 0ecH
	DB	0a4H, 00H
	ORG $+18
	ORG $+1
	DW	00H
	DB	00H
	DB	01H
	DB	00H
	DB	'      ', 0efH, 0c3H, '???', 0e4H, 0ceH, '?', 0eeH, 0a2H, '?'
	DB	0d4H, 0e0H, 0f1H, 0e9H, 0d4H, 0b1H, '?', 0a1H, 0a3H, 00H
	ORG $+33
	ORG $+1
	ORG $+2
?help_desc_25@@3PAUDESC@@A DW 00H			; help_desc_25
	DB	00H
	DB	00H
	DB	00H
	DB	0e8H, 0ccH, 0caH, 0abH, 0dfH, 0ccH, 0e9H, 0a9H, '?', 0e8H
	DB	0ccH, 0caH, 0abH, 0ecH, 0d1H, 0daH, 0aaH, '?', 0faH, 0bcH, 'PK'
	DB	0eeH, 0dcH, '?', 0fdH, 0a6H, 0a3H, 0acH, 0e2H, 0cdH, 0e9H, 0a9H
	DB	'??', 0d8H, 0fcH, 0f1H, 0a7H, 0dfH, 0beH, 0caH, 0c7H, 0eeH, 0dcH
	DB	00H
	ORG $+14
	ORG $+1
	DW	00H
	DB	00H
	DB	00H
	DB	00H
	DB	'Menu??', 0f1H, 0e9H, 0eeH, 0dcH, '?', 0d4H, 0e0H, '?', 0f6H
	DB	0c7H, 0e0H, 0f7H, ' YES', 0dbH, 0b0H, 0d2H, 0f6H, '?', 0d0H, 0ecH
	DB	0f6H, 0e2H, 0e8H, 0ccH, 0caH, 0abH, 0ecH, 0d1H, 0daH, 0aaH, '?'
	DB	'?', 0a3H, 0acH, 00H
	ORG $+16
	ORG $+1
	DW	00H
	DB	00H
	DB	00H
	DB	00H
	DB	0eeH, 0a4H, 0e8H, 0ccH, 0caH, 0abH, '?', 0faH, 0bcH, 'PK', 0eeH
	DB	0dcH, '?', 0fdH, 0a6H, 0dcH, 0f4H, 0d2H, 0f6H, 0deH, 0c5H, 0e9H
	DB	0c4H, '?', 0d4H, 0e0H, 0f1H, 0e9H, 0eeH, 0dcH, 0f3H, 0b5H, 0f8H
	DB	0daH, 0ecH, 0a4H, 0d0H, 0e0H, 'HELP', 0eeH, 0dcH, 0e4H, 0ceH, 00H
	ORG $+12
	ORG $+1
	DW	00H
	DB	00H
	DB	00H
	DB	00H
	DB	'?', 0a1H, 0a3H, 00H
	ORG $+56
	ORG $+1
	DW	00H
	DB	00H
	DB	00H
	DB	00H
	DB	0ecH, 0e9H, 0daH, 0f5H, 'PK', 0d3H, 0deH, 0d2H, 0fdH, '?', 0faH
	DB	0bcH, 0eeH, 0a4H, 0deH, 0ccH, 0d3H, 0deH, 0f5H, 0f3H, 0dfH, 0e6H
	DB	0f5H, 0bdH, 0edH, 0adH, 0eeH, 0dcH, 0cdH, 0ecH, 0d4H, 0d2H, '?'
	DB	0d0H, 0fcH, '?', 0a3H, 0acH, 0fbH, 0e4H, 0e3H, 0c0H, 0e8H, 0ccH
	DB	0caH, 0abH, 00H
	ORG $+12
	ORG $+1
	DW	00H
	DB	00H
	DB	00H
	DB	00H
	DB	0caH, 0a6H, 0ecH, 0a4H, 0ecH, 0f2H, 0ebH, 0f2H, '??', 0f2H
	DB	0a2H, 0efH, 0c3H, 0a3H, 0acH, '?', 0faH, 0bcH, 0ecH, 0e9H, 0daH
	DB	0f5H, 'PK', 0a3H, 0acH, 0e8H, 0ccH, 0caH, 0abH, 0f9H, 0b1H, '?'
	DB	0d8H, 0fcH, '?', 0d8H, 0fcH, 0eeH, 0dcH, '?', 0dfH, 0ccH, 00H
	ORG $+15
	ORG $+1
	DW	00H
	DB	00H
	DB	00H
	DB	00H
	DB	0e9H, 0a9H, '?', 0f1H, 0fdH, '??', 0eeH, 0dcH, 0e8H, 0ccH
	DB	0caH, 0abH, 0fbH, 0bbH, 0dfH, 0d3H, '?', 0fbH, 0bfH, '???', 0d4H
	DB	0e0H, 0a3H, 0acH, 0e4H, 0ceH, 0f9H, 0bbH, '?', 0d8H, 0fcH, 0e9H
	DB	0d3H, 0dfH, 0beH, 0caH, 0c7H, 0eeH, 0dcH, 00H
	ORG $+17
	ORG $+1
	DW	04H
	DB	00H
	DB	00H
	DB	00H
	DB	'?', 0caH, 0a6H, '?', 0e8H, 0ccH, 0caH, 0abH, 0ecH, 0d1H, 0daH
	DB	0aaH, '?', 0faH, 0bcH, '??', 0a1H, 0a3H, 00H
	ORG $+40
	ORG $+1
?help_desc_26@@3PAUDESC@@A DW 00H			; help_desc_26
	DB	00H
	DB	00H
	DB	00H
	DB	'    ', 0caH, 0abH, 0f0H, 0e9H, '?', 0caH, 0abH, 0f0H, 0e9H
	DB	0f1H, 0fdH, '?', 0eeH, 0dcH, 'PK', 0e2H, 0cdH, 0e9H, 0a9H, '?', 0ebH
	DB	0a6H, '?', 0dbH, 0b0H, 0f0H, 0e9H, '??', 0efH, 0d2H, 'PK', 0eeH
	DB	0dcH, '??', 00H
	ORG $+17
	ORG $+1
	DW	00H
	DB	00H
	DB	00H
	DB	00H
	DB	'??', 0a3H, 0acH, '??', 0eeH, 0dcH, '?', 0f2H, 0a2H, 0eeH
	DB	0a4H, 0deH, 0ccH, 0d3H, 0deH, 0f5H, 0f3H, 0dfH, 0e6H, 0f2H, 0a2H
	DB	0f5H, 0bdH, '?', 0eeH, 0dcH, '?', 0d0H, 0fcH, '?', 0d7H, 0ecH, 0d8H
	DB	0fcH, 0eeH, 0dcH, 'PK', 0f6H, 0a9H, 00H
	ORG $+17
	ORG $+1
	DW	00H
	DB	00H
	DB	00H
	DB	00H
	DB	'??', 0a3H, 0acH, '?', 0dbH, 0b0H, 0f0H, 0e9H, '?', 0f9H, 0b1H
	DB	'?', 0e0H, 0bbH, 0eeH, 0a4H, '?', 0f2H, 0a2H, '??', 0ecH, 0d1H
	DB	0d1H, 0e1H, 0d7H, 0ecH, 0d4H, 0f4H, '?', 0dfH, 0ccH, 0e9H, 0a9H
	DB	'PK', 0eeH, 0dcH, '?', 00H
	ORG $+19
	ORG $+1
	DW	00H
	DB	00H
	DB	00H
	DB	00H
	DB	'?', 0a3H, 0acH, 0caH, 0abH, 0f0H, 0e9H, 'PK', 0eeH, 0dcH
	DB	0ecH, 0d1H, '?', 0dfH, 0beH, 0f9H, 0daH, '?', 0a3H, 0b5H, 0a3H
	DB	0b0H, 0ecH, 0d1H, 0a3H, 0acH, 0ecH, 0bbH, 0eaH, 0f3H, 0a3H, 0b2H
	DB	'?', 0dbH, 0b0H, 0e3H, 0d2H, '?', 0f0H, 0abH, 0cdH, 0eaH, 0caH
	DB	0abH, 00H
	ORG $+14
	ORG $+1
	DW	00H
	DB	00H
	DB	00H
	DB	00H
	DB	0f0H, 0e9H, '?', 0dbH, 0b0H, 0caH, 0abH, 0f0H, 0e9H, '???'
	DB	'?', 0a3H, 0acH, 0ecH, 0e9H, '?', 0e3H, 0c0H, 0a1H, 0aeH, '?', 0d4H
	DB	0e0H, 0dfH, 0e6H, 0f0H, 0edH, '?', 0a1H, 0afH, 0a3H, 0acH, 0d0H
	DB	0ecH, 0f6H, 0a2H, '?', 0eeH, 0dcH, 00H
	ORG $+18
	ORG $+1
	DW	00H
	DB	00H
	DB	00H
	DB	00H
	DB	0efH, 0d2H, '??', 0dcH, 0f4H, 0ceH, 0b7H, '??PK', 0eeH, 0dcH
	DB	0ecH, 0d1H, '?', 0d2H, 0fdH, 0cdH, 0fbH, 0a3H, 0acH, 0ecH, 0a4H
	DB	'?', 0efH, 0d2H, '?', 0faH, 0bcH, 'PK', 0eeH, 0dcH, '???', 0d6H
	DB	0f5H, 00H
	ORG $+19
	ORG $+1
	DW	00H
	DB	00H
	DB	00H
	DB	00H
	DB	'?', 0dfH, 0a9H, 0edH, 0a5H, 0e5H, 0f9H, '??', 0eeH, 0dcH
	DB	0ecH, 0d1H, '?', 0a3H, 0acH, 0d2H, 0fdH, 0edH, 0baH, '??', 0dbH
	DB	0b0H, 0a3H, 0bbH, 0d6H, 0b5H, 0ecH, 0e9H, '??', 0a1H, 0aeH, '?'
	DB	'?', 0f6H, 0e8H, '?', 00H
	ORG $+20
	ORG $+1
	DW	00H
	DB	00H
	DB	00H
	DB	00H
	DB	'?', 0a1H, 0afH, 0a3H, 0acH, 0d0H, 0ecH, '??', 0eeH, 0dcH
	DB	0efH, 0d2H, '??', 0dcH, 0f4H, 0ceH, 0b7H, '??', 0eeH, 0dcH, 0ecH
	DB	0d1H, '?', 0d2H, 0fdH, 0cdH, 0fbH, 0a3H, 0acH, 0ecH, 0a4H, '?', 0efH
	DB	0d2H, '?', 0faH, 0bcH, 00H
	ORG $+19
	ORG $+1
	DW	00H
	DB	00H
	DB	00H
	DB	00H
	DB	'PK', 0eeH, 0dcH, '???', 0d6H, 0f5H, '?', 0dfH, 0a9H, 0f9H
	DB	0acH, 0f6H, 0e8H, '???', 0eeH, 0dcH, 0ecH, 0d1H, '?', 0a3H, 0acH
	DB	0d2H, 0fdH, 0edH, 0baH, '??', 0dbH, 0b0H, 0a1H, 0a3H, 0d4H, 0f5H
	DB	0d3H, 0e2H, 00H
	ORG $+19
	ORG $+1
	DW	00H
	DB	00H
	DB	00H
	DB	00H
	DB	0eeH, 0dcH, '??', 0daH, 0b1H, 0d3H, 0f0H, '?', 0e3H, 0c0H
	DB	0d9H, 0e9H, 0dbH, 0f6H, '?', 0ecH, 0fdH, 'PK??', 0eeH, 0dcH, 0a3H
	DB	0acH, 0f3H, 0aeH, '?', 0caH, 0abH, 0f0H, 0e9H, 0eeH, 0dcH, 0f0H
	DB	0e9H, '?', 0caH, 0a6H, 0ecH, 0a4H, 00H
	ORG $+17
	ORG $+1
	DW	00H
	DB	00H
	DB	00H
	DB	00H
	DB	0d7H, 0d7H, 0e9H, 0c4H, 0caH, 0abH, 0f0H, 0e9H, 0e1H, 0afH
	DB	'??', 0fbH, 0bcH, '?', 0caH, 0abH, 0f0H, 0e9H, 0eeH, 0dcH, 0e0H
	DB	0f7H, '?', 0f3H, 0a2H, 0f9H, 0eaH, 0eeH, 0a4H, 0f6H, 0a9H, '??'
	DB	'?', 0a1H, 0a3H, '?', 0ecH, 0fdH, 'PK', 00H
	ORG $+17
	ORG $+1
	DW	00H
	DB	00H
	DB	00H
	DB	00H
	DB	'?', 0fdH, 0a8H, 0d4H, 0f5H, 0d3H, 0e2H, 0d3H, 0eeH, '???'
	DB	0f2H, 0b8H, '??', 0a3H, 0acH, '?', 0d4H, 0e0H, 0eeH, 0dcH, 0f2H
	DB	0a6H, 0d6H, 0b5H, '?', 0edH, 0bbH, '?', 0f6H, 0e8H, '?', 0a3H, 0acH
	DB	'??', 00H
	ORG $+21
	ORG $+1
	DW	00H
	DB	00H
	DB	00H
	DB	00H
	DB	0eeH, 0dcH, 0e8H, 0ccH, 0caH, 0abH, 0efH, 0c3H, 0d3H, 0f0H
	DB	'PK', 0eeH, 0dcH, 0ecH, 0e9H, '?', 0f6H, 0a6H, '?', 0eeH, 0f7H
	DB	'?PK?', 0d6H, 0f5H, 0a3H, 0acH, 0ecH, 0bbH, 0caH, 0abH, 0f0H, 0e9H
	DB	'PK?', 0d7H, 0d7H, 0eeH, 0dcH, 0ecH, 0e9H, 00H
	ORG $+14
	ORG $+1
	DW	00H
	DB	00H
	DB	00H
	DB	00H
	DB	0dbH, 0b0H, 0caH, 0a6H, '?', 0d4H, 0f0H, '?', 0dbH, 0b0H, 0e4H
	DB	0a8H, 0ddH, 0c2H, 0f1H, 0fdH, 0ecH, 0e9H, 0eeH, 0dcH, 0caH, 0abH
	DB	0f0H, 0e9H, '?', 0d8H, 0d0H, 0a1H, 0a3H, 00H
	ORG $+30
	ORG $+1
	ORG $+4
?help_desc_27@@3PAUDESC@@A DW 00H			; help_desc_27
	DB	00H
	DB	00H
	DB	00H
	DB	0caH, 0abH, 0f0H, 0e9H, '?', 0d8H, 0d0H, '?', 0d3H, 0f0H, 0a3H
	DB	0b1H, 0a3H, 0b0H, 0a3H, 0b0H, 0a3H, 0b0H, 0eeH, 0dcH, 0caH, 0abH
	DB	0f0H, 0e9H, 0f0H, 0e9H, '?', 0caH, 0a6H, 0ecH, 0a4H, 0e3H, 0e9H
	DB	'?', 0deH, 0ccH, 0d3H, 0deH, 0edH, 0e4H, '?', 0a3H, 0acH, 0d0H
	DB	0ecH, 00H
	ORG $+14
	ORG $+1
	DW	00H
	DB	00H
	DB	00H
	DB	00H
	DB	0f6H, 0e2H, '?', 0eaH, 0f3H, '?', 0d4H, 0f0H, 0edH, 0e4H, '?'
	DB	0eeH, 0dcH, 0caH, 0abH, 0f0H, 0e9H, 0f9H, 0b1H, '??', 0caH, 0abH
	DB	0f0H, 0e9H, 0eeH, 0dcH, '?', 0d8H, 0d0H, 0f0H, 0abH, 0e3H, 0aeH
	DB	0d3H, 0f0H, 0f5H, 0b1H, '?', 0deH, 0ccH, 0d3H, 0deH, 00H
	ORG $+16
	ORG $+1
	DW	00H
	DB	00H
	DB	00H
	DB	00H
	DB	0edH, 0e4H, '?', 0caH, 0abH, 0f0H, 0e9H, 0eeH, 0dcH, '?', 0d8H
	DB	0d0H, '?', 0caH, 0a6H, 0ecH, 0a4H, '??', 0eeH, 0dcH, 0dbH, 0b0H
	DB	0e3H, 0d2H, 0d3H, 0fbH, '?', 0edH, 0e4H, '?', 0a1H, 0a3H, 00H
	ORG $+26
	ORG $+1
	DW	00H
	DB	00H
	DB	00H
	DB	00H
	DB	0dfH, 0ccH, 0e9H, 0a9H, 0d3H, 0fbH, '?', 0edH, 0e4H, '?', 0eeH
	DB	0dcH, 0caH, 0abH, 0f0H, 0e9H, 0f0H, 0e9H, '??', 0d3H, 0f0H, 0f0H
	DB	0ebH, '?', 0eeH, 0dcH, '?', 0d8H, 0d0H, 0fdH, 0a8H, 0a3H, 0acH
	DB	0f9H, 0b1H, '?', 0d3H, 0f0H, 0dfH, 0ccH, 0e9H, 0a9H, 00H
	ORG $+16
	ORG $+1
	DW	00H
	DB	00H
	DB	00H
	DB	00H
	DB	0d3H, 0fbH, '?', 0eeH, 0dcH, 0edH, 0e4H, '?', 0cbH, 0dbH, '?'
	DB	'??', 0d4H, 0f4H, '?', 0ecH, 0d1H, 0d4H, 0f4H, '???', 0a3H, 0acH
	DB	0d4H, 0f4H, '?', 0fdH, 0a8H, 0eaH, 0f3H, 0a3H, 0b2H, 0a3H, 0b4H
	DB	'?', 0e1H, 0b3H, 00H
	ORG $+20
	ORG $+1
	DW	00H
	DB	00H
	DB	00H
	DB	00H
	DB	'?', 0edH, 0c2H, 0f1H, 0d7H, '?', 0eeH, 0dcH, '??', 0a1H, 0a3H
	DB	'??', 0efH, 0d2H, 0eeH, 0dcH, '??', 0d3H, 0f0H, 0d6H, 0f5H, 0a3H
	DB	0acH, 0f0H, 0e9H, '?', 0caH, 0a6H, 0ecH, 0a4H, 0d3H, 0f0H, 0caH
	DB	0abH, 0f0H, 0e9H, 0e1H, 0afH, 00H
	ORG $+18
	ORG $+1
	DW	00H
	DB	00H
	DB	00H
	DB	00H
	DB	'??', 0fbH, 0bcH, '?', 0caH, 0abH, 0f0H, 0e9H, 0eeH, 0dcH
	DB	0e0H, 0f7H, '?', 0d3H, 0f0H, 0edH, 0e4H, '??', 0f3H, 0a2H, 0f9H
	DB	0eaH, 0f1H, 0d7H, '?', 0a3H, 0a8H, 0e1H, 0afH, '?', 0f1H, 0feH
	DB	0f9H, 0daH, 0e9H, 0cdH, 0d4H, 0d2H, 0ecH, 0e9H, 00H
	ORG $+17
	ORG $+1
	DW	00H
	DB	00H
	DB	00H
	DB	00H
	DB	'?', 0e0H, 0f8H, 0cfH, 0b9H, 0a3H, 0a9H, 0a1H, 0a3H, '?', 0ecH
	DB	0fdH, 'PK?', 0fdH, 0a8H, 0d4H, 0f5H, 0d3H, 0e2H, 0d3H, 0eeH, '?'
	DB	'??', 0f2H, 0b8H, '??', 0a3H, 0acH, '?', 0d4H, 0e0H, 0eeH, 0dcH
	DB	0f2H, 0a6H, 0d6H, 0b5H, 00H
	ORG $+18
	ORG $+1
	DW	00H
	DB	00H
	DB	00H
	DB	00H
	DB	'?', 0edH, 0bbH, '?', 0f6H, 0e8H, '?', 0a3H, 0acH, '??', 0eeH
	DB	0dcH, 0e8H, 0ccH, 0caH, 0abH, 0efH, 0c3H, 0d3H, 0f0H, 'PK', 0eeH
	DB	0dcH, 0ecH, 0e9H, '?', 0f6H, 0a6H, '?', 0eeH, 0f7H, '?PK?', 0d6H
	DB	0f5H, 0a3H, 0acH, 00H
	ORG $+18
	ORG $+1
	DW	00H
	DB	00H
	DB	00H
	DB	00H
	DB	0ecH, 0bbH, 0caH, 0abH, 0f0H, 0e9H, 'PK?', 0d7H, 0d7H, 0eeH
	DB	0dcH, 0ecH, 0e9H, 0dbH, 0b0H, 0caH, 0a6H, '?', 0d4H, 0f0H, '?', 0dbH
	DB	0b0H, 0e4H, 0a8H, 0ddH, 0c2H, 0f1H, 0fdH, 0ecH, 0e9H, 0eeH, 0dcH
	DB	0caH, 0abH, 0f0H, 0e9H, '?', 0d8H, 0d0H, 0a3H, 0acH, '?', 00H
	ORG $+14
	ORG $+1
	DW	00H
	DB	00H
	DB	00H
	DB	00H
	DB	0f6H, 0a2H, 0d4H, 0f0H, '?', 0edH, 0e4H, '?', 0a1H, 0a3H, 00H
	ORG $+49
	ORG $+1
	ORG $+2
?help_desc_28@@3PAUDESC@@A DW 00H			; help_desc_28
	DB	00H
	DB	00H
	DB	00H
	DB	0e4H, 0ceH, 0f9H, 0bbH, '??', 0dfH, 0beH, 0eeH, 0dcH, 'Pa'
	DB	'ge Up', 0fbH, 0faH, 'Page Down ???', 0d4H, 0e0H, 0d9H, 0bcH, 0e3H
	DB	0d2H, 0a3H, 0baH, 00H
	ORG $+19
	ORG $+1
	DW	00H
	DB	04H
	DB	00H
	DB	00H
	DB	'  ', 0e8H, 0ccH, 0caH, 0abH, 0d9H, 0bcH, 0e3H, 0d2H, 0a3H
	DB	0baH, 00H
	ORG $+47
	ORG $+1
	DW	00H
	DB	00H
	DB	00H
	DB	00H
	DB	'    ', 0ebH, 0a6H, 0e8H, 0ccH, 0caH, 0abH, 0edH, 0bbH, 0d0H
	DB	0f9H, '???', 0d4H, 0e0H, '?', 0e1H, 0b6H, 0e9H, 0a9H, 0f1H, 0aeH
	DB	0eeH, 0dcH, '?', 0edH, 0c2H, 0a1H, 0a3H, 00H
	ORG $+26
	ORG $+1
	DW	00H
	DB	04H
	DB	00H
	DB	00H
	DB	'  AI', 0d9H, 0bcH, 0e3H, 0d2H, 0a3H, 0a8H, 0eaH, 0f3H, 0deH
	DB	0ccH, '?', 0cdH, 0edH, 0d2H, 0f6H, 0eeH, 0dcH, '?', 0efH, 0d2H
	DB	0a3H, 0a9H, 0a3H, 0baH, 00H
	ORG $+31
	ORG $+1
	DW	00H
	DB	00H
	DB	00H
	DB	00H
	DB	'    ?', 0faH, 0ecH, 0a3H, 0baH, '?', 0efH, 0d2H, 0deH, 0c5H
	DB	0e9H, 0c4H, 0f9H, 0bcH, '?', 0efH, 0f1H, '?', 0fbH, 0e4H, 0deH
	DB	0c5H, 0e9H, 0c4H, 0d4H, 0b3H, 0ceH, 0fdH, '??', 0faH, 0ecH, 0a3H
	DB	0acH, '?', 0d2H, 0b1H, 0ceH, 0f9H, 00H
	ORG $+16
	ORG $+1
	DW	00H
	DB	00H
	DB	00H
	DB	00H
	DB	'          ', 0d5H, 0f4H, 0eeH, 0b8H, 0e9H, 0cdH, '??', 0eeH
	DB	0dcH, 0dbH, 0ddH, 0ddH, 0c2H, 0ddH, 0efH, '?', 0f6H, 0a6H, '?', 0edH
	DB	0bbH, '??', 0faH, 0ecH, 0a3H, 0a8H, '?', 0e0H, 0bbH, 0deH, 0c5H
	DB	00H
	ORG $+16
	ORG $+1
	DW	00H
	DB	00H
	DB	00H
	DB	00H
	DB	'          ', 0e9H, 0c4H, 0ebH, 0bfH, '??', 0faH, 0ecH, 0a3H
	DB	0a9H, 0a1H, 0a3H, 00H
	ORG $+37
	ORG $+1
	DW	00H
	DB	00H
	DB	00H
	DB	00H
	DB	'    ??', 0a3H, 0baH, '??', 0eeH, 0b8H, 0e9H, 0cdH, '??', 0eeH
	DB	0dcH, 0dbH, 0ddH, 0ddH, 0c2H, 0ddH, 0efH, '?', 0a3H, 0acH, 0f6H
	DB	0a6H, 0deH, 0c5H, 0e9H, 0c4H, 0e3H, 0f3H, 0dfH, 0beH, 0caH, 0a6H
	DB	0ecH, 0a4H, '?', 00H
	ORG $+17
	ORG $+1
	DW	00H
	DB	00H
	DB	00H
	DB	00H
	DB	'          ?', 0eeH, 0dcH, 0d4H, 0b3H, 0ceH, 0fdH, 0fcH, 0e1H
	DB	'??', 0d5H, 0f4H, 0a1H, 0a3H, 00H
	ORG $+34
	ORG $+1
	DW	00H
	DB	00H
	DB	00H
	DB	00H
	DB	'    ', 0e2H, 0cfH, 0f3H, 0adH, 0a3H, 0baH, '?', 0efH, 0d2H
	DB	'?', 0d4H, 0e0H, 0eeH, 0dcH, 0f0H, 0afH, 0ecH, 0e9H, 0fcH, 0deH
	DB	0f9H, 0eaH, 0e9H, 0a9H, 0deH, 0c5H, 0e9H, 0c4H, 0eeH, 0dcH, 0efH
	DB	0f1H, '?', 0fbH, 0e4H, 0d8H, 0aaH, 0dbH, 0f6H, 0a1H, 0a3H, 00H
	ORG $+14
	ORG $+1
	DW	00H
	DB	00H
	DB	00H
	DB	00H
	DB	'    ?', 0fcH, 0c0H, 0a3H, 0baH, '?', 0efH, 0d2H, 0deH, 0c5H
	DB	0e9H, 0c4H, 0f9H, 0bcH, '?', 0efH, 0f1H, '?', 0fbH, 0e4H, 0deH
	DB	0c5H, 0e9H, 0c4H, 0d4H, 0b3H, 0ceH, 0fdH, '??', 0fcH, 0c0H, 0a1H
	DB	0a3H, 00H
	ORG $+21
	ORG $+1
	DW	00H
	DB	00H
	DB	00H
	DB	00H
	DB	'PS', 0a3H, 0baH, 0d8H, 0dfH, '?AI', 0eeH, 0dcH, '?', 0efH
	DB	0d2H, 0d4H, 0b4H, 0caH, 0a6H, '??', 0deH, 0c5H, 0e9H, 0c4H, '?'
	DB	0dfH, 0daH, 0eeH, 0dcH, '?', 0e0H, 0bbH, '?', 0dfH, 0edH, 0a3H
	DB	0bbH, 0f7H, 0e5H, '?', 0f1H, 0bcH, 00H
	ORG $+17
	ORG $+1
	DW	00H
	DB	00H
	DB	00H
	DB	00H
	DB	'    ', 0ebH, 0f2H, 0a3H, 0acH, '??', 0fbH, 0e4H, '?', 0daH
	DB	0aaH, 0eeH, 0dcH, 0faH, 0ecH, 0eeH, 0b8H, 0e9H, 0cdH, 0e9H, 0a9H
	DB	'?', 0faH, 0ecH, 0eeH, 0dcH, 0f9H, 0bbH, 0f9H, 0daH, 0caH, 0bfH
	DB	0d9H, 0e9H, 0dbH, 0f6H, '?', 0faH, 0ecH, 0a3H, 0acH, 00H
	ORG $+14
	ORG $+1
	DW	00H
	DB	00H
	DB	00H
	DB	00H
	DB	'    ', 0fbH, 0e4H, '?', 0daH, 0aaH, 0deH, 0ddH, 0d8H, 0ccH
	DB	0caH, 0bfH, 0d9H, 0e9H, 0dbH, 0f6H, '?', 0fcH, 0c0H, 0a3H, 0acH
	DB	0f6H, 0a6H, '?', 0edH, 0bbH, '?', 0d4H, 0b1H, '?', 0a1H, 0a3H, 00H
	ORG $+24
	ORG $+1
	ORG $+4
?help_desc_29@@3PAUDESC@@A DW 00H			; help_desc_29
	DB	04H
	DB	00H
	DB	00H
	DB	0e4H, 0dbH, 0e0H, 0b4H, 0d3H, 0d5H, '?', 0a3H, 0baH, 00H
	ORG $+50
	ORG $+1
	DW	00H
	DB	00H
	DB	00H
	DB	00H
	DB	'  ', 0d3H, 0deH, 0f2H, 0a2H, 0efH, 0f1H, '?', 0e4H, 0baH
	DB	'??', 0e2H, 0a3H, '??', 0cdH, 0f4H, '??', 0ecH, 0d1H, 0eeH, 0dcH
	DB	0f2H, 0a2H, '?', 0e0H, 0f5H, 0d8H, 0aaH, 0dbH, 0f6H, 0a1H, 0a3H
	DB	00H
	ORG $+23
	ORG $+1
	DW	00H
	DB	04H
	DB	00H
	DB	00H
	DB	0e2H, 0a9H, 0f1H, 0baH, 0a3H, 0baH, 00H
	ORG $+53
	ORG $+1
	DW	00H
	DB	00H
	DB	00H
	DB	00H
	DB	'  ', 0e2H, 0a9H, 0efH, 0f1H, '?', 0e8H, 0bfH, 0d1H, 0adH
	DB	'?', 0e2H, 0a3H, '??', 0cdH, 0f4H, '??', 0ecH, 0d1H, 0eeH, 0dcH
	DB	0e2H, 0a9H, '?', 0e0H, 0f5H, 0d8H, 0aaH, 0dbH, 0f6H, 0a1H, 0a3H
	DB	00H
	ORG $+24
	ORG $+1
	DW	00H
	DB	04H
	DB	00H
	DB	00H
	DB	0fbH, 0fdH, 0cfH, 0b9H, 0a3H, 0baH, 00H
	ORG $+53
	ORG $+1
	DW	00H
	DB	00H
	DB	00H
	DB	00H
	DB	'  ', 0fbH, 0fdH, 0e6H, 0faH, 0efH, 0f1H, '????', 0e2H, 0a3H
	DB	'??', 0cdH, 0f4H, '??', 0ecH, 0d1H, 0eeH, 0dcH, 0fbH, 0fdH, '?'
	DB	0e0H, 0f5H, 0d8H, 0aaH, 0dbH, 0f6H, 0a1H, 0a3H, 00H
	ORG $+24
	ORG $+1
	DW	00H
	DB	04H
	DB	00H
	DB	00H
	DB	'?', 0ecH, 0d3H, 0a3H, 0baH, 00H
	ORG $+54
	ORG $+1
	DW	00H
	DB	00H
	DB	00H
	DB	00H
	DB	'  ', 0f2H, 0f0H, '?', 0efH, 0f1H, '?', 0eaH, 0ceH, 0ebH, 0daH
	DB	0d3H, 0ecH, 0e2H, 0a3H, '??', 0cdH, 0f4H, '??', 0ecH, 0d1H, 0eeH
	DB	0dcH, '??', 0e0H, 0f5H, 0d8H, 0aaH, 0dbH, 0f6H, 0a1H, 0a3H, 00H
	ORG $+23
	ORG $+1
?help_desc_30@@3PAUDESC@@A DW 00H			; help_desc_30
	DB	04H
	DB	00H
	DB	00H
	DB	0efH, 0f1H, '?', 0eeH, 0dcH, 0e1H, 0afH, '??', 0d9H, 0a5H
	DB	00H
	ORG $+48
	ORG $+1
	DW	00H
	DB	00H
	DB	00H
	DB	00H
	DB	'1.?', 0efH, 0f1H, '?', 0e1H, 0afH, '??', 0eeH, 0dcH, '?', 0fdH
	DB	0a6H, 0a3H, 0acH, 0cdH, 0a3H, 0d8H, 0fcH, 0dfH, 0beH, 0eeH, 0dcH
	DB	'CALL?', 0fbH, 0a1H, '???', 0a3H, 0acH, 0e8H, 0ccH, 0caH, 0abH
	DB	00H
	ORG $+18
	ORG $+1
	DW	00H
	DB	00H
	DB	00H
	DB	00H
	DB	'  ', 0f9H, 0b1H, '?', 0efH, 0c3H, '?', 0efH, 0f1H, '?', 0eeH
	DB	0dcH, 0e1H, 0afH, '??', 0fbH, 0a1H, 0a3H, 0acH, 0f6H, 0a6H, 0caH
	DB	0a6H, 0ecH, 0a4H, 0efH, 0c8H, 0e1H, 0f4H, 0efH, 0f1H, '?', 0eeH
	DB	0dcH, 0e1H, 0afH, '?', 0a1H, 0a3H, 00H
	ORG $+18
	ORG $+1
	DW	00H
	DB	00H
	DB	00H
	DB	00H
	DB	'2.', 0efH, 0f1H, '?', 0eeH, 0dcH, 0e1H, 0afH, '?', 0e7H, 0e9H
	DB	0ddH, 0c2H, '??', 0e5H, 0b4H, 0d9H, 0e9H, 0ecH, 0f2H, 0f9H, 0bcH
	DB	0fcH, 0deH, '?', 0a3H, 0acH, '?', 0edH, 0bbH, '???', 0efH, 0f1H
	DB	'?', 0eeH, 0dcH, 00H
	ORG $+19
	ORG $+1
	DW	00H
	DB	00H
	DB	00H
	DB	00H
	DB	'  ', 0e1H, 0afH, '?', 0a1H, 0a3H, 00H
	ORG $+52
	ORG $+1
	DW	00H
	DB	00H
	DB	00H
	DB	00H
	DB	'3.?', 0efH, 0c8H, 0e1H, 0f4H, 0efH, 0f1H, '?', 0eeH, 0dcH
	DB	0e1H, 0afH, '?', 0e9H, 0b8H, 0edH, 0baH, 0f9H, 0b1H, '?', 0e9H
	DB	0cdH, '?', 0f4H, 0b8H, '?', 0e8H, 0c7H, 0e0H, 0f7H, 0ecH, 0f2H
	DB	'?', 0a3H, 0acH, 0dcH, 0faH, '?', 0ecH, 0f2H, 00H
	ORG $+17
	ORG $+1
	DW	00H
	DB	00H
	DB	00H
	DB	00H
	DB	'  ???', 0e1H, 0d6H, 0a3H, 0acH, 0e3H, 0e1H, 0daH, 0aaH, 0cdH
	DB	0edH, 0d2H, 0f6H, 0e3H, 0f7H, 0fcH, 0f9H, 0edH, 0bbH, '?', 0e1H
	DB	0bcH, 0e3H, 0f7H, 0a1H, 0a3H, 00H
	ORG $+29
	ORG $+1
	DW	00H
	DB	00H
	DB	00H
	DB	00H
	DB	'4.?', 0efH, 0f1H, '?', 0e9H, 0b8H, 0edH, 0baH, 0e8H, 0c7H
	DB	0e0H, 0f7H, 0ecH, 0f2H, '?', 0fdH, 0a8H, 0a3H, 0acH, 0e9H, 0b8H
	DB	0edH, 0baH, '?', 0deH, 0c5H, 0edH, 0baH, 0caH, 0a6H, 0ecH, 0a4H
	DB	'?', 0f3H, 0b7H, 0e3H, 0e1H, 0daH, 0aaH, 0eeH, 0f1H, 0e8H, 0d9H
	DB	00H
	ORG $+14
	ORG $+1
	DW	00H
	DB	00H
	DB	00H
	DB	00H
	DB	'  ?', 0f6H, 0a2H, '?', 0f9H, 0a1H, 0a1H, 0a3H, 00H
	ORG $+49
	ORG $+1
	DW	00H
	DB	00H
	DB	00H
	DB	00H
	DB	'5.', 0e3H, 0e1H, 0daH, 0aaH, '?', 0e3H, 0f7H, '?', 0d9H, 0e9H
	DB	0dbH, 0f6H, '?', 0faH, 0bcH, 0ecH, 0f2H, '?', 0a3H, 0acH, '?', 0e3H
	DB	0f7H, 0f3H, 0aeH, 0f3H, 0adH, 0efH, 0f1H, '?', 0eeH, 0dcH, 0e1H
	DB	0afH, '?', 0cfH, 0f5H, '?', 0a3H, 0acH, 00H
	ORG $+17
	ORG $+1
	DW	00H
	DB	00H
	DB	00H
	DB	00H
	DB	'  ?', 0f6H, 0e6H, 0caH, 0a5H, 0dcH, 0c1H, 0ceH, 0b7H, 0e3H
	DB	0e1H, 0daH, 0aaH, 0a1H, 0a3H, 00H
	ORG $+42
	ORG $+1
	DW	00H
	DB	04H
	DB	00H
	DB	00H
	DB	0efH, 0f1H, '?', 0eeH, 0dcH, 0e1H, 0afH, '?', 0d4H, 0b3H, 0ceH
	DB	0fdH, '?', 0d9H, 0a5H, 00H
	ORG $+44
	ORG $+1
	DW	00H
	DB	00H
	DB	00H
	DB	00H
	DB	'1.', 0efH, 0f1H, '?', 0deH, 0c5H, 0edH, 0baH, '??', 0deH
	DB	0c5H, 0edH, 0baH, 0e3H, 0e1H, 0daH, 0aaH, 0fdH, 0a8H, 0dcH, 0f4H
	DB	0e9H, 0e7H, '?', 0a1H, 0a3H, 00H
	ORG $+31
	ORG $+1
	DW	00H
	DB	00H
	DB	00H
	DB	00H
	DB	'2.', 0efH, 0f1H, '?', 0deH, 0c5H, 0edH, 0baH, '??', 0e9H
	DB	0b8H, 0edH, 0baH, 0e3H, 0e1H, 0daH, 0aaH, 0caH, 0a6H, '?', 0e1H
	DB	0eaH, 0f2H, 0b8H, 0e9H, 0b8H, 0edH, 0baH, 0e3H, 0f3H, '?', 0a1H
	DB	0a3H, 00H
	ORG $+24
	ORG $+1
	DW	00H
	DB	00H
	DB	00H
	DB	00H
	DB	'3.', 0efH, 0f1H, '?', 0e9H, 0b8H, 0edH, 0baH, '??', 0e9H
	DB	0b8H, 0edH, 0baH, 0e3H, 0e1H, 0daH, 0aaH, 0fdH, 0a8H, 0caH, 0a6H
	DB	'??', 0ecH, 0f2H, '??', 0e9H, 0bbH, 0a1H, 0a3H, 00H
	ORG $+26
	ORG $+1
	ORG $+2
?help_desc_31@@3PAUDESC@@A DW 00H			; help_desc_31
	DB	00H
	DB	00H
	DB	00H
	DB	'1.??', 0d8H, 0fcH, '?', 0d0H, 0ecH, 0f6H, 0e2H, 0e8H, 0ccH
	DB	0caH, 0abH, '?', 0a3H, 0acH, 0e4H, 0ceH, 0f9H, 0bbH, '??', 0e4H
	DB	0ceH, '?', 0a3H, 0acH, '????', 0e3H, 0c0H, 0dcH, 0faH, '?', 00H
	ORG $+21
	ORG $+1
	DW	00H
	DB	00H
	DB	00H
	DB	00H
	DB	'  ', 0efH, 0d2H, '?', 0dbH, 0b0H, '??', 0eeH, 0dcH, '??', 0a1H
	DB	0a3H, 00H
	ORG $+44
	ORG $+1
	DW	00H
	DB	00H
	DB	00H
	DB	00H
	DB	'2.??', 0dbH, 0b0H, 0e0H, 0f7H, '??', 0eeH, 0dcH, '??', 0f1H
	DB	0fdH, 0fdH, 0a8H, 0a3H, 0acH, '???', 0d4H, 0f0H, '?', 0d8H, 0d0H
	DB	'?', 0a3H, 0acH, '?', 0eeH, 0dcH, '??', 00H
	ORG $+23
	ORG $+1
	DW	00H
	DB	00H
	DB	00H
	DB	00H
	DB	'  ??', 0d4H, 0f0H, 0d3H, 0f0H, '?', 0e1H, 0b6H, '?', 0d4H
	DB	0f0H, 0eeH, 0dcH, '?', 0d8H, 0d0H, 0dbH, 0ddH, 0ddH, 0c2H, 0f1H
	DB	0fdH, 0e7H, 0e9H, 0a3H, 0acH, 0d3H, 0a3H, '?', 0eeH, 0dcH, '?', 0d8H
	DB	0d0H, '?', 0dcH, 0f4H, '?', 00H
	ORG $+18
	ORG $+1
	DW	00H
	DB	00H
	DB	00H
	DB	00H
	DB	'  ', 0ecH, 0d7H, 0f3H, 0aeH, '?', 0e1H, 0b4H, 0a1H, 0a3H
	DB	00H
	ORG $+48
	ORG $+1
	DW	00H
	DB	00H
	DB	00H
	DB	00H
	DB	'3.???', 0d4H, 0f0H, '?', 0d8H, 0d0H, 0eeH, 0dcH, '?', 0cbH
	DB	0ecH, '?', 0f9H, 0b1H, '?', 0eeH, 0a4H, '?', 0dfH, 0e6H, 0f6H, 0a2H
	DB	0d4H, 0f0H, '?', 0d8H, 0d0H, 0eeH, 0dcH, 0d4H, 0d2H, '???', 00H
	ORG $+21
	ORG $+1
	DW	00H
	DB	00H
	DB	00H
	DB	00H
	DB	'  ', 0dfH, 0e6H, 0eeH, 0a4H, 0d4H, 0d2H, 0ecH, 0e9H, 0e0H
	DB	0f8H, 0cfH, 0b9H, 0dfH, 0beH, 0a1H, 0a3H, 00H
	ORG $+41
	ORG $+1
	DW	00H
	DB	00H
	DB	00H
	DB	00H
	DB	'4.', 0e5H, 0b4H, '??', 0dcH, 0f4H, 0eeH, 0a4H, '?', 0fbH
	DB	0e4H, '??', 0dfH, 0e6H, 0ecH, 0abH, 0f6H, 0a2H, 0d4H, 0f0H, '?'
	DB	0d8H, 0d0H, 0fdH, 0a8H, 0eeH, 0a6H, 0dfH, 0beH, '?', 0a3H, 0acH
	DB	'????', 00H
	ORG $+20
	ORG $+1
	DW	00H
	DB	00H
	DB	00H
	DB	00H
	DB	'  ', 0dcH, 0f4H, '?', 0f1H, 0f2H, 0caH, 0a5H, '?', 0d8H, 0d0H
	DB	0a1H, 0a3H, 00H
	ORG $+45
	ORG $+1
	DW	00H
	DB	00H
	DB	00H
	DB	00H
	DB	'5.??', 0eaH, 0f3H, '??', 0fdH, 0a8H, 0a3H, 0acH, 0e4H, 0ceH
	DB	0f3H, 0aeH, 0e4H, 0ceH, '???', 0f5H, 0f3H, '?????', 0a3H, 0acH
	DB	'?', 0f3H, 0a6H, 0caH, 0a6H, 0ecH, 0a4H, 00H
	ORG $+22
	ORG $+1
	DW	00H
	DB	00H
	DB	00H
	DB	00H
	DB	'  ', 0eeH, 0a4H, 0f3H, 0aeH, '???', 0dbH, 0b0H, 0eeH, 0dcH
	DB	'???', 0ccH, 0abH, 0a1H, 0a3H, 00H
	ORG $+39
	ORG $+1
	DW	00H
	DB	00H
	DB	00H
	DB	00H
	DB	'6.???', 0dbH, 0b0H, 0eeH, 0dcH, '???', 0ccH, 0abH, '?', 0a3H
	DB	0acH, 0d4H, 0d2H, '?', 0e5H, 0a5H, '??', 0e1H, 0b4H, 0edH, 0bbH
	DB	0d0H, 0f9H, 0eeH, 0dcH, 0d8H, 0e5H, 0d5H, 0f4H, '?', 0a1H, 0a3H
	DB	00H
	ORG $+20
	ORG $+1
?help_desc_32@@3PAUDESC@@A DW 00H			; help_desc_32
	DB	04H
	DB	00H
	DB	00H
	DB	' ', 0a1H, 0a1H, 0a1H, 0a1H, '                ', 0c4H, 0f9H
	DB	0bdH, 0baH, 0c6H, 0aeH, ' ', 0c0H, 0ccH, 0b8H, 0a7H, '        '
	DB	'               ', 0c7H, 0f6H, 0c8H, 0b2H, 00H
	ORG $+1
	DW	00H
	DB	00H
	DB	00H
	DB	00H
	DB	'jobdaily', 00H
	ORG $+51
	ORG $+1
	DW	00H
	DB	00H
	DB	00H
	DB	00H
	DB	'jobdaily', 00H
	ORG $+51
	ORG $+1
	DW	00H
	DB	00H
	DB	00H
	DB	00H
	DB	'jobdaily', 00H
	ORG $+51
	ORG $+1
	DW	00H
	DB	00H
	DB	00H
	DB	00H
	DB	'jobdaily', 00H
	ORG $+51
	ORG $+1
	DW	00H
	DB	00H
	DB	00H
	DB	00H
	DB	'jobdaily', 00H
	ORG $+51
	ORG $+1
	DW	00H
	DB	00H
	DB	00H
	DB	00H
	DB	'jobdaily', 00H
	ORG $+51
	ORG $+1
	DW	00H
	DB	00H
	DB	00H
	DB	00H
	DB	'jobdaily', 00H
	ORG $+51
	ORG $+1
	DW	00H
	DB	00H
	DB	00H
	DB	00H
	DB	'jobdaily', 00H
	ORG $+51
	ORG $+1
	DW	00H
	DB	00H
	DB	00H
	DB	00H
	DB	'jobdaily', 00H
	ORG $+51
	ORG $+1
	DW	00H
	DB	00H
	DB	00H
	DB	00H
	DB	'jobdaily', 00H
	ORG $+51
	ORG $+1
	ORG $+2
?help_index@@3PAPAUDESC@@A DD FLAT:?help_desc_1@@3PAUDESC@@A ; help_index
	DD	FLAT:?help_desc_2@@3PAUDESC@@A
	DD	FLAT:?help_desc_3@@3PAUDESC@@A
	DD	FLAT:?help_desc_4@@3PAUDESC@@A
	DD	FLAT:?help_desc_5@@3PAUDESC@@A
	DD	FLAT:?help_desc_6@@3PAUDESC@@A
	DD	FLAT:?help_desc_7@@3PAUDESC@@A
	DD	FLAT:?help_desc_8@@3PAUDESC@@A
	DD	FLAT:?help_desc_9@@3PAUDESC@@A
	DD	FLAT:?help_desc_10@@3PAUDESC@@A
	DD	FLAT:?help_desc_11@@3PAUDESC@@A
	DD	FLAT:?help_desc_12@@3PAUDESC@@A
	DD	FLAT:?help_desc_13@@3PAUDESC@@A
	DD	FLAT:?help_desc_14@@3PAUDESC@@A
	DD	FLAT:?help_desc_15@@3PAUDESC@@A
	DD	FLAT:?help_desc_16@@3PAUDESC@@A
	DD	FLAT:?help_desc_17@@3PAUDESC@@A
	DD	FLAT:?help_desc_18@@3PAUDESC@@A
	DD	FLAT:?help_desc_19@@3PAUDESC@@A
	DD	FLAT:?help_desc_20@@3PAUDESC@@A
	DD	FLAT:?help_desc_21@@3PAUDESC@@A
	DD	FLAT:?help_desc_22@@3PAUDESC@@A
	DD	FLAT:?help_desc_23@@3PAUDESC@@A
	DD	FLAT:?help_desc_24@@3PAUDESC@@A
	DD	FLAT:?help_desc_25@@3PAUDESC@@A
	DD	FLAT:?help_desc_26@@3PAUDESC@@A
	DD	FLAT:?help_desc_27@@3PAUDESC@@A
	DD	FLAT:?help_desc_28@@3PAUDESC@@A
	DD	FLAT:?help_desc_29@@3PAUDESC@@A
	DD	FLAT:?help_desc_30@@3PAUDESC@@A
	DD	FLAT:?help_desc_31@@3PAUDESC@@A
	DD	FLAT:?help_desc_32@@3PAUDESC@@A
?help_page@@3PAUPAGE@@A DW 00H				; help_page
	DB	0bH
	DB	00H
	DW	00H
	DB	0bH
	DB	00H
	DW	0bH
	DB	07H
	DB	00H
	DW	00H
	DB	03H
	DB	00H
	DW	00H
	DB	0bH
	DB	00H
	DW	0bH
	DB	0bH
	DB	00H
	DW	016H
	DB	04H
	DB	00H
	DW	00H
	DB	02H
	DB	00H
	DW	00H
	DB	05H
	DB	00H
	DW	00H
	DB	05H
	DB	00H
	DW	00H
	DB	05H
	DB	00H
	DW	00H
	DB	0bH
	DB	00H
	DW	0bH
	DB	0bH
	DB	00H
	DW	016H
	DB	0bH
	DB	00H
	DW	021H
	DB	0bH
	DB	00H
	DW	02cH
	DB	0bH
	DB	00H
	DW	00H
	DB	07H
	DB	00H
	DW	00H
	DB	0bH
	DB	00H
	DW	0bH
	DB	0bH
	DB	00H
	DW	016H
	DB	04H
	DB	00H
	DW	00H
	DB	0bH
	DB	00H
	DW	0bH
	DB	0bH
	DB	00H
	DW	016H
	DB	0bH
	DB	00H
	DW	021H
	DB	02H
	DB	00H
	DW	00H
	DB	0bH
	DB	00H
	DW	0bH
	DB	0bH
	DB	00H
	DW	016H
	DB	06H
	DB	00H
	DW	00H
	DB	06H
	DB	00H
	DW	00H
	DB	0bH
	DB	00H
	DW	0bH
	DB	03H
	DB	00H
	DW	00H
	DB	0bH
	DB	00H
	DW	0bH
	DB	0bH
	DB	00H
	DW	00H
	DB	0bH
	DB	00H
	DW	00H
	DB	0bH
	DB	00H
	DW	0bH
	DB	02H
	DB	00H
	DW	00H
	DB	0bH
	DB	00H
	DW	00H
	DB	08H
	DB	00H
	DW	00H
	DB	0bH
	DB	00H
	DW	0bH
	DB	02H
	DB	00H
	DW	00H
	DB	0bH
	DB	00H
	DW	0bH
	DB	01H
	DB	00H
	DW	00H
	DB	0bH
	DB	00H
	DW	0bH
	DB	03H
	DB	00H
	DW	00H
	DB	0bH
	DB	00H
	DW	0bH
	DB	0bH
	DB	00H
	DW	016H
	DB	09H
	DB	00H
	DW	00H
	DB	08H
	DB	00H
	DW	00H
	DB	0bH
	DB	00H
	DW	0bH
	DB	03H
	DB	00H
	DW	00H
	DB	0bH
	DB	00H
	DW	00H
	DB	0bH
	DB	00H
	DW	0bH
	DB	03H
	DB	00H
	DW	00H
	DB	08H
	DB	00H
	DW	00H
	DB	0bH
	DB	00H
	DW	0bH
	DB	04H
	DB	00H
	DW	00H
	DB	0bH
	DB	00H
	DW	0bH
	DB	01H
	DB	00H
	DW	00H
	DB	0bH
	DB	00H
	DW	00H
	DB	0bH
	DB	00H
	DW	00H
	DB	0bH
	DB	00H
	DW	00H
	DB	0bH
	DB	00H
	DW	00H
	DB	0bH
	DB	00H
	DW	00H
	DB	0bH
	DB	00H
	DW	00H
	DB	0bH
	DB	00H
	DW	00H
	DB	0bH
	DB	00H
	DW	00H
	DB	0bH
	DB	00H
	DW	00H
	DB	0bH
	DB	00H
	DW	00H
	DB	0bH
	DB	00H
	DW	00H
	DB	0bH
	DB	00H
	DW	00H
	DB	0bH
	DB	00H
	DW	00H
	DB	0bH
	DB	00H
	DW	00H
	DB	0bH
	DB	00H
	DW	00H
	DB	0bH
	DB	00H
	DW	00H
	DB	0bH
	DB	00H
	DW	00H
	DB	0bH
	DB	00H
	DW	00H
	DB	0bH
	DB	00H
	DW	00H
	DB	0bH
	DB	00H
	ORG $+4
?help_seg@@3PAUSEG@@A DW 00H				; help_seg
	DB	01H
	DB	0c4H, 0f9H, 0bdH, 0baH, 0c6H, 0aeH, ' ', 0c1H, 0a4H, 0baH
	DB	0b8H, 00H
	ORG $+17
	DW	01H
	DB	02H
	DB	0c4H, 0b3H, 0b8H, 0afH, 0c5H, 0cdH, ' ', 0beH, 0d7H, 0bcH
	DB	0c7H, ' ', 0beH, 0c8H, 0b3H, 0bbH, 00H
	ORG $+12
	DW	03H
	DB	01H
	DB	0c0H, 0ceH, 0c5H, 0cdH, 0c6H, 0e4H, 0c0H, 0ccH, 0bdH, 0baH
	DB	' ', 0beH, 0c8H, 0b3H, 0bbH, 00H
	ORG $+13
	DW	04H
	DB	03H
	DB	0c0H, 0fcH, 0c5H, 0f5H, ' ', 0c4H, 0bfH, 0b8H, 0c7H, 0b5H
	DB	0e5H, ' ', 0beH, 0c8H, 0b3H, 0bbH, 00H
	ORG $+12
	DW	07H
	DB	01H
	DB	'?', 0e9H, 0cdH, 0d4H, 0b3H, 0ceH, 0fdH, '?', 0daH, 0aaH, 00H
	ORG $+18
	DW	08H
	DB	01H
	DB	'?', 0e9H, 0cdH, '?', 0d4H, 0e0H, 00H
	ORG $+22
	DW	09H
	DB	01H
	DB	'?', 0e9H, 0cdH, 0caH, 0abH, 0f0H, 0e9H, 00H
	ORG $+21
	DW	0aH
	DB	01H
	DB	'?', 0e9H, 0cdH, 0efH, 0f1H, '?', 00H
	ORG $+22
	DW	0bH
	DB	05H
	DB	0d0H, 0ecH, 0f6H, 0e2H, 00H
	ORG $+24
	DW	010H
	DB	01H
	DB	'?', 0e9H, 0cdH, 0eaH, 0fdH, '?', 0d0H, 0f1H, 0dcH, 0e2H, 0f0H
	DB	0c3H, 0edH, 0c2H, 00H
	ORG $+14
	DW	011H
	DB	03H
	DB	'?', 0e9H, 0cdH, 0cdH, 0edH, 0d2H, 0f6H, '???', 0a3H, 0a8H
	DB	0f9H, 0bbH, 0dbH, 0b0H, '??', 0d6H, 0aaH, 0a3H, 0a9H, 00H
	ORG $+6
	DW	014H
	DB	04H
	DB	'?', 0e9H, 0cdH, 0eaH, 0fdH, '??', 0efH, 0d2H, 00H
	ORG $+19
	DW	018H
	DB	03H
	DB	0daH, 0aaH, 0f9H, 0a1H, 00H
	ORG $+24
	DW	01bH
	DB	01H
	DB	'?', 0daH, 0aaH, 00H
	ORG $+25
	DW	01cH
	DB	02H
	DB	0ceH, 0c3H, 0d9H, 0a5H, 0efH, 0f1H, '?', 00H
	ORG $+21
	DW	01eH
	DB	02H
	DB	0fdH, 0d9H, 0e4H, 0deH, 0efH, 0f1H, '?', 00H
	ORG $+21
	DW	020H
	DB	01H
	DB	'?', 0e0H, 0f5H, 0efH, 0f1H, '?', 00H
	ORG $+22
	DW	021H
	DB	02H
	DB	0f7H, 0e5H, 0e2H, 0a8H, 0efH, 0f1H, '?', 00H
	ORG $+21
	DW	023H
	DB	01H
	DB	0e0H, 0f7H, 0d8H, 0a1H, '?', 0faH, 0b0H, 0dfH, 0a4H, 00H
	ORG $+19
	DW	024H
	DB	01H
	DB	0caH, 0a5H, 0ecH, 0fdH, 0d0H, 0e0H, 0f7H, 0dcH, 0f5H, 0f3H
	DB	0caH, 0abH, 0f0H, 0e9H, 00H
	ORG $+14
	DW	025H
	DB	02H
	DB	0caH, 0abH, 0f0H, 0e9H, 0d7H, 0baH, 0e5H, 0ebH, 0f7H, 0faH
	DB	00H
	ORG $+18
	DW	027H
	DB	02H
	DB	0f0H, 0e9H, '?', 0cdH, 0edH, 0d2H, 0f6H, 00H
	ORG $+21
	DW	029H
	DB	02H
	DB	0edH, 0e4H, '?', 0f7H, 0e5H, 0e2H, 0a8H, 0cdH, 0edH, 0d2H
	DB	0f6H, 00H
	ORG $+17
	DW	02bH
	DB	03H
	DB	0ecH, 0e9H, 0daH, 0f5H, '?', 0d4H, 0e0H, 00H
	ORG $+21
	DW	02eH
	DB	01H
	DB	0ecH, 0e9H, 0daH, 0f5H, 'PK', 00H
	ORG $+22
	DW	02fH
	DB	02H
	DB	0caH, 0abH, 0f0H, 0e9H, 'PK', 00H
	ORG $+22
	DW	031H
	DB	01H
	DB	0edH, 0e4H, '????', 00H
	ORG $+22
	DW	032H
	DB	02H
	DB	'?', 0e9H, 0cdH, 0edH, 0bbH, '??', 0d4H, 0e0H, '?', 0efH, 0d2H
	DB	00H
	ORG $+16
	DW	034H
	DB	01H
	DB	0d8H, 0aaH, 0dbH, 0f6H, 0efH, 0f1H, '?', 00H
	ORG $+21
	DW	035H
	DB	02H
	DB	0efH, 0f1H, '?', 0eeH, 0dcH, 0e1H, 0afH, '?', 00H
	ORG $+20
	DW	037H
	DB	02H
	DB	'??', 0cdH, 0a7H, '?', 00H
	ORG $+23
	DW	039H
	DB	014H
	DB	0c4H, 0f9H, 0bdH, 0baH, 0c6H, 0aeH, ' ', 0b8H, 0f1H, 0b7H
	DB	0cfH, 00H
	ORG $+17
?HelpMsg@@3PAY0CA@DA DB 0c0H, 0ccH, 0c0H, 0fcH, ' ', 0b4H, 0dcH, 0b0H, 0e8H
	DB	0b7H, 0ceH, ' ', 0c0H, 0ccH, 0b5H, 0bfH, 0c7H, 0d5H, 0b4H, 0cfH
	DB	0b4H, 0d9H, '.', 00H				; HelpMsg
	ORG $+8
	DB	0c0H, 0ccH, 0c0H, 0fcH, ' ', 0c6H, 0e4H, 0c0H, 0ccH, 0c1H
	DB	0f6H, 0b7H, 0ceH, ' ', 0c0H, 0ccH, 0b5H, 0bfH, 0c7H, 0d5H, 0b4H
	DB	0cfH, 0b4H, 0d9H, '.', 00H
	ORG $+6
	DB	0b4H, 0d9H, 0c0H, 0bdH, ' ', 0c6H, 0e4H, 0c0H, 0ccH, 0c1H
	DB	0f6H, 0b7H, 0ceH, ' ', 0c0H, 0ccH, 0b5H, 0bfH, 0c7H, 0d5H, 0b4H
	DB	0cfH, 0b4H, 0d9H, '.', 00H
	ORG $+6
	DB	0c4H, 0f9H, 0bdH, 0baH, 0c6H, 0aeH, ' ', 0c1H, 0a4H, 0baH
	DB	0b8H, ' ', 0bfH, 0adH, 0b6H, 0f7H, 0c0H, 0bbH, ' ', 0c3H, 0ebH
	DB	0bcH, 0d2H, 0c7H, 0d5H, 0b4H, 0cfH, 0b4H, 0d9H, '.', 00H
	ORG $+1
_DATA	ENDS
PUBLIC	___local_stdio_printf_options
PUBLIC	_sprintf
PUBLIC	?HelpProc@@YAHXZ				; HelpProc
PUBLIC	?_OptionsStorage@?1??__local_stdio_printf_options@@9@4_KA ; `__local_stdio_printf_options'::`2'::_OptionsStorage
PUBLIC	??_C@_06JHHLEACK@dyedye@			; `string'
PUBLIC	??_C@_08LHAFEHD@jobdaily@			; `string'
PUBLIC	??_C@_0BA@HOICKKFF@Page?$KD?$LK?$CF02d?1?$CF02d@ ; `string'
PUBLIC	??_C@_02DPKJAMEF@?$CFd@				; `string'
PUBLIC	__xmm@fffffffefffffffefffffffefffffffe
EXTRN	?TimeGetTime@@YAIXZ:PROC			; TimeGetTime
EXTRN	_atoi:PROC
EXTRN	___stdio_common_vsprintf:PROC
EXTRN	?DeathAction@@YAXPAUaction@@@Z:PROC		; DeathAction
EXTRN	?StockDispBuffer@@YAHHHEHH@Z:PROC		; StockDispBuffer
EXTRN	?StockFontBuffer@@YAHHHDHPADH@Z:PROC		; StockFontBuffer
EXTRN	?selGraId@@YAHPAHH@Z:PROC			; selGraId
EXTRN	?selFontId@@YAHPAHH@Z:PROC			; selFontId
EXTRN	?focusGraId@@YAHPAHH@Z:PROC			; focusGraId
EXTRN	?CheckMenuFlag@@YAHXZ:PROC			; CheckMenuFlag
EXTRN	?MakeWindowDisp@@YAPAUaction@@HHHHHH@Z:PROC	; MakeWindowDisp
EXTRN	?GetImeString@@YAPADXZ:PROC			; GetImeString
EXTRN	?ShowBottomLineString@@YAXHPAD@Z:PROC		; ShowBottomLineString
EXTRN	?play_se@@YAHHHH@Z:PROC				; play_se
EXTRN	?lssproto_JOBDAILY_send@@YAXHPAD@Z:PROC		; lssproto_JOBDAILY_send
EXTRN	@__security_check_cookie@4:PROC
EXTRN	?DISPLACEMENT_X@@3HA:DWORD			; DISPLACEMENT_X
EXTRN	?DISPLACEMENT_Y@@3HA:DWORD			; DISPLACEMENT_Y
EXTRN	?joy_trg@@3PAKA:QWORD				; joy_trg
EXTRN	?CG_FIELD_HELP_WND@@3HA:DWORD			; CG_FIELD_HELP_WND
EXTRN	?sockfd@@3IA:DWORD				; sockfd
EXTRN	?jobdaily@@3PAUJOBDAILY@@A:BYTE			; jobdaily
EXTRN	___security_cookie:DWORD
;	COMDAT ?_OptionsStorage@?1??__local_stdio_printf_options@@9@4_KA
_BSS	SEGMENT
?_OptionsStorage@?1??__local_stdio_printf_options@@9@4_KA DQ 01H DUP (?) ; `__local_stdio_printf_options'::`2'::_OptionsStorage
_BSS	ENDS
;	COMDAT ?btnId@?1??HelpProc@@YAHXZ@4PAHA
_BSS	SEGMENT
?btnId@?1??HelpProc@@YAHXZ@4PAHA DD 010H DUP (?)	; `HelpProc'::`2'::btnId
_BSS	ENDS
;	COMDAT ?seg_history@?1??HelpProc@@YAHXZ@4PAEA
_BSS	SEGMENT
?seg_history@?1??HelpProc@@YAHXZ@4PAEA DB 010H DUP (?)	; `HelpProc'::`2'::seg_history
_BSS	ENDS
;	COMDAT ?ptActMenuWin@?1??HelpProc@@YAHXZ@4PAUaction@@A
_BSS	SEGMENT
?ptActMenuWin@?1??HelpProc@@YAHXZ@4PAUaction@@A DD 01H DUP (?) ; `HelpProc'::`2'::ptActMenuWin
_BSS	ENDS
;	COMDAT ?seg_index@?1??HelpProc@@YAHXZ@4HA
_BSS	SEGMENT
?seg_index@?1??HelpProc@@YAHXZ@4HA DD 01H DUP (?)	; `HelpProc'::`2'::seg_index
_BSS	ENDS
;	COMDAT ?page_index@?1??HelpProc@@YAHXZ@4HA
_BSS	SEGMENT
?page_index@?1??HelpProc@@YAHXZ@4HA DD 01H DUP (?)	; `HelpProc'::`2'::page_index
_BSS	ENDS
;	COMDAT ?desc_index@?1??HelpProc@@YAHXZ@4HA
_BSS	SEGMENT
?desc_index@?1??HelpProc@@YAHXZ@4HA DD 01H DUP (?)	; `HelpProc'::`2'::desc_index
_BSS	ENDS
;	COMDAT ?history_index@?1??HelpProc@@YAHXZ@4HA
_BSS	SEGMENT
?history_index@?1??HelpProc@@YAHXZ@4HA DD 01H DUP (?)	; `HelpProc'::`2'::history_index
_BSS	ENDS
;	COMDAT ?btnState@?1??HelpProc@@YAHXZ@4PAHA
_BSS	SEGMENT
?btnState@?1??HelpProc@@YAHXZ@4PAHA DD 04H DUP (?)	; `HelpProc'::`2'::btnState
_BSS	ENDS
;	COMDAT ?dwPressTime@?1??HelpProc@@YAHXZ@4KA
_BSS	SEGMENT
?dwPressTime@?1??HelpProc@@YAHXZ@4KA DD 01H DUP (?)	; `HelpProc'::`2'::dwPressTime
_BSS	ENDS
;	COMDAT __xmm@fffffffefffffffefffffffefffffffe
CONST	SEGMENT
__xmm@fffffffefffffffefffffffefffffffe DB 0feH, 0ffH, 0ffH, 0ffH, 0feH, 0ffH
	DB	0ffH, 0ffH, 0feH, 0ffH, 0ffH, 0ffH, 0feH, 0ffH, 0ffH, 0ffH
CONST	ENDS
;	COMDAT ??_C@_02DPKJAMEF@?$CFd@
CONST	SEGMENT
??_C@_02DPKJAMEF@?$CFd@ DB '%d', 00H			; `string'
CONST	ENDS
;	COMDAT ??_C@_0BA@HOICKKFF@Page?$KD?$LK?$CF02d?1?$CF02d@
CONST	SEGMENT
??_C@_0BA@HOICKKFF@Page?$KD?$LK?$CF02d?1?$CF02d@ DB 'Page', 0a3H, 0baH, '%'
	DB	'02d/%02d', 00H				; `string'
CONST	ENDS
;	COMDAT ??_C@_08LHAFEHD@jobdaily@
CONST	SEGMENT
??_C@_08LHAFEHD@jobdaily@ DB 'jobdaily', 00H		; `string'
CONST	ENDS
;	COMDAT ??_C@_06JHHLEACK@dyedye@
CONST	SEGMENT
??_C@_06JHHLEACK@dyedye@ DB 'dyedye', 00H		; `string'
CONST	ENDS
; Function compile flags: /Ogtp
; File C:\Users\gg862\OneDrive\¹ÙÅÁ È­¸é\¸¾Äí¿Ï·á\Client Source Code1.31ÀÏº»\system\Help.cpp
;	COMDAT ?HelpProc@@YAHXZ
_TEXT	SEGMENT
tv1728 = -80						; size = 4
_focusId$1$ = -80					; size = 4
_page$1$ = -76						; size = 4
tv1746 = -72						; size = 4
_i$2$ = -72						; size = 4
_xx$2$ = -68						; size = 4
_desc$1$ = -68						; size = 4
_tmbuf$1 = -64						; size = 48
_buf$2 = -16						; size = 10
_look$3 = -16						; size = 10
__$ArrayPad$ = -4					; size = 4
?HelpProc@@YAHXZ PROC					; HelpProc, COMDAT

; 778  : int HelpProc(){

  00000	55		 push	 ebp
  00001	8b ec		 mov	 ebp, esp
  00003	83 ec 50	 sub	 esp, 80			; 00000050H
  00006	a1 00 00 00 00	 mov	 eax, DWORD PTR ___security_cookie
  0000b	33 c5		 xor	 eax, ebp
  0000d	89 45 fc	 mov	 DWORD PTR __$ArrayPad$[ebp], eax

; 779  : 	static int btnId[16];
; 780  : 	static BYTE seg_history[16];
; 781  : 	static ACTION *ptActMenuWin = NULL;
; 782  : 	static int seg_index=0, page_index=0, desc_index=0, history_index=0;
; 783  : 	int x = 110, y = 50;
; 784  : 	static int btnState[4];
; 785  : 	static DWORD dwPressTime;
; 786  : 	int id = 0;
; 787  : 	int focusId = 0;
; 788  : 	int i, j;
; 789  : 	LPSEG seg;
; 790  : 	LPPAGE page;
; 791  : 	LPDESC desc;
; 792  : 	//åå§å
; 793  : 	if( HelpProcNo == 0){

  00010	66 83 3d 00 00
	00 00 00	 cmp	 WORD PTR ?HelpProcNo@@3FA, 0 ; HelpProcNo
  00018	0f 85 d0 00 00
	00		 jne	 $LN23@HelpProc

; 794  : 		for( i = 0; i < sizeof(btnId)/sizeof(int); i++)

  0001e	0f 28 05 00 00
	00 00		 movaps	 xmm0, XMMWORD PTR __xmm@fffffffefffffffefffffffefffffffe

; 795  : 			btnId[i] = -2;
; 796  : 		for( i = 0; i < sizeof(btnState)/sizeof(int); i++)
; 797  : 			btnState[i] = 0;
; 798  : 		btnState[3] = 0;
; 799  : 		for( i = 0; i < 3; i++)
; 800  : 			btnState[i] = -1;
; 801  : 		seg_index = page_index = desc_index = 0;
; 802  : 
; 803  : 		history_index = 0;				//æ¾ç»æµè§è¿çhistory
; 804  : 		ptActMenuWin = MakeWindowDisp( x, y, 420, 380, CG_FIELD_HELP_WND, -1);

  00025	6a ff		 push	 -1
  00027	ff 35 00 00 00
	00		 push	 DWORD PTR ?CG_FIELD_HELP_WND@@3HA ; CG_FIELD_HELP_WND
  0002d	0f 11 05 00 00
	00 00		 movups	 XMMWORD PTR ?btnId@?1??HelpProc@@YAHXZ@4PAHA, xmm0
  00034	68 7c 01 00 00	 push	 380			; 0000017cH
  00039	68 a4 01 00 00	 push	 420			; 000001a4H
  0003e	6a 32		 push	 50			; 00000032H
  00040	6a 6e		 push	 110			; 0000006eH
  00042	0f 11 05 10 00
	00 00		 movups	 XMMWORD PTR ?btnId@?1??HelpProc@@YAHXZ@4PAHA+16, xmm0
  00049	c7 05 0c 00 00
	00 00 00 00 00	 mov	 DWORD PTR ?btnState@?1??HelpProc@@YAHXZ@4PAHA+12, 0
  00053	0f 11 05 20 00
	00 00		 movups	 XMMWORD PTR ?btnId@?1??HelpProc@@YAHXZ@4PAHA+32, xmm0
  0005a	c7 05 00 00 00
	00 ff ff ff ff	 mov	 DWORD PTR ?btnState@?1??HelpProc@@YAHXZ@4PAHA, -1
  00064	0f 11 05 30 00
	00 00		 movups	 XMMWORD PTR ?btnId@?1??HelpProc@@YAHXZ@4PAHA+48, xmm0
  0006b	c7 05 04 00 00
	00 ff ff ff ff	 mov	 DWORD PTR ?btnState@?1??HelpProc@@YAHXZ@4PAHA+4, -1
  00075	c7 05 08 00 00
	00 ff ff ff ff	 mov	 DWORD PTR ?btnState@?1??HelpProc@@YAHXZ@4PAHA+8, -1
  0007f	c7 05 00 00 00
	00 00 00 00 00	 mov	 DWORD PTR ?desc_index@?1??HelpProc@@YAHXZ@4HA, 0
  00089	c7 05 00 00 00
	00 00 00 00 00	 mov	 DWORD PTR ?page_index@?1??HelpProc@@YAHXZ@4HA, 0
  00093	c7 05 00 00 00
	00 00 00 00 00	 mov	 DWORD PTR ?seg_index@?1??HelpProc@@YAHXZ@4HA, 0
  0009d	c7 05 00 00 00
	00 00 00 00 00	 mov	 DWORD PTR ?history_index@?1??HelpProc@@YAHXZ@4HA, 0
  000a7	e8 00 00 00 00	 call	 ?MakeWindowDisp@@YAPAUaction@@HHHHHH@Z ; MakeWindowDisp

; 805  : 		HelpProcNo++;

  000ac	66 ff 05 00 00
	00 00		 inc	 WORD PTR ?HelpProcNo@@3FA ; HelpProcNo
  000b3	a3 00 00 00 00	 mov	 DWORD PTR ?ptActMenuWin@?1??HelpProc@@YAHXZ@4PAUaction@@A, eax

; 806  : 		dwPressTime = 0;
; 807  : #ifdef _JOBDAILY
; 808  : 		char look[10];
; 809  : 		strcpy(look,"dyedye");

  000b8	a1 00 00 00 00	 mov	 eax, DWORD PTR ??_C@_06JHHLEACK@dyedye@
  000bd	89 45 f0	 mov	 DWORD PTR _look$3[ebp], eax
  000c0	66 a1 04 00 00
	00		 mov	 ax, WORD PTR ??_C@_06JHHLEACK@dyedye@+4
  000c6	66 89 45 f4	 mov	 WORD PTR _look$3[ebp+4], ax
  000ca	a0 06 00 00 00	 mov	 al, BYTE PTR ??_C@_06JHHLEACK@dyedye@+6
  000cf	88 45 f6	 mov	 BYTE PTR _look$3[ebp+6], al

; 810  : 		lssproto_JOBDAILY_send(sockfd,look);

  000d2	8d 45 f0	 lea	 eax, DWORD PTR _look$3[ebp]
  000d5	50		 push	 eax
  000d6	ff 35 00 00 00
	00		 push	 DWORD PTR ?sockfd@@3IA	; sockfd
  000dc	c7 05 00 00 00
	00 00 00 00 00	 mov	 DWORD PTR ?dwPressTime@?1??HelpProc@@YAHXZ@4KA, 0
  000e6	e8 00 00 00 00	 call	 ?lssproto_JOBDAILY_send@@YAXHPAD@Z ; lssproto_JOBDAILY_send
  000eb	83 c4 20	 add	 esp, 32			; 00000020H
$LN23@HelpProc:

; 811  : #endif
; 812  : 	}
; 813  : 	//åå§åäº
; 814  : 	if( ptActMenuWin != NULL){

  000ee	83 3d 00 00 00
	00 00		 cmp	 DWORD PTR ?ptActMenuWin@?1??HelpProc@@YAHXZ@4PAUaction@@A, 0
  000f5	53		 push	 ebx
  000f6	56		 push	 esi
  000f7	57		 push	 edi
  000f8	0f 84 88 09 00
	00		 je	 $LN21@HelpProc

; 815  : 		id = -1;
; 816  : 		focusId = -1;
; 817  : 
; 818  : 		seg = &help_seg[seg_index];

  000fe	8b 15 00 00 00
	00		 mov	 edx, DWORD PTR ?seg_index@?1??HelpProc@@YAHXZ@4HA
  00104	83 cf ff	 or	 edi, -1
  00107	0b c7		 or	 eax, edi
  00109	8b da		 mov	 ebx, edx
  0010b	89 45 b0	 mov	 DWORD PTR _focusId$1$[ebp], eax

; 819  : 		page = &help_page[page_index];

  0010e	a1 00 00 00 00	 mov	 eax, DWORD PTR ?page_index@?1??HelpProc@@YAHXZ@4HA
  00113	c1 e3 05	 shl	 ebx, 5
  00116	81 c3 00 00 00
	00		 add	 ebx, OFFSET ?help_seg@@3PAUSEG@@A ; help_seg
  0011c	8d 34 85 00 00
	00 00		 lea	 esi, DWORD PTR ?help_page@@3PAUPAGE@@A[eax*4]

; 820  : 		desc = help_index[seg_index]+page->desc_index;

  00123	0f bf 06	 movsx	 eax, WORD PTR [esi]
  00126	8b c8		 mov	 ecx, eax
  00128	89 75 b4	 mov	 DWORD PTR _page$1$[ebp], esi
  0012b	c1 e1 05	 shl	 ecx, 5
  0012e	03 c8		 add	 ecx, eax
  00130	8b 04 95 00 00
	00 00		 mov	 eax, DWORD PTR ?help_index@@3PAPAUDESC@@A[edx*4]
  00137	8d 04 48	 lea	 eax, DWORD PTR [eax+ecx*2]

; 821  : #ifdef _ANGEL_SUMMON
; 822  : 		if( jumpHelpPage != 0 || jumpHelpSeg != 0 ) {

  0013a	66 8b 0d 00 00
	00 00		 mov	 cx, WORD PTR ?jumpHelpPage@@3FA ; jumpHelpPage
  00141	89 45 bc	 mov	 DWORD PTR _desc$1$[ebp], eax
  00144	66 a1 00 00 00
	00		 mov	 ax, WORD PTR ?jumpHelpSeg@@3FA ; jumpHelpSeg
  0014a	66 85 c9	 test	 cx, cx
  0014d	75 05		 jne	 SHORT $LN26@HelpProc
  0014f	66 85 c0	 test	 ax, ax
  00152	74 78		 je	 SHORT $LN28@HelpProc
$LN26@HelpProc:

; 823  : 			page_index = jumpHelpPage;

  00154	0f bf f1	 movsx	 esi, cx

; 824  : 			seg_index = jumpHelpSeg;

  00157	0f bf d0	 movsx	 edx, ax

; 825  : 			
; 826  : 			jumpHelpPage = 0;

  0015a	33 c0		 xor	 eax, eax
  0015c	66 a3 00 00 00
	00		 mov	 WORD PTR ?jumpHelpPage@@3FA, ax ; jumpHelpPage

; 827  : 			jumpHelpSeg = 0;
; 828  : 			
; 829  : 			seg = &help_seg[seg_index];

  00162	8b da		 mov	 ebx, edx
  00164	66 a3 00 00 00
	00		 mov	 WORD PTR ?jumpHelpSeg@@3FA, ax ; jumpHelpSeg

; 830  : 			page = &help_page[page_index];

  0016a	8d 04 b5 00 00
	00 00		 lea	 eax, DWORD PTR ?help_page@@3PAUPAGE@@A[esi*4]
  00171	c1 e3 05	 shl	 ebx, 5
  00174	89 45 b4	 mov	 DWORD PTR _page$1$[ebp], eax
  00177	81 c3 00 00 00
	00		 add	 ebx, OFFSET ?help_seg@@3PAUSEG@@A ; help_seg

; 831  : 			desc = help_index[seg_index]+page->desc_index;

  0017d	0f bf 00	 movsx	 eax, WORD PTR [eax]
  00180	8b c8		 mov	 ecx, eax
  00182	89 15 00 00 00
	00		 mov	 DWORD PTR ?seg_index@?1??HelpProc@@YAHXZ@4HA, edx
  00188	c1 e1 05	 shl	 ecx, 5
  0018b	03 c8		 add	 ecx, eax
  0018d	89 35 00 00 00
	00		 mov	 DWORD PTR ?page_index@?1??HelpProc@@YAHXZ@4HA, esi
  00193	8b 04 95 00 00
	00 00		 mov	 eax, DWORD PTR ?help_index@@3PAPAUDESC@@A[edx*4]

; 832  : 			
; 833  : 			btnState[1] = -1;
; 834  : 			if( seg->page_index < page_index)				//æ¯å¦å¯å"??"

  0019a	0f bf 13	 movsx	 edx, WORD PTR [ebx]
  0019d	8d 04 48	 lea	 eax, DWORD PTR [eax+ecx*2]
  001a0	33 c9		 xor	 ecx, ecx
  001a2	89 45 bc	 mov	 DWORD PTR _desc$1$[ebp], eax
  001a5	83 c8 ff	 or	 eax, -1
  001a8	3b d6		 cmp	 edx, esi
  001aa	0f 4c c1	 cmovl	 eax, ecx

; 835  : 				btnState[1] = 0;
; 836  : 			btnState[2] = -1;
; 837  : 			if( (seg->page_index+seg->page_num-1) > page_index)//æ¯å¦å¯æ"??"

  001ad	4a		 dec	 edx
  001ae	a3 04 00 00 00	 mov	 DWORD PTR ?btnState@?1??HelpProc@@YAHXZ@4PAHA+4, eax
  001b3	83 c9 ff	 or	 ecx, -1
  001b6	0f b6 43 02	 movzx	 eax, BYTE PTR [ebx+2]
  001ba	03 c2		 add	 eax, edx
  001bc	33 d2		 xor	 edx, edx
  001be	3b c6		 cmp	 eax, esi
  001c0	8b 75 b4	 mov	 esi, DWORD PTR _page$1$[ebp]
  001c3	0f 4f ca	 cmovg	 ecx, edx
  001c6	89 0d 08 00 00
	00		 mov	 DWORD PTR ?btnState@?1??HelpProc@@YAHXZ@4PAHA+8, ecx
$LN28@HelpProc:

; 838  : 				btnState[2] = 0;
; 839  : 		}
; 840  : #endif
; 841  : 
; 842  : 		//è§çªå·²æå¼
; 843  : 		if( ptActMenuWin->hp >= 1){

  001cc	a1 00 00 00 00	 mov	 eax, DWORD PTR ?ptActMenuWin@?1??HelpProc@@YAHXZ@4PAUaction@@A
  001d1	83 78 78 01	 cmp	 DWORD PTR [eax+120], 1
  001d5	7c 40		 jl	 SHORT $LN29@HelpProc

; 844  : 			//æ»é¼ ä½ç½®åæé®çå¤æ­
; 845  : 			id = selGraId( btnId, sizeof(btnId)/sizeof(int));

  001d7	6a 10		 push	 16			; 00000010H
  001d9	68 00 00 00 00	 push	 OFFSET ?btnId@?1??HelpProc@@YAHXZ@4PAHA
  001de	e8 00 00 00 00	 call	 ?selGraId@@YAHPAHH@Z	; selGraId
  001e3	8b f8		 mov	 edi, eax
  001e5	83 c4 08	 add	 esp, 8

; 846  : 			if( id == -1)

  001e8	83 ff ff	 cmp	 edi, -1
  001eb	75 18		 jne	 SHORT $LN31@HelpProc

; 847  : 				if( (id=selFontId( &btnId[4], sizeof(btnId)/sizeof(int)-4)) >= 0){

  001ed	6a 0c		 push	 12			; 0000000cH
  001ef	68 10 00 00 00	 push	 OFFSET ?btnId@?1??HelpProc@@YAHXZ@4PAHA+16
  001f4	e8 00 00 00 00	 call	 ?selFontId@@YAHPAHH@Z	; selFontId
  001f9	8b f8		 mov	 edi, eax
  001fb	83 c4 08	 add	 esp, 8
  001fe	85 ff		 test	 edi, edi
  00200	78 03		 js	 SHORT $LN31@HelpProc

; 848  : 					id += 4;

  00202	83 c7 04	 add	 edi, 4
$LN31@HelpProc:

; 849  : 				}
; 850  : 			focusId = focusGraId( btnId, sizeof(btnId)/sizeof(int));

  00205	6a 10		 push	 16			; 00000010H
  00207	68 00 00 00 00	 push	 OFFSET ?btnId@?1??HelpProc@@YAHXZ@4PAHA
  0020c	e8 00 00 00 00	 call	 ?focusGraId@@YAHPAHH@Z	; focusGraId
  00211	83 c4 08	 add	 esp, 8
  00214	89 45 b0	 mov	 DWORD PTR _focusId$1$[ebp], eax
$LN29@HelpProc:

; 851  : 		}
; 852  : 		//æ£æ¥å¶å®çè§çªæå¼æ¶ï¼å³é­
; 853  : 		if( CheckMenuFlag()){

  00217	e8 00 00 00 00	 call	 ?CheckMenuFlag@@YAHXZ	; CheckMenuFlag
  0021c	85 c0		 test	 eax, eax
  0021e	74 07		 je	 SHORT $LN32@HelpProc

; 854  : 			id = 100;

  00220	bf 64 00 00 00	 mov	 edi, 100		; 00000064H

; 855  : 		}else

  00225	eb 45		 jmp	 SHORT $LN36@HelpProc
$LN32@HelpProc:

; 856  : 		//æESCå³é­
; 857  : 		if( (joy_trg[ 0 ] & JOY_ESC) && GetImeString() == NULL){

  00227	f7 05 00 00 00
	00 00 00 00 80	 test	 DWORD PTR ?joy_trg@@3PAKA, -2147483648 ; 80000000H
  00231	74 25		 je	 SHORT $LN34@HelpProc
  00233	e8 00 00 00 00	 call	 ?GetImeString@@YAPADXZ	; GetImeString
  00238	85 c0		 test	 eax, eax
  0023a	75 1c		 jne	 SHORT $LN34@HelpProc

; 858  : 			id = 100;
; 859  : 			play_se( 203, 320, 240);	//è§çªå³é­å£°

  0023c	68 f0 00 00 00	 push	 240			; 000000f0H
  00241	68 40 01 00 00	 push	 320			; 00000140H
  00246	68 cb 00 00 00	 push	 203			; 000000cbH
  0024b	8d 78 64	 lea	 edi, DWORD PTR [eax+100]
  0024e	e8 00 00 00 00	 call	 ?play_se@@YAHHHH@Z	; play_se
  00253	83 c4 0c	 add	 esp, 12			; 0000000cH

; 860  : 		}else

  00256	eb 14		 jmp	 SHORT $LN36@HelpProc
$LN34@HelpProc:

; 861  : 		//æHELPå³é­
; 862  : 		if( HelpProcNo == 1000){

  00258	b9 e8 03 00 00	 mov	 ecx, 1000		; 000003e8H
  0025d	b8 64 00 00 00	 mov	 eax, 100		; 00000064H
  00262	66 39 0d 00 00
	00 00		 cmp	 WORD PTR ?HelpProcNo@@3FA, cx ; HelpProcNo
  00269	0f 44 f8	 cmove	 edi, eax
$LN36@HelpProc:

; 863  : 			id = 100;
; 864  : 		}
; 865  : 
; 866  : 		//æé®æ¼ä¸åçå¼¹èµ·ç¶æï¼å¤çææé®çevent
; 867  : 		if( dwPressTime){

  0026c	83 3d 00 00 00
	00 00		 cmp	 DWORD PTR ?dwPressTime@?1??HelpProc@@YAHXZ@4KA, 0
  00273	0f 84 ce 01 00
	00		 je	 $LN37@HelpProc

; 868  : 			if( TimeGetTime()>(dwPressTime+100)){

  00279	e8 00 00 00 00	 call	 ?TimeGetTime@@YAIXZ	; TimeGetTime
  0027e	8b 0d 00 00 00
	00		 mov	 ecx, DWORD PTR ?dwPressTime@?1??HelpProc@@YAHXZ@4KA
  00284	83 c1 64	 add	 ecx, 100		; 00000064H
  00287	3b c1		 cmp	 eax, ecx
  00289	0f 86 fb 05 00
	00		 jbe	 $LN53@HelpProc

; 869  : 				dwPressTime = 0;
; 870  : 				//æ"ä¸ä¸å±"
; 871  : 				if( btnState[0] == 1){

  0028f	83 3d 00 00 00
	00 01		 cmp	 DWORD PTR ?btnState@?1??HelpProc@@YAHXZ@4PAHA, 1
  00296	c7 05 00 00 00
	00 00 00 00 00	 mov	 DWORD PTR ?dwPressTime@?1??HelpProc@@YAHXZ@4KA, 0
  002a0	0f 85 a1 00 00
	00		 jne	 $LN43@HelpProc

; 872  : 					if( history_index > 0){								//æ"ä¸ä¸å±"æ¯å¦åæ³

  002a6	a1 00 00 00 00	 mov	 eax, DWORD PTR ?history_index@?1??HelpProc@@YAHXZ@4HA
  002ab	85 c0		 test	 eax, eax
  002ad	7e 4c		 jle	 SHORT $LN123@HelpProc

; 873  : 						history_index--;
; 874  : 						seg_index = seg_history[history_index];			//ååºä¸ä¸å±çseg index

  002af	0f b6 90 ff ff
	ff ff		 movzx	 edx, BYTE PTR ?seg_history@?1??HelpProc@@YAHXZ@4PAEA[eax-1]
  002b6	48		 dec	 eax

; 875  : 						seg = &help_seg[seg_index];						//æåæ°çseg

  002b7	8b da		 mov	 ebx, edx
  002b9	a3 00 00 00 00	 mov	 DWORD PTR ?history_index@?1??HelpProc@@YAHXZ@4HA, eax
  002be	c1 e3 05	 shl	 ebx, 5
  002c1	81 c3 00 00 00
	00		 add	 ebx, OFFSET ?help_seg@@3PAUSEG@@A ; help_seg
  002c7	89 15 00 00 00
	00		 mov	 DWORD PTR ?seg_index@?1??HelpProc@@YAHXZ@4HA, edx

; 876  : 						page_index = seg->page_index;

  002cd	0f bf 03	 movsx	 eax, WORD PTR [ebx]
  002d0	a3 00 00 00 00	 mov	 DWORD PTR ?page_index@?1??HelpProc@@YAHXZ@4HA, eax

; 877  : 						page = &help_page[page_index];					//æåæ°çsegçpage

  002d5	8d 34 85 00 00
	00 00		 lea	 esi, DWORD PTR ?help_page@@3PAUPAGE@@A[eax*4]

; 878  : 						desc_index = page->desc_index;

  002dc	0f bf 06	 movsx	 eax, WORD PTR [esi]

; 879  : 						desc = help_index[seg_index]+page->desc_index;	//æåæ°pageçdesc

  002df	8b c8		 mov	 ecx, eax
  002e1	a3 00 00 00 00	 mov	 DWORD PTR ?desc_index@?1??HelpProc@@YAHXZ@4HA, eax
  002e6	c1 e1 05	 shl	 ecx, 5
  002e9	03 c8		 add	 ecx, eax
  002eb	89 75 b4	 mov	 DWORD PTR _page$1$[ebp], esi
  002ee	8b 04 95 00 00
	00 00		 mov	 eax, DWORD PTR ?help_index@@3PAPAUDESC@@A[edx*4]
  002f5	8d 04 48	 lea	 eax, DWORD PTR [eax+ecx*2]
  002f8	89 45 bc	 mov	 DWORD PTR _desc$1$[ebp], eax
$LN123@HelpProc:

; 880  : 					}
; 881  : 					btnState[0] = -1;

  002fb	83 c8 ff	 or	 eax, -1

; 882  : 					if( history_index > 0)								//æ¯å¦å¯æ"ä¸ä¸å±"
; 883  : 						btnState[0] = 0;
; 884  : 					btnState[1] = -1;									//ä¸è½æ"??"

  002fe	c7 05 04 00 00
	00 ff ff ff ff	 mov	 DWORD PTR ?btnState@?1??HelpProc@@YAHXZ@4PAHA+4, -1
  00308	33 c9		 xor	 ecx, ecx

; 885  : 					btnState[2] = -1;

  0030a	c7 05 08 00 00
	00 ff ff ff ff	 mov	 DWORD PTR ?btnState@?1??HelpProc@@YAHXZ@4PAHA+8, -1
  00314	39 0d 00 00 00
	00		 cmp	 DWORD PTR ?history_index@?1??HelpProc@@YAHXZ@4HA, ecx
  0031a	0f 4f c1	 cmovg	 eax, ecx

; 886  : 					if( (seg->page_index+seg->page_num-1) > page_index)	//æ¯å¦å¯æ"??"

  0031d	0f b6 4b 02	 movzx	 ecx, BYTE PTR [ebx+2]
  00321	a3 00 00 00 00	 mov	 DWORD PTR ?btnState@?1??HelpProc@@YAHXZ@4PAHA, eax
  00326	0f bf 03	 movsx	 eax, WORD PTR [ebx]
  00329	48		 dec	 eax
  0032a	03 c1		 add	 eax, ecx
  0032c	3b 05 00 00 00
	00		 cmp	 eax, DWORD PTR ?page_index@?1??HelpProc@@YAHXZ@4HA
  00332	0f 8e e6 00 00
	00		 jle	 $LN49@HelpProc

; 887  : 						btnState[2] = 0;

  00338	c7 05 08 00 00
	00 00 00 00 00	 mov	 DWORD PTR ?btnState@?1??HelpProc@@YAHXZ@4PAHA+8, 0

; 888  : 				}
; 889  : 				//æ"??"
; 890  : 				if( btnState[1] == 1){

  00342	e9 d7 00 00 00	 jmp	 $LN49@HelpProc
$LN43@HelpProc:
  00347	83 3d 04 00 00
	00 01		 cmp	 DWORD PTR ?btnState@?1??HelpProc@@YAHXZ@4PAHA+4, 1
  0034e	8b 15 00 00 00
	00		 mov	 edx, DWORD PTR ?page_index@?1??HelpProc@@YAHXZ@4HA
  00354	75 5d		 jne	 SHORT $LN46@HelpProc

; 891  : 					if( seg->page_index < page_index){			//æ"??"æ¯å¦åæ³

  00356	0f bf 03	 movsx	 eax, WORD PTR [ebx]
  00359	3b c2		 cmp	 eax, edx
  0035b	7d 41		 jge	 SHORT $LN124@HelpProc

; 892  : 						page_index--;

  0035d	4a		 dec	 edx

; 893  : 						page = &help_page[page_index];			//æå??
; 894  : 						desc_index = page->desc_index;
; 895  : 						desc = help_index[seg_index]+desc_index;//æåæ°ä¸é¡µçdescå¼å¤´
; 896  : 						btnState[2] = 0;						//å¯æ"??"

  0035e	c7 05 08 00 00
	00 00 00 00 00	 mov	 DWORD PTR ?btnState@?1??HelpProc@@YAHXZ@4PAHA+8, 0
  00368	0f bf 04 95 00
	00 00 00	 movsx	 eax, WORD PTR ?help_page@@3PAUPAGE@@A[edx*4]
  00370	8d 34 95 00 00
	00 00		 lea	 esi, DWORD PTR ?help_page@@3PAUPAGE@@A[edx*4]
  00377	8b c8		 mov	 ecx, eax
  00379	a3 00 00 00 00	 mov	 DWORD PTR ?desc_index@?1??HelpProc@@YAHXZ@4HA, eax
  0037e	c1 e1 05	 shl	 ecx, 5
  00381	03 c8		 add	 ecx, eax
  00383	89 15 00 00 00
	00		 mov	 DWORD PTR ?page_index@?1??HelpProc@@YAHXZ@4HA, edx
  00389	a1 00 00 00 00	 mov	 eax, DWORD PTR ?seg_index@?1??HelpProc@@YAHXZ@4HA
  0038e	89 75 b4	 mov	 DWORD PTR _page$1$[ebp], esi
  00391	8b 04 85 00 00
	00 00		 mov	 eax, DWORD PTR ?help_index@@3PAPAUDESC@@A[eax*4]
  00398	8d 04 48	 lea	 eax, DWORD PTR [eax+ecx*2]
  0039b	89 45 bc	 mov	 DWORD PTR _desc$1$[ebp], eax
$LN124@HelpProc:

; 897  : 					}
; 898  : 					btnState[1] = -1;
; 899  : 					if( seg->page_index < page_index)			//æ¯å¦å¯æ"??"

  0039e	0f bf 0b	 movsx	 ecx, WORD PTR [ebx]
  003a1	83 c8 ff	 or	 eax, -1
  003a4	3b ca		 cmp	 ecx, edx
  003a6	b9 00 00 00 00	 mov	 ecx, 0
  003ab	0f 4c c1	 cmovl	 eax, ecx
  003ae	a3 04 00 00 00	 mov	 DWORD PTR ?btnState@?1??HelpProc@@YAHXZ@4PAHA+4, eax
$LN46@HelpProc:

; 900  : 						btnState[1] = 0;
; 901  : 				}
; 902  : 				//æ"??"
; 903  : 				if( btnState[2] == 1){

  003b3	83 3d 08 00 00
	00 01		 cmp	 DWORD PTR ?btnState@?1??HelpProc@@YAHXZ@4PAHA+8, 1
  003ba	75 62		 jne	 SHORT $LN49@HelpProc

; 904  : 					if( (seg->page_index+seg->page_num-1) > page_index){//æ"??"æ¯å¦åæ³

  003bc	0f bf 03	 movsx	 eax, WORD PTR [ebx]
  003bf	0f b6 4b 02	 movzx	 ecx, BYTE PTR [ebx+2]
  003c3	48		 dec	 eax
  003c4	03 c1		 add	 eax, ecx
  003c6	89 45 b8	 mov	 DWORD PTR tv1746[ebp], eax
  003c9	3b c2		 cmp	 eax, edx
  003cb	7e 41		 jle	 SHORT $LN48@HelpProc

; 905  : 						page_index++;

  003cd	42		 inc	 edx

; 906  : 						page = &help_page[page_index];					//æå??
; 907  : 						desc_index = page->desc_index;
; 908  : 						desc = help_index[seg_index]+desc_index;		//æåæ°ä¸é¡µçdescå¼å¤´
; 909  : 						btnState[1] = 0;								//å¯æ"??"

  003ce	c7 05 04 00 00
	00 00 00 00 00	 mov	 DWORD PTR ?btnState@?1??HelpProc@@YAHXZ@4PAHA+4, 0
  003d8	0f bf 04 95 00
	00 00 00	 movsx	 eax, WORD PTR ?help_page@@3PAUPAGE@@A[edx*4]
  003e0	8d 34 95 00 00
	00 00		 lea	 esi, DWORD PTR ?help_page@@3PAUPAGE@@A[edx*4]
  003e7	8b c8		 mov	 ecx, eax
  003e9	a3 00 00 00 00	 mov	 DWORD PTR ?desc_index@?1??HelpProc@@YAHXZ@4HA, eax
  003ee	c1 e1 05	 shl	 ecx, 5
  003f1	03 c8		 add	 ecx, eax
  003f3	89 15 00 00 00
	00		 mov	 DWORD PTR ?page_index@?1??HelpProc@@YAHXZ@4HA, edx
  003f9	a1 00 00 00 00	 mov	 eax, DWORD PTR ?seg_index@?1??HelpProc@@YAHXZ@4HA
  003fe	89 75 b4	 mov	 DWORD PTR _page$1$[ebp], esi
  00401	8b 04 85 00 00
	00 00		 mov	 eax, DWORD PTR ?help_index@@3PAPAUDESC@@A[eax*4]
  00408	8d 04 48	 lea	 eax, DWORD PTR [eax+ecx*2]
  0040b	89 45 bc	 mov	 DWORD PTR _desc$1$[ebp], eax
$LN48@HelpProc:

; 910  : 					}
; 911  : 					btnState[2] = -1;

  0040e	83 c8 ff	 or	 eax, -1

; 912  : 					if( (seg->page_index+seg->page_num-1) > page_index)	//æ¯å¦å¯æ"??"

  00411	33 c9		 xor	 ecx, ecx
  00413	39 55 b8	 cmp	 DWORD PTR tv1746[ebp], edx
  00416	0f 4f c1	 cmovg	 eax, ecx
  00419	a3 08 00 00 00	 mov	 DWORD PTR ?btnState@?1??HelpProc@@YAHXZ@4PAHA+8, eax
$LN49@HelpProc:

; 913  : 						btnState[2] = 0;
; 914  : 				}
; 915  : 				//æ"ç¦»å¼"
; 916  : 				if( btnState[3] == 1){

  0041e	83 3d 0c 00 00
	00 01		 cmp	 DWORD PTR ?btnState@?1??HelpProc@@YAHXZ@4PAHA+12, 1
  00425	0f 85 5f 04 00
	00		 jne	 $LN53@HelpProc

; 917  : 					play_se( 203, 320, 240);	//è§çªå³é­å£°

  0042b	68 f0 00 00 00	 push	 240			; 000000f0H
  00430	68 40 01 00 00	 push	 320			; 00000140H
  00435	68 cb 00 00 00	 push	 203			; 000000cbH
  0043a	e8 00 00 00 00	 call	 ?play_se@@YAHHHH@Z	; play_se
  0043f	83 c4 0c	 add	 esp, 12			; 0000000cH

; 918  : 					id = 100;
; 919  : 				}
; 920  : 			}
; 921  : 
; 922  : 		}else{

  00442	e9 4b 04 00 00	 jmp	 $LN118@HelpProc
$LN37@HelpProc:

; 923  : 			if( 0 <= id && id <= 3){

  00447	83 ff 03	 cmp	 edi, 3
  0044a	0f 87 b3 02 00
	00		 ja	 $LN51@HelpProc

; 924  : 				//ææé®çå¨ä½
; 925  : 				btnState[id] = 1;

  00450	c7 04 bd 00 00
	00 00 01 00 00
	00		 mov	 DWORD PTR ?btnState@?1??HelpProc@@YAHXZ@4PAHA[edi*4], 1

; 926  : 				id = -1;
; 927  : 				dwPressTime = TimeGetTime();

  0045b	e8 00 00 00 00	 call	 ?TimeGetTime@@YAIXZ	; TimeGetTime
  00460	a3 00 00 00 00	 mov	 DWORD PTR ?dwPressTime@?1??HelpProc@@YAHXZ@4KA, eax
$LN57@HelpProc:

; 969  : 		}
; 970  : 		if( ptActMenuWin->hp >= 1){

  00465	68 f0 00 00 00	 push	 240			; 000000f0H
  0046a	68 40 01 00 00	 push	 320			; 00000140H
  0046f	68 d9 00 00 00	 push	 217			; 000000d9H
  00474	e8 00 00 00 00	 call	 ?play_se@@YAHHHH@Z	; play_se
  00479	83 c4 0c	 add	 esp, 12			; 0000000cH
$LN58@HelpProc:
  0047c	8b 0d 00 00 00
	00		 mov	 ecx, DWORD PTR ?ptActMenuWin@?1??HelpProc@@YAHXZ@4PAUaction@@A
  00482	83 79 78 01	 cmp	 DWORD PTR [ecx+120], 1
  00486	0f 8c fa 05 00
	00		 jl	 $LN21@HelpProc

; 971  : 			if( 0<=focusId && focusId<=3){

  0048c	8b 45 b0	 mov	 eax, DWORD PTR _focusId$1$[ebp]
  0048f	83 f8 03	 cmp	 eax, 3
  00492	77 19		 ja	 SHORT $LN60@HelpProc

; 972  : 				//æç¤ºè¯´æ
; 973  : 				ShowBottomLineString( FONT_PAL_WHITE, HelpMsg[focusId]);

  00494	c1 e0 05	 shl	 eax, 5
  00497	05 00 00 00 00	 add	 eax, OFFSET ?HelpMsg@@3PAY0CA@DA ; HelpMsg
  0049c	50		 push	 eax
  0049d	6a 00		 push	 0
  0049f	e8 00 00 00 00	 call	 ?ShowBottomLineString@@YAXHPAD@Z ; ShowBottomLineString
  004a4	8b 0d 00 00 00
	00		 mov	 ecx, DWORD PTR ?ptActMenuWin@?1??HelpProc@@YAHXZ@4PAUaction@@A
  004aa	83 c4 08	 add	 esp, 8
$LN60@HelpProc:

; 974  : 			}
; 975  : 			//åå§å
; 976  : 			for( i = 0; i < sizeof(btnId)/sizeof(int); i++)

  004ad	0f 28 05 00 00
	00 00		 movaps	 xmm0, XMMWORD PTR __xmm@fffffffefffffffefffffffefffffffe

; 977  : 				btnId[i] = -2;
; 978  : 			//ç§è§çªåºå¾
; 979  : 			StockDispBuffer( ((WINDOW_DISP *)ptActMenuWin->pYobi)->mx, ((WINDOW_DISP *)ptActMenuWin->pYobi)->my, DISP_PRIO_MENU, CG_FIELD_HELP_WND, 1);

  004b4	6a 01		 push	 1
  004b6	ff 35 00 00 00
	00		 push	 DWORD PTR ?CG_FIELD_HELP_WND@@3HA ; CG_FIELD_HELP_WND
  004bc	0f 11 05 00 00
	00 00		 movups	 XMMWORD PTR ?btnId@?1??HelpProc@@YAHXZ@4PAHA, xmm0
  004c3	6a 68		 push	 104			; 00000068H
  004c5	0f 11 05 10 00
	00 00		 movups	 XMMWORD PTR ?btnId@?1??HelpProc@@YAHXZ@4PAHA+16, xmm0
  004cc	0f 11 05 20 00
	00 00		 movups	 XMMWORD PTR ?btnId@?1??HelpProc@@YAHXZ@4PAHA+32, xmm0
  004d3	0f 11 05 30 00
	00 00		 movups	 XMMWORD PTR ?btnId@?1??HelpProc@@YAHXZ@4PAHA+48, xmm0
  004da	8b 41 0c	 mov	 eax, DWORD PTR [ecx+12]
  004dd	ff 70 18	 push	 DWORD PTR [eax+24]
  004e0	ff 70 14	 push	 DWORD PTR [eax+20]
  004e3	e8 00 00 00 00	 call	 ?StockDispBuffer@@YAHHHEHH@Z ; StockDispBuffer

; 980  : 			//ç§æé®çå¨ä½   JL800600
; 981  : 			if( btnState[0] >= 0)

  004e8	a1 00 00 00 00	 mov	 eax, DWORD PTR ?btnState@?1??HelpProc@@YAHXZ@4PAHA
  004ed	83 c4 14	 add	 esp, 20			; 00000014H
  004f0	85 c0		 test	 eax, eax
  004f2	78 37		 js	 SHORT $LN61@HelpProc

; 982  : 				btnId[0] = StockDispBuffer(x + 121 + 32 + DISPLACEMENT_X / 2, y + 350  + DISPLACEMENT_Y / 2, DISP_PRIO_IME3, CG_FIELD_HELP_PRELAYER + btnState[0], 2);

  004f4	05 8a 66 00 00	 add	 eax, 26250		; 0000668aH
  004f9	6a 02		 push	 2
  004fb	50		 push	 eax
  004fc	a1 00 00 00 00	 mov	 eax, DWORD PTR ?DISPLACEMENT_Y@@3HA ; DISPLACEMENT_Y
  00501	99		 cdq
  00502	2b c2		 sub	 eax, edx
  00504	d1 f8		 sar	 eax, 1
  00506	05 90 01 00 00	 add	 eax, 400		; 00000190H
  0050b	6a 69		 push	 105			; 00000069H
  0050d	50		 push	 eax
  0050e	a1 00 00 00 00	 mov	 eax, DWORD PTR ?DISPLACEMENT_X@@3HA ; DISPLACEMENT_X
  00513	99		 cdq
  00514	2b c2		 sub	 eax, edx
  00516	d1 f8		 sar	 eax, 1
  00518	05 07 01 00 00	 add	 eax, 263		; 00000107H
  0051d	50		 push	 eax
  0051e	e8 00 00 00 00	 call	 ?StockDispBuffer@@YAHHHEHH@Z ; StockDispBuffer
  00523	83 c4 14	 add	 esp, 20			; 00000014H
  00526	a3 00 00 00 00	 mov	 DWORD PTR ?btnId@?1??HelpProc@@YAHXZ@4PAHA, eax
$LN61@HelpProc:

; 983  : 			if( btnState[1] >= 0)

  0052b	a1 04 00 00 00	 mov	 eax, DWORD PTR ?btnState@?1??HelpProc@@YAHXZ@4PAHA+4
  00530	85 c0		 test	 eax, eax
  00532	78 37		 js	 SHORT $LN62@HelpProc

; 984  : 				btnId[1] = StockDispBuffer(x + 192 + 32 + DISPLACEMENT_X / 2, y + 350  + DISPLACEMENT_Y / 2, DISP_PRIO_IME3, CG_FIELD_HELP_PREPAGE + btnState[1], 2);

  00534	05 8c 66 00 00	 add	 eax, 26252		; 0000668cH
  00539	6a 02		 push	 2
  0053b	50		 push	 eax
  0053c	a1 00 00 00 00	 mov	 eax, DWORD PTR ?DISPLACEMENT_Y@@3HA ; DISPLACEMENT_Y
  00541	99		 cdq
  00542	2b c2		 sub	 eax, edx
  00544	d1 f8		 sar	 eax, 1
  00546	05 90 01 00 00	 add	 eax, 400		; 00000190H
  0054b	6a 69		 push	 105			; 00000069H
  0054d	50		 push	 eax
  0054e	a1 00 00 00 00	 mov	 eax, DWORD PTR ?DISPLACEMENT_X@@3HA ; DISPLACEMENT_X
  00553	99		 cdq
  00554	2b c2		 sub	 eax, edx
  00556	d1 f8		 sar	 eax, 1
  00558	05 4e 01 00 00	 add	 eax, 334		; 0000014eH
  0055d	50		 push	 eax
  0055e	e8 00 00 00 00	 call	 ?StockDispBuffer@@YAHHHEHH@Z ; StockDispBuffer
  00563	83 c4 14	 add	 esp, 20			; 00000014H
  00566	a3 04 00 00 00	 mov	 DWORD PTR ?btnId@?1??HelpProc@@YAHXZ@4PAHA+4, eax
$LN62@HelpProc:

; 985  : 			if( btnState[2] >= 0)

  0056b	a1 08 00 00 00	 mov	 eax, DWORD PTR ?btnState@?1??HelpProc@@YAHXZ@4PAHA+8
  00570	85 c0		 test	 eax, eax
  00572	78 37		 js	 SHORT $LN63@HelpProc

; 986  : 				btnId[2] = StockDispBuffer(x + 262 + 32 + DISPLACEMENT_X / 2, y + 350  + DISPLACEMENT_Y / 2, DISP_PRIO_IME3, CG_FIELD_HELP_NEXTPAGE + btnState[2], 2);

  00574	05 8e 66 00 00	 add	 eax, 26254		; 0000668eH
  00579	6a 02		 push	 2
  0057b	50		 push	 eax
  0057c	a1 00 00 00 00	 mov	 eax, DWORD PTR ?DISPLACEMENT_Y@@3HA ; DISPLACEMENT_Y
  00581	99		 cdq
  00582	2b c2		 sub	 eax, edx
  00584	d1 f8		 sar	 eax, 1
  00586	05 90 01 00 00	 add	 eax, 400		; 00000190H
  0058b	6a 69		 push	 105			; 00000069H
  0058d	50		 push	 eax
  0058e	a1 00 00 00 00	 mov	 eax, DWORD PTR ?DISPLACEMENT_X@@3HA ; DISPLACEMENT_X
  00593	99		 cdq
  00594	2b c2		 sub	 eax, edx
  00596	d1 f8		 sar	 eax, 1
  00598	05 94 01 00 00	 add	 eax, 404		; 00000194H
  0059d	50		 push	 eax
  0059e	e8 00 00 00 00	 call	 ?StockDispBuffer@@YAHHHEHH@Z ; StockDispBuffer
  005a3	83 c4 14	 add	 esp, 20			; 00000014H
  005a6	a3 08 00 00 00	 mov	 DWORD PTR ?btnId@?1??HelpProc@@YAHXZ@4PAHA+8, eax
$LN63@HelpProc:

; 987  : 			if( btnState[3] >= 0)

  005ab	a1 0c 00 00 00	 mov	 eax, DWORD PTR ?btnState@?1??HelpProc@@YAHXZ@4PAHA+12
  005b0	85 c0		 test	 eax, eax
  005b2	78 37		 js	 SHORT $LN64@HelpProc

; 988  : 				btnId[3] = StockDispBuffer(x + 332 + 32 + DISPLACEMENT_X / 2, y + 350  + DISPLACEMENT_Y / 2, DISP_PRIO_IME3, CG_FIELD_HELP_EXIT + btnState[3], 2);

  005b4	05 90 66 00 00	 add	 eax, 26256		; 00006690H
  005b9	6a 02		 push	 2
  005bb	50		 push	 eax
  005bc	a1 00 00 00 00	 mov	 eax, DWORD PTR ?DISPLACEMENT_Y@@3HA ; DISPLACEMENT_Y
  005c1	99		 cdq
  005c2	2b c2		 sub	 eax, edx
  005c4	d1 f8		 sar	 eax, 1
  005c6	05 90 01 00 00	 add	 eax, 400		; 00000190H
  005cb	6a 69		 push	 105			; 00000069H
  005cd	50		 push	 eax
  005ce	a1 00 00 00 00	 mov	 eax, DWORD PTR ?DISPLACEMENT_X@@3HA ; DISPLACEMENT_X
  005d3	99		 cdq
  005d4	2b c2		 sub	 eax, edx
  005d6	d1 f8		 sar	 eax, 1
  005d8	05 da 01 00 00	 add	 eax, 474		; 000001daH
  005dd	50		 push	 eax
  005de	e8 00 00 00 00	 call	 ?StockDispBuffer@@YAHHHEHH@Z ; StockDispBuffer
  005e3	83 c4 14	 add	 esp, 20			; 00000014H
  005e6	a3 0c 00 00 00	 mov	 DWORD PTR ?btnId@?1??HelpProc@@YAHXZ@4PAHA+12, eax
$LN64@HelpProc:

; 989  : 			//ç§title
; 990  : 			StockFontBuffer( x+20 + DISPLACEMENT_X / 2, y+35 + DISPLACEMENT_Y / 2, FONT_PRIO_FRONT, FONT_PAL_GREEN, seg->tile, 0);

  005eb	6a 00		 push	 0
  005ed	8d 43 03	 lea	 eax, DWORD PTR [ebx+3]
  005f0	50		 push	 eax
  005f1	a1 00 00 00 00	 mov	 eax, DWORD PTR ?DISPLACEMENT_Y@@3HA ; DISPLACEMENT_Y
  005f6	99		 cdq
  005f7	2b c2		 sub	 eax, edx
  005f9	d1 f8		 sar	 eax, 1
  005fb	83 c0 55	 add	 eax, 85			; 00000055H
  005fe	6a 05		 push	 5
  00600	6a 01		 push	 1
  00602	50		 push	 eax
  00603	a1 00 00 00 00	 mov	 eax, DWORD PTR ?DISPLACEMENT_X@@3HA ; DISPLACEMENT_X
  00608	99		 cdq
  00609	2b c2		 sub	 eax, edx
  0060b	d1 f8		 sar	 eax, 1
  0060d	05 82 00 00 00	 add	 eax, 130		; 00000082H
  00612	50		 push	 eax
  00613	e8 00 00 00 00	 call	 ?StockFontBuffer@@YAHHHDHPADH@Z ; StockFontBuffer
  00618	83 c4 18	 add	 esp, 24			; 00000018H

; 991  : 			int xx;
; 992  : 			//ç§åºæ­¤é¡µææçæå­
; 993  : 			for( i = 0; i < page->desc_num; i++){

  0061b	c7 45 b8 00 00
	00 00		 mov	 DWORD PTR _i$2$[ebp], 0
  00622	80 7e 02 00	 cmp	 BYTE PTR [esi+2], 0
  00626	0f 86 5a 04 00
	00		 jbe	 $LN21@HelpProc

; 989  : 			//ç§title
; 990  : 			StockFontBuffer( x+20 + DISPLACEMENT_X / 2, y+35 + DISPLACEMENT_Y / 2, FONT_PRIO_FRONT, FONT_PAL_GREEN, seg->tile, 0);

  0062c	8b 75 bc	 mov	 esi, DWORD PTR _desc$1$[ebp]
  0062f	c7 45 b0 00 00
	00 00		 mov	 DWORD PTR tv1728[ebp], 0
  00636	83 c6 05	 add	 esi, 5
  00639	0f 1f 80 00 00
	00 00		 npad	 7
$LL22@HelpProc:

; 994  : 				xx = x + 34 + DISPLACEMENT_X / 2;

  00640	a1 00 00 00 00	 mov	 eax, DWORD PTR ?DISPLACEMENT_X@@3HA ; DISPLACEMENT_X
  00645	99		 cdq
  00646	2b c2		 sub	 eax, edx
  00648	8b f8		 mov	 edi, eax

; 995  : 				if( desc->bmpno){		//æ­¤è¡æå¾ç¤º

  0064a	0f b7 46 fb	 movzx	 eax, WORD PTR [esi-5]
  0064e	d1 ff		 sar	 edi, 1
  00650	81 c7 90 00 00
	00		 add	 edi, 144		; 00000090H
  00656	66 85 c0	 test	 ax, ax
  00659	74 55		 je	 SHORT $LN65@HelpProc

; 996  : 					StockDispBuffer( xx+desc->indent*14+help_bmp[desc->bmpno].x, y+i*25+70+help_bmp[desc->bmpno].y + DISPLACEMENT_Y / 2, DISP_PRIO_IME3, +help_bmp[desc->bmpno].bmpno, 0);

  0065b	0f bf d0	 movsx	 edx, ax
  0065e	6a 00		 push	 0
  00660	0f bf 04 d5 04
	00 00 00	 movsx	 eax, WORD PTR ?help_bmp@@3PAUHELPBMP@@A[edx*8+4]
  00668	0f bf 0c d5 02
	00 00 00	 movsx	 ecx, WORD PTR ?help_bmp@@3PAUHELPBMP@@A[edx*8+2]
  00670	50		 push	 eax
  00671	6a 69		 push	 105			; 00000069H
  00673	a1 00 00 00 00	 mov	 eax, DWORD PTR ?DISPLACEMENT_Y@@3HA ; DISPLACEMENT_Y
  00678	85 c0		 test	 eax, eax
  0067a	79 03		 jns	 SHORT $LN128@HelpProc
  0067c	83 c0 01	 add	 eax, 1
$LN128@HelpProc:
  0067f	d1 f8		 sar	 eax, 1
  00681	03 4d b0	 add	 ecx, DWORD PTR tv1728[ebp]
  00684	83 c0 78	 add	 eax, 120		; 00000078H
  00687	03 c1		 add	 eax, ecx
  00689	50		 push	 eax
  0068a	0f b6 46 fe	 movzx	 eax, BYTE PTR [esi-2]
  0068e	8d 0c c5 00 00
	00 00		 lea	 ecx, DWORD PTR [eax*8]
  00695	2b c8		 sub	 ecx, eax
  00697	0f bf 04 d5 00
	00 00 00	 movsx	 eax, WORD PTR ?help_bmp@@3PAUHELPBMP@@A[edx*8]
  0069f	03 c7		 add	 eax, edi
  006a1	8d 04 48	 lea	 eax, DWORD PTR [eax+ecx*2]
  006a4	50		 push	 eax
  006a5	e8 00 00 00 00	 call	 ?StockDispBuffer@@YAHHHEHH@Z ; StockDispBuffer
  006aa	83 c4 14	 add	 esp, 20			; 00000014H

; 997  : 					xx += 28;

  006ad	83 c7 1c	 add	 edi, 28			; 0000001cH
$LN65@HelpProc:

; 998  : 				}
; 999  : 				xx += desc->indent*14;

  006b0	0f b6 4e fe	 movzx	 ecx, BYTE PTR [esi-2]
  006b4	8d 04 cd 00 00
	00 00		 lea	 eax, DWORD PTR [ecx*8]
  006bb	2b c1		 sub	 eax, ecx

; 1000 : 
; 1001 : 				if( desc->linkto_seg_no){

  006bd	80 7e ff 00	 cmp	 BYTE PTR [esi-1], 0
  006c1	8d 0c 47	 lea	 ecx, DWORD PTR [edi+eax*2]
  006c4	89 4d bc	 mov	 DWORD PTR _xx$2$[ebp], ecx
  006c7	0f 84 f3 01 00
	00		 je	 $LN66@HelpProc

; 1002 : 					//æ­¤è¡å¯éæ©
; 1003 : 					btnId[i+4] = StockFontBuffer( xx, y+i*25+70 + DISPLACEMENT_Y / 2, FONT_PRIO_FRONT, desc->color, desc->description, 2);

  006cd	0f b6 46 fd	 movzx	 eax, BYTE PTR [esi-3]
  006d1	6a 02		 push	 2
  006d3	56		 push	 esi
  006d4	50		 push	 eax
  006d5	6a 01		 push	 1
  006d7	a1 00 00 00 00	 mov	 eax, DWORD PTR ?DISPLACEMENT_Y@@3HA ; DISPLACEMENT_Y
  006dc	85 c0		 test	 eax, eax
  006de	79 03		 jns	 SHORT $LN129@HelpProc
  006e0	83 c0 01	 add	 eax, 1
$LN129@HelpProc:
  006e3	d1 f8		 sar	 eax, 1
  006e5	8b 7d b0	 mov	 edi, DWORD PTR tv1728[ebp]
  006e8	83 c0 78	 add	 eax, 120		; 00000078H
  006eb	03 c7		 add	 eax, edi
  006ed	50		 push	 eax
  006ee	51		 push	 ecx
  006ef	e8 00 00 00 00	 call	 ?StockFontBuffer@@YAHHHDHPADH@Z ; StockFontBuffer
  006f4	8b 4d b8	 mov	 ecx, DWORD PTR _i$2$[ebp]
  006f7	89 04 8d 10 00
	00 00		 mov	 DWORD PTR ?btnId@?1??HelpProc@@YAHXZ@4PAHA[ecx*4+16], eax

; 1004 : 				}else

  006fe	e9 64 03 00 00	 jmp	 $LN126@HelpProc
$LN51@HelpProc:

; 928  : 				play_se( 217, 320, 240);	//CLICKå£°
; 929  : 			}else if( 4 <= id && id <= 15){

  00703	8d 47 fc	 lea	 eax, DWORD PTR [edi-4]
  00706	83 f8 0b	 cmp	 eax, 11			; 0000000bH
  00709	0f 87 7b 01 00
	00		 ja	 $LN53@HelpProc

; 930  : 				//ææå­æé®çå¨ä½
; 931  : 				id -= 4;
; 932  : 
; 933  : 				for( i = 0; i < page->desc_num; i++){

  0070f	0f b6 56 02	 movzx	 edx, BYTE PTR [esi+2]
  00713	33 c9		 xor	 ecx, ecx
  00715	85 d2		 test	 edx, edx
  00717	0f 84 48 fd ff
	ff		 je	 $LN57@HelpProc
  0071d	0f 1f 00	 npad	 3
$LL13@HelpProc:

; 934  : 					if( id == i){	//å¯»æ¾æäºé£ä¸è¡æå­æé®

  00720	3b c1		 cmp	 eax, ecx
  00722	74 0a		 je	 SHORT $LN81@HelpProc

; 930  : 				//ææå­æé®çå¨ä½
; 931  : 				id -= 4;
; 932  : 
; 933  : 				for( i = 0; i < page->desc_num; i++){

  00724	41		 inc	 ecx
  00725	3b ca		 cmp	 ecx, edx
  00727	7c f7		 jl	 SHORT $LL13@HelpProc

; 934  : 					if( id == i){	//å¯»æ¾æäºé£ä¸è¡æå­æé®

  00729	e9 37 fd ff ff	 jmp	 $LN57@HelpProc
$LN81@HelpProc:

; 935  : 						//è®°å½ä¸ä¸å±çbufferè¶è¿
; 936  : 						if( history_index >= 16){

  0072e	8b 15 00 00 00
	00		 mov	 edx, DWORD PTR ?history_index@?1??HelpProc@@YAHXZ@4HA
  00734	83 fa 10	 cmp	 edx, 16			; 00000010H
  00737	0f 8c b9 00 00
	00		 jl	 $LN93@HelpProc

; 937  : 							history_index = 15;

  0073d	0f b6 05 01 00
	00 00		 movzx	 eax, BYTE PTR ?seg_history@?1??HelpProc@@YAHXZ@4PAEA+1
  00744	ba 0f 00 00 00	 mov	 edx, 15			; 0000000fH
  00749	a2 00 00 00 00	 mov	 BYTE PTR ?seg_history@?1??HelpProc@@YAHXZ@4PAEA, al
  0074e	0f b6 05 02 00
	00 00		 movzx	 eax, BYTE PTR ?seg_history@?1??HelpProc@@YAHXZ@4PAEA+2
  00755	a2 01 00 00 00	 mov	 BYTE PTR ?seg_history@?1??HelpProc@@YAHXZ@4PAEA+1, al
  0075a	0f b6 05 03 00
	00 00		 movzx	 eax, BYTE PTR ?seg_history@?1??HelpProc@@YAHXZ@4PAEA+3
  00761	a2 02 00 00 00	 mov	 BYTE PTR ?seg_history@?1??HelpProc@@YAHXZ@4PAEA+2, al
  00766	0f b6 05 04 00
	00 00		 movzx	 eax, BYTE PTR ?seg_history@?1??HelpProc@@YAHXZ@4PAEA+4
  0076d	a2 03 00 00 00	 mov	 BYTE PTR ?seg_history@?1??HelpProc@@YAHXZ@4PAEA+3, al
  00772	0f b6 05 05 00
	00 00		 movzx	 eax, BYTE PTR ?seg_history@?1??HelpProc@@YAHXZ@4PAEA+5
  00779	a2 04 00 00 00	 mov	 BYTE PTR ?seg_history@?1??HelpProc@@YAHXZ@4PAEA+4, al
  0077e	0f b6 05 06 00
	00 00		 movzx	 eax, BYTE PTR ?seg_history@?1??HelpProc@@YAHXZ@4PAEA+6
  00785	a2 05 00 00 00	 mov	 BYTE PTR ?seg_history@?1??HelpProc@@YAHXZ@4PAEA+5, al
  0078a	0f b6 05 07 00
	00 00		 movzx	 eax, BYTE PTR ?seg_history@?1??HelpProc@@YAHXZ@4PAEA+7
  00791	a2 06 00 00 00	 mov	 BYTE PTR ?seg_history@?1??HelpProc@@YAHXZ@4PAEA+6, al
  00796	0f b6 05 08 00
	00 00		 movzx	 eax, BYTE PTR ?seg_history@?1??HelpProc@@YAHXZ@4PAEA+8
  0079d	a2 07 00 00 00	 mov	 BYTE PTR ?seg_history@?1??HelpProc@@YAHXZ@4PAEA+7, al
  007a2	0f b6 05 09 00
	00 00		 movzx	 eax, BYTE PTR ?seg_history@?1??HelpProc@@YAHXZ@4PAEA+9
  007a9	a2 08 00 00 00	 mov	 BYTE PTR ?seg_history@?1??HelpProc@@YAHXZ@4PAEA+8, al
  007ae	0f b6 05 0a 00
	00 00		 movzx	 eax, BYTE PTR ?seg_history@?1??HelpProc@@YAHXZ@4PAEA+10
  007b5	a2 09 00 00 00	 mov	 BYTE PTR ?seg_history@?1??HelpProc@@YAHXZ@4PAEA+9, al
  007ba	0f b6 05 0b 00
	00 00		 movzx	 eax, BYTE PTR ?seg_history@?1??HelpProc@@YAHXZ@4PAEA+11
  007c1	a2 0a 00 00 00	 mov	 BYTE PTR ?seg_history@?1??HelpProc@@YAHXZ@4PAEA+10, al
  007c6	0f b6 05 0c 00
	00 00		 movzx	 eax, BYTE PTR ?seg_history@?1??HelpProc@@YAHXZ@4PAEA+12
  007cd	a2 0b 00 00 00	 mov	 BYTE PTR ?seg_history@?1??HelpProc@@YAHXZ@4PAEA+11, al
  007d2	0f b6 05 0d 00
	00 00		 movzx	 eax, BYTE PTR ?seg_history@?1??HelpProc@@YAHXZ@4PAEA+13
  007d9	a2 0c 00 00 00	 mov	 BYTE PTR ?seg_history@?1??HelpProc@@YAHXZ@4PAEA+12, al
  007de	0f b6 05 0e 00
	00 00		 movzx	 eax, BYTE PTR ?seg_history@?1??HelpProc@@YAHXZ@4PAEA+14
  007e5	a2 0d 00 00 00	 mov	 BYTE PTR ?seg_history@?1??HelpProc@@YAHXZ@4PAEA+13, al
  007ea	0f b6 05 0f 00
	00 00		 movzx	 eax, BYTE PTR ?seg_history@?1??HelpProc@@YAHXZ@4PAEA+15
  007f1	a2 0e 00 00 00	 mov	 BYTE PTR ?seg_history@?1??HelpProc@@YAHXZ@4PAEA+14, al
$LN93@HelpProc:

; 938  : 							for( j = 1; j < 16; j++)
; 939  : 								seg_history[j-1] = seg_history[j];
; 940  : 						}
; 941  : 						btnState[0] = 0;	//å¯æ"ä¸ä¸å±"
; 942  : 						seg_history[history_index] = (BYTE)seg_index;	//è®°å½ä¸ä¸å±çseg_index

  007f6	a0 00 00 00 00	 mov	 al, BYTE PTR ?seg_index@?1??HelpProc@@YAHXZ@4HA

; 943  : 						history_index++;
; 944  : 						seg_index = desc[i].linkto_seg_no;				//è¿ç»çseg index

  007fb	8b 75 bc	 mov	 esi, DWORD PTR _desc$1$[ebp]
  007fe	88 82 00 00 00
	00		 mov	 BYTE PTR ?seg_history@?1??HelpProc@@YAHXZ@4PAEA[edx], al
  00804	42		 inc	 edx
  00805	8b c1		 mov	 eax, ecx
  00807	89 15 00 00 00
	00		 mov	 DWORD PTR ?history_index@?1??HelpProc@@YAHXZ@4HA, edx
  0080d	c1 e0 05	 shl	 eax, 5
  00810	03 c1		 add	 eax, ecx
  00812	c7 05 00 00 00
	00 00 00 00 00	 mov	 DWORD PTR ?btnState@?1??HelpProc@@YAHXZ@4PAHA, 0

; 945  : 						seg = &help_seg[seg_index];						//æåæ°çseg
; 946  : 						page_index = seg->page_index;					//æ­¤ä¸segçèµ·å§page index
; 947  : 						page = &help_page[page_index];					//æåæ°çpage
; 948  : 						desc_index = page->desc_index;					//æ­¤ä¸pageçèµ·å§desc index
; 949  : 						desc = help_index[seg_index]+page->desc_index;	//æåæ°çdesc
; 950  : 						btnState[1] = -1;

  0081c	c7 05 04 00 00
	00 ff ff ff ff	 mov	 DWORD PTR ?btnState@?1??HelpProc@@YAHXZ@4PAHA+4, -1
  00826	0f b6 54 46 04	 movzx	 edx, BYTE PTR [esi+eax*2+4]
  0082b	8b da		 mov	 ebx, edx
  0082d	89 15 00 00 00
	00		 mov	 DWORD PTR ?seg_index@?1??HelpProc@@YAHXZ@4HA, edx
  00833	c1 e3 05	 shl	 ebx, 5
  00836	81 c3 00 00 00
	00		 add	 ebx, OFFSET ?help_seg@@3PAUSEG@@A ; help_seg
  0083c	0f bf 33	 movsx	 esi, WORD PTR [ebx]
  0083f	89 35 00 00 00
	00		 mov	 DWORD PTR ?page_index@?1??HelpProc@@YAHXZ@4HA, esi
  00845	8d 04 b5 00 00
	00 00		 lea	 eax, DWORD PTR ?help_page@@3PAUPAGE@@A[esi*4]
  0084c	89 45 b4	 mov	 DWORD PTR _page$1$[ebp], eax
  0084f	0f bf 00	 movsx	 eax, WORD PTR [eax]
  00852	8b c8		 mov	 ecx, eax
  00854	a3 00 00 00 00	 mov	 DWORD PTR ?desc_index@?1??HelpProc@@YAHXZ@4HA, eax
  00859	c1 e1 05	 shl	 ecx, 5
  0085c	03 c8		 add	 ecx, eax
  0085e	8b 04 95 00 00
	00 00		 mov	 eax, DWORD PTR ?help_index@@3PAPAUDESC@@A[edx*4]

; 951  : 						if( seg->page_index < page_index)				//æ¯å¦å¯å"??"
; 952  : 							btnState[1] = 0;
; 953  : 						btnState[2] = -1;
; 954  : 						if( (seg->page_index+seg->page_num-1) > page_index)//æ¯å¦å¯æ"??"

  00865	33 d2		 xor	 edx, edx
  00867	8d 04 48	 lea	 eax, DWORD PTR [eax+ecx*2]
  0086a	83 c9 ff	 or	 ecx, -1
  0086d	89 45 bc	 mov	 DWORD PTR _desc$1$[ebp], eax
  00870	0f b6 43 02	 movzx	 eax, BYTE PTR [ebx+2]
  00874	48		 dec	 eax
  00875	03 c6		 add	 eax, esi
  00877	3b c6		 cmp	 eax, esi
  00879	8b 75 b4	 mov	 esi, DWORD PTR _page$1$[ebp]
  0087c	0f 4f ca	 cmovg	 ecx, edx
  0087f	89 0d 08 00 00
	00		 mov	 DWORD PTR ?btnState@?1??HelpProc@@YAHXZ@4PAHA+8, ecx

; 955  : 							btnState[2] = 0;
; 956  : 						break;
; 957  : 					}
; 958  : 				}
; 959  : 				id = -1;
; 960  : 				play_se( 217, 320, 240);	//CLICKå£°
; 961  : 			}
; 962  : 		}
; 963  : 
; 964  : 		//è§çªå³é­
; 965  : 		if( id >= 0){

  00885	e9 db fb ff ff	 jmp	 $LN57@HelpProc
$LN53@HelpProc:
  0088a	85 ff		 test	 edi, edi
  0088c	0f 88 ea fb ff
	ff		 js	 $LN58@HelpProc
$LN118@HelpProc:

; 966  : 			DeathAction( ptActMenuWin);

  00892	ff 35 00 00 00
	00		 push	 DWORD PTR ?ptActMenuWin@?1??HelpProc@@YAHXZ@4PAUaction@@A
  00898	e8 00 00 00 00	 call	 ?DeathAction@@YAXPAUaction@@@Z ; DeathAction
  0089d	83 c4 04	 add	 esp, 4

; 967  : 			ptActMenuWin = NULL;

  008a0	c7 05 00 00 00
	00 00 00 00 00	 mov	 DWORD PTR ?ptActMenuWin@?1??HelpProc@@YAHXZ@4PAUaction@@A, 0

; 968  : 			return 1;

  008aa	b8 01 00 00 00	 mov	 eax, 1
  008af	5f		 pop	 edi

; 1025 : 			}
; 1026 : 		}
; 1027 : 	}
; 1028 : 	return 0;
; 1029 : }

  008b0	5e		 pop	 esi
  008b1	5b		 pop	 ebx
  008b2	8b 4d fc	 mov	 ecx, DWORD PTR __$ArrayPad$[ebp]
  008b5	33 cd		 xor	 ecx, ebp
  008b7	e8 00 00 00 00	 call	 @__security_check_cookie@4
  008bc	8b e5		 mov	 esp, ebp
  008be	5d		 pop	 ebp
  008bf	c3		 ret	 0
$LN66@HelpProc:

; 1005 : 					if(strcmp(desc->description,"jobdaily") ==0){

  008c0	b8 00 00 00 00	 mov	 eax, OFFSET ??_C@_08LHAFEHD@jobdaily@
  008c5	8b ce		 mov	 ecx, esi
$LL119@HelpProc:
  008c7	8a 11		 mov	 dl, BYTE PTR [ecx]
  008c9	3a 10		 cmp	 dl, BYTE PTR [eax]
  008cb	75 1a		 jne	 SHORT $LN120@HelpProc
  008cd	84 d2		 test	 dl, dl
  008cf	74 12		 je	 SHORT $LN121@HelpProc
  008d1	8a 51 01	 mov	 dl, BYTE PTR [ecx+1]
  008d4	3a 50 01	 cmp	 dl, BYTE PTR [eax+1]
  008d7	75 0e		 jne	 SHORT $LN120@HelpProc
  008d9	83 c1 02	 add	 ecx, 2
  008dc	83 c0 02	 add	 eax, 2
  008df	84 d2		 test	 dl, dl
  008e1	75 e4		 jne	 SHORT $LL119@HelpProc
$LN121@HelpProc:
  008e3	33 c0		 xor	 eax, eax
  008e5	eb 05		 jmp	 SHORT $LN122@HelpProc
$LN120@HelpProc:
  008e7	1b c0		 sbb	 eax, eax
  008e9	83 c8 01	 or	 eax, 1
$LN122@HelpProc:
  008ec	85 c0		 test	 eax, eax
  008ee	0f 85 47 01 00
	00		 jne	 $LN68@HelpProc

; 1006 : #ifdef _JOBDAILY
; 1007 : 						char tmbuf[48];
; 1008 : 						sprintf(tmbuf,"Pageï¼%02d/%02d",page_index-56,seg->page_index+seg->page_num-57);

  008f4	0f b6 4b 02	 movzx	 ecx, BYTE PTR [ebx+2]
  008f8	0f bf 03	 movsx	 eax, WORD PTR [ebx]
  008fb	83 c1 c7	 add	 ecx, -57		; ffffffc7H
  008fe	03 c1		 add	 eax, ecx
  00900	50		 push	 eax
  00901	a1 00 00 00 00	 mov	 eax, DWORD PTR ?page_index@?1??HelpProc@@YAHXZ@4HA
  00906	83 c0 c8	 add	 eax, -56		; ffffffc8H
  00909	50		 push	 eax
  0090a	8d 45 c0	 lea	 eax, DWORD PTR _tmbuf$1[ebp]
  0090d	68 00 00 00 00	 push	 OFFSET ??_C@_0BA@HOICKKFF@Page?$KD?$LK?$CF02d?1?$CF02d@
  00912	50		 push	 eax
  00913	e8 00 00 00 00	 call	 _sprintf

; 1009 : 						StockFontBuffer( x+25 + DISPLACEMENT_X / 2, y+340 + DISPLACEMENT_Y / 2, FONT_PRIO_FRONT, 1, tmbuf, 0);

  00918	6a 00		 push	 0
  0091a	8d 45 c0	 lea	 eax, DWORD PTR _tmbuf$1[ebp]
  0091d	50		 push	 eax
  0091e	a1 00 00 00 00	 mov	 eax, DWORD PTR ?DISPLACEMENT_Y@@3HA ; DISPLACEMENT_Y
  00923	99		 cdq
  00924	2b c2		 sub	 eax, edx
  00926	d1 f8		 sar	 eax, 1
  00928	05 86 01 00 00	 add	 eax, 390		; 00000186H
  0092d	6a 01		 push	 1
  0092f	6a 01		 push	 1
  00931	50		 push	 eax
  00932	a1 00 00 00 00	 mov	 eax, DWORD PTR ?DISPLACEMENT_X@@3HA ; DISPLACEMENT_X
  00937	99		 cdq
  00938	2b c2		 sub	 eax, edx
  0093a	d1 f8		 sar	 eax, 1
  0093c	05 87 00 00 00	 add	 eax, 135		; 00000087H
  00941	50		 push	 eax
  00942	e8 00 00 00 00	 call	 ?StockFontBuffer@@YAHHHDHPADH@Z ; StockFontBuffer

; 1010 : 
; 1011 : 						char buf[10];
; 1012 : 						sprintf(buf,"%d",jobdaily[(page_index-57)*10+i-1].JobId);

  00947	a1 00 00 00 00	 mov	 eax, DWORD PTR ?page_index@?1??HelpProc@@YAHXZ@4HA
  0094c	8d 04 80	 lea	 eax, DWORD PTR [eax+eax*4]
  0094f	8d 04 45 c5 fd
	ff ff		 lea	 eax, DWORD PTR [eax*2-571]
  00956	03 45 b8	 add	 eax, DWORD PTR _i$2$[ebp]
  00959	69 c0 d8 00 00
	00		 imul	 eax, eax, 216
  0095f	ff b0 00 00 00
	00		 push	 DWORD PTR ?jobdaily@@3PAUJOBDAILY@@A[eax]
  00965	8d 45 f0	 lea	 eax, DWORD PTR _buf$2[ebp]
  00968	68 00 00 00 00	 push	 OFFSET ??_C@_02DPKJAMEF@?$CFd@
  0096d	50		 push	 eax
  0096e	e8 00 00 00 00	 call	 _sprintf

; 1013 : 						if(!atoi(buf))	buf[0] = '\0'; //ä¸å°0åºæ¥

  00973	8d 45 f0	 lea	 eax, DWORD PTR _buf$2[ebp]
  00976	50		 push	 eax
  00977	e8 00 00 00 00	 call	 _atoi
  0097c	f7 d8		 neg	 eax

; 1014 : 						StockFontBuffer(xx     ,y+i*25+70 + DISPLACEMENT_Y / 2,FONT_PRIO_FRONT,FONT_PAL_WHITE,buf,0);

  0097e	6a 00		 push	 0
  00980	1a c0		 sbb	 al, al
  00982	20 45 f0	 and	 BYTE PTR _buf$2[ebp], al
  00985	8d 45 f0	 lea	 eax, DWORD PTR _buf$2[ebp]
  00988	50		 push	 eax
  00989	6a 00		 push	 0
  0098b	6a 01		 push	 1
  0098d	a1 00 00 00 00	 mov	 eax, DWORD PTR ?DISPLACEMENT_Y@@3HA ; DISPLACEMENT_Y
  00992	85 c0		 test	 eax, eax
  00994	79 03		 jns	 SHORT $LN130@HelpProc
  00996	83 c0 01	 add	 eax, 1
$LN130@HelpProc:
  00999	d1 f8		 sar	 eax, 1
  0099b	8b 7d b0	 mov	 edi, DWORD PTR tv1728[ebp]
  0099e	83 c0 78	 add	 eax, 120		; 00000078H
  009a1	03 c7		 add	 eax, edi
  009a3	50		 push	 eax
  009a4	ff 75 bc	 push	 DWORD PTR _xx$2$[ebp]
  009a7	e8 00 00 00 00	 call	 ?StockFontBuffer@@YAHHHDHPADH@Z ; StockFontBuffer

; 1015 : 						StockFontBuffer(xx+30  ,y+i*25+70 + DISPLACEMENT_Y / 2,FONT_PRIO_FRONT,FONT_PAL_WHITE,jobdaily[(page_index-57)*10+i-1].explain,0);

  009ac	a1 00 00 00 00	 mov	 eax, DWORD PTR ?page_index@?1??HelpProc@@YAHXZ@4HA
  009b1	83 c4 50	 add	 esp, 80			; 00000050H
  009b4	8b 4d b8	 mov	 ecx, DWORD PTR _i$2$[ebp]
  009b7	8d 04 80	 lea	 eax, DWORD PTR [eax+eax*4]
  009ba	8d 04 41	 lea	 eax, DWORD PTR [ecx+eax*2]
  009bd	69 c0 d8 00 00
	00		 imul	 eax, eax, 216
  009c3	6a 00		 push	 0
  009c5	8d 80 3c 1e fe
	ff		 lea	 eax, DWORD PTR ?jobdaily@@3PAUJOBDAILY@@A[eax-123332]
  009cb	50		 push	 eax
  009cc	6a 00		 push	 0
  009ce	6a 01		 push	 1
  009d0	a1 00 00 00 00	 mov	 eax, DWORD PTR ?DISPLACEMENT_Y@@3HA ; DISPLACEMENT_Y
  009d5	85 c0		 test	 eax, eax
  009d7	79 03		 jns	 SHORT $LN131@HelpProc
  009d9	83 c0 01	 add	 eax, 1
$LN131@HelpProc:
  009dc	d1 f8		 sar	 eax, 1
  009de	83 c0 78	 add	 eax, 120		; 00000078H
  009e1	03 c7		 add	 eax, edi
  009e3	50		 push	 eax
  009e4	8b 45 bc	 mov	 eax, DWORD PTR _xx$2$[ebp]
  009e7	83 c0 1e	 add	 eax, 30			; 0000001eH
  009ea	50		 push	 eax
  009eb	e8 00 00 00 00	 call	 ?StockFontBuffer@@YAHHHDHPADH@Z ; StockFontBuffer

; 1016 : 						StockFontBuffer(xx+328 ,y+i*25+70 + DISPLACEMENT_Y / 2,FONT_PRIO_FRONT,FONT_PAL_WHITE,jobdaily[(page_index-57)*10+i-1].state,0);

  009f0	a1 00 00 00 00	 mov	 eax, DWORD PTR ?page_index@?1??HelpProc@@YAHXZ@4HA
  009f5	8b 4d b8	 mov	 ecx, DWORD PTR _i$2$[ebp]
  009f8	6a 00		 push	 0
  009fa	8d 04 80	 lea	 eax, DWORD PTR [eax+eax*4]
  009fd	8d 04 41	 lea	 eax, DWORD PTR [ecx+eax*2]
  00a00	69 c0 d8 00 00
	00		 imul	 eax, eax, 216
  00a06	8d 80 04 1f fe
	ff		 lea	 eax, DWORD PTR ?jobdaily@@3PAUJOBDAILY@@A[eax-123132]
  00a0c	50		 push	 eax
  00a0d	6a 00		 push	 0
  00a0f	6a 01		 push	 1
  00a11	a1 00 00 00 00	 mov	 eax, DWORD PTR ?DISPLACEMENT_Y@@3HA ; DISPLACEMENT_Y
  00a16	85 c0		 test	 eax, eax
  00a18	79 03		 jns	 SHORT $LN132@HelpProc
  00a1a	83 c0 01	 add	 eax, 1
$LN132@HelpProc:
  00a1d	d1 f8		 sar	 eax, 1
  00a1f	83 c0 78	 add	 eax, 120		; 00000078H
  00a22	03 c7		 add	 eax, edi
  00a24	50		 push	 eax
  00a25	8b 45 bc	 mov	 eax, DWORD PTR _xx$2$[ebp]
  00a28	05 48 01 00 00	 add	 eax, 328		; 00000148H
  00a2d	50		 push	 eax
  00a2e	e8 00 00 00 00	 call	 ?StockFontBuffer@@YAHHHDHPADH@Z ; StockFontBuffer

; 1017 : #else
; 1018 : 						StockFontBuffer( xx, y+i*25+70, FONT_PRIO_FRONT, desc->color, desc->description, 0);
; 1019 : #endif
; 1020 : 					}else{

  00a33	8b 4d b8	 mov	 ecx, DWORD PTR _i$2$[ebp]
  00a36	83 c4 30	 add	 esp, 48			; 00000030H
  00a39	eb 2f		 jmp	 SHORT $LN69@HelpProc
$LN68@HelpProc:

; 1021 : 						//æ­¤è¡åªæ¯åçº¯çè¯´æ
; 1022 : 						StockFontBuffer( xx, y+i*25+70 + DISPLACEMENT_Y / 2, FONT_PRIO_FRONT, desc->color, desc->description, 0);

  00a3b	0f b6 46 fd	 movzx	 eax, BYTE PTR [esi-3]
  00a3f	6a 00		 push	 0
  00a41	56		 push	 esi
  00a42	50		 push	 eax
  00a43	6a 01		 push	 1
  00a45	a1 00 00 00 00	 mov	 eax, DWORD PTR ?DISPLACEMENT_Y@@3HA ; DISPLACEMENT_Y
  00a4a	85 c0		 test	 eax, eax
  00a4c	79 03		 jns	 SHORT $LN133@HelpProc
  00a4e	83 c0 01	 add	 eax, 1
$LN133@HelpProc:
  00a51	d1 f8		 sar	 eax, 1
  00a53	8b 7d b0	 mov	 edi, DWORD PTR tv1728[ebp]
  00a56	83 c0 78	 add	 eax, 120		; 00000078H
  00a59	03 c7		 add	 eax, edi
  00a5b	50		 push	 eax
  00a5c	ff 75 bc	 push	 DWORD PTR _xx$2$[ebp]
  00a5f	e8 00 00 00 00	 call	 ?StockFontBuffer@@YAHHHDHPADH@Z ; StockFontBuffer
  00a64	8b 4d b8	 mov	 ecx, DWORD PTR _i$2$[ebp]
$LN126@HelpProc:

; 1023 : 					}
; 1024 : 				desc++;

  00a67	83 c4 18	 add	 esp, 24			; 00000018H
$LN69@HelpProc:

; 991  : 			int xx;
; 992  : 			//ç§åºæ­¤é¡µææçæå­
; 993  : 			for( i = 0; i < page->desc_num; i++){

  00a6a	8b 45 b4	 mov	 eax, DWORD PTR _page$1$[ebp]
  00a6d	41		 inc	 ecx
  00a6e	83 c7 19	 add	 edi, 25			; 00000019H
  00a71	89 4d b8	 mov	 DWORD PTR _i$2$[ebp], ecx

; 1023 : 					}
; 1024 : 				desc++;

  00a74	83 c6 42	 add	 esi, 66			; 00000042H
  00a77	89 7d b0	 mov	 DWORD PTR tv1728[ebp], edi
  00a7a	0f b6 40 02	 movzx	 eax, BYTE PTR [eax+2]
  00a7e	3b c8		 cmp	 ecx, eax
  00a80	0f 8c ba fb ff
	ff		 jl	 $LL22@HelpProc
$LN21@HelpProc:

; 1025 : 			}
; 1026 : 		}
; 1027 : 	}
; 1028 : 	return 0;
; 1029 : }

  00a86	8b 4d fc	 mov	 ecx, DWORD PTR __$ArrayPad$[ebp]
  00a89	33 c0		 xor	 eax, eax
  00a8b	5f		 pop	 edi
  00a8c	5e		 pop	 esi
  00a8d	33 cd		 xor	 ecx, ebp
  00a8f	5b		 pop	 ebx
  00a90	e8 00 00 00 00	 call	 @__security_check_cookie@4
  00a95	8b e5		 mov	 esp, ebp
  00a97	5d		 pop	 ebp
  00a98	c3		 ret	 0
?HelpProc@@YAHXZ ENDP					; HelpProc
_TEXT	ENDS
; Function compile flags: /Ogtp
; File C:\Program Files (x86)\Windows Kits\10\Include\10.0.18362.0\ucrt\stdio.h
;	COMDAT _sprintf
_TEXT	SEGMENT
__Buffer$ = 8						; size = 4
__Format$ = 12						; size = 4
_sprintf PROC						; COMDAT

; 1781 :     {

  00000	55		 push	 ebp
  00001	8b ec		 mov	 ebp, esp

; 1390 :         int const _Result = __stdio_common_vsprintf(

  00003	8d 45 10	 lea	 eax, DWORD PTR __Format$[ebp+4]
  00006	50		 push	 eax
  00007	6a 00		 push	 0
  00009	ff 75 0c	 push	 DWORD PTR __Format$[ebp]
  0000c	6a ff		 push	 -1
  0000e	ff 75 08	 push	 DWORD PTR __Buffer$[ebp]
  00011	e8 00 00 00 00	 call	 ___local_stdio_printf_options
  00016	8b 08		 mov	 ecx, DWORD PTR [eax]
  00018	ff 70 04	 push	 DWORD PTR [eax+4]
  0001b	83 c9 01	 or	 ecx, 1
  0001e	51		 push	 ecx
  0001f	e8 00 00 00 00	 call	 ___stdio_common_vsprintf

; 1391 :             _CRT_INTERNAL_LOCAL_PRINTF_OPTIONS | _CRT_INTERNAL_PRINTF_LEGACY_VSPRINTF_NULL_TERMINATION,
; 1392 :             _Buffer, _BufferCount, _Format, _Locale, _ArgList);
; 1393 : 
; 1394 :         return _Result < 0 ? -1 : _Result;

  00024	83 c9 ff	 or	 ecx, -1
  00027	83 c4 1c	 add	 esp, 28			; 0000001cH
  0002a	85 c0		 test	 eax, eax
  0002c	0f 48 c1	 cmovs	 eax, ecx

; 1782 :         int _Result;
; 1783 :         va_list _ArgList;
; 1784 :         __crt_va_start(_ArgList, _Format);
; 1785 : 
; 1786 :         #pragma warning(push)
; 1787 :         #pragma warning(disable: 4996) // Deprecation
; 1788 :         _Result = _vsprintf_l(_Buffer, _Format, NULL, _ArgList);
; 1789 :         #pragma warning(pop)
; 1790 : 
; 1791 :         __crt_va_end(_ArgList);
; 1792 :         return _Result;
; 1793 :     }

  0002f	5d		 pop	 ebp
  00030	c3		 ret	 0
_sprintf ENDP
_TEXT	ENDS
; Function compile flags: /Ogtp
; File C:\Program Files (x86)\Windows Kits\10\Include\10.0.18362.0\ucrt\corecrt_stdio_config.h
;	COMDAT ___local_stdio_printf_options
_TEXT	SEGMENT
___local_stdio_printf_options PROC			; COMDAT

; 87   :         static unsigned __int64 _OptionsStorage;
; 88   :         return &_OptionsStorage;

  00000	b8 00 00 00 00	 mov	 eax, OFFSET ?_OptionsStorage@?1??__local_stdio_printf_options@@9@4_KA ; `__local_stdio_printf_options'::`2'::_OptionsStorage

; 89   :     }

  00005	c3		 ret	 0
___local_stdio_printf_options ENDP
_TEXT	ENDS
END
