; Listing generated by Microsoft (R) Optimizing Compiler Version 19.29.30133.0 

	TITLE	\\VBOXSVR\_stoneage\repos\ssm-sacli\Release\login.obj
	.686P
	.XMM
	include listing.inc
	.model	flat

INCLUDELIB LIBCMT
INCLUDELIB OLDNAMES

PUBLIC	?shopWindowProcNo@@3FA				; shopWindowProcNo
PUBLIC	?PetskillShpwWindowProcNo@@3FA			; PetskillShpwWindowProcNo
PUBLIC	?AuctionStr@@3USTR_BUFFER@@A			; AuctionStr
PUBLIC	?AuctionMoney@@3USTR_BUFFER@@A			; AuctionMoney
PUBLIC	?shopWindow1ProcNo@@3FA				; shopWindow1ProcNo
PUBLIC	?shopWindow2ProcNo@@3FA				; shopWindow2ProcNo
PUBLIC	?shopWindow3ProcNo@@3FA				; shopWindow3ProcNo
PUBLIC	?shopWindow4ProcNo@@3FA				; shopWindow4ProcNo
PUBLIC	?shopWindow5ProcNo@@3FA				; shopWindow5ProcNo
PUBLIC	?shopWindow6ProcNo@@3FA				; shopWindow6ProcNo
PUBLIC	?shopWindow7ProcNo@@3FA				; shopWindow7ProcNo
PUBLIC	?shopWindow8ProcNo@@3FA				; shopWindow8ProcNo
PUBLIC	?shopWindow10ProcNo@@3FA			; shopWindow10ProcNo
PUBLIC	?skillShopWindow2ProcNo@@3FA			; skillShopWindow2ProcNo
PUBLIC	?skillShopWindow3ProcNo@@3FA			; skillShopWindow3ProcNo
PUBLIC	?poolShopWindow1ProcNo@@3FA			; poolShopWindow1ProcNo
PUBLIC	?poolShopWindow2ProcNo@@3FA			; poolShopWindow2ProcNo
PUBLIC	?poolShopWindow3ProcNo@@3FA			; poolShopWindow3ProcNo
PUBLIC	?poolShopWindow4ProcNo@@3FA			; poolShopWindow4ProcNo
PUBLIC	?familyElf@@3HA					; familyElf
PUBLIC	?familyNameInput@@3USTR_BUFFER@@A		; familyNameInput
PUBLIC	?familyRuleInput@@3USTR_BUFFER@@A		; familyRuleInput
PUBLIC	?familyRuleShow@@3USTR_BUFFER@@A		; familyRuleShow
PUBLIC	?ýÅíñËÀÌ«@@3HA					; ýÅíñËÀÌ«
PUBLIC	?familyDetail@@3U<unnamed-type-familyDetail>@@A	; familyDetail
PUBLIC	?fmDutyproc@@3HA				; fmDutyproc
PUBLIC	?fmDutyRet@@3HA					; fmDutyRet
PUBLIC	?fmYesNoproc@@3HA				; fmYesNoproc
PUBLIC	?fmYesNoRet@@3HA				; fmYesNoRet
PUBLIC	?lnmake@@3FA					; lnmake
PUBLIC	?FMPKDataList@@3PAUFMPKData@@A			; FMPKDataList
PUBLIC	?serverTime@@3HA				; serverTime
PUBLIC	?winStr@@3PAY0BA@DA				; winStr
PUBLIC	?FMPKSelectData@@3PAUFMPKSelect@@A		; FMPKSelectData
PUBLIC	?FMPKSelectNum@@3HA				; FMPKSelectNum
PUBLIC	?FMPKDetailData@@3UFMPKDetail@@A		; FMPKDetailData
PUBLIC	?familyTax@@3HA					; familyTax
PUBLIC	?familyTaxChange@@3HA				; familyTaxChange
PUBLIC	?haveGold@@3HA					; haveGold
PUBLIC	?rideablePet@@3PAHA				; rideablePet
PUBLIC	?showNum@@3HA					; showNum
PUBLIC	?memberName@@3PAY0CE@DA				; memberName
PUBLIC	?memberIndex@@3PAHA				; memberIndex
PUBLIC	?memberNum@@3HA					; memberNum
PUBLIC	?changeWho@@3HA					; changeWho
PUBLIC	?oldLeaderName@@3PADA				; oldLeaderName
PUBLIC	?oldLeaderIndex@@3HA				; oldLeaderIndex
PUBLIC	?mineFamily@@3U<unnamed-type-mineFamily>@@A	; mineFamily
PUBLIC	?familyJobName@@3PAPADA				; familyJobName
PUBLIC	??_C@_0L@GHPFLEHL@?$LJ?L?$LA?$KB?$MA?T?$LA?$KB?A?$LH@ ; `string'
PUBLIC	??_C@_0L@MFGFKAEI@?5?$LK?N?5?A?$LH?5?$LP?x?5@	; `string'
PUBLIC	??_C@_08GOJGDLLD@?$MA?S?$LN?C?$LA?$KB?$MA?T@	; `string'
PUBLIC	??_C@_08ECFEKNKI@?5?A?$LH?5?5?$MA?e?5@		; `string'
PUBLIC	??_C@_08PIEEGEIM@?5?$MA?e?5?5?$LH?N?5@		; `string'
PUBLIC	?familyTownName@@3PAPADA			; familyTownName
PUBLIC	??_C@_0L@HHLJABBI@?$LM?$KE?$LB?b?$LI?$KD?A?$KE?$LP?x@ ; `string'
PUBLIC	??_C@_0N@KAPGNPPN@?$LI?$LG?$LI?$KO?$LD?J?$LN?$LK?A?$KE?$LP?x@ ; `string'
PUBLIC	??_C@_08IDMOOHGA@?$MA?p?$MA?p?A?$KE?$LP?x@	; `string'
PUBLIC	??_C@_0N@NNHNHLEI@?D?$KL?$LH?g?E?$LI?$LD?$KK?A?$KE?$LP?x@ ; `string'
PUBLIC	?pBankProcWnd@@3PAUaction@@A			; pBankProcWnd
PUBLIC	?AuctionItem@@3USTR_BUFFER@@A			; AuctionItem
PUBLIC	?pActAuctionWT@@3PAUaction@@A			; pActAuctionWT
PUBLIC	?logOutFlag@@3HA				; logOutFlag
PUBLIC	?MsgCooltime@@3IA				; MsgCooltime
PUBLIC	?createCharFlag@@3FA				; createCharFlag
PUBLIC	?windowTypeWN@@3HA				; windowTypeWN
PUBLIC	?wnCloseFlag@@3FA				; wnCloseFlag
PUBLIC	?mouseGetName@@3PADA				; mouseGetName
PUBLIC	?contractSign@@3PAUcontractSignTag@@A		; contractSign
PUBLIC	?contractDetail@@3PADA				; contractDetail
PUBLIC	?contractArgnum@@3HA				; contractArgnum
PUBLIC	?contractTime@@3PADA				; contractTime
PUBLIC	?contractSignIndex@@3HA				; contractSignIndex
PUBLIC	?contractSigned@@3HA				; contractSigned
PUBLIC	?linemsgWN@@3PAY0MI@DA				; linemsgWN
PUBLIC	?ranktitle@@3PADA				; ranktitle
PUBLIC	?nGroup@@3HA					; nGroup
PUBLIC	?nServerGroup@@3HA				; nServerGroup
PUBLIC	?szUser@@3PADA					; szUser
PUBLIC	?szPassword@@3PADA				; szPassword
PUBLIC	?szUser_JL@@3PADA				; szUser_JL
PUBLIC	?szPassword_JL@@3PADA				; szPassword_JL
PUBLIC	?szpALD@@3PADA					; szpALD
PUBLIC	?bNewData@@3HA					; bNewData
PUBLIC	?BigpBuffer@@3PADA				; BigpBuffer
PUBLIC	?skillShopWindow4ProcNo@@3FA			; skillShopWindow4ProcNo
PUBLIC	?skillShopWindow1ProcNo@@3FA			; skillShopWindow1ProcNo
PUBLIC	?idKey@@3USTR_BUFFER@@A				; idKey
PUBLIC	?passwd@@3USTR_BUFFER@@A			; passwd
PUBLIC	?idPasswordStr@@3PAUSTR_BUFFER@@A		; idPasswordStr
PUBLIC	?idKeyReturn@@3FA				; idKeyReturn
PUBLIC	??_C@_00CNPNBAHC@@				; `string'
PUBLIC	?ptActSelectServerWin@@3PAUaction@@A		; ptActSelectServerWin
PUBLIC	?selectGraLocate@@3PAY01HA			; selectGraLocate
PUBLIC	?selectGraHitArea@@3PAY03HA			; selectGraHitArea
PUBLIC	?selCharName@@3USTR_BUFFER@@A			; selCharName
PUBLIC	?buttonTypeWN@@3HA				; buttonTypeWN
PUBLIC	?indexWN@@3HA					; indexWN
PUBLIC	?idWN@@3HA					; idWN
PUBLIC	?msgWN@@3PAY0BAA@DA				; msgWN
PUBLIC	?msgWNLen@@3HA					; msgWNLen
PUBLIC	?msgWN_W@@3HA					; msgWN_W
PUBLIC	?msgWN_H@@3HA					; msgWN_H
PUBLIC	?ptActMenuWin@@3PAUaction@@A			; ptActMenuWin
PUBLIC	?selStartLine@@3HA				; selStartLine
PUBLIC	?wnOpenX@@3HA					; wnOpenX
PUBLIC	?wnOpenY@@3HA					; wnOpenY
PUBLIC	?shopWindowMode@@3FA				; shopWindowMode
PUBLIC	?shopWindow1Title@@3PADA			; shopWindow1Title
PUBLIC	?shopWindow1Msg@@3PADA				; shopWindow1Msg
PUBLIC	?menuIndexWN@@3HA				; menuIndexWN
PUBLIC	?shopWindow2Msg@@3PAY0CN@DA			; shopWindow2Msg
PUBLIC	?shopWondow2Page@@3FA				; shopWondow2Page
PUBLIC	?shopWondow2MaxPage@@3FA			; shopWondow2MaxPage
PUBLIC	?sealItem@@3PAUITEM_SHOP@@A			; sealItem
PUBLIC	?selShopItemNo@@3FA				; selShopItemNo
PUBLIC	?shopWindow3Msg@@3PADA				; shopWindow3Msg
PUBLIC	?sealItemCnt@@3FA				; sealItemCnt
PUBLIC	?shopWindow4Msg@@3PAY0CH@DA			; shopWindow4Msg
PUBLIC	?shopWindow5Msg@@3PAY0CH@DA			; shopWindow5Msg
PUBLIC	?shopWindow6Msg@@3PAY0CH@DA			; shopWindow6Msg
PUBLIC	?nowUserItemCnt@@3FA				; nowUserItemCnt
PUBLIC	?shopWindow7Msg@@3PAY0CH@DA			; shopWindow7Msg
PUBLIC	?shopWindow8Msg@@3PAY0CH@DA			; shopWindow8Msg
PUBLIC	?FMmsgWN@@3PAHA					; FMmsgWN
PUBLIC	?FMelderFlag@@3PAHA				; FMelderFlag
PUBLIC	?FMpidWN@@3PAHA					; FMpidWN
PUBLIC	?FMdengonidex@@3HA				; FMdengonidex
PUBLIC	?FMnameWN@@3PAY0BE@DA				; FMnameWN
PUBLIC	?FMHoldTime@@3_JA				; FMHoldTime
PUBLIC	?userItem@@3PAUITEM_SHOP@@A			; userItem
PUBLIC	?buyOffFlag@@3FA				; buyOffFlag
PUBLIC	?sealSkill@@3PAUSKILL_SHOP@@A			; sealSkill
PUBLIC	?skillShopWindowProcNo@@3FA			; skillShopWindowProcNo
PUBLIC	?selShopSkillNo@@3FA				; selShopSkillNo
PUBLIC	?selShopSkillPetNo@@3FA				; selShopSkillPetNo
PUBLIC	?selShopSkillSlotNo@@3FA			; selShopSkillSlotNo
PUBLIC	?restPoolSlot@@3HA				; restPoolSlot
PUBLIC	?poolItem@@3PAUPOOL_SHOP@@A			; poolItem
PUBLIC	?ProfessionShopTitle@@3PADA			; ProfessionShopTitle
PUBLIC	?ProfessionShopMsg@@3PAY0CN@DA			; ProfessionShopMsg
PUBLIC	?LoginAnnounce@@3HA				; LoginAnnounce
PUBLIC	?AnnounceBuf@@3PADA				; AnnounceBuf
PUBLIC	?WinLua@@3PAUlua_State@@A			; WinLua
PUBLIC	?cloasewindows@@3HA				; cloasewindows
PUBLIC	?windows@@3USA_WINDOWS@@A			; windows
_BSS	SEGMENT
?shopWindowProcNo@@3FA DW 01H DUP (?)			; shopWindowProcNo
	ALIGN	4

?PetskillShpwWindowProcNo@@3FA DW 01H DUP (?)		; PetskillShpwWindowProcNo
	ALIGN	4

?AuctionStr@@3USTR_BUFFER@@A DB 0128H DUP (?)		; AuctionStr
?AuctionMoney@@3USTR_BUFFER@@A DB 0128H DUP (?)		; AuctionMoney
?shopWindow1ProcNo@@3FA DW 01H DUP (?)			; shopWindow1ProcNo
	ALIGN	4

?shopWindow2ProcNo@@3FA DW 01H DUP (?)			; shopWindow2ProcNo
	ALIGN	4

?shopWindow3ProcNo@@3FA DW 01H DUP (?)			; shopWindow3ProcNo
	ALIGN	4

?shopWindow4ProcNo@@3FA DW 01H DUP (?)			; shopWindow4ProcNo
	ALIGN	4

?shopWindow5ProcNo@@3FA DW 01H DUP (?)			; shopWindow5ProcNo
	ALIGN	4

?shopWindow6ProcNo@@3FA DW 01H DUP (?)			; shopWindow6ProcNo
	ALIGN	4

?shopWindow7ProcNo@@3FA DW 01H DUP (?)			; shopWindow7ProcNo
	ALIGN	4

?shopWindow8ProcNo@@3FA DW 01H DUP (?)			; shopWindow8ProcNo
	ALIGN	4

?shopWindow10ProcNo@@3FA DW 01H DUP (?)			; shopWindow10ProcNo
	ALIGN	4

?skillShopWindow2ProcNo@@3FA DW 01H DUP (?)		; skillShopWindow2ProcNo
	ALIGN	4

?skillShopWindow3ProcNo@@3FA DW 01H DUP (?)		; skillShopWindow3ProcNo
	ALIGN	4

?poolShopWindow1ProcNo@@3FA DW 01H DUP (?)		; poolShopWindow1ProcNo
	ALIGN	4

?poolShopWindow2ProcNo@@3FA DW 01H DUP (?)		; poolShopWindow2ProcNo
	ALIGN	4

?poolShopWindow3ProcNo@@3FA DW 01H DUP (?)		; poolShopWindow3ProcNo
	ALIGN	4

?poolShopWindow4ProcNo@@3FA DW 01H DUP (?)		; poolShopWindow4ProcNo
	ALIGN	4

?familyNameInput@@3USTR_BUFFER@@A DB 0128H DUP (?)	; familyNameInput
?familyRuleInput@@3USTR_BUFFER@@A DB 0128H DUP (?)	; familyRuleInput
?familyRuleShow@@3USTR_BUFFER@@A DB 0128H DUP (?)	; familyRuleShow
?familyDetail@@3U<unnamed-type-familyDetail>@@A DB 0120H DUP (?) ; familyDetail
?fmDutyproc@@3HA DD 01H DUP (?)				; fmDutyproc
?fmDutyRet@@3HA DD 01H DUP (?)				; fmDutyRet
?fmYesNoproc@@3HA DD 01H DUP (?)			; fmYesNoproc
?fmYesNoRet@@3HA DD 01H DUP (?)				; fmYesNoRet
?lnmake@@3FA DW	01H DUP (?)				; lnmake
	ALIGN	8

?FMPKDataList@@3PAUFMPKData@@A DB 0100H DUP (?)		; FMPKDataList
?serverTime@@3HA DD 01H DUP (?)				; serverTime
?FMPKSelectData@@3PAUFMPKSelect@@A DB 0c0H DUP (?)	; FMPKSelectData
?FMPKSelectNum@@3HA DD 01H DUP (?)			; FMPKSelectNum
?FMPKDetailData@@3UFMPKDetail@@A DB 034H DUP (?)	; FMPKDetailData
?familyTax@@3HA DD 01H DUP (?)				; familyTax
?familyTaxChange@@3HA DD 01H DUP (?)			; familyTaxChange
?haveGold@@3HA DD 01H DUP (?)				; haveGold
?rideablePet@@3PAHA DD 03H DUP (?)			; rideablePet
?showNum@@3HA DD 01H DUP (?)				; showNum
?memberName@@3PAY0CE@DA DB 0e10H DUP (?)		; memberName
?memberIndex@@3PAHA DD 064H DUP (?)			; memberIndex
?memberNum@@3HA DD 01H DUP (?)				; memberNum
?changeWho@@3HA DD 01H DUP (?)				; changeWho
?oldLeaderName@@3PADA DB 024H DUP (?)			; oldLeaderName
?oldLeaderIndex@@3HA DD 01H DUP (?)			; oldLeaderIndex
?mineFamily@@3U<unnamed-type-mineFamily>@@A DB 0208H DUP (?) ; mineFamily
?pBankProcWnd@@3PAUaction@@A DD 01H DUP (?)		; pBankProcWnd
?AuctionItem@@3USTR_BUFFER@@A DB 0128H DUP (?)		; AuctionItem
?pActAuctionWT@@3PAUaction@@A DD 01H DUP (?)		; pActAuctionWT
?logOutFlag@@3HA DD 01H DUP (?)				; logOutFlag
?MsgCooltime@@3IA DD 01H DUP (?)			; MsgCooltime
?createCharFlag@@3FA DW 01H DUP (?)			; createCharFlag
	ALIGN	4

?wnCloseFlag@@3FA DW 01H DUP (?)			; wnCloseFlag
	ALIGN	4

?mouseGetName@@3PADA DB 014H DUP (?)			; mouseGetName
?contractSign@@3PAUcontractSignTag@@A DB 0110H DUP (?)	; contractSign
?contractDetail@@3PADA DB 0800H DUP (?)			; contractDetail
?contractArgnum@@3HA DD 01H DUP (?)			; contractArgnum
?contractTime@@3PADA DB 0200H DUP (?)			; contractTime
?contractSignIndex@@3HA DD 01H DUP (?)			; contractSignIndex
?contractSigned@@3HA DD 01H DUP (?)			; contractSigned
?linemsgWN@@3PAY0MI@DA DB 07d0H DUP (?)			; linemsgWN
?ranktitle@@3PADA DB 03cH DUP (?)			; ranktitle
?nGroup@@3HA DD	01H DUP (?)				; nGroup
?nServerGroup@@3HA DD 01H DUP (?)			; nServerGroup
?szUser@@3PADA DB 020H DUP (?)				; szUser
?szPassword@@3PADA DB 020H DUP (?)			; szPassword
?szUser_JL@@3PADA DB 020H DUP (?)			; szUser_JL
?szPassword_JL@@3PADA DB 020H DUP (?)			; szPassword_JL
?szpALD@@3PADA DD 01H DUP (?)				; szpALD
?bNewData@@3HA DD 01H DUP (?)				; bNewData
?BigpBuffer@@3PADA DB 0800H DUP (?)			; BigpBuffer
?skillShopWindow4ProcNo@@3FA DW 01H DUP (?)		; skillShopWindow4ProcNo
	ALIGN	4

?skillShopWindow1ProcNo@@3FA DW 01H DUP (?)		; skillShopWindow1ProcNo
	ALIGN	4

?idKey@@3USTR_BUFFER@@A DB 0128H DUP (?)		; idKey
?passwd@@3USTR_BUFFER@@A DB 0128H DUP (?)		; passwd
?idKeyReturn@@3FA DW 01H DUP (?)			; idKeyReturn
	ALIGN	4

?ptActSelectServerWin@@3PAUaction@@A DD 01H DUP (?)	; ptActSelectServerWin
?selCharName@@3USTR_BUFFER@@A DB 0128H DUP (?)		; selCharName
?buttonTypeWN@@3HA DD 01H DUP (?)			; buttonTypeWN
?indexWN@@3HA DD 01H DUP (?)				; indexWN
?idWN@@3HA DD	01H DUP (?)				; idWN
?msgWN@@3PAY0BAA@DA DB 01900H DUP (?)			; msgWN
?msgWNLen@@3HA DD 01H DUP (?)				; msgWNLen
?msgWN_W@@3HA DD 01H DUP (?)				; msgWN_W
?msgWN_H@@3HA DD 01H DUP (?)				; msgWN_H
?ptActMenuWin@@3PAUaction@@A DD 01H DUP (?)		; ptActMenuWin
?selStartLine@@3HA DD 01H DUP (?)			; selStartLine
?wnOpenX@@3HA DD 01H DUP (?)				; wnOpenX
?wnOpenY@@3HA DD 01H DUP (?)				; wnOpenY
?shopWindowMode@@3FA DW 01H DUP (?)			; shopWindowMode
	ALIGN	4

?shopWindow1Title@@3PADA DB 01bH DUP (?)		; shopWindow1Title
	ALIGN	4

?shopWindow1Msg@@3PADA DB 01bH DUP (?)			; shopWindow1Msg
	ALIGN	4

?menuIndexWN@@3HA DD 01H DUP (?)			; menuIndexWN
?shopWindow2Msg@@3PAY0CN@DA DB 05aH DUP (?)		; shopWindow2Msg
	ALIGN	4

?shopWondow2Page@@3FA DW 01H DUP (?)			; shopWondow2Page
	ALIGN	4

?shopWondow2MaxPage@@3FA DW 01H DUP (?)			; shopWondow2MaxPage
	ALIGN	4

?sealItem@@3PAUITEM_SHOP@@A DB 01180H DUP (?)		; sealItem
?selShopItemNo@@3FA DW 01H DUP (?)			; selShopItemNo
	ALIGN	4

?shopWindow3Msg@@3PADA DB 029H DUP (?)			; shopWindow3Msg
	ALIGN	4

?sealItemCnt@@3FA DW 01H DUP (?)			; sealItemCnt
	ALIGN	4

?shopWindow4Msg@@3PAY0CH@DA DB 04eH DUP (?)		; shopWindow4Msg
	ALIGN	4

?shopWindow5Msg@@3PAY0CH@DA DB 04eH DUP (?)		; shopWindow5Msg
	ALIGN	4

?shopWindow6Msg@@3PAY0CH@DA DB 04eH DUP (?)		; shopWindow6Msg
	ALIGN	4

?nowUserItemCnt@@3FA DW 01H DUP (?)			; nowUserItemCnt
	ALIGN	4

?shopWindow7Msg@@3PAY0CH@DA DB 04eH DUP (?)		; shopWindow7Msg
	ALIGN	4

?shopWindow8Msg@@3PAY0CH@DA DB 04eH DUP (?)		; shopWindow8Msg
	ALIGN	4

?FMmsgWN@@3PAHA DD 010H DUP (?)				; FMmsgWN
?FMelderFlag@@3PAHA DD 010H DUP (?)			; FMelderFlag
?FMpidWN@@3PAHA DD 010H DUP (?)				; FMpidWN
?FMdengonidex@@3HA DD 01H DUP (?)			; FMdengonidex
?FMnameWN@@3PAY0BE@DA DB 0dcH DUP (?)			; FMnameWN
?FMHoldTime@@3_JA DQ 01H DUP (?)			; FMHoldTime
?userItem@@3PAUITEM_SHOP@@A DB 01180H DUP (?)		; userItem
?buyOffFlag@@3FA DW 01H DUP (?)				; buyOffFlag
	ALIGN	4

?sealSkill@@3PAUSKILL_SHOP@@A DB 02300H DUP (?)		; sealSkill
?skillShopWindowProcNo@@3FA DW 01H DUP (?)		; skillShopWindowProcNo
	ALIGN	4

?selShopSkillNo@@3FA DW 01H DUP (?)			; selShopSkillNo
	ALIGN	4

?selShopSkillPetNo@@3FA DW 01H DUP (?)			; selShopSkillPetNo
	ALIGN	4

?selShopSkillSlotNo@@3FA DW 01H DUP (?)			; selShopSkillSlotNo
	ALIGN	4

?restPoolSlot@@3HA DD 01H DUP (?)			; restPoolSlot
?poolItem@@3PAUPOOL_SHOP@@A DB 03740H DUP (?)		; poolItem
?ProfessionShopTitle@@3PADA DB 01bH DUP (?)		; ProfessionShopTitle
	ALIGN	4

?ProfessionShopMsg@@3PAY0CN@DA DB 05aH DUP (?)		; ProfessionShopMsg
	ALIGN	4

?LoginAnnounce@@3HA DD 01H DUP (?)			; LoginAnnounce
?AnnounceBuf@@3PADA DB 02000H DUP (?)			; AnnounceBuf
?WinLua@@3PAUlua_State@@A DD 01H DUP (?)		; WinLua
?cloasewindows@@3HA DD 01H DUP (?)			; cloasewindows
?windows@@3USA_WINDOWS@@A DB 06594H DUP (?)		; windows
_BSS	ENDS
;	COMDAT ??_C@_00CNPNBAHC@@
CONST	SEGMENT
??_C@_00CNPNBAHC@@ DB 00H				; `string'
CONST	ENDS
;	COMDAT ??_C@_0N@NNHNHLEI@?D?$KL?$LH?g?E?$LI?$LD?$KK?A?$KE?$LP?x@
CONST	SEGMENT
??_C@_0N@NNHNHLEI@?D?$KL?$LH?g?E?$LI?$LD?$KK?A?$KE?$LP?x@ DB 0c4H, 0abH, 0b7H
	DB	0e7H, 0c5H, 0b8H, 0b3H, 0aaH, 0c1H, 0a4H, 0bfH, 0f8H, 00H ; `string'
CONST	ENDS
;	COMDAT ??_C@_08IDMOOHGA@?$MA?p?$MA?p?A?$KE?$LP?x@
CONST	SEGMENT
??_C@_08IDMOOHGA@?$MA?p?$MA?p?A?$KE?$LP?x@ DB 0c0H, 0f0H, 0c0H, 0f0H, 0c1H
	DB	0a4H, 0bfH, 0f8H, 00H			; `string'
CONST	ENDS
;	COMDAT ??_C@_0N@KAPGNPPN@?$LI?$LG?$LI?$KO?$LD?J?$LN?$LK?A?$KE?$LP?x@
CONST	SEGMENT
??_C@_0N@KAPGNPPN@?$LI?$LG?$LI?$KO?$LD?J?$LN?$LK?A?$KE?$LP?x@ DB 0b8H, 0b6H
	DB	0b8H, 0aeH, 0b3H, 0caH, 0bdH, 0baH, 0c1H, 0a4H, 0bfH, 0f8H, 00H ; `string'
CONST	ENDS
;	COMDAT ??_C@_0L@HHLJABBI@?$LM?$KE?$LB?b?$LI?$KD?A?$KE?$LP?x@
CONST	SEGMENT
??_C@_0L@HHLJABBI@?$LM?$KE?$LB?b?$LI?$KD?A?$KE?$LP?x@ DB 0bcH, 0a4H, 0b1H
	DB	0e2H, 0b8H, 0a3H, 0c1H, 0a4H, 0bfH, 0f8H, 00H ; `string'
CONST	ENDS
;	COMDAT ??_C@_08PIEEGEIM@?5?$MA?e?5?5?$LH?N?5@
CONST	SEGMENT
??_C@_08PIEEGEIM@?5?$MA?e?5?5?$LH?N?5@ DB ' ', 0c0H, 0e5H, '  ', 0b7H, 0ceH
	DB	' ', 00H					; `string'
CONST	ENDS
;	COMDAT ??_C@_08ECFEKNKI@?5?A?$LH?5?5?$MA?e?5@
CONST	SEGMENT
??_C@_08ECFEKNKI@?5?A?$LH?5?5?$MA?e?5@ DB ' ', 0c1H, 0b7H, '  ', 0c0H, 0e5H
	DB	' ', 00H					; `string'
CONST	ENDS
;	COMDAT ??_C@_08GOJGDLLD@?$MA?S?$LN?C?$LA?$KB?$MA?T@
CONST	SEGMENT
??_C@_08GOJGDLLD@?$MA?S?$LN?C?$LA?$KB?$MA?T@ DB 0c0H, 0d3H, 0bdH, 0c3H, 0b0H
	DB	0a1H, 0c0H, 0d4H, 00H			; `string'
CONST	ENDS
;	COMDAT ??_C@_0L@MFGFKAEI@?5?$LK?N?5?A?$LH?5?$LP?x?5@
CONST	SEGMENT
??_C@_0L@MFGFKAEI@?5?$LK?N?5?A?$LH?5?$LP?x?5@ DB ' ', 0baH, 0ceH, ' ', 0c1H
	DB	0b7H, ' ', 0bfH, 0f8H, ' ', 00H		; `string'
CONST	ENDS
;	COMDAT ??_C@_0L@GHPFLEHL@?$LJ?L?$LA?$KB?$MA?T?$LA?$KB?A?$LH@
CONST	SEGMENT
??_C@_0L@GHPFLEHL@?$LJ?L?$LA?$KB?$MA?T?$LA?$KB?A?$LH@ DB 0b9H, 0ccH, 0b0H
	DB	0a1H, 0c0H, 0d4H, 0b0H, 0a1H, 0c1H, 0b7H, 00H ; `string'
CONST	ENDS
_DATA	SEGMENT
?familyElf@@3HA DD 02H					; familyElf
?ýÅíñËÀÌ«@@3HA DD 02710H				; ýÅíñËÀÌ«
?winStr@@3PAY0BA@DA DB 0c0H, 0fcH, 0c5H, 0f5H, ' ', 0bbH, 0fdH, 0c1H, 0b8H
	DB	00H						; winStr
	ORG $+6
	DB	0c0H, 0fcH, 0c3H, 0bcH, ' ', 0c0H, 0fcH, 0c5H, 0f5H, 00H
	ORG $+6
?familyJobName@@3PAPADA DD FLAT:??_C@_0L@GHPFLEHL@?$LJ?L?$LA?$KB?$MA?T?$LA?$KB?A?$LH@ ; familyJobName
	DD	FLAT:??_C@_0L@MFGFKAEI@?5?$LK?N?5?A?$LH?5?$LP?x?5@
	DD	FLAT:??_C@_08GOJGDLLD@?$MA?S?$LN?C?$LA?$KB?$MA?T@
	DD	FLAT:??_C@_08ECFEKNKI@?5?A?$LH?5?5?$MA?e?5@
	DD	FLAT:??_C@_08PIEEGEIM@?5?$MA?e?5?5?$LH?N?5@
?familyTownName@@3PAPADA DD FLAT:??_C@_00CNPNBAHC@@	; familyTownName
	DD	FLAT:??_C@_0L@HHLJABBI@?$LM?$KE?$LB?b?$LI?$KD?A?$KE?$LP?x@
	DD	FLAT:??_C@_0N@KAPGNPPN@?$LI?$LG?$LI?$KO?$LD?J?$LN?$LK?A?$KE?$LP?x@
	DD	FLAT:??_C@_08IDMOOHGA@?$MA?p?$MA?p?A?$KE?$LP?x@
	DD	FLAT:??_C@_0N@NNHNHLEI@?D?$KL?$LH?g?E?$LI?$LD?$KK?A?$KE?$LP?x@
?windowTypeWN@@3HA DD 0ffffffffH			; windowTypeWN
?idPasswordStr@@3PAUSTR_BUFFER@@A DD FLAT:?idKey@@3USTR_BUFFER@@A ; idPasswordStr
?selectGraLocate@@3PAY01HA DD 0c6H			; selectGraLocate
	DD	012dH
	DD	071H
	DD	0102H
	DD	0f8H
	DD	018cH
	DD	082H
	DD	0172H
	DD	089H
	DD	0a0H
	DD	0157H
	DD	017bH
	DD	01dfH
	DD	0173H
	DD	01a4H
	DD	0136H
	DD	0178H
	DD	0e7H
	DD	0129H
	DD	0c6H
	DD	017dH
	DD	092H
	DD	0f2H
	DD	074H
?selectGraHitArea@@3PAY03HA DD 0ffffffe0H		; selectGraHitArea
	DD	0ffffffc8H
	DD	03fH
	DD	041H
	DD	0ffffffebH
	DD	0ffffffb8H
	DD	02aH
	DD	058H
	DD	0ffffffedH
	DD	0ffffffb2H
	DD	026H
	DD	05eH
	DD	0ffffffecH
	DD	0ffffffbdH
	DD	029H
	DD	050H
	DD	0ffffffe2H
	DD	0ffffffb0H
	DD	03cH
	DD	064H
	DD	0ffffffdcH
	DD	0ffffffacH
	DD	048H
	DD	064H
	DD	0ffffffe2H
	DD	0ffffffcdH
	DD	03bH
	DD	040H
	DD	0ffffffedH
	DD	0ffffffb3H
	DD	028H
	DD	058H
	DD	0ffffffeeH
	DD	0ffffffb8H
	DD	022H
	DD	053H
	DD	0ffffffeaH
	DD	0ffffffb8H
	DD	02bH
	DD	059H
	DD	0ffffffeeH
	DD	0ffffffb2H
	DD	023H
	DD	05aH
	DD	0ffffffecH
	DD	0ffffffb4H
	DD	028H
	DD	05aH
_DATA	ENDS
PUBLIC	___local_stdio_printf_options
PUBLIC	___local_stdio_scanf_options
PUBLIC	_sprintf
PUBLIC	_sscanf
PUBLIC	?idPasswordProc@@YAXXZ				; idPasswordProc
PUBLIC	?titleProc@@YAXXZ				; titleProc
PUBLIC	?selectCharacterProc@@YAXXZ			; selectCharacterProc
PUBLIC	?characterLoginProc@@YAXXZ			; characterLoginProc
PUBLIC	?makeCharacterProc@@YAXXZ			; makeCharacterProc
PUBLIC	?characterLogoutProc@@YAXXZ			; characterLogoutProc
PUBLIC	?initOpenServerWindow@@YAXXZ			; initOpenServerWindow
PUBLIC	?openServerWindow@@YAXHHHHPAD@Z			; openServerWindow
PUBLIC	?openServerWindowProc@@YAXXZ			; openServerWindowProc
PUBLIC	?selGraId@@YAHPAHH@Z				; selGraId
PUBLIC	?selRepGraId@@YAHPAHH@Z				; selRepGraId
PUBLIC	?pushGraId@@YAHPAHH@Z				; pushGraId
PUBLIC	?selFontId@@YAHPAHH@Z				; selFontId
PUBLIC	?focusGraId@@YAHPAHH@Z				; focusGraId
PUBLIC	?focusFontId@@YAHPAHH@Z				; focusFontId
PUBLIC	?initInputIdPassword@@YAXXZ			; initInputIdPassword
PUBLIC	?inputIdPassword@@YAHH@Z			; inputIdPassword
PUBLIC	?initCommonMsgWin@@YAXXZ			; initCommonMsgWin
PUBLIC	?commonMsgWin@@YAHPAD@Z				; commonMsgWin
PUBLIC	?initSelectServer@@YAXXZ			; initSelectServer
PUBLIC	?selectGroup@@YAHXZ				; selectGroup
PUBLIC	?selectServer@@YAHXZ				; selectServer
PUBLIC	?initConnecGameServer@@YAXXZ			; initConnecGameServer
PUBLIC	?connecGameServer@@YAHXZ			; connecGameServer
PUBLIC	?initDownloadCharList@@YAXXZ			; initDownloadCharList
PUBLIC	?downloadCharList@@YAHXZ			; downloadCharList
PUBLIC	?initDeleteCharacter@@YAXXZ			; initDeleteCharacter
PUBLIC	?deleteCharacter@@YAHXZ				; deleteCharacter
PUBLIC	?commonYesNoWindow@@YAHHH@Z			; commonYesNoWindow
PUBLIC	?fmYesNoWindow@@YAHHHH@Z			; fmYesNoWindow
PUBLIC	?fmselectdetuyWindow@@YAHHHH@Z			; fmselectdetuyWindow
PUBLIC	?initStrBuffer@@YAXPAUSTR_BUFFER@@HHHHH@Z	; initStrBuffer
PUBLIC	?getStrSplit@@YAXPAD0HHH@Z			; getStrSplit
PUBLIC	?DelCharGraColorWin@@YAHXZ			; DelCharGraColorWin
PUBLIC	?BankProc@@YAXXZ				; BankProc
PUBLIC	?AuctionNewWT@@YAXXZ				; AuctionNewWT
PUBLIC	?AuctionListWT@@YAXXZ				; AuctionListWT
PUBLIC	?AuctionSurveyModifyWT@@YAXXZ			; AuctionSurveyModifyWT
PUBLIC	?AuctionGetString@@YAXHPAU_AUCTION_LIST_DATA@@@Z ; AuctionGetString
PUBLIC	?CheckNumber@@YAXPADH@Z				; CheckNumber
PUBLIC	?CheckSpace@@YAXPAD@Z				; CheckSpace
PUBLIC	?GB2312ToUnicode@@YAPA_WPBD@Z			; GB2312ToUnicode
PUBLIC	?UnicodeToBIG5@@YAPADPB_W@Z			; UnicodeToBIG5
PUBLIC	?GB2312ToBIG5@@YAPADPBD@Z			; GB2312ToBIG5
PUBLIC	?BIG5ToUnicode@@YAPA_WPBD@Z			; BIG5ToUnicode
PUBLIC	?UnicodeToGB2312@@YAPADPB_W@Z			; UnicodeToGB2312
PUBLIC	?BIG5ToGB2312@@YAPADPBD@Z			; BIG5ToGB2312
PUBLIC	??$sprintf_s@$0IA@@@YAHAAY0IA@DPBDZZ		; sprintf_s<128>
PUBLIC	?initMakeCharacter@@YAXXZ			; initMakeCharacter
PUBLIC	?initSelCharGraNo@@YAXXZ			; initSelCharGraNo
PUBLIC	?initSelCharGraNo2@@YAXXZ			; initSelCharGraNo2
PUBLIC	?selCharGraNo@@YAHXZ				; selCharGraNo
PUBLIC	?initSelCharGraColorWin@@YAXXZ			; initSelCharGraColorWin
PUBLIC	?selCharGraColorWin@@YAHXZ			; selCharGraColorWin
PUBLIC	?initEditCharParam@@YAXXZ			; initEditCharParam
PUBLIC	?initEditCharParam2@@YAXXZ			; initEditCharParam2
PUBLIC	?editCharParam@@YAHXZ				; editCharParam
PUBLIC	?initCreateChar@@YAXXZ				; initCreateChar
PUBLIC	?createChar@@YAHXZ				; createChar
PUBLIC	?initSelHomeTown@@YAXXZ				; initSelHomeTown
PUBLIC	?selHomeTown@@YAHXZ				; selHomeTown
PUBLIC	?initCharLogin@@YAXXZ				; initCharLogin
PUBLIC	?charLogin@@YAHXZ				; charLogin
PUBLIC	?initCharLogout@@YAXXZ				; initCharLogout
PUBLIC	?charLogout@@YAHXZ				; charLogout
PUBLIC	?initServerWindowType0@@YAXPAD@Z		; initServerWindowType0
PUBLIC	?initServerWindowType1@@YAXPAD@Z		; initServerWindowType1
PUBLIC	?initServerWindowType2@@YAXPAD@Z		; initServerWindowType2
PUBLIC	?initServerWindowType3@@YAXPAD@Z		; initServerWindowType3
PUBLIC	?initServerWindowType4@@YAXPAD@Z		; initServerWindowType4
PUBLIC	?initServerWindowType5@@YAXPAD@Z		; initServerWindowType5
PUBLIC	?initServerWindowType6@@YAXPAD@Z		; initServerWindowType6
PUBLIC	?initServerWindowType7@@YAXPAD@Z		; initServerWindowType7
PUBLIC	?serverWindowType0@@YAXH@Z			; serverWindowType0
PUBLIC	?serverWindowType1@@YAXXZ			; serverWindowType1
PUBLIC	?serverWindowType2@@YAXXZ			; serverWindowType2
PUBLIC	?serverWindowType3@@YAXXZ			; serverWindowType3
PUBLIC	?serverWindowType4@@YAXXZ			; serverWindowType4
PUBLIC	?serverWindowType5@@YAXXZ			; serverWindowType5
PUBLIC	?serverWindowType6@@YAXXZ			; serverWindowType6
PUBLIC	?serverWindowType7@@YAXXZ			; serverWindowType7
PUBLIC	?serverWindowType9@@YAXXZ			; serverWindowType9
PUBLIC	?serverWindowType10@@YAXXZ			; serverWindowType10
PUBLIC	?serverWindowType11@@YAXXZ			; serverWindowType11
PUBLIC	?serverWindowType12@@YAXXZ			; serverWindowType12
PUBLIC	?initServerWindowProfession@@YAXPAD@Z		; initServerWindowProfession
PUBLIC	?profession_windows@@YAXXZ			; profession_windows
PUBLIC	?profession_windows_1@@YAHXZ			; profession_windows_1
PUBLIC	?profession_windows_2@@YAHXZ			; profession_windows_2
PUBLIC	?initPetSkillWindowType1@@YAXPAD@Z		; initPetSkillWindowType1
PUBLIC	?PetSkillShowType1@@YAXXZ			; PetSkillShowType1
PUBLIC	?initFamilyAddWN@@YAXPAD@Z			; initFamilyAddWN
PUBLIC	?familyAddWN@@YAXXZ				; familyAddWN
PUBLIC	?initFamilyList@@YAXPAD@Z			; initFamilyList
PUBLIC	?familyListWN@@YAXXZ				; familyListWN
PUBLIC	?initFamilyDetail@@YAXPAD@Z			; initFamilyDetail
PUBLIC	?familyDetailWN@@YAHXZ				; familyDetailWN
PUBLIC	?initMineFamilyDetail@@YAXPAD@Z			; initMineFamilyDetail
PUBLIC	?mineFamilyDetailWN@@YAXXZ			; mineFamilyDetailWN
PUBLIC	?initFamilyTaxWN@@YAXPAD@Z			; initFamilyTaxWN
PUBLIC	?familyTaxWN@@YAXXZ				; familyTaxWN
PUBLIC	?initFamilyLeaderChange@@YAXPAD@Z		; initFamilyLeaderChange
PUBLIC	?familyLeaderChangeWN@@YAXXZ			; familyLeaderChangeWN
PUBLIC	?familyLeaderChangeQWN@@YAXXZ			; familyLeaderChangeQWN
PUBLIC	?familyLeaderChangeAWN@@YAXXZ			; familyLeaderChangeAWN
PUBLIC	?initFamilyLeaderChangeA@@YAXPAD@Z		; initFamilyLeaderChangeA
PUBLIC	?initFMWindowType@@YAXPAD@Z			; initFMWindowType
PUBLIC	?FMWindowType@@YAXXZ				; FMWindowType
PUBLIC	?initFMWindowType1@@YAXPAD@Z			; initFMWindowType1
PUBLIC	?FMWindowType1@@YAXXZ				; FMWindowType1
PUBLIC	?initFMWindowType2@@YAXPAD@Z			; initFMWindowType2
PUBLIC	?FMWindowType2@@YAXXZ				; FMWindowType2
PUBLIC	?initFMWindowType3@@YAXPAD@Z			; initFMWindowType3
PUBLIC	?FMWindowType3@@YAXH@Z				; FMWindowType3
PUBLIC	?initFMWindowType4@@YAXPADH@Z			; initFMWindowType4
PUBLIC	?FMWindowType4@@YAXH@Z				; FMWindowType4
PUBLIC	?initFMPKListWN@@YAXPAD@Z			; initFMPKListWN
PUBLIC	?FMPKListWN@@YAXH@Z				; FMPKListWN
PUBLIC	?initFMPKSelectWN@@YAXPAD@Z			; initFMPKSelectWN
PUBLIC	?FMPKSelectWN@@YAXH@Z				; FMPKSelectWN
PUBLIC	?initFMPKDetailWN@@YAXPAD@Z			; initFMPKDetailWN
PUBLIC	?FMPKDetailWN@@YAXH@Z				; FMPKDetailWN
PUBLIC	?initShowRidePetWN@@YAXXZ			; initShowRidePetWN
PUBLIC	?showRidePetWN@@YAXXZ				; showRidePetWN
PUBLIC	?initMouseGetNameWN@@YAXPAD@Z			; initMouseGetNameWN
PUBLIC	?showMouseGetNameWN@@YAXXZ			; showMouseGetNameWN
PUBLIC	?initContractWN@@YAXPAD@Z			; initContractWN
PUBLIC	?showContractWN@@YAXXZ				; showContractWN
PUBLIC	?initRacemanRankWN@@YAXPAD@Z			; initRacemanRankWN
PUBLIC	?showRacemanRankWN@@YAXXZ			; showRacemanRankWN
PUBLIC	?serverWindowDragonFusion@@YAXXZ		; serverWindowDragonFusion
PUBLIC	??$sprintf_s@$0BAA@@@YAHAAY0BAA@DPBDZZ		; sprintf_s<256>
PUBLIC	?initShopWindow1@@YAXXZ				; initShopWindow1
PUBLIC	?shopWindow1@@YAHXZ				; shopWindow1
PUBLIC	?initShopWindow2@@YAXXZ				; initShopWindow2
PUBLIC	?shopWindow2@@YAHXZ				; shopWindow2
PUBLIC	?initShopWindow3@@YAXXZ				; initShopWindow3
PUBLIC	?shopWindow3@@YAHXZ				; shopWindow3
PUBLIC	?initShopWindow4@@YAXXZ				; initShopWindow4
PUBLIC	?shopWindow4@@YAHXZ				; shopWindow4
PUBLIC	?initShopWindow5@@YAXXZ				; initShopWindow5
PUBLIC	?shopWindow5@@YAHXZ				; shopWindow5
PUBLIC	?initShopWindow6@@YAXXZ				; initShopWindow6
PUBLIC	?shopWindow6@@YAHXZ				; shopWindow6
PUBLIC	?initShopWindow7@@YAXXZ				; initShopWindow7
PUBLIC	?shopWindow7@@YAHXZ				; shopWindow7
PUBLIC	?initShopWindow8@@YAXXZ				; initShopWindow8
PUBLIC	?shopWindow8@@YAHXZ				; shopWindow8
PUBLIC	?initShopWindow10@@YAXXZ			; initShopWindow10
PUBLIC	?shopWindow10@@YAHXZ				; shopWindow10
PUBLIC	?initSkillShopWindow1@@YAXXZ			; initSkillShopWindow1
PUBLIC	?skillShopWindow1@@YAHXZ			; skillShopWindow1
PUBLIC	?initSkillShopWindow2@@YAXXZ			; initSkillShopWindow2
PUBLIC	?skillShopWindow2@@YAHXZ			; skillShopWindow2
PUBLIC	?initSkillShopWindow3@@YAXXZ			; initSkillShopWindow3
PUBLIC	?skillShopWindow3@@YAHXZ			; skillShopWindow3
PUBLIC	?initSkillShopWindow4@@YAXXZ			; initSkillShopWindow4
PUBLIC	?skillShopWindow4@@YAHXZ			; skillShopWindow4
PUBLIC	?initPoolShopWindow1@@YAXXZ			; initPoolShopWindow1
PUBLIC	?poolShopWindow1@@YAHXZ				; poolShopWindow1
PUBLIC	?initPoolShopWindow2@@YAXXZ			; initPoolShopWindow2
PUBLIC	?poolShopWindow2@@YAHXZ				; poolShopWindow2
PUBLIC	?initPoolShopWindow3@@YAXXZ			; initPoolShopWindow3
PUBLIC	?poolShopWindow3@@YAHXZ				; poolShopWindow3
PUBLIC	?initPoolShopWindow4@@YAXXZ			; initPoolShopWindow4
PUBLIC	?poolShopWindow4@@YAHXZ				; poolShopWindow4
PUBLIC	?StockDispHLine@@YAXHHH@Z			; StockDispHLine
PUBLIC	?StockDispVLine@@YAXHHH@Z			; StockDispVLine
PUBLIC	?closeFamilyAddWN@@YAXXZ			; closeFamilyAddWN
PUBLIC	?closeFamilyList@@YAXXZ				; closeFamilyList
PUBLIC	?closePKList@@YAXXZ				; closePKList
PUBLIC	?closePKHistoryList@@YAXXZ			; closePKHistoryList
PUBLIC	?initPKList@@YAXPAD@Z				; initPKList
PUBLIC	?initPKHistoryList@@YAXPAD@Z			; initPKHistoryList
PUBLIC	??$sprintf_s@$0EAA@@@YAHAAY0EAA@DPBDZZ		; sprintf_s<1024>
PUBLIC	?closeFamilyTaxWN@@YAXXZ			; closeFamilyTaxWN
PUBLIC	?closeFamilyLeaderChangeWN@@YAXXZ		; closeFamilyLeaderChangeWN
PUBLIC	?closeMineFamilyDetailWN@@YAXXZ			; closeMineFamilyDetailWN
PUBLIC	?checkInBlacklist@@YAHPAD@Z			; checkInBlacklist
PUBLIC	?addBlacklist@@YAXPAD@Z				; addBlacklist
PUBLIC	?removeBlacklist@@YAXPAD@Z			; removeBlacklist
PUBLIC	?cleanBlacklist@@YAXXZ				; cleanBlacklist
PUBLIC	?_OptionsStorage@?1??__local_stdio_printf_options@@9@4_KA ; `__local_stdio_printf_options'::`2'::_OptionsStorage
PUBLIC	?_OptionsStorage@?1??__local_stdio_scanf_options@@9@4_KA ; `__local_stdio_scanf_options'::`2'::_OptionsStorage
PUBLIC	??_C@_0DE@PEDMJHJH@?2VBOXSVR?2_stoneage?2repos?2ssm?9sa@ ; `string'
PUBLIC	??_C@_09BACHGGGK@f?$DLencor1c@			; `string'
PUBLIC	??_C@_0BP@LOHIDJF@?$LA?h?A?$KE?$LA?z?5?$LK?q?$LJ?P?$LJ?x?H?$KD?$LI?$KG?5?$MA?T?$LH?B?G?O?$LM?$LM?$LP?d?$KD?$KB@ ; `string'
PUBLIC	??_C@_06BPGFIOAL@?$CFs?$CI?$CFd?$CJ@		; `string'
PUBLIC	??_C@_0CK@IPKMMLMJ@?$MA?$NP?$LI?x?$LF?H?5?$LA?h?A?$KE?5?$LG?G?$LE?B?5?$LK?q?$LJ?P?$LJ?x?H?$KD?6?$LE?Y?$LN?C?$MA@ ; `string'
PUBLIC	??_C@_04NDEEPOEI@?$KD?O?$KD?K@			; `string'
PUBLIC	??_C@_0BB@NLNMPB@?$KD?S?$KD?t?$KD?o?$KD?n?$KD?e?$KD?A?$KD?g?$KD?e@ ; `string'
PUBLIC	??_C@_05DNIIFBMG@?$CFs?5?$CFs@			; `string'
PUBLIC	??_C@_02DKCKIIND@?$CFs@				; `string'
PUBLIC	??_C@_0O@KDOBPHMN@?$DP?V?X?$DP?Z?$LB?q?W?$DP?$PL?$LP?$KB?$KD@ ; `string'
PUBLIC	??_C@_0CA@KPEEHOGC@?$FL?$CFs?$FN?$MA?L?$LJ?v?$MA?$PM?$MA?$LK?5?$LL?g?$LP?k?G?R?$LM?v?$LO?x?$LN?$MA?$LE?O?$LE?Y?$KD?$KB@ ; `string'
PUBLIC	??_C@_0M@BKDGIFED@Oct?5?54?52021@		; `string'
PUBLIC	??_C@_08JIAEEDMM@?$CFs?5?$CFd?5?$CFd@		; `string'
PUBLIC	??_C@_0BG@MJOFMAKM@?$FLVer?$KD?$LK?$CF04d?4?$CF02d?4?$CF02d?$FN@ ; `string'
PUBLIC	??_C@_0L@BGALCGMK@?$CFs?5?$CFs?5?$FL?$CFs?$FN@	; `string'
PUBLIC	??_C@_0N@DFLJEJED@?5?5?$LF?$LJ?$LO?F?$LA?$KB?$LB?b?5?5@ ; `string'
PUBLIC	??_C@_0BF@LJIGADOK@?$FL?$CFs?$FN?$LP?$KB?5?A?$KC?$LM?S?A?$NP?$MA?T?$LE?O?$LE?Y?4@ ; `string'
PUBLIC	??_C@_0P@FLGFPKOG@CHAOS?5STONEAGE@		; `string'
PUBLIC	??_C@_0BG@CKDNBLG@?$FL?$CFs?$FN?$LP?$KB?5?A?$KC?$LM?S?5?A?$NP?$MA?T?$LE?O?$LE?Y?4@ ; `string'
PUBLIC	??_C@_0BB@DFFIFBLJ@WGS?$LP?M?5?$LP?$KM?$LA?a?$LN?G?F?P?$KD?$KB@ ; `string'
PUBLIC	??_C@_0CN@CDKJOFHB@?$LD?W?F?$KO?$LP?v?E?$KJ?5?$LL?g?$LP?k?$LH?$KO?$MA?L?$LI?$LJ?$LN?$MA?$LE?O?$LE?Y?$KD?$KM?$LD?$KK?A?$NP@ ; `string'
PUBLIC	??_C@_0DM@MKPKCFOC@?$LA?h?A?$KE?5?$LG?G?$LE?B?5?$LK?q?$LJ?P?$LJ?x?H?$KD?5?$MA?$NP?$LI?x?$MA?T?$LH?B?$KD?$KM?$LK?q@ ; `string'
PUBLIC	??_C@_0EG@HMOFLOCG@GS?5?$LA?T?$MA?S?5?F?w?$MA?N?F?$KO?5?$LL?g?$LP?k?$LP?O?$LH?a?0?5?H?$KN?$MA?L?$LA?T@ ; `string'
PUBLIC	??_C@_0EM@MKKKOLIM@WGS?5?$LA?T?$MA?S?5?F?w?$MA?N?F?$KO?5?$LL?g?$LP?k?$LP?O?$LH?a?5WGS?5?F?w@ ; `string'
PUBLIC	??_C@_0ED@GFEEMBM@?$LK?q?$LJ?P?5?$LJ?x?H?$KD?$LI?$KG?5?$MA?T?$LH?B?G?O?$LA?E?$LD?$KK?5?$MA?$NP?$LI?x?$LF?H?5?$LA@ ; `string'
PUBLIC	??_C@_0CC@CAOCGFP@?s?$KO?$DP?y?$KB?$DP?Z?$LB?q?$LM?$DP?$KD?$KM?$DP?$OA?$LL?S?p?$DP?$DP?j?$PN?$DP?$DP?h?G?$OA?w?q?$LM?$DP@ ; `string'
PUBLIC	??_C@_0BG@FCCDGFEH@?$DP?y?$KB?q?$LM?$DP?$NO?E?i?D?s?$KN?$DP?l?$KL?i?D?h?G?$KD?$KB@ ; `string'
PUBLIC	??_C@_0CH@OACDIMFL@?$LF?$KF?$MA?L?E?M?$MA?z?$MA?e?$LM?R?$LA?$KB?$LL?g?$LP?k?A?$NP?$KD?$KM?$LD?$KK?A?$NP?$LP?$KB?$LE?Y?$LN@ ; `string'
PUBLIC	??_C@_0L@CKPMJLEL@?$MA?N?A?u?$LN?G?F?P?$KD?$KB@	; `string'
PUBLIC	??_C@_0BD@EJCLNBGJ@?$MA?L?5?$LM?$KN?$LJ?v?$LE?B?5?$LM?v?$LI?$KO?A?$NP?$KB?$KD@ ; `string'
PUBLIC	??_C@_0DE@DJLFGHLF@?$LE?Y?$LI?$KF?$LD?$LL?$LP?k?$MA?$LL?5?C?$LD?$LI?$KO?A?$NP?$MA?T?$LE?O?$LE?Y?5?$MA?a?$LN?C?H?D?5@ ; `string'
PUBLIC	??_C@_0EO@GDIJOFL@?$MA?L?5?A?$KG?G?$LA?$MA?$LK?5?$LO?F?A?w?5?$LF?n?$LH?O?$LF?G?A?v?5?$LO?J?$LO?R?$LA?E?$LD@ ; `string'
PUBLIC	??_C@_0CM@LDMHIANO@101?5?$LF?$KF?$MA?L?E?M?$LK?$KD?$MA?L?$LN?$LK?5?$LM?$KN?$LJ?v?$LP?$KB?5?$LP?$KM?$LA?a?G?R?$LM@ ; `string'
PUBLIC	??_C@_0CG@PNGEGPHE@102?5?$LP?C?$LJ?Y?$LI?$KF?5?A?$KE?$LK?$LI?$LI?$KG?5?$LA?$KB?A?$KO?$LP?C?$LM?v?5?$LO?x?$LN?$MA@ ; `string'
PUBLIC	??_C@_0BH@BELNNDBH@103?5?$LP?$KM?$LA?a?G?R?$LM?v?$LO?x?$LN?$MA?$LE?O?$LE?Y?$KB?$KD@ ; `string'
PUBLIC	??_C@_0DF@ONGBOPMG@201?5?$LO?F?$MA?L?$LF?p?5?F?P?$LN?$LK?$LP?v?$LF?e?$LA?$KB?5?F?$LC?$LH?H?$LA?E?$LD?$KK?5@ ; `string'
PUBLIC	??_C@_0BO@FGBMDDDO@202?5?A?$NP?$LK?$LJ?$LH?N?$LB?W?$MA?N?5?$LK?R?$LA?$KB?$LE?I?G?U?$LE?O?$LE?Y?$KB?$KD@ ; `string'
PUBLIC	??_C@_0DP@GGBCENFH@203?5?$MA?L?$LJ?L?5?$LH?N?$LB?W?$MA?N?A?$NP?$MA?T?$LE?O?$LE?Y?4?5?$LA?h?A?$KE?$MA?L@ ; `string'
PUBLIC	??_C@_0CB@OJHBPHKJ@204?5?$LL?g?$LP?k?$MA?Z?$LA?$KB?5?$MA?L?$LJ?L?5?$LA?T?$MA?S?A?$NP?$MA?T?$LE?O?$LE?Y?$KB@ ; `string'
PUBLIC	??_C@_0DG@JNDCNPGC@205?5?$MA?L?5?$LA?T?$MA?S?$LP?$KB?5?$LH?N?$LB?W?$MA?N?G?O?A?v?5?$LI?x?G?$NP?$LA?E@ ; `string'
PUBLIC	??_C@_0DM@MBGFAAKE@301?5?$LF?n?$LH?O?$LF?G?A?v?$LO?J?$LE?B?5?$LA?h?A?$KE?$MA?T?$LE?O?$LE?Y?5?$LF?n?$LH@ ; `string'
PUBLIC	??_C@_0DO@PIHOLGOA@302?5?$DP?n?$NM?$DP?y?$KB?$NP?m?$DP?$DP?Z?$LB?$DP?$DP?$KD?$KM?$DP?$OA?$LL?$DP?$DP?$DP?n?$NM?$DP?m?$KN@ ; `string'
PUBLIC	??_C@_0BK@IAPLJHAN@303?5?$DP?y?$KB?q?$LM?$DP?$NO?E?i?D?s?$KN?$DP?l?$KL?i?D?h?G?$KB?$KD@ ; `string'
PUBLIC	??_C@_0BP@IOOEJBCN@304?5?$LA?T?$MA?S?$LH?$KJ?E?$LH?$MA?$LL?$LO?r?$MA?$LL?$LM?v?$LO?x?$LN?$MA?$LE?O?$LE?Y?$KB?$KD@ ; `string'
PUBLIC	??_C@_0CI@CNJAOKCA@401?5?$DP?Z?$LB?q?$LM?$DPWGS?o?C?$DP?$DP?$KD?$KM?$DP?$OA?$LL?S?p?$DP?$DP?j?$PN?$DP?$DP?h@ ; `string'
PUBLIC	??_C@_0CF@PPIDBOKB@402?5WGS?o?C?$DP?$DP?l?$KL?i?D?h?G?o?C?$DP?$KD?$KM?$DP?S?p?$DP?$DP?j?$PN?$DP?$DP@ ; `string'
PUBLIC	??_C@_0BM@LPFLMHNK@?D?$LD?$LI?$KP?E?M?5?$LL?h?A?$KG?$LK?R?$LA?$KB?$KD?$KM?$LE?Y?$LN?C?$LN?C?$LF?$LF?$KD?$KB@ ; `string'
PUBLIC	??_C@_03GOOLIKIF@?$CF3d@			; `string'
PUBLIC	??_C@_03GCLOGFGE@?$CF8d@			; `string'
PUBLIC	??_C@_03GLKEJMAA@?$CF4d@			; `string'
PUBLIC	??_C@_0BB@IFBIBFPD@?D?$LD?$LI?$KP?$LI?q?$LH?O?$LA?$KB?A?$KO?$LP?$MA?$LB?b@ ; `string'
PUBLIC	??_C@_0BB@JNLGIAPP@?D?$LD?$LI?$KP?E?M?$LL?$PN?$LM?$LK?$LN?G?F?P?$KB?$KD@ ; `string'
PUBLIC	??_C@_0BI@KIAMPJKG@?$MA?L?$MA?$PM?H?$KN?$LI?i?$MA?$LI?$LH?N?5?$LF?$LJ?$LO?F?$LA?$KB?$LB?b?$KB?$KD@ ; `string'
PUBLIC	??_C@_0BG@OIHOGAMJ@?D?$LD?$LI?$KP?E?M?$LI?$KG?5?$LM?$LB?E?C?G?O?$LM?$LM?$LP?d?$KB?$KD@ ; `string'
PUBLIC	??_C@_0L@POIBACII@?5?5?5?$LA?a?A?$KE?5?5?5@	; `string'
PUBLIC	??_C@_0L@DDKLBPNB@?5?$LL?v?$LL?s?$LK?$KP?$LA?f?5@ ; `string'
PUBLIC	??_C@_0L@KFACDLLI@?5?$LJ?f?G?b?$MA?$PM?H?$KP?5@	; `string'
PUBLIC	??_C@_0L@LJAAMAMF@?5?5?5?C?k?$LM?R?5?5?5@	; `string'
PUBLIC	??_C@_0CC@NKOCBMEN@?G?v?$MA?g?5?$LM?$LB?E?C?G?Q?5?D?$LD?$LI?$KP?E?M?$LH?N?5?$LA?a?A?$KE?G?U?$LE?O?$LE?Y@ ; `string'
PUBLIC	??_C@_0BD@GLGANICJ@?D?$LD?$LI?$KP?E?M?5?$LL?v?$LL?s?5?$LK?$KP?$LA?f?$KB?$KD@ ; `string'
PUBLIC	??_C@_0BB@IBMPLOHE@?D?$LD?$LI?$KP?E?M?$LJ?f?G?b?$MA?$PM?H?$KP?$KB?$KD@ ; `string'
PUBLIC	??_C@_0BN@JACDIIAG@?D?$LD?$LI?$KP?E?M?$LM?$LB?E?C?H?$KN?$LI?i?$MA?$LI?$LH?N?$LF?$LJ?$LO?F?$LA?$KB?$LB?b?$KB?$KD@ ; `string'
PUBLIC	??_C@_01CLKCMJKC@?5@				; `string'
PUBLIC	??_C@_02KNHHEEKP@?5?5@				; `string'
PUBLIC	??_C@_0BN@MICBHKJB@?$MA?L?$LI?$KH?$MA?$LL?5?$MA?T?$LH?B?G?O?A?v?5?$LO?J?$LO?R?$LN?$MA?$LE?O?$LE?Y?$KD?$KB@ ; `string'
PUBLIC	??_C@_0CH@NAEAKGPD@?$LA?$LA?$MA?$LK?5?$MA?L?$LI?$KH?$MA?G?5?D?$LD?$LI?$KP?E?M?$LA?$KB?5?$MA?L?$LJ?L?5?A?$LI?$MA?g?G@ ; `string'
PUBLIC	??_C@_0CA@HJHEICBF@?$LL?s?E?B?5?F?w?$MA?N?F?$KO?$LI?$KG?5?$LK?P?$LJ?h?5?$LP?O?$LH?a?G?O?$LM?$LM?$LP?d?$KD?$KB@ ; `string'
PUBLIC	??_C@_0CE@IAICGILF@?$LM?S?$LM?$LK?D?$KB?$CI?1?F?w?$MA?N?F?$KO?$CJ?$LI?$KG?5?$LK?P?$LJ?h?5?$LP?O?$LH?a?G?O?$LM?$LM@ ; `string'
PUBLIC	??_C@_0BO@DBBPEHG@?$MA?L?$LI?$KH?$LP?$KB?5?$LA?x?$LJ?i?$MA?$LL?5?$LF?Q?$LM?v?5?$LO?x?$LN?$MA?$LE?O?$LE?Y?$KD?$KB@ ; `string'
PUBLIC	??_C@_0DJ@CMGKIMKM@?$MA?T?$LH?B?G?Q?5?$MA?L?$LI?$KH?$LP?$KB?$LE?B?5?G?c?$LP?k?$LF?G?A?v?5?$LO?J?$LE?B?5?$LJ@ ; `string'
PUBLIC	??_C@_0BL@DBMJLOIN@?D?$LD?$LI?$KP?E?M?5?$LM?$LD?A?$KE?$MA?$LL?5?$LA?a?A?$KE?G?U?$LE?O?$LE?Y?$KB?$KD@ ; `string'
PUBLIC	??_C@_0CK@EACHLIEL@?$MA?L?5?G?W?$LI?q?$MA?$LK?5?A?V?$LH?N?5?$LD?$LL?$LB?$LI?$LH?B?$LA?z?5?$LA?$PM?$LH?C?$MA?L?5@ ; `string'
PUBLIC	??_C@_0CJ@DBPCCGK@?$MA?L?G?W?$LI?q?$MA?$LK?5?A?V?$LH?N?5?$LA?x?$LA?$NN?$LH?B?$LA?z?5?$LA?$PM?$LH?C?$MA?L?5?$MA@ ; `string'
PUBLIC	??_C@_0CJ@PBMHJDKK@?$MA?L?G?W?$LI?q?$MA?$LK?5?A?V?$LH?N?5?$LJ?f?$LO?n?$LH?B?$LA?z?5?$LA?$PM?$LH?C?$MA?L?5?$MA@ ; `string'
PUBLIC	??_C@_0DA@OOLAIOAA@?$MA?L?G?W?$LI?q?$MA?$LK?5?A?V?$LH?N?5?$LM?x?$LJ?$NP?$LH?B?$LA?z?5?$LA?$PM?$LH?C?$MA?L?5?$LA@ ; `string'
PUBLIC	??_C@_0DC@DFHCGCAL@?A?v?$LM?S?$LM?$LK?$KB?$KD?$LM?v?$LM?S?$LM?$LK?$MA?G?5?$LL?s?$LE?k?$LP?M?5?$LN?N?$LP?o?5?$LG?$KH@ ; `string'
PUBLIC	??_C@_0DC@EIPOCBIG@?$LM?v?$LM?S?$LM?$LK?$KB?$KD?H?$KN?$LM?S?$LM?$LK?$MA?G?5?$LL?s?$LE?k?$LP?M?5?$LN?N?$LP?o?5?$LG?$KH@ ; `string'
PUBLIC	??_C@_0DC@DBHNIFJM@?H?$KN?$LM?S?$LM?$LK?$KB?$KD?G?$LD?$LM?S?$LM?$LK?$MA?G?5?$LL?s?$LE?k?$LP?M?5?$LN?N?$LP?o?5?$LG?$KH@ ; `string'
PUBLIC	??_C@_0DC@HDKFGPCM@?G?$LD?$LM?S?$LM?$LK?$KB?$KD?A?v?$LM?S?$LM?$LK?$MA?G?5?$LL?s?$LE?k?$LP?M?5?$LN?N?$LP?o?5?$LG?$KH@ ; `string'
PUBLIC	??_C@_0P@IMBCCPOD@?$LE?$KL?5?$LI?p?$LO?g?5?$LK?$KP?$LA?f?$KB?$KD@ ; `string'
PUBLIC	??_C@_0P@PNCOKHHM@?D?Z?5?$LI?p?$LO?g?5?$LK?$KP?$LA?f?$KB?$KD@ ; `string'
PUBLIC	??_C@_0P@LMMJJHJP@?$MA?T?5?$LI?p?$LO?g?5?$LK?$KP?$LA?f?$KB?$KD@ ; `string'
PUBLIC	??_C@_0CF@JDHEEBNC@?$MA?L?$LI?$KH?0?5?$LO?s?$LB?$LM?0?5?$LB?b?$LK?$LL?5?$LL?s?E?B?5?$LJ?W?5?$LM?S?$LM?$LK?5?$LM@ ; `string'
PUBLIC	??_C@_0M@DLFCBPCC@?$LM?$KE?$LB?b?$LI?$KD?5?$LI?$LG?$MA?$LL@ ; `string'
PUBLIC	??_C@_0O@OLOFEGAL@?$LI?$LG?$LI?$KO?$LD?J?$LN?$LK?5?$LI?$LG?$MA?$LL@ ; `string'
PUBLIC	??_C@_09GFHIJBMK@?$MA?p?$MA?p?5?$LI?$LG?$MA?$LL@ ; `string'
PUBLIC	??_C@_0O@FAJDIKKM@?D?$KL?$LH?g?E?$LI?$LD?$KK?5?$LI?$LG?$MA?$LL@ ; `string'
PUBLIC	??_C@_0CD@OGPAGALA@?$LL?g?$MA?L?$LD?J?$LN?$LK?$MA?G?5?$LF?$LP?B?J?$LP?$KB?5?$MA?$KH?D?$KB?G?X?5?$MA?V?$LN?$MA?$LE?O@ ; `string'
PUBLIC	??_C@_0BI@IHPDPOHC@4?$LA?$LD?5?$LI?$LG?$MA?$LL?A?$NP?5?$LA?$KB?$MA?e?5?E?$KO?$LE?O?$LE?Y?4@ ; `string'
PUBLIC	??_C@_0BO@BMBAEGNC@?$LG?G?G?Q?5?$LA?$KB?$MA?e?5?A?z?$LM?$KN?$MA?V?$LE?B?5?$LI?$LG?$MA?$LL?$MA?L?$LE?Y?$KB?$KD@ ; `string'
PUBLIC	??_C@_0CD@FJDMGMIM@?$LL?g?$MA?L?$LD?J?$LN?$LK?$MA?G?5?$LM?$KN?B?J?$LP?$KB?5?$MA?$KH?D?$KB?G?X?5?$MA?V?$LN?$MA?$LE?O@ ; `string'
PUBLIC	??_C@_0CL@GOPLDOIL@?$LO?F?$LI?$KH?$LE?Y?$LP?n?5?G?X?$LK?$KP?$MA?$LL?5?$LJ?Y?$LG?s?$LK?$LI?$LA?m?5?$MA?V?$LE?B?5?$LI@ ; `string'
PUBLIC	??_C@_0CC@DMMCBILE@?$LA?$KB?$LP?l?$LI?$LA?$MA?G?5?$LF?$LP?B?J?$LP?$KB?5?$MA?$KH?D?$KB?G?X?5?$MA?V?$LN?$MA?$LE?O?$LE?Y@ ; `string'
PUBLIC	??_C@_0BF@DLENCNEM@?$LN?$KD?$MA?$LI?$LH?N?5?$LF?Q?$LH?$KP?5?$LN?W?$LP?$KJ?$MA?V?$LE?B@ ; `string'
PUBLIC	??_C@_0BF@PENPANFK@?$LN?L?$LB?W?$LH?$KP?$LP?n?5?$LD?l?$LL?v?5?$LI?$LG?$MA?$LL?$KB?$KD@ ; `string'
PUBLIC	??_C@_0CC@JHAOGAJO@?$LA?$KB?$LP?l?$LI?$LA?$MA?G?5?$LM?$KN?B?J?$LP?$KB?5?$MA?$KH?D?$KB?G?X?5?$MA?V?$LN?$MA?$LE?O?$LE?Y@ ; `string'
PUBLIC	??_C@_0BB@BHNBHDIA@?$LI?$LG?$MA?$LL?$MA?$LK?5?$MA?$NL?$MA?$LK?5?$LP?$KJ?$LH?$KP@ ; `string'
PUBLIC	??_C@_0BH@MIIMPKCJ@?$LM?$LG?5?$MA?$KH?$LP?$KB?5?A?v?$LO?n?A?$LD?$LN?$MA?$LE?O?$LE?Y?$KB?$KD@ ; `string'
PUBLIC	??_C@_0BI@JKLCAMPH@?C?b?$LN?E?A?v?$LI?$KG?5?$LM?$LB?E?C?G?O?$LN?J?$LN?C?$LP?$MA?$KB?$KD@ ; `string'
PUBLIC	??_C@_0BC@FPKFEPPA@?D?$LD?$LI?$KP?E?M?5?A?$KG?$MA?$NL?5?A?$NP?4?4?4@ ; `string'
PUBLIC	??_C@_0BA@JFEMHLAM@?T?t?l?$PN?$DP?W?b?$DP?$DP?l?$KL?S?p?$KB?$KD@ ; `string'
PUBLIC	??_C@_0BH@KKDGIMOK@?C?$LM?E?$KJ?$MA?N?5?C?$LD?$LI?$KO?5?$LN?G?F?P?$CI1001?$CJ@ ; `string'
PUBLIC	??_C@_0CC@NMDHOJLK@?$LF?$KF?$MA?L?E?M?5?$LM?$KN?$LJ?v?$LP?$KB?5?A?$KC?$LM?S?5?G?R?5?$LM?v?5?$LO?x?$LN?$MA?$LE?O@ ; `string'
PUBLIC	??_C@_0DB@MPLNGCGC@?$LF?$KF?$MA?L?E?M?$LK?$KD?$MA?L?$LN?$LK?$LP?$KB?$LM?$KN?5?$LP?C?$LJ?Y?$LI?$KF?5?A?$KE?$LK?$LI?$LI?$KG?5@ ; `string'
PUBLIC	??_C@_0DE@PGOBNCKH@?$LM?$KN?$LJ?v?5?$LL?g?$LP?k?$MA?Z?$LA?$KB?5?$LI?$LJ?$LN?$MA?$LE?O?$LE?Y?4?5?$MA?a?$LN?C?5?H?D@ ; `string'
PUBLIC	??_C@_0CG@HHMHGCGE@?$MA?T?$LH?B?G?Q?5?$MA?Z?$LH?a?5?G?$PM?$LN?D?$MA?L?5?$LP?C?$LJ?Y?$LI?$KD?A?v?5?$LO?J?$LN@ ; `string'
PUBLIC	??_C@_0HC@GFFIGLHA@?$MA?$NP?$LI?x?$LF?H?5?$LL?g?$LP?k?$MA?Z?5?$MA?L?$LI?$KH?5?$LG?G?$LE?B?5?$LK?q?$LJ?P?$LJ?x?H@ ; `string'
PUBLIC	??_C@_0CP@NMMNAJC@?$LF?$LP?$MA?O?G?Q?5?$LL?g?$LP?k?$MA?Z?$LE?B?5?$LJ?$NN?$LK?$LJ?G?O?$LP?$KJ?5?$LH?N?$LB?W?$MA?N@ ; `string'
PUBLIC	??_C@_0CB@OGIGLFK@?$LF?$LP?$MA?O?G?Q?5?$LA?h?A?$KE?$MA?L?5?$LP?B?$LG?s?$MA?N?5?$LL?s?E?B?$MA?T?$LE?O?$LE?Y@ ; `string'
PUBLIC	??_C@_0BM@JBMHIAK@?$LL?g?$LP?k?$MA?Z?$LA?$KB?5?$MA?L?$LJ?L?5?$LA?T?$MA?S?A?$NP?5?$MA?T?$LE?O?$LE?Y@ ; `string'
PUBLIC	??_C@_0CC@HINJGBNA@?$LH?N?$LB?W?$MA?N?G?O?A?v?5?$LO?J?$LO?R?$LA?E?$LD?$KK?5?$LH?N?$LB?W?$MA?N?5?$LP?$MA?$LH?y@ ; `string'
PUBLIC	??_C@_0CE@KOLHMKHB@?$LA?$LA?$MA?$LK?5?$MA?L?$LI?$KH?$MA?G?5?$LA?h?A?$KE?$MA?L?5?$MA?L?$LJ?L?5?A?$LI?$MA?g?G?U?$LE@ ; `string'
PUBLIC	??_C@_0BO@HAIDEEBI@?H?$LI?$LP?x?5?$LA?h?A?$KE?$MA?L?5?H?$LA?$LM?$LK?H?$KN?5?$LF?G?$LO?z?$LN?$MA?$LE?O?$LE?Y@ ; `string'
PUBLIC	??_C@_0BF@NHOPBCJF@?$MA?$NP?$LI?x?$LF?H?5?$LN?C?$MA?$NL?5?$LP?$KB?$LH?$KP?D?Z?$LF?e@ ; `string'
PUBLIC	??_C@_0CD@NOMGEOJE@?H?$LI?$LP?x?5?$LA?h?A?$KE?$MA?L?5?H?$LA?$LM?$LK?H?$KN?5?$LF?G?A?v?5?$LO?J?$LO?R?$LN?$MA?$LE@ ; `string'
PUBLIC	??_C@_0DF@NACPJADM@?$LO?F?$MA?L?$LF?p?$LP?M?5?$LK?q?$LJ?P?$LJ?x?H?$KD?$LE?B?5?$LP?$LF?$LJ?$KO?$LA?z?5?$LM?$PN?$MA?Z@ ; `string'
PUBLIC	??_C@_0CH@JMACCECP@?$MA?L?5?$LA?h?A?$KE?$MA?$LK?5?A?$KE?A?v?$LF?G?$LO?z?$LN?$MA?$LE?O?$LE?Y?0?5?$LJ?$KO?$MA?G?G@ ; `string'
PUBLIC	??_C@_0DE@CGFBMJCB@?$LA?T?$MA?S?$MA?$LL?5?$LN?C?$MA?$NL?G?O?$LB?b?5?$MA?$PM?$LP?$KB?5?$LA?$LD?$MA?N?5?A?$KE?$LK?$LI?$LI@ ; `string'
PUBLIC	??_C@_0DE@LMMPDPLP@?$LH?N?$LB?W?$MA?N?5?$LN?C?$LA?$KD?$MA?L?5?C?J?$LA?z?$LF?G?$LO?z?$LN?$MA?$LE?O?$LE?Y?4?5?$LE@ ; `string'
PUBLIC	??_C@_0CH@MGAFLNOF@?H?$KI?F?d?$MA?L?A?v?$LP?$KB?5?$LO?F?A?w?5?$LH?N?$LB?W?$MA?N?5?$LF?G?A?v?5?$LO?J?$LO@ ; `string'
PUBLIC	??_C@_0CO@LFMOKHEP@?$MA?L?5?$LA?h?A?$KE?$MA?$LK?5?$MA?L?$LJ?L?5?$LL?u?$LH?N?$LP?n?5?H?$LI?$LP?x?$MA?$LI?$LH?N?5@ ; `string'
PUBLIC	??_C@_0FC@MFALGBLI@?$LA?T?$MA?S?$MA?$LL?5?$LN?C?$MA?$NL?G?O?$LB?b?5?$MA?$PM?$LP?$KB?5Wayi?$LA?T?$MA?S?$LP?$KB@ ; `string'
PUBLIC	??_C@_0EC@JANGBCI@?$MA?L?5?A?$KG?G?$LA?$MA?$LK?5?$LO?F?A?w?5?$LF?n?$LH?O?$LF?G?A?v?5?$LO?J?$LO?R?$LN?$MA?$LE@ ; `string'
PUBLIC	??_C@_0CL@DHOIGGNA@WGS?o?C?$DP?$DP?l?$KL?i?D?h?G?o?C?$DP?0?5?$DP?$DP?$DP?o?C?$DP?$DP?n?$KC?r?$LI?$DP?$DP@ ; `string'
PUBLIC	??_C@_0CE@MIFIPBLG@WGS?o?C?$DP?$NM?t?p?k?0?5?$DP?$DP?$DPWGS?o?C?$DP?$DP?n?$KC?r?$LI?$DP?$DP?j?$PN?$DP@ ; `string'
PUBLIC	??_C@_0BB@PHBDBDAB@?$MA?N?E?M?$LD?$NN?5?$LP?$KM?$LA?a?5?$LP?$MA?$LH?y@ ; `string'
PUBLIC	??_C@_0BE@FNJGPFEB@?$DP?l?$KL?n?$KE?P?l?v?b?$OA?x?M?$KH?T?t?l?$PN?$KB?$KD@ ; `string'
PUBLIC	??_C@_0BB@DDFMPBHB@?$DP?l?$KL?n?$KE?w?$LM?$DP?$OA?x?M?$KH?T?t?l?$PN@ ; `string'
PUBLIC	??_C@_0BC@BLEFHHCI@?$DP?l?$KL?n?$KE?t?$LI?c?j?$OA?x?M?$KH?T?t?l?$PN@ ; `string'
PUBLIC	??_C@_0BC@IADOEDAG@?$DP?l?$KL?n?$KE?$NN?A?T?$OA?$OA?x?M?$KH?T?t?l?$PN@ ; `string'
PUBLIC	??_C@_0BC@EOGDPEGN@?$DP?l?$KL?n?$KE?m?$LJ?Z?$LA?$OA?x?M?$KH?T?t?l?$PN@ ; `string'
PUBLIC	??_C@_0BA@OCMAIDLN@?$DP?l?$KL?n?$KE?$DP?$DP?$OA?x?M?$KH?T?t?l?$PN@ ; `string'
PUBLIC	??_C@_0BB@MMGOFGBI@?$DP?l?$KL?n?$KE?$DP?y?A?$OA?x?M?$KH?T?t?l?$PN@ ; `string'
PUBLIC	??_C@_0BC@NPHDINBL@?$DP?l?$KL?n?$KE?z?E?y?$PL?$OA?x?M?$KH?T?t?l?$PN@ ; `string'
PUBLIC	??_C@_0BC@ODOFDCOF@?$DP?l?$KL?n?$KE?$OA?x?$DP?$DP?$OA?x?M?$KH?T?t?l?$PN@ ; `string'
PUBLIC	??_C@_0BF@BFOFAFDI@?$DP?l?$KL?n?$KE?$DP?V?X?J?$KL?o?T?$OA?x?M?$KH?T?t?l?$PN@ ; `string'
PUBLIC	??_C@_0BB@PEBLFAAD@?$DP?l?$KL?n?$KE?t?$LI?$DP?$OA?x?M?$KH?T?t?l?$PN@ ; `string'
PUBLIC	??_C@_0BC@LBDONGAD@?$DP?l?$KL?n?$KE?c?f?M?$KD?$OA?x?M?$KH?T?t?l?$PN@ ; `string'
PUBLIC	??_C@_0BH@OOIMHFEI@?C?$LM?E?$KJ?$MA?N?5?C?$LD?$LI?$KO?5?$LN?G?F?P?$CI?$CFd?$CJ?$KB?$KD@ ; `string'
PUBLIC	??_C@_0BA@KHEOLEJA@?T?t?u?s?$DP?W?b?$DP?$DP?l?$KL?S?p?$KB?$KD@ ; `string'
PUBLIC	??_C@_0BG@HHBIODFI@?C?$LM?E?$KJ?5?$LO?F?$LP?t?5?C?$LD?$LI?$KO?5?$LN?G?F?P?$KB?$KD@ ; `string'
PUBLIC	??_C@_07IBAIKNAL@?$FLstyle?5@			; `string'
PUBLIC	??_C@_06OEDOOLP@?5?$KD?O?$KD?K?5@		; `string'
PUBLIC	??_C@_06JHILMIHF@CANCEL@			; `string'
PUBLIC	??_C@_06BLFCGNEJ@?H?$KO?5?5?$MA?N@		; `string'
PUBLIC	??_C@_06PNFMGOAF@?C?k?5?5?$LM?R@		; `string'
PUBLIC	??_C@_0M@KLCLPDEC@?$MA?L?$MA?$PM?5?F?d?$MA?L?A?v@ ; `string'
PUBLIC	??_C@_0M@JKCPDGAE@?$LE?Y?$MA?$LN?5?F?d?$MA?L?A?v@ ; `string'
PUBLIC	??_C@_02DPKJAMEF@?$CFd@				; `string'
PUBLIC	??_C@_0DA@BAFAIKKM@?$KD?$LN?$KD?$LN?$KD?$LN?5?5?5?5?5?5?5?5?5?F?j?$MA?$LL?5?$LM?$LB?E?C?G?O?$LN?J?$LN?C?$LP@ ; `string'
PUBLIC	??_C@_02BAJPEKCM@?$LM?x@			; `string'
PUBLIC	??_C@_02MCBFLHBI@?$LJ?f@			; `string'
PUBLIC	??_C@_02BJIFLDEI@?$LA?x@			; `string'
PUBLIC	??_C@_02MEIMKHMB@HP@				; `string'
PUBLIC	??_C@_02FLIMDJ@Lv@				; `string'
PUBLIC	??_C@_04KDDDLIGD@?F?d?F?$KO@			; `string'
PUBLIC	??_C@_0CF@FLMNJHFI@?$CF?916s?5?5?$CF?93s?5?5?5?$CF?95s?5?5?$CF?95s?5?5?5?$CF?95s@ ; `string'
PUBLIC	??_C@_0CF@HCGLMHEH@?$CF?916s?5?5?$CF?93d?5?5?5?$CF?95d?5?5?$CF?95d?5?5?5?$CF?95d@ ; `string'
PUBLIC	??_C@_0DC@OGKMBKIN@?$KD?$LN?$KD?$LN?$KD?$LN?5?5?5?5?5?5?5?5?5?F?D?F?$LM?$LP?x?$MA?$LL?5?$LM?$LB?E?C?G?O?$LN@ ; `string'
PUBLIC	??_C@_0DC@OEBMFFGI@?$KD?$LN?$KD?$LN?$KD?$LN?5?5?5?5?F?j?5?$LG?G?$LE?B?5?F?D?F?$LM?$LP?x?$MA?$LL?5?$LM?$LB?E?C@ ; `string'
PUBLIC	??_C@_0CP@PALAGGON@?$KD?$LN?$KD?$LN?$KD?$LN?5?5?5?5?5?5?5?$LI?$NO?$MA?N?5?F?j?$MA?$LL?5?$LM?$LB?E?C?G?O?$LN?J@ ; `string'
PUBLIC	??_C@_0CP@GFPMIDDF@?$KD?$LN?$KD?$LN?$KD?$LN?5?5?5?5?5?5?5?$LL?s?$LE?k?5?F?j?$MA?$LL?5?$LM?$LB?E?C?G?O?$LN?J@ ; `string'
PUBLIC	??_C@_08ILNEEICH@?$CFd?$HM?$CFd?$HM?$CFd@	; `string'
PUBLIC	??_C@_0CA@ONLNCGPF@?$CF?916s?5?$CF?93s?5?5?$CF?95s?5?$CF?95s?5?5?$CF?95s?5?5?$CFs@ ; `string'
PUBLIC	??_C@_03BIEHFCNJ@?q?l?$DP@			; `string'
PUBLIC	??_C@_04BLDHOJBN@?$LI?$NO?$MA?N@		; `string'
PUBLIC	??_C@_04LFMEPEEF@?$LL?s?$LE?k@			; `string'
PUBLIC	??_C@_0CA@MOGFGPOH@?$CF?916s?5?$CF?93d?5?5?$CF?95d?5?$CF?95d?5?5?$CF?95d?5?5?$CFd@ ; `string'
PUBLIC	??_C@_01GBGANLPD@0@				; `string'
PUBLIC	??_C@_05GLBACONI@?$CFd?$HM?$CFd@		; `string'
PUBLIC	??_C@_0L@KBBNADAJ@?$LI?m?$LM?$LK?5?$CF8d?$KD?F@	; `string'
PUBLIC	??_C@_0M@DBGBFDKA@?$LN?$LK?E?f?5?5?$CF8d?$KD?S@	; `string'
PUBLIC	??_C@_0P@DLBADLDH@?$CF2d?1?$CF2d?5?F?d?$MA?L?A?v@ ; `string'
PUBLIC	??_C@_0L@JBEIEHEP@?$CF8d?$KD?F?$CF8d?$KD?S@	; `string'
PUBLIC	??_C@_05ENGCCMCP@?$CF8d?$KD?S@			; `string'
PUBLIC	??_C@_04HNNONBHM@?$CF2d?$DP@			; `string'
PUBLIC	??_C@_0BE@PBEPDFJI@?$CF8d?$KD?S?5x?5?$CF2d?5?$DN?5?$CF8d?$KD?S@ ; `string'
PUBLIC	??_C@_0BE@FKIEDAAE@?$CF8d?$KD?F?5x?5?$CF2d?5?$DN?5?$CF8d?$KD?F@ ; `string'
PUBLIC	??_C@_0L@OCLOEHGJ@?$LN?$LK?E?f?5?$CF8d?$KD?S@	; `string'
PUBLIC	??_C@_03EPCHICDI@x?$CFd@			; `string'
PUBLIC	??_C@_09DPNFCMLK@?Q?Q?$DP?5?$CF8d?$KD?S@	; `string'
PUBLIC	??_C@_0M@JKOCLGKC@?$CFd?$HM?$CFd?$HM?$CFd?$HM?$CFd@ ; `string'
PUBLIC	??_C@_09IAMFCDJG@?$CF2d?1?$CF2d?5?$DP@		; `string'
PUBLIC	??_C@_0L@LCAELECA@?$DP?$FL?$CFs?$FN?$DP?$FL?$CFs?$FN@ ; `string'
PUBLIC	??_C@_0BB@JCNGIDNP@?$LN?C?$MA?$NL?G?O?$LA?Z?$LN?$MA?$LE?O?$LB?n?$KD?$LP@ ; `string'
PUBLIC	??_C@_0BC@HIPKKMKB@?$LB?W?$MA?$KH?D?$KB?$LP?$KB?5?G?R?$LB?n?$LP?d?$KD?$LP@ ; `string'
PUBLIC	??_C@_07BCAPMAGD@?$LB?b?5?$CFd?3?5@		; `string'
PUBLIC	??_C@_0L@JFOFCMBF@?$CF2d?1?$CF2d?5?B?J@		; `string'
PUBLIC	??_C@_05HKNHMKDL@?$CF8d?$KD?F@			; `string'
PUBLIC	??_C@_0BE@HCEHBKKL@?$LE?$KJ?$LB?$LI?G?Q?E?W?5?$LJ?h?$LP?o?$LB?n?$LP?d?$KD?$LP@ ; `string'
PUBLIC	??_C@_02JPEIBJLC@?$LJ?N@			; `string'
PUBLIC	??_C@_0BB@BOMDKKC@?$LB?W?$MA?$KH?D?$KB?$LP?$KB?G?R?$LB?n?$LP?d?$KD?$LP@ ; `string'
PUBLIC	??_C@_0P@HHEBCLLE@?$LO?g?$FL?$CFs?$FN?G?O?$LE?Y?$FL?$CFs?$FN@ ; `string'
PUBLIC	??_C@_0BE@BNDDJDJA@?$MA?L?$LB?b?$LM?z?$MA?$LL?5?$LJ?h?$LP?o?$LB?n?$LP?d?$KD?$LP@ ; `string'
PUBLIC	??_C@_0BE@NKOCMFMN@?$LA?$KB?$LJ?$KO?$MA?$LL?5?$LM?$LB?E?C?G?O?$LM?$LM?$LP?d?$KD?$KB@ ; `string'
PUBLIC	??_C@_0BI@IDKIBNJL@?$LK?N?A?$LH?$MA?L?$LI?$KH?$MA?$LL?5?$MA?T?$LH?B?G?O?$LM?$LM?$LP?d?$KD?$KB@ ; `string'
PUBLIC	??_C@_0BJ@BIHHOJEL@?$LA?$KB?A?$LH?5?A?$KG?$LI?q?$MA?$LL?5?$MA?T?$LH?B?G?O?$LM?$LM?$LP?d?$KD?$KB@ ; `string'
PUBLIC	??_C@_0BJ@IAPAGIOC@?$LM?v?H?$KD?5?F?d?F?$KO?$LI?$KG?5?$LM?$LB?E?C?G?O?$LM?$LM?$LP?d?$KD?$KB@ ; `string'
PUBLIC	??_C@_0BL@ODAGPAJL@?$LA?$KB?A?$LH?5?$LK?$LI?H?$KD?$MA?Z?$LI?$KG?5?$LM?$LB?E?C?G?O?$LM?$LM?$LP?d?$KD?$KB@ ; `string'
PUBLIC	??_C@_0BB@FFLONHHA@A?$HM?$CFs?$HM?$CFd?$HM?$CFd?$HM?$CFs?$HM?$CFd@ ; `string'
PUBLIC	??_C@_08IEFDEMID@?$LJ?h?A?v?$LM?$LD?A?$KE@	; `string'
PUBLIC	??_C@_0BD@DPCKNFFI@?5?5?5?5?5?5?5?5?5?5?5?5?5?5?5?5?5?5@ ; `string'
PUBLIC	??_C@_04EHFFKIEF@?$LO?x?$LE?Y@			; `string'
PUBLIC	??_C@_03EEBNCBOD@?5?$CFs@			; `string'
PUBLIC	??_C@_06HHOANBGP@?5?5?$CFs?5?5@			; `string'
PUBLIC	??_C@_04PMAIGBME@?$CF38s@			; `string'
PUBLIC	??_C@_08MNCFPICD@S?$HMF?$HM?$CFd?$HM0@		; `string'
PUBLIC	??_C@_07EFKFLCFA@S?$HMF?$HM1?$HM0@		; `string'
PUBLIC	??_C@_0N@LDDLKII@S?$HMD?$HM?$CFs?$HM?$CFd?$HM?$CFd@ ; `string'
PUBLIC	??_C@_08MIMOGKCP@?$LA?$KB?A?$LH?$LI?q?$LH?O@	; `string'
PUBLIC	??_C@_0M@GFBBINPB@?$CF3d?5?1?5?$CF3d?5?$DP@	; `string'
PUBLIC	??_C@_0L@FHLFAEOJ@?$FL?$LA?$KB?A?$LH?$LI?m?$LM?$LK?$FN@ ; `string'
PUBLIC	??_C@_06PFFPIKHP@?$FL?$MA?N?$LP?x?$FN@		; `string'
PUBLIC	??_C@_08KKDDPHBL@?$FL?A?$LH?5?5?$MA?e?$FN@	; `string'
PUBLIC	??_C@_0O@MGCOJGNL@?$FL?$LK?N?5?A?$LH?5?$MA?L?5?$LI?$KH?$FN@ ; `string'
PUBLIC	??_C@_0BK@DBLHNEOK@?$CF?94s?5?$CF?916s?5?$CF?916s?5?$CF6s?5?$CF10s@ ; `string'
PUBLIC	??_C@_0BK@IAGNODKB@?$CF4d?3?5?$CF?916s?5?$CF?916s?5?$CF6d?5?$CF10d@ ; `string'
PUBLIC	??_C@_0CD@GBGODGL@P?$HM?$MA?L?$LJ?L?5?$LE?Y?$LI?$KF?$LK?N?A?$LH?$LP?$KB?5?$LA?$KB?$MA?T?$LF?G?$LO?n?$MA?V?$LO?n?$LP@ ; `string'
PUBLIC	??_C@_0O@FBIMKKIN@J?$HM?$CFd?$HM?$CFd?$HM?$CFs?$HM?$CFd@ ; `string'
PUBLIC	??_C@_06FHOHGHFK@X?$HMR?$HM?$CFs@		; `string'
PUBLIC	??_C@_06CIKELAKM@X?$HMP?$HM?$CFd@		; `string'
PUBLIC	??_C@_06DCIEHEEO@X?$HMB?$HM?$CFd@		; `string'
PUBLIC	??_C@_05PFEBJGGD@?$CFd?5?$LI?m@			; `string'
PUBLIC	??_C@_07JANJFJHP@?$DP?v?G?$PN?E?m?q@		; `string'
PUBLIC	??_C@_04GMJLIJKP@?A?$KC?$LM?S@			; `string'
PUBLIC	??_C@_06OEBCHFHA@?$LJ?L?A?$KC?$LM?S@		; `string'
PUBLIC	??_C@_08KOCLKJHI@?$LK?N?5?A?$LH?5?$LP?x@	; `string'
PUBLIC	??_C@_08HBDNAOJN@?A?$LH?5?5?5?5?$MA?e@		; `string'
PUBLIC	??_C@_08FGILGNNJ@?$MA?e?5?5?5?5?$LH?N@		; `string'
PUBLIC	??_C@_08EPNLIAJH@?$LA?$KB?$MA?T?$LN?E?C?$LL@	; `string'
PUBLIC	??_C@_08EKAAGOCB@?E?$LL?5?5?5?5?E?p@		; `string'
PUBLIC	??_C@_0BM@HGDMDEHB@?$CF?99s?$CF?918s?$CF3s?$CF12s?$CF12s?$CF10s?$CF7s@ ; `string'
PUBLIC	??_C@_09LDBPGJOA@?$LA?$KB?$MA?T?5?$LN?B?$MA?N@	; `string'
PUBLIC	??_C@_09IPDOHIGO@?$LA?$KB?$MA?T?5?$LA?E?$LK?N@	; `string'
PUBLIC	??_C@_0CC@OOGHFIO@?5?$CF?920s?5?5?5?5?5?5?5?5?5?5?5?5?5?5?5?5?5?5?5?5?5?5?5?5?5@ ; `string'
PUBLIC	??_C@_04NKANOEFH@?$DP?5?5?$DP@			; `string'
PUBLIC	??_C@_02HHFHKOHM@?$DP?$DP@			; `string'
PUBLIC	??_C@_03IKGEINEE@?$CFs?5@			; `string'
PUBLIC	??_C@_0L@IBINOEKJ@M?$HM?$CFs?$HM?$CFd?$HM?$CFd@	; `string'
PUBLIC	??_C@_04OKLAFEGF@T?$HM?$CFd@			; `string'
PUBLIC	??_C@_0CF@OGEDCEOL@?5?5?5?5?5?5?5?5?5?5?5?5?5?5?5?5?5?5?5?5?5?5?5?5?5?$LK?N?A?$LH?$LP?x@ ; `string'
PUBLIC	??_C@_0EI@MNEGDEON@?5?$KD?$NL?A?$KC?$LM?S?$KD?$NN?$KD?$NL?$LE?P?$LD?W?$MA?S?$KD?$NN?5?5?5?5?5?$KD?$NL?$LH?$LJ?$LK?$KH?$KD@ ; `string'
PUBLIC	??_C@_01DNKMNLPK@?$HM@				; `string'
PUBLIC	??_C@_05GOJDKKEO@?$CFd?$HM?$CFs@		; `string'
PUBLIC	??_C@_0BE@BNBIMIKL@?$KB?$KO?$LA?$KB?5?A?$LH?5?$LA?T?5?$LN?C?5?F?G?5?$KB?$KP@ ; `string'
PUBLIC	??_C@_0L@PNJCCPBJ@?$LM?$KE?$LB?b?$LI?$KD?$LI?$LG?$MA?$LL@ ; `string'
PUBLIC	??_C@_08FHGEHAHK@?$LI?$LG?$LI?$KO?$LD?J?$LN?$LK@ ; `string'
PUBLIC	??_C@_08HCKLDHDO@?$MA?p?5?5?5?5?$MA?p@		; `string'
PUBLIC	??_C@_08IPKKANCP@?D?$KL?$LH?g?E?$LI?$LD?$KK@	; `string'
PUBLIC	??_C@_08GDPNKJEK@?$LP?$KB?5?5?5?5?$LF?$KH@	; `string'
PUBLIC	??_C@_08PLFMPCKD@?E?$LI?5?$LI?$KD?5?E?$LI@	; `string'
PUBLIC	??_C@_08NFLGLILK@?$LE?O?5?5?5?5?$LN?$LK@	; `string'
PUBLIC	??_C@_08BBBHHHEB@?$LO?$NP?5?$MA?L?5?$LP?$MA@	; `string'
PUBLIC	??_C@_06LKHMHEK@?$LO?F?$LN?C?$LO?F@		; `string'
PUBLIC	??_C@_06OOGDCHLD@?$LJ?L?$LL?g?$LP?k@		; `string'
PUBLIC	??_C@_0P@HOFHBIDI@?$CF9s?$CF5s?5?$CF5s?$CF18s@	; `string'
PUBLIC	??_C@_08CKOJLPBB@?$CFs?$HM?$CFs?$HM?$CFs@	; `string'
PUBLIC	??_C@_07MEJNJNBN@P?$HM?$CFd?$HM?$CFs@		; `string'
PUBLIC	??_C@_0CB@EPJNIDND@?5?5?5?5?5?5?5?5?$KB?$KO?$LA?$KB?A?$LH?$LB?b?$LJ?$NN?G?A?$LH?N?$LB?W?$LH?$KF?$LI?q?$LH?O?$KB@ ; `string'
PUBLIC	??_C@_0CI@NMHOIHGJ@?$KB?$KO?$MA?e?5?$LM?R?$KB?$KP?$KB?$KO?$LF?$LP?$KB?$KP?$KB?$KO?$LD?$LC?$KB?$KP?5?5?5?5?5?5?5?5?$KB?$KO@ ; `string'
PUBLIC	??_C@_0L@CMOKCILO@?$MA?O?$LJ?$NN?$LK?N?A?$LH?$LP?x@ ; `string'
PUBLIC	??_C@_08JAKOPBJC@?C?k?5?5?5?5?$LM?R@		; `string'
PUBLIC	??_C@_0L@DJCDNCBF@?$LM?$LB?E?C?G?O?$LM?$LM?$LP?d@ ; `string'
PUBLIC	??_C@_04KMMDIKEB@?5?$CFs?5@			; `string'
PUBLIC	??_C@_0L@GOKAMOPJ@?$LI?C?$MA?$LK?A?w?C?$KF?$KD?$LK@ ; `string'
PUBLIC	??_C@_0BF@MDCNOKLO@?$DP?$DP?5?$CFs?5?A?$KG?$LI?m?$LN?C?E?$LD?$LB?n?$LP?d?$KD?$LP@ ; `string'
PUBLIC	??_C@_01HIHLOKLC@1@				; `string'
PUBLIC	??_C@_0BN@EPBIJHBO@?5?$CF?97s?$CF?918s?$CF?916s?$CF13d?$CF12d?$CF14d?$CF@ ; `string'
PUBLIC	??_C@_0BG@HKOCFEKA@?$CF?97s?$CF?916s?$CF?916s?$CF8d?$CF12d@ ; `string'
PUBLIC	??_C@_0BE@KCIAGAPO@?$KB?$KO?$LM?$KN?$LJ?v?5?$LK?N?A?$LH?5?$LM?x?$MA?$KH?5?$KB?$KP@ ; `string'
PUBLIC	??_C@_0DO@OAPGBLPG@?$KB?$KO?$LM?x?$MA?$KH?$KB?$KP?5?$KB?$KO?$LK?N?A?$LH?$MA?L?$LI?$KH?$KB?$KP?5?$KB?$KO?A?$LH?$MA?e?$KB?$KP?5@ ; `string'
PUBLIC	??_C@_0BD@NPAMGOGD@?$KB?$KO?$LM?$KN?$LJ?v?5?$LK?N?A?$LH?5?$LM?x?$MA?$KH?$KB?$KP@ ; `string'
PUBLIC	??_C@_0EB@DMPCKEKC@?$KB?$KO?$LM?x?$MA?$KH?$KB?$KP?$KB?$KO?$LA?$KB?5?A?$LH?5?$LI?m?5?D?$KK?$KB?$KP?$KB?$KO?A?$LH?5?$MA?e?5@ ; `string'
PUBLIC	??_C@_0BE@BGDICKKN@?5?$CF?99s?$CF?919s?$CF?917s?$CF12s@ ; `string'
PUBLIC	??_C@_0CF@CPAJCIOI@?5?5?5?5?5?5?5?5?5?5?5?5?5?5?5?5?5?5?$KB?$KO?$LM?$KN?$LJ?v?5?$LA?$KB?A?$LH?5?$LM@ ; `string'
PUBLIC	??_C@_0CL@PEELKHDI@?$KB?$KO?$LM?x?$MA?$KH?$KB?$KP?5?$KB?$KO?$LK?N?A?$LH?$MA?L?$LI?$KH?$KB?$KP?5?$KB?$KO?A?$LH?$MA?e?$KB?$KP?5@ ; `string'
PUBLIC	??_C@_04OKOHEJBO@?5?$DP?$DP?5@			; `string'
PUBLIC	??_C@_06CJHLLHBH@?5?C?k?$LM?R?5@		; `string'
PUBLIC	??_C@_0CK@PKMNOIEH@?D?I?$LI?$KP?E?M?$LI?$KG?5?$LL?h?A?$KG?G?O?$LH?A?$LI?i?5?$LK?q?$LJ?P?$LJ?x?H?$KD?$LI?$KG?5@ ; `string'
PUBLIC	??_C@_0BE@DIPOFJGG@?D?I?$LI?$KP?E?M?$LI?$KG?5?$LL?h?A?$KG?G?U?$LE?O?$LE?Y@ ; `string'
PUBLIC	??_C@_0BH@BGEMBKPO@?$LK?q?$LJ?P?$LJ?x?H?$KD?$LA?$KB?5?F?$LC?$LH?H?$LN?$MA?$LE?O?$LE?Y?4@ ; `string'
PUBLIC	??_C@_0BI@GILIOCHN@?$LK?q?$LJ?P?$LJ?x?H?$KD?$LI?$KG?5?$MA?T?$LH?B?G?X?A?V?$LM?$LM?$LP?d@ ; `string'
PUBLIC	??_C@_08KEIECNNH@?5?C?$NP?5?5?$LA?$KB?5@	; `string'
PUBLIC	??_C@_08FOJJNHLG@?5?$LM?v?5?5?A?$KE?5@		; `string'
PUBLIC	??_C@_08PCGBOOHO@?5?$LP?$KM?5?5?$LA?a?5@	; `string'
PUBLIC	??_C@_08EJIOEONO@?$LM?$LD?5?A?$KE?5?A?$NP@	; `string'
PUBLIC	??_C@_08MOJFPAKN@?$MA?$MA?$LE?d?$LE?k?$LB?b@	; `string'
PUBLIC	??_C@_06LCJOFINF@?$LP?$LJ?5?5?A?$KE@		; `string'
PUBLIC	??_C@_0N@OOICEDBI@?$LA?$KB?A?$LH?$MA?$PM?E?u?$MA?O?A?$KE@ ; `string'
PUBLIC	??_C@_0BB@NLEMPNJJ@?G?v?$MA?g?$LN?C?$LA?$KD?$KD?$LK?5?$CFd?3?$CFd@ ; `string'
PUBLIC	??_C@_0N@MJLHBHM@?B?$PM?$LA?$KB?5?$MA?N?$LP?x?5?$LM?v@ ; `string'
PUBLIC	??_C@_08PFKCNHNG@?A?X?$LK?q?$LN?C?$LA?$KD@	; `string'
PUBLIC	??_C@_08MBJKFBBE@?$LN?E?C?$LL?$LA?$KB?A?$LH@	; `string'
PUBLIC	??_C@_08PFKHECNF@?$LF?$LF?$MA?$PM?$LA?$KB?A?$LH@ ; `string'
PUBLIC	??_C@_08GLHNCABG@?$LA?$LD?$MA?$PM?$LN?C?$LA?$KD@ ; `string'
PUBLIC	??_C@_0BL@LCOOKBCN@?$CF10s?5?5?$CF16s?5?5?$CF16s?5?5?$CF8s?5?5?$CF8s@ ; `string'
PUBLIC	??_C@_0L@KPJDMHLO@?$LD?$LL?$MA?O?5?$CFd?300@	; `string'
PUBLIC	??_C@_0L@FBMAKMIA@?$LP?$MA?$LE?C?5?$CFd?300@	; `string'
PUBLIC	??_C@_0CA@FLGBJLNM@?$CF10s?5?5?$CF16s?5?5?$CF16s?5?5?$CF4d?$NN?B?$DP?5?5?$CF6d?l?Q@ ; `string'
PUBLIC	??_C@_0O@DBFPDLEJ@?$LN?B?$LI?$KO?A?$LG?$LA?G?$KD?$LK?5?$CFs@ ; `string'
PUBLIC	??_C@_04FIBCPIPH@?$CF10s@			; `string'
PUBLIC	??_C@_0BP@FOLPFEDH@?$LN?E?C?$LL?G?O?$LN?G?5?$LA?$KB?A?$LH?$MA?$LL?5?$LM?$LB?E?C?G?X?A?V?$LM?$LM?$LP?d?$KD?$LK@ ; `string'
PUBLIC	??_C@_05EMGOANLP@?$CF?916s@			; `string'
PUBLIC	??_C@_0BC@PKDFJBMN@?$CFs?$HM?$CFs?$HM?$CFs?$HM?$CFd?$HM?$CFd?$HM?$CFd@ ; `string'
PUBLIC	??_C@_0N@LDIFEIBI@?$LA?$KB?A?$LH?$LE?k?$LA?a?$LN?E?C?$LL@ ; `string'
PUBLIC	??_C@_0L@KBIJEBEK@?$LF?$LF?$MA?$PM?$LA?$KB?A?$LH?$KD?$LK@ ; `string'
PUBLIC	??_C@_0L@PHNGNCKG@?$LN?E?C?$LL?$LA?$KB?A?$LH?$KD?$LK@ ; `string'
PUBLIC	??_C@_0BB@PNKEDEKN@?A?X?$LK?q?$LN?C?$LA?$KD?$KD?$LK?5?$CFd?5?$LK?P@ ; `string'
PUBLIC	??_C@_0BB@HNBGGGNE@?B?$PM?$LA?$KB?$MA?Z?$LM?v?$KD?$LK?5?$CFd?5?$LI?m@ ; `string'
PUBLIC	??_C@_06BOIKNFOM@B?$HMT?$HM?$CFd@		; `string'
PUBLIC	??_C@_0CE@FDKHNEAG@?E?$LO?$LN?B?$LA?$KB?$LE?I?G?Q?F?d?F?$KO?$LE?B?5?$LE?Y?$MA?$LN?$LA?z?5?$LA?$LA?$LN?$MA?$LE?O?$LE@ ; `string'
PUBLIC	??_C@_0BL@IIIFLCHO@?$LL?s?$LE?k?$LI?$KG?5?$LM?$KN?$LF?Q?$LH?$KP?5?C?$KD?$LO?F?$LK?$LI?$LM?$LM?$LP?d?$KD?$KB@ ; `string'
PUBLIC	??_C@_0BJ@DODKFOKF@?$LA?$KB?A?$LH?$LB?$LI?$LM?$LK?$LP?x?$MA?$LL?$LM?$LB?E?C?G?O?$LM?$LM?$LP?d?$KD?$LK@ ; `string'
PUBLIC	??_C@_0L@KPJPAJE@?5?5?$LG?$LA?$LD?$KK?$LE?Y?5?5@ ; `string'
PUBLIC	??_C@_0BB@JFLIPKGJ@L?$HMCHANGE?$HMQ?$HM?$CFd?$HM?$CFs@ ; `string'
PUBLIC	??_C@_0CA@FPBPENDN@?A?$LH?$MA?e?$MA?$LL?$CFs?$LP?$KB?$LA?T?5?$MA?$KH?$MA?S?G?O?$LN?C?$LA?Z?$LN?$MA?$LE?O?$LB?n?$KD?$LP@ ; `string'
PUBLIC	??_C@_0N@EPCBPGPN@?5?5?$LG?$LA?5?$LD?$KK?5?$LE?Y?5?5@ ; `string'
PUBLIC	??_C@_08PPLGHOJI@?5?5?$DP?5?5?$DP?5?5@		; `string'
PUBLIC	??_C@_0BD@FFDFGLPA@L?$HMCHANGE?$HMA?$HM0?$HM?$CFs?$HM?$CFd@ ; `string'
PUBLIC	??_C@_0BD@JJJPGLGO@L?$HMCHANGE?$HMA?$HM1?$HM?$CFs?$HM?$CFd@ ; `string'
PUBLIC	??_C@_0BM@JJMKEJNK@?$CFs?5?$LP?$KB?$LA?T?5?A?$LH?$MA?e?$MA?$LL?5?$MA?$KH?$MA?S?G?U?$LE?O?$LE?Y?$KD?$KM@ ; `string'
PUBLIC	??_C@_0BD@HPIFLCKK@?$LM?v?$LG?t?G?O?$LN?C?$LA?Z?$LN?$MA?$LE?O?$LB?n?$KD?$LP@ ; `string'
PUBLIC	??_C@_09KOHGDBKE@?5?5?$LA?E?5?$MA?$PN?5?5@	; `string'
PUBLIC	??_C@_0L@DJLGMOPM@?5?5?$LM?v?5?5?$LG?t?5?5@	; `string'
PUBLIC	??_C@_08KIHJGLGD@?$LA?$KB?A?$LH?A?$KE?$LK?$LI@	; `string'
PUBLIC	??_C@_0N@EFFHHOOF@?$LA?$KB?A?$LH?$MA?L?$LI?$KH?$KD?$LK?$CFs@ ; `string'
PUBLIC	??_C@_0N@LNHPBKEN@?A?$LH?$MA?e?$MA?L?$LI?$KH?$KD?$LK?$CFs@ ; `string'
PUBLIC	??_C@_0N@DKIOHJKC@?$LA?$KB?A?$LH?$MA?N?$LP?x?$KD?$LK?$CFd@ ; `string'
PUBLIC	??_C@_0N@BCMFNKAE@?$LM?v?H?$KD?A?$KE?$LH?I?$KD?$LK?$CFs@ ; `string'
PUBLIC	??_C@_0N@CHGBLECB@?$LI?m?$LM?$LK?$LM?x?$MA?$KH?$KD?$LK?$CFd@ ; `string'
PUBLIC	??_C@_0N@HFHEMMCA@?$LA?$KB?A?$LH?$LI?m?$LM?$LK?$KD?$LK?$CFd@ ; `string'
PUBLIC	??_C@_0N@CJCMAAFH@?$LA?$KB?A?$LH?A?w?C?$KF?$KD?$LK?$CFs@ ; `string'
PUBLIC	??_C@_0N@FOIFMONB@?$LA?$LD?$MA?N?$LI?m?$LM?$LK?$KD?$LK?$CFd@ ; `string'
PUBLIC	??_C@_0N@NGKOILMK@?$LA?$KB?A?$LH?$LB?b?$LM?$LM?$KD?$LK?$CFd@ ; `string'
PUBLIC	??_C@_0N@PNFPIJDL@?$LA?$LD?$MA?N?$LB?b?$LM?$LM?$KD?$LK?$CFd@ ; `string'
PUBLIC	??_C@_0L@ODKJDFKI@?J?$KL?p?i?$PN?E?m?q?$KD?$LK@	; `string'
PUBLIC	??_C@_0L@MCFCFIOA@?A?$KB?$LH?I?$LI?$LG?$MA?$LL?$KD?$LK@ ; `string'
PUBLIC	??_C@_0L@DOPLAOEB@?5?5?C?k?5?5?$LM?R?5?5@	; `string'
PUBLIC	??_C@_0L@NBALFHDN@1?$HM?$CFd?$HM?$CFs?$HM?$CFd@	; `string'
PUBLIC	??_C@_0L@EIOJDBDM@2?$HM?$CFd?$HM?$CFs?$HM?$CFd@	; `string'
PUBLIC	??_C@_03IFADCKOJ@?$CFd?$HM@			; `string'
PUBLIC	??_C@_06MCFCBINE@?$CFd?19?5?$DP@		; `string'
PUBLIC	??_C@_01LOCGONAA@?$AA@				; `string'
PUBLIC	??_C@_0BG@IHBEEPL@?5IceCloud?5go?5Shit?$CB?$CB?$CB?5@ ; `string'
PUBLIC	??_C@_0N@BPLMBEOA@?$DP?v?h?$NP?$KJ?$DP?5?$CFs?5?$KD?$LK@ ; `string'
PUBLIC	??_C@_09MEHCFAEH@?5?Z?K?$KB?$KB?$KB?$KB?$DP?5@	; `string'
PUBLIC	??_C@_08NELLBCLM@?5?$DP?5?5?5?5?$DP?5@		; `string'
PUBLIC	??_C@_09NHGAGPIH@?5?$DP?5?5?5?5?l?Q?5@		; `string'
PUBLIC	??_C@_0L@OKNLNJFO@?5?v?$KC?$KB?$KB?$KB?$KB?a?$LM?5@ ; `string'
PUBLIC	??_C@_02JOGGLHBA@?2n@				; `string'
PUBLIC	??_C@_04JNNPBDKK@?K?$KD?$NL?$LA@		; `string'
PUBLIC	??_C@_04NFLPMLHN@?k?$OA?$NL?$LA@		; `string'
PUBLIC	??_C@_04NLDKAEJ@?$NM?$LA?$NL?$LA@		; `string'
PUBLIC	??_C@_04FHAMEFIC@?o?K?$NL?$LA@			; `string'
PUBLIC	??_C@_0M@EOHPHPFN@?$CFs?$KD?$LK?5?$CFs?5?5?$CFs@ ; `string'
PUBLIC	??_C@_0P@KIMCNEJC@?$CFs?$KD?$LK?5?5?5?n?$KE?s?$KO?$DP?Y?$KD@ ; `string'
PUBLIC	??_C@_0O@IJDIOBDJ@?$CFs?$KD?$LK?5?5?5?$DP?Z?$LB?$DP?Y?$KD@ ; `string'
PUBLIC	??_C@_05BCDBBDGC@?$DP?$KB?$KB?o?R@		; `string'
PUBLIC	??_C@_09OOIHKOPD@?X?$KB?$DP?l?m?$KD?$LK?$CFs@	; `string'
PUBLIC	??_C@_06GJCJAMOC@?v?$KC?$KB?$KB?a?$LM@		; `string'
PUBLIC	??_C@_0O@IFIHGCPG@?5?$CF?910s?$CF?927s?$CFs@	; `string'
PUBLIC	??_C@_0CP@FDBDKEML@?$KB?$KO?$LM?$KO?B?w?$KB?$KP?5?5?5?5?$KB?$KO?5?5?5?$MA?L?5?5?5?$LI?$KH?5?5?5?5?$KB?$KP?5@ ; `string'
PUBLIC	??_C@_0CC@JBOBCJOD@?$KD?$LN?$KD?$LN?$KD?$LN?5?5?5?5?5?5?$CFd?$LI?$LG?$LI?$KO?5?$LM?$LB?E?C?5?5?5?5?$KD?$LN?$KD?$LN@ ; `string'
PUBLIC	??_C@_0CI@LPGMCPCH@?$KD?$LN?$KD?$LN?$KD?$LN?5?5?5?5?5?5?$LA?a?A?$KE?G?O?$LM?K?$LN?$MA?$LE?O?$LB?n?$KD?$LP?5?5?5@ ; `string'
PUBLIC	??_C@_0P@DIJJDGHC@?$CFd?$HM?$CFd?$HM?$CFd?$HM?$CFd?$HM?$CFd@ ; `string'
PUBLIC	??_C@_06CALAJCAP@?$LK?N?$LI?$KD?$LE?Y@		; `string'
PUBLIC	??_C@_08FAALJAKG@?A?A?$LO?F?G?O?$LE?Y@		; `string'
PUBLIC	??_C@_03GKEDPABO@?$DP?$NM?Q@			; `string'
PUBLIC	??_C@_03MNGAGPGA@?c?S?$DP@			; `string'
PUBLIC	??_C@_04KHFBBOKF@?q?r?l?L@			; `string'
PUBLIC	??_C@_05POAOFMIF@LV?4?$CFd@			; `string'
PUBLIC	??_C@_08LBNAPDDE@MaxHP?5?$CFd@			; `string'
PUBLIC	__xmm@00000000000000000000000a0000000a
PUBLIC	__xmm@00000003000000fb00000001000000f9
PUBLIC	__xmm@00000006000000fe00000002000000fa
PUBLIC	__xmm@000000440000006400000044000000c8
PUBLIC	__xmm@000000a0000000f0000000a000000064
PUBLIC	__xmm@000000c800000064000000c800000064
PUBLIC	__xmm@000001160000006f000000fa0000006f
PUBLIC	__xmm@0000011700000129000000ff00000129
PUBLIC	__xmm@00000147000001290000012f00000129
PUBLIC	__xmm@0000014e0000006f000001310000006f
PUBLIC	__xmm@000065c2000065ed000065c2000065ed
PUBLIC	__xmm@00006647000066460000664500006644
PUBLIC	__xmm@fffffffefffffffefffffffefffffffe
PUBLIC	__xmm@ffffffffffffffffffffffffffffffff
EXTRN	??_V@YAXPAX@Z:PROC				; operator delete[]
EXTRN	_strstr:PROC
EXTRN	_strncmp:PROC
EXTRN	_strncpy:PROC
EXTRN	??_U@YAPAXIHPBDH@Z:PROC				; operator new[]
EXTRN	?TimeGetTime@@YAIXZ:PROC			; TimeGetTime
EXTRN	__imp__CloseHandle@4:PROC
EXTRN	__imp__Sleep@4:PROC
EXTRN	__imp__TerminateThread@8:PROC
EXTRN	__imp__wsprintfA:PROC
EXTRN	__imp__PostMessageA@16:PROC
EXTRN	__imp__SetWindowTextA@8:PROC
EXTRN	__imp__MultiByteToWideChar@24:PROC
EXTRN	__imp__WideCharToMultiByte@32:PROC
EXTRN	__imp__LCMapStringA@24:PROC
EXTRN	_closesocket@4:PROC
EXTRN	_atoi:PROC
EXTRN	_itoa:PROC
EXTRN	___stdio_common_vsprintf:PROC
EXTRN	___stdio_common_vsprintf_s:PROC
EXTRN	___stdio_common_vsscanf:PROC
EXTRN	?PaletteChange@@YAXHH@Z:PROC			; PaletteChange
EXTRN	?ChangeProc@@YAXH@Z:PROC			; ChangeProc
EXTRN	?ChangeProc@@YAXHH@Z:PROC			; ChangeProc
EXTRN	?JL_í»?Ôô???ìÑÚª@@YAHXZ:PROC			; JL_í»?Ôô???ìÑÚª
EXTRN	?getStrSplitNew@@YAXQAY0BAA@D@Z:PROC		; getStrSplitNew
EXTRN	?sunday@@YAPADPAD0@Z:PROC			; sunday
EXTRN	?PutWinText@@YAXHHDHPADHH@Z:PROC		; PutWinText
EXTRN	?GetAction@@YAPAUaction@@EI@Z:PROC		; GetAction
EXTRN	?RunAction@@YAXXZ:PROC				; RunAction
EXTRN	?DeathAction@@YAXPAUaction@@@Z:PROC		; DeathAction
EXTRN	?DeathAllAction@@YAXXZ:PROC			; DeathAllAction
EXTRN	?StockDispBuffer@@YAHHHEHH@Z:PROC		; StockDispBuffer
EXTRN	?StockDispBuffer??êÈöÇ@@YAHHHEHH@Z:PROC		; StockDispBuffer??êÈöÇ
EXTRN	?StockTaskDispBuffer@@YAXXZ:PROC		; StockTaskDispBuffer
EXTRN	?StockBoxDispBuffer@@YAXHHHHEHH@Z:PROC		; StockBoxDispBuffer
EXTRN	?StockChatBufferLine@@YAXPADEH@Z:PROC		; StockChatBufferLine
EXTRN	?GetStrLastByte@@YAHPAD@Z:PROC			; GetStrLastByte
EXTRN	?GetKeyInputFocus@@YAXPAUSTR_BUFFER@@@Z:PROC	; GetKeyInputFocus
EXTRN	?InitChat@@YAXXZ:PROC				; InitChat
EXTRN	?FlashKeyboardCursor@@YAXXZ:PROC		; FlashKeyboardCursor
EXTRN	?StrToNowStrBuffer@@YAXPAD@Z:PROC		; StrToNowStrBuffer
EXTRN	?StockFontBuffer@@YAHHHDHPADH@Z:PROC		; StockFontBuffer
EXTRN	?StockFontBufferExt@@YAHHHDHPADHH@Z:PROC	; StockFontBufferExt
EXTRN	?StockFontBuffer2@@YAXPAUSTR_BUFFER@@@Z:PROC	; StockFontBuffer2
EXTRN	?pattern@@YAHPAUaction@@HH@Z:PROC		; pattern
EXTRN	?initConnectServer@@YAXXZ:PROC			; initConnectServer
EXTRN	?connectServer@@YAHXZ:PROC			; connectServer
EXTRN	?charListStart@@YAXXZ:PROC			; charListStart
EXTRN	?charListProc@@YAHXZ:PROC			; charListProc
EXTRN	?charLoginStart@@YAXXZ:PROC			; charLoginStart
EXTRN	?charLoginProc@@YAHXZ:PROC			; charLoginProc
EXTRN	?createNewCharStart@@YAXXZ:PROC			; createNewCharStart
EXTRN	?createNewCharProc@@YAHXZ:PROC			; createNewCharProc
EXTRN	?charLogoutStart@@YAXXZ:PROC			; charLogoutStart
EXTRN	?charLogoutProc@@YAHXZ:PROC			; charLogoutProc
EXTRN	?delCharStart@@YAXXZ:PROC			; delCharStart
EXTRN	?delCharProc@@YAHXZ:PROC			; delCharProc
EXTRN	?initNet@@YAHXZ:PROC				; initNet
EXTRN	?cleanupNetwork@@YAXXZ:PROC			; cleanupNetwork
EXTRN	?resetPc@@YAXXZ:PROC				; resetPc
EXTRN	?existCharacterListEntry@@YAHH@Z:PROC		; existCharacterListEntry
EXTRN	?cmpNameCharacterList@@YAHPAD@Z:PROC		; cmpNameCharacterList
EXTRN	?resetCharacterList@@YAHH@Z:PROC		; resetCharacterList
EXTRN	?CHAR_getMaxHaveGold@@YAHXZ:PROC		; CHAR_getMaxHaveGold
EXTRN	?getStringToken@@YAHPADDHH0@Z:PROC		; getStringToken
EXTRN	?getIntegerToken@@YAHPADDH@Z:PROC		; getIntegerToken
EXTRN	?makeStringFromEscaped@@YAPADPAD@Z:PROC		; makeStringFromEscaped
EXTRN	?makeEscapeString@@YAPADPAD0H@Z:PROC		; makeEscapeString
EXTRN	?initCharObj@@YAXXZ:PROC			; initCharObj
EXTRN	?getCharObjAct@@YAPAUaction@@H@Z:PROC		; getCharObjAct
EXTRN	?clearUserSetting@@YAXH@Z:PROC			; clearUserSetting
EXTRN	?saveNowState@@YAHXZ:PROC			; saveNowState
EXTRN	?GetImeString@@YAPADXZ:PROC			; GetImeString
EXTRN	?ShowBottomLineString@@YAXHPAD@Z:PROC		; ShowBottomLineString
EXTRN	?ImeProc@@YAXXZ:PROC				; ImeProc
EXTRN	?InitMenu@@YAXXZ:PROC				; InitMenu
EXTRN	?InitMenu2@@YAXXZ:PROC				; InitMenu2
EXTRN	?CheckMenuFlag@@YAHXZ:PROC			; CheckMenuFlag
EXTRN	?MakeWindowDisp@@YAPAUaction@@HHHHHH@Z:PROC	; MakeWindowDisp
EXTRN	?MakeHitBox@@YAHHHHHH@Z:PROC			; MakeHitBox
EXTRN	?CenteringStr@@YAXPAD0H@Z:PROC			; CenteringStr
EXTRN	?MakeAnimDisp@@YAPAUaction@@HHHH@Z:PROC		; MakeAnimDisp
EXTRN	?play_se@@YAHHHH@Z:PROC				; play_se
EXTRN	?play_bgm@@YAHH@Z:PROC				; play_bgm
EXTRN	?fade_out_bgm@@YAXXZ:PROC			; fade_out_bgm
EXTRN	?lssproto_TK_recv@@YAXHHPADH@Z:PROC		; lssproto_TK_recv
EXTRN	?lssproto_WN_recv@@YAXHHHHHPAD@Z:PROC		; lssproto_WN_recv
EXTRN	?lssproto_WN_send@@YAXHHHHHHPAD@Z:PROC		; lssproto_WN_send
EXTRN	?lssproto_CharLogout_send@@YAXHH@Z:PROC		; lssproto_CharLogout_send
EXTRN	?lssproto_FM_send@@YAXHPAD@Z:PROC		; lssproto_FM_send
EXTRN	?old_lssproto_WN_send@@YAXHHHHHHPAD@Z:PROC	; old_lssproto_WN_send
EXTRN	?old_lssproto_FM_send@@YAXHPAD@Z:PROC		; old_lssproto_FM_send
EXTRN	__time64:PROC
EXTRN	?initFieldProc@@YAXXZ:PROC			; initFieldProc
EXTRN	?closeCharActionAnimeChange@@YAXXZ:PROC		; closeCharActionAnimeChange
EXTRN	?closeEtcSwitch@@YAXXZ:PROC			; closeEtcSwitch
EXTRN	?closeJoinChannelWN@@YAXXZ:PROC			; closeJoinChannelWN
EXTRN	?ReleaseSpecAnim@@YAXXZ:PROC			; ReleaseSpecAnim
EXTRN	?CopyBackBuffer@@YAXXZ:PROC			; CopyBackBuffer
EXTRN	?DrawProduce@@YAHH@Z:PROC			; DrawProduce
EXTRN	?ecb_crypt@@YAHPAD0II@Z:PROC			; ecb_crypt
EXTRN	?FindWinIntLua@@YAPAUlua_State@@HPAD@Z:PROC	; FindWinIntLua
EXTRN	?FreeCreateWinTypeLua@@YAPAUaction@@PAUlua_State@@@Z:PROC ; FreeCreateWinTypeLua
EXTRN	?FreeServerWinTypeLua@@YAPAUaction@@PAUlua_State@@@Z:PROC ; FreeServerWinTypeLua
EXTRN	?JL_Get_UsernameAndPassword@@YAXPAD0@Z:PROC	; JL_Get_UsernameAndPassword
EXTRN	?SkyIslandRelease@@YAXXZ:PROC			; SkyIslandRelease
EXTRN	?AniRandomRelease@@YAXXZ:PROC			; AniRandomRelease
EXTRN	?crossAniRelease@@YAXXZ:PROC			; crossAniRelease
EXTRN	?CharbubbleRelease@@YAXXZ:PROC			; CharbubbleRelease
EXTRN	?ImmobileAniRelease@@YAXXZ:PROC			; ImmobileAniRelease
EXTRN	@__security_check_cookie@4:PROC
EXTRN	_memset:PROC
EXTRN	?DISPLACEMENT_X@@3HA:DWORD			; DISPLACEMENT_X
EXTRN	?DISPLACEMENT_Y@@3HA:DWORD			; DISPLACEMENT_Y
EXTRN	?lpDraw@@3PAUDIRECT_DRAW@@A:DWORD		; lpDraw
EXTRN	?BackBufferDrawType@@3HA:DWORD			; BackBufferDrawType
EXTRN	?hWnd@@3PAUHWND__@@A:DWORD			; hWnd
EXTRN	?ResoMode@@3HA:DWORD				; ResoMode
EXTRN	?gmsv@@3PAUgameserver@@A:BYTE			; gmsv
EXTRN	?gmgroup@@3PAUgamegroup@@A:BYTE			; gmgroup
EXTRN	?NowTime@@3KA:DWORD				; NowTime
EXTRN	?SubProcNo@@3IA:DWORD				; SubProcNo
EXTRN	?joy_con@@3PAKA:QWORD				; joy_con
EXTRN	?joy_trg@@3PAKA:QWORD				; joy_trg
EXTRN	?joy_auto@@3PAKA:QWORD				; joy_auto
EXTRN	?pNowStrBuffer@@3PAUSTR_BUFFER@@A:DWORD		; pNowStrBuffer
EXTRN	?MyChatBuffer@@3USTR_BUFFER@@A:BYTE		; MyChatBuffer
EXTRN	?mouse@@3UMOUSE@@A:BYTE				; mouse
EXTRN	?HitFontNo@@3HA:DWORD				; HitFontNo
EXTRN	?HitDispNo@@3HA:DWORD				; HitDispNo
EXTRN	?BoxColor@@3HA:DWORD				; BoxColor
EXTRN	?selectServerIndex@@3FA:WORD			; selectServerIndex
EXTRN	?gamestate_login_charname@@3PADA:BYTE		; gamestate_login_charname
EXTRN	?gamestate_deletechar_charname@@3PADA:BYTE	; gamestate_deletechar_charname
EXTRN	?netprocErrmsg@@3PADA:BYTE			; netprocErrmsg
EXTRN	?sockfd@@3IA:DWORD				; sockfd
EXTRN	?disconnectServerFlag@@3HA:DWORD		; disconnectServerFlag
EXTRN	?pc@@3UPC@@A:BYTE				; pc
EXTRN	?maxPcNo@@3FA:WORD				; maxPcNo
EXTRN	?selectPcNo@@3FA:WORD				; selectPcNo
EXTRN	?loginDp@@3HA:DWORD				; loginDp
EXTRN	?pet@@3PAUPET@@A:BYTE				; pet
EXTRN	?party@@3PAUPARTY@@A:BYTE			; party
EXTRN	?partyModeFlag@@3FA:WORD			; partyModeFlag
EXTRN	?petSkill@@3PAY06UPET_SKILL@@A:BYTE		; petSkill
EXTRN	?chartable@@3PAUCHARLISTTABLE@@A:BYTE		; chartable
EXTRN	?newCharacterName@@3PADA:BYTE			; newCharacterName
EXTRN	?newCharacterGraNo@@3HA:DWORD			; newCharacterGraNo
EXTRN	?newCharacterFaceGraNo@@3HA:DWORD		; newCharacterFaceGraNo
EXTRN	?newCharacterVit@@3HA:DWORD			; newCharacterVit
EXTRN	?newCharacterStr@@3HA:DWORD			; newCharacterStr
EXTRN	?newCharacterTgh@@3HA:DWORD			; newCharacterTgh
EXTRN	?newCharacterDex@@3HA:DWORD			; newCharacterDex
EXTRN	?newCharacterEarth@@3HA:DWORD			; newCharacterEarth
EXTRN	?newCharacterWater@@3HA:DWORD			; newCharacterWater
EXTRN	?newCharacterFire@@3HA:DWORD			; newCharacterFire
EXTRN	?newCharacterWind@@3HA:DWORD			; newCharacterWind
EXTRN	?newCharacterHomeTown@@3HA:DWORD		; newCharacterHomeTown
EXTRN	?sCharSide@@3HA:DWORD				; sCharSide
EXTRN	?TalkMode@@3HA:DWORD				; TalkMode
EXTRN	?secretName@@3PADA:BYTE				; secretName
EXTRN	?map_bgm_no@@3HA:DWORD				; map_bgm_no
EXTRN	?nowGx@@3HA:DWORD				; nowGx
EXTRN	?nowGy@@3HA:DWORD				; nowGy
EXTRN	?bNewServer@@3HA:DWORD				; bNewServer
EXTRN	?angelFlag@@3HA:DWORD				; angelFlag
EXTRN	?angelRecvType@@3HA:DWORD			; angelRecvType
EXTRN	?angelRecvButton@@3HA:DWORD			; angelRecvButton
EXTRN	?angelMsg@@3PADA:BYTE				; angelMsg
EXTRN	?actBtn@@3FA:WORD				; actBtn
EXTRN	?menuBtn@@3FA:WORD				; menuBtn
EXTRN	?CG_COMMON_WIN_YORO@@3HA:DWORD			; CG_COMMON_WIN_YORO
EXTRN	?CG_ITEMSHOP_WIN@@3HA:DWORD			; CG_ITEMSHOP_WIN
EXTRN	?CG_SKILLSHOP_WIN@@3HA:DWORD			; CG_SKILLSHOP_WIN
EXTRN	?CG_ITEMSHOP_KOSU_WIN@@3HA:DWORD		; CG_ITEMSHOP_KOSU_WIN
EXTRN	?CG_FAMILY_DETAIL_WIN@@3HA:DWORD		; CG_FAMILY_DETAIL_WIN
EXTRN	?ProduceInitFlag@@3HA:DWORD			; ProduceInitFlag
EXTRN	?dwServer@@3KA:DWORD				; dwServer
EXTRN	?iWGS@@3HA:DWORD				; iWGS
EXTRN	?PcLanded@@3ULanded@@A:BYTE			; PcLanded
EXTRN	?isWGS7@@3HA:DWORD				; isWGS7
EXTRN	?hPing@@3PAXA:DWORD				; hPing
EXTRN	?sockRaw@@3IA:DWORD				; sockRaw
EXTRN	?í»?Ôô?ãÀÜú??@@3HA:DWORD			; í»?Ôô?ãÀÜú??
EXTRN	?í»?Ôô?ãÀÜú??@@3HA:DWORD			; í»?Ôô?ãÀÜú??
EXTRN	?szAnnouncement@@3PADA:BYTE			; szAnnouncement
EXTRN	?Ûå???@@3HA:DWORD				; Ûå???
EXTRN	???@@3HA:DWORD					; ??
EXTRN	?í»?Ôô?ãÀÜú??@@3HA:DWORD			; í»?Ôô?ãÀÜú??
EXTRN	?Ûå???@@3HA:DWORD				; Ûå???
EXTRN	???@@3HA:DWORD					; ??
EXTRN	?í»?Ôô?ãÀÜú??@@3HA:DWORD			; í»?Ôô?ãÀÜú??
EXTRN	?í»?Ôô?ãÀÜú??@@3HA:DWORD			; í»?Ôô?ãÀÜú??
EXTRN	?ãÀÜúñìÔô@@3HA:DWORD				; ãÀÜúñìÔô
EXTRN	?ãÀÜúñìÔô?ÔàÖõ@@3HA:DWORD			; ãÀÜúñìÔô?ÔàÖõ
EXTRN	?í»?Ôô?ãÀÜú??@@3HA:DWORD			; í»?Ôô?ãÀÜú??
EXTRN	?ãÀÜúñìÔôAIÙ¼ãÒ@@3HA:DWORD			; ãÀÜúñìÔôAIÙ¼ãÒ
EXTRN	?ãÀÜúñìÔôìÑÚªÛ°ú¾@@3HA:DWORD			; ãÀÜúñìÔôìÑÚªÛ°ú¾
EXTRN	?ãÀÜúñìÔô??@@3HA:DWORD				; ãÀÜúñìÔô??
EXTRN	?ãÀÜúñìÔôùâ?@@3HA:DWORD				; ãÀÜúñìÔôùâ?
EXTRN	?ãÀÜúñì?Ôô??_1@@3HA:DWORD			; ãÀÜúñì?Ôô??_1
EXTRN	?systemWndNo@@3IA:DWORD				; systemWndNo
EXTRN	___security_cookie:DWORD
;	COMDAT ?_OptionsStorage@?1??__local_stdio_printf_options@@9@4_KA
_BSS	SEGMENT
?_OptionsStorage@?1??__local_stdio_printf_options@@9@4_KA DQ 01H DUP (?) ; `__local_stdio_printf_options'::`2'::_OptionsStorage
_BSS	ENDS
;	COMDAT ?_OptionsStorage@?1??__local_stdio_scanf_options@@9@4_KA
_BSS	SEGMENT
?_OptionsStorage@?1??__local_stdio_scanf_options@@9@4_KA DQ 01H DUP (?) ; `__local_stdio_scanf_options'::`2'::_OptionsStorage
_BSS	ENDS
_BSS	SEGMENT
?selCharGraColorWinProcNo@@3HA DD 01H DUP (?)		; selCharGraColorWinProcNo
?idPasswordFocusSw@@3HA DD 01H DUP (?)			; idPasswordFocusSw
?idKeyBoxX@@3FA DW 01H DUP (?)				; idKeyBoxX
	ALIGN	4

?idKeyBoxY@@3FA DW 01H DUP (?)				; idKeyBoxY
	ALIGN	4

?passwdBoxX@@3FA DW 01H DUP (?)				; passwdBoxX
	ALIGN	4

?passwdBoxY@@3FA DW 01H DUP (?)				; passwdBoxY
	ALIGN	4

?bAgain@@3HA DD	01H DUP (?)				; bAgain
_BSS	ENDS
;	COMDAT ?ptActMenuWin@?1??idPasswordProc@@YAXXZ@4PAUaction@@A
_BSS	SEGMENT
?ptActMenuWin@?1??idPasswordProc@@YAXXZ@4PAUaction@@A DD 01H DUP (?) ; `idPasswordProc'::`2'::ptActMenuWin
_BSS	ENDS
;	COMDAT ?x@?1??idPasswordProc@@YAXXZ@4HA
_BSS	SEGMENT
?x@?1??idPasswordProc@@YAXXZ@4HA DD 01H DUP (?)		; `idPasswordProc'::`2'::x
_BSS	ENDS
;	COMDAT ?y@?1??idPasswordProc@@YAXXZ@4HA
_BSS	SEGMENT
?y@?1??idPasswordProc@@YAXXZ@4HA DD 01H DUP (?)		; `idPasswordProc'::`2'::y
_BSS	ENDS
;	COMDAT ?w@?1??idPasswordProc@@YAXXZ@4HA
_BSS	SEGMENT
?w@?1??idPasswordProc@@YAXXZ@4HA DD 01H DUP (?)		; `idPasswordProc'::`2'::w
_BSS	ENDS
;	COMDAT ?h@?1??idPasswordProc@@YAXXZ@4HA
_BSS	SEGMENT
?h@?1??idPasswordProc@@YAXXZ@4HA DD 01H DUP (?)		; `idPasswordProc'::`2'::h
_BSS	ENDS
;	COMDAT ?msg@?1??idPasswordProc@@YAXXZ@4PADA
_BSS	SEGMENT
?msg@?1??idPasswordProc@@YAXXZ@4PADA DB 0100H DUP (?)	; `idPasswordProc'::`2'::msg
_BSS	ENDS
;	COMDAT ?flag2@?1??inputIdPassword@@YAHH@Z@4HA
_BSS	SEGMENT
?flag2@?1??inputIdPassword@@YAHH@Z@4HA DD 01H DUP (?)	; `inputIdPassword'::`2'::flag2
_BSS	ENDS
;	COMDAT ?oldId@?1??inputIdPassword@@YAHH@Z@4HA
_BSS	SEGMENT
?oldId@?1??inputIdPassword@@YAHH@Z@4HA DD 01H DUP (?)	; `inputIdPassword'::`2'::oldId
_BSS	ENDS
_BSS	SEGMENT
?commonMsgWinProcNo@@3FA DW 01H DUP (?)			; commonMsgWinProcNo
_BSS	ENDS
;	COMDAT ?ptActMenuWin@?1??commonMsgWin@@YAHPAD@Z@4PAUaction@@A
_BSS	SEGMENT
?ptActMenuWin@?1??commonMsgWin@@YAHPAD@Z@4PAUaction@@A DD 01H DUP (?) ; `commonMsgWin'::`2'::ptActMenuWin
_BSS	ENDS
;	COMDAT ?x@?1??commonMsgWin@@YAHPAD@Z@4HA
_BSS	SEGMENT
?x@?1??commonMsgWin@@YAHPAD@Z@4HA DD 01H DUP (?)	; `commonMsgWin'::`2'::x
_BSS	ENDS
;	COMDAT ?y@?1??commonMsgWin@@YAHPAD@Z@4HA
_BSS	SEGMENT
?y@?1??commonMsgWin@@YAHPAD@Z@4HA DD 01H DUP (?)	; `commonMsgWin'::`2'::y
_BSS	ENDS
;	COMDAT ?w@?1??commonMsgWin@@YAHPAD@Z@4HA
_BSS	SEGMENT
?w@?1??commonMsgWin@@YAHPAD@Z@4HA DD 01H DUP (?)	; `commonMsgWin'::`2'::w
_BSS	ENDS
;	COMDAT ?h@?1??commonMsgWin@@YAHPAD@Z@4HA
_BSS	SEGMENT
?h@?1??commonMsgWin@@YAHPAD@Z@4HA DD 01H DUP (?)	; `commonMsgWin'::`2'::h
_BSS	ENDS
;	COMDAT ?msg@?1??titleProc@@YAXXZ@4PADA
_BSS	SEGMENT
?msg@?1??titleProc@@YAXXZ@4PADA DB 0100H DUP (?)	; `titleProc'::`2'::msg
_BSS	ENDS
;	COMDAT ?x@?1??selectGroup@@YAHXZ@4HA
_BSS	SEGMENT
?x@?1??selectGroup@@YAHXZ@4HA DD 01H DUP (?)		; `selectGroup'::`2'::x
_BSS	ENDS
;	COMDAT ?y@?1??selectGroup@@YAHXZ@4HA
_BSS	SEGMENT
?y@?1??selectGroup@@YAHXZ@4HA DD 01H DUP (?)		; `selectGroup'::`2'::y
_BSS	ENDS
;	COMDAT ?x@?1??selectServer@@YAHXZ@4HA
_BSS	SEGMENT
?x@?1??selectServer@@YAHXZ@4HA DD 01H DUP (?)		; `selectServer'::`2'::x
_BSS	ENDS
;	COMDAT ?y@?1??selectServer@@YAHXZ@4HA
_BSS	SEGMENT
?y@?1??selectServer@@YAHXZ@4HA DD 01H DUP (?)		; `selectServer'::`2'::y
_BSS	ENDS
_BSS	SEGMENT
	ALIGN	4

?connecGameServerProcNo@@3FA DW 01H DUP (?)		; connecGameServerProcNo
_BSS	ENDS
;	COMDAT ?ptActMenuWin@?1??connecGameServer@@YAHXZ@4PAUaction@@A
_BSS	SEGMENT
?ptActMenuWin@?1??connecGameServer@@YAHXZ@4PAUaction@@A DD 01H DUP (?) ; `connecGameServer'::`2'::ptActMenuWin
_BSS	ENDS
;	COMDAT ?x@?1??connecGameServer@@YAHXZ@4HA
_BSS	SEGMENT
?x@?1??connecGameServer@@YAHXZ@4HA DD 01H DUP (?)	; `connecGameServer'::`2'::x
_BSS	ENDS
;	COMDAT ?y@?1??connecGameServer@@YAHXZ@4HA
_BSS	SEGMENT
?y@?1??connecGameServer@@YAHXZ@4HA DD 01H DUP (?)	; `connecGameServer'::`2'::y
_BSS	ENDS
;	COMDAT ?w@?1??connecGameServer@@YAHXZ@4HA
_BSS	SEGMENT
?w@?1??connecGameServer@@YAHXZ@4HA DD 01H DUP (?)	; `connecGameServer'::`2'::w
_BSS	ENDS
;	COMDAT ?h@?1??connecGameServer@@YAHXZ@4HA
_BSS	SEGMENT
?h@?1??connecGameServer@@YAHXZ@4HA DD 01H DUP (?)	; `connecGameServer'::`2'::h
_BSS	ENDS
;	COMDAT ?msg@?1??connecGameServer@@YAHXZ@4PADA
_BSS	SEGMENT
?msg@?1??connecGameServer@@YAHXZ@4PADA DB 0100H DUP (?)	; `connecGameServer'::`2'::msg
_BSS	ENDS
;	COMDAT ?msg@?1??selectCharacterProc@@YAXXZ@4PADA
_BSS	SEGMENT
?msg@?1??selectCharacterProc@@YAXXZ@4PADA DB 0100H DUP (?) ; `selectCharacterProc'::`2'::msg
_BSS	ENDS
_BSS	SEGMENT
	ALIGN	4

?deleteCharacterProcNo@@3FA DW 01H DUP (?)		; deleteCharacterProcNo
_BSS	ENDS
;	COMDAT ?ptActMenuWin@?1??deleteCharacter@@YAHXZ@4PAUaction@@A
_BSS	SEGMENT
?ptActMenuWin@?1??deleteCharacter@@YAHXZ@4PAUaction@@A DD 01H DUP (?) ; `deleteCharacter'::`2'::ptActMenuWin
_BSS	ENDS
;	COMDAT ?x@?1??deleteCharacter@@YAHXZ@4HA
_BSS	SEGMENT
?x@?1??deleteCharacter@@YAHXZ@4HA DD 01H DUP (?)	; `deleteCharacter'::`2'::x
_BSS	ENDS
;	COMDAT ?y@?1??deleteCharacter@@YAHXZ@4HA
_BSS	SEGMENT
?y@?1??deleteCharacter@@YAHXZ@4HA DD 01H DUP (?)	; `deleteCharacter'::`2'::y
_BSS	ENDS
;	COMDAT ?w@?1??deleteCharacter@@YAHXZ@4HA
_BSS	SEGMENT
?w@?1??deleteCharacter@@YAHXZ@4HA DD 01H DUP (?)	; `deleteCharacter'::`2'::w
_BSS	ENDS
;	COMDAT ?h@?1??deleteCharacter@@YAHXZ@4HA
_BSS	SEGMENT
?h@?1??deleteCharacter@@YAHXZ@4HA DD 01H DUP (?)	; `deleteCharacter'::`2'::h
_BSS	ENDS
_BSS	SEGMENT
	ALIGN	4

?downloadCharListProcNo@@3FA DW 01H DUP (?)		; downloadCharListProcNo
_BSS	ENDS
;	COMDAT ?ptActMenuWin@?1??downloadCharList@@YAHXZ@4PAUaction@@A
_BSS	SEGMENT
?ptActMenuWin@?1??downloadCharList@@YAHXZ@4PAUaction@@A DD 01H DUP (?) ; `downloadCharList'::`2'::ptActMenuWin
_BSS	ENDS
;	COMDAT ?x@?1??downloadCharList@@YAHXZ@4HA
_BSS	SEGMENT
?x@?1??downloadCharList@@YAHXZ@4HA DD 01H DUP (?)	; `downloadCharList'::`2'::x
_BSS	ENDS
;	COMDAT ?y@?1??downloadCharList@@YAHXZ@4HA
_BSS	SEGMENT
?y@?1??downloadCharList@@YAHXZ@4HA DD 01H DUP (?)	; `downloadCharList'::`2'::y
_BSS	ENDS
;	COMDAT ?w@?1??downloadCharList@@YAHXZ@4HA
_BSS	SEGMENT
?w@?1??downloadCharList@@YAHXZ@4HA DD 01H DUP (?)	; `downloadCharList'::`2'::w
_BSS	ENDS
;	COMDAT ?h@?1??downloadCharList@@YAHXZ@4HA
_BSS	SEGMENT
?h@?1??downloadCharList@@YAHXZ@4HA DD 01H DUP (?)	; `downloadCharList'::`2'::h
_BSS	ENDS
;	COMDAT ?msg@?1??downloadCharList@@YAHXZ@4PADA
_BSS	SEGMENT
?msg@?1??downloadCharList@@YAHXZ@4PADA DB 0100H DUP (?)	; `downloadCharList'::`2'::msg
_BSS	ENDS
_BSS	SEGMENT
	ALIGN	4

?ptActSelChar@@3PAPAUaction@@A DD 0cH DUP (?)		; ptActSelChar
?selCharColor@@3PAHA DD 0cH DUP (?)			; selCharColor
?selCharDir@@3PAHA DD 0cH DUP (?)			; selCharDir
?selCharGraNoProcNo@@3HA DD 01H DUP (?)			; selCharGraNoProcNo
?nowSelCharGraNo@@3HA DD 01H DUP (?)			; nowSelCharGraNo
?nowSelCharMouthNo@@3HA DD 01H DUP (?)			; nowSelCharMouthNo
?nowSelCharEyeNo@@3HA DD 01H DUP (?)			; nowSelCharEyeNo
?nowSelCharStatusPoint@@3HA DD 01H DUP (?)		; nowSelCharStatusPoint
?nowSelCharStatus@@3PAHA DD 04H DUP (?)			; nowSelCharStatus
?nowSelCharAttrPoint@@3HA DD 01H DUP (?)		; nowSelCharAttrPoint
?nowSelCharAttr@@3PAHA DD 04H DUP (?)			; nowSelCharAttr
?editCharParamProcNo@@3HA DD 01H DUP (?)		; editCharParamProcNo
?selCharNameBoxX@@3HA DD 01H DUP (?)			; selCharNameBoxX
?selCharNameBoxY@@3HA DD 01H DUP (?)			; selCharNameBoxY
?selHomeTownProcNo@@3HA DD 01H DUP (?)			; selHomeTownProcNo
?nowSelHomeTownNo@@3HA DD 01H DUP (?)			; nowSelHomeTownNo
?createCharProcNo@@3HA DD 01H DUP (?)			; createCharProcNo
_BSS	ENDS
;	COMDAT ?ptActMenuWin@?1??selCharGraColorWin@@YAHXZ@4PAUaction@@A
_BSS	SEGMENT
?ptActMenuWin@?1??selCharGraColorWin@@YAHXZ@4PAUaction@@A DD 01H DUP (?) ; `selCharGraColorWin'::`2'::ptActMenuWin
_BSS	ENDS
;	COMDAT ?x@?1??selCharGraColorWin@@YAHXZ@4HA
_BSS	SEGMENT
?x@?1??selCharGraColorWin@@YAHXZ@4HA DD 01H DUP (?)	; `selCharGraColorWin'::`2'::x
_BSS	ENDS
;	COMDAT ?y@?1??selCharGraColorWin@@YAHXZ@4HA
_BSS	SEGMENT
?y@?1??selCharGraColorWin@@YAHXZ@4HA DD 01H DUP (?)	; `selCharGraColorWin'::`2'::y
_BSS	ENDS
;	COMDAT ?w@?1??selCharGraColorWin@@YAHXZ@4HA
_BSS	SEGMENT
?w@?1??selCharGraColorWin@@YAHXZ@4HA DD 01H DUP (?)	; `selCharGraColorWin'::`2'::w
_BSS	ENDS
;	COMDAT ?h@?1??selCharGraColorWin@@YAHXZ@4HA
_BSS	SEGMENT
?h@?1??selCharGraColorWin@@YAHXZ@4HA DD 01H DUP (?)	; `selCharGraColorWin'::`2'::h
_BSS	ENDS
;	COMDAT ?ptActMenuWin@?1??createChar@@YAHXZ@4PAUaction@@A
_BSS	SEGMENT
?ptActMenuWin@?1??createChar@@YAHXZ@4PAUaction@@A DD 01H DUP (?) ; `createChar'::`2'::ptActMenuWin
_BSS	ENDS
;	COMDAT ?x@?1??createChar@@YAHXZ@4HA
_BSS	SEGMENT
?x@?1??createChar@@YAHXZ@4HA DD 01H DUP (?)		; `createChar'::`2'::x
_BSS	ENDS
;	COMDAT ?y@?1??createChar@@YAHXZ@4HA
_BSS	SEGMENT
?y@?1??createChar@@YAHXZ@4HA DD 01H DUP (?)		; `createChar'::`2'::y
_BSS	ENDS
;	COMDAT ?w@?1??createChar@@YAHXZ@4HA
_BSS	SEGMENT
?w@?1??createChar@@YAHXZ@4HA DD 01H DUP (?)		; `createChar'::`2'::w
_BSS	ENDS
;	COMDAT ?h@?1??createChar@@YAHXZ@4HA
_BSS	SEGMENT
?h@?1??createChar@@YAHXZ@4HA DD 01H DUP (?)		; `createChar'::`2'::h
_BSS	ENDS
;	COMDAT ?msg@?1??characterLoginProc@@YAXXZ@4PADA
_BSS	SEGMENT
?msg@?1??characterLoginProc@@YAXXZ@4PADA DB 0100H DUP (?) ; `characterLoginProc'::`2'::msg
_BSS	ENDS
_BSS	SEGMENT
?charLoginProcNo@@3FA DW 01H DUP (?)			; charLoginProcNo
_BSS	ENDS
;	COMDAT ?ptActMenuWin@?1??charLogin@@YAHXZ@4PAUaction@@A
_BSS	SEGMENT
?ptActMenuWin@?1??charLogin@@YAHXZ@4PAUaction@@A DD 01H DUP (?) ; `charLogin'::`2'::ptActMenuWin
_BSS	ENDS
;	COMDAT ?x@?1??charLogin@@YAHXZ@4HA
_BSS	SEGMENT
?x@?1??charLogin@@YAHXZ@4HA DD 01H DUP (?)		; `charLogin'::`2'::x
_BSS	ENDS
;	COMDAT ?y@?1??charLogin@@YAHXZ@4HA
_BSS	SEGMENT
?y@?1??charLogin@@YAHXZ@4HA DD 01H DUP (?)		; `charLogin'::`2'::y
_BSS	ENDS
;	COMDAT ?w@?1??charLogin@@YAHXZ@4HA
_BSS	SEGMENT
?w@?1??charLogin@@YAHXZ@4HA DD 01H DUP (?)		; `charLogin'::`2'::w
_BSS	ENDS
;	COMDAT ?h@?1??charLogin@@YAHXZ@4HA
_BSS	SEGMENT
?h@?1??charLogin@@YAHXZ@4HA DD 01H DUP (?)		; `charLogin'::`2'::h
_BSS	ENDS
_BSS	SEGMENT
	ALIGN	4

?produce_vct_no@@3HA DD 01H DUP (?)			; produce_vct_no
_BSS	ENDS
;	COMDAT ?msg@?1??characterLogoutProc@@YAXXZ@4PADA
_BSS	SEGMENT
?msg@?1??characterLogoutProc@@YAXXZ@4PADA DB 0100H DUP (?) ; `characterLogoutProc'::`2'::msg
_BSS	ENDS
_BSS	SEGMENT
?charLogoutProcNo@@3HA DD 01H DUP (?)			; charLogoutProcNo
_BSS	ENDS
;	COMDAT ?ptActMenuWin@?1??charLogout@@YAHXZ@4PAUaction@@A
_BSS	SEGMENT
?ptActMenuWin@?1??charLogout@@YAHXZ@4PAUaction@@A DD 01H DUP (?) ; `charLogout'::`2'::ptActMenuWin
_BSS	ENDS
;	COMDAT ?x@?1??charLogout@@YAHXZ@4HA
_BSS	SEGMENT
?x@?1??charLogout@@YAHXZ@4HA DD 01H DUP (?)		; `charLogout'::`2'::x
_BSS	ENDS
;	COMDAT ?y@?1??charLogout@@YAHXZ@4HA
_BSS	SEGMENT
?y@?1??charLogout@@YAHXZ@4HA DD 01H DUP (?)		; `charLogout'::`2'::y
_BSS	ENDS
;	COMDAT ?w@?1??charLogout@@YAHXZ@4HA
_BSS	SEGMENT
?w@?1??charLogout@@YAHXZ@4HA DD 01H DUP (?)		; `charLogout'::`2'::w
_BSS	ENDS
;	COMDAT ?h@?1??charLogout@@YAHXZ@4HA
_BSS	SEGMENT
?h@?1??charLogout@@YAHXZ@4HA DD 01H DUP (?)		; `charLogout'::`2'::h
_BSS	ENDS
;	COMDAT ?winX@?1??serverWindowType0@@YAXH@Z@4HA
_BSS	SEGMENT
?winX@?1??serverWindowType0@@YAXH@Z@4HA DD 01H DUP (?)	; `serverWindowType0'::`2'::winX
_BSS	ENDS
;	COMDAT ?winY@?1??serverWindowType0@@YAXH@Z@4HA
_BSS	SEGMENT
?winY@?1??serverWindowType0@@YAXH@Z@4HA DD 01H DUP (?)	; `serverWindowType0'::`2'::winY
_BSS	ENDS
;	COMDAT ?winW@?1??serverWindowType0@@YAXH@Z@4HA
_BSS	SEGMENT
?winW@?1??serverWindowType0@@YAXH@Z@4HA DD 01H DUP (?)	; `serverWindowType0'::`2'::winW
_BSS	ENDS
;	COMDAT ?winH@?1??serverWindowType0@@YAXH@Z@4HA
_BSS	SEGMENT
?winH@?1??serverWindowType0@@YAXH@Z@4HA DD 01H DUP (?)	; `serverWindowType0'::`2'::winH
_BSS	ENDS
;	COMDAT ?btnLoc@?1??serverWindowType0@@YAXH@Z@4PAY01HA
_BSS	SEGMENT
?btnLoc@?1??serverWindowType0@@YAXH@Z@4PAY01HA DD 0cH DUP (?) ; `serverWindowType0'::`2'::btnLoc
_BSS	ENDS
;	COMDAT ?btnCnt@?1??serverWindowType0@@YAXH@Z@4HA
_BSS	SEGMENT
?btnCnt@?1??serverWindowType0@@YAXH@Z@4HA DD 01H DUP (?) ; `serverWindowType0'::`2'::btnCnt
_BSS	ENDS
;	COMDAT ?msgLine@?1??serverWindowType0@@YAXH@Z@4HA
_BSS	SEGMENT
?msgLine@?1??serverWindowType0@@YAXH@Z@4HA DD 01H DUP (?) ; `serverWindowType0'::`2'::msgLine
_BSS	ENDS
;	COMDAT ?input@?1??serverWindowType0@@YAXH@Z@4USTR_BUFFER@@A
_BSS	SEGMENT
?input@?1??serverWindowType0@@YAXH@Z@4USTR_BUFFER@@A DB 0128H DUP (?) ; `serverWindowType0'::`2'::input
_BSS	ENDS
;	COMDAT ?totalMsgLine@?1??serverWindowType0@@YAXH@Z@4HA
_BSS	SEGMENT
?totalMsgLine@?1??serverWindowType0@@YAXH@Z@4HA DD 01H DUP (?) ; `serverWindowType0'::`2'::totalMsgLine
_BSS	ENDS
;	COMDAT ?lineSkip@?1??serverWindowType0@@YAXH@Z@4HA
_BSS	SEGMENT
?lineSkip@?1??serverWindowType0@@YAXH@Z@4HA DD 01H DUP (?) ; `serverWindowType0'::`2'::lineSkip
_BSS	ENDS
;	COMDAT ?thisAction@?1??serverWindowType0@@YAXH@Z@4PAUaction@@A
_BSS	SEGMENT
?thisAction@?1??serverWindowType0@@YAXH@Z@4PAUaction@@A DD 01H DUP (?) ; `serverWindowType0'::`2'::thisAction
_BSS	ENDS
;	COMDAT ?winX@?1??serverWindowType1@@YAXXZ@4HA
_BSS	SEGMENT
?winX@?1??serverWindowType1@@YAXXZ@4HA DD 01H DUP (?)	; `serverWindowType1'::`2'::winX
_BSS	ENDS
;	COMDAT ?winY@?1??serverWindowType1@@YAXXZ@4HA
_BSS	SEGMENT
?winY@?1??serverWindowType1@@YAXXZ@4HA DD 01H DUP (?)	; `serverWindowType1'::`2'::winY
_BSS	ENDS
;	COMDAT ?winW@?1??serverWindowType1@@YAXXZ@4HA
_BSS	SEGMENT
?winW@?1??serverWindowType1@@YAXXZ@4HA DD 01H DUP (?)	; `serverWindowType1'::`2'::winW
_BSS	ENDS
;	COMDAT ?winH@?1??serverWindowType1@@YAXXZ@4HA
_BSS	SEGMENT
?winH@?1??serverWindowType1@@YAXXZ@4HA DD 01H DUP (?)	; `serverWindowType1'::`2'::winH
_BSS	ENDS
;	COMDAT ?btnLoc@?1??serverWindowType1@@YAXXZ@4PAY01HA
_BSS	SEGMENT
?btnLoc@?1??serverWindowType1@@YAXXZ@4PAY01HA DD 0cH DUP (?) ; `serverWindowType1'::`2'::btnLoc
_BSS	ENDS
;	COMDAT ?btnCnt@?1??serverWindowType1@@YAXXZ@4HA
_BSS	SEGMENT
?btnCnt@?1??serverWindowType1@@YAXXZ@4HA DD 01H DUP (?)	; `serverWindowType1'::`2'::btnCnt
_BSS	ENDS
;	COMDAT ?msgLine@?1??serverWindowType1@@YAXXZ@4HA
_BSS	SEGMENT
?msgLine@?1??serverWindowType1@@YAXXZ@4HA DD 01H DUP (?) ; `serverWindowType1'::`2'::msgLine
_BSS	ENDS
;	COMDAT ?winX@?1??serverWindowType2@@YAXXZ@4HA
_BSS	SEGMENT
?winX@?1??serverWindowType2@@YAXXZ@4HA DD 01H DUP (?)	; `serverWindowType2'::`2'::winX
_BSS	ENDS
;	COMDAT ?winY@?1??serverWindowType2@@YAXXZ@4HA
_BSS	SEGMENT
?winY@?1??serverWindowType2@@YAXXZ@4HA DD 01H DUP (?)	; `serverWindowType2'::`2'::winY
_BSS	ENDS
;	COMDAT ?winW@?1??serverWindowType2@@YAXXZ@4HA
_BSS	SEGMENT
?winW@?1??serverWindowType2@@YAXXZ@4HA DD 01H DUP (?)	; `serverWindowType2'::`2'::winW
_BSS	ENDS
;	COMDAT ?winH@?1??serverWindowType2@@YAXXZ@4HA
_BSS	SEGMENT
?winH@?1??serverWindowType2@@YAXXZ@4HA DD 01H DUP (?)	; `serverWindowType2'::`2'::winH
_BSS	ENDS
;	COMDAT ?btnLoc@?1??serverWindowType2@@YAXXZ@4PAY01HA
_BSS	SEGMENT
?btnLoc@?1??serverWindowType2@@YAXXZ@4PAY01HA DD 0cH DUP (?) ; `serverWindowType2'::`2'::btnLoc
_BSS	ENDS
;	COMDAT ?btnCnt@?1??serverWindowType2@@YAXXZ@4HA
_BSS	SEGMENT
?btnCnt@?1??serverWindowType2@@YAXXZ@4HA DD 01H DUP (?)	; `serverWindowType2'::`2'::btnCnt
_BSS	ENDS
;	COMDAT ?winX@?1??serverWindowType3@@YAXXZ@4HA
_BSS	SEGMENT
?winX@?1??serverWindowType3@@YAXXZ@4HA DD 01H DUP (?)	; `serverWindowType3'::`2'::winX
_BSS	ENDS
;	COMDAT ?winY@?1??serverWindowType3@@YAXXZ@4HA
_BSS	SEGMENT
?winY@?1??serverWindowType3@@YAXXZ@4HA DD 01H DUP (?)	; `serverWindowType3'::`2'::winY
_BSS	ENDS
;	COMDAT ?winW@?1??serverWindowType3@@YAXXZ@4HA
_BSS	SEGMENT
?winW@?1??serverWindowType3@@YAXXZ@4HA DD 01H DUP (?)	; `serverWindowType3'::`2'::winW
_BSS	ENDS
;	COMDAT ?winH@?1??serverWindowType3@@YAXXZ@4HA
_BSS	SEGMENT
?winH@?1??serverWindowType3@@YAXXZ@4HA DD 01H DUP (?)	; `serverWindowType3'::`2'::winH
_BSS	ENDS
;	COMDAT ?btnLoc@?1??serverWindowType3@@YAXXZ@4PAY01HA
_BSS	SEGMENT
?btnLoc@?1??serverWindowType3@@YAXXZ@4PAY01HA DD 0cH DUP (?) ; `serverWindowType3'::`2'::btnLoc
_BSS	ENDS
;	COMDAT ?btnCnt@?1??serverWindowType3@@YAXXZ@4HA
_BSS	SEGMENT
?btnCnt@?1??serverWindowType3@@YAXXZ@4HA DD 01H DUP (?)	; `serverWindowType3'::`2'::btnCnt
_BSS	ENDS
;	COMDAT ?winX@?1??serverWindowType4@@YAXXZ@4HA
_BSS	SEGMENT
?winX@?1??serverWindowType4@@YAXXZ@4HA DD 01H DUP (?)	; `serverWindowType4'::`2'::winX
_BSS	ENDS
;	COMDAT ?winY@?1??serverWindowType4@@YAXXZ@4HA
_BSS	SEGMENT
?winY@?1??serverWindowType4@@YAXXZ@4HA DD 01H DUP (?)	; `serverWindowType4'::`2'::winY
_BSS	ENDS
;	COMDAT ?winW@?1??serverWindowType4@@YAXXZ@4HA
_BSS	SEGMENT
?winW@?1??serverWindowType4@@YAXXZ@4HA DD 01H DUP (?)	; `serverWindowType4'::`2'::winW
_BSS	ENDS
;	COMDAT ?winH@?1??serverWindowType4@@YAXXZ@4HA
_BSS	SEGMENT
?winH@?1??serverWindowType4@@YAXXZ@4HA DD 01H DUP (?)	; `serverWindowType4'::`2'::winH
_BSS	ENDS
;	COMDAT ?btnLoc@?1??serverWindowType4@@YAXXZ@4PAY01HA
_BSS	SEGMENT
?btnLoc@?1??serverWindowType4@@YAXXZ@4PAY01HA DD 0cH DUP (?) ; `serverWindowType4'::`2'::btnLoc
_BSS	ENDS
;	COMDAT ?btnCnt@?1??serverWindowType4@@YAXXZ@4HA
_BSS	SEGMENT
?btnCnt@?1??serverWindowType4@@YAXXZ@4HA DD 01H DUP (?)	; `serverWindowType4'::`2'::btnCnt
_BSS	ENDS
;	COMDAT ?winX@?1??serverWindowType9@@YAXXZ@4HA
_BSS	SEGMENT
?winX@?1??serverWindowType9@@YAXXZ@4HA DD 01H DUP (?)	; `serverWindowType9'::`2'::winX
_BSS	ENDS
;	COMDAT ?winY@?1??serverWindowType9@@YAXXZ@4HA
_BSS	SEGMENT
?winY@?1??serverWindowType9@@YAXXZ@4HA DD 01H DUP (?)	; `serverWindowType9'::`2'::winY
_BSS	ENDS
;	COMDAT ?winW@?1??serverWindowType9@@YAXXZ@4HA
_BSS	SEGMENT
?winW@?1??serverWindowType9@@YAXXZ@4HA DD 01H DUP (?)	; `serverWindowType9'::`2'::winW
_BSS	ENDS
;	COMDAT ?winH@?1??serverWindowType9@@YAXXZ@4HA
_BSS	SEGMENT
?winH@?1??serverWindowType9@@YAXXZ@4HA DD 01H DUP (?)	; `serverWindowType9'::`2'::winH
_BSS	ENDS
;	COMDAT ?btnLoc@?1??serverWindowType9@@YAXXZ@4PAY01HA
_BSS	SEGMENT
?btnLoc@?1??serverWindowType9@@YAXXZ@4PAY01HA DD 0cH DUP (?) ; `serverWindowType9'::`2'::btnLoc
_BSS	ENDS
;	COMDAT ?btnCnt@?1??serverWindowType9@@YAXXZ@4HA
_BSS	SEGMENT
?btnCnt@?1??serverWindowType9@@YAXXZ@4HA DD 01H DUP (?)	; `serverWindowType9'::`2'::btnCnt
_BSS	ENDS
;	COMDAT ?selects@?1??serverWindowType9@@YAXXZ@4HA
_BSS	SEGMENT
?selects@?1??serverWindowType9@@YAXXZ@4HA DD 01H DUP (?) ; `serverWindowType9'::`2'::selects
_BSS	ENDS
;	COMDAT ?winX@?1??serverWindowType10@@YAXXZ@4HA
_BSS	SEGMENT
?winX@?1??serverWindowType10@@YAXXZ@4HA DD 01H DUP (?)	; `serverWindowType10'::`2'::winX
_BSS	ENDS
;	COMDAT ?winY@?1??serverWindowType10@@YAXXZ@4HA
_BSS	SEGMENT
?winY@?1??serverWindowType10@@YAXXZ@4HA DD 01H DUP (?)	; `serverWindowType10'::`2'::winY
_BSS	ENDS
;	COMDAT ?winW@?1??serverWindowType10@@YAXXZ@4HA
_BSS	SEGMENT
?winW@?1??serverWindowType10@@YAXXZ@4HA DD 01H DUP (?)	; `serverWindowType10'::`2'::winW
_BSS	ENDS
;	COMDAT ?winH@?1??serverWindowType10@@YAXXZ@4HA
_BSS	SEGMENT
?winH@?1??serverWindowType10@@YAXXZ@4HA DD 01H DUP (?)	; `serverWindowType10'::`2'::winH
_BSS	ENDS
;	COMDAT ?btnLoc@?1??serverWindowType10@@YAXXZ@4PAY01HA
_BSS	SEGMENT
?btnLoc@?1??serverWindowType10@@YAXXZ@4PAY01HA DD 0cH DUP (?) ; `serverWindowType10'::`2'::btnLoc
_BSS	ENDS
;	COMDAT ?btnCnt@?1??serverWindowType10@@YAXXZ@4HA
_BSS	SEGMENT
?btnCnt@?1??serverWindowType10@@YAXXZ@4HA DD 01H DUP (?) ; `serverWindowType10'::`2'::btnCnt
_BSS	ENDS
;	COMDAT ?msgLine@?1??serverWindowType10@@YAXXZ@4HA
_BSS	SEGMENT
?msgLine@?1??serverWindowType10@@YAXXZ@4HA DD 01H DUP (?) ; `serverWindowType10'::`2'::msgLine
_BSS	ENDS
;	COMDAT ?winX@?1??serverWindowType11@@YAXXZ@4HA
_BSS	SEGMENT
?winX@?1??serverWindowType11@@YAXXZ@4HA DD 01H DUP (?)	; `serverWindowType11'::`2'::winX
_BSS	ENDS
;	COMDAT ?winY@?1??serverWindowType11@@YAXXZ@4HA
_BSS	SEGMENT
?winY@?1??serverWindowType11@@YAXXZ@4HA DD 01H DUP (?)	; `serverWindowType11'::`2'::winY
_BSS	ENDS
;	COMDAT ?winW@?1??serverWindowType11@@YAXXZ@4HA
_BSS	SEGMENT
?winW@?1??serverWindowType11@@YAXXZ@4HA DD 01H DUP (?)	; `serverWindowType11'::`2'::winW
_BSS	ENDS
;	COMDAT ?winH@?1??serverWindowType11@@YAXXZ@4HA
_BSS	SEGMENT
?winH@?1??serverWindowType11@@YAXXZ@4HA DD 01H DUP (?)	; `serverWindowType11'::`2'::winH
_BSS	ENDS
;	COMDAT ?btnLoc@?1??serverWindowType11@@YAXXZ@4PAY01HA
_BSS	SEGMENT
?btnLoc@?1??serverWindowType11@@YAXXZ@4PAY01HA DD 0cH DUP (?) ; `serverWindowType11'::`2'::btnLoc
_BSS	ENDS
;	COMDAT ?btnCnt@?1??serverWindowType11@@YAXXZ@4HA
_BSS	SEGMENT
?btnCnt@?1??serverWindowType11@@YAXXZ@4HA DD 01H DUP (?) ; `serverWindowType11'::`2'::btnCnt
_BSS	ENDS
;	COMDAT ?msgLine@?1??serverWindowType11@@YAXXZ@4HA
_BSS	SEGMENT
?msgLine@?1??serverWindowType11@@YAXXZ@4HA DD 01H DUP (?) ; `serverWindowType11'::`2'::msgLine
_BSS	ENDS
;	COMDAT ?winX@?1??serverWindowType12@@YAXXZ@4HA
_BSS	SEGMENT
?winX@?1??serverWindowType12@@YAXXZ@4HA DD 01H DUP (?)	; `serverWindowType12'::`2'::winX
_BSS	ENDS
;	COMDAT ?winY@?1??serverWindowType12@@YAXXZ@4HA
_BSS	SEGMENT
?winY@?1??serverWindowType12@@YAXXZ@4HA DD 01H DUP (?)	; `serverWindowType12'::`2'::winY
_BSS	ENDS
;	COMDAT ?winW@?1??serverWindowType12@@YAXXZ@4HA
_BSS	SEGMENT
?winW@?1??serverWindowType12@@YAXXZ@4HA DD 01H DUP (?)	; `serverWindowType12'::`2'::winW
_BSS	ENDS
;	COMDAT ?winH@?1??serverWindowType12@@YAXXZ@4HA
_BSS	SEGMENT
?winH@?1??serverWindowType12@@YAXXZ@4HA DD 01H DUP (?)	; `serverWindowType12'::`2'::winH
_BSS	ENDS
;	COMDAT ?btnLoc@?1??serverWindowType12@@YAXXZ@4PAY01HA
_BSS	SEGMENT
?btnLoc@?1??serverWindowType12@@YAXXZ@4PAY01HA DD 0cH DUP (?) ; `serverWindowType12'::`2'::btnLoc
_BSS	ENDS
;	COMDAT ?btnCnt@?1??serverWindowType12@@YAXXZ@4HA
_BSS	SEGMENT
?btnCnt@?1??serverWindowType12@@YAXXZ@4HA DD 01H DUP (?) ; `serverWindowType12'::`2'::btnCnt
_BSS	ENDS
;	COMDAT ?msgLine@?1??serverWindowType12@@YAXXZ@4HA
_BSS	SEGMENT
?msgLine@?1??serverWindowType12@@YAXXZ@4HA DD 01H DUP (?) ; `serverWindowType12'::`2'::msgLine
_BSS	ENDS
;	COMDAT ?x@?1??shopWindow1@@YAHXZ@4HA
_BSS	SEGMENT
?x@?1??shopWindow1@@YAHXZ@4HA DD 01H DUP (?)		; `shopWindow1'::`2'::x
_BSS	ENDS
;	COMDAT ?y@?1??shopWindow1@@YAHXZ@4HA
_BSS	SEGMENT
?y@?1??shopWindow1@@YAHXZ@4HA DD 01H DUP (?)		; `shopWindow1'::`2'::y
_BSS	ENDS
;	COMDAT ?w@?1??shopWindow1@@YAHXZ@4HA
_BSS	SEGMENT
?w@?1??shopWindow1@@YAHXZ@4HA DD 01H DUP (?)		; `shopWindow1'::`2'::w
_BSS	ENDS
;	COMDAT ?h@?1??shopWindow1@@YAHXZ@4HA
_BSS	SEGMENT
?h@?1??shopWindow1@@YAHXZ@4HA DD 01H DUP (?)		; `shopWindow1'::`2'::h
_BSS	ENDS
;	COMDAT ?btnId@?1??shopWindow1@@YAHXZ@4PAHA
_BSS	SEGMENT
?btnId@?1??shopWindow1@@YAHXZ@4PAHA DD 03H DUP (?)	; `shopWindow1'::`2'::btnId
_BSS	ENDS
;	COMDAT ?x@?1??shopWindow2@@YAHXZ@4HA
_BSS	SEGMENT
?x@?1??shopWindow2@@YAHXZ@4HA DD 01H DUP (?)		; `shopWindow2'::`2'::x
_BSS	ENDS
;	COMDAT ?y@?1??shopWindow2@@YAHXZ@4HA
_BSS	SEGMENT
?y@?1??shopWindow2@@YAHXZ@4HA DD 01H DUP (?)		; `shopWindow2'::`2'::y
_BSS	ENDS
;	COMDAT ?w@?1??shopWindow2@@YAHXZ@4HA
_BSS	SEGMENT
?w@?1??shopWindow2@@YAHXZ@4HA DD 01H DUP (?)		; `shopWindow2'::`2'::w
_BSS	ENDS
;	COMDAT ?h@?1??shopWindow2@@YAHXZ@4HA
_BSS	SEGMENT
?h@?1??shopWindow2@@YAHXZ@4HA DD 01H DUP (?)		; `shopWindow2'::`2'::h
_BSS	ENDS
;	COMDAT ?btnId@?1??shopWindow2@@YAHXZ@4PAHA
_BSS	SEGMENT
?btnId@?1??shopWindow2@@YAHXZ@4PAHA DD 03H DUP (?)	; `shopWindow2'::`2'::btnId
_BSS	ENDS
;	COMDAT ?x@?1??shopWindow3@@YAHXZ@4HA
_BSS	SEGMENT
?x@?1??shopWindow3@@YAHXZ@4HA DD 01H DUP (?)		; `shopWindow3'::`2'::x
_BSS	ENDS
;	COMDAT ?y@?1??shopWindow3@@YAHXZ@4HA
_BSS	SEGMENT
?y@?1??shopWindow3@@YAHXZ@4HA DD 01H DUP (?)		; `shopWindow3'::`2'::y
_BSS	ENDS
;	COMDAT ?w@?1??shopWindow3@@YAHXZ@4HA
_BSS	SEGMENT
?w@?1??shopWindow3@@YAHXZ@4HA DD 01H DUP (?)		; `shopWindow3'::`2'::w
_BSS	ENDS
;	COMDAT ?h@?1??shopWindow3@@YAHXZ@4HA
_BSS	SEGMENT
?h@?1??shopWindow3@@YAHXZ@4HA DD 01H DUP (?)		; `shopWindow3'::`2'::h
_BSS	ENDS
;	COMDAT ?btnId@?1??shopWindow3@@YAHXZ@4PAHA
_BSS	SEGMENT
?btnId@?1??shopWindow3@@YAHXZ@4PAHA DD 04H DUP (?)	; `shopWindow3'::`2'::btnId
_BSS	ENDS
;	COMDAT ?x@?1??shopWindow4@@YAHXZ@4HA
_BSS	SEGMENT
?x@?1??shopWindow4@@YAHXZ@4HA DD 01H DUP (?)		; `shopWindow4'::`2'::x
_BSS	ENDS
;	COMDAT ?y@?1??shopWindow4@@YAHXZ@4HA
_BSS	SEGMENT
?y@?1??shopWindow4@@YAHXZ@4HA DD 01H DUP (?)		; `shopWindow4'::`2'::y
_BSS	ENDS
;	COMDAT ?w@?1??shopWindow4@@YAHXZ@4HA
_BSS	SEGMENT
?w@?1??shopWindow4@@YAHXZ@4HA DD 01H DUP (?)		; `shopWindow4'::`2'::w
_BSS	ENDS
;	COMDAT ?h@?1??shopWindow4@@YAHXZ@4HA
_BSS	SEGMENT
?h@?1??shopWindow4@@YAHXZ@4HA DD 01H DUP (?)		; `shopWindow4'::`2'::h
_BSS	ENDS
;	COMDAT ?btnId@?1??shopWindow4@@YAHXZ@4PAHA
_BSS	SEGMENT
?btnId@?1??shopWindow4@@YAHXZ@4PAHA DD 02H DUP (?)	; `shopWindow4'::`2'::btnId
_BSS	ENDS
;	COMDAT ?x@?1??shopWindow5@@YAHXZ@4HA
_BSS	SEGMENT
?x@?1??shopWindow5@@YAHXZ@4HA DD 01H DUP (?)		; `shopWindow5'::`2'::x
_BSS	ENDS
;	COMDAT ?y@?1??shopWindow5@@YAHXZ@4HA
_BSS	SEGMENT
?y@?1??shopWindow5@@YAHXZ@4HA DD 01H DUP (?)		; `shopWindow5'::`2'::y
_BSS	ENDS
;	COMDAT ?w@?1??shopWindow5@@YAHXZ@4HA
_BSS	SEGMENT
?w@?1??shopWindow5@@YAHXZ@4HA DD 01H DUP (?)		; `shopWindow5'::`2'::w
_BSS	ENDS
;	COMDAT ?h@?1??shopWindow5@@YAHXZ@4HA
_BSS	SEGMENT
?h@?1??shopWindow5@@YAHXZ@4HA DD 01H DUP (?)		; `shopWindow5'::`2'::h
_BSS	ENDS
;	COMDAT ?btnId@?1??shopWindow5@@YAHXZ@4PAHA
_BSS	SEGMENT
?btnId@?1??shopWindow5@@YAHXZ@4PAHA DD 02H DUP (?)	; `shopWindow5'::`2'::btnId
_BSS	ENDS
;	COMDAT ?x@?1??shopWindow6@@YAHXZ@4HA
_BSS	SEGMENT
?x@?1??shopWindow6@@YAHXZ@4HA DD 01H DUP (?)		; `shopWindow6'::`2'::x
_BSS	ENDS
;	COMDAT ?y@?1??shopWindow6@@YAHXZ@4HA
_BSS	SEGMENT
?y@?1??shopWindow6@@YAHXZ@4HA DD 01H DUP (?)		; `shopWindow6'::`2'::y
_BSS	ENDS
;	COMDAT ?w@?1??shopWindow6@@YAHXZ@4HA
_BSS	SEGMENT
?w@?1??shopWindow6@@YAHXZ@4HA DD 01H DUP (?)		; `shopWindow6'::`2'::w
_BSS	ENDS
;	COMDAT ?h@?1??shopWindow6@@YAHXZ@4HA
_BSS	SEGMENT
?h@?1??shopWindow6@@YAHXZ@4HA DD 01H DUP (?)		; `shopWindow6'::`2'::h
_BSS	ENDS
;	COMDAT ?btnId@?1??shopWindow6@@YAHXZ@4PAHA
_BSS	SEGMENT
?btnId@?1??shopWindow6@@YAHXZ@4PAHA DD 01H DUP (?)	; `shopWindow6'::`2'::btnId
_BSS	ENDS
;	COMDAT ?x@?1??shopWindow7@@YAHXZ@4HA
_BSS	SEGMENT
?x@?1??shopWindow7@@YAHXZ@4HA DD 01H DUP (?)		; `shopWindow7'::`2'::x
_BSS	ENDS
;	COMDAT ?y@?1??shopWindow7@@YAHXZ@4HA
_BSS	SEGMENT
?y@?1??shopWindow7@@YAHXZ@4HA DD 01H DUP (?)		; `shopWindow7'::`2'::y
_BSS	ENDS
;	COMDAT ?w@?1??shopWindow7@@YAHXZ@4HA
_BSS	SEGMENT
?w@?1??shopWindow7@@YAHXZ@4HA DD 01H DUP (?)		; `shopWindow7'::`2'::w
_BSS	ENDS
;	COMDAT ?h@?1??shopWindow7@@YAHXZ@4HA
_BSS	SEGMENT
?h@?1??shopWindow7@@YAHXZ@4HA DD 01H DUP (?)		; `shopWindow7'::`2'::h
_BSS	ENDS
;	COMDAT ?btnId@?1??shopWindow7@@YAHXZ@4PAHA
_BSS	SEGMENT
?btnId@?1??shopWindow7@@YAHXZ@4PAHA DD 03H DUP (?)	; `shopWindow7'::`2'::btnId
_BSS	ENDS
;	COMDAT ?x@?1??shopWindow8@@YAHXZ@4HA
_BSS	SEGMENT
?x@?1??shopWindow8@@YAHXZ@4HA DD 01H DUP (?)		; `shopWindow8'::`2'::x
_BSS	ENDS
;	COMDAT ?y@?1??shopWindow8@@YAHXZ@4HA
_BSS	SEGMENT
?y@?1??shopWindow8@@YAHXZ@4HA DD 01H DUP (?)		; `shopWindow8'::`2'::y
_BSS	ENDS
;	COMDAT ?w@?1??shopWindow8@@YAHXZ@4HA
_BSS	SEGMENT
?w@?1??shopWindow8@@YAHXZ@4HA DD 01H DUP (?)		; `shopWindow8'::`2'::w
_BSS	ENDS
;	COMDAT ?h@?1??shopWindow8@@YAHXZ@4HA
_BSS	SEGMENT
?h@?1??shopWindow8@@YAHXZ@4HA DD 01H DUP (?)		; `shopWindow8'::`2'::h
_BSS	ENDS
;	COMDAT ?btnId@?1??shopWindow8@@YAHXZ@4PAHA
_BSS	SEGMENT
?btnId@?1??shopWindow8@@YAHXZ@4PAHA DD 01H DUP (?)	; `shopWindow8'::`2'::btnId
_BSS	ENDS
;	COMDAT ?x@?1??shopWindow10@@YAHXZ@4HA
_BSS	SEGMENT
?x@?1??shopWindow10@@YAHXZ@4HA DD 01H DUP (?)		; `shopWindow10'::`2'::x
_BSS	ENDS
;	COMDAT ?y@?1??shopWindow10@@YAHXZ@4HA
_BSS	SEGMENT
?y@?1??shopWindow10@@YAHXZ@4HA DD 01H DUP (?)		; `shopWindow10'::`2'::y
_BSS	ENDS
;	COMDAT ?w@?1??shopWindow10@@YAHXZ@4HA
_BSS	SEGMENT
?w@?1??shopWindow10@@YAHXZ@4HA DD 01H DUP (?)		; `shopWindow10'::`2'::w
_BSS	ENDS
;	COMDAT ?h@?1??shopWindow10@@YAHXZ@4HA
_BSS	SEGMENT
?h@?1??shopWindow10@@YAHXZ@4HA DD 01H DUP (?)		; `shopWindow10'::`2'::h
_BSS	ENDS
;	COMDAT ?btnId@?1??shopWindow10@@YAHXZ@4PAHA
_BSS	SEGMENT
?btnId@?1??shopWindow10@@YAHXZ@4PAHA DD 04H DUP (?)	; `shopWindow10'::`2'::btnId
_BSS	ENDS
;	COMDAT ?x@?1??profession_windows_1@@YAHXZ@4HA
_BSS	SEGMENT
?x@?1??profession_windows_1@@YAHXZ@4HA DD 01H DUP (?)	; `profession_windows_1'::`2'::x
_BSS	ENDS
;	COMDAT ?y@?1??profession_windows_1@@YAHXZ@4HA
_BSS	SEGMENT
?y@?1??profession_windows_1@@YAHXZ@4HA DD 01H DUP (?)	; `profession_windows_1'::`2'::y
_BSS	ENDS
;	COMDAT ?w@?1??profession_windows_1@@YAHXZ@4HA
_BSS	SEGMENT
?w@?1??profession_windows_1@@YAHXZ@4HA DD 01H DUP (?)	; `profession_windows_1'::`2'::w
_BSS	ENDS
;	COMDAT ?h@?1??profession_windows_1@@YAHXZ@4HA
_BSS	SEGMENT
?h@?1??profession_windows_1@@YAHXZ@4HA DD 01H DUP (?)	; `profession_windows_1'::`2'::h
_BSS	ENDS
;	COMDAT ?btnId@?1??profession_windows_1@@YAHXZ@4PAHA
_BSS	SEGMENT
?btnId@?1??profession_windows_1@@YAHXZ@4PAHA DD 03H DUP (?) ; `profession_windows_1'::`2'::btnId
_BSS	ENDS
;	COMDAT ?x@?1??profession_windows_2@@YAHXZ@4HA
_BSS	SEGMENT
?x@?1??profession_windows_2@@YAHXZ@4HA DD 01H DUP (?)	; `profession_windows_2'::`2'::x
_BSS	ENDS
;	COMDAT ?y@?1??profession_windows_2@@YAHXZ@4HA
_BSS	SEGMENT
?y@?1??profession_windows_2@@YAHXZ@4HA DD 01H DUP (?)	; `profession_windows_2'::`2'::y
_BSS	ENDS
;	COMDAT ?w@?1??profession_windows_2@@YAHXZ@4HA
_BSS	SEGMENT
?w@?1??profession_windows_2@@YAHXZ@4HA DD 01H DUP (?)	; `profession_windows_2'::`2'::w
_BSS	ENDS
;	COMDAT ?h@?1??profession_windows_2@@YAHXZ@4HA
_BSS	SEGMENT
?h@?1??profession_windows_2@@YAHXZ@4HA DD 01H DUP (?)	; `profession_windows_2'::`2'::h
_BSS	ENDS
;	COMDAT ?btnId@?1??profession_windows_2@@YAHXZ@4PAHA
_BSS	SEGMENT
?btnId@?1??profession_windows_2@@YAHXZ@4PAHA DD 02H DUP (?) ; `profession_windows_2'::`2'::btnId
_BSS	ENDS
;	COMDAT ?msg1@?1??profession_windows_2@@YAHXZ@4PADA
_BSS	SEGMENT
?msg1@?1??profession_windows_2@@YAHXZ@4PADA DB 080H DUP (?) ; `profession_windows_2'::`2'::msg1
_BSS	ENDS
;	COMDAT ?x@?1??PetSkillShowType1@@YAXXZ@4HA
_BSS	SEGMENT
?x@?1??PetSkillShowType1@@YAXXZ@4HA DD 01H DUP (?)	; `PetSkillShowType1'::`2'::x
_BSS	ENDS
;	COMDAT ?y@?1??PetSkillShowType1@@YAXXZ@4HA
_BSS	SEGMENT
?y@?1??PetSkillShowType1@@YAXXZ@4HA DD 01H DUP (?)	; `PetSkillShowType1'::`2'::y
_BSS	ENDS
;	COMDAT ?w@?1??PetSkillShowType1@@YAXXZ@4HA
_BSS	SEGMENT
?w@?1??PetSkillShowType1@@YAXXZ@4HA DD 01H DUP (?)	; `PetSkillShowType1'::`2'::w
_BSS	ENDS
;	COMDAT ?h@?1??PetSkillShowType1@@YAXXZ@4HA
_BSS	SEGMENT
?h@?1??PetSkillShowType1@@YAXXZ@4HA DD 01H DUP (?)	; `PetSkillShowType1'::`2'::h
_BSS	ENDS
;	COMDAT ?btnId@?1??PetSkillShowType1@@YAXXZ@4PAHA
_BSS	SEGMENT
?btnId@?1??PetSkillShowType1@@YAXXZ@4PAHA DD 01H DUP (?) ; `PetSkillShowType1'::`2'::btnId
_BSS	ENDS
;	COMDAT ?x@?1??skillShopWindow1@@YAHXZ@4HA
_BSS	SEGMENT
?x@?1??skillShopWindow1@@YAHXZ@4HA DD 01H DUP (?)	; `skillShopWindow1'::`2'::x
_BSS	ENDS
;	COMDAT ?y@?1??skillShopWindow1@@YAHXZ@4HA
_BSS	SEGMENT
?y@?1??skillShopWindow1@@YAHXZ@4HA DD 01H DUP (?)	; `skillShopWindow1'::`2'::y
_BSS	ENDS
;	COMDAT ?w@?1??skillShopWindow1@@YAHXZ@4HA
_BSS	SEGMENT
?w@?1??skillShopWindow1@@YAHXZ@4HA DD 01H DUP (?)	; `skillShopWindow1'::`2'::w
_BSS	ENDS
;	COMDAT ?h@?1??skillShopWindow1@@YAHXZ@4HA
_BSS	SEGMENT
?h@?1??skillShopWindow1@@YAHXZ@4HA DD 01H DUP (?)	; `skillShopWindow1'::`2'::h
_BSS	ENDS
;	COMDAT ?btnId@?1??skillShopWindow1@@YAHXZ@4PAHA
_BSS	SEGMENT
?btnId@?1??skillShopWindow1@@YAHXZ@4PAHA DD 03H DUP (?)	; `skillShopWindow1'::`2'::btnId
_BSS	ENDS
;	COMDAT ?x@?1??skillShopWindow2@@YAHXZ@4HA
_BSS	SEGMENT
?x@?1??skillShopWindow2@@YAHXZ@4HA DD 01H DUP (?)	; `skillShopWindow2'::`2'::x
_BSS	ENDS
;	COMDAT ?y@?1??skillShopWindow2@@YAHXZ@4HA
_BSS	SEGMENT
?y@?1??skillShopWindow2@@YAHXZ@4HA DD 01H DUP (?)	; `skillShopWindow2'::`2'::y
_BSS	ENDS
;	COMDAT ?w@?1??skillShopWindow2@@YAHXZ@4HA
_BSS	SEGMENT
?w@?1??skillShopWindow2@@YAHXZ@4HA DD 01H DUP (?)	; `skillShopWindow2'::`2'::w
_BSS	ENDS
;	COMDAT ?h@?1??skillShopWindow2@@YAHXZ@4HA
_BSS	SEGMENT
?h@?1??skillShopWindow2@@YAHXZ@4HA DD 01H DUP (?)	; `skillShopWindow2'::`2'::h
_BSS	ENDS
;	COMDAT ?btnId@?1??skillShopWindow2@@YAHXZ@4PAHA
_BSS	SEGMENT
?btnId@?1??skillShopWindow2@@YAHXZ@4PAHA DD 01H DUP (?)	; `skillShopWindow2'::`2'::btnId
_BSS	ENDS
;	COMDAT ?x@?1??skillShopWindow3@@YAHXZ@4HA
_BSS	SEGMENT
?x@?1??skillShopWindow3@@YAHXZ@4HA DD 01H DUP (?)	; `skillShopWindow3'::`2'::x
_BSS	ENDS
;	COMDAT ?y@?1??skillShopWindow3@@YAHXZ@4HA
_BSS	SEGMENT
?y@?1??skillShopWindow3@@YAHXZ@4HA DD 01H DUP (?)	; `skillShopWindow3'::`2'::y
_BSS	ENDS
;	COMDAT ?w@?1??skillShopWindow3@@YAHXZ@4HA
_BSS	SEGMENT
?w@?1??skillShopWindow3@@YAHXZ@4HA DD 01H DUP (?)	; `skillShopWindow3'::`2'::w
_BSS	ENDS
;	COMDAT ?h@?1??skillShopWindow3@@YAHXZ@4HA
_BSS	SEGMENT
?h@?1??skillShopWindow3@@YAHXZ@4HA DD 01H DUP (?)	; `skillShopWindow3'::`2'::h
_BSS	ENDS
;	COMDAT ?btnId@?1??skillShopWindow3@@YAHXZ@4PAHA
_BSS	SEGMENT
?btnId@?1??skillShopWindow3@@YAHXZ@4PAHA DD 01H DUP (?)	; `skillShopWindow3'::`2'::btnId
_BSS	ENDS
;	COMDAT ?x@?1??skillShopWindow4@@YAHXZ@4HA
_BSS	SEGMENT
?x@?1??skillShopWindow4@@YAHXZ@4HA DD 01H DUP (?)	; `skillShopWindow4'::`2'::x
_BSS	ENDS
;	COMDAT ?y@?1??skillShopWindow4@@YAHXZ@4HA
_BSS	SEGMENT
?y@?1??skillShopWindow4@@YAHXZ@4HA DD 01H DUP (?)	; `skillShopWindow4'::`2'::y
_BSS	ENDS
;	COMDAT ?w@?1??skillShopWindow4@@YAHXZ@4HA
_BSS	SEGMENT
?w@?1??skillShopWindow4@@YAHXZ@4HA DD 01H DUP (?)	; `skillShopWindow4'::`2'::w
_BSS	ENDS
;	COMDAT ?h@?1??skillShopWindow4@@YAHXZ@4HA
_BSS	SEGMENT
?h@?1??skillShopWindow4@@YAHXZ@4HA DD 01H DUP (?)	; `skillShopWindow4'::`2'::h
_BSS	ENDS
;	COMDAT ?btnId@?1??skillShopWindow4@@YAHXZ@4PAHA
_BSS	SEGMENT
?btnId@?1??skillShopWindow4@@YAHXZ@4PAHA DD 02H DUP (?)	; `skillShopWindow4'::`2'::btnId
_BSS	ENDS
;	COMDAT ?msg1@?1??skillShopWindow4@@YAHXZ@4PADA
_BSS	SEGMENT
?msg1@?1??skillShopWindow4@@YAHXZ@4PADA DB 080H DUP (?)	; `skillShopWindow4'::`2'::msg1
_BSS	ENDS
;	COMDAT ?x@?1??poolShopWindow1@@YAHXZ@4HA
_BSS	SEGMENT
?x@?1??poolShopWindow1@@YAHXZ@4HA DD 01H DUP (?)	; `poolShopWindow1'::`2'::x
_BSS	ENDS
;	COMDAT ?y@?1??poolShopWindow1@@YAHXZ@4HA
_BSS	SEGMENT
?y@?1??poolShopWindow1@@YAHXZ@4HA DD 01H DUP (?)	; `poolShopWindow1'::`2'::y
_BSS	ENDS
;	COMDAT ?w@?1??poolShopWindow1@@YAHXZ@4HA
_BSS	SEGMENT
?w@?1??poolShopWindow1@@YAHXZ@4HA DD 01H DUP (?)	; `poolShopWindow1'::`2'::w
_BSS	ENDS
;	COMDAT ?h@?1??poolShopWindow1@@YAHXZ@4HA
_BSS	SEGMENT
?h@?1??poolShopWindow1@@YAHXZ@4HA DD 01H DUP (?)	; `poolShopWindow1'::`2'::h
_BSS	ENDS
;	COMDAT ?btnId@?1??poolShopWindow1@@YAHXZ@4PAHA
_BSS	SEGMENT
?btnId@?1??poolShopWindow1@@YAHXZ@4PAHA DD 03H DUP (?)	; `poolShopWindow1'::`2'::btnId
_BSS	ENDS
;	COMDAT ?x@?1??poolShopWindow2@@YAHXZ@4HA
_BSS	SEGMENT
?x@?1??poolShopWindow2@@YAHXZ@4HA DD 01H DUP (?)	; `poolShopWindow2'::`2'::x
_BSS	ENDS
;	COMDAT ?y@?1??poolShopWindow2@@YAHXZ@4HA
_BSS	SEGMENT
?y@?1??poolShopWindow2@@YAHXZ@4HA DD 01H DUP (?)	; `poolShopWindow2'::`2'::y
_BSS	ENDS
;	COMDAT ?w@?1??poolShopWindow2@@YAHXZ@4HA
_BSS	SEGMENT
?w@?1??poolShopWindow2@@YAHXZ@4HA DD 01H DUP (?)	; `poolShopWindow2'::`2'::w
_BSS	ENDS
;	COMDAT ?h@?1??poolShopWindow2@@YAHXZ@4HA
_BSS	SEGMENT
?h@?1??poolShopWindow2@@YAHXZ@4HA DD 01H DUP (?)	; `poolShopWindow2'::`2'::h
_BSS	ENDS
;	COMDAT ?btnId@?1??poolShopWindow2@@YAHXZ@4PAHA
_BSS	SEGMENT
?btnId@?1??poolShopWindow2@@YAHXZ@4PAHA DD 03H DUP (?)	; `poolShopWindow2'::`2'::btnId
_BSS	ENDS
;	COMDAT ?x@?1??poolShopWindow3@@YAHXZ@4HA
_BSS	SEGMENT
?x@?1??poolShopWindow3@@YAHXZ@4HA DD 01H DUP (?)	; `poolShopWindow3'::`2'::x
_BSS	ENDS
;	COMDAT ?y@?1??poolShopWindow3@@YAHXZ@4HA
_BSS	SEGMENT
?y@?1??poolShopWindow3@@YAHXZ@4HA DD 01H DUP (?)	; `poolShopWindow3'::`2'::y
_BSS	ENDS
;	COMDAT ?w@?1??poolShopWindow3@@YAHXZ@4HA
_BSS	SEGMENT
?w@?1??poolShopWindow3@@YAHXZ@4HA DD 01H DUP (?)	; `poolShopWindow3'::`2'::w
_BSS	ENDS
;	COMDAT ?h@?1??poolShopWindow3@@YAHXZ@4HA
_BSS	SEGMENT
?h@?1??poolShopWindow3@@YAHXZ@4HA DD 01H DUP (?)	; `poolShopWindow3'::`2'::h
_BSS	ENDS
;	COMDAT ?btnId@?1??poolShopWindow3@@YAHXZ@4PAHA
_BSS	SEGMENT
?btnId@?1??poolShopWindow3@@YAHXZ@4PAHA DD 02H DUP (?)	; `poolShopWindow3'::`2'::btnId
_BSS	ENDS
;	COMDAT ?x@?1??poolShopWindow4@@YAHXZ@4HA
_BSS	SEGMENT
?x@?1??poolShopWindow4@@YAHXZ@4HA DD 01H DUP (?)	; `poolShopWindow4'::`2'::x
_BSS	ENDS
;	COMDAT ?y@?1??poolShopWindow4@@YAHXZ@4HA
_BSS	SEGMENT
?y@?1??poolShopWindow4@@YAHXZ@4HA DD 01H DUP (?)	; `poolShopWindow4'::`2'::y
_BSS	ENDS
;	COMDAT ?w@?1??poolShopWindow4@@YAHXZ@4HA
_BSS	SEGMENT
?w@?1??poolShopWindow4@@YAHXZ@4HA DD 01H DUP (?)	; `poolShopWindow4'::`2'::w
_BSS	ENDS
;	COMDAT ?h@?1??poolShopWindow4@@YAHXZ@4HA
_BSS	SEGMENT
?h@?1??poolShopWindow4@@YAHXZ@4HA DD 01H DUP (?)	; `poolShopWindow4'::`2'::h
_BSS	ENDS
;	COMDAT ?btnId@?1??poolShopWindow4@@YAHXZ@4PAHA
_BSS	SEGMENT
?btnId@?1??poolShopWindow4@@YAHXZ@4PAHA DD 03H DUP (?)	; `poolShopWindow4'::`2'::btnId
_BSS	ENDS
_BSS	SEGMENT
?pActPet10@@3PAUaction@@A DD 01H DUP (?)		; pActPet10
?familyPetIndex@@3HA DD 01H DUP (?)			; familyPetIndex
_BSS	ENDS
;	COMDAT ?x@?1??familyAddWN@@YAXXZ@4HA
_BSS	SEGMENT
?x@?1??familyAddWN@@YAXXZ@4HA DD 01H DUP (?)		; `familyAddWN'::`2'::x
_BSS	ENDS
;	COMDAT ?y@?1??familyAddWN@@YAXXZ@4HA
_BSS	SEGMENT
?y@?1??familyAddWN@@YAXXZ@4HA DD 01H DUP (?)		; `familyAddWN'::`2'::y
_BSS	ENDS
;	COMDAT ?w@?1??familyAddWN@@YAXXZ@4HA
_BSS	SEGMENT
?w@?1??familyAddWN@@YAXXZ@4HA DD 01H DUP (?)		; `familyAddWN'::`2'::w
_BSS	ENDS
;	COMDAT ?h@?1??familyAddWN@@YAXXZ@4HA
_BSS	SEGMENT
?h@?1??familyAddWN@@YAXXZ@4HA DD 01H DUP (?)		; `familyAddWN'::`2'::h
_BSS	ENDS
;	COMDAT ?btnId@?1??familyAddWN@@YAXXZ@4PAHA
_BSS	SEGMENT
?btnId@?1??familyAddWN@@YAXXZ@4PAHA DD 05H DUP (?)	; `familyAddWN'::`2'::btnId
_BSS	ENDS
;	COMDAT ?fontId@?1??familyAddWN@@YAXXZ@4PAHA
_BSS	SEGMENT
?fontId@?1??familyAddWN@@YAXXZ@4PAHA DD 05H DUP (?)	; `familyAddWN'::`2'::fontId
_BSS	ENDS
;	COMDAT ?prevBtn@?1??familyAddWN@@YAXXZ@4HA
_BSS	SEGMENT
?prevBtn@?1??familyAddWN@@YAXXZ@4HA DD 01H DUP (?)	; `familyAddWN'::`2'::prevBtn
_BSS	ENDS
;	COMDAT ?nextBtn@?1??familyAddWN@@YAXXZ@4HA
_BSS	SEGMENT
?nextBtn@?1??familyAddWN@@YAXXZ@4HA DD 01H DUP (?)	; `familyAddWN'::`2'::nextBtn
_BSS	ENDS
;	COMDAT ?Inputforce@?1??familyAddWN@@YAXXZ@4HA
_BSS	SEGMENT
?Inputforce@?1??familyAddWN@@YAXXZ@4HA DD 01H DUP (?)	; `familyAddWN'::`2'::Inputforce
_BSS	ENDS
;	COMDAT ?ýÅíñ?Ï¢@?1??familyAddWN@@YAXXZ@4HA
_BSS	SEGMENT
?ýÅíñ?Ï¢@?1??familyAddWN@@YAXXZ@4HA DD 01H DUP (?)	; `familyAddWN'::`2'::ýÅíñ?Ï¢
_BSS	ENDS
;	COMDAT ?ýÅíñßãìÚ@?1??familyAddWN@@YAXXZ@4HA
_BSS	SEGMENT
?ýÅíñßãìÚ@?1??familyAddWN@@YAXXZ@4HA DD 01H DUP (?)	; `familyAddWN'::`2'::ýÅíñßãìÚ
_BSS	ENDS
;	COMDAT ?ýÅíñ?îñ?@?1??familyAddWN@@YAXXZ@4HA
_BSS	SEGMENT
?ýÅíñ?îñ?@?1??familyAddWN@@YAXXZ@4HA DD 01H DUP (?)	; `familyAddWN'::`2'::ýÅíñ?îñ?
_BSS	ENDS
_BSS	SEGMENT
?familyListProcNo@@3FA DW 01H DUP (?)			; familyListProcNo
	ALIGN	4

?pagenum@@3HA DD 01H DUP (?)				; pagenum
?familytotal@@3HA DD 01H DUP (?)			; familytotal
?familynum@@3HA DD 01H DUP (?)				; familynum
?pActPet11@@3PAUaction@@A DD 01H DUP (?)		; pActPet11
?familyList@@3PAUTfamilyList@@A DB 028f0H DUP (?)	; familyList
?pkListProcNo@@3FA DW 01H DUP (?)			; pkListProcNo
	ALIGN	4

?pkPlayerTotal@@3HA DD 01H DUP (?)			; pkPlayerTotal
?pkPageNum@@3HA DD 01H DUP (?)				; pkPageNum
?pkPlayerNum@@3HA DD 01H DUP (?)			; pkPlayerNum
?pkPlayerList@@3PAUTPKPlayerList@@A DB 0a78H DUP (?)	; pkPlayerList
?pkHistoryListProcNo@@3FA DW 01H DUP (?)		; pkHistoryListProcNo
	ALIGN	4

?pkHistoryMaxSeason@@3HA DD 01H DUP (?)			; pkHistoryMaxSeason
?pkHistoryPageNum@@3HA DD 01H DUP (?)			; pkHistoryPageNum
?pkHistoryPlayerNum@@3HA DD 01H DUP (?)			; pkHistoryPlayerNum
?pkHistoryInfo@@3PADA DB 040H DUP (?)			; pkHistoryInfo
?pkHistoryList@@3PAUTPKHistoryList@@A DB 0af0H DUP (?)	; pkHistoryList
_BSS	ENDS
;	COMDAT ?x@?1??familyListWN@@YAXXZ@4HA
_BSS	SEGMENT
?x@?1??familyListWN@@YAXXZ@4HA DD 01H DUP (?)		; `familyListWN'::`2'::x
_BSS	ENDS
;	COMDAT ?y@?1??familyListWN@@YAXXZ@4HA
_BSS	SEGMENT
?y@?1??familyListWN@@YAXXZ@4HA DD 01H DUP (?)		; `familyListWN'::`2'::y
_BSS	ENDS
;	COMDAT ?w@?1??familyListWN@@YAXXZ@4HA
_BSS	SEGMENT
?w@?1??familyListWN@@YAXXZ@4HA DD 01H DUP (?)		; `familyListWN'::`2'::w
_BSS	ENDS
;	COMDAT ?h@?1??familyListWN@@YAXXZ@4HA
_BSS	SEGMENT
?h@?1??familyListWN@@YAXXZ@4HA DD 01H DUP (?)		; `familyListWN'::`2'::h
_BSS	ENDS
;	COMDAT ?i@?1??familyListWN@@YAXXZ@4HA
_BSS	SEGMENT
?i@?1??familyListWN@@YAXXZ@4HA DD 01H DUP (?)		; `familyListWN'::`2'::i
_BSS	ENDS
;	COMDAT ?j@?1??familyListWN@@YAXXZ@4HA
_BSS	SEGMENT
?j@?1??familyListWN@@YAXXZ@4HA DD 01H DUP (?)		; `familyListWN'::`2'::j
_BSS	ENDS
;	COMDAT ?btnId@?1??familyListWN@@YAXXZ@4PAHA
_BSS	SEGMENT
?btnId@?1??familyListWN@@YAXXZ@4PAHA DD 05H DUP (?)	; `familyListWN'::`2'::btnId
_BSS	ENDS
;	COMDAT ?fontId@?1??familyListWN@@YAXXZ@4PAHA
_BSS	SEGMENT
?fontId@?1??familyListWN@@YAXXZ@4PAHA DD 0cH DUP (?)	; `familyListWN'::`2'::fontId
_BSS	ENDS
;	COMDAT ?prevBtn@?1??familyListWN@@YAXXZ@4HA
_BSS	SEGMENT
?prevBtn@?1??familyListWN@@YAXXZ@4HA DD 01H DUP (?)	; `familyListWN'::`2'::prevBtn
_BSS	ENDS
;	COMDAT ?nextBtn@?1??familyListWN@@YAXXZ@4HA
_BSS	SEGMENT
?nextBtn@?1??familyListWN@@YAXXZ@4HA DD 01H DUP (?)	; `familyListWN'::`2'::nextBtn
_BSS	ENDS
;	COMDAT ?prevBtn10@?1??familyListWN@@YAXXZ@4HA
_BSS	SEGMENT
?prevBtn10@?1??familyListWN@@YAXXZ@4HA DD 01H DUP (?)	; `familyListWN'::`2'::prevBtn10
_BSS	ENDS
;	COMDAT ?nextBtn10@?1??familyListWN@@YAXXZ@4HA
_BSS	SEGMENT
?nextBtn10@?1??familyListWN@@YAXXZ@4HA DD 01H DUP (?)	; `familyListWN'::`2'::nextBtn10
_BSS	ENDS
_BSS	SEGMENT
?changeData@@3PAHA DD 02H DUP (?)			; changeData
_BSS	ENDS
;	COMDAT ?ýÅíñ?Ï¢@?1??familyDetailWN@@YAHXZ@4HA
_BSS	SEGMENT
?ýÅíñ?Ï¢@?1??familyDetailWN@@YAHXZ@4HA DD 01H DUP (?)	; `familyDetailWN'::`2'::ýÅíñ?Ï¢
_BSS	ENDS
;	COMDAT ?ýÅíñßãìÚ@?1??familyDetailWN@@YAHXZ@4HA
_BSS	SEGMENT
?ýÅíñßãìÚ@?1??familyDetailWN@@YAHXZ@4HA DD 01H DUP (?)	; `familyDetailWN'::`2'::ýÅíñßãìÚ
_BSS	ENDS
;	COMDAT ?ýÅíñ?îñ?@?1??familyDetailWN@@YAHXZ@4HA
_BSS	SEGMENT
?ýÅíñ?îñ?@?1??familyDetailWN@@YAHXZ@4HA DD 01H DUP (?)	; `familyDetailWN'::`2'::ýÅíñ?îñ?
_BSS	ENDS
;	COMDAT ?w@?1??familyDetailWN@@YAHXZ@4HA
_BSS	SEGMENT
?w@?1??familyDetailWN@@YAHXZ@4HA DD 01H DUP (?)		; `familyDetailWN'::`2'::w
_BSS	ENDS
;	COMDAT ?h@?1??familyDetailWN@@YAHXZ@4HA
_BSS	SEGMENT
?h@?1??familyDetailWN@@YAHXZ@4HA DD 01H DUP (?)		; `familyDetailWN'::`2'::h
_BSS	ENDS
;	COMDAT ?x@?1??familyDetailWN@@YAHXZ@4HA
_BSS	SEGMENT
?x@?1??familyDetailWN@@YAHXZ@4HA DD 01H DUP (?)		; `familyDetailWN'::`2'::x
_BSS	ENDS
;	COMDAT ?y@?1??familyDetailWN@@YAHXZ@4HA
_BSS	SEGMENT
?y@?1??familyDetailWN@@YAHXZ@4HA DD 01H DUP (?)		; `familyDetailWN'::`2'::y
_BSS	ENDS
;	COMDAT ?i@?1??familyDetailWN@@YAHXZ@4HA
_BSS	SEGMENT
?i@?1??familyDetailWN@@YAHXZ@4HA DD 01H DUP (?)		; `familyDetailWN'::`2'::i
_BSS	ENDS
;	COMDAT ?btnId@?1??familyDetailWN@@YAHXZ@4PAHA
_BSS	SEGMENT
?btnId@?1??familyDetailWN@@YAHXZ@4PAHA DD 05H DUP (?)	; `familyDetailWN'::`2'::btnId
_BSS	ENDS
;	COMDAT ?fontId@?1??familyDetailWN@@YAHXZ@4PAHA
_BSS	SEGMENT
?fontId@?1??familyDetailWN@@YAHXZ@4PAHA DD 05H DUP (?)	; `familyDetailWN'::`2'::fontId
_BSS	ENDS
;	COMDAT ?prevBtn@?1??familyDetailWN@@YAHXZ@4HA
_BSS	SEGMENT
?prevBtn@?1??familyDetailWN@@YAHXZ@4HA DD 01H DUP (?)	; `familyDetailWN'::`2'::prevBtn
_BSS	ENDS
;	COMDAT ?nextBtn@?1??familyDetailWN@@YAHXZ@4HA
_BSS	SEGMENT
?nextBtn@?1??familyDetailWN@@YAHXZ@4HA DD 01H DUP (?)	; `familyDetailWN'::`2'::nextBtn
_BSS	ENDS
;	COMDAT ?familyPetIndex@?1??familyDetailWN@@YAHXZ@4HA
_BSS	SEGMENT
?familyPetIndex@?1??familyDetailWN@@YAHXZ@4HA DD 01H DUP (?) ; `familyDetailWN'::`2'::familyPetIndex
_BSS	ENDS
;	COMDAT ?winX@?1??FMWindowType@@YAXXZ@4HA
_BSS	SEGMENT
?winX@?1??FMWindowType@@YAXXZ@4HA DD 01H DUP (?)	; `FMWindowType'::`2'::winX
_BSS	ENDS
;	COMDAT ?winY@?1??FMWindowType@@YAXXZ@4HA
_BSS	SEGMENT
?winY@?1??FMWindowType@@YAXXZ@4HA DD 01H DUP (?)	; `FMWindowType'::`2'::winY
_BSS	ENDS
;	COMDAT ?winW@?1??FMWindowType@@YAXXZ@4HA
_BSS	SEGMENT
?winW@?1??FMWindowType@@YAXXZ@4HA DD 01H DUP (?)	; `FMWindowType'::`2'::winW
_BSS	ENDS
;	COMDAT ?winH@?1??FMWindowType@@YAXXZ@4HA
_BSS	SEGMENT
?winH@?1??FMWindowType@@YAXXZ@4HA DD 01H DUP (?)	; `FMWindowType'::`2'::winH
_BSS	ENDS
;	COMDAT ?btnLoc@?1??FMWindowType@@YAXXZ@4PAY01HA
_BSS	SEGMENT
?btnLoc@?1??FMWindowType@@YAXXZ@4PAY01HA DD 0cH DUP (?)	; `FMWindowType'::`2'::btnLoc
_BSS	ENDS
;	COMDAT ?btnCnt@?1??FMWindowType@@YAXXZ@4HA
_BSS	SEGMENT
?btnCnt@?1??FMWindowType@@YAXXZ@4HA DD 01H DUP (?)	; `FMWindowType'::`2'::btnCnt
_BSS	ENDS
;	COMDAT ?msgLine@?1??FMWindowType@@YAXXZ@4HA
_BSS	SEGMENT
?msgLine@?1??FMWindowType@@YAXXZ@4HA DD 01H DUP (?)	; `FMWindowType'::`2'::msgLine
_BSS	ENDS
;	COMDAT ?fmdelid@?1??FMWindowType@@YAXXZ@4HA
_BSS	SEGMENT
?fmdelid@?1??FMWindowType@@YAXXZ@4HA DD 01H DUP (?)	; `FMWindowType'::`2'::fmdelid
_BSS	ENDS
;	COMDAT ?winX@?1??FMWindowType1@@YAXXZ@4HA
_BSS	SEGMENT
?winX@?1??FMWindowType1@@YAXXZ@4HA DD 01H DUP (?)	; `FMWindowType1'::`2'::winX
_BSS	ENDS
;	COMDAT ?winY@?1??FMWindowType1@@YAXXZ@4HA
_BSS	SEGMENT
?winY@?1??FMWindowType1@@YAXXZ@4HA DD 01H DUP (?)	; `FMWindowType1'::`2'::winY
_BSS	ENDS
;	COMDAT ?winW@?1??FMWindowType1@@YAXXZ@4HA
_BSS	SEGMENT
?winW@?1??FMWindowType1@@YAXXZ@4HA DD 01H DUP (?)	; `FMWindowType1'::`2'::winW
_BSS	ENDS
;	COMDAT ?winH@?1??FMWindowType1@@YAXXZ@4HA
_BSS	SEGMENT
?winH@?1??FMWindowType1@@YAXXZ@4HA DD 01H DUP (?)	; `FMWindowType1'::`2'::winH
_BSS	ENDS
;	COMDAT ?btnLoc@?1??FMWindowType1@@YAXXZ@4PAY01HA
_BSS	SEGMENT
?btnLoc@?1??FMWindowType1@@YAXXZ@4PAY01HA DD 0cH DUP (?) ; `FMWindowType1'::`2'::btnLoc
_BSS	ENDS
;	COMDAT ?btnCnt@?1??FMWindowType1@@YAXXZ@4HA
_BSS	SEGMENT
?btnCnt@?1??FMWindowType1@@YAXXZ@4HA DD 01H DUP (?)	; `FMWindowType1'::`2'::btnCnt
_BSS	ENDS
;	COMDAT ?msgLine@?1??FMWindowType1@@YAXXZ@4HA
_BSS	SEGMENT
?msgLine@?1??FMWindowType1@@YAXXZ@4HA DD 01H DUP (?)	; `FMWindowType1'::`2'::msgLine
_BSS	ENDS
;	COMDAT ?input@?1??FMWindowType1@@YAXXZ@4USTR_BUFFER@@A
_BSS	SEGMENT
?input@?1??FMWindowType1@@YAXXZ@4USTR_BUFFER@@A DB 0128H DUP (?) ; `FMWindowType1'::`2'::input
_BSS	ENDS
;	COMDAT ?totalMsgLine@?1??FMWindowType1@@YAXXZ@4HA
_BSS	SEGMENT
?totalMsgLine@?1??FMWindowType1@@YAXXZ@4HA DD 01H DUP (?) ; `FMWindowType1'::`2'::totalMsgLine
_BSS	ENDS
;	COMDAT ?lineSkip@?1??FMWindowType1@@YAXXZ@4HA
_BSS	SEGMENT
?lineSkip@?1??FMWindowType1@@YAXXZ@4HA DD 01H DUP (?)	; `FMWindowType1'::`2'::lineSkip
_BSS	ENDS
;	COMDAT ?winX@?1??FMWindowType2@@YAXXZ@4HA
_BSS	SEGMENT
?winX@?1??FMWindowType2@@YAXXZ@4HA DD 01H DUP (?)	; `FMWindowType2'::`2'::winX
_BSS	ENDS
;	COMDAT ?winY@?1??FMWindowType2@@YAXXZ@4HA
_BSS	SEGMENT
?winY@?1??FMWindowType2@@YAXXZ@4HA DD 01H DUP (?)	; `FMWindowType2'::`2'::winY
_BSS	ENDS
;	COMDAT ?winW@?1??FMWindowType2@@YAXXZ@4HA
_BSS	SEGMENT
?winW@?1??FMWindowType2@@YAXXZ@4HA DD 01H DUP (?)	; `FMWindowType2'::`2'::winW
_BSS	ENDS
;	COMDAT ?winH@?1??FMWindowType2@@YAXXZ@4HA
_BSS	SEGMENT
?winH@?1??FMWindowType2@@YAXXZ@4HA DD 01H DUP (?)	; `FMWindowType2'::`2'::winH
_BSS	ENDS
;	COMDAT ?btnLoc@?1??FMWindowType2@@YAXXZ@4PAY01HA
_BSS	SEGMENT
?btnLoc@?1??FMWindowType2@@YAXXZ@4PAY01HA DD 018H DUP (?) ; `FMWindowType2'::`2'::btnLoc
_BSS	ENDS
;	COMDAT ?btnCnt@?1??FMWindowType2@@YAXXZ@4HA
_BSS	SEGMENT
?btnCnt@?1??FMWindowType2@@YAXXZ@4HA DD 01H DUP (?)	; `FMWindowType2'::`2'::btnCnt
_BSS	ENDS
;	COMDAT ?msgLine@?1??FMWindowType2@@YAXXZ@4HA
_BSS	SEGMENT
?msgLine@?1??FMWindowType2@@YAXXZ@4HA DD 01H DUP (?)	; `FMWindowType2'::`2'::msgLine
_BSS	ENDS
;	COMDAT ?btnLoc@?1??fmselectdetuyWindow@@YAHHHH@Z@4PAY01HA
_BSS	SEGMENT
?btnLoc@?1??fmselectdetuyWindow@@YAHHHH@Z@4PAY01HA DD 08H DUP (?) ; `fmselectdetuyWindow'::`2'::btnLoc
_BSS	ENDS
;	COMDAT ?ptActMenuWin@?1??fmselectdetuyWindow@@YAHHHH@Z@4PAUaction@@A
_BSS	SEGMENT
?ptActMenuWin@?1??fmselectdetuyWindow@@YAHHHH@Z@4PAUaction@@A DD 01H DUP (?) ; `fmselectdetuyWindow'::`2'::ptActMenuWin
_BSS	ENDS
;	COMDAT ?btnLoc@?1??fmYesNoWindow@@YAHHHH@Z@4PAY01HA
_BSS	SEGMENT
?btnLoc@?1??fmYesNoWindow@@YAHHHH@Z@4PAY01HA DD 04H DUP (?) ; `fmYesNoWindow'::`2'::btnLoc
_BSS	ENDS
;	COMDAT ?ptActMenuWin@?1??fmYesNoWindow@@YAHHHH@Z@4PAUaction@@A
_BSS	SEGMENT
?ptActMenuWin@?1??fmYesNoWindow@@YAHHHH@Z@4PAUaction@@A DD 01H DUP (?) ; `fmYesNoWindow'::`2'::ptActMenuWin
_BSS	ENDS
;	COMDAT ?winX@?1??FMWindowType4@@YAXH@Z@4HA
_BSS	SEGMENT
?winX@?1??FMWindowType4@@YAXH@Z@4HA DD 01H DUP (?)	; `FMWindowType4'::`2'::winX
_BSS	ENDS
;	COMDAT ?winY@?1??FMWindowType4@@YAXH@Z@4HA
_BSS	SEGMENT
?winY@?1??FMWindowType4@@YAXH@Z@4HA DD 01H DUP (?)	; `FMWindowType4'::`2'::winY
_BSS	ENDS
;	COMDAT ?winW@?1??FMWindowType4@@YAXH@Z@4HA
_BSS	SEGMENT
?winW@?1??FMWindowType4@@YAXH@Z@4HA DD 01H DUP (?)	; `FMWindowType4'::`2'::winW
_BSS	ENDS
;	COMDAT ?winH@?1??FMWindowType4@@YAXH@Z@4HA
_BSS	SEGMENT
?winH@?1??FMWindowType4@@YAXH@Z@4HA DD 01H DUP (?)	; `FMWindowType4'::`2'::winH
_BSS	ENDS
;	COMDAT ?btnLoc@?1??FMWindowType4@@YAXH@Z@4PAY01HA
_BSS	SEGMENT
?btnLoc@?1??FMWindowType4@@YAXH@Z@4PAY01HA DD 0cH DUP (?) ; `FMWindowType4'::`2'::btnLoc
_BSS	ENDS
;	COMDAT ?btnCnt@?1??FMWindowType4@@YAXH@Z@4HA
_BSS	SEGMENT
?btnCnt@?1??FMWindowType4@@YAXH@Z@4HA DD 01H DUP (?)	; `FMWindowType4'::`2'::btnCnt
_BSS	ENDS
;	COMDAT ?msgLine@?1??FMWindowType4@@YAXH@Z@4HA
_BSS	SEGMENT
?msgLine@?1??FMWindowType4@@YAXH@Z@4HA DD 01H DUP (?)	; `FMWindowType4'::`2'::msgLine
_BSS	ENDS
;	COMDAT ?winX@?1??FMWindowType3@@YAXH@Z@4HA
_BSS	SEGMENT
?winX@?1??FMWindowType3@@YAXH@Z@4HA DD 01H DUP (?)	; `FMWindowType3'::`2'::winX
_BSS	ENDS
;	COMDAT ?winY@?1??FMWindowType3@@YAXH@Z@4HA
_BSS	SEGMENT
?winY@?1??FMWindowType3@@YAXH@Z@4HA DD 01H DUP (?)	; `FMWindowType3'::`2'::winY
_BSS	ENDS
;	COMDAT ?winW@?1??FMWindowType3@@YAXH@Z@4HA
_BSS	SEGMENT
?winW@?1??FMWindowType3@@YAXH@Z@4HA DD 01H DUP (?)	; `FMWindowType3'::`2'::winW
_BSS	ENDS
;	COMDAT ?winH@?1??FMWindowType3@@YAXH@Z@4HA
_BSS	SEGMENT
?winH@?1??FMWindowType3@@YAXH@Z@4HA DD 01H DUP (?)	; `FMWindowType3'::`2'::winH
_BSS	ENDS
;	COMDAT ?btnLoc@?1??FMWindowType3@@YAXH@Z@4PAY01HA
_BSS	SEGMENT
?btnLoc@?1??FMWindowType3@@YAXH@Z@4PAY01HA DD 0cH DUP (?) ; `FMWindowType3'::`2'::btnLoc
_BSS	ENDS
;	COMDAT ?btnCnt@?1??FMWindowType3@@YAXH@Z@4HA
_BSS	SEGMENT
?btnCnt@?1??FMWindowType3@@YAXH@Z@4HA DD 01H DUP (?)	; `FMWindowType3'::`2'::btnCnt
_BSS	ENDS
;	COMDAT ?msgLine@?1??FMWindowType3@@YAXH@Z@4HA
_BSS	SEGMENT
?msgLine@?1??FMWindowType3@@YAXH@Z@4HA DD 01H DUP (?)	; `FMWindowType3'::`2'::msgLine
_BSS	ENDS
;	COMDAT ?bErr@?1??DelCharGraColorWin@@YAHXZ@4HA
_BSS	SEGMENT
?bErr@?1??DelCharGraColorWin@@YAHXZ@4HA DD 01H DUP (?)	; `DelCharGraColorWin'::`2'::bErr
_BSS	ENDS
;	COMDAT ?ptActMenuWin@?1??DelCharGraColorWin@@YAHXZ@4PAUaction@@A
_BSS	SEGMENT
?ptActMenuWin@?1??DelCharGraColorWin@@YAHXZ@4PAUaction@@A DD 01H DUP (?) ; `DelCharGraColorWin'::`2'::ptActMenuWin
_BSS	ENDS
;	COMDAT ?x@?1??DelCharGraColorWin@@YAHXZ@4HA
_BSS	SEGMENT
?x@?1??DelCharGraColorWin@@YAHXZ@4HA DD 01H DUP (?)	; `DelCharGraColorWin'::`2'::x
_BSS	ENDS
;	COMDAT ?y@?1??DelCharGraColorWin@@YAHXZ@4HA
_BSS	SEGMENT
?y@?1??DelCharGraColorWin@@YAHXZ@4HA DD 01H DUP (?)	; `DelCharGraColorWin'::`2'::y
_BSS	ENDS
;	COMDAT ?w@?1??DelCharGraColorWin@@YAHXZ@4HA
_BSS	SEGMENT
?w@?1??DelCharGraColorWin@@YAHXZ@4HA DD 01H DUP (?)	; `DelCharGraColorWin'::`2'::w
_BSS	ENDS
;	COMDAT ?h@?1??DelCharGraColorWin@@YAHXZ@4HA
_BSS	SEGMENT
?h@?1??DelCharGraColorWin@@YAHXZ@4HA DD 01H DUP (?)	; `DelCharGraColorWin'::`2'::h
_BSS	ENDS
;	COMDAT ?winX@?1??FMPKListWN@@YAXH@Z@4HA
_BSS	SEGMENT
?winX@?1??FMPKListWN@@YAXH@Z@4HA DD 01H DUP (?)		; `FMPKListWN'::`2'::winX
_BSS	ENDS
;	COMDAT ?winY@?1??FMPKListWN@@YAXH@Z@4HA
_BSS	SEGMENT
?winY@?1??FMPKListWN@@YAXH@Z@4HA DD 01H DUP (?)		; `FMPKListWN'::`2'::winY
_BSS	ENDS
;	COMDAT ?winW@?1??FMPKListWN@@YAXH@Z@4HA
_BSS	SEGMENT
?winW@?1??FMPKListWN@@YAXH@Z@4HA DD 01H DUP (?)		; `FMPKListWN'::`2'::winW
_BSS	ENDS
;	COMDAT ?winH@?1??FMPKListWN@@YAXH@Z@4HA
_BSS	SEGMENT
?winH@?1??FMPKListWN@@YAXH@Z@4HA DD 01H DUP (?)		; `FMPKListWN'::`2'::winH
_BSS	ENDS
;	COMDAT ?btnLoc@?1??FMPKListWN@@YAXH@Z@4PAY01HA
_BSS	SEGMENT
?btnLoc@?1??FMPKListWN@@YAXH@Z@4PAY01HA DD 0cH DUP (?)	; `FMPKListWN'::`2'::btnLoc
_BSS	ENDS
;	COMDAT ?btnCnt@?1??FMPKListWN@@YAXH@Z@4HA
_BSS	SEGMENT
?btnCnt@?1??FMPKListWN@@YAXH@Z@4HA DD 01H DUP (?)	; `FMPKListWN'::`2'::btnCnt
_BSS	ENDS
;	COMDAT ?winX@?1??FMPKSelectWN@@YAXH@Z@4HA
_BSS	SEGMENT
?winX@?1??FMPKSelectWN@@YAXH@Z@4HA DD 01H DUP (?)	; `FMPKSelectWN'::`2'::winX
_BSS	ENDS
;	COMDAT ?winY@?1??FMPKSelectWN@@YAXH@Z@4HA
_BSS	SEGMENT
?winY@?1??FMPKSelectWN@@YAXH@Z@4HA DD 01H DUP (?)	; `FMPKSelectWN'::`2'::winY
_BSS	ENDS
;	COMDAT ?winW@?1??FMPKSelectWN@@YAXH@Z@4HA
_BSS	SEGMENT
?winW@?1??FMPKSelectWN@@YAXH@Z@4HA DD 01H DUP (?)	; `FMPKSelectWN'::`2'::winW
_BSS	ENDS
;	COMDAT ?winH@?1??FMPKSelectWN@@YAXH@Z@4HA
_BSS	SEGMENT
?winH@?1??FMPKSelectWN@@YAXH@Z@4HA DD 01H DUP (?)	; `FMPKSelectWN'::`2'::winH
_BSS	ENDS
;	COMDAT ?btnLoc@?1??FMPKSelectWN@@YAXH@Z@4PAY01HA
_BSS	SEGMENT
?btnLoc@?1??FMPKSelectWN@@YAXH@Z@4PAY01HA DD 0cH DUP (?) ; `FMPKSelectWN'::`2'::btnLoc
_BSS	ENDS
;	COMDAT ?btnCnt@?1??FMPKSelectWN@@YAXH@Z@4HA
_BSS	SEGMENT
?btnCnt@?1??FMPKSelectWN@@YAXH@Z@4HA DD 01H DUP (?)	; `FMPKSelectWN'::`2'::btnCnt
_BSS	ENDS
;	COMDAT ?winX@?1??FMPKDetailWN@@YAXH@Z@4HA
_BSS	SEGMENT
?winX@?1??FMPKDetailWN@@YAXH@Z@4HA DD 01H DUP (?)	; `FMPKDetailWN'::`2'::winX
_BSS	ENDS
;	COMDAT ?winY@?1??FMPKDetailWN@@YAXH@Z@4HA
_BSS	SEGMENT
?winY@?1??FMPKDetailWN@@YAXH@Z@4HA DD 01H DUP (?)	; `FMPKDetailWN'::`2'::winY
_BSS	ENDS
;	COMDAT ?winW@?1??FMPKDetailWN@@YAXH@Z@4HA
_BSS	SEGMENT
?winW@?1??FMPKDetailWN@@YAXH@Z@4HA DD 01H DUP (?)	; `FMPKDetailWN'::`2'::winW
_BSS	ENDS
;	COMDAT ?winH@?1??FMPKDetailWN@@YAXH@Z@4HA
_BSS	SEGMENT
?winH@?1??FMPKDetailWN@@YAXH@Z@4HA DD 01H DUP (?)	; `FMPKDetailWN'::`2'::winH
_BSS	ENDS
;	COMDAT ?btnLoc@?1??FMPKDetailWN@@YAXH@Z@4PAY01HA
_BSS	SEGMENT
?btnLoc@?1??FMPKDetailWN@@YAXH@Z@4PAY01HA DD 0cH DUP (?) ; `FMPKDetailWN'::`2'::btnLoc
_BSS	ENDS
;	COMDAT ?btnCnt@?1??FMPKDetailWN@@YAXH@Z@4HA
_BSS	SEGMENT
?btnCnt@?1??FMPKDetailWN@@YAXH@Z@4HA DD 01H DUP (?)	; `FMPKDetailWN'::`2'::btnCnt
_BSS	ENDS
;	COMDAT ?pushBtnFlag@?1??FMPKDetailWN@@YAXH@Z@4PAHA
_BSS	SEGMENT
?pushBtnFlag@?1??FMPKDetailWN@@YAXH@Z@4PAHA DD 04H DUP (?) ; `FMPKDetailWN'::`2'::pushBtnFlag
_BSS	ENDS
;	COMDAT ?winX@?1??familyTaxWN@@YAXXZ@4HA
_BSS	SEGMENT
?winX@?1??familyTaxWN@@YAXXZ@4HA DD 01H DUP (?)		; `familyTaxWN'::`2'::winX
_BSS	ENDS
;	COMDAT ?winY@?1??familyTaxWN@@YAXXZ@4HA
_BSS	SEGMENT
?winY@?1??familyTaxWN@@YAXXZ@4HA DD 01H DUP (?)		; `familyTaxWN'::`2'::winY
_BSS	ENDS
;	COMDAT ?winW@?1??familyTaxWN@@YAXXZ@4HA
_BSS	SEGMENT
?winW@?1??familyTaxWN@@YAXXZ@4HA DD 01H DUP (?)		; `familyTaxWN'::`2'::winW
_BSS	ENDS
;	COMDAT ?winH@?1??familyTaxWN@@YAXXZ@4HA
_BSS	SEGMENT
?winH@?1??familyTaxWN@@YAXXZ@4HA DD 01H DUP (?)		; `familyTaxWN'::`2'::winH
_BSS	ENDS
;	COMDAT ?pushBtnFlag@?1??familyTaxWN@@YAXXZ@4PAHA
_BSS	SEGMENT
?pushBtnFlag@?1??familyTaxWN@@YAXXZ@4PAHA DD 04H DUP (?) ; `familyTaxWN'::`2'::pushBtnFlag
_BSS	ENDS
;	COMDAT ?taxGoldInc@?1??familyTaxWN@@YAXXZ@4HA
_BSS	SEGMENT
?taxGoldInc@?1??familyTaxWN@@YAXXZ@4HA DD 01H DUP (?)	; `familyTaxWN'::`2'::taxGoldInc
_BSS	ENDS
;	COMDAT ?taxGoldDec@?1??familyTaxWN@@YAXXZ@4HA
_BSS	SEGMENT
?taxGoldDec@?1??familyTaxWN@@YAXXZ@4HA DD 01H DUP (?)	; `familyTaxWN'::`2'::taxGoldDec
_BSS	ENDS
;	COMDAT ?taxGoldCnt@?1??familyTaxWN@@YAXXZ@4HA
_BSS	SEGMENT
?taxGoldCnt@?1??familyTaxWN@@YAXXZ@4HA DD 01H DUP (?)	; `familyTaxWN'::`2'::taxGoldCnt
_BSS	ENDS
_BSS	SEGMENT
?pActPet12@@3PAUaction@@A DD 01H DUP (?)		; pActPet12
?pActPet13@@3PAUaction@@A DD 01H DUP (?)		; pActPet13
?pActPet14@@3PAUaction@@A DD 01H DUP (?)		; pActPet14
_BSS	ENDS
;	COMDAT ?winX@?1??showRidePetWN@@YAXXZ@4HA
_BSS	SEGMENT
?winX@?1??showRidePetWN@@YAXXZ@4HA DD 01H DUP (?)	; `showRidePetWN'::`2'::winX
_BSS	ENDS
;	COMDAT ?winY@?1??showRidePetWN@@YAXXZ@4HA
_BSS	SEGMENT
?winY@?1??showRidePetWN@@YAXXZ@4HA DD 01H DUP (?)	; `showRidePetWN'::`2'::winY
_BSS	ENDS
;	COMDAT ?winW@?1??showRidePetWN@@YAXXZ@4HA
_BSS	SEGMENT
?winW@?1??showRidePetWN@@YAXXZ@4HA DD 01H DUP (?)	; `showRidePetWN'::`2'::winW
_BSS	ENDS
;	COMDAT ?winH@?1??showRidePetWN@@YAXXZ@4HA
_BSS	SEGMENT
?winH@?1??showRidePetWN@@YAXXZ@4HA DD 01H DUP (?)	; `showRidePetWN'::`2'::winH
_BSS	ENDS
;	COMDAT ?btnLoc@?1??showRidePetWN@@YAXXZ@4PAY01HA
_BSS	SEGMENT
?btnLoc@?1??showRidePetWN@@YAXXZ@4PAY01HA DD 0cH DUP (?) ; `showRidePetWN'::`2'::btnLoc
_BSS	ENDS
;	COMDAT ?btnCnt@?1??showRidePetWN@@YAXXZ@4HA
_BSS	SEGMENT
?btnCnt@?1??showRidePetWN@@YAXXZ@4HA DD 01H DUP (?)	; `showRidePetWN'::`2'::btnCnt
_BSS	ENDS
;	COMDAT ?winX@?1??familyLeaderChangeWN@@YAXXZ@4HA
_BSS	SEGMENT
?winX@?1??familyLeaderChangeWN@@YAXXZ@4HA DD 01H DUP (?) ; `familyLeaderChangeWN'::`2'::winX
_BSS	ENDS
;	COMDAT ?winY@?1??familyLeaderChangeWN@@YAXXZ@4HA
_BSS	SEGMENT
?winY@?1??familyLeaderChangeWN@@YAXXZ@4HA DD 01H DUP (?) ; `familyLeaderChangeWN'::`2'::winY
_BSS	ENDS
;	COMDAT ?winW@?1??familyLeaderChangeWN@@YAXXZ@4HA
_BSS	SEGMENT
?winW@?1??familyLeaderChangeWN@@YAXXZ@4HA DD 01H DUP (?) ; `familyLeaderChangeWN'::`2'::winW
_BSS	ENDS
;	COMDAT ?winH@?1??familyLeaderChangeWN@@YAXXZ@4HA
_BSS	SEGMENT
?winH@?1??familyLeaderChangeWN@@YAXXZ@4HA DD 01H DUP (?) ; `familyLeaderChangeWN'::`2'::winH
_BSS	ENDS
;	COMDAT ?fontId@?1??familyLeaderChangeWN@@YAXXZ@4PAHA
_BSS	SEGMENT
?fontId@?1??familyLeaderChangeWN@@YAXXZ@4PAHA DD 01eH DUP (?) ; `familyLeaderChangeWN'::`2'::fontId
_BSS	ENDS
;	COMDAT ?fontId2@?1??familyLeaderChangeWN@@YAXXZ@4PAHA
_BSS	SEGMENT
?fontId2@?1??familyLeaderChangeWN@@YAXXZ@4PAHA DD 03H DUP (?) ; `familyLeaderChangeWN'::`2'::fontId2
_BSS	ENDS
;	COMDAT ?winX@?1??familyLeaderChangeQWN@@YAXXZ@4HA
_BSS	SEGMENT
?winX@?1??familyLeaderChangeQWN@@YAXXZ@4HA DD 01H DUP (?) ; `familyLeaderChangeQWN'::`2'::winX
_BSS	ENDS
;	COMDAT ?winY@?1??familyLeaderChangeQWN@@YAXXZ@4HA
_BSS	SEGMENT
?winY@?1??familyLeaderChangeQWN@@YAXXZ@4HA DD 01H DUP (?) ; `familyLeaderChangeQWN'::`2'::winY
_BSS	ENDS
;	COMDAT ?winW@?1??familyLeaderChangeQWN@@YAXXZ@4HA
_BSS	SEGMENT
?winW@?1??familyLeaderChangeQWN@@YAXXZ@4HA DD 01H DUP (?) ; `familyLeaderChangeQWN'::`2'::winW
_BSS	ENDS
;	COMDAT ?winH@?1??familyLeaderChangeQWN@@YAXXZ@4HA
_BSS	SEGMENT
?winH@?1??familyLeaderChangeQWN@@YAXXZ@4HA DD 01H DUP (?) ; `familyLeaderChangeQWN'::`2'::winH
_BSS	ENDS
;	COMDAT ?fontId@?1??familyLeaderChangeQWN@@YAXXZ@4PAHA
_BSS	SEGMENT
?fontId@?1??familyLeaderChangeQWN@@YAXXZ@4PAHA DD 02H DUP (?) ; `familyLeaderChangeQWN'::`2'::fontId
_BSS	ENDS
;	COMDAT ?winX@?1??familyLeaderChangeAWN@@YAXXZ@4HA
_BSS	SEGMENT
?winX@?1??familyLeaderChangeAWN@@YAXXZ@4HA DD 01H DUP (?) ; `familyLeaderChangeAWN'::`2'::winX
_BSS	ENDS
;	COMDAT ?winY@?1??familyLeaderChangeAWN@@YAXXZ@4HA
_BSS	SEGMENT
?winY@?1??familyLeaderChangeAWN@@YAXXZ@4HA DD 01H DUP (?) ; `familyLeaderChangeAWN'::`2'::winY
_BSS	ENDS
;	COMDAT ?winW@?1??familyLeaderChangeAWN@@YAXXZ@4HA
_BSS	SEGMENT
?winW@?1??familyLeaderChangeAWN@@YAXXZ@4HA DD 01H DUP (?) ; `familyLeaderChangeAWN'::`2'::winW
_BSS	ENDS
;	COMDAT ?winH@?1??familyLeaderChangeAWN@@YAXXZ@4HA
_BSS	SEGMENT
?winH@?1??familyLeaderChangeAWN@@YAXXZ@4HA DD 01H DUP (?) ; `familyLeaderChangeAWN'::`2'::winH
_BSS	ENDS
;	COMDAT ?fontId@?1??familyLeaderChangeAWN@@YAXXZ@4PAHA
_BSS	SEGMENT
?fontId@?1??familyLeaderChangeAWN@@YAXXZ@4PAHA DD 02H DUP (?) ; `familyLeaderChangeAWN'::`2'::fontId
_BSS	ENDS
;	COMDAT ?winX@?1??mineFamilyDetailWN@@YAXXZ@4HA
_BSS	SEGMENT
?winX@?1??mineFamilyDetailWN@@YAXXZ@4HA DD 01H DUP (?)	; `mineFamilyDetailWN'::`2'::winX
_BSS	ENDS
;	COMDAT ?winY@?1??mineFamilyDetailWN@@YAXXZ@4HA
_BSS	SEGMENT
?winY@?1??mineFamilyDetailWN@@YAXXZ@4HA DD 01H DUP (?)	; `mineFamilyDetailWN'::`2'::winY
_BSS	ENDS
;	COMDAT ?winW@?1??mineFamilyDetailWN@@YAXXZ@4HA
_BSS	SEGMENT
?winW@?1??mineFamilyDetailWN@@YAXXZ@4HA DD 01H DUP (?)	; `mineFamilyDetailWN'::`2'::winW
_BSS	ENDS
;	COMDAT ?winH@?1??mineFamilyDetailWN@@YAXXZ@4HA
_BSS	SEGMENT
?winH@?1??mineFamilyDetailWN@@YAXXZ@4HA DD 01H DUP (?)	; `mineFamilyDetailWN'::`2'::winH
_BSS	ENDS
;	COMDAT ?fontId@?1??mineFamilyDetailWN@@YAXXZ@4PAHA
_BSS	SEGMENT
?fontId@?1??mineFamilyDetailWN@@YAXXZ@4PAHA DD 02H DUP (?) ; `mineFamilyDetailWN'::`2'::fontId
_BSS	ENDS
;	COMDAT ?BankBtNo@?1??BankProc@@YAXXZ@4PAHA
_BSS	SEGMENT
?BankBtNo@?1??BankProc@@YAXXZ@4PAHA DD 014H DUP (?)	; `BankProc'::`2'::BankBtNo
_BSS	ENDS
;	COMDAT ?BankBtFlag@?1??BankProc@@YAXXZ@4PAHA
_BSS	SEGMENT
?BankBtFlag@?1??BankProc@@YAXXZ@4PAHA DD 014H DUP (?)	; `BankProc'::`2'::BankBtFlag
_BSS	ENDS
;	COMDAT ?Gold@?1??BankProc@@YAXXZ@4HA
_BSS	SEGMENT
?Gold@?1??BankProc@@YAXXZ@4HA DD 01H DUP (?)		; `BankProc'::`2'::Gold
_BSS	ENDS
;	COMDAT ?BankGoldInc@?1??BankProc@@YAXXZ@4HA
_BSS	SEGMENT
?BankGoldInc@?1??BankProc@@YAXXZ@4HA DD 01H DUP (?)	; `BankProc'::`2'::BankGoldInc
_BSS	ENDS
;	COMDAT ?BankGoldCnt@?1??BankProc@@YAXXZ@4HA
_BSS	SEGMENT
?BankGoldCnt@?1??BankProc@@YAXXZ@4HA DD 01H DUP (?)	; `BankProc'::`2'::BankGoldCnt
_BSS	ENDS
;	COMDAT ?pShowPet1@?1??AuctionNewWT@@YAXXZ@4PAUaction@@A
_BSS	SEGMENT
?pShowPet1@?1??AuctionNewWT@@YAXXZ@4PAUaction@@A DD 01H DUP (?) ; `AuctionNewWT'::`2'::pShowPet1
_BSS	ENDS
;	COMDAT ?pShowPet2@?1??AuctionNewWT@@YAXXZ@4PAUaction@@A
_BSS	SEGMENT
?pShowPet2@?1??AuctionNewWT@@YAXXZ@4PAUaction@@A DD 01H DUP (?) ; `AuctionNewWT'::`2'::pShowPet2
_BSS	ENDS
;	COMDAT ?nButton1@?1??AuctionNewWT@@YAXXZ@4PAY01HA
_BSS	SEGMENT
?nButton1@?1??AuctionNewWT@@YAXXZ@4PAY01HA DD 06H DUP (?) ; `AuctionNewWT'::`2'::nButton1
_BSS	ENDS
;	COMDAT ?nButton2@?1??AuctionNewWT@@YAXXZ@4PAY01HA
_BSS	SEGMENT
?nButton2@?1??AuctionNewWT@@YAXXZ@4PAY01HA DD 04H DUP (?) ; `AuctionNewWT'::`2'::nButton2
_BSS	ENDS
;	COMDAT ?nItem@?1??AuctionNewWT@@YAXXZ@4PAY01HA
_BSS	SEGMENT
?nItem@?1??AuctionNewWT@@YAXXZ@4PAY01HA DD 05aH DUP (?)	; `AuctionNewWT'::`2'::nItem
_BSS	ENDS
;	COMDAT ?nPet@?1??AuctionNewWT@@YAXXZ@4HA
_BSS	SEGMENT
?nPet@?1??AuctionNewWT@@YAXXZ@4HA DD 01H DUP (?)	; `AuctionNewWT'::`2'::nPet
_BSS	ENDS
;	COMDAT ?nPetShow@?1??AuctionNewWT@@YAXXZ@4HA
_BSS	SEGMENT
?nPetShow@?1??AuctionNewWT@@YAXXZ@4HA DD 01H DUP (?)	; `AuctionNewWT'::`2'::nPetShow
_BSS	ENDS
;	COMDAT ?nItemSelect@?1??AuctionNewWT@@YAXXZ@4HA
_BSS	SEGMENT
?nItemSelect@?1??AuctionNewWT@@YAXXZ@4HA DD 01H DUP (?)	; `AuctionNewWT'::`2'::nItemSelect
_BSS	ENDS
;	COMDAT ?nAuctionKind@?1??AuctionNewWT@@YAXXZ@4HA
_BSS	SEGMENT
?nAuctionKind@?1??AuctionNewWT@@YAXXZ@4HA DD 01H DUP (?) ; `AuctionNewWT'::`2'::nAuctionKind
_BSS	ENDS
;	COMDAT ?bPress@?1??AuctionNewWT@@YAXXZ@4HA
_BSS	SEGMENT
?bPress@?1??AuctionNewWT@@YAXXZ@4HA DD 01H DUP (?)	; `AuctionNewWT'::`2'::bPress
_BSS	ENDS
;	COMDAT ?aldArea@?1??AuctionListWT@@YAXXZ@4PAU_AUCTION_LIST_DATA@@A
_BSS	SEGMENT
?aldArea@?1??AuctionListWT@@YAXXZ@4PAU_AUCTION_LIST_DATA@@A DB 0af0H DUP (?) ; `AuctionListWT'::`2'::aldArea
_BSS	ENDS
;	COMDAT ?nButton@?1??AuctionListWT@@YAXXZ@4PAY01HA
_BSS	SEGMENT
?nButton@?1??AuctionListWT@@YAXXZ@4PAY01HA DD 0aH DUP (?) ; `AuctionListWT'::`2'::nButton
_BSS	ENDS
;	COMDAT ?nList@?1??AuctionListWT@@YAXXZ@4PAY01HA
_BSS	SEGMENT
?nList@?1??AuctionListWT@@YAXXZ@4PAY01HA DD 014H DUP (?) ; `AuctionListWT'::`2'::nList
_BSS	ENDS
;	COMDAT ?nListSelect@?1??AuctionListWT@@YAXXZ@4HA
_BSS	SEGMENT
?nListSelect@?1??AuctionListWT@@YAXXZ@4HA DD 01H DUP (?) ; `AuctionListWT'::`2'::nListSelect
_BSS	ENDS
;	COMDAT ?id@?1??AuctionListWT@@YAXXZ@4PADA
_BSS	SEGMENT
?id@?1??AuctionListWT@@YAXXZ@4PADA DB 010H DUP (?)	; `AuctionListWT'::`2'::id
_BSS	ENDS
;	COMDAT ?bPress@?1??AuctionListWT@@YAXXZ@4HA
_BSS	SEGMENT
?bPress@?1??AuctionListWT@@YAXXZ@4HA DD 01H DUP (?)	; `AuctionListWT'::`2'::bPress
_BSS	ENDS
;	COMDAT ?bIsThisPlayerAuction@?1??AuctionListWT@@YAXXZ@4HA
_BSS	SEGMENT
?bIsThisPlayerAuction@?1??AuctionListWT@@YAXXZ@4HA DD 01H DUP (?) ; `AuctionListWT'::`2'::bIsThisPlayerAuction
_BSS	ENDS
;	COMDAT ?nListNum@?1??AuctionListWT@@YAXXZ@4HA
_BSS	SEGMENT
?nListNum@?1??AuctionListWT@@YAXXZ@4HA DD 01H DUP (?)	; `AuctionListWT'::`2'::nListNum
_BSS	ENDS
;	COMDAT ?nCurrentPage@?1??AuctionListWT@@YAXXZ@4HA
_BSS	SEGMENT
?nCurrentPage@?1??AuctionListWT@@YAXXZ@4HA DD 01H DUP (?) ; `AuctionListWT'::`2'::nCurrentPage
_BSS	ENDS
;	COMDAT ?pShowPet@?1??AuctionSurveyModifyWT@@YAXXZ@4PAUaction@@A
_BSS	SEGMENT
?pShowPet@?1??AuctionSurveyModifyWT@@YAXXZ@4PAUaction@@A DD 01H DUP (?) ; `AuctionSurveyModifyWT'::`2'::pShowPet
_BSS	ENDS
;	COMDAT ?ald@?1??AuctionSurveyModifyWT@@YAXXZ@4U_AUCTION_LIST_DATA@@A
_BSS	SEGMENT
?ald@?1??AuctionSurveyModifyWT@@YAXXZ@4U_AUCTION_LIST_DATA@@A DB 0118H DUP (?) ; `AuctionSurveyModifyWT'::`2'::ald
_BSS	ENDS
;	COMDAT ?nButton@?1??AuctionSurveyModifyWT@@YAXXZ@4PAY01HA
_BSS	SEGMENT
?nButton@?1??AuctionSurveyModifyWT@@YAXXZ@4PAY01HA DD 04H DUP (?) ; `AuctionSurveyModifyWT'::`2'::nButton
_BSS	ENDS
;	COMDAT ?bPress@?1??AuctionSurveyModifyWT@@YAXXZ@4HA
_BSS	SEGMENT
?bPress@?1??AuctionSurveyModifyWT@@YAXXZ@4HA DD 01H DUP (?) ; `AuctionSurveyModifyWT'::`2'::bPress
_BSS	ENDS
;	COMDAT ?winX@?1??showMouseGetNameWN@@YAXXZ@4HA
_BSS	SEGMENT
?winX@?1??showMouseGetNameWN@@YAXXZ@4HA DD 01H DUP (?)	; `showMouseGetNameWN'::`2'::winX
_BSS	ENDS
;	COMDAT ?winY@?1??showMouseGetNameWN@@YAXXZ@4HA
_BSS	SEGMENT
?winY@?1??showMouseGetNameWN@@YAXXZ@4HA DD 01H DUP (?)	; `showMouseGetNameWN'::`2'::winY
_BSS	ENDS
;	COMDAT ?winW@?1??showMouseGetNameWN@@YAXXZ@4HA
_BSS	SEGMENT
?winW@?1??showMouseGetNameWN@@YAXXZ@4HA DD 01H DUP (?)	; `showMouseGetNameWN'::`2'::winW
_BSS	ENDS
;	COMDAT ?winH@?1??showMouseGetNameWN@@YAXXZ@4HA
_BSS	SEGMENT
?winH@?1??showMouseGetNameWN@@YAXXZ@4HA DD 01H DUP (?)	; `showMouseGetNameWN'::`2'::winH
_BSS	ENDS
;	COMDAT ?inBlacklist@?1??showMouseGetNameWN@@YAXXZ@4HA
_BSS	SEGMENT
?inBlacklist@?1??showMouseGetNameWN@@YAXXZ@4HA DD 01H DUP (?) ; `showMouseGetNameWN'::`2'::inBlacklist
_BSS	ENDS
;	COMDAT ?winX@?1??showContractWN@@YAXXZ@4HA
_BSS	SEGMENT
?winX@?1??showContractWN@@YAXXZ@4HA DD 01H DUP (?)	; `showContractWN'::`2'::winX
_BSS	ENDS
;	COMDAT ?winY@?1??showContractWN@@YAXXZ@4HA
_BSS	SEGMENT
?winY@?1??showContractWN@@YAXXZ@4HA DD 01H DUP (?)	; `showContractWN'::`2'::winY
_BSS	ENDS
;	COMDAT ?winW@?1??showContractWN@@YAXXZ@4HA
_BSS	SEGMENT
?winW@?1??showContractWN@@YAXXZ@4HA DD 01H DUP (?)	; `showContractWN'::`2'::winW
_BSS	ENDS
;	COMDAT ?winH@?1??showContractWN@@YAXXZ@4HA
_BSS	SEGMENT
?winH@?1??showContractWN@@YAXXZ@4HA DD 01H DUP (?)	; `showContractWN'::`2'::winH
_BSS	ENDS
;	COMDAT ?page@?1??showContractWN@@YAXXZ@4HA
_BSS	SEGMENT
?page@?1??showContractWN@@YAXXZ@4HA DD 01H DUP (?)	; `showContractWN'::`2'::page
_BSS	ENDS
;	COMDAT ?max_page@?1??showContractWN@@YAXXZ@4HA
_BSS	SEGMENT
?max_page@?1??showContractWN@@YAXXZ@4HA DD 01H DUP (?)	; `showContractWN'::`2'::max_page
_BSS	ENDS
;	COMDAT ?msgLine@?1??showContractWN@@YAXXZ@4PAY0DJ@DA
_BSS	SEGMENT
?msgLine@?1??showContractWN@@YAXXZ@4PAY0DJ@DA DB 08e8H DUP (?) ; `showContractWN'::`2'::msgLine
_BSS	ENDS
;	COMDAT ?winW@?1??showRacemanRankWN@@YAXXZ@4HA
_BSS	SEGMENT
?winW@?1??showRacemanRankWN@@YAXXZ@4HA DD 01H DUP (?)	; `showRacemanRankWN'::`2'::winW
_BSS	ENDS
;	COMDAT ?winH@?1??showRacemanRankWN@@YAXXZ@4HA
_BSS	SEGMENT
?winH@?1??showRacemanRankWN@@YAXXZ@4HA DD 01H DUP (?)	; `showRacemanRankWN'::`2'::winH
_BSS	ENDS
;	COMDAT ?winX@?1??showRacemanRankWN@@YAXXZ@4HA
_BSS	SEGMENT
?winX@?1??showRacemanRankWN@@YAXXZ@4HA DD 01H DUP (?)	; `showRacemanRankWN'::`2'::winX
_BSS	ENDS
;	COMDAT ?winY@?1??showRacemanRankWN@@YAXXZ@4HA
_BSS	SEGMENT
?winY@?1??showRacemanRankWN@@YAXXZ@4HA DD 01H DUP (?)	; `showRacemanRankWN'::`2'::winY
_BSS	ENDS
;	COMDAT ?btnLoc@?1??showRacemanRankWN@@YAXXZ@4PAY01HA
_BSS	SEGMENT
?btnLoc@?1??showRacemanRankWN@@YAXXZ@4PAY01HA DD 0cH DUP (?) ; `showRacemanRankWN'::`2'::btnLoc
_BSS	ENDS
;	COMDAT ?btnCnt@?1??showRacemanRankWN@@YAXXZ@4HA
_BSS	SEGMENT
?btnCnt@?1??showRacemanRankWN@@YAXXZ@4HA DD 01H DUP (?)	; `showRacemanRankWN'::`2'::btnCnt
_BSS	ENDS
;	COMDAT ?winX@?1??serverWindowDragonFusion@@YAXXZ@4HA
_BSS	SEGMENT
?winX@?1??serverWindowDragonFusion@@YAXXZ@4HA DD 01H DUP (?) ; `serverWindowDragonFusion'::`2'::winX
_BSS	ENDS
;	COMDAT ?winY@?1??serverWindowDragonFusion@@YAXXZ@4HA
_BSS	SEGMENT
?winY@?1??serverWindowDragonFusion@@YAXXZ@4HA DD 01H DUP (?) ; `serverWindowDragonFusion'::`2'::winY
_BSS	ENDS
;	COMDAT ?winW@?1??serverWindowDragonFusion@@YAXXZ@4HA
_BSS	SEGMENT
?winW@?1??serverWindowDragonFusion@@YAXXZ@4HA DD 01H DUP (?) ; `serverWindowDragonFusion'::`2'::winW
_BSS	ENDS
;	COMDAT ?winH@?1??serverWindowDragonFusion@@YAXXZ@4HA
_BSS	SEGMENT
?winH@?1??serverWindowDragonFusion@@YAXXZ@4HA DD 01H DUP (?) ; `serverWindowDragonFusion'::`2'::winH
_BSS	ENDS
;	COMDAT ?btnLoc@?1??serverWindowDragonFusion@@YAXXZ@4PAY01HA
_BSS	SEGMENT
?btnLoc@?1??serverWindowDragonFusion@@YAXXZ@4PAY01HA DD 0cH DUP (?) ; `serverWindowDragonFusion'::`2'::btnLoc
_BSS	ENDS
;	COMDAT ?btnCnt@?1??serverWindowDragonFusion@@YAXXZ@4HA
_BSS	SEGMENT
?btnCnt@?1??serverWindowDragonFusion@@YAXXZ@4HA DD 01H DUP (?) ; `serverWindowDragonFusion'::`2'::btnCnt
_BSS	ENDS
;	COMDAT ?selects@?1??serverWindowDragonFusion@@YAXXZ@4HA
_BSS	SEGMENT
?selects@?1??serverWindowDragonFusion@@YAXXZ@4HA DD 01H DUP (?) ; `serverWindowDragonFusion'::`2'::selects
_BSS	ENDS
;	COMDAT __xmm@ffffffffffffffffffffffffffffffff
CONST	SEGMENT
__xmm@ffffffffffffffffffffffffffffffff DB 0ffH, 0ffH, 0ffH, 0ffH, 0ffH, 0ffH
	DB	0ffH, 0ffH, 0ffH, 0ffH, 0ffH, 0ffH, 0ffH, 0ffH, 0ffH, 0ffH
CONST	ENDS
;	COMDAT __xmm@fffffffefffffffefffffffefffffffe
CONST	SEGMENT
__xmm@fffffffefffffffefffffffefffffffe DB 0feH, 0ffH, 0ffH, 0ffH, 0feH, 0ffH
	DB	0ffH, 0ffH, 0feH, 0ffH, 0ffH, 0ffH, 0feH, 0ffH, 0ffH, 0ffH
CONST	ENDS
;	COMDAT __xmm@00006647000066460000664500006644
CONST	SEGMENT
__xmm@00006647000066460000664500006644 DB 'Df', 00H, 00H, 'Ef', 00H, 00H, 'F'
	DB	'f', 00H, 00H, 'Gf', 00H, 00H
CONST	ENDS
;	COMDAT __xmm@000065c2000065ed000065c2000065ed
CONST	SEGMENT
__xmm@000065c2000065ed000065c2000065ed DB 0edH, 'e', 00H, 00H, 0c2H, 'e', 00H
	DB	00H, 0edH, 'e', 00H, 00H, 0c2H, 'e', 00H, 00H
CONST	ENDS
;	COMDAT __xmm@0000014e0000006f000001310000006f
CONST	SEGMENT
__xmm@0000014e0000006f000001310000006f DB 'o', 00H, 00H, 00H, '1', 01H, 00H
	DB	00H, 'o', 00H, 00H, 00H, 'N', 01H, 00H, 00H
CONST	ENDS
;	COMDAT __xmm@00000147000001290000012f00000129
CONST	SEGMENT
__xmm@00000147000001290000012f00000129 DB ')', 01H, 00H, 00H, '/', 01H, 00H
	DB	00H, ')', 01H, 00H, 00H, 'G', 01H, 00H, 00H
CONST	ENDS
;	COMDAT __xmm@0000011700000129000000ff00000129
CONST	SEGMENT
__xmm@0000011700000129000000ff00000129 DB ')', 01H, 00H, 00H, 0ffH, 00H, 00H
	DB	00H, ')', 01H, 00H, 00H, 017H, 01H, 00H, 00H
CONST	ENDS
;	COMDAT __xmm@000001160000006f000000fa0000006f
CONST	SEGMENT
__xmm@000001160000006f000000fa0000006f DB 'o', 00H, 00H, 00H, 0faH, 00H, 00H
	DB	00H, 'o', 00H, 00H, 00H, 016H, 01H, 00H, 00H
CONST	ENDS
;	COMDAT __xmm@000000c800000064000000c800000064
CONST	SEGMENT
__xmm@000000c800000064000000c800000064 DB 'd', 00H, 00H, 00H, 0c8H, 00H, 00H
	DB	00H, 'd', 00H, 00H, 00H, 0c8H, 00H, 00H, 00H
CONST	ENDS
;	COMDAT __xmm@000000a0000000f0000000a000000064
CONST	SEGMENT
__xmm@000000a0000000f0000000a000000064 DB 'd', 00H, 00H, 00H, 0a0H, 00H, 00H
	DB	00H, 0f0H, 00H, 00H, 00H, 0a0H, 00H, 00H, 00H
CONST	ENDS
;	COMDAT __xmm@000000440000006400000044000000c8
CONST	SEGMENT
__xmm@000000440000006400000044000000c8 DB 0c8H, 00H, 00H, 00H, 'D', 00H, 00H
	DB	00H, 'd', 00H, 00H, 00H, 'D', 00H, 00H, 00H
CONST	ENDS
;	COMDAT __xmm@00000006000000fe00000002000000fa
CONST	SEGMENT
__xmm@00000006000000fe00000002000000fa DB 0faH, 00H, 00H, 00H, 02H, 00H, 00H
	DB	00H, 0feH, 00H, 00H, 00H, 06H, 00H, 00H, 00H
CONST	ENDS
;	COMDAT __xmm@00000003000000fb00000001000000f9
CONST	SEGMENT
__xmm@00000003000000fb00000001000000f9 DB 0f9H, 00H, 00H, 00H, 01H, 00H, 00H
	DB	00H, 0fbH, 00H, 00H, 00H, 03H, 00H, 00H, 00H
CONST	ENDS
;	COMDAT __xmm@00000000000000000000000a0000000a
CONST	SEGMENT
__xmm@00000000000000000000000a0000000a DB 0aH, 00H, 00H, 00H, 0aH, 00H, 00H
	DB	00H, 00H, 00H, 00H, 00H, 00H, 00H, 00H, 00H
CONST	ENDS
;	COMDAT ??_C@_08LBNAPDDE@MaxHP?5?$CFd@
CONST	SEGMENT
??_C@_08LBNAPDDE@MaxHP?5?$CFd@ DB 'MaxHP %d', 00H	; `string'
CONST	ENDS
;	COMDAT ??_C@_05POAOFMIF@LV?4?$CFd@
CONST	SEGMENT
??_C@_05POAOFMIF@LV?4?$CFd@ DB 'LV.%d', 00H		; `string'
CONST	ENDS
;	COMDAT ??_C@_04KHFBBOKF@?q?r?l?L@
CONST	SEGMENT
??_C@_04KHFBBOKF@?q?r?l?L@ DB 0f1H, 0f2H, 0ecH, 0ccH, 00H ; `string'
CONST	ENDS
;	COMDAT ??_C@_03MNGAGPGA@?c?S?$DP@
CONST	SEGMENT
??_C@_03MNGAGPGA@?c?S?$DP@ DB 0e3H, 0d3H, '?', 00H	; `string'
CONST	ENDS
;	COMDAT ??_C@_03GKEDPABO@?$DP?$NM?Q@
CONST	SEGMENT
??_C@_03GKEDPABO@?$DP?$NM?Q@ DB '?', 0dcH, 0d1H, 00H	; `string'
CONST	ENDS
;	COMDAT ??_C@_08FAALJAKG@?A?A?$LO?F?G?O?$LE?Y@
CONST	SEGMENT
??_C@_08FAALJAKG@?A?A?$LO?F?G?O?$LE?Y@ DB 0c1H, 0c1H, 0beH, 0c6H, 0c7H, 0cfH
	DB	0b4H, 0d9H, 00H				; `string'
CONST	ENDS
;	COMDAT ??_C@_06CALAJCAP@?$LK?N?$LI?$KD?$LE?Y@
CONST	SEGMENT
??_C@_06CALAJCAP@?$LK?N?$LI?$KD?$LE?Y@ DB 0baH, 0ceH, 0b8H, 0a3H, 0b4H, 0d9H
	DB	00H						; `string'
CONST	ENDS
;	COMDAT ??_C@_0P@DIJJDGHC@?$CFd?$HM?$CFd?$HM?$CFd?$HM?$CFd?$HM?$CFd@
CONST	SEGMENT
??_C@_0P@DIJJDGHC@?$CFd?$HM?$CFd?$HM?$CFd?$HM?$CFd?$HM?$CFd@ DB '%d|%d|%d'
	DB	'|%d|%d', 00H				; `string'
CONST	ENDS
;	COMDAT ??_C@_0CI@LPGMCPCH@?$KD?$LN?$KD?$LN?$KD?$LN?5?5?5?5?5?5?$LA?a?A?$KE?G?O?$LM?K?$LN?$MA?$LE?O?$LB?n?$KD?$LP?5?5?5@
CONST	SEGMENT
??_C@_0CI@LPGMCPCH@?$KD?$LN?$KD?$LN?$KD?$LN?5?5?5?5?5?5?$LA?a?A?$KE?G?O?$LM?K?$LN?$MA?$LE?O?$LB?n?$KD?$LP?5?5?5@ DB 0a3H
	DB	0bdH, 0a3H, 0bdH, 0a3H, 0bdH, '      ', 0b0H, 0e1H, 0c1H, 0a4H
	DB	0c7H, 0cfH, 0bcH, 0cbH, 0bdH, 0c0H, 0b4H, 0cfH, 0b1H, 0eeH, 0a3H
	DB	0bfH, '     ', 0a3H, 0bdH, 0a3H, 0bdH, 0a3H, 0bdH, 00H ; `string'
CONST	ENDS
;	COMDAT ??_C@_0CC@JBOBCJOD@?$KD?$LN?$KD?$LN?$KD?$LN?5?5?5?5?5?5?$CFd?$LI?$LG?$LI?$KO?5?$LM?$LB?E?C?5?5?5?5?$KD?$LN?$KD?$LN@
CONST	SEGMENT
??_C@_0CC@JBOBCJOD@?$KD?$LN?$KD?$LN?$KD?$LN?5?5?5?5?5?5?$CFd?$LI?$LG?$LI?$KO?5?$LM?$LB?E?C?5?5?5?5?$KD?$LN?$KD?$LN@ DB 0a3H
	DB	0bdH, 0a3H, 0bdH, 0a3H, 0bdH, '      %d', 0b8H, 0b6H, 0b8H, 0aeH
	DB	' ', 0bcH, 0b1H, 0c5H, 0c3H, '    ', 0a3H, 0bdH, 0a3H, 0bdH, 0a3H
	DB	0bdH, 00H					; `string'
CONST	ENDS
;	COMDAT ?selectID@?1??serverWindowDragonFusion@@YAXXZ@4PAHA
_DATA	SEGMENT
?selectID@?1??serverWindowDragonFusion@@YAXXZ@4PAHA DD 0ffffffffH ; `serverWindowDragonFusion'::`2'::selectID
	DD	0ffffffffH
	DD	0ffffffffH
	DD	0ffffffffH
	DD	0ffffffffH
_DATA	ENDS
;	COMDAT ?btnId@?1??serverWindowDragonFusion@@YAXXZ@4PAHA
_DATA	SEGMENT
?btnId@?1??serverWindowDragonFusion@@YAXXZ@4PAHA DD 0fffffffeH ; `serverWindowDragonFusion'::`2'::btnId
	DD	0fffffffeH
	DD	0fffffffeH
	DD	0fffffffeH
	DD	0fffffffeH
	DD	0fffffffeH
_DATA	ENDS
;	COMDAT ??_C@_0CP@FDBDKEML@?$KB?$KO?$LM?$KO?B?w?$KB?$KP?5?5?5?5?$KB?$KO?5?5?5?$MA?L?5?5?5?$LI?$KH?5?5?5?5?$KB?$KP?5@
CONST	SEGMENT
??_C@_0CP@FDBDKEML@?$KB?$KO?$LM?$KO?B?w?$KB?$KP?5?5?5?5?$KB?$KO?5?5?5?$MA?L?5?5?5?$LI?$KH?5?5?5?5?$KB?$KP?5@ DB 0a1H
	DB	0aeH, 0bcH, 0aeH, 0c2H, 0f7H, 0a1H, 0afH, '    ', 0a1H, 0aeH, ' '
	DB	'  ', 0c0H, 0ccH, '   ', 0b8H, 0a7H, '    ', 0a1H, 0afH, '    '
	DB	'  ', 0a1H, 0aeH, 0c6H, 0f7H, 0c8H, 0b9H, 0bcH, 0f6H, 0a1H, 0afH
	DB	00H						; `string'
CONST	ENDS
;	COMDAT ?btnId@?1??showRacemanRankWN@@YAXXZ@4PAHA
_DATA	SEGMENT
?btnId@?1??showRacemanRankWN@@YAXXZ@4PAHA DD 0fffffffeH	; `showRacemanRankWN'::`2'::btnId
	DD	0fffffffeH
	DD	0fffffffeH
	DD	0fffffffeH
	DD	0fffffffeH
	DD	0fffffffeH
_DATA	ENDS
;	COMDAT ??_C@_0O@IFIHGCPG@?5?$CF?910s?$CF?927s?$CFs@
CONST	SEGMENT
??_C@_0O@IFIHGCPG@?5?$CF?910s?$CF?927s?$CFs@ DB ' %-10s%-27s%s', 00H ; `string'
CONST	ENDS
;	COMDAT ??_C@_06GJCJAMOC@?v?$KC?$KB?$KB?a?$LM@
CONST	SEGMENT
??_C@_06GJCJAMOC@?v?$KC?$KB?$KB?a?$LM@ DB 0f6H, 0a2H, 0a1H, 0a1H, 0e1H, 0bcH
	DB	00H						; `string'
CONST	ENDS
;	COMDAT ??_C@_09OOIHKOPD@?X?$KB?$DP?l?m?$KD?$LK?$CFs@
CONST	SEGMENT
??_C@_09OOIHKOPD@?X?$KB?$DP?l?m?$KD?$LK?$CFs@ DB 0d8H, 0a1H, '?', 0ecH, 0edH
	DB	0a3H, 0baH, '%s', 00H			; `string'
CONST	ENDS
;	COMDAT ??_C@_05BCDBBDGC@?$DP?$KB?$KB?o?R@
CONST	SEGMENT
??_C@_05BCDBBDGC@?$DP?$KB?$KB?o?R@ DB '?', 0a1H, 0a1H, 0efH, 0d2H, 00H ; `string'
CONST	ENDS
;	COMDAT ??_C@_0O@IJDIOBDJ@?$CFs?$KD?$LK?5?5?5?$DP?Z?$LB?$DP?Y?$KD@
CONST	SEGMENT
??_C@_0O@IJDIOBDJ@?$CFs?$KD?$LK?5?5?5?$DP?Z?$LB?$DP?Y?$KD@ DB '%s', 0a3H, 0baH
	DB	'   ?', 0daH, 0b1H, '?', 0d9H, 0a3H, 00H	; `string'
CONST	ENDS
;	COMDAT ??_C@_0P@KIMCNEJC@?$CFs?$KD?$LK?5?5?5?n?$KE?s?$KO?$DP?Y?$KD@
CONST	SEGMENT
??_C@_0P@KIMCNEJC@?$CFs?$KD?$LK?5?5?5?n?$KE?s?$KO?$DP?Y?$KD@ DB '%s', 0a3H
	DB	0baH, '   ', 0eeH, 0a4H, 0f3H, 0aeH, '?', 0d9H, 0a3H, 00H ; `string'
CONST	ENDS
;	COMDAT ??_C@_0M@EOHPHPFN@?$CFs?$KD?$LK?5?$CFs?5?5?$CFs@
CONST	SEGMENT
??_C@_0M@EOHPHPFN@?$CFs?$KD?$LK?5?$CFs?5?5?$CFs@ DB '%s', 0a3H, 0baH, ' %'
	DB	's  %s', 00H					; `string'
CONST	ENDS
;	COMDAT ??_C@_04FHAMEFIC@?o?K?$NL?$LA@
CONST	SEGMENT
??_C@_04FHAMEFIC@?o?K?$NL?$LA@ DB 0efH, 0cbH, 0dbH, 0b0H, 00H ; `string'
CONST	ENDS
;	COMDAT ??_C@_04NLDKAEJ@?$NM?$LA?$NL?$LA@
CONST	SEGMENT
??_C@_04NLDKAEJ@?$NM?$LA?$NL?$LA@ DB 0dcH, 0b0H, 0dbH, 0b0H, 00H ; `string'
CONST	ENDS
;	COMDAT ??_C@_04NFLPMLHN@?k?$OA?$NL?$LA@
CONST	SEGMENT
??_C@_04NFLPMLHN@?k?$OA?$NL?$LA@ DB 0ebH, 0e0H, 0dbH, 0b0H, 00H ; `string'
CONST	ENDS
;	COMDAT ??_C@_04JNNPBDKK@?K?$KD?$NL?$LA@
CONST	SEGMENT
??_C@_04JNNPBDKK@?K?$KD?$NL?$LA@ DB 0cbH, 0a3H, 0dbH, 0b0H, 00H ; `string'
CONST	ENDS
;	COMDAT ??_C@_02JOGGLHBA@?2n@
CONST	SEGMENT
??_C@_02JOGGLHBA@?2n@ DB '\n', 00H			; `string'
CONST	ENDS
;	COMDAT ?fontId@?1??showContractWN@@YAXXZ@4PAHA
_DATA	SEGMENT
?fontId@?1??showContractWN@@YAXXZ@4PAHA DD 0fffffffeH	; `showContractWN'::`2'::fontId
	DD	0fffffffeH
	DD	0fffffffeH
	DD	0fffffffeH
	DD	0fffffffeH
	DD	0fffffffeH
	DD	0fffffffeH
	DD	0fffffffeH
_DATA	ENDS
;	COMDAT ??_C@_0L@OKNLNJFO@?5?v?$KC?$KB?$KB?$KB?$KB?a?$LM?5@
CONST	SEGMENT
??_C@_0L@OKNLNJFO@?5?v?$KC?$KB?$KB?$KB?$KB?a?$LM?5@ DB ' ', 0f6H, 0a2H, 0a1H
	DB	0a1H, 0a1H, 0a1H, 0e1H, 0bcH, ' ', 00H	; `string'
CONST	ENDS
;	COMDAT ??_C@_09NHGAGPIH@?5?$DP?5?5?5?5?l?Q?5@
CONST	SEGMENT
??_C@_09NHGAGPIH@?5?$DP?5?5?5?5?l?Q?5@ DB ' ?    ', 0ecH, 0d1H, ' ', 00H ; `string'
CONST	ENDS
;	COMDAT ??_C@_08NELLBCLM@?5?$DP?5?5?5?5?$DP?5@
CONST	SEGMENT
??_C@_08NELLBCLM@?5?$DP?5?5?5?5?$DP?5@ DB ' ?    ? ', 00H ; `string'
CONST	ENDS
;	COMDAT ??_C@_09MEHCFAEH@?5?Z?K?$KB?$KB?$KB?$KB?$DP?5@
CONST	SEGMENT
??_C@_09MEHCFAEH@?5?Z?K?$KB?$KB?$KB?$KB?$DP?5@ DB ' ', 0daH, 0cbH, 0a1H, 0a1H
	DB	0a1H, 0a1H, '? ', 00H			; `string'
CONST	ENDS
;	COMDAT ??_C@_0N@BPLMBEOA@?$DP?v?h?$NP?$KJ?$DP?5?$CFs?5?$KD?$LK@
CONST	SEGMENT
??_C@_0N@BPLMBEOA@?$DP?v?h?$NP?$KJ?$DP?5?$CFs?5?$KD?$LK@ DB '?', 0f6H, 0e8H
	DB	0dfH, 0a9H, '? %s ', 0a3H, 0baH, 00H		; `string'
CONST	ENDS
;	COMDAT ??_C@_0BG@IHBEEPL@?5IceCloud?5go?5Shit?$CB?$CB?$CB?5@
CONST	SEGMENT
??_C@_0BG@IHBEEPL@?5IceCloud?5go?5Shit?$CB?$CB?$CB?5@ DB ' IceCloud go Sh'
	DB	'it!!! ', 00H				; `string'
CONST	ENDS
;	COMDAT ?fontId@?1??showMouseGetNameWN@@YAXXZ@4PAHA
_DATA	SEGMENT
?fontId@?1??showMouseGetNameWN@@YAXXZ@4PAHA DD 0fffffffeH ; `showMouseGetNameWN'::`2'::fontId
	DD	0fffffffeH
	DD	0fffffffeH
	DD	0fffffffeH
_DATA	ENDS
;	COMDAT ??_C@_01LOCGONAA@?$AA@
CONST	SEGMENT
??_C@_01LOCGONAA@?$AA@ DB 00H, 00H			; `string'
CONST	ENDS
;	COMDAT ??_C@_06MCFCBINE@?$CFd?19?5?$DP@
CONST	SEGMENT
??_C@_06MCFCBINE@?$CFd?19?5?$DP@ DB '%d/9 ?', 00H	; `string'
CONST	ENDS
;	COMDAT ??_C@_03IFADCKOJ@?$CFd?$HM@
CONST	SEGMENT
??_C@_03IFADCKOJ@?$CFd?$HM@ DB '%d|', 00H		; `string'
CONST	ENDS
;	COMDAT ??_C@_0L@EIOJDBDM@2?$HM?$CFd?$HM?$CFs?$HM?$CFd@
CONST	SEGMENT
??_C@_0L@EIOJDBDM@2?$HM?$CFd?$HM?$CFs?$HM?$CFd@ DB '2|%d|%s|%d', 00H ; `string'
CONST	ENDS
;	COMDAT ??_C@_0L@NBALFHDN@1?$HM?$CFd?$HM?$CFs?$HM?$CFd@
CONST	SEGMENT
??_C@_0L@NBALFHDN@1?$HM?$CFd?$HM?$CFs?$HM?$CFd@ DB '1|%d|%s|%d', 00H ; `string'
CONST	ENDS
;	COMDAT ??_C@_0L@DOPLAOEB@?5?5?C?k?5?5?$LM?R?5?5@
CONST	SEGMENT
??_C@_0L@DOPLAOEB@?5?5?C?k?5?5?$LM?R?5?5@ DB '  ', 0c3H, 0ebH, '  ', 0bcH
	DB	0d2H, '  ', 00H				; `string'
CONST	ENDS
;	COMDAT ??_C@_0L@MCFCFIOA@?A?$KB?$LH?I?$LI?$LG?$MA?$LL?$KD?$LK@
CONST	SEGMENT
??_C@_0L@MCFCFIOA@?A?$KB?$LH?I?$LI?$LG?$MA?$LL?$KD?$LK@ DB 0c1H, 0a1H, 0b7H
	DB	0c9H, 0b8H, 0b6H, 0c0H, 0bbH, 0a3H, 0baH, 00H ; `string'
CONST	ENDS
;	COMDAT ??_C@_0L@ODKJDFKI@?J?$KL?p?i?$PN?E?m?q?$KD?$LK@
CONST	SEGMENT
??_C@_0L@ODKJDFKI@?J?$KL?p?i?$PN?E?m?q?$KD?$LK@ DB 0caH, 0abH, 0f0H, 0e9H
	DB	0fdH, 0c5H, 0edH, 0f1H, 0a3H, 0baH, 00H	; `string'
CONST	ENDS
;	COMDAT ??_C@_0N@PNFPIJDL@?$LA?$LD?$MA?N?$LB?b?$LM?$LM?$KD?$LK?$CFd@
CONST	SEGMENT
??_C@_0N@PNFPIJDL@?$LA?$LD?$MA?N?$LB?b?$LM?$LM?$KD?$LK?$CFd@ DB 0b0H, 0b3H
	DB	0c0H, 0ceH, 0b1H, 0e2H, 0bcH, 0bcH, 0a3H, 0baH, '%d', 00H ; `string'
CONST	ENDS
;	COMDAT ??_C@_0N@NGKOILMK@?$LA?$KB?A?$LH?$LB?b?$LM?$LM?$KD?$LK?$CFd@
CONST	SEGMENT
??_C@_0N@NGKOILMK@?$LA?$KB?A?$LH?$LB?b?$LM?$LM?$KD?$LK?$CFd@ DB 0b0H, 0a1H
	DB	0c1H, 0b7H, 0b1H, 0e2H, 0bcH, 0bcH, 0a3H, 0baH, '%d', 00H ; `string'
CONST	ENDS
;	COMDAT ??_C@_0N@FOIFMONB@?$LA?$LD?$MA?N?$LI?m?$LM?$LK?$KD?$LK?$CFd@
CONST	SEGMENT
??_C@_0N@FOIFMONB@?$LA?$LD?$MA?N?$LI?m?$LM?$LK?$KD?$LK?$CFd@ DB 0b0H, 0b3H
	DB	0c0H, 0ceH, 0b8H, 0edH, 0bcH, 0baH, 0a3H, 0baH, '%d', 00H ; `string'
CONST	ENDS
;	COMDAT ??_C@_0N@CJCMAAFH@?$LA?$KB?A?$LH?A?w?C?$KF?$KD?$LK?$CFs@
CONST	SEGMENT
??_C@_0N@CJCMAAFH@?$LA?$KB?A?$LH?A?w?C?$KF?$KD?$LK?$CFs@ DB 0b0H, 0a1H, 0c1H
	DB	0b7H, 0c1H, 0f7H, 0c3H, 0a5H, 0a3H, 0baH, '%s', 00H ; `string'
CONST	ENDS
;	COMDAT ??_C@_0N@HFHEMMCA@?$LA?$KB?A?$LH?$LI?m?$LM?$LK?$KD?$LK?$CFd@
CONST	SEGMENT
??_C@_0N@HFHEMMCA@?$LA?$KB?A?$LH?$LI?m?$LM?$LK?$KD?$LK?$CFd@ DB 0b0H, 0a1H
	DB	0c1H, 0b7H, 0b8H, 0edH, 0bcH, 0baH, 0a3H, 0baH, '%d', 00H ; `string'
CONST	ENDS
;	COMDAT ??_C@_0N@CHGBLECB@?$LI?m?$LM?$LK?$LM?x?$MA?$KH?$KD?$LK?$CFd@
CONST	SEGMENT
??_C@_0N@CHGBLECB@?$LI?m?$LM?$LK?$LM?x?$MA?$KH?$KD?$LK?$CFd@ DB 0b8H, 0edH
	DB	0bcH, 0baH, 0bcH, 0f8H, 0c0H, 0a7H, 0a3H, 0baH, '%d', 00H ; `string'
CONST	ENDS
;	COMDAT ??_C@_0N@BCMFNKAE@?$LM?v?H?$KD?A?$KE?$LH?I?$KD?$LK?$CFs@
CONST	SEGMENT
??_C@_0N@BCMFNKAE@?$LM?v?H?$KD?A?$KE?$LH?I?$KD?$LK?$CFs@ DB 0bcH, 0f6H, 0c8H
	DB	0a3H, 0c1H, 0a4H, 0b7H, 0c9H, 0a3H, 0baH, '%s', 00H ; `string'
CONST	ENDS
;	COMDAT ??_C@_0N@DKIOHJKC@?$LA?$KB?A?$LH?$MA?N?$LP?x?$KD?$LK?$CFd@
CONST	SEGMENT
??_C@_0N@DKIOHJKC@?$LA?$KB?A?$LH?$MA?N?$LP?x?$KD?$LK?$CFd@ DB 0b0H, 0a1H, 0c1H
	DB	0b7H, 0c0H, 0ceH, 0bfH, 0f8H, 0a3H, 0baH, '%d', 00H ; `string'
CONST	ENDS
;	COMDAT ??_C@_0N@LNHPBKEN@?A?$LH?$MA?e?$MA?L?$LI?$KH?$KD?$LK?$CFs@
CONST	SEGMENT
??_C@_0N@LNHPBKEN@?A?$LH?$MA?e?$MA?L?$LI?$KH?$KD?$LK?$CFs@ DB 0c1H, 0b7H, 0c0H
	DB	0e5H, 0c0H, 0ccH, 0b8H, 0a7H, 0a3H, 0baH, '%s', 00H ; `string'
CONST	ENDS
;	COMDAT ??_C@_0N@EFFHHOOF@?$LA?$KB?A?$LH?$MA?L?$LI?$KH?$KD?$LK?$CFs@
CONST	SEGMENT
??_C@_0N@EFFHHOOF@?$LA?$KB?A?$LH?$MA?L?$LI?$KH?$KD?$LK?$CFs@ DB 0b0H, 0a1H
	DB	0c1H, 0b7H, 0c0H, 0ccH, 0b8H, 0a7H, 0a3H, 0baH, '%s', 00H ; `string'
CONST	ENDS
;	COMDAT ??_C@_08KIHJGLGD@?$LA?$KB?A?$LH?A?$KE?$LK?$LI@
CONST	SEGMENT
??_C@_08KIHJGLGD@?$LA?$KB?A?$LH?A?$KE?$LK?$LI@ DB 0b0H, 0a1H, 0c1H, 0b7H, 0c1H
	DB	0a4H, 0baH, 0b8H, 00H			; `string'
CONST	ENDS
;	COMDAT ??_C@_0L@DJLGMOPM@?5?5?$LM?v?5?5?$LG?t?5?5@
CONST	SEGMENT
??_C@_0L@DJLGMOPM@?5?5?$LM?v?5?5?$LG?t?5?5@ DB '  ', 0bcH, 0f6H, '  ', 0b6H
	DB	0f4H, '  ', 00H				; `string'
CONST	ENDS
;	COMDAT ??_C@_09KOHGDBKE@?5?5?$LA?E?5?$MA?$PN?5?5@
CONST	SEGMENT
??_C@_09KOHGDBKE@?5?5?$LA?E?5?$MA?$PN?5?5@ DB '  ', 0b0H, 0c5H, ' ', 0c0H
	DB	0fdH, '  ', 00H				; `string'
CONST	ENDS
;	COMDAT ??_C@_0BD@HPIFLCKK@?$LM?v?$LG?t?G?O?$LN?C?$LA?Z?$LN?$MA?$LE?O?$LB?n?$KD?$LP@
CONST	SEGMENT
??_C@_0BD@HPIFLCKK@?$LM?v?$LG?t?G?O?$LN?C?$LA?Z?$LN?$MA?$LE?O?$LB?n?$KD?$LP@ DB 0bcH
	DB	0f6H, 0b6H, 0f4H, 0c7H, 0cfH, 0bdH, 0c3H, 0b0H, 0daH, 0bdH, 0c0H
	DB	0b4H, 0cfH, 0b1H, 0eeH, 0a3H, 0bfH, 00H	; `string'
CONST	ENDS
;	COMDAT ??_C@_0BM@JJMKEJNK@?$CFs?5?$LP?$KB?$LA?T?5?A?$LH?$MA?e?$MA?$LL?5?$MA?$KH?$MA?S?G?U?$LE?O?$LE?Y?$KD?$KM@
CONST	SEGMENT
??_C@_0BM@JJMKEJNK@?$CFs?5?$LP?$KB?$LA?T?5?A?$LH?$MA?e?$MA?$LL?5?$MA?$KH?$MA?S?G?U?$LE?O?$LE?Y?$KD?$KM@ DB '%'
	DB	's ', 0bfH, 0a1H, 0b0H, 0d4H, ' ', 0c1H, 0b7H, 0c0H, 0e5H, 0c0H
	DB	0bbH, ' ', 0c0H, 0a7H, 0c0H, 0d3H, 0c7H, 0d5H, 0b4H, 0cfH, 0b4H
	DB	0d9H, 0a3H, 0acH, 00H			; `string'
CONST	ENDS
;	COMDAT ??_C@_0BD@JJJPGLGO@L?$HMCHANGE?$HMA?$HM1?$HM?$CFs?$HM?$CFd@
CONST	SEGMENT
??_C@_0BD@JJJPGLGO@L?$HMCHANGE?$HMA?$HM1?$HM?$CFs?$HM?$CFd@ DB 'L|CHANGE|'
	DB	'A|1|%s|%d', 00H				; `string'
CONST	ENDS
;	COMDAT ??_C@_0BD@FFDFGLPA@L?$HMCHANGE?$HMA?$HM0?$HM?$CFs?$HM?$CFd@
CONST	SEGMENT
??_C@_0BD@FFDFGLPA@L?$HMCHANGE?$HMA?$HM0?$HM?$CFs?$HM?$CFd@ DB 'L|CHANGE|'
	DB	'A|0|%s|%d', 00H				; `string'
CONST	ENDS
;	COMDAT ??_C@_08PPLGHOJI@?5?5?$DP?5?5?$DP?5?5@
CONST	SEGMENT
??_C@_08PPLGHOJI@?5?5?$DP?5?5?$DP?5?5@ DB '  ?  ?  ', 00H ; `string'
CONST	ENDS
;	COMDAT ??_C@_0N@EPCBPGPN@?5?5?$LG?$LA?5?$LD?$KK?5?$LE?Y?5?5@
CONST	SEGMENT
??_C@_0N@EPCBPGPN@?5?5?$LG?$LA?5?$LD?$KK?5?$LE?Y?5?5@ DB '  ', 0b6H, 0b0H
	DB	' ', 0b3H, 0aaH, ' ', 0b4H, 0d9H, '  ', 00H	; `string'
CONST	ENDS
;	COMDAT ??_C@_0CA@FPBPENDN@?A?$LH?$MA?e?$MA?$LL?$CFs?$LP?$KB?$LA?T?5?$MA?$KH?$MA?S?G?O?$LN?C?$LA?Z?$LN?$MA?$LE?O?$LB?n?$KD?$LP@
CONST	SEGMENT
??_C@_0CA@FPBPENDN@?A?$LH?$MA?e?$MA?$LL?$CFs?$LP?$KB?$LA?T?5?$MA?$KH?$MA?S?G?O?$LN?C?$LA?Z?$LN?$MA?$LE?O?$LB?n?$KD?$LP@ DB 0c1H
	DB	0b7H, 0c0H, 0e5H, 0c0H, 0bbH, '%s', 0bfH, 0a1H, 0b0H, 0d4H, ' '
	DB	0c0H, 0a7H, 0c0H, 0d3H, 0c7H, 0cfH, 0bdH, 0c3H, 0b0H, 0daH, 0bdH
	DB	0c0H, 0b4H, 0cfH, 0b1H, 0eeH, 0a3H, 0bfH, 00H ; `string'
CONST	ENDS
;	COMDAT ??_C@_0BB@JFLIPKGJ@L?$HMCHANGE?$HMQ?$HM?$CFd?$HM?$CFs@
CONST	SEGMENT
??_C@_0BB@JFLIPKGJ@L?$HMCHANGE?$HMQ?$HM?$CFd?$HM?$CFs@ DB 'L|CHANGE|Q|%d|'
	DB	'%s', 00H					; `string'
CONST	ENDS
;	COMDAT ??_C@_0L@KPJPAJE@?5?5?$LG?$LA?$LD?$KK?$LE?Y?5?5@
CONST	SEGMENT
??_C@_0L@KPJPAJE@?5?5?$LG?$LA?$LD?$KK?$LE?Y?5?5@ DB '  ', 0b6H, 0b0H, 0b3H
	DB	0aaH, 0b4H, 0d9H, '  ', 00H			; `string'
CONST	ENDS
;	COMDAT ??_C@_0BJ@DODKFOKF@?$LA?$KB?A?$LH?$LB?$LI?$LM?$LK?$LP?x?$MA?$LL?$LM?$LB?E?C?G?O?$LM?$LM?$LP?d?$KD?$LK@
CONST	SEGMENT
??_C@_0BJ@DODKFOKF@?$LA?$KB?A?$LH?$LB?$LI?$LM?$LK?$LP?x?$MA?$LL?$LM?$LB?E?C?G?O?$LM?$LM?$LP?d?$KD?$LK@ DB 0b0H
	DB	0a1H, 0c1H, 0b7H, 0b1H, 0b8H, 0bcH, 0baH, 0bfH, 0f8H, 0c0H, 0bbH
	DB	0bcH, 0b1H, 0c5H, 0c3H, 0c7H, 0cfH, 0bcH, 0bcH, 0bfH, 0e4H, 0a3H
	DB	0baH, 00H					; `string'
CONST	ENDS
;	COMDAT ??_C@_0BL@IIIFLCHO@?$LL?s?$LE?k?$LI?$KG?5?$LM?$KN?$LF?Q?$LH?$KP?5?C?$KD?$LO?F?$LK?$LI?$LM?$LM?$LP?d?$KD?$KB@
CONST	SEGMENT
??_C@_0BL@IIIFLCHO@?$LL?s?$LE?k?$LI?$KG?5?$LM?$KN?$LF?Q?$LH?$KP?5?C?$KD?$LO?F?$LK?$LI?$LM?$LM?$LP?d?$KD?$KB@ DB 0bbH
	DB	0f3H, 0b4H, 0ebH, 0b8H, 0a6H, ' ', 0bcH, 0adH, 0b5H, 0d1H, 0b7H
	DB	0afH, ' ', 0c3H, 0a3H, 0beH, 0c6H, 0baH, 0b8H, 0bcH, 0bcH, 0bfH
	DB	0e4H, 0a3H, 0a1H, 00H			; `string'
CONST	ENDS
;	COMDAT ??_C@_0CE@FDKHNEAG@?E?$LO?$LN?B?$LA?$KB?$LE?I?G?Q?F?d?F?$KO?$LE?B?5?$LE?Y?$MA?$LN?$LA?z?5?$LA?$LA?$LN?$MA?$LE?O?$LE@
CONST	SEGMENT
??_C@_0CE@FDKHNEAG@?E?$LO?$LN?B?$LA?$KB?$LE?I?G?Q?F?d?F?$KO?$LE?B?5?$LE?Y?$MA?$LN?$LA?z?5?$LA?$LA?$LN?$MA?$LE?O?$LE@ DB 0c5H
	DB	0beH, 0bdH, 0c2H, 0b0H, 0a1H, 0b4H, 0c9H, 0c7H, 0d1H, 0c6H, 0e4H
	DB	0c6H, 0aeH, 0b4H, 0c2H, ' ', 0b4H, 0d9H, 0c0H, 0bdH, 0b0H, 0faH
	DB	' ', 0b0H, 0b0H, 0bdH, 0c0H, 0b4H, 0cfH, 0b4H, 0d9H, '.', 0a3H
	DB	0baH, 00H					; `string'
CONST	ENDS
;	COMDAT ?fontId@?1??showRidePetWN@@YAXXZ@4PAHA
_DATA	SEGMENT
?fontId@?1??showRidePetWN@@YAXXZ@4PAHA DD 0fffffffeH	; `showRidePetWN'::`2'::fontId
	DD	0fffffffeH
_DATA	ENDS
;	COMDAT ??_C@_06BOIKNFOM@B?$HMT?$HM?$CFd@
CONST	SEGMENT
??_C@_06BOIKNFOM@B?$HMT?$HM?$CFd@ DB 'B|T|%d', 00H	; `string'
CONST	ENDS
;	COMDAT ?btnId@?1??familyTaxWN@@YAXXZ@4PAHA
_DATA	SEGMENT
?btnId@?1??familyTaxWN@@YAXXZ@4PAHA DD 0fffffffeH	; `familyTaxWN'::`2'::btnId
	DD	0fffffffeH
	DD	0fffffffeH
	DD	0fffffffeH
_DATA	ENDS
;	COMDAT ?fontId@?1??familyTaxWN@@YAXXZ@4PAHA
_DATA	SEGMENT
?fontId@?1??familyTaxWN@@YAXXZ@4PAHA DD 0fffffffeH	; `familyTaxWN'::`2'::fontId
	DD	0fffffffeH
	DD	0fffffffeH
	DD	0fffffffeH
_DATA	ENDS
;	COMDAT ??_C@_0BB@HNBGGGNE@?B?$PM?$LA?$KB?$MA?Z?$LM?v?$KD?$LK?5?$CFd?5?$LI?m@
CONST	SEGMENT
??_C@_0BB@HNBGGGNE@?B?$PM?$LA?$KB?$MA?Z?$LM?v?$KD?$LK?5?$CFd?5?$LI?m@ DB 0c2H
	DB	0fcH, 0b0H, 0a1H, 0c0H, 0daH, 0bcH, 0f6H, 0a3H, 0baH, ' %d ', 0b8H
	DB	0edH, 00H					; `string'
CONST	ENDS
;	COMDAT ??_C@_0BB@PNKEDEKN@?A?X?$LK?q?$LN?C?$LA?$KD?$KD?$LK?5?$CFd?5?$LK?P@
CONST	SEGMENT
??_C@_0BB@PNKEDEKN@?A?X?$LK?q?$LN?C?$LA?$KD?$KD?$LK?5?$CFd?5?$LK?P@ DB 0c1H
	DB	0d8H, 0baH, 0f1H, 0bdH, 0c3H, 0b0H, 0a3H, 0a3H, 0baH, ' %d ', 0baH
	DB	0d0H, 00H					; `string'
CONST	ENDS
;	COMDAT ??_C@_0L@PHNGNCKG@?$LN?E?C?$LL?$LA?$KB?A?$LH?$KD?$LK@
CONST	SEGMENT
??_C@_0L@PHNGNCKG@?$LN?E?C?$LL?$LA?$KB?A?$LH?$KD?$LK@ DB 0bdH, 0c5H, 0c3H
	DB	0bbH, 0b0H, 0a1H, 0c1H, 0b7H, 0a3H, 0baH, 00H ; `string'
CONST	ENDS
;	COMDAT ??_C@_0L@KBIJEBEK@?$LF?$LF?$MA?$PM?$LA?$KB?A?$LH?$KD?$LK@
CONST	SEGMENT
??_C@_0L@KBIJEBEK@?$LF?$LF?$MA?$PM?$LA?$KB?A?$LH?$KD?$LK@ DB 0b5H, 0b5H, 0c0H
	DB	0fcH, 0b0H, 0a1H, 0c1H, 0b7H, 0a3H, 0baH, 00H ; `string'
CONST	ENDS
;	COMDAT ??_C@_0N@LDIFEIBI@?$LA?$KB?A?$LH?$LE?k?$LA?a?$LN?E?C?$LL@
CONST	SEGMENT
??_C@_0N@LDIFEIBI@?$LA?$KB?A?$LH?$LE?k?$LA?a?$LN?E?C?$LL@ DB 0b0H, 0a1H, 0c1H
	DB	0b7H, 0b4H, 0ebH, 0b0H, 0e1H, 0bdH, 0c5H, 0c3H, 0bbH, 00H ; `string'
CONST	ENDS
;	COMDAT ??_C@_0BC@PKDFJBMN@?$CFs?$HM?$CFs?$HM?$CFs?$HM?$CFd?$HM?$CFd?$HM?$CFd@
CONST	SEGMENT
??_C@_0BC@PKDFJBMN@?$CFs?$HM?$CFs?$HM?$CFs?$HM?$CFd?$HM?$CFd?$HM?$CFd@ DB '%'
	DB	's|%s|%s|%d|%d|%d', 00H			; `string'
CONST	ENDS
;	COMDAT ?btnId@?1??FMPKDetailWN@@YAXH@Z@4PAHA
_DATA	SEGMENT
?btnId@?1??FMPKDetailWN@@YAXH@Z@4PAHA DD 0fffffffeH	; `FMPKDetailWN'::`2'::btnId
	DD	0fffffffeH
	DD	0fffffffeH
	DD	0fffffffeH
	DD	0fffffffeH
_DATA	ENDS
;	COMDAT ?fontId@?1??FMPKDetailWN@@YAXH@Z@4PAHA
_DATA	SEGMENT
?fontId@?1??FMPKDetailWN@@YAXH@Z@4PAHA DD 0fffffffeH	; `FMPKDetailWN'::`2'::fontId
	DD	0fffffffeH
	DD	0fffffffeH
	DD	0fffffffeH
	DD	0fffffffeH
	DD	0fffffffeH
	DD	0fffffffeH
_DATA	ENDS
;	COMDAT ??_C@_05EMGOANLP@?$CF?916s@
CONST	SEGMENT
??_C@_05EMGOANLP@?$CF?916s@ DB '%-16s', 00H		; `string'
CONST	ENDS
;	COMDAT ??_C@_0BP@FOLPFEDH@?$LN?E?C?$LL?G?O?$LN?G?5?$LA?$KB?A?$LH?$MA?$LL?5?$LM?$LB?E?C?G?X?A?V?$LM?$LM?$LP?d?$KD?$LK@
CONST	SEGMENT
??_C@_0BP@FOLPFEDH@?$LN?E?C?$LL?G?O?$LN?G?5?$LA?$KB?A?$LH?$MA?$LL?5?$LM?$LB?E?C?G?X?A?V?$LM?$LM?$LP?d?$KD?$LK@ DB 0bdH
	DB	0c5H, 0c3H, 0bbH, 0c7H, 0cfH, 0bdH, 0c7H, ' ', 0b0H, 0a1H, 0c1H
	DB	0b7H, 0c0H, 0bbH, ' ', 0bcH, 0b1H, 0c5H, 0c3H, 0c7H, 0d8H, 0c1H
	DB	0d6H, 0bcH, 0bcH, 0bfH, 0e4H, 0a3H, 0baH, 00H ; `string'
CONST	ENDS
;	COMDAT ?fontId@?1??FMPKSelectWN@@YAXH@Z@4PAHA
_DATA	SEGMENT
?fontId@?1??FMPKSelectWN@@YAXH@Z@4PAHA DD 0fffffffeH	; `FMPKSelectWN'::`2'::fontId
	DD	0fffffffeH
	DD	0fffffffeH
	DD	0fffffffeH
	DD	0fffffffeH
	DD	0fffffffeH
	DD	0fffffffeH
	DD	0fffffffeH
	DD	0fffffffeH
	DD	0fffffffeH
	DD	0fffffffeH
	DD	0fffffffeH
	DD	0fffffffeH
	DD	0fffffffeH
_DATA	ENDS
;	COMDAT ??_C@_04FIBCPIPH@?$CF10s@
CONST	SEGMENT
??_C@_04FIBCPIPH@?$CF10s@ DB '%10s', 00H		; `string'
CONST	ENDS
;	COMDAT ??_C@_0O@DBFPDLEJ@?$LN?B?$LI?$KO?A?$LG?$LA?G?$KD?$LK?5?$CFs@
CONST	SEGMENT
??_C@_0O@DBFPDLEJ@?$LN?B?$LI?$KO?A?$LG?$LA?G?$KD?$LK?5?$CFs@ DB 0bdH, 0c2H
	DB	0b8H, 0aeH, 0c1H, 0b6H, 0b0H, 0c7H, 0a3H, 0baH, ' %s', 00H ; `string'
CONST	ENDS
;	COMDAT ??_C@_0CA@FLGBJLNM@?$CF10s?5?5?$CF16s?5?5?$CF16s?5?5?$CF4d?$NN?B?$DP?5?5?$CF6d?l?Q@
CONST	SEGMENT
??_C@_0CA@FLGBJLNM@?$CF10s?5?5?$CF16s?5?5?$CF16s?5?5?$CF4d?$NN?B?$DP?5?5?$CF6d?l?Q@ DB '%'
	DB	'10s  %16s  %16s  %4d', 0ddH, 0c2H, '?  %6d', 0ecH, 0d1H, 00H ; `string'
CONST	ENDS
;	COMDAT ??_C@_0L@FBMAKMIA@?$LP?$MA?$LE?C?5?$CFd?300@
CONST	SEGMENT
??_C@_0L@FBMAKMIA@?$LP?$MA?$LE?C?5?$CFd?300@ DB 0bfH, 0c0H, 0b4H, 0c3H, ' '
	DB	'%d:00', 00H					; `string'
CONST	ENDS
;	COMDAT ??_C@_0L@KPJDMHLO@?$LD?$LL?$MA?O?5?$CFd?300@
CONST	SEGMENT
??_C@_0L@KPJDMHLO@?$LD?$LL?$MA?O?5?$CFd?300@ DB 0b3H, 0bbH, 0c0H, 0cfH, ' '
	DB	'%d:00', 00H					; `string'
CONST	ENDS
;	COMDAT ??_C@_0BL@LCOOKBCN@?$CF10s?5?5?$CF16s?5?5?$CF16s?5?5?$CF8s?5?5?$CF8s@
CONST	SEGMENT
??_C@_0BL@LCOOKBCN@?$CF10s?5?5?$CF16s?5?5?$CF16s?5?5?$CF8s?5?5?$CF8s@ DB '%'
	DB	'10s  %16s  %16s  %8s  %8s', 00H		; `string'
CONST	ENDS
;	COMDAT ??_C@_08GLHNCABG@?$LA?$LD?$MA?$PM?$LN?C?$LA?$KD@
CONST	SEGMENT
??_C@_08GLHNCABG@?$LA?$LD?$MA?$PM?$LN?C?$LA?$KD@ DB 0b0H, 0b3H, 0c0H, 0fcH
	DB	0bdH, 0c3H, 0b0H, 0a3H, 00H			; `string'
CONST	ENDS
;	COMDAT ??_C@_08PFKHECNF@?$LF?$LF?$MA?$PM?$LA?$KB?A?$LH@
CONST	SEGMENT
??_C@_08PFKHECNF@?$LF?$LF?$MA?$PM?$LA?$KB?A?$LH@ DB 0b5H, 0b5H, 0c0H, 0fcH
	DB	0b0H, 0a1H, 0c1H, 0b7H, 00H			; `string'
CONST	ENDS
;	COMDAT ??_C@_08MBJKFBBE@?$LN?E?C?$LL?$LA?$KB?A?$LH@
CONST	SEGMENT
??_C@_08MBJKFBBE@?$LN?E?C?$LL?$LA?$KB?A?$LH@ DB 0bdH, 0c5H, 0c3H, 0bbH, 0b0H
	DB	0a1H, 0c1H, 0b7H, 00H			; `string'
CONST	ENDS
;	COMDAT ??_C@_08PFKCNHNG@?A?X?$LK?q?$LN?C?$LA?$KD@
CONST	SEGMENT
??_C@_08PFKCNHNG@?A?X?$LK?q?$LN?C?$LA?$KD@ DB 0c1H, 0d8H, 0baH, 0f1H, 0bdH
	DB	0c3H, 0b0H, 0a3H, 00H			; `string'
CONST	ENDS
;	COMDAT ??_C@_0N@MJLHBHM@?B?$PM?$LA?$KB?5?$MA?N?$LP?x?5?$LM?v@
CONST	SEGMENT
??_C@_0N@MJLHBHM@?B?$PM?$LA?$KB?5?$MA?N?$LP?x?5?$LM?v@ DB 0c2H, 0fcH, 0b0H
	DB	0a1H, ' ', 0c0H, 0ceH, 0bfH, 0f8H, ' ', 0bcH, 0f6H, 00H ; `string'
CONST	ENDS
;	COMDAT ??_C@_0BB@NLEMPNJJ@?G?v?$MA?g?$LN?C?$LA?$KD?$KD?$LK?5?$CFd?3?$CFd@
CONST	SEGMENT
??_C@_0BB@NLEMPNJJ@?G?v?$MA?g?$LN?C?$LA?$KD?$KD?$LK?5?$CFd?3?$CFd@ DB 0c7H
	DB	0f6H, 0c0H, 0e7H, 0bdH, 0c3H, 0b0H, 0a3H, 0a3H, 0baH, ' %d:%d', 00H ; `string'
CONST	ENDS
;	COMDAT ??_C@_0N@OOICEDBI@?$LA?$KB?A?$LH?$MA?$PM?E?u?$MA?O?A?$KE@
CONST	SEGMENT
??_C@_0N@OOICEDBI@?$LA?$KB?A?$LH?$MA?$PM?E?u?$MA?O?A?$KE@ DB 0b0H, 0a1H, 0c1H
	DB	0b7H, 0c0H, 0fcH, 0c5H, 0f5H, 0c0H, 0cfH, 0c1H, 0a4H, 00H ; `string'
CONST	ENDS
;	COMDAT ??_C@_06LCJOFINF@?$LP?$LJ?5?5?A?$KE@
CONST	SEGMENT
??_C@_06LCJOFINF@?$LP?$LJ?5?5?A?$KE@ DB 0bfH, 0b9H, '  ', 0c1H, 0a4H, 00H ; `string'
CONST	ENDS
;	COMDAT ??_C@_08MOJFPAKN@?$MA?$MA?$LE?d?$LE?k?$LB?b@
CONST	SEGMENT
??_C@_08MOJFPAKN@?$MA?$MA?$LE?d?$LE?k?$LB?b@ DB 0c0H, 0c0H, 0b4H, 0e4H, 0b4H
	DB	0ebH, 0b1H, 0e2H, 00H			; `string'
CONST	ENDS
;	COMDAT ??_C@_08EJIOEONO@?$LM?$LD?5?A?$KE?5?A?$NP@
CONST	SEGMENT
??_C@_08EJIOEONO@?$LM?$LD?5?A?$KE?5?A?$NP@ DB 0bcH, 0b3H, ' ', 0c1H, 0a4H
	DB	' ', 0c1H, 0dfH, 00H				; `string'
CONST	ENDS
;	COMDAT ??_C@_08PCGBOOHO@?5?$LP?$KM?5?5?$LA?a?5@
CONST	SEGMENT
??_C@_08PCGBOOHO@?5?$LP?$KM?5?5?$LA?a?5@ DB ' ', 0bfH, 0acH, '  ', 0b0H, 0e1H
	DB	' ', 00H					; `string'
CONST	ENDS
;	COMDAT ??_C@_08FOJJNHLG@?5?$LM?v?5?5?A?$KE?5@
CONST	SEGMENT
??_C@_08FOJJNHLG@?5?$LM?v?5?5?A?$KE?5@ DB ' ', 0bcH, 0f6H, '  ', 0c1H, 0a4H
	DB	' ', 00H					; `string'
CONST	ENDS
;	COMDAT ??_C@_08KEIECNNH@?5?C?$NP?5?5?$LA?$KB?5@
CONST	SEGMENT
??_C@_08KEIECNNH@?5?C?$NP?5?5?$LA?$KB?5@ DB ' ', 0c3H, 0dfH, '  ', 0b0H, 0a1H
	DB	' ', 00H					; `string'
CONST	ENDS
;	COMDAT ?fontId@?1??FMPKListWN@@YAXH@Z@4PAHA
_DATA	SEGMENT
?fontId@?1??FMPKListWN@@YAXH@Z@4PAHA DD 0fffffffeH	; `FMPKListWN'::`2'::fontId
	DD	0fffffffeH
	DD	0fffffffeH
	DD	0fffffffeH
	DD	0fffffffeH
	DD	0fffffffeH
	DD	0fffffffeH
	DD	0fffffffeH
	DD	0fffffffeH
	DD	0fffffffeH
_DATA	ENDS
;	COMDAT ??_C@_0BI@GILIOCHN@?$LK?q?$LJ?P?$LJ?x?H?$KD?$LI?$KG?5?$MA?T?$LH?B?G?X?A?V?$LM?$LM?$LP?d@
CONST	SEGMENT
??_C@_0BI@GILIOCHN@?$LK?q?$LJ?P?$LJ?x?H?$KD?$LI?$KG?5?$MA?T?$LH?B?G?X?A?V?$LM?$LM?$LP?d@ DB 0baH
	DB	0f1H, 0b9H, 0d0H, 0b9H, 0f8H, 0c8H, 0a3H, 0b8H, 0a6H, ' ', 0c0H
	DB	0d4H, 0b7H, 0c2H, 0c7H, 0d8H, 0c1H, 0d6H, 0bcH, 0bcH, 0bfH, 0e4H
	DB	00H						; `string'
CONST	ENDS
;	COMDAT ??_C@_0BH@BGEMBKPO@?$LK?q?$LJ?P?$LJ?x?H?$KD?$LA?$KB?5?F?$LC?$LH?H?$LN?$MA?$LE?O?$LE?Y?4@
CONST	SEGMENT
??_C@_0BH@BGEMBKPO@?$LK?q?$LJ?P?$LJ?x?H?$KD?$LA?$KB?5?F?$LC?$LH?H?$LN?$MA?$LE?O?$LE?Y?4@ DB 0baH
	DB	0f1H, 0b9H, 0d0H, 0b9H, 0f8H, 0c8H, 0a3H, 0b0H, 0a1H, ' ', 0c6H
	DB	0b2H, 0b7H, 0c8H, 0bdH, 0c0H, 0b4H, 0cfH, 0b4H, 0d9H, '.', 00H ; `string'
CONST	ENDS
;	COMDAT ??_C@_0BE@DIPOFJGG@?D?I?$LI?$KP?E?M?$LI?$KG?5?$LL?h?A?$KG?G?U?$LE?O?$LE?Y@
CONST	SEGMENT
??_C@_0BE@DIPOFJGG@?D?I?$LI?$KP?E?M?$LI?$KG?5?$LL?h?A?$KG?G?U?$LE?O?$LE?Y@ DB 0c4H
	DB	0c9H, 0b8H, 0afH, 0c5H, 0cdH, 0b8H, 0a6H, ' ', 0bbH, 0e8H, 0c1H
	DB	0a6H, 0c7H, 0d5H, 0b4H, 0cfH, 0b4H, 0d9H, 00H ; `string'
CONST	ENDS
;	COMDAT ??_C@_0CK@PKMNOIEH@?D?I?$LI?$KP?E?M?$LI?$KG?5?$LL?h?A?$KG?G?O?$LH?A?$LI?i?5?$LK?q?$LJ?P?$LJ?x?H?$KD?$LI?$KG?5@
CONST	SEGMENT
??_C@_0CK@PKMNOIEH@?D?I?$LI?$KP?E?M?$LI?$KG?5?$LL?h?A?$KG?G?O?$LH?A?$LI?i?5?$LK?q?$LJ?P?$LJ?x?H?$KD?$LI?$KG?5@ DB 0c4H
	DB	0c9H, 0b8H, 0afH, 0c5H, 0cdH, 0b8H, 0a6H, ' ', 0bbH, 0e8H, 0c1H
	DB	0a6H, 0c7H, 0cfH, 0b7H, 0c1H, 0b8H, 0e9H, ' ', 0baH, 0f1H, 0b9H
	DB	0d0H, 0b9H, 0f8H, 0c8H, 0a3H, 0b8H, 0a6H, ' ', 0c0H, 0d4H, 0b7H
	DB	0c2H, 0c7H, 0cfH, 0bcH, 0bcH, 0bfH, 0e4H, 00H ; `string'
CONST	ENDS
;	COMDAT ??_C@_06CJHLLHBH@?5?C?k?$LM?R?5@
CONST	SEGMENT
??_C@_06CJHLLHBH@?5?C?k?$LM?R?5@ DB ' ', 0c3H, 0ebH, 0bcH, 0d2H, ' ', 00H ; `string'
CONST	ENDS
;	COMDAT ??_C@_04OKOHEJBO@?5?$DP?$DP?5@
CONST	SEGMENT
??_C@_04OKOHEJBO@?5?$DP?$DP?5@ DB ' ?? ', 00H		; `string'
CONST	ENDS
;	COMDAT ?fontId@?1??DelCharGraColorWin@@YAHXZ@4PAHA
_DATA	SEGMENT
?fontId@?1??DelCharGraColorWin@@YAHXZ@4PAHA DD 0fffffffeH ; `DelCharGraColorWin'::`2'::fontId
	DD	0fffffffeH
_DATA	ENDS
;	COMDAT ??_C@_0CL@PEELKHDI@?$KB?$KO?$LM?x?$MA?$KH?$KB?$KP?5?$KB?$KO?$LK?N?A?$LH?$MA?L?$LI?$KH?$KB?$KP?5?$KB?$KO?A?$LH?$MA?e?$KB?$KP?5@
CONST	SEGMENT
??_C@_0CL@PEELKHDI@?$KB?$KO?$LM?x?$MA?$KH?$KB?$KP?5?$KB?$KO?$LK?N?A?$LH?$MA?L?$LI?$KH?$KB?$KP?5?$KB?$KO?A?$LH?$MA?e?$KB?$KP?5@ DB 0a1H
	DB	0aeH, 0bcH, 0f8H, 0c0H, 0a7H, 0a1H, 0afH, ' ', 0a1H, 0aeH, 0baH
	DB	0ceH, 0c1H, 0b7H, 0c0H, 0ccH, 0b8H, 0a7H, 0a1H, 0afH, ' ', 0a1H
	DB	0aeH, 0c1H, 0b7H, 0c0H, 0e5H, 0a1H, 0afH, '  ', 0a1H, 0aeH, 0c6H
	DB	0f7H, 0c0H, 0ceH, 0c6H, 0aeH, 0a1H, 0afH, 00H ; `string'
CONST	ENDS
;	COMDAT ??_C@_0CF@CPAJCIOI@?5?5?5?5?5?5?5?5?5?5?5?5?5?5?5?5?5?5?$KB?$KO?$LM?$KN?$LJ?v?5?$LA?$KB?A?$LH?5?$LM@
CONST	SEGMENT
??_C@_0CF@CPAJCIOI@?5?5?5?5?5?5?5?5?5?5?5?5?5?5?5?5?5?5?$KB?$KO?$LM?$KN?$LJ?v?5?$LA?$KB?A?$LH?5?$LM@ DB ' '
	DB	'                 ', 0a1H, 0aeH, 0bcH, 0adH, 0b9H, 0f6H, ' ', 0b0H
	DB	0a1H, 0c1H, 0b7H, ' ', 0bcH, 0f8H, 0c0H, 0a7H, 0a1H, 0afH, 00H ; `string'
CONST	ENDS
;	COMDAT ?btnId@?1??FMWindowType3@@YAXH@Z@4PAHA
_DATA	SEGMENT
?btnId@?1??FMWindowType3@@YAXH@Z@4PAHA DD 0fffffffeH	; `FMWindowType3'::`2'::btnId
	DD	0fffffffeH
	DD	0fffffffeH
	DD	0fffffffeH
	DD	0fffffffeH
	DD	0fffffffeH
_DATA	ENDS
;	COMDAT ??_C@_0BE@BGDICKKN@?5?$CF?99s?$CF?919s?$CF?917s?$CF12s@
CONST	SEGMENT
??_C@_0BE@BGDICKKN@?5?$CF?99s?$CF?919s?$CF?917s?$CF12s@ DB ' %-9s%-19s%-1'
	DB	'7s%12s', 00H				; `string'
CONST	ENDS
;	COMDAT ??_C@_0EB@DMPCKEKC@?$KB?$KO?$LM?x?$MA?$KH?$KB?$KP?$KB?$KO?$LA?$KB?5?A?$LH?5?$LI?m?5?D?$KK?$KB?$KP?$KB?$KO?A?$LH?5?$MA?e?5@
CONST	SEGMENT
??_C@_0EB@DMPCKEKC@?$KB?$KO?$LM?x?$MA?$KH?$KB?$KP?$KB?$KO?$LA?$KB?5?A?$LH?5?$LI?m?5?D?$KK?$KB?$KP?$KB?$KO?A?$LH?5?$MA?e?5@ DB 0a1H
	DB	0aeH, 0bcH, 0f8H, 0c0H, 0a7H, 0a1H, 0afH, 0a1H, 0aeH, 0b0H, 0a1H
	DB	' ', 0c1H, 0b7H, ' ', 0b8H, 0edH, ' ', 0c4H, 0aaH, 0a1H, 0afH, 0a1H
	DB	0aeH, 0c1H, 0b7H, ' ', 0c0H, 0e5H, ' ', 0c0H, 0ccH, ' ', 0b8H, 0a7H
	DB	0a1H, 0afH, 0a1H, 0aeH, 0b0H, 0a1H, 0c1H, 0b7H, 0c0H, 0c7H, 0c6H
	DB	0f2H, 0c6H, 0c7H, 0a1H, 0afH, 0a1H, 0aeH, 0b0H, 0b3H, 0c0H, 0ceH
	DB	0b1H, 0e2H, 0bcH, 0bcH, 0a1H, 0afH, 00H	; `string'
CONST	ENDS
;	COMDAT ??_C@_0BD@NPAMGOGD@?$KB?$KO?$LM?$KN?$LJ?v?5?$LK?N?A?$LH?5?$LM?x?$MA?$KH?$KB?$KP@
CONST	SEGMENT
??_C@_0BD@NPAMGOGD@?$KB?$KO?$LM?$KN?$LJ?v?5?$LK?N?A?$LH?5?$LM?x?$MA?$KH?$KB?$KP@ DB 0a1H
	DB	0aeH, 0bcH, 0adH, 0b9H, 0f6H, ' ', 0baH, 0ceH, 0c1H, 0b7H, ' ', 0bcH
	DB	0f8H, 0c0H, 0a7H, 0a1H, 0afH, 00H		; `string'
CONST	ENDS
;	COMDAT ??_C@_0DO@OAPGBLPG@?$KB?$KO?$LM?x?$MA?$KH?$KB?$KP?5?$KB?$KO?$LK?N?A?$LH?$MA?L?$LI?$KH?$KB?$KP?5?$KB?$KO?A?$LH?$MA?e?$KB?$KP?5@
CONST	SEGMENT
??_C@_0DO@OAPGBLPG@?$KB?$KO?$LM?x?$MA?$KH?$KB?$KP?5?$KB?$KO?$LK?N?A?$LH?$MA?L?$LI?$KH?$KB?$KP?5?$KB?$KO?A?$LH?$MA?e?$KB?$KP?5@ DB 0a1H
	DB	0aeH, 0bcH, 0f8H, 0c0H, 0a7H, 0a1H, 0afH, ' ', 0a1H, 0aeH, 0baH
	DB	0ceH, 0c1H, 0b7H, 0c0H, 0ccH, 0b8H, 0a7H, 0a1H, 0afH, ' ', 0a1H
	DB	0aeH, 0c1H, 0b7H, 0c0H, 0e5H, 0a1H, 0afH, ' ', 0a1H, 0aeH, 0b1H
	DB	0e2H, 0bfH, 0a9H, 0b5H, 0b5H, 0a1H, 0afH, 0a1H, 0aeH, 0b8H, 0edH
	DB	0bcH, 0baH, 0a1H, 0afH, 0a1H, 0aeH, 0baH, 0ceH, 0c1H, 0b7H, 0b8H
	DB	0edH, 0bcH, 0baH, 0a1H, 0afH, 00H		; `string'
CONST	ENDS
;	COMDAT ??_C@_0BE@KCIAGAPO@?$KB?$KO?$LM?$KN?$LJ?v?5?$LK?N?A?$LH?5?$LM?x?$MA?$KH?5?$KB?$KP@
CONST	SEGMENT
??_C@_0BE@KCIAGAPO@?$KB?$KO?$LM?$KN?$LJ?v?5?$LK?N?A?$LH?5?$LM?x?$MA?$KH?5?$KB?$KP@ DB 0a1H
	DB	0aeH, 0bcH, 0adH, 0b9H, 0f6H, ' ', 0baH, 0ceH, 0c1H, 0b7H, ' ', 0bcH
	DB	0f8H, 0c0H, 0a7H, ' ', 0a1H, 0afH, 00H	; `string'
CONST	ENDS
;	COMDAT ?btnId@?1??FMWindowType4@@YAXH@Z@4PAHA
_DATA	SEGMENT
?btnId@?1??FMWindowType4@@YAXH@Z@4PAHA DD 0fffffffeH	; `FMWindowType4'::`2'::btnId
	DD	0fffffffeH
	DD	0fffffffeH
	DD	0fffffffeH
	DD	0fffffffeH
	DD	0fffffffeH
_DATA	ENDS
;	COMDAT ??_C@_0BG@HKOCFEKA@?$CF?97s?$CF?916s?$CF?916s?$CF8d?$CF12d@
CONST	SEGMENT
??_C@_0BG@HKOCFEKA@?$CF?97s?$CF?916s?$CF?916s?$CF8d?$CF12d@ DB '%-7s%-16s'
	DB	'%-16s%8d%12d', 00H				; `string'
CONST	ENDS
;	COMDAT ??_C@_0BN@EPBIJHBO@?5?$CF?97s?$CF?918s?$CF?916s?$CF13d?$CF12d?$CF14d?$CF@
CONST	SEGMENT
??_C@_0BN@EPBIJHBO@?5?$CF?97s?$CF?918s?$CF?916s?$CF13d?$CF12d?$CF14d?$CF@ DB ' '
	DB	'%-7s%-18s%-16s%13d%12d%14d%', 00H		; `string'
CONST	ENDS
;	COMDAT ??_C@_01HIHLOKLC@1@
CONST	SEGMENT
??_C@_01HIHLOKLC@1@ DB '1', 00H				; `string'
CONST	ENDS
;	COMDAT ??_C@_0BF@MDCNOKLO@?$DP?$DP?5?$CFs?5?A?$KG?$LI?m?$LN?C?E?$LD?$LB?n?$LP?d?$KD?$LP@
CONST	SEGMENT
??_C@_0BF@MDCNOKLO@?$DP?$DP?5?$CFs?5?A?$KG?$LI?m?$LN?C?E?$LD?$LB?n?$LP?d?$KD?$LP@ DB '?'
	DB	'? %s ', 0c1H, 0a6H, 0b8H, 0edH, 0bdH, 0c3H, 0c5H, 0b3H, 0b1H, 0eeH
	DB	0bfH, 0e4H, 0a3H, 0bfH, 00H			; `string'
CONST	ENDS
;	COMDAT ?btnId@?1??fmYesNoWindow@@YAHHHH@Z@4PAHA
_DATA	SEGMENT
?btnId@?1??fmYesNoWindow@@YAHHHH@Z@4PAHA DD 0fffffffeH	; `fmYesNoWindow'::`2'::btnId
	DD	0fffffffeH
_DATA	ENDS
;	COMDAT ??_C@_0L@GOKAMOPJ@?$LI?C?$MA?$LK?A?w?C?$KF?$KD?$LK@
CONST	SEGMENT
??_C@_0L@GOKAMOPJ@?$LI?C?$MA?$LK?A?w?C?$KF?$KD?$LK@ DB 0b8H, 0c3H, 0c0H, 0baH
	DB	0c1H, 0f7H, 0c3H, 0a5H, 0a3H, 0baH, 00H	; `string'
CONST	ENDS
;	COMDAT ??_C@_04KMMDIKEB@?5?$CFs?5@
CONST	SEGMENT
??_C@_04KMMDIKEB@?5?$CFs?5@ DB ' %s ', 00H		; `string'
CONST	ENDS
;	COMDAT ??_C@_0L@DJCDNCBF@?$LM?$LB?E?C?G?O?$LM?$LM?$LP?d@
CONST	SEGMENT
??_C@_0L@DJCDNCBF@?$LM?$LB?E?C?G?O?$LM?$LM?$LP?d@ DB 0bcH, 0b1H, 0c5H, 0c3H
	DB	0c7H, 0cfH, 0bcH, 0bcH, 0bfH, 0e4H, 00H	; `string'
CONST	ENDS
;	COMDAT ??_C@_08JAKOPBJC@?C?k?5?5?5?5?$LM?R@
CONST	SEGMENT
??_C@_08JAKOPBJC@?C?k?5?5?5?5?$LM?R@ DB 0c3H, 0ebH, '    ', 0bcH, 0d2H, 00H ; `string'
CONST	ENDS
;	COMDAT ??_C@_0L@CMOKCILO@?$MA?O?$LJ?$NN?$LK?N?A?$LH?$LP?x@
CONST	SEGMENT
??_C@_0L@CMOKCILO@?$MA?O?$LJ?$NN?$LK?N?A?$LH?$LP?x@ DB 0c0H, 0cfH, 0b9H, 0ddH
	DB	0baH, 0ceH, 0c1H, 0b7H, 0bfH, 0f8H, 00H	; `string'
CONST	ENDS
;	COMDAT ?btnId@?1??fmselectdetuyWindow@@YAHHHH@Z@4PAHA
_DATA	SEGMENT
?btnId@?1??fmselectdetuyWindow@@YAHHHH@Z@4PAHA DD 0fffffffeH ; `fmselectdetuyWindow'::`2'::btnId
	DD	0fffffffeH
	DD	0fffffffeH
	DD	0fffffffeH
_DATA	ENDS
;	COMDAT ??_C@_0CI@NMHOIHGJ@?$KB?$KO?$MA?e?5?$LM?R?$KB?$KP?$KB?$KO?$LF?$LP?$KB?$KP?$KB?$KO?$LD?$LC?$KB?$KP?5?5?5?5?5?5?5?5?$KB?$KO@
CONST	SEGMENT
??_C@_0CI@NMHOIHGJ@?$KB?$KO?$MA?e?5?$LM?R?$KB?$KP?$KB?$KO?$LF?$LP?$KB?$KP?$KB?$KO?$LD?$LC?$KB?$KP?5?5?5?5?5?5?5?5?$KB?$KO@ DB 0a1H
	DB	0aeH, 0c0H, 0e5H, ' ', 0bcH, 0d2H, 0a1H, 0afH, 0a1H, 0aeH, 0b5H
	DB	0bfH, 0a1H, 0afH, 0a1H, 0aeH, 0b3H, 0b2H, 0a1H, 0afH, '       '
	DB	' ', 0a1H, 0aeH, 0bbH, 0f3H, '  ', 0c5H, 0c2H, 0a1H, 0afH, 00H ; `string'
CONST	ENDS
;	COMDAT ??_C@_0CB@EPJNIDND@?5?5?5?5?5?5?5?5?$KB?$KO?$LA?$KB?A?$LH?$LB?b?$LJ?$NN?G?A?$LH?N?$LB?W?$LH?$KF?$LI?q?$LH?O?$KB@
CONST	SEGMENT
??_C@_0CB@EPJNIDND@?5?5?5?5?5?5?5?5?$KB?$KO?$LA?$KB?A?$LH?$LB?b?$LJ?$NN?G?A?$LH?N?$LB?W?$LH?$KF?$LI?q?$LH?O?$KB@ DB ' '
	DB	'       ', 0a1H, 0aeH, 0b0H, 0a1H, 0c1H, 0b7H, 0b1H, 0e2H, 0b9H
	DB	0ddH, 0c7H, 0c1H, 0b7H, 0ceH, 0b1H, 0d7H, 0b7H, 0a5H, 0b8H, 0f1H
	DB	0b7H, 0cfH, 0a1H, 0afH, 00H			; `string'
CONST	ENDS
;	COMDAT ??_C@_07MEJNJNBN@P?$HM?$CFd?$HM?$CFs@
CONST	SEGMENT
??_C@_07MEJNJNBN@P?$HM?$CFd?$HM?$CFs@ DB 'P|%d|%s', 00H	; `string'
CONST	ENDS
;	COMDAT ?btnId@?1??FMWindowType2@@YAXXZ@4PAHA
_DATA	SEGMENT
?btnId@?1??FMWindowType2@@YAXXZ@4PAHA DD 0fffffffeH	; `FMWindowType2'::`2'::btnId
	DD	0fffffffeH
	DD	0fffffffeH
	DD	0fffffffeH
	DD	0fffffffeH
	DD	0fffffffeH
	DD	0fffffffeH
	DD	0fffffffeH
	DD	0fffffffeH
	DD	0fffffffeH
	DD	0fffffffeH
	DD	0fffffffeH
_DATA	ENDS
;	COMDAT ??_C@_08CKOJLPBB@?$CFs?$HM?$CFs?$HM?$CFs@
CONST	SEGMENT
??_C@_08CKOJLPBB@?$CFs?$HM?$CFs?$HM?$CFs@ DB '%s|%s|%s', 00H ; `string'
CONST	ENDS
;	COMDAT ??_C@_0P@HOFHBIDI@?$CF9s?$CF5s?5?$CF5s?$CF18s@
CONST	SEGMENT
??_C@_0P@HOFHBIDI@?$CF9s?$CF5s?5?$CF5s?$CF18s@ DB '%9s%5s %5s%18s', 00H ; `string'
CONST	ENDS
;	COMDAT ??_C@_06OOGDCHLD@?$LJ?L?$LL?g?$LP?k@
CONST	SEGMENT
??_C@_06OOGDCHLD@?$LJ?L?$LL?g?$LP?k@ DB 0b9H, 0ccH, 0bbH, 0e7H, 0bfH, 0ebH
	DB	00H						; `string'
CONST	ENDS
;	COMDAT ??_C@_06LKHMHEK@?$LO?F?$LN?C?$LO?F@
CONST	SEGMENT
??_C@_06LKHMHEK@?$LO?F?$LN?C?$LO?F@ DB 0beH, 0c6H, 0bdH, 0c3H, 0beH, 0c6H
	DB	00H						; `string'
CONST	ENDS
;	COMDAT ??_C@_08BBBHHHEB@?$LO?$NP?5?$MA?L?5?$LP?$MA@
CONST	SEGMENT
??_C@_08BBBHHHEB@?$LO?$NP?5?$MA?L?5?$LP?$MA@ DB 0beH, 0dfH, ' ', 0c0H, 0ccH
	DB	' ', 0bfH, 0c0H, 00H				; `string'
CONST	ENDS
;	COMDAT ??_C@_08NFLGLILK@?$LE?O?5?5?5?5?$LN?$LK@
CONST	SEGMENT
??_C@_08NFLGLILK@?$LE?O?5?5?5?5?$LN?$LK@ DB 0b4H, 0cfH, '    ', 0bdH, 0baH
	DB	00H						; `string'
CONST	ENDS
;	COMDAT ??_C@_08PLFMPCKD@?E?$LI?5?$LI?$KD?5?E?$LI@
CONST	SEGMENT
??_C@_08PLFMPCKD@?E?$LI?5?$LI?$KD?5?E?$LI@ DB 0c5H, 0b8H, ' ', 0b8H, 0a3H
	DB	' ', 0c5H, 0b8H, 00H				; `string'
CONST	ENDS
;	COMDAT ??_C@_08GDPNKJEK@?$LP?$KB?5?5?5?5?$LF?$KH@
CONST	SEGMENT
??_C@_08GDPNKJEK@?$LP?$KB?5?5?5?5?$LF?$KH@ DB 0bfH, 0a1H, '    ', 0b5H, 0a7H
	DB	00H						; `string'
CONST	ENDS
;	COMDAT ??_C@_08IPKKANCP@?D?$KL?$LH?g?E?$LI?$LD?$KK@
CONST	SEGMENT
??_C@_08IPKKANCP@?D?$KL?$LH?g?E?$LI?$LD?$KK@ DB 0c4H, 0abH, 0b7H, 0e7H, 0c5H
	DB	0b8H, 0b3H, 0aaH, 00H			; `string'
CONST	ENDS
;	COMDAT ??_C@_08HCKLDHDO@?$MA?p?5?5?5?5?$MA?p@
CONST	SEGMENT
??_C@_08HCKLDHDO@?$MA?p?5?5?5?5?$MA?p@ DB 0c0H, 0f0H, '    ', 0c0H, 0f0H, 00H ; `string'
CONST	ENDS
;	COMDAT ??_C@_08FHGEHAHK@?$LI?$LG?$LI?$KO?$LD?J?$LN?$LK@
CONST	SEGMENT
??_C@_08FHGEHAHK@?$LI?$LG?$LI?$KO?$LD?J?$LN?$LK@ DB 0b8H, 0b6H, 0b8H, 0aeH
	DB	0b3H, 0caH, 0bdH, 0baH, 00H			; `string'
CONST	ENDS
;	COMDAT ??_C@_0L@PNJCCPBJ@?$LM?$KE?$LB?b?$LI?$KD?$LI?$LG?$MA?$LL@
CONST	SEGMENT
??_C@_0L@PNJCCPBJ@?$LM?$KE?$LB?b?$LI?$KD?$LI?$LG?$MA?$LL@ DB 0bcH, 0a4H, 0b1H
	DB	0e2H, 0b8H, 0a3H, 0b8H, 0b6H, 0c0H, 0bbH, 00H ; `string'
CONST	ENDS
;	COMDAT ??_C@_0BE@BNBIMIKL@?$KB?$KO?$LA?$KB?5?A?$LH?5?$LA?T?5?$LN?C?5?F?G?5?$KB?$KP@
CONST	SEGMENT
??_C@_0BE@BNBIMIKL@?$KB?$KO?$LA?$KB?5?A?$LH?5?$LA?T?5?$LN?C?5?F?G?5?$KB?$KP@ DB 0a1H
	DB	0aeH, 0b0H, 0a1H, ' ', 0c1H, 0b7H, ' ', 0b0H, 0d4H, ' ', 0bdH, 0c3H
	DB	' ', 0c6H, 0c7H, ' ', 0a1H, 0afH, 00H	; `string'
CONST	ENDS
;	COMDAT ??_C@_05GOJDKKEO@?$CFd?$HM?$CFs@
CONST	SEGMENT
??_C@_05GOJDKKEO@?$CFd?$HM?$CFs@ DB '%d|%s', 00H	; `string'
CONST	ENDS
;	COMDAT ?fontId@?1??FMWindowType1@@YAXXZ@4PAHA
_DATA	SEGMENT
?fontId@?1??FMWindowType1@@YAXXZ@4PAHA DD 0fffffffeH	; `FMWindowType1'::`2'::fontId
	DD	0fffffffeH
	DD	0fffffffeH
	DD	0fffffffeH
	DD	0fffffffeH
	DD	0fffffffeH
_DATA	ENDS
;	COMDAT ??_C@_01DNKMNLPK@?$HM@
CONST	SEGMENT
??_C@_01DNKMNLPK@?$HM@ DB '|', 00H			; `string'
CONST	ENDS
;	COMDAT ??_C@_0EI@MNEGDEON@?5?$KD?$NL?A?$KC?$LM?S?$KD?$NN?$KD?$NL?$LE?P?$LD?W?$MA?S?$KD?$NN?5?5?5?5?5?$KD?$NL?$LH?$LJ?$LK?$KH?$KD@
CONST	SEGMENT
??_C@_0EI@MNEGDEON@?5?$KD?$NL?A?$KC?$LM?S?$KD?$NN?$KD?$NL?$LE?P?$LD?W?$MA?S?$KD?$NN?5?5?5?5?5?$KD?$NL?$LH?$LJ?$LK?$KH?$KD@ DB ' '
	DB	0a3H, 0dbH, 0c1H, 0a2H, 0bcH, 0d3H, 0a3H, 0ddH, 0a3H, 0dbH, 0b4H
	DB	0d0H, 0b3H, 0d7H, 0c0H, 0d3H, 0a3H, 0ddH, '     ', 0a3H, 0dbH, 0b7H
	DB	0b9H, 0baH, 0a7H, 0a3H, 0ddH, '  ', 0a3H, 0dbH, 0b8H, 0edH, 0bcH
	DB	0baH, 0a3H, 0ddH, ' ', 0a3H, 0dbH, 0b1H, 0e2H, 0bfH, 0a9H, 0b5H
	DB	0b5H, 0a3H, 0ddH, ' ', 0a3H, 0dbH, 0c1H, 0f7H, 0c0H, 0a7H, 0a3H
	DB	0ddH, ' ', 0a3H, 0dbH, 0b8H, 0c7H, 0c5H, 0e4H, 0a3H, 0ddH, 00H ; `string'
CONST	ENDS
;	COMDAT ??_C@_0CF@OGEDCEOL@?5?5?5?5?5?5?5?5?5?5?5?5?5?5?5?5?5?5?5?5?5?5?5?5?5?$LK?N?A?$LH?$LP?x@
CONST	SEGMENT
??_C@_0CF@OGEDCEOL@?5?5?5?5?5?5?5?5?5?5?5?5?5?5?5?5?5?5?5?5?5?5?5?5?5?$LK?N?A?$LH?$LP?x@ DB ' '
	DB	'                        ', 0baH, 0ceH, 0c1H, 0b7H, 0bfH, 0f8H
	DB	' ', 0b0H, 0fcH, 0b8H, 0aeH, 00H		; `string'
CONST	ENDS
;	COMDAT ??_C@_04OKLAFEGF@T?$HM?$CFd@
CONST	SEGMENT
??_C@_04OKLAFEGF@T?$HM?$CFd@ DB 'T|%d', 00H		; `string'
CONST	ENDS
;	COMDAT ??_C@_0L@IBINOEKJ@M?$HM?$CFs?$HM?$CFd?$HM?$CFd@
CONST	SEGMENT
??_C@_0L@IBINOEKJ@M?$HM?$CFs?$HM?$CFd?$HM?$CFd@ DB 'M|%s|%d|%d', 00H ; `string'
CONST	ENDS
;	COMDAT ??_C@_03IKGEINEE@?$CFs?5@
CONST	SEGMENT
??_C@_03IKGEINEE@?$CFs?5@ DB '%s ', 00H			; `string'
CONST	ENDS
;	COMDAT ??_C@_02HHFHKOHM@?$DP?$DP@
CONST	SEGMENT
??_C@_02HHFHKOHM@?$DP?$DP@ DB '??', 00H			; `string'
CONST	ENDS
;	COMDAT ??_C@_04NKANOEFH@?$DP?5?5?$DP@
CONST	SEGMENT
??_C@_04NKANOEFH@?$DP?5?5?$DP@ DB '?  ?', 00H		; `string'
CONST	ENDS
;	COMDAT ?btnId@?1??FMWindowType@@YAXXZ@4PAHA
_DATA	SEGMENT
?btnId@?1??FMWindowType@@YAXXZ@4PAHA DD 0fffffffeH	; `FMWindowType'::`2'::btnId
	DD	0fffffffeH
	DD	0fffffffeH
	DD	0fffffffeH
	DD	0fffffffeH
	DD	0fffffffeH
_DATA	ENDS
;	COMDAT ??_C@_0CC@OOGHFIO@?5?$CF?920s?5?5?5?5?5?5?5?5?5?5?5?5?5?5?5?5?5?5?5?5?5?5?5?5?5@
CONST	SEGMENT
??_C@_0CC@OOGHFIO@?5?$CF?920s?5?5?5?5?5?5?5?5?5?5?5?5?5?5?5?5?5?5?5?5?5?5?5?5?5@ DB ' '
	DB	'%-20s                         %s', 00H	; `string'
CONST	ENDS
;	COMDAT ??_C@_09IPDOHIGO@?$LA?$KB?$MA?T?5?$LA?E?$LK?N@
CONST	SEGMENT
??_C@_09IPDOHIGO@?$LA?$KB?$MA?T?5?$LA?E?$LK?N@ DB 0b0H, 0a1H, 0c0H, 0d4H, ' '
	DB	0b0H, 0c5H, 0baH, 0ceH, 00H			; `string'
CONST	ENDS
;	COMDAT ??_C@_09LDBPGJOA@?$LA?$KB?$MA?T?5?$LN?B?$MA?N@
CONST	SEGMENT
??_C@_09LDBPGJOA@?$LA?$KB?$MA?T?5?$LN?B?$MA?N@ DB 0b0H, 0a1H, 0c0H, 0d4H, ' '
	DB	0bdH, 0c2H, 0c0H, 0ceH, 00H			; `string'
CONST	ENDS
;	COMDAT ??_C@_0BM@HGDMDEHB@?$CF?99s?$CF?918s?$CF3s?$CF12s?$CF12s?$CF10s?$CF7s@
CONST	SEGMENT
??_C@_0BM@HGDMDEHB@?$CF?99s?$CF?918s?$CF3s?$CF12s?$CF12s?$CF10s?$CF7s@ DB '%'
	DB	'-9s%-18s%3s%12s%12s%10s%7s', 00H		; `string'
CONST	ENDS
;	COMDAT ??_C@_08EKAAGOCB@?E?$LL?5?5?5?5?E?p@
CONST	SEGMENT
??_C@_08EKAAGOCB@?E?$LL?5?5?5?5?E?p@ DB 0c5H, 0bbH, '    ', 0c5H, 0f0H, 00H ; `string'
CONST	ENDS
;	COMDAT ??_C@_08EPNLIAJH@?$LA?$KB?$MA?T?$LN?E?C?$LL@
CONST	SEGMENT
??_C@_08EPNLIAJH@?$LA?$KB?$MA?T?$LN?E?C?$LL@ DB 0b0H, 0a1H, 0c0H, 0d4H, 0bdH
	DB	0c5H, 0c3H, 0bbH, 00H			; `string'
CONST	ENDS
;	COMDAT ??_C@_08FGILGNNJ@?$MA?e?5?5?5?5?$LH?N@
CONST	SEGMENT
??_C@_08FGILGNNJ@?$MA?e?5?5?5?5?$LH?N@ DB 0c0H, 0e5H, '    ', 0b7H, 0ceH, 00H ; `string'
CONST	ENDS
;	COMDAT ??_C@_08HBDNAOJN@?A?$LH?5?5?5?5?$MA?e@
CONST	SEGMENT
??_C@_08HBDNAOJN@?A?$LH?5?5?5?5?$MA?e@ DB 0c1H, 0b7H, '    ', 0c0H, 0e5H, 00H ; `string'
CONST	ENDS
;	COMDAT ??_C@_08KOCLKJHI@?$LK?N?5?A?$LH?5?$LP?x@
CONST	SEGMENT
??_C@_08KOCLKJHI@?$LK?N?5?A?$LH?5?$LP?x@ DB 0baH, 0ceH, ' ', 0c1H, 0b7H, ' '
	DB	0bfH, 0f8H, 00H				; `string'
CONST	ENDS
;	COMDAT ??_C@_06OEBCHFHA@?$LJ?L?A?$KC?$LM?S@
CONST	SEGMENT
??_C@_06OEBCHFHA@?$LJ?L?A?$KC?$LM?S@ DB 0b9H, 0ccH, 0c1H, 0a2H, 0bcH, 0d3H
	DB	00H						; `string'
CONST	ENDS
;	COMDAT ??_C@_04GMJLIJKP@?A?$KC?$LM?S@
CONST	SEGMENT
??_C@_04GMJLIJKP@?A?$KC?$LM?S@ DB 0c1H, 0a2H, 0bcH, 0d3H, 00H ; `string'
CONST	ENDS
;	COMDAT ??_C@_07JANJFJHP@?$DP?v?G?$PN?E?m?q@
CONST	SEGMENT
??_C@_07JANJFJHP@?$DP?v?G?$PN?E?m?q@ DB '?', 0f6H, 0c7H, 0fdH, 0c5H, 0edH
	DB	0f1H, 00H					; `string'
CONST	ENDS
;	COMDAT ??_C@_05PFEBJGGD@?$CFd?5?$LI?m@
CONST	SEGMENT
??_C@_05PFEBJGGD@?$CFd?5?$LI?m@ DB '%d ', 0b8H, 0edH, 00H ; `string'
CONST	ENDS
;	COMDAT ??_C@_06DCIEHEEO@X?$HMB?$HM?$CFd@
CONST	SEGMENT
??_C@_06DCIEHEEO@X?$HMB?$HM?$CFd@ DB 'X|B|%d', 00H	; `string'
CONST	ENDS
;	COMDAT ??_C@_06CIKELAKM@X?$HMP?$HM?$CFd@
CONST	SEGMENT
??_C@_06CIKELAKM@X?$HMP?$HM?$CFd@ DB 'X|P|%d', 00H	; `string'
CONST	ENDS
;	COMDAT ??_C@_06FHOHGHFK@X?$HMR?$HM?$CFs@
CONST	SEGMENT
??_C@_06FHOHGHFK@X?$HMR?$HM?$CFs@ DB 'X|R|%s', 00H	; `string'
CONST	ENDS
;	COMDAT ??_C@_0O@FBIMKKIN@J?$HM?$CFd?$HM?$CFd?$HM?$CFs?$HM?$CFd@
CONST	SEGMENT
??_C@_0O@FBIMKKIN@J?$HM?$CFd?$HM?$CFd?$HM?$CFs?$HM?$CFd@ DB 'J|%d|%d|%s|%'
	DB	'd', 00H					; `string'
CONST	ENDS
;	COMDAT ??_C@_0CD@GBGODGL@P?$HM?$MA?L?$LJ?L?5?$LE?Y?$LI?$KF?$LK?N?A?$LH?$LP?$KB?5?$LA?$KB?$MA?T?$LF?G?$LO?n?$MA?V?$LO?n?$LP@
CONST	SEGMENT
??_C@_0CD@GBGODGL@P?$HM?$MA?L?$LJ?L?5?$LE?Y?$LI?$KF?$LK?N?A?$LH?$LP?$KB?5?$LA?$KB?$MA?T?$LF?G?$LO?n?$MA?V?$LO?n?$LP@ DB 'P'
	DB	'|', 0c0H, 0ccH, 0b9H, 0ccH, ' ', 0b4H, 0d9H, 0b8H, 0a5H, 0baH
	DB	0ceH, 0c1H, 0b7H, 0bfH, 0a1H, ' ', 0b0H, 0a1H, 0c0H, 0d4H, 0b5H
	DB	0c7H, 0beH, 0eeH, 0c0H, 0d6H, 0beH, 0eeH, 0bfH, 0e4H, 0a3H, 0a1H
	DB	00H						; `string'
CONST	ENDS
;	COMDAT ?ýÅíñ???@?1??familyDetailWN@@YAHXZ@4HA
_DATA	SEGMENT
?ýÅíñ???@?1??familyDetailWN@@YAHXZ@4HA DD 01H		; `familyDetailWN'::`2'::ýÅíñ???
_DATA	ENDS
;	COMDAT ??_C@_0BK@IAGNODKB@?$CF4d?3?5?$CF?916s?5?$CF?916s?5?$CF6d?5?$CF10d@
CONST	SEGMENT
??_C@_0BK@IAGNODKB@?$CF4d?3?5?$CF?916s?5?$CF?916s?5?$CF6d?5?$CF10d@ DB '%'
	DB	'4d: %-16s %-16s %6d %10d', 00H		; `string'
CONST	ENDS
;	COMDAT ??_C@_0BK@DBLHNEOK@?$CF?94s?5?$CF?916s?5?$CF?916s?5?$CF6s?5?$CF10s@
CONST	SEGMENT
??_C@_0BK@DBLHNEOK@?$CF?94s?5?$CF?916s?5?$CF?916s?5?$CF6s?5?$CF10s@ DB '%'
	DB	'-4s %-16s %-16s %6s %10s', 00H		; `string'
CONST	ENDS
;	COMDAT ??_C@_0O@MGCOJGNL@?$FL?$LK?N?5?A?$LH?5?$MA?L?5?$LI?$KH?$FN@
CONST	SEGMENT
??_C@_0O@MGCOJGNL@?$FL?$LK?N?5?A?$LH?5?$MA?L?5?$LI?$KH?$FN@ DB '[', 0baH, 0ceH
	DB	' ', 0c1H, 0b7H, ' ', 0c0H, 0ccH, ' ', 0b8H, 0a7H, ']', 00H ; `string'
CONST	ENDS
;	COMDAT ??_C@_08KKDDPHBL@?$FL?A?$LH?5?5?$MA?e?$FN@
CONST	SEGMENT
??_C@_08KKDDPHBL@?$FL?A?$LH?5?5?$MA?e?$FN@ DB '[', 0c1H, 0b7H, '  ', 0c0H
	DB	0e5H, ']', 00H				; `string'
CONST	ENDS
;	COMDAT ??_C@_06PFFPIKHP@?$FL?$MA?N?$LP?x?$FN@
CONST	SEGMENT
??_C@_06PFFPIKHP@?$FL?$MA?N?$LP?x?$FN@ DB '[', 0c0H, 0ceH, 0bfH, 0f8H, ']'
	DB	00H						; `string'
CONST	ENDS
;	COMDAT ??_C@_0L@FHLFAEOJ@?$FL?$LA?$KB?A?$LH?$LI?m?$LM?$LK?$FN@
CONST	SEGMENT
??_C@_0L@FHLFAEOJ@?$FL?$LA?$KB?A?$LH?$LI?m?$LM?$LK?$FN@ DB '[', 0b0H, 0a1H
	DB	0c1H, 0b7H, 0b8H, 0edH, 0bcH, 0baH, ']', 00H	; `string'
CONST	ENDS
;	COMDAT ??_C@_0M@GFBBINPB@?$CF3d?5?1?5?$CF3d?5?$DP@
CONST	SEGMENT
??_C@_0M@GFBBINPB@?$CF3d?5?1?5?$CF3d?5?$DP@ DB '%3d / %3d ?', 00H ; `string'
CONST	ENDS
;	COMDAT ??_C@_08MIMOGKCP@?$LA?$KB?A?$LH?$LI?q?$LH?O@
CONST	SEGMENT
??_C@_08MIMOGKCP@?$LA?$KB?A?$LH?$LI?q?$LH?O@ DB 0b0H, 0a1H, 0c1H, 0b7H, 0b8H
	DB	0f1H, 0b7H, 0cfH, 00H			; `string'
CONST	ENDS
;	COMDAT ??_C@_0N@LDDLKII@S?$HMD?$HM?$CFs?$HM?$CFd?$HM?$CFd@
CONST	SEGMENT
??_C@_0N@LDDLKII@S?$HMD?$HM?$CFs?$HM?$CFd?$HM?$CFd@ DB 'S|D|%s|%d|%d', 00H ; `string'
CONST	ENDS
;	COMDAT ??_C@_07EFKFLCFA@S?$HMF?$HM1?$HM0@
CONST	SEGMENT
??_C@_07EFKFLCFA@S?$HMF?$HM1?$HM0@ DB 'S|F|1|0', 00H	; `string'
CONST	ENDS
;	COMDAT ??_C@_08MNCFPICD@S?$HMF?$HM?$CFd?$HM0@
CONST	SEGMENT
??_C@_08MNCFPICD@S?$HMF?$HM?$CFd?$HM0@ DB 'S|F|%d|0', 00H ; `string'
CONST	ENDS
;	COMDAT ??_C@_04PMAIGBME@?$CF38s@
CONST	SEGMENT
??_C@_04PMAIGBME@?$CF38s@ DB '%38s', 00H		; `string'
CONST	ENDS
;	COMDAT ??_C@_06HHOANBGP@?5?5?$CFs?5?5@
CONST	SEGMENT
??_C@_06HHOANBGP@?5?5?$CFs?5?5@ DB '  %s  ', 00H	; `string'
CONST	ENDS
;	COMDAT ??_C@_03EEBNCBOD@?5?$CFs@
CONST	SEGMENT
??_C@_03EEBNCBOD@?5?$CFs@ DB ' %s', 00H			; `string'
CONST	ENDS
;	COMDAT ??_C@_04EHFFKIEF@?$LO?x?$LE?Y@
CONST	SEGMENT
??_C@_04EHFFKIEF@?$LO?x?$LE?Y@ DB 0beH, 0f8H, 0b4H, 0d9H, 00H ; `string'
CONST	ENDS
;	COMDAT ??_C@_0BD@DPCKNFFI@?5?5?5?5?5?5?5?5?5?5?5?5?5?5?5?5?5?5@
CONST	SEGMENT
??_C@_0BD@DPCKNFFI@?5?5?5?5?5?5?5?5?5?5?5?5?5?5?5?5?5?5@ DB '            '
	DB	'      ', 00H				; `string'
CONST	ENDS
;	COMDAT ??_C@_08IEFDEMID@?$LJ?h?A?v?$LM?$LD?A?$KE@
CONST	SEGMENT
??_C@_08IEFDEMID@?$LJ?h?A?v?$LM?$LD?A?$KE@ DB 0b9H, 0e8H, 0c1H, 0f6H, 0bcH
	DB	0b3H, 0c1H, 0a4H, 00H			; `string'
CONST	ENDS
;	COMDAT ??_C@_0BB@FFLONHHA@A?$HM?$CFs?$HM?$CFd?$HM?$CFd?$HM?$CFs?$HM?$CFd@
CONST	SEGMENT
??_C@_0BB@FFLONHHA@A?$HM?$CFs?$HM?$CFd?$HM?$CFd?$HM?$CFs?$HM?$CFd@ DB 'A|'
	DB	'%s|%d|%d|%s|%d', 00H			; `string'
CONST	ENDS
;	COMDAT ??_C@_0BL@ODAGPAJL@?$LA?$KB?A?$LH?5?$LK?$LI?H?$KD?$MA?Z?$LI?$KG?5?$LM?$LB?E?C?G?O?$LM?$LM?$LP?d?$KD?$KB@
CONST	SEGMENT
??_C@_0BL@ODAGPAJL@?$LA?$KB?A?$LH?5?$LK?$LI?H?$KD?$MA?Z?$LI?$KG?5?$LM?$LB?E?C?G?O?$LM?$LM?$LP?d?$KD?$KB@ DB 0b0H
	DB	0a1H, 0c1H, 0b7H, ' ', 0baH, 0b8H, 0c8H, 0a3H, 0c0H, 0daH, 0b8H
	DB	0a6H, ' ', 0bcH, 0b1H, 0c5H, 0c3H, 0c7H, 0cfH, 0bcH, 0bcH, 0bfH
	DB	0e4H, 0a3H, 0a1H, 00H			; `string'
CONST	ENDS
;	COMDAT ??_C@_0BJ@IAPAGIOC@?$LM?v?H?$KD?5?F?d?F?$KO?$LI?$KG?5?$LM?$LB?E?C?G?O?$LM?$LM?$LP?d?$KD?$KB@
CONST	SEGMENT
??_C@_0BJ@IAPAGIOC@?$LM?v?H?$KD?5?F?d?F?$KO?$LI?$KG?5?$LM?$LB?E?C?G?O?$LM?$LM?$LP?d?$KD?$KB@ DB 0bcH
	DB	0f6H, 0c8H, 0a3H, ' ', 0c6H, 0e4H, 0c6H, 0aeH, 0b8H, 0a6H, ' ', 0bcH
	DB	0b1H, 0c5H, 0c3H, 0c7H, 0cfH, 0bcH, 0bcH, 0bfH, 0e4H, 0a3H, 0a1H
	DB	00H						; `string'
CONST	ENDS
;	COMDAT ??_C@_0BJ@BIHHOJEL@?$LA?$KB?A?$LH?5?A?$KG?$LI?q?$MA?$LL?5?$MA?T?$LH?B?G?O?$LM?$LM?$LP?d?$KD?$KB@
CONST	SEGMENT
??_C@_0BJ@BIHHOJEL@?$LA?$KB?A?$LH?5?A?$KG?$LI?q?$MA?$LL?5?$MA?T?$LH?B?G?O?$LM?$LM?$LP?d?$KD?$KB@ DB 0b0H
	DB	0a1H, 0c1H, 0b7H, ' ', 0c1H, 0a6H, 0b8H, 0f1H, 0c0H, 0bbH, ' ', 0c0H
	DB	0d4H, 0b7H, 0c2H, 0c7H, 0cfH, 0bcH, 0bcH, 0bfH, 0e4H, 0a3H, 0a1H
	DB	00H						; `string'
CONST	ENDS
;	COMDAT ??_C@_0BI@IDKIBNJL@?$LK?N?A?$LH?$MA?L?$LI?$KH?$MA?$LL?5?$MA?T?$LH?B?G?O?$LM?$LM?$LP?d?$KD?$KB@
CONST	SEGMENT
??_C@_0BI@IDKIBNJL@?$LK?N?A?$LH?$MA?L?$LI?$KH?$MA?$LL?5?$MA?T?$LH?B?G?O?$LM?$LM?$LP?d?$KD?$KB@ DB 0baH
	DB	0ceH, 0c1H, 0b7H, 0c0H, 0ccH, 0b8H, 0a7H, 0c0H, 0bbH, ' ', 0c0H
	DB	0d4H, 0b7H, 0c2H, 0c7H, 0cfH, 0bcH, 0bcH, 0bfH, 0e4H, 0a3H, 0a1H
	DB	00H						; `string'
CONST	ENDS
;	COMDAT ??_C@_0BE@NKOCMFMN@?$LA?$KB?$LJ?$KO?$MA?$LL?5?$LM?$LB?E?C?G?O?$LM?$LM?$LP?d?$KD?$KB@
CONST	SEGMENT
??_C@_0BE@NKOCMFMN@?$LA?$KB?$LJ?$KO?$MA?$LL?5?$LM?$LB?E?C?G?O?$LM?$LM?$LP?d?$KD?$KB@ DB 0b0H
	DB	0a1H, 0b9H, 0aeH, 0c0H, 0bbH, ' ', 0bcH, 0b1H, 0c5H, 0c3H, 0c7H
	DB	0cfH, 0bcH, 0bcH, 0bfH, 0e4H, 0a3H, 0a1H, 00H ; `string'
CONST	ENDS
;	COMDAT ??_C@_0BE@BNDDJDJA@?$MA?L?$LB?b?$LM?z?$MA?$LL?5?$LJ?h?$LP?o?$LB?n?$LP?d?$KD?$LP@
CONST	SEGMENT
??_C@_0BE@BNDDJDJA@?$MA?L?$LB?b?$LM?z?$MA?$LL?5?$LJ?h?$LP?o?$LB?n?$LP?d?$KD?$LP@ DB 0c0H
	DB	0ccH, 0b1H, 0e2H, 0bcH, 0faH, 0c0H, 0bbH, ' ', 0b9H, 0e8H, 0bfH
	DB	0efH, 0b1H, 0eeH, 0bfH, 0e4H, 0a3H, 0bfH, 00H ; `string'
CONST	ENDS
;	COMDAT ??_C@_0P@HHEBCLLE@?$LO?g?$FL?$CFs?$FN?G?O?$LE?Y?$FL?$CFs?$FN@
CONST	SEGMENT
??_C@_0P@HHEBCLLE@?$LO?g?$FL?$CFs?$FN?G?O?$LE?Y?$FL?$CFs?$FN@ DB 0beH, 0e7H
	DB	'[%s]', 0c7H, 0cfH, 0b4H, 0d9H, '[%s]', 00H	; `string'
CONST	ENDS
;	COMDAT ??_C@_0BB@BOMDKKC@?$LB?W?$MA?$KH?D?$KB?$LP?$KB?G?R?$LB?n?$LP?d?$KD?$LP@
CONST	SEGMENT
??_C@_0BB@BOMDKKC@?$LB?W?$MA?$KH?D?$KB?$LP?$KB?G?R?$LB?n?$LP?d?$KD?$LP@ DB 0b1H
	DB	0d7H, 0c0H, 0a7H, 0c4H, 0a1H, 0bfH, 0a1H, 0c7H, 0d2H, 0b1H, 0eeH
	DB	0bfH, 0e4H, 0a3H, 0bfH, 00H			; `string'
CONST	ENDS
;	COMDAT ??_C@_02JPEIBJLC@?$LJ?N@
CONST	SEGMENT
??_C@_02JPEIBJLC@?$LJ?N@ DB 0b9H, 0ceH, 00H		; `string'
CONST	ENDS
;	COMDAT ??_C@_0BE@HCEHBKKL@?$LE?$KJ?$LB?$LI?G?Q?E?W?5?$LJ?h?$LP?o?$LB?n?$LP?d?$KD?$LP@
CONST	SEGMENT
??_C@_0BE@HCEHBKKL@?$LE?$KJ?$LB?$LI?G?Q?E?W?5?$LJ?h?$LP?o?$LB?n?$LP?d?$KD?$LP@ DB 0b4H
	DB	0a9H, 0b1H, 0b8H, 0c7H, 0d1H, 0c5H, 0d7H, ' ', 0b9H, 0e8H, 0bfH
	DB	0efH, 0b1H, 0eeH, 0bfH, 0e4H, 0a3H, 0bfH, 00H ; `string'
CONST	ENDS
;	COMDAT ??_C@_05HKNHMKDL@?$CF8d?$KD?F@
CONST	SEGMENT
??_C@_05HKNHMKDL@?$CF8d?$KD?F@ DB '%8d', 0a3H, 0c6H, 00H ; `string'
CONST	ENDS
;	COMDAT ??_C@_0L@JFOFCMBF@?$CF2d?1?$CF2d?5?B?J@
CONST	SEGMENT
??_C@_0L@JFOFCMBF@?$CF2d?1?$CF2d?5?B?J@ DB '%2d/%2d ', 0c2H, 0caH, 00H ; `string'
CONST	ENDS
;	COMDAT ??_C@_07BCAPMAGD@?$LB?b?5?$CFd?3?5@
CONST	SEGMENT
??_C@_07BCAPMAGD@?$LB?b?5?$CFd?3?5@ DB 0b1H, 0e2H, ' %d: ', 00H ; `string'
CONST	ENDS
;	COMDAT ??_C@_0BC@HIPKKMKB@?$LB?W?$MA?$KH?D?$KB?$LP?$KB?5?G?R?$LB?n?$LP?d?$KD?$LP@
CONST	SEGMENT
??_C@_0BC@HIPKKMKB@?$LB?W?$MA?$KH?D?$KB?$LP?$KB?5?G?R?$LB?n?$LP?d?$KD?$LP@ DB 0b1H
	DB	0d7H, 0c0H, 0a7H, 0c4H, 0a1H, 0bfH, 0a1H, ' ', 0c7H, 0d2H, 0b1H
	DB	0eeH, 0bfH, 0e4H, 0a3H, 0bfH, 00H		; `string'
CONST	ENDS
;	COMDAT ??_C@_0BB@JCNGIDNP@?$LN?C?$MA?$NL?G?O?$LA?Z?$LN?$MA?$LE?O?$LB?n?$KD?$LP@
CONST	SEGMENT
??_C@_0BB@JCNGIDNP@?$LN?C?$MA?$NL?G?O?$LA?Z?$LN?$MA?$LE?O?$LB?n?$KD?$LP@ DB 0bdH
	DB	0c3H, 0c0H, 0dbH, 0c7H, 0cfH, 0b0H, 0daH, 0bdH, 0c0H, 0b4H, 0cfH
	DB	0b1H, 0eeH, 0a3H, 0bfH, 00H			; `string'
CONST	ENDS
;	COMDAT ??_C@_0L@LCAELECA@?$DP?$FL?$CFs?$FN?$DP?$FL?$CFs?$FN@
CONST	SEGMENT
??_C@_0L@LCAELECA@?$DP?$FL?$CFs?$FN?$DP?$FL?$CFs?$FN@ DB '?[%s]?[%s]', 00H ; `string'
CONST	ENDS
;	COMDAT ??_C@_09IAMFCDJG@?$CF2d?1?$CF2d?5?$DP@
CONST	SEGMENT
??_C@_09IAMFCDJG@?$CF2d?1?$CF2d?5?$DP@ DB '%2d/%2d ?', 00H ; `string'
CONST	ENDS
;	COMDAT ??_C@_0M@JKOCLGKC@?$CFd?$HM?$CFd?$HM?$CFd?$HM?$CFd@
CONST	SEGMENT
??_C@_0M@JKOCLGKC@?$CFd?$HM?$CFd?$HM?$CFd?$HM?$CFd@ DB '%d|%d|%d|%d', 00H ; `string'
CONST	ENDS
;	COMDAT ??_C@_09DPNFCMLK@?Q?Q?$DP?5?$CF8d?$KD?S@
CONST	SEGMENT
??_C@_09DPNFCMLK@?Q?Q?$DP?5?$CF8d?$KD?S@ DB 0d1H, 0d1H, '? %8d', 0a3H, 0d3H
	DB	00H						; `string'
CONST	ENDS
;	COMDAT ??_C@_03EPCHICDI@x?$CFd@
CONST	SEGMENT
??_C@_03EPCHICDI@x?$CFd@ DB 'x%d', 00H			; `string'
CONST	ENDS
;	COMDAT ??_C@_0L@OCLOEHGJ@?$LN?$LK?E?f?5?$CF8d?$KD?S@
CONST	SEGMENT
??_C@_0L@OCLOEHGJ@?$LN?$LK?E?f?5?$CF8d?$KD?S@ DB 0bdH, 0baH, 0c5H, 0e6H, ' '
	DB	'%8d', 0a3H, 0d3H, 00H			; `string'
CONST	ENDS
;	COMDAT ??_C@_0BE@FKIEDAAE@?$CF8d?$KD?F?5x?5?$CF2d?5?$DN?5?$CF8d?$KD?F@
CONST	SEGMENT
??_C@_0BE@FKIEDAAE@?$CF8d?$KD?F?5x?5?$CF2d?5?$DN?5?$CF8d?$KD?F@ DB '%8d', 0a3H
	DB	0c6H, ' x %2d = %8d', 0a3H, 0c6H, 00H	; `string'
CONST	ENDS
;	COMDAT ??_C@_0BE@PBEPDFJI@?$CF8d?$KD?S?5x?5?$CF2d?5?$DN?5?$CF8d?$KD?S@
CONST	SEGMENT
??_C@_0BE@PBEPDFJI@?$CF8d?$KD?S?5x?5?$CF2d?5?$DN?5?$CF8d?$KD?S@ DB '%8d', 0a3H
	DB	0d3H, ' x %2d = %8d', 0a3H, 0d3H, 00H	; `string'
CONST	ENDS
;	COMDAT ??_C@_04HNNONBHM@?$CF2d?$DP@
CONST	SEGMENT
??_C@_04HNNONBHM@?$CF2d?$DP@ DB '%2d?', 00H		; `string'
CONST	ENDS
;	COMDAT ??_C@_05ENGCCMCP@?$CF8d?$KD?S@
CONST	SEGMENT
??_C@_05ENGCCMCP@?$CF8d?$KD?S@ DB '%8d', 0a3H, 0d3H, 00H ; `string'
CONST	ENDS
;	COMDAT ??_C@_0L@JBEIEHEP@?$CF8d?$KD?F?$CF8d?$KD?S@
CONST	SEGMENT
??_C@_0L@JBEIEHEP@?$CF8d?$KD?F?$CF8d?$KD?S@ DB '%8d', 0a3H, 0c6H, '%8d', 0a3H
	DB	0d3H, 00H					; `string'
CONST	ENDS
;	COMDAT ??_C@_0P@DLBADLDH@?$CF2d?1?$CF2d?5?F?d?$MA?L?A?v@
CONST	SEGMENT
??_C@_0P@DLBADLDH@?$CF2d?1?$CF2d?5?F?d?$MA?L?A?v@ DB '%2d/%2d ', 0c6H, 0e4H
	DB	0c0H, 0ccH, 0c1H, 0f6H, 00H			; `string'
CONST	ENDS
;	COMDAT ??_C@_0M@DBGBFDKA@?$LN?$LK?E?f?5?5?$CF8d?$KD?S@
CONST	SEGMENT
??_C@_0M@DBGBFDKA@?$LN?$LK?E?f?5?5?$CF8d?$KD?S@ DB 0bdH, 0baH, 0c5H, 0e6H
	DB	'  %8d', 0a3H, 0d3H, 00H			; `string'
CONST	ENDS
;	COMDAT ??_C@_0L@KBBNADAJ@?$LI?m?$LM?$LK?5?$CF8d?$KD?F@
CONST	SEGMENT
??_C@_0L@KBBNADAJ@?$LI?m?$LM?$LK?5?$CF8d?$KD?F@ DB 0b8H, 0edH, 0bcH, 0baH
	DB	' %8d', 0a3H, 0c6H, 00H			; `string'
CONST	ENDS
;	COMDAT ??_C@_05GLBACONI@?$CFd?$HM?$CFd@
CONST	SEGMENT
??_C@_05GLBACONI@?$CFd?$HM?$CFd@ DB '%d|%d', 00H	; `string'
CONST	ENDS
;	COMDAT ??_C@_01GBGANLPD@0@
CONST	SEGMENT
??_C@_01GBGANLPD@0@ DB '0', 00H				; `string'
CONST	ENDS
;	COMDAT ?btnId@?1??serverWindowType12@@YAXXZ@4PAHA
_DATA	SEGMENT
?btnId@?1??serverWindowType12@@YAXXZ@4PAHA DD 0fffffffeH ; `serverWindowType12'::`2'::btnId
	DD	0fffffffeH
	DD	0fffffffeH
	DD	0fffffffeH
	DD	0fffffffeH
	DD	0fffffffeH
_DATA	ENDS
;	COMDAT ?btnId@?1??serverWindowType11@@YAXXZ@4PAHA
_DATA	SEGMENT
?btnId@?1??serverWindowType11@@YAXXZ@4PAHA DD 0fffffffeH ; `serverWindowType11'::`2'::btnId
	DD	0fffffffeH
	DD	0fffffffeH
	DD	0fffffffeH
	DD	0fffffffeH
	DD	0fffffffeH
_DATA	ENDS
;	COMDAT ?btnId@?1??serverWindowType10@@YAXXZ@4PAHA
_DATA	SEGMENT
?btnId@?1??serverWindowType10@@YAXXZ@4PAHA DD 0fffffffeH ; `serverWindowType10'::`2'::btnId
	DD	0fffffffeH
	DD	0fffffffeH
	DD	0fffffffeH
	DD	0fffffffeH
	DD	0fffffffeH
_DATA	ENDS
;	COMDAT ??_C@_0CA@MOGFGPOH@?$CF?916s?5?$CF?93d?5?5?$CF?95d?5?$CF?95d?5?5?$CF?95d?5?5?$CFd@
CONST	SEGMENT
??_C@_0CA@MOGFGPOH@?$CF?916s?5?$CF?93d?5?5?$CF?95d?5?$CF?95d?5?5?$CF?95d?5?5?$CFd@ DB '%'
	DB	'-16s %-3d  %-5d %-5d  %-5d  %d', 00H	; `string'
CONST	ENDS
;	COMDAT ??_C@_04LFMEPEEF@?$LL?s?$LE?k@
CONST	SEGMENT
??_C@_04LFMEPEEF@?$LL?s?$LE?k@ DB 0bbH, 0f3H, 0b4H, 0ebH, 00H ; `string'
CONST	ENDS
;	COMDAT ??_C@_04BLDHOJBN@?$LI?$NO?$MA?N@
CONST	SEGMENT
??_C@_04BLDHOJBN@?$LI?$NO?$MA?N@ DB 0b8H, 0deH, 0c0H, 0ceH, 00H ; `string'
CONST	ENDS
;	COMDAT ??_C@_03BIEHFCNJ@?q?l?$DP@
CONST	SEGMENT
??_C@_03BIEHFCNJ@?q?l?$DP@ DB 0f1H, 0ecH, '?', 00H	; `string'
CONST	ENDS
;	COMDAT ??_C@_0CA@ONLNCGPF@?$CF?916s?5?$CF?93s?5?5?$CF?95s?5?$CF?95s?5?5?$CF?95s?5?5?$CFs@
CONST	SEGMENT
??_C@_0CA@ONLNCGPF@?$CF?916s?5?$CF?93s?5?5?$CF?95s?5?$CF?95s?5?5?$CF?95s?5?5?$CFs@ DB '%'
	DB	'-16s %-3s  %-5s %-5s  %-5s  %s', 00H	; `string'
CONST	ENDS
;	COMDAT ??_C@_08ILNEEICH@?$CFd?$HM?$CFd?$HM?$CFd@
CONST	SEGMENT
??_C@_08ILNEEICH@?$CFd?$HM?$CFd?$HM?$CFd@ DB '%d|%d|%d', 00H ; `string'
CONST	ENDS
;	COMDAT ??_C@_0CP@GFPMIDDF@?$KD?$LN?$KD?$LN?$KD?$LN?5?5?5?5?5?5?5?$LL?s?$LE?k?5?F?j?$MA?$LL?5?$LM?$LB?E?C?G?O?$LN?J@
CONST	SEGMENT
??_C@_0CP@GFPMIDDF@?$KD?$LN?$KD?$LN?$KD?$LN?5?5?5?5?5?5?5?$LL?s?$LE?k?5?F?j?$MA?$LL?5?$LM?$LB?E?C?G?O?$LN?J@ DB 0a3H
	DB	0bdH, 0a3H, 0bdH, 0a3H, 0bdH, '       ', 0bbH, 0f3H, 0b4H, 0ebH
	DB	' ', 0c6H, 0eaH, 0c0H, 0bbH, ' ', 0bcH, 0b1H, 0c5H, 0c3H, 0c7H
	DB	0cfH, 0bdH, 0caH, 0bdH, 0c3H, 0bfH, 0c0H, '     ', 0a3H, 0bdH, 0a3H
	DB	0bdH, 0a3H, 0bdH, 00H			; `string'
CONST	ENDS
;	COMDAT ??_C@_0CP@PALAGGON@?$KD?$LN?$KD?$LN?$KD?$LN?5?5?5?5?5?5?5?$LI?$NO?$MA?N?5?F?j?$MA?$LL?5?$LM?$LB?E?C?G?O?$LN?J@
CONST	SEGMENT
??_C@_0CP@PALAGGON@?$KD?$LN?$KD?$LN?$KD?$LN?5?5?5?5?5?5?5?$LI?$NO?$MA?N?5?F?j?$MA?$LL?5?$LM?$LB?E?C?G?O?$LN?J@ DB 0a3H
	DB	0bdH, 0a3H, 0bdH, 0a3H, 0bdH, '       ', 0b8H, 0deH, 0c0H, 0ceH
	DB	' ', 0c6H, 0eaH, 0c0H, 0bbH, ' ', 0bcH, 0b1H, 0c5H, 0c3H, 0c7H
	DB	0cfH, 0bdH, 0caH, 0bdH, 0c3H, 0bfH, 0c0H, '     ', 0a3H, 0bdH, 0a3H
	DB	0bdH, 0a3H, 0bdH, 00H			; `string'
CONST	ENDS
;	COMDAT ?selectID@?1??serverWindowType9@@YAXXZ@4PAHA
_DATA	SEGMENT
?selectID@?1??serverWindowType9@@YAXXZ@4PAHA DD 0ffffffffH ; `serverWindowType9'::`2'::selectID
	DD	0ffffffffH
	DD	0ffffffffH
_DATA	ENDS
;	COMDAT ?btnId@?1??serverWindowType9@@YAXXZ@4PAHA
_DATA	SEGMENT
?btnId@?1??serverWindowType9@@YAXXZ@4PAHA DD 0fffffffeH	; `serverWindowType9'::`2'::btnId
	DD	0fffffffeH
	DD	0fffffffeH
	DD	0fffffffeH
	DD	0fffffffeH
	DD	0fffffffeH
_DATA	ENDS
;	COMDAT ??_C@_0DC@OEBMFFGI@?$KD?$LN?$KD?$LN?$KD?$LN?5?5?5?5?F?j?5?$LG?G?$LE?B?5?F?D?F?$LM?$LP?x?$MA?$LL?5?$LM?$LB?E?C@
CONST	SEGMENT
??_C@_0DC@OEBMFFGI@?$KD?$LN?$KD?$LN?$KD?$LN?5?5?5?5?F?j?5?$LG?G?$LE?B?5?F?D?F?$LM?$LP?x?$MA?$LL?5?$LM?$LB?E?C@ DB 0a3H
	DB	0bdH, 0a3H, 0bdH, 0a3H, 0bdH, '    ', 0c6H, 0eaH, ' ', 0b6H, 0c7H
	DB	0b4H, 0c2H, ' ', 0c6H, 0c4H, 0c6H, 0bcH, 0bfH, 0f8H, 0c0H, 0bbH
	DB	' ', 0bcH, 0b1H, 0c5H, 0c3H, 0c7H, 0cfH, 0bdH, 0caH, 0bdH, 0c3H
	DB	0bfH, 0c0H, '    ', 0a3H, 0bdH, 0a3H, 0bdH, 0a3H, 0bdH, 00H ; `string'
CONST	ENDS
;	COMDAT ?btnId@?1??serverWindowType4@@YAXXZ@4PAHA
_DATA	SEGMENT
?btnId@?1??serverWindowType4@@YAXXZ@4PAHA DD 0fffffffeH	; `serverWindowType4'::`2'::btnId
	DD	0fffffffeH
	DD	0fffffffeH
	DD	0fffffffeH
	DD	0fffffffeH
	DD	0fffffffeH
_DATA	ENDS
;	COMDAT ??_C@_0DC@OGKMBKIN@?$KD?$LN?$KD?$LN?$KD?$LN?5?5?5?5?5?5?5?5?5?F?D?F?$LM?$LP?x?$MA?$LL?5?$LM?$LB?E?C?G?O?$LN@
CONST	SEGMENT
??_C@_0DC@OGKMBKIN@?$KD?$LN?$KD?$LN?$KD?$LN?5?5?5?5?5?5?5?5?5?F?D?F?$LM?$LP?x?$MA?$LL?5?$LM?$LB?E?C?G?O?$LN@ DB 0a3H
	DB	0bdH, 0a3H, 0bdH, 0a3H, 0bdH, '         ', 0c6H, 0c4H, 0c6H, 0bcH
	DB	0bfH, 0f8H, 0c0H, 0bbH, ' ', 0bcH, 0b1H, 0c5H, 0c3H, 0c7H, 0cfH
	DB	0bdH, 0caH, 0bdH, 0c3H, 0bfH, 0c0H, '       ', 0a3H, 0bdH, 0a3H
	DB	0bdH, 0a3H, 0bdH, 00H			; `string'
CONST	ENDS
;	COMDAT ?btnId@?1??serverWindowType3@@YAXXZ@4PAHA
_DATA	SEGMENT
?btnId@?1??serverWindowType3@@YAXXZ@4PAHA DD 0fffffffeH	; `serverWindowType3'::`2'::btnId
	DD	0fffffffeH
	DD	0fffffffeH
	DD	0fffffffeH
	DD	0fffffffeH
	DD	0fffffffeH
_DATA	ENDS
;	COMDAT ??_C@_0CF@HCGLMHEH@?$CF?916s?5?5?$CF?93d?5?5?5?$CF?95d?5?5?$CF?95d?5?5?5?$CF?95d@
CONST	SEGMENT
??_C@_0CF@HCGLMHEH@?$CF?916s?5?5?$CF?93d?5?5?5?$CF?95d?5?5?$CF?95d?5?5?5?$CF?95d@ DB '%'
	DB	'-16s  %-3d   %-5d  %-5d   %-5d   %d', 00H	; `string'
CONST	ENDS
;	COMDAT ??_C@_0CF@FLMNJHFI@?$CF?916s?5?5?$CF?93s?5?5?5?$CF?95s?5?5?$CF?95s?5?5?5?$CF?95s@
CONST	SEGMENT
??_C@_0CF@FLMNJHFI@?$CF?916s?5?5?$CF?93s?5?5?5?$CF?95s?5?5?$CF?95s?5?5?5?$CF?95s@ DB '%'
	DB	'-16s  %-3s   %-5s  %-5s   %-5s   %s', 00H	; `string'
CONST	ENDS
;	COMDAT ??_C@_04KDDDLIGD@?F?d?F?$KO@
CONST	SEGMENT
??_C@_04KDDDLIGD@?F?d?F?$KO@ DB 0c6H, 0e4H, 0c6H, 0aeH, 00H ; `string'
CONST	ENDS
;	COMDAT ??_C@_02FLIMDJ@Lv@
CONST	SEGMENT
??_C@_02FLIMDJ@Lv@ DB 'Lv', 00H				; `string'
CONST	ENDS
;	COMDAT ??_C@_02MEIMKHMB@HP@
CONST	SEGMENT
??_C@_02MEIMKHMB@HP@ DB 'HP', 00H			; `string'
CONST	ENDS
;	COMDAT ??_C@_02BJIFLDEI@?$LA?x@
CONST	SEGMENT
??_C@_02BJIFLDEI@?$LA?x@ DB 0b0H, 0f8H, 00H		; `string'
CONST	ENDS
;	COMDAT ??_C@_02MCBFLHBI@?$LJ?f@
CONST	SEGMENT
??_C@_02MCBFLHBI@?$LJ?f@ DB 0b9H, 0e6H, 00H		; `string'
CONST	ENDS
;	COMDAT ??_C@_02BAJPEKCM@?$LM?x@
CONST	SEGMENT
??_C@_02BAJPEKCM@?$LM?x@ DB 0bcH, 0f8H, 00H		; `string'
CONST	ENDS
;	COMDAT ??_C@_0DA@BAFAIKKM@?$KD?$LN?$KD?$LN?$KD?$LN?5?5?5?5?5?5?5?5?5?F?j?$MA?$LL?5?$LM?$LB?E?C?G?O?$LN?J?$LN?C?$LP@
CONST	SEGMENT
??_C@_0DA@BAFAIKKM@?$KD?$LN?$KD?$LN?$KD?$LN?5?5?5?5?5?5?5?5?5?F?j?$MA?$LL?5?$LM?$LB?E?C?G?O?$LN?J?$LN?C?$LP@ DB 0a3H
	DB	0bdH, 0a3H, 0bdH, 0a3H, 0bdH, '         ', 0c6H, 0eaH, 0c0H, 0bbH
	DB	' ', 0bcH, 0b1H, 0c5H, 0c3H, 0c7H, 0cfH, 0bdH, 0caH, 0bdH, 0c3H
	DB	0bfH, 0c0H, '         ', 0a3H, 0bdH, 0a3H, 0bdH, 0a3H, 0bdH, 00H ; `string'
CONST	ENDS
;	COMDAT ?btnId@?1??serverWindowType2@@YAXXZ@4PAHA
_DATA	SEGMENT
?btnId@?1??serverWindowType2@@YAXXZ@4PAHA DD 0fffffffeH	; `serverWindowType2'::`2'::btnId
	DD	0fffffffeH
	DD	0fffffffeH
	DD	0fffffffeH
	DD	0fffffffeH
	DD	0fffffffeH
_DATA	ENDS
;	COMDAT ??_C@_02DPKJAMEF@?$CFd@
CONST	SEGMENT
??_C@_02DPKJAMEF@?$CFd@ DB '%d', 00H			; `string'
CONST	ENDS
;	COMDAT ?btnId@?1??serverWindowType1@@YAXXZ@4PAHA
_DATA	SEGMENT
?btnId@?1??serverWindowType1@@YAXXZ@4PAHA DD 0fffffffeH	; `serverWindowType1'::`2'::btnId
	DD	0fffffffeH
	DD	0fffffffeH
	DD	0fffffffeH
	DD	0fffffffeH
	DD	0fffffffeH
_DATA	ENDS
;	COMDAT ??_C@_0M@JKCPDGAE@?$LE?Y?$MA?$LN?5?F?d?$MA?L?A?v@
CONST	SEGMENT
??_C@_0M@JKCPDGAE@?$LE?Y?$MA?$LN?5?F?d?$MA?L?A?v@ DB 0b4H, 0d9H, 0c0H, 0bdH
	DB	' ', 0c6H, 0e4H, 0c0H, 0ccH, 0c1H, 0f6H, 00H	; `string'
CONST	ENDS
;	COMDAT ??_C@_0M@KLCLPDEC@?$MA?L?$MA?$PM?5?F?d?$MA?L?A?v@
CONST	SEGMENT
??_C@_0M@KLCLPDEC@?$MA?L?$MA?$PM?5?F?d?$MA?L?A?v@ DB 0c0H, 0ccH, 0c0H, 0fcH
	DB	' ', 0c6H, 0e4H, 0c0H, 0ccH, 0c1H, 0f6H, 00H	; `string'
CONST	ENDS
;	COMDAT ??_C@_06PNFMGOAF@?C?k?5?5?$LM?R@
CONST	SEGMENT
??_C@_06PNFMGOAF@?C?k?5?5?$LM?R@ DB 0c3H, 0ebH, '  ', 0bcH, 0d2H, 00H ; `string'
CONST	ENDS
;	COMDAT ??_C@_06BLFCGNEJ@?H?$KO?5?5?$MA?N@
CONST	SEGMENT
??_C@_06BLFCGNEJ@?H?$KO?5?5?$MA?N@ DB 0c8H, 0aeH, '  ', 0c0H, 0ceH, 00H ; `string'
CONST	ENDS
;	COMDAT ??_C@_06JHILMIHF@CANCEL@
CONST	SEGMENT
??_C@_06JHILMIHF@CANCEL@ DB 'CANCEL', 00H		; `string'
CONST	ENDS
;	COMDAT ??_C@_06OEDOOLP@?5?$KD?O?$KD?K?5@
CONST	SEGMENT
??_C@_06OEDOOLP@?5?$KD?O?$KD?K?5@ DB ' ', 0a3H, 0cfH, 0a3H, 0cbH, ' ', 00H ; `string'
CONST	ENDS
;	COMDAT ?fontId@?1??serverWindowType0@@YAXH@Z@4PAHA
_DATA	SEGMENT
?fontId@?1??serverWindowType0@@YAXH@Z@4PAHA DD 0fffffffeH ; `serverWindowType0'::`2'::fontId
	DD	0fffffffeH
	DD	0fffffffeH
	DD	0fffffffeH
	DD	0fffffffeH
	DD	0fffffffeH
_DATA	ENDS
;	COMDAT ??_C@_07IBAIKNAL@?$FLstyle?5@
CONST	SEGMENT
??_C@_07IBAIKNAL@?$FLstyle?5@ DB '[style ', 00H		; `string'
CONST	ENDS
;	COMDAT ?msg@?1??charLogout@@YAHXZ@4PADA
_DATA	SEGMENT
?msg@?1??charLogout@@YAHXZ@4PADA DB 0c3H, 0bcH, 0c5H, 0a9H, ' ', 0beH, 0c6H
	DB	0bfH, 0f4H, 0c1H, 0dfH, 00H			; `charLogout'::`2'::msg
_DATA	ENDS
;	COMDAT ??_C@_0BG@HHBIODFI@?C?$LM?E?$KJ?5?$LO?F?$LP?t?5?C?$LD?$LI?$KO?5?$LN?G?F?P?$KB?$KD@
CONST	SEGMENT
??_C@_0BG@HHBIODFI@?C?$LM?E?$KJ?5?$LO?F?$LP?t?5?C?$LD?$LI?$KO?5?$LN?G?F?P?$KB?$KD@ DB 0c3H
	DB	0bcH, 0c5H, 0a9H, ' ', 0beH, 0c6H, 0bfH, 0f4H, ' ', 0c3H, 0b3H
	DB	0b8H, 0aeH, ' ', 0bdH, 0c7H, 0c6H, 0d0H, 0a1H, 0a3H, 00H ; `string'
CONST	ENDS
;	COMDAT ??_C@_0BA@KHEOLEJA@?T?t?u?s?$DP?W?b?$DP?$DP?l?$KL?S?p?$KB?$KD@
CONST	SEGMENT
??_C@_0BA@KHEOLEJA@?T?t?u?s?$DP?W?b?$DP?$DP?l?$KL?S?p?$KB?$KD@ DB 0d4H, 0f4H
	DB	0f5H, 0f3H, '?', 0d7H, 0e2H, '??', 0ecH, 0abH, 0d3H, 0f0H, 0a1H
	DB	0a3H, 00H					; `string'
CONST	ENDS
;	COMDAT ?msg@?1??charLogin@@YAHXZ@4PADA
_DATA	SEGMENT
?msg@?1??charLogin@@YAHXZ@4PADA DB 0bcH, 0adH, 0b8H, 0edH, '/', 0c3H, 0bcH
	DB	0c5H, 0a9H, 0c0H, 0ceH, '/', 0c1H, 0f8H, 0c0H, 0d4H, ' ', 0c1H
	DB	0dfH, 00H					; `charLogin'::`2'::msg
_DATA	ENDS
;	COMDAT ??_C@_0BH@OOIMHFEI@?C?$LM?E?$KJ?$MA?N?5?C?$LD?$LI?$KO?5?$LN?G?F?P?$CI?$CFd?$CJ?$KB?$KD@
CONST	SEGMENT
??_C@_0BH@OOIMHFEI@?C?$LM?E?$KJ?$MA?N?5?C?$LD?$LI?$KO?5?$LN?G?F?P?$CI?$CFd?$CJ?$KB?$KD@ DB 0c3H
	DB	0bcH, 0c5H, 0a9H, 0c0H, 0ceH, ' ', 0c3H, 0b3H, 0b8H, 0aeH, ' ', 0bdH
	DB	0c7H, 0c6H, 0d0H, '(%d)', 0a1H, 0a3H, 00H	; `string'
CONST	ENDS
;	COMDAT ??_C@_0BC@LBDONGAD@?$DP?l?$KL?n?$KE?c?f?M?$KD?$OA?x?M?$KH?T?t?l?$PN@
CONST	SEGMENT
??_C@_0BC@LBDONGAD@?$DP?l?$KL?n?$KE?c?f?M?$KD?$OA?x?M?$KH?T?t?l?$PN@ DB '?'
	DB	0ecH, 0abH, 0eeH, 0a4H, 0e3H, 0e6H, 0cdH, 0a3H, 0e0H, 0f8H, 0cdH
	DB	0a7H, 0d4H, 0f4H, 0ecH, 0fdH, 00H		; `string'
CONST	ENDS
;	COMDAT ??_C@_0BB@PEBLFAAD@?$DP?l?$KL?n?$KE?t?$LI?$DP?$OA?x?M?$KH?T?t?l?$PN@
CONST	SEGMENT
??_C@_0BB@PEBLFAAD@?$DP?l?$KL?n?$KE?t?$LI?$DP?$OA?x?M?$KH?T?t?l?$PN@ DB '?'
	DB	0ecH, 0abH, 0eeH, 0a4H, 0f4H, 0b8H, '?', 0e0H, 0f8H, 0cdH, 0a7H
	DB	0d4H, 0f4H, 0ecH, 0fdH, 00H			; `string'
CONST	ENDS
;	COMDAT ??_C@_0BF@BFOFAFDI@?$DP?l?$KL?n?$KE?$DP?V?X?J?$KL?o?T?$OA?x?M?$KH?T?t?l?$PN@
CONST	SEGMENT
??_C@_0BF@BFOFAFDI@?$DP?l?$KL?n?$KE?$DP?V?X?J?$KL?o?T?$OA?x?M?$KH?T?t?l?$PN@ DB '?'
	DB	0ecH, 0abH, 0eeH, 0a4H, '?', 0d6H, 0d8H, 0caH, 0abH, 0efH, 0d4H
	DB	0e0H, 0f8H, 0cdH, 0a7H, 0d4H, 0f4H, 0ecH, 0fdH, 00H ; `string'
CONST	ENDS
;	COMDAT ??_C@_0BC@ODOFDCOF@?$DP?l?$KL?n?$KE?$OA?x?$DP?$DP?$OA?x?M?$KH?T?t?l?$PN@
CONST	SEGMENT
??_C@_0BC@ODOFDCOF@?$DP?l?$KL?n?$KE?$OA?x?$DP?$DP?$OA?x?M?$KH?T?t?l?$PN@ DB '?'
	DB	0ecH, 0abH, 0eeH, 0a4H, 0e0H, 0f8H, '??', 0e0H, 0f8H, 0cdH, 0a7H
	DB	0d4H, 0f4H, 0ecH, 0fdH, 00H			; `string'
CONST	ENDS
;	COMDAT ??_C@_0BC@NPHDINBL@?$DP?l?$KL?n?$KE?z?E?y?$PL?$OA?x?M?$KH?T?t?l?$PN@
CONST	SEGMENT
??_C@_0BC@NPHDINBL@?$DP?l?$KL?n?$KE?z?E?y?$PL?$OA?x?M?$KH?T?t?l?$PN@ DB '?'
	DB	0ecH, 0abH, 0eeH, 0a4H, 0faH, 0c5H, 0f9H, 0fbH, 0e0H, 0f8H, 0cdH
	DB	0a7H, 0d4H, 0f4H, 0ecH, 0fdH, 00H		; `string'
CONST	ENDS
;	COMDAT ??_C@_0BB@MMGOFGBI@?$DP?l?$KL?n?$KE?$DP?y?A?$OA?x?M?$KH?T?t?l?$PN@
CONST	SEGMENT
??_C@_0BB@MMGOFGBI@?$DP?l?$KL?n?$KE?$DP?y?A?$OA?x?M?$KH?T?t?l?$PN@ DB '?', 0ecH
	DB	0abH, 0eeH, 0a4H, '?', 0f9H, 0c1H, 0e0H, 0f8H, 0cdH, 0a7H, 0d4H
	DB	0f4H, 0ecH, 0fdH, 00H			; `string'
CONST	ENDS
;	COMDAT ??_C@_0BA@OCMAIDLN@?$DP?l?$KL?n?$KE?$DP?$DP?$OA?x?M?$KH?T?t?l?$PN@
CONST	SEGMENT
??_C@_0BA@OCMAIDLN@?$DP?l?$KL?n?$KE?$DP?$DP?$OA?x?M?$KH?T?t?l?$PN@ DB '?', 0ecH
	DB	0abH, 0eeH, 0a4H, '??', 0e0H, 0f8H, 0cdH, 0a7H, 0d4H, 0f4H, 0ecH
	DB	0fdH, 00H					; `string'
CONST	ENDS
;	COMDAT ??_C@_0BC@EOGDPEGN@?$DP?l?$KL?n?$KE?m?$LJ?Z?$LA?$OA?x?M?$KH?T?t?l?$PN@
CONST	SEGMENT
??_C@_0BC@EOGDPEGN@?$DP?l?$KL?n?$KE?m?$LJ?Z?$LA?$OA?x?M?$KH?T?t?l?$PN@ DB '?'
	DB	0ecH, 0abH, 0eeH, 0a4H, 0edH, 0b9H, 0daH, 0b0H, 0e0H, 0f8H, 0cdH
	DB	0a7H, 0d4H, 0f4H, 0ecH, 0fdH, 00H		; `string'
CONST	ENDS
;	COMDAT ??_C@_0BC@IADOEDAG@?$DP?l?$KL?n?$KE?$NN?A?T?$OA?$OA?x?M?$KH?T?t?l?$PN@
CONST	SEGMENT
??_C@_0BC@IADOEDAG@?$DP?l?$KL?n?$KE?$NN?A?T?$OA?$OA?x?M?$KH?T?t?l?$PN@ DB '?'
	DB	0ecH, 0abH, 0eeH, 0a4H, 0ddH, 0c1H, 0d4H, 0e0H, 0e0H, 0f8H, 0cdH
	DB	0a7H, 0d4H, 0f4H, 0ecH, 0fdH, 00H		; `string'
CONST	ENDS
;	COMDAT ??_C@_0BC@BLEFHHCI@?$DP?l?$KL?n?$KE?t?$LI?c?j?$OA?x?M?$KH?T?t?l?$PN@
CONST	SEGMENT
??_C@_0BC@BLEFHHCI@?$DP?l?$KL?n?$KE?t?$LI?c?j?$OA?x?M?$KH?T?t?l?$PN@ DB '?'
	DB	0ecH, 0abH, 0eeH, 0a4H, 0f4H, 0b8H, 0e3H, 0eaH, 0e0H, 0f8H, 0cdH
	DB	0a7H, 0d4H, 0f4H, 0ecH, 0fdH, 00H		; `string'
CONST	ENDS
;	COMDAT ??_C@_0BB@DDFMPBHB@?$DP?l?$KL?n?$KE?w?$LM?$DP?$OA?x?M?$KH?T?t?l?$PN@
CONST	SEGMENT
??_C@_0BB@DDFMPBHB@?$DP?l?$KL?n?$KE?w?$LM?$DP?$OA?x?M?$KH?T?t?l?$PN@ DB '?'
	DB	0ecH, 0abH, 0eeH, 0a4H, 0f7H, 0bcH, '?', 0e0H, 0f8H, 0cdH, 0a7H
	DB	0d4H, 0f4H, 0ecH, 0fdH, 00H			; `string'
CONST	ENDS
;	COMDAT ??_C@_0BE@FNJGPFEB@?$DP?l?$KL?n?$KE?P?l?v?b?$OA?x?M?$KH?T?t?l?$PN?$KB?$KD@
CONST	SEGMENT
??_C@_0BE@FNJGPFEB@?$DP?l?$KL?n?$KE?P?l?v?b?$OA?x?M?$KH?T?t?l?$PN?$KB?$KD@ DB '?'
	DB	0ecH, 0abH, 0eeH, 0a4H, 0d0H, 0ecH, 0f6H, 0e2H, 0e0H, 0f8H, 0cdH
	DB	0a7H, 0d4H, 0f4H, 0ecH, 0fdH, 0a1H, 0a3H, 00H ; `string'
CONST	ENDS
;	COMDAT ??_C@_0BB@PHBDBDAB@?$MA?N?E?M?$LD?$NN?5?$LP?$KM?$LA?a?5?$LP?$MA?$LH?y@
CONST	SEGMENT
??_C@_0BB@PHBDBDAB@?$MA?N?E?M?$LD?$NN?5?$LP?$KM?$LA?a?5?$LP?$MA?$LH?y@ DB 0c0H
	DB	0ceH, 0c5H, 0cdH, 0b3H, 0ddH, ' ', 0bfH, 0acH, 0b0H, 0e1H, ' ', 0bfH
	DB	0c0H, 0b7H, 0f9H, 00H			; `string'
CONST	ENDS
;	COMDAT ??_C@_0CE@MIFIPBLG@WGS?o?C?$DP?$NM?t?p?k?0?5?$DP?$DP?$DPWGS?o?C?$DP?$DP?n?$KC?r?$LI?$DP?$DP?j?$PN?$DP@
CONST	SEGMENT
??_C@_0CE@MIFIPBLG@WGS?o?C?$DP?$NM?t?p?k?0?5?$DP?$DP?$DPWGS?o?C?$DP?$DP?n?$KC?r?$LI?$DP?$DP?j?$PN?$DP@ DB 'W'
	DB	'GS', 0efH, 0c3H, '?', 0dcH, 0f4H, 0f0H, 0ebH, ', ???WGS', 0efH
	DB	0c3H, '??', 0eeH, 0a2H, 0f2H, 0b8H, '??', 0eaH, 0fdH, '??', 0f1H
	DB	0bcH, '?', 00H				; `string'
CONST	ENDS
;	COMDAT ??_C@_0CL@DHOIGGNA@WGS?o?C?$DP?$DP?l?$KL?i?D?h?G?o?C?$DP?0?5?$DP?$DP?$DP?o?C?$DP?$DP?n?$KC?r?$LI?$DP?$DP@
CONST	SEGMENT
??_C@_0CL@DHOIGGNA@WGS?o?C?$DP?$DP?l?$KL?i?D?h?G?o?C?$DP?0?5?$DP?$DP?$DP?o?C?$DP?$DP?n?$KC?r?$LI?$DP?$DP@ DB 'W'
	DB	'GS', 0efH, 0c3H, '??', 0ecH, 0abH, 0e9H, 0c4H, 0e8H, 0c7H, 0efH
	DB	0c3H, '?, ???', 0efH, 0c3H, '??', 0eeH, 0a2H, 0f2H, 0b8H, '??', 0eaH
	DB	0fdH, '??', 0e8H, 0c7H, 0e0H, 0f7H, 0f1H, 0bcH, '?', 00H ; `string'
CONST	ENDS
;	COMDAT ??_C@_0EC@JANGBCI@?$MA?L?5?A?$KG?G?$LA?$MA?$LK?5?$LO?F?A?w?5?$LF?n?$LH?O?$LF?G?A?v?5?$LO?J?$LO?R?$LN?$MA?$LE@
CONST	SEGMENT
??_C@_0EC@JANGBCI@?$MA?L?5?A?$KG?G?$LA?$MA?$LK?5?$LO?F?A?w?5?$LF?n?$LH?O?$LF?G?A?v?5?$LO?J?$LO?R?$LN?$MA?$LE@ DB 0c0H
	DB	0ccH, ' ', 0c1H, 0a6H, 0c7H, 0b0H, 0c0H, 0baH, ' ', 0beH, 0c6H
	DB	0c1H, 0f7H, ' ', 0b5H, 0eeH, 0b7H, 0cfH, 0b5H, 0c7H, 0c1H, 0f6H
	DB	' ', 0beH, 0caH, 0beH, 0d2H, 0bdH, 0c0H, 0b4H, 0cfH, 0b4H, 0d9H
	DB	'.  ', 0bbH, 0e7H, 0c0H, 0ccH, 0c6H, 0aeH, 0bfH, 0a1H, 0bcH, 0adH
	DB	' ', 0b8H, 0d5H, 0c0H, 0faH, ' ', 0b5H, 0eeH, 0b7H, 0cfH, 0c7H
	DB	0cfH, 0bcH, 0bcH, 0bfH, 0e4H, 0a1H, 0a3H, 00H ; `string'
CONST	ENDS
;	COMDAT ??_C@_0FC@MFALGBLI@?$LA?T?$MA?S?$MA?$LL?5?$LN?C?$MA?$NL?G?O?$LB?b?5?$MA?$PM?$LP?$KB?5Wayi?$LA?T?$MA?S?$LP?$KB@
CONST	SEGMENT
??_C@_0FC@MFALGBLI@?$LA?T?$MA?S?$MA?$LL?5?$LN?C?$MA?$NL?G?O?$LB?b?5?$MA?$PM?$LP?$KB?5Wayi?$LA?T?$MA?S?$LP?$KB@ DB 0b0H
	DB	0d4H, 0c0H, 0d3H, 0c0H, 0bbH, ' ', 0bdH, 0c3H, 0c0H, 0dbH, 0c7H
	DB	0cfH, 0b1H, 0e2H, ' ', 0c0H, 0fcH, 0bfH, 0a1H, ' Wayi', 0b0H, 0d4H
	DB	0c0H, 0d3H, 0bfH, 0a1H, ' ', 0c1H, 0a2H, 0bcH, 0d3H, 0c7H, 0cfH
	DB	0bfH, 0a9H, ' ', 0b0H, 0d4H, 0c0H, 0d3H, ' ', 0b0H, 0fcH, 0b8H
	DB	0aeH, ' ', 0b0H, 0e8H, 0c1H, 0a4H, 0c0H, 0c7H, ' ', 0baH, 0f1H
	DB	0b9H, 0d0H, 0b9H, 0f8H, 0c8H, 0a3H, 0b8H, 0a6H, ' ', 0baH, 0afH
	DB	0b0H, 0e6H, 0c7H, 0cfH, 0bdH, 0caH, 0bdH, 0c3H, 0bfH, 0c0H, 00H ; `string'
CONST	ENDS
;	COMDAT ??_C@_0CO@LFMOKHEP@?$MA?L?5?$LA?h?A?$KE?$MA?$LK?5?$MA?L?$LJ?L?5?$LL?u?$LH?N?$LP?n?5?H?$LI?$LP?x?$MA?$LI?$LH?N?5@
CONST	SEGMENT
??_C@_0CO@LFMOKHEP@?$MA?L?5?$LA?h?A?$KE?$MA?$LK?5?$MA?L?$LJ?L?5?$LL?u?$LH?N?$LP?n?5?H?$LI?$LP?x?$MA?$LI?$LH?N?5@ DB 0c0H
	DB	0ccH, ' ', 0b0H, 0e8H, 0c1H, 0a4H, 0c0H, 0baH, ' ', 0c0H, 0ccH
	DB	0b9H, 0ccH, ' ', 0bbH, 0f5H, 0b7H, 0ceH, 0bfH, 0eeH, ' ', 0c8H
	DB	0b8H, 0bfH, 0f8H, 0c0H, 0b8H, 0b7H, 0ceH, ' ', 0c0H, 0fcH, 0c8H
	DB	0afH, 0b5H, 0c7H, 0beH, 0faH, 0bdH, 0c0H, 0b4H, 0cfH, 0b4H, 0d9H
	DB	00H						; `string'
CONST	ENDS
;	COMDAT ??_C@_0CH@MGAFLNOF@?H?$KI?F?d?$MA?L?A?v?$LP?$KB?5?$LO?F?A?w?5?$LH?N?$LB?W?$MA?N?5?$LF?G?A?v?5?$LO?J?$LO@
CONST	SEGMENT
??_C@_0CH@MGAFLNOF@?H?$KI?F?d?$MA?L?A?v?$LP?$KB?5?$LO?F?A?w?5?$LH?N?$LB?W?$MA?N?5?$LF?G?A?v?5?$LO?J?$LO@ DB 0c8H
	DB	0a8H, 0c6H, 0e4H, 0c0H, 0ccH, 0c1H, 0f6H, 0bfH, 0a1H, ' ', 0beH
	DB	0c6H, 0c1H, 0f7H, ' ', 0b7H, 0ceH, 0b1H, 0d7H, 0c0H, 0ceH, ' ', 0b5H
	DB	0c7H, 0c1H, 0f6H, ' ', 0beH, 0caH, 0beH, 0d2H, 0bdH, 0c0H, 0b4H
	DB	0cfH, 0b4H, 0d9H, 00H			; `string'
CONST	ENDS
;	COMDAT ??_C@_0DE@LMMPDPLP@?$LH?N?$LB?W?$MA?N?5?$LN?C?$LA?$KD?$MA?L?5?C?J?$LA?z?$LF?G?$LO?z?$LN?$MA?$LE?O?$LE?Y?4?5?$LE@
CONST	SEGMENT
??_C@_0DE@LMMPDPLP@?$LH?N?$LB?W?$MA?N?5?$LN?C?$LA?$KD?$MA?L?5?C?J?$LA?z?$LF?G?$LO?z?$LN?$MA?$LE?O?$LE?Y?4?5?$LE@ DB 0b7H
	DB	0ceH, 0b1H, 0d7H, 0c0H, 0ceH, ' ', 0bdH, 0c3H, 0b0H, 0a3H, 0c0H
	DB	0ccH, ' ', 0c3H, 0caH, 0b0H, 0faH, 0b5H, 0c7H, 0beH, 0faH, 0bdH
	DB	0c0H, 0b4H, 0cfH, 0b4H, 0d9H, '. ', 0b4H, 0d9H, 0bdH, 0c3H, ' '
	DB	0b7H, 0ceH, 0b1H, 0d7H, 0c0H, 0ceH, ' ', 0c7H, 0cfH, 0bdH, 0caH
	DB	0bdH, 0c3H, 0bfH, 0c0H, '.', 00H		; `string'
CONST	ENDS
;	COMDAT ??_C@_0DE@CGFBMJCB@?$LA?T?$MA?S?$MA?$LL?5?$LN?C?$MA?$NL?G?O?$LB?b?5?$MA?$PM?$LP?$KB?5?$LA?$LD?$MA?N?5?A?$KE?$LK?$LI?$LI@
CONST	SEGMENT
??_C@_0DE@CGFBMJCB@?$LA?T?$MA?S?$MA?$LL?5?$LN?C?$MA?$NL?G?O?$LB?b?5?$MA?$PM?$LP?$KB?5?$LA?$LD?$MA?N?5?A?$KE?$LK?$LI?$LI@ DB 0b0H
	DB	0d4H, 0c0H, 0d3H, 0c0H, 0bbH, ' ', 0bdH, 0c3H, 0c0H, 0dbH, 0c7H
	DB	0cfH, 0b1H, 0e2H, ' ', 0c0H, 0fcH, 0bfH, 0a1H, ' ', 0b0H, 0b3H
	DB	0c0H, 0ceH, ' ', 0c1H, 0a4H, 0baH, 0b8H, 0b8H, 0a6H, ' ', 0b4H
	DB	0d9H, 0bdH, 0c3H, ' ', 0c8H, 0aeH, 0c0H, 0ceH, 0c7H, 0cfH, 0bdH
	DB	0caH, 0bdH, 0c3H, 0bfH, 0c0H, ']', 00H	; `string'
CONST	ENDS
;	COMDAT ??_C@_0CH@JMACCECP@?$MA?L?5?$LA?h?A?$KE?$MA?$LK?5?A?$KE?A?v?$LF?G?$LO?z?$LN?$MA?$LE?O?$LE?Y?0?5?$LJ?$KO?$MA?G?G@
CONST	SEGMENT
??_C@_0CH@JMACCECP@?$MA?L?5?$LA?h?A?$KE?$MA?$LK?5?A?$KE?A?v?$LF?G?$LO?z?$LN?$MA?$LE?O?$LE?Y?0?5?$LJ?$KO?$MA?G?G@ DB 0c0H
	DB	0ccH, ' ', 0b0H, 0e8H, 0c1H, 0a4H, 0c0H, 0baH, ' ', 0c1H, 0a4H
	DB	0c1H, 0f6H, 0b5H, 0c7H, 0beH, 0faH, 0bdH, 0c0H, 0b4H, 0cfH, 0b4H
	DB	0d9H, ', ', 0b9H, 0aeH, 0c0H, 0c7H, 0c7H, 0d8H, 0c1H, 0d6H, 0bcH
	DB	0bcH, 0bfH, 0e4H, 00H			; `string'
CONST	ENDS
;	COMDAT ??_C@_0DF@NACPJADM@?$LO?F?$MA?L?$LF?p?$LP?M?5?$LK?q?$LJ?P?$LJ?x?H?$KD?$LE?B?5?$LP?$LF?$LJ?$KO?$LA?z?5?$LM?$PN?$MA?Z@
CONST	SEGMENT
??_C@_0DF@NACPJADM@?$LO?F?$MA?L?$LF?p?$LP?M?5?$LK?q?$LJ?P?$LJ?x?H?$KD?$LE?B?5?$LP?$LF?$LJ?$KO?$LA?z?5?$LM?$PN?$MA?Z@ DB 0beH
	DB	0c6H, 0c0H, 0ccH, 0b5H, 0f0H, 0bfH, 0cdH, ' ', 0baH, 0f1H, 0b9H
	DB	0d0H, 0b9H, 0f8H, 0c8H, 0a3H, 0b4H, 0c2H, ' ', 0bfH, 0b5H, 0b9H
	DB	0aeH, 0b0H, 0faH, ' ', 0bcH, 0fdH, 0c0H, 0daH, 0b8H, 0b8H, ' ', 0bbH
	DB	0e7H, 0bfH, 0ebH, 0c7H, 0d2H, ' ', 0bcH, 0f6H, ' ', 0c0H, 0d6H
	DB	0bdH, 0c0H, 0b4H, 0cfH, 0b4H, 0d9H, 00H	; `string'
CONST	ENDS
;	COMDAT ??_C@_0CD@NOMGEOJE@?H?$LI?$LP?x?5?$LA?h?A?$KE?$MA?L?5?H?$LA?$LM?$LK?H?$KN?5?$LF?G?A?v?5?$LO?J?$LO?R?$LN?$MA?$LE@
CONST	SEGMENT
??_C@_0CD@NOMGEOJE@?H?$LI?$LP?x?5?$LA?h?A?$KE?$MA?L?5?H?$LA?$LM?$LK?H?$KN?5?$LF?G?A?v?5?$LO?J?$LO?R?$LN?$MA?$LE@ DB 0c8H
	DB	0b8H, 0bfH, 0f8H, ' ', 0b0H, 0e8H, 0c1H, 0a4H, 0c0H, 0ccH, ' ', 0c8H
	DB	0b0H, 0bcH, 0baH, 0c8H, 0adH, ' ', 0b5H, 0c7H, 0c1H, 0f6H, ' ', 0beH
	DB	0caH, 0beH, 0d2H, 0bdH, 0c0H, 0b4H, 0cfH, 0b4H, 0d9H, 00H ; `string'
CONST	ENDS
;	COMDAT ??_C@_0BF@NHOPBCJF@?$MA?$NP?$LI?x?$LF?H?5?$LN?C?$MA?$NL?5?$LP?$KB?$LH?$KP?D?Z?$LF?e@
CONST	SEGMENT
??_C@_0BF@NHOPBCJF@?$MA?$NP?$LI?x?$LF?H?5?$LN?C?$MA?$NL?5?$LP?$KB?$LH?$KP?D?Z?$LF?e@ DB 0c0H
	DB	0dfH, 0b8H, 0f8H, 0b5H, 0c8H, ' ', 0bdH, 0c3H, 0c0H, 0dbH, ' ', 0bfH
	DB	0a1H, 0b7H, 0afH, 0c4H, 0daH, 0b5H, 0e5H, 00H ; `string'
CONST	ENDS
;	COMDAT ??_C@_0BO@HAIDEEBI@?H?$LI?$LP?x?5?$LA?h?A?$KE?$MA?L?5?H?$LA?$LM?$LK?H?$KN?5?$LF?G?$LO?z?$LN?$MA?$LE?O?$LE?Y@
CONST	SEGMENT
??_C@_0BO@HAIDEEBI@?H?$LI?$LP?x?5?$LA?h?A?$KE?$MA?L?5?H?$LA?$LM?$LK?H?$KN?5?$LF?G?$LO?z?$LN?$MA?$LE?O?$LE?Y@ DB 0c8H
	DB	0b8H, 0bfH, 0f8H, ' ', 0b0H, 0e8H, 0c1H, 0a4H, 0c0H, 0ccH, ' ', 0c8H
	DB	0b0H, 0bcH, 0baH, 0c8H, 0adH, ' ', 0b5H, 0c7H, 0beH, 0faH, 0bdH
	DB	0c0H, 0b4H, 0cfH, 0b4H, 0d9H, 00H		; `string'
CONST	ENDS
;	COMDAT ??_C@_0CE@KOLHMKHB@?$LA?$LA?$MA?$LK?5?$MA?L?$LI?$KH?$MA?G?5?$LA?h?A?$KE?$MA?L?5?$MA?L?$LJ?L?5?A?$LI?$MA?g?G?U?$LE@
CONST	SEGMENT
??_C@_0CE@KOLHMKHB@?$LA?$LA?$MA?$LK?5?$MA?L?$LI?$KH?$MA?G?5?$LA?h?A?$KE?$MA?L?5?$MA?L?$LJ?L?5?A?$LI?$MA?g?G?U?$LE@ DB 0b0H
	DB	0b0H, 0c0H, 0baH, ' ', 0c0H, 0ccH, 0b8H, 0a7H, 0c0H, 0c7H, ' ', 0b0H
	DB	0e8H, 0c1H, 0a4H, 0c0H, 0ccH, ' ', 0c0H, 0ccH, 0b9H, 0ccH, ' ', 0c1H
	DB	0b8H, 0c0H, 0e7H, 0c7H, 0d5H, 0b4H, 0cfH, 0b4H, 0d9H, '.', 00H ; `string'
CONST	ENDS
;	COMDAT ??_C@_0CC@HINJGBNA@?$LH?N?$LB?W?$MA?N?G?O?A?v?5?$LO?J?$LO?R?$LA?E?$LD?$KK?5?$LH?N?$LB?W?$MA?N?5?$LP?$MA?$LH?y@
CONST	SEGMENT
??_C@_0CC@HINJGBNA@?$LH?N?$LB?W?$MA?N?G?O?A?v?5?$LO?J?$LO?R?$LA?E?$LD?$KK?5?$LH?N?$LB?W?$MA?N?5?$LP?$MA?$LH?y@ DB 0b7H
	DB	0ceH, 0b1H, 0d7H, 0c0H, 0ceH, 0c7H, 0cfH, 0c1H, 0f6H, ' ', 0beH
	DB	0caH, 0beH, 0d2H, 0b0H, 0c5H, 0b3H, 0aaH, ' ', 0b7H, 0ceH, 0b1H
	DB	0d7H, 0c0H, 0ceH, ' ', 0bfH, 0c0H, 0b7H, 0f9H, 0c0H, 0d3H, 00H ; `string'
CONST	ENDS
;	COMDAT ??_C@_0BM@JBMHIAK@?$LL?g?$LP?k?$MA?Z?$LA?$KB?5?$MA?L?$LJ?L?5?$LA?T?$MA?S?A?$NP?5?$MA?T?$LE?O?$LE?Y@
CONST	SEGMENT
??_C@_0BM@JBMHIAK@?$LL?g?$LP?k?$MA?Z?$LA?$KB?5?$MA?L?$LJ?L?5?$LA?T?$MA?S?A?$NP?5?$MA?T?$LE?O?$LE?Y@ DB 0bbH
	DB	0e7H, 0bfH, 0ebH, 0c0H, 0daH, 0b0H, 0a1H, ' ', 0c0H, 0ccH, 0b9H
	DB	0ccH, ' ', 0b0H, 0d4H, 0c0H, 0d3H, 0c1H, 0dfH, ' ', 0c0H, 0d4H
	DB	0b4H, 0cfH, 0b4H, 0d9H, 00H			; `string'
CONST	ENDS
;	COMDAT ??_C@_0CB@OGIGLFK@?$LF?$LP?$MA?O?G?Q?5?$LA?h?A?$KE?$MA?L?5?$LP?B?$LG?s?$MA?N?5?$LL?s?E?B?$MA?T?$LE?O?$LE?Y@
CONST	SEGMENT
??_C@_0CB@OGIGLFK@?$LF?$LP?$MA?O?G?Q?5?$LA?h?A?$KE?$MA?L?5?$LP?B?$LG?s?$MA?N?5?$LL?s?E?B?$MA?T?$LE?O?$LE?Y@ DB 0b5H
	DB	0bfH, 0c0H, 0cfH, 0c7H, 0d1H, ' ', 0b0H, 0e8H, 0c1H, 0a4H, 0c0H
	DB	0ccH, ' ', 0bfH, 0c2H, 0b6H, 0f3H, 0c0H, 0ceH, ' ', 0bbH, 0f3H
	DB	0c5H, 0c2H, 0c0H, 0d4H, 0b4H, 0cfH, 0b4H, 0d9H, '.', 00H ; `string'
CONST	ENDS
;	COMDAT ??_C@_0CP@NMMNAJC@?$LF?$LP?$MA?O?G?Q?5?$LL?g?$LP?k?$MA?Z?$LE?B?5?$LJ?$NN?$LK?$LJ?G?O?$LP?$KJ?5?$LH?N?$LB?W?$MA?N@
CONST	SEGMENT
??_C@_0CP@NMMNAJC@?$LF?$LP?$MA?O?G?Q?5?$LL?g?$LP?k?$MA?Z?$LE?B?5?$LJ?$NN?$LK?$LJ?G?O?$LP?$KJ?5?$LH?N?$LB?W?$MA?N@ DB 0b5H
	DB	0bfH, 0c0H, 0cfH, 0c7H, 0d1H, ' ', 0bbH, 0e7H, 0bfH, 0ebH, 0c0H
	DB	0daH, 0b4H, 0c2H, ' ', 0b9H, 0ddH, 0baH, 0b9H, 0c7H, 0cfH, 0bfH
	DB	0a9H, ' ', 0b7H, 0ceH, 0b1H, 0d7H, 0c0H, 0ceH, ' ', 0c7H, 0d2H
	DB	' ', 0bcH, 0f6H, ' ', 0beH, 0f8H, 0bdH, 0c0H, 0b4H, 0cfH, 0b4H
	DB	0d9H, 00H					; `string'
CONST	ENDS
;	COMDAT ??_C@_0HC@GFFIGLHA@?$MA?$NP?$LI?x?$LF?H?5?$LL?g?$LP?k?$MA?Z?5?$MA?L?$LI?$KH?5?$LG?G?$LE?B?5?$LK?q?$LJ?P?$LJ?x?H@
CONST	SEGMENT
??_C@_0HC@GFFIGLHA@?$MA?$NP?$LI?x?$LF?H?5?$LL?g?$LP?k?$MA?Z?5?$MA?L?$LI?$KH?5?$LG?G?$LE?B?5?$LK?q?$LJ?P?$LJ?x?H@ DB 0c0H
	DB	0dfH, 0b8H, 0f8H, 0b5H, 0c8H, ' ', 0bbH, 0e7H, 0bfH, 0ebH, 0c0H
	DB	0daH, ' ', 0c0H, 0ccH, 0b8H, 0a7H, ' ', 0b6H, 0c7H, 0b4H, 0c2H
	DB	' ', 0baH, 0f1H, 0b9H, 0d0H, 0b9H, 0f8H, 0c8H, 0a3H, ', ', 0beH
	DB	0c6H, 0c1H, 0f7H, ' ', 0c8H, 0b8H, 0bfH, 0f8H, 0bfH, 0a1H, ' ', 0b0H
	DB	0a1H, 0c0H, 0d4H, 0c7H, 0cfH, 0c1H, 0f6H, ' ', 0beH, 0caH, 0c0H
	DB	0baH, ' ', 0b0H, 0e6H, 0bfH, 0ecH, ' Wayi', 0b0H, 0d4H, 0c0H, 0d3H
	DB	' ', 0bbH, 0e7H, 0c0H, 0ccH, 0c6H, 0aeH, 0bfH, 0a1H, 0bcH, 0adH
	DB	' ', 0b9H, 0abH, 0b7H, 0e1H, 0b7H, 0ceH, ' ', 0c8H, 0b8H, 0bfH
	DB	0f8H, 0bfH, 0a1H, ' ', 0b0H, 0a1H, 0c0H, 0d4H, 0c7H, 0cfH, 0bdH
	DB	0caH, 0bdH, 0c3H, 0bfH, 0c0H, 0a1H, 0a3H, 00H ; `string'
CONST	ENDS
;	COMDAT ??_C@_0CG@HHMHGCGE@?$MA?T?$LH?B?G?Q?5?$MA?Z?$LH?a?5?G?$PM?$LN?D?$MA?L?5?$LP?C?$LJ?Y?$LI?$KD?A?v?5?$LO?J?$LN@
CONST	SEGMENT
??_C@_0CG@HHMHGCGE@?$MA?T?$LH?B?G?Q?5?$MA?Z?$LH?a?5?G?$PM?$LN?D?$MA?L?5?$LP?C?$LJ?Y?$LI?$KD?A?v?5?$LO?J?$LN@ DB 0c0H
	DB	0d4H, 0b7H, 0c2H, 0c7H, 0d1H, ' ', 0c0H, 0daH, 0b7H, 0e1H, ' ', 0c7H
	DB	0fcH, 0bdH, 0c4H, 0c0H, 0ccH, ' ', 0bfH, 0c3H, 0b9H, 0d9H, 0b8H
	DB	0a3H, 0c1H, 0f6H, ' ', 0beH, 0caH, 0bdH, 0c0H, 0b4H, 0cfH, 0b4H
	DB	0d9H, '.', 00H				; `string'
CONST	ENDS
;	COMDAT ??_C@_0DE@PGOBNCKH@?$LM?$KN?$LJ?v?5?$LL?g?$LP?k?$MA?Z?$LA?$KB?5?$LI?$LJ?$LN?$MA?$LE?O?$LE?Y?4?5?$MA?a?$LN?C?5?H?D@
CONST	SEGMENT
??_C@_0DE@PGOBNCKH@?$LM?$KN?$LJ?v?5?$LL?g?$LP?k?$MA?Z?$LA?$KB?5?$LI?$LJ?$LN?$MA?$LE?O?$LE?Y?4?5?$MA?a?$LN?C?5?H?D@ DB 0bcH
	DB	0adH, 0b9H, 0f6H, ' ', 0bbH, 0e7H, 0bfH, 0ebH, 0c0H, 0daH, 0b0H
	DB	0a1H, ' ', 0b8H, 0b9H, 0bdH, 0c0H, 0b4H, 0cfH, 0b4H, 0d9H, '. '
	DB	0c0H, 0e1H, 0bdH, 0c3H, ' ', 0c8H, 0c4H, 0bfH, 0a1H, ' ', 0b4H
	DB	0d9H, 0bdH, 0c3H, ' ', 0bdH, 0c3H, 0b5H, 0b5H, 0c7H, 0cfH, 0bdH
	DB	0caH, 0bdH, 0c3H, 0bfH, 0c0H, 00H		; `string'
CONST	ENDS
;	COMDAT ??_C@_0DB@MPLNGCGC@?$LF?$KF?$MA?L?E?M?$LK?$KD?$MA?L?$LN?$LK?$LP?$KB?$LM?$KN?5?$LP?C?$LJ?Y?$LI?$KF?5?A?$KE?$LK?$LI?$LI?$KG?5@
CONST	SEGMENT
??_C@_0DB@MPLNGCGC@?$LF?$KF?$MA?L?E?M?$LK?$KD?$MA?L?$LN?$LK?$LP?$KB?$LM?$KN?5?$LP?C?$LJ?Y?$LI?$KF?5?A?$KE?$LK?$LI?$LI?$KG?5@ DB 0b5H
	DB	0a5H, 0c0H, 0ccH, 0c5H, 0cdH, 0baH, 0a3H, 0c0H, 0ccH, 0bdH, 0baH
	DB	0bfH, 0a1H, 0bcH, 0adH, ' ', 0bfH, 0c3H, 0b9H, 0d9H, 0b8H, 0a5H
	DB	' ', 0c1H, 0a4H, 0baH, 0b8H, 0b8H, 0a6H, ' ', 0b0H, 0a1H, 0c1H
	DB	0aeH, 0bfH, 0c3H, 0bcH, 0f6H, ' ', 0beH, 0f8H, 0bdH, 0c0H, 0b4H
	DB	0cfH, 0b4H, 0d9H, 00H			; `string'
CONST	ENDS
;	COMDAT ??_C@_0CC@NMDHOJLK@?$LF?$KF?$MA?L?E?M?5?$LM?$KN?$LJ?v?$LP?$KB?5?A?$KC?$LM?S?5?G?R?5?$LM?v?5?$LO?x?$LN?$MA?$LE?O@
CONST	SEGMENT
??_C@_0CC@NMDHOJLK@?$LF?$KF?$MA?L?E?M?5?$LM?$KN?$LJ?v?$LP?$KB?5?A?$KC?$LM?S?5?G?R?5?$LM?v?5?$LO?x?$LN?$MA?$LE?O@ DB 0b5H
	DB	0a5H, 0c0H, 0ccH, 0c5H, 0cdH, ' ', 0bcH, 0adH, 0b9H, 0f6H, 0bfH
	DB	0a1H, ' ', 0c1H, 0a2H, 0bcH, 0d3H, ' ', 0c7H, 0d2H, ' ', 0bcH, 0f6H
	DB	' ', 0beH, 0f8H, 0bdH, 0c0H, 0b4H, 0cfH, 0b4H, 0d9H, 00H ; `string'
CONST	ENDS
;	COMDAT ??_C@_0BH@KKDGIMOK@?C?$LM?E?$KJ?$MA?N?5?C?$LD?$LI?$KO?5?$LN?G?F?P?$CI1001?$CJ@
CONST	SEGMENT
??_C@_0BH@KKDGIMOK@?C?$LM?E?$KJ?$MA?N?5?C?$LD?$LI?$KO?5?$LN?G?F?P?$CI1001?$CJ@ DB 0c3H
	DB	0bcH, 0c5H, 0a9H, 0c0H, 0ceH, ' ', 0c3H, 0b3H, 0b8H, 0aeH, ' ', 0bdH
	DB	0c7H, 0c6H, 0d0H, '(1001)', 00H		; `string'
CONST	ENDS
;	COMDAT ??_C@_0BA@JFEMHLAM@?T?t?l?$PN?$DP?W?b?$DP?$DP?l?$KL?S?p?$KB?$KD@
CONST	SEGMENT
??_C@_0BA@JFEMHLAM@?T?t?l?$PN?$DP?W?b?$DP?$DP?l?$KL?S?p?$KB?$KD@ DB 0d4H, 0f4H
	DB	0ecH, 0fdH, '?', 0d7H, 0e2H, '??', 0ecH, 0abH, 0d3H, 0f0H, 0a1H
	DB	0a3H, 00H					; `string'
CONST	ENDS
;	COMDAT ??_C@_0BC@FPKFEPPA@?D?$LD?$LI?$KP?E?M?5?A?$KG?$MA?$NL?5?A?$NP?4?4?4@
CONST	SEGMENT
??_C@_0BC@FPKFEPPA@?D?$LD?$LI?$KP?E?M?5?A?$KG?$MA?$NL?5?A?$NP?4?4?4@ DB 0c4H
	DB	0b3H, 0b8H, 0afH, 0c5H, 0cdH, ' ', 0c1H, 0a6H, 0c0H, 0dbH, ' ', 0c1H
	DB	0dfH, '...', 00H				; `string'
CONST	ENDS
;	COMDAT ??_C@_0BI@JKLCAMPH@?C?b?$LN?E?A?v?$LI?$KG?5?$LM?$LB?E?C?G?O?$LN?J?$LN?C?$LP?$MA?$KB?$KD@
CONST	SEGMENT
??_C@_0BI@JKLCAMPH@?C?b?$LN?E?A?v?$LI?$KG?5?$LM?$LB?E?C?G?O?$LN?J?$LN?C?$LP?$MA?$KB?$KD@ DB 0c3H
	DB	0e2H, 0bdH, 0c5H, 0c1H, 0f6H, 0b8H, 0a6H, ' ', 0bcH, 0b1H, 0c5H
	DB	0c3H, 0c7H, 0cfH, 0bdH, 0caH, 0bdH, 0c3H, 0bfH, 0c0H, 0a1H, 0a3H
	DB	00H						; `string'
CONST	ENDS
;	COMDAT ??_C@_0BH@MIIMPKCJ@?$LM?$LG?5?$MA?$KH?$LP?$KB?5?A?v?$LO?n?A?$LD?$LN?$MA?$LE?O?$LE?Y?$KB?$KD@
CONST	SEGMENT
??_C@_0BH@MIIMPKCJ@?$LM?$LG?5?$MA?$KH?$LP?$KB?5?A?v?$LO?n?A?$LD?$LN?$MA?$LE?O?$LE?Y?$KB?$KD@ DB 0bcH
	DB	0b6H, ' ', 0c0H, 0a7H, 0bfH, 0a1H, ' ', 0c1H, 0f6H, 0beH, 0eeH
	DB	0c1H, 0b3H, 0bdH, 0c0H, 0b4H, 0cfH, 0b4H, 0d9H, 0a1H, 0a3H, 00H ; `string'
CONST	ENDS
;	COMDAT ??_C@_0BB@BHNBHDIA@?$LI?$LG?$MA?$LL?$MA?$LK?5?$MA?$NL?$MA?$LK?5?$LP?$KJ?$LH?$KP@
CONST	SEGMENT
??_C@_0BB@BHNBHDIA@?$LI?$LG?$MA?$LL?$MA?$LK?5?$MA?$NL?$MA?$LK?5?$LP?$KJ?$LH?$KP@ DB 0b8H
	DB	0b6H, 0c0H, 0bbH, 0c0H, 0baH, ' ', 0c0H, 0dbH, 0c0H, 0baH, ' ', 0bfH
	DB	0a9H, 0b7H, 0afH, 00H			; `string'
CONST	ENDS
;	COMDAT ??_C@_0CC@JHAOGAJO@?$LA?$KB?$LP?l?$LI?$LA?$MA?G?5?$LM?$KN?B?J?$LP?$KB?5?$MA?$KH?D?$KB?G?X?5?$MA?V?$LN?$MA?$LE?O?$LE?Y@
CONST	SEGMENT
??_C@_0CC@JHAOGAJO@?$LA?$KB?$LP?l?$LI?$LA?$MA?G?5?$LM?$KN?B?J?$LP?$KB?5?$MA?$KH?D?$KB?G?X?5?$MA?V?$LN?$MA?$LE?O?$LE?Y@ DB 0b0H
	DB	0a1H, 0bfH, 0ecH, 0b8H, 0b0H, 0c0H, 0c7H, ' ', 0bcH, 0adH, 0c2H
	DB	0caH, 0bfH, 0a1H, ' ', 0c0H, 0a7H, 0c4H, 0a1H, 0c7H, 0d8H, ' ', 0c0H
	DB	0d6H, 0bdH, 0c0H, 0b4H, 0cfH, 0b4H, 0d9H, 0a1H, 0a3H, 00H ; `string'
CONST	ENDS
;	COMDAT ??_C@_0BF@PENPANFK@?$LN?L?$LB?W?$LH?$KP?$LP?n?5?$LD?l?$LL?v?5?$LI?$LG?$MA?$LL?$KB?$KD@
CONST	SEGMENT
??_C@_0BF@PENPANFK@?$LN?L?$LB?W?$LH?$KP?$LP?n?5?$LD?l?$LL?v?5?$LI?$LG?$MA?$LL?$KB?$KD@ DB 0bdH
	DB	0ccH, 0b1H, 0d7H, 0b7H, 0afH, 0bfH, 0eeH, ' ', 0b3H, 0ecH, 0bbH
	DB	0f6H, ' ', 0b8H, 0b6H, 0c0H, 0bbH, 0a1H, 0a3H, 00H ; `string'
CONST	ENDS
;	COMDAT ??_C@_0BF@DLENCNEM@?$LN?$KD?$MA?$LI?$LH?N?5?$LF?Q?$LH?$KP?5?$LN?W?$LP?$KJ?$MA?V?$LE?B@
CONST	SEGMENT
??_C@_0BF@DLENCNEM@?$LN?$KD?$MA?$LI?$LH?N?5?$LF?Q?$LH?$KP?5?$LN?W?$LP?$KJ?$MA?V?$LE?B@ DB 0bdH
	DB	0a3H, 0c0H, 0b8H, 0b7H, 0ceH, ' ', 0b5H, 0d1H, 0b7H, 0afH, ' ', 0bdH
	DB	0d7H, 0bfH, 0a9H, 0c0H, 0d6H, 0b4H, 0c2H, 00H ; `string'
CONST	ENDS
;	COMDAT ??_C@_0CC@DMMCBILE@?$LA?$KB?$LP?l?$LI?$LA?$MA?G?5?$LF?$LP?B?J?$LP?$KB?5?$MA?$KH?D?$KB?G?X?5?$MA?V?$LN?$MA?$LE?O?$LE?Y@
CONST	SEGMENT
??_C@_0CC@DMMCBILE@?$LA?$KB?$LP?l?$LI?$LA?$MA?G?5?$LF?$LP?B?J?$LP?$KB?5?$MA?$KH?D?$KB?G?X?5?$MA?V?$LN?$MA?$LE?O?$LE?Y@ DB 0b0H
	DB	0a1H, 0bfH, 0ecH, 0b8H, 0b0H, 0c0H, 0c7H, ' ', 0b5H, 0bfH, 0c2H
	DB	0caH, 0bfH, 0a1H, ' ', 0c0H, 0a7H, 0c4H, 0a1H, 0c7H, 0d8H, ' ', 0c0H
	DB	0d6H, 0bdH, 0c0H, 0b4H, 0cfH, 0b4H, 0d9H, 0a3H, 0acH, 00H ; `string'
CONST	ENDS
;	COMDAT ??_C@_0CL@GOPLDOIL@?$LO?F?$LI?$KH?$LE?Y?$LP?n?5?G?X?$LK?$KP?$MA?$LL?5?$LJ?Y?$LG?s?$LK?$LI?$LA?m?5?$MA?V?$LE?B?5?$LI@
CONST	SEGMENT
??_C@_0CL@GOPLDOIL@?$LO?F?$LI?$KH?$LE?Y?$LP?n?5?G?X?$LK?$KP?$MA?$LL?5?$LJ?Y?$LG?s?$LK?$LI?$LA?m?5?$MA?V?$LE?B?5?$LI@ DB 0beH
	DB	0c6H, 0b8H, 0a7H, 0b4H, 0d9H, 0bfH, 0eeH, ' ', 0c7H, 0d8H, 0baH
	DB	0afH, 0c0H, 0bbH, ' ', 0b9H, 0d9H, 0b6H, 0f3H, 0baH, 0b8H, 0b0H
	DB	0edH, ' ', 0c0H, 0d6H, 0b4H, 0c2H, ' ', 0b8H, 0b6H, 0c0H, 0bbH
	DB	0c0H, 0d4H, 0b4H, 0cfH, 0b4H, 0d9H, 0a1H, 0a3H, 00H ; `string'
CONST	ENDS
;	COMDAT ??_C@_0CD@FJDMGMIM@?$LL?g?$MA?L?$LD?J?$LN?$LK?$MA?G?5?$LM?$KN?B?J?$LP?$KB?5?$MA?$KH?D?$KB?G?X?5?$MA?V?$LN?$MA?$LE?O@
CONST	SEGMENT
??_C@_0CD@FJDMGMIM@?$LL?g?$MA?L?$LD?J?$LN?$LK?$MA?G?5?$LM?$KN?B?J?$LP?$KB?5?$MA?$KH?D?$KB?G?X?5?$MA?V?$LN?$MA?$LE?O@ DB 0bbH
	DB	0e7H, 0c0H, 0ccH, 0b3H, 0caH, 0bdH, 0baH, 0c0H, 0c7H, ' ', 0bcH
	DB	0adH, 0c2H, 0caH, 0bfH, 0a1H, ' ', 0c0H, 0a7H, 0c4H, 0a1H, 0c7H
	DB	0d8H, ' ', 0c0H, 0d6H, 0bdH, 0c0H, 0b4H, 0cfH, 0b4H, 0d9H, '.', 00H ; `string'
CONST	ENDS
;	COMDAT ??_C@_0BO@BMBAEGNC@?$LG?G?G?Q?5?$LA?$KB?$MA?e?5?A?z?$LM?$KN?$MA?V?$LE?B?5?$LI?$LG?$MA?$LL?$MA?L?$LE?Y?$KB?$KD@
CONST	SEGMENT
??_C@_0BO@BMBAEGNC@?$LG?G?G?Q?5?$LA?$KB?$MA?e?5?A?z?$LM?$KN?$MA?V?$LE?B?5?$LI?$LG?$MA?$LL?$MA?L?$LE?Y?$KB?$KD@ DB 0b6H
	DB	0c7H, 0c7H, 0d1H, ' ', 0b0H, 0a1H, 0c0H, 0e5H, ' ', 0c1H, 0faH
	DB	0bcH, 0adH, 0c0H, 0d6H, 0b4H, 0c2H, ' ', 0b8H, 0b6H, 0c0H, 0bbH
	DB	0c0H, 0ccH, 0b4H, 0d9H, 0a1H, 0a3H, 00H	; `string'
CONST	ENDS
;	COMDAT ??_C@_0BI@IHPDPOHC@4?$LA?$LD?5?$LI?$LG?$MA?$LL?A?$NP?5?$LA?$KB?$MA?e?5?E?$KO?$LE?O?$LE?Y?4@
CONST	SEGMENT
??_C@_0BI@IHPDPOHC@4?$LA?$LD?5?$LI?$LG?$MA?$LL?A?$NP?5?$LA?$KB?$MA?e?5?E?$KO?$LE?O?$LE?Y?4@ DB '4'
	DB	0b0H, 0b3H, ' ', 0b8H, 0b6H, 0c0H, 0bbH, 0c1H, 0dfH, ' ', 0b0H
	DB	0a1H, 0c0H, 0e5H, ' ', 0c5H, 0aeH, 0b4H, 0cfH, 0b4H, 0d9H, '.', 00H ; `string'
CONST	ENDS
;	COMDAT ??_C@_0CD@OGPAGALA@?$LL?g?$MA?L?$LD?J?$LN?$LK?$MA?G?5?$LF?$LP?B?J?$LP?$KB?5?$MA?$KH?D?$KB?G?X?5?$MA?V?$LN?$MA?$LE?O@
CONST	SEGMENT
??_C@_0CD@OGPAGALA@?$LL?g?$MA?L?$LD?J?$LN?$LK?$MA?G?5?$LF?$LP?B?J?$LP?$KB?5?$MA?$KH?D?$KB?G?X?5?$MA?V?$LN?$MA?$LE?O@ DB 0bbH
	DB	0e7H, 0c0H, 0ccH, 0b3H, 0caH, 0bdH, 0baH, 0c0H, 0c7H, ' ', 0b5H
	DB	0bfH, 0c2H, 0caH, 0bfH, 0a1H, ' ', 0c0H, 0a7H, 0c4H, 0a1H, 0c7H
	DB	0d8H, ' ', 0c0H, 0d6H, 0bdH, 0c0H, 0b4H, 0cfH, 0b4H, 0d9H, '.', 00H ; `string'
CONST	ENDS
;	COMDAT ??_C@_0O@FAJDIKKM@?D?$KL?$LH?g?E?$LI?$LD?$KK?5?$LI?$LG?$MA?$LL@
CONST	SEGMENT
??_C@_0O@FAJDIKKM@?D?$KL?$LH?g?E?$LI?$LD?$KK?5?$LI?$LG?$MA?$LL@ DB 0c4H, 0abH
	DB	0b7H, 0e7H, 0c5H, 0b8H, 0b3H, 0aaH, ' ', 0b8H, 0b6H, 0c0H, 0bbH
	DB	00H						; `string'
CONST	ENDS
;	COMDAT ??_C@_09GFHIJBMK@?$MA?p?$MA?p?5?$LI?$LG?$MA?$LL@
CONST	SEGMENT
??_C@_09GFHIJBMK@?$MA?p?$MA?p?5?$LI?$LG?$MA?$LL@ DB 0c0H, 0f0H, 0c0H, 0f0H
	DB	' ', 0b8H, 0b6H, 0c0H, 0bbH, 00H		; `string'
CONST	ENDS
;	COMDAT ??_C@_0O@OLOFEGAL@?$LI?$LG?$LI?$KO?$LD?J?$LN?$LK?5?$LI?$LG?$MA?$LL@
CONST	SEGMENT
??_C@_0O@OLOFEGAL@?$LI?$LG?$LI?$KO?$LD?J?$LN?$LK?5?$LI?$LG?$MA?$LL@ DB 0b8H
	DB	0b6H, 0b8H, 0aeH, 0b3H, 0caH, 0bdH, 0baH, ' ', 0b8H, 0b6H, 0c0H
	DB	0bbH, 00H					; `string'
CONST	ENDS
;	COMDAT ??_C@_0M@DLFCBPCC@?$LM?$KE?$LB?b?$LI?$KD?5?$LI?$LG?$MA?$LL@
CONST	SEGMENT
??_C@_0M@DLFCBPCC@?$LM?$KE?$LB?b?$LI?$KD?5?$LI?$LG?$MA?$LL@ DB 0bcH, 0a4H
	DB	0b1H, 0e2H, 0b8H, 0a3H, ' ', 0b8H, 0b6H, 0c0H, 0bbH, 00H ; `string'
CONST	ENDS
;	COMDAT ?btnId@?1??selHomeTown@@YAHXZ@4PAHA
_DATA	SEGMENT
?btnId@?1??selHomeTown@@YAHXZ@4PAHA DD 0fffffffeH	; `selHomeTown'::`2'::btnId
	DD	0fffffffeH
	DD	0fffffffeH
	DD	0fffffffeH
	DD	0fffffffeH
_DATA	ENDS
;	COMDAT ??_C@_0CF@JDHEEBNC@?$MA?L?$LI?$KH?0?5?$LO?s?$LB?$LM?0?5?$LB?b?$LK?$LL?5?$LL?s?E?B?5?$LJ?W?5?$LM?S?$LM?$LK?5?$LM@
CONST	SEGMENT
??_C@_0CF@JDHEEBNC@?$MA?L?$LI?$KH?0?5?$LO?s?$LB?$LM?0?5?$LB?b?$LK?$LL?5?$LL?s?E?B?5?$LJ?W?5?$LM?S?$LM?$LK?5?$LM@ DB 0c0H
	DB	0ccH, 0b8H, 0a7H, ', ', 0beH, 0f3H, 0b1H, 0bcH, ', ', 0b1H, 0e2H
	DB	0baH, 0bbH, ' ', 0bbH, 0f3H, 0c5H, 0c2H, ' ', 0b9H, 0d7H, ' ', 0bcH
	DB	0d3H, 0bcH, 0baH, ' ', 0bcH, 0b3H, 0c1H, 0a4H, 0a1H, 0a3H, 00H ; `string'
CONST	ENDS
;	COMDAT ??_C@_0P@LMMJJHJP@?$MA?T?5?$LI?p?$LO?g?5?$LK?$KP?$LA?f?$KB?$KD@
CONST	SEGMENT
??_C@_0P@LMMJJHJP@?$MA?T?5?$LI?p?$LO?g?5?$LK?$KP?$LA?f?$KB?$KD@ DB 0c0H, 0d4H
	DB	' ', 0b8H, 0f0H, 0beH, 0e7H, ' ', 0baH, 0afH, 0b0H, 0e6H, 0a1H
	DB	0a3H, 00H					; `string'
CONST	ENDS
;	COMDAT ??_C@_0P@PNCOKHHM@?D?Z?5?$LI?p?$LO?g?5?$LK?$KP?$LA?f?$KB?$KD@
CONST	SEGMENT
??_C@_0P@PNCOKHHM@?D?Z?5?$LI?p?$LO?g?5?$LK?$KP?$LA?f?$KB?$KD@ DB 0c4H, 0daH
	DB	' ', 0b8H, 0f0H, 0beH, 0e7H, ' ', 0baH, 0afH, 0b0H, 0e6H, 0a1H
	DB	0a3H, 00H					; `string'
CONST	ENDS
;	COMDAT ??_C@_0P@IMBCCPOD@?$LE?$KL?5?$LI?p?$LO?g?5?$LK?$KP?$LA?f?$KB?$KD@
CONST	SEGMENT
??_C@_0P@IMBCCPOD@?$LE?$KL?5?$LI?p?$LO?g?5?$LK?$KP?$LA?f?$KB?$KD@ DB 0b4H
	DB	0abH, ' ', 0b8H, 0f0H, 0beH, 0e7H, ' ', 0baH, 0afH, 0b0H, 0e6H
	DB	0a1H, 0a3H, 00H				; `string'
CONST	ENDS
;	COMDAT ??_C@_0DC@HDKFGPCM@?G?$LD?$LM?S?$LM?$LK?$KB?$KD?A?v?$LM?S?$LM?$LK?$MA?G?5?$LL?s?$LE?k?$LP?M?5?$LN?N?$LP?o?5?$LG?$KH@
CONST	SEGMENT
??_C@_0DC@HDKFGPCM@?G?$LD?$LM?S?$LM?$LK?$KB?$KD?A?v?$LM?S?$LM?$LK?$MA?G?5?$LL?s?$LE?k?$LP?M?5?$LN?N?$LP?o?5?$LG?$KH@ DB 0c7H
	DB	0b3H, 0bcH, 0d3H, 0bcH, 0baH, 0a1H, 0a3H, 0c1H, 0f6H, 0bcH, 0d3H
	DB	0bcH, 0baH, 0c0H, 0c7H, ' ', 0bbH, 0f3H, 0b4H, 0ebH, 0bfH, 0cdH
	DB	' ', 0bdH, 0ceH, 0bfH, 0efH, ' ', 0b6H, 0a7H, ' ', 0b4H, 0f5H, 0bfH
	DB	0edH, ' ', 0c0H, 0afH, 0b8H, 0aeH, 0c7H, 0d5H, 0b4H, 0cfH, 0b4H
	DB	0d9H, 0a1H, 0a3H, 00H			; `string'
CONST	ENDS
;	COMDAT ??_C@_0DC@DBHNIFJM@?H?$KN?$LM?S?$LM?$LK?$KB?$KD?G?$LD?$LM?S?$LM?$LK?$MA?G?5?$LL?s?$LE?k?$LP?M?5?$LN?N?$LP?o?5?$LG?$KH@
CONST	SEGMENT
??_C@_0DC@DBHNIFJM@?H?$KN?$LM?S?$LM?$LK?$KB?$KD?G?$LD?$LM?S?$LM?$LK?$MA?G?5?$LL?s?$LE?k?$LP?M?5?$LN?N?$LP?o?5?$LG?$KH@ DB 0c8H
	DB	0adH, 0bcH, 0d3H, 0bcH, 0baH, 0a1H, 0a3H, 0c7H, 0b3H, 0bcH, 0d3H
	DB	0bcH, 0baH, 0c0H, 0c7H, ' ', 0bbH, 0f3H, 0b4H, 0ebH, 0bfH, 0cdH
	DB	' ', 0bdH, 0ceH, 0bfH, 0efH, ' ', 0b6H, 0a7H, ' ', 0b4H, 0f5H, 0bfH
	DB	0edH, ' ', 0c0H, 0afH, 0b8H, 0aeH, 0c7H, 0d5H, 0b4H, 0cfH, 0b4H
	DB	0d9H, 0a1H, 0a3H, 00H			; `string'
CONST	ENDS
;	COMDAT ??_C@_0DC@EIPOCBIG@?$LM?v?$LM?S?$LM?$LK?$KB?$KD?H?$KN?$LM?S?$LM?$LK?$MA?G?5?$LL?s?$LE?k?$LP?M?5?$LN?N?$LP?o?5?$LG?$KH@
CONST	SEGMENT
??_C@_0DC@EIPOCBIG@?$LM?v?$LM?S?$LM?$LK?$KB?$KD?H?$KN?$LM?S?$LM?$LK?$MA?G?5?$LL?s?$LE?k?$LP?M?5?$LN?N?$LP?o?5?$LG?$KH@ DB 0bcH
	DB	0f6H, 0bcH, 0d3H, 0bcH, 0baH, 0a1H, 0a3H, 0c8H, 0adH, 0bcH, 0d3H
	DB	0bcH, 0baH, 0c0H, 0c7H, ' ', 0bbH, 0f3H, 0b4H, 0ebH, 0bfH, 0cdH
	DB	' ', 0bdH, 0ceH, 0bfH, 0efH, ' ', 0b6H, 0a7H, ' ', 0b4H, 0f5H, 0bfH
	DB	0edH, ' ', 0c0H, 0afH, 0b8H, 0aeH, 0c7H, 0d5H, 0b4H, 0cfH, 0b4H
	DB	0d9H, 0a1H, 0a3H, 00H			; `string'
CONST	ENDS
;	COMDAT ??_C@_0DC@DFHCGCAL@?A?v?$LM?S?$LM?$LK?$KB?$KD?$LM?v?$LM?S?$LM?$LK?$MA?G?5?$LL?s?$LE?k?$LP?M?5?$LN?N?$LP?o?5?$LG?$KH@
CONST	SEGMENT
??_C@_0DC@DFHCGCAL@?A?v?$LM?S?$LM?$LK?$KB?$KD?$LM?v?$LM?S?$LM?$LK?$MA?G?5?$LL?s?$LE?k?$LP?M?5?$LN?N?$LP?o?5?$LG?$KH@ DB 0c1H
	DB	0f6H, 0bcH, 0d3H, 0bcH, 0baH, 0a1H, 0a3H, 0bcH, 0f6H, 0bcH, 0d3H
	DB	0bcH, 0baH, 0c0H, 0c7H, ' ', 0bbH, 0f3H, 0b4H, 0ebH, 0bfH, 0cdH
	DB	' ', 0bdH, 0ceH, 0bfH, 0efH, ' ', 0b6H, 0a7H, ' ', 0b4H, 0f5H, 0bfH
	DB	0edH, ' ', 0c0H, 0afH, 0b8H, 0aeH, 0c7H, 0d5H, 0b4H, 0cfH, 0b4H
	DB	0d9H, 0a1H, 0a3H, 00H			; `string'
CONST	ENDS
;	COMDAT ??_C@_0DA@OOLAIOAA@?$MA?L?G?W?$LI?q?$MA?$LK?5?A?V?$LH?N?5?$LM?x?$LJ?$NP?$LH?B?$LA?z?5?$LA?$PM?$LH?C?$MA?L?5?$LA@
CONST	SEGMENT
??_C@_0DA@OOLAIOAA@?$MA?L?G?W?$LI?q?$MA?$LK?5?A?V?$LH?N?5?$LM?x?$LJ?$NP?$LH?B?$LA?z?5?$LA?$PM?$LH?C?$MA?L?5?$LA@ DB 0c0H
	DB	0ccH, 0c7H, 0d7H, 0b8H, 0f1H, 0c0H, 0baH, ' ', 0c1H, 0d6H, 0b7H
	DB	0ceH, ' ', 0bcH, 0f8H, 0b9H, 0dfH, 0b7H, 0c2H, 0b0H, 0faH, ' ', 0b0H
	DB	0fcH, 0b7H, 0c3H, 0c0H, 0ccH, ' ', 0b0H, 0fcH, 0b7H, 0c3H, 0c0H
	DB	0ccH, ' ', 0c0H, 0d6H, 0bdH, 0c0H, 0b4H, 0cfH, 0b4H, 0d9H, 0a1H
	DB	0a3H, 00H					; `string'
CONST	ENDS
;	COMDAT ??_C@_0CJ@PBMHJDKK@?$MA?L?G?W?$LI?q?$MA?$LK?5?A?V?$LH?N?5?$LJ?f?$LO?n?$LH?B?$LA?z?5?$LA?$PM?$LH?C?$MA?L?5?$MA@
CONST	SEGMENT
??_C@_0CJ@PBMHJDKK@?$MA?L?G?W?$LI?q?$MA?$LK?5?A?V?$LH?N?5?$LJ?f?$LO?n?$LH?B?$LA?z?5?$LA?$PM?$LH?C?$MA?L?5?$MA@ DB 0c0H
	DB	0ccH, 0c7H, 0d7H, 0b8H, 0f1H, 0c0H, 0baH, ' ', 0c1H, 0d6H, 0b7H
	DB	0ceH, ' ', 0b9H, 0e6H, 0beH, 0eeH, 0b7H, 0c2H, 0b0H, 0faH, ' ', 0b0H
	DB	0fcH, 0b7H, 0c3H, 0c0H, 0ccH, ' ', 0c0H, 0d6H, 0bdH, 0c0H, 0b4H
	DB	0cfH, 0b4H, 0d9H, 0a1H, 0a3H, 00H		; `string'
CONST	ENDS
;	COMDAT ??_C@_0CJ@DBPCCGK@?$MA?L?G?W?$LI?q?$MA?$LK?5?A?V?$LH?N?5?$LA?x?$LA?$NN?$LH?B?$LA?z?5?$LA?$PM?$LH?C?$MA?L?5?$MA@
CONST	SEGMENT
??_C@_0CJ@DBPCCGK@?$MA?L?G?W?$LI?q?$MA?$LK?5?A?V?$LH?N?5?$LA?x?$LA?$NN?$LH?B?$LA?z?5?$LA?$PM?$LH?C?$MA?L?5?$MA@ DB 0c0H
	DB	0ccH, 0c7H, 0d7H, 0b8H, 0f1H, 0c0H, 0baH, ' ', 0c1H, 0d6H, 0b7H
	DB	0ceH, ' ', 0b0H, 0f8H, 0b0H, 0ddH, 0b7H, 0c2H, 0b0H, 0faH, ' ', 0b0H
	DB	0fcH, 0b7H, 0c3H, 0c0H, 0ccH, ' ', 0c0H, 0d6H, 0bdH, 0c0H, 0b4H
	DB	0cfH, 0b4H, 0d9H, 0a1H, 0a3H, 00H		; `string'
CONST	ENDS
;	COMDAT ??_C@_0CK@EACHLIEL@?$MA?L?5?G?W?$LI?q?$MA?$LK?5?A?V?$LH?N?5?$LD?$LL?$LB?$LI?$LH?B?$LA?z?5?$LA?$PM?$LH?C?$MA?L?5@
CONST	SEGMENT
??_C@_0CK@EACHLIEL@?$MA?L?5?G?W?$LI?q?$MA?$LK?5?A?V?$LH?N?5?$LD?$LL?$LB?$LI?$LH?B?$LA?z?5?$LA?$PM?$LH?C?$MA?L?5@ DB 0c0H
	DB	0ccH, ' ', 0c7H, 0d7H, 0b8H, 0f1H, 0c0H, 0baH, ' ', 0c1H, 0d6H
	DB	0b7H, 0ceH, ' ', 0b3H, 0bbH, 0b1H, 0b8H, 0b7H, 0c2H, 0b0H, 0faH
	DB	' ', 0b0H, 0fcH, 0b7H, 0c3H, 0c0H, 0ccH, ' ', 0c0H, 0d6H, 0bdH
	DB	0c0H, 0b4H, 0cfH, 0b4H, 0d9H, 0a1H, 0a3H, 00H ; `string'
CONST	ENDS
;	COMDAT ??_C@_0BL@DBMJLOIN@?D?$LD?$LI?$KP?E?M?5?$LM?$LD?A?$KE?$MA?$LL?5?$LA?a?A?$KE?G?U?$LE?O?$LE?Y?$KB?$KD@
CONST	SEGMENT
??_C@_0BL@DBMJLOIN@?D?$LD?$LI?$KP?E?M?5?$LM?$LD?A?$KE?$MA?$LL?5?$LA?a?A?$KE?G?U?$LE?O?$LE?Y?$KB?$KD@ DB 0c4H
	DB	0b3H, 0b8H, 0afH, 0c5H, 0cdH, ' ', 0bcH, 0b3H, 0c1H, 0a4H, 0c0H
	DB	0bbH, ' ', 0b0H, 0e1H, 0c1H, 0a4H, 0c7H, 0d5H, 0b4H, 0cfH, 0b4H
	DB	0d9H, 0a1H, 0a3H, 00H			; `string'
CONST	ENDS
;	COMDAT ??_C@_0DJ@CMGKIMKM@?$MA?T?$LH?B?G?Q?5?$MA?L?$LI?$KH?$LP?$KB?$LE?B?5?G?c?$LP?k?$LF?G?A?v?5?$LO?J?$LE?B?5?$LJ@
CONST	SEGMENT
??_C@_0DJ@CMGKIMKM@?$MA?T?$LH?B?G?Q?5?$MA?L?$LI?$KH?$LP?$KB?$LE?B?5?G?c?$LP?k?$LF?G?A?v?5?$LO?J?$LE?B?5?$LJ@ DB 0c0H
	DB	0d4H, 0b7H, 0c2H, 0c7H, 0d1H, ' ', 0c0H, 0ccH, 0b8H, 0a7H, 0bfH
	DB	0a1H, 0b4H, 0c2H, ' ', 0c7H, 0e3H, 0bfH, 0ebH, 0b5H, 0c7H, 0c1H
	DB	0f6H, ' ', 0beH, 0caH, 0b4H, 0c2H, ' ', 0b9H, 0aeH, 0c0H, 0daH
	DB	0b0H, 0a1H, ' ', 0c6H, 0f7H, 0c7H, 0d4H, 0b5H, 0c7H, 0beH, 0eeH
	DB	' ', 0c0H, 0d6H, 0bdH, 0c0H, 0b4H, 0cfH, 0b4H, 0d9H, 0a3H, 0a1H
	DB	00H						; `string'
CONST	ENDS
;	COMDAT ??_C@_0BO@DBBPEHG@?$MA?L?$LI?$KH?$LP?$KB?5?$LA?x?$LJ?i?$MA?$LL?5?$LF?Q?$LM?v?5?$LO?x?$LN?$MA?$LE?O?$LE?Y?$KD?$KB@
CONST	SEGMENT
??_C@_0BO@DBBPEHG@?$MA?L?$LI?$KH?$LP?$KB?5?$LA?x?$LJ?i?$MA?$LL?5?$LF?Q?$LM?v?5?$LO?x?$LN?$MA?$LE?O?$LE?Y?$KD?$KB@ DB 0c0H
	DB	0ccH, 0b8H, 0a7H, 0bfH, 0a1H, ' ', 0b0H, 0f8H, 0b9H, 0e9H, 0c0H
	DB	0bbH, ' ', 0b5H, 0d1H, 0bcH, 0f6H, ' ', 0beH, 0f8H, 0bdH, 0c0H
	DB	0b4H, 0cfH, 0b4H, 0d9H, 0a3H, 0a1H, 00H	; `string'
CONST	ENDS
;	COMDAT ??_C@_0CE@IAICGILF@?$LM?S?$LM?$LK?D?$KB?$CI?1?F?w?$MA?N?F?$KO?$CJ?$LI?$KG?5?$LK?P?$LJ?h?5?$LP?O?$LH?a?G?O?$LM?$LM@
CONST	SEGMENT
??_C@_0CE@IAICGILF@?$LM?S?$LM?$LK?D?$KB?$CI?1?F?w?$MA?N?F?$KO?$CJ?$LI?$KG?5?$LK?P?$LJ?h?5?$LP?O?$LH?a?G?O?$LM?$LM@ DB 0bcH
	DB	0d3H, 0bcH, 0baH, 0c4H, 0a1H, '(/', 0c6H, 0f7H, 0c0H, 0ceH, 0c6H
	DB	0aeH, ')', 0b8H, 0a6H, ' ', 0baH, 0d0H, 0b9H, 0e8H, ' ', 0bfH, 0cfH
	DB	0b7H, 0e1H, 0c7H, 0cfH, 0bcH, 0bcH, 0bfH, 0e4H, 0a3H, 0a1H, 00H ; `string'
CONST	ENDS
;	COMDAT ??_C@_0CA@HJHEICBF@?$LL?s?E?B?5?F?w?$MA?N?F?$KO?$LI?$KG?5?$LK?P?$LJ?h?5?$LP?O?$LH?a?G?O?$LM?$LM?$LP?d?$KD?$KB@
CONST	SEGMENT
??_C@_0CA@HJHEICBF@?$LL?s?E?B?5?F?w?$MA?N?F?$KO?$LI?$KG?5?$LK?P?$LJ?h?5?$LP?O?$LH?a?G?O?$LM?$LM?$LP?d?$KD?$KB@ DB 0bbH
	DB	0f3H, 0c5H, 0c2H, ' ', 0c6H, 0f7H, 0c0H, 0ceH, 0c6H, 0aeH, 0b8H
	DB	0a6H, ' ', 0baH, 0d0H, 0b9H, 0e8H, ' ', 0bfH, 0cfH, 0b7H, 0e1H
	DB	0c7H, 0cfH, 0bcH, 0bcH, 0bfH, 0e4H, 0a3H, 0a1H, 00H ; `string'
CONST	ENDS
;	COMDAT ??_C@_0CH@NAEAKGPD@?$LA?$LA?$MA?$LK?5?$MA?L?$LI?$KH?$MA?G?5?D?$LD?$LI?$KP?E?M?$LA?$KB?5?$MA?L?$LJ?L?5?A?$LI?$MA?g?G@
CONST	SEGMENT
??_C@_0CH@NAEAKGPD@?$LA?$LA?$MA?$LK?5?$MA?L?$LI?$KH?$MA?G?5?D?$LD?$LI?$KP?E?M?$LA?$KB?5?$MA?L?$LJ?L?5?A?$LI?$MA?g?G@ DB 0b0H
	DB	0b0H, 0c0H, 0baH, ' ', 0c0H, 0ccH, 0b8H, 0a7H, 0c0H, 0c7H, ' ', 0c4H
	DB	0b3H, 0b8H, 0afH, 0c5H, 0cdH, 0b0H, 0a1H, ' ', 0c0H, 0ccH, 0b9H
	DB	0ccH, ' ', 0c1H, 0b8H, 0c0H, 0e7H, 0c7H, 0d5H, 0b4H, 0cfH, 0b4H
	DB	0d9H, 0a3H, 0a1H, 00H			; `string'
CONST	ENDS
;	COMDAT ??_C@_0BN@MICBHKJB@?$MA?L?$LI?$KH?$MA?$LL?5?$MA?T?$LH?B?G?O?A?v?5?$LO?J?$LO?R?$LN?$MA?$LE?O?$LE?Y?$KD?$KB@
CONST	SEGMENT
??_C@_0BN@MICBHKJB@?$MA?L?$LI?$KH?$MA?$LL?5?$MA?T?$LH?B?G?O?A?v?5?$LO?J?$LO?R?$LN?$MA?$LE?O?$LE?Y?$KD?$KB@ DB 0c0H
	DB	0ccH, 0b8H, 0a7H, 0c0H, 0bbH, ' ', 0c0H, 0d4H, 0b7H, 0c2H, 0c7H
	DB	0cfH, 0c1H, 0f6H, ' ', 0beH, 0caH, 0beH, 0d2H, 0bdH, 0c0H, 0b4H
	DB	0cfH, 0b4H, 0d9H, 0a3H, 0a1H, 00H		; `string'
CONST	ENDS
;	COMDAT ??_C@_02KNHHEEKP@?5?5@
CONST	SEGMENT
??_C@_02KNHHEEKP@?5?5@ DB '  ', 00H			; `string'
CONST	ENDS
;	COMDAT ??_C@_01CLKCMJKC@?5@
CONST	SEGMENT
??_C@_01CLKCMJKC@?5@ DB ' ', 00H			; `string'
CONST	ENDS
;	COMDAT ?graId@?1??editCharParam@@YAHXZ@4PAHA
_DATA	SEGMENT
?graId@?1??editCharParam@@YAHXZ@4PAHA DD 0fffffffeH	; `editCharParam'::`2'::graId
	DD	0fffffffeH
	DD	0fffffffeH
	DD	0fffffffeH
	DD	0fffffffeH
	DD	0fffffffeH
	DD	0fffffffeH
	DD	0fffffffeH
	DD	0fffffffeH
	DD	0fffffffeH
	DD	0fffffffeH
	DD	0fffffffeH
	DD	0fffffffeH
	DD	0fffffffeH
	DD	0fffffffeH
	DD	0fffffffeH
	DD	0fffffffeH
	DD	0fffffffeH
	DD	0fffffffeH
	DD	0fffffffeH
	DD	0fffffffeH
	DD	0fffffffeH
_DATA	ENDS
;	COMDAT ??_C@_0BN@JACDIIAG@?D?$LD?$LI?$KP?E?M?$LM?$LB?E?C?H?$KN?$LI?i?$MA?$LI?$LH?N?$LF?$LJ?$LO?F?$LA?$KB?$LB?b?$KB?$KD@
CONST	SEGMENT
??_C@_0BN@JACDIIAG@?D?$LD?$LI?$KP?E?M?$LM?$LB?E?C?H?$KN?$LI?i?$MA?$LI?$LH?N?$LF?$LJ?$LO?F?$LA?$KB?$LB?b?$KB?$KD@ DB 0c4H
	DB	0b3H, 0b8H, 0afH, 0c5H, 0cdH, 0bcH, 0b1H, 0c5H, 0c3H, 0c8H, 0adH
	DB	0b8H, 0e9H, 0c0H, 0b8H, 0b7H, 0ceH, 0b5H, 0b9H, 0beH, 0c6H, 0b0H
	DB	0a1H, 0b1H, 0e2H, 0a1H, 0a3H, 00H		; `string'
CONST	ENDS
;	COMDAT ??_C@_0BB@IBMPLOHE@?D?$LD?$LI?$KP?E?M?$LJ?f?G?b?$MA?$PM?H?$KP?$KB?$KD@
CONST	SEGMENT
??_C@_0BB@IBMPLOHE@?D?$LD?$LI?$KP?E?M?$LJ?f?G?b?$MA?$PM?H?$KP?$KB?$KD@ DB 0c4H
	DB	0b3H, 0b8H, 0afH, 0c5H, 0cdH, 0b9H, 0e6H, 0c7H, 0e2H, 0c0H, 0fcH
	DB	0c8H, 0afH, 0a1H, 0a3H, 00H			; `string'
CONST	ENDS
;	COMDAT ??_C@_0BD@GLGANICJ@?D?$LD?$LI?$KP?E?M?5?$LL?v?$LL?s?5?$LK?$KP?$LA?f?$KB?$KD@
CONST	SEGMENT
??_C@_0BD@GLGANICJ@?D?$LD?$LI?$KP?E?M?5?$LL?v?$LL?s?5?$LK?$KP?$LA?f?$KB?$KD@ DB 0c4H
	DB	0b3H, 0b8H, 0afH, 0c5H, 0cdH, ' ', 0bbH, 0f6H, 0bbH, 0f3H, ' ', 0baH
	DB	0afH, 0b0H, 0e6H, 0a1H, 0a3H, 00H		; `string'
CONST	ENDS
;	COMDAT ??_C@_0CC@NKOCBMEN@?G?v?$MA?g?5?$LM?$LB?E?C?G?Q?5?D?$LD?$LI?$KP?E?M?$LH?N?5?$LA?a?A?$KE?G?U?$LE?O?$LE?Y@
CONST	SEGMENT
??_C@_0CC@NKOCBMEN@?G?v?$MA?g?5?$LM?$LB?E?C?G?Q?5?D?$LD?$LI?$KP?E?M?$LH?N?5?$LA?a?A?$KE?G?U?$LE?O?$LE?Y@ DB 0c7H
	DB	0f6H, 0c0H, 0e7H, ' ', 0bcH, 0b1H, 0c5H, 0c3H, 0c7H, 0d1H, ' ', 0c4H
	DB	0b3H, 0b8H, 0afH, 0c5H, 0cdH, 0b7H, 0ceH, ' ', 0b0H, 0e1H, 0c1H
	DB	0a4H, 0c7H, 0d5H, 0b4H, 0cfH, 0b4H, 0d9H, 0a1H, 0a3H, 00H ; `string'
CONST	ENDS
;	COMDAT ??_C@_0L@LJAAMAMF@?5?5?5?C?k?$LM?R?5?5?5@
CONST	SEGMENT
??_C@_0L@LJAAMAMF@?5?5?5?C?k?$LM?R?5?5?5@ DB '   ', 0c3H, 0ebH, 0bcH, 0d2H
	DB	'   ', 00H					; `string'
CONST	ENDS
;	COMDAT ??_C@_0L@KFACDLLI@?5?$LJ?f?G?b?$MA?$PM?H?$KP?5@
CONST	SEGMENT
??_C@_0L@KFACDLLI@?5?$LJ?f?G?b?$MA?$PM?H?$KP?5@ DB ' ', 0b9H, 0e6H, 0c7H, 0e2H
	DB	0c0H, 0fcH, 0c8H, 0afH, ' ', 00H		; `string'
CONST	ENDS
;	COMDAT ??_C@_0L@DDKLBPNB@?5?$LL?v?$LL?s?$LK?$KP?$LA?f?5@
CONST	SEGMENT
??_C@_0L@DDKLBPNB@?5?$LL?v?$LL?s?$LK?$KP?$LA?f?5@ DB ' ', 0bbH, 0f6H, 0bbH
	DB	0f3H, 0baH, 0afH, 0b0H, 0e6H, ' ', 00H	; `string'
CONST	ENDS
;	COMDAT ??_C@_0L@POIBACII@?5?5?5?$LA?a?A?$KE?5?5?5@
CONST	SEGMENT
??_C@_0L@POIBACII@?5?5?5?$LA?a?A?$KE?5?5?5@ DB '   ', 0b0H, 0e1H, 0c1H, 0a4H
	DB	'   ', 00H					; `string'
CONST	ENDS
;	COMDAT ?fontId@?1??selCharGraColorWin@@YAHXZ@4PAHA
_DATA	SEGMENT
?fontId@?1??selCharGraColorWin@@YAHXZ@4PAHA DD 0fffffffeH ; `selCharGraColorWin'::`2'::fontId
	DD	0fffffffeH
	DD	0fffffffeH
	DD	0fffffffeH
_DATA	ENDS
;	COMDAT ??_C@_0BG@OIHOGAMJ@?D?$LD?$LI?$KP?E?M?$LI?$KG?5?$LM?$LB?E?C?G?O?$LM?$LM?$LP?d?$KB?$KD@
CONST	SEGMENT
??_C@_0BG@OIHOGAMJ@?D?$LD?$LI?$KP?E?M?$LI?$KG?5?$LM?$LB?E?C?G?O?$LM?$LM?$LP?d?$KB?$KD@ DB 0c4H
	DB	0b3H, 0b8H, 0afH, 0c5H, 0cdH, 0b8H, 0a6H, ' ', 0bcH, 0b1H, 0c5H
	DB	0c3H, 0c7H, 0cfH, 0bcH, 0bcH, 0bfH, 0e4H, 0a1H, 0a3H, 00H ; `string'
CONST	ENDS
;	COMDAT ??_C@_0BI@KIAMPJKG@?$MA?L?$MA?$PM?H?$KN?$LI?i?$MA?$LI?$LH?N?5?$LF?$LJ?$LO?F?$LA?$KB?$LB?b?$KB?$KD@
CONST	SEGMENT
??_C@_0BI@KIAMPJKG@?$MA?L?$MA?$PM?H?$KN?$LI?i?$MA?$LI?$LH?N?5?$LF?$LJ?$LO?F?$LA?$KB?$LB?b?$KB?$KD@ DB 0c0H
	DB	0ccH, 0c0H, 0fcH, 0c8H, 0adH, 0b8H, 0e9H, 0c0H, 0b8H, 0b7H, 0ceH
	DB	' ', 0b5H, 0b9H, 0beH, 0c6H, 0b0H, 0a1H, 0b1H, 0e2H, 0a1H, 0a3H
	DB	00H						; `string'
CONST	ENDS
;	COMDAT ?selCharCanselGraId@?1??selCharGraNo@@YAHXZ@4PAHA
_DATA	SEGMENT
?selCharCanselGraId@?1??selCharGraNo@@YAHXZ@4PAHA DD 0fffffffeH ; `selCharGraNo'::`2'::selCharCanselGraId
_DATA	ENDS
;	COMDAT ??_C@_0BB@JNLGIAPP@?D?$LD?$LI?$KP?E?M?$LL?$PN?$LM?$LK?$LN?G?F?P?$KB?$KD@
CONST	SEGMENT
??_C@_0BB@JNLGIAPP@?D?$LD?$LI?$KP?E?M?$LL?$PN?$LM?$LK?$LN?G?F?P?$KB?$KD@ DB 0c4H
	DB	0b3H, 0b8H, 0afH, 0c5H, 0cdH, 0bbH, 0fdH, 0bcH, 0baH, 0bdH, 0c7H
	DB	0c6H, 0d0H, 0a1H, 0a3H, 00H			; `string'
CONST	ENDS
;	COMDAT ?btnGraId@?1??commonYesNoWindow@@YAHHH@Z@4PAHA
_DATA	SEGMENT
?btnGraId@?1??commonYesNoWindow@@YAHHH@Z@4PAHA DD 0fffffffeH ; `commonYesNoWindow'::`2'::btnGraId
	DD	0fffffffeH
_DATA	ENDS
;	COMDAT ??_C@_0BB@IFBIBFPD@?D?$LD?$LI?$KP?$LI?q?$LH?O?$LA?$KB?A?$KO?$LP?$MA?$LB?b@
CONST	SEGMENT
??_C@_0BB@IFBIBFPD@?D?$LD?$LI?$KP?$LI?q?$LH?O?$LA?$KB?A?$KO?$LP?$MA?$LB?b@ DB 0c4H
	DB	0b3H, 0b8H, 0afH, 0b8H, 0f1H, 0b7H, 0cfH, 0b0H, 0a1H, 0c1H, 0aeH
	DB	0bfH, 0c0H, 0b1H, 0e2H, 00H			; `string'
CONST	ENDS
;	COMDAT ?msg@?1??deleteCharacter@@YAHXZ@4PADA
_DATA	SEGMENT
?msg@?1??deleteCharacter@@YAHXZ@4PADA DB 0c4H, 0b3H, 0b8H, 0afH, 0c5H, 0cdH
	DB	0bbH, 0e8H, 0c1H, 0a6H, 00H			; `deleteCharacter'::`2'::msg
_DATA	ENDS
;	COMDAT ??_C@_03GLKEJMAA@?$CF4d@
CONST	SEGMENT
??_C@_03GLKEJMAA@?$CF4d@ DB '%4d', 00H			; `string'
CONST	ENDS
;	COMDAT ??_C@_03GCLOGFGE@?$CF8d@
CONST	SEGMENT
??_C@_03GCLOGFGE@?$CF8d@ DB '%8d', 00H			; `string'
CONST	ENDS
;	COMDAT ??_C@_03GOOLIKIF@?$CF3d@
CONST	SEGMENT
??_C@_03GOOLIKIF@?$CF3d@ DB '%3d', 00H			; `string'
CONST	ENDS
;	COMDAT ??_C@_0BM@LPFLMHNK@?D?$LD?$LI?$KP?E?M?5?$LL?h?A?$KG?$LK?R?$LA?$KB?$KD?$KM?$LE?Y?$LN?C?$LN?C?$LF?$LF?$KD?$KB@
CONST	SEGMENT
??_C@_0BM@LPFLMHNK@?D?$LD?$LI?$KP?E?M?5?$LL?h?A?$KG?$LK?R?$LA?$KB?$KD?$KM?$LE?Y?$LN?C?$LN?C?$LF?$LF?$KD?$KB@ DB 0c4H
	DB	0b3H, 0b8H, 0afH, 0c5H, 0cdH, ' ', 0bbH, 0e8H, 0c1H, 0a6H, 0baH
	DB	0d2H, 0b0H, 0a1H, 0a3H, 0acH, 0b4H, 0d9H, 0bdH, 0c3H, 0bdH, 0c3H
	DB	0b5H, 0b5H, 0a3H, 0a1H, 00H			; `string'
CONST	ENDS
;	COMDAT ??_C@_0CF@PPIDBOKB@402?5WGS?o?C?$DP?$DP?l?$KL?i?D?h?G?o?C?$DP?$KD?$KM?$DP?S?p?$DP?$DP?j?$PN?$DP?$DP@
CONST	SEGMENT
??_C@_0CF@PPIDBOKB@402?5WGS?o?C?$DP?$DP?l?$KL?i?D?h?G?o?C?$DP?$KD?$KM?$DP?S?p?$DP?$DP?j?$PN?$DP?$DP@ DB '4'
	DB	'02 WGS', 0efH, 0c3H, '??', 0ecH, 0abH, 0e9H, 0c4H, 0e8H, 0c7H
	DB	0efH, 0c3H, '?', 0a3H, 0acH, '?', 0d3H, 0f0H, '??', 0eaH, 0fdH
	DB	'??', 0e3H, 0e9H, '?', 0a1H, 0a3H, 00H	; `string'
CONST	ENDS
;	COMDAT ??_C@_0CI@CNJAOKCA@401?5?$DP?Z?$LB?q?$LM?$DPWGS?o?C?$DP?$DP?$KD?$KM?$DP?$OA?$LL?S?p?$DP?$DP?j?$PN?$DP?$DP?h@
CONST	SEGMENT
??_C@_0CI@CNJAOKCA@401?5?$DP?Z?$LB?q?$LM?$DPWGS?o?C?$DP?$DP?$KD?$KM?$DP?$OA?$LL?S?p?$DP?$DP?j?$PN?$DP?$DP?h@ DB '4'
	DB	'01 ?', 0daH, 0b1H, 0f1H, 0bcH, '?WGS', 0efH, 0c3H, '??', 0a3H
	DB	0acH, '?', 0e0H, 0bbH, 0d3H, 0f0H, '??', 0eaH, 0fdH, '??', 0e8H
	DB	0c7H, 0e0H, 0f7H, 0f1H, 0bcH, '?', 0a1H, 0a3H, 00H ; `string'
CONST	ENDS
;	COMDAT ??_C@_0BP@IOOEJBCN@304?5?$LA?T?$MA?S?$LH?$KJ?E?$LH?$MA?$LL?$LO?r?$MA?$LL?$LM?v?$LO?x?$LN?$MA?$LE?O?$LE?Y?$KB?$KD@
CONST	SEGMENT
??_C@_0BP@IOOEJBCN@304?5?$LA?T?$MA?S?$LH?$KJ?E?$LH?$MA?$LL?$LO?r?$MA?$LL?$LM?v?$LO?x?$LN?$MA?$LE?O?$LE?Y?$KB?$KD@ DB '3'
	DB	'04 ', 0b0H, 0d4H, 0c0H, 0d3H, 0b7H, 0a9H, 0c5H, 0b7H, 0c0H, 0bbH
	DB	0beH, 0f2H, 0c0H, 0bbH, 0bcH, 0f6H, 0beH, 0f8H, 0bdH, 0c0H, 0b4H
	DB	0cfH, 0b4H, 0d9H, 0a1H, 0a3H, 00H		; `string'
CONST	ENDS
;	COMDAT ??_C@_0BK@IAPLJHAN@303?5?$DP?y?$KB?q?$LM?$DP?$NO?E?i?D?s?$KN?$DP?l?$KL?i?D?h?G?$KB?$KD@
CONST	SEGMENT
??_C@_0BK@IAPLJHAN@303?5?$DP?y?$KB?q?$LM?$DP?$NO?E?i?D?s?$KN?$DP?l?$KL?i?D?h?G?$KB?$KD@ DB '3'
	DB	'03 ?', 0f9H, 0a1H, 0f1H, 0bcH, '?', 0deH, 0c5H, 0e9H, 0c4H, 0f3H
	DB	0adH, '?', 0ecH, 0abH, 0e9H, 0c4H, 0e8H, 0c7H, 0a1H, 0a3H, 00H ; `string'
CONST	ENDS
;	COMDAT ??_C@_0DO@PIHOLGOA@302?5?$DP?n?$NM?$DP?y?$KB?$NP?m?$DP?$DP?Z?$LB?$DP?$DP?$KD?$KM?$DP?$OA?$LL?$DP?$DP?$DP?n?$NM?$DP?m?$KN@
CONST	SEGMENT
??_C@_0DO@PIHOLGOA@302?5?$DP?n?$NM?$DP?y?$KB?$NP?m?$DP?$DP?Z?$LB?$DP?$DP?$KD?$KM?$DP?$OA?$LL?$DP?$DP?$DP?n?$NM?$DP?m?$KN@ DB '3'
	DB	'02 ?', 0eeH, 0dcH, '?', 0f9H, 0a1H, 0dfH, 0edH, '??', 0daH, 0b1H
	DB	'??', 0a3H, 0acH, '?', 0e0H, 0bbH, '???', 0eeH, 0dcH, '?', 0edH
	DB	0adH, '?', 0cbH, 0ecH, 0a3H, 0acH, 0ebH, 0eeH, 0f0H, 0ceH, '??'
	DB	0eaH, 0fdH, '??', 0d0H, 0f6H, 0eeH, 0dcH, '??', 0e3H, 0e1H, '?'
	DB	0faH, 0bcH, '??', 0a1H, 0a3H, 00H		; `string'
