; Listing generated by Microsoft (R) Optimizing Compiler Version 19.28.29336.0 

	TITLE	C:\Users\gg862\OneDrive\¹ÙÅÁ È­¸é\¸¾Äí¿Ï·á\Client Source Code1.31ÀÏº»\system\menu.cpp
	.686P
	.XMM
	include listing.inc
	.model	flat

INCLUDELIB LIBCMT
INCLUDELIB OLDNAMES

PUBLIC	?TaskBarFlag@@3HA				; TaskBarFlag
PUBLIC	?MenuToggleFlag@@3IA				; MenuToggleFlag
PUBLIC	?ItemBuffer@@3PAUITEM_BUFFER@@A			; ItemBuffer
PUBLIC	?StatusUpPoint@@3HA				; StatusUpPoint
PUBLIC	?BattlePetReceiveFlag@@3HA			; BattlePetReceiveFlag
PUBLIC	?StandbyPetSendFlag@@3HA			; StandbyPetSendFlag
PUBLIC	?BattlePetReceivePetNo@@3HA			; BattlePetReceivePetNo
PUBLIC	?MailHistory@@3PAUMAIL_HISTORY@@A		; MailHistory
PUBLIC	?chatRegistryStr@@3PAUSTR_BUFFER@@A		; chatRegistryStr
PUBLIC	?MailStr@@3USTR_BUFFER@@A			; MailStr
PUBLIC	?pActMenuWnd3@@3PAUaction@@A			; pActMenuWnd3
PUBLIC	?shougouChange@@3USTR_BUFFER@@A			; shougouChange
PUBLIC	?MymoneyBuffer@@3USTR_BUFFER@@A			; MymoneyBuffer
PUBLIC	?TradeBuffer@@3USTR_BUFFER@@A			; TradeBuffer
PUBLIC	?petNameChange@@3USTR_BUFFER@@A			; petNameChange
PUBLIC	?petStatusNo@@3HA				; petStatusNo
PUBLIC	?mailHistoryWndPageNo@@3HA			; mailHistoryWndPageNo
PUBLIC	?mailHistoryWndSelectNo@@3HA			; mailHistoryWndSelectNo
PUBLIC	?MapWmdFlagBak@@3HA				; MapWmdFlagBak
PUBLIC	?ResultWndTimer@@3HA				; ResultWndTimer
PUBLIC	?ItemMixRecvFlag@@3HA				; ItemMixRecvFlag
PUBLIC	?MouseCursorFlag@@3HA				; MouseCursorFlag
PUBLIC	?TalkMode@@3HA					; TalkMode
PUBLIC	?secretName@@3PADA				; secretName
PUBLIC	?setRoomFlag@@3_NA				; setRoomFlag
PUBLIC	?secretFlag@@3_NA				; secretFlag
PUBLIC	?selChar@@3HA					; selChar
PUBLIC	?pChtChanlWnd@@3PAUaction@@A			; pChtChanlWnd
PUBLIC	?pSelChanlWnd@@3PAUaction@@A			; pSelChanlWnd
PUBLIC	?chatRoomName@@3USTR_BUFFER@@A			; chatRoomName
PUBLIC	?pSetRoomWnd@@3PAUaction@@A			; pSetRoomWnd
PUBLIC	?Ûå???@@3HA					; Ûå???
PUBLIC	?ìÑÚª?øÌ??@@3HA					; ìÑÚª?øÌ??
PUBLIC	????ãÆ??@@3HA					; ???ãÆ??
PUBLIC	?ê«ò¢éç?@@3HA					; ê«ò¢éç?
PUBLIC	?DropPetWndflag@@3_NA				; DropPetWndflag
PUBLIC	?DropI@@3FA					; DropI
PUBLIC	?ChangePetName@@3_NA				; ChangePetName
PUBLIC	?ChangePetI@@3FA				; ChangePetI
PUBLIC	?ChangeMyName@@3_NA				; ChangeMyName
PUBLIC	?UpDownflag@@3HA				; UpDownflag
PUBLIC	?systemWndNo@@3IA				; systemWndNo
PUBLIC	?talkmsg@@3PAY0BAA@DA				; talkmsg
PUBLIC	?talkwndx@@3HA					; talkwndx
PUBLIC	?talkwndy@@3HA					; talkwndy
PUBLIC	?talkwndflag@@3_NA				; talkwndflag
PUBLIC	?tradetalkwndflag@@3_NA				; tradetalkwndflag
PUBLIC	?Moneyflag@@3_NA				; Moneyflag
PUBLIC	?Tradeflag@@3_NA				; Tradeflag
PUBLIC	?TradeBtnflag@@3_NA				; TradeBtnflag
PUBLIC	?mapWndFontNo@@3PAHA				; mapWndFontNo
PUBLIC	?showindex@@3PAHA				; showindex
PUBLIC	?itemflag@@3PAHA				; itemflag
PUBLIC	?MainTradeWndflag@@3_NA				; MainTradeWndflag
PUBLIC	?SecondTradeWndflag@@3_NA			; SecondTradeWndflag
PUBLIC	?SecondTradeWnd@@3PAUaction@@A			; SecondTradeWnd
PUBLIC	?TradeTalkWnd@@3PAUaction@@A			; TradeTalkWnd
PUBLIC	?ShowPetNum@@3HA				; ShowPetNum
PUBLIC	?mytradelist@@3PAHA				; mytradelist
PUBLIC	?opptradelist@@3PAHA				; opptradelist
PUBLIC	?drag1Y@@3HA					; drag1Y
PUBLIC	?drag2Y@@3HA					; drag2Y
PUBLIC	?tmpdrag1Y@@3HA					; tmpdrag1Y
PUBLIC	?tmpdrag2Y@@3HA					; tmpdrag2Y
PUBLIC	?dragflag1@@3_NA				; dragflag1
PUBLIC	?dragflag2@@3_NA				; dragflag2
PUBLIC	?locknum@@3HA					; locknum
PUBLIC	?locknum2@@3HA					; locknum2
PUBLIC	?MultiTells@@3HA				; MultiTells
PUBLIC	?pActMsgWnd@@3PAUaction@@A			; pActMsgWnd
PUBLIC	?CharNum@@3HA					; CharNum
PUBLIC	?TellInfo@@3PAY0IA@DA				; TellInfo
PUBLIC	?name@@3PAY0CA@DA				; name
PUBLIC	?index@@3PAHA					; index
PUBLIC	?reSendMsg@@3PADA				; reSendMsg
PUBLIC	?chatInfo@@3UCHATINFO@@A			; chatInfo
PUBLIC	?BtnType@@3_NA					; BtnType
PUBLIC	?assentFlag@@3_NA				; assentFlag
PUBLIC	?scrollFlag@@3_NA				; scrollFlag
PUBLIC	?roomInfo@@3PAY0EA@DA				; roomInfo
PUBLIC	?memInfo@@3PADA					; memInfo
PUBLIC	?scrlBtnIndex@@3HA				; scrlBtnIndex
PUBLIC	?BtnNo@@3HA					; BtnNo
PUBLIC	?firMemNo@@3HA					; firMemNo
PUBLIC	?closeBtn@@3HA					; closeBtn
PUBLIC	?leaveBtn@@3HA					; leaveBtn
PUBLIC	?delBtn@@3HA					; delBtn
PUBLIC	?chaBtn@@3HA					; chaBtn
PUBLIC	?outBtn@@3HA					; outBtn
PUBLIC	?scrlHBtn@@3HA					; scrlHBtn
PUBLIC	?scrlLBtn@@3HA					; scrlLBtn
PUBLIC	?roomIndex@@3PAHA				; roomIndex
PUBLIC	?roomNum@@3HA					; roomNum
PUBLIC	?memIndex@@3HA					; memIndex
PUBLIC	?pAssentWnd@@3PAUaction@@A			; pAssentWnd
PUBLIC	?mixPetNo@@3HA					; mixPetNo
PUBLIC	?SelectWazaNo@@3HA				; SelectWazaNo
PUBLIC	?itemWndMaxBag@@3HA				; itemWndMaxBag
PUBLIC	?itemWndBagOffset@@3HA				; itemWndBagOffset
PUBLIC	?nPetItemEquipBmpNumber@@3PAY01HA		; nPetItemEquipBmpNumber
PUBLIC	?TransmigrationStr@@3PAPADA			; TransmigrationStr
PUBLIC	??_C@_00CNPNBAHC@@				; `string'
PUBLIC	??_C@_02DLMIBHNO@?$KF?$LA@			; `string'
PUBLIC	??_C@_02CCNDCGJP@?$KF?$LB@			; `string'
PUBLIC	??_C@_02JPOHFFM@?$KF?$LC@			; `string'
PUBLIC	??_C@_02BAOFEEBN@?$KF?$LD@			; `string'
PUBLIC	??_C@_02FPKENCNK@?$KF?$LE@			; `string'
PUBLIC	??_C@_02EGLPODJL@?$KF?$LF@			; `string'
PUBLIC	??_C@_02GNJCLAFI@?$KF?$LG@			; `string'
PUBLIC	?pActLetter@@3PAPAUaction@@A			; pActLetter
PUBLIC	?pActMailItem@@3PAUaction@@A			; pActMailItem
PUBLIC	?PetAlbumTbl@@3PAUPET_ALBUM_TBL@@A		; PetAlbumTbl
PUBLIC	?PetAlbum@@3PAUPET_ALBUM@@A			; PetAlbum
PUBLIC	?AlbumIdCnt@@3HA				; AlbumIdCnt
PUBLIC	?IdEncryptionTbl@@3PAHA				; IdEncryptionTbl
PUBLIC	?resultWndFontNo@@3PAHA				; resultWndFontNo
PUBLIC	?bShowItemExplain@@3HA				; bShowItemExplain
PUBLIC	?CharDetail@@3PAY0BA@DA				; CharDetail
PUBLIC	?DetailDesc@@3PAY0EA@DA				; DetailDesc
PUBLIC	?DetailDesc1@@3PAY0EA@DA			; DetailDesc1
PUBLIC	?DetailDesc2@@3PAY0EA@DA			; DetailDesc2
PUBLIC	?iCharAlchePlus@@3PAHA				; iCharAlchePlus
PUBLIC	?sAlchePlus_list@@3PAY0BA@DA			; sAlchePlus_list
PUBLIC	?iAlchePlusIcon@@3PAHA				; iAlchePlusIcon
PUBLIC	?pActMenuWnd@@3PAUaction@@A			; pActMenuWnd
PUBLIC	?pActMenuWnd2@@3PAUaction@@A			; pActMenuWnd2
PUBLIC	?pActMenuWnd4@@3PAUaction@@A			; pActMenuWnd4
PUBLIC	?pActYesNoWnd@@3PAUaction@@A			; pActYesNoWnd
PUBLIC	?pActMenuWnd5@@3PAUaction@@A			; pActMenuWnd5
PUBLIC	?pActMenuù«?@@3PAUaction@@A			; pActMenuù«?
PUBLIC	?pActMenu??@@3PAUaction@@A			; pActMenu??
PUBLIC	?pActMenuÎÃ?@@3PAUaction@@A			; pActMenuÎÃ?
PUBLIC	?pActMenuìÑÚª@@3PAUaction@@A			; pActMenuìÑÚª
PUBLIC	??_C@_0BK@CGBENDMD@?5?5?5?5?5?5?5?$LI?p?5?5?5?5?5?5?5?$LD?k?5?5?5?5?5?5?5@ ; `string'
PUBLIC	??_C@_0BJ@DHKPLCBK@?5?5?5?5?5?5?$LN?$LK?5?E?W?5?$LH?$LJ?5?$LP?$MA?5?5?5?5?5?5?5@ ; `string'
PUBLIC	??_C@_0BD@PHEKGFNN@?5?5?5?5?5?H?$LI?5?5?5?5?$LL?v?5?5?5?5?5@ ; `string'
PUBLIC	??_C@_0BD@JHCIAJMC@?5?5?5?5?5?$LA?x?5?$LH?f?5?$LO?K?5?5?5?5?5@ ; `string'
PUBLIC	?WINDOW_CREATE_FRAME@@3HA			; WINDOW_CREATE_FRAME
PUBLIC	?byShowPetItemBackground@@3PAEA			; byShowPetItemBackground
PUBLIC	?charDetailPage@@3HA				; charDetailPage
PUBLIC	?SkillWndflag@@3_NA				; SkillWndflag
PUBLIC	?SkillWnd@@3FA					; SkillWnd
PUBLIC	??Ðü??äÎ?Ï£Ü·@@3HA				; ?Ðü??äÎ?Ï£Ü·
PUBLIC	??Ðü??äÎ?Ï£Ü·@@3PAHA				; ?Ðü??äÎ?Ï£Ü·
PUBLIC	?pActSkillMenuWnd@@3PAUaction@@A		; pActSkillMenuWnd
PUBLIC	?MAX_PET_TBL@@3HA				; MAX_PET_TBL
PUBLIC	?í»?Ôô??Ï¢@@3HA					; í»?Ôô??Ï¢
PUBLIC	?pí»?Ôô??Ï¢@@3PAUaction@@A			; pí»?Ôô??Ï¢
PUBLIC	?Û°ú¾?íÂ@@3PAUaction@@A				; Û°ú¾?íÂ
PUBLIC	?ìÑÚª?íÂ@@3PAUaction@@A				; ìÑÚª?íÂ
EXTRN	?DISPLACEMENT_Y@@3HA:DWORD			; DISPLACEMENT_Y
_BSS	SEGMENT
?TaskBarFlag@@3HA DD 01H DUP (?)			; TaskBarFlag
?MenuToggleFlag@@3IA DD 01H DUP (?)			; MenuToggleFlag
?ItemBuffer@@3PAUITEM_BUFFER@@A DB 06c0H DUP (?)	; ItemBuffer
?StatusUpPoint@@3HA DD 01H DUP (?)			; StatusUpPoint
?BattlePetReceiveFlag@@3HA DD 01H DUP (?)		; BattlePetReceiveFlag
?StandbyPetSendFlag@@3HA DD 01H DUP (?)			; StandbyPetSendFlag
?MailHistory@@3PAUMAIL_HISTORY@@A DB 04ab00H DUP (?)	; MailHistory
?chatRegistryStr@@3PAUSTR_BUFFER@@A DB 0940H DUP (?)	; chatRegistryStr
?MailStr@@3USTR_BUFFER@@A DB 0128H DUP (?)		; MailStr
?pActMenuWnd3@@3PAUaction@@A DD 01H DUP (?)		; pActMenuWnd3
?shougouChange@@3USTR_BUFFER@@A DB 0128H DUP (?)	; shougouChange
?MymoneyBuffer@@3USTR_BUFFER@@A DB 0128H DUP (?)	; MymoneyBuffer
?TradeBuffer@@3USTR_BUFFER@@A DB 0128H DUP (?)		; TradeBuffer
?petNameChange@@3USTR_BUFFER@@A DB 0128H DUP (?)	; petNameChange
?petStatusNo@@3HA DD 01H DUP (?)			; petStatusNo
?mailHistoryWndPageNo@@3HA DD 01H DUP (?)		; mailHistoryWndPageNo
?mailHistoryWndSelectNo@@3HA DD 01H DUP (?)		; mailHistoryWndSelectNo
?MapWmdFlagBak@@3HA DD 01H DUP (?)			; MapWmdFlagBak
?ResultWndTimer@@3HA DD 01H DUP (?)			; ResultWndTimer
?ItemMixRecvFlag@@3HA DD 01H DUP (?)			; ItemMixRecvFlag
?TalkMode@@3HA DD 01H DUP (?)				; TalkMode
?secretName@@3PADA DB 020H DUP (?)			; secretName
?setRoomFlag@@3_NA DB 01H DUP (?)			; setRoomFlag
	ALIGN	4

?secretFlag@@3_NA DB 01H DUP (?)			; secretFlag
	ALIGN	4

?pChtChanlWnd@@3PAUaction@@A DD 01H DUP (?)		; pChtChanlWnd
?pSelChanlWnd@@3PAUaction@@A DD 01H DUP (?)		; pSelChanlWnd
?chatRoomName@@3USTR_BUFFER@@A DB 0128H DUP (?)		; chatRoomName
?pSetRoomWnd@@3PAUaction@@A DD 01H DUP (?)		; pSetRoomWnd
?Ûå???@@3HA DD	01H DUP (?)				; Ûå???
?ìÑÚª?øÌ??@@3HA DD 01H DUP (?)				; ìÑÚª?øÌ??
????ãÆ??@@3HA DD 01H DUP (?)				; ???ãÆ??
?ê«ò¢éç?@@3HA DD 01H DUP (?)				; ê«ò¢éç?
?DropPetWndflag@@3_NA DB 01H DUP (?)			; DropPetWndflag
	ALIGN	4

?ChangePetName@@3_NA DB 01H DUP (?)			; ChangePetName
	ALIGN	4

?ChangeMyName@@3_NA DB 01H DUP (?)			; ChangeMyName
	ALIGN	4

?UpDownflag@@3HA DD 01H DUP (?)				; UpDownflag
?systemWndNo@@3IA DD 01H DUP (?)			; systemWndNo
?talkmsg@@3PAY0BAA@DA DB 0400H DUP (?)			; talkmsg
?talkwndflag@@3_NA DB 01H DUP (?)			; talkwndflag
	ALIGN	4

?tradetalkwndflag@@3_NA DB 01H DUP (?)			; tradetalkwndflag
	ALIGN	4

?Moneyflag@@3_NA DB 01H DUP (?)				; Moneyflag
	ALIGN	4

?Tradeflag@@3_NA DB 01H DUP (?)				; Tradeflag
	ALIGN	4

?TradeBtnflag@@3_NA DB 01H DUP (?)			; TradeBtnflag
	ALIGN	4

?mapWndFontNo@@3PAHA DD 03H DUP (?)			; mapWndFontNo
?showindex@@3PAHA DD 07H DUP (?)			; showindex
?itemflag@@3PAHA DD 0fH DUP (?)				; itemflag
?SecondTradeWndflag@@3_NA DB 01H DUP (?)		; SecondTradeWndflag
	ALIGN	4

?SecondTradeWnd@@3PAUaction@@A DD 01H DUP (?)		; SecondTradeWnd
?TradeTalkWnd@@3PAUaction@@A DD 01H DUP (?)		; TradeTalkWnd
?ShowPetNum@@3HA DD 01H DUP (?)				; ShowPetNum
?tmpdrag1Y@@3HA DD 01H DUP (?)				; tmpdrag1Y
?tmpdrag2Y@@3HA DD 01H DUP (?)				; tmpdrag2Y
?dragflag1@@3_NA DB 01H DUP (?)				; dragflag1
	ALIGN	4

?dragflag2@@3_NA DB 01H DUP (?)				; dragflag2
	ALIGN	4

?MultiTells@@3HA DD 01H DUP (?)				; MultiTells
?pActMsgWnd@@3PAUaction@@A DD 01H DUP (?)		; pActMsgWnd
?CharNum@@3HA DD 01H DUP (?)				; CharNum
?TellInfo@@3PAY0IA@DA DB 0500H DUP (?)			; TellInfo
?name@@3PAY0CA@DA DB 0140H DUP (?)			; name
?index@@3PAHA DD 0aH DUP (?)				; index
?reSendMsg@@3PADA DB 0104H DUP (?)			; reSendMsg
?chatInfo@@3UCHATINFO@@A DB 0ad4H DUP (?)		; chatInfo
?BtnType@@3_NA DB 01H DUP (?)				; BtnType
	ALIGN	4

?assentFlag@@3_NA DB 01H DUP (?)			; assentFlag
	ALIGN	4

?scrollFlag@@3_NA DB 01H DUP (?)			; scrollFlag
	ALIGN	4

?roomInfo@@3PAY0EA@DA DB 0c80H DUP (?)			; roomInfo
?memInfo@@3PADA DB 040H DUP (?)				; memInfo
?scrlBtnIndex@@3HA DD 01H DUP (?)			; scrlBtnIndex
?BtnNo@@3HA DD	01H DUP (?)				; BtnNo
?firMemNo@@3HA DD 01H DUP (?)				; firMemNo
?closeBtn@@3HA DD 01H DUP (?)				; closeBtn
?leaveBtn@@3HA DD 01H DUP (?)				; leaveBtn
?delBtn@@3HA DD	01H DUP (?)				; delBtn
?chaBtn@@3HA DD	01H DUP (?)				; chaBtn
?outBtn@@3HA DD	01H DUP (?)				; outBtn
?scrlHBtn@@3HA DD 01H DUP (?)				; scrlHBtn
?scrlLBtn@@3HA DD 01H DUP (?)				; scrlLBtn
?roomIndex@@3PAHA DD 032H DUP (?)			; roomIndex
?roomNum@@3HA DD 01H DUP (?)				; roomNum
?memIndex@@3HA DD 01H DUP (?)				; memIndex
?pAssentWnd@@3PAUaction@@A DD 01H DUP (?)		; pAssentWnd
?mixPetNo@@3HA DD 01H DUP (?)				; mixPetNo
?SelectWazaNo@@3HA DD 01H DUP (?)			; SelectWazaNo
?itemWndMaxBag@@3HA DD 01H DUP (?)			; itemWndMaxBag
?itemWndBagOffset@@3HA DD 01H DUP (?)			; itemWndBagOffset
?pActLetter@@3PAPAUaction@@A DD 04H DUP (?)		; pActLetter
?pActMailItem@@3PAUaction@@A DD 01H DUP (?)		; pActMailItem
?PetAlbum@@3PAUPET_ALBUM@@A DB 0b220H DUP (?)		; PetAlbum
?AlbumIdCnt@@3HA DD 01H DUP (?)				; AlbumIdCnt
?resultWndFontNo@@3PAHA DD 01H DUP (?)			; resultWndFontNo
?bShowItemExplain@@3HA DD 01H DUP (?)			; bShowItemExplain
?CharDetail@@3PAY0BA@DA DB 080H DUP (?)			; CharDetail
?iCharAlchePlus@@3PAHA DD 019H DUP (?)			; iCharAlchePlus
?pActMenuWnd@@3PAUaction@@A DD 01H DUP (?)		; pActMenuWnd
?pActMenuWnd2@@3PAUaction@@A DD 01H DUP (?)		; pActMenuWnd2
?pActMenuWnd4@@3PAUaction@@A DD 01H DUP (?)		; pActMenuWnd4
?pActYesNoWnd@@3PAUaction@@A DD 01H DUP (?)		; pActYesNoWnd
?pActMenuWnd5@@3PAUaction@@A DD 01H DUP (?)		; pActMenuWnd5
?pActMenuù«?@@3PAUaction@@A DD 01H DUP (?)		; pActMenuù«?
?pActMenu??@@3PAUaction@@A DD 01H DUP (?)		; pActMenu??
?pActMenuÎÃ?@@3PAUaction@@A DD 01H DUP (?)		; pActMenuÎÃ?
?pActMenuìÑÚª@@3PAUaction@@A DD 01H DUP (?)		; pActMenuìÑÚª
?SkillWndflag@@3_NA DB 01H DUP (?)			; SkillWndflag
	ALIGN	4

?SkillWnd@@3FA DW 01H DUP (?)				; SkillWnd
	ALIGN	4

??Ðü??äÎ?Ï£Ü·@@3HA DD 01H DUP (?)			; ?Ðü??äÎ?Ï£Ü·
??Ðü??äÎ?Ï£Ü·@@3PAHA DD 03H DUP (?)			; ?Ðü??äÎ?Ï£Ü·
?pActSkillMenuWnd@@3PAUaction@@A DD 01H DUP (?)		; pActSkillMenuWnd
?MAX_PET_TBL@@3HA DD 01H DUP (?)			; MAX_PET_TBL
?í»?Ôô??Ï¢@@3HA DD 01H DUP (?)				; í»?Ôô??Ï¢
?pí»?Ôô??Ï¢@@3PAUaction@@A DD 01H DUP (?)		; pí»?Ôô??Ï¢
?Û°ú¾?íÂ@@3PAUaction@@A DD 01H DUP (?)			; Û°ú¾?íÂ
?ìÑÚª?íÂ@@3PAUaction@@A DD 01H DUP (?)			; ìÑÚª?íÂ
_BSS	ENDS
;	COMDAT ??_C@_0BD@JHCIAJMC@?5?5?5?5?5?$LA?x?5?$LH?f?5?$LO?K?5?5?5?5?5@
CONST	SEGMENT
??_C@_0BD@JHCIAJMC@?5?5?5?5?5?$LA?x?5?$LH?f?5?$LO?K?5?5?5?5?5@ DB '     ', 0b0H
	DB	0f8H, ' ', 0b7H, 0e6H, ' ', 0beH, 0cbH, '     ', 00H ; `string'
CONST	ENDS
;	COMDAT ??_C@_0BD@PHEKGFNN@?5?5?5?5?5?H?$LI?5?5?5?5?$LL?v?5?5?5?5?5@
CONST	SEGMENT
??_C@_0BD@PHEKGFNN@?5?5?5?5?5?H?$LI?5?5?5?5?$LL?v?5?5?5?5?5@ DB '     ', 0c8H
	DB	0b8H, '    ', 0bbH, 0f6H, '     ', 00H	; `string'
CONST	ENDS
;	COMDAT ??_C@_0BJ@DHKPLCBK@?5?5?5?5?5?5?$LN?$LK?5?E?W?5?$LH?$LJ?5?$LP?$MA?5?5?5?5?5?5?5@
CONST	SEGMENT
??_C@_0BJ@DHKPLCBK@?5?5?5?5?5?5?$LN?$LK?5?E?W?5?$LH?$LJ?5?$LP?$MA?5?5?5?5?5?5?5@ DB ' '
	DB	'     ', 0bdH, 0baH, ' ', 0c5H, 0d7H, ' ', 0b7H, 0b9H, ' ', 0bfH
	DB	0c0H, '       ', 00H				; `string'
CONST	ENDS
;	COMDAT ??_C@_0BK@CGBENDMD@?5?5?5?5?5?5?5?$LI?p?5?5?5?5?5?5?5?$LD?k?5?5?5?5?5?5?5@
CONST	SEGMENT
??_C@_0BK@CGBENDMD@?5?5?5?5?5?5?5?$LI?p?5?5?5?5?5?5?5?$LD?k?5?5?5?5?5?5?5@ DB ' '
	DB	'      ', 0b8H, 0f0H, '       ', 0b3H, 0ebH, '       ', 00H ; `string'
CONST	ENDS
;	COMDAT ??_C@_02GNJCLAFI@?$KF?$LG@
CONST	SEGMENT
??_C@_02GNJCLAFI@?$KF?$LG@ DB 0a5H, 0b6H, 00H		; `string'
CONST	ENDS
;	COMDAT ??_C@_02EGLPODJL@?$KF?$LF@
CONST	SEGMENT
??_C@_02EGLPODJL@?$KF?$LF@ DB 0a5H, 0b5H, 00H		; `string'
CONST	ENDS
;	COMDAT ??_C@_02FPKENCNK@?$KF?$LE@
CONST	SEGMENT
??_C@_02FPKENCNK@?$KF?$LE@ DB 0a5H, 0b4H, 00H		; `string'
CONST	ENDS
;	COMDAT ??_C@_02BAOFEEBN@?$KF?$LD@
CONST	SEGMENT
??_C@_02BAOFEEBN@?$KF?$LD@ DB 0a5H, 0b3H, 00H		; `string'
CONST	ENDS
;	COMDAT ??_C@_02JPOHFFM@?$KF?$LC@
CONST	SEGMENT
??_C@_02JPOHFFM@?$KF?$LC@ DB 0a5H, 0b2H, 00H		; `string'
CONST	ENDS
;	COMDAT ??_C@_02CCNDCGJP@?$KF?$LB@
CONST	SEGMENT
??_C@_02CCNDCGJP@?$KF?$LB@ DB 0a5H, 0b1H, 00H		; `string'
CONST	ENDS
;	COMDAT ??_C@_02DLMIBHNO@?$KF?$LA@
CONST	SEGMENT
??_C@_02DLMIBHNO@?$KF?$LA@ DB 0a5H, 0b0H, 00H		; `string'
CONST	ENDS
;	COMDAT ??_C@_00CNPNBAHC@@
CONST	SEGMENT
??_C@_00CNPNBAHC@@ DB 00H				; `string'
CONST	ENDS
_DATA	SEGMENT
?BattlePetReceivePetNo@@3HA DD 0ffffffffH		; BattlePetReceivePetNo
?MouseCursorFlag@@3HA DD 01H				; MouseCursorFlag
?selChar@@3HA DD 0ffffffffH				; selChar
?DropI@@3FA DW	0ffffH					; DropI
?MainTradeWndflag@@3_NA DB 01H				; MainTradeWndflag
	ORG $+1
?ChangePetI@@3FA DW 0ffffH				; ChangePetI
	ORG $+2
?talkwndx@@3HA DD 012cH					; talkwndx
?talkwndy@@3HA DD 015eH					; talkwndy
?drag1Y@@3HA DD	043H					; drag1Y
?mytradelist@@3PAHA DD 0ffffffffH			; mytradelist
	ORG $+80
?drag2Y@@3HA DD	0101H					; drag2Y
?opptradelist@@3PAHA DD 0ffffffffH			; opptradelist
	ORG $+80
?locknum@@3HA DD 0ffffffffH				; locknum
?locknum2@@3HA DD 0ffffffffH				; locknum2
?nPetItemEquipBmpNumber@@3PAY01HA DD 0675fH		; nPetItemEquipBmpNumber
	DD	06766H
	DD	0675cH
	DD	06763H
	DD	0675aH
	DD	06761H
	DD	0675dH
	DD	06764H
	DD	0675bH
	DD	06762H
	DD	06759H
	DD	06760H
	DD	0675eH
	DD	06765H
?TransmigrationStr@@3PAPADA DD FLAT:??_C@_00CNPNBAHC@@	; TransmigrationStr
	DD	FLAT:??_C@_02DLMIBHNO@?$KF?$LA@
	DD	FLAT:??_C@_02CCNDCGJP@?$KF?$LB@
	DD	FLAT:??_C@_02JPOHFFM@?$KF?$LC@
	DD	FLAT:??_C@_02BAOFEEBN@?$KF?$LD@
	DD	FLAT:??_C@_02FPKENCNK@?$KF?$LE@
	DD	FLAT:??_C@_02EGLPODJL@?$KF?$LF@
	DD	FLAT:??_C@_02GNJCLAFI@?$KF?$LG@
?WINDOW_CREATE_FRAME@@3HA DD 01H			; WINDOW_CREATE_FRAME
?PetAlbumTbl@@3PAUPET_ALBUM_TBL@@A DD 00H		; PetAlbumTbl
	DB	'?', 0d5H, 0f4H, 00H
	ORG $+13
	ORG $+3
	DD	06d61H
	DD	01H
	DB	'?', 0d5H, 0f4H, '?', 0d5H, 0f4H, 00H
	ORG $+10
	ORG $+3
	DD	06d62H
	DD	02H
	DB	'?', 0d5H, 0f4H, 0deH, 0d9H, 0f7H, 0a4H, 00H
	ORG $+9
	ORG $+3
	DD	06d63H
	DD	03H
	DB	'?', 0d5H, 0f4H, 0f8H, 0d6H, '?', 00H
	ORG $+10
	ORG $+3
	DD	06d64H
	DD	08H
	DB	0f8H, 0d6H, 0ddH, 0efH, 00H
	ORG $+12
	ORG $+3
	DD	06d6bH
	DD	09H
	DB	0d1H, 0d1H, 0f8H, 0d6H, 0ecH, 0a5H, 00H
	ORG $+10
	ORG $+3
	DD	06d6cH
	DD	0aH
	DB	0f8H, 0d6H, 0ecH, 0a5H, 00H
	ORG $+12
	ORG $+3
	DD	06d6dH
	DD	0bH
	DB	0f8H, 0d6H, 0ecH, 0a5H, 0ddH, 0efH, 00H
	ORG $+10
	ORG $+3
	DD	06d6eH
	DD	0cH
	DB	'?', 0f8H, 0d6H, 0ecH, 0a5H, 00H
	ORG $+11
	ORG $+3
	DD	06d6fH
	DD	010H
	DB	0caH, 0a5H, 0daH, 0b8H, 00H
	ORG $+12
	ORG $+3
	DD	06d75H
	DD	011H
	DB	0caH, 0a5H, 0ddH, 0efH, 00H
	ORG $+12
	ORG $+3
	DD	06d76H
	DD	012H
	DB	0caH, 0a5H, 0ddH, 0efH, '?', 00H
	ORG $+11
	ORG $+3
	DD	06d77H
	DD	013H
	DB	0caH, 0a5H, 0deH, 0d9H, 00H
	ORG $+12
	ORG $+3
	DD	06d78H
	DD	018H
	DB	'???', 00H
	ORG $+13
	ORG $+3
	DD	06d7fH
	DD	019H
	DB	0eaH, 0ceH, 0eaH, 0ceH, 00H
	ORG $+12
	ORG $+3
	DD	06d80H
	DD	01aH
	DB	'???', 00H
	ORG $+13
	ORG $+3
	DD	06d81H
	DD	01bH
	DB	0eaH, 0ceH, 0dbH, 0d7H, 00H
	ORG $+12
	ORG $+3
	DD	06d82H
	DD	020H
	DB	'?', 0d5H, 0a6H, 0ebH, 0daH, 00H
	ORG $+11
	ORG $+3
	DD	06d89H
	DD	021H
	DB	'?', 0d5H, 0a6H, 0d5H, 0a6H, 0d0H, 0baH, 00H
	ORG $+9
	ORG $+3
	DD	06d8aH
	DD	022H
	DB	'?', 0d5H, 0a6H, '?', 0d0H, 0baH, '?', 00H
	ORG $+9
	ORG $+3
	DD	06d8bH
	DD	023H
	DB	'?', 0d5H, 0a6H, '?', 0d7H, 0d7H, 00H
	ORG $+10
	ORG $+3
	DD	06d8cH
	DD	028H
	DB	'?', 0f1H, 0fdH, 0e2H, 0eaH, 00H
	ORG $+11
	ORG $+3
	DD	06d93H
	DD	029H
	DB	'??', 00H
	ORG $+14
	ORG $+3
	DD	06d94H
	DD	02aH
	DB	'?', 0d8H, 0deH, '?', 0ebH, 0daH, 00H
	ORG $+10
	ORG $+3
	DD	06d95H
	DD	02bH
	DB	0e0H, 0b4H, '?', 00H
	ORG $+13
	ORG $+3
	DD	06d96H
	DD	030H
	DB	0e4H, 0b9H, 0caH, 0a8H, '?', 00H
	ORG $+11
	ORG $+3
	DD	06d9eH
	DD	031H
	DB	0d2H, 0f9H, 0caH, 0a6H, 0deH, 0d9H, 00H
	ORG $+10
	ORG $+3
	DD	06d9dH
	DD	032H
	DB	0f7H, 0e5H, 0d5H, 0a6H, 0cdH, 0e0H, 00H
	ORG $+10
	ORG $+3
	DD	06d9fH
	DD	033H
	DB	'?', 0d0H, 0baH, '?', 00H
	ORG $+12
	ORG $+3
	DD	06da0H
	DD	038H
	DB	0d5H, 0c3H, 0d0H, 0f4H, '?', 0caH, 0a8H, 00H
	ORG $+9
	ORG $+3
	DD	06da7H
	DD	039H
	DB	0fbH, 0bcH, 0daH, 0fbH, 0daH, 0fbH, 00H
	ORG $+10
	ORG $+3
	DD	06da8H
	DD	03aH
	DB	0d2H, 0fdH, '?', 0d1H, 0d1H, 0ccH, 0abH, 00H
	ORG $+9
	ORG $+3
	DD	06da9H
	DD	03bH
	DB	'?', 0d2H, 0f9H, 0f4H, 0deH, 0deH, 0d9H, 00H
	ORG $+9
	ORG $+3
	DD	06daaH
	DD	040H
	DB	'????', 0deH, 0d9H, 00H
	ORG $+10
	ORG $+3
	DD	06db1H
	DD	041H
	DB	0caH, 0afH, 0ecH, 0a5H, '?', 00H
	ORG $+11
	ORG $+3
	DD	06db2H
	DD	042H
	DB	0caH, 0afH, 0d5H, 0a6H, 0caH, 0a5H, 0deH, 0d9H, 00H
	ORG $+8
	ORG $+3
	DD	06db3H
	DD	043H
	DB	0d5H, 0a6H, 0d0H, 0f4H, 0e4H, 0ccH, 00H
	ORG $+10
	ORG $+3
	DD	06db4H
	DD	048H
	DB	0d7H, 0d7H, '???', 00H
	ORG $+11
	ORG $+3
	DD	06dbbH
	DD	049H
	DB	'?', 0d0H, 0f4H, 0d5H, 0a6H, 0deH, 0d9H, 00H
	ORG $+9
	ORG $+3
	DD	06dbcH
	DD	04aH
	DB	0dbH, 0c0H, 0f8H, 0ddH, 0d5H, 0a6H, 0deH, 0d9H, 00H
	ORG $+8
	ORG $+3
	DD	06dbdH
	DD	04bH
	DB	0dbH, 0c0H, 0d0H, 0f4H, '?', 00H
	ORG $+11
	ORG $+3
	DD	06dbeH
	DD	050H
	DB	0d0H, 0baH, 0d6H, 0f4H, '?', 00H
	ORG $+11
	ORG $+3
	DD	06dc5H
	DD	051H
	DB	0d0H, 0baH, 0d0H, 0baH, '?', 00H
	ORG $+11
	ORG $+3
	DD	06dc6H
	DD	052H
	DB	0d0H, 0baH, 0d5H, 0a6H, '?', 00H
	ORG $+11
	ORG $+3
	DD	06dc7H
	DD	053H
	DB	0d7H, 0ecH, 0deH, 0d9H, 0d0H, 0f1H, 00H
	ORG $+10
	ORG $+3
	DD	06dc8H
	DD	058H
	DB	'?', 0ddH, 0efH, 0f7H, 0e5H, 00H
	ORG $+11
	ORG $+3
	DD	06dcfH
	DD	059H
	DB	'?', 0ddH, 0efH, 00H
	ORG $+13
	ORG $+3
	DD	06dd0H
	DD	05aH
	DB	0cdH, 0e0H, 0ecH, 0a5H, 00H
	ORG $+12
	ORG $+3
	DD	06dd1H
	DD	05bH
	DB	'?', 0ddH, 0efH, 0f7H, 0e5H, 00H
	ORG $+11
	ORG $+3
	DD	06dd2H
	DD	0ffffffffH
	DB	0d9H, 0e9H, 00H
	ORG $+14
	ORG $+3
	DD	00H
	DD	0ffffffffH
	DB	0d9H, 0e9H, 00H
	ORG $+14
	ORG $+3
	DD	00H
	DD	0ffffffffH
	DB	0d9H, 0e9H, 00H
	ORG $+14
	ORG $+3
	DD	00H
	DD	0ffffffffH
	DB	0d9H, 0e9H, 00H
	ORG $+14
	ORG $+3
	DD	00H
	DD	0ffffffffH
	DB	0d9H, 0e9H, 00H
	ORG $+14
	ORG $+3
	DD	00H
	DD	0ffffffffH
	DB	0d9H, 0e9H, 00H
	ORG $+14
	ORG $+3
	DD	00H
	DD	0ffffffffH
	DB	0d9H, 0e9H, 00H
	ORG $+14
	ORG $+3
	DD	00H
	DD	0ffffffffH
	DB	0d9H, 0e9H, 00H
	ORG $+14
	ORG $+3
	DD	00H
	DD	060H
	DB	0ccH, 0abH, '??', 00H
	ORG $+12
	ORG $+3
	DD	06dedH
	DD	061H
	DB	0d0H, 0f4H, 0d5H, 0c3H, '?', 00H
	ORG $+11
	ORG $+3
	DD	06deeH
	DD	062H
	DB	'??', 0ccH, 0abH, '??', 00H
	ORG $+10
	ORG $+3
	DD	06defH
	DD	063H
	DB	0ccH, 0abH, '?', 0ccH, 0abH, 00H
	ORG $+11
	ORG $+3
	DD	06df0H
	DD	0ffffffffH
	DB	0d9H, 0e9H, 00H
	ORG $+14
	ORG $+3
	DD	00H
	DD	0ffffffffH
	DB	0d9H, 0e9H, 00H
	ORG $+14
	ORG $+3
	DD	00H
	DD	0ffffffffH
	DB	0d9H, 0e9H, 00H
	ORG $+14
	ORG $+3
	DD	00H
	DD	0ffffffffH
	DB	0d9H, 0e9H, 00H
	ORG $+14
	ORG $+3
	DD	00H
	DD	0ffffffffH
	DB	0d9H, 0e9H, 00H
	ORG $+14
	ORG $+3
	DD	00H
	DD	0ffffffffH
	DB	0d9H, 0e9H, 00H
	ORG $+14
	ORG $+3
	DD	00H
	DD	0ffffffffH
	DB	0d9H, 0e9H, 00H
	ORG $+14
	ORG $+3
	DD	00H
	DD	0ffffffffH
	DB	0d9H, 0e9H, 00H
	ORG $+14
	ORG $+3
	DD	00H
	DD	068H
	DB	0e1H, 0f3H, '?', 00H
	ORG $+13
	ORG $+3
	DD	06e0bH
	DD	069H
	DB	'?', 0d5H, 0c3H, '?', 0deH, 0d9H, 00H
	ORG $+10
	ORG $+3
	DD	06e0cH
	DD	06aH
	DB	0f8H, 0d6H, 0d0H, 0baH, 0f8H, 0d6H, 0d0H, 0baH, 00H
	ORG $+8
	ORG $+3
	DD	06e0dH
	DD	06bH
	DB	0d2H, 0fdH, 0d5H, 0a6H, 0caH, 0a5H, 00H
	ORG $+10
	ORG $+3
	DD	06e0eH
	DD	070H
	DB	'?', 0d0H, 0baH, '?', 00H
	ORG $+12
	ORG $+3
	DD	06e15H
	DD	071H
	DB	0f7H, 0e9H, 0d0H, 0baH, 00H
	ORG $+12
	ORG $+3
	DD	06e16H
	DD	072H
	DB	'?', 00H
	ORG $+15
	ORG $+3
	DD	06e17H
	DD	073H
	DB	'?', 0d5H, 0c3H, '?', 0d7H, 0d7H, 00H
	ORG $+10
	ORG $+3
	DD	06e18H
	DD	078H
	DB	'???', 00H
	ORG $+13
	ORG $+3
	DD	06e1fH
	DD	079H
	DB	'???', 00H
	ORG $+13
	ORG $+3
	DD	06e20H
	DD	07aH
	DB	'????', 00H
	ORG $+12
	ORG $+3
	DD	06e21H
	DD	07bH
	DB	'????', 00H
	ORG $+12
	ORG $+3
	DD	06e22H
	DD	0ffffffffH
	DB	0d9H, 0e9H, 00H
	ORG $+14
	ORG $+3
	DD	00H
	DD	0ffffffffH
	DB	0d9H, 0e9H, 00H
	ORG $+14
	ORG $+3
	DD	00H
	DD	0ffffffffH
	DB	0d9H, 0e9H, 00H
	ORG $+14
	ORG $+3
	DD	00H
	DD	0ffffffffH
	DB	0d9H, 0e9H, 00H
	ORG $+14
	ORG $+3
	DD	00H
	DD	080H
	DB	0d2H, 0fdH, 0d7H, 0d7H, '?', 0f8H, 0d6H, 0deH, 0d9H, 00H
	ORG $+7
	ORG $+3
	DD	06e33H
	DD	081H
	DB	'?', 0ebH, 0daH, '?', 0deH, 0d9H, 00H
	ORG $+10
	ORG $+3
	DD	06e34H
	DD	082H
	DB	0d2H, 0fdH, 0d7H, 0d7H, '?', 0d5H, 0c3H, 00H
	ORG $+9
	ORG $+3
	DD	06e35H
	DD	083H
	DB	0d2H, 0fdH, 0d5H, 0a6H, 0f8H, 0d6H, 0deH, 0d9H, 00H
	ORG $+8
	ORG $+3
	DD	06e36H
	DD	088H
	DB	0d0H, 0baH, 0dbH, 0c0H, '?', 0deH, 0d9H, 00H
	ORG $+9
	ORG $+3
	DD	06e3dH
	DD	089H
	DB	0caH, 0a5H, 0d0H, 0baH, 0d5H, 0c3H, 00H
	ORG $+10
	ORG $+3
	DD	06e3eH
	DD	08aH
	DB	0caH, 0a5H, 0ccH, 0abH, 00H
	ORG $+12
	ORG $+3
	DD	06e3fH
	DD	08bH
	DB	0dbH, 0c0H, 0ebH, 0daH, 0d1H, 0ceH, 00H
	ORG $+10
	ORG $+3
	DD	06e40H
	DD	090H
	DB	0d0H, 0f4H, '?', 0d5H, 0a6H, 0deH, 0d9H, 00H
	ORG $+9
	ORG $+3
	DD	06e47H
	DD	091H
	DB	0d0H, 0f4H, 0d1H, 0d6H, 00H
	ORG $+12
	ORG $+3
	DD	06e48H
	DD	092H
	DB	0d0H, 0f4H, '??', 0deH, 0d9H, 00H
	ORG $+10
	ORG $+3
	DD	06e49H
	DD	093H
	DB	'??', 0d1H, 0d1H, '?', 00H
	ORG $+11
	ORG $+3
	DD	06e4aH
	DD	098H
	DB	0dbH, 0c0H, 0d0H, 0f4H, 00H
	ORG $+12
	ORG $+3
	DD	06e51H
	DD	099H
	DB	0d9H, 0b5H, 0ecH, 0a5H, 00H
	ORG $+12
	ORG $+3
	DD	06e52H
	DD	09aH
	DB	0faH, 0adH, 0f1H, 0abH, 0ecH, 0d1H, 00H
	ORG $+10
	ORG $+3
	DD	06e53H
	DD	09bH
	DB	0d2H, 0fdH, '??', 00H
	ORG $+12
	ORG $+3
	DD	06e54H
	DD	0a0H
	DB	'???', 00H
	ORG $+13
	ORG $+3
	DD	06e5bH
	DD	0a1H
	DB	'????', 00H
	ORG $+12
	ORG $+3
	DD	06e5cH
	DD	0a2H
	DB	'?????', 00H
	ORG $+11
	ORG $+3
	DD	06e5dH
	DD	0a3H
	DB	'????', 00H
	ORG $+12
	ORG $+3
	DD	06e5eH
	DD	0a8H
	DB	'?', 0ebH, 0daH, 0d8H, 0a4H, 00H
	ORG $+11
	ORG $+3
	DD	06e65H
	DD	0a9H
	DB	0ebH, 0daH, 0d8H, 0a4H, 0d8H, 0a4H, 00H
	ORG $+10
	ORG $+3
	DD	06e66H
	DD	0aaH
	DB	'?', 0d8H, 0a4H, 0d1H, 0e1H, 0deH, 0d9H, 00H
	ORG $+9
	ORG $+3
	DD	06e67H
	DD	0abH
	DB	'?', 0ebH, 0daH, 0d8H, 0a4H, 0d5H, 0a6H, 0deH, 0d9H, 00H
	ORG $+7
	ORG $+3
	DD	06e68H
	DD	0b0H
	DB	0f4H, 0deH, 0d5H, 0c3H, 0ccH, 0abH, 0ebH, 0daH, 00H
	ORG $+8
	ORG $+3
	DD	06e6fH
	DD	0b1H
	DB	0d5H, 0a6H, '??', 0ebH, 0daH, 00H
	ORG $+10
	ORG $+3
	DD	06e70H
	DD	0b2H
	DB	0caH, 0a5H, '?', 0ccH, 0abH, 0ebH, 0daH, 00H
	ORG $+9
	ORG $+3
	DD	06e71H
	DD	0b3H
	DB	'?', 0d5H, 0c3H, 0ddH, 0efH, 0deH, 0d9H, 00H
	ORG $+9
	ORG $+3
	DD	06e72H
	DD	0ffffffffH
	DB	0d9H, 0e9H, 00H
	ORG $+14
	ORG $+3
	DD	00H
	DD	0ffffffffH
	DB	0d9H, 0e9H, 00H
	ORG $+14
	ORG $+3
	DD	00H
	DD	0ffffffffH
	DB	0d9H, 0e9H, 00H
	ORG $+14
	ORG $+3
	DD	00H
	DD	0ffffffffH
	DB	0d9H, 0e9H, 00H
	ORG $+14
	ORG $+3
	DD	00H
	DD	0b8H
	DB	0fbH, 0fdH, '?', 00H
	ORG $+13
	ORG $+3
	DD	06e83H
	DD	0b9H
	DB	0d0H, 0baH, 0d0H, 0baH, 0d5H, 0a6H, 0deH, 0d9H, 00H
	ORG $+8
	ORG $+3
	DD	06e84H
	DD	0baH
	DB	'??', 0d0H, 0baH, 00H
	ORG $+12
	ORG $+3
	DD	06e85H
	DD	0bbH
	DB	0d0H, 0f4H, '?', 00H
	ORG $+13
	ORG $+3
	DD	06e86H
	DD	0c0H
	DB	'??', 0d5H, 0a6H, 0deH, 0d9H, 00H
	ORG $+10
	ORG $+3
	DD	06e8dH
	DD	0c1H
	DB	0f1H, 0a7H, 0eeH, 0e8H, 0d5H, 0a6H, 0deH, 0d9H, 00H
	ORG $+8
	ORG $+3
	DD	06e8eH
	DD	0c2H
	DB	0f7H, 0e9H, '??', 0ebH, 0daH, 00H
	ORG $+10
	ORG $+3
	DD	06e8fH
	DD	0c3H
	DB	0f4H, 0deH, 0d5H, 0c3H, 0e1H, 0b6H, 0ecH, 0a5H, '?', 00H
	ORG $+7
	ORG $+3
	DD	06e90H
	DD	0c8H
	DB	0f8H, 0d6H, 0ecH, 0a5H, 0d3H, 0ecH, 00H
	ORG $+10
	ORG $+3
	DD	06e97H
	DD	0c9H
	DB	0d8H, 0a4H, 0d1H, 0d6H, 0e0H, 0a4H, 0dcH, 0c5H, 00H
	ORG $+8
	ORG $+3
	DD	06e98H
	DD	0caH
	DB	'?', 0ecH, 0a5H, '?', 0ebH, 0daH, 00H
	ORG $+10
	ORG $+3
	DD	06e99H
	DD	0cbH
	DB	0d5H, 0c3H, 0ecH, 0a5H, '?', 0ebH, 0daH, 00H
	ORG $+9
	ORG $+3
	DD	06e9aH
	DD	0d0H
	DB	0deH, 0c8H, 0d2H, 0fdH, 0d5H, 0c3H, 0d0H, 0f4H, '?', 00H
	ORG $+7
	ORG $+3
	DD	06ea1H
	DD	0d1H
	DB	'?', 0daH, 0b8H, 0d5H, 0a6H, 0deH, 0d9H, 00H
	ORG $+9
	ORG $+3
	DD	06ea2H
	DD	0d2H
	DB	0e4H, 0b9H, 0d7H, 0d7H, '?', 0d5H, 0a6H, 0deH, 0d9H, 00H
	ORG $+7
	ORG $+3
	DD	06ea3H
	DD	0d3H
	DB	'?', 0ecH, 0a5H, '?', 0d5H, 0a6H, 0deH, 0d9H, 00H
	ORG $+8
	ORG $+3
	DD	06ea4H
	DD	0d4H
	DB	0d5H, 0c3H, 0caH, 0a6H, 0d5H, 0c3H, 0deH, 0d9H, 00H
	ORG $+8
	ORG $+3
	DD	06ea5H
	DD	0d8H
	DB	0dbH, 0c0H, 0d5H, 0a6H, 0d5H, 0a6H, 0d0H, 0baH, 0deH, 0d9H
	DB	00H
	ORG $+6
	ORG $+3
	DD	06eabH
	DD	0d9H
	DB	'???', 0deH, 0d9H, 00H
	ORG $+11
	ORG $+3
	DD	06eacH
	DD	0daH
	DB	0caH, 0a6H, 0d7H, 0d7H, 0d2H, 0fdH, 0d5H, 0a6H, 0deH, 0d9H
	DB	00H
	ORG $+6
	ORG $+3
	DD	06eadH
	DD	0dbH
	DB	'?', 0deH, 0d9H, 0d2H, 0fdH, 0d5H, 0a6H, 0deH, 0d9H, 00H
	ORG $+7
	ORG $+3
	DD	06eaeH
	DD	04H
	DB	0fdH, 0d9H, '?', 0d5H, 0f4H, 00H
	ORG $+11
	ORG $+3
	DD	06d65H
	DD	044H
	DB	0d5H, 0a6H, 0d0H, 0baH, 0deH, 0d9H, 00H
	ORG $+10
	ORG $+3
	DD	06db5H
	DD	045H
	DB	0e4H, 0b9H, 0ecH, 0a5H, '?', 00H
	ORG $+11
	ORG $+3
	DD	06db6H
	DD	046H
	DB	0ccH, 0abH, 0d5H, 0a6H, 0ccH, 0abH, '?', 00H
	ORG $+9
	ORG $+3
	DD	06db7H
	DD	047H
	DB	'?', 0d5H, 0a6H, '?', 0ebH, 0daH, 00H
	ORG $+10
	ORG $+3
	DD	06db8H
	DD	034H
	DB	0dbH, 0daH, 0d0H, 0baH, '?', 00H
	ORG $+11
	ORG $+3
	DD	06da1H
	DD	04cH
	DB	0f8H, 0d6H, '??', 00H
	ORG $+12
	ORG $+3
	DD	06dbfH
	DD	06cH
	DB	0f8H, 0d6H, '??', 00H
	ORG $+12
	ORG $+3
	DD	06e0fH
	DD	0a4H
	DB	'????', 00H
	ORG $+12
	ORG $+3
	DD	06e5fH
	DD	0ffffffffH
	DB	0d9H, 0e9H, 00H
	ORG $+14
	ORG $+3
	DD	00H
	DD	0ffffffffH
	DB	0d9H, 0e9H, 00H
	ORG $+14
	ORG $+3
	DD	00H
	DD	0ffffffffH
	DB	0d9H, 0e9H, 00H
	ORG $+14
	ORG $+3
	DD	00H
	DD	0ffffffffH
	DB	0d9H, 0e9H, 00H
	ORG $+14
	ORG $+3
	DD	00H
	DD	0ffffffffH
	DB	0d9H, 0e9H, 00H
	ORG $+14
	ORG $+3
	DD	00H
	DD	0ffffffffH
	DB	0d9H, 0e9H, 00H
	ORG $+14
	ORG $+3
	DD	00H
	DD	0ffffffffH
	DB	0d9H, 0e9H, 00H
	ORG $+14
	ORG $+3
	DD	00H
	DD	0ffffffffH
	DB	0d9H, 0e9H, 00H
	ORG $+14
	ORG $+3
	DD	00H
	DD	0ffffffffH
	DB	0d9H, 0e9H, 00H
	ORG $+14
	ORG $+3
	DD	00H
	DD	0ffffffffH
	DB	0d9H, 0e9H, 00H
	ORG $+14
	ORG $+3
	DD	00H
	DD	0ffffffffH
	DB	0d9H, 0e9H, 00H
	ORG $+14
	ORG $+3
	DD	00H
	DD	0ffffffffH
	DB	0d9H, 0e9H, 00H
	ORG $+14
	ORG $+3
	DD	00H
	DD	0ffffffffH
	DB	0d9H, 0e9H, 00H
	ORG $+14
	ORG $+3
	DD	00H
	DD	0ffffffffH
	DB	0d9H, 0e9H, 00H
	ORG $+14
	ORG $+3
	DD	00H
	DD	0ffffffffH
	DB	0d9H, 0e9H, 00H
	ORG $+14
	ORG $+3
	DD	00H
	DD	0ffffffffH
	DB	0d9H, 0e9H, 00H
	ORG $+14
	ORG $+3
	DD	00H
	DD	0ffffffffH
	DB	0d9H, 0e9H, 00H
	ORG $+14
	ORG $+3
	DD	00H
	DD	0ffffffffH
	DB	0d9H, 0e9H, 00H
	ORG $+14
	ORG $+3
	DD	00H
	DD	0ffffffffH
	DB	0d9H, 0e9H, 00H
	ORG $+14
	ORG $+3
	DD	00H
	DD	0ffffffffH
	DB	0d9H, 0e9H, 00H
	ORG $+14
	ORG $+3
	DD	00H
	DD	0ffffffffH
	DB	0d9H, 0e9H, 00H
	ORG $+14
	ORG $+3
	DD	00H
	DD	0ffffffffH
	DB	0d9H, 0e9H, 00H
	ORG $+14
	ORG $+3
	DD	00H
	DD	0ffffffffH
	DB	0d9H, 0e9H, 00H
	ORG $+14
	ORG $+3
	DD	00H
	DD	0ffffffffH
	DB	0d9H, 0e9H, 00H
	ORG $+14
	ORG $+3
	DD	00H
	DD	0ffffffffH
	DB	0d9H, 0e9H, 00H
	ORG $+14
	ORG $+3
	DD	00H
	DD	0ffffffffH
	DB	0d9H, 0e9H, 00H
	ORG $+14
	ORG $+3
	DD	00H
	DD	0ffffffffH
	DB	0d9H, 0e9H, 00H
	ORG $+14
	ORG $+3
	DD	00H
	DD	0ffffffffH
	DB	0d9H, 0e9H, 00H
	ORG $+14
	ORG $+3
	DD	00H
	DD	0ffffffffH
	DB	0d9H, 0e9H, 00H
	ORG $+14
	ORG $+3
	DD	00H
	DD	0ffffffffH
	DB	0d9H, 0e9H, 00H
	ORG $+14
	ORG $+3
	DD	00H
	DD	0ffffffffH
	DB	0d9H, 0e9H, 00H
	ORG $+14
	ORG $+3
	DD	00H
	DD	0ffffffffH
	DB	0d9H, 0e9H, 00H
	ORG $+14
	ORG $+3
	DD	00H
	DD	0ffffffffH
	DB	0d9H, 0e9H, 00H
	ORG $+14
	ORG $+3
	DD	00H
	DD	0ccH
	DB	0dbH, 0c0H, '??', 0ebH, 0daH, 00H
	ORG $+10
	ORG $+3
	DD	06e9bH
	DD	05H
	DB	'???', 0d5H, 0f4H, 00H
	ORG $+11
	ORG $+3
	DD	06d66H
	DD	06H
	DB	'?', 0d5H, 0f4H, '?', 0d3H, 0ecH, 00H
	ORG $+10
	ORG $+3
	DD	06d67H
	DD	07H
	DB	'?', 0d5H, 0f4H, 0cdH, 0b3H, 0d5H, 0f4H, 00H
	ORG $+9
	ORG $+3
	DD	06d68H
	DD	0dH
	DB	0f8H, 0d6H, 0ebH, 0eeH, 0f8H, 0d6H, '?', 00H
	ORG $+9
	ORG $+3
	DD	06d70H
	DD	0eH
	DB	0f8H, 0d6H, 0ebH, 0eeH, 0f8H, 0d6H, 0ebH, 0eeH, 00H
	ORG $+8
	ORG $+3
	DD	06d71H
	DD	0fH
	DB	0f8H, 0d6H, 0ebH, 0eeH, '?', 00H
	ORG $+11
	ORG $+3
	DD	06d72H
	DD	014H
	DB	0caH, 0a5H, 0caH, 0a5H, 00H
	ORG $+12
	ORG $+3
	DD	06d79H
	DD	015H
	DB	0caH, 0a5H, 0deH, 0d9H, '?', 00H
	ORG $+11
	ORG $+3
	DD	06d7aH
	DD	016H
	DB	0caH, 0a5H, 0ccH, 0abH, 0d6H, 0f4H, 0ebH, 0eeH, 00H
	ORG $+8
	ORG $+3
	DD	06d7bH
	DD	017H
	DB	0ddH, 0efH, 0ddH, 0efH, 0caH, 0a5H, 00H
	ORG $+10
	ORG $+3
	DD	06d7cH
	DD	01cH
	DB	'??', 0ebH, 0eeH, 00H
	ORG $+12
	ORG $+3
	DD	06d83H
	DD	01dH
	DB	0eaH, 0ceH, 0deH, 0d9H, 00H
	ORG $+12
	ORG $+3
	DD	06d84H
	DD	01eH
	DB	0eaH, 0ceH, 0ddH, 0efH, 00H
	ORG $+12
	ORG $+3
	DD	06d85H
	DD	01fH
	DB	'?', 0d5H, 0c3H, 0d5H, 0c3H, 00H
	ORG $+11
	ORG $+3
	DD	06d86H
	DD	024H
	DB	'?', 0d5H, 0a6H, 0d1H, 0d1H, 00H
	ORG $+11
	ORG $+3
	DD	06d8dH
	DD	025H
	DB	'?', 0d5H, 0a6H, 0ccH, 0abH, 00H
	ORG $+11
	ORG $+3
	DD	06d8eH
	DD	026H
	DB	'?', 0d5H, 0a6H, '?', 00H
	ORG $+12
	ORG $+3
	DD	06d8fH
	DD	027H
	DB	'?', 0d5H, 0a6H, 0f7H, 0eeH, 0f7H, 0eeH, 00H
	ORG $+9
	ORG $+3
	DD	06d90H
	DD	02cH
	DB	'??', 00H
	ORG $+14
	ORG $+3
	DD	06d97H
	DD	02dH
	DB	'?', 0d5H, 0c3H, 0ccH, 0abH, '?', 00H
	ORG $+10
	ORG $+3
	DD	06d98H
	DD	02eH
	DB	'?', 0f1H, 0fdH, '?', 00H
	ORG $+12
	ORG $+3
	DD	06d99H
	DD	02fH
	DB	'?', 0d5H, 0c3H, '?', 00H
	ORG $+12
	ORG $+3
	DD	06d9aH
	DD	035H
	DB	0d2H, 0f9H, 0caH, 0a5H, 0deH, 0d9H, 00H
	ORG $+10
	ORG $+3
	DD	06da2H
	DD	036H
	DB	0d2H, 0f9H, 0d0H, 0f1H, 0deH, 0d9H, 00H
	ORG $+10
	ORG $+3
	DD	06da3H
	DD	037H
	DB	0f7H, 0e5H, 0d5H, 0a6H, 0caH, 0a6H, 0deH, 0d9H, 00H
	ORG $+8
	ORG $+3
	DD	06da4H
	DD	03cH
	DB	0fbH, 0bcH, 0f7H, 0eeH, 0f7H, 0eeH, 00H
	ORG $+10
	ORG $+3
	DD	06dabH
	DD	03dH
	DB	0fbH, 0bcH, '??', 00H
	ORG $+12
	ORG $+3
	DD	06dacH
	DD	03eH
	DB	'?', 0d5H, 0c3H, 0d0H, 0ecH, 0deH, 0d9H, 00H
	ORG $+9
	ORG $+3
	DD	06dadH
	DD	03fH
	DB	0d5H, 0c3H, 0d0H, 0f4H, 0deH, 0d9H, 0deH, 0d9H, 00H
	ORG $+8
	ORG $+3
	DD	06daeH
	DD	04dH
	DB	0dbH, 0c0H, '?', 0deH, 0d9H, 0d1H, 0d6H, 00H
	ORG $+9
	ORG $+3
	DD	06dc0H
	DD	04eH
	DB	'?', 0ccH, 0abH, 0deH, 0d9H, 00H
	ORG $+11
	ORG $+3
	DD	06dc1H
	DD	04fH
	DB	0eeH, 0e8H, 0d0H, 0f1H, 0ccH, 0abH, 0deH, 0d9H, 00H
	ORG $+8
	ORG $+3
	DD	06dc2H
	DD	054H
	DB	0d0H, 0baH, 0d5H, 0c3H, '?', 00H
	ORG $+11
	ORG $+3
	DD	06dc9H
	DD	055H
	DB	0d5H, 0c3H, 0deH, 0d9H, 0d0H, 0f1H, 00H
	ORG $+10
	ORG $+3
	DD	06dcaH
	DD	056H
	DB	0d7H, 0ecH, 0d5H, 0c3H, 0d5H, 0c3H, 00H
	ORG $+10
	ORG $+3
	DD	06dcbH
	DD	057H
	DB	0d0H, 0baH, '??', 00H
	ORG $+12
	ORG $+3
	DD	06dccH
	DD	05cH
	DB	'??', 0f7H, 0e5H, 00H
	ORG $+12
	ORG $+3
	DD	06dd3H
	DD	05dH
	DB	0cdH, 0e0H, 0ebH, 0eeH, 0f7H, 0e5H, 00H
	ORG $+10
	ORG $+3
	DD	06dd4H
	DD	05eH
	DB	0ddH, 0efH, 0f7H, 0e5H, 00H
	ORG $+12
	ORG $+3
	DD	06dd5H
	DD	05fH
	DB	0caH, 0a6H, '?', 0f7H, 0e5H, 00H
	ORG $+11
	ORG $+3
	DD	06dd6H
	DD	064H
	DB	0deH, 0c9H, '??', 00H
	ORG $+12
	ORG $+3
	DD	06df1H
	DD	065H
	DB	0ccH, 0abH, '?', 0fdH, 0f1H, 0d5H, 0a6H, 00H
	ORG $+9
	ORG $+3
	DD	06df2H
	DD	066H
	DB	0d8H, 0deH, '?? ', 00H
	ORG $+11
	ORG $+3
	DD	06df3H
	DD	067H
	DB	0cdH, 0fcH, 0d4H, 0f4H, '??', 00H
	ORG $+10
	ORG $+3
	DD	06df4H
	DD	06dH
	DB	'??', 00H
	ORG $+14
	ORG $+3
	DD	06e10H
	DD	06eH
	DB	0dfH, 0faH, 0d3H, 0ecH, '?', 00H
	ORG $+11
	ORG $+3
	DD	06e11H
	DD	06fH
	DB	0d9H, 0beH, '?', 00H
	ORG $+13
	ORG $+3
	DD	06e12H
	DD	074H
	DB	'?', 0d7H, 0f9H, 0d1H, 0ceH, '?', 00H
	ORG $+10
	ORG $+3
	DD	06e19H
	DD	075H
	DB	0deH, 0c8H, '??', 00H
	ORG $+12
	ORG $+3
	DD	06e1aH
	DD	076H
	DB	0e5H, 0adH, 0dcH, 0c5H, '?', 00H
	ORG $+11
	ORG $+3
	DD	06e1bH
	DD	077H
	DB	0f7H, 0f4H, 0d5H, 0c3H, 0f7H, 0f4H, 00H
	ORG $+10
	ORG $+3
	DD	06e1cH
	DD	07cH
	DB	0dcH, 0c5H, '?', 0f9H, 0beH, 00H
	ORG $+11
	ORG $+3
	DD	06e23H
	DD	07dH
	DB	0f8H, 0a5H, 0d6H, 0daH, 0f9H, 0beH, 00H
	ORG $+10
	ORG $+3
	DD	06e24H
	DD	07eH
	DB	'?', 0ccH, 0abH, '?', 00H
	ORG $+12
	ORG $+3
	DD	06e25H
	DD	07fH
	DB	'?', 0deH, 0d9H, '??', 00H
	ORG $+11
	ORG $+3
	DD	06e26H
	DD	084H
	DB	'?', 0efH, 0cbH, 0f8H, 0d6H, 0deH, 0d9H, 00H
	ORG $+9
	ORG $+3
	DD	06e37H
	DD	085H
	DB	0caH, 0a5H, 0e5H, 0adH, 0f8H, 0d6H, 0deH, 0d9H, 00H
	ORG $+8
	ORG $+3
	DD	06e38H
	DD	086H
	DB	0eeH, 0e8H, 0daH, 0b7H, 0f8H, 0d6H, 0deH, 0d9H, 00H
	ORG $+8
	ORG $+3
	DD	06e39H
	DD	087H
	DB	'?', 0d5H, 0a6H, 0f8H, 0d6H, 0deH, 0d9H, 00H
	ORG $+9
	ORG $+3
	DD	06e3aH
	DD	08cH
	DB	0eeH, 0e8H, 0caH, 0a5H, 00H
	ORG $+12
	ORG $+3
	DD	06e41H
	DD	08dH
	DB	0deH, 0e3H, '?', 00H
	ORG $+13
	ORG $+3
	DD	06e42H
	DD	08eH
	DB	0f7H, 0eeH, 0f7H, 0eeH, '?', 00H
	ORG $+11
	ORG $+3
	DD	06e43H
	DD	08fH
	DB	0d8H, 0deH, '?', 0deH, 0edH, 00H
	ORG $+11
	ORG $+3
	DD	06e44H
	DD	094H
	DB	0e9H, 0d6H, 0d7H, 0ecH, 0e8H, 0c3H, 00H
	ORG $+10
	ORG $+3
	DD	06e4bH
	DD	095H
	DB	'?', 0d7H, 0ecH, 0e8H, 0c3H, 00H
	ORG $+11
	ORG $+3
	DD	06e4cH
	DD	096H
	DB	0e4H, 0f5H, '?', 0e8H, 0c3H, 00H
	ORG $+11
	ORG $+3
	DD	06e4dH
	DD	097H
	DB	0d7H, 0ecH, '?', 0e8H, 0c3H, 00H
	ORG $+11
	ORG $+3
	DD	06e4eH
	DD	09cH
	DB	'?', 0e3H, 0a2H, 0deH, 0a3H, 00H
	ORG $+11
	ORG $+3
	DD	06e55H
	DD	09dH
	DB	0d8H, 0b0H, 0d5H, 0c3H, 0deH, 0c9H, 00H
	ORG $+10
	ORG $+3
	DD	06e56H
	DD	09eH
	DB	'?', 0deH, 0d9H, 0f7H, 0e5H, 00H
	ORG $+11
	ORG $+3
	DD	06e57H
	DD	09fH
	DB	0deH, 0deH, 0e8H, 0bfH, 0d6H, 0aaH, 00H
	ORG $+10
	ORG $+3
	DD	06e58H
	DD	0a5H
	DB	'??', 0d5H, 0c3H, 00H
	ORG $+12
	ORG $+3
	DD	06e60H
	DD	0a6H
	DB	0caH, 0a8H, 0deH, 0d9H, 0caH, 0a8H, 0deH, 0d9H, 00H
	ORG $+8
	ORG $+3
	DD	06e61H
	DD	0a7H
	DB	0d9H, 0d5H, 0caH, 0a8H, 0d5H, 0c3H, 0deH, 0d9H, 00H
	ORG $+8
	ORG $+3
	DD	06e62H
	DD	0acH
	DB	0cdH, 0b3H, 0d5H, 0f4H, 0d8H, 0a4H, 00H
	ORG $+10
	ORG $+3
	DD	06e69H
	DD	0adH
	DB	0d8H, 0a4H, 0d1H, 0ceH, 0d8H, 0a4H, 0d1H, 0ceH, 00H
	ORG $+8
	ORG $+3
	DD	06e6aH
	DD	0aeH
	DB	0d8H, 0a4H, 0daH, 0b7H, 0dfH, 0e3H, 0d5H, 0c3H, 00H
	ORG $+8
	ORG $+3
	DD	06e6bH
	DD	0afH
	DB	0d8H, 0a4H, 0fbH, 0e5H, '?', 00H
	ORG $+11
	ORG $+3
	DD	06e6cH
	DD	0b4H
	DB	0caH, 0a6H, 0caH, 0a6H, 0ebH, 0daH, 00H
	ORG $+10
	ORG $+3
	DD	06e73H
	DD	0b5H
	DB	0d0H, 0baH, 0d5H, 0a6H, 0ebH, 0daH, 00H
	ORG $+10
	ORG $+3
	DD	06e74H
	DD	0b6H
	DB	0f8H, 0d6H, '?', 0ebH, 0daH, 00H
	ORG $+11
	ORG $+3
	DD	06e75H
	DD	0b7H
	DB	0eeH, 0e8H, 0f8H, 0d6H, 0ebH, 0daH, 00H
	ORG $+10
	ORG $+3
	DD	06e76H
	DD	0bcH
	DB	0ccH, 0abH, 0d7H, 0ecH, '?', 00H
	ORG $+11
	ORG $+3
	DD	06e87H
	DD	0bdH
	DB	0d8H, 0a4H, 0d7H, 0ecH, 00H
	ORG $+12
	ORG $+3
	DD	06e88H
	DD	0beH
	DB	0dfH, 0faH, 0d7H, 0ecH, 0e0H, 0a4H, '?', 00H
	ORG $+9
	ORG $+3
	DD	06e89H
	DD	0bfH
	DB	0f7H, 0b2H, 0deH, 0d9H, 0dcH, 0fdH, 00H
	ORG $+10
	ORG $+3
	DD	06e8aH
	DD	0c4H
	DB	'?', 0f7H, 0e9H, 0d2H, 0afH, 0f7H, 0e5H, 00H
	ORG $+9
	ORG $+3
	DD	06e91H
	DD	0c5H
	DB	0daH, 0e8H, 0d2H, 0f9H, 0eeH, 0e8H, 0d0H, 0baH, 00H
	ORG $+8
	ORG $+3
	DD	06e92H
	DD	0c6H
	DB	0e4H, 0b9H, 0daH, 0b7H, '?', 00H
	ORG $+11
	ORG $+3
	DD	06e93H
	DD	0c7H
	DB	0dbH, 0c0H, 0deH, 0c9H, 0d5H, 0d8H, '?', 00H
	ORG $+9
	ORG $+3
	DD	06e94H
	DD	0cdH
	DB	0f8H, 0d6H, '??', 00H
	ORG $+12
	ORG $+3
	DD	06e9cH
	DD	0ceH
	DB	0f8H, 0d6H, 0ebH, 0eeH, '?', 0deH, 0d9H, 00H
	ORG $+9
	ORG $+3
	DD	06e9dH
	DD	0cfH
	DB	0ecH, 0a5H, 0dcH, 0fdH, '?', 0ebH, 0daH, 00H
	ORG $+9
	ORG $+3
	DD	06e9eH
	DD	0d5H
	DB	'?', 0d9H, 0b5H, 0d5H, 0a6H, 0deH, 0d9H, 00H
	ORG $+9
	ORG $+3
	DD	06ea6H
	DD	0d6H
	DB	0f1H, 0b9H, 0d7H, 0d7H, 0d5H, 0a6H, 0deH, 0d9H, 00H
	ORG $+8
	ORG $+3
	DD	06ea7H
	DD	0d7H
	DB	0e3H, 0f4H, 0dcH, 0c5H, 0d5H, 0a6H, 0deH, 0d9H, 00H
	ORG $+8
	ORG $+3
	DD	06ea8H
	DD	0dcH
	DB	0d8H, 0a1H, 0d4H, 0e1H, '?', 0deH, 0d9H, 00H
	ORG $+9
	ORG $+3
	DD	06eafH
	DD	0ddH
	DB	'?', 0d0H, 0baH, 0deH, 0d9H, 00H
	ORG $+11
	ORG $+3
	DD	06eb0H
	DD	0deH
	DB	0f7H, 0e9H, 0d0H, 0baH, '?', 0deH, 0c9H, 00H
	ORG $+9
	ORG $+3
	DD	06eb1H
	DD	0dfH
	DB	0d6H, 0f4H, 0d3H, 0ecH, 0d5H, 0f4H, 0d0H, 0baH, 0deH, 0d9H
	DB	00H
	ORG $+6
	ORG $+3
	DD	06eb2H
	DD	0e0H
	DB	0caH, 0e7H, 0d6H, 0f4H, 0d0H, 0f1H, '?', 00H
	ORG $+9
	ORG $+3
	DD	06eb7H
	DD	0e1H
	DB	0caH, 0e7H, 0d6H, 0f4H, 0d5H, 0a6H, 0ddH, 0efH, 00H
	ORG $+8
	ORG $+3
	DD	06eb5H
	DD	0e2H
	DB	0caH, 0e7H, 0d6H, 0f4H, 0d1H, 0ceH, '?', 00H
	ORG $+9
	ORG $+3
	DD	06eb6H
	DD	0e3H
	DB	0caH, 0e7H, 0d6H, 0f4H, '?', 0ebH, 0daH, 00H
	ORG $+9
	ORG $+3
	DD	06eb8H
	DD	0e4H
	DB	0d1H, 0ceH, 0ddH, 0efH, 00H
	ORG $+12
	ORG $+3
	DD	06ebfH
	DD	0e5H
	DB	'?', 0ebH, 0daH, 00H
	ORG $+13
	ORG $+3
	DD	06ec0H
	DD	0e6H
	DB	0deH, 0c8H, '?', 0d7H, 0cdH, '?', 00H
	ORG $+10
	ORG $+3
	DD	06ec3H
	DD	0e7H
	DB	0cdH, 0afH, 0deH, 0d9H, 0f7H, 0e5H, 00H
	ORG $+10
	ORG $+3
	DD	06ec2H
	DD	0e8H
	DB	'?', 0ebH, 0daH, 0ccH, 0abH, 0d4H, 0f4H, 00H
	ORG $+9
	ORG $+3
	DD	06ec6H
	DD	0e9H
	DB	'?', 0ebH, 0daH, 0daH, 0b7H, '?', 00H
	ORG $+10
	ORG $+3
	DD	06ec4H
	DD	0eaH
	DB	'?', 0ebH, 0daH, 0dbH, 0f6H, '?', 00H
	ORG $+10
	ORG $+3
	DD	06ec5H
	DD	0ebH
	DB	'?', 0ebH, 0daH, 0e1H, 0f3H, 0ddH, 0efH, 00H
	ORG $+9
	ORG $+3
	DD	06ec7H
	DD	0ecH
	DB	'?', 0ddH, 0efH, 00H
	ORG $+13
	ORG $+3
	DD	06ec8H
	DD	0edH
	DB	0d9H, 0d5H, 0d0H, 0f4H, 00H
	ORG $+12
	ORG $+3
	DD	06ecaH
	DD	0eeH
	DB	0deH, 0a3H, 0d0H, 0f4H, '?', 00H
	ORG $+11
	ORG $+3
	DD	06ec9H
	DD	0efH
	DB	0e4H, 0f5H, 0eeH, 0e8H, 0fdH, 0f1H, 0d5H, 0a6H, 00H
	ORG $+8
	ORG $+3
	DD	06ecbH
	DD	0f0H
	DB	0d6H, 0f4H, 0ebH, 0daH, 0f7H, 0e9H, 0d0H, 0e9H, 00H
	ORG $+8
	ORG $+3
	DD	06eccH
	DD	0f1H
	DB	0dbH, 0f6H, '?', 0f7H, 0e9H, 0d0H, 0e9H, 00H
	ORG $+9
	ORG $+3
	DD	06ecdH
	DD	0f2H
	DB	0d0H, 0f4H, '?', 0f7H, 0e9H, 0d0H, 0e9H, 00H
	ORG $+9
	ORG $+3
	DD	06ecfH
	DD	0f3H
	DB	0ccH, 0abH, 0d7H, 0f9H, 0f7H, 0e9H, 0d0H, 0e9H, 00H
	ORG $+8
	ORG $+3
	DD	06eceH
	DD	0f4H
	DB	0eeH, 0e1H, '?', 0d7H, 0ecH, 0ebH, 0daH, 00H
	ORG $+9
	ORG $+3
	DD	06ed0H
	DD	0f5H
	DB	0faH, 0d3H, 0d5H, 0c3H, 0d0H, 0baH, 0d7H, 0cdH, 0deH, 0d9H
	DB	00H
	ORG $+6
	ORG $+3
	DD	06ed1H
	DD	0f6H
	DB	0daH, 0b7H, '?', 0d2H, 0fdH, 00H
	ORG $+11
	ORG $+3
	DD	06ed4H
	DD	0f7H
	DB	0d2H, 0fdH, '?', 0d2H, 0fdH, 00H
	ORG $+11
	ORG $+3
	DD	06ed5H
	DD	0f8H
	DB	0f8H, 0d6H, '?', 0d8H, 0a4H, 00H
	ORG $+11
	ORG $+3
	DD	06ed6H
	DD	0f9H
	DB	0d5H, 0a6H, 0d0H, 0f4H, 0deH, 0d9H, 0d3H, 0ecH, 00H
	ORG $+8
	ORG $+3
	DD	06ed2H
	DD	0faH
	DB	'?', 0d1H, 0e1H, 00H
	ORG $+13
	ORG $+3
	DD	06ed3H
	DD	0fbH
	DB	'??', 0deH, 0d9H, 00H
	ORG $+12
	ORG $+3
	DD	06ed7H
	DD	0fcH
	DB	0d6H, 0f4H, '?', 0f7H, 0e5H, 00H
	ORG $+11
	ORG $+3
	DD	06ed8H
	DD	0fdH
	DB	0deH, 0a3H, 0deH, 0d9H, '?', 00H
	ORG $+11
	ORG $+3
	DD	06ed9H
	DD	0feH
	DB	'???', 00H
	ORG $+13
	ORG $+3
	DD	06edaH
	DD	0ffH
	DB	0deH, 0c8H, 0d2H, 0afH, 0d0H, 0baH, 0f7H, 0e5H, 00H
	ORG $+8
	ORG $+3
	DD	06edbH
	DD	0100H
	DB	0caH, 0e7H, 0d7H, 0d7H, 0deH, 0d9H, 0d2H, 0afH, 00H
	ORG $+8
	ORG $+3
	DD	06edcH
	DD	0101H
	DB	0e4H, 0f5H, 0ddH, 0efH, 0deH, 0d9H, 00H
	ORG $+10
	ORG $+3
	DD	06eddH
	DD	0102H
	DB	0d5H, 0c3H, 0f7H, 0e5H, 0d7H, 0d7H, 00H
	ORG $+10
	ORG $+3
	DD	06edeH
	DD	0103H
	DB	'?', 0ccH, 0abH, 0e4H, 0f5H, 0deH, 0d9H, 00H
	ORG $+9
	ORG $+3
	DD	06edfH
	DD	0104H
	DB	'?', 0ddH, 0efH, 0deH, 0d9H, 00H
	ORG $+11
	ORG $+3
	DD	06ee0H
	DD	0105H
	DB	0e4H, 0b9H, '?', 0e0H, 0a4H, 0deH, 0d9H, 00H
	ORG $+9
	ORG $+3
	DD	06ee1H
	DD	0106H
	DB	0d5H, 0a6H, 0caH, 0a6H, 0d5H, 0a6H, 0deH, 0d9H, 00H
	ORG $+8
	ORG $+3
	DD	06ee2H
	DD	0107H
	DB	0dbH, 0f6H, '?', 0d9H, 0d5H, 0f7H, 0e5H, 00H
	ORG $+9
	ORG $+3
	DD	06ee3H
	DD	0108H
	DB	0d6H, 0f4H, 0ccH, 0abH, 0f7H, 0e5H, 00H
	ORG $+10
	ORG $+3
	DD	06ee4H
	DD	0109H
	DB	0d5H, 0a6H, 0d0H, 0baH, '?', 00H
	ORG $+11
	ORG $+3
	DD	06ee5H
	DD	010aH
	DB	0daH, 0b7H, 0ebH, 0daH, 0deH, 0d9H, 0f7H, 0e5H, 00H
	ORG $+8
	ORG $+3
	DD	06ee6H
	DD	010bH
	DB	0d7H, 0d7H, 0e0H, 0a4H, '?', 00H
	ORG $+11
	ORG $+3
	DD	06ee7H
	DD	010cH
	DB	0f8H, 0a5H, '??', 00H
	ORG $+12
	ORG $+3
	DD	06ee8H
	DD	010dH
	DB	0ecH, 0a5H, 0d7H, 0d7H, 0d8H, 0baH, '?', 00H
	ORG $+9
	ORG $+3
	DD	06ee9H
	DD	010eH
	DB	'?', 0d5H, 0f4H, 0d5H, 0a6H, '?', 00H
	ORG $+10
	ORG $+3
	DD	06eeaH
	DD	010fH
	DB	'?', 0dcH, 0c5H, '?', 0deH, 0d9H, 00H
	ORG $+10
	ORG $+3
	DD	06eebH
	DD	0110H
	DB	0d7H, 0d7H, 0dcH, 0c5H, 0d2H, 0fdH, '?', 00H
	ORG $+9
	ORG $+3
	DD	06eecH
	DD	0111H
	DB	0dbH, 0c0H, 0d0H, 0baH, 0dcH, 0c5H, 0deH, 0d9H, 00H
	ORG $+8
	ORG $+3
	DD	06eeeH
	DD	0112H
	DB	0d5H, 0c3H, 0ddH, 0d6H, 0d5H, 0a6H, 0deH, 0d9H, 00H
	ORG $+8
	ORG $+3
	DD	06eedH
	DD	0113H
	DB	0eeH, 0e8H, '?', 0cdH, 0afH, 0deH, 0d9H, 00H
	ORG $+9
	ORG $+3
	DD	06eefH
	DD	0114H
	DB	'??', 0cdH, 0afH, 0deH, 0d9H, 00H
	ORG $+10
	ORG $+3
	DD	06ef0H
	DD	0115H
	DB	'?', 0d5H, 0a6H, 0dcH, 0c5H, 00H
	ORG $+11
	ORG $+3
	DD	06ef1H
	DD	0116H
	DB	'?', 0d0H, 0baH, 0dcH, 0c5H, 00H
	ORG $+11
	ORG $+3
	DD	06ef2H
	DD	0117H
	DB	0e0H, 0a4H, 0e1H, 0f3H, 00H
	ORG $+12
	ORG $+3
	DD	06ef3H
	DD	0118H
	DB	0f9H, 0ebH, '?', 0e1H, 0f3H, 00H
	ORG $+11
	ORG $+3
	DD	06ef4H
	DD	0119H
	DB	0ddH, 0d7H, 0d7H, 0d7H, 0e1H, 0f3H, 00H
	ORG $+10
	ORG $+3
	DD	06ef5H
	DD	011aH
	DB	0f7H, 0e9H, 0d7H, 0d7H, 00H
	ORG $+12
	ORG $+3
	DD	06ef6H
	DD	011bH
	DB	0e4H, 0baH, 0f7H, 0e5H, 0d5H, 0c3H, 0deH, 0d9H, 00H
	ORG $+8
	ORG $+3
	DD	06efbH
	DD	011cH
	DB	0ecH, 0a5H, 0d7H, 0d7H, '?', 0d3H, 0ecH, 00H
	ORG $+9
	ORG $+3
	DD	06efaH
	DD	011dH
	DB	0daH, 0b7H, 0d2H, 0f9H, 0d2H, 0afH, 0f7H, 0e9H, 00H
	ORG $+8
	ORG $+3
	DD	06ef8H
	DD	011eH
	DB	0d3H, 0ecH, 0d5H, 0c3H, 0deH, 0d9H, 00H
	ORG $+10
	ORG $+3
	DD	06ef7H
	DD	011fH
	DB	0ceH, 0a1H, '?', 0f7H, 0e5H, 00H
	ORG $+11
	ORG $+3
	DD	06ef9H
	DD	0120H
	DB	0dbH, 0c0H, '?', 0d7H, 0ecH, 00H
	ORG $+11
	ORG $+3
	DD	06efcH
	DD	0121H
	DB	0caH, 0a5H, 0d6H, 0f4H, 00H
	ORG $+12
	ORG $+3
	DD	06efdH
	DD	0122H
	DB	0caH, 0a5H, 0cdH, 0afH, 0f7H, 0e5H, 00H
	ORG $+10
	ORG $+3
	DD	06efeH
	DD	0123H
	DB	0dbH, 0c0H, 0e0H, 0a4H, 0dcH, 0c5H, 00H
	ORG $+10
	ORG $+3
	DD	06effH
	DD	0124H
	DB	0ecH, 0a5H, '???', 00H
	ORG $+11
	ORG $+3
	DD	06f00H
	DD	0125H
	DB	0d5H, 0c3H, 0ccH, 0abH, 0d2H, 0fdH, '?', 00H
	ORG $+9
	ORG $+3
	DD	06f01H
	DD	0126H
	DB	0e0H, 0a4H, '?', 0d0H, 0baH, '?', 00H
	ORG $+10
	ORG $+3
	DD	06f02H
	DD	0127H
	DB	0d0H, 0baH, '?', 0d1H, 0e1H, 0deH, 0d9H, 00H
	ORG $+9
	ORG $+3
	DD	06f03H
	DD	0128H
	DB	'?', 0daH, 0aaH, 0d3H, 0b1H, 00H
	ORG $+11
	ORG $+3
	DD	06f04H
	DD	0129H
	DB	0f4H, 0deH, 0d2H, 0f9H, 0f8H, 0d6H, 00H
	ORG $+10
	ORG $+3
	DD	06f05H
	DD	012aH
	DB	0f4H, 0deH, 0d2H, 0f9H, '?', 00H
	ORG $+11
	ORG $+3
	DD	06f06H
	DD	012bH
	DB	0f4H, 0deH, 0d2H, 0f9H, 0ebH, 0daH, 00H
	ORG $+10
	ORG $+3
	DD	06f07H
	DD	012cH
	DB	0f4H, 0deH, 0d2H, 0f9H, 0deH, 0d9H, 00H
	ORG $+10
	ORG $+3
	DD	06f08H
	DD	012dH
	DB	'?', 0d5H, 0a6H, 0d0H, 0f4H, 0deH, 0d9H, 00H
	ORG $+9
	ORG $+3
	DD	06f09H
	DD	012eH
	DB	'?', 0d5H, 0a6H, 0caH, 0a6H, 0d7H, 0d7H, 00H
	ORG $+9
	ORG $+3
	DD	06f0aH
	DD	012fH
	DB	'?', 0d5H, 0a6H, '??', 00H
	ORG $+11
	ORG $+3
	DD	06f0bH
	DD	0130H
	DB	'?', 0d5H, 0a6H, 0ddH, 0efH, 0d0H, 0baH, 00H
	ORG $+9
	ORG $+3
	DD	06f0cH
	DD	0131H
	DB	0d6H, 0f4H, 0f0H, 0a8H, 0deH, 0d9H, 0d5H, 0a6H, 00H
	ORG $+8
	ORG $+3
	DD	06f0dH
	DD	0132H
	DB	0deH, 0c8H, '??', 00H
	ORG $+12
	ORG $+3
	DD	06f2bH
	DD	0133H
	DB	0deH, 0c8H, '?', 0f7H, 0e5H, 00H
	ORG $+11
	ORG $+3
	DD	06f2aH
	DD	0134H
	DB	0d5H, 0a6H, 0e4H, 0ccH, 0d0H, 0f4H, 00H
	ORG $+10
	ORG $+3
	DD	06f2eH
	DD	0135H
	DB	0d5H, 0a6H, 0deH, 0d9H, 0d0H, 0baH, 00H
	ORG $+10
	ORG $+3
	DD	06f2fH
	DD	0136H
	DB	0d6H, 0f4H, 0ddH, 0efH, 0f7H, 0e5H, 00H
	ORG $+10
	ORG $+3
	DD	06f2dH
	DD	0137H
	DB	0d5H, 0a6H, 0ddH, 0efH, 0f7H, 0e5H, 00H
	ORG $+10
	ORG $+3
	DD	06f2cH
	DD	0138H
	DB	0e0H, 0a4H, 0dbH, 0daH, 0d0H, 0baH, 00H
	ORG $+10
	ORG $+3
	DD	06f1aH
	DD	0139H
	DB	0f7H, 0e5H, 0d7H, 0d7H, 0deH, 0d9H, 0d0H, 0baH, 00H
	ORG $+8
	ORG $+3
	DD	06f1bH
	DD	013aH
	DB	0deH, 0deH, 0e8H, 0bfH, 0d0H, 0baH, 00H
	ORG $+10
	ORG $+3
	DD	06f0eH
	DD	013bH
	DB	0deH, 0deH, 0d6H, 0aaH, 0d0H, 0baH, 00H
	ORG $+10
	ORG $+3
	DD	06f0fH
	DD	013cH
	DB	0f7H, 0e5H, 0d6H, 0f4H, 0d0H, 0baH, 0d5H, 0a6H, 00H
	ORG $+8
	ORG $+3
	DD	06f34H
	DD	013dH
	DB	0f7H, 0e5H, 0d6H, 0f4H, 0d1H, 0ceH, 0d5H, 0a6H, 00H
	ORG $+8
	ORG $+3
	DD	06f35H
	DD	013eH
	DB	'?', 0caH, 0a6H, 0d5H, 0a6H, 00H
	ORG $+11
	ORG $+3
	DD	06f17H
	DD	013fH
	DB	'?', 0d6H, 0f4H, 0deH, 0d9H, 00H
	ORG $+11
	ORG $+3
	DD	06f16H
	DD	0140H
	DB	0d0H, 0baH, 0d7H, 0d7H, 0d2H, 0fdH, 0deH, 0d9H, 00H
	ORG $+8
	ORG $+3
	DD	06f30H
	DD	0141H
	DB	0d2H, 0fdH, 0d7H, 0d7H, 0caH, 0a6H, 0deH, 0d9H, 00H
	ORG $+8
	ORG $+3
	DD	06f31H
	DD	0142H
	DB	0d2H, 0fdH, '?', 0d0H, 0baH, 00H
	ORG $+11
	ORG $+3
	DD	06f13H
	DD	0143H
	DB	0d1H, 0e1H, '?', 0deH, 0d9H, 00H
	ORG $+11
	ORG $+3
	DD	06f12H
	DD	0144H
	DB	0f7H, 0b2H, 0d0H, 0baH, 00H
	ORG $+12
	ORG $+3
	DD	06f22H
	DD	0145H
	DB	'?', 0f7H, 0e5H, 0dcH, 0c5H, 00H
	ORG $+11
	ORG $+3
	DD	06f23H
	DD	0146H
	DB	0d1H, 0e1H, 0f0H, 0abH, 0d5H, 0c3H, 00H
	ORG $+10
	ORG $+3
	DD	06f36H
	DD	0147H
	DB	0f8H, 0d6H, 0deH, 0d9H, 0eeH, 0e8H, 00H
	ORG $+10
	ORG $+3
	DD	06f37H
	DD	0148H
	DB	0f7H, 0e5H, 0d6H, 0f4H, 0deH, 0deH, 00H
	ORG $+10
	ORG $+3
	DD	06f29H
	DD	0149H
	DB	0dbH, 0daH, 0d5H, 0a6H, 0d3H, 0ecH, 00H
	ORG $+10
	ORG $+3
	DD	06f28H
	DD	014aH
	DB	0deH, 0c8H, 0ddH, 0efH, 0f7H, 0e5H, 00H
	ORG $+10
	ORG $+3
	DD	06f32H
	DD	014bH
	DB	0e4H, 0f5H, 0deH, 0d9H, 0f7H, 0a4H, 00H
	ORG $+10
	ORG $+3
	DD	06f33H
	DD	014cH
	DB	0cbH, 0acH, '?', 0f7H, 0e5H, 00H
	ORG $+11
	ORG $+3
	DD	06f26H
	DD	014dH
	DB	0dbH, 0d7H, 0d5H, 0a6H, 0e0H, 0a4H, 00H
	ORG $+10
	ORG $+3
	DD	06f27H
	DD	014eH
	DB	0e0H, 0a4H, 0cdH, 0c5H, 00H
	ORG $+12
	ORG $+3
	DD	06f19H
	DD	014fH
	DB	'?', 0d1H, 0e1H, 0deH, 0d9H, 00H
	ORG $+11
	ORG $+3
	DD	06f18H
	DD	0150H
	DB	'?', 0f7H, 0e5H, 00H
	ORG $+13
	ORG $+3
	DD	06f15H
	DD	0151H
	DB	'?', 0dbH, 0d7H, 00H
	ORG $+13
	ORG $+3
	DD	06f14H
	DD	0152H
	DB	0f9H, 0beH, 0dcH, 0c5H, 0d3H, 0ecH, 00H
	ORG $+10
	ORG $+3
	DD	06f1cH
	DD	0153H
	DB	0f9H, 0beH, 0deH, 0d9H, 0d3H, 0ecH, 00H
	ORG $+10
	ORG $+3
	DD	06f1dH
	DD	0154H
	DB	0ecH, 0a5H, 0cdH, 0afH, 0d6H, 0f4H, 00H
	ORG $+10
	ORG $+3
	DD	06f24H
	DD	0155H
	DB	0ecH, 0a5H, 0d0H, 0baH, 0d2H, 0fdH, 00H
	ORG $+10
	ORG $+3
	DD	06f25H
	DD	0156H
	DB	0d0H, 0f4H, 0ccH, 0abH, 0d5H, 0c3H, 00H
	ORG $+10
	ORG $+3
	DD	06f1eH
	DD	0157H
	DB	0d2H, 0fdH, 0ccH, 0abH, 0deH, 0d9H, 00H
	ORG $+10
	ORG $+3
	DD	06f1fH
	DD	0158H
	DB	'?', 0e8H, 0aaH, 0f7H, 0e5H, 00H
	ORG $+11
	ORG $+3
	DD	06f10H
	DD	0159H
	DB	'?', 0ebH, 0daH, 0deH, 0d9H, 00H
	ORG $+11
	ORG $+3
	DD	06f11H
	DD	015aH
	DB	0f7H, 0b2H, 0deH, 0d9H, 0d8H, 0a4H, 0daH, 0b7H, 00H
	ORG $+8
	ORG $+3
	DD	06f38H
	DD	015bH
	DB	'?', 0e0H, 0a4H, 0d8H, 0a4H, 0daH, 0b7H, 00H
	ORG $+9
	ORG $+3
	DD	06f39H
	DD	015cH
	DB	0d5H, 0a6H, 0d3H, 0ecH, 0d8H, 0a4H, 0daH, 0b7H, 00H
	ORG $+8
	ORG $+3
	DD	06f3aH
	DD	015dH
	DB	0e4H, 0f5H, '?', 0d8H, 0a4H, 0daH, 0b7H, 00H
	ORG $+9
	ORG $+3
	DD	06f3bH
	DD	015eH
	DB	'?', 0d2H, 0fdH, 0d0H, 0baH, 0d6H, 0f4H, 00H
	ORG $+9
	ORG $+3
	DD	06f3cH
	DD	015fH
	DB	'?', 0f7H, 0e5H, 0d0H, 0baH, 0d5H, 0c3H, 00H
	ORG $+9
	ORG $+3
	DD	06f21H
	DD	0160H
	DB	0f7H, 0eeH, 0ddH, 0efH, 00H
	ORG $+12
	ORG $+3
	DD	06f3dH
	DD	0161H
	DB	0deH, 0c8H, '?', 0f9H, 0abH, '?', 00H
	ORG $+10
	ORG $+3
	DD	06f3eH
	DD	0162H
	DB	0deH, 0c8H, '?', 0f9H, 0abH, 0d0H, 0baH, 00H
	ORG $+9
	ORG $+3
	DD	06f3fH
	DD	0163H
	DB	0deH, 0c8H, '?', 0f9H, 0abH, '?', 00H
	ORG $+10
	ORG $+3
	DD	06f40H
	DD	0164H
	DB	0deH, 0c8H, '?', 0f9H, 0abH, '?', 00H
	ORG $+10
	ORG $+3
	DD	06f41H
	DD	0165H
	DB	0deH, 0a3H, 0d0H, 0f4H, '?', 00H
	ORG $+11
	ORG $+3
	DD	06f42H
	DD	0166H
	DB	0f7H, 0e9H, '?', 0d2H, 0fdH, 00H
	ORG $+11
	ORG $+3
	DD	06f47H
	DD	0167H
	DB	0f7H, 0e9H, '?', 0f7H, 0e5H, 00H
	ORG $+11
	ORG $+3
	DD	06f48H
	DD	0168H
	DB	0d0H, 0baH, 0d6H, 0f4H, 0d2H, 0fdH, 00H
	ORG $+10
	ORG $+3
	DD	06f43H
	DD	0169H
	DB	0dbH, 0c6H, '?', 0d2H, 0fdH, 00H
	ORG $+11
	ORG $+3
	DD	06f44H
	DD	016aH
	DB	'?', 0caH, 0a6H, 0deH, 0d9H, 00H
	ORG $+11
	ORG $+3
	DD	06f45H
	DD	016bH
	DB	'??', 0deH, 0d9H, 00H
	ORG $+12
	ORG $+3
	DD	06f46H
	DD	016cH
	DB	0d2H, 0fdH, 0ddH, 0d2H, 00H
	ORG $+12
	ORG $+3
	DD	06f49H
	DD	016dH
	DB	'?', 0d2H, 0fdH, 0ddH, 0d2H, 00H
	ORG $+11
	ORG $+3
	DD	06f4aH
	DD	016eH
	DB	0d2H, 0fdH, 0dfH, 0faH, 0d7H, 0ecH, 00H
	ORG $+10
	ORG $+3
	DD	06f4bH
	DD	016fH
	DB	'?', 0dfH, 0faH, 0d7H, 0ecH, 00H
	ORG $+11
	ORG $+3
	DD	06f4cH
	DD	0170H
	DB	0deH, 0c8H, 0d0H, 0baH, 0cbH, 0f9H, 00H
	ORG $+10
	ORG $+3
	DD	06f4dH
	DD	0171H
	DB	0deH, 0c8H, 0deH, 0a3H, 0d5H, 0a6H, 00H
	ORG $+10
	ORG $+3
	DD	06f4eH
	DD	0172H
	DB	'?', 0d6H, 0d8H, '?', 00H
	ORG $+12
	ORG $+3
	DD	06f4fH
	DD	0173H
	DB	0d0H, 0f4H, 0d6H, 0d8H, '?', 00H
	ORG $+11
	ORG $+3
	DD	06f50H
	DD	0174H
	DB	'???', 00H
	ORG $+13
	ORG $+3
	DD	06f51H
	DD	0175H
	DB	'???', 00H
	ORG $+13
	ORG $+3
	DD	06f52H
	DD	0176H
	DB	0deH, 0d9H, '?', 0d0H, 0baH, 00H
	ORG $+11
	ORG $+3
	DD	06f53H
	DD	0177H
	DB	0e0H, 0a4H, 0deH, 0d9H, '?', 00H
	ORG $+11
	ORG $+3
	DD	06f54H
	DD	0178H
	DB	0d0H, 0f4H, 0d0H, 0e9H, 0e8H, 0aaH, 00H
	ORG $+10
	ORG $+3
	DD	06f55H
	DD	0179H
	DB	0d0H, 0f4H, 0d0H, 0e9H, 0d0H, 0baH, 0d2H, 0afH, 00H
	ORG $+8
	ORG $+3
	DD	06f56H
	DD	017aH
	DB	'??', 0d7H, 0d7H, 00H
	ORG $+12
	ORG $+3
	DD	06f57H
	DD	017bH
	DB	'??', 0d2H, 0fdH, 00H
	ORG $+12
	ORG $+3
	DD	06f58H
	DD	017cH
	DB	0caH, 0e7H, 0d7H, 0d7H, 0deH, 0d9H, 0d2H, 0afH, 00H
	ORG $+8
	ORG $+3
	DD	06f59H
	DD	017dH
	DB	0deH, 0c8H, 0d2H, 0afH, 0d0H, 0baH, 0f7H, 0e5H, 00H
	ORG $+8
	ORG $+3
	DD	06f5aH
	DD	017eH
	DB	0e4H, 0f5H, 0dbH, 0daH, 0dfH, 0faH, 00H
	ORG $+10
	ORG $+3
	DD	06f5bH
	DD	017fH
	DB	0fbH, 0bcH, '?', 0dfH, 0faH, 00H
	ORG $+11
	ORG $+3
	DD	06f5cH
	DD	0180H
	DB	'?', 0d7H, 0ecH, '??', 00H
	ORG $+11
	ORG $+3
	DD	06f5dH
	DD	0181H
	DB	'?', 0dbH, 0f6H, '??', 00H
	ORG $+11
	ORG $+3
	DD	06f5eH
	DD	0182H
	DB	'????', 00H
	ORG $+12
	ORG $+3
	DD	06f5fH
	DD	0183H
	DB	0d2H, 0fdH, '???', 00H
	ORG $+11
	ORG $+3
	DD	06f60H
	DD	0184H
	DB	0d7H, 0ecH, 0d3H, 0ecH, '?', 00H
	ORG $+11
	ORG $+3
	DD	06f61H
	DD	0185H
	DB	'?', 0d3H, 0ecH, 0deH, 0d9H, '?', 00H
	ORG $+10
	ORG $+3
	DD	06f62H
	DD	0186H
	DB	'?', 0d3H, 0ecH, 0eeH, 0e8H, 0ddH, 0efH, 00H
	ORG $+9
	ORG $+3
	DD	06f63H
	DD	0187H
	DB	'?', 0dfH, 0e4H, '?1', 00H
	ORG $+11
	ORG $+3
	DD	06f64H
	DD	0188H
	DB	'?', 0dfH, 0e4H, '?2', 00H
	ORG $+11
	ORG $+3
	DD	06f65H
	DD	0189H
	DB	0ddH, 0d7H, '?', 0e4H, 0baH, 00H
	ORG $+11
	ORG $+3
	DD	06f66H
	DD	018aH
	DB	0ddH, 0d7H, '?', 0d6H, 0daH, 00H
	ORG $+11
	ORG $+3
	DD	06f67H
	DD	018bH
	DB	0dfH, 0b2H, 0caH, 0c7H, '?1', 00H
	ORG $+10
	ORG $+3
	DD	06f69H
	DD	018cH
	DB	0dfH, 0b2H, 0caH, 0c7H, '?2', 00H
	ORG $+10
	ORG $+3
	DD	06f6aH
	DD	018dH
	DB	0ddH, 0d6H, 0d0H, 0baH, 0deH, 0d9H, 00H
	ORG $+10
	ORG $+3
	DD	06f68H
	DD	018eH
	DB	'?', 0d5H, 0f4H, 0e8H, 0ddH, 00H
	ORG $+11
	ORG $+3
	DD	06f6bH
	DD	018fH
	DB	0daH, 0b8H, 0d5H, 0c3H, 00H
	ORG $+12
	ORG $+3
	DD	06f6cH
	DD	0190H
	DB	'?', 0eeH, 0e8H, 00H
	ORG $+13
	ORG $+3
	DD	06f6dH
	DD	0191H
	DB	0d0H, 0f4H, 0ddH, 0dbH, 0deH, 0a3H, 0d3H, 0ecH, 00H
	ORG $+8
	ORG $+3
	DD	06f6eH
	DD	0192H
	DB	0d0H, 0f4H, 0ddH, 0dbH, '?', 0deH, 0d9H, 00H
	ORG $+9
	ORG $+3
	DD	06f6fH
	DD	0193H
	DB	0d0H, 0f4H, 0ddH, 0dbH, 0d3H, 0ecH, 0daH, 0b8H, 00H
	ORG $+8
	ORG $+3
	DD	06f70H
	DD	0194H
	DB	0d0H, 0f4H, 0ddH, 0dbH, 0d5H, 0a6H, 0ebH, 0eeH, 00H
	ORG $+8
	ORG $+3
	DD	06f71H
	DD	0195H
	DB	0f9H, 0ebH, 0e8H, 0aaH, 0deH, 0d9H, 00H
	ORG $+10
	ORG $+3
	DD	06f72H
	DD	0196H
	DB	0f9H, 0ebH, 0e8H, 0aaH, 0ebH, 0daH, 00H
	ORG $+10
	ORG $+3
	DD	06f73H
	DD	0197H
	DB	0d6H, 0f4H, '?', 00H
	ORG $+13
	ORG $+3
	DD	06f74H
	DD	0198H
	DB	0f9H, 0ebH, 0d7H, 0d7H, 0ebH, 0daH, 0deH, 0d9H, 00H
	ORG $+8
	ORG $+3
	DD	06f75H
	DD	0199H
	DB	0f4H, 0deH, 0ecH, 0a5H, '?', 0deH, 0d9H, 00H
	ORG $+9
	ORG $+3
	DD	06f76H
	DD	019aH
	DB	0d7H, 0d7H, '???', 00H
	ORG $+11
	ORG $+3
	DD	06f77H
	DD	019bH
	DB	'?', 0d0H, 0f4H, 0d5H, 0a6H, 0deH, 0d9H, 00H
	ORG $+9
	ORG $+3
	DD	06f78H
	DD	019cH
	DB	0dbH, 0c0H, 0d0H, 0f4H, '?', 00H
	ORG $+11
	ORG $+3
	DD	06f79H
	DD	019dH
	DB	0f8H, 0d6H, '??', 00H
	ORG $+12
	ORG $+3
	DD	06f7aH
	DD	019eH
	DB	0f8H, 0d6H, 0d7H, 0ecH, '??', 00H
	ORG $+10
	ORG $+3
	DD	06f7bH
	DD	019fH
	DB	0e8H, 0aaH, 0d0H, 0baH, 0ddH, 0efH, 00H
	ORG $+10
	ORG $+3
	DD	06f7cH
	DD	01a0H
	DB	0e8H, 0aaH, 0deH, 0d9H, 0d9H, 0b5H, 00H
	ORG $+10
	ORG $+3
	DD	06f7dH
	DD	01a1H
	DB	0f7H, 0e9H, 0e4H, 0baH, 00H
	ORG $+12
	ORG $+3
	DD	06f7eH
	DD	01a2H
	DB	0f7H, 0e9H, 0f7H, 0e5H, 00H
	ORG $+12
	ORG $+3
	DD	06f7fH
	DD	01a3H
	DB	0fdH, 0d9H, '?', 0d5H, 0f4H, 0e8H, 0ddH, 00H
	ORG $+9
	ORG $+3
	DD	06f80H
	DD	01a4H
	DB	'?', 0ebH, 0daH, 0d0H, 0f4H, 0dcH, 0fdH, 00H
	ORG $+9
	ORG $+3
	DD	06f81H
	DD	01a5H
	DB	'?', 0ebH, 0daH, 0d5H, 0a6H, 0d0H, 0baH, 00H
	ORG $+9
	ORG $+3
	DD	06f82H
	DD	01a6H
	DB	0dbH, 0c0H, 0f8H, 0ddH, 0d5H, 0a6H, 0deH, 0d9H, 00H
	ORG $+8
	ORG $+3
	DD	06f83H
	DD	01a7H
	DB	'?', 0e8H, 0aaH, 0dcH, 0fdH, 00H
	ORG $+11
	ORG $+3
	DD	06f84H
	DD	01a8H
	DB	0f8H, 0d6H, 0ecH, 0a5H, 0fbH, 0e5H, 00H
	ORG $+10
	ORG $+3
	DD	06f85H
	DD	01a9H
	DB	0deH, 0a3H, '?', 0f7H, 0e5H, 00H
	ORG $+11
	ORG $+3
	DD	06f8cH
	DD	01aaH
	DB	0f8H, 0d6H, 0d7H, 0f9H, 0f7H, 0e5H, 00H
	ORG $+10
	ORG $+3
	DD	06f8dH
	DD	01abH
	DB	0d2H, 0afH, 0caH, 0ecH, 0f7H, 0e5H, 00H
	ORG $+10
	ORG $+3
	DD	06f8eH
	DD	01acH
	DB	0d2H, 0afH, 0e9H, 0d4H, '?', 00H
	ORG $+11
	ORG $+3
	DD	06f8fH
	DD	01adH
	DB	'?', 0ddH, 0b3H, 0d1H, 0d6H, 00H
	ORG $+11
	ORG $+3
	DD	06fa7H
	DD	01aeH
	DB	'???', 00H
	ORG $+13
	ORG $+3
	DD	06fa6H
	DD	01afH
	DB	0d8H, 0a4H, 0d5H, 0a6H, 0dfH, 0e3H, 0deH, 0d6H, 00H
	ORG $+8
	ORG $+3
	DD	06fa8H
	DD	01b0H
	DB	0e8H, 0bfH, 0d0H, 0f4H, 0d0H, 0e9H, 00H
	ORG $+10
	ORG $+3
	DD	06fa9H
	DD	01b1H
	DB	0ddH, 0d7H, 0d0H, 0f4H, 0d0H, 0e9H, 00H
	ORG $+10
	ORG $+3
	DD	06faaH
	DD	01b2H
	DB	'?', 0d0H, 0f4H, 0d0H, 0e9H, 00H
	ORG $+11
	ORG $+3
	DD	06fabH
	DD	01b3H
	DB	0f7H, 0eeH, 0d0H, 0f4H, 0d0H, 0e9H, 00H
	ORG $+10
	ORG $+3
	DD	06facH
	DD	01b4H
	DB	'?', 0e8H, 0aaH, 0cfH, 0a8H, 0ebH, 0daH, 00H
	ORG $+9
	ORG $+3
	DD	06fc3H
	DD	01b5H
	DB	'?', 0e8H, 0aaH, 0dbH, 0d0H, 0f7H, 0e5H, 00H
	ORG $+9
	ORG $+3
	DD	06fc4H
	DD	01b6H
	DB	'?', 0dcH, 0d8H, 00H
	ORG $+13
	ORG $+3
	DD	06fc5H
	DD	01b7H
	DB	'?', 0d2H, 0fdH, 00H
	ORG $+13
	ORG $+3
	DD	06fc6H
	DD	01b8H
	DB	0ddH, 0efH, 0deH, 0d9H, 0d1H, 0ceH, 00H
	ORG $+10
	ORG $+3
	DD	06fadH
	DD	01b9H
	DB	'??', 0d1H, 0ceH, 00H
	ORG $+12
	ORG $+3
	DD	06faeH
	DD	01baH
	DB	0d2H, 0f9H, '?', 0d1H, 0ceH, 00H
	ORG $+11
	ORG $+3
	DD	06fafH
	DD	01bbH
	DB	0eaH, 0ceH, '?', 0d1H, 0ceH, 00H
	ORG $+11
	ORG $+3
	DD	06fb0H
	DD	01bcH
	DB	0e4H, 0f5H, 0ebH, 0daH, 0d0H, 0baH, 00H
	ORG $+10
	ORG $+3
	DD	06fb1H
	DD	01bdH
	DB	0e4H, 0f5H, 0daH, 0b8H, 00H
	ORG $+12
	ORG $+3
	DD	06fb2H
	DD	01beH
	DB	0e4H, 0f5H, 0ecH, 0e0H, 00H
	ORG $+12
	ORG $+3
	DD	06fb3H
	DD	01bfH
	DB	0e4H, 0f5H, 0d0H, 0baH, 0dcH, 0fdH, 00H
	ORG $+10
	ORG $+3
	DD	06fb4H
	DD	01c0H
	DB	0e4H, 0ccH, 0cdH, 0afH, 0d5H, 0f4H, 00H
	ORG $+10
	ORG $+3
	DD	06fb5H
	DD	01c1H
	DB	'?', 0d2H, 0f9H, 00H
	ORG $+13
	ORG $+3
	DD	06fb6H
	DD	01c2H
	DB	'??', 0d5H, 0f4H, 00H
	ORG $+12
	ORG $+3
	DD	06fb7H
	DD	01c3H
	DB	'?', 0e3H, 0a2H, 0d5H, 0f4H, 00H
	ORG $+11
	ORG $+3
	DD	06fb8H
	DD	01c4H
	DB	0ecH, 0a5H, 0ddH, 0d7H, 0d5H, 0c3H, 00H
	ORG $+10
	ORG $+3
	DD	06fb9H
	DD	01c5H
	DB	'?', 0d5H, 0c3H, '?', 0d5H, 0c3H, 00H
	ORG $+10
	ORG $+3
	DD	06fbaH
	DD	01c6H
	DB	0f7H, 0b2H, 0f7H, 0b2H, 0d5H, 0c3H, 00H
	ORG $+10
	ORG $+3
	DD	06fbbH
	DD	01c7H
	DB	0d1H, 0ceH, 0d9H, 0b5H, 0d5H, 0c3H, 00H
	ORG $+10
	ORG $+3
	DD	06fbcH
	DD	01c8H
	DB	'?', 0deH, 0d9H, '?', 00H
	ORG $+12
	ORG $+3
	DD	06fbdH
	DD	01c9H
	DB	0deH, 0d9H, 0deH, 0d9H, '?', 00H
	ORG $+11
	ORG $+3
	DD	06fbeH
	DD	01caH
	DB	0f8H, 0d6H, 0d7H, 0ecH, 0deH, 0d9H, '?', 00H
	ORG $+9
	ORG $+3
	DD	06fbfH
	DD	01cbH
	DB	0dbH, 0c0H, 0deH, 0d9H, '?', 00H
	ORG $+11
	ORG $+3
	DD	06fc0H
	DD	01ccH
	DB	0d9H, 0deH, 0d2H, 0b3H, '3?', 00H
	ORG $+10
	ORG $+3
	DD	06fc2H
	DD	01cdH
	DB	0faH, 0adH, '?', 0d3H, 0b1H, 00H
	ORG $+11
	ORG $+3
	DD	06fc1H
	DD	01ceH
	DB	0dcH, 0c5H, 0d2H, 0fdH, 0d1H, 0e1H, '?', 00H
	ORG $+9
	ORG $+3
	DD	06fc8H
	DD	01cfH
	DB	0dcH, 0c5H, '??', 00H
	ORG $+12
	ORG $+3
	DD	06fc9H
	DD	01d0H
	DB	0ecH, 0a5H, 0dcH, 0c5H, '?', 00H
	ORG $+11
	ORG $+3
	DD	06fcaH
	DD	01d1H
	DB	0dcH, 0c5H, '?', 0caH, 0ecH, 0d0H, 0baH, 00H
	ORG $+9
	ORG $+3
	DD	06fcbH
	DD	01d2H
	DB	0e4H, 0f5H, 0deH, 0d9H, 0f6H, 0f1H, 0ebH, 0daH, 00H
	ORG $+8
	ORG $+3
	DD	06fc7H
	DD	01d3H
	DB	0d5H, 0a6H, 0eeH, 0daH, 0d6H, 0f4H, '?', 00H
	ORG $+9
	ORG $+3
	DD	06fccH
	DD	01d4H
	DB	0d6H, 0f4H, '?', 0d1H, 0ceH, 0d5H, 0a6H, 00H
	ORG $+9
	ORG $+3
	DD	06fcdH
	DD	01d5H
	DB	0caH, 0e7H, 0d2H, 0fdH, 0d6H, 0f4H, '?', 00H
	ORG $+9
	ORG $+3
	DD	06fceH
	DD	01d6H
	DB	0d6H, 0f4H, '?', 0dcH, 0fdH, 00H
	ORG $+11
	ORG $+3
	DD	06fcfH
	DD	01d7H
	DB	0d3H, 0ecH, 0cdH, 0afH, 0d3H, 0ecH, '?', 0f7H, 0e5H, 00H
	ORG $+7
	ORG $+3
	DD	06fd0H
	DD	01d8H
	DB	0d0H, 0f4H, 0deH, 0d9H, 0cdH, 0afH, 0d3H, 0ecH, 00H
	ORG $+8
	ORG $+3
	DD	06fd1H
	DD	01d9H
	DB	0f7H, 0b2H, 0d5H, 0c3H, 0cdH, 0afH, 0d3H, 0ecH, 00H
	ORG $+8
	ORG $+3
	DD	06fd2H
	DD	01daH
	DB	0faH, 0d3H, 0cdH, 0afH, 0d3H, 0ecH, 00H
	ORG $+10
	ORG $+3
	DD	06fd3H
	DD	01dbH
	DB	0caH, 0ecH, 0dcH, 0c5H, 0d5H, 0a6H, 0deH, 0c9H, 00H
	ORG $+8
	ORG $+3
	DD	06fd4H
	DD	01dcH
	DB	0caH, 0ecH, 0dcH, 0c5H, '?', 00H
	ORG $+11
	ORG $+3
	DD	06fd5H
	DD	01ddH
	DB	0caH, 0ecH, 0dcH, 0c5H, '??', 00H
	ORG $+10
	ORG $+3
	DD	06fd6H
	DD	01deH
	DB	0caH, 0ecH, '?', 0d2H, 0f9H, '?', 00H
	ORG $+10
	ORG $+3
	DD	06fd7H
	DD	01dfH
	DB	0e1H, 0f3H, 0ccH, 0abH, '?', 00H
	ORG $+11
	ORG $+3
	DD	06fd8H
	DD	01e0H
	DB	0d2H, 0f9H, 0e1H, 0f3H, 0cbH, 0d3H, 00H
	ORG $+10
	ORG $+3
	DD	06fd9H
	DD	01e1H
	DB	0e1H, 0f3H, 0f7H, 0a4H, 00H
	ORG $+12
	ORG $+3
	DD	06fdaH
	DD	01e2H
	DB	0e1H, 0f3H, 0d2H, 0f9H, 0e1H, 0f3H, 0d2H, 0f9H, 00H
	ORG $+8
	ORG $+3
	DD	06fdbH
	DD	01e3H
	DB	0deH, 0c9H, '?', 0d0H, 0f4H, 00H
	ORG $+11
	ORG $+3
	DD	06fddH
	DD	01e4H
	DB	0d8H, 0b0H, 0d7H, 0ecH, '?', 0d0H, 0f4H, 00H
	ORG $+9
	ORG $+3
	DD	06fdeH
	DD	01e5H
	DB	0e1H, 0f3H, '?', 00H
	ORG $+13
	ORG $+3
	DD	06fdfH
	DD	01e6H
	DB	'??', 00H
	ORG $+14
	ORG $+3
	DD	06fe0H
	DD	01e7H
	DB	00H
	ORG $+16
	ORG $+3
	DD	06fe1H
	DD	01e8H
	DB	00H
	ORG $+16
	ORG $+3
	DD	06fe2H
	DD	01e9H
	DB	00H
	ORG $+16
	ORG $+3
	DD	06fe3H
	DD	01eaH
	DB	'?', 0d0H, 0baH, '?', 0deH, 0d9H, 00H
	ORG $+10
	ORG $+3
	DD	06fe4H
	DD	01ebH
	DB	'?', 0d0H, 0baH, 0d3H, 0e3H, 0d9H, 0d5H, 00H
	ORG $+9
	ORG $+3
	DD	06fe5H
	DD	01ecH
	DB	0f9H, 0beH, 0d0H, 0baH, 00H
	ORG $+12
	ORG $+3
	DD	06fe6H
	DD	01edH
	DB	0f9H, 0beH, 0d0H, 0f1H, 00H
	ORG $+12
	ORG $+3
	DD	06fe7H
	DD	01eeH
	DB	0f9H, 0abH, 0ddH, 0dbH, 00H
	ORG $+12
	ORG $+3
	DD	06fe8H
	DD	01efH
	DB	0f9H, 0abH, 0d5H, 0c3H, 0eeH, 0e8H, 00H
	ORG $+10
	ORG $+3
	DD	06fe9H
	DD	01f0H
	DB	0deH, 0c8H, '?', 0e3H, 0f6H, 00H
	ORG $+11
	ORG $+3
	DD	06feaH
	DD	01f1H
	DB	0deH, 0c8H, '??', 00H
	ORG $+12
	ORG $+3
	DD	06febH
	DD	01f2H
	DB	00H
	ORG $+16
	ORG $+3
	DD	06fecH
	DD	01f3H
	DB	'?', 0f7H, 0e5H, 00H
	ORG $+13
	ORG $+3
	DD	06fedH
	DD	01f4H
	DB	'?', 0d0H, 0f4H, 00H
	ORG $+13
	ORG $+3
	DD	06feeH
	DD	01f5H
	DB	0d4H, 0e1H, 0d5H, 0a6H, '??', 00H
	ORG $+10
	ORG $+3
	DD	06fefH
	DD	01f6H
	DB	0fdH, 0f1H, '??', 00H
	ORG $+12
	ORG $+3
	DD	06ff0H
	DD	01f7H
	DB	00H
	ORG $+16
	ORG $+3
	DD	06ff1H
	DD	01f8H
	DB	00H
	ORG $+16
	ORG $+3
	DD	06ff2H
	DD	01f9H
	DB	0f8H, 0d6H, '?', 0d2H, 0fdH, 0d0H, 0f1H, 00H
	ORG $+9
	ORG $+3
	DD	06ff3H
	DD	01faH
	DB	0f9H, 0ebH, 0deH, 0d9H, 0d2H, 0fdH, 0d0H, 0f1H, 00H
	ORG $+8
	ORG $+3
	DD	06ff4H
	DD	01fbH
	DB	'?', 0ccH, 0abH, 0d2H, 0fdH, 0d0H, 0f1H, 00H
	ORG $+9
	ORG $+3
	DD	06ff5H
	DD	01fcH
	DB	0dcH, 0c5H, 0d3H, 0ecH, 0d2H, 0fdH, 0d0H, 0f1H, 00H
	ORG $+8
	ORG $+3
	DD	06ff6H
	DD	01fdH
	DB	00H
	ORG $+16
	ORG $+3
	DD	06ff7H
	DD	01feH
	DB	'?', 0f7H, 0e5H, 0dfH, 0b5H, 00H
	ORG $+11
	ORG $+3
	DD	06ff7H
	DD	01ffH
	DB	'??', 0d0H, 0f4H, 00H
	ORG $+12
	ORG $+3
	DD	06ff8H
	DD	0200H
	DB	'?', 0dcH, 0c5H, 0d8H, 0a1H, 00H
	ORG $+11
	ORG $+3
	DD	06ff9H
	DD	0201H
	DB	'?', 0dcH, 0c5H, 0d0H, 0f4H, 00H
	ORG $+11
	ORG $+3
	DD	06ffaH
	DD	0202H
	DB	00H
	ORG $+16
	ORG $+3
	DD	06ffbH
	DD	0203H
	DB	00H
	ORG $+16
	ORG $+3
	DD	06ffcH
	DD	0204H
	DB	0d2H, 0fdH, 0d0H, 0f4H, 00H
	ORG $+12
	ORG $+3
	DD	06ffdH
	DD	0205H
	DB	0d3H, 0dbH, 0d9H, 0d5H, 0f7H, 0e5H, 0deH, 0d9H, 00H
	ORG $+8
	ORG $+3
	DD	06ffeH
	DD	0206H
	DB	0d3H, 0dbH, 0d9H, 0d5H, 0eeH, 0e8H, 0deH, 0d9H, 00H
	ORG $+8
	ORG $+3
	DD	06fffH
	DD	0207H
	DB	0d3H, 0dbH, 0d9H, 0d5H, 0d1H, 0e1H, '?', 00H
	ORG $+9
	ORG $+3
	DD	07000H
	DD	0208H
	DB	0d3H, 0dbH, 0d9H, 0d5H, 0dfH, 0e3H, 0d2H, 0f9H, 00H
	ORG $+8
	ORG $+3
	DD	07001H
	DD	0209H
	DB	00H
	ORG $+16
	ORG $+3
	DD	07002H
	DD	020aH
	DB	00H
	ORG $+16
	ORG $+3
	DD	07003H
	DD	020bH
	DB	00H
	ORG $+16
	ORG $+3
	DD	07004H
	DD	020cH
	DB	00H
	ORG $+16
	ORG $+3
	DD	07005H
	DD	020dH
	DB	'?', 0daH, 0b7H, '?', 00H
	ORG $+12
	ORG $+3
	DD	07006H
	DD	020eH
	DB	'???', 00H
	ORG $+13
	ORG $+3
	DD	07007H
	DD	020fH
	DB	00H
	ORG $+16
	ORG $+3
	DD	07008H
	DD	0210H
	DB	00H
	ORG $+16
	ORG $+3
	DD	07009H
	DD	0211H
	DB	00H
	ORG $+16
	ORG $+3
	DD	0700aH
	DD	0212H
	DB	00H
	ORG $+16
	ORG $+3
	DD	0700bH
	DD	0213H
	DB	00H
	ORG $+16
	ORG $+3
	DD	0700cH
	DD	0214H
	DB	00H
	ORG $+16
	ORG $+3
	DD	0700dH
	DD	0215H
	DB	00H
	ORG $+16
	ORG $+3
	DD	0700eH
	DD	0216H
	DB	00H
	ORG $+16
	ORG $+3
	DD	0700fH
	DD	0217H
	DB	00H
	ORG $+16
	ORG $+3
	DD	07010H
	DD	0218H
	DB	0f7H, 0eeH, 0ecH, 0ccH, 0f0H, 0abH, 0deH, 0d9H, 00H
	ORG $+8
	ORG $+3
	DD	07011H
	DD	0219H
	DB	0f7H, 0eeH, 0ecH, 0ccH, 0f0H, 0abH, '?', 00H
	ORG $+9
	ORG $+3
	DD	07012H
	DD	021aH
	DB	0f7H, 0eeH, 0ecH, 0ccH, '?', 0f8H, 0d6H, 00H
	ORG $+9
	ORG $+3
	DD	07013H
	DD	021bH
	DB	0f7H, 0eeH, 0ecH, 0ccH, 0f7H, 0eeH, 0d1H, 0daH, 00H
	ORG $+8
	ORG $+3
	DD	07014H
	DD	021cH
	DB	0d8H, 0a4H, '?', 0deH, 0d9H, 00H
	ORG $+11
	ORG $+3
	DD	07015H
	DD	021dH
	DB	0d8H, 0baH, 0d8H, 0a4H, 0deH, 0d9H, 00H
	ORG $+10
	ORG $+3
	DD	07016H
	DD	021eH
	DB	'?', 0d0H, 0e9H, 0e8H, 0aaH, 00H
	ORG $+11
	ORG $+3
	DD	07017H
	DD	021fH
	DB	'?', 0d0H, 0f4H, '?', 00H
	ORG $+12
	ORG $+3
	DD	07018H
	DD	0220H
	DB	'?', 0d9H, 0d5H, 0f7H, 0e5H, 00H
	ORG $+11
	ORG $+3
	DD	07019H
	DD	0221H
	DB	'?', 0d2H, 0fdH, 0cdH, 0d4H, 0d4H, 0f4H, 00H
	ORG $+9
	ORG $+3
	DD	0701aH
	DD	0222H
	DB	'?', 0daH, 0b7H, 0cdH, 0d4H, 0d4H, 0f4H, 00H
	ORG $+9
	ORG $+3
	DD	0701bH
	DD	0223H
	DB	'??', 0cdH, 0d4H, 0d4H, 0f4H, 00H
	ORG $+10
	ORG $+3
	DD	0701cH
	DD	0224H
	DB	'??', 0cdH, 0d4H, 0d4H, 0f4H, 00H
	ORG $+10
	ORG $+3
	DD	0701dH
	DD	0225H
	DB	0cdH, 0afH, 0efH, 0cbH, 0f7H, 0e9H, 0d5H, 0c3H, 00H
	ORG $+8
	ORG $+3
	DD	0701eH
	DD	0226H
	DB	0cdH, 0afH, 0efH, 0cbH, 0ccH, 0abH, 0ccH, 0abH, 00H
	ORG $+8
	ORG $+3
	DD	0701fH
	DD	0227H
	DB	0cdH, 0afH, 0efH, 0cbH, 0d5H, 0c3H, '?', 00H
	ORG $+9
	ORG $+3
	DD	07020H
	DD	0228H
	DB	0cdH, 0afH, 0efH, 0cbH, '?', 0d5H, 0c3H, 00H
	ORG $+9
	ORG $+3
	DD	07021H
	DD	0229H
	DB	0ecH, 0a5H, 0d2H, 0fdH, '?', 00H
	ORG $+11
	ORG $+3
	DD	07022H
	DD	022aH
	DB	0ecH, 0a5H, 0cdH, 0afH, 0dfH, 0b5H, 00H
	ORG $+10
	ORG $+3
	DD	07023H
	DD	022bH
	DB	0f9H, 0beH, 0d8H, 0b0H, 00H
	ORG $+12
	ORG $+3
	DD	07024H
	DD	022cH
	DB	0f9H, 0beH, 0f7H, 0eeH, 00H
	ORG $+12
	ORG $+3
	DD	07025H
	DD	022dH
	DB	0f9H, 0beH, '?', 0f2H, 0a2H, 00H
	ORG $+11
	ORG $+3
	DD	07026H
	DD	022eH
	DB	0d8H, 0b0H, 0caH, 0a6H, 00H
	ORG $+12
	ORG $+3
	DD	07027H
	DD	022fH
	DB	0d8H, 0b0H, 0d5H, 0a6H, 0f7H, 0e5H, 00H
	ORG $+10
	ORG $+3
	DD	07028H
	DD	0230H
	DB	0daH, 0b7H, 0d2H, 0fdH, 0d2H, 0fdH, 00H
	ORG $+10
	ORG $+3
	DD	07029H
	DD	0231H
	DB	0daH, 0b7H, 0d2H, 0fdH, '?', 00H
	ORG $+11
	ORG $+3
	DD	0702aH
	DD	0232H
	DB	0daH, 0b7H, '?', 0d2H, 0fdH, 00H
	ORG $+11
	ORG $+3
	DD	0702bH
	DD	0233H
	DB	0daH, 0b7H, 0d2H, 0f9H, '?', 00H
	ORG $+11
	ORG $+3
	DD	0702cH
	DD	0234H
	DB	0cdH, 0fcH, 0d5H, 0f4H, 0d5H, 0c3H, 00H
	ORG $+10
	ORG $+3
	DD	0702dH
	DD	0235H
	DB	0cdH, 0fcH, 0d5H, 0f4H, 0d2H, 0fdH, 00H
	ORG $+10
	ORG $+3
	DD	0702eH
	DD	0236H
	DB	0e4H, 0baH, 0d0H, 0e9H, 00H
	ORG $+12
	ORG $+3
	DD	0702fH
	DD	0237H
	DB	'?', 0d0H, 0e9H, 00H
	ORG $+13
	ORG $+3
	DD	07030H
	DD	0238H
	DB	0d2H, 0fdH, 0d0H, 0e9H, 00H
	ORG $+12
	ORG $+3
	DD	07031H
	DD	0239H
	DB	0cdH, 0dbH, 0d2H, 0fdH, 00H
	ORG $+12
	ORG $+3
	DD	07032H
?byShowPetItemBackground@@3PAEA DB 05dH			; byShowPetItemBackground
	DB	05dH
	DB	07dH
	DB	05dH
	DB	05dH
	DB	07dH
	DB	05fH
	DB	05dH
	DB	05fH
	DB	07fH
	DB	05dH
	DB	05dH
	DB	05dH
	DB	05dH
	DB	05dH
	DB	07dH
	DB	07dH
	DB	05dH
	DB	05dH
	DB	07dH
	DB	05dH
	DB	07dH
	DB	07dH
	DB	05dH
	DB	05dH
	DB	05fH
	DB	05dH
	DB	05dH
	DB	09H
	DB	01dH
	DB	05dH
	DB	079H
	DB	01dH
	DB	05dH
	DB	079H
	DB	05dH
	DB	05dH
	DB	05dH
	DB	05dH
	DB	05dH
	DB	05dH
	DB	05dH
	DB	00H
	ORG $+1
?IdEncryptionTbl@@3PAHA DD 030H				; IdEncryptionTbl
	DD	09eH
	DD	062H
	DD	017H
	DD	086H
	DD	01dH
	DD	05cH
	DD	043H
	DD	046H
	DD	01cH
	DD	0ebH
	DD	014H
	DD	0bdH
	DD	030H
	DD	039H
	DD	07dH
?DetailDesc@@3PAY0EA@DA DB 0c1H, 0f6H, ' ', 0b8H, 0b6H, 0b9H, 0fdH, ' ', 0c0H
	DB	0faH, 0c7H, 0d7H, 0bcH, 0baH, 0a1H, 0a1H, 0a3H, 0baH, 00H ; DetailDesc
	ORG $+45
	DB	0bcH, 0f6H, ' ', 0b8H, 0b6H, 0b9H, 0fdH, ' ', 0c0H, 0faH, 0c7H
	DB	0d7H, 0bcH, 0baH, 0a1H, 0a1H, 0a3H, 0baH, 00H
	ORG $+45
	DB	0c8H, 0adH, ' ', 0b8H, 0b6H, 0b9H, 0fdH, ' ', 0c0H, 0faH, 0c7H
	DB	0d7H, 0bcH, 0baH, 0a1H, 0a1H, 0a3H, 0baH, 00H
	ORG $+45
	DB	0c7H, 0b3H, ' ', 0b8H, 0b6H, 0b9H, 0fdH, ' ', 0c0H, 0faH, 0c7H
	DB	0d7H, 0bcH, 0baH, 0a1H, 0a1H, 0a3H, 0baH, 00H
	ORG $+45
	DB	0c1H, 0f6H, ' ', 0b8H, 0b6H, 0b9H, 0fdH, ' ', 0bcH, 0f7H, 0b7H
	DB	0c3H, 0b5H, 0b5H, 0a3H, 0baH, 00H
	ORG $+47
	DB	0bcH, 0f6H, ' ', 0b8H, 0b6H, 0b9H, 0fdH, ' ', 0bcH, 0f7H, 0b7H
	DB	0c3H, 0b5H, 0b5H, 0a3H, 0baH, 00H
	ORG $+47
	DB	0c8H, 0adH, ' ', 0b8H, 0b6H, 0b9H, 0fdH, ' ', 0bcH, 0f7H, 0b7H
	DB	0c3H, 0b5H, 0b5H, 0a3H, 0baH, 00H
	ORG $+47
	DB	0c7H, 0b3H, ' ', 0b8H, 0b6H, 0b9H, 0fdH, ' ', 0bcH, 0f7H, 0b7H
	DB	0c3H, 0b5H, 0b5H, 0a3H, 0baH, 00H
	ORG $+47
?DetailDesc1@@3PAY0EA@DA DB 0c1H, 0f6H, ' ', 0c1H, 0a4H, 0b7H, 0c9H, ' ', 0b8H
	DB	0b6H, 0b9H, 0fdH, ' ', 0c0H, 0faH, 0c7H, 0d7H, 0bcH, 0baH, 0a3H
	DB	0acH, 0c1H, 0d9H, 0c0H, 0cfH, ' ', 0bcH, 0f6H, ' ', 0c0H, 0d6H
	DB	0c0H, 0bdH, 00H				; DetailDesc1
	ORG $+30
	DB	0bcH, 0f6H, ' ', 0c1H, 0a4H, 0b7H, 0c9H, ' ', 0b8H, 0b6H, 0b9H
	DB	0fdH, ' ', 0c0H, 0faH, 0c7H, 0d7H, 0bcH, 0baH, 0a3H, 0acH, 0c1H
	DB	0d9H, 0c0H, 0cfH, ' ', 0bcH, 0f6H, ' ', 0c0H, 0d6H, 0c0H, 0bdH
	DB	00H
	ORG $+30
	DB	0c8H, 0adH, ' ', 0c1H, 0a4H, 0b7H, 0c9H, ' ', 0b8H, 0b6H, 0b9H
	DB	0fdH, ' ', 0c0H, 0faH, 0c7H, 0d7H, 0bcH, 0baH, 0a3H, 0acH, 0c1H
	DB	0d9H, 0c0H, 0cfH, ' ', 0bcH, 0f6H, ' ', 0c0H, 0d6H, 0c0H, 0bdH
	DB	00H
	ORG $+30
	DB	0c7H, 0b3H, ' ', 0c1H, 0a4H, 0b7H, 0c9H, ' ', 0b8H, 0b6H, 0b9H
	DB	0fdH, ' ', 0c0H, 0faH, 0c7H, 0d7H, 0bcH, 0baH, 0a3H, 0acH, 0c1H
	DB	0d9H, 0c0H, 0cfH, ' ', 0bcH, 0f6H, ' ', 0c0H, 0d6H, 0c0H, 0bdH
	DB	00H
	ORG $+30
	DB	0c1H, 0f6H, ' ', 0c1H, 0a4H, 0b7H, 0c9H, ' ', 0b8H, 0b6H, 0b9H
	DB	0fdH, ' ', 0bcH, 0f7H, 0b7H, 0c3H, 0b5H, 0b5H, 0a3H, 0acH, 0bbH
	DB	0e7H, 0bfH, 0ebH, 0c7H, 0cfH, 0bfH, 0a9H, ' ', 0b3H, 0f4H, 0c0H
	DB	0cfH, ' ', 0bcH, 0f6H, ' ', 0c0H, 0d6H, 0c0H, 0bdH, 00H
	ORG $+21
	DB	0bcH, 0f6H, ' ', 0c1H, 0a4H, 0b7H, 0c9H, ' ', 0b8H, 0b6H, 0b9H
	DB	0fdH, ' ', 0bcH, 0f7H, 0b7H, 0c3H, 0b5H, 0b5H, 0a3H, 0acH, 0bbH
	DB	0e7H, 0bfH, 0ebH, 0c7H, 0cfH, 0bfH, 0a9H, ' ', 0b3H, 0f4H, 0c0H
	DB	0cfH, ' ', 0bcH, 0f6H, ' ', 0c0H, 0d6H, 0c0H, 0bdH, 00H
	ORG $+21
	DB	0c8H, 0adH, ' ', 0c1H, 0a4H, 0b7H, 0c9H, ' ', 0b8H, 0b6H, 0b9H
	DB	0fdH, ' ', 0bcH, 0f7H, 0b7H, 0c3H, 0b5H, 0b5H, 0a3H, 0acH, 0bbH
	DB	0e7H, 0bfH, 0ebH, 0c7H, 0cfH, 0bfH, 0a9H, ' ', 0b3H, 0f4H, 0c0H
	DB	0cfH, ' ', 0bcH, 0f6H, ' ', 0c0H, 0d6H, 0c0H, 0bdH, 00H
	ORG $+21
	DB	0c7H, 0b3H, ' ', 0c1H, 0a4H, 0b7H, 0c9H, ' ', 0b8H, 0b6H, 0b9H
	DB	0fdH, ' ', 0bcH, 0f7H, 0b7H, 0c3H, 0b5H, 0b5H, 0a3H, 0acH, 0bbH
	DB	0e7H, 0bfH, 0ebH, 0c7H, 0cfH, 0bfH, 0a9H, ' ', 0b3H, 0f4H, 0c0H
	DB	0cfH, ' ', 0bcH, 0f6H, ' ', 0c0H, 0d6H, 0c0H, 0bdH, 00H
	ORG $+21
?DetailDesc2@@3PAY0EA@DA DB 0c1H, 0f6H, ' ', 0c1H, 0a4H, 0b7H, 0c9H, ' ', 0b8H
	DB	0b6H, 0b9H, 0fdH, 0c0H, 0c7H, ' ', 0b5H, 0a5H, 0b9H, 0ccH, 0c1H
	DB	0f6H, 0a1H, 0a3H, 00H			; DetailDesc2
	ORG $+40
	DB	0bcH, 0f6H, ' ', 0c1H, 0a4H, 0b7H, 0c9H, ' ', 0b8H, 0b6H, 0b9H
	DB	0fdH, 0c0H, 0c7H, ' ', 0b5H, 0a5H, 0b9H, 0ccH, 0c1H, 0f6H, 0a1H
	DB	0a3H, 00H
	ORG $+40
	DB	0c8H, 0adH, ' ', 0c1H, 0a4H, 0b7H, 0c9H, ' ', 0b8H, 0b6H, 0b9H
	DB	0fdH, 0c0H, 0c7H, ' ', 0b5H, 0a5H, 0b9H, 0ccH, 0c1H, 0f6H, 0a1H
	DB	0a3H, 00H
	ORG $+40
	DB	0c7H, 0b3H, ' ', 0c1H, 0a4H, 0b7H, 0c9H, ' ', 0b8H, 0b6H, 0b9H
	DB	0fdH, 0c0H, 0c7H, ' ', 0b5H, 0a5H, 0b9H, 0ccH, 0c1H, 0f6H, 0a1H
	DB	0a3H, 00H
	ORG $+40
	DB	0c1H, 0f6H, ' ', 0c1H, 0a4H, 0b7H, 0c9H, ' ', 0b8H, 0b6H, 0b9H
	DB	0fdH, ' ', 0bdH, 0c3H, 0c0H, 0fcH, ' ', 0c0H, 0a7H, 0b7H, 0c2H
	DB	0a1H, 0a3H, 00H
	ORG $+39
	DB	0bcH, 0f6H, ' ', 0c1H, 0a4H, 0b7H, 0c9H, ' ', 0b8H, 0b6H, 0b9H
	DB	0fdH, ' ', 0bdH, 0c3H, 0c0H, 0fcH, ' ', 0c0H, 0a7H, 0b7H, 0c2H
	DB	0a1H, 0a3H, 00H
	ORG $+39
	DB	0c8H, 0adH, ' ', 0c1H, 0a4H, 0b7H, 0c9H, ' ', 0b8H, 0b6H, 0b9H
	DB	0fdH, ' ', 0bdH, 0c3H, 0c0H, 0fcH, ' ', 0c0H, 0a7H, 0b7H, 0c2H
	DB	0a1H, 0a3H, 00H
	ORG $+39
	DB	0c7H, 0b3H, ' ', 0c1H, 0a4H, 0b7H, 0c9H, ' ', 0b8H, 0b6H, 0b9H
	DB	0fdH, ' ', 0bdH, 0c3H, 0c0H, 0fcH, ' ', 0c0H, 0a7H, 0b7H, 0c2H
	DB	0a1H, 0a3H, 00H
	ORG $+39
?sAlchePlus_list@@3PAY0BA@DA DB 0b5H, 0b9H, 00H		; sAlchePlus_list
	ORG $+13
	DB	0b3H, 0aaH, 0b9H, 0abH, 00H
	ORG $+11
	DB	0bbH, 0c0H, 00H
	ORG $+13
	DB	0c4H, 0a1H, 0beH, 0c6H, 00H
	ORG $+11
	DB	0c7H, 0c7H, 0baH, 0ceH, 00H
	ORG $+11
	DB	0c1H, 0b6H, 0b0H, 0a1H, 0baH, 0f1H, 00H
	ORG $+9
	DB	0b2H, 0aeH, 0c1H, 0faH, 00H
	ORG $+11
	DB	0b9H, 0dfH, 0c5H, 0e9H, 00H
	ORG $+11
	DB	0b2H, 0c9H, 00H
	ORG $+13
	DB	0c0H, 0d9H, 00H
	ORG $+13
	DB	0bcH, 0b1H, 00H
	ORG $+13
	DB	0c1H, 0a1H, 0c5H, 0e4H, 00H
	ORG $+11
	DB	0baH, 0f1H, 0b4H, 0c3H, 00H
	ORG $+11
	DB	0b5H, 0b6H, 00H
	ORG $+13
	DB	0bcH, 0aeH, 0c8H, 0adH, 00H
	ORG $+11
	DB	0c8H, 0a5H, 0b5H, 0b7H, 00H
	ORG $+11
	DB	0b8H, 0b8H, 0c3H, 0ebH, 00H
	ORG $+11
	DB	0b1H, 0b8H, 0b8H, 0e9H, 00H
	ORG $+11
	DB	0c8H, 0b8H, 0baH, 0b9H, 00H
	ORG $+11
	DB	0baH, 0ceH, 0c8H, 0b0H, 00H
	ORG $+11
	DB	0bcH, 0f6H, 0c1H, 0a4H, 00H
	ORG $+11
	DB	0b6H, 0a5H, 00H
	ORG $+13
	DB	0b9H, 0b0H, 00H
	ORG $+13
	DB	0baH, 0d2H, 00H
	ORG $+13
	DB	0b9H, 0d9H, 0b6H, 0f7H, 00H
	ORG $+11
?iAlchePlusIcon@@3PAHA DD 067a8H			; iAlchePlusIcon
	DD	067a1H
	DD	067b3H
	DD	067a6H
	DD	067a7H
	DD	067aeH
	DD	067b6H
	DD	067a5H
	DD	067afH
	DD	067b7H
	DD	067b9H
	DD	067baH
	DD	067bdH
	DD	067b0H
	DD	067a9H
	DD	067b2H
	DD	067b4H
	DD	067b8H
	DD	067aaH
	DD	067b5H
	DD	067a3H
	DD	067abH
	DD	067a2H
	DD	067a4H
	DD	067b1H
?charDetailPage@@3HA DD 03H				; charDetailPage
_DATA	ENDS
PUBLIC	___local_stdio_printf_options
PUBLIC	_sprintf
PUBLIC	__snprintf
PUBLIC	?lssproto_TD_recv@@YAXHPAD@Z			; lssproto_TD_recv
PUBLIC	?lssproto_CHATROOM_recv@@YAXHPAD@Z		; lssproto_CHATROOM_recv
PUBLIC	?lssproto_RESIST_recv@@YAXHPAD@Z		; lssproto_RESIST_recv
PUBLIC	?lssproto_ALCHEPLUS_recv@@YAXHPAD@Z		; lssproto_ALCHEPLUS_recv
PUBLIC	?lssproto_BATTLESKILL_recv@@YAXHPAD@Z		; lssproto_BATTLESKILL_recv
PUBLIC	?lssproto_CHAREFFECT_recv@@YAXHPAD@Z		; lssproto_CHAREFFECT_recv
PUBLIC	?lssproto_BATTLEBUTTON_recv@@YAXHHH@Z		; lssproto_BATTLEBUTTON_recv
PUBLIC	??0exception@std@@QAE@ABV01@@Z			; std::exception::exception
PUBLIC	??1exception@std@@UAE@XZ			; std::exception::~exception
PUBLIC	?what@exception@std@@UBEPBDXZ			; std::exception::what
PUBLIC	??_Gexception@std@@UAEPAXI@Z			; std::exception::`scalar deleting destructor'
PUBLIC	??1bad_alloc@std@@UAE@XZ			; std::bad_alloc::~bad_alloc
PUBLIC	??0bad_alloc@std@@QAE@ABV01@@Z			; std::bad_alloc::bad_alloc
PUBLIC	??_Gbad_alloc@std@@UAEPAXI@Z			; std::bad_alloc::`scalar deleting destructor'
PUBLIC	??0bad_array_new_length@std@@QAE@XZ		; std::bad_array_new_length::bad_array_new_length
PUBLIC	??1bad_array_new_length@std@@UAE@XZ		; std::bad_array_new_length::~bad_array_new_length
PUBLIC	??0bad_array_new_length@std@@QAE@ABV01@@Z	; std::bad_array_new_length::bad_array_new_length
PUBLIC	??_Gbad_array_new_length@std@@UAEPAXI@Z		; std::bad_array_new_length::`scalar deleting destructor'
PUBLIC	?_Throw_bad_array_new_length@std@@YAXXZ		; std::_Throw_bad_array_new_length
PUBLIC	?TradeTalk@@YAXPAD@Z				; TradeTalk
PUBLIC	?InitItem@@YAXHHH@Z				; InitItem
PUBLIC	?InitMenu@@YAXXZ				; InitMenu
PUBLIC	?InitMenu2@@YAXXZ				; InitMenu2
PUBLIC	?CheckMenuFlag@@YAHXZ				; CheckMenuFlag
PUBLIC	?MenuProc@@YAXXZ				; MenuProc
PUBLIC	?MakeWindowDisp@@YAPAUaction@@HHHHHH@Z		; MakeWindowDisp
PUBLIC	?MakeHitBox@@YAHHHHHH@Z				; MakeHitBox
PUBLIC	?SaveMailHistory@@YAHH@Z			; SaveMailHistory
PUBLIC	?LoadMailHistory@@YAHXZ				; LoadMailHistory
PUBLIC	?CheckMailNoReadFlag@@YAHXZ			; CheckMailNoReadFlag
PUBLIC	?InitOhtaParam@@YAXXZ				; InitOhtaParam
PUBLIC	?DeathLetterAction@@YAXXZ			; DeathLetterAction
PUBLIC	?SaveChatRegistyStr@@YAHXZ			; SaveChatRegistyStr
PUBLIC	?LoadChatRegistyStr@@YAHXZ			; LoadChatRegistyStr
PUBLIC	?CenteringStr@@YAXPAD0H@Z			; CenteringStr
PUBLIC	?CheckNewPet@@YAXH@Z				; CheckNewPet
PUBLIC	?CheckBattleNewPet@@YAXXZ			; CheckBattleNewPet
PUBLIC	?LoadAlbum@@YAHXZ				; LoadAlbum
PUBLIC	?SaveAlbum@@YAHH@Z				; SaveAlbum
PUBLIC	?MakeAnimDisp@@YAPAUaction@@HHHH@Z		; MakeAnimDisp
PUBLIC	?tradeInit@@YAXXZ				; tradeInit
PUBLIC	?BankmanInit@@YAXPAD@Z				; BankmanInit
PUBLIC	?closeBankman@@YAXXZ				; closeBankman
PUBLIC	?InitSelectChar@@YAXPADH@Z			; InitSelectChar
PUBLIC	?SelectChar@@YAXXZ				; SelectChar
PUBLIC	?DeathTellChannel@@YAXXZ			; DeathTellChannel
PUBLIC	?SelectChatRoom@@YAXXZ				; SelectChatRoom
PUBLIC	?InitSelChatRoom@@YAXPAD@Z			; InitSelChatRoom
PUBLIC	?InitCreateChatRoom@@YAXPAD@Z			; InitCreateChatRoom
PUBLIC	?ChatRoomWnd@@YAXXZ				; ChatRoomWnd
PUBLIC	?initAssentWnd@@YAXPAD@Z			; initAssentWnd
PUBLIC	?AssentWnd@@YAXXZ				; AssentWnd
PUBLIC	?setRoomName@@YAXXZ				; setRoomName
PUBLIC	?send_StandBy_Pet@@YAXXZ			; send_StandBy_Pet
PUBLIC	?deallocate@?$allocator@H@std@@QAEXQAHI@Z	; std::allocator<int>::deallocate
PUBLIC	??1?$vector@HV?$allocator@H@std@@@std@@QAE@XZ	; std::vector<int,std::allocator<int> >::~vector<int,std::allocator<int> >
PUBLIC	?_Xlength@?$vector@HV?$allocator@H@std@@@std@@CAXXZ ; std::vector<int,std::allocator<int> >::_Xlength
PUBLIC	?_Xrange@?$vector@HV?$allocator@H@std@@@std@@CAXXZ ; std::vector<int,std::allocator<int> >::_Xrange
PUBLIC	??0Mammoth@@QAE@XZ				; Mammoth::Mammoth
PUBLIC	?Get@Mammoth@@SAAAV1@XZ				; Mammoth::Get
PUBLIC	?Display@Mammoth@@QAEXXZ			; Mammoth::Display
PUBLIC	?Init@Mammoth@@QAEXXZ				; Mammoth::Init
PUBLIC	?Animation@Mammoth@@QAEXXZ			; Mammoth::Animation
PUBLIC	?InitAction@Mammoth@@QAEXXZ			; Mammoth::InitAction
PUBLIC	?KillAction@Mammoth@@QAEXXZ			; Mammoth::KillAction
PUBLIC	?IsOpen@Mammoth@@QAEHXZ				; Mammoth::IsOpen
PUBLIC	?Open@Mammoth@@QAEXPAD@Z			; Mammoth::Open
PUBLIC	?Close@Mammoth@@QAEXXZ				; Mammoth::Close
PUBLIC	?MouseControl@Mammoth@@QAEXXZ			; Mammoth::MouseControl
PUBLIC	?GetCouponIndex@Mammoth@@QAEHXZ			; Mammoth::GetCouponIndex
PUBLIC	?DisplayRewardList@Mammoth@@QAEXXZ		; Mammoth::DisplayRewardList
PUBLIC	?GetCouponCount@Mammoth@@QAEHXZ			; Mammoth::GetCouponCount
PUBLIC	?IsBagFull@Mammoth@@QAEHXZ			; Mammoth::IsBagFull
PUBLIC	?Receive@Mammoth@@QAEXH@Z			; Mammoth::Receive
PUBLIC	?_Xlen_string@std@@YAXXZ			; std::_Xlen_string
PUBLIC	??0?$basic_string@DU?$char_traits@D@std@@V?$allocator@D@2@@std@@QAE@ABV01@@Z ; std::basic_string<char,std::char_traits<char>,std::allocator<char> >::basic_string<char,std::char_traits<char>,std::allocator<char> >
PUBLIC	??1?$basic_string@DU?$char_traits@D@std@@V?$allocator@D@2@@std@@QAE@XZ ; std::basic_string<char,std::char_traits<char>,std::allocator<char> >::~basic_string<char,std::char_traits<char>,std::allocator<char> >
PUBLIC	?assign@?$basic_string@DU?$char_traits@D@std@@V?$allocator@D@2@@std@@QAEAAV12@QBDI@Z ; std::basic_string<char,std::char_traits<char>,std::allocator<char> >::assign
PUBLIC	?ItemCanPile@@YAHH@Z				; ItemCanPile
PUBLIC	?Calculate@Ranking@@QAEXABUPET@@@Z		; Ranking::Calculate
PUBLIC	??1Ranking@@QAE@XZ				; Ranking::~Ranking
PUBLIC	?checkRidePet@@YAXH@Z				; checkRidePet
PUBLIC	?RIDEPET_getNOindex@@YAHH@Z			; RIDEPET_getNOindex
PUBLIC	?RIDEPET_getPETindex@@YAHHH@Z			; RIDEPET_getPETindex
PUBLIC	?RIDEPET_getRIDEno@@YAHHH@Z			; RIDEPET_getRIDEno
PUBLIC	?SkillWndfunc2@@YAXXZ				; SkillWndfunc2
PUBLIC	??$sprintf_s@$0BAA@@@YAHAAY0BAA@DPBDZZ		; sprintf_s<256>
PUBLIC	?LockAndOkfunction@@YAXXZ			; LockAndOkfunction
PUBLIC	?WindowDisp@@YAXPAUaction@@@Z			; WindowDisp
PUBLIC	?AnimDisp@@YAXPAUaction@@@Z			; AnimDisp
PUBLIC	?LoadAlbum_47@@YAHPAD@Z				; LoadAlbum_47
PUBLIC	?ConvertAlbumTo47@@YAHPAD0K@Z			; ConvertAlbumTo47
PUBLIC	?ConvertAlbum1_47@@YAHPAD@Z			; ConvertAlbum1_47
PUBLIC	?CheckPetSkill@@YAHH@Z				; CheckPetSkill
PUBLIC	?InitItem3@@YAXHH@Z				; InitItem3
PUBLIC	?InitMailSendFlag@@YAXXZ			; InitMailSendFlag
PUBLIC	?DeathMenuAction@@YAXXZ				; DeathMenuAction
PUBLIC	?DeathMenuAction2@@YAXXZ			; DeathMenuAction2
PUBLIC	?í»?Ôô??Ï¢üÞ?@@YAXXZ				; í»?Ôô??Ï¢üÞ?
PUBLIC	??$sprintf_s@$0IA@@@YAHAAY0IA@DPBDZZ		; sprintf_s<128>
PUBLIC	?initSetRoomName@@YAXXZ				; initSetRoomName
PUBLIC	?SwapOrder@@YAXHH@Z				; SwapOrder
PUBLIC	?InitRoomInfo@@YAXXZ				; InitRoomInfo
PUBLIC	?InitRecvMsg@@YAXPAD@Z				; InitRecvMsg
PUBLIC	??1?$vector@V?$basic_string@DU?$char_traits@D@std@@V?$allocator@D@2@@std@@V?$allocator@V?$basic_string@DU?$char_traits@D@std@@V?$allocator@D@2@@std@@@2@@std@@QAE@XZ ; std::vector<std::basic_string<char,std::char_traits<char>,std::allocator<char> >,std::allocator<std::basic_string<char,std::char_traits<char>,std::allocator<char> > > >::~vector<std::basic_string<char,std::char_traits<char>,std::allocator<char> >,std::allocator<std::basic_string<char,std::char_traits<char>,std::allocator<char> > > >
PUBLIC	??$_Emplace_reallocate@H@?$vector@HV?$allocator@H@std@@@std@@QAEPAHQAH$$QAH@Z ; std::vector<int,std::allocator<int> >::_Emplace_reallocate<int>
PUBLIC	??$_Destroy_in_place@PAD@std@@YAXAAPAD@Z	; std::_Destroy_in_place<char *>
PUBLIC	??$_Construct_in_place@PADABQAD@std@@YAXAAPADABQAD@Z ; std::_Construct_in_place<char *,char * const &>
PUBLIC	??$_Destroy_range@V?$allocator@H@std@@@std@@YAXPAHQAHAAV?$allocator@H@0@@Z ; std::_Destroy_range<std::allocator<int> >
PUBLIC	??$_Destroy_range@V?$allocator@V?$basic_string@DU?$char_traits@D@std@@V?$allocator@D@2@@std@@@std@@@std@@YAXPAV?$basic_string@DU?$char_traits@D@std@@V?$allocator@D@2@@0@QAV10@AAV?$allocator@V?$basic_string@DU?$char_traits@D@std@@V?$allocator@D@2@@std@@@0@@Z ; std::_Destroy_range<std::allocator<std::basic_string<char,std::char_traits<char>,std::allocator<char> > > >
PUBLIC	??$_Deallocate@$07$0A@@std@@YAXPAXI@Z		; std::_Deallocate<8,0>
PUBLIC	??$_Allocate@$07U_Default_allocate_traits@std@@$0A@@std@@YAPAXI@Z ; std::_Allocate<8,std::_Default_allocate_traits,0>
PUBLIC	??1?$_Tidy_guard@V?$vector@HV?$allocator@H@std@@@std@@@std@@QAE@XZ ; std::_Tidy_guard<std::vector<int,std::allocator<int> > >::~_Tidy_guard<std::vector<int,std::allocator<int> > >
PUBLIC	??$_Allocate_manually_vector_aligned@U_Default_allocate_traits@std@@@std@@YAPAXI@Z ; std::_Allocate_manually_vector_aligned<std::_Default_allocate_traits>
PUBLIC	??$_Uninitialized_move@PAHV?$allocator@H@std@@@std@@YAPAHQAH0PAHAAV?$allocator@H@0@@Z ; std::_Uninitialized_move<int *,std::allocator<int> >
PUBLIC	??$_Uninitialized_copy@PBHV?$allocator@H@std@@@std@@YAPAHQBH0PAHAAV?$allocator@H@0@@Z ; std::_Uninitialized_copy<int const *,std::allocator<int> >
PUBLIC	??$_Copy_memmove@PAHPAH@std@@YAPAHPAH00@Z	; std::_Copy_memmove<int *,int *>
PUBLIC	??$_Copy_memmove@PBHPAH@std@@YAPAHPBH0PAH@Z	; std::_Copy_memmove<int const *,int *>
PUBLIC	?_OptionsStorage@?1??__local_stdio_printf_options@@9@4_KA ; `__local_stdio_printf_options'::`2'::_OptionsStorage
PUBLIC	??_7exception@std@@6B@				; std::exception::`vftable'
PUBLIC	??_C@_0BC@EOODALEL@Unknown?5exception@		; `string'
PUBLIC	??_7bad_alloc@std@@6B@				; std::bad_alloc::`vftable'
PUBLIC	??_7bad_array_new_length@std@@6B@		; std::bad_array_new_length::`vftable'
PUBLIC	??_C@_0BF@KINCDENJ@bad?5array?5new?5length@	; `string'
PUBLIC	__TI3?AVbad_array_new_length@std@@
PUBLIC	__CTA3?AVbad_array_new_length@std@@
PUBLIC	??_R0?AVbad_array_new_length@std@@@8		; std::bad_array_new_length `RTTI Type Descriptor'
PUBLIC	__CT??_R0?AVbad_array_new_length@std@@@8??0bad_array_new_length@std@@QAE@ABV01@@Z12
PUBLIC	??_R0?AVbad_alloc@std@@@8			; std::bad_alloc `RTTI Type Descriptor'
PUBLIC	__CT??_R0?AVbad_alloc@std@@@8??0bad_alloc@std@@QAE@ABV01@@Z12
PUBLIC	??_R0?AVexception@std@@@8			; std::exception `RTTI Type Descriptor'
PUBLIC	__CT??_R0?AVexception@std@@@8??0exception@std@@QAE@ABV01@@Z12
PUBLIC	??_C@_0L@HPPHGFBL@?$LI?$LO?$LI?p?$LN?$LK?D?m?F?y@ ; `string'
PUBLIC	??_C@_0CC@OFAJPOPK@?$LH?$KD?$LE?$PN?$MA?$LI?$LH?N?5?$LO?F?$MA?L?E?$NL?$MA?$LL?5?H?$LJ?$LF?f?G?Q?$LE?Y?5?$CI?$LH?$KD?$LE@ ; `string'
PUBLIC	??_C@_0BA@JFNIOLAK@string?5too?5long@		; `string'
PUBLIC	??_C@_0BG@HGEDEDEC@invalid?5stoi?5argument@	; `string'
PUBLIC	??_C@_0BL@MFFNMGGC@stoi?5argument?5out?5of?5range@ ; `string'
PUBLIC	??_C@_02BIDEELGN@S?$CL@				; `string'
PUBLIC	??_C@_01CPLAODJH@S@				; `string'
PUBLIC	??_C@_02HJGDMHD@A?$CL@				; `string'
PUBLIC	??_C@_01FHEEJDEE@A@				; `string'
PUBLIC	??_C@_02FNAICCK@B?$CL@				; `string'
PUBLIC	??_C@_01HMGJMAIH@B@				; `string'
PUBLIC	??_C@_02EBCOIBN@C?$CL@				; `string'
PUBLIC	??_C@_01GFHCPBMG@C@				; `string'
PUBLIC	??_C@_02BFNPOJI@D?$CL@				; `string'
PUBLIC	??_C@_01CKDDGHAB@D@				; `string'
PUBLIC	??_C@_01BIAFAFID@F@				; `string'
PUBLIC	??_C@_02DPKJAMEF@?$CFd@				; `string'
PUBLIC	??_C@_01CLKCMJKC@?5@				; `string'
PUBLIC	??_C@_02DKCKIIND@?$CFs@				; `string'
PUBLIC	??_C@_04IMPGGDFH@?$CFd?$KD?$KF@			; `string'
PUBLIC	??_C@_0M@MPGNHMDP@?$CI?$LK?q?$LP?kMP?3?$CFd?$CJ@ ; `string'
PUBLIC	??_C@_03GHDNOBPC@?$CF8s@			; `string'
PUBLIC	??_C@_0L@OMFCIIOF@?$CI?Y?D?$DPMP?3?$CFd?$CJ@	; `string'
PUBLIC	??_C@_0FG@OFAEILEL@T?$HM?$CFs?$HM?$CFs?$HMK?$HMI?$HM?$CFd?$HMI?$HM?$CFd?$HMI?$HM?$CFd?$HMI?$HM?$CFd?$HMI@ ; `string'
PUBLIC	??_C@_0BP@EDJFIODM@P?$HM?$CFd?$HMP?$HM?$CFd?$HMP?$HM?$CFd?$HMP?$HM?$CFd?$HMP?$HM?$CFd?$HMG?$HM?$CFd?$HM@ ; `string'
PUBLIC	??_C@_0EM@BMOJJPID@I?$HM?$CFd?$HMI?$HM?$CFd?$HMI?$HM?$CFd?$HMI?$HM?$CFd?$HMI?$HM?$CFd?$HMI?$HM?$CFd?$HMI@ ; `string'
PUBLIC	??_C@_08KJEDNCKC@?$CFs?$CFs?$CFs?$CFs@		; `string'
PUBLIC	??_C@_0BC@OAKKNIEC@T?$HM?$CFs?$HM?$CFs?$HMC?$HMconfirm@ ; `string'
PUBLIC	??_C@_03IFADCKOJ@?$CFd?$HM@			; `string'
PUBLIC	??_C@_03HMFOOINA@r?$CLb@			; `string'
PUBLIC	??_C@_0O@GFOIPMHB@data?2mail?4dat@		; `string'
PUBLIC	??_C@_02JDPG@rb@				; `string'
PUBLIC	??_C@_02GMLFBBN@wb@				; `string'
PUBLIC	??_C@_0BB@GDFOCPAE@data?2chatreg?4dat@		; `string'
PUBLIC	??_C@_0BC@DHMHBGOC@data?2album_47?4dat@		; `string'
PUBLIC	??_C@_04IJNKKJEO@?H?$KO?$MA?N@			; `string'
PUBLIC	??_C@_0CN@KFFLPIAB@?$LO?Y?$LJ?$PM?5?$LF?$KF?$MA?L?E?M?$LI?$KG?5?$MA?z?$MA?e?G?O?$LE?B?$LF?$KF?5?$LN?G?F?P?G?O@ ; `string'
PUBLIC	??_C@_0CN@IOHGKLMC@?$LO?Y?$LJ?$PM?5?$LF?$KF?$MA?L?E?M?$LI?$KG?5?$MA?z?$MA?e?G?O?$LE?B?$LF?$KF?5?$LN?G?F?P?G?O@ ; `string'
PUBLIC	??_C@_0CN@JHGNJKID@?$LO?Y?$LJ?$PM?5?$LF?$KF?$MA?L?E?M?$LI?$KG?5?$MA?z?$MA?e?G?O?$LE?B?$LF?$KF?5?$LN?G?F?P?G?O@ ; `string'
PUBLIC	??_C@_0BB@DGDLCNIG@data?2album_2?4dat@		; `string'
PUBLIC	??_C@_0BB@PNGHPOCD@data?2album_3?4dat@		; `string'
PUBLIC	??_C@_0BC@HIPKAJPN@data?2album_10?4dat@		; `string'
PUBLIC	??_C@_0P@JONHHOLF@data?2album?4dat@		; `string'
PUBLIC	??_C@_09BACHGGGK@f?$DLencor1c@			; `string'
PUBLIC	??_C@_0BC@PMJLMFEH@data?2album_46?4dat@		; `string'
PUBLIC	??_C@_0BC@HKAPLHOJ@data?2album_45?4dat@		; `string'
PUBLIC	??_C@_0BC@LBFDGEEM@data?2album_44?4dat@		; `string'
PUBLIC	??_C@_0BC@KMFGFEPE@data?2album_43?4dat@		; `string'
PUBLIC	??_C@_0BC@GHAKIHFB@data?2album_42?4dat@		; `string'
PUBLIC	??_C@_0BC@OBJOPFPP@data?2album_41?4dat@		; `string'
PUBLIC	??_C@_0BC@CKMCCGFK@data?2album_40?4dat@		; `string'
PUBLIC	??_C@_0BC@MIGKEJBM@data?2album_39?4dat@		; `string'
PUBLIC	??_C@_0BC@DDGJKLJ@data?2album_38?4dat@		; `string'
PUBLIC	??_C@_0BC@PCGACIGM@data?2album_37?4dat@		; `string'
PUBLIC	??_C@_0BC@DJDMPLMJ@data?2album_36?4dat@		; `string'
PUBLIC	??_C@_0BC@LPKIIJGH@data?2album_35?4dat@		; `string'
PUBLIC	??_C@_0BC@HEPEFKMC@data?2album_34?4dat@		; `string'
PUBLIC	??_C@_0BC@GJPBGKHK@data?2album_33?4dat@		; `string'
PUBLIC	??_C@_0BC@KCKNLJNP@data?2album_32?4dat@		; `string'
PUBLIC	??_C@_0BC@CEDJMLHB@data?2album_31?4dat@		; `string'
PUBLIC	??_C@_0BC@OPGFBINE@data?2album_30?4dat@		; `string'
PUBLIC	??_C@_0BC@GOBNECKI@data?2album_29?4dat@		; `string'
PUBLIC	??_C@_0BC@KFEBJBAN@data?2album_28?4dat@		; `string'
PUBLIC	??_C@_0BC@FEBHCDNI@data?2album_27?4dat@		; `string'
PUBLIC	??_C@_0BC@JPELPAHN@data?2album_26?4dat@		; `string'
PUBLIC	??_C@_0BC@BJNPICND@data?2album_25?4dat@		; `string'
PUBLIC	??_C@_0BC@NCIDFBHG@data?2album_24?4dat@		; `string'
PUBLIC	??_C@_0BC@MPIGGBMO@data?2album_23?4dat@		; `string'
PUBLIC	??_C@_0BC@ENKLCGL@data?2album_22?4dat@		; `string'
PUBLIC	??_C@_0BC@ICEOMAMF@data?2album_21?4dat@		; `string'
PUBLIC	??_C@_0BC@EJBCBDGA@data?2album_20?4dat@		; `string'
PUBLIC	??_C@_0BC@FPPFFIDF@data?2album_19?4dat@		; `string'
PUBLIC	??_C@_0BC@JEKJILJA@data?2album_18?4dat@		; `string'
PUBLIC	??_C@_0BC@GFPPDJEF@data?2album_17?4dat@		; `string'
PUBLIC	??_C@_0BC@KOKDOKOA@data?2album_16?4dat@		; `string'
PUBLIC	??_C@_0BC@CIDHJIEO@data?2album_15?4dat@		; `string'
PUBLIC	??_C@_0BC@ODGLELOL@data?2album_14?4dat@		; `string'
PUBLIC	??_C@_0BC@POGOHLFD@data?2album_13?4dat@		; `string'
PUBLIC	??_C@_0BC@DFDCKIPG@data?2album_12?4dat@		; `string'
PUBLIC	??_C@_0BB@FMPMNNEF@data?2album_9?4dat@		; `string'
PUBLIC	??_C@_0BB@JHKAAOOA@data?2album_8?4dat@		; `string'
PUBLIC	??_C@_0BB@GGPGLMDF@data?2album_7?4dat@		; `string'
PUBLIC	??_C@_0BB@KNKKGPJA@data?2album_6?4dat@		; `string'
PUBLIC	??_C@_0BB@CLDOBNDO@data?2album_5?4dat@		; `string'
PUBLIC	??_C@_0BB@OAGCMOJL@data?2album_4?4dat@		; `string'
PUBLIC	??_C@_08GINKOJP@?$CF?$CKc?$CFs?$CF?$CKc@	; `string'
PUBLIC	??_C@_03IKGEINEE@?$CFs?5@			; `string'
PUBLIC	??_C@_0P@LOIJIIEJ@?$LE?k?5?A?v?$LP?$KK?5?$LM?$LD?A?$KE?$KB?$KD@ ; `string'
PUBLIC	??_C@_0CJ@GIHIAMIF@?$LG?s?$MA?N?$MA?$LL?5?$LM?$LD?A?$KE?G?O?$LA?m?0?5?$LE?k?5?A?v?$LP?$KK?$MA?$LL?5?$LM?$LD?A?$KE@ ; `string'
PUBLIC	??_C@_0MB@GBACAPFD@?F?$MA?$MA?e?1?F?D?F?$LM?$MA?e?$KD?$LK?$MA?Z?$LF?$LP?$MA?$LI?$LH?N?5?$MA?$PL?$MA?$LL?$LI?$LI?$LD?$KK?$LA@ ; `string'
PUBLIC	??_C@_0BF@CKOBPJKJ@?$LH?N?$LB?W?$LP?B?5?D?$LD?$LI?$KP?E?M?5?$LM?$LD?A?$KE?$KB?$KD@ ; `string'
PUBLIC	??_C@_0GF@BOMDPEP@?$LH?N?$LB?W?$MA?N?5?H?D?5F9?E?$LA?$LI?$KG?5?$LE?$KN?$LH?$KP?$LM?$KN?5?D?Q?$LA?m?5?$LC?x@ ; `string'
PUBLIC	??_C@_0DK@HOGDKPIF@?$LE?k?5?A?v?$LP?$KK?5?$LG?s?$MA?N?$LA?z?5?$LP?$KK?G?R?$MA?$LL?5?$LI?U?$MA?z?5?$LM?$LB?E?C@ ; `string'
PUBLIC	??_C@_0DE@CELNCKDE@?F?D?F?$LM?$MA?e?$LA?z?5?$LM?V?$LH?N?5?G?C?$LH?$LJ?$MA?L?$LO?n?$LE?B?5?$MA?L?5?$LB?b?$LE@ ; `string'
PUBLIC	??_C@_0DF@NNHIIENC@?$MA?$PL?5?C?b?G?v?5?$LI?p?$LF?e?$LE?B?5?F?D?F?$LM?$MA?e?$LA?z?5?$LM?V?$LH?N?5?G?C@ ; `string'
PUBLIC	??_C@_0CE@ODNPGMLF@?F?D?F?$LM?$LP?x?$LI?$LI?5?$MA?L?5?$LB?b?$LE?I?$MA?$LL?5?$LM?$LD?A?$KE?G?R?5?$LM?v?5?$MA?V@ ; `string'
PUBLIC	??_C@_0DC@OHNNJONP@?$MA?Z?$LF?$LP?5?$LP?$NM?D?$KH?$MA?$LK?5?F?D?F?$LM?$LP?x?5?$LI?p?$LF?e?$LP?$KB?$LM?$KN?$LI?$LI?5?H@ ; `string'
PUBLIC	??_C@_0CM@PNEJOHOF@?A?$KC?$LM?S?$MA?L?$LC?w?$LB?d?5?D?$LD?$LI?$KP?E?M?5?$MA?g?A?$KC?$LM?S?5?$LN?C?5?D?$LD?$LI@ ; `string'
PUBLIC	??_C@_04CJANLAJP@?D?Q?$LE?Y@			; `string'
PUBLIC	??_C@_04JHHBNKBI@?A?$LO?$LH?a@			; `string'
PUBLIC	??_C@_0CE@JEKFMNHA@?$LL?s?A?$KB?$MA?L?$LP?k?$LN?C?0?5?$LO?F?$MA?L?E?$NL?$LL?g?$LP?k?$MA?$LL?G?R?$LM?v?$LO?x?$LO@ ; `string'
PUBLIC	??_C@_0N@MLOJNNJN@?$LE?$NM?$LM?x?H?$KN?$LJ?v?F?$LA?$KD?$KB@ ; `string'
PUBLIC	??_C@_0L@PCOGCFAC@?$LB?b?A?$LI?$LJ?v?F?$LA?$KD?$KB@ ; `string'
PUBLIC	??_C@_0BB@KKHECGNN@BGM?$MA?L?5?D?Q?A?$LD?$LO?n?$LP?d?$KD?$KB@ ; `string'
PUBLIC	??_C@_0BB@LGLPBADP@BGM?$MA?L?5?$LC?$KI?A?$LD?$LO?n?$LP?d?$KD?$KB@ ; `string'
PUBLIC	??_C@_0P@OFGFLBDD@?$LK?$PM?$LI?$KF?$LA?H?$LB?b?D?Q?$LB?b?$KD?$KB@ ; `string'
PUBLIC	??_C@_0P@DNLMMAKH@?$LK?$PM?$LI?$KF?$LA?H?$LB?b?$LC?t?$LB?b?$KD?$KB@ ; `string'
PUBLIC	??_C@_0P@BJHPFHFH@?$LL?s?E?B?G?$KF?$LN?C?$LP?$KN?$LB?b?$KD?$KB@ ; `string'
PUBLIC	??_C@_0P@FDCJGPKI@?$LL?s?E?B?G?$KF?$LN?C?$LC?t?$LB?b?$KD?$KB@ ; `string'
PUBLIC	??_C@_0CC@LEBCBFKD@?$MA?Z?$LF?$LP?$MA?$PM?E?u?5?$LI?p?$LF?e?$LA?$KB?5?H?$LA?$LM?$LK?H?$KN?5?$LF?G?$LO?z?$LN?$MA?$LE?O@ ; `string'
PUBLIC	??_C@_0CB@HCIPIBLA@?$MA?Z?$LF?$LP?$MA?$PM?E?u?5?$LI?p?$LF?e?$LA?$KB?5?A?$LO?$LH?a?5?$LF?G?$LO?z?$LN?$MA?$LE?O?$LE?Y@ ; `string'
PUBLIC	??_C@_0BB@MEGGIBAG@?5?5?5?5?$LI?$LG?$MA?$LL?$LA?$KB?$LB?b?5?5?5?5@ ; `string'
PUBLIC	??_C@_0BB@KCHLCCBP@?5?5?5?5?$LH?N?$LB?W?$LO?F?$LP?t?5?5?5?5@ ; `string'
PUBLIC	??_C@_0BB@JJJAMCHF@?5?5?5?5?C?$KE?F?C?$LM?$LD?A?$KE?5?5?5?5@ ; `string'
PUBLIC	??_C@_0BB@EOMINEH@?5?5?5?5?$LJ?h?$LA?f?$MA?$LN?$LO?G?5?5?5?5@ ; `string'
PUBLIC	??_C@_0BB@IBKCAFGG@?5?5?5?5?H?$LP?$LA?z?$LM?$LD?A?$KE?5?5?5?5@ ; `string'
PUBLIC	??_C@_0BB@BBDDKJIA@?5?5?5?5?$KD?A?$KD?I?$LM?$LD?A?$KE?5?5?5?5@ ; `string'
PUBLIC	??_C@_0N@LBIEPHK@?5?5?5?5?E?$NL?C?$KC?$LA?m?5?5@ ; `string'
PUBLIC	??_C@_0N@HLPCCAFM@?5?5?5?5?F?j?C?$KC?$LA?m?5?5@	; `string'
PUBLIC	??_C@_0N@GMIIOOOP@?5?5?$MA?$LN?$LO?G?D?Q?$LB?b?5?5@ ; `string'
PUBLIC	??_C@_0N@LEFBJPHL@?5?5?$MA?$LN?$LO?G?$LC?t?$LB?b?5?5@ ; `string'
PUBLIC	??_C@_0N@HKIKJEIK@?5?5?$MA?Z?$LF?$LP?$LC?t?$LB?b?5?5@ ; `string'
PUBLIC	??_C@_0N@KCFDOFBO@?5?5?$MA?Z?$LF?$LP?D?Q?$LB?b?5?5@ ; `string'
PUBLIC	??_C@_0N@DEIGFB@?$KB?$KB?$LE?$NN?$KB?$KB?$KB?$KB?$LB?b?$KB?$KB@ ; `string'
PUBLIC	??_C@_0BD@KOMGLKIA@?$KB?$KB?$KB?$KB?5?H?$KO?5?5?5?5?5?$MA?N?$KB?$KB?$KB?$KB@ ; `string'
PUBLIC	??_C@_0BD@BOIANLGK@?$KB?$KB?$KB?$KB?5?C?k?5?5?5?5?5?$LM?R?$KB?$KB?$KB?$KB@ ; `string'
PUBLIC	??_C@_0BM@ENKFHEAF@?5?5?5?5?5?$KB?$NP?5?C?$KE?F?C?5?G?$KF?$LN?C?5?$CF3d?5?A?Y?5?$KB?$NP@ ; `string'
PUBLIC	??_C@_0BH@FAFBDACD@?5?5?5?5?5?5?5?5?A?u?5?5?5?5?$LA?$KB?5?5?5?5?5?5@ ; `string'
PUBLIC	??_C@_0BH@LLOMOPMG@?5?5?5?5?5?5?5?5?$LA?$KI?5?5?5?5?$LM?R?5?5?5?5?5?5@ ; `string'
PUBLIC	??_C@_0BH@BHEDFJKF@?5?5?5?5?5?$LL?v?$LL?s?5?$LK?$KP?$LA?f?$CI?$CF?92d?$CJ?5?5@ ; `string'
PUBLIC	??_C@_0BI@FHOMOHBA@?5?5?5?5?5?5?5?5?$LJ?$KO?$MA?Z?5?$LM?$LD?A?$KE?5?5?5?5?5?5@ ; `string'
PUBLIC	??_C@_0BL@KBNPCBGD@?5?5?5?5?5?$KB?$NP?5?C?$KE?5?F?C?5?$LJ?$PM?5?$MA?$KH?5?$CF3d?5?$KB?$NP@ ; `string'
PUBLIC	??_C@_0BH@BIAEBEPO@?5?5?5?5?5?5?5?A?u?5?5?5?5?$LA?$KB?5?5?5?5?5?5?5@ ; `string'
PUBLIC	??_C@_0BH@MIIPLPNG@?5?5?5?5?5?5?5?$LA?$KI?5?5?5?5?$LM?R?5?5?5?5?5?5?5@ ; `string'
PUBLIC	??_C@_0BI@DIAFOMFL@?5?5?5?5?5?5?$LF?$LJ?5?$LO?F?5?$LA?$KB?5?$LB?b?5?5?5?5?5?5@ ; `string'
PUBLIC	??_C@_0BL@OHLFALHA@?5?5?$KB?$NP?5?5?G?v?5?$MA?g?5?$MA?$LN?5?$LH?$KO?$CF3d?5?5?$KB?$NP?5?5@ ; `string'
PUBLIC	??_C@_0BI@KPMMPACD@?5?5?5?5?5?5?5?A?u?5?5?5?5?5?$LA?$KB?5?5?5?5?5?5?5@ ; `string'
PUBLIC	??_C@_0BI@FONPGALA@?5?5?5?5?5?5?5?$LA?$KI?5?5?5?5?5?$LM?R?5?5?5?5?5?5?5@ ; `string'
PUBLIC	??_C@_0BJ@GJAFKJDC@?5?5?5?5?5?5?$LF?$LJ?5?$LO?F?5?$LA?$KB?5?$LB?b?5?5?5?5?5?5?5@ ; `string'
PUBLIC	??_C@_0BI@MMNCCENM@?5?5?5?$KB?$NP?5?5?$LJ?h?$LA?f?$MA?$LN?$LO?G?5?$CF3d?5?5?$KB?$NP@ ; `string'
PUBLIC	??_C@_0BL@BJPCPCNM@?$KB?$NP?5?5?5?$KB?$NP?5?5?E?$NL?F?w?A?$LG?$MA?$PN?5?50?5?5?$KB?$NP?$KB?$NP@ ; `string'
PUBLIC	??_C@_0BK@FEMCCNKI@?5?5?5?$KB?$NP?5?5?E?$NL?F?w?A?$LG?$MA?$PN?5?5?$CF?$CL3d?5?5?$KB?$NP@ ; `string'
PUBLIC	??_C@_0BG@IIDNKJBP@?5?5?5?5?5?5?5?A?u?5?5?5?5?$LA?$KB?5?5?5?5?5?5@ ; `string'
PUBLIC	??_C@_0BG@GDIAHGPK@?5?5?5?5?5?5?5?$LA?$KI?5?5?5?5?$LM?R?5?5?5?5?5?5@ ; `string'
PUBLIC	??_C@_08LPIKKIN@?$LA?x?$LH?f?$LO?K?$KB?$KD@	; `string'
PUBLIC	??_C@_08LMHKBLHA@?$LL?$MA?$LE?Y?$LB?M?$KB?$KD@	; `string'
PUBLIC	??_C@_0BG@KDDPLIEA@?5?$KB?$NP?5?D?$LP?5?$LM?$KN?5?$LM?$LD?5?A?$KE?5?$KB?$NP?5?5?5@ ; `string'
PUBLIC	??_C@_0BF@NJPDCGDE@?5?5?5?5?5?5?5?A?$LO?5?5?$LH?a?5?5?5?5?5?5?5@ ; `string'
PUBLIC	??_C@_0BC@BCIJAKBP@?5?5?5?5?H?$KO?5?5?5?5?$MA?N?5?5?5?5?5@ ; `string'
PUBLIC	??_C@_0BC@KGJCGBCP@?5?5?5?5?C?k?5?5?5?5?$LM?R?5?5?5?5?5@ ; `string'
PUBLIC	??_C@_07DONLOGLK@?$CFd?5?$CI?$CFd?$CJ@		; `string'
PUBLIC	??_C@_03LEPPJAKI@MAX@				; `string'
PUBLIC	??_C@_0M@ODJBNPN@?$CFd?5?$CI?$CF?42f?$CF?$CF?$CJ@ ; `string'
PUBLIC	??_C@_04EAFHDMJK@?$CF?94d@			; `string'
PUBLIC	??_C@_04EFBICKBP@?$CF?93d@			; `string'
PUBLIC	??_C@_03GNABGMEE@100@				; `string'
PUBLIC	??_C@_01GBGANLPD@0@				; `string'
PUBLIC	??_C@_02MMCGBDJK@0?$CF@				; `string'
PUBLIC	??_C@_03HIFDAEPP@?$CF?9d@			; `string'
PUBLIC	??_C@_03GLKEJMAA@?$CF4d@			; `string'
PUBLIC	??_C@_09COLCMPMP@?$CF4d?5?5?5?$CF4d@		; `string'
PUBLIC	??_C@_07JANMBDEO@?$CF4d?5?$CF4d@		; `string'
PUBLIC	??_C@_0CF@IJGAMOEE@?$FL?$CFs?$FN?$MA?g?$LH?a?5?$LM?S?$LM?$LK?$MA?$LL?5?H?$KO?$MA?N?G?T?5?5?5?5?5?5?5?$CFd@ ; `string'
PUBLIC	??_C@_0EG@CAIJDNGD@?$DP?i?M?$FL?$CFs?$FN?$MA?g?$LH?a?$MA?G?5?$LM?S?$LM?$LK?$MA?$LL?5?$LA?$KI?A?$KE?1?H?$KO?$MA?N?G@ ; `string'
PUBLIC	??_C@_0BC@HALJJKGM@?$MA?g?$LH?a?5?G?U?$LM?$LK?5?$LM?$LK?$LA?x?$MA?$LC?$AA@ ; `string'
PUBLIC	??_C@_0CH@BAIOACBP@?$FL?$CFs?$FN?$MA?g?$LH?a?5?$LM?S?$LM?$LK?$MA?$LL?5?H?$KO?$MA?N?G?T?5?5?5?5?5?5?5?5?5@ ; `string'
PUBLIC	??_C@_0CJ@JOENNLPN@?$MA?g?$LH?a?5?$LM?S?$LM?$LK?$MA?$LL?5?H?$KO?$MA?N?G?O?$LP?$KJ?$FL?$CFs?$FN?$LI?$KG?5?$LD?t?$MA?O@ ; `string'
PUBLIC	??_C@_0BB@PPGFHNAN@?$MA?g?$LH?a?G?U?$LM?$LK?5?$LM?$LK?$LA?x?$MA?$LC?$AA@ ; `string'
PUBLIC	??_C@_05GGHFNJMD@?$CFs?$CFs?$AA@		; `string'
PUBLIC	??_C@_0CG@KBOLHIJH@?$LL?s?A?$KB?$LB?b?$LE?I?$MA?L?$LP?k?$LN?C?0?5?F?d?F?$KO?$LI?$KG?$LK?$KP?$LA?f?G?R?$LM?v?$LO@ ; `string'
PUBLIC	??_C@_0BC@GNJPGDIA@?$HLpet?$DN?$CFd?0str?$DN?$FL?$CFs?$FN?$HN@ ; `string'
PUBLIC	??_C@_06EFALBHEL@R?$HMP?$HM?91@			; `string'
PUBLIC	??_C@_0BC@ILNBPEIE@?F?d?F?$KO?$LI?$KG?5?$LJ?v?$LI?$LB?$LB?n?$LP?d?$KD?$LP@ ; `string'
PUBLIC	??_C@_05EMGOANLP@?$CF?916s@			; `string'
PUBLIC	??_C@_0BC@PMPFNJLM@?$CF3d?5?5?5?5?5?$CF4d?5?5?5?$CF4d@ ; `string'
PUBLIC	??_C@_0BB@OLBLGPHG@?F?d?F?$KO?$LA?$KB?5?$LO?x?$LN?$MA?$LE?O?$LE?Y?4@ ; `string'
PUBLIC	??_C@_09CFBKFGII@?$CFs?5?C?T?$LP?$LF?$KD?$KB@	; `string'
PUBLIC	??_C@_06BLADCOKI@?$FLLOCK?$FN@			; `string'
PUBLIC	??_C@_08DOKBNALB@?$CFs?5?$CF?916s@		; `string'
PUBLIC	??_C@_03GOOLIKIF@?$CF3d@			; `string'
PUBLIC	??_C@_0BA@MEIFLDBG@?$CFd?1?$CFd?5?5?$CI?$CF?42f?$CF?$CF?$CJ@ ; `string'
PUBLIC	??_C@_09NPOEHNBK@?$CF4d?5?1?5?$CF4d@		; `string'
PUBLIC	??_C@_04GFJLOHHD@?$CF?43f@			; `string'
PUBLIC	??_C@_02EOIDJNGE@?5?$CL@			; `string'
PUBLIC	??_C@_04HGGBINEM@?$CFs?$CFd@			; `string'
PUBLIC	??_C@_05JNOMDMDH@?$CF3d?$CF?$CF@		; `string'
PUBLIC	??_C@_0N@DBNACIMP@?5?5?5?5?5?5?5?$CF?922s@	; `string'
PUBLIC	??_C@_0BF@EOCHGIJI@?$LO?F?$MA?L?E?$NL?5?$MA?Z?$LF?$LP?5?$LA?c?D?$KB?$LB?b?$KB?$KD@ ; `string'
PUBLIC	??_C@_02DEECJACC@?p?P@				; `string'
PUBLIC	??_C@_04HECMHKAJ@?M?b?$NM?j@			; `string'
PUBLIC	??_C@_01OGPIMHDM@?$DP@				; `string'
PUBLIC	??_C@_02NNCIDFDN@?O?a@				; `string'
PUBLIC	??_C@_04CECPHKEL@?b?j?x?$KL@			; `string'
PUBLIC	??_C@_08FFKKHGPD@?k?$PN?$NM?W?1?$DP?K?$KD@	; `string'
PUBLIC	??_C@_02HHFHKOHM@?$DP?$DP@			; `string'
PUBLIC	??_C@_04BEMIHOKC@?Z?$LB?r?$LB@			; `string'
PUBLIC	??_C@_05MHFFLKOE@?$DP?c?s?$NN?$KM@		; `string'
PUBLIC	??_C@_08JLPLGDIB@?$NM?E?w?W?Z?$KK?y?$KB@	; `string'
PUBLIC	??_C@_05EGENBHF@?$PM?$NO?$OA?A?$DP@		; `string'
PUBLIC	??_C@_06GGKIIEAG@?w?a?$DP?$NN?$KI?$DP@		; `string'
PUBLIC	??_C@_05NCBNMKHJ@?w?a?$DP?$OA?$LE@		; `string'
PUBLIC	??_C@_08PPBNCICL@?l?i?Z?u?Z?$KK?y?$KB@		; `string'
PUBLIC	??_C@_02OEJDJEF@?b?j@				; `string'
PUBLIC	??_C@_04NMNAOJOJ@?$PL?$LJ?m?$KN@		; `string'
PUBLIC	??_C@_04DKIAPBFG@?b?$KC?w?$NP@			; `string'
PUBLIC	??_C@_06KLOJBJDG@?$DP?Z?$KK?$DP?w?$NP@		; `string'
PUBLIC	??_C@_05HADHEFCA@?$DP?Z?$KK?J?E@		; `string'
PUBLIC	??_C@_0N@OJIDMKKD@?R?$LB?5?N?y?5?S?x?$KD?$LK?$CFs@ ; `string'
PUBLIC	??_C@_0BA@HANCGCKL@?T?$LD?N?$PN?$DP?z?$PO?$KD?$LK?$CFs?$CI?$CFd?$CJ@ ; `string'
PUBLIC	??_C@_0M@PEOHJCFP@?$NO?E?i?D?T?u?$DP?$KD?$LK?$CFd@ ; `string'
PUBLIC	??_C@_0L@CFBINIFC@?R?$LB?N?y?S?x?$CI?$CFs?$CJ@	; `string'
PUBLIC	??_C@_04DMAFGKHI@?$LN?$LK?E?f@			; `string'
PUBLIC	??_C@_08OHLEHKNP@?$LD?$LL?$LB?$LI?$CI?$CFs?$CJ@	; `string'
PUBLIC	??_C@_0M@KBIHDIM@?$DP?$DP?$NM?t?J?$KG?$DP?$DP?$DP?$KD?$KB@ ; `string'
PUBLIC	??_C@_0BO@FMLOPNNF@?E?$LO?$LN?B?F?j?$MA?e?$LK?q?$LI?$KG?5?B?x?$LP?k?G?R?$LM?v?$LO?x?$LO?n?$LP?d?$KD?$KB@ ; `string'
PUBLIC	??_C@_04KBAMDEME@?G?U?$LM?$LK@			; `string'
PUBLIC	??_C@_04JJOHPIH@?$LP?d?$LI?$KO@			; `string'
PUBLIC	??_C@_09JLDAGEJM@?A?$KE?$LH?C?1?A?$KE?A?$KG@	; `string'
PUBLIC	??_C@_04CENFCOIH@?A?$KE?$LB?$LD@		; `string'
PUBLIC	??_C@_04LECOJKED@?$LM?v?$LI?$KO@		; `string'
PUBLIC	??_C@_04BCAOMEHC@?$LA?$KN?H?$KN@		; `string'
PUBLIC	??_C@_04FNJBHMGB@?$CF10d@			; `string'
PUBLIC	??_C@_07HFNBMNBH@?$CF2d?1?$CF2d@		; `string'
PUBLIC	??_C@_0BB@OOMMIBOD@?A?V?$LM?z?$MA?L?5?$LO?x?$LN?$MA?$LE?O?$LE?Y?4@ ; `string'
PUBLIC	??_C@_06IKNDGEEE@?$LF?$LP?5?$CF3d@		; `string'
PUBLIC	??_C@_06FFJNECKA@?$LD?$LC?5?$CF3d@		; `string'
PUBLIC	??_C@_0M@MELGFJCD@?A?$KE?$LH?I?$MA?G?5?$LL?g?$MA?Z@ ; `string'
PUBLIC	??_C@_0M@HLOAEAFL@?A?$KE?$LH?I?$MA?G?5?$LP?k?$MA?Z@ ; `string'
PUBLIC	??_C@_03GCLOGFGE@?$CF8d@			; `string'
PUBLIC	??_C@_0P@KLBINAOA@?A?$KE?$LH?I?5?$LM?R?H?$KP?5?$LP?k?$LF?$LF@ ; `string'
PUBLIC	??_C@_03GPCJOALC@?$CF2d@			; `string'
PUBLIC	??_C@_0DB@DLDGKHKC@?$LA?E?$LH?$KB?A?$NP?$MA?N?5?F?d?F?$KO?$LE?B?5?F?d?F?$KO?$LI?$NO?$MA?O?$LB?b?$LE?I?$MA?$LL?5@ ; `string'
PUBLIC	??_C@_0BB@JGMBHNPP@?5?5?$MA?O?5?$LJ?$NN?5?$LI?$NO?5?$MA?O?5?5?5@ ; `string'
PUBLIC	??_C@_0BB@HHJMAEP@?5?5?F?d?5?F?$KO?5?$LI?$NO?5?$MA?O?5?5?5@ ; `string'
PUBLIC	??_C@_0BL@GCLEBMEI@?D?$KD?$LB?$LI?$LA?$KB?5?A?$KC?$LM?S?G?X?$MA?V?A?v?5?$LO?J?$LO?F?$LP?d?$KD?$KB@ ; `string'
PUBLIC	??_C@_0M@IEFMJAKN@?$LO?F?$MA?L?E?$NL?5?$LP?O?$LM?$LK@ ; `string'
PUBLIC	??_C@_05GEIIADAH@LvUp?$CB@			; `string'
PUBLIC	??_C@_08EEKBPDLC@Exp?5?$CF?$CL5d@		; `string'
PUBLIC	??_C@_08EFGDJJIF@Exp?5?$CF?$CL4d@		; `string'
PUBLIC	??_C@_09MBHBIIFC@Exp?5?5?5?5?$CL0@		; `string'
PUBLIC	??_C@_0M@OKFINFEF@?5?5?$LO?F?$MA?L?E?$NL?5?$KD?$LK@ ; `string'
PUBLIC	??_C@_0BN@DBCJKIIM@?$LO?F?$MA?L?E?$NL?$MA?$LL?5?$LO?r?A?v?5?$LI?x?G?O?$LP?$LE?$LN?$MA?$LE?O?$LE?Y?$KB?$KD@ ; `string'
PUBLIC	??_C@_0O@JBEDPFPL@?5?$KD?D?5?5?$KD?P?5?5?$CF?$CL8d@ ; `string'
PUBLIC	??_C@_0N@EILMFHPP@?5?G?U?5?5?$LA?h?5?5?$CF8d@	; `string'
PUBLIC	??_C@_07BMJINPJG@W?$HM?$CFs?$HM?$CFs@		; `string'
PUBLIC	??_C@_0BA@PCKDKFGL@T?$HM?$CFs?$HM?$CFs?$HMG?$HM?$CFd?$HM?$CFd@ ; `string'
PUBLIC	??_C@_0BL@IIOLHDHO@?$CFs?$HM?$CFs?$HM?$CFs?$HM?$CFs?$HM?$CFs?$HM?$CFs?$HM?$CFs?$HM?$CFs?$HM?$CFs@ ; `string'
PUBLIC	??_C@_0BC@OKAJJOLE@T?$HM?$CFs?$HM?$CFs?$HMP?$HM3?$HM?$CFd?$HM?$CFs@ ; `string'
PUBLIC	??_C@_02HAOIJKIC@?$CFc@				; `string'
PUBLIC	??_C@_01JPJNBJEM@I@				; `string'
PUBLIC	??_C@_03EPCHICDI@x?$CFd@			; `string'
PUBLIC	??_C@_01EJNLAFE@P@				; `string'
PUBLIC	??_C@_04LIFAFMCE@?$FL?$CFs?$FN@			; `string'
PUBLIC	??_C@_07EJEHFIPA@Lv?3?$CFd?$CFs@		; `string'
PUBLIC	??_C@_06LBBHKEFA@1?5?$LE?$NM?$LA?h@		; `string'
PUBLIC	??_C@_06IAPPLOMN@2?5?$LE?$NM?$LA?h@		; `string'
PUBLIC	??_C@_04IIECJNKD@?$MA?$LG?5?$DP@		; `string'
PUBLIC	??_C@_01BBODEMC@G@				; `string'
PUBLIC	??_C@_05INGMOBLN@?$LN?$LK?5?E?f@		; `string'
PUBLIC	??_C@_04PABHPHAJ@Gold@				; `string'
PUBLIC	??_C@_02GPECMEKF@?$FL?$FN@			; `string'
PUBLIC	??_C@_04IAHOEAOA@?$MA?$LG?G?U@			; `string'
PUBLIC	??_C@_03GJOCCCFJ@?$CF7d@			; `string'
PUBLIC	??_C@_08KMGGBBNI@?$LA?E?$LH?$KB?$LB?$NN?$LO?W@	; `string'
PUBLIC	??_C@_0BA@BJIPOAAB@?$LL?s?$LE?k?$LJ?f?5?$LA?E?$LH?$KB?$LB?$NN?$LO?W@ ; `string'
PUBLIC	??_C@_08OEEBHAFG@?$LA?E?$LH?$KB?H?$KO?$MA?N@	; `string'
PUBLIC	??_C@_0O@ONPMCPGG@?C?V?A?$LO?5?$LA?E?$LH?$KB?H?$KO?$MA?N@ ; `string'
PUBLIC	??_C@_0P@FBIHNOAG@T?$HM?$CFs?$HM?$CFs?$HMI?$HM1?$HM?$CFd@ ; `string'
PUBLIC	??_C@_0L@GEIMNGGC@?$MA?N?$LD?$LL?$LH?B?$CI?$CFs?$CJ@ ; `string'
PUBLIC	??_C@_04DHBICLIK@?$CFd?H?$LI@			; `string'
PUBLIC	??_C@_08PECEDIMI@?$MA?$LG?G?U?$CFd?H?$LI@	; `string'
PUBLIC	??_C@_06OJHGLDPL@?$CInull?$CJ@			; `string'
PUBLIC	??_C@_0L@GPPMEBMP@?$MA?N?$LD?$LL?$LH?B?$KD?$LK?$CFs@ ; `string'
PUBLIC	??_C@_06DJMKDILO@B?$HMG?$HM?$CFd@		; `string'
PUBLIC	??_C@_01HIHLOKLC@1@				; `string'
PUBLIC	??_C@_01GAPBHFFA@T@				; `string'
PUBLIC	??_C@_0EP@MMMKPGBO@?$CFs?$LK?q?A?$KE?$LL?s?$MA?$PL?$MA?N?5?$LJ?f?$LN?D?$MA?$LI?$LH?N?5?$LA?E?$LH?$KB?5?$LB?$NN?$LO?W@ ; `string'
PUBLIC	??_C@_02PGHGPEOM@?91@				; `string'
PUBLIC	??_C@_01ELNMCGJD@W@				; `string'
PUBLIC	??_C@_0CH@OILGNOPA@?F?j?$MA?e?$LK?q?$LA?$KB?5?$MA?e?B?x?$LF?G?$MA?V?$MA?$LI?$LI?i?5?E?$LO?$LN?B?G?R?$LM?v?$LO@ ; `string'
PUBLIC	??_C@_06IMNEOPOC@R?$HMP?$HM?$CFd@		; `string'
PUBLIC	??_C@_0BI@CNEPNBEM@?5?$CF15s?5?$CF15s?5?5?$CF5d?5?5?$CF5d?5?5?5@ ; `string'
PUBLIC	??_C@_0DA@OCCOFDAC@?5?5?5?5?5?5?5?5?5?5?5?$MA?L?5?$LI?$KH?5?5?5?5?5?5?5?5?5?5?5?$LK?$LA?5?$LI@ ; `string'
PUBLIC	??_C@_0N@KMPIGJGM@?$CFs?5?$CFs?5?1T?$CFd?5?5@	; `string'
PUBLIC	??_C@_0CA@HADKCOHN@?C?$KE?$LD?N?5?$MA?L?$LI?$KH?$MA?$LL?5?$MA?T?$LH?B?G?O?$LN?C?$LB?b?5?$LJ?Y?$LG?x?$LE?O?$LE?Y@ ; `string'
PUBLIC	??_C@_02PACKEJLJ@B?$HM@				; `string'
PUBLIC	??_C@_01JBBJJEPG@p@				; `string'
PUBLIC	??_C@_0BE@HNIDOICG@?5?5?$CF16s?5?5?$CF16s?5?5?5?$CF2d?5@ ; `string'
PUBLIC	??_C@_0DB@BMHKFDJF@?5?5?5?5?5?5?5?5?5?5?C?$LM?$LD?N?$MA?L?$LI?$KH?5?5?5?5?5?5?5?5?5?5?F?D?F@ ; `string'
PUBLIC	??_C@_04DFGAHNIG@J?$HM?$CFd@			; `string'
PUBLIC	??_C@_0BH@EOCAOGMB@?5?5?$LL?u?$LH?N?$LP?n?5?C?$KE?F?C?$LJ?f?5?$LI?$LI?$LF?i?$LB?b@ ; `string'
PUBLIC	??_C@_01KDCPPGHE@r@				; `string'
PUBLIC	??_C@_0GC@JDIKCLBG@?C?$KE?F?C?5?$LJ?f?$MA?e?$MA?$LK?5?C?$KE?F?C?$LJ?f?$LP?$KB?$LM?$KN?5?$LD?$KK?$LA?$KF?5?$LM?v?5@ ; `string'
PUBLIC	??_C@_02PKLEGELD@L?$HM@				; `string'
PUBLIC	??_C@_0CB@CKMFLHCC@?$LE?g?$LN?E?$MA?$LK?5?$MA?L?$LJ?L?5?C?$KE?F?C?$LJ?f?$MA?$LL?5?$LG?$LA?$LD?$LF?$LN?$MA?$LE?O?$LE?Y@ ; `string'
PUBLIC	??_C@_04IAAFEDG@K?$HM?$CFd@			; `string'
PUBLIC	??_C@_04IHEAKBJG@M?$HM?$CFd@			; `string'
PUBLIC	??_C@_02PEKHDFAL@D?$HM@				; `string'
PUBLIC	??_C@_0M@HKAIMJJM@?$CFs?5?$LA?$KB?$MA?T?$LN?E?C?$LL@ ; `string'
PUBLIC	??_C@_06NKNMMFFA@A?$HM?$CFd?$HM1@		; `string'
PUBLIC	??_C@_06MDMHPEBB@A?$HM?$CFd?$HM0@		; `string'
PUBLIC	??_C@_08MMBFKAPF@?$FL?$LE?k?H?$KN?$FN?$CFs@	; `string'
PUBLIC	??_C@_0BN@GLJGCFGJ@?C?$KE?F?C?$LJ?f?$MA?L?5?$MA?L?$LJ?L?5?$LL?h?A?$KG?$LF?G?$LO?z?$LO?n?$LP?d?$KD?$KB@ ; `string'
PUBLIC	??_C@_0BK@FOCEAPFH@?C?$KE?F?C?$LJ?f?$LP?$KB?$LM?$KN?5?$LA?$KN?E?p?$LF?G?$LO?z?$LO?n?$LP?d?$KD?$KB@ ; `string'
PUBLIC	??_C@_0BJ@DHFDPMIM@invalid?5vector?5subscript@	; `string'
PUBLIC	??_C@_0BO@IMBPEJAE@invalid?5array?$DMT?0?5N?$DO?5subscript@ ; `string'
PUBLIC	??_C@_0BA@FOIKENOD@vector?5too?5long@		; `string'
PUBLIC	??_R4exception@std@@6B@				; std::exception::`RTTI Complete Object Locator'
PUBLIC	??_R3exception@std@@8				; std::exception::`RTTI Class Hierarchy Descriptor'
PUBLIC	??_R2exception@std@@8				; std::exception::`RTTI Base Class Array'
PUBLIC	??_R1A@?0A@EA@exception@std@@8			; std::exception::`RTTI Base Class Descriptor at (0,-1,0,64)'
PUBLIC	??_R4bad_alloc@std@@6B@				; std::bad_alloc::`RTTI Complete Object Locator'
PUBLIC	??_R3bad_alloc@std@@8				; std::bad_alloc::`RTTI Class Hierarchy Descriptor'
PUBLIC	??_R2bad_alloc@std@@8				; std::bad_alloc::`RTTI Base Class Array'
PUBLIC	??_R1A@?0A@EA@bad_alloc@std@@8			; std::bad_alloc::`RTTI Base Class Descriptor at (0,-1,0,64)'
PUBLIC	??_R4bad_array_new_length@std@@6B@		; std::bad_array_new_length::`RTTI Complete Object Locator'
PUBLIC	??_R3bad_array_new_length@std@@8		; std::bad_array_new_length::`RTTI Class Hierarchy Descriptor'
PUBLIC	??_R2bad_array_new_length@std@@8		; std::bad_array_new_length::`RTTI Base Class Array'
PUBLIC	??_R1A@?0A@EA@bad_array_new_length@std@@8	; std::bad_array_new_length::`RTTI Base Class Descriptor at (0,-1,0,64)'
PUBLIC	__real@3f00000000000000
PUBLIC	__real@3f847ae147ae147b
PUBLIC	__real@3f947ae147ae147b
PUBLIC	__real@3f9eb851eb851eb8
PUBLIC	__real@3fa47ae147ae147b
PUBLIC	__real@3fa999999999999a
PUBLIC	__real@3faeb851eb851eb8
PUBLIC	__real@3fb1eb851eb851ec
PUBLIC	__real@3fb47ae147ae147b
PUBLIC	__real@3fb70a3d70a3d70a
PUBLIC	__real@3fb999999999999a
PUBLIC	__real@3fbeb851eb851eb8
PUBLIC	__real@3fc3333333333333
PUBLIC	__real@3fc70a3d70a3d70a
PUBLIC	__real@3fcae147ae147ae1
PUBLIC	__real@3fceb851eb851eb8
PUBLIC	__real@3fd147ae147ae148
PUBLIC	__real@3fd3333333333333
PUBLIC	__real@3fd70a3d70a3d70a
PUBLIC	__real@3fdae147ae147ae1
PUBLIC	__real@3fdeb851eb851eb8
PUBLIC	__real@3fe147ae147ae148
PUBLIC	__real@3fe947ae147ae148
PUBLIC	__real@3fe999999999999a
PUBLIC	__real@4010000000000000
PUBLIC	__real@4012000000000000
PUBLIC	__real@4013000000000000
PUBLIC	__real@4013ccccc0000000
PUBLIC	__real@40149999a0000000
PUBLIC	__real@4015666660000000
PUBLIC	__real@4016333340000000
PUBLIC	__real@4017000000000000
PUBLIC	__real@4059000000000000
PUBLIC	__real@42c80000
PUBLIC	__real@c014000000000000
PUBLIC	__static@8ffde64a243da3c9520e7b1d47f2acf5790ae3ce89c9834a2190211969353309
PUBLIC	__xmm@00000001000000010000000100000001
PUBLIC	__xmm@00000002000000020000000200000002
PUBLIC	__xmm@00000009000000090000000900000009
PUBLIC	__xmm@0000000a0000000a0000000a0000000a
PUBLIC	__xmm@0000000b0000000b0000000b0000000b
PUBLIC	__xmm@0000000c0000000c0000000c0000000c
PUBLIC	__xmm@00006536000065e8000065e4000065e5
PUBLIC	__xmm@fffffffefffffffefffffffefffffffe
PUBLIC	__xmm@ffffffffffffffffffffffffffffffff
EXTRN	??2@YAPAXI@Z:PROC				; operator new
EXTRN	??3@YAXPAXI@Z:PROC				; operator delete
EXTRN	_atexit:PROC
EXTRN	___report_rangecheckfailure:PROC
EXTRN	__Init_thread_header:PROC
EXTRN	__Init_thread_abort:PROC
EXTRN	__Init_thread_footer:PROC
EXTRN	__invalid_parameter_noinfo_noreturn:PROC
EXTRN	?TimeGetTime@@YAIXZ:PROC			; TimeGetTime
EXTRN	__errno:PROC
EXTRN	_strchr:PROC
EXTRN	_strstr:PROC
EXTRN	_strcat_s:PROC
EXTRN	_strncpy_s:PROC
EXTRN	_strncpy:PROC
EXTRN	_strtok:PROC
EXTRN	__imp__DeleteFileA@4:PROC
EXTRN	__imp__MessageBoxA@16:PROC
EXTRN	__imp__ShowCursor@4:PROC
EXTRN	__imp__timeGetTime@0:PROC
EXTRN	_rand:PROC
EXTRN	_atoi:PROC
EXTRN	_strtol:PROC
EXTRN	_itoa:PROC
EXTRN	_fclose:PROC
EXTRN	_fopen:PROC
EXTRN	_fread:PROC
EXTRN	_fseek:PROC
EXTRN	_fwrite:PROC
EXTRN	___stdio_common_vsprintf:PROC
EXTRN	___stdio_common_vsprintf_s:PROC
EXTRN	?ChangeProc2@@YAXH@Z:PROC			; ChangeProc2
EXTRN	?GetAction@@YAPAUaction@@EI@Z:PROC		; GetAction
EXTRN	?DeathAction@@YAXPAUaction@@@Z:PROC		; DeathAction
EXTRN	?GetPettblNo@@YAHH@Z:PROC			; GetPettblNo
EXTRN	?StockDispBuffer@@YAHHHEHH@Z:PROC		; StockDispBuffer
EXTRN	?StockDispBuffer??êÈöÇ@@YAHHHEHH@Z:PROC		; StockDispBuffer??êÈöÇ
EXTRN	?StockBoxDispBuffer@@YAXHHHHEHH@Z:PROC		; StockBoxDispBuffer
EXTRN	?Rnd@@YAHHH@Z:PROC				; Rnd
EXTRN	?StockChatBufferLine@@YAXPADEH@Z:PROC		; StockChatBufferLine
EXTRN	?GetStrLastByte@@YAHPAD@Z:PROC			; GetStrLastByte
EXTRN	?GetKeyInputFocus@@YAXPAUSTR_BUFFER@@@Z:PROC	; GetKeyInputFocus
EXTRN	?KeyboardReturn@@YAXXZ:PROC			; KeyboardReturn
EXTRN	?LoadChatHistoryStr@@YAHXZ:PROC			; LoadChatHistoryStr
EXTRN	?StrToNowStrBuffer@@YAXPAD@Z:PROC		; StrToNowStrBuffer
EXTRN	?StockFontBuffer@@YAHHHDHPADH@Z:PROC		; StockFontBuffer
EXTRN	?StockFontBuffer2@@YAXPAUSTR_BUFFER@@@Z:PROC	; StockFontBuffer2
EXTRN	?radar@@YAXPAUaction@@PAH1@Z:PROC		; radar
EXTRN	?gemini@@YAXPAUaction@@@Z:PROC			; gemini
EXTRN	?pattern@@YAHPAUaction@@HH@Z:PROC		; pattern
EXTRN	?GetImeString@@YAPADXZ:PROC			; GetImeString
EXTRN	?checkPcWalkFlag@@YAHXZ:PROC			; checkPcWalkFlag
EXTRN	?CHAR_getMaxHaveGold@@YAHXZ:PROC		; CHAR_getMaxHaveGold
EXTRN	?lssproto_SaMenu_send@@YAXHHHH@Z:PROC		; lssproto_SaMenu_send
EXTRN	?lssproto_petshopcall_send@@YAXH@Z:PROC		; lssproto_petshopcall_send
EXTRN	?lssproto_poolitemcall_send@@YAXH@Z:PROC	; lssproto_poolitemcall_send
EXTRN	?lssproto_ID_send@@YAXHHHHH@Z:PROC		; lssproto_ID_send
EXTRN	?lssproto_DI_send@@YAXHHHH@Z:PROC		; lssproto_DI_send
EXTRN	?lssproto_DG_send@@YAXHHHH@Z:PROC		; lssproto_DG_send
EXTRN	?lssproto_DP_send@@YAXHHHH@Z:PROC		; lssproto_DP_send
EXTRN	?lssproto_MI_send@@YAXHHH@Z:PROC		; lssproto_MI_send
EXTRN	?lssproto_MSG_send@@YAXHHPADH@Z:PROC		; lssproto_MSG_send
EXTRN	?lssproto_PMSG_send@@YAXHHHHPADH@Z:PROC		; lssproto_PMSG_send
EXTRN	?lssproto_DAB_send@@YAXHH@Z:PROC		; lssproto_DAB_send
EXTRN	?lssproto_KS_send@@YAXHH@Z:PROC			; lssproto_KS_send
EXTRN	?lssproto_SPET_send@@YAXHH@Z:PROC		; lssproto_SPET_send
EXTRN	?lssproto_MU_send@@YAXHHHHH@Z:PROC		; lssproto_MU_send
EXTRN	?lssproto_PS_send@@YAXHHHHPAD@Z:PROC		; lssproto_PS_send
EXTRN	?lssproto_SKUP_send@@YAXHH@Z:PROC		; lssproto_SKUP_send
EXTRN	?lssproto_CharLogout_send@@YAXHH@Z:PROC		; lssproto_CharLogout_send
EXTRN	?lssproto_TD_send@@YAXHPAD@Z:PROC		; lssproto_TD_send
EXTRN	?lssproto_FM_send@@YAXHPAD@Z:PROC		; lssproto_FM_send
EXTRN	?lssproto_PETST_send@@YAXHHH@Z:PROC		; lssproto_PETST_send
EXTRN	?lssproto_KTEAM_send@@YAXHH@Z:PROC		; lssproto_KTEAM_send
EXTRN	?lssproto_CHATROOM_send@@YAXHPAD@Z:PROC		; lssproto_CHATROOM_send
EXTRN	?lssproto_RESIST_send@@YAXHPAD@Z:PROC		; lssproto_RESIST_send
EXTRN	?lssproto_ALCHEPLUS_send@@YAXHPAD@Z:PROC	; lssproto_ALCHEPLUS_send
EXTRN	?lssproto_BATTLESKILL_send@@YAXHH@Z:PROC	; lssproto_BATTLESKILL_send
EXTRN	?lssproto_PetItemEquip_send@@YAXHHHHHH@Z:PROC	; lssproto_PetItemEquip_send
EXTRN	?lssproto_MAMMOTH_START_send@@YAXHH@Z:PROC	; lssproto_MAMMOTH_START_send
EXTRN	?old_lssproto_ID_send@@YAXHHHHH@Z:PROC		; old_lssproto_ID_send
EXTRN	?old_lssproto_DI_send@@YAXHHHH@Z:PROC		; old_lssproto_DI_send
EXTRN	?old_lssproto_DG_send@@YAXHHHH@Z:PROC		; old_lssproto_DG_send
EXTRN	?old_lssproto_MI_send@@YAXHHH@Z:PROC		; old_lssproto_MI_send
EXTRN	?old_lssproto_MSG_send@@YAXHHPADH@Z:PROC	; old_lssproto_MSG_send
EXTRN	?old_lssproto_PMSG_send@@YAXHHHHPADH@Z:PROC	; old_lssproto_PMSG_send
EXTRN	?old_lssproto_DAB_send@@YAXHH@Z:PROC		; old_lssproto_DAB_send
EXTRN	?old_lssproto_KS_send@@YAXHH@Z:PROC		; old_lssproto_KS_send
EXTRN	?old_lssproto_MU_send@@YAXHHHHH@Z:PROC		; old_lssproto_MU_send
EXTRN	?old_lssproto_PS_send@@YAXHHHHPAD@Z:PROC	; old_lssproto_PS_send
EXTRN	?old_lssproto_SKUP_send@@YAXHH@Z:PROC		; old_lssproto_SKUP_send
EXTRN	?old_lssproto_TD_send@@YAXHPAD@Z:PROC		; old_lssproto_TD_send
EXTRN	?old_lssproto_FM_send@@YAXHPAD@Z:PROC		; old_lssproto_FM_send
EXTRN	?saveUserSetting@@YAHXZ:PROC			; saveUserSetting
EXTRN	?play_se@@YAHHHH@Z:PROC				; play_se
EXTRN	?play_bgm@@YAHH@Z:PROC				; play_bgm
EXTRN	?bgm_volume_change@@YAXXZ:PROC			; bgm_volume_change
EXTRN	?set_gbm_pitch@@YAXXZ:PROC			; set_gbm_pitch
EXTRN	?stop_bgm@@YAXXZ:PROC				; stop_bgm
EXTRN	?_Xinvalid_argument@std@@YAXPBD@Z:PROC		; std::_Xinvalid_argument
EXTRN	?_Xlength_error@std@@YAXPBD@Z:PROC		; std::_Xlength_error
EXTRN	?_Xout_of_range@std@@YAXPBD@Z:PROC		; std::_Xout_of_range
EXTRN	___std_exception_copy:PROC
EXTRN	___std_exception_destroy:PROC
EXTRN	??_Eexception@std@@UAEPAXI@Z:PROC		; std::exception::`vector deleting destructor'
EXTRN	??_Ebad_alloc@std@@UAEPAXI@Z:PROC		; std::bad_alloc::`vector deleting destructor'
EXTRN	??_Ebad_array_new_length@std@@UAEPAXI@Z:PROC	; std::bad_array_new_length::`vector deleting destructor'
EXTRN	?chatStrSendForServer@@YAXPADH@Z:PROC		; chatStrSendForServer
EXTRN	?getStringToken@@YAHPADDHH0@Z:PROC		; getStringToken
EXTRN	?getIntegerToken@@YAHPADDH@Z:PROC		; getIntegerToken
EXTRN	?makeStringFromEscaped@@YAPADPAD@Z:PROC		; makeStringFromEscaped
EXTRN	?makeEscapeString@@YAPADPAD0H@Z:PROC		; makeEscapeString
EXTRN	?checkFieldMenuFlag@@YAHXZ:PROC			; checkFieldMenuFlag
EXTRN	?closeEtcSwitch@@YAXXZ:PROC			; closeEtcSwitch
EXTRN	?closeJoinChannelWN@@YAXXZ:PROC			; closeJoinChannelWN
EXTRN	?ecb_crypt@@YAHPAD0II@Z:PROC			; ecb_crypt
EXTRN	?setCharmManor@@YAXPAUaction@@H@Z:PROC		; setCharmManor
EXTRN	?setCharmTitle@@YAXPAUaction@@H@Z:PROC		; setCharmTitle
EXTRN	?setCharMind@@YAXPAUaction@@H@Z:PROC		; setCharMind
EXTRN	?Instance@PetData@@SAAAV1@XZ:PROC		; PetData::Instance
EXTRN	?Split@PetData@@QAE?AV?$vector@V?$basic_string@DU?$char_traits@D@std@@V?$allocator@D@2@@std@@V?$allocator@V?$basic_string@DU?$char_traits@D@std@@V?$allocator@D@2@@std@@@2@@std@@V?$basic_string@DU?$char_traits@D@std@@V?$allocator@D@2@@3@0@Z:PROC ; PetData::Split
EXTRN	?Instance@PetRanking@@SAAAV1@XZ:PROC		; PetRanking::Instance
EXTRN	?Init@PetRanking@@QAEXXZ:PROC			; PetRanking::Init
EXTRN	?Proc@PetRanking@@QAEXXZ:PROC			; PetRanking::Proc
EXTRN	?Check@PetRanking@@QAEHXZ:PROC			; PetRanking::Check
EXTRN	?SetCheck@PetRanking@@QAEXABH@Z:PROC		; PetRanking::SetCheck
EXTRN	?ShowBottomLineString@@YAXHPAD@Z:PROC		; ShowBottomLineString
EXTRN	?AI_CloseWnd@@YAXXZ:PROC			; AI_CloseWnd
EXTRN	?AI_OtherProc@@YAXXZ:PROC			; AI_OtherProc
EXTRN	?AI_SettingProc@@YAHXZ:PROC			; AI_SettingProc
EXTRN	?Initù«??Ï¢@@YAXXZ:PROC				; Initù«??Ï¢
EXTRN	?InitçÈê©???Ï¢@@YAXXZ:PROC			; InitçÈê©???Ï¢
EXTRN	?InitÎÃ??Ï¢@@YAXXZ:PROC				; InitÎÃ??Ï¢
EXTRN	?delAct??@@YAXXZ:PROC				; delAct??
EXTRN	?delActÎÃ?@@YAXXZ:PROC				; delActÎÃ?
EXTRN	?delActù«?@@YAXXZ:PROC				; delActù«?
EXTRN	?SaveChatData@@YAXPADD_N@Z:PROC			; SaveChatData
EXTRN	?getTextLength@@YAHPAD@Z:PROC			; getTextLength
EXTRN	@__security_check_cookie@4:PROC
EXTRN	__CxxThrowException@8:PROC
EXTRN	___CxxFrameHandler3:PROC
EXTRN	__chkstk:PROC
EXTRN	_memcpy:PROC
EXTRN	_memmove:PROC
EXTRN	_memset:PROC
EXTRN	__Init_thread_epoch:DWORD
EXTRN	?DISPLACEMENT_X@@3HA:DWORD			; DISPLACEMENT_X
EXTRN	?lpDraw@@3PAUDIRECT_DRAW@@A:DWORD		; lpDraw
EXTRN	?hWnd@@3PAUHWND__@@A:DWORD			; hWnd
EXTRN	?ResoMode@@3HA:DWORD				; ResoMode
EXTRN	?gmsv@@3PAUgameserver@@A:BYTE			; gmsv
EXTRN	?gmgroup@@3PAUgamegroup@@A:BYTE			; gmgroup
EXTRN	?GameState@@3HA:DWORD				; GameState
EXTRN	?ProcNo@@3IA:DWORD				; ProcNo
EXTRN	?SubProcNo@@3IA:DWORD				; SubProcNo
EXTRN	?joy_con@@3PAKA:QWORD				; joy_con
EXTRN	?joy_trg@@3PAKA:QWORD				; joy_trg
EXTRN	?joy_auto@@3PAKA:QWORD				; joy_auto
EXTRN	?p_party@@3PAPAUaction@@A:BYTE			; p_party
EXTRN	?pNowStrBuffer@@3PAUSTR_BUFFER@@A:DWORD		; pNowStrBuffer
EXTRN	?MyChatBuffer@@3USTR_BUFFER@@A:BYTE		; MyChatBuffer
EXTRN	?NowMaxChatLine@@3HA:DWORD			; NowMaxChatLine
EXTRN	?NowMaxVoice@@3HA:DWORD				; NowMaxVoice
EXTRN	?mouse@@3UMOUSE@@A:BYTE				; mouse
EXTRN	?HitFontNo@@3HA:DWORD				; HitFontNo
EXTRN	?HitDispNo@@3HA:DWORD				; HitDispNo
EXTRN	?OneLineInfoStr@@3PADA:BYTE			; OneLineInfoStr
EXTRN	?BoxColor@@3HA:DWORD				; BoxColor
EXTRN	?CG_FIELD_SKILL_PANEL@@3HA:DWORD		; CG_FIELD_SKILL_PANEL
EXTRN	?CG_FIELD_CHATROOM_PANEL@@3HA:DWORD		; CG_FIELD_CHATROOM_PANEL
EXTRN	?CG_TRADE_WND@@3HA:DWORD			; CG_TRADE_WND
EXTRN	?CG_TRADE_VIEWWND@@3HA:DWORD			; CG_TRADE_VIEWWND
EXTRN	?CG_WND_G_0@@3HA:DWORD				; CG_WND_G_0
EXTRN	?CG_PET_WND_VIEW@@3HA:DWORD			; CG_PET_WND_VIEW
EXTRN	?CG_NAME_CHANGE_WND@@3HA:DWORD			; CG_NAME_CHANGE_WND
EXTRN	?CG_ITEM_WND_1@@3HA:DWORD			; CG_ITEM_WND_1
EXTRN	?CG_JUJUTU_WND@@3HA:DWORD			; CG_JUJUTU_WND
EXTRN	?CG_ITEM_WND_SELECT_WND@@3HA:DWORD		; CG_ITEM_WND_SELECT_WND
EXTRN	?CG_STATUS_WND_GROUP_WND@@3HA:DWORD		; CG_STATUS_WND_GROUP_WND
EXTRN	?CG_MAP_WND@@3HA:DWORD				; CG_MAP_WND
EXTRN	?CG_MAIL_WND@@3HA:DWORD				; CG_MAIL_WND
EXTRN	?CG_MAIL_WND_SEND_WND@@3HA:DWORD		; CG_MAIL_WND_SEND_WND
EXTRN	?CG_MAIL_WND_PET_SEND_WND@@3HA:DWORD		; CG_MAIL_WND_PET_SEND_WND
EXTRN	?CG_MAIL_WND_HISTORY_WND@@3HA:DWORD		; CG_MAIL_WND_HISTORY_WND
EXTRN	?CG_CHAT_REGISTY_WND@@3HA:DWORD			; CG_CHAT_REGISTY_WND
EXTRN	?CG_COMMON_WIN_YORO@@3HA:DWORD			; CG_COMMON_WIN_YORO
EXTRN	?CG_PET_WAZA_WND@@3HA:DWORD			; CG_PET_WAZA_WND
EXTRN	?pc@@3UPC@@A:BYTE				; pc
EXTRN	?selectPcNo@@3FA:WORD				; selectPcNo
EXTRN	?tradeStatus@@3FA:WORD				; tradeStatus
EXTRN	?magic@@3PAUMAGIC@@A:BYTE			; magic
EXTRN	?pet@@3PAUPET@@A:BYTE				; pet
EXTRN	?party@@3PAUPARTY@@A:BYTE			; party
EXTRN	?addressBook@@3PAUADDRESS_BOOK@@A:BYTE		; addressBook
EXTRN	?battleResultMsg@@3UBATTLE_RESULT_MSG@@A:BYTE	; battleResultMsg
EXTRN	?petSkill@@3PAY06UPET_SKILL@@A:BYTE		; petSkill
EXTRN	?profession_skill@@3PAUPROFESSION_SKILL@@A:BYTE	; profession_skill
EXTRN	?BattlePetStMenCnt@@3HA:DWORD			; BattlePetStMenCnt
EXTRN	?BattleResultWndFlag@@3HA:DWORD			; BattleResultWndFlag
EXTRN	?EncountFlag@@3HA:DWORD				; EncountFlag
EXTRN	?NoHelpFlag@@3HA:DWORD				; NoHelpFlag
EXTRN	?NoEscFlag@@3HA:DWORD				; NoEscFlag
EXTRN	?bNewServer@@3HA:DWORD				; bNewServer
EXTRN	?sockfd@@3IA:DWORD				; sockfd
EXTRN	?disconnectServerFlag@@3HA:DWORD		; disconnectServerFlag
EXTRN	?stereo_flg@@3HA:DWORD				; stereo_flg
EXTRN	?t_music_se_volume@@3HA:DWORD			; t_music_se_volume
EXTRN	?t_music_bgm_volume@@3HA:DWORD			; t_music_bgm_volume
EXTRN	?t_music_bgm_no@@3HA:DWORD			; t_music_bgm_no
EXTRN	?t_music_bgm_pitch@@3PADA:BYTE			; t_music_bgm_pitch
EXTRN	?map_bgm_no@@3HA:DWORD				; map_bgm_no
EXTRN	??ëå??@@3HA:DWORD				; ?ëå??
EXTRN	??_7type_info@@6B@:QWORD			; type_info::`vftable'
EXTRN	?nowFloorName@@3PADA:BYTE			; nowFloorName
EXTRN	?nowGx@@3HA:DWORD				; nowGx
EXTRN	?nowGy@@3HA:DWORD				; nowGy
EXTRN	?eventWarpSendFlag@@3FA:WORD			; eventWarpSendFlag
EXTRN	?chatRoomBtn@@3FA:WORD				; chatRoomBtn
EXTRN	?SelRoomBtn@@3FA:WORD				; SelRoomBtn
EXTRN	?actBtn@@3FA:WORD				; actBtn
EXTRN	?menuBtn@@3FA:WORD				; menuBtn
EXTRN	?mailLamp@@3FA:WORD				; mailLamp
EXTRN	?g_bTradesystemOpen@@3_NA:BYTE			; g_bTradesystemOpen
EXTRN	?PcLanded@@3ULanded@@A:BYTE			; PcLanded
EXTRN	?crs_change_tbl@@3PAEA:BYTE			; crs_change_tbl
EXTRN	?crs_change_tbl2@@3PAEA:BYTE			; crs_change_tbl2
EXTRN	?crs_bound_tbl@@3PAY0CA@EA:BYTE			; crs_bound_tbl
EXTRN	?sStreetVendorBuyBtn@@3FA:WORD			; sStreetVendorBuyBtn
EXTRN	?BattleSkill@@3PAHA:BYTE			; BattleSkill
EXTRN	?AssitSkill@@3PAHA:BYTE				; AssitSkill
EXTRN	?AdvanceSkill@@3PAHA:BYTE			; AdvanceSkill
EXTRN	?delFlag@@3_NA:BYTE				; delFlag
EXTRN	?flag22@@3_NA:BYTE				; flag22
EXTRN	?szUser@@3PADA:BYTE				; szUser
EXTRN	?í»?Ôô?ãÀÜú??@@3HA:DWORD			; í»?Ôô?ãÀÜú??
EXTRN	?ãÀÜúñìÔô??@@3HA:DWORD				; ãÀÜúñìÔô??
EXTRN	?ãÀÜúñìÔôùâ?@@3HA:DWORD				; ãÀÜúñìÔôùâ?
EXTRN	?ãÀÜúñì?Ôô??_1@@3HA:DWORD			; ãÀÜúñì?Ôô??_1
EXTRN	?AI_Other_State@@3HA:DWORD			; AI_Other_State
EXTRN	?AI_State@@3HA:DWORD				; AI_State
EXTRN	?wonflag@@3HA:DWORD				; wonflag
EXTRN	?wonflag@@3HA:DWORD				; wonflag
EXTRN	?wonflag@@3HA:DWORD				; wonflag
EXTRN	?AI_State@@3HA:DWORD				; AI_State
EXTRN	?fastWalkFlag@@3HA:DWORD			; fastWalkFlag
EXTRN	___security_cookie:DWORD
EXTRN	__fltused:DWORD
EXTRN	__tls_array:DWORD
EXTRN	__tls_index:DWORD
;	COMDAT ?_OptionsStorage@?1??__local_stdio_printf_options@@9@4_KA
_BSS	SEGMENT
?_OptionsStorage@?1??__local_stdio_printf_options@@9@4_KA DQ 01H DUP (?) ; `__local_stdio_printf_options'::`2'::_OptionsStorage
_BSS	ENDS
_BSS	SEGMENT
?â³?äÎ?ßãìÚ@@3PAHA DD 05H DUP (?)			; â³?äÎ?ßãìÚ
?Ô³Îý?Ê¥äÎ?@@3HA DD 01H DUP (?)				; Ô³Îý?Ê¥äÎ?
?systemWndFontNo@@3PAHA DD 028H DUP (?)			; systemWndFontNo
?mapWndNo@@3IA DD 01H DUP (?)				; mapWndNo
?statusWndFontNo@@3PAHA DD 014H DUP (?)			; statusWndFontNo
?statusWndBtnFlag@@3PAHA DD 014H DUP (?)		; statusWndBtnFlag
?statusWndFontNoExt@@3PAHA DD 0100H DUP (?)		; statusWndFontNoExt
?statusWndNo@@3IA DD 01H DUP (?)			; statusWndNo
?tradeWndFontNo@@3PAHA DD 016H DUP (?)			; tradeWndFontNo
?tradeWndBtnFlag@@3PAHA DD 016H DUP (?)			; tradeWndBtnFlag
?tradeWndNo@@3IA DD 01H DUP (?)				; tradeWndNo
?opp_name@@3PADA DB 080H DUP (?)			; opp_name
?trade_command@@3PADA DB 080H DUP (?)			; trade_command
?trade_kind@@3PADA DB 080H DUP (?)			; trade_kind
?opp_showindex@@3HA DD 01H DUP (?)			; opp_showindex
?opp_goldmount@@3PADA DB 0400H DUP (?)			; opp_goldmount
?opp_itemgraph@@3PADA DB 0400H DUP (?)			; opp_itemgraph
?opp_itemname@@3PADA DB 0400H DUP (?)			; opp_itemname
?opp_itemeffect@@3PADA DB 0400H DUP (?)			; opp_itemeffect
?opp_itemindex@@3PADA DB 0400H DUP (?)			; opp_itemindex
?opp_itemdamage@@3PADA DB 0400H DUP (?)			; opp_itemdamage
?opp_item@@3PAUshowitem@@A DB 07080H DUP (?)		; opp_item
?opp_pet@@3PAUshowpet@@A DB 04164H DUP (?)		; opp_pet
?SecondActPet@@3PAUaction@@A DD 01H DUP (?)		; SecondActPet
?SecondtradeWndFontNo@@3PAHA DD 06H DUP (?)		; SecondtradeWndFontNo
?tradePet@@3PAUPET@@A DB 016f0H DUP (?)			; tradePet
?g_bPetItemWndFlag@@3_NA DB 01H DUP (?)			; g_bPetItemWndFlag
	ALIGN	4

?pActPet3@@3PAUaction@@A DD 01H DUP (?)			; pActPet3
?pActPet4@@3PAUaction@@A DD 01H DUP (?)			; pActPet4
?pActPet5@@3PAUaction@@A DD 01H DUP (?)			; pActPet5
?tradeList@@3PAUtradelist@@A DB 08508H DUP (?)		; tradeList
?bankGold@@3HA DD 01H DUP (?)				; bankGold
?bankWndFontNo@@3PAHA DD 016H DUP (?)			; bankWndFontNo
?bankWndBtnFlag@@3PAHA DD 016H DUP (?)			; bankWndBtnFlag
?cashGold@@3HA DD 01H DUP (?)				; cashGold
?totalGold@@3HA DD 01H DUP (?)				; totalGold
?bankGoldInc@@3HA DD 01H DUP (?)			; bankGoldInc
?bankGoldCnt@@3HA DD 01H DUP (?)			; bankGoldCnt
?ChatRoomBtn@@3PAHA DD 010H DUP (?)			; ChatRoomBtn
?petWndFontNo@@3PAHA DD 016H DUP (?)			; petWndFontNo
?petWndBtnFlag@@3PAHA DD 016H DUP (?)			; petWndBtnFlag
?petWndNo@@3IA DD 01H DUP (?)				; petWndNo
?pActPet@@3PAUaction@@A DD 01H DUP (?)			; pActPet
?itemWndFontNo@@3PAHA DD 028H DUP (?)			; itemWndFontNo
?itemWndBtnFlag@@3PAHA DD 028H DUP (?)			; itemWndBtnFlag
?itemWndBtnBag@@3PAHA DD 03H DUP (?)			; itemWndBtnBag
?itemWndNo@@3IA DD 01H DUP (?)				; itemWndNo
?itemWndDropGold@@3HA DD 01H DUP (?)			; itemWndDropGold
?itemWndDropGoldInc@@3HA DD 01H DUP (?)			; itemWndDropGoldInc
?itemWndDropGoldCnt@@3HA DD 01H DUP (?)			; itemWndDropGoldCnt
?tradeWndDropGold@@3HA DD 01H DUP (?)			; tradeWndDropGold
?tradeWndDropGoldInc@@3HA DD 01H DUP (?)		; tradeWndDropGoldInc
?tradeWndDropGoldCnt@@3HA DD 01H DUP (?)		; tradeWndDropGoldCnt
?tradeWndDropGoldSend@@3HA DD 01H DUP (?)		; tradeWndDropGoldSend
?tradeWndDropGoldGet@@3HA DD 01H DUP (?)		; tradeWndDropGoldGet
?nSelectPet@@3HA DD 01H DUP (?)				; nSelectPet
?pActPet2@@3PAUaction@@A DD 01H DUP (?)			; pActPet2
?ItemUseTime@@3IA DD 01H DUP (?)			; ItemUseTime
?mailWndFontNo@@3PAHA DD 028H DUP (?)			; mailWndFontNo
?mailWndBtnFlag@@3PAHA DD 028H DUP (?)			; mailWndBtnFlag
?mailWndNo@@3W4MAIL_WND_TYPE@@A DD 01H DUP (?)		; mailWndNo
?mailWndNoBak@@3W4MAIL_WND_TYPE@@A DD 01H DUP (?)	; mailWndNoBak
?mailViewWndPageNo@@3HA DD 01H DUP (?)			; mailViewWndPageNo
?mailSendWndPageNo@@3HA DD 01H DUP (?)			; mailSendWndPageNo
?mailPetSendWndPageNo@@3HA DD 01H DUP (?)		; mailPetSendWndPageNo
?mailItemNo@@3HA DD 01H DUP (?)				; mailItemNo
?mailWndSendFlag@@3PAHA DD 050H DUP (?)			; mailWndSendFlag
?mailHistoryWndNowPageNo@@3HA DD 01H DUP (?)		; mailHistoryWndNowPageNo
?albumWndFontNo@@3PAHA DD 014H DUP (?)			; albumWndFontNo
?albumWndNo@@3IA DD 01H DUP (?)				; albumWndNo
?taskBarFontNo@@3PAHA DD 08H DUP (?)			; taskBarFontNo
?taskBarY@@3HA DD 01H DUP (?)				; taskBarY
_BSS	ENDS
;	COMDAT ?Û°ú¾?Ï¢ãÀÜúöè?@?1??í»?Ôô??Ï¢üÞ?@@YAXXZ@4HA
_BSS	SEGMENT
?Û°ú¾?Ï¢ãÀÜúöè?@?1??í»?Ôô??Ï¢üÞ?@@YAXXZ@4HA DD 01H DUP (?) ; `í»?Ôô??Ï¢üÞ?'::`2'::Û°ú¾?Ï¢ãÀÜúöè?
_BSS	ENDS
;	COMDAT ?btnId@?1??í»?Ôô??Ï¢üÞ?@@YAXXZ@4PAHA
_BSS	SEGMENT
?btnId@?1??í»?Ôô??Ï¢üÞ?@@YAXXZ@4PAHA DD 0fH DUP (?)	; `í»?Ôô??Ï¢üÞ?'::`2'::btnId
_BSS	ENDS
;	COMDAT ?btnState@?1??í»?Ôô??Ï¢üÞ?@@YAXXZ@4PAHA
_BSS	SEGMENT
?btnState@?1??í»?Ôô??Ï¢üÞ?@@YAXXZ@4PAHA DD 0fH DUP (?)	; `í»?Ôô??Ï¢üÞ?'::`2'::btnState
_BSS	ENDS
;	COMDAT ?x@?1??í»?Ôô??Ï¢üÞ?@@YAXXZ@4HA
_BSS	SEGMENT
?x@?1??í»?Ôô??Ï¢üÞ?@@YAXXZ@4HA DD 01H DUP (?)		; `í»?Ôô??Ï¢üÞ?'::`2'::x
_BSS	ENDS
;	COMDAT ?y@?1??í»?Ôô??Ï¢üÞ?@@YAXXZ@4HA
_BSS	SEGMENT
?y@?1??í»?Ôô??Ï¢üÞ?@@YAXXZ@4HA DD 01H DUP (?)		; `í»?Ôô??Ï¢üÞ?'::`2'::y
_BSS	ENDS
;	COMDAT ?dwPressTime@?1??í»?Ôô??Ï¢üÞ?@@YAXXZ@4KA
_BSS	SEGMENT
?dwPressTime@?1??í»?Ôô??Ï¢üÞ?@@YAXXZ@4KA DD 01H DUP (?)	; `í»?Ôô??Ï¢üÞ?'::`2'::dwPressTime
_BSS	ENDS
;	COMDAT ?stopBGMClicked@?NJ@??MenuProc@@YAXXZ@4HA
_BSS	SEGMENT
?stopBGMClicked@?NJ@??MenuProc@@YAXXZ@4HA DD 01H DUP (?) ; `MenuProc'::`217'::stopBGMClicked
_BSS	ENDS
;	COMDAT ?ridelist_@?EDI@??MenuProc@@YAXXZ@4V?$vector@HV?$allocator@H@std@@@std@@A
_BSS	SEGMENT
?ridelist_@?EDI@??MenuProc@@YAXXZ@4V?$vector@HV?$allocator@H@std@@@std@@A DB 0cH DUP (?) ; `MenuProc'::`1080'::ridelist_
_BSS	ENDS
;	COMDAT ?$TSS0@?EDI@??MenuProc@@YAXXZ@4HA
_BSS	SEGMENT
?$TSS0@?EDI@??MenuProc@@YAXXZ@4HA DD 01H DUP (?)	; `MenuProc'::`1080'::$TSS0
_BSS	ENDS
;	COMDAT ?nowDelNo@?ILK@??MenuProc@@YAXXZ@4HA
_BSS	SEGMENT
?nowDelNo@?ILK@??MenuProc@@YAXXZ@4HA DD 01H DUP (?)	; `MenuProc'[::LK]::nowDelNo
_BSS	ENDS
;	COMDAT ?bViewPetEquip@?LFM@??MenuProc@@YAXXZ@4HA
_BSS	SEGMENT
?bViewPetEquip@?LFM@??MenuProc@@YAXXZ@4HA DD 01H DUP (?) ; `MenuProc'::`2908'::bViewPetEquip
_BSS	ENDS
;	COMDAT ?setRoomBtn@?1??setRoomName@@YAXXZ@4PAHA
_BSS	SEGMENT
?setRoomBtn@?1??setRoomName@@YAXXZ@4PAHA DD 02H DUP (?)	; `setRoomName'::`2'::setRoomBtn
_BSS	ENDS
;	COMDAT ?i@?1??Get@Mammoth@@SAAAV2@XZ@4V2@A
_BSS	SEGMENT
?i@?1??Get@Mammoth@@SAAAV2@XZ@4V2@A DB 034H DUP (?)	; `Mammoth::Get'::`2'::i
_BSS	ENDS
;	COMDAT ?$TSS0@?1??Get@Mammoth@@SAAAV2@XZ@4HA
_BSS	SEGMENT
?$TSS0@?1??Get@Mammoth@@SAAAV2@XZ@4HA DD 01H DUP (?)	; `Mammoth::Get'::`2'::$TSS0
_BSS	ENDS
;	COMDAT ?LastTime@?1??Display@Mammoth@@QAEXXZ@4HA
_BSS	SEGMENT
?LastTime@?1??Display@Mammoth@@QAEXXZ@4HA DD 01H DUP (?) ; `Mammoth::Display'::`2'::LastTime
_BSS	ENDS
;	COMDAT ?Cursor@?1??Display@Mammoth@@QAEXXZ@4HA
_BSS	SEGMENT
?Cursor@?1??Display@Mammoth@@QAEXXZ@4HA DD 01H DUP (?)	; `Mammoth::Display'::`2'::Cursor
_BSS	ENDS
;	COMDAT ?buffer@?1??Display@Mammoth@@QAEXXZ@4PADA
_BSS	SEGMENT
?buffer@?1??Display@Mammoth@@QAEXXZ@4PADA DB 019H DUP (?) ; `Mammoth::Display'::`2'::buffer
_BSS	ENDS
;	COMDAT ?LastTIme@?1??DisplayRewardList@Mammoth@@QAEXXZ@4HA
_BSS	SEGMENT
?LastTIme@?1??DisplayRewardList@Mammoth@@QAEXXZ@4HA DD 01H DUP (?) ; `Mammoth::DisplayRewardList'::`2'::LastTIme
_BSS	ENDS
;	COMDAT ?i@?1??DisplayRewardList@Mammoth@@QAEXXZ@4HA
_BSS	SEGMENT
?i@?1??DisplayRewardList@Mammoth@@QAEXXZ@4HA DD 01H DUP (?) ; `Mammoth::DisplayRewardList'::`2'::i
_BSS	ENDS
CRT$XCU	SEGMENT
?taskBarY$initializer$@@3P6AXXZA DD FLAT:??__EtaskBarY@@YAXXZ ; taskBarY$initializer$
CRT$XCU	ENDS
;	COMDAT __xmm@ffffffffffffffffffffffffffffffff
CONST	SEGMENT
__xmm@ffffffffffffffffffffffffffffffff DB 0ffH, 0ffH, 0ffH, 0ffH, 0ffH, 0ffH
	DB	0ffH, 0ffH, 0ffH, 0ffH, 0ffH, 0ffH, 0ffH, 0ffH, 0ffH, 0ffH
CONST	ENDS
;	COMDAT __xmm@fffffffefffffffefffffffefffffffe
CONST	SEGMENT
__xmm@fffffffefffffffefffffffefffffffe DB 0feH, 0ffH, 0ffH, 0ffH, 0feH, 0ffH
	DB	0ffH, 0ffH, 0feH, 0ffH, 0ffH, 0ffH, 0feH, 0ffH, 0ffH, 0ffH
CONST	ENDS
;	COMDAT __xmm@00006536000065e8000065e4000065e5
CONST	SEGMENT
__xmm@00006536000065e8000065e4000065e5 DB 0e5H, 'e', 00H, 00H, 0e4H, 'e', 00H
	DB	00H, 0e8H, 'e', 00H, 00H, '6e', 00H, 00H
CONST	ENDS
;	COMDAT __xmm@0000000c0000000c0000000c0000000c
CONST	SEGMENT
__xmm@0000000c0000000c0000000c0000000c DB 0cH, 00H, 00H, 00H, 0cH, 00H, 00H
	DB	00H, 0cH, 00H, 00H, 00H, 0cH, 00H, 00H, 00H
CONST	ENDS
;	COMDAT __xmm@0000000b0000000b0000000b0000000b
CONST	SEGMENT
__xmm@0000000b0000000b0000000b0000000b DB 0bH, 00H, 00H, 00H, 0bH, 00H, 00H
	DB	00H, 0bH, 00H, 00H, 00H, 0bH, 00H, 00H, 00H
CONST	ENDS
;	COMDAT __xmm@0000000a0000000a0000000a0000000a
CONST	SEGMENT
__xmm@0000000a0000000a0000000a0000000a DB 0aH, 00H, 00H, 00H, 0aH, 00H, 00H
	DB	00H, 0aH, 00H, 00H, 00H, 0aH, 00H, 00H, 00H
CONST	ENDS
;	COMDAT __xmm@00000009000000090000000900000009
CONST	SEGMENT
__xmm@00000009000000090000000900000009 DB 09H, 00H, 00H, 00H, 09H, 00H, 00H
	DB	00H, 09H, 00H, 00H, 00H, 09H, 00H, 00H, 00H
CONST	ENDS
;	COMDAT __xmm@00000002000000020000000200000002
CONST	SEGMENT
__xmm@00000002000000020000000200000002 DB 02H, 00H, 00H, 00H, 02H, 00H, 00H
	DB	00H, 02H, 00H, 00H, 00H, 02H, 00H, 00H, 00H
CONST	ENDS
;	COMDAT __xmm@00000001000000010000000100000001
CONST	SEGMENT
__xmm@00000001000000010000000100000001 DB 01H, 00H, 00H, 00H, 01H, 00H, 00H
	DB	00H, 01H, 00H, 00H, 00H, 01H, 00H, 00H, 00H
CONST	ENDS
;	COMDAT __static@8ffde64a243da3c9520e7b1d47f2acf5790ae3ce89c9834a2190211969353309
CONST	SEGMENT
__static@8ffde64a243da3c9520e7b1d47f2acf5790ae3ce89c9834a2190211969353309 DB 05H
	DB	0ffH, 01H, 00H, 085H, 0ffH, 01H, 00H, 088H, 0ffH, 01H, 00H, 08H
	DB	08aH, 01H, 00H, 0e1H, 09aH, 01H, 00H, 'E', 0ffH, 01H, 00H, 0caH
	DB	0feH, 01H, 00H, 'X', 0ffH, 01H, 00H, 010H, 0fdH, 01H, 00H, 0f1H
	DB	089H, 01H, 00H, 0f2H, 0feH, 01H, 00H, 0efH, 0d0H, 01H, 00H, 's'
	DB	08fH, 01H, 00H, 0ceH, 093H, 01H, 00H, 016H, 088H, 01H, 00H, 016H
	DB	088H, 01H, 00H, 016H, 088H, 01H, 00H, 0a0H, 09bH, 01H, 00H, 0a1H
	DB	09bH, 01H, 00H, 0a2H, 09bH, 01H, 00H, 0a3H, 09bH, 01H, 00H, 0a4H
	DB	09bH, 01H, 00H, 0a5H, 09bH, 01H, 00H, 0a6H, 09bH, 01H, 00H, 0a7H
	DB	09bH, 01H, 00H, 0a8H, 09bH, 01H, 00H, 0a9H, 09bH, 01H, 00H, 0aaH
	DB	09bH, 01H, 00H, 0abH, 09bH, 01H, 00H, 0b1H, 09bH, 01H, 00H, 0b0H
	DB	09bH, 01H, 00H, 0aeH, 09bH, 01H, 00H, 0afH, 09bH, 01H, 00H, 0acH
	DB	09bH, 01H, 00H, 0adH, 09bH, 01H, 00H, 0fcH, 087H, 01H, 00H, 'J'
	DB	09cH, 01H, 00H, 'K', 09cH, 01H, 00H, 'L', 09cH, 01H, 00H, 'M', 09cH
	DB	01H, 00H, 'N', 09cH, 01H, 00H, 'O', 09cH, 01H, 00H, 'P', 09cH, 01H
	DB	00H, 'Q', 09cH, 01H, 00H, 'R', 09cH, 01H, 00H, 'S', 09cH, 01H, 00H
	DB	'T', 09cH, 01H, 00H, 'U', 09cH, 01H, 00H, 'V', 09cH, 01H, 00H, 'W'
	DB	09cH, 01H, 00H, 'X', 09cH, 01H, 00H, 'Y', 09cH, 01H, 00H, 'Z', 09cH
	DB	01H, 00H, 'S', 0aeH, 01H, 00H, 0aH, 088H, 01H, 00H, 0d4H, 09bH
	DB	01H, 00H, 0d5H, 09bH, 01H, 00H, 0d6H, 09bH, 01H, 00H, 0d7H, 09bH
	DB	01H, 00H, 0d8H, 09bH, 01H, 00H, 0d9H, 09bH, 01H, 00H, 0daH, 09bH
	DB	01H, 00H, 0dbH, 09bH, 01H, 00H, 0dcH, 09bH, 01H, 00H, 0ddH, 09bH
	DB	01H, 00H, 0deH, 09bH, 01H, 00H, 0dfH, 09bH, 01H, 00H, 0e0H, 09bH
	DB	01H, 00H, 0e1H, 09bH, 01H, 00H, 0e2H, 09bH, 01H, 00H, 0e3H, 09bH
	DB	01H, 00H, 0e4H, 09bH, 01H, 00H, 0e5H, 09bH, 01H, 00H, 0d3H, 087H
	DB	01H, 00H, 08eH, 09bH, 01H, 00H, 08fH, 09bH, 01H, 00H, 090H, 09bH
	DB	01H, 00H, 091H, 09bH, 01H, 00H, 092H, 09bH, 01H, 00H, 093H, 09bH
	DB	01H, 00H, 094H, 09bH, 01H, 00H, 095H, 09bH, 01H, 00H, 096H, 09bH
	DB	01H, 00H, 097H, 09bH, 01H, 00H, 098H, 09bH, 01H, 00H, 099H, 09bH
	DB	01H, 00H, 09aH, 09bH, 01H, 00H, 09bH, 09bH, 01H, 00H, 09cH, 09bH
	DB	01H, 00H, 09dH, 09bH, 01H, 00H, 09eH, 09bH, 01H, 00H, 09fH, 09bH
	DB	01H, 00H, 0b7H, 087H, 01H, 00H, 0f8H, 09bH, 01H, 00H, 0f9H, 09bH
	DB	01H, 00H, 0faH, 09bH, 01H, 00H, 0fbH, 09bH, 01H, 00H, 0fcH, 09bH
	DB	01H, 00H, 0fdH, 09bH, 01H, 00H, 0feH, 09bH, 01H, 00H, 0ffH, 09bH
	DB	01H, 00H, 00H, 09cH, 01H, 00H, 01H, 09cH, 01H, 00H, 02H, 09cH, 01H
	DB	00H, 03H, 09cH, 01H, 00H, 04H, 09cH, 01H, 00H, 05H, 09cH, 01H, 00H
	DB	06H, 09cH, 01H, 00H, 07H, 09cH, 01H, 00H, 08H, 09cH, 01H, 00H, 09H
	DB	09cH, 01H, 00H, 014H, 088H, 01H, 00H, 090H, 08aH, 01H, 00H, 09aH
	DB	08aH, 01H, 00H, 0a4H, 08aH, 01H, 00H, 0aeH, 08aH, 01H, 00H, 0b8H
	DB	08aH, 01H, 00H, 0c2H, 08aH, 01H, 00H, 0ccH, 08aH, 01H, 00H, 0d6H
	DB	08aH, 01H, 00H, 0e0H, 08aH, 01H, 00H, 0eaH, 08aH, 01H, 00H, 0f4H
	DB	08aH, 01H, 00H, 0feH, 08aH, 01H, 00H, 0feH, 08aH, 01H, 00H, 0feH
	DB	08aH, 01H, 00H, 0feH, 08aH, 01H, 00H, 0feH, 08aH, 01H, 00H, 0feH
	DB	08aH, 01H, 00H, 0feH, 08aH, 01H, 00H, 015H, 088H, 01H, 00H, 091H
	DB	08aH, 01H, 00H, 09bH, 08aH, 01H, 00H, 0a5H, 08aH, 01H, 00H, 0afH
	DB	08aH, 01H, 00H, 0b9H, 08aH, 01H, 00H, 0c3H, 08aH, 01H, 00H, 0cdH
	DB	08aH, 01H, 00H, 0d7H, 08aH, 01H, 00H, 0e1H, 08aH, 01H, 00H, 0ebH
	DB	08aH, 01H, 00H, 0f5H, 08aH, 01H, 00H, 0ffH, 08aH, 01H, 00H, 'M'
	DB	09aH, 01H, 00H, 'L', 09aH, 01H, 00H, 'J', 09aH, 01H, 00H, 'K', 09aH
	DB	01H, 00H, 'K', 09aH, 01H, 00H, 'K', 09aH, 01H, 00H, 0e1H, 09aH
	DB	01H, 00H, 0e2H, 09aH, 01H, 00H, 0e3H, 09aH, 01H, 00H, 0e4H, 09aH
	DB	01H, 00H, 0e5H, 09aH, 01H, 00H, 0e6H, 09aH, 01H, 00H, 0e7H, 09aH
	DB	01H, 00H, 0e8H, 09aH, 01H, 00H, 0e9H, 09aH, 01H, 00H, 0eaH, 09aH
	DB	01H, 00H, 0ebH, 09aH, 01H, 00H, 0ecH, 09aH, 01H, 00H, 0edH, 09aH
	DB	01H, 00H, 0f3H, 09aH, 01H, 00H, 0f2H, 09aH, 01H, 00H, 0f0H, 09aH
	DB	01H, 00H, 0f1H, 09aH, 01H, 00H, 0eeH, 09aH, 01H, 00H, 0efH, 09aH
	DB	01H, 00H, 'i', 09bH, 01H, 00H, 'j', 09bH, 01H, 00H, 'k', 09bH, 01H
	DB	00H, 'l', 09bH, 01H, 00H, 'm', 09bH, 01H, 00H, 'n', 09bH, 01H, 00H
	DB	'o', 09bH, 01H, 00H, 'o', 09bH, 01H, 00H, 'o', 09bH, 01H, 00H, 'o'
	DB	09bH, 01H, 00H, 'o', 09bH, 01H, 00H, 'o', 09bH, 01H, 00H, 'o', 09bH
	DB	01H, 00H, 's', 09bH, 01H, 00H, 'o', 09bH, 01H, 00H, 'o', 09bH, 01H
	DB	00H, 'r', 09bH, 01H, 00H, 'p', 09bH, 01H, 00H, 'q', 09bH, 01H, 00H
	DB	013H, 088H, 01H, 00H, '(', 09aH, 01H, 00H, ')', 09aH, 01H, 00H
	DB	'*', 09aH, 01H, 00H, '*', 09aH, 01H, 00H, '*', 09aH, 01H, 00H, '*'
	DB	09aH, 01H, 00H, '+', 09aH, 01H, 00H, '*', 09aH, 01H, 00H, '*', 09aH
	DB	01H, 00H, '*', 09aH, 01H, 00H, '*', 09aH, 01H, 00H, '*', 09aH, 01H
	DB	00H, '*', 09aH, 01H, 00H, '*', 09aH, 01H, 00H, '*', 09aH, 01H, 00H
	DB	'*', 09aH, 01H, 00H, '-', 09aH, 01H, 00H, ',', 09aH, 01H, 00H, 098H
	DB	09aH, 01H, 00H, 099H, 09aH, 01H, 00H, 099H, 09aH, 01H, 00H, 099H
	DB	09aH, 01H, 00H, 099H, 09aH, 01H, 00H, 099H, 09aH, 01H, 00H, 099H
	DB	09aH, 01H, 00H, 099H, 09aH, 01H, 00H, 099H, 09aH, 01H, 00H, 099H
	DB	09aH, 01H, 00H, 099H, 09aH, 01H, 00H, 099H, 09aH, 01H, 00H, 099H
	DB	09aH, 01H, 00H, 099H, 09aH, 01H, 00H, 099H, 09aH, 01H, 00H, 099H
	DB	09aH, 01H, 00H, 099H, 09aH, 01H, 00H, 099H, 09aH, 01H, 00H, 09aH
	DB	09aH, 01H, 00H, 'x', 08eH, 01H, 00H, '~', 09aH, 01H, 00H, '~', 09aH
	DB	01H, 00H, '~', 09aH, 01H, 00H, '~', 09aH, 01H, 00H, '~', 09aH, 01H
	DB	00H, '~', 09aH, 01H, 00H, '~', 09aH, 01H, 00H, '~', 09aH, 01H, 00H
	DB	'~', 09aH, 01H, 00H, '~', 09aH, 01H, 00H, 07fH, 09aH, 01H, 00H
	DB	'~', 09aH, 01H, 00H, '~', 09aH, 01H, 00H, '~', 09aH, 01H, 00H, '~'
	DB	09aH, 01H, 00H, '~', 09aH, 01H, 00H, '~', 09aH, 01H, 00H, '~', 09aH
	DB	01H, 00H, 08cH, 09aH, 01H, 00H, 08dH, 09aH, 01H, 00H, 08dH, 09aH
	DB	01H, 00H, 08dH, 09aH, 01H, 00H, 08dH, 09aH, 01H, 00H, 08dH, 09aH
	DB	01H, 00H, 08dH, 09aH, 01H, 00H, 08eH, 09aH, 01H, 00H, 08dH, 09aH
	DB	01H, 00H, 08dH, 09aH, 01H, 00H, 08dH, 09aH, 01H, 00H, 08dH, 09aH
	DB	01H, 00H, 08dH, 09aH, 01H, 00H, 08dH, 09aH, 01H, 00H, 08dH, 09aH
	DB	01H, 00H, 08dH, 09aH, 01H, 00H, 08dH, 09aH, 01H, 00H, 08dH, 09aH
	DB	01H, 00H, 08dH, 09aH, 01H, 00H, 082H, 08eH, 01H, 00H, 0a1H, 09aH
	DB	01H, 00H, 0a1H, 09aH, 01H, 00H, 0a1H, 09aH, 01H, 00H, 0a1H, 09aH
	DB	01H, 00H, 0a1H, 09aH, 01H, 00H, 0a1H, 09aH, 01H, 00H, 0a1H, 09aH
	DB	01H, 00H, 0a1H, 09aH, 01H, 00H, 0a1H, 09aH, 01H, 00H, 0a1H, 09aH
	DB	01H, 00H, 0a1H, 09aH, 01H, 00H, 0a1H, 09aH, 01H, 00H, 0a1H, 09aH
	DB	01H, 00H, 0a2H, 09aH, 01H, 00H, 0a1H, 09aH, 01H, 00H, 0a1H, 09aH
	DB	01H, 00H, 0a1H, 09aH, 01H, 00H, 0a1H, 09aH, 01H, 00H, 'v', 08eH
	DB	01H, 00H, 'x', 09aH, 01H, 00H, 'x', 09aH, 01H, 00H, 'x', 09aH, 01H
	DB	00H, 'x', 09aH, 01H, 00H, 'x', 09aH, 01H, 00H, 'x', 09aH, 01H, 00H
	DB	'x', 09aH, 01H, 00H, 'x', 09aH, 01H, 00H, 'x', 09aH, 01H, 00H, 'x'
	DB	09aH, 01H, 00H, 'x', 09aH, 01H, 00H, 'x', 09aH, 01H, 00H, 'x', 09aH
	DB	01H, 00H, 'x', 09aH, 01H, 00H, 'x', 09aH, 01H, 00H, 'x', 09aH, 01H
	DB	00H, 'x', 09aH, 01H, 00H, 'x', 09aH, 01H, 00H, 'w', 08eH, 01H, 00H
	DB	'{', 09aH, 01H, 00H, '{', 09aH, 01H, 00H, '{', 09aH, 01H, 00H, '{'
	DB	09aH, 01H, 00H, '{', 09aH, 01H, 00H, '{', 09aH, 01H, 00H, '{', 09aH
	DB	01H, 00H, '{', 09aH, 01H, 00H, '{', 09aH, 01H, 00H, '{', 09aH, 01H
	DB	00H, '{', 09aH, 01H, 00H, '{', 09aH, 01H, 00H, '{', 09aH, 01H, 00H
	DB	'{', 09aH, 01H, 00H, '{', 09aH, 01H, 00H, '{', 09aH, 01H, 00H, '{'
	DB	09aH, 01H, 00H, '{', 09aH, 01H, 00H, 01eH, 08fH, 01H, 00H, 0a6H
	DB	09aH, 01H, 00H, 0a6H, 09aH, 01H, 00H, 0a6H, 09aH, 01H, 00H, 0a6H
	DB	09aH, 01H, 00H, 0a6H, 09aH, 01H, 00H, 0a6H, 09aH, 01H, 00H, 0a6H
	DB	09aH, 01H, 00H, 0a6H, 09aH, 01H, 00H, 0a6H, 09aH, 01H, 00H, 0a6H
	DB	09aH, 01H, 00H, 0a6H, 09aH, 01H, 00H, 0a7H, 09aH, 01H, 00H, 0a6H
	DB	09aH, 01H, 00H, 0a6H, 09aH, 01H, 00H, 0a6H, 09aH, 01H, 00H, 0a6H
	DB	09aH, 01H, 00H, 0a6H, 09aH, 01H, 00H, 0a6H, 09aH, 01H, 00H, 0cdH
	DB	09aH, 01H, 00H, 0ceH, 09aH, 01H, 00H, 0cfH, 09aH, 01H, 00H, 0d0H
	DB	09aH, 01H, 00H, 0d1H, 09aH, 01H, 00H, 0d2H, 09aH, 01H, 00H, 0d3H
	DB	09aH, 01H, 00H, 0d4H, 09aH, 01H, 00H, 0d5H, 09aH, 01H, 00H, 0d6H
	DB	09aH, 01H, 00H, 0d7H, 09aH, 01H, 00H, 0d8H, 09aH, 01H, 00H, 0d9H
	DB	09aH, 01H, 00H, 0dfH, 09aH, 01H, 00H, 0deH, 09aH, 01H, 00H, 0dcH
	DB	09aH, 01H, 00H, 0ddH, 09aH, 01H, 00H, 0daH, 09aH, 01H, 00H, 0dbH
	DB	09aH, 01H, 00H, 0bdH, 08eH, 01H, 00H, 0a9H, 09aH, 01H, 00H, 0a9H
	DB	09aH, 01H, 00H, 0a9H, 09aH, 01H, 00H, 0a9H, 09aH, 01H, 00H, 0a9H
	DB	09aH, 01H, 00H, 0a9H, 09aH, 01H, 00H, 0a9H, 09aH, 01H, 00H, 0a9H
	DB	09aH, 01H, 00H, 0a9H, 09aH, 01H, 00H, 0a9H, 09aH, 01H, 00H, 0a9H
	DB	09aH, 01H, 00H, 0a9H, 09aH, 01H, 00H, 0a9H, 09aH, 01H, 00H, 0a9H
	DB	09aH, 01H, 00H, 0a9H, 09aH, 01H, 00H, 0a9H, 09aH, 01H, 00H, 0aaH
	DB	09aH, 01H, 00H, 0abH, 09aH, 01H, 00H, 081H, 09aH, 01H, 00H, 082H
	DB	09aH, 01H, 00H, 089H, 09aH, 01H, 00H, 083H, 09aH, 01H, 00H, 084H
	DB	09aH, 01H, 00H, 085H, 09aH, 01H, 00H, 089H, 09aH, 01H, 00H, 086H
	DB	09aH, 01H, 00H, 089H, 09aH, 01H, 00H, 089H, 09aH, 01H, 00H, 089H
	DB	09aH, 01H, 00H, 087H, 09aH, 01H, 00H, 089H, 09aH, 01H, 00H, 08bH
	DB	09aH, 01H, 00H, 08aH, 09aH, 01H, 00H, 088H, 09aH, 01H, 00H, 089H
	DB	09aH, 01H, 00H, 089H, 09aH, 01H, 00H, 089H, 09aH, 01H, 00H, 07H
	DB	08aH, 01H, 00H, 0c8H, 09bH, 01H, 00H, 0c9H, 09bH, 01H, 00H, 0caH
	DB	09bH, 01H, 00H, 0cbH, 09bH, 01H, 00H, 0ccH, 09bH, 01H, 00H, 0cdH
	DB	09bH, 01H, 00H, 0ceH, 09bH, 01H, 00H, 0cfH, 09bH, 01H, 00H, 0d0H
	DB	09bH, 01H, 00H, 0d1H, 09bH, 01H, 00H, 0d2H, 09bH, 01H, 00H, 0d3H
	DB	09bH, 01H, 00H, 0d3H, 09bH, 01H, 00H, 0d3H, 09bH, 01H, 00H, 0d3H
	DB	09bH, 01H, 00H, 0d3H, 09bH, 01H, 00H, 0d3H, 09bH, 01H, 00H, 0d3H
	DB	09bH, 01H, 00H, 0cbH, 08eH, 01H, 00H, 090H, 09aH, 01H, 00H, 091H
	DB	09aH, 01H, 00H, 092H, 09aH, 01H, 00H, 092H, 09aH, 01H, 00H, 092H
	DB	09aH, 01H, 00H, 093H, 09aH, 01H, 00H, 094H, 09aH, 01H, 00H, 092H
	DB	09aH, 01H, 00H, 095H, 09aH, 01H, 00H, 092H, 09aH, 01H, 00H, 092H
	DB	09aH, 01H, 00H, 092H, 09aH, 01H, 00H, 097H, 09aH, 01H, 00H, 096H
	DB	09aH, 01H, 00H, 092H, 09aH, 01H, 00H, 092H, 09aH, 01H, 00H, 092H
	DB	09aH, 01H, 00H, 092H, 09aH, 01H, 00H, 0bbH, 08eH, 01H, 00H, 09eH
	DB	09aH, 01H, 00H, 09eH, 09aH, 01H, 00H, 09eH, 09aH, 01H, 00H, 09eH
	DB	09aH, 01H, 00H, 09eH, 09aH, 01H, 00H, 09eH, 09aH, 01H, 00H, 09eH
	DB	09aH, 01H, 00H, 09eH, 09aH, 01H, 00H, 09eH, 09aH, 01H, 00H, 09eH
	DB	09aH, 01H, 00H, 09eH, 09aH, 01H, 00H, 09eH, 09aH, 01H, 00H, 09eH
	DB	09aH, 01H, 00H, 09eH, 09aH, 01H, 00H, 09eH, 09aH, 01H, 00H, 09fH
	DB	09aH, 01H, 00H, 09dH, 09aH, 01H, 00H, 09cH, 09aH, 01H, 00H, '+'
	DB	08aH, 01H, 00H, 0b2H, 09bH, 01H, 00H, 0b3H, 09bH, 01H, 00H, 0b4H
	DB	09bH, 01H, 00H, 0b5H, 09bH, 01H, 00H, 0b6H, 09bH, 01H, 00H, 0b7H
	DB	09bH, 01H, 00H, 0b8H, 09bH, 01H, 00H, 0b9H, 09bH, 01H, 00H, 0baH
	DB	09bH, 01H, 00H, 0bbH, 09bH, 01H, 00H, 0bcH, 09bH, 01H, 00H, 0bdH
	DB	09bH, 01H, 00H, 0bdH, 09bH, 01H, 00H, 0bdH, 09bH, 01H, 00H, 0bdH
	DB	09bH, 01H, 00H, 0bdH, 09bH, 01H, 00H, 0bdH, 09bH, 01H, 00H, 0bdH
	DB	09bH, 01H, 00H, 0f9H, 08eH, 01H, 00H, '%', 09cH, 01H, 00H, '&', 09cH
	DB	01H, 00H, '''', 09cH, 01H, 00H, '(', 09cH, 01H, 00H, ')', 09cH
	DB	01H, 00H, '*', 09cH, 01H, 00H, '+', 09cH, 01H, 00H, ',', 09cH, 01H
	DB	00H, '-', 09cH, 01H, 00H, '.', 09cH, 01H, 00H, '/', 09cH, 01H, 00H
	DB	'0', 09cH, 01H, 00H, '6', 09cH, 01H, 00H, '5', 09cH, 01H, 00H, '3'
	DB	09cH, 01H, 00H, '4', 09cH, 01H, 00H, '1', 09cH, 01H, 00H, '2', 09cH
	DB	01H, 00H, 0f7H, 08eH, 01H, 00H, 013H, 09cH, 01H, 00H, 014H, 09cH
	DB	01H, 00H, 015H, 09cH, 01H, 00H, 016H, 09cH, 01H, 00H, 017H, 09cH
	DB	01H, 00H, 018H, 09cH, 01H, 00H, 019H, 09cH, 01H, 00H, 01aH, 09cH
	DB	01H, 00H, 01bH, 09cH, 01H, 00H, 01cH, 09cH, 01H, 00H, 01dH, 09cH
	DB	01H, 00H, 01eH, 09cH, 01H, 00H, '$', 09cH, 01H, 00H, '#', 09cH
	DB	01H, 00H, '!', 09cH, 01H, 00H, '"', 09cH, 01H, 00H, 01fH, 09cH
	DB	01H, 00H, ' ', 09cH, 01H, 00H, 08aH, 08eH, 01H, 00H, 'P', 09aH
	DB	01H, 00H, 'Q', 09aH, 01H, 00H, 'R', 09aH, 01H, 00H, 'S', 09aH, 01H
	DB	00H, 'T', 09aH, 01H, 00H, 'U', 09aH, 01H, 00H, 'V', 09aH, 01H, 00H
	DB	'W', 09aH, 01H, 00H, 'X', 09aH, 01H, 00H, 'Y', 09aH, 01H, 00H, 'Z'
	DB	09aH, 01H, 00H, '[', 09aH, 01H, 00H, 'a', 09aH, 01H, 00H, '`', 09aH
	DB	01H, 00H, '^', 09aH, 01H, 00H, '_', 09aH, 01H, 00H, '\', 09aH, 01H
	DB	00H, ']', 09aH, 01H, 00H, 088H, 08eH, 01H, 00H, 'd', 09aH, 01H
	DB	00H, 'e', 09aH, 01H, 00H, 'f', 09aH, 01H, 00H, 'g', 09aH, 01H, 00H
	DB	'h', 09aH, 01H, 00H, 'i', 09aH, 01H, 00H, 'j', 09aH, 01H, 00H, 'k'
	DB	09aH, 01H, 00H, 'l', 09aH, 01H, 00H, 'm', 09aH, 01H, 00H, 'n', 09aH
	DB	01H, 00H, 'o', 09aH, 01H, 00H, 'u', 09aH, 01H, 00H, 't', 09aH, 01H
	DB	00H, 'r', 09aH, 01H, 00H, 's', 09aH, 01H, 00H, 'p', 09aH, 01H, 00H
	DB	'q', 09aH, 01H, 00H, 0d5H, 08eH, 01H, 00H, 015H, 09bH, 01H, 00H
	DB	016H, 09bH, 01H, 00H, 017H, 09bH, 01H, 00H, 018H, 09bH, 01H, 00H
	DB	019H, 09bH, 01H, 00H, 01aH, 09bH, 01H, 00H, 01bH, 09bH, 01H, 00H
	DB	01cH, 09bH, 01H, 00H, 01dH, 09bH, 01H, 00H, 01eH, 09bH, 01H, 00H
	DB	01fH, 09bH, 01H, 00H, ' ', 09bH, 01H, 00H, '&', 09bH, 01H, 00H
	DB	'%', 09bH, 01H, 00H, '#', 09bH, 01H, 00H, '$', 09bH, 01H, 00H, '!'
	DB	09bH, 01H, 00H, '"', 09bH, 01H, 00H, 0d7H, 08eH, 01H, 00H, '(', 09bH
	DB	01H, 00H, ')', 09bH, 01H, 00H, '*', 09bH, 01H, 00H, '+', 09bH, 01H
	DB	00H, ',', 09bH, 01H, 00H, '-', 09bH, 01H, 00H, '.', 09bH, 01H, 00H
	DB	'/', 09bH, 01H, 00H, '0', 09bH, 01H, 00H, '1', 09bH, 01H, 00H, '2'
	DB	09bH, 01H, 00H, '3', 09bH, 01H, 00H, '9', 09bH, 01H, 00H, '8', 09bH
	DB	01H, 00H, '6', 09bH, 01H, 00H, '7', 09bH, 01H, 00H, '4', 09bH, 01H
	DB	00H, '5', 09bH, 01H, 00H, 0d9H, 08eH, 01H, 00H, ';', 09bH, 01H
	DB	00H, '<', 09bH, 01H, 00H, '=', 09bH, 01H, 00H, '>', 09bH, 01H, 00H
	DB	'?', 09bH, 01H, 00H, '@', 09bH, 01H, 00H, 'A', 09bH, 01H, 00H, 'B'
	DB	09bH, 01H, 00H, 'C', 09bH, 01H, 00H, 'D', 09bH, 01H, 00H, 'E', 09bH
	DB	01H, 00H, 'F', 09bH, 01H, 00H, 'L', 09bH, 01H, 00H, 'K', 09bH, 01H
	DB	00H, 'I', 09bH, 01H, 00H, 'J', 09bH, 01H, 00H, 'G', 09bH, 01H, 00H
	DB	'H', 09bH, 01H, 00H, 0dbH, 08eH, 01H, 00H, 'N', 09bH, 01H, 00H
	DB	'O', 09bH, 01H, 00H, 'P', 09bH, 01H, 00H, 'Q', 09bH, 01H, 00H, 'R'
	DB	09bH, 01H, 00H, 'S', 09bH, 01H, 00H, 'T', 09bH, 01H, 00H, 'U', 09bH
	DB	01H, 00H, 'V', 09bH, 01H, 00H, 'W', 09bH, 01H, 00H, 'X', 09bH, 01H
	DB	00H, 'Y', 09bH, 01H, 00H, '_', 09bH, 01H, 00H, '^', 09bH, 01H, 00H
	DB	'\', 09bH, 01H, 00H, ']', 09bH, 01H, 00H, 'Z', 09bH, 01H, 00H, '['
	DB	09bH, 01H, 00H, 'B', 08fH, 01H, 00H, 0c3H, 09aH, 01H, 00H, 0c3H
	DB	09aH, 01H, 00H, 0c4H, 09aH, 01H, 00H, 0c3H, 09aH, 01H, 00H, 0c5H
	DB	09aH, 01H, 00H, 0c6H, 09aH, 01H, 00H, 0c3H, 09aH, 01H, 00H, 0c3H
	DB	09aH, 01H, 00H, 0c3H, 09aH, 01H, 00H, 0c3H, 09aH, 01H, 00H, 0c7H
	DB	09aH, 01H, 00H, 0c8H, 09aH, 01H, 00H, 0ccH, 09aH, 01H, 00H, 0cbH
	DB	09aH, 01H, 00H, 0c3H, 09aH, 01H, 00H, 0c3H, 09aH, 01H, 00H, 0c9H
	DB	09aH, 01H, 00H, 0caH, 09aH, 01H, 00H, 084H, 08eH, 01H, 00H, 0f8H
	DB	09aH, 01H, 00H, 0f8H, 09aH, 01H, 00H, 0f8H, 09aH, 01H, 00H, 0f9H
	DB	09aH, 01H, 00H, 0f8H, 09aH, 01H, 00H, 0f8H, 09aH, 01H, 00H, 0faH
	DB	09aH, 01H, 00H, 0fbH, 09aH, 01H, 00H, 0fcH, 09aH, 01H, 00H, 0fdH
	DB	09aH, 01H, 00H, 0f8H, 09aH, 01H, 00H, 0f8H, 09aH, 01H, 00H, 0f8H
	DB	09aH, 01H, 00H, 0f8H, 09aH, 01H, 00H, 0feH, 09aH, 01H, 00H, 0ffH
	DB	09aH, 01H, 00H, 0f8H, 09aH, 01H, 00H, 0f8H, 09aH, 01H, 00H, 0acH
	DB	08eH, 01H, 00H, 'u', 09bH, 01H, 00H, 'v', 09bH, 01H, 00H, 'w', 09bH
	DB	01H, 00H, 'x', 09bH, 01H, 00H, 'y', 09bH, 01H, 00H, 'z', 09bH, 01H
	DB	00H, '{', 09bH, 01H, 00H, '|', 09bH, 01H, 00H, '}', 09bH, 01H, 00H
	DB	'~', 09bH, 01H, 00H, 07fH, 09bH, 01H, 00H, 080H, 09bH, 01H, 00H
	DB	084H, 09bH, 01H, 00H, 083H, 09bH, 01H, 00H, 081H, 09bH, 01H, 00H
	DB	082H, 09bH, 01H, 00H, 082H, 09bH, 01H, 00H, 082H, 09bH, 01H, 00H
	DB	012H, 08fH, 01H, 00H, 0e6H, 09bH, 01H, 00H, 0e7H, 09bH, 01H, 00H
	DB	0e8H, 09bH, 01H, 00H, 0e9H, 09bH, 01H, 00H, 0eaH, 09bH, 01H, 00H
	DB	0ebH, 09bH, 01H, 00H, 0ecH, 09bH, 01H, 00H, 0edH, 09bH, 01H, 00H
	DB	0eeH, 09bH, 01H, 00H, 0efH, 09bH, 01H, 00H, 0f0H, 09bH, 01H, 00H
	DB	0f1H, 09bH, 01H, 00H, 0f7H, 09bH, 01H, 00H, 0f6H, 09bH, 01H, 00H
	DB	0f4H, 09bH, 01H, 00H, 0f5H, 09bH, 01H, 00H, 0f2H, 09bH, 01H, 00H
	DB	0f3H, 09bH, 01H, 00H, 018H, 08fH, 01H, 00H, 'a', 09bH, 01H, 00H
	DB	'a', 09bH, 01H, 00H, 'a', 09bH, 01H, 00H, 'a', 09bH, 01H, 00H, 'a'
	DB	09bH, 01H, 00H, 'a', 09bH, 01H, 00H, 'a', 09bH, 01H, 00H, 'a', 09bH
	DB	01H, 00H, 'a', 09bH, 01H, 00H, 'd', 09bH, 01H, 00H, 'e', 09bH, 01H
	DB	00H, 'f', 09bH, 01H, 00H, 'a', 09bH, 01H, 00H, 'a', 09bH, 01H, 00H
	DB	'g', 09bH, 01H, 00H, 'h', 09bH, 01H, 00H, 'a', 09bH, 01H, 00H, 'a'
	DB	09bH, 01H, 00H, 085H, 09bH, 01H, 00H, 086H, 09bH, 01H, 00H, 086H
	DB	09bH, 01H, 00H, 086H, 09bH, 01H, 00H, 086H, 09bH, 01H, 00H, 086H
	DB	09bH, 01H, 00H, 087H, 09bH, 01H, 00H, 086H, 09bH, 01H, 00H, 088H
	DB	09bH, 01H, 00H, 089H, 09bH, 01H, 00H, 08aH, 09bH, 01H, 00H, 086H
	DB	09bH, 01H, 00H, 08bH, 09bH, 01H, 00H, 086H, 09bH, 01H, 00H, 086H
	DB	09bH, 01H, 00H, 086H, 09bH, 01H, 00H, 086H, 09bH, 01H, 00H, 08cH
	DB	09bH, 01H, 00H, 08dH, 09bH, 01H, 00H, 0faH, 092H, 01H, 00H, '@'
	DB	09cH, 01H, 00H, '@', 09cH, 01H, 00H, '@', 09cH, 01H, 00H, 'A', 09cH
	DB	01H, 00H, '@', 09cH, 01H, 00H, '@', 09cH, 01H, 00H, '@', 09cH, 01H
	DB	00H, 'B', 09cH, 01H, 00H, '@', 09cH, 01H, 00H, 'C', 09cH, 01H, 00H
	DB	'@', 09cH, 01H, 00H, 'D', 09cH, 01H, 00H, 'H', 09cH, 01H, 00H, 'G'
	DB	09cH, 01H, 00H, '@', 09cH, 01H, 00H, '@', 09cH, 01H, 00H, 'E', 09cH
	DB	01H, 00H, 'F', 09cH, 01H, 00H, 01H, 09bH, 01H, 00H, 02H, 09bH, 01H
	DB	00H, 03H, 09bH, 01H, 00H, 04H, 09bH, 01H, 00H, 05H, 09bH, 01H, 00H
	DB	06H, 09bH, 01H, 00H, 07H, 09bH, 01H, 00H, 08H, 09bH, 01H, 00H, 09H
	DB	09bH, 01H, 00H, 0aH, 09bH, 01H, 00H, 0bH, 09bH, 01H, 00H, 0cH, 09bH
	DB	01H, 00H, 0dH, 09bH, 01H, 00H, 013H, 09bH, 01H, 00H, 012H, 09bH
	DB	01H, 00H, 010H, 09bH, 01H, 00H, 011H, 09bH, 01H, 00H, 0eH, 09bH
	DB	01H, 00H, 0fH, 09bH, 01H, 00H, 086H, 08eH, 01H, 00H, 0b0H, 09aH
	DB	01H, 00H, 0b1H, 09aH, 01H, 00H, 0b2H, 09aH, 01H, 00H, 0b3H, 09aH
	DB	01H, 00H, 0b4H, 09aH, 01H, 00H, 0b5H, 09aH, 01H, 00H, 0b6H, 09aH
	DB	01H, 00H, 0b7H, 09aH, 01H, 00H, 0b8H, 09aH, 01H, 00H, 0b9H, 09aH
	DB	01H, 00H, 0baH, 09aH, 01H, 00H, 0bbH, 09aH, 01H, 00H, 0c1H, 09aH
	DB	01H, 00H, 0c0H, 09aH, 01H, 00H, 0beH, 09aH, 01H, 00H, 0bfH, 09aH
	DB	01H, 00H, 0bcH, 09aH, 01H, 00H, 0bdH, 09aH, 01H, 00H, 0c0H, 087H
	DB	01H, 00H, 04H, 0a0H, 01H, 00H, 04H, 0a0H, 01H, 00H, 04H, 0a0H, 01H
	DB	00H, 04H, 0a0H, 01H, 00H, 04H, 0a0H, 01H, 00H, 04H, 0a0H, 01H, 00H
	DB	05H, 0a0H, 01H, 00H, 05H, 0a0H, 01H, 00H, 05H, 0a0H, 01H, 00H, 05H
	DB	0a0H, 01H, 00H, 05H, 0a0H, 01H, 00H, 05H, 0a0H, 01H, 00H, 05H, 0a0H
	DB	01H, 00H, 05H, 0a0H, 01H, 00H, 05H, 0a0H, 01H, 00H, 05H, 0a0H, 01H
	DB	00H, 05H, 0a0H, 01H, 00H, 05H, 0a0H, 01H, 00H, 0bfH, 087H, 01H
	DB	00H, 06H, 0a0H, 01H, 00H, 06H, 0a0H, 01H, 00H, 06H, 0a0H, 01H, 00H
	DB	06H, 0a0H, 01H, 00H, 07H, 0a0H, 01H, 00H, 07H, 0a0H, 01H, 00H, 07H
	DB	0a0H, 01H, 00H, 07H, 0a0H, 01H, 00H, 08H, 0a0H, 01H, 00H, 08H, 0a0H
	DB	01H, 00H, 08H, 0a0H, 01H, 00H, 08H, 0a0H, 01H, 00H, 08H, 0a0H, 01H
	DB	00H, 08H, 0a0H, 01H, 00H, 08H, 0a0H, 01H, 00H, 08H, 0a0H, 01H, 00H
	DB	08H, 0a0H, 01H, 00H, 08H, 0a0H, 01H, 00H, 0c2H, 087H, 01H, 00H
	DB	09H, 0a0H, 01H, 00H, 09H, 0a0H, 01H, 00H, 09H, 0a0H, 01H, 00H, 09H
	DB	0a0H, 01H, 00H, 0aH, 0a0H, 01H, 00H, 0aH, 0a0H, 01H, 00H, 0aH, 0a0H
	DB	01H, 00H, 0aH, 0a0H, 01H, 00H, 0bH, 0a0H, 01H, 00H, 0bH, 0a0H, 01H
	DB	00H, 0bH, 0a0H, 01H, 00H, 0bH, 0a0H, 01H, 00H, 0bH, 0a0H, 01H, 00H
	DB	0bH, 0a0H, 01H, 00H, 0bH, 0a0H, 01H, 00H, 0bH, 0a0H, 01H, 00H, 0bH
	DB	0a0H, 01H, 00H, 0bH, 0a0H, 01H, 00H, 0c1H, 087H, 01H, 00H, 0cH
	DB	0a0H, 01H, 00H, 0cH, 0a0H, 01H, 00H, 0cH, 0a0H, 01H, 00H, 0cH, 0a0H
	DB	01H, 00H, 0dH, 0a0H, 01H, 00H, 0dH, 0a0H, 01H, 00H, 0dH, 0a0H, 01H
	DB	00H, 0dH, 0a0H, 01H, 00H, 0eH, 0a0H, 01H, 00H, 0eH, 0a0H, 01H, 00H
	DB	0eH, 0a0H, 01H, 00H, 0eH, 0a0H, 01H, 00H, 0eH, 0a0H, 01H, 00H, 0eH
	DB	0a0H, 01H, 00H, 0eH, 0a0H, 01H, 00H, 0eH, 0a0H, 01H, 00H, 0eH, 0a0H
	DB	01H, 00H, 0eH, 0a0H, 01H, 00H, '*', 088H, 01H, 00H, 0fH, 0a0H, 01H
	DB	00H, 0fH, 0a0H, 01H, 00H, 0fH, 0a0H, 01H, 00H, 0fH, 0a0H, 01H, 00H
	DB	010H, 0a0H, 01H, 00H, 010H, 0a0H, 01H, 00H, 010H, 0a0H, 01H, 00H
	DB	010H, 0a0H, 01H, 00H, 011H, 0a0H, 01H, 00H, 011H, 0a0H, 01H, 00H
	DB	011H, 0a0H, 01H, 00H, 011H, 0a0H, 01H, 00H, 011H, 0a0H, 01H, 00H
	DB	011H, 0a0H, 01H, 00H, 011H, 0a0H, 01H, 00H, 011H, 0a0H, 01H, 00H
	DB	011H, 0a0H, 01H, 00H, 011H, 0a0H, 01H, 00H, 09cH, 08cH, 01H, 00H
	DB	'[', 08eH, 01H, 00H, '[', 08eH, 01H, 00H, '[', 08eH, 01H, 00H, '['
	DB	08eH, 01H, 00H, '[', 08eH, 01H, 00H, '[', 08eH, 01H, 00H, '[', 08eH
	DB	01H, 00H, '[', 08eH, 01H, 00H, '[', 08eH, 01H, 00H, '[', 08eH, 01H
	DB	00H, '[', 08eH, 01H, 00H, '[', 08eH, 01H, 00H, '[', 08eH, 01H, 00H
	DB	'[', 08eH, 01H, 00H, '[', 08eH, 01H, 00H, '[', 08eH, 01H, 00H, '['
	DB	08eH, 01H, 00H, '[', 08eH, 01H, 00H, 0bbH, 087H, 01H, 00H, 0beH
	DB	08bH, 01H, 00H, 0beH, 08bH, 01H, 00H, 0beH, 08bH, 01H, 00H, 0beH
	DB	08bH, 01H, 00H, 0beH, 08bH, 01H, 00H, 0beH, 08bH, 01H, 00H, 0beH
	DB	08bH, 01H, 00H, 0beH, 08bH, 01H, 00H, 0beH, 08bH, 01H, 00H, 0beH
	DB	08bH, 01H, 00H, 0beH, 08bH, 01H, 00H, 0beH, 08bH, 01H, 00H, 0beH
	DB	08bH, 01H, 00H, 0beH, 08bH, 01H, 00H, 0beH, 08bH, 01H, 00H, 0beH
	DB	08bH, 01H, 00H, 0beH, 08bH, 01H, 00H, 0beH, 08bH, 01H, 00H, '('
	DB	08aH, 01H, 00H, '\', 088H, 01H, 00H, '\', 088H, 01H, 00H, '\', 088H
	DB	01H, 00H, '\', 088H, 01H, 00H, '\', 088H, 01H, 00H, '\', 088H, 01H
	DB	00H, '\', 088H, 01H, 00H, '\', 088H, 01H, 00H, '\', 088H, 01H, 00H
	DB	'\', 088H, 01H, 00H, '\', 088H, 01H, 00H, '\', 088H, 01H, 00H, '\'
	DB	088H, 01H, 00H, '\', 088H, 01H, 00H, '\', 088H, 01H, 00H, '\', 088H
	DB	01H, 00H, '\', 088H, 01H, 00H, '\', 088H, 01H, 00H, 0bfH, 08eH
	DB	01H, 00H, 0c0H, 08eH, 01H, 00H, 0c0H, 08eH, 01H, 00H, 0c0H, 08eH
	DB	01H, 00H, 0c0H, 08eH, 01H, 00H, 0c0H, 08eH, 01H, 00H, 0c0H, 08eH
	DB	01H, 00H, 0c0H, 08eH, 01H, 00H, 0c0H, 08eH, 01H, 00H, 0c0H, 08eH
	DB	01H, 00H, 0c0H, 08eH, 01H, 00H, 0c0H, 08eH, 01H, 00H, 0c0H, 08eH
	DB	01H, 00H, 0c0H, 08eH, 01H, 00H, 0c0H, 08eH, 01H, 00H, 0c0H, 08eH
	DB	01H, 00H, 0c0H, 08eH, 01H, 00H, 0c0H, 08eH, 01H, 00H, 0c0H, 08eH
	DB	01H, 00H, 0a9H, 08eH, 01H, 00H, 0aaH, 08eH, 01H, 00H, 0aaH, 08eH
	DB	01H, 00H, 0aaH, 08eH, 01H, 00H, 0aaH, 08eH, 01H, 00H, 0aaH, 08eH
	DB	01H, 00H, 0aaH, 08eH, 01H, 00H, 0aaH, 08eH, 01H, 00H, 0aaH, 08eH
	DB	01H, 00H, 0aaH, 08eH, 01H, 00H, 0aaH, 08eH, 01H, 00H, 0aaH, 08eH
	DB	01H, 00H, 0aaH, 08eH, 01H, 00H, 0aaH, 08eH, 01H, 00H, 0aaH, 08eH
	DB	01H, 00H, 0aaH, 08eH, 01H, 00H, 0aaH, 08eH, 01H, 00H, 0aaH, 08eH
	DB	01H, 00H, 0aaH, 08eH, 01H, 00H, 0c8H, 08eH, 01H, 00H, '~', 092H
	DB	01H, 00H, '~', 092H, 01H, 00H, '~', 092H, 01H, 00H, '~', 092H, 01H
	DB	00H, '~', 092H, 01H, 00H, '~', 092H, 01H, 00H, '~', 092H, 01H, 00H
	DB	'~', 092H, 01H, 00H, '~', 092H, 01H, 00H, '~', 092H, 01H, 00H, '~'
	DB	092H, 01H, 00H, '~', 092H, 01H, 00H, '~', 092H, 01H, 00H, '~', 092H
	DB	01H, 00H, '~', 092H, 01H, 00H, '~', 092H, 01H, 00H, '~', 092H, 01H
	DB	00H, '~', 092H, 01H, 00H, 0eH, 08fH, 01H, 00H, 0fH, 08fH, 01H, 00H
	DB	0fH, 08fH, 01H, 00H, 0fH, 08fH, 01H, 00H, 0fH, 08fH, 01H, 00H, 0fH
	DB	08fH, 01H, 00H, 0fH, 08fH, 01H, 00H, 0fH, 08fH, 01H, 00H, 0fH, 08fH
	DB	01H, 00H, 0fH, 08fH, 01H, 00H, 0fH, 08fH, 01H, 00H, 0fH, 08fH, 01H
	DB	00H, 0fH, 08fH, 01H, 00H, 0fH, 08fH, 01H, 00H, 0fH, 08fH, 01H, 00H
	DB	0fH, 08fH, 01H, 00H, 0fH, 08fH, 01H, 00H, 0fH, 08fH, 01H, 00H, 0fH
	DB	08fH, 01H, 00H, 014H, 08fH, 01H, 00H, 015H, 08fH, 01H, 00H, 015H
	DB	08fH, 01H, 00H, 015H, 08fH, 01H, 00H, 015H, 08fH, 01H, 00H, 015H
	DB	08fH, 01H, 00H, 015H, 08fH, 01H, 00H, 015H, 08fH, 01H, 00H, 015H
	DB	08fH, 01H, 00H, 015H, 08fH, 01H, 00H, 015H, 08fH, 01H, 00H, 015H
	DB	08fH, 01H, 00H, 015H, 08fH, 01H, 00H, 015H, 08fH, 01H, 00H, 015H
	DB	08fH, 01H, 00H, 015H, 08fH, 01H, 00H, 015H, 08fH, 01H, 00H, 015H
	DB	08fH, 01H, 00H, 015H, 08fH, 01H, 00H, 082H, 092H, 01H, 00H, 083H
	DB	092H, 01H, 00H, 083H, 092H, 01H, 00H, 083H, 092H, 01H, 00H, 083H
	DB	092H, 01H, 00H, 083H, 092H, 01H, 00H, 083H, 092H, 01H, 00H, 083H
	DB	092H, 01H, 00H, 083H, 092H, 01H, 00H, 083H, 092H, 01H, 00H, 083H
	DB	092H, 01H, 00H, 083H, 092H, 01H, 00H, 083H, 092H, 01H, 00H, 083H
	DB	092H, 01H, 00H, 083H, 092H, 01H, 00H, 083H, 092H, 01H, 00H, 083H
	DB	092H, 01H, 00H, 083H, 092H, 01H, 00H, 083H, 092H, 01H, 00H, 0f5H
	DB	08eH, 01H, 00H, 0f6H, 08eH, 01H, 00H, 0f6H, 08eH, 01H, 00H, 0f6H
	DB	08eH, 01H, 00H, 0f6H, 08eH, 01H, 00H, 0f6H, 08eH, 01H, 00H, 0f6H
	DB	08eH, 01H, 00H, 0f6H, 08eH, 01H, 00H, 0f6H, 08eH, 01H, 00H, 0f6H
	DB	08eH, 01H, 00H, 0f6H, 08eH, 01H, 00H, 0f6H, 08eH, 01H, 00H, 0f6H
	DB	08eH, 01H, 00H, 0f6H, 08eH, 01H, 00H, 0f6H, 08eH, 01H, 00H, 0f6H
	DB	08eH, 01H, 00H, 0f6H, 08eH, 01H, 00H, 0f6H, 08eH, 01H, 00H, 0f6H
	DB	08eH, 01H, 00H, 0e0H, 08eH, 01H, 00H, 0e1H, 08eH, 01H, 00H, 0e1H
	DB	08eH, 01H, 00H, 0e1H, 08eH, 01H, 00H, 0e1H, 08eH, 01H, 00H, 0e1H
	DB	08eH, 01H, 00H, 0e1H, 08eH, 01H, 00H, 0e1H, 08eH, 01H, 00H, 0e1H
	DB	08eH, 01H, 00H, 0e1H, 08eH, 01H, 00H, 0e1H, 08eH, 01H, 00H, 0e1H
	DB	08eH, 01H, 00H, 0e1H, 08eH, 01H, 00H, 0e1H, 08eH, 01H, 00H, 0e1H
	DB	08eH, 01H, 00H, 0e1H, 08eH, 01H, 00H, 0e1H, 08eH, 01H, 00H, 0e1H
	DB	08eH, 01H, 00H, 0e1H, 08eH, 01H, 00H, 0efH, 08eH, 01H, 00H, 0f0H
	DB	08eH, 01H, 00H, 0f0H, 08eH, 01H, 00H, 0f0H, 08eH, 01H, 00H, 0f0H
	DB	08eH, 01H, 00H, 0f0H, 08eH, 01H, 00H, 0f0H, 08eH, 01H, 00H, 0f0H
	DB	08eH, 01H, 00H, 0f0H, 08eH, 01H, 00H, 0f0H, 08eH, 01H, 00H, 0f0H
	DB	08eH, 01H, 00H, 0f0H, 08eH, 01H, 00H, 0f0H, 08eH, 01H, 00H, 0f0H
	DB	08eH, 01H, 00H, 0f0H, 08eH, 01H, 00H, 0f0H, 08eH, 01H, 00H, 0f0H
	DB	08eH, 01H, 00H, 0f0H, 08eH, 01H, 00H, 0f0H, 08eH, 01H, 00H, 0cH
	DB	08fH, 01H, 00H, 0dH, 08fH, 01H, 00H, 0dH, 08fH, 01H, 00H, 0dH, 08fH
	DB	01H, 00H, 0dH, 08fH, 01H, 00H, 0dH, 08fH, 01H, 00H, 0dH, 08fH, 01H
	DB	00H, 0dH, 08fH, 01H, 00H, 0dH, 08fH, 01H, 00H, 0dH, 08fH, 01H, 00H
	DB	0dH, 08fH, 01H, 00H, 0dH, 08fH, 01H, 00H, 0dH, 08fH, 01H, 00H, 0dH
	DB	08fH, 01H, 00H, 0dH, 08fH, 01H, 00H, 0dH, 08fH, 01H, 00H, 0dH, 08fH
	DB	01H, 00H, 0dH, 08fH, 01H, 00H, 0dH, 08fH, 01H, 00H, '<', 08fH, 01H
	DB	00H, '=', 08fH, 01H, 00H, '=', 08fH, 01H, 00H, '=', 08fH, 01H, 00H
	DB	'=', 08fH, 01H, 00H, '=', 08fH, 01H, 00H, '=', 08fH, 01H, 00H, '='
	DB	08fH, 01H, 00H, '=', 08fH, 01H, 00H, '=', 08fH, 01H, 00H, '=', 08fH
	DB	01H, 00H, '=', 08fH, 01H, 00H, '=', 08fH, 01H, 00H, '=', 08fH, 01H
	DB	00H, '=', 08fH, 01H, 00H, '=', 08fH, 01H, 00H, '=', 08fH, 01H, 00H
	DB	'=', 08fH, 01H, 00H, '=', 08fH, 01H, 00H, '>', 08fH, 01H, 00H, '?'
	DB	08fH, 01H, 00H, '?', 08fH, 01H, 00H, '?', 08fH, 01H, 00H, '?', 08fH
	DB	01H, 00H, '?', 08fH, 01H, 00H, '?', 08fH, 01H, 00H, '?', 08fH, 01H
	DB	00H, '?', 08fH, 01H, 00H, '?', 08fH, 01H, 00H, '?', 08fH, 01H, 00H
	DB	'?', 08fH, 01H, 00H, '?', 08fH, 01H, 00H, '?', 08fH, 01H, 00H, '?'
	DB	08fH, 01H, 00H, '?', 08fH, 01H, 00H, '?', 08fH, 01H, 00H, '?', 08fH
	DB	01H, 00H, '?', 08fH, 01H, 00H, 'H', 08fH, 01H, 00H, 0b5H, 093H
	DB	01H, 00H, 0b6H, 093H, 01H, 00H, 0b7H, 093H, 01H, 00H, 0b8H, 093H
	DB	01H, 00H, 0b9H, 093H, 01H, 00H, 0baH, 093H, 01H, 00H, 0bbH, 093H
	DB	01H, 00H, 0bcH, 093H, 01H, 00H, 0bdH, 093H, 01H, 00H, 0beH, 093H
	DB	01H, 00H, 0bfH, 093H, 01H, 00H, 0c0H, 093H, 01H, 00H, 0c0H, 093H
	DB	01H, 00H, 0c0H, 093H, 01H, 00H, 0c0H, 093H, 01H, 00H, 0c0H, 093H
	DB	01H, 00H, 0c0H, 093H, 01H, 00H, 0c0H, 093H, 01H, 00H, '@', 08fH
	DB	01H, 00H, 'A', 08fH, 01H, 00H, 'A', 08fH, 01H, 00H, 'A', 08fH, 01H
	DB	00H, 'A', 08fH, 01H, 00H, 'A', 08fH, 01H, 00H, 'A', 08fH, 01H, 00H
	DB	'A', 08fH, 01H, 00H, 'A', 08fH, 01H, 00H, 'A', 08fH, 01H, 00H, 'A'
	DB	08fH, 01H, 00H, 'A', 08fH, 01H, 00H, 'A', 08fH, 01H, 00H, 'A', 08fH
	DB	01H, 00H, 'A', 08fH, 01H, 00H, 'A', 08fH, 01H, 00H, 'A', 08fH, 01H
	DB	00H, 'A', 08fH, 01H, 00H, 'A', 08fH, 01H, 00H, ':', 08fH, 01H, 00H
	DB	';', 08fH, 01H, 00H, ';', 08fH, 01H, 00H, ';', 08fH, 01H, 00H, ';'
	DB	08fH, 01H, 00H, ';', 08fH, 01H, 00H, ';', 08fH, 01H, 00H, ';', 08fH
	DB	01H, 00H, ';', 08fH, 01H, 00H, ';', 08fH, 01H, 00H, ';', 08fH, 01H
	DB	00H, ';', 08fH, 01H, 00H, ';', 08fH, 01H, 00H, ';', 08fH, 01H, 00H
	DB	';', 08fH, 01H, 00H, ';', 08fH, 01H, 00H, ';', 08fH, 01H, 00H, ';'
	DB	08fH, 01H, 00H, ';', 08fH, 01H, 00H, 'e', 093H, 01H, 00H, 'Y', 093H
	DB	01H, 00H, 'Z', 093H, 01H, 00H, '[', 093H, 01H, 00H, '\', 093H, 01H
	DB	00H, ']', 093H, 01H, 00H, '^', 093H, 01H, 00H, '_', 093H, 01H, 00H
	DB	'`', 093H, 01H, 00H, 'a', 093H, 01H, 00H, 'b', 093H, 01H, 00H, 'c'
	DB	093H, 01H, 00H, 'd', 093H, 01H, 00H, 'd', 093H, 01H, 00H, 'd', 093H
	DB	01H, 00H, 'd', 093H, 01H, 00H, 'd', 093H, 01H, 00H, 'd', 093H, 01H
	DB	00H, 'd', 093H, 01H, 00H, 080H, 092H, 01H, 00H, 081H, 092H, 01H
	DB	00H, 081H, 092H, 01H, 00H, 081H, 092H, 01H, 00H, 081H, 092H, 01H
	DB	00H, 081H, 092H, 01H, 00H, 081H, 092H, 01H, 00H, 081H, 092H, 01H
	DB	00H, 081H, 092H, 01H, 00H, 081H, 092H, 01H, 00H, 081H, 092H, 01H
	DB	00H, 081H, 092H, 01H, 00H, 081H, 092H, 01H, 00H, 081H, 092H, 01H
	DB	00H, 081H, 092H, 01H, 00H, 081H, 092H, 01H, 00H, 081H, 092H, 01H
	DB	00H, 081H, 092H, 01H, 00H, 081H, 092H, 01H, 00H, 'r', 08fH, 01H
	DB	00H, 't', 08fH, 01H, 00H, 't', 08fH, 01H, 00H, 't', 08fH, 01H, 00H
	DB	't', 08fH, 01H, 00H, 't', 08fH, 01H, 00H, 't', 08fH, 01H, 00H, 't'
	DB	08fH, 01H, 00H, 't', 08fH, 01H, 00H, 't', 08fH, 01H, 00H, 't', 08fH
	DB	01H, 00H, 't', 08fH, 01H, 00H, 't', 08fH, 01H, 00H, 't', 08fH, 01H
	DB	00H, 't', 08fH, 01H, 00H, 't', 08fH, 01H, 00H, 't', 08fH, 01H, 00H
	DB	't', 08fH, 01H, 00H, 't', 08fH, 01H, 00H, 'n', 08fH, 01H, 00H, 'o'
	DB	08fH, 01H, 00H, 'o', 08fH, 01H, 00H, 'o', 08fH, 01H, 00H, 'o', 08fH
	DB	01H, 00H, 'o', 08fH, 01H, 00H, 'o', 08fH, 01H, 00H, 'o', 08fH, 01H
	DB	00H, 'o', 08fH, 01H, 00H, 'o', 08fH, 01H, 00H, 'o', 08fH, 01H, 00H
	DB	'o', 08fH, 01H, 00H, 'o', 08fH, 01H, 00H, 'o', 08fH, 01H, 00H, 'o'
	DB	08fH, 01H, 00H, 'o', 08fH, 01H, 00H, 'o', 08fH, 01H, 00H, 'o', 08fH
	DB	01H, 00H, 'o', 08fH, 01H, 00H, 08eH, 092H, 01H, 00H, 08fH, 092H
	DB	01H, 00H, 090H, 092H, 01H, 00H, 091H, 092H, 01H, 00H, 092H, 092H
	DB	01H, 00H, 093H, 092H, 01H, 00H, 094H, 092H, 01H, 00H, 095H, 092H
	DB	01H, 00H, 096H, 092H, 01H, 00H, 097H, 092H, 01H, 00H, 098H, 092H
	DB	01H, 00H, 099H, 092H, 01H, 00H, 09aH, 092H, 01H, 00H, 09aH, 092H
	DB	01H, 00H, 09aH, 092H, 01H, 00H, 09aH, 092H, 01H, 00H, 09aH, 092H
	DB	01H, 00H, 09aH, 092H, 01H, 00H, 09aH, 092H, 01H, 00H, 09bH, 092H
	DB	01H, 00H, 09cH, 092H, 01H, 00H, 09dH, 092H, 01H, 00H, 09eH, 092H
	DB	01H, 00H, 09fH, 092H, 01H, 00H, 0a0H, 092H, 01H, 00H, 0a1H, 092H
	DB	01H, 00H, 0a2H, 092H, 01H, 00H, 0a3H, 092H, 01H, 00H, 0a4H, 092H
	DB	01H, 00H, 0a5H, 092H, 01H, 00H, 0a6H, 092H, 01H, 00H, 0a7H, 092H
	DB	01H, 00H, 0a7H, 092H, 01H, 00H, 0a7H, 092H, 01H, 00H, 0a7H, 092H
	DB	01H, 00H, 0a7H, 092H, 01H, 00H, 0a7H, 092H, 01H, 00H, 0a7H, 092H
	DB	01H, 00H, 0a8H, 092H, 01H, 00H, 0a9H, 092H, 01H, 00H, 0aaH, 092H
	DB	01H, 00H, 0abH, 092H, 01H, 00H, 0acH, 092H, 01H, 00H, 0adH, 092H
	DB	01H, 00H, 0aeH, 092H, 01H, 00H, 0afH, 092H, 01H, 00H, 0b0H, 092H
	DB	01H, 00H, 0b1H, 092H, 01H, 00H, 0b2H, 092H, 01H, 00H, 0b3H, 092H
	DB	01H, 00H, 0b4H, 092H, 01H, 00H, 0b4H, 092H, 01H, 00H, 0b4H, 092H
	DB	01H, 00H, 0b4H, 092H, 01H, 00H, 0b4H, 092H, 01H, 00H, 0b4H, 092H
	DB	01H, 00H, 0b4H, 092H, 01H, 00H, 'r', 093H, 01H, 00H, 'f', 093H
	DB	01H, 00H, 'g', 093H, 01H, 00H, 'h', 093H, 01H, 00H, 'i', 093H, 01H
	DB	00H, 'j', 093H, 01H, 00H, 'k', 093H, 01H, 00H, 'l', 093H, 01H, 00H
	DB	'm', 093H, 01H, 00H, 'n', 093H, 01H, 00H, 'o', 093H, 01H, 00H, 'p'
	DB	093H, 01H, 00H, 'q', 093H, 01H, 00H, 'q', 093H, 01H, 00H, 'q', 093H
	DB	01H, 00H, 'q', 093H, 01H, 00H, 'q', 093H, 01H, 00H, 'q', 093H, 01H
	DB	00H, 'q', 093H, 01H, 00H, 0b2H, 087H, 01H, 00H, 0bcH, 092H, 01H
	DB	00H, 0bdH, 092H, 01H, 00H, 0beH, 092H, 01H, 00H, 0bfH, 092H, 01H
	DB	00H, 0c0H, 092H, 01H, 00H, 0c1H, 092H, 01H, 00H, 0c2H, 092H, 01H
	DB	00H, 0c3H, 092H, 01H, 00H, 0c4H, 092H, 01H, 00H, 0c5H, 092H, 01H
	DB	00H, 0c6H, 092H, 01H, 00H, 0c7H, 092H, 01H, 00H, 0c7H, 092H, 01H
	DB	00H, 0c7H, 092H, 01H, 00H, 0c7H, 092H, 01H, 00H, 0c7H, 092H, 01H
	DB	00H, 0c7H, 092H, 01H, 00H, 0c7H, 092H, 01H, 00H, '7', 08fH, 01H
	DB	00H, '7', 08fH, 01H, 00H, 'h', 08fH, 01H, 00H, '0', 08cH, 01H, 00H
	DB	0c1H, 08eH, 01H, 00H, 'i', 08fH, 01H, 00H, 'j', 08fH, 01H, 00H
	DB	'7', 08fH, 01H, 00H, 'h', 08fH, 01H, 00H, '0', 08cH, 01H, 00H, 0c1H
	DB	08eH, 01H, 00H, 'i', 08fH, 01H, 00H, 'j', 08fH, 01H, 00H, 'j', 08fH
	DB	01H, 00H, 'j', 08fH, 01H, 00H, 'j', 08fH, 01H, 00H, 'j', 08fH, 01H
	DB	00H, 'j', 08fH, 01H, 00H, 'j', 08fH, 01H, 00H, 0b8H, 08eH, 01H
	DB	00H, '}', 092H, 01H, 00H, '}', 092H, 01H, 00H, '}', 092H, 01H, 00H
	DB	'}', 092H, 01H, 00H, '}', 092H, 01H, 00H, '}', 092H, 01H, 00H, '}'
	DB	092H, 01H, 00H, '}', 092H, 01H, 00H, '}', 092H, 01H, 00H, '}', 092H
	DB	01H, 00H, '}', 092H, 01H, 00H, '}', 092H, 01H, 00H, '}', 092H, 01H
	DB	00H, '}', 092H, 01H, 00H, '}', 092H, 01H, 00H, '}', 092H, 01H, 00H
	DB	'}', 092H, 01H, 00H, '}', 092H, 01H, 00H, 'Z', 08fH, 01H, 00H, '['
	DB	08fH, 01H, 00H, '[', 08fH, 01H, 00H, '[', 08fH, 01H, 00H, '[', 08fH
	DB	01H, 00H, '[', 08fH, 01H, 00H, '[', 08fH, 01H, 00H, '[', 08fH, 01H
	DB	00H, '[', 08fH, 01H, 00H, '[', 08fH, 01H, 00H, '[', 08fH, 01H, 00H
	DB	'[', 08fH, 01H, 00H, '[', 08fH, 01H, 00H, '[', 08fH, 01H, 00H, '['
	DB	08fH, 01H, 00H, '[', 08fH, 01H, 00H, '[', 08fH, 01H, 00H, '[', 08fH
	DB	01H, 00H, '[', 08fH, 01H, 00H, 012H, 088H, 01H, 00H, 'I', 088H
	DB	01H, 00H, 'I', 088H, 01H, 00H, 'I', 088H, 01H, 00H, 'I', 088H, 01H
	DB	00H, 'I', 088H, 01H, 00H, 'I', 088H, 01H, 00H, 'I', 088H, 01H, 00H
	DB	'I', 088H, 01H, 00H, 'I', 088H, 01H, 00H, 'I', 088H, 01H, 00H, 'I'
	DB	088H, 01H, 00H, 'I', 088H, 01H, 00H, 'I', 088H, 01H, 00H, 'I', 088H
	DB	01H, 00H, 'I', 088H, 01H, 00H, 'I', 088H, 01H, 00H, 'I', 088H, 01H
	DB	00H, 'I', 088H, 01H, 00H, 0a8H, 09cH, 0bH, 00H, 0a5H, 086H, 01H
	DB	00H, 0aaH, 086H, 01H, 00H, 0afH, 086H, 01H, 00H, 0b9H, 086H, 01H
	DB	00H, 0beH, 086H, 01H, 00H, 0c3H, 086H, 01H, 00H, 0b4H, 086H, 01H
	DB	00H, 0d7H, 086H, 01H, 00H, 0d2H, 086H, 01H, 00H, 0cdH, 086H, 01H
	DB	00H, 0c8H, 086H, 01H, 00H, 0dcH, 086H, 01H, 00H, 0e1H, 086H, 01H
	DB	00H, 0e6H, 086H, 01H, 00H, 0ebH, 086H, 01H, 00H, 0ffH, 086H, 01H
	DB	00H, 0f5H, 086H, 01H, 00H, 0faH, 086H, 01H, 00H, 0f0H, 086H, 01H
	DB	00H, 04H, 087H, 01H, 00H, 013H, 087H, 01H, 00H, 0eH, 087H, 01H
	DB	00H, 09H, 087H, 01H, 00H, '''', 087H, 01H, 00H, 018H, 087H, 01H
	DB	00H, 01dH, 087H, 01H, 00H, '"', 087H, 01H, 00H, '1', 087H, 01H
	DB	00H, ',', 087H, 01H, 00H, '6', 087H, 01H, 00H, ';', 087H, 01H, 00H
	DB	'E', 087H, 01H, 00H, 'J', 087H, 01H, 00H, '@', 087H, 01H, 00H, 'O'
	DB	087H, 01H, 00H, '^', 087H, 01H, 00H, 'c', 087H, 01H, 00H, 'Y', 087H
	DB	01H, 00H, 'T', 087H, 01H, 00H, 'h', 087H, 01H, 00H, 'r', 087H, 01H
	DB	00H, 'w', 087H, 01H, 00H, 'm', 087H, 01H, 00H, 086H, 087H, 01H
	DB	00H, 081H, 087H, 01H, 00H, '|', 087H, 01H, 00H, 08bH, 087H, 01H
	DB	00H, 0c0H, 0d4H, 01H, 00H, 0c5H, 0d4H, 01H, 00H, 0caH, 0d4H, 01H
	DB	00H, 0cfH, 0d4H, 01H, 00H, 0d4H, 0d4H, 01H, 00H, 0d9H, 0d4H, 01H
	DB	00H, 0deH, 0d4H, 01H, 00H, 0e3H, 0d4H, 01H, 00H, 0e8H, 0d4H, 01H
	DB	00H, 0edH, 0d4H, 01H, 00H, 0f2H, 0d4H, 01H, 00H, 0f7H, 0d4H, 01H
	DB	00H, 0fcH, 0d4H, 01H, 00H, 01H, 0d5H, 01H, 00H, 06H, 0d5H, 01H
	DB	00H, 0bH, 0d5H, 01H, 00H, '0', 088H, 01H, 00H, '5', 088H, 01H, 00H
	DB	'O', 088H, 01H, 00H, 'T', 088H, 01H, 00H, 0e9H, 087H, 01H, 00H
	DB	0e7H, 087H, 01H, 00H, 0eaH, 087H, 01H, 00H, 0e8H, 087H, 01H, 00H
	DB	08cH, 08aH, 01H, 00H, 08dH, 08aH, 01H, 00H, 08eH, 08aH, 01H, 00H
	DB	08fH, 08aH, 01H, 00H, 097H, 08aH, 01H, 00H, 098H, 08aH, 01H, 00H
	DB	099H, 08aH, 01H, 00H, 096H, 08aH, 01H, 00H, 0a3H, 08aH, 01H, 00H
	DB	0a2H, 08aH, 01H, 00H, 0a1H, 08aH, 01H, 00H, 0a0H, 08aH, 01H, 00H
	DB	0aaH, 08aH, 01H, 00H, 0abH, 08aH, 01H, 00H, 0acH, 08aH, 01H, 00H
	DB	0adH, 08aH, 01H, 00H, 0b7H, 08aH, 01H, 00H, 0b5H, 08aH, 01H, 00H
	DB	0b6H, 08aH, 01H, 00H, 0b4H, 08aH, 01H, 00H, 0beH, 08aH, 01H, 00H
	DB	0c1H, 08aH, 01H, 00H, 0c0H, 08aH, 01H, 00H, 0bfH, 08aH, 01H, 00H
	DB	0cbH, 08aH, 01H, 00H, 0c8H, 08aH, 01H, 00H, 0c9H, 08aH, 01H, 00H
	DB	0caH, 08aH, 01H, 00H, 0d3H, 08aH, 01H, 00H, 0d2H, 08aH, 01H, 00H
	DB	0d4H, 08aH, 01H, 00H, 0d5H, 08aH, 01H, 00H, 0ddH, 08aH, 01H, 00H
	DB	0deH, 08aH, 01H, 00H, 0dcH, 08aH, 01H, 00H, 0dfH, 08aH, 01H, 00H
	DB	0e8H, 08aH, 01H, 00H, 0e9H, 08aH, 01H, 00H, 0e7H, 08aH, 01H, 00H
	DB	0e6H, 08aH, 01H, 00H, 0f0H, 08aH, 01H, 00H, 0f2H, 08aH, 01H, 00H
	DB	0f3H, 08aH, 01H, 00H, 0f1H, 08aH, 01H, 00H, 0fcH, 08aH, 01H, 00H
	DB	0fbH, 08aH, 01H, 00H, 0faH, 08aH, 01H, 00H, 0fdH, 08aH, 01H, 00H
	DB	09bH, 0aeH, 01H, 00H, 09cH, 0aeH, 01H, 00H, 0a0H, 0aeH, 01H, 00H
	DB	'x', 0aeH, 01H, 00H, 09fH, 0aeH, 01H, 00H, 'y', 0aeH, 01H, 00H
	DB	09dH, 0aeH, 01H, 00H, 09eH, 0aeH, 01H, 00H, 014H, 0aeH, 01H, 00H
	DB	0a0H, 086H, 01H, 00H, 00H, 088H, 01H, 00H, 089H, 08aH, 01H, 00H
	DB	0a5H, 086H, 01H, 00H, 00H, 088H, 01H, 00H, 08aH, 08aH, 01H, 00H
	DB	0aaH, 086H, 01H, 00H, 00H, 088H, 01H, 00H, 08bH, 08aH, 01H, 00H
	DB	0afH, 086H, 01H, 00H, 00H, 088H, 01H, 00H, 088H, 08aH, 01H, 00H
	DB	'\', 089H, 01H, 00H, 00H, 088H, 01H, 00H, 088H, 08aH, 01H, 00H
	DB	'a', 089H, 01H, 00H, 00H, 088H, 01H, 00H, 092H, 08aH, 01H, 00H
	DB	0b4H, 086H, 01H, 00H, ',', 088H, 01H, 00H, 093H, 08aH, 01H, 00H
	DB	0b9H, 086H, 01H, 00H, ',', 088H, 01H, 00H, 094H, 08aH, 01H, 00H
	DB	0beH, 086H, 01H, 00H, ',', 088H, 01H, 00H, 095H, 08aH, 01H, 00H
	DB	0c3H, 086H, 01H, 00H, ',', 088H, 01H, 00H, 092H, 08aH, 01H, 00H
	DB	'f', 089H, 01H, 00H, ',', 088H, 01H, 00H, 092H, 08aH, 01H, 00H
	DB	'k', 089H, 01H, 00H, ',', 088H, 01H, 00H, 09cH, 08aH, 01H, 00H
	DB	0c8H, 086H, 01H, 00H, 0ffH, 087H, 01H, 00H, 09dH, 08aH, 01H, 00H
	DB	0cdH, 086H, 01H, 00H, 0ffH, 087H, 01H, 00H, 09eH, 08aH, 01H, 00H
	DB	0d2H, 086H, 01H, 00H, 0ffH, 087H, 01H, 00H, 09fH, 08aH, 01H, 00H
	DB	0d7H, 086H, 01H, 00H, 0ffH, 087H, 01H, 00H, 09cH, 08aH, 01H, 00H
	DB	'p', 089H, 01H, 00H, 0ffH, 087H, 01H, 00H, 09cH, 08aH, 01H, 00H
	DB	'u', 089H, 01H, 00H, 0ffH, 087H, 01H, 00H, 0a6H, 08aH, 01H, 00H
	DB	0dcH, 086H, 01H, 00H, 01H, 088H, 01H, 00H, 0a7H, 08aH, 01H, 00H
	DB	0e1H, 086H, 01H, 00H, 01H, 088H, 01H, 00H, 0a8H, 08aH, 01H, 00H
	DB	0e6H, 086H, 01H, 00H, 01H, 088H, 01H, 00H, 0a9H, 08aH, 01H, 00H
	DB	0ebH, 086H, 01H, 00H, 01H, 088H, 01H, 00H, 0a6H, 08aH, 01H, 00H
	DB	'z', 089H, 01H, 00H, 01H, 088H, 01H, 00H, 0a6H, 08aH, 01H, 00H
	DB	07fH, 089H, 01H, 00H, 01H, 088H, 01H, 00H, 0b0H, 08aH, 01H, 00H
	DB	0f0H, 086H, 01H, 00H, ',', 088H, 01H, 00H, 0b1H, 08aH, 01H, 00H
	DB	0f5H, 086H, 01H, 00H, ',', 088H, 01H, 00H, 0b2H, 08aH, 01H, 00H
	DB	0faH, 086H, 01H, 00H, ',', 088H, 01H, 00H, 0b3H, 08aH, 01H, 00H
	DB	0ffH, 086H, 01H, 00H, ',', 088H, 01H, 00H, 0b0H, 08aH, 01H, 00H
	DB	084H, 089H, 01H, 00H, ',', 088H, 01H, 00H, 0b0H, 08aH, 01H, 00H
	DB	089H, 089H, 01H, 00H, ',', 088H, 01H, 00H, 0baH, 08aH, 01H, 00H
	DB	04H, 087H, 01H, 00H, 01H, 088H, 01H, 00H, 0bbH, 08aH, 01H, 00H
	DB	09H, 087H, 01H, 00H, 01H, 088H, 01H, 00H, 0bcH, 08aH, 01H, 00H
	DB	0eH, 087H, 01H, 00H, 01H, 088H, 01H, 00H, 0bdH, 08aH, 01H, 00H
	DB	013H, 087H, 01H, 00H, 01H, 088H, 01H, 00H, 0baH, 08aH, 01H, 00H
	DB	08eH, 089H, 01H, 00H, 01H, 088H, 01H, 00H, 0baH, 08aH, 01H, 00H
	DB	093H, 089H, 01H, 00H, 01H, 088H, 01H, 00H, 0c4H, 08aH, 01H, 00H
	DB	018H, 087H, 01H, 00H, 02H, 088H, 01H, 00H, 0c5H, 08aH, 01H, 00H
	DB	01dH, 087H, 01H, 00H, 02H, 088H, 01H, 00H, 0c6H, 08aH, 01H, 00H
	DB	'"', 087H, 01H, 00H, 02H, 088H, 01H, 00H, 0c7H, 08aH, 01H, 00H
	DB	'''', 087H, 01H, 00H, 02H, 088H, 01H, 00H, 0c4H, 08aH, 01H, 00H
	DB	098H, 089H, 01H, 00H, 02H, 088H, 01H, 00H, 0c4H, 08aH, 01H, 00H
	DB	09dH, 089H, 01H, 00H, 02H, 088H, 01H, 00H, 0ceH, 08aH, 01H, 00H
	DB	',', 087H, 01H, 00H, 02H, 088H, 01H, 00H, 0cfH, 08aH, 01H, 00H
	DB	'1', 087H, 01H, 00H, 02H, 088H, 01H, 00H, 0d0H, 08aH, 01H, 00H
	DB	'6', 087H, 01H, 00H, 02H, 088H, 01H, 00H, 0d1H, 08aH, 01H, 00H
	DB	';', 087H, 01H, 00H, 02H, 088H, 01H, 00H, 0ceH, 08aH, 01H, 00H
	DB	0a2H, 089H, 01H, 00H, 02H, 088H, 01H, 00H, 0ceH, 08aH, 01H, 00H
	DB	0a7H, 089H, 01H, 00H, 02H, 088H, 01H, 00H, 0d8H, 08aH, 01H, 00H
	DB	'@', 087H, 01H, 00H, 00H, 088H, 01H, 00H, 0d9H, 08aH, 01H, 00H
	DB	'E', 087H, 01H, 00H, 00H, 088H, 01H, 00H, 0daH, 08aH, 01H, 00H
	DB	'J', 087H, 01H, 00H, 00H, 088H, 01H, 00H, 0dbH, 08aH, 01H, 00H
	DB	'O', 087H, 01H, 00H, 00H, 088H, 01H, 00H, 0d8H, 08aH, 01H, 00H
	DB	0acH, 089H, 01H, 00H, 00H, 088H, 01H, 00H, 0d8H, 08aH, 01H, 00H
	DB	0b1H, 089H, 01H, 00H, 00H, 088H, 01H, 00H, 0e2H, 08aH, 01H, 00H
	DB	'T', 087H, 01H, 00H, 0ffH, 087H, 01H, 00H, 0e3H, 08aH, 01H, 00H
	DB	'Y', 087H, 01H, 00H, 0ffH, 087H, 01H, 00H, 0e4H, 08aH, 01H, 00H
	DB	'^', 087H, 01H, 00H, 0ffH, 087H, 01H, 00H, 0e5H, 08aH, 01H, 00H
	DB	'c', 087H, 01H, 00H, 0ffH, 087H, 01H, 00H, 0e2H, 08aH, 01H, 00H
	DB	0b6H, 089H, 01H, 00H, 0ffH, 087H, 01H, 00H, 0e2H, 08aH, 01H, 00H
	DB	0bbH, 089H, 01H, 00H, 0ffH, 087H, 01H, 00H, 0ecH, 08aH, 01H, 00H
	DB	'h', 087H, 01H, 00H, 01H, 088H, 01H, 00H, 0edH, 08aH, 01H, 00H
	DB	'm', 087H, 01H, 00H, 01H, 088H, 01H, 00H, 0eeH, 08aH, 01H, 00H
	DB	'r', 087H, 01H, 00H, 01H, 088H, 01H, 00H, 0efH, 08aH, 01H, 00H
	DB	'w', 087H, 01H, 00H, 01H, 088H, 01H, 00H, 0ecH, 08aH, 01H, 00H
	DB	0c0H, 089H, 01H, 00H, 01H, 088H, 01H, 00H, 0ecH, 08aH, 01H, 00H
	DB	0c5H, 089H, 01H, 00H, 01H, 088H, 01H, 00H, 0f6H, 08aH, 01H, 00H
	DB	'|', 087H, 01H, 00H, ',', 088H, 01H, 00H, 0f7H, 08aH, 01H, 00H
	DB	081H, 087H, 01H, 00H, ',', 088H, 01H, 00H, 0f8H, 08aH, 01H, 00H
	DB	086H, 087H, 01H, 00H, ',', 088H, 01H, 00H, 0f9H, 08aH, 01H, 00H
	DB	08bH, 087H, 01H, 00H, ',', 088H, 01H, 00H, 0f6H, 08aH, 01H, 00H
	DB	0caH, 089H, 01H, 00H, ',', 088H, 01H, 00H, 0f6H, 08aH, 01H, 00H
	DB	0cfH, 089H, 01H, 00H, ',', 088H, 01H, 00H, 014H, 088H, 01H, 00H
	DB	015H, 088H, 01H, 00H, 090H, 08aH, 01H, 00H, 091H, 08aH, 01H, 00H
	DB	09aH, 08aH, 01H, 00H, 09bH, 08aH, 01H, 00H, 0a4H, 08aH, 01H, 00H
	DB	0a5H, 08aH, 01H, 00H, 0aeH, 08aH, 01H, 00H, 0afH, 08aH, 01H, 00H
	DB	0b8H, 08aH, 01H, 00H, 0b9H, 08aH, 01H, 00H, 0c2H, 08aH, 01H, 00H
	DB	0c3H, 08aH, 01H, 00H, 0ccH, 08aH, 01H, 00H, 0cdH, 08aH, 01H, 00H
	DB	0d6H, 08aH, 01H, 00H, 0d7H, 08aH, 01H, 00H, 0e0H, 08aH, 01H, 00H
	DB	0e1H, 08aH, 01H, 00H, 0eaH, 08aH, 01H, 00H, 0ebH, 08aH, 01H, 00H
	DB	0f4H, 08aH, 01H, 00H, 0f5H, 08aH, 01H, 00H, 0feH, 08aH, 01H, 00H
	DB	0ffH, 08aH, 01H, 00H, 0e0H, 08aH, 01H, 00H, 0e1H, 08aH, 01H, 00H
	DB	0eaH, 08aH, 01H, 00H, 0ebH, 08aH, 01H, 00H, 0f4H, 08aH, 01H, 00H
	DB	0f5H, 08aH, 01H, 00H, 0feH, 08aH, 01H, 00H, 0ffH, 08aH, 01H, 00H
	DB	0f4H, 08aH, 01H, 00H, 0f5H, 08aH, 01H, 00H, 0feH, 08aH, 01H, 00H
	DB	0ffH, 08aH, 01H, 00H
CONST	ENDS
;	COMDAT __real@c014000000000000
CONST	SEGMENT
__real@c014000000000000 DQ 0c014000000000000r	; -5
CONST	ENDS
;	COMDAT __real@42c80000
CONST	SEGMENT
__real@42c80000 DD 042c80000r			; 100
CONST	ENDS
;	COMDAT __real@4059000000000000
CONST	SEGMENT
__real@4059000000000000 DQ 04059000000000000r	; 100
CONST	ENDS
;	COMDAT __real@4017000000000000
CONST	SEGMENT
__real@4017000000000000 DQ 04017000000000000r	; 5.75
CONST	ENDS
;	COMDAT __real@4016333340000000
CONST	SEGMENT
__real@4016333340000000 DQ 04016333340000000r	; 5.55
CONST	ENDS
;	COMDAT __real@4015666660000000
CONST	SEGMENT
__real@4015666660000000 DQ 04015666660000000r	; 5.35
CONST	ENDS
;	COMDAT __real@40149999a0000000
CONST	SEGMENT
__real@40149999a0000000 DQ 040149999a0000000r	; 5.15
CONST	ENDS
;	COMDAT __real@4013ccccc0000000
CONST	SEGMENT
__real@4013ccccc0000000 DQ 04013ccccc0000000r	; 4.95
CONST	ENDS
;	COMDAT __real@4013000000000000
CONST	SEGMENT
__real@4013000000000000 DQ 04013000000000000r	; 4.75
CONST	ENDS
;	COMDAT __real@4012000000000000
CONST	SEGMENT
__real@4012000000000000 DQ 04012000000000000r	; 4.5
CONST	ENDS
;	COMDAT __real@4010000000000000
CONST	SEGMENT
__real@4010000000000000 DQ 04010000000000000r	; 4
CONST	ENDS
;	COMDAT __real@3fe999999999999a
CONST	SEGMENT
__real@3fe999999999999a DQ 03fe999999999999ar	; 0.8
CONST	ENDS
;	COMDAT __real@3fe947ae147ae148
CONST	SEGMENT
__real@3fe947ae147ae148 DQ 03fe947ae147ae148r	; 0.79
CONST	ENDS
;	COMDAT __real@3fe147ae147ae148
CONST	SEGMENT
__real@3fe147ae147ae148 DQ 03fe147ae147ae148r	; 0.54
CONST	ENDS
;	COMDAT __real@3fdeb851eb851eb8
CONST	SEGMENT
__real@3fdeb851eb851eb8 DQ 03fdeb851eb851eb8r	; 0.48
CONST	ENDS
;	COMDAT __real@3fdae147ae147ae1
CONST	SEGMENT
__real@3fdae147ae147ae1 DQ 03fdae147ae147ae1r	; 0.42
CONST	ENDS
;	COMDAT __real@3fd70a3d70a3d70a
CONST	SEGMENT
__real@3fd70a3d70a3d70a DQ 03fd70a3d70a3d70ar	; 0.36
CONST	ENDS
;	COMDAT __real@3fd3333333333333
CONST	SEGMENT
__real@3fd3333333333333 DQ 03fd3333333333333r	; 0.3
CONST	ENDS
;	COMDAT __real@3fd147ae147ae148
CONST	SEGMENT
__real@3fd147ae147ae148 DQ 03fd147ae147ae148r	; 0.27
CONST	ENDS
;	COMDAT __real@3fceb851eb851eb8
CONST	SEGMENT
__real@3fceb851eb851eb8 DQ 03fceb851eb851eb8r	; 0.24
CONST	ENDS
;	COMDAT __real@3fcae147ae147ae1
CONST	SEGMENT
__real@3fcae147ae147ae1 DQ 03fcae147ae147ae1r	; 0.21
CONST	ENDS
;	COMDAT __real@3fc70a3d70a3d70a
CONST	SEGMENT
__real@3fc70a3d70a3d70a DQ 03fc70a3d70a3d70ar	; 0.18
CONST	ENDS
;	COMDAT __real@3fc3333333333333
CONST	SEGMENT
__real@3fc3333333333333 DQ 03fc3333333333333r	; 0.15
CONST	ENDS
;	COMDAT __real@3fbeb851eb851eb8
CONST	SEGMENT
__real@3fbeb851eb851eb8 DQ 03fbeb851eb851eb8r	; 0.12
CONST	ENDS
;	COMDAT __real@3fb999999999999a
CONST	SEGMENT
__real@3fb999999999999a DQ 03fb999999999999ar	; 0.1
CONST	ENDS
;	COMDAT __real@3fb70a3d70a3d70a
CONST	SEGMENT
__real@3fb70a3d70a3d70a DQ 03fb70a3d70a3d70ar	; 0.09
CONST	ENDS
;	COMDAT __real@3fb47ae147ae147b
CONST	SEGMENT
__real@3fb47ae147ae147b DQ 03fb47ae147ae147br	; 0.08
CONST	ENDS
;	COMDAT __real@3fb1eb851eb851ec
CONST	SEGMENT
__real@3fb1eb851eb851ec DQ 03fb1eb851eb851ecr	; 0.07
CONST	ENDS
;	COMDAT __real@3faeb851eb851eb8
CONST	SEGMENT
__real@3faeb851eb851eb8 DQ 03faeb851eb851eb8r	; 0.06
CONST	ENDS
;	COMDAT __real@3fa999999999999a
CONST	SEGMENT
__real@3fa999999999999a DQ 03fa999999999999ar	; 0.05
CONST	ENDS
;	COMDAT __real@3fa47ae147ae147b
CONST	SEGMENT
__real@3fa47ae147ae147b DQ 03fa47ae147ae147br	; 0.04
CONST	ENDS
;	COMDAT __real@3f9eb851eb851eb8
CONST	SEGMENT
__real@3f9eb851eb851eb8 DQ 03f9eb851eb851eb8r	; 0.03
CONST	ENDS
;	COMDAT __real@3f947ae147ae147b
CONST	SEGMENT
__real@3f947ae147ae147b DQ 03f947ae147ae147br	; 0.02
CONST	ENDS
;	COMDAT __real@3f847ae147ae147b
CONST	SEGMENT
__real@3f847ae147ae147b DQ 03f847ae147ae147br	; 0.01
CONST	ENDS
;	COMDAT __real@3f00000000000000
CONST	SEGMENT
__real@3f00000000000000 DQ 03f00000000000000r	; 3.05176e-05
CONST	ENDS
;	COMDAT ??_R1A@?0A@EA@bad_array_new_length@std@@8
rdata$r	SEGMENT
??_R1A@?0A@EA@bad_array_new_length@std@@8 DD FLAT:??_R0?AVbad_array_new_length@std@@@8 ; std::bad_array_new_length::`RTTI Base Class Descriptor at (0,-1,0,64)'
	DD	02H
	DD	00H
	DD	0ffffffffH
	DD	00H
	DD	040H
	DD	FLAT:??_R3bad_array_new_length@std@@8
rdata$r	ENDS
;	COMDAT ??_R2bad_array_new_length@std@@8
rdata$r	SEGMENT
??_R2bad_array_new_length@std@@8 DD FLAT:??_R1A@?0A@EA@bad_array_new_length@std@@8 ; std::bad_array_new_length::`RTTI Base Class Array'
	DD	FLAT:??_R1A@?0A@EA@bad_alloc@std@@8
	DD	FLAT:??_R1A@?0A@EA@exception@std@@8
rdata$r	ENDS
;	COMDAT ??_R3bad_array_new_length@std@@8
rdata$r	SEGMENT
??_R3bad_array_new_length@std@@8 DD 00H			; std::bad_array_new_length::`RTTI Class Hierarchy Descriptor'
	DD	00H
	DD	03H
	DD	FLAT:??_R2bad_array_new_length@std@@8
rdata$r	ENDS
;	COMDAT ??_R4bad_array_new_length@std@@6B@
rdata$r	SEGMENT
??_R4bad_array_new_length@std@@6B@ DD 00H		; std::bad_array_new_length::`RTTI Complete Object Locator'
	DD	00H
	DD	00H
	DD	FLAT:??_R0?AVbad_array_new_length@std@@@8
	DD	FLAT:??_R3bad_array_new_length@std@@8
rdata$r	ENDS
;	COMDAT ??_R1A@?0A@EA@bad_alloc@std@@8
rdata$r	SEGMENT
??_R1A@?0A@EA@bad_alloc@std@@8 DD FLAT:??_R0?AVbad_alloc@std@@@8 ; std::bad_alloc::`RTTI Base Class Descriptor at (0,-1,0,64)'
	DD	01H
	DD	00H
	DD	0ffffffffH
	DD	00H
	DD	040H
	DD	FLAT:??_R3bad_alloc@std@@8
rdata$r	ENDS
;	COMDAT ??_R2bad_alloc@std@@8
rdata$r	SEGMENT
??_R2bad_alloc@std@@8 DD FLAT:??_R1A@?0A@EA@bad_alloc@std@@8 ; std::bad_alloc::`RTTI Base Class Array'
	DD	FLAT:??_R1A@?0A@EA@exception@std@@8
rdata$r	ENDS
;	COMDAT ??_R3bad_alloc@std@@8
rdata$r	SEGMENT
??_R3bad_alloc@std@@8 DD 00H				; std::bad_alloc::`RTTI Class Hierarchy Descriptor'
	DD	00H
	DD	02H
	DD	FLAT:??_R2bad_alloc@std@@8
rdata$r	ENDS
;	COMDAT ??_R4bad_alloc@std@@6B@
rdata$r	SEGMENT
??_R4bad_alloc@std@@6B@ DD 00H				; std::bad_alloc::`RTTI Complete Object Locator'
	DD	00H
	DD	00H
	DD	FLAT:??_R0?AVbad_alloc@std@@@8
	DD	FLAT:??_R3bad_alloc@std@@8
rdata$r	ENDS
;	COMDAT ??_R1A@?0A@EA@exception@std@@8
rdata$r	SEGMENT
??_R1A@?0A@EA@exception@std@@8 DD FLAT:??_R0?AVexception@std@@@8 ; std::exception::`RTTI Base Class Descriptor at (0,-1,0,64)'
	DD	00H
	DD	00H
	DD	0ffffffffH
	DD	00H
	DD	040H
	DD	FLAT:??_R3exception@std@@8
rdata$r	ENDS
;	COMDAT ??_R2exception@std@@8
rdata$r	SEGMENT
??_R2exception@std@@8 DD FLAT:??_R1A@?0A@EA@exception@std@@8 ; std::exception::`RTTI Base Class Array'
rdata$r	ENDS
;	COMDAT ??_R3exception@std@@8
rdata$r	SEGMENT
??_R3exception@std@@8 DD 00H				; std::exception::`RTTI Class Hierarchy Descriptor'
	DD	00H
	DD	01H
	DD	FLAT:??_R2exception@std@@8
rdata$r	ENDS
;	COMDAT ??_R4exception@std@@6B@
rdata$r	SEGMENT
??_R4exception@std@@6B@ DD 00H				; std::exception::`RTTI Complete Object Locator'
	DD	00H
	DD	00H
	DD	FLAT:??_R0?AVexception@std@@@8
	DD	FLAT:??_R3exception@std@@8
rdata$r	ENDS
;	COMDAT ??_C@_0BA@FOIKENOD@vector?5too?5long@
CONST	SEGMENT
??_C@_0BA@FOIKENOD@vector?5too?5long@ DB 'vector too long', 00H ; `string'
CONST	ENDS
;	COMDAT ??_C@_0BO@IMBPEJAE@invalid?5array?$DMT?0?5N?$DO?5subscript@
CONST	SEGMENT
??_C@_0BO@IMBPEJAE@invalid?5array?$DMT?0?5N?$DO?5subscript@ DB 'invalid a'
	DB	'rray<T, N> subscript', 00H			; `string'
CONST	ENDS
;	COMDAT ??_C@_0BJ@DHFDPMIM@invalid?5vector?5subscript@
CONST	SEGMENT
??_C@_0BJ@DHFDPMIM@invalid?5vector?5subscript@ DB 'invalid vector subscri'
	DB	'pt', 00H					; `string'
CONST	ENDS
;	COMDAT ??_C@_0BK@FOCEAPFH@?C?$KE?F?C?$LJ?f?$LP?$KB?$LM?$KN?5?$LA?$KN?E?p?$LF?G?$LO?z?$LO?n?$LP?d?$KD?$KB@
CONST	SEGMENT
??_C@_0BK@FOCEAPFH@?C?$KE?F?C?$LJ?f?$LP?$KB?$LM?$KN?5?$LA?$KN?E?p?$LF?G?$LO?z?$LO?n?$LP?d?$KD?$KB@ DB 0c3H
	DB	0a4H, 0c6H, 0c3H, 0b9H, 0e6H, 0bfH, 0a1H, 0bcH, 0adH, ' ', 0b0H
	DB	0adH, 0c5H, 0f0H, 0b5H, 0c7H, 0beH, 0faH, 0beH, 0eeH, 0bfH, 0e4H
	DB	0a3H, 0a1H, 00H				; `string'
CONST	ENDS
;	COMDAT ??_C@_0BN@GLJGCFGJ@?C?$KE?F?C?$LJ?f?$MA?L?5?$MA?L?$LJ?L?5?$LL?h?A?$KG?$LF?G?$LO?z?$LO?n?$LP?d?$KD?$KB@
CONST	SEGMENT
??_C@_0BN@GLJGCFGJ@?C?$KE?F?C?$LJ?f?$MA?L?5?$MA?L?$LJ?L?5?$LL?h?A?$KG?$LF?G?$LO?z?$LO?n?$LP?d?$KD?$KB@ DB 0c3H
	DB	0a4H, 0c6H, 0c3H, 0b9H, 0e6H, 0c0H, 0ccH, ' ', 0c0H, 0ccH, 0b9H
	DB	0ccH, ' ', 0bbH, 0e8H, 0c1H, 0a6H, 0b5H, 0c7H, 0beH, 0faH, 0beH
	DB	0eeH, 0bfH, 0e4H, 0a3H, 0a1H, 00H		; `string'
CONST	ENDS
;	COMDAT ??_C@_08MMBFKAPF@?$FL?$LE?k?H?$KN?$FN?$CFs@
CONST	SEGMENT
??_C@_08MMBFKAPF@?$FL?$LE?k?H?$KN?$FN?$CFs@ DB '[', 0b4H, 0ebH, 0c8H, 0adH
	DB	']%s', 00H					; `string'
CONST	ENDS
;	COMDAT ??_C@_06MDMHPEBB@A?$HM?$CFd?$HM0@
CONST	SEGMENT
??_C@_06MDMHPEBB@A?$HM?$CFd?$HM0@ DB 'A|%d|0', 00H	; `string'
CONST	ENDS
;	COMDAT ??_C@_06NKNMMFFA@A?$HM?$CFd?$HM1@
CONST	SEGMENT
??_C@_06NKNMMFFA@A?$HM?$CFd?$HM1@ DB 'A|%d|1', 00H	; `string'
CONST	ENDS
;	COMDAT ??_C@_0M@HKAIMJJM@?$CFs?5?$LA?$KB?$MA?T?$LN?E?C?$LL@
CONST	SEGMENT
??_C@_0M@HKAIMJJM@?$CFs?5?$LA?$KB?$MA?T?$LN?E?C?$LL@ DB '%s ', 0b0H, 0a1H
	DB	0c0H, 0d4H, 0bdH, 0c5H, 0c3H, 0bbH, 00H	; `string'
CONST	ENDS
;	COMDAT ??_C@_02PEKHDFAL@D?$HM@
CONST	SEGMENT
??_C@_02PEKHDFAL@D?$HM@ DB 'D|', 00H			; `string'
CONST	ENDS
;	COMDAT ??_C@_04IHEAKBJG@M?$HM?$CFd@
CONST	SEGMENT
??_C@_04IHEAKBJG@M?$HM?$CFd@ DB 'M|%d', 00H		; `string'
CONST	ENDS
;	COMDAT ??_C@_04IAAFEDG@K?$HM?$CFd@
CONST	SEGMENT
??_C@_04IAAFEDG@K?$HM?$CFd@ DB 'K|%d', 00H		; `string'
CONST	ENDS
;	COMDAT ??_C@_0CB@CKMFLHCC@?$LE?g?$LN?E?$MA?$LK?5?$MA?L?$LJ?L?5?C?$KE?F?C?$LJ?f?$MA?$LL?5?$LG?$LA?$LD?$LF?$LN?$MA?$LE?O?$LE?Y@
CONST	SEGMENT
??_C@_0CB@CKMFLHCC@?$LE?g?$LN?E?$MA?$LK?5?$MA?L?$LJ?L?5?C?$KE?F?C?$LJ?f?$MA?$LL?5?$LG?$LA?$LD?$LF?$LN?$MA?$LE?O?$LE?Y@ DB 0b4H
	DB	0e7H, 0bdH, 0c5H, 0c0H, 0baH, ' ', 0c0H, 0ccH, 0b9H, 0ccH, ' ', 0c3H
	DB	0a4H, 0c6H, 0c3H, 0b9H, 0e6H, 0c0H, 0bbH, ' ', 0b6H, 0b0H, 0b3H
	DB	0b5H, 0bdH, 0c0H, 0b4H, 0cfH, 0b4H, 0d9H, '.', 00H ; `string'
CONST	ENDS
;	COMDAT ??_C@_02PKLEGELD@L?$HM@
CONST	SEGMENT
??_C@_02PKLEGELD@L?$HM@ DB 'L|', 00H			; `string'
CONST	ENDS
;	COMDAT ??_C@_0GC@JDIKCLBG@?C?$KE?F?C?5?$LJ?f?$MA?e?$MA?$LK?5?C?$KE?F?C?$LJ?f?$LP?$KB?$LM?$KN?5?$LD?$KK?$LA?$KF?5?$LM?v?5@
CONST	SEGMENT
??_C@_0GC@JDIKCLBG@?C?$KE?F?C?5?$LJ?f?$MA?e?$MA?$LK?5?C?$KE?F?C?$LJ?f?$LP?$KB?$LM?$KN?5?$LD?$KK?$LA?$KF?5?$LM?v?5@ DB 0c3H
	DB	0a4H, 0c6H, 0c3H, ' ', 0b9H, 0e6H, 0c0H, 0e5H, 0c0H, 0baH, ' ', 0c3H
	DB	0a4H, 0c6H, 0c3H, 0b9H, 0e6H, 0bfH, 0a1H, 0bcH, 0adH, ' ', 0b3H
	DB	0aaH, 0b0H, 0a5H, ' ', 0bcH, 0f6H, ' ', 0beH, 0f8H, 0bdH, 0c0H
	DB	0b4H, 0cfH, 0b4H, 0d9H, '. ', 0b3H, 0aaH, 0b0H, 0a1H, 0b0H, 0edH
	DB	' ', 0bdH, 0cdH, 0c0H, 0bbH, ' ', 0b0H, 0e6H, 0bfH, 0ecH, ' ', 0b4H
	DB	0d9H, 0b8H, 0a5H, 0bbH, 0e7H, 0b6H, 0f7H, 0bfH, 0a1H, 0b0H, 0d4H
	DB	' ', 0b9H, 0e6H, 0c0H, 0e5H, 0c0H, 0bbH, ' ', 0b3H, 0d1H, 0b1H
	DB	0e2H, 0bdH, 0c3H, 0b1H, 0e2H, ' ', 0b9H, 0d9H, 0b6H, 0f8H, 0b4H
	DB	0cfH, 0b4H, 0d9H, 0a3H, 0a1H, 00H		; `string'
CONST	ENDS
;	COMDAT ??_C@_01KDCPPGHE@r@
CONST	SEGMENT
??_C@_01KDCPPGHE@r@ DB 'r', 00H				; `string'
CONST	ENDS
;	COMDAT ??_C@_0BH@EOCAOGMB@?5?5?$LL?u?$LH?N?$LP?n?5?C?$KE?F?C?$LJ?f?5?$LI?$LI?$LF?i?$LB?b@
CONST	SEGMENT
??_C@_0BH@EOCAOGMB@?5?5?$LL?u?$LH?N?$LP?n?5?C?$KE?F?C?$LJ?f?5?$LI?$LI?$LF?i?$LB?b@ DB ' '
	DB	' ', 0bbH, 0f5H, 0b7H, 0ceH, 0bfH, 0eeH, ' ', 0c3H, 0a4H, 0c6H
	DB	0c3H, 0b9H, 0e6H, ' ', 0b8H, 0b8H, 0b5H, 0e9H, 0b1H, 0e2H, 00H ; `string'
CONST	ENDS
;	COMDAT ??_C@_04DFGAHNIG@J?$HM?$CFd@
CONST	SEGMENT
??_C@_04DFGAHNIG@J?$HM?$CFd@ DB 'J|%d', 00H		; `string'
CONST	ENDS
;	COMDAT ??_C@_0DB@BMHKFDJF@?5?5?5?5?5?5?5?5?5?5?C?$LM?$LD?N?$MA?L?$LI?$KH?5?5?5?5?5?5?5?5?5?5?F?D?F@
CONST	SEGMENT
??_C@_0DB@BMHKFDJF@?5?5?5?5?5?5?5?5?5?5?C?$LM?$LD?N?$MA?L?$LI?$KH?5?5?5?5?5?5?5?5?5?5?F?D?F@ DB ' '
	DB	'         ', 0c3H, 0bcH, 0b3H, 0ceH, 0c0H, 0ccH, 0b8H, 0a7H, ' '
	DB	'         ', 0c6H, 0c4H, 0c6H, 0bcH, 0c0H, 0e5H, 0c0H, 0ccH, 0b8H
	DB	0a7H, '  ', 0c0H, 0ceH, 0bfH, 0f8H, ' ', 0bcH, 0f6H, ' ', 00H ; `string'
CONST	ENDS
;	COMDAT ??_C@_0BE@HNIDOICG@?5?5?$CF16s?5?5?$CF16s?5?5?5?$CF2d?5@
CONST	SEGMENT
??_C@_0BE@HNIDOICG@?5?5?$CF16s?5?5?$CF16s?5?5?5?$CF2d?5@ DB '  %16s  %16s'
	DB	'   %2d ', 00H				; `string'
CONST	ENDS
;	COMDAT ??_C@_01JBBJJEPG@p@
CONST	SEGMENT
??_C@_01JBBJJEPG@p@ DB 'p', 00H				; `string'
CONST	ENDS
;	COMDAT ??_C@_02PACKEJLJ@B?$HM@
CONST	SEGMENT
??_C@_02PACKEJLJ@B?$HM@ DB 'B|', 00H			; `string'
CONST	ENDS
;	COMDAT ??_C@_0CA@HADKCOHN@?C?$KE?$LD?N?5?$MA?L?$LI?$KH?$MA?$LL?5?$MA?T?$LH?B?G?O?$LN?C?$LB?b?5?$LJ?Y?$LG?x?$LE?O?$LE?Y@
CONST	SEGMENT
??_C@_0CA@HADKCOHN@?C?$KE?$LD?N?5?$MA?L?$LI?$KH?$MA?$LL?5?$MA?T?$LH?B?G?O?$LN?C?$LB?b?5?$LJ?Y?$LG?x?$LE?O?$LE?Y@ DB 0c3H
	DB	0a4H, 0b3H, 0ceH, ' ', 0c0H, 0ccH, 0b8H, 0a7H, 0c0H, 0bbH, ' ', 0c0H
	DB	0d4H, 0b7H, 0c2H, 0c7H, 0cfH, 0bdH, 0c3H, 0b1H, 0e2H, ' ', 0b9H
	DB	0d9H, 0b6H, 0f8H, 0b4H, 0cfH, 0b4H, 0d9H, 00H ; `string'
CONST	ENDS
;	COMDAT ??_C@_0N@KMPIGJGM@?$CFs?5?$CFs?5?1T?$CFd?5?5@
CONST	SEGMENT
??_C@_0N@KMPIGJGM@?$CFs?5?$CFs?5?1T?$CFd?5?5@ DB '%s %s /T%d  ', 00H ; `string'
CONST	ENDS
;	COMDAT ??_C@_0DA@OCCOFDAC@?5?5?5?5?5?5?5?5?5?5?5?$MA?L?5?$LI?$KH?5?5?5?5?5?5?5?5?5?5?5?$LK?$LA?5?$LI@
CONST	SEGMENT
??_C@_0DA@OCCOFDAC@?5?5?5?5?5?5?5?5?5?5?5?$MA?L?5?$LI?$KH?5?5?5?5?5?5?5?5?5?5?5?$LK?$LA?5?$LI@ DB ' '
	DB	'          ', 0c0H, 0ccH, ' ', 0b8H, 0a7H, '           ', 0baH
	DB	0b0H, ' ', 0b8H, 0edH, '  ', 0c8H, 0afH, ' ', 0bbH, 0fdH, '  ', 0b7H
	DB	0b9H, ' ', 0baH, 0a7H, ' ', 00H		; `string'
CONST	ENDS
;	COMDAT ??_C@_0BI@CNEPNBEM@?5?$CF15s?5?$CF15s?5?5?$CF5d?5?5?$CF5d?5?5?5@
CONST	SEGMENT
??_C@_0BI@CNEPNBEM@?5?$CF15s?5?$CF15s?5?5?$CF5d?5?5?$CF5d?5?5?5@ DB ' %15'
	DB	's %15s  %5d  %5d   ', 00H			; `string'
CONST	ENDS
;	COMDAT ??_C@_06IMNEOPOC@R?$HMP?$HM?$CFd@
CONST	SEGMENT
??_C@_06IMNEOPOC@R?$HMP?$HM?$CFd@ DB 'R|P|%d', 00H	; `string'
CONST	ENDS
;	COMDAT ??_C@_0CH@OILGNOPA@?F?j?$MA?e?$LK?q?$LA?$KB?5?$MA?e?B?x?$LF?G?$MA?V?$MA?$LI?$LI?i?5?E?$LO?$LN?B?G?R?$LM?v?$LO@
CONST	SEGMENT
??_C@_0CH@OILGNOPA@?F?j?$MA?e?$LK?q?$LA?$KB?5?$MA?e?B?x?$LF?G?$MA?V?$MA?$LI?$LI?i?5?E?$LO?$LN?B?G?R?$LM?v?$LO@ DB 0c6H
	DB	0eaH, 0c0H, 0e5H, 0baH, 0f1H, 0b0H, 0a1H, ' ', 0c0H, 0e5H, 0c2H
	DB	0f8H, 0b5H, 0c7H, 0c0H, 0d6H, 0c0H, 0b8H, 0b8H, 0e9H, ' ', 0c5H
	DB	0beH, 0bdH, 0c2H, 0c7H, 0d2H, 0bcH, 0f6H, 0beH, 0f8H, 0beH, 0eeH
	DB	0bfH, 0e4H, 0a3H, 0a1H, 00H			; `string'
CONST	ENDS
;	COMDAT ??_C@_01ELNMCGJD@W@
CONST	SEGMENT
??_C@_01ELNMCGJD@W@ DB 'W', 00H				; `string'
CONST	ENDS
;	COMDAT ??_C@_02PGHGPEOM@?91@
CONST	SEGMENT
??_C@_02PGHGPEOM@?91@ DB '-1', 00H			; `string'
CONST	ENDS
;	COMDAT ??_C@_0EP@MMMKPGBO@?$CFs?$LK?q?A?$KE?$LL?s?$MA?$PL?$MA?N?5?$LJ?f?$LN?D?$MA?$LI?$LH?N?5?$LA?E?$LH?$KB?5?$LB?$NN?$LO?W@
CONST	SEGMENT
??_C@_0EP@MMMKPGBO@?$CFs?$LK?q?A?$KE?$LL?s?$MA?$PL?$MA?N?5?$LJ?f?$LN?D?$MA?$LI?$LH?N?5?$LA?E?$LH?$KB?5?$LB?$NN?$LO?W@ DB '%'
	DB	's', 0baH, 0f1H, 0c1H, 0a4H, 0bbH, 0f3H, 0c0H, 0fbH, 0c0H, 0ceH
	DB	' ', 0b9H, 0e6H, 0bdH, 0c4H, 0c0H, 0b8H, 0b7H, 0ceH, ' ', 0b0H
	DB	0c5H, 0b7H, 0a1H, ' ', 0b1H, 0ddH, 0beH, 0d7H, 0c0H, 0bbH, ' ', 0bcH
	DB	0f6H, 0c1H, 0a4H, 0c7H, 0cfH, 0b8H, 0e9H, ' ', 0bdH, 0c3H, 0bdH
	DB	0baH, 0c5H, 0dbH, 0c0H, 0ccH, ' ', 0b0H, 0c5H, 0b7H, 0a1H, 0c3H
	DB	0a2H, 0c0H, 0bbH, ' ', 0b0H, 0adH, 0c1H, 0a6H, 0b7H, 0ceH, ' ', 0b4H
	DB	0ddH, 0bdH, 0c0H, 0b4H, 0cfH, 0b4H, 0d9H, 0a3H, 0a1H, 00H ; `string'
CONST	ENDS
;	COMDAT ??_C@_01GAPBHFFA@T@
CONST	SEGMENT
??_C@_01GAPBHFFA@T@ DB 'T', 00H				; `string'
CONST	ENDS
;	COMDAT ??_C@_01HIHLOKLC@1@
CONST	SEGMENT
??_C@_01HIHLOKLC@1@ DB '1', 00H				; `string'
CONST	ENDS
;	COMDAT ??_C@_06DJMKDILO@B?$HMG?$HM?$CFd@
CONST	SEGMENT
??_C@_06DJMKDILO@B?$HMG?$HM?$CFd@ DB 'B|G|%d', 00H	; `string'
CONST	ENDS
;	COMDAT ??_C@_0L@GPPMEBMP@?$MA?N?$LD?$LL?$LH?B?$KD?$LK?$CFs@
CONST	SEGMENT
??_C@_0L@GPPMEBMP@?$MA?N?$LD?$LL?$LH?B?$KD?$LK?$CFs@ DB 0c0H, 0ceH, 0b3H, 0bbH
	DB	0b7H, 0c2H, 0a3H, 0baH, '%s', 00H		; `string'
CONST	ENDS
;	COMDAT ??_C@_06OJHGLDPL@?$CInull?$CJ@
CONST	SEGMENT
??_C@_06OJHGLDPL@?$CInull?$CJ@ DB '(null)', 00H		; `string'
CONST	ENDS
;	COMDAT ??_C@_08PECEDIMI@?$MA?$LG?G?U?$CFd?H?$LI@
CONST	SEGMENT
??_C@_08PECEDIMI@?$MA?$LG?G?U?$CFd?H?$LI@ DB 0c0H, 0b6H, 0c7H, 0d5H, '%d', 0c8H
	DB	0b8H, 00H					; `string'
CONST	ENDS
;	COMDAT ??_C@_04DHBICLIK@?$CFd?H?$LI@
CONST	SEGMENT
??_C@_04DHBICLIK@?$CFd?H?$LI@ DB '%d', 0c8H, 0b8H, 00H	; `string'
CONST	ENDS
;	COMDAT ??_C@_0L@GEIMNGGC@?$MA?N?$LD?$LL?$LH?B?$CI?$CFs?$CJ@
CONST	SEGMENT
??_C@_0L@GEIMNGGC@?$MA?N?$LD?$LL?$LH?B?$CI?$CFs?$CJ@ DB 0c0H, 0ceH, 0b3H, 0bbH
	DB	0b7H, 0c2H, '(%s)', 00H			; `string'
CONST	ENDS
;	COMDAT ??_C@_0P@FBIHNOAG@T?$HM?$CFs?$HM?$CFs?$HMI?$HM1?$HM?$CFd@
CONST	SEGMENT
??_C@_0P@FBIHNOAG@T?$HM?$CFs?$HM?$CFs?$HMI?$HM1?$HM?$CFd@ DB 'T|%s|%s|I|1'
	DB	'|%d', 00H					; `string'
CONST	ENDS
;	COMDAT ??_C@_0O@ONPMCPGG@?C?V?A?$LO?5?$LA?E?$LH?$KB?H?$KO?$MA?N@
CONST	SEGMENT
??_C@_0O@ONPMCPGG@?C?V?A?$LO?5?$LA?E?$LH?$KB?H?$KO?$MA?N@ DB 0c3H, 0d6H, 0c1H
	DB	0beH, ' ', 0b0H, 0c5H, 0b7H, 0a1H, 0c8H, 0aeH, 0c0H, 0ceH, 00H ; `string'
CONST	ENDS
;	COMDAT ??_C@_08OEEBHAFG@?$LA?E?$LH?$KB?H?$KO?$MA?N@
CONST	SEGMENT
??_C@_08OEEBHAFG@?$LA?E?$LH?$KB?H?$KO?$MA?N@ DB 0b0H, 0c5H, 0b7H, 0a1H, 0c8H
	DB	0aeH, 0c0H, 0ceH, 00H			; `string'
CONST	ENDS
;	COMDAT ??_C@_0BA@BJIPOAAB@?$LL?s?$LE?k?$LJ?f?5?$LA?E?$LH?$KB?$LB?$NN?$LO?W@
CONST	SEGMENT
??_C@_0BA@BJIPOAAB@?$LL?s?$LE?k?$LJ?f?5?$LA?E?$LH?$KB?$LB?$NN?$LO?W@ DB 0bbH
	DB	0f3H, 0b4H, 0ebH, 0b9H, 0e6H, ' ', 0b0H, 0c5H, 0b7H, 0a1H, 0b1H
	DB	0ddH, 0beH, 0d7H, 00H			; `string'
CONST	ENDS
;	COMDAT ??_C@_08KMGGBBNI@?$LA?E?$LH?$KB?$LB?$NN?$LO?W@
CONST	SEGMENT
??_C@_08KMGGBBNI@?$LA?E?$LH?$KB?$LB?$NN?$LO?W@ DB 0b0H, 0c5H, 0b7H, 0a1H, 0b1H
	DB	0ddH, 0beH, 0d7H, 00H			; `string'
CONST	ENDS
;	COMDAT ??_C@_03GJOCCCFJ@?$CF7d@
CONST	SEGMENT
??_C@_03GJOCCCFJ@?$CF7d@ DB '%7d', 00H			; `string'
CONST	ENDS
;	COMDAT ??_C@_04IAHOEAOA@?$MA?$LG?G?U@
CONST	SEGMENT
??_C@_04IAHOEAOA@?$MA?$LG?G?U@ DB 0c0H, 0b6H, 0c7H, 0d5H, 00H ; `string'
CONST	ENDS
;	COMDAT ??_C@_02GPECMEKF@?$FL?$FN@
CONST	SEGMENT
??_C@_02GPECMEKF@?$FL?$FN@ DB '[]', 00H			; `string'
CONST	ENDS
;	COMDAT ??_C@_04PABHPHAJ@Gold@
CONST	SEGMENT
??_C@_04PABHPHAJ@Gold@ DB 'Gold', 00H			; `string'
CONST	ENDS
;	COMDAT ??_C@_05INGMOBLN@?$LN?$LK?5?E?f@
CONST	SEGMENT
??_C@_05INGMOBLN@?$LN?$LK?5?E?f@ DB 0bdH, 0baH, ' ', 0c5H, 0e6H, 00H ; `string'
CONST	ENDS
;	COMDAT ??_C@_01BBODEMC@G@
CONST	SEGMENT
??_C@_01BBODEMC@G@ DB 'G', 00H				; `string'
CONST	ENDS
;	COMDAT ??_C@_04IIECJNKD@?$MA?$LG?5?$DP@
CONST	SEGMENT
??_C@_04IIECJNKD@?$MA?$LG?5?$DP@ DB 0c0H, 0b6H, ' ?', 00H ; `string'
CONST	ENDS
;	COMDAT ??_C@_06IAPPLOMN@2?5?$LE?$NM?$LA?h@
CONST	SEGMENT
??_C@_06IAPPLOMN@2?5?$LE?$NM?$LA?h@ DB '2 ', 0b4H, 0dcH, 0b0H, 0e8H, 00H ; `string'
CONST	ENDS
;	COMDAT ??_C@_06LBBHKEFA@1?5?$LE?$NM?$LA?h@
CONST	SEGMENT
??_C@_06LBBHKEFA@1?5?$LE?$NM?$LA?h@ DB '1 ', 0b4H, 0dcH, 0b0H, 0e8H, 00H ; `string'
CONST	ENDS
;	COMDAT ??_C@_07EJEHFIPA@Lv?3?$CFd?$CFs@
CONST	SEGMENT
??_C@_07EJEHFIPA@Lv?3?$CFd?$CFs@ DB 'Lv:%d%s', 00H	; `string'
CONST	ENDS
;	COMDAT ??_C@_04LIFAFMCE@?$FL?$CFs?$FN@
CONST	SEGMENT
??_C@_04LIFAFMCE@?$FL?$CFs?$FN@ DB '[%s]', 00H		; `string'
CONST	ENDS
;	COMDAT ??_C@_01EJNLAFE@P@
CONST	SEGMENT
??_C@_01EJNLAFE@P@ DB 'P', 00H				; `string'
CONST	ENDS
;	COMDAT ??_C@_03EPCHICDI@x?$CFd@
CONST	SEGMENT
??_C@_03EPCHICDI@x?$CFd@ DB 'x%d', 00H			; `string'
CONST	ENDS
;	COMDAT ??_C@_01JPJNBJEM@I@
CONST	SEGMENT
??_C@_01JPJNBJEM@I@ DB 'I', 00H				; `string'
CONST	ENDS
;	COMDAT ??_C@_02HAOIJKIC@?$CFc@
CONST	SEGMENT
??_C@_02HAOIJKIC@?$CFc@ DB '%c', 00H			; `string'
CONST	ENDS
;	COMDAT ??_C@_0BC@OKAJJOLE@T?$HM?$CFs?$HM?$CFs?$HMP?$HM3?$HM?$CFd?$HM?$CFs@
CONST	SEGMENT
??_C@_0BC@OKAJJOLE@T?$HM?$CFs?$HM?$CFs?$HMP?$HM3?$HM?$CFd?$HM?$CFs@ DB 'T'
	DB	'|%s|%s|P|3|%d|%s', 00H			; `string'
CONST	ENDS
;	COMDAT ??_C@_0BL@IIOLHDHO@?$CFs?$HM?$CFs?$HM?$CFs?$HM?$CFs?$HM?$CFs?$HM?$CFs?$HM?$CFs?$HM?$CFs?$HM?$CFs@
CONST	SEGMENT
??_C@_0BL@IIOLHDHO@?$CFs?$HM?$CFs?$HM?$CFs?$HM?$CFs?$HM?$CFs?$HM?$CFs?$HM?$CFs?$HM?$CFs?$HM?$CFs@ DB '%'
	DB	's|%s|%s|%s|%s|%s|%s|%s|%s', 00H		; `string'
CONST	ENDS
;	COMDAT ??_C@_0BA@PCKDKFGL@T?$HM?$CFs?$HM?$CFs?$HMG?$HM?$CFd?$HM?$CFd@
CONST	SEGMENT
??_C@_0BA@PCKDKFGL@T?$HM?$CFs?$HM?$CFs?$HMG?$HM?$CFd?$HM?$CFd@ DB 'T|%s|%'
	DB	's|G|%d|%d', 00H				; `string'
CONST	ENDS
;	COMDAT ??_C@_07BMJINPJG@W?$HM?$CFs?$HM?$CFs@
CONST	SEGMENT
??_C@_07BMJINPJG@W?$HM?$CFs?$HM?$CFs@ DB 'W|%s|%s', 00H	; `string'
CONST	ENDS
;	COMDAT ??_C@_0N@EILMFHPP@?5?G?U?5?5?$LA?h?5?5?$CF8d@
CONST	SEGMENT
??_C@_0N@EILMFHPP@?5?G?U?5?5?$LA?h?5?5?$CF8d@ DB ' ', 0c7H, 0d5H, '  ', 0b0H
	DB	0e8H, '  %8d', 00H				; `string'
CONST	ENDS
;	COMDAT ??_C@_0O@JBEDPFPL@?5?$KD?D?5?5?$KD?P?5?5?$CF?$CL8d@
CONST	SEGMENT
??_C@_0O@JBEDPFPL@?5?$KD?D?5?5?$KD?P?5?5?$CF?$CL8d@ DB ' ', 0a3H, 0c4H, ' '
	DB	' ', 0a3H, 0d0H, '  %+8d', 00H		; `string'
CONST	ENDS
;	COMDAT ??_C@_0BN@DBCJKIIM@?$LO?F?$MA?L?E?$NL?$MA?$LL?5?$LO?r?A?v?5?$LI?x?G?O?$LP?$LE?$LN?$MA?$LE?O?$LE?Y?$KB?$KD@
CONST	SEGMENT
??_C@_0BN@DBCJKIIM@?$LO?F?$MA?L?E?$NL?$MA?$LL?5?$LO?r?A?v?5?$LI?x?G?O?$LP?$LE?$LN?$MA?$LE?O?$LE?Y?$KB?$KD@ DB 0beH
	DB	0c6H, 0c0H, 0ccH, 0c5H, 0dbH, 0c0H, 0bbH, ' ', 0beH, 0f2H, 0c1H
	DB	0f6H, ' ', 0b8H, 0f8H, 0c7H, 0cfH, 0bfH, 0b4H, 0bdH, 0c0H, 0b4H
	DB	0cfH, 0b4H, 0d9H, 0a1H, 0a3H, 00H		; `string'
CONST	ENDS
;	COMDAT ??_C@_0M@OKFINFEF@?5?5?$LO?F?$MA?L?E?$NL?5?$KD?$LK@
CONST	SEGMENT
??_C@_0M@OKFINFEF@?5?5?$LO?F?$MA?L?E?$NL?5?$KD?$LK@ DB '  ', 0beH, 0c6H, 0c0H
	DB	0ccH, 0c5H, 0dbH, ' ', 0a3H, 0baH, 00H	; `string'
CONST	ENDS
;	COMDAT ??_C@_09MBHBIIFC@Exp?5?5?5?5?$CL0@
CONST	SEGMENT
??_C@_09MBHBIIFC@Exp?5?5?5?5?$CL0@ DB 'Exp    +0', 00H	; `string'
CONST	ENDS
;	COMDAT ??_C@_08EFGDJJIF@Exp?5?$CF?$CL4d@
CONST	SEGMENT
??_C@_08EFGDJJIF@Exp?5?$CF?$CL4d@ DB 'Exp %+4d', 00H	; `string'
CONST	ENDS
;	COMDAT ??_C@_08EEKBPDLC@Exp?5?$CF?$CL5d@
CONST	SEGMENT
??_C@_08EEKBPDLC@Exp?5?$CF?$CL5d@ DB 'Exp %+5d', 00H	; `string'
CONST	ENDS
;	COMDAT ??_C@_05GEIIADAH@LvUp?$CB@
CONST	SEGMENT
??_C@_05GEIIADAH@LvUp?$CB@ DB 'LvUp!', 00H		; `string'
CONST	ENDS
;	COMDAT ??_C@_0M@IEFMJAKN@?$LO?F?$MA?L?E?$NL?5?$LP?O?$LM?$LK@
CONST	SEGMENT
??_C@_0M@IEFMJAKN@?$LO?F?$MA?L?E?$NL?5?$LP?O?$LM?$LK@ DB 0beH, 0c6H, 0c0H
	DB	0ccH, 0c5H, 0dbH, ' ', 0bfH, 0cfH, 0bcH, 0baH, 00H ; `string'
CONST	ENDS
;	COMDAT ??_C@_0BL@GCLEBMEI@?D?$KD?$LB?$LI?$LA?$KB?5?A?$KC?$LM?S?G?X?$MA?V?A?v?5?$LO?J?$LO?F?$LP?d?$KD?$KB@
CONST	SEGMENT
??_C@_0BL@GCLEBMEI@?D?$KD?$LB?$LI?$LA?$KB?5?A?$KC?$LM?S?G?X?$MA?V?A?v?5?$LO?J?$LO?F?$LP?d?$KD?$KB@ DB 0c4H
	DB	0a3H, 0b1H, 0b8H, 0b0H, 0a1H, ' ', 0c1H, 0a2H, 0bcH, 0d3H, 0c7H
	DB	0d8H, 0c0H, 0d6H, 0c1H, 0f6H, ' ', 0beH, 0caH, 0beH, 0c6H, 0bfH
	DB	0e4H, 0a3H, 0a1H, 00H			; `string'
CONST	ENDS
;	COMDAT ??_C@_0BB@HHJMAEP@?5?5?F?d?5?F?$KO?5?$LI?$NO?5?$MA?O?5?5?5@
CONST	SEGMENT
??_C@_0BB@HHJMAEP@?5?5?F?d?5?F?$KO?5?$LI?$NO?5?$MA?O?5?5?5@ DB '  ', 0c6H
	DB	0e4H, ' ', 0c6H, 0aeH, ' ', 0b8H, 0deH, ' ', 0c0H, 0cfH, '   ', 00H ; `string'
CONST	ENDS
;	COMDAT ??_C@_0BB@JGMBHNPP@?5?5?$MA?O?5?$LJ?$NN?5?$LI?$NO?5?$MA?O?5?5?5@
CONST	SEGMENT
??_C@_0BB@JGMBHNPP@?5?5?$MA?O?5?$LJ?$NN?5?$LI?$NO?5?$MA?O?5?5?5@ DB '  ', 0c0H
	DB	0cfH, ' ', 0b9H, 0ddH, ' ', 0b8H, 0deH, ' ', 0c0H, 0cfH, '   ', 00H ; `string'
CONST	ENDS
;	COMDAT ??_C@_0DB@DLDGKHKC@?$LA?E?$LH?$KB?A?$NP?$MA?N?5?F?d?F?$KO?$LE?B?5?F?d?F?$KO?$LI?$NO?$MA?O?$LB?b?$LE?I?$MA?$LL?5@
CONST	SEGMENT
??_C@_0DB@DLDGKHKC@?$LA?E?$LH?$KB?A?$NP?$MA?N?5?F?d?F?$KO?$LE?B?5?F?d?F?$KO?$LI?$NO?$MA?O?$LB?b?$LE?I?$MA?$LL?5@ DB 0b0H
	DB	0c5H, 0b7H, 0a1H, 0c1H, 0dfH, 0c0H, 0ceH, ' ', 0c6H, 0e4H, 0c6H
	DB	0aeH, 0b4H, 0c2H, ' ', 0c6H, 0e4H, 0c6H, 0aeH, 0b8H, 0deH, 0c0H
	DB	0cfH, 0b1H, 0e2H, 0b4H, 0c9H, 0c0H, 0bbH, ' ', 0bbH, 0e7H, 0bfH
	DB	0ebH, 0c7H, 0d2H, ' ', 0bcH, 0f6H, ' ', 0beH, 0f8H, 0beH, 0eeH
	DB	0bfH, 0e4H, '!', 00H				; `string'
CONST	ENDS
;	COMDAT ??_C@_03GPCJOALC@?$CF2d@
CONST	SEGMENT
??_C@_03GPCJOALC@?$CF2d@ DB '%2d', 00H			; `string'
CONST	ENDS
;	COMDAT ??_C@_0P@KLBINAOA@?A?$KE?$LH?I?5?$LM?R?H?$KP?5?$LP?k?$LF?$LF@
CONST	SEGMENT
??_C@_0P@KLBINAOA@?A?$KE?$LH?I?5?$LM?R?H?$KP?5?$LP?k?$LF?$LF@ DB 0c1H, 0a4H
	DB	0b7H, 0c9H, ' ', 0bcH, 0d2H, 0c8H, 0afH, ' ', 0bfH, 0ebH, 0b5H
	DB	0b5H, 00H					; `string'
CONST	ENDS
;	COMDAT ??_C@_03GCLOGFGE@?$CF8d@
CONST	SEGMENT
??_C@_03GCLOGFGE@?$CF8d@ DB '%8d', 00H			; `string'
CONST	ENDS
;	COMDAT ??_C@_0M@HLOAEAFL@?A?$KE?$LH?I?$MA?G?5?$LP?k?$MA?Z@
CONST	SEGMENT
??_C@_0M@HLOAEAFL@?A?$KE?$LH?I?$MA?G?5?$LP?k?$MA?Z@ DB 0c1H, 0a4H, 0b7H, 0c9H
	DB	0c0H, 0c7H, ' ', 0bfH, 0ebH, 0c0H, 0daH, 00H	; `string'
CONST	ENDS
;	COMDAT ??_C@_0M@MELGFJCD@?A?$KE?$LH?I?$MA?G?5?$LL?g?$MA?Z@
CONST	SEGMENT
??_C@_0M@MELGFJCD@?A?$KE?$LH?I?$MA?G?5?$LL?g?$MA?Z@ DB 0c1H, 0a4H, 0b7H, 0c9H
	DB	0c0H, 0c7H, ' ', 0bbH, 0e7H, 0c0H, 0daH, 00H	; `string'
CONST	ENDS
;	COMDAT ??_C@_06FFJNECKA@?$LD?$LC?5?$CF3d@
CONST	SEGMENT
??_C@_06FFJNECKA@?$LD?$LC?5?$CF3d@ DB 0b3H, 0b2H, ' %3d', 00H ; `string'
CONST	ENDS
;	COMDAT ??_C@_06IKNDGEEE@?$LF?$LP?5?$CF3d@
CONST	SEGMENT
??_C@_06IKNDGEEE@?$LF?$LP?5?$CF3d@ DB 0b5H, 0bfH, ' %3d', 00H ; `string'
CONST	ENDS
;	COMDAT ??_C@_0BB@OOMMIBOD@?A?V?$LM?z?$MA?L?5?$LO?x?$LN?$MA?$LE?O?$LE?Y?4@
CONST	SEGMENT
??_C@_0BB@OOMMIBOD@?A?V?$LM?z?$MA?L?5?$LO?x?$LN?$MA?$LE?O?$LE?Y?4@ DB 0c1H
	DB	0d6H, 0bcH, 0faH, 0c0H, 0ccH, ' ', 0beH, 0f8H, 0bdH, 0c0H, 0b4H
	DB	0cfH, 0b4H, 0d9H, '.', 00H			; `string'
CONST	ENDS
;	COMDAT ??_C@_07HFNBMNBH@?$CF2d?1?$CF2d@
CONST	SEGMENT
??_C@_07HFNBMNBH@?$CF2d?1?$CF2d@ DB '%2d/%2d', 00H	; `string'
CONST	ENDS
;	COMDAT ??_C@_04FNJBHMGB@?$CF10d@
CONST	SEGMENT
??_C@_04FNJBHMGB@?$CF10d@ DB '%10d', 00H		; `string'
CONST	ENDS
;	COMDAT ??_C@_04BCAOMEHC@?$LA?$KN?H?$KN@
CONST	SEGMENT
??_C@_04BCAOMEHC@?$LA?$KN?H?$KN@ DB 0b0H, 0adH, 0c8H, 0adH, 00H ; `string'
CONST	ENDS
;	COMDAT ??_C@_04LECOJKED@?$LM?v?$LI?$KO@
CONST	SEGMENT
??_C@_04LECOJKED@?$LM?v?$LI?$KO@ DB 0bcH, 0f6H, 0b8H, 0aeH, 00H ; `string'
CONST	ENDS
;	COMDAT ??_C@_04CENFCOIH@?A?$KE?$LB?$LD@
CONST	SEGMENT
??_C@_04CENFCOIH@?A?$KE?$LB?$LD@ DB 0c1H, 0a4H, 0b1H, 0b3H, 00H ; `string'
CONST	ENDS
;	COMDAT ??_C@_09JLDAGEJM@?A?$KE?$LH?C?1?A?$KE?A?$KG@
CONST	SEGMENT
??_C@_09JLDAGEJM@?A?$KE?$LH?C?1?A?$KE?A?$KG@ DB 0c1H, 0a4H, 0b7H, 0c3H, '/'
	DB	0c1H, 0a4H, 0c1H, 0a6H, 00H			; `string'
CONST	ENDS
;	COMDAT ??_C@_04JJOHPIH@?$LP?d?$LI?$KO@
CONST	SEGMENT
??_C@_04JJOHPIH@?$LP?d?$LI?$KO@ DB 0bfH, 0e4H, 0b8H, 0aeH, 00H ; `string'
CONST	ENDS
;	COMDAT ??_C@_04KBAMDEME@?G?U?$LM?$LK@
CONST	SEGMENT
??_C@_04KBAMDEME@?G?U?$LM?$LK@ DB 0c7H, 0d5H, 0bcH, 0baH, 00H ; `string'
CONST	ENDS
;	COMDAT ??_C@_0BO@FMLOPNNF@?E?$LO?$LN?B?F?j?$MA?e?$LK?q?$LI?$KG?5?B?x?$LP?k?G?R?$LM?v?$LO?x?$LO?n?$LP?d?$KD?$KB@
CONST	SEGMENT
??_C@_0BO@FMLOPNNF@?E?$LO?$LN?B?F?j?$MA?e?$LK?q?$LI?$KG?5?B?x?$LP?k?G?R?$LM?v?$LO?x?$LO?n?$LP?d?$KD?$KB@ DB 0c5H
	DB	0beH, 0bdH, 0c2H, 0c6H, 0eaH, 0c0H, 0e5H, 0baH, 0f1H, 0b8H, 0a6H
	DB	' ', 0c2H, 0f8H, 0bfH, 0ebH, 0c7H, 0d2H, 0bcH, 0f6H, 0beH, 0f8H
	DB	0beH, 0eeH, 0bfH, 0e4H, 0a3H, 0a1H, 00H	; `string'
CONST	ENDS
;	COMDAT ??_C@_0M@KBIHDIM@?$DP?$DP?$NM?t?J?$KG?$DP?$DP?$DP?$KD?$KB@
CONST	SEGMENT
??_C@_0M@KBIHDIM@?$DP?$DP?$NM?t?J?$KG?$DP?$DP?$DP?$KD?$KB@ DB '??', 0dcH, 0f4H
	DB	0caH, 0a6H, '???', 0a3H, 0a1H, 00H		; `string'
CONST	ENDS
;	COMDAT ??_C@_08OHLEHKNP@?$LD?$LL?$LB?$LI?$CI?$CFs?$CJ@
CONST	SEGMENT
??_C@_08OHLEHKNP@?$LD?$LL?$LB?$LI?$CI?$CFs?$CJ@ DB 0b3H, 0bbH, 0b1H, 0b8H
	DB	'(%s)', 00H					; `string'
CONST	ENDS
;	COMDAT ??_C@_04DMAFGKHI@?$LN?$LK?E?f@
CONST	SEGMENT
??_C@_04DMAFGKHI@?$LN?$LK?E?f@ DB 0bdH, 0baH, 0c5H, 0e6H, 00H ; `string'
CONST	ENDS
;	COMDAT ??_C@_0L@CFBINIFC@?R?$LB?N?y?S?x?$CI?$CFs?$CJ@
CONST	SEGMENT
??_C@_0L@CFBINIFC@?R?$LB?N?y?S?x?$CI?$CFs?$CJ@ DB 0d2H, 0b1H, 0ceH, 0f9H, 0d3H
	DB	0f8H, '(%s)', 00H				; `string'
CONST	ENDS
;	COMDAT ??_C@_0M@PEOHJCFP@?$NO?E?i?D?T?u?$DP?$KD?$LK?$CFd@
CONST	SEGMENT
??_C@_0M@PEOHJCFP@?$NO?E?i?D?T?u?$DP?$KD?$LK?$CFd@ DB 0deH, 0c5H, 0e9H, 0c4H
	DB	0d4H, 0f5H, '?', 0a3H, 0baH, '%d', 00H	; `string'
CONST	ENDS
;	COMDAT ??_C@_0BA@HANCGCKL@?T?$LD?N?$PN?$DP?z?$PO?$KD?$LK?$CFs?$CI?$CFd?$CJ@
CONST	SEGMENT
??_C@_0BA@HANCGCKL@?T?$LD?N?$PN?$DP?z?$PO?$KD?$LK?$CFs?$CI?$CFd?$CJ@ DB 0d4H
	DB	0b3H, 0ceH, 0fdH, '?', 0faH, 0feH, 0a3H, 0baH, '%s(%d)', 00H ; `string'
CONST	ENDS
;	COMDAT ??_C@_0N@OJIDMKKD@?R?$LB?5?N?y?5?S?x?$KD?$LK?$CFs@
CONST	SEGMENT
??_C@_0N@OJIDMKKD@?R?$LB?5?N?y?5?S?x?$KD?$LK?$CFs@ DB 0d2H, 0b1H, ' ', 0ceH
	DB	0f9H, ' ', 0d3H, 0f8H, 0a3H, 0baH, '%s', 00H	; `string'
CONST	ENDS
;	COMDAT ??_C@_05HADHEFCA@?$DP?Z?$KK?J?E@
CONST	SEGMENT
??_C@_05HADHEFCA@?$DP?Z?$KK?J?E@ DB '?', 0daH, 0aaH, 0caH, 0c5H, 00H ; `string'
CONST	ENDS
;	COMDAT ??_C@_06KLOJBJDG@?$DP?Z?$KK?$DP?w?$NP@
CONST	SEGMENT
??_C@_06KLOJBJDG@?$DP?Z?$KK?$DP?w?$NP@ DB '?', 0daH, 0aaH, '?', 0f7H, 0dfH
	DB	00H						; `string'
CONST	ENDS
;	COMDAT ??_C@_04DKIAPBFG@?b?$KC?w?$NP@
CONST	SEGMENT
??_C@_04DKIAPBFG@?b?$KC?w?$NP@ DB 0e2H, 0a2H, 0f7H, 0dfH, 00H ; `string'
CONST	ENDS
;	COMDAT ??_C@_04NMNAOJOJ@?$PL?$LJ?m?$KN@
CONST	SEGMENT
??_C@_04NMNAOJOJ@?$PL?$LJ?m?$KN@ DB 0fbH, 0b9H, 0edH, 0adH, 00H ; `string'
CONST	ENDS
;	COMDAT ??_C@_02OEJDJEF@?b?j@
CONST	SEGMENT
??_C@_02OEJDJEF@?b?j@ DB 0e2H, 0eaH, 00H		; `string'
CONST	ENDS
;	COMDAT ??_C@_08PPBNCICL@?l?i?Z?u?Z?$KK?y?$KB@
CONST	SEGMENT
??_C@_08PPBNCICL@?l?i?Z?u?Z?$KK?y?$KB@ DB 0ecH, 0e9H, 0daH, 0f5H, 0daH, 0aaH
	DB	0f9H, 0a1H, 00H				; `string'
CONST	ENDS
;	COMDAT ??_C@_05NCBNMKHJ@?w?a?$DP?$OA?$LE@
CONST	SEGMENT
??_C@_05NCBNMKHJ@?w?a?$DP?$OA?$LE@ DB 0f7H, 0e1H, '?', 0e0H, 0b4H, 00H ; `string'
CONST	ENDS
;	COMDAT ??_C@_06GGKIIEAG@?w?a?$DP?$NN?$KI?$DP@
CONST	SEGMENT
??_C@_06GGKIIEAG@?w?a?$DP?$NN?$KI?$DP@ DB 0f7H, 0e1H, '?', 0ddH, 0a8H, '?'
	DB	00H						; `string'
CONST	ENDS
;	COMDAT ??_C@_05EGENBHF@?$PM?$NO?$OA?A?$DP@
CONST	SEGMENT
??_C@_05EGENBHF@?$PM?$NO?$OA?A?$DP@ DB 0fcH, 0deH, 0e0H, 0c1H, '?', 00H ; `string'
CONST	ENDS
;	COMDAT ??_C@_08JLPLGDIB@?$NM?E?w?W?Z?$KK?y?$KB@
CONST	SEGMENT
??_C@_08JLPLGDIB@?$NM?E?w?W?Z?$KK?y?$KB@ DB 0dcH, 0c5H, 0f7H, 0d7H, 0daH, 0aaH
	DB	0f9H, 0a1H, 00H				; `string'
CONST	ENDS
;	COMDAT ??_C@_05MHFFLKOE@?$DP?c?s?$NN?$KM@
CONST	SEGMENT
??_C@_05MHFFLKOE@?$DP?c?s?$NN?$KM@ DB '?', 0e3H, 0f3H, 0ddH, 0acH, 00H ; `string'
CONST	ENDS
;	COMDAT ??_C@_04BEMIHOKC@?Z?$LB?r?$LB@
CONST	SEGMENT
??_C@_04BEMIHOKC@?Z?$LB?r?$LB@ DB 0daH, 0b1H, 0f2H, 0b1H, 00H ; `string'
CONST	ENDS
;	COMDAT ??_C@_02HHFHKOHM@?$DP?$DP@
CONST	SEGMENT
??_C@_02HHFHKOHM@?$DP?$DP@ DB '??', 00H			; `string'
CONST	ENDS
;	COMDAT ??_C@_08FFKKHGPD@?k?$PN?$NM?W?1?$DP?K?$KD@
CONST	SEGMENT
??_C@_08FFKKHGPD@?k?$PN?$NM?W?1?$DP?K?$KD@ DB 0ebH, 0fdH, 0dcH, 0d7H, '/?'
	DB	0cbH, 0a3H, 00H				; `string'
CONST	ENDS
;	COMDAT ??_C@_04CECPHKEL@?b?j?x?$KL@
CONST	SEGMENT
??_C@_04CECPHKEL@?b?j?x?$KL@ DB 0e2H, 0eaH, 0f8H, 0abH, 00H ; `string'
CONST	ENDS
;	COMDAT ??_C@_02NNCIDFDN@?O?a@
CONST	SEGMENT
??_C@_02NNCIDFDN@?O?a@ DB 0cfH, 0e1H, 00H		; `string'
CONST	ENDS
;	COMDAT ??_C@_01OGPIMHDM@?$DP@
CONST	SEGMENT
??_C@_01OGPIMHDM@?$DP@ DB '?', 00H			; `string'
CONST	ENDS
;	COMDAT ??_C@_04HECMHKAJ@?M?b?$NM?j@
CONST	SEGMENT
??_C@_04HECMHKAJ@?M?b?$NM?j@ DB 0cdH, 0e2H, 0dcH, 0eaH, 00H ; `string'
CONST	ENDS
;	COMDAT ??_C@_02DEECJACC@?p?P@
CONST	SEGMENT
??_C@_02DEECJACC@?p?P@ DB 0f0H, 0d0H, 00H		; `string'
CONST	ENDS
;	COMDAT ??_C@_0BF@EOCHGIJI@?$LO?F?$MA?L?E?$NL?5?$MA?Z?$LF?$LP?5?$LA?c?D?$KB?$LB?b?$KB?$KD@
CONST	SEGMENT
??_C@_0BF@EOCHGIJI@?$LO?F?$MA?L?E?$NL?5?$MA?Z?$LF?$LP?5?$LA?c?D?$KB?$LB?b?$KB?$KD@ DB 0beH
	DB	0c6H, 0c0H, 0ccH, 0c5H, 0dbH, ' ', 0c0H, 0daH, 0b5H, 0bfH, ' ', 0b0H
	DB	0e3H, 0c4H, 0a1H, 0b1H, 0e2H, 0a1H, 0a3H, 00H ; `string'
CONST	ENDS
;	COMDAT ??_C@_0N@DBNACIMP@?5?5?5?5?5?5?5?$CF?922s@
CONST	SEGMENT
??_C@_0N@DBNACIMP@?5?5?5?5?5?5?5?$CF?922s@ DB '       %-22s', 00H ; `string'
CONST	ENDS
;	COMDAT ??_C@_05JNOMDMDH@?$CF3d?$CF?$CF@
CONST	SEGMENT
??_C@_05JNOMDMDH@?$CF3d?$CF?$CF@ DB '%3d%%', 00H	; `string'
CONST	ENDS
;	COMDAT ??_C@_04HGGBINEM@?$CFs?$CFd@
CONST	SEGMENT
??_C@_04HGGBINEM@?$CFs?$CFd@ DB '%s%d', 00H		; `string'
CONST	ENDS
;	COMDAT ??_C@_02EOIDJNGE@?5?$CL@
CONST	SEGMENT
??_C@_02EOIDJNGE@?5?$CL@ DB ' +', 00H			; `string'
CONST	ENDS
;	COMDAT ??_C@_04GFJLOHHD@?$CF?43f@
CONST	SEGMENT
??_C@_04GFJLOHHD@?$CF?43f@ DB '%.3f', 00H		; `string'
CONST	ENDS
;	COMDAT ??_C@_09NPOEHNBK@?$CF4d?5?1?5?$CF4d@
CONST	SEGMENT
??_C@_09NPOEHNBK@?$CF4d?5?1?5?$CF4d@ DB '%4d / %4d', 00H ; `string'
CONST	ENDS
;	COMDAT ??_C@_0BA@MEIFLDBG@?$CFd?1?$CFd?5?5?$CI?$CF?42f?$CF?$CF?$CJ@
CONST	SEGMENT
??_C@_0BA@MEIFLDBG@?$CFd?1?$CFd?5?5?$CI?$CF?42f?$CF?$CF?$CJ@ DB '%d/%d  ('
	DB	'%.2f%%)', 00H				; `string'
CONST	ENDS
;	COMDAT ??_C@_03GOOLIKIF@?$CF3d@
CONST	SEGMENT
??_C@_03GOOLIKIF@?$CF3d@ DB '%3d', 00H			; `string'
CONST	ENDS
;	COMDAT ??_C@_08DOKBNALB@?$CFs?5?$CF?916s@
CONST	SEGMENT
??_C@_08DOKBNALB@?$CFs?5?$CF?916s@ DB '%s %-16s', 00H	; `string'
CONST	ENDS
;	COMDAT ??_C@_06BLADCOKI@?$FLLOCK?$FN@
CONST	SEGMENT
??_C@_06BLADCOKI@?$FLLOCK?$FN@ DB '[LOCK]', 00H		; `string'
CONST	ENDS
;	COMDAT ??_C@_09CFBKFGII@?$CFs?5?C?T?$LP?$LF?$KD?$KB@
CONST	SEGMENT
??_C@_09CFBKFGII@?$CFs?5?C?T?$LP?$LF?$KD?$KB@ DB '%s ', 0c3H, 0d4H, 0bfH, 0b5H
	DB	0a3H, 0a1H, 00H				; `string'
CONST	ENDS
;	COMDAT ??_C@_0BB@OLBLGPHG@?F?d?F?$KO?$LA?$KB?5?$LO?x?$LN?$MA?$LE?O?$LE?Y?4@
CONST	SEGMENT
??_C@_0BB@OLBLGPHG@?F?d?F?$KO?$LA?$KB?5?$LO?x?$LN?$MA?$LE?O?$LE?Y?4@ DB 0c6H
	DB	0e4H, 0c6H, 0aeH, 0b0H, 0a1H, ' ', 0beH, 0f8H, 0bdH, 0c0H, 0b4H
	DB	0cfH, 0b4H, 0d9H, '.', 00H			; `string'
CONST	ENDS
;	COMDAT ??_C@_0BC@PMPFNJLM@?$CF3d?5?5?5?5?5?$CF4d?5?5?5?$CF4d@
CONST	SEGMENT
??_C@_0BC@PMPFNJLM@?$CF3d?5?5?5?5?5?$CF4d?5?5?5?$CF4d@ DB '%3d     %4d   '
	DB	'%4d', 00H					; `string'
CONST	ENDS
;	COMDAT ??_C@_05EMGOANLP@?$CF?916s@
CONST	SEGMENT
??_C@_05EMGOANLP@?$CF?916s@ DB '%-16s', 00H		; `string'
CONST	ENDS
;	COMDAT ??_C@_0BC@ILNBPEIE@?F?d?F?$KO?$LI?$KG?5?$LJ?v?$LI?$LB?$LB?n?$LP?d?$KD?$LP@
CONST	SEGMENT
??_C@_0BC@ILNBPEIE@?F?d?F?$KO?$LI?$KG?5?$LJ?v?$LI?$LB?$LB?n?$LP?d?$KD?$LP@ DB 0c6H
	DB	0e4H, 0c6H, 0aeH, 0b8H, 0a6H, ' ', 0b9H, 0f6H, 0b8H, 0b1H, 0b1H
	DB	0eeH, 0bfH, 0e4H, 0a3H, 0bfH, 00H		; `string'
CONST	ENDS
;	COMDAT ??_C@_06EFALBHEL@R?$HMP?$HM?91@
CONST	SEGMENT
??_C@_06EFALBHEL@R?$HMP?$HM?91@ DB 'R|P|-1', 00H	; `string'
CONST	ENDS
;	COMDAT ??_C@_0BC@GNJPGDIA@?$HLpet?$DN?$CFd?0str?$DN?$FL?$CFs?$FN?$HN@
CONST	SEGMENT
??_C@_0BC@GNJPGDIA@?$HLpet?$DN?$CFd?0str?$DN?$FL?$CFs?$FN?$HN@ DB '{pet=%'
	DB	'd,str=[%s]}', 00H				; `string'
CONST	ENDS
;	COMDAT ??_C@_0CG@KBOLHIJH@?$LL?s?A?$KB?$LB?b?$LE?I?$MA?L?$LP?k?$LN?C?0?5?F?d?F?$KO?$LI?$KG?$LK?$KP?$LA?f?G?R?$LM?v?$LO@
CONST	SEGMENT
??_C@_0CG@KBOLHIJH@?$LL?s?A?$KB?$LB?b?$LE?I?$MA?L?$LP?k?$LN?C?0?5?F?d?F?$KO?$LI?$KG?$LK?$KP?$LA?f?G?R?$LM?v?$LO@ DB 0bbH
	DB	0f3H, 0c1H, 0a1H, 0b1H, 0e2H, 0b4H, 0c9H, 0c0H, 0ccH, 0bfH, 0ebH
	DB	0bdH, 0c3H, ', ', 0c6H, 0e4H, 0c6H, 0aeH, 0b8H, 0a6H, 0baH, 0afH
	DB	0b0H, 0e6H, 0c7H, 0d2H, 0bcH, 0f6H, 0beH, 0f8H, 0beH, 0eeH, 0bfH
	DB	0e4H, '!', 00H				; `string'
CONST	ENDS
;	COMDAT ??_C@_05GGHFNJMD@?$CFs?$CFs?$AA@
CONST	SEGMENT
??_C@_05GGHFNJMD@?$CFs?$CFs?$AA@ DB '%s%s', 00H, 00H	; `string'
CONST	ENDS
;	COMDAT ??_C@_0BB@PPGFHNAN@?$MA?g?$LH?a?G?U?$LM?$LK?5?$LM?$LK?$LA?x?$MA?$LC?$AA@
CONST	SEGMENT
??_C@_0BB@PPGFHNAN@?$MA?g?$LH?a?G?U?$LM?$LK?5?$LM?$LK?$LA?x?$MA?$LC?$AA@ DB 0c0H
	DB	0e7H, 0b7H, 0e1H, 0c7H, 0d5H, 0bcH, 0baH, ' ', 0bcH, 0baH, 0b0H
	DB	0f8H, 0c0H, 0b2H, 00H, 00H			; `string'
CONST	ENDS
;	COMDAT ??_C@_0CJ@JOENNLPN@?$MA?g?$LH?a?5?$LM?S?$LM?$LK?$MA?$LL?5?H?$KO?$MA?N?G?O?$LP?$KJ?$FL?$CFs?$FN?$LI?$KG?5?$LD?t?$MA?O@
CONST	SEGMENT
??_C@_0CJ@JOENNLPN@?$MA?g?$LH?a?5?$LM?S?$LM?$LK?$MA?$LL?5?H?$KO?$MA?N?G?O?$LP?$KJ?$FL?$CFs?$FN?$LI?$KG?5?$LD?t?$MA?O@ DB 0c0H
	DB	0e7H, 0b7H, 0e1H, ' ', 0bcH, 0d3H, 0bcH, 0baH, 0c0H, 0bbH, ' ', 0c8H
	DB	0aeH, 0c0H, 0ceH, 0c7H, 0cfH, 0bfH, 0a9H, '[%s]', 0b8H, 0a6H, ' '
	DB	0b3H, 0f4H, 0c0H, 0cfH, ' ', 0bcH, 0f6H, ' ', 0c0H, 0d6H, 0c0H
	DB	0bdH, 00H, 00H				; `string'
CONST	ENDS
;	COMDAT ??_C@_0CH@BAIOACBP@?$FL?$CFs?$FN?$MA?g?$LH?a?5?$LM?S?$LM?$LK?$MA?$LL?5?H?$KO?$MA?N?G?T?5?5?5?5?5?5?5?5?5@
CONST	SEGMENT
??_C@_0CH@BAIOACBP@?$FL?$CFs?$FN?$MA?g?$LH?a?5?$LM?S?$LM?$LK?$MA?$LL?5?H?$KO?$MA?N?G?T?5?5?5?5?5?5?5?5?5@ DB '['
	DB	'%s]', 0c0H, 0e7H, 0b7H, 0e1H, ' ', 0bcH, 0d3H, 0bcH, 0baH, 0c0H
	DB	0bbH, ' ', 0c8H, 0aeH, 0c0H, 0ceH, 0c7H, 0d4H, '         %d %%'
	DB	' ', 00H, 00H				; `string'
CONST	ENDS
;	COMDAT ??_C@_0BC@HALJJKGM@?$MA?g?$LH?a?5?G?U?$LM?$LK?5?$LM?$LK?$LA?x?$MA?$LC?$AA@
CONST	SEGMENT
??_C@_0BC@HALJJKGM@?$MA?g?$LH?a?5?G?U?$LM?$LK?5?$LM?$LK?$LA?x?$MA?$LC?$AA@ DB 0c0H
	DB	0e7H, 0b7H, 0e1H, ' ', 0c7H, 0d5H, 0bcH, 0baH, ' ', 0bcH, 0baH
	DB	0b0H, 0f8H, 0c0H, 0b2H, 00H, 00H		; `string'
CONST	ENDS
;	COMDAT ??_C@_0EG@CAIJDNGD@?$DP?i?M?$FL?$CFs?$FN?$MA?g?$LH?a?$MA?G?5?$LM?S?$LM?$LK?$MA?$LL?5?$LA?$KI?A?$KE?1?H?$KO?$MA?N?G@
CONST	SEGMENT
??_C@_0EG@CAIJDNGD@?$DP?i?M?$FL?$CFs?$FN?$MA?g?$LH?a?$MA?G?5?$LM?S?$LM?$LK?$MA?$LL?5?$LA?$KI?A?$KE?1?H?$KO?$MA?N?G@ DB '?'
	DB	0e9H, 0cdH, '[%s]', 0c0H, 0e7H, 0b7H, 0e1H, 0c0H, 0c7H, ' ', 0bcH
	DB	0d3H, 0bcH, 0baH, 0c0H, 0bbH, ' ', 0b0H, 0a8H, 0c1H, 0a4H, '/', 0c8H
	DB	0aeH, 0c0H, 0ceH, 0c7H, 0cfH, 0bfH, 0a9H, ' ', 0c0H, 0e7H, 0b7H
	DB	0e1H, ' ', 0c7H, 0d5H, 0bcH, 0baH, 0c0H, 0c7H, ' ', 0bcH, 0baH
	DB	0b0H, 0f8H, 0c0H, 0b2H, 0c0H, 0bbH, ' ', 0b3H, 0f4H, 0c0H, 0cfH
	DB	' ', 0bcH, 0f6H, ' ', 0c0H, 0d6H, 0c0H, 0bdH, 00H, 00H ; `string'
CONST	ENDS
;	COMDAT ??_C@_0CF@IJGAMOEE@?$FL?$CFs?$FN?$MA?g?$LH?a?5?$LM?S?$LM?$LK?$MA?$LL?5?H?$KO?$MA?N?G?T?5?5?5?5?5?5?5?$CFd@
CONST	SEGMENT
??_C@_0CF@IJGAMOEE@?$FL?$CFs?$FN?$MA?g?$LH?a?5?$LM?S?$LM?$LK?$MA?$LL?5?H?$KO?$MA?N?G?T?5?5?5?5?5?5?5?$CFd@ DB '['
	DB	'%s]', 0c0H, 0e7H, 0b7H, 0e1H, ' ', 0bcH, 0d3H, 0bcH, 0baH, 0c0H
	DB	0bbH, ' ', 0c8H, 0aeH, 0c0H, 0ceH, 0c7H, 0d4H, '       %d %% ', 00H
	DB	00H						; `string'
CONST	ENDS
;	COMDAT ??_C@_07JANMBDEO@?$CF4d?5?$CF4d@
CONST	SEGMENT
??_C@_07JANMBDEO@?$CF4d?5?$CF4d@ DB '%4d %4d', 00H	; `string'
CONST	ENDS
;	COMDAT ??_C@_09COLCMPMP@?$CF4d?5?5?5?$CF4d@
CONST	SEGMENT
??_C@_09COLCMPMP@?$CF4d?5?5?5?$CF4d@ DB '%4d   %4d', 00H ; `string'
CONST	ENDS
;	COMDAT ??_C@_03GLKEJMAA@?$CF4d@
CONST	SEGMENT
??_C@_03GLKEJMAA@?$CF4d@ DB '%4d', 00H			; `string'
CONST	ENDS
;	COMDAT ??_C@_03HIFDAEPP@?$CF?9d@
CONST	SEGMENT
??_C@_03HIFDAEPP@?$CF?9d@ DB '%-d', 00H			; `string'
CONST	ENDS
;	COMDAT ??_C@_02MMCGBDJK@0?$CF@
CONST	SEGMENT
??_C@_02MMCGBDJK@0?$CF@ DB '0%', 00H			; `string'
CONST	ENDS
;	COMDAT ??_C@_01GBGANLPD@0@
CONST	SEGMENT
??_C@_01GBGANLPD@0@ DB '0', 00H				; `string'
CONST	ENDS
;	COMDAT ??_C@_03GNABGMEE@100@
CONST	SEGMENT
??_C@_03GNABGMEE@100@ DB '100', 00H			; `string'
CONST	ENDS
;	COMDAT ??_C@_04EFBICKBP@?$CF?93d@
CONST	SEGMENT
??_C@_04EFBICKBP@?$CF?93d@ DB '%-3d', 00H		; `string'
CONST	ENDS
;	COMDAT ??_C@_04EAFHDMJK@?$CF?94d@
CONST	SEGMENT
??_C@_04EAFHDMJK@?$CF?94d@ DB '%-4d', 00H		; `string'
CONST	ENDS
;	COMDAT ??_C@_0M@ODJBNPN@?$CFd?5?$CI?$CF?42f?$CF?$CF?$CJ@
CONST	SEGMENT
??_C@_0M@ODJBNPN@?$CFd?5?$CI?$CF?42f?$CF?$CF?$CJ@ DB '%d (%.2f%%)', 00H ; `string'
CONST	ENDS
;	COMDAT ??_C@_03LEPPJAKI@MAX@
CONST	SEGMENT
??_C@_03LEPPJAKI@MAX@ DB 'MAX', 00H			; `string'
CONST	ENDS
;	COMDAT ??_C@_07DONLOGLK@?$CFd?5?$CI?$CFd?$CJ@
CONST	SEGMENT
??_C@_07DONLOGLK@?$CFd?5?$CI?$CFd?$CJ@ DB '%d (%d)', 00H ; `string'
CONST	ENDS
;	COMDAT ??_C@_0BC@KGJCGBCP@?5?5?5?5?C?k?5?5?5?5?$LM?R?5?5?5?5?5@
CONST	SEGMENT
??_C@_0BC@KGJCGBCP@?5?5?5?5?C?k?5?5?5?5?$LM?R?5?5?5?5?5@ DB '    ', 0c3H, 0ebH
	DB	'    ', 0bcH, 0d2H, '     ', 00H		; `string'
CONST	ENDS
;	COMDAT ??_C@_0BC@BCIJAKBP@?5?5?5?5?H?$KO?5?5?5?5?$MA?N?5?5?5?5?5@
CONST	SEGMENT
??_C@_0BC@BCIJAKBP@?5?5?5?5?H?$KO?5?5?5?5?$MA?N?5?5?5?5?5@ DB '    ', 0c8H
	DB	0aeH, '    ', 0c0H, 0ceH, '     ', 00H	; `string'
CONST	ENDS
;	COMDAT ??_C@_0BF@NJPDCGDE@?5?5?5?5?5?5?5?A?$LO?5?5?$LH?a?5?5?5?5?5?5?5@
CONST	SEGMENT
??_C@_0BF@NJPDCGDE@?5?5?5?5?5?5?5?A?$LO?5?5?$LH?a?5?5?5?5?5?5?5@ DB '    '
	DB	'   ', 0c1H, 0beH, '  ', 0b7H, 0e1H, '       ', 00H ; `string'
CONST	ENDS
;	COMDAT ??_C@_0BG@KDDPLIEA@?5?$KB?$NP?5?D?$LP?5?$LM?$KN?5?$LM?$LD?5?A?$KE?5?$KB?$NP?5?5?5@
CONST	SEGMENT
??_C@_0BG@KDDPLIEA@?5?$KB?$NP?5?D?$LP?5?$LM?$KN?5?$LM?$LD?5?A?$KE?5?$KB?$NP?5?5?5@ DB ' '
	DB	0a1H, 0dfH, ' ', 0c4H, 0bfH, ' ', 0bcH, 0adH, ' ', 0bcH, 0b3H, ' '
	DB	0c1H, 0a4H, ' ', 0a1H, 0dfH, '   ', 00H	; `string'
CONST	ENDS
;	COMDAT ??_C@_08LMHKBLHA@?$LL?$MA?$LE?Y?$LB?M?$KB?$KD@
CONST	SEGMENT
??_C@_08LMHKBLHA@?$LL?$MA?$LE?Y?$LB?M?$KB?$KD@ DB 0bbH, 0c0H, 0b4H, 0d9H, 0b1H
	DB	0cdH, 0a1H, 0a3H, 00H			; `string'
CONST	ENDS
;	COMDAT ??_C@_08LPIKKIN@?$LA?x?$LH?f?$LO?K?$KB?$KD@
CONST	SEGMENT
??_C@_08LPIKKIN@?$LA?x?$LH?f?$LO?K?$KB?$KD@ DB 0b0H, 0f8H, 0b7H, 0e6H, 0beH
	DB	0cbH, 0a1H, 0a3H, 00H			; `string'
CONST	ENDS
;	COMDAT ??_C@_0BG@GDIAHGPK@?5?5?5?5?5?5?5?$LA?$KI?5?5?5?5?$LM?R?5?5?5?5?5?5@
CONST	SEGMENT
??_C@_0BG@GDIAHGPK@?5?5?5?5?5?5?5?$LA?$KI?5?5?5?5?$LM?R?5?5?5?5?5?5@ DB ' '
	DB	'      ', 0b0H, 0a8H, '    ', 0bcH, 0d2H, '      ', 00H ; `string'
CONST	ENDS
;	COMDAT ??_C@_0BG@IIDNKJBP@?5?5?5?5?5?5?5?A?u?5?5?5?5?$LA?$KB?5?5?5?5?5?5@
CONST	SEGMENT
??_C@_0BG@IIDNKJBP@?5?5?5?5?5?5?5?A?u?5?5?5?5?$LA?$KB?5?5?5?5?5?5@ DB '  '
	DB	'     ', 0c1H, 0f5H, '    ', 0b0H, 0a1H, '      ', 00H ; `string'
CONST	ENDS
;	COMDAT ??_C@_0BK@FEMCCNKI@?5?5?5?$KB?$NP?5?5?E?$NL?F?w?A?$LG?$MA?$PN?5?5?$CF?$CL3d?5?5?$KB?$NP@
CONST	SEGMENT
??_C@_0BK@FEMCCNKI@?5?5?5?$KB?$NP?5?5?E?$NL?F?w?A?$LG?$MA?$PN?5?5?$CF?$CL3d?5?5?$KB?$NP@ DB ' '
	DB	'  ', 0a1H, 0dfH, '  ', 0c5H, 0dbH, 0c6H, 0f7H, 0c1H, 0b6H, 0c0H
	DB	0fdH, '  %+3d  ', 0a1H, 0dfH, 00H		; `string'
CONST	ENDS
;	COMDAT ??_C@_0BL@BJPCPCNM@?$KB?$NP?5?5?5?$KB?$NP?5?5?E?$NL?F?w?A?$LG?$MA?$PN?5?50?5?5?$KB?$NP?$KB?$NP@
CONST	SEGMENT
??_C@_0BL@BJPCPCNM@?$KB?$NP?5?5?5?$KB?$NP?5?5?E?$NL?F?w?A?$LG?$MA?$PN?5?50?5?5?$KB?$NP?$KB?$NP@ DB 0a1H
	DB	0dfH, '   ', 0a1H, 0dfH, '  ', 0c5H, 0dbH, 0c6H, 0f7H, 0c1H, 0b6H
	DB	0c0H, 0fdH, '  0  ', 0a1H, 0dfH, 0a1H, 0dfH, 00H ; `string'
CONST	ENDS
;	COMDAT ??_C@_0BI@MMNCCENM@?5?5?5?$KB?$NP?5?5?$LJ?h?$LA?f?$MA?$LN?$LO?G?5?$CF3d?5?5?$KB?$NP@
CONST	SEGMENT
??_C@_0BI@MMNCCENM@?5?5?5?$KB?$NP?5?5?$LJ?h?$LA?f?$MA?$LN?$LO?G?5?$CF3d?5?5?$KB?$NP@ DB ' '
	DB	'  ', 0a1H, 0dfH, '  ', 0b9H, 0e8H, 0b0H, 0e6H, 0c0H, 0bdH, 0beH
	DB	0c7H, ' %3d  ', 0a1H, 0dfH, 00H		; `string'
CONST	ENDS
;	COMDAT ??_C@_0BJ@GJAFKJDC@?5?5?5?5?5?5?$LF?$LJ?5?$LO?F?5?$LA?$KB?5?$LB?b?5?5?5?5?5?5?5@
CONST	SEGMENT
??_C@_0BJ@GJAFKJDC@?5?5?5?5?5?5?$LF?$LJ?5?$LO?F?5?$LA?$KB?5?$LB?b?5?5?5?5?5?5?5@ DB ' '
	DB	'     ', 0b5H, 0b9H, ' ', 0beH, 0c6H, ' ', 0b0H, 0a1H, ' ', 0b1H
	DB	0e2H, '       ', 00H				; `string'
CONST	ENDS
;	COMDAT ??_C@_0BI@FONPGALA@?5?5?5?5?5?5?5?$LA?$KI?5?5?5?5?5?$LM?R?5?5?5?5?5?5?5@
CONST	SEGMENT
??_C@_0BI@FONPGALA@?5?5?5?5?5?5?5?$LA?$KI?5?5?5?5?5?$LM?R?5?5?5?5?5?5?5@ DB ' '
	DB	'      ', 0b0H, 0a8H, '     ', 0bcH, 0d2H, '       ', 00H ; `string'
CONST	ENDS
;	COMDAT ??_C@_0BI@KPMMPACD@?5?5?5?5?5?5?5?A?u?5?5?5?5?5?$LA?$KB?5?5?5?5?5?5?5@
CONST	SEGMENT
??_C@_0BI@KPMMPACD@?5?5?5?5?5?5?5?A?u?5?5?5?5?5?$LA?$KB?5?5?5?5?5?5?5@ DB ' '
	DB	'      ', 0c1H, 0f5H, '     ', 0b0H, 0a1H, '       ', 00H ; `string'
CONST	ENDS
;	COMDAT ??_C@_0BL@OHLFALHA@?5?5?$KB?$NP?5?5?G?v?5?$MA?g?5?$MA?$LN?5?$LH?$KO?$CF3d?5?5?$KB?$NP?5?5@
CONST	SEGMENT
??_C@_0BL@OHLFALHA@?5?5?$KB?$NP?5?5?G?v?5?$MA?g?5?$MA?$LN?5?$LH?$KO?$CF3d?5?5?$KB?$NP?5?5@ DB ' '
	DB	' ', 0a1H, 0dfH, '  ', 0c7H, 0f6H, ' ', 0c0H, 0e7H, ' ', 0c0H, 0bdH
	DB	' ', 0b7H, 0aeH, '%3d  ', 0a1H, 0dfH, '  ', 00H ; `string'
CONST	ENDS
;	COMDAT ??_C@_0BI@DIAFOMFL@?5?5?5?5?5?5?$LF?$LJ?5?$LO?F?5?$LA?$KB?5?$LB?b?5?5?5?5?5?5@
CONST	SEGMENT
??_C@_0BI@DIAFOMFL@?5?5?5?5?5?5?$LF?$LJ?5?$LO?F?5?$LA?$KB?5?$LB?b?5?5?5?5?5?5@ DB ' '
	DB	'     ', 0b5H, 0b9H, ' ', 0beH, 0c6H, ' ', 0b0H, 0a1H, ' ', 0b1H
	DB	0e2H, '      ', 00H				; `string'
CONST	ENDS
;	COMDAT ??_C@_0BH@MIIPLPNG@?5?5?5?5?5?5?5?$LA?$KI?5?5?5?5?$LM?R?5?5?5?5?5?5?5@
CONST	SEGMENT
??_C@_0BH@MIIPLPNG@?5?5?5?5?5?5?5?$LA?$KI?5?5?5?5?$LM?R?5?5?5?5?5?5?5@ DB ' '
	DB	'      ', 0b0H, 0a8H, '    ', 0bcH, 0d2H, '       ', 00H ; `string'
CONST	ENDS
;	COMDAT ??_C@_0BH@BIAEBEPO@?5?5?5?5?5?5?5?A?u?5?5?5?5?$LA?$KB?5?5?5?5?5?5?5@
CONST	SEGMENT
??_C@_0BH@BIAEBEPO@?5?5?5?5?5?5?5?A?u?5?5?5?5?$LA?$KB?5?5?5?5?5?5?5@ DB ' '
	DB	'      ', 0c1H, 0f5H, '    ', 0b0H, 0a1H, '       ', 00H ; `string'
CONST	ENDS
;	COMDAT ??_C@_0BL@KBNPCBGD@?5?5?5?5?5?$KB?$NP?5?C?$KE?5?F?C?5?$LJ?$PM?5?$MA?$KH?5?$CF3d?5?$KB?$NP@
CONST	SEGMENT
??_C@_0BL@KBNPCBGD@?5?5?5?5?5?$KB?$NP?5?C?$KE?5?F?C?5?$LJ?$PM?5?$MA?$KH?5?$CF3d?5?$KB?$NP@ DB ' '
	DB	'    ', 0a1H, 0dfH, ' ', 0c3H, 0a4H, ' ', 0c6H, 0c3H, ' ', 0b9H
	DB	0fcH, ' ', 0c0H, 0a7H, ' %3d ', 0a1H, 0dfH, 00H ; `string'
CONST	ENDS
;	COMDAT ??_C@_0BI@FHOMOHBA@?5?5?5?5?5?5?5?5?$LJ?$KO?$MA?Z?5?$LM?$LD?A?$KE?5?5?5?5?5?5@
CONST	SEGMENT
??_C@_0BI@FHOMOHBA@?5?5?5?5?5?5?5?5?$LJ?$KO?$MA?Z?5?$LM?$LD?A?$KE?5?5?5?5?5?5@ DB ' '
	DB	'       ', 0b9H, 0aeH, 0c0H, 0daH, ' ', 0bcH, 0b3H, 0c1H, 0a4H
	DB	'      ', 00H				; `string'
CONST	ENDS
;	COMDAT ??_C@_0BH@BHEDFJKF@?5?5?5?5?5?$LL?v?$LL?s?5?$LK?$KP?$LA?f?$CI?$CF?92d?$CJ?5?5@
CONST	SEGMENT
??_C@_0BH@BHEDFJKF@?5?5?5?5?5?$LL?v?$LL?s?5?$LK?$KP?$LA?f?$CI?$CF?92d?$CJ?5?5@ DB ' '
	DB	'    ', 0bbH, 0f6H, 0bbH, 0f3H, ' ', 0baH, 0afH, 0b0H, 0e6H, '('
	DB	'%-2d)  ', 00H				; `string'
CONST	ENDS
;	COMDAT ??_C@_0BH@LLOMOPMG@?5?5?5?5?5?5?5?5?$LA?$KI?5?5?5?5?$LM?R?5?5?5?5?5?5@
CONST	SEGMENT
??_C@_0BH@LLOMOPMG@?5?5?5?5?5?5?5?5?$LA?$KI?5?5?5?5?$LM?R?5?5?5?5?5?5@ DB ' '
	DB	'       ', 0b0H, 0a8H, '    ', 0bcH, 0d2H, '      ', 00H ; `string'
CONST	ENDS
;	COMDAT ??_C@_0BH@FAFBDACD@?5?5?5?5?5?5?5?5?A?u?5?5?5?5?$LA?$KB?5?5?5?5?5?5@
CONST	SEGMENT
??_C@_0BH@FAFBDACD@?5?5?5?5?5?5?5?5?A?u?5?5?5?5?$LA?$KB?5?5?5?5?5?5@ DB ' '
	DB	'       ', 0c1H, 0f5H, '    ', 0b0H, 0a1H, '      ', 00H ; `string'
CONST	ENDS
;	COMDAT ??_C@_0BM@ENKFHEAF@?5?5?5?5?5?$KB?$NP?5?C?$KE?F?C?5?G?$KF?$LN?C?5?$CF3d?5?A?Y?5?$KB?$NP@
CONST	SEGMENT
??_C@_0BM@ENKFHEAF@?5?5?5?5?5?$KB?$NP?5?C?$KE?F?C?5?G?$KF?$LN?C?5?$CF3d?5?A?Y?5?$KB?$NP@ DB ' '
	DB	'    ', 0a1H, 0dfH, ' ', 0c3H, 0a4H, 0c6H, 0c3H, ' ', 0c7H, 0a5H
	DB	0bdH, 0c3H, ' %3d ', 0c1H, 0d9H, ' ', 0a1H, 0dfH, 00H ; `string'
CONST	ENDS
;	COMDAT ??_C@_0BD@BOIANLGK@?$KB?$KB?$KB?$KB?5?C?k?5?5?5?5?5?$LM?R?$KB?$KB?$KB?$KB@
CONST	SEGMENT
??_C@_0BD@BOIANLGK@?$KB?$KB?$KB?$KB?5?C?k?5?5?5?5?5?$LM?R?$KB?$KB?$KB?$KB@ DB 0a1H
	DB	0a1H, 0a1H, 0a1H, ' ', 0c3H, 0ebH, '     ', 0bcH, 0d2H, 0a1H, 0a1H
	DB	0a1H, 0a1H, 00H				; `string'
CONST	ENDS
;	COMDAT ??_C@_0BD@KOMGLKIA@?$KB?$KB?$KB?$KB?5?H?$KO?5?5?5?5?5?$MA?N?$KB?$KB?$KB?$KB@
CONST	SEGMENT
??_C@_0BD@KOMGLKIA@?$KB?$KB?$KB?$KB?5?H?$KO?5?5?5?5?5?$MA?N?$KB?$KB?$KB?$KB@ DB 0a1H
	DB	0a1H, 0a1H, 0a1H, ' ', 0c8H, 0aeH, '     ', 0c0H, 0ceH, 0a1H, 0a1H
	DB	0a1H, 0a1H, 00H				; `string'
CONST	ENDS
;	COMDAT ??_C@_0N@DEIGFB@?$KB?$KB?$LE?$NN?$KB?$KB?$KB?$KB?$LB?b?$KB?$KB@
CONST	SEGMENT
??_C@_0N@DEIGFB@?$KB?$KB?$LE?$NN?$KB?$KB?$KB?$KB?$LB?b?$KB?$KB@ DB 0a1H, 0a1H
	DB	0b4H, 0ddH, 0a1H, 0a1H, 0a1H, 0a1H, 0b1H, 0e2H, 0a1H, 0a1H, 00H ; `string'
CONST	ENDS
;	COMDAT ??_C@_0N@KCFDOFBO@?5?5?$MA?Z?$LF?$LP?D?Q?$LB?b?5?5@
CONST	SEGMENT
??_C@_0N@KCFDOFBO@?5?5?$MA?Z?$LF?$LP?D?Q?$LB?b?5?5@ DB '  ', 0c0H, 0daH, 0b5H
	DB	0bfH, 0c4H, 0d1H, 0b1H, 0e2H, '  ', 00H	; `string'
CONST	ENDS
;	COMDAT ??_C@_0N@HKIKJEIK@?5?5?$MA?Z?$LF?$LP?$LC?t?$LB?b?5?5@
CONST	SEGMENT
??_C@_0N@HKIKJEIK@?5?5?$MA?Z?$LF?$LP?$LC?t?$LB?b?5?5@ DB '  ', 0c0H, 0daH
	DB	0b5H, 0bfH, 0b2H, 0f4H, 0b1H, 0e2H, '  ', 00H ; `string'
CONST	ENDS
;	COMDAT ??_C@_0N@LEFBJPHL@?5?5?$MA?$LN?$LO?G?$LC?t?$LB?b?5?5@
CONST	SEGMENT
??_C@_0N@LEFBJPHL@?5?5?$MA?$LN?$LO?G?$LC?t?$LB?b?5?5@ DB '  ', 0c0H, 0bdH
	DB	0beH, 0c7H, 0b2H, 0f4H, 0b1H, 0e2H, '  ', 00H ; `string'
CONST	ENDS
;	COMDAT ??_C@_0N@GMIIOOOP@?5?5?$MA?$LN?$LO?G?D?Q?$LB?b?5?5@
CONST	SEGMENT
??_C@_0N@GMIIOOOP@?5?5?$MA?$LN?$LO?G?D?Q?$LB?b?5?5@ DB '  ', 0c0H, 0bdH, 0beH
	DB	0c7H, 0c4H, 0d1H, 0b1H, 0e2H, '  ', 00H	; `string'
CONST	ENDS
;	COMDAT ??_C@_0N@HLPCCAFM@?5?5?5?5?F?j?C?$KC?$LA?m?5?5@
CONST	SEGMENT
??_C@_0N@HLPCCAFM@?5?5?5?5?F?j?C?$KC?$LA?m?5?5@ DB '    ', 0c6H, 0eaH, 0c3H
	DB	0a2H, 0b0H, 0edH, '  ', 00H			; `string'
CONST	ENDS
;	COMDAT ??_C@_0N@LBIEPHK@?5?5?5?5?E?$NL?C?$KC?$LA?m?5?5@
CONST	SEGMENT
??_C@_0N@LBIEPHK@?5?5?5?5?E?$NL?C?$KC?$LA?m?5?5@ DB '    ', 0c5H, 0dbH, 0c3H
	DB	0a2H, 0b0H, 0edH, '  ', 00H			; `string'
CONST	ENDS
;	COMDAT ??_C@_0BB@BBDDKJIA@?5?5?5?5?$KD?A?$KD?I?$LM?$LD?A?$KE?5?5?5?5@
CONST	SEGMENT
??_C@_0BB@BBDDKJIA@?5?5?5?5?$KD?A?$KD?I?$LM?$LD?A?$KE?5?5?5?5@ DB '    ', 0a3H
	DB	0c1H, 0a3H, 0c9H, 0bcH, 0b3H, 0c1H, 0a4H, '    ', 00H ; `string'
CONST	ENDS
;	COMDAT ??_C@_0BB@IBKCAFGG@?5?5?5?5?H?$LP?$LA?z?$LM?$LD?A?$KE?5?5?5?5@
CONST	SEGMENT
??_C@_0BB@IBKCAFGG@?5?5?5?5?H?$LP?$LA?z?$LM?$LD?A?$KE?5?5?5?5@ DB '    ', 0c8H
	DB	0bfH, 0b0H, 0faH, 0bcH, 0b3H, 0c1H, 0a4H, '    ', 00H ; `string'
CONST	ENDS
;	COMDAT ??_C@_0BB@EOMINEH@?5?5?5?5?$LJ?h?$LA?f?$MA?$LN?$LO?G?5?5?5?5@
CONST	SEGMENT
??_C@_0BB@EOMINEH@?5?5?5?5?$LJ?h?$LA?f?$MA?$LN?$LO?G?5?5?5?5@ DB '    ', 0b9H
	DB	0e8H, 0b0H, 0e6H, 0c0H, 0bdH, 0beH, 0c7H, '    ', 00H ; `string'
CONST	ENDS
;	COMDAT ??_C@_0BB@JJJAMCHF@?5?5?5?5?C?$KE?F?C?$LM?$LD?A?$KE?5?5?5?5@
CONST	SEGMENT
??_C@_0BB@JJJAMCHF@?5?5?5?5?C?$KE?F?C?$LM?$LD?A?$KE?5?5?5?5@ DB '    ', 0c3H
	DB	0a4H, 0c6H, 0c3H, 0bcH, 0b3H, 0c1H, 0a4H, '    ', 00H ; `string'
CONST	ENDS
;	COMDAT ??_C@_0BB@KCHLCCBP@?5?5?5?5?$LH?N?$LB?W?$LO?F?$LP?t?5?5?5?5@
CONST	SEGMENT
??_C@_0BB@KCHLCCBP@?5?5?5?5?$LH?N?$LB?W?$LO?F?$LP?t?5?5?5?5@ DB '    ', 0b7H
	DB	0ceH, 0b1H, 0d7H, 0beH, 0c6H, 0bfH, 0f4H, '    ', 00H ; `string'
CONST	ENDS
;	COMDAT ??_C@_0BB@MEGGIBAG@?5?5?5?5?$LI?$LG?$MA?$LL?$LA?$KB?$LB?b?5?5?5?5@
CONST	SEGMENT
??_C@_0BB@MEGGIBAG@?5?5?5?5?$LI?$LG?$MA?$LL?$LA?$KB?$LB?b?5?5?5?5@ DB '  '
	DB	'  ', 0b8H, 0b6H, 0c0H, 0bbH, 0b0H, 0a1H, 0b1H, 0e2H, '    ', 00H ; `string'
CONST	ENDS
;	COMDAT ??_C@_0CB@HCIPIBLA@?$MA?Z?$LF?$LP?$MA?$PM?E?u?5?$LI?p?$LF?e?$LA?$KB?5?A?$LO?$LH?a?5?$LF?G?$LO?z?$LN?$MA?$LE?O?$LE?Y@
CONST	SEGMENT
??_C@_0CB@HCIPIBLA@?$MA?Z?$LF?$LP?$MA?$PM?E?u?5?$LI?p?$LF?e?$LA?$KB?5?A?$LO?$LH?a?5?$LF?G?$LO?z?$LN?$MA?$LE?O?$LE?Y@ DB 0c0H
	DB	0daH, 0b5H, 0bfH, 0c0H, 0fcH, 0c5H, 0f5H, ' ', 0b8H, 0f0H, 0b5H
	DB	0e5H, 0b0H, 0a1H, ' ', 0c1H, 0beH, 0b7H, 0e1H, ' ', 0b5H, 0c7H
	DB	0beH, 0faH, 0bdH, 0c0H, 0b4H, 0cfH, 0b4H, 0d9H, '.', 00H ; `string'
CONST	ENDS
;	COMDAT ??_C@_0CC@LEBCBFKD@?$MA?Z?$LF?$LP?$MA?$PM?E?u?5?$LI?p?$LF?e?$LA?$KB?5?H?$LA?$LM?$LK?H?$KN?5?$LF?G?$LO?z?$LN?$MA?$LE?O@
CONST	SEGMENT
??_C@_0CC@LEBCBFKD@?$MA?Z?$LF?$LP?$MA?$PM?E?u?5?$LI?p?$LF?e?$LA?$KB?5?H?$LA?$LM?$LK?H?$KN?5?$LF?G?$LO?z?$LN?$MA?$LE?O@ DB 0c0H
	DB	0daH, 0b5H, 0bfH, 0c0H, 0fcH, 0c5H, 0f5H, ' ', 0b8H, 0f0H, 0b5H
	DB	0e5H, 0b0H, 0a1H, ' ', 0c8H, 0b0H, 0bcH, 0baH, 0c8H, 0adH, ' ', 0b5H
	DB	0c7H, 0beH, 0faH, 0bdH, 0c0H, 0b4H, 0cfH, 0b4H, 0d9H, 00H ; `string'
CONST	ENDS
;	COMDAT ??_C@_0P@FDCJGPKI@?$LL?s?E?B?G?$KF?$LN?C?$LC?t?$LB?b?$KD?$KB@
CONST	SEGMENT
??_C@_0P@FDCJGPKI@?$LL?s?E?B?G?$KF?$LN?C?$LC?t?$LB?b?$KD?$KB@ DB 0bbH, 0f3H
	DB	0c5H, 0c2H, 0c7H, 0a5H, 0bdH, 0c3H, 0b2H, 0f4H, 0b1H, 0e2H, 0a3H
	DB	0a1H, 00H					; `string'
CONST	ENDS
;	COMDAT ??_C@_0P@BJHPFHFH@?$LL?s?E?B?G?$KF?$LN?C?$LP?$KN?$LB?b?$KD?$KB@
CONST	SEGMENT
??_C@_0P@BJHPFHFH@?$LL?s?E?B?G?$KF?$LN?C?$LP?$KN?$LB?b?$KD?$KB@ DB 0bbH, 0f3H
	DB	0c5H, 0c2H, 0c7H, 0a5H, 0bdH, 0c3H, 0bfH, 0adH, 0b1H, 0e2H, 0a3H
	DB	0a1H, 00H					; `string'
CONST	ENDS
;	COMDAT ??_C@_0P@DNLMMAKH@?$LK?$PM?$LI?$KF?$LA?H?$LB?b?$LC?t?$LB?b?$KD?$KB@
CONST	SEGMENT
??_C@_0P@DNLMMAKH@?$LK?$PM?$LI?$KF?$LA?H?$LB?b?$LC?t?$LB?b?$KD?$KB@ DB 0baH
	DB	0fcH, 0b8H, 0a5H, 0b0H, 0c8H, 0b1H, 0e2H, 0b2H, 0f4H, 0b1H, 0e2H
	DB	0a3H, 0a1H, 00H				; `string'
CONST	ENDS
;	COMDAT ??_C@_0P@OFGFLBDD@?$LK?$PM?$LI?$KF?$LA?H?$LB?b?D?Q?$LB?b?$KD?$KB@
CONST	SEGMENT
??_C@_0P@OFGFLBDD@?$LK?$PM?$LI?$KF?$LA?H?$LB?b?D?Q?$LB?b?$KD?$KB@ DB 0baH
	DB	0fcH, 0b8H, 0a5H, 0b0H, 0c8H, 0b1H, 0e2H, 0c4H, 0d1H, 0b1H, 0e2H
	DB	0a3H, 0a1H, 00H				; `string'
CONST	ENDS
;	COMDAT ??_C@_0BB@LGLPBADP@BGM?$MA?L?5?$LC?$KI?A?$LD?$LO?n?$LP?d?$KD?$KB@
CONST	SEGMENT
??_C@_0BB@LGLPBADP@BGM?$MA?L?5?$LC?$KI?A?$LD?$LO?n?$LP?d?$KD?$KB@ DB 'BGM'
	DB	0c0H, 0ccH, ' ', 0b2H, 0a8H, 0c1H, 0b3H, 0beH, 0eeH, 0bfH, 0e4H
	DB	0a3H, 0a1H, 00H				; `string'
CONST	ENDS
;	COMDAT ??_C@_0BB@KKHECGNN@BGM?$MA?L?5?D?Q?A?$LD?$LO?n?$LP?d?$KD?$KB@
CONST	SEGMENT
??_C@_0BB@KKHECGNN@BGM?$MA?L?5?D?Q?A?$LD?$LO?n?$LP?d?$KD?$KB@ DB 'BGM', 0c0H
	DB	0ccH, ' ', 0c4H, 0d1H, 0c1H, 0b3H, 0beH, 0eeH, 0bfH, 0e4H, 0a3H
	DB	0a1H, 00H					; `string'
CONST	ENDS
;	COMDAT ??_C@_0L@PCOGCFAC@?$LB?b?A?$LI?$LJ?v?F?$LA?$KD?$KB@
CONST	SEGMENT
??_C@_0L@PCOGCFAC@?$LB?b?A?$LI?$LJ?v?F?$LA?$KD?$KB@ DB 0b1H, 0e2H, 0c1H, 0b8H
	DB	0b9H, 0f6H, 0c6H, 0b0H, 0a3H, 0a1H, 00H	; `string'
CONST	ENDS
;	COMDAT ??_C@_0N@MLOJNNJN@?$LE?$NM?$LM?x?H?$KN?$LJ?v?F?$LA?$KD?$KB@
CONST	SEGMENT
??_C@_0N@MLOJNNJN@?$LE?$NM?$LM?x?H?$KN?$LJ?v?F?$LA?$KD?$KB@ DB 0b4H, 0dcH
	DB	0bcH, 0f8H, 0c8H, 0adH, 0b9H, 0f6H, 0c6H, 0b0H, 0a3H, 0a1H, 00H ; `string'
CONST	ENDS
;	COMDAT ??_C@_0CE@JEKFMNHA@?$LL?s?A?$KB?$MA?L?$LP?k?$LN?C?0?5?$LO?F?$MA?L?E?$NL?$LL?g?$LP?k?$MA?$LL?G?R?$LM?v?$LO?x?$LO@
CONST	SEGMENT
??_C@_0CE@JEKFMNHA@?$LL?s?A?$KB?$MA?L?$LP?k?$LN?C?0?5?$LO?F?$MA?L?E?$NL?$LL?g?$LP?k?$MA?$LL?G?R?$LM?v?$LO?x?$LO@ DB 0bbH
	DB	0f3H, 0c1H, 0a1H, 0c0H, 0ccH, 0bfH, 0ebH, 0bdH, 0c3H, ', ', 0beH
	DB	0c6H, 0c0H, 0ccH, 0c5H, 0dbH, 0bbH, 0e7H, 0bfH, 0ebH, 0c0H, 0bbH
	DB	0c7H, 0d2H, 0bcH, 0f6H, 0beH, 0f8H, 0beH, 0eeH, 0bfH, 0e4H, '!'
	DB	00H						; `string'
CONST	ENDS
;	COMDAT ?statusWndFontNoExtNowCur@?DEM@??MenuProc@@YAXXZ@4HA
_DATA	SEGMENT
?statusWndFontNoExtNowCur@?DEM@??MenuProc@@YAXXZ@4HA DD 02H ; `MenuProc'::`844'::statusWndFontNoExtNowCur
_DATA	ENDS
;	COMDAT ??_C@_04JHHBNKBI@?A?$LO?$LH?a@
CONST	SEGMENT
??_C@_04JHHBNKBI@?A?$LO?$LH?a@ DB 0c1H, 0beH, 0b7H, 0e1H, 00H ; `string'
CONST	ENDS
;	COMDAT ??_C@_04CJANLAJP@?D?Q?$LE?Y@
CONST	SEGMENT
??_C@_04CJANLAJP@?D?Q?$LE?Y@ DB 0c4H, 0d1H, 0b4H, 0d9H, 00H ; `string'
CONST	ENDS
;	COMDAT ??_C@_0CM@PNEJOHOF@?A?$KC?$LM?S?$MA?L?$LC?w?$LB?d?5?D?$LD?$LI?$KP?E?M?5?$MA?g?A?$KC?$LM?S?5?$LN?C?5?D?$LD?$LI@
CONST	SEGMENT
??_C@_0CM@PNEJOHOF@?A?$KC?$LM?S?$MA?L?$LC?w?$LB?d?5?D?$LD?$LI?$KP?E?M?5?$MA?g?A?$KC?$LM?S?5?$LN?C?5?D?$LD?$LI@ DB 0c1H
	DB	0a2H, 0bcH, 0d3H, 0c0H, 0ccH, 0b2H, 0f7H, 0b1H, 0e4H, ' ', 0c4H
	DB	0b3H, 0b8H, 0afH, 0c5H, 0cdH, ' ', 0c0H, 0e7H, 0c1H, 0a2H, 0bcH
	DB	0d3H, ' ', 0bdH, 0c3H, ' ', 0c4H, 0b3H, 0b8H, 0afH, 0c5H, 0cdH
	DB	0c0H, 0c7H, ' ', 0b9H, 0e6H, 0c7H, 0e2H, 0a1H, 0a3H, 00H ; `string'
CONST	ENDS
;	COMDAT ??_C@_0DC@OHNNJONP@?$MA?Z?$LF?$LP?5?$LP?$NM?D?$KH?$MA?$LK?5?F?D?F?$LM?$LP?x?5?$LI?p?$LF?e?$LP?$KB?$LM?$KN?$LI?$LI?5?H@
CONST	SEGMENT
??_C@_0DC@OHNNJONP@?$MA?Z?$LF?$LP?5?$LP?$NM?D?$KH?$MA?$LK?5?F?D?F?$LM?$LP?x?5?$LI?p?$LF?e?$LP?$KB?$LM?$KN?$LI?$LI?5?H@ DB 0c0H
	DB	0daH, 0b5H, 0bfH, ' ', 0bfH, 0dcH, 0c4H, 0a7H, 0c0H, 0baH, ' ', 0c6H
	DB	0c4H, 0c6H, 0bcH, 0bfH, 0f8H, ' ', 0b8H, 0f0H, 0b5H, 0e5H, 0bfH
	DB	0a1H, 0bcH, 0adH, 0b8H, 0b8H, ' ', 0c8H, 0b0H, 0bcH, 0baH, 0c8H
	DB	0adH, ' ', 0c7H, 0d2H, ' ', 0bcH, 0f6H, ' ', 0c0H, 0d6H, 0c0H, 0bdH
	DB	0a3H, 0a1H, 00H				; `string'
CONST	ENDS
;	COMDAT ??_C@_0CE@ODNPGMLF@?F?D?F?$LM?$LP?x?$LI?$LI?5?$MA?L?5?$LB?b?$LE?I?$MA?$LL?5?$LM?$LD?A?$KE?G?R?5?$LM?v?5?$MA?V@
CONST	SEGMENT
??_C@_0CE@ODNPGMLF@?F?D?F?$LM?$LP?x?$LI?$LI?5?$MA?L?5?$LB?b?$LE?I?$MA?$LL?5?$LM?$LD?A?$KE?G?R?5?$LM?v?5?$MA?V@ DB 0c6H
	DB	0c4H, 0c6H, 0bcH, 0bfH, 0f8H, 0b8H, 0b8H, ' ', 0c0H, 0ccH, ' ', 0b1H
	DB	0e2H, 0b4H, 0c9H, 0c0H, 0bbH, ' ', 0bcH, 0b3H, 0c1H, 0a4H, 0c7H
	DB	0d2H, ' ', 0bcH, 0f6H, ' ', 0c0H, 0d6H, 0c0H, 0bdH, 0a1H, 0a3H
	DB	00H						; `string'
CONST	ENDS
;	COMDAT ??_C@_0DF@NNHIIENC@?$MA?$PL?5?C?b?G?v?5?$LI?p?$LF?e?$LE?B?5?F?D?F?$LM?$MA?e?$LA?z?5?$LM?V?$LH?N?5?G?C@
CONST	SEGMENT
??_C@_0DF@NNHIIENC@?$MA?$PL?5?C?b?G?v?5?$LI?p?$LF?e?$LE?B?5?F?D?F?$LM?$MA?e?$LA?z?5?$LM?V?$LH?N?5?G?C@ DB 0c0H
	DB	0fbH, ' ', 0c3H, 0e2H, 0c7H, 0f6H, ' ', 0b8H, 0f0H, 0b5H, 0e5H
	DB	0b4H, 0c2H, ' ', 0c6H, 0c4H, 0c6H, 0bcH, 0c0H, 0e5H, 0b0H, 0faH
	DB	' ', 0bcH, 0d6H, 0b7H, 0ceH, ' ', 0c7H, 0c3H, 0b7H, 0b9H, 0c0H
	DB	0ccH, 0beH, 0eeH, 0b8H, 0b8H, ' ', 0c4H, 0d3H, ' ', 0bcH, 0f6H
	DB	' ', 0c0H, 0d6H, 0c0H, 0bdH, 0a3H, 0a1H, 00H	; `string'
CONST	ENDS
;	COMDAT ??_C@_0DE@CELNCKDE@?F?D?F?$LM?$MA?e?$LA?z?5?$LM?V?$LH?N?5?G?C?$LH?$LJ?$MA?L?$LO?n?$LE?B?5?$MA?L?5?$LB?b?$LE@
CONST	SEGMENT
??_C@_0DE@CELNCKDE@?F?D?F?$LM?$MA?e?$LA?z?5?$LM?V?$LH?N?5?G?C?$LH?$LJ?$MA?L?$LO?n?$LE?B?5?$MA?L?5?$LB?b?$LE@ DB 0c6H
	DB	0c4H, 0c6H, 0bcH, 0c0H, 0e5H, 0b0H, 0faH, ' ', 0bcH, 0d6H, 0b7H
	DB	0ceH, ' ', 0c7H, 0c3H, 0b7H, 0b9H, 0c0H, 0ccH, 0beH, 0eeH, 0b4H
	DB	0c2H, ' ', 0c0H, 0ccH, ' ', 0b1H, 0e2H, 0b4H, 0c9H, 0c0H, 0bbH
	DB	' ', 0bcH, 0b3H, 0c1H, 0a4H, 0c7H, 0d2H, ' ', 0bcH, 0f6H, ' ', 0c0H
	DB	0d6H, 0c0H, 0bdH, 0a1H, 0a3H, 00H		; `string'
CONST	ENDS
;	COMDAT ??_C@_0DK@HOGDKPIF@?$LE?k?5?A?v?$LP?$KK?5?$LG?s?$MA?N?$LA?z?5?$LP?$KK?G?R?$MA?$LL?5?$LI?U?$MA?z?5?$LM?$LB?E?C@
CONST	SEGMENT
??_C@_0DK@HOGDKPIF@?$LE?k?5?A?v?$LP?$KK?5?$LG?s?$MA?N?$LA?z?5?$LP?$KK?G?R?$MA?$LL?5?$LI?U?$MA?z?5?$LM?$LB?E?C@ DB 0b4H
	DB	0ebH, ' ', 0c1H, 0f6H, 0bfH, 0aaH, ' ', 0b6H, 0f3H, 0c0H, 0ceH
	DB	0b0H, 0faH, ' ', 0bfH, 0aaH, 0c7H, 0d2H, 0c0H, 0bbH, ' ', 0b8H
	DB	0d5H, 0c0H, 0faH, ' ', 0bcH, 0b1H, 0c5H, 0c3H, 0c7H, 0cfH, ' ', 0c8H
	DB	0c4H, ' ', 0c1H, 0b6H, 0c0H, 0dbH, 0c7H, 0d2H, ' ', 0bcH, 0f6H
	DB	' ', 0c0H, 0d6H, 0bdH, 0c0H, 0b4H, 0cfH, 0b4H, 0d9H, 0a3H, 0a1H
	DB	00H						; `string'
CONST	ENDS
;	COMDAT ??_C@_0GF@BOMDPEP@?$LH?N?$LB?W?$MA?N?5?H?D?5F9?E?$LA?$LI?$KG?5?$LE?$KN?$LH?$KP?$LM?$KN?5?D?Q?$LA?m?5?$LC?x@
CONST	SEGMENT
??_C@_0GF@BOMDPEP@?$LH?N?$LB?W?$MA?N?5?H?D?5F9?E?$LA?$LI?$KG?5?$LE?$KN?$LH?$KP?$LM?$KN?5?D?Q?$LA?m?5?$LC?x@ DB 0b7H
	DB	0ceH, 0b1H, 0d7H, 0c0H, 0ceH, ' ', 0c8H, 0c4H, ' F9', 0c5H, 0b0H
	DB	0b8H, 0a6H, ' ', 0b4H, 0adH, 0b7H, 0afH, 0bcH, 0adH, ' ', 0c4H
	DB	0d1H, 0b0H, 0edH, ' ', 0b2H, 0f8H, 0bcH, 0f6H, ' ', 0c0H, 0d6H
	DB	0c0H, 0b8H, 0b8H, 0e7H, ', ', 0c6H, 0c4H, 0c6H, 0bcH, 0bfH, 0f8H
	DB	' ', 0b8H, 0f0H, 0b5H, 0e5H, 0b7H, 0ceH, ' ', 0b7H, 0ceH, 0b1H
	DB	0d7H, 0c0H, 0ceH, 0c8H, 0c4H, ' ', 0c5H, 0abH, 0bcH, 0d2H, 0b8H
	DB	0aeH, ' ', 0b4H, 0ebH, 0c8H, 0adH, ' ', 0b1H, 0e2H, 0b4H, 0c9H
	DB	0c0H, 0bbH, ' ', 0b2H, 0f8H, ' ', 0bcH, 0f6H, ' ', 0c0H, 0d6H, 0bdH
	DB	0c0H, 0b4H, 0cfH, 0b4H, 0d9H, 0a1H, 0a3H, 00H ; `string'
CONST	ENDS
;	COMDAT ??_C@_0BF@CKOBPJKJ@?$LH?N?$LB?W?$LP?B?5?D?$LD?$LI?$KP?E?M?5?$LM?$LD?A?$KE?$KB?$KD@
CONST	SEGMENT
??_C@_0BF@CKOBPJKJ@?$LH?N?$LB?W?$LP?B?5?D?$LD?$LI?$KP?E?M?5?$LM?$LD?A?$KE?$KB?$KD@ DB 0b7H
	DB	0ceH, 0b1H, 0d7H, 0bfH, 0c2H, ' ', 0c4H, 0b3H, 0b8H, 0afH, 0c5H
	DB	0cdH, ' ', 0bcH, 0b3H, 0c1H, 0a4H, 0a1H, 0a3H, 00H ; `string'
CONST	ENDS
;	COMDAT ??_C@_0MB@GBACAPFD@?F?$MA?$MA?e?1?F?D?F?$LM?$MA?e?$KD?$LK?$MA?Z?$LF?$LP?$MA?$LI?$LH?N?5?$MA?$PL?$MA?$LL?$LI?$LI?$LD?$KK?$LA@
CONST	SEGMENT
??_C@_0MB@GBACAPFD@?F?$MA?$MA?e?1?F?D?F?$LM?$MA?e?$KD?$LK?$MA?Z?$LF?$LP?$MA?$LI?$LH?N?5?$MA?$PL?$MA?$LL?$LI?$LI?$LD?$KK?$LA@ DB 0c6H
	DB	0c0H, 0c0H, 0e5H, '/', 0c6H, 0c4H, 0c6H, 0bcH, 0c0H, 0e5H, 0a3H
	DB	0baH, 0c0H, 0daH, 0b5H, 0bfH, 0c0H, 0b8H, 0b7H, 0ceH, ' ', 0c0H
	DB	0fbH, 0c0H, 0bbH, 0b8H, 0b8H, 0b3H, 0aaH, 0b0H, 0d4H, 0b2H, 0fbH
	DB	' ', 0bcH, 0f6H, 0c1H, 0a4H, 0c7H, 0d2H, 0bcH, 0f6H, 0c0H, 0d6H
	DB	0c0H, 0bdH, '. ', 0c6H, 0c0H, 0bfH, 0f8H, '/', 0c6H, 0c4H, 0c6H
	DB	0bcH, 0bfH, 0f8H, 0a3H, 0baH, 0bcH, 0b1H, 0c0H, 0fcH, ' ', 0b9H
	DB	0d7H, ' ', 0c0H, 0daH, 0b5H, 0bfH, ' ', 0c6H, 0c0H, ' ', 0b1H, 0b8H
	DB	0bcH, 0baH, 0b0H, 0a1H, 0b4H, 0c9H, ' ', 0bcH, 0d6H, 0b7H, 0ceH
	DB	0a3H, 0baH, 0c0H, 0daH, 0b5H, 0bfH, 0c0H, 0b8H, 0b7H, 0ceH, ' '
	DB	0c0H, 0fbH, 0c0H, 0bbH, ' ', 0b8H, 0b8H, 0b3H, 0aaH, 0b5H, 0b5H
	DB	0b7H, 0cfH, ' ', 0bcH, 0b3H, 0c1H, 0a4H, 0b0H, 0a1H, 0b4H, 0c9H
	DB	' ps', 0a3H, 0baH, 'AI ', 0b8H, 0f0H, 0b5H, 0e5H, 0b4H, 0c2H, ' '
	DB	0c4H, 0b3H, 0b8H, 0afH, 0c5H, 0cdH, 0b8H, 0a6H, ' ', 0b5H, 0e5H
	DB	0b7H, 0d3H, 0c7H, 0cfH, 0b0H, 0edH, ' ', 0b4H, 0d9H, 0bdH, 0c3H
	DB	' ', 0b7H, 0ceH, 0b1H, 0d7H, 0c0H, 0ceH, 0c7H, 0cfH, 0b8H, 0e9H
	DB	' ', 0c0H, 0daH, 0b5H, 0bfH, 0c0H, 0b8H, 0b7H, 0ceH, ' ', 0c4H
	DB	0d1H, 0c1H, 0fdH, 0b4H, 0cfH, 0b4H, 0d9H, 0a1H, 0a3H, 00H ; `string'
CONST	ENDS
;	COMDAT ??_C@_0CJ@GIHIAMIF@?$LG?s?$MA?N?$MA?$LL?5?$LM?$LD?A?$KE?G?O?$LA?m?0?5?$LE?k?5?A?v?$LP?$KK?$MA?$LL?5?$LM?$LD?A?$KE@
CONST	SEGMENT
??_C@_0CJ@GIHIAMIF@?$LG?s?$MA?N?$MA?$LL?5?$LM?$LD?A?$KE?G?O?$LA?m?0?5?$LE?k?5?A?v?$LP?$KK?$MA?$LL?5?$LM?$LD?A?$KE@ DB 0b6H
	DB	0f3H, 0c0H, 0ceH, 0c0H, 0bbH, ' ', 0bcH, 0b3H, 0c1H, 0a4H, 0c7H
	DB	0cfH, 0b0H, 0edH, ', ', 0b4H, 0ebH, ' ', 0c1H, 0f6H, 0bfH, 0aaH
	DB	0c0H, 0bbH, ' ', 0bcH, 0b3H, 0c1H, 0a4H, 0c7H, 0d8H, 0beH, 0dfH
	DB	' ', 0c7H, 0d4H, 0a1H, 0a3H, 00H		; `string'
CONST	ENDS
;	COMDAT ??_C@_0P@LOIJIIEJ@?$LE?k?5?A?v?$LP?$KK?5?$LM?$LD?A?$KE?$KB?$KD@
CONST	SEGMENT
??_C@_0P@LOIJIIEJ@?$LE?k?5?A?v?$LP?$KK?5?$LM?$LD?A?$KE?$KB?$KD@ DB 0b4H, 0ebH
	DB	' ', 0c1H, 0f6H, 0bfH, 0aaH, ' ', 0bcH, 0b3H, 0c1H, 0a4H, 0a1H
	DB	0a3H, 00H					; `string'
CONST	ENDS
;	COMDAT ?chardir@?1??í»?Ôô??Ï¢üÞ?@@YAXXZ@4PAY07DA
_DATA	SEGMENT
?chardir@?1??í»?Ôô??Ï¢üÞ?@@YAXXZ@4PAY07DA DB 0beH, 0c6H, 0b7H, 0a1H, 00H ; `í»?Ôô??Ï¢üÞ?'::`2'::chardir
	ORG $+3
	DB	0c1H, 0c2H, 0c7H, 0cfH, 00H
	ORG $+3
	DB	0c1H, 0c2H, 0c3H, 0f8H, 00H
	ORG $+3
	DB	0c1H, 0c2H, 0bbH, 0f3H, 00H
	ORG $+3
	DB	0c0H, 0a7H, 00H
	ORG $+5
	DB	0bfH, 0ecH, 0bbH, 0f3H, 00H
	ORG $+3
	DB	0bfH, 0ecH, 0c3H, 0f8H, 00H
	ORG $+3
	DB	0bfH, 0ecH, 0c7H, 0cfH, 00H
	ORG $+3
_DATA	ENDS
;	COMDAT ?msg@?1??í»?Ôô??Ï¢üÞ?@@YAXXZ@4PAY07DA
_DATA	SEGMENT
?msg@?1??í»?Ôô??Ï¢üÞ?@@YAXXZ@4PAY07DA DB 0c6H, 0c0H, ' ', 0c0H, 0e5H, 00H ; `í»?Ôô??Ï¢üÞ?'::`2'::msg
	ORG $+2
	DB	0c6H, 0c0H, ' ', 0bfH, 0f8H, 00H
	ORG $+2
	DB	0bcH, 0d6H, ' ', 0b7H, 0ceH, 00H
	ORG $+2
_DATA	ENDS
;	COMDAT ??_C@_03IKGEINEE@?$CFs?5@
CONST	SEGMENT
??_C@_03IKGEINEE@?$CFs?5@ DB '%s ', 00H			; `string'
CONST	ENDS
;	COMDAT ??_C@_08GINKOJP@?$CF?$CKc?$CFs?$CF?$CKc@
CONST	SEGMENT
??_C@_08GINKOJP@?$CF?$CKc?$CFs?$CF?$CKc@ DB '%*c%s%*c', 00H ; `string'
CONST	ENDS
;	COMDAT ??_C@_0BB@OAGCMOJL@data?2album_4?4dat@
CONST	SEGMENT
??_C@_0BB@OAGCMOJL@data?2album_4?4dat@ DB 'data\album_4.dat', 00H ; `string'
CONST	ENDS
;	COMDAT ??_C@_0BB@CLDOBNDO@data?2album_5?4dat@
CONST	SEGMENT
??_C@_0BB@CLDOBNDO@data?2album_5?4dat@ DB 'data\album_5.dat', 00H ; `string'
CONST	ENDS
;	COMDAT ??_C@_0BB@KNKKGPJA@data?2album_6?4dat@
CONST	SEGMENT
??_C@_0BB@KNKKGPJA@data?2album_6?4dat@ DB 'data\album_6.dat', 00H ; `string'
CONST	ENDS
;	COMDAT ??_C@_0BB@GGPGLMDF@data?2album_7?4dat@
CONST	SEGMENT
??_C@_0BB@GGPGLMDF@data?2album_7?4dat@ DB 'data\album_7.dat', 00H ; `string'
CONST	ENDS
;	COMDAT ??_C@_0BB@JHKAAOOA@data?2album_8?4dat@
CONST	SEGMENT
??_C@_0BB@JHKAAOOA@data?2album_8?4dat@ DB 'data\album_8.dat', 00H ; `string'
CONST	ENDS
;	COMDAT ??_C@_0BB@FMPMNNEF@data?2album_9?4dat@
CONST	SEGMENT
??_C@_0BB@FMPMNNEF@data?2album_9?4dat@ DB 'data\album_9.dat', 00H ; `string'
CONST	ENDS
;	COMDAT ??_C@_0BC@DFDCKIPG@data?2album_12?4dat@
CONST	SEGMENT
??_C@_0BC@DFDCKIPG@data?2album_12?4dat@ DB 'data\album_12.dat', 00H ; `string'
CONST	ENDS
;	COMDAT ??_C@_0BC@POGOHLFD@data?2album_13?4dat@
CONST	SEGMENT
??_C@_0BC@POGOHLFD@data?2album_13?4dat@ DB 'data\album_13.dat', 00H ; `string'
CONST	ENDS
;	COMDAT ??_C@_0BC@ODGLELOL@data?2album_14?4dat@
CONST	SEGMENT
??_C@_0BC@ODGLELOL@data?2album_14?4dat@ DB 'data\album_14.dat', 00H ; `string'
CONST	ENDS
;	COMDAT ??_C@_0BC@CIDHJIEO@data?2album_15?4dat@
CONST	SEGMENT
??_C@_0BC@CIDHJIEO@data?2album_15?4dat@ DB 'data\album_15.dat', 00H ; `string'
CONST	ENDS
;	COMDAT ??_C@_0BC@KOKDOKOA@data?2album_16?4dat@
CONST	SEGMENT
??_C@_0BC@KOKDOKOA@data?2album_16?4dat@ DB 'data\album_16.dat', 00H ; `string'
CONST	ENDS
;	COMDAT ??_C@_0BC@GFPPDJEF@data?2album_17?4dat@
CONST	SEGMENT
??_C@_0BC@GFPPDJEF@data?2album_17?4dat@ DB 'data\album_17.dat', 00H ; `string'
CONST	ENDS
;	COMDAT ??_C@_0BC@JEKJILJA@data?2album_18?4dat@
CONST	SEGMENT
??_C@_0BC@JEKJILJA@data?2album_18?4dat@ DB 'data\album_18.dat', 00H ; `string'
CONST	ENDS
;	COMDAT ??_C@_0BC@FPPFFIDF@data?2album_19?4dat@
CONST	SEGMENT
??_C@_0BC@FPPFFIDF@data?2album_19?4dat@ DB 'data\album_19.dat', 00H ; `string'
CONST	ENDS
;	COMDAT ??_C@_0BC@EJBCBDGA@data?2album_20?4dat@
CONST	SEGMENT
??_C@_0BC@EJBCBDGA@data?2album_20?4dat@ DB 'data\album_20.dat', 00H ; `string'
CONST	ENDS
;	COMDAT ??_C@_0BC@ICEOMAMF@data?2album_21?4dat@
CONST	SEGMENT
??_C@_0BC@ICEOMAMF@data?2album_21?4dat@ DB 'data\album_21.dat', 00H ; `string'
CONST	ENDS
;	COMDAT ??_C@_0BC@ENKLCGL@data?2album_22?4dat@
CONST	SEGMENT
??_C@_0BC@ENKLCGL@data?2album_22?4dat@ DB 'data\album_22.dat', 00H ; `string'
CONST	ENDS
;	COMDAT ??_C@_0BC@MPIGGBMO@data?2album_23?4dat@
CONST	SEGMENT
??_C@_0BC@MPIGGBMO@data?2album_23?4dat@ DB 'data\album_23.dat', 00H ; `string'
CONST	ENDS
;	COMDAT ??_C@_0BC@NCIDFBHG@data?2album_24?4dat@
CONST	SEGMENT
??_C@_0BC@NCIDFBHG@data?2album_24?4dat@ DB 'data\album_24.dat', 00H ; `string'
CONST	ENDS
;	COMDAT ??_C@_0BC@BJNPICND@data?2album_25?4dat@
CONST	SEGMENT
??_C@_0BC@BJNPICND@data?2album_25?4dat@ DB 'data\album_25.dat', 00H ; `string'
CONST	ENDS
;	COMDAT ??_C@_0BC@JPELPAHN@data?2album_26?4dat@
CONST	SEGMENT
??_C@_0BC@JPELPAHN@data?2album_26?4dat@ DB 'data\album_26.dat', 00H ; `string'
CONST	ENDS
;	COMDAT ??_C@_0BC@FEBHCDNI@data?2album_27?4dat@
CONST	SEGMENT
??_C@_0BC@FEBHCDNI@data?2album_27?4dat@ DB 'data\album_27.dat', 00H ; `string'
CONST	ENDS
;	COMDAT ??_C@_0BC@KFEBJBAN@data?2album_28?4dat@
CONST	SEGMENT
??_C@_0BC@KFEBJBAN@data?2album_28?4dat@ DB 'data\album_28.dat', 00H ; `string'
CONST	ENDS
;	COMDAT ??_C@_0BC@GOBNECKI@data?2album_29?4dat@
CONST	SEGMENT
??_C@_0BC@GOBNECKI@data?2album_29?4dat@ DB 'data\album_29.dat', 00H ; `string'
CONST	ENDS
;	COMDAT ??_C@_0BC@OPGFBINE@data?2album_30?4dat@
CONST	SEGMENT
??_C@_0BC@OPGFBINE@data?2album_30?4dat@ DB 'data\album_30.dat', 00H ; `string'
CONST	ENDS
;	COMDAT ??_C@_0BC@CEDJMLHB@data?2album_31?4dat@
CONST	SEGMENT
??_C@_0BC@CEDJMLHB@data?2album_31?4dat@ DB 'data\album_31.dat', 00H ; `string'
CONST	ENDS
;	COMDAT ??_C@_0BC@KCKNLJNP@data?2album_32?4dat@
CONST	SEGMENT
??_C@_0BC@KCKNLJNP@data?2album_32?4dat@ DB 'data\album_32.dat', 00H ; `string'
CONST	ENDS
;	COMDAT ??_C@_0BC@GJPBGKHK@data?2album_33?4dat@
CONST	SEGMENT
??_C@_0BC@GJPBGKHK@data?2album_33?4dat@ DB 'data\album_33.dat', 00H ; `string'
CONST	ENDS
;	COMDAT ??_C@_0BC@HEPEFKMC@data?2album_34?4dat@
CONST	SEGMENT
??_C@_0BC@HEPEFKMC@data?2album_34?4dat@ DB 'data\album_34.dat', 00H ; `string'
CONST	ENDS
;	COMDAT ??_C@_0BC@LPKIIJGH@data?2album_35?4dat@
CONST	SEGMENT
??_C@_0BC@LPKIIJGH@data?2album_35?4dat@ DB 'data\album_35.dat', 00H ; `string'
CONST	ENDS
;	COMDAT ??_C@_0BC@DJDMPLMJ@data?2album_36?4dat@
CONST	SEGMENT
??_C@_0BC@DJDMPLMJ@data?2album_36?4dat@ DB 'data\album_36.dat', 00H ; `string'
CONST	ENDS
;	COMDAT ??_C@_0BC@PCGACIGM@data?2album_37?4dat@
CONST	SEGMENT
??_C@_0BC@PCGACIGM@data?2album_37?4dat@ DB 'data\album_37.dat', 00H ; `string'
CONST	ENDS
;	COMDAT ??_C@_0BC@DDGJKLJ@data?2album_38?4dat@
CONST	SEGMENT
??_C@_0BC@DDGJKLJ@data?2album_38?4dat@ DB 'data\album_38.dat', 00H ; `string'
CONST	ENDS
;	COMDAT ??_C@_0BC@MIGKEJBM@data?2album_39?4dat@
CONST	SEGMENT
??_C@_0BC@MIGKEJBM@data?2album_39?4dat@ DB 'data\album_39.dat', 00H ; `string'
CONST	ENDS
;	COMDAT ??_C@_0BC@CKMCCGFK@data?2album_40?4dat@
CONST	SEGMENT
??_C@_0BC@CKMCCGFK@data?2album_40?4dat@ DB 'data\album_40.dat', 00H ; `string'
CONST	ENDS
;	COMDAT ??_C@_0BC@OBJOPFPP@data?2album_41?4dat@
CONST	SEGMENT
??_C@_0BC@OBJOPFPP@data?2album_41?4dat@ DB 'data\album_41.dat', 00H ; `string'
CONST	ENDS
;	COMDAT ??_C@_0BC@GHAKIHFB@data?2album_42?4dat@
CONST	SEGMENT
??_C@_0BC@GHAKIHFB@data?2album_42?4dat@ DB 'data\album_42.dat', 00H ; `string'
CONST	ENDS
;	COMDAT ??_C@_0BC@KMFGFEPE@data?2album_43?4dat@
CONST	SEGMENT
??_C@_0BC@KMFGFEPE@data?2album_43?4dat@ DB 'data\album_43.dat', 00H ; `string'
CONST	ENDS
;	COMDAT ??_C@_0BC@LBFDGEEM@data?2album_44?4dat@
CONST	SEGMENT
??_C@_0BC@LBFDGEEM@data?2album_44?4dat@ DB 'data\album_44.dat', 00H ; `string'
CONST	ENDS
;	COMDAT ??_C@_0BC@HKAPLHOJ@data?2album_45?4dat@
CONST	SEGMENT
??_C@_0BC@HKAPLHOJ@data?2album_45?4dat@ DB 'data\album_45.dat', 00H ; `string'
CONST	ENDS
;	COMDAT ??_C@_0BC@PMJLMFEH@data?2album_46?4dat@
CONST	SEGMENT
??_C@_0BC@PMJLMFEH@data?2album_46?4dat@ DB 'data\album_46.dat', 00H ; `string'
CONST	ENDS
;	COMDAT ??_C@_09BACHGGGK@f?$DLencor1c@
CONST	SEGMENT
??_C@_09BACHGGGK@f?$DLencor1c@ DB 'f;encor1c', 00H	; `string'
CONST	ENDS
;	COMDAT ??_C@_0P@JONHHOLF@data?2album?4dat@
CONST	SEGMENT
??_C@_0P@JONHHOLF@data?2album?4dat@ DB 'data\album.dat', 00H ; `string'
CONST	ENDS
;	COMDAT ??_C@_0BC@HIPKAJPN@data?2album_10?4dat@
CONST	SEGMENT
??_C@_0BC@HIPKAJPN@data?2album_10?4dat@ DB 'data\album_10.dat', 00H ; `string'
CONST	ENDS
;	COMDAT ??_C@_0BB@PNGHPOCD@data?2album_3?4dat@
CONST	SEGMENT
??_C@_0BB@PNGHPOCD@data?2album_3?4dat@ DB 'data\album_3.dat', 00H ; `string'
CONST	ENDS
;	COMDAT ??_C@_0BB@DGDLCNIG@data?2album_2?4dat@
CONST	SEGMENT
??_C@_0BB@DGDLCNIG@data?2album_2?4dat@ DB 'data\album_2.dat', 00H ; `string'
CONST	ENDS
;	COMDAT ??_C@_0CN@JHGNJKID@?$LO?Y?$LJ?$PM?5?$LF?$KF?$MA?L?E?M?$LI?$KG?5?$MA?z?$MA?e?G?O?$LE?B?$LF?$KF?5?$LN?G?F?P?G?O@
CONST	SEGMENT
??_C@_0CN@JHGNJKID@?$LO?Y?$LJ?$PM?5?$LF?$KF?$MA?L?E?M?$LI?$KG?5?$MA?z?$MA?e?G?O?$LE?B?$LF?$KF?5?$LN?G?F?P?G?O@ DB 0beH
	DB	0d9H, 0b9H, 0fcH, ' ', 0b5H, 0a5H, 0c0H, 0ccH, 0c5H, 0cdH, 0b8H
	DB	0a6H, ' ', 0c0H, 0faH, 0c0H, 0e5H, 0c7H, 0cfH, 0b4H, 0c2H, 0b5H
	DB	0a5H, ' ', 0bdH, 0c7H, 0c6H, 0d0H, 0c7H, 0cfH, 0bfH, 0b4H, 0bdH
	DB	0c0H, 0b4H, 0cfH, 0b4H, 0d9H, '.', 0a3H, 0a1H, 0a3H, 0b3H, 00H ; `string'
CONST	ENDS
;	COMDAT ??_C@_0CN@IOHGKLMC@?$LO?Y?$LJ?$PM?5?$LF?$KF?$MA?L?E?M?$LI?$KG?5?$MA?z?$MA?e?G?O?$LE?B?$LF?$KF?5?$LN?G?F?P?G?O@
CONST	SEGMENT
??_C@_0CN@IOHGKLMC@?$LO?Y?$LJ?$PM?5?$LF?$KF?$MA?L?E?M?$LI?$KG?5?$MA?z?$MA?e?G?O?$LE?B?$LF?$KF?5?$LN?G?F?P?G?O@ DB 0beH
	DB	0d9H, 0b9H, 0fcH, ' ', 0b5H, 0a5H, 0c0H, 0ccH, 0c5H, 0cdH, 0b8H
	DB	0a6H, ' ', 0c0H, 0faH, 0c0H, 0e5H, 0c7H, 0cfH, 0b4H, 0c2H, 0b5H
	DB	0a5H, ' ', 0bdH, 0c7H, 0c6H, 0d0H, 0c7H, 0cfH, 0bfH, 0b4H, 0bdH
	DB	0c0H, 0b4H, 0cfH, 0b4H, 0d9H, '.', 0a3H, 0a1H, 0a3H, 0b2H, 00H ; `string'
CONST	ENDS
;	COMDAT ??_C@_0CN@KFFLPIAB@?$LO?Y?$LJ?$PM?5?$LF?$KF?$MA?L?E?M?$LI?$KG?5?$MA?z?$MA?e?G?O?$LE?B?$LF?$KF?5?$LN?G?F?P?G?O@
CONST	SEGMENT
??_C@_0CN@KFFLPIAB@?$LO?Y?$LJ?$PM?5?$LF?$KF?$MA?L?E?M?$LI?$KG?5?$MA?z?$MA?e?G?O?$LE?B?$LF?$KF?5?$LN?G?F?P?G?O@ DB 0beH
	DB	0d9H, 0b9H, 0fcH, ' ', 0b5H, 0a5H, 0c0H, 0ccH, 0c5H, 0cdH, 0b8H
	DB	0a6H, ' ', 0c0H, 0faH, 0c0H, 0e5H, 0c7H, 0cfH, 0b4H, 0c2H, 0b5H
	DB	0a5H, ' ', 0bdH, 0c7H, 0c6H, 0d0H, 0c7H, 0cfH, 0bfH, 0b4H, 0bdH
	DB	0c0H, 0b4H, 0cfH, 0b4H, 0d9H, '.', 0a3H, 0a1H, 0a3H, 0b1H, 00H ; `string'
CONST	ENDS
;	COMDAT ??_C@_04IJNKKJEO@?H?$KO?$MA?N@
CONST	SEGMENT
??_C@_04IJNKKJEO@?H?$KO?$MA?N@ DB 0c8H, 0aeH, 0c0H, 0ceH, 00H ; `string'
CONST	ENDS
;	COMDAT ??_C@_0BC@DHMHBGOC@data?2album_47?4dat@
CONST	SEGMENT
??_C@_0BC@DHMHBGOC@data?2album_47?4dat@ DB 'data\album_47.dat', 00H ; `string'
CONST	ENDS
;	COMDAT ??_C@_0BB@GDFOCPAE@data?2chatreg?4dat@
CONST	SEGMENT
??_C@_0BB@GDFOCPAE@data?2chatreg?4dat@ DB 'data\chatreg.dat', 00H ; `string'
CONST	ENDS
;	COMDAT ??_C@_02GMLFBBN@wb@
CONST	SEGMENT
??_C@_02GMLFBBN@wb@ DB 'wb', 00H			; `string'
CONST	ENDS
;	COMDAT ??_C@_02JDPG@rb@
CONST	SEGMENT
??_C@_02JDPG@rb@ DB 'rb', 00H				; `string'
CONST	ENDS
;	COMDAT ??_C@_0O@GFOIPMHB@data?2mail?4dat@
CONST	SEGMENT
??_C@_0O@GFOIPMHB@data?2mail?4dat@ DB 'data\mail.dat', 00H ; `string'
CONST	ENDS
;	COMDAT ??_C@_03HMFOOINA@r?$CLb@
CONST	SEGMENT
??_C@_03HMFOOINA@r?$CLb@ DB 'r+b', 00H			; `string'
CONST	ENDS
;	COMDAT ??_C@_03IFADCKOJ@?$CFd?$HM@
CONST	SEGMENT
??_C@_03IFADCKOJ@?$CFd?$HM@ DB '%d|', 00H		; `string'
CONST	ENDS
;	COMDAT ??_C@_0BC@OAKKNIEC@T?$HM?$CFs?$HM?$CFs?$HMC?$HMconfirm@
CONST	SEGMENT
??_C@_0BC@OAKKNIEC@T?$HM?$CFs?$HM?$CFs?$HMC?$HMconfirm@ DB 'T|%s|%s|C|con'
	DB	'firm', 00H					; `string'
CONST	ENDS
;	COMDAT ??_C@_08KJEDNCKC@?$CFs?$CFs?$CFs?$CFs@
CONST	SEGMENT
??_C@_08KJEDNCKC@?$CFs?$CFs?$CFs?$CFs@ DB '%s%s%s%s', 00H ; `string'
CONST	ENDS
;	COMDAT ??_C@_0EM@BMOJJPID@I?$HM?$CFd?$HMI?$HM?$CFd?$HMI?$HM?$CFd?$HMI?$HM?$CFd?$HMI?$HM?$CFd?$HMI?$HM?$CFd?$HMI@
CONST	SEGMENT
??_C@_0EM@BMOJJPID@I?$HM?$CFd?$HMI?$HM?$CFd?$HMI?$HM?$CFd?$HMI?$HM?$CFd?$HMI?$HM?$CFd?$HMI?$HM?$CFd?$HMI@ DB 'I'
	DB	'|%d|I|%d|I|%d|I|%d|I|%d|I|%d|I|%d|I|%d|I|%d|I|%d|I|%d|I|%d|I|'
	DB	'%d|I|%d|I|%d|', 00H				; `string'
CONST	ENDS
;	COMDAT ??_C@_0BP@EDJFIODM@P?$HM?$CFd?$HMP?$HM?$CFd?$HMP?$HM?$CFd?$HMP?$HM?$CFd?$HMP?$HM?$CFd?$HMG?$HM?$CFd?$HM@
CONST	SEGMENT
??_C@_0BP@EDJFIODM@P?$HM?$CFd?$HMP?$HM?$CFd?$HMP?$HM?$CFd?$HMP?$HM?$CFd?$HMP?$HM?$CFd?$HMG?$HM?$CFd?$HM@ DB 'P'
	DB	'|%d|P|%d|P|%d|P|%d|P|%d|G|%d|', 00H		; `string'
CONST	ENDS
;	COMDAT ??_C@_0FG@OFAEILEL@T?$HM?$CFs?$HM?$CFs?$HMK?$HMI?$HM?$CFd?$HMI?$HM?$CFd?$HMI?$HM?$CFd?$HMI?$HM?$CFd?$HMI@
CONST	SEGMENT
??_C@_0FG@OFAEILEL@T?$HM?$CFs?$HM?$CFs?$HMK?$HMI?$HM?$CFd?$HMI?$HM?$CFd?$HMI?$HM?$CFd?$HMI?$HM?$CFd?$HMI@ DB 'T'
	DB	'|%s|%s|K|I|%d|I|%d|I|%d|I|%d|I|%d|I|%d|I|%d|I|%d|I|%d|I|%d|I|'
	DB	'%d|I|%d|I|%d|I|%d|I|%d|', 00H		; `string'
CONST	ENDS
;	COMDAT ??_C@_0L@OMFCIIOF@?$CI?Y?D?$DPMP?3?$CFd?$CJ@
CONST	SEGMENT
??_C@_0L@OMFCIIOF@?$CI?Y?D?$DPMP?3?$CFd?$CJ@ DB '(', 0d9H, 0c4H, '?MP:%d)'
	DB	00H						; `string'
CONST	ENDS
;	COMDAT ??_C@_03GHDNOBPC@?$CF8s@
CONST	SEGMENT
??_C@_03GHDNOBPC@?$CF8s@ DB '%8s', 00H			; `string'
CONST	ENDS
;	COMDAT ??_C@_0M@MPGNHMDP@?$CI?$LK?q?$LP?kMP?3?$CFd?$CJ@
CONST	SEGMENT
??_C@_0M@MPGNHMDP@?$CI?$LK?q?$LP?kMP?3?$CFd?$CJ@ DB '(', 0baH, 0f1H, 0bfH
	DB	0ebH, 'MP:%d)', 00H				; `string'
CONST	ENDS
;	COMDAT ??_C@_04IMPGGDFH@?$CFd?$KD?$KF@
CONST	SEGMENT
??_C@_04IMPGGDFH@?$CFd?$KD?$KF@ DB '%d', 0a3H, 0a5H, 00H ; `string'
CONST	ENDS
;	COMDAT ??_C@_02DKCKIIND@?$CFs@
CONST	SEGMENT
??_C@_02DKCKIIND@?$CFs@ DB '%s', 00H			; `string'
CONST	ENDS
;	COMDAT ??_C@_01CLKCMJKC@?5@
CONST	SEGMENT
??_C@_01CLKCMJKC@?5@ DB ' ', 00H			; `string'
CONST	ENDS
;	COMDAT ??_C@_02DPKJAMEF@?$CFd@
CONST	SEGMENT
??_C@_02DPKJAMEF@?$CFd@ DB '%d', 00H			; `string'
CONST	ENDS
;	COMDAT ??_C@_01BIAFAFID@F@
CONST	SEGMENT
??_C@_01BIAFAFID@F@ DB 'F', 00H				; `string'
CONST	ENDS
;	COMDAT ??_C@_01CKDDGHAB@D@
CONST	SEGMENT
??_C@_01CKDDGHAB@D@ DB 'D', 00H				; `string'
CONST	ENDS
;	COMDAT ??_C@_02BFNPOJI@D?$CL@
CONST	SEGMENT
??_C@_02BFNPOJI@D?$CL@ DB 'D+', 00H			; `string'
CONST	ENDS
;	COMDAT ??_C@_01GFHCPBMG@C@
CONST	SEGMENT
??_C@_01GFHCPBMG@C@ DB 'C', 00H				; `string'
CONST	ENDS
;	COMDAT ??_C@_02EBCOIBN@C?$CL@
CONST	SEGMENT
??_C@_02EBCOIBN@C?$CL@ DB 'C+', 00H			; `string'
CONST	ENDS
;	COMDAT ??_C@_01HMGJMAIH@B@
CONST	SEGMENT
??_C@_01HMGJMAIH@B@ DB 'B', 00H				; `string'
CONST	ENDS
;	COMDAT ??_C@_02FNAICCK@B?$CL@
CONST	SEGMENT
??_C@_02FNAICCK@B?$CL@ DB 'B+', 00H			; `string'
CONST	ENDS
;	COMDAT ??_C@_01FHEEJDEE@A@
CONST	SEGMENT
??_C@_01FHEEJDEE@A@ DB 'A', 00H				; `string'
CONST	ENDS
;	COMDAT ??_C@_02HJGDMHD@A?$CL@
CONST	SEGMENT
??_C@_02HJGDMHD@A?$CL@ DB 'A+', 00H			; `string'
CONST	ENDS
;	COMDAT ??_C@_01CPLAODJH@S@
CONST	SEGMENT
??_C@_01CPLAODJH@S@ DB 'S', 00H				; `string'
CONST	ENDS
;	COMDAT ??_C@_02BIDEELGN@S?$CL@
CONST	SEGMENT
??_C@_02BIDEELGN@S?$CL@ DB 'S+', 00H			; `string'
CONST	ENDS
;	COMDAT ??_C@_0BL@MFFNMGGC@stoi?5argument?5out?5of?5range@
CONST	SEGMENT
??_C@_0BL@MFFNMGGC@stoi?5argument?5out?5of?5range@ DB 'stoi argument out '
	DB	'of range', 00H				; `string'
CONST	ENDS
;	COMDAT ??_C@_0BG@HGEDEDEC@invalid?5stoi?5argument@
CONST	SEGMENT
??_C@_0BG@HGEDEDEC@invalid?5stoi?5argument@ DB 'invalid stoi argument', 00H ; `string'
CONST	ENDS
;	COMDAT ??_C@_0BA@JFNIOLAK@string?5too?5long@
CONST	SEGMENT
??_C@_0BA@JFNIOLAK@string?5too?5long@ DB 'string too long', 00H ; `string'
CONST	ENDS
;	COMDAT ??_C@_0CC@OFAJPOPK@?$LH?$KD?$LE?$PN?$MA?$LI?$LH?N?5?$LO?F?$MA?L?E?$NL?$MA?$LL?5?H?$LJ?$LF?f?G?Q?$LE?Y?5?$CI?$LH?$KD?$LE@
CONST	SEGMENT
??_C@_0CC@OFAJPOPK@?$LH?$KD?$LE?$PN?$MA?$LI?$LH?N?5?$LO?F?$MA?L?E?$NL?$MA?$LL?5?H?$LJ?$LF?f?G?Q?$LE?Y?5?$CI?$LH?$KD?$LE@ DB 0b7H
	DB	0a3H, 0b4H, 0fdH, 0c0H, 0b8H, 0b7H, 0ceH, ' ', 0beH, 0c6H, 0c0H
	DB	0ccH, 0c5H, 0dbH, 0c0H, 0bbH, ' ', 0c8H, 0b9H, 0b5H, 0e6H, 0c7H
	DB	0d1H, 0b4H, 0d9H, ' (', 0b7H, 0a3H, 0b4H, 0fdH, ')', 00H ; `string'
CONST	ENDS
;	COMDAT ??_C@_0L@HPPHGFBL@?$LI?$LO?$LI?p?$LN?$LK?D?m?F?y@
CONST	SEGMENT
??_C@_0L@HPPHGFBL@?$LI?$LO?$LI?p?$LN?$LK?D?m?F?y@ DB 0b8H, 0beH, 0b8H, 0f0H
	DB	0bdH, 0baH, 0c4H, 0edH, 0c6H, 0f9H, 00H	; `string'
CONST	ENDS
;	COMDAT __CT??_R0?AVexception@std@@@8??0exception@std@@QAE@ABV01@@Z12
xdata$x	SEGMENT
__CT??_R0?AVexception@std@@@8??0exception@std@@QAE@ABV01@@Z12 DD 00H
	DD	FLAT:??_R0?AVexception@std@@@8
	DD	00H
	DD	0ffffffffH
	ORG $+4
	DD	0cH
	DD	FLAT:??0exception@std@@QAE@ABV01@@Z
xdata$x	ENDS
;	COMDAT ??_R0?AVexception@std@@@8
data$r	SEGMENT
??_R0?AVexception@std@@@8 DD FLAT:??_7type_info@@6B@	; std::exception `RTTI Type Descriptor'
	DD	00H
	DB	'.?AVexception@std@@', 00H
data$r	ENDS
;	COMDAT __CT??_R0?AVbad_alloc@std@@@8??0bad_alloc@std@@QAE@ABV01@@Z12
xdata$x	SEGMENT
__CT??_R0?AVbad_alloc@std@@@8??0bad_alloc@std@@QAE@ABV01@@Z12 DD 010H
	DD	FLAT:??_R0?AVbad_alloc@std@@@8
	DD	00H
	DD	0ffffffffH
	ORG $+4
	DD	0cH
	DD	FLAT:??0bad_alloc@std@@QAE@ABV01@@Z
xdata$x	ENDS
;	COMDAT ??_R0?AVbad_alloc@std@@@8
data$r	SEGMENT
??_R0?AVbad_alloc@std@@@8 DD FLAT:??_7type_info@@6B@	; std::bad_alloc `RTTI Type Descriptor'
	DD	00H
	DB	'.?AVbad_alloc@std@@', 00H
data$r	ENDS
;	COMDAT __CT??_R0?AVbad_array_new_length@std@@@8??0bad_array_new_length@std@@QAE@ABV01@@Z12
xdata$x	SEGMENT
__CT??_R0?AVbad_array_new_length@std@@@8??0bad_array_new_length@std@@QAE@ABV01@@Z12 DD 00H
	DD	FLAT:??_R0?AVbad_array_new_length@std@@@8
	DD	00H
	DD	0ffffffffH
	ORG $+4
	DD	0cH
	DD	FLAT:??0bad_array_new_length@std@@QAE@ABV01@@Z
xdata$x	ENDS
;	COMDAT ??_R0?AVbad_array_new_length@std@@@8
data$r	SEGMENT
??_R0?AVbad_array_new_length@std@@@8 DD FLAT:??_7type_info@@6B@ ; std::bad_array_new_length `RTTI Type Descriptor'
	DD	00H
	DB	'.?AVbad_array_new_length@std@@', 00H
data$r	ENDS
;	COMDAT __CTA3?AVbad_array_new_length@std@@
xdata$x	SEGMENT
__CTA3?AVbad_array_new_length@std@@ DD 03H
	DD	FLAT:__CT??_R0?AVbad_array_new_length@std@@@8??0bad_array_new_length@std@@QAE@ABV01@@Z12
	DD	FLAT:__CT??_R0?AVbad_alloc@std@@@8??0bad_alloc@std@@QAE@ABV01@@Z12
	DD	FLAT:__CT??_R0?AVexception@std@@@8??0exception@std@@QAE@ABV01@@Z12
xdata$x	ENDS
;	COMDAT __TI3?AVbad_array_new_length@std@@
xdata$x	SEGMENT
__TI3?AVbad_array_new_length@std@@ DD 00H
	DD	FLAT:??1bad_array_new_length@std@@UAE@XZ
	DD	00H
	DD	FLAT:__CTA3?AVbad_array_new_length@std@@
xdata$x	ENDS
;	COMDAT ??_C@_0BF@KINCDENJ@bad?5array?5new?5length@
CONST	SEGMENT
??_C@_0BF@KINCDENJ@bad?5array?5new?5length@ DB 'bad array new length', 00H ; `string'
CONST	ENDS
;	COMDAT ??_7bad_array_new_length@std@@6B@
CONST	SEGMENT
??_7bad_array_new_length@std@@6B@ DD FLAT:??_R4bad_array_new_length@std@@6B@ ; std::bad_array_new_length::`vftable'
	DD	FLAT:??_Ebad_array_new_length@std@@UAEPAXI@Z
	DD	FLAT:?what@exception@std@@UBEPBDXZ
CONST	ENDS
;	COMDAT ??_7bad_alloc@std@@6B@
CONST	SEGMENT
??_7bad_alloc@std@@6B@ DD FLAT:??_R4bad_alloc@std@@6B@	; std::bad_alloc::`vftable'
	DD	FLAT:??_Ebad_alloc@std@@UAEPAXI@Z
	DD	FLAT:?what@exception@std@@UBEPBDXZ
CONST	ENDS
;	COMDAT ??_C@_0BC@EOODALEL@Unknown?5exception@
CONST	SEGMENT
??_C@_0BC@EOODALEL@Unknown?5exception@ DB 'Unknown exception', 00H ; `string'
CONST	ENDS
;	COMDAT ??_7exception@std@@6B@
CONST	SEGMENT
??_7exception@std@@6B@ DD FLAT:??_R4exception@std@@6B@	; std::exception::`vftable'
	DD	FLAT:??_Eexception@std@@UAEPAXI@Z
	DD	FLAT:?what@exception@std@@UBEPBDXZ
CONST	ENDS
_DATA	SEGMENT
?RideCodeMode@@3PAUtagRideCodeMode@@A DD 018816H	; RideCodeMode
	DD	01H
	DD	018806H
	DD	02H
	DD	01880aH
	DD	04H
	DD	0187b7H
	DD	08H
	DD	0187c0H
	DD	010H
	DD	0187bbH
	DD	020H
	DD	0187faH
	DD	040H
	DD	0187d6H
	DD	080H
	DD	018814H
	DD	0100H
	DD	018815H
	DD	0200H
	DD	018c9cH
	DD	0800H
	DD	018cc8H
	DD	0400H
	DD	018812H
	DD	01000H
	DD	018811H
	DD	02000H
	DD	018a28H
	DD	04000H
	DD	018a2bH
	DD	08000H
	DD	018f30H
	DD	010000H
	DD	018f31H
	DD	020000H
	DD	018f68H
	DD	040000H
	DD	0187fcH
	DD	080000H
	DD	0187d3H
	DD	0100000H
	DD	018fa9H
	DD	0200000H
	DD	018faaH
	DD	0400000H
	DD	018a09H
	DD	0800000H
	DD	018a0aH
	DD	01000000H
	DD	019394H
	DD	02000000H
	DD	0187b2H
	DD	04000000H
?RideNoList@@3PAUtagRideNoList@@A DD 018bb9H		; RideNoList
	DD	018bbaH
	DD	018bbbH
	DD	018bbcH
	DD	018bbdH
	DD	018bbeH
	DD	018bbfH
	DD	018bc0H
	DD	018a90H
	DD	018a91H
	DD	018e5aH
	DD	018e65H
	DD	018849H
	DD	018844H
	DD	01885dH
	DD	018ee5H
	DD	018f0dH
	DD	018f19H
	DD	018f76H
	ORG $+32
	DD	018bc1H
	DD	018bc2H
	DD	018bc3H
	DD	018bc4H
	DD	018bc5H
	DD	018bc6H
	DD	018bc7H
	DD	018bc8H
	DD	018a9aH
	DD	018a9bH
	DD	018e62H
	DD	018e64H
	DD	018849H
	DD	018844H
	DD	01885dH
	DD	018ee6H
	DD	018f0eH
	DD	018f1aH
	DD	018f77H
	ORG $+32
	DD	018bc9H
	DD	018bcaH
	DD	018bcbH
	DD	018bccH
	DD	018bcdH
	DD	018bceH
	DD	018bcfH
	DD	018bd0H
	DD	018aa4H
	DD	018aa5H
	DD	018e57H
	DD	018e4dH
	DD	018849H
	DD	018844H
	DD	01885dH
	DD	018ee7H
	DD	018f0fH
	DD	018f1bH
	DD	018f78H
	ORG $+32
	DD	018bd1H
	DD	018bd2H
	DD	018bd3H
	DD	018bd4H
	DD	018bd5H
	DD	018bd6H
	DD	018bd7H
	DD	018bd8H
	DD	018aaeH
	DD	018aafH
	DD	018e58H
	DD	018e4eH
	DD	018849H
	DD	018844H
	DD	01885dH
	DD	018ee8H
	DD	018f10H
	DD	018f1cH
	DD	018f79H
	ORG $+32
	DD	018bd9H
	DD	018bdaH
	DD	018bdbH
	DD	018bdcH
	DD	018bddH
	DD	018bdeH
	DD	018bdfH
	DD	018be0H
	DD	018ab8H
	DD	018ab9H
	DD	018e60H
	DD	018e55H
	DD	018849H
	DD	018844H
	DD	01885dH
	DD	018ee9H
	DD	018f11H
	DD	018f1dH
	DD	018f7aH
	ORG $+32
	DD	018be1H
	DD	018be2H
	DD	018be3H
	DD	018be4H
	DD	018be5H
	DD	018be6H
	DD	018be7H
	DD	018be8H
	DD	018ac2H
	DD	018ac3H
	DD	018e61H
	DD	018e56H
	DD	018849H
	DD	018844H
	DD	01885dH
	DD	018eeaH
	DD	018f12H
	DD	018f1eH
	DD	018f7bH
	ORG $+32
	DD	018be9H
	DD	018beaH
