; Listing generated by Microsoft (R) Optimizing Compiler Version 19.29.30133.0 

	TITLE	\\VBOXSVR\_stoneage\repos\ssm-sacli\Release\netproc.obj
	.686P
	.XMM
	include listing.inc
	.model	flat

INCLUDELIB LIBCMT
INCLUDELIB OLDNAMES

PUBLIC	?selectServerIndex@@3FA				; selectServerIndex
PUBLIC	?clientLoginStatus@@3FA				; clientLoginStatus
PUBLIC	?charListStatus@@3FA				; charListStatus
PUBLIC	?charDelStatus@@3FA				; charDelStatus
PUBLIC	?gamestate_chooseserver_name@@3PADA		; gamestate_chooseserver_name
PUBLIC	?gamestate_login_charname@@3PADA		; gamestate_login_charname
PUBLIC	?gamestate_deletechar_charname@@3PADA		; gamestate_deletechar_charname
PUBLIC	?netprocErrmsg@@3PADA				; netprocErrmsg
PUBLIC	?bNewServer@@3HA				; bNewServer
PUBLIC	?newCharStatus@@3FA				; newCharStatus
PUBLIC	?charLoginStatus@@3FA				; charLoginStatus
PUBLIC	?charLogoutStatus@@3FA				; charLogoutStatus
PUBLIC	?ERROR_MESSAGE@@3HA				; ERROR_MESSAGE
PUBLIC	?netproc_sending@@3HA				; netproc_sending
PUBLIC	?start_time@@3KA				; start_time
PUBLIC	?c_temp@@3PADA					; c_temp
PUBLIC	?connectServerCounter@@3HA			; connectServerCounter
PUBLIC	?AdvanceSkill@@3PAHA				; AdvanceSkill
PUBLIC	?AssitSkill@@3PAHA				; AssitSkill
PUBLIC	?BattleSkill@@3PAHA				; BattleSkill
PUBLIC	?Ôô???ð«ãÆ@@3PADA				; Ôô???ð«ãÆ
PUBLIC	?sin_server@@3Usockaddr_in@@A			; sin_server
PUBLIC	?hPing@@3PAXA					; hPing
PUBLIC	?dwPingID@@3KA					; dwPingID
PUBLIC	?pCommand@@3PADA				; pCommand
PUBLIC	?dwDiceTimer@@3KA				; dwDiceTimer
PUBLIC	?gStrÎÃ?@@3PADA					; gStrÎÃ?
PUBLIC	?dwPingTime@@3KA				; dwPingTime
PUBLIC	?dwPingState@@3KA				; dwPingState
PUBLIC	?iWrote@@3HA					; iWrote
PUBLIC	?iRead@@3HA					; iRead
PUBLIC	?sockRaw@@3IA					; sockRaw
_BSS	SEGMENT
?clientLoginStatus@@3FA DW 01H DUP (?)			; clientLoginStatus
	ALIGN	4

?charListStatus@@3FA DW 01H DUP (?)			; charListStatus
	ALIGN	4

?charDelStatus@@3FA DW 01H DUP (?)			; charDelStatus
	ALIGN	4

?gamestate_chooseserver_name@@3PADA DB 080H DUP (?)	; gamestate_chooseserver_name
?gamestate_login_charname@@3PADA DB 080H DUP (?)	; gamestate_login_charname
?gamestate_deletechar_charname@@3PADA DB 080H DUP (?)	; gamestate_deletechar_charname
?netprocErrmsg@@3PADA DB 0400H DUP (?)			; netprocErrmsg
?bNewServer@@3HA DD 01H DUP (?)				; bNewServer
?newCharStatus@@3FA DW 01H DUP (?)			; newCharStatus
	ALIGN	4

?charLoginStatus@@3FA DW 01H DUP (?)			; charLoginStatus
	ALIGN	4

?charLogoutStatus@@3FA DW 01H DUP (?)			; charLogoutStatus
	ALIGN	4

?ERROR_MESSAGE@@3HA DD 01H DUP (?)			; ERROR_MESSAGE
?netproc_sending@@3HA DD 01H DUP (?)			; netproc_sending
?start_time@@3KA DD 01H DUP (?)				; start_time
?c_temp@@3PADA DB 0400H DUP (?)				; c_temp
?connectServerCounter@@3HA DD 01H DUP (?)		; connectServerCounter
?Ôô???ð«ãÆ@@3PADA DB 0200H DUP (?)			; Ôô???ð«ãÆ
?sin_server@@3Usockaddr_in@@A DB 010H DUP (?)		; sin_server
?hPing@@3PAXA DD 01H DUP (?)				; hPing
?dwPingID@@3KA DD 01H DUP (?)				; dwPingID
?pCommand@@3PADA DD 01H DUP (?)				; pCommand
?dwDiceTimer@@3KA DD 01H DUP (?)			; dwDiceTimer
?gStrÎÃ?@@3PADA DB 064H DUP (?)				; gStrÎÃ?
?dwPingTime@@3KA DD 01H DUP (?)				; dwPingTime
?dwPingState@@3KA DD 01H DUP (?)			; dwPingState
?iWrote@@3HA DD	01H DUP (?)				; iWrote
?iRead@@3HA DD	01H DUP (?)				; iRead
_BSS	ENDS
_DATA	SEGMENT
?selectServerIndex@@3FA DW 0ffffH			; selectServerIndex
	ORG $+6
?AdvanceSkill@@3PAHA DD 0ffffffffH			; AdvanceSkill
	ORG $+76
?AssitSkill@@3PAHA DD 0ffffffffH			; AssitSkill
	ORG $+76
?BattleSkill@@3PAHA DD 0ffffffffH			; BattleSkill
	ORG $+76
?sockRaw@@3IA DD 0ffffffffH				; sockRaw
_DATA	ENDS
PUBLIC	___local_stdio_printf_options
PUBLIC	___local_stdio_scanf_options
PUBLIC	_fprintf
PUBLIC	_printf
PUBLIC	_sprintf
PUBLIC	_sscanf
PUBLIC	?initConnectServer@@YAXXZ			; initConnectServer
PUBLIC	?ConnectWGS@@YAHXZ				; ConnectWGS
PUBLIC	?connectServer@@YAHXZ				; connectServer
PUBLIC	?charListStart@@YAXXZ				; charListStart
PUBLIC	?charListProc@@YAHXZ				; charListProc
PUBLIC	?charLoginStart@@YAXXZ				; charLoginStart
PUBLIC	?charLoginProc@@YAHXZ				; charLoginProc
PUBLIC	?createNewCharStart@@YAXXZ			; createNewCharStart
PUBLIC	?createNewCharProc@@YAHXZ			; createNewCharProc
PUBLIC	?charLogoutStart@@YAXXZ				; charLogoutStart
PUBLIC	?charLogoutProc@@YAHXZ				; charLogoutProc
PUBLIC	?walkSendForServer@@YAXHHPAD@Z			; walkSendForServer
PUBLIC	?noChecksumWalkSendForServer@@YAXHHPAD@Z	; noChecksumWalkSendForServer
PUBLIC	?chatStrSendForServer@@YAXPADH@Z		; chatStrSendForServer
PUBLIC	?delCharStart@@YAXXZ				; delCharStart
PUBLIC	?delCharProc@@YAHXZ				; delCharProc
PUBLIC	?lssproto_DENGON_recv@@YAXPADHH@Z		; lssproto_DENGON_recv
PUBLIC	?lssproto_XYD_recv@@YAXHHHH@Z			; lssproto_XYD_recv
PUBLIC	?lssproto_EV_recv@@YAXHHH@Z			; lssproto_EV_recv
PUBLIC	?lssproto_EN_recv@@YAXHHH@Z			; lssproto_EN_recv
PUBLIC	?lssproto_RS_recv@@YAXHPAD@Z			; lssproto_RS_recv
PUBLIC	?lssproto_RD_recv@@YAXHPAD@Z			; lssproto_RD_recv
PUBLIC	?lssproto_B_recv@@YAXHPAD@Z			; lssproto_B_recv
PUBLIC	?lssproto_I_recv@@YAXHPAD@Z			; lssproto_I_recv
PUBLIC	?lssproto_SI_recv@@YAXHHH@Z			; lssproto_SI_recv
PUBLIC	?lssproto_MSG_recv@@YAXHHPADH@Z			; lssproto_MSG_recv
PUBLIC	?lssproto_PME_recv@@YAXHHHHHHHHPAD@Z		; lssproto_PME_recv
PUBLIC	?lssproto_AB_recv@@YAXHPAD@Z			; lssproto_AB_recv
PUBLIC	?lssproto_ABI_recv@@YAXHHPAD@Z			; lssproto_ABI_recv
PUBLIC	?lssproto_TK_recv@@YAXHHPADH@Z			; lssproto_TK_recv
PUBLIC	?lssproto_MC_recv@@YAXHHHHHHHHHPAD@Z		; lssproto_MC_recv
PUBLIC	?lssproto_M_recv@@YAXHHHHHHPAD@Z		; lssproto_M_recv
PUBLIC	?lssproto_C_recv@@YAXHPAD@Z			; lssproto_C_recv
PUBLIC	?lssproto_CA_recv@@YAXHPAD@Z			; lssproto_CA_recv
PUBLIC	?lssproto_CD_recv@@YAXHPAD@Z			; lssproto_CD_recv
PUBLIC	?lssproto_R_recv@@YAXHPAD@Z			; lssproto_R_recv
PUBLIC	?lssproto_S_recv@@YAXHPAD@Z			; lssproto_S_recv
PUBLIC	?lssproto_D_recv@@YAXHHHHPAD@Z			; lssproto_D_recv
PUBLIC	?lssproto_FS_recv@@YAXHH@Z			; lssproto_FS_recv
PUBLIC	?lssproto_HL_recv@@YAXHH@Z			; lssproto_HL_recv
PUBLIC	?lssproto_PR_recv@@YAXHHH@Z			; lssproto_PR_recv
PUBLIC	?lssproto_KS_recv@@YAXHHH@Z			; lssproto_KS_recv
PUBLIC	?lssproto_SPET_recv@@YAXHHH@Z			; lssproto_SPET_recv
PUBLIC	?lssproto_PS_recv@@YAXHHHHH@Z			; lssproto_PS_recv
PUBLIC	?lssproto_SKUP_recv@@YAXHH@Z			; lssproto_SKUP_recv
PUBLIC	?lssproto_WN_recv@@YAXHHHHHPAD@Z		; lssproto_WN_recv
PUBLIC	?lssproto_EF_recv@@YAXHHHPAD@Z			; lssproto_EF_recv
PUBLIC	?lssproto_SE_recv@@YAXHHHHH@Z			; lssproto_SE_recv
PUBLIC	?lssproto_ClientLogin_recv@@YAXHPAD@Z		; lssproto_ClientLogin_recv
PUBLIC	?lssproto_CreateNewChar_recv@@YAXHPAD0@Z	; lssproto_CreateNewChar_recv
PUBLIC	?lssproto_CharDelete_recv@@YAXHPAD0@Z		; lssproto_CharDelete_recv
PUBLIC	?lssproto_CharLogin_recv@@YAXHPAD0@Z		; lssproto_CharLogin_recv
PUBLIC	?lssproto_CharList_recv@@YAXHPAD0@Z		; lssproto_CharList_recv
PUBLIC	?lssproto_CharLogout_recv@@YAXHPAD0@Z		; lssproto_CharLogout_recv
PUBLIC	?lssproto_ProcGet_recv@@YAXHPAD@Z		; lssproto_ProcGet_recv
PUBLIC	?lssproto_PlayerNumGet_recv@@YAXHHH@Z		; lssproto_PlayerNumGet_recv
PUBLIC	?lssproto_Echo_recv@@YAXHPAD@Z			; lssproto_Echo_recv
PUBLIC	?lssproto_NU_recv@@YAXHH@Z			; lssproto_NU_recv
PUBLIC	?lssproto_FM_recv@@YAXHPAD@Z			; lssproto_FM_recv
PUBLIC	?lssproto_WO_recv@@YAXHH@Z			; lssproto_WO_recv
PUBLIC	?lssproto_IC_recv@@YAXHHH@Z			; lssproto_IC_recv
PUBLIC	?lssproto_NC_recv@@YAXHH@Z			; lssproto_NC_recv
PUBLIC	?lssproto_PETST_recv@@YAXHHH@Z			; lssproto_PETST_recv
PUBLIC	?lssproto_STREET_VENDOR_recv@@YAXHPAD@Z		; lssproto_STREET_VENDOR_recv
PUBLIC	?lssproto_JOBDAILY_recv@@YAXHPAD@Z		; lssproto_JOBDAILY_recv
PUBLIC	?lssproto_TEACHER_SYSTEM_recv@@YAXHPAD@Z	; lssproto_TEACHER_SYSTEM_recv
PUBLIC	?lssproto_S2_recv@@YAXHPAD@Z			; lssproto_S2_recv
PUBLIC	?lssproto_Firework_recv@@YAXHHHH@Z		; lssproto_Firework_recv
PUBLIC	?lssproto_MAMMOTH_OPEN_recv@@YAXPAD@Z		; lssproto_MAMMOTH_OPEN_recv
PUBLIC	?SortSkill@@YAXXZ				; SortSkill
PUBLIC	?SaveChatData@@YAXPADD_N@Z			; SaveChatData
PUBLIC	?LogToRecvdata2@@YAXPAD@Z			; LogToRecvdata2
PUBLIC	?PingFunc@@YGKPAX@Z				; PingFunc
PUBLIC	?lssproto_W_recv@@YAXHHHH@Z			; lssproto_W_recv
PUBLIC	?lssproto_IS_recv@@YAXHPAD@Z			; lssproto_IS_recv
PUBLIC	?lssproto_ACI_recv@@YAXHPAD@Z			; lssproto_ACI_recv
PUBLIC	?checksum@@YAGPAGH@Z				; checksum
PUBLIC	?_OptionsStorage@?1??__local_stdio_printf_options@@9@4_KA ; `__local_stdio_printf_options'::`2'::_OptionsStorage
PUBLIC	?_OptionsStorage@?1??__local_stdio_scanf_options@@9@4_KA ; `__local_stdio_scanf_options'::`2'::_OptionsStorage
PUBLIC	??_C@_0N@OFOPBFLC@recvdata?4txt@		; `string'
PUBLIC	??_C@_02DPNLHKJD@a?$CL@				; `string'
PUBLIC	??_C@_0L@INAHAGEI@?b?$KF?S?p?$KD?$LK?7?$CFs?6@	; `string'
PUBLIC	??_C@_0BF@JAKPHLLB@?Y?i?$NL?v?$DP?z?$LMsocket?n?$NMTCP?$KB?$KD@ ; `string'
PUBLIC	??_C@_03GMCCICCK@WGS@				; `string'
PUBLIC	??_C@_0BO@BHPEJLIB@?Y?i?$NL?v?$DP?T?p?$NO?C?$NM?W?P?o?n?$NM?$KD?I?$KD?P?j?H?v?G?$KB?$KD?$CI?$CFs?$CJ@ ; `string'
PUBLIC	??_C@_0BI@CKHMFIAG@?Y?i?$NL?v?$DP?c?$LH?$DP?z?$LM?$NO?C?$NM?W?P?o?n?$NM?$DP?o?H?$KB?$KD@ ; `string'
PUBLIC	??_C@_0O@KDOBPHMN@?$DP?V?X?$DP?Z?$LB?q?W?$DP?$PL?$LP?$KB?$KD@ ; `string'
PUBLIC	??_C@_0CM@NBOLBDPM@?$LN?$LK?E?f?$LP?$KB?$MA?L?A?v?5?D?$KL?$LP?$MA?$LN?$LK?$LM?$KN?$LJ?v?$LE?B?5?G?v?$MA?g?5?A?$KB@ ; `string'
PUBLIC	??_C@_02ODPEBLOD@CS@				; `string'
PUBLIC	??_C@_0BC@PMNBOGBM@?$NO?C?$NM?W?P?o?$DP?o?H?$DP?$DP?l?$KL?S?p?$KB?$KD@ ; `string'
PUBLIC	??_C@_0N@LCBBLLOI@www?493sa?4com@		; `string'
PUBLIC	??_C@_0BB@KFDLBKA@?$NO?C?$NM?W?P?o?Y?$KD?$DP?$NM?t?o?a?$DP?$KB?$KD@ ; `string'
PUBLIC	??_C@_0BA@NDJIOBBC@?$OA?$LE?P?o?$DP?S?$NL?w?z?$NM?b?$NM?t?T?R@ ; `string'
PUBLIC	??_C@_05DAOAAINN@login@				; `string'
PUBLIC	??_C@_09BACHGGGK@f?$DLencor1c@			; `string'
PUBLIC	??_C@_08DDDJOECK@19761101@			; `string'
PUBLIC	??_C@_02MFDMBIJM@ok@				; `string'
PUBLIC	??_C@_06ENLDJGGB@cancle@			; `string'
PUBLIC	??_C@_02DKCKIIND@?$CFs@				; `string'
PUBLIC	??_C@_0BC@OCCGLCLB@?$DP?v?$KC?l?Q?Z?$KK?x?z?$DP?$DP?l?$KL?S?p?$KB?$KD@ ; `string'
PUBLIC	??_C@_06ODACHPEO@failed@			; `string'
PUBLIC	??_C@_0L@LHCHIOPJ@successful@			; `string'
PUBLIC	??_C@_0N@OGLBPKPL@OUTOFSERVICE@			; `string'
PUBLIC	??_C@_0O@ENFKOFGC@CHANGE_GALAXY@		; `string'
PUBLIC	??_C@_03NOBDJFIO@301@				; `string'
PUBLIC	??_C@_00CNPNBAHC@@				; `string'
PUBLIC	??_C@_0BA@JFEMHLAM@?T?t?l?$PN?$DP?W?b?$DP?$DP?l?$KL?S?p?$KB?$KD@ ; `string'
PUBLIC	??_C@_0BA@KHEOLEJA@?T?t?u?s?$DP?W?b?$DP?$DP?l?$KL?S?p?$KB?$KD@ ; `string'
PUBLIC	??_C@_01NBENCBCI@?$CK@				; `string'
PUBLIC	??_C@_0M@OMPDAMON@data?$FL1?$FN?3?$CFs?6@	; `string'
PUBLIC	??_C@_0N@GGCIJCKF@?$DP?$DP?$DP?5name?5?$DP?$DP?$DP@ ; `string'
PUBLIC	??_C@_0N@HKHEIDPM@?$DP?$DP?$DP?5memo?5?$DP?$DP?$DP@ ; `string'
PUBLIC	??_C@_08PFECBJKL@?$CFd?5Stone@			; `string'
PUBLIC	??_C@_04BKLDHGDD@P?$HM?$CFs@			; `string'
PUBLIC	??_C@_0BE@BFJFDKGC@?r?$KG?V?$LF?$NO?E?i?D?L?$KL?c?R?$NM?t?o?a?$DP?$KD?$KB@ ; `string'
PUBLIC	??_C@_01CLKCMJKC@?5@				; `string'
PUBLIC	??_C@_03IKGEINEE@?$CFs?5@			; `string'
PUBLIC	??_C@_0L@BFDNBDBG@P?$HM?1tell?5?$CFs@		; `string'
PUBLIC	??_C@_07JGJAFNNL@P?$HM?1FM?$CFs@		; `string'
PUBLIC	??_C@_0N@INHGBDFL@P?$HM?1OCC?$CFs?$KD?$LK?$CFs@	; `string'
PUBLIC	??_C@_08KCFIPDCG@T?$HM?$CFs?$KD?$LK?$CFs@	; `string'
PUBLIC	??_C@_08IPPAKAEL@P?$HM?1WD?5?$CFs@		; `string'
PUBLIC	??_C@_08NGKGAKGM@P?$HM?1XQ?5?$CFs@		; `string'
PUBLIC	??_C@_02HIIGDGEP@TK@				; `string'
PUBLIC	??_C@_02OGAFBLMB@TE@				; `string'
PUBLIC	??_C@_0BH@DFPJGLLL@?$OA?w?X?$KB?V?$PN?t?$LI?c?x?$DP?p?$LG?$KD?$LC?$KD?$LA?$KD?$LA?$OA?$LE?$DP@ ; `string'
PUBLIC	??_C@_0BB@JFAECEMN@?l?Q?Z?$KK?p?$KE?m?B?$DP?$DP?l?$KL?S?p?$KB?$KD@ ; `string'
PUBLIC	??_C@_0BB@ILDAKNL@?l?Q?Z?$KK?$NO?$PL?p?$LG?$DP?$DP?l?$KL?S?p?$KB?$KD@ ; `string'
PUBLIC	??_C@_0BK@NFKFNKL@?$NM?z?$DP?J?$KL?p?i?n?$KE?v?R?t?$LI?q?$PN?$PN?$KI?$DP?a?$LM?c?w?$DP?$KD?$KB@ ; `string'
PUBLIC	??_C@_08EOJECCGN@?$CFX?$HM?$CFX?$HM?$CFX@	; `string'
PUBLIC	??_C@_05HMDCACKA@?$CFX?$HM?$CFX@		; `string'
PUBLIC	??_C@_03ILJCGOLJ@?6?$CFs@			; `string'
PUBLIC	??_C@_0BE@MGOKMGBK@?b?$KF?S?p?$CFs?a?j?$DP?n?$NM?$DP?Z?$KK?$DP?K?l?$KD?$KB@ ; `string'
PUBLIC	??_C@_0BB@JIMIMFE@?b?$KF?S?p?$CFs?a?j?$DP?n?$NM?$DP?K?l?$KD?$KB@ ; `string'
PUBLIC	??_C@_05OAJDDNFL@?c?w?$DP?$KD?$KB@		; `string'
PUBLIC	??_C@_01CPLAODJH@S@				; `string'
PUBLIC	??_C@_01BIAFAFID@F@				; `string'
PUBLIC	??_C@_01CKDDGHAB@D@				; `string'
PUBLIC	??_C@_01GFHCPBMG@C@				; `string'
PUBLIC	??_C@_01LELAEKIP@J@				; `string'
PUBLIC	??_C@_01OCOKONAJ@L@				; `string'
PUBLIC	??_C@_01HMGJMAIH@B@				; `string'
PUBLIC	??_C@_01BBODEMC@G@				; `string'
PUBLIC	??_C@_01GAPBHFFA@T@				; `string'
PUBLIC	??_C@_01DGKLNCNG@R@				; `string'
PUBLIC	??_C@_01EJNLAFE@P@				; `string'
PUBLIC	??_C@_06BCPILJJG@CHANGE@			; `string'
PUBLIC	??_C@_0BG@JGFFJBEF@chat?2?$CF02d?$CF02d?$CF02d?4TXT@ ; `string'
PUBLIC	??_C@_01MCMALHOG@a@				; `string'
PUBLIC	??_C@_01EEMJAFIK@?6@				; `string'
PUBLIC	??_C@_0O@PEDECIPG@?X?$NP?$DP?$DP?V?y?$DP?$DP?$DP?j?s?$DP?$DP@ ; `string'
PUBLIC	??_C@_04DIIKDPIA@FAME@				; `string'
PUBLIC	__xmm@45454545454545454545454545454545
PUBLIC	__xmm@ffffffffffffffffffffffffffffffff
EXTRN	___acrt_iob_func:PROC
EXTRN	_fclose:PROC
EXTRN	_fflush:PROC
EXTRN	_fopen:PROC
EXTRN	_fwrite:PROC
EXTRN	___stdio_common_vfprintf:PROC
EXTRN	___stdio_common_vsprintf:PROC
EXTRN	___stdio_common_vsscanf:PROC
EXTRN	_strstr:PROC
EXTRN	_strncpy:PROC
EXTRN	__imp__Sleep@4:PROC
EXTRN	__imp__GetCurrentProcessId@0:PROC
EXTRN	__imp__CreateThread@24:PROC
EXTRN	__imp__GetTickCount@0:PROC
EXTRN	__imp__lstrcpyA@8:PROC
EXTRN	__imp__lstrcatA@8:PROC
EXTRN	__imp__lstrlenA@4:PROC
EXTRN	_atoi:PROC
EXTRN	___WSAFDIsSet@8:PROC
EXTRN	_closesocket@4:PROC
EXTRN	_connect@12:PROC
EXTRN	_ioctlsocket@12:PROC
EXTRN	_htons@4:PROC
EXTRN	_inet_addr@4:PROC
EXTRN	_recv@16:PROC
EXTRN	_recvfrom@24:PROC
EXTRN	_select@20:PROC
EXTRN	_sendto@24:PROC
EXTRN	_setsockopt@20:PROC
EXTRN	_socket@12:PROC
EXTRN	_gethostbyname@4:PROC
EXTRN	_WSAGetLastError@0:PROC
EXTRN	__localtime64:PROC
EXTRN	__time64:PROC
EXTRN	?TimeGetTime@@YAIXZ:PROC			; TimeGetTime
EXTRN	?PaletteChange@@YAXHH@Z:PROC			; PaletteChange
EXTRN	?ChangeProc@@YAXH@Z:PROC			; ChangeProc
EXTRN	?warpEffectProc@@YAXXZ:PROC			; warpEffectProc
EXTRN	?JL_SetFastFightFlag@@YAX_N@Z:PROC		; JL_SetFastFightFlag
EXTRN	?JL_?ïÒìÑÚª@@YAX_N@Z:PROC			; JL_?ïÒìÑÚª
EXTRN	?JL_??÷åüù_üÞ??ïÃ@@YAXXZ:PROC			; JL_??÷åüù_üÞ??ïÃ
EXTRN	?sunday@@YAPADPAD0@Z:PROC			; sunday
EXTRN	?DeathAction@@YAXPAUaction@@@Z:PROC		; DeathAction
EXTRN	?DeathAllAction@@YAXXZ:PROC			; DeathAllAction
EXTRN	?StockChatBufferLine@@YAXPADEH@Z:PROC		; StockChatBufferLine
EXTRN	?StockChatBufferLineExt@@YAXPADEHH@Z:PROC	; StockChatBufferLineExt
EXTRN	?getServerInfo@@YAHHPADPAF@Z:PROC		; getServerInfo
EXTRN	?initNet@@YAHXZ:PROC				; initNet
EXTRN	?cleanupNetwork@@YAXXZ:PROC			; cleanupNetwork
EXTRN	?lssproto_W2_send@@YAXHHHPAD@Z:PROC		; lssproto_W2_send
EXTRN	?lssproto_TK_send@@YAXHHHPADHH@Z:PROC		; lssproto_TK_send
EXTRN	?lssproto_AC_send@@YAXHHHH@Z:PROC		; lssproto_AC_send
EXTRN	?lssproto_SP_send@@YAXHHHH@Z:PROC		; lssproto_SP_send
EXTRN	?lssproto_ClientLogin_send@@YAXHPAD0@Z:PROC	; lssproto_ClientLogin_send
EXTRN	?lssproto_CreateNewChar_send@@YAXHHPADHHHHHHHHHHH@Z:PROC ; lssproto_CreateNewChar_send
EXTRN	?lssproto_CharDelete_send@@YAXHPAD@Z:PROC	; lssproto_CharDelete_send
EXTRN	?lssproto_CharLogin_send@@YAXHPAD@Z:PROC	; lssproto_CharLogin_send
EXTRN	?lssproto_CharList_send@@YAXH@Z:PROC		; lssproto_CharList_send
EXTRN	?lssproto_CharLogout_send@@YAXHH@Z:PROC		; lssproto_CharLogout_send
EXTRN	?lssproto_MA_send@@YAXHHHH@Z:PROC		; lssproto_MA_send
EXTRN	?lssproto_CHATROOM_send@@YAXHPAD@Z:PROC		; lssproto_CHATROOM_send
EXTRN	?old_lssproto_W_send@@YAXHHHPAD@Z:PROC		; old_lssproto_W_send
EXTRN	?old_lssproto_w_send@@YAXHHHPAD@Z:PROC		; old_lssproto_w_send
EXTRN	?old_lssproto_TK_send@@YAXHHHPADHH@Z:PROC	; old_lssproto_TK_send
EXTRN	?old_lssproto_AC_send@@YAXHHHH@Z:PROC		; old_lssproto_AC_send
EXTRN	?old_lssproto_SP_send@@YAXHHHH@Z:PROC		; old_lssproto_SP_send
EXTRN	?old_lssproto_ClientLogin_send@@YAXHPAD0@Z:PROC	; old_lssproto_ClientLogin_send
EXTRN	?old_lssproto_CreateNewChar_send@@YAXHHPADHHHHHHHHHHH@Z:PROC ; old_lssproto_CreateNewChar_send
EXTRN	?old_lssproto_CharDelete_send@@YAXHPAD@Z:PROC	; old_lssproto_CharDelete_send
EXTRN	?old_lssproto_CharLogin_send@@YAXHPAD@Z:PROC	; old_lssproto_CharLogin_send
EXTRN	?old_lssproto_CharList_send@@YAXH@Z:PROC	; old_lssproto_CharList_send
EXTRN	?old_lssproto_CharLogout_send@@YAXH@Z:PROC	; old_lssproto_CharLogout_send
EXTRN	?saveUserSetting@@YAHXZ:PROC			; saveUserSetting
EXTRN	?createPc@@YAXHHHH@Z:PROC			; createPc
EXTRN	?resetPc@@YAXXZ:PROC				; resetPc
EXTRN	?setPcWarpPoint@@YAXHH@Z:PROC			; setPcWarpPoint
EXTRN	?setPcPoint@@YAXXZ:PROC				; setPcPoint
EXTRN	?setPcGraNo@@YAXHH@Z:PROC			; setPcGraNo
EXTRN	?setPcId@@YAXH@Z:PROC				; setPcId
EXTRN	?setPcDir@@YAXH@Z:PROC				; setPcDir
EXTRN	?setPcAction@@YAXH@Z:PROC			; setPcAction
EXTRN	?setPcParam@@YAXPAD0H0HHHHHHHH@Z:PROC		; setPcParam
EXTRN	?updataPcAct@@YAXXZ:PROC			; updataPcAct
EXTRN	?setPcLeader@@YAXXZ:PROC			; setPcLeader
EXTRN	?setPcParty@@YAXXZ:PROC				; setPcParty
EXTRN	?changePcAct@@YAXHHHHHHH@Z:PROC			; changePcAct
EXTRN	?setPcFukidashi@@YAXI@Z:PROC			; setPcFukidashi
EXTRN	?setPcNameColor@@YAXH@Z:PROC			; setPcNameColor
EXTRN	?clearPartyParam@@YAXXZ:PROC			; clearPartyParam
EXTRN	?clearPtActPartyParam@@YAXXZ:PROC		; clearPtActPartyParam
EXTRN	?setCharacterList@@YAHPAD0@Z:PROC		; setCharacterList
EXTRN	?resetCharacterList@@YAHH@Z:PROC		; resetCharacterList
EXTRN	?swapItem@@YAXHH@Z:PROC				; swapItem
EXTRN	?getStringToken@@YAHPADDHH0@Z:PROC		; getStringToken
EXTRN	?getIntegerToken@@YAHPADDH@Z:PROC		; getIntegerToken
EXTRN	?a62toi@@YAHPAD@Z:PROC				; a62toi
EXTRN	?getInteger62Token@@YAHPADDH@Z:PROC		; getInteger62Token
EXTRN	?makeStringFromEscaped@@YAPADPAD@Z:PROC		; makeStringFromEscaped
EXTRN	?makeEscapeString@@YAPADPAD0H@Z:PROC		; makeEscapeString
EXTRN	?resetMap@@YAXXZ:PROC				; resetMap
EXTRN	?createMap@@YAXHHH@Z:PROC			; createMap
EXTRN	?writeMap@@YAHHHHHHPAG00@Z:PROC			; writeMap
EXTRN	?setMap@@YAXHHH@Z:PROC				; setMap
EXTRN	?mapCheckSum@@YAHHHHHHHHH@Z:PROC		; mapCheckSum
EXTRN	?redrawMap@@YAXXZ:PROC				; redrawMap
EXTRN	?updateMapArea@@YAXXZ:PROC			; updateMapArea
EXTRN	?goFrontPartyCharacter@@YAXHHH@Z:PROC		; goFrontPartyCharacter
EXTRN	?initMapEffect@@YAXH@Z:PROC			; initMapEffect
EXTRN	?setNpcNotice@@YAXPAUaction@@H@Z:PROC		; setNpcNotice
EXTRN	?changeCharAct@@YAXPAUaction@@HHHHHHH@Z:PROC	; changeCharAct
EXTRN	?setCharLeader@@YAXPAUaction@@@Z:PROC		; setCharLeader
EXTRN	?setCharParty@@YAXPAUaction@@@Z:PROC		; setCharParty
EXTRN	?delCharParty@@YAXPAUaction@@@Z:PROC		; delCharParty
EXTRN	?setCharMind@@YAXPAUaction@@H@Z:PROC		; setCharMind
EXTRN	?setCharFukidashi@@YAXPAUaction@@I@Z:PROC	; setCharFukidashi
EXTRN	?setCharNameColor@@YAXPAUaction@@H@Z:PROC	; setCharNameColor
EXTRN	?setNpcCharObj@@YAXHHHHHPAD00H0HHHHHHHH@Z:PROC	; setNpcCharObj
EXTRN	?setReturnPetObj@@YAHHHHHHPAD0HHHHH@Z:PROC	; setReturnPetObj
EXTRN	?setItemCharObj@@YAXHHHHHHPAD@Z:PROC		; setItemCharObj
EXTRN	?setMoneyCharObj@@YAXHHHHHHPAD@Z:PROC		; setMoneyCharObj
EXTRN	?delCharObj@@YAXH@Z:PROC			; delCharObj
EXTRN	?resetCharObj@@YAXXZ:PROC			; resetCharObj
EXTRN	?getCharObjAct@@YAPAUaction@@H@Z:PROC		; getCharObjAct
EXTRN	?createPetAction@@YAPAUaction@@HHHHHHH@Z:PROC	; createPetAction
EXTRN	?TradeTalk@@YAXPAD@Z:PROC			; TradeTalk
EXTRN	?SaveMailHistory@@YAHH@Z:PROC			; SaveMailHistory
EXTRN	?CheckMailNoReadFlag@@YAHXZ:PROC		; CheckMailNoReadFlag
EXTRN	?DeathLetterAction@@YAXXZ:PROC			; DeathLetterAction
EXTRN	?BankmanInit@@YAXPAD@Z:PROC			; BankmanInit
EXTRN	?InitSelectChar@@YAXPADH@Z:PROC			; InitSelectChar
EXTRN	?Get@Mammoth@@SAAAV1@XZ:PROC			; Mammoth::Get
EXTRN	?Open@Mammoth@@QAEXPAD@Z:PROC			; Mammoth::Open
EXTRN	?openServerWindow@@YAXHHHHPAD@Z:PROC		; openServerWindow
EXTRN	?RealTimeToSATime@@YAXPAUtagLSTIME@@@Z:PROC	; RealTimeToSATime
EXTRN	?getLSTime@@YA?AW4LSTIME_SECTION@@PAUtagLSTIME@@@Z:PROC ; getLSTime
EXTRN	?play_se@@YAHHHH@Z:PROC				; play_se
EXTRN	?DoHellow@@YAXXZ:PROC				; DoHellow
EXTRN	?DoSKey@@YAXXZ:PROC				; DoSKey
EXTRN	?ecb_crypt@@YAHPAD0II@Z:PROC			; ecb_crypt
EXTRN	__imp__VMProtectBegin@4:PROC
EXTRN	__imp__VMProtectEnd@0:PROC
EXTRN	?initFamilyList@@YAXPAD@Z:PROC			; initFamilyList
EXTRN	?initFamilyDetail@@YAXPAD@Z:PROC		; initFamilyDetail
EXTRN	?initJoinChannel2WN@@YAXPAD@Z:PROC		; initJoinChannel2WN
EXTRN	?initFamilyTaxWN@@YAXPAD@Z:PROC			; initFamilyTaxWN
EXTRN	?initFamilyLeaderChange@@YAXPAD@Z:PROC		; initFamilyLeaderChange
EXTRN	?StreetVendorWndfunc@@YAX_NPAD@Z:PROC		; StreetVendorWndfunc
EXTRN	?StreetVendorBuyWndfunc@@YAXPAD@Z:PROC		; StreetVendorBuyWndfunc
EXTRN	?TeacherSystemWndfunc@@YAXHPAD@Z:PROC		; TeacherSystemWndfunc
EXTRN	@__security_check_cookie@4:PROC
EXTRN	__chkstk:PROC
EXTRN	_memset:PROC
EXTRN	?ProcNo@@3IA:DWORD				; ProcNo
EXTRN	?SubProcNo@@3IA:DWORD				; SubProcNo
EXTRN	?palNo@@3HA:DWORD				; palNo
EXTRN	?palTime@@3HA:DWORD				; palTime
EXTRN	?PersonalKey@@3PADA:BYTE			; PersonalKey
EXTRN	?NowMaxVoice@@3HA:DWORD				; NowMaxVoice
EXTRN	?sockfd@@3IA:DWORD				; sockfd
EXTRN	?server_choosed@@3HA:DWORD			; server_choosed
EXTRN	?init_net@@3HA:DWORD				; init_net
EXTRN	?disconnectServerFlag@@3HA:DWORD		; disconnectServerFlag
EXTRN	?oldDisconnectServerFlag@@3HA:DWORD		; oldDisconnectServerFlag
EXTRN	?SendCount@@3HA:DWORD				; SendCount
EXTRN	?sPetStatFlag@@3HA:DWORD			; sPetStatFlag
EXTRN	?pc@@3UPC@@A:BYTE				; pc
EXTRN	?selectPcNo@@3FA:WORD				; selectPcNo
EXTRN	?prSendFlag@@3FA:WORD				; prSendFlag
EXTRN	?jbSendFlag@@3FA:WORD				; jbSendFlag
EXTRN	?duelSendFlag@@3FA:WORD				; duelSendFlag
EXTRN	?helpFlag@@3FA:WORD				; helpFlag
EXTRN	?tradeStatus@@3FA:WORD				; tradeStatus
EXTRN	?magic@@3PAUMAGIC@@A:BYTE			; magic
EXTRN	?pet@@3PAUPET@@A:BYTE				; pet
EXTRN	?party@@3PAUPARTY@@A:BYTE			; party
EXTRN	?partyModeFlag@@3FA:WORD			; partyModeFlag
EXTRN	?addressBook@@3PAUADDRESS_BOOK@@A:BYTE		; addressBook
EXTRN	?battleResultMsg@@3UBATTLE_RESULT_MSG@@A:BYTE	; battleResultMsg
EXTRN	?petSkill@@3PAY06UPET_SKILL@@A:BYTE		; petSkill
EXTRN	?newCharacterName@@3PADA:BYTE			; newCharacterName
EXTRN	?newCharacterGraNo@@3HA:DWORD			; newCharacterGraNo
EXTRN	?newCharacterFaceGraNo@@3HA:DWORD		; newCharacterFaceGraNo
EXTRN	?newCharacterVit@@3HA:DWORD			; newCharacterVit
EXTRN	?newCharacterStr@@3HA:DWORD			; newCharacterStr
EXTRN	?newCharacterTgh@@3HA:DWORD			; newCharacterTgh
EXTRN	?newCharacterDex@@3HA:DWORD			; newCharacterDex
EXTRN	?newCharacterEarth@@3HA:DWORD			; newCharacterEarth
EXTRN	?newCharacterWater@@3HA:DWORD			; newCharacterWater
EXTRN	?newCharacterFire@@3HA:DWORD			; newCharacterFire
EXTRN	?newCharacterWind@@3HA:DWORD			; newCharacterWind
EXTRN	?newCharacterHomeTown@@3HA:DWORD		; newCharacterHomeTown
EXTRN	?profession_skill@@3PAUPROFESSION_SKILL@@A:BYTE	; profession_skill
EXTRN	?nowFloorName@@3PADA:BYTE			; nowFloorName
EXTRN	?nowFloor@@3HA:DWORD				; nowFloor
EXTRN	?nowFloorGxSize@@3HA:DWORD			; nowFloorGxSize
EXTRN	?nowFloorGySize@@3HA:DWORD			; nowFloorGySize
EXTRN	?nowGx@@3HA:DWORD				; nowGx
EXTRN	?nowGy@@3HA:DWORD				; nowGy
EXTRN	?nextGx@@3HA:DWORD				; nextGx
EXTRN	?nextGy@@3HA:DWORD				; nextGy
EXTRN	?mapEmptyFlag@@3HA:DWORD			; mapEmptyFlag
EXTRN	?nowEncountPercentage@@3FA:WORD			; nowEncountPercentage
EXTRN	?nowEncountExtra@@3FA:WORD			; nowEncountExtra
EXTRN	?minEncountPercentage@@3FA:WORD			; minEncountPercentage
EXTRN	?maxEncountPercentage@@3FA:WORD			; maxEncountPercentage
EXTRN	?sendEnFlag@@3FA:WORD				; sendEnFlag
EXTRN	?encountNowFlag@@3FA:WORD			; encountNowFlag
EXTRN	?eventWarpSendFlag@@3FA:WORD			; eventWarpSendFlag
EXTRN	?eventWarpSendId@@3FA:WORD			; eventWarpSendId
EXTRN	?eventEnemySendFlag@@3FA:WORD			; eventEnemySendFlag
EXTRN	?eventEnemySendId@@3FA:WORD			; eventEnemySendId
EXTRN	?eventEnemyFlag@@3FA:WORD			; eventEnemyFlag
EXTRN	?loginFlag@@3HA:DWORD				; loginFlag
EXTRN	?vsLookFlag@@3FA:WORD				; vsLookFlag
EXTRN	?floorChangeFlag@@3HA:DWORD			; floorChangeFlag
EXTRN	?warpEffectFlag@@3HA:DWORD			; warpEffectFlag
EXTRN	?warpEffectStart@@3HA:DWORD			; warpEffectStart
EXTRN	?warpEffectOk@@3HA:DWORD			; warpEffectOk
EXTRN	?transmigrationEffectFlag@@3HA:DWORD		; transmigrationEffectFlag
EXTRN	?mapEffectRainLevel@@3FA:WORD			; mapEffectRainLevel
EXTRN	?mapEffectSnowLevel@@3FA:WORD			; mapEffectSnowLevel
EXTRN	?mapEffectKamiFubukiLevel@@3FA:WORD		; mapEffectKamiFubukiLevel
EXTRN	?mapEffectHalloween@@3HA:DWORD			; mapEffectHalloween
EXTRN	?BattleCmdBak@@3PAY0BAAA@DA:BYTE		; BattleCmdBak
EXTRN	?BattleCmdReadPointer@@3HA:DWORD		; BattleCmdReadPointer
EXTRN	?BattleCmdWritePointer@@3HA:DWORD		; BattleCmdWritePointer
EXTRN	?BattleStatusBak@@3PAY0BAAA@DA:BYTE		; BattleStatusBak
EXTRN	?BattleStatusReadPointer@@3HA:DWORD		; BattleStatusReadPointer
EXTRN	?BattleStatusWritePointer@@3HA:DWORD		; BattleStatusWritePointer
EXTRN	?BattleMyNo@@3HA:DWORD				; BattleMyNo
EXTRN	?BattleMyMp@@3HA:DWORD				; BattleMyMp
EXTRN	?BattleEscFlag@@3HA:DWORD			; BattleEscFlag
EXTRN	?BattlePetStMenCnt@@3HA:DWORD			; BattlePetStMenCnt
EXTRN	?battlePetNoBak@@3HA:DWORD			; battlePetNoBak
EXTRN	?BattleBpFlag@@3HA:DWORD			; BattleBpFlag
EXTRN	?BattleAnimFlag@@3HA:DWORD			; BattleAnimFlag
EXTRN	?BattleTurnReceiveFlag@@3HA:DWORD		; BattleTurnReceiveFlag
EXTRN	?BattleCliTurnNo@@3HA:DWORD			; BattleCliTurnNo
EXTRN	?BattleSvTurnNo@@3HA:DWORD			; BattleSvTurnNo
EXTRN	?EncountFlag@@3HA:DWORD				; EncountFlag
EXTRN	?NoCastFlag@@3HA:DWORD				; NoCastFlag
EXTRN	?DuelFlag@@3HA:DWORD				; DuelFlag
EXTRN	?BattleMapNo@@3HA:DWORD				; BattleMapNo
EXTRN	?MenuToggleFlag@@3IA:DWORD			; MenuToggleFlag
EXTRN	?StatusUpPoint@@3HA:DWORD			; StatusUpPoint
EXTRN	?BattlePetReceiveFlag@@3HA:DWORD		; BattlePetReceiveFlag
EXTRN	?StandbyPetSendFlag@@3HA:DWORD			; StandbyPetSendFlag
EXTRN	?BattlePetReceivePetNo@@3HA:DWORD		; BattlePetReceivePetNo
EXTRN	?MailHistory@@3PAUMAIL_HISTORY@@A:BYTE		; MailHistory
EXTRN	?mailHistoryWndPageNo@@3HA:DWORD		; mailHistoryWndPageNo
EXTRN	?mailHistoryWndSelectNo@@3HA:DWORD		; mailHistoryWndSelectNo
EXTRN	?MapWmdFlagBak@@3HA:DWORD			; MapWmdFlagBak
EXTRN	?ItemMixRecvFlag@@3HA:DWORD			; ItemMixRecvFlag
EXTRN	?TalkMode@@3HA:DWORD				; TalkMode
EXTRN	?secretName@@3PADA:BYTE				; secretName
EXTRN	?logOutFlag@@3HA:DWORD				; logOutFlag
EXTRN	?MsgCooltime@@3IA:DWORD				; MsgCooltime
EXTRN	?SaTime@@3UtagLSTIME@@A:BYTE			; SaTime
EXTRN	?serverTime@@3JA:DWORD				; serverTime
EXTRN	?FirstTime@@3JA:DWORD				; FirstTime
EXTRN	?SaTimeZoneNo@@3HA:DWORD			; SaTimeZoneNo
EXTRN	?TimeZonePalChangeFlag@@3HA:DWORD		; TimeZonePalChangeFlag
EXTRN	?angelFlag@@3HA:DWORD				; angelFlag
EXTRN	?angelMsg@@3PADA:BYTE				; angelMsg
EXTRN	?drawTimeAnimeFlag@@3FA:WORD			; drawTimeAnimeFlag
EXTRN	?mailLamp@@3FA:WORD				; mailLamp
EXTRN	?serverAliveTime@@3PAUtm@@A:DWORD		; serverAliveTime
EXTRN	?serverAliveLongTime@@3_JA:QWORD		; serverAliveLongTime
EXTRN	?dwServer@@3KA:DWORD				; dwServer
EXTRN	?iWGS@@3HA:DWORD				; iWGS
EXTRN	?szWGS@@3PADA:BYTE				; szWGS
EXTRN	?wWGS@@3GA:WORD					; wWGS
EXTRN	?szCSIP@@3PADA:BYTE				; szCSIP
EXTRN	?wCS@@3GA:WORD					; wCS
EXTRN	?PcLanded@@3ULanded@@A:BYTE			; PcLanded
EXTRN	?szUser@@3PADA:BYTE				; szUser
EXTRN	?szPassword@@3PADA:BYTE				; szPassword
EXTRN	?iEncrypt@@3HA:DWORD				; iEncrypt
EXTRN	?NoDelay@@3HA:DWORD				; NoDelay
EXTRN	?g_Ü×?Ðï@@3HA:DWORD				; g_Ü×?Ðï
EXTRN	?itemWndMaxBag@@3HA:DWORD			; itemWndMaxBag
EXTRN	?g_bFastFight@@3HA:DWORD			; g_bFastFight
EXTRN	?g_flag_FastFight@@3HA:DWORD			; g_flag_FastFight
EXTRN	?g_bFastFight@@3HA:DWORD			; g_bFastFight
EXTRN	?m_bt@@3_NA:BYTE				; m_bt
EXTRN	?sStreetVendorBtn@@3FA:WORD			; sStreetVendorBtn
EXTRN	?sStreetVendorBuyBtn@@3FA:WORD			; sStreetVendorBuyBtn
EXTRN	?jobdaily@@3PAUJOBDAILY@@A:BYTE			; jobdaily
EXTRN	?JobdailyGetFlag@@3HA:DWORD			; JobdailyGetFlag
EXTRN	?JobdailyGetMax@@3HA:DWORD			; JobdailyGetMax
EXTRN	?sTeacherSystemBtn@@3FA:WORD			; sTeacherSystemBtn
EXTRN	?ÍëÍ±?Õá@@3HA:DWORD				; ÍëÍ±?Õá
EXTRN	?ÍëÍ±?é»@@3PADA:BYTE				; ÍëÍ±?é»
EXTRN	?ÍëÍ±?ßä@@3HA:DWORD				; ÍëÍ±?ßä
EXTRN	?ÍëÍ±??@@3HA:DWORD				; ÍëÍ±??
EXTRN	___security_cookie:DWORD
EXTRN	__fltused:DWORD
;	COMDAT ?_OptionsStorage@?1??__local_stdio_printf_options@@9@4_KA
_BSS	SEGMENT
?_OptionsStorage@?1??__local_stdio_printf_options@@9@4_KA DQ 01H DUP (?) ; `__local_stdio_printf_options'::`2'::_OptionsStorage
_BSS	ENDS
;	COMDAT ?_OptionsStorage@?1??__local_stdio_scanf_options@@9@4_KA
_BSS	SEGMENT
?_OptionsStorage@?1??__local_stdio_scanf_options@@9@4_KA DQ 01H DUP (?) ; `__local_stdio_scanf_options'::`2'::_OptionsStorage
_BSS	ENDS
;	COMDAT ?count@?1??connectServer@@YAHXZ@4HA
_BSS	SEGMENT
?count@?1??connectServer@@YAHXZ@4HA DD 01H DUP (?)	; `connectServer'::`2'::count
_BSS	ENDS
;	COMDAT ?pFile@?1??SaveChatData@@YAXPADD_N@Z@4PAPAU_iobuf@@A
_BSS	SEGMENT
?pFile@?1??SaveChatData@@YAXPADD_N@Z@4PAPAU_iobuf@@A DD 05H DUP (?) ; `SaveChatData'::`2'::pFile
_BSS	ENDS
;	COMDAT ?szFileName@?1??SaveChatData@@YAXPADD_N@Z@4PADA
_BSS	SEGMENT
?szFileName@?1??SaveChatData@@YAXPADD_N@Z@4PADA DB 0100H DUP (?) ; `SaveChatData'::`2'::szFileName
_BSS	ENDS
;	COMDAT ?nowTime@?1??SaveChatData@@YAXPADD_N@Z@4PAUtm@@A
_BSS	SEGMENT
?nowTime@?1??SaveChatData@@YAXPADD_N@Z@4PAUtm@@A DD 01H DUP (?) ; `SaveChatData'::`2'::nowTime
_BSS	ENDS
;	COMDAT ?longTime@?1??SaveChatData@@YAXPADD_N@Z@4_JA
_BSS	SEGMENT
?longTime@?1??SaveChatData@@YAXPADD_N@Z@4_JA DQ 01H DUP (?) ; `SaveChatData'::`2'::longTime
_BSS	ENDS
;	COMDAT __xmm@ffffffffffffffffffffffffffffffff
CONST	SEGMENT
__xmm@ffffffffffffffffffffffffffffffff DB 0ffH, 0ffH, 0ffH, 0ffH, 0ffH, 0ffH
	DB	0ffH, 0ffH, 0ffH, 0ffH, 0ffH, 0ffH, 0ffH, 0ffH, 0ffH, 0ffH
CONST	ENDS
;	COMDAT __xmm@45454545454545454545454545454545
CONST	SEGMENT
__xmm@45454545454545454545454545454545 DB 'EEEEEEEEEEEEEEEE'
CONST	ENDS
;	COMDAT ??_C@_04DIIKDPIA@FAME@
CONST	SEGMENT
??_C@_04DIIKDPIA@FAME@ DB 'FAME', 00H			; `string'
CONST	ENDS
;	COMDAT ??_C@_0O@PEDECIPG@?X?$NP?$DP?$DP?V?y?$DP?$DP?$DP?j?s?$DP?$DP@
CONST	SEGMENT
??_C@_0O@PEDECIPG@?X?$NP?$DP?$DP?V?y?$DP?$DP?$DP?j?s?$DP?$DP@ DB 0d8H, 0dfH
	DB	'??', 0d6H, 0f9H, '???', 0eaH, 0f3H, '??', 00H ; `string'
CONST	ENDS
;	COMDAT ??_C@_01EEMJAFIK@?6@
CONST	SEGMENT
??_C@_01EEMJAFIK@?6@ DB 0aH, 00H			; `string'
CONST	ENDS
;	COMDAT ??_C@_01MCMALHOG@a@
CONST	SEGMENT
??_C@_01MCMALHOG@a@ DB 'a', 00H				; `string'
CONST	ENDS
;	COMDAT ??_C@_0BG@JGFFJBEF@chat?2?$CF02d?$CF02d?$CF02d?4TXT@
CONST	SEGMENT
??_C@_0BG@JGFFJBEF@chat?2?$CF02d?$CF02d?$CF02d?4TXT@ DB 'chat\%02d%02d%02'
	DB	'd.TXT', 00H					; `string'
CONST	ENDS
;	COMDAT ??_C@_06BCPILJJG@CHANGE@
CONST	SEGMENT
??_C@_06BCPILJJG@CHANGE@ DB 'CHANGE', 00H		; `string'
CONST	ENDS
;	COMDAT ??_C@_01EJNLAFE@P@
CONST	SEGMENT
??_C@_01EJNLAFE@P@ DB 'P', 00H				; `string'
CONST	ENDS
;	COMDAT ??_C@_01DGKLNCNG@R@
CONST	SEGMENT
??_C@_01DGKLNCNG@R@ DB 'R', 00H				; `string'
CONST	ENDS
;	COMDAT ??_C@_01GAPBHFFA@T@
CONST	SEGMENT
??_C@_01GAPBHFFA@T@ DB 'T', 00H				; `string'
CONST	ENDS
;	COMDAT ??_C@_01BBODEMC@G@
CONST	SEGMENT
??_C@_01BBODEMC@G@ DB 'G', 00H				; `string'
CONST	ENDS
;	COMDAT ??_C@_01HMGJMAIH@B@
CONST	SEGMENT
??_C@_01HMGJMAIH@B@ DB 'B', 00H				; `string'
CONST	ENDS
;	COMDAT ??_C@_01OCOKONAJ@L@
CONST	SEGMENT
??_C@_01OCOKONAJ@L@ DB 'L', 00H				; `string'
CONST	ENDS
;	COMDAT ??_C@_01LELAEKIP@J@
CONST	SEGMENT
??_C@_01LELAEKIP@J@ DB 'J', 00H				; `string'
CONST	ENDS
;	COMDAT ??_C@_01GFHCPBMG@C@
CONST	SEGMENT
??_C@_01GFHCPBMG@C@ DB 'C', 00H				; `string'
CONST	ENDS
;	COMDAT ??_C@_01CKDDGHAB@D@
CONST	SEGMENT
??_C@_01CKDDGHAB@D@ DB 'D', 00H				; `string'
CONST	ENDS
;	COMDAT ??_C@_01BIAFAFID@F@
CONST	SEGMENT
??_C@_01BIAFAFID@F@ DB 'F', 00H				; `string'
CONST	ENDS
;	COMDAT ??_C@_01CPLAODJH@S@
CONST	SEGMENT
??_C@_01CPLAODJH@S@ DB 'S', 00H				; `string'
CONST	ENDS
;	COMDAT ??_C@_05OAJDDNFL@?c?w?$DP?$KD?$KB@
CONST	SEGMENT
??_C@_05OAJDDNFL@?c?w?$DP?$KD?$KB@ DB 0e3H, 0f7H, '?', 0a3H, 0a1H, 00H ; `string'
CONST	ENDS
;	COMDAT ??_C@_0BB@JIMIMFE@?b?$KF?S?p?$CFs?a?j?$DP?n?$NM?$DP?K?l?$KD?$KB@
CONST	SEGMENT
??_C@_0BB@JIMIMFE@?b?$KF?S?p?$CFs?a?j?$DP?n?$NM?$DP?K?l?$KD?$KB@ DB 0e2H, 0a5H
	DB	0d3H, 0f0H, '%s', 0e1H, 0eaH, '?', 0eeH, 0dcH, '?', 0cbH, 0ecH
	DB	0a3H, 0a1H, 00H				; `string'
CONST	ENDS
;	COMDAT ??_C@_0BE@MGOKMGBK@?b?$KF?S?p?$CFs?a?j?$DP?n?$NM?$DP?Z?$KK?$DP?K?l?$KD?$KB@
CONST	SEGMENT
??_C@_0BE@MGOKMGBK@?b?$KF?S?p?$CFs?a?j?$DP?n?$NM?$DP?Z?$KK?$DP?K?l?$KD?$KB@ DB 0e2H
	DB	0a5H, 0d3H, 0f0H, '%s', 0e1H, 0eaH, '?', 0eeH, 0dcH, '?', 0daH
	DB	0aaH, '?', 0cbH, 0ecH, 0a3H, 0a1H, 00H	; `string'
CONST	ENDS
;	COMDAT ??_C@_03ILJCGOLJ@?6?$CFs@
CONST	SEGMENT
??_C@_03ILJCGOLJ@?6?$CFs@ DB 0aH, '%s', 00H		; `string'
CONST	ENDS
;	COMDAT ??_C@_05HMDCACKA@?$CFX?$HM?$CFX@
CONST	SEGMENT
??_C@_05HMDCACKA@?$CFX?$HM?$CFX@ DB '%X|%X', 00H	; `string'
CONST	ENDS
;	COMDAT ??_C@_08EOJECCGN@?$CFX?$HM?$CFX?$HM?$CFX@
CONST	SEGMENT
??_C@_08EOJECCGN@?$CFX?$HM?$CFX?$HM?$CFX@ DB '%X|%X|%X', 00H ; `string'
CONST	ENDS
;	COMDAT ??_C@_0BK@NFKFNKL@?$NM?z?$DP?J?$KL?p?i?n?$KE?v?R?t?$LI?q?$PN?$PN?$KI?$DP?a?$LM?c?w?$DP?$KD?$KB@
CONST	SEGMENT
??_C@_0BK@NFKFNKL@?$NM?z?$DP?J?$KL?p?i?n?$KE?v?R?t?$LI?q?$PN?$PN?$KI?$DP?a?$LM?c?w?$DP?$KD?$KB@ DB 0dcH
	DB	0faH, '?', 0caH, 0abH, 0f0H, 0e9H, 0eeH, 0a4H, 0f6H, 0d2H, 0f4H
	DB	0b8H, 0f1H, 0fdH, 0fdH, 0a8H, '?', 0e1H, 0bcH, 0e3H, 0f7H, '?', 0a3H
	DB	0a1H, 00H					; `string'
CONST	ENDS
;	COMDAT ??_C@_0BB@ILDAKNL@?l?Q?Z?$KK?$NO?$PL?p?$LG?$DP?$DP?l?$KL?S?p?$KB?$KD@
CONST	SEGMENT
??_C@_0BB@ILDAKNL@?l?Q?Z?$KK?$NO?$PL?p?$LG?$DP?$DP?l?$KL?S?p?$KB?$KD@ DB 0ecH
	DB	0d1H, 0daH, 0aaH, 0deH, 0fbH, 0f0H, 0b6H, '??', 0ecH, 0abH, 0d3H
	DB	0f0H, 0a1H, 0a3H, 00H			; `string'
CONST	ENDS
;	COMDAT ??_C@_0BB@JFAECEMN@?l?Q?Z?$KK?p?$KE?m?B?$DP?$DP?l?$KL?S?p?$KB?$KD@
CONST	SEGMENT
??_C@_0BB@JFAECEMN@?l?Q?Z?$KK?p?$KE?m?B?$DP?$DP?l?$KL?S?p?$KB?$KD@ DB 0ecH
	DB	0d1H, 0daH, 0aaH, 0f0H, 0a4H, 0edH, 0c2H, '??', 0ecH, 0abH, 0d3H
	DB	0f0H, 0a1H, 0a3H, 00H			; `string'
CONST	ENDS
;	COMDAT ??_C@_0BH@DFPJGLLL@?$OA?w?X?$KB?V?$PN?t?$LI?c?x?$DP?p?$LG?$KD?$LC?$KD?$LA?$KD?$LA?$OA?$LE?$DP@
CONST	SEGMENT
??_C@_0BH@DFPJGLLL@?$OA?w?X?$KB?V?$PN?t?$LI?c?x?$DP?p?$LG?$KD?$LC?$KD?$LA?$KD?$LA?$OA?$LE?$DP@ DB 0e0H
	DB	0f7H, 0d8H, 0a1H, 0d6H, 0fdH, 0f4H, 0b8H, 0e3H, 0f8H, '?', 0f0H
	DB	0b6H, 0a3H, 0b2H, 0a3H, 0b0H, 0a3H, 0b0H, 0e0H, 0b4H, '?', 00H ; `string'
CONST	ENDS
;	COMDAT ??_C@_02OGAFBLMB@TE@
CONST	SEGMENT
??_C@_02OGAFBLMB@TE@ DB 'TE', 00H			; `string'
CONST	ENDS
;	COMDAT ??_C@_02HIIGDGEP@TK@
CONST	SEGMENT
??_C@_02HIIGDGEP@TK@ DB 'TK', 00H			; `string'
CONST	ENDS
;	COMDAT ??_C@_08NGKGAKGM@P?$HM?1XQ?5?$CFs@
CONST	SEGMENT
??_C@_08NGKGAKGM@P?$HM?1XQ?5?$CFs@ DB 'P|/XQ %s', 00H	; `string'
CONST	ENDS
;	COMDAT ??_C@_08IPPAKAEL@P?$HM?1WD?5?$CFs@
CONST	SEGMENT
??_C@_08IPPAKAEL@P?$HM?1WD?5?$CFs@ DB 'P|/WD %s', 00H	; `string'
CONST	ENDS
;	COMDAT ??_C@_08KCFIPDCG@T?$HM?$CFs?$KD?$LK?$CFs@
CONST	SEGMENT
??_C@_08KCFIPDCG@T?$HM?$CFs?$KD?$LK?$CFs@ DB 'T|%s', 0a3H, 0baH, '%s', 00H ; `string'
CONST	ENDS
;	COMDAT ??_C@_0N@INHGBDFL@P?$HM?1OCC?$CFs?$KD?$LK?$CFs@
CONST	SEGMENT
??_C@_0N@INHGBDFL@P?$HM?1OCC?$CFs?$KD?$LK?$CFs@ DB 'P|/OCC%s', 0a3H, 0baH
	DB	'%s', 00H					; `string'
CONST	ENDS
;	COMDAT ??_C@_07JGJAFNNL@P?$HM?1FM?$CFs@
CONST	SEGMENT
??_C@_07JGJAFNNL@P?$HM?1FM?$CFs@ DB 'P|/FM%s', 00H	; `string'
CONST	ENDS
;	COMDAT ??_C@_0L@BFDNBDBG@P?$HM?1tell?5?$CFs@
CONST	SEGMENT
??_C@_0L@BFDNBDBG@P?$HM?1tell?5?$CFs@ DB 'P|/tell %s', 00H ; `string'
CONST	ENDS
;	COMDAT ??_C@_03IKGEINEE@?$CFs?5@
CONST	SEGMENT
??_C@_03IKGEINEE@?$CFs?5@ DB '%s ', 00H			; `string'
CONST	ENDS
;	COMDAT ??_C@_01CLKCMJKC@?5@
CONST	SEGMENT
??_C@_01CLKCMJKC@?5@ DB ' ', 00H			; `string'
CONST	ENDS
;	COMDAT ??_C@_0BE@BFJFDKGC@?r?$KG?V?$LF?$NO?E?i?D?L?$KL?c?R?$NM?t?o?a?$DP?$KD?$KB@
CONST	SEGMENT
??_C@_0BE@BFJFDKGC@?r?$KG?V?$LF?$NO?E?i?D?L?$KL?c?R?$NM?t?o?a?$DP?$KD?$KB@ DB 0f2H
	DB	0a6H, 0d6H, 0b5H, 0deH, 0c5H, 0e9H, 0c4H, 0ccH, 0abH, 0e3H, 0d2H
	DB	0dcH, 0f4H, 0efH, 0e1H, '?', 0a3H, 0a1H, 00H	; `string'
CONST	ENDS
;	COMDAT ??_C@_04BKLDHGDD@P?$HM?$CFs@
CONST	SEGMENT
??_C@_04BKLDHGDD@P?$HM?$CFs@ DB 'P|%s', 00H		; `string'
CONST	ENDS
;	COMDAT ??_C@_08PFECBJKL@?$CFd?5Stone@
CONST	SEGMENT
??_C@_08PFECBJKL@?$CFd?5Stone@ DB '%d Stone', 00H	; `string'
CONST	ENDS
;	COMDAT ??_C@_0N@HKHEIDPM@?$DP?$DP?$DP?5memo?5?$DP?$DP?$DP@
CONST	SEGMENT
??_C@_0N@HKHEIDPM@?$DP?$DP?$DP?5memo?5?$DP?$DP?$DP@ DB '??? memo ???', 00H ; `string'
CONST	ENDS
;	COMDAT ??_C@_0N@GGCIJCKF@?$DP?$DP?$DP?5name?5?$DP?$DP?$DP@
CONST	SEGMENT
??_C@_0N@GGCIJCKF@?$DP?$DP?$DP?5name?5?$DP?$DP?$DP@ DB '??? name ???', 00H ; `string'
CONST	ENDS
;	COMDAT ??_C@_0M@OMPDAMON@data?$FL1?$FN?3?$CFs?6@
CONST	SEGMENT
??_C@_0M@OMPDAMON@data?$FL1?$FN?3?$CFs?6@ DB 'data[1]:%s', 0aH, 00H ; `string'
CONST	ENDS
;	COMDAT ??_C@_01NBENCBCI@?$CK@
CONST	SEGMENT
??_C@_01NBENCBCI@?$CK@ DB '*', 00H			; `string'
CONST	ENDS
;	COMDAT ??_C@_0BA@KHEOLEJA@?T?t?u?s?$DP?W?b?$DP?$DP?l?$KL?S?p?$KB?$KD@
CONST	SEGMENT
??_C@_0BA@KHEOLEJA@?T?t?u?s?$DP?W?b?$DP?$DP?l?$KL?S?p?$KB?$KD@ DB 0d4H, 0f4H
	DB	0f5H, 0f3H, '?', 0d7H, 0e2H, '??', 0ecH, 0abH, 0d3H, 0f0H, 0a1H
	DB	0a3H, 00H					; `string'
CONST	ENDS
;	COMDAT ??_C@_0BA@JFEMHLAM@?T?t?l?$PN?$DP?W?b?$DP?$DP?l?$KL?S?p?$KB?$KD@
CONST	SEGMENT
??_C@_0BA@JFEMHLAM@?T?t?l?$PN?$DP?W?b?$DP?$DP?l?$KL?S?p?$KB?$KD@ DB 0d4H, 0f4H
	DB	0ecH, 0fdH, '?', 0d7H, 0e2H, '??', 0ecH, 0abH, 0d3H, 0f0H, 0a1H
	DB	0a3H, 00H					; `string'
CONST	ENDS
;	COMDAT ??_C@_00CNPNBAHC@@
CONST	SEGMENT
??_C@_00CNPNBAHC@@ DB 00H				; `string'
CONST	ENDS
;	COMDAT ??_C@_03NOBDJFIO@301@
CONST	SEGMENT
??_C@_03NOBDJFIO@301@ DB '301', 00H			; `string'
CONST	ENDS
;	COMDAT ??_C@_0O@ENFKOFGC@CHANGE_GALAXY@
CONST	SEGMENT
??_C@_0O@ENFKOFGC@CHANGE_GALAXY@ DB 'CHANGE_GALAXY', 00H ; `string'
CONST	ENDS
;	COMDAT ??_C@_0N@OGLBPKPL@OUTOFSERVICE@
CONST	SEGMENT
??_C@_0N@OGLBPKPL@OUTOFSERVICE@ DB 'OUTOFSERVICE', 00H	; `string'
CONST	ENDS
;	COMDAT ??_C@_0L@LHCHIOPJ@successful@
CONST	SEGMENT
??_C@_0L@LHCHIOPJ@successful@ DB 'successful', 00H	; `string'
CONST	ENDS
;	COMDAT ??_C@_06ODACHPEO@failed@
CONST	SEGMENT
??_C@_06ODACHPEO@failed@ DB 'failed', 00H		; `string'
CONST	ENDS
;	COMDAT ??_C@_0BC@OCCGLCLB@?$DP?v?$KC?l?Q?Z?$KK?x?z?$DP?$DP?l?$KL?S?p?$KB?$KD@
CONST	SEGMENT
??_C@_0BC@OCCGLCLB@?$DP?v?$KC?l?Q?Z?$KK?x?z?$DP?$DP?l?$KL?S?p?$KB?$KD@ DB '?'
	DB	0f6H, 0a2H, 0ecH, 0d1H, 0daH, 0aaH, 0f8H, 0faH, '??', 0ecH, 0abH
	DB	0d3H, 0f0H, 0a1H, 0a3H, 00H			; `string'
CONST	ENDS
;	COMDAT ??_C@_02DKCKIIND@?$CFs@
CONST	SEGMENT
??_C@_02DKCKIIND@?$CFs@ DB '%s', 00H			; `string'
CONST	ENDS
;	COMDAT ??_C@_06ENLDJGGB@cancle@
CONST	SEGMENT
??_C@_06ENLDJGGB@cancle@ DB 'cancle', 00H		; `string'
CONST	ENDS
;	COMDAT ??_C@_02MFDMBIJM@ok@
CONST	SEGMENT
??_C@_02MFDMBIJM@ok@ DB 'ok', 00H			; `string'
CONST	ENDS
;	COMDAT ??_C@_08DDDJOECK@19761101@
CONST	SEGMENT
??_C@_08DDDJOECK@19761101@ DB '19761101', 00H		; `string'
CONST	ENDS
;	COMDAT ??_C@_09BACHGGGK@f?$DLencor1c@
CONST	SEGMENT
??_C@_09BACHGGGK@f?$DLencor1c@ DB 'f;encor1c', 00H	; `string'
CONST	ENDS
;	COMDAT ??_C@_05DAOAAINN@login@
CONST	SEGMENT
??_C@_05DAOAAINN@login@ DB 'login', 00H			; `string'
CONST	ENDS
;	COMDAT ??_C@_0BA@NDJIOBBC@?$OA?$LE?P?o?$DP?S?$NL?w?z?$NM?b?$NM?t?T?R@
CONST	SEGMENT
??_C@_0BA@NDJIOBBC@?$OA?$LE?P?o?$DP?S?$NL?w?z?$NM?b?$NM?t?T?R@ DB 0e0H, 0b4H
	DB	0d0H, 0efH, '?', 0d3H, 0dbH, 0f7H, 0faH, 0dcH, 0e2H, 0dcH, 0f4H
	DB	0d4H, 0d2H, 00H				; `string'
CONST	ENDS
;	COMDAT ??_C@_0BB@KFDLBKA@?$NO?C?$NM?W?P?o?Y?$KD?$DP?$NM?t?o?a?$DP?$KB?$KD@
CONST	SEGMENT
??_C@_0BB@KFDLBKA@?$NO?C?$NM?W?P?o?Y?$KD?$DP?$NM?t?o?a?$DP?$KB?$KD@ DB 0deH
	DB	0c3H, 0dcH, 0d7H, 0d0H, 0efH, 0d9H, 0a3H, '?', 0dcH, 0f4H, 0efH
	DB	0e1H, '?', 0a1H, 0a3H, 00H			; `string'
CONST	ENDS
;	COMDAT ??_C@_0N@LCBBLLOI@www?493sa?4com@
CONST	SEGMENT
??_C@_0N@LCBBLLOI@www?493sa?4com@ DB 'www.93sa.com', 00H ; `string'
CONST	ENDS
;	COMDAT ??_C@_0BC@PMNBOGBM@?$NO?C?$NM?W?P?o?$DP?o?H?$DP?$DP?l?$KL?S?p?$KB?$KD@
CONST	SEGMENT
??_C@_0BC@PMNBOGBM@?$NO?C?$NM?W?P?o?$DP?o?H?$DP?$DP?l?$KL?S?p?$KB?$KD@ DB 0deH
	DB	0c3H, 0dcH, 0d7H, 0d0H, 0efH, '?', 0efH, 0c8H, '??', 0ecH, 0abH
	DB	0d3H, 0f0H, 0a1H, 0a3H, 00H			; `string'
CONST	ENDS
;	COMDAT ??_C@_02ODPEBLOD@CS@
CONST	SEGMENT
??_C@_02ODPEBLOD@CS@ DB 'CS', 00H			; `string'
CONST	ENDS
;	COMDAT ??_C@_0CM@NBOLBDPM@?$LN?$LK?E?f?$LP?$KB?$MA?L?A?v?5?D?$KL?$LP?$MA?$LN?$LK?$LM?$KN?$LJ?v?$LE?B?5?G?v?$MA?g?5?A?$KB@
CONST	SEGMENT
??_C@_0CM@NBOLBDPM@?$LN?$LK?E?f?$LP?$KB?$MA?L?A?v?5?D?$KL?$LP?$MA?$LN?$LK?$LM?$KN?$LJ?v?$LE?B?5?G?v?$MA?g?5?A?$KB@ DB 0bdH
	DB	0baH, 0c5H, 0e6H, 0bfH, 0a1H, 0c0H, 0ccH, 0c1H, 0f6H, ' ', 0c4H
	DB	0abH, 0bfH, 0c0H, 0bdH, 0baH, 0bcH, 0adH, 0b9H, 0f6H, 0b4H, 0c2H
	DB	' ', 0c7H, 0f6H, 0c0H, 0e7H, ' ', 0c1H, 0a1H, 0b0H, 0cbH, ' ', 0c1H
	DB	0dfH, 0c0H, 0d4H, 0b4H, 0cfH, 0b4H, 0d9H, '.', 00H ; `string'
CONST	ENDS
;	COMDAT ??_C@_0O@KDOBPHMN@?$DP?V?X?$DP?Z?$LB?q?W?$DP?$PL?$LP?$KB?$KD@
CONST	SEGMENT
??_C@_0O@KDOBPHMN@?$DP?V?X?$DP?Z?$LB?q?W?$DP?$PL?$LP?$KB?$KD@ DB '?', 0d6H
	DB	0d8H, '?', 0daH, 0b1H, 0f1H, 0d7H, '?', 0fbH, 0bfH, 0a1H, 0a3H
	DB	00H						; `string'
CONST	ENDS
;	COMDAT ??_C@_0BI@CKHMFIAG@?Y?i?$NL?v?$DP?c?$LH?$DP?z?$LM?$NO?C?$NM?W?P?o?n?$NM?$DP?o?H?$KB?$KD@
CONST	SEGMENT
??_C@_0BI@CKHMFIAG@?Y?i?$NL?v?$DP?c?$LH?$DP?z?$LM?$NO?C?$NM?W?P?o?n?$NM?$DP?o?H?$KB?$KD@ DB 0d9H
	DB	0e9H, 0dbH, 0f6H, '?', 0e3H, 0b7H, '?', 0faH, 0bcH, 0deH, 0c3H
	DB	0dcH, 0d7H, 0d0H, 0efH, 0eeH, 0dcH, '?', 0efH, 0c8H, 0a1H, 0a3H
	DB	00H						; `string'
CONST	ENDS
;	COMDAT ??_C@_0BO@BHPEJLIB@?Y?i?$NL?v?$DP?T?p?$NO?C?$NM?W?P?o?n?$NM?$KD?I?$KD?P?j?H?v?G?$KB?$KD?$CI?$CFs?$CJ@
CONST	SEGMENT
??_C@_0BO@BHPEJLIB@?Y?i?$NL?v?$DP?T?p?$NO?C?$NM?W?P?o?n?$NM?$KD?I?$KD?P?j?H?v?G?$KB?$KD?$CI?$CFs?$CJ@ DB 0d9H
	DB	0e9H, 0dbH, 0f6H, '?', 0d4H, 0f0H, 0deH, 0c3H, 0dcH, 0d7H, 0d0H
	DB	0efH, 0eeH, 0dcH, 0a3H, 0c9H, 0a3H, 0d0H, 0eaH, 0c8H, 0f6H, 0c7H
	DB	0a1H, 0a3H, '(%s)', 00H			; `string'
CONST	ENDS
;	COMDAT ??_C@_03GMCCICCK@WGS@
CONST	SEGMENT
??_C@_03GMCCICCK@WGS@ DB 'WGS', 00H			; `string'
CONST	ENDS
;	COMDAT ??_C@_0BF@JAKPHLLB@?Y?i?$NL?v?$DP?z?$LMsocket?n?$NMTCP?$KB?$KD@
CONST	SEGMENT
??_C@_0BF@JAKPHLLB@?Y?i?$NL?v?$DP?z?$LMsocket?n?$NMTCP?$KB?$KD@ DB 0d9H, 0e9H
	DB	0dbH, 0f6H, '?', 0faH, 0bcH, 'socket', 0eeH, 0dcH, 'TCP', 0a1H
	DB	0a3H, 00H					; `string'
CONST	ENDS
;	COMDAT ??_C@_0L@INAHAGEI@?b?$KF?S?p?$KD?$LK?7?$CFs?6@
CONST	SEGMENT
??_C@_0L@INAHAGEI@?b?$KF?S?p?$KD?$LK?7?$CFs?6@ DB 0e2H, 0a5H, 0d3H, 0f0H, 0a3H
	DB	0baH, 09H, '%s', 0aH, 00H			; `string'
CONST	ENDS
;	COMDAT ??_C@_02DPNLHKJD@a?$CL@
CONST	SEGMENT
??_C@_02DPNLHKJD@a?$CL@ DB 'a+', 00H			; `string'
CONST	ENDS
;	COMDAT ??_C@_0N@OFOPBFLC@recvdata?4txt@
CONST	SEGMENT
??_C@_0N@OFOPBFLC@recvdata?4txt@ DB 'recvdata.txt', 00H	; `string'
CONST	ENDS
; Function compile flags: /Ogtp
; File \\VBOXSVR\_stoneage\repos\ssm-sacli\system\netproc.cpp
;	COMDAT ?checksum@@YAGPAGH@Z
_TEXT	SEGMENT
$T1 = -4						; size = 4
_buffer$ = 8						; size = 4
_size$ = 12						; size = 4
?checksum@@YAGPAGH@Z PROC				; checksum, COMDAT

; 4328 : {

  00000	55		 push	 ebp
  00001	8b ec		 mov	 ebp, esp
  00003	51		 push	 ecx

; 4329 : 	unsigned long cksum=0;
; 4330 : 	while( size > 1){

  00004	8b 4d 08	 mov	 ecx, DWORD PTR _buffer$[ebp]
  00007	33 c0		 xor	 eax, eax
  00009	53		 push	 ebx
  0000a	56		 push	 esi
  0000b	57		 push	 edi
  0000c	8b 7d 0c	 mov	 edi, DWORD PTR _size$[ebp]
  0000f	33 db		 xor	 ebx, ebx
  00011	33 f6		 xor	 esi, esi
  00013	89 45 fc	 mov	 DWORD PTR $T1[ebp], eax
  00016	83 ff 04	 cmp	 edi, 4
  00019	7c 2c		 jl	 SHORT $LC10@checksum

; 4328 : {

  0001b	8d 57 fc	 lea	 edx, DWORD PTR [edi-4]
  0001e	c1 ea 02	 shr	 edx, 2
  00021	42		 inc	 edx
  00022	8b c2		 mov	 eax, edx
  00024	f7 d8		 neg	 eax
  00026	8d 3c 87	 lea	 edi, DWORD PTR [edi+eax*4]
  00029	0f 1f 80 00 00
	00 00		 npad	 7

; 4329 : 	unsigned long cksum=0;
; 4330 : 	while( size > 1){

$LL11@checksum:

; 4331 : 		cksum += *buffer++;

  00030	0f b7 01	 movzx	 eax, WORD PTR [ecx]
  00033	03 d8		 add	 ebx, eax
  00035	0f b7 41 02	 movzx	 eax, WORD PTR [ecx+2]
  00039	01 45 fc	 add	 DWORD PTR $T1[ebp], eax
  0003c	83 c1 04	 add	 ecx, 4
  0003f	83 ea 01	 sub	 edx, 1
  00042	75 ec		 jne	 SHORT $LL11@checksum

; 4329 : 	unsigned long cksum=0;
; 4330 : 	while( size > 1){

  00044	8b 45 fc	 mov	 eax, DWORD PTR $T1[ebp]
$LC10@checksum:
  00047	83 ff 01	 cmp	 edi, 1
  0004a	7e 09		 jle	 SHORT $LN9@checksum

; 4331 : 		cksum += *buffer++;

  0004c	0f b7 31	 movzx	 esi, WORD PTR [ecx]
  0004f	83 c1 02	 add	 ecx, 2

; 4332 : 		size -=sizeof(USHORT);

  00052	83 ef 02	 sub	 edi, 2
$LN9@checksum:

; 4333 : 	}
; 4334 : 	if ( size)

  00055	03 c3		 add	 eax, ebx
  00057	03 f0		 add	 esi, eax
  00059	85 ff		 test	 edi, edi
  0005b	74 05		 je	 SHORT $LN4@checksum

; 4335 : 		cksum += *(UCHAR*)buffer;

  0005d	0f b6 01	 movzx	 eax, BYTE PTR [ecx]
  00060	03 f0		 add	 esi, eax
$LN4@checksum:

; 4336 : 	cksum = (cksum >> 16) + (cksum & 0xffff);

  00062	8b ce		 mov	 ecx, esi
  00064	0f b7 c6	 movzx	 eax, si
  00067	c1 e9 10	 shr	 ecx, 16			; 00000010H
  0006a	03 c8		 add	 ecx, eax

; 4337 : 	cksum += (cksum >>16);

  0006c	8b c1		 mov	 eax, ecx
  0006e	c1 e8 10	 shr	 eax, 16			; 00000010H

; 4338 : 	return (USHORT)(~cksum);

  00071	5f		 pop	 edi
  00072	03 c1		 add	 eax, ecx
  00074	5e		 pop	 esi
  00075	f7 d0		 not	 eax
  00077	5b		 pop	 ebx

; 4339 : }

  00078	8b e5		 mov	 esp, ebp
  0007a	5d		 pop	 ebp
  0007b	c3		 ret	 0
?checksum@@YAGPAGH@Z ENDP				; checksum
_TEXT	ENDS
; Function compile flags: /Ogtp
; File \\VBOXSVR\_stoneage\repos\ssm-sacli\system\netproc.cpp
;	COMDAT ?lssproto_ACI_recv@@YAXHPAD@Z
_TEXT	SEGMENT
_fd$ = 8						; size = 4
_data$ = 12						; size = 4
?lssproto_ACI_recv@@YAXHPAD@Z PROC			; lssproto_ACI_recv, COMDAT

; 4193 : 
; 4194 : }

  00000	c2 00 00	 ret	 0
?lssproto_ACI_recv@@YAXHPAD@Z ENDP			; lssproto_ACI_recv
_TEXT	ENDS
; Function compile flags: /Ogtp
; File \\VBOXSVR\_stoneage\repos\ssm-sacli\system\netproc.cpp
;	COMDAT ?lssproto_IS_recv@@YAXHPAD@Z
_TEXT	SEGMENT
_fd$ = 8						; size = 4
_cdata$ = 12						; size = 4
?lssproto_IS_recv@@YAXHPAD@Z PROC			; lssproto_IS_recv, COMDAT

; 3794 : }

  00000	c2 00 00	 ret	 0
?lssproto_IS_recv@@YAXHPAD@Z ENDP			; lssproto_IS_recv
_TEXT	ENDS
; Function compile flags: /Ogtp
; File \\VBOXSVR\_stoneage\repos\ssm-sacli\system\netproc.cpp
;	COMDAT ?lssproto_W_recv@@YAXHHHH@Z
_TEXT	SEGMENT
_fd$ = 8						; size = 4
_id$ = 12						; size = 4
_x$ = 16						; size = 4
_y$ = 20						; size = 4
?lssproto_W_recv@@YAXHHHH@Z PROC			; lssproto_W_recv, COMDAT

; 2597 : 	// ??????îœ˜î˜‹???????????
; 2598 : 	// ??????????????????????
; 2599 : }

  00000	c2 00 00	 ret	 0
?lssproto_W_recv@@YAXHHHH@Z ENDP			; lssproto_W_recv
_TEXT	ENDS
; Function compile flags: /Ogtp
; File \\VBOXSVR\_stoneage\repos\ssm-sacli\system\netproc.cpp
;	COMDAT ?PingFunc@@YGKPAX@Z
_TEXT	SEGMENT
_fromlen$ = -2092					; size = 4
_timeout$ = -2088					; size = 4
_from$ = -2084						; size = 16
_dest$ = -2068						; size = 16
_recvbuf$ = -2052					; size = 1024
_icmp_data$ = -1028					; size = 1024
__$ArrayPad$ = -4					; size = 4
_param$ = 8						; size = 4
?PingFunc@@YGKPAX@Z PROC				; PingFunc, COMDAT

; 4344 : {

  00000	55		 push	 ebp
  00001	8b ec		 mov	 ebp, esp
  00003	81 ec 2c 08 00
	00		 sub	 esp, 2092		; 0000082cH
  00009	a1 00 00 00 00	 mov	 eax, DWORD PTR ___security_cookie
  0000e	33 c5		 xor	 eax, ebp
  00010	89 45 fc	 mov	 DWORD PTR __$ArrayPad$[ebp], eax
  00013	8b 45 08	 mov	 eax, DWORD PTR _param$[ebp]
  00016	0f 57 c0	 xorps	 xmm0, xmm0
  00019	53		 push	 ebx

; 4345 : 	struct sockaddr_in from;
; 4346 : 	struct sockaddr_in dest;
; 4347 : 	int datasize;
; 4348 : 	int fromlen = sizeof(from);
; 4349 : 	int timeout = 1000;
; 4350 : 	IcmpHeader *icmp_hdr;
; 4351 : 
; 4352 : 	char icmp_data[MAX_PACKET];
; 4353 : 	char recvbuf[MAX_PACKET];
; 4354 : 	USHORT seq_no = 0;
; 4355 : 
; 4356 : 	ZeroMemory( &dest, sizeof(dest));

  0001a	0f 11 85 ec f7
	ff ff		 movups	 XMMWORD PTR _dest$[ebp], xmm0
  00021	56		 push	 esi

; 4357 : 	memcpy( &(dest.sin_addr), (void*)param, 4);

  00022	8b 00		 mov	 eax, DWORD PTR [eax]
  00024	89 85 f0 f7 ff
	ff		 mov	 DWORD PTR _dest$[ebp+4], eax

; 4358 : 	dest.sin_family = AF_INET;

  0002a	b8 02 00 00 00	 mov	 eax, 2
  0002f	57		 push	 edi
  00030	66 89 85 ec f7
	ff ff		 mov	 WORD PTR _dest$[ebp], ax
  00037	33 ff		 xor	 edi, edi

; 4359 : 	if ( sockRaw != INVALID_SOCKET){

  00039	a1 00 00 00 00	 mov	 eax, DWORD PTR ?sockRaw@@3IA ; sockRaw
  0003e	c7 85 d4 f7 ff
	ff 10 00 00 00	 mov	 DWORD PTR _fromlen$[ebp], 16 ; 00000010H
  00048	c7 85 d8 f7 ff
	ff e8 03 00 00	 mov	 DWORD PTR _timeout$[ebp], 1000 ; 000003e8H
  00052	83 f8 ff	 cmp	 eax, -1
  00055	74 10		 je	 SHORT $LN6@PingFunc

; 4360 : 		closesocket( sockRaw);

  00057	50		 push	 eax
  00058	e8 00 00 00 00	 call	 _closesocket@4

; 4361 : 		sockRaw = INVALID_SOCKET;

  0005d	c7 05 00 00 00
	00 ff ff ff ff	 mov	 DWORD PTR ?sockRaw@@3IA, -1 ; sockRaw
$LN6@PingFunc:

; 4362 : 	}
; 4363 : 	sockRaw = socket( AF_INET, SOCK_RAW, IPPROTO_ICMP);

  00067	6a 01		 push	 1
  00069	6a 03		 push	 3
  0006b	6a 02		 push	 2
  0006d	e8 00 00 00 00	 call	 _socket@12
  00072	a3 00 00 00 00	 mov	 DWORD PTR ?sockRaw@@3IA, eax ; sockRaw

; 4364 : 	if ( sockRaw != INVALID_SOCKET){

  00077	83 f8 ff	 cmp	 eax, -1
  0007a	0f 84 18 02 00
	00		 je	 $LN38@PingFunc

; 4365 : 		iRead = setsockopt( sockRaw, SOL_SOCKET, SO_RCVTIMEO, (char*)&timeout, sizeof(timeout));

  00080	6a 04		 push	 4
  00082	8d 8d d8 f7 ff
	ff		 lea	 ecx, DWORD PTR _timeout$[ebp]
  00088	51		 push	 ecx
  00089	68 06 10 00 00	 push	 4102			; 00001006H
  0008e	68 ff ff 00 00	 push	 65535			; 0000ffffH
  00093	50		 push	 eax
  00094	e8 00 00 00 00	 call	 _setsockopt@20
  00099	a3 00 00 00 00	 mov	 DWORD PTR ?iRead@@3HA, eax ; iRead

; 4366 : 		if ( iRead != SOCKET_ERROR){

  0009e	83 f8 ff	 cmp	 eax, -1
  000a1	0f 84 f1 01 00
	00		 je	 $LN38@PingFunc

; 4367 : 			timeout = 1000;
; 4368 : 			iRead = setsockopt( sockRaw, SOL_SOCKET, SO_SNDTIMEO, (char*)&timeout, sizeof(timeout));

  000a7	6a 04		 push	 4
  000a9	8d 85 d8 f7 ff
	ff		 lea	 eax, DWORD PTR _timeout$[ebp]
  000af	c7 85 d8 f7 ff
	ff e8 03 00 00	 mov	 DWORD PTR _timeout$[ebp], 1000 ; 000003e8H
  000b9	50		 push	 eax
  000ba	68 05 10 00 00	 push	 4101			; 00001005H
  000bf	68 ff ff 00 00	 push	 65535			; 0000ffffH
  000c4	ff 35 00 00 00
	00		 push	 DWORD PTR ?sockRaw@@3IA	; sockRaw
  000ca	e8 00 00 00 00	 call	 _setsockopt@20
  000cf	a3 00 00 00 00	 mov	 DWORD PTR ?iRead@@3HA, eax ; iRead

; 4369 : 			if ( iRead != SOCKET_ERROR){

  000d4	83 f8 ff	 cmp	 eax, -1
  000d7	0f 84 bb 01 00
	00		 je	 $LN38@PingFunc

; 4370 : 				datasize = DEF_PACKET_SIZE + sizeof(IcmpHeader);  
; 4371 : 
; 4372 : 				icmp_hdr = (IcmpHeader*)icmp_data;
; 4373 : 				icmp_hdr->i_type = ICMP_ECHO;
; 4374 : 				icmp_hdr->i_code = 0;
; 4375 : 				icmp_hdr->i_id = (USHORT)GetCurrentProcessId();

  000dd	8b 1d 00 00 00
	00		 mov	 ebx, DWORD PTR __imp__GetCurrentProcessId@0
  000e3	66 c7 85 fc fb
	ff ff 08 00	 mov	 WORD PTR _icmp_data$[ebp], 8
  000ec	ff d3		 call	 ebx

; 4376 : 				icmp_hdr->i_cksum = 0;
; 4377 : 				icmp_hdr->i_seq = 0;
; 4378 : 				memset( icmp_data+sizeof(IcmpHeader), 'E', datasize - sizeof(IcmpHeader));

  000ee	0f 28 05 00 00
	00 00		 movaps	 xmm0, XMMWORD PTR __xmm@45454545454545454545454545454545
  000f5	66 89 85 00 fc
	ff ff		 mov	 WORD PTR _icmp_data$[ebp+4], ax
  000fc	0f 11 85 08 fc
	ff ff		 movups	 XMMWORD PTR _icmp_data$[ebp+12], xmm0
  00103	0f 11 85 18 fc
	ff ff		 movups	 XMMWORD PTR _icmp_data$[ebp+28], xmm0
$LN40@PingFunc:

; 4379 : 				while( 1){
; 4380 : 			//		dwPingState = 0;
; 4381 : 					((IcmpHeader*)icmp_data)->i_cksum = 0;

  0010a	be 00 00 00 04	 mov	 esi, 67108864		; 04000000H
  0010f	90		 npad	 1
$LL2@PingFunc:
  00110	33 c0		 xor	 eax, eax
  00112	66 89 85 fe fb
	ff ff		 mov	 WORD PTR _icmp_data$[ebp+2], ax

; 4382 : 					((IcmpHeader*)icmp_data)->timestamp = GetTickCount();

  00119	ff 15 00 00 00
	00		 call	 DWORD PTR __imp__GetTickCount@0
  0011f	89 85 04 fc ff
	ff		 mov	 DWORD PTR _icmp_data$[ebp+8], eax

; 4383 : 					
; 4384 : 					((IcmpHeader*)icmp_data)->i_seq = seq_no;
; 4385 : 					((IcmpHeader*)icmp_data)->i_cksum = checksum( (USHORT*)icmp_data, datasize);

  00125	8d 85 fc fb ff
	ff		 lea	 eax, DWORD PTR _icmp_data$[ebp]
  0012b	6a 2c		 push	 44			; 0000002cH
  0012d	50		 push	 eax
  0012e	66 89 bd 02 fc
	ff ff		 mov	 WORD PTR _icmp_data$[ebp+6], di
  00135	e8 00 00 00 00	 call	 ?checksum@@YAGPAGH@Z	; checksum
  0013a	83 c4 08	 add	 esp, 8
  0013d	66 89 85 fe fb
	ff ff		 mov	 WORD PTR _icmp_data$[ebp+2], ax

; 4386 : 					
; 4387 : 					iWrote = sendto( sockRaw, icmp_data, datasize, 0, (struct sockaddr*)&dest, sizeof(struct sockaddr));

  00144	8d 85 ec f7 ff
	ff		 lea	 eax, DWORD PTR _dest$[ebp]
  0014a	6a 10		 push	 16			; 00000010H
  0014c	50		 push	 eax
  0014d	6a 00		 push	 0
  0014f	6a 2c		 push	 44			; 0000002cH
  00151	8d 85 fc fb ff
	ff		 lea	 eax, DWORD PTR _icmp_data$[ebp]
  00157	50		 push	 eax
  00158	ff 35 00 00 00
	00		 push	 DWORD PTR ?sockRaw@@3IA	; sockRaw
  0015e	e8 00 00 00 00	 call	 _sendto@24
  00163	8b c8		 mov	 ecx, eax
  00165	89 0d 00 00 00
	00		 mov	 DWORD PTR ?iWrote@@3HA, ecx ; iWrote

; 4388 : 					if ( iWrote == SOCKET_ERROR){

  0016b	83 f9 ff	 cmp	 ecx, -1
  0016e	75 2c		 jne	 SHORT $LN10@PingFunc

; 4389 : 						if ( WSAGetLastError() == WSAETIMEDOUT){

  00170	e8 00 00 00 00	 call	 _WSAGetLastError@0
  00175	3d 4c 27 00 00	 cmp	 eax, 10060		; 0000274cH
  0017a	75 0c		 jne	 SHORT $LN11@PingFunc

; 4390 : 							dwPingTime = -1;

  0017c	c7 05 00 00 00
	00 ff ff ff ff	 mov	 DWORD PTR ?dwPingTime@@3KA, -1 ; dwPingTime

; 4391 : 							continue;

  00186	eb 88		 jmp	 SHORT $LL2@PingFunc
$LN11@PingFunc:

; 4392 : 						}
; 4393 : 						dwPingState = 0x40000000 | WSAGetLastError();

  00188	e8 00 00 00 00	 call	 _WSAGetLastError@0
  0018d	0d 00 00 00 40	 or	 eax, 1073741824		; 40000000H
  00192	a3 00 00 00 00	 mov	 DWORD PTR ?dwPingState@@3KA, eax ; dwPingState

; 4394 : 						continue;

  00197	e9 74 ff ff ff	 jmp	 $LL2@PingFunc
$LN10@PingFunc:

; 4395 : 					}
; 4396 : 					if ( iWrote < datasize)

  0019c	a1 00 00 00 00	 mov	 eax, DWORD PTR ?dwPingState@@3KA ; dwPingState
  001a1	83 f9 2c	 cmp	 ecx, 44			; 0000002cH
  001a4	0f 4c c6	 cmovl	 eax, esi
$LN39@PingFunc:

; 4397 : 						dwPingState = 0x04000000;//len error
; 4398 : 					while( 1){
; 4399 : 						iRead = recvfrom( sockRaw, recvbuf, MAX_PACKET, 0, (struct sockaddr*)&from, &fromlen);

  001a7	a3 00 00 00 00	 mov	 DWORD PTR ?dwPingState@@3KA, eax ; dwPingState
  001ac	0f 1f 40 00	 npad	 4
$LL4@PingFunc:
  001b0	8d 85 d4 f7 ff
	ff		 lea	 eax, DWORD PTR _fromlen$[ebp]
  001b6	50		 push	 eax
  001b7	8d 85 dc f7 ff
	ff		 lea	 eax, DWORD PTR _from$[ebp]
  001bd	50		 push	 eax
  001be	6a 00		 push	 0
  001c0	68 00 04 00 00	 push	 1024			; 00000400H
  001c5	8d 85 fc f7 ff
	ff		 lea	 eax, DWORD PTR _recvbuf$[ebp]
  001cb	50		 push	 eax
  001cc	ff 35 00 00 00
	00		 push	 DWORD PTR ?sockRaw@@3IA	; sockRaw
  001d2	e8 00 00 00 00	 call	 _recvfrom@24
  001d7	8b d0		 mov	 edx, eax
  001d9	89 15 00 00 00
	00		 mov	 DWORD PTR ?iRead@@3HA, edx ; iRead

; 4400 : 						if ( iRead == SOCKET_ERROR){

  001df	83 fa ff	 cmp	 edx, -1
  001e2	75 18		 jne	 SHORT $LN13@PingFunc

; 4401 : 							if ( WSAGetLastError() == WSAETIMEDOUT){

  001e4	e8 00 00 00 00	 call	 _WSAGetLastError@0
  001e9	3d 4c 27 00 00	 cmp	 eax, 10060		; 0000274cH
  001ee	74 76		 je	 SHORT $LN28@PingFunc

; 4404 : 							}
; 4405 : 							dwPingState = 0x40000000 | WSAGetLastError();

  001f0	e8 00 00 00 00	 call	 _WSAGetLastError@0
  001f5	0d 00 00 00 40	 or	 eax, 1073741824		; 40000000H

; 4406 : 							continue;

  001fa	eb ab		 jmp	 SHORT $LN39@PingFunc
$LN13@PingFunc:

; 4407 : 						}
; 4408 : 						IpHeader *iphdr;
; 4409 : 						unsigned short iphdrlen;
; 4410 : 						iphdr = (IpHeader *)recvbuf;
; 4411 : 						iphdrlen = iphdr->h_len * 4 ; // number of 32-bit words *4 = bytes

  001fc	8b 85 fc f7 ff
	ff		 mov	 eax, DWORD PTR _recvbuf$[ebp]

; 4412 : 						if ( iRead < iphdrlen + ICMP_MIN)

  00202	8b 0d 00 00 00
	00		 mov	 ecx, DWORD PTR ?dwPingState@@3KA ; dwPingState
  00208	83 e0 0f	 and	 eax, 15			; 0000000fH
  0020b	c1 e0 02	 shl	 eax, 2
  0020e	0f b7 f0	 movzx	 esi, ax
  00211	8d 46 08	 lea	 eax, DWORD PTR [esi+8]
  00214	3b d0		 cmp	 edx, eax
  00216	b8 00 00 00 08	 mov	 eax, 134217728		; 08000000H
  0021b	0f 4c c8	 cmovl	 ecx, eax

; 4413 : 							dwPingState = 0x08000000;//len error
; 4414 : 						icmp_hdr = (IcmpHeader*)(recvbuf + iphdrlen);
; 4415 : 						if ( icmp_hdr->i_type != ICMP_ECHOREPLY){

  0021e	80 bc 35 fc f7
	ff ff 00	 cmp	 BYTE PTR _recvbuf$[ebp+esi], 0
  00226	89 0d 00 00 00
	00		 mov	 DWORD PTR ?dwPingState@@3KA, ecx ; dwPingState
  0022c	74 0f		 je	 SHORT $LN16@PingFunc

; 4416 : 							dwPingState = 0x10000000;//non-echo type recvd

  0022e	c7 05 00 00 00
	00 00 00 00 10	 mov	 DWORD PTR ?dwPingState@@3KA, 268435456 ; dwPingState, 10000000H

; 4417 : 							continue;

  00238	e9 73 ff ff ff	 jmp	 $LL4@PingFunc
$LN16@PingFunc:

; 4418 : 						}
; 4419 : 						if ( icmp_hdr->i_seq != seq_no)

  0023d	66 39 bc 35 02
	f8 ff ff	 cmp	 WORD PTR _recvbuf$[ebp+esi+6], di
  00245	0f 85 65 ff ff
	ff		 jne	 $LL4@PingFunc

; 4420 : 							continue;
; 4421 : 						if ( icmp_hdr->i_id != (USHORT)GetCurrentProcessId()){

  0024b	ff d3		 call	 ebx
  0024d	66 39 84 35 00
	f8 ff ff	 cmp	 WORD PTR _recvbuf$[ebp+esi+4], ax
  00255	74 14		 je	 SHORT $LN18@PingFunc

; 4422 : 							dwPingState = 0x20000000;//someone else's packet!

  00257	c7 05 00 00 00
	00 00 00 00 20	 mov	 DWORD PTR ?dwPingState@@3KA, 536870912 ; dwPingState, 20000000H

; 4423 : 							continue;

  00261	e9 4a ff ff ff	 jmp	 $LL4@PingFunc
$LN28@PingFunc:

; 4402 : 								dwPingTime = -1;

  00266	83 c8 ff	 or	 eax, -1

; 4403 : 								break;

  00269	eb 0d		 jmp	 SHORT $LN5@PingFunc
$LN18@PingFunc:

; 4424 : 						}
; 4425 : 						dwPingTime = GetTickCount()-icmp_hdr->timestamp;

  0026b	ff 15 00 00 00
	00		 call	 DWORD PTR __imp__GetTickCount@0
  00271	2b 84 35 04 f8
	ff ff		 sub	 eax, DWORD PTR _recvbuf$[ebp+esi+8]
$LN5@PingFunc:

; 4426 : 						break;
; 4427 : 					}
; 4428 : 					seq_no++;
; 4429 : 					dwPingState = 0x80000000;
; 4430 : 					Sleep( 3000);

  00278	68 b8 0b 00 00	 push	 3000			; 00000bb8H
  0027d	a3 00 00 00 00	 mov	 DWORD PTR ?dwPingTime@@3KA, eax ; dwPingTime
  00282	47		 inc	 edi
  00283	c7 05 00 00 00
	00 00 00 00 80	 mov	 DWORD PTR ?dwPingState@@3KA, -2147483648 ; dwPingState, 80000000H
  0028d	ff 15 00 00 00
	00		 call	 DWORD PTR __imp__Sleep@4

; 4431 : 				}

  00293	e9 72 fe ff ff	 jmp	 $LN40@PingFunc
$LN38@PingFunc:

; 4432 : 			}
; 4433 : 		}
; 4434 : 	}
; 4435 : 	return 0;
; 4436 : }

  00298	8b 4d fc	 mov	 ecx, DWORD PTR __$ArrayPad$[ebp]
  0029b	33 c0		 xor	 eax, eax
  0029d	5f		 pop	 edi
  0029e	5e		 pop	 esi
  0029f	33 cd		 xor	 ecx, ebp
  002a1	5b		 pop	 ebx
  002a2	e8 00 00 00 00	 call	 @__security_check_cookie@4
  002a7	8b e5		 mov	 esp, ebp
  002a9	5d		 pop	 ebp
  002aa	c2 04 00	 ret	 4
?PingFunc@@YGKPAX@Z ENDP				; PingFunc
_TEXT	ENDS
; Function compile flags: /Ogtp
; File \\VBOXSVR\_stoneage\repos\ssm-sacli\system\netproc.cpp
;	COMDAT ?LogToRecvdata2@@YAXPAD@Z
_TEXT	SEGMENT
_lssproto_readlogfilename$ = -260			; size = 256
__$ArrayPad$ = -4					; size = 4
_data$ = 8						; size = 4
?LogToRecvdata2@@YAXPAD@Z PROC				; LogToRecvdata2, COMDAT

; 156  : {

  00000	55		 push	 ebp
  00001	8b ec		 mov	 ebp, esp
  00003	81 ec 04 01 00
	00		 sub	 esp, 260		; 00000104H
  00009	a1 00 00 00 00	 mov	 eax, DWORD PTR ___security_cookie
  0000e	33 c5		 xor	 eax, ebp
  00010	89 45 fc	 mov	 DWORD PTR __$ArrayPad$[ebp], eax

; 157  : 	//printf("æ”¶åˆ°ï¼š\t%s\n", data);
; 158  : 	char lssproto_readlogfilename[256] = "recvdata.txt";

  00013	a1 08 00 00 00	 mov	 eax, DWORD PTR ??_C@_0N@OFOPBFLC@recvdata?4txt@+8
  00018	f3 0f 7e 05 00
	00 00 00	 movq	 xmm0, QWORD PTR ??_C@_0N@OFOPBFLC@recvdata?4txt@
  00020	57		 push	 edi
  00021	8b 7d 08	 mov	 edi, DWORD PTR _data$[ebp]
  00024	89 85 04 ff ff
	ff		 mov	 DWORD PTR _lssproto_readlogfilename$[ebp+8], eax
  0002a	a0 0c 00 00 00	 mov	 al, BYTE PTR ??_C@_0N@OFOPBFLC@recvdata?4txt@+12
  0002f	68 f3 00 00 00	 push	 243			; 000000f3H
  00034	88 85 08 ff ff
	ff		 mov	 BYTE PTR _lssproto_readlogfilename$[ebp+12], al
  0003a	8d 85 09 ff ff
	ff		 lea	 eax, DWORD PTR _lssproto_readlogfilename$[ebp+13]
  00040	6a 00		 push	 0
  00042	50		 push	 eax
  00043	66 0f d6 85 fc
	fe ff ff	 movq	 QWORD PTR _lssproto_readlogfilename$[ebp], xmm0
  0004b	e8 00 00 00 00	 call	 _memset
  00050	83 c4 0c	 add	 esp, 12			; 0000000cH

; 159  : 
; 160  : 	if (lssproto_readlogfilename[0] != '\0')

  00053	80 bd fc fe ff
	ff 00		 cmp	 BYTE PTR _lssproto_readlogfilename$[ebp], 0
  0005a	74 31		 je	 SHORT $LN3@LogToRecvd

; 161  : 	{
; 162  : 		FILE *rfp;
; 163  : 		rfp = fopen(lssproto_readlogfilename, "a+");

  0005c	56		 push	 esi
  0005d	8d 85 fc fe ff
	ff		 lea	 eax, DWORD PTR _lssproto_readlogfilename$[ebp]
  00063	68 00 00 00 00	 push	 OFFSET ??_C@_02DPNLHKJD@a?$CL@
  00068	50		 push	 eax
  00069	e8 00 00 00 00	 call	 _fopen
  0006e	8b f0		 mov	 esi, eax
  00070	83 c4 08	 add	 esp, 8

; 164  : 		if (rfp)

  00073	85 f6		 test	 esi, esi
  00075	74 15		 je	 SHORT $LN5@LogToRecvd

; 165  : 		{
; 166  : 			fprintf(rfp, "æ”¶åˆ°ï¼š\t%s\n", data);

  00077	57		 push	 edi
  00078	68 00 00 00 00	 push	 OFFSET ??_C@_0L@INAHAGEI@?b?$KF?S?p?$KD?$LK?7?$CFs?6@
  0007d	56		 push	 esi
  0007e	e8 00 00 00 00	 call	 _fprintf

; 167  : 			fclose(rfp);

  00083	56		 push	 esi
  00084	e8 00 00 00 00	 call	 _fclose
  00089	83 c4 10	 add	 esp, 16			; 00000010H
$LN5@LogToRecvd:
  0008c	5e		 pop	 esi
$LN3@LogToRecvd:

; 168  : 		}
; 169  : 	}
; 170  : }

  0008d	8b 4d fc	 mov	 ecx, DWORD PTR __$ArrayPad$[ebp]
  00090	33 cd		 xor	 ecx, ebp
  00092	5f		 pop	 edi
  00093	e8 00 00 00 00	 call	 @__security_check_cookie@4
  00098	8b e5		 mov	 esp, ebp
  0009a	5d		 pop	 ebp
  0009b	c3		 ret	 0
?LogToRecvdata2@@YAXPAD@Z ENDP				; LogToRecvdata2
_TEXT	ENDS
; Function compile flags: /Ogtp
; File \\VBOXSVR\_stoneage\repos\ssm-sacli\system\netproc.cpp
; File C:\Program Files (x86)\Windows Kits\10\Include\10.0.19041.0\ucrt\time.h
; File \\VBOXSVR\_stoneage\repos\ssm-sacli\system\netproc.cpp
;	COMDAT ?SaveChatData@@YAXPADD_N@Z
_TEXT	SEGMENT
_msg$ = 8						; size = 4
_KindOfChannel$ = 12					; size = 1
_bCloseFile$ = 16					; size = 1
?SaveChatData@@YAXPADD_N@Z PROC				; SaveChatData, COMDAT

; 4476 : void SaveChatData(char *msg,char KindOfChannel,bool bCloseFile){

  00000	55		 push	 ebp
  00001	8b ec		 mov	 ebp, esp

; 4477 : 	static FILE *pFile[5];
; 4478 : 	static char szFileName[256];
; 4479 : 	static struct tm *nowTime;
; 4480 : 	static time_t longTime;
; 4481 : 	static unsigned short Channel[] = {
; 4482 : 		PC_ETCFLAG_CHAT_MODE, //é˜Ÿä¼é¢‘é“å¼€å…³
; 4483 : 		PC_ETCFLAG_CHAT_TELL,	//å¯†è¯­é¢‘é“å¼€å…³
; 4484 : 		PC_ETCFLAG_CHAT_FM,		//å®¶æ—é¢‘é“å¼€å…³
; 4485 : 		PC_ETCFLAG_CHAT_OCC,	//èŒä¸šé¢‘é“å¼€å…³
; 4486 : 		PC_ETCFLAG_CHAT_CHAT	//èŠå¤©å®¤å¼€å…³
; 4487 : 	};
; 4488 : 	char ChannelType[] = {'T','M','F','O','R'};
; 4489 : 
; 4490 : 	//JL é‡å†™ä¿å­˜chatèŠå¤©è®°å½•
; 4491 : 	if ((pc.etcFlag & PC_ETCFLAG_CHAT_SAVE) && !bCloseFile) 

  00003	f7 05 a8 00 00
	00 00 02 00 00	 test	 DWORD PTR ?pc@@3UPC@@A+168, 512 ; 00000200H
  0000d	0f 84 e8 00 00
	00		 je	 $LN2@SaveChatDa
  00013	80 7d 10 00	 cmp	 BYTE PTR _bCloseFile$[ebp], 0
  00017	0f 85 de 00 00
	00		 jne	 $LN2@SaveChatDa
; File C:\Program Files (x86)\Windows Kits\10\Include\10.0.19041.0\ucrt\time.h

; 522  :             return _time64(_Time);

  0001d	56		 push	 esi
  0001e	68 00 00 00 00	 push	 OFFSET ?longTime@?1??SaveChatData@@YAXPADD_N@Z@4_JA
  00023	e8 00 00 00 00	 call	 __time64

; 499  :             return _localtime64(_Time);

  00028	68 00 00 00 00	 push	 OFFSET ?longTime@?1??SaveChatData@@YAXPADD_N@Z@4_JA
  0002d	e8 00 00 00 00	 call	 __localtime64
  00032	83 c4 08	 add	 esp, 8
; File \\VBOXSVR\_stoneage\repos\ssm-sacli\system\netproc.cpp

; 4494 : 		nowTime = localtime(&longTime);

  00035	a3 00 00 00 00	 mov	 DWORD PTR ?nowTime@?1??SaveChatData@@YAXPADD_N@Z@4PAUtm@@A, eax

; 4495 : 
; 4496 : 		if (pFile[0] == NULL) 

  0003a	83 3d 00 00 00
	00 00		 cmp	 DWORD PTR ?pFile@?1??SaveChatData@@YAXPADD_N@Z@4PAPAU_iobuf@@A, 0
  00041	75 79		 jne	 SHORT $LN4@SaveChatDa

; 4497 : 		{
; 4498 : 			sprintf(szFileName, "chat\\%02d%02d%02d.TXT", (nowTime->tm_year % 100), nowTime->tm_mon + 1, nowTime->tm_mday);

  00043	ff 70 0c	 push	 DWORD PTR [eax+12]
  00046	8b 48 10	 mov	 ecx, DWORD PTR [eax+16]
  00049	8b 40 14	 mov	 eax, DWORD PTR [eax+20]
  0004c	41		 inc	 ecx
  0004d	51		 push	 ecx
  0004e	99		 cdq
  0004f	b9 64 00 00 00	 mov	 ecx, 100		; 00000064H
  00054	f7 f9		 idiv	 ecx
  00056	52		 push	 edx
  00057	68 00 00 00 00	 push	 OFFSET ??_C@_0BG@JGFFJBEF@chat?2?$CF02d?$CF02d?$CF02d?4TXT@
  0005c	68 00 00 00 00	 push	 OFFSET ?szFileName@?1??SaveChatData@@YAXPADD_N@Z@4PADA
  00061	e8 00 00 00 00	 call	 _sprintf

; 4499 : 			pFile[0] = fopen(szFileName, "a");

  00066	68 00 00 00 00	 push	 OFFSET ??_C@_01MCMALHOG@a@
  0006b	68 00 00 00 00	 push	 OFFSET ?szFileName@?1??SaveChatData@@YAXPADD_N@Z@4PADA
  00070	e8 00 00 00 00	 call	 _fopen

; 4500 : 			int len = lstrlen(msg);

  00075	8b 75 08	 mov	 esi, DWORD PTR _msg$[ebp]
  00078	83 c4 1c	 add	 esp, 28			; 0000001cH
  0007b	a3 00 00 00 00	 mov	 DWORD PTR ?pFile@?1??SaveChatData@@YAXPADD_N@Z@4PAPAU_iobuf@@A, eax
  00080	56		 push	 esi
  00081	ff 15 00 00 00
	00		 call	 DWORD PTR __imp__lstrlenA@4

; 4501 : 			fwrite(msg, 1, len, pFile[0]);

  00087	ff 35 00 00 00
	00		 push	 DWORD PTR ?pFile@?1??SaveChatData@@YAXPADD_N@Z@4PAPAU_iobuf@@A
  0008d	50		 push	 eax
  0008e	6a 01		 push	 1
  00090	56		 push	 esi
  00091	e8 00 00 00 00	 call	 _fwrite

; 4502 : 			fwrite("\n", 1, 1, pFile[0]);

  00096	ff 35 00 00 00
	00		 push	 DWORD PTR ?pFile@?1??SaveChatData@@YAXPADD_N@Z@4PAPAU_iobuf@@A
  0009c	6a 01		 push	 1
  0009e	6a 01		 push	 1
  000a0	68 00 00 00 00	 push	 OFFSET ??_C@_01EEMJAFIK@?6@
  000a5	e8 00 00 00 00	 call	 _fwrite

; 4503 : 			fflush(pFile[0]);

  000aa	ff 35 00 00 00
	00		 push	 DWORD PTR ?pFile@?1??SaveChatData@@YAXPADD_N@Z@4PAPAU_iobuf@@A
  000b0	e8 00 00 00 00	 call	 _fflush
  000b5	83 c4 24	 add	 esp, 36			; 00000024H

; 4504 : 			__asm nop;

  000b8	90		 npad	 1
  000b9	5e		 pop	 esi
$LN7@SaveChatDa:

; 4523 : 		}
; 4524 : 	}
; 4525 : 
; 4526 : 	// å‚¨å­˜å¯¹è¯å†…å®¹é€‰é¡¹å¼€å¯
; 4527 : 	//if ((pc.etcFlag & PC_ETCFLAG_CHAT_SAVE) && !bCloseFile){
; 4528 : 	//	time(&longTime);
; 4529 : 	//	nowTime = localtime(&longTime);
; 4530 : 	//	for (int i=0;i<5;i++){
; 4531 : 	//		if (pc.etcFlag & Channel[i]){
; 4532 : 	//			if (pFile[i] == NULL){
; 4533 : 	//				sprintf(szFileName,"chat\\%c%02d%02d%02d.TXT",ChannelType[i],(nowTime->tm_year % 100),nowTime->tm_mon+1,nowTime->tm_mday);
; 4534 : 	//				if ((pFile[i] = fopen(szFileName,"a")) == NULL) continue;
; 4535 : 	//				int n =fwrite(msg, lstrlen(msg), lstrlen(msg), pFile[i]);
; 4536 : 	//				__asm nop;
; 4537 : 	//			}
; 4538 : 	//		}
; 4539 : 	//		else{
; 4540 : 	//			if (pFile[i] != NULL) fclose(pFile[i]);
; 4541 : 	//		}
; 4542 : 	//	}
; 4543 : 	//	for (int i=0;i<5;i++){
; 4544 : 	//		if (KindOfChannel == ChannelType[i]){
; 4545 : 	//			if (pFile[i] != NULL) fprintf(pFile[i],"[%02d:%02d:%02d]%s\n",nowTime->tm_hour,nowTime->tm_min,nowTime->tm_sec,msg);
; 4546 : 	//		}
; 4547 : 	//	}
; 4548 : 	//}
; 4549 : 	//else bCloseFile = 1;
; 4550 : 
; 4551 : 	//if (bCloseFile){
; 4552 : 	//	for (int i=0;i<5;i++)
; 4553 : 	//		if (pFile[i] != NULL) fclose(pFile[i]);
; 4554 : 	//}
; 4555 : }

  000ba	5d		 pop	 ebp
  000bb	c3		 ret	 0
$LN4@SaveChatDa:

; 4505 : 		}
; 4506 : 		else 
; 4507 : 		{
; 4508 : 			int len = lstrlen(msg);

  000bc	8b 75 08	 mov	 esi, DWORD PTR _msg$[ebp]
  000bf	56		 push	 esi
  000c0	ff 15 00 00 00
	00		 call	 DWORD PTR __imp__lstrlenA@4

; 4509 : 			fwrite(msg, 1, len, pFile[0]);

  000c6	ff 35 00 00 00
	00		 push	 DWORD PTR ?pFile@?1??SaveChatData@@YAXPADD_N@Z@4PAPAU_iobuf@@A
  000cc	50		 push	 eax
  000cd	6a 01		 push	 1
  000cf	56		 push	 esi
  000d0	e8 00 00 00 00	 call	 _fwrite

; 4510 : 			fwrite("\n", 1, 1, pFile[0]);

  000d5	ff 35 00 00 00
	00		 push	 DWORD PTR ?pFile@?1??SaveChatData@@YAXPADD_N@Z@4PAPAU_iobuf@@A
  000db	6a 01		 push	 1
  000dd	6a 01		 push	 1
  000df	68 00 00 00 00	 push	 OFFSET ??_C@_01EEMJAFIK@?6@
  000e4	e8 00 00 00 00	 call	 _fwrite

; 4511 : 			fflush(pFile[0]);

  000e9	ff 35 00 00 00
	00		 push	 DWORD PTR ?pFile@?1??SaveChatData@@YAXPADD_N@Z@4PAPAU_iobuf@@A
  000ef	e8 00 00 00 00	 call	 _fflush
  000f4	83 c4 24	 add	 esp, 36			; 00000024H

; 4512 : 			__asm nop;

  000f7	90		 npad	 1
  000f8	5e		 pop	 esi

; 4523 : 		}
; 4524 : 	}
; 4525 : 
; 4526 : 	// å‚¨å­˜å¯¹è¯å†…å®¹é€‰é¡¹å¼€å¯
; 4527 : 	//if ((pc.etcFlag & PC_ETCFLAG_CHAT_SAVE) && !bCloseFile){
; 4528 : 	//	time(&longTime);
; 4529 : 	//	nowTime = localtime(&longTime);
; 4530 : 	//	for (int i=0;i<5;i++){
; 4531 : 	//		if (pc.etcFlag & Channel[i]){
; 4532 : 	//			if (pFile[i] == NULL){
; 4533 : 	//				sprintf(szFileName,"chat\\%c%02d%02d%02d.TXT",ChannelType[i],(nowTime->tm_year % 100),nowTime->tm_mon+1,nowTime->tm_mday);
; 4534 : 	//				if ((pFile[i] = fopen(szFileName,"a")) == NULL) continue;
; 4535 : 	//				int n =fwrite(msg, lstrlen(msg), lstrlen(msg), pFile[i]);
; 4536 : 	//				__asm nop;
; 4537 : 	//			}
; 4538 : 	//		}
; 4539 : 	//		else{
; 4540 : 	//			if (pFile[i] != NULL) fclose(pFile[i]);
; 4541 : 	//		}
; 4542 : 	//	}
; 4543 : 	//	for (int i=0;i<5;i++){
; 4544 : 	//		if (KindOfChannel == ChannelType[i]){
; 4545 : 	//			if (pFile[i] != NULL) fprintf(pFile[i],"[%02d:%02d:%02d]%s\n",nowTime->tm_hour,nowTime->tm_min,nowTime->tm_sec,msg);
; 4546 : 	//		}
; 4547 : 	//	}
; 4548 : 	//}
; 4549 : 	//else bCloseFile = 1;
; 4550 : 
; 4551 : 	//if (bCloseFile){
; 4552 : 	//	for (int i=0;i<5;i++)
; 4553 : 	//		if (pFile[i] != NULL) fclose(pFile[i]);
; 4554 : 	//}
; 4555 : }

  000f9	5d		 pop	 ebp
  000fa	c3		 ret	 0
$LN2@SaveChatDa:

; 4513 : 		}
; 4514 : 
; 4515 : 	}
; 4516 : 	else bCloseFile = 1;
; 4517 : 
; 4518 : 	if (bCloseFile) {
; 4519 : 		if (pFile[0] != NULL)

  000fb	a1 00 00 00 00	 mov	 eax, DWORD PTR ?pFile@?1??SaveChatData@@YAXPADD_N@Z@4PAPAU_iobuf@@A
  00100	85 c0		 test	 eax, eax
  00102	74 b6		 je	 SHORT $LN7@SaveChatDa

; 4520 : 		{
; 4521 : 			fclose(pFile[0]);

  00104	50		 push	 eax
  00105	e8 00 00 00 00	 call	 _fclose
  0010a	83 c4 04	 add	 esp, 4

; 4522 : 			pFile[0] = 0;

  0010d	c7 05 00 00 00
	00 00 00 00 00	 mov	 DWORD PTR ?pFile@?1??SaveChatData@@YAXPADD_N@Z@4PAPAU_iobuf@@A, 0

; 4523 : 		}
; 4524 : 	}
; 4525 : 
; 4526 : 	// å‚¨å­˜å¯¹è¯å†…å®¹é€‰é¡¹å¼€å¯
; 4527 : 	//if ((pc.etcFlag & PC_ETCFLAG_CHAT_SAVE) && !bCloseFile){
; 4528 : 	//	time(&longTime);
; 4529 : 	//	nowTime = localtime(&longTime);
; 4530 : 	//	for (int i=0;i<5;i++){
; 4531 : 	//		if (pc.etcFlag & Channel[i]){
; 4532 : 	//			if (pFile[i] == NULL){
; 4533 : 	//				sprintf(szFileName,"chat\\%c%02d%02d%02d.TXT",ChannelType[i],(nowTime->tm_year % 100),nowTime->tm_mon+1,nowTime->tm_mday);
; 4534 : 	//				if ((pFile[i] = fopen(szFileName,"a")) == NULL) continue;
; 4535 : 	//				int n =fwrite(msg, lstrlen(msg), lstrlen(msg), pFile[i]);
; 4536 : 	//				__asm nop;
; 4537 : 	//			}
; 4538 : 	//		}
; 4539 : 	//		else{
; 4540 : 	//			if (pFile[i] != NULL) fclose(pFile[i]);
; 4541 : 	//		}
; 4542 : 	//	}
; 4543 : 	//	for (int i=0;i<5;i++){
; 4544 : 	//		if (KindOfChannel == ChannelType[i]){
; 4545 : 	//			if (pFile[i] != NULL) fprintf(pFile[i],"[%02d:%02d:%02d]%s\n",nowTime->tm_hour,nowTime->tm_min,nowTime->tm_sec,msg);
; 4546 : 	//		}
; 4547 : 	//	}
; 4548 : 	//}
; 4549 : 	//else bCloseFile = 1;
; 4550 : 
; 4551 : 	//if (bCloseFile){
; 4552 : 	//	for (int i=0;i<5;i++)
; 4553 : 	//		if (pFile[i] != NULL) fclose(pFile[i]);
; 4554 : 	//}
; 4555 : }

  00117	5d		 pop	 ebp
  00118	c3		 ret	 0
?SaveChatData@@YAXPADD_N@Z ENDP				; SaveChatData
_TEXT	ENDS
; Function compile flags: /Ogtp
; File \\VBOXSVR\_stoneage\repos\ssm-sacli\system\netproc.cpp
;	COMDAT ?SortSkill@@YAXXZ
_TEXT	SEGMENT
?SortSkill@@YAXXZ PROC					; SortSkill, COMDAT

; 117  : 	int count1 = 0, count2 = 0, count3 = 0;
; 118  : 
; 119  : 	for (int i = 0; i < 20; i++)
; 120  : 	{
; 121  : 		AdvanceSkill[i] = -1;

  00000	0f 28 05 00 00
	00 00		 movaps	 xmm0, XMMWORD PTR __xmm@ffffffffffffffffffffffffffffffff

; 122  : 		AssitSkill[i] = -1;		
; 123  : 		BattleSkill[i] = -1;
; 124  : 	}
; 125  : 	for (int i = 0; i < 26; i++)

  00007	33 c9		 xor	 ecx, ecx
  00009	53		 push	 ebx
  0000a	0f 11 05 00 00
	00 00		 movups	 XMMWORD PTR ?AdvanceSkill@@3PAHA, xmm0
  00011	56		 push	 esi
  00012	0f 11 05 10 00
	00 00		 movups	 XMMWORD PTR ?AdvanceSkill@@3PAHA+16, xmm0
  00019	57		 push	 edi
  0001a	0f 11 05 20 00
	00 00		 movups	 XMMWORD PTR ?AdvanceSkill@@3PAHA+32, xmm0
  00021	be 00 00 00 00	 mov	 esi, OFFSET ?BattleSkill@@3PAHA ; BattleSkill
  00026	bf 00 00 00 00	 mov	 edi, OFFSET ?AssitSkill@@3PAHA ; AssitSkill
  0002b	0f 11 05 30 00
	00 00		 movups	 XMMWORD PTR ?AdvanceSkill@@3PAHA+48, xmm0
  00032	bb 00 00 00 00	 mov	 ebx, OFFSET ?AdvanceSkill@@3PAHA ; AdvanceSkill
  00037	ba 06 00 00 00	 mov	 edx, OFFSET ?profession_skill@@3PAUPROFESSION_SKILL@@A+6
  0003c	0f 11 05 40 00
	00 00		 movups	 XMMWORD PTR ?AdvanceSkill@@3PAHA+64, xmm0
  00043	0f 28 05 00 00
	00 00		 movaps	 xmm0, XMMWORD PTR __xmm@ffffffffffffffffffffffffffffffff
  0004a	0f 11 05 00 00
	00 00		 movups	 XMMWORD PTR ?AssitSkill@@3PAHA, xmm0
  00051	0f 11 05 10 00
	00 00		 movups	 XMMWORD PTR ?AssitSkill@@3PAHA+16, xmm0
  00058	0f 11 05 20 00
	00 00		 movups	 XMMWORD PTR ?AssitSkill@@3PAHA+32, xmm0
  0005f	0f 11 05 30 00
	00 00		 movups	 XMMWORD PTR ?AssitSkill@@3PAHA+48, xmm0
  00066	0f 11 05 40 00
	00 00		 movups	 XMMWORD PTR ?AssitSkill@@3PAHA+64, xmm0
  0006d	0f 28 05 00 00
	00 00		 movaps	 xmm0, XMMWORD PTR __xmm@ffffffffffffffffffffffffffffffff
  00074	0f 11 05 00 00
	00 00		 movups	 XMMWORD PTR ?BattleSkill@@3PAHA, xmm0
  0007b	0f 11 05 10 00
	00 00		 movups	 XMMWORD PTR ?BattleSkill@@3PAHA+16, xmm0
  00082	0f 11 05 20 00
	00 00		 movups	 XMMWORD PTR ?BattleSkill@@3PAHA+32, xmm0
  00089	0f 11 05 30 00
	00 00		 movups	 XMMWORD PTR ?BattleSkill@@3PAHA+48, xmm0
  00090	0f 11 05 40 00
	00 00		 movups	 XMMWORD PTR ?BattleSkill@@3PAHA+64, xmm0
$LL7@SortSkill:

; 126  : 	{
; 127  : 		switch (profession_skill[i].kind)

  00097	0f bf 02	 movsx	 eax, WORD PTR [edx]
  0009a	83 e8 01	 sub	 eax, 1
  0009d	74 18		 je	 SHORT $LN10@SortSkill
  0009f	83 e8 01	 sub	 eax, 1
  000a2	74 0c		 je	 SHORT $LN11@SortSkill
  000a4	83 e8 01	 sub	 eax, 1
  000a7	75 13		 jne	 SHORT $LN5@SortSkill

; 137  : 		case 3: // è¿›é˜¶
; 138  : 			AdvanceSkill[count3] = i;

  000a9	89 0b		 mov	 DWORD PTR [ebx], ecx

; 139  : 			count3++;

  000ab	83 c3 04	 add	 ebx, 4
  000ae	eb 0c		 jmp	 SHORT $LN5@SortSkill
$LN11@SortSkill:

; 132  : 			break;
; 133  : 		case 2: // è¾…åŠ©
; 134  : 			AssitSkill[count2] = i;

  000b0	89 0f		 mov	 DWORD PTR [edi], ecx

; 135  : 			count2++;

  000b2	83 c7 04	 add	 edi, 4

; 136  : 			break;

  000b5	eb 05		 jmp	 SHORT $LN5@SortSkill
$LN10@SortSkill:

; 128  : 		{
; 129  : 		case 1: // æˆ˜æ–—æŠ€èƒ½
; 130  : 			BattleSkill[count1] = i;

  000b7	89 0e		 mov	 DWORD PTR [esi], ecx

; 131  : 			count1++;

  000b9	83 c6 04	 add	 esi, 4
$LN5@SortSkill:

; 122  : 		AssitSkill[i] = -1;		
; 123  : 		BattleSkill[i] = -1;
; 124  : 	}
; 125  : 	for (int i = 0; i < 26; i++)

  000bc	81 c2 c0 00 00
	00		 add	 edx, 192		; 000000c0H
  000c2	41		 inc	 ecx
  000c3	81 fa 86 13 00
	00		 cmp	 edx, OFFSET ?profession_skill@@3PAUPROFESSION_SKILL@@A+4998
  000c9	7c cc		 jl	 SHORT $LL7@SortSkill

; 140  : 			break;
; 141  : 		}
; 142  : 	}
; 143  : }

  000cb	5f		 pop	 edi
  000cc	5e		 pop	 esi
  000cd	5b		 pop	 ebx
  000ce	c3		 ret	 0
?SortSkill@@YAXXZ ENDP					; SortSkill
_TEXT	ENDS
; Function compile flags: /Ogtp
; File \\VBOXSVR\_stoneage\repos\ssm-sacli\system\netproc.cpp
;	COMDAT ?lssproto_MAMMOTH_OPEN_recv@@YAXPAD@Z
_TEXT	SEGMENT
_data$ = 8						; size = 4
?lssproto_MAMMOTH_OPEN_recv@@YAXPAD@Z PROC		; lssproto_MAMMOTH_OPEN_recv, COMDAT

; 4719 : {

  00000	55		 push	 ebp
  00001	8b ec		 mov	 ebp, esp

; 4720 : 	Mammoth::Get().Open(data);

  00003	ff 75 08	 push	 DWORD PTR _data$[ebp]
  00006	e8 00 00 00 00	 call	 ?Get@Mammoth@@SAAAV1@XZ	; Mammoth::Get
  0000b	8b c8		 mov	 ecx, eax
  0000d	e8 00 00 00 00	 call	 ?Open@Mammoth@@QAEXPAD@Z ; Mammoth::Open

; 4721 : }

  00012	5d		 pop	 ebp
  00013	c3		 ret	 0
?lssproto_MAMMOTH_OPEN_recv@@YAXPAD@Z ENDP		; lssproto_MAMMOTH_OPEN_recv
_TEXT	ENDS
; Function compile flags: /Ogtp
; File \\VBOXSVR\_stoneage\repos\ssm-sacli\system\netproc.cpp
;	COMDAT ?lssproto_Firework_recv@@YAXHHHH@Z
_TEXT	SEGMENT
_fd$ = 8						; size = 4
_nCharaindex$ = 12					; size = 4
_nType$ = 16						; size = 4
_nActionNum$ = 20					; size = 4
?lssproto_Firework_recv@@YAXHHHH@Z PROC			; lssproto_Firework_recv, COMDAT

; 4690 : {

  00000	55		 push	 ebp
  00001	8b ec		 mov	 ebp, esp

; 4691 : 	ACTION	*pAct;
; 4692 : 
; 4693 : 	if (pc.id == nCharaindex)

  00003	8b 45 0c	 mov	 eax, DWORD PTR _nCharaindex$[ebp]
  00006	39 05 08 00 00
	00		 cmp	 DWORD PTR ?pc@@3UPC@@A+8, eax
  0000c	75 1a		 jne	 SHORT $LN2@lssproto_F

; 4694 : 		changePcAct(0, 0, 0, 51, nType, nActionNum, 0);

  0000e	6a 00		 push	 0
  00010	ff 75 14	 push	 DWORD PTR _nActionNum$[ebp]
  00013	ff 75 10	 push	 DWORD PTR _nType$[ebp]
  00016	6a 33		 push	 51			; 00000033H
  00018	6a 00		 push	 0
  0001a	6a 00		 push	 0
  0001c	6a 00		 push	 0
  0001e	e8 00 00 00 00	 call	 ?changePcAct@@YAXHHHHHHH@Z ; changePcAct
  00023	83 c4 1c	 add	 esp, 28			; 0000001cH

; 4699 : 	
; 4700 : 	}
; 4701 : }

  00026	5d		 pop	 ebp
  00027	c3		 ret	 0
$LN2@lssproto_F:

; 4695 : 	else
; 4696 : 	{
; 4697 : 		pAct = getCharObjAct(nCharaindex);

  00028	50		 push	 eax
  00029	e8 00 00 00 00	 call	 ?getCharObjAct@@YAPAUaction@@H@Z ; getCharObjAct

; 4698 : 		changeCharAct(pAct, 0, 0, 0, 51, nType, nActionNum, 0);

  0002e	6a 00		 push	 0
  00030	ff 75 14	 push	 DWORD PTR _nActionNum$[ebp]
  00033	ff 75 10	 push	 DWORD PTR _nType$[ebp]
  00036	6a 33		 push	 51			; 00000033H
  00038	6a 00		 push	 0
  0003a	6a 00		 push	 0
  0003c	6a 00		 push	 0
  0003e	50		 push	 eax
  0003f	e8 00 00 00 00	 call	 ?changeCharAct@@YAXPAUaction@@HHHHHHH@Z ; changeCharAct
  00044	83 c4 24	 add	 esp, 36			; 00000024H

; 4699 : 	
; 4700 : 	}
; 4701 : }

  00047	5d		 pop	 ebp
  00048	c3		 ret	 0
?lssproto_Firework_recv@@YAXHHHH@Z ENDP			; lssproto_Firework_recv
_TEXT	ENDS
; Function compile flags: /Ogtp
; File \\VBOXSVR\_stoneage\repos\ssm-sacli\system\netproc.cpp
;	COMDAT ?lssproto_S2_recv@@YAXHPAD@Z
_TEXT	SEGMENT
_szMessage$ = -20					; size = 16
__$ArrayPad$ = -4					; size = 4
_fd$ = 8						; size = 4
_data$ = 12						; size = 4
?lssproto_S2_recv@@YAXHPAD@Z PROC			; lssproto_S2_recv, COMDAT

; 4672 : {

  00000	55		 push	 ebp
  00001	8b ec		 mov	 ebp, esp
  00003	83 ec 14	 sub	 esp, 20			; 00000014H
  00006	a1 00 00 00 00	 mov	 eax, DWORD PTR ___security_cookie
  0000b	33 c5		 xor	 eax, ebp
  0000d	89 45 fc	 mov	 DWORD PTR __$ArrayPad$[ebp], eax
  00010	56		 push	 esi
  00011	8b 75 0c	 mov	 esi, DWORD PTR _data$[ebp]

; 4673 : 	char szMessage[16];
; 4674 : 
; 4675 : 	getStringToken(data,'|',1,sizeof(szMessage) - 1,szMessage);

  00014	8d 45 ec	 lea	 eax, DWORD PTR _szMessage$[ebp]
  00017	50		 push	 eax
  00018	6a 0f		 push	 15			; 0000000fH
  0001a	6a 01		 push	 1
  0001c	6a 7c		 push	 124			; 0000007cH
  0001e	56		 push	 esi
  0001f	e8 00 00 00 00	 call	 ?getStringToken@@YAHPADDHH0@Z ; getStringToken
  00024	83 c4 14	 add	 esp, 20			; 00000014H

; 4676 : 
; 4677 : #ifdef _NEW_MANOR_LAW
; 4678 : 	if (strcmp(szMessage,"FAME") == 0){

  00027	8d 4d ec	 lea	 ecx, DWORD PTR _szMessage$[ebp]
  0002a	b8 00 00 00 00	 mov	 eax, OFFSET ??_C@_04DIIKDPIA@FAME@
  0002f	90		 npad	 1
$LL4@lssproto_S:
  00030	8a 11		 mov	 dl, BYTE PTR [ecx]
  00032	3a 10		 cmp	 dl, BYTE PTR [eax]
  00034	75 1a		 jne	 SHORT $LN5@lssproto_S
  00036	84 d2		 test	 dl, dl
  00038	74 12		 je	 SHORT $LN6@lssproto_S
  0003a	8a 51 01	 mov	 dl, BYTE PTR [ecx+1]
  0003d	3a 50 01	 cmp	 dl, BYTE PTR [eax+1]
  00040	75 0e		 jne	 SHORT $LN5@lssproto_S
  00042	83 c1 02	 add	 ecx, 2
  00045	83 c0 02	 add	 eax, 2
  00048	84 d2		 test	 dl, dl
  0004a	75 e4		 jne	 SHORT $LL4@lssproto_S
$LN6@lssproto_S:
  0004c	33 c0		 xor	 eax, eax
  0004e	eb 05		 jmp	 SHORT $LN7@lssproto_S
$LN5@lssproto_S:
  00050	1b c0		 sbb	 eax, eax
  00052	83 c8 01	 or	 eax, 1
$LN7@lssproto_S:
  00055	85 c0		 test	 eax, eax
  00057	75 21		 jne	 SHORT $LN2@lssproto_S

; 4679 : 		getStringToken(data,'|',2,sizeof(szMessage) - 1,szMessage);

  00059	8d 45 ec	 lea	 eax, DWORD PTR _szMessage$[ebp]
  0005c	50		 push	 eax
  0005d	6a 0f		 push	 15			; 0000000fH
  0005f	6a 02		 push	 2
  00061	6a 7c		 push	 124			; 0000007cH
  00063	56		 push	 esi
  00064	e8 00 00 00 00	 call	 ?getStringToken@@YAHPADDHH0@Z ; getStringToken

; 4680 : 		pc.fame = atoi(szMessage);

  00069	8d 45 ec	 lea	 eax, DWORD PTR _szMessage$[ebp]
  0006c	50		 push	 eax
  0006d	e8 00 00 00 00	 call	 _atoi
  00072	83 c4 18	 add	 esp, 24			; 00000018H
  00075	a3 64 00 00 00	 mov	 DWORD PTR ?pc@@3UPC@@A+100, eax
$LN2@lssproto_S:

; 4681 : 	}
; 4682 : #endif
; 4683 : 
; 4684 : 
; 4685 : }

  0007a	8b 4d fc	 mov	 ecx, DWORD PTR __$ArrayPad$[ebp]
  0007d	33 cd		 xor	 ecx, ebp
  0007f	5e		 pop	 esi
  00080	e8 00 00 00 00	 call	 @__security_check_cookie@4
  00085	8b e5		 mov	 esp, ebp
  00087	5d		 pop	 ebp
  00088	c3		 ret	 0
?lssproto_S2_recv@@YAXHPAD@Z ENDP			; lssproto_S2_recv
_TEXT	ENDS
; Function compile flags: /Ogtp
; File \\VBOXSVR\_stoneage\repos\ssm-sacli\system\netproc.cpp
;	COMDAT ?lssproto_TEACHER_SYSTEM_recv@@YAXHPAD@Z
_TEXT	SEGMENT
_szMessage$ = -20					; size = 16
__$ArrayPad$ = -4					; size = 4
_fd$ = 8						; size = 4
_data$ = 12						; size = 4
?lssproto_TEACHER_SYSTEM_recv@@YAXHPAD@Z PROC		; lssproto_TEACHER_SYSTEM_recv, COMDAT

; 4643 : {

  00000	55		 push	 ebp
  00001	8b ec		 mov	 ebp, esp
  00003	83 ec 14	 sub	 esp, 20			; 00000014H
  00006	a1 00 00 00 00	 mov	 eax, DWORD PTR ___security_cookie
  0000b	33 c5		 xor	 eax, ebp
  0000d	89 45 fc	 mov	 DWORD PTR __$ArrayPad$[ebp], eax
  00010	56		 push	 esi
  00011	8b 75 0c	 mov	 esi, DWORD PTR _data$[ebp]

; 4644 : 	char szMessage[16];
; 4645 : 
; 4646 : 	getStringToken(data,'|',1,sizeof(szMessage) - 1,szMessage);

  00014	8d 45 ec	 lea	 eax, DWORD PTR _szMessage$[ebp]
  00017	50		 push	 eax
  00018	6a 0f		 push	 15			; 0000000fH
  0001a	6a 01		 push	 1
  0001c	6a 7c		 push	 124			; 0000007cH
  0001e	56		 push	 esi
  0001f	e8 00 00 00 00	 call	 ?getStringToken@@YAHPADDHH0@Z ; getStringToken

; 4647 : 	switch (szMessage[0]){

  00024	0f be 45 ec	 movsx	 eax, BYTE PTR _szMessage$[ebp]
  00028	83 c4 14	 add	 esp, 20			; 00000014H
  0002b	83 c0 bf	 add	 eax, -65		; ffffffbfH
  0002e	83 f8 15	 cmp	 eax, 21			; 00000015H
  00031	77 52		 ja	 SHORT $LN2@lssproto_T
  00033	0f b6 80 00 00
	00 00		 movzx	 eax, BYTE PTR $LN9@lssproto_T[eax]
  0003a	ff 24 85 00 00
	00 00		 jmp	 DWORD PTR $LN10@lssproto_T[eax*4]
$LN4@lssproto_T:

; 4648 : 		// æ˜¾ç¤ºè¯´æ˜Ž
; 4649 : 		case 'M':sTeacherSystemBtn = 1;break;

  00041	b8 01 00 00 00	 mov	 eax, 1
  00046	66 a3 00 00 00
	00		 mov	 WORD PTR ?sTeacherSystemBtn@@3FA, ax ; sTeacherSystemBtn
  0004c	5e		 pop	 esi

; 4664 : 			break;
; 4665 : 
; 4666 : 	}	
; 4667 : }

  0004d	8b 4d fc	 mov	 ecx, DWORD PTR __$ArrayPad$[ebp]
  00050	33 cd		 xor	 ecx, ebp
  00052	e8 00 00 00 00	 call	 @__security_check_cookie@4
  00057	8b e5		 mov	 esp, ebp
  00059	5d		 pop	 ebp
  0005a	c3		 ret	 0
$LN5@lssproto_T:

; 4650 : 		// è¯¢é—®æ˜¯å¦è¦å¯¹æ–¹å½“ä½ çš„å¯¼å¸ˆ
; 4651 : 		case 'C':
; 4652 : 			sTeacherSystemBtn = 2;
; 4653 : 			TeacherSystemWndfunc(0,data);

  0005b	56		 push	 esi
  0005c	b8 02 00 00 00	 mov	 eax, 2
  00061	6a 00		 push	 0

; 4654 : 			break;

  00063	eb 12		 jmp	 SHORT $LN11@lssproto_T
$LN6@lssproto_T:

; 4655 : 		// è¶…è¿‡ä¸€äºº,è¯¢é—®è¦æ‰¾è°å½“å¯¼å¸ˆ
; 4656 : 		case 'A':
; 4657 : 			sTeacherSystemBtn = 3;
; 4658 : 			TeacherSystemWndfunc(1,data);

  00065	56		 push	 esi
  00066	b8 03 00 00 00	 mov	 eax, 3
  0006b	6a 01		 push	 1

; 4659 : 			break;

  0006d	eb 08		 jmp	 SHORT $LN11@lssproto_T
$LN7@lssproto_T:

; 4660 : 		// æ˜¾ç¤ºå¯¼å¸ˆèµ„æ–™
; 4661 : 		case 'V':
; 4662 : 			sTeacherSystemBtn = 4;
; 4663 : 			TeacherSystemWndfunc(2,data);

  0006f	56		 push	 esi
  00070	b8 04 00 00 00	 mov	 eax, 4
  00075	6a 02		 push	 2
$LN11@lssproto_T:

; 4664 : 			break;
; 4665 : 
; 4666 : 	}	
; 4667 : }

  00077	66 a3 00 00 00
	00		 mov	 WORD PTR ?sTeacherSystemBtn@@3FA, ax ; sTeacherSystemBtn
  0007d	e8 00 00 00 00	 call	 ?TeacherSystemWndfunc@@YAXHPAD@Z ; TeacherSystemWndfunc
  00082	83 c4 08	 add	 esp, 8
$LN2@lssproto_T:
  00085	8b 4d fc	 mov	 ecx, DWORD PTR __$ArrayPad$[ebp]
  00088	33 cd		 xor	 ecx, ebp
  0008a	5e		 pop	 esi
  0008b	e8 00 00 00 00	 call	 @__security_check_cookie@4
  00090	8b e5		 mov	 esp, ebp
  00092	5d		 pop	 ebp
  00093	c3		 ret	 0
$LN10@lssproto_T:
  00094	00 00 00 00	 DD	 $LN6@lssproto_T
  00098	00 00 00 00	 DD	 $LN5@lssproto_T
  0009c	00 00 00 00	 DD	 $LN4@lssproto_T
  000a0	00 00 00 00	 DD	 $LN7@lssproto_T
  000a4	00 00 00 00	 DD	 $LN2@lssproto_T
$LN9@lssproto_T:
  000a8	00		 DB	 0
  000a9	04		 DB	 4
  000aa	01		 DB	 1
  000ab	04		 DB	 4
  000ac	04		 DB	 4
  000ad	04		 DB	 4
  000ae	04		 DB	 4
  000af	04		 DB	 4
  000b0	04		 DB	 4
  000b1	04		 DB	 4
  000b2	04		 DB	 4
  000b3	04		 DB	 4
  000b4	02		 DB	 2
  000b5	04		 DB	 4
  000b6	04		 DB	 4
  000b7	04		 DB	 4
  000b8	04		 DB	 4
  000b9	04		 DB	 4
  000ba	04		 DB	 4
  000bb	04		 DB	 4
  000bc	04		 DB	 4
  000bd	03		 DB	 3
?lssproto_TEACHER_SYSTEM_recv@@YAXHPAD@Z ENDP		; lssproto_TEACHER_SYSTEM_recv
_TEXT	ENDS
; Function compile flags: /Ogtp
; File \\VBOXSVR\_stoneage\repos\ssm-sacli\system\netproc.cpp
;	COMDAT ?lssproto_JOBDAILY_recv@@YAXHPAD@Z
_TEXT	SEGMENT
_data$GSCopy$1$ = -460					; size = 4
_getdata$ = -456					; size = 250
_perdata$ = -204					; size = 200
__$ArrayPad$ = -4					; size = 4
_fd$ = 8						; size = 4
_data$ = 12						; size = 4
?lssproto_JOBDAILY_recv@@YAXHPAD@Z PROC			; lssproto_JOBDAILY_recv, COMDAT

; 4602 : {

  00000	55		 push	 ebp
  00001	8b ec		 mov	 ebp, esp
  00003	81 ec cc 01 00
	00		 sub	 esp, 460		; 000001ccH
  00009	a1 00 00 00 00	 mov	 eax, DWORD PTR ___security_cookie
  0000e	33 c5		 xor	 eax, ebp
  00010	89 45 fc	 mov	 DWORD PTR __$ArrayPad$[ebp], eax
  00013	53		 push	 ebx
  00014	56		 push	 esi
  00015	8b 75 0c	 mov	 esi, DWORD PTR _data$[ebp]

; 4603 : 	//è§£è¯»èµ„æ–™
; 4604 : 	int  i=1,j=1;

  00018	bb 01 00 00 00	 mov	 ebx, 1

; 4605 : 	char getdata[250];
; 4606 : 	char perdata[200];
; 4607 : 
; 4608 : 	//StockChatBufferLine(data,FONT_PAL_RED); 
; 4609 : 
; 4610 : 	memset(jobdaily,0,sizeof(jobdaily));

  0001d	68 20 fd 00 00	 push	 64800			; 0000fd20H
  00022	6a 00		 push	 0
  00024	68 00 00 00 00	 push	 OFFSET ?jobdaily@@3PAUJOBDAILY@@A ; jobdaily
  00029	89 b5 34 fe ff
	ff		 mov	 DWORD PTR _data$GSCopy$1$[ebp], esi
  0002f	e8 00 00 00 00	 call	 _memset

; 4611 : 	getdata[0] = '\0';
; 4612 : 	perdata[0] = '\0';
; 4613 : 	while(getStringToken(data,'#',i,sizeof(getdata) - 1,getdata)!=1){

  00034	8d 85 38 fe ff
	ff		 lea	 eax, DWORD PTR _getdata$[ebp]
  0003a	c6 85 38 fe ff
	ff 00		 mov	 BYTE PTR _getdata$[ebp], 0
  00041	50		 push	 eax
  00042	68 f9 00 00 00	 push	 249			; 000000f9H
  00047	53		 push	 ebx
  00048	6a 23		 push	 35			; 00000023H
  0004a	56		 push	 esi
  0004b	c6 85 34 ff ff
	ff 00		 mov	 BYTE PTR _perdata$[ebp], 0
  00052	e8 00 00 00 00	 call	 ?getStringToken@@YAHPADDHH0@Z ; getStringToken
  00057	83 c4 20	 add	 esp, 32			; 00000020H
  0005a	3b c3		 cmp	 eax, ebx
  0005c	0f 84 3d 01 00
	00		 je	 $LN12@lssproto_J

; 4602 : {

  00062	be 04 00 00 00	 mov	 esi, OFFSET ?jobdaily@@3PAUJOBDAILY@@A+4
  00067	8d 85 34 ff ff
	ff		 lea	 eax, DWORD PTR _perdata$[ebp]
  0006d	2b f0		 sub	 esi, eax
  0006f	57		 push	 edi
$LL2@lssproto_J:

; 4614 : 		while(getStringToken(getdata,'|',j,sizeof(perdata) - 1,perdata)!=1){

  00070	8d 85 34 ff ff
	ff		 lea	 eax, DWORD PTR _perdata$[ebp]
  00076	50		 push	 eax
  00077	68 c7 00 00 00	 push	 199			; 000000c7H
  0007c	6a 01		 push	 1
  0007e	8d 85 38 fe ff
	ff		 lea	 eax, DWORD PTR _getdata$[ebp]
  00084	6a 7c		 push	 124			; 0000007cH
  00086	50		 push	 eax
  00087	e8 00 00 00 00	 call	 ?getStringToken@@YAHPADDHH0@Z ; getStringToken
  0008c	83 c4 14	 add	 esp, 20			; 00000014H
  0008f	83 f8 01	 cmp	 eax, 1
  00092	0f 84 ac 00 00
	00		 je	 $LN5@lssproto_J
  00098	bf 01 00 00 00	 mov	 edi, 1
  0009d	0f 1f 00	 npad	 3
$LL4@lssproto_J:

; 4615 : 			switch (j){

  000a0	8b c7		 mov	 eax, edi
  000a2	83 e8 01	 sub	 eax, 1
  000a5	74 58		 je	 SHORT $LN8@lssproto_J
  000a7	83 e8 01	 sub	 eax, 1
  000aa	74 36		 je	 SHORT $LN9@lssproto_J
  000ac	83 e8 01	 sub	 eax, 1
  000af	74 13		 je	 SHORT $LN10@lssproto_J

; 4619 : 			default: StockChatBufferLine("æ¯ç¬”èµ„æ–™å†…å‚æ•°æœ‰é”™è¯¯",FONT_PAL_RED); break;

  000b1	6a 00		 push	 0
  000b3	6a 06		 push	 6
  000b5	68 00 00 00 00	 push	 OFFSET ??_C@_0O@PEDECIPG@?X?$NP?$DP?$DP?V?y?$DP?$DP?$DP?j?s?$DP?$DP@
  000ba	e8 00 00 00 00	 call	 ?StockChatBufferLine@@YAXPADEH@Z ; StockChatBufferLine
  000bf	83 c4 0c	 add	 esp, 12			; 0000000cH
  000c2	eb 51		 jmp	 SHORT $LN6@lssproto_J
$LN10@lssproto_J:

; 4618 : 			case 3: strcpy(jobdaily[i-1].state,perdata); break;

  000c4	8d 8d 34 ff ff
	ff		 lea	 ecx, DWORD PTR _perdata$[ebp]
  000ca	66 0f 1f 44 00
	00		 npad	 6
$LL20@lssproto_J:
  000d0	8a 01		 mov	 al, BYTE PTR [ecx]
  000d2	8d 49 01	 lea	 ecx, DWORD PTR [ecx+1]
  000d5	88 84 0e c7 00
	00 00		 mov	 BYTE PTR [esi+ecx+199], al
  000dc	84 c0		 test	 al, al
  000de	75 f0		 jne	 SHORT $LL20@lssproto_J
  000e0	eb 33		 jmp	 SHORT $LN6@lssproto_J
$LN9@lssproto_J:

; 4617 : 			case 2: strcpy(jobdaily[i-1].explain,perdata); break;

  000e2	8d 85 34 ff ff
	ff		 lea	 eax, DWORD PTR _perdata$[ebp]
  000e8	0f 1f 84 00 00
	00 00 00	 npad	 8
$LL19@lssproto_J:
  000f0	8a 08		 mov	 cl, BYTE PTR [eax]
  000f2	8d 40 01	 lea	 eax, DWORD PTR [eax+1]
  000f5	88 4c 06 ff	 mov	 BYTE PTR [esi+eax-1], cl
  000f9	84 c9		 test	 cl, cl
  000fb	75 f3		 jne	 SHORT $LL19@lssproto_J
  000fd	eb 16		 jmp	 SHORT $LN6@lssproto_J
$LN8@lssproto_J:

; 4616 : 			case 1: jobdaily[i-1].JobId = atoi(perdata);break;

  000ff	8d 85 34 ff ff
	ff		 lea	 eax, DWORD PTR _perdata$[ebp]
  00105	50		 push	 eax
  00106	e8 00 00 00 00	 call	 _atoi
  0010b	83 c4 04	 add	 esp, 4
  0010e	89 84 35 30 ff
	ff ff		 mov	 DWORD PTR _perdata$[ebp+esi-4], eax
$LN6@lssproto_J:

; 4620 : 			}
; 4621 : 			perdata[0] = '\0';

  00115	8d 85 34 ff ff
	ff		 lea	 eax, DWORD PTR _perdata$[ebp]
  0011b	c6 85 34 ff ff
	ff 00		 mov	 BYTE PTR _perdata$[ebp], 0
  00122	50		 push	 eax
  00123	68 c7 00 00 00	 push	 199			; 000000c7H

; 4622 : 			j++;

  00128	47		 inc	 edi
  00129	8d 85 38 fe ff
	ff		 lea	 eax, DWORD PTR _getdata$[ebp]
  0012f	57		 push	 edi
  00130	6a 7c		 push	 124			; 0000007cH
  00132	50		 push	 eax
  00133	e8 00 00 00 00	 call	 ?getStringToken@@YAHPADDHH0@Z ; getStringToken
  00138	83 c4 14	 add	 esp, 20			; 00000014H
  0013b	83 f8 01	 cmp	 eax, 1
  0013e	0f 85 5c ff ff
	ff		 jne	 $LL4@lssproto_J
$LN5@lssproto_J:

; 4611 : 	getdata[0] = '\0';
; 4612 : 	perdata[0] = '\0';
; 4613 : 	while(getStringToken(data,'#',i,sizeof(getdata) - 1,getdata)!=1){

  00144	8d 85 38 fe ff
	ff		 lea	 eax, DWORD PTR _getdata$[ebp]

; 4623 : 		}
; 4624 : 		getdata[0] = '\0';

  0014a	c6 85 38 fe ff
	ff 00		 mov	 BYTE PTR _getdata$[ebp], 0
  00151	50		 push	 eax
  00152	68 f9 00 00 00	 push	 249			; 000000f9H

; 4625 : 		j=1;
; 4626 : 		i++;

  00157	43		 inc	 ebx
  00158	81 c6 d8 00 00
	00		 add	 esi, 216		; 000000d8H
  0015e	53		 push	 ebx
  0015f	6a 23		 push	 35			; 00000023H
  00161	ff b5 34 fe ff
	ff		 push	 DWORD PTR _data$GSCopy$1$[ebp]
  00167	e8 00 00 00 00	 call	 ?getStringToken@@YAHPADDHH0@Z ; getStringToken
  0016c	83 c4 14	 add	 esp, 20			; 00000014H
  0016f	83 f8 01	 cmp	 eax, 1
  00172	0f 85 f8 fe ff
	ff		 jne	 $LL2@lssproto_J

; 4627 : 	}
; 4628 : 	if (i>1){ 

  00178	5f		 pop	 edi
  00179	3b d8		 cmp	 ebx, eax
  0017b	7e 22		 jle	 SHORT $LN12@lssproto_J

; 4629 : 		JobdailyGetFlag = TRUE;
; 4630 : 		JobdailyGetMax= i-2;

  0017d	8d 43 fe	 lea	 eax, DWORD PTR [ebx-2]

; 4631 : 	}else{
; 4632 : 		JobdailyGetFlag = FALSE;
; 4633 : 		JobdailyGetMax = -1;
; 4634 : 	}
; 4635 : }

  00180	c7 05 00 00 00
	00 01 00 00 00	 mov	 DWORD PTR ?JobdailyGetFlag@@3HA, 1 ; JobdailyGetFlag
  0018a	5e		 pop	 esi
  0018b	a3 00 00 00 00	 mov	 DWORD PTR ?JobdailyGetMax@@3HA, eax ; JobdailyGetMax
  00190	5b		 pop	 ebx
  00191	8b 4d fc	 mov	 ecx, DWORD PTR __$ArrayPad$[ebp]
  00194	33 cd		 xor	 ecx, ebp
  00196	e8 00 00 00 00	 call	 @__security_check_cookie@4
  0019b	8b e5		 mov	 esp, ebp
  0019d	5d		 pop	 ebp
  0019e	c3		 ret	 0
$LN12@lssproto_J:
  0019f	8b 4d fc	 mov	 ecx, DWORD PTR __$ArrayPad$[ebp]
  001a2	5e		 pop	 esi
  001a3	33 cd		 xor	 ecx, ebp
  001a5	c7 05 00 00 00
	00 00 00 00 00	 mov	 DWORD PTR ?JobdailyGetFlag@@3HA, 0 ; JobdailyGetFlag
  001af	c7 05 00 00 00
	00 ff ff ff ff	 mov	 DWORD PTR ?JobdailyGetMax@@3HA, -1 ; JobdailyGetMax
  001b9	5b		 pop	 ebx
  001ba	e8 00 00 00 00	 call	 @__security_check_cookie@4
  001bf	8b e5		 mov	 esp, ebp
  001c1	5d		 pop	 ebp
  001c2	c3		 ret	 0
?lssproto_JOBDAILY_recv@@YAXHPAD@Z ENDP			; lssproto_JOBDAILY_recv
_TEXT	ENDS
; Function compile flags: /Ogtp
; File \\VBOXSVR\_stoneage\repos\ssm-sacli\system\netproc.cpp
;	COMDAT ?lssproto_STREET_VENDOR_recv@@YAXHPAD@Z
_TEXT	SEGMENT
_szMessage$ = -36					; size = 32
__$ArrayPad$ = -4					; size = 4
_fd$ = 8						; size = 4
_data$ = 12						; size = 4
?lssproto_STREET_VENDOR_recv@@YAXHPAD@Z PROC		; lssproto_STREET_VENDOR_recv, COMDAT

; 4565 : {

  00000	55		 push	 ebp
  00001	8b ec		 mov	 ebp, esp
  00003	83 ec 24	 sub	 esp, 36			; 00000024H
  00006	a1 00 00 00 00	 mov	 eax, DWORD PTR ___security_cookie
  0000b	33 c5		 xor	 eax, ebp
  0000d	89 45 fc	 mov	 DWORD PTR __$ArrayPad$[ebp], eax
  00010	56		 push	 esi
  00011	8b 75 0c	 mov	 esi, DWORD PTR _data$[ebp]

; 4566 : 	char szMessage[32];
; 4567 : 
; 4568 : 	getStringToken(data,'|',1,sizeof(szMessage) - 1,szMessage);

  00014	8d 45 dc	 lea	 eax, DWORD PTR _szMessage$[ebp]
  00017	50		 push	 eax
  00018	6a 1f		 push	 31			; 0000001fH
  0001a	6a 01		 push	 1
  0001c	6a 7c		 push	 124			; 0000007cH
  0001e	56		 push	 esi
  0001f	e8 00 00 00 00	 call	 ?getStringToken@@YAHPADDHH0@Z ; getStringToken

; 4569 : 	switch (szMessage[0]){

  00024	0f be 45 dc	 movsx	 eax, BYTE PTR _szMessage$[ebp]
  00028	83 c4 14	 add	 esp, 20			; 00000014H
  0002b	83 c0 be	 add	 eax, -66		; ffffffbeH
  0002e	83 f8 11	 cmp	 eax, 17			; 00000011H
  00031	77 66		 ja	 SHORT $LN2@lssproto_S
  00033	0f b6 80 00 00
	00 00		 movzx	 eax, BYTE PTR $LN10@lssproto_S[eax]
  0003a	ff 24 85 00 00
	00 00		 jmp	 DWORD PTR $LN11@lssproto_S[eax*4]
$LN4@lssproto_S:

; 4570 : 		// å¼€æ–°æ‘†æ‘Šä»‹é¢
; 4571 : 		case 'O':
; 4572 : 			sStreetVendorBtn = 1;

  00041	b8 01 00 00 00	 mov	 eax, 1
  00046	66 a3 00 00 00
	00		 mov	 WORD PTR ?sStreetVendorBtn@@3FA, ax ; sStreetVendorBtn

; 4573 : 			pc.iOnStreetVendor = 1;

  0004c	a3 b8 a1 00 00	 mov	 DWORD PTR ?pc@@3UPC@@A+41400, eax
  00051	5e		 pop	 esi

; 4583 : 			StreetVendorBuyWndfunc(data);
; 4584 : 			break;
; 4585 : 		// server é€æ¥å…³é—­è§†çª—
; 4586 : 		case 'C':
; 4587 : 			sStreetVendorBuyBtn = 0;
; 4588 : 			break;
; 4589 : 		// server é€æ¥çš„å•ç¬”è´©å–ç‰©è¯¦ç»†èµ„æ–™
; 4590 : 		case 'D':
; 4591 : 			StreetVendorBuyWndfunc(data);
; 4592 : 			break;
; 4593 : 	}
; 4594 : }

  00052	8b 4d fc	 mov	 ecx, DWORD PTR __$ArrayPad$[ebp]
  00055	33 cd		 xor	 ecx, ebp
  00057	e8 00 00 00 00	 call	 @__security_check_cookie@4
  0005c	8b e5		 mov	 esp, ebp
  0005e	5d		 pop	 ebp
  0005f	c3		 ret	 0
$LN5@lssproto_S:

; 4574 : 			break;
; 4575 : 		// è®¾å®šæ‘†æ‘Šå†…å®¹
; 4576 : 		case 'S':
; 4577 : 			sStreetVendorBtn = 3;

  00060	b8 03 00 00 00	 mov	 eax, 3

; 4578 : 			StreetVendorWndfunc(false,data);

  00065	56		 push	 esi
  00066	6a 00		 push	 0
  00068	66 a3 00 00 00
	00		 mov	 WORD PTR ?sStreetVendorBtn@@3FA, ax ; sStreetVendorBtn
  0006e	e8 00 00 00 00	 call	 ?StreetVendorWndfunc@@YAX_NPAD@Z ; StreetVendorWndfunc
  00073	83 c4 08	 add	 esp, 8
  00076	5e		 pop	 esi

; 4583 : 			StreetVendorBuyWndfunc(data);
; 4584 : 			break;
; 4585 : 		// server é€æ¥å…³é—­è§†çª—
; 4586 : 		case 'C':
; 4587 : 			sStreetVendorBuyBtn = 0;
; 4588 : 			break;
; 4589 : 		// server é€æ¥çš„å•ç¬”è´©å–ç‰©è¯¦ç»†èµ„æ–™
; 4590 : 		case 'D':
; 4591 : 			StreetVendorBuyWndfunc(data);
; 4592 : 			break;
; 4593 : 	}
; 4594 : }

  00077	8b 4d fc	 mov	 ecx, DWORD PTR __$ArrayPad$[ebp]
  0007a	33 cd		 xor	 ecx, ebp
  0007c	e8 00 00 00 00	 call	 @__security_check_cookie@4
  00081	8b e5		 mov	 esp, ebp
  00083	5d		 pop	 ebp
  00084	c3		 ret	 0
$LN6@lssproto_S:

; 4579 : 			break;
; 4580 : 		// serveré€æ¥çš„å–æ–¹è´©å–å†…å®¹
; 4581 : 		case 'B':
; 4582 : 			sStreetVendorBuyBtn = 1;

  00085	b8 01 00 00 00	 mov	 eax, 1
  0008a	66 a3 00 00 00
	00		 mov	 WORD PTR ?sStreetVendorBuyBtn@@3FA, ax ; sStreetVendorBuyBtn
$LN8@lssproto_S:

; 4583 : 			StreetVendorBuyWndfunc(data);
; 4584 : 			break;
; 4585 : 		// server é€æ¥å…³é—­è§†çª—
; 4586 : 		case 'C':
; 4587 : 			sStreetVendorBuyBtn = 0;
; 4588 : 			break;
; 4589 : 		// server é€æ¥çš„å•ç¬”è´©å–ç‰©è¯¦ç»†èµ„æ–™
; 4590 : 		case 'D':
; 4591 : 			StreetVendorBuyWndfunc(data);
; 4592 : 			break;
; 4593 : 	}
; 4594 : }

  00090	56		 push	 esi
  00091	e8 00 00 00 00	 call	 ?StreetVendorBuyWndfunc@@YAXPAD@Z ; StreetVendorBuyWndfunc
  00096	83 c4 04	 add	 esp, 4
$LN2@lssproto_S:
  00099	5e		 pop	 esi
  0009a	8b 4d fc	 mov	 ecx, DWORD PTR __$ArrayPad$[ebp]
  0009d	33 cd		 xor	 ecx, ebp
  0009f	e8 00 00 00 00	 call	 @__security_check_cookie@4
  000a4	8b e5		 mov	 esp, ebp
  000a6	5d		 pop	 ebp
  000a7	c3		 ret	 0
$LN7@lssproto_S:
  000a8	8b 4d fc	 mov	 ecx, DWORD PTR __$ArrayPad$[ebp]
  000ab	33 c0		 xor	 eax, eax
  000ad	33 cd		 xor	 ecx, ebp
  000af	66 a3 00 00 00
	00		 mov	 WORD PTR ?sStreetVendorBuyBtn@@3FA, ax ; sStreetVendorBuyBtn
  000b5	5e		 pop	 esi
  000b6	e8 00 00 00 00	 call	 @__security_check_cookie@4
  000bb	8b e5		 mov	 esp, ebp
  000bd	5d		 pop	 ebp
  000be	c3		 ret	 0
  000bf	90		 npad	 1
$LN11@lssproto_S:
  000c0	00 00 00 00	 DD	 $LN6@lssproto_S
  000c4	00 00 00 00	 DD	 $LN7@lssproto_S
  000c8	00 00 00 00	 DD	 $LN8@lssproto_S
  000cc	00 00 00 00	 DD	 $LN4@lssproto_S
  000d0	00 00 00 00	 DD	 $LN5@lssproto_S
  000d4	00 00 00 00	 DD	 $LN2@lssproto_S
$LN10@lssproto_S:
  000d8	00		 DB	 0
  000d9	01		 DB	 1
  000da	02		 DB	 2
  000db	05		 DB	 5
  000dc	05		 DB	 5
  000dd	05		 DB	 5
  000de	05		 DB	 5
  000df	05		 DB	 5
  000e0	05		 DB	 5
  000e1	05		 DB	 5
  000e2	05		 DB	 5
  000e3	05		 DB	 5
  000e4	05		 DB	 5
  000e5	03		 DB	 3
  000e6	05		 DB	 5
  000e7	05		 DB	 5
  000e8	05		 DB	 5
  000e9	04		 DB	 4
?lssproto_STREET_VENDOR_recv@@YAXHPAD@Z ENDP		; lssproto_STREET_VENDOR_recv
_TEXT	ENDS
; Function compile flags: /Ogtp
; File \\VBOXSVR\_stoneage\repos\ssm-sacli\system\netproc.cpp
;	COMDAT ?lssproto_PETST_recv@@YAXHHH@Z
_TEXT	SEGMENT
_fd$ = 8						; size = 4
_petarray$ = 12						; size = 4
_result$ = 16						; size = 4
?lssproto_PETST_recv@@YAXHHH@Z PROC			; lssproto_PETST_recv, COMDAT

; 3917 : {

  00000	55		 push	 ebp
  00001	8b ec		 mov	 ebp, esp

; 3918 : 	if ( petarray < 0 || petarray >= 5 ) return;

  00003	8b 4d 0c	 mov	 ecx, DWORD PTR _petarray$[ebp]
  00006	83 f9 04	 cmp	 ecx, 4
  00009	77 45		 ja	 SHORT $LN3@lssproto_P

; 3919 : 	pc.selectPetNo[ petarray] = result;

  0000b	66 8b 45 10	 mov	 ax, WORD PTR _result$[ebp]
  0000f	66 89 04 4d ac
	00 00 00	 mov	 WORD PTR ?pc@@3UPC@@A[ecx*2+172], ax

; 3920 : 	BattlePetStMenCnt--;

  00017	a1 00 00 00 00	 mov	 eax, DWORD PTR ?BattlePetStMenCnt@@3HA ; BattlePetStMenCnt
  0001c	83 e8 01	 sub	 eax, 1

; 3921 : 	if ( BattlePetStMenCnt < 0 ) BattlePetStMenCnt = 0;

  0001f	79 0c		 jns	 SHORT $LN4@lssproto_P
  00021	c7 05 00 00 00
	00 00 00 00 00	 mov	 DWORD PTR ?BattlePetStMenCnt@@3HA, 0 ; BattlePetStMenCnt

; 3922 : 	if ( BattlePetStMenCnt > ç­‰å¾…å® æ•°é‡) BattlePetStMenCnt = ç­‰å¾…å® æ•°é‡;

  0002b	eb 0f		 jmp	 SHORT $LN5@lssproto_P
$LN4@lssproto_P:
  0002d	ba 05 00 00 00	 mov	 edx, 5
  00032	3b c2		 cmp	 eax, edx
  00034	0f 4f c2	 cmovg	 eax, edx
  00037	a3 00 00 00 00	 mov	 DWORD PTR ?BattlePetStMenCnt@@3HA, eax ; BattlePetStMenCnt
$LN5@lssproto_P:

; 3923 : 	if ( pc.battlePetNo == petarray )

  0003c	0f bf 05 aa 00
	00 00		 movsx	 eax, WORD PTR ?pc@@3UPC@@A+170
  00043	3b c1		 cmp	 eax, ecx
  00045	75 09		 jne	 SHORT $LN3@lssproto_P

; 3924 : 		pc.battlePetNo = -1;

  00047	83 c8 ff	 or	 eax, -1
  0004a	66 a3 aa 00 00
	00		 mov	 WORD PTR ?pc@@3UPC@@A+170, ax
$LN3@lssproto_P:

; 3925 : }

  00050	5d		 pop	 ebp
  00051	c3		 ret	 0
?lssproto_PETST_recv@@YAXHHH@Z ENDP			; lssproto_PETST_recv
_TEXT	ENDS
; Function compile flags: /Ogtp
; File \\VBOXSVR\_stoneage\repos\ssm-sacli\system\netproc.cpp
;	COMDAT ?lssproto_NC_recv@@YAXHH@Z
_TEXT	SEGMENT
_fd$ = 8						; size = 4
_flg$ = 12						; size = 4
?lssproto_NC_recv@@YAXHH@Z PROC				; lssproto_NC_recv, COMDAT

; 4467 : {  

  00000	55		 push	 ebp
  00001	8b ec		 mov	 ebp, esp

; 4468 : 	if (flg==1 )
; 4469 : 		NoCastFlag=TRUE;
; 4470 :     else 
; 4471 : 		NoCastFlag=FALSE;
; 4472 : }

  00003	33 c0		 xor	 eax, eax
  00005	83 7d 0c 01	 cmp	 DWORD PTR _flg$[ebp], 1
  00009	0f 94 c0	 sete	 al
  0000c	a3 00 00 00 00	 mov	 DWORD PTR ?NoCastFlag@@3HA, eax ; NoCastFlag
  00011	5d		 pop	 ebp
  00012	c3		 ret	 0
?lssproto_NC_recv@@YAXHH@Z ENDP				; lssproto_NC_recv
_TEXT	ENDS
; Function compile flags: /Ogtp
; File \\VBOXSVR\_stoneage\repos\ssm-sacli\system\netproc.cpp
;	COMDAT ?lssproto_IC_recv@@YAXHHH@Z
_TEXT	SEGMENT
_fd$ = 8						; size = 4
_x$ = 12						; size = 4
_y$ = 16						; size = 4
?lssproto_IC_recv@@YAXHHH@Z PROC			; lssproto_IC_recv, COMDAT

; 4443 : 	m_bt = true; setCharMind( pc.ptAct, SPR_cracker);	

  00000	68 19 8c 01 00	 push	 101401			; 00018c19H
  00005	ff 35 ec 50 00
	00		 push	 DWORD PTR ?pc@@3UPC@@A+20716
  0000b	c6 05 00 00 00
	00 01		 mov	 BYTE PTR ?m_bt@@3_NA, 1	; m_bt
  00012	e8 00 00 00 00	 call	 ?setCharMind@@YAXPAUaction@@H@Z ; setCharMind
  00017	83 c4 08	 add	 esp, 8

; 4444 : 	m_bt = false;

  0001a	c6 05 00 00 00
	00 00		 mov	 BYTE PTR ?m_bt@@3_NA, 0	; m_bt

; 4445 : }

  00021	c3		 ret	 0
?lssproto_IC_recv@@YAXHHH@Z ENDP			; lssproto_IC_recv
_TEXT	ENDS
; Function compile flags: /Ogtp
; File \\VBOXSVR\_stoneage\repos\ssm-sacli\system\netproc.cpp
;	COMDAT ?lssproto_WO_recv@@YAXHH@Z
_TEXT	SEGMENT
_fd$ = 8						; size = 4
_effect$ = 12						; size = 4
?lssproto_WO_recv@@YAXHH@Z PROC				; lssproto_WO_recv, COMDAT

; 4119 : 	return;
; 4120 : 	// ???????
; 4121 : 	if ( effect == 0 )
; 4122 : 	{
; 4123 : 		// î˜¿î’Ÿ????????
; 4124 : 		transmigrationEffectFlag = 1;
; 4125 : 		// î˜¿î’Ÿ?????????îŸ‰????
; 4126 : 		transEffectPaletteStatus = 1;
; 4127 : 		// ????????
; 4128 : 		palNo = 15;
; 4129 : 		palTime = 300;
; 4130 : 	}
; 4131 : }

  00000	c2 00 00	 ret	 0
?lssproto_WO_recv@@YAXHH@Z ENDP				; lssproto_WO_recv
_TEXT	ENDS
; Function compile flags: /Ogtp
; File \\VBOXSVR\_stoneage\repos\ssm-sacli\system\netproc.cpp
;	COMDAT ?lssproto_FM_recv@@YAXHPAD@Z
_TEXT	SEGMENT
_FMType3$ = -1540					; size = 512
_FMType1$ = -1028					; size = 512
_FMType2$ = -516					; size = 512
__$ArrayPad$ = -4					; size = 4
_fd$ = 8						; size = 4
_data$ = 12						; size = 4
?lssproto_FM_recv@@YAXHPAD@Z PROC			; lssproto_FM_recv, COMDAT

; 4204 : {

  00000	55		 push	 ebp
  00001	8b ec		 mov	 ebp, esp
  00003	81 ec 04 06 00
	00		 sub	 esp, 1540		; 00000604H
  00009	a1 00 00 00 00	 mov	 eax, DWORD PTR ___security_cookie
  0000e	33 c5		 xor	 eax, ebp
  00010	89 45 fc	 mov	 DWORD PTR __$ArrayPad$[ebp], eax
  00013	56		 push	 esi
  00014	8b 75 0c	 mov	 esi, DWORD PTR _data$[ebp]

; 4205 : 	char FMType1[512];
; 4206 : 	char FMType2[512];
; 4207 : 	char FMType3[512];
; 4208 : 	
; 4209 : 	getStringToken(data, '|', 1, sizeof( FMType1 ) - 1, FMType1 );

  00017	8d 85 fc fb ff
	ff		 lea	 eax, DWORD PTR _FMType1$[ebp]
  0001d	50		 push	 eax
  0001e	68 ff 01 00 00	 push	 511			; 000001ffH
  00023	6a 01		 push	 1
  00025	6a 7c		 push	 124			; 0000007cH
  00027	56		 push	 esi
  00028	e8 00 00 00 00	 call	 ?getStringToken@@YAHPADDHH0@Z ; getStringToken

; 4210 : 	//makeStringFromEscaped( FMType1 );
; 4211 : 	getStringToken(data, '|', 2, sizeof( FMType2 ) - 1, FMType2 );

  0002d	8d 85 fc fd ff
	ff		 lea	 eax, DWORD PTR _FMType2$[ebp]
  00033	50		 push	 eax
  00034	68 ff 01 00 00	 push	 511			; 000001ffH
  00039	6a 02		 push	 2
  0003b	6a 7c		 push	 124			; 0000007cH
  0003d	56		 push	 esi
  0003e	e8 00 00 00 00	 call	 ?getStringToken@@YAHPADDHH0@Z ; getStringToken
  00043	83 c4 28	 add	 esp, 40			; 00000028H

; 4212 : 	//makeStringFromEscaped( FMType2 );
; 4213 : 
; 4214 : 	if ( strcmp(FMType1,"S") ==0 )

  00046	8d 85 fc fb ff
	ff		 lea	 eax, DWORD PTR _FMType1$[ebp]
  0004c	b9 00 00 00 00	 mov	 ecx, OFFSET ??_C@_01CPLAODJH@S@
$LL22@lssproto_F:
  00051	8a 10		 mov	 dl, BYTE PTR [eax]
  00053	3a 11		 cmp	 dl, BYTE PTR [ecx]
  00055	75 1a		 jne	 SHORT $LN23@lssproto_F
  00057	84 d2		 test	 dl, dl
  00059	74 12		 je	 SHORT $LN24@lssproto_F
  0005b	8a 50 01	 mov	 dl, BYTE PTR [eax+1]
  0005e	3a 51 01	 cmp	 dl, BYTE PTR [ecx+1]
  00061	75 0e		 jne	 SHORT $LN23@lssproto_F
  00063	83 c0 02	 add	 eax, 2
  00066	83 c1 02	 add	 ecx, 2
  00069	84 d2		 test	 dl, dl
  0006b	75 e4		 jne	 SHORT $LL22@lssproto_F
$LN24@lssproto_F:
  0006d	33 c0		 xor	 eax, eax
  0006f	eb 05		 jmp	 SHORT $LN25@lssproto_F
$LN23@lssproto_F:
  00071	1b c0		 sbb	 eax, eax
  00073	83 c8 01	 or	 eax, 1
$LN25@lssproto_F:
  00076	85 c0		 test	 eax, eax
  00078	0f 85 97 00 00
	00		 jne	 $LN2@lssproto_F

; 4215 : 	{
; 4216 : 		if ( strcmp(FMType2,"F") ==0) // å®¶æ—åˆ—è¡¨

  0007e	b9 00 00 00 00	 mov	 ecx, OFFSET ??_C@_01BIAFAFID@F@
  00083	8d 85 fc fd ff
	ff		 lea	 eax, DWORD PTR _FMType2$[ebp]
  00089	0f 1f 80 00 00
	00 00		 npad	 7
$LL26@lssproto_F:
  00090	8a 10		 mov	 dl, BYTE PTR [eax]
  00092	3a 11		 cmp	 dl, BYTE PTR [ecx]
  00094	75 1a		 jne	 SHORT $LN27@lssproto_F
  00096	84 d2		 test	 dl, dl
  00098	74 12		 je	 SHORT $LN28@lssproto_F
  0009a	8a 50 01	 mov	 dl, BYTE PTR [eax+1]
  0009d	3a 51 01	 cmp	 dl, BYTE PTR [ecx+1]
  000a0	75 0e		 jne	 SHORT $LN27@lssproto_F
  000a2	83 c0 02	 add	 eax, 2
  000a5	83 c1 02	 add	 ecx, 2
  000a8	84 d2		 test	 dl, dl
  000aa	75 e4		 jne	 SHORT $LL26@lssproto_F
$LN28@lssproto_F:
  000ac	33 c0		 xor	 eax, eax
  000ae	eb 05		 jmp	 SHORT $LN29@lssproto_F
$LN27@lssproto_F:
  000b0	1b c0		 sbb	 eax, eax
  000b2	83 c8 01	 or	 eax, 1
$LN29@lssproto_F:
  000b5	85 c0		 test	 eax, eax
  000b7	75 09		 jne	 SHORT $LN4@lssproto_F

; 4217 : 		{
; 4218 : 			initFamilyList(data );

  000b9	56		 push	 esi
  000ba	e8 00 00 00 00	 call	 ?initFamilyList@@YAXPAD@Z ; initFamilyList
  000bf	83 c4 04	 add	 esp, 4
$LN4@lssproto_F:

; 4219 : 
; 4220 : 		}
; 4221 : 		if ( strcmp(FMType2,"D") ==0) // å®¶æ—è¯¦ç»†

  000c2	b9 00 00 00 00	 mov	 ecx, OFFSET ??_C@_01CKDDGHAB@D@
  000c7	8d 85 fc fd ff
	ff		 lea	 eax, DWORD PTR _FMType2$[ebp]
  000cd	0f 1f 00	 npad	 3
$LL30@lssproto_F:
  000d0	8a 10		 mov	 dl, BYTE PTR [eax]
  000d2	3a 11		 cmp	 dl, BYTE PTR [ecx]
  000d4	75 1a		 jne	 SHORT $LN31@lssproto_F
  000d6	84 d2		 test	 dl, dl
  000d8	74 12		 je	 SHORT $LN32@lssproto_F
  000da	8a 50 01	 mov	 dl, BYTE PTR [eax+1]
  000dd	3a 51 01	 cmp	 dl, BYTE PTR [ecx+1]
  000e0	75 0e		 jne	 SHORT $LN31@lssproto_F
  000e2	83 c0 02	 add	 eax, 2
  000e5	83 c1 02	 add	 ecx, 2
  000e8	84 d2		 test	 dl, dl
  000ea	75 e4		 jne	 SHORT $LL30@lssproto_F
$LN32@lssproto_F:
  000ec	33 c0		 xor	 eax, eax
  000ee	eb 05		 jmp	 SHORT $LN33@lssproto_F
$LN31@lssproto_F:
  000f0	1b c0		 sbb	 eax, eax
  000f2	83 c8 01	 or	 eax, 1
$LN33@lssproto_F:
  000f5	85 c0		 test	 eax, eax
  000f7	0f 85 f5 02 00
	00		 jne	 $LN20@lssproto_F

; 4222 : 		{
; 4223 : 			initFamilyDetail(data );

  000fd	56		 push	 esi
  000fe	e8 00 00 00 00	 call	 ?initFamilyDetail@@YAXPAD@Z ; initFamilyDetail

; 4281 : 		}
; 4282 : 	}
; 4283 : 
; 4284 : }

  00103	83 c4 04	 add	 esp, 4
  00106	5e		 pop	 esi
  00107	8b 4d fc	 mov	 ecx, DWORD PTR __$ArrayPad$[ebp]
  0010a	33 cd		 xor	 ecx, ebp
  0010c	e8 00 00 00 00	 call	 @__security_check_cookie@4
  00111	8b e5		 mov	 esp, ebp
  00113	5d		 pop	 ebp
  00114	c3		 ret	 0
$LN2@lssproto_F:

; 4224 : 
; 4225 : 		}
; 4226 : 
; 4227 : 	}
; 4228 : 	else if ( strcmp(FMType1,"C") ==0 )

  00115	b9 00 00 00 00	 mov	 ecx, OFFSET ??_C@_01GFHCPBMG@C@
  0011a	8d 85 fc fb ff
	ff		 lea	 eax, DWORD PTR _FMType1$[ebp]
$LL34@lssproto_F:
  00120	8a 10		 mov	 dl, BYTE PTR [eax]
  00122	3a 11		 cmp	 dl, BYTE PTR [ecx]
  00124	75 1a		 jne	 SHORT $LN35@lssproto_F
  00126	84 d2		 test	 dl, dl
  00128	74 12		 je	 SHORT $LN36@lssproto_F
  0012a	8a 50 01	 mov	 dl, BYTE PTR [eax+1]
  0012d	3a 51 01	 cmp	 dl, BYTE PTR [ecx+1]
  00130	75 0e		 jne	 SHORT $LN35@lssproto_F
  00132	83 c0 02	 add	 eax, 2
  00135	83 c1 02	 add	 ecx, 2
  00138	84 d2		 test	 dl, dl
  0013a	75 e4		 jne	 SHORT $LL34@lssproto_F
$LN36@lssproto_F:
  0013c	33 c0		 xor	 eax, eax
  0013e	eb 05		 jmp	 SHORT $LN37@lssproto_F
$LN35@lssproto_F:
  00140	1b c0		 sbb	 eax, eax
  00142	83 c8 01	 or	 eax, 1
$LN37@lssproto_F:
  00145	85 c0		 test	 eax, eax
  00147	0f 85 c0 00 00
	00		 jne	 $LN6@lssproto_F

; 4229 : 	{
; 4230 : 		if ( strcmp(FMType2,"J") ==0) // åŠ å…¥é¢‘é“

  0014d	b9 00 00 00 00	 mov	 ecx, OFFSET ??_C@_01LELAEKIP@J@
  00152	8d 85 fc fd ff
	ff		 lea	 eax, DWORD PTR _FMType2$[ebp]
$LL38@lssproto_F:
  00158	8a 10		 mov	 dl, BYTE PTR [eax]
  0015a	3a 11		 cmp	 dl, BYTE PTR [ecx]
  0015c	75 1a		 jne	 SHORT $LN39@lssproto_F
  0015e	84 d2		 test	 dl, dl
  00160	74 12		 je	 SHORT $LN40@lssproto_F
  00162	8a 50 01	 mov	 dl, BYTE PTR [eax+1]
  00165	3a 51 01	 cmp	 dl, BYTE PTR [ecx+1]
  00168	75 0e		 jne	 SHORT $LN39@lssproto_F
  0016a	83 c0 02	 add	 eax, 2
  0016d	83 c1 02	 add	 ecx, 2
  00170	84 d2		 test	 dl, dl
  00172	75 e4		 jne	 SHORT $LL38@lssproto_F
$LN40@lssproto_F:
  00174	33 c0		 xor	 eax, eax
  00176	eb 05		 jmp	 SHORT $LN41@lssproto_F
$LN39@lssproto_F:
  00178	1b c0		 sbb	 eax, eax
  0017a	83 c8 01	 or	 eax, 1
$LN41@lssproto_F:
  0017d	85 c0		 test	 eax, eax
  0017f	75 3c		 jne	 SHORT $LN9@lssproto_F

; 4231 : 		{
; 4232 : 			getStringToken(data, '|', 3, sizeof( FMType3 ) - 1, FMType3 );

  00181	8d 85 fc f9 ff
	ff		 lea	 eax, DWORD PTR _FMType3$[ebp]
  00187	50		 push	 eax
  00188	68 ff 01 00 00	 push	 511			; 000001ffH
  0018d	6a 03		 push	 3
  0018f	6a 7c		 push	 124			; 0000007cH
  00191	56		 push	 esi
  00192	e8 00 00 00 00	 call	 ?getStringToken@@YAHPADDHH0@Z ; getStringToken

; 4233 : 			pc.channel = atoi( FMType3 );

  00197	8d 85 fc f9 ff
	ff		 lea	 eax, DWORD PTR _FMType3$[ebp]
  0019d	50		 push	 eax
  0019e	e8 00 00 00 00	 call	 _atoi

; 4234 : 			if ( pc.channel != -1 )

  001a3	8b 0d 10 51 00
	00		 mov	 ecx, DWORD PTR ?pc@@3UPC@@A+20752
  001a9	83 c4 18	 add	 esp, 24			; 00000018H
  001ac	83 f8 ff	 cmp	 eax, -1
  001af	a3 0c 51 00 00	 mov	 DWORD PTR ?pc@@3UPC@@A+20748, eax
  001b4	0f 45 c8	 cmovne	 ecx, eax
  001b7	89 0d 10 51 00
	00		 mov	 DWORD PTR ?pc@@3UPC@@A+20752, ecx
$LN9@lssproto_F:

; 4235 : 				pc.quickChannel = pc.channel;
; 4236 : 		}
; 4237 : 		if ( strcmp(FMType2,"L") ==0) // é¢‘é“åˆ—è¡¨

  001bd	b9 00 00 00 00	 mov	 ecx, OFFSET ??_C@_01OCOKONAJ@L@
  001c2	8d 85 fc fd ff
	ff		 lea	 eax, DWORD PTR _FMType2$[ebp]
$LL42@lssproto_F:
  001c8	8a 10		 mov	 dl, BYTE PTR [eax]
  001ca	3a 11		 cmp	 dl, BYTE PTR [ecx]
  001cc	75 1a		 jne	 SHORT $LN43@lssproto_F
  001ce	84 d2		 test	 dl, dl
  001d0	74 12		 je	 SHORT $LN44@lssproto_F
  001d2	8a 50 01	 mov	 dl, BYTE PTR [eax+1]
  001d5	3a 51 01	 cmp	 dl, BYTE PTR [ecx+1]
  001d8	75 0e		 jne	 SHORT $LN43@lssproto_F
  001da	83 c0 02	 add	 eax, 2
  001dd	83 c1 02	 add	 ecx, 2
  001e0	84 d2		 test	 dl, dl
  001e2	75 e4		 jne	 SHORT $LL42@lssproto_F
$LN44@lssproto_F:
  001e4	33 c0		 xor	 eax, eax
  001e6	eb 05		 jmp	 SHORT $LN45@lssproto_F
$LN43@lssproto_F:
  001e8	1b c0		 sbb	 eax, eax
  001ea	83 c8 01	 or	 eax, 1
$LN45@lssproto_F:
  001ed	85 c0		 test	 eax, eax
  001ef	0f 85 fd 01 00
	00		 jne	 $LN20@lssproto_F

; 4238 : 		{
; 4239 : 			initJoinChannel2WN(data );

  001f5	56		 push	 esi
  001f6	e8 00 00 00 00	 call	 ?initJoinChannel2WN@@YAXPAD@Z ; initJoinChannel2WN

; 4281 : 		}
; 4282 : 	}
; 4283 : 
; 4284 : }

  001fb	83 c4 04	 add	 esp, 4
  001fe	5e		 pop	 esi
  001ff	8b 4d fc	 mov	 ecx, DWORD PTR __$ArrayPad$[ebp]
  00202	33 cd		 xor	 ecx, ebp
  00204	e8 00 00 00 00	 call	 @__security_check_cookie@4
  00209	8b e5		 mov	 esp, ebp
  0020b	5d		 pop	 ebp
  0020c	c3		 ret	 0
$LN6@lssproto_F:

; 4240 : 
; 4241 : 		}
; 4242 : 	}
; 4243 : 	else if ( strcmp(FMType1,"B") ==0 )

  0020d	b9 00 00 00 00	 mov	 ecx, OFFSET ??_C@_01HMGJMAIH@B@
  00212	8d 85 fc fb ff
	ff		 lea	 eax, DWORD PTR _FMType1$[ebp]
$LL46@lssproto_F:
  00218	8a 10		 mov	 dl, BYTE PTR [eax]
  0021a	3a 11		 cmp	 dl, BYTE PTR [ecx]
  0021c	75 1a		 jne	 SHORT $LN47@lssproto_F
  0021e	84 d2		 test	 dl, dl
  00220	74 12		 je	 SHORT $LN48@lssproto_F
  00222	8a 50 01	 mov	 dl, BYTE PTR [eax+1]
  00225	3a 51 01	 cmp	 dl, BYTE PTR [ecx+1]
  00228	75 0e		 jne	 SHORT $LN47@lssproto_F
  0022a	83 c0 02	 add	 eax, 2
  0022d	83 c1 02	 add	 ecx, 2
  00230	84 d2		 test	 dl, dl
  00232	75 e4		 jne	 SHORT $LL46@lssproto_F
$LN48@lssproto_F:
  00234	33 c0		 xor	 eax, eax
  00236	eb 05		 jmp	 SHORT $LN49@lssproto_F
$LN47@lssproto_F:
  00238	1b c0		 sbb	 eax, eax
  0023a	83 c8 01	 or	 eax, 1
$LN49@lssproto_F:
  0023d	85 c0		 test	 eax, eax
  0023f	0f 85 90 00 00
	00		 jne	 $LN11@lssproto_F

; 4244 : 	{
; 4245 : 
; 4246 : 		//MenuToggleFlag = JOY_CTRL_B;
; 4247 : 		if ( strcmp(FMType2,"G") ==0)

  00245	b9 00 00 00 00	 mov	 ecx, OFFSET ??_C@_01BBODEMC@G@
  0024a	8d 85 fc fd ff
	ff		 lea	 eax, DWORD PTR _FMType2$[ebp]
$LL50@lssproto_F:
  00250	8a 10		 mov	 dl, BYTE PTR [eax]
  00252	3a 11		 cmp	 dl, BYTE PTR [ecx]
  00254	75 1a		 jne	 SHORT $LN51@lssproto_F
  00256	84 d2		 test	 dl, dl
  00258	74 12		 je	 SHORT $LN52@lssproto_F
  0025a	8a 50 01	 mov	 dl, BYTE PTR [eax+1]
  0025d	3a 51 01	 cmp	 dl, BYTE PTR [ecx+1]
  00260	75 0e		 jne	 SHORT $LN51@lssproto_F
  00262	83 c0 02	 add	 eax, 2
  00265	83 c1 02	 add	 ecx, 2
  00268	84 d2		 test	 dl, dl
  0026a	75 e4		 jne	 SHORT $LL50@lssproto_F
$LN52@lssproto_F:
  0026c	33 c0		 xor	 eax, eax
  0026e	eb 05		 jmp	 SHORT $LN53@lssproto_F
$LN51@lssproto_F:
  00270	1b c0		 sbb	 eax, eax
  00272	83 c8 01	 or	 eax, 1
$LN53@lssproto_F:
  00275	85 c0		 test	 eax, eax
  00277	75 09		 jne	 SHORT $LN13@lssproto_F

; 4248 : 		{
; 4249 : 			//getStringToken(data, '|', 3, sizeof( FMType3 ) - 1, FMType3 );
; 4250 : 			BankmanInit(data );

  00279	56		 push	 esi
  0027a	e8 00 00 00 00	 call	 ?BankmanInit@@YAXPAD@Z	; BankmanInit
  0027f	83 c4 04	 add	 esp, 4
$LN13@lssproto_F:

; 4251 : 		}
; 4252 : 		if ( strcmp(FMType2,"I") ==0)
; 4253 : 		{
; 4254 : 			//getStringToken(data, '|', 3, sizeof( FMType3 ) - 1, FMType3 );
; 4255 : 			//ItemmanInit(data );
; 4256 : 			//initItemman(data );
; 4257 : 		}
; 4258 : 		if ( strcmp(FMType2,"T") ==0)

  00282	b9 00 00 00 00	 mov	 ecx, OFFSET ??_C@_01GAPBHFFA@T@
  00287	8d 85 fc fd ff
	ff		 lea	 eax, DWORD PTR _FMType2$[ebp]
  0028d	0f 1f 00	 npad	 3
$LL54@lssproto_F:
  00290	8a 10		 mov	 dl, BYTE PTR [eax]
  00292	3a 11		 cmp	 dl, BYTE PTR [ecx]
  00294	75 1a		 jne	 SHORT $LN55@lssproto_F
  00296	84 d2		 test	 dl, dl
  00298	74 12		 je	 SHORT $LN56@lssproto_F
  0029a	8a 50 01	 mov	 dl, BYTE PTR [eax+1]
  0029d	3a 51 01	 cmp	 dl, BYTE PTR [ecx+1]
  002a0	75 0e		 jne	 SHORT $LN55@lssproto_F
  002a2	83 c0 02	 add	 eax, 2
  002a5	83 c1 02	 add	 ecx, 2
  002a8	84 d2		 test	 dl, dl
  002aa	75 e4		 jne	 SHORT $LL54@lssproto_F
$LN56@lssproto_F:
  002ac	33 c0		 xor	 eax, eax
  002ae	eb 05		 jmp	 SHORT $LN57@lssproto_F
$LN55@lssproto_F:
  002b0	1b c0		 sbb	 eax, eax
  002b2	83 c8 01	 or	 eax, 1
$LN57@lssproto_F:
  002b5	85 c0		 test	 eax, eax
  002b7	0f 85 35 01 00
	00		 jne	 $LN20@lssproto_F

; 4259 : 		{
; 4260 : 			initFamilyTaxWN(data );

  002bd	56		 push	 esi
  002be	e8 00 00 00 00	 call	 ?initFamilyTaxWN@@YAXPAD@Z ; initFamilyTaxWN

; 4281 : 		}
; 4282 : 	}
; 4283 : 
; 4284 : }

  002c3	83 c4 04	 add	 esp, 4
  002c6	5e		 pop	 esi
  002c7	8b 4d fc	 mov	 ecx, DWORD PTR __$ArrayPad$[ebp]
  002ca	33 cd		 xor	 ecx, ebp
  002cc	e8 00 00 00 00	 call	 @__security_check_cookie@4
  002d1	8b e5		 mov	 esp, ebp
  002d3	5d		 pop	 ebp
  002d4	c3		 ret	 0
$LN11@lssproto_F:

; 4261 : 		}
; 4262 : 
; 4263 : 
; 4264 : 	}
; 4265 : 	else if ( strcmp(FMType1,"R") ==0 )

  002d5	b9 00 00 00 00	 mov	 ecx, OFFSET ??_C@_01DGKLNCNG@R@
  002da	8d 85 fc fb ff
	ff		 lea	 eax, DWORD PTR _FMType1$[ebp]
$LL58@lssproto_F:
  002e0	8a 10		 mov	 dl, BYTE PTR [eax]
  002e2	3a 11		 cmp	 dl, BYTE PTR [ecx]
  002e4	75 1a		 jne	 SHORT $LN59@lssproto_F
  002e6	84 d2		 test	 dl, dl
  002e8	74 12		 je	 SHORT $LN60@lssproto_F
  002ea	8a 50 01	 mov	 dl, BYTE PTR [eax+1]
  002ed	3a 51 01	 cmp	 dl, BYTE PTR [ecx+1]
  002f0	75 0e		 jne	 SHORT $LN59@lssproto_F
  002f2	83 c0 02	 add	 eax, 2
  002f5	83 c1 02	 add	 ecx, 2
  002f8	84 d2		 test	 dl, dl
  002fa	75 e4		 jne	 SHORT $LL58@lssproto_F
$LN60@lssproto_F:
  002fc	33 c0		 xor	 eax, eax
  002fe	eb 05		 jmp	 SHORT $LN61@lssproto_F
$LN59@lssproto_F:
  00300	1b c0		 sbb	 eax, eax
  00302	83 c8 01	 or	 eax, 1
$LN61@lssproto_F:
  00305	85 c0		 test	 eax, eax
  00307	75 71		 jne	 SHORT $LN16@lssproto_F

; 4266 : 	{
; 4267 : 		if ( strcmp(FMType2,"P") ==0) // ride Pet

  00309	b9 00 00 00 00	 mov	 ecx, OFFSET ??_C@_01EJNLAFE@P@
  0030e	8d 85 fc fd ff
	ff		 lea	 eax, DWORD PTR _FMType2$[ebp]
$LL62@lssproto_F:
  00314	8a 10		 mov	 dl, BYTE PTR [eax]
  00316	3a 11		 cmp	 dl, BYTE PTR [ecx]
  00318	75 1a		 jne	 SHORT $LN63@lssproto_F
  0031a	84 d2		 test	 dl, dl
  0031c	74 12		 je	 SHORT $LN64@lssproto_F
  0031e	8a 50 01	 mov	 dl, BYTE PTR [eax+1]
  00321	3a 51 01	 cmp	 dl, BYTE PTR [ecx+1]
  00324	75 0e		 jne	 SHORT $LN63@lssproto_F
  00326	83 c0 02	 add	 eax, 2
  00329	83 c1 02	 add	 ecx, 2
  0032c	84 d2		 test	 dl, dl
  0032e	75 e4		 jne	 SHORT $LL62@lssproto_F
$LN64@lssproto_F:
  00330	33 c0		 xor	 eax, eax
  00332	eb 05		 jmp	 SHORT $LN65@lssproto_F
$LN63@lssproto_F:
  00334	1b c0		 sbb	 eax, eax
  00336	83 c8 01	 or	 eax, 1
$LN65@lssproto_F:
  00339	85 c0		 test	 eax, eax
  0033b	0f 85 b1 00 00
	00		 jne	 $LN20@lssproto_F

; 4268 : 		{
; 4269 : 			//initFamilyList(data );
; 4270 : 			getStringToken(data, '|', 3, sizeof( FMType3 ) - 1, FMType3 );

  00341	8d 85 fc f9 ff
	ff		 lea	 eax, DWORD PTR _FMType3$[ebp]
  00347	50		 push	 eax
  00348	68 ff 01 00 00	 push	 511			; 000001ffH
  0034d	6a 03		 push	 3
  0034f	6a 7c		 push	 124			; 0000007cH
  00351	56		 push	 esi
  00352	e8 00 00 00 00	 call	 ?getStringToken@@YAHPADDHH0@Z ; getStringToken

; 4271 : 			pc.ridePetNo = atoi( FMType3 );

  00357	8d 85 fc f9 ff
	ff		 lea	 eax, DWORD PTR _FMType3$[ebp]
  0035d	50		 push	 eax
  0035e	e8 00 00 00 00	 call	 _atoi
  00363	83 c4 18	 add	 esp, 24			; 00000018H
  00366	a3 18 51 00 00	 mov	 DWORD PTR ?pc@@3UPC@@A+20760, eax
  0036b	5e		 pop	 esi

; 4281 : 		}
; 4282 : 	}
; 4283 : 
; 4284 : }

  0036c	8b 4d fc	 mov	 ecx, DWORD PTR __$ArrayPad$[ebp]
  0036f	33 cd		 xor	 ecx, ebp
  00371	e8 00 00 00 00	 call	 @__security_check_cookie@4
  00376	8b e5		 mov	 esp, ebp
  00378	5d		 pop	 ebp
  00379	c3		 ret	 0
$LN16@lssproto_F:

; 4272 : 
; 4273 : 		}
; 4274 : 
; 4275 : 	}
; 4276 : 	else if ( strcmp(FMType1,"L") ==0 )	// æ—é•¿åŠŸèƒ½

  0037a	b9 00 00 00 00	 mov	 ecx, OFFSET ??_C@_01OCOKONAJ@L@
  0037f	8d 85 fc fb ff
	ff		 lea	 eax, DWORD PTR _FMType1$[ebp]
$LL66@lssproto_F:
  00385	8a 10		 mov	 dl, BYTE PTR [eax]
  00387	3a 11		 cmp	 dl, BYTE PTR [ecx]
  00389	75 1a		 jne	 SHORT $LN67@lssproto_F
  0038b	84 d2		 test	 dl, dl
  0038d	74 12		 je	 SHORT $LN68@lssproto_F
  0038f	8a 50 01	 mov	 dl, BYTE PTR [eax+1]
  00392	3a 51 01	 cmp	 dl, BYTE PTR [ecx+1]
  00395	75 0e		 jne	 SHORT $LN67@lssproto_F
  00397	83 c0 02	 add	 eax, 2
  0039a	83 c1 02	 add	 ecx, 2
  0039d	84 d2		 test	 dl, dl
  0039f	75 e4		 jne	 SHORT $LL66@lssproto_F
$LN68@lssproto_F:
  003a1	33 c0		 xor	 eax, eax
  003a3	eb 05		 jmp	 SHORT $LN69@lssproto_F
$LN67@lssproto_F:
  003a5	1b c0		 sbb	 eax, eax
  003a7	83 c8 01	 or	 eax, 1
$LN69@lssproto_F:
  003aa	85 c0		 test	 eax, eax
  003ac	75 44		 jne	 SHORT $LN20@lssproto_F

; 4277 : 	{
; 4278 : 		if ( strcmp(FMType2,"CHANGE") ==0)

  003ae	b9 00 00 00 00	 mov	 ecx, OFFSET ??_C@_06BCPILJJG@CHANGE@
  003b3	8d 85 fc fd ff
	ff		 lea	 eax, DWORD PTR _FMType2$[ebp]
  003b9	0f 1f 80 00 00
	00 00		 npad	 7
$LL70@lssproto_F:
  003c0	8a 10		 mov	 dl, BYTE PTR [eax]
  003c2	3a 11		 cmp	 dl, BYTE PTR [ecx]
  003c4	75 1a		 jne	 SHORT $LN71@lssproto_F
  003c6	84 d2		 test	 dl, dl
  003c8	74 12		 je	 SHORT $LN72@lssproto_F
  003ca	8a 50 01	 mov	 dl, BYTE PTR [eax+1]
  003cd	3a 51 01	 cmp	 dl, BYTE PTR [ecx+1]
  003d0	75 0e		 jne	 SHORT $LN71@lssproto_F
  003d2	83 c0 02	 add	 eax, 2
  003d5	83 c1 02	 add	 ecx, 2
  003d8	84 d2		 test	 dl, dl
  003da	75 e4		 jne	 SHORT $LL70@lssproto_F
$LN72@lssproto_F:
  003dc	33 c0		 xor	 eax, eax
  003de	eb 05		 jmp	 SHORT $LN73@lssproto_F
$LN71@lssproto_F:
  003e0	1b c0		 sbb	 eax, eax
  003e2	83 c8 01	 or	 eax, 1
$LN73@lssproto_F:
  003e5	85 c0		 test	 eax, eax
  003e7	75 09		 jne	 SHORT $LN20@lssproto_F

; 4279 : 		{
; 4280 : 			initFamilyLeaderChange(data );

  003e9	56		 push	 esi
  003ea	e8 00 00 00 00	 call	 ?initFamilyLeaderChange@@YAXPAD@Z ; initFamilyLeaderChange

; 4281 : 		}
; 4282 : 	}
; 4283 : 
; 4284 : }

  003ef	83 c4 04	 add	 esp, 4
$LN20@lssproto_F:
  003f2	8b 4d fc	 mov	 ecx, DWORD PTR __$ArrayPad$[ebp]
  003f5	33 cd		 xor	 ecx, ebp
  003f7	5e		 pop	 esi
  003f8	e8 00 00 00 00	 call	 @__security_check_cookie@4
  003fd	8b e5		 mov	 esp, ebp
  003ff	5d		 pop	 ebp
  00400	c3		 ret	 0
?lssproto_FM_recv@@YAXHPAD@Z ENDP			; lssproto_FM_recv
_TEXT	ENDS
; Function compile flags: /Ogtp
; File \\VBOXSVR\_stoneage\repos\ssm-sacli\system\netproc.cpp
;	COMDAT ?lssproto_NU_recv@@YAXHH@Z
_TEXT	SEGMENT
_fd$ = 8						; size = 4
_AddCount$ = 12						; size = 4
?lssproto_NU_recv@@YAXHH@Z PROC				; lssproto_NU_recv, COMDAT

; 4151 : 	//JL 2016.11.13  90å·åŒ…ï¼Œèµ°è·¯æ­¥æ•°
; 4152 : 	return;
; 4153 : 
; 4154 : 
; 4155 : 	if ( AddCount < 0 )
; 4156 : 		SendCount += AddCount;
; 4157 : 	else
; 4158 : 		SendCount += AddCount;
; 4159 : }

  00000	c2 00 00	 ret	 0
?lssproto_NU_recv@@YAXHH@Z ENDP				; lssproto_NU_recv
_TEXT	ENDS
; Function compile flags: /Ogtp
; File \\VBOXSVR\_stoneage\repos\ssm-sacli\system\netproc.cpp
;	COMDAT ?lssproto_Echo_recv@@YAXHPAD@Z
_TEXT	SEGMENT
_fd$ = 8						; size = 4
_test$ = 12						; size = 4
?lssproto_Echo_recv@@YAXHPAD@Z PROC			; lssproto_Echo_recv, COMDAT

; 4136 : #if 1
; 4137 : #ifdef  _STONDEBUG__MSG
; 4138 : 
; 4139 : 	// ???îšº??îŽ•î™¾
; 4140 : 	time( &serverAliveLongTime );
; 4141 : 	serverAliveTime = localtime( &serverAliveLongTime );
; 4142 : 
; 4143 : #endif
; 4144 : #endif
; 4145 : }

  00000	c2 00 00	 ret	 0
?lssproto_Echo_recv@@YAXHPAD@Z ENDP			; lssproto_Echo_recv
_TEXT	ENDS
; Function compile flags: /Ogtp
; File \\VBOXSVR\_stoneage\repos\ssm-sacli\system\netproc.cpp
;	COMDAT ?lssproto_PlayerNumGet_recv@@YAXHHH@Z
_TEXT	SEGMENT
_fd$ = 8						; size = 4
_logincount$ = 12					; size = 4
_player$ = 16						; size = 4
?lssproto_PlayerNumGet_recv@@YAXHHH@Z PROC		; lssproto_PlayerNumGet_recv, COMDAT

; 4165 : }

  00000	c2 00 00	 ret	 0
?lssproto_PlayerNumGet_recv@@YAXHHH@Z ENDP		; lssproto_PlayerNumGet_recv
_TEXT	ENDS
; Function compile flags: /Ogtp
; File \\VBOXSVR\_stoneage\repos\ssm-sacli\system\netproc.cpp
;	COMDAT ?lssproto_ProcGet_recv@@YAXHPAD@Z
_TEXT	SEGMENT
_fd$ = 8						; size = 4
_data$ = 12						; size = 4
?lssproto_ProcGet_recv@@YAXHPAD@Z PROC			; lssproto_ProcGet_recv, COMDAT

; 4170 : }

  00000	c2 00 00	 ret	 0
?lssproto_ProcGet_recv@@YAXHPAD@Z ENDP			; lssproto_ProcGet_recv
_TEXT	ENDS
; Function compile flags: /Ogtp
; File \\VBOXSVR\_stoneage\repos\ssm-sacli\system\netproc.cpp
;	COMDAT ?lssproto_CharLogout_recv@@YAXHPAD0@Z
_TEXT	SEGMENT
_fd$ = 8						; size = 4
_result$ = 12						; size = 4
_data$ = 16						; size = 4
?lssproto_CharLogout_recv@@YAXHPAD0@Z PROC		; lssproto_CharLogout_recv, COMDAT

; 853  : {

  00000	55		 push	 ebp
  00001	8b ec		 mov	 ebp, esp

; 854  : 	if (netproc_sending == NETPROC_SENDING)

  00003	83 3d 00 00 00
	00 01		 cmp	 DWORD PTR ?netproc_sending@@3HA, 1 ; netproc_sending
  0000a	75 48		 jne	 SHORT $LN3@lssproto_C

; 855  : 	{
; 856  : 		netproc_sending = NETPROC_RECEIVED;
; 857  : 		if (strcmp(result, SUCCESSFULSTR) == 0)

  0000c	8b 4d 0c	 mov	 ecx, DWORD PTR _result$[ebp]
  0000f	b8 00 00 00 00	 mov	 eax, OFFSET ??_C@_0L@LHCHIOPJ@successful@
  00014	c7 05 00 00 00
	00 02 00 00 00	 mov	 DWORD PTR ?netproc_sending@@3HA, 2 ; netproc_sending
  0001e	66 90		 npad	 2
$LL5@lssproto_C:
  00020	8a 11		 mov	 dl, BYTE PTR [ecx]
  00022	3a 10		 cmp	 dl, BYTE PTR [eax]
  00024	75 1a		 jne	 SHORT $LN6@lssproto_C
  00026	84 d2		 test	 dl, dl
  00028	74 12		 je	 SHORT $LN7@lssproto_C
  0002a	8a 51 01	 mov	 dl, BYTE PTR [ecx+1]
  0002d	3a 50 01	 cmp	 dl, BYTE PTR [eax+1]
  00030	75 0e		 jne	 SHORT $LN6@lssproto_C
  00032	83 c1 02	 add	 ecx, 2
  00035	83 c0 02	 add	 eax, 2
  00038	84 d2		 test	 dl, dl
  0003a	75 e4		 jne	 SHORT $LL5@lssproto_C
$LN7@lssproto_C:
  0003c	33 c0		 xor	 eax, eax
  0003e	eb 05		 jmp	 SHORT $LN8@lssproto_C
$LN6@lssproto_C:
  00040	1b c0		 sbb	 eax, eax
  00042	83 c8 01	 or	 eax, 1
$LN8@lssproto_C:
  00045	85 c0		 test	 eax, eax
  00047	75 0b		 jne	 SHORT $LN3@lssproto_C

; 858  : 			charLogoutStatus = 1;

  00049	b8 01 00 00 00	 mov	 eax, 1
  0004e	66 a3 00 00 00
	00		 mov	 WORD PTR ?charLogoutStatus@@3FA, ax ; charLogoutStatus
$LN3@lssproto_C:

; 859  : 	}
; 860  : }

  00054	5d		 pop	 ebp
  00055	c3		 ret	 0
?lssproto_CharLogout_recv@@YAXHPAD0@Z ENDP		; lssproto_CharLogout_recv
_TEXT	ENDS
; Function compile flags: /Ogtp
; File \\VBOXSVR\_stoneage\repos\ssm-sacli\system\netproc.cpp
;	COMDAT ?lssproto_CharList_recv@@YAXHPAD0@Z
_TEXT	SEGMENT
_nm$1 = -2052						; size = 1024
_opt$2 = -1028						; size = 1024
__$ArrayPad$ = -4					; size = 4
_fd$ = 8						; size = 4
_result$ = 12						; size = 4
_data$ = 16						; size = 4
?lssproto_CharList_recv@@YAXHPAD0@Z PROC		; lssproto_CharList_recv, COMDAT

; 696  : void lssproto_CharList_recv(int fd, char *result, char *data){

  00000	55		 push	 ebp
  00001	8b ec		 mov	 ebp, esp
  00003	81 ec 04 08 00
	00		 sub	 esp, 2052		; 00000804H
  00009	a1 00 00 00 00	 mov	 eax, DWORD PTR ___security_cookie
  0000e	33 c5		 xor	 eax, ebp
  00010	89 45 fc	 mov	 DWORD PTR __$ArrayPad$[ebp], eax
  00013	56		 push	 esi
  00014	8b 75 10	 mov	 esi, DWORD PTR _data$[ebp]

; 697  : 
; 698  : 	if(strcmp(result,"failed")==0) {

  00017	b9 00 00 00 00	 mov	 ecx, OFFSET ??_C@_06ODACHPEO@failed@
  0001c	57		 push	 edi
  0001d	8b 7d 0c	 mov	 edi, DWORD PTR _result$[ebp]
  00020	8b c7		 mov	 eax, edi
$LL16@lssproto_C:
  00022	8a 10		 mov	 dl, BYTE PTR [eax]
  00024	3a 11		 cmp	 dl, BYTE PTR [ecx]
  00026	75 1a		 jne	 SHORT $LN17@lssproto_C
  00028	84 d2		 test	 dl, dl
  0002a	74 12		 je	 SHORT $LN18@lssproto_C
  0002c	8a 50 01	 mov	 dl, BYTE PTR [eax+1]
  0002f	3a 51 01	 cmp	 dl, BYTE PTR [ecx+1]
  00032	75 0e		 jne	 SHORT $LN17@lssproto_C
  00034	83 c0 02	 add	 eax, 2
  00037	83 c1 02	 add	 ecx, 2
  0003a	84 d2		 test	 dl, dl
  0003c	75 e4		 jne	 SHORT $LL16@lssproto_C
$LN18@lssproto_C:
  0003e	33 c0		 xor	 eax, eax
  00040	eb 05		 jmp	 SHORT $LN19@lssproto_C
$LN17@lssproto_C:
  00042	1b c0		 sbb	 eax, eax
  00044	83 c8 01	 or	 eax, 1
$LN19@lssproto_C:
  00047	85 c0		 test	 eax, eax
  00049	75 0f		 jne	 SHORT $LN5@lssproto_C

; 699  : #ifdef _NB_æ–­çº¿è‡ªåŠ¨é‡è¿ž
; 700  : 		PcLanded.ç™»é™†å»¶æ—¶æ—¶é—´ = TimeGetTime()+2000;

  0004b	e8 00 00 00 00	 call	 ?TimeGetTime@@YAIXZ	; TimeGetTime
  00050	05 d0 07 00 00	 add	 eax, 2000		; 000007d0H
  00055	a3 9c 00 00 00	 mov	 DWORD PTR ?PcLanded@@3ULanded@@A+156, eax
$LN5@lssproto_C:

; 701  : #endif
; 702  : 	}
; 703  : 	if (netproc_sending == NETPROC_SENDING){

  0005a	83 3d 00 00 00
	00 01		 cmp	 DWORD PTR ?netproc_sending@@3HA, 1 ; netproc_sending
  00061	0f 85 82 01 00
	00		 jne	 $LN3@lssproto_C

; 704  : 		char nm[1024], opt[1024];
; 705  : 		int i;
; 706  : 		netproc_sending = NETPROC_RECEIVED;

  00067	c7 05 00 00 00
	00 02 00 00 00	 mov	 DWORD PTR ?netproc_sending@@3HA, 2 ; netproc_sending

; 707  : 		if (strcmp(result, SUCCESSFULSTR) != 0){

  00071	b8 00 00 00 00	 mov	 eax, OFFSET ??_C@_0L@LHCHIOPJ@successful@
$LL20@lssproto_C:
  00076	8a 0f		 mov	 cl, BYTE PTR [edi]
  00078	3a 08		 cmp	 cl, BYTE PTR [eax]
  0007a	75 1a		 jne	 SHORT $LN21@lssproto_C
  0007c	84 c9		 test	 cl, cl
  0007e	74 12		 je	 SHORT $LN22@lssproto_C
  00080	8a 4f 01	 mov	 cl, BYTE PTR [edi+1]
  00083	3a 48 01	 cmp	 cl, BYTE PTR [eax+1]
  00086	75 0e		 jne	 SHORT $LN21@lssproto_C
  00088	83 c7 02	 add	 edi, 2
  0008b	83 c0 02	 add	 eax, 2
  0008e	84 c9		 test	 cl, cl
  00090	75 e4		 jne	 SHORT $LL20@lssproto_C
$LN22@lssproto_C:
  00092	33 c0		 xor	 eax, eax
  00094	eb 05		 jmp	 SHORT $LN23@lssproto_C
$LN21@lssproto_C:
  00096	1b c0		 sbb	 eax, eax
  00098	83 c8 01	 or	 eax, 1
$LN23@lssproto_C:
  0009b	85 c0		 test	 eax, eax
  0009d	0f 84 d5 00 00
	00		 je	 $LN7@lssproto_C

; 708  : 			if (strcmp(data, "OUTOFSERVICE") == 0)

  000a3	b9 00 00 00 00	 mov	 ecx, OFFSET ??_C@_0N@OGLBPKPL@OUTOFSERVICE@
  000a8	8b c6		 mov	 eax, esi
  000aa	66 0f 1f 44 00
	00		 npad	 6
$LL24@lssproto_C:
  000b0	8a 10		 mov	 dl, BYTE PTR [eax]
  000b2	3a 11		 cmp	 dl, BYTE PTR [ecx]
  000b4	75 1a		 jne	 SHORT $LN25@lssproto_C
  000b6	84 d2		 test	 dl, dl
  000b8	74 12		 je	 SHORT $LN26@lssproto_C
  000ba	8a 50 01	 mov	 dl, BYTE PTR [eax+1]
  000bd	3a 51 01	 cmp	 dl, BYTE PTR [ecx+1]
  000c0	75 0e		 jne	 SHORT $LN25@lssproto_C
  000c2	83 c0 02	 add	 eax, 2
  000c5	83 c1 02	 add	 ecx, 2
  000c8	84 d2		 test	 dl, dl
  000ca	75 e4		 jne	 SHORT $LL24@lssproto_C
$LN26@lssproto_C:
  000cc	33 c0		 xor	 eax, eax
  000ce	eb 05		 jmp	 SHORT $LN27@lssproto_C
$LN25@lssproto_C:
  000d0	1b c0		 sbb	 eax, eax
  000d2	83 c8 01	 or	 eax, 1
$LN27@lssproto_C:
  000d5	85 c0		 test	 eax, eax
  000d7	75 0b		 jne	 SHORT $LN8@lssproto_C

; 709  : 				charListStatus = 2;

  000d9	b8 02 00 00 00	 mov	 eax, 2
  000de	66 a3 00 00 00
	00		 mov	 WORD PTR ?charListStatus@@3FA, ax ; charListStatus
$LN8@lssproto_C:

; 710  : #ifdef _CHANGEGALAXY
; 711  : 			if (strcmp(data, "CHANGE_GALAXY") == 0)

  000e4	b9 00 00 00 00	 mov	 ecx, OFFSET ??_C@_0O@ENFKOFGC@CHANGE_GALAXY@
  000e9	8b c6		 mov	 eax, esi
  000eb	0f 1f 44 00 00	 npad	 5
$LL28@lssproto_C:
  000f0	8a 10		 mov	 dl, BYTE PTR [eax]
  000f2	3a 11		 cmp	 dl, BYTE PTR [ecx]
  000f4	75 1a		 jne	 SHORT $LN29@lssproto_C
  000f6	84 d2		 test	 dl, dl
  000f8	74 12		 je	 SHORT $LN30@lssproto_C
  000fa	8a 50 01	 mov	 dl, BYTE PTR [eax+1]
  000fd	3a 51 01	 cmp	 dl, BYTE PTR [ecx+1]
  00100	75 0e		 jne	 SHORT $LN29@lssproto_C
  00102	83 c0 02	 add	 eax, 2
  00105	83 c1 02	 add	 ecx, 2
  00108	84 d2		 test	 dl, dl
  0010a	75 e4		 jne	 SHORT $LL28@lssproto_C
$LN30@lssproto_C:
  0010c	33 c0		 xor	 eax, eax
  0010e	eb 05		 jmp	 SHORT $LN31@lssproto_C
$LN29@lssproto_C:
  00110	1b c0		 sbb	 eax, eax
  00112	83 c8 01	 or	 eax, 1
$LN31@lssproto_C:
  00115	85 c0		 test	 eax, eax
  00117	75 0b		 jne	 SHORT $LN9@lssproto_C

; 712  : 				charListStatus = 3;

  00119	b8 03 00 00 00	 mov	 eax, 3
  0011e	66 a3 00 00 00
	00		 mov	 WORD PTR ?charListStatus@@3FA, ax ; charListStatus
$LN9@lssproto_C:

; 713  : #endif
; 714  : #ifdef _ERROR301
; 715  : 			if (strcmp(data, "301") == 0)

  00124	b8 00 00 00 00	 mov	 eax, OFFSET ??_C@_03NOBDJFIO@301@
  00129	0f 1f 80 00 00
	00 00		 npad	 7
$LL32@lssproto_C:
  00130	8a 0e		 mov	 cl, BYTE PTR [esi]
  00132	3a 08		 cmp	 cl, BYTE PTR [eax]
  00134	75 1a		 jne	 SHORT $LN33@lssproto_C
  00136	84 c9		 test	 cl, cl
  00138	74 12		 je	 SHORT $LN34@lssproto_C
  0013a	8a 4e 01	 mov	 cl, BYTE PTR [esi+1]
  0013d	3a 48 01	 cmp	 cl, BYTE PTR [eax+1]
  00140	75 0e		 jne	 SHORT $LN33@lssproto_C
  00142	83 c6 02	 add	 esi, 2
  00145	83 c0 02	 add	 eax, 2
  00148	84 c9		 test	 cl, cl
  0014a	75 e4		 jne	 SHORT $LL32@lssproto_C
$LN34@lssproto_C:
  0014c	33 c0		 xor	 eax, eax
  0014e	eb 05		 jmp	 SHORT $LN35@lssproto_C
$LN33@lssproto_C:
  00150	1b c0		 sbb	 eax, eax
  00152	83 c8 01	 or	 eax, 1
$LN35@lssproto_C:
  00155	85 c0		 test	 eax, eax
  00157	0f 85 8c 00 00
	00		 jne	 $LN3@lssproto_C

; 716  : 				charListStatus = 4;

  0015d	b8 04 00 00 00	 mov	 eax, 4
  00162	5f		 pop	 edi
  00163	66 a3 00 00 00
	00		 mov	 WORD PTR ?charListStatus@@3FA, ax ; charListStatus

; 727  : 		}
; 728  : 	}
; 729  : }

  00169	5e		 pop	 esi
  0016a	8b 4d fc	 mov	 ecx, DWORD PTR __$ArrayPad$[ebp]
  0016d	33 cd		 xor	 ecx, ebp
  0016f	e8 00 00 00 00	 call	 @__security_check_cookie@4
  00174	8b e5		 mov	 esp, ebp
  00176	5d		 pop	 ebp
  00177	c3		 ret	 0
$LN7@lssproto_C:

; 717  : #endif
; 718  : 			return;
; 719  : 		}
; 720  : 		charListStatus = 1;

  00178	b8 01 00 00 00	 mov	 eax, 1
  0017d	66 a3 00 00 00
	00		 mov	 WORD PTR ?charListStatus@@3FA, ax ; charListStatus
  00183	8d 78 01	 lea	 edi, DWORD PTR [eax+1]
  00186	66 66 0f 1f 84
	00 00 00 00 00	 npad	 10
$LL4@lssproto_C:

; 721  : 		for (i = 0; i < MAXCHARACTER; i++){
; 722  : 			strcpy(nm, "");
; 723  : 			strcpy(opt, "");
; 724  : 			getStringToken(data, '|', i * 2 + 1, sizeof(nm) - 1 , nm);

  00190	8d 85 fc f7 ff
	ff		 lea	 eax, DWORD PTR _nm$1[ebp]
  00196	c6 85 fc f7 ff
	ff 00		 mov	 BYTE PTR _nm$1[ebp], 0
  0019d	50		 push	 eax
  0019e	68 ff 03 00 00	 push	 1023			; 000003ffH
  001a3	8d 47 ff	 lea	 eax, DWORD PTR [edi-1]
  001a6	c6 85 fc fb ff
	ff 00		 mov	 BYTE PTR _opt$2[ebp], 0
  001ad	50		 push	 eax
  001ae	6a 7c		 push	 124			; 0000007cH
  001b0	56		 push	 esi
  001b1	e8 00 00 00 00	 call	 ?getStringToken@@YAHPADDHH0@Z ; getStringToken

; 725  : 			getStringToken(data, '|', i * 2 + 2, sizeof(opt) - 1, opt);

  001b6	8d 85 fc fb ff
	ff		 lea	 eax, DWORD PTR _opt$2[ebp]
  001bc	50		 push	 eax
  001bd	68 ff 03 00 00	 push	 1023			; 000003ffH
  001c2	57		 push	 edi
  001c3	6a 7c		 push	 124			; 0000007cH
  001c5	56		 push	 esi
  001c6	e8 00 00 00 00	 call	 ?getStringToken@@YAHPADDHH0@Z ; getStringToken

; 726  : 			setCharacterList(nm, opt);

  001cb	8d 85 fc fb ff
	ff		 lea	 eax, DWORD PTR _opt$2[ebp]
  001d1	50		 push	 eax
  001d2	8d 85 fc f7 ff
	ff		 lea	 eax, DWORD PTR _nm$1[ebp]
  001d8	50		 push	 eax
  001d9	e8 00 00 00 00	 call	 ?setCharacterList@@YAHPAD0@Z ; setCharacterList
  001de	83 c7 02	 add	 edi, 2
  001e1	83 c4 30	 add	 esp, 48			; 00000030H
  001e4	83 ff 06	 cmp	 edi, 6
  001e7	7c a7		 jl	 SHORT $LL4@lssproto_C
$LN3@lssproto_C:

; 727  : 		}
; 728  : 	}
; 729  : }

  001e9	8b 4d fc	 mov	 ecx, DWORD PTR __$ArrayPad$[ebp]
  001ec	5f		 pop	 edi
  001ed	33 cd		 xor	 ecx, ebp
  001ef	5e		 pop	 esi
  001f0	e8 00 00 00 00	 call	 @__security_check_cookie@4
  001f5	8b e5		 mov	 esp, ebp
  001f7	5d		 pop	 ebp
  001f8	c3		 ret	 0
?lssproto_CharList_recv@@YAXHPAD0@Z ENDP		; lssproto_CharList_recv
_TEXT	ENDS
; Function compile flags: /Ogtp
; File \\VBOXSVR\_stoneage\repos\ssm-sacli\system\netproc.cpp
;	COMDAT ?lssproto_CharLogin_recv@@YAXHPAD0@Z
_TEXT	SEGMENT
_fd$ = 8						; size = 4
_result$ = 12						; size = 4
_data$ = 16						; size = 4
?lssproto_CharLogin_recv@@YAXHPAD0@Z PROC		; lssproto_CharLogin_recv, COMDAT

; 801  : void lssproto_CharLogin_recv(int fd, char* result, char* data){

  00000	55		 push	 ebp
  00001	8b ec		 mov	 ebp, esp

; 802  : 	if (netproc_sending == NETPROC_SENDING){

  00003	83 3d 00 00 00
	00 01		 cmp	 DWORD PTR ?netproc_sending@@3HA, 1 ; netproc_sending
  0000a	0f 85 c7 00 00
	00		 jne	 $LN2@lssproto_C

; 803  : 		netproc_sending = NETPROC_RECEIVED;

  00010	56		 push	 esi

; 804  : #ifdef __NEW_CLIENT
; 805  : 		if (strcmp(result, SUCCESSFULSTR) == 0 && !hPing)

  00011	8b 75 0c	 mov	 esi, DWORD PTR _result$[ebp]
  00014	b9 00 00 00 00	 mov	 ecx, OFFSET ??_C@_0L@LHCHIOPJ@successful@
  00019	c7 05 00 00 00
	00 02 00 00 00	 mov	 DWORD PTR ?netproc_sending@@3HA, 2 ; netproc_sending
  00023	8b c6		 mov	 eax, esi
$LL6@lssproto_C:
  00025	8a 10		 mov	 dl, BYTE PTR [eax]
  00027	3a 11		 cmp	 dl, BYTE PTR [ecx]
  00029	75 1a		 jne	 SHORT $LN7@lssproto_C
  0002b	84 d2		 test	 dl, dl
  0002d	74 12		 je	 SHORT $LN8@lssproto_C
  0002f	8a 50 01	 mov	 dl, BYTE PTR [eax+1]
  00032	3a 51 01	 cmp	 dl, BYTE PTR [ecx+1]
  00035	75 0e		 jne	 SHORT $LN7@lssproto_C
  00037	83 c0 02	 add	 eax, 2
  0003a	83 c1 02	 add	 ecx, 2
  0003d	84 d2		 test	 dl, dl
  0003f	75 e4		 jne	 SHORT $LL6@lssproto_C
$LN8@lssproto_C:
  00041	33 c0		 xor	 eax, eax
  00043	eb 05		 jmp	 SHORT $LN9@lssproto_C
$LN7@lssproto_C:
  00045	1b c0		 sbb	 eax, eax
  00047	83 c8 01	 or	 eax, 1
$LN9@lssproto_C:
  0004a	8b 15 00 00 00
	00		 mov	 edx, DWORD PTR ?hPing@@3PAXA ; hPing
  00050	85 c0		 test	 eax, eax
  00052	75 2f		 jne	 SHORT $LN3@lssproto_C
  00054	85 d2		 test	 edx, edx
  00056	75 2b		 jne	 SHORT $LN3@lssproto_C

; 806  : #else
; 807  : 		if (strcmp(result, SUCCESSFULSTR) == 0)
; 808  : #endif
; 809  : 		{
; 810  : 			charLoginStatus = 1;
; 811  : #ifdef __NEW_CLIENT
; 812  : 			hPing = CreateThread(NULL, 0, PingFunc, &sin_server.sin_addr, 0, &dwPingID);

  00058	68 00 00 00 00	 push	 OFFSET ?dwPingID@@3KA	; dwPingID
  0005d	52		 push	 edx
  0005e	68 04 00 00 00	 push	 OFFSET ?sin_server@@3Usockaddr_in@@A+4
  00063	68 00 00 00 00	 push	 OFFSET ?PingFunc@@YGKPAX@Z ; PingFunc
  00068	52		 push	 edx
  00069	b8 01 00 00 00	 mov	 eax, 1
  0006e	52		 push	 edx
  0006f	66 a3 00 00 00
	00		 mov	 WORD PTR ?charLoginStatus@@3FA, ax ; charLoginStatus
  00075	ff 15 00 00 00
	00		 call	 DWORD PTR __imp__CreateThread@24
  0007b	8b d0		 mov	 edx, eax
  0007d	89 15 00 00 00
	00		 mov	 DWORD PTR ?hPing@@3PAXA, edx ; hPing
$LN3@lssproto_C:

; 813  : #endif
; 814  : 		}
; 815  : 
; 816  : #ifdef _NEW_WGS_MSG				// WON ADD WGSçš„æ–°è§†çª—
; 817  : 		if (strcmp(result, "failed" ) == 0 && !hPing)

  00083	b8 00 00 00 00	 mov	 eax, OFFSET ??_C@_06ODACHPEO@failed@
$LL10@lssproto_C:
  00088	8a 0e		 mov	 cl, BYTE PTR [esi]
  0008a	3a 08		 cmp	 cl, BYTE PTR [eax]
  0008c	75 1a		 jne	 SHORT $LN11@lssproto_C
  0008e	84 c9		 test	 cl, cl
  00090	74 12		 je	 SHORT $LN12@lssproto_C
  00092	8a 4e 01	 mov	 cl, BYTE PTR [esi+1]
  00095	3a 48 01	 cmp	 cl, BYTE PTR [eax+1]
  00098	75 0e		 jne	 SHORT $LN11@lssproto_C
  0009a	83 c6 02	 add	 esi, 2
  0009d	83 c0 02	 add	 eax, 2
  000a0	84 c9		 test	 cl, cl
  000a2	75 e4		 jne	 SHORT $LL10@lssproto_C
$LN12@lssproto_C:
  000a4	33 c0		 xor	 eax, eax
  000a6	eb 05		 jmp	 SHORT $LN13@lssproto_C
$LN11@lssproto_C:
  000a8	1b c0		 sbb	 eax, eax
  000aa	83 c8 01	 or	 eax, 1
$LN13@lssproto_C:
  000ad	5e		 pop	 esi
  000ae	85 c0		 test	 eax, eax
  000b0	75 14		 jne	 SHORT $LN4@lssproto_C
  000b2	85 d2		 test	 edx, edx
  000b4	75 10		 jne	 SHORT $LN4@lssproto_C

; 818  : 			ERROR_MESSAGE = atoi(data);

  000b6	ff 75 10	 push	 DWORD PTR _data$[ebp]
  000b9	e8 00 00 00 00	 call	 _atoi
  000be	83 c4 04	 add	 esp, 4
  000c1	a3 00 00 00 00	 mov	 DWORD PTR ?ERROR_MESSAGE@@3HA, eax ; ERROR_MESSAGE
$LN4@lssproto_C:

; 819  : #endif
; 820  : 
; 821  : #ifdef _ANGEL_SUMMON
; 822  : 		angelFlag = FALSE;

  000c6	c7 05 00 00 00
	00 00 00 00 00	 mov	 DWORD PTR ?angelFlag@@3HA, 0 ; angelFlag

; 823  : 		angelMsg[0] = NULL;

  000d0	c6 05 00 00 00
	00 00		 mov	 BYTE PTR ?angelMsg@@3PADA, 0
$LN2@lssproto_C:

; 824  : #endif
; 825  : 	}
; 826  : }

  000d7	5d		 pop	 ebp
  000d8	c3		 ret	 0
?lssproto_CharLogin_recv@@YAXHPAD0@Z ENDP		; lssproto_CharLogin_recv
_TEXT	ENDS
; Function compile flags: /Ogtp
; File \\VBOXSVR\_stoneage\repos\ssm-sacli\system\netproc.cpp
;	COMDAT ?lssproto_CharDelete_recv@@YAXHPAD0@Z
_TEXT	SEGMENT
_fd$ = 8						; size = 4
_result$ = 12						; size = 4
_data$ = 16						; size = 4
?lssproto_CharDelete_recv@@YAXHPAD0@Z PROC		; lssproto_CharDelete_recv, COMDAT

; 3178 : {

  00000	55		 push	 ebp
  00001	8b ec		 mov	 ebp, esp

; 3179 : 	if ( netproc_sending == NETPROC_SENDING )

  00003	83 3d 00 00 00
	00 01		 cmp	 DWORD PTR ?netproc_sending@@3HA, 1 ; netproc_sending
  0000a	75 48		 jne	 SHORT $LN3@lssproto_C

; 3180 : 	{
; 3181 : 		netproc_sending = NETPROC_RECEIVED;
; 3182 : 		if ( strcmp( result, SUCCESSFULSTR ) == 0 )

  0000c	8b 4d 0c	 mov	 ecx, DWORD PTR _result$[ebp]
  0000f	b8 00 00 00 00	 mov	 eax, OFFSET ??_C@_0L@LHCHIOPJ@successful@
  00014	c7 05 00 00 00
	00 02 00 00 00	 mov	 DWORD PTR ?netproc_sending@@3HA, 2 ; netproc_sending
  0001e	66 90		 npad	 2
$LL5@lssproto_C:
  00020	8a 11		 mov	 dl, BYTE PTR [ecx]
  00022	3a 10		 cmp	 dl, BYTE PTR [eax]
  00024	75 1a		 jne	 SHORT $LN6@lssproto_C
  00026	84 d2		 test	 dl, dl
  00028	74 12		 je	 SHORT $LN7@lssproto_C
  0002a	8a 51 01	 mov	 dl, BYTE PTR [ecx+1]
  0002d	3a 50 01	 cmp	 dl, BYTE PTR [eax+1]
  00030	75 0e		 jne	 SHORT $LN6@lssproto_C
  00032	83 c1 02	 add	 ecx, 2
  00035	83 c0 02	 add	 eax, 2
  00038	84 d2		 test	 dl, dl
  0003a	75 e4		 jne	 SHORT $LL5@lssproto_C
$LN7@lssproto_C:
  0003c	33 c0		 xor	 eax, eax
  0003e	eb 05		 jmp	 SHORT $LN8@lssproto_C
$LN6@lssproto_C:
  00040	1b c0		 sbb	 eax, eax
  00042	83 c8 01	 or	 eax, 1
$LN8@lssproto_C:
  00045	85 c0		 test	 eax, eax
  00047	75 0b		 jne	 SHORT $LN3@lssproto_C

; 3183 : 		{
; 3184 : 			charDelStatus = 1;

  00049	b8 01 00 00 00	 mov	 eax, 1
  0004e	66 a3 00 00 00
	00		 mov	 WORD PTR ?charDelStatus@@3FA, ax ; charDelStatus
$LN3@lssproto_C:

; 3185 :     	}
; 3186 :     }
; 3187 : }

  00054	5d		 pop	 ebp
  00055	c3		 ret	 0
?lssproto_CharDelete_recv@@YAXHPAD0@Z ENDP		; lssproto_CharDelete_recv
_TEXT	ENDS
; Function compile flags: /Ogtp
; File \\VBOXSVR\_stoneage\repos\ssm-sacli\system\netproc.cpp
;	COMDAT ?lssproto_CreateNewChar_recv@@YAXHPAD0@Z
_TEXT	SEGMENT
_fd$ = 8						; size = 4
_result$ = 12						; size = 4
_data$ = 16						; size = 4
?lssproto_CreateNewChar_recv@@YAXHPAD0@Z PROC		; lssproto_CreateNewChar_recv, COMDAT

; 3119 : {

  00000	55		 push	 ebp
  00001	8b ec		 mov	 ebp, esp

; 3120 : 	if ( netproc_sending == NETPROC_SENDING )

  00003	83 3d 00 00 00
	00 01		 cmp	 DWORD PTR ?netproc_sending@@3HA, 1 ; netproc_sending
  0000a	75 48		 jne	 SHORT $LN3@lssproto_C

; 3121 : 	{
; 3122 : 		netproc_sending = NETPROC_RECEIVED;
; 3123 : 
; 3124 : 		if ( strcmp( result, SUCCESSFULSTR ) == 0 )

  0000c	8b 4d 0c	 mov	 ecx, DWORD PTR _result$[ebp]
  0000f	b8 00 00 00 00	 mov	 eax, OFFSET ??_C@_0L@LHCHIOPJ@successful@
  00014	c7 05 00 00 00
	00 02 00 00 00	 mov	 DWORD PTR ?netproc_sending@@3HA, 2 ; netproc_sending
  0001e	66 90		 npad	 2
$LL5@lssproto_C:
  00020	8a 11		 mov	 dl, BYTE PTR [ecx]
  00022	3a 10		 cmp	 dl, BYTE PTR [eax]
  00024	75 1a		 jne	 SHORT $LN6@lssproto_C
  00026	84 d2		 test	 dl, dl
  00028	74 12		 je	 SHORT $LN7@lssproto_C
  0002a	8a 51 01	 mov	 dl, BYTE PTR [ecx+1]
  0002d	3a 50 01	 cmp	 dl, BYTE PTR [eax+1]
  00030	75 0e		 jne	 SHORT $LN6@lssproto_C
  00032	83 c1 02	 add	 ecx, 2
  00035	83 c0 02	 add	 eax, 2
  00038	84 d2		 test	 dl, dl
  0003a	75 e4		 jne	 SHORT $LL5@lssproto_C
$LN7@lssproto_C:
  0003c	33 c0		 xor	 eax, eax
  0003e	eb 05		 jmp	 SHORT $LN8@lssproto_C
$LN6@lssproto_C:
  00040	1b c0		 sbb	 eax, eax
  00042	83 c8 01	 or	 eax, 1
$LN8@lssproto_C:
  00045	85 c0		 test	 eax, eax
  00047	75 0b		 jne	 SHORT $LN3@lssproto_C

; 3125 : 		{
; 3126 : 			newCharStatus = 1;

  00049	b8 01 00 00 00	 mov	 eax, 1
  0004e	66 a3 00 00 00
	00		 mov	 WORD PTR ?newCharStatus@@3FA, ax ; newCharStatus
$LN3@lssproto_C:

; 3127 : 		}
; 3128 :     }
; 3129 : }

  00054	5d		 pop	 ebp
  00055	c3		 ret	 0
?lssproto_CreateNewChar_recv@@YAXHPAD0@Z ENDP		; lssproto_CreateNewChar_recv
_TEXT	ENDS
; Function compile flags: /Ogtp
; File \\VBOXSVR\_stoneage\repos\ssm-sacli\system\netproc.cpp
; File C:\Program Files (x86)\Windows Kits\10\Include\10.0.19041.0\ucrt\time.h
; File \\VBOXSVR\_stoneage\repos\ssm-sacli\system\netproc.cpp
; File C:\Program Files (x86)\Windows Kits\10\Include\10.0.19041.0\ucrt\time.h
; File \\VBOXSVR\_stoneage\repos\ssm-sacli\system\netproc.cpp
;	COMDAT ?lssproto_ClientLogin_recv@@YAXHPAD@Z
_TEXT	SEGMENT
_fd$ = 8						; size = 4
_result$ = 12						; size = 4
?lssproto_ClientLogin_recv@@YAXHPAD@Z PROC		; lssproto_ClientLogin_recv, COMDAT

; 638  : void lssproto_ClientLogin_recv(int fd, char *result){

  00000	55		 push	 ebp
  00001	8b ec		 mov	 ebp, esp

; 639  : 	if (netproc_sending == NETPROC_SENDING){

  00003	83 3d 00 00 00
	00 01		 cmp	 DWORD PTR ?netproc_sending@@3HA, 1 ; netproc_sending
  0000a	0f 85 d6 00 00
	00		 jne	 $LN6@lssproto_C

; 640  : 		netproc_sending = NETPROC_RECEIVED;	

  00010	56		 push	 esi

; 641  : 		if (strcmp(result, OKSTR) == 0){

  00011	8b 75 0c	 mov	 esi, DWORD PTR _result$[ebp]
  00014	b9 00 00 00 00	 mov	 ecx, OFFSET ??_C@_02MFDMBIJM@ok@
  00019	c7 05 00 00 00
	00 02 00 00 00	 mov	 DWORD PTR ?netproc_sending@@3HA, 2 ; netproc_sending
  00023	8b c6		 mov	 eax, esi
$LL12@lssproto_C:
  00025	8a 10		 mov	 dl, BYTE PTR [eax]
  00027	3a 11		 cmp	 dl, BYTE PTR [ecx]
  00029	75 1a		 jne	 SHORT $LN13@lssproto_C
  0002b	84 d2		 test	 dl, dl
  0002d	74 12		 je	 SHORT $LN14@lssproto_C
  0002f	8a 50 01	 mov	 dl, BYTE PTR [eax+1]
  00032	3a 51 01	 cmp	 dl, BYTE PTR [ecx+1]
  00035	75 0e		 jne	 SHORT $LN13@lssproto_C
  00037	83 c0 02	 add	 eax, 2
  0003a	83 c1 02	 add	 ecx, 2
  0003d	84 d2		 test	 dl, dl
  0003f	75 e4		 jne	 SHORT $LL12@lssproto_C
$LN14@lssproto_C:
  00041	33 c0		 xor	 eax, eax
  00043	eb 05		 jmp	 SHORT $LN15@lssproto_C
$LN13@lssproto_C:
  00045	1b c0		 sbb	 eax, eax
  00047	83 c8 01	 or	 eax, 1
$LN15@lssproto_C:
  0004a	85 c0		 test	 eax, eax
  0004c	75 2a		 jne	 SHORT $LN3@lssproto_C

; 642  : 			clientLoginStatus = 1;

  0004e	b8 01 00 00 00	 mov	 eax, 1
; File C:\Program Files (x86)\Windows Kits\10\Include\10.0.19041.0\ucrt\time.h

; 522  :             return _time64(_Time);

  00053	68 00 00 00 00	 push	 OFFSET ?serverAliveLongTime@@3_JA ; serverAliveLongTime
; File \\VBOXSVR\_stoneage\repos\ssm-sacli\system\netproc.cpp

; 642  : 			clientLoginStatus = 1;

  00058	66 a3 00 00 00
	00		 mov	 WORD PTR ?clientLoginStatus@@3FA, ax ; clientLoginStatus
; File C:\Program Files (x86)\Windows Kits\10\Include\10.0.19041.0\ucrt\time.h

; 522  :             return _time64(_Time);

  0005e	e8 00 00 00 00	 call	 __time64

; 499  :             return _localtime64(_Time);

  00063	68 00 00 00 00	 push	 OFFSET ?serverAliveLongTime@@3_JA ; serverAliveLongTime
  00068	e8 00 00 00 00	 call	 __localtime64
  0006d	83 c4 08	 add	 esp, 8
; File \\VBOXSVR\_stoneage\repos\ssm-sacli\system\netproc.cpp

; 644  : 			serverAliveTime = localtime(&serverAliveLongTime);

  00070	a3 00 00 00 00	 mov	 DWORD PTR ?serverAliveTime@@3PAUtm@@A, eax ; serverAliveTime
  00075	5e		 pop	 esi

; 655  : #endif
; 656  : 		}
; 657  : 	}
; 658  : }

  00076	5d		 pop	 ebp
  00077	c3		 ret	 0
$LN3@lssproto_C:

; 645  : 
; 646  : 		}else if(strcmp (result, CANCLE) == 0){

  00078	b8 00 00 00 00	 mov	 eax, OFFSET ??_C@_06ENLDJGGB@cancle@
  0007d	8b ce		 mov	 ecx, esi
  0007f	90		 npad	 1
$LL16@lssproto_C:
  00080	8a 11		 mov	 dl, BYTE PTR [ecx]
  00082	3a 10		 cmp	 dl, BYTE PTR [eax]
  00084	75 1a		 jne	 SHORT $LN17@lssproto_C
  00086	84 d2		 test	 dl, dl
  00088	74 12		 je	 SHORT $LN18@lssproto_C
  0008a	8a 51 01	 mov	 dl, BYTE PTR [ecx+1]
  0008d	3a 50 01	 cmp	 dl, BYTE PTR [eax+1]
  00090	75 0e		 jne	 SHORT $LN17@lssproto_C
  00092	83 c1 02	 add	 ecx, 2
  00095	83 c0 02	 add	 eax, 2
  00098	84 d2		 test	 dl, dl
  0009a	75 e4		 jne	 SHORT $LL16@lssproto_C
$LN18@lssproto_C:
  0009c	33 c0		 xor	 eax, eax
  0009e	eb 05		 jmp	 SHORT $LN19@lssproto_C
$LN17@lssproto_C:
  000a0	1b c0		 sbb	 eax, eax
  000a2	83 c8 01	 or	 eax, 1
$LN19@lssproto_C:
  000a5	85 c0		 test	 eax, eax
  000a7	75 29		 jne	 SHORT $LN5@lssproto_C

; 647  : 			cleanupNetwork();

  000a9	e8 00 00 00 00	 call	 ?cleanupNetwork@@YAXXZ	; cleanupNetwork

; 648  : 			PaletteChange(DEF_PAL, 0);

  000ae	6a 00		 push	 0
  000b0	6a 00		 push	 0
  000b2	e8 00 00 00 00	 call	 ?PaletteChange@@YAXHH@Z	; PaletteChange

; 649  : 			ChangeProc( PROC_ID_PASSWORD );

  000b7	6a 01		 push	 1
  000b9	e8 00 00 00 00	 call	 ?ChangeProc@@YAXH@Z	; ChangeProc
  000be	83 c4 0c	 add	 esp, 12			; 0000000cH

; 650  : 			SubProcNo = 5;

  000c1	c7 05 00 00 00
	00 05 00 00 00	 mov	 DWORD PTR ?SubProcNo@@3IA, 5 ; SubProcNo
  000cb	5e		 pop	 esi

; 655  : #endif
; 656  : 		}
; 657  : 	}
; 658  : }

  000cc	5d		 pop	 ebp

; 651  : 			DeathAllAction();

  000cd	e9 00 00 00 00	 jmp	 ?DeathAllAction@@YAXXZ	; DeathAllAction
$LN5@lssproto_C:

; 652  : 		}else{
; 653  : #ifdef _NB_ç™»å½•é”™è¯¯ä¿¡æ¯æç¤º
; 654  : 			sprintf(ç™»å½•é”™è¯¯æç¤º, "%s", result);

  000d2	56		 push	 esi
  000d3	68 00 00 00 00	 push	 OFFSET ??_C@_02DKCKIIND@?$CFs@
  000d8	68 00 00 00 00	 push	 OFFSET ?Ôô???ð«ãÆ@@3PADA ; Ôô???ð«ãÆ
  000dd	e8 00 00 00 00	 call	 _sprintf
  000e2	83 c4 0c	 add	 esp, 12			; 0000000cH
  000e5	5e		 pop	 esi
$LN6@lssproto_C:

; 655  : #endif
; 656  : 		}
; 657  : 	}
; 658  : }

  000e6	5d		 pop	 ebp
  000e7	c3		 ret	 0
?lssproto_ClientLogin_recv@@YAXHPAD@Z ENDP		; lssproto_ClientLogin_recv
_TEXT	ENDS
; Function compile flags: /Ogtp
; File \\VBOXSVR\_stoneage\repos\ssm-sacli\system\netproc.cpp
;	COMDAT ?lssproto_SE_recv@@YAXHHHHH@Z
_TEXT	SEGMENT
_fd$ = 8						; size = 4
_x$ = 12						; size = 4
_y$ = 16						; size = 4
_senumber$ = 20						; size = 4
_sw$ = 24						; size = 4
?lssproto_SE_recv@@YAXHHHHH@Z PROC			; lssproto_SE_recv, COMDAT

; 4078 : {

  00000	55		 push	 ebp
  00001	8b ec		 mov	 ebp, esp

; 4079 : 	// ????????????????îºîŸ«?î¡Š???
; 4080 : 	if ( logOutFlag )

  00003	83 3d 00 00 00
	00 00		 cmp	 DWORD PTR ?logOutFlag@@3HA, 0 ; logOutFlag
  0000a	75 17		 jne	 SHORT $LN3@lssproto_S

; 4081 : 		return;
; 4082 : 
; 4083 : 	if ( sw )

  0000c	83 7d 18 00	 cmp	 DWORD PTR _sw$[ebp], 0
  00010	74 11		 je	 SHORT $LN3@lssproto_S

; 4084 : 	{
; 4085 : 		play_se( senumber, x, y );

  00012	ff 75 10	 push	 DWORD PTR _y$[ebp]
  00015	ff 75 0c	 push	 DWORD PTR _x$[ebp]
  00018	ff 75 14	 push	 DWORD PTR _senumber$[ebp]
  0001b	e8 00 00 00 00	 call	 ?play_se@@YAHHHH@Z	; play_se
  00020	83 c4 0c	 add	 esp, 12			; 0000000cH
$LN3@lssproto_S:

; 4086 : 	}
; 4087 : 	else
; 4088 : 	{
; 4089 : 		// ??î??î§????î–Ÿ????
; 4090 : 	}
; 4091 : }

  00023	5d		 pop	 ebp
  00024	c3		 ret	 0
?lssproto_SE_recv@@YAXHHHHH@Z ENDP			; lssproto_SE_recv
_TEXT	ENDS
; Function compile flags: /Ogtp
; File \\VBOXSVR\_stoneage\repos\ssm-sacli\system\netproc.cpp
;	COMDAT ?lssproto_EF_recv@@YAXHHHPAD@Z
_TEXT	SEGMENT
_fd$ = 8						; size = 4
_effect$ = 12						; size = 4
_level$ = 16						; size = 4
_option$ = 20						; size = 4
?lssproto_EF_recv@@YAXHHHPAD@Z PROC			; lssproto_EF_recv, COMDAT

; 3739 : {

  00000	55		 push	 ebp
  00001	8b ec		 mov	 ebp, esp

; 3740 : 	// î“»????????î??
; 3741 : 	if ( effect == 0 )

  00003	8b 55 0c	 mov	 edx, DWORD PTR _effect$[ebp]
  00006	85 d2		 test	 edx, edx
  00008	75 24		 jne	 SHORT $LN2@lssproto_E

; 3742 : 	{
; 3743 : 		mapEffectRainLevel = 0;

  0000a	33 c0		 xor	 eax, eax

; 3744 : 		mapEffectSnowLevel = 0;
; 3745 : 		mapEffectKamiFubukiLevel = 0;
; 3746 : #ifdef _HALLOWEEN_EFFECT
; 3747 : 		mapEffectHalloween = 0;
; 3748 : 		initMapEffect(FALSE);

  0000c	50		 push	 eax
  0000d	66 a3 00 00 00
	00		 mov	 WORD PTR ?mapEffectRainLevel@@3FA, ax ; mapEffectRainLevel
  00013	66 a3 00 00 00
	00		 mov	 WORD PTR ?mapEffectSnowLevel@@3FA, ax ; mapEffectSnowLevel
  00019	66 a3 00 00 00
	00		 mov	 WORD PTR ?mapEffectKamiFubukiLevel@@3FA, ax ; mapEffectKamiFubukiLevel
  0001f	a3 00 00 00 00	 mov	 DWORD PTR ?mapEffectHalloween@@3HA, eax ; mapEffectHalloween
  00024	e8 00 00 00 00	 call	 ?initMapEffect@@YAXH@Z	; initMapEffect
  00029	83 c4 04	 add	 esp, 4

; 3769 : #endif
; 3770 : // Terry add 2002/01/14
; 3771 : #ifdef __EDEN_DICE
; 3772 : 	// éª°å­
; 3773 : 	if (effect == 10) 
; 3774 : 	{
; 3775 : 		pCommand = (char*)MALLOC(strlen(option)+1);
; 3776 : #ifdef  _STONDEBUG_
; 3777 : 		g_iMallocCount++;
; 3778 : #endif
; 3779 : 		if (pCommand != NULL) 
; 3780 : 		{
; 3781 : 			strcpy(pCommand,option);
; 3782 : 			bMapEffectDice = TRUE;
; 3783 : 			dwDiceTimer = TimeGetTime();
; 3784 : 		}
; 3785 : 	}
; 3786 : #endif
; 3787 : // Terry end
; 3788 : }

  0002c	5d		 pop	 ebp
  0002d	c3		 ret	 0
$LN2@lssproto_E:
  0002e	56		 push	 esi

; 3749 : #endif
; 3750 : 		return;
; 3751 : 	}
; 3752 : 	// ???????
; 3753 : 	if ( effect & 1 )

  0002f	8b 75 10	 mov	 esi, DWORD PTR _level$[ebp]
  00032	57		 push	 edi
  00033	f6 c2 01	 test	 dl, 1
  00036	74 0d		 je	 SHORT $LN8@lssproto_E

; 3754 : 	{
; 3755 : 		mapEffectRainLevel = level;

  00038	0f b7 c6	 movzx	 eax, si
  0003b	66 a3 00 00 00
	00		 mov	 WORD PTR ?mapEffectRainLevel@@3FA, ax ; mapEffectRainLevel
  00041	8b f8		 mov	 edi, eax
  00043	eb 03		 jmp	 SHORT $LN3@lssproto_E
$LN8@lssproto_E:
  00045	0f b7 fe	 movzx	 edi, si
$LN3@lssproto_E:

; 3756 : 	}
; 3757 : 	// î“Š??????
; 3758 : 	if ( effect & 2 )

  00048	0f b7 0d 00 00
	00 00		 movzx	 ecx, WORD PTR ?mapEffectSnowLevel@@3FA ; mapEffectSnowLevel
  0004f	f6 c2 02	 test	 dl, 2
  00052	0f b7 c7	 movzx	 eax, di
  00055	0f 45 c8	 cmovne	 ecx, eax

; 3759 : 	{
; 3760 : 		mapEffectSnowLevel = level;
; 3761 : 	}
; 3762 : 	// ????
; 3763 : 	if ( effect & 4 )

  00058	f6 c2 04	 test	 dl, 4
  0005b	66 89 0d 00 00
	00 00		 mov	 WORD PTR ?mapEffectSnowLevel@@3FA, cx ; mapEffectSnowLevel
  00062	0f b7 0d 00 00
	00 00		 movzx	 ecx, WORD PTR ?mapEffectKamiFubukiLevel@@3FA ; mapEffectKamiFubukiLevel
  00069	0f b7 c7	 movzx	 eax, di
  0006c	0f 45 c8	 cmovne	 ecx, eax

; 3764 : 	{
; 3765 : 		mapEffectKamiFubukiLevel = level;
; 3766 : 	}
; 3767 : #ifdef _HALLOWEEN_EFFECT
; 3768 : 	if (effect & 8) mapEffectHalloween = level;

  0006f	f6 c2 08	 test	 dl, 8
  00072	a1 00 00 00 00	 mov	 eax, DWORD PTR ?mapEffectHalloween@@3HA ; mapEffectHalloween
  00077	0f 45 c6	 cmovne	 eax, esi
  0007a	66 89 0d 00 00
	00 00		 mov	 WORD PTR ?mapEffectKamiFubukiLevel@@3FA, cx ; mapEffectKamiFubukiLevel
  00081	5f		 pop	 edi
  00082	a3 00 00 00 00	 mov	 DWORD PTR ?mapEffectHalloween@@3HA, eax ; mapEffectHalloween
  00087	5e		 pop	 esi

; 3769 : #endif
; 3770 : // Terry add 2002/01/14
; 3771 : #ifdef __EDEN_DICE
; 3772 : 	// éª°å­
; 3773 : 	if (effect == 10) 
; 3774 : 	{
; 3775 : 		pCommand = (char*)MALLOC(strlen(option)+1);
; 3776 : #ifdef  _STONDEBUG_
; 3777 : 		g_iMallocCount++;
; 3778 : #endif
; 3779 : 		if (pCommand != NULL) 
; 3780 : 		{
; 3781 : 			strcpy(pCommand,option);
; 3782 : 			bMapEffectDice = TRUE;
; 3783 : 			dwDiceTimer = TimeGetTime();
; 3784 : 		}
; 3785 : 	}
; 3786 : #endif
; 3787 : // Terry end
; 3788 : }

  00088	5d		 pop	 ebp
  00089	c3		 ret	 0
?lssproto_EF_recv@@YAXHHHPAD@Z ENDP			; lssproto_EF_recv
_TEXT	ENDS
; Function compile flags: /Ogtp
; File \\VBOXSVR\_stoneage\repos\ssm-sacli\system\netproc.cpp
; File C:\Program Files (x86)\Windows Kits\10\Include\10.0.19041.0\ucrt\string.h
; File \\VBOXSVR\_stoneage\repos\ssm-sacli\system\netproc.cpp
;	COMDAT ?lssproto_WN_recv@@YAXHHHHHPAD@Z
_TEXT	SEGMENT
_fd$ = 8						; size = 4
_windowtype$ = 12					; size = 4
_buttontype$ = 16					; size = 4
_seqno$ = 20						; size = 4
_objindex$ = 24						; size = 4
_data$ = 28						; size = 4
?lssproto_WN_recv@@YAXHHHHHPAD@Z PROC			; lssproto_WN_recv, COMDAT

; 3632 : {

  00000	55		 push	 ebp
  00001	8b ec		 mov	 ebp, esp

; 3633 : 	// ????????????????îºîŸ«?î¡Š???
; 3634 : 	if ( logOutFlag )

  00003	83 3d 00 00 00
	00 00		 cmp	 DWORD PTR ?logOutFlag@@3HA, 0 ; logOutFlag
  0000a	75 47		 jne	 SHORT $LN1@lssproto_W
; File C:\Program Files (x86)\Windows Kits\10\Include\10.0.19041.0\ucrt\string.h

; 520  :         return const_cast<char*>(strstr(static_cast<char const*>(_String), _SubString));

  0000c	68 00 00 00 00	 push	 OFFSET ??_C@_0BK@NFKFNKL@?$NM?z?$DP?J?$KL?p?i?n?$KE?v?R?t?$LI?q?$PN?$PN?$KI?$DP?a?$LM?c?w?$DP?$KD?$KB@
  00011	ff 75 1c	 push	 DWORD PTR _data$[ebp]
  00014	e8 00 00 00 00	 call	 _strstr
  00019	83 c4 08	 add	 esp, 8
; File \\VBOXSVR\_stoneage\repos\ssm-sacli\system\netproc.cpp

; 3637 : 	if( strstr(data,"å¦åˆ™å®¶æ—åœ¨ä¸ƒå¤©ä¹‹åŽä¼šæ¶ˆå¤±å”·ï¼") ){	

  0001c	85 c0		 test	 eax, eax
  0001e	74 1c		 je	 SHORT $LN5@lssproto_W

; 3638 : 		if( TimeGetTime() - MsgCooltime > 300000 )

  00020	e8 00 00 00 00	 call	 ?TimeGetTime@@YAIXZ	; TimeGetTime
  00025	2b 05 00 00 00
	00		 sub	 eax, DWORD PTR ?MsgCooltime@@3IA ; MsgCooltime
  0002b	3d e0 93 04 00	 cmp	 eax, 300000		; 000493e0H
  00030	76 21		 jbe	 SHORT $LN1@lssproto_W

; 3639 : 			MsgCooltime = TimeGetTime();  

  00032	e8 00 00 00 00	 call	 ?TimeGetTime@@YAIXZ	; TimeGetTime
  00037	a3 00 00 00 00	 mov	 DWORD PTR ?MsgCooltime@@3IA, eax ; MsgCooltime
$LN5@lssproto_W:

; 3640 : 		else
; 3641 : 			return;
; 3642 : 	}
; 3643 : 	openServerWindow( windowtype, buttontype, seqno, objindex, data );

  0003c	ff 75 1c	 push	 DWORD PTR _data$[ebp]
  0003f	ff 75 18	 push	 DWORD PTR _objindex$[ebp]
  00042	ff 75 14	 push	 DWORD PTR _seqno$[ebp]
  00045	ff 75 10	 push	 DWORD PTR _buttontype$[ebp]
  00048	ff 75 0c	 push	 DWORD PTR _windowtype$[ebp]
  0004b	e8 00 00 00 00	 call	 ?openServerWindow@@YAXHHHHPAD@Z ; openServerWindow
  00050	83 c4 14	 add	 esp, 20			; 00000014H
$LN1@lssproto_W:

; 3644 : }

  00053	5d		 pop	 ebp
  00054	c3		 ret	 0
?lssproto_WN_recv@@YAXHHHHHPAD@Z ENDP			; lssproto_WN_recv
_TEXT	ENDS
; Function compile flags: /Ogtp
; File \\VBOXSVR\_stoneage\repos\ssm-sacli\system\netproc.cpp
;	COMDAT ?lssproto_SKUP_recv@@YAXHH@Z
_TEXT	SEGMENT
_fd$ = 8						; size = 4
_point$ = 12						; size = 4
?lssproto_SKUP_recv@@YAXHH@Z PROC			; lssproto_SKUP_recv, COMDAT

; 3985 : {

  00000	55		 push	 ebp
  00001	8b ec		 mov	 ebp, esp

; 3986 : 	// ????????????îŽ¢î‘˜
; 3987 : 	StatusUpPoint = point;

  00003	8b 45 0c	 mov	 eax, DWORD PTR _point$[ebp]
  00006	a3 00 00 00 00	 mov	 DWORD PTR ?StatusUpPoint@@3HA, eax ; StatusUpPoint

; 3988 : }

  0000b	5d		 pop	 ebp
  0000c	c3		 ret	 0
?lssproto_SKUP_recv@@YAXHH@Z ENDP			; lssproto_SKUP_recv
_TEXT	ENDS
; Function compile flags: /Ogtp
; File \\VBOXSVR\_stoneage\repos\ssm-sacli\system\netproc.cpp
;	COMDAT ?lssproto_PS_recv@@YAXHHHHH@Z
_TEXT	SEGMENT
_moji$ = -260						; size = 256
__$ArrayPad$ = -4					; size = 4
_fd$ = 8						; size = 4
_result$ = 12						; size = 4
_havepetindex$ = 16					; size = 4
_havepetskill$ = 20					; size = 4
_toindex$ = 24						; size = 4
?lssproto_PS_recv@@YAXHHHHH@Z PROC			; lssproto_PS_recv, COMDAT

; 4059 : {

  00000	55		 push	 ebp
  00001	8b ec		 mov	 ebp, esp
  00003	81 ec 04 01 00
	00		 sub	 esp, 260		; 00000104H
  00009	a1 00 00 00 00	 mov	 eax, DWORD PTR ___security_cookie
  0000e	33 c5		 xor	 eax, ebp
  00010	89 45 fc	 mov	 DWORD PTR __$ArrayPad$[ebp], eax

; 4060 : 	char moji[ 256 ];
; 4061 : 	
; 4062 : 	// ???????
; 4063 : 	ItemMixRecvFlag = FALSE;
; 4064 : 	
; 4065 : 	// î§î›²???
; 4066 : 	if ( result == 0 ){

  00013	83 7d 0c 00	 cmp	 DWORD PTR _result$[ebp], 0
  00017	c7 05 00 00 00
	00 00 00 00 00	 mov	 DWORD PTR ?ItemMixRecvFlag@@3HA, 0 ; ItemMixRecvFlag
  00021	75 24		 jne	 SHORT $LN2@lssproto_P

; 4067 : 		//???????î¸î•
; 4068 : 		sprintf( moji,"å¤±è´¥ï¼");

  00023	8d 85 fc fe ff
	ff		 lea	 eax, DWORD PTR _moji$[ebp]
  00029	68 00 00 00 00	 push	 OFFSET ??_C@_05OAJDDNFL@?c?w?$DP?$KD?$KB@
  0002e	50		 push	 eax
  0002f	e8 00 00 00 00	 call	 _sprintf

; 4069 : 		// ????îž°??????????????
; 4070 : 		StockChatBufferLine( moji, FONT_PAL_WHITE );

  00034	6a 00		 push	 0
  00036	8d 85 fc fe ff
	ff		 lea	 eax, DWORD PTR _moji$[ebp]
  0003c	6a 00		 push	 0
  0003e	50		 push	 eax
  0003f	e8 00 00 00 00	 call	 ?StockChatBufferLine@@YAXPADEH@Z ; StockChatBufferLine
  00044	83 c4 14	 add	 esp, 20			; 00000014H
$LN2@lssproto_P:

; 4071 : 	}
; 4072 : 	
; 4073 : }

  00047	8b 4d fc	 mov	 ecx, DWORD PTR __$ArrayPad$[ebp]
  0004a	33 cd		 xor	 ecx, ebp
  0004c	e8 00 00 00 00	 call	 @__security_check_cookie@4
  00051	8b e5		 mov	 esp, ebp
  00053	5d		 pop	 ebp
  00054	c3		 ret	 0
?lssproto_PS_recv@@YAXHHHHH@Z ENDP			; lssproto_PS_recv
_TEXT	ENDS
; Function compile flags: /Ogtp
; File \\VBOXSVR\_stoneage\repos\ssm-sacli\system\netproc.cpp
;	COMDAT ?lssproto_SPET_recv@@YAXHHH@Z
_TEXT	SEGMENT
_fd$ = 8						; size = 4
_standbypet$ = 12					; size = 4
_result$ = 16						; size = 4
?lssproto_SPET_recv@@YAXHHH@Z PROC			; lssproto_SPET_recv, COMDAT

; 3964 : {

  00000	55		 push	 ebp
  00001	8b ec		 mov	 ebp, esp

; 3965 : 	int cnt = 0;
; 3966 : 	int i;
; 3967 : 
; 3968 : 	StandbyPetSendFlag = FALSE;
; 3969 : 
; 3970 : 	if ( result == TRUE ) { 

  00003	83 7d 10 01	 cmp	 DWORD PTR _result$[ebp], 1
  00007	c7 05 00 00 00
	00 00 00 00 00	 mov	 DWORD PTR ?StandbyPetSendFlag@@3HA, 0 ; StandbyPetSendFlag
  00011	75 30		 jne	 SHORT $LN3@lssproto_S

; 3971 : 		pc.standbyPet = standbypet;

  00013	56		 push	 esi
  00014	8b 75 0c	 mov	 esi, DWORD PTR _standbypet$[ebp]
  00017	b8 01 00 00 00	 mov	 eax, 1
  0001c	66 89 35 b8 00
	00 00		 mov	 WORD PTR ?pc@@3UPC@@A+184, si
  00023	ba ac 00 00 00	 mov	 edx, OFFSET ?pc@@3UPC@@A+172
$LL4@lssproto_S:

; 3972 : 		for ( i =0; i <MAX_PET; i++) {
; 3973 : 			if ( standbypet & ( 1 << i) )

  00028	8b c8		 mov	 ecx, eax
  0002a	23 ce		 and	 ecx, esi
  0002c	f7 d9		 neg	 ecx
  0002e	1b c9		 sbb	 ecx, ecx
  00030	d1 c0		 rol	 eax, 1
  00032	f7 d9		 neg	 ecx
  00034	66 89 0a	 mov	 WORD PTR [edx], cx
  00037	83 c2 02	 add	 edx, 2
  0003a	81 fa b6 00 00
	00		 cmp	 edx, OFFSET ?pc@@3UPC@@A+182
  00040	7c e6		 jl	 SHORT $LL4@lssproto_S
  00042	5e		 pop	 esi
$LN3@lssproto_S:

; 3974 : 				pc.selectPetNo[ i ] = TRUE;
; 3975 : 			else
; 3976 : 				pc.selectPetNo[ i ] = FALSE;
; 3977 : 		}
; 3978 : 	}
; 3979 : 
; 3980 : }

  00043	5d		 pop	 ebp
  00044	c3		 ret	 0
?lssproto_SPET_recv@@YAXHHH@Z ENDP			; lssproto_SPET_recv
_TEXT	ENDS
; Function compile flags: /Ogtp
; File \\VBOXSVR\_stoneage\repos\ssm-sacli\system\netproc.cpp
;	COMDAT ?lssproto_KS_recv@@YAXHHH@Z
_TEXT	SEGMENT
_fd$ = 8						; size = 4
_petarray$ = 12						; size = 4
_result$ = 16						; size = 4
?lssproto_KS_recv@@YAXHHH@Z PROC			; lssproto_KS_recv, COMDAT

; 3930 : {

  00000	55		 push	 ebp
  00001	8b ec		 mov	 ebp, esp

; 3931 : 	int cnt = 0;

  00003	33 c9		 xor	 ecx, ecx

; 3932 : 	int i;
; 3933 : 
; 3934 : 	BattlePetReceiveFlag = FALSE;
; 3935 : 	BattlePetReceivePetNo = -1;

  00005	c7 05 00 00 00
	00 ff ff ff ff	 mov	 DWORD PTR ?BattlePetReceivePetNo@@3HA, -1 ; BattlePetReceivePetNo

; 3936 : 	if ( result == TRUE ){ 

  0000f	83 7d 10 01	 cmp	 DWORD PTR _result$[ebp], 1
  00013	89 0d 00 00 00
	00		 mov	 DWORD PTR ?BattlePetReceiveFlag@@3HA, ecx ; BattlePetReceiveFlag
  00019	75 66		 jne	 SHORT $LN5@lssproto_K

; 3937 : 		battlePetNoBak = -2;
; 3938 : 		if ( petarray != -1 ){ 

  0001b	8b 55 0c	 mov	 edx, DWORD PTR _petarray$[ebp]
  0001e	c7 05 00 00 00
	00 fe ff ff ff	 mov	 DWORD PTR ?battlePetNoBak@@3HA, -2 ; battlePetNoBak, fffffffeH
  00028	83 fa ff	 cmp	 edx, -1
  0002b	74 4b		 je	 SHORT $LN3@lssproto_K

; 3939 : 			pc.selectPetNo[ petarray ] = TRUE;

  0002d	b8 01 00 00 00	 mov	 eax, 1
  00032	66 89 04 55 ac
	00 00 00	 mov	 WORD PTR ?pc@@3UPC@@A[edx*2+172], ax

; 3940 : 			if ( pc.mailPetNo == petarray ) pc.mailPetNo = -1;

  0003a	0f bf 05 b6 00
	00 00		 movsx	 eax, WORD PTR ?pc@@3UPC@@A+182
  00041	3b c2		 cmp	 eax, edx
  00043	75 09		 jne	 SHORT $LN8@lssproto_K
  00045	83 c8 ff	 or	 eax, -1
  00048	66 a3 b6 00 00
	00		 mov	 WORD PTR ?pc@@3UPC@@A+182, ax
$LN8@lssproto_K:

; 3941 : 			for ( i = 0 ; i < 5 ; i++ ){

  0004e	33 c0		 xor	 eax, eax
  00050	56		 push	 esi
$LL4@lssproto_K:

; 3942 : 				if ( pc.selectPetNo[ i ] == TRUE && i != petarray ) cnt++;

  00051	66 83 3c 45 ac
	00 00 00 01	 cmp	 WORD PTR ?pc@@3UPC@@A[eax*2+172], 1
  0005a	75 05		 jne	 SHORT $LN9@lssproto_K
  0005c	3b c2		 cmp	 eax, edx
  0005e	74 01		 je	 SHORT $LN9@lssproto_K
  00060	41		 inc	 ecx
$LN9@lssproto_K:

; 3943 : 				if ( cnt >= ç­‰å¾…å® æ•°é‡){

  00061	83 f9 05	 cmp	 ecx, 5
  00064	7c 0b		 jl	 SHORT $LN2@lssproto_K

; 3944 : 					pc.selectPetNo[ i ] = FALSE;

  00066	33 f6		 xor	 esi, esi

; 3945 : 					cnt--;

  00068	49		 dec	 ecx
  00069	66 89 34 45 ac
	00 00 00	 mov	 WORD PTR ?pc@@3UPC@@A[eax*2+172], si
$LN2@lssproto_K:

; 3941 : 			for ( i = 0 ; i < 5 ; i++ ){

  00071	40		 inc	 eax
  00072	83 f8 05	 cmp	 eax, 5
  00075	7c da		 jl	 SHORT $LL4@lssproto_K
  00077	5e		 pop	 esi
$LN3@lssproto_K:

; 3946 : 				}
; 3947 : 			}
; 3948 : 		}
; 3949 : 		pc.battlePetNo = petarray;

  00078	66 89 15 aa 00
	00 00		 mov	 WORD PTR ?pc@@3UPC@@A+170, dx

; 3957 : 		}		
; 3958 : 	}
; 3959 : #endif
; 3960 : }

  0007f	5d		 pop	 ebp
  00080	c3		 ret	 0
$LN5@lssproto_K:

; 3950 : 	}
; 3951 : #ifdef _AFTER_TRADE_PETWAIT_
; 3952 : 	else{
; 3953 : 		if (tradeStatus==2){

  00081	66 83 3d 00 00
	00 00 02	 cmp	 WORD PTR ?tradeStatus@@3FA, 2 ; tradeStatus
  00089	75 21		 jne	 SHORT $LN12@lssproto_K

; 3954 : 			pc.selectPetNo[petarray] = 0;

  0008b	8b 4d 0c	 mov	 ecx, DWORD PTR _petarray$[ebp]
  0008e	33 c0		 xor	 eax, eax
  00090	66 89 04 4d ac
	00 00 00	 mov	 WORD PTR ?pc@@3UPC@@A[ecx*2+172], ax

; 3955 : 			if (petarray==pc.battlePetNo)

  00098	0f bf 05 aa 00
	00 00		 movsx	 eax, WORD PTR ?pc@@3UPC@@A+170
  0009f	3b c8		 cmp	 ecx, eax
  000a1	75 09		 jne	 SHORT $LN12@lssproto_K

; 3956 : 				pc.battlePetNo = -1;

  000a3	83 c8 ff	 or	 eax, -1
  000a6	66 a3 aa 00 00
	00		 mov	 WORD PTR ?pc@@3UPC@@A+170, ax
$LN12@lssproto_K:

; 3957 : 		}		
; 3958 : 	}
; 3959 : #endif
; 3960 : }

  000ac	5d		 pop	 ebp
  000ad	c3		 ret	 0
?lssproto_KS_recv@@YAXHHH@Z ENDP			; lssproto_KS_recv
_TEXT	ENDS
; Function compile flags: /Ogtp
; File \\VBOXSVR\_stoneage\repos\ssm-sacli\system\netproc.cpp
;	COMDAT ?lssproto_PR_recv@@YAXHHH@Z
_TEXT	SEGMENT
_fd$ = 8						; size = 4
_request$ = 12						; size = 4
_result$ = 16						; size = 4
?lssproto_PR_recv@@YAXHHH@Z PROC			; lssproto_PR_recv, COMDAT

; 3191 : {

  00000	55		 push	 ebp
  00001	8b ec		 mov	 ebp, esp

; 3192 : 	// ????????????????îºîŸ«?î¡Š???
; 3193 : 	if ( logOutFlag )

  00003	83 3d 00 00 00
	00 00		 cmp	 DWORD PTR ?logOutFlag@@3HA, 0 ; logOutFlag
  0000a	0f 85 a7 00 00
	00		 jne	 $LN1@lssproto_P

; 3194 : 		return;
; 3195 : 
; 3196 : 	if ( request == 1 && result == 1 )

  00010	8b 45 0c	 mov	 eax, DWORD PTR _request$[ebp]
  00013	83 f8 01	 cmp	 eax, 1
  00016	75 18		 jne	 SHORT $LN3@lssproto_P
  00018	39 45 10	 cmp	 DWORD PTR _result$[ebp], eax
  0001b	0f 85 8e 00 00
	00		 jne	 $LN8@lssproto_P

; 3197 : 	{
; 3198 : 		// î–“????????îš¼????î—­??
; 3199 : 		setPcParty();

  00021	e8 00 00 00 00	 call	 ?setPcParty@@YAXXZ	; setPcParty

; 3219 : 	}
; 3220 : 	prSendFlag = 0;

  00026	33 c0		 xor	 eax, eax
  00028	66 a3 00 00 00
	00		 mov	 WORD PTR ?prSendFlag@@3FA, ax ; prSendFlag

; 3221 : }

  0002e	5d		 pop	 ebp
  0002f	c3		 ret	 0
$LN3@lssproto_P:

; 3200 : 	}
; 3201 : 	else
; 3202 : 	if ( request == 0 && result == 1 )

  00030	85 c0		 test	 eax, eax
  00032	75 7b		 jne	 SHORT $LN8@lssproto_P
  00034	83 7d 10 01	 cmp	 DWORD PTR _result$[ebp], 1
  00038	75 75		 jne	 SHORT $LN8@lssproto_P

; 3203 : 	{
; 3204 : 		// ????????î•¦??
; 3205 : 		//delPcParty();
; 3206 : 		//delPcLeader();
; 3207 : 		partyModeFlag = 0;

  0003a	66 a3 00 00 00
	00		 mov	 WORD PTR ?partyModeFlag@@3FA, ax ; partyModeFlag

; 3208 : 		clearPartyParam();

  00040	e8 00 00 00 00	 call	 ?clearPartyParam@@YAXXZ	; clearPartyParam

; 3209 : #ifdef _CHANNEL_MODIFY
; 3210 : 		pc.etcFlag &= ~PC_ETCFLAG_CHAT_MODE;

  00045	b8 f7 ff 00 00	 mov	 eax, 65527		; 0000fff7H

; 3211 : 		if (TalkMode == 2) TalkMode = 0;

  0004a	33 c9		 xor	 ecx, ecx
  0004c	66 21 05 a8 00
	00 00		 and	 WORD PTR ?pc@@3UPC@@A+168, ax
  00053	a1 00 00 00 00	 mov	 eax, DWORD PTR ?TalkMode@@3HA ; TalkMode
  00058	83 f8 02	 cmp	 eax, 2
  0005b	0f 44 c1	 cmove	 eax, ecx
  0005e	a3 00 00 00 00	 mov	 DWORD PTR ?TalkMode@@3HA, eax ; TalkMode

; 3212 : #endif
; 3213 : 
; 3214 : 		char dir = (pc.dir+5) % 8;

  00063	a1 0c 00 00 00	 mov	 eax, DWORD PTR ?pc@@3UPC@@A+12
  00068	83 c0 05	 add	 eax, 5
  0006b	25 07 00 00 80	 and	 eax, -2147483641	; 80000007H
  00070	79 05		 jns	 SHORT $LN10@lssproto_P
  00072	48		 dec	 eax
  00073	83 c8 f8	 or	 eax, -8			; fffffff8H
  00076	40		 inc	 eax
$LN10@lssproto_P:
  00077	0f be c0	 movsx	 eax, al

; 3215 : 		if (bNewServer)

  0007a	50		 push	 eax
  0007b	ff 35 00 00 00
	00		 push	 DWORD PTR ?nextGy@@3HA	; nextGy
  00081	ff 35 00 00 00
	00		 push	 DWORD PTR ?nextGx@@3HA	; nextGx
  00087	ff 35 00 00 00
	00		 push	 DWORD PTR ?sockfd@@3IA	; sockfd
  0008d	39 0d 00 00 00
	00		 cmp	 DWORD PTR ?bNewServer@@3HA, ecx ; bNewServer
  00093	74 12		 je	 SHORT $LN7@lssproto_P

; 3216 : 			lssproto_SP_send(sockfd, nextGx, nextGy, dir );

  00095	e8 00 00 00 00	 call	 ?lssproto_SP_send@@YAXHHHH@Z ; lssproto_SP_send

; 3219 : 	}
; 3220 : 	prSendFlag = 0;

  0009a	83 c4 10	 add	 esp, 16			; 00000010H
  0009d	33 c0		 xor	 eax, eax
  0009f	66 a3 00 00 00
	00		 mov	 WORD PTR ?prSendFlag@@3FA, ax ; prSendFlag

; 3221 : }

  000a5	5d		 pop	 ebp
  000a6	c3		 ret	 0
$LN7@lssproto_P:

; 3217 : 		else
; 3218 : 			old_lssproto_SP_send(sockfd, nextGx, nextGy, dir );

  000a7	e8 00 00 00 00	 call	 ?old_lssproto_SP_send@@YAXHHHH@Z ; old_lssproto_SP_send

; 3219 : 	}
; 3220 : 	prSendFlag = 0;

  000ac	83 c4 10	 add	 esp, 16			; 00000010H
$LN8@lssproto_P:
  000af	33 c0		 xor	 eax, eax
  000b1	66 a3 00 00 00
	00		 mov	 WORD PTR ?prSendFlag@@3FA, ax ; prSendFlag
$LN1@lssproto_P:

; 3221 : }

  000b7	5d		 pop	 ebp
  000b8	c3		 ret	 0
?lssproto_PR_recv@@YAXHHH@Z ENDP			; lssproto_PR_recv
_TEXT	ENDS
; Function compile flags: /Ogtp
; File \\VBOXSVR\_stoneage\repos\ssm-sacli\system\netproc.cpp
;	COMDAT ?lssproto_HL_recv@@YAXHH@Z
_TEXT	SEGMENT
_fd$ = 8						; size = 4
_flg$ = 12						; size = 4
?lssproto_HL_recv@@YAXHH@Z PROC				; lssproto_HL_recv, COMDAT

; 3857 : {

  00000	55		 push	 ebp
  00001	8b ec		 mov	 ebp, esp

; 3858 : 	helpFlag = flg;

  00003	66 8b 45 0c	 mov	 ax, WORD PTR _flg$[ebp]
  00007	66 a3 00 00 00
	00		 mov	 WORD PTR ?helpFlag@@3FA, ax ; helpFlag

; 3859 : }

  0000d	5d		 pop	 ebp
  0000e	c3		 ret	 0
?lssproto_HL_recv@@YAXHH@Z ENDP				; lssproto_HL_recv
_TEXT	ENDS
; Function compile flags: /Ogtp
; File \\VBOXSVR\_stoneage\repos\ssm-sacli\system\netproc.cpp
;	COMDAT ?lssproto_FS_recv@@YAXHH@Z
_TEXT	SEGMENT
_fd$ = 8						; size = 4
_flg$ = 12						; size = 4
?lssproto_FS_recv@@YAXHH@Z PROC				; lssproto_FS_recv, COMDAT

; 3264 : {

  00000	55		 push	 ebp
  00001	8b ec		 mov	 ebp, esp

; 3265 : 	// ????????????????îºîŸ«?î¡Š???
; 3266 : 	if ( logOutFlag )

  00003	83 3d 00 00 00
	00 00		 cmp	 DWORD PTR ?logOutFlag@@3HA, 0 ; logOutFlag
  0000a	75 0e		 jne	 SHORT $LN1@lssproto_F

; 3267 : 		return;
; 3268 : 
; 3269 : 	pc.etcFlag = (unsigned short)flg;
; 3270 : 	pc.etcFlag &= ~PC_ETCFLAG_JOINT_BTL;	// ??????î—­î¹???

  0000c	8b 45 0c	 mov	 eax, DWORD PTR _flg$[ebp]
  0000f	25 fd ff 00 00	 and	 eax, 65533		; 0000fffdH
  00014	66 a3 a8 00 00
	00		 mov	 WORD PTR ?pc@@3UPC@@A+168, ax
$LN1@lssproto_F:

; 3271 : }

  0001a	5d		 pop	 ebp
  0001b	c3		 ret	 0
?lssproto_FS_recv@@YAXHH@Z ENDP				; lssproto_FS_recv
_TEXT	ENDS
; Function compile flags: /Ogtp
; File \\VBOXSVR\_stoneage\repos\ssm-sacli\system\netproc.cpp
;	COMDAT ?lssproto_D_recv@@YAXHHHHPAD@Z
_TEXT	SEGMENT
_fd$ = 8						; size = 4
_category$ = 12						; size = 4
_dx$ = 16						; size = 4
_dy$ = 20						; size = 4
_data$ = 24						; size = 4
?lssproto_D_recv@@YAXHHHHPAD@Z PROC			; lssproto_D_recv, COMDAT

; 4186 : }

  00000	c2 00 00	 ret	 0
?lssproto_D_recv@@YAXHHHHPAD@Z ENDP			; lssproto_D_recv
_TEXT	ENDS
; Function compile flags: /Ogtp
; File \\VBOXSVR\_stoneage\repos\ssm-sacli\system\netproc.cpp
;	COMDAT ?lssproto_S_recv@@YAXHPAD@Z
_TEXT	SEGMENT
tv7604 = -904						; size = 4
tv7845 = -900						; size = 4
tv7742 = -900						; size = 4
_i$1$ = -896						; size = 4
tv7785 = -896						; size = 4
_no$1$ = -892						; size = 4
tv7744 = -892						; size = 4
tv7671 = -892						; size = 4
_no$1$ = -892						; size = 4
_fl$1$ = -892						; size = 4
_i$1$ = -888						; size = 4
_mask$1$ = -888						; size = 4
tv7756 = -888						; size = 4
tv7740 = -888						; size = 4
_kubun$1$ = -888					; size = 4
_data$GSCopy$1$ = -884					; size = 4
tv7837 = -884						; size = 4
_kubun$1$ = -884					; size = 4
_kubun$1$ = -884					; size = 4
_?ïÒ?ò¤$1 = -884					; size = 2
_familyName$2 = -880					; size = 256
_memo$3 = -624						; size = 85
_temp$4 = -536						; size = 256
_name$5 = -536						; size = 256
_name$6 = -536						; size = 256
_freeName$7 = -536					; size = 256
_name$8 = -536						; size = 256
_szData$9 = -280					; size = 256
_temp$10 = -280						; size = 256
_memo$11 = -280						; size = 256
_name$12 = -280						; size = 256
_freeName$13 = -280					; size = 256
_name$14 = -24						; size = 17
__$ArrayPad$ = -4					; size = 4
_fd$ = 8						; size = 4
_data$ = 12						; size = 4
?lssproto_S_recv@@YAXHPAD@Z PROC			; lssproto_S_recv, COMDAT

; 880  : void lssproto_S_recv(int fd, char *data){

  00000	55		 push	 ebp
  00001	8b ec		 mov	 ebp, esp
  00003	81 ec 88 03 00
	00		 sub	 esp, 904		; 00000388H
  00009	a1 00 00 00 00	 mov	 eax, DWORD PTR ___security_cookie
  0000e	33 c5		 xor	 eax, ebp
  00010	89 45 fc	 mov	 DWORD PTR __$ArrayPad$[ebp], eax

; 881  : 	if (logOutFlag)

  00013	83 3d 00 00 00
	00 00		 cmp	 DWORD PTR ?logOutFlag@@3HA, 0 ; logOutFlag
  0001a	57		 push	 edi
  0001b	8b 7d 0c	 mov	 edi, DWORD PTR _data$[ebp]
  0001e	0f 85 64 22 00
	00		 jne	 $LN2@lssproto_S

; 882  : 		return;
; 883  : 	switch (data[0]){

  00024	0f be 07	 movsx	 eax, BYTE PTR [edi]
  00027	83 c0 be	 add	 eax, -66		; ffffffbeH
  0002a	83 f8 16	 cmp	 eax, 22			; 00000016H
  0002d	0f 87 55 22 00
	00		 ja	 $LN2@lssproto_S
  00033	53		 push	 ebx
  00034	56		 push	 esi
  00035	ff 24 85 00 00
	00 00		 jmp	 DWORD PTR $LN413@lssproto_S[eax*4]
$LN35@lssproto_S:

; 884  : 		case 'C':
; 885  : 		{
; 886  : 			int fl, maxx, maxy, gx, gy;
; 887  : 
; 888  : 			floorChangeFlag = TRUE;
; 889  : 			if (!loginFlag && ProcNo == PROC_GAME){

  0003c	83 3d 00 00 00
	00 00		 cmp	 DWORD PTR ?loginFlag@@3HA, 0 ; loginFlag
  00043	c7 05 00 00 00
	00 01 00 00 00	 mov	 DWORD PTR ?floorChangeFlag@@3HA, 1 ; floorChangeFlag
  0004d	75 5b		 jne	 SHORT $LN36@lssproto_S
  0004f	83 3d 00 00 00
	00 09		 cmp	 DWORD PTR ?ProcNo@@3IA, 9 ; ProcNo
  00056	75 52		 jne	 SHORT $LN36@lssproto_S

; 890  : 				if (!warpEffectFlag){				

  00058	83 3d 00 00 00
	00 00		 cmp	 DWORD PTR ?warpEffectFlag@@3HA, 0 ; warpEffectFlag
  0005f	75 30		 jne	 SHORT $LN38@lssproto_S

; 891  : 					SubProcNo = 200;

  00061	c7 05 00 00 00
	00 c8 00 00 00	 mov	 DWORD PTR ?SubProcNo@@3IA, 200 ; SubProcNo, 000000c8H

; 892  : 					//JLWG å›žè®°å½•ç‚¹ç‰¹æ•ˆåŽ»é™¤
; 893  : 					JL_å…³é—­ç‰¹æ•ˆ_å›žè®°å½•ç‚¹();

  0006b	e8 00 00 00 00	 call	 ?JL_??÷åüù_üÞ??ïÃ@@YAXXZ ; JL_??÷åüù_üÞ??ïÃ

; 894  : 					warpEffectProc();

  00070	e8 00 00 00 00	 call	 ?warpEffectProc@@YAXXZ	; warpEffectProc

; 895  : 					if (MenuToggleFlag & JOY_CTRL_M)

  00075	f7 05 00 00 00
	00 00 00 00 40	 test	 DWORD PTR ?MenuToggleFlag@@3IA, 1073741824 ; MenuToggleFlag, 40000000H
  0007f	b9 01 00 00 00	 mov	 ecx, 1
  00084	a1 00 00 00 00	 mov	 eax, DWORD PTR ?MapWmdFlagBak@@3HA ; MapWmdFlagBak
  00089	0f 45 c1	 cmovne	 eax, ecx
  0008c	a3 00 00 00 00	 mov	 DWORD PTR ?MapWmdFlagBak@@3HA, eax ; MapWmdFlagBak
$LN38@lssproto_S:

; 896  : 						MapWmdFlagBak = TRUE;
; 897  : 				}
; 898  : 				resetPc();

  00091	e8 00 00 00 00	 call	 ?resetPc@@YAXXZ		; resetPc

; 899  : 				warpEffectFlag = FALSE;

  00096	c7 05 00 00 00
	00 00 00 00 00	 mov	 DWORD PTR ?warpEffectFlag@@3HA, 0 ; warpEffectFlag

; 900  : 				warpEffectStart = TRUE;

  000a0	c7 05 00 00 00
	00 01 00 00 00	 mov	 DWORD PTR ?warpEffectStart@@3HA, 1 ; warpEffectStart
$LN36@lssproto_S:

; 901  : 
; 902  : 			}
; 903  : 			data++;
; 904  : 			fl   = getIntegerToken(data, S_DELIM, 1);

  000aa	6a 01		 push	 1
  000ac	47		 inc	 edi
  000ad	6a 7c		 push	 124			; 0000007cH
  000af	57		 push	 edi
  000b0	89 bd 8c fc ff
	ff		 mov	 DWORD PTR _data$GSCopy$1$[ebp], edi
  000b6	e8 00 00 00 00	 call	 ?getIntegerToken@@YAHPADDH@Z ; getIntegerToken

; 905  : 			maxx = getIntegerToken(data, S_DELIM, 2);

  000bb	6a 02		 push	 2
  000bd	6a 7c		 push	 124			; 0000007cH
  000bf	57		 push	 edi
  000c0	89 85 84 fc ff
	ff		 mov	 DWORD PTR _fl$1$[ebp], eax
  000c6	e8 00 00 00 00	 call	 ?getIntegerToken@@YAHPADDH@Z ; getIntegerToken

; 906  : 			maxy = getIntegerToken(data, S_DELIM, 3);

  000cb	6a 03		 push	 3
  000cd	6a 7c		 push	 124			; 0000007cH
  000cf	57		 push	 edi
  000d0	8b d8		 mov	 ebx, eax
  000d2	e8 00 00 00 00	 call	 ?getIntegerToken@@YAHPADDH@Z ; getIntegerToken

; 907  : 			gx   = getIntegerToken(data, S_DELIM, 4);

  000d7	6a 04		 push	 4
  000d9	6a 7c		 push	 124			; 0000007cH
  000db	ff b5 8c fc ff
	ff		 push	 DWORD PTR _data$GSCopy$1$[ebp]
  000e1	8b f8		 mov	 edi, eax
  000e3	e8 00 00 00 00	 call	 ?getIntegerToken@@YAHPADDH@Z ; getIntegerToken

; 908  : 			gy   = getIntegerToken(data, S_DELIM, 5);

  000e8	6a 05		 push	 5
  000ea	6a 7c		 push	 124			; 0000007cH
  000ec	ff b5 8c fc ff
	ff		 push	 DWORD PTR _data$GSCopy$1$[ebp]
  000f2	8b f0		 mov	 esi, eax
  000f4	e8 00 00 00 00	 call	 ?getIntegerToken@@YAHPADDH@Z ; getIntegerToken

; 909  : 			setMap(fl, gx, gy);

  000f9	50		 push	 eax
  000fa	56		 push	 esi
  000fb	8b b5 84 fc ff
	ff		 mov	 esi, DWORD PTR _fl$1$[ebp]
  00101	56		 push	 esi
  00102	e8 00 00 00 00	 call	 ?setMap@@YAXHHH@Z	; setMap
  00107	83 c4 48	 add	 esp, 72			; 00000048H

; 910  : 			createMap(fl, maxx, maxy);

  0010a	57		 push	 edi
  0010b	53		 push	 ebx
  0010c	56		 push	 esi
  0010d	e8 00 00 00 00	 call	 ?createMap@@YAXHHH@Z	; createMap
  00112	83 c4 0c	 add	 esp, 12			; 0000000cH

; 911  : 			nowFloorGxSize = maxx;

  00115	89 1d 00 00 00
	00		 mov	 DWORD PTR ?nowFloorGxSize@@3HA, ebx ; nowFloorGxSize

; 912  : 			nowFloorGySize = maxy;

  0011b	89 3d 00 00 00
	00		 mov	 DWORD PTR ?nowFloorGySize@@3HA, edi ; nowFloorGySize

; 913  : 			resetCharObj();

  00121	e8 00 00 00 00	 call	 ?resetCharObj@@YAXXZ	; resetCharObj

; 914  : 			mapEmptyFlag = FALSE;
; 915  : 			nowEncountPercentage = minEncountPercentage;

  00126	66 a1 00 00 00
	00		 mov	 ax, WORD PTR ?minEncountPercentage@@3FA ; minEncountPercentage
  0012c	66 a3 00 00 00
	00		 mov	 WORD PTR ?nowEncountPercentage@@3FA, ax ; nowEncountPercentage

; 916  : 			nowEncountExtra = 0;

  00132	33 c0		 xor	 eax, eax
  00134	c7 05 00 00 00
	00 00 00 00 00	 mov	 DWORD PTR ?mapEmptyFlag@@3HA, 0 ; mapEmptyFlag
  0013e	66 a3 00 00 00
	00		 mov	 WORD PTR ?nowEncountExtra@@3FA, ax ; nowEncountExtra

; 917  : 			resetMap();

  00144	e8 00 00 00 00	 call	 ?resetMap@@YAXXZ	; resetMap

; 918  : 			transmigrationEffectFlag = 0;

  00149	c7 05 00 00 00
	00 00 00 00 00	 mov	 DWORD PTR ?transmigrationEffectFlag@@3HA, 0 ; transmigrationEffectFlag

; 919  : 			//JL fix 2017.9.22 åˆ‡åœ°å›¾æ—¶,å°†ç»„é˜Ÿçš„actéƒ½æ¸…0,è¿™æ ·æ‰“ç²¾çµçŽ‹ä»¥åŠè¿‡åœ°å›¾å°±ä¸å´©äº†
; 920  : 			clearPtActPartyParam();

  00153	e8 00 00 00 00	 call	 ?clearPtActPartyParam@@YAXXZ ; clearPtActPartyParam
  00158	5e		 pop	 esi
  00159	5b		 pop	 ebx
  0015a	5f		 pop	 edi

; 1803 : 			}
; 1804 : 			break;
; 1805 :     }
; 1806 : } 

  0015b	8b 4d fc	 mov	 ecx, DWORD PTR __$ArrayPad$[ebp]
  0015e	33 cd		 xor	 ecx, ebp
  00160	e8 00 00 00 00	 call	 @__security_check_cookie@4
  00165	8b e5		 mov	 esp, ebp
  00167	5d		 pop	 ebp
  00168	c3		 ret	 0
$LN39@lssproto_S:

; 921  :             break;
; 922  : 		}
; 923  : 		case 'D':
; 924  : 			data++;
; 925  : 			setPcId(getIntegerToken(data, S_DELIM, 1));

  00169	6a 01		 push	 1
  0016b	47		 inc	 edi
  0016c	6a 7c		 push	 124			; 0000007cH
  0016e	57		 push	 edi
  0016f	e8 00 00 00 00	 call	 ?getIntegerToken@@YAHPADDH@Z ; getIntegerToken
  00174	50		 push	 eax
  00175	e8 00 00 00 00	 call	 ?setPcId@@YAXH@Z	; setPcId

; 926  : 			serverTime = getIntegerToken(data, S_DELIM, 2);

  0017a	6a 02		 push	 2
  0017c	6a 7c		 push	 124			; 0000007cH
  0017e	57		 push	 edi
  0017f	e8 00 00 00 00	 call	 ?getIntegerToken@@YAHPADDH@Z ; getIntegerToken
  00184	a3 00 00 00 00	 mov	 DWORD PTR ?serverTime@@3JA, eax ; serverTime

; 927  : 			FirstTime = TimeGetTime();

  00189	e8 00 00 00 00	 call	 ?TimeGetTime@@YAIXZ	; TimeGetTime

; 928  : 			RealTimeToSATime(&SaTime);

  0018e	68 00 00 00 00	 push	 OFFSET ?SaTime@@3UtagLSTIME@@A ; SaTime
  00193	a3 00 00 00 00	 mov	 DWORD PTR ?FirstTime@@3JA, eax ; FirstTime
  00198	e8 00 00 00 00	 call	 ?RealTimeToSATime@@YAXPAUtagLSTIME@@@Z ; RealTimeToSATime

; 929  : 			SaTimeZoneNo = getLSTime(&SaTime);

  0019d	68 00 00 00 00	 push	 OFFSET ?SaTime@@3UtagLSTIME@@A ; SaTime
  001a2	e8 00 00 00 00	 call	 ?getLSTime@@YA?AW4LSTIME_SECTION@@PAUtagLSTIME@@@Z ; getLSTime

; 930  : 			PaletteChange(SaTimeZoneNo, 0);

  001a7	6a 00		 push	 0
  001a9	50		 push	 eax
  001aa	a3 00 00 00 00	 mov	 DWORD PTR ?SaTimeZoneNo@@3HA, eax ; SaTimeZoneNo
  001af	e8 00 00 00 00	 call	 ?PaletteChange@@YAXHH@Z	; PaletteChange
  001b4	83 c4 2c	 add	 esp, 44			; 0000002cH
  001b7	5e		 pop	 esi
  001b8	5b		 pop	 ebx
  001b9	5f		 pop	 edi

; 1803 : 			}
; 1804 : 			break;
; 1805 :     }
; 1806 : } 

  001ba	8b 4d fc	 mov	 ecx, DWORD PTR __$ArrayPad$[ebp]
  001bd	33 cd		 xor	 ecx, ebp
  001bf	e8 00 00 00 00	 call	 @__security_check_cookie@4
  001c4	8b e5		 mov	 esp, ebp
  001c6	5d		 pop	 ebp
  001c7	c3		 ret	 0
$LN40@lssproto_S:

; 931  : 			break;
; 932  : 		//andy_add
; 933  : 		case 'X':
; 934  : 			pc.lowsride = getIntegerToken(data, S_DELIM, 2);

  001c8	6a 02		 push	 2
  001ca	6a 7c		 push	 124			; 0000007cH
  001cc	57		 push	 edi
  001cd	e8 00 00 00 00	 call	 ?getIntegerToken@@YAHPADDH@Z ; getIntegerToken

; 1791 : 					//å¯æ‹¿ç»™å® ç‰©è£…å¤‡çš„é“å…·,å°±ä¸ä¼šæ˜¯æ‹¼å›¾äº†,ä»¥ä¸‹å°±å…äº†
; 1792 : 					//if( i == JigsawIdx )
; 1793 : 					//	SetJigsaw( pc.item[i].graNo, pc.item[i].jigsaw );
; 1794 : 				}
; 1795 : 			}
; 1796 : 			break;
; 1797 : #endif
; 1798 : 			case 'V':
; 1799 : 			{
; 1800 : 				extern int itemWndMaxBag;
; 1801 : 				//V|1
; 1802 : 				itemWndMaxBag = getIntegerToken(data, '|', 2);

  001d2	83 c4 0c	 add	 esp, 12			; 0000000cH
  001d5	a3 20 51 00 00	 mov	 DWORD PTR ?pc@@3UPC@@A+20768, eax
  001da	5e		 pop	 esi
  001db	5b		 pop	 ebx
  001dc	5f		 pop	 edi

; 1803 : 			}
; 1804 : 			break;
; 1805 :     }
; 1806 : } 

  001dd	8b 4d fc	 mov	 ecx, DWORD PTR __$ArrayPad$[ebp]
  001e0	33 cd		 xor	 ecx, ebp
  001e2	e8 00 00 00 00	 call	 @__security_check_cookie@4
  001e7	8b e5		 mov	 esp, ebp
  001e9	5d		 pop	 ebp
  001ea	c3		 ret	 0
$LN41@lssproto_S:

; 935  : 			break;
; 936  : 		case 'P':
; 937  : 			{
; 938  : 				char name[256], freeName[256];
; 939  : 				int i, kubun;
; 940  : 				unsigned int mask;
; 941  : 
; 942  : 				data++;
; 943  : 				kubun = getInteger62Token(data, S_DELIM, 1);

  001eb	6a 01		 push	 1
  001ed	47		 inc	 edi
  001ee	6a 7c		 push	 124			; 0000007cH
  001f0	57		 push	 edi
  001f1	e8 00 00 00 00	 call	 ?getInteger62Token@@YAHPADDH@Z ; getInteger62Token

; 944  : 				if (!bNewServer)

  001f6	8b 0d 18 51 00
	00		 mov	 ecx, DWORD PTR ?pc@@3UPC@@A+20760
  001fc	83 cb ff	 or	 ebx, -1
  001ff	83 c4 0c	 add	 esp, 12			; 0000000cH
  00202	89 85 8c fc ff
	ff		 mov	 DWORD PTR _kubun$1$[ebp], eax
  00208	83 3d 00 00 00
	00 00		 cmp	 DWORD PTR ?bNewServer@@3HA, 0 ; bNewServer
  0020f	0f 44 cb	 cmove	 ecx, ebx
  00212	89 0d 18 51 00
	00		 mov	 DWORD PTR ?pc@@3UPC@@A+20760, ecx

; 945  : 					pc.ridePetNo = -1;
; 946  : 				if (kubun == 1)

  00218	83 f8 01	 cmp	 eax, 1
  0021b	0f 85 78 02 00
	00		 jne	 $LN43@lssproto_S

; 947  : 				{
; 948  : 					pc.hp		= getIntegerToken(data, S_DELIM, 2);		// 0x00000002

  00221	6a 02		 push	 2
  00223	6a 7c		 push	 124			; 0000007cH
  00225	57		 push	 edi
  00226	e8 00 00 00 00	 call	 ?getIntegerToken@@YAHPADDH@Z ; getIntegerToken

; 949  : 					pc.maxHp	= getIntegerToken(data, S_DELIM, 3);		// 0x00000004

  0022b	6a 03		 push	 3
  0022d	6a 7c		 push	 124			; 0000007cH
  0022f	57		 push	 edi
  00230	a3 10 00 00 00	 mov	 DWORD PTR ?pc@@3UPC@@A+16, eax
  00235	e8 00 00 00 00	 call	 ?getIntegerToken@@YAHPADDH@Z ; getIntegerToken

; 950  : 					pc.mp		= getIntegerToken(data, S_DELIM, 4);		// 0x00000008

  0023a	6a 04		 push	 4
  0023c	6a 7c		 push	 124			; 0000007cH
  0023e	57		 push	 edi
  0023f	a3 14 00 00 00	 mov	 DWORD PTR ?pc@@3UPC@@A+20, eax
  00244	e8 00 00 00 00	 call	 ?getIntegerToken@@YAHPADDH@Z ; getIntegerToken

; 951  : 					pc.maxMp	= getIntegerToken(data, S_DELIM, 5);		// 0x00000010

  00249	6a 05		 push	 5
  0024b	6a 7c		 push	 124			; 0000007cH
  0024d	57		 push	 edi
  0024e	a3 18 00 00 00	 mov	 DWORD PTR ?pc@@3UPC@@A+24, eax
  00253	e8 00 00 00 00	 call	 ?getIntegerToken@@YAHPADDH@Z ; getIntegerToken

; 952  : 					pc.vital	= getIntegerToken(data, S_DELIM, 6);		// 0x00000020

  00258	6a 06		 push	 6
  0025a	6a 7c		 push	 124			; 0000007cH
  0025c	57		 push	 edi
  0025d	a3 1c 00 00 00	 mov	 DWORD PTR ?pc@@3UPC@@A+28, eax
  00262	e8 00 00 00 00	 call	 ?getIntegerToken@@YAHPADDH@Z ; getIntegerToken

; 953  : 					pc.str		= getIntegerToken(data, S_DELIM, 7);		// 0x00000040

  00267	6a 07		 push	 7
  00269	6a 7c		 push	 124			; 0000007cH
  0026b	57		 push	 edi
  0026c	a3 20 00 00 00	 mov	 DWORD PTR ?pc@@3UPC@@A+32, eax
  00271	e8 00 00 00 00	 call	 ?getIntegerToken@@YAHPADDH@Z ; getIntegerToken
  00276	83 c4 48	 add	 esp, 72			; 00000048H
  00279	a3 24 00 00 00	 mov	 DWORD PTR ?pc@@3UPC@@A+36, eax

; 954  : 					pc.tgh		= getIntegerToken(data, S_DELIM, 8);		// 0x00000080

  0027e	6a 08		 push	 8
  00280	6a 7c		 push	 124			; 0000007cH
  00282	57		 push	 edi
  00283	e8 00 00 00 00	 call	 ?getIntegerToken@@YAHPADDH@Z ; getIntegerToken

; 955  : 					pc.dex		= getIntegerToken(data, S_DELIM, 9);		// 0x00000100

  00288	6a 09		 push	 9
  0028a	6a 7c		 push	 124			; 0000007cH
  0028c	57		 push	 edi
  0028d	a3 28 00 00 00	 mov	 DWORD PTR ?pc@@3UPC@@A+40, eax
  00292	e8 00 00 00 00	 call	 ?getIntegerToken@@YAHPADDH@Z ; getIntegerToken

; 956  : 					pc.exp		= getIntegerToken(data, S_DELIM, 10);		// 0x00000200

  00297	6a 0a		 push	 10			; 0000000aH
  00299	6a 7c		 push	 124			; 0000007cH
  0029b	57		 push	 edi
  0029c	a3 2c 00 00 00	 mov	 DWORD PTR ?pc@@3UPC@@A+44, eax
  002a1	e8 00 00 00 00	 call	 ?getIntegerToken@@YAHPADDH@Z ; getIntegerToken

; 957  : 					pc.maxExp	= getIntegerToken(data, S_DELIM, 11);		// 0x00000400

  002a6	6a 0b		 push	 11			; 0000000bH
  002a8	6a 7c		 push	 124			; 0000007cH
  002aa	57		 push	 edi
  002ab	a3 30 00 00 00	 mov	 DWORD PTR ?pc@@3UPC@@A+48, eax
  002b0	e8 00 00 00 00	 call	 ?getIntegerToken@@YAHPADDH@Z ; getIntegerToken

; 958  : 					pc.level	= getIntegerToken(data, S_DELIM, 12);		// 0x00000800

  002b5	6a 0c		 push	 12			; 0000000cH
  002b7	6a 7c		 push	 124			; 0000007cH
  002b9	57		 push	 edi
  002ba	a3 34 00 00 00	 mov	 DWORD PTR ?pc@@3UPC@@A+52, eax
  002bf	e8 00 00 00 00	 call	 ?getIntegerToken@@YAHPADDH@Z ; getIntegerToken

; 959  : 					pc.atk		= getIntegerToken(data, S_DELIM, 13);		// 0x00001000

  002c4	6a 0d		 push	 13			; 0000000dH
  002c6	6a 7c		 push	 124			; 0000007cH
  002c8	57		 push	 edi
  002c9	a3 38 00 00 00	 mov	 DWORD PTR ?pc@@3UPC@@A+56, eax
  002ce	e8 00 00 00 00	 call	 ?getIntegerToken@@YAHPADDH@Z ; getIntegerToken
  002d3	83 c4 48	 add	 esp, 72			; 00000048H
  002d6	a3 3c 00 00 00	 mov	 DWORD PTR ?pc@@3UPC@@A+60, eax

; 960  : 					pc.def		= getIntegerToken(data, S_DELIM, 14);		// 0x00002000

  002db	6a 0e		 push	 14			; 0000000eH
  002dd	6a 7c		 push	 124			; 0000007cH
  002df	57		 push	 edi
  002e0	e8 00 00 00 00	 call	 ?getIntegerToken@@YAHPADDH@Z ; getIntegerToken

; 961  : 					pc.quick	= getIntegerToken(data, S_DELIM, 15);		// 0x00004000

  002e5	6a 0f		 push	 15			; 0000000fH
  002e7	6a 7c		 push	 124			; 0000007cH
  002e9	57		 push	 edi
  002ea	a3 40 00 00 00	 mov	 DWORD PTR ?pc@@3UPC@@A+64, eax
  002ef	e8 00 00 00 00	 call	 ?getIntegerToken@@YAHPADDH@Z ; getIntegerToken

; 962  : 					pc.charm	= getIntegerToken(data, S_DELIM, 16);		// 0x00008000

  002f4	6a 10		 push	 16			; 00000010H
  002f6	6a 7c		 push	 124			; 0000007cH
  002f8	57		 push	 edi
  002f9	a3 44 00 00 00	 mov	 DWORD PTR ?pc@@3UPC@@A+68, eax
  002fe	e8 00 00 00 00	 call	 ?getIntegerToken@@YAHPADDH@Z ; getIntegerToken

; 963  : 					pc.luck		= getIntegerToken(data, S_DELIM, 17);		// 0x00010000

  00303	6a 11		 push	 17			; 00000011H
  00305	6a 7c		 push	 124			; 0000007cH
  00307	57		 push	 edi
  00308	a3 48 00 00 00	 mov	 DWORD PTR ?pc@@3UPC@@A+72, eax
  0030d	e8 00 00 00 00	 call	 ?getIntegerToken@@YAHPADDH@Z ; getIntegerToken

; 964  : 					pc.earth	= getIntegerToken(data, S_DELIM, 18);		// 0x00020000

  00312	6a 12		 push	 18			; 00000012H
  00314	6a 7c		 push	 124			; 0000007cH
  00316	57		 push	 edi
  00317	a3 4c 00 00 00	 mov	 DWORD PTR ?pc@@3UPC@@A+76, eax
  0031c	e8 00 00 00 00	 call	 ?getIntegerToken@@YAHPADDH@Z ; getIntegerToken

; 965  : 					pc.water	= getIntegerToken(data, S_DELIM, 19);		// 0x00040000

  00321	6a 13		 push	 19			; 00000013H
  00323	6a 7c		 push	 124			; 0000007cH
  00325	57		 push	 edi
  00326	a3 50 00 00 00	 mov	 DWORD PTR ?pc@@3UPC@@A+80, eax
  0032b	e8 00 00 00 00	 call	 ?getIntegerToken@@YAHPADDH@Z ; getIntegerToken
  00330	83 c4 48	 add	 esp, 72			; 00000048H
  00333	a3 54 00 00 00	 mov	 DWORD PTR ?pc@@3UPC@@A+84, eax

; 966  : 					pc.fire		= getIntegerToken(data, S_DELIM, 20);		// 0x00080000

  00338	6a 14		 push	 20			; 00000014H
  0033a	6a 7c		 push	 124			; 0000007cH
  0033c	57		 push	 edi
  0033d	e8 00 00 00 00	 call	 ?getIntegerToken@@YAHPADDH@Z ; getIntegerToken

; 967  : 					pc.wind		= getIntegerToken(data, S_DELIM, 21);		// 0x00100000

  00342	6a 15		 push	 21			; 00000015H
  00344	6a 7c		 push	 124			; 0000007cH
  00346	57		 push	 edi
  00347	a3 58 00 00 00	 mov	 DWORD PTR ?pc@@3UPC@@A+88, eax
  0034c	e8 00 00 00 00	 call	 ?getIntegerToken@@YAHPADDH@Z ; getIntegerToken

; 968  : 					pc.gold		= getIntegerToken(data, S_DELIM, 22);		// 0x00200000

  00351	6a 16		 push	 22			; 00000016H
  00353	6a 7c		 push	 124			; 0000007cH
  00355	57		 push	 edi
  00356	a3 5c 00 00 00	 mov	 DWORD PTR ?pc@@3UPC@@A+92, eax
  0035b	e8 00 00 00 00	 call	 ?getIntegerToken@@YAHPADDH@Z ; getIntegerToken

; 969  : 					pc.titleNo	= getIntegerToken(data, S_DELIM, 23);		// 0x00400000

  00360	6a 17		 push	 23			; 00000017H
  00362	6a 7c		 push	 124			; 0000007cH
  00364	57		 push	 edi
  00365	a3 60 00 00 00	 mov	 DWORD PTR ?pc@@3UPC@@A+96, eax
  0036a	e8 00 00 00 00	 call	 ?getIntegerToken@@YAHPADDH@Z ; getIntegerToken

; 970  : 					pc.dp		= getIntegerToken(data, S_DELIM, 24);		// 0x00800000

  0036f	6a 18		 push	 24			; 00000018H
  00371	6a 7c		 push	 124			; 0000007cH
  00373	57		 push	 edi
  00374	a3 68 00 00 00	 mov	 DWORD PTR ?pc@@3UPC@@A+104, eax
  00379	e8 00 00 00 00	 call	 ?getIntegerToken@@YAHPADDH@Z ; getIntegerToken

; 971  : 					pc.transmigration = getIntegerToken(data, S_DELIM, 25);// 0x01000000

  0037e	6a 19		 push	 25			; 00000019H
  00380	6a 7c		 push	 124			; 0000007cH
  00382	57		 push	 edi
  00383	a3 6c 00 00 00	 mov	 DWORD PTR ?pc@@3UPC@@A+108, eax
  00388	e8 00 00 00 00	 call	 ?getIntegerToken@@YAHPADDH@Z ; getIntegerToken
  0038d	83 c4 48	 add	 esp, 72			; 00000048H
  00390	66 a3 f4 50 00
	00		 mov	 WORD PTR ?pc@@3UPC@@A+20724, ax

; 972  : 					pc.ridePetNo = getIntegerToken(data, S_DELIM, 26);	// 0x02000000

  00396	6a 1a		 push	 26			; 0000001aH
  00398	6a 7c		 push	 124			; 0000007cH
  0039a	57		 push	 edi
  0039b	e8 00 00 00 00	 call	 ?getIntegerToken@@YAHPADDH@Z ; getIntegerToken

; 973  : 					pc.learnride = getIntegerToken(data, S_DELIM, 27);	// 0x04000000

  003a0	6a 1b		 push	 27			; 0000001bH
  003a2	6a 7c		 push	 124			; 0000007cH
  003a4	57		 push	 edi
  003a5	a3 18 51 00 00	 mov	 DWORD PTR ?pc@@3UPC@@A+20760, eax
  003aa	e8 00 00 00 00	 call	 ?getIntegerToken@@YAHPADDH@Z ; getIntegerToken

; 974  : 					pc.baseGraNo = getIntegerToken(data, S_DELIM, 28);	// 0x08000000

  003af	6a 1c		 push	 28			; 0000001cH
  003b1	6a 7c		 push	 124			; 0000007cH
  003b3	57		 push	 edi
  003b4	a3 1c 51 00 00	 mov	 DWORD PTR ?pc@@3UPC@@A+20764, eax
  003b9	e8 00 00 00 00	 call	 ?getIntegerToken@@YAHPADDH@Z ; getIntegerToken

; 975  : #ifdef _NEW_RIDEPETS
; 976  : 					pc.lowsride = getIntegerToken(data, S_DELIM, 29);		// 0x08000000

  003be	6a 1d		 push	 29			; 0000001dH
  003c0	6a 7c		 push	 124			; 0000007cH
  003c2	57		 push	 edi
  003c3	a3 50 51 00 00	 mov	 DWORD PTR ?pc@@3UPC@@A+20816, eax
  003c8	e8 00 00 00 00	 call	 ?getIntegerToken@@YAHPADDH@Z ; getIntegerToken
  003cd	a3 20 51 00 00	 mov	 DWORD PTR ?pc@@3UPC@@A+20768, eax

; 977  : #endif
; 978  : 					getStringToken(data, S_DELIM, 30, sizeof(name) - 1, name);

  003d2	8d 85 e8 fd ff
	ff		 lea	 eax, DWORD PTR _name$8[ebp]
  003d8	50		 push	 eax
  003d9	68 ff 00 00 00	 push	 255			; 000000ffH
  003de	6a 1e		 push	 30			; 0000001eH
  003e0	6a 7c		 push	 124			; 0000007cH
  003e2	57		 push	 edi
  003e3	e8 00 00 00 00	 call	 ?getStringToken@@YAHPADDHH0@Z ; getStringToken
  003e8	83 c4 44	 add	 esp, 68			; 00000044H

; 979  : 					makeStringFromEscaped(name);

  003eb	8d 85 e8 fd ff
	ff		 lea	 eax, DWORD PTR _name$8[ebp]
  003f1	50		 push	 eax
  003f2	e8 00 00 00 00	 call	 ?makeStringFromEscaped@@YAPADPAD@Z ; makeStringFromEscaped

; 980  : 					if (strlen(name) <= CHAR_NAME_LEN)

  003f7	8d 8d e8 fd ff
	ff		 lea	 ecx, DWORD PTR _name$8[ebp]
  003fd	83 c4 04	 add	 esp, 4
  00400	8d 51 01	 lea	 edx, DWORD PTR [ecx+1]
$LL414@lssproto_S:
  00403	8a 01		 mov	 al, BYTE PTR [ecx]
  00405	41		 inc	 ecx
  00406	84 c0		 test	 al, al
  00408	75 f9		 jne	 SHORT $LL414@lssproto_S
  0040a	2b ca		 sub	 ecx, edx
  0040c	83 f9 10	 cmp	 ecx, 16			; 00000010H
  0040f	77 23		 ja	 SHORT $LN45@lssproto_S

; 981  : 						strcpy(pc.name, name);

  00411	33 c9		 xor	 ecx, ecx
  00413	0f 1f 40 00 66
	0f 1f 84 00 00
	00 00 00	 npad	 13
$LL244@lssproto_S:
  00420	8a 84 0d e8 fd
	ff ff		 mov	 al, BYTE PTR _name$8[ebp+ecx]
  00427	8d 49 01	 lea	 ecx, DWORD PTR [ecx+1]
  0042a	88 81 6f 00 00
	00		 mov	 BYTE PTR ?pc@@3UPC@@A[ecx+111], al
  00430	84 c0		 test	 al, al
  00432	75 ec		 jne	 SHORT $LL244@lssproto_S
$LN45@lssproto_S:

; 982  : 					getStringToken(data, S_DELIM, 31, sizeof(freeName) - 1, freeName);

  00434	8d 85 e8 fe ff
	ff		 lea	 eax, DWORD PTR _freeName$13[ebp]
  0043a	50		 push	 eax
  0043b	68 ff 00 00 00	 push	 255			; 000000ffH
  00440	6a 1f		 push	 31			; 0000001fH
  00442	6a 7c		 push	 124			; 0000007cH
  00444	57		 push	 edi
  00445	e8 00 00 00 00	 call	 ?getStringToken@@YAHPADDHH0@Z ; getStringToken

; 983  : 					makeStringFromEscaped(freeName);

  0044a	8d 85 e8 fe ff
	ff		 lea	 eax, DWORD PTR _freeName$13[ebp]
  00450	50		 push	 eax
  00451	e8 00 00 00 00	 call	 ?makeStringFromEscaped@@YAPADPAD@Z ; makeStringFromEscaped

; 984  : 					if (strlen(freeName) <= CHAR_FREENAME_LEN)

  00456	8d 8d e8 fe ff
	ff		 lea	 ecx, DWORD PTR _freeName$13[ebp]
  0045c	83 c4 18	 add	 esp, 24			; 00000018H
  0045f	8d 51 01	 lea	 edx, DWORD PTR [ecx+1]
$LL415@lssproto_S:
  00462	8a 01		 mov	 al, BYTE PTR [ecx]
  00464	41		 inc	 ecx
  00465	84 c0		 test	 al, al
  00467	75 f9		 jne	 SHORT $LL415@lssproto_S
  00469	2b ca		 sub	 ecx, edx
  0046b	83 f9 20	 cmp	 ecx, 32			; 00000020H
  0046e	0f 87 e5 03 00
	00		 ja	 $LN5@lssproto_S

; 985  : 						strcpy(pc.freeName, freeName);

  00474	33 c9		 xor	 ecx, ecx
  00476	66 66 0f 1f 84
	00 00 00 00 00	 npad	 10
$LL245@lssproto_S:
  00480	8a 84 0d e8 fe
	ff ff		 mov	 al, BYTE PTR _freeName$13[ebp+ecx]
  00487	8d 49 01	 lea	 ecx, DWORD PTR [ecx+1]
  0048a	88 81 80 00 00
	00		 mov	 BYTE PTR ?pc@@3UPC@@A[ecx+128], al
  00490	84 c0		 test	 al, al
  00492	75 ec		 jne	 SHORT $LL245@lssproto_S

; 986  : 				}

  00494	e9 c0 03 00 00	 jmp	 $LN5@lssproto_S
$LN43@lssproto_S:

; 987  : 				else
; 988  : 				{
; 989  : 					mask = 2;

  00499	bb 02 00 00 00	 mov	 ebx, 2

; 990  : 					i = 2;

  0049e	8b f3		 mov	 esi, ebx
$LL6@lssproto_S:

; 992  : 					{
; 993  : 						if (kubun & mask)

  004a0	85 d8		 test	 ebx, eax
  004a2	0f 84 a6 03 00
	00		 je	 $LN4@lssproto_S

; 994  : 						{
; 995  : 							if (mask == 0x00000002) // ( 1 << 1 )

  004a8	83 fb 02	 cmp	 ebx, 2
  004ab	75 13		 jne	 SHORT $LN48@lssproto_S

; 996  : 							{
; 997  : 								pc.hp = getIntegerToken(data, S_DELIM, i);// 0x00000002

  004ad	56		 push	 esi
  004ae	6a 7c		 push	 124			; 0000007cH
  004b0	57		 push	 edi
  004b1	e8 00 00 00 00	 call	 ?getIntegerToken@@YAHPADDH@Z ; getIntegerToken
  004b6	a3 10 00 00 00	 mov	 DWORD PTR ?pc@@3UPC@@A+16, eax

; 998  : 								i++;
; 999  : 							}

  004bb	e9 84 03 00 00	 jmp	 $LN442@lssproto_S
$LN48@lssproto_S:

; 1000 : 							else if (mask == 0x00000004) // ( 1 << 2 )

  004c0	83 fb 04	 cmp	 ebx, 4
  004c3	75 13		 jne	 SHORT $LN50@lssproto_S

; 1001 : 							{
; 1002 : 								pc.maxHp = getIntegerToken(data, S_DELIM, i);// 0x00000004

  004c5	56		 push	 esi
  004c6	6a 7c		 push	 124			; 0000007cH
  004c8	57		 push	 edi
  004c9	e8 00 00 00 00	 call	 ?getIntegerToken@@YAHPADDH@Z ; getIntegerToken
  004ce	a3 14 00 00 00	 mov	 DWORD PTR ?pc@@3UPC@@A+20, eax

; 1003 : 								i++;
; 1004 : 							}

  004d3	e9 6c 03 00 00	 jmp	 $LN442@lssproto_S
$LN50@lssproto_S:

; 1005 : 							else if (mask == 0x00000008)

  004d8	83 fb 08	 cmp	 ebx, 8
  004db	75 13		 jne	 SHORT $LN52@lssproto_S

; 1006 : 							{
; 1007 : 								pc.mp = getIntegerToken(data, S_DELIM, i);// 0x00000008

  004dd	56		 push	 esi
  004de	6a 7c		 push	 124			; 0000007cH
  004e0	57		 push	 edi
  004e1	e8 00 00 00 00	 call	 ?getIntegerToken@@YAHPADDH@Z ; getIntegerToken
  004e6	a3 18 00 00 00	 mov	 DWORD PTR ?pc@@3UPC@@A+24, eax

; 1008 : 								i++;
; 1009 : 							}

  004eb	e9 54 03 00 00	 jmp	 $LN442@lssproto_S
$LN52@lssproto_S:

; 1010 : 							else if (mask == 0x00000010)

  004f0	83 fb 10	 cmp	 ebx, 16			; 00000010H
  004f3	75 13		 jne	 SHORT $LN54@lssproto_S

; 1011 : 							{
; 1012 : 								pc.maxMp = getIntegerToken(data, S_DELIM, i);// 0x00000010

  004f5	56		 push	 esi
  004f6	6a 7c		 push	 124			; 0000007cH
  004f8	57		 push	 edi
  004f9	e8 00 00 00 00	 call	 ?getIntegerToken@@YAHPADDH@Z ; getIntegerToken
  004fe	a3 1c 00 00 00	 mov	 DWORD PTR ?pc@@3UPC@@A+28, eax

; 1013 : 								i++;
; 1014 : 							}

  00503	e9 3c 03 00 00	 jmp	 $LN442@lssproto_S
$LN54@lssproto_S:

; 1015 : 							else if (mask == 0x00000020)

  00508	83 fb 20	 cmp	 ebx, 32			; 00000020H
  0050b	75 13		 jne	 SHORT $LN56@lssproto_S

; 1016 : 							{
; 1017 : 								pc.vital = getIntegerToken(data, S_DELIM, i);// 0x00000020

  0050d	56		 push	 esi
  0050e	6a 7c		 push	 124			; 0000007cH
  00510	57		 push	 edi
  00511	e8 00 00 00 00	 call	 ?getIntegerToken@@YAHPADDH@Z ; getIntegerToken
  00516	a3 20 00 00 00	 mov	 DWORD PTR ?pc@@3UPC@@A+32, eax

; 1018 : 								i++;
; 1019 : 							}

  0051b	e9 24 03 00 00	 jmp	 $LN442@lssproto_S
$LN56@lssproto_S:

; 1020 : 							else if (mask == 0x00000040)

  00520	83 fb 40	 cmp	 ebx, 64			; 00000040H
  00523	75 13		 jne	 SHORT $LN58@lssproto_S

; 1021 : 							{
; 1022 : 								pc.str = getIntegerToken(data, S_DELIM, i);// 0x00000040

  00525	56		 push	 esi
  00526	6a 7c		 push	 124			; 0000007cH
  00528	57		 push	 edi
  00529	e8 00 00 00 00	 call	 ?getIntegerToken@@YAHPADDH@Z ; getIntegerToken
  0052e	a3 24 00 00 00	 mov	 DWORD PTR ?pc@@3UPC@@A+36, eax

; 1023 : 								i++;
; 1024 : 							}

  00533	e9 0c 03 00 00	 jmp	 $LN442@lssproto_S
$LN58@lssproto_S:

; 1025 : 							else if (mask == 0x00000080)

  00538	81 fb 80 00 00
	00		 cmp	 ebx, 128		; 00000080H
  0053e	75 13		 jne	 SHORT $LN60@lssproto_S

; 1026 : 							{
; 1027 : 								pc.tgh = getIntegerToken(data, S_DELIM, i);// 0x00000080

  00540	56		 push	 esi
  00541	6a 7c		 push	 124			; 0000007cH
  00543	57		 push	 edi
  00544	e8 00 00 00 00	 call	 ?getIntegerToken@@YAHPADDH@Z ; getIntegerToken
  00549	a3 28 00 00 00	 mov	 DWORD PTR ?pc@@3UPC@@A+40, eax

; 1028 : 								i++;
; 1029 : 							}

  0054e	e9 f1 02 00 00	 jmp	 $LN442@lssproto_S
$LN60@lssproto_S:

; 1030 : 							else if (mask == 0x00000100)

  00553	81 fb 00 01 00
	00		 cmp	 ebx, 256		; 00000100H
  00559	75 13		 jne	 SHORT $LN62@lssproto_S

; 1031 : 							{
; 1032 : 								pc.dex = getIntegerToken(data, S_DELIM, i);// 0x00000100

  0055b	56		 push	 esi
  0055c	6a 7c		 push	 124			; 0000007cH
  0055e	57		 push	 edi
  0055f	e8 00 00 00 00	 call	 ?getIntegerToken@@YAHPADDH@Z ; getIntegerToken
  00564	a3 2c 00 00 00	 mov	 DWORD PTR ?pc@@3UPC@@A+44, eax

; 1033 : 								i++;
; 1034 : 							}

  00569	e9 d6 02 00 00	 jmp	 $LN442@lssproto_S
$LN62@lssproto_S:

; 1035 : 							else if (mask == 0x00000200)

  0056e	81 fb 00 02 00
	00		 cmp	 ebx, 512		; 00000200H
  00574	75 13		 jne	 SHORT $LN64@lssproto_S

; 1036 : 							{
; 1037 : 								pc.exp = getIntegerToken(data, S_DELIM, i);// 0x00000200

  00576	56		 push	 esi
  00577	6a 7c		 push	 124			; 0000007cH
  00579	57		 push	 edi
  0057a	e8 00 00 00 00	 call	 ?getIntegerToken@@YAHPADDH@Z ; getIntegerToken
  0057f	a3 30 00 00 00	 mov	 DWORD PTR ?pc@@3UPC@@A+48, eax

; 1038 : 								i++;
; 1039 : 							}

  00584	e9 bb 02 00 00	 jmp	 $LN442@lssproto_S
$LN64@lssproto_S:

; 1040 : 							else if (mask == 0x00000400)

  00589	81 fb 00 04 00
	00		 cmp	 ebx, 1024		; 00000400H
  0058f	75 13		 jne	 SHORT $LN66@lssproto_S

; 1041 : 							{
; 1042 : 								pc.maxExp = getIntegerToken(data, S_DELIM, i);// 0x00000400

  00591	56		 push	 esi
  00592	6a 7c		 push	 124			; 0000007cH
  00594	57		 push	 edi
  00595	e8 00 00 00 00	 call	 ?getIntegerToken@@YAHPADDH@Z ; getIntegerToken
  0059a	a3 34 00 00 00	 mov	 DWORD PTR ?pc@@3UPC@@A+52, eax

; 1043 : 								i++;
; 1044 : 							}

  0059f	e9 a0 02 00 00	 jmp	 $LN442@lssproto_S
$LN66@lssproto_S:

; 1045 : 							else if (mask == 0x00000800)

  005a4	81 fb 00 08 00
	00		 cmp	 ebx, 2048		; 00000800H
  005aa	75 13		 jne	 SHORT $LN68@lssproto_S

; 1046 : 							{
; 1047 : 								pc.level = getIntegerToken(data, S_DELIM, i);// 0x00000800

  005ac	56		 push	 esi
  005ad	6a 7c		 push	 124			; 0000007cH
  005af	57		 push	 edi
  005b0	e8 00 00 00 00	 call	 ?getIntegerToken@@YAHPADDH@Z ; getIntegerToken
  005b5	a3 38 00 00 00	 mov	 DWORD PTR ?pc@@3UPC@@A+56, eax

; 1048 : 								i++;
; 1049 : 							}

  005ba	e9 85 02 00 00	 jmp	 $LN442@lssproto_S
$LN68@lssproto_S:

; 1050 : 							else if (mask == 0x00001000)

  005bf	81 fb 00 10 00
	00		 cmp	 ebx, 4096		; 00001000H
  005c5	75 13		 jne	 SHORT $LN70@lssproto_S

; 1051 : 							{
; 1052 : 								pc.atk = getIntegerToken(data, S_DELIM, i);// 0x00001000

  005c7	56		 push	 esi
  005c8	6a 7c		 push	 124			; 0000007cH
  005ca	57		 push	 edi
  005cb	e8 00 00 00 00	 call	 ?getIntegerToken@@YAHPADDH@Z ; getIntegerToken
  005d0	a3 3c 00 00 00	 mov	 DWORD PTR ?pc@@3UPC@@A+60, eax

; 1053 : 								i++;
; 1054 : 							}

  005d5	e9 6a 02 00 00	 jmp	 $LN442@lssproto_S
$LN70@lssproto_S:

; 1055 : 							else if (mask == 0x00002000)

  005da	81 fb 00 20 00
	00		 cmp	 ebx, 8192		; 00002000H
  005e0	75 13		 jne	 SHORT $LN72@lssproto_S

; 1056 : 							{
; 1057 : 								pc.def = getIntegerToken(data, S_DELIM, i);// 0x00002000

  005e2	56		 push	 esi
  005e3	6a 7c		 push	 124			; 0000007cH
  005e5	57		 push	 edi
  005e6	e8 00 00 00 00	 call	 ?getIntegerToken@@YAHPADDH@Z ; getIntegerToken
  005eb	a3 40 00 00 00	 mov	 DWORD PTR ?pc@@3UPC@@A+64, eax

; 1058 : 								i++;
; 1059 : 							}

  005f0	e9 4f 02 00 00	 jmp	 $LN442@lssproto_S
$LN72@lssproto_S:

; 1060 : 							else if (mask == 0x00004000)

  005f5	81 fb 00 40 00
	00		 cmp	 ebx, 16384		; 00004000H
  005fb	75 13		 jne	 SHORT $LN74@lssproto_S

; 1061 : 							{
; 1062 : 								pc.quick = getIntegerToken(data, S_DELIM, i);// 0x00004000

  005fd	56		 push	 esi
  005fe	6a 7c		 push	 124			; 0000007cH
  00600	57		 push	 edi
  00601	e8 00 00 00 00	 call	 ?getIntegerToken@@YAHPADDH@Z ; getIntegerToken
  00606	a3 44 00 00 00	 mov	 DWORD PTR ?pc@@3UPC@@A+68, eax

; 1063 : 								i++;
; 1064 : 							}

  0060b	e9 34 02 00 00	 jmp	 $LN442@lssproto_S
$LN74@lssproto_S:

; 1065 : 							else if (mask == 0x00008000)

  00610	81 fb 00 80 00
	00		 cmp	 ebx, 32768		; 00008000H
  00616	75 13		 jne	 SHORT $LN76@lssproto_S

; 1066 : 							{
; 1067 : 								pc.charm = getIntegerToken(data, S_DELIM, i);// 0x00008000

  00618	56		 push	 esi
  00619	6a 7c		 push	 124			; 0000007cH
  0061b	57		 push	 edi
  0061c	e8 00 00 00 00	 call	 ?getIntegerToken@@YAHPADDH@Z ; getIntegerToken
  00621	a3 48 00 00 00	 mov	 DWORD PTR ?pc@@3UPC@@A+72, eax

; 1068 : 								i++;
; 1069 : 							}

  00626	e9 19 02 00 00	 jmp	 $LN442@lssproto_S
$LN76@lssproto_S:

; 1070 : 							else if (mask == 0x00010000)

  0062b	81 fb 00 00 01
	00		 cmp	 ebx, 65536		; 00010000H
  00631	75 13		 jne	 SHORT $LN78@lssproto_S

; 1071 : 							{
; 1072 : 								pc.luck = getIntegerToken(data, S_DELIM, i);// 0x00010000

  00633	56		 push	 esi
  00634	6a 7c		 push	 124			; 0000007cH
  00636	57		 push	 edi
  00637	e8 00 00 00 00	 call	 ?getIntegerToken@@YAHPADDH@Z ; getIntegerToken
  0063c	a3 4c 00 00 00	 mov	 DWORD PTR ?pc@@3UPC@@A+76, eax

; 1073 : 								i++;
; 1074 : 							}

  00641	e9 fe 01 00 00	 jmp	 $LN442@lssproto_S
$LN78@lssproto_S:

; 1075 : 							else if (mask == 0x00020000)

  00646	81 fb 00 00 02
	00		 cmp	 ebx, 131072		; 00020000H
  0064c	75 13		 jne	 SHORT $LN80@lssproto_S

; 1076 : 							{
; 1077 : 								pc.earth = getIntegerToken(data, S_DELIM, i);// 0x00020000

  0064e	56		 push	 esi
  0064f	6a 7c		 push	 124			; 0000007cH
  00651	57		 push	 edi
  00652	e8 00 00 00 00	 call	 ?getIntegerToken@@YAHPADDH@Z ; getIntegerToken
  00657	a3 50 00 00 00	 mov	 DWORD PTR ?pc@@3UPC@@A+80, eax

; 1078 : 								i++;
; 1079 : 							}

  0065c	e9 e3 01 00 00	 jmp	 $LN442@lssproto_S
$LN80@lssproto_S:

; 1080 : 							else if (mask == 0x00040000)

  00661	81 fb 00 00 04
	00		 cmp	 ebx, 262144		; 00040000H
  00667	75 13		 jne	 SHORT $LN82@lssproto_S

; 1081 : 							{
; 1082 : 								pc.water = getIntegerToken(data, S_DELIM, i);// 0x00040000

  00669	56		 push	 esi
  0066a	6a 7c		 push	 124			; 0000007cH
  0066c	57		 push	 edi
  0066d	e8 00 00 00 00	 call	 ?getIntegerToken@@YAHPADDH@Z ; getIntegerToken
  00672	a3 54 00 00 00	 mov	 DWORD PTR ?pc@@3UPC@@A+84, eax

; 1083 : 								i++;
; 1084 : 							}

  00677	e9 c8 01 00 00	 jmp	 $LN442@lssproto_S
$LN82@lssproto_S:

; 1085 : 							else if (mask == 0x00080000)

  0067c	81 fb 00 00 08
	00		 cmp	 ebx, 524288		; 00080000H
  00682	75 13		 jne	 SHORT $LN84@lssproto_S

; 1086 : 							{
; 1087 : 								pc.fire = getIntegerToken(data, S_DELIM, i);// 0x00080000

  00684	56		 push	 esi
  00685	6a 7c		 push	 124			; 0000007cH
  00687	57		 push	 edi
  00688	e8 00 00 00 00	 call	 ?getIntegerToken@@YAHPADDH@Z ; getIntegerToken
  0068d	a3 58 00 00 00	 mov	 DWORD PTR ?pc@@3UPC@@A+88, eax

; 1088 : 								i++;
; 1089 : 							}

  00692	e9 ad 01 00 00	 jmp	 $LN442@lssproto_S
$LN84@lssproto_S:

; 1090 : 							else if (mask == 0x00100000)

  00697	81 fb 00 00 10
	00		 cmp	 ebx, 1048576		; 00100000H
  0069d	75 13		 jne	 SHORT $LN86@lssproto_S

; 1091 : 							{
; 1092 : 								pc.wind = getIntegerToken(data, S_DELIM, i);// 0x00100000

  0069f	56		 push	 esi
  006a0	6a 7c		 push	 124			; 0000007cH
  006a2	57		 push	 edi
  006a3	e8 00 00 00 00	 call	 ?getIntegerToken@@YAHPADDH@Z ; getIntegerToken
  006a8	a3 5c 00 00 00	 mov	 DWORD PTR ?pc@@3UPC@@A+92, eax

; 1093 : 								i++;
; 1094 : 							}

  006ad	e9 92 01 00 00	 jmp	 $LN442@lssproto_S
$LN86@lssproto_S:

; 1095 : 							else if (mask == 0x00200000)

  006b2	81 fb 00 00 20
	00		 cmp	 ebx, 2097152		; 00200000H
  006b8	75 13		 jne	 SHORT $LN88@lssproto_S

; 1096 : 							{
; 1097 : 								pc.gold = getIntegerToken(data, S_DELIM, i);// 0x00200000

  006ba	56		 push	 esi
  006bb	6a 7c		 push	 124			; 0000007cH
  006bd	57		 push	 edi
  006be	e8 00 00 00 00	 call	 ?getIntegerToken@@YAHPADDH@Z ; getIntegerToken
  006c3	a3 60 00 00 00	 mov	 DWORD PTR ?pc@@3UPC@@A+96, eax

; 1098 : 								i++;
; 1099 : 							}

  006c8	e9 77 01 00 00	 jmp	 $LN442@lssproto_S
$LN88@lssproto_S:

; 1100 : 							else if (mask == 0x00400000)

  006cd	81 fb 00 00 40
	00		 cmp	 ebx, 4194304		; 00400000H
  006d3	75 13		 jne	 SHORT $LN90@lssproto_S

; 1101 : 							{
; 1102 : 								pc.titleNo = getIntegerToken(data, S_DELIM, i);// 0x00400000

  006d5	56		 push	 esi
  006d6	6a 7c		 push	 124			; 0000007cH
  006d8	57		 push	 edi
  006d9	e8 00 00 00 00	 call	 ?getIntegerToken@@YAHPADDH@Z ; getIntegerToken
  006de	a3 68 00 00 00	 mov	 DWORD PTR ?pc@@3UPC@@A+104, eax

; 1103 : 								i++;
; 1104 : 							}

  006e3	e9 5c 01 00 00	 jmp	 $LN442@lssproto_S
$LN90@lssproto_S:

; 1105 : 							else if (mask == 0x00800000)

  006e8	81 fb 00 00 80
	00		 cmp	 ebx, 8388608		; 00800000H
  006ee	75 13		 jne	 SHORT $LN92@lssproto_S

; 1106 : 							{
; 1107 : 								pc.dp = getIntegerToken(data, S_DELIM, i);// 0x00800000

  006f0	56		 push	 esi
  006f1	6a 7c		 push	 124			; 0000007cH
  006f3	57		 push	 edi
  006f4	e8 00 00 00 00	 call	 ?getIntegerToken@@YAHPADDH@Z ; getIntegerToken
  006f9	a3 6c 00 00 00	 mov	 DWORD PTR ?pc@@3UPC@@A+108, eax

; 1108 : 								i++;
; 1109 : 							}

  006fe	e9 41 01 00 00	 jmp	 $LN442@lssproto_S
$LN92@lssproto_S:

; 1110 : 							else if (mask == 0x01000000)

  00703	81 fb 00 00 00
	01		 cmp	 ebx, 16777216		; 01000000H
  00709	75 14		 jne	 SHORT $LN94@lssproto_S

; 1111 : 							{
; 1112 : 								pc.transmigration = getIntegerToken(data, S_DELIM, i);// 0x01000000

  0070b	56		 push	 esi
  0070c	6a 7c		 push	 124			; 0000007cH
  0070e	57		 push	 edi
  0070f	e8 00 00 00 00	 call	 ?getIntegerToken@@YAHPADDH@Z ; getIntegerToken
  00714	66 a3 f4 50 00
	00		 mov	 WORD PTR ?pc@@3UPC@@A+20724, ax

; 1113 : 								i++;
; 1114 : 							}

  0071a	e9 25 01 00 00	 jmp	 $LN442@lssproto_S
$LN94@lssproto_S:

; 1115 : 							else if (mask == 0x02000000)

  0071f	81 fb 00 00 00
	02		 cmp	 ebx, 33554432		; 02000000H
  00725	75 62		 jne	 SHORT $LN96@lssproto_S

; 1116 : 							{
; 1117 : 								getStringToken(data, S_DELIM, i, sizeof(name) - 1, name);// 0x01000000

  00727	8d 85 e8 fd ff
	ff		 lea	 eax, DWORD PTR _name$8[ebp]
  0072d	50		 push	 eax
  0072e	68 ff 00 00 00	 push	 255			; 000000ffH
  00733	56		 push	 esi
  00734	6a 7c		 push	 124			; 0000007cH
  00736	57		 push	 edi
  00737	e8 00 00 00 00	 call	 ?getStringToken@@YAHPADDHH0@Z ; getStringToken

; 1118 : 								makeStringFromEscaped(name);

  0073c	8d 85 e8 fd ff
	ff		 lea	 eax, DWORD PTR _name$8[ebp]
  00742	50		 push	 eax
  00743	e8 00 00 00 00	 call	 ?makeStringFromEscaped@@YAPADPAD@Z ; makeStringFromEscaped

; 1119 : 								if (strlen(name) <= CHAR_NAME_LEN)

  00748	8d 8d e8 fd ff
	ff		 lea	 ecx, DWORD PTR _name$8[ebp]
  0074e	83 c4 18	 add	 esp, 24			; 00000018H
  00751	8d 51 01	 lea	 edx, DWORD PTR [ecx+1]
$LL416@lssproto_S:
  00754	8a 01		 mov	 al, BYTE PTR [ecx]
  00756	41		 inc	 ecx
  00757	84 c0		 test	 al, al
  00759	75 f9		 jne	 SHORT $LL416@lssproto_S
  0075b	2b ca		 sub	 ecx, edx
  0075d	83 f9 10	 cmp	 ecx, 16			; 00000010H
  00760	0f 87 e1 00 00
	00		 ja	 $LN98@lssproto_S

; 1120 : 									strcpy(pc.name, name);

  00766	33 c9		 xor	 ecx, ecx
  00768	0f 1f 84 00 00
	00 00 00	 npad	 8
$LL246@lssproto_S:
  00770	8a 84 0d e8 fd
	ff ff		 mov	 al, BYTE PTR _name$8[ebp+ecx]
  00777	8d 49 01	 lea	 ecx, DWORD PTR [ecx+1]
  0077a	88 81 6f 00 00
	00		 mov	 BYTE PTR ?pc@@3UPC@@A[ecx+111], al
  00780	84 c0		 test	 al, al
  00782	75 ec		 jne	 SHORT $LL246@lssproto_S

; 1121 : 								i++;
; 1122 : 							}

  00784	e9 be 00 00 00	 jmp	 $LN98@lssproto_S
$LN96@lssproto_S:

; 1123 : 							else if (mask == 0x04000000)

  00789	81 fb 00 00 00
	04		 cmp	 ebx, 67108864		; 04000000H
  0078f	75 55		 jne	 SHORT $LN99@lssproto_S

; 1124 : 							{
; 1125 : 								getStringToken(data, S_DELIM, i, sizeof(freeName) - 1, freeName);// 0x02000000

  00791	8d 85 e8 fe ff
	ff		 lea	 eax, DWORD PTR _freeName$13[ebp]
  00797	50		 push	 eax
  00798	68 ff 00 00 00	 push	 255			; 000000ffH
  0079d	56		 push	 esi
  0079e	6a 7c		 push	 124			; 0000007cH
  007a0	57		 push	 edi
  007a1	e8 00 00 00 00	 call	 ?getStringToken@@YAHPADDHH0@Z ; getStringToken

; 1126 : 								makeStringFromEscaped(freeName);

  007a6	8d 85 e8 fe ff
	ff		 lea	 eax, DWORD PTR _freeName$13[ebp]
  007ac	50		 push	 eax
  007ad	e8 00 00 00 00	 call	 ?makeStringFromEscaped@@YAPADPAD@Z ; makeStringFromEscaped

; 1127 : 								if (strlen(freeName) <= CHAR_FREENAME_LEN)

  007b2	8d 8d e8 fe ff
	ff		 lea	 ecx, DWORD PTR _freeName$13[ebp]
  007b8	83 c4 18	 add	 esp, 24			; 00000018H
  007bb	8d 51 01	 lea	 edx, DWORD PTR [ecx+1]
  007be	66 90		 npad	 2
$LL417@lssproto_S:
  007c0	8a 01		 mov	 al, BYTE PTR [ecx]
  007c2	41		 inc	 ecx
  007c3	84 c0		 test	 al, al
  007c5	75 f9		 jne	 SHORT $LL417@lssproto_S
  007c7	2b ca		 sub	 ecx, edx
  007c9	83 f9 20	 cmp	 ecx, 32			; 00000020H
  007cc	77 79		 ja	 SHORT $LN98@lssproto_S

; 1128 : 									strcpy(pc.freeName, freeName);

  007ce	33 c9		 xor	 ecx, ecx
$LL247@lssproto_S:
  007d0	8a 84 0d e8 fe
	ff ff		 mov	 al, BYTE PTR _freeName$13[ebp+ecx]
  007d7	8d 49 01	 lea	 ecx, DWORD PTR [ecx+1]
  007da	88 81 80 00 00
	00		 mov	 BYTE PTR ?pc@@3UPC@@A[ecx+128], al
  007e0	84 c0		 test	 al, al
  007e2	75 ec		 jne	 SHORT $LL247@lssproto_S

; 1129 : 								i++;
; 1130 : 							}

  007e4	eb 61		 jmp	 SHORT $LN98@lssproto_S
$LN99@lssproto_S:

; 1131 : 							else if (mask == 0x08000000) // ( 1 << 27 )

  007e6	81 fb 00 00 00
	08		 cmp	 ebx, 134217728		; 08000000H
  007ec	75 10		 jne	 SHORT $LN102@lssproto_S

; 1132 : 							{
; 1133 : 								pc.ridePetNo = getIntegerToken(data, S_DELIM, i);// 0x08000000

  007ee	56		 push	 esi
  007ef	6a 7c		 push	 124			; 0000007cH
  007f1	57		 push	 edi
  007f2	e8 00 00 00 00	 call	 ?getIntegerToken@@YAHPADDH@Z ; getIntegerToken
  007f7	a3 18 51 00 00	 mov	 DWORD PTR ?pc@@3UPC@@A+20760, eax

; 1134 : 								i++;
; 1135 : 							}

  007fc	eb 46		 jmp	 SHORT $LN442@lssproto_S
$LN102@lssproto_S:

; 1136 : 							else if (mask == 0x10000000) // ( 1 << 28 )

  007fe	81 fb 00 00 00
	10		 cmp	 ebx, 268435456		; 10000000H
  00804	75 10		 jne	 SHORT $LN104@lssproto_S

; 1137 : 							{
; 1138 : 								pc.learnride = getIntegerToken(data, S_DELIM, i);// 0x10000000

  00806	56		 push	 esi
  00807	6a 7c		 push	 124			; 0000007cH
  00809	57		 push	 edi
  0080a	e8 00 00 00 00	 call	 ?getIntegerToken@@YAHPADDH@Z ; getIntegerToken
  0080f	a3 1c 51 00 00	 mov	 DWORD PTR ?pc@@3UPC@@A+20764, eax

; 1139 : 								i++;
; 1140 : 							}

  00814	eb 2e		 jmp	 SHORT $LN442@lssproto_S
$LN104@lssproto_S:

; 1141 : 							else if (mask == 0x20000000) // ( 1 << 29 )

  00816	81 fb 00 00 00
	20		 cmp	 ebx, 536870912		; 20000000H
  0081c	75 10		 jne	 SHORT $LN106@lssproto_S

; 1142 : 							{
; 1143 : 								pc.baseGraNo = getIntegerToken(data, S_DELIM, i);// 0x20000000

  0081e	56		 push	 esi
  0081f	6a 7c		 push	 124			; 0000007cH
  00821	57		 push	 edi
  00822	e8 00 00 00 00	 call	 ?getIntegerToken@@YAHPADDH@Z ; getIntegerToken
  00827	a3 50 51 00 00	 mov	 DWORD PTR ?pc@@3UPC@@A+20816, eax

; 1144 : 								i++;
; 1145 : 							}

  0082c	eb 16		 jmp	 SHORT $LN442@lssproto_S
$LN106@lssproto_S:

; 1146 : 							else if (mask == 0x40000000) // ( 1 << 30 )

  0082e	81 fb 00 00 00
	40		 cmp	 ebx, 1073741824		; 40000000H
  00834	75 18		 jne	 SHORT $LN4@lssproto_S

; 1147 : 							{
; 1148 : 								pc.skywalker = getIntegerToken(data, S_DELIM, i);// 0x40000000

  00836	56		 push	 esi
  00837	6a 7c		 push	 124			; 0000007cH
  00839	57		 push	 edi
  0083a	e8 00 00 00 00	 call	 ?getIntegerToken@@YAHPADDH@Z ; getIntegerToken
  0083f	a3 bc a1 00 00	 mov	 DWORD PTR ?pc@@3UPC@@A+41404, eax
$LN442@lssproto_S:

; 991  : 					for (; mask > 0; mask <<= 1)

  00844	83 c4 0c	 add	 esp, 12			; 0000000cH
$LN98@lssproto_S:
  00847	8b 85 8c fc ff
	ff		 mov	 eax, DWORD PTR _kubun$1$[ebp]
  0084d	46		 inc	 esi
$LN4@lssproto_S:
  0084e	03 db		 add	 ebx, ebx
  00850	0f 85 4a fc ff
	ff		 jne	 $LL6@lssproto_S
  00856	83 cb ff	 or	 ebx, -1
$LN5@lssproto_S:

; 1149 : 								i++;
; 1150 : 							}
; 1151 : 							//else if (mask == 0x80000000 ){ // ( 1 << 31 )
; 1152 : 								//	pc.debugmode = getIntegerToken(data, S_DELIM, i);// 0x80000000
; 1153 : 								//	i++;
; 1154 : 							//}
; 1155 : 						}
; 1156 : 					}
; 1157 : 				}
; 1158 : 				updataPcAct();

  00859	e8 00 00 00 00	 call	 ?updataPcAct@@YAXXZ	; updataPcAct

; 1159 : 				if ((pc.status & CHR_STATUS_LEADER) != 0 && party[0].useFlag != 0)

  0085e	f7 05 a4 00 00
	00 00 01 00 00	 test	 DWORD PTR ?pc@@3UPC@@A+164, 256 ; 00000100H
  00868	74 49		 je	 SHORT $LN109@lssproto_S
  0086a	66 83 3d 00 00
	00 00 00	 cmp	 WORD PTR ?party@@3PAUPARTY@@A, 0
  00872	74 3f		 je	 SHORT $LN109@lssproto_S

; 1160 : 				{
; 1161 : 					party[0].level = pc.level;

  00874	a1 38 00 00 00	 mov	 eax, DWORD PTR ?pc@@3UPC@@A+56

; 1162 : 					party[0].maxHp = pc.maxHp;

  00879	33 c9		 xor	 ecx, ecx
  0087b	a3 08 00 00 00	 mov	 DWORD PTR ?party@@3PAUPARTY@@A+8, eax
  00880	a1 14 00 00 00	 mov	 eax, DWORD PTR ?pc@@3UPC@@A+20
  00885	a3 0c 00 00 00	 mov	 DWORD PTR ?party@@3PAUPARTY@@A+12, eax

; 1163 : 					party[0].hp = pc.hp;

  0088a	a1 10 00 00 00	 mov	 eax, DWORD PTR ?pc@@3UPC@@A+16
  0088f	a3 10 00 00 00	 mov	 DWORD PTR ?party@@3PAUPARTY@@A+16, eax
  00894	0f 1f 40 00 0f
	1f 84 00 00 00
	00 00		 npad	 12
$LL248@lssproto_S:

; 1164 : 					strcpy(party[0].name, pc.name);

  008a0	8a 81 70 00 00
	00		 mov	 al, BYTE PTR ?pc@@3UPC@@A[ecx+112]
  008a6	8d 49 01	 lea	 ecx, DWORD PTR [ecx+1]
  008a9	88 81 17 00 00
	00		 mov	 BYTE PTR ?party@@3PAUPARTY@@A[ecx+23], al
  008af	84 c0		 test	 al, al
  008b1	75 ed		 jne	 SHORT $LL248@lssproto_S
$LN109@lssproto_S:

; 1165 : 				}
; 1166 : 			}
; 1167 : 			if (!bNewServer)

  008b3	8b 0d 00 00 00
	00		 mov	 ecx, DWORD PTR ?bNewServer@@3HA ; bNewServer
  008b9	85 c9		 test	 ecx, ecx
  008bb	a1 18 51 00 00	 mov	 eax, DWORD PTR ?pc@@3UPC@@A+20760
  008c0	0f 44 c3	 cmove	 eax, ebx

; 1168 : 				pc.ridePetNo = -1;
; 1169 : 			if ((bNewServer & 0xf000000) == 0xf000000 && sPetStatFlag == 1)

  008c3	81 e1 00 00 00
	0f		 and	 ecx, 251658240		; 0f000000H
  008c9	a3 18 51 00 00	 mov	 DWORD PTR ?pc@@3UPC@@A+20760, eax
  008ce	81 f9 00 00 00
	0f		 cmp	 ecx, 251658240		; 0f000000H
  008d4	0f 85 ac 19 00
	00		 jne	 $LN439@lssproto_S
  008da	83 3d 00 00 00
	00 01		 cmp	 DWORD PTR ?sPetStatFlag@@3HA, 1 ; sPetStatFlag
  008e1	0f 85 9f 19 00
	00		 jne	 $LN439@lssproto_S

; 1170 : 				saveUserSetting();

  008e7	e8 00 00 00 00	 call	 ?saveUserSetting@@YAHXZ	; saveUserSetting
  008ec	5e		 pop	 esi
  008ed	5b		 pop	 ebx
  008ee	5f		 pop	 edi

; 1803 : 			}
; 1804 : 			break;
; 1805 :     }
; 1806 : } 

  008ef	8b 4d fc	 mov	 ecx, DWORD PTR __$ArrayPad$[ebp]
  008f2	33 cd		 xor	 ecx, ebp
  008f4	e8 00 00 00 00	 call	 @__security_check_cookie@4
  008f9	8b e5		 mov	 esp, ebp
  008fb	5d		 pop	 ebp
  008fc	c3		 ret	 0
$LN112@lssproto_S:

; 1171 : 			break;
; 1172 : 		case 'F':
; 1173 : 			char familyName[256];
; 1174 : 
; 1175 : 			data++;
; 1176 : 			getStringToken(data, S_DELIM, 1, sizeof(familyName) - 1, familyName);

  008fd	8d 85 90 fc ff
	ff		 lea	 eax, DWORD PTR _familyName$2[ebp]
  00903	47		 inc	 edi
  00904	50		 push	 eax
  00905	68 ff 00 00 00	 push	 255			; 000000ffH
  0090a	6a 01		 push	 1
  0090c	6a 7c		 push	 124			; 0000007cH
  0090e	57		 push	 edi
  0090f	e8 00 00 00 00	 call	 ?getStringToken@@YAHPADDHH0@Z ; getStringToken

; 1177 : 			makeStringFromEscaped(familyName);

  00914	8d 85 90 fc ff
	ff		 lea	 eax, DWORD PTR _familyName$2[ebp]
  0091a	50		 push	 eax
  0091b	e8 00 00 00 00	 call	 ?makeStringFromEscaped@@YAPADPAD@Z ; makeStringFromEscaped

; 1178 : 			if (strlen(familyName) <= CHAR_NAME_LEN)

  00920	8d 8d 90 fc ff
	ff		 lea	 ecx, DWORD PTR _familyName$2[ebp]
  00926	83 c4 18	 add	 esp, 24			; 00000018H
  00929	8d 51 01	 lea	 edx, DWORD PTR [ecx+1]
  0092c	0f 1f 40 00	 npad	 4
$LL418@lssproto_S:
  00930	8a 01		 mov	 al, BYTE PTR [ecx]
  00932	41		 inc	 ecx
  00933	84 c0		 test	 al, al
  00935	75 f9		 jne	 SHORT $LL418@lssproto_S
  00937	2b ca		 sub	 ecx, edx
  00939	83 f9 10	 cmp	 ecx, 16			; 00000010H
  0093c	77 16		 ja	 SHORT $LN113@lssproto_S

; 1179 : 				strcpy(pc.familyName, familyName);

  0093e	33 c9		 xor	 ecx, ecx
$LL249@lssproto_S:
  00940	8a 84 0d 90 fc
	ff ff		 mov	 al, BYTE PTR _familyName$2[ebp+ecx]
  00947	8d 49 01	 lea	 ecx, DWORD PTR [ecx+1]
  0094a	88 81 f5 50 00
	00		 mov	 BYTE PTR ?pc@@3UPC@@A[ecx+20725], al
  00950	84 c0		 test	 al, al
  00952	75 ec		 jne	 SHORT $LL249@lssproto_S
$LN113@lssproto_S:

; 1180 : 			pc.familyleader = getIntegerToken(data, S_DELIM, 2);

  00954	6a 02		 push	 2
  00956	6a 7c		 push	 124			; 0000007cH
  00958	57		 push	 edi
  00959	e8 00 00 00 00	 call	 ?getIntegerToken@@YAHPADDH@Z ; getIntegerToken

; 1181 : 			pc.channel = getIntegerToken(data, S_DELIM, 3);

  0095e	6a 03		 push	 3
  00960	6a 7c		 push	 124			; 0000007cH
  00962	57		 push	 edi
  00963	a3 08 51 00 00	 mov	 DWORD PTR ?pc@@3UPC@@A+20744, eax
  00968	e8 00 00 00 00	 call	 ?getIntegerToken@@YAHPADDH@Z ; getIntegerToken

; 1182 : 			pc.familySprite = getIntegerToken(data, S_DELIM, 4);

  0096d	6a 04		 push	 4
  0096f	6a 7c		 push	 124			; 0000007cH
  00971	57		 push	 edi
  00972	a3 0c 51 00 00	 mov	 DWORD PTR ?pc@@3UPC@@A+20748, eax
  00977	e8 00 00 00 00	 call	 ?getIntegerToken@@YAHPADDH@Z ; getIntegerToken

; 1183 : 			pc.big4fm =	getIntegerToken(data, S_DELIM, 5);

  0097c	6a 05		 push	 5
  0097e	6a 7c		 push	 124			; 0000007cH
  00980	57		 push	 edi
  00981	a3 4c 51 00 00	 mov	 DWORD PTR ?pc@@3UPC@@A+20812, eax
  00986	e8 00 00 00 00	 call	 ?getIntegerToken@@YAHPADDH@Z ; getIntegerToken
  0098b	83 c4 30	 add	 esp, 48			; 00000030H
  0098e	a3 7c a1 00 00	 mov	 DWORD PTR ?pc@@3UPC@@A+41340, eax

; 1184 : #ifdef _CHANNEL_MODIFY
; 1185 : 			if (pc.familyleader == FMMEMBER_NONE)

  00993	83 3d 08 51 00
	00 ff		 cmp	 DWORD PTR ?pc@@3UPC@@A+20744, -1
  0099a	0f 85 e6 18 00
	00		 jne	 $LN439@lssproto_S

; 1186 : 			{
; 1187 : 				pc.etcFlag &= ~PC_ETCFLAG_CHAT_FM;

  009a0	5e		 pop	 esi
  009a1	b8 7f ff 00 00	 mov	 eax, 65407		; 0000ff7fH

; 1188 : 				TalkMode = 0;

  009a6	c7 05 00 00 00
	00 00 00 00 00	 mov	 DWORD PTR ?TalkMode@@3HA, 0 ; TalkMode
  009b0	66 21 05 a8 00
	00 00		 and	 WORD PTR ?pc@@3UPC@@A+168, ax
  009b7	5b		 pop	 ebx
  009b8	5f		 pop	 edi

; 1803 : 			}
; 1804 : 			break;
; 1805 :     }
; 1806 : } 

  009b9	8b 4d fc	 mov	 ecx, DWORD PTR __$ArrayPad$[ebp]
  009bc	33 cd		 xor	 ecx, ebp
  009be	e8 00 00 00 00	 call	 @__security_check_cookie@4
  009c3	8b e5		 mov	 esp, ebp
  009c5	5d		 pop	 ebp
  009c6	c3		 ret	 0
$LN115@lssproto_S:

; 1189 : 			}
; 1190 : #endif
; 1191 : 			break;
; 1192 : 		// HP,MP,EXP
; 1193 : 		case 'M':
; 1194 : 			data++;
; 1195 : 			pc.hp  = getIntegerToken(data, '|', 1);

  009c7	6a 01		 push	 1
  009c9	47		 inc	 edi
  009ca	6a 7c		 push	 124			; 0000007cH
  009cc	57		 push	 edi
  009cd	e8 00 00 00 00	 call	 ?getIntegerToken@@YAHPADDH@Z ; getIntegerToken

; 1196 : 			pc.mp  = getIntegerToken(data, '|', 2);

  009d2	6a 02		 push	 2
  009d4	6a 7c		 push	 124			; 0000007cH
  009d6	57		 push	 edi
  009d7	a3 10 00 00 00	 mov	 DWORD PTR ?pc@@3UPC@@A+16, eax
  009dc	e8 00 00 00 00	 call	 ?getIntegerToken@@YAHPADDH@Z ; getIntegerToken

; 1197 : 			pc.exp = getIntegerToken(data, '|', 3);

  009e1	6a 03		 push	 3
  009e3	6a 7c		 push	 124			; 0000007cH
  009e5	57		 push	 edi
  009e6	a3 18 00 00 00	 mov	 DWORD PTR ?pc@@3UPC@@A+24, eax
  009eb	e8 00 00 00 00	 call	 ?getIntegerToken@@YAHPADDH@Z ; getIntegerToken
  009f0	83 c4 24	 add	 esp, 36			; 00000024H
  009f3	a3 30 00 00 00	 mov	 DWORD PTR ?pc@@3UPC@@A+48, eax

; 1198 : 			updataPcAct();

  009f8	e8 00 00 00 00	 call	 ?updataPcAct@@YAXXZ	; updataPcAct

; 1199 : 			if ((pc.status & CHR_STATUS_LEADER) != 0 && party[0].useFlag != 0)

  009fd	f7 05 a4 00 00
	00 00 01 00 00	 test	 DWORD PTR ?pc@@3UPC@@A+164, 256 ; 00000100H
  00a07	0f 84 79 18 00
	00		 je	 $LN439@lssproto_S
  00a0d	66 83 3d 00 00
	00 00 00	 cmp	 WORD PTR ?party@@3PAUPARTY@@A, 0
  00a15	0f 84 6b 18 00
	00		 je	 $LN439@lssproto_S

; 1200 : 				party[0].hp = pc.hp;

  00a1b	a1 10 00 00 00	 mov	 eax, DWORD PTR ?pc@@3UPC@@A+16
  00a20	5e		 pop	 esi
  00a21	5b		 pop	 ebx
  00a22	a3 10 00 00 00	 mov	 DWORD PTR ?party@@3PAUPARTY@@A+16, eax
  00a27	5f		 pop	 edi

; 1803 : 			}
; 1804 : 			break;
; 1805 :     }
; 1806 : } 

  00a28	8b 4d fc	 mov	 ecx, DWORD PTR __$ArrayPad$[ebp]
  00a2b	33 cd		 xor	 ecx, ebp
  00a2d	e8 00 00 00 00	 call	 @__security_check_cookie@4
  00a32	8b e5		 mov	 esp, ebp
  00a34	5d		 pop	 ebp
  00a35	c3		 ret	 0
$LN117@lssproto_S:

; 1201 : 			break;
; 1202 : 		case 'K':
; 1203 : 			{
; 1204 : 				char name[256], freeName[256];
; 1205 : 				int no, kubun, i;
; 1206 : 				unsigned int mask;
; 1207 : 
; 1208 : 				no = data[1] - '0';

  00a36	0f be 77 01	 movsx	 esi, BYTE PTR [edi+1]

; 1209 : 				data += 3;

  00a3a	83 c7 03	 add	 edi, 3

; 1210 : 				kubun = getInteger62Token(data, S_DELIM, 1);

  00a3d	6a 01		 push	 1
  00a3f	6a 7c		 push	 124			; 0000007cH
  00a41	57		 push	 edi
  00a42	83 ee 30	 sub	 esi, 48			; 00000030H
  00a45	e8 00 00 00 00	 call	 ?getInteger62Token@@YAHPADDH@Z ; getInteger62Token
  00a4a	69 de 78 0b 00
	00		 imul	 ebx, esi, 2936
  00a50	83 c4 0c	 add	 esp, 12			; 0000000cH
  00a53	89 85 88 fc ff
	ff		 mov	 DWORD PTR _kubun$1$[ebp], eax
  00a59	89 9d 8c fc ff
	ff		 mov	 DWORD PTR tv7837[ebp], ebx

; 1211 : 				if (kubun == 0){

  00a5f	85 c0		 test	 eax, eax
  00a61	75 54		 jne	 SHORT $LN118@lssproto_S

; 1212 : 					if (pet[no].useFlag){

  00a63	66 39 83 76 00
	00 00		 cmp	 WORD PTR ?pet@@3PAUPET@@A[ebx+118], ax
  00a6a	74 31		 je	 SHORT $LN119@lssproto_S

; 1213 : 						if (no == pc.battlePetNo)

  00a6c	0f bf 05 aa 00
	00 00		 movsx	 eax, WORD PTR ?pc@@3UPC@@A+170
  00a73	83 c9 ff	 or	 ecx, -1
  00a76	3b f0		 cmp	 esi, eax
  00a78	75 07		 jne	 SHORT $LN120@lssproto_S

; 1214 : 							pc.battlePetNo = -1;

  00a7a	66 89 0d aa 00
	00 00		 mov	 WORD PTR ?pc@@3UPC@@A+170, cx
$LN120@lssproto_S:

; 1215 : 						if (no == pc.mailPetNo)

  00a81	0f bf 05 b6 00
	00 00		 movsx	 eax, WORD PTR ?pc@@3UPC@@A+182
  00a88	3b f0		 cmp	 esi, eax
  00a8a	75 07		 jne	 SHORT $LN121@lssproto_S

; 1216 : 							pc.mailPetNo = -1;

  00a8c	66 89 0d b6 00
	00 00		 mov	 WORD PTR ?pc@@3UPC@@A+182, cx
$LN121@lssproto_S:

; 1217 : 						pc.selectPetNo[no] = FALSE;

  00a93	33 c0		 xor	 eax, eax
  00a95	66 89 04 75 ac
	00 00 00	 mov	 WORD PTR ?pc@@3UPC@@A[esi*2+172], ax
$LN119@lssproto_S:

; 1218 : 					}
; 1219 : 					pet[no].useFlag = 0;

  00a9d	33 c0		 xor	 eax, eax
  00a9f	5e		 pop	 esi
  00aa0	66 89 83 76 00
	00 00		 mov	 WORD PTR ?pet@@3PAUPET@@A[ebx+118], ax
  00aa7	5b		 pop	 ebx
  00aa8	5f		 pop	 edi

; 1803 : 			}
; 1804 : 			break;
; 1805 :     }
; 1806 : } 

  00aa9	8b 4d fc	 mov	 ecx, DWORD PTR __$ArrayPad$[ebp]
  00aac	33 cd		 xor	 ecx, ebp
  00aae	e8 00 00 00 00	 call	 @__security_check_cookie@4
  00ab3	8b e5		 mov	 esp, ebp
  00ab5	5d		 pop	 ebp
  00ab6	c3		 ret	 0
$LN118@lssproto_S:

; 1220 : 					break;
; 1221 : 				}
; 1222 : 				pet[no].useFlag = 1;

  00ab7	b9 01 00 00 00	 mov	 ecx, 1
  00abc	66 89 8b 76 00
	00 00		 mov	 WORD PTR ?pet@@3PAUPET@@A[ebx+118], cx

; 1223 : 				if (kubun == 1){

  00ac3	3b c1		 cmp	 eax, ecx
  00ac5	0f 85 fe 03 00
	00		 jne	 $LN122@lssproto_S

; 1224 : 					pet[no].graNo	= getIntegerToken(data, S_DELIM, 2);		// 0x00000002

  00acb	6a 02		 push	 2
  00acd	6a 7c		 push	 124			; 0000007cH
  00acf	57		 push	 edi
  00ad0	e8 00 00 00 00	 call	 ?getIntegerToken@@YAHPADDH@Z ; getIntegerToken

; 1225 : 					pet[no].hp		= getIntegerToken(data, S_DELIM, 3);		// 0x00000004

  00ad5	6a 03		 push	 3
  00ad7	6a 7c		 push	 124			; 0000007cH
  00ad9	57		 push	 edi
  00ada	89 83 04 00 00
	00		 mov	 DWORD PTR ?pet@@3PAUPET@@A[ebx+4], eax
  00ae0	e8 00 00 00 00	 call	 ?getIntegerToken@@YAHPADDH@Z ; getIntegerToken

; 1226 : 					pet[no].maxHp	= getIntegerToken(data, S_DELIM, 4);		// 0x00000008

  00ae5	6a 04		 push	 4
  00ae7	6a 7c		 push	 124			; 0000007cH
  00ae9	57		 push	 edi
  00aea	89 83 08 00 00
	00		 mov	 DWORD PTR ?pet@@3PAUPET@@A[ebx+8], eax
  00af0	e8 00 00 00 00	 call	 ?getIntegerToken@@YAHPADDH@Z ; getIntegerToken

; 1227 : 					pet[no].mp		= getIntegerToken(data, S_DELIM, 5);		// 0x00000010

  00af5	6a 05		 push	 5
  00af7	6a 7c		 push	 124			; 0000007cH
  00af9	57		 push	 edi
  00afa	89 83 0c 00 00
	00		 mov	 DWORD PTR ?pet@@3PAUPET@@A[ebx+12], eax
  00b00	e8 00 00 00 00	 call	 ?getIntegerToken@@YAHPADDH@Z ; getIntegerToken

; 1228 : 					pet[no].maxMp	= getIntegerToken(data, S_DELIM, 6);		// 0x00000020

  00b05	6a 06		 push	 6
  00b07	6a 7c		 push	 124			; 0000007cH
  00b09	57		 push	 edi
  00b0a	89 83 10 00 00
	00		 mov	 DWORD PTR ?pet@@3PAUPET@@A[ebx+16], eax
  00b10	e8 00 00 00 00	 call	 ?getIntegerToken@@YAHPADDH@Z ; getIntegerToken

; 1229 : 					pet[no].exp		= getIntegerToken(data, S_DELIM, 7);		// 0x00000040

  00b15	6a 07		 push	 7
  00b17	6a 7c		 push	 124			; 0000007cH
  00b19	57		 push	 edi
  00b1a	89 83 14 00 00
	00		 mov	 DWORD PTR ?pet@@3PAUPET@@A[ebx+20], eax
  00b20	e8 00 00 00 00	 call	 ?getIntegerToken@@YAHPADDH@Z ; getIntegerToken
  00b25	83 c4 48	 add	 esp, 72			; 00000048H
  00b28	89 83 18 00 00
	00		 mov	 DWORD PTR ?pet@@3PAUPET@@A[ebx+24], eax

; 1230 : 					pet[no].maxExp	= getIntegerToken(data, S_DELIM, 8);		// 0x00000080

  00b2e	6a 08		 push	 8
  00b30	6a 7c		 push	 124			; 0000007cH
  00b32	57		 push	 edi
  00b33	e8 00 00 00 00	 call	 ?getIntegerToken@@YAHPADDH@Z ; getIntegerToken

; 1231 : 					pet[no].level	= getIntegerToken(data, S_DELIM, 9);		// 0x00000100

  00b38	6a 09		 push	 9
  00b3a	6a 7c		 push	 124			; 0000007cH
  00b3c	57		 push	 edi
  00b3d	89 83 1c 00 00
	00		 mov	 DWORD PTR ?pet@@3PAUPET@@A[ebx+28], eax
  00b43	e8 00 00 00 00	 call	 ?getIntegerToken@@YAHPADDH@Z ; getIntegerToken

; 1232 : 					pet[no].atk		= getIntegerToken(data, S_DELIM, 10);		// 0x00000200

  00b48	6a 0a		 push	 10			; 0000000aH
  00b4a	6a 7c		 push	 124			; 0000007cH
  00b4c	57		 push	 edi
  00b4d	89 83 20 00 00
	00		 mov	 DWORD PTR ?pet@@3PAUPET@@A[ebx+32], eax
  00b53	e8 00 00 00 00	 call	 ?getIntegerToken@@YAHPADDH@Z ; getIntegerToken

; 1233 : 					pet[no].def		= getIntegerToken(data, S_DELIM, 11);		// 0x00000400

  00b58	6a 0b		 push	 11			; 0000000bH
  00b5a	6a 7c		 push	 124			; 0000007cH
  00b5c	57		 push	 edi
  00b5d	89 83 24 00 00
	00		 mov	 DWORD PTR ?pet@@3PAUPET@@A[ebx+36], eax
  00b63	e8 00 00 00 00	 call	 ?getIntegerToken@@YAHPADDH@Z ; getIntegerToken

; 1234 : 					pet[no].quick	= getIntegerToken(data, S_DELIM, 12);		// 0x00000800

  00b68	6a 0c		 push	 12			; 0000000cH
  00b6a	6a 7c		 push	 124			; 0000007cH
  00b6c	57		 push	 edi
  00b6d	89 83 28 00 00
	00		 mov	 DWORD PTR ?pet@@3PAUPET@@A[ebx+40], eax
  00b73	e8 00 00 00 00	 call	 ?getIntegerToken@@YAHPADDH@Z ; getIntegerToken

; 1235 : 					pet[no].ai		= getIntegerToken(data, S_DELIM, 13);		// 0x00001000

  00b78	6a 0d		 push	 13			; 0000000dH
  00b7a	6a 7c		 push	 124			; 0000007cH
  00b7c	57		 push	 edi
  00b7d	89 83 2c 00 00
	00		 mov	 DWORD PTR ?pet@@3PAUPET@@A[ebx+44], eax
  00b83	e8 00 00 00 00	 call	 ?getIntegerToken@@YAHPADDH@Z ; getIntegerToken
  00b88	83 c4 48	 add	 esp, 72			; 00000048H
  00b8b	89 83 30 00 00
	00		 mov	 DWORD PTR ?pet@@3PAUPET@@A[ebx+48], eax

; 1236 : 					pet[no].earth	= getIntegerToken(data, S_DELIM, 14);		// 0x00002000

  00b91	6a 0e		 push	 14			; 0000000eH
  00b93	6a 7c		 push	 124			; 0000007cH
  00b95	57		 push	 edi
  00b96	e8 00 00 00 00	 call	 ?getIntegerToken@@YAHPADDH@Z ; getIntegerToken

; 1237 : 					pet[no].water	= getIntegerToken(data, S_DELIM, 15);		// 0x00004000

  00b9b	6a 0f		 push	 15			; 0000000fH
  00b9d	6a 7c		 push	 124			; 0000007cH
  00b9f	57		 push	 edi
  00ba0	89 83 34 00 00
	00		 mov	 DWORD PTR ?pet@@3PAUPET@@A[ebx+52], eax
  00ba6	e8 00 00 00 00	 call	 ?getIntegerToken@@YAHPADDH@Z ; getIntegerToken

; 1238 : 					pet[no].fire	= getIntegerToken(data, S_DELIM, 16);		// 0x00008000

  00bab	6a 10		 push	 16			; 00000010H
  00bad	6a 7c		 push	 124			; 0000007cH
  00baf	57		 push	 edi
  00bb0	89 83 38 00 00
	00		 mov	 DWORD PTR ?pet@@3PAUPET@@A[ebx+56], eax
  00bb6	e8 00 00 00 00	 call	 ?getIntegerToken@@YAHPADDH@Z ; getIntegerToken

; 1239 : 					pet[no].wind	= getIntegerToken(data, S_DELIM, 17);		// 0x00010000

  00bbb	6a 11		 push	 17			; 00000011H
  00bbd	6a 7c		 push	 124			; 0000007cH
  00bbf	57		 push	 edi
  00bc0	89 83 3c 00 00
	00		 mov	 DWORD PTR ?pet@@3PAUPET@@A[ebx+60], eax
  00bc6	e8 00 00 00 00	 call	 ?getIntegerToken@@YAHPADDH@Z ; getIntegerToken

; 1240 : 					pet[no].maxSkill= getIntegerToken(data, S_DELIM, 18);		// 0x00020000

  00bcb	6a 12		 push	 18			; 00000012H
  00bcd	6a 7c		 push	 124			; 0000007cH
  00bcf	57		 push	 edi
  00bd0	89 83 40 00 00
	00		 mov	 DWORD PTR ?pet@@3PAUPET@@A[ebx+64], eax
  00bd6	e8 00 00 00 00	 call	 ?getIntegerToken@@YAHPADDH@Z ; getIntegerToken

; 1241 : 					pet[no].changeNameFlag = getIntegerToken(data, S_DELIM, 19);// 0x00040000

  00bdb	6a 13		 push	 19			; 00000013H
  00bdd	6a 7c		 push	 124			; 0000007cH
  00bdf	57		 push	 edi
  00be0	89 83 44 00 00
	00		 mov	 DWORD PTR ?pet@@3PAUPET@@A[ebx+68], eax
  00be6	e8 00 00 00 00	 call	 ?getIntegerToken@@YAHPADDH@Z ; getIntegerToken
  00beb	83 c4 48	 add	 esp, 72			; 00000048H
  00bee	66 89 83 78 00
	00 00		 mov	 WORD PTR ?pet@@3PAUPET@@A[ebx+120], ax

; 1242 : 					pet[no].trn = getIntegerToken(data , S_DELIM, 20);

  00bf5	6a 14		 push	 20			; 00000014H
  00bf7	6a 7c		 push	 124			; 0000007cH
  00bf9	57		 push	 edi
  00bfa	e8 00 00 00 00	 call	 ?getIntegerToken@@YAHPADDH@Z ; getIntegerToken

; 1243 : #ifdef _SHOW_FUSION
; 1244 : 					pet[no].fusion = getIntegerToken(data , S_DELIM, 21);

  00bff	6a 15		 push	 21			; 00000015H
  00c01	6a 7c		 push	 124			; 0000007cH
  00c03	57		 push	 edi
  00c04	89 83 48 00 00
	00		 mov	 DWORD PTR ?pet@@3PAUPET@@A[ebx+72], eax
  00c0a	e8 00 00 00 00	 call	 ?getIntegerToken@@YAHPADDH@Z ; getIntegerToken
  00c0f	89 83 4c 00 00
	00		 mov	 DWORD PTR ?pet@@3PAUPET@@A[ebx+76], eax

; 1245 : 					getStringToken(data, S_DELIM, 22, sizeof(name) - 1, name);// 0x00080000

  00c15	8d 85 e8 fe ff
	ff		 lea	 eax, DWORD PTR _name$12[ebp]
  00c1b	50		 push	 eax
  00c1c	68 ff 00 00 00	 push	 255			; 000000ffH
  00c21	6a 16		 push	 22			; 00000016H
  00c23	6a 7c		 push	 124			; 0000007cH
  00c25	57		 push	 edi
  00c26	e8 00 00 00 00	 call	 ?getStringToken@@YAHPADDHH0@Z ; getStringToken

; 1246 : 					makeStringFromEscaped(name);

  00c2b	8d 85 e8 fe ff
	ff		 lea	 eax, DWORD PTR _name$12[ebp]
  00c31	50		 push	 eax
  00c32	e8 00 00 00 00	 call	 ?makeStringFromEscaped@@YAPADPAD@Z ; makeStringFromEscaped

; 1247 : 					if (strlen(name) <= PET_NAME_LEN)

  00c37	8d 8d e8 fe ff
	ff		 lea	 ecx, DWORD PTR _name$12[ebp]
  00c3d	83 c4 30	 add	 esp, 48			; 00000030H
  00c40	8d 51 01	 lea	 edx, DWORD PTR [ecx+1]
$LL419@lssproto_S:
  00c43	8a 01		 mov	 al, BYTE PTR [ecx]
  00c45	41		 inc	 ecx
  00c46	84 c0		 test	 al, al
  00c48	75 f9		 jne	 SHORT $LL419@lssproto_S
  00c4a	2b ca		 sub	 ecx, edx
  00c4c	83 f9 10	 cmp	 ecx, 16			; 00000010H
  00c4f	77 1f		 ja	 SHORT $LN124@lssproto_S

; 1248 : 						strcpy(pet[no].name, name);

  00c51	8d 8d e8 fe ff
	ff		 lea	 ecx, DWORD PTR _name$12[ebp]
  00c57	8b d3		 mov	 edx, ebx
  00c59	8b c1		 mov	 eax, ecx
  00c5b	2b d0		 sub	 edx, eax
  00c5d	0f 1f 00	 npad	 3
$LL250@lssproto_S:
  00c60	8a 01		 mov	 al, BYTE PTR [ecx]
  00c62	8d 49 01	 lea	 ecx, DWORD PTR [ecx+1]
  00c65	88 84 11 53 00
	00 00		 mov	 BYTE PTR ?pet@@3PAUPET@@A[ecx+edx+83], al
  00c6c	84 c0		 test	 al, al
  00c6e	75 f0		 jne	 SHORT $LL250@lssproto_S
$LN124@lssproto_S:

; 1249 : 					getStringToken(data, S_DELIM, 23, sizeof(freeName) - 1, freeName);// 0x00100000

  00c70	8d 85 e8 fd ff
	ff		 lea	 eax, DWORD PTR _freeName$7[ebp]
  00c76	50		 push	 eax
  00c77	68 ff 00 00 00	 push	 255			; 000000ffH
  00c7c	6a 17		 push	 23			; 00000017H
  00c7e	6a 7c		 push	 124			; 0000007cH
  00c80	57		 push	 edi
  00c81	e8 00 00 00 00	 call	 ?getStringToken@@YAHPADDHH0@Z ; getStringToken

; 1250 : 					makeStringFromEscaped(freeName);

  00c86	8d 85 e8 fd ff
	ff		 lea	 eax, DWORD PTR _freeName$7[ebp]
  00c8c	50		 push	 eax
  00c8d	e8 00 00 00 00	 call	 ?makeStringFromEscaped@@YAPADPAD@Z ; makeStringFromEscaped

; 1251 : 					if (strlen(freeName) <= PET_NAME_LEN)

  00c92	8d 8d e8 fd ff
	ff		 lea	 ecx, DWORD PTR _freeName$7[ebp]
  00c98	83 c4 18	 add	 esp, 24			; 00000018H
  00c9b	8d 51 01	 lea	 edx, DWORD PTR [ecx+1]
  00c9e	66 90		 npad	 2
$LL420@lssproto_S:
  00ca0	8a 01		 mov	 al, BYTE PTR [ecx]
  00ca2	41		 inc	 ecx
  00ca3	84 c0		 test	 al, al
  00ca5	75 f9		 jne	 SHORT $LL420@lssproto_S
  00ca7	2b ca		 sub	 ecx, edx
  00ca9	83 f9 10	 cmp	 ecx, 16			; 00000010H
  00cac	77 22		 ja	 SHORT $LN125@lssproto_S

; 1252 : 						strcpy(pet[no].freeName, freeName);

  00cae	8d 8d e8 fd ff
	ff		 lea	 ecx, DWORD PTR _freeName$7[ebp]
  00cb4	8b d3		 mov	 edx, ebx
  00cb6	8b c1		 mov	 eax, ecx
  00cb8	2b d0		 sub	 edx, eax
  00cba	66 0f 1f 44 00
	00		 npad	 6
$LL251@lssproto_S:
  00cc0	8a 01		 mov	 al, BYTE PTR [ecx]
  00cc2	8d 49 01	 lea	 ecx, DWORD PTR [ecx+1]
  00cc5	88 84 11 64 00
	00 00		 mov	 BYTE PTR ?pet@@3PAUPET@@A[ecx+edx+100], al
  00ccc	84 c0		 test	 al, al
  00cce	75 f0		 jne	 SHORT $LL251@lssproto_S
$LN125@lssproto_S:

; 1253 : #else
; 1254 : 					getStringToken(data, S_DELIM, 21, sizeof(name) - 1, name);// 0x00080000
; 1255 : 					makeStringFromEscaped(name);
; 1256 : 					if (strlen(name) <= PET_NAME_LEN)
; 1257 : 						strcpy(pet[no].name, name);
; 1258 : 					getStringToken(data, S_DELIM, 22, sizeof(freeName) - 1, freeName);// 0x00100000
; 1259 : 					makeStringFromEscaped(freeName);
; 1260 : 					if (strlen(freeName) <= PET_NAME_LEN)
; 1261 : 						strcpy(pet[no].freeName, freeName);
; 1262 : #endif
; 1263 : #ifdef _NB_å® ç‰©ç»‘å®šå€¼
; 1264 : 					char ç»‘å®šæ ‡å¿—[2];
; 1265 : 					getStringToken(data, S_DELIM, 24, sizeof(ç»‘å®šæ ‡å¿—) - 1, ç»‘å®šæ ‡å¿—);// 0x00100000

  00cd0	8d 85 8c fc ff
	ff		 lea	 eax, DWORD PTR _?ïÒ?ò¤$1[ebp]
  00cd6	50		 push	 eax
  00cd7	6a 01		 push	 1
  00cd9	6a 18		 push	 24			; 00000018H
  00cdb	6a 7c		 push	 124			; 0000007cH
  00cdd	57		 push	 edi
  00cde	e8 00 00 00 00	 call	 ?getStringToken@@YAHPADDHH0@Z ; getStringToken

; 1266 : 					makeStringFromEscaped(ç»‘å®šæ ‡å¿—);

  00ce3	8d 85 8c fc ff
	ff		 lea	 eax, DWORD PTR _?ïÒ?ò¤$1[ebp]
  00ce9	50		 push	 eax
  00cea	e8 00 00 00 00	 call	 ?makeStringFromEscaped@@YAPADPAD@Z ; makeStringFromEscaped

; 1267 : 					char *temp2 = sunday(ç»‘å®šæ ‡å¿—, "*");

  00cef	8d 85 8c fc ff
	ff		 lea	 eax, DWORD PTR _?ïÒ?ò¤$1[ebp]
  00cf5	68 00 00 00 00	 push	 OFFSET ??_C@_01NBENCBCI@?$CK@
  00cfa	50		 push	 eax
  00cfb	e8 00 00 00 00	 call	 ?sunday@@YAPADPAD0@Z	; sunday

; 1268 : 					if (temp2){

  00d00	f7 d8		 neg	 eax

; 1269 : 						pet[no].petlock = 1;
; 1270 : 					}else{
; 1271 : 						pet[no].petlock = 0;
; 1272 : 					}
; 1273 : 
; 1274 : #endif
; 1275 : 					pet[no].petindex = getIntegerToken(data , S_DELIM, 25);//ç´¢å¼•

  00d02	6a 19		 push	 25			; 00000019H
  00d04	1b c0		 sbb	 eax, eax
  00d06	f7 d8		 neg	 eax
  00d08	6a 7c		 push	 124			; 0000007cH
  00d0a	57		 push	 edi
  00d0b	89 83 e0 0a 00
	00		 mov	 DWORD PTR ?pet@@3PAUPET@@A[ebx+2784], eax
  00d11	e8 00 00 00 00	 call	 ?getIntegerToken@@YAHPADDH@Z ; getIntegerToken

; 1276 : 					//printf("data[1]:%s\n",data);
; 1277 : #ifdef _NB_å® ç‰©åˆå§‹å€¼
; 1278 : 					pet[no].initlevel = getIntegerToken(data , S_DELIM, 26);//

  00d16	6a 1a		 push	 26			; 0000001aH
  00d18	6a 7c		 push	 124			; 0000007cH
  00d1a	57		 push	 edi
  00d1b	89 83 e4 0a 00
	00		 mov	 DWORD PTR ?pet@@3PAUPET@@A[ebx+2788], eax
  00d21	e8 00 00 00 00	 call	 ?getIntegerToken@@YAHPADDH@Z ; getIntegerToken

; 1279 : 					pet[no].inithp = getIntegerToken(data , S_DELIM, 27);

  00d26	6a 1b		 push	 27			; 0000001bH
  00d28	6a 7c		 push	 124			; 0000007cH
  00d2a	57		 push	 edi
  00d2b	89 83 e8 0a 00
	00		 mov	 DWORD PTR ?pet@@3PAUPET@@A[ebx+2792], eax
  00d31	e8 00 00 00 00	 call	 ?getIntegerToken@@YAHPADDH@Z ; getIntegerToken
  00d36	83 c4 44	 add	 esp, 68			; 00000044H
  00d39	89 83 ec 0a 00
	00		 mov	 DWORD PTR ?pet@@3PAUPET@@A[ebx+2796], eax

; 1280 : 					pet[no].initatk = getIntegerToken(data , S_DELIM, 28);

  00d3f	6a 1c		 push	 28			; 0000001cH
  00d41	6a 7c		 push	 124			; 0000007cH
  00d43	57		 push	 edi
  00d44	e8 00 00 00 00	 call	 ?getIntegerToken@@YAHPADDH@Z ; getIntegerToken

; 1281 : 					pet[no].initdef = getIntegerToken(data , S_DELIM, 29);

  00d49	6a 1d		 push	 29			; 0000001dH
  00d4b	6a 7c		 push	 124			; 0000007cH
  00d4d	57		 push	 edi
  00d4e	89 83 f0 0a 00
	00		 mov	 DWORD PTR ?pet@@3PAUPET@@A[ebx+2800], eax
  00d54	e8 00 00 00 00	 call	 ?getIntegerToken@@YAHPADDH@Z ; getIntegerToken

; 1282 : 					pet[no].initquick = getIntegerToken(data , S_DELIM, 30);

  00d59	6a 1e		 push	 30			; 0000001eH
  00d5b	6a 7c		 push	 124			; 0000007cH
  00d5d	57		 push	 edi
  00d5e	89 83 f4 0a 00
	00		 mov	 DWORD PTR ?pet@@3PAUPET@@A[ebx+2804], eax
  00d64	e8 00 00 00 00	 call	 ?getIntegerToken@@YAHPADDH@Z ; getIntegerToken

; 1283 : 					pet[no].repetnum = getIntegerToken(data , S_DELIM, 39);

  00d69	6a 27		 push	 39			; 00000027H
  00d6b	6a 7c		 push	 124			; 0000007cH
  00d6d	57		 push	 edi
  00d6e	89 83 f8 0a 00
	00		 mov	 DWORD PTR ?pet@@3PAUPET@@A[ebx+2808], eax
  00d74	e8 00 00 00 00	 call	 ?getIntegerToken@@YAHPADDH@Z ; getIntegerToken

; 1284 : 					//printf("data[%d]:%d %d %d %d\n",no,pet[no].inithp,pet[no].initatk,pet[no].initdef,pet[no].initquick);
; 1285 : #endif
; 1286 : 					pet[no].hit_rate = getIntegerToken(data, S_DELIM, 40);

  00d79	6a 28		 push	 40			; 00000028H
  00d7b	6a 7c		 push	 124			; 0000007cH
  00d7d	57		 push	 edi
  00d7e	89 83 fc 0a 00
	00		 mov	 DWORD PTR ?pet@@3PAUPET@@A[ebx+2812], eax
  00d84	e8 00 00 00 00	 call	 ?getIntegerToken@@YAHPADDH@Z ; getIntegerToken

; 1287 : 					pet[no].crit_rate = getIntegerToken(data, S_DELIM, 41);

  00d89	6a 29		 push	 41			; 00000029H
  00d8b	6a 7c		 push	 124			; 0000007cH
  00d8d	57		 push	 edi
  00d8e	89 83 20 0b 00
	00		 mov	 DWORD PTR ?pet@@3PAUPET@@A[ebx+2848], eax
  00d94	e8 00 00 00 00	 call	 ?getIntegerToken@@YAHPADDH@Z ; getIntegerToken
  00d99	83 c4 48	 add	 esp, 72			; 00000048H
  00d9c	89 83 24 0b 00
	00		 mov	 DWORD PTR ?pet@@3PAUPET@@A[ebx+2852], eax

; 1288 : 					pet[no].avoid_rate = getIntegerToken(data, S_DELIM, 42);

  00da2	6a 2a		 push	 42			; 0000002aH
  00da4	6a 7c		 push	 124			; 0000007cH
  00da6	57		 push	 edi
  00da7	e8 00 00 00 00	 call	 ?getIntegerToken@@YAHPADDH@Z ; getIntegerToken

; 1289 : 
; 1290 : 					pet[no].DATAHP   = getIntegerToken(data, S_DELIM, 43);

  00dac	6a 2b		 push	 43			; 0000002bH
  00dae	6a 7c		 push	 124			; 0000007cH
  00db0	57		 push	 edi
  00db1	89 83 28 0b 00
	00		 mov	 DWORD PTR ?pet@@3PAUPET@@A[ebx+2856], eax
  00db7	e8 00 00 00 00	 call	 ?getIntegerToken@@YAHPADDH@Z ; getIntegerToken

; 1291 : 					pet[no].DATASTR  = getIntegerToken(data, S_DELIM, 44);

  00dbc	6a 2c		 push	 44			; 0000002cH
  00dbe	6a 7c		 push	 124			; 0000007cH
  00dc0	57		 push	 edi
  00dc1	89 83 2c 0b 00
	00		 mov	 DWORD PTR ?pet@@3PAUPET@@A[ebx+2860], eax
