; Listing generated by Microsoft (R) Optimizing Compiler Version 19.28.29336.0 

	TITLE	C:\Users\gg862\OneDrive\¹ÙÅÁ È­¸é\¸¾Äí¿Ï·á\Client Source Code1.31ÀÏº»\oft\oft.cpp
	.686P
	.XMM
	include listing.inc
	.model	flat

INCLUDELIB LIBCMT
INCLUDELIB OLDNAMES

PUBLIC	?ShooterNum@@3HA				; ShooterNum
PUBLIC	?AttPreMagicNum@@3HA				; AttPreMagicNum
PUBLIC	?AttNextMagicNum@@3HA				; AttNextMagicNum
PUBLIC	?NoMiss@@3FA					; NoMiss
PUBLIC	?StarLoop@@3FA					; StarLoop
PUBLIC	?BeAttNum@@3HA					; BeAttNum
PUBLIC	?FireSkillEnd@@3HA				; FireSkillEnd
PUBLIC	?bFireInit@@3HA					; bFireInit
PUBLIC	?tempPosH@@3HA					; tempPosH
PUBLIC	?tempPosV@@3HA					; tempPosV
PUBLIC	?iBeAttNum@@3HA					; iBeAttNum
PUBLIC	?counter@@3HA					; counter
PUBLIC	?tarpos@@3HA					; tarpos
PUBLIC	?tarMgiDem@@3HA					; tarMgiDem
PUBLIC	?att_select_flg@@3DA				; att_select_flg
PUBLIC	?crs_change_tbl@@3PAEA				; crs_change_tbl
PUBLIC	?crs_change_tbl2@@3PAEA				; crs_change_tbl2
PUBLIC	?crs_bound_tbl@@3PAY0CA@EA			; crs_bound_tbl
PUBLIC	?g_iRunEarthQuake@@3HA				; g_iRunEarthQuake
PUBLIC	?g_iCurRunEarthQuake@@3HA			; g_iCurRunEarthQuake
PUBLIC	?g_iNumRunEarthQuake@@3HA			; g_iNumRunEarthQuake
PUBLIC	?boundary_2@@3PAUaction@@A			; boundary_2
PUBLIC	?boundary_mark@@3PAPAUaction@@A			; boundary_mark
PUBLIC	?boomerang_pos_tbl@@3PAHA			; boomerang_pos_tbl
PUBLIC	?boomerang_pos_tbl2@@3PAHA			; boomerang_pos_tbl2
PUBLIC	?boomerang_pos_tbl3a@@3PAHA			; boomerang_pos_tbl3a
PUBLIC	?boomerang_pos_tbl4a@@3PAHA			; boomerang_pos_tbl4a
PUBLIC	?boomerang_pos_tbl3b@@3PAHA			; boomerang_pos_tbl3b
PUBLIC	?boomerang_pos_tbl4b@@3PAHA			; boomerang_pos_tbl4b
_BSS	SEGMENT
?StarLoop@@3FA DW 01H DUP (?)				; StarLoop
	ALIGN	4

?FireSkillEnd@@3HA DD 01H DUP (?)			; FireSkillEnd
?bFireInit@@3HA DD 01H DUP (?)				; bFireInit
?tempPosH@@3HA DD 01H DUP (?)				; tempPosH
?tempPosV@@3HA DD 01H DUP (?)				; tempPosV
?counter@@3HA DD 01H DUP (?)				; counter
?tarMgiDem@@3HA DD 01H DUP (?)				; tarMgiDem
?att_select_flg@@3DA DB 01H DUP (?)			; att_select_flg
	ALIGN	4

?g_iRunEarthQuake@@3HA DD 01H DUP (?)			; g_iRunEarthQuake
?g_iCurRunEarthQuake@@3HA DD 01H DUP (?)		; g_iCurRunEarthQuake
?g_iNumRunEarthQuake@@3HA DD 01H DUP (?)		; g_iNumRunEarthQuake
?boundary_2@@3PAUaction@@A DD 01H DUP (?)		; boundary_2
?boundary_mark@@3PAPAUaction@@A DD 02H DUP (?)		; boundary_mark
_BSS	ENDS
_DATA	SEGMENT
?ShooterNum@@3HA DD 0ffffffffH				; ShooterNum
?AttPreMagicNum@@3HA DD 0ffffffffH			; AttPreMagicNum
?AttNextMagicNum@@3HA DD 0ffffffffH			; AttNextMagicNum
?NoMiss@@3FA DW	0ffffH					; NoMiss
	ORG $+2
?BeAttNum@@3HA DD 0ffffffffH				; BeAttNum
?iBeAttNum@@3HA DD 0ffffffffH				; iBeAttNum
?tarpos@@3HA DD	0ffffffffH				; tarpos
?crs_change_tbl@@3PAEA DB 04H				; crs_change_tbl
	DB	04H
	DB	05H
	DB	05H
	DB	05H
	DB	05H
	DB	06H
	DB	06H
	DB	06H
	DB	06H
	DB	07H
	DB	07H
	DB	07H
	DB	07H
	DB	00H
	DB	00H
	DB	00H
	DB	00H
	DB	01H
	DB	01H
	DB	01H
	DB	01H
	DB	02H
	DB	02H
	DB	02H
	DB	02H
	DB	03H
	DB	03H
	DB	03H
	DB	03H
	DB	04H
	DB	04H
?crs_change_tbl2@@3PAEA DB 010H				; crs_change_tbl2
	DB	014H
	DB	018H
	DB	01cH
	DB	00H
	DB	04H
	DB	08H
	DB	0cH
	ORG $+4
?crs_bound_tbl@@3PAY0CA@EA DB 010H			; crs_bound_tbl
	DB	0fH
	DB	0eH
	DB	0dH
	DB	0cH
	DB	0bH
	DB	0aH
	DB	09H
	DB	00H
	DB	00H
	DB	00H
	DB	00H
	DB	00H
	DB	00H
	DB	00H
	DB	00H
	DB	00H
	DB	00H
	DB	00H
	DB	00H
	DB	00H
	DB	00H
	DB	00H
	DB	00H
	DB	00H
	DB	017H
	DB	016H
	DB	015H
	DB	014H
	DB	013H
	DB	012H
	DB	011H
	DB	00H
	DB	01fH
	DB	01eH
	DB	01dH
	DB	01cH
	DB	01bH
	DB	01aH
	DB	019H
	DB	018H
	DB	017H
	DB	016H
	DB	015H
	DB	014H
	DB	013H
	DB	012H
	DB	011H
	DB	00H
	DB	00H
	DB	00H
	DB	00H
	DB	00H
	DB	00H
	DB	00H
	DB	00H
	DB	00H
	DB	00H
	DB	00H
	DB	00H
	DB	00H
	DB	00H
	DB	00H
	DB	00H
	DB	00H
	DB	00H
	DB	00H
	DB	00H
	DB	00H
	DB	00H
	DB	00H
	DB	00H
	DB	00H
	DB	07H
	DB	06H
	DB	05H
	DB	04H
	DB	03H
	DB	02H
	DB	01H
	DB	00H
	DB	01fH
	DB	01eH
	DB	01dH
	DB	01cH
	DB	01bH
	DB	01aH
	DB	019H
	DB	00H
	DB	00H
	DB	00H
	DB	00H
	DB	00H
	DB	00H
	DB	00H
	DB	00H
	DB	00H
	DB	00H
	DB	00H
	DB	00H
	DB	00H
	DB	00H
	DB	00H
	DB	00H
	DB	00H
	DB	00H
	DB	00H
	DB	00H
	DB	00H
	DB	00H
	DB	00H
	DB	00H
	DB	00H
	DB	0fH
	DB	0eH
	DB	0dH
	DB	0cH
	DB	0bH
	DB	0aH
	DB	09H
	DB	08H
	DB	07H
	DB	06H
	DB	05H
	DB	04H
	DB	03H
	DB	02H
	DB	01H
?boomerang_pos_tbl@@3PAHA DD 0320H			; boomerang_pos_tbl
	DD	0140H
	DD	02eeH
	DD	0dcH
	DD	0186H
	DD	06aH
	DD	0214H
	DD	0aaH
?boomerang_pos_tbl2@@3PAHA DD 02eeH			; boomerang_pos_tbl2
	DD	0118H
	DD	02bcH
	DD	0b4H
	DD	0154H
	DD	032H
	DD	01beH
	DD	064H
?boomerang_pos_tbl3a@@3PAHA DD 0104H			; boomerang_pos_tbl3a
	DD	01a4H
	DD	064H
	DD	014aH
	DD	0ffffffa0H
	DD	0a0H
	DD	0ffffff6eH
	DD	0104H
?boomerang_pos_tbl4a@@3PAHA DD 0154H			; boomerang_pos_tbl4a
	DD	01c2H
	DD	0b4H
	DD	0190H
	DD	0ffffff6eH
	DD	0c8H
	DD	0ffffff3cH
	DD	012cH
?boomerang_pos_tbl3b@@3PAHA DD 0c4H			; boomerang_pos_tbl3b
	DD	01a4H
	DD	044H
	DD	016aH
	DD	0ffffffa0H
	DD	0a0H
	DD	0ffffff6eH
	DD	0104H
?boomerang_pos_tbl4b@@3PAHA DD 0154H			; boomerang_pos_tbl4b
	DD	01c2H
	DD	0b4H
	DD	01d0H
	DD	0ffffff6eH
	DD	0c8H
	DD	0ffffff3cH
	DD	012cH
_DATA	ENDS
PUBLIC	___local_stdio_printf_options
PUBLIC	?petfallChangeGraph@@YAXPAUaction@@@Z		; petfallChangeGraph
PUBLIC	?petrideChangeGraph@@YAXPAUaction@@H@Z		; petrideChangeGraph
PUBLIC	?LogToBattleError@@YAXPADH@Z			; LogToBattleError
PUBLIC	?katino@@YAXPAUaction@@@Z			; katino
PUBLIC	?oft_test@@YAPAUaction@@XZ			; oft_test
PUBLIC	?monster@@YAXPAUaction@@@Z			; monster
PUBLIC	?DisplayAttackEffect@@YAXPAUaction@@@Z		; DisplayAttackEffect
PUBLIC	?SetDisplayAttackEffect@@YAXPAUaction@@H@Z	; SetDisplayAttackEffect
PUBLIC	?kakushi_command@@YAXXZ				; kakushi_command
PUBLIC	?damage_num@@YAXPAUaction@@@Z			; damage_num
PUBLIC	??$sprintf_s@$0BAA@@@YAHAAY0BAA@DPBDZZ		; sprintf_s<256>
PUBLIC	?set_damage_num@@YAXPAUaction@@HH@Z		; set_damage_num
PUBLIC	?play_damage@@YAXHH@Z				; play_damage
PUBLIC	?disp_kanji@@YAXPAUaction@@@Z			; disp_kanji
PUBLIC	?magic_effect@@YAXPAUaction@@@Z			; magic_effect
PUBLIC	?hit_mark_critical@@YAXPAUaction@@@Z		; hit_mark_critical
PUBLIC	?hit_mark@@YAXPAUaction@@@Z			; hit_mark
PUBLIC	?set_hit_mark@@YAXPAUaction@@@Z			; set_hit_mark
PUBLIC	?disp_guard_mark@@YAXPAUaction@@@Z		; disp_guard_mark
PUBLIC	?set_guard_mark@@YAXPAUaction@@@Z		; set_guard_mark
PUBLIC	?set_jujutsu_hit_mark@@YAXPAUaction@@@Z		; set_jujutsu_hit_mark
PUBLIC	?piyo_loop@@YAXPAUaction@@@Z			; piyo_loop
PUBLIC	?set_piyo_loop@@YAXPAUaction@@@Z		; set_piyo_loop
PUBLIC	?÷ëÛ¯ÎÃ?@@YAXPAUaction@@@Z			; ÷ëÛ¯ÎÃ?
PUBLIC	?set_ÎÃ?@@YAXHPAUaction@@@Z			; set_ÎÃ?
PUBLIC	?set_single_jujutsu@@YAXHPAUaction@@@Z		; set_single_jujutsu
PUBLIC	?attrib_reverse@@YAXPAUaction@@@Z		; attrib_reverse
PUBLIC	?set_attrib_reverse@@YAXPAUaction@@@Z		; set_attrib_reverse
PUBLIC	?boomerang@@YAXPAUaction@@@Z			; boomerang
PUBLIC	?stick_bow@@YAXPAUaction@@@Z			; stick_bow
PUBLIC	?shoot@@YAXPAUaction@@@Z			; shoot
PUBLIC	?bow@@YAXPAUaction@@@Z				; bow
PUBLIC	?axe@@YAXPAUaction@@@Z				; axe
PUBLIC	?fireHunter@@YAXPAUaction@@@Z			; fireHunter
PUBLIC	?axe_shadow@@YAXPAUaction@@@Z			; axe_shadow
PUBLIC	?stone@@YAXPAUaction@@@Z			; stone
PUBLIC	?stone_shadow@@YAXPAUaction@@@Z			; stone_shadow
PUBLIC	?firecracker_shadow@@YAXPAUaction@@@Z		; firecracker_shadow
PUBLIC	?missile@@YAXPAUaction@@@Z			; missile
PUBLIC	?amelioration@@YAXPAUaction@@@Z			; amelioration
PUBLIC	?sort_chr@@YAHPAUSORT_CHR_EQU@@0@Z		; sort_chr
PUBLIC	?set_raster_pos@@YAXPAUaction@@@Z		; set_raster_pos
PUBLIC	?get_name@@YAXPAUaction@@@Z			; get_name
PUBLIC	?check_all_dead@@YAHXZ				; check_all_dead
PUBLIC	?disp_attrib@@YAXPAUaction@@@Z			; disp_attrib
PUBLIC	?get_command_asc@@YAXXZ				; get_command_asc
PUBLIC	?RunTimeMagicToCall@@YAHXZ			; RunTimeMagicToCall
PUBLIC	?master@@YAXPAUaction@@@Z			; master
PUBLIC	?get_bc_num@@YAHXZ				; get_bc_num
PUBLIC	?get_bc_asc@@YAXPAUaction@@H@Z			; get_bc_asc
PUBLIC	?get_bc_asc_ridepet@@YAXPAUaction@@@Z		; get_bc_asc_ridepet
PUBLIC	?set_party_ÎÃ?@@YAXXZ				; set_party_ÎÃ?
PUBLIC	?set_bc@@YAXXZ					; set_bc
PUBLIC	?disp_shild@@YAXXZ				; disp_shild
PUBLIC	?_OptionsStorage@?1??__local_stdio_printf_options@@9@4_KA ; `__local_stdio_printf_options'::`2'::_OptionsStorage
PUBLIC	??_C@_04INDFNAKP@Miss@				; `string'
PUBLIC	??_C@_07IKJEKJLO@Counter@			; `string'
PUBLIC	??_C@_05LICMIJMM@Guard@				; `string'
PUBLIC	??_C@_07EGAJKHF@Capture@			; `string'
PUBLIC	??_C@_02DPKJAMEF@?$CFd@				; `string'
PUBLIC	??_C@_07PBILKAFL@Success@			; `string'
PUBLIC	??_C@_04ODLKOBGJ@Fail@				; `string'
PUBLIC	??_C@_06OIGFGPHJ@Escape@			; `string'
PUBLIC	??_C@_05NHFMPFPE@Come?$CB@			; `string'
PUBLIC	??_C@_03BHGMNJJJ@Go?$CB@			; `string'
PUBLIC	??_C@_0M@DBACIDCK@Guard?5break@			; `string'
PUBLIC	??_C@_06MCJJLJDN@Danger@			; `string'
PUBLIC	??_C@_05KMBJHHBA@Leave@				; `string'
PUBLIC	??_C@_02JINPPBEP@No@				; `string'
PUBLIC	??_C@_04EMFHMJHP@Roar@				; `string'
PUBLIC	??_C@_0M@NHOFEJMF@SelfExplode@			; `string'
PUBLIC	??_C@_03GLKEJMAA@?$CF4d@			; `string'
PUBLIC	??_C@_04FEPFCGFN@?$NP?$LO?c?$KO@		; `string'
PUBLIC	??_C@_04HKBLFKAB@?y?$LL?K?$LN@			; `string'
PUBLIC	??_C@_07OJGJELHN@?$PM?$NO?y?$KN?5?$CFs@		; `string'
PUBLIC	??_C@_09GEAOALJ@?M?t?5?$CFs?$CFd?$KD?$KF@	; `string'
PUBLIC	??_C@_09EIFGJEIL@?$NL?A?5?$CFs?$CFd?$KD?$KF@	; `string'
PUBLIC	??_C@_09JOBJMDHA@?Z?B?5?$CFs?$CFd?$KD?$KF@	; `string'
PUBLIC	??_C@_09IIPGOBOB@LightTake@			; `string'
PUBLIC	??_C@_0L@EGPLNANN@?$DP?$NP?H?y?w?$OA?u?$PM?$NO?$DP@ ; `string'
PUBLIC	??_C@_0P@MLDKCEHF@?$DP?$NP?H?y?w?$OA?u?5?$CFs?$CFd?$KD?$KF@ ; `string'
PUBLIC	??_C@_03PEJDBJAE@?$DP?$NN?$LL@			; `string'
PUBLIC	??_C@_04BOKPGBJO@?i?S?b?$KC@			; `string'
PUBLIC	??_C@_05PHLFPKGG@?q?$KH?$DP?y?$KB@		; `string'
PUBLIC	??_C@_05BEGCDMJP@?i?S?$DP?y?$KB@		; `string'
PUBLIC	??_C@_03PAOHCFLP@?i?$KG?$DP@			; `string'
PUBLIC	??_C@_04KKGCIKBG@?q?$KH?b?$KC@			; `string'
PUBLIC	??_C@_04NMNAOJOJ@?$PL?$LJ?m?$KN@		; `string'
PUBLIC	??_C@_04DKIAPBFG@?b?$KC?w?$NP@			; `string'
PUBLIC	??_C@_09MFDBOBKF@?$DP?y?$LL?5?$CFs?5?$DP?$DP@	; `string'
PUBLIC	__real@3ff3333333333333
PUBLIC	__real@4034000000000000
PUBLIC	__xmm@00000000000101010101010000000000
PUBLIC	__xmm@00000001010101000001010101000000
PUBLIC	__xmm@00000001010101010101010101000000
PUBLIC	__xmm@00000101010100010100010101010000
PUBLIC	__xmm@00000101010101010101010101010000
PUBLIC	__xmm@0000013e00000013000000c600000007
PUBLIC	__xmm@00010101000000000000000001010100
PUBLIC	__xmm@00010101000000010100000001010100
PUBLIC	__xmm@00010101010101010101010101010100
PUBLIC	__xmm@00018da000018d9400018d8e00018d9a
PUBLIC	__xmm@00018da300018d9700018d9100018d9d
PUBLIC	__xmm@00018dd700018dcb00018dc500018dd1
PUBLIC	__xmm@00018dda00018dce00018dc800018dd4
EXTRN	__imp__IsDBCSLeadByte@4:PROC
EXTRN	_qsort:PROC
EXTRN	_atoi:PROC
EXTRN	___stdio_common_vsprintf_s:PROC
EXTRN	?LoadBmp@@YAHH@Z:PROC				; LoadBmp
EXTRN	?split_damage@@YAHPADDPAHI@Z:PROC		; split_damage
EXTRN	?GetAction@@YAPAUaction@@EI@Z:PROC		; GetAction
EXTRN	?DeathAction@@YAXPAUaction@@@Z:PROC		; DeathAction
EXTRN	?Rnd@@YAHHH@Z:PROC				; Rnd
EXTRN	?GetStrWidth@@YAHPAD@Z:PROC			; GetStrWidth
EXTRN	?StockFontBuffer@@YAHHHDHPADH@Z:PROC		; StockFontBuffer
EXTRN	?radar@@YAXPAUaction@@PAH1@Z:PROC		; radar
EXTRN	?radar2@@YAHPAUaction@@HHH@Z:PROC		; radar2
EXTRN	?gemini@@YAXPAUaction@@@Z:PROC			; gemini
EXTRN	?pattern@@YAHPAUaction@@HH@Z:PROC		; pattern
EXTRN	?makeStringFromEscaped@@YAPADPAD@Z:PROC		; makeStringFromEscaped
EXTRN	?play_se@@YAHHHH@Z:PROC				; play_se
EXTRN	?play_bgm@@YAHH@Z:PROC				; play_bgm
EXTRN	?MakeWindowDisp@@YAPAUaction@@HHHHHH@Z:PROC	; MakeWindowDisp
EXTRN	?MakeAnimDisp@@YAPAUaction@@HHHH@Z:PROC		; MakeAnimDisp
EXTRN	?JL_???êÈ@@YAXPAUaction@@@Z:PROC		; JL_???êÈ
EXTRN	@__security_check_cookie@4:PROC
EXTRN	__libm_sse2_sqrt_precise:PROC
EXTRN	_memset:PROC
EXTRN	?DISPLACEMENT_X@@3HA:DWORD			; DISPLACEMENT_X
EXTRN	?DISPLACEMENT_Y@@3HA:DWORD			; DISPLACEMENT_Y
EXTRN	?SpriteInfo@@3PAUSPRITE_INFO@@A:BYTE		; SpriteInfo
EXTRN	?lpDraw@@3PAUDIRECT_DRAW@@A:DWORD		; lpDraw
EXTRN	?ResoMode@@3HA:DWORD				; ResoMode
EXTRN	?LowResoCmdFlag@@3HA:DWORD			; LowResoCmdFlag
EXTRN	?joy_con@@3PAKA:QWORD				; joy_con
EXTRN	?s_timer@@3GA:WORD				; s_timer
EXTRN	?slow_flg@@3HA:DWORD				; slow_flg
EXTRN	?flash_vct_no@@3HA:DWORD			; flash_vct_no
EXTRN	?p_party@@3PAPAUaction@@A:BYTE			; p_party
EXTRN	?action_inf@@3HA:DWORD				; action_inf
EXTRN	?BattleCmd@@3PADA:BYTE				; BattleCmd
EXTRN	?BattleStatus@@3PADA:BYTE			; BattleStatus
EXTRN	?BattleMyNo@@3HA:DWORD				; BattleMyNo
EXTRN	?battlePetNoBak2@@3HA:DWORD			; battlePetNoBak2
EXTRN	?BattleBpFlag@@3HA:DWORD			; BattleBpFlag
EXTRN	?pc@@3UPC@@A:BYTE				; pc
EXTRN	?t_music_bgm_no@@3HA:DWORD			; t_music_bgm_no
EXTRN	?BattleMapNo@@3HA:DWORD				; BattleMapNo
EXTRN	?g_bUseAlpha@@3HA:DWORD				; g_bUseAlpha
EXTRN	?bNewServer@@3HA:DWORD				; bNewServer
EXTRN	?piyo_tbl@@3PAHA:BYTE				; piyo_tbl
EXTRN	?piyo_point@@3HA:DWORD				; piyo_point
EXTRN	?gStrÎÃ?@@3PADA:BYTE				; gStrÎÃ?
EXTRN	___security_cookie:DWORD
EXTRN	__fltused:DWORD
;	COMDAT ?_OptionsStorage@?1??__local_stdio_printf_options@@9@4_KA
_BSS	SEGMENT
?_OptionsStorage@?1??__local_stdio_printf_options@@9@4_KA DQ 01H DUP (?) ; `__local_stdio_printf_options'::`2'::_OptionsStorage
_BSS	ENDS
_BSS	SEGMENT
?command_point@@3HA DD 01H DUP (?)			; command_point
?p_kanji@@3PAUaction@@A DD 01H DUP (?)			; p_kanji
?kanji_buf@@3PAY0IA@DA DB 0200H DUP (?)			; kanji_buf
?p_master@@3PAUaction@@A DD 01H DUP (?)			; p_master
?p_attrib@@3PAUaction@@A DD 01H DUP (?)			; p_attrib
?p_missile@@3PAPAUaction@@A DD 015H DUP (?)		; p_missile
	ALIGN	8

?sort_chr_buf@@3PAUSORT_CHR_EQU@@A DQ 028H DUP (?)	; sort_chr_buf
?monster_start_pos@@3PAHA DD 028H DUP (?)		; monster_start_pos
?monster_place_pos@@3PAHA DD 028H DUP (?)		; monster_place_pos
?AttMgc@@3UATTACK_MAGIC@@A DB 0c8H DUP (?)		; AttMgc
?bRunAttMgc@@3HA DD 01H DUP (?)				; bRunAttMgc
?AttackedInfo@@3PAHA DD 028H DUP (?)			; AttackedInfo
?iAttackedNum@@3HA DD 01H DUP (?)			; iAttackedNum
?iCurAttackedFinishNum@@3HA DD 01H DUP (?)		; iCurAttackedFinishNum
?ToCallMgc@@3UTOCALL_MAGIC@@A DB 0ccH DUP (?)		; ToCallMgc
?bRunToCallMgc@@3HA DD 01H DUP (?)			; bRunToCallMgc
?bRunBoundaryMgc_l@@3HA DD 01H DUP (?)			; bRunBoundaryMgc_l
?bRunBoundaryMgc_r@@3HA DD 01H DUP (?)			; bRunBoundaryMgc_r
_BSS	ENDS
;	COMDAT ?a0tmp@?1??monster@@YAXPAUaction@@@Z@4PAPAU2@A
_BSS	SEGMENT
?a0tmp@?1??monster@@YAXPAUaction@@@Z@4PAPAU2@A DD 0aH DUP (?) ; `monster'::`2'::a0tmp
_BSS	ENDS
;	COMDAT ?a0mark@?1??monster@@YAXPAUaction@@@Z@4PAHA
_BSS	SEGMENT
?a0mark@?1??monster@@YAXPAUaction@@@Z@4PAHA DD 0aH DUP (?) ; `monster'::`2'::a0mark
_BSS	ENDS
;	COMDAT ?a0tmpcount@?1??monster@@YAXPAUaction@@@Z@4HA
_BSS	SEGMENT
?a0tmpcount@?1??monster@@YAXPAUaction@@@Z@4HA DD 01H DUP (?) ; `monster'::`2'::a0tmpcount
_BSS	ENDS
;	COMDAT ?ôøã·ûù@?1??monster@@YAXPAUaction@@@Z@4HA
_BSS	SEGMENT
?ôøã·ûù@?1??monster@@YAXPAUaction@@@Z@4HA DD 01H DUP (?) ; `monster'::`2'::ôøã·ûù
_BSS	ENDS
_BSS	SEGMENT
?bc_pointer@@3HA DD 01H DUP (?)				; bc_pointer
_BSS	ENDS
;	COMDAT __xmm@00018dda00018dce00018dc800018dd4
CONST	SEGMENT
__xmm@00018dda00018dce00018dc800018dd4 DB 0d4H, 08dH, 01H, 00H, 0c8H, 08dH
	DB	01H, 00H, 0ceH, 08dH, 01H, 00H, 0daH, 08dH, 01H, 00H
CONST	ENDS
;	COMDAT __xmm@00018dd700018dcb00018dc500018dd1
CONST	SEGMENT
__xmm@00018dd700018dcb00018dc500018dd1 DB 0d1H, 08dH, 01H, 00H, 0c5H, 08dH
	DB	01H, 00H, 0cbH, 08dH, 01H, 00H, 0d7H, 08dH, 01H, 00H
CONST	ENDS
;	COMDAT __xmm@00018da300018d9700018d9100018d9d
CONST	SEGMENT
__xmm@00018da300018d9700018d9100018d9d DB 09dH, 08dH, 01H, 00H, 091H, 08dH
	DB	01H, 00H, 097H, 08dH, 01H, 00H, 0a3H, 08dH, 01H, 00H
CONST	ENDS
;	COMDAT __xmm@00018da000018d9400018d8e00018d9a
CONST	SEGMENT
__xmm@00018da000018d9400018d8e00018d9a DB 09aH, 08dH, 01H, 00H, 08eH, 08dH
	DB	01H, 00H, 094H, 08dH, 01H, 00H, 0a0H, 08dH, 01H, 00H
CONST	ENDS
;	COMDAT __xmm@00010101010101010101010101010100
CONST	SEGMENT
__xmm@00010101010101010101010101010100 DB 00H, 01H, 01H, 01H, 01H, 01H, 01H
	DB	01H, 01H, 01H, 01H, 01H, 01H, 01H, 01H, 00H
CONST	ENDS
;	COMDAT __xmm@00010101000000010100000001010100
CONST	SEGMENT
__xmm@00010101000000010100000001010100 DB 00H, 01H, 01H, 01H, 00H, 00H, 00H
	DB	01H, 01H, 00H, 00H, 00H, 01H, 01H, 01H, 00H
CONST	ENDS
;	COMDAT __xmm@00010101000000000000000001010100
CONST	SEGMENT
__xmm@00010101000000000000000001010100 DB 00H, 01H, 01H, 01H, 00H, 00H, 00H
	DB	00H, 00H, 00H, 00H, 00H, 01H, 01H, 01H, 00H
CONST	ENDS
;	COMDAT __xmm@0000013e00000013000000c600000007
CONST	SEGMENT
__xmm@0000013e00000013000000c600000007 DB 07H, 00H, 00H, 00H, 0c6H, 00H, 00H
	DB	00H, 013H, 00H, 00H, 00H, '>', 01H, 00H, 00H
CONST	ENDS
;	COMDAT __xmm@00000101010101010101010101010000
CONST	SEGMENT
__xmm@00000101010101010101010101010000 DB 00H, 00H, 01H, 01H, 01H, 01H, 01H
	DB	01H, 01H, 01H, 01H, 01H, 01H, 01H, 00H, 00H
CONST	ENDS
;	COMDAT __xmm@00000101010100010100010101010000
CONST	SEGMENT
__xmm@00000101010100010100010101010000 DB 00H, 00H, 01H, 01H, 01H, 01H, 00H
	DB	01H, 01H, 00H, 01H, 01H, 01H, 01H, 00H, 00H
CONST	ENDS
;	COMDAT __xmm@00000001010101010101010101000000
CONST	SEGMENT
__xmm@00000001010101010101010101000000 DB 00H, 00H, 00H, 01H, 01H, 01H, 01H
	DB	01H, 01H, 01H, 01H, 01H, 01H, 00H, 00H, 00H
CONST	ENDS
;	COMDAT __xmm@00000001010101000001010101000000
CONST	SEGMENT
__xmm@00000001010101000001010101000000 DB 00H, 00H, 00H, 01H, 01H, 01H, 01H
	DB	00H, 00H, 01H, 01H, 01H, 01H, 00H, 00H, 00H
CONST	ENDS
;	COMDAT __xmm@00000000000101010101010000000000
CONST	SEGMENT
__xmm@00000000000101010101010000000000 DB 00H, 00H, 00H, 00H, 00H, 01H, 01H
	DB	01H, 01H, 01H, 01H, 00H, 00H, 00H, 00H, 00H
CONST	ENDS
;	COMDAT __real@4034000000000000
CONST	SEGMENT
__real@4034000000000000 DQ 04034000000000000r	; 20
CONST	ENDS
;	COMDAT __real@3ff3333333333333
CONST	SEGMENT
__real@3ff3333333333333 DQ 03ff3333333333333r	; 1.2
CONST	ENDS
;	COMDAT ??_C@_09MFDBOBKF@?$DP?y?$LL?5?$CFs?5?$DP?$DP@
CONST	SEGMENT
??_C@_09MFDBOBKF@?$DP?y?$LL?5?$CFs?5?$DP?$DP@ DB '?', 0f9H, 0bbH, ' %s ??'
	DB	00H						; `string'
CONST	ENDS
;	COMDAT ??_C@_04DKIAPBFG@?b?$KC?w?$NP@
CONST	SEGMENT
??_C@_04DKIAPBFG@?b?$KC?w?$NP@ DB 0e2H, 0a2H, 0f7H, 0dfH, 00H ; `string'
CONST	ENDS
;	COMDAT ??_C@_04NMNAOJOJ@?$PL?$LJ?m?$KN@
CONST	SEGMENT
??_C@_04NMNAOJOJ@?$PL?$LJ?m?$KN@ DB 0fbH, 0b9H, 0edH, 0adH, 00H ; `string'
CONST	ENDS
;	COMDAT ??_C@_04KKGCIKBG@?q?$KH?b?$KC@
CONST	SEGMENT
??_C@_04KKGCIKBG@?q?$KH?b?$KC@ DB 0f1H, 0a7H, 0e2H, 0a2H, 00H ; `string'
CONST	ENDS
;	COMDAT ??_C@_03PAOHCFLP@?i?$KG?$DP@
CONST	SEGMENT
??_C@_03PAOHCFLP@?i?$KG?$DP@ DB 0e9H, 0a6H, '?', 00H	; `string'
CONST	ENDS
;	COMDAT ??_C@_05BEGCDMJP@?i?S?$DP?y?$KB@
CONST	SEGMENT
??_C@_05BEGCDMJP@?i?S?$DP?y?$KB@ DB 0e9H, 0d3H, '?', 0f9H, 0a1H, 00H ; `string'
CONST	ENDS
;	COMDAT ??_C@_05PHLFPKGG@?q?$KH?$DP?y?$KB@
CONST	SEGMENT
??_C@_05PHLFPKGG@?q?$KH?$DP?y?$KB@ DB 0f1H, 0a7H, '?', 0f9H, 0a1H, 00H ; `string'
CONST	ENDS
;	COMDAT ??_C@_04BOKPGBJO@?i?S?b?$KC@
CONST	SEGMENT
??_C@_04BOKPGBJO@?i?S?b?$KC@ DB 0e9H, 0d3H, 0e2H, 0a2H, 00H ; `string'
CONST	ENDS
;	COMDAT ??_C@_03PEJDBJAE@?$DP?$NN?$LL@
CONST	SEGMENT
??_C@_03PEJDBJAE@?$DP?$NN?$LL@ DB '?', 0ddH, 0bbH, 00H	; `string'
CONST	ENDS
;	COMDAT ??_C@_0P@MLDKCEHF@?$DP?$NP?H?y?w?$OA?u?5?$CFs?$CFd?$KD?$KF@
CONST	SEGMENT
??_C@_0P@MLDKCEHF@?$DP?$NP?H?y?w?$OA?u?5?$CFs?$CFd?$KD?$KF@ DB '?', 0dfH, 0c8H
	DB	0f9H, 0f7H, 0e0H, 0f5H, ' %s%d', 0a3H, 0a5H, 00H ; `string'
CONST	ENDS
;	COMDAT ??_C@_0L@EGPLNANN@?$DP?$NP?H?y?w?$OA?u?$PM?$NO?$DP@
CONST	SEGMENT
??_C@_0L@EGPLNANN@?$DP?$NP?H?y?w?$OA?u?$PM?$NO?$DP@ DB '?', 0dfH, 0c8H, 0f9H
	DB	0f7H, 0e0H, 0f5H, 0fcH, 0deH, '?', 00H	; `string'
CONST	ENDS
;	COMDAT ??_C@_09IIPGOBOB@LightTake@
CONST	SEGMENT
??_C@_09IIPGOBOB@LightTake@ DB 'LightTake', 00H		; `string'
CONST	ENDS
;	COMDAT ??_C@_09JOBJMDHA@?Z?B?5?$CFs?$CFd?$KD?$KF@
CONST	SEGMENT
??_C@_09JOBJMDHA@?Z?B?5?$CFs?$CFd?$KD?$KF@ DB 0daH, 0c2H, ' %s%d', 0a3H, 0a5H
	DB	00H						; `string'
CONST	ENDS
;	COMDAT ??_C@_09EIFGJEIL@?$NL?A?5?$CFs?$CFd?$KD?$KF@
CONST	SEGMENT
??_C@_09EIFGJEIL@?$NL?A?5?$CFs?$CFd?$KD?$KF@ DB 0dbH, 0c1H, ' %s%d', 0a3H
	DB	0a5H, 00H					; `string'
CONST	ENDS
;	COMDAT ??_C@_09GEAOALJ@?M?t?5?$CFs?$CFd?$KD?$KF@
CONST	SEGMENT
??_C@_09GEAOALJ@?M?t?5?$CFs?$CFd?$KD?$KF@ DB 0cdH, 0f4H, ' %s%d', 0a3H, 0a5H
	DB	00H						; `string'
CONST	ENDS
;	COMDAT ??_C@_07OJGJELHN@?$PM?$NO?y?$KN?5?$CFs@
CONST	SEGMENT
??_C@_07OJGJELHN@?$PM?$NO?y?$KN?5?$CFs@ DB 0fcH, 0deH, 0f9H, 0adH, ' %s', 00H ; `string'
CONST	ENDS
;	COMDAT ??_C@_04HKBLFKAB@?y?$LL?K?$LN@
CONST	SEGMENT
??_C@_04HKBLFKAB@?y?$LL?K?$LN@ DB 0f9H, 0bbH, 0cbH, 0bdH, 00H ; `string'
CONST	ENDS
;	COMDAT ??_C@_04FEPFCGFN@?$NP?$LO?c?$KO@
CONST	SEGMENT
??_C@_04FEPFCGFN@?$NP?$LO?c?$KO@ DB 0dfH, 0beH, 0e3H, 0aeH, 00H ; `string'
CONST	ENDS
;	COMDAT ??_C@_03GLKEJMAA@?$CF4d@
CONST	SEGMENT
??_C@_03GLKEJMAA@?$CF4d@ DB '%4d', 00H			; `string'
CONST	ENDS
;	COMDAT ??_C@_0M@NHOFEJMF@SelfExplode@
CONST	SEGMENT
??_C@_0M@NHOFEJMF@SelfExplode@ DB 'SelfExplode', 00H	; `string'
CONST	ENDS
;	COMDAT ??_C@_04EMFHMJHP@Roar@
CONST	SEGMENT
??_C@_04EMFHMJHP@Roar@ DB 'Roar', 00H			; `string'
CONST	ENDS
;	COMDAT ??_C@_02JINPPBEP@No@
CONST	SEGMENT
??_C@_02JINPPBEP@No@ DB 'No', 00H			; `string'
CONST	ENDS
;	COMDAT ??_C@_05KMBJHHBA@Leave@
CONST	SEGMENT
??_C@_05KMBJHHBA@Leave@ DB 'Leave', 00H			; `string'
CONST	ENDS
;	COMDAT ??_C@_06MCJJLJDN@Danger@
CONST	SEGMENT
??_C@_06MCJJLJDN@Danger@ DB 'Danger', 00H		; `string'
CONST	ENDS
;	COMDAT ??_C@_0M@DBACIDCK@Guard?5break@
CONST	SEGMENT
??_C@_0M@DBACIDCK@Guard?5break@ DB 'Guard break', 00H	; `string'
CONST	ENDS
;	COMDAT ??_C@_03BHGMNJJJ@Go?$CB@
CONST	SEGMENT
??_C@_03BHGMNJJJ@Go?$CB@ DB 'Go!', 00H			; `string'
CONST	ENDS
;	COMDAT ??_C@_05NHFMPFPE@Come?$CB@
CONST	SEGMENT
??_C@_05NHFMPFPE@Come?$CB@ DB 'Come!', 00H		; `string'
CONST	ENDS
;	COMDAT ??_C@_06OIGFGPHJ@Escape@
CONST	SEGMENT
??_C@_06OIGFGPHJ@Escape@ DB 'Escape', 00H		; `string'
CONST	ENDS
;	COMDAT ??_C@_04ODLKOBGJ@Fail@
CONST	SEGMENT
??_C@_04ODLKOBGJ@Fail@ DB 'Fail', 00H			; `string'
CONST	ENDS
;	COMDAT ??_C@_07PBILKAFL@Success@
CONST	SEGMENT
??_C@_07PBILKAFL@Success@ DB 'Success', 00H		; `string'
CONST	ENDS
;	COMDAT ??_C@_02DPKJAMEF@?$CFd@
CONST	SEGMENT
??_C@_02DPKJAMEF@?$CFd@ DB '%d', 00H			; `string'
CONST	ENDS
;	COMDAT ??_C@_07EGAJKHF@Capture@
CONST	SEGMENT
??_C@_07EGAJKHF@Capture@ DB 'Capture', 00H		; `string'
CONST	ENDS
;	COMDAT ??_C@_05LICMIJMM@Guard@
CONST	SEGMENT
??_C@_05LICMIJMM@Guard@ DB 'Guard', 00H			; `string'
CONST	ENDS
;	COMDAT ??_C@_07IKJEKJLO@Counter@
CONST	SEGMENT
??_C@_07IKJEKJLO@Counter@ DB 'Counter', 00H		; `string'
CONST	ENDS
;	COMDAT ??_C@_04INDFNAKP@Miss@
CONST	SEGMENT
??_C@_04INDFNAKP@Miss@ DB 'Miss', 00H			; `string'
CONST	ENDS
_DATA	SEGMENT
?ridePetTable@@3PAUtagRidePetTable@@A DD 018a88H	; ridePetTable
	DD	0186a0H
	DD	018800H
	DD	00H
	DD	018a89H
	DD	0186a5H
	DD	018800H
	DD	00H
	DD	018a8aH
	DD	0186aaH
	DD	018800H
	DD	00H
	DD	018a8bH
	DD	0186afH
	DD	018800H
	DD	00H
	DD	018a8cH
	DD	0186a0H
	DD	0187e9H
	DD	00H
	DD	018a8dH
	DD	0186a5H
	DD	0187e7H
	DD	00H
	DD	018a8eH
	DD	0186aaH
	DD	0187eaH
	DD	00H
	DD	018a8fH
	DD	0186afH
	DD	0187e8H
	DD	00H
	DD	018a90H
	DD	01895cH
	DD	018814H
	DD	00H
	DD	018a91H
	DD	018961H
	DD	018815H
	DD	00H
	DD	018e65H
	DD	018961H
	DD	018cc8H
	DD	00H
	DD	018e5aH
	DD	018961H
	DD	018c9cH
	DD	00H
	DD	018a92H
	DD	0186b4H
	DD	01882cH
	DD	00H
	DD	018a93H
	DD	0186b9H
	DD	01882cH
	DD	00H
	DD	018a94H
	DD	0186beH
	DD	01882cH
	DD	00H
	DD	018a95H
	DD	0186c3H
	DD	01882cH
	DD	00H
	DD	018a96H
	DD	0186b4H
	DD	0187e8H
	DD	00H
	DD	018a97H
	DD	0186b9H
	DD	0187e9H
	DD	00H
	DD	018a98H
	DD	0186beH
	DD	0187e7H
	DD	00H
	DD	018a99H
	DD	0186c3H
	DD	0187eaH
	DD	00H
	DD	018a9aH
	DD	018966H
	DD	018814H
	DD	00H
	DD	018a9bH
	DD	01896bH
	DD	018815H
	DD	00H
	DD	018e64H
	DD	01896bH
	DD	018cc8H
	DD	00H
	DD	018e62H
	DD	01896bH
	DD	018c9cH
	DD	00H
	DD	018a9cH
	DD	0186c8H
	DD	0187ffH
	DD	00H
	DD	018a9dH
	DD	0186cdH
	DD	0187ffH
	DD	00H
	DD	018a9eH
	DD	0186d2H
	DD	0187ffH
	DD	00H
	DD	018a9fH
	DD	0186d7H
	DD	0187ffH
	DD	00H
	DD	018aa0H
	DD	0186c8H
	DD	0187e8H
	DD	00H
	DD	018aa1H
	DD	0186cdH
	DD	0187eaH
	DD	00H
	DD	018aa2H
	DD	0186d2H
	DD	0187e7H
	DD	00H
	DD	018aa3H
	DD	0186d7H
	DD	0187e9H
	DD	00H
	DD	018aa4H
	DD	018970H
	DD	018814H
	DD	00H
	DD	018aa5H
	DD	018975H
	DD	018815H
	DD	00H
	DD	018e4dH
	DD	018975H
	DD	018cc8H
	DD	00H
	DD	018e57H
	DD	018975H
	DD	018c9cH
	DD	00H
	DD	018aa6H
	DD	0186dcH
	DD	018801H
	DD	00H
	DD	018aa7H
	DD	0186e1H
	DD	018801H
	DD	00H
	DD	018aa8H
	DD	0186e6H
	DD	018801H
	DD	00H
	DD	018aa9H
	DD	0186ebH
	DD	018801H
	DD	00H
	DD	018aaaH
	DD	0186dcH
	DD	0187e9H
	DD	00H
	DD	018aabH
	DD	0186e1H
	DD	0187e7H
	DD	00H
	DD	018aacH
	DD	0186e6H
	DD	0187eaH
	DD	00H
	DD	018aadH
	DD	0186ebH
	DD	0187e8H
	DD	00H
	DD	018aaeH
	DD	01897aH
	DD	018814H
	DD	00H
	DD	018aafH
	DD	01897fH
	DD	018815H
	DD	00H
	DD	018e4eH
	DD	01897fH
	DD	018cc8H
	DD	00H
	DD	018e58H
	DD	01897fH
	DD	018c9cH
	DD	00H
	DD	018ab0H
	DD	0186f0H
	DD	01882cH
	DD	00H
	DD	018ab1H
	DD	0186f5H
	DD	01882cH
	DD	00H
	DD	018ab2H
	DD	0186faH
	DD	01882cH
	DD	00H
	DD	018ab3H
	DD	0186ffH
	DD	01882cH
	DD	00H
	DD	018ab4H
	DD	0186f0H
	DD	0187e8H
	DD	00H
	DD	018ab5H
	DD	0186f5H
	DD	0187e7H
	DD	00H
	DD	018ab6H
	DD	0186faH
	DD	0187eaH
	DD	00H
	DD	018ab7H
	DD	0186ffH
	DD	0187e9H
	DD	00H
	DD	018ab8H
	DD	018984H
	DD	018814H
	DD	00H
	DD	018ab9H
	DD	018989H
	DD	018815H
	DD	00H
	DD	018e55H
	DD	018989H
	DD	018cc8H
	DD	00H
	DD	018e60H
	DD	018989H
	DD	018c9cH
	DD	00H
	DD	018abaH
	DD	018704H
	DD	018801H
	DD	00H
	DD	018abbH
	DD	018709H
	DD	018801H
	DD	00H
	DD	018abcH
	DD	01870eH
	DD	018801H
	DD	00H
	DD	018abdH
	DD	018713H
	DD	018801H
	DD	00H
	DD	018abeH
	DD	018704H
	DD	0187e9H
	DD	00H
	DD	018abfH
	DD	018709H
	DD	0187e8H
	DD	00H
	DD	018ac0H
	DD	01870eH
	DD	0187eaH
	DD	00H
	DD	018ac1H
	DD	018713H
	DD	0187e7H
	DD	00H
	DD	018ac2H
	DD	01898eH
	DD	018814H
	DD	00H
	DD	018ac3H
	DD	018993H
	DD	018815H
	DD	00H
	DD	018e56H
	DD	018993H
	DD	018cc8H
	DD	00H
	DD	018e61H
	DD	018993H
	DD	018c9cH
	DD	00H
	DD	018ac4H
	DD	018718H
	DD	018802H
	DD	00H
	DD	018ac5H
	DD	01871dH
	DD	018802H
	DD	00H
	DD	018ac6H
	DD	018722H
	DD	018802H
	DD	00H
	DD	018ac7H
	DD	018727H
	DD	018802H
	DD	00H
	DD	018ac8H
	DD	018718H
	DD	0187e7H
	DD	00H
	DD	018ac9H
	DD	01871dH
	DD	0187eaH
	DD	00H
	DD	018acaH
	DD	018722H
	DD	0187e8H
	DD	00H
	DD	018acbH
	DD	018727H
	DD	0187e9H
	DD	00H
	DD	018accH
	DD	018998H
	DD	018814H
	DD	00H
	DD	018acdH
	DD	01899dH
	DD	018815H
	DD	00H
	DD	018e4fH
	DD	01899dH
	DD	018cc8H
	DD	00H
	DD	018e59H
	DD	01899dH
	DD	018c9cH
	DD	00H
	DD	018aceH
	DD	01872cH
	DD	018802H
	DD	00H
	DD	018acfH
	DD	018731H
	DD	018802H
	DD	00H
	DD	018ad0H
	DD	018736H
	DD	018802H
	DD	00H
	DD	018ad1H
	DD	01873bH
	DD	018802H
	DD	00H
	DD	018ad2H
	DD	01872cH
	DD	0187e7H
	DD	00H
	DD	018ad3H
	DD	018731H
	DD	0187e9H
	DD	00H
	DD	018ad4H
	DD	018736H
	DD	0187eaH
	DD	00H
	DD	018ad5H
	DD	01873bH
	DD	0187e8H
	DD	00H
	DD	018ad6H
	DD	0189a2H
	DD	018814H
	DD	00H
	DD	018ad7H
	DD	0189a7H
	DD	018815H
	DD	00H
	DD	018e50H
	DD	0189a7H
	DD	018cc8H
	DD	00H
	DD	018e5bH
	DD	0189a7H
	DD	018c9cH
	DD	00H
	DD	018ad8H
	DD	018740H
	DD	018800H
	DD	00H
	DD	018ad9H
	DD	018745H
	DD	018800H
	DD	00H
	DD	018adaH
	DD	01874aH
	DD	018800H
	DD	00H
	DD	018adbH
	DD	01874fH
	DD	018800H
	DD	00H
	DD	018adcH
	DD	018740H
	DD	0187eaH
	DD	00H
	DD	018addH
	DD	018745H
	DD	0187e9H
	DD	00H
	DD	018adeH
	DD	01874aH
	DD	0187e7H
	DD	00H
	DD	018adfH
	DD	01874fH
	DD	0187e8H
	DD	00H
	DD	018ae0H
	DD	0189acH
	DD	018814H
	DD	00H
	DD	018ae1H
	DD	0189b1H
	DD	018815H
	DD	00H
	DD	018e52H
	DD	0189b1H
	DD	018cc8H
	DD	00H
	DD	018e5dH
	DD	0189b1H
	DD	018c9cH
	DD	00H
	DD	018ae2H
	DD	018754H
	DD	0187ffH
	DD	00H
	DD	018ae3H
	DD	018759H
	DD	0187ffH
	DD	00H
	DD	018ae4H
	DD	01875eH
	DD	0187ffH
	DD	00H
	DD	018ae5H
	DD	018763H
	DD	0187ffH
	DD	00H
	DD	018ae6H
	DD	018754H
	DD	0187e8H
	DD	00H
	DD	018ae7H
	DD	018759H
	DD	0187eaH
	DD	00H
	DD	018ae8H
	DD	01875eH
	DD	0187e9H
	DD	00H
	DD	018ae9H
	DD	018763H
	DD	0187e7H
	DD	00H
	DD	018aeaH
	DD	0189b6H
	DD	018814H
	DD	00H
	DD	018aebH
	DD	0189bbH
	DD	018815H
	DD	00H
	DD	018e51H
	DD	0189bbH
	DD	018cc8H
	DD	00H
	DD	018e5cH
	DD	0189bbH
	DD	018c9cH
	DD	00H
	DD	018aecH
	DD	018768H
	DD	018801H
	DD	00H
	DD	018aedH
	DD	01876dH
	DD	018801H
	DD	00H
	DD	018aeeH
	DD	018772H
	DD	018801H
	DD	00H
	DD	018aefH
	DD	018777H
	DD	018801H
	DD	00H
	DD	018af0H
	DD	018768H
	DD	0187e9H
	DD	00H
	DD	018af1H
	DD	01876dH
	DD	0187e8H
	DD	00H
	DD	018af2H
	DD	018772H
	DD	0187e7H
	DD	00H
	DD	018af3H
	DD	018777H
	DD	0187eaH
	DD	00H
	DD	018af4H
	DD	0189c0H
	DD	018814H
	DD	00H
	DD	018af5H
	DD	0189c5H
	DD	018815H
	DD	00H
	DD	018e54H
	DD	0189c5H
	DD	018cc8H
	DD	00H
	DD	018e5fH
	DD	0189c5H
	DD	018c9cH
	DD	00H
	DD	018af6H
	DD	01877cH
	DD	01882cH
	DD	00H
	DD	018af7H
	DD	018781H
	DD	01882cH
	DD	00H
	DD	018af8H
	DD	018786H
	DD	01882cH
	DD	00H
	DD	018af9H
	DD	01878bH
	DD	01882cH
	DD	00H
	DD	018afaH
	DD	01877cH
	DD	0187eaH
	DD	00H
	DD	018afbH
	DD	018781H
	DD	0187e7H
	DD	00H
	DD	018afcH
	DD	018786H
	DD	0187e9H
	DD	00H
	DD	018afdH
	DD	01878bH
	DD	0187e8H
	DD	00H
	DD	018afeH
	DD	0189caH
	DD	018814H
	DD	00H
	DD	018affH
	DD	0189cfH
	DD	018815H
	DD	00H
	DD	018e53H
	DD	0189cfH
	DD	018cc8H
	DD	00H
	DD	018e5eH
	DD	0189cfH
	DD	018c9cH
	DD	00H
	DD	018b3bH
	DD	018b39H
	DD	018b3aH
	DD	00H
	DD	018b3bH
	DD	018b3aH
	DD	018b39H
	DD	00H
?pet_nix_tbl@@3PADA DB 01H				; pet_nix_tbl
	DB	00H
	DB	00H
	DB	00H
	DB	00H
	DB	00H
	DB	00H
	DB	00H
	DB	00H
	DB	00H
	DB	00H
	DB	00H
	DB	00H
	DB	0ffH
	DB	00H
	DB	00H
	DB	00H
	DB	00H
	DB	0ffH
	DB	00H
	DB	00H
	DB	00H
	DB	00H
	DB	00H
	DB	00H
	DB	00H
	DB	00H
	DB	00H
	DB	00H
	DB	00H
	DB	00H
	DB	01H
	DB	00H
	DB	00H
	DB	00H
	DB	00H
	DB	01H
	DB	00H
	DB	00H
	DB	00H
	DB	00H
	DB	00H
	DB	00H
	DB	00H
	DB	00H
	DB	00H
	DB	00H
	DB	00H
	DB	00H
	DB	0ffH
	DB	00H
	DB	00H
	DB	00H
	DB	00H
	DB	0ffH
	DB	00H
	DB	00H
	DB	00H
	DB	00H
	DB	00H
	DB	00H
	DB	00H
	DB	00H
	DB	00H
	DB	00H
	DB	00H
	DB	00H
	DB	01H
	DB	00H
	DB	00H
	DB	00H
	DB	00H
	DB	0feH
	ORG $+7
?monster_place_no@@3PAHA DD 02H				; monster_place_no
	DD	01H
	DD	03H
	DD	00H
	DD	04H
	DD	07H
	DD	06H
	DD	08H
	DD	05H
	DD	09H
	DD	0cH
	DD	0bH
	DD	0dH
	DD	0aH
	DD	0eH
	DD	011H
	DD	010H
	DD	012H
	DD	0fH
	DD	013H
?piyo_loop_v_tbl@@3PAHA DD 00H				; piyo_loop_v_tbl
	DD	01H
	DD	02H
	DD	03H
	DD	04H
	DD	04H
	DD	05H
	DD	06H
	DD	07H
	DD	08H
	DD	08H
	DD	09H
	DD	09H
	DD	09H
	DD	09H
	DD	0aH
	DD	09H
	DD	09H
	DD	09H
	DD	09H
	DD	08H
	DD	08H
	DD	07H
	DD	06H
	DD	05H
	DD	05H
	DD	04H
	DD	03H
	DD	02H
	DD	01H
	DD	00H
	DD	0ffffffffH
	DD	0fffffffeH
	DD	0fffffffdH
	DD	0fffffffcH
	DD	0fffffffcH
	DD	0fffffffbH
	DD	0fffffffaH
	DD	0fffffff9H
	DD	0fffffff8H
	DD	0fffffff8H
	DD	0fffffff7H
	DD	0fffffff7H
	DD	0fffffff7H
	DD	0fffffff7H
	DD	0fffffff6H
	DD	0fffffff7H
	DD	0fffffff7H
	DD	0fffffff7H
	DD	0fffffff7H
	DD	0fffffff8H
	DD	0fffffff8H
	DD	0fffffff9H
	DD	0fffffffaH
	DD	0fffffffbH
	DD	0fffffffbH
	DD	0fffffffcH
	DD	0fffffffdH
	DD	0fffffffeH
	DD	0ffffffffH
?piyo_loop_h_tbl@@3PAHA DD 0ffffffe8H			; piyo_loop_h_tbl
	DD	0ffffffe9H
	DD	0ffffffe9H
	DD	0ffffffeaH
	DD	0ffffffebH
	DD	0ffffffecH
	DD	0ffffffedH
	DD	0ffffffefH
	DD	0fffffff0H
	DD	0fffffff2H
	DD	0fffffff5H
	DD	0fffffff7H
	DD	0fffffff9H
	DD	0fffffffcH
	DD	0fffffffeH
	DD	00H
	DD	02H
	DD	04H
	DD	07H
	DD	09H
	DD	0bH
	DD	0eH
	DD	010H
	DD	011H
	DD	013H
	DD	014H
	DD	015H
	DD	016H
	DD	017H
	DD	017H
	DD	018H
	DD	017H
	DD	017H
	DD	016H
	DD	015H
	DD	014H
	DD	013H
	DD	011H
	DD	010H
	DD	0eH
	DD	0cH
	DD	09H
	DD	07H
	DD	04H
	DD	02H
	DD	00H
	DD	0fffffffeH
	DD	0fffffffcH
	DD	0fffffff9H
	DD	0fffffff7H
	DD	0fffffff5H
	DD	0fffffff2H
	DD	0fffffff0H
	DD	0ffffffefH
	DD	0ffffffedH
	DD	0ffffffecH
	DD	0ffffffebH
	DD	0ffffffeaH
	DD	0ffffffe9H
	DD	0ffffffe9H
?stick_ang_tbl@@3PADA DB 08H				; stick_ang_tbl
	DB	0aH
	DB	0cH
	DB	0eH
	DB	00H
	DB	02H
	DB	04H
	DB	06H
_DATA	ENDS
; Function compile flags: /Ogtp
; File C:\Users\gg862\OneDrive\¹ÙÅÁ È­¸é\¸¾Äí¿Ï·á\Client Source Code1.31ÀÏº»\oft\oft.cpp
;	COMDAT ?disp_shild@@YAXXZ
_TEXT	SEGMENT
_psource$ = -376					; size = 4
_d6$ = -370						; size = 1
_d7$ = -369						; size = 1
_ddsd$ = -368						; size = 108
_box$ = -260						; size = 256
__$ArrayPad$ = -4					; size = 4
?disp_shild@@YAXXZ PROC					; disp_shild, COMDAT

; 12352: {

  00000	55		 push	 ebp
  00001	8b ec		 mov	 ebp, esp
  00003	81 ec 78 01 00
	00		 sub	 esp, 376		; 00000178H
  00009	a1 00 00 00 00	 mov	 eax, DWORD PTR ___security_cookie
  0000e	33 c5		 xor	 eax, ebp
  00010	89 45 fc	 mov	 DWORD PTR __$ArrayPad$[ebp], eax

; 12353: 	char box[] = { 0, 0, 0, 0, 0, 1, 1, 1, 1, 1, 1, 0, 0, 0, 0, 0,

  00013	0f 28 05 00 00
	00 00		 movaps	 xmm0, XMMWORD PTR __xmm@00000000000101010101010000000000

; 12354: 		0, 0, 0, 1, 1, 1, 1, 1, 1, 1, 1, 1, 1, 0, 0, 0,
; 12355: 		0, 0, 1, 1, 1, 1, 1, 1, 1, 1, 1, 1, 1, 1, 0, 0,
; 12356: 		0, 0, 1, 1, 1, 1, 1, 1, 1, 1, 1, 1, 1, 1, 0, 0,
; 12357: 		0, 1, 1, 1, 0, 0, 0, 1, 1, 0, 0, 0, 1, 1, 1, 0,
; 12358: 		0, 1, 1, 1, 0, 0, 0, 1, 1, 0, 0, 0, 1, 1, 1, 0,
; 12359: 		0, 1, 1, 1, 1, 1, 1, 1, 1, 1, 1, 1, 1, 1, 1, 0,
; 12360: 		0, 1, 1, 1, 1, 1, 1, 1, 1, 1, 1, 1, 1, 1, 1, 0,
; 12361: 		0, 0, 0, 1, 1, 1, 1, 0, 0, 1, 1, 1, 1, 0, 0, 0,
; 12362: 		0, 0, 0, 1, 1, 1, 1, 1, 1, 1, 1, 1, 1, 0, 0, 0,
; 12363: 		0, 0, 1, 1, 1, 1, 0, 1, 1, 0, 1, 1, 1, 1, 0, 0,
; 12364: 		0, 1, 1, 1, 0, 0, 0, 0, 0, 0, 0, 0, 1, 1, 1, 0,
; 12365: 		0, 0, 0, 0, 0, 0, 0, 0, 0, 0, 0, 0, 0, 0, 0, 0,
; 12366: 		0, 0, 0, 0, 0, 0, 0, 0, 0, 0, 0, 0, 0, 0, 0, 0,
; 12367: 		0, 0, 0, 0, 0, 0, 0, 0, 0, 0, 0, 0, 0, 0, 0, 0,
; 12368: 		0, 0, 0, 0, 0, 0, 0, 0, 0, 0, 0, 0, 0, 0, 0, 0,
; 12369: 	};
; 12370: 
; 12371: 	DDSURFACEDESC ddsd;	// ??????î”¨î•’
; 12372: 	char d6, d7;
; 12373: 	char *psource;		// î˜¿?î“?????
; 12374: 
; 12375: 	ZeroMemory(&ddsd, sizeof(DDSURFACEDESC));

  0001a	8d 85 90 fe ff
	ff		 lea	 eax, DWORD PTR _ddsd$[ebp]
  00020	0f 11 85 fc fe
	ff ff		 movups	 XMMWORD PTR _box$[ebp], xmm0
  00027	6a 6c		 push	 108			; 0000006cH
  00029	0f 28 05 00 00
	00 00		 movaps	 xmm0, XMMWORD PTR __xmm@00000001010101010101010101000000
  00030	0f 11 85 0c ff
	ff ff		 movups	 XMMWORD PTR _box$[ebp+16], xmm0
  00037	6a 00		 push	 0
  00039	0f 28 05 00 00
	00 00		 movaps	 xmm0, XMMWORD PTR __xmm@00000101010101010101010101010000
  00040	0f 11 85 1c ff
	ff ff		 movups	 XMMWORD PTR _box$[ebp+32], xmm0
  00047	50		 push	 eax
  00048	0f 28 05 00 00
	00 00		 movaps	 xmm0, XMMWORD PTR __xmm@00000101010101010101010101010000
  0004f	0f 11 85 2c ff
	ff ff		 movups	 XMMWORD PTR _box$[ebp+48], xmm0
  00056	0f 28 05 00 00
	00 00		 movaps	 xmm0, XMMWORD PTR __xmm@00010101000000010100000001010100
  0005d	0f 11 85 3c ff
	ff ff		 movups	 XMMWORD PTR _box$[ebp+64], xmm0
  00064	0f 28 05 00 00
	00 00		 movaps	 xmm0, XMMWORD PTR __xmm@00010101000000010100000001010100
  0006b	0f 11 85 4c ff
	ff ff		 movups	 XMMWORD PTR _box$[ebp+80], xmm0
  00072	0f 28 05 00 00
	00 00		 movaps	 xmm0, XMMWORD PTR __xmm@00010101010101010101010101010100
  00079	0f 11 85 5c ff
	ff ff		 movups	 XMMWORD PTR _box$[ebp+96], xmm0
  00080	0f 28 05 00 00
	00 00		 movaps	 xmm0, XMMWORD PTR __xmm@00010101010101010101010101010100
  00087	0f 11 85 6c ff
	ff ff		 movups	 XMMWORD PTR _box$[ebp+112], xmm0
  0008e	0f 28 05 00 00
	00 00		 movaps	 xmm0, XMMWORD PTR __xmm@00000001010101000001010101000000
  00095	0f 11 85 7c ff
	ff ff		 movups	 XMMWORD PTR _box$[ebp+128], xmm0
  0009c	0f 28 05 00 00
	00 00		 movaps	 xmm0, XMMWORD PTR __xmm@00000001010101010101010101000000
  000a3	0f 11 45 8c	 movups	 XMMWORD PTR _box$[ebp+144], xmm0
  000a7	0f 28 05 00 00
	00 00		 movaps	 xmm0, XMMWORD PTR __xmm@00000101010100010100010101010000
  000ae	0f 11 45 9c	 movups	 XMMWORD PTR _box$[ebp+160], xmm0
  000b2	0f 28 05 00 00
	00 00		 movaps	 xmm0, XMMWORD PTR __xmm@00010101000000000000000001010100
  000b9	0f 11 45 ac	 movups	 XMMWORD PTR _box$[ebp+176], xmm0
  000bd	0f 57 c0	 xorps	 xmm0, xmm0
  000c0	0f 11 45 bc	 movups	 XMMWORD PTR _box$[ebp+192], xmm0
  000c4	0f 11 45 cc	 movups	 XMMWORD PTR _box$[ebp+208], xmm0
  000c8	0f 11 45 dc	 movups	 XMMWORD PTR _box$[ebp+224], xmm0
  000cc	0f 11 45 ec	 movups	 XMMWORD PTR _box$[ebp+240], xmm0
  000d0	e8 00 00 00 00	 call	 _memset

; 12376: 	ddsd.dwSize = sizeof(DDSURFACEDESC);
; 12377: 
; 12378: 	// ?????????????????( î™¯?? ddsd ?îºîŸ«?îš¼????? )
; 12379: 	if (lpDraw->lpBACKBUFFER->Lock(NULL, &ddsd, DDLOCK_WAIT, NULL) != DD_OK)

  000d5	a1 00 00 00 00	 mov	 eax, DWORD PTR ?lpDraw@@3PAUDIRECT_DRAW@@A ; lpDraw
  000da	8d 95 90 fe ff
	ff		 lea	 edx, DWORD PTR _ddsd$[ebp]
  000e0	83 c4 0c	 add	 esp, 12			; 0000000cH
  000e3	c7 85 90 fe ff
	ff 6c 00 00 00	 mov	 DWORD PTR _ddsd$[ebp], 108 ; 0000006cH
  000ed	8b 40 0c	 mov	 eax, DWORD PTR [eax+12]
  000f0	6a 00		 push	 0
  000f2	6a 01		 push	 1
  000f4	52		 push	 edx
  000f5	8b 08		 mov	 ecx, DWORD PTR [eax]
  000f7	6a 00		 push	 0
  000f9	50		 push	 eax
  000fa	ff 51 64	 call	 DWORD PTR [ecx+100]
  000fd	85 c0		 test	 eax, eax
  000ff	75 7d		 jne	 SHORT $LN3@disp_shild

; 12380: 	{
; 12381: 		//MessageBoxNew( hWnd, "Surfaceçš„lockå¤±è´¥ï¼", "??", MB_OK | MB_ICONSTOP );
; 12382: 		return;
; 12383: 	}
; 12384: 
; 12385: 	psource = box;		// î˜¿???????

  00101	53		 push	 ebx
  00102	56		 push	 esi
  00103	8d 85 fc fe ff
	ff		 lea	 eax, DWORD PTR _box$[ebp]
  00109	57		 push	 edi
  0010a	89 85 88 fe ff
	ff		 mov	 DWORD PTR _psource$[ebp], eax

; 12386: 	_asm{
; 12387: 		//		push	eax
; 12388: 		//		push	ebx
; 12389: 		//		push	ecx
; 12390: 		//		push	edx
; 12391: 		//		push	esi
; 12392: 		//		push	edi
; 12393: 
; 12394: 		mov		edx, [ddsd.lpSurface]		//î“î™ª????

  00110	8b 95 b4 fe ff
	ff		 mov	 edx, DWORD PTR _ddsd$[ebp+36]

; 12395: 			add		edx, 640 - 24						//

  00116	81 c2 68 02 00
	00		 add	 edx, 616		; 00000268H

; 12396: 
; 12397: 			mov		ebx, [ddsd.lPitch]		//?????????

  0011c	8b 9d a0 fe ff
	ff		 mov	 ebx, DWORD PTR _ddsd$[ebp+16]

; 12398: 			sub		ebx, 16

  00122	83 eb 10	 sub	 ebx, 16			; 00000010H

; 12399: 
; 12400: 			mov		al, 10 - 9		//????????

  00125	b0 01		 mov	 al, 1

; 12401: 			mov[d6], al	//

  00127	88 85 8e fe ff
	ff		 mov	 BYTE PTR _d6$[ebp], al
$disp_shild_100$6:

; 12402: 
; 12403: 		disp_shild_100 :
; 12404: 		mov		al, 30				//????????

  0012d	b0 1e		 mov	 al, 30			; 0000001eH

; 12405: 			mov[d7], al			//

  0012f	88 85 8f fe ff
	ff		 mov	 BYTE PTR _d7$[ebp], al

; 12406: 			mov		edi, edx		//î¸î•?îŒ¿????

  00135	8b fa		 mov	 edi, edx
$disp_shild_200$7:

; 12407: 
; 12408: 		disp_shild_200 :
; 12409: 		mov		cl, 16		//?????????

  00137	b1 10		 mov	 cl, 16			; 00000010H

; 12410: 			//		mov		esi,edx
; 12411: 			mov		esi, [psource]

  00139	8b b5 88 fe ff
	ff		 mov	 esi, DWORD PTR _psource$[ebp]
$disp_shild_300$8:

; 12412: 
; 12413: 		disp_shild_300 :
; 12414: 					   mov		ch, 16		//?????????

  0013f	b5 10		 mov	 ch, 16			; 00000010H
$loop_x$9:

; 12415: 
; 12416: 				   loop_x :
; 12417: 						  mov		al, [esi]

  00141	8a 06		 mov	 al, BYTE PTR [esi]

; 12418: 						  or		al, al

  00143	0a c0		 or	 al, al

; 12419: 						  je		skip

  00145	74 02		 je	 SHORT $skip$10

; 12420: 
; 12421: 						  mov[edi], al

  00147	88 07		 mov	 BYTE PTR [edi], al
$skip$10:

; 12422: 
; 12423: 					  skip :
; 12424: 		inc		esi

  00149	46		 inc	 esi

; 12425: 			inc		edi

  0014a	47		 inc	 edi

; 12426: 			dec		ch

  0014b	fe cd		 dec	 ch

; 12427: 			jne		loop_x

  0014d	75 f2		 jne	 SHORT $loop_x$9

; 12428: 
; 12429: 			add		edi, ebx

  0014f	03 fb		 add	 edi, ebx

; 12430: 			dec		cl

  00151	fe c9		 dec	 cl

; 12431: 			jne		disp_shild_300

  00153	75 ea		 jne	 SHORT $disp_shild_300$8

; 12432: 
; 12433: 			dec[d7]

  00155	fe 8d 8f fe ff
	ff		 dec	 BYTE PTR _d7$[ebp]

; 12434: 			jne		disp_shild_200

  0015b	75 da		 jne	 SHORT $disp_shild_200$7

; 12435: 
; 12436: 			add		edx, 16						//

  0015d	83 c2 10	 add	 edx, 16			; 00000010H

; 12437: 			dec[d6]

  00160	fe 8d 8e fe ff
	ff		 dec	 BYTE PTR _d6$[ebp]

; 12438: 			jne		disp_shild_100

  00166	75 c5		 jne	 SHORT $disp_shild_100$6

; 12439: 
; 12440: 			//		pop		edi
; 12441: 			//		pop		esi
; 12442: 			//		pop		edx
; 12443: 			//		pop		ecx
; 12444: 			//		pop		ebx
; 12445: 			//		pop		eax
; 12446: 	}
; 12447: 
; 12448: 	// ???????????????????
; 12449: 	if (lpDraw->lpBACKBUFFER->Unlock(NULL) != DD_OK)

  00168	a1 00 00 00 00	 mov	 eax, DWORD PTR ?lpDraw@@3PAUDIRECT_DRAW@@A ; lpDraw
  0016d	6a 00		 push	 0
  0016f	8b 40 0c	 mov	 eax, DWORD PTR [eax+12]
  00172	50		 push	 eax
  00173	8b 08		 mov	 ecx, DWORD PTR [eax]
  00175	ff 91 80 00 00
	00		 call	 DWORD PTR [ecx+128]
  0017b	5f		 pop	 edi
  0017c	5e		 pop	 esi
  0017d	5b		 pop	 ebx
$LN3@disp_shild:

; 12450: 	{
; 12451: 	//	extern int MessageBoxNew(HWND hWnd, LPCSTR lpText, LPCSTR lpCaption, UINT uType);
; 12452: 	//	MessageBoxNew(hWnd, "Surfaceçš„Unlockå¤±è´¥ï¼", "??", MB_OK | MB_ICONSTOP);
; 12453: 		return;
; 12454: 	}
; 12455: 
; 12456: 	return;
; 12457: }

  0017e	8b 4d fc	 mov	 ecx, DWORD PTR __$ArrayPad$[ebp]
  00181	33 cd		 xor	 ecx, ebp
  00183	e8 00 00 00 00	 call	 @__security_check_cookie@4
  00188	8b e5		 mov	 esp, ebp
  0018a	5d		 pop	 ebp
  0018b	c3		 ret	 0
?disp_shild@@YAXXZ ENDP					; disp_shild
_TEXT	ENDS
; Function compile flags: /Ogtp
; File C:\Users\gg862\OneDrive\¹ÙÅÁ È­¸é\¸¾Äí¿Ï·á\Client Source Code1.31ÀÏº»\oft\oft.cpp
;	COMDAT ?set_bc@@YAXXZ
_TEXT	SEGMENT
?set_bc@@YAXXZ PROC					; set_bc, COMDAT

; 12041: 	ACTION *a1;
; 12042: 	int d0, d2, d3, d1 = 0;
; 12043: 
; 12044: 	//????????
; 12045: 	bc_pointer = 3;

  00000	c7 05 00 00 00
	00 03 00 00 00	 mov	 DWORD PTR ?bc_pointer@@3HA, 3

; 12046: 	//?????î”´î’”
; 12047: 	ATR_ATTRIB(p_master) = get_bc_num();

  0000a	e8 00 00 00 00	 call	 ?get_bc_num@@YAHXZ	; get_bc_num
  0000f	8b 0d 00 00 00
	00		 mov	 ecx, DWORD PTR ?p_master@@3PAUaction@@A
  00015	89 81 a4 00 00
	00		 mov	 DWORD PTR [ecx+164], eax

; 12048: 	//î“–î™¬????????
; 12049: 	while (BattleStatus[bc_pointer] != NULL)

  0001b	a1 00 00 00 00	 mov	 eax, DWORD PTR ?bc_pointer@@3HA
  00020	80 b8 00 00 00
	00 00		 cmp	 BYTE PTR ?BattleStatus@@3PADA[eax], 0
  00027	0f 84 12 06 00
	00		 je	 $LN3@set_bc
  0002d	53		 push	 ebx
  0002e	56		 push	 esi
  0002f	57		 push	 edi
$LL2@set_bc:

; 12050: 	{
; 12051: 		//??îœ±?îš‡???
; 12052: 		d2 = get_bc_num();

  00030	e8 00 00 00 00	 call	 ?get_bc_num@@YAHXZ	; get_bc_num
  00035	8b f8		 mov	 edi, eax

; 12053: #ifdef _STONDEBUG_
; 12054: 		if (d2 >= BATTLKPKPLYAERNUM)
; 12055: 			MessageBox(hWnd, "åˆå§‹åŒ–å¤±è´¥,è¶…è¿‡è®¾å®šæ•°é‡", "Error", MB_OK);
; 12056: #endif
; 12057: 		//?????????????
; 12058: 		a1 = p_party[d2];
; 12059: 
; 12060: 		/* î¯??? */
; 12061: 		ATR_NAME(a1) = monster;
; 12062: 		//î¡“î“·îš‡???
; 12063: 		get_bc_asc(a1, 0);

  00037	6a 00		 push	 0
  00039	8b 34 bd 00 00
	00 00		 mov	 esi, DWORD PTR ?p_party@@3PAPAUaction@@A[edi*4]
  00040	56		 push	 esi
  00041	c7 46 08 00 00
	00 00		 mov	 DWORD PTR [esi+8], OFFSET ?monster@@YAXPAUaction@@@Z ; monster
  00048	e8 00 00 00 00	 call	 ?get_bc_asc@@YAXPAUaction@@H@Z ; get_bc_asc

; 12064: 		//î˜?îš‡???
; 12065: 		get_bc_asc(a1, 1);

  0004d	6a 01		 push	 1
  0004f	56		 push	 esi
  00050	e8 00 00 00 00	 call	 ?get_bc_asc@@YAXPAUaction@@H@Z ; get_bc_asc
  00055	83 c4 10	 add	 esp, 16			; 00000010H

; 12066: 		//???îœ±?îš‡???
; 12067: 		ATR_CHR_NO(a1) = get_bc_num();

  00058	e8 00 00 00 00	 call	 ?get_bc_num@@YAHXZ	; get_bc_num
  0005d	89 86 44 01 00
	00		 mov	 DWORD PTR [esi+324], eax

; 12068: 		//???îš‡???
; 12069: 		ATR_LEVEL(a1) = get_bc_num();

  00063	e8 00 00 00 00	 call	 ?get_bc_num@@YAHXZ	; get_bc_num
  00068	89 86 8c 00 00
	00		 mov	 DWORD PTR [esi+140], eax

; 12070: 		//??îš‡???
; 12071: 		ATR_LIFE(a1) = get_bc_num();

  0006e	e8 00 00 00 00	 call	 ?get_bc_num@@YAHXZ	; get_bc_num
  00073	89 46 78	 mov	 DWORD PTR [esi+120], eax

; 12072: 
; 12073: #ifdef _SFUMATO
; 12074: 		ATR_SFUMATO(a1) = 0xff0000;	
; 12075: #endif
; 12076: 
; 12077: 		//?î•«??îš‡???
; 12078: 		ATR_MAX_LIFE(a1) = get_bc_num();

  00076	e8 00 00 00 00	 call	 ?get_bc_num@@YAHXZ	; get_bc_num
  0007b	89 86 80 00 00
	00		 mov	 DWORD PTR [esi+128], eax

; 12079: #ifdef _BATTLESKILL				// (ä¸å¯å¼€) Syu ADD æˆ˜æ–—æŠ€èƒ½ä»‹é¢
; 12080: 		ATR_MAX_MANA(a1) = pc.maxMp ;

  00081	a1 1c 00 00 00	 mov	 eax, DWORD PTR ?pc@@3UPC@@A+28
  00086	89 86 88 00 00
	00		 mov	 DWORD PTR [esi+136], eax

; 12081: #endif
; 12082: 		//???îš‡???
; 12083: 		d0 = get_bc_num();

  0008c	e8 00 00 00 00	 call	 ?get_bc_num@@YAHXZ	; get_bc_num

; 12084: 		// Robin 0728 ridePet
; 12085: 		if (bNewServer)

  00091	83 3d 00 00 00
	00 00		 cmp	 DWORD PTR ?bNewServer@@3HA, 0 ; bNewServer
  00098	8b d8		 mov	 ebx, eax
  0009a	74 31		 je	 SHORT $LN6@set_bc

; 12086: 		{
; 12087: 			ATR_RIDE(a1) = get_bc_num();

  0009c	e8 00 00 00 00	 call	 ?get_bc_num@@YAHXZ	; get_bc_num

; 12088: 			get_bc_asc_ridepet(a1);

  000a1	56		 push	 esi
  000a2	89 86 94 01 00
	00		 mov	 DWORD PTR [esi+404], eax
  000a8	e8 00 00 00 00	 call	 ?get_bc_asc_ridepet@@YAXPAUaction@@@Z ; get_bc_asc_ridepet
  000ad	83 c4 04	 add	 esp, 4

; 12089: 			ATR_PETLEVEL(a1) = get_bc_num();

  000b0	e8 00 00 00 00	 call	 ?get_bc_num@@YAHXZ	; get_bc_num
  000b5	89 86 ac 01 00
	00		 mov	 DWORD PTR [esi+428], eax

; 12090: 			ATR_PET_LIFE(a1) = get_bc_num();

  000bb	e8 00 00 00 00	 call	 ?get_bc_num@@YAHXZ	; get_bc_num
  000c0	89 86 b0 01 00
	00		 mov	 DWORD PTR [esi+432], eax

; 12091: 			int k = ATR_PET_LIFE(a1);
; 12092: 			ATR_PET_MAX_LIFE(a1) = get_bc_num();

  000c6	e8 00 00 00 00	 call	 ?get_bc_num@@YAHXZ	; get_bc_num

; 12093: 			int o = ATR_PET_MAX_LIFE(a1);
; 12094: 		}

  000cb	eb 27		 jmp	 SHORT $LN7@set_bc
$LN6@set_bc:

; 12095: 		else
; 12096: 		{
; 12097: 			ATR_RIDE(a1) = 0;

  000cd	c7 86 94 01 00
	00 00 00 00 00	 mov	 DWORD PTR [esi+404], 0

; 12098: 			ATR_PETNAME(a1)[0] = NULL;
; 12099: 			ATR_PETLEVEL(a1) = 0;
; 12100: 			ATR_PET_LIFE(a1) = 0;
; 12101: 			ATR_PET_MAX_LIFE(a1) = 0;

  000d7	33 c0		 xor	 eax, eax
  000d9	c6 86 98 01 00
	00 00		 mov	 BYTE PTR [esi+408], 0
  000e0	c7 86 ac 01 00
	00 00 00 00 00	 mov	 DWORD PTR [esi+428], 0
  000ea	c7 86 b0 01 00
	00 00 00 00 00	 mov	 DWORD PTR [esi+432], 0
$LN7@set_bc:

; 12102: 		}
; 12103: 		//î‘¡???
; 12104: 		if (d0 & BC_FRESH)

  000f4	89 86 b4 01 00
	00		 mov	 DWORD PTR [esi+436], eax
  000fa	f6 c3 01	 test	 bl, 1
  000fd	0f 84 65 01 00
	00		 je	 $LN8@set_bc

; 12105: 		{
; 12106: 			//??î’·??
; 12107: 			if ((ATR_CHR_NO(a1) >= SPR_mwood1 && ATR_CHR_NO(a1) <= SPR_mstone3) ||
; 12108: 				(ATR_CHR_NO(a1) == 15323) || (ATR_CHR_NO(a1) == 10812) || (ATR_CHR_NO(a1) == 15527) ||
; 12109: 				(ATR_CHR_NO(a1) == 15543) || (ATR_CHR_NO(a1) == 15575) || (ATR_CHR_NO(a1) == 15607))

  00103	8b 86 44 01 00
	00		 mov	 eax, DWORD PTR [esi+324]
  00109	3d 72 88 01 00	 cmp	 eax, 100466		; 00018872H
  0010e	7c 0b		 jl	 SHORT $LN13@set_bc
  00110	3d 77 88 01 00	 cmp	 eax, 100471		; 00018877H
  00115	0f 8e 8f 00 00
	00		 jle	 $LN12@set_bc
$LN13@set_bc:
  0011b	3d db 3b 00 00	 cmp	 eax, 15323		; 00003bdbH
  00120	0f 84 84 00 00
	00		 je	 $LN12@set_bc
  00126	3d 3c 2a 00 00	 cmp	 eax, 10812		; 00002a3cH
  0012b	74 7d		 je	 SHORT $LN12@set_bc
  0012d	3d a7 3c 00 00	 cmp	 eax, 15527		; 00003ca7H
  00132	74 76		 je	 SHORT $LN12@set_bc
  00134	3d b7 3c 00 00	 cmp	 eax, 15543		; 00003cb7H
  00139	74 6f		 je	 SHORT $LN12@set_bc
  0013b	3d d7 3c 00 00	 cmp	 eax, 15575		; 00003cd7H
  00140	74 68		 je	 SHORT $LN12@set_bc
  00142	3d f7 3c 00 00	 cmp	 eax, 15607		; 00003cf7H
  00147	74 61		 je	 SHORT $LN12@set_bc

; 12132: 			}
; 12133: 			else
; 12134: 			{
; 12135: 				//î™‘î¶?
; 12136: 				ATR_VCT_NO(a1) = VCT_NO_APPEAR;

  00149	8b 46 0c	 mov	 eax, DWORD PTR [esi+12]

; 12137: 				ATR_ATTRIB(a1) &= ~ACT_ATR_HIDE;		//î¸î•??
; 12138: 				//î™‘î¶î•˜?
; 12139: 				ATR_VCT_NO(p_master) = 3;
; 12140: 				/* ?î³??? */
; 12141: 				ATR_H_POS(a1) = monster_start_pos[monster_place_no[d2] * 2];

  0014c	8b 14 bd 00 00
	00 00		 mov	 edx, DWORD PTR ?monster_place_no@@3PAHA[edi*4]

; 12142: 				ATR_V_POS(a1) = monster_start_pos[monster_place_no[d2] * 2 + 1];
; 12143: 				ATR_INT_WORK0(a1) = monster_place_pos[monster_place_no[d2] * 2];
; 12144: 				ATR_INT_WORK1(a1) = monster_place_pos[monster_place_no[d2] * 2 + 1];
; 12145: 			}
; 12146: 			//????????????
; 12147: 			set_raster_pos(a1);

  00153	56		 push	 esi
  00154	c6 00 f9	 mov	 BYTE PTR [eax], 249	; 000000f9H
  00157	83 a6 a4 00 00
	00 fd		 and	 DWORD PTR [esi+164], -3	; fffffffdH
  0015e	a1 00 00 00 00	 mov	 eax, DWORD PTR ?p_master@@3PAUaction@@A
  00163	8b 40 0c	 mov	 eax, DWORD PTR [eax+12]
  00166	c6 00 03	 mov	 BYTE PTR [eax], 3
  00169	8b 4e 0c	 mov	 ecx, DWORD PTR [esi+12]
  0016c	8b 04 d5 00 00
	00 00		 mov	 eax, DWORD PTR ?monster_start_pos@@3PAHA[edx*8]
  00173	89 46 18	 mov	 DWORD PTR [esi+24], eax
  00176	8b 04 d5 04 00
	00 00		 mov	 eax, DWORD PTR ?monster_start_pos@@3PAHA[edx*8+4]
  0017d	89 46 1c	 mov	 DWORD PTR [esi+28], eax
  00180	8b 04 d5 00 00
	00 00		 mov	 eax, DWORD PTR ?monster_place_pos@@3PAHA[edx*8]
  00187	89 81 24 01 00
	00		 mov	 DWORD PTR [ecx+292], eax
  0018d	8b 4e 0c	 mov	 ecx, DWORD PTR [esi+12]
  00190	8b 04 d5 04 00
	00 00		 mov	 eax, DWORD PTR ?monster_place_pos@@3PAHA[edx*8+4]
  00197	89 81 28 01 00
	00		 mov	 DWORD PTR [ecx+296], eax
  0019d	e8 00 00 00 00	 call	 ?set_raster_pos@@YAXPAUaction@@@Z ; set_raster_pos
  001a2	83 c4 04	 add	 esp, 4

; 12148: 			//148 149 150
; 12149: 		}

  001a5	e9 ef 01 00 00	 jmp	 $LN80@set_bc
$LN12@set_bc:

; 12110: 			{
; 12111: 				ATR_ATTRIB(a1) &= ~ACT_ATR_HIDE;		//î¸î•??
; 12112: 				//î•˜??
; 12113: 				ATR_VCT_NO(a1) = 0;

  001aa	8b 46 0c	 mov	 eax, DWORD PTR [esi+12]
  001ad	83 a6 a4 00 00
	00 fd		 and	 DWORD PTR [esi+164], -3	; fffffffdH

; 12114: 				ATR_CHR_ACT(a1) = ANIM_STAND;
; 12115: 				ATR_H_POS(a1) = ATR_INT_WORK0(a1) = monster_place_pos[monster_place_no[d2] * 2];

  001b4	8b 14 bd 00 00
	00 00		 mov	 edx, DWORD PTR ?monster_place_no@@3PAHA[edi*4]
  001bb	c6 00 00	 mov	 BYTE PTR [eax], 0
  001be	8b 4e 0c	 mov	 ecx, DWORD PTR [esi+12]
  001c1	8b 04 d5 00 00
	00 00		 mov	 eax, DWORD PTR ?monster_place_pos@@3PAHA[edx*8]
  001c8	c7 86 4c 01 00
	00 03 00 00 00	 mov	 DWORD PTR [esi+332], 3
  001d2	89 81 24 01 00
	00		 mov	 DWORD PTR [ecx+292], eax
  001d8	8b 4e 0c	 mov	 ecx, DWORD PTR [esi+12]
  001db	8b 81 24 01 00
	00		 mov	 eax, DWORD PTR [ecx+292]
  001e1	89 46 18	 mov	 DWORD PTR [esi+24], eax

; 12116: 				ATR_V_POS(a1) = ATR_INT_WORK1(a1) = monster_place_pos[monster_place_no[d2] * 2 + 1];

  001e4	8b 04 d5 04 00
	00 00		 mov	 eax, DWORD PTR ?monster_place_pos@@3PAHA[edx*8+4]
  001eb	89 81 28 01 00
	00		 mov	 DWORD PTR [ecx+296], eax
  001f1	8b 56 0c	 mov	 edx, DWORD PTR [esi+12]
  001f4	8b 82 28 01 00
	00		 mov	 eax, DWORD PTR [edx+296]
  001fa	89 46 1c	 mov	 DWORD PTR [esi+28], eax

; 12117: 				//???î¸î•
; 12118: 				if (ATR_GROUP_FLG(a1) == 0)

  001fd	8a 42 5e	 mov	 al, BYTE PTR [edx+94]
  00200	84 c0		 test	 al, al
  00202	75 0c		 jne	 SHORT $LN14@set_bc

; 12119: 					ATR_CHR_ANG(a1) = 3;

  00204	c7 86 54 01 00
	00 03 00 00 00	 mov	 DWORD PTR [esi+340], 3
  0020e	eb 0e		 jmp	 SHORT $LN16@set_bc
$LN14@set_bc:

; 12120: 				else if (ATR_GROUP_FLG(a1) == 1)

  00210	3c 01		 cmp	 al, 1
  00212	75 0a		 jne	 SHORT $LN16@set_bc

; 12121: 					ATR_CHR_ANG(a1) = 7;

  00214	c7 86 54 01 00
	00 07 00 00 00	 mov	 DWORD PTR [esi+340], 7
$LN16@set_bc:

; 12122: #ifdef _BATTLE_PK_PLAYER_FOR_40
; 12123: 				else if (ATR_GROUP_FLG(a1) == 2)
; 12124: 					ATR_CHR_ANG(a1) = 5;
; 12125: 				else if (ATR_GROUP_FLG(a1) == 3)	
; 12126: 					ATR_CHR_ANG(a1) = 1;
; 12127: #endif
; 12128: 				ATR_CRS_OLD(a1) = ATR_CRS(a1) = crs_change_tbl2[ATR_CHR_ANG(a1)];

  0021e	8b 86 54 01 00
	00		 mov	 eax, DWORD PTR [esi+340]

; 12129: 				ATR_CHR_ACT(a1) = ANIM_WALK;
; 12130: 				ATR_CHR_ACT_OLD(a1) = -1;
; 12131: 				pattern(a1, ANM_NOMAL_SPD, ANM_LOOP);

  00224	6a 00		 push	 0
  00226	6a 00		 push	 0
  00228	56		 push	 esi
  00229	8a 88 00 00 00
	00		 mov	 cl, BYTE PTR ?crs_change_tbl2@@3PAEA[eax]
  0022f	0f b6 c1	 movzx	 eax, cl
  00232	89 86 38 01 00
	00		 mov	 DWORD PTR [esi+312], eax
  00238	88 8a 22 01 00
	00		 mov	 BYTE PTR [edx+290], cl
  0023e	c7 86 4c 01 00
	00 04 00 00 00	 mov	 DWORD PTR [esi+332], 4
  00248	c7 86 50 01 00
	00 ff ff ff ff	 mov	 DWORD PTR [esi+336], -1
  00252	e8 00 00 00 00	 call	 ?pattern@@YAHPAUaction@@HH@Z ; pattern
  00257	83 c4 0c	 add	 esp, 12			; 0000000cH

; 12142: 				ATR_V_POS(a1) = monster_start_pos[monster_place_no[d2] * 2 + 1];
; 12143: 				ATR_INT_WORK0(a1) = monster_place_pos[monster_place_no[d2] * 2];
; 12144: 				ATR_INT_WORK1(a1) = monster_place_pos[monster_place_no[d2] * 2 + 1];
; 12145: 			}
; 12146: 			//????????????
; 12147: 			set_raster_pos(a1);

  0025a	56		 push	 esi
  0025b	e8 00 00 00 00	 call	 ?set_raster_pos@@YAXPAUaction@@@Z ; set_raster_pos
  00260	83 c4 04	 add	 esp, 4

; 12148: 			//148 149 150
; 12149: 		}

  00263	e9 31 01 00 00	 jmp	 $LN80@set_bc
$LN8@set_bc:

; 12150: 		else
; 12151: 		{
; 12152: 			if (ATR_LIFE(a1) > 0)

  00268	83 7e 78 00	 cmp	 DWORD PTR [esi+120], 0
  0026c	0f 8e 27 01 00
	00		 jle	 $LN80@set_bc

; 12153: 			{	//î’Ÿ?????
; 12154: 				if (d0 & BC_FADE_OUT)

  00272	8b 86 a4 00 00
	00		 mov	 eax, DWORD PTR [esi+164]
  00278	8b 4e 0c	 mov	 ecx, DWORD PTR [esi+12]
  0027b	f7 c3 00 02 00
	00		 test	 ebx, 512		; 00000200H
  00281	74 50		 je	 SHORT $LN18@set_bc

; 12155: 				{	// ??s???
; 12156: 					ATR_ATTRIB(a1) |= ACT_ATR_TRAVEL;

  00283	0d 00 00 02 00	 or	 eax, 131072		; 00020000H
  00288	89 86 a4 00 00
	00		 mov	 DWORD PTR [esi+164], eax

; 12157: 					//??????
; 12158: 					ATR_ATTACK_KIND(2, a1) = 1;

  0028e	c7 41 68 01 00
	00 00		 mov	 DWORD PTR [ecx+104], 1

; 12159: 					if (ATR_GROUP_FLG(a1) == 0)

  00295	8b 4e 0c	 mov	 ecx, DWORD PTR [esi+12]
  00298	80 79 5e 00	 cmp	 BYTE PTR [ecx+94], 0
  0029c	75 24		 jne	 SHORT $LN20@set_bc

; 12160: 					{	//????????
; 12161: 						ATR_V_POS(a1) = lpDraw->ySize + 16;

  0029e	a1 00 00 00 00	 mov	 eax, DWORD PTR ?lpDraw@@3PAUDIRECT_DRAW@@A ; lpDraw
  002a3	8b 80 88 00 00
	00		 mov	 eax, DWORD PTR [eax+136]
  002a9	83 c0 10	 add	 eax, 16			; 00000010H
  002ac	89 46 1c	 mov	 DWORD PTR [esi+28], eax

; 12162: 						ATR_H_POS(a1) = lpDraw->xSize + SCREEN_OUT;

  002af	a1 00 00 00 00	 mov	 eax, DWORD PTR ?lpDraw@@3PAUDIRECT_DRAW@@A ; lpDraw
  002b4	8b 80 84 00 00
	00		 mov	 eax, DWORD PTR [eax+132]
  002ba	83 c0 6a	 add	 eax, 106		; 0000006aH

; 12168: 					}
; 12169: 				}

  002bd	89 46 18	 mov	 DWORD PTR [esi+24], eax
  002c0	eb 61		 jmp	 SHORT $LN19@set_bc
$LN20@set_bc:

; 12163: 					}
; 12164: 					else
; 12165: 					{
; 12166: 						ATR_V_POS(a1) = -18;
; 12167: 						ATR_H_POS(a1) = -SCREEN_OUT;

  002c2	b8 96 ff ff ff	 mov	 eax, -106		; ffffff96H
  002c7	c7 46 1c ee ff
	ff ff		 mov	 DWORD PTR [esi+28], -18	; ffffffeeH

; 12168: 					}
; 12169: 				}

  002ce	89 46 18	 mov	 DWORD PTR [esi+24], eax
  002d1	eb 50		 jmp	 SHORT $LN19@set_bc
$LN18@set_bc:

; 12170: 				else
; 12171: 				{
; 12172: 					ATR_ATTRIB(a1) &= ~ACT_ATR_TRAVEL;
; 12173: 					ATR_H_POS(a1) = ATR_INT_WORK0(a1) = monster_place_pos[monster_place_no[d2] * 2];

  002d3	8b 14 bd 00 00
	00 00		 mov	 edx, DWORD PTR ?monster_place_no@@3PAHA[edi*4]
  002da	25 ff ff fd ff	 and	 eax, -131073		; fffdffffH
  002df	89 86 a4 00 00
	00		 mov	 DWORD PTR [esi+164], eax

; 12174: 					ATR_V_POS(a1) = ATR_INT_WORK1(a1) = monster_place_pos[monster_place_no[d2] * 2 + 1];
; 12175: 					//????????????
; 12176: 					set_raster_pos(a1);

  002e5	56		 push	 esi
  002e6	8b 04 d5 00 00
	00 00		 mov	 eax, DWORD PTR ?monster_place_pos@@3PAHA[edx*8]
  002ed	89 81 24 01 00
	00		 mov	 DWORD PTR [ecx+292], eax
  002f3	8b 4e 0c	 mov	 ecx, DWORD PTR [esi+12]
  002f6	8b 81 24 01 00
	00		 mov	 eax, DWORD PTR [ecx+292]
  002fc	89 46 18	 mov	 DWORD PTR [esi+24], eax
  002ff	8b 04 d5 04 00
	00 00		 mov	 eax, DWORD PTR ?monster_place_pos@@3PAHA[edx*8+4]
  00306	89 81 28 01 00
	00		 mov	 DWORD PTR [ecx+296], eax
  0030c	8b 46 0c	 mov	 eax, DWORD PTR [esi+12]
  0030f	8b 80 28 01 00
	00		 mov	 eax, DWORD PTR [eax+296]
  00315	89 46 1c	 mov	 DWORD PTR [esi+28], eax
  00318	e8 00 00 00 00	 call	 ?set_raster_pos@@YAXPAUaction@@@Z ; set_raster_pos
  0031d	8b 4e 0c	 mov	 ecx, DWORD PTR [esi+12]
  00320	83 c4 04	 add	 esp, 4
$LN19@set_bc:

; 12177: 				}
; 12178: 				//î•˜??
; 12179: 				ATR_VCT_NO(a1) = 0;

  00323	c6 01 00	 mov	 BYTE PTR [ecx], 0

; 12180: 				ATR_CHR_ACT(a1) = ANIM_STAND;

  00326	c7 86 4c 01 00
	00 03 00 00 00	 mov	 DWORD PTR [esi+332], 3

; 12181: 				if (BattleBpFlag & BATTLE_BP_JOIN)

  00330	f6 05 00 00 00
	00 01		 test	 BYTE PTR ?BattleBpFlag@@3HA, 1
  00337	74 60		 je	 SHORT $LN80@set_bc

; 12182: 				{	// îŒ¢î“–??
; 12183: 					//???î¸î•
; 12184: 					if (ATR_GROUP_FLG(a1) == 0)

  00339	8b 56 0c	 mov	 edx, DWORD PTR [esi+12]
  0033c	8a 42 5e	 mov	 al, BYTE PTR [edx+94]
  0033f	84 c0		 test	 al, al
  00341	75 0c		 jne	 SHORT $LN23@set_bc

; 12185: 						ATR_CHR_ANG(a1) = 3;

  00343	c7 86 54 01 00
	00 03 00 00 00	 mov	 DWORD PTR [esi+340], 3
  0034d	eb 0e		 jmp	 SHORT $LN25@set_bc
$LN23@set_bc:

; 12186: 					else if (ATR_GROUP_FLG(a1) == 1)

  0034f	3c 01		 cmp	 al, 1
  00351	75 0a		 jne	 SHORT $LN25@set_bc

; 12187: 						ATR_CHR_ANG(a1) = 7;

  00353	c7 86 54 01 00
	00 07 00 00 00	 mov	 DWORD PTR [esi+340], 7
$LN25@set_bc:

; 12188: #ifdef _BATTLE_PK_PLAYER_FOR_40
; 12189: 					else if (ATR_GROUP_FLG(a1) == 2)
; 12190: 						ATR_CHR_ANG(a1) = 5;
; 12191: 					else if (ATR_GROUP_FLG(a1) == 3)	
; 12192: 						ATR_CHR_ANG(a1) = 1;
; 12193: #endif
; 12194: 					ATR_CRS_OLD(a1) = ATR_CRS(a1) = crs_change_tbl2[ATR_CHR_ANG(a1)];

  0035d	8b 86 54 01 00
	00		 mov	 eax, DWORD PTR [esi+340]

; 12195: 					ATR_CHR_ACT(a1) = ANIM_WALK;
; 12196: 					ATR_CHR_ACT_OLD(a1) = -1;
; 12197: 					pattern(a1, ANM_NOMAL_SPD, ANM_LOOP);

  00363	6a 00		 push	 0
  00365	6a 00		 push	 0
  00367	56		 push	 esi
  00368	8a 88 00 00 00
	00		 mov	 cl, BYTE PTR ?crs_change_tbl2@@3PAEA[eax]
  0036e	0f b6 c1	 movzx	 eax, cl
  00371	89 86 38 01 00
	00		 mov	 DWORD PTR [esi+312], eax
  00377	88 8a 22 01 00
	00		 mov	 BYTE PTR [edx+290], cl
  0037d	c7 86 4c 01 00
	00 04 00 00 00	 mov	 DWORD PTR [esi+332], 4
  00387	c7 86 50 01 00
	00 ff ff ff ff	 mov	 DWORD PTR [esi+336], -1
  00391	e8 00 00 00 00	 call	 ?pattern@@YAHPAUaction@@HH@Z ; pattern
  00396	83 c4 0c	 add	 esp, 12			; 0000000cH
$LN80@set_bc:

; 12198: 				}
; 12199: 			}
; 12200: 		}
; 12201: 		//?î Œ??
; 12202: 		if (d0 & BC_DEATH)

  00399	f6 c3 02	 test	 bl, 2
  0039c	0f 84 d8 00 00
	00		 je	 $LN27@set_bc

; 12203: 		{
; 12204: 			if (ATR_VCT_NO(a1) == VCT_NO_APPEAR)

  003a2	8b 46 0c	 mov	 eax, DWORD PTR [esi+12]
  003a5	80 38 f9	 cmp	 BYTE PTR [eax], 249	; 000000f9H
  003a8	0f 85 cc 00 00
	00		 jne	 $LN27@set_bc

; 12205: 			{	//?î Œ??????
; 12206: 				//?î Œ???
; 12207: 				ATR_VCT_NO(a1) = VCT_NO_DIE + 2;
; 12208: 				ATR_H_POS(a1) = ATR_INT_WORK0(a1) = monster_place_pos[monster_place_no[d2] * 2];

  003ae	8b 14 bd 00 00
	00 00		 mov	 edx, DWORD PTR ?monster_place_no@@3PAHA[edi*4]
  003b5	c6 00 fc	 mov	 BYTE PTR [eax], 252	; 000000fcH
  003b8	8b 4e 0c	 mov	 ecx, DWORD PTR [esi+12]

; 12209: 				ATR_V_POS(a1) = ATR_INT_WORK1(a1) = monster_place_pos[monster_place_no[d2] * 2 + 1];
; 12210: 				//????????????
; 12211: 				set_raster_pos(a1);

  003bb	56		 push	 esi
  003bc	8b 04 d5 00 00
	00 00		 mov	 eax, DWORD PTR ?monster_place_pos@@3PAHA[edx*8]
  003c3	89 81 24 01 00
	00		 mov	 DWORD PTR [ecx+292], eax
  003c9	8b 4e 0c	 mov	 ecx, DWORD PTR [esi+12]
  003cc	8b 81 24 01 00
	00		 mov	 eax, DWORD PTR [ecx+292]
  003d2	89 46 18	 mov	 DWORD PTR [esi+24], eax
  003d5	8b 04 d5 04 00
	00 00		 mov	 eax, DWORD PTR ?monster_place_pos@@3PAHA[edx*8+4]
  003dc	89 81 28 01 00
	00		 mov	 DWORD PTR [ecx+296], eax
  003e2	8b 46 0c	 mov	 eax, DWORD PTR [esi+12]
  003e5	8b 80 28 01 00
	00		 mov	 eax, DWORD PTR [eax+296]
  003eb	89 46 1c	 mov	 DWORD PTR [esi+28], eax
  003ee	e8 00 00 00 00	 call	 ?set_raster_pos@@YAXPAUaction@@@Z ; set_raster_pos

; 12212: 				//????
; 12213: 				ATR_LIFE(a1) = 0;
; 12214: 				//?î Œ???????
; 12215: 				if (ATR_GROUP_FLG(a1) == 0)

  003f3	8b 56 0c	 mov	 edx, DWORD PTR [esi+12]
  003f6	83 c4 04	 add	 esp, 4
  003f9	c7 46 78 00 00
	00 00		 mov	 DWORD PTR [esi+120], 0
  00400	8a 42 5e	 mov	 al, BYTE PTR [edx+94]
  00403	84 c0		 test	 al, al
  00405	75 0c		 jne	 SHORT $LN28@set_bc

; 12216: 					ATR_CHR_ANG(a1) = 3;

  00407	c7 86 54 01 00
	00 03 00 00 00	 mov	 DWORD PTR [esi+340], 3
  00411	eb 0e		 jmp	 SHORT $LN30@set_bc
$LN28@set_bc:

; 12217: 				else if (ATR_GROUP_FLG(a1) == 1)

  00413	3c 01		 cmp	 al, 1
  00415	75 0a		 jne	 SHORT $LN30@set_bc

; 12218: 					ATR_CHR_ANG(a1) = 7;

  00417	c7 86 54 01 00
	00 07 00 00 00	 mov	 DWORD PTR [esi+340], 7
$LN30@set_bc:

; 12219: #ifdef _BATTLE_PK_PLAYER_FOR_40
; 12220: 				else if (ATR_GROUP_FLG(a1) == 2)
; 12221: 					ATR_CHR_ANG(a1) = 5;
; 12222: 				else if (ATR_GROUP_FLG(a1) == 3)	
; 12223: 					ATR_CHR_ANG(a1) = 1;
; 12224: #endif
; 12225: 				ATR_CRS_OLD(a1) = ATR_CRS(a1) = crs_change_tbl2[ATR_CHR_ANG(a1)];

  00421	8b 86 54 01 00
	00		 mov	 eax, DWORD PTR [esi+340]
  00427	8a 88 00 00 00
	00		 mov	 cl, BYTE PTR ?crs_change_tbl2@@3PAEA[eax]
  0042d	0f b6 c1	 movzx	 eax, cl
  00430	89 86 38 01 00
	00		 mov	 DWORD PTR [esi+312], eax
  00436	88 8a 22 01 00
	00		 mov	 BYTE PTR [edx+290], cl

; 12226: 				ATR_CHR_ACT(a1) = ANIM_DEAD;		//?î Œ???????

  0043c	c7 86 4c 01 00
	00 02 00 00 00	 mov	 DWORD PTR [esi+332], 2

; 12227: 				ATR_CHR_ACT_OLD(a1) = -1;

  00446	c7 86 50 01 00
	00 ff ff ff ff	 mov	 DWORD PTR [esi+336], -1
$LL4@set_bc:

; 12228: 				while (1)
; 12229: 				{
; 12230: 					if (pattern(a1, 1, ANM_NO_LOOP))	//???îŽ·???

  00450	6a 01		 push	 1
  00452	6a 01		 push	 1
  00454	56		 push	 esi
  00455	e8 00 00 00 00	 call	 ?pattern@@YAHPAUaction@@HH@Z ; pattern
  0045a	83 c4 0c	 add	 esp, 12			; 0000000cH
  0045d	85 c0		 test	 eax, eax
  0045f	74 ef		 je	 SHORT $LL4@set_bc

; 12231: 						break;
; 12232: 				}
; 12233: 				//????î¸î•
; 12234: 				LoadBmp(ATR_PAT_NO(a1));

  00461	ff b6 9c 00 00
	00		 push	 DWORD PTR [esi+156]
  00467	e8 00 00 00 00	 call	 ?LoadBmp@@YAHH@Z	; LoadBmp

; 12235: #ifndef _PETSKILL_ANTINTER
; 12236: 				set_piyo_loop(a1);
; 12237: #endif			
; 12238: 				//?î Œî•˜?`
; 12239: 				ATR_VCT_NO(p_master) = 3;

  0046c	a1 00 00 00 00	 mov	 eax, DWORD PTR ?p_master@@3PAUaction@@A
  00471	83 c4 04	 add	 esp, 4
  00474	8b 40 0c	 mov	 eax, DWORD PTR [eax+12]
  00477	c6 00 03	 mov	 BYTE PTR [eax], 3
$LN27@set_bc:

; 12240: 			}
; 12241: 		}
; 12242: 		//???î?îš¼?ï¼¯ï¼«??
; 12243: 		if (d0 & BC_PET_OK)

  0047a	f6 c3 04	 test	 bl, 4
  0047d	74 0a		 je	 SHORT $LN32@set_bc

; 12244: 			ATR_PET_OK(a1) = 1;

  0047f	8b 46 0c	 mov	 eax, DWORD PTR [esi+12]
  00482	c6 80 20 01 00
	00 01		 mov	 BYTE PTR [eax+288], 1
$LN32@set_bc:

; 12245: 		//??????î¹????????
; 12246: 		if (ATR_JUJUTSU_WORK(a1) == NULL)

  00489	8b 46 0c	 mov	 eax, DWORD PTR [esi+12]
  0048c	83 b8 10 01 00
	00 00		 cmp	 DWORD PTR [eax+272], 0
  00493	0f 85 74 01 00
	00		 jne	 $LN67@set_bc

; 12247: 		{
; 12248: 			d3 = 0;

  00499	33 ff		 xor	 edi, edi

; 12249: 			if (d0 & BC_BIT3)		//  "îš…"??

  0049b	f6 c3 08	 test	 bl, 8
  0049e	74 07		 je	 SHORT $LN34@set_bc

; 12250: 				d3 = 1;

  004a0	bf 01 00 00 00	 mov	 edi, 1
  004a5	eb 3d		 jmp	 SHORT $LN44@set_bc
$LN34@set_bc:

; 12251: 			else if (d0 & BC_BIT4)		//  "??"??

  004a7	f6 c3 10	 test	 bl, 16			; 00000010H
  004aa	74 07		 je	 SHORT $LN36@set_bc

; 12252: 				d3 = 2;

  004ac	bf 02 00 00 00	 mov	 edi, 2
  004b1	eb 31		 jmp	 SHORT $LN44@set_bc
$LN36@set_bc:

; 12253: 			else if (d0 & BC_BIT5)		//  "î¡‡?"??

  004b3	f6 c3 20	 test	 bl, 32			; 00000020H
  004b6	74 07		 je	 SHORT $LN38@set_bc

; 12254: 				d3 = 3;

  004b8	bf 03 00 00 00	 mov	 edi, 3
  004bd	eb 25		 jmp	 SHORT $LN44@set_bc
$LN38@set_bc:

; 12255: 			else if (d0 & BC_BIT6)		//  "î’·?"??

  004bf	f6 c3 40	 test	 bl, 64			; 00000040H
  004c2	74 07		 je	 SHORT $LN40@set_bc

; 12256: 				d3 = 4;

  004c4	bf 04 00 00 00	 mov	 edi, 4
  004c9	eb 19		 jmp	 SHORT $LN44@set_bc
$LN40@set_bc:

; 12257: 			else if (d0 & BC_BIT7)		//  "??îžŸ?"??

  004cb	84 db		 test	 bl, bl
  004cd	79 07		 jns	 SHORT $LN42@set_bc

; 12258: 				d3 = 5;

  004cf	bf 05 00 00 00	 mov	 edi, 5
  004d4	eb 0e		 jmp	 SHORT $LN44@set_bc
$LN42@set_bc:

; 12259: 			else if (d0 & BC_BIT8)		//  "??"??

  004d6	f7 c3 00 01 00
	00		 test	 ebx, 256		; 00000100H
  004dc	b8 06 00 00 00	 mov	 eax, 6
  004e1	0f 45 f8	 cmovne	 edi, eax
$LN44@set_bc:

; 12260: 				d3 = 6;
; 12261: #ifdef _MAGIC_WEAKEN
; 12262: 			if (d0 & BC_WEAKEN)    //è™šå¼±

  004e4	f7 c3 00 08 00
	00		 test	 ebx, 2048		; 00000800H
  004ea	b8 07 00 00 00	 mov	 eax, 7
  004ef	0f 45 f8	 cmovne	 edi, eax

; 12263: 				d3 = 7;
; 12264: #endif
; 12265: #ifdef _MAGIC_DEEPPOISION
; 12266: 			if (d0 & BC_DEEPPOISON)  //å‰§æ¯’

  004f2	f7 c3 00 10 00
	00		 test	 ebx, 4096		; 00001000H
  004f8	b8 08 00 00 00	 mov	 eax, 8
  004fd	0f 45 f8	 cmovne	 edi, eax

; 12267: 				d3 = 8;
; 12268: #endif
; 12269: #ifdef _MAGIC_BARRIER
; 12270: 			if (d0 & BC_BARRIER)  //é­”éšœ

  00500	f7 c3 00 20 00
	00		 test	 ebx, 8192		; 00002000H
  00506	b8 09 00 00 00	 mov	 eax, 9
  0050b	0f 45 f8	 cmovne	 edi, eax

; 12271: 				d3 = 9;
; 12272: #endif
; 12273: #ifdef _MAGIC_NOCAST
; 12274: 			if (d0 & BC_NOCAST)   //æ²‰é»˜

  0050e	f7 c3 00 40 00
	00		 test	 ebx, 16384		; 00004000H
  00514	b8 0a 00 00 00	 mov	 eax, 10			; 0000000aH
  00519	0f 45 f8	 cmovne	 edi, eax

; 12275: 				d3 = 10;
; 12276: #endif
; 12277: #ifdef _SARS						// WON ADD æ¯’ç…žè”“å»¶
; 12278: 			if (d0 & BC_SARS)		// æ¯’ç…žè”“å»¶

  0051c	f7 c3 00 80 00
	00		 test	 ebx, 32768		; 00008000H
  00522	b8 0b 00 00 00	 mov	 eax, 11			; 0000000bH
  00527	0f 45 f8	 cmovne	 edi, eax

; 12279: 				d3 = 11;
; 12280: #endif
; 12281: #ifdef _CHAR_PROFESSION						// WON ADD	æ™•çœ©
; 12282: 			if (d0 & BC_DIZZY)		// æ™•çœ©

  0052a	f7 c3 00 00 01
	00		 test	 ebx, 65536		; 00010000H
  00530	b8 0c 00 00 00	 mov	 eax, 12			; 0000000cH
  00535	0f 45 f8	 cmovne	 edi, eax

; 12283: 				d3 = 12;
; 12284: 			if (d0 & BC_ENTWINE)	// æ ‘æ ¹ç¼ ç»•

  00538	f7 c3 00 00 02
	00		 test	 ebx, 131072		; 00020000H
  0053e	b8 0d 00 00 00	 mov	 eax, 13			; 0000000dH
  00543	0f 45 f8	 cmovne	 edi, eax

; 12285: 				d3 = 13;
; 12286: 			if (d0 & BC_DRAGNET)	// å¤©ç½—åœ°ç½‘

  00546	f7 c3 00 00 04
	00		 test	 ebx, 262144		; 00040000H
  0054c	b8 0e 00 00 00	 mov	 eax, 14			; 0000000eH
  00551	0f 45 f8	 cmovne	 edi, eax

; 12287: 				d3 = 14;
; 12288: 			if (d0 & BC_ICECRACK)	// å†°çˆ†æœ¯

  00554	f7 c3 00 00 08
	00		 test	 ebx, 524288		; 00080000H
  0055a	b8 0f 00 00 00	 mov	 eax, 15			; 0000000fH
  0055f	0f 45 f8	 cmovne	 edi, eax

; 12289: 				d3 = 15;
; 12290: 			if (d0 & BC_OBLIVION)	// é—å¿˜

  00562	f7 c3 00 00 10
	00		 test	 ebx, 1048576		; 00100000H
  00568	b8 10 00 00 00	 mov	 eax, 16			; 00000010H
  0056d	0f 45 f8	 cmovne	 edi, eax

; 12291: 				d3 = 16;
; 12292: 			if (d0 & BC_ICEARROW)	// å†°ç®­

  00570	f7 c3 00 00 20
	00		 test	 ebx, 2097152		; 00200000H
  00576	b8 11 00 00 00	 mov	 eax, 17			; 00000011H
  0057b	0f 45 f8	 cmovne	 edi, eax

; 12293: 				d3 = 17;
; 12294: 			if (d0 & BC_BLOODWORMS)// å—œè¡€è›Š

  0057e	f7 c3 00 00 40
	00		 test	 ebx, 4194304		; 00400000H
  00584	b8 12 00 00 00	 mov	 eax, 18			; 00000012H
  00589	0f 45 f8	 cmovne	 edi, eax

; 12295: 				d3 = 18;
; 12296: 			if (d0 & BC_SIGN)		// ä¸€é’ˆè§è¡€

  0058c	f7 c3 00 00 80
	00		 test	 ebx, 8388608		; 00800000H
  00592	b8 13 00 00 00	 mov	 eax, 19			; 00000013H
  00597	0f 45 f8	 cmovne	 edi, eax

; 12297: 				d3 = 19;
; 12298: 			if (d0 & BC_CRAZY)		// æŒ‘æ‹¨

  0059a	f7 c3 00 00 00
	01		 test	 ebx, 16777216		; 01000000H
  005a0	b8 14 00 00 00	 mov	 eax, 20			; 00000014H
  005a5	0f 45 f8	 cmovne	 edi, eax

; 12299: 				d3 = 20;
; 12300: 			if (d0 & BC_F_ENCLOSE)		// ç«é™„ä½“

  005a8	f7 c3 00 00 00
	02		 test	 ebx, 33554432		; 02000000H
  005ae	b8 15 00 00 00	 mov	 eax, 21			; 00000015H
  005b3	0f 45 f8	 cmovne	 edi, eax

; 12301: 				d3 = 21;
; 12302: 			if (d0 & BC_I_ENCLOSE)		// å†°é™„ä½“

  005b6	f7 c3 00 00 00
	04		 test	 ebx, 67108864		; 04000000H
  005bc	b8 16 00 00 00	 mov	 eax, 22			; 00000016H
  005c1	0f 45 f8	 cmovne	 edi, eax

; 12303: 				d3 = 22;
; 12304: 			if (d0 & BC_T_ENCLOSE)		// é›·é™„ä½“

  005c4	f7 c3 00 00 00
	08		 test	 ebx, 134217728		; 08000000H
  005ca	b8 17 00 00 00	 mov	 eax, 23			; 00000017H
  005cf	0f 45 f8	 cmovne	 edi, eax

; 12305: 				d3 = 23;
; 12306: #ifdef _PROFESSION_ADDSKILL
; 12307: 			if (d0 & BC_WATER)

  005d2	f7 c3 00 00 00
	10		 test	 ebx, 268435456		; 10000000H
  005d8	b8 21 00 00 00	 mov	 eax, 33			; 00000021H
  005dd	0f 45 f8	 cmovne	 edi, eax

; 12308: 				d3 = 32;		// æ°´é™„ä½“
; 12309: 			if (d0 & BC_WATER)
; 12310: 				d3 = 33;		// ææƒ§
; 12311: 			//if (d0 & BC_F_I_T_ENCLOSE)  // ç«å†°é›·é™„ä½“
; 12312: 			//    d3 = 24;
; 12313: #endif
; 12314: #ifdef _PETSKILL_LER
; 12315: 			if (d0 & BC_CHANGE)

  005e0	f7 c3 00 00 00
	40		 test	 ebx, 1073741824		; 40000000H
  005e6	74 05		 je	 SHORT $LN65@set_bc

; 12316: 				d3 = 34; // é›·å°”å˜èº«
; 12317: #endif
; 12318: #ifdef _PRO_KILLME
; 12319: 			if (d0 & BC_ANGER)
; 12320: 				d3 = 35; // æ€’
; 12321: #endif
; 12322: 
; 12323: #endif
; 12324: #ifdef _PETSKILL_LER
; 12325: 			if (d0 & BC_CHANGE)
; 12326: 				d3 = 34; // é›·å°”å˜èº«

  005e8	8d 78 01	 lea	 edi, DWORD PTR [eax+1]
  005eb	eb 04		 jmp	 SHORT $LN79@set_bc
$LN65@set_bc:

; 12327: #endif
; 12328: 			if (d3)

  005ed	85 ff		 test	 edi, edi
  005ef	74 12		 je	 SHORT $LN66@set_bc
$LN79@set_bc:

; 12329: 			{	//?î¹?????
; 12330: 				set_single_jujutsu(d3, a1);		//î–•î•’îŽ£îž???

  005f1	56		 push	 esi
  005f2	57		 push	 edi
  005f3	e8 00 00 00 00	 call	 ?set_single_jujutsu@@YAXHPAUaction@@@Z ; set_single_jujutsu
  005f8	83 c4 08	 add	 esp, 8

; 12331: 				ATR_STATUS(a1) = d3;		//????????

  005fb	89 be 90 00 00
	00		 mov	 DWORD PTR [esi+144], edi

; 12332: 			}

  00601	eb 0a		 jmp	 SHORT $LN67@set_bc
$LN66@set_bc:

; 12333: 			else
; 12334: 				ATR_STATUS(a1) = 0;		//?????î’œî¹

  00603	c7 86 90 00 00
	00 00 00 00 00	 mov	 DWORD PTR [esi+144], 0
$LN67@set_bc:

; 12335: 		}
; 12336: 		//î”´î’”îœšî˜¿????????
; 12337: 		if (ATR_ATTRIB_WORK(a1) == NULL)

  0060d	8b 46 0c	 mov	 eax, DWORD PTR [esi+12]
  00610	83 b8 18 01 00
	00 00		 cmp	 DWORD PTR [eax+280], 0
  00617	75 11		 jne	 SHORT $LN69@set_bc

; 12338: 		{
; 12339: 			if (d0 & BC_REVERSE)		//îœšî˜¿??

  00619	f7 c3 00 04 00
	00		 test	 ebx, 1024		; 00000400H
  0061f	74 09		 je	 SHORT $LN69@set_bc

; 12340: 				set_attrib_reverse(a1);		//î”´î’”îœšî˜¿???

  00621	56		 push	 esi
  00622	e8 00 00 00 00	 call	 ?set_attrib_reverse@@YAXPAUaction@@@Z ; set_attrib_reverse
  00627	83 c4 04	 add	 esp, 4
$LN69@set_bc:

; 12048: 	//î“–î™¬????????
; 12049: 	while (BattleStatus[bc_pointer] != NULL)

  0062a	a1 00 00 00 00	 mov	 eax, DWORD PTR ?bc_pointer@@3HA
  0062f	80 b8 00 00 00
	00 00		 cmp	 BYTE PTR ?BattleStatus@@3PADA[eax], 0
  00636	0f 85 f4 f9 ff
	ff		 jne	 $LL2@set_bc
  0063c	5f		 pop	 edi
  0063d	5e		 pop	 esi
  0063e	5b		 pop	 ebx
$LN3@set_bc:

; 12341: 		}
; 12342: 
; 12343: 
; 12344: 	}
; 12345: 	//î™‘î¶î•˜??????
; 12346: 	if (ATR_VCT_NO(p_master) != 3)

  0063f	a1 00 00 00 00	 mov	 eax, DWORD PTR ?p_master@@3PAUaction@@A
  00644	ba 03 00 00 00	 mov	 edx, 3
  00649	8b 0d 00 00 00
	00		 mov	 ecx, DWORD PTR ?action_inf@@3HA ; action_inf
  0064f	8b 40 0c	 mov	 eax, DWORD PTR [eax+12]
  00652	38 10		 cmp	 BYTE PTR [eax], dl
  00654	0f 45 ca	 cmovne	 ecx, edx
  00657	89 0d 00 00 00
	00		 mov	 DWORD PTR ?action_inf@@3HA, ecx ; action_inf

; 12347: 		action_inf = 3;		//î™‘î¶?îîŽ·?
; 12348: }

  0065d	c3		 ret	 0
?set_bc@@YAXXZ ENDP					; set_bc
_TEXT	ENDS
; Function compile flags: /Ogtp
; File C:\Users\gg862\OneDrive\¹ÙÅÁ È­¸é\¸¾Äí¿Ï·á\Client Source Code1.31ÀÏº»\oft\oft.cpp
;	COMDAT ?set_party_ÎÃ?@@YAXXZ
_TEXT	SEGMENT
_array$ = -404						; size = 400
__$ArrayPad$ = -4					; size = 4
?set_party_ÎÃ?@@YAXXZ PROC				; set_party_ÎÃ?, COMDAT

; 12017: {

  00000	55		 push	 ebp
  00001	8b ec		 mov	 ebp, esp
  00003	81 ec 94 01 00
	00		 sub	 esp, 404		; 00000194H
  00009	a1 00 00 00 00	 mov	 eax, DWORD PTR ___security_cookie
  0000e	33 c5		 xor	 eax, ebp
  00010	89 45 fc	 mov	 DWORD PTR __$ArrayPad$[ebp], eax

; 12018: 	if (*gStrå…‰çŽ¯ == 0)return;

  00013	80 3d 00 00 00
	00 00		 cmp	 BYTE PTR ?gStrÎÃ?@@3PADA, 0
  0001a	74 61		 je	 SHORT $LN1@set_party_

; 12019: 	ACTION *a1;
; 12020: 	char* array[100];
; 12021: 	int count = split_damage(gStrå…‰çŽ¯, '|', (int*)array, 50);

  0001c	53		 push	 ebx
  0001d	57		 push	 edi
  0001e	6a 32		 push	 50			; 00000032H
  00020	8d 85 6c fe ff
	ff		 lea	 eax, DWORD PTR _array$[ebp]
  00026	50		 push	 eax
  00027	6a 7c		 push	 124			; 0000007cH
  00029	68 00 00 00 00	 push	 OFFSET ?gStrÎÃ?@@3PADA	; gStrÎÃ?
  0002e	e8 00 00 00 00	 call	 ?split_damage@@YAHPADDPAHI@Z ; split_damage

; 12022: 	for (int i = 0; i < count/2; i++)

  00033	99		 cdq
  00034	83 c4 10	 add	 esp, 16			; 00000010H
  00037	2b c2		 sub	 eax, edx
  00039	33 ff		 xor	 edi, edi
  0003b	8b d8		 mov	 ebx, eax
  0003d	d1 fb		 sar	 ebx, 1
  0003f	85 db		 test	 ebx, ebx
  00041	7e 31		 jle	 SHORT $LN3@set_party_
  00043	56		 push	 esi
$LL4@set_party_:

; 12023: 	{
; 12024: 		int index = atoi(array[2 * i]);

  00044	ff b4 fd 6c fe
	ff ff		 push	 DWORD PTR _array$[ebp+edi*8]
  0004b	e8 00 00 00 00	 call	 _atoi

; 12025: 		int image = atoi(array[2 * i + 1]);

  00050	ff b4 fd 70 fe
	ff ff		 push	 DWORD PTR _array$[ebp+edi*8+4]
  00057	8b f0		 mov	 esi, eax
  00059	e8 00 00 00 00	 call	 _atoi

; 12026: 		a1 = p_party[index];
; 12027: 		set_å…‰çŽ¯(image, a1);

  0005e	ff 34 b5 00 00
	00 00		 push	 DWORD PTR ?p_party@@3PAPAUaction@@A[esi*4]
  00065	50		 push	 eax
  00066	e8 00 00 00 00	 call	 ?set_ÎÃ?@@YAXHPAUaction@@@Z ; set_ÎÃ?
  0006b	47		 inc	 edi
  0006c	83 c4 10	 add	 esp, 16			; 00000010H
  0006f	3b fb		 cmp	 edi, ebx
  00071	7c d1		 jl	 SHORT $LL4@set_party_
  00073	5e		 pop	 esi
$LN3@set_party_:

; 12028: 	}
; 12029: 	*gStrå…‰çŽ¯ = 0;

  00074	5f		 pop	 edi
  00075	c6 05 00 00 00
	00 00		 mov	 BYTE PTR ?gStrÎÃ?@@3PADA, 0
  0007c	5b		 pop	 ebx
$LN1@set_party_:

; 12030: }

  0007d	8b 4d fc	 mov	 ecx, DWORD PTR __$ArrayPad$[ebp]
  00080	33 cd		 xor	 ecx, ebp
  00082	e8 00 00 00 00	 call	 @__security_check_cookie@4
  00087	8b e5		 mov	 esp, ebp
  00089	5d		 pop	 ebp
  0008a	c3		 ret	 0
?set_party_ÎÃ?@@YAXXZ ENDP				; set_party_ÎÃ?
_TEXT	ENDS
; Function compile flags: /Ogtp
; File C:\Users\gg862\OneDrive\¹ÙÅÁ È­¸é\¸¾Äí¿Ï·á\Client Source Code1.31ÀÏº»\oft\oft.cpp
;	COMDAT ?get_bc_asc_ridepet@@YAXPAUaction@@@Z
_TEXT	SEGMENT
tv208 = -4						; size = 4
_d0$ = 8						; size = 1
_a1$ = 8						; size = 4
?get_bc_asc_ridepet@@YAXPAUaction@@@Z PROC		; get_bc_asc_ridepet, COMDAT

; 11985: {

  00000	55		 push	 ebp
  00001	8b ec		 mov	 ebp, esp
  00003	51		 push	 ecx

; 11986: 	char d0;
; 11987: 	char *a2;
; 11988: 
; 11989: 	a2 = ATR_PETNAME(a1);
; 11990: 	while (1)
; 11991: 	{
; 11992: 		d0 = BattleStatus[bc_pointer++];		//?îž°?îŽ•?î?

  00004	a1 00 00 00 00	 mov	 eax, DWORD PTR ?bc_pointer@@3HA
  00009	8b 4d 08	 mov	 ecx, DWORD PTR _a1$[ebp]
  0000c	53		 push	 ebx
  0000d	81 c1 98 01 00
	00		 add	 ecx, 408		; 00000198H
  00013	8a 98 00 00 00
	00		 mov	 bl, BYTE PTR ?BattleStatus@@3PADA[eax]
  00019	40		 inc	 eax
  0001a	89 4d fc	 mov	 DWORD PTR tv208[ebp], ecx
  0001d	88 5d 08	 mov	 BYTE PTR _d0$[ebp], bl
  00020	a3 00 00 00 00	 mov	 DWORD PTR ?bc_pointer@@3HA, eax
  00025	56		 push	 esi
  00026	8b f1		 mov	 esi, ecx
  00028	57		 push	 edi

; 11993: 		if (d0 == NULL)

  00029	84 db		 test	 bl, bl
  0002b	74 3c		 je	 SHORT $LN11@get_bc_asc
  0002d	8b 3d 00 00 00
	00		 mov	 edi, DWORD PTR __imp__IsDBCSLeadByte@4
$LL2@get_bc_asc:

; 11996: 			break;
; 11997: 		}
; 11998: 		//?î“???
; 11999: 		if (d0 == '|')

  00033	80 fb 7c	 cmp	 bl, 124			; 0000007cH
  00036	74 4a		 je	 SHORT $LN15@get_bc_asc

; 12000: 			break;
; 12001: 		if (IsDBCSLeadByte(d0))

  00038	ff 75 08	 push	 DWORD PTR _d0$[ebp]
  0003b	ff d7		 call	 edi
  0003d	88 1e		 mov	 BYTE PTR [esi], bl
  0003f	46		 inc	 esi
  00040	85 c0		 test	 eax, eax
  00042	a1 00 00 00 00	 mov	 eax, DWORD PTR ?bc_pointer@@3HA
  00047	74 0a		 je	 SHORT $LN7@get_bc_asc

; 12002: 		{
; 12003: 			*a2++ = d0;
; 12004: 			*a2++ = BattleStatus[bc_pointer++];

  00049	8a 88 00 00 00
	00		 mov	 cl, BYTE PTR ?BattleStatus@@3PADA[eax]
  0004f	88 0e		 mov	 BYTE PTR [esi], cl
  00051	46		 inc	 esi
  00052	40		 inc	 eax
$LN7@get_bc_asc:

; 11986: 	char d0;
; 11987: 	char *a2;
; 11988: 
; 11989: 	a2 = ATR_PETNAME(a1);
; 11990: 	while (1)
; 11991: 	{
; 11992: 		d0 = BattleStatus[bc_pointer++];		//?îž°?îŽ•?î?

  00053	8a 98 00 00 00
	00		 mov	 bl, BYTE PTR ?BattleStatus@@3PADA[eax]
  00059	40		 inc	 eax
  0005a	88 5d 08	 mov	 BYTE PTR _d0$[ebp], bl
  0005d	a3 00 00 00 00	 mov	 DWORD PTR ?bc_pointer@@3HA, eax

; 11993: 		if (d0 == NULL)

  00062	84 db		 test	 bl, bl
  00064	75 cd		 jne	 SHORT $LL2@get_bc_asc
  00066	8b 4d fc	 mov	 ecx, DWORD PTR tv208[ebp]
$LN11@get_bc_asc:

; 11994: 		{	//îŽ·???
; 11995: 			bc_pointer--;

  00069	48		 dec	 eax

; 12005: 		}
; 12006: 		else
; 12007: 			*a2++ = d0;
; 12008: 	}
; 12009: 	//îŽ·????
; 12010: 	*a2 = 0;

  0006a	c6 06 00	 mov	 BYTE PTR [esi], 0

; 12011: 	makeStringFromEscaped(ATR_PETNAME(a1));

  0006d	51		 push	 ecx
  0006e	a3 00 00 00 00	 mov	 DWORD PTR ?bc_pointer@@3HA, eax
  00073	e8 00 00 00 00	 call	 ?makeStringFromEscaped@@YAPADPAD@Z ; makeStringFromEscaped
  00078	83 c4 04	 add	 esp, 4
  0007b	5f		 pop	 edi
  0007c	5e		 pop	 esi
  0007d	5b		 pop	 ebx

; 12012: }

  0007e	8b e5		 mov	 esp, ebp
  00080	5d		 pop	 ebp
  00081	c3		 ret	 0
$LN15@get_bc_asc:

; 11996: 			break;
; 11997: 		}
; 11998: 		//?î“???
; 11999: 		if (d0 == '|')

  00082	8b 4d fc	 mov	 ecx, DWORD PTR tv208[ebp]

; 12011: 	makeStringFromEscaped(ATR_PETNAME(a1));

  00085	51		 push	 ecx
  00086	c6 06 00	 mov	 BYTE PTR [esi], 0
  00089	e8 00 00 00 00	 call	 ?makeStringFromEscaped@@YAPADPAD@Z ; makeStringFromEscaped
  0008e	83 c4 04	 add	 esp, 4
  00091	5f		 pop	 edi
  00092	5e		 pop	 esi
  00093	5b		 pop	 ebx

; 12012: }

  00094	8b e5		 mov	 esp, ebp
  00096	5d		 pop	 ebp
  00097	c3		 ret	 0
?get_bc_asc_ridepet@@YAXPAUaction@@@Z ENDP		; get_bc_asc_ridepet
_TEXT	ENDS
; Function compile flags: /Ogtp
; File C:\Users\gg862\OneDrive\¹ÙÅÁ È­¸é\¸¾Äí¿Ï·á\Client Source Code1.31ÀÏº»\oft\oft.cpp
;	COMDAT ?get_bc_asc@@YAXPAUaction@@H@Z
_TEXT	SEGMENT
tv316 = -8						; size = 4
_d0$ = -4						; size = 1
_a1$ = 8						; size = 4
_flg$ = 12						; size = 4
?get_bc_asc@@YAXPAUaction@@H@Z PROC			; get_bc_asc, COMDAT

; 11947: {

  00000	55		 push	 ebp
  00001	8b ec		 mov	 ebp, esp
  00003	83 ec 08	 sub	 esp, 8

; 11948: 	char d0;
; 11949: 	char *a2;
; 11950: 
; 11951: 	if (flg == 0)
; 11952: 		a2 = ATR_HANDLE(a1);
; 11953: 	else
; 11954: 		a2 = ATR_TITLE(a1);
; 11955: 	while (1)
; 11956: 	{
; 11957: 		d0 = BattleStatus[bc_pointer++];		//?îž°?îŽ•?î?

  00006	8b 4d 0c	 mov	 ecx, DWORD PTR _flg$[ebp]
  00009	b8 55 00 00 00	 mov	 eax, 85			; 00000055H
  0000e	8b 55 08	 mov	 edx, DWORD PTR _a1$[ebp]
  00011	85 c9		 test	 ecx, ecx
  00013	53		 push	 ebx
  00014	56		 push	 esi
  00015	57		 push	 edi
  00016	bf 38 00 00 00	 mov	 edi, 56			; 00000038H
  0001b	8b f7		 mov	 esi, edi
  0001d	0f 45 f0	 cmovne	 esi, eax
  00020	a1 00 00 00 00	 mov	 eax, DWORD PTR ?bc_pointer@@3HA
  00025	03 f2		 add	 esi, edx
  00027	8a 98 00 00 00
	00		 mov	 bl, BYTE PTR ?BattleStatus@@3PADA[eax]
  0002d	40		 inc	 eax
  0002e	88 5d fc	 mov	 BYTE PTR _d0$[ebp], bl
  00031	a3 00 00 00 00	 mov	 DWORD PTR ?bc_pointer@@3HA, eax

; 11958: 		if (d0 == NULL)

  00036	84 db		 test	 bl, bl
  00038	74 46		 je	 SHORT $LN15@get_bc_asc
  0003a	a1 00 00 00 00	 mov	 eax, DWORD PTR __imp__IsDBCSLeadByte@4
  0003f	89 45 f8	 mov	 DWORD PTR tv316[ebp], eax
  00042	eb 03		 jmp	 SHORT $LN2@get_bc_asc
$LL19@get_bc_asc:
  00044	8b 45 f8	 mov	 eax, DWORD PTR tv316[ebp]
$LN2@get_bc_asc:

; 11961: 			break;
; 11962: 		}
; 11963: 		//?î“???
; 11964: 		if (d0 == '|')

  00047	80 fb 7c	 cmp	 bl, 124			; 0000007cH
  0004a	74 3c		 je	 SHORT $LN20@get_bc_asc

; 11965: 			break;
; 11966: 		if (IsDBCSLeadByte(d0))

  0004c	ff 75 fc	 push	 DWORD PTR _d0$[ebp]
  0004f	ff d0		 call	 eax
  00051	88 1e		 mov	 BYTE PTR [esi], bl
  00053	46		 inc	 esi
  00054	85 c0		 test	 eax, eax
  00056	a1 00 00 00 00	 mov	 eax, DWORD PTR ?bc_pointer@@3HA
  0005b	74 0a		 je	 SHORT $LN9@get_bc_asc

; 11967: 		{
; 11968: 			*a2++ = d0;
; 11969: 			*a2++ = BattleStatus[bc_pointer++];

  0005d	8a 88 00 00 00
	00		 mov	 cl, BYTE PTR ?BattleStatus@@3PADA[eax]
  00063	88 0e		 mov	 BYTE PTR [esi], cl
  00065	46		 inc	 esi
  00066	40		 inc	 eax
$LN9@get_bc_asc:

; 11948: 	char d0;
; 11949: 	char *a2;
; 11950: 
; 11951: 	if (flg == 0)
; 11952: 		a2 = ATR_HANDLE(a1);
; 11953: 	else
; 11954: 		a2 = ATR_TITLE(a1);
; 11955: 	while (1)
; 11956: 	{
; 11957: 		d0 = BattleStatus[bc_pointer++];		//?îž°?îŽ•?î?

  00067	8a 98 00 00 00
	00		 mov	 bl, BYTE PTR ?BattleStatus@@3PADA[eax]
  0006d	40		 inc	 eax
  0006e	88 5d fc	 mov	 BYTE PTR _d0$[ebp], bl
  00071	a3 00 00 00 00	 mov	 DWORD PTR ?bc_pointer@@3HA, eax

; 11958: 		if (d0 == NULL)

  00076	84 db		 test	 bl, bl
  00078	75 ca		 jne	 SHORT $LL19@get_bc_asc
  0007a	8b 4d 0c	 mov	 ecx, DWORD PTR _flg$[ebp]
  0007d	8b 55 08	 mov	 edx, DWORD PTR _a1$[ebp]
$LN15@get_bc_asc:

; 11959: 		{	//îŽ·???
; 11960: 			bc_pointer--;

  00080	48		 dec	 eax
  00081	a3 00 00 00 00	 mov	 DWORD PTR ?bc_pointer@@3HA, eax

; 11961: 			break;
; 11962: 		}
; 11963: 		//?î“???
; 11964: 		if (d0 == '|')

  00086	eb 06		 jmp	 SHORT $LN16@get_bc_asc
$LN20@get_bc_asc:
  00088	8b 4d 0c	 mov	 ecx, DWORD PTR _flg$[ebp]
  0008b	8b 55 08	 mov	 edx, DWORD PTR _a1$[ebp]
$LN16@get_bc_asc:

; 11970: 		}
; 11971: 		else
; 11972: 			*a2++ = d0;
; 11973: 	}
; 11974: 	//îŽ·????
; 11975: 	*a2 = 0;
; 11976: 	if (flg == 0)
; 11977: 		makeStringFromEscaped(ATR_HANDLE(a1));
; 11978: 	else
; 11979: 		makeStringFromEscaped(ATR_TITLE(a1));
; 11980: }

  0008e	85 c9		 test	 ecx, ecx
  00090	c6 06 00	 mov	 BYTE PTR [esi], 0
  00093	b8 55 00 00 00	 mov	 eax, 85			; 00000055H
  00098	0f 45 f8	 cmovne	 edi, eax
  0009b	03 fa		 add	 edi, edx
  0009d	57		 push	 edi
  0009e	e8 00 00 00 00	 call	 ?makeStringFromEscaped@@YAPADPAD@Z ; makeStringFromEscaped
  000a3	83 c4 04	 add	 esp, 4
  000a6	5f		 pop	 edi
  000a7	5e		 pop	 esi
  000a8	5b		 pop	 ebx
  000a9	8b e5		 mov	 esp, ebp
  000ab	5d		 pop	 ebp
  000ac	c3		 ret	 0
?get_bc_asc@@YAXPAUaction@@H@Z ENDP			; get_bc_asc
_TEXT	ENDS
; Function compile flags: /Ogtp
; File C:\Users\gg862\OneDrive\¹ÙÅÁ È­¸é\¸¾Äí¿Ï·á\Client Source Code1.31ÀÏº»\oft\oft.cpp
;	COMDAT ?get_bc_num@@YAHXZ
_TEXT	SEGMENT
tv289 = -4						; size = 4
?get_bc_num@@YAHXZ PROC					; get_bc_num, COMDAT

; 11902: {

  00000	55		 push	 ebp
  00001	8b ec		 mov	 ebp, esp
  00003	51		 push	 ecx

; 11903: 	int d0, d1;
; 11904: 
; 11905: 	while (1)
; 11906: 	{
; 11907: 		d0 = BattleStatus[bc_pointer++];		//?îž°?îŽ•?î?

  00004	8b 0d 00 00 00
	00		 mov	 ecx, DWORD PTR ?bc_pointer@@3HA
  0000a	56		 push	 esi
  0000b	0f be 81 00 00
	00 00		 movsx	 eax, BYTE PTR ?BattleStatus@@3PADA[ecx]
  00012	8d 51 01	 lea	 edx, DWORD PTR [ecx+1]
  00015	8b f2		 mov	 esi, edx

; 11908: 		if (d0 == NULL)

  00017	85 c0		 test	 eax, eax
  00019	74 27		 je	 SHORT $LN22@get_bc_num
  0001b	0f 1f 44 00 00	 npad	 5
$LL2@get_bc_num:

; 11912: 		}
; 11913: 		if (d0 >= '0' && d0 <= '9')		//???

  00020	83 f8 30	 cmp	 eax, 48			; 00000030H
  00023	7c 05		 jl	 SHORT $LN7@get_bc_num
  00025	83 f8 39	 cmp	 eax, 57			; 00000039H
  00028	7e 28		 jle	 SHORT $LN23@get_bc_num
$LN7@get_bc_num:

; 11914: 			break;						//??????
; 11915: 		if (d0 >= 'A' && d0 <= 'F')		//?????

  0002a	83 f8 41	 cmp	 eax, 65			; 00000041H
  0002d	7c 05		 jl	 SHORT $LN8@get_bc_num
  0002f	83 f8 46	 cmp	 eax, 70			; 00000046H
  00032	7e 1e		 jle	 SHORT $LN23@get_bc_num
$LN8@get_bc_num:

; 11903: 	int d0, d1;
; 11904: 
; 11905: 	while (1)
; 11906: 	{
; 11907: 		d0 = BattleStatus[bc_pointer++];		//?îž°?îŽ•?î?

  00034	0f be 82 00 00
	00 00		 movsx	 eax, BYTE PTR ?BattleStatus@@3PADA[edx]
  0003b	42		 inc	 edx
  0003c	8b f2		 mov	 esi, edx

; 11908: 		if (d0 == NULL)

  0003e	85 c0		 test	 eax, eax
  00040	75 de		 jne	 SHORT $LL2@get_bc_num
$LN22@get_bc_num:

; 11909: 		{	//îŽ·???
; 11910: 			bc_pointer--;

  00042	8d 46 ff	 lea	 eax, DWORD PTR [esi-1]
  00045	a3 00 00 00 00	 mov	 DWORD PTR ?bc_pointer@@3HA, eax

; 11911: 			return -1;

  0004a	83 c8 ff	 or	 eax, -1
  0004d	5e		 pop	 esi

; 11943: }

  0004e	8b e5		 mov	 esp, ebp
  00050	5d		 pop	 ebp
  00051	c3		 ret	 0
$LN23@get_bc_num:

; 11916: 			break;						//??????
; 11917: 	}
; 11918: 	if (d0 >= 'A')		//?????
; 11919: 		d1 = d0 - 'A' + 10;
; 11920: 	else
; 11921: 		d1 = d0 - '0';
; 11922: 
; 11923: 	while (1)
; 11924: 	{
; 11925: 		d0 = BattleStatus[bc_pointer++];		//?îž°????îŽ•?î?

  00052	0f be 92 00 00
	00 00		 movsx	 edx, BYTE PTR ?BattleStatus@@3PADA[edx]
  00059	83 f8 41	 cmp	 eax, 65			; 00000041H
  0005c	53		 push	 ebx
  0005d	bb 30 00 00 00	 mov	 ebx, 48			; 00000030H
  00062	b9 37 00 00 00	 mov	 ecx, 55			; 00000037H
  00067	0f 4c cb	 cmovl	 ecx, ebx
  0006a	89 5d fc	 mov	 DWORD PTR tv289[ebp], ebx
  0006d	46		 inc	 esi
  0006e	2b c1		 sub	 eax, ecx
  00070	89 35 00 00 00
	00		 mov	 DWORD PTR ?bc_pointer@@3HA, esi
  00076	8b de		 mov	 ebx, esi
  00078	57		 push	 edi

; 11926: 		if (d0 == NULL)

  00079	85 d2		 test	 edx, edx
  0007b	74 3e		 je	 SHORT $LN25@get_bc_num
  0007d	0f 1f 00	 npad	 3
$LL4@get_bc_num:

; 11929: 			break;
; 11930: 		}
; 11931: 		if (d0 < '0' || d0 > '9')

  00080	8b fa		 mov	 edi, edx
  00082	83 fa 30	 cmp	 edx, 48			; 00000030H
  00085	7c 05		 jl	 SHORT $LN13@get_bc_num
  00087	83 fa 39	 cmp	 edx, 57			; 00000039H
  0008a	7e 08		 jle	 SHORT $LN14@get_bc_num
$LN13@get_bc_num:

; 11932: 		{	//??????
; 11933: 			if (d0 < 'A' || d0 > 'F')		//????????

  0008c	8d 4a bf	 lea	 ecx, DWORD PTR [edx-65]
  0008f	83 f9 05	 cmp	 ecx, 5
  00092	77 30		 ja	 SHORT $LN26@get_bc_num
$LN14@get_bc_num:

; 11916: 			break;						//??????
; 11917: 	}
; 11918: 	if (d0 >= 'A')		//?????
; 11919: 		d1 = d0 - 'A' + 10;
; 11920: 	else
; 11921: 		d1 = d0 - '0';
; 11922: 
; 11923: 	while (1)
; 11924: 	{
; 11925: 		d0 = BattleStatus[bc_pointer++];		//?îž°????îŽ•?î?

  00094	0f be 96 00 00
	00 00		 movsx	 edx, BYTE PTR ?BattleStatus@@3PADA[esi]
  0009b	b9 37 00 00 00	 mov	 ecx, 55			; 00000037H
  000a0	46		 inc	 esi
  000a1	83 ff 41	 cmp	 edi, 65			; 00000041H
  000a4	89 35 00 00 00
	00		 mov	 DWORD PTR ?bc_pointer@@3HA, esi
  000aa	8b de		 mov	 ebx, esi
  000ac	0f 4c 4d fc	 cmovl	 ecx, DWORD PTR tv289[ebp]

; 11934: 				break;						//îŽ·?
; 11935: 		}
; 11936: 		d1 = d1 << 4;		//???????

  000b0	c1 e0 04	 shl	 eax, 4
  000b3	2b c1		 sub	 eax, ecx
  000b5	03 c7		 add	 eax, edi
  000b7	85 d2		 test	 edx, edx
  000b9	75 c5		 jne	 SHORT $LL4@get_bc_num
$LN25@get_bc_num:

; 11927: 		{	//îŽ·???
; 11928: 			bc_pointer--;

  000bb	8d 4b ff	 lea	 ecx, DWORD PTR [ebx-1]
  000be	89 0d 00 00 00
	00		 mov	 DWORD PTR ?bc_pointer@@3HA, ecx
$LN26@get_bc_num:

; 11937: 		if (d0 >= 'A')		//?????
; 11938: 			d1 += d0 - 'A' + 10;
; 11939: 		else
; 11940: 			d1 += d0 - '0';
; 11941: 	}
; 11942: 	return d1;

  000c4	5f		 pop	 edi
  000c5	5b		 pop	 ebx
  000c6	5e		 pop	 esi

; 11943: }

  000c7	8b e5		 mov	 esp, ebp
  000c9	5d		 pop	 ebp
  000ca	c3		 ret	 0
?get_bc_num@@YAHXZ ENDP					; get_bc_num
_TEXT	ENDS
; Function compile flags: /Ogtp
; File C:\Users\gg862\OneDrive\¹ÙÅÁ È­¸é\¸¾Äí¿Ï·á\Client Source Code1.31ÀÏº»\oft\oft.cpp
;	COMDAT ?master@@YAXPAUaction@@@Z
_TEXT	SEGMENT
_d3$2$ = -28						; size = 4
tv5562 = -28						; size = 4
_a2$5$ = -24						; size = 4
_a3$1$ = -24						; size = 4
_param$1$ = -24						; size = 4
tv5569 = -24						; size = 4
_d7$3$ = -20						; size = 4
_d7$1$ = -20						; size = 4
_d3$1$ = -16						; size = 4
_a3$2$ = -16						; size = 4
_a2$1$ = -12						; size = 4
_d1$ = -8						; size = 4
_d0$ = -4						; size = 4
_d2$2$ = 8						; size = 4
_d2$1$ = 8						; size = 4
_effect_anim$1$ = 8					; size = 4
tv5504 = 8						; size = 4
_a2$ = 8						; size = 4
_a0$ = 8						; size = 4
?master@@YAXPAUaction@@@Z PROC				; master, COMDAT

; 5068 : {

  00000	55		 push	 ebp
  00001	8b ec		 mov	 ebp, esp
  00003	83 ec 1c	 sub	 esp, 28			; 0000001cH
  00006	53		 push	 ebx
  00007	56		 push	 esi
  00008	57		 push	 edi

; 5069 : 	ACTION *a1, *a2, *a3;
; 5070 : 	int d0, d1, d2, d3, d6, d7;
; 5071 : 	int z = 0;
; 5072 : 	int jjj = 0;
; 5073 : 	int command_no;
; 5074 : 	int sav_command_point, castflg = 0;
; 5075 : 	int petfall_flg = 0;
; 5076 : 
; 5077 : 	static int åˆå§‹åŒ– = 0;
; 5078 : 
; 5079 : 	//å±žæ€§è¡¨ç¤º
; 5080 : 	disp_attrib(a0);

  00009	8b 7d 08	 mov	 edi, DWORD PTR _a0$[ebp]
  0000c	57		 push	 edi
  0000d	e8 00 00 00 00	 call	 ?disp_attrib@@YAXPAUaction@@@Z ; disp_attrib

; 5081 : 	if (ATR_VCT_NO(a0) == 0)	// å‘½ä»¤ç¡®è®¤

  00012	8b 77 0c	 mov	 esi, DWORD PTR [edi+12]
  00015	83 c4 04	 add	 esp, 4
  00018	89 75 e8	 mov	 DWORD PTR tv5569[ebp], esi
  0001b	8a 06		 mov	 al, BYTE PTR [esi]
  0001d	84 c0		 test	 al, al
  0001f	75 0c		 jne	 SHORT $LN67@master

; 5082 : 	{
; 5083 : 		if (BattleCmd[0] == NULL)		//æˆ˜æ–—å‘½ä»¤ç¡®è®¤

  00021	38 05 00 00 00
	00		 cmp	 BYTE PTR ?BattleCmd@@3PADA, al
  00027	0f 84 51 18 00
	00		 je	 $master_500$370
$LN67@master:

; 5084 : 			goto master_500;
; 5085 : 	}
; 5086 : 	switch (ATR_VCT_NO(a0))

  0002d	0f b6 c0	 movzx	 eax, al
  00030	83 f8 04	 cmp	 eax, 4
  00033	0f 87 45 18 00
	00		 ja	 $master_500$370
  00039	ff 24 85 00 00
	00 00		 jmp	 DWORD PTR $LN353@master[eax*4]
$LN69@master:

; 5087 : 	{
; 5088 : 	case 0:
; 5089 : 		sav_command_point = command_point;
; 5090 : 		command_no = get_command();

  00040	e8 00 00 00 00	 call	 ?get_command@@YADXZ	; get_command
  00045	0f be d8	 movsx	 ebx, al

; 5091 : 		if (command_no == -1){

  00048	83 fb ff	 cmp	 ebx, -1
  0004b	0f 84 e9 16 00
	00		 je	 $LN352@master

; 5092 : 			ATR_VCT_NO(a0) = 4;
; 5093 : 			command_point = 0;
; 5094 : 			break;
; 5095 : 		}
; 5096 : 		if (command_no == ATT_KANJI){

  00051	83 fb 4b	 cmp	 ebx, 75			; 0000004bH
  00054	0f 85 f2 00 00
	00		 jne	 $LN71@master

; 5097 : 			if (p_kanji != NULL){

  0005a	a1 00 00 00 00	 mov	 eax, DWORD PTR ?p_kanji@@3PAUaction@@A
  0005f	85 c0		 test	 eax, eax
  00061	74 10		 je	 SHORT $LN72@master

; 5098 : 				a1 = ATR_BODY_WORK(0, p_kanji);
; 5099 : 				DeathAction(a1);

  00063	8b 40 0c	 mov	 eax, DWORD PTR [eax+12]
  00066	ff 70 04	 push	 DWORD PTR [eax+4]
  00069	e8 00 00 00 00	 call	 ?DeathAction@@YAXPAUaction@@@Z ; DeathAction
  0006e	83 c4 04	 add	 esp, 4

; 5100 : 			}else{

  00071	eb 1c		 jmp	 SHORT $LN74@master
$LN72@master:

; 5101 : 				p_kanji = GetAction(T_PRIO_MISSILE, sizeof(ATR_EQU));

  00073	68 60 02 00 00	 push	 608			; 00000260H
  00078	6a 47		 push	 71			; 00000047H
  0007a	e8 00 00 00 00	 call	 ?GetAction@@YAPAUaction@@EI@Z ; GetAction
  0007f	83 c4 08	 add	 esp, 8
  00082	a3 00 00 00 00	 mov	 DWORD PTR ?p_kanji@@3PAUaction@@A, eax

; 5102 : 				if (p_kanji == NULL)

  00087	85 c0		 test	 eax, eax
  00089	0f 84 f7 18 00
	00		 je	 $LN64@master
$LN74@master:

; 5103 : 					return;
; 5104 : 			}
; 5105 : 			//ä¸­æ–‡BOXåšæˆ
; 5106 : 			a1 = MakeWindowDisp(640 - 4 - 64 * 4, 4, 4, 2, 0, 2);

  0008f	6a 02		 push	 2
  00091	6a 00		 push	 0
  00093	6a 02		 push	 2
  00095	6a 04		 push	 4
  00097	6a 04		 push	 4
  00099	68 7c 01 00 00	 push	 380			; 0000017cH
  0009e	e8 00 00 00 00	 call	 ?MakeWindowDisp@@YAPAUaction@@HHHHHH@Z ; MakeWindowDisp
  000a3	83 c4 18	 add	 esp, 24			; 00000018H

; 5107 : 			//è®°å¿†ä½“ä¸è¶³äº§ç”Ÿå¤±è´¥
; 5108 : 			if (a1 == NULL)

  000a6	85 c0		 test	 eax, eax
  000a8	0f 84 d8 18 00
	00		 je	 $LN64@master

; 5109 : 				return;
; 5110 : 			ATR_BODY_WORK(0, p_kanji) = a1;

  000ae	8b 15 00 00 00
	00		 mov	 edx, DWORD PTR ?p_kanji@@3PAUaction@@A

; 5111 : 			ATR_NAME(p_kanji) = disp_kanji;
; 5112 : 			ATR_ATTRIB(p_kanji) = ACT_ATR_HIDE;
; 5113 : 			play_se(202, 320, 240);

  000b4	68 f0 00 00 00	 push	 240			; 000000f0H
  000b9	68 40 01 00 00	 push	 320			; 00000140H
  000be	68 ca 00 00 00	 push	 202			; 000000caH
  000c3	8b 4a 0c	 mov	 ecx, DWORD PTR [edx+12]
  000c6	89 41 04	 mov	 DWORD PTR [ecx+4], eax
  000c9	c7 42 08 00 00
	00 00		 mov	 DWORD PTR [edx+8], OFFSET ?disp_kanji@@YAXPAUaction@@@Z ; disp_kanji
  000d0	c7 82 a4 00 00
	00 02 00 00 00	 mov	 DWORD PTR [edx+164], 2
  000da	e8 00 00 00 00	 call	 ?play_se@@YAHHHH@Z	; play_se

; 5114 : 			command_point++;

  000df	ff 05 00 00 00
	00		 inc	 DWORD PTR ?command_point@@3HA
  000e5	83 c4 0c	 add	 esp, 12			; 0000000cH

; 5115 : 			get_command_asc();

  000e8	e8 00 00 00 00	 call	 ?get_command_asc@@YAXXZ	; get_command_asc

; 5116 : 			d0 = 60;

  000ed	b9 3c 00 00 00	 mov	 ecx, 60			; 0000003cH
  000f2	b8 00 00 00 00	 mov	 eax, OFFSET ?kanji_buf@@3PAY0IA@DA
  000f7	89 4d fc	 mov	 DWORD PTR _d0$[ebp], ecx
  000fa	66 0f 1f 44 00
	00		 npad	 6
$LL6@master:

; 5118 : 				if (kanji_buf[d7][0])

  00100	80 38 00	 cmp	 BYTE PTR [eax], 0
  00103	74 03		 je	 SHORT $LN4@master

; 5119 : 					d0 += 60;

  00105	83 c1 3c	 add	 ecx, 60			; 0000003cH
$LN4@master:

; 5117 : 			for (d7 = 0; d7 < 4; d7++){

  00108	83 e8 80	 sub	 eax, -128		; ffffff80H
  0010b	3d 00 02 00 00	 cmp	 eax, OFFSET ?kanji_buf@@3PAY0IA@DA+512
  00110	7c ee		 jl	 SHORT $LL6@master

; 5120 : 			}
; 5121 : 			ATR_INT_WORK0(p_kanji) = d0;

  00112	a1 00 00 00 00	 mov	 eax, DWORD PTR ?p_kanji@@3PAUaction@@A
  00117	89 4d fc	 mov	 DWORD PTR _d0$[ebp], ecx
  0011a	8b 40 0c	 mov	 eax, DWORD PTR [eax+12]
  0011d	89 88 24 01 00
	00		 mov	 DWORD PTR [eax+292], ecx

; 5122 : 			ATR_VCT_NO(a0) = 1;

  00123	8b 47 0c	 mov	 eax, DWORD PTR [edi+12]
  00126	c6 00 01	 mov	 BYTE PTR [eax], 1

; 5123 : 			ATR_BODY_CNT(a0) = 1;

  00129	8b 47 0c	 mov	 eax, DWORD PTR [edi+12]
  0012c	c6 40 54 01	 mov	 BYTE PTR [eax+84], 1

; 5124 : 			ATR_DAMAGE(a0) = 0;

  00130	8b 47 0c	 mov	 eax, DWORD PTR [edi+12]
  00133	c7 40 58 00 00
	00 00		 mov	 DWORD PTR [eax+88], 0

; 5125 : 			ATR_PET_DAMAGE(a0) = 0;

  0013a	8b 47 0c	 mov	 eax, DWORD PTR [edi+12]
  0013d	c7 80 24 02 00
	00 00 00 00 00	 mov	 DWORD PTR [eax+548], 0

; 5126 : 			break;

  00147	e9 32 17 00 00	 jmp	 $master_500$370
$LN71@master:

; 5127 : 		}
; 5128 : 		if (command_no == ATT_EFFECT){

  0014c	83 fb 6a	 cmp	 ebx, 106		; 0000006aH
  0014f	75 78		 jne	 SHORT $LN77@master

; 5129 : #ifdef __NEW_BATTLE_EFFECT
; 5130 : 			// Bj | target(who) | effect(effect no) | effect_anim | param | .... | FF
; 5131 : 			ACTION *target = NULL;
; 5132 : 			int who;
; 5133 : 			int effect;
; 5134 : 			int effect_anim;
; 5135 : 			int param;
; 5136 : 
; 5137 : 			ATR_VCT_NO(a0) = 1;

  00151	c6 06 01	 mov	 BYTE PTR [esi], 1

; 5138 : 			while (1){
; 5139 : 				who = get_num();

  00154	e8 00 00 00 00	 call	 ?get_num@@YAHXZ		; get_num
  00159	8b f0		 mov	 esi, eax

; 5140 : 				if (who == 255)

  0015b	81 fe ff 00 00
	00		 cmp	 esi, 255		; 000000ffH
  00161	0f 84 17 17 00
	00		 je	 $master_500$370
$LL7@master:

; 5141 : 					break;
; 5142 : 				effect = get_num();			//ç‰¹æ•ˆçš„ç¼–å·

  00167	e8 00 00 00 00	 call	 ?get_num@@YAHXZ		; get_num
  0016c	8b d8		 mov	 ebx, eax

; 5143 : 				effect_anim = get_num();	//ç‰¹æ•ˆçš„åŠ¨ç”»

  0016e	e8 00 00 00 00	 call	 ?get_num@@YAHXZ		; get_num
  00173	89 45 08	 mov	 DWORD PTR _effect_anim$1$[ebp], eax

; 5144 : 				param = get_num();			//å‚æ•°

  00176	e8 00 00 00 00	 call	 ?get_num@@YAHXZ		; get_num
  0017b	89 45 e8	 mov	 DWORD PTR _param$1$[ebp], eax

; 5145 : 
; 5146 : 				target = NULL;
; 5147 : 				if (who < BATTLKPKPLYAERNUM)

  0017e	83 fe 14	 cmp	 esi, 20			; 00000014H
  00181	7d 32		 jge	 SHORT $LN80@master

; 5148 : 					target = p_party[who];

  00183	8b 14 b5 00 00
	00 00		 mov	 edx, DWORD PTR ?p_party@@3PAPAUaction@@A[esi*4]

; 5149 : 				if (target){

  0018a	85 d2		 test	 edx, edx
  0018c	74 27		 je	 SHORT $LN80@master

; 5150 : 					ATR_EFFECT_FLAG(target) = effect;

  0018e	8b 4a 0c	 mov	 ecx, DWORD PTR [edx+12]
  00191	89 99 48 02 00
	00		 mov	 DWORD PTR [ecx+584], ebx

; 5151 : 					ATR_EFFECT_ANIM(target) = effect_anim;

  00197	8b 42 0c	 mov	 eax, DWORD PTR [edx+12]
  0019a	8b 4d 08	 mov	 ecx, DWORD PTR _effect_anim$1$[ebp]
  0019d	89 88 4c 02 00
	00		 mov	 DWORD PTR [eax+588], ecx

; 5152 : 					ATR_EFFECT_PARAM(target) = param;

  001a3	8b 42 0c	 mov	 eax, DWORD PTR [edx+12]
  001a6	8b 4d e8	 mov	 ecx, DWORD PTR _param$1$[ebp]
  001a9	89 88 50 02 00
	00		 mov	 DWORD PTR [eax+592], ecx

; 5153 : 					ATR_BODY_CNT(a0)++;

  001af	8b 47 0c	 mov	 eax, DWORD PTR [edi+12]
  001b2	fe 40 54	 inc	 BYTE PTR [eax+84]
$LN80@master:

; 5138 : 			while (1){
; 5139 : 				who = get_num();

  001b5	e8 00 00 00 00	 call	 ?get_num@@YAHXZ		; get_num
  001ba	8b f0		 mov	 esi, eax

; 5140 : 				if (who == 255)

  001bc	81 fe ff 00 00
	00		 cmp	 esi, 255		; 000000ffH
  001c2	75 a3		 jne	 SHORT $LL7@master

; 5154 : 				}
; 5155 : 			}
; 5156 : #endif
; 5157 : 			break;

  001c4	e9 b5 16 00 00	 jmp	 $master_500$370
$LN77@master:

; 5158 : 		}
; 5159 : #ifdef _PETSKILL_BATTLE_MODEL
; 5160 : 		if (command_no == ATT_BATTLE_MODEL)			// å® ç‰©æŠ€èƒ½æˆ˜æ–—æ¨¡ç»„

  001c9	83 fb 62	 cmp	 ebx, 98			; 00000062H
  001cc	0f 85 ed 03 00
	00		 jne	 $LN81@master

; 5161 : 		{
; 5162 : 			ATR_VCT_NO(a0) = 1;

  001d2	c6 06 01	 mov	 BYTE PTR [esi], 1
  001d5	be 00 00 00 00	 mov	 esi, OFFSET ?p_party@@3PAPAUaction@@A

; 5163 : 			ATR_PET_DAMAGE(a0) = 0;

  001da	8b 47 0c	 mov	 eax, DWORD PTR [edi+12]
  001dd	c7 80 24 02 00
	00 00 00 00 00	 mov	 DWORD PTR [eax+548], 0
$LL11@master:

; 5164 : 			for (d7 = 0; d7 < BATTLKPKPLYAERNUM; d7++)
; 5165 : 			{
; 5166 : 				ATR_SYNC_FLG(p_party[d7]) = 0;

  001e7	8b 06		 mov	 eax, DWORD PTR [esi]

; 5167 : 				ATR_ATTACK_KIND(0, p_party[d7]) = 0;
; 5168 : 				ATR_ATTACK_KIND(1, p_party[d7]) = 0;
; 5169 : 				ATR_ATTACK_POW(0, p_party[d7]) = 0;
; 5170 : 				ATR_ATTACK_PET_POW(0, p_party[d7]) = 0;
; 5171 : 				ATR_MPDAMAGE(p_party[d7]) = 0;
; 5172 : 				ATR_MPDFLG(p_party[d7]) = 0;
; 5173 : 				ATR_ADDHP(p_party[d7]) = 0;
; 5174 : 				ATR_ADDHPFLG(p_party[d7])=0;
; 5175 : 				ATR_SHOWADDHP(p_party[d7])=0;
; 5176 : 				ATR_LONG_WORK(0, p_party[d7]) = 0;
; 5177 : 				ATR_BATTLE_MODEL(p_party[d7]) = 0;
; 5178 : 				memset(&ATR_BODY_WORK(0, p_party[d7]), 0, sizeof(ACTION*) * 20);

  001e9	6a 50		 push	 80			; 00000050H
  001eb	6a 00		 push	 0
  001ed	8b 40 0c	 mov	 eax, DWORD PTR [eax+12]
  001f0	c6 80 23 01 00
	00 00		 mov	 BYTE PTR [eax+291], 0
  001f7	8b 06		 mov	 eax, DWORD PTR [esi]
  001f9	8b 40 0c	 mov	 eax, DWORD PTR [eax+12]
  001fc	c7 40 60 00 00
	00 00		 mov	 DWORD PTR [eax+96], 0
  00203	8b 06		 mov	 eax, DWORD PTR [esi]
  00205	8b 40 0c	 mov	 eax, DWORD PTR [eax+12]
  00208	c7 40 64 00 00
	00 00		 mov	 DWORD PTR [eax+100], 0
  0020f	8b 06		 mov	 eax, DWORD PTR [esi]
  00211	8b 40 0c	 mov	 eax, DWORD PTR [eax+12]
  00214	c7 80 b0 00 00
	00 00 00 00 00	 mov	 DWORD PTR [eax+176], 0
  0021e	8b 06		 mov	 eax, DWORD PTR [esi]
  00220	8b 40 0c	 mov	 eax, DWORD PTR [eax+12]
  00223	c7 80 d4 01 00
	00 00 00 00 00	 mov	 DWORD PTR [eax+468], 0
  0022d	8b 06		 mov	 eax, DWORD PTR [esi]
  0022f	8b 40 0c	 mov	 eax, DWORD PTR [eax+12]
  00232	c7 80 30 02 00
	00 00 00 00 00	 mov	 DWORD PTR [eax+560], 0
  0023c	8b 06		 mov	 eax, DWORD PTR [esi]
  0023e	8b 40 0c	 mov	 eax, DWORD PTR [eax+12]
  00241	c7 80 38 02 00
	00 00 00 00 00	 mov	 DWORD PTR [eax+568], 0
  0024b	8b 06		 mov	 eax, DWORD PTR [esi]
  0024d	8b 40 0c	 mov	 eax, DWORD PTR [eax+12]
  00250	c7 80 34 02 00
	00 00 00 00 00	 mov	 DWORD PTR [eax+564], 0
  0025a	8b 06		 mov	 eax, DWORD PTR [esi]
  0025c	8b 40 0c	 mov	 eax, DWORD PTR [eax+12]
  0025f	c7 80 3c 02 00
	00 00 00 00 00	 mov	 DWORD PTR [eax+572], 0
  00269	8b 06		 mov	 eax, DWORD PTR [esi]
  0026b	8b 40 0c	 mov	 eax, DWORD PTR [eax+12]
  0026e	c7 80 40 02 00
	00 00 00 00 00	 mov	 DWORD PTR [eax+576], 0
  00278	8b 06		 mov	 eax, DWORD PTR [esi]
  0027a	8b 40 0c	 mov	 eax, DWORD PTR [eax+12]
  0027d	c7 80 34 01 00
	00 00 00 00 00	 mov	 DWORD PTR [eax+308], 0
  00287	8b 06		 mov	 eax, DWORD PTR [esi]
  00289	8b 40 0c	 mov	 eax, DWORD PTR [eax+12]
  0028c	c7 80 58 02 00
	00 00 00 00 00	 mov	 DWORD PTR [eax+600], 0
  00296	8b 06		 mov	 eax, DWORD PTR [esi]
  00298	8b 40 0c	 mov	 eax, DWORD PTR [eax+12]
  0029b	83 c0 04	 add	 eax, 4
  0029e	50		 push	 eax
  0029f	e8 00 00 00 00	 call	 _memset

; 5179 : 				memset(p_missile, 0, sizeof(p_missile));

  002a4	6a 54		 push	 84			; 00000054H
  002a6	6a 00		 push	 0
  002a8	68 00 00 00 00	 push	 OFFSET ?p_missile@@3PAPAUaction@@A
  002ad	e8 00 00 00 00	 call	 _memset
  002b2	83 c6 04	 add	 esi, 4
  002b5	83 c4 18	 add	 esp, 24			; 00000018H
  002b8	81 fe 50 00 00
	00		 cmp	 esi, OFFSET ?p_party@@3PAPAUaction@@A+80
  002be	0f 8c 23 ff ff
	ff		 jl	 $LL11@master

; 5180 : 			}
; 5181 : 			d7 = 0;

  002c4	c7 45 ec 00 00
	00 00		 mov	 DWORD PTR _d7$1$[ebp], 0

; 5182 : 			// å…ˆå–å‡ºæ”»å‡»çš„å® ç‰©ç¼–å·
; 5183 : 			d0 = get_num();

  002cb	e8 00 00 00 00	 call	 ?get_num@@YAHXZ		; get_num
  002d0	89 45 fc	 mov	 DWORD PTR _d0$[ebp], eax

; 5184 : 			a3 = p_party[d0];
; 5185 : 			// åˆ¤æ–­æ”»å‡»æ–¹æ˜¯å·¦ä¸Šè¿˜å³ä¸‹æ¥??åˆå§‹ä½ç½®
; 5186 : 			if (ATR_GROUP_FLG(a3) == 0){

  002d3	33 d2		 xor	 edx, edx
  002d5	8b 04 85 00 00
	00 00		 mov	 eax, DWORD PTR ?p_party@@3PAPAUaction@@A[eax*4]
  002dc	89 45 e8	 mov	 DWORD PTR _a3$1$[ebp], eax
  002df	8b 40 0c	 mov	 eax, DWORD PTR [eax+12]
  002e2	8a 48 5e	 mov	 cl, BYTE PTR [eax+94]
  002e5	b8 0a 00 00 00	 mov	 eax, 10			; 0000000aH
  002ea	84 c9		 test	 cl, cl
  002ec	0f 44 c2	 cmove	 eax, edx
  002ef	89 45 fc	 mov	 DWORD PTR _d0$[ebp], eax

; 5187 : 				d2 = 3;	// å³ä¸‹
; 5188 : 				d0 = 0;
; 5189 : 			}else{
; 5190 : 				d2 = 7; // å·¦ä¸Š
; 5191 : 				d0 = 10;
; 5192 : 			}
; 5193 : 			// å–å‡ºç›®æ ‡æ”»å‡»ç‰©ä»¶ç¼–å·
; 5194 : 			a1 = NULL;

  002f2	33 c0		 xor	 eax, eax
  002f4	84 c9		 test	 cl, cl
  002f6	0f 95 c0	 setne	 al
  002f9	33 db		 xor	 ebx, ebx
  002fb	8d 04 85 03 00
	00 00		 lea	 eax, DWORD PTR [eax*4+3]
  00302	89 45 e4	 mov	 DWORD PTR tv5562[ebp], eax

; 5195 : 			while ((d6 = get_num()) != 255){

  00305	e8 00 00 00 00	 call	 ?get_num@@YAHXZ		; get_num
  0030a	3d ff 00 00 00	 cmp	 eax, 255		; 000000ffH
  0030f	0f 84 6f 02 00
	00		 je	 $LN287@master

; 5187 : 				d2 = 3;	// å³ä¸‹
; 5188 : 				d0 = 0;
; 5189 : 			}else{
; 5190 : 				d2 = 7; // å·¦ä¸Š
; 5191 : 				d0 = 10;
; 5192 : 			}
; 5193 : 			// å–å‡ºç›®æ ‡æ”»å‡»ç‰©ä»¶ç¼–å·
; 5194 : 			a1 = NULL;

  00315	8d 7b 01	 lea	 edi, DWORD PTR [ebx+1]
  00318	0f 1f 84 00 00
	00 00 00	 npad	 8
$LL12@master:

; 5196 : 				a1 = p_party[d6];

  00320	8b 1c 85 00 00
	00 00		 mov	 ebx, DWORD PTR ?p_party@@3PAPAUaction@@A[eax*4]

; 5197 : 				if (ATR_VCT_NO(a1) != 55)

  00327	8b 43 0c	 mov	 eax, DWORD PTR [ebx+12]
  0032a	80 38 37	 cmp	 BYTE PTR [eax], 55	; 00000037H
  0032d	74 0a		 je	 SHORT $LN84@master

; 5198 : 					ATR_FIRST_FLG(a1) = 0;

  0032f	c6 80 1e 01 00
	00 00		 mov	 BYTE PTR [eax+286], 0
  00336	8b 43 0c	 mov	 eax, DWORD PTR [ebx+12]
$LN84@master:

; 5199 : 				ATR_ATTACK_KIND(2, a1) = 0;

  00339	c7 40 68 00 00
	00 00		 mov	 DWORD PTR [eax+104], 0

; 5200 : 				d3 = get_num();			// å–å‡ºæ”»å‡»ç‰©ä»¶ç¼–å·

  00340	e8 00 00 00 00	 call	 ?get_num@@YAHXZ		; get_num
  00345	89 45 f0	 mov	 DWORD PTR _d3$1$[ebp], eax

; 5201 : 				// åˆ¤æ–­ p_missile[d3] æœ‰æ²¡æœ‰åœ¨ä½¿ç”¨
; 5202 : 				// æœ‰ä½¿ç”¨,è¡¨ç¤ºè¿™ä¸ªæ”»å‡»ç‰©ä»¶è¦æ”»å‡»å¤æ•°ç›®æ ‡
; 5203 : 				if (p_missile[d3] != NULL){

  00348	8b 14 85 00 00
	00 00		 mov	 edx, DWORD PTR ?p_missile@@3PAPAUaction@@A[eax*4]
  0034f	89 55 f4	 mov	 DWORD PTR _a2$1$[ebp], edx
  00352	85 d2		 test	 edx, edx
  00354	0f 84 c1 00 00
	00		 je	 $LN85@master

; 5204 : 					a2 = p_missile[d3];
; 5205 : 					ATR_BODY_WORK(ATR_INT_WORK1(a2), a2) = a1;				// è¢«æ”»æ–¹

  0035a	8b 4a 0c	 mov	 ecx, DWORD PTR [edx+12]
  0035d	8b 81 28 01 00
	00		 mov	 eax, DWORD PTR [ecx+296]
  00363	89 5c 81 04	 mov	 DWORD PTR [ecx+eax*4+4], ebx

; 5206 : 					ATR_BATTLE_MODEL(a1) = ATT_BATTLE_MODEL;				// æ­¤ç›®æ ‡æ˜¯è¢« ATT_BATTLE_MODEL åž‹æ€æ”»å‡»

  00367	8b 43 0c	 mov	 eax, DWORD PTR [ebx+12]
  0036a	c7 80 58 02 00
	00 62 00 00 00	 mov	 DWORD PTR [eax+600], 98	; 00000062H

; 5207 : 					ATR_ATTACK_KIND(ATR_INT_WORK1(a2), a2) = get_num();		// æ”»å‡»ç§ç±»

  00374	8b 72 0c	 mov	 esi, DWORD PTR [edx+12]
  00377	e8 00 00 00 00	 call	 ?get_num@@YAHXZ		; get_num
  0037c	8b 8e 28 01 00
	00		 mov	 ecx, DWORD PTR [esi+296]
  00382	89 44 8e 60	 mov	 DWORD PTR [esi+ecx*4+96], eax

; 5208 : 					ATR_ATTACK_POW(ATR_INT_WORK1(a2), a2) = get_num();		// æ”»å‡»åŠ›

  00386	8b 75 f4	 mov	 esi, DWORD PTR _a2$1$[ebp]
  00389	8b 76 0c	 mov	 esi, DWORD PTR [esi+12]
  0038c	e8 00 00 00 00	 call	 ?get_num@@YAHXZ		; get_num
  00391	8b 8e 28 01 00
	00		 mov	 ecx, DWORD PTR [esi+296]
  00397	89 84 8e b0 00
	00 00		 mov	 DWORD PTR [esi+ecx*4+176], eax

; 5209 : 					ATR_ATTACK_PET_POW(ATR_INT_WORK1(a2), a2) = get_num();	// petæ”»å‡»åŠ›

  0039e	8b 45 f4	 mov	 eax, DWORD PTR _a2$1$[ebp]
  003a1	8b 70 0c	 mov	 esi, DWORD PTR [eax+12]
  003a4	e8 00 00 00 00	 call	 ?get_num@@YAHXZ		; get_num
  003a9	8b 8e 28 01 00
	00		 mov	 ecx, DWORD PTR [esi+296]
  003af	89 84 8e d4 01
	00 00		 mov	 DWORD PTR [esi+ecx*4+468], eax

; 5210 : 					ATR_CHR_NO(a2) = get_num();																	// æ”»å‡»ç‰©ä»¶å›¾å·

  003b6	e8 00 00 00 00	 call	 ?get_num@@YAHXZ		; get_num
  003bb	8b 4d f4	 mov	 ecx, DWORD PTR _a2$1$[ebp]
  003be	89 81 44 01 00
	00		 mov	 DWORD PTR [ecx+324], eax

; 5211 : 					// å¦‚æžœæœ‰å¿ çŠ¬æ•ˆæžœ,è®°å½•ä½¿ç”¨å¿ çŠ¬çš„ç›®æ ‡
; 5212 : 					if (BattleCmd[command_point] == 'g')

  003c4	a1 00 00 00 00	 mov	 eax, DWORD PTR ?command_point@@3HA
  003c9	80 b8 00 00 00
	00 67		 cmp	 BYTE PTR ?BattleCmd@@3PADA[eax], 103 ; 00000067H
  003d0	75 18		 jne	 SHORT $LN87@master

; 5213 : 						ATR_LONG_WORK(ATR_INT_WORK1(a2), a2) = get_num();

  003d2	8b 71 0c	 mov	 esi, DWORD PTR [ecx+12]
  003d5	e8 00 00 00 00	 call	 ?get_num@@YAHXZ		; get_num
  003da	8b 8e 28 01 00
	00		 mov	 ecx, DWORD PTR [esi+296]
  003e0	89 84 8e 34 01
	00 00		 mov	 DWORD PTR [esi+ecx*4+308], eax
  003e7	8b 4d f4	 mov	 ecx, DWORD PTR _a2$1$[ebp]
$LN87@master:

; 5214 : 					ATR_INT_WORK1(a2)++;

  003ea	8b 41 0c	 mov	 eax, DWORD PTR [ecx+12]

; 5215 : 					// è®°å½•ç›®æ ‡æœ‰è¢«æ­¤æ”»å‡»ç‰©ä»¶æ”»å‡»
; 5216 : 					if (ATR_LONG_WORK(0, a1) == 0){

  003ed	8b 4d f0	 mov	 ecx, DWORD PTR _d3$1$[ebp]
  003f0	ff 80 28 01 00
	00		 inc	 DWORD PTR [eax+296]
  003f6	8b 43 0c	 mov	 eax, DWORD PTR [ebx+12]
  003f9	83 b8 34 01 00
	00 00		 cmp	 DWORD PTR [eax+308], 0
  00400	75 0d		 jne	 SHORT $LN88@master

; 5217 : 						ATR_LONG_WORK(0, a1) = 1;		// ATR_LONG_WORK æ ä½ : ä½å€ 0 : æ˜¯è®¾å®šç›®æ ‡æ˜¯å¦è¢«æ”»å‡»è¿‡,æ‰€ä»¥éƒ½ä¼šè®¾å®šä¸º1

  00402	c7 80 34 01 00
	00 01 00 00 00	 mov	 DWORD PTR [eax+308], 1

; 5218 : 						ATR_LONG_WORK(d3, a1) = d7 + 1; //						ä½å€ d3: d3 æ˜¯æ”»å‡»ç‰©ä»¶çš„ç¼–å·,è€Œ d3 çš„ä½å€æ˜¯ç”¨æ¥

  0040c	8b 43 0c	 mov	 eax, DWORD PTR [ebx+12]
$LN88@master:

; 5263 : 				}
; 5264 : 				d7++;

  0040f	89 bc 88 34 01
	00 00		 mov	 DWORD PTR [eax+ecx*4+308], edi
  00416	e9 52 01 00 00	 jmp	 $LN86@master
$LN85@master:

; 5219 : 						//								 çºªå½•æ”»å‡»ç‰©ä»¶åœ¨ç¬¬ d7 + 1 çš„å›žåˆæ”»å‡»ç›®æ ‡
; 5220 : 					}else
; 5221 : 						ATR_LONG_WORK(d3, a1) = d7 + 1;	// å½“ ATR_LONG_WORK æ ä½ 0 ä¸ä¸º 0 æ—¶,è¡¨ç¤ºè¿™ä¸ªç›®æ ‡å·²è¢«åˆ«çš„æ”»å‡»ç‰©ä»¶æ”»å‡»,
; 5222 : 					// æ‰€ä»¥ç›´æŽ¥åœ¨ d3 çš„ä½å€è®°å½•è¦åœ¨ d7 + 1 çš„å›žåˆæ”»å‡»ç›®æ ‡
; 5223 : 				}else{// æ²¡ä½¿ç”¨è¿‡
; 5224 : 					p_missile[d3] = GetAction(T_PRIO_BOW, sizeof(ATR_EQU));

  0041b	68 60 02 00 00	 push	 608			; 00000260H
  00420	6a 65		 push	 101			; 00000065H
  00422	e8 00 00 00 00	 call	 ?GetAction@@YAPAUaction@@EI@Z ; GetAction
  00427	8b 55 f0	 mov	 edx, DWORD PTR _d3$1$[ebp]
  0042a	8b f0		 mov	 esi, eax
  0042c	83 c4 08	 add	 esp, 8
  0042f	89 34 95 00 00
	00 00		 mov	 DWORD PTR ?p_missile@@3PAPAUaction@@A[edx*4], esi

; 5225 : 					if (p_missile[d3] == NULL)

  00436	85 f6		 test	 esi, esi
  00438	0f 84 43 01 00
	00		 je	 $LN360@master

; 5226 : 						break;	// ä¸å¤ªå¯èƒ½
; 5227 : 					a2 = p_missile[d3];
; 5228 : 					// åˆå§‹åŒ–
; 5229 : 					ATR_NAME(a2) = monster;
; 5230 : 					ATR_CHR_ANG(a2) = d2;

  0043e	8b 45 e4	 mov	 eax, DWORD PTR tv5562[ebp]
  00441	89 86 54 01 00
	00		 mov	 DWORD PTR [esi+340], eax
  00447	c7 46 08 00 00
	00 00		 mov	 DWORD PTR [esi+8], OFFSET ?monster@@YAXPAUaction@@@Z ; monster

; 5231 : 					ATR_H_POS(a2) = monster_start_pos[monster_place_no[d3 + d0] * 2];

  0044e	8b 4d fc	 mov	 ecx, DWORD PTR _d0$[ebp]
  00451	03 ca		 add	 ecx, edx
  00453	8b 04 8d 00 00
	00 00		 mov	 eax, DWORD PTR ?monster_place_no@@3PAHA[ecx*4]

; 5232 : 					ATR_V_POS(a2) = monster_start_pos[monster_place_no[d3 + d0] * 2 + 1];
; 5233 : 
; 5234 : 					ATR_CHR_ACT(a2) = ANIM_STAND;
; 5235 : 					ATR_GROUP_FLG(a2) = ATR_GROUP_FLG(a3);

  0045a	8b 4e 0c	 mov	 ecx, DWORD PTR [esi+12]
  0045d	8b 04 c5 00 00
	00 00		 mov	 eax, DWORD PTR ?monster_start_pos@@3PAHA[eax*8]
  00464	89 46 18	 mov	 DWORD PTR [esi+24], eax
  00467	8b 45 fc	 mov	 eax, DWORD PTR _d0$[ebp]
  0046a	03 c2		 add	 eax, edx
  0046c	c7 86 4c 01 00
	00 03 00 00 00	 mov	 DWORD PTR [esi+332], 3
  00476	8b 04 85 00 00
	00 00		 mov	 eax, DWORD PTR ?monster_place_no@@3PAHA[eax*4]
  0047d	8b 04 c5 04 00
	00 00		 mov	 eax, DWORD PTR ?monster_start_pos@@3PAHA[eax*8+4]
  00484	89 46 1c	 mov	 DWORD PTR [esi+28], eax
  00487	8b 45 e8	 mov	 eax, DWORD PTR _a3$1$[ebp]
  0048a	8b 40 0c	 mov	 eax, DWORD PTR [eax+12]
  0048d	8a 40 5e	 mov	 al, BYTE PTR [eax+94]
  00490	88 41 5e	 mov	 BYTE PTR [ecx+94], al

; 5236 : 					a2->hitDispNo = a3->hitDispNo;

  00493	8b 45 e8	 mov	 eax, DWORD PTR _a3$1$[ebp]
  00496	8b 40 20	 mov	 eax, DWORD PTR [eax+32]
  00499	89 46 20	 mov	 DWORD PTR [esi+32], eax

; 5237 : 					ATR_VCT_NO(a2) = 1;							// å‰è¿›

  0049c	8b 46 0c	 mov	 eax, DWORD PTR [esi+12]
  0049f	c6 00 01	 mov	 BYTE PTR [eax], 1

; 5238 : 					ATR_BODY_WORK(0, a2) = a1;					// è¢«æ”»å‡»ç›®æ ‡

  004a2	8b 46 0c	 mov	 eax, DWORD PTR [esi+12]
  004a5	89 58 04	 mov	 DWORD PTR [eax+4], ebx

; 5239 : 					ATR_BATTLE_MODEL(a1) = ATT_BATTLE_MODEL;	// æ­¤ç›®æ ‡æ˜¯è¢« ATT_BATTLE_MODEL åž‹æ€æ”»å‡»

  004a8	8b 43 0c	 mov	 eax, DWORD PTR [ebx+12]
  004ab	c7 80 58 02 00
	00 62 00 00 00	 mov	 DWORD PTR [eax+600], 98	; 00000062H

; 5240 : 					// è®°å½•ç›®æ ‡æœ‰è¢«æ­¤æ”»å‡»ç‰©ä»¶æ”»å‡»
; 5241 : 					if (ATR_LONG_WORK(0, a1) == 0)

  004b5	8b 43 0c	 mov	 eax, DWORD PTR [ebx+12]
  004b8	83 b8 34 01 00
	00 00		 cmp	 DWORD PTR [eax+308], 0
  004bf	75 0d		 jne	 SHORT $LN91@master

; 5242 : 					{
; 5243 : 						ATR_LONG_WORK(0, a1) = 1;			// ATR_LONG_WORK æ ä½ : ä½å€ 0 : æ˜¯è®¾å®šç›®æ ‡æ˜¯å¦è¢«æ”»å‡»è¿‡,æ‰€ä»¥éƒ½ä¼šè®¾å®šä¸º1

  004c1	c7 80 34 01 00
	00 01 00 00 00	 mov	 DWORD PTR [eax+308], 1

; 5244 : 						ATR_LONG_WORK(d3, a1) = d7 + 1;		//						ä½å€ d3: d3 æ˜¯æ”»å‡»ç‰©ä»¶çš„ç¼–å·,è€Œ d3 çš„ä½å€æ˜¯ç”¨æ¥

  004cb	8b 43 0c	 mov	 eax, DWORD PTR [ebx+12]
$LN91@master:

; 5245 : 						//								 çºªå½•æ”»å‡»ç‰©ä»¶åœ¨ç¬¬ d7 + 1 çš„å›žåˆæ”»å‡»ç›®æ ‡
; 5246 : 					}
; 5247 : 					else
; 5248 : 						ATR_LONG_WORK(d3, a1) = d7 + 1;		// å½“ ATR_LONG_WORK æ ä½ 0 ä¸ä¸º 0 æ—¶,è¡¨ç¤ºè¿™ä¸ªç›®æ ‡å·²è¢«åˆ«çš„æ”»å‡»ç‰©ä»¶æ”»å‡»,
; 5249 : 					// æ‰€ä»¥ç›´æŽ¥åœ¨ d3 çš„ä½å€è®°å½•è¦åœ¨ d7 + 1 çš„å›žåˆæ”»å‡»ç›®æ ‡
; 5250 : 					ATR_ATTACK_KIND(0, a2) = get_num();		// æ”»å‡»ç§ç±»

  004ce	89 bc 90 34 01
	00 00		 mov	 DWORD PTR [eax+edx*4+308], edi
  004d5	e8 00 00 00 00	 call	 ?get_num@@YAHXZ		; get_num
  004da	8b 4e 0c	 mov	 ecx, DWORD PTR [esi+12]
  004dd	89 41 60	 mov	 DWORD PTR [ecx+96], eax

; 5251 : 					ATR_ATTACK_POW(0, a2) = get_num();		// æ”»å‡»åŠ›

  004e0	e8 00 00 00 00	 call	 ?get_num@@YAHXZ		; get_num
  004e5	8b 4e 0c	 mov	 ecx, DWORD PTR [esi+12]
  004e8	89 81 b0 00 00
	00		 mov	 DWORD PTR [ecx+176], eax

; 5252 : 					ATR_ATTACK_PET_POW(0, a2) = get_num();	// petæ”»å‡»åŠ›

  004ee	e8 00 00 00 00	 call	 ?get_num@@YAHXZ		; get_num
  004f3	8b 4e 0c	 mov	 ecx, DWORD PTR [esi+12]
  004f6	89 81 d4 01 00
	00		 mov	 DWORD PTR [ecx+468], eax

; 5253 : 					ATR_CHR_NO(a2) = get_num();				// æ”»å‡»ç‰©ä»¶å›¾å·

  004fc	e8 00 00 00 00	 call	 ?get_num@@YAHXZ		; get_num

; 5254 : 					ATR_PLACE_NO(a2) = d3;					// è®°å½•æ”»å‡»ç‰©ä»¶ç¼–å·

  00501	8b 4d f0	 mov	 ecx, DWORD PTR _d3$1$[ebp]
  00504	89 86 44 01 00
	00		 mov	 DWORD PTR [esi+324], eax
  0050a	8b 46 0c	 mov	 eax, DWORD PTR [esi+12]
  0050d	88 88 1f 01 00
	00		 mov	 BYTE PTR [eax+287], cl

; 5255 : 					ATR_INT_WORK0(a2) = ATT_BATTLE_MODEL;	// è®¾å®šæ­¤ action æ˜¯ ATT_BATTLE_MODEL åœ¨ä½¿ç”¨,ä»¥æ–¹ä¾¿ä¹‹åŽå¤„ç†çš„è¾¨è¯†,ä½¿ç”¨ work0 è®°å½•

  00513	8b 46 0c	 mov	 eax, DWORD PTR [esi+12]
  00516	c7 80 24 01 00
	00 62 00 00 00	 mov	 DWORD PTR [eax+292], 98	; 00000062H

; 5256 : 					ATR_INT_WORK1(a2) = 1;					// è®¾å®šæ­¤æ”»å‡»ç‰©ä»¶ç›®å‰æ”»å‡»ç›®æ ‡æ•°é‡,ä½¿ç”¨ work1è®°å½•

  00520	8b 46 0c	 mov	 eax, DWORD PTR [esi+12]
  00523	c7 80 28 01 00
	00 01 00 00 00	 mov	 DWORD PTR [eax+296], 1

; 5257 : 					ATR_INT_WORK2(a2) = 0;					// ä½œä¸ºæ˜¯å¦ç¬¬ä¸€æ¬¡æ‰§è¡Œç¦»å¼€åŠ¨ç”»æ——æ ‡

  0052d	8b 46 0c	 mov	 eax, DWORD PTR [esi+12]
  00530	c7 80 2c 01 00
	00 00 00 00 00	 mov	 DWORD PTR [eax+300], 0

; 5258 : 					ATR_INT_WORK3(a2) = 0;					// ä½œä¸ºè‹¥æœ‰å¿ çŠ¬åˆ™æ£€æŸ¥è¿‡åŽä¸å†æ£€æŸ¥å¿ çŠ¬çš„æ——æ ‡

  0053a	8b 46 0c	 mov	 eax, DWORD PTR [esi+12]
  0053d	c7 80 30 01 00
	00 00 00 00 00	 mov	 DWORD PTR [eax+304], 0

; 5259 : 					// å¦‚æžœæœ‰å¿ çŠ¬æ•ˆæžœ,è®°å½•ä½¿ç”¨å¿ çŠ¬çš„ç›®æ ‡
; 5260 : 					if (BattleCmd[command_point] == 'g')

  00547	a1 00 00 00 00	 mov	 eax, DWORD PTR ?command_point@@3HA
  0054c	80 b8 00 00 00
	00 67		 cmp	 BYTE PTR ?BattleCmd@@3PADA[eax], 103 ; 00000067H
  00553	75 0e		 jne	 SHORT $LN93@master

; 5261 : 						ATR_LONG_WORK(0, a2) = get_num();

  00555	e8 00 00 00 00	 call	 ?get_num@@YAHXZ		; get_num
  0055a	8b 4e 0c	 mov	 ecx, DWORD PTR [esi+12]
  0055d	89 81 34 01 00
	00		 mov	 DWORD PTR [ecx+308], eax
$LN93@master:

; 5262 : 					ATR_SPD(a2) = 32;						// ç§»åŠ¨é€Ÿåº¦

  00563	c7 86 34 01 00
	00 20 00 00 00	 mov	 DWORD PTR [esi+308], 32	; 00000020H
$LN86@master:

; 5263 : 				}
; 5264 : 				d7++;

  0056d	ff 45 ec	 inc	 DWORD PTR _d7$1$[ebp]
  00570	47		 inc	 edi
  00571	e8 00 00 00 00	 call	 ?get_num@@YAHXZ		; get_num
  00576	3d ff 00 00 00	 cmp	 eax, 255		; 000000ffH
  0057b	0f 85 9f fd ff
	ff		 jne	 $LL12@master
$LN360@master:
  00581	8b 7d 08	 mov	 edi, DWORD PTR _a0$[ebp]
$LN287@master:

; 5265 : 			}
; 5266 : 			ATR_COUNTER(a0) = a1;

  00584	8b 47 0c	 mov	 eax, DWORD PTR [edi+12]

; 5267 : 			ATR_DAMAGE(a0) = -d7;	// è®¾ä¸ºè´Ÿæ•°,è®©æ­£å¸¸æ—¶å€™çš„ ATR_DAMAGE(p_master) ä¸ä¼šç­‰äºŽ ATR_BODY_CNT(p_master)

  00587	8b 55 ec	 mov	 edx, DWORD PTR _d7$1$[ebp]
  0058a	8b ca		 mov	 ecx, edx
  0058c	f7 d9		 neg	 ecx
  0058e	89 98 08 01 00
	00		 mov	 DWORD PTR [eax+264], ebx
  00594	8b 47 0c	 mov	 eax, DWORD PTR [edi+12]
  00597	89 48 58	 mov	 DWORD PTR [eax+88], ecx

; 5268 : 			ATR_INT_WORK1(a0) = 0;	// ç¡®è®¤ p_missile æ˜¯å¦éƒ½è¢«æ¸…ç©º

  0059a	8b 47 0c	 mov	 eax, DWORD PTR [edi+12]
  0059d	c7 80 28 01 00
	00 00 00 00 00	 mov	 DWORD PTR [eax+296], 0

; 5269 : 			ATR_INT_WORK2(a0) = 1;	// æ”»å‡»ç‰©ä»¶æ”»å‡»æ—¶çš„é¡ºåº,å…ˆä»Ž ATR_LONG_WORK ä¸º 1 çš„å…ˆæ‰§è¡Œ

  005a7	8b 47 0c	 mov	 eax, DWORD PTR [edi+12]
  005aa	c7 80 2c 01 00
	00 01 00 00 00	 mov	 DWORD PTR [eax+300], 1

; 5270 : 			ATR_BODY_CNT(a0) = d7;	// æ”»å‡»æ€»æ¬¡æ•°,æ¯å®Œæˆä¸€æ¬¡åŠ¨ä½œ ATR_DAMAGE(p_master) éƒ½ä¼šé€’å¢ž,ç›´åˆ° ATR_DAMAGE(p_master) ==  ATR_BODY_CNT(p_master)

  005b4	8b 47 0c	 mov	 eax, DWORD PTR [edi+12]
  005b7	88 50 54	 mov	 BYTE PTR [eax+84], dl

; 5271 : 			// p_master æ‰ä¼šåŽ»ç»§ç»­å¤„ç†ä¸‹ä¸€ç¬” BattleCmd é‡Œçš„èµ„æ–™ (è¿™é‡Œçš„ a0 å°±æ˜¯ p_master)
; 5272 : 			break;

  005ba	e9 bf 12 00 00	 jmp	 $master_500$370
$LN81@master:

; 5273 : 		}
; 5274 : #endif
; 5275 : 		d0 = get_num();

  005bf	e8 00 00 00 00	 call	 ?get_num@@YAHXZ		; get_num
  005c4	89 45 fc	 mov	 DWORD PTR _d0$[ebp], eax

; 5276 : 		if (d0 < 0 || d0 >= BATTLKPKPLYAERNUM){

  005c7	83 f8 13	 cmp	 eax, 19			; 00000013H
  005ca	0f 87 48 11 00
	00		 ja	 $LN95@master

; 5280 : 			}else{
; 5281 : #ifdef _STONDEBUG_
; 5282 : 				MessageBox(hWnd, "command_no != ATT_VARIABLE", "Error", MB_OK);
; 5283 : #endif
; 5284 : 				break;
; 5285 : 			}
; 5286 : 		}
; 5287 : 		a1 = p_party[d0];

  005d0	8b 34 85 00 00
	00 00		 mov	 esi, DWORD PTR ?p_party@@3PAPAUaction@@A[eax*4]

; 5288 : 		if (ATR_NAME(a1) == NULL){

  005d7	83 7e 08 00	 cmp	 DWORD PTR [esi+8], 0
  005db	75 19		 jne	 SHORT $LN98@master

; 5289 : #ifdef _STONDEBUG_
; 5290 : 			MessageBox(hWnd, "ATR_NAME(a1) == NULL", "Error", MB_OK);
; 5291 : #endif
; 5292 : 			command_no = get_command();

  005dd	e8 00 00 00 00	 call	 ?get_command@@YADXZ	; get_command

; 5293 : 			if (command_no == -1){

  005e2	3c ff		 cmp	 al, -1
  005e4	0f 84 4d 11 00
	00		 je	 $LN361@master

; 5297 : 			}
; 5298 : 			command_point -= 2;

  005ea	83 2d 00 00 00
	00 02		 sub	 DWORD PTR ?command_point@@3HA, 2

; 5299 : 			break;

  005f1	e9 88 12 00 00	 jmp	 $master_500$370
$LN98@master:

; 5300 : 		}
; 5301 : 		if (command_no != ATT_MALFUNCTION){

  005f6	83 fb 4d	 cmp	 ebx, 77			; 0000004dH
  005f9	74 18		 je	 SHORT $LN350@master

; 5302 : 			if (ATR_LIFE(a1) <= 0)

  005fb	83 7e 78 00	 cmp	 DWORD PTR [esi+120], 0
  005ff	7f 06		 jg	 SHORT $LN101@master

; 5303 : 				ATR_VCT_NO(a1) = 0;

  00601	8b 46 0c	 mov	 eax, DWORD PTR [esi+12]
  00604	c6 00 00	 mov	 BYTE PTR [eax], 0
$LN101@master:

; 5304 : 		}
; 5305 : 		if (command_no != ATT_MALFUNCTION){
; 5306 : 			if (ATR_VCT_NO(a1) != 0)//command_point = sav_command_point;

  00607	8b 46 0c	 mov	 eax, DWORD PTR [esi+12]
  0060a	80 38 00	 cmp	 BYTE PTR [eax], 0
  0060d	0f 85 6b 12 00
	00		 jne	 $master_500$370
$LN350@master:

; 5307 : 				break;
; 5308 : 		}
; 5309 : 		ATR_VCT_NO(a0) = 1;

  00613	8b 47 0c	 mov	 eax, DWORD PTR [edi+12]
  00616	c6 00 01	 mov	 BYTE PTR [eax], 1

; 5310 : 		ATR_DAMAGE(a0) = 0;

  00619	8b 47 0c	 mov	 eax, DWORD PTR [edi+12]
  0061c	c7 40 58 00 00
	00 00		 mov	 DWORD PTR [eax+88], 0

; 5311 : 		ATR_PET_DAMAGE(a0) = 0;

  00623	8b 47 0c	 mov	 eax, DWORD PTR [edi+12]
  00626	c7 80 24 02 00
	00 00 00 00 00	 mov	 DWORD PTR [eax+548], 0

; 5312 : 		ATR_COUNTER(a0) = a1;

  00630	8b 47 0c	 mov	 eax, DWORD PTR [edi+12]
  00633	89 b0 08 01 00
	00		 mov	 DWORD PTR [eax+264], esi

; 5313 : 		if (ATR_VCT_NO(a1) != 55)

  00639	8b 46 0c	 mov	 eax, DWORD PTR [esi+12]
  0063c	80 38 37	 cmp	 BYTE PTR [eax], 55	; 00000037H
  0063f	74 07		 je	 SHORT $LN104@master

; 5314 : 			ATR_FIRST_FLG(a1) = 0;

  00641	c6 80 1e 01 00
	00 00		 mov	 BYTE PTR [eax+286], 0
$LN104@master:

; 5315 : 		for (d7 = 0; d7 < BATTLKPKPLYAERNUM; d7++){

  00648	b9 00 00 00 00	 mov	 ecx, OFFSET ?p_party@@3PAPAUaction@@A
  0064d	0f 1f 00	 npad	 3
$LL16@master:

; 5316 : 			ATR_SYNC_FLG(p_party[d7]) = 0;

  00650	8b 01		 mov	 eax, DWORD PTR [ecx]
  00652	8b 40 0c	 mov	 eax, DWORD PTR [eax+12]
  00655	c6 80 23 01 00
	00 00		 mov	 BYTE PTR [eax+291], 0

; 5317 : 			ATR_ATTACK_KIND(0, p_party[d7]) = 0;

  0065c	8b 01		 mov	 eax, DWORD PTR [ecx]
  0065e	8b 40 0c	 mov	 eax, DWORD PTR [eax+12]
  00661	c7 40 60 00 00
	00 00		 mov	 DWORD PTR [eax+96], 0

; 5318 : 			ATR_ATTACK_KIND(1, p_party[d7]) = 0;

  00668	8b 01		 mov	 eax, DWORD PTR [ecx]
  0066a	8b 40 0c	 mov	 eax, DWORD PTR [eax+12]
  0066d	c7 40 64 00 00
	00 00		 mov	 DWORD PTR [eax+100], 0

; 5319 : 			ATR_ATTACK_POW(0, p_party[d7]) = 0;

  00674	8b 01		 mov	 eax, DWORD PTR [ecx]
  00676	8b 40 0c	 mov	 eax, DWORD PTR [eax+12]
  00679	c7 80 b0 00 00
	00 00 00 00 00	 mov	 DWORD PTR [eax+176], 0

; 5320 : 			ATR_ATTACK_PET_POW(0, p_party[d7]) = 0;

  00683	8b 01		 mov	 eax, DWORD PTR [ecx]
  00685	8b 40 0c	 mov	 eax, DWORD PTR [eax+12]
  00688	c7 80 d4 01 00
	00 00 00 00 00	 mov	 DWORD PTR [eax+468], 0

; 5321 : 			//andy_mp
; 5322 : 			ATR_MPDAMAGE(p_party[d7]) = 0;

  00692	8b 01		 mov	 eax, DWORD PTR [ecx]
  00694	8b 40 0c	 mov	 eax, DWORD PTR [eax+12]
  00697	c7 80 30 02 00
	00 00 00 00 00	 mov	 DWORD PTR [eax+560], 0

; 5323 : 			ATR_MPDFLG(p_party[d7]) = 0;

  006a1	8b 01		 mov	 eax, DWORD PTR [ecx]
  006a3	8b 40 0c	 mov	 eax, DWORD PTR [eax+12]
  006a6	c7 80 38 02 00
	00 00 00 00 00	 mov	 DWORD PTR [eax+568], 0

; 5324 : 			ATR_ADDHP(p_party[d7]) = 0;

  006b0	8b 01		 mov	 eax, DWORD PTR [ecx]
  006b2	8b 40 0c	 mov	 eax, DWORD PTR [eax+12]
  006b5	c7 80 34 02 00
	00 00 00 00 00	 mov	 DWORD PTR [eax+564], 0

; 5325 : 			ATR_ADDHPFLG(p_party[d7]) = 0;

  006bf	8b 01		 mov	 eax, DWORD PTR [ecx]
  006c1	8b 40 0c	 mov	 eax, DWORD PTR [eax+12]
  006c4	c7 80 3c 02 00
	00 00 00 00 00	 mov	 DWORD PTR [eax+572], 0

; 5326 : 			ATR_SHOWADDHP(p_party[d7]) = 0;

  006ce	8b 01		 mov	 eax, DWORD PTR [ecx]
  006d0	8b 40 0c	 mov	 eax, DWORD PTR [eax+12]
  006d3	c7 80 40 02 00
	00 00 00 00 00	 mov	 DWORD PTR [eax+576], 0

; 5327 : #ifdef _PETSKILL_BATTLE_MODEL
; 5328 : 			ATR_BATTLE_MODEL(p_party[d7]) = 0;

  006dd	8b 01		 mov	 eax, DWORD PTR [ecx]
  006df	8b 40 0c	 mov	 eax, DWORD PTR [eax+12]
  006e2	c7 80 58 02 00
	00 00 00 00 00	 mov	 DWORD PTR [eax+600], 0

; 5329 : 			ATR_BODY_WORK(0, p_party[d7]) = NULL;

  006ec	8b 01		 mov	 eax, DWORD PTR [ecx]
  006ee	83 c1 04	 add	 ecx, 4
  006f1	8b 40 0c	 mov	 eax, DWORD PTR [eax+12]
  006f4	c7 40 04 00 00
	00 00		 mov	 DWORD PTR [eax+4], 0
  006fb	81 f9 50 00 00
	00		 cmp	 ecx, OFFSET ?p_party@@3PAPAUaction@@A+80
  00701	0f 8c 49 ff ff
	ff		 jl	 $LL16@master

; 5330 : #endif
; 5331 : 		}
; 5332 : 		ATR_ATTACK_KIND(2, a1) = 0;

  00707	8b 46 0c	 mov	 eax, DWORD PTR [esi+12]

; 5333 : 		switch (command_no){

  0070a	83 c3 fe	 add	 ebx, -2			; fffffffeH
  0070d	c7 40 68 00 00
	00 00		 mov	 DWORD PTR [eax+104], 0
  00714	83 fb 6e	 cmp	 ebx, 110		; 0000006eH
  00717	0f 87 2b 0f 00
	00		 ja	 $LN226@master
  0071d	0f b6 83 00 00
	00 00		 movzx	 eax, BYTE PTR $LN354@master[ebx]
  00724	ff 24 85 00 00
	00 00		 jmp	 DWORD PTR $LN355@master[eax*4]
$LN105@master:

; 5334 : 			// BI jibun_5 teki_F flg_2 damage_1 teki_9 flg_2 damage_1 FF
; 5335 : 		case ATT_IN:		//??????????  ä½‹??îŽ«îŽ·?  ??????????
; 5336 : 			if (ATR_GROUP_FLG(a1) == 0)		//????????

  0072b	8b 46 0c	 mov	 eax, DWORD PTR [esi+12]
  0072e	80 78 5e 00	 cmp	 BYTE PTR [eax+94], 0
  00732	75 10		 jne	 SHORT $LN106@master

; 5337 : 			{
; 5338 : 				ATR_V_POS(a1) = 8;

  00734	c7 46 1c 08 00
	00 00		 mov	 DWORD PTR [esi+28], 8

; 5339 : 				ATR_H_POS(a1) = -SCREEN_OUT;

  0073b	c7 46 18 96 ff
	ff ff		 mov	 DWORD PTR [esi+24], -106 ; ffffff96H

; 5340 : 			}

  00742	eb 22		 jmp	 SHORT $LN107@master
$LN106@master:

; 5341 : 			else
; 5342 : 			{
; 5343 : 				ATR_V_POS(a1) = lpDraw->ySize - 8;

  00744	a1 00 00 00 00	 mov	 eax, DWORD PTR ?lpDraw@@3PAUDIRECT_DRAW@@A ; lpDraw
  00749	8b 80 88 00 00
	00		 mov	 eax, DWORD PTR [eax+136]
  0074f	83 e8 08	 sub	 eax, 8
  00752	89 46 1c	 mov	 DWORD PTR [esi+28], eax

; 5344 : 				ATR_H_POS(a1) = lpDraw->xSize + SCREEN_OUT;

  00755	a1 00 00 00 00	 mov	 eax, DWORD PTR ?lpDraw@@3PAUDIRECT_DRAW@@A ; lpDraw
  0075a	8b 80 84 00 00
	00		 mov	 eax, DWORD PTR [eax+132]
  00760	83 c0 6a	 add	 eax, 106		; 0000006aH
  00763	89 46 18	 mov	 DWORD PTR [esi+24], eax
$LN107@master:

; 5345 : 			}
; 5346 : 		case ATT_HIT:		//====================ç›´æŽ¥æ”»å‡»===============
; 5347 : 			ATR_VCT_NO(a1) = 1;							//å‰è¿›

  00766	8b 46 0c	 mov	 eax, DWORD PTR [esi+12]
  00769	c6 00 01	 mov	 BYTE PTR [eax], 1

; 5348 : 			ATR_BODY_WORK(0, a1) = p_party[get_num()];	//è¢«æ”»æ–¹

  0076c	e8 00 00 00 00	 call	 ?get_num@@YAHXZ		; get_num
  00771	8b 4e 0c	 mov	 ecx, DWORD PTR [esi+12]
  00774	8b 04 85 00 00
	00 00		 mov	 eax, DWORD PTR ?p_party@@3PAPAUaction@@A[eax*4]
  0077b	89 41 04	 mov	 DWORD PTR [ecx+4], eax

; 5349 : 
; 5350 : 			//JL fixè‡ªå·±æ‰“è‡ªå·±å¡ä½
; 5351 : 			if (ATR_BODY_WORK(0, a1) == a1){//å¦‚æžœè‡ªå·±æ‰“è‡ªå·±

  0077e	8b 5e 0c	 mov	 ebx, DWORD PTR [esi+12]
  00781	39 73 04	 cmp	 DWORD PTR [ebx+4], esi
  00784	75 1f		 jne	 SHORT $LN109@master

; 5352 : 				ATR_VCT_NO(a1) = 0; // å¾…æœº

  00786	c6 03 00	 mov	 BYTE PTR [ebx], 0

; 5353 : 				ATR_BODY_WORK(0, a1) = NULL;	// æ¸…ç©º

  00789	8b 46 0c	 mov	 eax, DWORD PTR [esi+12]
  0078c	c7 40 04 00 00
	00 00		 mov	 DWORD PTR [eax+4], 0

; 5354 : 				ATR_BODY_CNT(a0) = 1;

  00793	8b 47 0c	 mov	 eax, DWORD PTR [edi+12]
  00796	c6 40 54 01	 mov	 BYTE PTR [eax+84], 1

; 5355 : 				((ATR_EQU *)a0->pYobi)->vct_no = 0; //å¼ºåˆ¶å¤ä½å¯è¡ŒåŠ¨

  0079a	8b 47 0c	 mov	 eax, DWORD PTR [edi+12]
$LN126@master:

; 6154 : 			break;
; 6155 : 		}
; 6156 : #ifdef _PET_ITEM
; 6157 : 		if (ATR_ATTACK_KIND(0, a1) & ATT_ATTACKBACK)

  0079d	c6 00 00	 mov	 BYTE PTR [eax], 0
  007a0	e9 b7 0e 00 00	 jmp	 $LN17@master
$LN109@master:

; 5356 : 				break;
; 5357 : 			}
; 5358 : 
; 5359 : 
; 5360 : 			ATR_ATTACK_KIND(0, a1) = get_num();			//æ”»å‡»ç§ç±»

  007a5	e8 00 00 00 00	 call	 ?get_num@@YAHXZ		; get_num
  007aa	89 43 60	 mov	 DWORD PTR [ebx+96], eax

; 5361 : 			ATR_ATTACK_POW(0, a1) = get_num();			//æ”»å‡»åŠ›

  007ad	e8 00 00 00 00	 call	 ?get_num@@YAHXZ		; get_num
  007b2	8b 4e 0c	 mov	 ecx, DWORD PTR [esi+12]
  007b5	89 81 b0 00 00
	00		 mov	 DWORD PTR [ecx+176], eax

; 5362 : 			if (BattleCmd[command_point] == 'p')

  007bb	a1 00 00 00 00	 mov	 eax, DWORD PTR ?command_point@@3HA
  007c0	80 b8 00 00 00
	00 70		 cmp	 BYTE PTR ?BattleCmd@@3PADA[eax], 112 ; 00000070H
  007c7	75 0e		 jne	 SHORT $LN110@master

; 5363 : 				ATR_ATTACK_PET_POW(0, a1) = get_num();	//petæ”»å‡»åŠ›

  007c9	e8 00 00 00 00	 call	 ?get_num@@YAHXZ		; get_num
  007ce	8b 4e 0c	 mov	 ecx, DWORD PTR [esi+12]
  007d1	89 81 d4 01 00
	00		 mov	 DWORD PTR [ecx+468], eax
$LN110@master:

; 5364 : #ifdef _STONDEBUG_
; 5365 : 			else
; 5366 : 				LogToBattleError( BattleCmd, __LINE__ );
; 5367 : #endif
; 5368 : 			ATR_BODY_CNT(a0) = 1;

  007d7	8b 47 0c	 mov	 eax, DWORD PTR [edi+12]
  007da	c6 40 54 01	 mov	 BYTE PTR [eax+84], 1

; 5369 : #ifdef _ATTDOUBLE_ATTACK
; 5370 : 			//andy_add
; 5371 : 			if (ATR_ATTACK_KIND(0, a1) & ATT_ATTDOUBLE || ATR_ATTACK_KIND(0, a1) & BCF_MODIFY)

  007de	8b 5e 0c	 mov	 ebx, DWORD PTR [esi+12]
  007e1	f7 43 60 00 00
	21 00		 test	 DWORD PTR [ebx+96], 2162688 ; 00210000H
  007e8	74 0b		 je	 SHORT $LN111@master

; 5372 : 				ATR_BATTLEGRANO(a1) = get_num();

  007ea	e8 00 00 00 00	 call	 ?get_num@@YAHXZ		; get_num
  007ef	89 83 44 02 00
	00		 mov	 DWORD PTR [ebx+580], eax
$LN111@master:

; 5373 : #endif
; 5374 : #ifdef _ATTACK_EFFECT
; 5375 : 			//ä¿®æ­£å¿ çŠ¬  xiezi
; 5376 : 			if (BattleCmd[command_point] == 's')

  007f5	a1 00 00 00 00	 mov	 eax, DWORD PTR ?command_point@@3HA
  007fa	80 b8 00 00 00
	00 73		 cmp	 BYTE PTR ?BattleCmd@@3PADA[eax], 115 ; 00000073H
  00801	0f 85 55 0e 00
	00		 jne	 $LN17@master

; 5377 : 				ATR_LONG_WORK(0, a1) = get_num();	// è®°å½•ç‰¹æ•ˆç¼–å·

  00807	e8 00 00 00 00	 call	 ?get_num@@YAHXZ		; get_num
  0080c	8b 4e 0c	 mov	 ecx, DWORD PTR [esi+12]
  0080f	89 81 34 01 00
	00		 mov	 DWORD PTR [ecx+308], eax

; 5378 : #endif
; 5379 : 			break;

  00815	e9 42 0e 00 00	 jmp	 $LN17@master
$LN114@master:

; 5380 : #ifdef _MAGIC_DEEPPOISION
; 5381 : 		case ATT_DEEPPOISION:	//å‰§æ¯’
; 5382 : 			ATR_VCT_NO(a1) = 1;	//æ”»æ–¹åŠ¨ä½œ

  0081a	8b 46 0c	 mov	 eax, DWORD PTR [esi+12]
  0081d	c6 00 01	 mov	 BYTE PTR [eax], 1

; 5383 : 			ATR_BODY_WORK(0, a1) = p_party[get_num()];//æ”»æ–¹ç¼–å·

  00820	e8 00 00 00 00	 call	 ?get_num@@YAHXZ		; get_num
  00825	8b 4e 0c	 mov	 ecx, DWORD PTR [esi+12]
  00828	8b 04 85 00 00
	00 00		 mov	 eax, DWORD PTR ?p_party@@3PAPAUaction@@A[eax*4]
  0082f	89 41 04	 mov	 DWORD PTR [ecx+4], eax

; 5384 : 			ATR_ATTACK_KIND(0, a1) = get_num();		//æˆ‘æ–¹é˜²å¾¡ç§ç±»

  00832	e8 00 00 00 00	 call	 ?get_num@@YAHXZ		; get_num
  00837	8b 4e 0c	 mov	 ecx, DWORD PTR [esi+12]
  0083a	89 41 60	 mov	 DWORD PTR [ecx+96], eax

; 5385 : 			ATR_ATTACK_POW(0, a1) = get_num();		//æ”»å‡»åŠ›

  0083d	e8 00 00 00 00	 call	 ?get_num@@YAHXZ		; get_num
  00842	8b 4e 0c	 mov	 ecx, DWORD PTR [esi+12]
  00845	89 81 b0 00 00
	00		 mov	 DWORD PTR [ecx+176], eax

; 5386 : 			ATR_ATTACK_PET_POW(0, a1) = get_num();//éª‘å® æŸä¼¤

  0084b	e8 00 00 00 00	 call	 ?get_num@@YAHXZ		; get_num
  00850	8b 4e 0c	 mov	 ecx, DWORD PTR [esi+12]
  00853	89 81 d4 01 00
	00		 mov	 DWORD PTR [ecx+468], eax

; 5387 : 			ATR_BODY_CNT(a0) = 1;//æ”»å‡»æ¬¡æ•°

  00859	8b 47 0c	 mov	 eax, DWORD PTR [edi+12]
  0085c	c6 40 54 01	 mov	 BYTE PTR [eax+84], 1

; 5388 : 			ATR_DEEPPOISION(a1) = 1;

  00860	c7 86 dc 01 00
	00 01 00 00 00	 mov	 DWORD PTR [esi+476], 1

; 5389 : 			break;

  0086a	e9 ed 0d 00 00	 jmp	 $LN17@master
$LN115@master:

; 5390 : #endif
; 5391 : 			//andy_mp
; 5392 : 		case ATT_MPDAMAGE://MPä¼¤å®³
; 5393 : 			ATR_VCT_NO(a1) = 1;

  0086f	8b 46 0c	 mov	 eax, DWORD PTR [esi+12]
  00872	c6 00 01	 mov	 BYTE PTR [eax], 1

; 5394 : 			ATR_BODY_WORK(0, a1) = p_party[get_num()];

  00875	e8 00 00 00 00	 call	 ?get_num@@YAHXZ		; get_num
  0087a	8b 4e 0c	 mov	 ecx, DWORD PTR [esi+12]
  0087d	8b 04 85 00 00
	00 00		 mov	 eax, DWORD PTR ?p_party@@3PAPAUaction@@A[eax*4]
  00884	89 41 04	 mov	 DWORD PTR [ecx+4], eax

; 5395 : 			ATR_ATTACK_KIND(0, a1) = get_num();

  00887	e8 00 00 00 00	 call	 ?get_num@@YAHXZ		; get_num
  0088c	8b 4e 0c	 mov	 ecx, DWORD PTR [esi+12]
  0088f	89 41 60	 mov	 DWORD PTR [ecx+96], eax

; 5396 : 			ATR_ATTACK_POW(0, a1) = get_num();

  00892	e8 00 00 00 00	 call	 ?get_num@@YAHXZ		; get_num
  00897	8b 4e 0c	 mov	 ecx, DWORD PTR [esi+12]
  0089a	89 81 b0 00 00
	00		 mov	 DWORD PTR [ecx+176], eax

; 5397 : 			ATR_ATTACK_PET_POW(0, a1) = get_num();

  008a0	e8 00 00 00 00	 call	 ?get_num@@YAHXZ		; get_num
  008a5	8b 4e 0c	 mov	 ecx, DWORD PTR [esi+12]
  008a8	89 81 d4 01 00
	00		 mov	 DWORD PTR [ecx+468], eax

; 5398 : 			ATR_MPDAMAGE(a1) = get_num();

  008ae	e8 00 00 00 00	 call	 ?get_num@@YAHXZ		; get_num
  008b3	8b 4e 0c	 mov	 ecx, DWORD PTR [esi+12]
  008b6	89 81 30 02 00
	00		 mov	 DWORD PTR [ecx+560], eax

; 5399 : 			ATR_BODY_CNT(a0) = 1;

  008bc	8b 47 0c	 mov	 eax, DWORD PTR [edi+12]
  008bf	c6 40 54 01	 mov	 BYTE PTR [eax+84], 1

; 5400 : 			ATR_MPDFLG(a1) = 1;

  008c3	8b 46 0c	 mov	 eax, DWORD PTR [esi+12]
  008c6	c7 80 38 02 00
	00 01 00 00 00	 mov	 DWORD PTR [eax+568], 1

; 5401 : 			break;	//set_damage_num( a1, 16, -64 )

  008d0	e9 87 0d 00 00	 jmp	 $LN17@master
$LN116@master:

; 5402 : 
; 5403 : 		case ATT_DAMAGETOHP:
; 5404 : 			ATR_VCT_NO(a1) = 1;

  008d5	8b 46 0c	 mov	 eax, DWORD PTR [esi+12]
  008d8	c6 00 01	 mov	 BYTE PTR [eax], 1

; 5405 : 			ATR_BODY_WORK(0, a1) = p_party[get_num()];

  008db	e8 00 00 00 00	 call	 ?get_num@@YAHXZ		; get_num
  008e0	8b 4e 0c	 mov	 ecx, DWORD PTR [esi+12]
  008e3	8b 04 85 00 00
	00 00		 mov	 eax, DWORD PTR ?p_party@@3PAPAUaction@@A[eax*4]
  008ea	89 41 04	 mov	 DWORD PTR [ecx+4], eax

; 5406 : 			ATR_ATTACK_KIND(0, a1) = get_num();

  008ed	e8 00 00 00 00	 call	 ?get_num@@YAHXZ		; get_num
  008f2	8b 4e 0c	 mov	 ecx, DWORD PTR [esi+12]
  008f5	89 41 60	 mov	 DWORD PTR [ecx+96], eax

; 5407 : 			ATR_ATTACK_POW(0, a1) = get_num();

  008f8	e8 00 00 00 00	 call	 ?get_num@@YAHXZ		; get_num
  008fd	8b 4e 0c	 mov	 ecx, DWORD PTR [esi+12]
  00900	89 81 b0 00 00
	00		 mov	 DWORD PTR [ecx+176], eax

; 5408 : 			ATR_ATTACK_PET_POW(0, a1) = get_num();

  00906	e8 00 00 00 00	 call	 ?get_num@@YAHXZ		; get_num
  0090b	8b 4e 0c	 mov	 ecx, DWORD PTR [esi+12]
  0090e	89 81 d4 01 00
	00		 mov	 DWORD PTR [ecx+468], eax

; 5409 : 			ATR_ADDHP(a1) = get_num();

  00914	e8 00 00 00 00	 call	 ?get_num@@YAHXZ		; get_num
  00919	8b 4e 0c	 mov	 ecx, DWORD PTR [esi+12]
  0091c	89 81 34 02 00
	00		 mov	 DWORD PTR [ecx+564], eax

; 5410 : 			ATR_BODY_CNT(a0) = 1;

  00922	8b 47 0c	 mov	 eax, DWORD PTR [edi+12]
  00925	c6 40 54 01	 mov	 BYTE PTR [eax+84], 1

; 5411 : 			ATR_SHOWADDHP(a1) = 1;

  00929	8b 46 0c	 mov	 eax, DWORD PTR [esi+12]
  0092c	c7 80 40 02 00
	00 01 00 00 00	 mov	 DWORD PTR [eax+576], 1

; 5412 : 			ATR_ADDHPFLG(a1) = 1;

  00936	8b 46 0c	 mov	 eax, DWORD PTR [esi+12]
  00939	c7 80 3c 02 00
	00 01 00 00 00	 mov	 DWORD PTR [eax+572], 1

; 5413 : 			break;

  00943	e9 14 0d 00 00	 jmp	 $LN17@master
$LN117@master:

; 5414 : 			//BF jibun_5
; 5415 : 		case ATT_FADE_OUT:		//??????????  ä½‹??îŽ«?îŒ¿  ??????????
; 5416 : 			ATR_VCT_NO(a1) = 80;		//?î•¤?

  00948	8b 46 0c	 mov	 eax, DWORD PTR [esi+12]
  0094b	c6 00 50	 mov	 BYTE PTR [eax], 80	; 00000050H

; 5417 : 			//??????
; 5418 : 			ATR_ATTACK_KIND(2, a1) = 1;

  0094e	8b 46 0c	 mov	 eax, DWORD PTR [esi+12]
  00951	c7 40 68 01 00
	00 00		 mov	 DWORD PTR [eax+104], 1

; 5419 : 			ATR_BODY_CNT(a0) = 1;

  00958	8b 47 0c	 mov	 eax, DWORD PTR [edi+12]
  0095b	c6 40 54 01	 mov	 BYTE PTR [eax+84], 1

; 5420 : 			break;

  0095f	e9 f8 0c 00 00	 jmp	 $LN17@master
$LN118@master:

; 5421 : 			//BN|îŸ‰???î‘·îœ±?|?????îœ±?|
; 5422 : 		case ATT_NEXT_EQUIP:		//??????????  ?î’îŸ‰?  ??????????
; 5423 : 			ATR_VCT_NO(a1) = 82;		//?î’îŸ‰?

  00964	8b 46 0c	 mov	 eax, DWORD PTR [esi+12]
  00967	c6 00 52	 mov	 BYTE PTR [eax], 82	; 00000052H

; 5424 : 			ATR_BODY_CNT(a0) = 1;

  0096a	8b 47 0c	 mov	 eax, DWORD PTR [edi+12]
  0096d	c6 40 54 01	 mov	 BYTE PTR [eax+84], 1

; 5425 : 			break;

  00971	e9 e6 0c 00 00	 jmp	 $LN17@master
$LN119@master:

; 5426 : 			//BJ|Attacker's No( 0 - 19 )|Attacker's MP|Attacker's animation index|
; 5427 : 			//                                                Opposite's animation index|Opposite's index ...
; 5428 : 			//BJ|???î‘·îœ±?|??|???î‘·?????îœ±?|?????î‘·?????îœ±?|?????î‘·|?????î‘·|FF
; 5429 : 		case ATT_JUJUTSU:		//??????????  îŽ£îž  ??????????
; 5430 : 			ATR_VCT_NO(a1) = 75;		//?î¡‡?îŽ£îžî“»îœ§??

  00976	8b 46 0c	 mov	 eax, DWORD PTR [esi+12]
  00979	c6 00 4b	 mov	 BYTE PTR [eax], 75	; 0000004bH

; 5431 : 			ATR_MP(a1) = get_num();		//?????

  0097c	e8 00 00 00 00	 call	 ?get_num@@YAHXZ		; get_num
  00981	89 86 84 00 00
	00		 mov	 DWORD PTR [esi+132], eax

; 5432 : 			ATR_BODY_CNT(a0) = 1;

  00987	8b 47 0c	 mov	 eax, DWORD PTR [edi+12]
  0098a	c6 40 54 01	 mov	 BYTE PTR [eax+84], 1

; 5433 : #ifdef __ATTACK_MAGIC
; 5434 : 			if (ATTACK_MAGIC_ID == ATR_MP(a1))

  0098e	81 be 84 00 00
	00 4e 61 bc 00	 cmp	 DWORD PTR [esi+132], 12345678 ; 00bc614eH
  00998	0f 85 be 0c 00
	00		 jne	 $LN17@master

; 5435 : 				BuildAttackMagicData(a0, a1);

  0099e	56		 push	 esi
  0099f	57		 push	 edi
  009a0	e8 00 00 00 00	 call	 ?BuildAttackMagicData@@YAHPAUaction@@0@Z ; BuildAttackMagicData
  009a5	83 c4 08	 add	 esp, 8

; 5436 : #endif
; 5437 : 			break;

  009a8	e9 af 0c 00 00	 jmp	 $LN17@master
$LN121@master:

; 5438 : 		case ATT_TOCALL:
; 5439 : 			ATR_VCT_NO(a1) = 2;		//?î¡‡?îŽ£îžî“»îœ§??

  009ad	8b 46 0c	 mov	 eax, DWORD PTR [esi+12]
  009b0	c6 00 02	 mov	 BYTE PTR [eax], 2

; 5440 : 			ATR_MP(a1) = get_num();		//?????

  009b3	e8 00 00 00 00	 call	 ?get_num@@YAHXZ		; get_num
  009b8	89 86 84 00 00
	00		 mov	 DWORD PTR [esi+132], eax

; 5441 : 			ATR_BODY_CNT(a0) = 1;

  009be	8b 47 0c	 mov	 eax, DWORD PTR [edi+12]
  009c1	c6 40 54 01	 mov	 BYTE PTR [eax+84], 1

; 5442 : #ifdef __TOCALL_MAGIC
; 5443 : 			if (TOCALL_MAGIC_ID == ATR_MP(a1))

  009c5	81 be 84 00 00
	00 4e 26 57 00	 cmp	 DWORD PTR [esi+132], 5711438 ; 0057264eH
  009cf	0f 85 87 0c 00
	00		 jne	 $LN17@master

; 5444 : 				BuildToCallMagicData(a0, a1);

  009d5	56		 push	 esi
  009d6	57		 push	 edi
  009d7	e8 00 00 00 00	 call	 ?BuildToCallMagicData@@YAHPAUaction@@0@Z ; BuildToCallMagicData
  009dc	83 c4 08	 add	 esp, 8

; 5445 : #endif
; 5446 : 			break;

  009df	e9 78 0c 00 00	 jmp	 $LN17@master
$LN123@master:

; 5447 : 		case ATT_MALFUNCTION:		//??????????  î–•î•’îŽ£îž  ??????????
; 5448 : 			d0 = get_num();		//îŽ£îžîœ±?îŽ•?î?

  009e4	e8 00 00 00 00	 call	 ?get_num@@YAHXZ		; get_num
  009e9	89 45 fc	 mov	 DWORD PTR _d0$[ebp], eax

; 5449 : 			ATR_STATUS(a1) = d0;		//????????

  009ec	89 86 90 00 00
	00		 mov	 DWORD PTR [esi+144], eax

; 5450 : 			switch (d0)

  009f2	8b 45 fc	 mov	 eax, DWORD PTR _d0$[ebp]
  009f5	83 e8 00	 sub	 eax, 0
  009f8	74 54		 je	 SHORT $LN124@master
  009fa	83 e8 02	 sub	 eax, 2
  009fd	74 20		 je	 SHORT $LN125@master
  009ff	83 e8 1d	 sub	 eax, 29			; 0000001dH
  00a02	8b 47 0c	 mov	 eax, DWORD PTR [edi+12]
  00a05	c6 00 00	 mov	 BYTE PTR [eax], 0
  00a08	0f 84 4e 0c 00
	00		 je	 $LN17@master

; 5469 : 				else
; 5470 : 					ATR_VCT_NO(a0) = 0;		//????
; 5471 : 				break;
; 5472 : 			case 31:                     //JL fix æ–°å¢ž31çš„å¤„ç†ï¼Œè‡ªç„¶å¨èƒ½æ˜¯31,ä¸è®¾ç½®çŠ¶æ€
; 5473 : 				ATR_VCT_NO(a0) = 0;
; 5474 : 				break;
; 5475 : 			default:
; 5476 : 				ATR_VCT_NO(a0) = 0;		//????
; 5477 : 				set_single_jujutsu(d0, a1);		//î–•î•’îŽ£îž???

  00a0e	56		 push	 esi
  00a0f	ff 75 fc	 push	 DWORD PTR _d0$[ebp]
  00a12	e8 00 00 00 00	 call	 ?set_single_jujutsu@@YAXHPAUaction@@@Z ; set_single_jujutsu
  00a17	83 c4 08	 add	 esp, 8
  00a1a	e9 3d 0c 00 00	 jmp	 $LN17@master
$LN125@master:

; 5458 : 				break;
; 5459 : 				//??
; 5460 : 			case 2:
; 5461 : 				//î’Ÿ?????
; 5462 : 				if (ATR_LIFE(a1) > 0)

  00a1f	83 7e 78 00	 cmp	 DWORD PTR [esi+120], 0
  00a23	8b 47 0c	 mov	 eax, DWORD PTR [edi+12]
  00a26	0f 8e 71 fd ff
	ff		 jle	 $LN126@master

; 5463 : 				{
; 5464 : 					ATR_BODY_CNT(a0) = 1;

  00a2c	c6 40 54 01	 mov	 BYTE PTR [eax+84], 1

; 5465 : 					ATR_VCT_NO(a1) = 105;		//??î•˜??

  00a30	8b 46 0c	 mov	 eax, DWORD PTR [esi+12]

; 5466 : 					ATR_STIMER(a1) = 60;
; 5467 : 					set_single_jujutsu(d0, a1);		//î–•î•’îŽ£îž???

  00a33	56		 push	 esi
  00a34	c6 00 69	 mov	 BYTE PTR [eax], 105	; 00000069H
  00a37	8b 46 0c	 mov	 eax, DWORD PTR [esi+12]
  00a3a	c6 40 01 3c	 mov	 BYTE PTR [eax+1], 60	; 0000003cH
  00a3e	ff 75 fc	 push	 DWORD PTR _d0$[ebp]
  00a41	e8 00 00 00 00	 call	 ?set_single_jujutsu@@YAXHPAUaction@@@Z ; set_single_jujutsu
  00a46	83 c4 08	 add	 esp, 8

; 5468 : 				}

  00a49	e9 0e 0c 00 00	 jmp	 $LN17@master
$LN124@master:

; 5451 : 			{
; 5452 : 				//îŽ•?î?
; 5453 : 			case 0:
; 5454 : 				ATR_VCT_NO(a0) = 0;		//????

  00a4e	8b 47 0c	 mov	 eax, DWORD PTR [edi+12]
  00a51	c6 00 00	 mov	 BYTE PTR [eax], 0

; 5455 : 				a2 = ATR_JUJUTSU_WORK(a1);

  00a54	8b 4e 0c	 mov	 ecx, DWORD PTR [esi+12]
  00a57	8b 81 10 01 00
	00		 mov	 eax, DWORD PTR [ecx+272]

; 5456 : 				ATR_JUJUTSU_WORK(a1) = NULL;
; 5457 : 				DeathAction(a2);		//îŽ·?

  00a5d	50		 push	 eax
  00a5e	c7 81 10 01 00
	00 00 00 00 00	 mov	 DWORD PTR [ecx+272], 0
  00a68	e8 00 00 00 00	 call	 ?DeathAction@@YAXPAUaction@@@Z ; DeathAction
  00a6d	83 c4 04	 add	 esp, 4

; 5478 : 				break;
; 5479 : 			}
; 5480 : 			break;

  00a70	e9 e7 0b 00 00	 jmp	 $LN17@master
$LN130@master:

; 5481 : 			//ATR_ATTACK_KIND(a1);
; 5482 : 			/*
; 5483 : 					case ATT_MAGICSTATUS:	//andy_add magicstatus
; 5484 : 					d0 = get_num();
; 5485 : 					ATR_STATUS(a1) = d0;
; 5486 : 					switch (d0){
; 5487 : 					case 0:
; 5488 : 					ATR_VCT_NO(a0) = 0;
; 5489 : 					a2 = ATR_MAGICSU_WORK(a1);
; 5490 : 					ATR_MAGICSU_WORK(a1) = NULL;
; 5491 : 					DeathAction( a2 );
; 5492 : 					break;
; 5493 : 
; 5494 : 					default:
; 5495 : 					ATR_VCT_NO(a0) = 0;
; 5496 : 					set_magic_status(d0, a1);
; 5497 : 					break;
; 5498 : 					}
; 5499 : 					break;
; 5500 : 					*/
; 5501 : 
; 5502 : 			// ???????î‘·????????????î–±
; 5503 : 		case ATT_DAMAGE:
; 5504 : 			ATR_BODY_CNT(a0) = 1;

  00a75	8b 47 0c	 mov	 eax, DWORD PTR [edi+12]
  00a78	c6 40 54 01	 mov	 BYTE PTR [eax+84], 1

; 5505 : 			ATR_VCT_NO(a1) = 79;

  00a7c	8b 46 0c	 mov	 eax, DWORD PTR [esi+12]
  00a7f	c6 00 4f	 mov	 BYTE PTR [eax], 79	; 0000004fH

; 5506 : 			ATR_LONG_WORK(0, a1) = 0;

  00a82	8b 46 0c	 mov	 eax, DWORD PTR [esi+12]
  00a85	c7 80 34 01 00
	00 00 00 00 00	 mov	 DWORD PTR [eax+308], 0

; 5507 : 			d2 = d0 = get_num();

  00a8f	e8 00 00 00 00	 call	 ?get_num@@YAHXZ		; get_num
  00a94	89 45 08	 mov	 DWORD PTR _d2$1$[ebp], eax
  00a97	89 45 fc	 mov	 DWORD PTR _d0$[ebp], eax

; 5508 : 			d3 = d1 = get_num();

  00a9a	e8 00 00 00 00	 call	 ?get_num@@YAHXZ		; get_num
  00a9f	89 45 e4	 mov	 DWORD PTR _d3$2$[ebp], eax
  00aa2	89 45 f8	 mov	 DWORD PTR _d1$[ebp], eax
$att_damage_loop$371:

; 5509 : 		att_damage_loop:
; 5510 : 			ATR_DAMAGE(a1) = get_num();

  00aa5	e8 00 00 00 00	 call	 ?get_num@@YAHXZ		; get_num
  00aaa	8b 4e 0c	 mov	 ecx, DWORD PTR [esi+12]
  00aad	89 41 58	 mov	 DWORD PTR [ecx+88], eax

; 5511 : 			if (BattleCmd[command_point] == 'p')

  00ab0	a1 00 00 00 00	 mov	 eax, DWORD PTR ?command_point@@3HA
  00ab5	80 b8 00 00 00
	00 70		 cmp	 BYTE PTR ?BattleCmd@@3PADA[eax], 112 ; 00000070H
  00abc	75 0e		 jne	 SHORT $LN131@master

; 5512 : 				ATR_PET_DAMAGE(a1) = get_num();		//pet damage

  00abe	e8 00 00 00 00	 call	 ?get_num@@YAHXZ		; get_num
  00ac3	8b 4e 0c	 mov	 ecx, DWORD PTR [esi+12]
  00ac6	89 81 24 02 00
	00		 mov	 DWORD PTR [ecx+548], eax
$LN131@master:

; 5513 : 
; 5514 : 			switch (d0)

  00acc	8b 45 fc	 mov	 eax, DWORD PTR _d0$[ebp]
  00acf	83 e8 00	 sub	 eax, 0
  00ad2	0f 84 93 00 00
	00		 je	 $LN132@master
  00ad8	83 e8 01	 sub	 eax, 1
  00adb	74 1a		 je	 SHORT $LN152@master
  00add	83 e8 02	 sub	 eax, 2
  00ae0	0f 85 73 02 00
	00		 jne	 $LN23@master

; 5709 : #ifdef _PETSKILL_LER
; 5710 : 			case 3:	// é—ªå¼€æ”»å‡»
; 5711 : 				set_damage_num(a1, 0, -64);

  00ae6	6a c0		 push	 -64			; ffffffc0H
  00ae8	50		 push	 eax
  00ae9	56		 push	 esi
  00aea	e8 00 00 00 00	 call	 ?set_damage_num@@YAXPAUaction@@HH@Z ; set_damage_num
  00aef	83 c4 0c	 add	 esp, 12			; 0000000cH
  00af2	e9 62 02 00 00	 jmp	 $LN23@master
$LN152@master:

; 5618 : 					ATR_CHR_ACT_OLD(a1) = -1;
; 5619 : 					pattern(a1, ANM_NOMAL_SPD, ANM_LOOP);
; 5620 : 					ATR_VCT_NO(a1) = 78;
; 5621 : 					break;
; 5622 : #endif
; 5623 : #ifdef _PETSKILL_JUSTICE
; 5624 : 				case 9:
; 5625 : 					set_damage_num(a1, 45, -64);
; 5626 : 					ATR_CHR_ACT_OLD(a1) = -1;
; 5627 : 					pattern(a1, ANM_NOMAL_SPD, ANM_LOOP);
; 5628 : 					ATR_VCT_NO(a1) = 78;
; 5629 : 					break;
; 5630 : #endif
; 5631 : #ifdef _PETSKILL_PROVOKEFIGHT
; 5632 : 				case 10:
; 5633 : 					set_damage_num(a1, 48, -64);
; 5634 : 					ATR_CHR_ACT_OLD(a1) = -1;
; 5635 : 					pattern(a1, ANM_NOMAL_SPD, ANM_LOOP);
; 5636 : 					ATR_VCT_NO(a1) = 78;
; 5637 : 					break;
; 5638 : #endif
; 5639 : #ifdef _PRO3_ADDSKILL
; 5640 : 				case 11:
; 5641 : 					set_damage_num(a1, 49, -64);
; 5642 : 					ATR_CHR_ACT_OLD(a1) = -1;
; 5643 : 					pattern(a1, ANM_NOMAL_SPD, ANM_LOOP);
; 5644 : 					ATR_VCT_NO(a1) = 78;
; 5645 : 					break;
; 5646 : 				case 12:
; 5647 : 					set_damage_num(a1, 50, -64);
; 5648 : 					ATR_CHR_ACT_OLD(a1) = -1;
; 5649 : 					pattern(a1, ANM_NOMAL_SPD, ANM_LOOP);
; 5650 : 					ATR_VCT_NO(a1) = 78;
; 5651 : 					break;
; 5652 : 				case 13:
; 5653 : 					set_damage_num(a1, 51, -64);
; 5654 : 					ATR_CHR_ACT_OLD(a1) = -1;
; 5655 : 					pattern(a1, ANM_NOMAL_SPD, ANM_LOOP);
; 5656 : 					ATR_VCT_NO(a1) = 78;
; 5657 : 					break;
; 5658 : #endif
; 5659 : #ifdef _PETSKILL_ADDATTCRAZED
; 5660 : 					/*	case 10:
; 5661 : 							set_damage_num(a1, 46, -64);
; 5662 : 							ATR_CHR_ACT_OLD(a1) = -1;
; 5663 : 							pattern(a1, ANM_NOMAL_SPD, ANM_LOOP);
; 5664 : 							ATR_VCT_NO(a1) = 78;
; 5665 : 							break;*/
; 5666 : #endif
; 5667 : 				}
; 5668 : 				break;
; 5669 : 
; 5670 : 			case 1:		//??
; 5671 : 				switch (d1)

  00af7	8b 45 f8	 mov	 eax, DWORD PTR _d1$[ebp]
  00afa	83 e8 00	 sub	 eax, 0
  00afd	74 3e		 je	 SHORT $LN153@master
  00aff	83 e8 01	 sub	 eax, 1
  00b02	0f 85 51 02 00
	00		 jne	 $LN23@master

; 5678 : 					break;
; 5679 : 				case 1:		//?
; 5680 : 					set_damage_num(a1, 15, -64);

  00b08	6a c0		 push	 -64			; ffffffc0H
  00b0a	6a 0f		 push	 15			; 0000000fH
  00b0c	56		 push	 esi
  00b0d	e8 00 00 00 00	 call	 ?set_damage_num@@YAXPAUaction@@HH@Z ; set_damage_num

; 5681 : 					ATR_MP(a1) += ATR_DAMAGE(a1);		//?????

  00b12	8b 46 0c	 mov	 eax, DWORD PTR [esi+12]
  00b15	83 c4 0c	 add	 esp, 12			; 0000000cH
  00b18	8b 40 58	 mov	 eax, DWORD PTR [eax+88]
  00b1b	01 86 84 00 00
	00		 add	 DWORD PTR [esi+132], eax

; 5682 : 
; 5683 : #ifdef _FIXSHOWMPERR //Syu ADD ä¿®æ­£è¡¥æ°”æ—¶åŠ¨ç”»æ˜¾ç¤ºé”™è¯¯
; 5684 : 					if (ATR_MP(a1) > pc.maxMp)

  00b21	a1 1c 00 00 00	 mov	 eax, DWORD PTR ?pc@@3UPC@@A+28
  00b26	39 86 84 00 00
	00		 cmp	 DWORD PTR [esi+132], eax
  00b2c	0f 8e 43 01 00
	00		 jle	 $LN156@master

; 5685 : 						ATR_MP(a1) = pc.maxMp;

  00b32	89 86 84 00 00
	00		 mov	 DWORD PTR [esi+132], eax

; 5686 : #else
; 5687 : 					if (ATR_MP(a1) > 100)		//????î¯??
; 5688 : 						ATR_MP(a1) = 100;		//??????
; 5689 : #endif
; 5690 : 					//???
; 5691 : 					play_se(102, ATR_H_POS(a1), 240);

  00b38	e9 38 01 00 00	 jmp	 $LN156@master
$LN153@master:

; 5672 : 				{
; 5673 : 				case 0:		//?
; 5674 : 					set_damage_num(a1, 16, -64);

  00b3d	6a c0		 push	 -64			; ffffffc0H
  00b3f	6a 10		 push	 16			; 00000010H
  00b41	56		 push	 esi
  00b42	e8 00 00 00 00	 call	 ?set_damage_num@@YAXPAUaction@@HH@Z ; set_damage_num

; 5675 : 					ATR_MP(a1) -= ATR_DAMAGE(a1);		//??????

  00b47	8b 46 0c	 mov	 eax, DWORD PTR [esi+12]
  00b4a	83 c4 0c	 add	 esp, 12			; 0000000cH
  00b4d	8b 40 58	 mov	 eax, DWORD PTR [eax+88]
  00b50	29 86 84 00 00
	00		 sub	 DWORD PTR [esi+132], eax

; 5676 : 					if (ATR_MP(a1) < 0)		//?î ¹???

  00b56	0f 89 fd 01 00
	00		 jns	 $LN23@master

; 5677 : 						ATR_MP(a1) = 0;		//????

  00b5c	c7 86 84 00 00
	00 00 00 00 00	 mov	 DWORD PTR [esi+132], 0

; 5692 : 					break;
; 5693 : #ifdef _PETSKILL_ADDATTCRAZED
; 5694 : 				case 3:
; 5695 : 					set_damage_num(a1, 46, -64);
; 5696 : 					ATR_CHR_ACT_OLD(a1) = -1;
; 5697 : 					pattern(a1, ANM_NOMAL_SPD, ANM_LOOP);
; 5698 : 					ATR_VCT_NO(a1) = 78;
; 5699 : 					break;
; 5700 : 				case 4:
; 5701 : 					set_damage_num(a1, 47, -64);
; 5702 : 					ATR_CHR_ACT_OLD(a1) = -1;
; 5703 : 					pattern(a1, ANM_NOMAL_SPD, ANM_LOOP);
; 5704 : 					ATR_VCT_NO(a1) = 78;
; 5705 : 					break;
; 5706 : #endif
; 5707 : 				}
; 5708 : 				break;

  00b66	e9 ee 01 00 00	 jmp	 $LN23@master
$LN132@master:

; 5515 : 			{
; 5516 : 			case 0:
; 5517 : 				switch (d1)

  00b6b	8b 45 f8	 mov	 eax, DWORD PTR _d1$[ebp]
  00b6e	83 f8 08	 cmp	 eax, 8
  00b71	0f 87 e2 01 00
	00		 ja	 $LN23@master
  00b77	ff 24 85 00 00
	00 00		 jmp	 DWORD PTR $LN356@master[eax*4]
$LN133@master:

; 5518 : 				{
; 5519 : 				case 0:
; 5520 : 					set_damage_num(a1, 6, -64);

  00b7e	6a c0		 push	 -64			; ffffffc0H
  00b80	6a 06		 push	 6
  00b82	56		 push	 esi
  00b83	e8 00 00 00 00	 call	 ?set_damage_num@@YAXPAUaction@@HH@Z ; set_damage_num

; 5521 : 					ATR_LIFE(a1) -= ATR_DAMAGE(a1);

  00b88	8b 46 0c	 mov	 eax, DWORD PTR [esi+12]

; 5522 : 					set_jujutsu_hit_mark(a1);		//îŽ£îž??????î¸î•

  00b8b	56		 push	 esi
  00b8c	8b 40 58	 mov	 eax, DWORD PTR [eax+88]
  00b8f	29 46 78	 sub	 DWORD PTR [esi+120], eax
  00b92	e8 00 00 00 00	 call	 ?set_jujutsu_hit_mark@@YAXPAUaction@@@Z ; set_jujutsu_hit_mark
  00b97	83 c4 10	 add	 esp, 16			; 00000010H

; 5523 : 					if (ATR_LIFE(a1) <= 0)		//??????

  00b9a	83 7e 78 00	 cmp	 DWORD PTR [esi+120], 0
  00b9e	7f 0d		 jg	 SHORT $LN134@master

; 5524 : 					{
; 5525 : 						ATR_LIFE(a1) = 0;

  00ba0	c7 46 78 00 00
	00 00		 mov	 DWORD PTR [esi+120], 0

; 5526 : 						slow_flg++;		//????îŒ¿

  00ba7	ff 05 00 00 00
	00		 inc	 DWORD PTR ?slow_flg@@3HA ; slow_flg
$LN134@master:

; 5527 : 					}
; 5528 : 					ATR_PET_LIFE(a1) -= ATR_PET_DAMAGE(a1);

  00bad	8b 46 0c	 mov	 eax, DWORD PTR [esi+12]

; 5529 : 					set_jujutsu_hit_mark(a1);		//

  00bb0	56		 push	 esi
  00bb1	8b 80 24 02 00
	00		 mov	 eax, DWORD PTR [eax+548]
  00bb7	29 86 b0 01 00
	00		 sub	 DWORD PTR [esi+432], eax
  00bbd	e8 00 00 00 00	 call	 ?set_jujutsu_hit_mark@@YAXPAUaction@@@Z ; set_jujutsu_hit_mark
  00bc2	83 c4 04	 add	 esp, 4

; 5530 : 					//andy_log
; 5531 : 					if (ATR_PETFALL(a0) == 1)

  00bc5	83 bf bc 01 00
	00 01		 cmp	 DWORD PTR [edi+444], 1
  00bcc	75 0f		 jne	 SHORT $LN136@master

; 5532 : 					{
; 5533 : 						if (ATR_LIFE(a0) > 0)

  00bce	83 7f 78 00	 cmp	 DWORD PTR [edi+120], 0
  00bd2	7e 09		 jle	 SHORT $LN136@master

; 5534 : 							petfallChangeGraph(a0);

  00bd4	57		 push	 edi
  00bd5	e8 00 00 00 00	 call	 ?petfallChangeGraph@@YAXPAUaction@@@Z ; petfallChangeGraph
  00bda	83 c4 04	 add	 esp, 4
$LN136@master:

; 5535 : 					}
; 5536 : 					if (ATR_PET_LIFE(a1) <= 0 && ATR_RIDE(a1))		//??????

  00bdd	83 be b0 01 00
	00 00		 cmp	 DWORD PTR [esi+432], 0
  00be4	7f 22		 jg	 SHORT $LN138@master
  00be6	83 be 94 01 00
	00 00		 cmp	 DWORD PTR [esi+404], 0
  00bed	74 19		 je	 SHORT $LN138@master

; 5537 : 					{
; 5538 : 						ATR_PET_LIFE(a1) = 0;
; 5539 : 						//slow_flg++;		//????îŒ¿
; 5540 : 						if (ATR_LIFE(a1) > 0)

  00bef	83 7e 78 00	 cmp	 DWORD PTR [esi+120], 0
  00bf3	c7 86 b0 01 00
	00 00 00 00 00	 mov	 DWORD PTR [esi+432], 0
  00bfd	7e 09		 jle	 SHORT $LN138@master

; 5541 : 							petfallChangeGraph(a1);

  00bff	56		 push	 esi
  00c00	e8 00 00 00 00	 call	 ?petfallChangeGraph@@YAXPAUaction@@@Z ; petfallChangeGraph
  00c05	83 c4 04	 add	 esp, 4
$LN138@master:

; 5542 : 					}
; 5543 : 					ATR_CHR_ACT(a1) = ANIM_DAMAGE;		//???????????
; 5544 : 					ATR_CHR_ACT_OLD(a1) = -1;
; 5545 : 					pattern(a1, ANM_NOMAL_SPD, ANM_LOOP);

  00c08	6a 00		 push	 0
  00c0a	6a 00		 push	 0
  00c0c	56		 push	 esi
  00c0d	c7 86 4c 01 00
	00 01 00 00 00	 mov	 DWORD PTR [esi+332], 1
  00c17	c7 86 50 01 00
	00 ff ff ff ff	 mov	 DWORD PTR [esi+336], -1
  00c21	e8 00 00 00 00	 call	 ?pattern@@YAHPAUaction@@HH@Z ; pattern
  00c26	83 c4 0c	 add	 esp, 12			; 0000000cH

; 5546 : 					ATR_VCT_NO(a1) = 78;		//???????
; 5547 : 					break;

  00c29	e9 25 01 00 00	 jmp	 $LN362@master
$LN139@master:

; 5548 : 				case 1:		//?
; 5549 : 					//??î–±î¸î•
; 5550 : 					set_damage_num(a1, 14, -64);

  00c2e	6a c0		 push	 -64			; ffffffc0H
  00c30	6a 0e		 push	 14			; 0000000eH
  00c32	56		 push	 esi
  00c33	e8 00 00 00 00	 call	 ?set_damage_num@@YAXPAUaction@@HH@Z ; set_damage_num

; 5551 : 					ATR_LIFE(a1) += ATR_DAMAGE(a1);

  00c38	8b 4e 0c	 mov	 ecx, DWORD PTR [esi+12]
  00c3b	83 c4 0c	 add	 esp, 12			; 0000000cH
  00c3e	8b 41 58	 mov	 eax, DWORD PTR [ecx+88]
  00c41	01 46 78	 add	 DWORD PTR [esi+120], eax

; 5552 : 					if (ATR_LIFE(a1) > ATR_MAX_LIFE(a1))		//?î•«î——???

  00c44	8b 86 80 00 00
	00		 mov	 eax, DWORD PTR [esi+128]
  00c4a	39 46 78	 cmp	 DWORD PTR [esi+120], eax
  00c4d	7e 03		 jle	 SHORT $LN140@master

; 5553 : 						ATR_LIFE(a1) = ATR_MAX_LIFE(a1);		//?î•«???

  00c4f	89 46 78	 mov	 DWORD PTR [esi+120], eax
$LN140@master:

; 5554 : 					ATR_PET_LIFE(a1) += ATR_PET_DAMAGE(a1);

  00c52	8b 81 24 02 00
	00		 mov	 eax, DWORD PTR [ecx+548]
  00c58	01 86 b0 01 00
	00		 add	 DWORD PTR [esi+432], eax

; 5555 : 					if (ATR_PET_LIFE(a1) > ATR_PET_MAX_LIFE(a1))

  00c5e	8b 86 b0 01 00
	00		 mov	 eax, DWORD PTR [esi+432]
  00c64	8b 8e b4 01 00
	00		 mov	 ecx, DWORD PTR [esi+436]
  00c6a	3b c1		 cmp	 eax, ecx
  00c6c	0f 4f c1	 cmovg	 eax, ecx
  00c6f	89 86 b0 01 00
	00		 mov	 DWORD PTR [esi+432], eax
$LN156@master:

; 5712 : 				break;
; 5713 : #endif
; 5714 : 			}
; 5715 : 			d6 = command_point;		//????????î•¤î

  00c75	68 f0 00 00 00	 push	 240			; 000000f0H
  00c7a	ff 76 18	 push	 DWORD PTR [esi+24]
  00c7d	6a 66		 push	 102			; 00000066H
  00c7f	e8 00 00 00 00	 call	 ?play_se@@YAHHHH@Z	; play_se
  00c84	83 c4 0c	 add	 esp, 12			; 0000000cH
  00c87	e9 cd 00 00 00	 jmp	 $LN23@master
$LN142@master:

; 5556 : 						ATR_PET_LIFE(a1) = ATR_PET_MAX_LIFE(a1);
; 5557 : 					play_se(102, ATR_H_POS(a1), 240);
; 5558 : 					break;
; 5559 : 					//andy_add	å›žåˆè¡¥è¡€
; 5560 : 				case 2:
; 5561 : 					if (BattleCmd[command_point] == 'm')

  00c8c	a1 00 00 00 00	 mov	 eax, DWORD PTR ?command_point@@3HA
  00c91	80 b8 00 00 00
	00 6d		 cmp	 BYTE PTR ?BattleCmd@@3PADA[eax], 109 ; 0000006dH
  00c98	75 0e		 jne	 SHORT $LN143@master

; 5562 : 						ATR_MPDAMAGE(a1) = get_num();

  00c9a	e8 00 00 00 00	 call	 ?get_num@@YAHXZ		; get_num
  00c9f	8b 4e 0c	 mov	 ecx, DWORD PTR [esi+12]
  00ca2	89 81 30 02 00
	00		 mov	 DWORD PTR [ecx+560], eax
$LN143@master:

; 5563 : 					set_damage_num(a1, 36, -64);

  00ca8	6a c0		 push	 -64			; ffffffc0H
  00caa	6a 24		 push	 36			; 00000024H
  00cac	56		 push	 esi
  00cad	e8 00 00 00 00	 call	 ?set_damage_num@@YAXPAUaction@@HH@Z ; set_damage_num

; 5564 : 					ATR_LIFE(a1) += ATR_DAMAGE(a1);

  00cb2	8b 4e 0c	 mov	 ecx, DWORD PTR [esi+12]
  00cb5	83 c4 0c	 add	 esp, 12			; 0000000cH
  00cb8	8b 41 58	 mov	 eax, DWORD PTR [ecx+88]
  00cbb	01 46 78	 add	 DWORD PTR [esi+120], eax

; 5565 : 					ATR_MP(a1) += ATR_MPDAMAGE(a1);

  00cbe	8b 81 30 02 00
	00		 mov	 eax, DWORD PTR [ecx+560]
  00cc4	01 86 84 00 00
	00		 add	 DWORD PTR [esi+132], eax

; 5566 : 					if (ATR_LIFE(a1) > ATR_MAX_LIFE(a1))

  00cca	8b 86 80 00 00
	00		 mov	 eax, DWORD PTR [esi+128]
  00cd0	39 46 78	 cmp	 DWORD PTR [esi+120], eax
  00cd3	7e 03		 jle	 SHORT $LN144@master

; 5567 : 						ATR_LIFE(a1) = ATR_MAX_LIFE(a1);

  00cd5	89 46 78	 mov	 DWORD PTR [esi+120], eax
$LN144@master:

; 5568 : 					ATR_PET_LIFE(a1) += ATR_PET_DAMAGE(a1);

  00cd8	8b 81 24 02 00
	00		 mov	 eax, DWORD PTR [ecx+548]
  00cde	01 86 b0 01 00
	00		 add	 DWORD PTR [esi+432], eax

; 5569 : 					if (ATR_PET_LIFE(a1) >= ATR_PET_MAX_LIFE(a1))

  00ce4	8b 86 b0 01 00
	00		 mov	 eax, DWORD PTR [esi+432]
  00cea	8b 8e b4 01 00
	00		 mov	 ecx, DWORD PTR [esi+436]
  00cf0	3b c1		 cmp	 eax, ecx

; 5570 : 					{
; 5571 : 						int k;
; 5572 : 
; 5573 : 						k = ATR_PET_MAX_LIFE(a1);
; 5574 : 						k = ATR_PET_LIFE(a1);
; 5575 : 						ATR_PET_LIFE(a1) = ATR_PET_MAX_LIFE(a1);
; 5576 : 						k = ATR_PET_LIFE(a1);
; 5577 : 					}
; 5578 : 					//ATR_CHR_ACT(a1) = ANIM_DAMAGE;
; 5579 : 					ATR_CHR_ACT_OLD(a1) = -1;
; 5580 : 					pattern(a1, ANM_NOMAL_SPD, ANM_LOOP);

  00cf2	6a 00		 push	 0
  00cf4	0f 4d c1	 cmovge	 eax, ecx
  00cf7	c7 86 50 01 00
	00 ff ff ff ff	 mov	 DWORD PTR [esi+336], -1
  00d01	6a 00		 push	 0
  00d03	56		 push	 esi
  00d04	89 86 b0 01 00
	00		 mov	 DWORD PTR [esi+432], eax
  00d0a	e8 00 00 00 00	 call	 ?pattern@@YAHPAUaction@@HH@Z ; pattern
  00d0f	83 c4 0c	 add	 esp, 12			; 0000000cH

; 5581 : 					ATR_VCT_NO(a1) = 78;
; 5582 : 					break;

  00d12	eb 3f		 jmp	 SHORT $LN362@master
$LN146@master:

; 5583 : 				case 3:
; 5584 : 					set_damage_num(a1, 37, -64);

  00d14	6a c0		 push	 -64			; ffffffc0H
  00d16	6a 25		 push	 37			; 00000025H

; 5585 : 					ATR_CHR_ACT_OLD(a1) = -1;
; 5586 : 					pattern(a1, ANM_NOMAL_SPD, ANM_LOOP);
; 5587 : 					ATR_VCT_NO(a1) = 78;
; 5588 : 					break;

  00d18	eb 1c		 jmp	 SHORT $LN363@master
$LN147@master:

; 5589 : 				case 4://æ”»
; 5590 : 					set_damage_num(a1, 38, -64);

  00d1a	6a c0		 push	 -64			; ffffffc0H
  00d1c	6a 26		 push	 38			; 00000026H

; 5591 : 					ATR_CHR_ACT_OLD(a1) = -1;
; 5592 : 					pattern(a1, ANM_NOMAL_SPD, ANM_LOOP);
; 5593 : 					ATR_VCT_NO(a1) = 78;
; 5594 : 					break;

  00d1e	eb 16		 jmp	 SHORT $LN363@master
$LN148@master:

; 5595 : 				case 5://é˜²
; 5596 : 					set_damage_num(a1, 39, -64);

  00d20	6a c0		 push	 -64			; ffffffc0H
  00d22	6a 27		 push	 39			; 00000027H

; 5597 : 					ATR_CHR_ACT_OLD(a1) = -1;
; 5598 : 					pattern(a1, ANM_NOMAL_SPD, ANM_LOOP);
; 5599 : 					ATR_VCT_NO(a1) = 78;
; 5600 : 					break;

  00d24	eb 10		 jmp	 SHORT $LN363@master
$LN149@master:

; 5601 : 				case 6://æ•
; 5602 : 					set_damage_num(a1, 40, -64);

  00d26	6a c0		 push	 -64			; ffffffc0H
  00d28	6a 28		 push	 40			; 00000028H

; 5603 : 					ATR_CHR_ACT_OLD(a1) = -1;
; 5604 : 					pattern(a1, ANM_NOMAL_SPD, ANM_LOOP);
; 5605 : 					ATR_VCT_NO(a1) = 78;
; 5606 : 					break;

  00d2a	eb 0a		 jmp	 SHORT $LN363@master
$LN150@master:

; 5607 : #ifdef _SKILL_ADDBARRIER
; 5608 : 				case 7://æŠ—æ€§
; 5609 : 					set_damage_num(a1, 43, -64);

  00d2c	6a c0		 push	 -64			; ffffffc0H
  00d2e	6a 2b		 push	 43			; 0000002bH

; 5610 : 					ATR_CHR_ACT_OLD(a1) = -1;
; 5611 : 					pattern(a1, ANM_NOMAL_SPD, ANM_LOOP);
; 5612 : 					ATR_VCT_NO(a1) = 78;
; 5613 : 					break;

  00d30	eb 04		 jmp	 SHORT $LN363@master
$LN151@master:

; 5614 : #endif 
; 5615 : #ifdef _PETSKILL_PEEL
; 5616 : 				case 8://è¢«å¸ä¸‹è£…å¤‡
; 5617 : 					set_damage_num(a1, 44, -64);

  00d32	6a c0		 push	 -64			; ffffffc0H
  00d34	6a 2c		 push	 44			; 0000002cH
$LN363@master:

; 5712 : 				break;
; 5713 : #endif
; 5714 : 			}
; 5715 : 			d6 = command_point;		//????????î•¤î

  00d36	56		 push	 esi
  00d37	e8 00 00 00 00	 call	 ?set_damage_num@@YAXPAUaction@@HH@Z ; set_damage_num
  00d3c	6a 00		 push	 0
  00d3e	6a 00		 push	 0
  00d40	56		 push	 esi
  00d41	c7 86 50 01 00
	00 ff ff ff ff	 mov	 DWORD PTR [esi+336], -1
  00d4b	e8 00 00 00 00	 call	 ?pattern@@YAHPAUaction@@HH@Z ; pattern
  00d50	83 c4 18	 add	 esp, 24			; 00000018H
$LN362@master:
  00d53	8b 46 0c	 mov	 eax, DWORD PTR [esi+12]
  00d56	c6 00 4e	 mov	 BYTE PTR [eax], 78	; 0000004eH
$LN23@master:
  00d59	8b 1d 00 00 00
	00		 mov	 ebx, DWORD PTR ?command_point@@3HA

; 5716 : 			d0 = get_command();		//??????îŽ•?î?

  00d5f	e8 00 00 00 00	 call	 ?get_command@@YADXZ	; get_command
  00d64	0f be c0	 movsx	 eax, al
  00d67	89 45 fc	 mov	 DWORD PTR _d0$[ebp], eax
  00d6a	83 f8 44	 cmp	 eax, 68			; 00000044H

; 5717 : 			if (d0 == ATT_DAMAGE)		//??????

  00d6d	75 2a		 jne	 SHORT $LN160@master

; 5718 : 			{
; 5719 : 				a1 = p_party[d0 = get_num()];		//???????

  00d6f	e8 00 00 00 00	 call	 ?get_num@@YAHXZ		; get_num
  00d74	8b 34 85 00 00
	00 00		 mov	 esi, DWORD PTR ?p_party@@3PAPAUaction@@A[eax*4]

; 5720 : 				d0 = get_num();		//?????îŽ•?î?

  00d7b	e8 00 00 00 00	 call	 ?get_num@@YAHXZ		; get_num
  00d80	89 45 fc	 mov	 DWORD PTR _d0$[ebp], eax

; 5721 : 				if (d2 == d0)		//????î™¯???

  00d83	39 45 08	 cmp	 DWORD PTR _d2$1$[ebp], eax
  00d86	75 11		 jne	 SHORT $LN160@master

; 5722 : 				{
; 5723 : 					d1 = get_num();		//?????îŽ•?î?

  00d88	e8 00 00 00 00	 call	 ?get_num@@YAHXZ		; get_num
  00d8d	89 45 f8	 mov	 DWORD PTR _d1$[ebp], eax

; 5724 : 					if (d3 == d1)		//????î™¯???

  00d90	39 45 e4	 cmp	 DWORD PTR _d3$2$[ebp], eax
  00d93	0f 84 0c fd ff
	ff		 je	 $att_damage_loop$371
$LN160@master:

; 5725 : 						goto att_damage_loop;
; 5726 : 				}
; 5727 : 			}
; 5728 : 			command_point = d6;		//??????????

  00d99	89 1d 00 00 00
	00		 mov	 DWORD PTR ?command_point@@3HA, ebx

; 5729 : 			break;

  00d9f	e9 b8 08 00 00	 jmp	 $LN17@master
$LN161@master:

; 5730 : 			//BV|???î‘·îœ±??????|î”´î’”îœ±?
; 5731 : 		case ATT_VARIABLE:		//??????????  ?????î”´î’”îŸ‰?  ??????????
; 5732 : 			ATR_BODY_CNT(a0) = 1;

  00da4	8b 47 0c	 mov	 eax, DWORD PTR [edi+12]
  00da7	c6 40 54 01	 mov	 BYTE PTR [eax+84], 1

; 5733 : 			ATR_VCT_NO(a1) = 85;		//?????î”´î’”îŸ‰??

  00dab	8b 46 0c	 mov	 eax, DWORD PTR [esi+12]
  00dae	c6 00 55	 mov	 BYTE PTR [eax], 85	; 00000055H

; 5734 : 			break;

  00db1	e9 a6 08 00 00	 jmp	 $LN17@master
$LN162@master:

; 5735 : 			//BR|????î‘·|????????
; 5736 : 		case ATT_REVERSE:		//??????????  î”´î’”îœšî˜¿  ??????????
; 5737 : 			ATR_VCT_NO(a0) = 0;		//????

  00db6	8b 47 0c	 mov	 eax, DWORD PTR [edi+12]
  00db9	c6 00 00	 mov	 BYTE PTR [eax], 0

; 5738 : 			d0 = get_num();		//?????????îŽ•?î?

  00dbc	e8 00 00 00 00	 call	 ?get_num@@YAHXZ		; get_num
  00dc1	89 45 fc	 mov	 DWORD PTR _d0$[ebp], eax

; 5739 : 			switch (d0)

  00dc4	85 c0		 test	 eax, eax
  00dc6	74 0e		 je	 SHORT $LN163@master

; 5746 : 				break;
; 5747 : 				//??
; 5748 : 			default:
; 5749 : 				set_attrib_reverse(a1);		//î”´î’”îœšî˜¿???

  00dc8	56		 push	 esi
  00dc9	e8 00 00 00 00	 call	 ?set_attrib_reverse@@YAXPAUaction@@@Z ; set_attrib_reverse
  00dce	83 c4 04	 add	 esp, 4
  00dd1	e9 86 08 00 00	 jmp	 $LN17@master
$LN163@master:

; 5740 : 			{
; 5741 : 				//???
; 5742 : 			case 0:
; 5743 : 				a2 = ATR_ATTRIB_WORK(a1);

  00dd6	8b 4e 0c	 mov	 ecx, DWORD PTR [esi+12]
  00dd9	8b 81 18 01 00
	00		 mov	 eax, DWORD PTR [ecx+280]

; 5744 : 				ATR_ATTRIB_WORK(a1) = NULL;
; 5745 : 				DeathAction(a2);		//îŽ·?

  00ddf	50		 push	 eax
  00de0	c7 81 18 01 00
	00 00 00 00 00	 mov	 DWORD PTR [ecx+280], 0
  00dea	e8 00 00 00 00	 call	 ?DeathAction@@YAXPAUaction@@@Z ; DeathAction
  00def	83 c4 04	 add	 esp, 4

; 5750 : 				break;
; 5751 : 			}
; 5752 : 			break;

  00df2	e9 65 08 00 00	 jmp	 $LN17@master
$LN165@master:

; 5753 : 			//BL|????î‘·|??
; 5754 : 		case ATT_LIFE:		//??????????  î’Ÿ?îŸŽ?  ??????????
; 5755 : 			ATR_VCT_NO(a0) = 0;		//????

  00df7	8b 47 0c	 mov	 eax, DWORD PTR [edi+12]
  00dfa	c6 00 00	 mov	 BYTE PTR [eax], 0

; 5756 : 			ATR_DAMAGE(a1) = get_num();		//??îŽ•?î?

  00dfd	e8 00 00 00 00	 call	 ?get_num@@YAHXZ		; get_num
  00e02	8b 4e 0c	 mov	 ecx, DWORD PTR [esi+12]
  00e05	89 41 58	 mov	 DWORD PTR [ecx+88], eax

; 5757 : 			//??î–±î¸î•
; 5758 : 			ATR_LIFE(a1) = ATR_DAMAGE(a1);

  00e08	8b 4e 0c	 mov	 ecx, DWORD PTR [esi+12]

; 5759 : 			if (ATR_LIFE(a1) > ATR_MAX_LIFE(a1))		//?î•«î——???

  00e0b	8b 96 80 00 00
	00		 mov	 edx, DWORD PTR [esi+128]
  00e11	8b 41 58	 mov	 eax, DWORD PTR [ecx+88]
  00e14	89 46 78	 mov	 DWORD PTR [esi+120], eax
  00e17	3b c2		 cmp	 eax, edx
  00e19	7e 03		 jle	 SHORT $LN166@master

; 5760 : 				ATR_LIFE(a1) = ATR_MAX_LIFE(a1);		//?î•«???

  00e1b	89 56 78	 mov	 DWORD PTR [esi+120], edx
$LN166@master:

; 5761 : 			ATR_VCT_NO(a1) = 0;		//î˜…î?
; 5762 : 			ATR_CHR_ACT(a1) = ANIM_STAND;		//î˜…î???????
; 5763 : 			pattern(a1, ANM_NOMAL_SPD, ANM_LOOP);

  00e1e	6a 00		 push	 0
  00e20	6a 00		 push	 0
  00e22	c6 01 00	 mov	 BYTE PTR [ecx], 0
  00e25	56		 push	 esi
  00e26	c7 86 4c 01 00
	00 03 00 00 00	 mov	 DWORD PTR [esi+332], 3
  00e30	e8 00 00 00 00	 call	 ?pattern@@YAHPAUaction@@HH@Z ; pattern
  00e35	83 c4 0c	 add	 esp, 12			; 0000000cH

; 5764 : 			break;

  00e38	e9 1f 08 00 00	 jmp	 $LN17@master
$LN167@master:

; 5765 : 			//BQ|????î‘·
; 5766 : 		case ATT_QUIT:		//??????????  ???î™¦??  ??????????
; 5767 : 			ATR_BODY_CNT(a0) = 1;

  00e3d	8b 47 0c	 mov	 eax, DWORD PTR [edi+12]
  00e40	c6 40 54 01	 mov	 BYTE PTR [eax+84], 1

; 5768 : 			ATR_VCT_NO(a1) = 87;		//???î™¦??î“·?

  00e44	8b 46 0c	 mov	 eax, DWORD PTR [esi+12]
  00e47	c6 00 57	 mov	 BYTE PTR [eax], 87	; 00000057H

; 5769 : 			break;

  00e4a	e9 0d 08 00 00	 jmp	 $LN17@master
$LN168@master:

; 5770 : 			//BX|????î‘·
; 5771 : 		case ATT_NIX:		//??????????  ????îœ¸  ??????????
; 5772 : 			ATR_BODY_CNT(a0) = 1;

  00e4f	8b 47 0c	 mov	 eax, DWORD PTR [edi+12]
  00e52	c6 40 54 01	 mov	 BYTE PTR [eax+84], 1

; 5773 : 			ATR_VCT_NO(a1) = 90;		//????îœ¸

  00e56	8b 46 0c	 mov	 eax, DWORD PTR [esi+12]
  00e59	c6 00 5a	 mov	 BYTE PTR [eax], 90	; 0000005aH

; 5774 : 			break;

  00e5c	e9 fb 07 00 00	 jmp	 $LN17@master
$LN169@master:

; 5775 : 			//B!|??????????????î’•????
; 5776 : 		case ATT_COMPANIONS:	//??????????  î™¹????  ??????????
; 5777 : 			ATR_BODY_CNT(a0) = 1;

  00e61	8b 47 0c	 mov	 eax, DWORD PTR [edi+12]
  00e64	c6 40 54 01	 mov	 BYTE PTR [eax+84], 1

; 5778 : 			ATR_VCT_NO(a1) = 95;		//î™¹?????îŒ¿?

  00e68	8b 46 0c	 mov	 eax, DWORD PTR [esi+12]
  00e6b	c6 00 5f	 mov	 BYTE PTR [eax], 95	; 0000005fH

; 5779 : 			break;

  00e6e	e9 e9 07 00 00	 jmp	 $LN17@master
$LN170@master:

; 5780 : 			//B#|??î‘·?????î‘·?î’•????
; 5781 : 		case ATT_STEAL:	//??????????  ????  ??????????
; 5782 : 			ATR_BODY_CNT(a0) = 1;

  00e73	8b 47 0c	 mov	 eax, DWORD PTR [edi+12]
  00e76	c6 40 54 01	 mov	 BYTE PTR [eax+84], 1

; 5783 : 			ATR_VCT_NO(a1) = 100;		//??????

  00e7a	8b 46 0c	 mov	 eax, DWORD PTR [esi+12]
  00e7d	c6 00 64	 mov	 BYTE PTR [eax], 100	; 00000064H

; 5784 : 			break;

  00e80	e9 d7 07 00 00	 jmp	 $LN17@master
$LN171@master:

; 5785 : 			//B%|????î‘·????îœ±?
; 5786 : 		case ATT_TALK:	//??????????  ????  ??????????
; 5787 : 			ATR_BODY_CNT(a0) = 1;

  00e85	8b 47 0c	 mov	 eax, DWORD PTR [edi+12]
  00e88	c6 40 54 01	 mov	 BYTE PTR [eax+84], 1

; 5788 : 			ATR_VCT_NO(a1) = 110;		//?????

  00e8c	8b 46 0c	 mov	 eax, DWORD PTR [esi+12]
  00e8f	c6 00 6e	 mov	 BYTE PTR [eax], 110	; 0000006eH

; 5789 : 			ATR_STIMER(a1) = 60;

  00e92	8b 46 0c	 mov	 eax, DWORD PTR [esi+12]
  00e95	c6 40 01 3c	 mov	 BYTE PTR [eax+1], 60	; 0000003cH

; 5790 : 			d0 = get_num();		//???îœ±?îŽ•?î?

  00e99	e8 00 00 00 00	 call	 ?get_num@@YAHXZ		; get_num

; 5791 : 			//?????????î¸î•
; 5792 : 			set_damage_num(a1, 20, -64);

  00e9e	6a c0		 push	 -64			; ffffffc0H
  00ea0	6a 14		 push	 20			; 00000014H
  00ea2	56		 push	 esi
  00ea3	89 45 fc	 mov	 DWORD PTR _d0$[ebp], eax
  00ea6	e8 00 00 00 00	 call	 ?set_damage_num@@YAXPAUaction@@HH@Z ; set_damage_num
  00eab	83 c4 0c	 add	 esp, 12			; 0000000cH

; 5793 : 			break;

  00eae	e9 a9 07 00 00	 jmp	 $LN17@master
$LN172@master:

; 5794 : #ifdef _FIREHUNTER_SKILL				// (ä¸å¯å¼€) ROG ADD æœ±é›€æŠ€èƒ½_ç«çº¿çŒŽæ€
; 5795 : 		case ATT_FIRESKILL:
; 5796 : 			ATR_VCT_NO(a1) = FIRE_HUNTER_SKILL;		//ç«çº¿çŒŽæ€

  00eb3	8b 46 0c	 mov	 eax, DWORD PTR [esi+12]
  00eb6	c6 00 f0	 mov	 BYTE PTR [eax], 240	; 000000f0H

; 5797 : 			ATR_FIRST_FLG(a1) = 0;

  00eb9	8b 46 0c	 mov	 eax, DWORD PTR [esi+12]
  00ebc	c6 80 1e 01 00
	00 00		 mov	 BYTE PTR [eax+286], 0

; 5798 : 			iBeAttNum = get_num();

  00ec3	e8 00 00 00 00	 call	 ?get_num@@YAHXZ		; get_num
  00ec8	a3 00 00 00 00	 mov	 DWORD PTR ?iBeAttNum@@3HA, eax ; iBeAttNum

; 5799 : 			ATR_BODY_WORK(0, a1) = p_party[iBeAttNum];		//æ•Œäººä½å€

  00ecd	8b 4e 0c	 mov	 ecx, DWORD PTR [esi+12]
  00ed0	8b 04 85 00 00
	00 00		 mov	 eax, DWORD PTR ?p_party@@3PAPAUaction@@A[eax*4]
  00ed7	89 41 04	 mov	 DWORD PTR [ecx+4], eax

; 5800 : 			ATR_ATTACK_KIND(0, a1) = get_num();				//æ”»å‡»ç§ç±»

  00eda	e8 00 00 00 00	 call	 ?get_num@@YAHXZ		; get_num
  00edf	8b 4e 0c	 mov	 ecx, DWORD PTR [esi+12]
  00ee2	89 41 60	 mov	 DWORD PTR [ecx+96], eax

; 5801 : 			ATR_ATTACK_POW(0, a1) = get_num();				//æ”»å‡»åŠ›

  00ee5	e8 00 00 00 00	 call	 ?get_num@@YAHXZ		; get_num
  00eea	8b 4e 0c	 mov	 ecx, DWORD PTR [esi+12]
  00eed	89 81 b0 00 00
	00		 mov	 DWORD PTR [ecx+176], eax

; 5802 : 			//			if ( BattleCmd[command_point] == 'p' )	{
; 5803 : 			ATR_ATTACK_PET_POW(0, a1) = get_num();		//petæ”»å‡»åŠ›??

  00ef3	e8 00 00 00 00	 call	 ?get_num@@YAHXZ		; get_num
  00ef8	8b 4e 0c	 mov	 ecx, DWORD PTR [esi+12]
  00efb	89 81 d4 01 00
	00		 mov	 DWORD PTR [ecx+468], eax

; 5804 : 			//			}
; 5805 : 			d0 = get_num();							//äººæ•°

  00f01	e8 00 00 00 00	 call	 ?get_num@@YAHXZ		; get_num
  00f06	89 45 fc	 mov	 DWORD PTR _d0$[ebp], eax

; 5806 : 			ATR_BODY_CNT(a1) = d0;					//å¤šäººæ”»å‡»

  00f09	8b 4e 0c	 mov	 ecx, DWORD PTR [esi+12]
  00f0c	88 41 54	 mov	 BYTE PTR [ecx+84], al

; 5807 : 			for (d7 = 2; d7 < d0 + 2; d7++)

  00f0f	8b 45 fc	 mov	 eax, DWORD PTR _d0$[ebp]
  00f12	83 c0 02	 add	 eax, 2
  00f15	83 f8 02	 cmp	 eax, 2
  00f18	0f 8e 3e 07 00
	00		 jle	 $LN17@master

; 5794 : #ifdef _FIREHUNTER_SKILL				// (ä¸å¯å¼€) ROG ADD æœ±é›€æŠ€èƒ½_ç«çº¿çŒŽæ€
; 5795 : 		case ATT_FIRESKILL:
; 5796 : 			ATR_VCT_NO(a1) = FIRE_HUNTER_SKILL;		//ç«çº¿çŒŽæ€

  00f1e	bb b8 00 00 00	 mov	 ebx, 184		; 000000b8H
  00f23	bf 02 00 00 00	 mov	 edi, 2
$LL31@master:

; 5808 : 			{
; 5809 : 				int x = get_num();

  00f28	e8 00 00 00 00	 call	 ?get_num@@YAHXZ		; get_num

; 5810 : 
; 5811 : 				if (x == iBeAttNum)               //è¢«æ”»å‡»ç›®æ ‡çš„é­”æ³•ä¼¤å®³

  00f2d	3b 05 00 00 00
	00		 cmp	 eax, DWORD PTR ?iBeAttNum@@3HA ; iBeAttNum
  00f33	75 10		 jne	 SHORT $LN173@master

; 5812 : 				{
; 5813 : 					tarMgiDem = 1;

  00f35	c7 05 00 00 00
	00 01 00 00 00	 mov	 DWORD PTR ?tarMgiDem@@3HA, 1 ; tarMgiDem

; 5814 : 					tarpos = d7;//ATR_BODY_CNT(a1)--;

  00f3f	89 3d 00 00 00
	00		 mov	 DWORD PTR ?tarpos@@3HA, edi ; tarpos
$LN173@master:

; 5815 : 				}
; 5816 : 				ATR_BODY_WORK(d7 ,a1) = p_party[x];		//æ•Œäººä½å€

  00f45	8b 4e 0c	 mov	 ecx, DWORD PTR [esi+12]
  00f48	8b 04 85 00 00
	00 00		 mov	 eax, DWORD PTR ?p_party@@3PAPAUaction@@A[eax*4]
  00f4f	89 84 19 54 ff
	ff ff		 mov	 DWORD PTR [ecx+ebx-172], eax

; 5817 : 				ATR_ATTACK_KIND(d7 ,a1) = get_num();		//æ”»å‡»ç§ç±»

  00f56	e8 00 00 00 00	 call	 ?get_num@@YAHXZ		; get_num
  00f5b	8b 4e 0c	 mov	 ecx, DWORD PTR [esi+12]
  00f5e	89 44 19 b0	 mov	 DWORD PTR [ecx+ebx-80], eax

; 5818 : 				ATR_ATTACK_POW(d7 ,a1) = get_num();				//æ”»å‡»åŠ›

  00f62	e8 00 00 00 00	 call	 ?get_num@@YAHXZ		; get_num
  00f67	8b 4e 0c	 mov	 ecx, DWORD PTR [esi+12]
  00f6a	89 04 0b	 mov	 DWORD PTR [ebx+ecx], eax

; 5819 : 				ATR_ATTACK_PET_POW(d7 ,a1) = get_num();		//petæ”»å‡»åŠ›

  00f6d	e8 00 00 00 00	 call	 ?get_num@@YAHXZ		; get_num
  00f72	8b 4e 0c	 mov	 ecx, DWORD PTR [esi+12]
  00f75	47		 inc	 edi
  00f76	89 84 19 24 01
	00 00		 mov	 DWORD PTR [ecx+ebx+292], eax
  00f7d	83 c3 04	 add	 ebx, 4
  00f80	8b 45 fc	 mov	 eax, DWORD PTR _d0$[ebp]
  00f83	83 c0 02	 add	 eax, 2
  00f86	3b f8		 cmp	 edi, eax
  00f88	7c 9e		 jl	 SHORT $LL31@master

; 5820 : 				//}
; 5821 : 			}
; 5822 : 			break;

  00f8a	8b 7d 08	 mov	 edi, DWORD PTR _a0$[ebp]
  00f8d	e9 ca 06 00 00	 jmp	 $LN17@master
$LN174@master:

; 5823 : #endif
; 5824 : #ifdef _PROFESSION_ADDSKILL
; 5825 : 		case ATT_BOUNDARY:
; 5826 : 			ATR_VCT_NO(a0) = 0;

  00f92	8b 47 0c	 mov	 eax, DWORD PTR [edi+12]
  00f95	c6 00 00	 mov	 BYTE PTR [eax], 0

; 5827 : 			ATR_CHR_ACT(a0) = ANIM_STAND;
; 5828 : 			ATR_FIRST_FLG(a0) = 0;	

  00f98	8b 47 0c	 mov	 eax, DWORD PTR [edi+12]
  00f9b	c7 87 4c 01 00
	00 03 00 00 00	 mov	 DWORD PTR [edi+332], 3
  00fa5	c6 80 1e 01 00
	00 00		 mov	 BYTE PTR [eax+286], 0

; 5829 : 			ATR_VCT_NO(a1) = 0;		//î˜…î?

  00fac	8b 46 0c	 mov	 eax, DWORD PTR [esi+12]
  00faf	c6 00 00	 mov	 BYTE PTR [eax], 0

; 5830 : 			ATR_CHR_ACT(a1) = ANIM_STAND;		//î˜…î???????
; 5831 : 			ATR_FIRST_FLG(a1) = 0;

  00fb2	8b 46 0c	 mov	 eax, DWORD PTR [esi+12]
  00fb5	c7 86 4c 01 00
	00 03 00 00 00	 mov	 DWORD PTR [esi+332], 3
  00fbf	c6 80 1e 01 00
	00 00		 mov	 BYTE PTR [eax+286], 0

; 5832 : 			d0 = get_num();		//?????????îŽ•?î?

  00fc6	e8 00 00 00 00	 call	 ?get_num@@YAHXZ		; get_num

; 5833 : 			BuildBoundaryMagicData( d0 );

  00fcb	50		 push	 eax
  00fcc	89 45 fc	 mov	 DWORD PTR _d0$[ebp], eax
  00fcf	e8 00 00 00 00	 call	 ?BuildBoundaryMagicData@@YAHH@Z ; BuildBoundaryMagicData
  00fd4	83 c4 04	 add	 esp, 4

; 5834 : 			d0 = get_num();

  00fd7	e8 00 00 00 00	 call	 ?get_num@@YAHXZ		; get_num
  00fdc	89 45 fc	 mov	 DWORD PTR _d0$[ebp], eax

; 5835 : 			break;

  00fdf	e9 78 06 00 00	 jmp	 $LN17@master
$LN175@master:

; 5836 : #endif
; 5837 : #ifdef _PETSKILL_RIDE
; 5838 : 		case ATT_RIDE:
; 5839 : 			ATR_VCT_NO(a0) = 0;

  00fe4	8b 47 0c	 mov	 eax, DWORD PTR [edi+12]
  00fe7	c6 00 00	 mov	 BYTE PTR [eax], 0

; 5840 : 			ATR_CHR_ACT(a0) = ANIM_STAND;
; 5841 : 			ATR_FIRST_FLG(a0) = 0;	

  00fea	8b 47 0c	 mov	 eax, DWORD PTR [edi+12]
  00fed	c7 87 4c 01 00
	00 03 00 00 00	 mov	 DWORD PTR [edi+332], 3
  00ff7	c6 80 1e 01 00
	00 00		 mov	 BYTE PTR [eax+286], 0

; 5842 : 			ATR_VCT_NO(a1) = 0;		//î˜…î?

  00ffe	8b 46 0c	 mov	 eax, DWORD PTR [esi+12]
  01001	c6 00 00	 mov	 BYTE PTR [eax], 0

; 5843 : 			ATR_CHR_ACT(a1) = ANIM_STAND;		//î˜…î???????
; 5844 : 			ATR_FIRST_FLG(a1) = 0;

  01004	8b 46 0c	 mov	 eax, DWORD PTR [esi+12]
  01007	c7 86 4c 01 00
	00 03 00 00 00	 mov	 DWORD PTR [esi+332], 3
  01011	c6 80 1e 01 00
	00 00		 mov	 BYTE PTR [eax+286], 0

; 5845 : 			d0 = get_num(); //ä¸Šé©¬å›¾å·

  01018	e8 00 00 00 00	 call	 ?get_num@@YAHXZ		; get_num

; 5846 : 			petrideChangeGraph(a1,d0);

  0101d	50		 push	 eax
  0101e	56		 push	 esi
  0101f	89 45 fc	 mov	 DWORD PTR _d0$[ebp], eax
  01022	e8 00 00 00 00	 call	 ?petrideChangeGraph@@YAXPAUaction@@H@Z ; petrideChangeGraph
  01027	83 c4 08	 add	 esp, 8

; 5847 : 			d0 = get_num();

  0102a	e8 00 00 00 00	 call	 ?get_num@@YAHXZ		; get_num
  0102f	89 45 fc	 mov	 DWORD PTR _d0$[ebp], eax

; 5848 : 			break;

  01032	e9 25 06 00 00	 jmp	 $LN17@master
$LN176@master:

; 5849 : #endif
; 5850 : 		case ATT_BOW:		//??????????  ???  ??????????
; 5851 : 			ATR_VCT_NO(a1) = 30;		//????

  01037	8b 46 0c	 mov	 eax, DWORD PTR [esi+12]
  0103a	c6 00 1e	 mov	 BYTE PTR [eax], 30	; 0000001eH

; 5852 : 			ATR_LONG_WORK(0, a1) = get_num();		//îž¢îœ±????

  0103d	e8 00 00 00 00	 call	 ?get_num@@YAHXZ		; get_num
  01042	8b 4e 0c	 mov	 ecx, DWORD PTR [esi+12]
  01045	89 81 34 01 00
	00		 mov	 DWORD PTR [ecx+308], eax

; 5853 : 			if (ATR_LONG_WORK(0, a1) == 0)		//???

  0104b	8b 46 0c	 mov	 eax, DWORD PTR [esi+12]
  0104e	83 b8 34 01 00
	00 00		 cmp	 DWORD PTR [eax+308], 0
  01055	75 24		 jne	 SHORT $LN177@master

; 5854 : 			{
; 5855 : 				ATR_VCT_NO(a1) = 32;		//????

  01057	c6 00 20	 mov	 BYTE PTR [eax], 32	; 00000020H

; 5856 : 				ATR_STIMER(a1) = 0;		//?îš???????

  0105a	8b 46 0c	 mov	 eax, DWORD PTR [esi+12]
  0105d	c6 40 01 00	 mov	 BYTE PTR [eax+1], 0

; 5857 : 				ATR_DAMAGE(a1) = 1;		//

  01061	8b 46 0c	 mov	 eax, DWORD PTR [esi+12]
  01064	c7 40 58 01 00
	00 00		 mov	 DWORD PTR [eax+88], 1

; 5858 : 				ATR_PET_DAMAGE(a1) = 1;

  0106b	8b 46 0c	 mov	 eax, DWORD PTR [esi+12]
  0106e	c7 80 24 02 00
	00 01 00 00 00	 mov	 DWORD PTR [eax+548], 1
  01078	8b 46 0c	 mov	 eax, DWORD PTR [esi+12]
$LN177@master:

; 5859 : 			}
; 5860 : 			ATR_FIRST_FLG(a1) = 0;		//

  0107b	c6 80 1e 01 00
	00 00		 mov	 BYTE PTR [eax+286], 0

; 5861 : 			ATR_BODY_WORK(0, a1) = p_party[get_num()];		//î”‡?î˜©???

  01082	e8 00 00 00 00	 call	 ?get_num@@YAHXZ		; get_num
  01087	8b 4e 0c	 mov	 ecx, DWORD PTR [esi+12]
  0108a	8b 04 85 00 00
	00 00		 mov	 eax, DWORD PTR ?p_party@@3PAPAUaction@@A[eax*4]
  01091	89 41 04	 mov	 DWORD PTR [ecx+4], eax

; 5862 : 			ATR_ATTACK_KIND(0, a1) = get_num();		//??îŽœ????

  01094	e8 00 00 00 00	 call	 ?get_num@@YAHXZ		; get_num
  01099	8b 4e 0c	 mov	 ecx, DWORD PTR [esi+12]
  0109c	89 41 60	 mov	 DWORD PTR [ecx+96], eax

; 5863 : 			ATR_ATTACK_POW(0, a1) = get_num();		//??????

  0109f	e8 00 00 00 00	 call	 ?get_num@@YAHXZ		; get_num
  010a4	8b 4e 0c	 mov	 ecx, DWORD PTR [esi+12]
  010a7	89 81 b0 00 00
	00		 mov	 DWORD PTR [ecx+176], eax

; 5864 : 			if (BattleCmd[command_point] == 'p')

  010ad	a1 00 00 00 00	 mov	 eax, DWORD PTR ?command_point@@3HA
  010b2	80 b8 00 00 00
	00 70		 cmp	 BYTE PTR ?BattleCmd@@3PADA[eax], 112 ; 00000070H
  010b9	75 13		 jne	 SHORT $LN178@master

; 5865 : 				ATR_ATTACK_PET_POW(0, a1) = get_num();		//pet??????

  010bb	e8 00 00 00 00	 call	 ?get_num@@YAHXZ		; get_num
  010c0	8b 4e 0c	 mov	 ecx, DWORD PTR [esi+12]
  010c3	89 81 d4 01 00
	00		 mov	 DWORD PTR [ecx+468], eax
  010c9	a1 00 00 00 00	 mov	 eax, DWORD PTR ?command_point@@3HA
$LN178@master:

; 5866 : 
; 5867 : 			//ä¿®æ­£æŠ€èƒ½ç‰¹æ•ˆ xiezi
; 5868 : #ifdef _ATTACK_EFFECT
; 5869 : 			if (BattleCmd[command_point] == 's')

  010ce	80 b8 00 00 00
	00 73		 cmp	 BYTE PTR ?BattleCmd@@3PADA[eax], 115 ; 00000073H
  010d5	75 0e		 jne	 SHORT $LN179@master

; 5870 : 				ATR_LONG_WORK(0, a1) = get_num();	// è®°å½•ç‰¹æ•ˆç¼–å·

  010d7	e8 00 00 00 00	 call	 ?get_num@@YAHXZ		; get_num
  010dc	8b 4e 0c	 mov	 ecx, DWORD PTR [esi+12]
  010df	89 81 34 01 00
	00		 mov	 DWORD PTR [ecx+308], eax
$LN179@master:

; 5871 : #endif
; 5872 : 
; 5873 : 			ATR_BODY_CNT(a0) = 1;

  010e5	8b 47 0c	 mov	 eax, DWORD PTR [edi+12]

; 5874 : #ifdef _SHOOTCHESTNUT	// Syu ADD å® æŠ€ï¼šä¸¢æ —å­
; 5875 : 			(ATR_CHR_NO(a1) == 101578) ? ShooterNum = 101578 : ShooterNum = -1;
; 5876 : #endif
; 5877 : 			break;

  010e8	83 c9 ff	 or	 ecx, -1
  010eb	c6 40 54 01	 mov	 BYTE PTR [eax+84], 1
  010ef	b8 ca 8c 01 00	 mov	 eax, 101578		; 00018ccaH
  010f4	39 86 44 01 00
	00		 cmp	 DWORD PTR [esi+324], eax
  010fa	0f 45 c1	 cmovne	 eax, ecx
  010fd	a3 00 00 00 00	 mov	 DWORD PTR ?ShooterNum@@3HA, eax ; ShooterNum
  01102	e9 55 05 00 00	 jmp	 $LN17@master
$LN180@master:

; 5878 : 		case ATT_BOOMERANG:		//??????????  ???????  ??????????
; 5879 : 			ATR_VCT_NO(a1) = 70;		//????????

  01107	8b 46 0c	 mov	 eax, DWORD PTR [esi+12]
  0110a	c6 00 46	 mov	 BYTE PTR [eax], 70	; 00000046H

; 5880 : 			ATR_FIRST_FLG(a1) = 0;		//

  0110d	8b 46 0c	 mov	 eax, DWORD PTR [esi+12]
  01110	c6 80 1e 01 00
	00 00		 mov	 BYTE PTR [eax+286], 0

; 5881 : 			ATR_BODY_CNT(a0) = 1;

  01117	8b 47 0c	 mov	 eax, DWORD PTR [edi+12]
  0111a	c6 40 54 01	 mov	 BYTE PTR [eax+84], 1

; 5882 : 			break;

  0111e	e9 39 05 00 00	 jmp	 $LN17@master
$LN181@master:

; 5883 : 		case ATT_FIRE:		//??????????  ?îŸ¹???  ??????????
; 5884 : 			d0 = get_body_cnt();		//??î‘·?îŽ•?î?

  01123	e8 00 00 00 00	 call	 ?get_body_cnt@@YAHXZ	; get_body_cnt
  01128	89 45 fc	 mov	 DWORD PTR _d0$[ebp], eax
  0112b	8b 4e 0c	 mov	 ecx, DWORD PTR [esi+12]

; 5885 : 			if (d0 != 1)		//î•ƒîœŠ????

  0112e	c6 01 14	 mov	 BYTE PTR [ecx], 20	; 00000014H
  01131	83 f8 01	 cmp	 eax, 1
  01134	74 42		 je	 SHORT $LN182@master

; 5886 : 			{
; 5887 : 				ATR_VCT_NO(a1) = 20;		//???îŸ¹?
; 5888 : 				ATR_BODY_CNT(a0) = d0;		//??îœŠ??

  01136	8b 4f 0c	 mov	 ecx, DWORD PTR [edi+12]
  01139	8a 45 fc	 mov	 al, BYTE PTR _d0$[ebp]
  0113c	88 41 54	 mov	 BYTE PTR [ecx+84], al

; 5889 : 				ATR_BODY_CNT(a1) = d0;		//

  0113f	8b 4e 0c	 mov	 ecx, DWORD PTR [esi+12]
  01142	8a 45 fc	 mov	 al, BYTE PTR _d0$[ebp]
  01145	88 41 54	 mov	 BYTE PTR [ecx+84], al

; 5890 : 				if (ATR_GROUP_FLG(a1) == 0)

  01148	8b 46 0c	 mov	 eax, DWORD PTR [esi+12]
  0114b	8a 40 5e	 mov	 al, BYTE PTR [eax+94]
  0114e	84 c0		 test	 al, al
  01150	75 0f		 jne	 SHORT $LN184@master

; 5891 : 					ATR_CHR_ANG(a1) = 3;

  01152	c7 86 54 01 00
	00 03 00 00 00	 mov	 DWORD PTR [esi+340], 3
  0115c	e9 fb 04 00 00	 jmp	 $LN17@master
$LN184@master:

; 5892 : 				else if (ATR_GROUP_FLG(a1) == 1)

  01161	3c 01		 cmp	 al, 1
  01163	0f 85 f3 04 00
	00		 jne	 $LN17@master

; 5893 : 					ATR_CHR_ANG(a1) = 7;

  01169	c7 86 54 01 00
	00 07 00 00 00	 mov	 DWORD PTR [esi+340], 7

; 5894 : #ifdef _BATTLE_PK_PLAYER_FOR_40
; 5895 : 				else if (ATR_GROUP_FLG(a1) == 2)
; 5896 : 					ATR_CHR_ANG(a1) = 5;
; 5897 : 				else if (ATR_GROUP_FLG(a1) == 3)	
; 5898 : 					ATR_CHR_ANG(a1) = 1;
; 5899 : #endif
; 5900 : 
; 5901 : 			}

  01173	e9 e4 04 00 00	 jmp	 $LN17@master
$LN182@master:

; 5902 : 			else
; 5903 : 			{	//?îœŠ????
; 5904 : 				ATR_VCT_NO(a1) = 20;		//???îŸ¹?
; 5905 : 				ATR_BODY_CNT(a0) = 1;		//?îœŠ??

  01178	8b 47 0c	 mov	 eax, DWORD PTR [edi+12]
  0117b	c6 40 54 01	 mov	 BYTE PTR [eax+84], 1

; 5906 : 				ATR_BODY_CNT(a1) = 1;		//

  0117f	8b 46 0c	 mov	 eax, DWORD PTR [esi+12]
  01182	c6 40 54 01	 mov	 BYTE PTR [eax+84], 1

; 5907 : 				a2 = ATR_BODY_WORK(0, a1) = p_party[get_num()];		//î”‡?î˜©

  01186	e8 00 00 00 00	 call	 ?get_num@@YAHXZ		; get_num
  0118b	8b 4e 0c	 mov	 ecx, DWORD PTR [esi+12]
  0118e	8b 04 85 00 00
	00 00		 mov	 eax, DWORD PTR ?p_party@@3PAPAUaction@@A[eax*4]
  01195	89 41 04	 mov	 DWORD PTR [ecx+4], eax

; 5908 : 			}
; 5909 : 			break;

  01198	e9 bf 04 00 00	 jmp	 $LN17@master
$LN187@master:

; 5910 : 		case ATT_SYNCHRONOUS:		//??????????  î™¯???  ??????????
; 5911 : 			a3 = a2 = a1;		//î”‡?î˜©î•¤î
; 5912 : 			d1 = 0;		//????????
; 5913 : 			d2 = 0;
; 5914 : 			d7 = 0;		//??îŽ????

  0119d	33 db		 xor	 ebx, ebx
  0119f	89 75 e8	 mov	 DWORD PTR _a2$5$[ebp], esi
  011a2	89 75 f0	 mov	 DWORD PTR _a3$2$[ebp], esi
  011a5	c7 45 f8 00 00
	00 00		 mov	 DWORD PTR _d1$[ebp], 0
  011ac	c7 45 08 00 00
	00 00		 mov	 DWORD PTR _d2$2$[ebp], 0
  011b3	89 5d ec	 mov	 DWORD PTR _d7$3$[ebp], ebx

; 5915 : 			while (1)
; 5916 : 			{
; 5917 : 				d0 = get_num();		//???????

  011b6	e8 00 00 00 00	 call	 ?get_num@@YAHXZ		; get_num
  011bb	89 45 fc	 mov	 DWORD PTR _d0$[ebp], eax

; 5918 : 				if (d0 == 255)		//îŽ·???

  011be	3d ff 00 00 00	 cmp	 eax, 255		; 000000ffH
  011c3	0f 84 0a 01 00
	00		 je	 $LN288@master
  011c9	0f 1f 80 00 00
	00 00		 npad	 7
$LL32@master:

; 5919 : 					break;
; 5920 : 				a1 = p_party[d0];		//???????

  011d0	8b 34 85 00 00
	00 00		 mov	 esi, DWORD PTR ?p_party@@3PAPAUaction@@A[eax*4]

; 5921 : 				if (ATR_NAME(a1) == NULL)		//????????

  011d7	83 7e 08 00	 cmp	 DWORD PTR [esi+8], 0
  011db	75 2b		 jne	 SHORT $LN189@master

; 5922 : 				{
; 5923 : #ifdef _STONDEBUG_
; 5924 : 					MessageBox(hWnd, "æ²¡æœ‰åˆä½“æ”»å‡»çš„åå­—ç´§æ€¥è¿žç»œæ—¥æœ¬ï¼", "Error", MB_OK);
; 5925 : #endif
; 5926 : 					get_num();		//??îŽœ????

  011dd	e8 00 00 00 00	 call	 ?get_num@@YAHXZ		; get_num

; 5927 : 					get_num();		//??????

  011e2	e8 00 00 00 00	 call	 ?get_num@@YAHXZ		; get_num

; 5928 : 					get_num();		//????îŒ«

  011e7	e8 00 00 00 00	 call	 ?get_num@@YAHXZ		; get_num

; 5929 : 					if (BattleCmd[command_point] == 'p')

  011ec	a1 00 00 00 00	 mov	 eax, DWORD PTR ?command_point@@3HA
  011f1	80 b8 00 00 00
	00 70		 cmp	 BYTE PTR ?BattleCmd@@3PADA[eax], 112 ; 00000070H
  011f8	0f 85 c2 00 00
	00		 jne	 $LN300@master

; 5930 : 						get_num();		//pet????îŒ«

  011fe	e8 00 00 00 00	 call	 ?get_num@@YAHXZ		; get_num

; 5931 : 
; 5932 : 					continue;

  01203	e9 b8 00 00 00	 jmp	 $LN300@master
$LN189@master:

; 5933 : 				}
; 5934 : 				if (d7 == 0)		//?î‘·????îŽ??

  01208	85 db		 test	 ebx, ebx
  0120a	75 09		 jne	 SHORT $LN191@master

; 5935 : 					ATR_COUNTER(a0) = a1;		//?????îŸ‰?

  0120c	8b 47 0c	 mov	 eax, DWORD PTR [edi+12]
  0120f	89 b0 08 01 00
	00		 mov	 DWORD PTR [eax+264], esi
$LN191@master:

; 5936 : 				ATR_VCT_NO(a1) = 1;		//î“·î‘´?

  01215	8b 46 0c	 mov	 eax, DWORD PTR [esi+12]

; 5937 : 				ATR_BODY_WORK(0, a1) = a3;		//î”‡?î˜©

  01218	8b 4d f0	 mov	 ecx, DWORD PTR _a3$2$[ebp]
  0121b	c6 00 01	 mov	 BYTE PTR [eax], 1
  0121e	8b 46 0c	 mov	 eax, DWORD PTR [esi+12]
  01221	89 48 04	 mov	 DWORD PTR [eax+4], ecx

; 5938 : 				ATR_BODY_WORK(1, a2) = a1;		//î“·????îŽ?????îŽ???

  01224	8b 45 e8	 mov	 eax, DWORD PTR _a2$5$[ebp]
  01227	8b 40 0c	 mov	 eax, DWORD PTR [eax+12]
  0122a	89 70 08	 mov	 DWORD PTR [eax+8], esi

; 5939 : 				ATR_ATTACK_KIND(0, a1) = get_num();

  0122d	e8 00 00 00 00	 call	 ?get_num@@YAHXZ		; get_num
  01232	8b 4e 0c	 mov	 ecx, DWORD PTR [esi+12]
  01235	89 41 60	 mov	 DWORD PTR [ecx+96], eax

; 5940 : #ifdef _PETSKILL_ACUPUNCTURE
; 5941 : 				///////////////////////
; 5942 : #ifdef _BATTLESKILL				// (ä¸å¯å¼€) Syu ADD æˆ˜æ–—æŠ€èƒ½ä»‹é¢
; 5943 : 				if (ATR_ATTACK_KIND(0, a1) & ATT_REFLEX+ATT_ABSORPTION+ATT_BALLIA+ATT_TRAP+ATT_ACUPUNCTURE

  01238	8b 5e 0c	 mov	 ebx, DWORD PTR [esi+12]
  0123b	e8 00 00 00 00	 call	 ?get_num@@YAHXZ		; get_num
  01240	f7 43 60 00 1c
	00 4a		 test	 DWORD PTR [ebx+96], 1241521152 ; 4a001c00H
  01247	89 83 b0 00 00
	00		 mov	 DWORD PTR [ebx+176], eax
  0124d	74 15		 je	 SHORT $LN192@master

; 5944 : #ifdef _PET_ITEM
; 5945 : 					+ ATT_ATTACKBACK
; 5946 : #endif
; 5947 : 					)
; 5948 : #else
; 5949 : 				if (ATR_ATTACK_KIND(0, a1) & ATT_REFLEX+ATT_ABSORPTION+ATT_BALLIA+ATT_ACUPUNCTURE
; 5950 : #ifdef _PET_ITEM
; 5951 : 					+ ATT_ATTACKBACK
; 5952 : #endif
; 5953 : 					)
; 5954 : #endif
; 5955 : 					///////////////////////
; 5956 : #else
; 5957 : 				///////////////////////
; 5958 : #ifdef _BATTLESKILL				// (ä¸å¯å¼€) Syu ADD æˆ˜æ–—æŠ€èƒ½ä»‹é¢
; 5959 : 				if (ATR_ATTACK_KIND(0, a1) & ATT_REFLEX+ATT_ABSORPTION+ATT_BALLIA+ATT_TRAP)
; 5960 : #else
; 5961 : 				if (ATR_ATTACK_KIND(0, a1) & ATT_REFLEX + ATT_ABSORPTION + ATT_BALLIA)
; 5962 : #endif
; 5963 : 					///////////////////////
; 5964 : #endif
; 5965 : 				{
; 5966 : 					ATR_ATTACK_POW(0, a1) = get_num();		//??????
; 5967 : 					if (BattleCmd[command_point] == 'p')

  0124f	a1 00 00 00 00	 mov	 eax, DWORD PTR ?command_point@@3HA
  01254	80 b8 00 00 00
	00 70		 cmp	 BYTE PTR ?BattleCmd@@3PADA[eax], 112 ; 00000070H
  0125b	75 2e		 jne	 SHORT $LN196@master

; 5968 : 						ATR_ATTACK_PET_POW(0, a1) = get_num();		//pet??????

  0125d	e8 00 00 00 00	 call	 ?get_num@@YAHXZ		; get_num

; 5969 : 					//ä¿®æ­£æŠ€èƒ½ç‰¹æ•ˆ xiezi
; 5970 : #ifdef _ATTACK_EFFECT
; 5971 : 					if (BattleCmd[command_point] == 's')
; 5972 : 						ATR_LONG_WORK(0, a1) = get_num();	// è®°å½•ç‰¹æ•ˆç¼–å·
; 5973 : #endif
; 5974 : 				}

  01262	eb 19		 jmp	 SHORT $LN365@master
$LN192@master:

; 5975 : 				else
; 5976 : 				{
; 5977 : 					d1 += ATR_ATTACK_POW(0, a1) = get_num();		//????îŒ«

  01264	01 45 f8	 add	 DWORD PTR _d1$[ebp], eax

; 5978 : 					if (BattleCmd[command_point] == 'p')

  01267	a1 00 00 00 00	 mov	 eax, DWORD PTR ?command_point@@3HA
  0126c	80 b8 00 00 00
	00 70		 cmp	 BYTE PTR ?BattleCmd@@3PADA[eax], 112 ; 00000070H
  01273	75 16		 jne	 SHORT $LN196@master

; 5979 : 						d2 += ATR_ATTACK_PET_POW(0, a1) = get_num();		//pet????îŒ«

  01275	e8 00 00 00 00	 call	 ?get_num@@YAHXZ		; get_num
  0127a	01 45 08	 add	 DWORD PTR _d2$2$[ebp], eax
$LN365@master:

; 5980 : 					else
; 5981 : 						LogToBattleError(BattleCmd, __LINE__);
; 5982 : 
; 5983 : 					//ä¿®æ­£æŠ€èƒ½ç‰¹æ•ˆ xiezi
; 5984 : #ifdef _ATTACK_EFFECT
; 5985 : 					if (BattleCmd[command_point] == 's')
; 5986 : 						ATR_LONG_WORK(0, a1) = get_num();	// è®°å½•ç‰¹æ•ˆç¼–å·
; 5987 : #endif
; 5988 : 				}
; 5989 : 				ATR_FIRST_FLG(a1) = 0;		//??????

  0127d	8b 4e 0c	 mov	 ecx, DWORD PTR [esi+12]
  01280	89 81 d4 01 00
	00		 mov	 DWORD PTR [ecx+468], eax
  01286	a1 00 00 00 00	 mov	 eax, DWORD PTR ?command_point@@3HA
$LN196@master:
  0128b	80 b8 00 00 00
	00 73		 cmp	 BYTE PTR ?BattleCmd@@3PADA[eax], 115 ; 00000073H
  01292	75 0e		 jne	 SHORT $LN198@master
  01294	e8 00 00 00 00	 call	 ?get_num@@YAHXZ		; get_num
  01299	8b 4e 0c	 mov	 ecx, DWORD PTR [esi+12]
  0129c	89 81 34 01 00
	00		 mov	 DWORD PTR [ecx+308], eax
$LN198@master:
  012a2	8b 46 0c	 mov	 eax, DWORD PTR [esi+12]

; 5990 : 				ATR_SYNC_FLG(a1) = 1;		//
; 5991 : 				a2 = a1;		//î“·????îŽ
; 5992 : 				d7++;		//??îŽ??îŒ«

  012a5	8b 5d ec	 mov	 ebx, DWORD PTR _d7$3$[ebp]
  012a8	43		 inc	 ebx
  012a9	89 75 e8	 mov	 DWORD PTR _a2$5$[ebp], esi
  012ac	89 5d ec	 mov	 DWORD PTR _d7$3$[ebp], ebx
  012af	c6 80 1e 01 00
	00 00		 mov	 BYTE PTR [eax+286], 0
  012b6	8b 46 0c	 mov	 eax, DWORD PTR [esi+12]
  012b9	c6 80 23 01 00
	00 01		 mov	 BYTE PTR [eax+291], 1
$LN300@master:

; 5915 : 			while (1)
; 5916 : 			{
; 5917 : 				d0 = get_num();		//???????

  012c0	e8 00 00 00 00	 call	 ?get_num@@YAHXZ		; get_num
  012c5	89 45 fc	 mov	 DWORD PTR _d0$[ebp], eax

; 5918 : 				if (d0 == 255)		//îŽ·???

  012c8	3d ff 00 00 00	 cmp	 eax, 255		; 000000ffH
  012cd	0f 85 fd fe ff
	ff		 jne	 $LL32@master
$LN288@master:

; 5993 : 			}
; 5994 : 			ATR_SYNC_FLG(a1) = 2;		//?????

  012d3	8b 46 0c	 mov	 eax, DWORD PTR [esi+12]
  012d6	c6 80 23 01 00
	00 02		 mov	 BYTE PTR [eax+291], 2

; 5995 : 			if (d1)		//???????

  012dd	8b 4d f8	 mov	 ecx, DWORD PTR _d1$[ebp]
  012e0	85 c9		 test	 ecx, ecx
  012e2	74 09		 je	 SHORT $LN199@master

; 5996 : 				ATR_ATTACK_POW(0, a1) = d1;		//????????

  012e4	8b 46 0c	 mov	 eax, DWORD PTR [esi+12]
  012e7	89 88 b0 00 00
	00		 mov	 DWORD PTR [eax+176], ecx
$LN199@master:

; 5997 : 			if (d2)		//???????

  012ed	8b 4d 08	 mov	 ecx, DWORD PTR _d2$2$[ebp]
  012f0	85 c9		 test	 ecx, ecx
  012f2	74 09		 je	 SHORT $LN200@master

; 5998 : 				ATR_ATTACK_PET_POW(0, a1) = d2;		//????????

  012f4	8b 46 0c	 mov	 eax, DWORD PTR [esi+12]
  012f7	89 88 d4 01 00
	00		 mov	 DWORD PTR [eax+468], ecx
$LN200@master:

; 5999 : 			ATR_LONG_WORK(0, a3) = d7;		//??????

  012fd	8b 45 f0	 mov	 eax, DWORD PTR _a3$2$[ebp]
  01300	8b 40 0c	 mov	 eax, DWORD PTR [eax+12]
  01303	89 98 34 01 00
	00		 mov	 DWORD PTR [eax+308], ebx

; 6000 : 			ATR_BODY_CNT(a0) = d7;

  01309	8b 47 0c	 mov	 eax, DWORD PTR [edi+12]
  0130c	88 58 54	 mov	 BYTE PTR [eax+84], bl

; 6001 : 			break;

  0130f	e9 48 03 00 00	 jmp	 $LN17@master
$LN201@master:

; 6002 : 		case 2:		//??????????  ???îŸ¹?  ??????????
; 6003 : 			d0 = get_num();		//??î‘·?îŽ•?î?

  01314	e8 00 00 00 00	 call	 ?get_num@@YAHXZ		; get_num
  01319	89 45 fc	 mov	 DWORD PTR _d0$[ebp], eax
  0131c	8b 4e 0c	 mov	 ecx, DWORD PTR [esi+12]

; 6004 : 			if (d0 != 1)		//??îœŠ????

  0131f	c6 01 19	 mov	 BYTE PTR [ecx], 25	; 00000019H
  01322	83 f8 01	 cmp	 eax, 1
  01325	74 40		 je	 SHORT $LN202@master

; 6005 : 			{
; 6006 : 				ATR_VCT_NO(a1) = 25;		//???îŸ¹?
; 6007 : 				ATR_BODY_CNT(a0) = d0;		//??îœŠ??

  01327	8b 4f 0c	 mov	 ecx, DWORD PTR [edi+12]

; 6008 : 				ATR_BODY_CNT(a1) = d0;		//
; 6009 : 				for (d7 = 0; d7 < d0; d7++)

  0132a	33 db		 xor	 ebx, ebx
  0132c	8a 45 fc	 mov	 al, BYTE PTR _d0$[ebp]
  0132f	88 41 54	 mov	 BYTE PTR [ecx+84], al
  01332	8b 4e 0c	 mov	 ecx, DWORD PTR [esi+12]
  01335	8a 45 fc	 mov	 al, BYTE PTR _d0$[ebp]
  01338	88 41 54	 mov	 BYTE PTR [ecx+84], al
  0133b	39 5d fc	 cmp	 DWORD PTR _d0$[ebp], ebx
  0133e	7e 52		 jle	 SHORT $LN35@master
$LL36@master:

; 6010 : 				{
; 6011 : 					ATR_BODY_WORK(d7, a1) = p_party[get_num()];		//î”‡?î˜©

  01340	e8 00 00 00 00	 call	 ?get_num@@YAHXZ		; get_num
  01345	8b 4e 0c	 mov	 ecx, DWORD PTR [esi+12]
  01348	8b 04 85 00 00
	00 00		 mov	 eax, DWORD PTR ?p_party@@3PAPAUaction@@A[eax*4]
  0134f	89 44 99 04	 mov	 DWORD PTR [ecx+ebx*4+4], eax

; 6012 : 					ATR_ATTACK_KIND(d7, a1) = get_num();		//??îŽœ????

  01353	e8 00 00 00 00	 call	 ?get_num@@YAHXZ		; get_num
  01358	8b 4e 0c	 mov	 ecx, DWORD PTR [esi+12]
  0135b	89 44 99 60	 mov	 DWORD PTR [ecx+ebx*4+96], eax
  0135f	43		 inc	 ebx
  01360	3b 5d fc	 cmp	 ebx, DWORD PTR _d0$[ebp]
  01363	7c db		 jl	 SHORT $LL36@master

; 6013 : 				}
; 6014 : 				d0 = 320;
; 6015 : 				d1 = 240;
; 6016 : 				radar(a1, &d0, &d1);	//????
; 6017 : 				ATR_CRS(a1) = d0;		/* ?????? */
; 6018 : 				ATR_CHR_ANG(a1) = crs_change_tbl[d0];		/* ????? */
; 6019 : 			}

  01365	eb 2b		 jmp	 SHORT $LN35@master
$LN202@master:

; 6020 : 			else
; 6021 : 			{
; 6022 : 				ATR_VCT_NO(a1) = 25;		//???îŸ¹?
; 6023 : 				ATR_BODY_CNT(a0) = 1;		//?îœŠ??

  01367	8b 47 0c	 mov	 eax, DWORD PTR [edi+12]
  0136a	c6 40 54 01	 mov	 BYTE PTR [eax+84], 1

; 6024 : 				ATR_BODY_CNT(a1) = 1;		//

  0136e	8b 46 0c	 mov	 eax, DWORD PTR [esi+12]
  01371	c6 40 54 01	 mov	 BYTE PTR [eax+84], 1

; 6025 : 				ATR_BODY_WORK(0, a1) = p_party[get_num()];		//î”‡?î˜©

  01375	e8 00 00 00 00	 call	 ?get_num@@YAHXZ		; get_num
  0137a	8b 4e 0c	 mov	 ecx, DWORD PTR [esi+12]
  0137d	8b 04 85 00 00
	00 00		 mov	 eax, DWORD PTR ?p_party@@3PAPAUaction@@A[eax*4]
  01384	89 41 04	 mov	 DWORD PTR [ecx+4], eax

; 6026 : 				ATR_ATTACK_KIND(0, a1) = get_num();		//??îŽœ????

  01387	e8 00 00 00 00	 call	 ?get_num@@YAHXZ		; get_num
  0138c	8b 4e 0c	 mov	 ecx, DWORD PTR [esi+12]
  0138f	89 41 60	 mov	 DWORD PTR [ecx+96], eax
$LN35@master:

; 6027 : 				d0 = 320;
; 6028 : 				d1 = 240;
; 6029 : 				radar(a1, &d0, &d1);	//????
; 6030 : 				ATR_CRS(a1) = d0;		/* ?????? */
; 6031 : 				ATR_CHR_ANG(a1) = crs_change_tbl[d0];		/* ????? */
; 6032 : 			}
; 6033 : 			break;

  01392	8d 45 f8	 lea	 eax, DWORD PTR _d1$[ebp]
  01395	c7 45 fc 40 01
	00 00		 mov	 DWORD PTR _d0$[ebp], 320 ; 00000140H
  0139c	50		 push	 eax
  0139d	8d 45 fc	 lea	 eax, DWORD PTR _d0$[ebp]
  013a0	c7 45 f8 f0 00
	00 00		 mov	 DWORD PTR _d1$[ebp], 240 ; 000000f0H
  013a7	50		 push	 eax
  013a8	56		 push	 esi
  013a9	e8 00 00 00 00	 call	 ?radar@@YAXPAUaction@@PAH1@Z ; radar
  013ae	8b 45 fc	 mov	 eax, DWORD PTR _d0$[ebp]
  013b1	83 c4 0c	 add	 esp, 12			; 0000000cH
  013b4	89 86 38 01 00
	00		 mov	 DWORD PTR [esi+312], eax
  013ba	8b 45 fc	 mov	 eax, DWORD PTR _d0$[ebp]
  013bd	8d 80 00 00 00
	00		 lea	 eax, DWORD PTR ?crs_change_tbl@@3PAEA[eax]
  013c3	0f b6 00	 movzx	 eax, BYTE PTR [eax]
  013c6	89 86 54 01 00
	00		 mov	 DWORD PTR [esi+340], eax
  013cc	e9 8b 02 00 00	 jmp	 $LN17@master
$LN204@master:

; 6034 : 		case 3:		//??????????  ????  ??????????
; 6035 : 			d0 = get_num();		//??î‘·?îŽ•?î?

  013d1	e8 00 00 00 00	 call	 ?get_num@@YAHXZ		; get_num
  013d6	89 45 fc	 mov	 DWORD PTR _d0$[ebp], eax

; 6036 : 			ATR_VCT_NO(a1) = 30;		//???îŸ¹?
; 6037 : 			ATR_BODY_CNT(a0) = d0;		//?îœŠ??
; 6038 : 			ATR_BODY_CNT(a1) = d0;		//
; 6039 : 			for (d7 = 0; d7 < d0; d7++)

  013d9	33 db		 xor	 ebx, ebx
  013db	8b 46 0c	 mov	 eax, DWORD PTR [esi+12]
  013de	c6 00 1e	 mov	 BYTE PTR [eax], 30	; 0000001eH
  013e1	8b 4f 0c	 mov	 ecx, DWORD PTR [edi+12]
  013e4	8a 45 fc	 mov	 al, BYTE PTR _d0$[ebp]
  013e7	88 41 54	 mov	 BYTE PTR [ecx+84], al
  013ea	8b 4e 0c	 mov	 ecx, DWORD PTR [esi+12]
  013ed	8a 45 fc	 mov	 al, BYTE PTR _d0$[ebp]
  013f0	88 41 54	 mov	 BYTE PTR [ecx+84], al
  013f3	39 5d fc	 cmp	 DWORD PTR _d0$[ebp], ebx
  013f6	0f 8e 60 02 00
	00		 jle	 $LN17@master
  013fc	0f 1f 40 00	 npad	 4
$LL39@master:

; 6040 : 			{
; 6041 : 				ATR_BODY_WORK(d7, a1) = p_party[get_num()];		//î”‡?î˜©

  01400	e8 00 00 00 00	 call	 ?get_num@@YAHXZ		; get_num
  01405	8b 4e 0c	 mov	 ecx, DWORD PTR [esi+12]
  01408	8b 04 85 00 00
	00 00		 mov	 eax, DWORD PTR ?p_party@@3PAPAUaction@@A[eax*4]
  0140f	89 44 99 04	 mov	 DWORD PTR [ecx+ebx*4+4], eax

; 6042 : 				ATR_ATTACK_KIND(d7, a1) = get_num();		//??îŽœ????

  01413	e8 00 00 00 00	 call	 ?get_num@@YAHXZ		; get_num
  01418	8b 4e 0c	 mov	 ecx, DWORD PTR [esi+12]
  0141b	89 44 99 60	 mov	 DWORD PTR [ecx+ebx*4+96], eax
  0141f	43		 inc	 ebx
  01420	3b 5d fc	 cmp	 ebx, DWORD PTR _d0$[ebp]
  01423	7c db		 jl	 SHORT $LL39@master

; 6043 : 			}
; 6044 : 			break;

  01425	e9 32 02 00 00	 jmp	 $LN17@master
$LN205@master:

; 6045 : 		case ATT_TAKE:		//??????????  îŸ™?  ??????????
; 6046 : 			ATR_VCT_NO(a1) = 35;		//îŸ™??îŒ¿

  0142a	8b 46 0c	 mov	 eax, DWORD PTR [esi+12]
  0142d	c6 00 23	 mov	 BYTE PTR [eax], 35	; 00000023H

; 6047 : 			ATR_BODY_WORK(0, a1) = p_party[get_num()];		//î”‡?î˜©???

  01430	e8 00 00 00 00	 call	 ?get_num@@YAHXZ		; get_num
  01435	8b 4e 0c	 mov	 ecx, DWORD PTR [esi+12]
  01438	8b 04 85 00 00
	00 00		 mov	 eax, DWORD PTR ?p_party@@3PAPAUaction@@A[eax*4]
  0143f	89 41 04	 mov	 DWORD PTR [ecx+4], eax

; 6048 : 			ATR_ATTACK_KIND(0, a1) = get_num();		//î’•?î§î›²???

  01442	e8 00 00 00 00	 call	 ?get_num@@YAHXZ		; get_num
  01447	8b 4e 0c	 mov	 ecx, DWORD PTR [esi+12]
  0144a	89 41 60	 mov	 DWORD PTR [ecx+96], eax

; 6049 : 			ATR_BODY_CNT(a0) = 1;

  0144d	8b 47 0c	 mov	 eax, DWORD PTR [edi+12]
  01450	c6 40 54 01	 mov	 BYTE PTR [eax+84], 1

; 6050 : 			break;

  01454	e9 03 02 00 00	 jmp	 $LN17@master
$LN206@master:

; 6051 : 		case ATT_ESCAPE:		//??????????  î“–î™¬î–Šî  ??????????
; 6052 : 			ATR_BODY_CNT(a0) = 1;		//î–ŠîîŽî‘·????

  01459	8b 47 0c	 mov	 eax, DWORD PTR [edi+12]
  0145c	c6 40 54 01	 mov	 BYTE PTR [eax+84], 1

; 6053 : 			d1 = ATR_ATTACK_KIND(0, a1) = get_num();		//î’•?î§î›²???

  01460	e8 00 00 00 00	 call	 ?get_num@@YAHXZ		; get_num
  01465	8b 4e 0c	 mov	 ecx, DWORD PTR [esi+12]
  01468	89 41 60	 mov	 DWORD PTR [ecx+96], eax

; 6054 : 			ATR_VCT_NO(a1) = 52;		//î–Šî?
; 6055 : 			if (BattleMyNo == ATR_PLACE_NO(a1))		//î˜îž¤??

  0146b	33 c9		 xor	 ecx, ecx
  0146d	89 45 f8	 mov	 DWORD PTR _d1$[ebp], eax
  01470	8b 46 0c	 mov	 eax, DWORD PTR [esi+12]
  01473	c6 00 34	 mov	 BYTE PTR [eax], 52	; 00000034H
  01476	8b 46 0c	 mov	 eax, DWORD PTR [esi+12]
  01479	0f b6 80 1f 01
	00 00		 movzx	 eax, BYTE PTR [eax+287]
  01480	39 05 00 00 00
	00		 cmp	 DWORD PTR ?BattleMyNo@@3HA, eax ; BattleMyNo
  01486	0f 94 c1	 sete	 cl
  01489	89 4d fc	 mov	 DWORD PTR _d0$[ebp], ecx

; 6056 : 				d0 = 1;
; 6057 : 			else
; 6058 : 				d0 = 0;
; 6059 : 			//ACTION_INFî“†î˜‹îŽ??????
; 6060 : 			ATR_GUARD_FLG(a1) = 0;

  0148c	8b 46 0c	 mov	 eax, DWORD PTR [esi+12]
  0148f	c6 80 1c 01 00
	00 00		 mov	 BYTE PTR [eax+284], 0

; 6061 : 			//???î?îš¼?ï¼¯ï¼«??
; 6062 : 			if (ATR_PET_OK(a1))

  01496	8b 46 0c	 mov	 eax, DWORD PTR [esi+12]
  01499	80 b8 20 01 00
	00 00		 cmp	 BYTE PTR [eax+288], 0
  014a0	74 59		 je	 SHORT $LN359@master

; 6063 : 			{
; 6064 : 				a2 = p_party[ATR_PLACE_NO(a1) + 5];		//???î???

  014a2	0f b6 80 1f 01
	00 00		 movzx	 eax, BYTE PTR [eax+287]
  014a9	8b 0c 85 14 00
	00 00		 mov	 ecx, DWORD PTR ?p_party@@3PAPAUaction@@A[eax*4+20]

; 6065 : 				//??????????????????
; 6066 : 				if (ATR_NAME(a2) != NULL && ATR_AKO_FLG(a2) == 0)

  014b0	83 79 08 00	 cmp	 DWORD PTR [ecx+8], 0
  014b4	74 48		 je	 SHORT $LN213@master
  014b6	8b 41 0c	 mov	 eax, DWORD PTR [ecx+12]
  014b9	80 b8 21 01 00
	00 00		 cmp	 BYTE PTR [eax+289], 0
  014c0	75 3c		 jne	 SHORT $LN213@master

; 6067 : 				{
; 6068 : 					//?????
; 6069 : 					if (ATR_ATTACK_KIND(2, a2) == 1)

  014c2	83 78 68 01	 cmp	 DWORD PTR [eax+104], 1
  014c6	75 13		 jne	 SHORT $LN211@master

; 6070 : 					{
; 6071 : 						ATR_ATTRIB(a2) |= ACT_ATR_HIDE;		//î¸î•??

  014c8	83 89 a4 00 00
	00 02		 or	 DWORD PTR [ecx+164], 2

; 6072 : 						//????îŒ–
; 6073 : 						ATR_NAME(a2) = NULL;

  014cf	c7 41 08 00 00
	00 00		 mov	 DWORD PTR [ecx+8], 0

; 6074 : 						ATR_VCT_NO(a2) = VCT_NO_APPEAR;

  014d6	c6 00 f9	 mov	 BYTE PTR [eax], 249	; 000000f9H

; 6075 : 					}

  014d9	eb 23		 jmp	 SHORT $LN213@master
$LN211@master:

; 6076 : 					else
; 6077 : 					{
; 6078 : 						//ACTION_INFî“†î˜‹îŽ??????
; 6079 : 						ATR_GUARD_FLG(a2) = 0;

  014db	c6 80 1c 01 00
	00 00		 mov	 BYTE PTR [eax+284], 0

; 6080 : 						ATR_BODY_CNT(a0)++;		//î–ŠîîŽî‘·??îŒ«
; 6081 : 						if (d0 == 1)		//??îŽ”?î–Šî??

  014e2	ba 02 00 00 00	 mov	 edx, 2
  014e7	8b 47 0c	 mov	 eax, DWORD PTR [edi+12]
  014ea	fe 40 54	 inc	 BYTE PTR [eax+84]
  014ed	8b 45 fc	 mov	 eax, DWORD PTR _d0$[ebp]
  014f0	83 f8 01	 cmp	 eax, 1
  014f3	0f 44 c2	 cmove	 eax, edx
  014f6	89 45 fc	 mov	 DWORD PTR _d0$[ebp], eax
  014f9	eb 03		 jmp	 SHORT $LN213@master
$LN359@master:

; 6061 : 			//???î?îš¼?ï¼¯ï¼«??
; 6062 : 			if (ATR_PET_OK(a1))

  014fb	8b 4d 08	 mov	 ecx, DWORD PTR _a2$[ebp]
$LN213@master:

; 6082 : 							d0 = 2;
; 6083 : 					}
; 6084 : 				}
; 6085 : 			}
; 6086 : 			//ACTION_INFî“†î˜‹îŽî“†î˜‹
; 6087 : 			switch (d0)

  014fe	8b 45 fc	 mov	 eax, DWORD PTR _d0$[ebp]
  01501	83 e8 01	 sub	 eax, 1
  01504	74 13		 je	 SHORT $LN214@master
  01506	83 e8 01	 sub	 eax, 1
  01509	0f 85 4d 01 00
	00		 jne	 $LN17@master

; 6088 : 			{
; 6089 : 			case 1:
; 6090 : 				ATR_GUARD_FLG(a1) = 1;
; 6091 : 				break;
; 6092 : 			case 2:
; 6093 : 				ATR_GUARD_FLG(a2) = 1;

  0150f	8b 41 0c	 mov	 eax, DWORD PTR [ecx+12]
  01512	c6 80 1c 01 00
	00 01		 mov	 BYTE PTR [eax+284], 1
$LN214@master:

; 6154 : 			break;
; 6155 : 		}
; 6156 : #ifdef _PET_ITEM
; 6157 : 		if (ATR_ATTACK_KIND(0, a1) & ATT_ATTACKBACK)

  01519	8b 46 0c	 mov	 eax, DWORD PTR [esi+12]
  0151c	c6 80 1c 01 00
	00 01		 mov	 BYTE PTR [eax+284], 1
  01523	e9 34 01 00 00	 jmp	 $LN17@master
$LN216@master:

; 6094 : 				ATR_GUARD_FLG(a1) = 1;
; 6095 : 				break;
; 6096 : 			}
; 6097 : 			break;
; 6098 : 		case ATT_SELECT:		//??????????  ???î“±î•¶  ??????????
; 6099 : 			ATR_BODY_CNT(a0) = 1;

  01528	8b 47 0c	 mov	 eax, DWORD PTR [edi+12]
  0152b	c6 40 54 01	 mov	 BYTE PTR [eax+84], 1

; 6100 : 			d0 = ATR_PLACE_NO(a1) + 5;		//?????????

  0152f	8b 46 0c	 mov	 eax, DWORD PTR [esi+12]
  01532	0f b6 80 1f 01
	00 00		 movzx	 eax, BYTE PTR [eax+287]
  01539	83 c0 05	 add	 eax, 5
  0153c	89 45 fc	 mov	 DWORD PTR _d0$[ebp], eax

; 6101 : 			a2 = p_party[ATR_PLACE_NO(a1) + 5];		//?????????

  0153f	8b 46 0c	 mov	 eax, DWORD PTR [esi+12]
  01542	0f b6 80 1f 01
	00 00		 movzx	 eax, BYTE PTR [eax+287]
  01549	8b 1c 85 14 00
	00 00		 mov	 ebx, DWORD PTR ?p_party@@3PAPAUaction@@A[eax*4+20]

; 6102 : 			ATR_BODY_WORK(0, a2) = a1;		//??îŽ”??????

  01550	8b 43 0c	 mov	 eax, DWORD PTR [ebx+12]
  01553	89 70 04	 mov	 DWORD PTR [eax+4], esi

; 6103 : 			ATR_FIRST_FLG(a2) = 0;		//??????

  01556	8b 43 0c	 mov	 eax, DWORD PTR [ebx+12]
  01559	c6 80 1e 01 00
	00 00		 mov	 BYTE PTR [eax+286], 0

; 6104 : 			if (get_num() == 0)		//????

  01560	e8 00 00 00 00	 call	 ?get_num@@YAHXZ		; get_num
  01565	85 c0		 test	 eax, eax
  01567	8b 43 0c	 mov	 eax, DWORD PTR [ebx+12]
  0156a	75 08		 jne	 SHORT $LN217@master

; 6105 : 				ATR_VCT_NO(a2) = 60;		//?????

  0156c	c6 00 3c	 mov	 BYTE PTR [eax], 60	; 0000003cH
  0156f	e9 e8 00 00 00	 jmp	 $LN17@master
$LN217@master:

; 6106 : 			else
; 6107 : 			{	//î???
; 6108 : 				ATR_NAME(a2) = monster;		//???î?

  01574	c7 43 08 00 00
	00 00		 mov	 DWORD PTR [ebx+8], OFFSET ?monster@@YAXPAUaction@@@Z ; monster

; 6109 : 				ATR_VCT_NO(a2) = 62;		//

  0157b	c6 00 3e	 mov	 BYTE PTR [eax], 62	; 0000003eH

; 6110 : 				if (BattleMyNo == ATR_PLACE_NO(a1))		//î˜îž¤??

  0157e	8b 46 0c	 mov	 eax, DWORD PTR [esi+12]
  01581	0f b6 80 1f 01
	00 00		 movzx	 eax, BYTE PTR [eax+287]
  01588	39 05 00 00 00
	00		 cmp	 DWORD PTR ?BattleMyNo@@3HA, eax ; BattleMyNo
  0158e	0f 85 c8 00 00
	00		 jne	 $LN17@master

; 6111 : 					att_select_flg = TRUE;

  01594	c6 05 00 00 00
	00 01		 mov	 BYTE PTR ?att_select_flg@@3DA, 1 ; att_select_flg

; 6112 : 			}
; 6113 : 			break;

  0159b	e9 bc 00 00 00	 jmp	 $LN17@master
$LN220@master:

; 6114 : 			//#ifdef _BATTLESKILL				// (ä¸å¯å¼€) Syu ADD æˆ˜æ–—æŠ€èƒ½ä»‹é¢
; 6115 : 		case ATT_PROSKILL:
; 6116 : 			ATR_VCT_NO(a1) = PROSKILL;					//å‹‡å£«èŒä¸šæŠ€èƒ½

  015a0	8b 46 0c	 mov	 eax, DWORD PTR [esi+12]
  015a3	c6 00 e6	 mov	 BYTE PTR [eax], 230	; 000000e6H

; 6117 : 			ATR_BODY_WORK(0, a1) = p_party[get_num()];	//å–å‡ºè¢«æ”»å‡»å¯¹è±¡No

  015a6	e8 00 00 00 00	 call	 ?get_num@@YAHXZ		; get_num
  015ab	8b 4e 0c	 mov	 ecx, DWORD PTR [esi+12]
  015ae	8b 04 85 00 00
	00 00		 mov	 eax, DWORD PTR ?p_party@@3PAPAUaction@@A[eax*4]
  015b5	89 41 04	 mov	 DWORD PTR [ecx+4], eax

; 6118 : 			ATR_ATTACK_KIND(0, a1) = get_num();			//æ”»å‡»ç§ç±»

  015b8	e8 00 00 00 00	 call	 ?get_num@@YAHXZ		; get_num
  015bd	8b 4e 0c	 mov	 ecx, DWORD PTR [esi+12]
  015c0	89 41 60	 mov	 DWORD PTR [ecx+96], eax

; 6119 : 			ATR_ATTACK_POW(0, a1) = get_num();			//æ”»å‡»åŠ›

  015c3	e8 00 00 00 00	 call	 ?get_num@@YAHXZ		; get_num
  015c8	8b 4e 0c	 mov	 ecx, DWORD PTR [esi+12]
  015cb	89 81 b0 00 00
	00		 mov	 DWORD PTR [ecx+176], eax

; 6120 : 			if (BattleCmd[command_point] == 'p')

  015d1	a1 00 00 00 00	 mov	 eax, DWORD PTR ?command_point@@3HA
  015d6	80 b8 00 00 00
	00 70		 cmp	 BYTE PTR ?BattleCmd@@3PADA[eax], 112 ; 00000070H
  015dd	75 13		 jne	 SHORT $LN221@master

; 6121 : 				ATR_ATTACK_PET_POW(0, a1) = get_num();		//pet??????

  015df	e8 00 00 00 00	 call	 ?get_num@@YAHXZ		; get_num
  015e4	8b 4e 0c	 mov	 ecx, DWORD PTR [esi+12]
  015e7	89 81 d4 01 00
	00		 mov	 DWORD PTR [ecx+468], eax
  015ed	a1 00 00 00 00	 mov	 eax, DWORD PTR ?command_point@@3HA
$LN221@master:

; 6122 : 			else
; 6123 : 				LogToBattleError(BattleCmd, __LINE__);
; 6124 : 
; 6125 : 			//ä¿®æ­£æŠ€èƒ½ç‰¹æ•ˆ xiezi
; 6126 : #ifdef _ATTACK_EFFECT
; 6127 : 			if (BattleCmd[command_point] == 's')

  015f2	80 b8 00 00 00
	00 73		 cmp	 BYTE PTR ?BattleCmd@@3PADA[eax], 115 ; 00000073H
  015f9	75 0e		 jne	 SHORT $LN223@master

; 6128 : 				ATR_LONG_WORK(0, a1) = get_num();	// è®°å½•ç‰¹æ•ˆç¼–å·

  015fb	e8 00 00 00 00	 call	 ?get_num@@YAHXZ		; get_num
  01600	8b 4e 0c	 mov	 ecx, DWORD PTR [esi+12]
  01603	89 81 34 01 00
	00		 mov	 DWORD PTR [ecx+308], eax
$LN223@master:

; 6129 : #endif
; 6130 : 
; 6131 : 			ATR_WARRIOR_EFFECT(a1) = get_num();

  01609	e8 00 00 00 00	 call	 ?get_num@@YAHXZ		; get_num
  0160e	89 86 e4 01 00
	00		 mov	 DWORD PTR [esi+484], eax

; 6132 : 			AttPreMagicNum = get_num();

  01614	e8 00 00 00 00	 call	 ?get_num@@YAHXZ		; get_num
  01619	a3 00 00 00 00	 mov	 DWORD PTR ?AttPreMagicNum@@3HA, eax ; AttPreMagicNum

; 6133 : 			AttNextMagicNum = get_num();

  0161e	e8 00 00 00 00	 call	 ?get_num@@YAHXZ		; get_num
  01623	a3 00 00 00 00	 mov	 DWORD PTR ?AttNextMagicNum@@3HA, eax ; AttNextMagicNum

; 6134 : 			ATR_BODY_CNT(a0) = 1;

  01628	8b 47 0c	 mov	 eax, DWORD PTR [edi+12]
  0162b	c6 40 54 01	 mov	 BYTE PTR [eax+84], 1

; 6135 : #ifdef _ATTDOUBLE_ATTACK
; 6136 : 			//andy_add
; 6137 : 			if (ATR_ATTACK_KIND(0, a1) & ATT_ATTDOUBLE || ATR_ATTACK_KIND(0, a1) & BCF_MODIFY)

  0162f	8b 5e 0c	 mov	 ebx, DWORD PTR [esi+12]
  01632	f7 43 60 00 00
	21 00		 test	 DWORD PTR [ebx+96], 2162688 ; 00210000H
  01639	74 21		 je	 SHORT $LN17@master

; 6138 : 				ATR_BATTLEGRANO(a1) = get_num();

  0163b	e8 00 00 00 00	 call	 ?get_num@@YAHXZ		; get_num
  01640	89 83 44 02 00
	00		 mov	 DWORD PTR [ebx+580], eax

; 6139 : #endif
; 6140 : 			break;

  01646	eb 14		 jmp	 SHORT $LN17@master
$LN226@master:

; 6141 : 			//#endif
; 6142 : 		default:	//???????
; 6143 : 			action_inf = -1;

  01648	c7 05 00 00 00
	00 ff ff ff ff	 mov	 DWORD PTR ?action_inf@@3HA, -1 ; action_inf

; 6144 : 			//?????î’¶????????
; 6145 : #ifdef _STONDEBUG_
; 6146 : 			{
; 6147 : 				char errbuf[256];
; 6148 : 
; 6149 : 				sprintf_s(errbuf, "errbuf:%c", command_no);
; 6150 : 				MessageBox(hWnd, errbuf, "Error", MB_OK);
; 6151 : 			}
; 6152 : #endif
; 6153 : 			command_point = 0;

  01652	c7 05 00 00 00
	00 00 00 00 00	 mov	 DWORD PTR ?command_point@@3HA, 0
$LN17@master:

; 6154 : 			break;
; 6155 : 		}
; 6156 : #ifdef _PET_ITEM
; 6157 : 		if (ATR_ATTACK_KIND(0, a1) & ATT_ATTACKBACK)

  0165c	8b 4e 0c	 mov	 ecx, DWORD PTR [esi+12]
  0165f	f7 41 60 00 00
	00 40		 test	 DWORD PTR [ecx+96], 1073741824 ; 40000000H
  01666	74 1c		 je	 SHORT $LN227@master

; 6158 : 		{
; 6159 : 			ATR_ATTACK_POW(1, a1) = ATR_ATTACK_POW(0, a1) >> 16;

  01668	0f bf 81 b2 00
	00 00		 movsx	 eax, WORD PTR [ecx+178]
  0166f	89 81 b4 00 00
	00		 mov	 DWORD PTR [ecx+180], eax

; 6160 : 			ATR_ATTACK_POW(0, a1) = ATR_ATTACK_POW(0, a1) & 0x0000ffff;

  01675	33 c9		 xor	 ecx, ecx
  01677	8b 46 0c	 mov	 eax, DWORD PTR [esi+12]
  0167a	66 89 88 b2 00
	00 00		 mov	 WORD PTR [eax+178], cx
  01681	8b 4e 0c	 mov	 ecx, DWORD PTR [esi+12]
$LN227@master:

; 6161 : 		}
; 6162 : #endif
; 6163 : #ifdef _FIX_ACUPUNCTURE
; 6164 : 		if (ATR_ATTACK_KIND(0, a1) & ATT_ACUPUNCTURE)

  01684	f7 41 60 00 00
	00 08		 test	 DWORD PTR [ecx+96], 134217728 ; 08000000H
  0168b	74 19		 je	 SHORT $LN228@master

; 6165 : 		{
; 6166 : 			ATR_ATTACK_POW(1, a1) = ATR_ATTACK_POW(0, a1) >> 16;

  0168d	0f bf 81 b2 00
	00 00		 movsx	 eax, WORD PTR [ecx+178]
  01694	89 81 b4 00 00
	00		 mov	 DWORD PTR [ecx+180], eax

; 6167 : 			ATR_ATTACK_POW(0, a1) = ATR_ATTACK_POW(0, a1) & 0x0000ffff;

  0169a	33 c9		 xor	 ecx, ecx
  0169c	8b 46 0c	 mov	 eax, DWORD PTR [esi+12]
  0169f	66 89 88 b2 00
	00 00		 mov	 WORD PTR [eax+178], cx
$LN228@master:

; 6168 : 		}
; 6169 : #endif
; 6170 : 	case 1:		//î ¸îŸµ?î•¤î•˜?
; 6171 : #ifdef __ATTACK_MAGIC
; 6172 : 		if (TRUE == bRunAttMgc)

  016a6	83 3d 00 00 00
	00 01		 cmp	 DWORD PTR ?bRunAttMgc@@3HA, 1
  016ad	75 05		 jne	 SHORT $LN230@master

; 6173 : 			RunTimeMagic();

  016af	e8 00 00 00 00	 call	 ?RunTimeMagic@@YAHXZ	; RunTimeMagic
$LN230@master:

; 6174 : #endif
; 6175 : #ifdef __TOCALL_MAGIC
; 6176 : 		if (TRUE == bRunToCallMgc)

  016b4	83 3d 00 00 00
	00 01		 cmp	 DWORD PTR ?bRunToCallMgc@@3HA, 1
  016bb	75 05		 jne	 SHORT $LN231@master

; 6177 : 			RunTimeMagicToCall();

  016bd	e8 00 00 00 00	 call	 ?RunTimeMagicToCall@@YAHXZ ; RunTimeMagicToCall
$LN231@master:

; 6178 : #endif
; 6179 : #ifdef _PROFESSION_ADDSKILL
; 6180 : 		//		RunTimeMagicBoundary();
; 6181 : #endif
; 6182 : 		if (ATR_DAMAGE(a0) == ATR_BODY_CNT(a0))

  016c2	8b 57 0c	 mov	 edx, DWORD PTR [edi+12]
  016c5	0f b6 42 54	 movzx	 eax, BYTE PTR [edx+84]
  016c9	39 42 58	 cmp	 DWORD PTR [edx+88], eax
  016cc	0f 85 ac 01 00
	00		 jne	 $master_500$370

; 6183 : 		{	//?î•¤îŽ·???
; 6184 : 			for (d7 = 0; d7 < BATTLKPKPLYAERNUM; d7++)

  016d2	33 c9		 xor	 ecx, ecx
  016d4	0f 1f 40 00 0f
	1f 84 00 00 00
	00 00		 npad	 12
$LL44@master:

; 6185 : 			{
; 6186 : 				if (ATR_NAME(p_party[d7]) != NULL)

  016e0	8b 04 8d 00 00
	00 00		 mov	 eax, DWORD PTR ?p_party@@3PAPAUaction@@A[ecx*4]
  016e7	83 78 08 00	 cmp	 DWORD PTR [eax+8], 0
  016eb	74 17		 je	 SHORT $LN42@master

; 6187 : 				{
; 6188 : 					//?î‘·??î•˜???????
; 6189 : 					if (ATR_LIFE(p_party[d7]) > 0 && ATR_VCT_NO(p_party[d7]) != 0 && ATR_VCT_NO(p_party[d7]) < VCT_NO_DIE)

  016ed	83 78 78 00	 cmp	 DWORD PTR [eax+120], 0
  016f1	7e 11		 jle	 SHORT $LN42@master
  016f3	8b 40 0c	 mov	 eax, DWORD PTR [eax+12]
  016f6	8a 00		 mov	 al, BYTE PTR [eax]
  016f8	84 c0		 test	 al, al
  016fa	74 08		 je	 SHORT $LN42@master
  016fc	3c fa		 cmp	 al, 250			; 000000faH
  016fe	0f 82 7a 01 00
	00		 jb	 $master_500$370
$LN42@master:

; 6183 : 		{	//?î•¤îŽ·???
; 6184 : 			for (d7 = 0; d7 < BATTLKPKPLYAERNUM; d7++)

  01704	41		 inc	 ecx
  01705	83 f9 14	 cmp	 ecx, 20			; 00000014H
  01708	7c d6		 jl	 SHORT $LL44@master

; 6190 : 						break;
; 6191 : 				}
; 6192 : 			}
; 6193 : 			if (d7 == BATTLKPKPLYAERNUM)		//îŽ·???

  0170a	0f 85 6e 01 00
	00		 jne	 $master_500$370

; 6194 : 				ATR_VCT_NO(a0) = 0;		//î ¸îŸµ?î™®?

  01710	c6 02 00	 mov	 BYTE PTR [edx], 0

; 6195 : 		}
; 6196 : 		break;

  01713	e9 66 01 00 00	 jmp	 $master_500$370
$LN95@master:

; 5277 : 			if (command_no == ATT_VARIABLE){

  01718	83 fb 56	 cmp	 ebx, 86			; 00000056H
  0171b	0f 85 5d 01 00
	00		 jne	 $master_500$370

; 5278 : 				ATR_ATTRIB(p_master) = get_num();

  01721	e8 00 00 00 00	 call	 ?get_num@@YAHXZ		; get_num
  01726	8b 0d 00 00 00
	00		 mov	 ecx, DWORD PTR ?p_master@@3PAUaction@@A
  0172c	89 81 a4 00 00
	00		 mov	 DWORD PTR [ecx+164], eax

; 5279 : 				break;

  01732	e9 47 01 00 00	 jmp	 $master_500$370
$LN361@master:

; 5293 : 			if (command_no == -1){

  01737	8b 75 e8	 mov	 esi, DWORD PTR tv5569[ebp]
$LN352@master:

; 5294 : 				ATR_VCT_NO(a0) = 4;

  0173a	c6 06 04	 mov	 BYTE PTR [esi], 4

; 5295 : 				command_point = 0;

  0173d	c7 05 00 00 00
	00 00 00 00 00	 mov	 DWORD PTR ?command_point@@3HA, 0

; 5296 : 				break;

  01747	e9 32 01 00 00	 jmp	 $master_500$370
$LN236@master:

; 6197 : 	case 2:		//î“»î¡œ
; 6198 : 		for (d7 = 0; d7 < BATTLKPKPLYAERNUM; d7++)

  0174c	33 c9		 xor	 ecx, ecx
  0174e	66 90		 npad	 2
$LL47@master:

; 6199 : 		{
; 6200 : 			if (ATR_NAME(p_party[d7]) != NULL)

  01750	8b 04 8d 00 00
	00 00		 mov	 eax, DWORD PTR ?p_party@@3PAPAUaction@@A[ecx*4]
  01757	83 78 08 00	 cmp	 DWORD PTR [eax+8], 0
  0175b	74 11		 je	 SHORT $LN45@master

; 6201 : 			{
; 6202 : 				//îŽ·??????
; 6203 : 				if (ATR_VCT_NO(p_party[d7]) != 0 && ATR_VCT_NO(p_party[d7]) != VCT_NO_DIE + 2)

  0175d	8b 40 0c	 mov	 eax, DWORD PTR [eax+12]
  01760	8a 00		 mov	 al, BYTE PTR [eax]
  01762	84 c0		 test	 al, al
  01764	74 08		 je	 SHORT $LN45@master
  01766	3c fc		 cmp	 al, 252			; 000000fcH
  01768	0f 85 10 01 00
	00		 jne	 $master_500$370
$LN45@master:

; 6197 : 	case 2:		//î“»î¡œ
; 6198 : 		for (d7 = 0; d7 < BATTLKPKPLYAERNUM; d7++)

  0176e	41		 inc	 ecx
  0176f	83 f9 14	 cmp	 ecx, 20			; 00000014H
  01772	7c dc		 jl	 SHORT $LL47@master

; 6204 : 					break;
; 6205 : 			}
; 6206 : 		}
; 6207 : 		if (d7 == BATTLKPKPLYAERNUM)

  01774	0f 85 04 01 00
	00		 jne	 $master_500$370

; 6208 : 		{	//îŽ·???
; 6209 : 			action_inf = 2;

  0177a	c7 05 00 00 00
	00 02 00 00 00	 mov	 DWORD PTR ?action_inf@@3HA, 2 ; action_inf

; 6210 : 			command_point = 0;		//?????î’¶????????

  01784	c7 05 00 00 00
	00 00 00 00 00	 mov	 DWORD PTR ?command_point@@3HA, 0

; 6211 : 		}
; 6212 : 		break;

  0178e	e9 eb 00 00 00	 jmp	 $master_500$370
$LN240@master:

; 6213 : 	case 3:		//î™‘î¶î•˜?
; 6214 : 		for (d7 = 0; d7 < BATTLKPKPLYAERNUM; d7++)

  01793	33 c9		 xor	 ecx, ecx
  01795	66 66 66 0f 1f
	84 00 00 00 00
	00		 npad	 11
$LL50@master:

; 6215 : 		{
; 6216 : 			if (ATR_NAME(p_party[d7]) != NULL)

  017a0	8b 04 8d 00 00
	00 00		 mov	 eax, DWORD PTR ?p_party@@3PAPAUaction@@A[ecx*4]
  017a7	83 78 08 00	 cmp	 DWORD PTR [eax+8], 0
  017ab	74 11		 je	 SHORT $LN48@master

; 6217 : 			{
; 6218 : 				if (ATR_VCT_NO(p_party[d7]) != 0 && ATR_VCT_NO(p_party[d7]) != VCT_NO_DIE + 2)		//?î‘·??î•˜???????

  017ad	8b 40 0c	 mov	 eax, DWORD PTR [eax+12]
  017b0	8a 00		 mov	 al, BYTE PTR [eax]
  017b2	84 c0		 test	 al, al
  017b4	74 08		 je	 SHORT $LN48@master
  017b6	3c fc		 cmp	 al, 252			; 000000fcH
  017b8	0f 85 c0 00 00
	00		 jne	 $master_500$370
$LN48@master:

; 6213 : 	case 3:		//î™‘î¶î•˜?
; 6214 : 		for (d7 = 0; d7 < BATTLKPKPLYAERNUM; d7++)

  017be	41		 inc	 ecx
  017bf	83 f9 14	 cmp	 ecx, 20			; 00000014H
  017c2	7c dc		 jl	 SHORT $LL50@master

; 6219 : 					break;
; 6220 : 			}
; 6221 : 		}
; 6222 : 		if (d7 == BATTLKPKPLYAERNUM)

  017c4	0f 85 b4 00 00
	00		 jne	 $master_500$370

; 6223 : 		{
; 6224 : 			ATR_VCT_NO(a0) = 0;

  017ca	c6 06 00	 mov	 BYTE PTR [esi], 0

; 6225 : 			action_inf = 3;		//î™‘î¶?îîŽ·?
; 6226 : 			if (BattleBpFlag & BATTLE_BP_JOIN)// îŒ¢î“–??

  017cd	f6 05 00 00 00
	00 01		 test	 BYTE PTR ?BattleBpFlag@@3HA, 1
  017d4	c7 05 00 00 00
	00 03 00 00 00	 mov	 DWORD PTR ?action_inf@@3HA, 3 ; action_inf
  017de	0f 84 9a 00 00
	00		 je	 $master_500$370

; 6227 : 			{
; 6228 : 				//î“»î¡œ??
; 6229 : 				if (check_all_dead())

  017e4	e8 00 00 00 00	 call	 ?check_all_dead@@YAHXZ	; check_all_dead
  017e9	85 c0		 test	 eax, eax
  017eb	0f 84 8d 00 00
	00		 je	 $master_500$370

; 6230 : 					action_inf = 2;

  017f1	c7 05 00 00 00
	00 02 00 00 00	 mov	 DWORD PTR ?action_inf@@3HA, 2 ; action_inf

; 6231 : 			}
; 6232 : 		}
; 6233 : 		break;

  017fb	e9 7e 00 00 00	 jmp	 $master_500$370
$LN246@master:

; 6234 : 	case 4:		//???îŽ·?î•˜?
; 6235 : 		for (d7 = 0; d7 < BATTLKPKPLYAERNUM; d7++)

  01800	8b 1d 00 00 00
	00		 mov	 ebx, DWORD PTR ?BattleMyNo@@3HA ; BattleMyNo
  01806	33 ff		 xor	 edi, edi
  01808	0f 1f 84 00 00
	00 00 00	 npad	 8
$LL53@master:

; 6236 : 		{
; 6237 : 			if (ATR_NAME(p_party[d7]) != NULL)

  01810	8b 34 bd 00 00
	00 00		 mov	 esi, DWORD PTR ?p_party@@3PAPAUaction@@A[edi*4]
  01817	83 7e 08 00	 cmp	 DWORD PTR [esi+8], 0
  0181b	74 28		 je	 SHORT $LN51@master

; 6238 : 			{
; 6239 : 				//î“»î¡œ??
; 6240 : 				if (check_all_dead())

  0181d	e8 00 00 00 00	 call	 ?check_all_dead@@YAHXZ	; check_all_dead
  01822	85 c0		 test	 eax, eax
  01824	75 12		 jne	 SHORT $LN368@master

; 6241 : 				{
; 6242 : 					//?î‘·??î•˜???????
; 6243 : 					if (ATR_VCT_NO(p_party[d7]) != 0 && ATR_VCT_NO(p_party[d7]) != VCT_NO_DIE + 2)
; 6244 : 						break;
; 6245 : 				}
; 6246 : 				else
; 6247 : 				{
; 6248 : 					//î˜îž¤?????????????
; 6249 : 					if (BattleMyNo == d7)

  01826	3b df		 cmp	 ebx, edi
  01828	75 08		 jne	 SHORT $LN351@master

; 6250 : 					{
; 6251 : 						if (ATR_VCT_NO(p_party[d7]) == 55)

  0182a	8b 46 0c	 mov	 eax, DWORD PTR [esi+12]
  0182d	80 38 37	 cmp	 BYTE PTR [eax], 55	; 00000037H
  01830	74 4c		 je	 SHORT $master_500$370
$LN351@master:

; 6252 : 							break;
; 6253 : 					}
; 6254 : 					//?î‘·??î•˜???????
; 6255 : 					if (ATR_LIFE(p_party[d7]) > 0 && ATR_VCT_NO(p_party[d7]) != 0 && ATR_VCT_NO(p_party[d7]) != VCT_NO_DIE + 2)

  01832	83 7e 78 00	 cmp	 DWORD PTR [esi+120], 0
  01836	7e 0d		 jle	 SHORT $LN51@master
$LN368@master:

; 6234 : 	case 4:		//???îŽ·?î•˜?
; 6235 : 		for (d7 = 0; d7 < BATTLKPKPLYAERNUM; d7++)

  01838	8b 46 0c	 mov	 eax, DWORD PTR [esi+12]
  0183b	8a 00		 mov	 al, BYTE PTR [eax]
  0183d	84 c0		 test	 al, al
  0183f	74 04		 je	 SHORT $LN51@master
  01841	3c fc		 cmp	 al, 252			; 000000fcH
  01843	75 39		 jne	 SHORT $master_500$370
$LN51@master:
  01845	47		 inc	 edi
  01846	83 ff 14	 cmp	 edi, 20			; 00000014H
  01849	7c c5		 jl	 SHORT $LL53@master

; 6256 : 						break;
; 6257 : 				}
; 6258 : 			}
; 6259 : 		}
; 6260 : 		if (d7 == BATTLKPKPLYAERNUM)

  0184b	75 31		 jne	 SHORT $master_500$370

; 6261 : 		{
; 6262 : 			ATR_VCT_NO(a0) = 0;

  0184d	8b 45 e8	 mov	 eax, DWORD PTR tv5569[ebp]
  01850	c6 00 00	 mov	 BYTE PTR [eax], 0

; 6263 : 			//î ¹î“†î˜‹??
; 6264 : 			if (!action_inf)

  01853	b8 01 00 00 00	 mov	 eax, 1
  01858	8b 35 00 00 00
	00		 mov	 esi, DWORD PTR ?action_inf@@3HA ; action_inf
  0185e	85 f6		 test	 esi, esi
  01860	0f 44 f0	 cmove	 esi, eax
  01863	89 35 00 00 00
	00		 mov	 DWORD PTR ?action_inf@@3HA, esi ; action_inf

; 6265 : 				action_inf = 1;		//???îŽ·?
; 6266 : 			//î“»î¡œ??
; 6267 : 			if (check_all_dead())

  01869	e8 00 00 00 00	 call	 ?check_all_dead@@YAHXZ	; check_all_dead
  0186e	85 c0		 test	 eax, eax
  01870	b9 02 00 00 00	 mov	 ecx, 2
  01875	0f 45 f1	 cmovne	 esi, ecx
  01878	89 35 00 00 00
	00		 mov	 DWORD PTR ?action_inf@@3HA, esi ; action_inf
$master_500$370:

; 6268 : 				action_inf = 2;
; 6269 : 		}
; 6270 : 		break;
; 6271 : 	}
; 6272 : master_500:
; 6273 : 	//???????????
; 6274 : #ifdef __ATTACK_MAGIC
; 6275 : 	if ((BattleMapNo >= 148 && BattleMapNo <= 150) || g_iRunEarthQuake >= 2)

  0187e	a1 00 00 00 00	 mov	 eax, DWORD PTR ?BattleMapNo@@3HA ; BattleMapNo
  01883	3d 94 00 00 00	 cmp	 eax, 148		; 00000094H
  01888	7c 07		 jl	 SHORT $LN259@master
  0188a	3d 96 00 00 00	 cmp	 eax, 150		; 00000096H
  0188f	7e 09		 jle	 SHORT $LN258@master
$LN259@master:
  01891	83 3d 00 00 00
	00 02		 cmp	 DWORD PTR ?g_iRunEarthQuake@@3HA, 2 ; g_iRunEarthQuake
  01898	7c 4c		 jl	 SHORT $LN261@master
$LN258@master:

; 6276 : #else
; 6277 : 	if (BattleMapNo >= 148 && BattleMapNo <= 150)		//???????????
; 6278 : #endif
; 6279 : 	{
; 6280 : 		//????
; 6281 : 		for (d7 = 0; d7 < BATTLKPKPLYAERNUM; d7++)

  0189a	be 00 00 00 00	 mov	 esi, OFFSET ?p_party@@3PAPAUaction@@A
  0189f	90		 npad	 1
$LL56@master:

; 6282 : 		{
; 6283 : 			a1 = p_party[d7];		//???????

  018a0	8b 16		 mov	 edx, DWORD PTR [esi]

; 6284 : 			if (ATR_NAME(a1) == NULL)		//???

  018a2	83 7a 08 00	 cmp	 DWORD PTR [edx+8], 0
  018a6	74 21		 je	 SHORT $LN54@master

; 6285 : 				continue;
; 6286 : 			ATR_V_POS(a1) += ATR_INT_WORK3(a1);

  018a8	8b 4a 0c	 mov	 ecx, DWORD PTR [edx+12]

; 6287 : 			ATR_INT_WORK1(a1) += ATR_INT_WORK3(a1);
; 6288 : 			//????????????
; 6289 : 			set_raster_pos(a1);

  018ab	52		 push	 edx
  018ac	8b 81 30 01 00
	00		 mov	 eax, DWORD PTR [ecx+304]
  018b2	01 42 1c	 add	 DWORD PTR [edx+28], eax
  018b5	8b 81 30 01 00
	00		 mov	 eax, DWORD PTR [ecx+304]
  018bb	01 81 28 01 00
	00		 add	 DWORD PTR [ecx+296], eax
  018c1	e8 00 00 00 00	 call	 ?set_raster_pos@@YAXPAUaction@@@Z ; set_raster_pos
  018c6	83 c4 04	 add	 esp, 4
$LN54@master:

; 6276 : #else
; 6277 : 	if (BattleMapNo >= 148 && BattleMapNo <= 150)		//???????????
; 6278 : #endif
; 6279 : 	{
; 6280 : 		//????
; 6281 : 		for (d7 = 0; d7 < BATTLKPKPLYAERNUM; d7++)

  018c9	83 c6 04	 add	 esi, 4
  018cc	81 fe 50 00 00
	00		 cmp	 esi, OFFSET ?p_party@@3PAPAUaction@@A+80
  018d2	7c cc		 jl	 SHORT $LL56@master

; 6290 : 		}
; 6291 : 		if (g_iRunEarthQuake == 3)

  018d4	a1 00 00 00 00	 mov	 eax, DWORD PTR ?g_iRunEarthQuake@@3HA ; g_iRunEarthQuake
  018d9	33 c9		 xor	 ecx, ecx
  018db	83 f8 03	 cmp	 eax, 3
  018de	0f 44 c1	 cmove	 eax, ecx
  018e1	a3 00 00 00 00	 mov	 DWORD PTR ?g_iRunEarthQuake@@3HA, eax ; g_iRunEarthQuake
$LN261@master:

; 6292 : 			g_iRunEarthQuake = 0;
; 6293 : 	}
; 6294 : 	//??????î¸î•???
; 6295 : 	d6 = 0;

  018e6	33 f6		 xor	 esi, esi
  018e8	b9 00 00 00 00	 mov	 ecx, OFFSET ?p_party@@3PAPAUaction@@A
  018ed	0f 1f 00	 npad	 3
$LL59@master:

; 6297 : 	{
; 6298 : 		a1 = p_party[d7];		//???????		

  018f0	8b 01		 mov	 eax, DWORD PTR [ecx]

; 6299 : 		if (ATR_NAME(a1) == NULL)		//???

  018f2	83 78 08 00	 cmp	 DWORD PTR [eax+8], 0
  018f6	74 12		 je	 SHORT $LN57@master

; 6300 : 			continue;
; 6301 : 		sort_chr_buf[d6].work = a1;		//???????

  018f8	89 04 f5 04 00
	00 00		 mov	 DWORD PTR ?sort_chr_buf@@3PAUSORT_CHR_EQU@@A[esi*8+4], eax

; 6302 : 		sort_chr_buf[d6++].v_pos = ATR_V_POS(a1);		//??î³???

  018ff	8b 40 1c	 mov	 eax, DWORD PTR [eax+28]
  01902	89 04 f5 00 00
	00 00		 mov	 DWORD PTR ?sort_chr_buf@@3PAUSORT_CHR_EQU@@A[esi*8], eax
  01909	46		 inc	 esi
$LN57@master:

; 6296 : 	for (d7 = 0; d7 < BATTLKPKPLYAERNUM; d7++)

  0190a	83 c1 04	 add	 ecx, 4
  0190d	81 f9 50 00 00
	00		 cmp	 ecx, OFFSET ?p_party@@3PAPAUaction@@A+80
  01913	7c db		 jl	 SHORT $LL59@master

; 6303 : 	}
; 6304 : 	for (d7 = 0; d7 < BATTLKPKPLYAERNUM; d7++)

  01915	b9 00 00 00 00	 mov	 ecx, OFFSET ?p_missile@@3PAPAUaction@@A
  0191a	66 0f 1f 44 00
	00		 npad	 6
$LL62@master:

; 6305 : 	{
; 6306 : 		if ((a1 = p_missile[d7]) == NULL)		//îŽ·???

  01920	8b 01		 mov	 eax, DWORD PTR [ecx]
  01922	85 c0		 test	 eax, eax
  01924	74 12		 je	 SHORT $LN60@master

; 6307 : 			continue;
; 6308 : 		sort_chr_buf[d6].work = a1;		//???????

  01926	89 04 f5 04 00
	00 00		 mov	 DWORD PTR ?sort_chr_buf@@3PAUSORT_CHR_EQU@@A[esi*8+4], eax

; 6309 : 		sort_chr_buf[d6++].v_pos = ATR_V_POS(a1);		//??î³???

  0192d	8b 40 1c	 mov	 eax, DWORD PTR [eax+28]
  01930	89 04 f5 00 00
	00 00		 mov	 DWORD PTR ?sort_chr_buf@@3PAUSORT_CHR_EQU@@A[esi*8], eax
  01937	46		 inc	 esi
$LN60@master:

; 6303 : 	}
; 6304 : 	for (d7 = 0; d7 < BATTLKPKPLYAERNUM; d7++)

  01938	83 c1 04	 add	 ecx, 4
  0193b	81 f9 50 00 00
	00		 cmp	 ecx, OFFSET ?p_missile@@3PAPAUaction@@A+80
  01941	7c dd		 jl	 SHORT $LL62@master

; 6310 : 	}
; 6311 : 	//???????
; 6312 : 	qsort(sort_chr_buf,			// ????

  01943	68 00 00 00 00	 push	 OFFSET ?sort_chr@@YAHPAUSORT_CHR_EQU@@0@Z ; sort_chr
  01948	6a 08		 push	 8
  0194a	56		 push	 esi
  0194b	68 00 00 00 00	 push	 OFFSET ?sort_chr_buf@@3PAUSORT_CHR_EQU@@A
  01950	e8 00 00 00 00	 call	 _qsort
  01955	83 c4 10	 add	 esp, 16			; 00000010H

; 6313 : 		d6,						// î?????
; 6314 : 		sizeof(SORT_CHR_EQU),	// ???
; 6315 : 		(CMPFUNC*)sort_chr		// î?????????
; 6316 : 		);
; 6317 : 	d0 = 30;		//î¸î•?î“???

  01958	b9 1e 00 00 00	 mov	 ecx, 30			; 0000001eH

; 6318 : 	for (d7 = 0; d7 < d6; d7++)

  0195d	33 d2		 xor	 edx, edx
  0195f	89 4d fc	 mov	 DWORD PTR _d0$[ebp], ecx
  01962	85 f6		 test	 esi, esi
  01964	7e 20		 jle	 SHORT $LN64@master
  01966	66 66 0f 1f 84
	00 00 00 00 00	 npad	 10
$LL65@master:

; 6319 : 		ATR_DISP_PRIO(sort_chr_buf[d7].work) = d0++;

  01970	8b 04 d5 04 00
	00 00		 mov	 eax, DWORD PTR ?sort_chr_buf@@3PAUSORT_CHR_EQU@@A[edx*8+4]
  01977	42		 inc	 edx
  01978	88 48 15	 mov	 BYTE PTR [eax+21], cl
  0197b	8b 4d fc	 mov	 ecx, DWORD PTR _d0$[ebp]
  0197e	41		 inc	 ecx
  0197f	89 4d fc	 mov	 DWORD PTR _d0$[ebp], ecx
  01982	3b d6		 cmp	 edx, esi
  01984	7c ea		 jl	 SHORT $LL65@master
$LN64@master:
  01986	5f		 pop	 edi

; 6320 : }

  01987	5e		 pop	 esi
  01988	5b		 pop	 ebx
  01989	8b e5		 mov	 esp, ebp
  0198b	5d		 pop	 ebp
  0198c	c3		 ret	 0
  0198d	0f 1f 00	 npad	 3
$LN353@master:
  01990	00 00 00 00	 DD	 $LN69@master
  01994	00 00 00 00	 DD	 $LN228@master
  01998	00 00 00 00	 DD	 $LN236@master
  0199c	00 00 00 00	 DD	 $LN240@master
  019a0	00 00 00 00	 DD	 $LN246@master
$LN355@master:
  019a4	00 00 00 00	 DD	 $LN201@master
  019a8	00 00 00 00	 DD	 $LN204@master
  019ac	00 00 00 00	 DD	 $LN169@master
  019b0	00 00 00 00	 DD	 $LN170@master
  019b4	00 00 00 00	 DD	 $LN121@master
  019b8	00 00 00 00	 DD	 $LN171@master
  019bc	00 00 00 00	 DD	 $LN220@master
  019c0	00 00 00 00	 DD	 $LN176@master
  019c4	00 00 00 00	 DD	 $LN130@master
  019c8	00 00 00 00	 DD	 $LN206@master
  019cc	00 00 00 00	 DD	 $LN117@master
  019d0	00 00 00 00	 DD	 $LN107@master
  019d4	00 00 00 00	 DD	 $LN105@master
  019d8	00 00 00 00	 DD	 $LN119@master
  019dc	00 00 00 00	 DD	 $LN165@master
  019e0	00 00 00 00	 DD	 $LN123@master
  019e4	00 00 00 00	 DD	 $LN118@master
  019e8	00 00 00 00	 DD	 $LN180@master
  019ec	00 00 00 00	 DD	 $LN167@master
  019f0	00 00 00 00	 DD	 $LN162@master
  019f4	00 00 00 00	 DD	 $LN216@master
  019f8	00 00 00 00	 DD	 $LN205@master
  019fc	00 00 00 00	 DD	 $LN161@master
  01a00	00 00 00 00	 DD	 $LN168@master
  01a04	00 00 00 00	 DD	 $LN187@master
  01a08	00 00 00 00	 DD	 $LN181@master
  01a0c	00 00 00 00	 DD	 $LN174@master
  01a10	00 00 00 00	 DD	 $LN175@master
  01a14	00 00 00 00	 DD	 $LN114@master
  01a18	00 00 00 00	 DD	 $LN172@master
  01a1c	00 00 00 00	 DD	 $LN116@master
  01a20	00 00 00 00	 DD	 $LN115@master
  01a24	00 00 00 00	 DD	 $LN226@master
$LN354@master:
  01a28	00		 DB	 0
  01a29	01		 DB	 1
  01a2a	20		 DB	 32			; 00000020H
  01a2b	20		 DB	 32			; 00000020H
  01a2c	20		 DB	 32			; 00000020H
  01a2d	20		 DB	 32			; 00000020H
  01a2e	20		 DB	 32			; 00000020H
  01a2f	20		 DB	 32			; 00000020H
  01a30	20		 DB	 32			; 00000020H
  01a31	20		 DB	 32			; 00000020H
  01a32	20		 DB	 32			; 00000020H
  01a33	20		 DB	 32			; 00000020H
  01a34	20		 DB	 32			; 00000020H
  01a35	20		 DB	 32			; 00000020H
  01a36	20		 DB	 32			; 00000020H
  01a37	20		 DB	 32			; 00000020H
  01a38	20		 DB	 32			; 00000020H
  01a39	20		 DB	 32			; 00000020H
  01a3a	20		 DB	 32			; 00000020H
  01a3b	20		 DB	 32			; 00000020H
  01a3c	20		 DB	 32			; 00000020H
  01a3d	20		 DB	 32			; 00000020H
  01a3e	20		 DB	 32			; 00000020H
  01a3f	20		 DB	 32			; 00000020H
  01a40	20		 DB	 32			; 00000020H
  01a41	20		 DB	 32			; 00000020H
  01a42	20		 DB	 32			; 00000020H
  01a43	20		 DB	 32			; 00000020H
  01a44	20		 DB	 32			; 00000020H
  01a45	20		 DB	 32			; 00000020H
  01a46	20		 DB	 32			; 00000020H
  01a47	02		 DB	 2
  01a48	20		 DB	 32			; 00000020H
  01a49	03		 DB	 3
  01a4a	04		 DB	 4
  01a4b	05		 DB	 5
  01a4c	20		 DB	 32			; 00000020H
  01a4d	20		 DB	 32			; 00000020H
  01a4e	20		 DB	 32			; 00000020H
  01a4f	20		 DB	 32			; 00000020H
  01a50	20		 DB	 32			; 00000020H
  01a51	06		 DB	 6
  01a52	20		 DB	 32			; 00000020H
  01a53	20		 DB	 32			; 00000020H
  01a54	20		 DB	 32			; 00000020H
  01a55	20		 DB	 32			; 00000020H
  01a56	20		 DB	 32			; 00000020H
  01a57	20		 DB	 32			; 00000020H
  01a58	20		 DB	 32			; 00000020H
  01a59	20		 DB	 32			; 00000020H
  01a5a	20		 DB	 32			; 00000020H
  01a5b	20		 DB	 32			; 00000020H
  01a5c	20		 DB	 32			; 00000020H
  01a5d	20		 DB	 32			; 00000020H
  01a5e	20		 DB	 32			; 00000020H
  01a5f	20		 DB	 32			; 00000020H
  01a60	20		 DB	 32			; 00000020H
  01a61	20		 DB	 32			; 00000020H
  01a62	20		 DB	 32			; 00000020H
  01a63	20		 DB	 32			; 00000020H
  01a64	20		 DB	 32			; 00000020H
  01a65	20		 DB	 32			; 00000020H
  01a66	20		 DB	 32			; 00000020H
  01a67	20		 DB	 32			; 00000020H
  01a68	07		 DB	 7
  01a69	20		 DB	 32			; 00000020H
  01a6a	08		 DB	 8
  01a6b	09		 DB	 9
  01a6c	0a		 DB	 10			; 0000000aH
  01a6d	20		 DB	 32			; 00000020H
  01a6e	0b		 DB	 11			; 0000000bH
  01a6f	0c		 DB	 12			; 0000000cH
  01a70	0d		 DB	 13			; 0000000dH
  01a71	20		 DB	 32			; 00000020H
  01a72	0e		 DB	 14			; 0000000eH
  01a73	0f		 DB	 15			; 0000000fH
  01a74	10		 DB	 16			; 00000010H
  01a75	11		 DB	 17			; 00000011H
  01a76	20		 DB	 32			; 00000020H
  01a77	12		 DB	 18			; 00000012H
  01a78	13		 DB	 19			; 00000013H
  01a79	14		 DB	 20			; 00000014H
  01a7a	15		 DB	 21			; 00000015H
  01a7b	20		 DB	 32			; 00000020H
  01a7c	16		 DB	 22			; 00000016H
  01a7d	20		 DB	 32			; 00000020H
  01a7e	17		 DB	 23			; 00000017H
  01a7f	18		 DB	 24			; 00000018H
  01a80	19		 DB	 25			; 00000019H
  01a81	20		 DB	 32			; 00000020H
  01a82	20		 DB	 32			; 00000020H
  01a83	20		 DB	 32			; 00000020H
  01a84	20		 DB	 32			; 00000020H
  01a85	20		 DB	 32			; 00000020H
  01a86	20		 DB	 32			; 00000020H
  01a87	1a		 DB	 26			; 0000001aH
  01a88	20		 DB	 32			; 00000020H
  01a89	1b		 DB	 27			; 0000001bH
  01a8a	1c		 DB	 28			; 0000001cH
  01a8b	20		 DB	 32			; 00000020H
  01a8c	1d		 DB	 29			; 0000001dH
  01a8d	20		 DB	 32			; 00000020H
  01a8e	1e		 DB	 30			; 0000001eH
  01a8f	20		 DB	 32			; 00000020H
  01a90	20		 DB	 32			; 00000020H
  01a91	20		 DB	 32			; 00000020H
  01a92	20		 DB	 32			; 00000020H
  01a93	20		 DB	 32			; 00000020H
  01a94	20		 DB	 32			; 00000020H
  01a95	20		 DB	 32			; 00000020H
  01a96	1f		 DB	 31			; 0000001fH
  01a97	90		 npad	 1
$LN356@master:
  01a98	00 00 00 00	 DD	 $LN133@master
  01a9c	00 00 00 00	 DD	 $LN139@master
  01aa0	00 00 00 00	 DD	 $LN142@master
  01aa4	00 00 00 00	 DD	 $LN146@master
  01aa8	00 00 00 00	 DD	 $LN147@master
  01aac	00 00 00 00	 DD	 $LN148@master
  01ab0	00 00 00 00	 DD	 $LN149@master
  01ab4	00 00 00 00	 DD	 $LN150@master
  01ab8	00 00 00 00	 DD	 $LN151@master
?master@@YAXPAUaction@@@Z ENDP				; master
_TEXT	ENDS
; Function compile flags: /Ogtp
; File C:\Users\gg862\OneDrive\¹ÙÅÁ È­¸é\¸¾Äí¿Ï·á\Client Source Code1.31ÀÏº»\oft\oft.cpp
;	COMDAT ?RunTimeMagicToCall@@YAHXZ
_TEXT	SEGMENT
?RunTimeMagicToCall@@YAHXZ PROC				; RunTimeMagicToCall, COMDAT

; 4676 : 	// å¼€å§‹åœ°éœ‡
; 4677 : 	if (ToCallMgc.dwEQuakeSFrame == ToCallMgc.dwCurFrame1)

  00000	8b 0d 00 00 00
	00		 mov	 ecx, DWORD PTR ?ToCallMgc@@3UTOCALL_MAGIC@@A
  00006	56		 push	 esi
  00007	8b 35 14 00 00
	00		 mov	 esi, DWORD PTR ?ToCallMgc@@3UTOCALL_MAGIC@@A+20
  0000d	57		 push	 edi
  0000e	8b 3d 18 00 00
	00		 mov	 edi, DWORD PTR ?ToCallMgc@@3UTOCALL_MAGIC@@A+24
  00014	3b f1		 cmp	 esi, ecx
  00016	75 10		 jne	 SHORT $LN45@RunTimeMag

; 4678 : 	{
; 4679 : 		g_iRunEarthQuake = 1;
; 4680 : 		g_iNumRunEarthQuake = ToCallMgc.dwEQuakeEFrame - ToCallMgc.dwEQuakeSFrame;

  00018	8b c7		 mov	 eax, edi
  0001a	ba 01 00 00 00	 mov	 edx, 1
  0001f	2b c6		 sub	 eax, esi
  00021	a3 00 00 00 00	 mov	 DWORD PTR ?g_iNumRunEarthQuake@@3HA, eax ; g_iNumRunEarthQuake
  00026	eb 06		 jmp	 SHORT $LN6@RunTimeMag
$LN45@RunTimeMag:

; 4676 : 	// å¼€å§‹åœ°éœ‡
; 4677 : 	if (ToCallMgc.dwEQuakeSFrame == ToCallMgc.dwCurFrame1)

  00028	8b 15 00 00 00
	00		 mov	 edx, DWORD PTR ?g_iRunEarthQuake@@3HA ; g_iRunEarthQuake
$LN6@RunTimeMag:

; 4681 : 	}
; 4682 : 
; 4683 : 	// ç»“æŸåœ°éœ‡
; 4684 : 	if (ToCallMgc.dwEQuakeEFrame == ToCallMgc.dwCurFrame1)

  0002e	3b f9		 cmp	 edi, ecx
  00030	b8 03 00 00 00	 mov	 eax, 3
  00035	0f 44 d0	 cmove	 edx, eax

; 4685 : 		g_iRunEarthQuake = 3;
; 4686 : 
; 4687 : 	ToCallMgc.dwCurFrame1++;

  00038	41		 inc	 ecx

; 4688 : 	// å‰ç½®é­”æ³•æ˜¯å¦å·²ç»æ’­å®Œäº†
; 4689 : 	if (FALSE == ToCallMgc.wRunPreMgc)

  00039	33 c0		 xor	 eax, eax
  0003b	89 15 00 00 00
	00		 mov	 DWORD PTR ?g_iRunEarthQuake@@3HA, edx ; g_iRunEarthQuake
  00041	89 0d 00 00 00
	00		 mov	 DWORD PTR ?ToCallMgc@@3UTOCALL_MAGIC@@A, ecx
  00047	66 3b 05 28 00
	00 00		 cmp	 ax, WORD PTR ?ToCallMgc@@3UTOCALL_MAGIC@@A+40
  0004e	0f 84 d7 02 00
	00		 je	 $LN47@RunTimeMag

; 4690 : 		return TRUE;
; 4691 : 
; 4692 : 	if (ToCallMgc.wToCallMagicNo != 2)

  00054	66 83 3d ca 00
	00 00 02	 cmp	 WORD PTR ?ToCallMgc@@3UTOCALL_MAGIC@@A+202, 2
  0005c	66 8b 0d c6 00
	00 00		 mov	 cx, WORD PTR ?ToCallMgc@@3UTOCALL_MAGIC@@A+198
  00063	66 8b 35 c2 00
	00 00		 mov	 si, WORD PTR ?ToCallMgc@@3UTOCALL_MAGIC@@A+194
  0006a	53		 push	 ebx
  0006b	0f 84 5b 01 00
	00		 je	 $LN9@RunTimeMag

; 4693 : 	{
; 4694 : 		// æ˜¯å¦ä»æœ‰å°šæœªæ’­æ”¾çš„å’’æœ¯
; 4695 : 		if (ToCallMgc.wCurAttackNum < ToCallMgc.wNumAttacks)

  00071	66 3b ce	 cmp	 cx, si
  00074	0f 83 a3 02 00
	00		 jae	 $LN46@RunTimeMag
  0007a	8b 15 04 00 00
	00		 mov	 edx, DWORD PTR ?ToCallMgc@@3UTOCALL_MAGIC@@A+4
  00080	8d 58 58	 lea	 ebx, DWORD PTR [eax+88]
  00083	8d 78 14	 lea	 edi, DWORD PTR [eax+20]
  00086	66 66 0f 1f 84
	00 00 00 00 00	 npad	 10
$LL2@RunTimeMag:

; 4696 : 		{
; 4697 : 			while (1)
; 4698 : 			{
; 4699 : 				if (ToCallMgc.dwCurFrame2 == ToCallMgc.wMgcFrameCount[ToCallMgc.wCurAttackNum])

  00090	0f b7 c1	 movzx	 eax, cx
  00093	0f b7 04 45 42
	00 00 00	 movzx	 eax, WORD PTR ?ToCallMgc@@3UTOCALL_MAGIC@@A[eax*2+66]
  0009b	3b d0		 cmp	 edx, eax
  0009d	0f 85 fd 00 00
	00		 jne	 $LN12@RunTimeMag

; 4700 : 				{
; 4701 : 					ACTION	*a0;
; 4702 : 
; 4703 : 					a0 = GetAction(T_PRIO_MISSILE, sizeof(ATR_EQU));

  000a3	68 60 02 00 00	 push	 608			; 00000260H
  000a8	6a 47		 push	 71			; 00000047H
  000aa	e8 00 00 00 00	 call	 ?GetAction@@YAPAUaction@@EI@Z ; GetAction
  000af	8b d0		 mov	 edx, eax
  000b1	83 c4 08	 add	 esp, 8

; 4704 : 					ATR_NAME(a0) = monster;
; 4705 : 					ATR_VCT_NO(a0) = TOCALL_MAGIC_CASE + 2;		// å’’æœ¯çš„æ‰§è¡Œ
; 4706 : 					ATR_DISP_PRIO(a0) = (1 == ToCallMgc.wCurMgcOnChar) ? D_PRIO_HIT_MARK : DISP_PRIO_TILE + 1;

  000b4	b8 01 00 00 00	 mov	 eax, 1
  000b9	8b 4a 0c	 mov	 ecx, DWORD PTR [edx+12]
  000bc	c7 42 08 00 00
	00 00		 mov	 DWORD PTR [edx+8], OFFSET ?monster@@YAXPAUaction@@@Z ; monster
  000c3	c6 01 d4	 mov	 BYTE PTR [ecx], 212	; 000000d4H
  000c6	b9 02 00 00 00	 mov	 ecx, 2
  000cb	66 3b 05 3e 00
	00 00		 cmp	 ax, WORD PTR ?ToCallMgc@@3UTOCALL_MAGIC@@A+62
  000d2	0f 44 cb	 cmove	 ecx, ebx
  000d5	88 4a 15	 mov	 BYTE PTR [edx+21], cl

; 4707 : 					ATR_CHR_NO(a0) = ToCallMgc.iCurMgcNum;

  000d8	a1 20 00 00 00	 mov	 eax, DWORD PTR ?ToCallMgc@@3UTOCALL_MAGIC@@A+32
  000dd	89 82 44 01 00
	00		 mov	 DWORD PTR [edx+324], eax

; 4708 : 					ATR_LONG_WORK(0, a0) = ToCallMgc.wAttackedIndex[ToCallMgc.wCurAttackNum];

  000e3	0f b7 05 c6 00
	00 00		 movzx	 eax, WORD PTR ?ToCallMgc@@3UTOCALL_MAGIC@@A+198
  000ea	0f b7 0c 45 62
	00 00 00	 movzx	 ecx, WORD PTR ?ToCallMgc@@3UTOCALL_MAGIC@@A[eax*2+98]
  000f2	8b 42 0c	 mov	 eax, DWORD PTR [edx+12]
  000f5	89 88 34 01 00
	00		 mov	 DWORD PTR [eax+308], ecx

; 4709 : 					ATR_H_POS(a0) = (20 == ToCallMgc.wAttackedIndex[ToCallMgc.wCurAttackNum]) ? ToCallMgc.posAttacked[ToCallMgc.wCurAttackNum].x : ATR_H_POS(p_party[ToCallMgc.wAttackedIndex[ToCallMgc.wCurAttackNum]]) + ToCallMgc.posAttacked[ToCallMgc.wCurAttackNum].x;

  000fb	0f b7 05 c6 00
	00 00		 movzx	 eax, WORD PTR ?ToCallMgc@@3UTOCALL_MAGIC@@A+198
  00102	0f b7 34 45 62
	00 00 00	 movzx	 esi, WORD PTR ?ToCallMgc@@3UTOCALL_MAGIC@@A[eax*2+98]
  0010a	0f b7 0c 85 82
	00 00 00	 movzx	 ecx, WORD PTR ?ToCallMgc@@3UTOCALL_MAGIC@@A[eax*4+130]
  00112	66 3b fe	 cmp	 di, si
  00115	74 0c		 je	 SHORT $LN30@RunTimeMag
  00117	8b 04 b5 00 00
	00 00		 mov	 eax, DWORD PTR ?p_party@@3PAPAUaction@@A[esi*4]
  0011e	8b 40 18	 mov	 eax, DWORD PTR [eax+24]
  00121	03 c8		 add	 ecx, eax
$LN30@RunTimeMag:
  00123	89 4a 18	 mov	 DWORD PTR [edx+24], ecx

; 4710 : 					ATR_V_POS(a0) = (20 == ToCallMgc.wAttackedIndex[ToCallMgc.wCurAttackNum]) ? ToCallMgc.posAttacked[ToCallMgc.wCurAttackNum].y : ATR_V_POS(p_party[ToCallMgc.wAttackedIndex[ToCallMgc.wCurAttackNum]]) + ToCallMgc.posAttacked[ToCallMgc.wCurAttackNum].y;

  00126	0f b7 05 c6 00
	00 00		 movzx	 eax, WORD PTR ?ToCallMgc@@3UTOCALL_MAGIC@@A+198
  0012d	0f b7 34 45 62
	00 00 00	 movzx	 esi, WORD PTR ?ToCallMgc@@3UTOCALL_MAGIC@@A[eax*2+98]
  00135	0f b7 0c 85 84
	00 00 00	 movzx	 ecx, WORD PTR ?ToCallMgc@@3UTOCALL_MAGIC@@A[eax*4+132]
  0013d	66 3b fe	 cmp	 di, si
  00140	74 0c		 je	 SHORT $LN32@RunTimeMag
  00142	8b 04 b5 00 00
	00 00		 mov	 eax, DWORD PTR ?p_party@@3PAPAUaction@@A[esi*4]
  00149	8b 40 1c	 mov	 eax, DWORD PTR [eax+28]
  0014c	03 c8		 add	 ecx, eax
$LN32@RunTimeMag:
  0014e	89 4a 1c	 mov	 DWORD PTR [edx+28], ecx

; 4711 : 
; 4712 : 					if (ToCallMgc.wAttackedIndex[ToCallMgc.wCurAttackNum] < 10)

  00151	66 8b 0d c6 00
	00 00		 mov	 cx, WORD PTR ?ToCallMgc@@3UTOCALL_MAGIC@@A+198
  00158	0f b7 c1	 movzx	 eax, cx
  0015b	0f b7 04 45 62
	00 00 00	 movzx	 eax, WORD PTR ?ToCallMgc@@3UTOCALL_MAGIC@@A[eax*2+98]
  00163	83 f8 0a	 cmp	 eax, 10			; 0000000aH
  00166	73 0c		 jae	 SHORT $LN13@RunTimeMag

; 4713 : 						ATR_CHR_ANG(a0) = (7);

  00168	c7 82 54 01 00
	00 07 00 00 00	 mov	 DWORD PTR [edx+340], 7
  00172	eb 0f		 jmp	 SHORT $LN48@RunTimeMag
$LN13@RunTimeMag:

; 4714 : 					else if (ToCallMgc.wAttackedIndex[ToCallMgc.wCurAttackNum] < 20)

  00174	83 f8 14	 cmp	 eax, 20			; 00000014H
  00177	73 11		 jae	 SHORT $LN15@RunTimeMag

; 4715 : 						ATR_CHR_ANG(a0) = (3);

  00179	c7 82 54 01 00
	00 03 00 00 00	 mov	 DWORD PTR [edx+340], 3
$LN48@RunTimeMag:

; 4716 : #ifdef _BATTLE_PK_PLAYER_FOR_40
; 4717 : 					else if (ToCallMgc.wAttackedIndex[ToCallMgc.wCurAttackNum] < 30)
; 4718 : 						ATR_CHR_ANG(a0) = (1);
; 4719 : 					else if (ToCallMgc.wAttackedIndex[ToCallMgc.wCurAttackNum] < 40)
; 4720 : 						ATR_CHR_ANG(a0) = (5);
; 4721 : #endif
; 4722 : 					ToCallMgc.wCurAttackNum++;

  00183	66 8b 0d c6 00
	00 00		 mov	 cx, WORD PTR ?ToCallMgc@@3UTOCALL_MAGIC@@A+198
$LN15@RunTimeMag:
  0018a	66 8b 35 c2 00
	00 00		 mov	 si, WORD PTR ?ToCallMgc@@3UTOCALL_MAGIC@@A+194
  00191	66 41		 inc	 cx
  00193	8b 15 04 00 00
	00		 mov	 edx, DWORD PTR ?ToCallMgc@@3UTOCALL_MAGIC@@A+4
  00199	66 89 0d c6 00
	00 00		 mov	 WORD PTR ?ToCallMgc@@3UTOCALL_MAGIC@@A+198, cx
$LN12@RunTimeMag:

; 4723 : 				}
; 4724 : 				if (ToCallMgc.wCurAttackNum >= ToCallMgc.wNumAttacks || ToCallMgc.wMgcFrameCount[ToCallMgc.wCurAttackNum] > ToCallMgc.dwCurFrame2)

  001a0	66 3b ce	 cmp	 cx, si
  001a3	0f 83 7a 01 00
	00		 jae	 $LN40@RunTimeMag
  001a9	0f b7 c1	 movzx	 eax, cx
  001ac	0f b7 04 45 42
	00 00 00	 movzx	 eax, WORD PTR ?ToCallMgc@@3UTOCALL_MAGIC@@A[eax*2+66]
  001b4	3b c2		 cmp	 eax, edx
  001b6	0f 86 d4 fe ff
	ff		 jbe	 $LL2@RunTimeMag

; 4760 : 
; 4761 : 	return TRUE;

  001bc	5b		 pop	 ebx
  001bd	42		 inc	 edx

; 4762 : }

  001be	b8 01 00 00 00	 mov	 eax, 1
  001c3	5f		 pop	 edi
  001c4	89 15 04 00 00
	00		 mov	 DWORD PTR ?ToCallMgc@@3UTOCALL_MAGIC@@A+4, edx
  001ca	5e		 pop	 esi
  001cb	c3		 ret	 0
$LN9@RunTimeMag:

; 4725 : 					break;
; 4726 : 			}
; 4727 : 		}
; 4728 : 	}else{
; 4729 : 		// æ˜¯å¦ä»æœ‰å°šæœªæ’­æ”¾çš„å’’æœ¯
; 4730 : 		if (ToCallMgc.wCurAttackNum < ToCallMgc.wNumAttacks){

  001cc	66 3b ce	 cmp	 cx, si
  001cf	0f 83 48 01 00
	00		 jae	 $LN46@RunTimeMag
  001d5	8b 15 04 00 00
	00		 mov	 edx, DWORD PTR ?ToCallMgc@@3UTOCALL_MAGIC@@A+4
  001db	bb 58 00 00 00	 mov	 ebx, 88			; 00000058H
  001e0	8d 7b bc	 lea	 edi, DWORD PTR [ebx-68]
$LL4@RunTimeMag:

; 4731 : 			while (1){
; 4732 : 				if (ToCallMgc.dwCurFrame2 == ToCallMgc.wMgcFrameCount[ToCallMgc.wCurAttackNum]){

  001e3	0f b7 c1	 movzx	 eax, cx
  001e6	0f b7 04 45 42
	00 00 00	 movzx	 eax, WORD PTR ?ToCallMgc@@3UTOCALL_MAGIC@@A[eax*2+66]
  001ee	3b d0		 cmp	 edx, eax
  001f0	0f 85 ff 00 00
	00		 jne	 $LN19@RunTimeMag

; 4733 : 					ACTION	*a0;
; 4734 : 
; 4735 : 					a0 = GetAction(T_PRIO_MISSILE, sizeof(ATR_EQU));

  001f6	68 60 02 00 00	 push	 608			; 00000260H
  001fb	6a 47		 push	 71			; 00000047H
  001fd	e8 00 00 00 00	 call	 ?GetAction@@YAPAUaction@@EI@Z ; GetAction
  00202	8b d0		 mov	 edx, eax
  00204	83 c4 08	 add	 esp, 8

; 4736 : 					ATR_NAME(a0) = monster;
; 4737 : 					ATR_VCT_NO(a0) = TOCALL_MAGIC_CASE + 2;		// å’’æœ¯çš„æ‰§è¡Œ
; 4738 : 					ATR_DISP_PRIO(a0) = (1 == ToCallMgc.wCurMgcOnChar) ? D_PRIO_HIT_MARK : DISP_PRIO_TILE + 1;

  00207	b8 01 00 00 00	 mov	 eax, 1
  0020c	8b 4a 0c	 mov	 ecx, DWORD PTR [edx+12]
  0020f	c7 42 08 00 00
	00 00		 mov	 DWORD PTR [edx+8], OFFSET ?monster@@YAXPAUaction@@@Z ; monster
  00216	c6 01 d4	 mov	 BYTE PTR [ecx], 212	; 000000d4H
  00219	b9 02 00 00 00	 mov	 ecx, 2
  0021e	66 3b 05 3e 00
	00 00		 cmp	 ax, WORD PTR ?ToCallMgc@@3UTOCALL_MAGIC@@A+62
  00225	0f 44 cb	 cmove	 ecx, ebx
  00228	88 4a 15	 mov	 BYTE PTR [edx+21], cl

; 4739 : 					ATR_CHR_NO(a0) = ToCallMgc.iCurMgcNum;

  0022b	a1 20 00 00 00	 mov	 eax, DWORD PTR ?ToCallMgc@@3UTOCALL_MAGIC@@A+32
  00230	89 82 44 01 00
	00		 mov	 DWORD PTR [edx+324], eax

; 4740 : #ifdef _PROFESSION_ADDSKILL
; 4741 : 					if (g_bUseAlpha){

  00236	83 3d 00 00 00
	00 00		 cmp	 DWORD PTR ?g_bUseAlpha@@3HA, 0 ; g_bUseAlpha
  0023d	a1 20 00 00 00	 mov	 eax, DWORD PTR ?ToCallMgc@@3UTOCALL_MAGIC@@A+32
  00242	74 0e		 je	 SHORT $LN20@RunTimeMag

; 4742 : 						if (ToCallMgc.iCurMgcNum == 101770 || ToCallMgc.iCurMgcNum == 101771)//ä¸ºäº†è®©ç ´é™¤ç»“ç•Œå›¾æ¡£æ˜¾ç¤ºäºŽå…¶å®ƒç»“ç•Œä¹‹ä¸Š

  00244	3d 8a 8d 01 00	 cmp	 eax, 101770		; 00018d8aH
  00249	74 15		 je	 SHORT $LN25@RunTimeMag
  0024b	3d 8b 8d 01 00	 cmp	 eax, 101771		; 00018d8bH

; 4743 : 							ATR_DISP_PRIO(a0)	= DISP_PRIO_TILE + ToCallMgc.wCurMgcOnChar;
; 4744 : 					}else{

  00250	eb 0c		 jmp	 SHORT $LN49@RunTimeMag
$LN20@RunTimeMag:

; 4745 : 						if (ToCallMgc.iCurMgcNum == 101825 || ToCallMgc.iCurMgcNum == 101826)//ä¸ºäº†è®©ç ´é™¤ç»“ç•Œå›¾æ¡£æ˜¾ç¤ºäºŽå…¶å®ƒç»“ç•Œä¹‹ä¸Š

  00252	3d c1 8d 01 00	 cmp	 eax, 101825		; 00018dc1H
  00257	74 07		 je	 SHORT $LN25@RunTimeMag
  00259	3d c2 8d 01 00	 cmp	 eax, 101826		; 00018dc2H
$LN49@RunTimeMag:

; 4746 : 							ATR_DISP_PRIO(a0)	= DISP_PRIO_TILE + ToCallMgc.wCurMgcOnChar;
; 4747 : 					}
; 4748 : #endif
; 4749 : 					ATR_LONG_WORK(0, a0) = ToCallMgc.wAttackedIndex[ToCallMgc.wCurAttackNum];

  0025e	75 0a		 jne	 SHORT $LN24@RunTimeMag
$LN25@RunTimeMag:
  00260	a0 3e 00 00 00	 mov	 al, BYTE PTR ?ToCallMgc@@3UTOCALL_MAGIC@@A+62
  00265	fe c0		 inc	 al
  00267	88 42 15	 mov	 BYTE PTR [edx+21], al
$LN24@RunTimeMag:
  0026a	0f b7 05 c6 00
	00 00		 movzx	 eax, WORD PTR ?ToCallMgc@@3UTOCALL_MAGIC@@A+198
  00271	0f b7 0c 45 62
	00 00 00	 movzx	 ecx, WORD PTR ?ToCallMgc@@3UTOCALL_MAGIC@@A[eax*2+98]
  00279	8b 42 0c	 mov	 eax, DWORD PTR [edx+12]
  0027c	89 88 34 01 00
	00		 mov	 DWORD PTR [eax+308], ecx

; 4750 : 					ATR_H_POS(a0) = (20 == ToCallMgc.wAttackedIndex[ToCallMgc.wCurAttackNum]) ? ToCallMgc.posAttacked[ToCallMgc.wCurAttackNum].x : ATR_H_POS(p_party[ToCallMgc.wAttackedIndex[ToCallMgc.wCurAttackNum]]) + ToCallMgc.posAttacked[ToCallMgc.wCurAttackNum].x;

  00282	0f b7 05 c6 00
	00 00		 movzx	 eax, WORD PTR ?ToCallMgc@@3UTOCALL_MAGIC@@A+198
  00289	0f b7 34 45 62
	00 00 00	 movzx	 esi, WORD PTR ?ToCallMgc@@3UTOCALL_MAGIC@@A[eax*2+98]
  00291	0f b7 0c 85 82
	00 00 00	 movzx	 ecx, WORD PTR ?ToCallMgc@@3UTOCALL_MAGIC@@A[eax*4+130]
  00299	66 3b fe	 cmp	 di, si
  0029c	74 0c		 je	 SHORT $LN34@RunTimeMag
  0029e	8b 04 b5 00 00
	00 00		 mov	 eax, DWORD PTR ?p_party@@3PAPAUaction@@A[esi*4]
  002a5	8b 40 18	 mov	 eax, DWORD PTR [eax+24]
  002a8	03 c8		 add	 ecx, eax
$LN34@RunTimeMag:
  002aa	89 4a 18	 mov	 DWORD PTR [edx+24], ecx

; 4751 : 					ATR_V_POS(a0) = (20 == ToCallMgc.wAttackedIndex[ToCallMgc.wCurAttackNum]) ? ToCallMgc.posAttacked[ToCallMgc.wCurAttackNum].y : ATR_V_POS(p_party[ToCallMgc.wAttackedIndex[ToCallMgc.wCurAttackNum]]) + ToCallMgc.posAttacked[ToCallMgc.wCurAttackNum].y;

  002ad	0f b7 05 c6 00
	00 00		 movzx	 eax, WORD PTR ?ToCallMgc@@3UTOCALL_MAGIC@@A+198
  002b4	0f b7 34 45 62
	00 00 00	 movzx	 esi, WORD PTR ?ToCallMgc@@3UTOCALL_MAGIC@@A[eax*2+98]
  002bc	0f b7 0c 85 84
	00 00 00	 movzx	 ecx, WORD PTR ?ToCallMgc@@3UTOCALL_MAGIC@@A[eax*4+132]
  002c4	66 3b fe	 cmp	 di, si
  002c7	74 0c		 je	 SHORT $LN36@RunTimeMag
  002c9	8b 04 b5 00 00
	00 00		 mov	 eax, DWORD PTR ?p_party@@3PAPAUaction@@A[esi*4]
  002d0	8b 40 1c	 mov	 eax, DWORD PTR [eax+28]
  002d3	03 c8		 add	 ecx, eax
$LN36@RunTimeMag:
  002d5	89 4a 1c	 mov	 DWORD PTR [edx+28], ecx

; 4752 : 					ToCallMgc.wCurAttackNum++;

  002d8	66 8b 0d c6 00
	00 00		 mov	 cx, WORD PTR ?ToCallMgc@@3UTOCALL_MAGIC@@A+198
  002df	66 8b 35 c2 00
	00 00		 mov	 si, WORD PTR ?ToCallMgc@@3UTOCALL_MAGIC@@A+194
  002e6	66 41		 inc	 cx
  002e8	8b 15 04 00 00
	00		 mov	 edx, DWORD PTR ?ToCallMgc@@3UTOCALL_MAGIC@@A+4
  002ee	66 89 0d c6 00
	00 00		 mov	 WORD PTR ?ToCallMgc@@3UTOCALL_MAGIC@@A+198, cx
$LN19@RunTimeMag:

; 4753 : 				}
; 4754 : 				if (ToCallMgc.wCurAttackNum >= ToCallMgc.wNumAttacks || ToCallMgc.wMgcFrameCount[ToCallMgc.wCurAttackNum] > ToCallMgc.dwCurFrame2)

  002f5	66 3b ce	 cmp	 cx, si
  002f8	73 29		 jae	 SHORT $LN40@RunTimeMag
  002fa	0f b7 c1	 movzx	 eax, cx
  002fd	0f b7 04 45 42
	00 00 00	 movzx	 eax, WORD PTR ?ToCallMgc@@3UTOCALL_MAGIC@@A[eax*2+66]
  00305	3b c2		 cmp	 eax, edx
  00307	0f 86 d6 fe ff
	ff		 jbe	 $LL4@RunTimeMag

; 4760 : 
; 4761 : 	return TRUE;

  0030d	5b		 pop	 ebx
  0030e	42		 inc	 edx

; 4762 : }

  0030f	b8 01 00 00 00	 mov	 eax, 1
  00314	5f		 pop	 edi
  00315	89 15 04 00 00
	00		 mov	 DWORD PTR ?ToCallMgc@@3UTOCALL_MAGIC@@A+4, edx
  0031b	5e		 pop	 esi
  0031c	c3		 ret	 0
$LN46@RunTimeMag:

; 4725 : 					break;
; 4726 : 			}
; 4727 : 		}
; 4728 : 	}else{
; 4729 : 		// æ˜¯å¦ä»æœ‰å°šæœªæ’­æ”¾çš„å’’æœ¯
; 4730 : 		if (ToCallMgc.wCurAttackNum < ToCallMgc.wNumAttacks){

  0031d	8b 15 04 00 00
	00		 mov	 edx, DWORD PTR ?ToCallMgc@@3UTOCALL_MAGIC@@A+4
$LN40@RunTimeMag:

; 4755 : 					break;
; 4756 : 			}
; 4757 : 		}
; 4758 : 	}
; 4759 : 	ToCallMgc.dwCurFrame2++;

  00323	42		 inc	 edx
  00324	89 15 04 00 00
	00		 mov	 DWORD PTR ?ToCallMgc@@3UTOCALL_MAGIC@@A+4, edx

; 4760 : 
; 4761 : 	return TRUE;

  0032a	5b		 pop	 ebx
$LN47@RunTimeMag:

; 4762 : }

  0032b	5f		 pop	 edi
  0032c	b8 01 00 00 00	 mov	 eax, 1
  00331	5e		 pop	 esi
  00332	c3		 ret	 0
?RunTimeMagicToCall@@YAHXZ ENDP				; RunTimeMagicToCall
_TEXT	ENDS
; Function compile flags: /Ogtp
; File C:\Users\gg862\OneDrive\¹ÙÅÁ È­¸é\¸¾Äí¿Ï·á\Client Source Code1.31ÀÏº»\oft\oft.cpp
;	COMDAT ?get_command_asc@@YAXXZ
_TEXT	SEGMENT
_d0$ = -4						; size = 1
?get_command_asc@@YAXXZ PROC				; get_command_asc, COMDAT

; 4469 : {

  00000	55		 push	 ebp
  00001	8b ec		 mov	 ebp, esp
  00003	51		 push	 ecx

; 4470 : 	char d0, d1 = 0;
; 4471 : 	char *a2;
; 4472 : 
; 4473 : 	kanji_buf[0][0] = kanji_buf[1][0] = kanji_buf[2][0] = kanji_buf[3][0] = 0;
; 4474 : 	a2 = kanji_buf[d1];
; 4475 : 	while (1)
; 4476 : 	{
; 4477 : 		d0 = BattleCmd[command_point++];		//?îž°?îŽ•?î?

  00004	8b 0d 00 00 00
	00		 mov	 ecx, DWORD PTR ?command_point@@3HA
  0000a	53		 push	 ebx
  0000b	32 ff		 xor	 bh, bh
  0000d	56		 push	 esi
  0000e	8a 99 00 00 00
	00		 mov	 bl, BYTE PTR ?BattleCmd@@3PADA[ecx]
  00014	be 00 00 00 00	 mov	 esi, OFFSET ?kanji_buf@@3PAY0IA@DA
  00019	41		 inc	 ecx
  0001a	88 3d 80 01 00
	00		 mov	 BYTE PTR ?kanji_buf@@3PAY0IA@DA+384, bh
  00020	88 3d 00 01 00
	00		 mov	 BYTE PTR ?kanji_buf@@3PAY0IA@DA+256, bh
  00026	8b c1		 mov	 eax, ecx
  00028	88 3d 80 00 00
	00		 mov	 BYTE PTR ?kanji_buf@@3PAY0IA@DA+128, bh
  0002e	88 3d 00 00 00
	00		 mov	 BYTE PTR ?kanji_buf@@3PAY0IA@DA, bh
  00034	88 5d fc	 mov	 BYTE PTR _d0$[ebp], bl
  00037	89 0d 00 00 00
	00		 mov	 DWORD PTR ?command_point@@3HA, ecx
  0003d	57		 push	 edi

; 4478 : 		if (d0 == NULL)		//îŽ·???

  0003e	84 db		 test	 bl, bl
  00040	74 5a		 je	 SHORT $LN14@get_comman
  00042	8b 3d 00 00 00
	00		 mov	 edi, DWORD PTR __imp__IsDBCSLeadByte@4
$LL2@get_comman:

; 4481 : 			break;
; 4482 : 		}
; 4483 : 		//????
; 4484 : 		if (d0 == '\t')

  00048	80 fb 09	 cmp	 bl, 9
  0004b	75 18		 jne	 SHORT $LN5@get_comman

; 4485 : 		{
; 4486 : 			//îŽ·????
; 4487 : 			*a2 = 0;
; 4488 : 			d1++;

  0004d	fe c7		 inc	 bh
  0004f	c6 06 00	 mov	 BYTE PTR [esi], 0

; 4489 : 			if (d1 == 4)		//?????

  00052	80 ff 04	 cmp	 bh, 4
  00055	74 4b		 je	 SHORT $LN19@get_comman

; 4490 : 				break;
; 4491 : 			a2 = kanji_buf[d1];

  00057	0f be f7	 movsx	 esi, bh
  0005a	c1 e6 07	 shl	 esi, 7
  0005d	81 c6 00 00 00
	00		 add	 esi, OFFSET ?kanji_buf@@3PAY0IA@DA

; 4492 : 			continue;

  00063	eb 21		 jmp	 SHORT $LN9@get_comman
$LN5@get_comman:

; 4493 : 		}
; 4494 : 		//?î“???
; 4495 : 		if (d0 == '|')

  00065	80 fb 7c	 cmp	 bl, 124			; 0000007cH
  00068	74 38		 je	 SHORT $LN19@get_comman

; 4496 : 			break;
; 4497 : 		if (IsDBCSLeadByte(d0))

  0006a	ff 75 fc	 push	 DWORD PTR _d0$[ebp]
  0006d	ff d7		 call	 edi
  0006f	88 1e		 mov	 BYTE PTR [esi], bl
  00071	46		 inc	 esi
  00072	8b 0d 00 00 00
	00		 mov	 ecx, DWORD PTR ?command_point@@3HA
  00078	85 c0		 test	 eax, eax
  0007a	74 0a		 je	 SHORT $LN9@get_comman

; 4498 : 		{
; 4499 : 			*a2++ = d0;
; 4500 : 			*a2++ = BattleCmd[command_point++];

  0007c	8a 81 00 00 00
	00		 mov	 al, BYTE PTR ?BattleCmd@@3PADA[ecx]
  00082	88 06		 mov	 BYTE PTR [esi], al
  00084	46		 inc	 esi
  00085	41		 inc	 ecx
$LN9@get_comman:

; 4470 : 	char d0, d1 = 0;
; 4471 : 	char *a2;
; 4472 : 
; 4473 : 	kanji_buf[0][0] = kanji_buf[1][0] = kanji_buf[2][0] = kanji_buf[3][0] = 0;
; 4474 : 	a2 = kanji_buf[d1];
; 4475 : 	while (1)
; 4476 : 	{
; 4477 : 		d0 = BattleCmd[command_point++];		//?îž°?îŽ•?î?

  00086	8a 99 00 00 00
	00		 mov	 bl, BYTE PTR ?BattleCmd@@3PADA[ecx]
  0008c	41		 inc	 ecx
  0008d	88 5d fc	 mov	 BYTE PTR _d0$[ebp], bl
  00090	8b c1		 mov	 eax, ecx
  00092	89 0d 00 00 00
	00		 mov	 DWORD PTR ?command_point@@3HA, ecx

; 4478 : 		if (d0 == NULL)		//îŽ·???

  00098	84 db		 test	 bl, bl
  0009a	75 ac		 jne	 SHORT $LL2@get_comman
$LN14@get_comman:

; 4479 : 		{
; 4480 : 			command_point--;

  0009c	48		 dec	 eax
  0009d	a3 00 00 00 00	 mov	 DWORD PTR ?command_point@@3HA, eax
$LN19@get_comman:

; 4501 : 		}
; 4502 : 		else
; 4503 : 			*a2++ = d0;
; 4504 : 	}
; 4505 : 	//îŽ·????
; 4506 : 	*a2 = 0;
; 4507 : }

  000a2	5f		 pop	 edi
  000a3	c6 06 00	 mov	 BYTE PTR [esi], 0
  000a6	5e		 pop	 esi
  000a7	5b		 pop	 ebx
  000a8	8b e5		 mov	 esp, ebp
  000aa	5d		 pop	 ebp
  000ab	c3		 ret	 0
?get_command_asc@@YAXXZ ENDP				; get_command_asc
_TEXT	ENDS
; Function compile flags: /Ogtp
; File C:\Users\gg862\OneDrive\¹ÙÅÁ È­¸é\¸¾Äí¿Ï·á\Client Source Code1.31ÀÏº»\oft\oft.cpp
;	COMDAT ?disp_attrib@@YAXPAUaction@@@Z
_TEXT	SEGMENT
_a0$ = 8						; size = 4
?disp_attrib@@YAXPAUaction@@@Z PROC			; disp_attrib, COMDAT

; 4433 : {

  00000	55		 push	 ebp
  00001	8b ec		 mov	 ebp, esp

; 4434 : 	ACTION *a1;
; 4435 : 
; 4436 : 	a1 = p_attrib;
; 4437 : 	switch (ATR_ATTRIB(a0))

  00003	8b 45 08	 mov	 eax, DWORD PTR _a0$[ebp]
  00006	8b 88 a4 00 00
	00		 mov	 ecx, DWORD PTR [eax+164]
  0000c	a1 00 00 00 00	 mov	 eax, DWORD PTR ?p_attrib@@3PAUaction@@A
  00011	83 f9 04	 cmp	 ecx, 4
  00014	77 55		 ja	 SHORT $LN2@disp_attri
  00016	ff 24 8d 00 00
	00 00		 jmp	 DWORD PTR $LN10@disp_attri[ecx*4]
$LN4@disp_attri:

; 4462 : 		break;
; 4463 : 	}
; 4464 : 	pattern(a1, ANM_NOMAL_SPD, ANM_NO_LOOP);

  0001d	6a 01		 push	 1
  0001f	6a 00		 push	 0
  00021	50		 push	 eax
  00022	c7 80 a4 00 00
	00 02 00 00 00	 mov	 DWORD PTR [eax+164], 2
  0002c	e8 00 00 00 00	 call	 ?pattern@@YAHPAUaction@@HH@Z ; pattern
  00031	83 c4 0c	 add	 esp, 12			; 0000000cH

; 4465 : }

  00034	5d		 pop	 ebp
  00035	c3		 ret	 0
$LN5@disp_attri:

; 4438 : 	{
; 4439 : 		//æ— å±žæ€§
; 4440 : 	case 0:
; 4441 : 		ATR_ATTRIB(a1) = ACT_ATR_HIDE;		//ä¸è¡¨ç¤º
; 4442 : 		break;
; 4443 : 		//åœ°å±žæ€§
; 4444 : 	case 1:
; 4445 : 		ATR_ATTRIB(a1) &= ~ACT_ATR_HIDE;
; 4446 : 		ATR_CHR_NO(a1) = CG_ATR_ICON_EARTH_BATTLE;

  00036	c7 80 44 01 00
	00 2c 62 00 00	 mov	 DWORD PTR [eax+324], 25132 ; 0000622cH

; 4447 : 		break;

  00040	eb 22		 jmp	 SHORT $LN11@disp_attri
$LN6@disp_attri:

; 4448 : 		//æ°´å±žæ€§
; 4449 : 	case 2:
; 4450 : 		ATR_ATTRIB(a1) &= ~ACT_ATR_HIDE;
; 4451 : 		ATR_CHR_NO(a1) = CG_ATR_ICON_WATER_BATTLE;

  00042	c7 80 44 01 00
	00 2d 62 00 00	 mov	 DWORD PTR [eax+324], 25133 ; 0000622dH

; 4452 : 		break;

  0004c	eb 16		 jmp	 SHORT $LN11@disp_attri
$LN7@disp_attri:

; 4453 : 		//ç«å±žæ€§
; 4454 : 	case 3:
; 4455 : 		ATR_ATTRIB(a1) &= ~ACT_ATR_HIDE;
; 4456 : 		ATR_CHR_NO(a1) = CG_ATR_ICON_FIRE_BATTLE;

  0004e	c7 80 44 01 00
	00 2e 62 00 00	 mov	 DWORD PTR [eax+324], 25134 ; 0000622eH

; 4457 : 		break;

  00058	eb 0a		 jmp	 SHORT $LN11@disp_attri
$LN8@disp_attri:

; 4458 : 		//é£Žå±žæ€§
; 4459 : 	case 4:
; 4460 : 		ATR_ATTRIB(a1) &= ~ACT_ATR_HIDE;
; 4461 : 		ATR_CHR_NO(a1) = CG_ATR_ICON_WIND_BATTLE;

  0005a	c7 80 44 01 00
	00 2f 62 00 00	 mov	 DWORD PTR [eax+324], 25135 ; 0000622fH
$LN11@disp_attri:

; 4462 : 		break;
; 4463 : 	}
; 4464 : 	pattern(a1, ANM_NOMAL_SPD, ANM_NO_LOOP);

  00064	83 a0 a4 00 00
	00 fd		 and	 DWORD PTR [eax+164], -3	; fffffffdH
$LN2@disp_attri:
  0006b	6a 01		 push	 1
  0006d	6a 00		 push	 0
  0006f	50		 push	 eax
  00070	e8 00 00 00 00	 call	 ?pattern@@YAHPAUaction@@HH@Z ; pattern
  00075	83 c4 0c	 add	 esp, 12			; 0000000cH

; 4465 : }

  00078	5d		 pop	 ebp
  00079	c3		 ret	 0
  0007a	66 90		 npad	 2
$LN10@disp_attri:
  0007c	00 00 00 00	 DD	 $LN4@disp_attri
  00080	00 00 00 00	 DD	 $LN5@disp_attri
  00084	00 00 00 00	 DD	 $LN6@disp_attri
  00088	00 00 00 00	 DD	 $LN7@disp_attri
  0008c	00 00 00 00	 DD	 $LN8@disp_attri
?disp_attrib@@YAXPAUaction@@@Z ENDP			; disp_attrib
_TEXT	ENDS
; Function compile flags: /Ogtp
; File C:\Users\gg862\OneDrive\¹ÙÅÁ È­¸é\¸¾Äí¿Ï·á\Client Source Code1.31ÀÏº»\oft\oft.cpp
;	COMDAT ?check_all_dead@@YAHXZ
_TEXT	SEGMENT
?check_all_dead@@YAHXZ PROC				; check_all_dead, COMDAT

; 4356 : {

  00000	56		 push	 esi

; 4357 : 	int d0, d7;
; 4358 : 
; 4359 : 	d0 = 10;		//æ£€æŸ¥äººæ•°è®¾å®š

  00001	be 0a 00 00 00	 mov	 esi, 10			; 0000000aH

; 4360 : 	for (d7 = 0; d7 < 5; d7++)

  00006	b8 00 00 00 00	 mov	 eax, OFFSET ?p_party@@3PAPAUaction@@A
  0000b	0f 1f 44 00 00	 npad	 5
$LL4@check_all_:

; 4361 : 	{
; 4362 : 		if (ATR_NAME(p_party[d7]) != NULL)		//????????????

  00010	8b 08		 mov	 ecx, DWORD PTR [eax]
  00012	83 79 08 00	 cmp	 DWORD PTR [ecx+8], 0
  00016	75 0c		 jne	 SHORT $LN37@check_all_

; 4360 : 	for (d7 = 0; d7 < 5; d7++)

