; Listing generated by Microsoft (R) Optimizing Compiler Version 19.29.30133.0 

	TITLE	\\VBOXSVR\_stoneage\repos\ssm-sacli\Release\ohta_proc.obj
	.686P
	.XMM
	include listing.inc
	.model	flat

INCLUDELIB LIBCMT
INCLUDELIB OLDNAMES

PUBLIC	?OhtaTestProc@@YAXXZ				; OhtaTestProc
EXTRN	?PaletteProc@@YAXXZ:PROC			; PaletteProc
EXTRN	?RunAction@@YAXXZ:PROC				; RunAction
EXTRN	?StockTaskDispBuffer@@YAXXZ:PROC		; StockTaskDispBuffer
EXTRN	?ChatBufferToFontBuffer@@YAXXZ:PROC		; ChatBufferToFontBuffer
EXTRN	?ChatProc@@YAXXZ:PROC				; ChatProc
EXTRN	?GetKeyInputFocus@@YAXPAUSTR_BUFFER@@@Z:PROC	; GetKeyInputFocus
EXTRN	?InitChat@@YAXXZ:PROC				; InitChat
EXTRN	?FlashKeyboardCursor@@YAXXZ:PROC		; FlashKeyboardCursor
EXTRN	?MakeJiki@@YAPAUaction@@XZ:PROC			; MakeJiki
EXTRN	?ImeProc@@YAXXZ:PROC				; ImeProc
EXTRN	?drawMap@@YAXXZ:PROC				; drawMap
EXTRN	?drawGrid@@YAXXZ:PROC				; drawGrid
EXTRN	?moveProc@@YAXXZ:PROC				; moveProc
EXTRN	?MenuProc@@YAXXZ:PROC				; MenuProc
EXTRN	?SubProcNo@@3IA:DWORD				; SubProcNo
EXTRN	?MyChatBuffer@@3USTR_BUFFER@@A:BYTE		; MyChatBuffer
EXTRN	?mouse@@3UMOUSE@@A:BYTE				; mouse
EXTRN	?TaskBarFlag@@3HA:DWORD				; TaskBarFlag
; Function compile flags: /Ogtp
; File \\VBOXSVR\_stoneage\repos\ssm-sacli\ohta\ohta_proc.cpp
;	COMDAT ?OhtaTestProc@@YAXXZ
_TEXT	SEGMENT
?OhtaTestProc@@YAXXZ PROC				; OhtaTestProc, COMDAT

; 14   : 	switch( SubProcNo ){

  00000	a1 00 00 00 00	 mov	 eax, DWORD PTR ?SubProcNo@@3IA ; SubProcNo
  00005	83 e8 00	 sub	 eax, 0
  00008	74 4e		 je	 SHORT $LN4@OhtaTestPr
  0000a	83 e8 01	 sub	 eax, 1
  0000d	75 64		 jne	 SHORT $LN2@OhtaTestPr

; 20   : 			break;
; 21   : 		
; 22   : 		case 1:
; 23   : 			FlashKeyboardCursor();

  0000f	e8 00 00 00 00	 call	 ?FlashKeyboardCursor@@YAXXZ ; FlashKeyboardCursor

; 24   : 			if( mouse.level < DISP_PRIO_MENU && TaskBarFlag == FALSE ){

  00014	80 3d 44 00 00
	00 68		 cmp	 BYTE PTR ?mouse@@3UMOUSE@@A+68, 104 ; 00000068H
  0001b	73 13		 jae	 SHORT $LN6@OhtaTestPr
  0001d	83 3d 00 00 00
	00 00		 cmp	 DWORD PTR ?TaskBarFlag@@3HA, 0 ; TaskBarFlag
  00024	75 0a		 jne	 SHORT $LN6@OhtaTestPr

; 25   : 				drawGrid();

  00026	e8 00 00 00 00	 call	 ?drawGrid@@YAXXZ	; drawGrid

; 26   : 				moveProc();

  0002b	e8 00 00 00 00	 call	 ?moveProc@@YAXXZ	; moveProc
$LN6@OhtaTestPr:

; 27   : 			}
; 28   : 
; 29   : 			RunAction();

  00030	e8 00 00 00 00	 call	 ?RunAction@@YAXXZ	; RunAction

; 30   : 			StockTaskDispBuffer();

  00035	e8 00 00 00 00	 call	 ?StockTaskDispBuffer@@YAXXZ ; StockTaskDispBuffer

; 31   : 			drawMap();

  0003a	e8 00 00 00 00	 call	 ?drawMap@@YAXXZ		; drawMap

; 32   : 			ChatProc();

  0003f	e8 00 00 00 00	 call	 ?ChatProc@@YAXXZ	; ChatProc

; 33   : 			ChatBufferToFontBuffer(); 

  00044	e8 00 00 00 00	 call	 ?ChatBufferToFontBuffer@@YAXXZ ; ChatBufferToFontBuffer

; 34   : 			MenuProc();

  00049	e8 00 00 00 00	 call	 ?MenuProc@@YAXXZ	; MenuProc

; 35   : 			ImeProc();		

  0004e	e8 00 00 00 00	 call	 ?ImeProc@@YAXXZ		; ImeProc

; 36   : 			PaletteProc();

  00053	e9 00 00 00 00	 jmp	 ?PaletteProc@@YAXXZ	; PaletteProc
$LN4@OhtaTestPr:

; 15   : 		case 0:
; 16   : 			MakeJiki();

  00058	e8 00 00 00 00	 call	 ?MakeJiki@@YAPAUaction@@XZ ; MakeJiki

; 17   : 			SubProcNo++;

  0005d	ff 05 00 00 00
	00		 inc	 DWORD PTR ?SubProcNo@@3IA ; SubProcNo

; 18   : 			InitChat();

  00063	e8 00 00 00 00	 call	 ?InitChat@@YAXXZ	; InitChat

; 19   : 			GetKeyInputFocus( &MyChatBuffer );

  00068	68 00 00 00 00	 push	 OFFSET ?MyChatBuffer@@3USTR_BUFFER@@A ; MyChatBuffer
  0006d	e8 00 00 00 00	 call	 ?GetKeyInputFocus@@YAXPAUSTR_BUFFER@@@Z ; GetKeyInputFocus
  00072	59		 pop	 ecx
$LN2@OhtaTestPr:

; 37   : 			break;
; 38   : 	}
; 39   : }

  00073	c3		 ret	 0
?OhtaTestProc@@YAXXZ ENDP				; OhtaTestProc
_TEXT	ENDS
END
