; Listing generated by Microsoft (R) Optimizing Compiler Version 19.28.29336.0 

	TITLE	C:\Users\gg862\OneDrive\¹ÙÅÁ È­¸é\¸¾Äí¿Ï·á\Client Source Code1.31ÀÏº»\ohta\Ohta.cpp
	.686P
	.XMM
	include listing.inc
	.model	flat

INCLUDELIB LIBCMT
INCLUDELIB OLDNAMES

PUBLIC	?bomData@@3PAHA					; bomData
PUBLIC	?pJiki@@3PAUaction@@A				; pJiki
_BSS	SEGMENT
?pJiki@@3PAUaction@@A DD 01H DUP (?)			; pJiki
_BSS	ENDS
_DATA	SEGMENT
?bomData@@3PAHA DD 015H					; bomData
	DD	016H
	DD	017H
	DD	017H
	DD	016H
	DD	015H
_DATA	ENDS
PUBLIC	?MakeJiki@@YAPAUaction@@XZ			; MakeJiki
PUBLIC	?Jiki@@YAXPAUaction@@@Z				; Jiki
PUBLIC	?MakeJikiTama@@YAPAUaction@@HHHHH@Z		; MakeJikiTama
PUBLIC	?JikiTama@@YAXPAUaction@@@Z			; JikiTama
PUBLIC	?MakeEnemy@@YAPAUaction@@XZ			; MakeEnemy
PUBLIC	?Enemy@@YAXPAUaction@@@Z			; Enemy
PUBLIC	?MakeEnemyTama@@YAPAUaction@@PAU1@@Z		; MakeEnemyTama
PUBLIC	?EnemyTama@@YAXPAUaction@@@Z			; EnemyTama
PUBLIC	?MakeBg@@YAPAUaction@@XZ			; MakeBg
PUBLIC	?Bg@@YAXPAUaction@@@Z				; Bg
PUBLIC	?MakeKen@@YAPAUaction@@XZ			; MakeKen
PUBLIC	?Ken@@YAXPAUaction@@@Z				; Ken
PUBLIC	?MakeGameOver@@YAPAUaction@@XZ			; MakeGameOver
PUBLIC	?GameOver@@YAXPAUaction@@@Z			; GameOver
PUBLIC	?enemy_missile@@YAXPAUaction@@@Z		; enemy_missile
PUBLIC	??_C@_0L@EODHLCGM@BmpNo?5?$DN?5?$CFd@		; `string'
EXTRN	__imp__wsprintfA:PROC
EXTRN	__imp__GetAsyncKeyState@4:PROC
EXTRN	?GetAction@@YAPAUaction@@EI@Z:PROC		; GetAction
EXTRN	?DeathAction@@YAXPAUaction@@@Z:PROC		; DeathAction
EXTRN	?Rnd@@YAHHH@Z:PROC				; Rnd
EXTRN	?StockFontBuffer2@@YAXPAUSTR_BUFFER@@@Z:PROC	; StockFontBuffer2
EXTRN	?radar@@YAXPAUaction@@PAH1@Z:PROC		; radar
EXTRN	?radar2@@YAHPAUaction@@HHH@Z:PROC		; radar2
EXTRN	?gemini@@YAXPAUaction@@@Z:PROC			; gemini
EXTRN	?pattern@@YAHPAUaction@@HH@Z:PROC		; pattern
EXTRN	?play_se@@YAHHHH@Z:PROC				; play_se
EXTRN	@__security_check_cookie@4:PROC
EXTRN	?joy_con@@3PAKA:QWORD				; joy_con
EXTRN	?mouse@@3UMOUSE@@A:BYTE				; mouse
EXTRN	?HitDispNo@@3HA:DWORD				; HitDispNo
EXTRN	___security_cookie:DWORD
;	COMDAT ??_C@_0L@EODHLCGM@BmpNo?5?$DN?5?$CFd@
CONST	SEGMENT
??_C@_0L@EODHLCGM@BmpNo?5?$DN?5?$CFd@ DB 'BmpNo = %d', 00H ; `string'
CONST	ENDS
_DATA	SEGMENT
?No@@3HA DD	08ca0H					; No
_DATA	ENDS
; Function compile flags: /Ogtp
; File C:\Users\gg862\OneDrive\¹ÙÅÁ È­¸é\¸¾Äí¿Ï·á\Client Source Code1.31ÀÏº»\ohta\Ohta.cpp
;	COMDAT ?enemy_missile@@YAXPAUaction@@@Z
_TEXT	SEGMENT
_a0$ = 8						; size = 4
?enemy_missile@@YAXPAUaction@@@Z PROC			; enemy_missile, COMDAT

; 527  : {

  00000	55		 push	 ebp
  00001	8b ec		 mov	 ebp, esp
  00003	56		 push	 esi

; 528  : 	gemini(a0);		//ç§»å‹•

  00004	8b 75 08	 mov	 esi, DWORD PTR _a0$[ebp]
  00007	56		 push	 esi
  00008	e8 00 00 00 00	 call	 ?gemini@@YAXPAUaction@@@Z ; gemini

; 529  : 	//ç”»é¢å¤–ãªã‚‰
; 530  : 	if(ATR_H_POS(a0)>=640 || ATR_H_POS(a0)<-32 || ATR_V_POS(a0)>480 || ATR_V_POS(a0)<-32)

  0000d	8b 46 18	 mov	 eax, DWORD PTR [esi+24]
  00010	83 c4 04	 add	 esp, 4
  00013	83 c0 20	 add	 eax, 32			; 00000020H
  00016	3d 9f 02 00 00	 cmp	 eax, 671		; 0000029fH
  0001b	77 0f		 ja	 SHORT $LN3@enemy_miss
  0001d	8b 46 1c	 mov	 eax, DWORD PTR [esi+28]
  00020	3d e0 01 00 00	 cmp	 eax, 480		; 000001e0H
  00025	7f 05		 jg	 SHORT $LN3@enemy_miss
  00027	83 f8 e0	 cmp	 eax, -32		; ffffffe0H
  0002a	7d 09		 jge	 SHORT $LN2@enemy_miss
$LN3@enemy_miss:

; 531  : 		DeathAction( a0 );		//çµ‚äº†

  0002c	56		 push	 esi
  0002d	e8 00 00 00 00	 call	 ?DeathAction@@YAXPAUaction@@@Z ; DeathAction
  00032	83 c4 04	 add	 esp, 4
$LN2@enemy_miss:
  00035	5e		 pop	 esi

; 532  : }

  00036	5d		 pop	 ebp
  00037	c3		 ret	 0
?enemy_missile@@YAXPAUaction@@@Z ENDP			; enemy_missile
_TEXT	ENDS
; Function compile flags: /Ogtp
; File C:\Users\gg862\OneDrive\¹ÙÅÁ È­¸é\¸¾Äí¿Ï·á\Client Source Code1.31ÀÏº»\ohta\Ohta.cpp
;	COMDAT ?GameOver@@YAXPAUaction@@@Z
_TEXT	SEGMENT
_pAct$ = 8						; size = 4
?GameOver@@YAXPAUaction@@@Z PROC			; GameOver, COMDAT

; 800  : 	//char szMoji[128];
; 801  : 	
; 802  : 	// GAME OVER è¡¨ç¤º
; 803  : 	
; 804  : }

  00000	c2 00 00	 ret	 0
?GameOver@@YAXPAUaction@@@Z ENDP			; GameOver
_TEXT	ENDS
; Function compile flags: /Ogtp
; File C:\Users\gg862\OneDrive\¹ÙÅÁ È­¸é\¸¾Äí¿Ï·á\Client Source Code1.31ÀÏº»\ohta\Ohta.cpp
;	COMDAT ?MakeGameOver@@YAPAUaction@@XZ
_TEXT	SEGMENT
?MakeGameOver@@YAPAUaction@@XZ PROC			; MakeGameOver, COMDAT

; 772  : 	ACTION *pAct;
; 773  : 	
; 774  : 	/* ã‚¢ã‚¯ã‚·ãƒ§ãƒ³ãƒªã‚¹ãƒˆã«ç™»éŒ² */
; 775  : 	pAct = GetAction( PRIO_GAME_OVER, 0 );

  00000	6a 00		 push	 0
  00002	6a 09		 push	 9
  00004	e8 00 00 00 00	 call	 ?GetAction@@YAPAUaction@@EI@Z ; GetAction
  00009	83 c4 08	 add	 esp, 8

; 776  : 	if( pAct == NULL ) return NULL;

  0000c	85 c0		 test	 eax, eax
  0000e	75 01		 jne	 SHORT $LN2@MakeGameOv

; 792  : 
; 793  : 	return pAct;
; 794  : 	
; 795  : }

  00010	c3		 ret	 0
$LN2@MakeGameOv:

; 777  : 	
; 778  : 	/* å®Ÿè¡Œé–¢æ•° */
; 779  : 	pAct->func = GameOver;
; 780  : 	
; 781  : 	// éžè¡¨ç¤º
; 782  : 	pAct->atr |= ACT_ATR_HIDE;

  00011	83 88 a4 00 00
	00 02		 or	 DWORD PTR [eax+164], 2
  00018	c7 40 08 00 00
	00 00		 mov	 DWORD PTR [eax+8], OFFSET ?GameOver@@YAXPAUaction@@@Z ; GameOver

; 783  : 	
; 784  : 	/* ã‚¹ãƒ—ãƒ©ã‚¤ãƒˆç•ªå· */
; 785  : 	pAct->bmpNo = 0;

  0001f	c7 80 9c 00 00
	00 00 00 00 00	 mov	 DWORD PTR [eax+156], 0

; 786  : //	pAct->bmpNo = 30;
; 787  : 	/* ï¼¨ï¼° */
; 788  : 	pAct->hp = 100;

  00029	c7 40 78 64 00
	00 00		 mov	 DWORD PTR [eax+120], 100 ; 00000064H

; 789  : 	/* åˆæœŸä½ç½® */
; 790  : 	pAct->x = 250;

  00030	c7 40 18 fa 00
	00 00		 mov	 DWORD PTR [eax+24], 250	; 000000faH

; 791  : 	pAct->y = 200;

  00037	c7 40 1c c8 00
	00 00		 mov	 DWORD PTR [eax+28], 200	; 000000c8H

; 792  : 
; 793  : 	return pAct;
; 794  : 	
; 795  : }

  0003e	c3		 ret	 0
?MakeGameOver@@YAPAUaction@@XZ ENDP			; MakeGameOver
_TEXT	ENDS
; Function compile flags: /Ogtp
; File C:\Users\gg862\OneDrive\¹ÙÅÁ È­¸é\¸¾Äí¿Ï·á\Client Source Code1.31ÀÏº»\ohta\Ohta.cpp
;	COMDAT ?Ken@@YAXPAUaction@@@Z
_TEXT	SEGMENT
_pAct$ = 8						; size = 4
?Ken@@YAXPAUaction@@@Z PROC				; Ken, COMDAT

; 881  : 	int anim[] = { 	0,0,0,0,
; 882  : 					1,1,1,1,
; 883  : 					2,2,2,2,
; 884  : 					3,3,3,3,
; 885  : 					2,2,2,2,
; 886  : 					1,1,1,1 
; 887  : 					};
; 888  : }

  00000	c2 00 00	 ret	 0
?Ken@@YAXPAUaction@@@Z ENDP				; Ken
_TEXT	ENDS
; Function compile flags: /Ogtp
; File C:\Users\gg862\OneDrive\¹ÙÅÁ È­¸é\¸¾Äí¿Ï·á\Client Source Code1.31ÀÏº»\ohta\Ohta.cpp
;	COMDAT ?MakeKen@@YAPAUaction@@XZ
_TEXT	SEGMENT
?MakeKen@@YAPAUaction@@XZ PROC				; MakeKen, COMDAT

; 853  : 	ACTION *pAct;
; 854  : 	
; 855  : 	/* ã‚¢ã‚¯ã‚·ãƒ§ãƒ³ãƒªã‚¹ãƒˆã«ç™»éŒ² */
; 856  : 	pAct = GetAction( PRIO_BG, NULL );

  00000	6a 00		 push	 0
  00002	6a 02		 push	 2
  00004	e8 00 00 00 00	 call	 ?GetAction@@YAPAUaction@@EI@Z ; GetAction
  00009	83 c4 08	 add	 esp, 8

; 857  : 	if( pAct == NULL ) return NULL;

  0000c	85 c0		 test	 eax, eax
  0000e	75 01		 jne	 SHORT $LN2@MakeKen

; 869  : 	
; 870  : 	// å–å‡ºã™åº§æ¨™
; 871  : 	//pYobi->rcX = 0;
; 872  : 	//pYobi->rcY = 480;
; 873  : 	//SetRect( &Rc[ pAct->bmpNo ], pYobi->rcX, pYobi->rcY, pYobi->rcX + 640, pYobi->rcY + 480 ); 
; 874  : 
; 875  : 	return pAct;
; 876  : }

  00010	c3		 ret	 0
$LN2@MakeKen:

; 858  : 	
; 859  : 	/* å®Ÿè¡Œé–¢æ•° */
; 860  : 	pAct->func = Ken;

  00011	c7 40 08 00 00
	00 00		 mov	 DWORD PTR [eax+8], OFFSET ?Ken@@YAXPAUaction@@@Z ; Ken

; 861  : 	
; 862  : 	/* ã‚¹ãƒ—ãƒ©ã‚¤ãƒˆç•ªå· */
; 863  : 	pAct->bmpNo = 33;

  00018	c7 80 9c 00 00
	00 21 00 00 00	 mov	 DWORD PTR [eax+156], 33	; 00000021H

; 864  : 	/* è¡¨ç¤ºå„ªå…ˆåº¦ */
; 865  : 	pAct->dispPrio = 100;

  00022	c6 40 15 64	 mov	 BYTE PTR [eax+21], 100	; 00000064H

; 866  : 	/* åˆæœŸä½ç½® */
; 867  : 	pAct->x = 100;

  00026	c7 40 18 64 00
	00 00		 mov	 DWORD PTR [eax+24], 100	; 00000064H

; 868  : 	pAct->y = 100;

  0002d	c7 40 1c 64 00
	00 00		 mov	 DWORD PTR [eax+28], 100	; 00000064H

; 869  : 	
; 870  : 	// å–å‡ºã™åº§æ¨™
; 871  : 	//pYobi->rcX = 0;
; 872  : 	//pYobi->rcY = 480;
; 873  : 	//SetRect( &Rc[ pAct->bmpNo ], pYobi->rcX, pYobi->rcY, pYobi->rcX + 640, pYobi->rcY + 480 ); 
; 874  : 
; 875  : 	return pAct;
; 876  : }

  00034	c3		 ret	 0
?MakeKen@@YAPAUaction@@XZ ENDP				; MakeKen
_TEXT	ENDS
; Function compile flags: /Ogtp
; File C:\Users\gg862\OneDrive\¹ÙÅÁ È­¸é\¸¾Äí¿Ï·á\Client Source Code1.31ÀÏº»\ohta\Ohta.cpp
;	COMDAT ?Bg@@YAXPAUaction@@@Z
_TEXT	SEGMENT
_pAct$ = 8						; size = 4
?Bg@@YAXPAUaction@@@Z PROC				; Bg, COMDAT

; 838  : {

  00000	55		 push	 ebp
  00001	8b ec		 mov	 ebp, esp

; 839  : 	// å–å‡ºã™åº§æ¨™
; 840  : 	// å–å‡ºã™åº§æ¨™
; 841  : 	//pAct->y++;
; 842  : 	//if( pAct->y >= 240 ) pAct->y = -240; 
; 843  : 	pattern( pAct, ANM_NOMAL_SPD, ANM_LOOP );		//ã‚¢ãƒ‹ãƒ¡ãƒ¼ã‚·ãƒ§ãƒ³å‡¦ç†

  00003	6a 00		 push	 0
  00005	6a 00		 push	 0
  00007	ff 75 08	 push	 DWORD PTR _pAct$[ebp]
  0000a	e8 00 00 00 00	 call	 ?pattern@@YAHPAUaction@@HH@Z ; pattern
  0000f	83 c4 0c	 add	 esp, 12			; 0000000cH

; 844  : 	//StockDispBuffer( pAct->x, pAct->y+480, 0, pAct->anim_chr_no, 0 );
; 845  : 	//StockDispBuffer( pAct->x, pAct->y, 0, pAct->anim_chr_no, 0 );
; 846  : 	//StockDispBuffer( pAct->x, pAct->y+480, 0, pAct->anim_chr_no, 0);
; 847  : }

  00012	5d		 pop	 ebp
  00013	c3		 ret	 0
?Bg@@YAXPAUaction@@@Z ENDP				; Bg
_TEXT	ENDS
; Function compile flags: /Ogtp
; File C:\Users\gg862\OneDrive\¹ÙÅÁ È­¸é\¸¾Äí¿Ï·á\Client Source Code1.31ÀÏº»\ohta\Ohta.cpp
;	COMDAT ?MakeBg@@YAPAUaction@@XZ
_TEXT	SEGMENT
?MakeBg@@YAPAUaction@@XZ PROC				; MakeBg, COMDAT

; 809  : 	ACTION *pAct;
; 810  : 	
; 811  : 	/* ã‚¢ã‚¯ã‚·ãƒ§ãƒ³ãƒªã‚¹ãƒˆã«ç™»éŒ² */
; 812  : 	pAct = GetAction( PRIO_BG, NULL );

  00000	6a 00		 push	 0
  00002	6a 02		 push	 2
  00004	e8 00 00 00 00	 call	 ?GetAction@@YAPAUaction@@EI@Z ; GetAction
  00009	83 c4 08	 add	 esp, 8

; 813  : 	if( pAct == NULL ) return NULL;

  0000c	85 c0		 test	 eax, eax
  0000e	75 01		 jne	 SHORT $LN2@MakeBg

; 827  : 
; 828  : 	// å–å‡ºã™åº§æ¨™
; 829  : 	//pYobi->rcX = 0;
; 830  : 	//pYobi->rcY = 480;
; 831  : 	//SetRect( &Rc[ pAct->bmpNo ], pYobi->rcX, pYobi->rcY, pYobi->rcX + 640, pYobi->rcY + 480 ); 
; 832  : 
; 833  : 	return pAct;
; 834  : }

  00010	c3		 ret	 0
$LN2@MakeBg:

; 814  : 	
; 815  : 	/* å®Ÿè¡Œé–¢æ•° */
; 816  : 	pAct->func = Bg;

  00011	c7 40 08 00 00
	00 00		 mov	 DWORD PTR [eax+8], OFFSET ?Bg@@YAXPAUaction@@@Z ; Bg

; 817  : 	
; 818  : 	/* ã‚¹ãƒ—ãƒ©ã‚¤ãƒˆç•ªå· */
; 819  : 	//pAct->bmpNo = 30;
; 820  : //	pAct->bmpNo = 44;
; 821  : 	pAct->anim_chr_no = 9376;

  00018	c7 80 44 01 00
	00 a0 24 00 00	 mov	 DWORD PTR [eax+324], 9376 ; 000024a0H

; 822  : 	/* è¡¨ç¤ºå„ªå…ˆåº¦ */
; 823  : 	pAct->dispPrio = 0;

  00022	c6 40 15 00	 mov	 BYTE PTR [eax+21], 0

; 824  : 	/* åˆæœŸä½ç½® */
; 825  : 	pAct->x = 320;

  00026	c7 40 18 40 01
	00 00		 mov	 DWORD PTR [eax+24], 320	; 00000140H

; 826  : 	pAct->y = 240;

  0002d	c7 40 1c f0 00
	00 00		 mov	 DWORD PTR [eax+28], 240	; 000000f0H

; 827  : 
; 828  : 	// å–å‡ºã™åº§æ¨™
; 829  : 	//pYobi->rcX = 0;
; 830  : 	//pYobi->rcY = 480;
; 831  : 	//SetRect( &Rc[ pAct->bmpNo ], pYobi->rcX, pYobi->rcY, pYobi->rcX + 640, pYobi->rcY + 480 ); 
; 832  : 
; 833  : 	return pAct;
; 834  : }

  00034	c3		 ret	 0
?MakeBg@@YAPAUaction@@XZ ENDP				; MakeBg
_TEXT	ENDS
; Function compile flags: /Ogtp
; File C:\Users\gg862\OneDrive\¹ÙÅÁ È­¸é\¸¾Äí¿Ï·á\Client Source Code1.31ÀÏº»\ohta\Ohta.cpp
;	COMDAT ?EnemyTama@@YAXPAUaction@@@Z
_TEXT	SEGMENT
_pAct$ = 8						; size = 4
?EnemyTama@@YAXPAUaction@@@Z PROC			; EnemyTama, COMDAT

; 703  : {

  00000	55		 push	 ebp
  00001	8b ec		 mov	 ebp, esp
  00003	56		 push	 esi

; 704  : 
; 705  : 	/* æ”»æ’ƒå—ã‘ãŸæ™‚ */
; 706  : 	if( pAct->damage > 0 ){

  00004	8b 75 08	 mov	 esi, DWORD PTR _pAct$[ebp]
  00007	8b 86 b0 00 00
	00		 mov	 eax, DWORD PTR [esi+176]
  0000d	85 c0		 test	 eax, eax
  0000f	7e 1d		 jle	 SHORT $LN4@EnemyTama

; 707  : 		pAct->hp -= pAct->damage;

  00011	29 46 78	 sub	 DWORD PTR [esi+120], eax

; 708  : 		if( pAct->hp <= 0 ){ 

  00014	83 7e 78 00	 cmp	 DWORD PTR [esi+120], 0
  00018	7f 0a		 jg	 SHORT $LN13@EnemyTama

; 709  : 			pAct->state = ACT_STATE_DEAD;

  0001a	c7 86 a8 00 00
	00 01 00 00 00	 mov	 DWORD PTR [esi+168], 1
$LN13@EnemyTama:

; 710  : 		}
; 711  : 		pAct->damage = 0;

  00024	c7 86 b0 00 00
	00 00 00 00 00	 mov	 DWORD PTR [esi+176], 0
$LN4@EnemyTama:

; 712  : 	}
; 713  : 
; 714  : 	/* çŠ¶æ…‹ã§åˆ†å² */
; 715  : 	switch( pAct->state ){

  0002e	8b 86 a8 00 00
	00		 mov	 eax, DWORD PTR [esi+168]
  00034	83 e8 00	 sub	 eax, 0
  00037	74 07		 je	 SHORT $LN6@EnemyTama
  00039	83 e8 01	 sub	 eax, 1
  0003c	74 2f		 je	 SHORT $LN14@EnemyTama
  0003e	eb 36		 jmp	 SHORT $LN9@EnemyTama
$LN6@EnemyTama:

; 716  : 		/* é€šå¸¸æ™‚ */
; 717  : 		case ACT_STATE_ACT:
; 718  : 			
; 719  : 			// ãƒžã‚¦ã‚¹ã‚«ãƒ¼ã‚½ãƒ«ãŒãƒ’ãƒƒãƒˆã—ã¦ã„ãŸã‚‰
; 720  : 			if( pAct->hitDispNo == HitDispNo ){

  00040	8b 46 20	 mov	 eax, DWORD PTR [esi+32]
  00043	3b 05 00 00 00
	00		 cmp	 eax, DWORD PTR ?HitDispNo@@3HA ; HitDispNo
  00049	75 2b		 jne	 SHORT $LN9@EnemyTama

; 721  : 				// å·¦ã‚¯ãƒªãƒƒã‚¯ãŒæŠ¼ã•ã‚Œã¦ã„ã‚‹æ™‚
; 722  : 				if( mouse.state & MOUSE_LEFT_CRICK ){

  0004b	a1 28 00 00 00	 mov	 eax, DWORD PTR ?mouse@@3UMOUSE@@A+40
  00050	a8 01		 test	 al, 1
  00052	74 15		 je	 SHORT $LN8@EnemyTama

; 723  : 					// ãƒ‰ãƒ©ãƒƒã‚°ç§»å‹•
; 724  : 					pAct->x = mouse.nowPoint.x;

  00054	a1 00 00 00 00	 mov	 eax, DWORD PTR ?mouse@@3UMOUSE@@A
  00059	89 46 18	 mov	 DWORD PTR [esi+24], eax

; 725  : 					pAct->y = mouse.nowPoint.y;

  0005c	a1 04 00 00 00	 mov	 eax, DWORD PTR ?mouse@@3UMOUSE@@A+4
  00061	89 46 1c	 mov	 DWORD PTR [esi+28], eax
  00064	a1 28 00 00 00	 mov	 eax, DWORD PTR ?mouse@@3UMOUSE@@A+40
$LN8@EnemyTama:

; 726  : 				}
; 727  : 				// å·¦ã‚¯ãƒªãƒƒã‚¯ãŒæŠ¼ã•ã‚Œã¦ã„ã‚‹æ™‚
; 728  : 				if( mouse.state & MOUSE_RIGHT_CRICK ){

  00069	a8 02		 test	 al, 2
  0006b	74 09		 je	 SHORT $LN9@EnemyTama
$LN14@EnemyTama:

; 729  : 					// ãƒ‰ãƒ©ãƒƒã‚°ç§»å‹•
; 730  : 					DeathAction( pAct );

  0006d	56		 push	 esi
  0006e	e8 00 00 00 00	 call	 ?DeathAction@@YAXPAUaction@@@Z ; DeathAction
  00073	83 c4 04	 add	 esp, 4
$LN9@EnemyTama:

; 731  : 				}
; 732  : 				
; 733  : 			}	
; 734  : 			/* ç§»å‹• */
; 735  : 			//pAct->x += pAct->dx;
; 736  : 			//pAct->y += pAct->dy;
; 737  : 			//gemini( pAct );		//ç§»å‹•
; 738  : #if 0	
; 739  : 			/* ãƒªãƒŸãƒƒãƒˆ */
; 740  : 			if(	pAct->y <= 0 ){
; 741  : 				pAct->y = 0;
; 742  : 				DeathAction( pAct );
; 743  : 			}else
; 744  : 			if(	pAct->y >= 481 ){ 
; 745  : 				DeathAction( pAct );
; 746  : 			}
; 747  : 			if(	pAct->x <= -8 ){
; 748  : 				DeathAction( pAct );
; 749  : 			}else
; 750  : 			if( 640 <= pAct->x ){ 
; 751  : 				DeathAction( pAct );
; 752  : 			}
; 753  : #endif			
; 754  : 			break;
; 755  : 		
; 756  : 		/* æ­»äº¡æ™‚ */	
; 757  : 		case ACT_STATE_DEAD:
; 758  : 		
; 759  : 			DeathAction( pAct );
; 760  : 			
; 761  : 			break;
; 762  : 	}
; 763  : 	// ç§»å‹•æ–¹å‘	
; 764  : 	radar2( pAct, pJiki->x, pJiki->y, Rnd( 0, 10 ) );

  00076	6a 0a		 push	 10			; 0000000aH
  00078	6a 00		 push	 0
  0007a	e8 00 00 00 00	 call	 ?Rnd@@YAHHH@Z		; Rnd
  0007f	50		 push	 eax
  00080	a1 00 00 00 00	 mov	 eax, DWORD PTR ?pJiki@@3PAUaction@@A ; pJiki
  00085	ff 70 1c	 push	 DWORD PTR [eax+28]
  00088	ff 70 18	 push	 DWORD PTR [eax+24]
  0008b	56		 push	 esi
  0008c	e8 00 00 00 00	 call	 ?radar2@@YAHPAUaction@@HHH@Z ; radar2

; 765  : 	// ã‚¢ãƒ‹ãƒ¡ãƒ¼ã‚·ãƒ§ãƒ³
; 766  : 	pattern( pAct, ANM_NOMAL_SPD, ANM_LOOP );

  00091	6a 00		 push	 0
  00093	6a 00		 push	 0
  00095	56		 push	 esi
  00096	e8 00 00 00 00	 call	 ?pattern@@YAHPAUaction@@HH@Z ; pattern
  0009b	83 c4 24	 add	 esp, 36			; 00000024H
  0009e	5e		 pop	 esi

; 767  : }

  0009f	5d		 pop	 ebp
  000a0	c3		 ret	 0
?EnemyTama@@YAXPAUaction@@@Z ENDP			; EnemyTama
_TEXT	ENDS
; Function compile flags: /Ogtp
; File C:\Users\gg862\OneDrive\¹ÙÅÁ È­¸é\¸¾Äí¿Ï·á\Client Source Code1.31ÀÏº»\ohta\Ohta.cpp
;	COMDAT ?MakeEnemyTama@@YAPAUaction@@PAU1@@Z
_TEXT	SEGMENT
_pOya$ = 8						; size = 4
?MakeEnemyTama@@YAPAUaction@@PAU1@@Z PROC		; MakeEnemyTama, COMDAT

; 664  : {

  00000	56		 push	 esi

; 665  : 	ACTION *pAct;
; 666  : 	//float dir;
; 667  : 	
; 668  : 	/* ã‚¢ã‚¯ã‚·ãƒ§ãƒ³ãƒªã‚¹ãƒˆã«ç™»éŒ² */
; 669  : 	pAct = GetAction( PRIO_ENEMY_TAMA, 0 );

  00001	6a 00		 push	 0
  00003	6a 05		 push	 5
  00005	e8 00 00 00 00	 call	 ?GetAction@@YAPAUaction@@EI@Z ; GetAction
  0000a	8b f0		 mov	 esi, eax
  0000c	83 c4 08	 add	 esp, 8

; 670  : 	if( pAct == NULL ) return NULL;

  0000f	85 f6		 test	 esi, esi
  00011	75 02		 jne	 SHORT $LN2@MakeEnemyT
  00013	5e		 pop	 esi

; 699  : }

  00014	c3		 ret	 0
$LN2@MakeEnemyT:

; 671  : 	
; 672  : 	/* å®Ÿè¡Œé–¢æ•° */
; 673  : 	pAct->func = EnemyTama;
; 674  : 	/* ã‚¹ãƒ—ãƒ©ã‚¤ãƒˆç•ªå· */
; 675  : 	pAct->anim_chr_no = Rnd( 31554, 31556 );		//ã‚¹ãƒ©ã‚¤ãƒ 

  00015	68 44 7b 00 00	 push	 31556			; 00007b44H
  0001a	68 42 7b 00 00	 push	 31554			; 00007b42H
  0001f	c7 46 08 00 00
	00 00		 mov	 DWORD PTR [esi+8], OFFSET ?EnemyTama@@YAXPAUaction@@@Z ; EnemyTama
  00026	e8 00 00 00 00	 call	 ?Rnd@@YAHHH@Z		; Rnd

; 676  : 	// å½“ãŸã‚Šåˆ¤å®š + ãƒœãƒƒã‚¯ã‚¹è¡¨ç¤º
; 677  : 	pAct->atr |= ACT_ATR_HIT_BOX;

  0002b	83 8e a4 00 00
	00 08		 or	 DWORD PTR [esi+164], 8

; 678  : 	//pAct->anim_no = Rnd( ANIM_ATTACK, ANIM_SATTACK );
; 679  : 	//pAct->anim_no = ANIM_ATTACK;
; 680  : 	pAct->anim_no = ANIM_WALK;
; 681  : 	/* è¡¨ç¤ºå„ªå…ˆåº¦ */
; 682  : 	pAct->dispPrio = DISP_PRIO_JIKI;
; 683  : 	/* ï¼¨ï¼° */
; 684  : 	pAct->hp = 0;
; 685  : 	/* åˆæœŸä½ç½® */
; 686  : 	//pAct->x = pOya->x + 16;
; 687  : 	//pAct->y = pOya->y + 32 ;
; 688  : 	pAct->x = Rnd( 100, 500 );

  00032	68 f4 01 00 00	 push	 500			; 000001f4H
  00037	6a 64		 push	 100			; 00000064H
  00039	89 86 44 01 00
	00		 mov	 DWORD PTR [esi+324], eax
  0003f	c7 86 4c 01 00
	00 04 00 00 00	 mov	 DWORD PTR [esi+332], 4
  00049	c6 46 15 1e	 mov	 BYTE PTR [esi+21], 30	; 0000001eH
  0004d	c7 46 78 00 00
	00 00		 mov	 DWORD PTR [esi+120], 0
  00054	e8 00 00 00 00	 call	 ?Rnd@@YAHHH@Z		; Rnd

; 689  : 	pAct->y = Rnd( 100, 400 );

  00059	68 90 01 00 00	 push	 400			; 00000190H
  0005e	6a 64		 push	 100			; 00000064H
  00060	89 46 18	 mov	 DWORD PTR [esi+24], eax
  00063	e8 00 00 00 00	 call	 ?Rnd@@YAHHH@Z		; Rnd
  00068	89 46 1c	 mov	 DWORD PTR [esi+28], eax

; 690  : 	
; 691  : 	// ç§»å‹•æ–¹å‘	
; 692  : 	radar2( pAct, pJiki->x, pJiki->y, 1 );

  0006b	a1 00 00 00 00	 mov	 eax, DWORD PTR ?pJiki@@3PAUaction@@A ; pJiki
  00070	6a 01		 push	 1
  00072	ff 70 1c	 push	 DWORD PTR [eax+28]
  00075	ff 70 18	 push	 DWORD PTR [eax+24]
  00078	56		 push	 esi
  00079	e8 00 00 00 00	 call	 ?radar2@@YAHPAUaction@@HHH@Z ; radar2

; 693  : 	//ç§»å‹•é€Ÿåº¦
; 694  : 	pAct->spd = 16;			
; 695  : 	
; 696  : 	// ã‚¢ãƒ‹ãƒ¡ãƒ¼ã‚·ãƒ§ãƒ³
; 697  : 	pattern( pAct, ANM_NOMAL_SPD, ANM_LOOP );

  0007e	6a 00		 push	 0
  00080	6a 00		 push	 0
  00082	56		 push	 esi
  00083	c7 86 34 01 00
	00 10 00 00 00	 mov	 DWORD PTR [esi+308], 16	; 00000010H
  0008d	e8 00 00 00 00	 call	 ?pattern@@YAHPAUaction@@HH@Z ; pattern
  00092	83 c4 34	 add	 esp, 52			; 00000034H

; 698  : 	return pAct;

  00095	8b c6		 mov	 eax, esi
  00097	5e		 pop	 esi

; 699  : }

  00098	c3		 ret	 0
?MakeEnemyTama@@YAPAUaction@@PAU1@@Z ENDP		; MakeEnemyTama
_TEXT	ENDS
; Function compile flags: /Ogtp
; File C:\Users\gg862\OneDrive\¹ÙÅÁ È­¸é\¸¾Äí¿Ï·á\Client Source Code1.31ÀÏº»\ohta\Ohta.cpp
;	COMDAT ?Enemy@@YAXPAUaction@@@Z
_TEXT	SEGMENT
_d2$1 = -4						; size = 4
_d1$2 = 8						; size = 4
_pAct$ = 8						; size = 4
?Enemy@@YAXPAUaction@@@Z PROC				; Enemy, COMDAT

; 536  : {

  00000	55		 push	 ebp
  00001	8b ec		 mov	 ebp, esp
  00003	51		 push	 ecx
  00004	56		 push	 esi

; 537  : 	ENEMY *pYobi = ( ENEMY *)pAct->pYobi;

  00005	8b 75 08	 mov	 esi, DWORD PTR _pAct$[ebp]

; 538  : 
; 539  : 	/* æ”»æ’ƒå—ã‘ãŸæ™‚ */
; 540  : 	if( pAct->damage > 0 ){

  00008	8b 86 b0 00 00
	00		 mov	 eax, DWORD PTR [esi+176]
  0000e	8b 4e 0c	 mov	 ecx, DWORD PTR [esi+12]
  00011	85 c0		 test	 eax, eax
  00013	7e 31		 jle	 SHORT $LN4@Enemy

; 541  : 		pAct->hp -= pAct->damage;

  00015	29 46 78	 sub	 DWORD PTR [esi+120], eax

; 542  : 		if( pAct->hp <= 0 ){ 

  00018	83 7e 78 00	 cmp	 DWORD PTR [esi+120], 0
  0001c	7f 1e		 jg	 SHORT $LN21@Enemy

; 543  : 			pAct->state = ACT_STATE_DEAD;

  0001e	c7 86 a8 00 00
	00 01 00 00 00	 mov	 DWORD PTR [esi+168], 1

; 544  : 			pYobi->cnt  = 0;

  00028	c7 01 00 00 00
	00		 mov	 DWORD PTR [ecx], 0

; 545  : 			pYobi->cnt2 = 0;

  0002e	c7 41 04 00 00
	00 00		 mov	 DWORD PTR [ecx+4], 0

; 546  : 			pYobi->cnt3 = 0;

  00035	c7 41 08 00 00
	00 00		 mov	 DWORD PTR [ecx+8], 0
$LN21@Enemy:

; 547  : 		}
; 548  : 		pAct->damage = 0;

  0003c	c7 86 b0 00 00
	00 00 00 00 00	 mov	 DWORD PTR [esi+176], 0
$LN4@Enemy:

; 549  : 	}
; 550  : 
; 551  : 	/* çŠ¶æ…‹ã§åˆ†å² */
; 552  : 	switch( pAct->state ){

  00046	8b 86 a8 00 00
	00		 mov	 eax, DWORD PTR [esi+168]
  0004c	83 e8 00	 sub	 eax, 0
  0004f	74 5f		 je	 SHORT $LN6@Enemy
  00051	83 e8 01	 sub	 eax, 1
  00054	0f 85 65 01 00
	00		 jne	 $LN13@Enemy

; 611  : 					}
; 612  : 				}
; 613  : 			}
; 614  : 			// ã‚¢ãƒ‹ãƒ¡ãƒ¼ã‚·ãƒ§ãƒ³
; 615  : /*			pYobi->cnt3 += pAct->dy;
; 616  : 			if( pYobi->cnt3 >= 20 ){ 
; 617  : 				pYobi->cnt3 = 0;
; 618  : 				pYobi->animCnt = pYobi->animCnt * ( -2 ) + 1;
; 619  : 				pAct->bmpNo += pYobi->animCnt;
; 620  : 			}
; 621  : */
; 622  : /*			
; 623  : 			pAct->cnt++;
; 624  : 			if( pAct->cnt >= 300 ){
; 625  : 				pAct->state = ACT_STATE_DEAD;
; 626  : 				pAct->cnt = 0;
; 627  : 			}
; 628  : */			
; 629  : 			//if( Rnd( 0, 300 ) == 0 ) MakeEnemyTama( pAct );
; 630  : 			//MakeEnemyTama( pAct );
; 631  : 			
; 632  : 			break;
; 633  : 		
; 634  : 		/* æ­»äº¡æ™‚ */	
; 635  : 		case ACT_STATE_DEAD:
; 636  : 		
; 637  : 			if( pYobi->cnt == 0 ){ 

  0005a	8b 01		 mov	 eax, DWORD PTR [ecx]
  0005c	85 c0		 test	 eax, eax
  0005e	75 16		 jne	 SHORT $LN16@Enemy

; 638  : 				pAct->bmpNo = bomData[ 0 ];

  00060	a1 00 00 00 00	 mov	 eax, DWORD PTR ?bomData@@3PAHA
  00065	89 86 9c 00 00
	00		 mov	 DWORD PTR [esi+156], eax

; 639  : 				pYobi->cnt = 1;

  0006b	b8 01 00 00 00	 mov	 eax, 1
  00070	c7 01 01 00 00
	00		 mov	 DWORD PTR [ecx], 1
$LN16@Enemy:

; 640  : 			}
; 641  : 			/* çˆ†ç™ºã‚¢ãƒ‹ãƒ¡ãƒ¼ã‚·ãƒ§ãƒ³ */
; 642  : 			pYobi->cnt2++;

  00076	ff 41 04	 inc	 DWORD PTR [ecx+4]

; 643  : 			if( pYobi->cnt2 >= 5 ){

  00079	83 79 04 05	 cmp	 DWORD PTR [ecx+4], 5
  0007d	0f 8c 3c 01 00
	00		 jl	 $LN13@Enemy

; 644  : 				pAct->bmpNo = bomData[ pYobi->cnt ];

  00083	8b 04 85 00 00
	00 00		 mov	 eax, DWORD PTR ?bomData@@3PAHA[eax*4]
  0008a	89 86 9c 00 00
	00		 mov	 DWORD PTR [esi+156], eax

; 645  : 				pYobi->cnt++;

  00090	ff 01		 inc	 DWORD PTR [ecx]

; 646  : 				pYobi->cnt2 = 0;
; 647  : 				/* çµ‚ã‚ã£ãŸã‚‰æ­»ã¬ */
; 648  : 				if( pYobi->cnt == 6 ){

  00092	83 39 06	 cmp	 DWORD PTR [ecx], 6
  00095	c7 41 04 00 00
	00 00		 mov	 DWORD PTR [ecx+4], 0
  0009c	0f 85 1d 01 00
	00		 jne	 $LN13@Enemy

; 649  : 					DeathAction( pAct );

  000a2	56		 push	 esi
  000a3	e8 00 00 00 00	 call	 ?DeathAction@@YAXPAUaction@@@Z ; DeathAction
  000a8	83 c4 04	 add	 esp, 4
  000ab	5e		 pop	 esi

; 650  : 				}
; 651  : 			}
; 652  : 			
; 653  : 			break;
; 654  : 	}
; 655  : 
; 656  : }

  000ac	8b e5		 mov	 esp, ebp
  000ae	5d		 pop	 ebp
  000af	c3		 ret	 0
$LN6@Enemy:

; 553  : 		/* é€šå¸¸æ™‚ */
; 554  : 		case ACT_STATE_ACT:
; 555  : 		
; 556  : 			/* ç§»å‹• */
; 557  : //			pAct->x += pAct->dx;
; 558  : //			pAct->y += pAct->dy;
; 559  : 
; 560  : 			/* ãƒªãƒŸãƒƒãƒˆãƒã‚§ãƒƒã‚¯ */
; 561  : //			if( pAct->x < 0 ){ 
; 562  : //				pAct->x = 0;
; 563  : //				pAct->dx *= -1;
; 564  : //			}
; 565  : //			else
; 566  : //			if( pAct->x > 608 ){ 
; 567  : //				pAct->x = 608;
; 568  : //				pAct->dx *= -1;
; 569  : //			}
; 570  : //			if( pAct->y > 480 ){ 
; 571  : //				pAct->y = -32;
; 572  : //			}
; 573  : 
; 574  : 			pAct->dx++;		//ï¼’å‰²ã‚Šè¾¼ã¿ã«ï¼‘å›žã‚¹ãƒ”ãƒ¼ãƒ‰å¤‰æ›´ã™ã‚‹

  000b0	8b 46 28	 mov	 eax, DWORD PTR [esi+40]
  000b3	48		 dec	 eax

; 575  : 			pAct->dx&=1;	//

  000b4	83 e0 01	 and	 eax, 1

; 576  : 			gemini(pAct);		//ç§»å‹•

  000b7	56		 push	 esi
  000b8	89 46 28	 mov	 DWORD PTR [esi+40], eax
  000bb	e8 00 00 00 00	 call	 ?gemini@@YAXPAUaction@@@Z ; gemini
  000c0	83 c4 04	 add	 esp, 4

; 577  : 			if(ATR_CRS(pAct)==0){		//ä¸Šç§»å‹•ä¸­ãªã‚‰

  000c3	83 be 38 01 00
	00 00		 cmp	 DWORD PTR [esi+312], 0
  000ca	75 4b		 jne	 SHORT $LN7@Enemy

; 578  : 				if( pAct->y < -32 ){			//ä¸Šç«¯ãªã‚‰

  000cc	83 7e 1c e0	 cmp	 DWORD PTR [esi+28], -32	; ffffffe0H
  000d0	7d 30		 jge	 SHORT $LN9@Enemy

; 579  : 					ATR_CRS(pAct)=16;			//ä¸‹ç§»å‹•é–‹å§‹
; 580  : 					ATR_SPD(pAct) = Rnd( 28, 36 );

  000d2	6a 24		 push	 36			; 00000024H
  000d4	6a 1c		 push	 28			; 0000001cH
  000d6	c7 86 38 01 00
	00 10 00 00 00	 mov	 DWORD PTR [esi+312], 16	; 00000010H
  000e0	e8 00 00 00 00	 call	 ?Rnd@@YAHHH@Z		; Rnd

; 581  : 					pAct->x = Rnd( 0, 640 );	//

  000e5	68 80 02 00 00	 push	 640			; 00000280H
  000ea	6a 00		 push	 0
  000ec	89 86 34 01 00
	00		 mov	 DWORD PTR [esi+308], eax
  000f2	e8 00 00 00 00	 call	 ?Rnd@@YAHHH@Z		; Rnd
  000f7	83 c4 10	 add	 esp, 16			; 00000010H
  000fa	89 46 18	 mov	 DWORD PTR [esi+24], eax
  000fd	5e		 pop	 esi

; 650  : 				}
; 651  : 			}
; 652  : 			
; 653  : 			break;
; 654  : 	}
; 655  : 
; 656  : }

  000fe	8b e5		 mov	 esp, ebp
  00100	5d		 pop	 ebp
  00101	c3		 ret	 0
$LN9@Enemy:

; 582  : 				} else {
; 583  : 					if(pAct->dx)

  00102	83 7e 28 00	 cmp	 DWORD PTR [esi+40], 0
  00106	0f 84 b3 00 00
	00		 je	 $LN13@Enemy

; 584  : 						ATR_SPD(pAct)++;		//ã‚¹ãƒ”ãƒ¼ãƒ‰ã‚¢ãƒƒãƒ—

  0010c	ff 86 34 01 00
	00		 inc	 DWORD PTR [esi+308]
  00112	5e		 pop	 esi

; 650  : 				}
; 651  : 			}
; 652  : 			
; 653  : 			break;
; 654  : 	}
; 655  : 
; 656  : }

  00113	8b e5		 mov	 esp, ebp
  00115	5d		 pop	 ebp
  00116	c3		 ret	 0
$LN7@Enemy:

; 585  : 				}
; 586  : 			} else {
; 587  : 				if(pAct->dx){

  00117	83 7e 28 00	 cmp	 DWORD PTR [esi+40], 0
  0011b	0f 84 9e 00 00
	00		 je	 $LN13@Enemy

; 588  : 					ATR_SPD(pAct)--;		//ã‚¹ãƒ”ãƒ¼ãƒ‰ãƒ€ã‚¦ãƒ³

  00121	83 86 34 01 00
	00 ff		 add	 DWORD PTR [esi+308], -1

; 589  : 					if(!ATR_SPD(pAct)){		//åœæ­¢ã—ãŸãªã‚‰

  00128	0f 85 91 00 00
	00		 jne	 $LN13@Enemy

; 590  : 						ATR_CRS(pAct)=0;		//ä¸Šç§»å‹•é–‹å§‹

  0012e	57		 push	 edi

; 591  : 						ACTION *a1;		//ãƒŸã‚µã‚¤ãƒ«ç™ºå°„
; 592  : 						int d1,d2;
; 593  : 						/* ã‚¢ã‚¯ã‚·ãƒ§ãƒ³ãƒªã‚¹ãƒˆã«ç™»éŒ² */
; 594  : 						a1 = GetAction( PRIO_ENEMY_TAMA, 0 );

  0012f	6a 00		 push	 0
  00131	6a 05		 push	 5
  00133	c7 86 38 01 00
	00 00 00 00 00	 mov	 DWORD PTR [esi+312], 0
  0013d	e8 00 00 00 00	 call	 ?GetAction@@YAPAUaction@@EI@Z ; GetAction
  00142	8b f8		 mov	 edi, eax
  00144	83 c4 08	 add	 esp, 8

; 595  : 						if( a1 == NULL ) break;

  00147	85 ff		 test	 edi, edi
  00149	74 73		 je	 SHORT $LN22@Enemy

; 596  : 						/* å®Ÿè¡Œé–¢æ•° */
; 597  : 						a1->func = enemy_missile;
; 598  : 						/* ã‚¹ãƒ—ãƒ©ã‚¤ãƒˆç•ªå· */
; 599  : 						a1->bmpNo = No++;

  0014b	8b 0d 00 00 00
	00		 mov	 ecx, DWORD PTR ?No@@3HA
  00151	89 8f 9c 00 00
	00		 mov	 DWORD PTR [edi+156], ecx
  00157	41		 inc	 ecx
  00158	c7 47 08 00 00
	00 00		 mov	 DWORD PTR [edi+8], OFFSET ?enemy_missile@@YAXPAUaction@@@Z ; enemy_missile

; 600  : 						/* è¡¨ç¤ºå„ªå…ˆåº¦ */
; 601  : 						a1->dispPrio = 3;

  0015f	c6 47 15 03	 mov	 BYTE PTR [edi+21], 3

; 602  : 						/* åˆæœŸä½ç½® */
; 603  : 						ATR_H_POS(a1) = ATR_H_POS(pAct)+16;

  00163	8b 46 18	 mov	 eax, DWORD PTR [esi+24]
  00166	83 c0 10	 add	 eax, 16			; 00000010H
  00169	89 0d 00 00 00
	00		 mov	 DWORD PTR ?No@@3HA, ecx
  0016f	89 47 18	 mov	 DWORD PTR [edi+24], eax

; 604  : 						ATR_V_POS(a1) = ATR_V_POS(pAct)+16;

  00172	8b 46 1c	 mov	 eax, DWORD PTR [esi+28]
  00175	83 c0 10	 add	 eax, 16			; 00000010H
  00178	89 47 1c	 mov	 DWORD PTR [edi+28], eax

; 605  : 						d1 = pJiki->x;			//è‡ªæ©Ÿã®æ–¹å‘ã‚»ãƒƒãƒˆ

  0017b	8b 0d 00 00 00
	00		 mov	 ecx, DWORD PTR ?pJiki@@3PAUaction@@A ; pJiki
  00181	8b 41 18	 mov	 eax, DWORD PTR [ecx+24]
  00184	89 45 08	 mov	 DWORD PTR _d1$2[ebp], eax

; 606  : 						d2 = pJiki->y;			//

  00187	8b 41 1c	 mov	 eax, DWORD PTR [ecx+28]
  0018a	89 45 fc	 mov	 DWORD PTR _d2$1[ebp], eax

; 607  : 						radar(a1, &d1, &d2);	//

  0018d	8d 45 fc	 lea	 eax, DWORD PTR _d2$1[ebp]
  00190	50		 push	 eax
  00191	8d 45 08	 lea	 eax, DWORD PTR _d1$2[ebp]
  00194	50		 push	 eax
  00195	57		 push	 edi
  00196	e8 00 00 00 00	 call	 ?radar@@YAXPAUaction@@PAH1@Z ; radar

; 608  : 						ATR_CRS(a1)=d1;			//
; 609  : 						ATR_SPD(a1)=16;			//ç§»å‹•é€Ÿåº¦
; 610  : 						play_se( 2, ATR_H_POS(a1), ATR_V_POS(a1) );		//ãƒŸã‚µã‚¤ãƒ«ç™ºå°„éŸ³

  0019b	ff 77 1c	 push	 DWORD PTR [edi+28]
  0019e	8b 45 08	 mov	 eax, DWORD PTR _d1$2[ebp]
  001a1	ff 77 18	 push	 DWORD PTR [edi+24]
  001a4	89 87 38 01 00
	00		 mov	 DWORD PTR [edi+312], eax
  001aa	6a 02		 push	 2
  001ac	c7 87 34 01 00
	00 10 00 00 00	 mov	 DWORD PTR [edi+308], 16	; 00000010H
  001b6	e8 00 00 00 00	 call	 ?play_se@@YAHHHH@Z	; play_se
  001bb	83 c4 18	 add	 esp, 24			; 00000018H
$LN22@Enemy:
  001be	5f		 pop	 edi
$LN13@Enemy:
  001bf	5e		 pop	 esi

; 650  : 				}
; 651  : 			}
; 652  : 			
; 653  : 			break;
; 654  : 	}
; 655  : 
; 656  : }

  001c0	8b e5		 mov	 esp, ebp
  001c2	5d		 pop	 ebp
  001c3	c3		 ret	 0
?Enemy@@YAXPAUaction@@@Z ENDP				; Enemy
_TEXT	ENDS
; Function compile flags: /Ogtp
; File C:\Users\gg862\OneDrive\¹ÙÅÁ È­¸é\¸¾Äí¿Ï·á\Client Source Code1.31ÀÏº»\ohta\Ohta.cpp
;	COMDAT ?MakeEnemy@@YAPAUaction@@XZ
_TEXT	SEGMENT
_bmpTbl$ = -16						; size = 12
__$ArrayPad$ = -4					; size = 4
?MakeEnemy@@YAPAUaction@@XZ PROC			; MakeEnemy, COMDAT

; 489  : {

  00000	55		 push	 ebp
  00001	8b ec		 mov	 ebp, esp
  00003	83 ec 10	 sub	 esp, 16			; 00000010H
  00006	a1 00 00 00 00	 mov	 eax, DWORD PTR ___security_cookie
  0000b	33 c5		 xor	 eax, ebp
  0000d	89 45 fc	 mov	 DWORD PTR __$ArrayPad$[ebp], eax
  00010	56		 push	 esi

; 490  : 	ACTION *pAct;
; 491  : 	ENEMY *pYobi;
; 492  : 	short bmpTbl[] = { 1, 3, 5, 7, 9, 29 };
; 493  : 	
; 494  : 	/* ã‚¢ã‚¯ã‚·ãƒ§ãƒ³ãƒªã‚¹ãƒˆã«ç™»éŒ² */
; 495  : 	pAct = GetAction( PRIO_ENEMY, sizeof( ENEMY ) );

  00011	6a 10		 push	 16			; 00000010H
  00013	6a 04		 push	 4
  00015	c7 45 f0 01 00
	03 00		 mov	 DWORD PTR _bmpTbl$[ebp], 196609 ; 00030001H
  0001c	c7 45 f4 05 00
	07 00		 mov	 DWORD PTR _bmpTbl$[ebp+4], 458757 ; 00070005H
  00023	c7 45 f8 09 00
	1d 00		 mov	 DWORD PTR _bmpTbl$[ebp+8], 1900553 ; 001d0009H
  0002a	e8 00 00 00 00	 call	 ?GetAction@@YAPAUaction@@EI@Z ; GetAction
  0002f	8b f0		 mov	 esi, eax
  00031	83 c4 08	 add	 esp, 8

; 496  : 	if( pAct == NULL ) return NULL;

  00034	85 f6		 test	 esi, esi
  00036	75 0f		 jne	 SHORT $LN2@MakeEnemy
  00038	5e		 pop	 esi

; 521  : 	
; 522  : 	return pAct;
; 523  : }

  00039	8b 4d fc	 mov	 ecx, DWORD PTR __$ArrayPad$[ebp]
  0003c	33 cd		 xor	 ecx, ebp
  0003e	e8 00 00 00 00	 call	 @__security_check_cookie@4
  00043	8b e5		 mov	 esp, ebp
  00045	5d		 pop	 ebp
  00046	c3		 ret	 0
$LN2@MakeEnemy:

; 497  : 	
; 498  : 	/* äºˆå‚™æ§‹é€ ä½“ã®ã‚¢ãƒ‰ãƒ¬ã‚¹ */
; 499  : 	pYobi = ( ENEMY *)pAct->pYobi;
; 500  : 	
; 501  : 	/* å®Ÿè¡Œé–¢æ•° */
; 502  : 	pAct->func = Enemy;
; 503  : 	/* ã‚¹ãƒ—ãƒ©ã‚¤ãƒˆç•ªå· */
; 504  : 	pAct->bmpNo = bmpTbl[ ( int )Rnd( 0, 4 ) ];

  00047	6a 04		 push	 4
  00049	6a 00		 push	 0
  0004b	c7 46 08 00 00
	00 00		 mov	 DWORD PTR [esi+8], OFFSET ?Enemy@@YAXPAUaction@@@Z ; Enemy
  00052	e8 00 00 00 00	 call	 ?Rnd@@YAHHH@Z		; Rnd

; 505  : 	//pAct->bmpNo = Rnd( 1, 10 );
; 506  : 	/* è¡¨ç¤ºå„ªå…ˆåº¦ */
; 507  : 	pAct->dispPrio = 1;
; 508  : 	/* ï¼¨ï¼° */
; 509  :     pAct->hp = 10;//Rnd( 10, 50 );
; 510  : 	/* åˆæœŸä½ç½®ãƒ©ãƒ³ãƒ€ãƒ  */
; 511  : //	pAct->x = Rnd( 0, 608 );
; 512  : 	pAct->x = Rnd( 0, 640 );

  00057	68 80 02 00 00	 push	 640			; 00000280H
  0005c	6a 00		 push	 0
  0005e	c6 46 15 01	 mov	 BYTE PTR [esi+21], 1
  00062	0f bf 44 45 f0	 movsx	 eax, WORD PTR _bmpTbl$[ebp+eax*2]
  00067	89 86 9c 00 00
	00		 mov	 DWORD PTR [esi+156], eax
  0006d	c7 46 78 0a 00
	00 00		 mov	 DWORD PTR [esi+120], 10	; 0000000aH
  00074	e8 00 00 00 00	 call	 ?Rnd@@YAHHH@Z		; Rnd

; 513  : 	ATR_CRS(pAct) = 16;
; 514  : 	ATR_SPD(pAct) = Rnd( 28, 36 );

  00079	6a 24		 push	 36			; 00000024H
  0007b	6a 1c		 push	 28			; 0000001cH
  0007d	89 46 18	 mov	 DWORD PTR [esi+24], eax
  00080	c7 86 38 01 00
	00 10 00 00 00	 mov	 DWORD PTR [esi+312], 16	; 00000010H
  0008a	e8 00 00 00 00	 call	 ?Rnd@@YAHHH@Z		; Rnd

; 515  : 	pAct->dx = 0;
; 516  : 
; 517  : 	pAct->y = 0;
; 518  : 	/* å¢—åˆ†ãƒ©ãƒ³ãƒ€ãƒ  */
; 519  : 	pAct->dx = Rnd( -3, 3 );

  0008f	6a 03		 push	 3
  00091	6a fd		 push	 -3			; fffffffdH
  00093	89 86 34 01 00
	00		 mov	 DWORD PTR [esi+308], eax
  00099	c7 46 28 00 00
	00 00		 mov	 DWORD PTR [esi+40], 0
  000a0	c7 46 1c 00 00
	00 00		 mov	 DWORD PTR [esi+28], 0
  000a7	e8 00 00 00 00	 call	 ?Rnd@@YAHHH@Z		; Rnd

; 520  : 	pAct->dy = Rnd( 1, 3 );

  000ac	6a 03		 push	 3
  000ae	6a 01		 push	 1
  000b0	89 46 28	 mov	 DWORD PTR [esi+40], eax
  000b3	e8 00 00 00 00	 call	 ?Rnd@@YAHHH@Z		; Rnd

; 521  : 	
; 522  : 	return pAct;
; 523  : }

  000b8	8b 4d fc	 mov	 ecx, DWORD PTR __$ArrayPad$[ebp]
  000bb	83 c4 28	 add	 esp, 40			; 00000028H
  000be	89 46 2c	 mov	 DWORD PTR [esi+44], eax
  000c1	33 cd		 xor	 ecx, ebp
  000c3	8b c6		 mov	 eax, esi
  000c5	5e		 pop	 esi
  000c6	e8 00 00 00 00	 call	 @__security_check_cookie@4
  000cb	8b e5		 mov	 esp, ebp
  000cd	5d		 pop	 ebp
  000ce	c3		 ret	 0
?MakeEnemy@@YAPAUaction@@XZ ENDP			; MakeEnemy
_TEXT	ENDS
; Function compile flags: /Ogtp
; File C:\Users\gg862\OneDrive\¹ÙÅÁ È­¸é\¸¾Äí¿Ï·á\Client Source Code1.31ÀÏº»\ohta\Ohta.cpp
;	COMDAT ?JikiTama@@YAXPAUaction@@@Z
_TEXT	SEGMENT
_pAct$ = 8						; size = 4
?JikiTama@@YAXPAUaction@@@Z PROC			; JikiTama, COMDAT

; 419  : {

  00000	55		 push	 ebp
  00001	8b ec		 mov	 ebp, esp
  00003	56		 push	 esi

; 420  : 
; 421  : 	/* æ”»æ’ƒå—ã‘ãŸæ™‚ */
; 422  : 	if( pAct->damage > 0 ){

  00004	8b 75 08	 mov	 esi, DWORD PTR _pAct$[ebp]
  00007	8b 86 b0 00 00
	00		 mov	 eax, DWORD PTR [esi+176]
  0000d	85 c0		 test	 eax, eax
  0000f	7e 1d		 jle	 SHORT $LN4@JikiTama

; 423  : 		pAct->hp -= pAct->damage;

  00011	29 46 78	 sub	 DWORD PTR [esi+120], eax

; 424  : 		if( pAct->hp <= 0 ){ 

  00014	83 7e 78 00	 cmp	 DWORD PTR [esi+120], 0
  00018	7f 0a		 jg	 SHORT $LN16@JikiTama

; 425  : 			pAct->state = ACT_STATE_DEAD;

  0001a	c7 86 a8 00 00
	00 01 00 00 00	 mov	 DWORD PTR [esi+168], 1
$LN16@JikiTama:

; 426  : 		}
; 427  : 		pAct->damage = 0;

  00024	c7 86 b0 00 00
	00 00 00 00 00	 mov	 DWORD PTR [esi+176], 0
$LN4@JikiTama:

; 428  : 	}
; 429  : 
; 430  : 	/* çŠ¶æ…‹ã§åˆ†å² */
; 431  : 	switch( pAct->state ){

  0002e	8b 86 a8 00 00
	00		 mov	 eax, DWORD PTR [esi+168]
  00034	83 e8 00	 sub	 eax, 0
  00037	74 07		 je	 SHORT $LN6@JikiTama
  00039	83 e8 01	 sub	 eax, 1
  0003c	75 6d		 jne	 SHORT $LN12@JikiTama

; 459  : 				DeathAction( pAct );
; 460  : 			}
; 461  : 
; 462  : 			break;
; 463  : 		
; 464  : 		/* æ­»äº¡æ™‚ */	
; 465  : 		case ACT_STATE_DEAD:
; 466  : 		
; 467  : 			DeathAction( pAct );

  0003e	eb 62		 jmp	 SHORT $LN17@JikiTama
$LN6@JikiTama:

; 432  : 		/* é€šå¸¸æ™‚ */
; 433  : 		case ACT_STATE_ACT:
; 434  : 
; 435  : 			/* æ•µã¨ã®å½“ãŸã‚Šåˆ¤å®š */
; 436  : 			//Hit( pAct, PRIO_ENEMY );
; 437  : 
; 438  : 			/* ç§»å‹• */
; 439  : 			pAct->x += pAct->dx;

  00040	8b 46 28	 mov	 eax, DWORD PTR [esi+40]
  00043	01 46 18	 add	 DWORD PTR [esi+24], eax

; 440  : 			pAct->y += pAct->dy;

  00046	8b 46 2c	 mov	 eax, DWORD PTR [esi+44]
  00049	01 46 1c	 add	 DWORD PTR [esi+28], eax
  0004c	8b 46 1c	 mov	 eax, DWORD PTR [esi+28]

; 441  : 	
; 442  : 			/* ãƒªãƒŸãƒƒãƒˆ */
; 443  : 			if(	pAct->y <= -32 ){ 

  0004f	83 f8 e0	 cmp	 eax, -32		; ffffffe0H
  00052	7f 18		 jg	 SHORT $LN7@JikiTama

; 444  : 				pAct->y = -32;
; 445  : 				MakeEnemyTama( pAct );

  00054	56		 push	 esi
  00055	c7 46 1c e0 ff
	ff ff		 mov	 DWORD PTR [esi+28], -32	; ffffffe0H
  0005c	e8 00 00 00 00	 call	 ?MakeEnemyTama@@YAPAUaction@@PAU1@@Z ; MakeEnemyTama

; 446  : 				DeathAction( pAct );

  00061	56		 push	 esi
  00062	e8 00 00 00 00	 call	 ?DeathAction@@YAXPAUaction@@@Z ; DeathAction
  00067	83 c4 08	 add	 esp, 8

; 447  : 			}else

  0006a	eb 17		 jmp	 SHORT $LN9@JikiTama
$LN7@JikiTama:

; 448  : 			if( 480 <= pAct->y ){ 

  0006c	3d e0 01 00 00	 cmp	 eax, 480		; 000001e0H
  00071	7c 10		 jl	 SHORT $LN9@JikiTama

; 449  : 				pAct->y = 480;
; 450  : 				DeathAction( pAct );

  00073	56		 push	 esi
  00074	c7 46 1c e0 01
	00 00		 mov	 DWORD PTR [esi+28], 480	; 000001e0H
  0007b	e8 00 00 00 00	 call	 ?DeathAction@@YAXPAUaction@@@Z ; DeathAction
  00080	83 c4 04	 add	 esp, 4
$LN9@JikiTama:

; 451  : 			}
; 452  : 			
; 453  : 			if(	pAct->x <= -32 ){

  00083	8b 46 18	 mov	 eax, DWORD PTR [esi+24]
  00086	83 f8 e0	 cmp	 eax, -32		; ffffffe0H
  00089	7f 09		 jg	 SHORT $LN10@JikiTama

; 454  : 				pAct->x = -32;

  0008b	c7 46 18 e0 ff
	ff ff		 mov	 DWORD PTR [esi+24], -32	; ffffffe0H

; 455  : 				DeathAction( pAct );
; 456  : 			}else

  00092	eb 0e		 jmp	 SHORT $LN17@JikiTama
$LN10@JikiTama:

; 457  : 			if( 640 <= pAct->x ){ 

  00094	3d 80 02 00 00	 cmp	 eax, 640		; 00000280H
  00099	7c 10		 jl	 SHORT $LN12@JikiTama

; 458  : 				pAct->x = 640;

  0009b	c7 46 18 80 02
	00 00		 mov	 DWORD PTR [esi+24], 640	; 00000280H
$LN17@JikiTama:

; 468  : 			
; 469  : 			break;
; 470  : 	}
; 471  : 	
; 472  : 	
; 473  : 	// ã‚¢ãƒ‹ãƒ¡ãƒ¼ã‚·ãƒ§ãƒ³
; 474  : 	pattern( pAct, ANM_NOMAL_SPD, ANM_LOOP );

  000a2	56		 push	 esi
  000a3	e8 00 00 00 00	 call	 ?DeathAction@@YAXPAUaction@@@Z ; DeathAction
  000a8	83 c4 04	 add	 esp, 4
$LN12@JikiTama:
  000ab	6a 00		 push	 0
  000ad	6a 00		 push	 0
  000af	56		 push	 esi
  000b0	e8 00 00 00 00	 call	 ?pattern@@YAHPAUaction@@HH@Z ; pattern
  000b5	83 c4 0c	 add	 esp, 12			; 0000000cH
  000b8	5e		 pop	 esi

; 475  : }

  000b9	5d		 pop	 ebp
  000ba	c3		 ret	 0
?JikiTama@@YAXPAUaction@@@Z ENDP			; JikiTama
_TEXT	ENDS
; Function compile flags: /Ogtp
; File C:\Users\gg862\OneDrive\¹ÙÅÁ È­¸é\¸¾Äí¿Ï·á\Client Source Code1.31ÀÏº»\ohta\Ohta.cpp
;	COMDAT ?MakeJikiTama@@YAPAUaction@@HHHHH@Z
_TEXT	SEGMENT
_x$ = 8							; size = 4
_y$ = 12						; size = 4
_dx$ = 16						; size = 4
_dy$ = 20						; size = 4
_bmpNo$ = 24						; size = 4
?MakeJikiTama@@YAPAUaction@@HHHHH@Z PROC		; MakeJikiTama, COMDAT

; 384  : {

  00000	55		 push	 ebp
  00001	8b ec		 mov	 ebp, esp
  00003	57		 push	 edi

; 385  : 	ACTION *pAct;
; 386  : 	
; 387  : 	/* ã‚¢ã‚¯ã‚·ãƒ§ãƒ³ãƒªã‚¹ãƒˆã«ç™»éŒ² */
; 388  : 	pAct = GetAction( PRIO_JIKI_TAMA, 0 );

  00004	6a 00		 push	 0
  00006	6a 06		 push	 6
  00008	e8 00 00 00 00	 call	 ?GetAction@@YAPAUaction@@EI@Z ; GetAction
  0000d	8b f8		 mov	 edi, eax
  0000f	83 c4 08	 add	 esp, 8

; 389  : 	if( pAct == NULL ) return NULL;

  00012	85 ff		 test	 edi, edi
  00014	75 03		 jne	 SHORT $LN2@MakeJikiTa
  00016	5f		 pop	 edi

; 415  : }

  00017	5d		 pop	 ebp
  00018	c3		 ret	 0
$LN2@MakeJikiTa:

; 390  : 	
; 391  : 	/* å®Ÿè¡Œé–¢æ•° */
; 392  : 	pAct->func = JikiTama;
; 393  : 	// anim_tbl.h ã®ç•ªå·
; 394  : 	pAct->anim_chr_no = bmpNo; // ã‚¤ãƒŽã‚·ã‚·

  00019	8b 45 18	 mov	 eax, DWORD PTR _bmpNo$[ebp]

; 395  : 	// å‹•ä½œç•ªå·
; 396  : 	//pAct->anim_no = ANIM_ATTACK;
; 397  : 	pAct->anim_no = Rnd( ANIM_ATTACK, ANIM_LIST_);

  0001c	6a 0d		 push	 13			; 0000000dH
  0001e	6a 00		 push	 0
  00020	c7 47 08 00 00
	00 00		 mov	 DWORD PTR [edi+8], OFFSET ?JikiTama@@YAXPAUaction@@@Z ; JikiTama
  00027	89 87 44 01 00
	00		 mov	 DWORD PTR [edi+324], eax
  0002d	e8 00 00 00 00	 call	 ?Rnd@@YAHHH@Z		; Rnd

; 398  : 	//pAct->anim_no = ANIM_WALK;
; 399  : 	// ã‚¢ãƒ‹ãƒ¡ãƒ¼ã‚·ãƒ§ãƒ³å‘ã( ï¼ï½žï¼— )( ä¸‹ãŒï¼ã§å³å›žã‚Š )
; 400  : 	pAct->anim_ang = Rnd( 0, 7 );

  00032	6a 07		 push	 7
  00034	6a 00		 push	 0
  00036	89 87 4c 01 00
	00		 mov	 DWORD PTR [edi+332], eax
  0003c	e8 00 00 00 00	 call	 ?Rnd@@YAHHH@Z		; Rnd

; 401  : 	///* ã‚¹ãƒ—ãƒ©ã‚¤ãƒˆç•ªå· */
; 402  : 	//pAct->bmpNo = bmpNo;
; 403  : 	/* è¡¨ç¤ºå„ªå…ˆåº¦ */
; 404  : 	pAct->dispPrio = 2;
; 405  : 	/* ï¼¨ï¼° */
; 406  : 	pAct->hp = 10000;
; 407  : 	/* åˆæœŸä½ç½® */
; 408  : 	pAct->x = x - dx;

  00041	8b 4d 08	 mov	 ecx, DWORD PTR _x$[ebp]
  00044	83 c4 10	 add	 esp, 16			; 00000010H
  00047	89 87 54 01 00
	00		 mov	 DWORD PTR [edi+340], eax
  0004d	8b 45 10	 mov	 eax, DWORD PTR _dx$[ebp]
  00050	2b c8		 sub	 ecx, eax

; 409  : 	pAct->y = y - dy;
; 410  : 	/* å¢—åˆ† */
; 411  : 	pAct->dx = dx / 2;

  00052	99		 cdq
  00053	2b c2		 sub	 eax, edx
  00055	89 4f 18	 mov	 DWORD PTR [edi+24], ecx
  00058	8b 4d 0c	 mov	 ecx, DWORD PTR _y$[ebp]
  0005b	2b 4d 14	 sub	 ecx, DWORD PTR _dy$[ebp]
  0005e	d1 f8		 sar	 eax, 1
  00060	89 47 28	 mov	 DWORD PTR [edi+40], eax

; 412  : 	pAct->dy = dy / 2;

  00063	8b 45 14	 mov	 eax, DWORD PTR _dy$[ebp]
  00066	99		 cdq
  00067	2b c2		 sub	 eax, edx
  00069	c6 47 15 02	 mov	 BYTE PTR [edi+21], 2
  0006d	d1 f8		 sar	 eax, 1
  0006f	89 47 2c	 mov	 DWORD PTR [edi+44], eax

; 413  : 	
; 414  : 	return pAct;

  00072	8b c7		 mov	 eax, edi
  00074	c7 47 78 10 27
	00 00		 mov	 DWORD PTR [edi+120], 10000 ; 00002710H
  0007b	89 4f 1c	 mov	 DWORD PTR [edi+28], ecx
  0007e	5f		 pop	 edi

; 415  : }

  0007f	5d		 pop	 ebp
  00080	c3		 ret	 0
?MakeJikiTama@@YAPAUaction@@HHHHH@Z ENDP		; MakeJikiTama
_TEXT	ENDS
; Function compile flags: /Ogtp
; File C:\Users\gg862\OneDrive\¹ÙÅÁ È­¸é\¸¾Äí¿Ï·á\Client Source Code1.31ÀÏº»\ohta\Ohta.cpp
;	COMDAT ?Jiki@@YAXPAUaction@@@Z
_TEXT	SEGMENT
_szMoji$1 = -260					; size = 256
__$ArrayPad$ = -4					; size = 4
_pAct$ = 8						; size = 4
?Jiki@@YAXPAUaction@@@Z PROC				; Jiki, COMDAT

; 130  : {

  00000	55		 push	 ebp
  00001	8b ec		 mov	 ebp, esp
  00003	81 ec 04 01 00
	00		 sub	 esp, 260		; 00000104H
  00009	a1 00 00 00 00	 mov	 eax, DWORD PTR ___security_cookie
  0000e	33 c5		 xor	 eax, ebp
  00010	89 45 fc	 mov	 DWORD PTR __$ArrayPad$[ebp], eax
  00013	56		 push	 esi
  00014	57		 push	 edi
  00015	8b 7d 08	 mov	 edi, DWORD PTR _pAct$[ebp]

; 131  : 	JIKI *pYobi = ( JIKI *)pAct->pYobi;
; 132  : 	//int i;
; 133  : 	
; 134  : 	/* æ”»æ’ƒå—ã‘ãŸæ™‚ */
; 135  : 	if( pAct->damage > 0 ){

  00018	8b 87 b0 00 00
	00		 mov	 eax, DWORD PTR [edi+176]
  0001e	8b 77 0c	 mov	 esi, DWORD PTR [edi+12]
  00021	85 c0		 test	 eax, eax
  00023	7e 31		 jle	 SHORT $LN6@Jiki

; 136  : 		pAct->hp -= pAct->damage;

  00025	29 47 78	 sub	 DWORD PTR [edi+120], eax

; 137  : 		if( pAct->hp <= 0 ){ 

  00028	83 7f 78 00	 cmp	 DWORD PTR [edi+120], 0
  0002c	7f 1e		 jg	 SHORT $LN41@Jiki

; 138  : 			pAct->state = ACT_STATE_DEAD;

  0002e	c7 87 a8 00 00
	00 01 00 00 00	 mov	 DWORD PTR [edi+168], 1

; 139  : 			pYobi->cnt  = 0;

  00038	c7 06 00 00 00
	00		 mov	 DWORD PTR [esi], 0

; 140  : 			pYobi->cnt2 = 0;

  0003e	c7 46 04 00 00
	00 00		 mov	 DWORD PTR [esi+4], 0

; 141  : 			pYobi->cnt3 = 0;

  00045	c7 46 08 00 00
	00 00		 mov	 DWORD PTR [esi+8], 0
$LN41@Jiki:

; 142  : 		}
; 143  : 		pAct->damage = 0;

  0004c	c7 87 b0 00 00
	00 00 00 00 00	 mov	 DWORD PTR [edi+176], 0
$LN6@Jiki:

; 144  : 	}
; 145  : 	// å–å‡ºã™åº§æ¨™
; 146  : //	rcX = Rnd( 0,608 );
; 147  : //	rcY = Rnd( 0,400 );
; 148  : //	SetRect( &Rc[ pAct->bmpNo ], rcX, rcY, rcX + 32, rcY + 32 ); 
; 149  : 	
; 150  : 	// ãƒžã‚¦ã‚¹ç§»å‹•
; 151  : 	//pAct->x = mouse.nowPoint.x;
; 152  : 	//pAct->y = mouse.nowPoint.y;
; 153  : 
; 154  : 	// ãƒžã‚¦ã‚¹ã§å¼¾ç™ºå°„
; 155  : 	if( pYobi->cnt3 <= 0 ){

  00056	8b 46 08	 mov	 eax, DWORD PTR [esi+8]
  00059	85 c0		 test	 eax, eax
  0005b	7f 36		 jg	 SHORT $LN8@Jiki

; 156  : 		// å¼¾ç™ºå°„
; 157  : 		//if( mouse.state == MOUSE_LEFT_CRICK ){
; 158  : 		if( mouse.onceState & MOUSE_LEFT_CRICK ){

  0005d	f6 05 2c 00 00
	00 01		 test	 BYTE PTR ?mouse@@3UMOUSE@@A+44, 1
  00064	74 07		 je	 SHORT $LN10@Jiki

; 159  : 			// å…¥åŠ›ãƒ•ã‚©ãƒ¼ã‚«ã‚¹å–å¾—
; 160  : 			//GetKeyInputFocus( &pYobi->strTestBuffer );
; 161  : 			/* å¼¾ä½œæˆ */
; 162  : 			//MakeJikiTama( pAct->x , pAct->y -16, 0, -8, Rnd( 0, BMP_FILE - 1 ) );
; 163  : 			//MakeJikiTama( pAct->x , pAct->y -16, 0, -8, 1034 );
; 164  : 			//MakeJikiTama( pAct->x, 	   	pAct->y -16,  0, -8, 25 );
; 165  : 			
; 166  : 			//MakeJikiTama( pAct->x, 	   	pAct->y -16,  0, -8, Rnd( 0, BMP_FILE - 2 ) );
; 167  : 			
; 168  : 			//MakeJikiTama( pAct->x, 	   	pAct->y -16,  0, -8, Rnd( 31554, 31557 ) ); // ï¼´ï¼§ï¼³
; 169  : 			//MakeJikiTama( pAct->x, 	   	pAct->y -16,  0, -8, Rnd( 31000, 31069 ) ); // ãƒ¢ãƒ³ã‚¹ã‚¿ãƒ¼
; 170  : //			MakeJikiTama( pAct->x, 	   	pAct->y -16,  0, -8, Rnd( 30100, 30135 ) ); // ï¼°ï¼£
; 171  : 			//MakeJikiTama( pAct->x + 10, pAct->y -16, 0, -8, Rnd( 0, BMP_FILE - 1 ) );
; 172  : 			//MakeJikiTama( pAct->x, pAct->y -16, 0, -8, 29 );
; 173  : 			//MakeJikiTama( pAct->x - 10, pAct->y -16, 0, -8, 29 );
; 174  : 			//MakeJikiTama( pAct->x + 10, pAct->y -16, 0, -8, 29 );
; 175  : 			pYobi->cnt3 = 5;

  00066	c7 46 08 05 00
	00 00		 mov	 DWORD PTR [esi+8], 5
$LN10@Jiki:

; 176  : #if 0
; 177  : 			for( i = 0; i < (int)256; i++ ){
; 178  : 				// æ˜Žã‚‹ãã™ã‚‹
; 179  : 				Palette[i].peRed 	 *= 0.95;
; 180  : 				Palette[i].peGreen *= 0.95;
; 181  : 				Palette[i].peBlue  *= 0.95;
; 182  : 			}
; 183  : 			// ãƒ‘ãƒ¬ãƒƒãƒˆã®ä¸­èº«ã‚’è¨­å®š
; 184  : 			lpDraw->lpPALETTE->SetEntries( 0, 0, 256, Palette );
; 185  : #endif
; 186  : 		}
; 187  : 		// çœŸä¸­ãƒœã‚¿ãƒ³
; 188  : 		if( GetAsyncKeyState( VK_MBUTTON ) ){

  0006d	6a 04		 push	 4
  0006f	ff 15 00 00 00
	00		 call	 DWORD PTR __imp__GetAsyncKeyState@4
  00075	66 85 c0	 test	 ax, ax
  00078	74 07		 je	 SHORT $LN11@Jiki

; 189  : 			//MakeJikiTama( pAct->x, pAct->y -16, 0, -8, 29 );
; 190  : 			//MakeJikiTama( pAct->x, 	   	pAct->y -16,  0, -8, Rnd( 0, BMP_FILE - 1 ) );
; 191  : 	//		MakeJikiTama( pAct->x, 	   	pAct->y -16,  0, -8, 32 );
; 192  : 			pYobi->cnt3 = 5;

  0007a	c7 46 08 05 00
	00 00		 mov	 DWORD PTR [esi+8], 5
$LN11@Jiki:

; 193  : 			
; 194  : 		}
; 195  : 		// å¼¾ç™ºå°„
; 196  : 		//if( mouse.onceState & MOUSE_RIGHT_CRICK ){
; 197  : 		if( mouse.state & MOUSE_RIGHT_CRICK ){

  00081	f6 05 28 00 00
	00 02		 test	 BYTE PTR ?mouse@@3UMOUSE@@A+40, 2
  00088	74 0d		 je	 SHORT $LN9@Jiki

; 198  : 			// å…¥åŠ›ãƒ•ã‚©ãƒ¼ã‚«ã‚¹å–å¾—
; 199  : 			//GetKeyInputFocus( &MyChatBuffer );
; 200  : 		//if( GetAsyncKeyState( VK_RBUTTON ) 	& 0x8000 ){
; 201  : 		//	MakeJikiTama( pAct->x, pAct->y -16, 0, -8, 29 );
; 202  : 		// ã‚µãƒ¼ãƒ•ã‚§ã‚¹ãŒã‚ã£ãŸã‚‰
; 203  : 		//if( lpSurface[ 0 ] != NULL ){
; 204  : 		//	// ãƒªãƒªãƒ¼ã‚¹
; 205  : 		//	lpSurface[ 0 ]->Release( );
; 206  : 		//	lpSurface[ 0 ] = NULL;
; 207  : 		//}
; 208  : 		//	MakeBg();
; 209  : #if 0		
; 210  : 			MakeJikiTama( pAct->x - 10, pAct->y -16, -6, -8, Rnd( 0, BMP_FILE - 2 ) );
; 211  : 			MakeJikiTama( pAct->x -  5, pAct->y -16, -3, -8, Rnd( 0, BMP_FILE - 2 ) );
; 212  : 			MakeJikiTama( pAct->x, 	   	pAct->y -16,  0, -8, Rnd( 0, BMP_FILE - 2 ) );
; 213  : 			MakeJikiTama( pAct->x +  5, pAct->y -16,  3, -8, Rnd( 0, BMP_FILE - 2 ) );
; 214  : 			MakeJikiTama( pAct->x + 10, pAct->y -16,  6, -8, Rnd( 0, BMP_FILE - 2 ) );
; 215  : #else
; 216  : 	//		MakeJikiTama( pAct->x - 10, pAct->y -16, -6, -8, No );
; 217  : 	//		MakeJikiTama( pAct->x -  5, pAct->y -16, -3, -8, No );
; 218  : 	//		MakeJikiTama( pAct->x, 	   	pAct->y -16,  0, -8, No );
; 219  : 	//		MakeJikiTama( pAct->x +  5, pAct->y -16,  3, -8, No );
; 220  : 	//		MakeJikiTama( pAct->x + 10, pAct->y -16,  6, -8, No );
; 221  : #endif		
; 222  : 			pYobi->cnt3 = 5;

  0008a	c7 46 08 05 00
	00 00		 mov	 DWORD PTR [esi+8], 5

; 223  : #if 0
; 224  : 			for( i = 0; i < (int)256; i++ ){
; 225  : 				// æš—ãã™ã‚‹
; 226  : 				Palette[i].peRed  *= 1.05;
; 227  : 				Palette[i].peGreen*= 1.05;
; 228  : 				Palette[i].peBlue *= 1.05;
; 229  : 			}
; 230  : 			//ãƒ‘ãƒ¬ãƒƒãƒˆã®ä¸­èº«ã‚’è¨­å®š
; 231  : 			lpDraw->lpPALETTE->SetEntries( 0, 0, 256, Palette );
; 232  : #endif
; 233  : 		}

  00091	eb 04		 jmp	 SHORT $LN9@Jiki
$LN8@Jiki:

; 234  : 		
; 235  : 	}else pYobi->cnt3--;

  00093	48		 dec	 eax
  00094	89 46 08	 mov	 DWORD PTR [esi+8], eax
$LN9@Jiki:

; 236  : 
; 237  : 	/* çŠ¶æ…‹ã§åˆ†å² */
; 238  : 	switch( pAct->state ){

  00097	8b 87 a8 00 00
	00		 mov	 eax, DWORD PTR [edi+168]
  0009d	83 e8 00	 sub	 eax, 0
  000a0	74 64		 je	 SHORT $LN13@Jiki
  000a2	83 e8 01	 sub	 eax, 1
  000a5	0f 85 40 02 00
	00		 jne	 $LN32@Jiki

; 335  : 			}
; 336  : 			
; 337  : 			break;
; 338  : 	
; 339  : 		/* æ­»äº¡æ™‚ */	
; 340  : 		case ACT_STATE_DEAD:
; 341  : 		
; 342  : 			if( pYobi->cnt == 0 ){ 

  000ab	8b 06		 mov	 eax, DWORD PTR [esi]
  000ad	85 c0		 test	 eax, eax
  000af	75 16		 jne	 SHORT $LN36@Jiki

; 343  : 				pAct->bmpNo = bomData[ 0 ];

  000b1	a1 00 00 00 00	 mov	 eax, DWORD PTR ?bomData@@3PAHA
  000b6	89 87 9c 00 00
	00		 mov	 DWORD PTR [edi+156], eax

; 344  : 				pYobi->cnt = 1;

  000bc	b8 01 00 00 00	 mov	 eax, 1
  000c1	c7 06 01 00 00
	00		 mov	 DWORD PTR [esi], 1
$LN36@Jiki:

; 345  : 			}
; 346  : 			/* çˆ†ç™ºã‚¢ãƒ‹ãƒ¡ãƒ¼ã‚·ãƒ§ãƒ³ */
; 347  : 			pYobi->cnt2++;

  000c7	ff 46 04	 inc	 DWORD PTR [esi+4]

; 348  : 			if( pYobi->cnt2 >= 5 ){

  000ca	83 7e 04 05	 cmp	 DWORD PTR [esi+4], 5
  000ce	0f 8c 17 02 00
	00		 jl	 $LN32@Jiki

; 349  : 				pAct->bmpNo = bomData[ pYobi->cnt ];

  000d4	8b 04 85 00 00
	00 00		 mov	 eax, DWORD PTR ?bomData@@3PAHA[eax*4]
  000db	89 87 9c 00 00
	00		 mov	 DWORD PTR [edi+156], eax

; 350  : 				pYobi->cnt++;

  000e1	ff 06		 inc	 DWORD PTR [esi]

; 351  : 				pYobi->cnt2 = 0;
; 352  : 				/* çµ‚ã‚ã£ãŸã‚‰æ­»ã¬ */
; 353  : 				if( pYobi->cnt == 6 ){

  000e3	83 3e 06	 cmp	 DWORD PTR [esi], 6
  000e6	c7 46 04 00 00
	00 00		 mov	 DWORD PTR [esi+4], 0
  000ed	0f 85 f8 01 00
	00		 jne	 $LN32@Jiki

; 354  : 					DeathAction( pAct );

  000f3	57		 push	 edi
  000f4	e8 00 00 00 00	 call	 ?DeathAction@@YAXPAUaction@@@Z ; DeathAction
  000f9	83 c4 04	 add	 esp, 4

; 355  : 					MakeGameOver( );

  000fc	e8 00 00 00 00	 call	 ?MakeGameOver@@YAPAUaction@@XZ ; MakeGameOver
  00101	e9 e5 01 00 00	 jmp	 $LN32@Jiki
$LN13@Jiki:

; 239  : 		/* é€šå¸¸æ™‚ */
; 240  : 		case ACT_STATE_ACT:
; 241  : 		
; 242  : 			/* æ•µå¼¾ã¨ã®å½“ãŸã‚Šåˆ¤å®š */
; 243  : 			//Hit( pAct, PRIO_ENEMY_TAMA );
; 244  : 			/* æ•µã¨ã®å½“ãŸã‚Šåˆ¤å®š */
; 245  : 			//Hit( pAct, PRIO_ENEMY );
; 246  : 
; 247  : 			/* ç§»å‹• */
; 248  : 			if( joy_con[ 0 ] & JOY_UP ){	/* ä¸Š */

  00106	a1 00 00 00 00	 mov	 eax, DWORD PTR ?joy_con@@3PAKA
  0010b	a9 00 10 00 00	 test	 eax, 4096		; 00001000H
  00110	74 17		 je	 SHORT $LN15@Jiki

; 249  : 				pAct->y -= 2;

  00112	83 47 1c fe	 add	 DWORD PTR [edi+28], -2	; fffffffeH

; 250  : 				if( pAct->y < 0 ) pAct->y = 0;

  00116	b9 00 00 00 00	 mov	 ecx, 0
  0011b	8b 47 1c	 mov	 eax, DWORD PTR [edi+28]
  0011e	0f 48 c1	 cmovs	 eax, ecx
  00121	89 47 1c	 mov	 DWORD PTR [edi+28], eax
  00124	a1 00 00 00 00	 mov	 eax, DWORD PTR ?joy_con@@3PAKA
$LN15@Jiki:

; 251  : 			}
; 252  : 			if( joy_con[ 0 ] & JOY_DOWN ){	/* ä¸‹ */

  00129	a9 00 20 00 00	 test	 eax, 8192		; 00002000H
  0012e	74 19		 je	 SHORT $LN17@Jiki

; 253  : 				pAct->y += 2;

  00130	83 47 1c 02	 add	 DWORD PTR [edi+28], 2

; 254  : 				if( pAct->y > 448 ) pAct->y = 448;

  00134	b9 c0 01 00 00	 mov	 ecx, 448		; 000001c0H
  00139	8b 47 1c	 mov	 eax, DWORD PTR [edi+28]
  0013c	3b c1		 cmp	 eax, ecx
  0013e	0f 4f c1	 cmovg	 eax, ecx
  00141	89 47 1c	 mov	 DWORD PTR [edi+28], eax
  00144	a1 00 00 00 00	 mov	 eax, DWORD PTR ?joy_con@@3PAKA
$LN17@Jiki:

; 255  : 			}
; 256  : 			if( joy_con[ 0 ] & JOY_LEFT ){	/* å·¦ */

  00149	a9 00 40 00 00	 test	 eax, 16384		; 00004000H
  0014e	74 17		 je	 SHORT $LN19@Jiki

; 257  : 				pAct->x -= 2;

  00150	83 47 18 fe	 add	 DWORD PTR [edi+24], -2	; fffffffeH

; 258  : 				if( pAct->x < 0 ) pAct->x = 0;

  00154	b9 00 00 00 00	 mov	 ecx, 0
  00159	8b 47 18	 mov	 eax, DWORD PTR [edi+24]
  0015c	0f 48 c1	 cmovs	 eax, ecx
  0015f	89 47 18	 mov	 DWORD PTR [edi+24], eax
  00162	a1 00 00 00 00	 mov	 eax, DWORD PTR ?joy_con@@3PAKA
$LN19@Jiki:

; 259  : 			}
; 260  : 			if( joy_con[ 0 ] & JOY_RIGHT ){	/* å³ */

  00167	a9 00 80 00 00	 test	 eax, 32768		; 00008000H
  0016c	74 19		 je	 SHORT $LN21@Jiki

; 261  : 				pAct->x += 2;

  0016e	83 47 18 02	 add	 DWORD PTR [edi+24], 2

; 262  : 				if( pAct->x > 608 ) pAct->x = 608;

  00172	b9 60 02 00 00	 mov	 ecx, 608		; 00000260H
  00177	8b 47 18	 mov	 eax, DWORD PTR [edi+24]
  0017a	3b c1		 cmp	 eax, ecx
  0017c	0f 4f c1	 cmovg	 eax, ecx
  0017f	89 47 18	 mov	 DWORD PTR [edi+24], eax
  00182	a1 00 00 00 00	 mov	 eax, DWORD PTR ?joy_con@@3PAKA
$LN21@Jiki:

; 263  : 			}
; 264  : 			
; 265  : 			// æ•µä½œæˆ
; 266  : 			//if( joy_con[ 0 ] & JOY_B )	MakeEnemy();
; 267  : 			
; 268  : 			/* å¼¾ç™ºå°„ */
; 269  : 			if( pYobi->cnt3 <= 0 ){ /* å¼¾ã‚¦ã‚§ã‚¤ãƒˆ */

  00187	8b 4e 08	 mov	 ecx, DWORD PTR [esi+8]
  0018a	85 c9		 test	 ecx, ecx
  0018c	0f 8f 29 01 00
	00		 jg	 $LN22@Jiki

; 270  : 				if( joy_con[ 0 ] & JOY_A ){

  00192	a9 00 04 00 00	 test	 eax, 1024		; 00000400H
  00197	0f 84 24 01 00
	00		 je	 $LN31@Jiki

; 271  : 					
; 272  : 					/*DeathAllAction();*/
; 273  : 					/* å¼¾ã®ç¨®é¡žã§åˆ†å² */
; 274  : 					switch( pYobi->attackKind ){

  0019d	8b 46 14	 mov	 eax, DWORD PTR [esi+20]
  001a0	83 f8 03	 cmp	 eax, 3
  001a3	0f 87 09 01 00
	00		 ja	 $LN29@Jiki
  001a9	ff 24 85 00 00
	00 00		 jmp	 DWORD PTR $LN42@Jiki[eax*4]
$LN25@Jiki:

; 275  : 						
; 276  : 						case TAMA_NORMAL:
; 277  : 						
; 278  : 							/* å¼¾ä½œæˆ */
; 279  : 							MakeJikiTama( pAct->x, pAct->y -16, 0, -8, 28 );

  001b0	8b 47 1c	 mov	 eax, DWORD PTR [edi+28]
  001b3	6a 1c		 push	 28			; 0000001cH
  001b5	6a f8		 push	 -8			; fffffff8H
  001b7	6a 00		 push	 0
  001b9	83 e8 10	 sub	 eax, 16			; 00000010H
  001bc	50		 push	 eax
  001bd	ff 77 18	 push	 DWORD PTR [edi+24]
  001c0	e8 00 00 00 00	 call	 ?MakeJikiTama@@YAPAUaction@@HHHHH@Z ; MakeJikiTama
  001c5	83 c4 14	 add	 esp, 20			; 00000014H

; 307  : 							}
; 308  : 							break;
; 309  : 					}
; 310  : 					pYobi->cnt3 = 2; /*  å¼¾ã‚¦ã‚§ã‚¤ãƒˆ */

  001c8	c7 46 08 02 00
	00 00		 mov	 DWORD PTR [esi+8], 2

; 311  : 					//pYobi->cnt3 = 0; /*  å¼¾ã‚¦ã‚§ã‚¤ãƒˆ */
; 312  : 				}
; 313  : 			}else{

  001cf	e9 ed 00 00 00	 jmp	 $LN31@Jiki
$LN26@Jiki:

; 280  : 							
; 281  : 							break;
; 282  : 							
; 283  : 						case TAMA_TWIN:
; 284  : 						
; 285  : 							/* å¼¾ä½œæˆ */
; 286  : 							MakeJikiTama( pAct->x - 10, pAct->y -16, 0, -8, 29 );

  001d4	8b 47 1c	 mov	 eax, DWORD PTR [edi+28]
  001d7	6a 1d		 push	 29			; 0000001dH
  001d9	6a f8		 push	 -8			; fffffff8H
  001db	83 e8 10	 sub	 eax, 16			; 00000010H
  001de	6a 00		 push	 0
  001e0	50		 push	 eax
  001e1	8b 47 18	 mov	 eax, DWORD PTR [edi+24]
  001e4	83 e8 0a	 sub	 eax, 10			; 0000000aH
  001e7	50		 push	 eax
  001e8	e8 00 00 00 00	 call	 ?MakeJikiTama@@YAPAUaction@@HHHHH@Z ; MakeJikiTama

; 287  : 							MakeJikiTama( pAct->x + 10, pAct->y -16, 0, -8, 29 );

  001ed	8b 47 1c	 mov	 eax, DWORD PTR [edi+28]
  001f0	6a 1d		 push	 29			; 0000001dH
  001f2	6a f8		 push	 -8			; fffffff8H
  001f4	83 e8 10	 sub	 eax, 16			; 00000010H
  001f7	6a 00		 push	 0
  001f9	50		 push	 eax
  001fa	8b 47 18	 mov	 eax, DWORD PTR [edi+24]
  001fd	83 c0 0a	 add	 eax, 10			; 0000000aH
  00200	50		 push	 eax
  00201	e8 00 00 00 00	 call	 ?MakeJikiTama@@YAPAUaction@@HHHHH@Z ; MakeJikiTama
  00206	83 c4 28	 add	 esp, 40			; 00000028H

; 307  : 							}
; 308  : 							break;
; 309  : 					}
; 310  : 					pYobi->cnt3 = 2; /*  å¼¾ã‚¦ã‚§ã‚¤ãƒˆ */

  00209	c7 46 08 02 00
	00 00		 mov	 DWORD PTR [esi+8], 2

; 311  : 					//pYobi->cnt3 = 0; /*  å¼¾ã‚¦ã‚§ã‚¤ãƒˆ */
; 312  : 				}
; 313  : 			}else{

  00210	e9 ac 00 00 00	 jmp	 $LN31@Jiki
$LN27@Jiki:

; 288  : 							
; 289  : 							break;
; 290  : 							
; 291  : 						case TAMA_3WAY:
; 292  : 						
; 293  : 							MakeJikiTama( pAct->x - 10, pAct->y -16, -4, -8, 29 );

  00215	8b 47 1c	 mov	 eax, DWORD PTR [edi+28]
  00218	6a 1d		 push	 29			; 0000001dH
  0021a	6a f8		 push	 -8			; fffffff8H
  0021c	83 e8 10	 sub	 eax, 16			; 00000010H
  0021f	6a fc		 push	 -4			; fffffffcH
  00221	50		 push	 eax
  00222	8b 47 18	 mov	 eax, DWORD PTR [edi+24]
  00225	83 e8 0a	 sub	 eax, 10			; 0000000aH
  00228	50		 push	 eax
  00229	e8 00 00 00 00	 call	 ?MakeJikiTama@@YAPAUaction@@HHHHH@Z ; MakeJikiTama

; 294  : 							MakeJikiTama( pAct->x, 	   	pAct->y -16,  0, -8, 29 );

  0022e	8b 47 1c	 mov	 eax, DWORD PTR [edi+28]
  00231	6a 1d		 push	 29			; 0000001dH
  00233	6a f8		 push	 -8			; fffffff8H
  00235	6a 00		 push	 0
  00237	83 e8 10	 sub	 eax, 16			; 00000010H
  0023a	50		 push	 eax
  0023b	ff 77 18	 push	 DWORD PTR [edi+24]
  0023e	e8 00 00 00 00	 call	 ?MakeJikiTama@@YAPAUaction@@HHHHH@Z ; MakeJikiTama

; 295  : 							MakeJikiTama( pAct->x + 10, pAct->y -16,  4, -8, 29 );

  00243	8b 47 1c	 mov	 eax, DWORD PTR [edi+28]
  00246	6a 1d		 push	 29			; 0000001dH
  00248	6a f8		 push	 -8			; fffffff8H
  0024a	83 e8 10	 sub	 eax, 16			; 00000010H
  0024d	6a 04		 push	 4
  0024f	50		 push	 eax
  00250	8b 47 18	 mov	 eax, DWORD PTR [edi+24]
  00253	83 c0 0a	 add	 eax, 10			; 0000000aH
  00256	50		 push	 eax
  00257	e8 00 00 00 00	 call	 ?MakeJikiTama@@YAPAUaction@@HHHHH@Z ; MakeJikiTama
  0025c	83 c4 3c	 add	 esp, 60			; 0000003cH

; 307  : 							}
; 308  : 							break;
; 309  : 					}
; 310  : 					pYobi->cnt3 = 2; /*  å¼¾ã‚¦ã‚§ã‚¤ãƒˆ */

  0025f	c7 46 08 02 00
	00 00		 mov	 DWORD PTR [esi+8], 2

; 311  : 					//pYobi->cnt3 = 0; /*  å¼¾ã‚¦ã‚§ã‚¤ãƒˆ */
; 312  : 				}
; 313  : 			}else{

  00266	eb 59		 jmp	 SHORT $LN31@Jiki
$LN28@Jiki:

; 296  : 							
; 297  : 							break;
; 298  : 							
; 299  : 						case TAMA_DIR:
; 300  : 						
; 301  : 							MakeJikiTama( pAct->x, pAct->y -16,  pYobi->tamaDx, -8, 29 );

  00268	8b 47 1c	 mov	 eax, DWORD PTR [edi+28]
  0026b	6a 1d		 push	 29			; 0000001dH
  0026d	6a f8		 push	 -8			; fffffff8H
  0026f	ff 76 10	 push	 DWORD PTR [esi+16]
  00272	83 e8 10	 sub	 eax, 16			; 00000010H
  00275	50		 push	 eax
  00276	ff 77 18	 push	 DWORD PTR [edi+24]
  00279	e8 00 00 00 00	 call	 ?MakeJikiTama@@YAPAUaction@@HHHHH@Z ; MakeJikiTama

; 302  : 							MakeJikiTama( pAct->x, pAct->y -16, -pYobi->tamaDx, -8, 29 );

  0027e	8b 46 10	 mov	 eax, DWORD PTR [esi+16]
  00281	6a 1d		 push	 29			; 0000001dH
  00283	f7 d8		 neg	 eax
  00285	6a f8		 push	 -8			; fffffff8H
  00287	50		 push	 eax
  00288	8b 47 1c	 mov	 eax, DWORD PTR [edi+28]
  0028b	83 e8 10	 sub	 eax, 16			; 00000010H
  0028e	50		 push	 eax
  0028f	ff 77 18	 push	 DWORD PTR [edi+24]
  00292	e8 00 00 00 00	 call	 ?MakeJikiTama@@YAPAUaction@@HHHHH@Z ; MakeJikiTama

; 303  : 							/* å¼¾æ–¹å‘ */
; 304  : 							pYobi->tamaDx += pYobi->tamaDir;

  00297	8b 46 0c	 mov	 eax, DWORD PTR [esi+12]
  0029a	83 c4 28	 add	 esp, 40			; 00000028H
  0029d	01 46 10	 add	 DWORD PTR [esi+16], eax
  002a0	8b 4e 10	 mov	 ecx, DWORD PTR [esi+16]

; 305  : 							if(	pYobi->tamaDx <= -10 || 10 <= pYobi->tamaDx ){

  002a3	83 f9 f6	 cmp	 ecx, -10		; fffffff6H
  002a6	7e 05		 jle	 SHORT $LN30@Jiki
  002a8	83 f9 0a	 cmp	 ecx, 10			; 0000000aH
  002ab	7c 05		 jl	 SHORT $LN29@Jiki
$LN30@Jiki:

; 306  : 								pYobi->tamaDir *= -1;

  002ad	f7 d8		 neg	 eax
  002af	89 46 0c	 mov	 DWORD PTR [esi+12], eax
$LN29@Jiki:

; 307  : 							}
; 308  : 							break;
; 309  : 					}
; 310  : 					pYobi->cnt3 = 2; /*  å¼¾ã‚¦ã‚§ã‚¤ãƒˆ */

  002b2	c7 46 08 02 00
	00 00		 mov	 DWORD PTR [esi+8], 2

; 311  : 					//pYobi->cnt3 = 0; /*  å¼¾ã‚¦ã‚§ã‚¤ãƒˆ */
; 312  : 				}
; 313  : 			}else{

  002b9	eb 06		 jmp	 SHORT $LN31@Jiki
$LN22@Jiki:

; 314  : 				if( pYobi->cnt3 > 0 ) pYobi->cnt3--;

  002bb	8d 41 ff	 lea	 eax, DWORD PTR [ecx-1]
  002be	89 46 08	 mov	 DWORD PTR [esi+8], eax
$LN31@Jiki:

; 315  : 			}
; 316  : 			
; 317  : 			/* ç‚¹æ»… */
; 318  : /*			if( ( int )pAct->x % 2 ) pAct->atr |= ACT_ATR_HIDE;
; 319  : 			else pAct->atr &= ~ACT_ATR_HIDE;
; 320  : */		
; 321  : 			/* æ•µä½œæˆ */
; 322  : 			pYobi->cnt++;

  002c1	ff 06		 inc	 DWORD PTR [esi]

; 323  : 			if( pYobi->cnt >= 1 ){

  002c3	83 3e 01	 cmp	 DWORD PTR [esi], 1
  002c6	7c 23		 jl	 SHORT $LN32@Jiki

; 324  : 				//MakeEnemy();
; 325  : 				pYobi->cnt2++;

  002c8	ff 46 04	 inc	 DWORD PTR [esi+4]

; 326  : 				if( pYobi->cnt2 >= 5 ){

  002cb	83 7e 04 05	 cmp	 DWORD PTR [esi+4], 5
  002cf	7c 14		 jl	 SHORT $LN34@Jiki

; 327  : 					pYobi->cnt2 = 0;
; 328  : 					/* å¼¾å¤‰æ›´ */
; 329  : 					//pYobi->attackKind++;
; 330  : 					if( pYobi->attackKind >= TAMA_END ){

  002d1	83 7e 14 04	 cmp	 DWORD PTR [esi+20], 4
  002d5	c7 46 04 00 00
	00 00		 mov	 DWORD PTR [esi+4], 0
  002dc	7c 07		 jl	 SHORT $LN34@Jiki

; 331  : 						pYobi->attackKind = 0;

  002de	c7 46 14 00 00
	00 00		 mov	 DWORD PTR [esi+20], 0
$LN34@Jiki:

; 332  : 					}
; 333  : 				}
; 334  : 				pYobi->cnt = 0;

  002e5	c7 06 00 00 00
	00		 mov	 DWORD PTR [esi], 0
$LN32@Jiki:

; 356  : 				}
; 357  : 			}
; 358  : 			
; 359  : 			break;
; 360  : 	}
; 361  : 	
; 362  : 	// è¡¨ç¤ºãƒ‡ãƒ¼ã‚¿ã‚’ãƒãƒƒãƒ•ã‚¡ã«æºœã‚ã‚‹
; 363  : 	//StockDispBuffer( pAct->x + 32, pAct->y, pAct->dispPrio, pAct->anim_chr_no, 0 );
; 364  : 	//StockDispBuffer( pAct->x - 32, pAct->y, pAct->dispPrio, pAct->anim_chr_no, 0 );
; 365  : 	{
; 366  : 		char szMoji[ 256 ];
; 367  : 		wsprintf( szMoji,"BmpNo = %d",No );

  002eb	ff 35 00 00 00
	00		 push	 DWORD PTR ?No@@3HA
  002f1	8d 85 fc fe ff
	ff		 lea	 eax, DWORD PTR _szMoji$1[ebp]
  002f7	68 00 00 00 00	 push	 OFFSET ??_C@_0L@EODHLCGM@BmpNo?5?$DN?5?$CFd@
  002fc	50		 push	 eax
  002fd	ff 15 00 00 00
	00		 call	 DWORD PTR __imp__wsprintfA

; 368  : 	//	StockFontBuffer( pAct->x, pAct->y, FONT_PRIO_FRONT, 2, szMoji, 0 );
; 369  : 	}
; 370  : 	
; 371  : 	// ã‚¢ãƒ‹ãƒ¡ãƒ¼ã‚·ãƒ§ãƒ³
; 372  : 	pattern( pAct, ANM_NOMAL_SPD, ANM_LOOP );

  00303	6a 00		 push	 0
  00305	6a 00		 push	 0
  00307	57		 push	 edi
  00308	e8 00 00 00 00	 call	 ?pattern@@YAHPAUaction@@HH@Z ; pattern

; 373  : 	// ãƒ†ã‚¹ãƒˆæ–‡å­—åˆ—è¡¨ç¤º
; 374  : 	//StockFontBuffer( 320, 200, FONT_PRIO_FRONT, pYobi->strTestBuffer.color, pYobi->strTestBuffer.buffer, 0 );
; 375  : 	StockFontBuffer2( &pYobi->strTestBuffer );

  0030d	8d 46 18	 lea	 eax, DWORD PTR [esi+24]
  00310	50		 push	 eax
  00311	e8 00 00 00 00	 call	 ?StockFontBuffer2@@YAXPAUSTR_BUFFER@@@Z ; StockFontBuffer2

; 376  : }

  00316	8b 4d fc	 mov	 ecx, DWORD PTR __$ArrayPad$[ebp]
  00319	83 c4 1c	 add	 esp, 28			; 0000001cH
  0031c	33 cd		 xor	 ecx, ebp
  0031e	5f		 pop	 edi
  0031f	5e		 pop	 esi
  00320	e8 00 00 00 00	 call	 @__security_check_cookie@4
  00325	8b e5		 mov	 esp, ebp
  00327	5d		 pop	 ebp
  00328	c3		 ret	 0
  00329	0f 1f 00	 npad	 3
$LN42@Jiki:
  0032c	00 00 00 00	 DD	 $LN25@Jiki
  00330	00 00 00 00	 DD	 $LN26@Jiki
  00334	00 00 00 00	 DD	 $LN27@Jiki
  00338	00 00 00 00	 DD	 $LN28@Jiki
?Jiki@@YAXPAUaction@@@Z ENDP				; Jiki
_TEXT	ENDS
; Function compile flags: /Ogtp
; File C:\Users\gg862\OneDrive\¹ÙÅÁ È­¸é\¸¾Äí¿Ï·á\Client Source Code1.31ÀÏº»\ohta\Ohta.cpp
;	COMDAT ?MakeJiki@@YAPAUaction@@XZ
_TEXT	SEGMENT
?MakeJiki@@YAPAUaction@@XZ PROC				; MakeJiki, COMDAT

; 64   : {

  00000	57		 push	 edi

; 65   : 	ACTION *pAct;
; 66   : 	JIKI *pYobi;
; 67   : 	
; 68   : 	/* ã‚¢ã‚¯ã‚·ãƒ§ãƒ³ãƒªã‚¹ãƒˆã«ç™»éŒ² */
; 69   : 	pAct = GetAction( PRIO_JIKI, sizeof( JIKI ) );

  00001	68 40 01 00 00	 push	 320			; 00000140H
  00006	6a 03		 push	 3
  00008	e8 00 00 00 00	 call	 ?GetAction@@YAPAUaction@@EI@Z ; GetAction
  0000d	8b f8		 mov	 edi, eax
  0000f	83 c4 08	 add	 esp, 8

; 70   : 	if( pAct == NULL ) return NULL;

  00012	85 ff		 test	 edi, edi
  00014	75 02		 jne	 SHORT $LN2@MakeJiki
  00016	5f		 pop	 edi

; 125  : 	
; 126  : }

  00017	c3		 ret	 0
$LN2@MakeJiki:

; 71   : 	
; 72   : 	/* äºˆå‚™æ§‹é€ ä½“ã®ã‚¢ãƒ‰ãƒ¬ã‚¹ */
; 73   : 	pYobi = ( JIKI *)pAct->pYobi;
; 74   : 	
; 75   : 	/* å®Ÿè¡Œé–¢æ•° */
; 76   : 	pAct->func = Jiki;
; 77   : 	/* è¡¨ç¤ºå„ªå…ˆåº¦ */
; 78   : 	pAct->dispPrio = DISP_PRIO_JIKI;
; 79   : 	// å½“ãŸã‚Šåˆ¤å®š + ãƒœãƒƒã‚¯ã‚¹è¡¨ç¤º
; 80   : 	pAct->atr |= ACT_ATR_HIT_BOX;

  00018	83 8f a4 00 00
	00 08		 or	 DWORD PTR [edi+164], 8
  0001f	56		 push	 esi
  00020	8b 77 0c	 mov	 esi, DWORD PTR [edi+12]
  00023	c7 47 08 00 00
	00 00		 mov	 DWORD PTR [edi+8], OFFSET ?Jiki@@YAXPAUaction@@@Z ; Jiki
  0002a	c6 47 15 1e	 mov	 BYTE PTR [edi+21], 30	; 0000001eH

; 81   : 	/* ã‚¹ãƒ—ãƒ©ã‚¤ãƒˆç•ªå· */
; 82   : 	//pAct->bmpNo = 31;
; 83   : 	//pAct->anim_chr_no = 20001;
; 84   : 	// anim_tbl.h ã®ç•ªå·
; 85   : 	pAct->anim_chr_no = 31555; // ã‚¤ãƒŽã‚·ã‚·

  0002e	c7 87 44 01 00
	00 43 7b 00 00	 mov	 DWORD PTR [edi+324], 31555 ; 00007b43H

; 86   : 	//pAct->anim_chr_no = 5200; // ãƒžã‚¦ã‚¹ã‚«ãƒ¼ã‚½ãƒ«
; 87   : 	//pAct->anim_chr_no = 9350; // SCORE
; 88   : 	// å‹•ä½œç•ªå·
; 89   : 	//pAct->anim_no = ANIM_ATTACK;
; 90   : 	pAct->anim_no = ANIM_STAND;
; 91   : 	pAct->anim_no = ANIM_STAND + 1;

  00038	c7 87 4c 01 00
	00 04 00 00 00	 mov	 DWORD PTR [edi+332], 4

; 92   : 	// ã‚¢ãƒ‹ãƒ¡ãƒ¼ã‚·ãƒ§ãƒ³å‘ã( ï¼ï½žï¼— )( ä¸‹ãŒï¼ã§å³å›žã‚Š )
; 93   : 	pAct->anim_ang = 0;

  00042	c7 87 54 01 00
	00 00 00 00 00	 mov	 DWORD PTR [edi+340], 0

; 94   : 	/* ï¼¨ï¼° */
; 95   : 	pAct->hp = 100;

  0004c	c7 47 78 64 00
	00 00		 mov	 DWORD PTR [edi+120], 100 ; 00000064H

; 96   : 	/* åˆæœŸä½ç½® */
; 97   : 	pAct->x = 304;

  00053	c7 47 18 30 01
	00 00		 mov	 DWORD PTR [edi+24], 304	; 00000130H

; 98   : 	pAct->y = 400;

  0005a	c7 47 1c 90 01
	00 00		 mov	 DWORD PTR [edi+28], 400	; 00000190H

; 99   : 
; 100  : 	/* æ•µä½œæˆ */
; 101  : 	MakeEnemy();

  00061	e8 00 00 00 00	 call	 ?MakeEnemy@@YAPAUaction@@XZ ; MakeEnemy

; 102  : 	/* ï¼¢ï¼§ä½œæˆ */
; 103  : 	MakeBg();

  00066	e8 00 00 00 00	 call	 ?MakeBg@@YAPAUaction@@XZ ; MakeBg

; 104  : 	
; 105  : 	/* ã‚±ãƒ³ä½œæˆ */
; 106  : 	MakeKen();

  0006b	e8 00 00 00 00	 call	 ?MakeKen@@YAPAUaction@@XZ ; MakeKen

; 107  : 	
; 108  : 	/* æ”»æ’ƒã®ç¨®é¡ž */
; 109  : 	//pYobi->attackKind = TAMA_DIR;
; 110  : 	pYobi->attackKind = TAMA_3WAY;

  00070	c7 46 14 02 00
	00 00		 mov	 DWORD PTR [esi+20], 2

; 111  : 	/* å¼¾æ–¹å‘ */
; 112  : 	pYobi->tamaDir = 1;
; 113  : 	pYobi->tamaDx = 1;
; 114  : 	/* ã‚°ãƒ­ãƒ¼ãƒãƒ«ã«ä¿å­˜ */
; 115  : 	pJiki = pAct;
; 116  : 	
; 117  : 	// æ–‡å­—åˆ—ã®é•·ã•
; 118  : 	pYobi->strTestBuffer.len = 10;
; 119  : 	// æ–‡å­—åˆ—ã®è‰²
; 120  : 	pYobi->strTestBuffer.color = 1;
; 121  : 	pYobi->strTestBuffer.x = 320;
; 122  : 	pYobi->strTestBuffer.y = 260;
; 123  : 	
; 124  : 	return pAct;

  00077	8b c7		 mov	 eax, edi
  00079	c7 46 0c 01 00
	00 00		 mov	 DWORD PTR [esi+12], 1
  00080	c7 46 10 01 00
	00 00		 mov	 DWORD PTR [esi+16], 1
  00087	89 3d 00 00 00
	00		 mov	 DWORD PTR ?pJiki@@3PAUaction@@A, edi ; pJiki
  0008d	c6 86 1c 01 00
	00 0a		 mov	 BYTE PTR [esi+284], 10	; 0000000aH
  00094	c6 86 20 01 00
	00 01		 mov	 BYTE PTR [esi+288], 1
  0009b	c7 86 24 01 00
	00 40 01 00 00	 mov	 DWORD PTR [esi+292], 320 ; 00000140H
  000a5	c7 86 28 01 00
	00 04 01 00 00	 mov	 DWORD PTR [esi+296], 260 ; 00000104H
  000af	5e		 pop	 esi
  000b0	5f		 pop	 edi

; 125  : 	
; 126  : }

  000b1	c3		 ret	 0
?MakeJiki@@YAPAUaction@@XZ ENDP				; MakeJiki
_TEXT	ENDS
END
