; Listing generated by Microsoft (R) Optimizing Compiler Version 19.29.30133.0 

	TITLE	\\VBOXSVR\_stoneage\repos\ssm-sacli\Release\pat_dat.obj
	.686P
	.XMM
	include listing.inc
	.model	flat

INCLUDELIB LIBCMT
INCLUDELIB OLDNAMES

PUBLIC	?pPatTbl00@@3PAPAHA				; pPatTbl00
PUBLIC	?pPatTbl01@@3PAPAHA				; pPatTbl01
PUBLIC	?pPatTbl02@@3PAPAHA				; pPatTbl02
PUBLIC	?pPatTbl03@@3PAPAHA				; pPatTbl03
_DATA	SEGMENT
?PAT0_000@@3PAHA DD 02H					; PAT0_000
	DD	0280H
	DD	01e0H
	DD	00H
	DD	00H
	DD	00H
	DD	00H
	DD	00H
	DD	01e0H
	DD	00H
	DD	00H
?PAT0_001@@3PAHA DD 01H					; PAT0_001
	DD	020H
	DD	020H
	DD	00H
	DD	00H
	DD	00H
	DD	00H
?PAT0_002@@3PAHA DD 01H					; PAT0_002
	DD	08H
	DD	08H
	DD	00H
	DD	00H
	DD	00H
	DD	00H
?PAT2_000@@3PAHA DD 01H					; PAT2_000
	DD	010H
	DD	010H
	DD	00H
	DD	00H
	DD	00H
	DD	00H
?PAT2_001@@3PAHA DD 01H					; PAT2_001
	DD	010H
	DD	010H
	DD	00H
	DD	00H
	DD	010H
	DD	00H
?PAT2_002@@3PAHA DD 01H					; PAT2_002
	DD	010H
	DD	010H
	DD	00H
	DD	00H
	DD	020H
	DD	00H
?PAT2_003@@3PAHA DD 01H					; PAT2_003
	DD	010H
	DD	010H
	DD	00H
	DD	00H
	DD	030H
	DD	00H
?PAT2_004@@3PAHA DD 01H					; PAT2_004
	DD	010H
	DD	010H
	DD	00H
	DD	00H
	DD	040H
	DD	00H
?PAT2_005@@3PAHA DD 01H					; PAT2_005
	DD	010H
	DD	010H
	DD	00H
	DD	00H
	DD	050H
	DD	00H
?PAT2_006@@3PAHA DD 01H					; PAT2_006
	DD	010H
	DD	010H
	DD	00H
	DD	00H
	DD	060H
	DD	00H
?PAT2_007@@3PAHA DD 01H					; PAT2_007
	DD	010H
	DD	010H
	DD	00H
	DD	00H
	DD	070H
	DD	00H
?PAT2_008@@3PAHA DD 01H					; PAT2_008
	DD	010H
	DD	010H
	DD	00H
	DD	00H
	DD	080H
	DD	00H
?PAT2_009@@3PAHA DD 01H					; PAT2_009
	DD	010H
	DD	010H
	DD	00H
	DD	00H
	DD	090H
	DD	00H
?PAT2_010@@3PAHA DD 01H					; PAT2_010
	DD	010H
	DD	010H
	DD	00H
	DD	00H
	DD	00H
	DD	010H
?PAT2_011@@3PAHA DD 01H					; PAT2_011
	DD	010H
	DD	010H
	DD	00H
	DD	00H
	DD	010H
	DD	010H
?PAT2_012@@3PAHA DD 01H					; PAT2_012
	DD	010H
	DD	010H
	DD	00H
	DD	00H
	DD	020H
	DD	010H
?PAT2_013@@3PAHA DD 01H					; PAT2_013
	DD	010H
	DD	010H
	DD	00H
	DD	00H
	DD	030H
	DD	010H
?PAT2_014@@3PAHA DD 01H					; PAT2_014
	DD	010H
	DD	010H
	DD	00H
	DD	00H
	DD	040H
	DD	010H
?PAT2_015@@3PAHA DD 01H					; PAT2_015
	DD	010H
	DD	010H
	DD	00H
	DD	00H
	DD	050H
	DD	010H
?PAT2_016@@3PAHA DD 01H					; PAT2_016
	DD	010H
	DD	010H
	DD	00H
	DD	00H
	DD	060H
	DD	010H
?PAT2_017@@3PAHA DD 01H					; PAT2_017
	DD	010H
	DD	010H
	DD	00H
	DD	00H
	DD	070H
	DD	010H
?PAT2_018@@3PAHA DD 01H					; PAT2_018
	DD	010H
	DD	010H
	DD	00H
	DD	00H
	DD	080H
	DD	010H
?PAT2_019@@3PAHA DD 01H					; PAT2_019
	DD	010H
	DD	010H
	DD	00H
	DD	00H
	DD	090H
	DD	010H
?PAT2_020@@3PAHA DD 01H					; PAT2_020
	DD	010H
	DD	010H
	DD	00H
	DD	00H
	DD	0a0H
	DD	010H
?PAT2_021@@3PAHA DD 01H					; PAT2_021
	DD	010H
	DD	010H
	DD	00H
	DD	00H
	DD	0b0H
	DD	010H
?PAT2_022@@3PAHA DD 01H					; PAT2_022
	DD	010H
	DD	010H
	DD	00H
	DD	00H
	DD	0c0H
	DD	010H
?PAT2_023@@3PAHA DD 01H					; PAT2_023
	DD	010H
	DD	010H
	DD	00H
	DD	00H
	DD	0d0H
	DD	010H
?PAT2_024@@3PAHA DD 01H					; PAT2_024
	DD	010H
	DD	010H
	DD	00H
	DD	00H
	DD	0e0H
	DD	010H
?PAT2_025@@3PAHA DD 01H					; PAT2_025
	DD	010H
	DD	010H
	DD	00H
	DD	00H
	DD	0f0H
	DD	010H
?PAT2_026@@3PAHA DD 01H					; PAT2_026
	DD	010H
	DD	010H
	DD	00H
	DD	00H
	DD	0100H
	DD	010H
?PAT2_027@@3PAHA DD 01H					; PAT2_027
	DD	010H
	DD	010H
	DD	00H
	DD	00H
	DD	0110H
	DD	010H
?PAT2_028@@3PAHA DD 01H					; PAT2_028
	DD	010H
	DD	010H
	DD	00H
	DD	00H
	DD	0120H
	DD	010H
?PAT2_029@@3PAHA DD 01H					; PAT2_029
	DD	010H
	DD	010H
	DD	00H
	DD	00H
	DD	0130H
	DD	010H
?PAT2_030@@3PAHA DD 01H					; PAT2_030
	DD	010H
	DD	010H
	DD	00H
	DD	00H
	DD	0140H
	DD	010H
?PAT2_031@@3PAHA DD 01H					; PAT2_031
	DD	010H
	DD	010H
	DD	00H
	DD	00H
	DD	0150H
	DD	010H
?PAT2_032@@3PAHA DD 01H					; PAT2_032
	DD	010H
	DD	010H
	DD	00H
	DD	00H
	DD	0160H
	DD	010H
?PAT2_033@@3PAHA DD 01H					; PAT2_033
	DD	010H
	DD	010H
	DD	00H
	DD	00H
	DD	0170H
	DD	010H
?PAT2_034@@3PAHA DD 01H					; PAT2_034
	DD	010H
	DD	010H
	DD	00H
	DD	00H
	DD	0180H
	DD	010H
?PAT2_035@@3PAHA DD 01H					; PAT2_035
	DD	010H
	DD	010H
	DD	00H
	DD	00H
	DD	0190H
	DD	010H
?PAT1_060@@3PAHA DD 01H					; PAT1_060
	DD	08H
	DD	010H
	DD	0fffffffcH
	DD	0fffffff0H
	DD	00H
	DD	03840H
?PAT1_000@@3PAHA DD 08H					; PAT1_000
	DD	08H
	DD	010H
	DD	0fffffffcH
	DD	0ffffffd0H
	DD	00H
	DD	00H
	DD	04H
	DD	0ffffffd0H
	DD	00H
	DD	010H
	DD	04H
	DD	0ffffffe0H
	DD	00H
	DD	020H
	DD	0fffffffcH
	DD	0ffffffe0H
	DD	00H
	DD	030H
	DD	0fffffff4H
	DD	0ffffffe0H
	DD	00H
	DD	040H
	DD	0fffffff4H
	DD	0fffffff0H
	DD	00H
	DD	050H
	DD	0fffffffcH
	DD	0fffffff0H
	DD	00H
	DD	060H
	DD	04H
	DD	0fffffff0H
	DD	00H
	DD	070H
?PAT1_061@@3PAHA DD 02H					; PAT1_061
	DD	08H
	DD	010H
	DD	0fffffffcH
	DD	0ffffffe0H
	DD	00H
	DD	03850H
	DD	0fffffffcH
	DD	0fffffff0H
	DD	00H
	DD	03860H
?PAT1_001@@3PAHA DD 08H					; PAT1_001
	DD	08H
	DD	010H
	DD	0fffffffcH
	DD	0ffffffd0H
	DD	00H
	DD	080H
	DD	04H
	DD	0ffffffd0H
	DD	00H
	DD	090H
	DD	04H
	DD	0ffffffe0H
	DD	00H
	DD	0a0H
	DD	0fffffffcH
	DD	0ffffffe0H
	DD	00H
	DD	0b0H
	DD	0fffffff4H
	DD	0ffffffe0H
	DD	00H
	DD	0c0H
	DD	0fffffff4H
	DD	0fffffff0H
	DD	00H
	DD	0d0H
	DD	0fffffffcH
	DD	0fffffff0H
	DD	00H
	DD	0e0H
	DD	04H
	DD	0fffffff0H
	DD	00H
	DD	0f0H
?PAT1_062@@3PAHA DD 02H					; PAT1_062
	DD	08H
	DD	010H
	DD	0fffffffcH
	DD	0ffffffe0H
	DD	00H
	DD	03870H
	DD	0fffffffcH
	DD	0fffffff0H
	DD	00H
	DD	03880H
?PAT1_002@@3PAHA DD 09H					; PAT1_002
	DD	08H
	DD	010H
	DD	0fffffff4H
	DD	0ffffffd0H
	DD	00H
	DD	0100H
	DD	0fffffffcH
	DD	0ffffffd0H
	DD	00H
	DD	0110H
	DD	04H
	DD	0ffffffd0H
	DD	00H
	DD	0120H
	DD	04H
	DD	0ffffffe0H
	DD	00H
	DD	0130H
	DD	0fffffffcH
	DD	0ffffffe0H
	DD	00H
	DD	0140H
	DD	0fffffff4H
	DD	0ffffffe0H
	DD	00H
	DD	0150H
	DD	0fffffff4H
	DD	0fffffff0H
	DD	00H
	DD	0160H
	DD	0fffffffcH
	DD	0fffffff0H
	DD	00H
	DD	0170H
	DD	04H
	DD	0fffffff0H
	DD	00H
	DD	0180H
?PAT1_063@@3PAHA DD 01H					; PAT1_063
	DD	08H
	DD	010H
	DD	0fffffffcH
	DD	0fffffff0H
	DD	00H
	DD	03890H
?PAT1_003@@3PAHA DD 09H					; PAT1_003
	DD	08H
	DD	010H
	DD	0fffffff4H
	DD	0ffffffd0H
	DD	00H
	DD	0190H
	DD	0fffffffcH
	DD	0ffffffd0H
	DD	00H
	DD	01a0H
	DD	04H
	DD	0ffffffd0H
	DD	00H
	DD	01b0H
	DD	04H
	DD	0ffffffe0H
	DD	00H
	DD	01c0H
	DD	0fffffffcH
	DD	0ffffffe0H
	DD	00H
	DD	01d0H
	DD	0fffffff4H
	DD	0ffffffe0H
	DD	00H
	DD	01e0H
	DD	0fffffff4H
	DD	0fffffff0H
	DD	00H
	DD	01f0H
	DD	0fffffffcH
	DD	0fffffff0H
	DD	00H
	DD	0200H
	DD	04H
	DD	0fffffff0H
	DD	00H
	DD	0210H
?PAT1_064@@3PAHA DD 02H					; PAT1_064
	DD	08H
	DD	010H
	DD	0fffffffcH
	DD	0ffffffe0H
	DD	00H
	DD	038a0H
	DD	0fffffffcH
	DD	0fffffff0H
	DD	00H
	DD	038b0H
?PAT1_004@@3PAHA DD 0aH					; PAT1_004
	DD	08H
	DD	010H
	DD	0fffffffcH
	DD	0ffffffd0H
	DD	00H
	DD	0220H
	DD	04H
	DD	0ffffffd0H
	DD	00H
	DD	0230H
	DD	0cH
	DD	0ffffffd0H
	DD	00H
	DD	0240H
	DD	0cH
	DD	0ffffffe0H
	DD	00H
	DD	0250H
	DD	04H
	DD	0ffffffe0H
	DD	00H
	DD	0260H
	DD	0fffffffcH
	DD	0ffffffe0H
	DD	00H
	DD	0270H
	DD	0fffffff4H
	DD	0ffffffe0H
	DD	00H
	DD	0280H
	DD	0fffffff4H
	DD	0fffffff0H
	DD	00H
	DD	0290H
	DD	0fffffffcH
	DD	0fffffff0H
	DD	00H
	DD	02a0H
	DD	04H
	DD	0fffffff0H
	DD	00H
	DD	02b0H
?PAT1_065@@3PAHA DD 01H					; PAT1_065
	DD	08H
	DD	010H
	DD	0fffffffcH
	DD	0fffffff0H
	DD	00H
	DD	038c0H
?PAT1_005@@3PAHA DD 0cH					; PAT1_005
	DD	08H
	DD	010H
	DD	0fffffffcH
	DD	0ffffffd0H
	DD	00H
	DD	02c0H
	DD	04H
	DD	0ffffffd0H
	DD	00H
	DD	02d0H
	DD	0cH
	DD	0ffffffd0H
	DD	00H
	DD	02e0H
	DD	014H
	DD	0ffffffd0H
	DD	00H
	DD	02f0H
	DD	014H
	DD	0ffffffe0H
	DD	00H
	DD	0300H
	DD	0cH
	DD	0ffffffe0H
	DD	00H
	DD	0310H
	DD	04H
	DD	0ffffffe0H
	DD	00H
	DD	0320H
	DD	0fffffffcH
	DD	0ffffffe0H
	DD	00H
	DD	0330H
	DD	0fffffff4H
	DD	0ffffffe0H
	DD	00H
	DD	0340H
	DD	0fffffff4H
	DD	0fffffff0H
	DD	00H
	DD	0350H
	DD	0fffffffcH
	DD	0fffffff0H
	DD	00H
	DD	0360H
	DD	04H
	DD	0fffffff0H
	DD	00H
	DD	0370H
?pPatTbl00@@3PAPAHA DD FLAT:?PAT0_000@@3PAHA		; pPatTbl00
	DD	FLAT:?PAT0_001@@3PAHA
	DD	FLAT:?PAT0_002@@3PAHA
?PAT1_006@@3PAHA DD 0aH					; PAT1_006
	DD	08H
	DD	010H
	DD	0fffffffcH
	DD	0ffffffd0H
	DD	00H
	DD	0380H
	DD	04H
	DD	0ffffffd0H
	DD	00H
	DD	0390H
	DD	04H
	DD	0ffffffe0H
	DD	00H
	DD	03a0H
	DD	0cH
	DD	0ffffffe0H
	DD	00H
	DD	03b0H
	DD	0cH
	DD	0fffffff0H
	DD	00H
	DD	03c0H
	DD	04H
	DD	0fffffff0H
	DD	00H
	DD	03d0H
	DD	0fffffffcH
	DD	0fffffff0H
	DD	00H
	DD	03e0H
	DD	0fffffff4H
	DD	0fffffff0H
	DD	00H
	DD	03f0H
	DD	0fffffff4H
	DD	0ffffffe0H
	DD	00H
	DD	0400H
	DD	0fffffffcH
	DD	0ffffffe0H
	DD	00H
	DD	0410H
?PAT3_000@@3PAHA DD 01H					; PAT3_000
	DD	044H
	DD	05eH
	DD	00H
	DD	00H
	DD	00H
	DD	00H
?PAT1_007@@3PAHA DD 09H					; PAT1_007
	DD	08H
	DD	010H
	DD	0fffffffbH
	DD	0ffffffd0H
	DD	00H
	DD	0420H
	DD	03H
	DD	0ffffffd0H
	DD	00H
	DD	0430H
	DD	03H
	DD	0ffffffe0H
	DD	00H
	DD	0440H
	DD	0bH
	DD	0ffffffe0H
	DD	00H
	DD	0450H
	DD	0bH
	DD	0fffffff0H
	DD	00H
	DD	0460H
	DD	03H
	DD	0fffffff0H
	DD	00H
	DD	0470H
	DD	0fffffffbH
	DD	0fffffff0H
	DD	00H
	DD	0480H
	DD	0fffffff3H
	DD	0fffffff0H
	DD	00H
	DD	0490H
	DD	0fffffffbH
	DD	0ffffffe0H
	DD	00H
	DD	04a0H
?PAT3_001@@3PAHA DD 01H					; PAT3_001
	DD	044H
	DD	05eH
	DD	00H
	DD	00H
	DD	044H
	DD	00H
?PAT1_008@@3PAHA DD 0aH					; PAT1_008
	DD	08H
	DD	010H
	DD	0fffffffbH
	DD	0ffffffd0H
	DD	00H
	DD	04b0H
	DD	03H
	DD	0ffffffd0H
	DD	00H
	DD	04c0H
	DD	0bH
	DD	0ffffffd0H
	DD	00H
	DD	04d0H
	DD	0bH
	DD	0ffffffe0H
	DD	00H
	DD	04e0H
	DD	03H
	DD	0ffffffe0H
	DD	00H
	DD	04f0H
	DD	0fffffffbH
	DD	0ffffffe0H
	DD	00H
	DD	0500H
	DD	0fffffffbH
	DD	0fffffff0H
	DD	00H
	DD	0510H
	DD	03H
	DD	0fffffff0H
	DD	00H
	DD	0520H
	DD	0bH
	DD	0fffffff0H
	DD	00H
	DD	0530H
	DD	0fffffff3H
	DD	0fffffff0H
	DD	00H
	DD	0540H
?PAT3_002@@3PAHA DD 01H					; PAT3_002
	DD	044H
	DD	05eH
	DD	00H
	DD	00H
	DD	088H
	DD	00H
?PAT1_009@@3PAHA DD 0aH					; PAT1_009
	DD	08H
	DD	010H
	DD	03H
	DD	0ffffffd0H
	DD	00H
	DD	0550H
	DD	0bH
	DD	0ffffffd0H
	DD	00H
	DD	0560H
	DD	0bH
	DD	0ffffffe0H
	DD	00H
	DD	0570H
	DD	013H
	DD	0ffffffe0H
	DD	00H
	DD	0580H
	DD	03H
	DD	0ffffffe0H
	DD	00H
	DD	0590H
	DD	0fffffffbH
	DD	0ffffffe0H
	DD	00H
	DD	05a0H
	DD	0fffffffbH
	DD	0fffffff0H
	DD	00H
	DD	05b0H
	DD	03H
	DD	0fffffff0H
	DD	00H
	DD	05c0H
	DD	0bH
	DD	0fffffff0H
	DD	00H
	DD	05d0H
	DD	0fffffff3H
	DD	0fffffff0H
	DD	00H
	DD	05e0H
?PAT3_003@@3PAHA DD 01H					; PAT3_003
	DD	044H
	DD	05eH
	DD	00H
	DD	00H
	DD	0ccH
	DD	00H
?PAT1_00A@@3PAHA DD 09H					; PAT1_00A
	DD	08H
	DD	010H
	DD	0fffffff4H
	DD	0ffffffd0H
	DD	00H
	DD	05f0H
	DD	0fffffffcH
	DD	0ffffffd0H
	DD	00H
	DD	0600H
	DD	04H
	DD	0ffffffd0H
	DD	00H
	DD	0610H
	DD	04H
	DD	0ffffffe0H
	DD	00H
	DD	0620H
	DD	0fffffffcH
	DD	0ffffffe0H
	DD	00H
	DD	0630H
	DD	0fffffff4H
	DD	0ffffffe0H
	DD	00H
	DD	0640H
	DD	0fffffff4H
	DD	0fffffff0H
	DD	00H
	DD	0650H
	DD	0fffffffcH
	DD	0fffffff0H
	DD	00H
	DD	0660H
	DD	04H
	DD	0fffffff0H
	DD	00H
	DD	0670H
?PAT3_004@@3PAHA DD 01H					; PAT3_004
	DD	048H
	DD	05dH
	DD	00H
	DD	00H
	DD	00H
	DD	05eH
?PAT1_00B@@3PAHA DD 09H					; PAT1_00B
	DD	08H
	DD	010H
	DD	0fffffffcH
	DD	0ffffffd0H
	DD	00H
	DD	0680H
	DD	04H
	DD	0ffffffd0H
	DD	00H
	DD	0690H
	DD	04H
	DD	0ffffffe0H
	DD	00H
	DD	06a0H
	DD	0cH
	DD	0ffffffe0H
	DD	00H
	DD	06b0H
	DD	0fffffffcH
	DD	0ffffffe0H
	DD	00H
	DD	06c0H
	DD	0fffffff4H
	DD	0ffffffe0H
	DD	00H
	DD	06d0H
	DD	0fffffff4H
	DD	0fffffff0H
	DD	00H
	DD	06e0H
	DD	0fffffffcH
	DD	0fffffff0H
	DD	00H
	DD	06f0H
	DD	04H
	DD	0fffffff0H
	DD	00H
	DD	0700H
?PAT3_005@@3PAHA DD 01H					; PAT3_005
	DD	048H
	DD	05dH
	DD	00H
	DD	00H
	DD	048H
	DD	05eH
?PAT1_00C@@3PAHA DD 0cH					; PAT1_00C
	DD	08H
	DD	010H
	DD	0fffffffcH
	DD	0ffffffd0H
	DD	00H
	DD	0710H
	DD	04H
	DD	0ffffffd0H
	DD	00H
	DD	0720H
	DD	0cH
	DD	0ffffffd0H
	DD	00H
	DD	0730H
	DD	014H
	DD	0ffffffd0H
	DD	00H
	DD	0740H
	DD	014H
	DD	0ffffffe0H
	DD	00H
	DD	0750H
	DD	0cH
	DD	0ffffffe0H
	DD	00H
	DD	0760H
	DD	04H
	DD	0ffffffe0H
	DD	00H
	DD	0770H
	DD	0fffffffcH
	DD	0ffffffe0H
	DD	00H
	DD	0780H
	DD	0fffffff4H
	DD	0ffffffe0H
	DD	00H
	DD	0790H
	DD	0fffffff4H
	DD	0fffffff0H
	DD	00H
	DD	07a0H
	DD	0fffffffcH
	DD	0fffffff0H
	DD	00H
	DD	07b0H
	DD	04H
	DD	0fffffff0H
	DD	00H
	DD	07c0H
?PAT3_006@@3PAHA DD 01H					; PAT3_006
	DD	048H
	DD	05dH
	DD	00H
	DD	00H
	DD	090H
	DD	05eH
?PAT1_00D@@3PAHA DD 0aH					; PAT1_00D
	DD	08H
	DD	010H
	DD	0fffffffeH
	DD	0ffffffd0H
	DD	00H
	DD	07d0H
	DD	06H
	DD	0ffffffd0H
	DD	00H
	DD	07e0H
	DD	0eH
	DD	0ffffffd0H
	DD	00H
	DD	07f0H
	DD	0eH
	DD	0ffffffe0H
	DD	00H
	DD	0800H
	DD	06H
	DD	0ffffffe0H
	DD	00H
	DD	0810H
	DD	0fffffffeH
	DD	0ffffffe0H
	DD	00H
	DD	0820H
	DD	0fffffff6H
	DD	0ffffffe0H
	DD	00H
	DD	0830H
	DD	0fffffff6H
	DD	0fffffff0H
	DD	00H
	DD	0840H
	DD	0fffffffeH
	DD	0fffffff0H
	DD	00H
	DD	0850H
	DD	06H
	DD	0fffffff0H
	DD	00H
	DD	0860H
?PAT3_007@@3PAHA DD 01H					; PAT3_007
	DD	048H
	DD	05dH
	DD	00H
	DD	00H
	DD	0d8H
	DD	05eH
?PAT1_00E@@3PAHA DD 0cH					; PAT1_00E
	DD	08H
	DD	010H
	DD	0fffffff4H
	DD	0ffffffd0H
	DD	00H
	DD	0870H
	DD	0fffffffcH
	DD	0ffffffd0H
	DD	00H
	DD	0880H
	DD	04H
	DD	0ffffffd0H
	DD	00H
	DD	0890H
	DD	0cH
	DD	0ffffffd0H
	DD	00H
	DD	08a0H
	DD	0cH
	DD	0ffffffe0H
	DD	00H
	DD	08b0H
	DD	04H
	DD	0ffffffe0H
	DD	00H
	DD	08c0H
	DD	0fffffffcH
	DD	0ffffffe0H
	DD	00H
	DD	08d0H
	DD	0fffffff4H
	DD	0ffffffe0H
	DD	00H
	DD	08e0H
	DD	0fffffff4H
	DD	0fffffff0H
	DD	00H
	DD	08f0H
	DD	0fffffffcH
	DD	0fffffff0H
	DD	00H
	DD	0900H
	DD	04H
	DD	0fffffff0H
	DD	00H
	DD	0910H
	DD	0cH
	DD	0fffffff0H
	DD	00H
	DD	0920H
	ORG $+4
?PAT1_00F@@3PAHA DD 0aH					; PAT1_00F
	DD	08H
	DD	010H
	DD	0fffffffcH
	DD	0ffffffd0H
	DD	00H
	DD	0930H
	DD	04H
	DD	0ffffffd0H
	DD	00H
	DD	0940H
	DD	0cH
	DD	0ffffffd0H
	DD	00H
	DD	0950H
	DD	0cH
	DD	0ffffffe0H
	DD	00H
	DD	0960H
	DD	04H
	DD	0ffffffe0H
	DD	00H
	DD	0970H
	DD	0fffffffcH
	DD	0ffffffe0H
	DD	00H
	DD	0980H
	DD	0fffffffcH
	DD	0fffffff0H
	DD	00H
	DD	0990H
	DD	04H
	DD	0fffffff0H
	DD	00H
	DD	09a0H
	DD	0cH
	DD	0fffffff0H
	DD	00H
	DD	09b0H
	DD	0fffffff4H
	DD	0fffffff0H
	DD	00H
	DD	09c0H
	ORG $+4
?PAT1_010@@3PAHA DD 0bH					; PAT1_010
	DD	08H
	DD	010H
	DD	0fffffffcH
	DD	0ffffffd0H
	DD	00H
	DD	09d0H
	DD	04H
	DD	0ffffffd0H
	DD	00H
	DD	09e0H
	DD	0cH
	DD	0ffffffd0H
	DD	00H
	DD	09f0H
	DD	0cH
	DD	0ffffffe0H
	DD	00H
	DD	0a00H
	DD	04H
	DD	0ffffffe0H
	DD	00H
	DD	0a10H
	DD	0fffffffcH
	DD	0ffffffe0H
	DD	00H
	DD	0a20H
	DD	0fffffff4H
	DD	0ffffffe0H
	DD	00H
	DD	0a30H
	DD	0fffffff4H
	DD	0fffffff0H
	DD	00H
	DD	0a40H
	DD	0fffffffcH
	DD	0fffffff0H
	DD	00H
	DD	0a50H
	DD	04H
	DD	0fffffff0H
	DD	00H
	DD	0a60H
	DD	0cH
	DD	0fffffff0H
	DD	00H
	DD	0a70H
	ORG $+4
?PAT1_011@@3PAHA DD 09H					; PAT1_011
	DD	08H
	DD	010H
	DD	04H
	DD	0ffffffd0H
	DD	00H
	DD	0a80H
	DD	0cH
	DD	0ffffffd0H
	DD	00H
	DD	0a90H
	DD	0cH
	DD	0ffffffe0H
	DD	00H
	DD	0aa0H
	DD	04H
	DD	0ffffffe0H
	DD	00H
	DD	0ab0H
	DD	0fffffffcH
	DD	0ffffffe0H
	DD	00H
	DD	0ac0H
	DD	0fffffffcH
	DD	0fffffff0H
	DD	00H
	DD	0ad0H
	DD	04H
	DD	0fffffff0H
	DD	00H
	DD	0ae0H
	DD	0cH
	DD	0fffffff0H
	DD	00H
	DD	0af0H
	DD	0fffffff4H
	DD	0fffffff0H
	DD	00H
	DD	0b00H
	ORG $+4
?PAT1_012@@3PAHA DD 0aH					; PAT1_012
	DD	08H
	DD	010H
	DD	0fffffffcH
	DD	0ffffffd0H
	DD	00H
	DD	0b10H
	DD	04H
	DD	0ffffffd0H
	DD	00H
	DD	0b20H
	DD	04H
	DD	0ffffffe0H
	DD	00H
	DD	0b30H
	DD	0cH
	DD	0ffffffe0H
	DD	00H
	DD	0b40H
	DD	0cH
	DD	0fffffff0H
	DD	00H
	DD	0b50H
	DD	04H
	DD	0fffffff0H
	DD	00H
	DD	0b60H
	DD	0fffffffcH
	DD	0fffffff0H
	DD	00H
	DD	0b70H
	DD	0fffffff4H
	DD	0fffffff0H
	DD	00H
	DD	0b80H
	DD	0fffffff4H
	DD	0ffffffe0H
	DD	00H
	DD	0b90H
	DD	0fffffffcH
	DD	0ffffffe0H
	DD	00H
	DD	0ba0H
	ORG $+4
?PAT1_013@@3PAHA DD 08H					; PAT1_013
	DD	08H
	DD	010H
	DD	0fffffff4H
	DD	0ffffffe0H
	DD	00H
	DD	0bb0H
	DD	0fffffffcH
	DD	0ffffffe0H
	DD	00H
	DD	0bc0H
	DD	04H
	DD	0ffffffe0H
	DD	00H
	DD	0bd0H
	DD	0cH
	DD	0ffffffe0H
	DD	00H
	DD	0be0H
	DD	0cH
	DD	0fffffff0H
	DD	00H
	DD	0bf0H
	DD	04H
	DD	0fffffff0H
	DD	00H
	DD	0c00H
	DD	0fffffffcH
	DD	0fffffff0H
	DD	00H
	DD	0c10H
	DD	0fffffff4H
	DD	0fffffff0H
	DD	00H
	DD	0c20H
	ORG $+4
?PAT1_014@@3PAHA DD 07H					; PAT1_014
	DD	08H
	DD	010H
	DD	0fffffff4H
	DD	0ffffffe0H
	DD	00H
	DD	0c30H
	DD	0fffffffcH
	DD	0ffffffe0H
	DD	00H
	DD	0c40H
	DD	04H
	DD	0ffffffe0H
	DD	00H
	DD	0c50H
	DD	04H
	DD	0fffffff0H
	DD	00H
	DD	0c60H
	DD	0cH
	DD	0fffffff0H
	DD	00H
	DD	0c70H
	DD	0fffffffcH
	DD	0fffffff0H
	DD	00H
	DD	0c80H
	DD	0fffffff4H
	DD	0fffffff0H
	DD	00H
	DD	0c90H
	ORG $+4
?PAT1_015@@3PAHA DD 08H					; PAT1_015
	DD	08H
	DD	010H
	DD	0fffffff4H
	DD	0ffffffe0H
	DD	00H
	DD	0ca0H
	DD	0fffffffcH
	DD	0ffffffe0H
	DD	00H
	DD	0cb0H
	DD	04H
	DD	0ffffffe0H
	DD	00H
	DD	0cc0H
	DD	04H
	DD	0fffffff0H
	DD	00H
	DD	0cd0H
	DD	0cH
	DD	0fffffff0H
	DD	00H
	DD	0ce0H
	DD	014H
	DD	0fffffff0H
	DD	00H
	DD	0cf0H
	DD	0fffffffcH
	DD	0fffffff0H
	DD	00H
	DD	0d00H
	DD	0fffffff4H
	DD	0fffffff0H
	DD	00H
	DD	0d10H
	ORG $+4
?PAT1_016@@3PAHA DD 09H					; PAT1_016
	DD	08H
	DD	010H
	DD	0fffffff4H
	DD	0ffffffd0H
	DD	00H
	DD	0d20H
	DD	0fffffffcH
	DD	0ffffffd0H
	DD	00H
	DD	0d30H
	DD	04H
	DD	0ffffffd0H
	DD	00H
	DD	0d40H
	DD	04H
	DD	0ffffffe0H
	DD	00H
	DD	0d50H
	DD	0fffffffcH
	DD	0ffffffe0H
	DD	00H
	DD	0d60H
	DD	0fffffff4H
	DD	0ffffffe0H
	DD	00H
	DD	0d70H
	DD	0fffffff4H
	DD	0fffffff0H
	DD	00H
	DD	0d80H
	DD	0fffffffcH
	DD	0fffffff0H
	DD	00H
	DD	0d90H
	DD	04H
	DD	0fffffff0H
	DD	00H
	DD	0da0H
	ORG $+4
?PAT1_017@@3PAHA DD 08H					; PAT1_017
	DD	08H
	DD	010H
	DD	0fffffff4H
	DD	0ffffffe0H
	DD	00H
	DD	0db0H
	DD	0fffffffcH
	DD	0ffffffe0H
	DD	00H
	DD	0dc0H
	DD	04H
	DD	0ffffffe0H
	DD	00H
	DD	0dd0H
	DD	0cH
	DD	0ffffffe0H
	DD	00H
	DD	0de0H
	DD	0cH
	DD	0fffffff0H
	DD	00H
	DD	0df0H
	DD	04H
	DD	0fffffff0H
	DD	00H
	DD	0e00H
	DD	0fffffffcH
	DD	0fffffff0H
	DD	00H
	DD	0e10H
	DD	0fffffff4H
	DD	0fffffff0H
	DD	00H
	DD	0e20H
	ORG $+4
?PAT1_018@@3PAHA DD 08H					; PAT1_018
	DD	08H
	DD	010H
	DD	0fffffff7H
	DD	0ffffffe0H
	DD	00H
	DD	0e30H
	DD	0ffffffffH
	DD	0ffffffe0H
	DD	00H
	DD	0e40H
	DD	07H
	DD	0ffffffe0H
	DD	00H
	DD	0e50H
	DD	0fH
	DD	0ffffffe0H
	DD	00H
	DD	0e60H
	DD	0fH
	DD	0fffffff0H
	DD	00H
	DD	0e70H
	DD	07H
	DD	0fffffff0H
	DD	00H
	DD	0e80H
	DD	0ffffffffH
	DD	0fffffff0H
	DD	00H
	DD	0e90H
	DD	0fffffff7H
	DD	0fffffff0H
	DD	00H
	DD	0ea0H
	ORG $+4
?PAT1_019@@3PAHA DD 09H					; PAT1_019
	DD	08H
	DD	010H
	DD	0fffffffeH
	DD	0ffffffe0H
	DD	00H
	DD	0eb0H
	DD	06H
	DD	0ffffffe0H
	DD	00H
	DD	0ec0H
	DD	0eH
	DD	0ffffffe0H
	DD	00H
	DD	0ed0H
	DD	016H
	DD	0ffffffe0H
	DD	00H
	DD	0ee0H
	DD	016H
	DD	0fffffff0H
	DD	00H
	DD	0ef0H
	DD	01eH
	DD	0fffffff0H
	DD	00H
	DD	0f00H
	DD	0eH
	DD	0fffffff0H
	DD	00H
	DD	0f10H
	DD	06H
	DD	0fffffff0H
	DD	00H
	DD	0f20H
	DD	0fffffffeH
	DD	0fffffff0H
	DD	00H
	DD	0f30H
	ORG $+4
?PAT1_01A@@3PAHA DD 07H					; PAT1_01A
	DD	08H
	DD	010H
	DD	0fffffffeH
	DD	0ffffffe0H
	DD	00H
	DD	0f40H
	DD	06H
	DD	0ffffffe0H
	DD	00H
	DD	0f50H
	DD	0eH
	DD	0ffffffe0H
	DD	00H
	DD	0f60H
	DD	0eH
	DD	0fffffff0H
	DD	00H
	DD	0f70H
	DD	016H
	DD	0fffffff0H
	DD	00H
	DD	0f80H
	DD	06H
	DD	0fffffff0H
	DD	00H
	DD	0f90H
	DD	0fffffffeH
	DD	0fffffff0H
	DD	00H
	DD	0fa0H
	ORG $+4
?PAT1_01B@@3PAHA DD 05H					; PAT1_01B
	DD	08H
	DD	010H
	DD	0ffffffffH
	DD	0ffffffe0H
	DD	00H
	DD	0fb0H
	DD	07H
	DD	0ffffffe0H
	DD	00H
	DD	0fc0H
	DD	07H
	DD	0fffffff0H
	DD	00H
	DD	0fd0H
	DD	0ffffffffH
	DD	0fffffff0H
	DD	00H
	DD	0fe0H
	DD	0fffffff7H
	DD	0fffffff0H
	DD	00H
	DD	0ff0H
	ORG $+4
?PAT1_01C@@3PAHA DD 08H					; PAT1_01C
	DD	08H
	DD	010H
	DD	0fffffff5H
	DD	0ffffffe0H
	DD	00H
	DD	01000H
	DD	0fffffffdH
	DD	0ffffffe0H
	DD	00H
	DD	01010H
	DD	05H
	DD	0ffffffe0H
	DD	00H
	DD	01020H
	DD	0dH
	DD	0ffffffe0H
	DD	00H
	DD	01030H
	DD	0dH
	DD	0fffffff0H
	DD	00H
	DD	01040H
	DD	05H
	DD	0fffffff0H
	DD	00H
	DD	01050H
	DD	0fffffffdH
	DD	0fffffff0H
	DD	00H
	DD	01060H
	DD	0fffffff5H
	DD	0fffffff0H
	DD	00H
	DD	01070H
	ORG $+4
?PAT1_01D@@3PAHA DD 07H					; PAT1_01D
	DD	08H
	DD	010H
	DD	0fffffff5H
	DD	0ffffffe0H
	DD	00H
	DD	01080H
	DD	0fffffffdH
	DD	0ffffffe0H
	DD	00H
	DD	01090H
	DD	05H
	DD	0ffffffe0H
	DD	00H
	DD	010a0H
	DD	05H
	DD	0fffffff0H
	DD	00H
	DD	010b0H
	DD	0dH
	DD	0fffffff0H
	DD	00H
	DD	010c0H
	DD	0fffffffdH
	DD	0fffffff0H
	DD	00H
	DD	010d0H
	DD	0fffffff5H
	DD	0fffffff0H
	DD	00H
	DD	010e0H
	ORG $+4
?PAT1_01E@@3PAHA DD 09H					; PAT1_01E
	DD	08H
	DD	010H
	DD	0fffffffbH
	DD	0ffffffd0H
	DD	00H
	DD	010f0H
	DD	03H
	DD	0ffffffd0H
	DD	00H
	DD	01100H
	DD	03H
	DD	0ffffffe0H
	DD	00H
	DD	01110H
	DD	0bH
	DD	0ffffffe0H
	DD	00H
	DD	01120H
	DD	0fffffffbH
	DD	0ffffffe0H
	DD	00H
	DD	01130H
	DD	0fffffff3H
	DD	0ffffffe0H
	DD	00H
	DD	01140H
	DD	0fffffff3H
	DD	0fffffff0H
	DD	00H
	DD	01150H
	DD	0fffffffbH
	DD	0fffffff0H
	DD	00H
	DD	01160H
	DD	03H
	DD	0fffffff0H
	DD	00H
	DD	01170H
	ORG $+4
?PAT1_01F@@3PAHA DD 09H					; PAT1_01F
	DD	08H
	DD	010H
	DD	0fffffffbH
	DD	0ffffffd0H
	DD	00H
	DD	01180H
	DD	03H
	DD	0ffffffd0H
	DD	00H
	DD	01190H
	DD	03H
	DD	0ffffffe0H
	DD	00H
	DD	011a0H
	DD	0bH
	DD	0ffffffe0H
	DD	00H
	DD	011b0H
	DD	0fffffffbH
	DD	0ffffffe0H
	DD	00H
	DD	011c0H
	DD	0fffffff3H
	DD	0ffffffe0H
	DD	00H
	DD	011d0H
	DD	0fffffff3H
	DD	0fffffff0H
	DD	00H
	DD	011e0H
	DD	0fffffffbH
	DD	0fffffff0H
	DD	00H
	DD	011f0H
	DD	03H
	DD	0fffffff0H
	DD	00H
	DD	01200H
	ORG $+4
?PAT1_020@@3PAHA DD 09H					; PAT1_020
	DD	08H
	DD	010H
	DD	0fffffffbH
	DD	0ffffffd0H
	DD	00H
	DD	01210H
	DD	03H
	DD	0ffffffd0H
	DD	00H
	DD	01220H
	DD	03H
	DD	0ffffffe0H
	DD	00H
	DD	01230H
	DD	0bH
	DD	0ffffffe0H
	DD	00H
	DD	01240H
	DD	0fffffffbH
	DD	0ffffffe0H
	DD	00H
	DD	01250H
	DD	0fffffff3H
	DD	0ffffffe0H
	DD	00H
	DD	01260H
	DD	0fffffff3H
	DD	0fffffff0H
	DD	00H
	DD	01270H
	DD	0fffffffbH
	DD	0fffffff0H
	DD	00H
	DD	01280H
	DD	03H
	DD	0fffffff0H
	DD	00H
	DD	01290H
	ORG $+4
?PAT1_021@@3PAHA DD 09H					; PAT1_021
	DD	08H
	DD	010H
	DD	0fffffffbH
	DD	0ffffffd0H
	DD	00H
	DD	012a0H
	DD	03H
	DD	0ffffffd0H
	DD	00H
	DD	012b0H
	DD	03H
	DD	0ffffffe0H
	DD	00H
	DD	012c0H
	DD	0bH
	DD	0ffffffe0H
	DD	00H
	DD	012d0H
	DD	0fffffffbH
	DD	0ffffffe0H
	DD	00H
	DD	012e0H
	DD	0fffffff3H
	DD	0ffffffe0H
	DD	00H
	DD	012f0H
	DD	0fffffff3H
	DD	0fffffff0H
	DD	00H
	DD	01300H
	DD	0fffffffbH
	DD	0fffffff0H
	DD	00H
	DD	01310H
	DD	03H
	DD	0fffffff0H
	DD	00H
	DD	01320H
	ORG $+4
?PAT1_022@@3PAHA DD 09H					; PAT1_022
	DD	08H
	DD	010H
	DD	0fffffff0H
	DD	0ffffffd0H
	DD	00H
	DD	01330H
	DD	0fffffff8H
	DD	0ffffffd0H
	DD	00H
	DD	01340H
	DD	00H
	DD	0ffffffd0H
	DD	00H
	DD	01350H
	DD	08H
	DD	0ffffffd0H
	DD	00H
	DD	01360H
	DD	08H
	DD	0ffffffe0H
	DD	00H
	DD	01370H
	DD	00H
	DD	0ffffffe0H
	DD	00H
	DD	01380H
	DD	0fffffff8H
	DD	0ffffffe0H
	DD	00H
	DD	01390H
	DD	0fffffff8H
	DD	0fffffff0H
	DD	00H
	DD	013a0H
	DD	00H
	DD	0fffffff0H
	DD	00H
	DD	013b0H
	ORG $+4
?PAT1_023@@3PAHA DD 0bH					; PAT1_023
	DD	08H
	DD	010H
	DD	0fffffff0H
	DD	0ffffffcdH
	DD	00H
	DD	013c0H
	DD	0fffffff8H
	DD	0ffffffcdH
	DD	00H
	DD	013d0H
	DD	00H
	DD	0ffffffcdH
	DD	00H
	DD	013e0H
	DD	08H
	DD	0ffffffcdH
	DD	00H
	DD	013f0H
	DD	08H
	DD	0ffffffddH
	DD	00H
	DD	01400H
	DD	00H
	DD	0ffffffddH
	DD	00H
	DD	01410H
	DD	0fffffff8H
	DD	0ffffffddH
	DD	00H
	DD	01420H
	DD	0fffffff0H
	DD	0ffffffddH
	DD	00H
	DD	01430H
	DD	0fffffff0H
	DD	0ffffffedH
	DD	00H
	DD	01440H
	DD	0fffffff8H
	DD	0ffffffedH
	DD	00H
	DD	01450H
	DD	00H
	DD	0ffffffedH
	DD	00H
	DD	01460H
	ORG $+4
?PAT1_024@@3PAHA DD 0aH					; PAT1_024
	DD	08H
	DD	010H
	DD	0fffffff1H
	DD	0ffffffceH
	DD	00H
	DD	01470H
	DD	0fffffff9H
	DD	0ffffffceH
	DD	00H
	DD	01480H
	DD	01H
	DD	0ffffffceH
	DD	00H
	DD	01490H
	DD	09H
	DD	0ffffffceH
	DD	00H
	DD	014a0H
	DD	01H
	DD	0ffffffdeH
	DD	00H
	DD	014b0H
	DD	0fffffff9H
	DD	0ffffffdeH
	DD	00H
	DD	014c0H
	DD	0fffffff1H
	DD	0ffffffdeH
	DD	00H
	DD	014d0H
	DD	0fffffff1H
	DD	0ffffffeeH
	DD	00H
	DD	014e0H
	DD	0fffffff9H
	DD	0ffffffeeH
	DD	00H
	DD	014f0H
	DD	01H
	DD	0ffffffeeH
	DD	00H
	DD	01500H
	ORG $+4
?PAT1_025@@3PAHA DD 0aH					; PAT1_025
	DD	08H
	DD	010H
	DD	0fffffff9H
	DD	0ffffffc9H
	DD	00H
	DD	01510H
	DD	01H
	DD	0ffffffc9H
	DD	00H
	DD	01520H
	DD	09H
	DD	0ffffffc9H
	DD	00H
	DD	01530H
	DD	09H
	DD	0ffffffd9H
	DD	00H
	DD	01540H
	DD	01H
	DD	0ffffffd9H
	DD	00H
	DD	01550H
	DD	0fffffff9H
	DD	0ffffffd9H
	DD	00H
	DD	01560H
	DD	0fffffff1H
	DD	0ffffffd9H
	DD	00H
	DD	01570H
	DD	0fffffff1H
	DD	0ffffffe9H
	DD	00H
	DD	01580H
	DD	0fffffff9H
	DD	0ffffffe9H
	DD	00H
	DD	01590H
	DD	01H
	DD	0ffffffe9H
	DD	00H
	DD	015a0H
	ORG $+4
?PAT1_026@@3PAHA DD 09H					; PAT1_026
	DD	08H
	DD	010H
	DD	0fffffff8H
	DD	0ffffffccH
	DD	00H
	DD	015b0H
	DD	00H
	DD	0ffffffccH
	DD	00H
	DD	015c0H
	DD	00H
	DD	0ffffffdcH
	DD	00H
	DD	015d0H
	DD	08H
	DD	0ffffffdcH
	DD	00H
	DD	015e0H
	DD	0fffffff8H
	DD	0ffffffdcH
	DD	00H
	DD	015f0H
	DD	0fffffff0H
	DD	0ffffffdcH
	DD	00H
	DD	01600H
	DD	0fffffff0H
	DD	0ffffffecH
	DD	00H
	DD	01610H
	DD	0fffffff8H
	DD	0ffffffecH
	DD	00H
	DD	01620H
	DD	00H
	DD	0ffffffecH
	DD	00H
	DD	01630H
	ORG $+4
?PAT1_027@@3PAHA DD 0bH					; PAT1_027
	DD	08H
	DD	010H
	DD	0fffffff0H
	DD	0ffffffd0H
	DD	00H
	DD	01640H
	DD	0fffffff8H
	DD	0ffffffd0H
	DD	00H
	DD	01650H
	DD	00H
	DD	0ffffffd0H
	DD	00H
	DD	01660H
	DD	08H
	DD	0ffffffd0H
	DD	00H
	DD	01670H
	DD	08H
	DD	0ffffffe0H
	DD	00H
	DD	01680H
	DD	00H
	DD	0ffffffe0H
	DD	00H
	DD	01690H
	DD	0fffffff8H
	DD	0ffffffe0H
	DD	00H
	DD	016a0H
	DD	0fffffff0H
	DD	0ffffffe0H
	DD	00H
	DD	016b0H
	DD	0fffffff0H
	DD	0fffffff0H
	DD	00H
	DD	016c0H
	DD	0fffffff8H
	DD	0fffffff0H
	DD	00H
	DD	016d0H
	DD	00H
	DD	0fffffff0H
	DD	00H
	DD	016e0H
	ORG $+4
?PAT1_028@@3PAHA DD 07H					; PAT1_028
	DD	08H
	DD	010H
	DD	0fffffff0H
	DD	0ffffffd4H
	DD	00H
	DD	016f0H
	DD	0fffffff8H
	DD	0ffffffd4H
	DD	00H
	DD	01700H
	DD	00H
	DD	0ffffffd4H
	DD	00H
	DD	01710H
	DD	08H
	DD	0ffffffd4H
	DD	00H
	DD	01720H
	DD	00H
	DD	0ffffffe4H
	DD	00H
	DD	01730H
	DD	0fffffff8H
	DD	0ffffffe4H
	DD	00H
	DD	01740H
	DD	0fffffff0H
	DD	0ffffffe4H
	DD	00H
	DD	01750H
	ORG $+4
?PAT1_029@@3PAHA DD 07H					; PAT1_029
	DD	08H
	DD	010H
	DD	0fffffff0H
	DD	0ffffffd4H
	DD	00H
	DD	01760H
	DD	0fffffff8H
	DD	0ffffffd4H
	DD	00H
	DD	01770H
	DD	00H
	DD	0ffffffd4H
	DD	00H
	DD	01780H
	DD	08H
	DD	0ffffffd4H
	DD	00H
	DD	01790H
	DD	08H
	DD	0ffffffe4H
	DD	00H
	DD	017a0H
	DD	00H
	DD	0ffffffe4H
	DD	00H
	DD	017b0H
	DD	0fffffff8H
	DD	0ffffffe4H
	DD	00H
	DD	017c0H
	ORG $+4
?PAT1_02A@@3PAHA DD 08H					; PAT1_02A
	DD	08H
	DD	010H
	DD	0fffffff0H
	DD	0ffffffd4H
	DD	00H
	DD	017d0H
	DD	0fffffff8H
	DD	0ffffffd4H
	DD	00H
	DD	017e0H
	DD	00H
	DD	0ffffffd4H
	DD	00H
	DD	017f0H
	DD	08H
	DD	0ffffffd4H
	DD	00H
	DD	01800H
	DD	08H
	DD	0ffffffe4H
	DD	00H
	DD	01810H
	DD	00H
	DD	0ffffffe4H
	DD	00H
	DD	01820H
	DD	0fffffff8H
	DD	0ffffffe4H
	DD	00H
	DD	01830H
	DD	0fffffff0H
	DD	0ffffffe4H
	DD	00H
	DD	01840H
	ORG $+4
?PAT1_02B@@3PAHA DD 08H					; PAT1_02B
	DD	08H
	DD	010H
	DD	0fffffff0H
	DD	0ffffffd4H
	DD	00H
	DD	01850H
	DD	0fffffff8H
	DD	0ffffffd4H
	DD	00H
	DD	01860H
	DD	00H
	DD	0ffffffd4H
	DD	00H
	DD	01870H
	DD	08H
	DD	0ffffffd4H
	DD	00H
	DD	01880H
	DD	08H
	DD	0ffffffe4H
	DD	00H
	DD	01890H
	DD	00H
	DD	0ffffffe4H
	DD	00H
	DD	018a0H
	DD	0fffffff8H
	DD	0ffffffe4H
	DD	00H
	DD	018b0H
	DD	0fffffff0H
	DD	0ffffffe4H
	DD	00H
	DD	018c0H
	ORG $+4
?PAT1_02C@@3PAHA DD 08H					; PAT1_02C
	DD	08H
	DD	010H
	DD	0fffffff0H
	DD	0ffffffd4H
	DD	00H
	DD	018d0H
	DD	0fffffff8H
	DD	0ffffffd4H
	DD	00H
	DD	018e0H
	DD	00H
	DD	0ffffffd4H
	DD	00H
	DD	018f0H
	DD	08H
	DD	0ffffffd4H
	DD	00H
	DD	01900H
	DD	08H
	DD	0ffffffe4H
	DD	00H
	DD	01910H
	DD	00H
	DD	0ffffffe4H
	DD	00H
	DD	01920H
	DD	0fffffff8H
	DD	0ffffffe4H
	DD	00H
	DD	01930H
	DD	0fffffff0H
	DD	0ffffffe4H
	DD	00H
	DD	01940H
	ORG $+4
?PAT1_02D@@3PAHA DD 0bH					; PAT1_02D
	DD	08H
	DD	010H
	DD	0fffffff0H
	DD	0ffffffd0H
	DD	00H
	DD	01950H
	DD	0fffffff8H
	DD	0ffffffd0H
	DD	00H
	DD	01960H
	DD	00H
	DD	0ffffffd0H
	DD	00H
	DD	01970H
	DD	08H
	DD	0ffffffd0H
	DD	00H
	DD	01980H
	DD	08H
	DD	0ffffffe0H
	DD	00H
	DD	01990H
	DD	00H
	DD	0ffffffe0H
	DD	00H
	DD	019a0H
	DD	0fffffff8H
	DD	0ffffffe0H
	DD	00H
	DD	019b0H
	DD	0fffffff0H
	DD	0ffffffe0H
	DD	00H
	DD	019c0H
	DD	0fffffff0H
	DD	0fffffff0H
	DD	00H
	DD	019d0H
	DD	0fffffff8H
	DD	0fffffff0H
	DD	00H
	DD	019e0H
	DD	00H
	DD	0fffffff0H
	DD	00H
	DD	019f0H
	ORG $+4
?PAT1_02E@@3PAHA DD 0aH					; PAT1_02E
	DD	08H
	DD	010H
	DD	0fffffff0H
	DD	0ffffffd0H
	DD	00H
	DD	01a00H
	DD	0fffffff8H
	DD	0ffffffd0H
	DD	00H
	DD	01a10H
	DD	00H
	DD	0ffffffd0H
	DD	00H
	DD	01a20H
	DD	08H
	DD	0ffffffd0H
	DD	00H
	DD	01a30H
	DD	00H
	DD	0ffffffe0H
	DD	00H
	DD	01a40H
	DD	0fffffff8H
	DD	0ffffffe0H
	DD	00H
	DD	01a50H
	DD	0fffffff0H
	DD	0ffffffe0H
	DD	00H
	DD	01a60H
	DD	0fffffff0H
	DD	0fffffff0H
	DD	00H
	DD	01a70H
	DD	0fffffff8H
	DD	0fffffff0H
	DD	00H
	DD	01a80H
	DD	00H
	DD	0fffffff0H
	DD	00H
	DD	01a90H
	ORG $+4
?PAT1_02F@@3PAHA DD 0bH					; PAT1_02F
	DD	08H
	DD	010H
	DD	0fffffff0H
	DD	0ffffffd0H
	DD	00H
	DD	01aa0H
	DD	0fffffff8H
	DD	0ffffffd0H
	DD	00H
	DD	01ab0H
	DD	00H
	DD	0ffffffd0H
	DD	00H
	DD	01ac0H
	DD	08H
	DD	0ffffffd0H
	DD	00H
	DD	01ad0H
	DD	08H
	DD	0ffffffe0H
	DD	00H
	DD	01ae0H
	DD	00H
	DD	0ffffffe0H
	DD	00H
	DD	01af0H
	DD	0fffffff8H
	DD	0ffffffe0H
	DD	00H
	DD	01b00H
	DD	0fffffff0H
	DD	0ffffffe0H
	DD	00H
	DD	01b10H
	DD	0fffffff0H
	DD	0fffffff0H
	DD	00H
	DD	01b20H
	DD	0fffffff8H
	DD	0fffffff0H
	DD	00H
	DD	01b30H
	DD	08H
	DD	0fffffff0H
	DD	00H
	DD	01b40H
	ORG $+4
?PAT1_030@@3PAHA DD 09H					; PAT1_030
	DD	08H
	DD	010H
	DD	0fffffff9H
	DD	0ffffffd0H
	DD	00H
	DD	01b50H
	DD	01H
	DD	0ffffffd0H
	DD	00H
	DD	01b60H
	DD	01H
	DD	0ffffffe0H
	DD	00H
	DD	01b70H
	DD	09H
	DD	0ffffffe0H
	DD	00H
	DD	01b80H
	DD	0fffffff9H
	DD	0ffffffe0H
	DD	00H
	DD	01b90H
	DD	0fffffff1H
	DD	0ffffffe0H
	DD	00H
	DD	01ba0H
	DD	0fffffff1H
	DD	0fffffff0H
	DD	00H
	DD	01bb0H
	DD	0fffffff9H
	DD	0fffffff0H
	DD	00H
	DD	01bc0H
	DD	01H
	DD	0fffffff0H
	DD	00H
	DD	01bd0H
	ORG $+4
?PAT1_031@@3PAHA DD 0aH					; PAT1_031
	DD	08H
	DD	010H
	DD	0fffffff7H
	DD	0ffffffd0H
	DD	00H
	DD	01be0H
	DD	0ffffffffH
	DD	0ffffffd0H
	DD	00H
	DD	01bf0H
	DD	07H
	DD	0ffffffd0H
	DD	00H
	DD	01c00H
	DD	07H
	DD	0ffffffe0H
	DD	00H
	DD	01c10H
	DD	0ffffffffH
	DD	0ffffffe0H
	DD	00H
	DD	01c20H
	DD	0fffffff7H
	DD	0ffffffe0H
	DD	00H
	DD	01c30H
	DD	0ffffffefH
	DD	0ffffffe0H
	DD	00H
	DD	01c40H
	DD	0ffffffefH
	DD	0fffffff0H
	DD	00H
	DD	01c50H
	DD	0fffffff7H
	DD	0fffffff0H
	DD	00H
	DD	01c60H
	DD	0ffffffffH
	DD	0fffffff0H
	DD	00H
	DD	01c70H
	ORG $+4
?PAT1_032@@3PAHA DD 08H					; PAT1_032
	DD	08H
	DD	010H
	DD	0fffffff1H
	DD	0ffffffd0H
	DD	00H
	DD	01c80H
	DD	0fffffff9H
	DD	0ffffffd0H
	DD	00H
	DD	01c90H
	DD	0fffffff9H
	DD	0ffffffe0H
	DD	00H
	DD	01ca0H
	DD	01H
	DD	0ffffffe0H
	DD	00H
	DD	01cb0H
	DD	01H
	DD	0fffffff0H
	DD	00H
	DD	01cc0H
	DD	0fffffff9H
	DD	0fffffff0H
	DD	00H
	DD	01cd0H
	DD	0fffffff1H
	DD	0fffffff0H
	DD	00H
	DD	01ce0H
	DD	0fffffff1H
	DD	0ffffffe0H
	DD	00H
	DD	01cf0H
	ORG $+4
?PAT1_033@@3PAHA DD 08H					; PAT1_033
	DD	08H
	DD	010H
	DD	0fffffff8H
	DD	0ffffffd0H
	DD	00H
	DD	01d00H
	DD	00H
	DD	0ffffffd0H
	DD	00H
	DD	01d10H
	DD	00H
	DD	0ffffffe0H
	DD	00H
	DD	01d20H
	DD	0fffffff8H
	DD	0ffffffe0H
	DD	00H
	DD	01d30H
	DD	0fffffff0H
	DD	0ffffffe0H
	DD	00H
	DD	01d40H
	DD	0fffffff0H
	DD	0fffffff0H
	DD	00H
	DD	01d50H
	DD	0fffffff8H
	DD	0fffffff0H
	DD	00H
	DD	01d60H
	DD	00H
	DD	0fffffff0H
	DD	00H
	DD	01d70H
	ORG $+4
?PAT1_034@@3PAHA DD 06H					; PAT1_034
	DD	08H
	DD	010H
	DD	0fffffff0H
	DD	0ffffffe0H
	DD	00H
	DD	01d80H
	DD	0fffffff8H
	DD	0ffffffe0H
	DD	00H
	DD	01d90H
	DD	00H
	DD	0ffffffe0H
	DD	00H
	DD	01da0H
	DD	00H
	DD	0fffffff0H
	DD	00H
	DD	01db0H
	DD	0fffffff8H
	DD	0fffffff0H
	DD	00H
	DD	01dc0H
	DD	0fffffff0H
	DD	0fffffff0H
	DD	00H
	DD	01dd0H
	ORG $+4
?PAT1_035@@3PAHA DD 0aH					; PAT1_035
	DD	08H
	DD	010H
	DD	0fffffff9H
	DD	0ffffffd0H
	DD	00H
	DD	01de0H
	DD	01H
	DD	0ffffffd0H
	DD	00H
	DD	01df0H
	DD	01H
	DD	0ffffffe0H
	DD	00H
	DD	01e00H
	DD	09H
	DD	0ffffffe0H
	DD	00H
	DD	01e10H
	DD	09H
	DD	0fffffff0H
	DD	00H
	DD	01e20H
	DD	01H
	DD	0fffffff0H
	DD	00H
	DD	01e30H
	DD	0fffffff9H
	DD	0fffffff0H
	DD	00H
	DD	01e40H
	DD	0fffffff1H
	DD	0fffffff0H
	DD	00H
	DD	01e50H
	DD	0fffffff1H
	DD	0ffffffe0H
	DD	00H
	DD	01e60H
	DD	0fffffff9H
	DD	0ffffffe0H
	DD	00H
	DD	01e70H
	ORG $+4
?PAT1_036@@3PAHA DD 09H					; PAT1_036
	DD	08H
	DD	010H
	DD	0fffffff3H
	DD	0ffffffd0H
	DD	00H
	DD	01e80H
	DD	0fffffffbH
	DD	0ffffffd0H
	DD	00H
	DD	01e90H
	DD	0fffffffbH
	DD	0ffffffe0H
	DD	00H
	DD	01ea0H
	DD	03H
	DD	0ffffffe0H
	DD	00H
	DD	01eb0H
	DD	0bH
	DD	0ffffffe0H
	DD	00H
	DD	01ec0H
	DD	03H
	DD	0fffffff0H
	DD	00H
	DD	01ed0H
	DD	0fffffffbH
	DD	0fffffff0H
	DD	00H
	DD	01ee0H
	DD	0fffffff3H
	DD	0fffffff0H
	DD	00H
	DD	01ef0H
	DD	0fffffff3H
	DD	0ffffffe0H
	DD	00H
	DD	01f00H
	ORG $+4
?PAT1_037@@3PAHA DD 0aH					; PAT1_037
	DD	08H
	DD	010H
	DD	0fffffff3H
	DD	0ffffffd0H
	DD	00H
	DD	01f10H
	DD	0fffffffbH
	DD	0ffffffd0H
	DD	00H
	DD	01f20H
	DD	0fffffffbH
	DD	0ffffffe0H
	DD	00H
	DD	01f30H
	DD	03H
	DD	0ffffffe0H
	DD	00H
	DD	01f40H
	DD	0bH
	DD	0ffffffe0H
	DD	00H
	DD	01f50H
	DD	0bH
	DD	0ffffffd0H
	DD	00H
	DD	01f60H
	DD	03H
	DD	0fffffff0H
	DD	00H
	DD	01f70H
	DD	0fffffffbH
	DD	0fffffff0H
	DD	00H
	DD	01f80H
	DD	0fffffff3H
	DD	0fffffff0H
	DD	00H
	DD	01f90H
	DD	0fffffff3H
	DD	0ffffffe0H
	DD	00H
	DD	01fa0H
	ORG $+4
?PAT1_038@@3PAHA DD 0aH					; PAT1_038
	DD	08H
	DD	010H
	DD	0fffffff8H
	DD	0ffffffd0H
	DD	00H
	DD	02000H
	DD	00H
	DD	0ffffffd0H
	DD	00H
	DD	02010H
	DD	00H
	DD	0ffffffe0H
	DD	00H
	DD	02020H
	DD	08H
	DD	0ffffffe0H
	DD	00H
	DD	02030H
	DD	08H
	DD	0fffffff0H
	DD	00H
	DD	02040H
	DD	00H
	DD	0fffffff0H
	DD	00H
	DD	02050H
	DD	0fffffff8H
	DD	0fffffff0H
	DD	00H
	DD	02060H
	DD	0fffffff0H
	DD	0fffffff0H
	DD	00H
	DD	02070H
	DD	0fffffff0H
	DD	0ffffffe0H
	DD	00H
	DD	02080H
	DD	0fffffff8H
	DD	0ffffffe0H
	DD	00H
	DD	02090H
	ORG $+4
?PAT1_039@@3PAHA DD 0aH					; PAT1_039
	DD	08H
	DD	010H
	DD	0fffffff8H
	DD	0ffffffd0H
	DD	00H
	DD	020a0H
	DD	00H
	DD	0ffffffd0H
	DD	00H
	DD	020b0H
	DD	00H
	DD	0ffffffe0H
	DD	00H
	DD	020c0H
	DD	08H
	DD	0ffffffe0H
	DD	00H
	DD	020d0H
	DD	08H
	DD	0fffffff0H
	DD	00H
	DD	020e0H
	DD	00H
	DD	0fffffff0H
	DD	00H
	DD	020f0H
	DD	0fffffff8H
	DD	0fffffff0H
	DD	00H
	DD	02100H
	DD	0fffffff0H
	DD	0fffffff0H
	DD	00H
	DD	02110H
	DD	0fffffff0H
	DD	0ffffffe0H
	DD	00H
	DD	02120H
	DD	0fffffff8H
	DD	0ffffffe0H
	DD	00H
	DD	02130H
	ORG $+4
?PAT1_03A@@3PAHA DD 0aH					; PAT1_03A
	DD	08H
	DD	010H
	DD	0fffffff8H
	DD	0ffffffd0H
	DD	00H
	DD	02140H
	DD	00H
	DD	0ffffffd0H
	DD	00H
	DD	02150H
	DD	00H
	DD	0ffffffe0H
	DD	00H
	DD	02160H
	DD	08H
	DD	0ffffffe0H
	DD	00H
	DD	02170H
	DD	08H
	DD	0fffffff0H
	DD	00H
	DD	02180H
	DD	00H
	DD	0fffffff0H
	DD	00H
	DD	02190H
	DD	0fffffff8H
	DD	0fffffff0H
	DD	00H
	DD	021a0H
	DD	0fffffff0H
	DD	0fffffff0H
	DD	00H
	DD	021b0H
	DD	0fffffff0H
	DD	0ffffffe0H
	DD	00H
	DD	021c0H
	DD	0fffffff8H
	DD	0ffffffe0H
	DD	00H
	DD	021d0H
	ORG $+4
?PAT1_03B@@3PAHA DD 0aH					; PAT1_03B
	DD	08H
	DD	010H
	DD	0fffffff0H
	DD	0ffffffd0H
	DD	00H
	DD	021e0H
	DD	0fffffff8H
	DD	0ffffffd0H
	DD	00H
	DD	021f0H
	DD	00H
	DD	0ffffffd0H
	DD	00H
	DD	02200H
	DD	00H
	DD	0ffffffe0H
	DD	00H
	DD	02210H
	DD	08H
	DD	0ffffffe0H
	DD	00H
	DD	02220H
	DD	08H
	DD	0fffffff0H
	DD	00H
	DD	02230H
	DD	00H
	DD	0fffffff0H
	DD	00H
	DD	02240H
	DD	0fffffff8H
	DD	0fffffff0H
	DD	00H
	DD	02250H
	DD	0fffffff8H
	DD	0ffffffe0H
	DD	00H
	DD	02260H
	DD	0fffffff0H
	DD	0ffffffe0H
	DD	00H
	DD	02270H
	ORG $+4
?PAT1_03C@@3PAHA DD 0bH					; PAT1_03C
	DD	08H
	DD	010H
	DD	0ffffffe4H
	DD	0ffffffd8H
	DD	00H
	DD	02280H
	DD	0ffffffecH
	DD	0ffffffd8H
	DD	00H
	DD	02290H
	DD	0fffffff4H
	DD	0ffffffd8H
	DD	00H
	DD	022a0H
	DD	0fffffffcH
	DD	0ffffffd8H
	DD	00H
	DD	022b0H
	DD	04H
	DD	0ffffffd8H
	DD	00H
	DD	022c0H
	DD	0cH
	DD	0ffffffd8H
	DD	00H
	DD	022d0H
	DD	0cH
	DD	0ffffffe8H
	DD	00H
	DD	022e0H
	DD	04H
	DD	0ffffffe8H
	DD	00H
	DD	022f0H
	DD	0fffffffcH
	DD	0ffffffe8H
	DD	00H
	DD	02300H
	DD	0fffffff4H
	DD	0ffffffe8H
	DD	00H
	DD	02310H
	DD	0ffffffecH
	DD	0ffffffe8H
	DD	00H
	DD	02320H
	ORG $+4
?PAT1_03D@@3PAHA DD 0bH					; PAT1_03D
	DD	08H
	DD	010H
	DD	0ffffffecH
	DD	0ffffffd8H
	DD	00H
	DD	02330H
	DD	0fffffff4H
	DD	0ffffffd8H
	DD	00H
	DD	02340H
	DD	0fffffffcH
	DD	0ffffffd8H
	DD	00H
	DD	02350H
	DD	04H
	DD	0ffffffd8H
	DD	00H
	DD	02360H
	DD	0cH
	DD	0ffffffd8H
	DD	00H
	DD	02370H
	DD	0cH
	DD	0ffffffe8H
	DD	00H
	DD	02380H
	DD	04H
	DD	0ffffffe8H
	DD	00H
	DD	02390H
	DD	0fffffffcH
	DD	0ffffffe8H
	DD	00H
	DD	023a0H
	DD	0fffffff4H
	DD	0ffffffe8H
	DD	00H
	DD	023b0H
	DD	0ffffffecH
	DD	0ffffffe8H
	DD	00H
	DD	023c0H
	DD	0ffffffe4H
	DD	0ffffffe8H
	DD	00H
	DD	023d0H
	ORG $+4
?PAT1_03E@@3PAHA DD 09H					; PAT1_03E
	DD	08H
	DD	010H
	DD	0fffffff4H
	DD	0ffffffe0H
	DD	00H
	DD	023e0H
	DD	0fffffffcH
	DD	0ffffffe0H
	DD	00H
	DD	023f0H
	DD	04H
	DD	0ffffffe0H
	DD	00H
	DD	02400H
	DD	0cH
	DD	0ffffffe0H
	DD	00H
	DD	02410H
	DD	0cH
	DD	0fffffff0H
	DD	00H
	DD	02420H
	DD	04H
	DD	0fffffff0H
	DD	00H
	DD	02430H
	DD	0fffffffcH
	DD	0fffffff0H
	DD	00H
	DD	02440H
	DD	0fffffff4H
	DD	0fffffff0H
	DD	00H
	DD	02450H
	DD	0ffffffecH
	DD	0fffffff0H
	DD	00H
	DD	02460H
	ORG $+4
?PAT1_03F@@3PAHA DD 0aH					; PAT1_03F
	DD	08H
	DD	010H
	DD	0ffffffecH
	DD	0ffffffe0H
	DD	00H
	DD	02470H
	DD	0fffffff4H
	DD	0ffffffe0H
	DD	00H
	DD	02480H
	DD	0fffffffcH
	DD	0ffffffe0H
	DD	00H
	DD	02490H
	DD	04H
	DD	0ffffffe0H
	DD	00H
	DD	024a0H
	DD	0cH
	DD	0ffffffe0H
	DD	00H
	DD	024b0H
	DD	0cH
	DD	0fffffff0H
	DD	00H
	DD	024c0H
	DD	04H
	DD	0fffffff0H
	DD	00H
	DD	024d0H
	DD	0fffffffcH
	DD	0fffffff0H
	DD	00H
	DD	024e0H
	DD	0fffffff4H
	DD	0fffffff0H
	DD	00H
	DD	024f0H
	DD	0ffffffecH
	DD	0fffffff0H
	DD	00H
	DD	02500H
	ORG $+4
?PAT1_040@@3PAHA DD 08H					; PAT1_040
	DD	08H
	DD	010H
	DD	0ffffffecH
	DD	0ffffffe0H
	DD	00H
	DD	02510H
	DD	0ffffffecH
	DD	0fffffff0H
	DD	00H
	DD	02520H
	DD	0fffffff4H
	DD	0fffffff0H
	DD	00H
	DD	02530H
	DD	0fffffffcH
	DD	0fffffff0H
	DD	00H
	DD	02540H
	DD	04H
	DD	0fffffff0H
	DD	00H
	DD	02550H
	DD	0cH
	DD	0fffffff0H
	DD	00H
	DD	02560H
	DD	04H
	DD	0ffffffe0H
	DD	00H
	DD	02570H
	DD	0fffffffcH
	DD	0ffffffe0H
	DD	00H
	DD	02580H
	ORG $+4
?PAT1_041@@3PAHA DD 08H					; PAT1_041
	DD	08H
	DD	010H
	DD	0fffffffeH
	DD	0ffffffd0H
	DD	00H
	DD	02590H
	DD	06H
	DD	0ffffffd0H
	DD	00H
	DD	025a0H
	DD	06H
	DD	0ffffffe0H
	DD	00H
	DD	025b0H
	DD	0fffffffeH
	DD	0ffffffe0H
	DD	00H
	DD	025c0H
	DD	0fffffff6H
	DD	0ffffffe0H
	DD	00H
	DD	025d0H
	DD	0fffffff6H
	DD	0fffffff0H
	DD	00H
	DD	025e0H
	DD	0fffffffeH
	DD	0fffffff0H
	DD	00H
	DD	025f0H
	DD	06H
	DD	0fffffff0H
	DD	00H
	DD	02600H
	ORG $+4
?PAT1_042@@3PAHA DD 08H					; PAT1_042
	DD	08H
	DD	010H
	DD	0fffffff8H
	DD	0ffffffd0H
	DD	00H
	DD	02610H
	DD	00H
	DD	0ffffffd0H
	DD	00H
	DD	02620H
	DD	00H
	DD	0ffffffe0H
	DD	00H
	DD	02630H
	DD	0fffffff8H
	DD	0ffffffe0H
	DD	00H
	DD	02640H
	DD	0fffffff8H
	DD	0fffffff0H
	DD	00H
	DD	02650H
	DD	00H
	DD	0fffffff0H
	DD	00H
	DD	02660H
	DD	08H
	DD	0fffffff0H
	DD	00H
	DD	02670H
	DD	0fffffff0H
	DD	0fffffff0H
	DD	00H
	DD	02680H
	ORG $+4
?PAT1_043@@3PAHA DD 0dH					; PAT1_043
	DD	08H
	DD	010H
	DD	0ffffffecH
	DD	0ffffffd0H
	DD	00H
	DD	02690H
	DD	0fffffff4H
	DD	0ffffffd0H
	DD	00H
	DD	026a0H
	DD	0fffffffcH
	DD	0ffffffd0H
	DD	00H
	DD	026b0H
	DD	04H
	DD	0ffffffd0H
	DD	00H
	DD	026c0H
	DD	0cH
	DD	0ffffffd0H
	DD	00H
	DD	026d0H
	DD	0cH
	DD	0ffffffe0H
	DD	00H
	DD	026e0H
	DD	04H
	DD	0ffffffe0H
	DD	00H
	DD	026f0H
	DD	0fffffffcH
	DD	0ffffffe0H
	DD	00H
	DD	02700H
	DD	0fffffff4H
	DD	0ffffffe0H
	DD	00H
	DD	02710H
	DD	0ffffffecH
	DD	0ffffffe0H
	DD	00H
	DD	02720H
	DD	0fffffffcH
	DD	0fffffff0H
	DD	00H
	DD	02730H
	DD	04H
	DD	0fffffff0H
	DD	00H
	DD	02740H
	DD	0cH
	DD	0fffffff0H
	DD	00H
	DD	02750H
	ORG $+4
?PAT1_044@@3PAHA DD 09H					; PAT1_044
	DD	08H
	DD	010H
	DD	0fffffff4H
	DD	0ffffffd0H
	DD	00H
	DD	02760H
	DD	0fffffffcH
	DD	0ffffffd0H
	DD	00H
	DD	02770H
	DD	04H
	DD	0ffffffd0H
	DD	00H
	DD	02780H
	DD	04H
	DD	0ffffffe0H
	DD	00H
	DD	02790H
	DD	0fffffffcH
	DD	0ffffffe0H
	DD	00H
	DD	027a0H
	DD	0fffffff4H
	DD	0ffffffe0H
	DD	00H
	DD	027b0H
	DD	0fffffff4H
	DD	0fffffff0H
	DD	00H
	DD	027c0H
	DD	0fffffffcH
	DD	0fffffff0H
	DD	00H
	DD	027d0H
	DD	04H
	DD	0fffffff0H
	DD	00H
	DD	027e0H
	ORG $+4
?PAT1_045@@3PAHA DD 09H					; PAT1_045
	DD	08H
	DD	010H
	DD	0fffffff4H
	DD	0ffffffd0H
	DD	00H
	DD	027f0H
	DD	0fffffffcH
	DD	0ffffffd0H
	DD	00H
	DD	02800H
	DD	04H
	DD	0ffffffd0H
	DD	00H
	DD	02810H
	DD	04H
	DD	0ffffffe0H
	DD	00H
	DD	02820H
	DD	0fffffffcH
	DD	0ffffffe0H
	DD	00H
	DD	02830H
	DD	0fffffff4H
	DD	0ffffffe0H
	DD	00H
	DD	02840H
	DD	0fffffff4H
	DD	0fffffff0H
	DD	00H
	DD	02850H
	DD	0fffffffcH
	DD	0fffffff0H
	DD	00H
	DD	02860H
	DD	04H
	DD	0fffffff0H
	DD	00H
	DD	02870H
	ORG $+4
?PAT1_046@@3PAHA DD 0aH					; PAT1_046
	DD	08H
	DD	010H
	DD	0fffffff0H
	DD	0ffffffd0H
	DD	00H
	DD	02880H
	DD	0fffffff8H
	DD	0ffffffd0H
	DD	00H
	DD	02890H
	DD	00H
	DD	0ffffffd0H
	DD	00H
	DD	028a0H
	DD	00H
	DD	0ffffffe0H
	DD	00H
	DD	028b0H
	DD	08H
	DD	0ffffffe0H
	DD	00H
	DD	028c0H
	DD	08H
	DD	0fffffff0H
	DD	00H
	DD	028d0H
	DD	00H
	DD	0fffffff0H
	DD	00H
	DD	028e0H
	DD	0fffffff8H
	DD	0fffffff0H
	DD	00H
	DD	028f0H
	DD	0fffffff8H
	DD	0ffffffe0H
	DD	00H
	DD	02900H
	DD	0fffffff0H
	DD	0ffffffe0H
	DD	00H
	DD	02910H
	ORG $+4
?PAT1_047@@3PAHA DD 09H					; PAT1_047
	DD	08H
	DD	010H
	DD	0fffffff4H
	DD	0ffffffd0H
	DD	00H
	DD	02920H
	DD	0fffffffcH
	DD	0ffffffd0H
	DD	00H
	DD	02930H
	DD	04H
	DD	0ffffffd0H
	DD	00H
	DD	02940H
	DD	04H
	DD	0ffffffe0H
	DD	00H
	DD	02950H
	DD	0fffffffcH
	DD	0ffffffe0H
	DD	00H
	DD	02960H
	DD	0fffffff4H
	DD	0ffffffe0H
	DD	00H
	DD	02970H
	DD	0fffffff4H
	DD	0fffffff0H
	DD	00H
	DD	02980H
	DD	0fffffffcH
	DD	0fffffff0H
	DD	00H
	DD	02990H
	DD	04H
	DD	0fffffff0H
	DD	00H
	DD	029a0H
	ORG $+4
?PAT1_048@@3PAHA DD 06H					; PAT1_048
	DD	08H
	DD	010H
	DD	0fffffff5H
	DD	0ffffffe0H
	DD	00H
	DD	029b0H
	DD	0fffffffdH
	DD	0ffffffe0H
	DD	00H
	DD	029c0H
	DD	05H
	DD	0ffffffe0H
	DD	00H
	DD	029d0H
	DD	05H
	DD	0fffffff0H
	DD	00H
	DD	029e0H
	DD	0fffffffdH
	DD	0fffffff0H
	DD	00H
	DD	029f0H
	DD	0fffffff5H
	DD	0fffffff0H
	DD	00H
	DD	02a00H
	ORG $+4
?PAT1_049@@3PAHA DD 08H					; PAT1_049
	DD	08H
	DD	010H
	DD	0fffffff4H
	DD	0ffffffd0H
	DD	00H
	DD	02a10H
	DD	0fffffffcH
	DD	0ffffffd0H
	DD	00H
	DD	02a20H
	DD	0fffffffcH
	DD	0ffffffe0H
	DD	00H
	DD	02a30H
	DD	04H
	DD	0ffffffe0H
	DD	00H
	DD	02a40H
	DD	04H
	DD	0fffffff0H
	DD	00H
	DD	02a50H
	DD	0fffffffcH
	DD	0fffffff0H
	DD	00H
	DD	02a60H
	DD	0fffffff4H
	DD	0fffffff0H
	DD	00H
	DD	02a70H
	DD	0fffffff4H
	DD	0ffffffe0H
	DD	00H
	DD	02a80H
	ORG $+4
?PAT1_04A@@3PAHA DD 08H					; PAT1_04A
	DD	08H
	DD	010H
	DD	0fffffff4H
	DD	0ffffffd0H
	DD	00H
	DD	02a90H
	DD	0fffffffcH
	DD	0ffffffd0H
	DD	00H
	DD	02aa0H
	DD	0fffffffcH
	DD	0ffffffe0H
	DD	00H
	DD	02ab0H
	DD	04H
	DD	0ffffffe0H
	DD	00H
	DD	02ac0H
	DD	04H
	DD	0fffffff0H
	DD	00H
	DD	02ad0H
	DD	0fffffffcH
	DD	0fffffff0H
	DD	00H
	DD	02ae0H
	DD	0fffffff4H
	DD	0fffffff0H
	DD	00H
	DD	02af0H
	DD	0fffffff4H
	DD	0ffffffe0H
	DD	00H
	DD	02b00H
	ORG $+4
?PAT1_04B@@3PAHA DD 08H					; PAT1_04B
	DD	08H
	DD	010H
	DD	0fffffff4H
	DD	0ffffffd0H
	DD	00H
	DD	02b10H
	DD	0fffffffcH
	DD	0ffffffd0H
	DD	00H
	DD	02b20H
	DD	0fffffffcH
	DD	0ffffffe0H
	DD	00H
	DD	02b30H
	DD	04H
	DD	0ffffffe0H
	DD	00H
	DD	02b40H
	DD	04H
	DD	0fffffff0H
	DD	00H
	DD	02b50H
	DD	0fffffffcH
	DD	0fffffff0H
	DD	00H
	DD	02b60H
	DD	0fffffff4H
	DD	0fffffff0H
	DD	00H
	DD	02b70H
	DD	0fffffff4H
	DD	0ffffffe0H
	DD	00H
	DD	02b80H
	ORG $+4
?PAT1_04C@@3PAHA DD 0bH					; PAT1_04C
	DD	08H
	DD	010H
	DD	0fffffff4H
	DD	0ffffffd0H
	DD	00H
	DD	02b90H
	DD	0fffffffcH
	DD	0ffffffd0H
	DD	00H
	DD	02ba0H
	DD	04H
	DD	0ffffffd0H
	DD	00H
	DD	02bb0H
	DD	0cH
	DD	0ffffffd0H
	DD	00H
	DD	02bc0H
	DD	0cH
	DD	0ffffffe0H
	DD	00H
	DD	02bd0H
	DD	04H
	DD	0ffffffe0H
	DD	00H
	DD	02be0H
	DD	0fffffffcH
	DD	0ffffffe0H
	DD	00H
	DD	02bf0H
	DD	0fffffff4H
	DD	0ffffffe0H
	DD	00H
	DD	02c00H
	DD	0fffffff4H
	DD	0fffffff0H
	DD	00H
	DD	02c10H
	DD	0fffffffcH
	DD	0fffffff0H
	DD	00H
	DD	02c20H
	DD	04H
	DD	0fffffff0H
	DD	00H
	DD	02c30H
	ORG $+4
?PAT1_04D@@3PAHA DD 0bH					; PAT1_04D
	DD	08H
	DD	010H
	DD	0fffffff0H
	DD	0ffffffd0H
	DD	00H
	DD	02c40H
	DD	0fffffff8H
	DD	0ffffffd0H
	DD	00H
	DD	02c50H
	DD	00H
	DD	0ffffffd0H
	DD	00H
	DD	02c60H
	DD	08H
	DD	0ffffffd0H
	DD	00H
	DD	02c70H
	DD	08H
	DD	0ffffffe0H
	DD	00H
	DD	02c80H
	DD	00H
	DD	0ffffffe0H
	DD	00H
	DD	02c90H
	DD	0fffffff8H
	DD	0ffffffe0H
	DD	00H
	DD	02ca0H
	DD	0fffffff0H
	DD	0ffffffe0H
	DD	00H
	DD	02cb0H
	DD	0fffffff0H
	DD	0fffffff0H
	DD	00H
	DD	02cc0H
	DD	0fffffff8H
	DD	0fffffff0H
	DD	00H
	DD	02cd0H
	DD	00H
	DD	0fffffff0H
	DD	00H
	DD	02ce0H
	ORG $+4
?PAT1_04E@@3PAHA DD 09H					; PAT1_04E
	DD	08H
	DD	010H
	DD	0fffffff4H
	DD	0ffffffd0H
	DD	00H
	DD	02cf0H
	DD	0fffffffcH
	DD	0ffffffd0H
	DD	00H
	DD	02d00H
	DD	04H
	DD	0ffffffd0H
	DD	00H
	DD	02d10H
	DD	04H
	DD	0ffffffe0H
	DD	00H
	DD	02d20H
	DD	0fffffffcH
	DD	0ffffffe0H
	DD	00H
	DD	02d30H
	DD	0fffffff4H
	DD	0ffffffe0H
	DD	00H
	DD	02d40H
	DD	0fffffff4H
	DD	0fffffff0H
	DD	00H
	DD	02d50H
	DD	0fffffffcH
	DD	0fffffff0H
	DD	00H
	DD	02d60H
	DD	04H
	DD	0fffffff0H
	DD	00H
	DD	02d70H
	ORG $+4
?PAT1_04F@@3PAHA DD 08H					; PAT1_04F
	DD	08H
	DD	010H
	DD	0fffffff4H
	DD	0ffffffd0H
	DD	00H
	DD	02d80H
	DD	0fffffffcH
	DD	0ffffffd0H
	DD	00H
	DD	02d90H
	DD	0fffffffcH
	DD	0ffffffe0H
	DD	00H
	DD	02da0H
	DD	04H
	DD	0ffffffe0H
	DD	00H
	DD	02db0H
	DD	04H
	DD	0fffffff0H
	DD	00H
	DD	02dc0H
	DD	0fffffffcH
	DD	0fffffff0H
	DD	00H
	DD	02dd0H
	DD	0fffffff4H
	DD	0fffffff0H
	DD	00H
	DD	02de0H
	DD	0fffffff4H
	DD	0ffffffe0H
	DD	00H
	DD	02df0H
	ORG $+4
?PAT1_050@@3PAHA DD 08H					; PAT1_050
	DD	08H
	DD	010H
	DD	0fffffff0H
	DD	0ffffffe0H
	DD	00H
	DD	02e00H
	DD	0fffffff8H
	DD	0ffffffe0H
	DD	00H
	DD	02e10H
	DD	00H
	DD	0ffffffe0H
	DD	00H
	DD	02e20H
	DD	08H
	DD	0ffffffe0H
	DD	00H
	DD	02e30H
	DD	08H
	DD	0fffffff0H
	DD	00H
	DD	02e40H
	DD	00H
	DD	0fffffff0H
	DD	00H
	DD	02e50H
	DD	0fffffff8H
	DD	0fffffff0H
	DD	00H
	DD	02e60H
	DD	0fffffff0H
	DD	0fffffff0H
	DD	00H
	DD	02e70H
	ORG $+4
?PAT1_051@@3PAHA DD 07H					; PAT1_051
	DD	08H
	DD	010H
	DD	0fffffff8H
	DD	0ffffffe0H
	DD	00H
	DD	02e80H
	DD	00H
	DD	0ffffffe0H
	DD	00H
	DD	02e90H
	DD	08H
	DD	0ffffffe0H
	DD	00H
	DD	02ea0H
	DD	08H
	DD	0fffffff0H
	DD	00H
	DD	02eb0H
	DD	00H
	DD	0fffffff0H
	DD	00H
	DD	02ec0H
	DD	0fffffff8H
	DD	0fffffff0H
	DD	00H
	DD	02ed0H
	DD	0fffffff0H
	DD	0fffffff0H
	DD	00H
	DD	02ee0H
	ORG $+4
?PAT1_052@@3PAHA DD 0bH					; PAT1_052
	DD	08H
	DD	010H
	DD	0fffffff8H
	DD	0ffffffd0H
	DD	00H
	DD	02ef0H
	DD	00H
	DD	0ffffffd0H
	DD	00H
	DD	02f00H
	DD	08H
	DD	0ffffffd0H
	DD	00H
	DD	02f10H
	DD	08H
	DD	0ffffffe0H
	DD	00H
	DD	02f20H
	DD	00H
	DD	0ffffffe0H
	DD	00H
	DD	02f30H
	DD	0fffffff8H
	DD	0ffffffe0H
	DD	00H
	DD	02f40H
	DD	0fffffff0H
	DD	0ffffffe0H
	DD	00H
	DD	02f50H
	DD	0fffffff0H
	DD	0fffffff0H
	DD	00H
	DD	02f60H
	DD	0fffffff8H
	DD	0fffffff0H
	DD	00H
	DD	02f70H
	DD	00H
	DD	0fffffff0H
	DD	00H
	DD	02f80H
	DD	08H
	DD	0fffffff0H
	DD	00H
	DD	02f90H
	ORG $+4
?PAT1_053@@3PAHA DD 0bH					; PAT1_053
	DD	08H
	DD	010H
	DD	0fffffffcH
	DD	0ffffffc0H
	DD	00H
	DD	02fa0H
	DD	04H
	DD	0ffffffc0H
	DD	00H
	DD	02fb0H
	DD	04H
	DD	0ffffffd0H
	DD	00H
	DD	02fc0H
	DD	0fffffffcH
	DD	0ffffffd0H
	DD	00H
	DD	02fd0H
	DD	0fffffff4H
	DD	0ffffffd0H
	DD	00H
	DD	02fe0H
	DD	0fffffff4H
	DD	0ffffffe0H
	DD	00H
	DD	02ff0H
	DD	0fffffffcH
	DD	0ffffffe0H
	DD	00H
	DD	03000H
	DD	04H
	DD	0ffffffe0H
	DD	00H
	DD	03010H
	DD	04H
	DD	0fffffff0H
	DD	00H
	DD	03020H
	DD	0fffffffcH
	DD	0fffffff0H
	DD	00H
	DD	03030H
	DD	0fffffff4H
	DD	0fffffff0H
	DD	00H
	DD	03040H
	ORG $+4
?PAT1_054@@3PAHA DD 0aH					; PAT1_054
	DD	08H
	DD	010H
	DD	0fffffff0H
	DD	0ffffffc0H
	DD	00H
	DD	03050H
	DD	0fffffff0H
	DD	0ffffffd0H
	DD	00H
	DD	03060H
	DD	0fffffff8H
	DD	0ffffffd0H
	DD	00H
	DD	03070H
	DD	00H
	DD	0ffffffd0H
	DD	00H
	DD	03080H
	DD	00H
	DD	0ffffffe0H
	DD	00H
	DD	03090H
	DD	08H
	DD	0ffffffe0H
	DD	00H
	DD	030a0H
	DD	0fffffff8H
	DD	0ffffffe0H
	DD	00H
	DD	030b0H
	DD	0fffffff0H
	DD	0ffffffe0H
	DD	00H
	DD	030c0H
	DD	0fffffff8H
	DD	0fffffff0H
	DD	00H
	DD	030d0H
	DD	00H
	DD	0fffffff0H
	DD	00H
	DD	030e0H
	ORG $+4
?PAT1_055@@3PAHA DD 08H					; PAT1_055
	DD	08H
	DD	010H
	DD	0fffffffcH
	DD	0ffffffd0H
	DD	00H
	DD	030f0H
	DD	04H
	DD	0ffffffd0H
	DD	00H
	DD	03100H
	DD	04H
	DD	0ffffffe0H
	DD	00H
	DD	03110H
	DD	0fffffffcH
	DD	0ffffffe0H
	DD	00H
	DD	03120H
	DD	0fffffff4H
	DD	0ffffffe0H
	DD	00H
	DD	03130H
	DD	0fffffff4H
	DD	0fffffff0H
	DD	00H
	DD	03140H
	DD	0fffffffcH
	DD	0fffffff0H
	DD	00H
	DD	03150H
	DD	04H
	DD	0fffffff0H
	DD	00H
	DD	03160H
	ORG $+4
?PAT1_056@@3PAHA DD 0aH					; PAT1_056
	DD	08H
	DD	010H
	DD	0fffffff8H
	DD	0ffffffd0H
	DD	00H
	DD	03170H
	DD	00H
	DD	0ffffffd0H
	DD	00H
	DD	03180H
	DD	00H
	DD	0ffffffe0H
	DD	00H
	DD	03190H
	DD	08H
	DD	0ffffffe0H
	DD	00H
	DD	031a0H
	DD	08H
	DD	0fffffff0H
	DD	00H
	DD	031b0H
	DD	00H
	DD	0fffffff0H
	DD	00H
	DD	031c0H
	DD	0fffffff8H
	DD	0fffffff0H
	DD	00H
	DD	031d0H
	DD	0fffffff0H
	DD	0fffffff0H
	DD	00H
	DD	031e0H
	DD	0fffffff0H
	DD	0ffffffe0H
	DD	00H
	DD	031f0H
	DD	0fffffff8H
	DD	0ffffffe0H
	DD	00H
	DD	03200H
	ORG $+4
?PAT1_057@@3PAHA DD 09H					; PAT1_057
	DD	08H
	DD	010H
	DD	0fffffff8H
	DD	0ffffffd0H
	DD	00H
	DD	03210H
	DD	00H
	DD	0ffffffd0H
	DD	00H
	DD	03220H
	DD	00H
	DD	0ffffffe0H
	DD	00H
	DD	03230H
	DD	08H
	DD	0ffffffe0H
	DD	00H
	DD	03240H
	DD	08H
	DD	0fffffff0H
	DD	00H
	DD	03250H
	DD	00H
	DD	0fffffff0H
	DD	00H
	DD	03260H
	DD	0fffffff8H
	DD	0fffffff0H
	DD	00H
	DD	03270H
	DD	0fffffff0H
	DD	0fffffff0H
	DD	00H
	DD	03280H
	DD	0fffffff8H
	DD	0ffffffe0H
	DD	00H
	DD	03290H
	ORG $+4
?PAT1_058@@3PAHA DD 0aH					; PAT1_058
	DD	08H
	DD	010H
	DD	0fffffff8H
	DD	0ffffffd0H
	DD	00H
	DD	032a0H
	DD	00H
	DD	0ffffffd0H
	DD	00H
	DD	032b0H
	DD	00H
	DD	0ffffffe0H
	DD	00H
	DD	032c0H
	DD	08H
	DD	0ffffffe0H
	DD	00H
	DD	032d0H
	DD	08H
	DD	0fffffff0H
	DD	00H
	DD	032e0H
	DD	00H
	DD	0fffffff0H
	DD	00H
	DD	032f0H
	DD	0fffffff8H
	DD	0fffffff0H
	DD	00H
	DD	03300H
	DD	0fffffff0H
	DD	0fffffff0H
	DD	00H
	DD	03310H
	DD	0fffffff0H
	DD	0ffffffe0H
	DD	00H
	DD	03320H
	DD	0fffffff8H
	DD	0ffffffe0H
	DD	00H
	DD	03330H
	ORG $+4
?PAT1_059@@3PAHA DD 0aH					; PAT1_059
	DD	08H
	DD	010H
	DD	0fffffff8H
	DD	0ffffffd0H
	DD	00H
	DD	03340H
	DD	00H
	DD	0ffffffd0H
	DD	00H
	DD	03350H
	DD	08H
	DD	0ffffffd0H
	DD	00H
	DD	03360H
	DD	00H
	DD	0ffffffe0H
	DD	00H
	DD	03370H
	DD	0fffffff8H
	DD	0ffffffe0H
	DD	00H
	DD	03380H
	DD	0fffffff0H
	DD	0ffffffe0H
	DD	00H
	DD	03390H
	DD	0fffffff0H
	DD	0fffffff0H
	DD	00H
	DD	033a0H
	DD	0fffffff8H
	DD	0fffffff0H
	DD	00H
	DD	033b0H
	DD	00H
	DD	0fffffff0H
	DD	00H
	DD	033c0H
	DD	08H
	DD	0fffffff0H
	DD	00H
	DD	033d0H
	ORG $+4
?PAT1_05A@@3PAHA DD 0aH					; PAT1_05A
	DD	08H
	DD	010H
	DD	0fffffffcH
	DD	0ffffffd0H
	DD	00H
	DD	033e0H
	DD	04H
	DD	0ffffffd0H
	DD	00H
	DD	033f0H
	DD	04H
	DD	0ffffffe0H
	DD	00H
	DD	03400H
	DD	0cH
	DD	0ffffffe0H
	DD	00H
	DD	03410H
	DD	014H
	DD	0ffffffe0H
	DD	00H
	DD	03420H
	DD	0fffffffcH
	DD	0ffffffe0H
	DD	00H
	DD	03430H
	DD	0fffffff4H
	DD	0ffffffe0H
	DD	00H
	DD	03440H
	DD	0fffffff4H
	DD	0fffffff0H
	DD	00H
	DD	03450H
	DD	0fffffffcH
	DD	0fffffff0H
	DD	00H
	DD	03460H
	DD	04H
	DD	0fffffff0H
	DD	00H
	DD	03470H
	ORG $+4
?PAT1_05B@@3PAHA DD 0bH					; PAT1_05B
	DD	08H
	DD	010H
	DD	0fffffffcH
	DD	0ffffffd0H
	DD	00H
	DD	03480H
	DD	04H
	DD	0ffffffd0H
	DD	00H
	DD	03490H
	DD	04H
	DD	0ffffffe0H
	DD	00H
	DD	034a0H
	DD	0cH
	DD	0ffffffe0H
	DD	00H
	DD	034b0H
	DD	014H
	DD	0ffffffe0H
	DD	00H
	DD	034c0H
	DD	0cH
	DD	0fffffff0H
	DD	00H
	DD	034d0H
	DD	04H
	DD	0fffffff0H
	DD	00H
	DD	034e0H
	DD	0fffffffcH
	DD	0fffffff0H
	DD	00H
	DD	034f0H
	DD	0fffffff4H
	DD	0fffffff0H
	DD	00H
	DD	03500H
	DD	0fffffff4H
	DD	0ffffffe0H
	DD	00H
	DD	03510H
	DD	0fffffffcH
	DD	0ffffffe0H
	DD	00H
	DD	03520H
	ORG $+4
?PAT1_05C@@3PAHA DD 0aH					; PAT1_05C
	DD	08H
	DD	010H
	DD	0fffffff8H
	DD	0ffffffd0H
	DD	00H
	DD	03530H
	DD	00H
	DD	0ffffffd0H
	DD	00H
	DD	03540H
	DD	08H
	DD	0ffffffd0H
	DD	00H
	DD	03550H
	DD	08H
	DD	0ffffffe0H
	DD	00H
	DD	03560H
	DD	010H
	DD	0ffffffe0H
	DD	00H
	DD	03570H
	DD	00H
	DD	0ffffffe0H
	DD	00H
	DD	03580H
	DD	0fffffff8H
	DD	0ffffffe0H
	DD	00H
	DD	03590H
	DD	0fffffff8H
	DD	0fffffff0H
	DD	00H
	DD	035a0H
	DD	00H
	DD	0fffffff0H
	DD	00H
	DD	035b0H
	DD	08H
	DD	0fffffff0H
	DD	00H
	DD	035c0H
	ORG $+4
?PAT1_05D@@3PAHA DD 0dH					; PAT1_05D
	DD	08H
	DD	010H
	DD	0fffffffcH
	DD	0ffffffd0H
	DD	00H
	DD	035d0H
	DD	04H
	DD	0ffffffd0H
	DD	00H
	DD	035e0H
	DD	0cH
	DD	0ffffffd0H
	DD	00H
	DD	035f0H
	DD	014H
	DD	0ffffffd0H
	DD	00H
	DD	03600H
	DD	014H
	DD	0ffffffe0H
	DD	00H
	DD	03610H
	DD	0cH
	DD	0ffffffe0H
	DD	00H
	DD	03620H
	DD	04H
	DD	0ffffffe0H
	DD	00H
	DD	03630H
	DD	0fffffffcH
	DD	0ffffffe0H
	DD	00H
	DD	03640H
	DD	0fffffff4H
	DD	0ffffffe0H
	DD	00H
	DD	03650H
	DD	0fffffff4H
	DD	0fffffff0H
	DD	00H
	DD	03660H
	DD	0fffffffcH
	DD	0fffffff0H
	DD	00H
	DD	03670H
	DD	04H
	DD	0fffffff0H
	DD	00H
	DD	03680H
	DD	0cH
	DD	0fffffff0H
	DD	00H
	DD	03690H
	ORG $+4
?PAT1_05E@@3PAHA DD 0dH					; PAT1_05E
	DD	08H
	DD	010H
	DD	0fffffffcH
	DD	0ffffffd0H
	DD	00H
	DD	036a0H
	DD	04H
	DD	0ffffffd0H
	DD	00H
	DD	036b0H
	DD	0cH
	DD	0ffffffd0H
	DD	00H
	DD	036c0H
	DD	014H
	DD	0ffffffd0H
	DD	00H
	DD	036d0H
	DD	014H
	DD	0ffffffe0H
	DD	00H
	DD	036e0H
	DD	0cH
	DD	0ffffffe0H
	DD	00H
	DD	036f0H
	DD	04H
	DD	0ffffffe0H
	DD	00H
	DD	03700H
	DD	0fffffffcH
	DD	0ffffffe0H
	DD	00H
	DD	03710H
	DD	0fffffff4H
	DD	0ffffffe0H
	DD	00H
	DD	03720H
	DD	0fffffff4H
	DD	0fffffff0H
	DD	00H
	DD	03730H
	DD	0fffffffcH
	DD	0fffffff0H
	DD	00H
	DD	03740H
	DD	04H
	DD	0fffffff0H
	DD	00H
	DD	03750H
	DD	0cH
	DD	0fffffff0H
	DD	00H
	DD	03760H
	ORG $+4
?PAT1_05F@@3PAHA DD 0dH					; PAT1_05F
	DD	08H
	DD	010H
	DD	0fffffffcH
	DD	0ffffffd0H
	DD	00H
	DD	03770H
	DD	04H
	DD	0ffffffd0H
	DD	00H
	DD	03780H
	DD	0cH
	DD	0ffffffd0H
	DD	00H
	DD	03790H
	DD	014H
	DD	0ffffffd0H
	DD	00H
	DD	037a0H
	DD	014H
	DD	0ffffffe0H
	DD	00H
	DD	037b0H
	DD	0cH
	DD	0ffffffe0H
	DD	00H
	DD	037c0H
	DD	04H
	DD	0ffffffe0H
	DD	00H
	DD	037d0H
	DD	0fffffffcH
	DD	0ffffffe0H
	DD	00H
	DD	037e0H
	DD	0fffffff4H
	DD	0ffffffe0H
	DD	00H
	DD	037f0H
	DD	0fffffff4H
	DD	0fffffff0H
	DD	00H
	DD	03800H
	DD	0fffffffcH
	DD	0fffffff0H
	DD	00H
	DD	03810H
	DD	04H
	DD	0fffffff0H
	DD	00H
	DD	03820H
	DD	0cH
	DD	0fffffff0H
	DD	00H
	DD	03830H
	ORG $+4
?PAT1_066@@3PAHA DD 09H					; PAT1_066
	DD	08H
	DD	010H
	DD	0fffffff4H
	DD	0ffffffcfH
	DD	00H
	DD	038d0H
	DD	0fffffffcH
	DD	0ffffffcfH
	DD	00H
	DD	038e0H
	DD	04H
	DD	0ffffffcfH
	DD	00H
	DD	038f0H
	DD	04H
	DD	0ffffffdfH
	DD	00H
	DD	03900H
	DD	0cH
	DD	0ffffffdfH
	DD	00H
	DD	03910H
	DD	0fffffffcH
	DD	0ffffffdfH
	DD	00H
	DD	03920H
	DD	0fffffff4H
	DD	0ffffffdfH
	DD	00H
	DD	03930H
	DD	0fffffffcH
	DD	0ffffffefH
	DD	00H
	DD	03940H
	DD	04H
	DD	0ffffffefH
	DD	00H
	DD	03950H
	ORG $+4
?PAT1_067@@3PAHA DD 08H					; PAT1_067
	DD	08H
	DD	010H
	DD	0fffffff8H
	DD	0ffffffcfH
	DD	00H
	DD	03960H
	DD	00H
	DD	0ffffffcfH
	DD	00H
	DD	03970H
	DD	08H
	DD	0ffffffcfH
	DD	00H
	DD	03980H
	DD	08H
	DD	0ffffffdfH
	DD	00H
	DD	03990H
	DD	00H
	DD	0ffffffdfH
	DD	00H
	DD	039a0H
	DD	0fffffff8H
	DD	0ffffffdfH
	DD	00H
	DD	039b0H
	DD	0fffffff8H
	DD	0ffffffefH
	DD	00H
	DD	039c0H
	DD	00H
	DD	0ffffffefH
	DD	00H
	DD	039d0H
	ORG $+4
?PAT1_068@@3PAHA DD 0cH					; PAT1_068
	DD	08H
	DD	010H
	DD	0ffffffefH
	DD	0ffffffcfH
	DD	00H
	DD	039e0H
	DD	0fffffff7H
	DD	0ffffffcfH
	DD	00H
	DD	039f0H
	DD	0ffffffffH
	DD	0ffffffcfH
	DD	00H
	DD	03a00H
	DD	07H
	DD	0ffffffcfH
	DD	00H
	DD	03a10H
	DD	07H
	DD	0ffffffdfH
	DD	00H
	DD	03a20H
	DD	0ffffffffH
	DD	0ffffffdfH
	DD	00H
	DD	03a30H
	DD	0fffffff7H
	DD	0ffffffdfH
	DD	00H
	DD	03a40H
	DD	0ffffffefH
	DD	0ffffffdfH
	DD	00H
	DD	03a50H
	DD	0ffffffefH
	DD	0ffffffefH
	DD	00H
	DD	03a60H
	DD	0fffffff7H
	DD	0ffffffefH
	DD	00H
	DD	03a70H
	DD	0ffffffffH
	DD	0ffffffefH
	DD	00H
	DD	03a80H
	DD	07H
	DD	0ffffffefH
	DD	00H
	DD	03a90H
	ORG $+4
?PAT1_069@@3PAHA DD 0cH					; PAT1_069
	DD	08H
	DD	010H
	DD	0fffffffcH
	DD	0ffffffcfH
	DD	00H
	DD	03aa0H
	DD	04H
	DD	0ffffffcfH
	DD	00H
	DD	03ab0H
	DD	0cH
	DD	0ffffffcfH
	DD	00H
	DD	03ac0H
	DD	0cH
	DD	0ffffffdfH
	DD	00H
	DD	03ad0H
	DD	04H
	DD	0ffffffdfH
	DD	00H
	DD	03ae0H
	DD	0fffffffcH
	DD	0ffffffdfH
	DD	00H
	DD	03af0H
	DD	0fffffff4H
	DD	0ffffffdfH
	DD	00H
	DD	03b00H
	DD	0ffffffecH
	DD	0ffffffdfH
	DD	00H
	DD	03b10H
	DD	0ffffffecH
	DD	0ffffffefH
	DD	00H
	DD	03b20H
	DD	0fffffff4H
	DD	0ffffffefH
	DD	00H
	DD	03b30H
	DD	0fffffffcH
	DD	0ffffffefH
	DD	00H
	DD	03b40H
	DD	04H
	DD	0ffffffefH
	DD	00H
	DD	03b50H
	ORG $+4
?pPatTbl01@@3PAPAHA DD FLAT:?PAT1_000@@3PAHA		; pPatTbl01
	DD	FLAT:?PAT1_001@@3PAHA
	DD	FLAT:?PAT1_002@@3PAHA
	DD	FLAT:?PAT1_003@@3PAHA
	DD	FLAT:?PAT1_004@@3PAHA
	DD	FLAT:?PAT1_005@@3PAHA
	DD	FLAT:?PAT1_006@@3PAHA
	DD	FLAT:?PAT1_007@@3PAHA
	DD	FLAT:?PAT1_008@@3PAHA
	DD	FLAT:?PAT1_009@@3PAHA
	DD	FLAT:?PAT1_00A@@3PAHA
	DD	FLAT:?PAT1_00B@@3PAHA
	DD	FLAT:?PAT1_00C@@3PAHA
	DD	FLAT:?PAT1_00D@@3PAHA
	DD	FLAT:?PAT1_00E@@3PAHA
	DD	FLAT:?PAT1_00F@@3PAHA
	DD	FLAT:?PAT1_010@@3PAHA
	DD	FLAT:?PAT1_011@@3PAHA
	DD	FLAT:?PAT1_012@@3PAHA
	DD	FLAT:?PAT1_013@@3PAHA
	DD	FLAT:?PAT1_014@@3PAHA
	DD	FLAT:?PAT1_015@@3PAHA
	DD	FLAT:?PAT1_016@@3PAHA
	DD	FLAT:?PAT1_017@@3PAHA
	DD	FLAT:?PAT1_018@@3PAHA
	DD	FLAT:?PAT1_019@@3PAHA
	DD	FLAT:?PAT1_01A@@3PAHA
	DD	FLAT:?PAT1_01B@@3PAHA
	DD	FLAT:?PAT1_01C@@3PAHA
	DD	FLAT:?PAT1_01D@@3PAHA
	DD	FLAT:?PAT1_01E@@3PAHA
	DD	FLAT:?PAT1_01F@@3PAHA
	DD	FLAT:?PAT1_020@@3PAHA
	DD	FLAT:?PAT1_021@@3PAHA
	DD	FLAT:?PAT1_022@@3PAHA
	DD	FLAT:?PAT1_023@@3PAHA
	DD	FLAT:?PAT1_024@@3PAHA
	DD	FLAT:?PAT1_025@@3PAHA
	DD	FLAT:?PAT1_026@@3PAHA
	DD	FLAT:?PAT1_027@@3PAHA
	DD	FLAT:?PAT1_028@@3PAHA
	DD	FLAT:?PAT1_029@@3PAHA
	DD	FLAT:?PAT1_02A@@3PAHA
	DD	FLAT:?PAT1_02B@@3PAHA
	DD	FLAT:?PAT1_02C@@3PAHA
	DD	FLAT:?PAT1_02D@@3PAHA
	DD	FLAT:?PAT1_02E@@3PAHA
	DD	FLAT:?PAT1_02F@@3PAHA
	DD	FLAT:?PAT1_030@@3PAHA
	DD	FLAT:?PAT1_031@@3PAHA
	DD	FLAT:?PAT1_032@@3PAHA
	DD	FLAT:?PAT1_033@@3PAHA
	DD	FLAT:?PAT1_034@@3PAHA
	DD	FLAT:?PAT1_035@@3PAHA
	DD	FLAT:?PAT1_036@@3PAHA
	DD	FLAT:?PAT1_037@@3PAHA
	DD	FLAT:?PAT1_038@@3PAHA
	DD	FLAT:?PAT1_039@@3PAHA
	DD	FLAT:?PAT1_03A@@3PAHA
	DD	FLAT:?PAT1_03B@@3PAHA
	DD	FLAT:?PAT1_03C@@3PAHA
	DD	FLAT:?PAT1_03D@@3PAHA
	DD	FLAT:?PAT1_03E@@3PAHA
	DD	FLAT:?PAT1_03F@@3PAHA
	DD	FLAT:?PAT1_040@@3PAHA
	DD	FLAT:?PAT1_041@@3PAHA
	DD	FLAT:?PAT1_042@@3PAHA
	DD	FLAT:?PAT1_043@@3PAHA
	DD	FLAT:?PAT1_044@@3PAHA
	DD	FLAT:?PAT1_045@@3PAHA
	DD	FLAT:?PAT1_046@@3PAHA
	DD	FLAT:?PAT1_047@@3PAHA
	DD	FLAT:?PAT1_048@@3PAHA
	DD	FLAT:?PAT1_049@@3PAHA
	DD	FLAT:?PAT1_04A@@3PAHA
	DD	FLAT:?PAT1_04B@@3PAHA
	DD	FLAT:?PAT1_04C@@3PAHA
	DD	FLAT:?PAT1_04D@@3PAHA
	DD	FLAT:?PAT1_04E@@3PAHA
	DD	FLAT:?PAT1_04F@@3PAHA
	DD	FLAT:?PAT1_050@@3PAHA
	DD	FLAT:?PAT1_051@@3PAHA
	DD	FLAT:?PAT1_052@@3PAHA
	DD	FLAT:?PAT1_053@@3PAHA
	DD	FLAT:?PAT1_054@@3PAHA
	DD	FLAT:?PAT1_055@@3PAHA
	DD	FLAT:?PAT1_056@@3PAHA
	DD	FLAT:?PAT1_057@@3PAHA
	DD	FLAT:?PAT1_058@@3PAHA
	DD	FLAT:?PAT1_059@@3PAHA
	DD	FLAT:?PAT1_05A@@3PAHA
	DD	FLAT:?PAT1_05B@@3PAHA
	DD	FLAT:?PAT1_05C@@3PAHA
	DD	FLAT:?PAT1_05D@@3PAHA
	DD	FLAT:?PAT1_05E@@3PAHA
	DD	FLAT:?PAT1_05F@@3PAHA
	DD	FLAT:?PAT1_060@@3PAHA
	DD	FLAT:?PAT1_061@@3PAHA
	DD	FLAT:?PAT1_062@@3PAHA
	DD	FLAT:?PAT1_063@@3PAHA
	DD	FLAT:?PAT1_064@@3PAHA
	DD	FLAT:?PAT1_065@@3PAHA
	DD	FLAT:?PAT1_066@@3PAHA
	DD	FLAT:?PAT1_067@@3PAHA
	DD	FLAT:?PAT1_068@@3PAHA
	DD	FLAT:?PAT1_069@@3PAHA
?pPatTbl02@@3PAPAHA DD FLAT:?PAT2_000@@3PAHA		; pPatTbl02
	DD	FLAT:?PAT2_001@@3PAHA
	DD	FLAT:?PAT2_002@@3PAHA
	DD	FLAT:?PAT2_003@@3PAHA
	DD	FLAT:?PAT2_004@@3PAHA
	DD	FLAT:?PAT2_005@@3PAHA
	DD	FLAT:?PAT2_006@@3PAHA
	DD	FLAT:?PAT2_007@@3PAHA
	DD	FLAT:?PAT2_008@@3PAHA
	DD	FLAT:?PAT2_009@@3PAHA
	DD	FLAT:?PAT2_010@@3PAHA
	DD	FLAT:?PAT2_011@@3PAHA
	DD	FLAT:?PAT2_012@@3PAHA
	DD	FLAT:?PAT2_013@@3PAHA
	DD	FLAT:?PAT2_014@@3PAHA
	DD	FLAT:?PAT2_015@@3PAHA
	DD	FLAT:?PAT2_016@@3PAHA
	DD	FLAT:?PAT2_017@@3PAHA
	DD	FLAT:?PAT2_018@@3PAHA
	DD	FLAT:?PAT2_019@@3PAHA
	DD	FLAT:?PAT2_020@@3PAHA
	DD	FLAT:?PAT2_021@@3PAHA
	DD	FLAT:?PAT2_022@@3PAHA
	DD	FLAT:?PAT2_023@@3PAHA
	DD	FLAT:?PAT2_024@@3PAHA
	DD	FLAT:?PAT2_025@@3PAHA
	DD	FLAT:?PAT2_026@@3PAHA
	DD	FLAT:?PAT2_027@@3PAHA
	DD	FLAT:?PAT2_028@@3PAHA
	DD	FLAT:?PAT2_029@@3PAHA
	DD	FLAT:?PAT2_030@@3PAHA
	DD	FLAT:?PAT2_031@@3PAHA
	DD	FLAT:?PAT2_032@@3PAHA
	DD	FLAT:?PAT2_033@@3PAHA
	DD	FLAT:?PAT2_034@@3PAHA
	DD	FLAT:?PAT2_035@@3PAHA
?pPatTbl03@@3PAPAHA DD FLAT:?PAT3_000@@3PAHA		; pPatTbl03
	DD	FLAT:?PAT3_001@@3PAHA
	DD	FLAT:?PAT3_002@@3PAHA
	DD	FLAT:?PAT3_003@@3PAHA
	DD	FLAT:?PAT3_004@@3PAHA
	DD	FLAT:?PAT3_005@@3PAHA
	DD	FLAT:?PAT3_006@@3PAHA
	DD	FLAT:?PAT3_007@@3PAHA
_DATA	ENDS
END
